Certificate:
    Data:
        Version: 3 (0x2)
        Serial Number: 256 (0x100)
    Signature Algorithm: md5WithRSAEncryption
        Issuer: C=US, ST=OH, L=Columbus, O=VikingVPN, OU=MyOrganizationalUnit, CN=VikingVPN CA/name=EasyRSA/emailAddress=me@myhost.mydomain
        Validity
            Not Before: Oct  3 14:44:40 2013 GMT
            Not After : Oct  1 14:44:40 2023 GMT
        Subject: CN=Client126Certdffaaf
        Subject Public Key Info:
            Public Key Algorithm: rsaEncryption
                Public-Key: (4096 bit)
                Modulus:
                    00:9a:14:54:54:bb:91:62:51:bb:a4:8b:4e:48:8d:
                    78:e7:36:65:73:93:b8:67:7e:48:22:57:c5:71:1c:
                    c2:f5:67:01:a4:23:4e:5b:99:d0:ad:76:8d:6e:6f:
                    4b:be:4d:66:49:70:d7:d2:8d:2b:3a:77:86:86:06:
                    eb:46:81:70:e2:87:fc:e1:bb:4b:89:78:fb:b2:77:
                    ee:c9:ca:a0:e8:8a:78:5f:84:b8:cc:f0:11:3c:fe:
                    72:6a:ba:a7:32:e6:91:75:77:53:ef:fd:92:d2:99:
                    f1:d6:12:b0:ad:36:dd:db:28:a6:7f:ec:10:68:f1:
                    4d:4c:af:4e:57:8b:28:03:1a:a1:1b:e8:20:ae:0f:
                    bd:ff:e4:2e:cf:28:2b:40:c6:6c:91:5d:27:66:e0:
                    01:e4:21:aa:19:ef:f6:d7:66:15:39:54:d3:8b:06:
                    69:de:ad:26:4e:0b:59:24:81:90:94:6b:55:02:1d:
                    73:ff:ae:3c:a4:5a:4b:45:e6:71:b9:83:48:a6:b8:
                    93:1e:0c:85:ed:fa:10:65:e5:f5:80:fb:0b:a9:c3:
                    a6:c1:d8:ae:6b:33:39:79:6b:72:6f:44:d2:ec:1d:
                    22:a7:ea:43:56:ab:b6:e8:ee:eb:a9:26:1d:e6:10:
                    27:3d:4f:67:ae:2a:b8:d9:19:ff:cd:90:22:7e:12:
                    a3:a8:96:5a:c2:ac:dd:6d:26:17:d4:a2:c8:2f:f1:
                    1e:f5:e5:1f:cb:ed:96:81:94:b1:70:c5:fa:84:f0:
                    6c:04:fb:bc:30:b0:99:1f:d0:d3:e2:77:77:15:7d:
                    06:9f:8d:14:c1:f8:68:f3:ac:04:3c:ef:83:35:eb:
                    16:8a:2b:53:31:38:d3:d1:bf:4b:07:05:4e:2e:47:
                    70:44:56:53:16:47:aa:b6:97:40:be:14:c8:dc:98:
                    87:3e:d3:14:77:39:8c:4d:c0:09:c6:5c:6f:04:b5:
                    ea:c7:8c:21:15:90:07:35:c9:0e:21:3e:11:d7:b2:
                    e4:05:b1:2f:07:20:d3:b5:b5:ca:9b:b5:d5:1c:3c:
                    13:5f:65:f1:d0:7a:99:27:24:a5:c3:c7:77:3c:bc:
                    8b:a9:20:57:92:58:dd:74:d9:a8:77:be:23:09:d7:
                    94:5d:ae:c0:7c:47:73:de:11:72:31:de:a2:2f:41:
                    49:af:94:04:14:58:d3:d9:50:90:9f:f5:d2:50:e6:
                    10:94:82:83:56:83:e0:d8:74:1e:2a:37:0a:04:25:
                    58:a3:aa:85:99:e9:1c:84:eb:b4:b1:a1:a0:aa:ea:
                    8a:56:60:c1:d5:4d:88:4e:2e:b7:93:cf:8c:20:f7:
                    a7:8a:83:e7:a3:8e:59:8a:9c:8c:f5:4b:01:1a:df:
                    74:16:bb
                Exponent: 65537 (0x10001)
        X509v3 extensions:
            X509v3 Basic Constraints: 
                CA:FALSE
            Netscape Comment: 
                Easy-RSA Generated Certificate
            X509v3 Subject Key Identifier: 
                4D:27:CB:4E:49:ED:65:3B:FA:4F:C1:11:CD:85:AB:98:B3:82:56:AD
            X509v3 Authority Key Identifier: 
                keyid:12:CD:60:04:D2:A0:80:9E:70:ED:C6:99:B8:7B:2C:C6:52:FD:19:A1
                DirName:/C=US/ST=OH/L=Columbus/O=VikingVPN/OU=MyOrganizationalUnit/CN=VikingVPN CA/name=EasyRSA/emailAddress=me@myhost.mydomain
                serial:CF:35:85:EE:80:BF:2A:3E

            X509v3 Extended Key Usage: 
                TLS Web Client Authentication
            X509v3 Key Usage: 
                Digital Signature
    Signature Algorithm: md5WithRSAEncryption
         a4:63:32:21:59:ba:03:1e:27:83:88:c0:a8:e1:3d:73:06:47:
         d7:47:50:a1:df:a7:23:36:a5:aa:af:10:90:a9:7e:57:ec:3e:
         e2:cb:2d:ec:77:c9:73:a3:a5:65:0c:a2:f7:36:f4:c7:6a:51:
         99:44:22:e4:dc:cb:44:71:03:75:bd:8a:17:e7:f3:e3:c5:a3:
         d6:c8:31:69:ae:38:36:86:a9:3c:43:62:0b:78:16:28:f6:56:
         a4:e0:f8:b2:3c:d0:82:3b:dd:54:1a:0d:b4:71:88:80:76:83:
         db:a3:9b:40:4f:3b:6b:32:27:98:34:d2:20:17:29:44:55:cc:
         9e:ed:79:4c:8b:db:8c:16:73:b4:24:18:b8:22:df:7a:6e:62:
         2c:3b:80:c3:dd:3d:5b:48:59:7a:c2:0e:3d:9f:c6:91:81:cb:
         4a:db:a8:17:0d:3a:0e:08:7d:9f:4d:52:bc:f5:58:69:92:b3:
         d5:52:70:1b:28:96:6a:3f:34:f3:e5:72:3d:dc:89:65:95:91:
         44:6d:2b:b3:b2:93:ac:be:1f:a1:98:70:da:88:eb:5a:6b:f6:
         1f:11:79:48:a4:21:a5:61:9d:19:81:07:b9:9a:fe:32:e8:af:
         12:bc:9e:bc:c3:3f:8a:d7:b3:d0:fd:85:5f:61:08:45:dd:9c:
         87:ed:4a:26:fb:68:43:5b:b4:f5:06:9a:50:32:c1:3f:55:88:
         df:34:2a:99:67:0e:f6:67:65:a9:92:a8:65:f5:e9:13:03:58:
         6d:cb:59:88:19:a5:93:fb:38:2c:a4:d2:1b:66:14:a4:b9:37:
         cb:4b:b4:04:d5:95:26:0e:76:32:4f:95:e7:8f:f2:fb:df:cd:
         72:e6:f5:a6:ae:d5:f0:a7:5a:c5:ce:28:93:6a:87:99:8e:c3:
         e4:c8:67:ac:4b:5d:2d:3a:a1:1b:06:57:06:7f:0c:c8:32:87:
         59:bc:16:44:61:2d:dd:19:3f:ca:86:b4:c4:ab:64:60:1f:2d:
         0e:18:46:3f:d6:95:06:ed:9b:81:0d:f8:d0:a1:e6:f3:60:12:
         c6:60:ba:e3:e5:4c:84:28:d3:27:05:e2:07:43:66:e7:0b:73:
         3d:07:c4:ae:cd:48:af:72:75:c6:fe:b3:5a:64:63:11:72:e8:
         37:2c:a0:5f:b1:2b:7b:13:9c:0b:d6:30:fa:ca:c4:f8:72:4d:
         1e:c4:b2:20:cc:1e:94:a0:c3:f3:42:c7:be:7e:da:e0:40:2e:
         93:77:a8:eb:7f:87:02:a7:03:a1:b5:9a:f8:93:2a:17:05:89:
         24:ba:c7:39:e2:21:1c:1f:2e:c9:d2:a0:b7:13:67:d5:1c:34:
         2c:5c:28:aa:b8:d4:94:37
-----BEGIN CERTIFICATE-----
MIIGrDCCBJSgAwIBAgICAQAwDQYJKoZIhvcNAQEEBQAwgawxCzAJBgNVBAYTAlVT
MQswCQYDVQQIEwJPSDERMA8GA1UEBxMIQ29sdW1idXMxEjAQBgNVBAoTCVZpa2lu
Z1ZQTjEdMBsGA1UECxMUTXlPcmdhbml6YXRpb25hbFVuaXQxFTATBgNVBAMTDFZp
a2luZ1ZQTiBDQTEQMA4GA1UEKRMHRWFzeVJTQTEhMB8GCSqGSIb3DQEJARYSbWVA
bXlob3N0Lm15ZG9tYWluMB4XDTEzMTAwMzE0NDQ0MFoXDTIzMTAwMTE0NDQ0MFow
HjEcMBoGA1UEAxMTQ2xpZW50MTI2Q2VydGRmZmFhZjCCAiIwDQYJKoZIhvcNAQEB
BQADggIPADCCAgoCggIBAJoUVFS7kWJRu6SLTkiNeOc2ZXOTuGd+SCJXxXEcwvVn
AaQjTluZ0K12jW5vS75NZklw19KNKzp3hoYG60aBcOKH/OG7S4l4+7J37snKoOiK
eF+EuMzwETz+cmq6pzLmkXV3U+/9ktKZ8dYSsK023dsopn/sEGjxTUyvTleLKAMa
oRvoIK4Pvf/kLs8oK0DGbJFdJ2bgAeQhqhnv9tdmFTlU04sGad6tJk4LWSSBkJRr
VQIdc/+uPKRaS0XmcbmDSKa4kx4Mhe36EGXl9YD7C6nDpsHYrmszOXlrcm9E0uwd
IqfqQ1artuju66kmHeYQJz1PZ64quNkZ/82QIn4So6iWWsKs3W0mF9SiyC/xHvXl
H8vtloGUsXDF+oTwbAT7vDCwmR/Q0+J3dxV9Bp+NFMH4aPOsBDzvgzXrFoorUzE4
09G/SwcFTi5HcERWUxZHqraXQL4UyNyYhz7TFHc5jE3ACcZcbwS16seMIRWQBzXJ
DiE+Edey5AWxLwcg07W1ypu11Rw8E19l8dB6mSckpcPHdzy8i6kgV5JY3XTZqHe+
IwnXlF2uwHxHc94RcjHeoi9BSa+UBBRY09lQkJ/10lDmEJSCg1aD4Nh0Hio3CgQl
WKOqhZnpHITrtLGhoKrqilZgwdVNiE4ut5PPjCD3p4qD56OOWYqcjPVLARrfdBa7
AgMBAAGjggFjMIIBXzAJBgNVHRMEAjAAMC0GCWCGSAGG+EIBDQQgFh5FYXN5LVJT
QSBHZW5lcmF0ZWQgQ2VydGlmaWNhdGUwHQYDVR0OBBYEFE0ny05J7WU7+k/BEc2F
q5izglatMIHhBgNVHSMEgdkwgdaAFBLNYATSoICecO3Gmbh7LMZS/RmhoYGypIGv
MIGsMQswCQYDVQQGEwJVUzELMAkGA1UECBMCT0gxETAPBgNVBAcTCENvbHVtYnVz
MRIwEAYDVQQKEwlWaWtpbmdWUE4xHTAbBgNVBAsTFE15T3JnYW5pemF0aW9uYWxV
bml0MRUwEwYDVQQDEwxWaWtpbmdWUE4gQ0ExEDAOBgNVBCkTB0Vhc3lSU0ExITAf
BgkqhkiG9w0BCQEWEm1lQG15aG9zdC5teWRvbWFpboIJAM81he6Avyo+MBMGA1Ud
JQQMMAoGCCsGAQUFBwMCMAsGA1UdDwQEAwIHgDANBgkqhkiG9w0BAQQFAAOCAgEA
pGMyIVm6Ax4ng4jAqOE9cwZH10dQod+nIzalqq8QkKl+V+w+4sst7HfJc6OlZQyi
9zb0x2pRmUQi5NzLRHEDdb2KF+fz48Wj1sgxaa44NoapPENiC3gWKPZWpOD4sjzQ
gjvdVBoNtHGIgHaD26ObQE87azInmDTSIBcpRFXMnu15TIvbjBZztCQYuCLfem5i
LDuAw909W0hZesIOPZ/GkYHLStuoFw06Dgh9n01SvPVYaZKz1VJwGyiWaj808+Vy
PdyJZZWRRG0rs7KTrL4foZhw2ojrWmv2HxF5SKQhpWGdGYEHuZr+MuivEryevMM/
itez0P2FX2EIRd2ch+1KJvtoQ1u09QaaUDLBP1WI3zQqmWcO9mdlqZKoZfXpEwNY
bctZiBmlk/s4LKTSG2YUpLk3y0u0BNWVJg52Mk+V54/y+9/Ncub1pq7V8Kdaxc4o
k2qHmY7D5MhnrEtdLTqhGwZXBn8MyDKHWbwWRGEt3Rk/yoa0xKtkYB8tDhhGP9aV
Bu2bgQ340KHm82ASxmC64+VMhCjTJwXiB0Nm5wtzPQfErs1Ir3J1xv6zWmRjEXLo
NyygX7ErexOcC9Yw+srE+HJNHsSyIMwelKDD80LHvn7a4EAuk3eo63+HAqcDobWa
+JMqFwWJJLrHOeIhHB8uydKgtxNn1Rw0LFwoqrjUlDc=
-----END CERTIFICATE-----
