Certificate:
    Data:
        Version: 3 (0x2)
        Serial Number: 283 (0x11b)
    Signature Algorithm: md5WithRSAEncryption
        Issuer: C=US, ST=OH, L=Columbus, O=VikingVPN, OU=MyOrganizationalUnit, CN=VikingVPN CA/name=EasyRSA/emailAddress=me@myhost.mydomain
        Validity
            Not Before: Oct  9 14:47:36 2013 GMT
            Not After : Oct  7 14:47:36 2023 GMT
        Subject: CN=Client134Cert97ceb4
        Subject Public Key Info:
            Public Key Algorithm: rsaEncryption
                Public-Key: (4096 bit)
                Modulus:
                    00:b8:af:f1:d4:ce:4f:a9:00:76:45:ed:17:01:0e:
                    2b:f7:c7:39:34:9b:3f:f2:6e:f0:76:11:38:f3:92:
                    02:78:86:48:1e:e6:e7:9b:9f:6c:36:18:79:37:f2:
                    33:02:e2:66:21:47:09:95:d6:c5:ec:d4:28:75:5e:
                    cf:e0:6c:64:63:a8:a0:cd:00:a9:2a:7f:8d:e5:97:
                    1c:71:15:4b:44:28:79:ea:fc:09:b2:60:b4:25:ad:
                    d0:d1:51:6a:9d:85:fd:dc:fe:b0:5a:7f:ec:24:71:
                    10:79:19:49:80:81:07:92:ca:99:29:fe:f8:6f:c0:
                    15:ea:49:4c:eb:d2:db:17:1d:c0:db:02:48:16:78:
                    52:2d:04:cf:75:9b:fb:63:d7:00:08:96:be:ca:47:
                    3f:88:a2:f5:dc:8b:e5:22:34:bf:a9:88:7d:28:d5:
                    86:02:88:10:4f:bf:ea:d4:a3:c4:7f:e7:d1:4a:10:
                    13:e2:f3:74:38:4e:f6:87:de:22:27:ef:31:d6:ec:
                    90:db:4d:03:65:95:13:70:2c:96:aa:81:ed:b5:b3:
                    79:a2:20:5b:51:ae:0c:ba:63:0c:a7:c6:ff:bc:cc:
                    1d:8e:0b:af:83:cb:1f:05:98:52:5f:90:c0:d4:60:
                    43:fe:e5:c4:20:b2:ab:a1:80:de:55:99:02:77:d5:
                    e0:79:f5:94:1c:6a:65:d8:db:34:19:a3:38:11:ce:
                    72:81:da:7d:07:ee:4c:5e:e4:fc:5e:98:c0:16:93:
                    63:b9:0f:f7:71:43:8a:73:3c:69:1f:52:86:e0:df:
                    c4:2d:e4:a9:c5:42:1a:dd:ae:02:7b:39:0b:4c:58:
                    fb:5f:6a:de:4d:f1:5a:7d:da:6d:c6:fb:ce:b9:b6:
                    29:b7:c5:ff:f4:ea:2d:61:83:b4:58:09:a8:53:ca:
                    a3:07:79:45:70:d0:f0:7d:af:78:d9:c6:e1:db:98:
                    f6:e3:59:d7:eb:0e:7e:01:aa:9c:9a:4e:53:1a:de:
                    80:c7:df:cc:79:12:b1:6c:20:eb:b0:dd:f2:c7:59:
                    1a:36:4d:8a:2a:02:93:05:59:8e:91:81:32:05:04:
                    63:85:bb:d3:cc:54:7e:45:d7:1c:b0:21:a8:ba:cd:
                    f0:2f:b6:80:a0:00:24:6c:46:cb:6d:4c:4f:c9:87:
                    1a:e9:27:11:01:f2:4a:f1:ad:2b:ee:45:e0:cf:0b:
                    a8:a2:d5:d9:72:16:a8:31:45:35:6f:43:ef:3f:4d:
                    df:90:a1:54:2d:dd:73:fa:8d:7f:74:ee:4a:fd:a6:
                    35:e4:8b:f2:1c:b6:33:bb:5d:89:2d:94:dc:be:d1:
                    ed:36:f5:73:6f:7b:ea:e3:7c:db:95:ac:b4:77:e6:
                    17:41:d3
                Exponent: 65537 (0x10001)
        X509v3 extensions:
            X509v3 Basic Constraints: 
                CA:FALSE
            Netscape Comment: 
                Easy-RSA Generated Certificate
            X509v3 Subject Key Identifier: 
                B2:BD:A7:FA:57:BF:AC:24:98:61:29:37:4A:03:AA:FE:63:DD:09:7E
            X509v3 Authority Key Identifier: 
                keyid:12:CD:60:04:D2:A0:80:9E:70:ED:C6:99:B8:7B:2C:C6:52:FD:19:A1
                DirName:/C=US/ST=OH/L=Columbus/O=VikingVPN/OU=MyOrganizationalUnit/CN=VikingVPN CA/name=EasyRSA/emailAddress=me@myhost.mydomain
                serial:CF:35:85:EE:80:BF:2A:3E

            X509v3 Extended Key Usage: 
                TLS Web Client Authentication
            X509v3 Key Usage: 
                Digital Signature
    Signature Algorithm: md5WithRSAEncryption
         e3:d3:9c:55:08:f5:80:64:eb:9c:df:c3:be:f9:d2:fd:19:3e:
         4a:cf:c0:f5:5b:ca:33:7c:d0:8a:05:bf:d7:24:fc:b8:4f:29:
         49:64:6f:99:34:39:a9:ea:43:73:9c:af:15:05:a5:47:e2:a0:
         ff:fa:c8:b5:4a:33:af:64:2e:05:50:a4:04:84:e2:5b:08:22:
         b4:0e:ae:cd:85:16:57:8e:4d:d7:4f:72:0c:0c:a8:c4:00:21:
         86:24:bf:bf:51:3e:73:8c:cd:54:ae:0f:a0:34:51:59:ca:da:
         79:76:3e:e7:4c:04:27:5c:a2:b4:d0:dc:fe:ed:50:15:a3:1d:
         52:0c:27:60:db:0c:1b:84:e0:31:1b:da:a4:bb:d4:ff:f5:ba:
         77:bc:06:44:be:62:67:fb:5d:08:c6:e4:95:ba:77:45:b8:e4:
         47:2e:47:ec:20:15:02:4e:e2:d8:0b:7b:6c:4f:65:ae:e4:7b:
         e3:e3:8c:0c:f4:2f:68:89:3f:4a:f4:cc:84:ed:b2:37:2b:f5:
         23:1a:61:5f:8a:62:96:1b:9f:00:45:6d:bb:66:a5:be:fc:05:
         c5:7a:ed:31:2f:27:50:6a:32:93:d3:88:58:b7:cc:23:62:68:
         84:3d:93:97:8e:13:3a:a8:a1:27:11:58:14:a1:36:a7:74:b9:
         1d:21:2f:80:5c:10:53:17:2c:a9:95:50:ed:95:28:ec:41:8f:
         2f:26:5c:38:54:df:ca:8d:cd:bd:f6:14:2a:98:3b:8a:fb:fa:
         d9:e6:3b:7d:7d:4d:fd:20:f4:fd:81:65:02:fd:5c:f0:f3:1a:
         df:d7:68:12:49:38:da:c4:53:3d:97:d8:64:8d:66:42:97:ca:
         74:d3:95:b8:bb:0e:18:58:db:3f:17:f0:59:57:a6:5c:0b:a8:
         b9:49:ec:c1:80:2c:58:4f:2e:26:0d:7f:f3:df:14:66:f6:80:
         cd:a2:9a:25:a8:00:5f:45:9c:83:49:c1:e6:ae:89:44:59:fc:
         7d:9b:f3:b0:d2:97:71:92:1a:9b:3e:a5:fb:a7:93:ff:e2:99:
         a4:70:de:e2:71:ad:25:8b:57:58:3f:56:49:d5:29:9f:97:11:
         ee:90:19:94:34:25:f3:91:1d:e2:cf:c6:c7:71:74:5e:87:96:
         dd:db:dc:f3:3d:89:fd:c0:e1:11:a2:83:b7:74:84:09:cf:09:
         c9:24:9a:43:f1:c8:af:09:a4:58:04:0d:b3:94:7e:75:9f:b3:
         6e:e2:80:73:8f:96:7d:92:7f:85:1f:1a:ec:82:04:3d:8f:c4:
         2e:95:1e:80:b4:29:20:a0:1a:35:4b:f7:20:fc:99:fa:03:23:
         1a:61:19:19:22:a9:c7:c2
-----BEGIN CERTIFICATE-----
MIIGrDCCBJSgAwIBAgICARswDQYJKoZIhvcNAQEEBQAwgawxCzAJBgNVBAYTAlVT
MQswCQYDVQQIEwJPSDERMA8GA1UEBxMIQ29sdW1idXMxEjAQBgNVBAoTCVZpa2lu
Z1ZQTjEdMBsGA1UECxMUTXlPcmdhbml6YXRpb25hbFVuaXQxFTATBgNVBAMTDFZp
a2luZ1ZQTiBDQTEQMA4GA1UEKRMHRWFzeVJTQTEhMB8GCSqGSIb3DQEJARYSbWVA
bXlob3N0Lm15ZG9tYWluMB4XDTEzMTAwOTE0NDczNloXDTIzMTAwNzE0NDczNlow
HjEcMBoGA1UEAxMTQ2xpZW50MTM0Q2VydDk3Y2ViNDCCAiIwDQYJKoZIhvcNAQEB
BQADggIPADCCAgoCggIBALiv8dTOT6kAdkXtFwEOK/fHOTSbP/Ju8HYROPOSAniG
SB7m55ufbDYYeTfyMwLiZiFHCZXWxezUKHVez+BsZGOooM0AqSp/jeWXHHEVS0Qo
eer8CbJgtCWt0NFRap2F/dz+sFp/7CRxEHkZSYCBB5LKmSn++G/AFepJTOvS2xcd
wNsCSBZ4Ui0Ez3Wb+2PXAAiWvspHP4ii9dyL5SI0v6mIfSjVhgKIEE+/6tSjxH/n
0UoQE+LzdDhO9ofeIifvMdbskNtNA2WVE3AslqqB7bWzeaIgW1GuDLpjDKfG/7zM
HY4Lr4PLHwWYUl+QwNRgQ/7lxCCyq6GA3lWZAnfV4Hn1lBxqZdjbNBmjOBHOcoHa
fQfuTF7k/F6YwBaTY7kP93FDinM8aR9ShuDfxC3kqcVCGt2uAns5C0xY+19q3k3x
Wn3abcb7zrm2KbfF//TqLWGDtFgJqFPKowd5RXDQ8H2veNnG4duY9uNZ1+sOfgGq
nJpOUxregMffzHkSsWwg67Dd8sdZGjZNiioCkwVZjpGBMgUEY4W708xUfkXXHLAh
qLrN8C+2gKAAJGxGy21MT8mHGuknEQHySvGtK+5F4M8LqKLV2XIWqDFFNW9D7z9N
35ChVC3dc/qNf3TuSv2mNeSL8hy2M7tdiS2U3L7R7Tb1c2976uN825WstHfmF0HT
AgMBAAGjggFjMIIBXzAJBgNVHRMEAjAAMC0GCWCGSAGG+EIBDQQgFh5FYXN5LVJT
QSBHZW5lcmF0ZWQgQ2VydGlmaWNhdGUwHQYDVR0OBBYEFLK9p/pXv6wkmGEpN0oD
qv5j3Ql+MIHhBgNVHSMEgdkwgdaAFBLNYATSoICecO3Gmbh7LMZS/RmhoYGypIGv
MIGsMQswCQYDVQQGEwJVUzELMAkGA1UECBMCT0gxETAPBgNVBAcTCENvbHVtYnVz
MRIwEAYDVQQKEwlWaWtpbmdWUE4xHTAbBgNVBAsTFE15T3JnYW5pemF0aW9uYWxV
bml0MRUwEwYDVQQDEwxWaWtpbmdWUE4gQ0ExEDAOBgNVBCkTB0Vhc3lSU0ExITAf
BgkqhkiG9w0BCQEWEm1lQG15aG9zdC5teWRvbWFpboIJAM81he6Avyo+MBMGA1Ud
JQQMMAoGCCsGAQUFBwMCMAsGA1UdDwQEAwIHgDANBgkqhkiG9w0BAQQFAAOCAgEA
49OcVQj1gGTrnN/DvvnS/Rk+Ss/A9VvKM3zQigW/1yT8uE8pSWRvmTQ5qepDc5yv
FQWlR+Kg//rItUozr2QuBVCkBITiWwgitA6uzYUWV45N109yDAyoxAAhhiS/v1E+
c4zNVK4PoDRRWcraeXY+50wEJ1yitNDc/u1QFaMdUgwnYNsMG4TgMRvapLvU//W6
d7wGRL5iZ/tdCMbklbp3RbjkRy5H7CAVAk7i2At7bE9lruR74+OMDPQvaIk/SvTM
hO2yNyv1IxphX4pilhufAEVtu2alvvwFxXrtMS8nUGoyk9OIWLfMI2JohD2Tl44T
OqihJxFYFKE2p3S5HSEvgFwQUxcsqZVQ7ZUo7EGPLyZcOFTfyo3NvfYUKpg7ivv6
2eY7fX1N/SD0/YFlAv1c8PMa39doEkk42sRTPZfYZI1mQpfKdNOVuLsOGFjbPxfw
WVemXAuouUnswYAsWE8uJg1/898UZvaAzaKaJagAX0Wcg0nB5q6JRFn8fZvzsNKX
cZIamz6l+6eT/+KZpHDe4nGtJYtXWD9WSdUpn5cR7pAZlDQl85Ed4s/Gx3F0XoeW
3dvc8z2J/cDhEaKDt3SECc8JySSaQ/HIrwmkWAQNs5R+dZ+zbuKAc4+WfZJ/hR8a
7IIEPY/ELpUegLQpIKAaNUv3IPyZ+gMjGmEZGSKpx8I=
-----END CERTIFICATE-----
