Certificate:
    Data:
        Version: 3 (0x2)
        Serial Number: 317 (0x13d)
    Signature Algorithm: md5WithRSAEncryption
        Issuer: C=US, ST=OH, L=Columbus, O=VikingVPN, OU=MyOrganizationalUnit, CN=VikingVPN CA/name=EasyRSA/emailAddress=me@myhost.mydomain
        Validity
            Not Before: Oct 21 02:00:21 2013 GMT
            Not After : Oct 19 02:00:21 2023 GMT
        Subject: CN=Client143Cert79ff5d
        Subject Public Key Info:
            Public Key Algorithm: rsaEncryption
                Public-Key: (4096 bit)
                Modulus:
                    00:ca:e0:a6:6d:d1:25:c3:ed:85:36:6b:ca:0a:23:
                    22:b1:95:6b:97:27:e1:2c:5b:aa:79:d2:be:22:28:
                    8e:d3:f2:8b:0e:a3:bc:3b:7b:5f:53:e6:23:78:6c:
                    21:12:be:4d:b7:6a:59:f7:13:de:10:ea:86:a7:fb:
                    28:d3:23:3a:54:26:51:53:93:98:a0:d4:b8:f5:fb:
                    06:8b:ac:bb:f0:1d:9d:fb:ce:4f:0c:cc:dd:77:91:
                    c6:f1:03:27:76:44:45:9b:d2:86:e2:fb:06:87:f1:
                    b3:f8:f7:b4:4c:8a:5e:30:ce:a9:f3:56:c8:73:f1:
                    f8:d9:e1:55:53:fd:13:d3:4c:b9:c3:94:2f:a0:d4:
                    24:02:85:e0:1e:a4:d3:15:ff:f1:1d:bd:7d:75:c9:
                    80:8c:79:e3:66:a1:a3:30:38:3a:de:bf:e6:a3:48:
                    64:9c:06:d6:3b:d3:1a:c4:61:a0:41:88:75:6f:ff:
                    e3:e2:18:4b:5d:dc:1c:3e:1b:d0:06:12:3b:4a:3f:
                    69:20:47:ed:8e:19:06:99:80:bc:f5:4e:44:25:47:
                    3a:fe:3f:2c:f2:f3:70:a0:34:c4:38:22:da:0f:4b:
                    33:b6:0f:7a:b2:51:a6:8a:d2:57:ff:bd:f2:08:3e:
                    38:9e:db:eb:c2:3f:c9:9e:6a:a3:d8:68:39:0e:fb:
                    a9:34:0b:ee:39:ac:2c:28:e6:11:15:61:e3:a7:94:
                    ed:58:99:1f:3d:fa:fd:d8:4e:f8:83:4a:4b:cc:ca:
                    4b:0d:5a:4a:cf:6d:fe:6a:4e:cb:59:3c:08:b3:f6:
                    d3:bd:c6:83:ad:43:dc:3f:15:4a:0c:dd:2b:d0:b6:
                    79:e2:a8:08:41:cb:aa:ed:9e:f3:be:7e:df:22:17:
                    3e:6d:e6:6f:7e:db:00:cd:22:2a:84:e2:bb:12:61:
                    34:e1:c0:7c:2f:86:e5:72:58:f2:a4:c8:3c:ba:17:
                    e0:9c:a9:78:a6:e0:69:60:f2:d6:72:64:49:f6:b8:
                    45:08:42:87:be:5e:84:7d:2b:cf:d7:5d:a9:2f:13:
                    35:ed:15:2b:5e:32:32:65:bb:4f:04:5e:65:35:cd:
                    05:60:ce:1e:90:29:db:22:48:e9:78:00:44:95:a5:
                    a1:ee:ff:f1:8b:79:98:7b:d8:bc:9f:22:8d:a1:db:
                    d1:f8:e1:f9:8f:8b:a9:b8:aa:02:8d:03:c6:4a:11:
                    d2:10:3c:fb:15:be:9b:8f:7f:59:fd:de:4e:b7:2f:
                    c5:35:9a:03:c8:5d:78:fb:e7:8d:9a:8e:d4:ae:3f:
                    00:03:40:ab:b3:ad:d5:ee:50:ae:4d:b5:63:c8:a1:
                    21:41:22:60:35:30:c0:d4:a1:51:66:22:1a:aa:33:
                    c0:aa:fd
                Exponent: 65537 (0x10001)
        X509v3 extensions:
            X509v3 Basic Constraints: 
                CA:FALSE
            Netscape Comment: 
                Easy-RSA Generated Certificate
            X509v3 Subject Key Identifier: 
                2A:E4:71:46:B8:4D:8A:9B:51:9A:1D:5B:2D:C4:18:E9:50:E7:F5:55
            X509v3 Authority Key Identifier: 
                keyid:12:CD:60:04:D2:A0:80:9E:70:ED:C6:99:B8:7B:2C:C6:52:FD:19:A1
                DirName:/C=US/ST=OH/L=Columbus/O=VikingVPN/OU=MyOrganizationalUnit/CN=VikingVPN CA/name=EasyRSA/emailAddress=me@myhost.mydomain
                serial:CF:35:85:EE:80:BF:2A:3E

            X509v3 Extended Key Usage: 
                TLS Web Client Authentication
            X509v3 Key Usage: 
                Digital Signature
    Signature Algorithm: md5WithRSAEncryption
         4e:2b:e9:a1:0c:3c:04:d4:b6:be:8a:1c:03:cf:98:1c:70:4e:
         8f:be:63:b0:8d:38:a1:08:4c:06:42:b5:8c:f0:48:4f:1a:a4:
         fd:d9:43:12:dd:a1:d6:0a:2c:eb:d7:52:d9:dd:34:04:f4:80:
         c0:69:9f:5f:d2:58:ed:83:93:14:48:f7:a6:e6:c0:f2:66:85:
         4d:94:0c:f9:78:87:c5:d3:c1:83:9b:50:7e:d0:a8:97:6a:ee:
         70:c0:8d:28:a3:16:e9:a2:46:78:e9:8e:7e:00:42:46:aa:31:
         97:ac:2e:34:fc:48:98:0d:a5:57:75:13:a7:4d:d8:4a:35:70:
         25:99:db:00:fb:56:19:0a:6d:7e:6f:05:13:4a:5c:71:50:7d:
         e3:94:65:28:e2:b7:e8:53:c0:4a:f6:79:e2:47:39:40:47:b5:
         90:27:f0:48:f2:a7:e7:45:ee:57:43:d0:f5:4b:65:d7:d9:2a:
         5c:c7:d1:74:89:f7:a5:8e:ea:a6:7a:d2:26:d1:d0:0a:ff:89:
         35:ed:9e:a8:0f:24:9a:93:9d:b2:6a:1b:91:d5:96:cc:5c:95:
         77:32:e3:eb:19:c3:b2:fa:b8:21:22:a9:4c:15:7b:5b:e0:a4:
         12:f3:d4:ad:e9:14:28:46:0a:31:43:ae:3f:4f:3f:48:65:6b:
         b9:57:2b:28:b0:43:59:c7:2c:e8:4d:93:f3:6d:d5:af:2e:b9:
         c8:94:53:c3:33:51:b6:82:96:f6:0a:3d:66:98:0a:f8:9b:07:
         c7:c9:93:43:98:54:5f:47:5a:0f:32:cd:d3:e2:87:54:4d:3d:
         93:cf:c0:98:e0:b5:b8:2c:7b:b7:7a:52:98:1d:57:28:91:76:
         30:1b:8c:9c:d0:7a:d1:4c:a3:1c:62:59:b4:5e:28:67:7b:b8:
         e7:de:ea:52:3a:80:4e:b4:de:1c:4a:0e:e7:61:95:fb:ea:d6:
         35:1d:21:f0:75:8b:60:fd:66:41:2b:08:eb:eb:ca:08:5e:59:
         bc:8d:a9:05:15:70:58:ab:13:07:9f:11:ec:e3:68:88:e8:b6:
         a2:d0:d4:9b:ab:8c:76:b4:11:d3:b5:30:97:2e:68:5c:fa:ac:
         a7:19:9c:be:95:4c:5d:4c:e2:3a:e6:4e:6d:9a:28:d7:c1:6b:
         4e:45:c9:b6:85:84:c1:b1:1d:8b:b2:29:d4:6d:d2:16:f8:e5:
         87:c8:d1:ee:1f:0d:4e:14:46:2a:a8:81:1a:95:ec:35:54:bb:
         64:f5:fa:ad:f8:87:66:78:12:84:50:30:26:09:b2:70:08:c6:
         13:95:0e:19:81:04:c2:df:31:4c:eb:ec:43:6c:38:58:39:51:
         57:1d:12:ad:9e:c1:72:78
-----BEGIN CERTIFICATE-----
MIIGrDCCBJSgAwIBAgICAT0wDQYJKoZIhvcNAQEEBQAwgawxCzAJBgNVBAYTAlVT
MQswCQYDVQQIEwJPSDERMA8GA1UEBxMIQ29sdW1idXMxEjAQBgNVBAoTCVZpa2lu
Z1ZQTjEdMBsGA1UECxMUTXlPcmdhbml6YXRpb25hbFVuaXQxFTATBgNVBAMTDFZp
a2luZ1ZQTiBDQTEQMA4GA1UEKRMHRWFzeVJTQTEhMB8GCSqGSIb3DQEJARYSbWVA
bXlob3N0Lm15ZG9tYWluMB4XDTEzMTAyMTAyMDAyMVoXDTIzMTAxOTAyMDAyMVow
HjEcMBoGA1UEAxMTQ2xpZW50MTQzQ2VydDc5ZmY1ZDCCAiIwDQYJKoZIhvcNAQEB
BQADggIPADCCAgoCggIBAMrgpm3RJcPthTZrygojIrGVa5cn4SxbqnnSviIojtPy
iw6jvDt7X1PmI3hsIRK+TbdqWfcT3hDqhqf7KNMjOlQmUVOTmKDUuPX7Bousu/Ad
nfvOTwzM3XeRxvEDJ3ZERZvShuL7Bofxs/j3tEyKXjDOqfNWyHPx+NnhVVP9E9NM
ucOUL6DUJAKF4B6k0xX/8R29fXXJgIx542ahozA4Ot6/5qNIZJwG1jvTGsRhoEGI
dW//4+IYS13cHD4b0AYSO0o/aSBH7Y4ZBpmAvPVORCVHOv4/LPLzcKA0xDgi2g9L
M7YPerJRporSV/+98gg+OJ7b68I/yZ5qo9hoOQ77qTQL7jmsLCjmERVh46eU7ViZ
Hz36/dhO+INKS8zKSw1aSs9t/mpOy1k8CLP2073Gg61D3D8VSgzdK9C2eeKoCEHL
qu2e875+3yIXPm3mb37bAM0iKoTiuxJhNOHAfC+G5XJY8qTIPLoX4JypeKbgaWDy
1nJkSfa4RQhCh75ehH0rz9ddqS8TNe0VK14yMmW7TwReZTXNBWDOHpAp2yJI6XgA
RJWloe7/8Yt5mHvYvJ8ijaHb0fjh+Y+LqbiqAo0DxkoR0hA8+xW+m49/Wf3eTrcv
xTWaA8hdePvnjZqO1K4/AANAq7Ot1e5Qrk21Y8ihIUEiYDUwwNShUWYiGqozwKr9
AgMBAAGjggFjMIIBXzAJBgNVHRMEAjAAMC0GCWCGSAGG+EIBDQQgFh5FYXN5LVJT
QSBHZW5lcmF0ZWQgQ2VydGlmaWNhdGUwHQYDVR0OBBYEFCrkcUa4TYqbUZodWy3E
GOlQ5/VVMIHhBgNVHSMEgdkwgdaAFBLNYATSoICecO3Gmbh7LMZS/RmhoYGypIGv
MIGsMQswCQYDVQQGEwJVUzELMAkGA1UECBMCT0gxETAPBgNVBAcTCENvbHVtYnVz
MRIwEAYDVQQKEwlWaWtpbmdWUE4xHTAbBgNVBAsTFE15T3JnYW5pemF0aW9uYWxV
bml0MRUwEwYDVQQDEwxWaWtpbmdWUE4gQ0ExEDAOBgNVBCkTB0Vhc3lSU0ExITAf
BgkqhkiG9w0BCQEWEm1lQG15aG9zdC5teWRvbWFpboIJAM81he6Avyo+MBMGA1Ud
JQQMMAoGCCsGAQUFBwMCMAsGA1UdDwQEAwIHgDANBgkqhkiG9w0BAQQFAAOCAgEA
TivpoQw8BNS2voocA8+YHHBOj75jsI04oQhMBkK1jPBITxqk/dlDEt2h1gos69dS
2d00BPSAwGmfX9JY7YOTFEj3pubA8maFTZQM+XiHxdPBg5tQftCol2rucMCNKKMW
6aJGeOmOfgBCRqoxl6wuNPxImA2lV3UTp03YSjVwJZnbAPtWGQptfm8FE0pccVB9
45RlKOK36FPASvZ54kc5QEe1kCfwSPKn50XuV0PQ9Utl19kqXMfRdIn3pY7qpnrS
JtHQCv+JNe2eqA8kmpOdsmobkdWWzFyVdzLj6xnDsvq4ISKpTBV7W+CkEvPUrekU
KEYKMUOuP08/SGVruVcrKLBDWccs6E2T823Vry65yJRTwzNRtoKW9go9ZpgK+JsH
x8mTQ5hUX0daDzLN0+KHVE09k8/AmOC1uCx7t3pSmB1XKJF2MBuMnNB60UyjHGJZ
tF4oZ3u4597qUjqATrTeHEoO52GV++rWNR0h8HWLYP1mQSsI6+vKCF5ZvI2pBRVw
WKsTB58R7ONoiOi2otDUm6uMdrQR07Uwly5oXPqspxmcvpVMXUziOuZObZoo18Fr
TkXJtoWEwbEdi7Ip1G3SFvjlh8jR7h8NThRGKqiBGpXsNVS7ZPX6rfiHZngShFAw
JgmycAjGE5UOGYEEwt8xTOvsQ2w4WDlRVx0SrZ7Bcng=
-----END CERTIFICATE-----
