Certificate:
    Data:
        Version: 3 (0x2)
        Serial Number: 339 (0x153)
    Signature Algorithm: md5WithRSAEncryption
        Issuer: C=US, ST=OH, L=Columbus, O=VikingVPN, OU=MyOrganizationalUnit, CN=VikingVPN CA/name=EasyRSA/emailAddress=me@myhost.mydomain
        Validity
            Not Before: Oct 26 01:16:15 2013 GMT
            Not After : Oct 24 01:16:15 2023 GMT
        Subject: CN=Client71Cert5e9538
        Subject Public Key Info:
            Public Key Algorithm: rsaEncryption
                Public-Key: (4096 bit)
                Modulus:
                    00:f2:a8:ff:15:3c:c5:45:63:92:86:f4:c5:0e:72:
                    4c:b7:2b:b5:1f:c1:e2:ce:6b:88:b8:7f:14:ba:d3:
                    b9:4a:82:40:f8:5b:87:6a:6a:b5:99:87:d8:4f:47:
                    40:34:f7:84:37:af:ba:09:a7:25:72:2b:62:40:c7:
                    b1:4d:a8:18:3a:6b:e8:07:57:bb:54:74:33:ce:f3:
                    47:ae:68:f6:b9:27:09:35:da:ee:e3:53:30:8d:b6:
                    6c:d9:17:21:d6:5a:2f:c9:b9:77:90:dc:95:96:51:
                    6c:7e:62:ad:41:b7:8f:2a:88:a9:4e:3e:23:71:1b:
                    51:47:2c:56:4d:ee:4e:d9:81:b2:20:f2:2d:ca:ae:
                    21:48:e5:ef:10:a8:30:ae:d4:5a:69:1d:75:01:b9:
                    12:33:95:d0:b2:10:4f:99:95:26:dc:f7:c2:8e:c5:
                    4e:b5:31:dd:48:5b:28:ac:a5:5c:ed:86:66:0c:60:
                    04:56:41:f7:1c:6c:86:60:31:7f:ef:33:80:f6:a5:
                    9a:15:59:ad:f4:84:e9:59:6e:70:5c:95:dd:d1:5d:
                    a8:1b:32:8f:50:14:0b:ce:06:4c:37:bc:2d:5d:5e:
                    cc:59:01:4a:5a:13:4c:30:1e:31:7a:0e:9b:86:eb:
                    78:43:49:d3:ba:11:3f:22:23:06:86:64:cc:e7:35:
                    ef:22:b9:00:42:d8:e9:80:9e:fe:66:c6:6f:63:c9:
                    b1:dc:6d:93:f5:cd:4f:a7:9a:8b:13:88:21:f9:53:
                    57:a4:07:36:a6:bc:19:4f:7f:bd:fa:67:34:bd:c8:
                    67:2f:53:40:c5:24:9e:5a:9d:48:f5:d4:91:3f:75:
                    0e:90:c2:36:7d:c3:78:54:9b:88:91:9d:2d:0e:6a:
                    af:d6:2a:4f:26:01:e0:f2:9b:c3:d6:5b:cd:01:aa:
                    9f:c1:09:22:1b:34:e8:31:64:5a:4a:09:ca:08:e4:
                    97:5b:d2:07:f4:65:1a:ef:0a:6b:db:fb:90:63:93:
                    ec:9e:ac:81:43:b6:c3:44:99:55:9d:22:87:69:c1:
                    cd:d6:55:cd:52:7b:6d:3a:59:cd:cd:2d:21:21:38:
                    59:f8:28:91:7b:32:91:16:42:85:06:f3:fc:a8:92:
                    3d:44:5f:e1:21:2b:68:3c:19:99:2e:2b:f9:e7:49:
                    ec:b9:84:93:86:31:de:df:ad:ae:58:84:c2:5f:f5:
                    09:04:8f:a5:af:91:31:dc:09:20:df:f1:ea:b2:e2:
                    5e:2b:eb:c9:10:30:c0:80:88:3a:15:25:fe:82:5f:
                    4c:07:cb:b3:5c:8a:35:29:cf:52:dc:32:f9:2a:06:
                    91:ed:9b:62:5d:c1:ef:0e:20:09:b0:6c:39:e1:97:
                    32:7f:eb
                Exponent: 65537 (0x10001)
        X509v3 extensions:
            X509v3 Basic Constraints: 
                CA:FALSE
            Netscape Comment: 
                Easy-RSA Generated Certificate
            X509v3 Subject Key Identifier: 
                DA:87:04:F2:E0:ED:52:E8:14:07:40:CA:68:1A:0E:6E:54:EF:99:A8
            X509v3 Authority Key Identifier: 
                keyid:12:CD:60:04:D2:A0:80:9E:70:ED:C6:99:B8:7B:2C:C6:52:FD:19:A1
                DirName:/C=US/ST=OH/L=Columbus/O=VikingVPN/OU=MyOrganizationalUnit/CN=VikingVPN CA/name=EasyRSA/emailAddress=me@myhost.mydomain
                serial:CF:35:85:EE:80:BF:2A:3E

            X509v3 Extended Key Usage: 
                TLS Web Client Authentication
            X509v3 Key Usage: 
                Digital Signature
    Signature Algorithm: md5WithRSAEncryption
         a6:df:82:ee:cc:e1:0d:a1:01:1e:10:77:ac:db:d7:eb:ea:f2:
         0f:c7:40:b0:38:37:b4:fe:1a:20:ea:08:20:b2:c8:54:08:1c:
         69:f4:a2:15:ca:4c:bc:eb:2d:35:48:c4:2d:0c:4a:53:85:c3:
         77:69:17:34:ee:11:9a:21:20:d2:96:bd:b9:09:30:67:b2:ca:
         1e:5a:1f:27:07:56:dc:80:6b:7a:9a:52:87:21:28:e5:3b:6d:
         c3:d8:fa:f3:0d:4d:60:8b:19:19:bc:22:af:ab:13:3b:65:fe:
         f8:fd:33:58:10:9e:78:5f:94:5f:21:e9:d8:bd:ff:9f:7b:e4:
         35:b8:a7:3e:b0:fd:76:6d:b7:34:87:db:e2:9f:f1:5c:2d:5a:
         3d:2e:57:cc:71:82:2e:83:ca:62:95:2e:9c:a7:06:3b:88:1b:
         47:d4:96:60:e4:42:d3:56:2b:8a:06:4f:7a:f8:0b:4b:39:df:
         c7:89:1d:1e:f0:95:ab:27:86:c3:54:00:ca:bc:8e:8d:cd:f0:
         a7:f1:16:e7:60:04:31:74:51:a6:f8:4f:50:e3:81:64:29:66:
         05:63:74:ad:67:71:06:e9:f3:15:ba:44:c4:43:06:09:37:1e:
         ff:9d:88:71:14:4f:aa:2b:84:ed:5a:e4:72:aa:10:69:c9:19:
         d1:11:10:24:7e:fb:24:81:18:be:4b:7b:ba:a6:c8:03:e8:bf:
         00:58:c0:87:58:25:7f:4c:52:09:0a:35:fb:70:36:21:7d:5d:
         3b:c5:61:36:1d:7a:07:40:7a:58:6c:94:c3:14:8d:43:b4:35:
         cc:46:2c:ec:19:74:4d:9e:9c:e2:d8:be:f1:a6:a6:1a:ad:6e:
         5f:f7:da:0d:9a:a9:13:98:19:01:7f:77:c4:58:5a:8b:b0:4f:
         c5:53:1a:50:a4:26:b4:09:39:ea:be:93:3b:56:e9:66:35:85:
         ed:bf:b2:f4:4c:df:0b:ba:9a:2a:67:45:c8:3e:38:c7:be:53:
         37:7a:47:f7:33:5d:4b:be:08:63:5d:3e:30:fb:35:6b:79:6c:
         c8:af:0e:01:eb:e2:49:16:09:fa:54:ec:95:b6:12:ff:85:91:
         92:5f:07:4f:e7:98:25:16:76:4c:e4:64:fa:b6:16:7c:a4:f6:
         43:5e:cc:cd:ef:e6:c9:46:cb:7d:21:ee:24:e0:b3:9b:b5:cd:
         83:c7:3b:07:3c:11:1f:5d:ef:db:04:9f:f5:e1:3f:02:9d:ea:
         83:ac:2d:48:c9:f3:b4:b9:4e:20:bd:8b:eb:20:59:43:1b:d3:
         b3:7d:f3:61:5f:ca:eb:92:7d:49:2b:0e:fe:3f:67:b7:c5:66:
         fe:fc:a5:57:7c:11:45:ee
-----BEGIN CERTIFICATE-----
MIIGqzCCBJOgAwIBAgICAVMwDQYJKoZIhvcNAQEEBQAwgawxCzAJBgNVBAYTAlVT
MQswCQYDVQQIEwJPSDERMA8GA1UEBxMIQ29sdW1idXMxEjAQBgNVBAoTCVZpa2lu
Z1ZQTjEdMBsGA1UECxMUTXlPcmdhbml6YXRpb25hbFVuaXQxFTATBgNVBAMTDFZp
a2luZ1ZQTiBDQTEQMA4GA1UEKRMHRWFzeVJTQTEhMB8GCSqGSIb3DQEJARYSbWVA
bXlob3N0Lm15ZG9tYWluMB4XDTEzMTAyNjAxMTYxNVoXDTIzMTAyNDAxMTYxNVow
HTEbMBkGA1UEAxMSQ2xpZW50NzFDZXJ0NWU5NTM4MIICIjANBgkqhkiG9w0BAQEF
AAOCAg8AMIICCgKCAgEA8qj/FTzFRWOShvTFDnJMtyu1H8HizmuIuH8UutO5SoJA
+FuHamq1mYfYT0dANPeEN6+6CaclcitiQMexTagYOmvoB1e7VHQzzvNHrmj2uScJ
Ndru41MwjbZs2Rch1lovybl3kNyVllFsfmKtQbePKoipTj4jcRtRRyxWTe5O2YGy
IPItyq4hSOXvEKgwrtRaaR11AbkSM5XQshBPmZUm3PfCjsVOtTHdSFsorKVc7YZm
DGAEVkH3HGyGYDF/7zOA9qWaFVmt9ITpWW5wXJXd0V2oGzKPUBQLzgZMN7wtXV7M
WQFKWhNMMB4xeg6bhut4Q0nTuhE/IiMGhmTM5zXvIrkAQtjpgJ7+ZsZvY8mx3G2T
9c1Pp5qLE4gh+VNXpAc2prwZT3+9+mc0vchnL1NAxSSeWp1I9dSRP3UOkMI2fcN4
VJuIkZ0tDmqv1ipPJgHg8pvD1lvNAaqfwQkiGzToMWRaSgnKCOSXW9IH9GUa7wpr
2/uQY5PsnqyBQ7bDRJlVnSKHacHN1lXNUnttOlnNzS0hIThZ+CiRezKRFkKFBvP8
qJI9RF/hIStoPBmZLiv550nsuYSThjHe362uWITCX/UJBI+lr5Ex3Akg3/HqsuJe
K+vJEDDAgIg6FSX+gl9MB8uzXIo1Kc9S3DL5KgaR7ZtiXcHvDiAJsGw54Zcyf+sC
AwEAAaOCAWMwggFfMAkGA1UdEwQCMAAwLQYJYIZIAYb4QgENBCAWHkVhc3ktUlNB
IEdlbmVyYXRlZCBDZXJ0aWZpY2F0ZTAdBgNVHQ4EFgQU2ocE8uDtUugUB0DKaBoO
blTvmagwgeEGA1UdIwSB2TCB1oAUEs1gBNKggJ5w7caZuHssxlL9GaGhgbKkga8w
gawxCzAJBgNVBAYTAlVTMQswCQYDVQQIEwJPSDERMA8GA1UEBxMIQ29sdW1idXMx
EjAQBgNVBAoTCVZpa2luZ1ZQTjEdMBsGA1UECxMUTXlPcmdhbml6YXRpb25hbFVu
aXQxFTATBgNVBAMTDFZpa2luZ1ZQTiBDQTEQMA4GA1UEKRMHRWFzeVJTQTEhMB8G
CSqGSIb3DQEJARYSbWVAbXlob3N0Lm15ZG9tYWluggkAzzWF7oC/Kj4wEwYDVR0l
BAwwCgYIKwYBBQUHAwIwCwYDVR0PBAQDAgeAMA0GCSqGSIb3DQEBBAUAA4ICAQCm
34LuzOENoQEeEHes29fr6vIPx0CwODe0/hog6gggsshUCBxp9KIVyky86y01SMQt
DEpThcN3aRc07hGaISDSlr25CTBnssoeWh8nB1bcgGt6mlKHISjlO23D2PrzDU1g
ixkZvCKvqxM7Zf74/TNYEJ54X5RfIenYvf+fe+Q1uKc+sP12bbc0h9vin/FcLVo9
LlfMcYIug8pilS6cpwY7iBtH1JZg5ELTViuKBk96+AtLOd/HiR0e8JWrJ4bDVADK
vI6NzfCn8RbnYAQxdFGm+E9Q44FkKWYFY3StZ3EG6fMVukTEQwYJNx7/nYhxFE+q
K4TtWuRyqhBpyRnRERAkfvskgRi+S3u6psgD6L8AWMCHWCV/TFIJCjX7cDYhfV07
xWE2HXoHQHpYbJTDFI1DtDXMRizsGXRNnpzi2L7xpqYarW5f99oNmqkTmBkBf3fE
WFqLsE/FUxpQpCa0CTnqvpM7VulmNYXtv7L0TN8LupoqZ0XIPjjHvlM3ekf3M11L
vghjXT4w+zVreWzIrw4B6+JJFgn6VOyVthL/hZGSXwdP55glFnZM5GT6thZ8pPZD
XszN7+bJRst9Ie4k4LObtc2DxzsHPBEfXe/bBJ/14T8CneqDrC1IyfO0uU4gvYvr
IFlDG9OzffNhX8rrkn1JKw7+P2e3xWb+/KVXfBFF7g==
-----END CERTIFICATE-----
