Certificate:
    Data:
        Version: 3 (0x2)
        Serial Number: 341 (0x155)
    Signature Algorithm: md5WithRSAEncryption
        Issuer: C=US, ST=OH, L=Columbus, O=VikingVPN, OU=MyOrganizationalUnit, CN=VikingVPN CA/name=EasyRSA/emailAddress=me@myhost.mydomain
        Validity
            Not Before: Oct 26 08:12:11 2013 GMT
            Not After : Oct 24 08:12:11 2023 GMT
        Subject: CN=Client3Cert22f610
        Subject Public Key Info:
            Public Key Algorithm: rsaEncryption
                Public-Key: (4096 bit)
                Modulus:
                    00:ce:b2:6b:9f:44:34:4b:70:c6:91:5d:a8:a3:bd:
                    0f:81:32:5c:e3:45:09:a8:23:8a:89:27:0f:2d:21:
                    66:47:e5:0c:e3:3c:d1:1f:be:4b:59:c4:eb:3a:18:
                    c5:82:50:7c:de:22:a5:57:36:9f:58:bf:3e:5f:0e:
                    f6:c4:e7:f3:4c:54:e9:6a:dd:7b:24:c2:c3:2c:8a:
                    76:c8:8b:49:0f:4e:fc:4f:97:79:d1:7b:95:9a:b9:
                    54:e5:d4:32:a5:87:11:2a:ed:8e:dc:ce:39:54:e6:
                    de:5d:de:19:de:e2:fd:4c:8f:b8:74:48:1d:6b:8b:
                    31:4a:99:71:55:57:6d:c0:d5:24:d4:a4:80:a7:db:
                    85:ed:04:8a:da:f9:c0:9c:dc:5b:04:46:e5:ea:cd:
                    57:6a:3d:cb:45:f4:34:83:b9:34:d9:ae:61:c7:60:
                    74:fa:2e:44:59:78:ce:27:76:2d:e7:ff:5c:18:db:
                    3a:23:61:2a:ff:37:73:f1:9a:1c:e5:a3:e4:11:29:
                    57:cf:04:06:20:e7:fc:53:b5:6e:0b:cd:65:67:3b:
                    e4:33:b3:9f:db:13:47:6d:5f:c9:80:27:ba:44:a2:
                    92:d8:8e:d9:d4:78:f4:a4:60:e4:3d:16:3e:ab:66:
                    05:ca:81:fa:7e:15:91:b5:be:c0:9f:9d:a5:58:e2:
                    a1:4d:3d:03:16:dd:2d:a1:b6:cf:13:d0:ca:8c:f7:
                    32:88:19:86:af:43:ca:fb:83:67:af:b6:a4:76:65:
                    99:f3:2c:04:c6:28:81:a2:d1:c9:7a:17:92:32:87:
                    c9:06:18:aa:a7:ec:46:0d:1c:e3:42:60:b0:4b:c8:
                    91:0c:ff:bb:d1:63:05:5d:80:d9:31:f0:e3:2e:69:
                    84:bf:94:88:b3:5c:ac:4b:b8:3a:88:f0:49:b3:51:
                    5b:95:52:78:a8:ed:b6:0f:1d:64:22:e6:5b:89:be:
                    7d:c3:ae:63:21:df:9e:d4:e0:07:b3:99:be:66:37:
                    9b:64:72:53:06:32:4e:e4:96:cf:73:41:b1:ba:d3:
                    87:8f:70:e0:55:03:79:55:49:28:4d:84:ee:f5:7c:
                    9f:3f:39:d8:11:0a:b7:5f:ce:55:aa:44:97:06:8f:
                    33:b3:2b:fc:83:b6:56:0b:1e:f0:88:b2:98:ac:cf:
                    f9:08:07:63:fd:e0:60:fd:60:0f:d3:92:5b:94:5a:
                    d5:e6:40:8a:16:b0:80:38:c9:48:b0:61:a5:34:7d:
                    6a:93:35:1e:1e:85:6f:40:c5:05:6a:fe:68:da:e6:
                    40:ea:74:e0:f3:a2:0b:b9:9a:de:e8:43:12:b4:4b:
                    45:4a:27:e5:15:c5:4d:af:87:af:d6:cc:99:27:73:
                    a5:dd:99
                Exponent: 65537 (0x10001)
        X509v3 extensions:
            X509v3 Basic Constraints: 
                CA:FALSE
            Netscape Comment: 
                Easy-RSA Generated Certificate
            X509v3 Subject Key Identifier: 
                FD:D5:42:D2:A7:FD:57:17:8F:D4:DA:1F:DE:00:4A:24:52:8C:22:07
            X509v3 Authority Key Identifier: 
                keyid:12:CD:60:04:D2:A0:80:9E:70:ED:C6:99:B8:7B:2C:C6:52:FD:19:A1
                DirName:/C=US/ST=OH/L=Columbus/O=VikingVPN/OU=MyOrganizationalUnit/CN=VikingVPN CA/name=EasyRSA/emailAddress=me@myhost.mydomain
                serial:CF:35:85:EE:80:BF:2A:3E

            X509v3 Extended Key Usage: 
                TLS Web Client Authentication
            X509v3 Key Usage: 
                Digital Signature
    Signature Algorithm: md5WithRSAEncryption
         59:4f:77:d0:26:46:c6:09:c5:f8:31:63:f5:ea:ae:27:44:4f:
         36:f5:b9:c0:fb:20:4e:82:e4:35:68:78:f3:c4:85:6e:cb:70:
         60:7b:95:d2:29:56:2e:f5:6c:15:64:d6:3a:db:ef:72:e6:f1:
         fb:34:ef:ca:00:6b:d4:78:10:b2:a7:7c:90:0e:01:4b:5a:0b:
         42:74:da:74:cc:47:94:35:9a:ff:a4:4a:7d:6b:03:57:68:10:
         52:63:76:4a:c7:8b:26:dc:62:f2:f5:bd:c5:3e:56:dc:fc:30:
         be:bc:a5:7e:89:c5:9e:23:fc:98:bb:3c:9e:ab:10:4a:7e:dc:
         e3:70:2a:88:41:ba:cc:64:67:d8:ec:78:e0:8e:f3:3d:c0:a7:
         5e:3a:1d:5d:d0:71:9e:0f:df:c2:0b:de:a5:0d:0e:05:37:63:
         30:3d:fe:cc:91:30:8d:57:4a:45:02:74:a5:5e:55:ec:e6:85:
         29:92:2d:1f:f5:cd:dd:cc:fe:5c:df:da:7b:4b:66:fb:15:32:
         47:0b:8f:fa:8e:b4:00:28:08:44:f7:e9:5d:ed:65:ca:3c:c1:
         47:9e:70:2a:83:ad:34:05:e2:87:60:d0:33:c7:b5:9f:1d:5f:
         98:04:fa:3d:9f:87:42:2f:36:d1:72:24:a6:da:78:11:91:ee:
         24:08:e0:8a:f4:a8:20:9e:41:1a:77:b9:b7:d4:66:c8:4b:9c:
         27:e3:15:d2:83:1a:29:d2:aa:8f:62:36:50:06:54:5b:78:e9:
         c5:63:c9:9e:5a:28:76:30:0a:a9:df:1f:27:fd:ed:d8:84:7d:
         cd:c2:05:81:4d:c0:ce:e3:70:83:d4:2b:4d:82:3d:a6:95:ac:
         6b:66:a0:33:0a:a2:bc:56:60:5a:51:95:d0:ee:72:e7:3e:90:
         8b:57:6d:34:82:cc:8d:d2:69:e3:82:4f:e6:8d:70:c7:d9:3d:
         6c:06:1c:5f:9f:7c:49:0f:18:8b:68:ee:23:48:0a:0f:72:9f:
         4b:b6:c4:27:36:df:94:c8:db:6b:21:0b:27:df:05:15:39:df:
         a2:8a:62:26:9c:ad:a1:9e:0b:65:21:b4:38:a5:ba:fc:96:22:
         78:ed:63:3f:5a:62:a9:6f:4b:34:aa:2b:dd:59:e7:a9:30:b1:
         c8:e0:2d:82:22:a7:fc:a3:33:41:fa:64:9c:63:cd:20:93:02:
         78:c4:f4:1f:3c:41:10:a2:c8:e6:40:39:e4:0d:cb:f0:97:80:
         32:f1:47:4f:2e:ef:fc:7e:ef:00:17:32:db:99:86:d2:e2:4e:
         8c:4c:25:0c:52:0e:54:a3:57:2e:fb:28:e0:68:cd:4e:80:8c:
         76:17:a7:ca:84:3b:76:4c
-----BEGIN CERTIFICATE-----
MIIGqjCCBJKgAwIBAgICAVUwDQYJKoZIhvcNAQEEBQAwgawxCzAJBgNVBAYTAlVT
MQswCQYDVQQIEwJPSDERMA8GA1UEBxMIQ29sdW1idXMxEjAQBgNVBAoTCVZpa2lu
Z1ZQTjEdMBsGA1UECxMUTXlPcmdhbml6YXRpb25hbFVuaXQxFTATBgNVBAMTDFZp
a2luZ1ZQTiBDQTEQMA4GA1UEKRMHRWFzeVJTQTEhMB8GCSqGSIb3DQEJARYSbWVA
bXlob3N0Lm15ZG9tYWluMB4XDTEzMTAyNjA4MTIxMVoXDTIzMTAyNDA4MTIxMVow
HDEaMBgGA1UEAxMRQ2xpZW50M0NlcnQyMmY2MTAwggIiMA0GCSqGSIb3DQEBAQUA
A4ICDwAwggIKAoICAQDOsmufRDRLcMaRXaijvQ+BMlzjRQmoI4qJJw8tIWZH5Qzj
PNEfvktZxOs6GMWCUHzeIqVXNp9Yvz5fDvbE5/NMVOlq3XskwsMsinbIi0kPTvxP
l3nRe5WauVTl1DKlhxEq7Y7czjlU5t5d3hne4v1Mj7h0SB1rizFKmXFVV23A1STU
pICn24XtBIra+cCc3FsERuXqzVdqPctF9DSDuTTZrmHHYHT6LkRZeM4ndi3n/1wY
2zojYSr/N3Pxmhzlo+QRKVfPBAYg5/xTtW4LzWVnO+Qzs5/bE0dtX8mAJ7pEopLY
jtnUePSkYOQ9Fj6rZgXKgfp+FZG1vsCfnaVY4qFNPQMW3S2hts8T0MqM9zKIGYav
Q8r7g2evtqR2ZZnzLATGKIGi0cl6F5Iyh8kGGKqn7EYNHONCYLBLyJEM/7vRYwVd
gNkx8OMuaYS/lIizXKxLuDqI8EmzUVuVUnio7bYPHWQi5luJvn3DrmMh357U4Aez
mb5mN5tkclMGMk7kls9zQbG604ePcOBVA3lVSShNhO71fJ8/OdgRCrdfzlWqRJcG
jzOzK/yDtlYLHvCIspisz/kIB2P94GD9YA/TkluUWtXmQIoWsIA4yUiwYaU0fWqT
NR4ehW9AxQVq/mja5kDqdODzogu5mt7oQxK0S0VKJ+UVxU2vh6/WzJknc6XdmQID
AQABo4IBYzCCAV8wCQYDVR0TBAIwADAtBglghkgBhvhCAQ0EIBYeRWFzeS1SU0Eg
R2VuZXJhdGVkIENlcnRpZmljYXRlMB0GA1UdDgQWBBT91ULSp/1XF4/U2h/eAEok
UowiBzCB4QYDVR0jBIHZMIHWgBQSzWAE0qCAnnDtxpm4eyzGUv0ZoaGBsqSBrzCB
rDELMAkGA1UEBhMCVVMxCzAJBgNVBAgTAk9IMREwDwYDVQQHEwhDb2x1bWJ1czES
MBAGA1UEChMJVmlraW5nVlBOMR0wGwYDVQQLExRNeU9yZ2FuaXphdGlvbmFsVW5p
dDEVMBMGA1UEAxMMVmlraW5nVlBOIENBMRAwDgYDVQQpEwdFYXN5UlNBMSEwHwYJ
KoZIhvcNAQkBFhJtZUBteWhvc3QubXlkb21haW6CCQDPNYXugL8qPjATBgNVHSUE
DDAKBggrBgEFBQcDAjALBgNVHQ8EBAMCB4AwDQYJKoZIhvcNAQEEBQADggIBAFlP
d9AmRsYJxfgxY/XqridETzb1ucD7IE6C5DVoePPEhW7LcGB7ldIpVi71bBVk1jrb
73Lm8fs078oAa9R4ELKnfJAOAUtaC0J02nTMR5Q1mv+kSn1rA1doEFJjdkrHiybc
YvL1vcU+Vtz8ML68pX6JxZ4j/Ji7PJ6rEEp+3ONwKohBusxkZ9jseOCO8z3Ap146
HV3QcZ4P38IL3qUNDgU3YzA9/syRMI1XSkUCdKVeVezmhSmSLR/1zd3M/lzf2ntL
ZvsVMkcLj/qOtAAoCET36V3tZco8wUeecCqDrTQF4odg0DPHtZ8dX5gE+j2fh0Iv
NtFyJKbaeBGR7iQI4Ir0qCCeQRp3ubfUZshLnCfjFdKDGinSqo9iNlAGVFt46cVj
yZ5aKHYwCqnfHyf97diEfc3CBYFNwM7jcIPUK02CPaaVrGtmoDMKorxWYFpRldDu
cuc+kItXbTSCzI3SaeOCT+aNcMfZPWwGHF+ffEkPGIto7iNICg9yn0u2xCc235TI
22shCyffBRU536KKYiacraGeC2UhtDiluvyWInjtYz9aYqlvSzSqK91Z56kwscjg
LYIip/yjM0H6ZJxjzSCTAnjE9B88QRCiyOZAOeQNy/CXgDLxR08u7/x+7wAXMtuZ
htLiToxMJQxSDlSjVy77KOBozU6AjHYXp8qEO3ZM
-----END CERTIFICATE-----
