Certificate:
    Data:
        Version: 3 (0x2)
        Serial Number: 352 (0x160)
    Signature Algorithm: md5WithRSAEncryption
        Issuer: C=US, ST=OH, L=Columbus, O=VikingVPN, OU=MyOrganizationalUnit, CN=VikingVPN CA/name=EasyRSA/emailAddress=me@myhost.mydomain
        Validity
            Not Before: Oct 28 13:33:06 2013 GMT
            Not After : Oct 26 13:33:06 2023 GMT
        Subject: CN=Client157Cert5610a3
        Subject Public Key Info:
            Public Key Algorithm: rsaEncryption
                Public-Key: (4096 bit)
                Modulus:
                    00:d1:35:3f:a3:cc:40:31:44:02:f1:c0:d8:00:fd:
                    b2:ea:f9:d5:a8:10:aa:3c:4b:69:c6:c9:42:2d:c7:
                    a4:f1:40:45:ce:ad:92:b0:f6:f8:8f:2b:e3:37:70:
                    28:7a:16:d8:54:b7:4e:5d:34:ca:ad:80:a3:41:21:
                    12:36:c1:a0:2c:d9:0e:97:95:b7:ce:d5:11:99:50:
                    04:4b:ee:cf:b3:3c:90:bd:99:96:4a:5d:dc:63:aa:
                    94:b6:ba:d7:b7:74:77:4a:c7:8b:e2:16:d3:9d:cf:
                    2d:45:5b:39:06:77:8d:7b:06:08:58:1b:37:0e:9b:
                    d9:10:9e:42:71:f0:3b:15:dc:6c:5c:e4:1c:64:3f:
                    59:4f:bc:e6:7c:c7:c6:49:21:29:13:5a:e5:78:da:
                    87:54:c2:6a:74:5d:ab:86:16:35:fe:42:b5:bc:e0:
                    3b:e7:2f:a4:67:3f:b0:7c:3a:be:5c:db:07:59:a1:
                    2c:fe:2a:21:4d:14:95:8f:cc:8e:db:b3:f2:e8:0b:
                    44:45:2e:a2:8e:23:80:01:c4:92:ad:c9:bc:68:04:
                    da:d0:bf:22:50:c2:30:1a:c1:10:4c:66:67:61:99:
                    8a:9b:c5:97:ff:c7:38:e0:bc:4b:80:d0:5c:58:65:
                    68:81:66:2a:1c:bf:a4:c7:d5:59:51:74:3c:0e:0e:
                    a9:a6:d0:c1:23:13:00:fb:5f:c3:9d:03:27:bf:1e:
                    1b:8c:97:11:d6:20:5c:c0:74:8e:b1:0f:8c:f8:38:
                    ff:28:c2:5f:ed:97:54:a9:0c:73:dd:a5:b7:96:92:
                    25:81:3f:83:f0:11:49:ef:41:5d:c8:69:67:f8:ce:
                    e7:0a:08:c2:2c:df:2a:1e:df:1b:d2:f8:d6:1f:9f:
                    25:80:29:70:93:33:1d:be:6d:21:77:e3:a8:d0:11:
                    5e:36:de:29:97:f4:20:ea:ef:2f:d8:d8:c8:b7:3f:
                    80:11:82:5e:54:07:bf:06:8d:de:b7:dc:0f:00:04:
                    a4:43:c7:73:9d:fd:f0:52:67:fa:b6:2c:5e:2e:86:
                    7b:b4:98:0d:14:47:3d:a7:df:5e:6c:33:28:cc:2f:
                    3b:ec:00:40:b1:64:9d:68:56:e4:0d:5e:50:09:e3:
                    d2:a7:9c:21:f8:1b:a8:c4:63:c8:1b:c0:2a:37:72:
                    69:4e:3e:8c:06:b3:fb:bf:f1:e2:7d:a2:48:d6:ae:
                    62:9b:2d:b2:a2:bb:42:89:41:12:e3:06:a8:6b:0b:
                    d5:5d:d8:59:76:ed:2e:71:b0:5c:bc:65:92:b0:98:
                    cc:8a:f7:c5:f6:58:d9:29:e4:37:a7:f1:f3:c4:68:
                    90:3b:77:df:34:9e:a8:2b:5a:d3:25:08:6e:f0:17:
                    f6:f7:af
                Exponent: 65537 (0x10001)
        X509v3 extensions:
            X509v3 Basic Constraints: 
                CA:FALSE
            Netscape Comment: 
                Easy-RSA Generated Certificate
            X509v3 Subject Key Identifier: 
                20:02:8E:22:19:84:37:97:69:C3:57:EC:59:2A:F1:53:A3:47:DA:D9
            X509v3 Authority Key Identifier: 
                keyid:12:CD:60:04:D2:A0:80:9E:70:ED:C6:99:B8:7B:2C:C6:52:FD:19:A1
                DirName:/C=US/ST=OH/L=Columbus/O=VikingVPN/OU=MyOrganizationalUnit/CN=VikingVPN CA/name=EasyRSA/emailAddress=me@myhost.mydomain
                serial:CF:35:85:EE:80:BF:2A:3E

            X509v3 Extended Key Usage: 
                TLS Web Client Authentication
            X509v3 Key Usage: 
                Digital Signature
    Signature Algorithm: md5WithRSAEncryption
         a2:86:23:ca:2d:bc:ba:9a:3d:ee:c1:00:d3:95:93:c8:09:48:
         b1:b6:41:1d:f0:3f:43:08:16:56:5a:77:7f:a9:b6:e2:4d:1e:
         8f:9b:c5:1f:0e:5a:a8:e2:11:30:b1:df:41:28:94:3c:e2:7a:
         ad:6d:b6:37:e1:f5:2a:2b:d7:4f:d5:fe:b5:95:a8:81:55:33:
         d0:b2:d7:7e:ca:3d:47:79:f1:ee:78:a6:f9:88:aa:08:ce:81:
         25:64:78:2c:41:85:02:15:e4:ec:c9:35:cc:92:fd:28:67:87:
         62:db:89:de:3d:1d:93:c2:b0:06:0c:43:db:46:e0:7b:17:18:
         3a:d1:9f:ab:ec:b9:a0:d6:36:38:85:e5:f9:90:5e:5c:05:92:
         98:08:89:35:f8:48:dd:34:de:f6:1b:46:34:fa:bd:d7:5f:7d:
         ca:7a:12:b7:5a:85:e1:ff:01:1b:00:9d:d3:5b:cc:50:eb:1d:
         a4:a0:e4:36:85:b5:ca:64:b3:86:2c:df:38:16:a5:f3:65:cc:
         33:36:04:59:34:3d:cc:63:38:39:76:73:ab:94:b4:0f:56:5a:
         f0:7d:eb:85:0a:3a:f6:60:25:4d:47:a3:43:e2:10:b1:a4:64:
         91:ee:b7:fe:35:96:3f:33:0c:40:32:0c:6c:2e:17:5a:e9:ee:
         4f:2e:0c:98:a2:63:be:e0:8b:4b:9f:7f:fc:35:1a:f6:f2:16:
         a4:91:7c:19:6d:87:56:af:6b:49:cd:a6:eb:5d:a5:9f:5e:e7:
         03:89:75:45:5a:eb:f7:dc:88:71:b9:86:52:c5:99:3a:37:87:
         17:9d:21:92:45:36:39:ba:84:2d:ba:61:41:21:ad:13:ba:bc:
         32:d8:ad:ed:9a:ca:c9:e2:f4:95:3a:ea:f1:be:78:cd:b7:95:
         d3:c9:18:e0:00:a5:fe:18:ff:d1:6c:b4:71:0f:a4:61:27:9d:
         cb:08:c0:e5:ad:52:10:5b:b1:79:e9:5f:fb:e1:bc:2d:bb:60:
         f4:1d:04:be:21:e0:bf:8f:dd:d5:22:b3:b7:25:7f:15:c9:fe:
         59:b0:5c:38:6a:99:ce:16:8d:f1:45:39:9a:c8:5b:bb:64:84:
         53:6a:69:2d:27:07:c9:d7:b2:51:04:8b:a4:5b:c6:0c:5b:c0:
         0e:a6:87:27:b5:81:9a:95:30:fd:0a:f7:4d:13:ee:c2:e5:0e:
         0b:2e:9d:c9:54:9e:4b:df:13:b0:12:36:b8:08:f9:f8:6b:78:
         a2:c7:02:47:32:cd:5e:44:54:eb:2d:26:79:97:32:10:63:46:
         d5:50:51:3a:87:74:ee:cc:41:d0:2d:1b:17:ac:88:16:e3:59:
         a5:0a:da:29:dd:d6:be:70
-----BEGIN CERTIFICATE-----
MIIGrDCCBJSgAwIBAgICAWAwDQYJKoZIhvcNAQEEBQAwgawxCzAJBgNVBAYTAlVT
MQswCQYDVQQIEwJPSDERMA8GA1UEBxMIQ29sdW1idXMxEjAQBgNVBAoTCVZpa2lu
Z1ZQTjEdMBsGA1UECxMUTXlPcmdhbml6YXRpb25hbFVuaXQxFTATBgNVBAMTDFZp
a2luZ1ZQTiBDQTEQMA4GA1UEKRMHRWFzeVJTQTEhMB8GCSqGSIb3DQEJARYSbWVA
bXlob3N0Lm15ZG9tYWluMB4XDTEzMTAyODEzMzMwNloXDTIzMTAyNjEzMzMwNlow
HjEcMBoGA1UEAxMTQ2xpZW50MTU3Q2VydDU2MTBhMzCCAiIwDQYJKoZIhvcNAQEB
BQADggIPADCCAgoCggIBANE1P6PMQDFEAvHA2AD9sur51agQqjxLacbJQi3HpPFA
Rc6tkrD2+I8r4zdwKHoW2FS3Tl00yq2Ao0EhEjbBoCzZDpeVt87VEZlQBEvuz7M8
kL2Zlkpd3GOqlLa617d0d0rHi+IW053PLUVbOQZ3jXsGCFgbNw6b2RCeQnHwOxXc
bFzkHGQ/WU+85nzHxkkhKRNa5Xjah1TCanRdq4YWNf5CtbzgO+cvpGc/sHw6vlzb
B1mhLP4qIU0UlY/Mjtuz8ugLREUuoo4jgAHEkq3JvGgE2tC/IlDCMBrBEExmZ2GZ
ipvFl//HOOC8S4DQXFhlaIFmKhy/pMfVWVF0PA4OqabQwSMTAPtfw50DJ78eG4yX
EdYgXMB0jrEPjPg4/yjCX+2XVKkMc92lt5aSJYE/g/ARSe9BXchpZ/jO5woIwizf
Kh7fG9L41h+fJYApcJMzHb5tIXfjqNARXjbeKZf0IOrvL9jYyLc/gBGCXlQHvwaN
3rfcDwAEpEPHc5398FJn+rYsXi6Ge7SYDRRHPaffXmwzKMwvO+wAQLFknWhW5A1e
UAnj0qecIfgbqMRjyBvAKjdyaU4+jAaz+7/x4n2iSNauYpstsqK7QolBEuMGqGsL
1V3YWXbtLnGwXLxlkrCYzIr3xfZY2SnkN6fx88RokDt33zSeqCta0yUIbvAX9vev
AgMBAAGjggFjMIIBXzAJBgNVHRMEAjAAMC0GCWCGSAGG+EIBDQQgFh5FYXN5LVJT
QSBHZW5lcmF0ZWQgQ2VydGlmaWNhdGUwHQYDVR0OBBYEFCACjiIZhDeXacNX7Fkq
8VOjR9rZMIHhBgNVHSMEgdkwgdaAFBLNYATSoICecO3Gmbh7LMZS/RmhoYGypIGv
MIGsMQswCQYDVQQGEwJVUzELMAkGA1UECBMCT0gxETAPBgNVBAcTCENvbHVtYnVz
MRIwEAYDVQQKEwlWaWtpbmdWUE4xHTAbBgNVBAsTFE15T3JnYW5pemF0aW9uYWxV
bml0MRUwEwYDVQQDEwxWaWtpbmdWUE4gQ0ExEDAOBgNVBCkTB0Vhc3lSU0ExITAf
BgkqhkiG9w0BCQEWEm1lQG15aG9zdC5teWRvbWFpboIJAM81he6Avyo+MBMGA1Ud
JQQMMAoGCCsGAQUFBwMCMAsGA1UdDwQEAwIHgDANBgkqhkiG9w0BAQQFAAOCAgEA
ooYjyi28upo97sEA05WTyAlIsbZBHfA/QwgWVlp3f6m24k0ej5vFHw5aqOIRMLHf
QSiUPOJ6rW22N+H1KivXT9X+tZWogVUz0LLXfso9R3nx7nim+YiqCM6BJWR4LEGF
AhXk7Mk1zJL9KGeHYtuJ3j0dk8KwBgxD20bgexcYOtGfq+y5oNY2OIXl+ZBeXAWS
mAiJNfhI3TTe9htGNPq91199ynoSt1qF4f8BGwCd01vMUOsdpKDkNoW1ymSzhizf
OBal82XMMzYEWTQ9zGM4OXZzq5S0D1Za8H3rhQo69mAlTUejQ+IQsaRkke63/jWW
PzMMQDIMbC4XWunuTy4MmKJjvuCLS59//DUa9vIWpJF8GW2HVq9rSc2m612ln17n
A4l1RVrr99yIcbmGUsWZOjeHF50hkkU2ObqELbphQSGtE7q8Mtit7ZrKyeL0lTrq
8b54zbeV08kY4ACl/hj/0Wy0cQ+kYSedywjA5a1SEFuxeelf++G8Lbtg9B0EviHg
v4/d1SKztyV/Fcn+WbBcOGqZzhaN8UU5mshbu2SEU2ppLScHydeyUQSLpFvGDFvA
DqaHJ7WBmpUw/Qr3TRPuwuUOCy6dyVSeS98TsBI2uAj5+Gt4oscCRzLNXkRU6y0m
eZcyEGNG1VBROod07sxB0C0bF6yIFuNZpQraKd3WvnA=
-----END CERTIFICATE-----
