Certificate:
    Data:
        Version: 3 (0x2)
        Serial Number: 369 (0x171)
    Signature Algorithm: md5WithRSAEncryption
        Issuer: C=US, ST=OH, L=Columbus, O=VikingVPN, OU=MyOrganizationalUnit, CN=VikingVPN CA/name=EasyRSA/emailAddress=me@myhost.mydomain
        Validity
            Not Before: Nov  2 03:19:18 2013 GMT
            Not After : Oct 31 03:19:18 2023 GMT
        Subject: CN=Client75Certe91a85
        Subject Public Key Info:
            Public Key Algorithm: rsaEncryption
                Public-Key: (4096 bit)
                Modulus:
                    00:e4:4d:37:95:61:da:c2:41:8a:7f:02:2d:97:86:
                    58:dc:61:bf:0c:c4:de:01:d9:80:73:b3:6f:2f:6e:
                    05:87:7a:03:ed:01:87:eb:63:5a:b7:58:86:12:97:
                    58:e4:74:d3:4f:44:92:8f:58:75:b7:9e:21:e7:aa:
                    5e:87:c0:cf:18:b5:ef:4c:d4:f9:64:b1:07:b6:ba:
                    89:80:58:0d:0f:0f:95:73:84:84:c5:e0:0e:de:43:
                    8c:62:53:8d:9a:b0:77:d3:61:0e:fd:82:fe:21:b1:
                    c9:81:9c:e3:45:ad:85:c4:de:a2:ce:e9:4d:fd:ad:
                    2d:d9:0c:48:b4:d4:73:d0:31:6b:1b:ab:77:39:58:
                    90:b9:81:34:48:57:d6:07:e0:03:d6:68:ac:81:3c:
                    dc:be:b1:2a:a5:ec:c6:e9:3f:dd:e1:ea:55:6b:a1:
                    f6:df:54:d4:f1:19:f7:7e:9c:f5:a9:21:ef:ae:2e:
                    cd:8b:38:e1:67:1d:c1:81:8d:f2:95:ae:29:af:5d:
                    ab:0c:68:e3:4d:98:3d:1d:30:26:98:31:8d:1e:01:
                    28:0b:01:cc:23:0c:4c:fc:1e:3b:bb:39:46:3a:36:
                    19:07:27:79:bd:f1:0a:56:93:c3:1e:d3:a9:01:d7:
                    06:28:1c:f0:22:82:8b:59:0f:1a:0f:d2:57:90:09:
                    d4:b8:5c:95:26:fa:90:27:51:9c:b2:7d:35:fc:c7:
                    87:a6:13:29:77:01:47:8a:c5:66:91:7e:1f:14:28:
                    5c:d5:4c:a7:1e:a9:70:f0:fe:07:66:d6:5c:2a:bd:
                    6f:dc:63:ae:2f:5d:2c:f6:40:bd:37:fb:1f:07:ec:
                    66:16:72:96:fd:23:be:da:ca:93:7c:49:aa:80:83:
                    0a:e3:0a:85:72:af:5e:bd:8e:86:ea:a8:8c:29:29:
                    a2:0e:2a:e8:1b:5f:dd:d1:7d:89:c1:34:7b:d6:17:
                    06:fa:e6:f3:fb:c2:85:f8:56:26:e3:54:6b:6f:be:
                    3e:b7:0e:16:cb:02:57:00:e2:9c:0d:9a:08:5b:9f:
                    3a:67:b5:f3:52:bc:7d:d5:5b:71:77:51:58:9e:31:
                    f7:75:74:1d:08:1a:af:4c:b6:b1:66:bf:3d:23:95:
                    23:2f:79:08:a4:8e:51:0f:93:d2:e5:c9:0a:a0:d9:
                    ee:e1:ad:4a:3c:eb:a1:ef:05:7d:79:c0:91:44:ee:
                    5b:82:14:ed:10:0b:68:e1:ea:d0:41:33:d2:46:16:
                    09:1f:04:84:b1:d4:53:bc:b0:24:44:4d:71:a0:fc:
                    48:54:e8:8a:49:a4:6f:d6:72:22:d4:61:15:a1:e4:
                    66:87:80:8d:52:5a:02:2f:f0:f3:30:74:f3:4a:59:
                    61:0c:3f
                Exponent: 65537 (0x10001)
        X509v3 extensions:
            X509v3 Basic Constraints: 
                CA:FALSE
            Netscape Comment: 
                Easy-RSA Generated Certificate
            X509v3 Subject Key Identifier: 
                4F:07:5E:09:3C:F7:EC:C5:49:52:F9:53:4F:29:59:E6:0C:53:D8:B0
            X509v3 Authority Key Identifier: 
                keyid:12:CD:60:04:D2:A0:80:9E:70:ED:C6:99:B8:7B:2C:C6:52:FD:19:A1
                DirName:/C=US/ST=OH/L=Columbus/O=VikingVPN/OU=MyOrganizationalUnit/CN=VikingVPN CA/name=EasyRSA/emailAddress=me@myhost.mydomain
                serial:CF:35:85:EE:80:BF:2A:3E

            X509v3 Extended Key Usage: 
                TLS Web Client Authentication
            X509v3 Key Usage: 
                Digital Signature
    Signature Algorithm: md5WithRSAEncryption
         66:c4:e2:29:28:9b:e1:d3:a2:85:a5:ef:2d:a4:99:58:76:b8:
         65:48:e0:bd:f5:2c:12:9d:9a:ac:e5:99:3b:35:3f:a8:56:32:
         5d:3d:74:ed:39:9b:a3:ac:da:0a:d8:5d:cf:6d:a1:a6:7e:ba:
         3b:d2:34:46:a0:c6:ec:a2:76:1c:cd:3d:b8:3b:20:9f:c4:9e:
         0a:31:e0:88:c4:d2:de:df:9d:3c:65:46:ec:6a:c6:64:1d:85:
         e4:27:0f:ef:d6:22:18:7a:5a:79:f6:f1:79:60:f9:2b:bf:af:
         42:a4:43:41:8a:c3:3d:70:26:2d:1e:4e:b1:7c:f4:0f:3b:8d:
         c4:04:78:46:46:59:4e:ac:76:3d:05:a6:26:ee:a1:a5:0b:0c:
         a4:a7:d3:cb:95:52:48:db:c5:dd:3e:1d:ae:fe:77:1b:e2:24:
         c4:34:59:3d:de:88:51:a1:aa:ee:cf:07:67:db:d6:93:02:84:
         82:23:6e:fd:2c:6d:ff:4f:2e:67:60:67:4a:ce:1a:8d:6a:f0:
         06:fe:08:22:69:d1:46:fa:7b:f5:c8:ee:67:1a:4f:5e:2a:ac:
         a5:3d:54:b6:02:c3:08:b6:65:6a:e0:ee:5e:b1:19:86:00:7b:
         62:1b:54:f7:f4:db:93:5b:f7:e2:5d:18:66:65:6f:3a:2c:c4:
         da:b7:e0:b1:fe:58:97:34:de:88:52:d9:88:f3:29:a0:de:8f:
         61:b2:bb:a9:cd:38:9d:f2:b8:31:02:10:3f:8a:48:8f:26:d3:
         5d:63:b4:09:f3:32:4d:24:3e:39:35:20:c0:ac:00:bd:63:f0:
         39:99:90:8b:05:06:18:2e:9f:4f:b0:4c:b6:22:8f:96:6b:b4:
         2b:cc:8b:db:21:97:08:64:62:70:cb:5a:85:32:84:be:15:18:
         97:c9:44:d6:7d:c6:82:3b:82:f4:34:5c:0a:46:97:12:36:93:
         59:c9:6a:05:ed:22:a8:a5:83:cd:71:1a:07:c3:e8:f6:6b:da:
         a3:8d:5b:72:77:b2:e1:0e:e0:28:62:85:12:83:55:aa:f6:9b:
         0a:09:94:60:f3:d4:48:fa:3e:36:8f:16:9a:2e:e8:28:fb:a9:
         1b:ff:fa:c7:13:0d:a4:f0:1b:3e:34:b2:7a:86:b1:f7:a8:86:
         f8:ce:99:9f:64:e6:c9:26:c5:be:e0:02:3a:54:ef:e3:8d:1b:
         8d:d9:8f:63:84:7b:ac:b0:65:78:1a:33:99:fa:34:0d:52:10:
         d6:90:61:3d:bc:45:cb:b7:d8:93:a2:e6:e7:9f:79:a6:7d:61:
         00:3b:2f:f1:25:14:cc:2d:d3:00:05:ab:51:56:d8:40:d9:25:
         7b:0b:c8:70:f6:87:3f:e9
-----BEGIN CERTIFICATE-----
MIIGqzCCBJOgAwIBAgICAXEwDQYJKoZIhvcNAQEEBQAwgawxCzAJBgNVBAYTAlVT
MQswCQYDVQQIEwJPSDERMA8GA1UEBxMIQ29sdW1idXMxEjAQBgNVBAoTCVZpa2lu
Z1ZQTjEdMBsGA1UECxMUTXlPcmdhbml6YXRpb25hbFVuaXQxFTATBgNVBAMTDFZp
a2luZ1ZQTiBDQTEQMA4GA1UEKRMHRWFzeVJTQTEhMB8GCSqGSIb3DQEJARYSbWVA
bXlob3N0Lm15ZG9tYWluMB4XDTEzMTEwMjAzMTkxOFoXDTIzMTAzMTAzMTkxOFow
HTEbMBkGA1UEAxMSQ2xpZW50NzVDZXJ0ZTkxYTg1MIICIjANBgkqhkiG9w0BAQEF
AAOCAg8AMIICCgKCAgEA5E03lWHawkGKfwItl4ZY3GG/DMTeAdmAc7NvL24Fh3oD
7QGH62Nat1iGEpdY5HTTT0SSj1h1t54h56peh8DPGLXvTNT5ZLEHtrqJgFgNDw+V
c4SExeAO3kOMYlONmrB302EO/YL+IbHJgZzjRa2FxN6izulN/a0t2QxItNRz0DFr
G6t3OViQuYE0SFfWB+AD1misgTzcvrEqpezG6T/d4epVa6H231TU8Rn3fpz1qSHv
ri7NizjhZx3BgY3yla4pr12rDGjjTZg9HTAmmDGNHgEoCwHMIwxM/B47uzlGOjYZ
Byd5vfEKVpPDHtOpAdcGKBzwIoKLWQ8aD9JXkAnUuFyVJvqQJ1Gcsn01/MeHphMp
dwFHisVmkX4fFChc1UynHqlw8P4HZtZcKr1v3GOuL10s9kC9N/sfB+xmFnKW/SO+
2sqTfEmqgIMK4wqFcq9evY6G6qiMKSmiDiroG1/d0X2JwTR71hcG+ubz+8KF+FYm
41Rrb74+tw4WywJXAOKcDZoIW586Z7XzUrx91Vtxd1FYnjH3dXQdCBqvTLaxZr89
I5UjL3kIpI5RD5PS5ckKoNnu4a1KPOuh7wV9ecCRRO5bghTtEAto4erQQTPSRhYJ
HwSEsdRTvLAkRE1xoPxIVOiKSaRv1nIi1GEVoeRmh4CNUloCL/DzMHTzSllhDD8C
AwEAAaOCAWMwggFfMAkGA1UdEwQCMAAwLQYJYIZIAYb4QgENBCAWHkVhc3ktUlNB
IEdlbmVyYXRlZCBDZXJ0aWZpY2F0ZTAdBgNVHQ4EFgQUTwdeCTz37MVJUvlTTylZ
5gxT2LAwgeEGA1UdIwSB2TCB1oAUEs1gBNKggJ5w7caZuHssxlL9GaGhgbKkga8w
gawxCzAJBgNVBAYTAlVTMQswCQYDVQQIEwJPSDERMA8GA1UEBxMIQ29sdW1idXMx
EjAQBgNVBAoTCVZpa2luZ1ZQTjEdMBsGA1UECxMUTXlPcmdhbml6YXRpb25hbFVu
aXQxFTATBgNVBAMTDFZpa2luZ1ZQTiBDQTEQMA4GA1UEKRMHRWFzeVJTQTEhMB8G
CSqGSIb3DQEJARYSbWVAbXlob3N0Lm15ZG9tYWluggkAzzWF7oC/Kj4wEwYDVR0l
BAwwCgYIKwYBBQUHAwIwCwYDVR0PBAQDAgeAMA0GCSqGSIb3DQEBBAUAA4ICAQBm
xOIpKJvh06KFpe8tpJlYdrhlSOC99SwSnZqs5Zk7NT+oVjJdPXTtOZujrNoK2F3P
baGmfro70jRGoMbsonYczT24OyCfxJ4KMeCIxNLe3508ZUbsasZkHYXkJw/v1iIY
elp59vF5YPkrv69CpENBisM9cCYtHk6xfPQPO43EBHhGRllOrHY9BaYm7qGlCwyk
p9PLlVJI28XdPh2u/ncb4iTENFk93ohRoaruzwdn29aTAoSCI279LG3/Ty5nYGdK
zhqNavAG/ggiadFG+nv1yO5nGk9eKqylPVS2AsMItmVq4O5esRmGAHtiG1T39NuT
W/fiXRhmZW86LMTat+Cx/liXNN6IUtmI8ymg3o9hsrupzTid8rgxAhA/ikiPJtNd
Y7QJ8zJNJD45NSDArAC9Y/A5mZCLBQYYLp9PsEy2Io+Wa7QrzIvbIZcIZGJwy1qF
MoS+FRiXyUTWfcaCO4L0NFwKRpcSNpNZyWoF7SKopYPNcRoHw+j2a9qjjVtyd7Lh
DuAoYoUSg1Wq9psKCZRg89RI+j42jxaaLugo+6kb//rHEw2k8Bs+NLJ6hrH3qIb4
zpmfZObJJsW+4AI6VO/jjRuN2Y9jhHussGV4GjOZ+jQNUhDWkGE9vEXLt9iToubn
n3mmfWEAOy/xJRTMLdMABatRVthA2SV7C8hw9oc/6Q==
-----END CERTIFICATE-----
