Certificate:
    Data:
        Version: 3 (0x2)
        Serial Number: 405 (0x195)
    Signature Algorithm: md5WithRSAEncryption
        Issuer: C=US, ST=OH, L=Columbus, O=VikingVPN, OU=MyOrganizationalUnit, CN=VikingVPN CA/name=EasyRSA/emailAddress=me@myhost.mydomain
        Validity
            Not Before: Nov 12 15:10:59 2013 GMT
            Not After : Nov 10 15:10:59 2023 GMT
        Subject: CN=Client180Cert85ae5b
        Subject Public Key Info:
            Public Key Algorithm: rsaEncryption
                Public-Key: (4096 bit)
                Modulus:
                    00:b6:05:e9:64:52:4b:f4:71:5b:95:a4:55:54:4a:
                    b3:27:7a:3b:23:a5:eb:c8:65:14:ec:05:aa:a2:17:
                    36:f9:80:06:95:07:9b:5d:1c:c7:a3:eb:8a:60:21:
                    33:b8:da:28:d8:1f:62:e3:ae:28:2c:e0:84:d7:39:
                    cc:a4:0a:21:6d:18:90:44:07:60:4d:b1:48:54:0c:
                    b0:03:37:f9:01:0d:35:de:58:7f:34:6d:b2:74:9e:
                    cd:8c:7e:94:ae:c5:22:1d:4f:34:6e:d7:97:79:1d:
                    73:23:2e:3e:09:7f:d3:57:b6:f3:fe:00:67:94:9c:
                    77:21:29:2c:c4:24:ab:33:e0:6d:a5:2e:e0:92:90:
                    21:07:f6:08:f6:6a:21:f0:34:5a:36:95:bd:02:49:
                    73:4a:dd:89:f0:dd:4c:fd:3f:5b:b7:ac:c5:be:bd:
                    71:9a:ed:21:bc:5d:17:fa:d0:18:d9:8a:f7:6d:17:
                    88:30:2e:af:df:b9:18:73:db:d9:f0:0c:9f:d7:cc:
                    9f:9d:27:0f:e8:e9:c1:58:bc:cd:24:4c:33:f0:94:
                    4f:5d:a8:20:d6:61:b9:ae:18:bd:b4:46:94:a9:c9:
                    29:28:69:3c:5b:fa:14:f8:08:e0:c4:13:14:e9:f7:
                    85:7b:66:b4:e1:3d:3f:41:4f:42:fb:d8:fe:6e:35:
                    3d:49:f7:cc:66:ea:e7:e2:94:19:ca:91:d4:c1:24:
                    5f:4b:fe:7e:96:1e:c5:01:2d:24:94:e1:d5:d5:4c:
                    be:21:e5:f6:20:62:bc:c5:44:92:24:40:18:0c:be:
                    20:29:01:ee:30:57:a5:16:be:f9:e1:b6:63:25:6e:
                    c8:3e:96:e9:a1:14:6c:ac:c4:eb:c5:6e:a5:b3:93:
                    60:ab:03:60:3a:d8:46:14:67:aa:19:b4:89:69:36:
                    84:89:3c:c5:fe:3b:20:cf:60:78:27:79:f6:c6:a2:
                    9b:cb:7d:46:8e:23:f6:5c:7a:18:32:10:81:b2:26:
                    c3:3b:e2:5b:85:aa:bb:0f:36:a6:14:b6:c5:f9:70:
                    da:95:4d:b4:de:3c:66:de:c9:e9:6b:04:61:3f:8c:
                    8b:d1:c8:44:c7:cb:43:85:39:da:6d:b5:9c:1e:4a:
                    45:b8:e8:38:74:a9:b4:ef:ab:f9:64:17:d8:a6:c9:
                    1f:38:07:3f:99:0c:9e:15:f8:4d:d0:1c:62:39:80:
                    23:1a:69:69:05:11:10:af:9a:95:96:11:e6:67:b0:
                    77:2f:68:f0:d2:3b:f0:65:c9:c4:69:fa:cb:49:22:
                    d9:3a:fb:90:11:fe:8d:1e:b2:d7:10:01:77:a5:ae:
                    71:9f:7c:c2:f5:88:99:ac:7b:3e:bf:cb:f5:73:f7:
                    09:ba:7b
                Exponent: 65537 (0x10001)
        X509v3 extensions:
            X509v3 Basic Constraints: 
                CA:FALSE
            Netscape Comment: 
                Easy-RSA Generated Certificate
            X509v3 Subject Key Identifier: 
                BE:AC:54:47:9F:AF:D1:EA:C3:D1:70:C0:A6:D8:EF:DC:88:37:D3:59
            X509v3 Authority Key Identifier: 
                keyid:12:CD:60:04:D2:A0:80:9E:70:ED:C6:99:B8:7B:2C:C6:52:FD:19:A1
                DirName:/C=US/ST=OH/L=Columbus/O=VikingVPN/OU=MyOrganizationalUnit/CN=VikingVPN CA/name=EasyRSA/emailAddress=me@myhost.mydomain
                serial:CF:35:85:EE:80:BF:2A:3E

            X509v3 Extended Key Usage: 
                TLS Web Client Authentication
            X509v3 Key Usage: 
                Digital Signature
    Signature Algorithm: md5WithRSAEncryption
         d0:e9:54:88:b2:54:d8:90:93:0b:33:10:2e:49:c1:85:ec:d1:
         7a:d7:27:f7:51:89:b4:e4:40:9c:c4:aa:a8:c1:b1:db:ff:3f:
         89:5c:96:41:bb:0c:7a:06:75:72:7c:38:6f:7b:17:d7:dc:a5:
         7e:c0:ad:e9:d7:bd:20:4b:f2:08:5d:e0:0d:02:97:36:1a:3c:
         8c:a5:bf:2d:66:a1:05:ae:1a:f3:bc:91:bb:ac:92:63:e6:1f:
         d3:24:60:bd:fb:10:e5:f2:e0:50:f1:f5:2b:df:66:81:f0:cd:
         8d:72:8a:97:26:bf:6b:51:e9:0e:2a:2b:3c:43:45:38:80:cd:
         59:fa:97:6f:19:56:0f:99:c3:10:68:8b:52:6f:23:12:8c:77:
         b9:85:1c:22:60:71:b5:7a:38:94:b8:cb:e2:ec:53:2d:91:c3:
         34:f6:e6:b6:05:2f:39:3b:70:f0:04:02:12:8a:3e:42:2c:34:
         55:e7:50:8b:f1:30:4c:fa:34:16:35:35:cf:10:b3:03:c2:22:
         91:88:2c:55:f1:ae:a4:8c:aa:7d:c0:bb:b9:ef:f6:88:78:55:
         f8:27:29:d8:9e:fc:d1:da:81:7a:0d:69:2b:3d:30:66:3a:02:
         36:33:46:13:73:fa:58:ca:5a:e8:db:66:74:fa:6c:a8:c8:6a:
         16:ef:c3:14:f7:88:60:44:2f:e9:0f:3c:3f:a1:a0:ef:cb:92:
         46:1d:c0:9f:41:24:40:9f:4b:78:15:db:dc:77:e4:f6:05:83:
         ed:e3:0d:9e:c7:0e:f3:20:06:46:12:5c:95:bd:63:2e:5f:1e:
         60:1f:e7:6f:cc:7d:f8:fa:75:ae:81:39:85:94:2c:87:58:53:
         a5:86:67:38:10:28:44:42:28:d3:db:d7:ee:2e:d4:a4:58:0b:
         aa:c4:a3:5d:b2:4b:81:ed:b4:76:a1:d1:83:3b:aa:a6:62:a0:
         22:5d:83:39:8b:02:ed:40:69:d6:dd:19:a8:f0:08:9c:13:cf:
         2e:66:3f:f5:9c:8f:63:25:50:7f:f0:d8:6b:f9:3e:95:ab:4a:
         e1:21:5f:c5:06:0e:7c:18:01:bf:c5:b9:b3:0d:0c:8c:45:be:
         3e:78:39:83:77:c7:39:e8:b7:5d:3d:bd:c9:3e:4f:b4:24:2e:
         9f:82:02:9b:50:ab:ae:04:f3:06:59:55:a3:b4:73:e0:04:2f:
         1d:3c:f4:d5:d4:ba:c1:62:7c:57:73:8d:3a:50:8a:d2:82:e8:
         52:01:dc:d9:19:1f:08:a9:13:e4:c2:ac:7d:ff:97:cd:03:23:
         00:9e:42:a1:8d:44:6d:18:e9:2b:f8:85:49:dc:1f:19:3e:00:
         94:cb:a8:10:9e:36:e9:99
-----BEGIN CERTIFICATE-----
MIIGrDCCBJSgAwIBAgICAZUwDQYJKoZIhvcNAQEEBQAwgawxCzAJBgNVBAYTAlVT
MQswCQYDVQQIEwJPSDERMA8GA1UEBxMIQ29sdW1idXMxEjAQBgNVBAoTCVZpa2lu
Z1ZQTjEdMBsGA1UECxMUTXlPcmdhbml6YXRpb25hbFVuaXQxFTATBgNVBAMTDFZp
a2luZ1ZQTiBDQTEQMA4GA1UEKRMHRWFzeVJTQTEhMB8GCSqGSIb3DQEJARYSbWVA
bXlob3N0Lm15ZG9tYWluMB4XDTEzMTExMjE1MTA1OVoXDTIzMTExMDE1MTA1OVow
HjEcMBoGA1UEAxMTQ2xpZW50MTgwQ2VydDg1YWU1YjCCAiIwDQYJKoZIhvcNAQEB
BQADggIPADCCAgoCggIBALYF6WRSS/RxW5WkVVRKsyd6OyOl68hlFOwFqqIXNvmA
BpUHm10cx6PrimAhM7jaKNgfYuOuKCzghNc5zKQKIW0YkEQHYE2xSFQMsAM3+QEN
Nd5YfzRtsnSezYx+lK7FIh1PNG7Xl3kdcyMuPgl/01e28/4AZ5ScdyEpLMQkqzPg
baUu4JKQIQf2CPZqIfA0WjaVvQJJc0rdifDdTP0/W7esxb69cZrtIbxdF/rQGNmK
920XiDAur9+5GHPb2fAMn9fMn50nD+jpwVi8zSRMM/CUT12oINZhua4YvbRGlKnJ
KShpPFv6FPgI4MQTFOn3hXtmtOE9P0FPQvvY/m41PUn3zGbq5+KUGcqR1MEkX0v+
fpYexQEtJJTh1dVMviHl9iBivMVEkiRAGAy+ICkB7jBXpRa++eG2YyVuyD6W6aEU
bKzE68VupbOTYKsDYDrYRhRnqhm0iWk2hIk8xf47IM9geCd59saim8t9Ro4j9lx6
GDIQgbImwzviW4Wquw82phS2xflw2pVNtN48Zt7J6WsEYT+Mi9HIRMfLQ4U52m21
nB5KRbjoOHSptO+r+WQX2KbJHzgHP5kMnhX4TdAcYjmAIxppaQUREK+alZYR5mew
dy9o8NI78GXJxGn6y0ki2Tr7kBH+jR6y1xABd6WucZ98wvWImax7Pr/L9XP3Cbp7
AgMBAAGjggFjMIIBXzAJBgNVHRMEAjAAMC0GCWCGSAGG+EIBDQQgFh5FYXN5LVJT
QSBHZW5lcmF0ZWQgQ2VydGlmaWNhdGUwHQYDVR0OBBYEFL6sVEefr9Hqw9FwwKbY
79yIN9NZMIHhBgNVHSMEgdkwgdaAFBLNYATSoICecO3Gmbh7LMZS/RmhoYGypIGv
MIGsMQswCQYDVQQGEwJVUzELMAkGA1UECBMCT0gxETAPBgNVBAcTCENvbHVtYnVz
MRIwEAYDVQQKEwlWaWtpbmdWUE4xHTAbBgNVBAsTFE15T3JnYW5pemF0aW9uYWxV
bml0MRUwEwYDVQQDEwxWaWtpbmdWUE4gQ0ExEDAOBgNVBCkTB0Vhc3lSU0ExITAf
BgkqhkiG9w0BCQEWEm1lQG15aG9zdC5teWRvbWFpboIJAM81he6Avyo+MBMGA1Ud
JQQMMAoGCCsGAQUFBwMCMAsGA1UdDwQEAwIHgDANBgkqhkiG9w0BAQQFAAOCAgEA
0OlUiLJU2JCTCzMQLknBhezRetcn91GJtORAnMSqqMGx2/8/iVyWQbsMegZ1cnw4
b3sX19ylfsCt6de9IEvyCF3gDQKXNho8jKW/LWahBa4a87yRu6ySY+Yf0yRgvfsQ
5fLgUPH1K99mgfDNjXKKlya/a1HpDiorPENFOIDNWfqXbxlWD5nDEGiLUm8jEox3
uYUcImBxtXo4lLjL4uxTLZHDNPbmtgUvOTtw8AQCEoo+Qiw0VedQi/EwTPo0FjU1
zxCzA8IikYgsVfGupIyqfcC7ue/2iHhV+Ccp2J780dqBeg1pKz0wZjoCNjNGE3P6
WMpa6NtmdPpsqMhqFu/DFPeIYEQv6Q88P6Gg78uSRh3An0EkQJ9LeBXb3Hfk9gWD
7eMNnscO8yAGRhJclb1jLl8eYB/nb8x9+Pp1roE5hZQsh1hTpYZnOBAoREIo09vX
7i7UpFgLqsSjXbJLge20dqHRgzuqpmKgIl2DOYsC7UBp1t0ZqPAInBPPLmY/9ZyP
YyVQf/DYa/k+latK4SFfxQYOfBgBv8W5sw0MjEW+Png5g3fHOei3XT29yT5PtCQu
n4ICm1CrrgTzBllVo7Rz4AQvHTz01dS6wWJ8V3ONOlCK0oLoUgHc2RkfCKkT5MKs
ff+XzQMjAJ5CoY1EbRjpK/iFSdwfGT4AlMuoEJ426Zk=
-----END CERTIFICATE-----
