Certificate:
    Data:
        Version: 3 (0x2)
        Serial Number: 415 (0x19f)
    Signature Algorithm: md5WithRSAEncryption
        Issuer: C=US, ST=OH, L=Columbus, O=VikingVPN, OU=MyOrganizationalUnit, CN=VikingVPN CA/name=EasyRSA/emailAddress=me@myhost.mydomain
        Validity
            Not Before: Nov 16 03:36:41 2013 GMT
            Not After : Nov 14 03:36:41 2023 GMT
        Subject: CN=Client185Cert08143f
        Subject Public Key Info:
            Public Key Algorithm: rsaEncryption
                Public-Key: (4096 bit)
                Modulus:
                    00:ae:5d:d8:bc:c6:c1:cc:ad:f7:01:84:f0:68:2e:
                    93:41:4b:00:48:d1:a6:8e:c5:97:82:1b:e3:eb:4e:
                    e2:46:11:9d:78:3c:9b:5f:5d:f1:17:eb:55:c1:22:
                    da:c0:bd:35:1f:ee:a7:1d:7d:82:7f:f5:15:17:b7:
                    05:74:1b:f1:d4:a9:9c:fc:6a:38:d1:b2:2b:9b:ce:
                    6d:44:25:c9:81:fe:49:f1:51:38:3d:f1:75:a6:80:
                    c5:e3:df:ce:fc:e1:1b:0e:fc:cb:4b:7a:2c:cd:d7:
                    60:1c:17:ca:73:55:32:96:8b:41:fc:55:9d:62:68:
                    ea:28:f1:37:00:11:e9:cb:ae:d5:7b:55:c7:1d:bd:
                    a1:8e:39:82:3f:66:7d:7f:58:05:58:1b:14:4f:90:
                    a0:c7:f1:9a:10:21:d9:79:24:fa:00:ec:85:e8:0a:
                    6f:cb:d4:88:66:85:ed:b3:52:4c:fd:a9:cf:59:8e:
                    58:84:8d:28:aa:ce:68:11:4a:6d:30:a8:bc:e0:17:
                    a0:8d:5d:c7:0f:79:0c:08:1d:f0:39:fa:93:9f:15:
                    ab:2d:63:7a:09:9d:0e:59:3b:1c:df:5a:17:1a:08:
                    10:bd:bc:8d:ca:3b:0d:f3:de:3f:ca:cf:20:12:d1:
                    85:4d:1a:22:72:2a:a8:45:43:85:8f:00:50:3d:be:
                    50:56:2a:21:c1:78:f3:ab:9b:5e:bf:2e:0e:0b:e3:
                    be:fa:6c:22:cf:61:b6:f9:63:1e:01:bc:a1:de:db:
                    e0:bb:29:1b:c5:81:9b:af:00:3f:a9:7e:7f:05:a0:
                    6a:cc:c0:ff:4f:4f:50:ef:9b:a5:83:33:79:5c:d2:
                    9f:97:db:fe:af:60:74:c2:b5:8f:bc:a6:74:d7:41:
                    01:23:a8:02:39:c8:61:76:68:73:28:a0:39:04:97:
                    60:eb:43:bb:e7:aa:50:6e:10:98:54:74:db:02:9c:
                    0c:c2:a0:73:00:0f:0e:f1:ac:c7:fe:ad:5a:19:47:
                    6a:90:4c:c4:c2:66:91:fd:6d:0a:2c:88:62:c1:02:
                    f8:7b:9a:f8:35:6b:cd:44:4e:29:eb:1a:cf:56:7f:
                    b1:01:f0:75:7a:4e:f2:73:78:fc:9a:b6:92:d5:ac:
                    a0:70:06:d8:8b:98:d5:79:b2:d9:ed:2f:f4:17:16:
                    ae:f5:84:16:09:42:3d:7d:fd:93:63:57:02:2e:2f:
                    47:2a:34:74:d8:4b:11:42:2e:1a:f4:de:f3:11:12:
                    50:74:fe:59:ef:cd:b5:76:a8:e4:b9:46:66:44:96:
                    7b:58:42:af:d3:8f:a2:48:8c:d9:10:c9:03:2f:98:
                    62:8c:d5:86:d9:95:27:9e:9e:b5:3e:ca:3c:4a:89:
                    65:cf:47
                Exponent: 65537 (0x10001)
        X509v3 extensions:
            X509v3 Basic Constraints: 
                CA:FALSE
            Netscape Comment: 
                Easy-RSA Generated Certificate
            X509v3 Subject Key Identifier: 
                EC:53:56:2B:04:DA:18:B8:1C:11:5C:DC:D4:AB:8A:93:0C:EE:73:53
            X509v3 Authority Key Identifier: 
                keyid:12:CD:60:04:D2:A0:80:9E:70:ED:C6:99:B8:7B:2C:C6:52:FD:19:A1
                DirName:/C=US/ST=OH/L=Columbus/O=VikingVPN/OU=MyOrganizationalUnit/CN=VikingVPN CA/name=EasyRSA/emailAddress=me@myhost.mydomain
                serial:CF:35:85:EE:80:BF:2A:3E

            X509v3 Extended Key Usage: 
                TLS Web Client Authentication
            X509v3 Key Usage: 
                Digital Signature
    Signature Algorithm: md5WithRSAEncryption
         23:c7:b1:af:7c:0a:b4:58:e4:ef:0c:f3:b2:2b:25:8a:4a:dd:
         15:bc:51:77:24:f1:cc:da:6b:3f:e0:1c:f8:11:e9:6b:d3:37:
         a8:ec:e0:ab:97:bb:b6:f2:9d:70:63:4d:4b:fd:9e:1d:7a:0d:
         13:39:4e:be:04:ff:7a:d2:40:bf:58:a5:92:54:6c:e7:d9:e1:
         44:87:e8:f0:6d:77:a0:d4:d9:86:eb:60:94:83:70:62:1c:25:
         3b:94:a6:3d:ad:cf:b0:bd:20:b4:8d:ce:65:41:cf:94:ce:5d:
         4f:13:e0:a7:d6:4a:0b:84:c9:6e:ab:bc:29:5f:4e:88:88:2d:
         85:d5:49:5e:bf:0b:42:ff:b5:4a:48:92:a6:0a:23:ef:d7:c7:
         16:8c:0b:15:27:99:24:55:e8:7a:7b:cd:bc:77:85:27:f3:70:
         fe:47:c6:30:39:2d:84:f4:79:fe:e4:5f:69:6a:c0:c2:0d:a0:
         aa:c3:9e:bf:d2:7e:97:86:54:af:65:1b:11:7e:12:b7:98:00:
         65:ff:31:7a:ac:95:d2:45:46:b1:71:03:34:47:bb:0d:af:b9:
         3a:c5:4a:92:7e:eb:df:d9:06:08:3d:01:cd:08:a0:73:91:3b:
         b8:33:10:c1:41:43:92:c5:e9:13:1b:0f:b5:06:8a:75:e4:a7:
         09:1a:4b:b9:24:fd:9a:ad:3f:8d:ef:f6:1c:c2:7d:6d:b4:57:
         0e:fc:df:37:b5:6d:80:2f:a5:5c:95:6f:96:dd:13:e6:31:ae:
         8c:98:01:a6:e0:ce:71:b8:96:78:c6:7c:ac:bf:8f:a7:a4:12:
         75:39:4d:2b:bf:e2:f6:c6:8d:06:82:8b:2b:74:04:d6:87:f5:
         64:65:48:0c:05:0d:7a:33:aa:51:e8:6f:a9:69:3f:94:a9:ac:
         41:89:88:bc:29:e2:e6:48:36:d1:7a:e5:71:29:c4:bc:7e:c1:
         70:e7:2e:c4:5a:18:3d:e7:b7:0a:0c:d3:1a:68:43:7d:a3:e3:
         3c:b4:dc:72:7e:70:7b:77:94:8c:e9:3d:f0:be:d1:66:04:67:
         14:e5:d2:00:62:8a:5d:a4:b5:40:6f:d9:c3:a4:01:a3:7c:10:
         c6:76:bb:50:5e:fe:f3:30:14:d3:21:c9:3b:47:44:ac:d3:a5:
         86:02:32:58:99:28:8b:71:eb:db:5e:55:c5:78:09:8d:4c:b6:
         2a:b1:81:6e:cc:d1:47:e9:25:27:66:85:4f:74:46:fc:0a:db:
         62:ff:ea:a6:c6:de:8b:45:01:f1:60:f3:2b:fd:a8:f0:0d:85:
         c2:6b:84:e3:0e:77:a8:65:5c:c0:1f:02:a7:1a:6d:51:35:af:
         39:b0:1e:f0:9c:8f:7f:7d
-----BEGIN CERTIFICATE-----
MIIGrDCCBJSgAwIBAgICAZ8wDQYJKoZIhvcNAQEEBQAwgawxCzAJBgNVBAYTAlVT
MQswCQYDVQQIEwJPSDERMA8GA1UEBxMIQ29sdW1idXMxEjAQBgNVBAoTCVZpa2lu
Z1ZQTjEdMBsGA1UECxMUTXlPcmdhbml6YXRpb25hbFVuaXQxFTATBgNVBAMTDFZp
a2luZ1ZQTiBDQTEQMA4GA1UEKRMHRWFzeVJTQTEhMB8GCSqGSIb3DQEJARYSbWVA
bXlob3N0Lm15ZG9tYWluMB4XDTEzMTExNjAzMzY0MVoXDTIzMTExNDAzMzY0MVow
HjEcMBoGA1UEAxMTQ2xpZW50MTg1Q2VydDA4MTQzZjCCAiIwDQYJKoZIhvcNAQEB
BQADggIPADCCAgoCggIBAK5d2LzGwcyt9wGE8Gguk0FLAEjRpo7Fl4Ib4+tO4kYR
nXg8m19d8RfrVcEi2sC9NR/upx19gn/1FRe3BXQb8dSpnPxqONGyK5vObUQlyYH+
SfFROD3xdaaAxePfzvzhGw78y0t6LM3XYBwXynNVMpaLQfxVnWJo6ijxNwAR6cuu
1XtVxx29oY45gj9mfX9YBVgbFE+QoMfxmhAh2Xkk+gDshegKb8vUiGaF7bNSTP2p
z1mOWISNKKrOaBFKbTCovOAXoI1dxw95DAgd8Dn6k58Vqy1jegmdDlk7HN9aFxoI
EL28jco7DfPeP8rPIBLRhU0aInIqqEVDhY8AUD2+UFYqIcF486ubXr8uDgvjvvps
Is9htvljHgG8od7b4LspG8WBm68AP6l+fwWgaszA/09PUO+bpYMzeVzSn5fb/q9g
dMK1j7ymdNdBASOoAjnIYXZocyigOQSXYOtDu+eqUG4QmFR02wKcDMKgcwAPDvGs
x/6tWhlHapBMxMJmkf1tCiyIYsEC+Hua+DVrzUROKesaz1Z/sQHwdXpO8nN4/Jq2
ktWsoHAG2IuY1Xmy2e0v9BcWrvWEFglCPX39k2NXAi4vRyo0dNhLEUIuGvTe8xES
UHT+We/NtXao5LlGZkSWe1hCr9OPokiM2RDJAy+YYozVhtmVJ56etT7KPEqJZc9H
AgMBAAGjggFjMIIBXzAJBgNVHRMEAjAAMC0GCWCGSAGG+EIBDQQgFh5FYXN5LVJT
QSBHZW5lcmF0ZWQgQ2VydGlmaWNhdGUwHQYDVR0OBBYEFOxTVisE2hi4HBFc3NSr
ipMM7nNTMIHhBgNVHSMEgdkwgdaAFBLNYATSoICecO3Gmbh7LMZS/RmhoYGypIGv
MIGsMQswCQYDVQQGEwJVUzELMAkGA1UECBMCT0gxETAPBgNVBAcTCENvbHVtYnVz
MRIwEAYDVQQKEwlWaWtpbmdWUE4xHTAbBgNVBAsTFE15T3JnYW5pemF0aW9uYWxV
bml0MRUwEwYDVQQDEwxWaWtpbmdWUE4gQ0ExEDAOBgNVBCkTB0Vhc3lSU0ExITAf
BgkqhkiG9w0BCQEWEm1lQG15aG9zdC5teWRvbWFpboIJAM81he6Avyo+MBMGA1Ud
JQQMMAoGCCsGAQUFBwMCMAsGA1UdDwQEAwIHgDANBgkqhkiG9w0BAQQFAAOCAgEA
I8exr3wKtFjk7wzzsislikrdFbxRdyTxzNprP+Ac+BHpa9M3qOzgq5e7tvKdcGNN
S/2eHXoNEzlOvgT/etJAv1ilklRs59nhRIfo8G13oNTZhutglINwYhwlO5SmPa3P
sL0gtI3OZUHPlM5dTxPgp9ZKC4TJbqu8KV9OiIgthdVJXr8LQv+1SkiSpgoj79fH
FowLFSeZJFXoenvNvHeFJ/Nw/kfGMDkthPR5/uRfaWrAwg2gqsOev9J+l4ZUr2Ub
EX4St5gAZf8xeqyV0kVGsXEDNEe7Da+5OsVKkn7r39kGCD0BzQigc5E7uDMQwUFD
ksXpExsPtQaKdeSnCRpLuST9mq0/je/2HMJ9bbRXDvzfN7VtgC+lXJVvlt0T5jGu
jJgBpuDOcbiWeMZ8rL+Pp6QSdTlNK7/i9saNBoKLK3QE1of1ZGVIDAUNejOqUehv
qWk/lKmsQYmIvCni5kg20XrlcSnEvH7BcOcuxFoYPee3CgzTGmhDfaPjPLTccn5w
e3eUjOk98L7RZgRnFOXSAGKKXaS1QG/Zw6QBo3wQxna7UF7+8zAU0yHJO0dErNOl
hgIyWJkoi3Hr215VxXgJjUy2KrGBbszRR+klJ2aFT3RG/ArbYv/qpsbei0UB8WDz
K/2o8A2FwmuE4w53qGVcwB8CpxptUTWvObAe8JyPf30=
-----END CERTIFICATE-----
