Certificate:
    Data:
        Version: 3 (0x2)
        Serial Number: 440 (0x1b8)
    Signature Algorithm: md5WithRSAEncryption
        Issuer: C=US, ST=OH, L=Columbus, O=VikingVPN, OU=MyOrganizationalUnit, CN=VikingVPN CA/name=EasyRSA/emailAddress=me@myhost.mydomain
        Validity
            Not Before: Nov 22 22:35:12 2013 GMT
            Not After : Nov 20 22:35:12 2023 GMT
        Subject: CN=Client198Cert025e86
        Subject Public Key Info:
            Public Key Algorithm: rsaEncryption
                Public-Key: (4096 bit)
                Modulus:
                    00:d4:e9:08:0e:14:da:8b:01:63:16:69:db:87:b2:
                    a9:13:02:04:0c:39:8c:98:a0:66:89:4c:4a:8a:5d:
                    2f:5a:2c:bc:12:35:ca:84:c0:6d:f1:40:b2:2a:8b:
                    6a:8a:99:ea:f5:de:0c:14:1a:74:44:04:4c:5f:4c:
                    fe:38:0f:14:dd:2e:c2:fe:43:0d:7e:4d:2e:68:7c:
                    92:d8:b0:44:14:53:e0:cb:32:27:ec:41:ce:76:e0:
                    8a:f8:91:98:fc:16:15:a0:34:65:26:65:f6:62:76:
                    29:9f:1b:b7:e9:4f:c1:b1:2c:dd:ab:4c:c5:4b:4a:
                    7f:b3:86:bf:d0:b3:4f:03:02:aa:40:46:76:cb:dc:
                    bf:e7:07:26:e1:38:8e:07:d9:95:f3:8a:6e:59:c9:
                    ce:27:31:bb:76:7c:ab:83:dc:a9:ae:5a:ec:f7:4e:
                    58:1a:e2:e6:98:ee:40:59:be:ec:49:b4:73:70:2d:
                    7a:de:f1:7d:5b:05:51:97:35:72:9f:73:cd:42:ce:
                    f0:9c:55:25:b8:9d:0e:28:ab:0a:cf:bc:b3:52:49:
                    e1:ec:20:59:6a:ee:a2:67:66:af:89:33:d7:d2:01:
                    52:6b:02:a4:5f:c9:30:5f:8a:74:8c:af:52:8a:83:
                    3a:23:64:ec:fa:e3:4a:4b:79:10:e7:a4:58:d5:a6:
                    53:32:5b:51:61:7d:fe:cf:85:93:2f:3f:49:b7:76:
                    4c:4d:48:6d:b5:7a:ab:66:7f:01:2b:35:a3:54:e7:
                    06:70:4a:9b:c8:4d:ed:51:a0:a7:7f:4e:a2:87:05:
                    20:77:90:3e:8d:04:ec:7f:18:76:9a:e6:6e:ca:d9:
                    07:ca:12:f0:5c:44:79:61:f0:95:98:dc:bd:87:47:
                    b8:95:ce:9a:dd:38:e2:6a:e5:6c:9f:26:1b:a1:f8:
                    b7:b1:dd:c7:d0:1b:c9:5f:3b:3a:46:24:c8:fb:c1:
                    91:b2:a5:e1:ce:4f:83:6e:0d:8c:f2:f0:42:fd:c3:
                    cc:d4:e5:93:b6:d8:d1:2b:a0:c7:c9:32:ad:45:3a:
                    cb:80:69:b9:ca:28:2c:b2:56:cc:b7:82:36:23:c3:
                    52:db:35:4f:8b:90:12:f1:d2:12:72:f8:70:a1:9c:
                    22:f5:b1:b3:9b:9d:18:f0:54:ea:75:1a:c1:dd:44:
                    7b:d5:eb:38:7d:c8:f9:b8:0f:fd:04:9f:7f:d4:15:
                    e3:9e:1d:d4:6e:83:a0:07:bd:64:37:02:f6:66:e2:
                    96:d5:dd:b5:c2:d7:3a:f9:6e:0d:6d:5e:5b:b2:cd:
                    b5:42:da:be:b7:af:cb:fb:6d:79:00:4c:9f:c9:c6:
                    49:b2:f9:bd:cd:17:c5:a3:ca:cd:7e:1c:1c:a4:0c:
                    13:b3:f1
                Exponent: 65537 (0x10001)
        X509v3 extensions:
            X509v3 Basic Constraints: 
                CA:FALSE
            Netscape Comment: 
                Easy-RSA Generated Certificate
            X509v3 Subject Key Identifier: 
                1D:FC:85:E9:3B:B4:21:36:B5:FF:0C:5A:B1:DA:70:80:C4:91:2E:A2
            X509v3 Authority Key Identifier: 
                keyid:12:CD:60:04:D2:A0:80:9E:70:ED:C6:99:B8:7B:2C:C6:52:FD:19:A1
                DirName:/C=US/ST=OH/L=Columbus/O=VikingVPN/OU=MyOrganizationalUnit/CN=VikingVPN CA/name=EasyRSA/emailAddress=me@myhost.mydomain
                serial:CF:35:85:EE:80:BF:2A:3E

            X509v3 Extended Key Usage: 
                TLS Web Client Authentication
            X509v3 Key Usage: 
                Digital Signature
    Signature Algorithm: md5WithRSAEncryption
         ec:eb:c3:1a:19:a2:90:46:98:5a:52:e6:3c:1e:97:dd:42:42:
         37:59:05:6c:c0:9c:16:62:e4:b7:7b:64:f3:eb:44:5b:a1:3d:
         ef:73:e1:41:37:1e:4a:30:eb:c7:17:9d:f3:62:78:37:cc:5a:
         79:74:2d:f7:e9:77:5d:c4:a9:3b:ca:f0:ab:5b:ba:cf:c3:cd:
         60:a3:57:97:9d:f8:67:3f:b7:80:e1:ca:45:67:8d:2a:78:0d:
         5b:1b:1b:75:a0:8b:41:f8:df:8a:b3:f6:96:7f:3e:cb:bd:93:
         85:70:3b:b7:c7:85:b1:d2:46:66:cc:8c:48:2e:04:57:b8:9e:
         75:fe:45:84:58:16:7f:f6:41:b5:87:d7:ca:b2:51:00:7a:f7:
         c8:00:1a:b4:27:48:db:48:f0:40:1f:e7:c7:f7:a2:9c:f2:19:
         44:fd:22:f9:c3:e8:b4:d5:3e:81:57:fa:03:93:c4:c5:49:09:
         ee:38:a4:6f:52:c2:b9:a8:d9:8e:3f:c3:03:97:2d:8c:a5:a0:
         e6:2c:08:51:3f:0d:06:bd:3e:9f:6b:84:15:d0:ad:97:18:c2:
         94:20:29:e6:c9:90:37:3e:b8:11:48:45:e2:ac:01:0b:a1:dd:
         0f:0b:ec:64:69:35:8e:2f:a2:c8:2d:c7:dc:44:be:61:b6:ac:
         db:c4:11:e1:88:7c:b8:55:06:96:07:6e:d7:77:fe:63:a9:2c:
         29:50:34:1a:f3:27:18:2a:3d:a5:4e:9d:69:50:e4:e2:d7:f3:
         f1:00:38:21:9c:02:a2:dd:87:2b:7d:bd:94:36:2a:6d:77:ef:
         fe:09:89:1d:db:7e:59:5f:23:8f:1c:2d:bd:d9:05:a4:93:ea:
         50:84:00:c6:e3:ce:95:bc:25:2f:3b:5f:2d:5b:b6:c0:c9:62:
         a4:58:14:c1:5d:07:b3:3a:44:04:16:78:8d:74:da:fb:bd:3b:
         de:db:10:bd:ea:e2:b0:c5:80:ea:4f:c1:55:ff:26:11:93:9c:
         3b:85:bf:2e:0c:26:ea:c9:d3:07:b9:20:33:e3:8b:2a:94:03:
         37:27:b4:b3:50:e1:0b:d2:5e:ab:45:a4:d7:63:52:40:e1:fe:
         14:b8:cd:5e:8b:53:b6:fa:85:6c:3e:be:b8:11:53:cb:3e:24:
         e7:8b:b1:94:10:b0:4c:70:64:f4:47:d0:0c:ad:04:f1:49:b5:
         ec:11:db:f0:9b:de:23:3b:e1:f1:56:82:4e:bb:d3:f6:26:6a:
         d8:da:5c:b8:be:66:d9:bb:8b:ad:f1:e1:67:e3:71:cd:17:ae:
         e9:29:49:64:f0:06:98:18:86:de:0a:78:59:a5:91:f4:93:d0:
         46:8e:ff:3c:0b:43:83:e2
-----BEGIN CERTIFICATE-----
MIIGrDCCBJSgAwIBAgICAbgwDQYJKoZIhvcNAQEEBQAwgawxCzAJBgNVBAYTAlVT
MQswCQYDVQQIEwJPSDERMA8GA1UEBxMIQ29sdW1idXMxEjAQBgNVBAoTCVZpa2lu
Z1ZQTjEdMBsGA1UECxMUTXlPcmdhbml6YXRpb25hbFVuaXQxFTATBgNVBAMTDFZp
a2luZ1ZQTiBDQTEQMA4GA1UEKRMHRWFzeVJTQTEhMB8GCSqGSIb3DQEJARYSbWVA
bXlob3N0Lm15ZG9tYWluMB4XDTEzMTEyMjIyMzUxMloXDTIzMTEyMDIyMzUxMlow
HjEcMBoGA1UEAxMTQ2xpZW50MTk4Q2VydDAyNWU4NjCCAiIwDQYJKoZIhvcNAQEB
BQADggIPADCCAgoCggIBANTpCA4U2osBYxZp24eyqRMCBAw5jJigZolMSopdL1os
vBI1yoTAbfFAsiqLaoqZ6vXeDBQadEQETF9M/jgPFN0uwv5DDX5NLmh8ktiwRBRT
4MsyJ+xBznbgiviRmPwWFaA0ZSZl9mJ2KZ8bt+lPwbEs3atMxUtKf7OGv9CzTwMC
qkBGdsvcv+cHJuE4jgfZlfOKblnJzicxu3Z8q4Pcqa5a7PdOWBri5pjuQFm+7Em0
c3Atet7xfVsFUZc1cp9zzULO8JxVJbidDiirCs+8s1JJ4ewgWWruomdmr4kz19IB
UmsCpF/JMF+KdIyvUoqDOiNk7PrjSkt5EOekWNWmUzJbUWF9/s+Fky8/Sbd2TE1I
bbV6q2Z/ASs1o1TnBnBKm8hN7VGgp39OoocFIHeQPo0E7H8YdprmbsrZB8oS8FxE
eWHwlZjcvYdHuJXOmt044mrlbJ8mG6H4t7Hdx9AbyV87OkYkyPvBkbKl4c5Pg24N
jPLwQv3DzNTlk7bY0Sugx8kyrUU6y4BpucooLLJWzLeCNiPDUts1T4uQEvHSEnL4
cKGcIvWxs5udGPBU6nUawd1Ee9XrOH3I+bgP/QSff9QV454d1G6DoAe9ZDcC9mbi
ltXdtcLXOvluDW1eW7LNtULavrevy/tteQBMn8nGSbL5vc0XxaPKzX4cHKQME7Px
AgMBAAGjggFjMIIBXzAJBgNVHRMEAjAAMC0GCWCGSAGG+EIBDQQgFh5FYXN5LVJT
QSBHZW5lcmF0ZWQgQ2VydGlmaWNhdGUwHQYDVR0OBBYEFB38hek7tCE2tf8MWrHa
cIDEkS6iMIHhBgNVHSMEgdkwgdaAFBLNYATSoICecO3Gmbh7LMZS/RmhoYGypIGv
MIGsMQswCQYDVQQGEwJVUzELMAkGA1UECBMCT0gxETAPBgNVBAcTCENvbHVtYnVz
MRIwEAYDVQQKEwlWaWtpbmdWUE4xHTAbBgNVBAsTFE15T3JnYW5pemF0aW9uYWxV
bml0MRUwEwYDVQQDEwxWaWtpbmdWUE4gQ0ExEDAOBgNVBCkTB0Vhc3lSU0ExITAf
BgkqhkiG9w0BCQEWEm1lQG15aG9zdC5teWRvbWFpboIJAM81he6Avyo+MBMGA1Ud
JQQMMAoGCCsGAQUFBwMCMAsGA1UdDwQEAwIHgDANBgkqhkiG9w0BAQQFAAOCAgEA
7OvDGhmikEaYWlLmPB6X3UJCN1kFbMCcFmLkt3tk8+tEW6E973PhQTceSjDrxxed
82J4N8xaeXQt9+l3XcSpO8rwq1u6z8PNYKNXl534Zz+3gOHKRWeNKngNWxsbdaCL
QfjfirP2ln8+y72ThXA7t8eFsdJGZsyMSC4EV7iedf5FhFgWf/ZBtYfXyrJRAHr3
yAAatCdI20jwQB/nx/einPIZRP0i+cPotNU+gVf6A5PExUkJ7jikb1LCuajZjj/D
A5ctjKWg5iwIUT8NBr0+n2uEFdCtlxjClCAp5smQNz64EUhF4qwBC6HdDwvsZGk1
ji+iyC3H3ES+Ybas28QR4Yh8uFUGlgdu13f+Y6ksKVA0GvMnGCo9pU6daVDk4tfz
8QA4IZwCot2HK329lDYqbXfv/gmJHdt+WV8jjxwtvdkFpJPqUIQAxuPOlbwlLztf
LVu2wMlipFgUwV0HszpEBBZ4jXTa+7073tsQverisMWA6k/BVf8mEZOcO4W/Lgwm
6snTB7kgM+OLKpQDNye0s1DhC9Jeq0Wk12NSQOH+FLjNXotTtvqFbD6+uBFTyz4k
54uxlBCwTHBk9EfQDK0E8Um17BHb8JveIzvh8VaCTrvT9iZq2NpcuL5m2buLrfHh
Z+NxzReu6SlJZPAGmBiG3gp4WaWR9JPQRo7/PAtDg+I=
-----END CERTIFICATE-----
