Certificate:
    Data:
        Version: 3 (0x2)
        Serial Number: 442 (0x1ba)
    Signature Algorithm: md5WithRSAEncryption
        Issuer: C=US, ST=OH, L=Columbus, O=VikingVPN, OU=MyOrganizationalUnit, CN=VikingVPN CA/name=EasyRSA/emailAddress=me@myhost.mydomain
        Validity
            Not Before: Nov 22 23:24:56 2013 GMT
            Not After : Nov 20 23:24:56 2023 GMT
        Subject: CN=Client198Cert85390e
        Subject Public Key Info:
            Public Key Algorithm: rsaEncryption
                Public-Key: (4096 bit)
                Modulus:
                    00:da:a0:ba:55:75:be:0e:89:97:d3:fc:86:87:fe:
                    18:bd:96:f2:4f:ba:d2:a7:f6:8f:5a:e9:1b:c0:b4:
                    60:18:b2:7a:11:cb:d3:6b:28:5c:8e:4c:e1:2b:72:
                    c3:0b:96:82:42:4b:84:91:0d:7f:24:8b:11:8e:0c:
                    68:55:82:d0:9f:59:4a:3a:fb:d4:f5:a9:8c:e5:bf:
                    c6:0d:63:96:80:7f:db:31:11:22:7d:44:c9:94:87:
                    a3:2a:9c:a9:c6:7f:16:95:c6:64:0d:c6:e2:fe:b9:
                    06:5d:b8:4d:ca:ad:39:eb:1a:cf:44:3f:1e:2f:1d:
                    79:8f:47:ac:6f:07:0c:b5:c1:67:9e:9d:ec:fa:78:
                    03:ed:f9:af:60:6f:17:92:d3:28:c5:d1:e3:e0:df:
                    10:53:02:2f:2a:4f:2a:28:a5:58:83:a4:6f:06:69:
                    72:b6:59:20:9d:d7:26:8a:69:ed:14:c3:9d:af:c9:
                    d0:7f:8f:b7:11:fd:fc:ca:05:c3:33:fd:be:05:c0:
                    a7:a6:ea:b4:77:9b:91:99:57:ad:5e:a9:85:db:54:
                    41:76:25:55:83:2a:15:2c:f4:3c:8e:08:d8:a3:54:
                    a9:26:5c:0c:aa:d6:ea:1c:07:4a:bf:63:3f:ac:0b:
                    b7:52:d2:f7:d7:e5:fe:69:c7:fd:91:dd:37:78:9c:
                    bf:97:01:db:4f:c3:4b:79:86:f6:8d:a0:bf:c9:9e:
                    50:d3:16:59:8b:b2:b5:c0:81:a5:dd:bd:6f:ed:ed:
                    47:69:28:32:4c:5b:24:f9:77:4e:de:f4:37:dd:f4:
                    22:7f:92:43:f2:d4:14:ac:81:46:9d:12:9c:79:52:
                    e9:83:f5:1b:f4:be:e9:4e:55:9e:fe:09:62:a7:74:
                    4e:8d:8a:c6:98:15:de:03:e8:0d:a4:16:6f:57:34:
                    15:cd:f2:3d:42:a2:43:c7:39:2c:e8:6c:c5:2a:b0:
                    52:8d:c6:79:fd:24:8e:6c:fc:77:76:0a:70:73:15:
                    40:1c:9d:71:51:0f:60:6c:c5:26:f7:b3:84:56:a9:
                    51:c5:fb:c1:47:ad:38:5a:6c:53:8c:34:5b:41:b7:
                    75:78:55:f9:f4:58:75:04:14:11:25:8f:38:39:34:
                    ba:cf:c8:86:bb:e9:85:ec:82:f1:28:7f:d8:cd:b7:
                    d6:3b:4b:c2:6a:24:b5:9b:55:e0:03:bd:2a:97:dc:
                    ca:6a:ca:7c:9a:8c:88:37:c1:8e:7e:cc:43:aa:7c:
                    1c:4b:8d:35:c8:b8:e2:01:8c:ef:fd:9b:aa:cc:03:
                    46:32:e3:00:b5:cc:26:ea:2f:e2:e3:67:cb:ca:99:
                    b4:4d:e5:91:8d:c4:59:4e:64:55:76:9c:06:03:18:
                    da:b6:fb
                Exponent: 65537 (0x10001)
        X509v3 extensions:
            X509v3 Basic Constraints: 
                CA:FALSE
            Netscape Comment: 
                Easy-RSA Generated Certificate
            X509v3 Subject Key Identifier: 
                13:F3:8E:15:B8:A2:FD:32:20:88:34:90:2E:D2:8D:74:07:A4:79:E4
            X509v3 Authority Key Identifier: 
                keyid:12:CD:60:04:D2:A0:80:9E:70:ED:C6:99:B8:7B:2C:C6:52:FD:19:A1
                DirName:/C=US/ST=OH/L=Columbus/O=VikingVPN/OU=MyOrganizationalUnit/CN=VikingVPN CA/name=EasyRSA/emailAddress=me@myhost.mydomain
                serial:CF:35:85:EE:80:BF:2A:3E

            X509v3 Extended Key Usage: 
                TLS Web Client Authentication
            X509v3 Key Usage: 
                Digital Signature
    Signature Algorithm: md5WithRSAEncryption
         b3:a1:70:17:06:41:78:8e:17:9e:d8:9d:20:62:cc:23:f7:83:
         41:04:bc:0e:0f:c6:b5:1e:a7:d3:6f:b3:38:a8:23:fd:c0:6a:
         77:8a:58:c1:b3:d8:29:69:22:6e:1e:10:17:aa:7b:74:67:3b:
         96:32:5c:ec:7c:91:79:24:59:44:b1:29:3c:9e:34:37:f9:b0:
         54:44:b5:22:66:5f:57:f1:db:9a:f9:77:08:a7:f1:fd:52:00:
         cb:ee:85:f1:64:8b:38:e9:91:34:6e:a1:29:5e:fb:20:be:47:
         30:c6:d7:0e:37:2b:1a:78:d1:d9:e1:0e:15:ef:41:33:0d:5f:
         33:b6:9f:ef:69:1c:83:fd:0a:5b:b2:e5:89:46:f5:8d:1a:8c:
         33:5b:4e:16:e1:5a:0e:f9:a2:dc:d2:76:df:6d:2f:79:6d:ac:
         5d:94:8c:71:b4:e5:94:1c:9b:13:f1:67:c7:15:a7:07:38:e5:
         cb:4f:1b:7d:d1:8b:ac:56:5e:e7:a9:4b:4b:1a:1d:aa:cd:66:
         50:32:64:52:5d:21:5a:f2:f8:de:ec:b0:25:df:50:77:3e:55:
         e6:42:03:e7:8a:de:b7:1a:59:cb:79:26:18:25:d9:5b:4e:d7:
         13:bd:2d:30:88:67:7a:af:3b:1a:25:c4:04:88:8a:15:5b:06:
         74:71:08:16:22:66:34:2a:51:6a:e9:31:23:b8:a4:e7:2d:d5:
         a1:fb:c4:bd:23:e5:79:f6:49:ee:11:25:7f:2c:4a:fb:38:50:
         6e:a8:1c:d7:07:1a:d4:a6:c4:ee:84:62:12:03:c6:f6:da:f2:
         9d:f4:02:50:aa:07:6a:d1:d7:8c:5f:04:ae:f6:58:33:90:cb:
         ec:15:86:a5:d8:de:8f:47:61:e0:18:a7:60:5c:b2:52:c5:37:
         ab:ad:a1:63:37:49:d1:de:21:4e:8e:2a:15:30:61:f7:56:69:
         62:33:b0:9e:d3:75:3c:48:97:6d:75:03:83:92:3e:55:97:3c:
         f8:f6:33:4a:3c:7b:3f:d8:d2:5a:9e:a0:a1:76:b8:ae:cd:3d:
         7f:42:86:4d:a9:8e:b9:0c:57:db:32:5c:8d:46:c9:b3:4d:e3:
         95:32:a1:67:59:bf:77:7f:d8:90:d1:d9:4f:14:5d:6a:8b:7b:
         0e:6b:7b:35:b6:88:18:aa:d8:3b:5e:04:9a:0a:b3:45:64:b7:
         c0:6f:61:e1:e2:da:40:33:c4:ea:2b:c6:70:2d:5d:67:d0:01:
         61:54:ec:59:36:ca:08:b7:d1:ea:a1:db:06:d9:ff:34:97:89:
         ec:a7:1d:93:ac:9b:72:17:a4:1a:64:bf:a6:39:a6:6c:05:c5:
         96:4b:ea:f6:11:62:60:9f
-----BEGIN CERTIFICATE-----
MIIGrDCCBJSgAwIBAgICAbowDQYJKoZIhvcNAQEEBQAwgawxCzAJBgNVBAYTAlVT
MQswCQYDVQQIEwJPSDERMA8GA1UEBxMIQ29sdW1idXMxEjAQBgNVBAoTCVZpa2lu
Z1ZQTjEdMBsGA1UECxMUTXlPcmdhbml6YXRpb25hbFVuaXQxFTATBgNVBAMTDFZp
a2luZ1ZQTiBDQTEQMA4GA1UEKRMHRWFzeVJTQTEhMB8GCSqGSIb3DQEJARYSbWVA
bXlob3N0Lm15ZG9tYWluMB4XDTEzMTEyMjIzMjQ1NloXDTIzMTEyMDIzMjQ1Nlow
HjEcMBoGA1UEAxMTQ2xpZW50MTk4Q2VydDg1MzkwZTCCAiIwDQYJKoZIhvcNAQEB
BQADggIPADCCAgoCggIBANqgulV1vg6Jl9P8hof+GL2W8k+60qf2j1rpG8C0YBiy
ehHL02soXI5M4StywwuWgkJLhJENfySLEY4MaFWC0J9ZSjr71PWpjOW/xg1jloB/
2zERIn1EyZSHoyqcqcZ/FpXGZA3G4v65Bl24TcqtOesaz0Q/Hi8deY9HrG8HDLXB
Z56d7Pp4A+35r2BvF5LTKMXR4+DfEFMCLypPKiilWIOkbwZpcrZZIJ3XJopp7RTD
na/J0H+PtxH9/MoFwzP9vgXAp6bqtHebkZlXrV6phdtUQXYlVYMqFSz0PI4I2KNU
qSZcDKrW6hwHSr9jP6wLt1LS99fl/mnH/ZHdN3icv5cB20/DS3mG9o2gv8meUNMW
WYuytcCBpd29b+3tR2koMkxbJPl3Tt70N930In+SQ/LUFKyBRp0SnHlS6YP1G/S+
6U5Vnv4JYqd0To2KxpgV3gPoDaQWb1c0Fc3yPUKiQ8c5LOhsxSqwUo3Gef0kjmz8
d3YKcHMVQBydcVEPYGzFJvezhFapUcX7wUetOFpsU4w0W0G3dXhV+fRYdQQUESWP
ODk0us/IhrvpheyC8Sh/2M231jtLwmoktZtV4AO9KpfcymrKfJqMiDfBjn7MQ6p8
HEuNNci44gGM7/2bqswDRjLjALXMJuov4uNny8qZtE3lkY3EWU5kVXacBgMY2rb7
AgMBAAGjggFjMIIBXzAJBgNVHRMEAjAAMC0GCWCGSAGG+EIBDQQgFh5FYXN5LVJT
QSBHZW5lcmF0ZWQgQ2VydGlmaWNhdGUwHQYDVR0OBBYEFBPzjhW4ov0yIIg0kC7S
jXQHpHnkMIHhBgNVHSMEgdkwgdaAFBLNYATSoICecO3Gmbh7LMZS/RmhoYGypIGv
MIGsMQswCQYDVQQGEwJVUzELMAkGA1UECBMCT0gxETAPBgNVBAcTCENvbHVtYnVz
MRIwEAYDVQQKEwlWaWtpbmdWUE4xHTAbBgNVBAsTFE15T3JnYW5pemF0aW9uYWxV
bml0MRUwEwYDVQQDEwxWaWtpbmdWUE4gQ0ExEDAOBgNVBCkTB0Vhc3lSU0ExITAf
BgkqhkiG9w0BCQEWEm1lQG15aG9zdC5teWRvbWFpboIJAM81he6Avyo+MBMGA1Ud
JQQMMAoGCCsGAQUFBwMCMAsGA1UdDwQEAwIHgDANBgkqhkiG9w0BAQQFAAOCAgEA
s6FwFwZBeI4XntidIGLMI/eDQQS8Dg/GtR6n02+zOKgj/cBqd4pYwbPYKWkibh4Q
F6p7dGc7ljJc7HyReSRZRLEpPJ40N/mwVES1ImZfV/Hbmvl3CKfx/VIAy+6F8WSL
OOmRNG6hKV77IL5HMMbXDjcrGnjR2eEOFe9BMw1fM7af72kcg/0KW7LliUb1jRqM
M1tOFuFaDvmi3NJ2320veW2sXZSMcbTllBybE/FnxxWnBzjly08bfdGLrFZe56lL
Sxodqs1mUDJkUl0hWvL43uywJd9Qdz5V5kID54retxpZy3kmGCXZW07XE70tMIhn
eq87GiXEBIiKFVsGdHEIFiJmNCpRaukxI7ik5y3VofvEvSPlefZJ7hElfyxK+zhQ
bqgc1wca1KbE7oRiEgPG9trynfQCUKoHatHXjF8ErvZYM5DL7BWGpdjej0dh4Bin
YFyyUsU3q62hYzdJ0d4hTo4qFTBh91ZpYjOwntN1PEiXbXUDg5I+VZc8+PYzSjx7
P9jSWp6goXa4rs09f0KGTamOuQxX2zJcjUbJs03jlTKhZ1m/d3/YkNHZTxRdaot7
Dmt7NbaIGKrYO14EmgqzRWS3wG9h4eLaQDPE6ivGcC1dZ9ABYVTsWTbKCLfR6qHb
Btn/NJeJ7Kcdk6ybchekGmS/pjmmbAXFlkvq9hFiYJ8=
-----END CERTIFICATE-----
