Certificate:
    Data:
        Version: 3 (0x2)
        Serial Number: 445 (0x1bd)
    Signature Algorithm: md5WithRSAEncryption
        Issuer: C=US, ST=OH, L=Columbus, O=VikingVPN, OU=MyOrganizationalUnit, CN=VikingVPN CA/name=EasyRSA/emailAddress=me@myhost.mydomain
        Validity
            Not Before: Nov 22 23:41:08 2013 GMT
            Not After : Nov 20 23:41:08 2023 GMT
        Subject: CN=Client95Cert865d1f
        Subject Public Key Info:
            Public Key Algorithm: rsaEncryption
                Public-Key: (4096 bit)
                Modulus:
                    00:98:5a:2c:f3:e4:08:36:af:f6:43:54:d9:9c:14:
                    27:c6:71:2a:49:96:f9:bf:0f:c7:0e:16:b1:c1:fe:
                    03:40:27:c1:e7:fd:95:fe:09:f4:47:9d:54:48:31:
                    3d:01:81:fd:bd:22:6a:15:44:3e:19:6a:66:71:3b:
                    a5:95:f2:b5:12:63:83:9d:98:94:f0:18:e7:01:02:
                    4c:e3:3d:64:d6:54:2d:25:db:d4:91:27:0d:f2:2e:
                    b0:9b:6d:81:c3:b2:0a:94:16:9c:30:7c:09:68:4b:
                    ab:fa:5b:40:06:97:28:0b:1c:9a:e0:c6:0b:ad:6e:
                    14:67:eb:99:89:c0:35:07:4d:87:b0:9a:56:d7:a1:
                    14:0c:3e:3b:ca:a4:c7:25:42:4f:4c:03:51:0a:7d:
                    e4:a8:84:6f:ea:19:4a:c8:c3:d8:87:7f:4d:f6:5a:
                    6a:42:c4:13:51:4d:08:f0:23:b8:65:c9:ed:ea:ad:
                    5a:24:44:96:36:82:7a:00:ec:05:4b:99:20:a0:72:
                    f8:1f:30:84:aa:e8:17:b2:44:79:b6:76:c5:78:0e:
                    d0:cd:d8:b4:7d:bb:a1:b3:e4:94:a0:b6:42:27:7b:
                    a4:cd:65:63:13:af:b4:0e:5c:ba:11:ab:fa:c8:b1:
                    ee:1b:fd:e0:b6:ee:c3:63:31:ab:c9:25:3b:1e:3e:
                    71:48:79:32:d4:0d:0d:08:fa:6b:04:37:74:43:08:
                    b6:8b:98:b9:f3:43:37:2d:bd:96:e1:c5:93:50:e7:
                    85:22:bf:2f:98:f9:68:e8:14:c3:a4:eb:39:a9:7e:
                    d3:4c:00:5f:5f:ae:f4:2a:a6:d3:3f:f3:92:ab:38:
                    02:2f:2d:5d:54:8e:9c:34:26:1d:0d:f4:a9:98:2a:
                    3f:09:27:98:0a:d9:05:00:96:4a:04:39:79:35:ad:
                    df:6d:8d:4b:a0:6f:4b:34:83:e8:bc:b9:db:d9:d2:
                    24:3f:f1:aa:3c:5a:21:a5:6f:23:3b:2e:59:38:6c:
                    6a:22:d3:e2:df:db:b1:a2:81:f4:da:8f:87:ee:c0:
                    09:a9:c8:e0:e8:d7:6e:08:d8:5e:e5:da:25:40:bf:
                    50:f5:73:87:5f:cf:e7:29:b4:5a:47:5c:32:bf:60:
                    69:26:c9:58:8f:29:b9:80:09:9e:58:4a:2d:e2:f8:
                    cb:ce:66:16:89:ee:4b:4e:fe:cb:2c:2d:b4:c3:26:
                    dc:6a:34:7d:85:09:b0:48:1c:59:f5:ef:7d:d8:0f:
                    78:c8:37:a7:0f:18:c5:3b:fc:85:e0:f7:f2:13:05:
                    42:63:ff:4f:8a:6b:12:07:80:88:b4:42:a3:64:27:
                    9f:98:6a:98:3f:61:0c:4c:4e:61:f1:0e:b5:b8:5c:
                    80:f6:93
                Exponent: 65537 (0x10001)
        X509v3 extensions:
            X509v3 Basic Constraints: 
                CA:FALSE
            Netscape Comment: 
                Easy-RSA Generated Certificate
            X509v3 Subject Key Identifier: 
                16:B8:D7:12:B8:66:7A:B4:D4:33:38:F7:77:AA:DB:D5:A5:63:06:AB
            X509v3 Authority Key Identifier: 
                keyid:12:CD:60:04:D2:A0:80:9E:70:ED:C6:99:B8:7B:2C:C6:52:FD:19:A1
                DirName:/C=US/ST=OH/L=Columbus/O=VikingVPN/OU=MyOrganizationalUnit/CN=VikingVPN CA/name=EasyRSA/emailAddress=me@myhost.mydomain
                serial:CF:35:85:EE:80:BF:2A:3E

            X509v3 Extended Key Usage: 
                TLS Web Client Authentication
            X509v3 Key Usage: 
                Digital Signature
    Signature Algorithm: md5WithRSAEncryption
         bb:ea:f8:6e:ec:3a:3e:5d:4f:7b:14:68:31:d7:01:c5:86:0e:
         aa:61:25:87:c8:34:38:01:b0:3b:c7:d2:bb:fe:a7:d0:3c:80:
         97:21:18:93:20:18:e6:c6:13:78:36:14:ee:d4:08:2a:a3:17:
         ef:71:ed:f5:9f:70:06:06:61:d1:fe:b4:56:8f:f5:82:a8:86:
         03:95:23:99:2d:c7:ee:a8:3f:aa:1d:84:64:81:ed:5f:8a:92:
         56:24:5a:f2:b3:fd:e0:34:79:84:7c:a2:5a:f8:3e:27:17:0c:
         ba:e4:40:8c:03:7a:00:ce:99:2f:51:e2:46:bf:9e:fb:66:e0:
         7f:d9:31:8b:d6:ef:c7:4b:0d:36:c6:db:dc:89:53:73:46:ab:
         1e:c4:20:38:96:58:50:f1:ed:3c:55:71:79:c8:1a:47:cc:40:
         38:e3:37:0e:1a:e2:6a:59:05:81:6c:9d:d0:15:15:f8:08:9b:
         e7:ac:c3:45:67:b5:c6:91:db:87:e7:58:1f:f9:c6:62:07:90:
         72:d9:e1:36:41:5c:0b:9b:4d:4e:cf:ed:3d:60:8f:f8:c0:bf:
         42:8e:53:bc:56:d4:b8:8b:95:1a:6e:1d:b4:4a:48:e2:bf:0e:
         02:b0:29:03:60:de:05:a9:b3:9b:30:ef:43:69:01:1a:67:65:
         d6:55:00:d6:23:99:7b:0e:43:13:41:0e:49:70:43:de:c9:7c:
         b1:0f:b6:d0:df:75:eb:6e:b8:03:df:9e:90:9c:e4:c6:a8:02:
         64:90:5b:48:00:82:ae:74:0c:78:80:37:12:55:bd:83:86:78:
         f1:c3:10:4a:ac:86:2e:c3:4b:95:73:2e:60:35:be:20:01:0a:
         97:8d:b4:ce:a3:f3:c1:1b:be:53:6a:7a:24:27:5d:1b:67:e8:
         c4:b3:d2:71:35:8b:68:2c:c3:71:43:32:0e:1f:75:6d:7b:dd:
         d4:a6:27:11:03:ca:34:a9:28:09:11:a4:74:4e:55:f5:9a:04:
         ee:21:06:dd:d7:d7:52:76:a1:f8:8e:6f:ae:b5:7b:65:8c:79:
         49:89:62:5a:fe:21:7a:d1:9d:33:df:20:e8:31:ba:d3:a5:51:
         92:25:34:ed:b0:55:c6:fb:ba:8a:a9:4f:59:d2:c7:96:c5:0f:
         00:09:fe:19:b8:ba:cf:bf:98:69:bb:c4:3b:a0:51:77:3b:83:
         b6:e5:cc:26:c6:7f:ec:69:33:6d:12:00:22:2d:d4:77:94:ae:
         c0:20:b6:bf:81:93:17:c9:26:72:5a:d0:57:8d:44:20:32:28:
         7f:d4:ca:63:cb:8b:76:5c:f0:d0:59:b0:bc:4e:6f:1e:0c:72:
         91:23:28:83:e7:15:32:0a
-----BEGIN CERTIFICATE-----
MIIGqzCCBJOgAwIBAgICAb0wDQYJKoZIhvcNAQEEBQAwgawxCzAJBgNVBAYTAlVT
MQswCQYDVQQIEwJPSDERMA8GA1UEBxMIQ29sdW1idXMxEjAQBgNVBAoTCVZpa2lu
Z1ZQTjEdMBsGA1UECxMUTXlPcmdhbml6YXRpb25hbFVuaXQxFTATBgNVBAMTDFZp
a2luZ1ZQTiBDQTEQMA4GA1UEKRMHRWFzeVJTQTEhMB8GCSqGSIb3DQEJARYSbWVA
bXlob3N0Lm15ZG9tYWluMB4XDTEzMTEyMjIzNDEwOFoXDTIzMTEyMDIzNDEwOFow
HTEbMBkGA1UEAxMSQ2xpZW50OTVDZXJ0ODY1ZDFmMIICIjANBgkqhkiG9w0BAQEF
AAOCAg8AMIICCgKCAgEAmFos8+QINq/2Q1TZnBQnxnEqSZb5vw/HDhaxwf4DQCfB
5/2V/gn0R51USDE9AYH9vSJqFUQ+GWpmcTullfK1EmODnZiU8BjnAQJM4z1k1lQt
JdvUkScN8i6wm22Bw7IKlBacMHwJaEur+ltABpcoCxya4MYLrW4UZ+uZicA1B02H
sJpW16EUDD47yqTHJUJPTANRCn3kqIRv6hlKyMPYh39N9lpqQsQTUU0I8CO4Zcnt
6q1aJESWNoJ6AOwFS5kgoHL4HzCEqugXskR5tnbFeA7Qzdi0fbuhs+SUoLZCJ3uk
zWVjE6+0Dly6Eav6yLHuG/3gtu7DYzGrySU7Hj5xSHky1A0NCPprBDd0Qwi2i5i5
80M3Lb2W4cWTUOeFIr8vmPlo6BTDpOs5qX7TTABfX670KqbTP/OSqzgCLy1dVI6c
NCYdDfSpmCo/CSeYCtkFAJZKBDl5Na3fbY1LoG9LNIPovLnb2dIkP/GqPFohpW8j
Oy5ZOGxqItPi39uxooH02o+H7sAJqcjg6NduCNhe5dolQL9Q9XOHX8/nKbRaR1wy
v2BpJslYjym5gAmeWEot4vjLzmYWie5LTv7LLC20wybcajR9hQmwSBxZ9e992A94
yDenDxjFO/yF4PfyEwVCY/9PimsSB4CItEKjZCefmGqYP2EMTE5h8Q61uFyA9pMC
AwEAAaOCAWMwggFfMAkGA1UdEwQCMAAwLQYJYIZIAYb4QgENBCAWHkVhc3ktUlNB
IEdlbmVyYXRlZCBDZXJ0aWZpY2F0ZTAdBgNVHQ4EFgQUFrjXErhmerTUMzj3d6rb
1aVjBqswgeEGA1UdIwSB2TCB1oAUEs1gBNKggJ5w7caZuHssxlL9GaGhgbKkga8w
gawxCzAJBgNVBAYTAlVTMQswCQYDVQQIEwJPSDERMA8GA1UEBxMIQ29sdW1idXMx
EjAQBgNVBAoTCVZpa2luZ1ZQTjEdMBsGA1UECxMUTXlPcmdhbml6YXRpb25hbFVu
aXQxFTATBgNVBAMTDFZpa2luZ1ZQTiBDQTEQMA4GA1UEKRMHRWFzeVJTQTEhMB8G
CSqGSIb3DQEJARYSbWVAbXlob3N0Lm15ZG9tYWluggkAzzWF7oC/Kj4wEwYDVR0l
BAwwCgYIKwYBBQUHAwIwCwYDVR0PBAQDAgeAMA0GCSqGSIb3DQEBBAUAA4ICAQC7
6vhu7Do+XU97FGgx1wHFhg6qYSWHyDQ4AbA7x9K7/qfQPICXIRiTIBjmxhN4NhTu
1Agqoxfvce31n3AGBmHR/rRWj/WCqIYDlSOZLcfuqD+qHYRkge1fipJWJFrys/3g
NHmEfKJa+D4nFwy65ECMA3oAzpkvUeJGv577ZuB/2TGL1u/HSw02xtvciVNzRqse
xCA4llhQ8e08VXF5yBpHzEA44zcOGuJqWQWBbJ3QFRX4CJvnrMNFZ7XGkduH51gf
+cZiB5By2eE2QVwLm01Oz+09YI/4wL9CjlO8VtS4i5Uabh20Skjivw4CsCkDYN4F
qbObMO9DaQEaZ2XWVQDWI5l7DkMTQQ5JcEPeyXyxD7bQ33XrbrgD356QnOTGqAJk
kFtIAIKudAx4gDcSVb2DhnjxwxBKrIYuw0uVcy5gNb4gAQqXjbTOo/PBG75Tanok
J10bZ+jEs9JxNYtoLMNxQzIOH3Vte93UpicRA8o0qSgJEaR0TlX1mgTuIQbd19dS
dqH4jm+utXtljHlJiWJa/iF60Z0z3yDoMbrTpVGSJTTtsFXG+7qKqU9Z0seWxQ8A
Cf4ZuLrPv5hpu8Q7oFF3O4O25cwmxn/saTNtEgAiLdR3lK7AILa/gZMXySZyWtBX
jUQgMih/1Mpjy4t2XPDQWbC8Tm8eDHKRIyiD5xUyCg==
-----END CERTIFICATE-----
