Certificate:
    Data:
        Version: 3 (0x2)
        Serial Number: 447 (0x1bf)
    Signature Algorithm: md5WithRSAEncryption
        Issuer: C=US, ST=OH, L=Columbus, O=VikingVPN, OU=MyOrganizationalUnit, CN=VikingVPN CA/name=EasyRSA/emailAddress=me@myhost.mydomain
        Validity
            Not Before: Nov 22 23:48:38 2013 GMT
            Not After : Nov 20 23:48:38 2023 GMT
        Subject: CN=Client198Cert853dfe
        Subject Public Key Info:
            Public Key Algorithm: rsaEncryption
                Public-Key: (4096 bit)
                Modulus:
                    00:b9:b1:b8:34:b1:a7:8d:25:a7:e3:3f:b1:aa:03:
                    3b:3a:18:61:b2:fb:f6:ec:e5:d2:9d:85:3d:e1:87:
                    d7:8b:11:ff:6f:dc:af:51:df:34:34:89:df:e9:77:
                    3b:70:14:5c:c9:d7:ad:91:a7:24:81:b9:32:a3:70:
                    ec:7f:12:d8:83:34:96:8f:3e:48:dc:e4:d5:c5:14:
                    c7:ba:dc:ff:6f:97:20:02:bf:1b:19:19:91:38:19:
                    7b:75:59:1d:89:2f:b7:b3:98:31:49:d6:ea:9a:14:
                    45:5e:64:97:49:87:12:8b:6d:4a:8e:49:ad:eb:e1:
                    fc:e6:5f:08:2c:0a:4d:68:f3:60:fa:42:66:3a:79:
                    44:ac:77:47:26:c1:e0:38:dd:c5:93:42:30:fe:96:
                    99:44:58:84:3a:e1:72:21:88:ec:80:0a:f1:df:0f:
                    89:0c:12:3b:b9:f8:98:8d:f2:b8:a8:e4:89:cd:fe:
                    c4:c6:d8:0e:64:68:24:4c:6e:e9:3b:6f:81:b0:d4:
                    76:bf:0c:22:96:08:57:50:df:a4:15:66:97:ae:16:
                    d6:fd:17:24:b8:26:32:87:2b:20:a7:18:70:e1:2d:
                    cf:23:97:f9:da:92:7d:7d:92:e9:54:53:3a:34:38:
                    a8:cc:df:b4:03:e0:2e:c9:11:37:b1:7e:74:1c:b2:
                    56:bc:a1:37:df:a0:94:a2:25:5f:d2:3f:7e:dd:e2:
                    17:56:b6:f2:a4:cf:0d:91:46:b4:cf:41:53:05:36:
                    9d:ba:cd:40:9f:e8:62:a1:54:7f:d1:a9:4d:c3:b4:
                    84:dd:b4:dc:79:c6:d2:cf:2c:0e:5c:d4:46:9d:f7:
                    23:c0:67:ff:07:1d:03:b7:e6:18:a4:c5:a5:4f:a6:
                    7f:ec:a5:63:5e:c9:47:dc:a2:99:db:d1:a5:90:72:
                    ab:6c:b0:86:9b:f6:35:bf:ac:04:07:f1:9f:9e:56:
                    6c:27:83:7e:0c:47:43:58:08:fb:5e:cb:84:ae:c5:
                    56:64:b7:f3:3f:d1:76:43:4f:b8:e9:85:ca:1d:af:
                    27:8f:db:8a:81:16:4b:9b:01:75:5f:6c:96:f9:27:
                    8c:55:83:6f:7b:e7:b6:06:7c:c7:f9:5c:c0:92:1c:
                    2e:20:d1:df:44:d3:6f:ef:01:92:dc:eb:cc:e8:7d:
                    20:7b:38:c3:73:59:9d:68:48:a6:9c:b9:d7:47:79:
                    1a:ee:d3:4a:f5:d4:f8:81:14:1d:d8:15:36:f2:de:
                    b3:7b:f5:3f:da:9f:9b:4b:e8:d8:32:23:eb:01:da:
                    61:50:a3:d0:16:3d:91:a0:a4:50:8f:32:9f:2e:f6:
                    7f:0b:54:49:e5:7a:74:70:64:33:b9:55:11:ec:aa:
                    6d:e6:c9
                Exponent: 65537 (0x10001)
        X509v3 extensions:
            X509v3 Basic Constraints: 
                CA:FALSE
            Netscape Comment: 
                Easy-RSA Generated Certificate
            X509v3 Subject Key Identifier: 
                33:E4:D1:E1:7F:AE:1E:FE:8C:33:42:F2:D9:ED:94:13:52:5A:27:89
            X509v3 Authority Key Identifier: 
                keyid:12:CD:60:04:D2:A0:80:9E:70:ED:C6:99:B8:7B:2C:C6:52:FD:19:A1
                DirName:/C=US/ST=OH/L=Columbus/O=VikingVPN/OU=MyOrganizationalUnit/CN=VikingVPN CA/name=EasyRSA/emailAddress=me@myhost.mydomain
                serial:CF:35:85:EE:80:BF:2A:3E

            X509v3 Extended Key Usage: 
                TLS Web Client Authentication
            X509v3 Key Usage: 
                Digital Signature
    Signature Algorithm: md5WithRSAEncryption
         6d:b7:c4:ef:ad:f5:b5:a8:bd:58:c4:1a:fa:89:dd:a8:61:7b:
         0f:ab:de:1b:49:d2:69:ca:87:2c:90:29:14:9a:80:cb:70:ed:
         88:7b:16:cb:3b:9b:02:71:75:e4:31:ba:02:3c:7b:a2:e6:fd:
         35:79:21:6b:f8:60:98:89:db:11:ca:98:f4:2f:4c:2e:96:80:
         0d:2e:99:ac:30:5e:5c:ba:a5:c5:d5:14:66:67:20:e8:1a:d9:
         eb:10:bf:49:cc:ad:85:ec:ab:64:9a:d8:41:59:8e:a7:41:07:
         b7:9a:50:e1:31:5a:b8:27:27:ba:b1:34:95:d7:0c:6a:6d:24:
         65:d0:3c:cb:0c:26:ed:13:6f:1a:4a:c0:3a:19:6b:d5:3d:63:
         1a:2b:d2:3e:f6:ff:b6:7e:de:15:28:64:10:4f:12:a9:65:f1:
         a7:b6:7b:58:7e:91:bf:3e:85:24:fc:de:cd:10:78:d3:9f:bd:
         5a:72:b4:79:df:ff:63:29:56:16:53:02:05:4e:be:29:b4:d7:
         74:4b:fe:c6:2e:fc:7d:d3:79:5b:9e:03:f0:21:3d:29:d0:e1:
         a5:b7:46:66:f3:a1:1b:63:48:7f:45:a9:b9:e3:b4:4b:7e:57:
         cf:56:ea:41:cd:3e:a2:fd:11:d0:30:3c:83:92:0e:06:30:0d:
         0b:7b:02:97:3f:78:c1:5b:98:87:e6:9f:5e:cf:25:da:f7:05:
         55:ae:29:90:22:0b:5f:76:c0:f7:ad:2b:69:ee:4b:4e:bc:e5:
         3a:28:70:13:bb:b5:42:d5:f5:8f:95:d9:08:23:85:46:c1:d4:
         25:c8:a8:0e:48:54:35:e1:14:60:dd:ef:6f:3e:ec:3f:98:cb:
         33:cf:a1:b0:26:84:68:d2:59:39:1e:d9:70:c1:c0:6b:aa:d5:
         81:2e:e2:c5:f3:b7:83:1f:b6:08:b8:da:64:37:50:d9:f1:02:
         a6:81:10:bd:85:1f:17:e9:bb:93:05:fa:0c:12:bf:02:2a:8d:
         d2:6a:ee:14:ac:0b:c8:9f:2c:ce:04:aa:91:ea:6c:72:8f:bd:
         43:12:ce:14:ed:68:91:b1:1c:b0:00:73:0a:ce:f3:cd:bd:ea:
         6d:1d:19:30:fe:ab:89:99:95:1d:01:50:e2:ac:6f:70:a7:dd:
         cf:b0:6c:ff:45:85:fc:17:b2:83:75:48:55:ea:76:6b:24:ef:
         e1:af:6f:55:39:7e:8d:8a:14:97:8f:82:ab:a1:f9:8c:3b:e0:
         3b:00:44:c3:7b:79:12:c3:ea:7d:1f:75:d1:58:5c:ec:a0:f0:
         62:bf:3e:57:99:02:9a:67:d7:a1:75:c7:27:0d:16:31:c5:d4:
         ad:fb:b2:24:d3:b7:8e:b6
-----BEGIN CERTIFICATE-----
MIIGrDCCBJSgAwIBAgICAb8wDQYJKoZIhvcNAQEEBQAwgawxCzAJBgNVBAYTAlVT
MQswCQYDVQQIEwJPSDERMA8GA1UEBxMIQ29sdW1idXMxEjAQBgNVBAoTCVZpa2lu
Z1ZQTjEdMBsGA1UECxMUTXlPcmdhbml6YXRpb25hbFVuaXQxFTATBgNVBAMTDFZp
a2luZ1ZQTiBDQTEQMA4GA1UEKRMHRWFzeVJTQTEhMB8GCSqGSIb3DQEJARYSbWVA
bXlob3N0Lm15ZG9tYWluMB4XDTEzMTEyMjIzNDgzOFoXDTIzMTEyMDIzNDgzOFow
HjEcMBoGA1UEAxMTQ2xpZW50MTk4Q2VydDg1M2RmZTCCAiIwDQYJKoZIhvcNAQEB
BQADggIPADCCAgoCggIBALmxuDSxp40lp+M/saoDOzoYYbL79uzl0p2FPeGH14sR
/2/cr1HfNDSJ3+l3O3AUXMnXrZGnJIG5MqNw7H8S2IM0lo8+SNzk1cUUx7rc/2+X
IAK/GxkZkTgZe3VZHYkvt7OYMUnW6poURV5kl0mHEottSo5Jrevh/OZfCCwKTWjz
YPpCZjp5RKx3RybB4DjdxZNCMP6WmURYhDrhciGI7IAK8d8PiQwSO7n4mI3yuKjk
ic3+xMbYDmRoJExu6TtvgbDUdr8MIpYIV1DfpBVml64W1v0XJLgmMocrIKcYcOEt
zyOX+dqSfX2S6VRTOjQ4qMzftAPgLskRN7F+dByyVryhN9+glKIlX9I/ft3iF1a2
8qTPDZFGtM9BUwU2nbrNQJ/oYqFUf9GpTcO0hN203HnG0s8sDlzURp33I8Bn/wcd
A7fmGKTFpU+mf+ylY17JR9yimdvRpZByq2ywhpv2Nb+sBAfxn55WbCeDfgxHQ1gI
+17LhK7FVmS38z/RdkNPuOmFyh2vJ4/bioEWS5sBdV9slvknjFWDb3vntgZ8x/lc
wJIcLiDR30TTb+8BktzrzOh9IHs4w3NZnWhIppy510d5Gu7TSvXU+IEUHdgVNvLe
s3v1P9qfm0vo2DIj6wHaYVCj0BY9kaCkUI8yny72fwtUSeV6dHBkM7lVEeyqbebJ
AgMBAAGjggFjMIIBXzAJBgNVHRMEAjAAMC0GCWCGSAGG+EIBDQQgFh5FYXN5LVJT
QSBHZW5lcmF0ZWQgQ2VydGlmaWNhdGUwHQYDVR0OBBYEFDPk0eF/rh7+jDNC8tnt
lBNSWieJMIHhBgNVHSMEgdkwgdaAFBLNYATSoICecO3Gmbh7LMZS/RmhoYGypIGv
MIGsMQswCQYDVQQGEwJVUzELMAkGA1UECBMCT0gxETAPBgNVBAcTCENvbHVtYnVz
MRIwEAYDVQQKEwlWaWtpbmdWUE4xHTAbBgNVBAsTFE15T3JnYW5pemF0aW9uYWxV
bml0MRUwEwYDVQQDEwxWaWtpbmdWUE4gQ0ExEDAOBgNVBCkTB0Vhc3lSU0ExITAf
BgkqhkiG9w0BCQEWEm1lQG15aG9zdC5teWRvbWFpboIJAM81he6Avyo+MBMGA1Ud
JQQMMAoGCCsGAQUFBwMCMAsGA1UdDwQEAwIHgDANBgkqhkiG9w0BAQQFAAOCAgEA
bbfE7631tai9WMQa+ondqGF7D6veG0nSacqHLJApFJqAy3DtiHsWyzubAnF15DG6
Ajx7oub9NXkha/hgmInbEcqY9C9MLpaADS6ZrDBeXLqlxdUUZmcg6BrZ6xC/Scyt
heyrZJrYQVmOp0EHt5pQ4TFauCcnurE0ldcMam0kZdA8ywwm7RNvGkrAOhlr1T1j
GivSPvb/tn7eFShkEE8SqWXxp7Z7WH6Rvz6FJPzezRB405+9WnK0ed//YylWFlMC
BU6+KbTXdEv+xi78fdN5W54D8CE9KdDhpbdGZvOhG2NIf0WpueO0S35Xz1bqQc0+
ov0R0DA8g5IOBjANC3sClz94wVuYh+afXs8l2vcFVa4pkCILX3bA960rae5LTrzl
OihwE7u1QtX1j5XZCCOFRsHUJcioDkhUNeEUYN3vbz7sP5jLM8+hsCaEaNJZOR7Z
cMHAa6rVgS7ixfO3gx+2CLjaZDdQ2fECpoEQvYUfF+m7kwX6DBK/AiqN0mruFKwL
yJ8szgSqkepsco+9QxLOFO1okbEcsABzCs7zzb3qbR0ZMP6riZmVHQFQ4qxvcKfd
z7Bs/0WF/Beyg3VIVep2ayTv4a9vVTl+jYoUl4+Cq6H5jDvgOwBEw3t5EsPqfR91
0Vhc7KDwYr8+V5kCmmfXoXXHJw0WMcXUrfuyJNO3jrY=
-----END CERTIFICATE-----
