Certificate:
    Data:
        Version: 3 (0x2)
        Serial Number: 453 (0x1c5)
    Signature Algorithm: md5WithRSAEncryption
        Issuer: C=US, ST=OH, L=Columbus, O=VikingVPN, OU=MyOrganizationalUnit, CN=VikingVPN CA/name=EasyRSA/emailAddress=me@myhost.mydomain
        Validity
            Not Before: Nov 24 02:31:11 2013 GMT
            Not After : Nov 22 02:31:11 2023 GMT
        Subject: CN=Client199Certd383b8
        Subject Public Key Info:
            Public Key Algorithm: rsaEncryption
                Public-Key: (4096 bit)
                Modulus:
                    00:de:91:ec:0c:f6:01:4a:6b:c2:4c:5e:72:a3:55:
                    4d:87:49:80:77:3e:82:69:5e:06:8d:49:ac:bf:1b:
                    ad:a7:47:4e:a4:cd:f2:9d:b3:12:96:5d:ff:55:59:
                    f5:fe:a5:f0:aa:82:89:03:3a:5f:0a:dc:06:e3:dc:
                    db:11:51:1e:38:a8:4e:5f:ca:0b:28:18:b0:02:e6:
                    f4:00:59:4e:90:06:56:66:2f:41:05:ce:3d:3c:74:
                    c7:d4:ab:fb:2c:7c:3a:7e:7a:ef:c5:c8:53:d4:55:
                    6a:3c:61:09:69:ea:d5:c4:11:fb:1c:c0:a9:aa:09:
                    b9:13:28:f7:5e:22:60:23:f4:ab:60:71:cc:b9:55:
                    92:3c:9f:80:e6:b4:c6:e4:01:34:b4:88:d7:65:c5:
                    a4:a2:f3:37:0f:34:e4:5d:ce:0e:1d:95:08:72:db:
                    1b:b2:c6:c8:d0:2a:b6:2f:68:0d:49:37:be:d2:c2:
                    94:8c:61:16:68:80:ef:b2:d4:a8:c1:8e:67:cf:05:
                    da:ff:5b:f5:ad:ef:d2:e3:19:f5:ff:02:3a:e6:a3:
                    8f:c4:d9:cd:26:f4:2b:a4:0a:c2:0d:5c:17:93:2f:
                    37:a7:c4:63:c0:56:81:99:e2:a0:62:e3:c5:9e:b4:
                    07:5b:1a:2b:66:05:6f:28:a9:3b:c7:06:d4:a6:c0:
                    4c:be:7f:e8:b7:1c:83:26:70:e1:6e:53:0c:cd:8b:
                    be:e9:0f:57:92:15:e8:41:cf:09:d8:bd:12:3d:01:
                    ca:5b:c9:ff:bf:0e:2f:c6:c5:16:00:60:33:b4:3d:
                    44:16:25:f2:55:02:71:c2:c8:c4:46:fd:5f:a4:49:
                    d5:1c:3e:f3:86:28:b2:2d:cf:57:db:86:36:26:6f:
                    67:df:5d:83:4b:3d:f8:81:a7:a9:2c:58:4b:1f:75:
                    c8:7a:39:67:ff:7e:6a:d3:a3:ee:20:5f:34:fc:50:
                    69:b8:59:a6:80:37:87:76:58:a7:45:c5:d8:61:0a:
                    b9:dc:9e:c0:00:3d:8c:8c:14:cb:9a:71:1b:c3:39:
                    dd:3a:be:6a:a0:76:c5:32:b5:bd:ae:bb:c7:54:69:
                    bb:7d:61:a6:ab:20:85:b1:4a:ef:fa:00:d5:51:90:
                    81:29:ef:b6:c7:a2:cf:55:d1:43:f9:82:00:fa:d5:
                    8c:40:a9:99:3c:43:1e:4e:19:31:e2:9f:9e:30:b0:
                    bd:45:aa:1c:5a:5f:be:38:04:e4:78:a9:3f:96:58:
                    14:d8:b4:ad:50:7d:5e:cc:90:10:a4:3b:14:e4:ef:
                    04:98:19:0c:e6:a6:96:c5:75:45:22:fa:ef:32:e5:
                    ca:0a:d8:f9:bb:5d:bb:86:09:f2:ee:57:cf:76:c7:
                    44:9a:8f
                Exponent: 65537 (0x10001)
        X509v3 extensions:
            X509v3 Basic Constraints: 
                CA:FALSE
            Netscape Comment: 
                Easy-RSA Generated Certificate
            X509v3 Subject Key Identifier: 
                CD:F6:24:85:20:CD:54:55:23:65:1B:B5:CE:78:C0:D6:CE:1C:5E:E7
            X509v3 Authority Key Identifier: 
                keyid:12:CD:60:04:D2:A0:80:9E:70:ED:C6:99:B8:7B:2C:C6:52:FD:19:A1
                DirName:/C=US/ST=OH/L=Columbus/O=VikingVPN/OU=MyOrganizationalUnit/CN=VikingVPN CA/name=EasyRSA/emailAddress=me@myhost.mydomain
                serial:CF:35:85:EE:80:BF:2A:3E

            X509v3 Extended Key Usage: 
                TLS Web Client Authentication
            X509v3 Key Usage: 
                Digital Signature
    Signature Algorithm: md5WithRSAEncryption
         78:6d:12:dc:3c:71:df:c8:32:36:c2:e5:f1:83:8e:31:c4:b1:
         a1:cc:55:f3:e8:9e:35:1f:9d:c1:3c:68:53:10:08:f1:d3:65:
         0d:6c:31:b8:22:e2:96:df:69:56:9e:12:3e:2a:52:bb:0a:cc:
         98:22:09:10:bb:e8:64:8b:83:71:d3:30:b8:f2:f5:a4:8a:8d:
         d8:ae:46:93:4b:8a:ed:14:07:37:f9:53:6e:cc:43:a7:2e:3f:
         53:a1:3a:13:9b:6b:36:88:bc:21:c4:b6:ff:0c:30:3e:5a:d9:
         73:71:ac:07:61:4c:ba:8b:3d:ee:81:63:41:b8:61:f3:77:0a:
         a6:83:15:35:c8:df:16:f5:e4:4d:f1:7b:ce:bd:7c:3a:7b:74:
         af:3a:47:79:52:e9:cd:d0:29:65:6d:a5:0f:79:55:cb:dc:16:
         bf:32:21:84:80:05:6d:cb:c7:f8:6e:bd:6e:f6:0b:f3:87:6a:
         52:35:68:a9:b5:b4:51:ea:94:3a:46:c8:ed:f7:f9:9d:2a:cd:
         43:46:f3:8c:c8:35:12:c0:bc:3a:be:79:1c:d1:65:0f:4b:b9:
         71:29:38:81:9b:41:2d:52:02:64:73:4b:24:64:74:87:f9:56:
         c2:eb:d7:c5:87:4c:73:4f:d6:26:de:4c:e1:71:5d:c9:69:90:
         53:b5:bb:2f:6a:a2:04:92:b1:56:ef:bf:5e:c0:1d:91:4e:27:
         e7:ed:af:f1:8f:3a:20:f6:6d:33:c5:4f:20:eb:02:66:a7:2a:
         2d:e0:04:09:4c:f8:41:e8:a8:5c:fe:db:6f:73:cb:fd:06:e3:
         32:c1:e7:be:62:3d:66:f6:fc:3d:eb:fa:11:76:e5:84:c4:07:
         a8:6d:98:c7:60:03:02:db:d4:8d:64:cc:bd:38:58:f6:42:9b:
         1d:70:d3:28:c7:46:a3:43:52:07:68:f8:18:53:60:15:6e:24:
         4f:17:99:e0:ae:e1:c1:1b:5d:36:26:e2:2f:e1:48:bd:4b:03:
         5a:a3:2e:96:a3:c9:d9:47:1e:0b:ef:04:c8:11:03:35:5b:73:
         b5:34:60:a5:4d:b4:3b:6d:18:75:c6:a4:de:9e:72:80:a6:99:
         bc:3e:f6:6e:2b:36:c2:82:f0:ad:5d:a1:38:24:e9:cf:a9:1f:
         a3:78:8e:49:56:8d:ce:47:97:8e:a2:9f:38:9c:dc:ab:97:e8:
         ff:f3:86:c9:73:bf:f8:cd:c1:ef:14:15:82:69:36:29:1f:f5:
         73:17:b7:d4:9a:48:7d:80:dc:f3:f7:bf:09:c7:f3:d3:81:f8:
         9e:57:ba:83:8d:6d:27:5c:55:38:f6:4a:69:60:50:ba:fa:5c:
         49:29:7f:ba:5f:9b:df:66
-----BEGIN CERTIFICATE-----
MIIGrDCCBJSgAwIBAgICAcUwDQYJKoZIhvcNAQEEBQAwgawxCzAJBgNVBAYTAlVT
MQswCQYDVQQIEwJPSDERMA8GA1UEBxMIQ29sdW1idXMxEjAQBgNVBAoTCVZpa2lu
Z1ZQTjEdMBsGA1UECxMUTXlPcmdhbml6YXRpb25hbFVuaXQxFTATBgNVBAMTDFZp
a2luZ1ZQTiBDQTEQMA4GA1UEKRMHRWFzeVJTQTEhMB8GCSqGSIb3DQEJARYSbWVA
bXlob3N0Lm15ZG9tYWluMB4XDTEzMTEyNDAyMzExMVoXDTIzMTEyMjAyMzExMVow
HjEcMBoGA1UEAxMTQ2xpZW50MTk5Q2VydGQzODNiODCCAiIwDQYJKoZIhvcNAQEB
BQADggIPADCCAgoCggIBAN6R7Az2AUprwkxecqNVTYdJgHc+gmleBo1JrL8bradH
TqTN8p2zEpZd/1VZ9f6l8KqCiQM6XwrcBuPc2xFRHjioTl/KCygYsALm9ABZTpAG
VmYvQQXOPTx0x9Sr+yx8On5678XIU9RVajxhCWnq1cQR+xzAqaoJuRMo914iYCP0
q2BxzLlVkjyfgOa0xuQBNLSI12XFpKLzNw805F3ODh2VCHLbG7LGyNAqti9oDUk3
vtLClIxhFmiA77LUqMGOZ88F2v9b9a3v0uMZ9f8COuajj8TZzSb0K6QKwg1cF5Mv
N6fEY8BWgZnioGLjxZ60B1saK2YFbyipO8cG1KbATL5/6LccgyZw4W5TDM2LvukP
V5IV6EHPCdi9Ej0BylvJ/78OL8bFFgBgM7Q9RBYl8lUCccLIxEb9X6RJ1Rw+84Yo
si3PV9uGNiZvZ99dg0s9+IGnqSxYSx91yHo5Z/9+atOj7iBfNPxQabhZpoA3h3ZY
p0XF2GEKudyewAA9jIwUy5pxG8M53Tq+aqB2xTK1va67x1Rpu31hpqsghbFK7/oA
1VGQgSnvtseiz1XRQ/mCAPrVjECpmTxDHk4ZMeKfnjCwvUWqHFpfvjgE5HipP5ZY
FNi0rVB9XsyQEKQ7FOTvBJgZDOamlsV1RSL67zLlygrY+btdu4YJ8u5Xz3bHRJqP
AgMBAAGjggFjMIIBXzAJBgNVHRMEAjAAMC0GCWCGSAGG+EIBDQQgFh5FYXN5LVJT
QSBHZW5lcmF0ZWQgQ2VydGlmaWNhdGUwHQYDVR0OBBYEFM32JIUgzVRVI2Ubtc54
wNbOHF7nMIHhBgNVHSMEgdkwgdaAFBLNYATSoICecO3Gmbh7LMZS/RmhoYGypIGv
MIGsMQswCQYDVQQGEwJVUzELMAkGA1UECBMCT0gxETAPBgNVBAcTCENvbHVtYnVz
MRIwEAYDVQQKEwlWaWtpbmdWUE4xHTAbBgNVBAsTFE15T3JnYW5pemF0aW9uYWxV
bml0MRUwEwYDVQQDEwxWaWtpbmdWUE4gQ0ExEDAOBgNVBCkTB0Vhc3lSU0ExITAf
BgkqhkiG9w0BCQEWEm1lQG15aG9zdC5teWRvbWFpboIJAM81he6Avyo+MBMGA1Ud
JQQMMAoGCCsGAQUFBwMCMAsGA1UdDwQEAwIHgDANBgkqhkiG9w0BAQQFAAOCAgEA
eG0S3Dxx38gyNsLl8YOOMcSxocxV8+ieNR+dwTxoUxAI8dNlDWwxuCLilt9pVp4S
PipSuwrMmCIJELvoZIuDcdMwuPL1pIqN2K5Gk0uK7RQHN/lTbsxDpy4/U6E6E5tr
Noi8IcS2/wwwPlrZc3GsB2FMuos97oFjQbhh83cKpoMVNcjfFvXkTfF7zr18Ont0
rzpHeVLpzdApZW2lD3lVy9wWvzIhhIAFbcvH+G69bvYL84dqUjVoqbW0UeqUOkbI
7ff5nSrNQ0bzjMg1EsC8Or55HNFlD0u5cSk4gZtBLVICZHNLJGR0h/lWwuvXxYdM
c0/WJt5M4XFdyWmQU7W7L2qiBJKxVu+/XsAdkU4n5+2v8Y86IPZtM8VPIOsCZqcq
LeAECUz4QeioXP7bb3PL/QbjMsHnvmI9Zvb8Pev6EXblhMQHqG2Yx2ADAtvUjWTM
vThY9kKbHXDTKMdGo0NSB2j4GFNgFW4kTxeZ4K7hwRtdNibiL+FIvUsDWqMulqPJ
2UceC+8EyBEDNVtztTRgpU20O20Ydcak3p5ygKaZvD72bis2woLwrV2hOCTpz6kf
o3iOSVaNzkeXjqKfOJzcq5fo//OGyXO/+M3B7xQVgmk2KR/1cxe31JpIfYDc8/e/
Ccfz04H4nle6g41tJ1xVOPZKaWBQuvpcSSl/ul+b32Y=
-----END CERTIFICATE-----
