Certificate:
    Data:
        Version: 3 (0x2)
        Serial Number: 485 (0x1e5)
    Signature Algorithm: md5WithRSAEncryption
        Issuer: C=US, ST=OH, L=Columbus, O=VikingVPN, OU=MyOrganizationalUnit, CN=VikingVPN CA/name=EasyRSA/emailAddress=me@myhost.mydomain
        Validity
            Not Before: Nov 29 17:47:42 2013 GMT
            Not After : Nov 27 17:47:42 2023 GMT
        Subject: CN=Client211Cert9fbbd2
        Subject Public Key Info:
            Public Key Algorithm: rsaEncryption
                Public-Key: (4096 bit)
                Modulus:
                    00:a2:ef:43:7a:7f:ac:cd:ef:85:06:25:e2:32:1f:
                    f4:ce:10:fd:32:ba:a3:d0:81:31:fb:54:27:d6:f4:
                    32:69:91:bc:22:c5:1c:97:d7:c4:93:8a:ce:0f:06:
                    8a:73:e4:22:3c:4f:28:2d:17:55:d0:12:52:b2:c4:
                    76:ae:73:17:f0:ef:6e:f3:ed:d2:74:27:38:3d:cd:
                    a0:fd:26:0b:e9:a3:49:a3:47:94:6e:a4:ba:55:09:
                    b3:a7:9d:e7:83:8c:3f:a3:8d:6b:21:9c:83:26:75:
                    23:3c:24:96:a9:3d:50:91:a8:b8:79:4c:a8:e3:39:
                    a6:00:ec:91:a0:64:ed:97:1d:36:51:75:a3:f9:bd:
                    ce:fb:24:4b:b1:1a:ba:08:bb:20:46:eb:f0:41:13:
                    5e:42:02:cd:06:f8:4e:15:c6:67:c1:73:26:e9:77:
                    92:6d:0d:40:eb:29:2f:e3:e0:15:a7:99:fd:e7:75:
                    30:f2:e6:1f:9d:60:3f:cd:e5:91:25:e1:75:eb:06:
                    0d:06:0e:7c:b7:bd:ef:14:a1:b7:58:2a:4c:aa:02:
                    7f:26:06:6c:c1:56:b3:91:18:ae:14:3c:40:4b:df:
                    ed:b1:a0:30:21:7b:36:37:35:bb:0e:d4:b4:27:39:
                    ad:d1:f8:f6:3f:39:12:05:eb:24:b9:c1:53:3b:ce:
                    7c:00:f6:b0:c6:34:c8:06:d7:ac:75:0a:bb:78:ad:
                    c7:9f:6a:be:d1:6b:74:ed:56:aa:85:34:22:94:d8:
                    ba:0f:cc:0f:d4:b0:5c:7a:5a:20:00:a7:74:2b:1d:
                    66:09:89:6f:cc:23:23:08:2f:34:c9:e2:be:e9:e5:
                    a7:3c:33:bb:76:66:bb:37:61:46:fe:21:f9:c3:a7:
                    f4:17:a2:01:97:8c:8e:48:40:76:bc:f1:9d:62:91:
                    1e:36:30:16:44:f7:28:4f:53:15:05:84:aa:43:6f:
                    ef:06:22:f7:95:e9:07:08:b4:6b:0b:bb:8a:71:3b:
                    dc:d1:8d:a1:05:49:84:ae:6d:c3:54:c8:cb:83:e0:
                    0e:a0:f6:76:5f:a0:ad:06:a0:b1:be:5a:68:a6:92:
                    8f:32:7e:a2:f6:64:ea:97:95:40:ea:9a:c3:79:44:
                    59:0c:d2:ea:e8:57:3b:b8:fe:87:e2:32:fc:4f:8f:
                    92:06:a8:46:b7:59:9e:89:8e:14:16:89:1f:a7:fc:
                    e5:30:31:0d:ea:ab:31:9a:68:5e:0b:18:8e:59:24:
                    47:41:74:9c:af:2e:86:6d:b5:b9:be:9d:34:6a:b5:
                    7b:82:8b:9a:69:52:04:53:a3:7f:b5:16:d6:76:d5:
                    a0:ac:fb:ff:4a:70:b5:a1:cc:0f:b5:66:cc:c7:e4:
                    26:6b:65
                Exponent: 65537 (0x10001)
        X509v3 extensions:
            X509v3 Basic Constraints: 
                CA:FALSE
            Netscape Comment: 
                Easy-RSA Generated Certificate
            X509v3 Subject Key Identifier: 
                9D:8A:BB:51:65:37:EA:BA:82:E8:F9:93:F7:23:8B:6C:B2:5A:2E:48
            X509v3 Authority Key Identifier: 
                keyid:12:CD:60:04:D2:A0:80:9E:70:ED:C6:99:B8:7B:2C:C6:52:FD:19:A1
                DirName:/C=US/ST=OH/L=Columbus/O=VikingVPN/OU=MyOrganizationalUnit/CN=VikingVPN CA/name=EasyRSA/emailAddress=me@myhost.mydomain
                serial:CF:35:85:EE:80:BF:2A:3E

            X509v3 Extended Key Usage: 
                TLS Web Client Authentication
            X509v3 Key Usage: 
                Digital Signature
    Signature Algorithm: md5WithRSAEncryption
         23:01:06:7c:a0:f2:32:f6:82:85:af:b6:47:fb:91:db:10:81:
         a3:e6:33:8f:f8:d5:86:76:6a:61:23:6c:44:ff:31:8a:9f:9d:
         ea:af:69:f5:c9:ec:d1:be:d1:4a:00:e7:69:13:bb:5d:df:97:
         93:d5:59:f9:4c:e6:a6:be:33:8b:4d:cf:63:5c:6d:4f:d2:64:
         af:a0:06:52:b8:a4:81:3e:f7:97:d0:78:22:32:c2:0b:e0:b3:
         7d:74:cf:7d:44:94:3f:15:43:f3:31:43:df:c2:62:bf:3e:d4:
         52:95:60:39:86:29:a4:c1:ca:24:8c:07:ff:d1:0e:e0:2c:bd:
         42:29:5e:0b:64:47:88:60:6a:11:c2:d9:2b:06:69:10:2a:d1:
         db:d9:d7:28:f6:57:a1:6a:72:fd:ec:de:a4:f4:15:80:b0:cd:
         36:e3:80:1f:99:b6:0d:5f:56:36:ad:54:a4:c1:27:69:65:76:
         d8:a4:33:49:a1:0d:ce:f2:21:c6:71:1d:cb:de:5a:d8:92:da:
         51:d7:af:b8:f6:fc:97:f8:91:84:b9:73:a7:4f:47:3f:87:81:
         59:eb:ee:8c:58:3f:50:04:84:be:53:79:33:56:23:17:76:c8:
         ed:d1:1c:15:f5:2c:d8:46:09:32:b6:05:fe:c6:bd:bb:93:ef:
         be:f5:dd:f9:29:29:9e:4d:56:59:36:c3:df:32:ea:e7:03:1f:
         30:ce:6b:1d:aa:54:e8:93:87:3e:62:23:34:68:5c:f4:14:6b:
         f5:02:ed:58:f0:30:3d:a1:02:0b:de:8b:26:46:ab:df:5a:e1:
         be:e1:e7:00:32:b1:b4:93:38:47:aa:6b:c7:73:7d:20:d0:75:
         a2:c7:2d:d8:a4:64:87:13:9f:a6:8f:57:2c:da:d4:01:90:c4:
         32:83:02:39:66:ee:79:33:5f:ad:1e:0f:f9:69:4a:11:86:21:
         eb:b2:82:23:2a:33:0f:dd:69:76:fe:fe:e1:c1:fa:87:d7:74:
         41:80:a4:49:e2:93:0f:5f:33:a1:04:92:72:a8:93:63:ad:18:
         8d:10:9f:1d:27:69:74:9d:0f:90:fd:74:ff:15:f6:b4:e9:54:
         bc:81:cf:12:74:dc:c8:56:7e:2b:82:8b:60:bc:17:c9:c9:95:
         48:18:dc:2b:dc:c1:f0:99:1e:8e:d8:48:90:54:50:81:64:b7:
         31:b9:bc:5e:3f:6f:1b:b4:e2:40:d0:ea:57:7b:de:57:38:e0:
         9b:e1:2c:d9:c0:15:e0:cf:d0:8d:90:83:bd:8f:76:ba:60:58:
         99:66:d6:9d:2c:e1:c3:f0:0c:53:f8:e6:75:22:b6:4e:8a:fe:
         39:13:54:c8:d5:7c:82:32
-----BEGIN CERTIFICATE-----
MIIGrDCCBJSgAwIBAgICAeUwDQYJKoZIhvcNAQEEBQAwgawxCzAJBgNVBAYTAlVT
MQswCQYDVQQIEwJPSDERMA8GA1UEBxMIQ29sdW1idXMxEjAQBgNVBAoTCVZpa2lu
Z1ZQTjEdMBsGA1UECxMUTXlPcmdhbml6YXRpb25hbFVuaXQxFTATBgNVBAMTDFZp
a2luZ1ZQTiBDQTEQMA4GA1UEKRMHRWFzeVJTQTEhMB8GCSqGSIb3DQEJARYSbWVA
bXlob3N0Lm15ZG9tYWluMB4XDTEzMTEyOTE3NDc0MloXDTIzMTEyNzE3NDc0Mlow
HjEcMBoGA1UEAxMTQ2xpZW50MjExQ2VydDlmYmJkMjCCAiIwDQYJKoZIhvcNAQEB
BQADggIPADCCAgoCggIBAKLvQ3p/rM3vhQYl4jIf9M4Q/TK6o9CBMftUJ9b0MmmR
vCLFHJfXxJOKzg8GinPkIjxPKC0XVdASUrLEdq5zF/DvbvPt0nQnOD3NoP0mC+mj
SaNHlG6kulUJs6ed54OMP6ONayGcgyZ1Izwklqk9UJGouHlMqOM5pgDskaBk7Zcd
NlF1o/m9zvskS7Eaugi7IEbr8EETXkICzQb4ThXGZ8FzJul3km0NQOspL+PgFaeZ
/ed1MPLmH51gP83lkSXhdesGDQYOfLe97xSht1gqTKoCfyYGbMFWs5EYrhQ8QEvf
7bGgMCF7Njc1uw7UtCc5rdH49j85EgXrJLnBUzvOfAD2sMY0yAbXrHUKu3itx59q
vtFrdO1WqoU0IpTYug/MD9SwXHpaIACndCsdZgmJb8wjIwgvNMnivunlpzwzu3Zm
uzdhRv4h+cOn9BeiAZeMjkhAdrzxnWKRHjYwFkT3KE9TFQWEqkNv7wYi95XpBwi0
awu7inE73NGNoQVJhK5tw1TIy4PgDqD2dl+grQagsb5aaKaSjzJ+ovZk6peVQOqa
w3lEWQzS6uhXO7j+h+Iy/E+PkgaoRrdZnomOFBaJH6f85TAxDeqrMZpoXgsYjlkk
R0F0nK8uhm21ub6dNGq1e4KLmmlSBFOjf7UW1nbVoKz7/0pwtaHMD7VmzMfkJmtl
AgMBAAGjggFjMIIBXzAJBgNVHRMEAjAAMC0GCWCGSAGG+EIBDQQgFh5FYXN5LVJT
QSBHZW5lcmF0ZWQgQ2VydGlmaWNhdGUwHQYDVR0OBBYEFJ2Ku1FlN+q6guj5k/cj
i2yyWi5IMIHhBgNVHSMEgdkwgdaAFBLNYATSoICecO3Gmbh7LMZS/RmhoYGypIGv
MIGsMQswCQYDVQQGEwJVUzELMAkGA1UECBMCT0gxETAPBgNVBAcTCENvbHVtYnVz
MRIwEAYDVQQKEwlWaWtpbmdWUE4xHTAbBgNVBAsTFE15T3JnYW5pemF0aW9uYWxV
bml0MRUwEwYDVQQDEwxWaWtpbmdWUE4gQ0ExEDAOBgNVBCkTB0Vhc3lSU0ExITAf
BgkqhkiG9w0BCQEWEm1lQG15aG9zdC5teWRvbWFpboIJAM81he6Avyo+MBMGA1Ud
JQQMMAoGCCsGAQUFBwMCMAsGA1UdDwQEAwIHgDANBgkqhkiG9w0BAQQFAAOCAgEA
IwEGfKDyMvaCha+2R/uR2xCBo+Yzj/jVhnZqYSNsRP8xip+d6q9p9cns0b7RSgDn
aRO7Xd+Xk9VZ+Uzmpr4zi03PY1xtT9Jkr6AGUrikgT73l9B4IjLCC+CzfXTPfUSU
PxVD8zFD38Jivz7UUpVgOYYppMHKJIwH/9EO4Cy9QileC2RHiGBqEcLZKwZpECrR
29nXKPZXoWpy/ezepPQVgLDNNuOAH5m2DV9WNq1UpMEnaWV22KQzSaENzvIhxnEd
y95a2JLaUdevuPb8l/iRhLlzp09HP4eBWevujFg/UASEvlN5M1YjF3bI7dEcFfUs
2EYJMrYF/sa9u5PvvvXd+Skpnk1WWTbD3zLq5wMfMM5rHapU6JOHPmIjNGhc9BRr
9QLtWPAwPaECC96LJkar31rhvuHnADKxtJM4R6prx3N9INB1osct2KRkhxOfpo9X
LNrUAZDEMoMCOWbueTNfrR4P+WlKEYYh67KCIyozD91pdv7+4cH6h9d0QYCkSeKT
D18zoQSScqiTY60YjRCfHSdpdJ0PkP10/xX2tOlUvIHPEnTcyFZ+K4KLYLwXycmV
SBjcK9zB8JkejthIkFRQgWS3Mbm8Xj9vG7TiQNDqV3veVzjgm+Es2cAV4M/QjZCD
vY92umBYmWbWnSzhw/AMU/jmdSK2Tor+ORNUyNV8gjI=
-----END CERTIFICATE-----
