Certificate:
    Data:
        Version: 3 (0x2)
        Serial Number: 493 (0x1ed)
    Signature Algorithm: md5WithRSAEncryption
        Issuer: C=US, ST=OH, L=Columbus, O=VikingVPN, OU=MyOrganizationalUnit, CN=VikingVPN CA/name=EasyRSA/emailAddress=me@myhost.mydomain
        Validity
            Not Before: Nov 30 18:18:19 2013 GMT
            Not After : Nov 28 18:18:19 2023 GMT
        Subject: CN=Client215Cert7f1d28
        Subject Public Key Info:
            Public Key Algorithm: rsaEncryption
                Public-Key: (4096 bit)
                Modulus:
                    00:93:cb:e2:6e:a5:63:ed:46:68:47:69:56:cf:67:
                    c2:38:a8:40:b1:cc:e5:2c:37:95:24:cf:40:db:1b:
                    4e:de:03:6e:6e:ca:13:ec:2f:43:08:35:16:15:79:
                    17:d6:e7:73:75:d5:32:02:a0:25:d2:13:ce:93:d3:
                    ce:38:3b:9d:ec:4e:c5:08:7a:88:27:88:5d:28:f9:
                    4c:37:f1:27:ac:c2:6c:be:dc:03:21:4f:1d:99:ea:
                    5a:d7:a2:2d:1d:18:8b:6d:08:90:d9:66:97:a5:4d:
                    92:a3:dd:30:31:8f:d4:4c:d2:08:81:38:fb:e8:fd:
                    88:80:40:b9:8b:58:75:97:df:a1:4d:70:7a:c0:0f:
                    c2:eb:89:9e:f7:10:2f:d2:a6:1f:45:40:f5:eb:6d:
                    ef:28:7a:e0:66:20:85:82:f1:31:f5:b3:0d:ae:9b:
                    9c:bd:ad:5f:16:0f:08:f0:d0:bd:68:88:22:ec:53:
                    e9:63:74:53:59:67:28:98:cd:12:15:fa:37:56:0c:
                    35:13:cb:b5:a8:2a:2a:d1:27:54:bc:e7:d1:7b:0e:
                    7e:79:58:8a:c9:94:ca:3d:32:5d:b2:7a:b2:fa:30:
                    cf:73:4c:0a:10:30:2c:18:fa:e0:0a:62:22:87:3e:
                    bb:e4:3c:6e:94:6d:4b:0d:9f:0a:99:23:7a:d1:b4:
                    f3:b7:0e:9e:f6:8b:04:9c:3f:7a:52:e8:98:d1:20:
                    7c:56:2e:90:77:bb:e2:b9:e5:ea:64:b8:11:b6:ad:
                    dc:03:f7:0a:4f:0a:24:53:b2:f4:ab:a1:20:73:c3:
                    6b:f0:ff:ef:3a:51:c7:7e:62:bc:1e:d1:24:73:29:
                    13:18:10:14:81:ae:27:7f:28:24:65:b4:d1:a5:dc:
                    76:5a:11:22:f5:98:cc:03:27:49:76:cc:b3:a4:5a:
                    2d:2a:a5:ae:8e:f6:e6:99:4e:00:99:30:5f:67:fb:
                    5e:02:cc:86:68:d1:59:5e:ef:6b:c1:b8:44:5a:a5:
                    0b:93:57:ba:04:e6:19:a8:09:d3:83:5e:af:74:80:
                    b6:cd:31:17:c2:7a:b6:76:25:ea:7f:f7:63:27:46:
                    41:0b:a9:b3:fd:bb:b5:92:41:04:f0:fe:6f:ef:6f:
                    01:f4:ea:59:c4:e5:a6:c2:46:67:0a:35:4a:53:78:
                    58:1b:13:63:71:e5:90:1f:16:39:87:f5:40:1a:5d:
                    67:30:73:5c:b5:06:cf:cb:63:00:8d:ed:79:63:da:
                    72:8c:40:ea:e7:9c:78:a5:0e:0a:50:63:77:d9:c2:
                    fd:85:f7:a9:95:86:c0:7d:2c:78:8d:d5:ba:f3:b1:
                    62:78:dd:c5:1a:44:31:93:99:03:2f:85:05:8f:ca:
                    ea:24:c1
                Exponent: 65537 (0x10001)
        X509v3 extensions:
            X509v3 Basic Constraints: 
                CA:FALSE
            Netscape Comment: 
                Easy-RSA Generated Certificate
            X509v3 Subject Key Identifier: 
                DD:83:9E:95:64:52:7C:27:74:7E:FF:15:A1:09:86:5F:29:79:26:7A
            X509v3 Authority Key Identifier: 
                keyid:12:CD:60:04:D2:A0:80:9E:70:ED:C6:99:B8:7B:2C:C6:52:FD:19:A1
                DirName:/C=US/ST=OH/L=Columbus/O=VikingVPN/OU=MyOrganizationalUnit/CN=VikingVPN CA/name=EasyRSA/emailAddress=me@myhost.mydomain
                serial:CF:35:85:EE:80:BF:2A:3E

            X509v3 Extended Key Usage: 
                TLS Web Client Authentication
            X509v3 Key Usage: 
                Digital Signature
    Signature Algorithm: md5WithRSAEncryption
         21:e1:42:4d:2e:7f:84:78:be:ae:a5:ef:8d:5a:14:83:fe:74:
         a3:05:c2:06:fe:8d:25:20:8d:66:80:6a:b4:bc:2f:7e:e3:da:
         11:25:0f:10:4a:f0:c9:30:72:da:9e:5e:66:f2:6a:2c:cf:95:
         0f:8b:24:fc:1a:90:6d:85:ad:1f:50:a3:c4:94:70:f2:70:99:
         14:be:35:d7:1c:b5:3b:7f:b5:9f:9c:69:0a:2c:66:d9:9d:6e:
         6a:fd:18:62:15:53:a4:ec:ff:d7:e7:98:72:b4:df:c3:15:ce:
         df:ab:6d:c5:97:1e:01:50:f5:e6:de:51:05:9e:c9:30:8b:e8:
         19:cf:58:9a:b9:d3:96:6a:6d:17:04:f7:36:a1:a0:40:71:5a:
         98:81:45:59:16:58:f3:4e:24:c7:c0:25:75:79:69:63:6f:b5:
         45:5d:b0:d4:8e:a4:c6:49:01:f9:77:bc:6e:34:53:11:d4:79:
         a2:b8:b6:81:eb:80:5f:06:4b:36:5c:59:d7:62:70:9a:fe:16:
         32:f5:65:b6:82:8e:31:d5:e2:94:ac:56:53:27:67:fd:57:75:
         67:ad:1c:64:dd:71:1f:2d:8b:a5:0b:71:15:fa:31:63:bd:c7:
         85:7d:6d:28:07:7c:f3:36:ee:33:fc:9a:6a:d0:e2:e0:45:14:
         3d:fc:8b:6c:49:c4:83:4d:00:13:b1:3d:71:b9:0d:3b:9a:df:
         5d:5f:70:6a:1c:ef:f9:6c:fa:69:e5:da:26:29:6a:15:e5:9d:
         a1:be:ca:98:df:59:50:0f:31:3d:52:f4:ba:59:3f:ed:a0:f2:
         79:d7:df:4c:8c:2d:4a:05:53:06:24:05:e9:4b:49:71:1d:08:
         e3:1f:49:9b:72:c3:cb:4d:6d:e2:be:c3:ad:96:d0:32:9a:4a:
         bd:52:2b:92:0a:4f:a7:5c:d9:98:89:4f:62:32:b9:c2:58:01:
         a4:f6:b7:30:72:d2:28:22:2f:80:96:4e:9a:95:de:60:0c:93:
         9c:54:1a:76:b5:f7:68:ea:4c:98:6c:91:d6:ba:08:50:b9:64:
         f7:5b:6a:68:df:f8:b9:bf:ec:1e:05:c1:50:52:fb:80:e2:39:
         59:2a:38:c6:ce:ad:a9:a2:fa:8d:07:e8:9e:9b:9f:13:8b:f0:
         5d:1a:75:d3:c5:a5:b5:fa:ad:c3:f2:18:0f:c8:7a:7f:18:2c:
         36:fc:ef:be:e5:ab:f6:04:18:ff:69:e5:a2:0e:70:5d:14:f2:
         5b:a5:62:b4:cd:58:08:86:1f:2b:5d:8a:a6:69:25:91:e2:a9:
         e5:79:67:72:5a:b2:18:5b:db:4b:4c:1e:b4:28:66:b3:80:f8:
         00:70:cc:31:37:93:75:09
-----BEGIN CERTIFICATE-----
MIIGrDCCBJSgAwIBAgICAe0wDQYJKoZIhvcNAQEEBQAwgawxCzAJBgNVBAYTAlVT
MQswCQYDVQQIEwJPSDERMA8GA1UEBxMIQ29sdW1idXMxEjAQBgNVBAoTCVZpa2lu
Z1ZQTjEdMBsGA1UECxMUTXlPcmdhbml6YXRpb25hbFVuaXQxFTATBgNVBAMTDFZp
a2luZ1ZQTiBDQTEQMA4GA1UEKRMHRWFzeVJTQTEhMB8GCSqGSIb3DQEJARYSbWVA
bXlob3N0Lm15ZG9tYWluMB4XDTEzMTEzMDE4MTgxOVoXDTIzMTEyODE4MTgxOVow
HjEcMBoGA1UEAxMTQ2xpZW50MjE1Q2VydDdmMWQyODCCAiIwDQYJKoZIhvcNAQEB
BQADggIPADCCAgoCggIBAJPL4m6lY+1GaEdpVs9nwjioQLHM5Sw3lSTPQNsbTt4D
bm7KE+wvQwg1FhV5F9bnc3XVMgKgJdITzpPTzjg7nexOxQh6iCeIXSj5TDfxJ6zC
bL7cAyFPHZnqWteiLR0Yi20IkNlml6VNkqPdMDGP1EzSCIE4++j9iIBAuYtYdZff
oU1wesAPwuuJnvcQL9KmH0VA9ett7yh64GYghYLxMfWzDa6bnL2tXxYPCPDQvWiI
IuxT6WN0U1lnKJjNEhX6N1YMNRPLtagqKtEnVLzn0XsOfnlYismUyj0yXbJ6svow
z3NMChAwLBj64ApiIoc+u+Q8bpRtSw2fCpkjetG087cOnvaLBJw/elLomNEgfFYu
kHe74rnl6mS4Ebat3AP3Ck8KJFOy9KuhIHPDa/D/7zpRx35ivB7RJHMpExgQFIGu
J38oJGW00aXcdloRIvWYzAMnSXbMs6RaLSqlro725plOAJkwX2f7XgLMhmjRWV7v
a8G4RFqlC5NXugTmGagJ04Ner3SAts0xF8J6tnYl6n/3YydGQQups/27tZJBBPD+
b+9vAfTqWcTlpsJGZwo1SlN4WBsTY3HlkB8WOYf1QBpdZzBzXLUGz8tjAI3teWPa
coxA6ueceKUOClBjd9nC/YX3qZWGwH0seI3VuvOxYnjdxRpEMZOZAy+FBY/K6iTB
AgMBAAGjggFjMIIBXzAJBgNVHRMEAjAAMC0GCWCGSAGG+EIBDQQgFh5FYXN5LVJT
QSBHZW5lcmF0ZWQgQ2VydGlmaWNhdGUwHQYDVR0OBBYEFN2DnpVkUnwndH7/FaEJ
hl8peSZ6MIHhBgNVHSMEgdkwgdaAFBLNYATSoICecO3Gmbh7LMZS/RmhoYGypIGv
MIGsMQswCQYDVQQGEwJVUzELMAkGA1UECBMCT0gxETAPBgNVBAcTCENvbHVtYnVz
MRIwEAYDVQQKEwlWaWtpbmdWUE4xHTAbBgNVBAsTFE15T3JnYW5pemF0aW9uYWxV
bml0MRUwEwYDVQQDEwxWaWtpbmdWUE4gQ0ExEDAOBgNVBCkTB0Vhc3lSU0ExITAf
BgkqhkiG9w0BCQEWEm1lQG15aG9zdC5teWRvbWFpboIJAM81he6Avyo+MBMGA1Ud
JQQMMAoGCCsGAQUFBwMCMAsGA1UdDwQEAwIHgDANBgkqhkiG9w0BAQQFAAOCAgEA
IeFCTS5/hHi+rqXvjVoUg/50owXCBv6NJSCNZoBqtLwvfuPaESUPEErwyTBy2p5e
ZvJqLM+VD4sk/BqQbYWtH1CjxJRw8nCZFL411xy1O3+1n5xpCixm2Z1uav0YYhVT
pOz/1+eYcrTfwxXO36ttxZceAVD15t5RBZ7JMIvoGc9YmrnTlmptFwT3NqGgQHFa
mIFFWRZY804kx8AldXlpY2+1RV2w1I6kxkkB+Xe8bjRTEdR5ori2geuAXwZLNlxZ
12Jwmv4WMvVltoKOMdXilKxWUydn/Vd1Z60cZN1xHy2LpQtxFfoxY73HhX1tKAd8
8zbuM/yaatDi4EUUPfyLbEnEg00AE7E9cbkNO5rfXV9wahzv+Wz6aeXaJilqFeWd
ob7KmN9ZUA8xPVL0ulk/7aDyedffTIwtSgVTBiQF6UtJcR0I4x9Jm3LDy01t4r7D
rZbQMppKvVIrkgpPp1zZmIlPYjK5wlgBpPa3MHLSKCIvgJZOmpXeYAyTnFQadrX3
aOpMmGyR1roIULlk91tqaN/4ub/sHgXBUFL7gOI5WSo4xs6tqaL6jQfonpufE4vw
XRp108Wltfqtw/IYD8h6fxgsNvzvvuWr9gQY/2nlog5wXRTyW6VitM1YCIYfK12K
pmklkeKp5XlnclqyGFvbS0wetChms4D4AHDMMTeTdQk=
-----END CERTIFICATE-----
