Certificate:
    Data:
        Version: 3 (0x2)
        Serial Number: 500 (0x1f4)
    Signature Algorithm: md5WithRSAEncryption
        Issuer: C=US, ST=OH, L=Columbus, O=VikingVPN, OU=MyOrganizationalUnit, CN=VikingVPN CA/name=EasyRSA/emailAddress=me@myhost.mydomain
        Validity
            Not Before: Dec  1 22:32:06 2013 GMT
            Not After : Nov 29 22:32:06 2023 GMT
        Subject: CN=Client152Cert58b0de
        Subject Public Key Info:
            Public Key Algorithm: rsaEncryption
                Public-Key: (4096 bit)
                Modulus:
                    00:a2:71:3a:0b:ae:70:6b:0a:d0:20:01:27:23:52:
                    c7:bd:4b:68:57:f6:ae:87:4a:30:06:23:e9:54:a2:
                    61:59:12:1c:c3:d5:2d:04:c7:3c:65:e9:04:c6:83:
                    c9:da:2a:ec:4e:ae:ef:10:4e:c4:97:dd:c1:51:70:
                    6f:b2:08:4c:d1:f9:67:6c:1c:50:b8:7b:91:ed:5f:
                    07:26:43:c6:24:9b:fd:00:f2:c0:ee:3e:77:74:2f:
                    15:8e:80:15:d8:58:1b:fa:b2:14:04:8c:2d:53:72:
                    22:f8:85:f6:0d:ed:34:4f:a6:09:cd:c5:f7:57:70:
                    34:08:43:13:92:b1:52:d7:a9:08:74:19:de:de:9c:
                    2f:4c:e4:12:b0:46:d5:7e:41:26:8e:d8:56:36:04:
                    ca:7f:67:27:b9:6a:27:d1:1f:65:c4:d1:e6:e9:44:
                    51:2b:e2:ee:a3:58:c7:d9:b5:94:8c:c0:71:20:29:
                    5c:ae:d0:76:2b:8a:ec:5b:64:ac:af:61:8e:de:d2:
                    32:c0:6c:93:65:b1:b7:6d:d3:81:e4:1c:ff:5c:2b:
                    ea:c4:c4:61:a7:f0:b8:cc:df:53:6a:2e:32:c3:9d:
                    ae:37:c5:03:7a:00:59:d0:25:0e:c0:33:8c:8d:76:
                    19:d7:83:db:56:a8:ad:eb:85:89:54:60:05:d6:ea:
                    24:04:25:d8:34:4e:79:86:b0:1e:8e:c6:0c:a0:d5:
                    5e:b6:c0:85:cd:4b:61:bd:5c:97:3d:40:7a:b6:51:
                    a4:70:83:0f:f4:03:31:66:1a:79:9c:0b:ce:fa:91:
                    74:27:2a:ac:53:38:b1:95:54:38:ac:aa:67:ab:8f:
                    7e:10:70:34:b7:24:ae:bd:f3:ba:e8:9f:e1:58:48:
                    95:53:c9:4a:24:12:89:c2:9e:39:40:fc:82:fe:a8:
                    8d:d7:9d:e1:5b:6e:a2:61:d4:51:a8:b9:b7:0d:bf:
                    01:8a:5f:df:04:12:f1:c9:08:34:6d:3f:65:f4:34:
                    bc:ff:d6:a8:57:f0:72:5f:f9:be:67:3c:58:f2:b8:
                    de:20:5b:06:41:72:aa:be:ba:72:2f:30:8d:0a:5f:
                    cd:f9:b9:c2:13:0b:12:bc:a9:f9:ab:78:ed:d7:46:
                    5c:84:9f:a9:ae:56:3e:43:d9:58:af:ba:c1:47:ed:
                    cd:2e:8e:2d:5b:75:eb:37:7a:f2:25:5f:f2:e6:53:
                    d1:83:04:bf:94:2b:27:11:40:60:b4:3a:30:72:a8:
                    78:b8:d4:ba:51:07:63:85:71:59:75:95:4b:aa:32:
                    06:5c:55:1f:1a:a1:4e:49:23:db:2f:3b:0a:2c:41:
                    80:19:ef:e1:20:f0:87:67:61:19:5c:7d:9d:9e:72:
                    2d:d9:a5
                Exponent: 65537 (0x10001)
        X509v3 extensions:
            X509v3 Basic Constraints: 
                CA:FALSE
            Netscape Comment: 
                Easy-RSA Generated Certificate
            X509v3 Subject Key Identifier: 
                80:3A:78:13:9F:00:6E:96:2E:C7:CC:FB:5C:90:14:B9:21:AF:20:8F
            X509v3 Authority Key Identifier: 
                keyid:12:CD:60:04:D2:A0:80:9E:70:ED:C6:99:B8:7B:2C:C6:52:FD:19:A1
                DirName:/C=US/ST=OH/L=Columbus/O=VikingVPN/OU=MyOrganizationalUnit/CN=VikingVPN CA/name=EasyRSA/emailAddress=me@myhost.mydomain
                serial:CF:35:85:EE:80:BF:2A:3E

            X509v3 Extended Key Usage: 
                TLS Web Client Authentication
            X509v3 Key Usage: 
                Digital Signature
    Signature Algorithm: md5WithRSAEncryption
         b0:2c:3f:87:c1:83:97:9f:e2:71:d5:0f:86:0e:ec:ec:a2:1d:
         bf:bc:c0:12:23:8c:fb:eb:0c:d8:54:19:92:07:4e:a2:51:38:
         b6:a3:a0:90:de:1c:c0:e6:d7:e5:7b:3c:6a:33:ef:87:aa:ed:
         88:c6:ee:ab:44:16:1d:6b:b8:75:e1:89:de:ec:f8:4d:14:17:
         a0:21:3d:72:88:44:60:ac:bd:92:19:1e:71:36:0d:3b:77:0c:
         96:a4:d0:48:2f:bb:64:1b:1d:e8:ea:71:b0:4a:9c:ef:99:24:
         8f:50:54:b9:12:41:14:63:ee:0c:54:8a:33:54:62:35:00:6a:
         be:55:c9:79:62:94:a7:33:d2:68:fa:91:23:65:82:6a:bd:29:
         32:a3:87:a5:e8:12:c5:9a:bd:49:97:95:25:3a:09:7a:7d:cd:
         bd:24:5e:11:22:6b:c9:c9:13:30:ac:67:33:28:ef:3d:f5:07:
         f7:8e:63:86:4c:38:af:44:25:bc:b1:2f:a3:8e:e5:30:57:03:
         b7:2e:34:ea:7c:3b:78:65:51:f1:5b:77:d5:8c:15:3e:8f:89:
         00:2f:62:43:f2:82:c5:24:bf:8e:60:30:f6:3e:f4:ea:69:df:
         e8:fc:a8:5f:57:fa:bb:1d:ec:97:8f:d3:ab:dd:4c:fc:f4:7c:
         29:3f:d6:63:75:0b:d8:da:f8:bb:29:47:de:03:3b:37:cc:64:
         5a:95:44:e8:4b:8e:3f:2e:89:1a:b3:4a:6c:84:4b:9e:70:60:
         db:4c:aa:62:e9:a2:61:b3:85:13:f2:97:bc:a8:a6:a7:32:01:
         c9:40:f4:0f:3d:ab:c5:cb:c0:22:68:55:4d:55:05:cf:cc:a2:
         8a:e3:38:0a:c4:a5:9e:51:3e:31:96:11:07:2f:fe:e7:9c:d7:
         88:83:e1:13:f0:53:20:b3:1f:7e:4b:c7:a0:2c:82:74:dd:71:
         cb:ec:da:cc:af:7c:16:9d:5a:22:1a:d2:5d:2d:c0:01:0e:2d:
         3e:ed:15:8d:bc:51:88:cb:09:81:5f:18:0a:82:3f:cf:4f:64:
         ab:26:41:63:7a:c6:3f:3a:de:71:60:45:d1:8f:7c:74:b3:03:
         52:4c:da:65:1a:52:74:00:19:dd:b6:65:39:cd:8c:17:46:a4:
         d7:d7:00:02:4d:3e:df:ed:02:02:75:3e:46:d3:ba:0e:23:0f:
         43:ed:e9:cc:c7:41:56:5d:77:66:bf:44:82:84:6c:a2:65:da:
         22:ea:96:f9:ee:c5:d7:32:f2:a7:dc:50:66:1d:e8:85:1a:33:
         34:4d:3f:87:e8:6c:5f:fb:1b:b5:f3:ed:11:be:4a:f0:67:2d:
         cc:5f:b9:4c:7a:61:22:2a
-----BEGIN CERTIFICATE-----
MIIGrDCCBJSgAwIBAgICAfQwDQYJKoZIhvcNAQEEBQAwgawxCzAJBgNVBAYTAlVT
MQswCQYDVQQIEwJPSDERMA8GA1UEBxMIQ29sdW1idXMxEjAQBgNVBAoTCVZpa2lu
Z1ZQTjEdMBsGA1UECxMUTXlPcmdhbml6YXRpb25hbFVuaXQxFTATBgNVBAMTDFZp
a2luZ1ZQTiBDQTEQMA4GA1UEKRMHRWFzeVJTQTEhMB8GCSqGSIb3DQEJARYSbWVA
bXlob3N0Lm15ZG9tYWluMB4XDTEzMTIwMTIyMzIwNloXDTIzMTEyOTIyMzIwNlow
HjEcMBoGA1UEAxMTQ2xpZW50MTUyQ2VydDU4YjBkZTCCAiIwDQYJKoZIhvcNAQEB
BQADggIPADCCAgoCggIBAKJxOguucGsK0CABJyNSx71LaFf2rodKMAYj6VSiYVkS
HMPVLQTHPGXpBMaDydoq7E6u7xBOxJfdwVFwb7IITNH5Z2wcULh7ke1fByZDxiSb
/QDywO4+d3QvFY6AFdhYG/qyFASMLVNyIviF9g3tNE+mCc3F91dwNAhDE5KxUtep
CHQZ3t6cL0zkErBG1X5BJo7YVjYEyn9nJ7lqJ9EfZcTR5ulEUSvi7qNYx9m1lIzA
cSApXK7QdiuK7FtkrK9hjt7SMsBsk2Wxt23TgeQc/1wr6sTEYafwuMzfU2ouMsOd
rjfFA3oAWdAlDsAzjI12GdeD21aoreuFiVRgBdbqJAQl2DROeYawHo7GDKDVXrbA
hc1LYb1clz1AerZRpHCDD/QDMWYaeZwLzvqRdCcqrFM4sZVUOKyqZ6uPfhBwNLck
rr3zuuif4VhIlVPJSiQSicKeOUD8gv6ojded4VtuomHUUai5tw2/AYpf3wQS8ckI
NG0/ZfQ0vP/WqFfwcl/5vmc8WPK43iBbBkFyqr66ci8wjQpfzfm5whMLEryp+at4
7ddGXISfqa5WPkPZWK+6wUftzS6OLVt16zd68iVf8uZT0YMEv5QrJxFAYLQ6MHKo
eLjUulEHY4VxWXWVS6oyBlxVHxqhTkkj2y87CixBgBnv4SDwh2dhGVx9nZ5yLdml
AgMBAAGjggFjMIIBXzAJBgNVHRMEAjAAMC0GCWCGSAGG+EIBDQQgFh5FYXN5LVJT
QSBHZW5lcmF0ZWQgQ2VydGlmaWNhdGUwHQYDVR0OBBYEFIA6eBOfAG6WLsfM+1yQ
FLkhryCPMIHhBgNVHSMEgdkwgdaAFBLNYATSoICecO3Gmbh7LMZS/RmhoYGypIGv
MIGsMQswCQYDVQQGEwJVUzELMAkGA1UECBMCT0gxETAPBgNVBAcTCENvbHVtYnVz
MRIwEAYDVQQKEwlWaWtpbmdWUE4xHTAbBgNVBAsTFE15T3JnYW5pemF0aW9uYWxV
bml0MRUwEwYDVQQDEwxWaWtpbmdWUE4gQ0ExEDAOBgNVBCkTB0Vhc3lSU0ExITAf
BgkqhkiG9w0BCQEWEm1lQG15aG9zdC5teWRvbWFpboIJAM81he6Avyo+MBMGA1Ud
JQQMMAoGCCsGAQUFBwMCMAsGA1UdDwQEAwIHgDANBgkqhkiG9w0BAQQFAAOCAgEA
sCw/h8GDl5/icdUPhg7s7KIdv7zAEiOM++sM2FQZkgdOolE4tqOgkN4cwObX5Xs8
ajPvh6rtiMbuq0QWHWu4deGJ3uz4TRQXoCE9cohEYKy9khkecTYNO3cMlqTQSC+7
ZBsd6OpxsEqc75kkj1BUuRJBFGPuDFSKM1RiNQBqvlXJeWKUpzPSaPqRI2WCar0p
MqOHpegSxZq9SZeVJToJen3NvSReESJryckTMKxnMyjvPfUH945jhkw4r0QlvLEv
o47lMFcDty406nw7eGVR8Vt31YwVPo+JAC9iQ/KCxSS/jmAw9j706mnf6PyoX1f6
ux3sl4/Tq91M/PR8KT/WY3UL2Nr4uylH3gM7N8xkWpVE6EuOPy6JGrNKbIRLnnBg
20yqYumiYbOFE/KXvKimpzIByUD0Dz2rxcvAImhVTVUFz8yiiuM4CsSlnlE+MZYR
By/+55zXiIPhE/BTILMffkvHoCyCdN1xy+zazK98Fp1aIhrSXS3AAQ4tPu0VjbxR
iMsJgV8YCoI/z09kqyZBY3rGPzrecWBF0Y98dLMDUkzaZRpSdAAZ3bZlOc2MF0ak
19cAAk0+3+0CAnU+RtO6DiMPQ+3pzMdBVl13Zr9EgoRsomXaIuqW+e7F1zLyp9xQ
Zh3ohRozNE0/h+hsX/sbtfPtEb5K8GctzF+5THphIio=
-----END CERTIFICATE-----
