Certificate:
    Data:
        Version: 3 (0x2)
        Serial Number: 533 (0x215)
    Signature Algorithm: md5WithRSAEncryption
        Issuer: C=US, ST=OH, L=Columbus, O=VikingVPN, OU=MyOrganizationalUnit, CN=VikingVPN CA/name=EasyRSA/emailAddress=me@myhost.mydomain
        Validity
            Not Before: Dec  6 09:17:56 2013 GMT
            Not After : Dec  4 09:17:56 2023 GMT
        Subject: CN=Client221Cert8571e8
        Subject Public Key Info:
            Public Key Algorithm: rsaEncryption
                Public-Key: (4096 bit)
                Modulus:
                    00:af:a6:8d:9b:d5:1f:77:5a:ed:e4:bd:2c:cc:55:
                    ef:68:d8:08:c9:c2:48:be:a0:1f:ad:15:0c:84:16:
                    13:db:e0:fb:5a:ff:e0:e4:f8:44:4d:44:0a:b5:e7:
                    66:c0:81:40:a7:47:87:33:c9:6c:1a:b4:8a:3c:3e:
                    37:3b:12:29:c7:99:65:d6:77:be:0b:ec:47:7e:56:
                    0b:c8:27:8f:5a:a0:70:72:b6:cc:e2:0d:84:7b:f9:
                    a5:66:90:ba:b9:ae:e0:ca:d2:85:2d:60:fe:c6:0d:
                    98:73:ff:7c:ff:ee:3a:22:a5:aa:6c:0a:f2:ee:4f:
                    02:39:4a:b6:53:54:f5:50:85:d7:e2:72:ab:29:20:
                    57:2b:0f:c3:8f:7a:b3:8d:63:67:aa:9d:9f:fb:bf:
                    bf:5c:03:0f:36:40:62:2b:f5:6c:43:2e:4b:1e:d3:
                    53:87:c2:50:3e:5c:3c:c5:81:72:b9:22:28:3c:3d:
                    2d:46:84:63:10:82:1c:39:bc:5e:4d:6c:3b:33:f1:
                    2f:35:77:1c:9b:3c:08:57:f6:12:ee:23:ba:c8:df:
                    d2:8e:84:21:ec:0f:99:b0:5b:0a:0c:00:b7:43:d3:
                    12:03:26:60:ae:4d:9d:8f:c1:eb:c9:cf:4a:c7:d9:
                    04:75:5b:e8:5d:40:3f:40:c9:a0:ff:84:bb:d0:a2:
                    e5:4e:70:07:b6:a2:67:05:71:f6:3f:71:d2:98:18:
                    17:9c:5f:17:7d:85:80:1a:61:bf:aa:f9:9e:5e:61:
                    54:50:73:8c:53:4b:36:b9:06:75:03:b2:ae:c8:2e:
                    4a:38:b7:cd:f7:3f:cf:63:bd:db:96:57:b6:d0:35:
                    7b:40:b1:e6:03:0d:4e:92:57:fb:a0:47:7f:f3:ed:
                    19:ec:5c:9a:7f:95:31:f3:da:b5:84:65:90:21:df:
                    6b:f1:ea:85:e8:ed:9e:f6:cd:35:e5:0a:a8:37:c0:
                    fe:58:25:54:e1:6f:22:53:9f:11:1a:f3:d8:e5:55:
                    92:02:6c:a8:a9:e0:6c:6d:2e:8f:94:91:a8:66:70:
                    f5:f2:f7:63:ab:ea:f5:4f:22:f7:ce:20:1d:6b:f7:
                    16:1b:0b:17:03:f3:96:d9:05:f9:ea:47:ba:98:4a:
                    3e:3a:ba:bb:03:99:9c:f2:59:b0:9d:97:06:c6:ec:
                    93:4c:52:13:ae:54:38:c2:7e:41:46:bb:57:9f:c7:
                    9d:ef:92:ad:7b:81:08:47:7b:9b:63:01:7c:18:d8:
                    20:ef:65:24:d2:a7:02:29:e6:11:db:fa:03:81:cb:
                    40:c9:53:09:15:f7:32:95:43:9f:62:99:81:e9:99:
                    c8:22:b6:33:9d:49:aa:c0:ba:7e:23:5a:ce:ac:5f:
                    71:a2:81
                Exponent: 65537 (0x10001)
        X509v3 extensions:
            X509v3 Basic Constraints: 
                CA:FALSE
            Netscape Comment: 
                Easy-RSA Generated Certificate
            X509v3 Subject Key Identifier: 
                9F:0A:94:4C:EE:63:50:BA:65:20:5E:93:F0:9A:1D:B4:A8:4F:6D:9E
            X509v3 Authority Key Identifier: 
                keyid:12:CD:60:04:D2:A0:80:9E:70:ED:C6:99:B8:7B:2C:C6:52:FD:19:A1
                DirName:/C=US/ST=OH/L=Columbus/O=VikingVPN/OU=MyOrganizationalUnit/CN=VikingVPN CA/name=EasyRSA/emailAddress=me@myhost.mydomain
                serial:CF:35:85:EE:80:BF:2A:3E

            X509v3 Extended Key Usage: 
                TLS Web Client Authentication
            X509v3 Key Usage: 
                Digital Signature
    Signature Algorithm: md5WithRSAEncryption
         44:3b:7e:c9:49:3d:15:8d:7f:26:f5:14:2b:5b:df:75:47:26:
         8d:b8:c9:99:f7:f8:8b:0f:d5:36:c8:c0:d9:5d:e8:f2:c2:23:
         c8:46:bc:6b:55:ad:41:52:50:a3:43:00:d7:1a:42:cd:6f:d1:
         dd:70:f4:ec:28:76:d6:dc:2b:19:cc:cc:ec:12:28:09:7e:02:
         cb:d8:25:d2:a4:20:71:df:2b:c6:db:ee:09:10:3c:95:d8:e3:
         18:85:e9:ee:5f:e3:e4:05:6c:32:0b:4b:80:11:42:86:3f:6e:
         bd:61:4c:51:23:eb:ba:63:7b:5d:9c:d4:31:a6:19:d2:7d:0d:
         3c:ee:69:a1:56:1d:78:ae:f7:92:2e:5f:2a:49:b0:33:f2:f1:
         9e:9b:dc:2d:9e:62:09:f5:37:f2:fb:a3:21:00:b9:3f:0e:a0:
         02:b9:52:63:7a:bd:5e:a5:a7:c0:43:a3:d6:85:b5:52:fd:f8:
         18:53:3d:fb:84:6a:47:b7:75:ba:49:4e:0b:d0:73:59:02:52:
         a1:3b:51:dc:ec:59:8b:c6:1e:89:3f:9c:ff:b0:4a:e2:7c:5b:
         0e:ce:59:80:6a:cf:e9:ee:47:21:ac:73:09:96:7b:85:d2:91:
         7b:2f:c1:2f:c5:9a:7b:2f:4d:5b:1f:3e:fc:fa:21:f5:f1:67:
         8e:1c:3d:3d:2f:f4:c3:a1:ae:90:c8:18:9a:9b:90:22:be:0a:
         26:de:e7:69:93:a4:fd:31:71:60:f2:84:41:c7:c0:9d:9a:02:
         e6:20:4a:27:f6:4c:ca:77:05:9f:7e:68:e1:d6:83:64:b9:62:
         23:f2:ab:6d:75:56:4d:96:c9:71:4e:e5:9a:36:21:55:2f:7a:
         7a:3d:af:48:f4:9e:77:60:72:b7:fa:62:b8:82:94:5e:ad:ae:
         f2:48:4b:f0:35:99:a0:4e:7f:1b:45:bd:af:b1:a4:a9:58:3d:
         3d:5b:fe:9c:29:80:cd:a8:31:37:5b:e7:01:78:6b:56:27:76:
         0b:1f:74:a1:11:86:a9:3e:61:6f:a0:fa:08:08:5c:58:02:35:
         29:69:ae:32:d5:96:58:5f:27:f9:5f:19:3a:17:3f:c3:29:90:
         ea:b7:b7:69:94:4d:e1:3c:22:7c:1c:c7:a1:5c:dd:1b:55:19:
         8d:00:df:46:37:d8:48:c0:14:34:04:3b:87:95:e9:5e:23:a0:
         ef:86:ff:62:b5:4c:84:4e:5b:53:e9:70:65:8b:30:25:66:4b:
         85:22:c5:47:91:40:32:81:a6:64:02:85:e6:4a:19:b7:d2:63:
         f5:49:85:47:25:4d:5b:01:9b:db:48:8a:5d:d2:ec:c0:d0:80:
         00:d3:40:5a:7f:fc:15:10
-----BEGIN CERTIFICATE-----
MIIGrDCCBJSgAwIBAgICAhUwDQYJKoZIhvcNAQEEBQAwgawxCzAJBgNVBAYTAlVT
MQswCQYDVQQIEwJPSDERMA8GA1UEBxMIQ29sdW1idXMxEjAQBgNVBAoTCVZpa2lu
Z1ZQTjEdMBsGA1UECxMUTXlPcmdhbml6YXRpb25hbFVuaXQxFTATBgNVBAMTDFZp
a2luZ1ZQTiBDQTEQMA4GA1UEKRMHRWFzeVJTQTEhMB8GCSqGSIb3DQEJARYSbWVA
bXlob3N0Lm15ZG9tYWluMB4XDTEzMTIwNjA5MTc1NloXDTIzMTIwNDA5MTc1Nlow
HjEcMBoGA1UEAxMTQ2xpZW50MjIxQ2VydDg1NzFlODCCAiIwDQYJKoZIhvcNAQEB
BQADggIPADCCAgoCggIBAK+mjZvVH3da7eS9LMxV72jYCMnCSL6gH60VDIQWE9vg
+1r/4OT4RE1ECrXnZsCBQKdHhzPJbBq0ijw+NzsSKceZZdZ3vgvsR35WC8gnj1qg
cHK2zOINhHv5pWaQurmu4MrShS1g/sYNmHP/fP/uOiKlqmwK8u5PAjlKtlNU9VCF
1+JyqykgVysPw496s41jZ6qdn/u/v1wDDzZAYiv1bEMuSx7TU4fCUD5cPMWBcrki
KDw9LUaEYxCCHDm8Xk1sOzPxLzV3HJs8CFf2Eu4jusjf0o6EIewPmbBbCgwAt0PT
EgMmYK5NnY/B68nPSsfZBHVb6F1AP0DJoP+Eu9Ci5U5wB7aiZwVx9j9x0pgYF5xf
F32FgBphv6r5nl5hVFBzjFNLNrkGdQOyrsguSji3zfc/z2O925ZXttA1e0Cx5gMN
TpJX+6BHf/PtGexcmn+VMfPatYRlkCHfa/HqhejtnvbNNeUKqDfA/lglVOFvIlOf
ERrz2OVVkgJsqKngbG0uj5SRqGZw9fL3Y6vq9U8i984gHWv3FhsLFwPzltkF+epH
uphKPjq6uwOZnPJZsJ2XBsbsk0xSE65UOMJ+QUa7V5/Hne+SrXuBCEd7m2MBfBjY
IO9lJNKnAinmEdv6A4HLQMlTCRX3MpVDn2KZgemZyCK2M51JqsC6fiNazqxfcaKB
AgMBAAGjggFjMIIBXzAJBgNVHRMEAjAAMC0GCWCGSAGG+EIBDQQgFh5FYXN5LVJT
QSBHZW5lcmF0ZWQgQ2VydGlmaWNhdGUwHQYDVR0OBBYEFJ8KlEzuY1C6ZSBek/Ca
HbSoT22eMIHhBgNVHSMEgdkwgdaAFBLNYATSoICecO3Gmbh7LMZS/RmhoYGypIGv
MIGsMQswCQYDVQQGEwJVUzELMAkGA1UECBMCT0gxETAPBgNVBAcTCENvbHVtYnVz
MRIwEAYDVQQKEwlWaWtpbmdWUE4xHTAbBgNVBAsTFE15T3JnYW5pemF0aW9uYWxV
bml0MRUwEwYDVQQDEwxWaWtpbmdWUE4gQ0ExEDAOBgNVBCkTB0Vhc3lSU0ExITAf
BgkqhkiG9w0BCQEWEm1lQG15aG9zdC5teWRvbWFpboIJAM81he6Avyo+MBMGA1Ud
JQQMMAoGCCsGAQUFBwMCMAsGA1UdDwQEAwIHgDANBgkqhkiG9w0BAQQFAAOCAgEA
RDt+yUk9FY1/JvUUK1vfdUcmjbjJmff4iw/VNsjA2V3o8sIjyEa8a1WtQVJQo0MA
1xpCzW/R3XD07Ch21twrGczM7BIoCX4Cy9gl0qQgcd8rxtvuCRA8ldjjGIXp7l/j
5AVsMgtLgBFChj9uvWFMUSPrumN7XZzUMaYZ0n0NPO5poVYdeK73ki5fKkmwM/Lx
npvcLZ5iCfU38vujIQC5Pw6gArlSY3q9XqWnwEOj1oW1Uv34GFM9+4RqR7d1uklO
C9BzWQJSoTtR3OxZi8YeiT+c/7BK4nxbDs5ZgGrP6e5HIaxzCZZ7hdKRey/BL8Wa
ey9NWx8+/Poh9fFnjhw9PS/0w6GukMgYmpuQIr4KJt7naZOk/TFxYPKEQcfAnZoC
5iBKJ/ZMyncFn35o4daDZLliI/KrbXVWTZbJcU7lmjYhVS96ej2vSPSed2Byt/pi
uIKUXq2u8khL8DWZoE5/G0W9r7GkqVg9PVv+nCmAzagxN1vnAXhrVid2Cx90oRGG
qT5hb6D6CAhcWAI1KWmuMtWWWF8n+V8ZOhc/wymQ6re3aZRN4TwifBzHoVzdG1UZ
jQDfRjfYSMAUNAQ7h5XpXiOg74b/YrVMhE5bU+lwZYswJWZLhSLFR5FAMoGmZAKF
5koZt9Jj9UmFRyVNWwGb20iKXdLswNCAANNAWn/8FRA=
-----END CERTIFICATE-----
