Certificate:
    Data:
        Version: 3 (0x2)
        Serial Number: 546 (0x222)
    Signature Algorithm: md5WithRSAEncryption
        Issuer: C=US, ST=OH, L=Columbus, O=VikingVPN, OU=MyOrganizationalUnit, CN=VikingVPN CA/name=EasyRSA/emailAddress=me@myhost.mydomain
        Validity
            Not Before: Dec 10 18:39:21 2013 GMT
            Not After : Dec  8 18:39:21 2023 GMT
        Subject: CN=Client226Cert474a57
        Subject Public Key Info:
            Public Key Algorithm: rsaEncryption
                Public-Key: (4096 bit)
                Modulus:
                    00:db:eb:a6:7e:a1:ce:72:cc:8e:dc:88:46:e1:39:
                    8e:74:4e:33:20:a8:00:6f:7b:7d:7d:c7:67:4f:2d:
                    b3:20:e3:b5:bc:93:fd:e2:95:58:b7:c5:c3:8a:e0:
                    c2:a7:06:b1:31:97:38:dc:8a:4d:3c:72:63:56:ff:
                    39:b4:98:ed:e3:d8:18:96:73:e6:75:a0:c3:5d:74:
                    f9:83:ef:db:b8:d2:78:d1:e3:b3:31:14:28:f1:ce:
                    f7:f3:7a:cc:35:8d:c7:9d:58:48:8e:4c:ac:5a:14:
                    30:66:8b:02:ff:7b:f2:10:e7:82:27:e4:cf:4a:8f:
                    6d:66:f5:93:d3:5f:ec:86:06:ac:6c:cc:29:ef:29:
                    d7:ff:44:96:49:22:87:e9:ad:9e:b3:ed:46:5f:1b:
                    ac:58:be:cc:e1:a5:29:4b:ff:0a:60:4a:c8:31:69:
                    f9:41:aa:aa:d4:d6:a2:70:1f:f7:85:b2:59:65:ae:
                    1a:d8:0b:65:c2:10:93:30:de:1e:fe:f7:ba:47:ae:
                    f6:2f:e6:5d:04:bb:b8:58:b1:18:c1:b7:4a:1c:0b:
                    9b:a7:f5:a1:65:99:f0:cc:ea:01:97:82:2e:85:b6:
                    fd:05:b7:3b:84:95:89:7c:73:b9:c7:de:e0:30:e2:
                    13:fa:ff:53:6f:42:56:ca:83:7f:77:fc:e2:65:4c:
                    d1:77:3e:cb:aa:6d:ce:45:e9:f4:c3:99:63:e9:1f:
                    0c:62:86:6f:30:dc:50:15:4d:c2:30:51:ec:e1:31:
                    30:0a:5c:ac:77:1a:8a:1f:66:3e:b4:6a:ac:11:5e:
                    d9:bf:93:6b:04:6e:f7:ad:74:a1:e6:50:1f:53:39:
                    9f:46:5a:5e:bc:49:95:8e:d6:d8:ce:3a:30:fb:43:
                    ba:ac:33:e0:a8:96:9f:8e:57:4e:1a:7f:2c:3e:cf:
                    50:2b:a8:bc:ff:c5:5e:d6:97:b1:7d:76:12:a6:24:
                    74:b1:e4:5d:e1:df:7c:4b:43:ab:fd:5c:1c:99:40:
                    dc:b3:a2:60:6e:9a:4c:65:c7:34:e8:2e:be:ef:79:
                    4f:52:94:2c:e8:b3:00:d2:12:f4:42:20:71:82:0a:
                    dd:8d:f1:39:77:54:9a:19:5d:d6:fa:fc:73:e1:a0:
                    63:f4:0b:4a:5a:d1:42:f4:d5:63:77:60:e2:8b:d2:
                    0b:c9:b0:05:62:e9:d6:c7:e5:fa:98:11:fb:d1:96:
                    6e:17:a8:65:8b:c6:2a:2a:5d:19:43:6c:5d:0d:74:
                    86:03:ce:12:a3:04:81:1a:38:7e:a0:41:80:a6:b7:
                    5f:be:a7:ee:63:ef:b5:b4:29:d8:32:1e:9e:63:cc:
                    eb:7c:cd:1c:bf:99:5a:71:35:63:21:9e:38:d0:0d:
                    23:1b:51
                Exponent: 65537 (0x10001)
        X509v3 extensions:
            X509v3 Basic Constraints: 
                CA:FALSE
            Netscape Comment: 
                Easy-RSA Generated Certificate
            X509v3 Subject Key Identifier: 
                80:27:0D:E9:B9:3E:94:68:64:20:4C:A5:27:3C:72:D8:BC:6F:50:50
            X509v3 Authority Key Identifier: 
                keyid:12:CD:60:04:D2:A0:80:9E:70:ED:C6:99:B8:7B:2C:C6:52:FD:19:A1
                DirName:/C=US/ST=OH/L=Columbus/O=VikingVPN/OU=MyOrganizationalUnit/CN=VikingVPN CA/name=EasyRSA/emailAddress=me@myhost.mydomain
                serial:CF:35:85:EE:80:BF:2A:3E

            X509v3 Extended Key Usage: 
                TLS Web Client Authentication
            X509v3 Key Usage: 
                Digital Signature
    Signature Algorithm: md5WithRSAEncryption
         b8:82:8c:87:ed:87:b0:2b:54:e5:29:5f:44:bb:d9:0a:0c:30:
         80:ac:1c:c9:ca:2a:74:34:24:b7:0d:32:34:33:6d:56:60:35:
         ef:37:ad:7d:67:4c:74:de:1a:dc:c5:27:15:c4:36:29:9a:d5:
         bd:d9:c8:c1:ca:dc:54:4e:15:39:71:d0:40:e7:b5:02:fb:8a:
         04:53:f5:01:e5:bb:36:fa:dd:a8:94:b3:50:3d:41:5e:4f:61:
         13:a6:83:fc:04:84:ef:af:55:05:87:56:b2:ea:91:2f:48:2f:
         ec:d6:f2:80:21:c4:e1:7b:82:50:2c:41:14:40:f3:23:96:73:
         f1:78:7b:ba:55:00:63:24:58:03:92:39:84:83:bb:df:c8:95:
         01:55:a1:31:c8:ab:dd:7d:b0:41:b9:2a:d0:f7:9d:50:8a:96:
         49:4b:bb:4a:b0:b0:fb:7d:c2:b2:01:e1:9b:0f:4b:3a:01:9a:
         77:47:29:2a:07:27:48:c2:ef:16:83:6a:4e:23:0d:8f:3d:9b:
         14:c7:c4:6e:0a:e7:dc:15:fd:8a:43:df:04:2b:3d:2c:17:c4:
         49:bf:57:e6:95:2a:82:44:6b:fe:46:88:43:da:9d:b3:d9:41:
         8f:d8:ac:e4:4f:cb:1f:b4:e4:96:ba:30:92:0b:8b:22:07:a3:
         50:06:cb:4c:80:79:a8:05:26:c8:eb:76:07:bd:c3:bf:f3:83:
         c3:c5:ee:a0:fd:d2:19:61:07:9f:4b:5c:dd:06:c3:88:58:26:
         a6:17:52:b5:51:ea:45:91:98:ec:a6:d4:6f:37:be:5c:00:61:
         b1:51:11:27:4b:9d:a9:a9:b3:bd:2a:f3:d7:61:32:e9:b7:c9:
         f5:c1:1d:ae:49:54:38:15:b5:76:40:c8:50:30:d0:69:64:40:
         14:23:df:11:5c:8b:20:cf:00:bd:aa:19:10:4b:0e:9c:c0:e3:
         5e:b4:24:03:76:0d:91:f9:36:93:ba:55:22:1d:cc:3f:00:b2:
         eb:78:87:ef:56:47:6e:cd:c9:c6:94:46:98:bb:ea:8d:ba:1a:
         8b:dd:15:dc:f9:9a:8b:f5:d8:58:d7:f2:f4:14:6f:b1:8b:5e:
         89:cf:fc:cc:0d:ee:4e:d5:90:cc:83:40:41:2d:20:55:47:0a:
         3b:93:ff:10:c0:90:f1:1a:94:3e:5b:82:7f:c3:14:b6:fb:ba:
         99:63:5a:0f:d9:44:2c:9c:0f:05:09:43:b9:c6:bc:3f:49:2b:
         e4:3b:59:8c:29:82:c4:fb:28:11:20:b1:ed:57:68:e0:f1:98:
         ad:8b:12:56:99:1a:51:57:b7:8c:8c:3f:e7:cb:9a:fb:ca:a4:
         ab:cd:19:20:6d:3a:e6:0a
-----BEGIN CERTIFICATE-----
MIIGrDCCBJSgAwIBAgICAiIwDQYJKoZIhvcNAQEEBQAwgawxCzAJBgNVBAYTAlVT
MQswCQYDVQQIEwJPSDERMA8GA1UEBxMIQ29sdW1idXMxEjAQBgNVBAoTCVZpa2lu
Z1ZQTjEdMBsGA1UECxMUTXlPcmdhbml6YXRpb25hbFVuaXQxFTATBgNVBAMTDFZp
a2luZ1ZQTiBDQTEQMA4GA1UEKRMHRWFzeVJTQTEhMB8GCSqGSIb3DQEJARYSbWVA
bXlob3N0Lm15ZG9tYWluMB4XDTEzMTIxMDE4MzkyMVoXDTIzMTIwODE4MzkyMVow
HjEcMBoGA1UEAxMTQ2xpZW50MjI2Q2VydDQ3NGE1NzCCAiIwDQYJKoZIhvcNAQEB
BQADggIPADCCAgoCggIBANvrpn6hznLMjtyIRuE5jnROMyCoAG97fX3HZ08tsyDj
tbyT/eKVWLfFw4rgwqcGsTGXONyKTTxyY1b/ObSY7ePYGJZz5nWgw110+YPv27jS
eNHjszEUKPHO9/N6zDWNx51YSI5MrFoUMGaLAv978hDngifkz0qPbWb1k9Nf7IYG
rGzMKe8p1/9Elkkih+mtnrPtRl8brFi+zOGlKUv/CmBKyDFp+UGqqtTWonAf94Wy
WWWuGtgLZcIQkzDeHv73ukeu9i/mXQS7uFixGMG3ShwLm6f1oWWZ8MzqAZeCLoW2
/QW3O4SViXxzucfe4DDiE/r/U29CVsqDf3f84mVM0Xc+y6ptzkXp9MOZY+kfDGKG
bzDcUBVNwjBR7OExMApcrHcaih9mPrRqrBFe2b+TawRu9610oeZQH1M5n0ZaXrxJ
lY7W2M46MPtDuqwz4KiWn45XThp/LD7PUCuovP/FXtaXsX12EqYkdLHkXeHffEtD
q/1cHJlA3LOiYG6aTGXHNOguvu95T1KULOizANIS9EIgcYIK3Y3xOXdUmhld1vr8
c+GgY/QLSlrRQvTVY3dg4ovSC8mwBWLp1sfl+pgR+9GWbheoZYvGKipdGUNsXQ10
hgPOEqMEgRo4fqBBgKa3X76n7mPvtbQp2DIenmPM63zNHL+ZWnE1YyGeONANIxtR
AgMBAAGjggFjMIIBXzAJBgNVHRMEAjAAMC0GCWCGSAGG+EIBDQQgFh5FYXN5LVJT
QSBHZW5lcmF0ZWQgQ2VydGlmaWNhdGUwHQYDVR0OBBYEFIAnDem5PpRoZCBMpSc8
cti8b1BQMIHhBgNVHSMEgdkwgdaAFBLNYATSoICecO3Gmbh7LMZS/RmhoYGypIGv
MIGsMQswCQYDVQQGEwJVUzELMAkGA1UECBMCT0gxETAPBgNVBAcTCENvbHVtYnVz
MRIwEAYDVQQKEwlWaWtpbmdWUE4xHTAbBgNVBAsTFE15T3JnYW5pemF0aW9uYWxV
bml0MRUwEwYDVQQDEwxWaWtpbmdWUE4gQ0ExEDAOBgNVBCkTB0Vhc3lSU0ExITAf
BgkqhkiG9w0BCQEWEm1lQG15aG9zdC5teWRvbWFpboIJAM81he6Avyo+MBMGA1Ud
JQQMMAoGCCsGAQUFBwMCMAsGA1UdDwQEAwIHgDANBgkqhkiG9w0BAQQFAAOCAgEA
uIKMh+2HsCtU5SlfRLvZCgwwgKwcycoqdDQktw0yNDNtVmA17zetfWdMdN4a3MUn
FcQ2KZrVvdnIwcrcVE4VOXHQQOe1AvuKBFP1AeW7NvrdqJSzUD1BXk9hE6aD/ASE
769VBYdWsuqRL0gv7NbygCHE4XuCUCxBFEDzI5Zz8Xh7ulUAYyRYA5I5hIO738iV
AVWhMcir3X2wQbkq0PedUIqWSUu7SrCw+33CsgHhmw9LOgGad0cpKgcnSMLvFoNq
TiMNjz2bFMfEbgrn3BX9ikPfBCs9LBfESb9X5pUqgkRr/kaIQ9qds9lBj9is5E/L
H7TklrowkguLIgejUAbLTIB5qAUmyOt2B73Dv/ODw8XuoP3SGWEHn0tc3QbDiFgm
phdStVHqRZGY7KbUbze+XABhsVERJ0udqamzvSrz12Ey6bfJ9cEdrklUOBW1dkDI
UDDQaWRAFCPfEVyLIM8AvaoZEEsOnMDjXrQkA3YNkfk2k7pVIh3MPwCy63iH71ZH
bs3JxpRGmLvqjboai90V3Pmai/XYWNfy9BRvsYteic/8zA3uTtWQzINAQS0gVUcK
O5P/EMCQ8RqUPluCf8MUtvu6mWNaD9lELJwPBQlDuca8P0kr5DtZjCmCxPsoESCx
7Vdo4PGYrYsSVpkaUVe3jIw/58ua+8qkq80ZIG065go=
-----END CERTIFICATE-----
