Certificate:
    Data:
        Version: 3 (0x2)
        Serial Number: 570 (0x23a)
    Signature Algorithm: md5WithRSAEncryption
        Issuer: C=US, ST=OH, L=Columbus, O=VikingVPN, OU=MyOrganizationalUnit, CN=VikingVPN CA/name=EasyRSA/emailAddress=me@myhost.mydomain
        Validity
            Not Before: Dec 14 23:31:28 2013 GMT
            Not After : Dec 12 23:31:28 2023 GMT
        Subject: CN=Client232Certba233e
        Subject Public Key Info:
            Public Key Algorithm: rsaEncryption
                Public-Key: (4096 bit)
                Modulus:
                    00:eb:b0:54:f5:9f:e8:38:c0:78:92:53:0d:a3:d5:
                    73:ba:58:c1:e4:ba:6d:c3:41:06:73:17:82:01:44:
                    ce:40:23:02:4e:c5:16:cf:43:08:c2:f4:ff:03:f3:
                    b2:65:c9:e4:bb:ff:0b:75:6b:b8:30:0e:83:2d:43:
                    19:ef:1d:50:91:c0:cf:36:f1:93:b7:e6:9b:f7:51:
                    66:88:65:fc:96:3f:13:9d:94:29:ff:f5:86:ec:94:
                    b5:c6:c1:5d:a6:21:cf:ae:65:5e:c7:bc:6c:fb:e8:
                    ec:6a:91:45:cd:9c:d7:08:29:de:45:75:ef:e1:e3:
                    e0:92:84:c6:87:fd:f0:a4:42:4a:3c:94:c4:c3:76:
                    b4:a6:41:29:25:36:5d:f9:12:29:6b:5f:66:f5:22:
                    04:85:87:5a:b8:54:7b:64:3a:e9:5a:a5:47:9f:9a:
                    3c:ad:aa:8d:de:70:c9:d8:c3:b0:ba:50:9c:24:a8:
                    8d:55:90:c4:97:98:0b:cc:4d:17:ea:e9:82:c4:c9:
                    e3:f2:14:f3:83:a3:a7:bb:3e:a0:32:1e:10:68:56:
                    51:eb:bc:e3:07:d3:6c:27:aa:2a:29:19:ed:b5:49:
                    10:b3:0a:f7:5a:01:e1:8d:f5:bc:f2:6c:a6:d6:13:
                    37:d7:7e:a3:bc:f9:ef:57:b8:b0:3d:76:3d:cd:d4:
                    97:86:f6:16:44:56:43:66:3e:04:df:6e:22:95:5c:
                    ad:42:53:a9:2c:7d:08:03:fb:f3:06:b3:e5:0c:79:
                    fb:ff:3d:a2:e2:a6:99:2c:1d:95:3e:9d:9e:24:0d:
                    21:7a:69:0f:80:f8:4d:3e:d0:3e:b8:14:f7:71:0f:
                    f5:be:e6:2c:b3:ca:0e:58:06:a2:2b:5c:af:f4:67:
                    17:6d:f9:c5:7c:d7:aa:61:07:b8:df:7e:33:44:c2:
                    ce:ea:7b:3d:aa:14:28:c7:21:0d:2d:a4:51:7a:25:
                    5d:6f:d1:87:4f:f6:3c:67:5f:21:fa:3d:08:a2:89:
                    15:42:da:1f:48:68:fb:aa:8e:5d:07:7f:29:ab:96:
                    85:2b:54:a1:02:75:00:52:bc:82:75:ad:a2:f5:02:
                    90:e3:86:e3:70:6c:59:a9:c6:d1:f7:d1:d7:e5:2e:
                    d5:3a:0f:83:fc:75:e9:bb:ce:78:6b:54:cc:af:88:
                    84:13:7c:24:05:bf:07:dc:c8:2c:b2:8e:a2:5b:f8:
                    fd:8b:64:08:ea:0f:43:aa:d7:d1:ed:52:bd:a0:d7:
                    49:80:79:5b:ff:24:0a:82:68:f0:0c:b9:26:ea:24:
                    5f:fc:a1:cb:8c:22:ab:92:b1:1e:52:42:3e:68:65:
                    a1:a1:a1:d3:e9:04:a6:e3:6f:f3:5e:87:96:29:b7:
                    bc:73:57
                Exponent: 65537 (0x10001)
        X509v3 extensions:
            X509v3 Basic Constraints: 
                CA:FALSE
            Netscape Comment: 
                Easy-RSA Generated Certificate
            X509v3 Subject Key Identifier: 
                F2:3C:22:DF:9E:19:5F:CC:39:C2:37:9B:67:E3:A2:33:F1:60:A7:46
            X509v3 Authority Key Identifier: 
                keyid:12:CD:60:04:D2:A0:80:9E:70:ED:C6:99:B8:7B:2C:C6:52:FD:19:A1
                DirName:/C=US/ST=OH/L=Columbus/O=VikingVPN/OU=MyOrganizationalUnit/CN=VikingVPN CA/name=EasyRSA/emailAddress=me@myhost.mydomain
                serial:CF:35:85:EE:80:BF:2A:3E

            X509v3 Extended Key Usage: 
                TLS Web Client Authentication
            X509v3 Key Usage: 
                Digital Signature
    Signature Algorithm: md5WithRSAEncryption
         e7:04:57:8c:c8:8d:6f:b5:14:65:28:60:fb:2d:d7:c9:a3:c1:
         2f:da:41:0f:07:43:03:bd:cc:79:a3:3b:e3:86:6f:a1:19:17:
         1c:0a:b9:2c:12:22:44:07:ed:1c:46:1e:9a:be:3a:da:26:1b:
         b3:c7:ca:75:27:8d:38:cc:85:fc:e5:bd:26:a0:b9:ab:59:5f:
         31:cb:1d:58:b0:4f:5f:b2:38:79:81:d5:7e:c2:31:a7:b0:f0:
         99:c1:fb:08:cb:85:d3:7d:ee:fe:d2:ec:a1:8b:96:2e:11:84:
         41:b1:17:c2:2c:1e:66:54:fd:be:02:ed:67:b7:11:d1:ae:67:
         ec:81:b6:7e:c2:6c:06:c8:96:68:a5:59:60:c8:9e:48:fd:42:
         9a:a9:20:15:f3:86:25:c1:2c:b4:21:da:b7:d9:18:97:0c:22:
         84:5a:c6:fb:18:42:99:9d:13:73:d6:af:1d:3c:c8:0e:97:dc:
         0b:c5:b9:69:80:31:53:c8:f0:ab:f7:cd:5e:94:8e:68:d1:3d:
         68:aa:9b:dd:79:c9:a5:b7:8f:aa:5b:8a:1c:98:4b:ce:67:3f:
         f4:11:a8:6d:6b:2a:81:b2:86:49:7d:74:84:ba:08:6f:82:8d:
         89:13:53:83:a4:4e:44:c0:42:f8:f9:89:13:0d:65:59:81:14:
         08:69:d0:c3:5e:24:35:f7:74:df:b7:22:8f:fb:09:b3:0d:fa:
         4c:85:96:3f:d0:cc:21:55:4d:a7:5d:73:23:e1:3c:65:9e:6c:
         be:05:c6:10:2b:95:c2:8b:5e:a8:3f:fa:57:76:dd:39:e2:72:
         76:6f:67:14:d4:21:c2:e8:7b:49:6a:e8:e8:50:c8:04:c0:76:
         51:31:d1:db:f9:69:55:b8:45:71:9b:41:2e:e8:1d:ce:ce:4a:
         e7:fa:84:40:92:78:31:d7:6e:f9:23:e5:f0:2a:8f:e2:c5:4c:
         3e:dc:66:bd:86:49:75:41:d8:81:11:c4:f6:ba:01:e7:ef:63:
         71:da:c7:2d:f0:8e:46:16:13:24:be:f5:00:41:7f:72:31:5d:
         e2:dd:ee:17:51:34:55:43:bd:13:e4:f9:49:9c:87:a7:f4:7a:
         e7:6b:27:0f:72:37:1d:aa:51:47:19:2f:55:99:21:43:cd:ab:
         c8:f9:4e:a3:50:dc:8b:f8:c0:3e:dc:29:c3:34:a3:8c:eb:d3:
         a3:b7:0a:a2:c2:09:0a:32:ae:3c:5e:17:4c:f5:59:73:4c:4d:
         b4:6a:a2:1d:37:0e:36:16:11:05:da:63:27:1e:23:ab:da:f2:
         24:47:4b:85:93:cc:05:9b:cb:6f:10:ac:ae:c4:d7:24:bd:30:
         28:9b:48:30:3a:3c:46:0d
-----BEGIN CERTIFICATE-----
MIIGrDCCBJSgAwIBAgICAjowDQYJKoZIhvcNAQEEBQAwgawxCzAJBgNVBAYTAlVT
MQswCQYDVQQIEwJPSDERMA8GA1UEBxMIQ29sdW1idXMxEjAQBgNVBAoTCVZpa2lu
Z1ZQTjEdMBsGA1UECxMUTXlPcmdhbml6YXRpb25hbFVuaXQxFTATBgNVBAMTDFZp
a2luZ1ZQTiBDQTEQMA4GA1UEKRMHRWFzeVJTQTEhMB8GCSqGSIb3DQEJARYSbWVA
bXlob3N0Lm15ZG9tYWluMB4XDTEzMTIxNDIzMzEyOFoXDTIzMTIxMjIzMzEyOFow
HjEcMBoGA1UEAxMTQ2xpZW50MjMyQ2VydGJhMjMzZTCCAiIwDQYJKoZIhvcNAQEB
BQADggIPADCCAgoCggIBAOuwVPWf6DjAeJJTDaPVc7pYweS6bcNBBnMXggFEzkAj
Ak7FFs9DCML0/wPzsmXJ5Lv/C3VruDAOgy1DGe8dUJHAzzbxk7fmm/dRZohl/JY/
E52UKf/1huyUtcbBXaYhz65lXse8bPvo7GqRRc2c1wgp3kV17+Hj4JKExof98KRC
SjyUxMN2tKZBKSU2XfkSKWtfZvUiBIWHWrhUe2Q66VqlR5+aPK2qjd5wydjDsLpQ
nCSojVWQxJeYC8xNF+rpgsTJ4/IU84Ojp7s+oDIeEGhWUeu84wfTbCeqKikZ7bVJ
ELMK91oB4Y31vPJsptYTN9d+o7z571e4sD12Pc3Ul4b2FkRWQ2Y+BN9uIpVcrUJT
qSx9CAP78waz5Qx5+/89ouKmmSwdlT6dniQNIXppD4D4TT7QPrgU93EP9b7mLLPK
DlgGoitcr/RnF235xXzXqmEHuN9+M0TCzup7PaoUKMchDS2kUXolXW/Rh0/2PGdf
Ifo9CKKJFULaH0ho+6qOXQd/KauWhStUoQJ1AFK8gnWtovUCkOOG43BsWanG0ffR
1+Uu1ToPg/x16bvOeGtUzK+IhBN8JAW/B9zILLKOolv4/YtkCOoPQ6rX0e1SvaDX
SYB5W/8kCoJo8Ay5JuokX/yhy4wiq5KxHlJCPmhloaGh0+kEpuNv816Hlim3vHNX
AgMBAAGjggFjMIIBXzAJBgNVHRMEAjAAMC0GCWCGSAGG+EIBDQQgFh5FYXN5LVJT
QSBHZW5lcmF0ZWQgQ2VydGlmaWNhdGUwHQYDVR0OBBYEFPI8It+eGV/MOcI3m2fj
ojPxYKdGMIHhBgNVHSMEgdkwgdaAFBLNYATSoICecO3Gmbh7LMZS/RmhoYGypIGv
MIGsMQswCQYDVQQGEwJVUzELMAkGA1UECBMCT0gxETAPBgNVBAcTCENvbHVtYnVz
MRIwEAYDVQQKEwlWaWtpbmdWUE4xHTAbBgNVBAsTFE15T3JnYW5pemF0aW9uYWxV
bml0MRUwEwYDVQQDEwxWaWtpbmdWUE4gQ0ExEDAOBgNVBCkTB0Vhc3lSU0ExITAf
BgkqhkiG9w0BCQEWEm1lQG15aG9zdC5teWRvbWFpboIJAM81he6Avyo+MBMGA1Ud
JQQMMAoGCCsGAQUFBwMCMAsGA1UdDwQEAwIHgDANBgkqhkiG9w0BAQQFAAOCAgEA
5wRXjMiNb7UUZShg+y3XyaPBL9pBDwdDA73MeaM744ZvoRkXHAq5LBIiRAftHEYe
mr462iYbs8fKdSeNOMyF/OW9JqC5q1lfMcsdWLBPX7I4eYHVfsIxp7DwmcH7CMuF
033u/tLsoYuWLhGEQbEXwiweZlT9vgLtZ7cR0a5n7IG2fsJsBsiWaKVZYMieSP1C
mqkgFfOGJcEstCHat9kYlwwihFrG+xhCmZ0Tc9avHTzIDpfcC8W5aYAxU8jwq/fN
XpSOaNE9aKqb3XnJpbePqluKHJhLzmc/9BGobWsqgbKGSX10hLoIb4KNiRNTg6RO
RMBC+PmJEw1lWYEUCGnQw14kNfd037cij/sJsw36TIWWP9DMIVVNp11zI+E8ZZ5s
vgXGECuVwoteqD/6V3bdOeJydm9nFNQhwuh7SWro6FDIBMB2UTHR2/lpVbhFcZtB
Lugdzs5K5/qEQJJ4Mddu+SPl8CqP4sVMPtxmvYZJdUHYgRHE9roB5+9jcdrHLfCO
RhYTJL71AEF/cjFd4t3uF1E0VUO9E+T5SZyHp/R652snD3I3HapRRxkvVZkhQ82r
yPlOo1Dci/jAPtwpwzSjjOvTo7cKosIJCjKuPF4XTPVZc0xNtGqiHTcONhYRBdpj
Jx4jq9ryJEdLhZPMBZvLbxCsrsTXJL0wKJtIMDo8Rg0=
-----END CERTIFICATE-----
