Certificate:
    Data:
        Version: 3 (0x2)
        Serial Number: 574 (0x23e)
    Signature Algorithm: md5WithRSAEncryption
        Issuer: C=US, ST=OH, L=Columbus, O=VikingVPN, OU=MyOrganizationalUnit, CN=VikingVPN CA/name=EasyRSA/emailAddress=me@myhost.mydomain
        Validity
            Not Before: Dec 15 05:05:58 2013 GMT
            Not After : Dec 13 05:05:58 2023 GMT
        Subject: CN=Client233Cert667aea
        Subject Public Key Info:
            Public Key Algorithm: rsaEncryption
                Public-Key: (4096 bit)
                Modulus:
                    00:af:ad:32:23:b4:6d:8f:b8:b7:04:ad:36:0e:04:
                    f3:e2:0d:07:04:12:fa:cd:54:04:c2:e2:6c:36:6c:
                    50:55:c1:03:b6:1d:26:86:88:1d:7b:de:42:b9:a6:
                    c8:c9:5e:60:70:8d:ab:ec:a9:1c:a8:2f:e3:7e:50:
                    91:2d:47:0b:ce:26:c0:36:5c:f7:a0:e9:08:46:46:
                    23:e5:3b:cb:75:d1:3d:d3:7e:a9:9d:8b:42:ee:5e:
                    86:b0:39:b7:cf:9d:10:16:56:85:4c:66:21:99:3f:
                    c7:80:43:36:c7:21:fa:b7:6a:40:a6:35:26:4a:3e:
                    ec:c8:c8:72:55:86:7f:b9:d6:39:42:a5:d9:7d:e2:
                    20:ac:e0:00:79:8b:f1:8c:07:5f:41:87:6e:68:92:
                    21:11:dd:2c:58:05:12:94:89:c8:29:0c:a2:54:29:
                    6a:35:92:d8:7e:d1:00:d4:3b:05:22:53:6d:e9:65:
                    7b:80:a0:8e:78:95:55:84:b7:7c:01:f3:ea:d3:10:
                    c0:b2:5e:9f:25:9f:f7:43:ab:59:0b:78:65:0a:d0:
                    e6:76:28:4d:fe:6c:00:60:75:7d:33:53:2a:f1:30:
                    0b:b9:58:d2:3e:68:87:9a:9a:8e:53:97:fc:be:53:
                    85:ef:5d:df:b8:5a:81:a0:d5:14:df:c6:3b:9e:c9:
                    41:65:05:5f:fe:66:22:3c:01:ed:db:4b:14:33:9b:
                    be:d6:aa:6b:15:aa:01:81:23:2f:fc:ec:05:01:40:
                    bb:e6:26:d6:c9:e1:90:24:60:4d:1b:ff:c3:64:2b:
                    bf:73:8f:74:05:8c:98:df:1e:ed:f2:cc:69:8f:bf:
                    7a:8d:33:d7:06:5d:3e:7d:65:87:d2:6b:3c:1d:a6:
                    ae:ea:6f:d8:09:90:10:ab:60:7d:f7:1f:9f:b4:c2:
                    b1:64:01:64:66:f5:d4:0c:74:a7:6d:2f:86:90:48:
                    f5:2c:ef:c3:1a:79:8a:ad:e3:75:a4:8c:01:fb:91:
                    6a:f9:2e:1e:e7:c2:33:5f:ac:c6:5f:18:6c:8b:27:
                    92:c4:6d:32:15:06:d3:79:18:e2:09:e2:07:9d:58:
                    85:62:56:ab:ae:12:c6:53:43:7c:5a:f7:54:9c:43:
                    db:0b:bc:de:5b:88:7b:22:55:85:76:6f:55:1f:59:
                    2a:f9:69:59:d0:15:a1:60:05:2f:85:a4:83:23:96:
                    ef:01:6a:80:5d:d3:a5:3e:96:e4:a8:b7:a6:49:ed:
                    42:ba:e9:6d:de:48:71:21:c8:db:6b:0e:6c:a8:f6:
                    54:7d:f6:89:ba:39:65:8a:91:46:62:7d:9a:46:f4:
                    3d:21:1b:d2:9e:12:c4:58:63:ec:04:72:4b:52:f1:
                    6f:6d:5f
                Exponent: 65537 (0x10001)
        X509v3 extensions:
            X509v3 Basic Constraints: 
                CA:FALSE
            Netscape Comment: 
                Easy-RSA Generated Certificate
            X509v3 Subject Key Identifier: 
                A9:FB:F5:BC:5E:6A:66:26:FC:F2:8E:EC:96:2F:92:DC:1B:1A:75:82
            X509v3 Authority Key Identifier: 
                keyid:12:CD:60:04:D2:A0:80:9E:70:ED:C6:99:B8:7B:2C:C6:52:FD:19:A1
                DirName:/C=US/ST=OH/L=Columbus/O=VikingVPN/OU=MyOrganizationalUnit/CN=VikingVPN CA/name=EasyRSA/emailAddress=me@myhost.mydomain
                serial:CF:35:85:EE:80:BF:2A:3E

            X509v3 Extended Key Usage: 
                TLS Web Client Authentication
            X509v3 Key Usage: 
                Digital Signature
    Signature Algorithm: md5WithRSAEncryption
         a4:98:cb:21:2a:e0:22:30:17:f3:3f:8b:d4:5a:4c:a0:92:d3:
         4a:34:e4:05:5e:f8:c8:9a:33:03:d2:d4:7a:9f:25:ce:6d:65:
         65:15:8c:58:3b:e5:2d:13:43:8c:be:50:92:ea:9a:99:69:c0:
         6f:4a:b6:a7:c3:cb:67:af:32:6a:54:6c:b2:53:1f:cd:3b:36:
         8b:5b:57:1a:3e:da:b5:31:49:93:06:85:ec:93:3b:99:78:41:
         05:b7:11:3a:16:d7:ca:00:5d:be:d8:4d:f4:0e:30:95:29:f7:
         cc:9e:4a:51:5a:92:cf:ad:9f:3e:e4:d6:d8:83:2c:e0:8c:17:
         a8:38:10:50:f8:79:2c:7f:1f:e1:63:c4:4c:ac:23:da:9d:6f:
         0d:8c:1f:89:7b:57:00:46:77:05:98:68:0f:af:2a:c2:80:63:
         68:29:54:e7:ac:84:ed:66:f4:27:1f:d3:58:f1:df:9f:dd:f4:
         fa:ff:16:5c:4b:f1:04:f7:6b:a3:83:8c:cc:f0:90:44:22:c1:
         c1:e0:b7:a0:00:34:96:c9:36:e2:0a:e0:62:1b:2b:e0:ff:af:
         d6:f6:0f:64:08:68:88:85:23:a3:e6:1f:18:a0:c9:fe:28:22:
         5f:b0:56:99:c3:a7:87:1c:cf:f9:c7:44:55:24:a1:67:16:5f:
         cb:08:ee:f2:14:e9:0e:e7:63:8f:a8:26:19:2f:ab:c3:ad:b7:
         49:83:ed:d8:66:93:e4:31:f0:4b:07:8c:e2:e1:01:fb:a0:e3:
         88:d9:2e:76:a0:28:7d:9c:05:98:7c:af:84:63:ff:f9:06:8f:
         be:93:41:f8:74:34:29:56:39:a2:a3:39:8a:ad:0d:98:f0:65:
         2f:07:30:8f:e4:50:f6:f2:9a:fe:2e:db:2c:39:3d:64:66:54:
         63:b2:04:9c:82:97:77:a5:6b:7e:04:a5:2e:bd:61:45:3b:33:
         f6:c3:0a:53:60:7a:ab:98:df:3e:db:bc:f9:a9:7b:6a:71:77:
         78:e6:20:d6:47:48:fe:a5:1e:84:04:0a:ce:2c:d5:42:65:92:
         4c:de:72:98:2f:cd:c3:a9:ab:97:0a:60:7e:f4:f4:a9:66:6f:
         92:90:26:cb:56:c7:2f:07:34:e8:9d:30:84:76:9c:6d:68:91:
         a4:aa:88:24:29:c1:80:f8:8e:f3:ac:52:4d:6e:6a:eb:7c:8f:
         a2:2d:2f:c8:15:d1:63:3a:de:19:80:0e:4b:fc:3e:1e:88:84:
         e6:9a:06:bb:14:c7:4a:df:cb:ff:26:f1:6a:b7:cd:01:27:f8:
         f0:45:c2:cd:d6:b6:64:1f:b1:cb:7e:ed:93:47:3e:25:3f:85:
         09:db:42:92:3e:cb:75:43
-----BEGIN CERTIFICATE-----
MIIGrDCCBJSgAwIBAgICAj4wDQYJKoZIhvcNAQEEBQAwgawxCzAJBgNVBAYTAlVT
MQswCQYDVQQIEwJPSDERMA8GA1UEBxMIQ29sdW1idXMxEjAQBgNVBAoTCVZpa2lu
Z1ZQTjEdMBsGA1UECxMUTXlPcmdhbml6YXRpb25hbFVuaXQxFTATBgNVBAMTDFZp
a2luZ1ZQTiBDQTEQMA4GA1UEKRMHRWFzeVJTQTEhMB8GCSqGSIb3DQEJARYSbWVA
bXlob3N0Lm15ZG9tYWluMB4XDTEzMTIxNTA1MDU1OFoXDTIzMTIxMzA1MDU1OFow
HjEcMBoGA1UEAxMTQ2xpZW50MjMzQ2VydDY2N2FlYTCCAiIwDQYJKoZIhvcNAQEB
BQADggIPADCCAgoCggIBAK+tMiO0bY+4twStNg4E8+INBwQS+s1UBMLibDZsUFXB
A7YdJoaIHXveQrmmyMleYHCNq+ypHKgv435QkS1HC84mwDZc96DpCEZGI+U7y3XR
PdN+qZ2LQu5ehrA5t8+dEBZWhUxmIZk/x4BDNsch+rdqQKY1Jko+7MjIclWGf7nW
OUKl2X3iIKzgAHmL8YwHX0GHbmiSIRHdLFgFEpSJyCkMolQpajWS2H7RANQ7BSJT
belle4CgjniVVYS3fAHz6tMQwLJenyWf90OrWQt4ZQrQ5nYoTf5sAGB1fTNTKvEw
C7lY0j5oh5qajlOX/L5The9d37hagaDVFN/GO57JQWUFX/5mIjwB7dtLFDObvtaq
axWqAYEjL/zsBQFAu+Ym1snhkCRgTRv/w2Qrv3OPdAWMmN8e7fLMaY+/eo0z1wZd
Pn1lh9JrPB2mrupv2AmQEKtgffcfn7TCsWQBZGb11Ax0p20vhpBI9Szvwxp5iq3j
daSMAfuRavkuHufCM1+sxl8YbIsnksRtMhUG03kY4gniB51YhWJWq64SxlNDfFr3
VJxD2wu83luIeyJVhXZvVR9ZKvlpWdAVoWAFL4WkgyOW7wFqgF3TpT6W5Ki3pknt
Qrrpbd5IcSHI22sObKj2VH32ibo5ZYqRRmJ9mkb0PSEb0p4SxFhj7ARyS1Lxb21f
AgMBAAGjggFjMIIBXzAJBgNVHRMEAjAAMC0GCWCGSAGG+EIBDQQgFh5FYXN5LVJT
QSBHZW5lcmF0ZWQgQ2VydGlmaWNhdGUwHQYDVR0OBBYEFKn79bxeamYm/PKO7JYv
ktwbGnWCMIHhBgNVHSMEgdkwgdaAFBLNYATSoICecO3Gmbh7LMZS/RmhoYGypIGv
MIGsMQswCQYDVQQGEwJVUzELMAkGA1UECBMCT0gxETAPBgNVBAcTCENvbHVtYnVz
MRIwEAYDVQQKEwlWaWtpbmdWUE4xHTAbBgNVBAsTFE15T3JnYW5pemF0aW9uYWxV
bml0MRUwEwYDVQQDEwxWaWtpbmdWUE4gQ0ExEDAOBgNVBCkTB0Vhc3lSU0ExITAf
BgkqhkiG9w0BCQEWEm1lQG15aG9zdC5teWRvbWFpboIJAM81he6Avyo+MBMGA1Ud
JQQMMAoGCCsGAQUFBwMCMAsGA1UdDwQEAwIHgDANBgkqhkiG9w0BAQQFAAOCAgEA
pJjLISrgIjAX8z+L1FpMoJLTSjTkBV74yJozA9LUep8lzm1lZRWMWDvlLRNDjL5Q
kuqamWnAb0q2p8PLZ68yalRsslMfzTs2i1tXGj7atTFJkwaF7JM7mXhBBbcROhbX
ygBdvthN9A4wlSn3zJ5KUVqSz62fPuTW2IMs4IwXqDgQUPh5LH8f4WPETKwj2p1v
DYwfiXtXAEZ3BZhoD68qwoBjaClU56yE7Wb0Jx/TWPHfn930+v8WXEvxBPdro4OM
zPCQRCLBweC3oAA0lsk24grgYhsr4P+v1vYPZAhoiIUjo+YfGKDJ/igiX7BWmcOn
hxzP+cdEVSShZxZfywju8hTpDudjj6gmGS+rw623SYPt2GaT5DHwSweM4uEB+6Dj
iNkudqAofZwFmHyvhGP/+QaPvpNB+HQ0KVY5oqM5iq0NmPBlLwcwj+RQ9vKa/i7b
LDk9ZGZUY7IEnIKXd6VrfgSlLr1hRTsz9sMKU2B6q5jfPtu8+al7anF3eOYg1kdI
/qUehAQKzizVQmWSTN5ymC/Nw6mrlwpgfvT0qWZvkpAmy1bHLwc06J0whHacbWiR
pKqIJCnBgPiO86xSTW5q63yPoi0vyBXRYzreGYAOS/w+HoiE5poGuxTHSt/L/ybx
arfNASf48EXCzda2ZB+xy37tk0c+JT+FCdtCkj7LdUM=
-----END CERTIFICATE-----
