Certificate:
    Data:
        Version: 3 (0x2)
        Serial Number: 594 (0x252)
    Signature Algorithm: md5WithRSAEncryption
        Issuer: C=US, ST=OH, L=Columbus, O=VikingVPN, OU=MyOrganizationalUnit, CN=VikingVPN CA/name=EasyRSA/emailAddress=me@myhost.mydomain
        Validity
            Not Before: Dec 16 03:39:56 2013 GMT
            Not After : Dec 14 03:39:56 2023 GMT
        Subject: CN=Client237Cert8a2efb
        Subject Public Key Info:
            Public Key Algorithm: rsaEncryption
                Public-Key: (4096 bit)
                Modulus:
                    00:ba:c8:95:dd:68:72:fe:c5:95:1a:be:4a:13:c5:
                    c2:e2:37:48:6d:17:59:69:30:09:d2:27:07:97:eb:
                    43:4f:d0:8e:d4:05:d4:25:26:54:0b:2f:ad:3b:11:
                    d9:b7:fc:d5:b9:ae:e6:3f:a4:8a:4f:d6:cc:4f:4a:
                    9c:3a:83:95:42:de:9a:3e:cb:e6:6b:05:7e:60:34:
                    f1:82:67:37:2d:27:46:4c:49:6f:66:0e:3f:52:84:
                    9f:3b:87:98:35:3b:ab:57:73:43:d1:2c:2c:34:eb:
                    06:a2:88:1b:be:74:91:ec:2c:7e:a2:c9:e0:99:a8:
                    2e:f3:44:0b:47:2f:e4:bd:4f:ce:ec:d5:d7:be:60:
                    53:57:a6:a6:bf:ff:a8:ae:97:23:9e:78:a7:4d:71:
                    f1:05:f7:0c:80:f2:f1:fa:9b:f5:db:bb:e6:08:01:
                    1f:8b:17:51:c9:08:99:6e:0e:37:a6:13:53:e5:ca:
                    65:e2:b0:47:62:fc:7d:31:52:a8:a4:e0:d3:93:20:
                    74:be:17:1b:90:4b:36:05:dd:bb:9a:c7:b2:55:38:
                    96:95:80:80:49:dd:7c:b3:09:dc:49:bc:d6:4c:ff:
                    ad:5a:a9:37:cf:75:de:0b:a3:24:00:94:97:20:43:
                    04:c9:9d:fe:3e:d3:be:0f:9f:0a:e7:c1:b8:f7:5a:
                    7b:60:16:19:48:15:31:89:37:9d:7a:ca:d3:89:4b:
                    c1:0b:52:17:82:71:8e:14:e5:fa:9c:cd:f0:1b:04:
                    4a:84:c4:d7:20:fe:fa:44:66:fa:28:83:77:c4:7f:
                    eb:b0:10:e8:e4:33:f6:9e:8b:95:40:e4:30:12:a1:
                    ff:13:ab:7b:0a:85:55:43:24:11:5c:af:a9:b5:5a:
                    ba:13:fd:f5:46:f2:ff:6a:fc:04:17:79:f9:63:b8:
                    a9:f9:11:77:6c:0e:44:24:50:f9:92:78:76:b6:9f:
                    ce:9f:49:33:4e:05:a2:73:b7:69:13:81:02:c3:a1:
                    c2:e9:de:7a:0a:f4:a0:1e:9c:64:05:66:64:cd:87:
                    48:5e:d9:89:2d:9a:51:46:ca:63:95:db:40:e6:bb:
                    a7:ab:99:d5:01:ea:f3:33:5a:e3:98:d6:54:13:df:
                    10:71:7c:a0:0c:23:1e:bb:6f:97:31:91:81:2d:cb:
                    91:29:89:d6:d0:3a:08:57:ea:21:77:2d:de:02:55:
                    65:93:96:75:7c:f4:8b:9b:d4:e9:ca:df:e7:ff:b2:
                    83:29:ec:16:3e:5e:60:80:87:74:87:26:d2:47:72:
                    25:e4:da:62:7e:71:44:9f:4c:53:10:0c:58:0e:2a:
                    4b:a9:5f:65:77:b5:95:58:d3:2d:4d:cc:33:cb:91:
                    e9:70:47
                Exponent: 65537 (0x10001)
        X509v3 extensions:
            X509v3 Basic Constraints: 
                CA:FALSE
            Netscape Comment: 
                Easy-RSA Generated Certificate
            X509v3 Subject Key Identifier: 
                2B:BD:F3:73:16:69:51:A6:7C:65:BF:B0:FC:C0:3E:97:8C:3F:84:81
            X509v3 Authority Key Identifier: 
                keyid:12:CD:60:04:D2:A0:80:9E:70:ED:C6:99:B8:7B:2C:C6:52:FD:19:A1
                DirName:/C=US/ST=OH/L=Columbus/O=VikingVPN/OU=MyOrganizationalUnit/CN=VikingVPN CA/name=EasyRSA/emailAddress=me@myhost.mydomain
                serial:CF:35:85:EE:80:BF:2A:3E

            X509v3 Extended Key Usage: 
                TLS Web Client Authentication
            X509v3 Key Usage: 
                Digital Signature
    Signature Algorithm: md5WithRSAEncryption
         7f:68:a9:e2:06:4c:41:4c:08:98:7a:ba:e1:1e:33:91:ba:3d:
         28:01:1d:54:e4:c9:97:00:26:cb:78:a7:d5:30:3d:88:29:5e:
         92:93:7c:a9:1a:89:1c:c9:2d:c8:e8:98:da:4e:2c:69:59:fa:
         06:bd:5c:a6:64:d2:9d:8b:da:f7:bc:f8:4f:7d:0f:29:7c:c9:
         17:79:b6:cb:1a:05:22:14:bc:d7:e0:78:27:d6:9f:03:82:3a:
         d1:6a:bb:1d:b5:4b:ff:e2:6d:a4:6e:51:c7:34:d5:37:10:ce:
         15:49:32:e0:05:5b:86:32:50:bc:1b:a2:87:22:0c:76:7f:33:
         56:8a:a2:1e:26:03:c7:28:e6:20:60:c6:44:55:4b:3b:65:e8:
         8a:b8:c1:8d:49:ed:eb:cb:71:a5:89:6a:94:84:f7:68:f2:d7:
         59:6e:e4:c0:39:49:c8:ba:5c:10:c5:04:8a:68:57:e9:ca:48:
         f8:37:34:8b:f6:45:b6:f1:26:5a:aa:30:e6:1c:24:80:db:37:
         5d:e4:ec:dd:a6:69:42:0e:21:a7:8b:24:df:20:77:fa:c6:d5:
         8f:2b:70:fa:a5:52:97:05:25:d5:6c:a6:cc:fd:ff:65:d1:3c:
         27:ae:b1:f6:b8:09:c1:da:be:90:9c:72:18:9d:b8:fa:79:ad:
         79:ac:b1:a5:c8:23:94:e6:b5:56:9c:88:48:42:b6:29:bf:f1:
         b7:ec:c5:f7:ed:cf:0e:92:76:bd:f6:65:bd:90:12:eb:0c:41:
         ef:9d:b5:fe:70:65:c6:e2:2b:3f:35:57:2d:e6:af:e3:fb:be:
         89:9d:57:4c:56:61:77:e4:3a:5e:3f:72:33:b3:40:95:de:fd:
         79:b6:1f:ef:6b:18:da:0c:dc:e0:b4:3e:57:06:b7:f0:25:b8:
         ad:fa:68:7b:32:68:e8:80:3c:c9:af:ea:1d:46:8b:4d:57:63:
         f5:f6:0c:4d:b0:1f:96:8b:db:54:5c:3a:86:0a:40:ee:49:3b:
         c7:a7:b7:36:34:77:da:5f:bf:61:59:71:f8:4e:ab:6d:bc:e0:
         8e:58:f3:9a:0a:48:5c:33:ea:ee:51:53:9f:09:11:76:3c:46:
         0a:13:1c:05:54:c7:b4:4a:11:5c:6f:96:5c:2b:5e:e2:44:0c:
         41:84:9b:7f:85:c5:6e:19:80:1b:68:e4:eb:68:a2:57:03:f2:
         6f:1f:11:8b:ca:e8:39:aa:be:d3:82:21:81:f9:6a:6c:7b:7f:
         21:73:b9:ca:52:3a:75:da:cd:78:08:ee:52:81:80:42:57:56:
         a0:14:e8:42:51:71:bc:99:be:0c:0b:d2:b7:2e:cf:9c:4b:9e:
         4a:f0:03:59:da:ec:0f:3e
-----BEGIN CERTIFICATE-----
MIIGrDCCBJSgAwIBAgICAlIwDQYJKoZIhvcNAQEEBQAwgawxCzAJBgNVBAYTAlVT
MQswCQYDVQQIEwJPSDERMA8GA1UEBxMIQ29sdW1idXMxEjAQBgNVBAoTCVZpa2lu
Z1ZQTjEdMBsGA1UECxMUTXlPcmdhbml6YXRpb25hbFVuaXQxFTATBgNVBAMTDFZp
a2luZ1ZQTiBDQTEQMA4GA1UEKRMHRWFzeVJTQTEhMB8GCSqGSIb3DQEJARYSbWVA
bXlob3N0Lm15ZG9tYWluMB4XDTEzMTIxNjAzMzk1NloXDTIzMTIxNDAzMzk1Nlow
HjEcMBoGA1UEAxMTQ2xpZW50MjM3Q2VydDhhMmVmYjCCAiIwDQYJKoZIhvcNAQEB
BQADggIPADCCAgoCggIBALrIld1ocv7FlRq+ShPFwuI3SG0XWWkwCdInB5frQ0/Q
jtQF1CUmVAsvrTsR2bf81bmu5j+kik/WzE9KnDqDlULemj7L5msFfmA08YJnNy0n
RkxJb2YOP1KEnzuHmDU7q1dzQ9EsLDTrBqKIG750kewsfqLJ4JmoLvNEC0cv5L1P
zuzV175gU1empr//qK6XI554p01x8QX3DIDy8fqb9du75ggBH4sXUckImW4ON6YT
U+XKZeKwR2L8fTFSqKTg05MgdL4XG5BLNgXdu5rHslU4lpWAgEndfLMJ3Em81kz/
rVqpN8913gujJACUlyBDBMmd/j7Tvg+fCufBuPdae2AWGUgVMYk3nXrK04lLwQtS
F4JxjhTl+pzN8BsESoTE1yD++kRm+iiDd8R/67AQ6OQz9p6LlUDkMBKh/xOrewqF
VUMkEVyvqbVauhP99Uby/2r8BBd5+WO4qfkRd2wORCRQ+ZJ4drafzp9JM04FonO3
aROBAsOhwuneegr0oB6cZAVmZM2HSF7ZiS2aUUbKY5XbQOa7p6uZ1QHq8zNa45jW
VBPfEHF8oAwjHrtvlzGRgS3LkSmJ1tA6CFfqIXct3gJVZZOWdXz0i5vU6crf5/+y
gynsFj5eYICHdIcm0kdyJeTaYn5xRJ9MUxAMWA4qS6lfZXe1lVjTLU3MM8uR6XBH
AgMBAAGjggFjMIIBXzAJBgNVHRMEAjAAMC0GCWCGSAGG+EIBDQQgFh5FYXN5LVJT
QSBHZW5lcmF0ZWQgQ2VydGlmaWNhdGUwHQYDVR0OBBYEFCu983MWaVGmfGW/sPzA
PpeMP4SBMIHhBgNVHSMEgdkwgdaAFBLNYATSoICecO3Gmbh7LMZS/RmhoYGypIGv
MIGsMQswCQYDVQQGEwJVUzELMAkGA1UECBMCT0gxETAPBgNVBAcTCENvbHVtYnVz
MRIwEAYDVQQKEwlWaWtpbmdWUE4xHTAbBgNVBAsTFE15T3JnYW5pemF0aW9uYWxV
bml0MRUwEwYDVQQDEwxWaWtpbmdWUE4gQ0ExEDAOBgNVBCkTB0Vhc3lSU0ExITAf
BgkqhkiG9w0BCQEWEm1lQG15aG9zdC5teWRvbWFpboIJAM81he6Avyo+MBMGA1Ud
JQQMMAoGCCsGAQUFBwMCMAsGA1UdDwQEAwIHgDANBgkqhkiG9w0BAQQFAAOCAgEA
f2ip4gZMQUwImHq64R4zkbo9KAEdVOTJlwAmy3in1TA9iClekpN8qRqJHMktyOiY
2k4saVn6Br1cpmTSnYva97z4T30PKXzJF3m2yxoFIhS81+B4J9afA4I60Wq7HbVL
/+JtpG5RxzTVNxDOFUky4AVbhjJQvBuihyIMdn8zVoqiHiYDxyjmIGDGRFVLO2Xo
irjBjUnt68txpYlqlIT3aPLXWW7kwDlJyLpcEMUEimhX6cpI+Dc0i/ZFtvEmWqow
5hwkgNs3XeTs3aZpQg4hp4sk3yB3+sbVjytw+qVSlwUl1WymzP3/ZdE8J66x9rgJ
wdq+kJxyGJ24+nmteayxpcgjlOa1VpyISEK2Kb/xt+zF9+3PDpJ2vfZlvZAS6wxB
7521/nBlxuIrPzVXLeav4/u+iZ1XTFZhd+Q6Xj9yM7NAld79ebYf72sY2gzc4LQ+
Vwa38CW4rfpoezJo6IA8ya/qHUaLTVdj9fYMTbAflovbVFw6hgpA7kk7x6e3NjR3
2l+/YVlx+E6rbbzgjljzmgpIXDPq7lFTnwkRdjxGChMcBVTHtEoRXG+WXCte4kQM
QYSbf4XFbhmAG2jk62iiVwPybx8Ri8roOaq+04IhgflqbHt/IXO5ylI6ddrNeAju
UoGAQldWoBToQlFxvJm+DAvSty7PnEueSvADWdrsDz4=
-----END CERTIFICATE-----
