Certificate:
    Data:
        Version: 3 (0x2)
        Serial Number: 602 (0x25a)
    Signature Algorithm: md5WithRSAEncryption
        Issuer: C=US, ST=OH, L=Columbus, O=VikingVPN, OU=MyOrganizationalUnit, CN=VikingVPN CA/name=EasyRSA/emailAddress=me@myhost.mydomain
        Validity
            Not Before: Dec 16 23:01:40 2013 GMT
            Not After : Dec 14 23:01:40 2023 GMT
        Subject: CN=Client213Cert859b2b
        Subject Public Key Info:
            Public Key Algorithm: rsaEncryption
                Public-Key: (4096 bit)
                Modulus:
                    00:c7:1b:f4:4b:53:5e:bf:08:aa:ec:99:a7:cf:4e:
                    c3:cf:2a:26:34:d6:03:73:12:32:4c:85:85:ad:bf:
                    2b:b5:ec:66:42:84:01:51:ac:8a:39:a5:c3:af:9f:
                    7b:08:c1:bb:75:b5:ec:51:db:a3:bb:93:d4:4f:a4:
                    61:e2:a2:61:0e:c8:08:69:76:93:03:fe:77:19:25:
                    92:3a:22:48:02:cd:52:6b:8b:fa:8d:e2:10:ff:32:
                    07:ca:fd:03:99:2b:60:f3:6c:41:08:6d:cd:a6:78:
                    e7:15:1d:84:22:cc:f4:4a:31:bc:8f:d0:df:d9:f9:
                    eb:ef:40:91:a5:d7:ba:09:a4:9c:c1:55:08:86:4d:
                    a7:45:8c:b1:89:31:b9:a4:e3:41:fd:c6:3c:2e:25:
                    9e:49:d9:48:3e:40:fc:00:7a:d8:aa:dc:c9:e6:20:
                    71:be:bb:93:45:0f:e3:08:d5:30:87:d0:87:90:19:
                    21:35:36:3d:11:24:f8:a5:12:2d:30:91:dc:b5:e7:
                    7e:3f:7f:28:fb:30:91:a4:0b:17:20:bd:3e:85:61:
                    80:48:11:29:ed:76:46:5d:86:79:73:5e:46:a5:d2:
                    a5:49:ab:02:1b:bb:3c:82:1b:79:76:45:b5:74:18:
                    c4:52:ae:ce:c6:2f:99:6a:09:9c:a4:4b:b6:b9:7e:
                    d3:d6:8d:31:36:86:d5:cd:5b:cc:05:79:55:f5:b6:
                    d5:05:db:69:ea:43:1d:a8:27:a7:63:96:0c:1e:34:
                    99:ec:65:9e:41:d9:21:d8:36:6c:b9:b0:3e:fa:23:
                    66:2e:8e:90:48:bd:43:09:78:13:eb:7e:bb:39:b5:
                    e3:84:02:46:48:a0:3a:4e:92:16:26:47:e1:ef:98:
                    fb:c7:39:34:a1:7c:1a:63:28:37:59:99:44:94:61:
                    2c:33:95:f5:a8:8a:41:f9:98:6f:5e:0d:cc:d4:22:
                    64:3b:1a:09:75:fa:a5:84:3e:32:11:3f:9f:d5:82:
                    9c:d4:71:2a:f4:c0:84:6c:16:d6:5c:ac:5e:3c:35:
                    f7:18:b7:87:b4:42:44:23:96:2a:37:ad:ab:c4:b2:
                    ab:7c:4b:3f:cd:da:d1:06:59:7d:b8:70:e5:a2:d1:
                    f6:53:ef:da:de:ee:df:74:16:dc:bf:65:7c:00:b6:
                    b8:1f:ff:73:16:d3:4a:8a:92:08:b3:43:53:cc:c3:
                    0b:5b:42:9b:b8:ed:be:21:c4:34:8e:ae:75:f4:49:
                    5b:7f:29:a0:9c:58:bc:c3:28:d5:bd:3d:3b:bd:40:
                    f6:8d:b2:27:53:d5:c5:60:ea:13:e7:98:0f:b2:2a:
                    64:2f:4e:46:35:49:50:11:5a:b6:77:7e:99:72:43:
                    f7:41:3f
                Exponent: 65537 (0x10001)
        X509v3 extensions:
            X509v3 Basic Constraints: 
                CA:FALSE
            Netscape Comment: 
                Easy-RSA Generated Certificate
            X509v3 Subject Key Identifier: 
                41:9D:77:1D:6E:AE:C3:63:4D:DF:72:C7:4A:49:59:ED:1A:D9:AD:0F
            X509v3 Authority Key Identifier: 
                keyid:12:CD:60:04:D2:A0:80:9E:70:ED:C6:99:B8:7B:2C:C6:52:FD:19:A1
                DirName:/C=US/ST=OH/L=Columbus/O=VikingVPN/OU=MyOrganizationalUnit/CN=VikingVPN CA/name=EasyRSA/emailAddress=me@myhost.mydomain
                serial:CF:35:85:EE:80:BF:2A:3E

            X509v3 Extended Key Usage: 
                TLS Web Client Authentication
            X509v3 Key Usage: 
                Digital Signature
    Signature Algorithm: md5WithRSAEncryption
         74:e0:df:67:f5:cb:7d:ed:ed:ff:4c:c9:00:0a:b7:0b:f1:b6:
         b0:5d:c9:95:b2:0a:59:93:0a:13:d5:b5:0b:0e:bc:11:00:d5:
         2c:75:09:6b:a9:fa:0d:f3:91:2f:15:28:90:f5:ac:47:8c:02:
         65:c8:9d:40:78:59:97:c6:f8:12:38:8f:e3:91:df:c2:b3:30:
         5d:b1:bb:a4:50:31:57:7e:97:e1:d3:96:b8:45:e3:53:2d:6a:
         d6:70:99:78:27:d4:d1:73:69:54:d9:08:c9:0b:07:79:c0:c4:
         6f:c2:ed:40:e8:94:f7:33:b7:30:10:89:a5:2d:54:45:79:33:
         80:27:97:54:5f:65:0e:d2:2c:b9:1b:3d:a1:4d:cf:12:f0:17:
         8f:37:81:de:1e:bd:e8:59:64:01:5d:15:43:38:29:28:e1:89:
         65:5f:41:4e:1c:5e:19:03:48:36:66:33:1c:ea:d7:7d:91:20:
         9c:d6:de:d6:e5:87:45:bb:00:18:46:40:4c:49:19:7b:a4:3a:
         21:c7:cb:c2:13:9b:47:49:b3:91:a2:be:85:0c:ed:8e:60:58:
         62:a8:3d:1a:5c:ff:2c:cb:d8:30:04:9a:05:70:58:32:0e:07:
         00:0f:e0:e4:b0:ce:8b:56:a5:d0:0c:28:55:17:ba:3b:a4:5f:
         42:c6:35:23:33:b0:26:88:a3:8b:e7:4d:5a:af:dd:b8:23:a8:
         2b:62:d0:13:e7:a1:76:b6:7e:c3:90:0a:f0:95:a8:e9:16:12:
         4f:76:8c:e6:0d:a1:0b:0c:3f:e7:f0:28:64:53:53:30:89:ea:
         b8:78:a2:00:5f:18:bf:2f:20:20:bf:88:f2:66:d3:ab:83:55:
         c6:68:9f:47:c7:56:98:4d:ff:e7:3f:03:b6:ab:18:b8:fb:d7:
         c8:35:14:9a:d1:ec:14:80:d9:57:15:34:36:91:93:c1:46:d3:
         ac:be:b7:a4:b1:95:f7:ec:32:14:e5:2a:bc:03:5b:46:70:d3:
         82:74:f1:59:eb:5f:8d:bf:8f:90:83:ec:b6:59:70:f0:3a:6b:
         a0:4d:12:a8:06:fa:50:9c:14:5c:b0:5e:ba:7b:cb:06:97:89:
         ab:4d:bd:4a:0c:ae:b4:5e:58:c0:f4:e4:71:cb:84:f7:11:ca:
         3a:49:5f:6f:1b:d7:1b:0a:9d:9d:b9:38:aa:8e:53:92:bf:38:
         0e:2b:df:79:63:3d:73:45:d7:85:eb:8c:21:f6:92:f5:87:b8:
         95:ca:5d:08:e9:74:19:42:8e:76:f4:59:30:60:aa:c8:b8:da:
         77:b9:53:e7:82:a3:10:5d:30:bb:46:b8:2b:e2:77:c0:85:47:
         5b:6e:e2:d6:9f:b2:0f:46
-----BEGIN CERTIFICATE-----
MIIGrDCCBJSgAwIBAgICAlowDQYJKoZIhvcNAQEEBQAwgawxCzAJBgNVBAYTAlVT
MQswCQYDVQQIEwJPSDERMA8GA1UEBxMIQ29sdW1idXMxEjAQBgNVBAoTCVZpa2lu
Z1ZQTjEdMBsGA1UECxMUTXlPcmdhbml6YXRpb25hbFVuaXQxFTATBgNVBAMTDFZp
a2luZ1ZQTiBDQTEQMA4GA1UEKRMHRWFzeVJTQTEhMB8GCSqGSIb3DQEJARYSbWVA
bXlob3N0Lm15ZG9tYWluMB4XDTEzMTIxNjIzMDE0MFoXDTIzMTIxNDIzMDE0MFow
HjEcMBoGA1UEAxMTQ2xpZW50MjEzQ2VydDg1OWIyYjCCAiIwDQYJKoZIhvcNAQEB
BQADggIPADCCAgoCggIBAMcb9EtTXr8IquyZp89Ow88qJjTWA3MSMkyFha2/K7Xs
ZkKEAVGsijmlw6+fewjBu3W17FHbo7uT1E+kYeKiYQ7ICGl2kwP+dxklkjoiSALN
UmuL+o3iEP8yB8r9A5krYPNsQQhtzaZ45xUdhCLM9EoxvI/Q39n56+9AkaXXugmk
nMFVCIZNp0WMsYkxuaTjQf3GPC4lnknZSD5A/AB62KrcyeYgcb67k0UP4wjVMIfQ
h5AZITU2PREk+KUSLTCR3LXnfj9/KPswkaQLFyC9PoVhgEgRKe12Rl2GeXNeRqXS
pUmrAhu7PIIbeXZFtXQYxFKuzsYvmWoJnKRLtrl+09aNMTaG1c1bzAV5VfW21QXb
aepDHagnp2OWDB40mexlnkHZIdg2bLmwPvojZi6OkEi9Qwl4E+t+uzm144QCRkig
Ok6SFiZH4e+Y+8c5NKF8GmMoN1mZRJRhLDOV9aiKQfmYb14NzNQiZDsaCXX6pYQ+
MhE/n9WCnNRxKvTAhGwW1lysXjw19xi3h7RCRCOWKjetq8Syq3xLP83a0QZZfbhw
5aLR9lPv2t7u33QW3L9lfAC2uB//cxbTSoqSCLNDU8zDC1tCm7jtviHENI6udfRJ
W38poJxYvMMo1b09O71A9o2yJ1PVxWDqE+eYD7IqZC9ORjVJUBFatnd+mXJD90E/
AgMBAAGjggFjMIIBXzAJBgNVHRMEAjAAMC0GCWCGSAGG+EIBDQQgFh5FYXN5LVJT
QSBHZW5lcmF0ZWQgQ2VydGlmaWNhdGUwHQYDVR0OBBYEFEGddx1ursNjTd9yx0pJ
We0a2a0PMIHhBgNVHSMEgdkwgdaAFBLNYATSoICecO3Gmbh7LMZS/RmhoYGypIGv
MIGsMQswCQYDVQQGEwJVUzELMAkGA1UECBMCT0gxETAPBgNVBAcTCENvbHVtYnVz
MRIwEAYDVQQKEwlWaWtpbmdWUE4xHTAbBgNVBAsTFE15T3JnYW5pemF0aW9uYWxV
bml0MRUwEwYDVQQDEwxWaWtpbmdWUE4gQ0ExEDAOBgNVBCkTB0Vhc3lSU0ExITAf
BgkqhkiG9w0BCQEWEm1lQG15aG9zdC5teWRvbWFpboIJAM81he6Avyo+MBMGA1Ud
JQQMMAoGCCsGAQUFBwMCMAsGA1UdDwQEAwIHgDANBgkqhkiG9w0BAQQFAAOCAgEA
dODfZ/XLfe3t/0zJAAq3C/G2sF3JlbIKWZMKE9W1Cw68EQDVLHUJa6n6DfORLxUo
kPWsR4wCZcidQHhZl8b4EjiP45HfwrMwXbG7pFAxV36X4dOWuEXjUy1q1nCZeCfU
0XNpVNkIyQsHecDEb8LtQOiU9zO3MBCJpS1URXkzgCeXVF9lDtIsuRs9oU3PEvAX
jzeB3h696FlkAV0VQzgpKOGJZV9BThxeGQNINmYzHOrXfZEgnNbe1uWHRbsAGEZA
TEkZe6Q6IcfLwhObR0mzkaK+hQztjmBYYqg9Glz/LMvYMASaBXBYMg4HAA/g5LDO
i1al0AwoVRe6O6RfQsY1IzOwJoiji+dNWq/duCOoK2LQE+ehdrZ+w5AK8JWo6RYS
T3aM5g2hCww/5/AoZFNTMInquHiiAF8Yvy8gIL+I8mbTq4NVxmifR8dWmE3/5z8D
tqsYuPvXyDUUmtHsFIDZVxU0NpGTwUbTrL63pLGV9+wyFOUqvANbRnDTgnTxWetf
jb+PkIPstllw8DproE0SqAb6UJwUXLBeunvLBpeJq029SgyutF5YwPTkccuE9xHK
OklfbxvXGwqdnbk4qo5Tkr84DivfeWM9c0XXheuMIfaS9Ye4lcpdCOl0GUKOdvRZ
MGCqyLjad7lT54KjEF0wu0a4K+J3wIVHW27i1p+yD0Y=
-----END CERTIFICATE-----
