Certificate:
    Data:
        Version: 3 (0x2)
        Serial Number: 624 (0x270)
    Signature Algorithm: md5WithRSAEncryption
        Issuer: C=US, ST=OH, L=Columbus, O=VikingVPN, OU=MyOrganizationalUnit, CN=VikingVPN CA/name=EasyRSA/emailAddress=me@myhost.mydomain
        Validity
            Not Before: Dec 20 03:27:46 2013 GMT
            Not After : Dec 18 03:27:46 2023 GMT
        Subject: CN=Client73Cert178d4d
        Subject Public Key Info:
            Public Key Algorithm: rsaEncryption
                Public-Key: (4096 bit)
                Modulus:
                    00:cd:e3:41:86:ea:26:93:bb:75:ef:e1:f1:1a:56:
                    6f:3d:c4:41:e8:30:e1:a2:b1:3e:35:b5:4e:06:38:
                    bd:d6:df:ab:65:d6:91:1d:28:1f:15:3f:0f:47:7d:
                    55:a8:31:48:a6:92:9d:4a:10:dd:b0:f3:93:95:46:
                    00:4b:d3:06:8f:0e:2c:1d:3c:0a:d9:65:fb:db:a5:
                    a2:d2:0b:8d:24:25:c7:17:e6:22:7b:8f:77:1e:c5:
                    c9:29:7c:a9:53:10:10:bb:30:88:df:8a:6e:51:70:
                    99:d8:dd:dc:ec:79:65:14:c6:5e:28:79:af:12:ac:
                    c3:57:0e:94:c6:ec:3b:77:56:dd:04:ca:1d:53:bd:
                    a3:f0:d4:52:bf:a8:7d:5f:bb:4c:70:16:f1:b7:12:
                    7d:a8:89:97:bf:45:c8:1c:37:24:1f:68:56:1b:35:
                    bf:cd:09:3a:96:89:37:57:93:9e:5c:29:17:91:a5:
                    05:b2:48:0a:12:27:83:95:17:43:4b:96:5a:c0:55:
                    83:f6:5a:10:6f:7f:6d:28:d7:8a:4d:74:03:a5:09:
                    53:3d:5d:5e:8a:13:25:20:f0:31:37:9c:00:d5:45:
                    6e:4a:af:08:8d:b5:a9:3a:03:a1:35:5f:3f:ab:ca:
                    ce:73:42:17:d6:55:53:fd:75:13:85:e7:6d:69:45:
                    9c:dd:ef:66:77:25:80:70:52:bb:2e:10:44:49:51:
                    1a:72:95:a7:57:b4:8e:93:a6:e0:b2:52:2a:34:65:
                    09:00:9e:d0:b4:ac:02:36:52:5c:c5:d3:3d:1e:56:
                    37:a7:5c:f7:63:2a:cc:b3:a3:84:21:ac:9c:67:50:
                    91:df:f9:76:85:68:83:df:b8:36:54:bf:68:c5:c0:
                    68:b8:e0:79:5c:93:11:da:15:5d:52:89:b6:4b:2e:
                    20:2c:a8:e5:5b:b7:41:50:8f:94:8d:17:fa:ce:e6:
                    0e:02:c3:06:9c:13:bd:f3:25:92:f9:00:a3:91:c0:
                    36:e7:9f:56:ed:52:15:f6:d2:2f:3b:10:c6:d0:3f:
                    ca:5b:3e:81:55:66:87:87:9d:31:8f:38:b9:d1:f1:
                    53:7e:ee:10:43:55:be:a9:66:e5:27:c6:f4:57:3f:
                    55:26:d9:f2:8b:32:2a:bb:23:66:a5:66:2e:d4:3a:
                    53:92:35:98:95:d2:11:f4:6d:2d:9d:d4:4a:94:11:
                    9d:04:8c:8f:23:d9:c0:89:9e:00:fd:45:73:93:e4:
                    5e:75:6f:9c:90:73:fa:2e:2d:1d:24:5e:1a:2f:4a:
                    d8:21:29:54:7d:b6:65:7c:39:6b:f8:8e:23:45:3f:
                    ed:73:40:40:e0:01:ba:3d:ed:30:b1:27:87:5c:c9:
                    c8:51:15
                Exponent: 65537 (0x10001)
        X509v3 extensions:
            X509v3 Basic Constraints: 
                CA:FALSE
            Netscape Comment: 
                Easy-RSA Generated Certificate
            X509v3 Subject Key Identifier: 
                2D:F1:FE:A5:CD:CB:8B:C8:CB:B6:11:83:87:93:E4:A2:28:BB:D6:4A
            X509v3 Authority Key Identifier: 
                keyid:12:CD:60:04:D2:A0:80:9E:70:ED:C6:99:B8:7B:2C:C6:52:FD:19:A1
                DirName:/C=US/ST=OH/L=Columbus/O=VikingVPN/OU=MyOrganizationalUnit/CN=VikingVPN CA/name=EasyRSA/emailAddress=me@myhost.mydomain
                serial:CF:35:85:EE:80:BF:2A:3E

            X509v3 Extended Key Usage: 
                TLS Web Client Authentication
            X509v3 Key Usage: 
                Digital Signature
    Signature Algorithm: md5WithRSAEncryption
         4d:75:3a:58:44:d8:2d:c9:db:41:42:59:3f:13:c3:d1:d5:58:
         6b:5d:61:47:f6:65:d0:03:95:b1:94:a8:7a:40:7d:0e:b6:91:
         91:6d:ae:32:fa:42:fa:0f:d2:db:6c:09:82:3b:9f:db:d1:d0:
         bb:1e:06:6a:d1:a8:af:00:d2:e0:c5:17:2a:a2:f1:3b:41:ec:
         88:3b:ea:02:20:25:8b:4a:98:0a:8e:52:a6:2a:68:e8:ee:89:
         fc:34:bf:a5:54:2d:f9:99:d5:9f:c9:bb:e8:9a:c7:44:02:d8:
         4b:29:91:40:0e:5f:eb:02:bf:83:c6:b9:e3:1a:71:6b:14:4b:
         63:17:ad:da:a0:2a:a8:48:cb:7d:51:38:57:5d:9a:df:63:bc:
         05:d4:04:78:d5:bd:d8:9c:4f:81:7a:98:07:cc:4f:88:cc:e6:
         79:24:17:1d:ec:3f:a7:1f:e9:b1:b3:9f:e4:25:2b:2d:11:88:
         e7:6a:c1:7b:51:cd:b1:04:35:55:21:22:a0:cd:95:71:49:2b:
         2e:8c:40:77:2c:d1:a8:0f:44:d1:1c:a1:b5:f7:89:b6:bb:cc:
         af:52:0a:3c:05:6c:df:42:fd:ea:18:56:be:9f:6c:42:9c:4b:
         de:76:a6:9d:5d:8a:b7:b2:d6:c2:23:00:fd:cb:3a:e9:50:26:
         2f:4e:6c:53:b3:68:10:ae:9b:67:54:f0:32:5f:b1:21:4e:2c:
         ef:bf:59:9c:7e:51:48:c1:b9:ab:8c:82:5c:50:d9:61:3d:fc:
         e8:db:81:7e:f6:f7:b8:fa:60:cf:4f:85:56:71:fe:ae:c0:16:
         e0:95:5c:0e:f5:a0:b6:b6:17:46:7b:92:c4:80:c4:a0:6f:c6:
         48:49:bb:f1:d0:9c:5e:f6:71:a4:de:f4:b6:df:42:5b:3d:38:
         09:1f:03:95:63:d4:63:54:ec:3a:aa:db:0f:3d:a6:23:79:60:
         fd:7e:da:7b:59:00:03:69:37:62:60:1f:bd:a4:1a:69:b6:9b:
         43:c7:2d:bc:ce:1b:86:bf:7e:7a:ef:9b:85:a0:7c:6f:b8:f8:
         1f:f9:8a:15:a8:27:5a:40:43:6e:8f:ae:e0:bd:ec:ed:eb:a8:
         be:44:50:9d:b0:17:6a:80:ea:56:2a:70:45:f7:72:1b:a5:14:
         a9:1c:8f:17:56:48:ec:04:72:86:c6:93:13:15:04:b8:26:8e:
         30:07:5e:ba:a0:a0:a4:eb:f9:5a:d9:7a:8a:48:06:45:78:42:
         65:a1:0c:bd:67:4c:f8:48:81:b9:38:96:95:93:25:27:db:73:
         68:a7:28:17:5a:f0:63:30:f2:56:8d:db:99:35:3b:82:3f:97:
         73:20:41:3b:73:32:5d:9a
-----BEGIN CERTIFICATE-----
MIIGqzCCBJOgAwIBAgICAnAwDQYJKoZIhvcNAQEEBQAwgawxCzAJBgNVBAYTAlVT
MQswCQYDVQQIEwJPSDERMA8GA1UEBxMIQ29sdW1idXMxEjAQBgNVBAoTCVZpa2lu
Z1ZQTjEdMBsGA1UECxMUTXlPcmdhbml6YXRpb25hbFVuaXQxFTATBgNVBAMTDFZp
a2luZ1ZQTiBDQTEQMA4GA1UEKRMHRWFzeVJTQTEhMB8GCSqGSIb3DQEJARYSbWVA
bXlob3N0Lm15ZG9tYWluMB4XDTEzMTIyMDAzMjc0NloXDTIzMTIxODAzMjc0Nlow
HTEbMBkGA1UEAxMSQ2xpZW50NzNDZXJ0MTc4ZDRkMIICIjANBgkqhkiG9w0BAQEF
AAOCAg8AMIICCgKCAgEAzeNBhuomk7t17+HxGlZvPcRB6DDhorE+NbVOBji91t+r
ZdaRHSgfFT8PR31VqDFIppKdShDdsPOTlUYAS9MGjw4sHTwK2WX726Wi0guNJCXH
F+Yie493HsXJKXypUxAQuzCI34puUXCZ2N3c7HllFMZeKHmvEqzDVw6Uxuw7d1bd
BModU72j8NRSv6h9X7tMcBbxtxJ9qImXv0XIHDckH2hWGzW/zQk6lok3V5OeXCkX
kaUFskgKEieDlRdDS5ZawFWD9loQb39tKNeKTXQDpQlTPV1eihMlIPAxN5wA1UVu
Sq8IjbWpOgOhNV8/q8rOc0IX1lVT/XUThedtaUWc3e9mdyWAcFK7LhBESVEacpWn
V7SOk6bgslIqNGUJAJ7QtKwCNlJcxdM9HlY3p1z3YyrMs6OEIaycZ1CR3/l2hWiD
37g2VL9oxcBouOB5XJMR2hVdUom2Sy4gLKjlW7dBUI+UjRf6zuYOAsMGnBO98yWS
+QCjkcA2559W7VIV9tIvOxDG0D/KWz6BVWaHh50xjzi50fFTfu4QQ1W+qWblJ8b0
Vz9VJtnyizIquyNmpWYu1DpTkjWYldIR9G0tndRKlBGdBIyPI9nAiZ4A/UVzk+Re
dW+ckHP6Li0dJF4aL0rYISlUfbZlfDlr+I4jRT/tc0BA4AG6Pe0wsSeHXMnIURUC
AwEAAaOCAWMwggFfMAkGA1UdEwQCMAAwLQYJYIZIAYb4QgENBCAWHkVhc3ktUlNB
IEdlbmVyYXRlZCBDZXJ0aWZpY2F0ZTAdBgNVHQ4EFgQULfH+pc3Li8jLthGDh5Pk
oii71kowgeEGA1UdIwSB2TCB1oAUEs1gBNKggJ5w7caZuHssxlL9GaGhgbKkga8w
gawxCzAJBgNVBAYTAlVTMQswCQYDVQQIEwJPSDERMA8GA1UEBxMIQ29sdW1idXMx
EjAQBgNVBAoTCVZpa2luZ1ZQTjEdMBsGA1UECxMUTXlPcmdhbml6YXRpb25hbFVu
aXQxFTATBgNVBAMTDFZpa2luZ1ZQTiBDQTEQMA4GA1UEKRMHRWFzeVJTQTEhMB8G
CSqGSIb3DQEJARYSbWVAbXlob3N0Lm15ZG9tYWluggkAzzWF7oC/Kj4wEwYDVR0l
BAwwCgYIKwYBBQUHAwIwCwYDVR0PBAQDAgeAMA0GCSqGSIb3DQEBBAUAA4ICAQBN
dTpYRNgtydtBQlk/E8PR1VhrXWFH9mXQA5WxlKh6QH0OtpGRba4y+kL6D9LbbAmC
O5/b0dC7HgZq0aivANLgxRcqovE7QeyIO+oCICWLSpgKjlKmKmjo7on8NL+lVC35
mdWfybvomsdEAthLKZFADl/rAr+DxrnjGnFrFEtjF63aoCqoSMt9UThXXZrfY7wF
1AR41b3YnE+BepgHzE+IzOZ5JBcd7D+nH+mxs5/kJSstEYjnasF7Uc2xBDVVISKg
zZVxSSsujEB3LNGoD0TRHKG194m2u8yvUgo8BWzfQv3qGFa+n2xCnEvedqadXYq3
stbCIwD9yzrpUCYvTmxTs2gQrptnVPAyX7EhTizvv1mcflFIwbmrjIJcUNlhPfzo
24F+9ve4+mDPT4VWcf6uwBbglVwO9aC2thdGe5LEgMSgb8ZISbvx0Jxe9nGk3vS2
30JbPTgJHwOVY9RjVOw6qtsPPaYjeWD9ftp7WQADaTdiYB+9pBpptptDxy28zhuG
v35675uFoHxvuPgf+YoVqCdaQENuj67gvezt66i+RFCdsBdqgOpWKnBF93IbpRSp
HI8XVkjsBHKGxpMTFQS4Jo4wB166oKCk6/la2XqKSAZFeEJloQy9Z0z4SIG5OJaV
kyUn23NopygXWvBjMPJWjduZNTuCP5dzIEE7czJdmg==
-----END CERTIFICATE-----
