Certificate:
    Data:
        Version: 3 (0x2)
        Serial Number: 634 (0x27a)
    Signature Algorithm: md5WithRSAEncryption
        Issuer: C=US, ST=OH, L=Columbus, O=VikingVPN, OU=MyOrganizationalUnit, CN=VikingVPN CA/name=EasyRSA/emailAddress=me@myhost.mydomain
        Validity
            Not Before: Dec 21 00:19:07 2013 GMT
            Not After : Dec 19 00:19:07 2023 GMT
        Subject: CN=Client2Certb68ce2
        Subject Public Key Info:
            Public Key Algorithm: rsaEncryption
                Public-Key: (4096 bit)
                Modulus:
                    00:b7:47:be:73:05:f7:ef:5f:e1:cc:44:5f:42:4a:
                    a1:de:1b:56:16:0c:1a:35:dc:3e:82:d3:52:cb:52:
                    23:9a:0f:39:f7:33:36:3f:c2:a6:cd:42:26:41:19:
                    35:36:cc:b3:9b:c5:e8:f2:0c:d6:74:81:cf:ad:68:
                    aa:f0:b8:8f:70:11:bb:6b:ac:eb:c3:7f:75:8e:24:
                    e1:95:b9:e2:2b:a2:9f:ed:b6:9a:8a:10:22:46:3a:
                    1b:c1:1f:67:15:eb:a7:44:85:32:f7:57:7d:f5:e8:
                    df:0f:07:04:6a:35:e7:10:30:9d:59:ad:cf:7b:cd:
                    56:ae:c5:02:d0:4d:a2:85:1d:bd:2d:12:30:c5:83:
                    64:00:40:e0:a6:6e:03:2a:64:59:15:db:89:21:f3:
                    a3:94:f4:84:e9:51:c9:9c:8b:c8:6a:ad:bd:31:b8:
                    f6:a3:f2:4e:3c:a7:6c:99:cf:e3:49:8e:2c:46:57:
                    df:68:49:b9:fd:a8:b6:cc:bd:fe:be:43:77:a9:e4:
                    c7:cb:ae:d4:9f:56:df:1f:80:2c:1d:20:a9:4b:66:
                    c8:01:94:fa:a9:46:c7:8f:ec:57:90:9f:65:c1:26:
                    b9:57:1f:8a:73:85:ea:88:c7:03:96:a4:03:55:e7:
                    df:0e:81:44:9f:35:ed:ff:26:bb:c2:3e:a9:8f:54:
                    05:7c:b9:b1:1e:94:42:86:1d:61:4b:19:2a:37:85:
                    2b:7a:cb:12:58:3d:04:cc:ce:01:1f:e1:7e:4d:08:
                    7c:a6:a5:38:a5:89:40:9e:3b:54:d9:a1:82:c1:d7:
                    32:8d:a8:cc:7f:ec:4f:ca:c5:66:b1:df:54:22:23:
                    7b:55:e4:f3:e0:25:51:cb:10:7f:74:88:7e:d6:fd:
                    21:10:ba:bb:2a:48:f8:e1:9e:5c:8e:a1:dd:54:35:
                    70:9f:f3:12:e7:c8:7f:50:99:fc:44:5c:83:9d:90:
                    b6:d2:ee:f3:e5:49:7d:3d:61:67:37:42:9d:45:73:
                    d9:09:e8:ce:b8:0b:98:df:b1:24:f2:cb:54:ad:b0:
                    fc:8a:e3:92:82:b8:30:a6:a6:d7:96:ae:ff:52:94:
                    2f:b5:8c:ae:57:3c:b9:f2:93:ec:30:44:27:6e:3e:
                    e3:eb:1f:cd:00:3b:00:89:5e:5a:7e:f5:e7:90:4d:
                    c4:5f:49:d2:6f:96:dd:d6:d1:8d:ea:9e:ca:f5:36:
                    11:ca:f0:de:55:b3:19:15:71:9c:4f:fd:d8:0a:56:
                    a3:3c:4e:7a:07:60:50:d0:39:df:30:d4:4c:c9:d4:
                    db:3c:b6:74:11:85:71:5f:cd:21:0a:4a:12:f4:04:
                    55:70:e8:31:19:85:99:8b:d9:21:1b:4f:87:d2:ed:
                    4b:8b:e7
                Exponent: 65537 (0x10001)
        X509v3 extensions:
            X509v3 Basic Constraints: 
                CA:FALSE
            Netscape Comment: 
                Easy-RSA Generated Certificate
            X509v3 Subject Key Identifier: 
                41:9B:AA:08:63:E9:1C:66:49:B1:BE:8B:33:85:EE:D3:E6:0D:28:44
            X509v3 Authority Key Identifier: 
                keyid:12:CD:60:04:D2:A0:80:9E:70:ED:C6:99:B8:7B:2C:C6:52:FD:19:A1
                DirName:/C=US/ST=OH/L=Columbus/O=VikingVPN/OU=MyOrganizationalUnit/CN=VikingVPN CA/name=EasyRSA/emailAddress=me@myhost.mydomain
                serial:CF:35:85:EE:80:BF:2A:3E

            X509v3 Extended Key Usage: 
                TLS Web Client Authentication
            X509v3 Key Usage: 
                Digital Signature
    Signature Algorithm: md5WithRSAEncryption
         94:a8:b6:13:1b:56:3b:d3:ae:4e:08:6c:9a:80:98:81:a8:d1:
         15:7a:c0:eb:9c:5d:8f:80:25:d2:92:15:d7:f5:d1:b7:6c:b4:
         06:54:48:fe:6d:83:3f:fa:5a:04:36:0e:cb:09:04:23:8a:f8:
         e3:1e:2f:74:40:c6:af:a1:12:e2:f3:43:b6:41:61:c6:35:13:
         56:5d:2e:bc:27:64:8a:bd:3e:b4:b4:c9:6c:ca:9f:75:b4:4f:
         90:d5:fc:10:81:5f:53:5b:d9:54:46:91:60:64:9f:8c:81:d0:
         ae:2e:69:06:be:cc:3a:e8:b1:34:88:8d:58:bd:8a:98:5a:f3:
         bd:f2:a7:17:53:36:e2:dc:35:3d:73:00:dc:fd:fe:62:a7:8c:
         d1:a9:9f:12:a8:f9:35:83:d5:0d:9e:88:5d:b3:9e:34:75:34:
         c9:fe:d0:c5:c3:1a:ae:93:f6:7c:30:d4:d4:78:c6:bd:0c:ae:
         fd:a5:ec:0d:f4:ab:6e:6c:69:1d:16:41:d2:5e:39:bc:6a:1d:
         f3:d8:c3:48:6b:6d:70:e2:03:9c:f7:38:20:14:dc:a0:4d:95:
         c8:fe:35:76:42:68:e8:03:1b:5c:aa:91:2c:90:f5:6b:5b:b4:
         89:ee:1c:98:6d:12:db:8a:8e:4a:e7:25:ef:6a:ad:78:b9:dd:
         b1:3d:92:82:1e:f4:83:b1:eb:f4:20:46:dd:82:07:e9:8b:ca:
         77:a2:6c:f4:8d:92:ea:3f:55:02:2a:5c:bb:f3:ea:8d:a0:8f:
         0d:e7:9e:d0:55:22:9e:f8:f8:6e:6a:ce:f7:c9:4c:bd:1c:8b:
         d4:a9:68:ee:fb:bf:94:9b:03:c6:41:50:fa:3f:ce:37:a8:09:
         43:f9:1b:90:92:9d:9a:da:66:6f:51:4d:d9:8d:0d:f7:03:07:
         c1:8b:c4:52:4c:31:e8:12:e5:c5:4f:fe:78:1c:97:f9:46:8e:
         58:36:b5:f9:74:0a:54:07:5d:cb:5b:4f:fb:f2:e5:6b:4e:9f:
         a0:4b:52:a5:c0:30:7a:23:20:c0:96:36:f7:65:a8:76:67:bc:
         a8:e8:c9:4f:1f:fd:cd:44:b2:48:80:0b:6e:92:c9:72:b8:c9:
         3d:0c:85:4f:57:1f:c7:9e:38:f7:d2:ff:44:9e:ca:be:50:dc:
         42:8a:fb:85:cc:22:eb:e0:58:4a:2b:25:4c:6d:81:6e:0e:e1:
         50:d6:29:02:07:ea:7b:7d:76:30:1b:2e:22:a1:a3:10:75:c7:
         06:19:19:86:28:f3:e8:84:fd:9c:10:a3:f0:d3:98:3c:7e:54:
         80:6c:b2:5e:b5:df:af:8f:0d:de:c1:78:98:18:ed:66:c0:60:
         86:ff:a6:2d:9f:78:63:03
-----BEGIN CERTIFICATE-----
MIIGqjCCBJKgAwIBAgICAnowDQYJKoZIhvcNAQEEBQAwgawxCzAJBgNVBAYTAlVT
MQswCQYDVQQIEwJPSDERMA8GA1UEBxMIQ29sdW1idXMxEjAQBgNVBAoTCVZpa2lu
Z1ZQTjEdMBsGA1UECxMUTXlPcmdhbml6YXRpb25hbFVuaXQxFTATBgNVBAMTDFZp
a2luZ1ZQTiBDQTEQMA4GA1UEKRMHRWFzeVJTQTEhMB8GCSqGSIb3DQEJARYSbWVA
bXlob3N0Lm15ZG9tYWluMB4XDTEzMTIyMTAwMTkwN1oXDTIzMTIxOTAwMTkwN1ow
HDEaMBgGA1UEAxMRQ2xpZW50MkNlcnRiNjhjZTIwggIiMA0GCSqGSIb3DQEBAQUA
A4ICDwAwggIKAoICAQC3R75zBffvX+HMRF9CSqHeG1YWDBo13D6C01LLUiOaDzn3
MzY/wqbNQiZBGTU2zLObxejyDNZ0gc+taKrwuI9wEbtrrOvDf3WOJOGVueIrop/t
tpqKECJGOhvBH2cV66dEhTL3V3316N8PBwRqNecQMJ1Zrc97zVauxQLQTaKFHb0t
EjDFg2QAQOCmbgMqZFkV24kh86OU9ITpUcmci8hqrb0xuPaj8k48p2yZz+NJjixG
V99oSbn9qLbMvf6+Q3ep5MfLrtSfVt8fgCwdIKlLZsgBlPqpRseP7FeQn2XBJrlX
H4pzheqIxwOWpANV598OgUSfNe3/JrvCPqmPVAV8ubEelEKGHWFLGSo3hSt6yxJY
PQTMzgEf4X5NCHympTiliUCeO1TZoYLB1zKNqMx/7E/KxWax31QiI3tV5PPgJVHL
EH90iH7W/SEQursqSPjhnlyOod1UNXCf8xLnyH9QmfxEXIOdkLbS7vPlSX09YWc3
Qp1Fc9kJ6M64C5jfsSTyy1StsPyK45KCuDCmpteWrv9SlC+1jK5XPLnyk+wwRCdu
PuPrH80AOwCJXlp+9eeQTcRfSdJvlt3W0Y3qnsr1NhHK8N5VsxkVcZxP/dgKVqM8
TnoHYFDQOd8w1EzJ1Ns8tnQRhXFfzSEKShL0BFVw6DEZhZmL2SEbT4fS7UuL5wID
AQABo4IBYzCCAV8wCQYDVR0TBAIwADAtBglghkgBhvhCAQ0EIBYeRWFzeS1SU0Eg
R2VuZXJhdGVkIENlcnRpZmljYXRlMB0GA1UdDgQWBBRBm6oIY+kcZkmxvoszhe7T
5g0oRDCB4QYDVR0jBIHZMIHWgBQSzWAE0qCAnnDtxpm4eyzGUv0ZoaGBsqSBrzCB
rDELMAkGA1UEBhMCVVMxCzAJBgNVBAgTAk9IMREwDwYDVQQHEwhDb2x1bWJ1czES
MBAGA1UEChMJVmlraW5nVlBOMR0wGwYDVQQLExRNeU9yZ2FuaXphdGlvbmFsVW5p
dDEVMBMGA1UEAxMMVmlraW5nVlBOIENBMRAwDgYDVQQpEwdFYXN5UlNBMSEwHwYJ
KoZIhvcNAQkBFhJtZUBteWhvc3QubXlkb21haW6CCQDPNYXugL8qPjATBgNVHSUE
DDAKBggrBgEFBQcDAjALBgNVHQ8EBAMCB4AwDQYJKoZIhvcNAQEEBQADggIBAJSo
thMbVjvTrk4IbJqAmIGo0RV6wOucXY+AJdKSFdf10bdstAZUSP5tgz/6WgQ2DssJ
BCOK+OMeL3RAxq+hEuLzQ7ZBYcY1E1ZdLrwnZIq9PrS0yWzKn3W0T5DV/BCBX1Nb
2VRGkWBkn4yB0K4uaQa+zDrosTSIjVi9ipha873ypxdTNuLcNT1zANz9/mKnjNGp
nxKo+TWD1Q2eiF2znjR1NMn+0MXDGq6T9nww1NR4xr0Mrv2l7A30q25saR0WQdJe
ObxqHfPYw0hrbXDiA5z3OCAU3KBNlcj+NXZCaOgDG1yqkSyQ9WtbtInuHJhtEtuK
jkrnJe9qrXi53bE9koIe9IOx6/QgRt2CB+mLyneibPSNkuo/VQIqXLvz6o2gjw3n
ntBVIp74+G5qzvfJTL0ci9SpaO77v5SbA8ZBUPo/zjeoCUP5G5CSnZraZm9RTdmN
DfcDB8GLxFJMMegS5cVP/ngcl/lGjlg2tfl0ClQHXctbT/vy5WtOn6BLUqXAMHoj
IMCWNvdlqHZnvKjoyU8f/c1EskiAC26SyXK4yT0MhU9XH8eeOPfS/0Seyr5Q3EKK
+4XMIuvgWEorJUxtgW4O4VDWKQIH6nt9djAbLiKhoxB1xwYZGYYo8+iE/ZwQo/DT
mDx+VIBssl6136+PDd7BeJgY7WbAYIb/pi2feGMD
-----END CERTIFICATE-----
