Certificate:
    Data:
        Version: 3 (0x2)
        Serial Number: 645 (0x285)
    Signature Algorithm: md5WithRSAEncryption
        Issuer: C=US, ST=OH, L=Columbus, O=VikingVPN, OU=MyOrganizationalUnit, CN=VikingVPN CA/name=EasyRSA/emailAddress=me@myhost.mydomain
        Validity
            Not Before: Dec 23 02:15:41 2013 GMT
            Not After : Dec 21 02:15:41 2023 GMT
        Subject: CN=Client208Certa42881
        Subject Public Key Info:
            Public Key Algorithm: rsaEncryption
                Public-Key: (4096 bit)
                Modulus:
                    00:ac:8e:ed:61:b7:89:44:d7:09:a0:60:64:9d:ba:
                    53:fe:96:e7:79:15:a2:1d:71:32:f1:5e:19:45:0f:
                    99:3c:23:fe:6b:54:6c:91:88:9e:6c:27:d3:b3:f3:
                    15:9c:f8:da:2b:5a:48:9d:34:bb:a6:02:0f:2b:2f:
                    f5:89:2a:f6:a1:be:a7:97:a1:97:90:73:8b:72:9e:
                    c6:76:cc:29:46:88:98:02:8a:71:8a:60:8d:4a:e2:
                    2d:35:b4:be:29:4d:0a:59:e4:b2:45:49:a5:cd:73:
                    fb:91:85:e8:f9:60:46:80:df:9e:60:de:1f:9a:41:
                    49:e2:a9:b6:c1:54:bb:e9:90:84:84:de:27:e6:9c:
                    e0:fe:2d:b4:40:67:0f:81:8d:83:73:1d:06:43:8d:
                    0e:48:e4:4b:34:94:2c:32:3a:df:83:ce:c1:82:d9:
                    11:2d:45:11:a0:36:70:d0:0e:ca:bf:04:83:da:3e:
                    e5:53:59:30:f4:e5:1a:42:b1:3d:27:83:18:8a:70:
                    bf:03:ed:7b:08:7c:bc:b3:90:69:1f:29:3a:dd:8c:
                    b3:64:89:b5:ea:75:79:80:c9:bb:98:41:23:4d:63:
                    55:a0:50:ba:88:2e:26:d9:6a:dd:f2:27:87:93:c9:
                    cd:78:57:b6:f6:b9:7e:d2:53:1a:dd:cd:ce:3b:8b:
                    53:50:12:36:52:99:90:1e:62:53:4b:a9:6c:fc:20:
                    ac:99:3d:46:61:47:c5:a0:d1:5c:3a:2d:a0:65:b1:
                    7c:33:39:43:a5:48:e1:d4:b7:fe:49:a5:ec:6b:5b:
                    14:39:43:a5:1d:2e:53:c1:5d:eb:a6:b4:a7:37:69:
                    03:55:a8:c8:27:4c:58:18:21:ae:07:c4:ec:66:da:
                    2b:d3:7b:a5:c9:55:c7:1a:56:c1:55:9c:be:23:07:
                    90:c2:f7:29:de:a3:99:c3:01:f7:6c:90:ae:df:03:
                    9a:09:95:d5:89:df:ea:09:d4:b0:78:d3:17:dd:26:
                    84:49:8c:29:b0:49:82:ae:11:96:15:91:8c:94:01:
                    a7:02:90:87:7e:3c:13:e5:73:6d:b8:9e:a9:38:f0:
                    e4:67:d3:08:e8:54:a3:89:c4:fa:d0:a7:3a:3e:8d:
                    22:cf:e2:72:c0:50:b7:66:18:95:ad:5c:e7:36:e1:
                    68:b3:37:11:4d:fc:cb:2c:c8:02:f9:26:d1:a6:c5:
                    8b:9e:bf:a4:e0:6a:67:26:24:b5:23:93:8c:e0:67:
                    40:a9:37:53:fa:26:d4:6f:42:9b:ae:00:42:de:0c:
                    71:ed:b5:75:9e:22:eb:84:7b:d7:7a:d0:11:f5:48:
                    29:03:d5:34:30:ba:82:4c:9b:a2:64:6d:82:36:60:
                    a2:b1:51
                Exponent: 65537 (0x10001)
        X509v3 extensions:
            X509v3 Basic Constraints: 
                CA:FALSE
            Netscape Comment: 
                Easy-RSA Generated Certificate
            X509v3 Subject Key Identifier: 
                29:52:34:D3:E1:75:EC:E4:97:C3:E2:58:27:5E:6C:CE:BD:9A:2D:7E
            X509v3 Authority Key Identifier: 
                keyid:12:CD:60:04:D2:A0:80:9E:70:ED:C6:99:B8:7B:2C:C6:52:FD:19:A1
                DirName:/C=US/ST=OH/L=Columbus/O=VikingVPN/OU=MyOrganizationalUnit/CN=VikingVPN CA/name=EasyRSA/emailAddress=me@myhost.mydomain
                serial:CF:35:85:EE:80:BF:2A:3E

            X509v3 Extended Key Usage: 
                TLS Web Client Authentication
            X509v3 Key Usage: 
                Digital Signature
    Signature Algorithm: md5WithRSAEncryption
         8b:5b:b0:8c:7f:95:a4:fa:e4:e1:88:6e:07:de:3f:4f:63:c8:
         45:cd:2c:1a:97:0d:ce:fa:6d:dc:e6:aa:ad:c1:14:f9:39:01:
         e5:10:68:b5:47:6c:31:6f:f3:12:6f:6b:52:b7:cf:b9:9e:19:
         ba:9f:f3:9a:e8:29:bf:18:81:4c:c4:98:70:7c:87:77:53:aa:
         08:b7:87:97:60:7b:e5:54:7b:ea:f9:df:5b:7f:22:b8:5c:bb:
         60:d5:5b:b5:8b:89:da:9d:09:c5:9c:0b:af:d9:63:a9:93:5a:
         ba:41:88:f9:ba:a5:5e:5c:2e:33:a3:39:38:e4:02:43:9e:e7:
         39:eb:ef:3a:a3:25:20:aa:3a:08:23:0b:9c:79:dc:c4:65:ba:
         1a:eb:59:d5:e7:24:92:64:06:74:8a:b1:5e:77:b2:ea:28:98:
         ad:6b:52:ec:a5:47:84:e4:50:d2:28:d8:27:69:58:26:42:fe:
         0f:e6:12:18:59:87:46:59:d2:51:88:1b:f9:91:92:5a:7a:48:
         b7:25:55:fc:a7:e8:ee:17:91:04:ca:61:3c:f9:83:78:11:e6:
         86:26:95:f6:1e:c0:ae:55:46:65:23:37:70:c9:02:01:be:16:
         0a:90:13:d1:fe:da:67:4c:f9:a5:8f:11:aa:ae:c5:e1:e2:7d:
         a6:40:f4:d1:c0:2a:96:bc:19:ac:1a:c0:de:dc:7c:a8:47:64:
         b7:8c:48:b1:42:97:35:7c:73:66:b1:33:c1:ff:24:79:21:15:
         23:72:d7:ae:57:7f:78:a8:3d:56:ea:13:8b:be:24:a9:f6:9b:
         cd:43:0b:71:38:35:dc:10:5a:32:1b:c0:75:4c:00:94:e1:22:
         64:61:7f:a2:ca:a7:97:49:c6:e2:27:79:fd:cf:41:89:ea:72:
         2f:3f:58:60:39:ea:82:4e:7c:0a:7f:41:cd:b1:a6:0d:36:21:
         1d:72:e8:9b:85:c2:c2:41:d1:25:aa:8a:36:dc:c5:6b:85:66:
         3f:0a:c7:a1:ad:0d:24:f0:a2:78:d1:e5:07:7a:8a:b8:39:f3:
         16:b6:56:cf:69:8f:fd:f6:7e:c3:2a:b2:29:df:ca:1e:79:6f:
         91:1f:18:fb:4c:63:5a:17:8b:a3:86:0f:dd:29:ee:3b:4e:ba:
         95:37:da:b3:48:b1:2f:b5:62:20:ef:0c:00:0f:7d:72:17:81:
         a4:f7:f4:9e:f6:08:56:d4:e5:37:5a:34:f8:10:ff:b4:f7:15:
         70:cd:5f:2d:51:e3:9b:01:3e:8e:e8:54:bb:5d:b9:ee:cc:8e:
         c2:8f:e1:fe:3c:b8:f6:03:51:0d:5e:30:15:4d:d9:66:4e:10:
         c0:3c:dd:a3:ef:51:2d:d5
-----BEGIN CERTIFICATE-----
MIIGrDCCBJSgAwIBAgICAoUwDQYJKoZIhvcNAQEEBQAwgawxCzAJBgNVBAYTAlVT
MQswCQYDVQQIEwJPSDERMA8GA1UEBxMIQ29sdW1idXMxEjAQBgNVBAoTCVZpa2lu
Z1ZQTjEdMBsGA1UECxMUTXlPcmdhbml6YXRpb25hbFVuaXQxFTATBgNVBAMTDFZp
a2luZ1ZQTiBDQTEQMA4GA1UEKRMHRWFzeVJTQTEhMB8GCSqGSIb3DQEJARYSbWVA
bXlob3N0Lm15ZG9tYWluMB4XDTEzMTIyMzAyMTU0MVoXDTIzMTIyMTAyMTU0MVow
HjEcMBoGA1UEAxMTQ2xpZW50MjA4Q2VydGE0Mjg4MTCCAiIwDQYJKoZIhvcNAQEB
BQADggIPADCCAgoCggIBAKyO7WG3iUTXCaBgZJ26U/6W53kVoh1xMvFeGUUPmTwj
/mtUbJGInmwn07PzFZz42itaSJ00u6YCDysv9Ykq9qG+p5ehl5Bzi3KexnbMKUaI
mAKKcYpgjUriLTW0vilNClnkskVJpc1z+5GF6PlgRoDfnmDeH5pBSeKptsFUu+mQ
hITeJ+ac4P4ttEBnD4GNg3MdBkONDkjkSzSULDI634POwYLZES1FEaA2cNAOyr8E
g9o+5VNZMPTlGkKxPSeDGIpwvwPtewh8vLOQaR8pOt2Ms2SJtep1eYDJu5hBI01j
VaBQuoguJtlq3fInh5PJzXhXtva5ftJTGt3NzjuLU1ASNlKZkB5iU0upbPwgrJk9
RmFHxaDRXDotoGWxfDM5Q6VI4dS3/kml7GtbFDlDpR0uU8Fd66a0pzdpA1WoyCdM
WBghrgfE7GbaK9N7pclVxxpWwVWcviMHkML3Kd6jmcMB92yQrt8DmgmV1Ynf6gnU
sHjTF90mhEmMKbBJgq4RlhWRjJQBpwKQh348E+VzbbieqTjw5GfTCOhUo4nE+tCn
Oj6NIs/icsBQt2YYla1c5zbhaLM3EU38yyzIAvkm0abFi56/pOBqZyYktSOTjOBn
QKk3U/om1G9Cm64AQt4Mce21dZ4i64R713rQEfVIKQPVNDC6gkybomRtgjZgorFR
AgMBAAGjggFjMIIBXzAJBgNVHRMEAjAAMC0GCWCGSAGG+EIBDQQgFh5FYXN5LVJT
QSBHZW5lcmF0ZWQgQ2VydGlmaWNhdGUwHQYDVR0OBBYEFClSNNPhdezkl8PiWCde
bM69mi1+MIHhBgNVHSMEgdkwgdaAFBLNYATSoICecO3Gmbh7LMZS/RmhoYGypIGv
MIGsMQswCQYDVQQGEwJVUzELMAkGA1UECBMCT0gxETAPBgNVBAcTCENvbHVtYnVz
MRIwEAYDVQQKEwlWaWtpbmdWUE4xHTAbBgNVBAsTFE15T3JnYW5pemF0aW9uYWxV
bml0MRUwEwYDVQQDEwxWaWtpbmdWUE4gQ0ExEDAOBgNVBCkTB0Vhc3lSU0ExITAf
BgkqhkiG9w0BCQEWEm1lQG15aG9zdC5teWRvbWFpboIJAM81he6Avyo+MBMGA1Ud
JQQMMAoGCCsGAQUFBwMCMAsGA1UdDwQEAwIHgDANBgkqhkiG9w0BAQQFAAOCAgEA
i1uwjH+VpPrk4YhuB94/T2PIRc0sGpcNzvpt3OaqrcEU+TkB5RBotUdsMW/zEm9r
UrfPuZ4Zup/zmugpvxiBTMSYcHyHd1OqCLeHl2B75VR76vnfW38iuFy7YNVbtYuJ
2p0JxZwLr9ljqZNaukGI+bqlXlwuM6M5OOQCQ57nOevvOqMlIKo6CCMLnHncxGW6
GutZ1eckkmQGdIqxXney6iiYrWtS7KVHhORQ0ijYJ2lYJkL+D+YSGFmHRlnSUYgb
+ZGSWnpItyVV/Kfo7heRBMphPPmDeBHmhiaV9h7ArlVGZSM3cMkCAb4WCpAT0f7a
Z0z5pY8Rqq7F4eJ9pkD00cAqlrwZrBrA3tx8qEdkt4xIsUKXNXxzZrEzwf8keSEV
I3LXrld/eKg9VuoTi74kqfabzUMLcTg13BBaMhvAdUwAlOEiZGF/osqnl0nG4id5
/c9BiepyLz9YYDnqgk58Cn9BzbGmDTYhHXLom4XCwkHRJaqKNtzFa4VmPwrHoa0N
JPCieNHlB3qKuDnzFrZWz2mP/fZ+wyqyKd/KHnlvkR8Y+0xjWheLo4YP3SnuO066
lTfas0ixL7ViIO8MAA99cheBpPf0nvYIVtTlN1o0+BD/tPcVcM1fLVHjmwE+juhU
u1257syOwo/h/jy49gNRDV4wFU3ZZk4QwDzdo+9RLdU=
-----END CERTIFICATE-----
