Certificate:
    Data:
        Version: 3 (0x2)
        Serial Number: 655 (0x28f)
    Signature Algorithm: md5WithRSAEncryption
        Issuer: C=US, ST=OH, L=Columbus, O=VikingVPN, OU=MyOrganizationalUnit, CN=VikingVPN CA/name=EasyRSA/emailAddress=me@myhost.mydomain
        Validity
            Not Before: Dec 25 23:32:06 2013 GMT
            Not After : Dec 23 23:32:06 2023 GMT
        Subject: CN=Client254Cert8819d6
        Subject Public Key Info:
            Public Key Algorithm: rsaEncryption
                Public-Key: (4096 bit)
                Modulus:
                    00:bb:b5:76:6d:88:d5:bd:f3:d5:4b:f4:6d:5e:ce:
                    0a:5f:4d:8d:4e:a9:b8:ad:6f:77:dc:7d:00:b0:a7:
                    a5:3d:37:f8:90:da:40:ce:27:fe:fd:9a:6f:2d:85:
                    61:a7:d6:66:84:ab:1e:71:79:c1:39:52:33:aa:01:
                    18:d1:b5:7d:de:1b:cd:fd:64:d8:4b:e9:30:8e:34:
                    79:fc:6f:b1:ac:57:09:c9:3c:f9:b9:1e:d1:99:31:
                    11:7a:2c:a7:6b:ac:2a:38:2d:c6:3d:04:7a:7d:11:
                    6d:d1:30:c8:d6:c8:f1:eb:fc:36:71:3c:fa:87:a2:
                    f4:b2:47:c5:ee:55:e2:84:3a:32:83:33:14:48:f6:
                    cb:a7:4a:03:11:9a:87:bd:db:92:a6:bc:a7:5c:c6:
                    73:78:0f:5c:37:67:3f:e5:68:b6:71:ba:69:9e:5e:
                    5b:d5:33:9d:8c:f2:18:c7:74:3d:61:ff:fd:74:37:
                    61:34:6b:6c:2c:f7:10:47:9d:7b:49:c3:19:e3:da:
                    8a:f4:f0:54:51:5c:99:42:03:f0:56:42:b4:7a:9d:
                    11:cb:7d:8d:51:45:d2:31:43:4b:c4:16:73:1a:e7:
                    85:3d:f3:bc:16:ad:f2:64:6d:64:de:2e:61:94:4f:
                    ec:0e:0f:2c:7f:83:f2:68:76:4c:a1:aa:2b:3f:39:
                    8f:ed:ac:5e:f0:28:74:4f:f4:00:da:d1:f3:84:2b:
                    8c:74:24:ff:46:c9:46:46:ee:bf:91:d4:2e:28:f6:
                    54:42:23:0e:e7:49:2c:aa:c1:f9:8a:4c:6e:05:4a:
                    88:a1:fc:c4:09:ef:07:e2:b3:5f:cd:18:21:f0:cc:
                    47:d6:ed:d6:72:a5:07:0c:b7:df:f2:b8:db:1f:20:
                    85:fd:46:c1:45:a3:1c:07:24:2e:ad:e9:fa:36:96:
                    6c:ef:f7:ad:c9:de:4b:b2:cd:19:12:c1:9a:4e:d7:
                    51:3b:6e:3f:46:93:d7:13:25:98:52:6a:88:df:ee:
                    cc:2e:82:cb:28:b4:04:3d:05:1a:aa:5a:f2:87:f4:
                    9c:03:31:24:8c:36:54:c5:96:59:60:6e:86:f6:51:
                    95:1e:ab:c5:a2:e7:12:b3:51:49:8b:09:e8:c6:d6:
                    93:78:27:43:62:fe:da:8f:8e:4c:50:ed:d6:6f:b2:
                    51:2b:1b:8c:c6:e7:81:57:75:96:3a:9c:94:6a:f8:
                    de:52:5c:67:56:86:16:db:73:37:6c:2c:06:b8:9e:
                    fb:01:4c:a0:ce:3f:d1:f0:c4:77:81:f7:97:c8:ed:
                    db:54:28:ef:a7:04:1a:11:69:ff:c6:75:0c:d2:b1:
                    6c:3a:2d:aa:af:17:fe:b5:4c:39:80:fb:50:f0:f2:
                    c6:cc:67
                Exponent: 65537 (0x10001)
        X509v3 extensions:
            X509v3 Basic Constraints: 
                CA:FALSE
            Netscape Comment: 
                Easy-RSA Generated Certificate
            X509v3 Subject Key Identifier: 
                3D:6D:BD:D6:D8:F2:95:CD:87:4C:17:1B:76:AD:A3:9C:CD:5D:94:C0
            X509v3 Authority Key Identifier: 
                keyid:12:CD:60:04:D2:A0:80:9E:70:ED:C6:99:B8:7B:2C:C6:52:FD:19:A1
                DirName:/C=US/ST=OH/L=Columbus/O=VikingVPN/OU=MyOrganizationalUnit/CN=VikingVPN CA/name=EasyRSA/emailAddress=me@myhost.mydomain
                serial:CF:35:85:EE:80:BF:2A:3E

            X509v3 Extended Key Usage: 
                TLS Web Client Authentication
            X509v3 Key Usage: 
                Digital Signature
    Signature Algorithm: md5WithRSAEncryption
         7e:c3:a6:40:f2:a2:21:77:89:f4:07:b2:6d:44:ea:11:16:b6:
         6f:cc:00:bc:94:c5:88:85:88:2c:4b:80:ea:84:d7:09:ed:9d:
         27:96:e1:a7:fd:57:e8:e2:62:06:ec:24:06:e2:7e:39:23:12:
         eb:22:ca:fd:67:a4:3c:88:4b:68:f4:0f:d3:fd:28:86:77:28:
         8a:56:46:fa:19:45:91:a7:b8:79:ce:9f:6f:e1:f1:b6:cf:ea:
         19:25:96:03:a3:f3:c9:a1:dd:c0:5a:2c:16:9d:10:20:fe:9e:
         a5:b5:1c:3f:af:37:06:75:92:4a:27:66:ee:6d:fb:86:c3:98:
         2c:db:53:d5:c7:8a:36:43:33:fd:04:37:63:02:27:86:a6:91:
         7a:8d:11:7b:fa:51:27:f5:a3:83:c2:d8:11:0c:d9:53:fb:5e:
         c7:a7:af:a7:4b:d8:c7:fc:3b:9a:80:be:31:ef:ab:d4:68:f9:
         3b:dd:2b:03:8b:16:44:6f:c0:50:ba:ed:43:90:39:16:28:08:
         7e:28:22:24:b2:a4:82:3f:72:ba:58:07:b1:7b:f0:df:82:05:
         7c:24:ea:74:7a:50:41:0d:92:1c:d5:fb:80:a6:23:01:af:43:
         be:01:6f:15:6f:61:80:e3:92:13:fc:84:33:80:0d:30:99:2f:
         84:c3:39:bd:26:01:23:06:b8:7a:90:35:10:40:83:df:a6:d1:
         50:83:8d:f5:51:2b:ad:1e:a9:dc:0f:51:5a:fc:27:fd:0c:0a:
         03:50:4c:10:c4:54:71:89:bc:f5:79:ec:db:60:27:31:47:2d:
         47:ba:bb:f2:4d:65:fa:4d:73:e5:1e:28:4e:c8:de:25:b0:3b:
         3f:67:2b:cd:7f:74:0a:9c:1a:49:c5:ed:e1:c7:2f:92:0c:b9:
         91:0f:64:4a:a3:9e:0e:ef:a6:08:4e:a3:f3:7b:a3:7e:f1:51:
         92:24:35:01:89:bf:cc:cf:63:d6:77:77:ed:2c:41:fa:e1:10:
         ef:c7:f3:9a:33:bd:1b:c5:ff:c4:f6:e6:52:d6:d0:cd:cb:2b:
         0e:4e:e4:65:b6:d5:b3:5a:b4:b5:f0:bf:e1:f3:24:c6:b0:55:
         d3:96:83:9b:ec:9c:6d:30:21:b5:c1:f9:e3:89:eb:ba:59:4e:
         28:64:09:07:1c:e3:86:df:d0:a6:41:05:84:8f:e7:50:3d:6e:
         4f:fa:a2:06:37:2a:36:59:ae:7a:bf:ea:d2:ea:fe:31:bb:13:
         93:6e:ee:66:a3:9a:ea:e8:3a:3a:d4:45:92:8e:4d:c9:d7:b9:
         07:7a:c3:f6:6e:97:3e:27:18:45:8a:40:fd:c1:fd:ba:3e:9a:
         f5:10:97:fd:a5:a8:bd:38
-----BEGIN CERTIFICATE-----
MIIGrDCCBJSgAwIBAgICAo8wDQYJKoZIhvcNAQEEBQAwgawxCzAJBgNVBAYTAlVT
MQswCQYDVQQIEwJPSDERMA8GA1UEBxMIQ29sdW1idXMxEjAQBgNVBAoTCVZpa2lu
Z1ZQTjEdMBsGA1UECxMUTXlPcmdhbml6YXRpb25hbFVuaXQxFTATBgNVBAMTDFZp
a2luZ1ZQTiBDQTEQMA4GA1UEKRMHRWFzeVJTQTEhMB8GCSqGSIb3DQEJARYSbWVA
bXlob3N0Lm15ZG9tYWluMB4XDTEzMTIyNTIzMzIwNloXDTIzMTIyMzIzMzIwNlow
HjEcMBoGA1UEAxMTQ2xpZW50MjU0Q2VydDg4MTlkNjCCAiIwDQYJKoZIhvcNAQEB
BQADggIPADCCAgoCggIBALu1dm2I1b3z1Uv0bV7OCl9NjU6puK1vd9x9ALCnpT03
+JDaQM4n/v2aby2FYafWZoSrHnF5wTlSM6oBGNG1fd4bzf1k2EvpMI40efxvsaxX
Cck8+bke0ZkxEXosp2usKjgtxj0Een0RbdEwyNbI8ev8NnE8+oei9LJHxe5V4oQ6
MoMzFEj2y6dKAxGah73bkqa8p1zGc3gPXDdnP+VotnG6aZ5eW9UznYzyGMd0PWH/
/XQ3YTRrbCz3EEede0nDGePaivTwVFFcmUID8FZCtHqdEct9jVFF0jFDS8QWcxrn
hT3zvBat8mRtZN4uYZRP7A4PLH+D8mh2TKGqKz85j+2sXvAodE/0ANrR84QrjHQk
/0bJRkbuv5HULij2VEIjDudJLKrB+YpMbgVKiKH8xAnvB+KzX80YIfDMR9bt1nKl
Bwy33/K42x8ghf1GwUWjHAckLq3p+jaWbO/3rcneS7LNGRLBmk7XUTtuP0aT1xMl
mFJqiN/uzC6Cyyi0BD0FGqpa8of0nAMxJIw2VMWWWWBuhvZRlR6rxaLnErNRSYsJ
6MbWk3gnQ2L+2o+OTFDt1m+yUSsbjMbngVd1ljqclGr43lJcZ1aGFttzN2wsBrie
+wFMoM4/0fDEd4H3l8jt21Qo76cEGhFp/8Z1DNKxbDotqq8X/rVMOYD7UPDyxsxn
AgMBAAGjggFjMIIBXzAJBgNVHRMEAjAAMC0GCWCGSAGG+EIBDQQgFh5FYXN5LVJT
QSBHZW5lcmF0ZWQgQ2VydGlmaWNhdGUwHQYDVR0OBBYEFD1tvdbY8pXNh0wXG3at
o5zNXZTAMIHhBgNVHSMEgdkwgdaAFBLNYATSoICecO3Gmbh7LMZS/RmhoYGypIGv
MIGsMQswCQYDVQQGEwJVUzELMAkGA1UECBMCT0gxETAPBgNVBAcTCENvbHVtYnVz
MRIwEAYDVQQKEwlWaWtpbmdWUE4xHTAbBgNVBAsTFE15T3JnYW5pemF0aW9uYWxV
bml0MRUwEwYDVQQDEwxWaWtpbmdWUE4gQ0ExEDAOBgNVBCkTB0Vhc3lSU0ExITAf
BgkqhkiG9w0BCQEWEm1lQG15aG9zdC5teWRvbWFpboIJAM81he6Avyo+MBMGA1Ud
JQQMMAoGCCsGAQUFBwMCMAsGA1UdDwQEAwIHgDANBgkqhkiG9w0BAQQFAAOCAgEA
fsOmQPKiIXeJ9AeybUTqERa2b8wAvJTFiIWILEuA6oTXCe2dJ5bhp/1X6OJiBuwk
BuJ+OSMS6yLK/WekPIhLaPQP0/0ohncoilZG+hlFkae4ec6fb+Hxts/qGSWWA6Pz
yaHdwFosFp0QIP6epbUcP683BnWSSidm7m37hsOYLNtT1ceKNkMz/QQ3YwInhqaR
eo0Re/pRJ/Wjg8LYEQzZU/tex6evp0vYx/w7moC+Me+r1Gj5O90rA4sWRG/AULrt
Q5A5FigIfigiJLKkgj9yulgHsXvw34IFfCTqdHpQQQ2SHNX7gKYjAa9DvgFvFW9h
gOOSE/yEM4ANMJkvhMM5vSYBIwa4epA1EECD36bRUION9VErrR6p3A9RWvwn/QwK
A1BMEMRUcYm89Xns22AnMUctR7q78k1l+k1z5R4oTsjeJbA7P2crzX90CpwaScXt
4ccvkgy5kQ9kSqOeDu+mCE6j83ujfvFRkiQ1AYm/zM9j1nd37SxB+uEQ78fzmjO9
G8X/xPbmUtbQzcsrDk7kZbbVs1q0tfC/4fMkxrBV05aDm+ycbTAhtcH544nrullO
KGQJBxzjht/QpkEFhI/nUD1uT/qiBjcqNlmuer/q0ur+MbsTk27uZqOa6ug6OtRF
ko5Nyde5B3rD9m6XPicYRYpA/cH9uj6a9RCX/aWovTg=
-----END CERTIFICATE-----
