Certificate:
    Data:
        Version: 3 (0x2)
        Serial Number: 657 (0x291)
    Signature Algorithm: md5WithRSAEncryption
        Issuer: C=US, ST=OH, L=Columbus, O=VikingVPN, OU=MyOrganizationalUnit, CN=VikingVPN CA/name=EasyRSA/emailAddress=me@myhost.mydomain
        Validity
            Not Before: Dec 26 03:25:59 2013 GMT
            Not After : Dec 24 03:25:59 2023 GMT
        Subject: CN=Client255Cert6e1c8c
        Subject Public Key Info:
            Public Key Algorithm: rsaEncryption
                Public-Key: (4096 bit)
                Modulus:
                    00:b1:41:87:bc:5f:b5:50:e9:f2:58:7a:8f:eb:2e:
                    0d:7d:b2:44:59:87:b3:40:a1:4c:4a:40:a2:66:5f:
                    0c:76:11:b8:a3:86:60:9e:0a:9a:5a:51:ea:23:cb:
                    bf:60:a2:ca:83:aa:f6:c6:ce:22:31:2d:49:c3:cc:
                    87:ae:ed:c5:f5:14:ee:5b:6e:3a:3a:4b:c6:f5:b1:
                    1a:cd:b0:44:28:9f:25:f5:cc:1e:25:69:e1:04:52:
                    b7:01:60:d2:f5:7d:c5:2c:a5:54:68:19:bf:32:48:
                    61:50:52:04:94:fc:ed:67:6d:03:95:4f:0c:ea:28:
                    fc:66:50:cf:eb:de:24:b5:c4:6b:02:34:e9:3a:10:
                    db:c8:16:67:b4:6d:04:9d:4e:26:f5:1a:cb:11:16:
                    10:aa:54:ff:97:c4:5c:d7:10:c8:c7:54:b1:ce:81:
                    14:53:ed:19:5d:59:3d:4b:cc:5e:33:9d:49:be:8d:
                    de:c5:02:a8:9e:0d:b3:c3:9e:fb:55:df:97:d3:9c:
                    ce:75:fa:97:fa:ad:31:0a:8e:83:51:b1:f2:0b:23:
                    21:1f:49:ef:df:2c:1c:e0:e4:c1:b3:fd:fa:b0:62:
                    fa:f0:ec:16:e8:ae:f7:6e:f6:09:a9:b4:69:c7:f0:
                    b5:c2:49:1e:b0:a3:50:8f:ca:ab:a2:b7:ef:74:d5:
                    45:4c:f3:e9:43:27:b3:38:11:d1:ab:d5:aa:7d:29:
                    30:93:53:a0:f1:90:1b:82:33:7e:a6:8a:a9:a4:df:
                    e6:61:03:52:04:d7:e4:7f:43:4a:67:81:d3:d8:77:
                    b4:ad:a2:e2:43:16:7a:17:23:13:13:39:e1:9c:38:
                    2e:62:ba:69:5e:da:73:06:cf:ec:21:73:ea:05:7d:
                    96:f0:32:c5:80:83:c3:f1:19:02:fa:de:99:bc:de:
                    22:c9:6c:b8:c3:a9:ed:3c:3a:c5:bb:32:b4:9b:2a:
                    e6:39:3a:6c:7a:25:09:a6:0a:6f:84:0c:7f:91:0a:
                    fa:d7:14:ea:23:48:3b:ad:b6:86:17:3c:e7:df:ad:
                    e9:41:e0:1d:8b:19:db:ab:f0:9f:ba:89:01:a3:8e:
                    b1:12:ac:05:bc:12:6c:bd:41:44:f4:ec:4b:24:e7:
                    6f:14:0b:c0:45:42:0e:fd:19:50:d0:87:1e:61:ba:
                    8f:bd:6f:d2:d8:29:f4:53:f2:02:2a:1e:88:17:3c:
                    a1:bf:39:c1:53:43:09:8e:f8:11:c6:11:c1:db:3f:
                    7f:eb:ce:77:ca:e4:ec:05:84:3f:86:14:b7:a7:4c:
                    99:aa:85:59:a1:15:f4:33:b4:16:a3:ff:3f:3a:64:
                    92:03:90:4f:08:c1:12:87:14:4f:2e:45:35:4b:36:
                    6a:63:99
                Exponent: 65537 (0x10001)
        X509v3 extensions:
            X509v3 Basic Constraints: 
                CA:FALSE
            Netscape Comment: 
                Easy-RSA Generated Certificate
            X509v3 Subject Key Identifier: 
                B2:13:BC:23:7D:A2:CD:99:20:E4:2D:62:84:E3:9E:BC:DC:0A:4E:7B
            X509v3 Authority Key Identifier: 
                keyid:12:CD:60:04:D2:A0:80:9E:70:ED:C6:99:B8:7B:2C:C6:52:FD:19:A1
                DirName:/C=US/ST=OH/L=Columbus/O=VikingVPN/OU=MyOrganizationalUnit/CN=VikingVPN CA/name=EasyRSA/emailAddress=me@myhost.mydomain
                serial:CF:35:85:EE:80:BF:2A:3E

            X509v3 Extended Key Usage: 
                TLS Web Client Authentication
            X509v3 Key Usage: 
                Digital Signature
    Signature Algorithm: md5WithRSAEncryption
         97:70:8d:a1:ef:24:b6:03:82:62:a3:e6:7f:26:2d:8c:15:22:
         c5:7a:ce:bb:8a:1f:37:ef:f1:85:7f:49:1c:31:11:b3:29:ad:
         4d:13:e4:5b:13:6a:5c:1a:e7:fd:d5:6f:7c:dd:e7:b3:ce:57:
         b6:be:d8:0c:bb:03:5e:69:01:7c:d4:71:28:f8:4e:9b:c3:dc:
         c2:37:00:73:8c:b3:05:c2:ad:f1:37:d4:ba:70:12:19:11:e6:
         ef:1c:69:9d:69:bb:93:0d:5a:fb:3b:f7:5b:5e:6b:39:a1:ee:
         fd:88:29:ee:f3:8c:81:61:a0:68:57:4f:86:ad:15:e8:e1:12:
         20:b4:45:86:1c:5c:fb:f2:b2:af:ef:50:53:d6:15:6d:80:da:
         cc:a1:cd:89:ad:68:fd:7d:89:08:4e:9b:76:51:ec:5f:ab:ee:
         69:78:d1:31:27:8a:1c:36:1d:68:54:81:c3:95:6e:53:9a:85:
         96:5b:1e:98:6a:4c:37:b7:cc:49:f5:e2:64:16:39:fe:58:b4:
         83:53:ac:d6:39:50:25:08:65:f0:56:3a:2a:2e:0c:30:c7:53:
         85:9f:07:2b:60:d5:4e:9e:ee:35:25:6d:ed:01:50:98:c2:92:
         98:23:91:54:7b:bb:dc:8d:45:e0:db:a4:1b:7d:95:4e:0a:46:
         a7:3f:d3:c3:15:b1:69:80:fa:e4:3c:2f:5a:53:af:bb:56:33:
         fc:7c:82:99:9a:9e:25:bd:1f:f8:4e:bb:7d:d3:84:f0:29:66:
         91:2e:7f:23:72:6c:c2:e5:ee:92:98:af:b8:83:0c:9d:d6:3b:
         f7:9a:3b:69:af:d5:89:ee:d4:99:a0:15:cd:6b:bb:ce:7a:c5:
         51:3d:8d:0e:98:f8:17:cb:5a:f6:ac:e3:5e:af:f7:ed:22:39:
         85:50:d6:ec:81:c3:e3:dd:21:16:ab:8e:e0:cd:b9:0b:fc:41:
         7a:32:18:7d:c4:cf:80:ec:ce:61:53:86:0d:57:57:69:15:c1:
         3c:c9:06:c0:da:3e:86:f4:27:c9:07:1c:8a:b4:9b:67:2e:25:
         ec:4b:55:15:cc:2a:ed:77:c0:af:81:75:61:38:df:7e:86:9e:
         a3:0c:b2:34:f5:ba:7a:85:55:72:09:79:ab:0e:62:f7:d2:fb:
         ca:e4:17:7d:19:c2:51:0f:ee:45:15:c6:6b:0d:c9:86:1f:25:
         6d:c2:43:7e:48:6a:02:e5:41:72:b8:99:9f:0c:96:85:04:81:
         99:e5:73:96:22:04:2c:0a:a6:63:76:64:43:5c:cc:a2:01:4c:
         da:52:41:ad:0f:1b:2c:99:81:4f:4d:e6:12:76:f2:51:d7:e8:
         fa:ad:fe:0f:44:1f:e0:59
-----BEGIN CERTIFICATE-----
MIIGrDCCBJSgAwIBAgICApEwDQYJKoZIhvcNAQEEBQAwgawxCzAJBgNVBAYTAlVT
MQswCQYDVQQIEwJPSDERMA8GA1UEBxMIQ29sdW1idXMxEjAQBgNVBAoTCVZpa2lu
Z1ZQTjEdMBsGA1UECxMUTXlPcmdhbml6YXRpb25hbFVuaXQxFTATBgNVBAMTDFZp
a2luZ1ZQTiBDQTEQMA4GA1UEKRMHRWFzeVJTQTEhMB8GCSqGSIb3DQEJARYSbWVA
bXlob3N0Lm15ZG9tYWluMB4XDTEzMTIyNjAzMjU1OVoXDTIzMTIyNDAzMjU1OVow
HjEcMBoGA1UEAxMTQ2xpZW50MjU1Q2VydDZlMWM4YzCCAiIwDQYJKoZIhvcNAQEB
BQADggIPADCCAgoCggIBALFBh7xftVDp8lh6j+suDX2yRFmHs0ChTEpAomZfDHYR
uKOGYJ4KmlpR6iPLv2CiyoOq9sbOIjEtScPMh67txfUU7ltuOjpLxvWxGs2wRCif
JfXMHiVp4QRStwFg0vV9xSylVGgZvzJIYVBSBJT87WdtA5VPDOoo/GZQz+veJLXE
awI06ToQ28gWZ7RtBJ1OJvUayxEWEKpU/5fEXNcQyMdUsc6BFFPtGV1ZPUvMXjOd
Sb6N3sUCqJ4Ns8Oe+1Xfl9OcznX6l/qtMQqOg1Gx8gsjIR9J798sHODkwbP9+rBi
+vDsFuiu9272Cam0acfwtcJJHrCjUI/Kq6K373TVRUzz6UMnszgR0avVqn0pMJNT
oPGQG4IzfqaKqaTf5mEDUgTX5H9DSmeB09h3tK2i4kMWehcjExM54Zw4LmK6aV7a
cwbP7CFz6gV9lvAyxYCDw/EZAvrembzeIslsuMOp7Tw6xbsytJsq5jk6bHolCaYK
b4QMf5EK+tcU6iNIO622hhc859+t6UHgHYsZ26vwn7qJAaOOsRKsBbwSbL1BRPTs
SyTnbxQLwEVCDv0ZUNCHHmG6j71v0tgp9FPyAioeiBc8ob85wVNDCY74EcYRwds/
f+vOd8rk7AWEP4YUt6dMmaqFWaEV9DO0FqP/PzpkkgOQTwjBEocUTy5FNUs2amOZ
AgMBAAGjggFjMIIBXzAJBgNVHRMEAjAAMC0GCWCGSAGG+EIBDQQgFh5FYXN5LVJT
QSBHZW5lcmF0ZWQgQ2VydGlmaWNhdGUwHQYDVR0OBBYEFLITvCN9os2ZIOQtYoTj
nrzcCk57MIHhBgNVHSMEgdkwgdaAFBLNYATSoICecO3Gmbh7LMZS/RmhoYGypIGv
MIGsMQswCQYDVQQGEwJVUzELMAkGA1UECBMCT0gxETAPBgNVBAcTCENvbHVtYnVz
MRIwEAYDVQQKEwlWaWtpbmdWUE4xHTAbBgNVBAsTFE15T3JnYW5pemF0aW9uYWxV
bml0MRUwEwYDVQQDEwxWaWtpbmdWUE4gQ0ExEDAOBgNVBCkTB0Vhc3lSU0ExITAf
BgkqhkiG9w0BCQEWEm1lQG15aG9zdC5teWRvbWFpboIJAM81he6Avyo+MBMGA1Ud
JQQMMAoGCCsGAQUFBwMCMAsGA1UdDwQEAwIHgDANBgkqhkiG9w0BAQQFAAOCAgEA
l3CNoe8ktgOCYqPmfyYtjBUixXrOu4ofN+/xhX9JHDERsymtTRPkWxNqXBrn/dVv
fN3ns85Xtr7YDLsDXmkBfNRxKPhOm8PcwjcAc4yzBcKt8TfUunASGRHm7xxpnWm7
kw1a+zv3W15rOaHu/Ygp7vOMgWGgaFdPhq0V6OESILRFhhxc+/Kyr+9QU9YVbYDa
zKHNia1o/X2JCE6bdlHsX6vuaXjRMSeKHDYdaFSBw5VuU5qFllsemGpMN7fMSfXi
ZBY5/li0g1Os1jlQJQhl8FY6Ki4MMMdThZ8HK2DVTp7uNSVt7QFQmMKSmCORVHu7
3I1F4NukG32VTgpGpz/TwxWxaYD65DwvWlOvu1Yz/HyCmZqeJb0f+E67fdOE8Clm
kS5/I3JswuXukpivuIMMndY795o7aa/Vie7UmaAVzWu7znrFUT2NDpj4F8ta9qzj
Xq/37SI5hVDW7IHD490hFquO4M25C/xBejIYfcTPgOzOYVOGDVdXaRXBPMkGwNo+
hvQnyQccirSbZy4l7EtVFcwq7XfAr4F1YTjffoaeowyyNPW6eoVVcgl5qw5i99L7
yuQXfRnCUQ/uRRXGaw3Jhh8lbcJDfkhqAuVBcriZnwyWhQSBmeVzliIELAqmY3Zk
Q1zMogFM2lJBrQ8bLJmBT03mEnbyUdfo+q3+D0Qf4Fk=
-----END CERTIFICATE-----
