Certificate:
    Data:
        Version: 3 (0x2)
        Serial Number: 682 (0x2aa)
    Signature Algorithm: md5WithRSAEncryption
        Issuer: C=US, ST=OH, L=Columbus, O=VikingVPN, OU=MyOrganizationalUnit, CN=VikingVPN CA/name=EasyRSA/emailAddress=me@myhost.mydomain
        Validity
            Not Before: Jan  1 00:35:36 2014 GMT
            Not After : Dec 30 00:35:36 2023 GMT
        Subject: CN=Client266Cert3dfcd6
        Subject Public Key Info:
            Public Key Algorithm: rsaEncryption
                Public-Key: (4096 bit)
                Modulus:
                    00:d6:e3:17:96:31:ad:1f:d8:dc:35:66:4d:d2:2f:
                    d8:3d:cd:11:64:dd:a9:5e:ba:6d:b9:e0:06:92:0e:
                    0c:9e:b0:0d:f5:e0:f5:ab:32:04:6f:b3:f0:08:54:
                    4a:48:37:07:93:87:2c:f5:d7:1d:27:92:25:56:d0:
                    b0:24:86:41:96:2e:e3:ae:af:74:ee:23:f5:e8:26:
                    1a:bf:00:76:53:75:03:d1:f3:6a:65:cc:a9:25:c6:
                    7b:22:a5:07:da:a3:86:2e:6b:80:66:c8:7e:18:cf:
                    ae:b6:fd:8e:a6:da:83:40:8c:88:4b:19:80:2a:43:
                    e7:e7:59:bc:93:01:54:7b:b1:97:ae:dc:6e:ef:75:
                    75:0b:59:a1:90:91:d4:56:83:1d:8d:c5:c6:f9:0d:
                    7e:bf:cd:69:e0:06:71:2b:d7:bc:4d:80:75:3d:77:
                    4f:c5:fa:b8:50:aa:93:be:91:c6:ec:b2:11:dd:ab:
                    1d:bc:fc:58:68:cc:17:57:c9:8c:38:9a:2d:10:eb:
                    52:20:79:75:c4:d0:5a:57:97:6f:69:98:45:ae:5b:
                    04:76:34:67:05:ad:42:6d:c1:fe:c0:00:d6:e8:23:
                    61:d6:af:17:01:7b:a5:fd:bd:a5:47:4b:41:2f:de:
                    62:a3:7f:33:70:2e:c7:1e:ce:3e:cb:4c:f2:77:5f:
                    d1:4d:f4:b1:b4:fe:21:0f:34:63:60:a7:a0:93:ae:
                    e9:d9:49:98:b9:9f:74:08:5f:bf:7f:a6:5d:9d:66:
                    36:59:d3:61:35:e2:75:14:89:18:77:3f:00:a5:2e:
                    44:3d:31:e0:a8:e9:ac:ba:d3:63:11:4d:30:4d:77:
                    c0:ed:a2:ef:91:67:a1:af:27:e1:a8:de:cf:44:81:
                    32:fb:ee:ff:a7:c4:dd:95:47:c7:b3:81:06:eb:c2:
                    78:1f:f7:8b:d1:f3:91:1b:01:4b:60:42:5f:bd:f0:
                    1e:e2:77:7b:49:44:40:1b:79:7e:72:6e:ba:df:01:
                    c7:06:62:02:dd:35:e5:77:ae:96:23:4b:b7:67:a0:
                    d9:e9:41:04:1e:6b:89:37:42:45:a9:ed:5c:4f:c2:
                    af:1a:58:be:05:99:10:ee:bc:01:7f:34:75:81:50:
                    9a:b8:e3:61:50:d6:66:ac:fc:06:8b:45:7a:cb:40:
                    94:b9:3b:73:96:47:c0:67:71:dc:4b:b7:cb:dc:f0:
                    8d:ad:08:f2:bf:04:dc:b4:4e:a7:42:c8:34:0f:25:
                    7f:3c:48:04:36:41:77:47:0b:1e:3e:9c:60:96:29:
                    1d:e1:c3:e8:9a:5b:8a:a8:d2:41:c1:61:bc:21:36:
                    fc:34:77:c7:90:9f:71:4c:21:35:43:ff:46:1b:1c:
                    89:d9:a5
                Exponent: 65537 (0x10001)
        X509v3 extensions:
            X509v3 Basic Constraints: 
                CA:FALSE
            Netscape Comment: 
                Easy-RSA Generated Certificate
            X509v3 Subject Key Identifier: 
                78:FF:42:DD:4C:0D:3A:68:12:36:D5:66:6A:37:5E:23:54:9E:39:1C
            X509v3 Authority Key Identifier: 
                keyid:12:CD:60:04:D2:A0:80:9E:70:ED:C6:99:B8:7B:2C:C6:52:FD:19:A1
                DirName:/C=US/ST=OH/L=Columbus/O=VikingVPN/OU=MyOrganizationalUnit/CN=VikingVPN CA/name=EasyRSA/emailAddress=me@myhost.mydomain
                serial:CF:35:85:EE:80:BF:2A:3E

            X509v3 Extended Key Usage: 
                TLS Web Client Authentication
            X509v3 Key Usage: 
                Digital Signature
    Signature Algorithm: md5WithRSAEncryption
         36:1b:49:10:e1:73:8c:e7:0e:8d:59:b5:47:75:38:56:b3:02:
         99:b9:91:96:79:71:83:a7:d7:6f:0e:90:13:55:49:ad:24:a0:
         ad:32:c8:bd:2d:84:f3:c5:24:24:d2:9e:42:d3:93:fe:2c:95:
         dd:11:1d:53:60:36:b2:d4:05:3b:9e:2f:45:30:26:a0:57:dd:
         fa:a6:29:03:52:fa:ab:e1:42:46:86:67:e3:1e:ef:8e:7f:0f:
         3e:ff:36:13:c0:ea:2d:07:a9:80:b1:57:27:1a:ba:b9:1a:3c:
         73:a4:55:85:80:b2:16:88:a0:05:12:be:27:1e:a8:df:e2:db:
         66:36:ce:81:f1:55:8a:be:93:b9:40:ac:45:87:0b:0c:a9:9c:
         42:45:b0:32:16:19:0e:3f:27:66:e5:c6:9c:05:27:ba:0a:8b:
         d5:80:13:8a:fb:b8:05:e0:b6:ba:73:7f:da:59:e3:0d:27:f5:
         b3:3d:04:3d:16:1b:e5:7e:16:e3:d2:60:a7:12:93:50:84:4a:
         80:a1:0e:75:a0:e4:c8:1f:a4:b5:1c:47:40:0f:8b:1f:a6:cb:
         9b:24:95:ab:92:89:de:8d:e8:27:9f:e1:d4:ae:2f:b8:87:f7:
         70:7f:98:d6:09:d5:1b:11:a9:f2:5d:b9:ae:40:a5:28:1b:bd:
         e9:63:01:bd:2a:ec:e0:d0:3d:d8:17:0e:c0:ac:69:6b:ba:ba:
         94:4e:0f:e6:04:5b:6b:d7:88:21:5f:cb:4c:d6:d0:e1:e1:48:
         59:08:81:7c:52:2c:ba:1c:de:32:e7:64:cf:da:dc:75:76:86:
         44:78:69:51:59:d2:c8:87:f0:e0:fe:ca:42:a0:f4:5a:73:7a:
         4a:24:f6:58:58:ee:92:86:ec:bd:6d:17:d2:aa:d6:fc:58:cb:
         9c:53:31:17:f6:87:73:27:ec:6c:5d:10:94:f3:e2:30:c5:a7:
         f6:d1:5e:33:47:7b:01:5a:95:22:e9:e2:50:3b:8c:b8:0d:98:
         38:85:1c:84:cf:67:56:df:4d:b2:22:c7:1f:36:44:43:12:02:
         e6:9d:f8:dd:c4:dd:c4:5c:b9:7f:50:af:b3:a7:90:19:a1:07:
         1c:ed:e1:76:9a:d9:79:0e:82:28:69:25:21:93:f3:eb:64:e7:
         ef:e1:80:c7:6d:7f:67:c4:0a:c2:20:c3:17:25:2a:25:85:51:
         01:bb:ff:32:c5:bb:b5:01:99:c8:91:69:14:a5:25:0d:45:a2:
         3a:5c:12:d7:f2:fe:a3:97:ff:ef:4e:f8:ed:b0:a5:a9:06:29:
         59:5a:81:ea:8e:06:c3:43:6f:13:70:af:e1:5a:fe:41:a6:63:
         79:7b:3b:26:3f:23:c0:e4
-----BEGIN CERTIFICATE-----
MIIGrDCCBJSgAwIBAgICAqowDQYJKoZIhvcNAQEEBQAwgawxCzAJBgNVBAYTAlVT
MQswCQYDVQQIEwJPSDERMA8GA1UEBxMIQ29sdW1idXMxEjAQBgNVBAoTCVZpa2lu
Z1ZQTjEdMBsGA1UECxMUTXlPcmdhbml6YXRpb25hbFVuaXQxFTATBgNVBAMTDFZp
a2luZ1ZQTiBDQTEQMA4GA1UEKRMHRWFzeVJTQTEhMB8GCSqGSIb3DQEJARYSbWVA
bXlob3N0Lm15ZG9tYWluMB4XDTE0MDEwMTAwMzUzNloXDTIzMTIzMDAwMzUzNlow
HjEcMBoGA1UEAxMTQ2xpZW50MjY2Q2VydDNkZmNkNjCCAiIwDQYJKoZIhvcNAQEB
BQADggIPADCCAgoCggIBANbjF5YxrR/Y3DVmTdIv2D3NEWTdqV66bbngBpIODJ6w
DfXg9asyBG+z8AhUSkg3B5OHLPXXHSeSJVbQsCSGQZYu466vdO4j9egmGr8AdlN1
A9HzamXMqSXGeyKlB9qjhi5rgGbIfhjPrrb9jqbag0CMiEsZgCpD5+dZvJMBVHux
l67cbu91dQtZoZCR1FaDHY3FxvkNfr/NaeAGcSvXvE2AdT13T8X6uFCqk76Rxuyy
Ed2rHbz8WGjMF1fJjDiaLRDrUiB5dcTQWleXb2mYRa5bBHY0ZwWtQm3B/sAA1ugj
YdavFwF7pf29pUdLQS/eYqN/M3Auxx7OPstM8ndf0U30sbT+IQ80Y2CnoJOu6dlJ
mLmfdAhfv3+mXZ1mNlnTYTXidRSJGHc/AKUuRD0x4KjprLrTYxFNME13wO2i75Fn
oa8n4ajez0SBMvvu/6fE3ZVHx7OBBuvCeB/3i9HzkRsBS2BCX73wHuJ3e0lEQBt5
fnJuut8BxwZiAt015XeuliNLt2eg2elBBB5riTdCRantXE/CrxpYvgWZEO68AX80
dYFQmrjjYVDWZqz8BotFestAlLk7c5ZHwGdx3Eu3y9zwja0I8r8E3LROp0LINA8l
fzxIBDZBd0cLHj6cYJYpHeHD6JpbiqjSQcFhvCE2/DR3x5CfcUwhNUP/Rhscidml
AgMBAAGjggFjMIIBXzAJBgNVHRMEAjAAMC0GCWCGSAGG+EIBDQQgFh5FYXN5LVJT
QSBHZW5lcmF0ZWQgQ2VydGlmaWNhdGUwHQYDVR0OBBYEFHj/Qt1MDTpoEjbVZmo3
XiNUnjkcMIHhBgNVHSMEgdkwgdaAFBLNYATSoICecO3Gmbh7LMZS/RmhoYGypIGv
MIGsMQswCQYDVQQGEwJVUzELMAkGA1UECBMCT0gxETAPBgNVBAcTCENvbHVtYnVz
MRIwEAYDVQQKEwlWaWtpbmdWUE4xHTAbBgNVBAsTFE15T3JnYW5pemF0aW9uYWxV
bml0MRUwEwYDVQQDEwxWaWtpbmdWUE4gQ0ExEDAOBgNVBCkTB0Vhc3lSU0ExITAf
BgkqhkiG9w0BCQEWEm1lQG15aG9zdC5teWRvbWFpboIJAM81he6Avyo+MBMGA1Ud
JQQMMAoGCCsGAQUFBwMCMAsGA1UdDwQEAwIHgDANBgkqhkiG9w0BAQQFAAOCAgEA
NhtJEOFzjOcOjVm1R3U4VrMCmbmRlnlxg6fXbw6QE1VJrSSgrTLIvS2E88UkJNKe
QtOT/iyV3REdU2A2stQFO54vRTAmoFfd+qYpA1L6q+FCRoZn4x7vjn8PPv82E8Dq
LQepgLFXJxq6uRo8c6RVhYCyFoigBRK+Jx6o3+LbZjbOgfFVir6TuUCsRYcLDKmc
QkWwMhYZDj8nZuXGnAUnugqL1YATivu4BeC2unN/2lnjDSf1sz0EPRYb5X4W49Jg
pxKTUIRKgKEOdaDkyB+ktRxHQA+LH6bLmySVq5KJ3o3oJ5/h1K4vuIf3cH+Y1gnV
GxGp8l25rkClKBu96WMBvSrs4NA92BcOwKxpa7q6lE4P5gRba9eIIV/LTNbQ4eFI
WQiBfFIsuhzeMudkz9rcdXaGRHhpUVnSyIfw4P7KQqD0WnN6SiT2WFjukobsvW0X
0qrW/FjLnFMxF/aHcyfsbF0QlPPiMMWn9tFeM0d7AVqVIuniUDuMuA2YOIUchM9n
Vt9NsiLHHzZEQxIC5p343cTdxFy5f1Cvs6eQGaEHHO3hdprZeQ6CKGklIZPz62Tn
7+GAx21/Z8QKwiDDFyUqJYVRAbv/MsW7tQGZyJFpFKUlDUWiOlwS1/L+o5f/7074
7bClqQYpWVqB6o4Gw0NvE3Cv4Vr+QaZjeXs7Jj8jwOQ=
-----END CERTIFICATE-----
