Certificate:
    Data:
        Version: 3 (0x2)
        Serial Number: 722 (0x2d2)
    Signature Algorithm: md5WithRSAEncryption
        Issuer: C=US, ST=OH, L=Columbus, O=VikingVPN, OU=MyOrganizationalUnit, CN=VikingVPN CA/name=EasyRSA/emailAddress=me@myhost.mydomain
        Validity
            Not Before: Jan  9 06:43:44 2014 GMT
            Not After : Jan  7 06:43:44 2024 GMT
        Subject: CN=Client256Cert21f110
        Subject Public Key Info:
            Public Key Algorithm: rsaEncryption
                Public-Key: (4096 bit)
                Modulus:
                    00:b0:91:18:ce:f9:9f:6b:63:dc:ed:29:96:cb:37:
                    ec:3f:d4:08:d1:e7:02:91:de:33:d5:bd:88:43:36:
                    78:0f:cd:73:3a:db:f3:06:fc:c7:20:67:ec:af:28:
                    e0:ab:c3:5e:19:fb:b0:04:89:67:d7:a9:a3:fb:a9:
                    54:42:8b:1c:ca:f2:cc:b2:8b:f7:ac:8f:da:f2:df:
                    c1:4c:50:25:78:89:d4:aa:58:17:f5:01:f1:d5:b0:
                    e5:58:35:6b:f4:45:53:27:87:59:8b:64:84:2c:c9:
                    17:2d:b2:23:d0:00:17:4d:b2:2b:a0:58:35:b8:db:
                    87:63:63:cd:d9:28:16:c5:b7:26:8f:6f:cd:f6:a3:
                    05:27:8a:e4:5c:4f:33:2f:dd:f5:6e:0b:29:26:04:
                    bd:4d:61:ea:f2:15:36:6b:a2:f4:eb:e2:85:bb:a6:
                    59:ad:b7:d5:c9:22:75:71:4d:2d:e2:02:b5:99:36:
                    76:ca:a3:3d:a6:d9:43:6b:a0:b4:a6:16:c6:24:7f:
                    5e:8e:2f:20:88:99:4d:46:43:22:7d:5c:04:46:09:
                    b8:f9:a4:c0:a9:fd:cb:4b:9a:bc:37:62:5c:4b:cc:
                    2c:40:1c:2a:4a:c9:92:1d:7e:53:c2:8f:3b:50:91:
                    fe:4d:77:ef:86:2d:de:7d:1e:77:a4:55:6b:d0:0a:
                    9e:6b:00:6b:99:25:95:94:c1:87:37:ba:7b:86:a9:
                    b5:38:2a:cf:23:e8:0f:be:4c:62:3c:11:f8:c8:7d:
                    eb:73:db:d8:9f:c3:ee:fb:14:9f:c1:04:e4:d3:e0:
                    15:7d:82:51:3c:b2:60:b4:87:42:8b:74:e7:37:4a:
                    58:4f:88:a1:42:b2:1e:a6:88:17:eb:6f:cd:fe:eb:
                    bb:f7:3e:6e:b5:d3:42:c3:48:41:22:0e:6c:d3:9a:
                    eb:32:81:cd:5c:39:53:07:a1:27:cd:60:4a:d9:15:
                    83:41:7c:e7:b4:d6:02:85:b6:34:d5:67:bc:e8:87:
                    ba:d5:0b:06:70:2a:09:0d:a2:43:53:ef:78:75:de:
                    f1:df:26:8b:59:3f:fe:af:e6:3f:18:1f:d8:14:69:
                    f8:20:0e:6b:e3:35:b7:86:47:e1:1d:1f:45:b5:fe:
                    1c:f3:a9:41:cf:ce:42:02:2c:e9:4e:d7:16:1a:70:
                    b3:af:8f:3f:c0:35:92:07:da:f3:eb:35:06:9e:d8:
                    62:79:64:c9:36:de:96:28:9b:2c:99:32:eb:a4:3f:
                    e2:65:c2:cb:69:26:a0:41:80:88:60:c1:a4:d6:89:
                    92:57:ed:9a:27:68:c1:19:4d:ef:13:ef:68:84:24:
                    0a:13:9c:b9:3d:97:51:e2:ad:6a:4d:51:c8:99:92:
                    e4:70:d5
                Exponent: 65537 (0x10001)
        X509v3 extensions:
            X509v3 Basic Constraints: 
                CA:FALSE
            Netscape Comment: 
                Easy-RSA Generated Certificate
            X509v3 Subject Key Identifier: 
                C8:5D:5F:98:0F:19:0C:10:4C:A9:DE:C5:FF:CB:24:F2:09:B8:AC:29
            X509v3 Authority Key Identifier: 
                keyid:12:CD:60:04:D2:A0:80:9E:70:ED:C6:99:B8:7B:2C:C6:52:FD:19:A1
                DirName:/C=US/ST=OH/L=Columbus/O=VikingVPN/OU=MyOrganizationalUnit/CN=VikingVPN CA/name=EasyRSA/emailAddress=me@myhost.mydomain
                serial:CF:35:85:EE:80:BF:2A:3E

            X509v3 Extended Key Usage: 
                TLS Web Client Authentication
            X509v3 Key Usage: 
                Digital Signature
    Signature Algorithm: md5WithRSAEncryption
         1f:f4:a6:2c:22:17:fd:22:a2:e6:c3:70:92:9f:fa:91:e3:2d:
         d6:af:bb:95:51:ed:2b:10:5a:df:9a:de:f4:f2:d3:a3:58:83:
         bb:3a:a7:cf:d2:8e:a2:ee:63:43:b1:9e:28:71:4b:7c:1a:ec:
         a9:30:e8:f2:5b:34:71:44:67:f1:76:2f:86:21:fb:5a:fb:dd:
         c4:ef:dc:30:8a:32:71:7e:98:c3:d4:aa:26:12:10:df:48:2b:
         b7:7f:9d:10:b3:73:d3:fd:5b:00:22:19:e7:d1:62:ed:6b:51:
         32:19:20:72:74:11:da:87:fb:1a:e6:67:93:f5:da:9a:8c:9d:
         47:32:0b:94:2c:71:38:65:52:73:66:ff:dd:ae:11:39:e5:4e:
         52:d6:35:08:7b:7e:e2:61:5b:28:f3:1f:d1:c2:dc:4b:50:ae:
         76:e2:86:b5:0d:6a:64:93:7d:ea:cf:70:c2:75:83:16:00:c7:
         db:76:d0:db:ab:33:4f:34:14:a1:78:1b:31:d6:a4:f5:bc:84:
         72:bc:80:2d:2d:f5:d7:ac:3a:65:0c:24:e0:e6:30:3b:40:1a:
         c5:62:eb:b9:16:b5:7e:7a:11:80:b4:ef:56:6c:50:ee:33:60:
         06:e4:b6:f0:e5:4d:3c:a8:ae:91:44:54:57:48:c7:46:bb:fd:
         ce:1d:31:62:e9:e2:1d:6b:4f:71:56:7f:f0:0c:51:2d:0f:57:
         0e:e5:ec:e9:be:3e:35:27:29:79:d4:76:65:61:97:ad:79:bf:
         84:d9:60:b6:3d:40:97:fa:88:91:ea:ba:90:07:e5:42:bd:33:
         58:d0:09:30:13:e6:6e:5c:f3:69:26:f0:1e:88:1e:66:f3:2f:
         40:4f:da:ff:cc:bf:72:db:cc:7a:11:c6:b1:cc:fb:14:4e:2c:
         fc:20:1d:a5:62:4e:10:4c:ef:2c:9f:c9:57:69:c5:01:4a:a5:
         38:8b:3c:8c:ab:3d:0d:bd:1d:8f:35:27:8a:38:03:eb:3e:be:
         76:57:4f:8d:dd:1d:f6:9e:67:57:6a:cb:d4:88:a7:82:7d:4f:
         43:62:1a:75:ea:e0:ce:1e:b1:14:f6:df:69:19:32:fc:c2:47:
         23:5c:9f:fe:d6:f4:64:39:96:97:00:11:dc:8a:8e:a6:f0:0c:
         0a:ed:4e:d3:21:3e:0e:4f:e3:3d:b2:00:75:ce:aa:bb:72:50:
         24:f7:9e:1c:8f:6f:94:c6:76:d5:d6:a0:4a:94:39:13:dc:43:
         87:b7:76:67:42:c1:28:42:fa:82:4b:93:f8:e1:f4:9b:e0:6c:
         bf:4b:d4:d2:13:14:c8:df:11:84:5e:a9:80:b0:19:bc:61:75:
         6d:01:e0:ce:32:c9:a3:b2
-----BEGIN CERTIFICATE-----
MIIGrDCCBJSgAwIBAgICAtIwDQYJKoZIhvcNAQEEBQAwgawxCzAJBgNVBAYTAlVT
MQswCQYDVQQIEwJPSDERMA8GA1UEBxMIQ29sdW1idXMxEjAQBgNVBAoTCVZpa2lu
Z1ZQTjEdMBsGA1UECxMUTXlPcmdhbml6YXRpb25hbFVuaXQxFTATBgNVBAMTDFZp
a2luZ1ZQTiBDQTEQMA4GA1UEKRMHRWFzeVJTQTEhMB8GCSqGSIb3DQEJARYSbWVA
bXlob3N0Lm15ZG9tYWluMB4XDTE0MDEwOTA2NDM0NFoXDTI0MDEwNzA2NDM0NFow
HjEcMBoGA1UEAxMTQ2xpZW50MjU2Q2VydDIxZjExMDCCAiIwDQYJKoZIhvcNAQEB
BQADggIPADCCAgoCggIBALCRGM75n2tj3O0plss37D/UCNHnApHeM9W9iEM2eA/N
czrb8wb8xyBn7K8o4KvDXhn7sASJZ9epo/upVEKLHMryzLKL96yP2vLfwUxQJXiJ
1KpYF/UB8dWw5Vg1a/RFUyeHWYtkhCzJFy2yI9AAF02yK6BYNbjbh2NjzdkoFsW3
Jo9vzfajBSeK5FxPMy/d9W4LKSYEvU1h6vIVNmui9OvihbumWa231ckidXFNLeIC
tZk2dsqjPabZQ2ugtKYWxiR/Xo4vIIiZTUZDIn1cBEYJuPmkwKn9y0uavDdiXEvM
LEAcKkrJkh1+U8KPO1CR/k1374Yt3n0ed6RVa9AKnmsAa5kllZTBhze6e4aptTgq
zyPoD75MYjwR+Mh963Pb2J/D7vsUn8EE5NPgFX2CUTyyYLSHQot05zdKWE+IoUKy
HqaIF+tvzf7ru/c+brXTQsNIQSIObNOa6zKBzVw5UwehJ81gStkVg0F857TWAoW2
NNVnvOiHutULBnAqCQ2iQ1PveHXe8d8mi1k//q/mPxgf2BRp+CAOa+M1t4ZH4R0f
RbX+HPOpQc/OQgIs6U7XFhpws6+PP8A1kgfa8+s1Bp7YYnlkyTbeliibLJky66Q/
4mXCy2kmoEGAiGDBpNaJklftmidowRlN7xPvaIQkChOcuT2XUeKtak1RyJmS5HDV
AgMBAAGjggFjMIIBXzAJBgNVHRMEAjAAMC0GCWCGSAGG+EIBDQQgFh5FYXN5LVJT
QSBHZW5lcmF0ZWQgQ2VydGlmaWNhdGUwHQYDVR0OBBYEFMhdX5gPGQwQTKnexf/L
JPIJuKwpMIHhBgNVHSMEgdkwgdaAFBLNYATSoICecO3Gmbh7LMZS/RmhoYGypIGv
MIGsMQswCQYDVQQGEwJVUzELMAkGA1UECBMCT0gxETAPBgNVBAcTCENvbHVtYnVz
MRIwEAYDVQQKEwlWaWtpbmdWUE4xHTAbBgNVBAsTFE15T3JnYW5pemF0aW9uYWxV
bml0MRUwEwYDVQQDEwxWaWtpbmdWUE4gQ0ExEDAOBgNVBCkTB0Vhc3lSU0ExITAf
BgkqhkiG9w0BCQEWEm1lQG15aG9zdC5teWRvbWFpboIJAM81he6Avyo+MBMGA1Ud
JQQMMAoGCCsGAQUFBwMCMAsGA1UdDwQEAwIHgDANBgkqhkiG9w0BAQQFAAOCAgEA
H/SmLCIX/SKi5sNwkp/6keMt1q+7lVHtKxBa35re9PLTo1iDuzqnz9KOou5jQ7Ge
KHFLfBrsqTDo8ls0cURn8XYvhiH7WvvdxO/cMIoycX6Yw9SqJhIQ30grt3+dELNz
0/1bACIZ59Fi7WtRMhkgcnQR2of7GuZnk/XamoydRzILlCxxOGVSc2b/3a4ROeVO
UtY1CHt+4mFbKPMf0cLcS1CuduKGtQ1qZJN96s9wwnWDFgDH23bQ26szTzQUoXgb
Mdak9byEcryALS3116w6ZQwk4OYwO0AaxWLruRa1fnoRgLTvVmxQ7jNgBuS28OVN
PKiukURUV0jHRrv9zh0xYuniHWtPcVZ/8AxRLQ9XDuXs6b4+NScpedR2ZWGXrXm/
hNlgtj1Al/qIkeq6kAflQr0zWNAJMBPmblzzaSbwHogeZvMvQE/a/8y/ctvMehHG
scz7FE4s/CAdpWJOEEzvLJ/JV2nFAUqlOIs8jKs9Db0djzUnijgD6z6+dldPjd0d
9p5nV2rL1Iingn1PQ2Iadergzh6xFPbfaRky/MJHI1yf/tb0ZDmWlwAR3IqOpvAM
Cu1O0yE+Dk/jPbIAdc6qu3JQJPeeHI9vlMZ21dagSpQ5E9xDh7d2Z0LBKEL6gkuT
+OH0m+Bsv0vU0hMUyN8RhF6pgLAZvGF1bQHgzjLJo7I=
-----END CERTIFICATE-----
