Certificate:
    Data:
        Version: 3 (0x2)
        Serial Number: 724 (0x2d4)
    Signature Algorithm: md5WithRSAEncryption
        Issuer: C=US, ST=OH, L=Columbus, O=VikingVPN, OU=MyOrganizationalUnit, CN=VikingVPN CA/name=EasyRSA/emailAddress=me@myhost.mydomain
        Validity
            Not Before: Jan  9 22:22:02 2014 GMT
            Not After : Jan  7 22:22:02 2024 GMT
        Subject: CN=Client288Cert79694c
        Subject Public Key Info:
            Public Key Algorithm: rsaEncryption
                Public-Key: (4096 bit)
                Modulus:
                    00:b1:0c:1e:df:e2:c2:76:ac:9f:4b:3e:15:88:5a:
                    e4:8d:46:fd:67:59:99:aa:d2:86:48:d4:63:b7:69:
                    80:7d:d1:a3:d1:39:f8:0d:11:b6:e9:e0:75:66:22:
                    1d:a5:db:36:d8:2a:3d:9c:b2:de:d7:c1:cb:69:0a:
                    df:0f:6e:73:f3:3f:83:f5:04:4f:e5:b6:5e:37:1b:
                    6c:49:95:c9:2f:4a:bb:54:2b:37:b3:92:a8:54:e0:
                    b2:9e:69:c3:b9:b2:d1:f5:7f:d7:2e:16:3f:6f:f0:
                    09:05:15:31:56:3e:13:58:5c:02:81:5a:0a:f5:0c:
                    09:77:07:7d:9a:85:83:e8:a1:3b:78:a2:f4:e9:a9:
                    52:a0:72:6b:16:a6:85:6f:d3:3e:b9:ce:6d:41:37:
                    d0:91:8b:bc:ab:7c:39:84:c9:5b:4b:fc:65:2d:2f:
                    b3:54:7c:ce:47:e6:4a:f9:9a:aa:a6:95:bf:5b:f3:
                    d2:5b:fe:82:8b:ee:85:df:7a:7e:a5:0e:fd:34:72:
                    c6:8c:95:ba:46:2a:9e:90:17:79:4d:4f:90:0c:bb:
                    57:cb:78:ca:2a:3d:28:6c:24:e5:b7:a8:16:93:c0:
                    8e:1c:56:53:84:27:d7:37:2c:c0:9d:6e:cd:72:ab:
                    6a:e1:b0:12:aa:db:1c:35:85:81:9d:a7:c3:5b:6a:
                    a3:3d:cd:7c:b8:2b:0a:ce:62:84:16:7c:f0:5f:5a:
                    bb:70:fc:e2:68:11:61:91:6b:70:5f:1b:73:31:da:
                    9d:75:04:a6:22:da:6a:4e:1e:4a:a1:e9:72:42:9e:
                    a4:bc:f3:82:9b:b2:17:a4:c2:27:dc:63:c8:c2:69:
                    6d:98:7f:15:40:10:b8:73:50:3e:c2:b8:c5:02:57:
                    b6:8a:7b:14:1c:0a:91:23:60:74:7d:5a:bb:f8:8a:
                    e7:4f:a1:22:af:40:8c:bc:f6:6a:c5:26:13:d2:d4:
                    bb:a5:07:1f:9a:81:b0:ff:8c:b1:66:98:bf:ec:e1:
                    07:a5:aa:d8:b2:50:11:47:c0:d5:c4:f0:5c:74:96:
                    1f:16:62:14:b4:36:6d:a4:59:cf:34:15:41:9a:05:
                    10:36:d4:25:7b:bd:18:a8:92:1d:61:06:72:bb:06:
                    14:9f:74:3b:ee:7c:32:22:e3:82:c9:4e:db:0c:8b:
                    ae:9f:bb:04:e1:e5:46:4e:f0:aa:13:63:a7:68:ee:
                    50:37:77:59:e7:61:18:99:0e:9f:99:5a:01:48:25:
                    79:c4:ef:5c:b6:48:36:19:64:7a:7c:bd:9a:71:54:
                    4b:f4:df:0a:c5:5b:dc:ed:20:e2:83:fd:33:f1:46:
                    03:d6:15:8c:bd:cb:10:39:71:8d:74:a0:06:2e:d3:
                    8b:79:75
                Exponent: 65537 (0x10001)
        X509v3 extensions:
            X509v3 Basic Constraints: 
                CA:FALSE
            Netscape Comment: 
                Easy-RSA Generated Certificate
            X509v3 Subject Key Identifier: 
                74:ED:05:D3:FF:A3:44:C4:D3:ED:30:DD:9C:CC:4F:EA:3A:BC:3C:08
            X509v3 Authority Key Identifier: 
                keyid:12:CD:60:04:D2:A0:80:9E:70:ED:C6:99:B8:7B:2C:C6:52:FD:19:A1
                DirName:/C=US/ST=OH/L=Columbus/O=VikingVPN/OU=MyOrganizationalUnit/CN=VikingVPN CA/name=EasyRSA/emailAddress=me@myhost.mydomain
                serial:CF:35:85:EE:80:BF:2A:3E

            X509v3 Extended Key Usage: 
                TLS Web Client Authentication
            X509v3 Key Usage: 
                Digital Signature
    Signature Algorithm: md5WithRSAEncryption
         bd:32:36:a5:fc:10:b2:6f:73:56:b3:c6:a3:e0:e1:ae:71:01:
         7a:a0:0d:42:cd:60:d4:d8:88:0e:3b:01:51:f2:28:1a:99:d9:
         93:7b:1a:1c:9b:50:bf:6a:7a:45:db:21:aa:a9:cb:d2:58:8b:
         ff:64:23:bc:64:88:98:cb:02:38:3c:c7:4e:88:46:c0:44:58:
         87:14:1f:1d:3f:47:2d:a0:57:d3:e3:42:bb:5d:5c:d1:db:88:
         99:99:c6:5f:bc:b9:4e:d1:03:56:15:20:08:d2:64:5a:69:89:
         56:aa:bc:9d:03:4f:aa:75:ef:d9:d8:3f:89:3a:2c:68:5a:94:
         27:c1:45:1f:95:c5:e8:1d:1f:e6:33:5d:8e:f0:7f:c6:75:c9:
         d0:32:2c:ed:ed:6a:9c:2d:e1:81:84:83:d7:73:3d:1e:75:3d:
         0f:42:02:74:e8:ae:c4:fa:43:90:f9:ec:d9:b1:21:7a:62:66:
         f5:f2:e9:aa:26:8d:4a:01:f1:c8:97:2b:9b:51:4e:8c:83:75:
         be:02:2d:8a:ba:c8:90:bf:58:94:f5:cb:72:34:71:7c:2f:04:
         0a:12:c5:f5:e7:9e:00:49:56:eb:f0:75:d3:de:a4:a1:70:5f:
         bd:cc:27:da:a2:e3:1a:14:a4:76:7a:5c:3e:63:27:0a:fe:12:
         de:c1:22:a4:b0:5f:29:72:c8:12:e7:4c:22:1d:a6:ac:0b:aa:
         91:99:c5:ac:aa:58:54:e2:b3:74:24:4f:6b:3b:91:58:78:16:
         e8:62:e0:a4:76:8f:85:cc:94:47:51:f3:6d:a1:be:a3:a1:ec:
         a0:44:55:22:d0:f3:7a:64:1f:13:7c:f2:94:ed:c5:a7:82:27:
         70:82:fb:9d:32:b9:19:81:40:7c:57:bc:05:b9:d2:f2:7f:7c:
         55:6d:47:ce:b6:8a:40:c8:25:74:1a:df:d5:f7:38:5e:be:94:
         56:86:44:c6:8a:ad:3e:42:55:48:6a:f0:8c:d7:aa:30:31:fa:
         ae:cc:da:90:4b:97:a5:c8:f5:76:8e:0b:6a:0c:1f:c6:9b:40:
         d2:ff:61:cb:08:d7:87:0b:fb:6b:60:f4:ba:35:4e:87:9c:38:
         06:bf:25:f1:cb:16:4d:d2:50:d1:2a:10:fc:2d:30:1c:af:5c:
         bb:10:5b:fc:c1:a3:d8:05:79:68:aa:6a:e2:b4:05:80:6f:51:
         27:ea:5b:6a:d4:bc:ae:94:7e:60:b9:7d:0a:59:ce:56:25:1d:
         fc:82:78:fc:bd:02:54:ab:f9:25:d4:ee:e4:2b:53:c0:77:d7:
         d2:78:76:b6:13:df:e2:de:90:27:13:ff:f9:83:5a:0c:88:6e:
         41:96:fe:54:9d:29:ac:7d
-----BEGIN CERTIFICATE-----
MIIGrDCCBJSgAwIBAgICAtQwDQYJKoZIhvcNAQEEBQAwgawxCzAJBgNVBAYTAlVT
MQswCQYDVQQIEwJPSDERMA8GA1UEBxMIQ29sdW1idXMxEjAQBgNVBAoTCVZpa2lu
Z1ZQTjEdMBsGA1UECxMUTXlPcmdhbml6YXRpb25hbFVuaXQxFTATBgNVBAMTDFZp
a2luZ1ZQTiBDQTEQMA4GA1UEKRMHRWFzeVJTQTEhMB8GCSqGSIb3DQEJARYSbWVA
bXlob3N0Lm15ZG9tYWluMB4XDTE0MDEwOTIyMjIwMloXDTI0MDEwNzIyMjIwMlow
HjEcMBoGA1UEAxMTQ2xpZW50Mjg4Q2VydDc5Njk0YzCCAiIwDQYJKoZIhvcNAQEB
BQADggIPADCCAgoCggIBALEMHt/iwnasn0s+FYha5I1G/WdZmarShkjUY7dpgH3R
o9E5+A0RtungdWYiHaXbNtgqPZyy3tfBy2kK3w9uc/M/g/UET+W2XjcbbEmVyS9K
u1QrN7OSqFTgsp5pw7my0fV/1y4WP2/wCQUVMVY+E1hcAoFaCvUMCXcHfZqFg+ih
O3ii9OmpUqByaxamhW/TPrnObUE30JGLvKt8OYTJW0v8ZS0vs1R8zkfmSvmaqqaV
v1vz0lv+govuhd96fqUO/TRyxoyVukYqnpAXeU1PkAy7V8t4yio9KGwk5beoFpPA
jhxWU4Qn1zcswJ1uzXKrauGwEqrbHDWFgZ2nw1tqoz3NfLgrCs5ihBZ88F9au3D8
4mgRYZFrcF8bczHanXUEpiLaak4eSqHpckKepLzzgpuyF6TCJ9xjyMJpbZh/FUAQ
uHNQPsK4xQJXtop7FBwKkSNgdH1au/iK50+hIq9AjLz2asUmE9LUu6UHH5qBsP+M
sWaYv+zhB6Wq2LJQEUfA1cTwXHSWHxZiFLQ2baRZzzQVQZoFEDbUJXu9GKiSHWEG
crsGFJ90O+58MiLjgslO2wyLrp+7BOHlRk7wqhNjp2juUDd3WedhGJkOn5laAUgl
ecTvXLZINhlkeny9mnFUS/TfCsVb3O0g4oP9M/FGA9YVjL3LEDlxjXSgBi7Ti3l1
AgMBAAGjggFjMIIBXzAJBgNVHRMEAjAAMC0GCWCGSAGG+EIBDQQgFh5FYXN5LVJT
QSBHZW5lcmF0ZWQgQ2VydGlmaWNhdGUwHQYDVR0OBBYEFHTtBdP/o0TE0+0w3ZzM
T+o6vDwIMIHhBgNVHSMEgdkwgdaAFBLNYATSoICecO3Gmbh7LMZS/RmhoYGypIGv
MIGsMQswCQYDVQQGEwJVUzELMAkGA1UECBMCT0gxETAPBgNVBAcTCENvbHVtYnVz
MRIwEAYDVQQKEwlWaWtpbmdWUE4xHTAbBgNVBAsTFE15T3JnYW5pemF0aW9uYWxV
bml0MRUwEwYDVQQDEwxWaWtpbmdWUE4gQ0ExEDAOBgNVBCkTB0Vhc3lSU0ExITAf
BgkqhkiG9w0BCQEWEm1lQG15aG9zdC5teWRvbWFpboIJAM81he6Avyo+MBMGA1Ud
JQQMMAoGCCsGAQUFBwMCMAsGA1UdDwQEAwIHgDANBgkqhkiG9w0BAQQFAAOCAgEA
vTI2pfwQsm9zVrPGo+DhrnEBeqANQs1g1NiIDjsBUfIoGpnZk3saHJtQv2p6Rdsh
qqnL0liL/2QjvGSImMsCODzHTohGwERYhxQfHT9HLaBX0+NCu11c0duImZnGX7y5
TtEDVhUgCNJkWmmJVqq8nQNPqnXv2dg/iTosaFqUJ8FFH5XF6B0f5jNdjvB/xnXJ
0DIs7e1qnC3hgYSD13M9HnU9D0ICdOiuxPpDkPns2bEhemJm9fLpqiaNSgHxyJcr
m1FOjIN1vgItirrIkL9YlPXLcjRxfC8EChLF9eeeAElW6/B1096koXBfvcwn2qLj
GhSkdnpcPmMnCv4S3sEipLBfKXLIEudMIh2mrAuqkZnFrKpYVOKzdCRPazuRWHgW
6GLgpHaPhcyUR1HzbaG+o6HsoERVItDzemQfE3zylO3Fp4IncIL7nTK5GYFAfFe8
BbnS8n98VW1HzraKQMgldBrf1fc4Xr6UVoZExoqtPkJVSGrwjNeqMDH6rszakEuX
pcj1do4LagwfxptA0v9hywjXhwv7a2D0ujVOh5w4Br8l8csWTdJQ0SoQ/C0wHK9c
uxBb/MGj2AV5aKpq4rQFgG9RJ+pbatS8rpR+YLl9ClnOViUd/IJ4/L0CVKv5JdTu
5CtTwHfX0nh2thPf4t6QJxP/+YNaDIhuQZb+VJ0prH0=
-----END CERTIFICATE-----
