Certificate:
    Data:
        Version: 3 (0x2)
        Serial Number: 728 (0x2d8)
    Signature Algorithm: md5WithRSAEncryption
        Issuer: C=US, ST=OH, L=Columbus, O=VikingVPN, OU=MyOrganizationalUnit, CN=VikingVPN CA/name=EasyRSA/emailAddress=me@myhost.mydomain
        Validity
            Not Before: Jan 10 04:35:02 2014 GMT
            Not After : Jan  8 04:35:02 2024 GMT
        Subject: CN=Client289Certa952b8
        Subject Public Key Info:
            Public Key Algorithm: rsaEncryption
                Public-Key: (4096 bit)
                Modulus:
                    00:b6:6f:c5:da:76:9c:74:2f:13:2f:f2:66:e0:3e:
                    27:53:3f:47:18:90:62:e4:2d:8c:ac:8f:eb:e7:39:
                    57:2a:55:37:18:5d:ba:3a:a5:b9:48:01:a6:85:fd:
                    d4:1d:90:e5:67:80:a1:1a:f2:b3:49:2d:0f:bf:f8:
                    c2:0e:83:f0:85:8b:ef:9a:cd:2f:ac:27:94:dd:ea:
                    7f:48:c2:33:c5:0d:df:5d:83:07:ad:03:ad:20:88:
                    f4:4e:4f:96:2e:2a:fa:1c:e7:9b:6b:5b:e8:f5:26:
                    0f:3f:c2:9f:ef:44:e7:a6:b8:6d:9a:15:52:c4:23:
                    c7:e2:e1:01:c2:5c:e3:12:2d:5c:90:f9:64:99:cf:
                    0d:1e:aa:2b:c5:59:f1:d1:2a:c4:1f:a6:60:c6:6e:
                    1d:08:97:c1:5e:ad:e1:9c:90:65:7b:43:13:99:87:
                    07:35:6e:5d:e5:9d:63:57:1b:d5:18:bb:34:2c:76:
                    98:73:01:ab:4d:f5:21:42:b5:cc:20:29:50:68:c2:
                    ba:9a:bc:1b:8f:fb:44:60:9e:e7:f3:87:b8:62:5e:
                    4e:a1:53:90:2e:45:5c:3b:e7:5b:ff:b3:01:65:b1:
                    ef:94:44:80:51:9c:13:ae:66:96:93:9d:ba:9a:14:
                    52:e2:72:75:3e:c5:91:39:22:7b:2e:66:ba:d8:9e:
                    62:80:31:3a:b7:f1:13:1f:c9:cf:3a:c0:ff:84:7f:
                    f7:80:84:84:4e:66:ff:f3:18:8a:e9:2b:2f:22:80:
                    31:ea:98:c5:af:94:56:56:bc:db:ed:76:7c:08:cd:
                    37:0f:f0:09:bb:b6:15:8e:2f:0c:b6:4d:95:1d:a3:
                    af:00:9c:2f:3c:4a:9f:8b:cb:bd:4b:b8:4f:a2:d9:
                    6f:47:8b:02:b7:fb:25:4e:55:49:90:d1:09:85:06:
                    d5:8d:55:bb:22:85:06:ca:a8:33:80:0c:8e:11:ed:
                    c0:d7:41:8b:a8:30:94:3b:97:93:0c:44:9f:55:34:
                    e0:9d:47:55:e5:66:f8:99:1d:ca:30:17:f9:b2:27:
                    15:78:4a:8c:45:60:4f:4e:a3:37:8d:cf:b0:65:46:
                    ec:d3:31:5f:06:cf:06:fc:5b:fb:e9:27:5a:d9:5f:
                    fe:8d:5a:4e:73:58:2b:a4:c6:99:b7:83:9a:41:e1:
                    c2:25:b1:52:b6:67:0d:be:b6:e5:e1:0a:1f:f5:05:
                    1e:bc:0f:9a:85:b8:b7:92:4c:80:17:35:1f:33:d8:
                    3b:9f:5a:a9:56:a0:88:5a:41:45:9e:fa:13:c4:61:
                    09:a2:85:bc:d5:cb:25:e8:a8:a9:d8:76:b4:c5:d2:
                    f1:08:73:3d:57:86:09:a4:0c:58:ff:98:dd:d5:10:
                    d9:c9:83
                Exponent: 65537 (0x10001)
        X509v3 extensions:
            X509v3 Basic Constraints: 
                CA:FALSE
            Netscape Comment: 
                Easy-RSA Generated Certificate
            X509v3 Subject Key Identifier: 
                5D:21:63:85:16:35:55:8A:4C:EE:4A:6B:17:F0:E1:51:C8:40:6A:A5
            X509v3 Authority Key Identifier: 
                keyid:12:CD:60:04:D2:A0:80:9E:70:ED:C6:99:B8:7B:2C:C6:52:FD:19:A1
                DirName:/C=US/ST=OH/L=Columbus/O=VikingVPN/OU=MyOrganizationalUnit/CN=VikingVPN CA/name=EasyRSA/emailAddress=me@myhost.mydomain
                serial:CF:35:85:EE:80:BF:2A:3E

            X509v3 Extended Key Usage: 
                TLS Web Client Authentication
            X509v3 Key Usage: 
                Digital Signature
    Signature Algorithm: md5WithRSAEncryption
         bc:08:c8:27:0b:6c:07:49:4b:9d:bb:0a:99:12:e9:7b:34:01:
         46:7e:93:fd:86:78:b4:99:fa:c7:23:3f:e3:78:80:1a:3c:6b:
         f2:98:72:a8:c9:45:ea:f5:47:a2:be:fb:f0:d8:22:2d:ed:d9:
         fb:10:51:76:25:f5:9b:d7:c7:36:95:8d:55:f6:61:86:36:df:
         d2:a9:fd:75:7b:6f:57:77:4f:a4:36:e5:ba:12:e7:02:5a:9d:
         8a:9b:0b:08:7d:f9:87:2f:c0:36:81:1d:e8:e5:74:53:e8:d3:
         51:72:15:ba:ea:3d:ac:b2:d7:22:40:2c:32:09:d2:44:62:35:
         60:e9:47:72:99:6a:4a:30:6e:4e:e9:bd:d4:0f:e7:db:75:ed:
         cc:14:3d:1e:4c:be:6b:30:19:8f:37:a6:c6:ae:90:27:ed:12:
         1a:43:d3:72:7f:77:50:43:20:a0:34:6b:b1:53:8a:be:1e:14:
         bd:3f:a1:79:10:34:5a:c2:a7:30:47:17:6d:8c:7c:b4:22:a9:
         7a:f3:ce:f6:a4:7d:d9:a8:07:8e:ed:23:d3:5e:4b:f6:2a:a4:
         46:01:db:ad:e1:42:9e:c7:5d:c5:5c:b7:15:72:57:6b:e4:0e:
         57:ed:b0:c5:d2:db:6f:70:3f:e4:08:0c:aa:4a:6a:53:fc:58:
         28:fd:ec:78:94:e1:0d:9b:9b:44:4e:76:d5:ff:f0:5e:c8:d8:
         0e:62:b1:ee:76:20:5c:bf:40:22:25:60:8f:e7:9c:6c:00:a5:
         e5:7c:71:fe:99:94:cd:8d:b0:c0:79:54:50:7b:d1:8f:c9:c8:
         f2:dd:e9:5c:14:3c:32:32:43:0a:69:14:b1:b2:7d:24:d0:4a:
         f0:62:ac:a9:c2:1b:c1:e3:61:6b:b2:52:09:f8:73:e2:8d:5a:
         cb:5b:81:6c:c0:6c:78:d9:2a:bc:14:82:96:e2:e5:a7:9a:70:
         16:21:70:cb:c9:e8:79:82:74:5c:3d:61:73:d3:f0:05:c1:6f:
         ce:73:65:67:b0:a8:7c:e7:88:f0:18:5d:07:79:d9:0f:8f:07:
         a4:35:5d:83:39:38:3a:2d:bb:7e:02:d0:04:f5:20:fd:c6:9a:
         4e:78:f0:ec:c8:9a:34:78:7a:ff:95:bd:46:bb:96:e5:23:b6:
         39:d0:c3:40:8f:13:6f:ee:0a:34:cf:f2:84:c8:92:31:6e:81:
         9b:e5:3e:a4:c5:bb:a0:b2:dd:a9:40:5d:53:30:a9:03:92:bc:
         12:fc:06:9a:02:25:cb:05:33:ae:96:53:fd:eb:ea:48:89:a5:
         f1:a1:9b:ff:b7:5d:3b:c1:30:b5:97:04:a3:a6:02:10:cd:54:
         a4:1f:f8:d9:6f:c9:9c:6e
-----BEGIN CERTIFICATE-----
MIIGrDCCBJSgAwIBAgICAtgwDQYJKoZIhvcNAQEEBQAwgawxCzAJBgNVBAYTAlVT
MQswCQYDVQQIEwJPSDERMA8GA1UEBxMIQ29sdW1idXMxEjAQBgNVBAoTCVZpa2lu
Z1ZQTjEdMBsGA1UECxMUTXlPcmdhbml6YXRpb25hbFVuaXQxFTATBgNVBAMTDFZp
a2luZ1ZQTiBDQTEQMA4GA1UEKRMHRWFzeVJTQTEhMB8GCSqGSIb3DQEJARYSbWVA
bXlob3N0Lm15ZG9tYWluMB4XDTE0MDExMDA0MzUwMloXDTI0MDEwODA0MzUwMlow
HjEcMBoGA1UEAxMTQ2xpZW50Mjg5Q2VydGE5NTJiODCCAiIwDQYJKoZIhvcNAQEB
BQADggIPADCCAgoCggIBALZvxdp2nHQvEy/yZuA+J1M/RxiQYuQtjKyP6+c5VypV
NxhdujqluUgBpoX91B2Q5WeAoRrys0ktD7/4wg6D8IWL75rNL6wnlN3qf0jCM8UN
312DB60DrSCI9E5Pli4q+hznm2tb6PUmDz/Cn+9E56a4bZoVUsQjx+LhAcJc4xIt
XJD5ZJnPDR6qK8VZ8dEqxB+mYMZuHQiXwV6t4ZyQZXtDE5mHBzVuXeWdY1cb1Ri7
NCx2mHMBq031IUK1zCApUGjCupq8G4/7RGCe5/OHuGJeTqFTkC5FXDvnW/+zAWWx
75REgFGcE65mlpOdupoUUuJydT7FkTkiey5mutieYoAxOrfxEx/JzzrA/4R/94CE
hE5m//MYiukrLyKAMeqYxa+UVla82+12fAjNNw/wCbu2FY4vDLZNlR2jrwCcLzxK
n4vLvUu4T6LZb0eLArf7JU5VSZDRCYUG1Y1VuyKFBsqoM4AMjhHtwNdBi6gwlDuX
kwxEn1U04J1HVeVm+JkdyjAX+bInFXhKjEVgT06jN43PsGVG7NMxXwbPBvxb++kn
Wtlf/o1aTnNYK6TGmbeDmkHhwiWxUrZnDb625eEKH/UFHrwPmoW4t5JMgBc1HzPY
O59aqVagiFpBRZ76E8RhCaKFvNXLJeioqdh2tMXS8QhzPVeGCaQMWP+Y3dUQ2cmD
AgMBAAGjggFjMIIBXzAJBgNVHRMEAjAAMC0GCWCGSAGG+EIBDQQgFh5FYXN5LVJT
QSBHZW5lcmF0ZWQgQ2VydGlmaWNhdGUwHQYDVR0OBBYEFF0hY4UWNVWKTO5Kaxfw
4VHIQGqlMIHhBgNVHSMEgdkwgdaAFBLNYATSoICecO3Gmbh7LMZS/RmhoYGypIGv
MIGsMQswCQYDVQQGEwJVUzELMAkGA1UECBMCT0gxETAPBgNVBAcTCENvbHVtYnVz
MRIwEAYDVQQKEwlWaWtpbmdWUE4xHTAbBgNVBAsTFE15T3JnYW5pemF0aW9uYWxV
bml0MRUwEwYDVQQDEwxWaWtpbmdWUE4gQ0ExEDAOBgNVBCkTB0Vhc3lSU0ExITAf
BgkqhkiG9w0BCQEWEm1lQG15aG9zdC5teWRvbWFpboIJAM81he6Avyo+MBMGA1Ud
JQQMMAoGCCsGAQUFBwMCMAsGA1UdDwQEAwIHgDANBgkqhkiG9w0BAQQFAAOCAgEA
vAjIJwtsB0lLnbsKmRLpezQBRn6T/YZ4tJn6xyM/43iAGjxr8phyqMlF6vVHor77
8NgiLe3Z+xBRdiX1m9fHNpWNVfZhhjbf0qn9dXtvV3dPpDbluhLnAlqdipsLCH35
hy/ANoEd6OV0U+jTUXIVuuo9rLLXIkAsMgnSRGI1YOlHcplqSjBuTum91A/n23Xt
zBQ9Hky+azAZjzemxq6QJ+0SGkPTcn93UEMgoDRrsVOKvh4UvT+heRA0WsKnMEcX
bYx8tCKpevPO9qR92agHju0j015L9iqkRgHbreFCnsddxVy3FXJXa+QOV+2wxdLb
b3A/5AgMqkpqU/xYKP3seJThDZubRE521f/wXsjYDmKx7nYgXL9AIiVgj+ecbACl
5Xxx/pmUzY2wwHlUUHvRj8nI8t3pXBQ8MjJDCmkUsbJ9JNBK8GKsqcIbweNha7JS
Cfhz4o1ay1uBbMBseNkqvBSCluLlp5pwFiFwy8noeYJ0XD1hc9PwBcFvznNlZ7Co
fOeI8BhdB3nZD48HpDVdgzk4Oi27fgLQBPUg/caaTnjw7MiaNHh6/5W9RruW5SO2
OdDDQI8Tb+4KNM/yhMiSMW6Bm+U+pMW7oLLdqUBdUzCpA5K8EvwGmgIlywUzrpZT
/evqSIml8aGb/7ddO8EwtZcEo6YCEM1UpB/42W/JnG4=
-----END CERTIFICATE-----
