Certificate:
    Data:
        Version: 3 (0x2)
        Serial Number: 730 (0x2da)
    Signature Algorithm: md5WithRSAEncryption
        Issuer: C=US, ST=OH, L=Columbus, O=VikingVPN, OU=MyOrganizationalUnit, CN=VikingVPN CA/name=EasyRSA/emailAddress=me@myhost.mydomain
        Validity
            Not Before: Jan 10 11:55:11 2014 GMT
            Not After : Jan  8 11:55:11 2024 GMT
        Subject: CN=Client290Certfa45f5
        Subject Public Key Info:
            Public Key Algorithm: rsaEncryption
                Public-Key: (4096 bit)
                Modulus:
                    00:ae:6c:59:9b:07:b4:67:83:04:83:59:70:59:46:
                    2b:d7:30:7a:e5:ed:a9:bd:58:69:0a:3a:b1:16:1f:
                    c2:06:78:50:c6:59:e7:9d:29:9a:a4:62:a8:0e:b8:
                    57:7b:59:01:ce:a6:0f:01:c2:0d:b2:58:9f:cd:08:
                    36:9d:34:3c:f7:e5:e1:b7:8f:a7:c2:6c:d5:0e:ca:
                    a4:19:9c:08:d9:ea:8c:7f:11:0f:c9:5f:75:68:3b:
                    e5:41:f0:64:fe:9f:18:37:1f:b4:08:ca:ca:7d:94:
                    ca:da:7b:9a:52:75:55:09:ec:3e:b2:1a:6d:71:d3:
                    5e:3f:4f:f0:07:ff:a6:5f:ba:e3:cb:7f:89:98:00:
                    b7:98:be:c3:a1:ad:08:9e:66:6a:26:28:c7:3a:cc:
                    4a:9e:24:eb:88:95:8c:97:b9:3b:39:ef:bc:b6:6f:
                    69:b7:1b:a4:04:90:5b:9b:e1:d4:b4:c4:b9:67:a3:
                    71:c4:e4:ac:36:04:39:3b:51:4b:18:dd:4f:e1:4d:
                    71:8f:b3:aa:a1:17:89:26:d5:45:5e:18:64:ff:11:
                    58:62:bd:cd:d5:11:86:26:11:b5:94:48:86:ef:42:
                    df:d9:65:3e:42:5e:d0:91:56:20:d8:7d:46:4e:aa:
                    69:dd:a9:c4:81:2f:4e:65:ab:cb:4c:a6:22:4e:27:
                    69:8a:67:b4:14:00:d2:12:d8:29:e2:aa:37:56:f1:
                    87:df:d8:1c:12:6c:5b:78:c0:3a:c1:bb:5a:e0:a0:
                    70:9a:7c:7a:4e:53:62:e5:12:1c:66:fc:8d:c4:4a:
                    82:35:4c:3b:8a:5e:47:49:1f:3c:ec:81:b7:a8:7b:
                    84:bb:92:0c:7b:cc:79:ca:22:d4:69:eb:02:d6:37:
                    b6:e1:bb:23:73:70:74:9f:0d:6b:3e:a0:5a:f2:a5:
                    73:11:78:dd:19:44:78:cf:a2:02:5e:64:0c:85:74:
                    bf:0c:9c:72:a4:61:c6:47:73:44:a0:7b:09:10:2d:
                    32:18:01:1c:89:0a:9f:4d:5a:cd:3f:6b:bb:c2:ac:
                    75:20:10:21:8c:7a:45:6c:dd:2c:72:e8:51:1b:0c:
                    bb:3f:6d:c2:2f:9a:ab:c8:ba:b5:0a:08:12:c2:f7:
                    6a:b1:64:21:ad:80:e1:0a:ae:cb:75:10:44:59:88:
                    9d:e3:8c:27:39:1e:35:e8:18:ab:c1:02:32:ff:32:
                    7a:48:24:fc:e9:f2:7a:53:b4:02:60:5e:df:bf:ed:
                    26:e3:91:e1:09:8f:0b:a6:d9:32:cf:d5:7c:6b:02:
                    19:18:32:78:d0:1b:cd:64:22:5e:cf:9c:4c:6c:9d:
                    11:7c:5a:4b:fb:ff:7b:23:e0:73:8f:26:7b:71:2a:
                    65:4c:95
                Exponent: 65537 (0x10001)
        X509v3 extensions:
            X509v3 Basic Constraints: 
                CA:FALSE
            Netscape Comment: 
                Easy-RSA Generated Certificate
            X509v3 Subject Key Identifier: 
                D0:5C:6A:F4:C2:DB:74:5F:FC:E4:11:1A:96:E7:43:31:67:4E:7A:16
            X509v3 Authority Key Identifier: 
                keyid:12:CD:60:04:D2:A0:80:9E:70:ED:C6:99:B8:7B:2C:C6:52:FD:19:A1
                DirName:/C=US/ST=OH/L=Columbus/O=VikingVPN/OU=MyOrganizationalUnit/CN=VikingVPN CA/name=EasyRSA/emailAddress=me@myhost.mydomain
                serial:CF:35:85:EE:80:BF:2A:3E

            X509v3 Extended Key Usage: 
                TLS Web Client Authentication
            X509v3 Key Usage: 
                Digital Signature
    Signature Algorithm: md5WithRSAEncryption
         ec:28:c8:af:26:c9:e4:c8:f8:af:7b:85:43:5c:3d:f5:37:c1:
         05:88:a5:e6:86:3e:af:5b:ba:1d:c2:05:4a:ba:51:d0:df:ad:
         1a:81:97:3d:7c:95:04:7e:fb:9f:72:12:52:26:02:74:b5:75:
         30:02:c7:27:4b:1d:7c:dd:4e:3e:c6:db:02:68:b3:4b:c4:0e:
         bb:69:04:10:eb:1f:cb:b1:d1:dd:fe:5b:e0:4f:6a:0e:06:c0:
         3f:15:10:f9:d6:84:f6:72:ca:b1:28:07:45:73:27:db:1f:71:
         d1:de:f4:7a:8a:be:94:ae:90:54:94:9c:57:5c:39:d8:a0:10:
         f4:ae:92:9b:76:2a:9e:34:1a:75:a9:66:e0:b8:45:23:2e:f0:
         e0:b4:15:87:2c:33:1d:af:71:33:db:36:0a:5c:94:9d:b2:57:
         7d:cc:2c:fa:2f:59:86:af:67:e4:6c:fd:46:a7:52:55:73:75:
         cc:47:43:c4:26:61:8f:b2:72:ec:f8:c7:4d:b9:f8:36:2e:b6:
         c1:44:fd:50:e1:de:13:6a:73:5c:9d:f5:6a:8c:e5:f6:6c:55:
         a2:db:06:53:a6:77:14:eb:b0:ac:3d:90:14:8c:62:c9:8e:e4:
         2d:ba:02:36:a8:de:2d:e1:a0:ab:8f:52:51:61:c1:c2:a6:82:
         43:dd:e4:2f:51:dc:b6:8e:8a:59:53:c9:38:01:3e:0e:6b:b5:
         0d:2a:40:c2:7a:66:5d:cb:a1:86:ee:8a:c6:81:49:99:e2:f4:
         c8:d3:e1:cc:95:90:e5:74:80:1e:96:14:1a:32:df:19:fb:f5:
         03:f3:0e:85:0b:e8:91:0f:0e:d1:cf:10:9f:e4:5f:86:21:b7:
         e2:d5:03:26:6e:f3:c3:16:f0:68:fd:25:47:d2:f9:93:f1:0e:
         cf:d5:67:93:ce:58:f2:eb:20:5d:e4:a3:cd:e4:d6:e9:b1:16:
         6c:8e:f0:40:ba:c2:3a:ca:a3:2c:db:6b:ae:04:cb:a3:c9:60:
         ac:10:68:73:25:2f:27:8b:08:f8:92:a4:0f:5c:a2:02:04:0b:
         84:10:d2:48:7d:33:7b:7a:96:b0:bd:6a:4e:db:6d:25:57:48:
         e9:e4:41:f2:3e:12:b4:ca:72:48:ec:ac:1b:65:cf:bf:51:f7:
         68:c4:4d:7b:60:c1:7c:d4:c1:44:7e:f7:0e:64:cc:b1:09:2f:
         8d:bf:29:01:db:be:f9:aa:cd:80:b2:37:a8:3a:8a:ca:48:46:
         86:de:e0:a6:02:34:1e:6f:ff:69:17:52:d1:b5:34:8c:87:3e:
         7f:30:e3:47:cd:0d:1d:ee:2c:c7:97:7b:f7:d7:dd:c6:85:f1:
         e7:4e:a6:4e:af:87:33:2d
-----BEGIN CERTIFICATE-----
MIIGrDCCBJSgAwIBAgICAtowDQYJKoZIhvcNAQEEBQAwgawxCzAJBgNVBAYTAlVT
MQswCQYDVQQIEwJPSDERMA8GA1UEBxMIQ29sdW1idXMxEjAQBgNVBAoTCVZpa2lu
Z1ZQTjEdMBsGA1UECxMUTXlPcmdhbml6YXRpb25hbFVuaXQxFTATBgNVBAMTDFZp
a2luZ1ZQTiBDQTEQMA4GA1UEKRMHRWFzeVJTQTEhMB8GCSqGSIb3DQEJARYSbWVA
bXlob3N0Lm15ZG9tYWluMB4XDTE0MDExMDExNTUxMVoXDTI0MDEwODExNTUxMVow
HjEcMBoGA1UEAxMTQ2xpZW50MjkwQ2VydGZhNDVmNTCCAiIwDQYJKoZIhvcNAQEB
BQADggIPADCCAgoCggIBAK5sWZsHtGeDBINZcFlGK9cweuXtqb1YaQo6sRYfwgZ4
UMZZ550pmqRiqA64V3tZAc6mDwHCDbJYn80INp00PPfl4bePp8Js1Q7KpBmcCNnq
jH8RD8lfdWg75UHwZP6fGDcftAjKyn2Uytp7mlJ1VQnsPrIabXHTXj9P8Af/pl+6
48t/iZgAt5i+w6GtCJ5maiYoxzrMSp4k64iVjJe5OznvvLZvabcbpASQW5vh1LTE
uWejccTkrDYEOTtRSxjdT+FNcY+zqqEXiSbVRV4YZP8RWGK9zdURhiYRtZRIhu9C
39llPkJe0JFWINh9Rk6qad2pxIEvTmWry0ymIk4naYpntBQA0hLYKeKqN1bxh9/Y
HBJsW3jAOsG7WuCgcJp8ek5TYuUSHGb8jcRKgjVMO4peR0kfPOyBt6h7hLuSDHvM
ecoi1GnrAtY3tuG7I3NwdJ8Naz6gWvKlcxF43RlEeM+iAl5kDIV0vwyccqRhxkdz
RKB7CRAtMhgBHIkKn01azT9ru8KsdSAQIYx6RWzdLHLoURsMuz9twi+aq8i6tQoI
EsL3arFkIa2A4Qquy3UQRFmIneOMJzkeNegYq8ECMv8yekgk/OnyelO0AmBe37/t
JuOR4QmPC6bZMs/VfGsCGRgyeNAbzWQiXs+cTGydEXxaS/v/eyPgc48me3EqZUyV
AgMBAAGjggFjMIIBXzAJBgNVHRMEAjAAMC0GCWCGSAGG+EIBDQQgFh5FYXN5LVJT
QSBHZW5lcmF0ZWQgQ2VydGlmaWNhdGUwHQYDVR0OBBYEFNBcavTC23Rf/OQRGpbn
QzFnTnoWMIHhBgNVHSMEgdkwgdaAFBLNYATSoICecO3Gmbh7LMZS/RmhoYGypIGv
MIGsMQswCQYDVQQGEwJVUzELMAkGA1UECBMCT0gxETAPBgNVBAcTCENvbHVtYnVz
MRIwEAYDVQQKEwlWaWtpbmdWUE4xHTAbBgNVBAsTFE15T3JnYW5pemF0aW9uYWxV
bml0MRUwEwYDVQQDEwxWaWtpbmdWUE4gQ0ExEDAOBgNVBCkTB0Vhc3lSU0ExITAf
BgkqhkiG9w0BCQEWEm1lQG15aG9zdC5teWRvbWFpboIJAM81he6Avyo+MBMGA1Ud
JQQMMAoGCCsGAQUFBwMCMAsGA1UdDwQEAwIHgDANBgkqhkiG9w0BAQQFAAOCAgEA
7CjIrybJ5Mj4r3uFQ1w99TfBBYil5oY+r1u6HcIFSrpR0N+tGoGXPXyVBH77n3IS
UiYCdLV1MALHJ0sdfN1OPsbbAmizS8QOu2kEEOsfy7HR3f5b4E9qDgbAPxUQ+daE
9nLKsSgHRXMn2x9x0d70eoq+lK6QVJScV1w52KAQ9K6Sm3YqnjQadalm4LhFIy7w
4LQVhywzHa9xM9s2ClyUnbJXfcws+i9Zhq9n5Gz9RqdSVXN1zEdDxCZhj7Jy7PjH
Tbn4Ni62wUT9UOHeE2pzXJ31aozl9mxVotsGU6Z3FOuwrD2QFIxiyY7kLboCNqje
LeGgq49SUWHBwqaCQ93kL1Hcto6KWVPJOAE+Dmu1DSpAwnpmXcuhhu6KxoFJmeL0
yNPhzJWQ5XSAHpYUGjLfGfv1A/MOhQvokQ8O0c8Qn+RfhiG34tUDJm7zwxbwaP0l
R9L5k/EOz9Vnk85Y8usgXeSjzeTW6bEWbI7wQLrCOsqjLNtrrgTLo8lgrBBocyUv
J4sI+JKkD1yiAgQLhBDSSH0ze3qWsL1qTtttJVdI6eRB8j4StMpySOysG2XPv1H3
aMRNe2DBfNTBRH73DmTMsQkvjb8pAdu++arNgLI3qDqKykhGht7gpgI0Hm//aRdS
0bU0jIc+fzDjR80NHe4sx5d799fdxoXx506mTq+HMy0=
-----END CERTIFICATE-----
