Certificate:
    Data:
        Version: 3 (0x2)
        Serial Number: 736 (0x2e0)
    Signature Algorithm: md5WithRSAEncryption
        Issuer: C=US, ST=OH, L=Columbus, O=VikingVPN, OU=MyOrganizationalUnit, CN=VikingVPN CA/name=EasyRSA/emailAddress=me@myhost.mydomain
        Validity
            Not Before: Jan 11 10:08:02 2014 GMT
            Not After : Jan  9 10:08:02 2024 GMT
        Subject: CN=Client218Certf2db7f
        Subject Public Key Info:
            Public Key Algorithm: rsaEncryption
                Public-Key: (4096 bit)
                Modulus:
                    00:95:83:30:65:9b:fc:37:06:b9:5d:6c:fb:b8:ef:
                    56:91:be:d3:82:df:21:e0:a2:d6:0e:8e:30:e5:c4:
                    80:e9:70:9a:af:4f:39:38:de:19:b0:70:9e:02:59:
                    c0:b0:64:27:56:71:6b:ad:2e:d7:1c:db:70:6d:d1:
                    bc:f5:6d:3f:f4:5b:fe:6e:cf:7c:12:93:0e:c2:4c:
                    4f:7a:9a:99:c9:cf:66:8f:a7:5e:7d:be:96:39:67:
                    fd:e7:fe:1e:45:4c:fb:bb:ce:d8:8f:bb:b8:22:2b:
                    db:db:cb:fd:25:72:eb:ee:6e:f9:71:c4:d8:47:30:
                    05:09:30:e1:c6:e7:1f:37:ee:87:78:67:54:ac:38:
                    f0:9a:1b:8c:36:61:ac:d9:20:fc:2a:a8:a8:3c:9d:
                    28:86:59:15:f9:36:84:1c:f5:75:2e:15:4d:da:59:
                    53:fe:36:51:78:d9:34:d5:60:4d:1d:6a:06:76:79:
                    57:22:83:b8:f2:5a:9f:e9:c9:21:bd:fa:f8:0b:40:
                    3c:6d:82:84:26:b3:9b:89:6a:37:7e:be:12:99:f8:
                    c0:7b:c5:ab:87:75:30:c2:0a:33:16:50:cd:d5:86:
                    4b:13:22:08:51:d7:a5:53:e4:6b:48:e2:d6:50:8e:
                    b8:24:f9:63:b4:a4:37:fb:f1:24:09:ae:c5:b2:f2:
                    31:94:dd:e2:ef:77:9a:b9:f7:7d:5c:49:6d:44:65:
                    d0:e3:2b:b3:2b:aa:8a:2d:89:ef:2c:70:0e:46:b8:
                    7a:32:b0:99:4e:f2:eb:06:b9:6e:4c:46:37:25:e3:
                    64:b5:64:57:e2:62:e4:cc:a4:46:ea:22:92:50:28:
                    15:1e:4c:8c:26:d8:53:98:0e:0e:7f:ef:b4:68:79:
                    fe:94:b1:bd:3e:82:39:e0:a5:45:c5:7f:d0:66:2d:
                    8b:3c:5d:29:fc:f5:2c:97:16:d1:0e:e3:35:54:f2:
                    40:78:35:35:80:22:9b:a4:4c:ae:9d:49:8f:1c:e7:
                    80:01:78:57:c6:2f:2f:f7:67:58:0e:d2:18:97:63:
                    58:b4:27:63:12:af:af:00:94:71:f8:51:f8:14:b2:
                    a6:35:ef:62:43:60:d2:b0:4a:5a:a5:4b:2f:35:1b:
                    4f:88:5c:15:8d:08:2c:54:af:48:59:f8:4f:72:b3:
                    18:28:dc:58:62:ff:34:d1:d0:67:01:d6:20:9c:fa:
                    8d:b9:9b:3b:f5:fc:49:71:31:b5:4c:c9:40:06:d6:
                    55:7d:f3:e1:cd:bd:a1:57:5b:c8:2e:50:b3:42:27:
                    17:8f:53:19:fe:61:95:4f:ef:4f:10:2f:6d:f2:45:
                    87:7c:21:06:69:8d:49:92:35:4f:9a:29:52:ed:41:
                    da:ec:91
                Exponent: 65537 (0x10001)
        X509v3 extensions:
            X509v3 Basic Constraints: 
                CA:FALSE
            Netscape Comment: 
                Easy-RSA Generated Certificate
            X509v3 Subject Key Identifier: 
                EE:F8:25:19:EC:44:F4:72:4F:27:BF:D1:73:62:91:45:66:85:F8:FE
            X509v3 Authority Key Identifier: 
                keyid:12:CD:60:04:D2:A0:80:9E:70:ED:C6:99:B8:7B:2C:C6:52:FD:19:A1
                DirName:/C=US/ST=OH/L=Columbus/O=VikingVPN/OU=MyOrganizationalUnit/CN=VikingVPN CA/name=EasyRSA/emailAddress=me@myhost.mydomain
                serial:CF:35:85:EE:80:BF:2A:3E

            X509v3 Extended Key Usage: 
                TLS Web Client Authentication
            X509v3 Key Usage: 
                Digital Signature
    Signature Algorithm: md5WithRSAEncryption
         33:2d:98:f4:48:94:1b:bd:57:19:45:5e:c9:d8:aa:94:c8:74:
         bb:87:8e:45:20:53:1c:a0:a1:d9:4f:5c:27:85:9c:0f:9a:fc:
         83:d1:ca:59:4e:78:04:09:40:c8:56:c5:7f:1e:f0:7f:fa:43:
         d6:a6:ea:3f:4c:b9:18:74:0a:ff:61:41:7b:33:a9:5e:c9:c6:
         fe:24:13:3f:2d:bd:27:3c:45:fc:41:b9:fe:41:43:7a:fd:06:
         01:0f:78:ef:87:bd:e9:3d:7b:0c:b7:69:b6:e6:dc:79:a5:58:
         1a:43:f2:2a:6c:a9:a8:e2:41:e2:73:fa:bc:3f:42:49:c8:bc:
         38:c7:73:e5:32:13:fe:96:af:07:21:96:c6:01:3f:c3:0c:88:
         96:f6:3a:be:d3:14:33:d8:6b:f9:46:62:4a:5c:fc:b9:60:f6:
         1c:68:c7:cb:a8:be:03:82:4d:8e:d8:04:85:d2:ff:3e:32:7a:
         c5:ba:89:73:31:41:1a:52:85:c4:a8:a2:3e:17:93:a4:9b:32:
         57:d4:35:09:4c:64:cd:86:6e:35:77:bf:e9:00:26:d2:f8:9b:
         0c:7c:82:c9:07:59:5b:e5:f4:93:dd:d1:8f:c6:d5:e6:93:6d:
         c9:7b:4a:24:49:45:0c:3f:e0:7d:eb:f6:bf:d6:b4:fa:9a:70:
         64:17:d5:f9:1d:78:c7:40:ca:2c:80:c0:7d:0f:40:c8:5f:65:
         e6:a8:50:c3:3c:14:7a:7d:33:c0:d6:bc:b5:82:40:a6:8a:54:
         f9:a8:5c:8f:98:65:e1:3d:4c:de:39:3b:0c:fc:3b:83:20:73:
         53:1a:42:a5:79:2b:6b:28:47:20:87:e6:ba:ae:e4:af:eb:4a:
         4f:ed:a1:ec:96:b5:8d:f5:d9:69:2b:d4:6f:a0:c0:5d:02:b8:
         ee:e4:f7:76:c9:38:85:99:96:71:90:e6:06:1e:5d:05:c5:12:
         7d:a4:e9:aa:b9:07:e3:35:c4:8a:f8:00:47:24:cf:81:8b:84:
         24:15:4f:13:34:29:f5:d6:f1:c0:d7:66:60:56:6c:fd:66:6a:
         2a:be:ff:2f:f3:39:48:60:1e:aa:a2:69:43:c8:9d:24:98:34:
         ec:c0:50:4f:a5:ed:a9:26:d3:e9:76:7a:d4:25:42:d1:bc:9a:
         f9:0e:ff:21:9b:a0:67:a1:de:8a:02:61:8d:9c:18:2f:64:b7:
         b5:83:c2:2a:21:42:f1:95:01:0e:86:b4:3f:bd:23:6d:a4:39:
         b4:89:72:32:52:83:90:62:76:f1:de:54:1c:8d:55:6f:ff:b8:
         b3:2a:7c:07:10:9e:b6:11:5d:d4:1c:1c:8e:2e:c9:d2:fd:9b:
         b3:bf:03:29:12:c5:96:81
-----BEGIN CERTIFICATE-----
MIIGrDCCBJSgAwIBAgICAuAwDQYJKoZIhvcNAQEEBQAwgawxCzAJBgNVBAYTAlVT
MQswCQYDVQQIEwJPSDERMA8GA1UEBxMIQ29sdW1idXMxEjAQBgNVBAoTCVZpa2lu
Z1ZQTjEdMBsGA1UECxMUTXlPcmdhbml6YXRpb25hbFVuaXQxFTATBgNVBAMTDFZp
a2luZ1ZQTiBDQTEQMA4GA1UEKRMHRWFzeVJTQTEhMB8GCSqGSIb3DQEJARYSbWVA
bXlob3N0Lm15ZG9tYWluMB4XDTE0MDExMTEwMDgwMloXDTI0MDEwOTEwMDgwMlow
HjEcMBoGA1UEAxMTQ2xpZW50MjE4Q2VydGYyZGI3ZjCCAiIwDQYJKoZIhvcNAQEB
BQADggIPADCCAgoCggIBAJWDMGWb/DcGuV1s+7jvVpG+04LfIeCi1g6OMOXEgOlw
mq9POTjeGbBwngJZwLBkJ1Zxa60u1xzbcG3RvPVtP/Rb/m7PfBKTDsJMT3qamcnP
Zo+nXn2+ljln/ef+HkVM+7vO2I+7uCIr29vL/SVy6+5u+XHE2EcwBQkw4cbnHzfu
h3hnVKw48JobjDZhrNkg/CqoqDydKIZZFfk2hBz1dS4VTdpZU/42UXjZNNVgTR1q
BnZ5VyKDuPJan+nJIb36+AtAPG2ChCazm4lqN36+Epn4wHvFq4d1MMIKMxZQzdWG
SxMiCFHXpVPka0ji1lCOuCT5Y7SkN/vxJAmuxbLyMZTd4u93mrn3fVxJbURl0OMr
syuqii2J7yxwDka4ejKwmU7y6wa5bkxGNyXjZLVkV+Ji5MykRuoiklAoFR5MjCbY
U5gODn/vtGh5/pSxvT6COeClRcV/0GYtizxdKfz1LJcW0Q7jNVTyQHg1NYAim6RM
rp1JjxzngAF4V8YvL/dnWA7SGJdjWLQnYxKvrwCUcfhR+BSypjXvYkNg0rBKWqVL
LzUbT4hcFY0ILFSvSFn4T3KzGCjcWGL/NNHQZwHWIJz6jbmbO/X8SXExtUzJQAbW
VX3z4c29oVdbyC5Qs0InF49TGf5hlU/vTxAvbfJFh3whBmmNSZI1T5opUu1B2uyR
AgMBAAGjggFjMIIBXzAJBgNVHRMEAjAAMC0GCWCGSAGG+EIBDQQgFh5FYXN5LVJT
QSBHZW5lcmF0ZWQgQ2VydGlmaWNhdGUwHQYDVR0OBBYEFO74JRnsRPRyTye/0XNi
kUVmhfj+MIHhBgNVHSMEgdkwgdaAFBLNYATSoICecO3Gmbh7LMZS/RmhoYGypIGv
MIGsMQswCQYDVQQGEwJVUzELMAkGA1UECBMCT0gxETAPBgNVBAcTCENvbHVtYnVz
MRIwEAYDVQQKEwlWaWtpbmdWUE4xHTAbBgNVBAsTFE15T3JnYW5pemF0aW9uYWxV
bml0MRUwEwYDVQQDEwxWaWtpbmdWUE4gQ0ExEDAOBgNVBCkTB0Vhc3lSU0ExITAf
BgkqhkiG9w0BCQEWEm1lQG15aG9zdC5teWRvbWFpboIJAM81he6Avyo+MBMGA1Ud
JQQMMAoGCCsGAQUFBwMCMAsGA1UdDwQEAwIHgDANBgkqhkiG9w0BAQQFAAOCAgEA
My2Y9EiUG71XGUVeydiqlMh0u4eORSBTHKCh2U9cJ4WcD5r8g9HKWU54BAlAyFbF
fx7wf/pD1qbqP0y5GHQK/2FBezOpXsnG/iQTPy29JzxF/EG5/kFDev0GAQ9474e9
6T17DLdptubceaVYGkPyKmypqOJB4nP6vD9CSci8OMdz5TIT/pavByGWxgE/wwyI
lvY6vtMUM9hr+UZiSlz8uWD2HGjHy6i+A4JNjtgEhdL/PjJ6xbqJczFBGlKFxKii
PheTpJsyV9Q1CUxkzYZuNXe/6QAm0vibDHyCyQdZW+X0k93Rj8bV5pNtyXtKJElF
DD/gfev2v9a0+ppwZBfV+R14x0DKLIDAfQ9AyF9l5qhQwzwUen0zwNa8tYJApopU
+ahcj5hl4T1M3jk7DPw7gyBzUxpCpXkrayhHIIfmuq7kr+tKT+2h7Ja1jfXZaSvU
b6DAXQK47uT3dsk4hZmWcZDmBh5dBcUSfaTpqrkH4zXEivgARyTPgYuEJBVPEzQp
9dbxwNdmYFZs/WZqKr7/L/M5SGAeqqJpQ8idJJg07MBQT6XtqSbT6XZ61CVC0bya
+Q7/IZugZ6HeigJhjZwYL2S3tYPCKiFC8ZUBDoa0P70jbaQ5tIlyMlKDkGJ28d5U
HI1Vb/+4syp8BxCethFd1Bwcji7J0v2bs78DKRLFloE=
-----END CERTIFICATE-----
