Certificate:
    Data:
        Version: 3 (0x2)
        Serial Number: 738 (0x2e2)
    Signature Algorithm: md5WithRSAEncryption
        Issuer: C=US, ST=OH, L=Columbus, O=VikingVPN, OU=MyOrganizationalUnit, CN=VikingVPN CA/name=EasyRSA/emailAddress=me@myhost.mydomain
        Validity
            Not Before: Jan 11 19:12:26 2014 GMT
            Not After : Jan  9 19:12:26 2024 GMT
        Subject: CN=Client297Certe4fee5
        Subject Public Key Info:
            Public Key Algorithm: rsaEncryption
                Public-Key: (4096 bit)
                Modulus:
                    00:c6:f9:13:62:46:c4:f4:2e:b1:f1:91:17:20:db:
                    50:a5:c4:55:16:2d:c4:fe:aa:c2:55:bf:ce:15:df:
                    0f:dc:85:33:8b:6e:80:8c:2c:4d:41:4a:ef:63:d4:
                    90:12:83:ad:5c:1a:4b:2c:5b:52:e6:03:6a:27:f7:
                    c4:c0:d2:71:98:af:13:54:b3:ad:5d:80:69:99:da:
                    ea:e4:b4:25:53:35:96:ac:5d:96:96:ab:34:35:3c:
                    7b:81:c7:fe:58:84:0e:60:90:40:f0:2f:ca:9e:eb:
                    ab:be:29:83:93:ed:ca:24:20:51:f0:b5:70:2b:b5:
                    5f:26:9c:08:ad:c8:3d:8d:bb:b6:e3:fa:ff:33:77:
                    12:fa:66:b9:48:09:9a:8c:88:32:b4:ab:8c:0e:0c:
                    75:db:62:f1:a8:8e:3b:81:46:94:5e:8f:02:13:d4:
                    60:08:67:67:8b:ce:4c:61:ed:80:73:7b:ea:c8:bc:
                    88:68:0f:ee:0d:29:55:34:f0:ee:28:06:8f:2b:52:
                    bc:8b:a1:3f:1d:41:de:f0:fa:fa:c7:20:74:55:1a:
                    7b:6d:1d:88:da:95:9e:86:b8:ec:4e:d1:8d:0d:db:
                    7f:06:b6:cd:36:74:3b:ac:a6:16:82:82:c4:18:17:
                    f7:05:b4:c2:b6:1a:9a:1d:4f:49:56:68:4e:37:14:
                    c3:e1:1b:fd:8f:7e:bd:4d:ba:33:e6:2a:7c:85:d0:
                    a4:96:98:b7:b2:42:fc:b7:32:5a:30:8d:a9:68:b0:
                    27:18:76:09:47:a7:f2:c0:e5:42:e6:98:31:ce:38:
                    be:47:c1:e1:e0:6c:23:dd:f0:9b:db:da:ca:09:f6:
                    13:08:71:9f:28:20:08:e2:b5:fc:41:f6:c2:57:ee:
                    a1:90:70:c6:d0:2a:2b:1e:ab:b4:e9:8a:b0:12:ca:
                    db:08:1c:3f:35:73:2c:65:d3:ef:0e:35:59:7f:63:
                    c8:78:e3:b7:3f:d3:29:50:bc:7f:9f:c3:37:49:de:
                    92:88:9a:1c:3a:fe:f1:2f:98:40:cb:14:40:6e:5f:
                    16:a9:7b:0a:0c:17:59:e7:7a:88:27:7f:6c:2e:fc:
                    2b:97:ae:05:96:48:2d:2a:a5:6f:5e:be:07:b2:37:
                    c9:85:d3:ff:08:4e:c6:bf:c4:4a:53:af:4b:01:9b:
                    c7:81:29:44:a1:db:ae:9e:3e:06:71:69:42:d8:5f:
                    ea:db:67:e0:4a:ac:f4:ed:f6:87:8f:09:48:5d:69:
                    9b:70:04:3f:66:4d:28:74:00:0f:18:03:ac:ba:2f:
                    c2:24:f7:7a:0c:ce:07:ea:98:20:a0:9d:70:dc:38:
                    70:fd:91:23:85:05:87:3a:65:da:7e:c1:f8:f7:f9:
                    21:a0:fd
                Exponent: 65537 (0x10001)
        X509v3 extensions:
            X509v3 Basic Constraints: 
                CA:FALSE
            Netscape Comment: 
                Easy-RSA Generated Certificate
            X509v3 Subject Key Identifier: 
                93:EF:8B:63:D2:BE:3C:B3:F4:22:C5:37:19:E1:72:28:E5:64:69:40
            X509v3 Authority Key Identifier: 
                keyid:12:CD:60:04:D2:A0:80:9E:70:ED:C6:99:B8:7B:2C:C6:52:FD:19:A1
                DirName:/C=US/ST=OH/L=Columbus/O=VikingVPN/OU=MyOrganizationalUnit/CN=VikingVPN CA/name=EasyRSA/emailAddress=me@myhost.mydomain
                serial:CF:35:85:EE:80:BF:2A:3E

            X509v3 Extended Key Usage: 
                TLS Web Client Authentication
            X509v3 Key Usage: 
                Digital Signature
    Signature Algorithm: md5WithRSAEncryption
         56:ce:b3:2e:23:a4:8d:cf:76:15:ce:97:ea:04:47:a6:b9:3b:
         57:34:fa:2f:b1:a5:1a:1c:db:7a:2e:18:4d:81:b1:2d:13:f0:
         a8:40:3b:68:1b:96:5f:77:45:bd:aa:33:5e:e4:16:d6:b9:83:
         23:10:ee:77:1e:c8:33:33:ac:69:54:ff:b2:0b:83:59:4c:e7:
         b5:02:a1:40:33:da:7a:62:1c:99:ae:a0:ff:af:fe:e8:29:a9:
         aa:68:1a:f2:3c:e9:c7:c8:6c:77:e5:2c:cc:ca:dd:d3:5f:da:
         d0:1b:ae:91:07:19:fb:aa:e8:38:dd:76:b9:cd:25:6b:31:e5:
         d2:e4:b6:a8:46:fb:ef:fd:f7:a1:5a:17:6c:82:6a:3c:40:f1:
         d8:db:a7:fd:8a:76:b6:91:d3:db:e1:03:e9:08:8b:fe:75:65:
         24:d0:27:3d:13:8f:ac:46:7c:4d:64:c0:f9:ee:52:97:8f:3b:
         b4:dc:68:d6:59:fe:a1:2f:7a:ff:3c:e7:1a:6b:fd:76:fd:29:
         1d:f2:cf:64:74:98:00:69:10:29:95:b3:22:d2:d9:1c:5b:fb:
         d4:9a:59:7f:94:26:a6:49:5b:02:2f:6b:2a:6b:0c:dd:06:94:
         94:a5:67:93:7a:35:ea:24:6f:53:5e:a1:27:d3:5b:29:3b:13:
         40:db:1d:13:99:a7:c7:40:75:6f:a8:97:2a:33:d1:15:d1:e9:
         56:02:a4:6d:ca:78:3d:f4:81:27:d8:f2:58:e2:1c:83:6c:13:
         94:41:32:4c:62:8d:e3:97:19:d2:31:55:ce:21:6e:4a:a4:da:
         4a:89:d5:42:70:98:18:ec:55:88:c9:95:68:3c:a2:e0:10:7c:
         98:1b:ed:4f:fe:5c:98:66:ce:68:3a:e3:36:e2:49:d8:3a:a2:
         b3:a6:36:96:8e:d6:c7:5b:90:fb:50:11:79:31:7e:d9:72:f7:
         8e:9b:a9:6b:65:58:7c:e4:c4:56:da:49:36:35:84:9c:e7:c8:
         1b:d2:69:8d:b5:d2:35:ed:88:73:45:86:da:ba:ae:71:e7:8a:
         3c:e4:bb:4b:73:da:9c:ce:d9:a8:a3:e3:a7:56:32:3f:8a:88:
         5a:a1:17:c1:b8:53:6f:f9:a4:5a:90:93:69:11:13:ca:dc:e7:
         f4:50:fb:53:3e:e0:23:10:59:90:e8:d3:ac:20:d1:d5:16:ee:
         94:5b:a2:15:1e:92:3d:1c:77:fd:45:8a:c0:9b:a7:78:0e:6e:
         71:4c:27:7c:e3:6e:18:22:8c:84:75:24:de:65:16:4f:2b:af:
         d0:76:1d:b7:96:31:0f:62:4a:e1:17:49:b9:b4:02:d2:fc:5a:
         51:6a:97:22:b3:32:1f:39
-----BEGIN CERTIFICATE-----
MIIGrDCCBJSgAwIBAgICAuIwDQYJKoZIhvcNAQEEBQAwgawxCzAJBgNVBAYTAlVT
MQswCQYDVQQIEwJPSDERMA8GA1UEBxMIQ29sdW1idXMxEjAQBgNVBAoTCVZpa2lu
Z1ZQTjEdMBsGA1UECxMUTXlPcmdhbml6YXRpb25hbFVuaXQxFTATBgNVBAMTDFZp
a2luZ1ZQTiBDQTEQMA4GA1UEKRMHRWFzeVJTQTEhMB8GCSqGSIb3DQEJARYSbWVA
bXlob3N0Lm15ZG9tYWluMB4XDTE0MDExMTE5MTIyNloXDTI0MDEwOTE5MTIyNlow
HjEcMBoGA1UEAxMTQ2xpZW50Mjk3Q2VydGU0ZmVlNTCCAiIwDQYJKoZIhvcNAQEB
BQADggIPADCCAgoCggIBAMb5E2JGxPQusfGRFyDbUKXEVRYtxP6qwlW/zhXfD9yF
M4tugIwsTUFK72PUkBKDrVwaSyxbUuYDaif3xMDScZivE1SzrV2AaZna6uS0JVM1
lqxdlparNDU8e4HH/liEDmCQQPAvyp7rq74pg5PtyiQgUfC1cCu1XyacCK3IPY27
tuP6/zN3EvpmuUgJmoyIMrSrjA4Mddti8aiOO4FGlF6PAhPUYAhnZ4vOTGHtgHN7
6si8iGgP7g0pVTTw7igGjytSvIuhPx1B3vD6+scgdFUae20diNqVnoa47E7RjQ3b
fwa2zTZ0O6ymFoKCxBgX9wW0wrYamh1PSVZoTjcUw+Eb/Y9+vU26M+YqfIXQpJaY
t7JC/LcyWjCNqWiwJxh2CUen8sDlQuaYMc44vkfB4eBsI93wm9vaygn2Ewhxnygg
COK1/EH2wlfuoZBwxtAqKx6rtOmKsBLK2wgcPzVzLGXT7w41WX9jyHjjtz/TKVC8
f5/DN0nekoiaHDr+8S+YQMsUQG5fFql7CgwXWed6iCd/bC78K5euBZZILSqlb16+
B7I3yYXT/whOxr/ESlOvSwGbx4EpRKHbrp4+BnFpQthf6ttn4Eqs9O32h48JSF1p
m3AEP2ZNKHQADxgDrLovwiT3egzOB+qYIKCdcNw4cP2RI4UFhzpl2n7B+Pf5IaD9
AgMBAAGjggFjMIIBXzAJBgNVHRMEAjAAMC0GCWCGSAGG+EIBDQQgFh5FYXN5LVJT
QSBHZW5lcmF0ZWQgQ2VydGlmaWNhdGUwHQYDVR0OBBYEFJPvi2PSvjyz9CLFNxnh
cijlZGlAMIHhBgNVHSMEgdkwgdaAFBLNYATSoICecO3Gmbh7LMZS/RmhoYGypIGv
MIGsMQswCQYDVQQGEwJVUzELMAkGA1UECBMCT0gxETAPBgNVBAcTCENvbHVtYnVz
MRIwEAYDVQQKEwlWaWtpbmdWUE4xHTAbBgNVBAsTFE15T3JnYW5pemF0aW9uYWxV
bml0MRUwEwYDVQQDEwxWaWtpbmdWUE4gQ0ExEDAOBgNVBCkTB0Vhc3lSU0ExITAf
BgkqhkiG9w0BCQEWEm1lQG15aG9zdC5teWRvbWFpboIJAM81he6Avyo+MBMGA1Ud
JQQMMAoGCCsGAQUFBwMCMAsGA1UdDwQEAwIHgDANBgkqhkiG9w0BAQQFAAOCAgEA
Vs6zLiOkjc92Fc6X6gRHprk7VzT6L7GlGhzbei4YTYGxLRPwqEA7aBuWX3dFvaoz
XuQW1rmDIxDudx7IMzOsaVT/sguDWUzntQKhQDPaemIcma6g/6/+6Cmpqmga8jzp
x8hsd+UszMrd01/a0BuukQcZ+6roON12uc0lazHl0uS2qEb77/33oVoXbIJqPEDx
2Nun/Yp2tpHT2+ED6QiL/nVlJNAnPROPrEZ8TWTA+e5Sl487tNxo1ln+oS96/zzn
Gmv9dv0pHfLPZHSYAGkQKZWzItLZHFv71JpZf5QmpklbAi9rKmsM3QaUlKVnk3o1
6iRvU16hJ9NbKTsTQNsdE5mnx0B1b6iXKjPRFdHpVgKkbcp4PfSBJ9jyWOIcg2wT
lEEyTGKN45cZ0jFVziFuSqTaSonVQnCYGOxViMmVaDyi4BB8mBvtT/5cmGbOaDrj
NuJJ2Dqis6Y2lo7Wx1uQ+1AReTF+2XL3jpupa2VYfOTEVtpJNjWEnOfIG9JpjbXS
Ne2Ic0WG2rquceeKPOS7S3PanM7ZqKPjp1YyP4qIWqEXwbhTb/mkWpCTaRETytzn
9FD7Uz7gIxBZkOjTrCDR1RbulFuiFR6SPRx3/UWKwJuneA5ucUwnfONuGCKMhHUk
3mUWTyuv0HYdt5YxD2JK4RdJubQC0vxaUWqXIrMyHzk=
-----END CERTIFICATE-----
