Certificate:
    Data:
        Version: 3 (0x2)
        Serial Number: 739 (0x2e3)
    Signature Algorithm: md5WithRSAEncryption
        Issuer: C=US, ST=OH, L=Columbus, O=VikingVPN, OU=MyOrganizationalUnit, CN=VikingVPN CA/name=EasyRSA/emailAddress=me@myhost.mydomain
        Validity
            Not Before: Jan 11 19:40:15 2014 GMT
            Not After : Jan  9 19:40:15 2024 GMT
        Subject: CN=Client298Certc2e20b
        Subject Public Key Info:
            Public Key Algorithm: rsaEncryption
                Public-Key: (4096 bit)
                Modulus:
                    00:ea:bf:d7:a0:ae:a9:bc:e8:bc:1c:1a:ca:f0:b9:
                    c6:2a:c3:79:85:e6:38:98:5b:d4:51:36:6f:fd:31:
                    90:97:d8:96:94:6d:cf:c2:c1:bf:f8:08:47:69:5f:
                    0e:f3:5f:23:65:63:b8:2d:78:0d:86:e1:33:4c:7f:
                    b2:c3:6c:bb:7e:80:c8:3d:1f:fe:17:3a:48:fe:69:
                    34:8a:76:d0:cc:ab:45:1a:9c:af:25:02:58:ca:7f:
                    53:b2:b0:12:03:bb:14:e5:66:74:c3:39:de:ae:0e:
                    8d:e0:a0:80:aa:6f:18:4c:37:db:a9:eb:d2:c8:79:
                    ae:0a:77:d3:ce:d7:b2:9a:96:22:c3:da:de:86:44:
                    ba:b0:90:8f:5b:09:a7:fb:c2:2e:ab:e7:65:d5:c1:
                    ca:b1:9c:7b:bd:cc:f8:f9:40:bc:27:0d:14:a9:07:
                    6b:e7:76:fe:b9:e8:45:cb:df:96:ac:18:40:dd:1c:
                    e4:b1:3b:86:6f:6e:2d:53:8f:2a:e5:0c:87:c4:71:
                    de:21:b9:10:c6:61:98:39:15:c9:41:44:9a:eb:01:
                    56:59:fc:8b:69:54:80:91:95:80:4a:2b:f9:90:80:
                    b0:3f:ef:58:3f:f2:0a:57:c2:05:aa:e0:3b:4d:5a:
                    5f:91:e8:36:a2:c4:91:51:a7:7f:fc:e2:c9:21:dc:
                    24:d3:42:9e:8e:f7:24:81:66:fa:5c:80:16:10:8a:
                    6e:23:03:3a:0c:3c:03:19:d2:b1:9d:9e:71:ac:95:
                    67:bc:78:eb:12:2b:7e:f4:cb:92:2a:b6:67:2f:87:
                    67:14:c4:ba:07:b4:a1:b5:3a:7a:19:a2:8f:14:d1:
                    f3:e4:2d:82:d9:42:27:aa:10:b7:30:08:a5:9f:7a:
                    e3:27:5a:0d:84:7f:9b:a6:07:af:1d:48:a2:c4:39:
                    8f:02:da:b1:0e:9e:de:cf:06:a6:6b:8d:aa:70:ae:
                    95:15:9e:24:b4:53:e2:c8:9b:78:68:7e:96:f9:4f:
                    c2:1c:a9:cb:3b:76:c7:cd:b7:a3:0a:0e:ec:48:60:
                    ae:22:17:86:c6:5c:4c:79:db:2e:7e:52:d3:bc:44:
                    f2:83:65:ea:f1:61:af:a3:13:f4:a8:f8:e9:cf:f4:
                    4a:03:69:d2:d2:5f:9e:38:77:f3:f3:c9:47:38:62:
                    0d:55:b0:0d:a5:37:a2:09:fa:a5:51:55:e0:77:16:
                    f6:f0:0b:4f:f6:93:b5:6d:66:58:ce:1a:fd:70:a8:
                    96:0b:c0:8c:14:77:da:09:0a:cf:55:61:c0:11:e7:
                    c4:01:76:cd:72:bf:6b:f3:ef:d8:23:3b:89:b1:14:
                    10:34:78:2a:ed:8c:c7:80:05:21:9d:f1:41:c0:5d:
                    5f:76:43
                Exponent: 65537 (0x10001)
        X509v3 extensions:
            X509v3 Basic Constraints: 
                CA:FALSE
            Netscape Comment: 
                Easy-RSA Generated Certificate
            X509v3 Subject Key Identifier: 
                48:08:A9:C7:E9:FF:BC:FE:97:FE:78:48:2F:1C:26:54:A1:2A:3B:B1
            X509v3 Authority Key Identifier: 
                keyid:12:CD:60:04:D2:A0:80:9E:70:ED:C6:99:B8:7B:2C:C6:52:FD:19:A1
                DirName:/C=US/ST=OH/L=Columbus/O=VikingVPN/OU=MyOrganizationalUnit/CN=VikingVPN CA/name=EasyRSA/emailAddress=me@myhost.mydomain
                serial:CF:35:85:EE:80:BF:2A:3E

            X509v3 Extended Key Usage: 
                TLS Web Client Authentication
            X509v3 Key Usage: 
                Digital Signature
    Signature Algorithm: md5WithRSAEncryption
         8c:46:6e:ae:15:63:74:37:04:fe:25:aa:f0:f8:f7:b3:95:34:
         17:47:ef:cb:39:e4:0f:8b:85:b7:38:cb:29:7b:22:8f:59:47:
         9e:96:de:b8:ac:20:e5:20:c4:f2:da:95:06:fa:50:fa:90:45:
         c8:0c:6b:fa:74:78:2f:71:97:55:1a:97:24:bb:86:a3:b7:87:
         0a:66:3e:9d:b2:fc:bf:ae:e3:10:1c:10:8a:c6:f5:58:29:69:
         7e:de:6d:00:fa:68:96:fc:dc:a5:62:11:78:fb:28:a8:a9:99:
         df:20:11:ee:8f:ce:23:e4:11:9d:8a:69:93:be:f1:a3:33:9a:
         ed:24:05:e2:47:2c:f0:8b:97:d8:b5:58:8a:18:ef:08:ea:81:
         2c:f3:b6:c7:85:86:32:38:d2:45:89:1d:6f:3b:2b:58:fb:30:
         3e:0c:15:a2:cb:4f:1f:87:94:47:70:5c:ca:c9:ed:42:f0:60:
         98:3f:6f:61:cb:74:87:85:39:50:df:c6:9a:49:f0:f4:8b:ab:
         02:63:37:b4:1a:7d:d7:ce:09:81:1f:73:a4:cd:95:8c:9a:cc:
         25:c3:b3:db:aa:17:4c:e1:6a:9a:9a:c5:50:89:bc:bf:e7:71:
         78:45:76:12:b3:39:dd:48:f4:35:1e:7a:ac:95:0b:0e:e8:d8:
         70:69:10:d6:3f:4c:3c:43:0d:9a:4b:a8:7c:74:5c:b3:f3:fe:
         57:18:f9:25:ca:cf:ba:a9:af:81:be:1d:20:4b:af:09:e4:c9:
         f6:60:3d:00:24:26:e6:7c:45:16:14:fd:75:73:39:a7:66:2a:
         1e:ae:12:c8:40:d1:6a:8e:a6:8e:a6:d6:a2:f0:75:42:22:96:
         35:a2:1e:b5:ed:54:03:9d:f2:f5:ed:06:7d:3e:bd:62:18:f6:
         7d:85:c7:7f:93:a3:ff:3c:43:6e:a8:7d:7d:ff:7b:3b:75:13:
         e7:9e:af:cd:cd:14:ea:ae:5c:19:79:d0:68:8f:04:8e:a1:53:
         3e:67:0c:dd:14:8f:88:6a:0d:93:24:18:4a:cb:45:b9:4b:95:
         7e:c2:8e:74:69:bb:69:be:7b:de:97:4b:d9:53:28:bf:46:47:
         f1:64:16:f3:93:8b:40:24:e3:e1:c6:e0:89:4c:ee:d6:d7:68:
         f3:e7:f7:91:7e:50:d9:1c:ef:f4:52:28:e6:97:bc:65:34:9a:
         de:6a:0f:2b:cc:96:a4:d8:6e:30:b2:a3:98:1c:1d:b6:1b:58:
         15:de:75:63:20:0e:0a:e9:66:19:57:f1:41:c7:cc:75:63:b8:
         5d:35:ed:4d:70:de:7c:85:5b:8f:f7:29:b0:99:25:f0:ef:7a:
         8a:f0:bd:66:5a:ba:dd:16
-----BEGIN CERTIFICATE-----
MIIGrDCCBJSgAwIBAgICAuMwDQYJKoZIhvcNAQEEBQAwgawxCzAJBgNVBAYTAlVT
MQswCQYDVQQIEwJPSDERMA8GA1UEBxMIQ29sdW1idXMxEjAQBgNVBAoTCVZpa2lu
Z1ZQTjEdMBsGA1UECxMUTXlPcmdhbml6YXRpb25hbFVuaXQxFTATBgNVBAMTDFZp
a2luZ1ZQTiBDQTEQMA4GA1UEKRMHRWFzeVJTQTEhMB8GCSqGSIb3DQEJARYSbWVA
bXlob3N0Lm15ZG9tYWluMB4XDTE0MDExMTE5NDAxNVoXDTI0MDEwOTE5NDAxNVow
HjEcMBoGA1UEAxMTQ2xpZW50Mjk4Q2VydGMyZTIwYjCCAiIwDQYJKoZIhvcNAQEB
BQADggIPADCCAgoCggIBAOq/16CuqbzovBwayvC5xirDeYXmOJhb1FE2b/0xkJfY
lpRtz8LBv/gIR2lfDvNfI2VjuC14DYbhM0x/ssNsu36AyD0f/hc6SP5pNIp20Myr
RRqcryUCWMp/U7KwEgO7FOVmdMM53q4OjeCggKpvGEw326nr0sh5rgp3087XspqW
IsPa3oZEurCQj1sJp/vCLqvnZdXByrGce73M+PlAvCcNFKkHa+d2/rnoRcvflqwY
QN0c5LE7hm9uLVOPKuUMh8Rx3iG5EMZhmDkVyUFEmusBVln8i2lUgJGVgEor+ZCA
sD/vWD/yClfCBargO01aX5HoNqLEkVGnf/ziySHcJNNCno73JIFm+lyAFhCKbiMD
Ogw8AxnSsZ2ecayVZ7x46xIrfvTLkiq2Zy+HZxTEuge0obU6ehmijxTR8+QtgtlC
J6oQtzAIpZ964ydaDYR/m6YHrx1IosQ5jwLasQ6e3s8GpmuNqnCulRWeJLRT4sib
eGh+lvlPwhypyzt2x823owoO7EhgriIXhsZcTHnbLn5S07xE8oNl6vFhr6MT9Kj4
6c/0SgNp0tJfnjh38/PJRzhiDVWwDaU3ogn6pVFV4HcW9vALT/aTtW1mWM4a/XCo
lgvAjBR32gkKz1VhwBHnxAF2zXK/a/Pv2CM7ibEUEDR4Ku2Mx4AFIZ3xQcBdX3ZD
AgMBAAGjggFjMIIBXzAJBgNVHRMEAjAAMC0GCWCGSAGG+EIBDQQgFh5FYXN5LVJT
QSBHZW5lcmF0ZWQgQ2VydGlmaWNhdGUwHQYDVR0OBBYEFEgIqcfp/7z+l/54SC8c
JlShKjuxMIHhBgNVHSMEgdkwgdaAFBLNYATSoICecO3Gmbh7LMZS/RmhoYGypIGv
MIGsMQswCQYDVQQGEwJVUzELMAkGA1UECBMCT0gxETAPBgNVBAcTCENvbHVtYnVz
MRIwEAYDVQQKEwlWaWtpbmdWUE4xHTAbBgNVBAsTFE15T3JnYW5pemF0aW9uYWxV
bml0MRUwEwYDVQQDEwxWaWtpbmdWUE4gQ0ExEDAOBgNVBCkTB0Vhc3lSU0ExITAf
BgkqhkiG9w0BCQEWEm1lQG15aG9zdC5teWRvbWFpboIJAM81he6Avyo+MBMGA1Ud
JQQMMAoGCCsGAQUFBwMCMAsGA1UdDwQEAwIHgDANBgkqhkiG9w0BAQQFAAOCAgEA
jEZurhVjdDcE/iWq8Pj3s5U0F0fvyznkD4uFtzjLKXsij1lHnpbeuKwg5SDE8tqV
BvpQ+pBFyAxr+nR4L3GXVRqXJLuGo7eHCmY+nbL8v67jEBwQisb1WClpft5tAPpo
lvzcpWIRePsoqKmZ3yAR7o/OI+QRnYppk77xozOa7SQF4kcs8IuX2LVYihjvCOqB
LPO2x4WGMjjSRYkdbzsrWPswPgwVostPH4eUR3BcysntQvBgmD9vYct0h4U5UN/G
mknw9IurAmM3tBp9184JgR9zpM2VjJrMJcOz26oXTOFqmprFUIm8v+dxeEV2ErM5
3Uj0NR56rJULDujYcGkQ1j9MPEMNmkuofHRcs/P+Vxj5JcrPuqmvgb4dIEuvCeTJ
9mA9ACQm5nxFFhT9dXM5p2YqHq4SyEDRao6mjqbWovB1QiKWNaIete1UA53y9e0G
fT69Yhj2fYXHf5Oj/zxDbqh9ff97O3UT556vzc0U6q5cGXnQaI8EjqFTPmcM3RSP
iGoNkyQYSstFuUuVfsKOdGm7ab573pdL2VMov0ZH8WQW85OLQCTj4cbgiUzu1tdo
8+f3kX5Q2Rzv9FIo5pe8ZTSa3moPK8yWpNhuMLKjmBwdthtYFd51YyAOCulmGVfx
QcfMdWO4XTXtTXDefIVbj/cpsJkl8O96ivC9Zlq63RY=
-----END CERTIFICATE-----
