Certificate:
    Data:
        Version: 3 (0x2)
        Serial Number: 749 (0x2ed)
    Signature Algorithm: md5WithRSAEncryption
        Issuer: C=US, ST=OH, L=Columbus, O=VikingVPN, OU=MyOrganizationalUnit, CN=VikingVPN CA/name=EasyRSA/emailAddress=me@myhost.mydomain
        Validity
            Not Before: Jan 12 22:22:00 2014 GMT
            Not After : Jan 10 22:22:00 2024 GMT
        Subject: CN=Client145Certb4011e
        Subject Public Key Info:
            Public Key Algorithm: rsaEncryption
                Public-Key: (4096 bit)
                Modulus:
                    00:e3:d9:fe:4b:29:56:53:b0:b5:43:30:e4:00:54:
                    76:fa:99:89:8b:a4:18:cb:a5:43:fc:5a:7e:01:5b:
                    14:23:f4:14:82:c3:ed:fd:b9:ba:51:a2:eb:5a:b9:
                    df:ce:3d:76:26:11:f5:78:a2:cd:07:24:95:64:20:
                    ec:9d:5b:a6:64:ed:9d:24:54:53:8e:47:0b:00:7e:
                    de:90:26:3b:5c:3b:bc:e9:0a:96:df:6c:15:98:ae:
                    1e:19:bf:0f:e9:12:77:dd:c8:d6:00:38:fd:63:c5:
                    0d:6d:86:93:0f:0b:10:11:5c:44:81:a1:2e:0d:3d:
                    96:12:0f:49:ee:93:a4:c4:b6:03:40:87:7a:39:97:
                    71:a9:0c:2e:48:44:d4:e9:d0:58:16:a8:bd:5a:03:
                    c0:3d:91:73:a9:d7:0f:bf:59:d5:ad:4a:f9:48:16:
                    69:bf:19:86:94:ab:fe:88:1d:be:ff:95:ac:3e:9b:
                    7b:2f:4f:62:0d:3b:20:3a:fc:38:14:91:6a:43:f8:
                    96:35:f5:3e:b9:ee:1c:19:56:64:28:83:6a:49:47:
                    3f:43:b1:8a:dc:a2:26:03:e8:d1:57:ee:9c:30:24:
                    6f:69:2a:bf:b0:de:94:a7:22:43:f7:ef:c7:57:fc:
                    e2:e3:3f:4c:eb:4a:36:e3:08:9d:ab:9e:14:86:46:
                    9a:00:9a:dc:46:9c:b4:9c:b1:cd:d6:b0:a5:62:87:
                    bd:06:42:57:23:41:cc:10:bd:13:c0:6b:4f:1d:27:
                    cc:55:72:f9:78:de:29:3f:03:ea:0c:af:f5:7b:09:
                    e4:af:03:ba:c1:5d:57:ea:0d:d9:4a:1e:dd:82:65:
                    50:51:42:b0:4d:05:43:91:a6:ce:65:b6:8d:cc:4f:
                    32:43:52:9a:a1:9a:d7:88:5a:ef:31:82:cd:5a:c6:
                    6e:ed:a3:ea:6e:53:18:6a:8e:39:87:56:3f:2a:39:
                    a0:db:6a:b5:4a:11:d8:67:61:ad:85:89:86:90:9c:
                    61:8e:75:30:54:46:3b:0f:67:70:aa:9b:b4:20:5f:
                    52:61:4e:f5:c6:ea:86:f7:30:2d:01:b0:e9:aa:21:
                    2b:56:4b:3c:d0:49:58:58:9a:f0:6e:3d:f9:06:60:
                    1a:81:58:b5:b9:27:a4:0a:82:de:fd:17:bb:67:69:
                    64:60:17:ee:57:4e:94:db:8a:11:3c:c0:82:9d:a1:
                    06:5f:9f:e8:be:d1:43:c7:7b:c1:17:fd:62:e5:6f:
                    02:d2:2d:ed:34:7d:c9:cb:ad:98:20:61:6b:40:b5:
                    e2:84:66:45:88:f0:6e:c2:ae:ef:df:d7:8d:f0:03:
                    cd:34:82:88:2b:05:6a:7d:4b:cf:3b:77:27:09:29:
                    3f:07:85
                Exponent: 65537 (0x10001)
        X509v3 extensions:
            X509v3 Basic Constraints: 
                CA:FALSE
            Netscape Comment: 
                Easy-RSA Generated Certificate
            X509v3 Subject Key Identifier: 
                9C:C7:63:2D:C7:32:C5:97:CD:B0:03:B1:93:E3:C7:01:B6:46:BA:93
            X509v3 Authority Key Identifier: 
                keyid:12:CD:60:04:D2:A0:80:9E:70:ED:C6:99:B8:7B:2C:C6:52:FD:19:A1
                DirName:/C=US/ST=OH/L=Columbus/O=VikingVPN/OU=MyOrganizationalUnit/CN=VikingVPN CA/name=EasyRSA/emailAddress=me@myhost.mydomain
                serial:CF:35:85:EE:80:BF:2A:3E

            X509v3 Extended Key Usage: 
                TLS Web Client Authentication
            X509v3 Key Usage: 
                Digital Signature
    Signature Algorithm: md5WithRSAEncryption
         59:bc:43:ac:61:3a:c5:73:ee:cc:8c:06:dc:bf:ab:03:30:89:
         46:59:9f:ca:52:4d:69:3e:75:fb:c2:54:bf:e3:70:3d:c1:16:
         10:d5:f0:2e:90:27:ec:2f:52:f7:12:89:25:38:49:2e:23:c4:
         cd:84:fa:8c:ca:24:03:23:3c:e6:bf:2b:24:d8:e9:38:10:a7:
         30:fe:ee:27:b2:41:4c:8e:56:89:4e:b8:ae:59:ac:9d:be:81:
         b1:10:77:84:ef:bb:86:b6:4c:2b:03:8f:30:84:b6:cc:9e:83:
         48:6b:56:bd:c9:5f:ab:cc:f4:1f:11:84:cd:45:85:9b:8d:db:
         8c:b3:33:fa:e5:73:ca:ab:a1:f4:3e:d8:63:4d:a8:48:39:48:
         f9:2d:44:ce:af:65:1e:7f:ec:d2:ce:dc:11:16:7c:d8:4b:a0:
         80:ba:4e:85:16:68:ae:61:e3:b2:03:54:c2:1e:09:2d:c0:0c:
         aa:23:58:50:3e:6b:1b:df:62:20:6d:64:54:bc:b1:e4:da:4f:
         d4:5a:2d:b5:f8:36:10:67:5c:50:08:7c:62:e7:95:6c:c4:17:
         eb:b6:7f:bb:52:91:88:4c:d7:31:1b:da:63:d8:c6:29:f2:da:
         3e:e0:bd:a1:7d:c1:46:5c:81:9c:9a:e2:7b:ae:0a:d6:93:13:
         29:bd:7f:79:7b:c6:fd:7a:fc:87:ff:99:13:10:7b:8b:a9:19:
         8c:7c:f5:e1:66:ef:b6:e1:14:67:de:bf:06:62:66:a8:ca:cc:
         e7:6c:73:06:07:e6:71:e3:b2:c8:32:3e:1b:2b:44:62:2b:a6:
         8f:58:15:65:9b:82:ca:5a:9b:0e:f8:39:56:24:09:0c:ee:be:
         7a:b3:6b:82:32:4b:65:4d:ee:a8:79:e4:33:cb:b0:23:67:61:
         31:8c:cf:ed:c7:b2:75:08:18:cd:6b:c4:08:a4:24:c1:60:18:
         f1:09:9b:e5:d7:9c:45:64:6c:d6:53:08:d0:0e:91:70:57:06:
         13:b8:37:af:1a:63:96:e7:a7:39:1e:21:82:2c:c0:99:05:05:
         e4:24:74:f9:a4:12:1c:4d:5c:45:10:4e:62:18:aa:84:1e:06:
         64:72:3b:49:a7:d5:0e:22:11:09:f9:f6:7f:01:b4:f8:36:6a:
         83:a2:f1:00:31:27:6a:3c:9d:a5:e8:17:50:cd:bc:22:f8:fc:
         9b:23:5e:3a:41:ec:65:d0:6b:6d:33:f2:03:31:f9:50:ce:09:
         2a:ab:dd:69:56:97:fc:7f:7a:d3:81:0b:77:be:ca:26:75:01:
         60:01:b3:2b:27:12:95:79:ad:46:06:8f:9a:e2:05:7e:f9:40:
         95:b0:e7:f4:6f:75:0d:96
-----BEGIN CERTIFICATE-----
MIIGrDCCBJSgAwIBAgICAu0wDQYJKoZIhvcNAQEEBQAwgawxCzAJBgNVBAYTAlVT
MQswCQYDVQQIEwJPSDERMA8GA1UEBxMIQ29sdW1idXMxEjAQBgNVBAoTCVZpa2lu
Z1ZQTjEdMBsGA1UECxMUTXlPcmdhbml6YXRpb25hbFVuaXQxFTATBgNVBAMTDFZp
a2luZ1ZQTiBDQTEQMA4GA1UEKRMHRWFzeVJTQTEhMB8GCSqGSIb3DQEJARYSbWVA
bXlob3N0Lm15ZG9tYWluMB4XDTE0MDExMjIyMjIwMFoXDTI0MDExMDIyMjIwMFow
HjEcMBoGA1UEAxMTQ2xpZW50MTQ1Q2VydGI0MDExZTCCAiIwDQYJKoZIhvcNAQEB
BQADggIPADCCAgoCggIBAOPZ/kspVlOwtUMw5ABUdvqZiYukGMulQ/xafgFbFCP0
FILD7f25ulGi61q53849diYR9XiizQcklWQg7J1bpmTtnSRUU45HCwB+3pAmO1w7
vOkKlt9sFZiuHhm/D+kSd93I1gA4/WPFDW2Gkw8LEBFcRIGhLg09lhIPSe6TpMS2
A0CHejmXcakMLkhE1OnQWBaovVoDwD2Rc6nXD79Z1a1K+UgWab8ZhpSr/ogdvv+V
rD6bey9PYg07IDr8OBSRakP4ljX1PrnuHBlWZCiDaklHP0OxityiJgPo0VfunDAk
b2kqv7DelKciQ/fvx1f84uM/TOtKNuMInaueFIZGmgCa3EactJyxzdawpWKHvQZC
VyNBzBC9E8BrTx0nzFVy+XjeKT8D6gyv9XsJ5K8DusFdV+oN2Uoe3YJlUFFCsE0F
Q5GmzmW2jcxPMkNSmqGa14ha7zGCzVrGbu2j6m5TGGqOOYdWPyo5oNtqtUoR2Gdh
rYWJhpCcYY51MFRGOw9ncKqbtCBfUmFO9cbqhvcwLQGw6aohK1ZLPNBJWFia8G49
+QZgGoFYtbknpAqC3v0Xu2dpZGAX7ldOlNuKETzAgp2hBl+f6L7RQ8d7wRf9YuVv
AtIt7TR9ycutmCBha0C14oRmRYjwbsKu79/XjfADzTSCiCsFan1Lzzt3JwkpPweF
AgMBAAGjggFjMIIBXzAJBgNVHRMEAjAAMC0GCWCGSAGG+EIBDQQgFh5FYXN5LVJT
QSBHZW5lcmF0ZWQgQ2VydGlmaWNhdGUwHQYDVR0OBBYEFJzHYy3HMsWXzbADsZPj
xwG2RrqTMIHhBgNVHSMEgdkwgdaAFBLNYATSoICecO3Gmbh7LMZS/RmhoYGypIGv
MIGsMQswCQYDVQQGEwJVUzELMAkGA1UECBMCT0gxETAPBgNVBAcTCENvbHVtYnVz
MRIwEAYDVQQKEwlWaWtpbmdWUE4xHTAbBgNVBAsTFE15T3JnYW5pemF0aW9uYWxV
bml0MRUwEwYDVQQDEwxWaWtpbmdWUE4gQ0ExEDAOBgNVBCkTB0Vhc3lSU0ExITAf
BgkqhkiG9w0BCQEWEm1lQG15aG9zdC5teWRvbWFpboIJAM81he6Avyo+MBMGA1Ud
JQQMMAoGCCsGAQUFBwMCMAsGA1UdDwQEAwIHgDANBgkqhkiG9w0BAQQFAAOCAgEA
WbxDrGE6xXPuzIwG3L+rAzCJRlmfylJNaT51+8JUv+NwPcEWENXwLpAn7C9S9xKJ
JThJLiPEzYT6jMokAyM85r8rJNjpOBCnMP7uJ7JBTI5WiU64rlmsnb6BsRB3hO+7
hrZMKwOPMIS2zJ6DSGtWvclfq8z0HxGEzUWFm43bjLMz+uVzyquh9D7YY02oSDlI
+S1Ezq9lHn/s0s7cERZ82EuggLpOhRZormHjsgNUwh4JLcAMqiNYUD5rG99iIG1k
VLyx5NpP1Fottfg2EGdcUAh8YueVbMQX67Z/u1KRiEzXMRvaY9jGKfLaPuC9oX3B
RlyBnJrie64K1pMTKb1/eXvG/Xr8h/+ZExB7i6kZjHz14WbvtuEUZ96/BmJmqMrM
52xzBgfmceOyyDI+GytEYiumj1gVZZuCylqbDvg5ViQJDO6+erNrgjJLZU3uqHnk
M8uwI2dhMYzP7ceydQgYzWvECKQkwWAY8Qmb5decRWRs1lMI0A6RcFcGE7g3rxpj
luenOR4hgizAmQUF5CR0+aQSHE1cRRBOYhiqhB4GZHI7SafVDiIRCfn2fwG0+DZq
g6LxADEnajydpegXUM28Ivj8myNeOkHsZdBrbTPyAzH5UM4JKqvdaVaX/H9604EL
d77KJnUBYAGzKycSlXmtRgaPmuIFfvlAlbDn9G91DZY=
-----END CERTIFICATE-----
