Certificate:
    Data:
        Version: 3 (0x2)
        Serial Number: 786 (0x312)
    Signature Algorithm: md5WithRSAEncryption
        Issuer: C=US, ST=OH, L=Columbus, O=VikingVPN, OU=MyOrganizationalUnit, CN=VikingVPN CA/name=EasyRSA/emailAddress=me@myhost.mydomain
        Validity
            Not Before: Jan 18 08:21:42 2014 GMT
            Not After : Jan 16 08:21:42 2024 GMT
        Subject: CN=Client51Cert1931b2
        Subject Public Key Info:
            Public Key Algorithm: rsaEncryption
                Public-Key: (4096 bit)
                Modulus:
                    00:d8:a7:e6:09:3f:8b:aa:bc:08:6d:dc:e1:20:22:
                    1a:80:60:04:21:f5:f3:03:0c:5c:85:34:76:22:d9:
                    51:ee:aa:4a:76:1a:e0:c8:13:63:c6:4c:1b:1c:fb:
                    77:72:07:74:5f:5a:c6:1e:e3:87:78:23:66:1d:2c:
                    b8:74:83:40:6d:ed:76:af:c6:ca:d6:8c:73:3b:ef:
                    be:75:32:e8:3a:e2:9b:68:f6:b1:e0:9e:94:18:61:
                    fd:91:30:83:5f:46:48:93:68:0c:c5:a1:42:bf:c5:
                    39:48:57:bc:68:50:98:aa:5a:51:7b:07:c5:c0:55:
                    43:ef:b8:8f:ee:9d:c3:0e:f0:31:e2:7a:3b:6f:a3:
                    f0:fb:b0:9b:4d:20:d3:5f:73:bf:4c:c9:28:e1:84:
                    cf:41:66:37:f6:b9:1b:a0:1e:0d:73:93:d0:4f:5d:
                    52:7c:a4:ea:80:38:3b:f9:d0:e2:f5:94:c7:02:8b:
                    d2:72:76:f1:0b:1d:00:88:12:2e:2d:5d:47:14:ff:
                    35:b2:b4:d2:b3:2b:ee:49:2f:0c:d2:31:b5:64:34:
                    c7:2e:f5:a4:69:ef:58:2e:4f:50:2f:41:0e:f4:9c:
                    e5:c2:f7:9b:ad:47:89:0a:03:89:7d:b2:7a:d0:96:
                    5f:eb:cf:06:b9:c0:75:ca:20:bb:bc:57:71:33:33:
                    f6:57:db:5d:1d:d6:b9:e0:c3:e8:70:3f:c8:e8:83:
                    e7:8e:80:d9:79:cc:ab:86:80:61:08:70:f5:39:a7:
                    df:e9:fe:38:b8:97:2d:5c:c9:2e:08:7e:54:71:55:
                    b0:41:3e:53:75:7a:b0:d0:12:1e:17:34:44:b9:45:
                    00:d4:ba:9d:c6:cc:94:3f:14:91:29:4f:0d:f5:64:
                    1f:93:84:1b:17:ed:85:4f:44:4a:43:42:2c:49:31:
                    2a:18:fc:e8:c5:a4:9e:fb:b0:4b:46:36:78:85:bb:
                    c2:4b:82:6b:c7:05:e2:50:f1:85:6c:d8:e3:87:d3:
                    00:c4:94:c4:e2:2e:ce:eb:b2:2a:15:97:92:50:c3:
                    d5:29:e7:c6:f9:0a:04:75:3a:c3:6b:af:e4:56:3a:
                    ff:bd:c8:7e:0e:29:58:18:95:bb:76:17:91:67:f7:
                    00:69:94:3b:0a:11:28:d1:6f:e2:ee:ef:97:7b:02:
                    ed:dc:7b:57:36:81:28:5e:c5:98:8f:73:50:75:76:
                    c9:fd:fb:4e:e4:22:8b:15:5d:45:c3:bc:67:12:ec:
                    98:58:12:81:30:cb:3e:7d:9b:8d:8f:cc:bd:22:38:
                    40:0b:f1:b6:bd:6d:ca:bc:4a:15:e0:1c:78:0c:40:
                    48:b1:d5:fb:be:8e:fe:2f:c1:8c:34:54:ed:51:d2:
                    96:a3:37
                Exponent: 65537 (0x10001)
        X509v3 extensions:
            X509v3 Basic Constraints: 
                CA:FALSE
            Netscape Comment: 
                Easy-RSA Generated Certificate
            X509v3 Subject Key Identifier: 
                CC:85:40:6F:3A:49:A7:72:34:B5:CF:DA:64:5B:BB:A9:43:F0:99:E4
            X509v3 Authority Key Identifier: 
                keyid:12:CD:60:04:D2:A0:80:9E:70:ED:C6:99:B8:7B:2C:C6:52:FD:19:A1
                DirName:/C=US/ST=OH/L=Columbus/O=VikingVPN/OU=MyOrganizationalUnit/CN=VikingVPN CA/name=EasyRSA/emailAddress=me@myhost.mydomain
                serial:CF:35:85:EE:80:BF:2A:3E

            X509v3 Extended Key Usage: 
                TLS Web Client Authentication
            X509v3 Key Usage: 
                Digital Signature
    Signature Algorithm: md5WithRSAEncryption
         7c:24:91:88:75:b9:37:f5:de:fe:d0:3c:cd:34:a0:eb:38:69:
         af:d4:02:69:51:05:f5:0d:6b:79:ac:7b:2e:22:f0:0e:71:b3:
         14:5b:93:07:c3:0b:04:68:07:63:c8:cf:b0:1f:48:c4:b2:b2:
         85:d9:1a:da:14:81:e7:8a:9c:bf:38:6c:1e:a5:6c:8e:7c:54:
         f2:31:7f:27:90:37:25:23:2e:a6:3b:9d:90:13:e6:3c:00:71:
         62:82:ac:fd:66:fb:13:eb:3d:0d:f4:1d:36:10:2e:81:4e:80:
         21:2d:d5:d9:a6:5a:6e:82:77:8e:22:2f:40:6c:b7:b3:ab:97:
         2c:27:b2:53:22:e2:3f:51:55:dc:65:7a:cd:f5:0a:da:00:d4:
         5a:fc:1b:b6:90:57:c4:a1:9a:e3:69:99:58:3f:b3:13:cb:97:
         96:01:95:29:1e:a9:d9:2d:b4:66:08:62:27:05:7d:7e:d7:06:
         47:fb:ef:be:77:5b:57:85:5c:04:a9:57:48:20:04:e1:16:66:
         31:76:7e:75:25:ef:aa:80:e2:21:72:04:d4:cf:d2:2e:95:95:
         10:58:6a:34:5b:db:7c:db:77:16:be:63:5b:db:43:3c:63:d9:
         b4:d9:bd:bb:7a:ff:13:cc:ae:99:2e:90:7e:80:a1:ca:68:ea:
         0b:38:4b:88:44:43:58:78:52:e3:c9:5b:15:f9:3f:25:c1:0b:
         1e:b3:e0:21:44:3e:db:6e:87:17:42:e6:bb:3e:12:8c:5f:e8:
         8e:86:8c:e3:41:32:5c:56:99:90:e5:f6:41:a1:44:9b:fa:54:
         f6:81:49:63:65:18:25:5e:ac:32:a7:be:45:5b:a9:70:ad:11:
         ea:3f:f8:ad:c4:44:db:5d:f0:cb:04:b3:5b:01:56:27:c6:34:
         0b:a8:a2:5d:e3:6a:b4:6f:d3:17:c8:e2:c5:a9:53:13:e2:c2:
         30:62:18:1e:d8:d3:24:e2:48:d5:01:ca:fd:be:c3:0d:15:d2:
         24:6d:67:72:38:9c:ab:4a:64:76:da:71:1a:cb:b7:1e:cc:55:
         38:05:c5:66:f9:93:f8:1d:b3:0f:94:b3:aa:d6:e0:75:f6:5a:
         f8:4c:49:d3:fe:8a:85:b6:bb:25:67:71:c3:01:43:34:cf:5e:
         e0:27:b0:2c:d6:79:28:99:e1:8d:a3:32:59:1e:e3:b8:85:9c:
         20:3b:b1:d4:c1:91:f6:02:5f:81:08:2f:74:03:83:66:ac:f4:
         cf:db:19:1a:3e:f4:a7:ec:89:65:42:ae:6e:31:20:10:8d:d4:
         96:0d:ae:3c:14:20:4a:01:42:b2:2d:69:a6:35:a7:b6:73:5a:
         7c:ce:31:15:cd:87:a8:73
-----BEGIN CERTIFICATE-----
MIIGqzCCBJOgAwIBAgICAxIwDQYJKoZIhvcNAQEEBQAwgawxCzAJBgNVBAYTAlVT
MQswCQYDVQQIEwJPSDERMA8GA1UEBxMIQ29sdW1idXMxEjAQBgNVBAoTCVZpa2lu
Z1ZQTjEdMBsGA1UECxMUTXlPcmdhbml6YXRpb25hbFVuaXQxFTATBgNVBAMTDFZp
a2luZ1ZQTiBDQTEQMA4GA1UEKRMHRWFzeVJTQTEhMB8GCSqGSIb3DQEJARYSbWVA
bXlob3N0Lm15ZG9tYWluMB4XDTE0MDExODA4MjE0MloXDTI0MDExNjA4MjE0Mlow
HTEbMBkGA1UEAxMSQ2xpZW50NTFDZXJ0MTkzMWIyMIICIjANBgkqhkiG9w0BAQEF
AAOCAg8AMIICCgKCAgEA2KfmCT+LqrwIbdzhICIagGAEIfXzAwxchTR2ItlR7qpK
dhrgyBNjxkwbHPt3cgd0X1rGHuOHeCNmHSy4dINAbe12r8bK1oxzO+++dTLoOuKb
aPax4J6UGGH9kTCDX0ZIk2gMxaFCv8U5SFe8aFCYqlpRewfFwFVD77iP7p3DDvAx
4no7b6Pw+7CbTSDTX3O/TMko4YTPQWY39rkboB4Nc5PQT11SfKTqgDg7+dDi9ZTH
AovScnbxCx0AiBIuLV1HFP81srTSsyvuSS8M0jG1ZDTHLvWkae9YLk9QL0EO9Jzl
wvebrUeJCgOJfbJ60JZf688GucB1yiC7vFdxMzP2V9tdHda54MPocD/I6IPnjoDZ
ecyrhoBhCHD1Oaff6f44uJctXMkuCH5UcVWwQT5TdXqw0BIeFzREuUUA1LqdxsyU
PxSRKU8N9WQfk4QbF+2FT0RKQ0IsSTEqGPzoxaSe+7BLRjZ4hbvCS4JrxwXiUPGF
bNjjh9MAxJTE4i7O67IqFZeSUMPVKefG+QoEdTrDa6/kVjr/vch+DilYGJW7dheR
Z/cAaZQ7ChEo0W/i7u+XewLt3HtXNoEoXsWYj3NQdXbJ/ftO5CKLFV1Fw7xnEuyY
WBKBMMs+fZuNj8y9IjhAC/G2vW3KvEoV4Bx4DEBIsdX7vo7+L8GMNFTtUdKWozcC
AwEAAaOCAWMwggFfMAkGA1UdEwQCMAAwLQYJYIZIAYb4QgENBCAWHkVhc3ktUlNB
IEdlbmVyYXRlZCBDZXJ0aWZpY2F0ZTAdBgNVHQ4EFgQUzIVAbzpJp3I0tc/aZFu7
qUPwmeQwgeEGA1UdIwSB2TCB1oAUEs1gBNKggJ5w7caZuHssxlL9GaGhgbKkga8w
gawxCzAJBgNVBAYTAlVTMQswCQYDVQQIEwJPSDERMA8GA1UEBxMIQ29sdW1idXMx
EjAQBgNVBAoTCVZpa2luZ1ZQTjEdMBsGA1UECxMUTXlPcmdhbml6YXRpb25hbFVu
aXQxFTATBgNVBAMTDFZpa2luZ1ZQTiBDQTEQMA4GA1UEKRMHRWFzeVJTQTEhMB8G
CSqGSIb3DQEJARYSbWVAbXlob3N0Lm15ZG9tYWluggkAzzWF7oC/Kj4wEwYDVR0l
BAwwCgYIKwYBBQUHAwIwCwYDVR0PBAQDAgeAMA0GCSqGSIb3DQEBBAUAA4ICAQB8
JJGIdbk39d7+0DzNNKDrOGmv1AJpUQX1DWt5rHsuIvAOcbMUW5MHwwsEaAdjyM+w
H0jEsrKF2RraFIHnipy/OGwepWyOfFTyMX8nkDclIy6mO52QE+Y8AHFigqz9ZvsT
6z0N9B02EC6BToAhLdXZplpugneOIi9AbLezq5csJ7JTIuI/UVXcZXrN9QraANRa
/Bu2kFfEoZrjaZlYP7MTy5eWAZUpHqnZLbRmCGInBX1+1wZH++++d1tXhVwEqVdI
IAThFmYxdn51Je+qgOIhcgTUz9IulZUQWGo0W9t823cWvmNb20M8Y9m02b27ev8T
zK6ZLpB+gKHKaOoLOEuIRENYeFLjyVsV+T8lwQses+AhRD7bbocXQua7PhKMX+iO
hozjQTJcVpmQ5fZBoUSb+lT2gUljZRglXqwyp75FW6lwrRHqP/itxETbXfDLBLNb
AVYnxjQLqKJd42q0b9MXyOLFqVMT4sIwYhge2NMk4kjVAcr9vsMNFdIkbWdyOJyr
SmR22nEay7cezFU4BcVm+ZP4HbMPlLOq1uB19lr4TEnT/oqFtrslZ3HDAUM0z17g
J7As1nkomeGNozJZHuO4hZwgO7HUwZH2Al+BCC90A4NmrPTP2xkaPvSn7IllQq5u
MSAQjdSWDa48FCBKAUKyLWmmNae2c1p8zjEVzYeocw==
-----END CERTIFICATE-----
