Certificate:
    Data:
        Version: 3 (0x2)
        Serial Number: 804 (0x324)
    Signature Algorithm: md5WithRSAEncryption
        Issuer: C=US, ST=OH, L=Columbus, O=VikingVPN, OU=MyOrganizationalUnit, CN=VikingVPN CA/name=EasyRSA/emailAddress=me@myhost.mydomain
        Validity
            Not Before: Jan 22 02:27:12 2014 GMT
            Not After : Jan 20 02:27:12 2024 GMT
        Subject: CN=Client313Certa6f7d0
        Subject Public Key Info:
            Public Key Algorithm: rsaEncryption
                Public-Key: (4096 bit)
                Modulus:
                    00:ee:e7:94:e7:37:27:6f:70:33:d2:48:70:34:2d:
                    28:b5:28:06:d6:2e:35:e1:5f:10:d0:42:08:54:6f:
                    71:8b:01:f6:68:98:53:2a:dd:37:17:64:65:cc:c9:
                    a3:8d:8a:c0:3d:6a:5f:7a:e3:80:f9:75:03:8f:2e:
                    4a:22:b1:8e:c9:4f:8c:17:ad:de:6b:77:a7:83:6f:
                    57:39:35:86:82:d6:7c:48:c3:99:49:7d:0d:d2:0e:
                    fb:a0:6a:6e:ed:12:47:76:a2:89:3d:f9:b2:86:79:
                    5c:f9:29:73:aa:a7:bc:e6:59:47:23:0e:a3:7f:17:
                    8c:d3:fe:b7:91:af:e2:cd:00:62:b7:44:c4:1d:b8:
                    91:fe:14:23:e9:c5:86:ce:61:ac:8c:06:4e:8f:2c:
                    2a:ef:c7:96:70:4c:45:9f:eb:57:0a:ef:d7:05:43:
                    ad:f6:5c:9d:d2:5c:ae:a6:01:22:4c:78:ad:c0:32:
                    5e:4c:eb:d9:61:8d:ef:a8:5d:a4:c5:e5:5d:a1:d4:
                    f1:5b:41:21:4d:6b:ac:d2:ce:20:f3:39:2b:ba:94:
                    49:f5:71:ed:65:9f:3e:bf:ee:cb:ca:2d:6a:28:71:
                    34:19:aa:d2:38:4e:70:a7:c9:c5:4e:e3:0f:91:7f:
                    96:57:dc:80:f1:9a:67:56:ca:d8:01:16:20:e7:cd:
                    73:24:ec:cb:8d:64:63:8c:34:52:eb:62:29:41:64:
                    0e:14:3b:54:b6:ad:51:f0:f4:fd:65:3a:92:35:85:
                    61:88:63:73:88:04:37:fc:9f:e6:5a:ab:4a:d0:53:
                    98:19:28:7d:db:bc:9d:2e:8e:d7:3e:fe:db:6b:e0:
                    e7:d3:3c:5f:bb:31:18:e4:0b:15:9b:dd:c3:66:44:
                    d9:1e:f6:b4:f5:95:ba:3a:2b:92:b1:65:0d:b8:90:
                    a5:33:7a:38:85:7a:b8:16:eb:5e:65:46:62:93:6e:
                    a7:06:cb:80:36:a0:84:46:2c:4e:ca:0f:21:bc:78:
                    03:b6:b3:9d:93:28:c4:2f:3c:a4:ec:11:c5:f5:41:
                    ae:1d:d2:26:bf:a2:95:fb:ab:8f:87:f8:fd:b6:5f:
                    b9:98:d9:f4:03:06:66:71:29:08:2b:10:53:2e:e2:
                    df:b1:12:77:51:f5:db:1b:a4:e1:d2:83:24:ff:4e:
                    dc:c3:b2:0d:42:3d:b0:45:9b:b3:31:b8:f9:ec:96:
                    ee:ec:3f:45:53:72:44:c2:37:8f:84:e4:af:82:b1:
                    87:d5:6e:97:ee:7f:5a:e8:42:9a:0c:0e:2c:b1:e6:
                    1b:42:2d:69:52:54:55:e0:e1:c6:82:07:70:84:d6:
                    06:ba:0e:c6:8a:5d:68:be:cc:74:2c:f5:f6:69:05:
                    da:5a:ed
                Exponent: 65537 (0x10001)
        X509v3 extensions:
            X509v3 Basic Constraints: 
                CA:FALSE
            Netscape Comment: 
                Easy-RSA Generated Certificate
            X509v3 Subject Key Identifier: 
                BD:F9:09:3E:25:EA:CE:F1:90:6A:66:77:08:A6:4D:78:EA:8A:E2:AB
            X509v3 Authority Key Identifier: 
                keyid:12:CD:60:04:D2:A0:80:9E:70:ED:C6:99:B8:7B:2C:C6:52:FD:19:A1
                DirName:/C=US/ST=OH/L=Columbus/O=VikingVPN/OU=MyOrganizationalUnit/CN=VikingVPN CA/name=EasyRSA/emailAddress=me@myhost.mydomain
                serial:CF:35:85:EE:80:BF:2A:3E

            X509v3 Extended Key Usage: 
                TLS Web Client Authentication
            X509v3 Key Usage: 
                Digital Signature
    Signature Algorithm: md5WithRSAEncryption
         da:6a:40:41:30:25:57:2f:f7:ca:d3:2a:bd:c0:32:7c:78:12:
         44:01:ec:e7:8f:de:e2:ce:99:5e:69:de:13:ef:5d:43:dd:3e:
         f9:2c:c3:8e:b7:ed:1d:54:34:2b:09:0d:bb:52:17:68:6b:c2:
         ca:52:c9:f7:92:a9:85:31:03:3a:33:70:4f:96:d3:39:e1:70:
         ac:3c:81:f2:02:ba:56:c9:c5:53:89:f6:f4:dc:3b:09:3d:9a:
         c6:08:c6:3f:f6:0a:f0:31:d4:bf:2b:c4:ac:4b:0f:46:21:7a:
         df:3b:99:a7:d2:54:59:72:5b:e5:78:7d:27:d3:80:93:a1:75:
         e6:63:84:f0:4d:12:41:73:99:c1:c0:38:f6:59:34:e9:f9:15:
         1f:23:d8:e2:82:94:a3:96:b7:7c:7e:74:53:d1:9c:dc:08:37:
         3e:cb:77:d1:6e:a0:93:a1:1a:fd:21:45:55:f6:3a:66:c9:89:
         f4:d5:b8:5f:45:b0:72:e5:f9:ae:fc:03:84:f6:fd:e9:c9:ad:
         c7:2c:f0:a6:d6:49:8b:b9:76:a7:0a:a4:49:30:e6:1f:f4:52:
         00:4f:68:83:e7:a1:78:74:4c:34:1b:ae:a9:e5:3c:5d:02:38:
         2a:be:0e:60:5b:ae:78:c4:03:6d:da:f3:fe:34:7f:97:17:22:
         a2:13:1d:55:83:a6:33:6b:d9:f9:2f:82:34:f6:aa:79:39:96:
         df:39:e7:f8:16:1c:e8:8b:0e:c8:c0:85:e2:01:00:b9:78:00:
         36:b6:20:34:89:cb:66:6f:4a:04:c1:b3:cc:21:8e:e6:18:0d:
         78:5e:01:e2:6f:8d:1b:3e:a4:bf:45:a3:e0:b4:04:fd:e5:9c:
         54:3f:78:92:b0:02:d5:cb:fc:e5:54:39:1a:65:2d:bd:f8:e4:
         c8:b9:6c:a2:8a:6f:09:5e:ae:24:68:0d:e8:21:0a:9c:8b:83:
         ea:1c:1d:13:9a:62:6e:f6:b9:2f:b5:be:4b:49:ed:ea:4f:36:
         19:9c:c7:3b:b7:4a:f0:5c:ac:59:45:1b:34:bb:cf:59:42:fb:
         d9:21:af:be:f2:f7:24:3f:b7:8e:6d:ff:c5:c6:30:b3:61:00:
         e3:70:6b:d0:09:d4:11:63:ec:82:66:fe:d9:a0:38:2f:43:46:
         cf:28:8f:00:7b:46:da:77:08:79:25:5c:76:d8:76:47:3a:36:
         7f:5c:e3:c2:ba:7d:c0:55:e7:cf:35:31:3b:c4:40:30:79:1b:
         9d:f2:b1:62:e2:b7:e4:e9:fe:66:b7:a0:33:b3:59:17:15:6e:
         2e:88:e8:da:4c:f4:8a:08:59:0e:a7:57:c0:9d:dc:d4:0f:c4:
         8f:f6:d8:32:da:eb:58:8b
-----BEGIN CERTIFICATE-----
MIIGrDCCBJSgAwIBAgICAyQwDQYJKoZIhvcNAQEEBQAwgawxCzAJBgNVBAYTAlVT
MQswCQYDVQQIEwJPSDERMA8GA1UEBxMIQ29sdW1idXMxEjAQBgNVBAoTCVZpa2lu
Z1ZQTjEdMBsGA1UECxMUTXlPcmdhbml6YXRpb25hbFVuaXQxFTATBgNVBAMTDFZp
a2luZ1ZQTiBDQTEQMA4GA1UEKRMHRWFzeVJTQTEhMB8GCSqGSIb3DQEJARYSbWVA
bXlob3N0Lm15ZG9tYWluMB4XDTE0MDEyMjAyMjcxMloXDTI0MDEyMDAyMjcxMlow
HjEcMBoGA1UEAxMTQ2xpZW50MzEzQ2VydGE2ZjdkMDCCAiIwDQYJKoZIhvcNAQEB
BQADggIPADCCAgoCggIBAO7nlOc3J29wM9JIcDQtKLUoBtYuNeFfENBCCFRvcYsB
9miYUyrdNxdkZczJo42KwD1qX3rjgPl1A48uSiKxjslPjBet3mt3p4NvVzk1hoLW
fEjDmUl9DdIO+6Bqbu0SR3aiiT35soZ5XPkpc6qnvOZZRyMOo38XjNP+t5Gv4s0A
YrdExB24kf4UI+nFhs5hrIwGTo8sKu/HlnBMRZ/rVwrv1wVDrfZcndJcrqYBIkx4
rcAyXkzr2WGN76hdpMXlXaHU8VtBIU1rrNLOIPM5K7qUSfVx7WWfPr/uy8otaihx
NBmq0jhOcKfJxU7jD5F/llfcgPGaZ1bK2AEWIOfNcyTsy41kY4w0UutiKUFkDhQ7
VLatUfD0/WU6kjWFYYhjc4gEN/yf5lqrStBTmBkofdu8nS6O1z7+22vg59M8X7sx
GOQLFZvdw2ZE2R72tPWVujorkrFlDbiQpTN6OIV6uBbrXmVGYpNupwbLgDaghEYs
TsoPIbx4A7aznZMoxC88pOwRxfVBrh3SJr+ilfurj4f4/bZfuZjZ9AMGZnEpCCsQ
Uy7i37ESd1H12xuk4dKDJP9O3MOyDUI9sEWbszG4+eyW7uw/RVNyRMI3j4Tkr4Kx
h9Vul+5/WuhCmgwOLLHmG0ItaVJUVeDhxoIHcITWBroOxopdaL7MdCz19mkF2lrt
AgMBAAGjggFjMIIBXzAJBgNVHRMEAjAAMC0GCWCGSAGG+EIBDQQgFh5FYXN5LVJT
QSBHZW5lcmF0ZWQgQ2VydGlmaWNhdGUwHQYDVR0OBBYEFL35CT4l6s7xkGpmdwim
TXjqiuKrMIHhBgNVHSMEgdkwgdaAFBLNYATSoICecO3Gmbh7LMZS/RmhoYGypIGv
MIGsMQswCQYDVQQGEwJVUzELMAkGA1UECBMCT0gxETAPBgNVBAcTCENvbHVtYnVz
MRIwEAYDVQQKEwlWaWtpbmdWUE4xHTAbBgNVBAsTFE15T3JnYW5pemF0aW9uYWxV
bml0MRUwEwYDVQQDEwxWaWtpbmdWUE4gQ0ExEDAOBgNVBCkTB0Vhc3lSU0ExITAf
BgkqhkiG9w0BCQEWEm1lQG15aG9zdC5teWRvbWFpboIJAM81he6Avyo+MBMGA1Ud
JQQMMAoGCCsGAQUFBwMCMAsGA1UdDwQEAwIHgDANBgkqhkiG9w0BAQQFAAOCAgEA
2mpAQTAlVy/3ytMqvcAyfHgSRAHs54/e4s6ZXmneE+9dQ90++SzDjrftHVQ0KwkN
u1IXaGvCylLJ95KphTEDOjNwT5bTOeFwrDyB8gK6VsnFU4n29Nw7CT2axgjGP/YK
8DHUvyvErEsPRiF63zuZp9JUWXJb5Xh9J9OAk6F15mOE8E0SQXOZwcA49lk06fkV
HyPY4oKUo5a3fH50U9Gc3Ag3Pst30W6gk6Ea/SFFVfY6ZsmJ9NW4X0WwcuX5rvwD
hPb96cmtxyzwptZJi7l2pwqkSTDmH/RSAE9og+eheHRMNBuuqeU8XQI4Kr4OYFuu
eMQDbdrz/jR/lxciohMdVYOmM2vZ+S+CNPaqeTmW3znn+BYc6IsOyMCF4gEAuXgA
NrYgNInLZm9KBMGzzCGO5hgNeF4B4m+NGz6kv0Wj4LQE/eWcVD94krAC1cv85VQ5
GmUtvfjkyLlsoopvCV6uJGgN6CEKnIuD6hwdE5pibva5L7W+S0nt6k82GZzHO7dK
8FysWUUbNLvPWUL72SGvvvL3JD+3jm3/xcYws2EA43Br0AnUEWPsgmb+2aA4L0NG
zyiPAHtG2ncIeSVcdth2Rzo2f1zjwrp9wFXnzzUxO8RAMHkbnfKxYuK35On+Zreg
M7NZFxVuLojo2kz0ighZDqdXwJ3c1A/Ej/bYMtrrWIs=
-----END CERTIFICATE-----
