Certificate:
    Data:
        Version: 3 (0x2)
        Serial Number: 805 (0x325)
    Signature Algorithm: md5WithRSAEncryption
        Issuer: C=US, ST=OH, L=Columbus, O=VikingVPN, OU=MyOrganizationalUnit, CN=VikingVPN CA/name=EasyRSA/emailAddress=me@myhost.mydomain
        Validity
            Not Before: Jan 22 06:08:11 2014 GMT
            Not After : Jan 20 06:08:11 2024 GMT
        Subject: CN=Client323Cert7140dd
        Subject Public Key Info:
            Public Key Algorithm: rsaEncryption
                Public-Key: (4096 bit)
                Modulus:
                    00:bf:19:b2:31:29:d8:14:93:e3:c8:3d:66:f0:35:
                    8d:59:38:fd:08:61:6e:a5:81:02:f2:5b:9e:29:51:
                    a3:ee:95:4a:3f:8d:ab:4b:88:ab:38:e4:ac:5e:99:
                    49:2e:c7:07:61:96:e7:35:a3:aa:f1:c4:aa:79:b7:
                    2b:39:27:82:7c:f5:3a:fa:0d:bd:28:82:98:fb:40:
                    4d:a9:e7:97:83:c8:4f:fb:c2:fb:30:15:c1:73:be:
                    9f:7e:f4:3f:c1:c0:c0:cb:7c:3a:1a:6d:12:b4:a5:
                    39:a3:de:8b:e5:fe:ea:e6:1f:c6:4f:60:97:49:60:
                    31:7a:0a:b6:d4:87:7e:31:20:53:e4:12:dc:2e:16:
                    90:48:e1:1a:18:87:82:cc:86:8c:bd:bc:ab:fe:27:
                    6c:97:b8:58:ec:c8:41:85:f5:79:cf:4b:4a:14:b3:
                    de:5a:01:fc:8b:d2:81:d7:bc:34:22:4a:36:bf:c9:
                    45:a5:c4:9b:ee:0e:ff:d4:60:91:e3:dc:68:a7:e8:
                    34:39:d1:a0:be:8d:3c:d3:77:ac:64:4c:05:dc:16:
                    89:43:3c:99:c6:42:9e:c9:7c:c2:47:04:1f:a7:35:
                    c5:f1:5d:00:8a:25:5f:9a:57:8e:f3:26:7e:8d:10:
                    90:a7:c9:90:5d:27:05:e0:b0:c6:c3:21:1d:b8:1a:
                    c5:2e:6f:22:c0:08:03:28:91:c1:b3:57:da:f7:11:
                    41:f6:f8:0e:84:f4:1c:5d:7f:30:ee:f9:db:77:d1:
                    b6:83:12:3b:10:d5:06:46:1a:8f:3f:4d:2b:ae:01:
                    a9:8f:42:cf:80:ed:19:09:11:dd:3f:d2:c4:fc:8a:
                    a1:1c:96:31:b4:00:0d:4d:8c:68:d3:37:a1:52:ac:
                    14:bb:71:d3:a0:4e:84:44:59:73:67:b6:16:a9:68:
                    82:27:59:6e:db:18:43:04:66:f3:eb:c9:d6:3f:42:
                    3e:2a:57:41:c8:82:b2:35:03:a1:ee:85:9a:14:6a:
                    06:7f:4c:eb:63:34:f8:6f:06:fc:62:60:53:1b:77:
                    fd:fc:27:a9:be:39:b4:77:7b:34:59:e9:0a:db:3f:
                    11:b4:43:9c:6c:9d:40:99:f0:1d:1b:51:94:c0:05:
                    3c:cb:f6:55:ab:00:b4:f5:9d:07:84:4e:72:10:a6:
                    99:8b:06:03:49:84:c0:37:af:d8:96:be:7e:0f:cd:
                    3b:9f:37:f6:48:fd:d2:a2:87:4c:25:41:e0:56:19:
                    93:73:1e:d3:2b:b8:c2:9f:ec:c4:4d:de:4d:14:49:
                    e2:c8:73:59:35:a4:ae:69:40:35:c9:be:fd:b4:cd:
                    47:51:c0:e4:a7:aa:ff:c1:ac:69:4a:98:27:11:8f:
                    d6:0f:cd
                Exponent: 65537 (0x10001)
        X509v3 extensions:
            X509v3 Basic Constraints: 
                CA:FALSE
            Netscape Comment: 
                Easy-RSA Generated Certificate
            X509v3 Subject Key Identifier: 
                51:2F:F2:26:0C:23:05:6E:3C:C6:3C:9D:A5:CD:98:16:CB:AA:A0:E6
            X509v3 Authority Key Identifier: 
                keyid:12:CD:60:04:D2:A0:80:9E:70:ED:C6:99:B8:7B:2C:C6:52:FD:19:A1
                DirName:/C=US/ST=OH/L=Columbus/O=VikingVPN/OU=MyOrganizationalUnit/CN=VikingVPN CA/name=EasyRSA/emailAddress=me@myhost.mydomain
                serial:CF:35:85:EE:80:BF:2A:3E

            X509v3 Extended Key Usage: 
                TLS Web Client Authentication
            X509v3 Key Usage: 
                Digital Signature
    Signature Algorithm: md5WithRSAEncryption
         24:4d:2a:54:cc:37:6f:d1:29:21:35:a7:54:05:f0:5e:d3:6b:
         39:2c:66:15:14:2f:86:33:42:a4:19:e0:fb:aa:da:4e:68:eb:
         8e:b9:8a:8f:13:84:bb:eb:00:39:f6:fb:36:91:ee:7e:10:76:
         63:06:09:a2:87:5d:26:bf:e1:3d:92:a7:03:65:21:12:79:79:
         9d:97:2e:3e:fa:b5:da:b8:8a:6b:4b:52:53:8b:e8:82:64:75:
         39:cb:f1:b2:fc:fb:2d:3d:5d:5f:e8:06:17:b1:9a:86:66:c3:
         0a:0e:06:44:41:c4:f6:32:04:72:da:f3:68:35:f9:a8:56:f7:
         b0:1a:28:e5:2e:71:0e:50:6e:16:a9:fd:ac:b4:12:73:be:c5:
         7d:d5:8d:84:bc:8a:d9:9b:75:9d:da:de:4d:d3:d8:e9:cb:90:
         e0:77:4d:48:92:3c:b7:2e:8f:6d:98:1d:b5:79:f3:a0:e2:6b:
         e7:df:51:7e:bb:ca:d5:7d:61:a8:34:35:b3:57:44:db:16:49:
         c5:0e:fe:a3:2e:a3:12:2c:29:b4:cc:a8:c1:5a:2a:e2:58:5e:
         03:56:eb:cd:04:ca:a7:54:47:55:47:1b:fa:3e:f6:b2:ee:03:
         23:63:cb:0c:cf:ce:e7:87:60:54:73:0c:62:10:0c:fa:d3:48:
         96:08:2a:66:d3:dd:36:33:30:82:04:a6:74:cd:86:3f:2f:6e:
         61:2f:31:52:46:af:00:5d:0b:e9:d5:79:56:7a:63:4b:6c:9b:
         a9:e0:62:f8:94:b4:5e:49:9c:ec:64:e7:53:d0:9b:b0:fe:13:
         5d:bf:04:22:43:56:a4:26:b3:c5:a7:da:f7:34:7a:bf:c2:b2:
         c7:b8:0e:ac:4f:35:bb:74:cf:1a:46:c5:38:3f:d8:02:c4:21:
         fe:4a:ee:9a:32:2d:09:7e:10:d7:f0:bd:c0:36:0f:5b:8a:be:
         56:2e:23:f8:fe:97:34:be:14:1c:f8:ff:34:1d:90:b4:71:46:
         db:54:13:19:eb:26:ef:86:20:a6:66:3c:1d:d3:b8:9d:1a:24:
         f9:fe:9f:42:6e:3c:92:fb:36:91:2f:79:1d:a4:dc:c4:f2:86:
         cb:e0:7b:dc:47:a1:df:8d:fa:09:fe:e2:c2:6e:21:b3:19:81:
         2c:c8:f7:d0:25:d9:3b:ca:75:a6:4e:3f:ac:48:4e:d9:c1:b4:
         8c:0f:b5:67:61:cd:aa:b6:4c:d9:2d:4c:01:b1:85:28:2b:59:
         82:70:06:6a:b9:ce:04:a3:71:35:1f:50:b1:7c:68:03:ff:84:
         21:8d:08:09:8d:d3:4d:8a:d4:f1:3e:6f:ef:8c:12:fe:54:97:
         f8:62:bf:80:4a:67:34:04
-----BEGIN CERTIFICATE-----
MIIGrDCCBJSgAwIBAgICAyUwDQYJKoZIhvcNAQEEBQAwgawxCzAJBgNVBAYTAlVT
MQswCQYDVQQIEwJPSDERMA8GA1UEBxMIQ29sdW1idXMxEjAQBgNVBAoTCVZpa2lu
Z1ZQTjEdMBsGA1UECxMUTXlPcmdhbml6YXRpb25hbFVuaXQxFTATBgNVBAMTDFZp
a2luZ1ZQTiBDQTEQMA4GA1UEKRMHRWFzeVJTQTEhMB8GCSqGSIb3DQEJARYSbWVA
bXlob3N0Lm15ZG9tYWluMB4XDTE0MDEyMjA2MDgxMVoXDTI0MDEyMDA2MDgxMVow
HjEcMBoGA1UEAxMTQ2xpZW50MzIzQ2VydDcxNDBkZDCCAiIwDQYJKoZIhvcNAQEB
BQADggIPADCCAgoCggIBAL8ZsjEp2BST48g9ZvA1jVk4/QhhbqWBAvJbnilRo+6V
Sj+Nq0uIqzjkrF6ZSS7HB2GW5zWjqvHEqnm3Kzkngnz1OvoNvSiCmPtATannl4PI
T/vC+zAVwXO+n370P8HAwMt8OhptErSlOaPei+X+6uYfxk9gl0lgMXoKttSHfjEg
U+QS3C4WkEjhGhiHgsyGjL28q/4nbJe4WOzIQYX1ec9LShSz3loB/IvSgde8NCJK
Nr/JRaXEm+4O/9RgkePcaKfoNDnRoL6NPNN3rGRMBdwWiUM8mcZCnsl8wkcEH6c1
xfFdAIolX5pXjvMmfo0QkKfJkF0nBeCwxsMhHbgaxS5vIsAIAyiRwbNX2vcRQfb4
DoT0HF1/MO7523fRtoMSOxDVBkYajz9NK64BqY9Cz4DtGQkR3T/SxPyKoRyWMbQA
DU2MaNM3oVKsFLtx06BOhERZc2e2FqlogidZbtsYQwRm8+vJ1j9CPipXQciCsjUD
oe6FmhRqBn9M62M0+G8G/GJgUxt3/fwnqb45tHd7NFnpCts/EbRDnGydQJnwHRtR
lMAFPMv2VasAtPWdB4ROchCmmYsGA0mEwDev2Ja+fg/NO5839kj90qKHTCVB4FYZ
k3Me0yu4wp/sxE3eTRRJ4shzWTWkrmlANcm+/bTNR1HA5Keq/8GsaUqYJxGP1g/N
AgMBAAGjggFjMIIBXzAJBgNVHRMEAjAAMC0GCWCGSAGG+EIBDQQgFh5FYXN5LVJT
QSBHZW5lcmF0ZWQgQ2VydGlmaWNhdGUwHQYDVR0OBBYEFFEv8iYMIwVuPMY8naXN
mBbLqqDmMIHhBgNVHSMEgdkwgdaAFBLNYATSoICecO3Gmbh7LMZS/RmhoYGypIGv
MIGsMQswCQYDVQQGEwJVUzELMAkGA1UECBMCT0gxETAPBgNVBAcTCENvbHVtYnVz
MRIwEAYDVQQKEwlWaWtpbmdWUE4xHTAbBgNVBAsTFE15T3JnYW5pemF0aW9uYWxV
bml0MRUwEwYDVQQDEwxWaWtpbmdWUE4gQ0ExEDAOBgNVBCkTB0Vhc3lSU0ExITAf
BgkqhkiG9w0BCQEWEm1lQG15aG9zdC5teWRvbWFpboIJAM81he6Avyo+MBMGA1Ud
JQQMMAoGCCsGAQUFBwMCMAsGA1UdDwQEAwIHgDANBgkqhkiG9w0BAQQFAAOCAgEA
JE0qVMw3b9EpITWnVAXwXtNrOSxmFRQvhjNCpBng+6raTmjrjrmKjxOEu+sAOfb7
NpHufhB2YwYJooddJr/hPZKnA2UhEnl5nZcuPvq12riKa0tSU4vogmR1Ocvxsvz7
LT1dX+gGF7GahmbDCg4GREHE9jIEctrzaDX5qFb3sBoo5S5xDlBuFqn9rLQSc77F
fdWNhLyK2Zt1ndreTdPY6cuQ4HdNSJI8ty6PbZgdtXnzoOJr599RfrvK1X1hqDQ1
s1dE2xZJxQ7+oy6jEiwptMyowVoq4lheA1brzQTKp1RHVUcb+j72su4DI2PLDM/O
54dgVHMMYhAM+tNIlggqZtPdNjMwggSmdM2GPy9uYS8xUkavAF0L6dV5VnpjS2yb
qeBi+JS0Xkmc7GTnU9CbsP4TXb8EIkNWpCazxafa9zR6v8Kyx7gOrE81u3TPGkbF
OD/YAsQh/krumjItCX4Q1/C9wDYPW4q+Vi4j+P6XNL4UHPj/NB2QtHFG21QTGesm
74YgpmY8HdO4nRok+f6fQm48kvs2kS95HaTcxPKGy+B73Eeh3436Cf7iwm4hsxmB
LMj30CXZO8p1pk4/rEhO2cG0jA+1Z2HNqrZM2S1MAbGFKCtZgnAGarnOBKNxNR9Q
sXxoA/+EIY0ICY3TTYrU8T5v74wS/lSX+GK/gEpnNAQ=
-----END CERTIFICATE-----
