Certificate:
    Data:
        Version: 3 (0x2)
        Serial Number: 814 (0x32e)
    Signature Algorithm: md5WithRSAEncryption
        Issuer: C=US, ST=OH, L=Columbus, O=VikingVPN, OU=MyOrganizationalUnit, CN=VikingVPN CA/name=EasyRSA/emailAddress=me@myhost.mydomain
        Validity
            Not Before: Jan 23 16:05:59 2014 GMT
            Not After : Jan 21 16:05:59 2024 GMT
        Subject: CN=Client325Cert4c5d3a
        Subject Public Key Info:
            Public Key Algorithm: rsaEncryption
                Public-Key: (4096 bit)
                Modulus:
                    00:b2:09:c7:9a:0c:39:72:9b:36:b6:15:4d:47:b0:
                    e4:ca:63:eb:91:8c:dd:8a:aa:b5:a3:15:84:00:68:
                    31:91:18:b1:bb:aa:5a:50:3d:1a:f1:51:43:0d:07:
                    b8:48:f7:78:3f:1d:7d:a4:59:bf:7b:34:fd:41:9f:
                    a8:11:e7:50:d0:58:f8:fc:1d:15:bf:14:cf:cc:b0:
                    2f:61:80:33:37:1b:a9:c1:95:db:a2:34:75:60:43:
                    1e:fd:34:60:39:28:fc:c5:88:ec:56:32:4b:c1:15:
                    e6:7d:d2:16:ee:38:0b:79:fa:a8:b9:67:29:6e:66:
                    89:4a:78:b7:57:54:9d:8a:94:d4:aa:a5:6b:e5:ac:
                    cb:4b:59:c4:c4:7b:71:d1:8b:62:08:5c:f4:05:02:
                    cf:ba:48:e6:67:63:a7:25:36:6e:c4:31:a5:f1:6f:
                    c1:46:2b:a4:e4:e3:f1:61:f6:a5:ca:37:60:d2:45:
                    6d:dc:11:4e:ef:f8:6c:aa:94:b7:11:80:fd:e5:37:
                    5d:7f:11:1e:d0:b0:d7:79:3b:f2:dc:e0:5e:78:d0:
                    6a:be:16:ab:ce:09:a5:45:c6:80:b1:4c:3d:b3:93:
                    41:f0:39:ae:29:92:40:66:4f:21:99:4a:ce:cc:d9:
                    c0:1e:12:e6:14:48:19:23:a4:e4:6c:27:89:d8:0d:
                    0b:9e:88:1d:df:f4:8e:4b:2a:70:3c:f8:80:1e:97:
                    3f:6d:aa:61:85:d5:6f:ac:b7:6f:80:48:88:d9:46:
                    b1:a4:d0:37:be:a5:c7:13:93:14:c0:a5:48:8c:99:
                    d5:ff:a9:ce:63:fd:f4:4c:9f:06:b2:54:a8:1e:ef:
                    d6:f9:8a:ae:58:28:7d:4a:63:2b:18:84:4b:1c:d9:
                    44:44:fa:4e:ad:2c:0e:85:58:48:73:ec:0e:fd:fd:
                    7d:ce:f0:a6:e8:7d:56:92:21:71:4c:e4:4f:6d:23:
                    26:0a:2c:01:99:78:61:6f:34:9d:7a:f3:bb:92:ec:
                    4a:93:19:b2:80:1a:66:f4:3b:3b:4b:3b:d4:38:65:
                    44:de:a3:25:95:a9:44:77:d3:66:70:41:65:a8:2c:
                    90:e0:05:5f:ba:77:53:a7:91:75:d0:ed:8c:85:12:
                    b9:10:7a:bb:ef:47:25:f5:d0:a8:bf:6f:be:59:0c:
                    42:1d:ca:03:57:7d:34:1a:7d:b9:80:cd:d8:48:64:
                    91:44:fd:24:dc:52:fd:94:4c:c3:6c:42:bd:40:4b:
                    9d:c2:35:40:5a:9a:3a:70:36:38:5a:f1:98:8c:bc:
                    e1:76:dd:21:cf:2a:0b:f3:a7:fb:07:9a:78:c4:1a:
                    e1:58:a3:f0:4f:67:ed:0c:1a:a7:03:7b:cb:37:b8:
                    eb:b4:bd
                Exponent: 65537 (0x10001)
        X509v3 extensions:
            X509v3 Basic Constraints: 
                CA:FALSE
            Netscape Comment: 
                Easy-RSA Generated Certificate
            X509v3 Subject Key Identifier: 
                95:C3:FC:39:B7:66:7A:4D:9D:EA:09:8C:6D:85:4D:47:3C:78:CB:E1
            X509v3 Authority Key Identifier: 
                keyid:12:CD:60:04:D2:A0:80:9E:70:ED:C6:99:B8:7B:2C:C6:52:FD:19:A1
                DirName:/C=US/ST=OH/L=Columbus/O=VikingVPN/OU=MyOrganizationalUnit/CN=VikingVPN CA/name=EasyRSA/emailAddress=me@myhost.mydomain
                serial:CF:35:85:EE:80:BF:2A:3E

            X509v3 Extended Key Usage: 
                TLS Web Client Authentication
            X509v3 Key Usage: 
                Digital Signature
    Signature Algorithm: md5WithRSAEncryption
         7c:70:f1:b3:b8:5a:fc:b2:eb:ba:dd:af:28:52:de:b9:65:c1:
         a2:42:89:f7:a3:bc:d2:54:a7:44:34:38:da:87:fa:86:4b:64:
         77:f8:1a:58:cf:a4:dd:65:5a:83:62:06:f5:b6:8e:ee:76:6a:
         0d:8b:33:dd:bc:b8:f3:c4:81:7f:55:d7:60:0e:af:d9:2d:df:
         e2:a6:52:99:9c:13:e3:bc:cb:ed:8d:90:67:70:02:f5:66:3c:
         6b:81:74:1a:13:9b:7a:f6:56:54:43:f6:9d:e2:66:c8:a5:9b:
         97:16:af:b3:2a:cb:38:06:d4:ca:23:7d:29:64:7c:57:d7:01:
         f0:5e:15:8a:ad:df:3f:4d:01:24:b6:2c:8a:24:7d:95:aa:d0:
         57:ef:f9:a5:90:09:5e:7b:dc:02:ac:1e:93:a7:0f:19:28:7f:
         e0:c6:ae:a5:d7:6a:76:d3:51:fc:af:cb:33:fd:e6:76:7c:dd:
         fd:f0:72:ff:19:2b:48:01:48:b2:95:89:88:55:d2:d6:c2:75:
         e8:04:f7:25:0f:b5:f8:01:b1:43:ea:c3:61:07:58:c3:87:41:
         d6:f1:89:63:d2:d5:2d:56:6a:b9:90:33:e1:4c:9b:95:50:86:
         59:7d:69:7d:cc:6f:bb:0e:12:9f:6e:94:01:67:0a:a5:4d:ae:
         65:eb:88:06:5e:2d:e1:20:bc:16:ef:ef:f7:95:6f:2b:6a:4c:
         b8:39:ae:55:cb:61:27:b5:ea:31:de:58:0d:f4:98:4f:75:77:
         4d:58:bb:a0:de:54:74:c5:7a:ba:e9:d4:ea:72:b3:1a:2e:d8:
         4f:ba:af:a9:d2:58:29:ec:c9:12:f0:28:62:bd:33:20:86:35:
         6a:ea:87:30:6a:12:4e:42:aa:75:b1:26:c8:0b:ac:1f:52:ad:
         6f:f7:c8:11:f2:e5:c2:d9:fb:4a:98:93:6b:ee:e2:ca:91:08:
         d5:2a:03:ed:5b:0b:f9:0f:b1:06:b9:49:6a:7c:29:91:fe:2f:
         dc:0e:17:ab:71:94:bc:df:6f:ff:fe:db:d7:20:1f:45:24:23:
         11:b8:2b:22:47:3f:da:c9:b3:e8:62:21:17:b2:a2:b6:6a:c9:
         c4:82:99:16:bf:6f:cd:dc:e6:45:76:49:b7:d0:5e:6c:84:d9:
         33:31:7b:64:dd:d6:a2:37:b0:d1:cd:03:f7:76:60:74:2e:6d:
         52:f6:46:94:f4:0b:e2:0b:94:e8:e5:95:88:af:02:39:13:e3:
         c8:ed:70:64:11:a7:6c:72:8d:45:59:72:e9:f4:f3:a5:5a:fd:
         46:ff:77:2f:d3:70:21:2d:9a:7b:28:cb:c6:99:51:c8:08:54:
         1e:95:1e:3d:3f:b2:bc:7f
-----BEGIN CERTIFICATE-----
MIIGrDCCBJSgAwIBAgICAy4wDQYJKoZIhvcNAQEEBQAwgawxCzAJBgNVBAYTAlVT
MQswCQYDVQQIEwJPSDERMA8GA1UEBxMIQ29sdW1idXMxEjAQBgNVBAoTCVZpa2lu
Z1ZQTjEdMBsGA1UECxMUTXlPcmdhbml6YXRpb25hbFVuaXQxFTATBgNVBAMTDFZp
a2luZ1ZQTiBDQTEQMA4GA1UEKRMHRWFzeVJTQTEhMB8GCSqGSIb3DQEJARYSbWVA
bXlob3N0Lm15ZG9tYWluMB4XDTE0MDEyMzE2MDU1OVoXDTI0MDEyMTE2MDU1OVow
HjEcMBoGA1UEAxMTQ2xpZW50MzI1Q2VydDRjNWQzYTCCAiIwDQYJKoZIhvcNAQEB
BQADggIPADCCAgoCggIBALIJx5oMOXKbNrYVTUew5Mpj65GM3YqqtaMVhABoMZEY
sbuqWlA9GvFRQw0HuEj3eD8dfaRZv3s0/UGfqBHnUNBY+PwdFb8Uz8ywL2GAMzcb
qcGV26I0dWBDHv00YDko/MWI7FYyS8EV5n3SFu44C3n6qLlnKW5miUp4t1dUnYqU
1Kqla+Wsy0tZxMR7cdGLYghc9AUCz7pI5mdjpyU2bsQxpfFvwUYrpOTj8WH2pco3
YNJFbdwRTu/4bKqUtxGA/eU3XX8RHtCw13k78tzgXnjQar4Wq84JpUXGgLFMPbOT
QfA5rimSQGZPIZlKzszZwB4S5hRIGSOk5GwnidgNC56IHd/0jksqcDz4gB6XP22q
YYXVb6y3b4BIiNlGsaTQN76lxxOTFMClSIyZ1f+pzmP99EyfBrJUqB7v1vmKrlgo
fUpjKxiESxzZRET6Tq0sDoVYSHPsDv39fc7wpuh9VpIhcUzkT20jJgosAZl4YW80
nXrzu5LsSpMZsoAaZvQ7O0s71DhlRN6jJZWpRHfTZnBBZagskOAFX7p3U6eRddDt
jIUSuRB6u+9HJfXQqL9vvlkMQh3KA1d9NBp9uYDN2EhkkUT9JNxS/ZRMw2xCvUBL
ncI1QFqaOnA2OFrxmIy84XbdIc8qC/On+weaeMQa4Vij8E9n7QwapwN7yze467S9
AgMBAAGjggFjMIIBXzAJBgNVHRMEAjAAMC0GCWCGSAGG+EIBDQQgFh5FYXN5LVJT
QSBHZW5lcmF0ZWQgQ2VydGlmaWNhdGUwHQYDVR0OBBYEFJXD/Dm3ZnpNneoJjG2F
TUc8eMvhMIHhBgNVHSMEgdkwgdaAFBLNYATSoICecO3Gmbh7LMZS/RmhoYGypIGv
MIGsMQswCQYDVQQGEwJVUzELMAkGA1UECBMCT0gxETAPBgNVBAcTCENvbHVtYnVz
MRIwEAYDVQQKEwlWaWtpbmdWUE4xHTAbBgNVBAsTFE15T3JnYW5pemF0aW9uYWxV
bml0MRUwEwYDVQQDEwxWaWtpbmdWUE4gQ0ExEDAOBgNVBCkTB0Vhc3lSU0ExITAf
BgkqhkiG9w0BCQEWEm1lQG15aG9zdC5teWRvbWFpboIJAM81he6Avyo+MBMGA1Ud
JQQMMAoGCCsGAQUFBwMCMAsGA1UdDwQEAwIHgDANBgkqhkiG9w0BAQQFAAOCAgEA
fHDxs7ha/LLrut2vKFLeuWXBokKJ96O80lSnRDQ42of6hktkd/gaWM+k3WVag2IG
9baO7nZqDYsz3by488SBf1XXYA6v2S3f4qZSmZwT47zL7Y2QZ3AC9WY8a4F0GhOb
evZWVEP2neJmyKWblxavsyrLOAbUyiN9KWR8V9cB8F4Viq3fP00BJLYsiiR9larQ
V+/5pZAJXnvcAqwek6cPGSh/4MaupddqdtNR/K/LM/3mdnzd/fBy/xkrSAFIspWJ
iFXS1sJ16AT3JQ+1+AGxQ+rDYQdYw4dB1vGJY9LVLVZquZAz4UyblVCGWX1pfcxv
uw4Sn26UAWcKpU2uZeuIBl4t4SC8Fu/v95VvK2pMuDmuVcthJ7XqMd5YDfSYT3V3
TVi7oN5UdMV6uunU6nKzGi7YT7qvqdJYKezJEvAoYr0zIIY1auqHMGoSTkKqdbEm
yAusH1Ktb/fIEfLlwtn7SpiTa+7iypEI1SoD7VsL+Q+xBrlJanwpkf4v3A4Xq3GU
vN9v//7b1yAfRSQjEbgrIkc/2smz6GIhF7KitmrJxIKZFr9vzdzmRXZJt9BebITZ
MzF7ZN3Wojew0c0D93ZgdC5tUvZGlPQL4guU6OWViK8CORPjyO1wZBGnbHKNRVly
6fTzpVr9Rv93L9NwIS2aeyjLxplRyAhUHpUePT+yvH8=
-----END CERTIFICATE-----
