Certificate:
    Data:
        Version: 3 (0x2)
        Serial Number: 817 (0x331)
    Signature Algorithm: md5WithRSAEncryption
        Issuer: C=US, ST=OH, L=Columbus, O=VikingVPN, OU=MyOrganizationalUnit, CN=VikingVPN CA/name=EasyRSA/emailAddress=me@myhost.mydomain
        Validity
            Not Before: Jan 23 20:34:45 2014 GMT
            Not After : Jan 21 20:34:45 2024 GMT
        Subject: CN=Client328Certe2e601
        Subject Public Key Info:
            Public Key Algorithm: rsaEncryption
                Public-Key: (4096 bit)
                Modulus:
                    00:d7:87:2f:ae:b7:86:82:7e:01:1e:89:ca:ab:43:
                    cf:07:55:7a:8d:6b:47:3c:e8:cf:51:8e:e1:01:c4:
                    34:b5:c8:ae:9b:c2:8c:77:9d:38:56:d9:4b:59:12:
                    9a:6b:cc:b4:33:fa:83:02:d9:97:e9:ba:f1:2d:8b:
                    43:3d:57:d1:35:29:e5:2d:58:45:04:4b:48:d8:ec:
                    9e:1b:7e:03:0f:ee:2c:f0:07:9b:4b:d1:66:84:54:
                    47:26:37:0a:40:cb:b4:35:ca:35:f2:e0:c4:fc:68:
                    73:1e:e6:24:19:da:74:9b:f1:4f:60:80:34:0d:b9:
                    04:a5:ec:84:b1:f0:53:d6:bc:a4:f0:85:c8:29:b1:
                    54:4b:42:13:2f:fb:b3:f7:82:4a:44:5b:1b:9e:ee:
                    30:93:22:e6:55:5c:ba:4a:9b:eb:2a:d4:ac:46:2d:
                    dd:14:62:58:eb:29:2a:b4:ac:a5:1e:71:2e:af:65:
                    49:b6:dd:17:46:7e:b8:af:a5:7f:ec:cd:04:10:d6:
                    ce:fa:52:74:2a:02:70:b4:ce:fb:97:9d:dd:d2:9a:
                    be:61:b7:37:5f:d9:79:bf:bb:a8:b0:29:91:f2:ac:
                    a2:86:b2:43:29:20:21:5d:a5:53:fa:23:3c:9d:f9:
                    ce:fd:45:a3:34:2b:2d:be:ab:9a:2a:04:7c:82:e6:
                    03:dd:28:e6:90:76:a9:51:d6:02:b5:ef:1d:e3:6f:
                    bb:15:4e:50:f5:37:f1:1f:b4:a3:76:ae:af:2b:43:
                    d8:54:c4:0b:17:d7:fa:ca:58:00:b7:23:5e:66:b2:
                    f1:ff:a4:bd:2b:a3:87:35:8e:9e:c6:47:27:b4:28:
                    43:1a:d0:ae:ac:4a:05:1c:fc:25:2b:8a:5e:fa:ab:
                    53:48:3b:f6:e1:d9:5f:d9:47:dd:f9:7e:92:20:bb:
                    09:36:c5:d7:19:14:79:fe:6e:97:46:b2:5a:b5:19:
                    35:6d:3f:0f:10:38:66:29:e4:0e:74:fd:a4:e6:06:
                    e4:b2:81:06:52:70:8f:5a:63:be:b7:44:5f:a3:e3:
                    05:41:96:40:e4:7a:d7:d2:8e:95:23:0b:05:c6:2d:
                    90:08:72:2a:cf:71:f4:d0:68:c5:c4:40:ac:9e:c5:
                    99:c7:83:cf:70:38:be:69:f9:99:0d:c3:5f:30:44:
                    42:db:47:46:c8:c3:11:c9:fd:b5:8e:f4:8c:17:f6:
                    6f:de:80:d7:1f:0f:9e:bb:6e:d6:a2:83:aa:a4:20:
                    9f:0c:0a:46:a8:29:2d:43:54:76:6a:0b:9b:3e:eb:
                    2d:ae:06:27:1d:07:54:8f:33:ec:82:ce:9d:0f:4a:
                    5e:8f:19:04:41:63:ba:d5:eb:47:36:30:99:ea:18:
                    60:e0:37
                Exponent: 65537 (0x10001)
        X509v3 extensions:
            X509v3 Basic Constraints: 
                CA:FALSE
            Netscape Comment: 
                Easy-RSA Generated Certificate
            X509v3 Subject Key Identifier: 
                A1:EC:35:92:B2:E8:34:39:E7:57:57:D5:1D:59:AB:FB:BF:97:55:6A
            X509v3 Authority Key Identifier: 
                keyid:12:CD:60:04:D2:A0:80:9E:70:ED:C6:99:B8:7B:2C:C6:52:FD:19:A1
                DirName:/C=US/ST=OH/L=Columbus/O=VikingVPN/OU=MyOrganizationalUnit/CN=VikingVPN CA/name=EasyRSA/emailAddress=me@myhost.mydomain
                serial:CF:35:85:EE:80:BF:2A:3E

            X509v3 Extended Key Usage: 
                TLS Web Client Authentication
            X509v3 Key Usage: 
                Digital Signature
    Signature Algorithm: md5WithRSAEncryption
         0c:4b:16:8d:6c:4e:ee:f2:ed:84:c2:42:a9:3c:d2:23:8f:3f:
         d5:e9:95:dd:79:0c:0f:6a:a7:ed:04:10:fc:a0:d2:3f:a3:e0:
         a1:c1:cd:48:db:53:9e:4a:8c:a9:6c:55:e2:2f:5b:8f:bc:dc:
         90:cc:f2:e6:12:c0:ad:bf:1c:e3:f3:9b:b6:e1:34:cd:36:31:
         0d:19:e4:c1:d7:25:e4:5a:41:7a:ee:12:aa:b7:4e:27:9b:e7:
         99:f5:c4:8b:a9:4f:53:84:c2:44:4f:ce:f8:c6:5c:43:46:99:
         08:a4:d1:04:bb:21:2d:d9:38:38:72:9e:d9:9d:5c:4d:dd:b9:
         7f:a7:d1:9a:29:46:16:4e:fa:35:32:04:8e:f0:37:c9:43:99:
         b6:12:83:26:08:c6:cf:06:f5:d5:a3:7e:e2:c0:45:0e:59:4c:
         e0:dc:67:c7:9a:86:2d:bc:58:aa:63:0a:86:a3:67:87:ea:5f:
         61:ca:ac:16:f7:e4:f9:aa:d1:f4:ed:89:4f:9e:32:5c:a5:60:
         41:47:18:06:14:f8:18:7d:49:26:c9:11:a1:54:35:ec:2f:3d:
         4a:dc:9b:af:8b:33:7e:b5:b5:05:73:ec:0c:65:c2:55:66:4f:
         80:ca:c2:07:27:b2:69:fd:92:ee:1e:67:76:c8:9a:1c:e1:06:
         ce:e6:bc:28:0c:04:96:98:eb:4c:f8:db:16:ec:f6:71:2e:e7:
         e3:29:21:f1:1e:79:ea:68:0e:75:84:a5:ef:67:95:4c:29:60:
         72:07:d9:c2:47:56:3b:1f:a2:d2:b0:e4:2a:d5:e3:d8:80:bb:
         a1:bc:21:03:50:f1:df:3d:2c:f1:31:8c:e4:32:f2:ac:dc:2c:
         a9:bd:f2:3b:bf:ad:5e:8b:c0:b7:e6:12:ec:70:cb:9f:76:a7:
         79:ec:bd:52:f1:f8:07:13:22:f7:d1:4f:27:5a:8c:8c:63:2f:
         1b:aa:b5:14:db:1f:f6:69:24:96:ba:61:1c:b7:6b:8a:f1:a9:
         85:77:51:98:7d:70:c8:5a:42:ba:3d:94:3f:2e:85:98:1f:52:
         5e:b1:05:b7:0c:e9:cd:1b:ca:79:34:fe:5e:3f:3b:26:0f:e2:
         a4:a3:a5:c2:85:41:6e:ea:e3:da:ed:2f:b5:3f:57:1b:ee:cb:
         8b:3d:96:a7:55:b5:9d:24:00:52:58:56:f3:50:28:06:5b:34:
         e5:56:02:e6:2e:56:b8:7c:88:e5:75:98:32:47:2f:71:e5:52:
         42:2f:fb:89:b7:55:54:e4:fe:4d:56:0d:ff:d9:19:42:1b:93:
         44:62:74:2a:78:65:e5:5d:5d:10:a9:c0:33:b9:f9:47:03:1d:
         f0:f5:56:a8:52:cf:7e:d0
-----BEGIN CERTIFICATE-----
MIIGrDCCBJSgAwIBAgICAzEwDQYJKoZIhvcNAQEEBQAwgawxCzAJBgNVBAYTAlVT
MQswCQYDVQQIEwJPSDERMA8GA1UEBxMIQ29sdW1idXMxEjAQBgNVBAoTCVZpa2lu
Z1ZQTjEdMBsGA1UECxMUTXlPcmdhbml6YXRpb25hbFVuaXQxFTATBgNVBAMTDFZp
a2luZ1ZQTiBDQTEQMA4GA1UEKRMHRWFzeVJTQTEhMB8GCSqGSIb3DQEJARYSbWVA
bXlob3N0Lm15ZG9tYWluMB4XDTE0MDEyMzIwMzQ0NVoXDTI0MDEyMTIwMzQ0NVow
HjEcMBoGA1UEAxMTQ2xpZW50MzI4Q2VydGUyZTYwMTCCAiIwDQYJKoZIhvcNAQEB
BQADggIPADCCAgoCggIBANeHL663hoJ+AR6JyqtDzwdVeo1rRzzoz1GO4QHENLXI
rpvCjHedOFbZS1kSmmvMtDP6gwLZl+m68S2LQz1X0TUp5S1YRQRLSNjsnht+Aw/u
LPAHm0vRZoRURyY3CkDLtDXKNfLgxPxocx7mJBnadJvxT2CANA25BKXshLHwU9a8
pPCFyCmxVEtCEy/7s/eCSkRbG57uMJMi5lVcukqb6yrUrEYt3RRiWOspKrSspR5x
Lq9lSbbdF0Z+uK+lf+zNBBDWzvpSdCoCcLTO+5ed3dKavmG3N1/Zeb+7qLApkfKs
ooayQykgIV2lU/ojPJ35zv1FozQrLb6rmioEfILmA90o5pB2qVHWArXvHeNvuxVO
UPU38R+0o3aurytD2FTECxfX+spYALcjXmay8f+kvSujhzWOnsZHJ7QoQxrQrqxK
BRz8JSuKXvqrU0g79uHZX9lH3fl+kiC7CTbF1xkUef5ul0ayWrUZNW0/DxA4Zink
DnT9pOYG5LKBBlJwj1pjvrdEX6PjBUGWQOR619KOlSMLBcYtkAhyKs9x9NBoxcRA
rJ7FmceDz3A4vmn5mQ3DXzBEQttHRsjDEcn9tY70jBf2b96A1x8Pnrtu1qKDqqQg
nwwKRqgpLUNUdmoLmz7rLa4GJx0HVI8z7ILOnQ9KXo8ZBEFjutXrRzYwmeoYYOA3
AgMBAAGjggFjMIIBXzAJBgNVHRMEAjAAMC0GCWCGSAGG+EIBDQQgFh5FYXN5LVJT
QSBHZW5lcmF0ZWQgQ2VydGlmaWNhdGUwHQYDVR0OBBYEFKHsNZKy6DQ551dX1R1Z
q/u/l1VqMIHhBgNVHSMEgdkwgdaAFBLNYATSoICecO3Gmbh7LMZS/RmhoYGypIGv
MIGsMQswCQYDVQQGEwJVUzELMAkGA1UECBMCT0gxETAPBgNVBAcTCENvbHVtYnVz
MRIwEAYDVQQKEwlWaWtpbmdWUE4xHTAbBgNVBAsTFE15T3JnYW5pemF0aW9uYWxV
bml0MRUwEwYDVQQDEwxWaWtpbmdWUE4gQ0ExEDAOBgNVBCkTB0Vhc3lSU0ExITAf
BgkqhkiG9w0BCQEWEm1lQG15aG9zdC5teWRvbWFpboIJAM81he6Avyo+MBMGA1Ud
JQQMMAoGCCsGAQUFBwMCMAsGA1UdDwQEAwIHgDANBgkqhkiG9w0BAQQFAAOCAgEA
DEsWjWxO7vLthMJCqTzSI48/1emV3XkMD2qn7QQQ/KDSP6PgocHNSNtTnkqMqWxV
4i9bj7zckMzy5hLArb8c4/ObtuE0zTYxDRnkwdcl5FpBeu4SqrdOJ5vnmfXEi6lP
U4TCRE/O+MZcQ0aZCKTRBLshLdk4OHKe2Z1cTd25f6fRmilGFk76NTIEjvA3yUOZ
thKDJgjGzwb11aN+4sBFDllM4Nxnx5qGLbxYqmMKhqNnh+pfYcqsFvfk+arR9O2J
T54yXKVgQUcYBhT4GH1JJskRoVQ17C89Stybr4szfrW1BXPsDGXCVWZPgMrCByey
af2S7h5ndsiaHOEGzua8KAwElpjrTPjbFuz2cS7n4ykh8R556mgOdYSl72eVTClg
cgfZwkdWOx+i0rDkKtXj2IC7obwhA1Dx3z0s8TGM5DLyrNwsqb3yO7+tXovAt+YS
7HDLn3aneey9UvH4BxMi99FPJ1qMjGMvG6q1FNsf9mkklrphHLdrivGphXdRmH1w
yFpCuj2UPy6FmB9SXrEFtwzpzRvKeTT+Xj87Jg/ipKOlwoVBburj2u0vtT9XG+7L
iz2Wp1W1nSQAUlhW81AoBls05VYC5i5WuHyI5XWYMkcvceVSQi/7ibdVVOT+TVYN
/9kZQhuTRGJ0Knhl5V1dEKnAM7n5RwMd8PVWqFLPftA=
-----END CERTIFICATE-----
