Certificate:
    Data:
        Version: 3 (0x2)
        Serial Number: 819 (0x333)
    Signature Algorithm: md5WithRSAEncryption
        Issuer: C=US, ST=OH, L=Columbus, O=VikingVPN, OU=MyOrganizationalUnit, CN=VikingVPN CA/name=EasyRSA/emailAddress=me@myhost.mydomain
        Validity
            Not Before: Jan 23 23:22:33 2014 GMT
            Not After : Jan 21 23:22:33 2024 GMT
        Subject: CN=Client226Cert249c54
        Subject Public Key Info:
            Public Key Algorithm: rsaEncryption
                Public-Key: (4096 bit)
                Modulus:
                    00:d9:97:61:35:f3:f6:15:3a:e7:8c:c6:12:ad:a2:
                    12:f8:a6:3b:9a:a0:89:49:2d:26:bd:13:85:76:c8:
                    2b:b0:04:ed:c8:35:b7:59:dc:d3:42:38:33:fe:ac:
                    1f:91:7a:1d:d6:5e:72:81:75:b2:23:fd:cd:0e:70:
                    f7:af:69:4e:70:ed:cf:4d:b9:a1:ef:77:7f:cd:1a:
                    4f:51:bf:b1:76:b6:e2:42:de:b6:2d:d5:06:58:01:
                    a9:0c:38:50:74:b5:4b:33:0b:84:af:ae:13:e7:f6:
                    a9:5f:e3:02:b1:b8:63:9c:f6:06:1f:dc:38:69:47:
                    11:5e:f6:18:e3:37:28:ba:7f:55:a3:d5:05:b2:05:
                    2c:3f:3a:e4:b4:70:95:85:3d:72:64:6e:58:e6:cc:
                    a1:fa:3d:1a:97:23:1d:50:8f:78:40:23:1f:4f:4d:
                    37:c1:34:1b:b0:88:6a:5a:29:72:fb:a9:4a:28:a5:
                    5d:a4:26:c7:1c:be:b4:00:ce:0c:23:35:cf:af:68:
                    63:9f:49:8f:48:6a:eb:35:d1:ee:61:84:48:42:49:
                    f1:89:b4:a9:b1:95:49:8e:8d:9c:eb:da:65:c3:d8:
                    9a:51:77:0d:93:06:ff:77:36:7a:f7:8c:be:e1:83:
                    5b:fa:16:0c:f1:8f:28:a3:fc:13:79:75:00:54:7a:
                    dc:89:66:46:19:64:8a:78:25:cc:55:c7:10:b1:b6:
                    cd:62:03:7e:ea:16:a4:0f:b6:2c:5f:6b:a1:a4:b2:
                    22:6a:a2:79:b7:d5:49:c9:6b:5f:0c:2b:c5:16:0d:
                    b9:a2:06:9b:3e:3d:13:15:ae:0b:a7:c9:f8:72:c3:
                    26:f4:75:6d:ef:83:45:9a:6a:89:18:6c:b1:e9:c3:
                    32:33:76:c0:b6:da:20:a1:ec:a7:8c:0b:63:b5:2c:
                    d0:0e:07:7d:6a:b4:05:d2:44:84:82:7c:b6:11:cd:
                    7a:a6:30:65:61:dc:d7:1e:ea:88:3f:fe:de:b3:90:
                    7a:60:57:e7:02:1c:96:60:49:5d:56:81:02:75:26:
                    bf:9a:87:2f:dd:52:7d:ac:1a:30:bc:42:18:b7:cd:
                    05:c4:61:e9:cb:a9:d0:e8:ab:f1:2d:b2:04:1e:2c:
                    c8:bb:27:b7:c6:91:e5:75:d9:01:8d:05:56:7f:b8:
                    a3:06:fe:c9:ab:27:33:03:d1:45:3b:ed:86:47:d8:
                    15:28:aa:b9:03:1e:d1:98:7b:63:d5:83:59:16:53:
                    49:3d:0a:fb:da:97:00:d3:1d:92:89:61:2c:23:2a:
                    70:3d:56:34:c7:76:4e:49:5f:0e:0d:6a:3f:ec:1f:
                    5a:3f:d3:de:24:22:84:5a:b7:31:08:b8:37:e7:3f:
                    38:63:65
                Exponent: 65537 (0x10001)
        X509v3 extensions:
            X509v3 Basic Constraints: 
                CA:FALSE
            Netscape Comment: 
                Easy-RSA Generated Certificate
            X509v3 Subject Key Identifier: 
                C5:D6:68:1E:F6:8B:66:0D:CA:69:05:78:5C:B6:BC:1F:0C:26:F7:A9
            X509v3 Authority Key Identifier: 
                keyid:12:CD:60:04:D2:A0:80:9E:70:ED:C6:99:B8:7B:2C:C6:52:FD:19:A1
                DirName:/C=US/ST=OH/L=Columbus/O=VikingVPN/OU=MyOrganizationalUnit/CN=VikingVPN CA/name=EasyRSA/emailAddress=me@myhost.mydomain
                serial:CF:35:85:EE:80:BF:2A:3E

            X509v3 Extended Key Usage: 
                TLS Web Client Authentication
            X509v3 Key Usage: 
                Digital Signature
    Signature Algorithm: md5WithRSAEncryption
         82:37:f3:f2:ab:f7:80:72:b5:51:3b:9b:60:d9:93:a1:bd:c3:
         7b:67:55:7b:fc:b1:54:b3:79:b4:4d:44:42:43:d8:01:78:ac:
         1a:a6:1a:62:5a:90:3b:42:ce:29:fd:0f:a4:45:b2:bb:00:83:
         27:88:e7:bb:b5:32:5b:cd:1d:aa:9d:4f:b2:b1:7c:72:ff:fe:
         11:ec:ff:9a:a6:ee:2a:81:75:6e:90:d0:28:71:36:a6:3d:e3:
         b4:e2:76:f1:4e:aa:d4:c1:9e:a1:94:b7:5f:bb:42:c9:9b:b0:
         55:18:64:63:4e:84:c2:8f:04:20:7f:f4:a1:70:3f:f2:11:60:
         0f:cb:33:00:df:41:66:b4:e7:f0:2a:14:16:dc:26:1f:ec:66:
         01:01:9a:9b:ba:74:f9:1d:d4:5f:97:d6:c5:4e:a0:5f:fb:33:
         dc:99:79:05:18:71:a4:88:4a:6b:11:4e:29:c8:83:0a:8d:2f:
         0b:9a:8d:0b:cb:3d:49:3f:d4:8d:a3:e6:46:7e:3f:63:18:1a:
         4b:b9:db:cf:c7:ec:7e:81:0f:87:42:bd:c2:16:e4:36:59:91:
         5f:8c:ac:59:c3:be:d5:ac:52:11:61:6b:8c:09:84:44:34:3b:
         11:e9:9b:49:0c:88:ad:fe:72:4e:1c:56:3c:26:01:1a:ca:d6:
         77:36:f0:7a:25:60:89:0b:ea:39:92:cc:f5:b1:67:9c:a1:72:
         65:20:5a:ea:cb:be:40:5c:e6:6e:03:21:0e:25:5c:b8:d0:95:
         19:13:3f:7b:b5:59:04:41:3f:f0:8d:9f:c6:52:20:3a:95:e2:
         78:40:68:d8:96:61:b4:dc:a4:85:06:76:ed:a6:08:2a:d8:06:
         b7:e2:26:67:e3:58:67:c7:80:b1:0e:ab:2e:06:8e:60:b1:d8:
         16:7d:60:e4:7e:7a:cd:85:d2:06:a1:e4:cc:3a:79:a0:13:73:
         b1:39:31:26:6a:5a:ef:95:6f:46:12:b3:c1:b1:f5:67:7e:4b:
         d6:1d:fb:55:e5:46:86:21:0c:86:98:64:84:5f:82:a8:71:61:
         c7:b4:89:98:3a:e3:31:44:e2:6e:00:01:55:7a:17:b8:15:df:
         e7:89:ff:51:3c:e5:89:d5:4a:41:37:51:1f:ca:da:64:07:aa:
         f2:02:c0:35:5d:09:87:15:f2:4c:0a:81:ec:28:b8:86:02:f9:
         50:9d:83:6c:d1:fc:e7:65:56:9c:87:f7:d4:77:b8:ad:f0:bb:
         42:f3:49:ef:48:bd:01:09:ef:7a:1b:53:8a:39:7e:ca:f3:e2:
         f9:81:d2:eb:c0:84:44:1a:88:ee:c3:cb:b5:b7:93:1f:4b:3b:
         22:67:ea:e8:d2:6e:e8:26
-----BEGIN CERTIFICATE-----
MIIGrDCCBJSgAwIBAgICAzMwDQYJKoZIhvcNAQEEBQAwgawxCzAJBgNVBAYTAlVT
MQswCQYDVQQIEwJPSDERMA8GA1UEBxMIQ29sdW1idXMxEjAQBgNVBAoTCVZpa2lu
Z1ZQTjEdMBsGA1UECxMUTXlPcmdhbml6YXRpb25hbFVuaXQxFTATBgNVBAMTDFZp
a2luZ1ZQTiBDQTEQMA4GA1UEKRMHRWFzeVJTQTEhMB8GCSqGSIb3DQEJARYSbWVA
bXlob3N0Lm15ZG9tYWluMB4XDTE0MDEyMzIzMjIzM1oXDTI0MDEyMTIzMjIzM1ow
HjEcMBoGA1UEAxMTQ2xpZW50MjI2Q2VydDI0OWM1NDCCAiIwDQYJKoZIhvcNAQEB
BQADggIPADCCAgoCggIBANmXYTXz9hU654zGEq2iEvimO5qgiUktJr0ThXbIK7AE
7cg1t1nc00I4M/6sH5F6HdZecoF1siP9zQ5w969pTnDtz025oe93f80aT1G/sXa2
4kLeti3VBlgBqQw4UHS1SzMLhK+uE+f2qV/jArG4Y5z2Bh/cOGlHEV72GOM3KLp/
VaPVBbIFLD865LRwlYU9cmRuWObMofo9GpcjHVCPeEAjH09NN8E0G7CIalopcvup
SiilXaQmxxy+tADODCM1z69oY59Jj0hq6zXR7mGESEJJ8Ym0qbGVSY6NnOvaZcPY
mlF3DZMG/3c2eveMvuGDW/oWDPGPKKP8E3l1AFR63IlmRhlkinglzFXHELG2zWID
fuoWpA+2LF9roaSyImqiebfVSclrXwwrxRYNuaIGmz49ExWuC6fJ+HLDJvR1be+D
RZpqiRhssenDMjN2wLbaIKHsp4wLY7Us0A4HfWq0BdJEhIJ8thHNeqYwZWHc1x7q
iD/+3rOQemBX5wIclmBJXVaBAnUmv5qHL91SfawaMLxCGLfNBcRh6cup0Oir8S2y
BB4syLsnt8aR5XXZAY0FVn+4owb+yasnMwPRRTvthkfYFSiquQMe0Zh7Y9WDWRZT
ST0K+9qXANMdkolhLCMqcD1WNMd2TklfDg1qP+wfWj/T3iQihFq3MQi4N+c/OGNl
AgMBAAGjggFjMIIBXzAJBgNVHRMEAjAAMC0GCWCGSAGG+EIBDQQgFh5FYXN5LVJT
QSBHZW5lcmF0ZWQgQ2VydGlmaWNhdGUwHQYDVR0OBBYEFMXWaB72i2YNymkFeFy2
vB8MJvepMIHhBgNVHSMEgdkwgdaAFBLNYATSoICecO3Gmbh7LMZS/RmhoYGypIGv
MIGsMQswCQYDVQQGEwJVUzELMAkGA1UECBMCT0gxETAPBgNVBAcTCENvbHVtYnVz
MRIwEAYDVQQKEwlWaWtpbmdWUE4xHTAbBgNVBAsTFE15T3JnYW5pemF0aW9uYWxV
bml0MRUwEwYDVQQDEwxWaWtpbmdWUE4gQ0ExEDAOBgNVBCkTB0Vhc3lSU0ExITAf
BgkqhkiG9w0BCQEWEm1lQG15aG9zdC5teWRvbWFpboIJAM81he6Avyo+MBMGA1Ud
JQQMMAoGCCsGAQUFBwMCMAsGA1UdDwQEAwIHgDANBgkqhkiG9w0BAQQFAAOCAgEA
gjfz8qv3gHK1UTubYNmTob3De2dVe/yxVLN5tE1EQkPYAXisGqYaYlqQO0LOKf0P
pEWyuwCDJ4jnu7UyW80dqp1PsrF8cv/+Eez/mqbuKoF1bpDQKHE2pj3jtOJ28U6q
1MGeoZS3X7tCyZuwVRhkY06Ewo8EIH/0oXA/8hFgD8szAN9BZrTn8CoUFtwmH+xm
AQGam7p0+R3UX5fWxU6gX/sz3Jl5BRhxpIhKaxFOKciDCo0vC5qNC8s9ST/UjaPm
Rn4/YxgaS7nbz8fsfoEPh0K9whbkNlmRX4ysWcO+1axSEWFrjAmERDQ7EembSQyI
rf5yThxWPCYBGsrWdzbweiVgiQvqOZLM9bFnnKFyZSBa6su+QFzmbgMhDiVcuNCV
GRM/e7VZBEE/8I2fxlIgOpXieEBo2JZhtNykhQZ27aYIKtgGt+ImZ+NYZ8eAsQ6r
LgaOYLHYFn1g5H56zYXSBqHkzDp5oBNzsTkxJmpa75VvRhKzwbH1Z35L1h37VeVG
hiEMhphkhF+CqHFhx7SJmDrjMUTibgABVXoXuBXf54n/UTzlidVKQTdRH8raZAeq
8gLANV0JhxXyTAqB7Ci4hgL5UJ2DbNH852VWnIf31He4rfC7QvNJ70i9AQnvehtT
ijl+yvPi+YHS68CERBqI7sPLtbeTH0s7Imfq6NJu6CY=
-----END CERTIFICATE-----
