Certificate:
    Data:
        Version: 3 (0x2)
        Serial Number: 832 (0x340)
    Signature Algorithm: md5WithRSAEncryption
        Issuer: C=US, ST=OH, L=Columbus, O=VikingVPN, OU=MyOrganizationalUnit, CN=VikingVPN CA/name=EasyRSA/emailAddress=me@myhost.mydomain
        Validity
            Not Before: Jan 26 02:10:32 2014 GMT
            Not After : Jan 24 02:10:32 2024 GMT
        Subject: CN=Client143Cert19ccc7
        Subject Public Key Info:
            Public Key Algorithm: rsaEncryption
                Public-Key: (4096 bit)
                Modulus:
                    00:a1:29:8d:cc:cb:00:30:30:cb:d3:53:6f:d0:af:
                    48:3b:96:39:2d:f2:9b:ea:ef:cb:c7:2a:0f:b8:4d:
                    6c:33:1e:ed:21:fd:4d:0c:2c:8a:41:8f:bb:de:03:
                    f7:52:49:8d:0d:01:62:2a:e3:79:d7:45:99:c1:99:
                    a3:3b:00:13:98:bf:2e:94:4b:dd:e0:22:fb:56:8e:
                    82:11:b7:fb:54:2d:3d:7a:5c:b2:7e:ad:bd:7d:9a:
                    d7:85:da:40:49:bc:bb:60:e9:f7:10:97:bb:e4:aa:
                    0d:32:c6:d3:eb:dc:d6:09:d7:20:ee:61:f9:70:0b:
                    be:fb:ef:fc:24:7e:2f:44:2f:ad:1e:97:dd:a2:5b:
                    65:9b:32:fa:1f:a3:b8:6f:04:82:d7:79:42:38:c2:
                    2e:36:c9:b2:c9:ef:d5:47:f4:96:aa:ad:84:73:a7:
                    ed:4a:04:7a:ff:68:b3:57:e0:90:2c:eb:d8:95:a7:
                    69:d1:c7:3f:28:6a:c7:12:8b:9e:88:5b:f2:87:4e:
                    27:6d:88:43:d8:1f:74:79:d4:5e:ad:bb:d4:27:4e:
                    ab:8c:1e:ec:a2:b0:7d:f2:44:af:e3:e7:8e:55:7c:
                    0e:18:a6:45:72:54:df:66:e8:69:c9:a8:c0:cc:27:
                    f4:fa:b3:dc:68:b9:12:93:dd:3f:32:1f:92:be:ac:
                    45:af:30:7c:d2:8d:66:e5:c0:a7:f7:15:63:63:b6:
                    21:79:fa:6f:0d:e6:da:5d:81:60:af:87:25:68:ee:
                    87:3f:af:ac:80:f4:3e:24:5b:49:de:7e:08:9a:b1:
                    ad:a7:f4:d9:f3:ad:86:d1:c0:80:e8:89:c6:40:7e:
                    a5:fa:e4:e9:a6:3a:89:d7:31:12:f2:d6:d5:54:4d:
                    0e:10:25:e4:97:50:bc:6c:f6:f8:5f:17:7e:bb:77:
                    b9:9f:b6:fe:a5:c4:cd:fd:77:48:6e:48:45:68:f1:
                    4a:f0:ab:58:7a:69:15:ed:52:03:e6:06:9f:c1:17:
                    9f:c6:32:ce:17:93:a6:20:5a:10:42:9a:12:23:34:
                    05:ea:81:bf:09:de:e5:6f:fb:9f:27:4c:1f:fa:f8:
                    12:f9:a0:9a:fa:53:a0:c3:d1:06:96:36:11:80:a0:
                    fe:ed:5c:c8:b4:3f:3a:b4:76:f8:c0:67:4b:71:c2:
                    5f:3b:9d:4d:6c:fc:f4:20:96:52:27:45:c6:8b:7a:
                    99:c1:e0:6b:60:00:53:f2:47:ed:35:1a:e8:a3:8f:
                    b5:ed:86:eb:21:bd:dc:d2:90:5a:a7:57:04:40:75:
                    db:c7:4d:07:a5:6f:19:b9:fe:e9:db:ed:e4:88:f3:
                    9e:68:85:54:d1:1b:44:e1:e0:0b:ae:87:23:97:0d:
                    6f:48:0d
                Exponent: 65537 (0x10001)
        X509v3 extensions:
            X509v3 Basic Constraints: 
                CA:FALSE
            Netscape Comment: 
                Easy-RSA Generated Certificate
            X509v3 Subject Key Identifier: 
                B4:0D:F8:FE:07:21:88:16:52:9A:FA:8D:84:71:02:FE:DF:A6:DC:4F
            X509v3 Authority Key Identifier: 
                keyid:12:CD:60:04:D2:A0:80:9E:70:ED:C6:99:B8:7B:2C:C6:52:FD:19:A1
                DirName:/C=US/ST=OH/L=Columbus/O=VikingVPN/OU=MyOrganizationalUnit/CN=VikingVPN CA/name=EasyRSA/emailAddress=me@myhost.mydomain
                serial:CF:35:85:EE:80:BF:2A:3E

            X509v3 Extended Key Usage: 
                TLS Web Client Authentication
            X509v3 Key Usage: 
                Digital Signature
    Signature Algorithm: md5WithRSAEncryption
         59:3a:07:51:d7:17:34:95:be:13:66:c3:aa:c4:09:5b:23:1b:
         19:d9:e9:13:52:92:50:e5:cd:63:68:07:7b:e6:86:be:ee:8e:
         47:71:a0:19:3e:b5:01:c1:f1:cc:03:8c:25:b2:e5:a5:42:9e:
         d8:82:cd:8a:8f:22:d0:33:ae:98:4b:8e:0c:f8:7d:7a:25:80:
         8a:47:23:26:79:d9:34:cb:ca:1f:6f:51:66:3c:b9:a3:b8:1b:
         12:0c:3d:ef:d2:02:87:24:08:61:19:3e:de:1c:96:56:df:02:
         cb:9d:59:a2:31:0c:6b:b1:a0:e6:b0:85:26:b9:ed:9b:c0:47:
         79:37:e8:ef:71:59:14:42:9a:8e:a4:90:69:39:ef:b3:a8:fa:
         ec:8f:3d:ac:3e:ad:12:04:8e:c0:61:39:ff:05:db:5c:ff:c9:
         f3:f1:ae:77:e4:b2:b1:b5:65:27:84:16:1e:6e:38:80:44:54:
         ad:7e:56:27:76:18:f2:4e:1e:8b:e2:c2:97:27:8b:dc:a6:23:
         d9:e4:82:c7:f7:7e:be:c0:99:7b:b0:41:67:bf:73:1f:b2:e5:
         e0:aa:17:ce:41:b1:24:6e:c9:21:28:15:78:40:2e:c2:66:c2:
         7b:83:99:a7:d3:69:a3:9c:12:ea:6a:12:e5:36:1c:06:d9:ca:
         f1:41:15:db:9b:44:57:38:5d:1b:1a:77:f8:0f:b9:37:0d:b8:
         86:b5:8d:05:9d:ce:07:85:8d:1a:a3:fa:9f:7f:b4:67:f8:4d:
         14:2b:52:43:84:ce:45:74:d1:8d:2d:1a:1a:d6:27:11:49:54:
         3b:a0:ec:31:0a:21:db:2b:92:8b:0b:43:f7:7e:d5:01:4f:56:
         e8:d0:52:86:6d:23:37:67:db:3d:53:a9:d5:f9:19:0b:d0:09:
         bf:74:69:a8:26:3b:d5:fc:9b:7c:ac:6b:a2:0c:63:38:b0:d6:
         53:35:2c:6a:f0:a2:4b:8a:19:0f:b1:38:82:89:03:19:cb:7e:
         ec:30:d6:d3:bd:e3:f7:8a:a1:f5:30:9b:40:df:c1:82:6a:a9:
         fc:f9:18:d9:0c:47:13:ca:9a:c3:f3:ff:94:c9:bf:4c:2b:1c:
         80:f7:62:4c:e5:f4:c4:45:51:d8:a2:79:e1:51:78:25:17:a6:
         4c:5e:34:cd:b9:9c:dd:8b:5a:53:9e:7a:e2:96:5f:10:39:fa:
         8f:61:fd:09:be:13:ed:a6:05:ad:eb:e4:66:af:8e:c1:14:d9:
         47:06:5c:89:a2:14:df:69:65:91:31:df:9e:2a:d2:bd:e7:c5:
         1b:50:2c:21:ea:c9:1a:e7:72:00:04:3a:81:91:c9:f9:65:d3:
         46:25:63:e6:9a:7c:6c:15
-----BEGIN CERTIFICATE-----
MIIGrDCCBJSgAwIBAgICA0AwDQYJKoZIhvcNAQEEBQAwgawxCzAJBgNVBAYTAlVT
MQswCQYDVQQIEwJPSDERMA8GA1UEBxMIQ29sdW1idXMxEjAQBgNVBAoTCVZpa2lu
Z1ZQTjEdMBsGA1UECxMUTXlPcmdhbml6YXRpb25hbFVuaXQxFTATBgNVBAMTDFZp
a2luZ1ZQTiBDQTEQMA4GA1UEKRMHRWFzeVJTQTEhMB8GCSqGSIb3DQEJARYSbWVA
bXlob3N0Lm15ZG9tYWluMB4XDTE0MDEyNjAyMTAzMloXDTI0MDEyNDAyMTAzMlow
HjEcMBoGA1UEAxMTQ2xpZW50MTQzQ2VydDE5Y2NjNzCCAiIwDQYJKoZIhvcNAQEB
BQADggIPADCCAgoCggIBAKEpjczLADAwy9NTb9CvSDuWOS3ym+rvy8cqD7hNbDMe
7SH9TQwsikGPu94D91JJjQ0BYirjeddFmcGZozsAE5i/LpRL3eAi+1aOghG3+1Qt
PXpcsn6tvX2a14XaQEm8u2Dp9xCXu+SqDTLG0+vc1gnXIO5h+XALvvvv/CR+L0Qv
rR6X3aJbZZsy+h+juG8Egtd5QjjCLjbJssnv1Uf0lqqthHOn7UoEev9os1fgkCzr
2JWnadHHPyhqxxKLnohb8odOJ22IQ9gfdHnUXq271CdOq4we7KKwffJEr+PnjlV8
DhimRXJU32boacmowMwn9Pqz3Gi5EpPdPzIfkr6sRa8wfNKNZuXAp/cVY2O2IXn6
bw3m2l2BYK+HJWjuhz+vrID0PiRbSd5+CJqxraf02fOthtHAgOiJxkB+pfrk6aY6
idcxEvLW1VRNDhAl5JdQvGz2+F8Xfrt3uZ+2/qXEzf13SG5IRWjxSvCrWHppFe1S
A+YGn8EXn8YyzheTpiBaEEKaEiM0BeqBvwne5W/7nydMH/r4EvmgmvpToMPRBpY2
EYCg/u1cyLQ/OrR2+MBnS3HCXzudTWz89CCWUidFxot6mcHga2AAU/JH7TUa6KOP
te2G6yG93NKQWqdXBEB128dNB6VvGbn+6dvt5IjznmiFVNEbROHgC66HI5cNb0gN
AgMBAAGjggFjMIIBXzAJBgNVHRMEAjAAMC0GCWCGSAGG+EIBDQQgFh5FYXN5LVJT
QSBHZW5lcmF0ZWQgQ2VydGlmaWNhdGUwHQYDVR0OBBYEFLQN+P4HIYgWUpr6jYRx
Av7fptxPMIHhBgNVHSMEgdkwgdaAFBLNYATSoICecO3Gmbh7LMZS/RmhoYGypIGv
MIGsMQswCQYDVQQGEwJVUzELMAkGA1UECBMCT0gxETAPBgNVBAcTCENvbHVtYnVz
MRIwEAYDVQQKEwlWaWtpbmdWUE4xHTAbBgNVBAsTFE15T3JnYW5pemF0aW9uYWxV
bml0MRUwEwYDVQQDEwxWaWtpbmdWUE4gQ0ExEDAOBgNVBCkTB0Vhc3lSU0ExITAf
BgkqhkiG9w0BCQEWEm1lQG15aG9zdC5teWRvbWFpboIJAM81he6Avyo+MBMGA1Ud
JQQMMAoGCCsGAQUFBwMCMAsGA1UdDwQEAwIHgDANBgkqhkiG9w0BAQQFAAOCAgEA
WToHUdcXNJW+E2bDqsQJWyMbGdnpE1KSUOXNY2gHe+aGvu6OR3GgGT61AcHxzAOM
JbLlpUKe2ILNio8i0DOumEuODPh9eiWAikcjJnnZNMvKH29RZjy5o7gbEgw979IC
hyQIYRk+3hyWVt8Cy51ZojEMa7Gg5rCFJrntm8BHeTfo73FZFEKajqSQaTnvs6j6
7I89rD6tEgSOwGE5/wXbXP/J8/Gud+SysbVlJ4QWHm44gERUrX5WJ3YY8k4ei+LC
lyeL3KYj2eSCx/d+vsCZe7BBZ79zH7Ll4KoXzkGxJG7JISgVeEAuwmbCe4OZp9Np
o5wS6moS5TYcBtnK8UEV25tEVzhdGxp3+A+5Nw24hrWNBZ3OB4WNGqP6n3+0Z/hN
FCtSQ4TORXTRjS0aGtYnEUlUO6DsMQoh2yuSiwtD937VAU9W6NBShm0jN2fbPVOp
1fkZC9AJv3RpqCY71fybfKxrogxjOLDWUzUsavCiS4oZD7E4gokDGct+7DDW073j
94qh9TCbQN/Bgmqp/PkY2QxHE8qaw/P/lMm/TCscgPdiTOX0xEVR2KJ54VF4JRem
TF40zbmc3YtaU5564pZfEDn6j2H9Cb4T7aYFrevkZq+OwRTZRwZciaIU32llkTHf
nirSvefFG1AsIerJGudyAAQ6gZHJ+WXTRiVj5pp8bBU=
-----END CERTIFICATE-----
