Certificate:
    Data:
        Version: 3 (0x2)
        Serial Number: 833 (0x341)
    Signature Algorithm: md5WithRSAEncryption
        Issuer: C=US, ST=OH, L=Columbus, O=VikingVPN, OU=MyOrganizationalUnit, CN=VikingVPN CA/name=EasyRSA/emailAddress=me@myhost.mydomain
        Validity
            Not Before: Jan 26 02:14:00 2014 GMT
            Not After : Jan 24 02:14:00 2024 GMT
        Subject: CN=Client143Cert43d199
        Subject Public Key Info:
            Public Key Algorithm: rsaEncryption
                Public-Key: (4096 bit)
                Modulus:
                    00:bb:bc:a8:f8:18:e3:aa:2b:5d:aa:8c:9e:63:98:
                    dd:71:2a:16:4c:36:3b:1d:4b:78:62:c6:b1:6b:24:
                    e7:48:96:54:6c:8f:5a:0f:12:63:17:49:60:d2:00:
                    83:18:53:b2:7f:14:83:6b:f2:f4:4a:be:46:31:2a:
                    a4:ef:dc:4d:29:85:42:8c:d2:aa:29:6c:b7:12:88:
                    dd:31:b3:6b:15:85:70:c3:88:79:e2:0c:8e:1b:42:
                    77:98:22:82:b9:ba:05:d0:a7:dd:ed:e2:ee:b5:ce:
                    4c:69:ef:92:da:01:3f:5f:ca:6e:03:85:86:66:ae:
                    bf:c5:33:95:e0:e3:a9:6c:1d:30:f2:b5:4d:2c:0f:
                    22:27:c2:bb:1d:cf:df:52:2a:81:b5:50:47:ff:44:
                    af:e6:5c:7f:1b:e9:ca:43:14:d8:e7:29:d5:59:d7:
                    00:8f:8a:c1:6a:2c:d2:b1:96:81:0f:9d:33:97:54:
                    a1:20:71:4d:5e:52:5a:d2:61:da:53:bb:35:1e:cf:
                    45:3d:45:87:1b:30:3e:53:09:d0:d2:1a:0f:34:4c:
                    c3:ad:fc:79:53:61:eb:5b:1e:db:60:94:41:60:28:
                    a4:29:9f:71:e2:bc:db:c8:33:5e:24:83:a4:b4:fe:
                    4e:dd:a7:69:c3:6e:0e:cc:94:a2:8e:d6:01:0f:eb:
                    30:99:2e:4b:c3:4f:91:0a:d3:08:4e:27:00:3c:cf:
                    1a:ba:03:28:13:68:c1:5b:17:a8:0c:26:85:0a:30:
                    b2:ae:ac:45:fd:6a:7c:48:97:10:3c:ec:8c:d0:c3:
                    06:24:69:2f:68:1b:d9:97:fa:03:3c:d4:38:d8:22:
                    9e:b5:d6:0e:68:9f:c9:1b:4c:7a:a6:74:59:22:58:
                    48:31:45:07:a5:4c:86:ad:68:a7:eb:9d:68:3e:d6:
                    19:8c:cf:e0:e7:6e:d0:25:82:a5:93:ce:f5:9c:e6:
                    c1:55:97:2c:b6:23:a2:29:2b:8b:02:a5:b8:03:80:
                    2e:23:18:a4:66:e2:42:6c:b6:fb:05:14:90:9e:69:
                    d0:93:0e:7f:fd:48:19:e9:4b:bd:48:28:44:52:91:
                    6c:1e:a5:e7:74:99:cd:0d:da:ec:bf:5a:57:4c:df:
                    86:ee:f3:48:31:98:22:21:b7:91:b9:ed:63:93:ef:
                    10:d2:4d:51:20:32:e8:05:49:87:6a:08:30:3c:3a:
                    72:fa:34:7e:44:82:ce:a4:3d:4a:9a:57:8c:b7:d4:
                    46:6d:e5:c3:da:a5:d6:fe:b8:cc:7c:85:84:ad:ef:
                    ce:6d:89:ee:7b:23:49:8b:d8:63:56:63:53:60:a1:
                    b7:06:74:a1:d2:10:56:13:46:a1:7b:9c:1a:10:14:
                    e1:13:d7
                Exponent: 65537 (0x10001)
        X509v3 extensions:
            X509v3 Basic Constraints: 
                CA:FALSE
            Netscape Comment: 
                Easy-RSA Generated Certificate
            X509v3 Subject Key Identifier: 
                00:21:6C:98:AE:8E:54:96:57:CA:86:8B:02:FC:90:26:55:CD:2D:89
            X509v3 Authority Key Identifier: 
                keyid:12:CD:60:04:D2:A0:80:9E:70:ED:C6:99:B8:7B:2C:C6:52:FD:19:A1
                DirName:/C=US/ST=OH/L=Columbus/O=VikingVPN/OU=MyOrganizationalUnit/CN=VikingVPN CA/name=EasyRSA/emailAddress=me@myhost.mydomain
                serial:CF:35:85:EE:80:BF:2A:3E

            X509v3 Extended Key Usage: 
                TLS Web Client Authentication
            X509v3 Key Usage: 
                Digital Signature
    Signature Algorithm: md5WithRSAEncryption
         87:72:21:f0:9a:ca:ac:4a:c3:82:1f:2e:bb:b1:4f:c6:ef:d9:
         13:32:74:18:e2:fa:d5:10:76:b7:4d:fc:4c:9d:2c:6a:74:fe:
         05:19:e8:fb:be:66:d8:c3:f1:1b:d0:aa:41:ec:e7:1e:87:00:
         37:7e:f3:28:7b:3d:d3:ee:57:a3:0a:74:01:58:22:97:68:bb:
         29:67:6f:9d:89:87:cc:b8:aa:fb:46:9c:b0:01:99:44:23:cc:
         9b:b6:83:67:f0:85:25:dc:51:52:a9:e4:7c:8c:89:97:06:36:
         0c:4d:2a:07:8c:3a:a4:89:a0:ed:44:5a:d3:4e:5a:3e:65:df:
         2b:8b:da:f0:18:b1:99:9a:5a:61:5d:d2:7a:5a:81:26:f3:a3:
         bb:02:9b:38:bc:c4:4a:13:eb:fa:93:f3:6e:1e:e4:c0:b9:8a:
         3f:a5:f9:ae:09:46:76:a6:f1:70:a3:13:57:92:78:5f:69:a9:
         cd:60:b5:2b:4e:99:4d:d9:03:64:3c:af:22:31:06:29:67:cb:
         b0:71:3f:bf:9b:6d:eb:e5:8f:13:1d:c6:76:57:83:00:e8:0a:
         ee:1f:51:09:8f:f0:60:ef:3f:72:f8:3a:d7:40:53:61:35:ce:
         da:f9:e9:5b:85:2b:fd:5b:fd:c9:ed:52:d3:73:5f:9e:e5:0a:
         61:1c:6d:05:20:99:28:ba:ae:9e:0d:33:85:de:31:fc:3e:c2:
         88:28:5c:71:c5:98:b7:55:a9:d4:a8:fb:28:7f:d5:d1:0b:bc:
         7d:b9:30:80:5e:6a:ed:fc:bf:b0:fe:6a:b4:f5:bd:a5:af:87:
         83:8a:8e:94:52:39:b2:17:87:d7:07:84:c7:8d:b6:57:a4:59:
         d9:de:28:ff:5a:65:1d:68:ea:82:68:ce:b3:30:9e:a6:76:fc:
         1d:f8:fb:5a:a2:b4:1d:df:5d:74:94:fc:32:f1:9b:f1:3a:0b:
         2e:d8:aa:9f:ac:b1:50:fd:1b:fb:46:56:10:66:2a:3f:d1:2b:
         48:d8:15:36:45:fc:53:5f:e9:b3:1a:2c:bc:b7:98:57:ce:5d:
         cb:a2:e2:e0:10:f2:a1:85:42:c9:d5:eb:bf:f9:be:3c:3a:f8:
         86:a1:f4:08:2c:b3:7c:87:bb:ae:e5:78:3c:eb:32:f5:98:2c:
         a9:40:6c:97:f3:b1:2e:9e:6a:14:77:f3:10:a1:df:a4:3d:4b:
         34:df:17:90:ce:fa:84:f2:b8:98:ec:c2:5a:e5:1e:d3:51:03:
         d3:ec:fe:40:8f:26:ac:17:fe:fc:d5:e4:05:18:34:95:ea:24:
         18:08:36:d7:0e:87:81:02:ae:e6:60:fe:74:8c:72:5f:0e:af:
         3a:a5:bc:d8:64:35:3a:76
-----BEGIN CERTIFICATE-----
MIIGrDCCBJSgAwIBAgICA0EwDQYJKoZIhvcNAQEEBQAwgawxCzAJBgNVBAYTAlVT
MQswCQYDVQQIEwJPSDERMA8GA1UEBxMIQ29sdW1idXMxEjAQBgNVBAoTCVZpa2lu
Z1ZQTjEdMBsGA1UECxMUTXlPcmdhbml6YXRpb25hbFVuaXQxFTATBgNVBAMTDFZp
a2luZ1ZQTiBDQTEQMA4GA1UEKRMHRWFzeVJTQTEhMB8GCSqGSIb3DQEJARYSbWVA
bXlob3N0Lm15ZG9tYWluMB4XDTE0MDEyNjAyMTQwMFoXDTI0MDEyNDAyMTQwMFow
HjEcMBoGA1UEAxMTQ2xpZW50MTQzQ2VydDQzZDE5OTCCAiIwDQYJKoZIhvcNAQEB
BQADggIPADCCAgoCggIBALu8qPgY46orXaqMnmOY3XEqFkw2Ox1LeGLGsWsk50iW
VGyPWg8SYxdJYNIAgxhTsn8Ug2vy9Eq+RjEqpO/cTSmFQozSqilstxKI3TGzaxWF
cMOIeeIMjhtCd5gigrm6BdCn3e3i7rXOTGnvktoBP1/KbgOFhmauv8UzleDjqWwd
MPK1TSwPIifCux3P31IqgbVQR/9Er+ZcfxvpykMU2Ocp1VnXAI+KwWos0rGWgQ+d
M5dUoSBxTV5SWtJh2lO7NR7PRT1FhxswPlMJ0NIaDzRMw638eVNh61se22CUQWAo
pCmfceK828gzXiSDpLT+Tt2nacNuDsyUoo7WAQ/rMJkuS8NPkQrTCE4nADzPGroD
KBNowVsXqAwmhQowsq6sRf1qfEiXEDzsjNDDBiRpL2gb2Zf6AzzUONginrXWDmif
yRtMeqZ0WSJYSDFFB6VMhq1op+udaD7WGYzP4Odu0CWCpZPO9ZzmwVWXLLYjoikr
iwKluAOALiMYpGbiQmy2+wUUkJ5p0JMOf/1IGelLvUgoRFKRbB6l53SZzQ3a7L9a
V0zfhu7zSDGYIiG3kbntY5PvENJNUSAy6AVJh2oIMDw6cvo0fkSCzqQ9SppXjLfU
Rm3lw9ql1v64zHyFhK3vzm2J7nsjSYvYY1ZjU2ChtwZ0odIQVhNGoXucGhAU4RPX
AgMBAAGjggFjMIIBXzAJBgNVHRMEAjAAMC0GCWCGSAGG+EIBDQQgFh5FYXN5LVJT
QSBHZW5lcmF0ZWQgQ2VydGlmaWNhdGUwHQYDVR0OBBYEFAAhbJiujlSWV8qGiwL8
kCZVzS2JMIHhBgNVHSMEgdkwgdaAFBLNYATSoICecO3Gmbh7LMZS/RmhoYGypIGv
MIGsMQswCQYDVQQGEwJVUzELMAkGA1UECBMCT0gxETAPBgNVBAcTCENvbHVtYnVz
MRIwEAYDVQQKEwlWaWtpbmdWUE4xHTAbBgNVBAsTFE15T3JnYW5pemF0aW9uYWxV
bml0MRUwEwYDVQQDEwxWaWtpbmdWUE4gQ0ExEDAOBgNVBCkTB0Vhc3lSU0ExITAf
BgkqhkiG9w0BCQEWEm1lQG15aG9zdC5teWRvbWFpboIJAM81he6Avyo+MBMGA1Ud
JQQMMAoGCCsGAQUFBwMCMAsGA1UdDwQEAwIHgDANBgkqhkiG9w0BAQQFAAOCAgEA
h3Ih8JrKrErDgh8uu7FPxu/ZEzJ0GOL61RB2t038TJ0sanT+BRno+75m2MPxG9Cq
QeznHocAN37zKHs90+5Xowp0AVgil2i7KWdvnYmHzLiq+0acsAGZRCPMm7aDZ/CF
JdxRUqnkfIyJlwY2DE0qB4w6pImg7URa005aPmXfK4va8BixmZpaYV3SelqBJvOj
uwKbOLzEShPr+pPzbh7kwLmKP6X5rglGdqbxcKMTV5J4X2mpzWC1K06ZTdkDZDyv
IjEGKWfLsHE/v5tt6+WPEx3GdleDAOgK7h9RCY/wYO8/cvg610BTYTXO2vnpW4Ur
/Vv9ye1S03NfnuUKYRxtBSCZKLqung0zhd4x/D7CiChcccWYt1Wp1Kj7KH/V0Qu8
fbkwgF5q7fy/sP5qtPW9pa+Hg4qOlFI5sheH1weEx422V6RZ2d4o/1plHWjqgmjO
szCepnb8Hfj7WqK0Hd9ddJT8MvGb8ToLLtiqn6yxUP0b+0ZWEGYqP9ErSNgVNkX8
U1/psxosvLeYV85dy6Li4BDyoYVCydXrv/m+PDr4hqH0CCyzfIe7ruV4POsy9Zgs
qUBsl/OxLp5qFHfzEKHfpD1LNN8XkM76hPK4mOzCWuUe01ED0+z+QI8mrBf+/NXk
BRg0leokGAg21w6HgQKu5mD+dIxyXw6vOqW82GQ1OnY=
-----END CERTIFICATE-----
