Certificate:
    Data:
        Version: 3 (0x2)
        Serial Number: 858 (0x35a)
    Signature Algorithm: md5WithRSAEncryption
        Issuer: C=US, ST=OH, L=Columbus, O=VikingVPN, OU=MyOrganizationalUnit, CN=VikingVPN CA/name=EasyRSA/emailAddress=me@myhost.mydomain
        Validity
            Not Before: Jan 29 16:37:36 2014 GMT
            Not After : Jan 27 16:37:36 2024 GMT
        Subject: CN=Client338Cert3f17aa
        Subject Public Key Info:
            Public Key Algorithm: rsaEncryption
                Public-Key: (4096 bit)
                Modulus:
                    00:d2:10:05:4d:7a:96:0a:32:7d:c9:2e:dc:d2:5d:
                    89:fb:9d:de:dd:f7:0c:e6:ca:2a:fd:4a:d3:40:0d:
                    12:f0:01:61:52:08:62:ea:5f:e2:e2:3c:1b:05:fc:
                    83:53:fa:21:37:de:4a:91:43:d7:10:84:28:a1:1e:
                    e5:0c:50:6a:4e:2d:8c:df:79:5c:8f:b3:62:a2:fb:
                    68:7a:31:4a:45:78:96:c9:5d:b5:0e:b0:51:5d:9e:
                    37:01:78:93:e8:cb:42:cc:ff:51:52:c9:56:f7:4a:
                    e7:e2:9e:b2:cb:2a:f0:2d:c0:a8:0f:c3:05:33:31:
                    9b:9c:6c:80:ab:51:aa:94:72:29:f5:2c:9a:a7:6f:
                    73:c6:04:2a:bd:75:b8:97:cb:e0:94:d0:b4:03:48:
                    01:cb:22:35:79:31:2f:75:f3:50:6f:1f:0d:65:2f:
                    53:b0:c6:86:be:6c:af:7c:70:20:05:62:20:79:2d:
                    e7:35:47:cc:0a:22:17:36:50:17:fb:66:df:39:a4:
                    36:45:ea:67:e4:d8:f6:6d:d7:b4:aa:12:b6:5e:1a:
                    b2:ac:36:d0:c2:45:17:e5:66:51:bf:4c:65:8e:5d:
                    57:70:33:40:e5:96:b3:89:b1:96:3e:db:b1:c3:94:
                    7d:76:7f:13:82:6e:7d:44:af:e0:29:9c:ba:6e:aa:
                    b2:c3:87:87:4f:60:0c:a5:d0:6c:3c:11:d3:22:16:
                    e2:96:65:3b:76:a1:37:c1:7c:3c:4c:b5:97:4b:2a:
                    1b:c6:d7:e3:20:10:06:d6:b4:80:09:3c:16:6b:23:
                    d2:e1:e3:87:ff:d5:0f:81:c9:01:2b:8f:a1:89:73:
                    62:8c:f5:12:5c:ca:7d:81:43:a0:a0:fa:a6:4c:bb:
                    3e:2f:90:fa:cd:74:25:77:23:d8:78:7c:00:8f:e4:
                    33:52:78:db:57:b2:19:1c:09:0f:43:22:2c:0d:03:
                    8f:e0:b1:a3:ac:4d:60:1c:9e:ec:ae:e7:d5:23:db:
                    28:24:fa:58:9e:55:fe:dd:a9:45:98:88:18:f0:88:
                    d9:97:1e:94:34:c5:9d:ac:29:88:96:05:9d:86:14:
                    c7:dd:6a:30:8e:28:2b:bd:86:a2:a8:e8:48:e4:c9:
                    a4:67:1a:47:bb:fa:46:91:7c:e5:52:81:37:a1:af:
                    a7:1d:c0:b0:37:e9:3b:d7:79:37:f7:8a:50:30:28:
                    7c:2d:78:64:d9:e9:e9:83:b1:44:41:a3:b0:4b:ae:
                    ac:b1:45:0d:a2:bd:a2:6d:13:ce:a2:fe:67:1c:a1:
                    5e:2f:7b:22:1f:76:31:e6:c5:89:ae:ee:fd:a5:77:
                    cc:86:5d:cb:51:ee:6d:eb:42:8b:a7:7a:3e:0a:4b:
                    b4:68:93
                Exponent: 65537 (0x10001)
        X509v3 extensions:
            X509v3 Basic Constraints: 
                CA:FALSE
            Netscape Comment: 
                Easy-RSA Generated Certificate
            X509v3 Subject Key Identifier: 
                57:AD:DD:D9:B8:A7:BD:A9:B5:CB:3D:90:E2:B3:E4:48:9D:C8:75:EE
            X509v3 Authority Key Identifier: 
                keyid:12:CD:60:04:D2:A0:80:9E:70:ED:C6:99:B8:7B:2C:C6:52:FD:19:A1
                DirName:/C=US/ST=OH/L=Columbus/O=VikingVPN/OU=MyOrganizationalUnit/CN=VikingVPN CA/name=EasyRSA/emailAddress=me@myhost.mydomain
                serial:CF:35:85:EE:80:BF:2A:3E

            X509v3 Extended Key Usage: 
                TLS Web Client Authentication
            X509v3 Key Usage: 
                Digital Signature
    Signature Algorithm: md5WithRSAEncryption
         7f:49:e9:ed:b9:86:c4:5b:b6:da:da:38:4d:c7:49:57:2a:e6:
         73:dc:0a:25:81:3b:a6:28:bc:8a:8d:a9:6e:ae:01:db:18:7d:
         2d:f2:62:6a:29:cf:4b:4c:66:0e:75:e6:f6:e0:e1:30:54:19:
         84:cd:05:c1:77:df:b0:e4:ef:87:49:21:25:4c:20:9b:7f:5e:
         d3:3f:53:b6:66:f7:d9:a0:4c:2a:97:d8:ed:05:5f:ba:22:58:
         f6:f6:3b:b3:8e:10:bc:bf:4e:23:ae:b2:e0:f1:7d:b7:78:75:
         6d:10:9a:3a:79:66:ef:ed:80:a0:fa:e0:9a:8d:22:17:28:93:
         e8:37:5a:d8:9f:67:c7:c7:a2:4a:3d:84:26:99:fb:20:b1:9c:
         be:68:9a:9d:7e:17:bf:db:39:a2:69:37:c4:e6:d4:75:a4:b2:
         6c:70:96:ca:1c:91:71:4c:ee:d2:5e:8d:4d:15:e1:e9:a8:01:
         50:4f:5e:e6:d5:73:bb:48:7e:0e:dd:96:db:78:9d:34:c7:95:
         03:d5:da:83:2b:8e:bd:72:59:ad:da:97:d4:3e:12:a0:86:7c:
         e3:a6:9f:d2:d0:c7:ba:89:f4:37:5d:64:50:67:f5:16:1a:62:
         b4:d2:e2:51:0c:ec:ff:1d:07:9b:b9:75:a0:78:6d:58:be:df:
         f4:09:8b:8c:7b:48:f5:ec:12:67:16:d5:2b:2d:9e:bd:41:4a:
         46:e5:9c:4a:19:4f:ee:3f:dd:1f:b3:ef:5b:be:26:30:ea:14:
         20:02:ec:0b:a8:c0:ab:ce:37:5e:71:24:27:94:94:72:77:f6:
         bb:08:7c:1e:7a:64:41:c9:78:13:9d:ad:54:04:c3:02:e2:10:
         0e:1f:d2:0c:00:01:e9:6f:a2:a0:33:d1:e6:b7:89:4f:17:26:
         80:98:56:15:cb:fe:47:aa:70:a5:50:e7:a6:ad:6d:66:d7:08:
         04:ec:4c:67:d6:39:88:82:47:ef:c2:bd:c0:94:7c:c8:b4:19:
         26:88:f9:ae:31:c0:6f:48:c3:06:c1:f2:75:d3:7a:5d:a0:b7:
         3b:7c:44:fc:dd:51:56:5b:e6:7c:14:70:94:97:f8:c8:d6:26:
         24:39:80:a7:80:c1:52:21:a1:ec:62:ec:e5:fd:a8:b1:cf:04:
         58:fa:26:af:0f:ef:f9:a3:11:dd:eb:1c:eb:a4:76:ac:bc:13:
         bf:b4:c1:d8:19:d5:29:ce:22:70:f2:99:95:dc:52:58:2e:34:
         22:8c:09:f6:cf:79:d5:02:85:c2:73:e0:6d:b3:e8:26:78:aa:
         40:43:4a:b0:7f:63:39:7b:aa:e6:1c:3c:93:d1:ec:15:04:d8:
         6a:c8:d8:80:53:59:2f:2d
-----BEGIN CERTIFICATE-----
MIIGrDCCBJSgAwIBAgICA1owDQYJKoZIhvcNAQEEBQAwgawxCzAJBgNVBAYTAlVT
MQswCQYDVQQIEwJPSDERMA8GA1UEBxMIQ29sdW1idXMxEjAQBgNVBAoTCVZpa2lu
Z1ZQTjEdMBsGA1UECxMUTXlPcmdhbml6YXRpb25hbFVuaXQxFTATBgNVBAMTDFZp
a2luZ1ZQTiBDQTEQMA4GA1UEKRMHRWFzeVJTQTEhMB8GCSqGSIb3DQEJARYSbWVA
bXlob3N0Lm15ZG9tYWluMB4XDTE0MDEyOTE2MzczNloXDTI0MDEyNzE2MzczNlow
HjEcMBoGA1UEAxMTQ2xpZW50MzM4Q2VydDNmMTdhYTCCAiIwDQYJKoZIhvcNAQEB
BQADggIPADCCAgoCggIBANIQBU16lgoyfcku3NJdifud3t33DObKKv1K00ANEvAB
YVIIYupf4uI8GwX8g1P6ITfeSpFD1xCEKKEe5QxQak4tjN95XI+zYqL7aHoxSkV4
lsldtQ6wUV2eNwF4k+jLQsz/UVLJVvdK5+Kesssq8C3AqA/DBTMxm5xsgKtRqpRy
KfUsmqdvc8YEKr11uJfL4JTQtANIAcsiNXkxL3XzUG8fDWUvU7DGhr5sr3xwIAVi
IHkt5zVHzAoiFzZQF/tm3zmkNkXqZ+TY9m3XtKoStl4asqw20MJFF+VmUb9MZY5d
V3AzQOWWs4mxlj7bscOUfXZ/E4JufUSv4Cmcum6qssOHh09gDKXQbDwR0yIW4pZl
O3ahN8F8PEy1l0sqG8bX4yAQBta0gAk8Fmsj0uHjh//VD4HJASuPoYlzYoz1ElzK
fYFDoKD6pky7Pi+Q+s10JXcj2Hh8AI/kM1J421eyGRwJD0MiLA0Dj+Cxo6xNYBye
7K7n1SPbKCT6WJ5V/t2pRZiIGPCI2ZcelDTFnawpiJYFnYYUx91qMI4oK72Goqjo
SOTJpGcaR7v6RpF85VKBN6Gvpx3AsDfpO9d5N/eKUDAofC14ZNnp6YOxREGjsEuu
rLFFDaK9om0TzqL+ZxyhXi97Ih92MebFia7u/aV3zIZdy1HubetCi6d6PgpLtGiT
AgMBAAGjggFjMIIBXzAJBgNVHRMEAjAAMC0GCWCGSAGG+EIBDQQgFh5FYXN5LVJT
QSBHZW5lcmF0ZWQgQ2VydGlmaWNhdGUwHQYDVR0OBBYEFFet3dm4p72ptcs9kOKz
5EidyHXuMIHhBgNVHSMEgdkwgdaAFBLNYATSoICecO3Gmbh7LMZS/RmhoYGypIGv
MIGsMQswCQYDVQQGEwJVUzELMAkGA1UECBMCT0gxETAPBgNVBAcTCENvbHVtYnVz
MRIwEAYDVQQKEwlWaWtpbmdWUE4xHTAbBgNVBAsTFE15T3JnYW5pemF0aW9uYWxV
bml0MRUwEwYDVQQDEwxWaWtpbmdWUE4gQ0ExEDAOBgNVBCkTB0Vhc3lSU0ExITAf
BgkqhkiG9w0BCQEWEm1lQG15aG9zdC5teWRvbWFpboIJAM81he6Avyo+MBMGA1Ud
JQQMMAoGCCsGAQUFBwMCMAsGA1UdDwQEAwIHgDANBgkqhkiG9w0BAQQFAAOCAgEA
f0np7bmGxFu22to4TcdJVyrmc9wKJYE7pii8io2pbq4B2xh9LfJiainPS0xmDnXm
9uDhMFQZhM0FwXffsOTvh0khJUwgm39e0z9Ttmb32aBMKpfY7QVfuiJY9vY7s44Q
vL9OI66y4PF9t3h1bRCaOnlm7+2AoPrgmo0iFyiT6Dda2J9nx8eiSj2EJpn7ILGc
vmianX4Xv9s5omk3xObUdaSybHCWyhyRcUzu0l6NTRXh6agBUE9e5tVzu0h+Dt2W
23idNMeVA9XagyuOvXJZrdqX1D4SoIZ846af0tDHuon0N11kUGf1FhpitNLiUQzs
/x0Hm7l1oHhtWL7f9AmLjHtI9ewSZxbVKy2evUFKRuWcShlP7j/dH7PvW74mMOoU
IALsC6jAq843XnEkJ5SUcnf2uwh8HnpkQcl4E52tVATDAuIQDh/SDAAB6W+ioDPR
5reJTxcmgJhWFcv+R6pwpVDnpq1tZtcIBOxMZ9Y5iIJH78K9wJR8yLQZJoj5rjHA
b0jDBsHyddN6XaC3O3xE/N1RVlvmfBRwlJf4yNYmJDmAp4DBUiGh7GLs5f2osc8E
WPomrw/v+aMR3esc66R2rLwTv7TB2BnVKc4icPKZldxSWC40IowJ9s951QKFwnPg
bbPoJniqQENKsH9jOXuq5hw8k9HsFQTYasjYgFNZLy0=
-----END CERTIFICATE-----
