Certificate:
    Data:
        Version: 3 (0x2)
        Serial Number: 861 (0x35d)
    Signature Algorithm: md5WithRSAEncryption
        Issuer: C=US, ST=OH, L=Columbus, O=VikingVPN, OU=MyOrganizationalUnit, CN=VikingVPN CA/name=EasyRSA/emailAddress=me@myhost.mydomain
        Validity
            Not Before: Jan 29 16:40:41 2014 GMT
            Not After : Jan 27 16:40:41 2024 GMT
        Subject: CN=Client338Cert6577e6
        Subject Public Key Info:
            Public Key Algorithm: rsaEncryption
                Public-Key: (4096 bit)
                Modulus:
                    00:d7:29:17:e6:3a:95:6b:b3:52:14:87:b5:9e:13:
                    4e:80:ec:89:e3:28:92:6f:9d:a0:5d:5a:2c:33:ed:
                    ab:6e:0a:7e:b0:1d:96:80:b7:62:7d:7c:ff:89:18:
                    9d:9c:f4:e9:a9:c7:b1:a7:20:5f:79:40:2e:09:b1:
                    f6:8e:77:3e:10:8c:90:f1:fd:da:55:bd:1d:0a:c7:
                    f7:8d:fb:cd:e5:6d:a1:32:f2:ad:5a:2d:46:68:79:
                    96:51:aa:43:29:92:3a:e4:e1:58:f8:ba:c8:33:a5:
                    04:e5:0e:54:76:7d:6a:02:7b:4c:05:66:1e:55:0b:
                    41:9b:16:7a:a0:14:34:55:ac:f3:16:96:fd:70:50:
                    d9:69:84:f8:8b:14:46:ba:9f:17:20:96:fb:f0:67:
                    80:ef:bc:30:66:2d:fa:74:19:6e:62:58:59:bc:e8:
                    62:cf:23:e8:4d:48:cd:f6:3b:e9:18:83:cb:fb:f8:
                    91:4b:aa:5e:4e:08:a1:33:c2:07:90:19:fd:10:01:
                    a8:8d:f9:ec:54:1c:85:78:dc:83:8b:7a:de:0e:76:
                    9b:6e:96:d9:9d:46:62:3c:c8:97:ff:ed:f2:4f:d3:
                    a9:3f:82:df:5a:43:06:bc:67:08:bc:7a:46:1a:12:
                    bc:9f:ba:8f:e0:ec:4a:bb:2a:de:68:38:c8:e6:03:
                    ae:1e:e3:65:dc:2a:69:15:a2:b6:da:8b:c5:b2:e1:
                    22:29:bb:37:df:ee:3d:4d:af:7f:f1:4c:18:9e:50:
                    61:b1:41:6d:51:27:05:b4:78:52:5d:a4:3c:cf:9d:
                    67:80:43:6a:bc:0d:f9:74:40:6a:c8:6f:8f:6d:98:
                    e4:27:86:2b:17:d2:1d:3c:a6:9c:0b:17:6e:4a:5b:
                    23:82:8d:32:13:8d:de:6f:1d:e1:b7:74:64:97:a3:
                    04:cd:c5:3e:87:dd:2c:22:40:e3:74:78:d3:4d:66:
                    a4:95:1e:1d:c8:17:07:8c:7a:bb:ac:ba:ac:04:91:
                    da:3b:d6:bf:0c:b6:a4:32:9d:b4:72:66:1c:17:6e:
                    1a:de:e0:c1:e0:7c:49:92:1b:6d:00:72:30:6f:e8:
                    32:df:dd:c2:2d:fa:0c:d4:f2:db:6b:fa:9b:a3:ee:
                    21:bc:51:ec:0d:ea:03:ef:fb:a2:bf:d2:46:95:d9:
                    93:61:48:8e:ea:77:31:78:ef:1f:9f:7c:7d:ec:cf:
                    d0:71:8d:6f:37:f7:8d:4a:54:27:9a:c1:ef:e4:82:
                    ea:68:5d:48:52:5c:c9:a4:b1:a0:4b:d4:b8:9a:b4:
                    c5:ac:84:bb:f5:7d:6f:e7:2d:82:fc:d0:01:d5:ba:
                    ff:2b:16:e8:86:14:6b:52:b7:b8:a6:a8:63:3c:0f:
                    b7:1b:f3
                Exponent: 65537 (0x10001)
        X509v3 extensions:
            X509v3 Basic Constraints: 
                CA:FALSE
            Netscape Comment: 
                Easy-RSA Generated Certificate
            X509v3 Subject Key Identifier: 
                20:F8:8B:65:E7:41:D5:6D:98:15:1E:0F:6F:40:13:49:23:D1:F5:05
            X509v3 Authority Key Identifier: 
                keyid:12:CD:60:04:D2:A0:80:9E:70:ED:C6:99:B8:7B:2C:C6:52:FD:19:A1
                DirName:/C=US/ST=OH/L=Columbus/O=VikingVPN/OU=MyOrganizationalUnit/CN=VikingVPN CA/name=EasyRSA/emailAddress=me@myhost.mydomain
                serial:CF:35:85:EE:80:BF:2A:3E

            X509v3 Extended Key Usage: 
                TLS Web Client Authentication
            X509v3 Key Usage: 
                Digital Signature
    Signature Algorithm: md5WithRSAEncryption
         49:b5:d3:a0:68:05:fb:39:f1:40:10:da:70:70:3b:6a:5b:9c:
         16:a1:3a:dc:cc:26:89:dd:25:c2:e5:fc:8b:53:7c:c8:eb:22:
         6c:50:f5:6f:c0:b4:09:e4:f3:71:67:38:13:5c:24:c6:3f:0e:
         69:66:0d:57:5c:9b:a6:78:85:48:40:cc:4b:bb:60:01:ae:8b:
         06:2b:c7:81:82:9b:b0:7b:a7:f7:c9:93:22:81:af:80:6b:d9:
         e0:0c:83:4a:3a:82:2b:46:66:37:c9:5e:01:12:c4:0d:15:fb:
         63:df:9f:8d:43:ee:85:c8:f8:8f:22:24:e6:d7:d0:39:36:e4:
         dd:3e:25:5e:fe:25:8e:6d:00:a4:1c:03:99:05:4f:92:4f:4b:
         e7:aa:91:4d:f6:41:f2:b1:e4:59:36:a1:0c:dc:e7:6f:ae:72:
         d1:68:55:e7:a0:e8:cd:1b:d8:8f:7b:5f:b8:77:91:16:6a:0a:
         da:5d:ff:f4:45:9b:b7:97:b3:2c:2a:06:5a:f2:25:0d:81:6d:
         78:f9:3f:50:6e:bd:26:1d:6a:21:e7:4f:ab:06:e4:0c:bc:97:
         0b:25:73:a2:76:1e:7c:c7:fe:6c:88:54:ab:4e:3f:12:55:58:
         f3:a6:44:be:84:e1:9e:86:2f:ba:a3:7e:06:c6:81:6e:dc:f5:
         aa:59:05:8e:82:6f:10:a0:ba:f4:c1:0f:76:79:7b:f4:4e:ec:
         70:9b:0c:be:14:c4:34:6b:99:6c:f1:43:c5:63:d2:10:9d:61:
         2f:3a:f4:19:82:f6:f1:b3:d2:21:29:33:e9:92:12:1d:7a:77:
         7a:49:ce:8f:55:03:b8:0a:f8:6b:57:5f:8e:18:7e:7f:c2:fe:
         36:e2:a7:f0:77:a9:96:b7:9c:3a:0a:4e:1d:6b:05:75:33:3f:
         5c:ca:f4:4b:84:44:4b:25:59:35:d2:5a:b3:23:bb:5f:5a:92:
         8c:e2:b8:6b:13:e1:1d:77:d6:df:9d:79:6c:a2:20:33:91:41:
         85:15:de:11:c3:43:ac:19:09:80:9a:a5:aa:45:55:c3:a5:bd:
         bc:f4:9f:84:7b:69:eb:7b:26:1b:b8:e8:4a:69:82:2d:da:56:
         99:b9:7d:75:2a:6d:5b:6f:56:e5:88:cd:a0:49:17:0d:b5:47:
         7e:0f:0a:eb:7e:52:7d:b1:52:75:ea:ef:c0:ae:0e:b2:96:9a:
         7c:82:17:b0:a4:83:a9:47:08:5c:52:a7:ff:ae:61:d7:44:7b:
         46:63:6d:7c:5e:64:ba:52:2b:0f:ce:3e:88:71:85:eb:15:95:
         06:83:30:da:bd:c9:03:62:38:39:4f:75:4c:e0:c6:18:39:2e:
         33:86:94:d4:29:b0:8a:98
-----BEGIN CERTIFICATE-----
MIIGrDCCBJSgAwIBAgICA10wDQYJKoZIhvcNAQEEBQAwgawxCzAJBgNVBAYTAlVT
MQswCQYDVQQIEwJPSDERMA8GA1UEBxMIQ29sdW1idXMxEjAQBgNVBAoTCVZpa2lu
Z1ZQTjEdMBsGA1UECxMUTXlPcmdhbml6YXRpb25hbFVuaXQxFTATBgNVBAMTDFZp
a2luZ1ZQTiBDQTEQMA4GA1UEKRMHRWFzeVJTQTEhMB8GCSqGSIb3DQEJARYSbWVA
bXlob3N0Lm15ZG9tYWluMB4XDTE0MDEyOTE2NDA0MVoXDTI0MDEyNzE2NDA0MVow
HjEcMBoGA1UEAxMTQ2xpZW50MzM4Q2VydDY1NzdlNjCCAiIwDQYJKoZIhvcNAQEB
BQADggIPADCCAgoCggIBANcpF+Y6lWuzUhSHtZ4TToDsieMokm+doF1aLDPtq24K
frAdloC3Yn18/4kYnZz06anHsacgX3lALgmx9o53PhCMkPH92lW9HQrH9437zeVt
oTLyrVotRmh5llGqQymSOuThWPi6yDOlBOUOVHZ9agJ7TAVmHlULQZsWeqAUNFWs
8xaW/XBQ2WmE+IsURrqfFyCW+/BngO+8MGYt+nQZbmJYWbzoYs8j6E1IzfY76RiD
y/v4kUuqXk4IoTPCB5AZ/RABqI357FQchXjcg4t63g52m26W2Z1GYjzIl//t8k/T
qT+C31pDBrxnCLx6RhoSvJ+6j+DsSrsq3mg4yOYDrh7jZdwqaRWittqLxbLhIim7
N9/uPU2vf/FMGJ5QYbFBbVEnBbR4Ul2kPM+dZ4BDarwN+XRAashvj22Y5CeGKxfS
HTymnAsXbkpbI4KNMhON3m8d4bd0ZJejBM3FPofdLCJA43R4001mpJUeHcgXB4x6
u6y6rASR2jvWvwy2pDKdtHJmHBduGt7gweB8SZIbbQByMG/oMt/dwi36DNTy22v6
m6PuIbxR7A3qA+/7or/SRpXZk2FIjup3MXjvH598fezP0HGNbzf3jUpUJ5rB7+SC
6mhdSFJcyaSxoEvUuJq0xayEu/V9b+ctgvzQAdW6/ysW6IYUa1K3uKaoYzwPtxvz
AgMBAAGjggFjMIIBXzAJBgNVHRMEAjAAMC0GCWCGSAGG+EIBDQQgFh5FYXN5LVJT
QSBHZW5lcmF0ZWQgQ2VydGlmaWNhdGUwHQYDVR0OBBYEFCD4i2XnQdVtmBUeD29A
E0kj0fUFMIHhBgNVHSMEgdkwgdaAFBLNYATSoICecO3Gmbh7LMZS/RmhoYGypIGv
MIGsMQswCQYDVQQGEwJVUzELMAkGA1UECBMCT0gxETAPBgNVBAcTCENvbHVtYnVz
MRIwEAYDVQQKEwlWaWtpbmdWUE4xHTAbBgNVBAsTFE15T3JnYW5pemF0aW9uYWxV
bml0MRUwEwYDVQQDEwxWaWtpbmdWUE4gQ0ExEDAOBgNVBCkTB0Vhc3lSU0ExITAf
BgkqhkiG9w0BCQEWEm1lQG15aG9zdC5teWRvbWFpboIJAM81he6Avyo+MBMGA1Ud
JQQMMAoGCCsGAQUFBwMCMAsGA1UdDwQEAwIHgDANBgkqhkiG9w0BAQQFAAOCAgEA
SbXToGgF+znxQBDacHA7alucFqE63Mwmid0lwuX8i1N8yOsibFD1b8C0CeTzcWc4
E1wkxj8OaWYNV1ybpniFSEDMS7tgAa6LBivHgYKbsHun98mTIoGvgGvZ4AyDSjqC
K0ZmN8leARLEDRX7Y9+fjUPuhcj4jyIk5tfQOTbk3T4lXv4ljm0ApBwDmQVPkk9L
56qRTfZB8rHkWTahDNznb65y0WhV56DozRvYj3tfuHeRFmoK2l3/9EWbt5ezLCoG
WvIlDYFtePk/UG69Jh1qIedPqwbkDLyXCyVzonYefMf+bIhUq04/ElVY86ZEvoTh
noYvuqN+BsaBbtz1qlkFjoJvEKC69MEPdnl79E7scJsMvhTENGuZbPFDxWPSEJ1h
Lzr0GYL28bPSISkz6ZISHXp3eknOj1UDuAr4a1dfjhh+f8L+NuKn8HeplrecOgpO
HWsFdTM/XMr0S4RESyVZNdJasyO7X1qSjOK4axPhHXfW3515bKIgM5FBhRXeEcND
rBkJgJqlqkVVw6W9vPSfhHtp63smG7joSmmCLdpWmbl9dSptW29W5YjNoEkXDbVH
fg8K635SfbFSdervwK4OspaafIIXsKSDqUcIXFKn/65h10R7RmNtfF5kulIrD84+
iHGF6xWVBoMw2r3JA2I4OU91TODGGDkuM4aU1Cmwipg=
-----END CERTIFICATE-----
