Certificate:
    Data:
        Version: 3 (0x2)
        Serial Number: 868 (0x364)
    Signature Algorithm: md5WithRSAEncryption
        Issuer: C=US, ST=OH, L=Columbus, O=VikingVPN, OU=MyOrganizationalUnit, CN=VikingVPN CA/name=EasyRSA/emailAddress=me@myhost.mydomain
        Validity
            Not Before: Jan 29 17:32:23 2014 GMT
            Not After : Jan 27 17:32:23 2024 GMT
        Subject: CN=Client339Cert3af6df
        Subject Public Key Info:
            Public Key Algorithm: rsaEncryption
                Public-Key: (4096 bit)
                Modulus:
                    00:9b:2d:b1:e0:be:af:4c:d7:20:13:07:00:a8:c7:
                    90:9b:9c:a0:aa:b0:bc:fe:ca:c8:fd:6d:12:32:7a:
                    83:a0:87:ef:4e:31:b1:49:e6:7d:2c:a5:28:f4:79:
                    28:aa:8c:23:42:71:52:61:2c:e7:10:32:09:7d:30:
                    a9:95:e6:47:11:e1:90:96:a3:32:bd:a1:72:62:b2:
                    e9:33:c6:7f:f4:eb:c7:71:b2:7d:d4:d9:74:c5:11:
                    0c:a3:41:d2:9e:f8:85:6f:73:17:08:b9:11:cd:23:
                    55:08:69:e5:b7:14:f4:92:fb:60:c9:24:02:6a:21:
                    e1:a6:7f:dd:ab:d5:d8:d8:05:cc:36:90:b6:99:89:
                    d6:36:19:03:c2:ff:d9:b4:59:1c:e4:21:13:c6:86:
                    27:7c:ae:ea:08:4d:fe:fc:63:47:fa:da:c1:68:11:
                    ae:47:2a:0b:35:2b:c3:79:1f:79:d7:1f:65:9b:00:
                    2f:a5:48:99:5d:16:f3:e6:20:dd:c4:b0:2c:25:71:
                    7a:56:1c:46:35:94:e9:d2:5a:4b:51:a7:0e:62:9e:
                    6f:c6:80:29:16:de:da:0d:05:d0:8a:41:a7:0f:7e:
                    99:5a:d9:18:56:fb:0d:bd:94:c7:35:d3:f5:47:a8:
                    9c:4b:86:da:de:ff:40:61:ca:6c:95:14:11:c5:bf:
                    70:f2:c1:2b:f1:f8:f8:c5:7f:31:20:3d:7d:b5:8e:
                    4c:d8:fa:e5:91:8a:00:1d:93:2b:fd:04:53:ce:57:
                    5d:ee:db:8f:3b:ff:05:fa:a9:89:3f:8f:41:4b:c8:
                    9a:ae:4c:95:7b:94:b3:8d:87:09:cc:21:2f:44:14:
                    e7:a5:53:db:67:40:f6:cc:bc:0a:af:24:21:08:1f:
                    f9:54:e4:3a:f4:4d:7c:9e:fc:be:2e:94:7a:94:ff:
                    65:65:72:8b:fb:11:9a:a0:3b:88:bc:0d:4c:75:6f:
                    1c:57:d6:52:66:24:f3:43:64:25:46:a9:f2:c1:bf:
                    f6:fb:82:19:ce:b9:b8:dd:a1:63:a9:d7:4c:b3:a9:
                    21:29:48:e7:8f:08:9b:a7:2a:1d:73:85:bf:0d:17:
                    b8:4f:f6:09:b6:d2:d9:57:b7:ba:53:27:85:fc:5a:
                    22:06:61:ad:13:2b:29:8d:8b:f3:f6:e5:28:92:03:
                    4a:1c:56:58:c6:1b:de:0f:30:39:5c:90:85:92:4e:
                    66:20:25:83:52:8a:55:ac:8f:08:5e:38:95:0d:6d:
                    61:c0:81:e1:47:25:1f:35:f0:ce:be:61:dc:94:44:
                    9e:7c:4a:46:c8:18:35:72:0f:32:43:b0:63:c4:fe:
                    cf:c3:bd:44:06:ef:61:22:25:fa:5e:76:01:f1:50:
                    7e:f6:0b
                Exponent: 65537 (0x10001)
        X509v3 extensions:
            X509v3 Basic Constraints: 
                CA:FALSE
            Netscape Comment: 
                Easy-RSA Generated Certificate
            X509v3 Subject Key Identifier: 
                6B:F6:0D:F6:93:46:C0:A1:CA:2C:B8:EC:05:AA:EE:75:9A:D4:E4:99
            X509v3 Authority Key Identifier: 
                keyid:12:CD:60:04:D2:A0:80:9E:70:ED:C6:99:B8:7B:2C:C6:52:FD:19:A1
                DirName:/C=US/ST=OH/L=Columbus/O=VikingVPN/OU=MyOrganizationalUnit/CN=VikingVPN CA/name=EasyRSA/emailAddress=me@myhost.mydomain
                serial:CF:35:85:EE:80:BF:2A:3E

            X509v3 Extended Key Usage: 
                TLS Web Client Authentication
            X509v3 Key Usage: 
                Digital Signature
    Signature Algorithm: md5WithRSAEncryption
         04:ce:5e:28:dc:c7:53:7e:12:ed:d9:0f:a4:3e:0a:02:7b:9f:
         11:9f:1a:be:11:17:98:74:7d:8b:ab:96:b1:df:0a:c0:4b:c4:
         81:50:c5:07:7a:8a:d1:7e:e2:c7:3b:81:eb:e8:ae:c0:c1:49:
         69:6d:0b:0d:a8:76:dc:d3:a8:00:84:c1:f4:3c:e4:46:3a:31:
         9e:3d:7c:ff:34:3c:e2:33:79:8f:06:66:2e:18:a7:18:04:40:
         ba:3d:20:3f:ae:06:23:d1:37:7f:c2:57:f0:3d:7d:a6:d0:ac:
         d8:ae:7d:f8:a5:bd:f7:f6:16:56:c6:c8:85:94:a2:b0:09:4b:
         3e:f6:78:8e:bc:83:fa:c4:f4:ed:a2:b0:1d:50:f7:47:22:a1:
         04:30:31:f5:13:5c:cb:45:44:92:ab:e3:82:2f:32:95:b1:77:
         de:94:51:c2:c2:8b:2f:97:08:59:36:53:55:d8:8b:cc:ac:0d:
         7c:df:17:39:c3:f7:11:50:69:04:31:55:2c:fb:38:30:58:e8:
         fa:f4:be:58:2e:c6:dd:09:1f:91:3b:25:e5:5b:ab:25:b4:79:
         0e:65:55:34:55:cc:5c:75:48:ef:d2:a2:4c:2b:dd:80:4e:a8:
         9c:00:3b:51:cc:05:c8:65:eb:c3:fe:d0:d9:7a:10:a2:8a:9c:
         7a:9a:b3:e6:1e:0c:2d:f8:45:26:93:e4:aa:95:ef:f2:da:e2:
         24:66:34:fc:65:e7:a2:a0:d9:26:06:31:6a:52:b9:fd:81:9b:
         ab:69:8b:06:63:43:ec:5c:79:19:a3:01:78:52:45:36:bd:91:
         cf:f2:1d:dd:9b:61:cc:42:72:f0:e5:35:5a:78:ec:27:4a:cb:
         7f:7a:73:5e:6c:ea:86:ce:67:9d:c5:88:ae:7c:5b:15:66:b4:
         48:2b:0e:f4:a3:cd:be:b9:85:6c:94:67:50:c1:c3:7d:58:7d:
         61:0d:2c:d4:f8:4e:31:31:6e:e3:d4:ed:c7:31:dc:8b:7c:91:
         ac:bc:ca:1e:27:9e:9d:51:ec:f0:c9:d2:da:fa:73:75:a6:94:
         09:66:7f:f6:a7:6c:78:3f:51:ad:87:18:a2:a7:05:88:af:94:
         08:ae:69:99:49:f0:43:28:8b:7c:23:93:ae:b7:f1:a2:b8:e0:
         a6:e5:7c:bc:c1:89:20:36:d7:b5:a1:2f:95:95:74:ec:cf:b4:
         9b:33:b5:4f:10:e0:06:fe:e1:d7:ef:7e:23:b3:3a:4f:d8:c1:
         c7:0d:3e:08:09:bf:2f:ef:e1:ee:e3:e0:c7:01:79:23:a5:74:
         ff:7e:b0:1e:f1:9f:36:33:fa:9d:df:b7:51:35:a5:db:bc:1a:
         01:ee:54:86:76:3b:69:dc
-----BEGIN CERTIFICATE-----
MIIGrDCCBJSgAwIBAgICA2QwDQYJKoZIhvcNAQEEBQAwgawxCzAJBgNVBAYTAlVT
MQswCQYDVQQIEwJPSDERMA8GA1UEBxMIQ29sdW1idXMxEjAQBgNVBAoTCVZpa2lu
Z1ZQTjEdMBsGA1UECxMUTXlPcmdhbml6YXRpb25hbFVuaXQxFTATBgNVBAMTDFZp
a2luZ1ZQTiBDQTEQMA4GA1UEKRMHRWFzeVJTQTEhMB8GCSqGSIb3DQEJARYSbWVA
bXlob3N0Lm15ZG9tYWluMB4XDTE0MDEyOTE3MzIyM1oXDTI0MDEyNzE3MzIyM1ow
HjEcMBoGA1UEAxMTQ2xpZW50MzM5Q2VydDNhZjZkZjCCAiIwDQYJKoZIhvcNAQEB
BQADggIPADCCAgoCggIBAJstseC+r0zXIBMHAKjHkJucoKqwvP7KyP1tEjJ6g6CH
704xsUnmfSylKPR5KKqMI0JxUmEs5xAyCX0wqZXmRxHhkJajMr2hcmKy6TPGf/Tr
x3GyfdTZdMURDKNB0p74hW9zFwi5Ec0jVQhp5bcU9JL7YMkkAmoh4aZ/3avV2NgF
zDaQtpmJ1jYZA8L/2bRZHOQhE8aGJ3yu6ghN/vxjR/rawWgRrkcqCzUrw3kfedcf
ZZsAL6VImV0W8+Yg3cSwLCVxelYcRjWU6dJaS1GnDmKeb8aAKRbe2g0F0IpBpw9+
mVrZGFb7Db2UxzXT9UeonEuG2t7/QGHKbJUUEcW/cPLBK/H4+MV/MSA9fbWOTNj6
5ZGKAB2TK/0EU85XXe7bjzv/BfqpiT+PQUvImq5MlXuUs42HCcwhL0QU56VT22dA
9sy8Cq8kIQgf+VTkOvRNfJ78vi6UepT/ZWVyi/sRmqA7iLwNTHVvHFfWUmYk80Nk
JUap8sG/9vuCGc65uN2hY6nXTLOpISlI548Im6cqHXOFvw0XuE/2CbbS2Ve3ulMn
hfxaIgZhrRMrKY2L8/blKJIDShxWWMYb3g8wOVyQhZJOZiAlg1KKVayPCF44lQ1t
YcCB4UclHzXwzr5h3JREnnxKRsgYNXIPMkOwY8T+z8O9RAbvYSIl+l52AfFQfvYL
AgMBAAGjggFjMIIBXzAJBgNVHRMEAjAAMC0GCWCGSAGG+EIBDQQgFh5FYXN5LVJT
QSBHZW5lcmF0ZWQgQ2VydGlmaWNhdGUwHQYDVR0OBBYEFGv2DfaTRsChyiy47AWq
7nWa1OSZMIHhBgNVHSMEgdkwgdaAFBLNYATSoICecO3Gmbh7LMZS/RmhoYGypIGv
MIGsMQswCQYDVQQGEwJVUzELMAkGA1UECBMCT0gxETAPBgNVBAcTCENvbHVtYnVz
MRIwEAYDVQQKEwlWaWtpbmdWUE4xHTAbBgNVBAsTFE15T3JnYW5pemF0aW9uYWxV
bml0MRUwEwYDVQQDEwxWaWtpbmdWUE4gQ0ExEDAOBgNVBCkTB0Vhc3lSU0ExITAf
BgkqhkiG9w0BCQEWEm1lQG15aG9zdC5teWRvbWFpboIJAM81he6Avyo+MBMGA1Ud
JQQMMAoGCCsGAQUFBwMCMAsGA1UdDwQEAwIHgDANBgkqhkiG9w0BAQQFAAOCAgEA
BM5eKNzHU34S7dkPpD4KAnufEZ8avhEXmHR9i6uWsd8KwEvEgVDFB3qK0X7ixzuB
6+iuwMFJaW0LDah23NOoAITB9DzkRjoxnj18/zQ84jN5jwZmLhinGARAuj0gP64G
I9E3f8JX8D19ptCs2K59+KW99/YWVsbIhZSisAlLPvZ4jryD+sT07aKwHVD3RyKh
BDAx9RNcy0VEkqvjgi8ylbF33pRRwsKLL5cIWTZTVdiLzKwNfN8XOcP3EVBpBDFV
LPs4MFjo+vS+WC7G3QkfkTsl5VurJbR5DmVVNFXMXHVI79KiTCvdgE6onAA7UcwF
yGXrw/7Q2XoQooqcepqz5h4MLfhFJpPkqpXv8triJGY0/GXnoqDZJgYxalK5/YGb
q2mLBmND7Fx5GaMBeFJFNr2Rz/Id3ZthzEJy8OU1WnjsJ0rLf3pzXmzqhs5nncWI
rnxbFWa0SCsO9KPNvrmFbJRnUMHDfVh9YQ0s1PhOMTFu49TtxzHci3yRrLzKHiee
nVHs8MnS2vpzdaaUCWZ/9qdseD9RrYcYoqcFiK+UCK5pmUnwQyiLfCOTrrfxorjg
puV8vMGJIDbXtaEvlZV07M+0mzO1TxDgBv7h1+9+I7M6T9jBxw0+CAm/L+/h7uPg
xwF5I6V0/36wHvGfNjP6nd+3UTWl27waAe5UhnY7adw=
-----END CERTIFICATE-----
