Certificate:
    Data:
        Version: 3 (0x2)
        Serial Number: 875 (0x36b)
    Signature Algorithm: md5WithRSAEncryption
        Issuer: C=US, ST=OH, L=Columbus, O=VikingVPN, OU=MyOrganizationalUnit, CN=VikingVPN CA/name=EasyRSA/emailAddress=me@myhost.mydomain
        Validity
            Not Before: Jan 29 18:00:43 2014 GMT
            Not After : Jan 27 18:00:43 2024 GMT
        Subject: CN=Client339Cert091582
        Subject Public Key Info:
            Public Key Algorithm: rsaEncryption
                Public-Key: (4096 bit)
                Modulus:
                    00:a4:f0:63:a3:b4:49:89:e3:e4:89:c1:22:d8:eb:
                    12:f3:7e:bf:2a:67:de:0e:32:39:6d:c4:a2:92:93:
                    52:4d:f5:79:aa:1f:52:1e:90:e6:54:97:5c:b4:80:
                    b3:5d:8c:28:7b:26:e6:0a:89:46:b2:6f:bd:31:7f:
                    a0:89:3d:bb:73:61:e0:b9:de:35:70:34:ae:15:20:
                    9e:d3:97:52:8d:0b:30:15:fb:21:5b:7b:2a:e0:e3:
                    70:de:c6:25:bf:67:ee:67:b5:d6:19:7f:82:a7:30:
                    8f:14:9f:93:2a:d9:ca:c3:14:fb:5a:d4:f1:90:7c:
                    85:1c:2e:11:72:83:be:2e:0d:36:d0:15:ae:2d:cf:
                    3d:78:2a:c3:aa:bd:1e:5c:77:e6:fd:a9:d9:7f:b4:
                    79:10:c9:d1:cb:5d:83:70:cc:68:e4:bd:69:ec:87:
                    bf:9b:1d:1a:86:bb:4d:67:06:80:4a:14:65:5f:bf:
                    e5:ed:ec:c0:f7:74:9c:5d:80:32:90:c4:95:14:8e:
                    79:62:f1:21:0a:7a:bc:3d:56:21:5d:78:d3:d1:c7:
                    30:9d:2e:10:cf:e3:dc:58:b1:75:cc:5e:0d:58:cc:
                    4f:eb:e6:85:14:f8:df:dc:e2:d3:33:65:97:f2:39:
                    ef:d8:5a:f7:bc:75:c6:41:1b:33:de:f5:ed:6d:cc:
                    1c:15:e3:cc:90:19:e6:84:68:1d:63:45:69:d4:38:
                    26:14:7a:f4:24:02:b2:34:ee:ae:2a:06:0a:b8:af:
                    ae:ee:03:75:d5:39:93:43:4c:1b:f4:4b:4b:c9:6d:
                    f9:b7:94:f3:2c:ee:5f:61:11:c2:95:8c:75:ca:72:
                    9b:03:7a:8f:f4:c0:d6:cb:c0:11:5e:bb:ff:f6:ec:
                    51:3f:37:15:50:ea:34:ec:6f:d2:39:8f:be:2f:8f:
                    6c:35:c6:b4:da:a6:0c:29:d6:43:d2:7f:94:0d:7f:
                    5a:a9:3d:8a:16:b4:05:f8:76:90:b8:6d:da:58:33:
                    fc:86:62:e8:42:09:d5:56:ef:34:d3:ed:ae:cd:36:
                    57:ab:37:33:45:2d:4d:51:bc:34:18:9d:1a:b9:a8:
                    a9:0b:ff:bb:a2:41:a4:a9:2f:8f:d6:cc:d3:c7:97:
                    d7:15:ee:d7:74:4b:22:91:fb:1c:d9:7a:c9:c2:82:
                    b8:6c:30:66:fb:f9:c1:f3:da:e3:45:b9:19:11:3a:
                    57:68:11:8a:2c:25:9b:74:45:e6:8d:45:7a:0f:c6:
                    e8:5f:fb:8b:65:79:1d:ea:8c:34:3e:16:62:f6:73:
                    f8:bf:3b:a1:4f:cc:82:07:a7:94:8c:7b:97:a8:c7:
                    a6:ae:95:fb:6c:e5:0b:15:a2:67:0c:d9:44:49:4f:
                    d5:b6:73
                Exponent: 65537 (0x10001)
        X509v3 extensions:
            X509v3 Basic Constraints: 
                CA:FALSE
            Netscape Comment: 
                Easy-RSA Generated Certificate
            X509v3 Subject Key Identifier: 
                9F:F8:F6:43:CA:15:E8:5F:D5:11:56:FB:1B:88:DF:F5:16:97:A8:A4
            X509v3 Authority Key Identifier: 
                keyid:12:CD:60:04:D2:A0:80:9E:70:ED:C6:99:B8:7B:2C:C6:52:FD:19:A1
                DirName:/C=US/ST=OH/L=Columbus/O=VikingVPN/OU=MyOrganizationalUnit/CN=VikingVPN CA/name=EasyRSA/emailAddress=me@myhost.mydomain
                serial:CF:35:85:EE:80:BF:2A:3E

            X509v3 Extended Key Usage: 
                TLS Web Client Authentication
            X509v3 Key Usage: 
                Digital Signature
    Signature Algorithm: md5WithRSAEncryption
         56:34:ec:78:97:f9:63:8f:3a:e7:a1:18:e9:10:05:34:ad:3f:
         da:ce:a2:b7:c5:93:ff:c3:50:c4:de:0c:b9:74:e5:aa:33:ee:
         58:a7:0d:23:85:f0:89:68:b3:3e:db:10:49:17:f1:d8:a8:de:
         26:6a:d7:a4:7b:c7:3a:71:d8:c8:da:62:59:17:d2:55:b9:f7:
         60:64:b4:d7:88:20:50:92:36:3f:10:9a:1e:9f:24:8f:b6:7e:
         ad:74:06:28:87:6d:56:c6:65:ac:5d:9a:b6:26:09:55:c4:dd:
         77:fa:90:80:3b:25:cb:09:b9:df:30:0b:e4:f2:d8:51:7e:0a:
         78:cd:61:6b:a2:6c:17:39:db:b8:3f:29:cb:d8:83:52:ca:af:
         3a:e4:0c:8c:07:07:e5:dc:45:a2:d3:1f:7a:58:6f:59:9e:c9:
         2f:39:d8:90:76:ce:41:89:4e:be:25:d5:b2:c3:33:c0:47:29:
         cd:de:01:9f:f4:a5:e3:21:ff:70:5b:83:1d:9b:bf:4e:e4:c1:
         46:28:41:3b:c7:a5:cb:c3:e9:f2:39:74:42:ca:de:50:88:06:
         b2:8c:14:9c:41:c6:e5:91:79:ce:54:f9:78:f0:00:3c:16:0c:
         88:f9:47:a7:9f:f0:23:a3:4e:ba:02:07:4c:c0:8e:eb:48:dd:
         2c:e4:cc:21:f2:f8:9d:f0:3d:6b:c9:25:99:b8:e7:85:70:4e:
         a8:dc:1c:63:4d:ab:33:d2:90:21:0c:ef:f0:2e:2a:af:0a:25:
         63:99:0f:82:9a:58:ce:85:88:b9:7f:f4:a0:61:b0:e3:cf:0d:
         44:84:42:65:db:22:67:cc:26:f4:c1:8f:e5:91:1b:c0:9e:d7:
         ef:0b:f1:ea:de:10:51:f0:56:1a:f6:d5:40:af:25:48:61:b2:
         ee:3a:45:3a:91:11:ed:d5:03:69:fa:a6:8a:b6:db:e2:35:09:
         58:b3:b3:25:31:f9:e9:13:ae:7f:28:f4:92:16:c2:3e:f4:e8:
         f1:25:98:46:7d:1b:72:5b:69:f5:3d:81:2a:ae:20:6c:20:81:
         1f:78:27:5a:25:fd:d3:7b:07:fa:9f:9e:17:f3:14:7e:09:d7:
         4d:ce:65:32:f6:2a:3b:99:fd:bc:8f:72:78:16:61:30:b8:29:
         7c:f1:5c:cc:e8:30:02:b2:47:ac:51:58:22:58:96:c7:91:43:
         1a:06:ae:a5:13:e2:a9:97:99:66:cd:0f:08:f9:ea:ab:0f:5f:
         ff:50:cc:6a:6e:bf:9b:3d:9c:01:86:15:d9:a5:ab:24:0c:63:
         22:dd:c4:e3:0b:5f:32:67:4e:55:4a:6c:ff:2f:56:72:be:ed:
         a9:53:2b:69:68:af:98:3f
-----BEGIN CERTIFICATE-----
MIIGrDCCBJSgAwIBAgICA2swDQYJKoZIhvcNAQEEBQAwgawxCzAJBgNVBAYTAlVT
MQswCQYDVQQIEwJPSDERMA8GA1UEBxMIQ29sdW1idXMxEjAQBgNVBAoTCVZpa2lu
Z1ZQTjEdMBsGA1UECxMUTXlPcmdhbml6YXRpb25hbFVuaXQxFTATBgNVBAMTDFZp
a2luZ1ZQTiBDQTEQMA4GA1UEKRMHRWFzeVJTQTEhMB8GCSqGSIb3DQEJARYSbWVA
bXlob3N0Lm15ZG9tYWluMB4XDTE0MDEyOTE4MDA0M1oXDTI0MDEyNzE4MDA0M1ow
HjEcMBoGA1UEAxMTQ2xpZW50MzM5Q2VydDA5MTU4MjCCAiIwDQYJKoZIhvcNAQEB
BQADggIPADCCAgoCggIBAKTwY6O0SYnj5InBItjrEvN+vypn3g4yOW3EopKTUk31
eaofUh6Q5lSXXLSAs12MKHsm5gqJRrJvvTF/oIk9u3Nh4LneNXA0rhUgntOXUo0L
MBX7IVt7KuDjcN7GJb9n7me11hl/gqcwjxSfkyrZysMU+1rU8ZB8hRwuEXKDvi4N
NtAVri3PPXgqw6q9Hlx35v2p2X+0eRDJ0ctdg3DMaOS9aeyHv5sdGoa7TWcGgEoU
ZV+/5e3swPd0nF2AMpDElRSOeWLxIQp6vD1WIV1409HHMJ0uEM/j3FixdcxeDVjM
T+vmhRT439zi0zNll/I579ha97x1xkEbM9717W3MHBXjzJAZ5oRoHWNFadQ4JhR6
9CQCsjTurioGCrivru4DddU5k0NMG/RLS8lt+beU8yzuX2ERwpWMdcpymwN6j/TA
1svAEV67//bsUT83FVDqNOxv0jmPvi+PbDXGtNqmDCnWQ9J/lA1/Wqk9iha0Bfh2
kLht2lgz/IZi6EIJ1VbvNNPtrs02V6s3M0UtTVG8NBidGrmoqQv/u6JBpKkvj9bM
08eX1xXu13RLIpH7HNl6ycKCuGwwZvv5wfPa40W5GRE6V2gRiiwlm3RF5o1Feg/G
6F/7i2V5HeqMND4WYvZz+L87oU/MggenlIx7l6jHpq6V+2zlCxWiZwzZRElP1bZz
AgMBAAGjggFjMIIBXzAJBgNVHRMEAjAAMC0GCWCGSAGG+EIBDQQgFh5FYXN5LVJT
QSBHZW5lcmF0ZWQgQ2VydGlmaWNhdGUwHQYDVR0OBBYEFJ/49kPKFehf1RFW+xuI
3/UWl6ikMIHhBgNVHSMEgdkwgdaAFBLNYATSoICecO3Gmbh7LMZS/RmhoYGypIGv
MIGsMQswCQYDVQQGEwJVUzELMAkGA1UECBMCT0gxETAPBgNVBAcTCENvbHVtYnVz
MRIwEAYDVQQKEwlWaWtpbmdWUE4xHTAbBgNVBAsTFE15T3JnYW5pemF0aW9uYWxV
bml0MRUwEwYDVQQDEwxWaWtpbmdWUE4gQ0ExEDAOBgNVBCkTB0Vhc3lSU0ExITAf
BgkqhkiG9w0BCQEWEm1lQG15aG9zdC5teWRvbWFpboIJAM81he6Avyo+MBMGA1Ud
JQQMMAoGCCsGAQUFBwMCMAsGA1UdDwQEAwIHgDANBgkqhkiG9w0BAQQFAAOCAgEA
VjTseJf5Y48656EY6RAFNK0/2s6it8WT/8NQxN4MuXTlqjPuWKcNI4XwiWizPtsQ
SRfx2KjeJmrXpHvHOnHYyNpiWRfSVbn3YGS014ggUJI2PxCaHp8kj7Z+rXQGKIdt
VsZlrF2atiYJVcTdd/qQgDslywm53zAL5PLYUX4KeM1ha6JsFznbuD8py9iDUsqv
OuQMjAcH5dxFotMfelhvWZ7JLznYkHbOQYlOviXVssMzwEcpzd4Bn/Sl4yH/cFuD
HZu/TuTBRihBO8ely8Pp8jl0QsreUIgGsowUnEHG5ZF5zlT5ePAAPBYMiPlHp5/w
I6NOugIHTMCO60jdLOTMIfL4nfA9a8klmbjnhXBOqNwcY02rM9KQIQzv8C4qrwol
Y5kPgppYzoWIuX/0oGGw488NRIRCZdsiZ8wm9MGP5ZEbwJ7X7wvx6t4QUfBWGvbV
QK8lSGGy7jpFOpER7dUDafqmirbb4jUJWLOzJTH56ROufyj0khbCPvTo8SWYRn0b
cltp9T2BKq4gbCCBH3gnWiX903sH+p+eF/MUfgnXTc5lMvYqO5n9vI9yeBZhMLgp
fPFczOgwArJHrFFYIliWx5FDGgaupRPiqZeZZs0PCPnqqw9f/1DMam6/mz2cAYYV
2aWrJAxjIt3E4wtfMmdOVUps/y9Wcr7tqVMraWivmD8=
-----END CERTIFICATE-----
