Certificate:
    Data:
        Version: 3 (0x2)
        Serial Number: 893 (0x37d)
    Signature Algorithm: md5WithRSAEncryption
        Issuer: C=US, ST=OH, L=Columbus, O=VikingVPN, OU=MyOrganizationalUnit, CN=VikingVPN CA/name=EasyRSA/emailAddress=me@myhost.mydomain
        Validity
            Not Before: Jan 31 07:29:54 2014 GMT
            Not After : Jan 29 07:29:54 2024 GMT
        Subject: CN=Client3Certee8e12
        Subject Public Key Info:
            Public Key Algorithm: rsaEncryption
                Public-Key: (4096 bit)
                Modulus:
                    00:ae:b1:b7:70:9a:0e:73:d1:c2:62:8a:c9:8c:1f:
                    5a:93:88:b6:de:e4:0c:c0:4f:03:5b:6f:4b:de:26:
                    3c:f0:86:73:66:01:01:d6:77:62:bc:dc:85:cc:18:
                    56:d9:c5:d7:16:2d:1f:4c:c1:c2:08:fe:2d:c0:6e:
                    a6:21:21:9c:09:a6:56:04:cc:ea:64:b2:c3:15:21:
                    d7:00:07:62:a6:cf:e4:65:b3:a8:da:ae:50:94:70:
                    d5:de:22:73:73:2b:44:e2:36:5b:96:ca:3c:d0:51:
                    a7:93:89:ac:74:48:d8:00:9f:ca:6b:a1:ef:1a:b0:
                    71:52:82:5e:49:b0:9b:98:05:d2:c2:9d:f8:ea:d8:
                    30:92:9f:8e:07:64:b2:a7:d5:49:fc:a5:ed:65:38:
                    54:b3:e5:6d:03:b9:43:c3:6e:e3:9c:5c:f7:12:42:
                    1c:d7:d3:b7:10:20:21:9f:7f:7d:62:cf:4f:7d:78:
                    1d:64:60:be:6b:ae:6e:c1:29:57:dc:b5:64:6c:df:
                    c9:7d:db:d5:b2:40:04:d8:7d:70:54:50:47:02:85:
                    61:af:43:a3:39:53:d4:b4:94:31:48:ac:f2:6b:ca:
                    02:d1:1c:79:ba:5a:2c:49:6e:17:2f:31:f3:52:e3:
                    ac:0a:03:47:6c:d6:e8:e7:5e:35:18:55:7f:e5:db:
                    21:28:12:9f:a6:66:4b:13:e6:37:96:ed:0a:27:57:
                    4a:e0:b8:a2:21:c5:55:e0:08:dc:28:f0:4d:5f:7a:
                    81:86:6d:3d:97:cd:9c:64:2b:5f:c0:cb:43:1c:20:
                    5b:7a:8d:71:e8:a6:c7:e4:88:86:8b:34:99:14:5b:
                    4d:28:5e:f6:39:0f:eb:b9:03:9e:bb:74:3e:be:92:
                    c1:31:12:e6:c8:98:cf:2b:ea:9f:2d:8e:51:e5:92:
                    8e:93:b2:42:7b:01:21:e5:8e:2d:f6:6e:ef:84:88:
                    71:e1:ea:4f:cd:70:b6:bf:90:18:2c:09:3c:04:9c:
                    39:af:1f:1a:55:11:e5:9a:08:20:d0:7f:87:7c:81:
                    2e:a1:a4:80:d5:6f:f5:0d:8d:01:7a:ac:69:2a:b9:
                    b4:5b:27:b7:cf:63:e2:49:94:1b:a5:59:96:33:3b:
                    05:3f:87:e0:f8:9b:9f:e1:bd:eb:82:45:1c:c3:82:
                    ce:84:89:99:74:0f:7e:31:8e:1f:08:08:08:71:cd:
                    84:40:40:8b:30:08:a8:d1:21:6b:15:40:bb:f1:0e:
                    0f:71:f6:8f:99:82:a9:de:40:70:f8:34:94:64:04:
                    2a:1f:fd:dc:dd:1c:69:41:e2:27:11:1a:7b:55:a4:
                    1b:ea:3f:54:42:b7:22:cc:4f:b3:45:6c:a7:ab:30:
                    dd:91:19
                Exponent: 65537 (0x10001)
        X509v3 extensions:
            X509v3 Basic Constraints: 
                CA:FALSE
            Netscape Comment: 
                Easy-RSA Generated Certificate
            X509v3 Subject Key Identifier: 
                81:05:55:31:EF:F4:17:FC:BD:20:89:63:18:08:C8:8E:08:8F:36:19
            X509v3 Authority Key Identifier: 
                keyid:12:CD:60:04:D2:A0:80:9E:70:ED:C6:99:B8:7B:2C:C6:52:FD:19:A1
                DirName:/C=US/ST=OH/L=Columbus/O=VikingVPN/OU=MyOrganizationalUnit/CN=VikingVPN CA/name=EasyRSA/emailAddress=me@myhost.mydomain
                serial:CF:35:85:EE:80:BF:2A:3E

            X509v3 Extended Key Usage: 
                TLS Web Client Authentication
            X509v3 Key Usage: 
                Digital Signature
    Signature Algorithm: md5WithRSAEncryption
         5e:f7:31:8b:f7:8b:23:cb:0c:77:c4:9d:92:fe:86:c6:cd:eb:
         8a:29:d6:55:25:ac:cc:c6:21:cc:87:69:34:e2:91:f0:91:1c:
         31:7d:3f:ff:ef:6b:d2:20:e9:c1:81:c3:58:79:b5:c0:c5:79:
         40:f6:85:cc:dc:a8:a7:16:ec:00:c5:e1:8c:be:65:7e:02:00:
         4a:45:aa:20:22:5e:05:4e:9e:8a:90:2b:ea:6b:19:36:27:ab:
         60:d8:76:bd:2f:06:83:a0:be:60:0c:dd:50:1a:78:39:2f:e1:
         1e:fc:46:82:dc:2d:4a:1e:34:df:1e:40:02:4b:8a:75:4d:46:
         a6:b2:b6:96:9d:f0:49:47:f4:a5:11:06:72:54:1d:d5:7e:9b:
         18:71:97:b8:75:ce:bf:5a:3e:a7:99:4a:be:9c:df:d7:3f:6c:
         fc:61:c1:d6:07:42:10:0c:f3:d0:cf:43:88:bb:08:13:2e:56:
         d8:ed:f3:93:53:42:20:a4:47:3c:68:ab:fc:65:ed:ed:82:a2:
         75:c3:c6:69:92:01:67:c7:69:84:b0:aa:6a:5f:8a:f4:07:eb:
         fa:f9:c5:29:84:cf:bc:01:d0:be:a3:27:72:25:b9:ac:fa:07:
         4a:c6:54:4e:75:66:fb:51:11:b3:c2:df:ee:d1:0a:d5:a9:85:
         da:24:7b:bf:7c:20:54:80:50:72:d4:3d:fb:e9:e1:67:d6:a8:
         04:62:37:65:bc:8f:28:9e:69:76:2a:b4:a5:32:dc:0a:e4:6e:
         0e:72:ad:fc:5b:65:f4:55:29:d3:7a:0e:22:b1:d7:33:1e:f9:
         f2:ab:6c:3c:97:95:24:f7:54:e3:9b:05:71:d5:81:a2:e1:42:
         d9:f8:b8:9a:96:29:01:80:dd:ed:61:bf:6c:53:e9:cf:71:e5:
         c0:68:9e:a1:15:9b:06:cc:be:8f:b0:53:b7:ce:ac:3d:45:8a:
         d2:a8:23:df:c4:0a:d7:de:9d:70:31:4b:b0:7d:64:bf:4f:9f:
         f7:0d:db:34:71:bb:6c:3a:68:24:66:c8:5f:14:51:7a:27:e8:
         55:1c:29:17:68:02:82:f9:a7:3f:3a:73:18:ad:77:92:cd:f7:
         2a:27:14:d5:38:f3:8d:87:76:5e:7d:06:1b:69:c8:21:26:19:
         2a:0e:3d:1c:1a:66:84:09:60:05:59:bc:fe:62:46:b7:c7:bb:
         10:6f:ea:84:2b:7d:33:b5:5b:0c:5b:3f:be:04:f4:8a:47:6d:
         fa:e0:72:36:9e:1e:f6:3f:a2:2e:32:09:d1:9a:6f:c3:b5:b7:
         82:96:05:3d:d6:cd:02:c9:c9:92:ec:f8:db:02:68:32:60:66:
         8c:8d:49:4e:81:5c:b8:9f
-----BEGIN CERTIFICATE-----
MIIGqjCCBJKgAwIBAgICA30wDQYJKoZIhvcNAQEEBQAwgawxCzAJBgNVBAYTAlVT
MQswCQYDVQQIEwJPSDERMA8GA1UEBxMIQ29sdW1idXMxEjAQBgNVBAoTCVZpa2lu
Z1ZQTjEdMBsGA1UECxMUTXlPcmdhbml6YXRpb25hbFVuaXQxFTATBgNVBAMTDFZp
a2luZ1ZQTiBDQTEQMA4GA1UEKRMHRWFzeVJTQTEhMB8GCSqGSIb3DQEJARYSbWVA
bXlob3N0Lm15ZG9tYWluMB4XDTE0MDEzMTA3Mjk1NFoXDTI0MDEyOTA3Mjk1NFow
HDEaMBgGA1UEAxMRQ2xpZW50M0NlcnRlZThlMTIwggIiMA0GCSqGSIb3DQEBAQUA
A4ICDwAwggIKAoICAQCusbdwmg5z0cJiismMH1qTiLbe5AzATwNbb0veJjzwhnNm
AQHWd2K83IXMGFbZxdcWLR9MwcII/i3AbqYhIZwJplYEzOpkssMVIdcAB2Kmz+Rl
s6jarlCUcNXeInNzK0TiNluWyjzQUaeTiax0SNgAn8proe8asHFSgl5JsJuYBdLC
nfjq2DCSn44HZLKn1Un8pe1lOFSz5W0DuUPDbuOcXPcSQhzX07cQICGff31iz099
eB1kYL5rrm7BKVfctWRs38l929WyQATYfXBUUEcChWGvQ6M5U9S0lDFIrPJrygLR
HHm6WixJbhcvMfNS46wKA0ds1ujnXjUYVX/l2yEoEp+mZksT5jeW7QonV0rguKIh
xVXgCNwo8E1feoGGbT2XzZxkK1/Ay0McIFt6jXHopsfkiIaLNJkUW00oXvY5D+u5
A567dD6+ksExEubImM8r6p8tjlHlko6TskJ7ASHlji32bu+EiHHh6k/NcLa/kBgs
CTwEnDmvHxpVEeWaCCDQf4d8gS6hpIDVb/UNjQF6rGkqubRbJ7fPY+JJlBulWZYz
OwU/h+D4m5/hveuCRRzDgs6EiZl0D34xjh8ICAhxzYRAQIswCKjRIWsVQLvxDg9x
9o+ZgqneQHD4NJRkBCof/dzdHGlB4icRGntVpBvqP1RCtyLMT7NFbKerMN2RGQID
AQABo4IBYzCCAV8wCQYDVR0TBAIwADAtBglghkgBhvhCAQ0EIBYeRWFzeS1SU0Eg
R2VuZXJhdGVkIENlcnRpZmljYXRlMB0GA1UdDgQWBBSBBVUx7/QX/L0giWMYCMiO
CI82GTCB4QYDVR0jBIHZMIHWgBQSzWAE0qCAnnDtxpm4eyzGUv0ZoaGBsqSBrzCB
rDELMAkGA1UEBhMCVVMxCzAJBgNVBAgTAk9IMREwDwYDVQQHEwhDb2x1bWJ1czES
MBAGA1UEChMJVmlraW5nVlBOMR0wGwYDVQQLExRNeU9yZ2FuaXphdGlvbmFsVW5p
dDEVMBMGA1UEAxMMVmlraW5nVlBOIENBMRAwDgYDVQQpEwdFYXN5UlNBMSEwHwYJ
KoZIhvcNAQkBFhJtZUBteWhvc3QubXlkb21haW6CCQDPNYXugL8qPjATBgNVHSUE
DDAKBggrBgEFBQcDAjALBgNVHQ8EBAMCB4AwDQYJKoZIhvcNAQEEBQADggIBAF73
MYv3iyPLDHfEnZL+hsbN64op1lUlrMzGIcyHaTTikfCRHDF9P//va9Ig6cGBw1h5
tcDFeUD2hczcqKcW7ADF4Yy+ZX4CAEpFqiAiXgVOnoqQK+prGTYnq2DYdr0vBoOg
vmAM3VAaeDkv4R78RoLcLUoeNN8eQAJLinVNRqaytpad8ElH9KURBnJUHdV+mxhx
l7h1zr9aPqeZSr6c39c/bPxhwdYHQhAM89DPQ4i7CBMuVtjt85NTQiCkRzxoq/xl
7e2ConXDxmmSAWfHaYSwqmpfivQH6/r5xSmEz7wB0L6jJ3Iluaz6B0rGVE51ZvtR
EbPC3+7RCtWphdoke798IFSAUHLUPfvp4WfWqARiN2W8jyieaXYqtKUy3Arkbg5y
rfxbZfRVKdN6DiKx1zMe+fKrbDyXlST3VOObBXHVgaLhQtn4uJqWKQGA3e1hv2xT
6c9x5cBonqEVmwbMvo+wU7fOrD1FitKoI9/ECtfenXAxS7B9ZL9Pn/cN2zRxu2w6
aCRmyF8UUXon6FUcKRdoAoL5pz86cxitd5LN9yonFNU4842Hdl59BhtpyCEmGSoO
PRwaZoQJYAVZvP5iRrfHuxBv6oQrfTO1WwxbP74E9IpHbfrgcjaeHvY/oi4yCdGa
b8O1t4KWBT3WzQLJyZLs+NsCaDJgZoyNSU6BXLif
-----END CERTIFICATE-----
