Certificate:
    Data:
        Version: 3 (0x2)
        Serial Number: 904 (0x388)
    Signature Algorithm: md5WithRSAEncryption
        Issuer: C=US, ST=OH, L=Columbus, O=VikingVPN, OU=MyOrganizationalUnit, CN=VikingVPN CA/name=EasyRSA/emailAddress=me@myhost.mydomain
        Validity
            Not Before: Jan 31 22:56:00 2014 GMT
            Not After : Jan 29 22:56:00 2024 GMT
        Subject: CN=Client344Certc1b052
        Subject Public Key Info:
            Public Key Algorithm: rsaEncryption
                Public-Key: (4096 bit)
                Modulus:
                    00:cb:94:28:59:1f:0c:3b:7e:a8:90:c3:03:a4:91:
                    63:ff:89:d2:f6:b9:09:53:27:87:ed:fc:f6:ca:83:
                    24:dd:16:d9:65:b8:4f:85:4f:f0:5e:79:ba:ad:cf:
                    a5:82:51:61:ac:d9:5e:d7:6d:5a:c6:50:c9:9c:5c:
                    ca:b4:ac:71:65:c0:27:d6:fd:0e:da:ae:cf:00:39:
                    a5:bc:3b:56:bc:bb:d4:78:cf:3b:82:47:b4:63:f1:
                    bf:00:45:4a:01:1f:f3:bf:8d:55:fa:fa:21:92:db:
                    b9:0c:94:2c:25:55:30:81:39:f3:77:57:84:56:f0:
                    56:e8:1d:c6:45:42:24:fe:2d:95:7d:b6:80:7b:21:
                    fe:98:b6:53:75:74:5b:15:c3:5f:99:65:47:a0:46:
                    2b:6f:4c:47:b2:c5:2a:a7:b1:dc:68:17:2b:a1:ec:
                    23:de:83:ce:08:3f:af:3f:80:8e:11:89:d5:e8:39:
                    0b:3d:a1:50:20:59:47:9b:13:10:aa:99:4a:96:9d:
                    b5:32:48:74:a9:ef:46:5c:b5:12:99:bf:98:2c:63:
                    ee:7f:0c:9f:57:5d:55:3d:e6:c6:29:de:e3:44:48:
                    27:99:f7:4b:1f:8a:45:6d:c5:82:1c:5e:85:28:56:
                    00:94:a3:09:09:43:f8:e3:0f:d6:99:f0:22:90:0f:
                    1a:bb:dd:8b:ce:5a:f7:8e:92:55:15:2d:12:b9:80:
                    a1:d9:a1:51:52:5b:83:72:46:77:0b:50:dc:c3:05:
                    6b:bd:7e:44:06:9c:6c:aa:b7:71:a1:90:38:00:88:
                    2d:33:bd:6e:e9:dd:ff:8e:c6:26:6b:e9:72:96:bd:
                    04:bf:22:dd:eb:fc:21:82:ae:51:ab:1f:6d:8a:37:
                    bb:9c:80:20:6e:77:01:59:ce:f2:84:6a:05:19:27:
                    88:09:4a:47:fc:51:6c:98:d3:13:a8:ba:be:ca:b9:
                    3e:bf:ac:bf:ed:fd:65:cb:d0:40:23:91:68:b0:b2:
                    89:b5:d3:df:e3:4f:ed:50:17:76:53:09:ab:98:cc:
                    62:ef:d0:58:e1:e7:37:bc:3a:8c:28:75:4e:90:4e:
                    cf:bb:16:6b:ad:02:0e:76:c2:45:c3:57:d8:1a:13:
                    04:fc:4d:4d:e8:3e:7b:72:c2:99:b7:6b:f4:d3:b8:
                    12:2d:9b:ad:3b:88:00:19:15:db:69:c8:f7:e3:f1:
                    a5:8a:6f:9a:b5:96:14:10:aa:64:e8:95:93:30:bc:
                    5c:98:33:33:3e:c9:42:1f:54:7a:87:33:c9:f1:d9:
                    84:5c:ea:b9:0d:b0:2f:36:48:68:a2:7d:9c:b3:70:
                    94:c9:96:bf:61:d6:14:c2:2d:16:8a:03:5d:58:fd:
                    66:13:8d
                Exponent: 65537 (0x10001)
        X509v3 extensions:
            X509v3 Basic Constraints: 
                CA:FALSE
            Netscape Comment: 
                Easy-RSA Generated Certificate
            X509v3 Subject Key Identifier: 
                C6:C9:F9:9B:4D:19:E5:FD:A9:50:80:54:11:CC:76:01:9C:F9:CE:A9
            X509v3 Authority Key Identifier: 
                keyid:12:CD:60:04:D2:A0:80:9E:70:ED:C6:99:B8:7B:2C:C6:52:FD:19:A1
                DirName:/C=US/ST=OH/L=Columbus/O=VikingVPN/OU=MyOrganizationalUnit/CN=VikingVPN CA/name=EasyRSA/emailAddress=me@myhost.mydomain
                serial:CF:35:85:EE:80:BF:2A:3E

            X509v3 Extended Key Usage: 
                TLS Web Client Authentication
            X509v3 Key Usage: 
                Digital Signature
    Signature Algorithm: md5WithRSAEncryption
         eb:dd:a9:00:65:85:f3:cc:4a:23:5e:4d:35:68:00:aa:7d:ba:
         76:c2:f9:2c:96:9e:87:fd:b6:10:d8:54:9b:cb:8f:12:f1:7f:
         46:5c:72:53:42:cd:0a:ca:70:22:c6:9b:72:26:9b:65:36:c7:
         41:d4:58:8d:8d:f5:83:45:44:cf:5f:46:ce:e6:06:71:d2:02:
         a6:28:e5:2c:fc:e8:1d:f0:27:39:6e:8d:dc:79:a8:15:d0:4c:
         5e:b4:2f:9c:61:16:06:cf:48:31:e6:c6:cc:99:1b:3a:c0:96:
         5d:60:f8:73:4a:7f:c0:ae:61:55:fc:4e:b3:7c:0e:c9:55:57:
         0d:3a:d8:4b:3f:62:05:8d:a3:6f:35:fe:64:65:77:b7:8e:12:
         c5:f7:86:24:ad:a2:3f:80:9a:24:bd:d3:18:2f:8c:18:87:14:
         57:7a:b2:f5:72:47:43:c4:07:4f:d2:20:82:6c:1c:93:f6:06:
         cf:7b:db:5b:a9:7d:00:0d:50:41:75:f5:10:b4:d7:3d:f8:ec:
         7e:4d:07:f3:d5:04:f5:cf:8e:79:91:9a:f0:d4:ff:77:df:12:
         6c:a7:47:d8:c4:64:e3:e1:86:b9:26:4b:e6:d0:2b:97:03:a1:
         ad:bf:9d:54:48:d0:8d:74:0d:c1:ae:fd:0a:18:11:31:cf:9e:
         27:28:e2:c8:1d:9a:78:e9:f5:74:25:48:52:da:1f:b7:6a:51:
         d0:b6:88:1a:b5:2a:aa:82:82:7f:3e:0e:f7:6a:03:4a:cf:01:
         97:1e:bc:70:86:1f:fa:2c:36:81:4a:68:bd:1f:db:d1:e8:8c:
         b8:54:62:1c:04:6e:71:3d:23:a8:38:59:20:e6:8e:93:3c:a8:
         bc:fb:9f:76:69:6a:a3:b3:ee:5e:72:65:7c:14:bc:03:fe:fe:
         99:1a:31:1d:10:fa:07:5e:79:0f:e6:e3:db:00:d3:3b:19:60:
         27:8c:85:ec:96:5f:0d:d8:b3:e7:3d:62:5f:3a:51:61:d7:2d:
         52:65:4b:bf:fc:3f:7e:af:64:e7:a1:d7:cd:24:d7:17:d8:e2:
         38:83:ee:84:a8:3a:53:bd:24:be:da:65:3c:6b:ec:1c:34:0c:
         5e:51:be:b1:01:5e:e5:b0:3c:1f:88:35:5f:5f:51:4b:1c:6f:
         90:e5:d3:a3:22:e8:1c:5f:16:7c:80:9e:e3:a6:bc:80:f4:fd:
         8d:94:7c:da:08:98:ec:9a:a0:00:6e:93:49:e4:e6:d3:7b:f5:
         7c:cc:2a:79:4e:08:39:a7:70:ff:64:c3:4e:49:88:11:c4:32:
         87:0f:de:d4:94:ca:ef:93:4e:2e:8a:12:a0:3f:bc:41:e9:cd:
         4b:89:18:58:21:79:2f:a1
-----BEGIN CERTIFICATE-----
MIIGrDCCBJSgAwIBAgICA4gwDQYJKoZIhvcNAQEEBQAwgawxCzAJBgNVBAYTAlVT
MQswCQYDVQQIEwJPSDERMA8GA1UEBxMIQ29sdW1idXMxEjAQBgNVBAoTCVZpa2lu
Z1ZQTjEdMBsGA1UECxMUTXlPcmdhbml6YXRpb25hbFVuaXQxFTATBgNVBAMTDFZp
a2luZ1ZQTiBDQTEQMA4GA1UEKRMHRWFzeVJTQTEhMB8GCSqGSIb3DQEJARYSbWVA
bXlob3N0Lm15ZG9tYWluMB4XDTE0MDEzMTIyNTYwMFoXDTI0MDEyOTIyNTYwMFow
HjEcMBoGA1UEAxMTQ2xpZW50MzQ0Q2VydGMxYjA1MjCCAiIwDQYJKoZIhvcNAQEB
BQADggIPADCCAgoCggIBAMuUKFkfDDt+qJDDA6SRY/+J0va5CVMnh+389sqDJN0W
2WW4T4VP8F55uq3PpYJRYazZXtdtWsZQyZxcyrSscWXAJ9b9DtquzwA5pbw7Vry7
1HjPO4JHtGPxvwBFSgEf87+NVfr6IZLbuQyULCVVMIE583dXhFbwVugdxkVCJP4t
lX22gHsh/pi2U3V0WxXDX5llR6BGK29MR7LFKqex3GgXK6HsI96Dzgg/rz+AjhGJ
1eg5Cz2hUCBZR5sTEKqZSpadtTJIdKnvRly1Epm/mCxj7n8Mn1ddVT3mxine40RI
J5n3Sx+KRW3FghxehShWAJSjCQlD+OMP1pnwIpAPGrvdi85a946SVRUtErmAodmh
UVJbg3JGdwtQ3MMFa71+RAacbKq3caGQOACILTO9bund/47GJmvpcpa9BL8i3ev8
IYKuUasfbYo3u5yAIG53AVnO8oRqBRkniAlKR/xRbJjTE6i6vsq5Pr+sv+39ZcvQ
QCORaLCyibXT3+NP7VAXdlMJq5jMYu/QWOHnN7w6jCh1TpBOz7sWa60CDnbCRcNX
2BoTBPxNTeg+e3LCmbdr9NO4Ei2brTuIABkV22nI9+PxpYpvmrWWFBCqZOiVkzC8
XJgzMz7JQh9UeoczyfHZhFzquQ2wLzZIaKJ9nLNwlMmWv2HWFMItFooDXVj9ZhON
AgMBAAGjggFjMIIBXzAJBgNVHRMEAjAAMC0GCWCGSAGG+EIBDQQgFh5FYXN5LVJT
QSBHZW5lcmF0ZWQgQ2VydGlmaWNhdGUwHQYDVR0OBBYEFMbJ+ZtNGeX9qVCAVBHM
dgGc+c6pMIHhBgNVHSMEgdkwgdaAFBLNYATSoICecO3Gmbh7LMZS/RmhoYGypIGv
MIGsMQswCQYDVQQGEwJVUzELMAkGA1UECBMCT0gxETAPBgNVBAcTCENvbHVtYnVz
MRIwEAYDVQQKEwlWaWtpbmdWUE4xHTAbBgNVBAsTFE15T3JnYW5pemF0aW9uYWxV
bml0MRUwEwYDVQQDEwxWaWtpbmdWUE4gQ0ExEDAOBgNVBCkTB0Vhc3lSU0ExITAf
BgkqhkiG9w0BCQEWEm1lQG15aG9zdC5teWRvbWFpboIJAM81he6Avyo+MBMGA1Ud
JQQMMAoGCCsGAQUFBwMCMAsGA1UdDwQEAwIHgDANBgkqhkiG9w0BAQQFAAOCAgEA
692pAGWF88xKI15NNWgAqn26dsL5LJaeh/22ENhUm8uPEvF/RlxyU0LNCspwIsab
ciabZTbHQdRYjY31g0VEz19GzuYGcdICpijlLPzoHfAnOW6N3HmoFdBMXrQvnGEW
Bs9IMebGzJkbOsCWXWD4c0p/wK5hVfxOs3wOyVVXDTrYSz9iBY2jbzX+ZGV3t44S
xfeGJK2iP4CaJL3TGC+MGIcUV3qy9XJHQ8QHT9Iggmwck/YGz3vbW6l9AA1QQXX1
ELTXPfjsfk0H89UE9c+OeZGa8NT/d98SbKdH2MRk4+GGuSZL5tArlwOhrb+dVEjQ
jXQNwa79ChgRMc+eJyjiyB2aeOn1dCVIUtoft2pR0LaIGrUqqoKCfz4O92oDSs8B
lx68cIYf+iw2gUpovR/b0eiMuFRiHARucT0jqDhZIOaOkzyovPufdmlqo7PuXnJl
fBS8A/7+mRoxHRD6B155D+bj2wDTOxlgJ4yF7JZfDdiz5z1iXzpRYdctUmVLv/w/
fq9k56HXzSTXF9jiOIPuhKg6U70kvtplPGvsHDQMXlG+sQFe5bA8H4g1X19RSxxv
kOXToyLoHF8WfICe46a8gPT9jZR82giY7JqgAG6TSeTm03v1fMwqeU4IOadw/2TD
TkmIEcQyhw/e1JTK75NOLooSoD+8QenNS4kYWCF5L6E=
-----END CERTIFICATE-----
