Certificate:
    Data:
        Version: 3 (0x2)
        Serial Number: 914 (0x392)
    Signature Algorithm: md5WithRSAEncryption
        Issuer: C=US, ST=OH, L=Columbus, O=VikingVPN, OU=MyOrganizationalUnit, CN=VikingVPN CA/name=EasyRSA/emailAddress=me@myhost.mydomain
        Validity
            Not Before: Feb  1 17:26:41 2014 GMT
            Not After : Jan 30 17:26:41 2024 GMT
        Subject: CN=Client347Certaeda5b
        Subject Public Key Info:
            Public Key Algorithm: rsaEncryption
                Public-Key: (4096 bit)
                Modulus:
                    00:cc:9a:56:b4:d7:cd:03:29:88:61:cb:4d:03:e0:
                    87:38:ac:11:79:ab:a7:a4:7e:47:3e:6c:94:38:af:
                    15:dd:1c:f4:8a:3b:8d:f8:16:01:04:b1:81:76:a1:
                    19:76:06:94:90:54:a7:22:75:2f:d8:af:8d:aa:58:
                    ea:36:cf:1d:74:d5:53:f4:3c:ab:9b:df:d1:fa:29:
                    f1:9e:6b:d4:fb:39:68:29:ce:31:15:1c:1f:b9:62:
                    a2:57:18:d6:2b:4c:39:c3:57:bc:c1:f0:0f:df:60:
                    1d:6c:e7:96:fd:3d:0d:03:10:ee:ab:ff:4f:28:7f:
                    f1:c2:0a:b7:58:43:27:95:98:cd:05:b6:06:e4:55:
                    7c:b1:93:36:77:38:3b:81:8f:4d:79:c4:1d:93:6f:
                    23:f7:bf:29:8c:fe:eb:e1:4b:aa:e1:d5:f2:bf:b2:
                    5b:c2:85:b2:5d:b4:1e:2c:4d:b5:eb:70:6c:09:9f:
                    3a:fe:97:51:4b:76:3c:a7:62:39:d8:c2:ad:f1:9e:
                    ac:b1:ac:c5:1b:f8:ca:92:b9:9f:2f:88:f6:16:35:
                    11:7e:cb:55:bb:05:79:f6:ab:90:64:c5:dc:09:a8:
                    84:ab:92:57:5d:2e:b4:ce:f8:8e:a9:9b:57:0a:55:
                    e3:46:c6:52:21:9f:81:60:63:a7:70:3e:c9:b3:c2:
                    76:8e:f0:4c:4f:8a:ea:1b:a9:a5:2e:27:06:45:2b:
                    cf:18:76:60:4c:80:af:c7:93:87:ed:36:bd:06:90:
                    ad:0f:5f:82:13:65:63:03:37:46:72:09:af:36:2d:
                    bd:1e:4e:d8:6b:60:b9:4f:5a:73:eb:e6:8b:bd:30:
                    51:94:26:48:71:1b:2d:fe:f1:69:09:6f:76:e2:d1:
                    55:c0:01:be:96:c2:3c:15:e6:19:de:b2:e3:a2:20:
                    06:ea:63:72:a8:85:a1:02:7e:db:49:82:93:0e:7d:
                    18:3f:80:dd:77:69:ae:df:ae:78:98:03:18:96:d6:
                    56:58:91:a7:e9:d1:2c:78:50:0d:0e:42:c3:da:b8:
                    35:7c:19:f5:b5:e4:97:26:0b:6c:06:37:91:6e:8a:
                    c0:45:77:7b:e9:b8:3b:a2:36:81:a9:b3:24:4d:97:
                    88:2a:5f:3f:e1:13:21:8a:62:cd:5c:9b:42:e0:8a:
                    2b:c0:1b:7b:c1:9d:54:5a:2c:6f:4f:99:f4:60:4d:
                    48:c6:96:21:14:9e:ae:45:5a:2f:15:c7:b8:de:5f:
                    6f:aa:31:0f:9c:e3:c5:e6:01:2e:6c:94:6d:38:d2:
                    f3:14:29:e0:a5:c7:68:01:89:a2:f4:47:f7:cc:3a:
                    63:8f:15:97:69:5d:1c:16:41:be:7e:e9:2b:73:d1:
                    bd:6e:ed
                Exponent: 65537 (0x10001)
        X509v3 extensions:
            X509v3 Basic Constraints: 
                CA:FALSE
            Netscape Comment: 
                Easy-RSA Generated Certificate
            X509v3 Subject Key Identifier: 
                4E:39:F6:86:7C:0B:86:00:9D:75:04:DD:75:66:B2:4F:1D:53:BA:9A
            X509v3 Authority Key Identifier: 
                keyid:12:CD:60:04:D2:A0:80:9E:70:ED:C6:99:B8:7B:2C:C6:52:FD:19:A1
                DirName:/C=US/ST=OH/L=Columbus/O=VikingVPN/OU=MyOrganizationalUnit/CN=VikingVPN CA/name=EasyRSA/emailAddress=me@myhost.mydomain
                serial:CF:35:85:EE:80:BF:2A:3E

            X509v3 Extended Key Usage: 
                TLS Web Client Authentication
            X509v3 Key Usage: 
                Digital Signature
    Signature Algorithm: md5WithRSAEncryption
         6c:19:be:a9:00:b7:3b:7e:ca:11:8c:d7:63:f2:89:b1:8a:ac:
         49:c5:4c:c6:af:cc:cf:bd:ba:98:79:93:dd:c2:e6:ef:94:d5:
         a6:b9:6f:fb:3d:27:0b:a3:29:3a:ff:d2:68:d1:f7:31:8b:96:
         31:0c:f0:cd:7c:81:67:83:bc:d2:21:41:a4:ae:81:bd:e3:9a:
         27:90:ff:7c:f5:26:52:bd:ed:16:1b:db:a9:90:e7:91:19:d9:
         0a:f5:e0:0a:86:d8:d0:3f:77:b4:a7:ed:68:65:9c:be:a0:09:
         c7:f0:ee:d5:b9:cb:b6:c7:0b:56:69:ef:06:97:81:c1:3e:77:
         31:53:ff:a3:ae:fa:eb:c2:15:ac:32:9e:a5:7b:30:38:59:69:
         5e:59:5b:ef:98:70:fb:fa:9a:fb:7c:7e:73:1c:bd:db:a3:3c:
         a1:7a:56:f2:08:98:15:7e:3e:e0:3f:ce:56:0b:95:ec:96:32:
         f3:9a:90:ad:14:7c:89:2a:79:ed:b0:0d:63:cb:da:71:e4:c0:
         e4:ff:b4:da:15:14:f6:f2:f6:9b:52:a5:d6:40:42:ff:e4:a3:
         93:b7:2a:46:4f:40:6f:24:a3:65:c1:35:2e:ea:1a:ae:7a:48:
         b0:29:6b:f7:96:1e:b4:16:db:9e:0f:84:9c:a8:ca:81:54:74:
         14:db:32:ac:54:fd:e2:33:cb:b4:ab:49:42:e7:4e:7a:e7:98:
         2a:6e:41:d5:94:c5:f9:13:4e:2a:65:6e:80:06:60:24:63:a1:
         55:d2:22:9f:7a:07:23:79:24:bd:45:d2:49:58:6d:30:32:65:
         57:af:e7:3a:76:79:95:fc:95:1c:37:cf:db:38:63:53:a2:05:
         dd:09:cd:b3:51:6a:df:49:16:a0:1e:b9:1c:c7:b4:fb:2e:45:
         58:65:56:de:b5:09:66:6e:3a:0c:87:b4:b8:fc:64:3e:41:4c:
         24:a1:15:b2:83:6d:63:4f:ef:ad:31:6e:0a:d1:4f:81:8a:d9:
         84:0d:47:b8:21:11:74:4c:63:94:82:56:70:2f:d5:c4:4b:ae:
         eb:04:b6:0f:8f:61:f0:b5:01:8a:ba:9d:cb:c7:7d:50:4c:0b:
         28:be:4b:e0:37:e4:a6:d0:35:58:bb:56:57:f5:1c:b7:27:17:
         5e:6d:69:6b:a3:bf:de:d5:9f:a4:61:ca:12:2e:d1:b7:ad:32:
         b9:92:27:48:e5:c1:01:24:7c:37:6a:d9:7d:03:cc:82:a1:cf:
         f0:1b:b9:e0:36:4c:90:7e:70:3d:19:cd:22:56:47:b4:5b:4b:
         31:13:90:f6:98:2f:18:cc:d8:9c:85:4c:d1:0a:4a:47:42:9c:
         98:31:e5:cb:1b:c7:86:64
-----BEGIN CERTIFICATE-----
MIIGrDCCBJSgAwIBAgICA5IwDQYJKoZIhvcNAQEEBQAwgawxCzAJBgNVBAYTAlVT
MQswCQYDVQQIEwJPSDERMA8GA1UEBxMIQ29sdW1idXMxEjAQBgNVBAoTCVZpa2lu
Z1ZQTjEdMBsGA1UECxMUTXlPcmdhbml6YXRpb25hbFVuaXQxFTATBgNVBAMTDFZp
a2luZ1ZQTiBDQTEQMA4GA1UEKRMHRWFzeVJTQTEhMB8GCSqGSIb3DQEJARYSbWVA
bXlob3N0Lm15ZG9tYWluMB4XDTE0MDIwMTE3MjY0MVoXDTI0MDEzMDE3MjY0MVow
HjEcMBoGA1UEAxMTQ2xpZW50MzQ3Q2VydGFlZGE1YjCCAiIwDQYJKoZIhvcNAQEB
BQADggIPADCCAgoCggIBAMyaVrTXzQMpiGHLTQPghzisEXmrp6R+Rz5slDivFd0c
9Io7jfgWAQSxgXahGXYGlJBUpyJ1L9ivjapY6jbPHXTVU/Q8q5vf0fop8Z5r1Ps5
aCnOMRUcH7liolcY1itMOcNXvMHwD99gHWznlv09DQMQ7qv/Tyh/8cIKt1hDJ5WY
zQW2BuRVfLGTNnc4O4GPTXnEHZNvI/e/KYz+6+FLquHV8r+yW8KFsl20HixNtetw
bAmfOv6XUUt2PKdiOdjCrfGerLGsxRv4ypK5ny+I9hY1EX7LVbsFefarkGTF3Amo
hKuSV10utM74jqmbVwpV40bGUiGfgWBjp3A+ybPCdo7wTE+K6huppS4nBkUrzxh2
YEyAr8eTh+02vQaQrQ9fghNlYwM3RnIJrzYtvR5O2GtguU9ac+vmi70wUZQmSHEb
Lf7xaQlvduLRVcABvpbCPBXmGd6y46IgBupjcqiFoQJ+20mCkw59GD+A3Xdprt+u
eJgDGJbWVliRp+nRLHhQDQ5Cw9q4NXwZ9bXklyYLbAY3kW6KwEV3e+m4O6I2gamz
JE2XiCpfP+ETIYpizVybQuCKK8Abe8GdVFosb0+Z9GBNSMaWIRSerkVaLxXHuN5f
b6oxD5zjxeYBLmyUbTjS8xQp4KXHaAGJovRH98w6Y48Vl2ldHBZBvn7pK3PRvW7t
AgMBAAGjggFjMIIBXzAJBgNVHRMEAjAAMC0GCWCGSAGG+EIBDQQgFh5FYXN5LVJT
QSBHZW5lcmF0ZWQgQ2VydGlmaWNhdGUwHQYDVR0OBBYEFE459oZ8C4YAnXUE3XVm
sk8dU7qaMIHhBgNVHSMEgdkwgdaAFBLNYATSoICecO3Gmbh7LMZS/RmhoYGypIGv
MIGsMQswCQYDVQQGEwJVUzELMAkGA1UECBMCT0gxETAPBgNVBAcTCENvbHVtYnVz
MRIwEAYDVQQKEwlWaWtpbmdWUE4xHTAbBgNVBAsTFE15T3JnYW5pemF0aW9uYWxV
bml0MRUwEwYDVQQDEwxWaWtpbmdWUE4gQ0ExEDAOBgNVBCkTB0Vhc3lSU0ExITAf
BgkqhkiG9w0BCQEWEm1lQG15aG9zdC5teWRvbWFpboIJAM81he6Avyo+MBMGA1Ud
JQQMMAoGCCsGAQUFBwMCMAsGA1UdDwQEAwIHgDANBgkqhkiG9w0BAQQFAAOCAgEA
bBm+qQC3O37KEYzXY/KJsYqsScVMxq/Mz726mHmT3cLm75TVprlv+z0nC6MpOv/S
aNH3MYuWMQzwzXyBZ4O80iFBpK6BveOaJ5D/fPUmUr3tFhvbqZDnkRnZCvXgCobY
0D93tKftaGWcvqAJx/Du1bnLtscLVmnvBpeBwT53MVP/o67668IVrDKepXswOFlp
Xllb75hw+/qa+3x+cxy926M8oXpW8giYFX4+4D/OVguV7JYy85qQrRR8iSp57bAN
Y8vaceTA5P+02hUU9vL2m1Kl1kBC/+Sjk7cqRk9AbySjZcE1LuoarnpIsClr95Ye
tBbbng+EnKjKgVR0FNsyrFT94jPLtKtJQudOeueYKm5B1ZTF+RNOKmVugAZgJGOh
VdIin3oHI3kkvUXSSVhtMDJlV6/nOnZ5lfyVHDfP2zhjU6IF3QnNs1Fq30kWoB65
HMe0+y5FWGVW3rUJZm46DIe0uPxkPkFMJKEVsoNtY0/vrTFuCtFPgYrZhA1HuCER
dExjlIJWcC/VxEuu6wS2D49h8LUBirqdy8d9UEwLKL5L4DfkptA1WLtWV/UctycX
Xm1pa6O/3tWfpGHKEi7Rt60yuZInSOXBASR8N2rZfQPMgqHP8Bu54DZMkH5wPRnN
IlZHtFtLMROQ9pgvGMzYnIVM0QpKR0KcmDHlyxvHhmQ=
-----END CERTIFICATE-----
