Certificate:
    Data:
        Version: 3 (0x2)
        Serial Number: 966 (0x3c6)
    Signature Algorithm: md5WithRSAEncryption
        Issuer: C=US, ST=OH, L=Columbus, O=VikingVPN, OU=MyOrganizationalUnit, CN=VikingVPN CA/name=EasyRSA/emailAddress=me@myhost.mydomain
        Validity
            Not Before: Feb  6 18:49:25 2014 GMT
            Not After : Feb  4 18:49:25 2024 GMT
        Subject: CN=Client349Certf6b2ef
        Subject Public Key Info:
            Public Key Algorithm: rsaEncryption
                Public-Key: (4096 bit)
                Modulus:
                    00:bc:36:8a:6a:c3:a7:35:3b:2d:7b:1c:82:cc:23:
                    38:c5:17:a7:9a:99:df:d4:c7:3d:ba:94:05:e5:3f:
                    3a:ed:8f:6b:3f:78:b5:5e:30:0b:af:79:a4:c0:a3:
                    2d:f3:70:92:6c:78:a2:99:13:5d:c7:35:08:e6:ec:
                    ab:b0:7d:89:1b:57:69:bf:c7:67:3d:c4:6e:2c:a6:
                    97:1a:67:9e:69:a4:fa:df:da:ac:2b:32:27:9c:95:
                    50:4b:ba:9f:bb:45:70:18:d2:d2:cd:2f:08:85:9b:
                    52:1d:46:2f:5e:8d:7e:ad:d7:d5:b3:c1:d8:12:c7:
                    77:8c:86:fe:5d:d2:2e:b2:ac:b7:b7:4a:17:fb:ce:
                    36:7c:ee:e7:c3:64:c6:15:a5:aa:75:a0:78:b8:f7:
                    31:6d:2c:12:4c:4c:de:39:fd:e0:d2:7c:bc:1b:6f:
                    8f:ae:68:b0:8b:87:46:e2:46:ca:21:60:73:6b:42:
                    16:89:8a:ef:7b:cc:09:06:85:a8:a8:3e:11:ae:fa:
                    ec:3b:29:31:f0:33:00:ec:3f:f3:ea:6c:af:62:e2:
                    8f:84:70:77:ae:4e:86:20:6a:ea:63:25:0d:e8:b3:
                    66:a3:b8:f7:a6:52:08:2c:b3:ef:3f:04:bf:9c:63:
                    68:82:c8:4f:d3:27:84:2f:6f:a0:46:89:ce:da:63:
                    aa:95:41:ff:ad:80:84:56:53:bc:7e:0f:9a:9f:7e:
                    8c:8c:52:0e:32:cf:98:c4:73:de:06:99:64:84:27:
                    5c:45:e4:c0:16:e8:fd:5f:9a:64:95:49:33:fe:a7:
                    97:20:72:0c:ab:51:2b:02:7f:6f:de:e3:bd:21:48:
                    19:97:57:70:63:6c:be:62:d1:e9:80:91:df:64:4d:
                    59:e6:99:09:2f:55:46:40:07:0a:b9:08:01:4d:82:
                    c0:fd:1e:d4:c8:2a:70:53:36:51:b6:dd:18:db:65:
                    4a:0d:9e:e1:d2:0c:9b:4f:69:a4:58:64:6f:1d:77:
                    b4:04:fb:a1:85:cc:80:da:36:34:e8:ae:85:1a:46:
                    eb:3e:ec:6b:d2:ab:93:0a:f5:0c:5a:ac:85:2c:0e:
                    a2:51:79:a8:e3:59:56:c6:fb:f9:ba:bc:04:cb:fd:
                    3d:25:f1:79:1d:93:da:32:66:b5:37:2a:8c:8a:7c:
                    3b:3d:de:00:0e:ec:bf:b9:4f:d1:cd:3e:a0:3e:02:
                    c3:f5:3f:87:c7:2d:4a:09:fe:3c:ff:ec:2f:92:e9:
                    3a:69:63:61:b9:bb:90:00:65:8f:b3:f7:40:a4:ae:
                    fc:32:0a:76:62:00:ef:1f:f0:a3:8a:65:12:60:7b:
                    e0:b1:d9:ed:27:d4:ef:84:d5:49:23:b1:c6:d4:a6:
                    09:1a:7b
                Exponent: 65537 (0x10001)
        X509v3 extensions:
            X509v3 Basic Constraints: 
                CA:FALSE
            Netscape Comment: 
                Easy-RSA Generated Certificate
            X509v3 Subject Key Identifier: 
                FF:D4:0D:1B:03:97:73:57:D6:68:64:56:5A:B8:29:FC:67:A5:30:EC
            X509v3 Authority Key Identifier: 
                keyid:12:CD:60:04:D2:A0:80:9E:70:ED:C6:99:B8:7B:2C:C6:52:FD:19:A1
                DirName:/C=US/ST=OH/L=Columbus/O=VikingVPN/OU=MyOrganizationalUnit/CN=VikingVPN CA/name=EasyRSA/emailAddress=me@myhost.mydomain
                serial:CF:35:85:EE:80:BF:2A:3E

            X509v3 Extended Key Usage: 
                TLS Web Client Authentication
            X509v3 Key Usage: 
                Digital Signature
    Signature Algorithm: md5WithRSAEncryption
         2b:ee:a7:f1:0d:d1:61:de:33:08:20:53:0b:f7:36:bc:2f:23:
         84:af:59:57:15:f5:79:3f:9b:56:b6:b8:cb:c6:08:46:26:d7:
         22:b3:9f:d7:e1:3b:ba:5a:e5:0b:bd:8a:43:32:e5:87:99:df:
         49:35:4e:2d:7e:72:01:2b:3e:d3:63:6d:65:50:2b:4e:36:3a:
         5b:56:4a:89:f9:e3:57:8e:18:07:57:bf:69:f2:ee:7b:94:69:
         65:d0:82:0d:83:3f:31:99:c3:9d:91:62:0b:1a:c5:1f:1c:fc:
         91:0b:48:23:bd:cc:f3:44:88:d8:b0:ca:91:aa:25:b2:fe:27:
         c0:4e:d7:1f:d9:ab:87:0b:3b:4e:c3:70:bd:0c:59:f8:74:9d:
         40:77:a6:26:7a:14:51:4e:12:c5:99:b0:c8:7d:dc:08:00:8f:
         8e:f8:34:89:c8:21:90:05:97:ce:c3:d4:2d:1d:69:29:d6:8f:
         62:df:54:fe:d2:bc:ae:69:8a:7e:fc:c3:53:3f:8a:e9:df:e1:
         a5:42:1d:48:e0:b0:e1:53:f9:3b:e9:4a:ef:69:67:a5:26:c8:
         a9:d6:43:3a:bf:4e:25:fd:7f:ed:f7:68:cf:9b:ab:29:81:bc:
         c7:0c:eb:ad:e2:8f:d6:18:ea:ad:f8:49:f7:17:24:fa:36:a9:
         0b:48:2b:e3:93:23:fa:35:4e:ab:bc:54:c4:6d:4c:3a:ea:26:
         c1:58:d8:4e:6b:55:8a:42:7f:3f:61:af:88:f9:e0:df:0e:78:
         ad:42:fc:53:2a:65:3e:9b:b8:9f:38:8f:69:85:81:75:93:76:
         43:fb:a3:f0:87:24:3b:48:18:fc:58:49:1c:19:3e:d2:d2:f9:
         90:31:2f:8e:5d:fd:e0:0d:21:dc:be:97:0f:35:7f:5f:6b:e0:
         10:bf:0c:4c:12:6f:47:86:d3:1c:61:d2:02:1b:0f:ea:33:c3:
         d2:74:f9:42:bb:8d:44:af:c3:25:f5:87:9b:bd:2d:8f:67:49:
         0d:12:d1:2c:80:81:4b:bd:d1:9a:f5:ac:c2:c2:2e:51:ba:2e:
         2e:4f:8d:a2:8d:e2:b6:ec:e0:07:e6:be:66:b5:63:5f:0d:27:
         42:8e:98:34:52:a2:13:69:ab:8a:e6:2f:71:62:80:e4:e3:f8:
         63:2c:c3:2e:bb:ce:18:ca:61:d7:dd:ec:91:f9:37:6f:2f:8e:
         c6:b2:96:c3:40:6a:eb:88:ae:92:d4:ea:02:f7:a6:ca:da:52:
         28:b7:63:c5:42:a5:23:bb:07:a3:d5:a6:1b:36:91:71:2f:72:
         73:3f:9d:21:13:9e:93:9f:14:c8:3e:f7:d2:1c:11:89:65:0e:
         f1:3b:8a:70:fc:bd:ef:02
-----BEGIN CERTIFICATE-----
MIIGrDCCBJSgAwIBAgICA8YwDQYJKoZIhvcNAQEEBQAwgawxCzAJBgNVBAYTAlVT
MQswCQYDVQQIEwJPSDERMA8GA1UEBxMIQ29sdW1idXMxEjAQBgNVBAoTCVZpa2lu
Z1ZQTjEdMBsGA1UECxMUTXlPcmdhbml6YXRpb25hbFVuaXQxFTATBgNVBAMTDFZp
a2luZ1ZQTiBDQTEQMA4GA1UEKRMHRWFzeVJTQTEhMB8GCSqGSIb3DQEJARYSbWVA
bXlob3N0Lm15ZG9tYWluMB4XDTE0MDIwNjE4NDkyNVoXDTI0MDIwNDE4NDkyNVow
HjEcMBoGA1UEAxMTQ2xpZW50MzQ5Q2VydGY2YjJlZjCCAiIwDQYJKoZIhvcNAQEB
BQADggIPADCCAgoCggIBALw2imrDpzU7LXscgswjOMUXp5qZ39THPbqUBeU/Ou2P
az94tV4wC695pMCjLfNwkmx4opkTXcc1CObsq7B9iRtXab/HZz3Ebiymlxpnnmmk
+t/arCsyJ5yVUEu6n7tFcBjS0s0vCIWbUh1GL16Nfq3X1bPB2BLHd4yG/l3SLrKs
t7dKF/vONnzu58NkxhWlqnWgeLj3MW0sEkxM3jn94NJ8vBtvj65osIuHRuJGyiFg
c2tCFomK73vMCQaFqKg+Ea767DspMfAzAOw/8+psr2Lij4Rwd65OhiBq6mMlDeiz
ZqO496ZSCCyz7z8Ev5xjaILIT9MnhC9voEaJztpjqpVB/62AhFZTvH4Pmp9+jIxS
DjLPmMRz3gaZZIQnXEXkwBbo/V+aZJVJM/6nlyByDKtRKwJ/b97jvSFIGZdXcGNs
vmLR6YCR32RNWeaZCS9VRkAHCrkIAU2CwP0e1MgqcFM2UbbdGNtlSg2e4dIMm09p
pFhkbx13tAT7oYXMgNo2NOiuhRpG6z7sa9Krkwr1DFqshSwOolF5qONZVsb7+bq8
BMv9PSXxeR2T2jJmtTcqjIp8Oz3eAA7sv7lP0c0+oD4Cw/U/h8ctSgn+PP/sL5Lp
OmljYbm7kABlj7P3QKSu/DIKdmIA7x/wo4plEmB74LHZ7SfU74TVSSOxxtSmCRp7
AgMBAAGjggFjMIIBXzAJBgNVHRMEAjAAMC0GCWCGSAGG+EIBDQQgFh5FYXN5LVJT
QSBHZW5lcmF0ZWQgQ2VydGlmaWNhdGUwHQYDVR0OBBYEFP/UDRsDl3NX1mhkVlq4
KfxnpTDsMIHhBgNVHSMEgdkwgdaAFBLNYATSoICecO3Gmbh7LMZS/RmhoYGypIGv
MIGsMQswCQYDVQQGEwJVUzELMAkGA1UECBMCT0gxETAPBgNVBAcTCENvbHVtYnVz
MRIwEAYDVQQKEwlWaWtpbmdWUE4xHTAbBgNVBAsTFE15T3JnYW5pemF0aW9uYWxV
bml0MRUwEwYDVQQDEwxWaWtpbmdWUE4gQ0ExEDAOBgNVBCkTB0Vhc3lSU0ExITAf
BgkqhkiG9w0BCQEWEm1lQG15aG9zdC5teWRvbWFpboIJAM81he6Avyo+MBMGA1Ud
JQQMMAoGCCsGAQUFBwMCMAsGA1UdDwQEAwIHgDANBgkqhkiG9w0BAQQFAAOCAgEA
K+6n8Q3RYd4zCCBTC/c2vC8jhK9ZVxX1eT+bVra4y8YIRibXIrOf1+E7ulrlC72K
QzLlh5nfSTVOLX5yASs+02NtZVArTjY6W1ZKifnjV44YB1e/afLue5RpZdCCDYM/
MZnDnZFiCxrFHxz8kQtII73M80SI2LDKkaolsv4nwE7XH9mrhws7TsNwvQxZ+HSd
QHemJnoUUU4SxZmwyH3cCACPjvg0icghkAWXzsPULR1pKdaPYt9U/tK8rmmKfvzD
Uz+K6d/hpUIdSOCw4VP5O+lK72lnpSbIqdZDOr9OJf1/7fdoz5urKYG8xwzrreKP
1hjqrfhJ9xck+japC0gr45Mj+jVOq7xUxG1MOuomwVjYTmtVikJ/P2GviPng3w54
rUL8UyplPpu4nziPaYWBdZN2Q/uj8IckO0gY/FhJHBk+0tL5kDEvjl394A0h3L6X
DzV/X2vgEL8MTBJvR4bTHGHSAhsP6jPD0nT5QruNRK/DJfWHm70tj2dJDRLRLICB
S73RmvWswsIuUbouLk+Noo3ituzgB+a+ZrVjXw0nQo6YNFKiE2mriuYvcWKA5OP4
YyzDLrvOGMph193skfk3by+OxrKWw0Bq64iuktTqAvemytpSKLdjxUKlI7sHo9Wm
GzaRcS9ycz+dIROek58UyD730hwRiWUO8TuKcPy97wI=
-----END CERTIFICATE-----
