Certificate:
    Data:
        Version: 3 (0x2)
        Serial Number: 975 (0x3cf)
    Signature Algorithm: md5WithRSAEncryption
        Issuer: C=US, ST=OH, L=Columbus, O=VikingVPN, OU=MyOrganizationalUnit, CN=VikingVPN CA/name=EasyRSA/emailAddress=me@myhost.mydomain
        Validity
            Not Before: Feb  6 19:23:24 2014 GMT
            Not After : Feb  4 19:23:24 2024 GMT
        Subject: CN=Client349Certcad70e
        Subject Public Key Info:
            Public Key Algorithm: rsaEncryption
                Public-Key: (4096 bit)
                Modulus:
                    00:b7:d5:18:34:6c:4b:f2:36:b0:16:f1:13:fb:c6:
                    dc:56:60:67:b9:8f:09:05:5b:4e:ae:ac:e0:1e:8e:
                    36:33:85:a6:fb:a2:f9:c0:a3:eb:3e:66:3c:f6:a3:
                    92:9d:ca:10:fd:b3:b7:3f:0a:e6:9f:3e:30:1b:af:
                    14:88:82:09:12:d3:b0:86:41:ff:f1:5f:bc:78:1b:
                    3b:07:b5:08:ac:91:c7:05:52:8d:79:92:40:27:a1:
                    b0:2a:f7:91:19:22:49:a2:5f:66:83:d3:67:69:cd:
                    15:ec:43:a9:00:42:12:1b:a2:53:5b:c2:67:e6:bb:
                    8e:61:13:7e:98:e5:c3:36:df:30:49:b9:73:29:a8:
                    0a:91:a3:4f:75:df:bd:d2:b2:51:ac:84:44:24:ce:
                    ba:b0:66:f5:8b:da:5e:d1:b0:ff:4b:ae:fe:c0:eb:
                    bc:0c:19:1d:38:03:99:0a:10:36:8a:b5:cb:16:87:
                    45:cc:e5:cc:8a:46:5e:3d:3e:39:b9:32:1a:f6:76:
                    6a:19:29:60:6b:22:78:da:f5:19:7f:18:0c:77:96:
                    b8:56:cd:13:01:e4:eb:76:db:88:5d:50:a9:84:93:
                    3d:7c:95:da:2f:b8:4a:f1:0f:8b:7d:c4:2c:54:b8:
                    ee:bd:54:24:44:00:55:1c:ea:fc:d0:3c:62:d0:46:
                    b1:6b:95:0a:3b:6f:a4:45:fe:e4:79:0f:4d:c5:20:
                    e9:e7:fd:18:b7:26:48:b7:8a:1a:10:47:b7:fd:b6:
                    fb:d7:70:5d:7e:5c:d9:ec:ea:d7:20:21:59:b1:9b:
                    b1:ad:3e:55:56:ca:fc:97:e2:e0:c3:97:2d:01:51:
                    2e:8c:4a:9e:7b:c7:71:ce:c6:6f:7b:f5:fa:1f:b9:
                    83:8f:9d:7d:d6:e9:7a:71:af:4e:3b:c1:3e:89:86:
                    9c:61:fb:99:7f:da:ba:f4:c2:88:0b:1c:ff:59:c9:
                    94:16:a7:0b:aa:a3:b0:80:cb:41:8f:41:17:f3:12:
                    0a:28:57:de:cf:dc:68:a5:a0:85:ce:13:a7:4a:f0:
                    49:85:47:d1:01:0e:72:5d:a6:a1:eb:01:4f:91:2f:
                    1a:79:7d:da:f5:56:a6:b6:8f:12:a3:9b:bd:a4:4b:
                    f5:f1:20:ec:cf:d9:ad:85:97:68:c7:6c:cb:17:5a:
                    85:70:25:e2:d5:b9:68:ee:05:97:1e:99:35:c7:d7:
                    42:a4:0d:38:46:d2:02:9e:42:b2:d3:4a:44:80:91:
                    ce:d8:eb:93:cd:a9:87:f2:59:8a:9d:03:0f:d2:c6:
                    77:88:e2:98:53:f0:e1:97:7d:d9:1f:dd:a5:7c:3f:
                    46:83:0d:ec:41:95:ee:72:8f:d3:18:bd:50:a1:f8:
                    02:ec:fd
                Exponent: 65537 (0x10001)
        X509v3 extensions:
            X509v3 Basic Constraints: 
                CA:FALSE
            Netscape Comment: 
                Easy-RSA Generated Certificate
            X509v3 Subject Key Identifier: 
                29:30:BE:C6:BF:89:62:93:E6:07:39:4A:9B:87:E7:D4:31:6D:5A:94
            X509v3 Authority Key Identifier: 
                keyid:12:CD:60:04:D2:A0:80:9E:70:ED:C6:99:B8:7B:2C:C6:52:FD:19:A1
                DirName:/C=US/ST=OH/L=Columbus/O=VikingVPN/OU=MyOrganizationalUnit/CN=VikingVPN CA/name=EasyRSA/emailAddress=me@myhost.mydomain
                serial:CF:35:85:EE:80:BF:2A:3E

            X509v3 Extended Key Usage: 
                TLS Web Client Authentication
            X509v3 Key Usage: 
                Digital Signature
    Signature Algorithm: md5WithRSAEncryption
         a9:f2:52:29:44:22:dd:cb:68:36:0e:93:7c:d9:28:1a:ad:0c:
         44:2e:81:af:31:a3:79:d2:ff:64:14:0b:8e:ee:6d:9c:83:8d:
         a3:e1:49:a1:ce:e8:e4:84:01:8c:c3:6f:7f:d2:86:d7:5c:1a:
         2c:95:53:7f:4c:f5:c0:0e:98:e5:5f:65:45:ac:a7:d6:4c:fb:
         d4:92:05:ac:fa:6b:81:ff:0c:26:bc:b9:e8:fd:79:7d:97:99:
         24:5a:02:95:f2:46:a3:af:36:da:15:12:e4:32:97:54:56:9c:
         a6:b8:c8:f2:a6:83:be:fb:cf:03:d3:5d:3b:1b:58:41:87:e6:
         24:d7:1d:e4:bd:23:47:b3:6f:4f:79:13:f7:8e:28:b5:29:ef:
         27:df:03:1b:db:38:21:2f:c9:f7:d2:eb:dc:42:80:91:fb:1f:
         63:94:24:bd:6e:22:7c:bc:ae:91:2e:a5:97:40:8d:bd:06:61:
         56:50:66:6f:88:43:ac:c2:86:41:86:ff:8a:41:b1:2e:32:40:
         31:3f:96:9e:af:32:bd:ab:a0:94:6a:65:66:19:0e:1e:7b:52:
         d2:dc:47:7d:b3:c9:b8:63:10:b8:4b:8c:ea:12:41:0d:69:8b:
         cf:b8:8c:34:51:6a:b6:34:9e:39:f8:1c:03:71:98:d0:1c:ab:
         fb:0a:ba:bd:0e:e7:51:f7:96:8a:1a:fc:d2:dc:cb:85:be:54:
         29:8d:5a:8c:03:97:5d:d9:0e:de:5f:bf:44:dc:33:7c:17:bf:
         ea:c5:95:97:31:8f:02:9b:ec:dd:5a:a8:50:a2:15:dc:98:8e:
         c6:c0:eb:47:64:59:0b:7a:e6:fc:06:a4:c8:32:01:83:38:40:
         15:74:a6:7d:02:9d:56:63:10:61:c1:f1:91:e3:07:bd:31:73:
         e3:0e:32:90:3c:c0:b7:da:06:28:d9:40:7b:3b:80:a5:f1:88:
         e1:4f:4e:26:20:73:72:fb:b0:77:8b:33:19:5d:64:93:1d:00:
         0a:ac:10:c6:89:8b:f5:ae:60:14:c1:44:b7:29:92:77:a1:e4:
         8c:b2:88:cf:5f:d4:57:f2:40:4d:75:3c:38:0d:bf:eb:9e:d2:
         ca:b9:4e:a8:c3:ea:0d:97:b2:1b:4c:d2:b2:77:e6:28:88:41:
         8c:45:89:04:da:b6:bd:d3:7a:a7:b1:70:be:20:26:2d:e5:e2:
         89:c0:72:ae:76:52:40:12:8f:ec:0e:02:c2:40:b9:d7:fb:29:
         20:ed:32:15:48:04:4e:ad:c0:6b:3e:6c:e9:af:ae:fa:ca:ca:
         dd:ea:62:08:7e:40:7c:f8:b0:fb:a3:0c:eb:19:3b:31:1b:e4:
         e5:d1:e9:75:14:b0:d8:f6
-----BEGIN CERTIFICATE-----
MIIGrDCCBJSgAwIBAgICA88wDQYJKoZIhvcNAQEEBQAwgawxCzAJBgNVBAYTAlVT
MQswCQYDVQQIEwJPSDERMA8GA1UEBxMIQ29sdW1idXMxEjAQBgNVBAoTCVZpa2lu
Z1ZQTjEdMBsGA1UECxMUTXlPcmdhbml6YXRpb25hbFVuaXQxFTATBgNVBAMTDFZp
a2luZ1ZQTiBDQTEQMA4GA1UEKRMHRWFzeVJTQTEhMB8GCSqGSIb3DQEJARYSbWVA
bXlob3N0Lm15ZG9tYWluMB4XDTE0MDIwNjE5MjMyNFoXDTI0MDIwNDE5MjMyNFow
HjEcMBoGA1UEAxMTQ2xpZW50MzQ5Q2VydGNhZDcwZTCCAiIwDQYJKoZIhvcNAQEB
BQADggIPADCCAgoCggIBALfVGDRsS/I2sBbxE/vG3FZgZ7mPCQVbTq6s4B6ONjOF
pvui+cCj6z5mPPajkp3KEP2ztz8K5p8+MBuvFIiCCRLTsIZB//FfvHgbOwe1CKyR
xwVSjXmSQCehsCr3kRkiSaJfZoPTZ2nNFexDqQBCEhuiU1vCZ+a7jmETfpjlwzbf
MEm5cymoCpGjT3XfvdKyUayERCTOurBm9YvaXtGw/0uu/sDrvAwZHTgDmQoQNoq1
yxaHRczlzIpGXj0+ObkyGvZ2ahkpYGsieNr1GX8YDHeWuFbNEwHk63bbiF1QqYST
PXyV2i+4SvEPi33ELFS47r1UJEQAVRzq/NA8YtBGsWuVCjtvpEX+5HkPTcUg6ef9
GLcmSLeKGhBHt/22+9dwXX5c2ezq1yAhWbGbsa0+VVbK/Jfi4MOXLQFRLoxKnnvH
cc7Gb3v1+h+5g4+dfdbpenGvTjvBPomGnGH7mX/auvTCiAsc/1nJlBanC6qjsIDL
QY9BF/MSCihX3s/caKWghc4Tp0rwSYVH0QEOcl2moesBT5EvGnl92vVWpraPEqOb
vaRL9fEg7M/ZrYWXaMdsyxdahXAl4tW5aO4Flx6ZNcfXQqQNOEbSAp5CstNKRICR
ztjrk82ph/JZip0DD9LGd4jimFPw4Zd92R/dpXw/RoMN7EGV7nKP0xi9UKH4Auz9
AgMBAAGjggFjMIIBXzAJBgNVHRMEAjAAMC0GCWCGSAGG+EIBDQQgFh5FYXN5LVJT
QSBHZW5lcmF0ZWQgQ2VydGlmaWNhdGUwHQYDVR0OBBYEFCkwvsa/iWKT5gc5SpuH
59QxbVqUMIHhBgNVHSMEgdkwgdaAFBLNYATSoICecO3Gmbh7LMZS/RmhoYGypIGv
MIGsMQswCQYDVQQGEwJVUzELMAkGA1UECBMCT0gxETAPBgNVBAcTCENvbHVtYnVz
MRIwEAYDVQQKEwlWaWtpbmdWUE4xHTAbBgNVBAsTFE15T3JnYW5pemF0aW9uYWxV
bml0MRUwEwYDVQQDEwxWaWtpbmdWUE4gQ0ExEDAOBgNVBCkTB0Vhc3lSU0ExITAf
BgkqhkiG9w0BCQEWEm1lQG15aG9zdC5teWRvbWFpboIJAM81he6Avyo+MBMGA1Ud
JQQMMAoGCCsGAQUFBwMCMAsGA1UdDwQEAwIHgDANBgkqhkiG9w0BAQQFAAOCAgEA
qfJSKUQi3ctoNg6TfNkoGq0MRC6BrzGjedL/ZBQLju5tnIONo+FJoc7o5IQBjMNv
f9KG11waLJVTf0z1wA6Y5V9lRayn1kz71JIFrPprgf8MJry56P15fZeZJFoClfJG
o6822hUS5DKXVFacprjI8qaDvvvPA9NdOxtYQYfmJNcd5L0jR7NvT3kT944otSnv
J98DG9s4IS/J99Lr3EKAkfsfY5QkvW4ifLyukS6ll0CNvQZhVlBmb4hDrMKGQYb/
ikGxLjJAMT+Wnq8yvauglGplZhkOHntS0txHfbPJuGMQuEuM6hJBDWmLz7iMNFFq
tjSeOfgcA3GY0Byr+wq6vQ7nUfeWihr80tzLhb5UKY1ajAOXXdkO3l+/RNwzfBe/
6sWVlzGPApvs3VqoUKIV3JiOxsDrR2RZC3rm/AakyDIBgzhAFXSmfQKdVmMQYcHx
keMHvTFz4w4ykDzAt9oGKNlAezuApfGI4U9OJiBzcvuwd4szGV1kkx0ACqwQxomL
9a5gFMFEtymSd6HkjLKIz1/UV/JATXU8OA2/657SyrlOqMPqDZeyG0zSsnfmKIhB
jEWJBNq2vdN6p7FwviAmLeXiicByrnZSQBKP7A4CwkC51/spIO0yFUgETq3Aaz5s
6a+u+srK3epiCH5AfPiw+6MM6xk7MRvk5dHpdRSw2PY=
-----END CERTIFICATE-----
