Certificate:
    Data:
        Version: 3 (0x2)
        Serial Number: 987 (0x3db)
    Signature Algorithm: md5WithRSAEncryption
        Issuer: C=US, ST=OH, L=Columbus, O=VikingVPN, OU=MyOrganizationalUnit, CN=VikingVPN CA/name=EasyRSA/emailAddress=me@myhost.mydomain
        Validity
            Not Before: Feb  8 08:36:26 2014 GMT
            Not After : Feb  6 08:36:26 2024 GMT
        Subject: CN=Client359Certc029e7
        Subject Public Key Info:
            Public Key Algorithm: rsaEncryption
                Public-Key: (4096 bit)
                Modulus:
                    00:d4:d7:c4:d6:c0:9d:a7:aa:49:29:68:9a:86:a8:
                    f8:38:67:d3:b5:c5:c3:51:f1:19:5f:b1:87:17:ee:
                    f5:e2:fb:b3:99:fd:4b:f5:51:02:79:af:eb:29:e6:
                    f8:f9:d9:6f:8b:1d:9c:2f:c9:90:4f:98:26:9c:44:
                    c0:f4:a3:8d:2a:b0:7e:ee:fd:7b:a7:e9:8a:35:80:
                    2c:75:e0:3f:78:a4:da:51:dd:0d:17:ca:7d:de:f3:
                    8a:a0:19:47:5b:95:7f:a4:75:72:2b:de:4d:9e:91:
                    0c:4d:fc:fa:0c:60:76:97:74:14:61:5b:6c:be:67:
                    31:c7:1d:5e:e4:d3:90:06:e9:ea:ef:74:b3:0f:1c:
                    07:ec:ea:f7:73:93:76:c8:3b:63:02:d7:a3:f9:b1:
                    b3:19:57:48:c8:af:ed:41:bf:54:b3:93:0e:9b:35:
                    44:78:1f:4c:8b:1a:f2:0b:8f:88:d7:56:5e:cb:cd:
                    f9:b5:f9:fb:e9:e6:11:6e:c0:4b:3e:f6:ed:5d:99:
                    df:fc:00:9a:a7:76:a9:9e:35:68:b3:2a:1d:f7:ac:
                    19:d1:ea:cc:da:8f:7a:b3:20:a6:72:21:5d:9a:2d:
                    a5:fe:14:c1:d0:4c:c7:44:7b:b3:ed:9a:d6:4a:e9:
                    da:84:c6:b2:40:96:13:c1:cf:3c:9e:f0:6a:c5:e3:
                    02:15:02:6c:63:1e:bd:2f:ff:d0:eb:39:77:aa:9c:
                    80:54:8b:1e:bc:12:15:e0:8b:ff:04:d3:a7:49:65:
                    36:c9:55:35:4f:b7:33:1c:48:13:f1:2b:e2:61:e4:
                    30:f6:6a:55:58:09:fb:ea:94:95:2f:e8:06:4a:53:
                    47:83:5d:9e:68:dc:a6:39:07:9a:c1:d9:e1:47:77:
                    67:ea:21:2f:fa:f8:ae:b7:3f:e2:83:0c:a9:f6:f5:
                    e6:fd:b5:68:3d:55:e1:85:47:87:c5:22:56:b4:63:
                    9a:f5:f6:99:07:0d:1d:85:df:72:a9:2a:47:62:d3:
                    d0:3d:9d:41:f0:d0:13:b3:6f:fe:25:99:37:53:db:
                    df:f9:e1:0a:99:29:71:7b:33:6d:75:0b:88:2c:3b:
                    c8:60:c7:c3:8d:d3:e6:e4:76:8c:30:7d:63:93:75:
                    ab:61:73:e8:b4:f4:3e:c6:bc:3c:16:6b:ca:36:16:
                    6b:03:82:29:88:eb:70:21:61:ea:79:23:23:b6:e7:
                    c0:12:2a:69:ab:26:32:67:d4:a0:35:68:9b:e3:b7:
                    6a:e6:93:dd:72:73:c0:7d:30:66:9f:4f:81:39:76:
                    86:f2:06:62:57:c5:b1:2f:03:c3:65:12:9d:06:66:
                    99:42:46:81:11:fb:5e:18:a2:39:ed:d7:c0:9b:f9:
                    7d:ed:93
                Exponent: 65537 (0x10001)
        X509v3 extensions:
            X509v3 Basic Constraints: 
                CA:FALSE
            Netscape Comment: 
                Easy-RSA Generated Certificate
            X509v3 Subject Key Identifier: 
                05:FE:55:9A:65:E3:91:50:ED:1A:AB:B5:56:FB:F0:CA:44:95:5E:6D
            X509v3 Authority Key Identifier: 
                keyid:12:CD:60:04:D2:A0:80:9E:70:ED:C6:99:B8:7B:2C:C6:52:FD:19:A1
                DirName:/C=US/ST=OH/L=Columbus/O=VikingVPN/OU=MyOrganizationalUnit/CN=VikingVPN CA/name=EasyRSA/emailAddress=me@myhost.mydomain
                serial:CF:35:85:EE:80:BF:2A:3E

            X509v3 Extended Key Usage: 
                TLS Web Client Authentication
            X509v3 Key Usage: 
                Digital Signature
    Signature Algorithm: md5WithRSAEncryption
         22:eb:d8:7c:1f:b8:36:8d:2e:9f:92:72:dd:ae:72:cd:5f:7a:
         00:ce:c9:ec:7f:d1:dc:f8:96:f9:4c:17:19:f9:1d:88:fd:2f:
         4d:a2:cd:38:75:95:bd:d6:24:22:31:41:d7:eb:4a:37:5c:55:
         4e:df:03:70:ba:5a:52:36:74:c0:c2:df:5b:08:7e:8c:7f:26:
         b2:f3:10:27:ab:44:f4:9e:09:bf:3d:ba:ce:e9:a3:a4:3e:4e:
         05:a7:43:0a:66:68:49:b2:ce:f9:af:92:e1:86:33:90:7e:c6:
         74:23:94:ea:9d:cd:b9:98:f3:36:e8:73:9a:cd:ec:89:2c:24:
         d2:f0:bf:e0:fe:e4:47:cb:46:9c:03:ec:50:22:31:bd:76:a0:
         bc:c8:f2:51:3c:45:8d:5f:67:f3:3f:00:30:d5:45:4d:1b:de:
         21:5c:9d:12:16:2c:0a:7a:e7:0b:f2:36:11:42:9b:92:77:a8:
         50:41:44:24:a0:44:c6:0f:6a:4d:d2:4e:05:99:83:f5:0c:8e:
         31:23:37:06:ac:36:6c:07:90:7d:01:05:ea:1b:0d:11:03:91:
         e1:af:be:2a:65:c3:3c:2d:93:39:08:48:e5:26:46:27:71:16:
         f9:3c:43:64:92:7b:dc:60:7e:0b:d9:23:be:37:33:64:8e:4a:
         b2:79:3a:a2:fb:70:78:62:c0:7e:d4:ee:f5:01:90:66:ea:a8:
         19:0f:d5:bc:16:30:9d:5f:42:b1:7c:95:89:62:73:43:23:1f:
         eb:78:4f:c2:cf:78:70:d6:16:7e:ee:ce:ce:a3:b9:ea:cb:4e:
         79:5a:17:95:2c:51:a0:59:16:d4:0b:ec:e7:b1:3d:96:cd:86:
         81:db:b0:db:51:33:e4:b5:20:fb:4b:f1:14:ee:6c:0d:ee:10:
         c3:9b:6f:e0:46:ee:fb:79:49:22:25:26:2e:1e:86:f8:53:e1:
         cc:4c:ec:3c:9c:34:b3:8b:42:98:bc:70:6e:dd:18:92:fa:27:
         8f:01:4c:a4:e0:33:be:1e:be:01:f5:54:4b:f0:cb:4d:7f:59:
         a6:47:74:8b:05:7d:be:60:60:28:47:7f:0e:ec:ed:9e:d8:1a:
         e1:8a:12:fe:b0:86:ad:66:79:e5:2b:e5:f0:a3:87:de:05:ca:
         25:0c:aa:0d:50:60:29:23:88:4a:92:4a:d7:63:71:bc:35:d6:
         55:15:37:47:94:35:79:7c:f7:41:7a:51:81:4d:83:82:97:9f:
         cd:72:81:94:d6:11:10:d7:20:65:9c:46:54:ba:d0:1e:c0:db:
         41:d3:86:85:ef:0d:f6:b9:5c:08:9c:f8:ee:39:6e:84:c0:7a:
         85:70:da:0f:7f:a1:4d:d6
-----BEGIN CERTIFICATE-----
MIIGrDCCBJSgAwIBAgICA9swDQYJKoZIhvcNAQEEBQAwgawxCzAJBgNVBAYTAlVT
MQswCQYDVQQIEwJPSDERMA8GA1UEBxMIQ29sdW1idXMxEjAQBgNVBAoTCVZpa2lu
Z1ZQTjEdMBsGA1UECxMUTXlPcmdhbml6YXRpb25hbFVuaXQxFTATBgNVBAMTDFZp
a2luZ1ZQTiBDQTEQMA4GA1UEKRMHRWFzeVJTQTEhMB8GCSqGSIb3DQEJARYSbWVA
bXlob3N0Lm15ZG9tYWluMB4XDTE0MDIwODA4MzYyNloXDTI0MDIwNjA4MzYyNlow
HjEcMBoGA1UEAxMTQ2xpZW50MzU5Q2VydGMwMjllNzCCAiIwDQYJKoZIhvcNAQEB
BQADggIPADCCAgoCggIBANTXxNbAnaeqSSlomoao+Dhn07XFw1HxGV+xhxfu9eL7
s5n9S/VRAnmv6ynm+PnZb4sdnC/JkE+YJpxEwPSjjSqwfu79e6fpijWALHXgP3ik
2lHdDRfKfd7ziqAZR1uVf6R1civeTZ6RDE38+gxgdpd0FGFbbL5nMccdXuTTkAbp
6u90sw8cB+zq93OTdsg7YwLXo/mxsxlXSMiv7UG/VLOTDps1RHgfTIsa8guPiNdW
XsvN+bX5++nmEW7ASz727V2Z3/wAmqd2qZ41aLMqHfesGdHqzNqPerMgpnIhXZot
pf4UwdBMx0R7s+2a1krp2oTGskCWE8HPPJ7wasXjAhUCbGMevS//0Os5d6qcgFSL
HrwSFeCL/wTTp0llNslVNU+3MxxIE/Er4mHkMPZqVVgJ++qUlS/oBkpTR4Ndnmjc
pjkHmsHZ4Ud3Z+ohL/r4rrc/4oMMqfb15v21aD1V4YVHh8UiVrRjmvX2mQcNHYXf
cqkqR2LT0D2dQfDQE7Nv/iWZN1Pb3/nhCpkpcXszbXULiCw7yGDHw43T5uR2jDB9
Y5N1q2Fz6LT0Psa8PBZryjYWawOCKYjrcCFh6nkjI7bnwBIqaasmMmfUoDVom+O3
auaT3XJzwH0wZp9PgTl2hvIGYlfFsS8Dw2USnQZmmUJGgRH7XhiiOe3XwJv5fe2T
AgMBAAGjggFjMIIBXzAJBgNVHRMEAjAAMC0GCWCGSAGG+EIBDQQgFh5FYXN5LVJT
QSBHZW5lcmF0ZWQgQ2VydGlmaWNhdGUwHQYDVR0OBBYEFAX+VZpl45FQ7RqrtVb7
8MpElV5tMIHhBgNVHSMEgdkwgdaAFBLNYATSoICecO3Gmbh7LMZS/RmhoYGypIGv
MIGsMQswCQYDVQQGEwJVUzELMAkGA1UECBMCT0gxETAPBgNVBAcTCENvbHVtYnVz
MRIwEAYDVQQKEwlWaWtpbmdWUE4xHTAbBgNVBAsTFE15T3JnYW5pemF0aW9uYWxV
bml0MRUwEwYDVQQDEwxWaWtpbmdWUE4gQ0ExEDAOBgNVBCkTB0Vhc3lSU0ExITAf
BgkqhkiG9w0BCQEWEm1lQG15aG9zdC5teWRvbWFpboIJAM81he6Avyo+MBMGA1Ud
JQQMMAoGCCsGAQUFBwMCMAsGA1UdDwQEAwIHgDANBgkqhkiG9w0BAQQFAAOCAgEA
IuvYfB+4No0un5Jy3a5yzV96AM7J7H/R3PiW+UwXGfkdiP0vTaLNOHWVvdYkIjFB
1+tKN1xVTt8DcLpaUjZ0wMLfWwh+jH8msvMQJ6tE9J4Jvz26zumjpD5OBadDCmZo
SbLO+a+S4YYzkH7GdCOU6p3NuZjzNuhzms3siSwk0vC/4P7kR8tGnAPsUCIxvXag
vMjyUTxFjV9n8z8AMNVFTRveIVydEhYsCnrnC/I2EUKbkneoUEFEJKBExg9qTdJO
BZmD9QyOMSM3Bqw2bAeQfQEF6hsNEQOR4a++KmXDPC2TOQhI5SZGJ3EW+TxDZJJ7
3GB+C9kjvjczZI5Ksnk6ovtweGLAftTu9QGQZuqoGQ/VvBYwnV9CsXyViWJzQyMf
63hPws94cNYWfu7OzqO56stOeVoXlSxRoFkW1Avs57E9ls2Ggduw21Ez5LUg+0vx
FO5sDe4Qw5tv4Ebu+3lJIiUmLh6G+FPhzEzsPJw0s4tCmLxwbt0YkvonjwFMpOAz
vh6+AfVUS/DLTX9Zpkd0iwV9vmBgKEd/Duztntga4YoS/rCGrWZ55Svl8KOH3gXK
JQyqDVBgKSOISpJK12NxvDXWVRU3R5Q1eXz3QXpRgU2DgpefzXKBlNYRENcgZZxG
VLrQHsDbQdOGhe8N9rlcCJz47jluhMB6hXDaD3+hTdY=
-----END CERTIFICATE-----
