Certificate:
    Data:
        Version: 3 (0x2)
        Serial Number: 999 (0x3e7)
    Signature Algorithm: md5WithRSAEncryption
        Issuer: C=US, ST=OH, L=Columbus, O=VikingVPN, OU=MyOrganizationalUnit, CN=VikingVPN CA/name=EasyRSA/emailAddress=me@myhost.mydomain
        Validity
            Not Before: Feb  9 19:49:20 2014 GMT
            Not After : Feb  7 19:49:20 2024 GMT
        Subject: CN=Client365Certf6ba47
        Subject Public Key Info:
            Public Key Algorithm: rsaEncryption
                Public-Key: (4096 bit)
                Modulus:
                    00:a3:98:76:0a:bc:3f:c3:55:f5:3b:8f:0a:81:3b:
                    f4:7c:3d:f4:8a:c4:cc:63:27:b6:9d:d8:f6:88:99:
                    fe:8d:b2:b5:47:5e:7a:2f:b3:11:a2:ab:95:7d:50:
                    c8:78:c1:79:15:64:2e:98:e2:e6:cb:b8:19:ca:b5:
                    96:08:84:a9:54:75:70:4b:66:74:b1:dd:bc:02:16:
                    a9:55:5d:21:da:3d:ec:28:81:0b:64:79:80:26:53:
                    d0:82:f7:0a:bf:3f:10:82:28:dc:b4:d3:55:2e:5e:
                    c1:47:e1:99:5f:d7:b0:e1:91:95:d5:58:9e:4a:83:
                    6e:d6:bc:f9:08:e6:e0:90:6f:07:03:c6:8e:f6:cb:
                    42:a0:8b:53:d0:62:37:5b:c5:75:57:40:64:f5:43:
                    0e:db:c1:03:6e:8e:9e:63:9f:ff:a2:41:df:ef:26:
                    52:e0:73:a5:10:aa:2a:18:ee:c5:a8:42:08:46:01:
                    b5:17:ab:ab:a2:8b:e8:da:19:1c:ac:63:40:48:a8:
                    b7:5a:d6:d9:a9:f7:7a:64:63:3a:a8:df:73:71:8c:
                    d9:e0:ad:e3:d1:c9:bb:5e:6a:4f:e0:24:69:2c:a3:
                    22:3c:aa:5e:ad:a8:66:ac:05:67:be:31:1e:b8:c6:
                    6e:6d:de:e0:34:59:9d:d5:96:ea:d8:64:68:6f:8a:
                    54:c6:e6:63:2a:e1:7f:33:a8:2c:cd:6b:ed:82:ae:
                    44:3a:f0:b3:58:6f:be:ef:7d:5f:8c:30:48:1a:83:
                    c4:9b:7b:81:20:1a:70:90:d4:18:86:7d:bd:fb:7d:
                    f0:ac:4c:4b:bf:05:c7:a7:99:00:6a:7f:0f:21:d7:
                    97:49:70:79:79:26:1b:ed:1c:b0:af:93:ba:ef:32:
                    88:c6:7e:b5:97:11:d4:0c:bd:db:e3:8a:55:ad:a4:
                    9e:7f:29:02:29:65:10:51:75:38:40:5e:91:8b:f1:
                    95:8b:85:fc:70:d0:45:69:14:d3:f5:63:04:e5:db:
                    e3:9c:c5:29:fd:43:81:41:c2:7c:4a:78:5e:b4:19:
                    cf:7d:3b:bb:f0:ea:47:4c:5c:0c:e0:89:53:bc:32:
                    3c:09:23:f1:48:3f:46:ed:c3:7d:46:c9:4b:33:15:
                    0c:b2:3b:ec:05:bd:73:32:7a:96:15:91:58:61:db:
                    bc:e9:ae:03:fd:dc:45:f6:b5:b8:61:2e:7c:91:ff:
                    3e:91:09:bc:50:4b:a9:3a:b1:18:3c:16:1f:74:4b:
                    a3:e2:cd:21:75:15:e2:5f:3b:3e:66:05:7e:43:7c:
                    ad:2b:47:44:d2:b4:cc:34:08:58:a0:2c:27:bd:11:
                    70:91:3e:42:4b:94:24:30:f3:68:66:78:57:51:69:
                    4d:05:c1
                Exponent: 65537 (0x10001)
        X509v3 extensions:
            X509v3 Basic Constraints: 
                CA:FALSE
            Netscape Comment: 
                Easy-RSA Generated Certificate
            X509v3 Subject Key Identifier: 
                6A:1B:E0:0A:53:9E:09:BB:F6:DB:F2:B3:19:74:1B:BE:92:8B:AE:5E
            X509v3 Authority Key Identifier: 
                keyid:12:CD:60:04:D2:A0:80:9E:70:ED:C6:99:B8:7B:2C:C6:52:FD:19:A1
                DirName:/C=US/ST=OH/L=Columbus/O=VikingVPN/OU=MyOrganizationalUnit/CN=VikingVPN CA/name=EasyRSA/emailAddress=me@myhost.mydomain
                serial:CF:35:85:EE:80:BF:2A:3E

            X509v3 Extended Key Usage: 
                TLS Web Client Authentication
            X509v3 Key Usage: 
                Digital Signature
    Signature Algorithm: md5WithRSAEncryption
         b4:e9:fd:bc:ff:eb:1f:61:14:fc:e1:a9:f7:7f:84:99:a1:eb:
         2a:9f:9d:a2:91:a0:54:a6:7c:66:2a:d2:8d:0a:ba:93:5e:e8:
         cd:fe:77:09:45:75:db:c8:1b:b0:13:38:27:2c:85:25:39:74:
         01:82:e2:25:2f:ed:de:4c:fa:cd:cd:a2:1e:64:9c:97:13:dc:
         31:7a:7d:b0:58:85:22:4a:56:a4:95:04:b9:5d:52:26:a5:6c:
         36:09:10:d8:ec:38:3f:8f:5e:eb:21:d2:21:60:97:cc:e6:63:
         29:a7:65:6f:32:3d:06:f7:91:81:db:d5:52:5a:2c:ad:85:5a:
         94:ae:22:b8:3d:64:52:e0:f0:0b:09:f7:19:ca:1d:3f:1b:56:
         f0:14:b1:fb:15:fd:2c:73:51:61:6b:93:ef:7f:c6:4d:a8:7a:
         6a:3e:61:b2:00:bd:30:a8:c7:d9:42:75:bf:0a:65:4a:78:7f:
         3d:cd:ff:64:7c:75:fc:4b:c0:ca:4f:72:78:63:55:31:dc:41:
         a3:73:bc:4f:8e:74:33:ce:f3:e1:9d:df:8c:a5:57:bc:80:e2:
         5b:7e:e0:f7:f4:af:ef:cf:77:21:7e:6d:6c:ae:7f:80:97:ed:
         36:b7:55:01:2a:83:86:6a:81:a1:97:1e:e1:fb:da:ba:3a:3f:
         d6:68:92:43:b7:65:eb:e7:86:ac:e7:39:68:13:b8:b0:76:0f:
         5d:14:0b:8c:3a:35:bb:12:9e:ee:a2:a5:9b:31:ad:da:e2:82:
         32:df:f6:f0:6d:fc:16:cb:43:2e:1b:21:b0:30:d0:42:84:99:
         2f:96:7b:1c:0e:05:92:20:a4:d1:fa:fa:46:c5:a8:ab:49:f6:
         64:10:56:9b:95:ff:43:f7:6d:ae:df:61:b5:45:70:9d:0e:55:
         10:c5:50:90:5e:5a:7c:b0:3e:61:c8:46:f6:ec:75:87:7c:12:
         ff:94:a7:b1:ac:77:5a:c2:c4:64:de:de:45:7c:e8:ff:4e:a6:
         a3:08:72:31:ef:24:30:30:bc:73:e1:2a:5d:e3:8a:c1:1a:3e:
         90:22:ad:4f:40:b2:e3:50:c7:b8:49:46:6b:22:57:bb:de:6b:
         1c:12:7a:b3:1f:fe:af:ed:a6:a3:c9:b8:81:fa:6e:49:3c:de:
         ad:39:45:a1:90:6c:54:04:2c:d4:c0:92:c8:ec:34:5d:ec:48:
         6d:fe:24:ae:56:36:16:a2:80:58:60:a0:3b:c9:bc:af:df:a0:
         64:f5:a7:23:a4:37:bd:e1:4d:0e:17:5d:6e:ba:6f:30:6e:ba:
         dc:05:d6:73:2a:f6:7e:c7:f1:9d:5c:48:3c:7e:09:a9:04:b3:
         ac:e4:55:db:62:66:ee:57
-----BEGIN CERTIFICATE-----
MIIGrDCCBJSgAwIBAgICA+cwDQYJKoZIhvcNAQEEBQAwgawxCzAJBgNVBAYTAlVT
MQswCQYDVQQIEwJPSDERMA8GA1UEBxMIQ29sdW1idXMxEjAQBgNVBAoTCVZpa2lu
Z1ZQTjEdMBsGA1UECxMUTXlPcmdhbml6YXRpb25hbFVuaXQxFTATBgNVBAMTDFZp
a2luZ1ZQTiBDQTEQMA4GA1UEKRMHRWFzeVJTQTEhMB8GCSqGSIb3DQEJARYSbWVA
bXlob3N0Lm15ZG9tYWluMB4XDTE0MDIwOTE5NDkyMFoXDTI0MDIwNzE5NDkyMFow
HjEcMBoGA1UEAxMTQ2xpZW50MzY1Q2VydGY2YmE0NzCCAiIwDQYJKoZIhvcNAQEB
BQADggIPADCCAgoCggIBAKOYdgq8P8NV9TuPCoE79Hw99IrEzGMntp3Y9oiZ/o2y
tUdeei+zEaKrlX1QyHjBeRVkLpji5su4Gcq1lgiEqVR1cEtmdLHdvAIWqVVdIdo9
7CiBC2R5gCZT0IL3Cr8/EIIo3LTTVS5ewUfhmV/XsOGRldVYnkqDbta8+Qjm4JBv
BwPGjvbLQqCLU9BiN1vFdVdAZPVDDtvBA26OnmOf/6JB3+8mUuBzpRCqKhjuxahC
CEYBtRerq6KL6NoZHKxjQEiot1rW2an3emRjOqjfc3GM2eCt49HJu15qT+AkaSyj
IjyqXq2oZqwFZ74xHrjGbm3e4DRZndWW6thkaG+KVMbmYyrhfzOoLM1r7YKuRDrw
s1hvvu99X4wwSBqDxJt7gSAacJDUGIZ9vft98KxMS78Fx6eZAGp/DyHXl0lweXkm
G+0csK+Tuu8yiMZ+tZcR1Ay92+OKVa2knn8pAillEFF1OEBekYvxlYuF/HDQRWkU
0/VjBOXb45zFKf1DgUHCfEp4XrQZz307u/DqR0xcDOCJU7wyPAkj8Ug/Ru3DfUbJ
SzMVDLI77AW9czJ6lhWRWGHbvOmuA/3cRfa1uGEufJH/PpEJvFBLqTqxGDwWH3RL
o+LNIXUV4l87PmYFfkN8rStHRNK0zDQIWKAsJ70RcJE+QkuUJDDzaGZ4V1FpTQXB
AgMBAAGjggFjMIIBXzAJBgNVHRMEAjAAMC0GCWCGSAGG+EIBDQQgFh5FYXN5LVJT
QSBHZW5lcmF0ZWQgQ2VydGlmaWNhdGUwHQYDVR0OBBYEFGob4ApTngm79tvysxl0
G76Si65eMIHhBgNVHSMEgdkwgdaAFBLNYATSoICecO3Gmbh7LMZS/RmhoYGypIGv
MIGsMQswCQYDVQQGEwJVUzELMAkGA1UECBMCT0gxETAPBgNVBAcTCENvbHVtYnVz
MRIwEAYDVQQKEwlWaWtpbmdWUE4xHTAbBgNVBAsTFE15T3JnYW5pemF0aW9uYWxV
bml0MRUwEwYDVQQDEwxWaWtpbmdWUE4gQ0ExEDAOBgNVBCkTB0Vhc3lSU0ExITAf
BgkqhkiG9w0BCQEWEm1lQG15aG9zdC5teWRvbWFpboIJAM81he6Avyo+MBMGA1Ud
JQQMMAoGCCsGAQUFBwMCMAsGA1UdDwQEAwIHgDANBgkqhkiG9w0BAQQFAAOCAgEA
tOn9vP/rH2EU/OGp93+EmaHrKp+dopGgVKZ8ZirSjQq6k17ozf53CUV128gbsBM4
JyyFJTl0AYLiJS/t3kz6zc2iHmSclxPcMXp9sFiFIkpWpJUEuV1SJqVsNgkQ2Ow4
P49e6yHSIWCXzOZjKadlbzI9BveRgdvVUlosrYValK4iuD1kUuDwCwn3GcodPxtW
8BSx+xX9LHNRYWuT73/GTah6aj5hsgC9MKjH2UJ1vwplSnh/Pc3/ZHx1/EvAyk9y
eGNVMdxBo3O8T450M87z4Z3fjKVXvIDiW37g9/Sv7893IX5tbK5/gJftNrdVASqD
hmqBoZce4fvaujo/1miSQ7dl6+eGrOc5aBO4sHYPXRQLjDo1uxKe7qKlmzGt2uKC
Mt/28G38FstDLhshsDDQQoSZL5Z7HA4FkiCk0fr6RsWoq0n2ZBBWm5X/Q/dtrt9h
tUVwnQ5VEMVQkF5afLA+YchG9ux1h3wS/5Snsax3WsLEZN7eRXzo/06mowhyMe8k
MDC8c+EqXeOKwRo+kCKtT0Cy41DHuElGayJXu95rHBJ6sx/+r+2mo8m4gfpuSTze
rTlFoZBsVAQs1MCSyOw0XexIbf4krlY2FqKAWGCgO8m8r9+gZPWnI6Q3veFNDhdd
brpvMG663AXWcyr2fsfxnVxIPH4JqQSzrORV22Jm7lc=
-----END CERTIFICATE-----
