Certificate:
    Data:
        Version: 3 (0x2)
        Serial Number: 1039 (0x40f)
    Signature Algorithm: md5WithRSAEncryption
        Issuer: C=US, ST=OH, L=Columbus, O=VikingVPN, OU=MyOrganizationalUnit, CN=VikingVPN CA/name=EasyRSA/emailAddress=me@myhost.mydomain
        Validity
            Not Before: Feb 13 17:55:02 2014 GMT
            Not After : Feb 11 17:55:02 2024 GMT
        Subject: CN=Client328Cert773e74
        Subject Public Key Info:
            Public Key Algorithm: rsaEncryption
                Public-Key: (4096 bit)
                Modulus:
                    00:9f:cf:b4:86:72:5a:2e:38:c9:9c:8f:71:a4:f4:
                    a4:bb:7e:fb:f4:a4:d0:c8:0d:38:3a:e8:24:78:5a:
                    33:ef:54:67:ed:e7:88:43:4e:33:b4:30:88:ea:d5:
                    66:ee:c4:a3:69:6a:92:ff:ec:bf:4d:ff:81:dc:3f:
                    aa:39:e6:cb:11:d2:d6:4c:14:49:db:e5:d5:ea:6c:
                    3e:2f:7c:70:44:e3:95:d5:7f:f3:35:03:bf:cd:cb:
                    6e:67:4c:88:92:a2:70:1d:e4:0c:5e:4f:32:aa:a1:
                    bd:a6:d3:55:cd:cc:86:a3:4e:bb:f5:90:d1:1b:3a:
                    a6:8c:9a:c5:db:4f:b8:24:6d:1e:f7:dc:ab:47:3d:
                    79:b0:b9:d9:bd:24:c0:22:f0:90:e5:70:a9:b5:90:
                    ea:95:32:4f:9f:84:e3:f1:c5:62:d3:86:49:8a:8c:
                    26:b2:df:c3:57:5e:35:98:25:d6:f0:2e:67:b7:1e:
                    44:94:df:a5:0d:e5:ae:4f:83:a8:41:2b:c6:44:94:
                    3c:a1:d9:2b:d3:d0:a4:c0:dc:67:9b:e3:67:a3:59:
                    c9:e7:ac:12:09:62:57:b5:74:e1:83:b7:d4:e5:1e:
                    96:28:8f:72:7a:09:6b:f5:99:d1:58:d8:f8:d6:88:
                    28:31:5e:3d:a4:e0:b3:c3:a4:9d:bf:4a:1c:f0:7a:
                    c3:9a:fa:9f:93:7b:de:52:dd:be:17:07:17:a9:17:
                    89:6d:ea:2b:63:24:cb:de:40:2f:0f:5d:8f:19:15:
                    9a:b1:2f:e2:15:11:70:a2:01:63:f7:1f:c7:c3:3b:
                    5e:f1:0b:77:04:7c:ae:8a:dd:3e:da:0b:2e:5f:80:
                    78:76:f4:09:5e:18:16:60:27:5e:3f:1b:cc:59:c8:
                    2f:37:26:90:57:d9:0d:07:e9:b3:c5:6c:48:39:d0:
                    2b:19:98:33:be:41:74:3e:78:e9:36:91:58:94:e5:
                    4f:21:80:72:1c:9a:46:bd:39:47:66:25:d2:6d:1c:
                    53:78:fe:60:bc:d1:0e:4b:aa:b1:43:10:cf:84:92:
                    b9:e0:37:f1:a7:f7:36:8c:b7:b6:4c:eb:89:2a:20:
                    61:85:13:74:84:ae:a5:c1:b3:5d:ad:82:b7:4f:e6:
                    28:d0:04:de:d9:e4:60:3f:9a:1e:d8:32:91:ad:84:
                    e2:a0:df:88:d8:4f:c8:b3:23:84:4e:34:4c:e1:45:
                    50:92:b3:a1:a6:23:2e:08:c7:fd:18:5a:3b:4b:5b:
                    3b:6e:8e:82:95:78:97:8c:00:1e:3f:dc:bf:39:bc:
                    90:2a:ab:e8:49:50:bc:3c:03:97:fb:e0:d3:0d:1b:
                    3a:13:83:b0:61:30:f7:13:b2:e2:ed:c6:8e:7c:04:
                    e4:f6:29
                Exponent: 65537 (0x10001)
        X509v3 extensions:
            X509v3 Basic Constraints: 
                CA:FALSE
            Netscape Comment: 
                Easy-RSA Generated Certificate
            X509v3 Subject Key Identifier: 
                60:3D:6D:90:52:65:30:0A:D2:FD:F3:90:18:64:4E:2F:A3:13:AE:F5
            X509v3 Authority Key Identifier: 
                keyid:12:CD:60:04:D2:A0:80:9E:70:ED:C6:99:B8:7B:2C:C6:52:FD:19:A1
                DirName:/C=US/ST=OH/L=Columbus/O=VikingVPN/OU=MyOrganizationalUnit/CN=VikingVPN CA/name=EasyRSA/emailAddress=me@myhost.mydomain
                serial:CF:35:85:EE:80:BF:2A:3E

            X509v3 Extended Key Usage: 
                TLS Web Client Authentication
            X509v3 Key Usage: 
                Digital Signature
    Signature Algorithm: md5WithRSAEncryption
         49:c4:9d:3c:6b:2a:95:52:21:f8:28:ea:a7:4f:84:04:59:6d:
         b6:7c:9d:b8:a0:f1:c1:7c:a6:4c:96:01:1e:1a:b2:98:7c:4d:
         ff:d8:ec:76:b1:04:41:7e:6e:b4:f4:b1:74:b6:c5:2f:81:ec:
         25:32:7a:9e:3a:d6:2d:af:80:91:f6:6f:b6:dd:5b:6c:98:63:
         6e:cc:3e:7c:13:33:bd:bd:3e:3f:ab:c8:b0:47:3f:39:2b:f9:
         dc:68:35:13:a8:91:ec:7b:7a:8e:d5:4b:be:ee:fa:74:d5:15:
         1c:29:6e:50:8b:0d:aa:0c:9a:62:40:5a:54:2b:1b:2e:84:85:
         3d:df:2e:3a:1f:2b:2b:d1:51:d4:38:5d:75:0a:4c:bc:44:98:
         70:b4:92:be:0e:99:dc:19:76:fc:1f:9a:17:7a:78:bb:71:ce:
         00:1e:90:33:de:36:2c:07:d6:9b:2e:0f:5d:68:34:fb:94:4b:
         7f:ba:95:29:1e:5a:90:8e:a8:a1:fe:c5:a3:6e:0b:e6:82:c5:
         86:02:32:03:4b:e6:c4:e1:95:5c:2d:53:0c:fd:d9:32:fa:2a:
         9b:09:f1:5e:89:74:8b:95:74:43:81:41:b7:89:71:10:e4:5c:
         2f:12:e4:63:00:76:e7:fa:f8:29:7e:5f:d5:77:16:43:8b:55:
         3e:17:9f:c2:48:3a:18:60:ce:c3:73:06:b3:d9:ec:69:b0:c1:
         77:fc:e2:8f:c1:2d:35:85:15:6c:70:a9:77:25:56:09:9c:6d:
         91:91:37:85:cf:f7:4e:57:ea:c3:e8:1d:aa:04:0f:66:09:7a:
         c8:4c:d7:a6:0c:77:20:2c:8b:15:f5:94:b4:0f:3d:92:72:2d:
         ad:ca:0c:c9:24:ef:db:bf:36:ee:9e:9c:6e:9f:a6:16:79:71:
         19:56:3a:a2:f1:48:56:ff:68:dc:b5:4e:45:25:79:be:f2:ce:
         6c:f5:f9:4b:c3:d9:fe:70:05:19:3e:67:7d:c9:82:bd:08:23:
         53:9e:3b:f1:db:67:a0:2e:9e:42:ef:ee:53:cd:61:1d:b3:d4:
         4e:6a:82:57:d1:9f:ae:a7:7d:1f:0b:79:3d:d4:23:2d:0e:f4:
         57:db:ca:55:4a:0f:77:27:01:86:0f:8d:50:dd:0e:ae:80:8c:
         3e:fc:24:26:80:b9:9e:cd:53:64:7f:29:2c:46:6a:ab:e2:9c:
         b4:78:db:05:eb:54:98:a2:47:c8:f4:4d:e4:73:fb:14:de:36:
         12:87:2c:0b:25:cb:d9:57:c5:e0:b6:53:b9:0f:84:3c:0c:5b:
         47:84:9c:75:5e:27:b7:ec:4e:f0:b8:2b:fc:87:b0:5a:2b:a9:
         61:33:0a:22:64:39:94:29
-----BEGIN CERTIFICATE-----
MIIGrDCCBJSgAwIBAgICBA8wDQYJKoZIhvcNAQEEBQAwgawxCzAJBgNVBAYTAlVT
MQswCQYDVQQIEwJPSDERMA8GA1UEBxMIQ29sdW1idXMxEjAQBgNVBAoTCVZpa2lu
Z1ZQTjEdMBsGA1UECxMUTXlPcmdhbml6YXRpb25hbFVuaXQxFTATBgNVBAMTDFZp
a2luZ1ZQTiBDQTEQMA4GA1UEKRMHRWFzeVJTQTEhMB8GCSqGSIb3DQEJARYSbWVA
bXlob3N0Lm15ZG9tYWluMB4XDTE0MDIxMzE3NTUwMloXDTI0MDIxMTE3NTUwMlow
HjEcMBoGA1UEAxMTQ2xpZW50MzI4Q2VydDc3M2U3NDCCAiIwDQYJKoZIhvcNAQEB
BQADggIPADCCAgoCggIBAJ/PtIZyWi44yZyPcaT0pLt++/Sk0MgNODroJHhaM+9U
Z+3niENOM7QwiOrVZu7Eo2lqkv/sv03/gdw/qjnmyxHS1kwUSdvl1epsPi98cETj
ldV/8zUDv83LbmdMiJKicB3kDF5PMqqhvabTVc3MhqNOu/WQ0Rs6poyaxdtPuCRt
Hvfcq0c9ebC52b0kwCLwkOVwqbWQ6pUyT5+E4/HFYtOGSYqMJrLfw1deNZgl1vAu
Z7ceRJTfpQ3lrk+DqEErxkSUPKHZK9PQpMDcZ5vjZ6NZyeesEgliV7V04YO31OUe
liiPcnoJa/WZ0VjY+NaIKDFePaTgs8Oknb9KHPB6w5r6n5N73lLdvhcHF6kXiW3q
K2Mky95ALw9djxkVmrEv4hURcKIBY/cfx8M7XvELdwR8rordPtoLLl+AeHb0CV4Y
FmAnXj8bzFnILzcmkFfZDQfps8VsSDnQKxmYM75BdD546TaRWJTlTyGAchyaRr05
R2Yl0m0cU3j+YLzRDkuqsUMQz4SSueA38af3Noy3tkzriSogYYUTdISupcGzXa2C
t0/mKNAE3tnkYD+aHtgyka2E4qDfiNhPyLMjhE40TOFFUJKzoaYjLgjH/RhaO0tb
O26OgpV4l4wAHj/cvzm8kCqr6ElQvDwDl/vg0w0bOhODsGEw9xOy4u3GjnwE5PYp
AgMBAAGjggFjMIIBXzAJBgNVHRMEAjAAMC0GCWCGSAGG+EIBDQQgFh5FYXN5LVJT
QSBHZW5lcmF0ZWQgQ2VydGlmaWNhdGUwHQYDVR0OBBYEFGA9bZBSZTAK0v3zkBhk
Ti+jE671MIHhBgNVHSMEgdkwgdaAFBLNYATSoICecO3Gmbh7LMZS/RmhoYGypIGv
MIGsMQswCQYDVQQGEwJVUzELMAkGA1UECBMCT0gxETAPBgNVBAcTCENvbHVtYnVz
MRIwEAYDVQQKEwlWaWtpbmdWUE4xHTAbBgNVBAsTFE15T3JnYW5pemF0aW9uYWxV
bml0MRUwEwYDVQQDEwxWaWtpbmdWUE4gQ0ExEDAOBgNVBCkTB0Vhc3lSU0ExITAf
BgkqhkiG9w0BCQEWEm1lQG15aG9zdC5teWRvbWFpboIJAM81he6Avyo+MBMGA1Ud
JQQMMAoGCCsGAQUFBwMCMAsGA1UdDwQEAwIHgDANBgkqhkiG9w0BAQQFAAOCAgEA
ScSdPGsqlVIh+Cjqp0+EBFlttnyduKDxwXymTJYBHhqymHxN/9jsdrEEQX5utPSx
dLbFL4HsJTJ6njrWLa+AkfZvtt1bbJhjbsw+fBMzvb0+P6vIsEc/OSv53Gg1E6iR
7Ht6jtVLvu76dNUVHCluUIsNqgyaYkBaVCsbLoSFPd8uOh8rK9FR1DhddQpMvESY
cLSSvg6Z3Bl2/B+aF3p4u3HOAB6QM942LAfWmy4PXWg0+5RLf7qVKR5akI6oof7F
o24L5oLFhgIyA0vmxOGVXC1TDP3ZMvoqmwnxXol0i5V0Q4FBt4lxEORcLxLkYwB2
5/r4KX5f1XcWQ4tVPhefwkg6GGDOw3MGs9nsabDBd/zij8EtNYUVbHCpdyVWCZxt
kZE3hc/3Tlfqw+gdqgQPZgl6yEzXpgx3ICyLFfWUtA89knItrcoMySTv27827p6c
bp+mFnlxGVY6ovFIVv9o3LVORSV5vvLObPX5S8PZ/nAFGT5nfcmCvQgjU5478dtn
oC6eQu/uU81hHbPUTmqCV9Gfrqd9Hwt5PdQjLQ70V9vKVUoPdycBhg+NUN0OroCM
PvwkJoC5ns1TZH8pLEZqq+KctHjbBetUmKJHyPRN5HP7FN42EocsCyXL2VfF4LZT
uQ+EPAxbR4ScdV4nt+xO8Lgr/IewWiupYTMKImQ5lCk=
-----END CERTIFICATE-----
