Certificate:
    Data:
        Version: 3 (0x2)
        Serial Number: 1040 (0x410)
    Signature Algorithm: md5WithRSAEncryption
        Issuer: C=US, ST=OH, L=Columbus, O=VikingVPN, OU=MyOrganizationalUnit, CN=VikingVPN CA/name=EasyRSA/emailAddress=me@myhost.mydomain
        Validity
            Not Before: Feb 13 18:06:46 2014 GMT
            Not After : Feb 11 18:06:46 2024 GMT
        Subject: CN=Client229Cert8e2b41
        Subject Public Key Info:
            Public Key Algorithm: rsaEncryption
                Public-Key: (4096 bit)
                Modulus:
                    00:99:08:e7:de:85:32:4b:1d:7f:60:b0:47:2b:38:
                    ec:09:2f:34:72:23:b7:09:b2:7a:d0:dc:a1:26:14:
                    09:5e:ed:ee:7f:ef:ab:dc:ef:19:a3:3d:4f:e6:bc:
                    1b:d7:a5:43:09:95:3c:82:48:ee:d4:2c:0a:c9:0d:
                    ac:25:5e:b5:04:2d:e2:6f:5b:bd:97:45:22:a7:80:
                    f1:c9:af:1a:78:89:98:44:17:fa:37:d8:57:e5:9d:
                    bb:3f:77:61:68:08:7e:37:0b:95:59:27:14:bb:f1:
                    0a:39:c4:dd:c2:c3:99:8b:fb:31:07:9e:b0:2b:74:
                    97:36:b4:8c:b4:0d:ae:c1:9f:a5:e7:1b:54:e1:b5:
                    74:88:4b:9e:fc:d2:5a:67:bf:37:b1:fd:e2:96:db:
                    55:63:a9:38:da:49:00:12:04:dc:61:d3:4c:27:3c:
                    80:24:cc:07:46:a6:62:59:37:e0:db:c5:69:fe:e7:
                    da:b9:16:25:1e:d6:0c:e2:2c:40:7a:b6:e4:ba:16:
                    ad:ba:7a:16:c7:7b:1e:6b:2a:78:93:bc:82:a0:4d:
                    f3:06:86:9d:ab:a7:e0:b5:64:dd:50:50:8c:38:1f:
                    51:78:2a:49:36:97:12:de:c2:2a:b2:85:94:0f:2e:
                    dd:54:90:d2:9e:81:d3:c9:76:44:f5:38:65:aa:34:
                    2c:63:fd:28:47:92:89:d9:15:39:11:23:5f:cb:36:
                    36:10:d7:95:4f:1a:ee:3a:63:f2:20:57:9d:11:4c:
                    71:c2:eb:6b:ce:b0:68:0d:8d:4e:d7:2b:2b:49:69:
                    3c:08:62:31:d1:e6:d1:62:2d:1e:04:a7:44:17:69:
                    a7:a8:9b:fb:16:7d:25:d9:43:e7:c5:87:31:0e:ed:
                    3a:89:69:2e:e9:8f:a3:09:ee:e7:6a:b0:0b:f9:4c:
                    60:8d:2e:b9:1d:23:79:c7:85:41:4c:59:35:1e:f6:
                    95:b6:75:6c:df:72:86:3e:13:58:51:76:b7:40:e8:
                    42:95:61:55:32:b0:3e:27:2e:86:69:63:13:9d:55:
                    bd:33:c2:59:c0:5d:e2:52:2d:78:e1:97:b8:6c:87:
                    5e:49:7e:5c:b9:ec:03:c0:7d:ab:34:f0:9a:8c:09:
                    d5:94:7f:40:a8:d4:28:30:fd:9d:bd:a9:f3:80:ce:
                    8f:96:b3:c6:9b:e0:c2:22:71:06:a9:67:4d:a3:32:
                    89:0d:71:8e:ad:d8:cb:c1:fc:0f:c8:f6:25:b9:4b:
                    64:34:cb:3f:8d:71:4c:69:c3:d9:4e:9c:75:59:a2:
                    56:ac:6a:32:10:4d:88:8d:a1:7f:e7:56:dd:45:93:
                    83:0f:ec:7d:63:8d:e8:1d:47:8f:6f:49:c9:3e:2d:
                    62:24:db
                Exponent: 65537 (0x10001)
        X509v3 extensions:
            X509v3 Basic Constraints: 
                CA:FALSE
            Netscape Comment: 
                Easy-RSA Generated Certificate
            X509v3 Subject Key Identifier: 
                47:CA:68:5D:D3:CE:F2:1A:E3:B5:71:B9:6C:CB:D2:60:44:60:9E:13
            X509v3 Authority Key Identifier: 
                keyid:12:CD:60:04:D2:A0:80:9E:70:ED:C6:99:B8:7B:2C:C6:52:FD:19:A1
                DirName:/C=US/ST=OH/L=Columbus/O=VikingVPN/OU=MyOrganizationalUnit/CN=VikingVPN CA/name=EasyRSA/emailAddress=me@myhost.mydomain
                serial:CF:35:85:EE:80:BF:2A:3E

            X509v3 Extended Key Usage: 
                TLS Web Client Authentication
            X509v3 Key Usage: 
                Digital Signature
    Signature Algorithm: md5WithRSAEncryption
         5d:87:2f:9f:19:c2:42:3d:ba:96:a6:09:e7:b4:51:69:f5:d9:
         9d:9b:52:02:1b:fd:40:d4:a5:5e:de:0b:5a:88:95:a8:19:56:
         99:5a:4c:a9:64:dc:4e:c0:4d:5f:9b:8f:a9:a1:f1:80:9d:1f:
         32:36:e7:da:59:47:33:74:98:1a:f1:8d:41:ad:8f:96:0c:bc:
         26:c1:8e:f6:4a:6e:f8:83:82:40:f4:73:59:0f:32:45:00:cd:
         8e:21:82:33:19:e9:5c:38:d3:68:67:35:69:67:c5:34:e0:9a:
         85:ac:e6:f1:06:ea:2b:fa:d4:1a:2b:00:3c:7d:e3:2a:fd:6f:
         60:c1:7c:e9:a8:66:c5:d9:af:50:e8:16:f9:cb:fe:3a:ee:19:
         93:c7:50:f4:68:ca:ee:25:83:1c:21:2e:59:01:95:23:b7:1a:
         b1:cd:da:03:1f:d9:3d:00:9a:95:f7:db:b8:a2:fa:37:7a:5e:
         b8:2a:96:ae:2d:c0:b7:31:4a:5a:be:48:6e:6c:2c:1e:59:d7:
         2a:f7:27:00:55:b1:81:ab:b3:c7:7b:4c:5a:3c:21:9a:f9:a1:
         18:2a:1c:6c:b0:a2:0b:21:d5:95:89:e4:1b:d3:5c:e0:4c:d2:
         60:42:4d:ad:ac:84:0e:6d:44:85:8c:9d:c5:5e:38:52:a7:87:
         29:bb:18:fe:a1:9f:de:fd:33:32:08:35:d0:2f:82:ca:c2:44:
         f7:10:9b:94:37:21:29:79:30:66:b5:33:49:09:fa:74:36:c4:
         13:d1:22:f1:8b:7f:96:b0:13:f2:57:ed:0f:67:89:5a:fb:14:
         bd:cb:89:02:94:d3:d0:dc:8f:e6:b7:88:23:72:9a:bb:02:c9:
         b2:34:d2:a7:c5:5d:e1:35:7a:0b:4a:a5:ee:43:32:df:0f:88:
         51:8a:7b:b4:c6:b3:a6:b0:7f:15:24:d0:5a:9c:f2:c2:4c:57:
         0a:db:55:a1:d2:1e:89:2f:5f:81:f6:0f:14:ff:23:f9:74:33:
         cb:bf:7b:c0:50:4d:33:a8:a9:c4:72:22:14:c2:1b:d5:a5:c2:
         b2:16:7d:45:ac:41:d9:72:d8:52:f8:44:81:77:0a:38:5a:3a:
         d6:48:bd:7e:4c:ff:7b:74:cd:aa:cc:6e:91:4d:56:b2:a6:80:
         5d:6f:a0:0d:a5:2c:68:c0:cd:3d:53:ae:fe:7d:20:54:0a:31:
         7d:a7:9d:be:9a:c8:b1:de:76:61:1d:6b:53:b5:73:02:7a:40:
         4c:30:02:4d:66:b6:69:84:2f:2c:b4:27:19:4a:ab:1e:2d:d8:
         f0:e1:07:fc:fc:e7:36:77:ed:79:7d:d7:6a:39:81:75:e0:df:
         02:38:0d:2a:bb:ef:f5:6b
-----BEGIN CERTIFICATE-----
MIIGrDCCBJSgAwIBAgICBBAwDQYJKoZIhvcNAQEEBQAwgawxCzAJBgNVBAYTAlVT
MQswCQYDVQQIEwJPSDERMA8GA1UEBxMIQ29sdW1idXMxEjAQBgNVBAoTCVZpa2lu
Z1ZQTjEdMBsGA1UECxMUTXlPcmdhbml6YXRpb25hbFVuaXQxFTATBgNVBAMTDFZp
a2luZ1ZQTiBDQTEQMA4GA1UEKRMHRWFzeVJTQTEhMB8GCSqGSIb3DQEJARYSbWVA
bXlob3N0Lm15ZG9tYWluMB4XDTE0MDIxMzE4MDY0NloXDTI0MDIxMTE4MDY0Nlow
HjEcMBoGA1UEAxMTQ2xpZW50MjI5Q2VydDhlMmI0MTCCAiIwDQYJKoZIhvcNAQEB
BQADggIPADCCAgoCggIBAJkI596FMksdf2CwRys47AkvNHIjtwmyetDcoSYUCV7t
7n/vq9zvGaM9T+a8G9elQwmVPIJI7tQsCskNrCVetQQt4m9bvZdFIqeA8cmvGniJ
mEQX+jfYV+Wduz93YWgIfjcLlVknFLvxCjnE3cLDmYv7MQeesCt0lza0jLQNrsGf
pecbVOG1dIhLnvzSWme/N7H94pbbVWOpONpJABIE3GHTTCc8gCTMB0amYlk34NvF
af7n2rkWJR7WDOIsQHq25LoWrbp6Fsd7HmsqeJO8gqBN8waGnaun4LVk3VBQjDgf
UXgqSTaXEt7CKrKFlA8u3VSQ0p6B08l2RPU4Zao0LGP9KEeSidkVOREjX8s2NhDX
lU8a7jpj8iBXnRFMccLra86waA2NTtcrK0lpPAhiMdHm0WItHgSnRBdpp6ib+xZ9
JdlD58WHMQ7tOolpLumPownu52qwC/lMYI0uuR0jeceFQUxZNR72lbZ1bN9yhj4T
WFF2t0DoQpVhVTKwPicuhmljE51VvTPCWcBd4lIteOGXuGyHXkl+XLnsA8B9qzTw
mowJ1ZR/QKjUKDD9nb2p84DOj5azxpvgwiJxBqlnTaMyiQ1xjq3Yy8H8D8j2JblL
ZDTLP41xTGnD2U6cdVmiVqxqMhBNiI2hf+dW3UWTgw/sfWON6B1Hj29JyT4tYiTb
AgMBAAGjggFjMIIBXzAJBgNVHRMEAjAAMC0GCWCGSAGG+EIBDQQgFh5FYXN5LVJT
QSBHZW5lcmF0ZWQgQ2VydGlmaWNhdGUwHQYDVR0OBBYEFEfKaF3TzvIa47VxuWzL
0mBEYJ4TMIHhBgNVHSMEgdkwgdaAFBLNYATSoICecO3Gmbh7LMZS/RmhoYGypIGv
MIGsMQswCQYDVQQGEwJVUzELMAkGA1UECBMCT0gxETAPBgNVBAcTCENvbHVtYnVz
MRIwEAYDVQQKEwlWaWtpbmdWUE4xHTAbBgNVBAsTFE15T3JnYW5pemF0aW9uYWxV
bml0MRUwEwYDVQQDEwxWaWtpbmdWUE4gQ0ExEDAOBgNVBCkTB0Vhc3lSU0ExITAf
BgkqhkiG9w0BCQEWEm1lQG15aG9zdC5teWRvbWFpboIJAM81he6Avyo+MBMGA1Ud
JQQMMAoGCCsGAQUFBwMCMAsGA1UdDwQEAwIHgDANBgkqhkiG9w0BAQQFAAOCAgEA
XYcvnxnCQj26lqYJ57RRafXZnZtSAhv9QNSlXt4LWoiVqBlWmVpMqWTcTsBNX5uP
qaHxgJ0fMjbn2llHM3SYGvGNQa2Plgy8JsGO9kpu+IOCQPRzWQ8yRQDNjiGCMxnp
XDjTaGc1aWfFNOCahazm8QbqK/rUGisAPH3jKv1vYMF86ahmxdmvUOgW+cv+Ou4Z
k8dQ9GjK7iWDHCEuWQGVI7casc3aAx/ZPQCalffbuKL6N3peuCqWri3AtzFKWr5I
bmwsHlnXKvcnAFWxgauzx3tMWjwhmvmhGCocbLCiCyHVlYnkG9Nc4EzSYEJNrayE
Dm1EhYydxV44UqeHKbsY/qGf3v0zMgg10C+CysJE9xCblDchKXkwZrUzSQn6dDbE
E9Ei8Yt/lrAT8lftD2eJWvsUvcuJApTT0NyP5reII3KauwLJsjTSp8Vd4TV6C0ql
7kMy3w+IUYp7tMazprB/FSTQWpzywkxXCttVodIeiS9fgfYPFP8j+XQzy797wFBN
M6ipxHIiFMIb1aXCshZ9RaxB2XLYUvhEgXcKOFo61ki9fkz/e3TNqsxukU1WsqaA
XW+gDaUsaMDNPVOu/n0gVAoxfaedvprIsd52YR1rU7VzAnpATDACTWa2aYQvLLQn
GUqrHi3Y8OEH/PznNnfteX3XajmBdeDfAjgNKrvv9Ws=
-----END CERTIFICATE-----
