Certificate:
    Data:
        Version: 3 (0x2)
        Serial Number: 1070 (0x42e)
    Signature Algorithm: md5WithRSAEncryption
        Issuer: C=US, ST=OH, L=Columbus, O=VikingVPN, OU=MyOrganizationalUnit, CN=VikingVPN CA/name=EasyRSA/emailAddress=me@myhost.mydomain
        Validity
            Not Before: Feb 17 12:32:37 2014 GMT
            Not After : Feb 15 12:32:37 2024 GMT
        Subject: CN=Client313Cert25a428
        Subject Public Key Info:
            Public Key Algorithm: rsaEncryption
                Public-Key: (4096 bit)
                Modulus:
                    00:e0:53:a7:c8:61:2a:69:55:3d:e5:f3:38:9b:f1:
                    38:f4:11:70:c6:95:69:f3:4f:50:9f:63:c5:38:00:
                    3e:92:79:7f:d8:6a:9b:8b:6f:77:56:eb:37:37:f4:
                    6c:32:9b:f6:63:2c:fe:f3:5c:4a:5f:74:c9:ff:4c:
                    08:90:86:11:b3:4b:12:f4:0d:35:cd:85:d8:42:fe:
                    1c:4a:f2:09:47:4f:5b:15:21:54:05:05:6d:4e:2c:
                    35:e5:fd:9c:1a:a5:11:de:88:65:17:e3:be:2d:fe:
                    68:e9:0b:48:b2:80:03:1f:0e:dd:43:58:a2:54:3a:
                    42:0c:bd:74:94:f3:26:87:c5:4d:8a:8b:53:22:c3:
                    cb:dd:39:05:96:86:d8:75:75:ae:c7:ec:46:2b:11:
                    0b:12:e5:35:c9:4e:4e:56:2d:d9:e4:9e:30:d6:68:
                    fe:c7:90:2a:2b:d4:6d:41:ab:31:5a:ab:7b:d5:40:
                    00:b3:e5:4f:ab:de:d7:df:a5:35:52:87:e8:47:19:
                    8f:88:37:14:b3:12:3b:34:6e:62:c8:b4:0a:62:ec:
                    25:1d:c0:3e:05:1f:a0:fd:71:42:97:01:62:a4:dd:
                    6b:c7:da:75:7c:0d:35:88:30:89:dd:21:4b:8d:fa:
                    51:88:3a:16:3f:cc:ea:5d:e9:96:e5:b5:25:49:09:
                    3f:37:b1:ee:bb:be:e3:f7:b9:dd:7f:cd:81:9b:8a:
                    fc:0a:87:9d:ed:59:46:80:5d:a9:a7:d4:eb:20:11:
                    33:89:fb:60:b0:6e:23:61:4a:7b:ac:c4:aa:dd:5d:
                    ad:81:bf:90:b1:c1:3b:65:b3:99:f8:c4:e8:77:c1:
                    e4:2b:a3:1b:0d:e8:7f:04:8e:08:88:89:87:f2:42:
                    e4:ed:e2:24:48:96:20:ad:88:8a:4f:06:cf:b9:05:
                    89:57:62:b6:85:ee:48:5c:66:5b:d0:42:49:57:88:
                    61:c1:a7:c0:68:a5:4e:9b:e9:7f:2b:71:2c:a3:30:
                    2f:b5:5d:71:c0:1f:48:b2:48:47:de:17:f1:fd:09:
                    44:5b:17:a9:3e:1b:69:cb:41:0d:13:f5:f7:95:56:
                    7c:1e:1c:37:62:ba:b9:10:9d:52:2d:ce:a4:7f:0f:
                    ca:39:09:1c:dc:f9:c9:d7:87:8b:5f:10:ed:78:3f:
                    d4:9d:42:b1:80:b1:04:8c:f7:d6:09:07:db:77:32:
                    14:c3:8b:71:1a:03:5e:31:2d:1c:3d:19:40:e7:be:
                    f6:ac:f6:89:18:f3:ee:ca:f1:ae:af:0f:85:af:de:
                    9e:b7:df:1e:7d:99:22:93:f8:ea:f4:d2:9f:47:1f:
                    32:63:c0:e7:b9:24:48:bd:39:5a:a8:57:26:a2:27:
                    19:3d:61
                Exponent: 65537 (0x10001)
        X509v3 extensions:
            X509v3 Basic Constraints: 
                CA:FALSE
            Netscape Comment: 
                Easy-RSA Generated Certificate
            X509v3 Subject Key Identifier: 
                70:07:8E:73:5B:99:90:1F:C2:30:CA:80:B8:8B:A6:6A:E0:BD:DE:80
            X509v3 Authority Key Identifier: 
                keyid:12:CD:60:04:D2:A0:80:9E:70:ED:C6:99:B8:7B:2C:C6:52:FD:19:A1
                DirName:/C=US/ST=OH/L=Columbus/O=VikingVPN/OU=MyOrganizationalUnit/CN=VikingVPN CA/name=EasyRSA/emailAddress=me@myhost.mydomain
                serial:CF:35:85:EE:80:BF:2A:3E

            X509v3 Extended Key Usage: 
                TLS Web Client Authentication
            X509v3 Key Usage: 
                Digital Signature
    Signature Algorithm: md5WithRSAEncryption
         3d:15:ad:58:4c:ab:a0:f4:cf:25:04:83:71:3d:bc:8f:70:46:
         e1:e9:3c:a2:ba:a8:b4:5e:30:6f:5f:e7:69:39:8e:c8:25:4c:
         92:ed:97:25:de:d0:d7:54:2f:f1:c6:78:fe:18:dd:b5:86:dc:
         30:d5:96:25:72:26:ed:36:8d:5e:c3:38:56:a5:6e:ba:a4:09:
         d0:d5:51:c5:13:f0:31:44:7b:98:ae:94:dc:10:34:23:b1:71:
         fe:84:37:57:75:f6:5d:71:cf:69:54:07:32:34:80:07:44:dc:
         68:52:2e:c7:69:d1:52:6d:34:10:a1:ee:3d:10:17:69:7c:a5:
         ee:61:42:0f:0f:ff:6f:67:3d:31:ab:00:f1:6e:27:27:f0:06:
         f8:b3:b6:35:dd:91:22:9d:ee:f8:c0:20:9e:f0:4f:e9:30:e5:
         3d:f5:0d:69:91:39:5d:45:ae:bd:7c:4b:01:77:c4:4d:35:c8:
         02:2d:e6:1c:41:49:ed:f6:ad:75:d0:c4:e5:96:14:20:2f:c1:
         30:e8:9e:98:39:1b:3c:a9:10:1c:3e:30:29:eb:7c:d2:32:fd:
         04:9e:51:33:3a:1d:4b:21:91:27:4d:19:43:c1:e4:7c:df:48:
         ce:fb:81:cd:08:39:69:6c:c4:99:1b:7f:d1:1d:2e:d4:1b:f7:
         5d:62:10:e4:72:1a:e3:cc:42:16:ec:20:a6:86:43:16:28:b8:
         24:9d:13:46:44:eb:aa:8a:8f:0f:e1:5c:44:d1:44:00:6d:ef:
         6b:b9:b7:cc:ab:e8:df:22:0b:11:68:6f:f0:90:a7:08:27:89:
         19:80:d1:f7:ac:b2:29:fd:5f:64:d8:4e:f2:ac:d1:40:e7:6c:
         6d:4f:84:d5:d0:2f:77:be:f3:bb:7c:be:ea:d8:fb:74:7f:48:
         83:39:a8:cf:95:32:b0:b8:8a:c4:29:9c:57:9f:28:f2:aa:d5:
         c4:d8:95:45:1e:e5:78:61:ff:6d:04:42:8b:3b:66:90:0c:e8:
         c7:a6:4b:02:c4:b2:41:8e:a5:e8:be:4a:59:df:48:20:0d:eb:
         17:27:f1:2b:d3:10:6b:23:49:7d:d0:dc:b9:eb:23:3d:98:a4:
         09:b9:b3:54:35:5c:c1:ad:43:01:c5:20:ae:17:65:00:03:e0:
         41:13:07:44:c1:2b:97:7c:dd:ea:95:1a:a5:68:e3:77:bd:d3:
         7b:36:0e:bf:2e:76:8d:06:1d:eb:4b:33:c3:cf:60:1f:6e:63:
         69:18:bf:56:a6:ae:06:64:ad:4b:67:75:29:b7:3a:7d:9e:0a:
         f6:f0:d6:41:13:ca:4e:f4:ff:45:db:03:0e:b0:9b:ce:10:4c:
         35:cf:49:08:a6:d4:af:a4
-----BEGIN CERTIFICATE-----
MIIGrDCCBJSgAwIBAgICBC4wDQYJKoZIhvcNAQEEBQAwgawxCzAJBgNVBAYTAlVT
MQswCQYDVQQIEwJPSDERMA8GA1UEBxMIQ29sdW1idXMxEjAQBgNVBAoTCVZpa2lu
Z1ZQTjEdMBsGA1UECxMUTXlPcmdhbml6YXRpb25hbFVuaXQxFTATBgNVBAMTDFZp
a2luZ1ZQTiBDQTEQMA4GA1UEKRMHRWFzeVJTQTEhMB8GCSqGSIb3DQEJARYSbWVA
bXlob3N0Lm15ZG9tYWluMB4XDTE0MDIxNzEyMzIzN1oXDTI0MDIxNTEyMzIzN1ow
HjEcMBoGA1UEAxMTQ2xpZW50MzEzQ2VydDI1YTQyODCCAiIwDQYJKoZIhvcNAQEB
BQADggIPADCCAgoCggIBAOBTp8hhKmlVPeXzOJvxOPQRcMaVafNPUJ9jxTgAPpJ5
f9hqm4tvd1brNzf0bDKb9mMs/vNcSl90yf9MCJCGEbNLEvQNNc2F2EL+HEryCUdP
WxUhVAUFbU4sNeX9nBqlEd6IZRfjvi3+aOkLSLKAAx8O3UNYolQ6Qgy9dJTzJofF
TYqLUyLDy905BZaG2HV1rsfsRisRCxLlNclOTlYt2eSeMNZo/seQKivUbUGrMVqr
e9VAALPlT6ve19+lNVKH6EcZj4g3FLMSOzRuYsi0CmLsJR3APgUfoP1xQpcBYqTd
a8fadXwNNYgwid0hS436UYg6Fj/M6l3pluW1JUkJPzex7ru+4/e53X/NgZuK/AqH
ne1ZRoBdqafU6yARM4n7YLBuI2FKe6zEqt1drYG/kLHBO2WzmfjE6HfB5CujGw3o
fwSOCIiJh/JC5O3iJEiWIK2Iik8Gz7kFiVditoXuSFxmW9BCSVeIYcGnwGilTpvp
fytxLKMwL7VdccAfSLJIR94X8f0JRFsXqT4bactBDRP195VWfB4cN2K6uRCdUi3O
pH8PyjkJHNz5ydeHi18Q7Xg/1J1CsYCxBIz31gkH23cyFMOLcRoDXjEtHD0ZQOe+
9qz2iRjz7srxrq8Pha/enrffHn2ZIpP46vTSn0cfMmPA57kkSL05WqhXJqInGT1h
AgMBAAGjggFjMIIBXzAJBgNVHRMEAjAAMC0GCWCGSAGG+EIBDQQgFh5FYXN5LVJT
QSBHZW5lcmF0ZWQgQ2VydGlmaWNhdGUwHQYDVR0OBBYEFHAHjnNbmZAfwjDKgLiL
pmrgvd6AMIHhBgNVHSMEgdkwgdaAFBLNYATSoICecO3Gmbh7LMZS/RmhoYGypIGv
MIGsMQswCQYDVQQGEwJVUzELMAkGA1UECBMCT0gxETAPBgNVBAcTCENvbHVtYnVz
MRIwEAYDVQQKEwlWaWtpbmdWUE4xHTAbBgNVBAsTFE15T3JnYW5pemF0aW9uYWxV
bml0MRUwEwYDVQQDEwxWaWtpbmdWUE4gQ0ExEDAOBgNVBCkTB0Vhc3lSU0ExITAf
BgkqhkiG9w0BCQEWEm1lQG15aG9zdC5teWRvbWFpboIJAM81he6Avyo+MBMGA1Ud
JQQMMAoGCCsGAQUFBwMCMAsGA1UdDwQEAwIHgDANBgkqhkiG9w0BAQQFAAOCAgEA
PRWtWEyroPTPJQSDcT28j3BG4ek8orqotF4wb1/naTmOyCVMku2XJd7Q11Qv8cZ4
/hjdtYbcMNWWJXIm7TaNXsM4VqVuuqQJ0NVRxRPwMUR7mK6U3BA0I7Fx/oQ3V3X2
XXHPaVQHMjSAB0TcaFIux2nRUm00EKHuPRAXaXyl7mFCDw//b2c9MasA8W4nJ/AG
+LO2Nd2RIp3u+MAgnvBP6TDlPfUNaZE5XUWuvXxLAXfETTXIAi3mHEFJ7fatddDE
5ZYUIC/BMOiemDkbPKkQHD4wKet80jL9BJ5RMzodSyGRJ00ZQ8HkfN9IzvuBzQg5
aWzEmRt/0R0u1Bv3XWIQ5HIa48xCFuwgpoZDFii4JJ0TRkTrqoqPD+FcRNFEAG3v
a7m3zKvo3yILEWhv8JCnCCeJGYDR96yyKf1fZNhO8qzRQOdsbU+E1dAvd77zu3y+
6tj7dH9Igzmoz5UysLiKxCmcV58o8qrVxNiVRR7leGH/bQRCiztmkAzox6ZLAsSy
QY6l6L5KWd9IIA3rFyfxK9MQayNJfdDcuesjPZikCbmzVDVcwa1DAcUgrhdlAAPg
QRMHRMErl3zd6pUapWjjd73TezYOvy52jQYd60szw89gH25jaRi/VqauBmStS2d1
Kbc6fZ4K9vDWQRPKTvT/RdsDDrCbzhBMNc9JCKbUr6Q=
-----END CERTIFICATE-----
