Certificate:
    Data:
        Version: 3 (0x2)
        Serial Number: 1128 (0x468)
    Signature Algorithm: md5WithRSAEncryption
        Issuer: C=US, ST=OH, L=Columbus, O=VikingVPN, OU=MyOrganizationalUnit, CN=VikingVPN CA/name=EasyRSA/emailAddress=me@myhost.mydomain
        Validity
            Not Before: Feb 23 00:35:42 2014 GMT
            Not After : Feb 21 00:35:42 2024 GMT
        Subject: CN=Client403Cert201c3e
        Subject Public Key Info:
            Public Key Algorithm: rsaEncryption
                Public-Key: (4096 bit)
                Modulus:
                    00:b6:e4:f4:3b:69:ec:e4:3c:47:55:df:20:3e:7c:
                    b0:22:ae:51:cb:d3:af:8b:52:b8:5a:a3:a9:40:62:
                    0e:0e:cf:39:e4:1f:5c:da:f6:58:b1:fb:bb:81:e3:
                    1e:b2:47:2f:d8:22:79:04:20:54:e3:f8:cb:8a:ea:
                    9b:44:02:a2:fa:37:86:80:09:c2:d2:a2:b8:c7:d4:
                    ef:07:96:36:c8:19:6f:be:01:50:96:cc:91:70:21:
                    b9:e0:5b:00:09:bd:d8:c0:51:a7:6d:7f:d4:1e:d8:
                    37:53:b4:4a:3c:bc:ad:8c:87:79:13:3f:df:05:2d:
                    e7:e7:fe:a7:28:d1:7b:3a:31:b9:ae:76:88:39:46:
                    49:03:dc:b8:95:f8:5b:d8:12:57:3b:19:8e:75:7b:
                    99:bb:a3:3b:c8:1f:37:5e:f7:a0:50:b6:88:5e:ea:
                    17:8f:9d:b3:6f:21:de:0a:29:e4:25:d6:8f:c3:1a:
                    6e:3c:80:31:77:a0:01:55:02:52:13:0d:5c:83:de:
                    b8:b4:54:2f:cc:cf:28:c6:9e:3a:f8:60:cd:42:d1:
                    61:87:9f:d0:63:44:90:9e:3f:97:76:ba:c6:64:40:
                    f6:1c:60:52:b5:b7:2b:b6:b1:21:7a:40:d8:57:fb:
                    ad:87:8e:f2:21:43:c9:ac:c8:df:ee:5f:5b:b0:aa:
                    be:5d:ed:22:68:07:78:38:57:99:9a:c8:8d:75:c3:
                    d8:fb:9a:eb:a4:18:48:55:6f:3f:ab:d6:e1:b2:e2:
                    9c:5e:c9:99:17:6f:a0:77:31:2e:fa:45:c3:b0:ec:
                    03:cd:5f:b1:fc:af:63:46:39:74:b5:cb:57:85:31:
                    22:9a:2d:82:26:23:ed:9f:38:1b:c8:f6:d1:36:81:
                    d4:c6:c1:5f:e0:79:a3:67:22:b1:38:39:4d:29:95:
                    ac:4a:51:30:1d:88:3a:fc:84:02:3d:2d:cd:19:47:
                    3b:0b:0f:a4:d6:21:57:42:b7:f5:7c:c9:f6:b5:06:
                    a7:d1:eb:cb:43:6c:7b:cb:f2:69:00:2e:75:48:24:
                    53:3c:41:46:fb:4b:84:54:9f:05:68:75:07:3d:43:
                    8d:87:81:e9:57:14:6e:8c:31:a4:82:60:11:6f:fe:
                    9c:bf:49:b4:0a:9a:93:96:89:67:43:f2:94:4c:b9:
                    dd:6f:cd:8d:06:a7:5d:64:94:95:99:65:15:44:ee:
                    2c:86:7e:4e:e1:8f:a8:80:cf:58:4c:79:af:5d:9a:
                    97:2e:2a:b2:dc:8c:5e:1f:63:77:24:7e:77:eb:00:
                    c6:43:8a:b2:ff:9c:f2:02:1a:4c:73:fd:8c:d0:ea:
                    b4:a6:c1:c1:7f:3f:2a:f3:16:d3:37:d4:da:16:84:
                    fc:a9:b1
                Exponent: 65537 (0x10001)
        X509v3 extensions:
            X509v3 Basic Constraints: 
                CA:FALSE
            Netscape Comment: 
                Easy-RSA Generated Certificate
            X509v3 Subject Key Identifier: 
                A6:B6:26:3A:AE:B0:C0:05:9F:87:0C:CB:E2:B2:1B:75:0D:49:18:8F
            X509v3 Authority Key Identifier: 
                keyid:12:CD:60:04:D2:A0:80:9E:70:ED:C6:99:B8:7B:2C:C6:52:FD:19:A1
                DirName:/C=US/ST=OH/L=Columbus/O=VikingVPN/OU=MyOrganizationalUnit/CN=VikingVPN CA/name=EasyRSA/emailAddress=me@myhost.mydomain
                serial:CF:35:85:EE:80:BF:2A:3E

            X509v3 Extended Key Usage: 
                TLS Web Client Authentication
            X509v3 Key Usage: 
                Digital Signature
    Signature Algorithm: md5WithRSAEncryption
         35:70:13:fd:a8:90:12:36:62:9c:9e:2b:c6:92:79:60:8a:4b:
         d1:f1:10:83:88:48:2e:be:41:fc:0b:46:d7:f8:38:b2:76:3c:
         c2:df:34:b9:80:fa:11:9a:27:9a:52:1a:21:7d:2c:f0:20:98:
         a1:24:aa:03:89:cc:05:1c:22:1e:65:77:f2:66:be:82:fd:ef:
         fe:ae:3d:68:92:19:47:6e:c1:6e:c6:d2:99:94:4e:c6:cd:7d:
         c0:11:fd:65:8a:b5:a1:dd:cf:79:f9:5c:c4:50:88:d0:c5:ff:
         5e:a0:4c:97:d7:1d:49:2a:2c:eb:1c:09:73:7e:01:9b:15:09:
         e3:9e:0b:40:a5:c5:9f:34:50:29:51:a1:aa:44:dc:32:12:36:
         b4:8c:04:9b:df:92:da:b3:46:f5:9a:52:ef:6a:6a:b3:af:5e:
         41:e0:33:3c:3a:97:a0:7f:9f:24:a8:98:16:53:48:7d:03:6d:
         d8:e0:bc:69:ed:c6:12:36:a9:16:0c:72:5c:d3:d4:1b:d8:bd:
         40:e1:b3:5d:6b:45:72:dd:b5:47:f5:fc:7c:c4:0e:c9:32:c3:
         9d:47:2d:5b:f8:6a:5a:a9:bd:97:94:ba:4e:05:c7:df:de:4f:
         d4:a5:5d:62:77:ee:8e:3c:6d:22:8c:ec:7c:cf:b8:c9:b1:6d:
         db:75:25:6a:87:3e:af:dd:f0:3f:80:ae:76:35:2d:1f:bd:17:
         36:b9:01:ea:f7:c6:fb:f6:2f:23:35:2a:5f:e1:a1:b2:ef:ff:
         9b:0e:d4:93:35:18:8c:d1:f9:43:17:c9:18:91:e6:7b:b8:9b:
         f3:20:31:d3:76:1f:91:56:d4:bd:53:0e:ce:95:32:f2:2a:32:
         14:c8:25:b3:33:3e:5a:59:83:54:e1:3e:c5:0c:dd:8e:52:85:
         b8:66:cf:53:8c:f5:4b:17:c9:cb:91:29:02:fb:cd:c6:03:25:
         5b:43:f5:2a:3b:25:6e:dc:8d:9a:b4:aa:51:82:e7:db:8e:24:
         b8:c5:04:89:fe:8c:56:64:68:13:bc:ec:b6:a9:27:07:22:c6:
         9b:6c:41:67:1c:56:2a:d4:c0:a8:be:02:13:c9:de:dc:8c:db:
         42:5d:49:6e:4a:d9:f9:4f:e3:78:60:1f:74:39:cb:25:36:f8:
         20:de:11:6b:e4:a1:ab:27:99:4c:84:c2:fb:41:03:f6:5c:8c:
         c2:6e:f3:11:e0:f2:d6:0c:16:d1:1c:11:15:4c:f1:96:56:23:
         f7:cf:f9:b8:17:f4:ca:5e:34:4f:ee:9b:e9:43:76:e7:64:f6:
         d0:74:8a:50:17:13:1d:46:34:39:66:f4:bf:38:62:d6:2f:61:
         12:f2:be:48:82:91:d4:41
-----BEGIN CERTIFICATE-----
MIIGrDCCBJSgAwIBAgICBGgwDQYJKoZIhvcNAQEEBQAwgawxCzAJBgNVBAYTAlVT
MQswCQYDVQQIEwJPSDERMA8GA1UEBxMIQ29sdW1idXMxEjAQBgNVBAoTCVZpa2lu
Z1ZQTjEdMBsGA1UECxMUTXlPcmdhbml6YXRpb25hbFVuaXQxFTATBgNVBAMTDFZp
a2luZ1ZQTiBDQTEQMA4GA1UEKRMHRWFzeVJTQTEhMB8GCSqGSIb3DQEJARYSbWVA
bXlob3N0Lm15ZG9tYWluMB4XDTE0MDIyMzAwMzU0MloXDTI0MDIyMTAwMzU0Mlow
HjEcMBoGA1UEAxMTQ2xpZW50NDAzQ2VydDIwMWMzZTCCAiIwDQYJKoZIhvcNAQEB
BQADggIPADCCAgoCggIBALbk9Dtp7OQ8R1XfID58sCKuUcvTr4tSuFqjqUBiDg7P
OeQfXNr2WLH7u4HjHrJHL9gieQQgVOP4y4rqm0QCovo3hoAJwtKiuMfU7weWNsgZ
b74BUJbMkXAhueBbAAm92MBRp21/1B7YN1O0Sjy8rYyHeRM/3wUt5+f+pyjRezox
ua52iDlGSQPcuJX4W9gSVzsZjnV7mbujO8gfN173oFC2iF7qF4+ds28h3gop5CXW
j8MabjyAMXegAVUCUhMNXIPeuLRUL8zPKMaeOvhgzULRYYef0GNEkJ4/l3a6xmRA
9hxgUrW3K7axIXpA2Ff7rYeO8iFDyazI3+5fW7Cqvl3tImgHeDhXmZrIjXXD2Pua
66QYSFVvP6vW4bLinF7JmRdvoHcxLvpFw7DsA81fsfyvY0Y5dLXLV4UxIpotgiYj
7Z84G8j20TaB1MbBX+B5o2cisTg5TSmVrEpRMB2IOvyEAj0tzRlHOwsPpNYhV0K3
9XzJ9rUGp9Hry0Nse8vyaQAudUgkUzxBRvtLhFSfBWh1Bz1DjYeB6VcUbowxpIJg
EW/+nL9JtAqak5aJZ0PylEy53W/NjQanXWSUlZllFUTuLIZ+TuGPqIDPWEx5r12a
ly4qstyMXh9jdyR+d+sAxkOKsv+c8gIaTHP9jNDqtKbBwX8/KvMW0zfU2haE/Kmx
AgMBAAGjggFjMIIBXzAJBgNVHRMEAjAAMC0GCWCGSAGG+EIBDQQgFh5FYXN5LVJT
QSBHZW5lcmF0ZWQgQ2VydGlmaWNhdGUwHQYDVR0OBBYEFKa2JjqusMAFn4cMy+Ky
G3UNSRiPMIHhBgNVHSMEgdkwgdaAFBLNYATSoICecO3Gmbh7LMZS/RmhoYGypIGv
MIGsMQswCQYDVQQGEwJVUzELMAkGA1UECBMCT0gxETAPBgNVBAcTCENvbHVtYnVz
MRIwEAYDVQQKEwlWaWtpbmdWUE4xHTAbBgNVBAsTFE15T3JnYW5pemF0aW9uYWxV
bml0MRUwEwYDVQQDEwxWaWtpbmdWUE4gQ0ExEDAOBgNVBCkTB0Vhc3lSU0ExITAf
BgkqhkiG9w0BCQEWEm1lQG15aG9zdC5teWRvbWFpboIJAM81he6Avyo+MBMGA1Ud
JQQMMAoGCCsGAQUFBwMCMAsGA1UdDwQEAwIHgDANBgkqhkiG9w0BAQQFAAOCAgEA
NXAT/aiQEjZinJ4rxpJ5YIpL0fEQg4hILr5B/AtG1/g4snY8wt80uYD6EZonmlIa
IX0s8CCYoSSqA4nMBRwiHmV38ma+gv3v/q49aJIZR27BbsbSmZROxs19wBH9ZYq1
od3PeflcxFCI0MX/XqBMl9cdSSos6xwJc34BmxUJ454LQKXFnzRQKVGhqkTcMhI2
tIwEm9+S2rNG9ZpS72pqs69eQeAzPDqXoH+fJKiYFlNIfQNt2OC8ae3GEjapFgxy
XNPUG9i9QOGzXWtFct21R/X8fMQOyTLDnUctW/hqWqm9l5S6TgXH395P1KVdYnfu
jjxtIozsfM+4ybFt23Ulaoc+r93wP4CudjUtH70XNrkB6vfG+/YvIzUqX+Ghsu//
mw7UkzUYjNH5QxfJGJHme7ib8yAx03YfkVbUvVMOzpUy8ioyFMglszM+WlmDVOE+
xQzdjlKFuGbPU4z1SxfJy5EpAvvNxgMlW0P1KjslbtyNmrSqUYLn244kuMUEif6M
VmRoE7zstqknByLGm2xBZxxWKtTAqL4CE8ne3IzbQl1JbkrZ+U/jeGAfdDnLJTb4
IN4Ra+ShqyeZTITC+0ED9lyMwm7zEeDy1gwW0RwRFUzxllYj98/5uBf0yl40T+6b
6UN252T20HSKUBcTHUY0OWb0vzhi1i9hEvK+SIKR1EE=
-----END CERTIFICATE-----
