Certificate:
    Data:
        Version: 3 (0x2)
        Serial Number: 1142 (0x476)
    Signature Algorithm: md5WithRSAEncryption
        Issuer: C=US, ST=OH, L=Columbus, O=VikingVPN, OU=MyOrganizationalUnit, CN=VikingVPN CA/name=EasyRSA/emailAddress=me@myhost.mydomain
        Validity
            Not Before: Feb 23 21:41:02 2014 GMT
            Not After : Feb 21 21:41:02 2024 GMT
        Subject: CN=Client415Cert3197d1
        Subject Public Key Info:
            Public Key Algorithm: rsaEncryption
                Public-Key: (4096 bit)
                Modulus:
                    00:b8:de:76:ce:a7:8c:62:40:be:08:7d:a5:65:e6:
                    98:84:1b:89:c5:21:1b:ff:bd:35:a7:82:a3:e2:58:
                    c4:29:c0:5d:5d:ef:7b:9d:ca:1a:c0:57:6b:0f:0b:
                    f6:62:7f:c4:43:29:fe:bc:87:4e:f9:15:3a:88:95:
                    8d:df:53:85:d8:f7:fd:22:48:07:1a:33:8f:ee:41:
                    9b:71:08:cf:42:38:15:7b:7d:cb:b7:0f:77:aa:3a:
                    05:eb:11:77:5d:13:73:bf:af:64:48:5f:0e:a2:87:
                    ad:85:ad:59:81:3b:58:11:3c:dc:76:92:30:d6:de:
                    10:4a:91:75:01:34:7d:cd:3c:3a:a4:48:05:af:92:
                    06:67:51:d5:8a:7f:5d:b4:12:c6:01:53:54:ac:54:
                    02:18:12:46:9a:24:d7:f9:69:1a:83:ee:dc:e7:39:
                    b4:9e:37:ed:7c:a0:25:a3:6f:3c:3f:78:24:d9:e2:
                    63:ee:9b:c9:1e:32:02:29:31:af:1f:6f:47:99:a3:
                    8e:03:53:8d:60:7e:cd:1f:31:c6:09:ba:3e:dd:96:
                    c2:2f:f0:78:e6:81:84:4d:42:f3:df:04:65:b6:35:
                    81:01:ce:18:07:53:40:dc:2f:26:09:fb:67:a8:64:
                    1d:44:8f:48:44:1b:d2:5d:bd:ed:1a:9f:cc:85:66:
                    de:f8:3b:21:74:a1:51:82:38:d6:83:b0:c9:8b:6f:
                    0f:42:89:c7:48:df:60:ad:e7:6b:2c:b7:e2:62:a3:
                    79:0e:09:01:e6:71:6b:4c:42:2f:d4:47:d2:61:f7:
                    f2:ee:d7:c4:27:6c:a6:e4:98:3a:b0:e3:3e:8c:80:
                    a2:2e:59:ee:cb:80:e0:7e:cb:32:d1:b2:ae:d8:e3:
                    ba:e9:fc:53:88:cb:b2:be:53:59:cc:95:77:70:4c:
                    da:82:90:03:63:fe:35:f1:d0:02:7c:82:d6:b1:b5:
                    a1:f8:84:c8:c8:72:70:e2:42:fe:0e:f0:80:e0:38:
                    5f:aa:e9:9f:1e:9f:a2:ac:58:c2:23:a9:9d:b4:ad:
                    aa:b7:d2:46:10:f2:13:d7:5c:38:c3:96:b5:75:91:
                    d8:ab:a2:06:17:8f:cc:8b:62:d6:a1:4a:51:94:a9:
                    7f:05:d7:a2:57:12:eb:fe:e5:c1:4e:3d:e6:8e:8f:
                    d5:76:fc:49:d8:38:83:9c:6a:b0:ba:38:8f:6f:f2:
                    c2:fe:3c:05:c9:cc:a8:8b:9e:a3:e6:a2:3e:13:c3:
                    f7:0c:16:23:0b:3f:bf:8e:2a:c7:7e:72:e2:55:77:
                    98:38:4d:72:d2:a3:56:9d:93:6b:70:74:8d:df:21:
                    94:5b:3f:a6:57:0a:51:f0:1c:9e:39:6a:72:94:89:
                    c8:ed:ff
                Exponent: 65537 (0x10001)
        X509v3 extensions:
            X509v3 Basic Constraints: 
                CA:FALSE
            Netscape Comment: 
                Easy-RSA Generated Certificate
            X509v3 Subject Key Identifier: 
                FB:47:EE:FD:7C:91:9F:37:6E:54:41:D3:58:B7:4D:83:E4:14:10:E8
            X509v3 Authority Key Identifier: 
                keyid:12:CD:60:04:D2:A0:80:9E:70:ED:C6:99:B8:7B:2C:C6:52:FD:19:A1
                DirName:/C=US/ST=OH/L=Columbus/O=VikingVPN/OU=MyOrganizationalUnit/CN=VikingVPN CA/name=EasyRSA/emailAddress=me@myhost.mydomain
                serial:CF:35:85:EE:80:BF:2A:3E

            X509v3 Extended Key Usage: 
                TLS Web Client Authentication
            X509v3 Key Usage: 
                Digital Signature
    Signature Algorithm: md5WithRSAEncryption
         66:df:db:9d:ce:e5:22:21:59:a2:8b:01:26:5a:f3:71:60:39:
         f7:5a:87:72:bf:0b:a3:75:8f:72:b2:c1:26:8b:ec:72:f3:f3:
         ff:6f:9c:26:e5:53:54:8c:dd:cb:16:89:6b:ce:03:a3:44:d2:
         65:c0:f9:f4:15:f4:88:d5:15:14:c9:c9:dc:c9:54:5b:ff:4e:
         a0:77:6f:d2:bd:87:7e:4c:b0:0b:10:02:22:24:6b:61:11:d8:
         fc:19:a0:7e:b4:0c:a8:ae:a9:17:a4:ed:91:f6:89:7c:4b:71:
         c6:f0:51:d9:fe:2b:e0:d7:91:1c:79:ff:11:44:d8:a4:11:bd:
         3a:79:20:e0:04:45:9c:d4:a1:c2:1b:9e:4e:f7:b3:c7:4a:84:
         ec:b8:51:75:b3:66:cf:42:35:4c:43:97:cd:80:af:dc:1f:bb:
         15:55:11:4d:a3:39:8c:45:17:d1:81:7d:ff:5f:2b:f8:6d:d4:
         52:46:38:50:09:15:ad:07:ab:07:72:b7:3c:63:6a:41:06:29:
         83:c8:cd:7d:28:33:c6:9e:53:e6:88:7b:e5:51:c3:fb:9a:ba:
         41:fc:4a:f7:29:49:22:ce:b1:d2:c8:70:c0:2f:9a:f2:2c:0b:
         d1:97:fe:08:12:16:6d:4a:22:8e:91:ff:5e:d4:0a:62:48:19:
         22:e0:44:94:8a:5a:4e:d5:8b:92:75:6f:7e:4a:f6:19:20:2a:
         a1:ec:72:09:25:0c:73:d9:06:b6:7f:98:bd:13:5d:e5:5c:67:
         b3:5c:2f:9f:ee:87:6b:5d:01:40:d4:32:9d:7c:d3:1c:0e:06:
         aa:1c:18:79:b1:38:f1:2c:3c:45:a5:e7:8a:2a:7c:03:c3:08:
         29:4f:64:86:00:47:bb:d9:50:3a:c2:06:ea:63:1c:25:34:d5:
         b7:e0:12:d3:0b:20:0a:2f:fa:f0:68:d0:7d:84:f5:c2:1b:b5:
         5c:50:31:2d:eb:1f:31:d6:5f:95:4a:4d:79:43:55:7d:aa:cf:
         80:fd:b4:8c:77:d6:32:f2:ab:97:4e:c3:19:f9:b5:32:7b:f3:
         12:95:8a:66:4c:e7:31:40:c8:1d:d7:07:53:56:c9:0b:df:8e:
         f4:2b:b5:00:68:27:0f:d4:13:01:5a:57:f9:0a:46:f8:33:ff:
         6f:18:c8:1b:bb:b9:79:0c:09:a5:8d:ff:22:0c:06:86:f2:2f:
         29:a7:3d:32:0c:ef:43:6c:35:0f:19:38:2d:89:a8:8b:08:51:
         9c:e9:7d:db:40:a0:1e:ed:94:f3:6c:33:01:2d:5e:b5:40:7e:
         76:60:89:cb:29:32:87:12:82:8e:52:33:e5:7c:21:03:72:30:
         03:4b:8e:2e:6d:d7:44:e4
-----BEGIN CERTIFICATE-----
MIIGrDCCBJSgAwIBAgICBHYwDQYJKoZIhvcNAQEEBQAwgawxCzAJBgNVBAYTAlVT
MQswCQYDVQQIEwJPSDERMA8GA1UEBxMIQ29sdW1idXMxEjAQBgNVBAoTCVZpa2lu
Z1ZQTjEdMBsGA1UECxMUTXlPcmdhbml6YXRpb25hbFVuaXQxFTATBgNVBAMTDFZp
a2luZ1ZQTiBDQTEQMA4GA1UEKRMHRWFzeVJTQTEhMB8GCSqGSIb3DQEJARYSbWVA
bXlob3N0Lm15ZG9tYWluMB4XDTE0MDIyMzIxNDEwMloXDTI0MDIyMTIxNDEwMlow
HjEcMBoGA1UEAxMTQ2xpZW50NDE1Q2VydDMxOTdkMTCCAiIwDQYJKoZIhvcNAQEB
BQADggIPADCCAgoCggIBALjeds6njGJAvgh9pWXmmIQbicUhG/+9NaeCo+JYxCnA
XV3ve53KGsBXaw8L9mJ/xEMp/ryHTvkVOoiVjd9Thdj3/SJIBxozj+5Bm3EIz0I4
FXt9y7cPd6o6BesRd10Tc7+vZEhfDqKHrYWtWYE7WBE83HaSMNbeEEqRdQE0fc08
OqRIBa+SBmdR1Yp/XbQSxgFTVKxUAhgSRpok1/lpGoPu3Oc5tJ437XygJaNvPD94
JNniY+6byR4yAikxrx9vR5mjjgNTjWB+zR8xxgm6Pt2Wwi/weOaBhE1C898EZbY1
gQHOGAdTQNwvJgn7Z6hkHUSPSEQb0l297RqfzIVm3vg7IXShUYI41oOwyYtvD0KJ
x0jfYK3nayy34mKjeQ4JAeZxa0xCL9RH0mH38u7XxCdspuSYOrDjPoyAoi5Z7suA
4H7LMtGyrtjjuun8U4jLsr5TWcyVd3BM2oKQA2P+NfHQAnyC1rG1ofiEyMhycOJC
/g7wgOA4X6rpnx6foqxYwiOpnbStqrfSRhDyE9dcOMOWtXWR2KuiBhePzIti1qFK
UZSpfwXXolcS6/7lwU495o6P1Xb8Sdg4g5xqsLo4j2/ywv48BcnMqIueo+aiPhPD
9wwWIws/v44qx35y4lV3mDhNctKjVp2Ta3B0jd8hlFs/plcKUfAcnjlqcpSJyO3/
AgMBAAGjggFjMIIBXzAJBgNVHRMEAjAAMC0GCWCGSAGG+EIBDQQgFh5FYXN5LVJT
QSBHZW5lcmF0ZWQgQ2VydGlmaWNhdGUwHQYDVR0OBBYEFPtH7v18kZ83blRB01i3
TYPkFBDoMIHhBgNVHSMEgdkwgdaAFBLNYATSoICecO3Gmbh7LMZS/RmhoYGypIGv
MIGsMQswCQYDVQQGEwJVUzELMAkGA1UECBMCT0gxETAPBgNVBAcTCENvbHVtYnVz
MRIwEAYDVQQKEwlWaWtpbmdWUE4xHTAbBgNVBAsTFE15T3JnYW5pemF0aW9uYWxV
bml0MRUwEwYDVQQDEwxWaWtpbmdWUE4gQ0ExEDAOBgNVBCkTB0Vhc3lSU0ExITAf
BgkqhkiG9w0BCQEWEm1lQG15aG9zdC5teWRvbWFpboIJAM81he6Avyo+MBMGA1Ud
JQQMMAoGCCsGAQUFBwMCMAsGA1UdDwQEAwIHgDANBgkqhkiG9w0BAQQFAAOCAgEA
Zt/bnc7lIiFZoosBJlrzcWA591qHcr8Lo3WPcrLBJovscvPz/2+cJuVTVIzdyxaJ
a84Do0TSZcD59BX0iNUVFMnJ3MlUW/9OoHdv0r2HfkywCxACIiRrYRHY/BmgfrQM
qK6pF6TtkfaJfEtxxvBR2f4r4NeRHHn/EUTYpBG9Onkg4ARFnNShwhueTvezx0qE
7LhRdbNmz0I1TEOXzYCv3B+7FVURTaM5jEUX0YF9/18r+G3UUkY4UAkVrQerB3K3
PGNqQQYpg8jNfSgzxp5T5oh75VHD+5q6QfxK9ylJIs6x0shwwC+a8iwL0Zf+CBIW
bUoijpH/XtQKYkgZIuBElIpaTtWLknVvfkr2GSAqoexyCSUMc9kGtn+YvRNd5Vxn
s1wvn+6Ha10BQNQynXzTHA4GqhwYebE48Sw8RaXniip8A8MIKU9khgBHu9lQOsIG
6mMcJTTVt+AS0wsgCi/68GjQfYT1whu1XFAxLesfMdZflUpNeUNVfarPgP20jHfW
MvKrl07DGfm1MnvzEpWKZkznMUDIHdcHU1bJC9+O9Cu1AGgnD9QTAVpX+QpG+DP/
bxjIG7u5eQwJpY3/IgwGhvIvKac9MgzvQ2w1Dxk4LYmoiwhRnOl920CgHu2U82wz
AS1etUB+dmCJyykyhxKCjlIz5XwhA3IwA0uOLm3XROQ=
-----END CERTIFICATE-----
