Certificate:
    Data:
        Version: 3 (0x2)
        Serial Number: 1143 (0x477)
    Signature Algorithm: md5WithRSAEncryption
        Issuer: C=US, ST=OH, L=Columbus, O=VikingVPN, OU=MyOrganizationalUnit, CN=VikingVPN CA/name=EasyRSA/emailAddress=me@myhost.mydomain
        Validity
            Not Before: Feb 23 21:57:21 2014 GMT
            Not After : Feb 21 21:57:21 2024 GMT
        Subject: CN=Client416Cert69dbe6
        Subject Public Key Info:
            Public Key Algorithm: rsaEncryption
                Public-Key: (4096 bit)
                Modulus:
                    00:b8:cd:71:94:ce:78:32:bc:eb:9c:7a:6a:de:32:
                    00:35:b9:bc:a4:d7:50:a8:ed:f5:3d:2e:94:6f:c3:
                    64:43:de:81:a1:1e:e3:32:98:98:e1:38:cd:c3:bd:
                    77:2a:37:a0:0b:f9:bf:a0:12:27:9b:34:ad:87:7d:
                    7e:1c:7c:1c:74:89:56:ad:ac:43:62:72:00:ab:4a:
                    06:83:b2:cd:81:45:a5:c5:91:b2:64:8e:85:3d:58:
                    f4:4b:0b:ba:f4:03:5b:5c:18:d7:d2:d7:cc:28:24:
                    5d:ca:3e:e6:b2:f7:63:15:4d:cb:7d:54:d0:1b:95:
                    8f:89:da:0c:f4:f6:9e:c0:0b:37:48:36:73:9f:04:
                    13:dc:ad:c8:18:2d:1b:e7:15:22:91:9d:bc:80:a5:
                    9d:90:7e:18:ce:e1:d7:3b:2d:ac:d2:6c:2e:bc:56:
                    cd:a3:3b:ba:e1:01:91:0e:c2:80:1e:a8:78:d7:02:
                    c4:8e:94:ed:46:8a:87:92:61:00:43:d1:b3:c0:5e:
                    19:73:b1:24:30:9f:6c:50:39:09:70:65:f3:29:f9:
                    82:1c:9f:a2:6d:e1:aa:20:79:b7:62:94:2f:df:12:
                    f3:35:3b:53:e9:27:f3:ff:4e:a0:fa:a1:99:72:5d:
                    61:d9:56:0a:20:dd:9e:d5:7a:f0:af:4a:5d:0a:36:
                    96:47:b0:09:ca:51:eb:27:e3:72:16:d0:c4:f3:e5:
                    df:82:91:b3:98:93:42:1a:67:76:3e:c0:fe:b3:45:
                    14:6b:e1:8d:3c:37:3c:91:95:62:90:b9:9a:e8:fa:
                    57:fc:03:7e:bb:de:53:b7:c2:1e:0a:f2:c2:70:8e:
                    a6:42:28:2a:6a:18:37:8e:8a:94:29:50:47:88:f1:
                    06:00:2d:da:41:e6:e5:7e:8c:37:ff:35:7a:5e:ab:
                    fc:2f:e8:59:e4:0a:7a:e4:6e:fc:97:08:e6:14:f7:
                    27:9f:be:34:48:39:f1:cb:d8:2c:b2:cd:d2:5c:b5:
                    a8:c0:34:1e:f8:54:c0:cb:68:5c:6f:91:46:21:3e:
                    df:55:a4:44:60:a1:e0:c6:aa:4b:77:66:63:7d:b3:
                    89:fe:ba:6b:0c:2f:28:be:28:3a:71:ed:1e:5a:c5:
                    6e:8c:39:69:60:37:22:fe:a0:e8:d8:6c:a5:32:76:
                    d9:ac:00:72:55:1e:50:ad:60:89:1e:6c:6c:8f:92:
                    83:c6:17:ca:14:a6:db:62:45:84:c9:2d:e9:4a:de:
                    08:da:2d:9c:1b:e4:44:ea:1d:3e:2f:3b:3c:74:9e:
                    82:0a:6b:e6:fd:64:f2:5b:00:db:05:bd:d6:44:c2:
                    c8:05:a2:45:99:47:12:e6:71:cb:a6:4e:ce:4d:79:
                    87:6a:13
                Exponent: 65537 (0x10001)
        X509v3 extensions:
            X509v3 Basic Constraints: 
                CA:FALSE
            Netscape Comment: 
                Easy-RSA Generated Certificate
            X509v3 Subject Key Identifier: 
                60:74:C2:0A:0E:15:72:CA:FE:FB:66:4F:13:D9:51:BC:D0:B7:17:8B
            X509v3 Authority Key Identifier: 
                keyid:12:CD:60:04:D2:A0:80:9E:70:ED:C6:99:B8:7B:2C:C6:52:FD:19:A1
                DirName:/C=US/ST=OH/L=Columbus/O=VikingVPN/OU=MyOrganizationalUnit/CN=VikingVPN CA/name=EasyRSA/emailAddress=me@myhost.mydomain
                serial:CF:35:85:EE:80:BF:2A:3E

            X509v3 Extended Key Usage: 
                TLS Web Client Authentication
            X509v3 Key Usage: 
                Digital Signature
    Signature Algorithm: md5WithRSAEncryption
         0f:72:8d:46:45:4e:92:10:55:7d:69:96:a9:c4:d1:b6:27:fc:
         e0:12:18:15:c6:f4:5e:f1:c6:77:3c:1e:a9:d7:fd:b0:0a:6d:
         c0:6f:8c:5f:b1:78:fe:f0:da:0d:13:74:aa:12:70:a7:10:b2:
         29:b5:d4:31:6d:b3:73:30:ac:38:22:4b:a4:d0:27:53:a7:c5:
         ec:09:8b:ea:8c:3d:fa:4f:43:ef:02:00:58:60:4c:c2:9f:5b:
         5d:26:02:20:a1:c9:3a:d1:81:6f:80:3e:c7:ab:d2:f4:50:77:
         d0:10:3a:e8:da:c3:94:28:47:e1:5d:0f:82:2a:55:f4:bb:b0:
         ec:ef:ba:1e:bb:3e:6b:a1:d9:11:ce:9d:31:b0:78:fc:92:a3:
         4b:62:8a:3e:6f:3a:19:b4:78:6c:87:f3:db:e4:31:9e:e8:59:
         57:70:b4:36:8b:ff:0f:f9:30:a5:cf:c9:58:8d:3d:ea:b6:94:
         8e:1b:b5:09:fa:ee:5a:94:3e:28:c5:f2:ec:e3:0c:7a:d3:8c:
         e3:6f:c3:c8:99:93:a9:75:bf:45:c5:0e:9d:b3:19:0f:87:ae:
         36:d7:d1:84:6c:6e:6f:14:b3:fa:ba:23:32:21:dc:cb:fb:44:
         37:7d:9f:79:25:f4:8d:30:7b:aa:04:7e:df:32:06:24:66:c8:
         bd:9d:cd:cf:18:a0:92:56:1e:39:8d:e9:7f:fa:c1:27:8d:c8:
         01:2b:59:c4:8f:1b:70:59:c3:0c:41:dd:28:e8:78:38:53:86:
         d3:7e:83:dd:8c:33:05:21:39:3d:9d:56:10:36:67:3f:03:ef:
         ac:cf:1d:45:47:d0:09:43:6c:6c:89:42:43:27:02:9b:57:12:
         c1:6a:21:28:ca:a0:6e:8c:26:ee:ac:a7:d0:ad:ad:cd:32:29:
         f1:3d:81:95:b3:66:8e:ab:d8:37:66:c5:5a:56:bb:82:da:34:
         06:8f:88:1b:b4:43:6b:6d:e2:0c:43:3e:71:27:ac:d0:04:ce:
         da:90:c0:68:92:eb:9c:99:4a:1e:4c:f1:6e:d9:56:e4:04:19:
         41:f3:1f:87:30:ce:6f:36:a5:90:27:91:bd:b4:40:15:20:1c:
         21:f3:de:3d:31:84:ae:82:2e:53:95:b5:4c:88:42:2a:1f:ad:
         eb:98:36:37:d0:90:8e:d7:b8:9b:f6:c0:91:52:7f:41:87:8c:
         ca:4c:30:fe:66:1d:7a:13:c7:9b:e7:39:2e:4c:ae:fb:4a:06:
         16:c6:93:c4:91:a8:fe:44:eb:be:a0:5d:6d:47:0a:1e:f8:09:
         92:f2:61:e5:68:bf:01:f0:88:89:a6:3d:a2:ff:af:c7:20:92:
         c9:58:d0:42:a5:98:9b:1f
-----BEGIN CERTIFICATE-----
MIIGrDCCBJSgAwIBAgICBHcwDQYJKoZIhvcNAQEEBQAwgawxCzAJBgNVBAYTAlVT
MQswCQYDVQQIEwJPSDERMA8GA1UEBxMIQ29sdW1idXMxEjAQBgNVBAoTCVZpa2lu
Z1ZQTjEdMBsGA1UECxMUTXlPcmdhbml6YXRpb25hbFVuaXQxFTATBgNVBAMTDFZp
a2luZ1ZQTiBDQTEQMA4GA1UEKRMHRWFzeVJTQTEhMB8GCSqGSIb3DQEJARYSbWVA
bXlob3N0Lm15ZG9tYWluMB4XDTE0MDIyMzIxNTcyMVoXDTI0MDIyMTIxNTcyMVow
HjEcMBoGA1UEAxMTQ2xpZW50NDE2Q2VydDY5ZGJlNjCCAiIwDQYJKoZIhvcNAQEB
BQADggIPADCCAgoCggIBALjNcZTOeDK865x6at4yADW5vKTXUKjt9T0ulG/DZEPe
gaEe4zKYmOE4zcO9dyo3oAv5v6ASJ5s0rYd9fhx8HHSJVq2sQ2JyAKtKBoOyzYFF
pcWRsmSOhT1Y9EsLuvQDW1wY19LXzCgkXco+5rL3YxVNy31U0BuVj4naDPT2nsAL
N0g2c58EE9ytyBgtG+cVIpGdvIClnZB+GM7h1zstrNJsLrxWzaM7uuEBkQ7CgB6o
eNcCxI6U7UaKh5JhAEPRs8BeGXOxJDCfbFA5CXBl8yn5ghyfom3hqiB5t2KUL98S
8zU7U+kn8/9OoPqhmXJdYdlWCiDdntV68K9KXQo2lkewCcpR6yfjchbQxPPl34KR
s5iTQhpndj7A/rNFFGvhjTw3PJGVYpC5muj6V/wDfrveU7fCHgrywnCOpkIoKmoY
N46KlClQR4jxBgAt2kHm5X6MN/81el6r/C/oWeQKeuRu/JcI5hT3J5++NEg58cvY
LLLN0ly1qMA0HvhUwMtoXG+RRiE+31WkRGCh4MaqS3dmY32zif66awwvKL4oOnHt
HlrFbow5aWA3Iv6g6NhspTJ22awAclUeUK1giR5sbI+Sg8YXyhSm22JFhMkt6Ure
CNotnBvkROodPi87PHSeggpr5v1k8lsA2wW91kTCyAWiRZlHEuZxy6ZOzk15h2oT
AgMBAAGjggFjMIIBXzAJBgNVHRMEAjAAMC0GCWCGSAGG+EIBDQQgFh5FYXN5LVJT
QSBHZW5lcmF0ZWQgQ2VydGlmaWNhdGUwHQYDVR0OBBYEFGB0wgoOFXLK/vtmTxPZ
UbzQtxeLMIHhBgNVHSMEgdkwgdaAFBLNYATSoICecO3Gmbh7LMZS/RmhoYGypIGv
MIGsMQswCQYDVQQGEwJVUzELMAkGA1UECBMCT0gxETAPBgNVBAcTCENvbHVtYnVz
MRIwEAYDVQQKEwlWaWtpbmdWUE4xHTAbBgNVBAsTFE15T3JnYW5pemF0aW9uYWxV
bml0MRUwEwYDVQQDEwxWaWtpbmdWUE4gQ0ExEDAOBgNVBCkTB0Vhc3lSU0ExITAf
BgkqhkiG9w0BCQEWEm1lQG15aG9zdC5teWRvbWFpboIJAM81he6Avyo+MBMGA1Ud
JQQMMAoGCCsGAQUFBwMCMAsGA1UdDwQEAwIHgDANBgkqhkiG9w0BAQQFAAOCAgEA
D3KNRkVOkhBVfWmWqcTRtif84BIYFcb0XvHGdzweqdf9sAptwG+MX7F4/vDaDRN0
qhJwpxCyKbXUMW2zczCsOCJLpNAnU6fF7AmL6ow9+k9D7wIAWGBMwp9bXSYCIKHJ
OtGBb4A+x6vS9FB30BA66NrDlChH4V0PgipV9Luw7O+6Hrs+a6HZEc6dMbB4/JKj
S2KKPm86GbR4bIfz2+QxnuhZV3C0Nov/D/kwpc/JWI096raUjhu1CfruWpQ+KMXy
7OMMetOM42/DyJmTqXW/RcUOnbMZD4euNtfRhGxubxSz+rojMiHcy/tEN32feSX0
jTB7qgR+3zIGJGbIvZ3NzxigklYeOY3pf/rBJ43IAStZxI8bcFnDDEHdKOh4OFOG
036D3YwzBSE5PZ1WEDZnPwPvrM8dRUfQCUNsbIlCQycCm1cSwWohKMqgbowm7qyn
0K2tzTIp8T2BlbNmjqvYN2bFWla7gto0Bo+IG7RDa23iDEM+cSes0ATO2pDAaJLr
nJlKHkzxbtlW5AQZQfMfhzDObzalkCeRvbRAFSAcIfPePTGEroIuU5W1TIhCKh+t
65g2N9CQjte4m/bAkVJ/QYeMykww/mYdehPHm+c5Lkyu+0oGFsaTxJGo/kTrvqBd
bUcKHvgJkvJh5Wi/AfCIiaY9ov+vxyCSyVjQQqWYmx8=
-----END CERTIFICATE-----
