Certificate:
    Data:
        Version: 3 (0x2)
        Serial Number: 1151 (0x47f)
    Signature Algorithm: md5WithRSAEncryption
        Issuer: C=US, ST=OH, L=Columbus, O=VikingVPN, OU=MyOrganizationalUnit, CN=VikingVPN CA/name=EasyRSA/emailAddress=me@myhost.mydomain
        Validity
            Not Before: Feb 25 21:58:12 2014 GMT
            Not After : Feb 23 21:58:12 2024 GMT
        Subject: CN=Client421Certcb1a2e
        Subject Public Key Info:
            Public Key Algorithm: rsaEncryption
                Public-Key: (4096 bit)
                Modulus:
                    00:be:a0:f1:f9:b7:65:1f:58:86:de:70:34:3a:17:
                    bc:63:bd:8c:a8:00:1c:d4:d2:1f:47:cf:a5:eb:69:
                    8b:58:e8:4f:34:27:5e:6b:6d:e5:a3:06:03:a2:ab:
                    9f:93:97:cf:75:8a:77:87:90:ff:69:a5:7a:49:84:
                    f6:96:45:21:96:ab:af:15:a6:08:6a:0b:7d:bc:6c:
                    8d:ed:15:8c:64:d4:54:14:52:cf:5b:4e:e3:5e:7f:
                    7b:fe:91:29:6a:3f:13:55:4e:01:2a:e4:b5:ea:5a:
                    f0:fc:8b:aa:db:f4:97:80:1a:9e:d9:44:ca:a1:7e:
                    16:f6:43:4c:49:7f:30:c5:bc:d1:dc:b2:43:6a:0e:
                    b2:82:27:4e:99:dc:d1:69:04:8a:0d:49:ef:73:11:
                    34:d7:e9:c1:82:c8:d5:59:4e:a0:aa:54:f5:af:03:
                    c5:be:95:a7:0e:f7:5d:ff:c0:55:6c:c7:30:ad:89:
                    31:8b:34:74:ce:e8:0f:28:5d:fc:ca:2f:36:ec:8f:
                    42:23:00:21:cb:be:ee:67:2b:5e:65:fd:8c:92:23:
                    7b:b0:c0:16:b2:00:60:9f:ad:09:49:07:d7:62:7b:
                    0c:c1:ef:dd:9c:8a:d9:64:7e:0f:97:f0:a0:82:09:
                    1c:82:85:46:98:ba:0a:3d:ed:c2:41:48:45:5f:7b:
                    91:ac:ee:5b:7a:87:8c:03:90:db:e7:1c:9e:b1:1a:
                    16:fa:9b:52:20:3d:39:46:eb:6e:a2:ad:a8:81:65:
                    c4:10:f0:d5:24:99:9e:15:8b:5c:20:5b:15:ba:f4:
                    39:e9:cf:c4:3f:d2:a9:ed:47:e9:1d:fc:9d:e0:06:
                    cb:ba:57:ce:30:2b:4f:64:08:4c:f4:7e:2c:b0:18:
                    46:a0:7b:31:21:f8:48:58:0f:c4:23:ff:fe:34:cd:
                    0e:f7:00:16:90:c4:e5:a9:a1:da:0d:b8:56:c2:09:
                    b1:30:56:26:87:22:ba:2a:1a:2c:5c:42:20:ed:b1:
                    41:73:68:5a:83:dc:4d:24:c0:48:72:05:c2:62:3d:
                    af:8d:2c:30:39:8e:58:69:4f:e9:ae:19:4d:e1:76:
                    ae:fc:8b:98:9c:be:83:e3:e8:52:bf:76:a2:9d:19:
                    a0:39:1e:11:77:a3:72:01:7f:23:49:91:4d:30:2e:
                    c1:fe:74:51:47:90:3f:1a:e7:43:ed:ae:7b:35:10:
                    39:a1:35:b8:7f:47:a3:9c:5f:cd:2e:e2:cb:94:bc:
                    fe:3f:d4:83:8d:a2:a1:22:b6:8b:67:0c:bd:ab:0d:
                    8d:1d:c3:28:92:61:2d:8d:62:12:e0:2f:d6:ea:0e:
                    b8:f5:88:e8:81:f3:a4:99:03:18:94:ea:46:4e:41:
                    40:1b:8d
                Exponent: 65537 (0x10001)
        X509v3 extensions:
            X509v3 Basic Constraints: 
                CA:FALSE
            Netscape Comment: 
                Easy-RSA Generated Certificate
            X509v3 Subject Key Identifier: 
                80:F5:94:50:68:1B:35:2E:55:F3:0A:60:FB:CD:78:91:B4:EE:48:6A
            X509v3 Authority Key Identifier: 
                keyid:12:CD:60:04:D2:A0:80:9E:70:ED:C6:99:B8:7B:2C:C6:52:FD:19:A1
                DirName:/C=US/ST=OH/L=Columbus/O=VikingVPN/OU=MyOrganizationalUnit/CN=VikingVPN CA/name=EasyRSA/emailAddress=me@myhost.mydomain
                serial:CF:35:85:EE:80:BF:2A:3E

            X509v3 Extended Key Usage: 
                TLS Web Client Authentication
            X509v3 Key Usage: 
                Digital Signature
    Signature Algorithm: md5WithRSAEncryption
         42:5f:8c:bf:73:a6:2b:13:74:e9:ea:14:e8:22:d3:44:61:8e:
         87:b3:aa:19:2e:85:e6:4c:e7:f0:25:dd:4f:92:3e:ae:b9:c4:
         e4:10:d0:3d:a3:0b:fd:b6:d6:02:aa:28:16:a9:b7:a0:e2:f1:
         d4:47:1c:02:46:f2:8a:ed:5c:89:e4:73:e9:74:8b:7d:01:33:
         dc:f3:03:95:b7:11:02:71:b2:63:db:94:da:c0:7d:5c:74:7c:
         d0:ef:12:f5:19:54:17:85:37:9c:f6:7d:56:10:fe:51:c4:82:
         14:1d:5b:98:a6:34:ca:d5:93:d2:92:c6:f0:19:e0:1e:e5:9f:
         d7:0f:f3:05:b3:01:ba:b5:75:ff:af:30:31:15:82:77:59:d1:
         da:c8:52:f6:0f:f6:bd:f4:02:9f:27:3a:6d:8a:94:a5:0f:81:
         ca:e5:d3:f4:b4:74:83:31:c6:2a:c2:b1:f1:e8:cf:f9:ad:91:
         a7:28:53:8b:e4:6f:f1:82:9f:cf:46:45:54:b4:78:53:72:cf:
         85:a7:2e:80:c6:c7:4d:54:0d:cf:0e:39:b6:72:2f:1a:23:84:
         78:15:63:5e:2f:34:f9:d5:12:be:93:0f:75:5e:fb:aa:27:29:
         b2:6f:cd:09:1e:b7:64:9e:b1:bd:e4:98:d6:30:8b:1b:aa:1e:
         f0:41:77:15:9a:b5:a3:72:fa:6a:7b:5c:96:77:6b:07:6a:fe:
         72:5e:52:7a:e4:3a:06:09:a2:b7:c5:46:b8:25:e2:8b:67:86:
         b3:61:04:d1:f4:f4:c4:b1:64:08:cd:60:40:37:12:d3:64:1c:
         4d:f9:bc:06:97:29:68:d2:73:3c:4c:b9:7f:56:cf:74:6c:98:
         d7:e6:ab:b1:83:d9:d1:10:28:8a:ac:6c:d6:ef:ac:14:a5:44:
         43:6b:c4:71:8d:10:4e:81:fc:9d:0c:08:cb:5c:18:74:0c:57:
         89:c4:2a:40:8f:ea:90:cd:0e:fe:2a:aa:f7:b2:4f:d6:ae:b2:
         c9:62:0b:86:30:fc:2b:22:c7:0a:0f:d0:48:d5:1a:bf:6f:44:
         e7:75:60:26:94:94:57:23:d6:09:1c:3f:24:d2:cd:f5:cc:00:
         00:d1:a5:5b:cf:e6:da:af:d7:e5:9f:38:9a:7c:19:e6:13:da:
         69:9d:32:d3:9c:4c:f9:c7:6e:fc:71:49:c4:c4:f6:08:0f:46:
         52:a4:5d:0c:c7:71:68:28:c9:3e:18:a0:1e:94:6b:12:a2:a7:
         6d:4a:3c:8a:00:30:10:ec:1a:c9:9f:ab:db:6d:67:7b:56:51:
         7b:c4:e9:27:e7:7e:72:24:17:52:7b:cd:90:ce:f7:43:5f:e0:
         fa:e0:c3:4b:a5:10:65:93
-----BEGIN CERTIFICATE-----
MIIGrDCCBJSgAwIBAgICBH8wDQYJKoZIhvcNAQEEBQAwgawxCzAJBgNVBAYTAlVT
MQswCQYDVQQIEwJPSDERMA8GA1UEBxMIQ29sdW1idXMxEjAQBgNVBAoTCVZpa2lu
Z1ZQTjEdMBsGA1UECxMUTXlPcmdhbml6YXRpb25hbFVuaXQxFTATBgNVBAMTDFZp
a2luZ1ZQTiBDQTEQMA4GA1UEKRMHRWFzeVJTQTEhMB8GCSqGSIb3DQEJARYSbWVA
bXlob3N0Lm15ZG9tYWluMB4XDTE0MDIyNTIxNTgxMloXDTI0MDIyMzIxNTgxMlow
HjEcMBoGA1UEAxMTQ2xpZW50NDIxQ2VydGNiMWEyZTCCAiIwDQYJKoZIhvcNAQEB
BQADggIPADCCAgoCggIBAL6g8fm3ZR9Yht5wNDoXvGO9jKgAHNTSH0fPpetpi1jo
TzQnXmtt5aMGA6Krn5OXz3WKd4eQ/2mlekmE9pZFIZarrxWmCGoLfbxsje0VjGTU
VBRSz1tO415/e/6RKWo/E1VOASrktepa8PyLqtv0l4AantlEyqF+FvZDTEl/MMW8
0dyyQ2oOsoInTpnc0WkEig1J73MRNNfpwYLI1VlOoKpU9a8Dxb6Vpw73Xf/AVWzH
MK2JMYs0dM7oDyhd/MovNuyPQiMAIcu+7mcrXmX9jJIje7DAFrIAYJ+tCUkH12J7
DMHv3ZyK2WR+D5fwoIIJHIKFRpi6Cj3twkFIRV97kazuW3qHjAOQ2+ccnrEaFvqb
UiA9OUbrbqKtqIFlxBDw1SSZnhWLXCBbFbr0OenPxD/Sqe1H6R38neAGy7pXzjAr
T2QITPR+LLAYRqB7MSH4SFgPxCP//jTNDvcAFpDE5amh2g24VsIJsTBWJociuioa
LFxCIO2xQXNoWoPcTSTASHIFwmI9r40sMDmOWGlP6a4ZTeF2rvyLmJy+g+PoUr92
op0ZoDkeEXejcgF/I0mRTTAuwf50UUeQPxrnQ+2uezUQOaE1uH9Ho5xfzS7iy5S8
/j/Ug42ioSK2i2cMvasNjR3DKJJhLY1iEuAv1uoOuPWI6IHzpJkDGJTqRk5BQBuN
AgMBAAGjggFjMIIBXzAJBgNVHRMEAjAAMC0GCWCGSAGG+EIBDQQgFh5FYXN5LVJT
QSBHZW5lcmF0ZWQgQ2VydGlmaWNhdGUwHQYDVR0OBBYEFID1lFBoGzUuVfMKYPvN
eJG07khqMIHhBgNVHSMEgdkwgdaAFBLNYATSoICecO3Gmbh7LMZS/RmhoYGypIGv
MIGsMQswCQYDVQQGEwJVUzELMAkGA1UECBMCT0gxETAPBgNVBAcTCENvbHVtYnVz
MRIwEAYDVQQKEwlWaWtpbmdWUE4xHTAbBgNVBAsTFE15T3JnYW5pemF0aW9uYWxV
bml0MRUwEwYDVQQDEwxWaWtpbmdWUE4gQ0ExEDAOBgNVBCkTB0Vhc3lSU0ExITAf
BgkqhkiG9w0BCQEWEm1lQG15aG9zdC5teWRvbWFpboIJAM81he6Avyo+MBMGA1Ud
JQQMMAoGCCsGAQUFBwMCMAsGA1UdDwQEAwIHgDANBgkqhkiG9w0BAQQFAAOCAgEA
Ql+Mv3OmKxN06eoU6CLTRGGOh7OqGS6F5kzn8CXdT5I+rrnE5BDQPaML/bbWAqoo
Fqm3oOLx1EccAkbyiu1cieRz6XSLfQEz3PMDlbcRAnGyY9uU2sB9XHR80O8S9RlU
F4U3nPZ9VhD+UcSCFB1bmKY0ytWT0pLG8BngHuWf1w/zBbMBurV1/68wMRWCd1nR
2shS9g/2vfQCnyc6bYqUpQ+ByuXT9LR0gzHGKsKx8ejP+a2RpyhTi+Rv8YKfz0ZF
VLR4U3LPhacugMbHTVQNzw45tnIvGiOEeBVjXi80+dUSvpMPdV77qicpsm/NCR63
ZJ6xveSY1jCLG6oe8EF3FZq1o3L6antclndrB2r+cl5SeuQ6Bgmit8VGuCXii2eG
s2EE0fT0xLFkCM1gQDcS02QcTfm8BpcpaNJzPEy5f1bPdGyY1+arsYPZ0RAoiqxs
1u+sFKVEQ2vEcY0QToH8nQwIy1wYdAxXicQqQI/qkM0O/iqq97JP1q6yyWILhjD8
KyLHCg/QSNUav29E53VgJpSUVyPWCRw/JNLN9cwAANGlW8/m2q/X5Z84mnwZ5hPa
aZ0y05xM+cdu/HFJxMT2CA9GUqRdDMdxaCjJPhigHpRrEqKnbUo8igAwEOwayZ+r
221ne1ZRe8TpJ+d+ciQXUnvNkM73Q1/g+uDDS6UQZZM=
-----END CERTIFICATE-----
