Certificate:
    Data:
        Version: 3 (0x2)
        Serial Number: 1154 (0x482)
    Signature Algorithm: md5WithRSAEncryption
        Issuer: C=US, ST=OH, L=Columbus, O=VikingVPN, OU=MyOrganizationalUnit, CN=VikingVPN CA/name=EasyRSA/emailAddress=me@myhost.mydomain
        Validity
            Not Before: Feb 26 01:22:44 2014 GMT
            Not After : Feb 24 01:22:44 2024 GMT
        Subject: CN=Client313Cert7ab4c2
        Subject Public Key Info:
            Public Key Algorithm: rsaEncryption
                Public-Key: (4096 bit)
                Modulus:
                    00:b7:28:9a:3e:73:91:8e:a2:e2:b0:77:9e:20:53:
                    90:c2:40:ea:b6:8b:45:8d:1e:df:2e:b7:aa:1c:5e:
                    9c:9a:5e:14:70:10:81:05:9e:c5:bb:40:2f:ab:1f:
                    30:ec:b9:82:90:88:58:a1:60:67:79:ac:bd:b1:c1:
                    04:31:d0:55:4e:0d:04:2f:9d:20:45:38:c1:dd:72:
                    4e:f2:fc:72:c7:52:ec:8e:c7:aa:39:bb:34:b5:63:
                    bb:ff:0b:72:3c:3f:22:13:9c:01:82:b3:a5:20:83:
                    c2:3d:0c:25:21:6c:60:67:83:92:50:30:40:29:59:
                    fb:3a:2b:ad:3c:45:ad:85:88:2d:8d:76:d6:08:0e:
                    1d:5c:16:96:33:ee:26:17:8e:c5:04:db:90:61:3e:
                    29:e2:36:e0:5d:35:3f:9a:d8:9a:0d:37:63:f3:d8:
                    0a:2f:dd:80:2b:93:22:dc:66:7c:3c:3d:b7:46:66:
                    b4:c1:81:a4:d0:d4:b5:f5:b8:57:f0:45:ca:68:c7:
                    cf:8f:f1:7f:33:7b:15:cb:3e:e8:1c:06:d0:c7:91:
                    61:57:ed:8e:0c:66:77:5f:d2:29:d6:6b:42:71:5e:
                    24:dc:42:d0:69:27:be:22:a9:ef:2f:11:b5:54:3a:
                    20:c0:ee:f2:7c:1f:5c:f8:fd:8d:00:18:ec:14:52:
                    c2:ad:52:3d:1e:89:2c:e3:bd:07:32:8f:53:c9:99:
                    f9:f5:62:b3:ae:e2:08:e4:c8:98:ca:84:24:dd:d5:
                    7c:10:62:a6:5d:9e:b6:29:33:30:d3:3f:d4:fc:7c:
                    72:7d:95:33:df:4b:01:86:88:e4:28:84:f0:b5:fa:
                    fd:4e:eb:5b:83:5f:d3:c5:46:01:86:f0:c1:92:f5:
                    67:15:5f:62:b4:64:f5:8a:e2:66:76:b8:15:6c:75:
                    36:2b:f7:8d:e3:82:cf:51:e2:0b:55:9c:27:e3:0f:
                    63:57:ae:ee:70:16:f1:c0:9c:01:0f:24:18:db:23:
                    6c:96:7e:3a:ba:07:a0:8d:2c:09:73:c3:a4:19:cb:
                    bd:64:0e:37:1a:7e:c0:ef:09:df:15:5c:b0:92:59:
                    ae:86:aa:58:a1:7f:38:e6:03:e4:1e:f4:ba:6d:ae:
                    98:2e:7d:49:ec:a8:0d:0a:16:93:95:f7:81:7d:e5:
                    91:bd:fa:62:5d:58:0b:1f:0e:9b:ed:da:c9:7c:e5:
                    49:7e:3d:b5:54:b2:4a:73:dc:8f:4a:e5:5d:9c:8d:
                    c5:ee:47:0a:55:5c:73:04:1d:e0:cb:65:ba:a5:9e:
                    df:da:cd:6d:07:3a:f6:f9:66:9e:02:bd:71:fc:4c:
                    05:8a:92:6f:ea:5c:c9:92:1a:12:f7:e3:75:7c:02:
                    42:bb:c9
                Exponent: 65537 (0x10001)
        X509v3 extensions:
            X509v3 Basic Constraints: 
                CA:FALSE
            Netscape Comment: 
                Easy-RSA Generated Certificate
            X509v3 Subject Key Identifier: 
                CE:22:CB:1B:44:EE:CF:AC:27:74:E2:D7:F1:CC:6E:30:61:01:55:B5
            X509v3 Authority Key Identifier: 
                keyid:12:CD:60:04:D2:A0:80:9E:70:ED:C6:99:B8:7B:2C:C6:52:FD:19:A1
                DirName:/C=US/ST=OH/L=Columbus/O=VikingVPN/OU=MyOrganizationalUnit/CN=VikingVPN CA/name=EasyRSA/emailAddress=me@myhost.mydomain
                serial:CF:35:85:EE:80:BF:2A:3E

            X509v3 Extended Key Usage: 
                TLS Web Client Authentication
            X509v3 Key Usage: 
                Digital Signature
    Signature Algorithm: md5WithRSAEncryption
         2f:ca:37:9f:ba:19:70:b1:84:30:0e:a1:1a:16:4d:71:a0:a5:
         a9:3b:e5:69:60:9c:2b:ed:f9:9f:0c:b3:4a:7e:8f:36:79:37:
         cc:48:57:5f:01:f0:34:59:5d:1a:40:9c:d4:a4:e9:33:28:fd:
         ff:20:e8:93:dd:8b:f0:c2:47:fa:30:97:3f:a7:a6:7d:21:06:
         bd:a2:44:ed:cf:b0:1b:77:72:b4:50:b0:33:07:48:0a:bc:d3:
         7c:a4:bc:ba:6a:9b:99:ec:bf:15:f9:cb:ff:03:fd:20:ae:8c:
         88:bc:95:20:e5:28:3b:80:46:28:1c:b2:d4:79:48:d7:94:a6:
         89:4b:0b:89:46:6d:76:ec:d1:3b:b4:49:8d:8c:3a:17:ad:5a:
         cf:be:0a:63:1f:c3:14:e3:07:d6:67:ae:bd:5f:e0:60:61:be:
         3c:00:59:79:30:6c:47:f8:23:2d:40:0c:08:2d:2b:8d:d2:c9:
         ee:69:3e:07:59:a3:0f:b9:a7:71:78:2b:8e:b6:c8:03:8e:23:
         f9:d3:c6:a9:1f:d6:2f:e2:d0:c6:e4:bb:e4:40:c7:58:66:78:
         86:42:e7:d2:92:ef:10:07:32:0b:3e:ea:d3:64:50:86:2a:c5:
         6f:a0:e6:78:71:32:7a:d9:8d:c3:b3:12:0f:cb:89:1a:3d:4b:
         ba:ae:df:35:cd:49:47:28:6b:59:d9:03:d2:42:60:19:07:23:
         32:07:78:f5:3e:df:1b:70:94:0b:46:2d:0e:a0:c2:83:1d:e3:
         bc:6b:d4:8c:d3:00:53:09:e1:12:ce:b0:a6:7f:bf:2b:3b:51:
         08:a7:7a:b1:51:a1:18:ae:8f:bf:c7:23:0d:79:a7:b9:9d:ab:
         3a:a9:ef:96:05:69:d0:19:5d:a5:de:1c:34:e5:cb:b7:ed:10:
         f2:38:12:83:52:36:c9:91:9a:19:0e:9c:1e:4c:95:e4:f6:51:
         c5:53:5d:c5:d0:12:5f:bf:3f:b3:ef:02:bf:d0:6d:71:14:43:
         ac:43:10:f7:5e:c5:a7:29:5c:d6:f2:4e:e4:96:0f:19:4d:56:
         18:34:63:50:e4:e3:f4:00:8c:91:42:8a:cd:c5:e7:95:d0:63:
         a1:04:3e:97:21:7d:0d:c9:69:0d:68:d3:49:83:d2:d5:85:d6:
         aa:5b:88:cd:29:a6:bc:4c:f1:ce:0f:f0:b1:0e:f6:e4:f5:f9:
         90:4b:ba:db:37:1a:6f:9d:79:14:33:4c:53:85:0e:4f:ee:e6:
         f9:d1:51:e5:d4:1f:55:b8:0d:f8:ce:4b:f7:4f:7b:c2:f8:a8:
         a4:ad:e0:bc:3b:8e:72:38:55:5d:02:df:a0:55:c9:2d:a0:a8:
         80:80:4f:8d:64:5e:63:64
-----BEGIN CERTIFICATE-----
MIIGrDCCBJSgAwIBAgICBIIwDQYJKoZIhvcNAQEEBQAwgawxCzAJBgNVBAYTAlVT
MQswCQYDVQQIEwJPSDERMA8GA1UEBxMIQ29sdW1idXMxEjAQBgNVBAoTCVZpa2lu
Z1ZQTjEdMBsGA1UECxMUTXlPcmdhbml6YXRpb25hbFVuaXQxFTATBgNVBAMTDFZp
a2luZ1ZQTiBDQTEQMA4GA1UEKRMHRWFzeVJTQTEhMB8GCSqGSIb3DQEJARYSbWVA
bXlob3N0Lm15ZG9tYWluMB4XDTE0MDIyNjAxMjI0NFoXDTI0MDIyNDAxMjI0NFow
HjEcMBoGA1UEAxMTQ2xpZW50MzEzQ2VydDdhYjRjMjCCAiIwDQYJKoZIhvcNAQEB
BQADggIPADCCAgoCggIBALcomj5zkY6i4rB3niBTkMJA6raLRY0e3y63qhxenJpe
FHAQgQWexbtAL6sfMOy5gpCIWKFgZ3msvbHBBDHQVU4NBC+dIEU4wd1yTvL8csdS
7I7Hqjm7NLVju/8Lcjw/IhOcAYKzpSCDwj0MJSFsYGeDklAwQClZ+zorrTxFrYWI
LY121ggOHVwWljPuJheOxQTbkGE+KeI24F01P5rYmg03Y/PYCi/dgCuTItxmfDw9
t0ZmtMGBpNDUtfW4V/BFymjHz4/xfzN7Fcs+6BwG0MeRYVftjgxmd1/SKdZrQnFe
JNxC0GknviKp7y8RtVQ6IMDu8nwfXPj9jQAY7BRSwq1SPR6JLOO9BzKPU8mZ+fVi
s67iCOTImMqEJN3VfBBipl2etikzMNM/1Px8cn2VM99LAYaI5CiE8LX6/U7rW4Nf
08VGAYbwwZL1ZxVfYrRk9YriZna4FWx1Niv3jeOCz1HiC1WcJ+MPY1eu7nAW8cCc
AQ8kGNsjbJZ+OroHoI0sCXPDpBnLvWQONxp+wO8J3xVcsJJZroaqWKF/OOYD5B70
um2umC59SeyoDQoWk5X3gX3lkb36Yl1YCx8Om+3ayXzlSX49tVSySnPcj0rlXZyN
xe5HClVccwQd4MtluqWe39rNbQc69vlmngK9cfxMBYqSb+pcyZIaEvfjdXwCQrvJ
AgMBAAGjggFjMIIBXzAJBgNVHRMEAjAAMC0GCWCGSAGG+EIBDQQgFh5FYXN5LVJT
QSBHZW5lcmF0ZWQgQ2VydGlmaWNhdGUwHQYDVR0OBBYEFM4iyxtE7s+sJ3Ti1/HM
bjBhAVW1MIHhBgNVHSMEgdkwgdaAFBLNYATSoICecO3Gmbh7LMZS/RmhoYGypIGv
MIGsMQswCQYDVQQGEwJVUzELMAkGA1UECBMCT0gxETAPBgNVBAcTCENvbHVtYnVz
MRIwEAYDVQQKEwlWaWtpbmdWUE4xHTAbBgNVBAsTFE15T3JnYW5pemF0aW9uYWxV
bml0MRUwEwYDVQQDEwxWaWtpbmdWUE4gQ0ExEDAOBgNVBCkTB0Vhc3lSU0ExITAf
BgkqhkiG9w0BCQEWEm1lQG15aG9zdC5teWRvbWFpboIJAM81he6Avyo+MBMGA1Ud
JQQMMAoGCCsGAQUFBwMCMAsGA1UdDwQEAwIHgDANBgkqhkiG9w0BAQQFAAOCAgEA
L8o3n7oZcLGEMA6hGhZNcaClqTvlaWCcK+35nwyzSn6PNnk3zEhXXwHwNFldGkCc
1KTpMyj9/yDok92L8MJH+jCXP6emfSEGvaJE7c+wG3dytFCwMwdICrzTfKS8umqb
mey/FfnL/wP9IK6MiLyVIOUoO4BGKByy1HlI15SmiUsLiUZtduzRO7RJjYw6F61a
z74KYx/DFOMH1meuvV/gYGG+PABZeTBsR/gjLUAMCC0rjdLJ7mk+B1mjD7mncXgr
jrbIA44j+dPGqR/WL+LQxuS75EDHWGZ4hkLn0pLvEAcyCz7q02RQhirFb6DmeHEy
etmNw7MSD8uJGj1Luq7fNc1JRyhrWdkD0kJgGQcjMgd49T7fG3CUC0YtDqDCgx3j
vGvUjNMAUwnhEs6wpn+/KztRCKd6sVGhGK6Pv8cjDXmnuZ2rOqnvlgVp0Bldpd4c
NOXLt+0Q8jgSg1I2yZGaGQ6cHkyV5PZRxVNdxdASX78/s+8Cv9BtcRRDrEMQ917F
pylc1vJO5JYPGU1WGDRjUOTj9ACMkUKKzcXnldBjoQQ+lyF9DclpDWjTSYPS1YXW
qluIzSmmvEzxzg/wsQ725PX5kEu62zcab515FDNMU4UOT+7m+dFR5dQfVbgN+M5L
9097wviopK3gvDuOcjhVXQLfoFXJLaCogIBPjWReY2Q=
-----END CERTIFICATE-----
