Certificate:
    Data:
        Version: 3 (0x2)
        Serial Number: 1156 (0x484)
    Signature Algorithm: md5WithRSAEncryption
        Issuer: C=US, ST=OH, L=Columbus, O=VikingVPN, OU=MyOrganizationalUnit, CN=VikingVPN CA/name=EasyRSA/emailAddress=me@myhost.mydomain
        Validity
            Not Before: Feb 26 22:46:30 2014 GMT
            Not After : Feb 24 22:46:30 2024 GMT
        Subject: CN=Client423Certa98090
        Subject Public Key Info:
            Public Key Algorithm: rsaEncryption
                Public-Key: (4096 bit)
                Modulus:
                    00:be:77:39:b8:43:d7:8f:be:68:ba:ce:2a:e7:95:
                    d3:82:96:e8:3a:33:62:3c:dc:7e:64:13:62:00:fb:
                    bd:4b:cb:8e:58:74:80:ae:53:f2:2a:21:49:08:0a:
                    af:0b:5a:63:f9:9c:c3:d9:d6:2a:9f:da:d0:fd:ef:
                    e7:08:46:eb:71:ff:bc:49:52:65:3a:e4:33:ec:de:
                    eb:71:b5:32:4f:b6:a9:f7:51:63:1e:42:92:cd:b7:
                    0e:5a:e8:41:89:31:e5:b7:6b:5d:74:1d:58:3e:90:
                    51:92:ec:75:54:d8:48:e9:4d:9b:ca:3b:bb:72:16:
                    d8:6a:55:88:8b:66:4a:90:54:cd:d4:8b:b3:8f:c9:
                    0c:78:c9:63:a2:11:99:e9:fd:d4:4a:5c:8e:7d:af:
                    34:bb:43:c3:6e:b2:9e:94:72:a7:fe:90:11:8a:52:
                    f5:4d:ec:e1:ef:c4:e1:06:9c:47:37:1b:6b:d4:0b:
                    76:38:82:05:ce:ba:37:2a:c7:6d:66:be:e0:c4:36:
                    65:3d:36:05:78:56:49:62:6c:7b:2e:61:75:7e:ae:
                    f1:a8:5d:7c:a4:93:07:64:25:96:39:83:89:73:c0:
                    85:b2:9a:b3:c5:bd:3c:6f:2d:07:ce:4c:72:1c:96:
                    8d:f3:7c:d4:eb:2b:ac:5b:7d:21:a9:a9:9b:d6:d9:
                    99:99:a7:1d:49:64:1e:81:a5:5f:b4:f9:23:c5:bb:
                    7e:ea:21:52:a5:e0:04:fc:57:0f:0e:ac:3d:08:84:
                    0c:ba:d0:07:ee:68:93:14:f3:bd:fa:7e:02:7f:18:
                    f0:e4:ae:ad:01:d0:0f:e9:6f:ad:ce:8a:50:ae:93:
                    43:2f:bb:9c:c6:06:96:90:de:5a:28:45:8d:ff:ec:
                    15:86:c4:c7:64:63:81:b1:3e:d8:89:f6:a1:71:c8:
                    75:24:7e:ae:44:9e:c5:b5:f4:5a:89:1a:59:c0:72:
                    01:60:6a:19:ff:fe:25:8f:d5:05:c9:45:1d:f1:13:
                    b7:3c:d1:d3:52:78:42:24:dd:ca:2e:e2:55:8b:59:
                    b1:90:fc:0c:5f:de:e6:85:7b:23:38:15:33:d7:27:
                    c3:01:c5:35:c6:38:71:75:5a:16:43:68:7c:ef:4f:
                    2b:f6:c0:cd:33:c1:56:8d:37:f6:ef:20:94:83:62:
                    af:16:28:46:20:2c:5c:76:d7:6d:0c:00:4b:e1:db:
                    59:77:ee:b2:c4:10:69:21:25:10:3c:90:c3:fb:36:
                    53:e8:74:06:c0:89:d1:13:be:2d:2c:4d:bf:2b:27:
                    05:3d:3d:61:b5:54:2a:30:60:6b:dc:aa:a5:da:f0:
                    62:78:9a:94:8a:94:7c:63:75:be:a2:51:d4:76:2a:
                    16:47:e7
                Exponent: 65537 (0x10001)
        X509v3 extensions:
            X509v3 Basic Constraints: 
                CA:FALSE
            Netscape Comment: 
                Easy-RSA Generated Certificate
            X509v3 Subject Key Identifier: 
                C8:10:5F:90:34:8B:FA:02:C6:04:B0:BD:40:6F:6C:5D:ED:43:B8:9D
            X509v3 Authority Key Identifier: 
                keyid:12:CD:60:04:D2:A0:80:9E:70:ED:C6:99:B8:7B:2C:C6:52:FD:19:A1
                DirName:/C=US/ST=OH/L=Columbus/O=VikingVPN/OU=MyOrganizationalUnit/CN=VikingVPN CA/name=EasyRSA/emailAddress=me@myhost.mydomain
                serial:CF:35:85:EE:80:BF:2A:3E

            X509v3 Extended Key Usage: 
                TLS Web Client Authentication
            X509v3 Key Usage: 
                Digital Signature
    Signature Algorithm: md5WithRSAEncryption
         8c:aa:3a:32:7a:71:b4:11:76:62:ae:ec:21:3f:fd:d8:fd:f2:
         74:fd:d3:0a:78:09:0b:14:62:d4:3e:7e:9a:f2:fb:61:a3:cd:
         26:a5:51:34:78:c1:13:36:af:e6:16:5c:cb:ca:ab:8f:7f:40:
         44:eb:9b:c1:4a:fc:ec:b5:91:86:a5:19:ad:b7:9c:7f:47:36:
         ad:50:57:5d:9d:70:ee:0b:4c:55:8c:ef:8f:11:7a:d6:d0:2d:
         9c:1d:ef:7a:24:ef:72:79:e4:a4:45:df:66:95:21:0f:9a:71:
         f5:14:da:bd:8c:c0:c2:33:d5:8b:7a:54:cc:c7:3b:4c:e3:ce:
         68:8d:61:ff:09:e2:32:f8:c7:91:89:d4:fb:2a:d7:54:01:c5:
         dd:b8:ba:d3:e2:d9:02:5a:1c:48:93:a6:62:32:c8:13:19:e3:
         2f:62:04:fe:53:be:5b:b4:bb:1a:b6:9a:5c:be:de:eb:56:14:
         d5:2d:e4:a2:f8:e2:a7:68:db:4e:de:fc:77:b6:42:78:3e:2c:
         81:21:af:b1:28:29:f2:6f:3f:21:3f:37:a9:67:97:be:af:45:
         09:69:b2:17:78:4f:42:d2:db:7b:37:ed:b1:90:b0:b7:b5:15:
         11:04:b4:cb:9d:81:ac:ab:6b:d4:a4:12:65:31:2d:7c:dd:5e:
         7a:d7:e7:91:0a:33:59:61:c3:d8:45:e8:6b:c3:f1:84:66:a1:
         b7:ee:7d:fd:6e:2c:63:66:7e:9c:4b:23:1b:29:d8:5c:cd:4f:
         96:75:42:dc:14:3e:a6:08:f9:5d:16:4d:a2:23:2e:55:76:bf:
         f9:a9:96:07:cc:e4:ff:a9:f8:74:ce:f4:16:28:a4:70:46:47:
         62:db:a9:2e:b7:bb:02:ce:77:78:66:0c:5e:15:21:4e:2c:ac:
         00:c5:29:3f:b4:7f:5b:c0:8f:40:12:e0:c5:d0:3a:72:58:6b:
         71:b3:05:b3:c1:fb:80:09:40:e4:94:1b:33:38:be:13:c1:d7:
         5b:97:f3:8c:ab:6d:0d:a4:02:e8:33:d3:e2:98:8d:80:8c:54:
         4c:59:48:00:67:d6:2b:e9:ea:f0:12:da:da:df:ce:b3:84:f3:
         67:30:26:3c:f6:8e:f1:a3:e6:91:e4:73:11:0a:b8:fb:15:72:
         74:15:69:96:b1:fe:a4:8e:74:ab:3b:4f:e4:7c:bb:14:0b:80:
         75:54:5f:55:44:b5:fe:a8:1b:49:38:36:6d:bb:1c:2b:a5:cf:
         ea:92:8c:c7:26:42:2f:d7:f0:69:3a:cb:79:f5:91:c3:69:f5:
         25:09:b8:24:85:f6:15:39:df:19:79:5c:8e:0b:46:eb:47:b4:
         39:4b:d3:f8:36:cd:9c:40
-----BEGIN CERTIFICATE-----
MIIGrDCCBJSgAwIBAgICBIQwDQYJKoZIhvcNAQEEBQAwgawxCzAJBgNVBAYTAlVT
MQswCQYDVQQIEwJPSDERMA8GA1UEBxMIQ29sdW1idXMxEjAQBgNVBAoTCVZpa2lu
Z1ZQTjEdMBsGA1UECxMUTXlPcmdhbml6YXRpb25hbFVuaXQxFTATBgNVBAMTDFZp
a2luZ1ZQTiBDQTEQMA4GA1UEKRMHRWFzeVJTQTEhMB8GCSqGSIb3DQEJARYSbWVA
bXlob3N0Lm15ZG9tYWluMB4XDTE0MDIyNjIyNDYzMFoXDTI0MDIyNDIyNDYzMFow
HjEcMBoGA1UEAxMTQ2xpZW50NDIzQ2VydGE5ODA5MDCCAiIwDQYJKoZIhvcNAQEB
BQADggIPADCCAgoCggIBAL53ObhD14++aLrOKueV04KW6DozYjzcfmQTYgD7vUvL
jlh0gK5T8iohSQgKrwtaY/mcw9nWKp/a0P3v5whG63H/vElSZTrkM+ze63G1Mk+2
qfdRYx5Cks23DlroQYkx5bdrXXQdWD6QUZLsdVTYSOlNm8o7u3IW2GpViItmSpBU
zdSLs4/JDHjJY6IRmen91Epcjn2vNLtDw26ynpRyp/6QEYpS9U3s4e/E4QacRzcb
a9QLdjiCBc66NyrHbWa+4MQ2ZT02BXhWSWJsey5hdX6u8ahdfKSTB2QlljmDiXPA
hbKas8W9PG8tB85MchyWjfN81OsrrFt9Iampm9bZmZmnHUlkHoGlX7T5I8W7fuoh
UqXgBPxXDw6sPQiEDLrQB+5okxTzvfp+An8Y8OSurQHQD+lvrc6KUK6TQy+7nMYG
lpDeWihFjf/sFYbEx2RjgbE+2In2oXHIdSR+rkSexbX0WokaWcByAWBqGf/+JY/V
BclFHfETtzzR01J4QiTdyi7iVYtZsZD8DF/e5oV7IzgVM9cnwwHFNcY4cXVaFkNo
fO9PK/bAzTPBVo039u8glINirxYoRiAsXHbXbQwAS+HbWXfussQQaSElEDyQw/s2
U+h0BsCJ0RO+LSxNvysnBT09YbVUKjBga9yqpdrwYnialIqUfGN1vqJR1HYqFkfn
AgMBAAGjggFjMIIBXzAJBgNVHRMEAjAAMC0GCWCGSAGG+EIBDQQgFh5FYXN5LVJT
QSBHZW5lcmF0ZWQgQ2VydGlmaWNhdGUwHQYDVR0OBBYEFMgQX5A0i/oCxgSwvUBv
bF3tQ7idMIHhBgNVHSMEgdkwgdaAFBLNYATSoICecO3Gmbh7LMZS/RmhoYGypIGv
MIGsMQswCQYDVQQGEwJVUzELMAkGA1UECBMCT0gxETAPBgNVBAcTCENvbHVtYnVz
MRIwEAYDVQQKEwlWaWtpbmdWUE4xHTAbBgNVBAsTFE15T3JnYW5pemF0aW9uYWxV
bml0MRUwEwYDVQQDEwxWaWtpbmdWUE4gQ0ExEDAOBgNVBCkTB0Vhc3lSU0ExITAf
BgkqhkiG9w0BCQEWEm1lQG15aG9zdC5teWRvbWFpboIJAM81he6Avyo+MBMGA1Ud
JQQMMAoGCCsGAQUFBwMCMAsGA1UdDwQEAwIHgDANBgkqhkiG9w0BAQQFAAOCAgEA
jKo6MnpxtBF2Yq7sIT/92P3ydP3TCngJCxRi1D5+mvL7YaPNJqVRNHjBEzav5hZc
y8qrj39AROubwUr87LWRhqUZrbecf0c2rVBXXZ1w7gtMVYzvjxF61tAtnB3veiTv
cnnkpEXfZpUhD5px9RTavYzAwjPVi3pUzMc7TOPOaI1h/wniMvjHkYnU+yrXVAHF
3bi60+LZAlocSJOmYjLIExnjL2IE/lO+W7S7GraaXL7e61YU1S3kovjip2jbTt78
d7ZCeD4sgSGvsSgp8m8/IT83qWeXvq9FCWmyF3hPQtLbezftsZCwt7UVEQS0y52B
rKtr1KQSZTEtfN1eetfnkQozWWHD2EXoa8PxhGaht+59/W4sY2Z+nEsjGynYXM1P
lnVC3BQ+pgj5XRZNoiMuVXa/+amWB8zk/6n4dM70FiikcEZHYtupLre7As53eGYM
XhUhTiysAMUpP7R/W8CPQBLgxdA6clhrcbMFs8H7gAlA5JQbMzi+E8HXW5fzjKtt
DaQC6DPT4piNgIxUTFlIAGfWK+nq8BLa2t/Os4TzZzAmPPaO8aPmkeRzEQq4+xVy
dBVplrH+pI50qztP5Hy7FAuAdVRfVUS1/qgbSTg2bbscK6XP6pKMxyZCL9fwaTrL
efWRw2n1JQm4JIX2FTnfGXlcjgtG60e0OUvT+DbNnEA=
-----END CERTIFICATE-----
