Certificate:
    Data:
        Version: 3 (0x2)
        Serial Number: 1192 (0x4a8)
    Signature Algorithm: md5WithRSAEncryption
        Issuer: C=US, ST=OH, L=Columbus, O=VikingVPN, OU=MyOrganizationalUnit, CN=VikingVPN CA/name=EasyRSA/emailAddress=me@myhost.mydomain
        Validity
            Not Before: Mar  1 00:14:37 2014 GMT
            Not After : Feb 27 00:14:37 2024 GMT
        Subject: CN=Client430Cert47d1a1
        Subject Public Key Info:
            Public Key Algorithm: rsaEncryption
                Public-Key: (4096 bit)
                Modulus:
                    00:b0:64:18:ff:2d:79:f0:df:3b:13:4f:88:d2:77:
                    09:6a:0d:31:63:dc:62:30:6a:9d:bf:9a:24:c7:9d:
                    ec:9b:4c:79:5d:86:ac:b4:7d:41:0e:a2:6c:17:ee:
                    8e:36:95:c3:76:57:1c:6b:b8:d1:44:ea:9d:29:17:
                    07:ef:12:f0:e5:b5:d2:2a:d3:ac:ff:53:ac:e8:c5:
                    e2:39:e2:13:82:25:dd:00:e2:48:e8:eb:7f:c0:07:
                    6e:7f:71:d8:05:3b:82:57:ab:ad:53:47:f2:7f:f7:
                    ad:68:f1:8b:aa:e7:01:f6:8d:49:16:e0:2f:56:31:
                    1c:aa:62:50:8c:78:66:ce:54:e5:f0:4f:0b:e7:70:
                    e3:5d:1a:46:27:3c:d0:d7:02:8a:97:65:c9:1e:8b:
                    18:7f:e6:9a:3e:b0:0f:b9:91:55:17:ec:16:bb:5d:
                    0b:d7:8b:ab:9b:bb:6b:e4:be:cd:24:a0:9f:69:0e:
                    57:f7:1e:34:58:68:7c:1b:f1:cd:bd:d2:07:e6:7f:
                    53:63:8d:4e:e2:da:66:4d:c8:e2:14:70:22:19:b2:
                    c6:6e:82:5f:1c:1d:96:b3:1c:68:a4:d9:1e:0a:60:
                    fb:06:69:04:3b:90:c0:53:9e:7e:93:e1:07:bc:7d:
                    73:f7:ca:b4:14:9c:02:ed:d3:81:48:ec:5e:0f:1a:
                    0c:eb:bd:99:59:f5:b1:e9:7c:cf:18:b2:92:c4:1e:
                    b6:7d:7d:7c:11:e9:63:ba:d0:f8:37:4c:65:e4:88:
                    b2:ba:11:c5:3a:3b:db:22:c5:64:e8:fe:9b:69:81:
                    db:d3:dd:fc:dd:03:20:32:33:8e:26:34:16:08:87:
                    60:d2:a2:aa:b9:a3:4b:0d:81:ef:b2:99:65:ac:2c:
                    b9:39:c2:98:ac:7d:ab:cd:1c:72:e0:09:2d:0e:9c:
                    be:8c:a4:c0:0d:08:d0:2a:4f:27:56:a9:21:93:58:
                    f5:1e:8d:be:c8:9c:4b:ed:9a:61:37:96:ca:39:e1:
                    f4:0b:d4:a4:cd:9a:7d:51:cf:93:88:35:9b:20:8a:
                    db:e4:28:c9:07:9a:a5:e0:20:a1:47:12:29:11:d5:
                    e5:9e:3b:e5:97:28:da:dc:ae:b9:3f:32:2d:bf:03:
                    b1:2f:7d:66:0d:a7:e5:b8:fa:ae:0b:53:9e:7f:f1:
                    5a:eb:1f:18:cc:46:aa:49:63:e5:25:64:e1:57:45:
                    98:7d:b9:28:e0:8b:da:37:59:ca:6c:97:4f:6c:e8:
                    1a:56:39:c1:da:12:c2:15:66:d6:50:5e:b1:e8:30:
                    bd:c9:33:8d:9d:49:8d:d9:1b:68:75:4e:42:65:6a:
                    4f:7d:97:27:c0:aa:a2:16:7b:e6:56:f6:7d:8d:9c:
                    94:c3:59
                Exponent: 65537 (0x10001)
        X509v3 extensions:
            X509v3 Basic Constraints: 
                CA:FALSE
            Netscape Comment: 
                Easy-RSA Generated Certificate
            X509v3 Subject Key Identifier: 
                1A:8F:91:F9:DE:46:46:EE:15:44:7B:EA:8E:2C:9B:B3:BA:E9:95:78
            X509v3 Authority Key Identifier: 
                keyid:12:CD:60:04:D2:A0:80:9E:70:ED:C6:99:B8:7B:2C:C6:52:FD:19:A1
                DirName:/C=US/ST=OH/L=Columbus/O=VikingVPN/OU=MyOrganizationalUnit/CN=VikingVPN CA/name=EasyRSA/emailAddress=me@myhost.mydomain
                serial:CF:35:85:EE:80:BF:2A:3E

            X509v3 Extended Key Usage: 
                TLS Web Client Authentication
            X509v3 Key Usage: 
                Digital Signature
    Signature Algorithm: md5WithRSAEncryption
         c5:a3:a3:fe:8e:de:3f:e6:58:98:ae:23:ba:4f:d8:1c:0c:97:
         04:2b:e5:1b:92:23:c1:cb:8c:d8:ab:d3:74:9b:3c:52:c9:4b:
         41:34:3a:e3:c9:7b:1d:08:9a:d8:37:be:dd:e3:b2:24:d3:d1:
         09:cc:23:51:0d:ff:d6:a2:23:04:dd:be:bc:d0:0e:70:7e:e8:
         eb:22:de:73:34:a9:31:10:85:a5:4f:74:3c:79:88:c7:af:db:
         7a:ec:7f:cf:0a:5b:a5:ae:73:62:9c:ef:16:8f:eb:20:86:87:
         b4:de:b4:09:36:5b:0c:6f:ae:05:b5:fe:91:f7:6c:0e:15:63:
         d1:d5:e4:3d:91:0a:7a:77:f5:83:5e:43:64:a6:d1:d3:52:f0:
         05:6d:f0:69:50:39:7b:07:48:e7:db:68:d1:23:80:d9:3a:8b:
         d7:68:dd:f8:d5:fc:7a:b8:63:40:d6:45:c2:6a:1d:83:fe:05:
         74:22:3b:1e:ca:9f:f1:1a:56:d9:d2:6a:86:af:a6:e6:ae:08:
         6c:e5:b9:45:9e:dc:92:43:88:d8:fa:1b:40:5b:4b:fa:93:0c:
         f7:f2:0a:1b:bf:11:ef:b8:1c:ac:b8:e0:0c:17:78:42:85:27:
         cc:4f:e8:38:6e:04:85:bc:36:c4:75:9d:f0:75:12:76:a0:6e:
         e8:e5:7a:88:00:77:91:1f:dc:4f:13:f7:ea:83:b8:44:c4:7a:
         a5:4d:d4:b2:6e:97:e2:25:02:e5:a3:a6:84:8f:9e:be:99:c0:
         d5:ec:ef:f1:42:25:7a:a6:29:24:fd:95:5e:71:b9:3d:db:c0:
         39:a3:3b:64:fe:13:a2:a7:b1:cd:61:52:c5:4d:6a:dd:25:dc:
         74:13:3f:80:68:cb:82:a0:55:d6:e1:06:7b:f3:40:a0:a1:89:
         38:78:fa:f9:ab:ad:3a:af:51:69:43:23:dc:52:8d:7a:17:b2:
         eb:bc:02:62:35:ec:22:af:ee:30:1e:0c:9b:cc:d4:57:50:c8:
         27:10:a8:33:43:7e:be:41:94:f9:51:5d:7b:11:bd:a0:34:9d:
         b2:89:48:39:ba:62:7f:df:8b:89:e7:e2:37:c0:51:a5:43:2b:
         63:43:1e:fb:36:c1:d8:4d:4e:36:b0:9a:c6:7e:b9:87:c4:66:
         59:9d:d6:12:89:3a:97:34:e9:81:94:ab:a0:5b:c5:71:b3:de:
         5e:cc:ab:53:8e:e6:f2:4f:f0:92:a4:4f:af:a0:d0:bd:e3:23:
         94:2c:a0:00:d0:be:3b:58:a0:c2:45:a5:2c:37:02:31:b9:88:
         7c:7c:32:70:e6:17:6d:fb:b8:e7:07:66:af:41:34:19:6f:1d:
         a0:d0:ae:82:44:9e:0f:fd
-----BEGIN CERTIFICATE-----
MIIGrDCCBJSgAwIBAgICBKgwDQYJKoZIhvcNAQEEBQAwgawxCzAJBgNVBAYTAlVT
MQswCQYDVQQIEwJPSDERMA8GA1UEBxMIQ29sdW1idXMxEjAQBgNVBAoTCVZpa2lu
Z1ZQTjEdMBsGA1UECxMUTXlPcmdhbml6YXRpb25hbFVuaXQxFTATBgNVBAMTDFZp
a2luZ1ZQTiBDQTEQMA4GA1UEKRMHRWFzeVJTQTEhMB8GCSqGSIb3DQEJARYSbWVA
bXlob3N0Lm15ZG9tYWluMB4XDTE0MDMwMTAwMTQzN1oXDTI0MDIyNzAwMTQzN1ow
HjEcMBoGA1UEAxMTQ2xpZW50NDMwQ2VydDQ3ZDFhMTCCAiIwDQYJKoZIhvcNAQEB
BQADggIPADCCAgoCggIBALBkGP8tefDfOxNPiNJ3CWoNMWPcYjBqnb+aJMed7JtM
eV2GrLR9QQ6ibBfujjaVw3ZXHGu40UTqnSkXB+8S8OW10irTrP9TrOjF4jniE4Il
3QDiSOjrf8AHbn9x2AU7glerrVNH8n/3rWjxi6rnAfaNSRbgL1YxHKpiUIx4Zs5U
5fBPC+dw410aRic80NcCipdlyR6LGH/mmj6wD7mRVRfsFrtdC9eLq5u7a+S+zSSg
n2kOV/ceNFhofBvxzb3SB+Z/U2ONTuLaZk3I4hRwIhmyxm6CXxwdlrMcaKTZHgpg
+wZpBDuQwFOefpPhB7x9c/fKtBScAu3TgUjsXg8aDOu9mVn1sel8zxiyksQetn19
fBHpY7rQ+DdMZeSIsroRxTo72yLFZOj+m2mB29Pd/N0DIDIzjiY0FgiHYNKiqrmj
Sw2B77KZZawsuTnCmKx9q80ccuAJLQ6cvoykwA0I0CpPJ1apIZNY9R6NvsicS+2a
YTeWyjnh9AvUpM2afVHPk4g1myCK2+QoyQeapeAgoUcSKRHV5Z475Zco2tyuuT8y
Lb8DsS99Zg2n5bj6rgtTnn/xWusfGMxGqklj5SVk4VdFmH25KOCL2jdZymyXT2zo
GlY5wdoSwhVm1lBesegwvckzjZ1JjdkbaHVOQmVqT32XJ8CqohZ75lb2fY2clMNZ
AgMBAAGjggFjMIIBXzAJBgNVHRMEAjAAMC0GCWCGSAGG+EIBDQQgFh5FYXN5LVJT
QSBHZW5lcmF0ZWQgQ2VydGlmaWNhdGUwHQYDVR0OBBYEFBqPkfneRkbuFUR76o4s
m7O66ZV4MIHhBgNVHSMEgdkwgdaAFBLNYATSoICecO3Gmbh7LMZS/RmhoYGypIGv
MIGsMQswCQYDVQQGEwJVUzELMAkGA1UECBMCT0gxETAPBgNVBAcTCENvbHVtYnVz
MRIwEAYDVQQKEwlWaWtpbmdWUE4xHTAbBgNVBAsTFE15T3JnYW5pemF0aW9uYWxV
bml0MRUwEwYDVQQDEwxWaWtpbmdWUE4gQ0ExEDAOBgNVBCkTB0Vhc3lSU0ExITAf
BgkqhkiG9w0BCQEWEm1lQG15aG9zdC5teWRvbWFpboIJAM81he6Avyo+MBMGA1Ud
JQQMMAoGCCsGAQUFBwMCMAsGA1UdDwQEAwIHgDANBgkqhkiG9w0BAQQFAAOCAgEA
xaOj/o7eP+ZYmK4juk/YHAyXBCvlG5IjwcuM2KvTdJs8UslLQTQ648l7HQia2De+
3eOyJNPRCcwjUQ3/1qIjBN2+vNAOcH7o6yLeczSpMRCFpU90PHmIx6/beux/zwpb
pa5zYpzvFo/rIIaHtN60CTZbDG+uBbX+kfdsDhVj0dXkPZEKenf1g15DZKbR01Lw
BW3waVA5ewdI59to0SOA2TqL12jd+NX8erhjQNZFwmodg/4FdCI7Hsqf8RpW2dJq
hq+m5q4IbOW5RZ7ckkOI2PobQFtL+pMM9/IKG78R77gcrLjgDBd4QoUnzE/oOG4E
hbw2xHWd8HUSdqBu6OV6iAB3kR/cTxP36oO4RMR6pU3Usm6X4iUC5aOmhI+evpnA
1ezv8UIleqYpJP2VXnG5PdvAOaM7ZP4ToqexzWFSxU1q3SXcdBM/gGjLgqBV1uEG
e/NAoKGJOHj6+autOq9RaUMj3FKNehey67wCYjXsIq/uMB4Mm8zUV1DIJxCoM0N+
vkGU+VFdexG9oDSdsolIObpif9+LiefiN8BRpUMrY0Me+zbB2E1ONrCaxn65h8Rm
WZ3WEok6lzTpgZSroFvFcbPeXsyrU47m8k/wkqRPr6DQveMjlCygANC+O1igwkWl
LDcCMbmIfHwycOYXbfu45wdmr0E0GW8doNCugkSeD/0=
-----END CERTIFICATE-----
