Certificate:
    Data:
        Version: 3 (0x2)
        Serial Number: 1211 (0x4bb)
    Signature Algorithm: md5WithRSAEncryption
        Issuer: C=US, ST=OH, L=Columbus, O=VikingVPN, OU=MyOrganizationalUnit, CN=VikingVPN CA/name=EasyRSA/emailAddress=me@myhost.mydomain
        Validity
            Not Before: Mar  3 03:44:41 2014 GMT
            Not After : Feb 29 03:44:41 2024 GMT
        Subject: CN=Client3Certdc1de8
        Subject Public Key Info:
            Public Key Algorithm: rsaEncryption
                Public-Key: (4096 bit)
                Modulus:
                    00:bc:d4:e6:45:d3:7e:bf:5b:f1:b2:fa:b2:7c:64:
                    00:0e:c4:33:52:ff:61:87:b3:96:e5:84:df:e4:8f:
                    ee:be:6a:c3:bc:a9:28:fa:70:ee:28:20:c2:73:c4:
                    ac:57:5c:79:e6:5e:3b:06:a6:b0:6f:59:67:7f:05:
                    35:61:ce:af:0a:c3:62:cc:d5:87:53:55:c6:12:1f:
                    e1:a7:06:68:16:5e:80:8b:88:b7:92:47:aa:40:12:
                    85:0e:1a:43:02:e9:f5:15:3f:a3:c0:7e:39:e1:ea:
                    c4:eb:89:bb:ae:61:cd:ac:1a:dc:fb:f1:15:0b:4d:
                    12:39:8d:64:20:91:0f:72:b8:e6:f8:38:eb:6e:49:
                    51:16:c6:bd:a4:19:e1:9b:04:3f:62:19:16:a6:30:
                    b3:bf:88:a5:74:f5:ce:46:5d:9f:c5:c1:fb:5a:b5:
                    79:9e:be:88:76:5b:20:3a:e9:b9:e1:f7:64:8e:2b:
                    1b:37:bb:e4:74:ee:68:8c:ce:90:ae:76:31:93:08:
                    3e:28:32:3d:88:5b:62:0b:59:36:57:11:a8:81:c8:
                    9e:98:4a:da:a1:35:a1:dc:e6:d0:3c:73:17:6d:65:
                    4f:79:2a:f4:70:9f:33:c0:63:ec:d3:6c:db:7e:54:
                    0c:ae:0f:64:96:ee:78:9d:20:55:34:7c:af:c9:cd:
                    85:d1:15:14:bd:06:53:2d:3a:6f:9f:f4:0f:bc:56:
                    ef:77:8a:c4:44:67:1f:91:48:3a:e7:81:bc:27:54:
                    29:38:52:7d:e5:a0:0b:7d:ea:b6:f2:f4:84:97:be:
                    db:ad:57:7f:df:06:64:6f:24:fa:3b:94:0b:fa:9d:
                    eb:5a:1d:1d:5f:d5:b6:ca:54:9d:99:65:24:31:64:
                    1a:cc:f6:1e:e1:32:8b:8e:f9:5f:26:8f:d8:65:05:
                    92:ff:43:23:2c:4e:f6:23:5f:67:a4:f4:d7:9b:17:
                    e4:22:6b:a5:cd:a2:be:38:b4:05:dc:26:62:41:e5:
                    a6:2b:6d:07:4b:2b:31:3d:3d:87:a0:22:15:f3:52:
                    53:85:99:93:ee:7e:24:f7:0b:98:e9:ce:e5:b1:8c:
                    13:c0:8b:97:dd:2f:d7:6e:b3:bf:8e:55:54:de:52:
                    b5:46:34:5c:1d:ad:62:32:b0:e7:29:36:42:8c:78:
                    be:1e:52:b6:23:d1:fa:16:5b:48:0a:5d:ca:45:33:
                    c4:d0:14:43:87:a7:99:69:87:11:72:88:d4:6e:fc:
                    65:26:15:e6:a6:b7:cd:96:1f:fe:e2:b9:ee:2e:15:
                    8e:b5:e0:88:2b:37:e1:82:ea:70:69:0e:5a:ea:4e:
                    b3:31:f2:30:1d:57:c7:4e:55:67:cb:13:52:66:31:
                    a9:4a:6b
                Exponent: 65537 (0x10001)
        X509v3 extensions:
            X509v3 Basic Constraints: 
                CA:FALSE
            Netscape Comment: 
                Easy-RSA Generated Certificate
            X509v3 Subject Key Identifier: 
                00:94:A2:46:E8:11:32:3D:57:2C:EA:68:09:E4:DB:1A:46:5A:A5:0A
            X509v3 Authority Key Identifier: 
                keyid:12:CD:60:04:D2:A0:80:9E:70:ED:C6:99:B8:7B:2C:C6:52:FD:19:A1
                DirName:/C=US/ST=OH/L=Columbus/O=VikingVPN/OU=MyOrganizationalUnit/CN=VikingVPN CA/name=EasyRSA/emailAddress=me@myhost.mydomain
                serial:CF:35:85:EE:80:BF:2A:3E

            X509v3 Extended Key Usage: 
                TLS Web Client Authentication
            X509v3 Key Usage: 
                Digital Signature
    Signature Algorithm: md5WithRSAEncryption
         a2:56:f5:6e:70:72:d8:61:72:f5:a6:cf:87:4f:df:2d:bd:6e:
         58:e1:a3:a8:f0:19:a3:bb:48:db:99:99:9f:d3:27:25:9a:e2:
         10:d0:9b:a4:a4:fa:45:4e:8f:9d:e2:cd:59:66:75:36:e4:63:
         af:bc:ee:7e:af:7c:79:42:20:23:55:ac:50:6e:3f:8a:ee:bb:
         ea:c4:e6:ab:4b:73:78:0c:6d:4e:02:97:88:17:e6:ac:11:38:
         df:35:d7:73:cf:84:ec:82:69:c9:ec:f8:a0:9f:93:8b:fa:20:
         72:9b:27:8e:9e:f8:14:c3:bd:82:42:c7:44:b2:93:89:a1:4e:
         67:83:fe:63:e0:4e:d1:47:76:9f:2d:89:09:87:df:a4:db:2d:
         54:83:50:56:a3:ad:86:ab:27:eb:a1:1a:75:6a:cd:f0:40:c8:
         51:59:84:0d:df:74:a9:2f:ec:b5:a2:a9:06:17:36:c2:f1:53:
         6a:40:8c:c1:ac:08:45:08:87:d3:42:05:01:04:64:dc:49:0e:
         2d:35:29:82:f0:da:b8:ff:d4:f7:81:a8:1f:23:0a:58:ba:42:
         b3:7a:c0:1c:12:26:3f:64:26:af:04:ef:8d:65:e4:83:b7:c5:
         f0:41:ac:83:8c:31:dd:3e:45:f7:1d:4b:af:81:07:74:3b:34:
         4e:0a:d6:a8:92:31:10:20:c1:00:f6:01:09:27:ed:70:fb:12:
         ff:b6:2e:b4:e2:45:c3:65:5d:9d:79:18:93:c1:f1:91:c5:ba:
         de:27:b1:6f:fb:03:b1:8b:71:65:43:bf:79:93:0f:33:42:05:
         28:69:43:ed:3f:86:cd:56:fc:56:33:bc:7e:f6:60:d1:80:be:
         e8:0c:76:16:0a:64:84:c4:a4:7d:ad:40:c7:3d:fd:a8:59:16:
         a9:a7:74:cd:f7:b1:0d:6f:da:66:8c:f7:e7:d7:b0:25:f5:d6:
         1c:74:0b:2b:a2:22:f4:6b:22:b8:b4:2a:c6:c8:7f:4e:96:5c:
         79:e3:02:e1:04:cd:82:1e:91:74:7e:c6:a9:1d:63:30:c9:fa:
         cc:bc:53:ed:2b:54:c8:3f:8d:be:9f:73:2f:27:45:9b:d5:d7:
         54:bb:4a:3c:c8:90:46:fa:00:ad:9f:dd:5f:33:de:ff:0e:0a:
         73:c6:e1:61:c1:e0:f0:62:86:04:3e:90:86:93:67:3b:67:a9:
         fa:04:65:ac:3d:6d:36:a4:90:9a:20:06:46:18:89:7b:84:3e:
         68:92:d5:3c:62:d1:d9:42:a1:ee:cc:36:00:27:6f:fc:c4:20:
         18:ce:0f:87:d8:84:67:e2:5b:44:c3:5e:27:0a:06:9c:81:fd:
         b2:f6:ff:0e:3e:11:e6:d7
-----BEGIN CERTIFICATE-----
MIIGqjCCBJKgAwIBAgICBLswDQYJKoZIhvcNAQEEBQAwgawxCzAJBgNVBAYTAlVT
MQswCQYDVQQIEwJPSDERMA8GA1UEBxMIQ29sdW1idXMxEjAQBgNVBAoTCVZpa2lu
Z1ZQTjEdMBsGA1UECxMUTXlPcmdhbml6YXRpb25hbFVuaXQxFTATBgNVBAMTDFZp
a2luZ1ZQTiBDQTEQMA4GA1UEKRMHRWFzeVJTQTEhMB8GCSqGSIb3DQEJARYSbWVA
bXlob3N0Lm15ZG9tYWluMB4XDTE0MDMwMzAzNDQ0MVoXDTI0MDIyOTAzNDQ0MVow
HDEaMBgGA1UEAxMRQ2xpZW50M0NlcnRkYzFkZTgwggIiMA0GCSqGSIb3DQEBAQUA
A4ICDwAwggIKAoICAQC81OZF036/W/Gy+rJ8ZAAOxDNS/2GHs5blhN/kj+6+asO8
qSj6cO4oIMJzxKxXXHnmXjsGprBvWWd/BTVhzq8Kw2LM1YdTVcYSH+GnBmgWXoCL
iLeSR6pAEoUOGkMC6fUVP6PAfjnh6sTribuuYc2sGtz78RULTRI5jWQgkQ9yuOb4
OOtuSVEWxr2kGeGbBD9iGRamMLO/iKV09c5GXZ/FwftatXmevoh2WyA66bnh92SO
Kxs3u+R07miMzpCudjGTCD4oMj2IW2ILWTZXEaiByJ6YStqhNaHc5tA8cxdtZU95
KvRwnzPAY+zTbNt+VAyuD2SW7nidIFU0fK/JzYXRFRS9BlMtOm+f9A+8Vu93isRE
Zx+RSDrngbwnVCk4Un3loAt96rby9ISXvtutV3/fBmRvJPo7lAv6netaHR1f1bbK
VJ2ZZSQxZBrM9h7hMouO+V8mj9hlBZL/QyMsTvYjX2ek9NebF+Qia6XNor44tAXc
JmJB5aYrbQdLKzE9PYegIhXzUlOFmZPufiT3C5jpzuWxjBPAi5fdL9dus7+OVVTe
UrVGNFwdrWIysOcpNkKMeL4eUrYj0foWW0gKXcpFM8TQFEOHp5lphxFyiNRu/GUm
Feamt82WH/7iue4uFY614IgrN+GC6nBpDlrqTrMx8jAdV8dOVWfLE1JmMalKawID
AQABo4IBYzCCAV8wCQYDVR0TBAIwADAtBglghkgBhvhCAQ0EIBYeRWFzeS1SU0Eg
R2VuZXJhdGVkIENlcnRpZmljYXRlMB0GA1UdDgQWBBQAlKJG6BEyPVcs6mgJ5Nsa
RlqlCjCB4QYDVR0jBIHZMIHWgBQSzWAE0qCAnnDtxpm4eyzGUv0ZoaGBsqSBrzCB
rDELMAkGA1UEBhMCVVMxCzAJBgNVBAgTAk9IMREwDwYDVQQHEwhDb2x1bWJ1czES
MBAGA1UEChMJVmlraW5nVlBOMR0wGwYDVQQLExRNeU9yZ2FuaXphdGlvbmFsVW5p
dDEVMBMGA1UEAxMMVmlraW5nVlBOIENBMRAwDgYDVQQpEwdFYXN5UlNBMSEwHwYJ
KoZIhvcNAQkBFhJtZUBteWhvc3QubXlkb21haW6CCQDPNYXugL8qPjATBgNVHSUE
DDAKBggrBgEFBQcDAjALBgNVHQ8EBAMCB4AwDQYJKoZIhvcNAQEEBQADggIBAKJW
9W5wcthhcvWmz4dP3y29bljho6jwGaO7SNuZmZ/TJyWa4hDQm6Sk+kVOj53izVlm
dTbkY6+87n6vfHlCICNVrFBuP4ruu+rE5qtLc3gMbU4Cl4gX5qwRON8113PPhOyC
acns+KCfk4v6IHKbJ46e+BTDvYJCx0Syk4mhTmeD/mPgTtFHdp8tiQmH36TbLVSD
UFajrYarJ+uhGnVqzfBAyFFZhA3fdKkv7LWiqQYXNsLxU2pAjMGsCEUIh9NCBQEE
ZNxJDi01KYLw2rj/1PeBqB8jCli6QrN6wBwSJj9kJq8E741l5IO3xfBBrIOMMd0+
RfcdS6+BB3Q7NE4K1qiSMRAgwQD2AQkn7XD7Ev+2LrTiRcNlXZ15GJPB8ZHFut4n
sW/7A7GLcWVDv3mTDzNCBShpQ+0/hs1W/FYzvH72YNGAvugMdhYKZITEpH2tQMc9
/ahZFqmndM33sQ1v2maM9+fXsCX11hx0CyuiIvRrIri0KsbIf06WXHnjAuEEzYIe
kXR+xqkdYzDJ+sy8U+0rVMg/jb6fcy8nRZvV11S7SjzIkEb6AK2f3V8z3v8OCnPG
4WHB4PBihgQ+kIaTZztnqfoEZaw9bTakkJogBkYYiXuEPmiS1Txi0dlCoe7MNgAn
b/zEIBjOD4fYhGfiW0TDXicKBpyB/bL2/w4+EebX
-----END CERTIFICATE-----
