Certificate:
    Data:
        Version: 3 (0x2)
        Serial Number: 1228 (0x4cc)
    Signature Algorithm: md5WithRSAEncryption
        Issuer: C=US, ST=OH, L=Columbus, O=VikingVPN, OU=MyOrganizationalUnit, CN=VikingVPN CA/name=EasyRSA/emailAddress=me@myhost.mydomain
        Validity
            Not Before: Mar  5 19:37:28 2014 GMT
            Not After : Mar  2 19:37:28 2024 GMT
        Subject: CN=Client441Cert38a883
        Subject Public Key Info:
            Public Key Algorithm: rsaEncryption
                Public-Key: (4096 bit)
                Modulus:
                    00:99:ed:14:99:bd:ee:23:74:c6:ac:3d:bc:a4:61:
                    d5:8c:15:cc:a7:75:2a:a2:e4:74:ba:a1:3f:b2:0b:
                    af:73:cd:da:ac:26:bb:1d:5b:53:6e:8a:7c:bc:0f:
                    57:67:d3:45:ee:97:c5:4c:9a:50:ac:5c:66:2e:4b:
                    7f:63:6a:7a:61:30:a4:05:42:8f:90:9e:7b:7e:7a:
                    87:59:a5:78:fa:d9:af:5a:79:78:e7:e1:76:73:26:
                    f0:19:76:ea:50:bd:13:4e:9b:b6:d7:6f:07:92:1f:
                    a3:d8:29:03:5f:ae:fa:25:de:ac:92:16:e0:70:92:
                    f8:7a:38:47:ec:48:05:9f:e5:58:d1:7e:4d:12:24:
                    fb:35:bf:d8:d0:2a:00:52:90:eb:93:82:d3:34:5b:
                    0a:31:b1:d3:98:d5:4f:ea:6e:c8:7a:fd:5d:a4:b4:
                    1d:7f:3c:64:dd:16:f7:82:86:93:86:b6:eb:dd:c7:
                    41:bd:f2:ff:ec:df:da:fb:5f:c6:e6:6a:fd:fd:a2:
                    01:e9:16:a4:d8:ff:40:a5:b5:35:69:23:83:ab:9f:
                    b0:55:5f:5a:b0:80:5c:30:58:cf:02:67:4e:52:52:
                    2b:de:d3:02:6e:53:70:5d:db:35:31:06:6a:80:6b:
                    af:b1:81:81:4f:59:01:f8:b5:f4:bc:21:42:76:15:
                    f6:e4:95:fe:2b:51:0d:eb:3a:b3:22:5b:ef:2e:d6:
                    c2:cb:1a:3b:25:fb:41:b6:10:bf:97:00:c3:0d:c1:
                    2d:56:7b:58:0f:15:f2:b4:0b:0c:ae:7f:b5:dd:8f:
                    59:61:ae:34:6b:ec:bd:f7:43:3b:c9:d3:cf:36:fb:
                    d7:f5:26:c8:04:2d:3b:68:43:b9:42:e0:c0:bf:47:
                    b6:a2:3e:df:2e:e3:a3:a1:fa:88:ce:32:00:9f:d4:
                    f5:99:85:d0:1b:a5:9e:d3:ca:dc:1a:61:fa:9d:d5:
                    99:6e:bf:ac:63:2d:ab:3d:7d:eb:32:c8:f2:68:47:
                    42:0c:8c:76:9a:bb:e9:0b:13:63:94:07:a4:ee:8d:
                    6c:14:36:09:48:e3:ef:7b:9c:d0:67:97:c5:7f:af:
                    52:84:58:d6:b0:84:6a:f3:a8:cf:ab:01:dd:8d:cf:
                    0e:52:ff:55:15:c6:36:be:a7:bb:a7:e4:a8:83:c4:
                    76:2f:87:93:8c:36:2f:25:4c:54:7d:93:34:c3:6b:
                    bd:b9:bf:58:4d:7e:79:ab:bc:9c:1d:a1:15:39:5d:
                    e0:e9:d3:16:19:2e:f1:e9:b5:53:a0:68:03:5c:22:
                    ee:28:30:b1:1c:9a:31:f8:0e:88:d8:b5:ee:41:c3:
                    44:06:82:98:89:e9:23:59:8e:17:0b:44:35:5e:41:
                    32:fd:29
                Exponent: 65537 (0x10001)
        X509v3 extensions:
            X509v3 Basic Constraints: 
                CA:FALSE
            Netscape Comment: 
                Easy-RSA Generated Certificate
            X509v3 Subject Key Identifier: 
                F4:01:0A:A2:20:DC:7B:D9:34:C3:37:36:A9:76:51:EB:E4:59:58:3C
            X509v3 Authority Key Identifier: 
                keyid:12:CD:60:04:D2:A0:80:9E:70:ED:C6:99:B8:7B:2C:C6:52:FD:19:A1
                DirName:/C=US/ST=OH/L=Columbus/O=VikingVPN/OU=MyOrganizationalUnit/CN=VikingVPN CA/name=EasyRSA/emailAddress=me@myhost.mydomain
                serial:CF:35:85:EE:80:BF:2A:3E

            X509v3 Extended Key Usage: 
                TLS Web Client Authentication
            X509v3 Key Usage: 
                Digital Signature
    Signature Algorithm: md5WithRSAEncryption
         ea:de:c1:d4:37:ff:d4:44:0d:e2:ef:21:58:05:64:92:68:e7:
         5c:c0:8c:5c:17:b1:46:5a:ff:bd:c4:16:c1:11:13:bb:49:40:
         26:33:f7:15:ae:e0:94:ae:0e:60:44:12:b4:bd:9d:21:ec:47:
         5b:be:02:6e:af:e1:db:93:7f:cc:32:ab:9b:f9:11:56:88:2b:
         25:29:cb:f7:78:3c:5a:2f:b6:c1:dd:c3:b8:1f:7d:18:84:03:
         dc:05:ee:90:bd:f9:ee:20:ae:4c:d0:5c:ce:09:63:62:76:b4:
         dd:9e:82:87:b5:de:5b:c7:d6:39:4b:ea:27:73:6f:73:61:2d:
         f2:f6:29:1d:6b:4e:33:e3:b3:8f:51:68:26:44:f0:66:d1:51:
         a0:ea:2b:9d:b8:78:22:0e:16:24:c5:69:f3:d1:c2:3d:74:65:
         39:ae:fc:ad:4e:ae:88:36:ea:78:3e:cf:d1:61:00:e8:75:f2:
         f0:67:e8:db:4e:9c:f2:72:b9:3c:ff:ae:7f:ed:19:14:91:71:
         1d:44:86:1a:f3:57:b9:69:51:ef:8e:35:0e:fc:4a:08:0d:23:
         89:67:3c:7c:a6:29:ee:74:a3:a5:81:7a:19:53:32:0e:be:af:
         d4:f3:4c:78:94:3f:63:bb:17:af:04:b0:99:3c:f9:32:e2:e3:
         b1:00:2b:c7:d9:b8:3e:ee:f8:69:e7:19:cd:b4:a9:80:9f:49:
         63:e1:5d:e5:16:da:a2:c8:d4:cb:fb:9c:74:08:35:d1:66:b7:
         91:1c:e1:d8:1a:d0:9a:be:13:9d:2b:35:50:35:0d:54:9e:1a:
         0c:5b:0f:ec:87:dd:a6:fb:f3:5f:ab:ce:8b:56:7c:ee:e3:78:
         29:a0:85:9c:4d:33:2f:9e:69:10:7d:6b:37:6b:be:10:58:cf:
         4b:9f:1e:86:26:6a:ab:55:80:3f:50:b4:b2:04:d9:43:14:7e:
         af:aa:ae:b7:3c:bd:68:27:aa:ff:12:9c:c9:90:76:a4:98:9b:
         02:86:30:5e:84:47:56:12:e9:6a:b4:9d:54:92:05:6f:3e:e8:
         78:e2:64:54:36:f4:f8:6a:20:89:0b:74:38:59:89:4c:0b:9a:
         ab:86:f6:7d:29:00:7c:f0:9b:da:43:2b:9e:05:b6:1c:46:e9:
         4b:60:db:4e:29:51:72:72:bd:a7:ba:e6:23:7a:6a:b7:4a:c5:
         68:56:16:c7:67:f3:c4:59:81:cd:b4:17:95:4c:20:b2:18:38:
         fd:4a:14:35:fe:93:4d:8c:0c:7d:12:6b:0f:aa:73:54:07:64:
         08:89:96:2f:bd:64:20:c9:2d:37:4c:c7:cc:31:67:9f:4c:38:
         55:4f:58:59:12:e1:42:6b
-----BEGIN CERTIFICATE-----
MIIGrDCCBJSgAwIBAgICBMwwDQYJKoZIhvcNAQEEBQAwgawxCzAJBgNVBAYTAlVT
MQswCQYDVQQIEwJPSDERMA8GA1UEBxMIQ29sdW1idXMxEjAQBgNVBAoTCVZpa2lu
Z1ZQTjEdMBsGA1UECxMUTXlPcmdhbml6YXRpb25hbFVuaXQxFTATBgNVBAMTDFZp
a2luZ1ZQTiBDQTEQMA4GA1UEKRMHRWFzeVJTQTEhMB8GCSqGSIb3DQEJARYSbWVA
bXlob3N0Lm15ZG9tYWluMB4XDTE0MDMwNTE5MzcyOFoXDTI0MDMwMjE5MzcyOFow
HjEcMBoGA1UEAxMTQ2xpZW50NDQxQ2VydDM4YTg4MzCCAiIwDQYJKoZIhvcNAQEB
BQADggIPADCCAgoCggIBAJntFJm97iN0xqw9vKRh1YwVzKd1KqLkdLqhP7ILr3PN
2qwmux1bU26KfLwPV2fTRe6XxUyaUKxcZi5Lf2NqemEwpAVCj5Cee356h1mlePrZ
r1p5eOfhdnMm8Bl26lC9E06bttdvB5Ifo9gpA1+u+iXerJIW4HCS+Ho4R+xIBZ/l
WNF+TRIk+zW/2NAqAFKQ65OC0zRbCjGx05jVT+puyHr9XaS0HX88ZN0W94KGk4a2
693HQb3y/+zf2vtfxuZq/f2iAekWpNj/QKW1NWkjg6ufsFVfWrCAXDBYzwJnTlJS
K97TAm5TcF3bNTEGaoBrr7GBgU9ZAfi19LwhQnYV9uSV/itRDes6syJb7y7Wwssa
OyX7QbYQv5cAww3BLVZ7WA8V8rQLDK5/td2PWWGuNGvsvfdDO8nTzzb71/UmyAQt
O2hDuULgwL9HtqI+3y7jo6H6iM4yAJ/U9ZmF0BulntPK3Bph+p3VmW6/rGMtqz19
6zLI8mhHQgyMdpq76QsTY5QHpO6NbBQ2CUjj73uc0GeXxX+vUoRY1rCEavOoz6sB
3Y3PDlL/VRXGNr6nu6fkqIPEdi+Hk4w2LyVMVH2TNMNrvbm/WE1+eau8nB2hFTld
4OnTFhku8em1U6BoA1wi7igwsRyaMfgOiNi17kHDRAaCmInpI1mOFwtENV5BMv0p
AgMBAAGjggFjMIIBXzAJBgNVHRMEAjAAMC0GCWCGSAGG+EIBDQQgFh5FYXN5LVJT
QSBHZW5lcmF0ZWQgQ2VydGlmaWNhdGUwHQYDVR0OBBYEFPQBCqIg3HvZNMM3Nql2
UevkWVg8MIHhBgNVHSMEgdkwgdaAFBLNYATSoICecO3Gmbh7LMZS/RmhoYGypIGv
MIGsMQswCQYDVQQGEwJVUzELMAkGA1UECBMCT0gxETAPBgNVBAcTCENvbHVtYnVz
MRIwEAYDVQQKEwlWaWtpbmdWUE4xHTAbBgNVBAsTFE15T3JnYW5pemF0aW9uYWxV
bml0MRUwEwYDVQQDEwxWaWtpbmdWUE4gQ0ExEDAOBgNVBCkTB0Vhc3lSU0ExITAf
BgkqhkiG9w0BCQEWEm1lQG15aG9zdC5teWRvbWFpboIJAM81he6Avyo+MBMGA1Ud
JQQMMAoGCCsGAQUFBwMCMAsGA1UdDwQEAwIHgDANBgkqhkiG9w0BAQQFAAOCAgEA
6t7B1Df/1EQN4u8hWAVkkmjnXMCMXBexRlr/vcQWwRETu0lAJjP3Fa7glK4OYEQS
tL2dIexHW74Cbq/h25N/zDKrm/kRVogrJSnL93g8Wi+2wd3DuB99GIQD3AXukL35
7iCuTNBczgljYna03Z6Ch7XeW8fWOUvqJ3Nvc2Et8vYpHWtOM+Ozj1FoJkTwZtFR
oOornbh4Ig4WJMVp89HCPXRlOa78rU6uiDbqeD7P0WEA6HXy8Gfo206c8nK5PP+u
f+0ZFJFxHUSGGvNXuWlR7441DvxKCA0jiWc8fKYp7nSjpYF6GVMyDr6v1PNMeJQ/
Y7sXrwSwmTz5MuLjsQArx9m4Pu74aecZzbSpgJ9JY+Fd5RbaosjUy/ucdAg10Wa3
kRzh2BrQmr4TnSs1UDUNVJ4aDFsP7IfdpvvzX6vOi1Z87uN4KaCFnE0zL55pEH1r
N2u+EFjPS58ehiZqq1WAP1C0sgTZQxR+r6qutzy9aCeq/xKcyZB2pJibAoYwXoRH
VhLparSdVJIFbz7oeOJkVDb0+GogiQt0OFmJTAuaq4b2fSkAfPCb2kMrngW2HEbp
S2DbTilRcnK9p7rmI3pqt0rFaFYWx2fzxFmBzbQXlUwgshg4/UoUNf6TTYwMfRJr
D6pzVAdkCImWL71kIMktN0zHzDFnn0w4VU9YWRLhQms=
-----END CERTIFICATE-----
