Certificate:
    Data:
        Version: 3 (0x2)
        Serial Number: 1230 (0x4ce)
    Signature Algorithm: md5WithRSAEncryption
        Issuer: C=US, ST=OH, L=Columbus, O=VikingVPN, OU=MyOrganizationalUnit, CN=VikingVPN CA/name=EasyRSA/emailAddress=me@myhost.mydomain
        Validity
            Not Before: Mar  6 00:42:57 2014 GMT
            Not After : Mar  3 00:42:57 2024 GMT
        Subject: CN=Client450Cert4393fc
        Subject Public Key Info:
            Public Key Algorithm: rsaEncryption
                Public-Key: (4096 bit)
                Modulus:
                    00:b6:5f:a5:d9:72:7c:1e:b3:2d:2f:68:59:a6:97:
                    21:86:c1:db:4b:cc:bb:ea:03:c1:df:32:69:f8:c0:
                    13:46:e8:c5:52:0d:02:ea:6f:52:87:f9:ed:86:c9:
                    48:17:7f:f3:30:87:d4:6d:ce:a6:13:19:98:0b:ee:
                    9d:a6:6f:ae:9d:0e:d4:c4:a6:c7:1c:2e:2f:c3:0e:
                    ac:9b:f4:a0:b2:4f:17:7c:89:62:28:38:c0:bb:54:
                    a6:28:6f:45:c7:c5:a9:03:68:9c:1c:c6:43:3f:e9:
                    22:21:87:fd:07:96:48:3f:1e:56:28:7c:07:6f:22:
                    bf:8f:89:dd:c8:27:e1:2b:bd:d9:0b:fb:24:f1:a0:
                    df:90:5a:85:24:5f:e3:f7:91:02:2a:f1:3d:68:b8:
                    48:c4:29:88:78:77:60:4d:b2:a2:a2:15:c2:d7:0f:
                    6f:e3:e0:71:89:09:9e:23:d0:41:d5:30:5d:cb:d0:
                    e4:3a:b1:0f:1e:f9:ce:d0:3a:fe:ce:c2:03:d3:06:
                    2b:56:64:56:80:c9:56:af:be:bd:73:2b:ca:3a:99:
                    67:16:0c:12:15:35:cd:32:81:82:96:57:3b:01:4b:
                    96:48:f9:8c:4c:25:08:ff:9b:ce:04:8e:ee:02:e8:
                    3e:e1:d6:0b:0b:ab:0d:92:27:0e:e6:75:17:57:1a:
                    ca:50:cb:71:0e:36:e4:43:a6:b0:38:d2:07:aa:37:
                    ae:f3:ff:04:21:33:b1:1f:55:c0:f3:fb:12:ad:d2:
                    4f:54:1a:cc:8e:57:29:ba:98:cc:dd:c2:30:71:9b:
                    88:ee:40:bf:b0:9b:8f:52:52:2d:0a:f1:c4:8a:78:
                    cc:ba:4e:86:3b:be:15:1e:c0:24:93:35:a2:f2:13:
                    2d:f4:2a:b0:aa:f5:44:82:31:a4:b0:4d:d2:e4:51:
                    cd:4d:95:a4:5d:92:d9:67:59:10:a5:2d:2e:5a:7f:
                    4d:f2:02:5a:71:ec:50:96:26:96:2e:4c:0e:a3:23:
                    8d:b5:70:f5:d1:0f:0d:f1:51:f3:cb:e3:16:d8:37:
                    87:06:9a:31:96:7b:39:b8:9b:b0:cc:ae:11:0f:d7:
                    c7:59:d8:0e:ac:fa:ef:75:fa:4c:4a:dd:cf:47:1a:
                    81:7f:1f:a7:da:c7:ee:c8:61:37:f9:87:50:49:4d:
                    9e:fd:df:80:63:41:e6:cb:f3:01:4f:47:e4:22:3b:
                    87:89:8c:b7:87:24:96:3c:17:1e:71:00:8d:38:52:
                    84:ac:ce:10:51:cb:5a:f5:7d:2c:1c:52:c2:9a:ee:
                    6d:df:e5:53:4b:7b:3e:01:fd:03:fa:33:7c:22:68:
                    82:b6:5d:82:25:07:d1:df:b0:70:c0:9d:2a:85:ef:
                    20:65:f9
                Exponent: 65537 (0x10001)
        X509v3 extensions:
            X509v3 Basic Constraints: 
                CA:FALSE
            Netscape Comment: 
                Easy-RSA Generated Certificate
            X509v3 Subject Key Identifier: 
                12:4B:40:BB:9D:33:84:A0:BF:37:14:57:28:57:D3:6A:43:D7:85:47
            X509v3 Authority Key Identifier: 
                keyid:12:CD:60:04:D2:A0:80:9E:70:ED:C6:99:B8:7B:2C:C6:52:FD:19:A1
                DirName:/C=US/ST=OH/L=Columbus/O=VikingVPN/OU=MyOrganizationalUnit/CN=VikingVPN CA/name=EasyRSA/emailAddress=me@myhost.mydomain
                serial:CF:35:85:EE:80:BF:2A:3E

            X509v3 Extended Key Usage: 
                TLS Web Client Authentication
            X509v3 Key Usage: 
                Digital Signature
    Signature Algorithm: md5WithRSAEncryption
         eb:6a:f7:ee:39:8c:ab:38:51:19:76:a5:41:b9:b8:27:69:ec:
         e2:e7:65:81:74:17:e2:6e:02:73:84:56:c1:cf:b9:98:1b:b7:
         dc:54:b3:1b:5f:54:53:0f:f1:b0:ec:fb:e1:14:46:a3:5d:47:
         72:13:51:17:e6:99:b3:46:bf:14:3a:24:08:b9:5b:9f:2a:66:
         72:7e:7d:b5:dc:1a:3c:7c:f7:a7:c7:b8:51:d2:f6:3e:11:e4:
         d5:7c:f6:c2:e7:8c:66:50:ed:79:07:8d:c5:55:6c:2b:4c:e8:
         d3:0f:8d:2a:ba:3d:a3:c1:2a:01:e6:f2:7e:51:83:d8:f1:e7:
         09:31:94:2d:7d:21:70:1c:d6:16:65:39:10:0c:0a:68:4b:c4:
         28:4e:70:79:6a:f4:e0:32:b8:7a:7a:27:bd:fa:38:27:6e:7d:
         8b:4c:41:cf:af:90:6c:55:e8:7b:ef:00:8b:a2:d0:14:e1:2b:
         39:41:0c:09:94:5c:81:c5:f4:fa:0e:63:4a:a0:f9:4a:2e:38:
         78:2a:d2:4e:fa:71:0b:ed:d0:1d:25:59:b3:5c:da:f9:41:3e:
         e5:db:18:77:98:3f:58:de:7f:aa:52:c6:12:7a:ae:f0:a9:9d:
         6e:29:39:56:81:84:33:3f:83:29:d6:6a:1c:0c:7a:d4:8b:0a:
         8c:b2:9e:bb:1c:20:76:b5:52:36:ad:52:97:2a:49:4d:bd:45:
         01:bb:16:90:b8:e2:7b:79:17:22:1d:65:85:27:f0:c0:1f:53:
         80:cc:0c:c2:fc:f5:cb:6e:c8:cd:c1:c7:d9:f3:74:08:07:bc:
         a1:1b:67:38:c3:dd:31:0a:e1:69:06:22:3c:69:dd:6f:40:a2:
         24:66:0f:d2:82:e2:2f:6b:b6:69:0f:1e:84:a9:08:1d:2f:7e:
         14:1f:a8:1a:ff:f1:8a:26:8a:8c:af:0f:5c:60:e7:2a:2d:d8:
         c3:6d:e7:27:c9:84:3a:fd:85:bf:08:47:f5:10:37:a4:62:4f:
         23:5d:ce:64:cb:d7:70:f4:12:db:8e:9d:08:01:80:73:15:a5:
         42:da:aa:d5:b0:a9:34:0e:cc:41:c1:18:33:c4:86:0c:50:4e:
         66:7f:4c:d8:93:b9:53:e6:6c:31:1c:04:53:61:73:c3:75:fd:
         99:48:c9:6e:97:12:0d:5f:7c:16:65:0b:87:70:44:78:be:fb:
         90:07:73:22:e6:e2:9b:7c:13:f8:42:19:09:63:5e:90:90:80:
         6c:f1:e2:a1:87:96:f9:93:cc:4d:62:0d:9e:3e:95:fd:da:21:
         5c:d9:ee:7a:61:6f:18:71:3f:c0:ea:41:c0:2a:f0:b9:bd:d4:
         d3:e7:60:80:af:cb:28:8b
-----BEGIN CERTIFICATE-----
MIIGrDCCBJSgAwIBAgICBM4wDQYJKoZIhvcNAQEEBQAwgawxCzAJBgNVBAYTAlVT
MQswCQYDVQQIEwJPSDERMA8GA1UEBxMIQ29sdW1idXMxEjAQBgNVBAoTCVZpa2lu
Z1ZQTjEdMBsGA1UECxMUTXlPcmdhbml6YXRpb25hbFVuaXQxFTATBgNVBAMTDFZp
a2luZ1ZQTiBDQTEQMA4GA1UEKRMHRWFzeVJTQTEhMB8GCSqGSIb3DQEJARYSbWVA
bXlob3N0Lm15ZG9tYWluMB4XDTE0MDMwNjAwNDI1N1oXDTI0MDMwMzAwNDI1N1ow
HjEcMBoGA1UEAxMTQ2xpZW50NDUwQ2VydDQzOTNmYzCCAiIwDQYJKoZIhvcNAQEB
BQADggIPADCCAgoCggIBALZfpdlyfB6zLS9oWaaXIYbB20vMu+oDwd8yafjAE0bo
xVINAupvUof57YbJSBd/8zCH1G3OphMZmAvunaZvrp0O1MSmxxwuL8MOrJv0oLJP
F3yJYig4wLtUpihvRcfFqQNonBzGQz/pIiGH/QeWSD8eVih8B28iv4+J3cgn4Su9
2Qv7JPGg35BahSRf4/eRAirxPWi4SMQpiHh3YE2yoqIVwtcPb+PgcYkJniPQQdUw
XcvQ5DqxDx75ztA6/s7CA9MGK1ZkVoDJVq++vXMryjqZZxYMEhU1zTKBgpZXOwFL
lkj5jEwlCP+bzgSO7gLoPuHWCwurDZInDuZ1F1caylDLcQ425EOmsDjSB6o3rvP/
BCEzsR9VwPP7Eq3ST1QazI5XKbqYzN3CMHGbiO5Av7Cbj1JSLQrxxIp4zLpOhju+
FR7AJJM1ovITLfQqsKr1RIIxpLBN0uRRzU2VpF2S2WdZEKUtLlp/TfICWnHsUJYm
li5MDqMjjbVw9dEPDfFR88vjFtg3hwaaMZZ7ObibsMyuEQ/Xx1nYDqz673X6TErd
z0cagX8fp9rH7shhN/mHUElNnv3fgGNB5svzAU9H5CI7h4mMt4ckljwXHnEAjThS
hKzOEFHLWvV9LBxSwprubd/lU0t7PgH9A/ozfCJogrZdgiUH0d+wcMCdKoXvIGX5
AgMBAAGjggFjMIIBXzAJBgNVHRMEAjAAMC0GCWCGSAGG+EIBDQQgFh5FYXN5LVJT
QSBHZW5lcmF0ZWQgQ2VydGlmaWNhdGUwHQYDVR0OBBYEFBJLQLudM4SgvzcUVyhX
02pD14VHMIHhBgNVHSMEgdkwgdaAFBLNYATSoICecO3Gmbh7LMZS/RmhoYGypIGv
MIGsMQswCQYDVQQGEwJVUzELMAkGA1UECBMCT0gxETAPBgNVBAcTCENvbHVtYnVz
MRIwEAYDVQQKEwlWaWtpbmdWUE4xHTAbBgNVBAsTFE15T3JnYW5pemF0aW9uYWxV
bml0MRUwEwYDVQQDEwxWaWtpbmdWUE4gQ0ExEDAOBgNVBCkTB0Vhc3lSU0ExITAf
BgkqhkiG9w0BCQEWEm1lQG15aG9zdC5teWRvbWFpboIJAM81he6Avyo+MBMGA1Ud
JQQMMAoGCCsGAQUFBwMCMAsGA1UdDwQEAwIHgDANBgkqhkiG9w0BAQQFAAOCAgEA
62r37jmMqzhRGXalQbm4J2ns4udlgXQX4m4Cc4RWwc+5mBu33FSzG19UUw/xsOz7
4RRGo11HchNRF+aZs0a/FDokCLlbnypmcn59tdwaPHz3p8e4UdL2PhHk1Xz2wueM
ZlDteQeNxVVsK0zo0w+NKro9o8EqAebyflGD2PHnCTGULX0hcBzWFmU5EAwKaEvE
KE5weWr04DK4enonvfo4J259i0xBz6+QbFXoe+8Ai6LQFOErOUEMCZRcgcX0+g5j
SqD5Si44eCrSTvpxC+3QHSVZs1za+UE+5dsYd5g/WN5/qlLGEnqu8Kmdbik5VoGE
Mz+DKdZqHAx61IsKjLKeuxwgdrVSNq1SlypJTb1FAbsWkLjie3kXIh1lhSfwwB9T
gMwMwvz1y27IzcHH2fN0CAe8oRtnOMPdMQrhaQYiPGndb0CiJGYP0oLiL2u2aQ8e
hKkIHS9+FB+oGv/xiiaKjK8PXGDnKi3Yw23nJ8mEOv2FvwhH9RA3pGJPI13OZMvX
cPQS246dCAGAcxWlQtqq1bCpNA7MQcEYM8SGDFBOZn9M2JO5U+ZsMRwEU2Fzw3X9
mUjJbpcSDV98FmULh3BEeL77kAdzIubim3wT+EIZCWNekJCAbPHioYeW+ZPMTWIN
nj6V/dohXNnuemFvGHE/wOpBwCrwub3U0+dggK/LKIs=
-----END CERTIFICATE-----
