Certificate:
    Data:
        Version: 3 (0x2)
        Serial Number: 1231 (0x4cf)
    Signature Algorithm: md5WithRSAEncryption
        Issuer: C=US, ST=OH, L=Columbus, O=VikingVPN, OU=MyOrganizationalUnit, CN=VikingVPN CA/name=EasyRSA/emailAddress=me@myhost.mydomain
        Validity
            Not Before: Mar  6 16:24:15 2014 GMT
            Not After : Mar  3 16:24:15 2024 GMT
        Subject: CN=Client325Cert8e8074
        Subject Public Key Info:
            Public Key Algorithm: rsaEncryption
                Public-Key: (4096 bit)
                Modulus:
                    00:b7:a8:62:61:e4:36:0c:44:b8:70:c9:dd:cf:50:
                    52:c4:d4:a4:df:d4:d6:ca:95:ff:ec:fb:11:15:b0:
                    46:d5:7d:14:b3:9e:29:91:f4:6a:8d:44:80:fb:fc:
                    16:a1:0b:ea:71:ac:76:5a:aa:31:cf:9f:8c:a0:2c:
                    0a:a1:04:5f:bb:3b:67:ea:66:07:b8:b0:cb:77:4a:
                    eb:66:72:2a:9c:41:a8:82:43:52:02:54:01:42:b2:
                    09:52:3a:2a:a3:1d:29:56:56:cc:61:71:08:10:9e:
                    8c:79:19:c3:24:b0:fb:c3:d8:66:0d:0e:06:0f:91:
                    9e:d9:46:c7:5e:06:9c:16:15:06:b6:e6:96:81:f7:
                    dd:e2:9a:26:7b:d6:72:d9:81:8f:28:fc:c5:35:79:
                    75:1f:87:f9:b3:64:44:8a:ae:77:04:70:ac:c6:dc:
                    86:87:62:36:fa:5b:da:2b:49:7b:37:ec:cd:41:e1:
                    3b:b1:7a:17:d9:d9:e6:cd:39:b1:47:c7:81:9a:f6:
                    77:6f:80:49:a1:54:d9:68:42:40:5a:16:8f:67:91:
                    5f:99:60:00:7b:46:e0:fb:f2:f8:b7:4f:5b:39:99:
                    d1:33:12:97:f3:3a:9c:ae:c3:b7:b3:4c:b1:53:69:
                    e5:e0:ad:0d:33:5e:ce:62:ee:0c:e2:c8:6d:5b:34:
                    27:80:f0:20:e0:d6:84:e4:73:d4:4b:b2:8a:37:88:
                    1c:34:85:94:56:97:64:24:c4:7c:5c:0f:ed:07:41:
                    d7:3e:aa:35:fe:cb:77:2a:37:38:82:18:c1:8a:0a:
                    47:55:65:69:38:8f:7c:75:b3:6e:51:b2:6c:21:d6:
                    fd:7a:ed:d6:56:c1:a7:4c:3b:47:40:fc:66:9d:14:
                    2c:6d:0a:4d:a7:b3:5c:ad:87:4a:1c:9d:7a:a4:05:
                    ca:c0:40:ed:35:97:b5:eb:35:7c:ec:fc:d1:5b:5c:
                    6f:24:8e:eb:68:da:13:d2:13:d2:23:49:31:d3:3b:
                    61:ce:41:5b:1c:31:83:eb:6a:e6:d1:73:7a:18:f2:
                    14:41:c4:de:f1:ca:b4:86:3d:71:10:c0:c6:c6:f5:
                    9d:be:ac:ae:9d:46:84:f8:d9:58:44:04:76:80:93:
                    ba:52:98:07:f8:5b:0b:38:5f:60:2b:3b:22:4d:c7:
                    b6:1c:46:4a:29:09:ee:2a:9d:7b:14:e0:3a:93:9e:
                    ff:95:86:cd:28:04:2a:6c:77:8b:5f:56:58:0d:c3:
                    9d:86:24:8b:cf:0c:f3:b1:2f:74:7e:b7:f0:52:51:
                    7b:ef:8a:7d:15:86:ae:79:81:e3:64:c9:44:b5:cc:
                    15:ad:f0:f0:2a:58:ab:23:21:f1:a6:40:47:73:b5:
                    52:b4:c7
                Exponent: 65537 (0x10001)
        X509v3 extensions:
            X509v3 Basic Constraints: 
                CA:FALSE
            Netscape Comment: 
                Easy-RSA Generated Certificate
            X509v3 Subject Key Identifier: 
                C1:5B:40:E4:FF:3D:55:AB:B9:85:9A:F0:05:83:E3:4F:5F:52:87:90
            X509v3 Authority Key Identifier: 
                keyid:12:CD:60:04:D2:A0:80:9E:70:ED:C6:99:B8:7B:2C:C6:52:FD:19:A1
                DirName:/C=US/ST=OH/L=Columbus/O=VikingVPN/OU=MyOrganizationalUnit/CN=VikingVPN CA/name=EasyRSA/emailAddress=me@myhost.mydomain
                serial:CF:35:85:EE:80:BF:2A:3E

            X509v3 Extended Key Usage: 
                TLS Web Client Authentication
            X509v3 Key Usage: 
                Digital Signature
    Signature Algorithm: md5WithRSAEncryption
         2c:c9:9d:d1:a2:18:e9:3d:0f:7d:5b:f0:ce:6e:e3:2f:e4:e8:
         a9:26:42:13:83:00:4f:78:fa:08:93:b2:a2:e3:04:ff:5a:12:
         11:8f:a4:48:fe:cb:e2:37:23:07:4e:0c:0c:50:8f:42:e7:74:
         a9:11:83:79:42:76:dd:a3:e6:ba:0c:d2:d9:88:78:10:0c:f7:
         04:5a:f3:5a:4f:3f:5f:14:f3:bf:8a:82:8c:a2:d0:57:d1:b9:
         25:89:a5:8b:0c:44:48:de:38:70:94:bb:46:cb:f2:9f:a8:c0:
         1e:29:56:8f:8f:a2:6f:d9:b3:7c:3b:34:61:eb:a8:25:5e:98:
         f6:3e:12:20:88:d4:2d:31:25:7e:6c:1a:27:f3:a3:ad:87:cd:
         7c:b2:46:49:52:21:31:e0:bb:c7:3f:13:04:2e:5b:26:6e:37:
         9a:fd:e1:16:3f:6e:69:d0:99:db:d5:f5:39:76:ce:b3:83:59:
         e2:e9:ab:29:12:0a:a0:48:0c:8c:5d:26:c5:72:b8:0c:0e:21:
         84:0b:c4:f8:6a:7d:a9:de:7b:f2:f8:4b:a5:44:87:2a:7f:34:
         b3:fe:ff:78:b6:87:cf:9a:0b:7d:90:79:d9:9e:84:fd:40:64:
         af:0e:3b:68:f8:c3:31:53:3f:a7:10:b9:4e:6d:24:48:57:07:
         c6:c7:c9:6b:cd:50:f2:dc:f8:ac:a2:c5:a8:af:19:db:da:21:
         f2:0e:33:1c:6c:2a:2d:10:c7:e5:1f:21:76:a1:c7:f9:da:c7:
         f5:5e:7d:c1:a8:2f:39:ea:40:6c:e5:24:fa:24:51:6e:b4:dd:
         8f:ed:75:f4:dc:a4:ce:ab:66:8e:b4:4c:8c:8b:74:0f:e0:aa:
         08:23:7d:d8:5d:de:b4:b4:96:44:ba:92:29:5d:f2:92:67:20:
         c1:9c:a9:05:c5:25:40:20:dd:ee:18:d5:e5:d4:c5:1d:1c:24:
         fe:86:9e:57:43:46:1f:8f:40:a3:3d:81:c5:0c:57:d8:5a:0b:
         64:d8:f1:f2:6a:58:d5:9f:ac:6a:66:1d:4a:0a:da:25:4f:76:
         cf:d0:17:6e:a0:0a:b2:38:d8:bf:44:14:44:0d:4e:dc:f3:c6:
         a1:05:a5:a7:d8:e8:b0:cd:17:cf:48:94:55:41:f4:6b:64:d8:
         88:61:5b:e0:f2:26:e8:ac:7e:b4:0d:72:20:49:b5:94:f6:bf:
         c6:c2:92:11:bd:97:9e:72:a3:ec:5a:fd:d8:67:f0:31:15:33:
         49:4e:8e:bf:52:d3:1d:a6:de:83:af:87:0f:42:57:60:70:f8:
         33:df:a4:1f:ee:64:c6:3f:44:f5:af:1a:6f:a3:e5:a2:f7:ab:
         15:d8:e0:08:6d:12:a3:fd
-----BEGIN CERTIFICATE-----
MIIGrDCCBJSgAwIBAgICBM8wDQYJKoZIhvcNAQEEBQAwgawxCzAJBgNVBAYTAlVT
MQswCQYDVQQIEwJPSDERMA8GA1UEBxMIQ29sdW1idXMxEjAQBgNVBAoTCVZpa2lu
Z1ZQTjEdMBsGA1UECxMUTXlPcmdhbml6YXRpb25hbFVuaXQxFTATBgNVBAMTDFZp
a2luZ1ZQTiBDQTEQMA4GA1UEKRMHRWFzeVJTQTEhMB8GCSqGSIb3DQEJARYSbWVA
bXlob3N0Lm15ZG9tYWluMB4XDTE0MDMwNjE2MjQxNVoXDTI0MDMwMzE2MjQxNVow
HjEcMBoGA1UEAxMTQ2xpZW50MzI1Q2VydDhlODA3NDCCAiIwDQYJKoZIhvcNAQEB
BQADggIPADCCAgoCggIBALeoYmHkNgxEuHDJ3c9QUsTUpN/U1sqV/+z7ERWwRtV9
FLOeKZH0ao1EgPv8FqEL6nGsdlqqMc+fjKAsCqEEX7s7Z+pmB7iwy3dK62ZyKpxB
qIJDUgJUAUKyCVI6KqMdKVZWzGFxCBCejHkZwySw+8PYZg0OBg+RntlGx14GnBYV
BrbmloH33eKaJnvWctmBjyj8xTV5dR+H+bNkRIqudwRwrMbchodiNvpb2itJezfs
zUHhO7F6F9nZ5s05sUfHgZr2d2+ASaFU2WhCQFoWj2eRX5lgAHtG4Pvy+LdPWzmZ
0TMSl/M6nK7Dt7NMsVNp5eCtDTNezmLuDOLIbVs0J4DwIODWhORz1EuyijeIHDSF
lFaXZCTEfFwP7QdB1z6qNf7Ldyo3OIIYwYoKR1VlaTiPfHWzblGybCHW/Xrt1lbB
p0w7R0D8Zp0ULG0KTaezXK2HShydeqQFysBA7TWXtes1fOz80VtcbySO62jaE9IT
0iNJMdM7Yc5BWxwxg+tq5tFzehjyFEHE3vHKtIY9cRDAxsb1nb6srp1GhPjZWEQE
doCTulKYB/hbCzhfYCs7Ik3HthxGSikJ7iqdexTgOpOe/5WGzSgEKmx3i19WWA3D
nYYki88M87EvdH638FJRe++KfRWGrnmB42TJRLXMFa3w8CpYqyMh8aZAR3O1UrTH
AgMBAAGjggFjMIIBXzAJBgNVHRMEAjAAMC0GCWCGSAGG+EIBDQQgFh5FYXN5LVJT
QSBHZW5lcmF0ZWQgQ2VydGlmaWNhdGUwHQYDVR0OBBYEFMFbQOT/PVWruYWa8AWD
409fUoeQMIHhBgNVHSMEgdkwgdaAFBLNYATSoICecO3Gmbh7LMZS/RmhoYGypIGv
MIGsMQswCQYDVQQGEwJVUzELMAkGA1UECBMCT0gxETAPBgNVBAcTCENvbHVtYnVz
MRIwEAYDVQQKEwlWaWtpbmdWUE4xHTAbBgNVBAsTFE15T3JnYW5pemF0aW9uYWxV
bml0MRUwEwYDVQQDEwxWaWtpbmdWUE4gQ0ExEDAOBgNVBCkTB0Vhc3lSU0ExITAf
BgkqhkiG9w0BCQEWEm1lQG15aG9zdC5teWRvbWFpboIJAM81he6Avyo+MBMGA1Ud
JQQMMAoGCCsGAQUFBwMCMAsGA1UdDwQEAwIHgDANBgkqhkiG9w0BAQQFAAOCAgEA
LMmd0aIY6T0PfVvwzm7jL+ToqSZCE4MAT3j6CJOyouME/1oSEY+kSP7L4jcjB04M
DFCPQud0qRGDeUJ23aPmugzS2Yh4EAz3BFrzWk8/XxTzv4qCjKLQV9G5JYmliwxE
SN44cJS7Rsvyn6jAHilWj4+ib9mzfDs0YeuoJV6Y9j4SIIjULTElfmwaJ/OjrYfN
fLJGSVIhMeC7xz8TBC5bJm43mv3hFj9uadCZ29X1OXbOs4NZ4umrKRIKoEgMjF0m
xXK4DA4hhAvE+Gp9qd578vhLpUSHKn80s/7/eLaHz5oLfZB52Z6E/UBkrw47aPjD
MVM/pxC5Tm0kSFcHxsfJa81Q8tz4rKLFqK8Z29oh8g4zHGwqLRDH5R8hdqHH+drH
9V59wagvOepAbOUk+iRRbrTdj+119NykzqtmjrRMjIt0D+CqCCN92F3etLSWRLqS
KV3ykmcgwZypBcUlQCDd7hjV5dTFHRwk/oaeV0NGH49Aoz2BxQxX2FoLZNjx8mpY
1Z+samYdSgraJU92z9AXbqAKsjjYv0QURA1O3PPGoQWlp9josM0Xz0iUVUH0a2TY
iGFb4PIm6Kx+tA1yIEm1lPa/xsKSEb2XnnKj7Fr92GfwMRUzSU6Ov1LTHabeg6+H
D0JXYHD4M9+kH+5kxj9E9a8ab6PloverFdjgCG0So/0=
-----END CERTIFICATE-----
