Certificate:
    Data:
        Version: 3 (0x2)
        Serial Number: 1239 (0x4d7)
    Signature Algorithm: md5WithRSAEncryption
        Issuer: C=US, ST=OH, L=Columbus, O=VikingVPN, OU=MyOrganizationalUnit, CN=VikingVPN CA/name=EasyRSA/emailAddress=me@myhost.mydomain
        Validity
            Not Before: Mar  7 22:29:43 2014 GMT
            Not After : Mar  4 22:29:43 2024 GMT
        Subject: CN=Client3Cert875155
        Subject Public Key Info:
            Public Key Algorithm: rsaEncryption
                Public-Key: (4096 bit)
                Modulus:
                    00:b7:7a:d5:41:d1:88:7d:59:df:ca:fc:a4:eb:99:
                    2f:f8:3f:83:43:c9:dd:24:45:00:48:aa:df:cf:77:
                    0e:18:49:97:ba:ff:4b:fc:82:2b:e5:b5:36:d0:f8:
                    94:4b:74:8d:96:7d:73:f9:64:4f:21:b8:cf:33:98:
                    41:34:40:da:99:1f:ea:97:cd:66:b2:6a:f2:a9:03:
                    68:c8:d9:ca:21:ed:fa:68:8c:8f:a6:5f:a6:aa:1a:
                    8f:eb:7b:d0:2e:06:ea:6d:24:be:e2:08:28:d2:ec:
                    a0:8e:ee:13:c0:c1:ab:9d:63:05:86:00:9c:e1:99:
                    06:2a:5d:ee:ca:c6:ba:df:02:cd:63:f8:ea:bd:1d:
                    f9:d3:ba:35:77:e6:c1:bd:69:ec:6c:ba:1d:17:18:
                    a7:3c:84:c9:c3:3d:9f:9e:a1:eb:6c:9e:79:8f:e1:
                    83:cb:16:ce:5b:f6:5b:9a:f3:66:c4:72:90:fd:7c:
                    ed:ce:a9:c2:8e:23:65:e6:d7:33:52:98:7c:17:a7:
                    b3:53:6a:f8:82:11:23:55:0b:fd:7f:48:62:a5:ac:
                    75:61:ed:da:33:63:f0:63:57:2f:53:66:60:ee:67:
                    db:2a:c9:5d:22:ea:c0:2a:47:ae:f3:95:49:e6:e2:
                    18:a6:96:c7:3c:68:3d:79:1c:80:96:d1:4f:7e:45:
                    af:c8:cd:1f:1f:10:26:f0:fd:35:a0:21:e3:3d:4c:
                    b2:f1:41:9e:98:70:3b:e3:f7:58:8a:b5:02:59:29:
                    bb:7f:c7:9e:42:ca:ab:4f:72:5e:df:8f:17:39:89:
                    75:51:89:cf:c8:91:25:7d:61:b3:bd:4f:2b:91:c7:
                    22:da:97:68:68:b7:fd:2a:8d:58:6a:cc:3f:bf:32:
                    c8:87:2c:4b:b5:86:33:3b:0c:96:8c:ff:3a:8e:02:
                    e2:b6:98:0b:23:1f:d5:70:57:4c:58:63:13:e7:fa:
                    f0:b0:a5:83:db:12:ee:18:4e:8d:b6:4a:19:dc:f2:
                    db:84:c4:99:d6:21:17:30:b2:82:72:db:a6:65:23:
                    ad:a5:77:38:32:4b:81:5a:77:0c:d8:60:17:dc:60:
                    d9:e6:6a:8f:dc:5e:4e:e3:02:ae:5a:e8:27:66:b0:
                    d2:4b:b3:29:9e:50:cf:9b:e8:62:23:45:9d:4d:a4:
                    a8:71:17:64:46:14:bc:6b:d9:a2:bd:fb:16:79:d7:
                    57:48:d0:cd:45:b4:c2:46:57:e4:78:94:e3:f1:61:
                    f1:e1:b4:13:a6:67:95:f9:88:66:0a:7b:bb:11:92:
                    d1:c0:0c:4a:d9:d7:3b:34:6b:fb:df:df:a7:47:bf:
                    cf:11:c2:14:90:74:51:eb:01:e5:60:a2:bc:3d:9e:
                    14:50:15
                Exponent: 65537 (0x10001)
        X509v3 extensions:
            X509v3 Basic Constraints: 
                CA:FALSE
            Netscape Comment: 
                Easy-RSA Generated Certificate
            X509v3 Subject Key Identifier: 
                94:1C:2C:4C:AF:C9:8B:64:E2:4D:93:07:BA:DC:A5:92:19:61:D8:BA
            X509v3 Authority Key Identifier: 
                keyid:12:CD:60:04:D2:A0:80:9E:70:ED:C6:99:B8:7B:2C:C6:52:FD:19:A1
                DirName:/C=US/ST=OH/L=Columbus/O=VikingVPN/OU=MyOrganizationalUnit/CN=VikingVPN CA/name=EasyRSA/emailAddress=me@myhost.mydomain
                serial:CF:35:85:EE:80:BF:2A:3E

            X509v3 Extended Key Usage: 
                TLS Web Client Authentication
            X509v3 Key Usage: 
                Digital Signature
    Signature Algorithm: md5WithRSAEncryption
         ab:6e:20:78:6c:f0:4d:e5:7c:76:87:0b:e2:8d:29:4f:34:19:
         88:d6:b3:70:c3:34:75:f5:1d:ff:1a:96:1b:1f:d7:2d:36:03:
         3b:68:f7:c6:3b:11:e7:49:62:48:de:fe:05:bc:25:45:1b:69:
         10:3b:0a:dc:05:7f:71:af:a9:3b:c3:a8:f7:8b:c5:61:0f:00:
         20:89:e3:ee:54:77:11:41:6e:2d:8e:17:8d:68:d9:bf:3e:2b:
         29:4d:42:4e:f7:cd:f8:45:65:79:df:90:05:67:cf:c4:3e:3a:
         73:57:95:63:ad:42:5e:2b:fc:16:f1:22:3e:4a:ca:1a:20:8c:
         f1:d0:29:7b:f1:0d:55:2d:ac:49:64:66:06:be:2b:a4:82:57:
         a7:d7:4d:8c:8e:4d:72:b4:2f:7e:16:87:df:d6:1e:7f:b5:a2:
         51:53:93:01:df:9f:ba:f1:3d:4d:39:33:1e:05:5e:73:91:6a:
         23:56:1e:96:09:33:3a:f2:ff:9e:ec:9c:ea:59:c5:93:6a:00:
         c5:93:73:73:46:13:05:d9:09:17:54:93:20:4c:84:d8:3b:47:
         0a:e0:db:ae:ce:57:0f:76:df:25:4a:03:da:07:64:4a:3c:d7:
         89:57:df:4d:a2:11:3a:5e:6e:82:69:03:f2:aa:bc:41:0e:4d:
         26:b7:1c:7f:c6:d5:ff:cf:fa:15:0d:12:5b:8e:24:37:6a:63:
         66:84:ca:7b:9f:88:9b:94:5f:c6:2f:e9:70:c6:20:39:6a:44:
         fe:c9:bf:7a:0f:36:38:0c:8a:dc:27:4f:ab:3f:41:bb:e8:5b:
         49:cb:4d:a0:fa:93:f9:4b:dd:56:0c:6f:1a:42:d9:7b:db:d2:
         46:c4:65:47:94:da:bb:0e:87:aa:fa:39:49:14:3d:69:ff:4e:
         1a:53:93:51:35:3c:0b:d2:a9:91:ae:4e:3f:91:f4:8f:04:fe:
         74:36:15:f2:2d:2d:78:0f:a6:6b:b8:6b:60:2e:1e:36:1b:82:
         34:88:d3:0e:aa:d8:c2:80:3f:38:01:e9:fe:1a:ff:5b:07:b9:
         1d:bb:82:ba:dd:87:cb:2f:64:59:e4:00:d7:13:12:29:1d:f9:
         f1:bb:5c:68:a7:c5:ca:a3:d3:3f:a2:84:fa:a4:25:c2:1d:e6:
         cd:a3:24:62:4b:d7:22:14:81:ab:77:59:53:83:83:d4:f9:ff:
         72:81:7d:40:0f:2f:49:cb:83:33:df:76:fa:e9:4c:76:2f:d6:
         55:17:ef:01:b5:3f:75:3c:08:0b:3a:a5:5c:32:92:1c:4a:99:
         6d:55:81:c0:ea:63:b3:d2:26:56:96:22:a1:ad:18:09:44:15:
         57:e9:41:0b:c8:93:ad:02
-----BEGIN CERTIFICATE-----
MIIGqjCCBJKgAwIBAgICBNcwDQYJKoZIhvcNAQEEBQAwgawxCzAJBgNVBAYTAlVT
MQswCQYDVQQIEwJPSDERMA8GA1UEBxMIQ29sdW1idXMxEjAQBgNVBAoTCVZpa2lu
Z1ZQTjEdMBsGA1UECxMUTXlPcmdhbml6YXRpb25hbFVuaXQxFTATBgNVBAMTDFZp
a2luZ1ZQTiBDQTEQMA4GA1UEKRMHRWFzeVJTQTEhMB8GCSqGSIb3DQEJARYSbWVA
bXlob3N0Lm15ZG9tYWluMB4XDTE0MDMwNzIyMjk0M1oXDTI0MDMwNDIyMjk0M1ow
HDEaMBgGA1UEAxMRQ2xpZW50M0NlcnQ4NzUxNTUwggIiMA0GCSqGSIb3DQEBAQUA
A4ICDwAwggIKAoICAQC3etVB0Yh9Wd/K/KTrmS/4P4NDyd0kRQBIqt/Pdw4YSZe6
/0v8givltTbQ+JRLdI2WfXP5ZE8huM8zmEE0QNqZH+qXzWayavKpA2jI2coh7fpo
jI+mX6aqGo/re9AuBuptJL7iCCjS7KCO7hPAwaudYwWGAJzhmQYqXe7KxrrfAs1j
+Oq9HfnTujV35sG9aexsuh0XGKc8hMnDPZ+eoetsnnmP4YPLFs5b9lua82bEcpD9
fO3OqcKOI2Xm1zNSmHwXp7NTaviCESNVC/1/SGKlrHVh7dozY/BjVy9TZmDuZ9sq
yV0i6sAqR67zlUnm4himlsc8aD15HICW0U9+Ra/IzR8fECbw/TWgIeM9TLLxQZ6Y
cDvj91iKtQJZKbt/x55CyqtPcl7fjxc5iXVRic/IkSV9YbO9TyuRxyLal2hot/0q
jVhqzD+/MsiHLEu1hjM7DJaM/zqOAuK2mAsjH9VwV0xYYxPn+vCwpYPbEu4YTo22
Shnc8tuExJnWIRcwsoJy26ZlI62ldzgyS4FadwzYYBfcYNnmao/cXk7jAq5a6Cdm
sNJLsymeUM+b6GIjRZ1NpKhxF2RGFLxr2aK9+xZ511dI0M1FtMJGV+R4lOPxYfHh
tBOmZ5X5iGYKe7sRktHADErZ1zs0a/vf36dHv88RwhSQdFHrAeVgorw9nhRQFQID
AQABo4IBYzCCAV8wCQYDVR0TBAIwADAtBglghkgBhvhCAQ0EIBYeRWFzeS1SU0Eg
R2VuZXJhdGVkIENlcnRpZmljYXRlMB0GA1UdDgQWBBSUHCxMr8mLZOJNkwe63KWS
GWHYujCB4QYDVR0jBIHZMIHWgBQSzWAE0qCAnnDtxpm4eyzGUv0ZoaGBsqSBrzCB
rDELMAkGA1UEBhMCVVMxCzAJBgNVBAgTAk9IMREwDwYDVQQHEwhDb2x1bWJ1czES
MBAGA1UEChMJVmlraW5nVlBOMR0wGwYDVQQLExRNeU9yZ2FuaXphdGlvbmFsVW5p
dDEVMBMGA1UEAxMMVmlraW5nVlBOIENBMRAwDgYDVQQpEwdFYXN5UlNBMSEwHwYJ
KoZIhvcNAQkBFhJtZUBteWhvc3QubXlkb21haW6CCQDPNYXugL8qPjATBgNVHSUE
DDAKBggrBgEFBQcDAjALBgNVHQ8EBAMCB4AwDQYJKoZIhvcNAQEEBQADggIBAKtu
IHhs8E3lfHaHC+KNKU80GYjWs3DDNHX1Hf8alhsf1y02Azto98Y7EedJYkje/gW8
JUUbaRA7CtwFf3GvqTvDqPeLxWEPACCJ4+5UdxFBbi2OF41o2b8+KylNQk73zfhF
ZXnfkAVnz8Q+OnNXlWOtQl4r/BbxIj5KyhogjPHQKXvxDVUtrElkZga+K6SCV6fX
TYyOTXK0L34Wh9/WHn+1olFTkwHfn7rxPU05Mx4FXnORaiNWHpYJMzry/57snOpZ
xZNqAMWTc3NGEwXZCRdUkyBMhNg7Rwrg267OVw923yVKA9oHZEo814lX302iETpe
boJpA/KqvEEOTSa3HH/G1f/P+hUNEluOJDdqY2aEynufiJuUX8Yv6XDGIDlqRP7J
v3oPNjgMitwnT6s/QbvoW0nLTaD6k/lL3VYMbxpC2Xvb0kbEZUeU2rsOh6r6OUkU
PWn/ThpTk1E1PAvSqZGuTj+R9I8E/nQ2FfItLXgPpmu4a2AuHjYbgjSI0w6q2MKA
PzgB6f4a/1sHuR27grrdh8svZFnkANcTEikd+fG7XGinxcqj0z+ihPqkJcId5s2j
JGJL1yIUgat3WVODg9T5/3KBfUAPL0nLgzPfdvrpTHYv1lUX7wG1P3U8CAs6pVwy
khxKmW1VgcDqY7PSJlaWIqGtGAlEFVfpQQvIk60C
-----END CERTIFICATE-----
