Certificate:
    Data:
        Version: 3 (0x2)
        Serial Number: 1243 (0x4db)
    Signature Algorithm: md5WithRSAEncryption
        Issuer: C=US, ST=OH, L=Columbus, O=VikingVPN, OU=MyOrganizationalUnit, CN=VikingVPN CA/name=EasyRSA/emailAddress=me@myhost.mydomain
        Validity
            Not Before: Mar  8 03:20:28 2014 GMT
            Not After : Mar  5 03:20:28 2024 GMT
        Subject: CN=Client456Certf939b7
        Subject Public Key Info:
            Public Key Algorithm: rsaEncryption
                Public-Key: (4096 bit)
                Modulus:
                    00:c8:be:a4:00:41:a8:9a:e1:83:19:a9:6d:2a:81:
                    e0:de:e2:a1:7a:00:3a:c4:db:01:7d:28:31:40:0c:
                    cf:99:2d:3d:bc:31:2f:28:42:b9:2b:df:03:ef:13:
                    06:b0:ed:ee:2a:dd:56:7f:d9:f2:f2:43:5d:e3:b3:
                    1c:f2:ba:32:b3:6f:30:ee:17:5d:f4:88:45:77:6d:
                    63:eb:4c:7c:28:c0:ca:b5:3c:87:f9:32:88:97:06:
                    06:9b:ae:a7:0b:a5:32:73:31:55:f8:a2:04:2b:0f:
                    4c:5d:f1:a8:31:5c:8a:2e:d1:21:66:de:ae:97:7b:
                    ec:dc:15:fe:3e:d4:bd:22:fd:27:99:92:7f:80:2c:
                    f2:7e:6a:19:cd:68:fa:df:36:e8:1f:5f:16:24:2c:
                    4d:ca:7e:aa:67:f7:5d:6e:52:a4:07:d6:33:5f:c7:
                    76:6f:cf:58:55:da:0a:0a:15:dd:ce:64:2f:80:8d:
                    d7:66:9b:b9:cf:47:34:5b:36:62:92:83:85:8a:91:
                    e3:1e:fd:d6:5c:25:7b:13:b7:89:0e:5a:d0:99:fc:
                    db:f7:50:c0:37:76:fd:2d:fa:29:b8:10:55:8e:d0:
                    d0:35:66:d8:84:0c:a4:76:0c:be:4d:3d:cf:95:e8:
                    ab:2c:d7:33:24:68:bb:98:d3:98:a4:9f:1b:af:99:
                    cf:66:ef:b1:fc:b2:18:1a:ca:4c:8a:32:dc:47:17:
                    4d:4d:e9:e8:b8:c9:b8:e1:b3:2b:8c:a7:7f:3e:2c:
                    e9:5e:48:f0:bc:7a:8f:eb:a0:25:00:36:2a:3b:fc:
                    7c:67:ff:26:c7:a3:b0:10:aa:09:80:78:16:2a:d7:
                    3e:60:79:6e:1f:8e:fd:19:52:81:d7:bc:2d:10:ef:
                    db:d9:6e:e4:3f:6f:3f:15:8d:9a:73:2a:07:d0:d6:
                    b9:98:d3:7a:43:05:ba:f7:73:29:f7:f1:cd:1c:02:
                    23:a2:53:81:59:1f:30:dc:d1:e7:67:e4:72:61:42:
                    07:04:58:b3:d4:cd:31:f1:d2:19:14:02:9c:ad:0c:
                    0f:cc:c8:1e:0a:c4:bd:11:35:4f:d1:30:3d:48:cd:
                    d6:3e:ad:a4:8f:c8:1d:ba:79:46:f7:89:da:ad:68:
                    6a:1c:80:75:71:be:6e:fe:de:0c:9c:80:73:75:99:
                    b9:51:e7:e8:5c:47:09:0a:ac:08:e7:f9:2c:99:41:
                    00:de:3e:28:ad:8f:2e:60:e4:0e:bb:9b:b9:22:38:
                    a7:f4:6e:7f:c3:94:1a:4c:c0:b5:6e:b0:0f:81:95:
                    b5:7a:2c:bf:f5:f5:5a:fa:45:c2:83:5f:ee:c8:bc:
                    11:fe:25:bc:5c:a0:5d:8c:63:6e:9c:87:7d:46:58:
                    b8:ef:1d
                Exponent: 65537 (0x10001)
        X509v3 extensions:
            X509v3 Basic Constraints: 
                CA:FALSE
            Netscape Comment: 
                Easy-RSA Generated Certificate
            X509v3 Subject Key Identifier: 
                F1:71:6F:A2:5C:2F:92:B3:31:73:35:26:AE:03:C2:28:26:D2:26:4C
            X509v3 Authority Key Identifier: 
                keyid:12:CD:60:04:D2:A0:80:9E:70:ED:C6:99:B8:7B:2C:C6:52:FD:19:A1
                DirName:/C=US/ST=OH/L=Columbus/O=VikingVPN/OU=MyOrganizationalUnit/CN=VikingVPN CA/name=EasyRSA/emailAddress=me@myhost.mydomain
                serial:CF:35:85:EE:80:BF:2A:3E

            X509v3 Extended Key Usage: 
                TLS Web Client Authentication
            X509v3 Key Usage: 
                Digital Signature
    Signature Algorithm: md5WithRSAEncryption
         e3:0e:95:cb:98:df:b8:10:c0:0f:9d:1a:57:2a:fd:5d:25:82:
         a9:df:e4:d4:dd:6a:8d:61:b3:95:27:dc:75:fc:68:6b:50:00:
         39:30:45:1e:c3:8c:c5:5a:cd:85:17:d8:d4:18:90:e6:98:e7:
         d7:4a:fa:19:f5:44:5c:d2:d3:de:d2:ee:c7:66:6e:db:23:7e:
         37:55:05:ec:a7:ec:22:ef:a6:5c:aa:4d:d0:6f:f7:f4:c5:34:
         3f:d2:8c:ba:51:03:69:58:04:0a:ed:1f:83:71:26:0d:37:1c:
         c5:18:41:a9:76:6f:09:71:72:d8:a4:f5:71:15:b7:3a:bf:1b:
         62:13:a6:d6:17:e7:1f:9c:86:73:47:81:75:fc:4a:38:b2:6c:
         b2:aa:50:22:3d:3f:50:e8:36:9d:ce:15:fa:77:75:64:9d:ac:
         8b:36:43:8b:52:a3:2b:1b:14:2d:0e:99:ba:47:c8:13:00:6e:
         32:ac:fa:7b:27:de:18:06:36:35:68:c5:6e:0f:14:9c:9d:85:
         ad:f2:2c:ae:dd:0f:31:56:d9:e6:55:1b:29:d5:85:ea:39:d0:
         5f:8a:0e:39:34:c9:8e:14:f2:57:bd:a0:ca:77:15:0f:4f:aa:
         77:3a:5a:28:aa:ce:8b:e5:1a:87:b1:2d:59:ce:64:0c:e3:fe:
         f3:14:ba:e2:7e:cd:77:02:db:d7:ab:d0:2a:8a:ca:38:df:84:
         a5:ed:77:3d:3d:95:b9:28:fc:b6:1d:12:a8:64:32:5f:f2:a9:
         96:1f:21:44:e5:68:a2:40:7b:e4:04:cc:70:41:18:5d:c2:ad:
         97:65:75:aa:0b:e4:9a:61:ca:ac:87:97:c8:ea:69:99:ca:e1:
         2f:02:53:2c:90:0e:58:2e:53:f5:2f:82:d1:cd:a3:22:09:ac:
         47:d0:2a:ee:27:be:3d:8e:77:57:c2:84:49:25:8d:41:f0:66:
         78:ec:6e:21:13:88:56:b7:b8:a9:24:57:ba:a4:16:16:e5:ab:
         8c:49:a0:d9:ef:78:27:ad:98:b8:e1:df:c9:80:55:32:20:49:
         5b:41:7b:f5:b2:f6:e7:2c:47:2e:dc:16:c9:db:6a:b9:c9:16:
         f8:e9:64:02:74:52:48:5e:34:2b:5c:be:c9:8b:8f:63:cd:a1:
         11:3d:93:e3:90:af:03:11:88:e2:3a:5f:71:70:f1:41:52:ad:
         13:cd:d3:95:de:e9:ba:09:7b:66:41:5f:87:6a:66:24:89:42:
         70:26:95:be:14:46:fe:fb:c0:68:9c:ca:75:3c:17:b2:ec:c1:
         52:41:00:85:4a:65:3f:f1:78:35:64:7a:8e:85:bd:43:f4:38:
         c9:dc:be:e1:1b:46:2c:28
-----BEGIN CERTIFICATE-----
MIIGrDCCBJSgAwIBAgICBNswDQYJKoZIhvcNAQEEBQAwgawxCzAJBgNVBAYTAlVT
MQswCQYDVQQIEwJPSDERMA8GA1UEBxMIQ29sdW1idXMxEjAQBgNVBAoTCVZpa2lu
Z1ZQTjEdMBsGA1UECxMUTXlPcmdhbml6YXRpb25hbFVuaXQxFTATBgNVBAMTDFZp
a2luZ1ZQTiBDQTEQMA4GA1UEKRMHRWFzeVJTQTEhMB8GCSqGSIb3DQEJARYSbWVA
bXlob3N0Lm15ZG9tYWluMB4XDTE0MDMwODAzMjAyOFoXDTI0MDMwNTAzMjAyOFow
HjEcMBoGA1UEAxMTQ2xpZW50NDU2Q2VydGY5MzliNzCCAiIwDQYJKoZIhvcNAQEB
BQADggIPADCCAgoCggIBAMi+pABBqJrhgxmpbSqB4N7ioXoAOsTbAX0oMUAMz5kt
PbwxLyhCuSvfA+8TBrDt7irdVn/Z8vJDXeOzHPK6MrNvMO4XXfSIRXdtY+tMfCjA
yrU8h/kyiJcGBpuupwulMnMxVfiiBCsPTF3xqDFcii7RIWberpd77NwV/j7UvSL9
J5mSf4As8n5qGc1o+t826B9fFiQsTcp+qmf3XW5SpAfWM1/Hdm/PWFXaCgoV3c5k
L4CN12abuc9HNFs2YpKDhYqR4x791lwlexO3iQ5a0Jn82/dQwDd2/S36KbgQVY7Q
0DVm2IQMpHYMvk09z5XoqyzXMyRou5jTmKSfG6+Zz2bvsfyyGBrKTIoy3EcXTU3p
6LjJuOGzK4ynfz4s6V5I8Lx6j+ugJQA2Kjv8fGf/JsejsBCqCYB4FirXPmB5bh+O
/RlSgde8LRDv29lu5D9vPxWNmnMqB9DWuZjTekMFuvdzKffxzRwCI6JTgVkfMNzR
52fkcmFCBwRYs9TNMfHSGRQCnK0MD8zIHgrEvRE1T9EwPUjN1j6tpI/IHbp5RveJ
2q1oahyAdXG+bv7eDJyAc3WZuVHn6FxHCQqsCOf5LJlBAN4+KK2PLmDkDrubuSI4
p/Ruf8OUGkzAtW6wD4GVtXosv/X1WvpFwoNf7si8Ef4lvFygXYxjbpyHfUZYuO8d
AgMBAAGjggFjMIIBXzAJBgNVHRMEAjAAMC0GCWCGSAGG+EIBDQQgFh5FYXN5LVJT
QSBHZW5lcmF0ZWQgQ2VydGlmaWNhdGUwHQYDVR0OBBYEFPFxb6JcL5KzMXM1Jq4D
wigm0iZMMIHhBgNVHSMEgdkwgdaAFBLNYATSoICecO3Gmbh7LMZS/RmhoYGypIGv
MIGsMQswCQYDVQQGEwJVUzELMAkGA1UECBMCT0gxETAPBgNVBAcTCENvbHVtYnVz
MRIwEAYDVQQKEwlWaWtpbmdWUE4xHTAbBgNVBAsTFE15T3JnYW5pemF0aW9uYWxV
bml0MRUwEwYDVQQDEwxWaWtpbmdWUE4gQ0ExEDAOBgNVBCkTB0Vhc3lSU0ExITAf
BgkqhkiG9w0BCQEWEm1lQG15aG9zdC5teWRvbWFpboIJAM81he6Avyo+MBMGA1Ud
JQQMMAoGCCsGAQUFBwMCMAsGA1UdDwQEAwIHgDANBgkqhkiG9w0BAQQFAAOCAgEA
4w6Vy5jfuBDAD50aVyr9XSWCqd/k1N1qjWGzlSfcdfxoa1AAOTBFHsOMxVrNhRfY
1BiQ5pjn10r6GfVEXNLT3tLux2Zu2yN+N1UF7KfsIu+mXKpN0G/39MU0P9KMulED
aVgECu0fg3EmDTccxRhBqXZvCXFy2KT1cRW3Or8bYhOm1hfnH5yGc0eBdfxKOLJs
sqpQIj0/UOg2nc4V+nd1ZJ2sizZDi1KjKxsULQ6ZukfIEwBuMqz6eyfeGAY2NWjF
bg8UnJ2FrfIsrt0PMVbZ5lUbKdWF6jnQX4oOOTTJjhTyV72gyncVD0+qdzpaKKrO
i+Uah7EtWc5kDOP+8xS64n7NdwLb16vQKorKON+Epe13PT2VuSj8th0SqGQyX/Kp
lh8hROVookB75ATMcEEYXcKtl2V1qgvkmmHKrIeXyOppmcrhLwJTLJAOWC5T9S+C
0c2jIgmsR9Aq7ie+PY53V8KESSWNQfBmeOxuIROIVre4qSRXuqQWFuWrjEmg2e94
J62YuOHfyYBVMiBJW0F79bL25yxHLtwWydtquckW+OlkAnRSSF40K1y+yYuPY82h
ET2T45CvAxGI4jpfcXDxQVKtE83Tld7pugl7ZkFfh2pmJIlCcCaVvhRG/vvAaJzK
dTwXsuzBUkEAhUplP/F4NWR6joW9Q/Q4ydy+4RtGLCg=
-----END CERTIFICATE-----
