Certificate:
    Data:
        Version: 3 (0x2)
        Serial Number: 1281 (0x501)
    Signature Algorithm: md5WithRSAEncryption
        Issuer: C=US, ST=OH, L=Columbus, O=VikingVPN, OU=MyOrganizationalUnit, CN=VikingVPN CA/name=EasyRSA/emailAddress=me@myhost.mydomain
        Validity
            Not Before: Mar 12 12:27:55 2014 GMT
            Not After : Mar  9 12:27:55 2024 GMT
        Subject: CN=Client471Cert3ad744
        Subject Public Key Info:
            Public Key Algorithm: rsaEncryption
                Public-Key: (4096 bit)
                Modulus:
                    00:c8:f3:95:45:ce:04:74:3a:71:73:29:dd:50:fc:
                    81:68:8d:62:40:91:db:77:96:0e:f2:4a:32:da:39:
                    e1:41:52:dd:c1:0b:5a:a3:6d:d4:45:6a:fb:d8:af:
                    f7:7c:95:78:ee:63:aa:8d:33:36:66:c6:43:69:e6:
                    7f:40:1d:06:f0:24:c8:1c:10:c2:1f:80:01:ae:96:
                    d6:40:60:91:f6:7c:5e:91:58:ca:28:8f:68:38:de:
                    b4:9e:2d:1d:65:b0:57:61:fb:c0:91:15:0f:61:1a:
                    e6:a8:73:0a:1d:ff:99:c7:11:a9:af:17:9a:a6:09:
                    1b:81:ea:65:e0:18:c6:51:ca:df:cd:20:8e:e7:ff:
                    c2:35:4e:d4:e3:82:2a:57:3b:48:e6:f5:12:1e:a0:
                    1c:ca:65:47:ea:d5:93:c2:c9:80:9f:5d:ca:2c:5c:
                    02:1c:72:8f:3b:ce:a0:72:43:5f:b2:6c:55:2c:7c:
                    6b:dd:02:8b:cf:d8:e4:36:64:af:f5:f4:cd:e5:af:
                    81:bf:d0:88:bc:72:76:bc:51:bf:cd:09:05:11:04:
                    ca:d5:a5:c8:b4:53:74:0f:de:05:e3:1e:62:bc:f4:
                    87:83:3d:6c:40:5e:f9:54:1d:09:b4:68:2a:bc:5c:
                    e7:7c:61:f4:1d:6a:b5:21:a0:87:3e:01:97:64:2b:
                    b6:32:1e:cc:21:b7:76:8d:a7:32:57:b0:02:95:d3:
                    fa:97:52:ab:27:10:0a:8e:2e:a4:35:0f:59:04:aa:
                    34:c3:6e:18:8e:9b:26:52:a0:12:c2:e2:f2:56:8f:
                    ec:bb:4d:60:cd:6f:87:d0:7e:23:77:4b:94:39:4f:
                    cf:42:8a:34:9c:89:ea:9a:05:9d:38:6c:b6:20:72:
                    ac:81:3c:55:38:8c:db:4b:dc:64:28:40:b0:d9:44:
                    e5:2a:0c:3c:a8:d4:35:e5:10:e6:2e:cd:03:34:b3:
                    91:e3:b5:04:94:65:ce:f8:c3:99:03:c2:b4:84:7c:
                    eb:45:01:0a:dc:98:1b:27:fd:1e:ba:55:6d:c7:cc:
                    69:94:35:dc:19:53:48:ee:4c:fe:be:ec:8b:6a:6a:
                    9a:db:85:a5:09:c5:7a:d9:f3:ac:ee:d8:3c:b2:76:
                    ab:95:b3:a5:7e:2a:ef:8f:92:58:17:04:8d:a3:22:
                    35:ce:b9:4f:e7:4e:e8:e5:35:b7:fa:2a:ef:7a:04:
                    04:4f:1e:0f:67:a5:40:6a:55:ec:64:e1:3d:97:bc:
                    17:2f:84:52:fe:8e:db:1d:f7:89:3b:31:7e:f8:0a:
                    cb:64:80:09:ed:6f:84:26:ee:fb:86:db:d8:d1:50:
                    7b:fc:6a:4d:40:13:6b:a1:a1:f6:e6:a1:89:67:52:
                    c9:fa:1f
                Exponent: 65537 (0x10001)
        X509v3 extensions:
            X509v3 Basic Constraints: 
                CA:FALSE
            Netscape Comment: 
                Easy-RSA Generated Certificate
            X509v3 Subject Key Identifier: 
                FB:EE:2D:1C:AF:4B:DA:22:A2:2B:AD:CA:E4:A7:B8:A6:3A:A0:F4:47
            X509v3 Authority Key Identifier: 
                keyid:12:CD:60:04:D2:A0:80:9E:70:ED:C6:99:B8:7B:2C:C6:52:FD:19:A1
                DirName:/C=US/ST=OH/L=Columbus/O=VikingVPN/OU=MyOrganizationalUnit/CN=VikingVPN CA/name=EasyRSA/emailAddress=me@myhost.mydomain
                serial:CF:35:85:EE:80:BF:2A:3E

            X509v3 Extended Key Usage: 
                TLS Web Client Authentication
            X509v3 Key Usage: 
                Digital Signature
    Signature Algorithm: md5WithRSAEncryption
         41:23:72:ef:9c:73:a6:2d:45:68:83:dd:69:94:ae:0c:e1:38:
         44:f2:4a:10:45:8a:6d:b0:53:1a:3d:81:a8:a6:a5:5b:db:17:
         f2:46:00:7e:d8:1b:44:b3:83:6b:2b:a1:f6:fa:c2:64:7e:c7:
         8c:36:b1:3e:f8:a2:a0:a3:fe:fd:3e:e1:16:2b:5d:8d:9b:78:
         d7:b2:ec:63:8c:94:40:dd:c2:69:bd:f7:5e:51:53:e6:84:c5:
         a7:83:27:ba:c8:e6:29:ab:01:37:da:71:3c:33:ad:a8:b4:df:
         0f:c5:92:b3:22:e1:fb:ef:b2:6d:68:4d:5b:a3:87:02:aa:f6:
         a6:5b:8f:d5:76:ac:a7:53:93:dc:65:0d:30:b2:c1:05:52:27:
         90:b0:b8:b8:48:60:a5:e8:26:60:0a:2e:15:23:23:56:a0:76:
         de:a6:d5:e2:a7:21:99:b5:b5:0f:9d:29:d1:a1:99:35:b9:a7:
         08:fc:ce:1f:3f:bd:ab:c0:7f:39:66:8a:da:c6:85:e1:21:20:
         3d:f3:cd:d5:c3:dd:ca:f1:5b:b0:33:92:5b:d4:9f:56:a5:cd:
         60:59:d7:ed:6d:34:b8:67:a7:34:dc:64:00:a9:ea:f0:f7:b4:
         f9:c0:d7:93:18:e2:6d:4c:c3:09:57:b7:b8:af:e0:db:63:6a:
         d6:45:02:f5:c8:5a:b5:90:fa:c0:4d:69:ae:48:5d:4e:69:ee:
         0e:0b:61:ee:2d:8d:95:d4:2d:9b:cc:b0:02:1a:47:d7:c3:66:
         b3:d7:a7:88:d0:be:14:fe:21:36:52:ca:dc:47:98:61:ca:de:
         ce:11:94:60:5c:ce:b7:35:49:dd:a6:66:ac:a9:05:16:d6:19:
         0a:4c:e1:d2:d2:d0:01:99:25:36:f7:fe:a8:98:0c:fc:1b:c8:
         70:01:24:c8:bd:3d:e4:78:f6:a4:0a:d2:f3:76:04:03:04:b4:
         7a:bb:0b:3a:50:0c:f2:d6:04:cc:2c:eb:79:5e:04:8d:8c:e8:
         60:f8:76:48:5a:c8:ef:33:05:6f:92:b7:6e:d5:1a:ee:a0:10:
         ea:5c:f5:7c:a9:05:01:6a:4b:4b:5c:28:1b:ca:de:94:f1:31:
         73:b3:3f:07:39:a9:20:07:a8:de:13:36:d7:ed:ac:07:2e:ca:
         80:b2:78:40:98:6c:56:80:de:f9:e2:20:ac:12:58:3b:97:29:
         97:ca:78:50:14:46:53:cf:fd:2b:52:20:b2:be:83:ef:43:b5:
         60:7e:8a:03:ee:2c:38:1a:d8:2f:53:b3:fa:c5:09:3b:25:a3:
         53:39:be:f7:1a:94:89:fe:0f:56:36:de:6e:f4:09:10:bb:66:
         16:39:70:8f:e2:f7:1e:d9
-----BEGIN CERTIFICATE-----
MIIGrDCCBJSgAwIBAgICBQEwDQYJKoZIhvcNAQEEBQAwgawxCzAJBgNVBAYTAlVT
MQswCQYDVQQIEwJPSDERMA8GA1UEBxMIQ29sdW1idXMxEjAQBgNVBAoTCVZpa2lu
Z1ZQTjEdMBsGA1UECxMUTXlPcmdhbml6YXRpb25hbFVuaXQxFTATBgNVBAMTDFZp
a2luZ1ZQTiBDQTEQMA4GA1UEKRMHRWFzeVJTQTEhMB8GCSqGSIb3DQEJARYSbWVA
bXlob3N0Lm15ZG9tYWluMB4XDTE0MDMxMjEyMjc1NVoXDTI0MDMwOTEyMjc1NVow
HjEcMBoGA1UEAxMTQ2xpZW50NDcxQ2VydDNhZDc0NDCCAiIwDQYJKoZIhvcNAQEB
BQADggIPADCCAgoCggIBAMjzlUXOBHQ6cXMp3VD8gWiNYkCR23eWDvJKMto54UFS
3cELWqNt1EVq+9iv93yVeO5jqo0zNmbGQ2nmf0AdBvAkyBwQwh+AAa6W1kBgkfZ8
XpFYyiiPaDjetJ4tHWWwV2H7wJEVD2Ea5qhzCh3/mccRqa8XmqYJG4HqZeAYxlHK
380gjuf/wjVO1OOCKlc7SOb1Eh6gHMplR+rVk8LJgJ9dyixcAhxyjzvOoHJDX7Js
VSx8a90Ci8/Y5DZkr/X0zeWvgb/QiLxydrxRv80JBREEytWlyLRTdA/eBeMeYrz0
h4M9bEBe+VQdCbRoKrxc53xh9B1qtSGghz4Bl2QrtjIezCG3do2nMlewApXT+pdS
qycQCo4upDUPWQSqNMNuGI6bJlKgEsLi8laP7LtNYM1vh9B+I3dLlDlPz0KKNJyJ
6poFnThstiByrIE8VTiM20vcZChAsNlE5SoMPKjUNeUQ5i7NAzSzkeO1BJRlzvjD
mQPCtIR860UBCtyYGyf9HrpVbcfMaZQ13BlTSO5M/r7si2pqmtuFpQnFetnzrO7Y
PLJ2q5WzpX4q74+SWBcEjaMiNc65T+dO6OU1t/oq73oEBE8eD2elQGpV7GThPZe8
Fy+EUv6O2x33iTsxfvgKy2SACe1vhCbu+4bb2NFQe/xqTUATa6Gh9uahiWdSyfof
AgMBAAGjggFjMIIBXzAJBgNVHRMEAjAAMC0GCWCGSAGG+EIBDQQgFh5FYXN5LVJT
QSBHZW5lcmF0ZWQgQ2VydGlmaWNhdGUwHQYDVR0OBBYEFPvuLRyvS9oioiutyuSn
uKY6oPRHMIHhBgNVHSMEgdkwgdaAFBLNYATSoICecO3Gmbh7LMZS/RmhoYGypIGv
MIGsMQswCQYDVQQGEwJVUzELMAkGA1UECBMCT0gxETAPBgNVBAcTCENvbHVtYnVz
MRIwEAYDVQQKEwlWaWtpbmdWUE4xHTAbBgNVBAsTFE15T3JnYW5pemF0aW9uYWxV
bml0MRUwEwYDVQQDEwxWaWtpbmdWUE4gQ0ExEDAOBgNVBCkTB0Vhc3lSU0ExITAf
BgkqhkiG9w0BCQEWEm1lQG15aG9zdC5teWRvbWFpboIJAM81he6Avyo+MBMGA1Ud
JQQMMAoGCCsGAQUFBwMCMAsGA1UdDwQEAwIHgDANBgkqhkiG9w0BAQQFAAOCAgEA
QSNy75xzpi1FaIPdaZSuDOE4RPJKEEWKbbBTGj2BqKalW9sX8kYAftgbRLODayuh
9vrCZH7HjDaxPviioKP+/T7hFitdjZt417LsY4yUQN3Cab33XlFT5oTFp4Mnusjm
KasBN9pxPDOtqLTfD8WSsyLh+++ybWhNW6OHAqr2pluP1Xasp1OT3GUNMLLBBVIn
kLC4uEhgpegmYAouFSMjVqB23qbV4qchmbW1D50p0aGZNbmnCPzOHz+9q8B/OWaK
2saF4SEgPfPN1cPdyvFbsDOSW9SfVqXNYFnX7W00uGenNNxkAKnq8Pe0+cDXkxji
bUzDCVe3uK/g22Nq1kUC9chatZD6wE1prkhdTmnuDgth7i2NldQtm8ywAhpH18Nm
s9eniNC+FP4hNlLK3EeYYcrezhGUYFzOtzVJ3aZmrKkFFtYZCkzh0tLQAZklNvf+
qJgM/BvIcAEkyL095Hj2pArS83YEAwS0ersLOlAM8tYEzCzreV4EjYzoYPh2SFrI
7zMFb5K3btUa7qAQ6lz1fKkFAWpLS1woG8relPExc7M/BzmpIAeo3hM21+2sBy7K
gLJ4QJhsVoDe+eIgrBJYO5cpl8p4UBRGU8/9K1Igsr6D70O1YH6KA+4sOBrYL1Oz
+sUJOyWjUzm+9xqUif4PVjbebvQJELtmFjlwj+L3Htk=
-----END CERTIFICATE-----
