Certificate:
    Data:
        Version: 3 (0x2)
        Serial Number: 1285 (0x505)
    Signature Algorithm: md5WithRSAEncryption
        Issuer: C=US, ST=OH, L=Columbus, O=VikingVPN, OU=MyOrganizationalUnit, CN=VikingVPN CA/name=EasyRSA/emailAddress=me@myhost.mydomain
        Validity
            Not Before: Mar 13 04:21:49 2014 GMT
            Not After : Mar 10 04:21:49 2024 GMT
        Subject: CN=Client472Cert199876
        Subject Public Key Info:
            Public Key Algorithm: rsaEncryption
                Public-Key: (4096 bit)
                Modulus:
                    00:9b:d0:6f:21:df:cc:fa:86:7d:48:ed:a9:42:4c:
                    02:c3:8f:e5:33:9b:8a:b1:26:8e:40:5c:75:02:62:
                    2e:27:6d:70:92:65:a3:ef:d1:7a:95:02:4d:31:5f:
                    a3:63:81:91:fe:29:10:8f:00:66:46:de:48:4a:cb:
                    72:4d:e1:7c:b7:bb:58:3f:a0:be:fb:13:bf:d2:4d:
                    ea:e9:9d:58:f0:54:18:2b:28:fe:65:b6:96:bf:63:
                    cf:85:93:47:37:1e:5a:c7:37:cb:5d:94:56:94:99:
                    87:91:60:3b:65:f8:18:63:2c:64:4b:af:b4:fd:ec:
                    ab:36:fb:c4:87:c5:80:84:b7:cc:94:bc:2e:f6:28:
                    7e:4c:ad:94:9b:4f:e1:2e:1c:ec:58:66:2a:28:bc:
                    7e:c5:d5:67:23:93:9a:a2:fb:28:d9:2e:56:c8:8a:
                    35:90:f2:dd:6d:84:0e:00:dd:27:44:15:67:e7:99:
                    1e:cd:6b:c0:70:8b:08:cd:2d:81:ac:be:d9:10:e3:
                    ea:e3:f0:a8:85:f7:e2:3b:bb:ce:64:8a:65:9f:a5:
                    08:79:1e:4a:ec:49:1b:c4:aa:ec:1f:e4:84:0b:e1:
                    9b:4c:9d:4d:e1:44:9b:48:d6:d8:71:b6:f9:df:4e:
                    ba:04:aa:20:9e:ac:ff:d1:76:3f:f4:25:e9:a7:e6:
                    d7:b3:6a:dd:90:99:4d:58:11:a5:3e:6d:72:e2:b6:
                    6f:af:d9:05:72:6f:7b:9a:83:7d:b5:68:4b:45:f0:
                    71:31:03:a8:60:73:5d:ac:f5:35:ed:9a:fb:c4:ae:
                    28:81:28:01:cc:ef:60:ab:d1:fe:30:f6:d7:a3:d6:
                    8e:c1:08:82:6e:4a:cb:c8:23:ca:61:e4:ef:4b:e0:
                    a8:29:7b:1a:55:d2:e1:dd:22:98:49:15:a6:84:60:
                    05:8e:93:d3:3f:2c:b0:38:30:29:e7:9b:22:da:0c:
                    6d:bc:d9:5a:e5:5c:4c:5f:22:89:c6:17:3e:f0:10:
                    ca:ca:6b:45:b1:4f:8c:2a:18:8e:ba:cd:4c:a3:cb:
                    13:b6:62:f4:62:52:57:e8:97:ca:65:ca:ea:cf:b5:
                    af:b9:05:83:1c:16:e8:e5:dd:31:67:6c:ab:51:e5:
                    9d:e3:d9:d4:a5:63:b9:a7:64:17:43:9f:ec:6e:2d:
                    4e:31:dc:56:53:4b:ea:48:d0:7f:10:f9:e1:36:d7:
                    a4:d4:0f:a7:49:01:a9:9a:a3:5c:9c:f5:71:88:9a:
                    c6:39:b0:d4:fc:35:f4:b3:0f:04:58:62:f5:b4:7e:
                    a5:a1:42:3e:10:39:29:8e:41:91:da:aa:61:8d:9d:
                    d5:44:f3:0e:27:a9:ac:5e:2c:14:41:ba:16:7a:5e:
                    ef:fa:19
                Exponent: 65537 (0x10001)
        X509v3 extensions:
            X509v3 Basic Constraints: 
                CA:FALSE
            Netscape Comment: 
                Easy-RSA Generated Certificate
            X509v3 Subject Key Identifier: 
                17:7D:05:E1:84:6A:A3:BD:42:B4:F2:D9:79:D3:76:5B:C5:E7:21:7C
            X509v3 Authority Key Identifier: 
                keyid:12:CD:60:04:D2:A0:80:9E:70:ED:C6:99:B8:7B:2C:C6:52:FD:19:A1
                DirName:/C=US/ST=OH/L=Columbus/O=VikingVPN/OU=MyOrganizationalUnit/CN=VikingVPN CA/name=EasyRSA/emailAddress=me@myhost.mydomain
                serial:CF:35:85:EE:80:BF:2A:3E

            X509v3 Extended Key Usage: 
                TLS Web Client Authentication
            X509v3 Key Usage: 
                Digital Signature
    Signature Algorithm: md5WithRSAEncryption
         02:ca:74:78:90:34:6b:ee:96:3a:06:66:64:95:29:4c:fb:64:
         d9:1a:5a:52:b6:09:e0:33:f3:04:8d:8c:11:d8:3a:99:28:f0:
         a9:98:b4:8d:6e:6c:fd:90:f3:a0:51:10:67:f5:7a:68:1d:7f:
         0b:26:b5:2e:4f:53:5c:6c:43:2e:d5:76:30:01:09:f4:51:ef:
         7d:af:07:08:8b:33:ec:6c:f5:bb:41:b8:15:eb:bf:af:8e:27:
         46:c7:f9:81:ca:05:c4:83:d9:16:ee:b3:86:d1:08:2b:a5:60:
         71:00:80:f7:d3:56:12:42:10:74:f1:3c:90:6d:78:9b:cc:b0:
         24:68:c3:43:81:45:3d:db:f8:50:b3:0d:10:07:5a:75:cb:e6:
         dd:e5:a1:a0:fa:31:dd:a2:77:43:8d:19:05:4e:cb:6e:79:e9:
         8b:de:f4:d6:0f:80:7e:bf:5a:da:56:c7:28:73:f5:99:89:fa:
         98:c5:c4:c1:ad:af:6a:5f:5a:db:06:f9:27:a5:28:aa:ef:eb:
         ec:43:9d:01:50:6d:b0:b2:de:4d:d5:42:9b:a1:89:d2:58:09:
         50:54:e1:cb:28:37:68:7c:38:4d:f3:26:40:13:9a:a7:c7:21:
         86:40:2d:cc:e8:5f:e1:32:2f:62:15:ee:96:4a:d9:76:0d:dd:
         35:cd:ea:3f:96:07:6b:95:69:9d:ad:b2:8b:79:7f:bf:f1:b3:
         a0:f1:40:c8:d3:76:86:7c:53:6b:80:52:10:3a:30:7e:ae:c2:
         d7:2a:ad:35:d4:28:22:92:05:27:4d:39:26:d1:00:37:05:04:
         6c:70:6c:40:b6:7c:0c:b5:28:39:90:6f:1c:37:d1:8a:e1:fe:
         17:b3:48:cf:b3:6d:a7:8e:b8:c7:97:47:df:a4:39:e0:e5:59:
         ca:24:bd:62:7d:f9:0f:78:4f:96:ac:59:c5:a6:b7:d3:7c:e5:
         ae:50:c1:84:c0:0a:df:ba:aa:c0:af:23:58:26:fc:c3:70:93:
         43:62:91:6b:e6:e4:04:a3:69:56:bc:07:ce:7a:38:98:fd:1a:
         77:03:28:d8:aa:be:44:9e:b9:ef:b7:87:ee:ab:e6:a3:90:ec:
         df:8c:12:40:cc:91:dc:29:27:79:34:d4:2f:72:4d:54:72:a1:
         fa:5b:64:e0:36:ad:72:35:65:e4:13:e9:93:36:26:36:2f:88:
         6d:d1:14:13:c8:aa:d1:b0:8d:a9:92:36:b0:8f:1c:2e:7c:81:
         fb:0f:c5:cb:ee:8c:36:cd:db:8f:ca:f3:f6:e5:8c:48:c7:57:
         8d:05:40:a8:b5:84:09:37:43:f5:95:da:2d:c9:72:bd:82:2e:
         16:ab:89:34:c6:8c:ab:d2
-----BEGIN CERTIFICATE-----
MIIGrDCCBJSgAwIBAgICBQUwDQYJKoZIhvcNAQEEBQAwgawxCzAJBgNVBAYTAlVT
MQswCQYDVQQIEwJPSDERMA8GA1UEBxMIQ29sdW1idXMxEjAQBgNVBAoTCVZpa2lu
Z1ZQTjEdMBsGA1UECxMUTXlPcmdhbml6YXRpb25hbFVuaXQxFTATBgNVBAMTDFZp
a2luZ1ZQTiBDQTEQMA4GA1UEKRMHRWFzeVJTQTEhMB8GCSqGSIb3DQEJARYSbWVA
bXlob3N0Lm15ZG9tYWluMB4XDTE0MDMxMzA0MjE0OVoXDTI0MDMxMDA0MjE0OVow
HjEcMBoGA1UEAxMTQ2xpZW50NDcyQ2VydDE5OTg3NjCCAiIwDQYJKoZIhvcNAQEB
BQADggIPADCCAgoCggIBAJvQbyHfzPqGfUjtqUJMAsOP5TObirEmjkBcdQJiLidt
cJJlo+/RepUCTTFfo2OBkf4pEI8AZkbeSErLck3hfLe7WD+gvvsTv9JN6umdWPBU
GCso/mW2lr9jz4WTRzceWsc3y12UVpSZh5FgO2X4GGMsZEuvtP3sqzb7xIfFgIS3
zJS8LvYofkytlJtP4S4c7FhmKii8fsXVZyOTmqL7KNkuVsiKNZDy3W2EDgDdJ0QV
Z+eZHs1rwHCLCM0tgay+2RDj6uPwqIX34ju7zmSKZZ+lCHkeSuxJG8Sq7B/khAvh
m0ydTeFEm0jW2HG2+d9OugSqIJ6s/9F2P/Ql6afm17Nq3ZCZTVgRpT5tcuK2b6/Z
BXJve5qDfbVoS0XwcTEDqGBzXaz1Ne2a+8SuKIEoAczvYKvR/jD216PWjsEIgm5K
y8gjymHk70vgqCl7GlXS4d0imEkVpoRgBY6T0z8ssDgwKeebItoMbbzZWuVcTF8i
icYXPvAQysprRbFPjCoYjrrNTKPLE7Zi9GJSV+iXymXK6s+1r7kFgxwW6OXdMWds
q1HlnePZ1KVjuadkF0Of7G4tTjHcVlNL6kjQfxD54TbXpNQPp0kBqZqjXJz1cYia
xjmw1Pw19LMPBFhi9bR+paFCPhA5KY5BkdqqYY2d1UTzDieprF4sFEG6Fnpe7/oZ
AgMBAAGjggFjMIIBXzAJBgNVHRMEAjAAMC0GCWCGSAGG+EIBDQQgFh5FYXN5LVJT
QSBHZW5lcmF0ZWQgQ2VydGlmaWNhdGUwHQYDVR0OBBYEFBd9BeGEaqO9QrTy2XnT
dlvF5yF8MIHhBgNVHSMEgdkwgdaAFBLNYATSoICecO3Gmbh7LMZS/RmhoYGypIGv
MIGsMQswCQYDVQQGEwJVUzELMAkGA1UECBMCT0gxETAPBgNVBAcTCENvbHVtYnVz
MRIwEAYDVQQKEwlWaWtpbmdWUE4xHTAbBgNVBAsTFE15T3JnYW5pemF0aW9uYWxV
bml0MRUwEwYDVQQDEwxWaWtpbmdWUE4gQ0ExEDAOBgNVBCkTB0Vhc3lSU0ExITAf
BgkqhkiG9w0BCQEWEm1lQG15aG9zdC5teWRvbWFpboIJAM81he6Avyo+MBMGA1Ud
JQQMMAoGCCsGAQUFBwMCMAsGA1UdDwQEAwIHgDANBgkqhkiG9w0BAQQFAAOCAgEA
Asp0eJA0a+6WOgZmZJUpTPtk2RpaUrYJ4DPzBI2MEdg6mSjwqZi0jW5s/ZDzoFEQ
Z/V6aB1/Cya1Lk9TXGxDLtV2MAEJ9FHvfa8HCIsz7Gz1u0G4Feu/r44nRsf5gcoF
xIPZFu6zhtEIK6VgcQCA99NWEkIQdPE8kG14m8ywJGjDQ4FFPdv4ULMNEAdadcvm
3eWhoPox3aJ3Q40ZBU7Lbnnpi9701g+Afr9a2lbHKHP1mYn6mMXEwa2val9a2wb5
J6Uoqu/r7EOdAVBtsLLeTdVCm6GJ0lgJUFThyyg3aHw4TfMmQBOap8chhkAtzOhf
4TIvYhXulkrZdg3dNc3qP5YHa5Vpna2yi3l/v/GzoPFAyNN2hnxTa4BSEDowfq7C
1yqtNdQoIpIFJ005JtEANwUEbHBsQLZ8DLUoOZBvHDfRiuH+F7NIz7Ntp464x5dH
36Q54OVZyiS9Yn35D3hPlqxZxaa303zlrlDBhMAK37qqwK8jWCb8w3CTQ2KRa+bk
BKNpVrwHzno4mP0adwMo2Kq+RJ6577eH7qvmo5Ds34wSQMyR3CkneTTUL3JNVHKh
+ltk4DatcjVl5BPpkzYmNi+IbdEUE8iq0bCNqZI2sI8cLnyB+w/Fy+6MNs3bj8rz
9uWMSMdXjQVAqLWECTdD9ZXaLclyvYIuFquJNMaMq9I=
-----END CERTIFICATE-----
