Certificate:
    Data:
        Version: 3 (0x2)
        Serial Number: 1289 (0x509)
    Signature Algorithm: md5WithRSAEncryption
        Issuer: C=US, ST=OH, L=Columbus, O=VikingVPN, OU=MyOrganizationalUnit, CN=VikingVPN CA/name=EasyRSA/emailAddress=me@myhost.mydomain
        Validity
            Not Before: Mar 13 09:05:06 2014 GMT
            Not After : Mar 10 09:05:06 2024 GMT
        Subject: CN=Client477Certc37c3b
        Subject Public Key Info:
            Public Key Algorithm: rsaEncryption
                Public-Key: (4096 bit)
                Modulus:
                    00:cc:aa:b0:b5:a7:3e:ed:2d:e5:0b:4f:71:d3:73:
                    40:d8:4a:1c:8e:d3:8b:8b:42:e2:20:88:e7:c3:b2:
                    63:4a:5a:0d:66:ce:e7:c1:75:65:35:fa:57:5b:72:
                    42:14:58:d5:6b:29:43:bf:48:35:9c:36:ff:9e:4b:
                    bb:71:53:e3:bc:b8:d9:bb:87:61:5b:35:40:c1:f3:
                    bb:6a:72:15:78:20:7c:f6:8a:c3:75:f9:15:b0:ed:
                    a0:98:99:9f:65:48:1c:9c:93:86:8b:c9:23:db:43:
                    da:8e:1d:c0:22:c5:04:c3:20:e6:25:e6:70:76:9a:
                    80:26:1e:6a:1d:c6:e5:72:08:4a:15:82:8f:ee:ca:
                    ec:93:e3:6f:e8:b7:ca:de:3b:90:8c:d0:97:d0:d8:
                    d4:c6:49:73:10:f8:4c:3e:43:b5:96:f4:1c:e2:4a:
                    d3:21:8a:7d:c9:3e:95:00:89:9b:da:b4:d7:87:7e:
                    d9:a4:44:c4:de:2f:23:5b:93:bb:8f:09:fa:ac:87:
                    53:73:2d:fd:bb:de:3b:79:56:cb:94:af:f6:60:8c:
                    22:bc:e3:77:9b:84:7d:0d:3a:3d:a6:24:d6:29:a0:
                    9d:00:d8:15:2e:60:30:bb:25:a4:e8:f0:36:a7:f5:
                    42:dc:42:cc:e3:60:b2:ac:2a:3b:f2:d9:88:83:91:
                    04:06:4d:43:47:69:5b:8d:36:53:43:6d:0b:d1:5b:
                    9a:ad:ed:d9:3e:58:dd:37:3d:da:00:db:bc:a5:ce:
                    9b:aa:30:11:36:69:53:8e:de:f7:1c:19:c9:9e:28:
                    9e:d2:f1:e4:a2:3e:a9:dc:9e:47:59:21:72:e5:58:
                    d9:c7:b3:eb:37:09:7d:68:65:0b:69:56:3d:76:8f:
                    33:16:05:fd:44:d9:6e:a9:b5:7f:94:a1:ff:ca:eb:
                    08:e2:06:41:6e:a4:a3:94:12:af:86:4e:a6:32:4b:
                    e5:29:dc:71:67:47:0b:21:c5:fe:7f:5a:4d:72:93:
                    88:2a:8a:16:8d:1c:2a:64:1b:76:7c:18:a3:81:af:
                    c5:da:b3:65:c3:f8:8a:d0:3f:c9:e4:11:e4:44:92:
                    97:64:36:0e:46:13:2a:bc:4e:63:d2:b8:50:3a:fc:
                    70:35:04:d4:c1:4a:38:87:01:83:61:d1:94:30:aa:
                    f6:d7:a2:a2:5e:ee:33:2c:e8:61:42:ac:54:00:db:
                    be:91:22:6e:9e:bd:4a:d1:71:91:69:89:bf:da:33:
                    48:1a:2d:1e:91:42:26:f7:f5:a1:ad:92:a1:30:1e:
                    e8:87:37:66:58:fa:b3:54:dd:7c:32:0c:a6:db:24:
                    b7:72:0f:9c:27:e2:77:7a:c5:94:d8:59:98:45:57:
                    72:ad:91
                Exponent: 65537 (0x10001)
        X509v3 extensions:
            X509v3 Basic Constraints: 
                CA:FALSE
            Netscape Comment: 
                Easy-RSA Generated Certificate
            X509v3 Subject Key Identifier: 
                7B:66:5A:F2:6D:4B:47:EC:E7:54:5A:F1:01:8B:61:D1:FA:D7:CC:5D
            X509v3 Authority Key Identifier: 
                keyid:12:CD:60:04:D2:A0:80:9E:70:ED:C6:99:B8:7B:2C:C6:52:FD:19:A1
                DirName:/C=US/ST=OH/L=Columbus/O=VikingVPN/OU=MyOrganizationalUnit/CN=VikingVPN CA/name=EasyRSA/emailAddress=me@myhost.mydomain
                serial:CF:35:85:EE:80:BF:2A:3E

            X509v3 Extended Key Usage: 
                TLS Web Client Authentication
            X509v3 Key Usage: 
                Digital Signature
    Signature Algorithm: md5WithRSAEncryption
         e1:f9:70:7c:41:55:a6:f2:a3:12:aa:9d:7b:60:47:68:f3:ff:
         d5:fb:ac:e0:ff:24:50:26:1a:e6:00:57:ff:57:ef:e1:37:f3:
         b4:6b:d4:ba:17:31:fb:69:79:52:3e:21:c5:83:a1:a0:b3:bf:
         f4:f9:73:bd:96:63:70:47:22:83:f9:09:ec:16:1f:1f:f7:db:
         f2:14:25:89:d4:f5:61:61:34:54:84:05:66:0e:a5:8a:3d:09:
         6a:33:e1:55:9e:dc:bd:a6:0a:02:de:8d:36:57:1e:43:66:04:
         3f:2c:a2:29:20:3a:0c:6a:5e:30:9a:5f:55:24:0c:21:1c:a1:
         b0:6f:a8:01:97:3d:30:07:c4:79:ec:17:0b:ac:ae:80:75:28:
         67:02:a0:87:90:30:e6:35:60:41:44:6d:bd:c8:7f:49:80:88:
         35:19:73:60:e4:f0:36:30:df:32:8d:c3:a9:62:ac:45:b3:de:
         68:bc:b9:76:0e:b6:7f:8d:85:03:a4:10:10:99:b3:e8:e5:1a:
         29:df:15:3e:71:6b:c9:20:63:83:1b:ff:c9:6e:fe:2b:7f:fb:
         f7:e9:1b:6d:f6:a6:9e:ab:9c:a7:89:64:dc:8b:42:d5:fe:bb:
         78:1d:6c:31:e0:66:8b:cd:72:59:63:23:b3:05:19:be:f5:07:
         66:7d:35:35:6c:a0:33:1e:7d:56:cc:73:52:91:6f:1b:9e:fe:
         09:28:98:72:8a:50:c3:9e:6f:7d:80:8d:37:cd:20:d5:67:99:
         42:01:73:05:5f:a8:33:28:af:bb:4e:65:01:48:dd:45:0c:79:
         8f:ce:e3:ef:92:b3:3a:4c:f6:70:57:d4:2e:49:41:5e:8f:23:
         e1:69:15:8a:5f:4c:58:ce:30:d2:68:1b:ec:80:a0:46:a3:a0:
         7a:35:4e:6b:09:82:13:5f:ad:f0:99:64:a8:1f:09:f3:b2:90:
         95:e2:a3:d9:21:4a:1e:79:4b:1a:41:b3:33:0d:41:57:73:8a:
         d0:1f:3a:0e:25:3d:68:e3:7f:ed:53:a2:d6:e0:33:5e:c6:11:
         0c:33:85:53:58:b4:51:f8:c0:c3:95:3b:04:7f:8f:60:09:fb:
         1a:ea:b8:7e:4f:8a:ca:06:e6:1f:b3:c6:31:d2:37:ac:19:bd:
         5e:bf:12:b6:8a:df:11:d4:9a:e2:b7:6e:21:32:23:2a:dc:07:
         f5:c5:07:f4:f4:9d:2f:4e:c7:d3:2a:74:d6:d2:82:e8:8c:6d:
         94:03:c2:98:95:f9:ce:ad:0f:8e:8c:3c:f0:ae:63:c8:01:4b:
         f1:7a:68:d5:13:e0:be:79:7f:70:19:7e:ad:b3:ae:f6:8c:0d:
         cb:97:75:53:1d:06:43:0d
-----BEGIN CERTIFICATE-----
MIIGrDCCBJSgAwIBAgICBQkwDQYJKoZIhvcNAQEEBQAwgawxCzAJBgNVBAYTAlVT
MQswCQYDVQQIEwJPSDERMA8GA1UEBxMIQ29sdW1idXMxEjAQBgNVBAoTCVZpa2lu
Z1ZQTjEdMBsGA1UECxMUTXlPcmdhbml6YXRpb25hbFVuaXQxFTATBgNVBAMTDFZp
a2luZ1ZQTiBDQTEQMA4GA1UEKRMHRWFzeVJTQTEhMB8GCSqGSIb3DQEJARYSbWVA
bXlob3N0Lm15ZG9tYWluMB4XDTE0MDMxMzA5MDUwNloXDTI0MDMxMDA5MDUwNlow
HjEcMBoGA1UEAxMTQ2xpZW50NDc3Q2VydGMzN2MzYjCCAiIwDQYJKoZIhvcNAQEB
BQADggIPADCCAgoCggIBAMyqsLWnPu0t5QtPcdNzQNhKHI7Ti4tC4iCI58OyY0pa
DWbO58F1ZTX6V1tyQhRY1WspQ79INZw2/55Lu3FT47y42buHYVs1QMHzu2pyFXgg
fPaKw3X5FbDtoJiZn2VIHJyThovJI9tD2o4dwCLFBMMg5iXmcHaagCYeah3G5XII
ShWCj+7K7JPjb+i3yt47kIzQl9DY1MZJcxD4TD5DtZb0HOJK0yGKfck+lQCJm9q0
14d+2aRExN4vI1uTu48J+qyHU3Mt/bveO3lWy5Sv9mCMIrzjd5uEfQ06PaYk1img
nQDYFS5gMLslpOjwNqf1QtxCzONgsqwqO/LZiIORBAZNQ0dpW402U0NtC9Fbmq3t
2T5Y3Tc92gDbvKXOm6owETZpU47e9xwZyZ4ontLx5KI+qdyeR1khcuVY2cez6zcJ
fWhlC2lWPXaPMxYF/UTZbqm1f5Sh/8rrCOIGQW6ko5QSr4ZOpjJL5SnccWdHCyHF
/n9aTXKTiCqKFo0cKmQbdnwYo4GvxdqzZcP4itA/yeQR5ESSl2Q2DkYTKrxOY9K4
UDr8cDUE1MFKOIcBg2HRlDCq9teiol7uMyzoYUKsVADbvpEibp69StFxkWmJv9oz
SBotHpFCJvf1oa2SoTAe6Ic3Zlj6s1TdfDIMptskt3IPnCfid3rFlNhZmEVXcq2R
AgMBAAGjggFjMIIBXzAJBgNVHRMEAjAAMC0GCWCGSAGG+EIBDQQgFh5FYXN5LVJT
QSBHZW5lcmF0ZWQgQ2VydGlmaWNhdGUwHQYDVR0OBBYEFHtmWvJtS0fs51Ra8QGL
YdH618xdMIHhBgNVHSMEgdkwgdaAFBLNYATSoICecO3Gmbh7LMZS/RmhoYGypIGv
MIGsMQswCQYDVQQGEwJVUzELMAkGA1UECBMCT0gxETAPBgNVBAcTCENvbHVtYnVz
MRIwEAYDVQQKEwlWaWtpbmdWUE4xHTAbBgNVBAsTFE15T3JnYW5pemF0aW9uYWxV
bml0MRUwEwYDVQQDEwxWaWtpbmdWUE4gQ0ExEDAOBgNVBCkTB0Vhc3lSU0ExITAf
BgkqhkiG9w0BCQEWEm1lQG15aG9zdC5teWRvbWFpboIJAM81he6Avyo+MBMGA1Ud
JQQMMAoGCCsGAQUFBwMCMAsGA1UdDwQEAwIHgDANBgkqhkiG9w0BAQQFAAOCAgEA
4flwfEFVpvKjEqqde2BHaPP/1fus4P8kUCYa5gBX/1fv4TfztGvUuhcx+2l5Uj4h
xYOhoLO/9PlzvZZjcEcig/kJ7BYfH/fb8hQlidT1YWE0VIQFZg6lij0JajPhVZ7c
vaYKAt6NNlceQ2YEPyyiKSA6DGpeMJpfVSQMIRyhsG+oAZc9MAfEeewXC6yugHUo
ZwKgh5Aw5jVgQURtvch/SYCINRlzYOTwNjDfMo3DqWKsRbPeaLy5dg62f42FA6QQ
EJmz6OUaKd8VPnFrySBjgxv/yW7+K3/79+kbbfamnqucp4lk3ItC1f67eB1sMeBm
i81yWWMjswUZvvUHZn01NWygMx59VsxzUpFvG57+CSiYcopQw55vfYCNN80g1WeZ
QgFzBV+oMyivu05lAUjdRQx5j87j75KzOkz2cFfULklBXo8j4WkVil9MWM4w0mgb
7ICgRqOgejVOawmCE1+t8JlkqB8J87KQleKj2SFKHnlLGkGzMw1BV3OK0B86DiU9
aON/7VOi1uAzXsYRDDOFU1i0UfjAw5U7BH+PYAn7Guq4fk+KygbmH7PGMdI3rBm9
Xr8StorfEdSa4rduITIjKtwH9cUH9PSdL07H0yp01tKC6IxtlAPCmJX5zq0Pjow8
8K5jyAFL8Xpo1RPgvnl/cBl+rbOu9owNy5d1Ux0GQw0=
-----END CERTIFICATE-----
