Certificate:
    Data:
        Version: 3 (0x2)
        Serial Number: 1290 (0x50a)
    Signature Algorithm: md5WithRSAEncryption
        Issuer: C=US, ST=OH, L=Columbus, O=VikingVPN, OU=MyOrganizationalUnit, CN=VikingVPN CA/name=EasyRSA/emailAddress=me@myhost.mydomain
        Validity
            Not Before: Mar 13 12:57:46 2014 GMT
            Not After : Mar 10 12:57:46 2024 GMT
        Subject: CN=Client313Certbacc90
        Subject Public Key Info:
            Public Key Algorithm: rsaEncryption
                Public-Key: (4096 bit)
                Modulus:
                    00:bb:07:72:b4:08:45:df:33:42:ec:91:3e:43:25:
                    1f:ef:f9:73:76:c2:98:a7:b5:63:7d:b7:4d:49:f7:
                    8a:bc:f9:e9:c8:34:ea:e7:68:df:35:fc:cc:60:fd:
                    91:4c:b8:51:68:e4:ce:65:25:0b:cf:db:3d:72:06:
                    84:68:37:bd:f4:7f:1d:45:04:ba:a8:3b:a0:50:be:
                    b5:de:8c:3d:42:10:b8:05:63:85:05:74:02:93:8e:
                    08:5c:b7:44:91:04:d1:45:87:39:6a:17:c2:e0:95:
                    ce:1d:b5:2d:09:b3:29:16:4f:4d:e3:e3:22:76:67:
                    61:71:bc:ea:2d:43:1a:49:de:88:5e:08:ee:ab:d8:
                    a2:58:ae:4a:22:2f:40:52:39:62:8b:9b:a9:5b:07:
                    7c:54:49:30:a7:b6:7a:a6:d4:f8:fa:89:ae:d8:a0:
                    ed:a8:75:d0:7f:e5:96:13:01:aa:ed:1e:13:5d:0f:
                    a3:63:0d:5f:ca:2b:8c:d4:7b:62:88:6f:b2:9b:ea:
                    e1:fe:34:f2:a5:05:30:e4:26:47:27:db:56:89:e7:
                    21:e0:f2:62:78:77:4a:d3:1b:91:a8:24:c7:d0:da:
                    7a:a9:89:fa:57:b6:7d:9d:f4:1e:6f:14:3a:9c:64:
                    98:fd:00:fc:8e:53:a6:fc:63:83:ce:9e:4f:5b:de:
                    6f:4c:37:24:04:8f:29:90:08:a1:dd:64:3d:c5:7e:
                    46:b7:bf:b7:7e:c1:f8:2e:6b:86:29:90:26:0c:69:
                    88:db:ef:68:9e:f8:21:63:b7:03:28:b7:c1:50:9c:
                    ce:bb:82:e3:de:4c:29:3e:1a:68:fa:01:b5:f8:ef:
                    89:1d:e8:dc:1d:0e:ef:f5:8e:32:32:fa:e0:13:44:
                    3b:d6:00:b6:98:e5:15:65:c9:f4:cd:d6:6e:03:93:
                    af:af:99:63:00:46:69:e6:c0:cc:c3:83:2c:cc:12:
                    95:13:8f:d6:c1:d4:0e:57:2b:9d:b4:92:97:1d:00:
                    ee:52:14:51:2c:08:d8:87:00:40:95:ad:70:5f:95:
                    5d:c8:d3:ea:f7:7c:d1:27:ce:cd:10:ee:c9:2f:2a:
                    df:57:82:37:75:b8:e9:7c:3b:2c:ef:b7:ba:7b:32:
                    bf:58:d0:9a:60:82:e6:bf:b8:40:62:d4:38:a1:5e:
                    29:3c:04:0c:61:53:9b:61:fc:f1:08:7b:3f:a3:c5:
                    70:ac:d1:c4:41:34:2d:6e:a8:ed:f7:02:7b:94:1a:
                    e3:ba:6c:ce:6c:a6:53:d6:47:2f:be:55:f6:06:4d:
                    ea:f4:fd:77:d0:28:f3:2d:18:58:4f:e2:3a:0b:95:
                    f2:76:f2:e5:f9:93:f4:67:c1:04:7c:68:7f:21:c9:
                    02:00:f7
                Exponent: 65537 (0x10001)
        X509v3 extensions:
            X509v3 Basic Constraints: 
                CA:FALSE
            Netscape Comment: 
                Easy-RSA Generated Certificate
            X509v3 Subject Key Identifier: 
                C9:A7:5B:CD:65:99:D8:07:C9:58:B7:49:97:07:90:B4:FB:C9:6F:35
            X509v3 Authority Key Identifier: 
                keyid:12:CD:60:04:D2:A0:80:9E:70:ED:C6:99:B8:7B:2C:C6:52:FD:19:A1
                DirName:/C=US/ST=OH/L=Columbus/O=VikingVPN/OU=MyOrganizationalUnit/CN=VikingVPN CA/name=EasyRSA/emailAddress=me@myhost.mydomain
                serial:CF:35:85:EE:80:BF:2A:3E

            X509v3 Extended Key Usage: 
                TLS Web Client Authentication
            X509v3 Key Usage: 
                Digital Signature
    Signature Algorithm: md5WithRSAEncryption
         a3:d5:75:c4:44:ab:a7:66:6e:84:71:f5:5e:8e:1e:10:0b:70:
         fe:1d:72:8d:9e:18:bc:9c:40:36:e3:94:3a:c8:34:e2:8a:47:
         d5:65:2a:19:ca:36:bd:cc:63:e1:e4:7b:5f:45:61:ce:42:e3:
         67:af:02:d4:18:e6:a1:31:3f:ae:b9:3a:9d:20:9a:59:c1:93:
         bc:c7:36:b7:bb:e4:0b:84:61:73:8b:a9:04:17:78:44:77:ac:
         a3:eb:b5:e1:6f:39:84:40:a5:ce:b7:c6:0e:3f:6f:37:f8:8b:
         a9:74:4c:e3:4a:30:46:1d:07:1e:0a:31:25:72:c1:7b:73:46:
         73:88:af:f1:12:38:61:25:a4:99:6a:33:2d:62:af:fb:6c:d7:
         a2:03:2a:f9:18:a3:f8:e2:78:ba:a3:05:9e:2d:e8:4e:8d:72:
         2d:4d:ae:03:16:09:9d:8e:c1:3a:8c:cd:86:02:4f:b4:e2:67:
         f0:69:eb:53:55:ba:95:81:84:b3:e0:72:db:88:29:4a:46:7a:
         22:83:21:22:9f:54:e6:2b:59:f0:84:7b:8a:1c:ea:17:9a:ea:
         d1:a7:c3:68:5f:77:fe:e9:51:c2:86:40:3f:c3:20:04:5a:3a:
         b8:e4:9d:2f:93:f9:44:83:3d:7e:22:80:09:3d:b2:73:80:cd:
         d6:1e:d0:4b:52:8a:b9:98:a1:3e:91:02:0b:62:9b:09:2e:a7:
         93:01:fc:d1:d9:f5:7c:5c:99:30:e9:76:4c:0f:01:88:28:89:
         08:53:b8:04:0a:36:c3:b0:ee:c4:9e:a6:aa:ab:98:2c:b3:33:
         4f:01:df:02:3f:d4:d6:89:d0:d1:41:18:01:fb:ba:ab:60:de:
         68:e7:83:2e:a8:ed:78:f2:aa:25:4c:b1:57:e1:d9:19:1b:31:
         a3:06:cc:ad:85:78:15:0d:a6:b6:4d:64:3a:8c:60:18:44:9d:
         63:39:a4:9e:88:fe:b6:80:2d:fb:a9:28:c0:da:dc:46:83:db:
         0c:0c:78:39:1c:5b:61:53:28:f9:bb:2a:14:bb:46:42:0f:ca:
         aa:31:d0:a5:e6:9a:08:8e:6f:ae:27:b6:4f:93:a2:52:c8:19:
         f5:4e:7d:34:d6:b5:8b:9c:36:57:db:bf:98:98:a6:f5:14:76:
         e8:c0:9b:b5:2c:ba:d9:9a:88:ba:9f:a5:29:a9:fe:6d:87:86:
         ac:9f:00:f0:51:65:7e:b5:b2:d1:95:d7:09:9b:2d:31:29:24:
         32:3f:d6:98:e9:7e:c7:bd:a5:e7:b4:e1:78:8f:9b:ca:10:51:
         d7:14:a2:d5:f2:ac:3c:98:27:3f:1e:d3:1c:56:f7:f3:4d:ad:
         fb:71:7d:65:05:0b:41:4f
-----BEGIN CERTIFICATE-----
MIIGrDCCBJSgAwIBAgICBQowDQYJKoZIhvcNAQEEBQAwgawxCzAJBgNVBAYTAlVT
MQswCQYDVQQIEwJPSDERMA8GA1UEBxMIQ29sdW1idXMxEjAQBgNVBAoTCVZpa2lu
Z1ZQTjEdMBsGA1UECxMUTXlPcmdhbml6YXRpb25hbFVuaXQxFTATBgNVBAMTDFZp
a2luZ1ZQTiBDQTEQMA4GA1UEKRMHRWFzeVJTQTEhMB8GCSqGSIb3DQEJARYSbWVA
bXlob3N0Lm15ZG9tYWluMB4XDTE0MDMxMzEyNTc0NloXDTI0MDMxMDEyNTc0Nlow
HjEcMBoGA1UEAxMTQ2xpZW50MzEzQ2VydGJhY2M5MDCCAiIwDQYJKoZIhvcNAQEB
BQADggIPADCCAgoCggIBALsHcrQIRd8zQuyRPkMlH+/5c3bCmKe1Y323TUn3irz5
6cg06udo3zX8zGD9kUy4UWjkzmUlC8/bPXIGhGg3vfR/HUUEuqg7oFC+td6MPUIQ
uAVjhQV0ApOOCFy3RJEE0UWHOWoXwuCVzh21LQmzKRZPTePjInZnYXG86i1DGkne
iF4I7qvYoliuSiIvQFI5YoubqVsHfFRJMKe2eqbU+PqJrtig7ah10H/llhMBqu0e
E10Po2MNX8orjNR7Yohvspvq4f408qUFMOQmRyfbVonnIeDyYnh3StMbkagkx9Da
eqmJ+le2fZ30Hm8UOpxkmP0A/I5Tpvxjg86eT1veb0w3JASPKZAIod1kPcV+Rre/
t37B+C5rhimQJgxpiNvvaJ74IWO3Ayi3wVCczruC495MKT4aaPoBtfjviR3o3B0O
7/WOMjL64BNEO9YAtpjlFWXJ9M3WbgOTr6+ZYwBGaebAzMODLMwSlROP1sHUDlcr
nbSSlx0A7lIUUSwI2IcAQJWtcF+VXcjT6vd80SfOzRDuyS8q31eCN3W46Xw7LO+3
unsyv1jQmmCC5r+4QGLUOKFeKTwEDGFTm2H88Qh7P6PFcKzRxEE0LW6o7fcCe5Qa
47pszmymU9ZHL75V9gZN6vT9d9Ao8y0YWE/iOguV8nby5fmT9GfBBHxofyHJAgD3
AgMBAAGjggFjMIIBXzAJBgNVHRMEAjAAMC0GCWCGSAGG+EIBDQQgFh5FYXN5LVJT
QSBHZW5lcmF0ZWQgQ2VydGlmaWNhdGUwHQYDVR0OBBYEFMmnW81lmdgHyVi3SZcH
kLT7yW81MIHhBgNVHSMEgdkwgdaAFBLNYATSoICecO3Gmbh7LMZS/RmhoYGypIGv
MIGsMQswCQYDVQQGEwJVUzELMAkGA1UECBMCT0gxETAPBgNVBAcTCENvbHVtYnVz
MRIwEAYDVQQKEwlWaWtpbmdWUE4xHTAbBgNVBAsTFE15T3JnYW5pemF0aW9uYWxV
bml0MRUwEwYDVQQDEwxWaWtpbmdWUE4gQ0ExEDAOBgNVBCkTB0Vhc3lSU0ExITAf
BgkqhkiG9w0BCQEWEm1lQG15aG9zdC5teWRvbWFpboIJAM81he6Avyo+MBMGA1Ud
JQQMMAoGCCsGAQUFBwMCMAsGA1UdDwQEAwIHgDANBgkqhkiG9w0BAQQFAAOCAgEA
o9V1xESrp2ZuhHH1Xo4eEAtw/h1yjZ4YvJxANuOUOsg04opH1WUqGco2vcxj4eR7
X0VhzkLjZ68C1BjmoTE/rrk6nSCaWcGTvMc2t7vkC4Rhc4upBBd4RHeso+u14W85
hEClzrfGDj9vN/iLqXRM40owRh0HHgoxJXLBe3NGc4iv8RI4YSWkmWozLWKv+2zX
ogMq+Rij+OJ4uqMFni3oTo1yLU2uAxYJnY7BOozNhgJPtOJn8GnrU1W6lYGEs+By
24gpSkZ6IoMhIp9U5itZ8IR7ihzqF5rq0afDaF93/ulRwoZAP8MgBFo6uOSdL5P5
RIM9fiKACT2yc4DN1h7QS1KKuZihPpECC2KbCS6nkwH80dn1fFyZMOl2TA8BiCiJ
CFO4BAo2w7DuxJ6mqquYLLMzTwHfAj/U1onQ0UEYAfu6q2DeaOeDLqjtePKqJUyx
V+HZGRsxowbMrYV4FQ2mtk1kOoxgGESdYzmknoj+toAt+6kowNrcRoPbDAx4ORxb
YVMo+bsqFLtGQg/KqjHQpeaaCI5vrie2T5OiUsgZ9U59NNa1i5w2V9u/mJim9RR2
6MCbtSy62ZqIup+lKan+bYeGrJ8A8FFlfrWy0ZXXCZstMSkkMj/WmOl+x72l57Th
eI+byhBR1xSi1fKsPJgnPx7THFb3802t+3F9ZQULQU8=
-----END CERTIFICATE-----
