Certificate:
    Data:
        Version: 3 (0x2)
        Serial Number: 1296 (0x510)
    Signature Algorithm: md5WithRSAEncryption
        Issuer: C=US, ST=OH, L=Columbus, O=VikingVPN, OU=MyOrganizationalUnit, CN=VikingVPN CA/name=EasyRSA/emailAddress=me@myhost.mydomain
        Validity
            Not Before: Mar 14 21:32:51 2014 GMT
            Not After : Mar 11 21:32:51 2024 GMT
        Subject: CN=Client91Certf298aa
        Subject Public Key Info:
            Public Key Algorithm: rsaEncryption
                Public-Key: (4096 bit)
                Modulus:
                    00:e9:37:72:84:a8:ca:26:cf:74:6f:2e:f5:4d:be:
                    f9:92:30:7c:7b:f7:5c:16:75:2e:1d:ec:45:97:63:
                    7a:ed:c3:3e:88:37:53:b5:aa:9b:1d:e2:03:ed:23:
                    48:2b:7e:38:83:72:16:dd:2c:6e:d4:d4:7e:1b:42:
                    e1:c9:96:88:73:df:c7:86:42:5b:89:61:74:61:ed:
                    2b:28:70:7f:39:d1:9c:5f:3a:45:f7:41:0d:3e:81:
                    cd:83:ec:dc:04:30:00:76:eb:c9:07:1a:18:f4:8f:
                    52:86:d8:e8:8e:cb:6d:3d:a9:0d:29:e1:6d:ba:dc:
                    14:6d:5d:9f:cc:7f:87:bc:a4:5c:c5:73:92:f0:e1:
                    a6:b6:98:86:f1:a8:fa:63:1e:a1:5c:f1:5e:8d:37:
                    ab:d6:4f:87:01:a2:39:1c:4d:4b:01:ed:58:d8:79:
                    bc:98:b9:5d:17:49:0e:e6:cd:fd:de:a9:de:d1:d6:
                    20:3a:8d:61:9c:bc:07:6f:3c:0a:02:66:e1:05:4c:
                    bc:88:06:9a:a4:38:f1:b8:2e:06:09:70:d4:bf:5e:
                    d2:24:69:76:bf:c1:f3:23:62:5e:a1:54:ed:74:24:
                    f3:4f:07:30:67:6b:b6:08:c0:97:8f:41:52:05:21:
                    26:e4:ff:2a:0a:b7:a4:a4:0c:79:aa:81:79:8a:67:
                    c7:47:b9:c7:00:b3:87:f6:69:15:06:87:26:4a:13:
                    5d:77:2b:22:82:a7:0e:6e:5c:2f:9e:70:f8:08:55:
                    00:db:e5:7f:42:ee:8d:33:7d:82:d7:b8:40:12:4a:
                    dd:cd:e4:e7:f2:ac:e6:c1:b1:41:b3:e8:15:6c:8b:
                    18:c2:7b:c2:99:fb:e3:4f:bb:7c:fe:17:20:df:df:
                    83:ea:f5:b4:3d:af:e8:fd:6f:19:96:89:89:9b:80:
                    46:09:4a:c7:6d:0b:05:b7:d2:f7:df:94:d3:01:ff:
                    31:b0:da:c5:21:99:8e:04:5d:9e:87:1b:41:59:0c:
                    1e:ce:ad:55:eb:7c:3e:15:49:c3:6c:d1:d7:78:78:
                    3d:57:bd:66:ff:6b:dd:76:c0:3e:23:26:c8:b5:4a:
                    0e:a1:90:a4:9c:60:2c:61:ad:f8:af:9d:f8:96:20:
                    ed:54:ee:e0:98:66:20:70:b1:33:9b:80:20:fe:6b:
                    00:96:a4:3b:bd:9d:24:de:c4:7c:7b:5e:2f:ec:f9:
                    31:8f:18:97:88:7e:c6:d4:10:9e:39:71:de:31:c4:
                    51:21:07:ad:07:e1:d2:32:18:1e:a1:a9:94:15:42:
                    ea:3b:e5:86:ab:ef:d8:ed:18:1b:e2:47:cb:e8:68:
                    5f:61:9c:99:2b:a9:fb:c1:79:3f:65:a6:4f:9a:70:
                    b1:18:9b
                Exponent: 65537 (0x10001)
        X509v3 extensions:
            X509v3 Basic Constraints: 
                CA:FALSE
            Netscape Comment: 
                Easy-RSA Generated Certificate
            X509v3 Subject Key Identifier: 
                C2:79:6E:14:79:C2:3D:6E:08:31:E8:CD:85:C6:9F:53:3B:F4:32:B2
            X509v3 Authority Key Identifier: 
                keyid:12:CD:60:04:D2:A0:80:9E:70:ED:C6:99:B8:7B:2C:C6:52:FD:19:A1
                DirName:/C=US/ST=OH/L=Columbus/O=VikingVPN/OU=MyOrganizationalUnit/CN=VikingVPN CA/name=EasyRSA/emailAddress=me@myhost.mydomain
                serial:CF:35:85:EE:80:BF:2A:3E

            X509v3 Extended Key Usage: 
                TLS Web Client Authentication
            X509v3 Key Usage: 
                Digital Signature
    Signature Algorithm: md5WithRSAEncryption
         37:66:af:b1:dc:90:87:05:67:a1:78:e1:82:d4:fd:88:0c:9d:
         8f:8d:31:11:b4:57:c2:f8:e7:b5:09:e2:75:46:ea:e7:7c:3b:
         25:01:46:75:a4:eb:38:95:f4:5d:6a:c9:09:fc:9e:ba:cf:08:
         a0:4c:d8:22:70:d2:3b:b1:ad:9a:ca:38:b7:75:5b:7e:7c:0e:
         0c:c6:59:1d:7a:4f:4a:4a:a4:db:46:d5:44:22:7a:77:1f:77:
         9f:e5:08:fd:c6:5a:be:65:f8:14:6d:bf:2f:1b:6f:65:df:1c:
         90:74:4e:48:77:38:92:26:59:05:b5:94:58:53:ad:bc:6b:06:
         ba:df:2a:d0:dd:43:d9:5c:f7:e5:85:26:d2:dd:76:d9:c2:82:
         ba:ce:20:9c:9d:79:91:61:d9:96:bd:65:f4:e3:70:95:60:0f:
         72:21:78:e6:a6:c1:48:0d:82:fb:7f:f2:f6:cb:26:f6:95:e0:
         31:cf:cf:2d:3c:b4:fb:e7:49:f6:02:d5:4a:be:f1:d3:85:d3:
         a5:40:b4:70:ed:a0:55:ff:9c:8c:e1:2a:80:e3:9a:6e:01:0b:
         1a:4f:c2:c6:ac:0d:a4:71:1c:53:d2:0b:34:5f:b7:0b:a6:6c:
         ea:dd:17:ca:7d:7b:4a:c8:f2:3b:a1:05:c1:2d:38:50:2c:c2:
         1e:67:e5:a2:96:39:ec:1a:df:6d:ff:41:96:58:73:9a:14:eb:
         9b:15:eb:91:77:95:0c:3c:71:0b:d4:1c:5d:ec:20:ad:12:2e:
         1e:4d:64:38:37:d1:96:80:fd:f4:03:77:26:61:e2:fb:9a:95:
         b3:de:5d:4d:c4:12:d3:05:6f:86:bb:e3:b2:7d:bb:de:35:fa:
         7d:ca:29:30:de:34:92:93:17:64:3f:70:76:bc:69:c1:24:d5:
         14:f5:5c:1b:90:ce:22:d4:59:24:c6:e4:2c:04:c2:3d:cd:07:
         f5:cb:43:be:9c:f2:8f:b6:3e:77:2b:ba:a1:57:c4:f2:60:6e:
         8f:f1:6e:0d:67:02:9a:63:6a:3d:1d:ee:c9:00:5c:89:ba:d6:
         c2:d0:81:00:93:85:66:79:47:b0:00:99:95:44:99:43:3a:5e:
         23:a5:50:40:64:b2:ec:74:75:4f:cf:3d:c1:e9:d5:4f:a0:f9:
         11:ec:38:8d:ed:6f:c6:6e:b1:50:d5:a8:d7:f8:93:9d:ac:0d:
         58:e5:5f:15:66:ee:07:1a:e6:b3:dc:08:5e:fd:1b:d9:91:5a:
         f9:64:98:91:ee:dd:6e:f5:64:a2:08:4c:12:65:42:d2:28:3c:
         41:93:45:35:5f:99:aa:b0:54:99:a5:c6:c5:13:8b:f8:ad:e9:
         cb:7f:30:db:0e:99:97:5b
-----BEGIN CERTIFICATE-----
MIIGqzCCBJOgAwIBAgICBRAwDQYJKoZIhvcNAQEEBQAwgawxCzAJBgNVBAYTAlVT
MQswCQYDVQQIEwJPSDERMA8GA1UEBxMIQ29sdW1idXMxEjAQBgNVBAoTCVZpa2lu
Z1ZQTjEdMBsGA1UECxMUTXlPcmdhbml6YXRpb25hbFVuaXQxFTATBgNVBAMTDFZp
a2luZ1ZQTiBDQTEQMA4GA1UEKRMHRWFzeVJTQTEhMB8GCSqGSIb3DQEJARYSbWVA
bXlob3N0Lm15ZG9tYWluMB4XDTE0MDMxNDIxMzI1MVoXDTI0MDMxMTIxMzI1MVow
HTEbMBkGA1UEAxMSQ2xpZW50OTFDZXJ0ZjI5OGFhMIICIjANBgkqhkiG9w0BAQEF
AAOCAg8AMIICCgKCAgEA6TdyhKjKJs90by71Tb75kjB8e/dcFnUuHexFl2N67cM+
iDdTtaqbHeID7SNIK344g3IW3Sxu1NR+G0LhyZaIc9/HhkJbiWF0Ye0rKHB/OdGc
XzpF90ENPoHNg+zcBDAAduvJBxoY9I9ShtjojsttPakNKeFtutwUbV2fzH+HvKRc
xXOS8OGmtpiG8aj6Yx6hXPFejTer1k+HAaI5HE1LAe1Y2Hm8mLldF0kO5s393qne
0dYgOo1hnLwHbzwKAmbhBUy8iAaapDjxuC4GCXDUv17SJGl2v8HzI2JeoVTtdCTz
TwcwZ2u2CMCXj0FSBSEm5P8qCrekpAx5qoF5imfHR7nHALOH9mkVBocmShNddysi
gqcOblwvnnD4CFUA2+V/Qu6NM32C17hAEkrdzeTn8qzmwbFBs+gVbIsYwnvCmfvj
T7t8/hcg39+D6vW0Pa/o/W8ZlomJm4BGCUrHbQsFt9L335TTAf8xsNrFIZmOBF2e
hxtBWQwezq1V63w+FUnDbNHXeHg9V71m/2vddsA+IybItUoOoZCknGAsYa34r534
liDtVO7gmGYgcLEzm4Ag/msAlqQ7vZ0k3sR8e14v7PkxjxiXiH7G1BCeOXHeMcRR
IQetB+HSMhgeoamUFULqO+WGq+/Y7Rgb4kfL6GhfYZyZK6n7wXk/ZaZPmnCxGJsC
AwEAAaOCAWMwggFfMAkGA1UdEwQCMAAwLQYJYIZIAYb4QgENBCAWHkVhc3ktUlNB
IEdlbmVyYXRlZCBDZXJ0aWZpY2F0ZTAdBgNVHQ4EFgQUwnluFHnCPW4IMejNhcaf
Uzv0MrIwgeEGA1UdIwSB2TCB1oAUEs1gBNKggJ5w7caZuHssxlL9GaGhgbKkga8w
gawxCzAJBgNVBAYTAlVTMQswCQYDVQQIEwJPSDERMA8GA1UEBxMIQ29sdW1idXMx
EjAQBgNVBAoTCVZpa2luZ1ZQTjEdMBsGA1UECxMUTXlPcmdhbml6YXRpb25hbFVu
aXQxFTATBgNVBAMTDFZpa2luZ1ZQTiBDQTEQMA4GA1UEKRMHRWFzeVJTQTEhMB8G
CSqGSIb3DQEJARYSbWVAbXlob3N0Lm15ZG9tYWluggkAzzWF7oC/Kj4wEwYDVR0l
BAwwCgYIKwYBBQUHAwIwCwYDVR0PBAQDAgeAMA0GCSqGSIb3DQEBBAUAA4ICAQA3
Zq+x3JCHBWeheOGC1P2IDJ2PjTERtFfC+Oe1CeJ1RurnfDslAUZ1pOs4lfRdaskJ
/J66zwigTNgicNI7sa2ayji3dVt+fA4Mxlkdek9KSqTbRtVEInp3H3ef5Qj9xlq+
ZfgUbb8vG29l3xyQdE5IdziSJlkFtZRYU628awa63yrQ3UPZXPflhSbS3XbZwoK6
ziCcnXmRYdmWvWX043CVYA9yIXjmpsFIDYL7f/L2yyb2leAxz88tPLT750n2AtVK
vvHThdOlQLRw7aBV/5yM4SqA45puAQsaT8LGrA2kcRxT0gs0X7cLpmzq3RfKfXtK
yPI7oQXBLThQLMIeZ+WiljnsGt9t/0GWWHOaFOubFeuRd5UMPHEL1Bxd7CCtEi4e
TWQ4N9GWgP30A3cmYeL7mpWz3l1NxBLTBW+Gu+OyfbveNfp9yikw3jSSkxdkP3B2
vGnBJNUU9VwbkM4i1FkkxuQsBMI9zQf1y0O+nPKPtj53K7qhV8TyYG6P8W4NZwKa
Y2o9He7JAFyJutbC0IEAk4VmeUewAJmVRJlDOl4jpVBAZLLsdHVPzz3B6dVPoPkR
7DiN7W/GbrFQ1ajX+JOdrA1Y5V8VZu4HGuaz3Ahe/RvZkVr5ZJiR7t1u9WSiCEwS
ZULSKDxBk0U1X5mqsFSZpcbFE4v4renLfzDbDpmXWw==
-----END CERTIFICATE-----
