Certificate:
    Data:
        Version: 3 (0x2)
        Serial Number: 1332 (0x534)
    Signature Algorithm: md5WithRSAEncryption
        Issuer: C=US, ST=OH, L=Columbus, O=VikingVPN, OU=MyOrganizationalUnit, CN=VikingVPN CA/name=EasyRSA/emailAddress=me@myhost.mydomain
        Validity
            Not Before: Mar 21 12:27:45 2014 GMT
            Not After : Mar 18 12:27:45 2024 GMT
        Subject: CN=Client496Cert30370d
        Subject Public Key Info:
            Public Key Algorithm: rsaEncryption
                Public-Key: (4096 bit)
                Modulus:
                    00:cf:3d:39:62:2e:23:aa:ce:ab:a3:78:eb:20:b5:
                    42:30:40:86:19:84:dd:3a:4d:70:31:0e:42:03:f0:
                    e7:7b:4b:b5:29:68:75:03:de:6f:63:0b:eb:ec:da:
                    70:eb:d8:22:aa:77:61:a4:c3:d6:6c:e1:a1:0b:60:
                    8d:10:76:4a:30:09:ef:fd:6d:fd:93:54:46:c2:de:
                    ae:d5:24:c3:c1:7d:38:54:2b:33:70:9b:30:50:f7:
                    6e:cf:a5:fe:6b:99:05:da:98:ea:d9:b8:c6:c0:5f:
                    0c:98:c7:c5:8a:13:2d:8f:d7:1e:53:4a:41:7a:c8:
                    cd:da:64:eb:03:31:a9:93:45:9d:7d:fe:e1:5b:cc:
                    80:44:d7:db:b1:c4:22:4f:c1:76:6a:f7:5d:62:3a:
                    8d:0a:74:a8:e7:c6:a8:7a:ea:a5:7b:8f:f3:39:29:
                    47:15:8a:42:6e:c3:5b:86:30:ec:39:56:ee:dd:d3:
                    a8:d6:9c:25:ba:a3:f1:19:4c:ac:05:01:ac:68:8d:
                    88:15:ce:d6:40:24:e1:c3:ba:88:8f:33:24:9d:33:
                    95:7b:6a:76:d2:53:78:8a:20:b7:71:e7:25:22:e3:
                    13:84:b5:be:33:20:29:2a:f4:fc:8a:dc:d4:ff:06:
                    9c:68:8b:2b:64:08:e4:14:37:9f:53:05:90:40:1f:
                    b8:6f:10:e4:bb:a9:ee:e4:06:4b:1f:9c:36:f0:3d:
                    c1:f8:f2:3b:e2:0f:ee:44:03:fb:e3:b6:62:0b:e0:
                    8e:7c:c7:3b:a5:a6:8d:2e:22:cf:c4:23:a8:d9:59:
                    5f:07:64:53:a6:33:bf:7a:81:ca:50:26:e9:9f:25:
                    69:0a:a5:4d:03:33:d1:e0:29:1f:cf:79:0f:aa:fb:
                    cc:22:8c:30:41:e6:bb:9a:6e:e5:98:28:df:3d:f6:
                    a9:df:5a:70:15:49:ac:16:9a:6f:36:73:f2:66:db:
                    4c:f9:c7:c0:44:d1:1c:68:7e:87:7c:6e:e1:36:e2:
                    ae:19:7e:92:26:f0:cf:b9:c8:21:1e:e1:b5:ca:e9:
                    32:60:38:99:14:e0:77:40:5d:5f:83:5c:44:40:6e:
                    7a:9e:b1:49:c9:e2:86:67:1d:61:3d:99:0f:8c:e4:
                    97:f1:c3:7e:d3:58:c5:13:3a:4f:12:4c:e7:48:a2:
                    aa:c8:3a:10:d6:7d:f8:1d:80:52:ef:e3:24:ca:9b:
                    5b:f1:a1:1d:ed:d9:5e:0d:87:09:fd:7c:04:2c:4c:
                    e2:ad:a6:a0:1f:b5:0c:fc:41:99:f4:f4:9d:cc:7a:
                    71:4e:31:9d:8e:d7:ca:e3:9b:e1:b9:e3:86:c0:78:
                    e4:8d:2d:6d:da:e7:fa:97:0b:19:c9:05:b0:1f:cd:
                    aa:1a:b9
                Exponent: 65537 (0x10001)
        X509v3 extensions:
            X509v3 Basic Constraints: 
                CA:FALSE
            Netscape Comment: 
                Easy-RSA Generated Certificate
            X509v3 Subject Key Identifier: 
                2D:C8:AF:73:09:3B:10:07:F5:F1:37:D0:F9:8E:BE:A8:E0:B9:CD:31
            X509v3 Authority Key Identifier: 
                keyid:12:CD:60:04:D2:A0:80:9E:70:ED:C6:99:B8:7B:2C:C6:52:FD:19:A1
                DirName:/C=US/ST=OH/L=Columbus/O=VikingVPN/OU=MyOrganizationalUnit/CN=VikingVPN CA/name=EasyRSA/emailAddress=me@myhost.mydomain
                serial:CF:35:85:EE:80:BF:2A:3E

            X509v3 Extended Key Usage: 
                TLS Web Client Authentication
            X509v3 Key Usage: 
                Digital Signature
    Signature Algorithm: md5WithRSAEncryption
         4c:af:13:55:34:c8:62:96:e2:95:d0:b4:9b:81:97:26:57:b1:
         83:8e:f3:c6:50:2a:c0:d5:37:09:cf:fd:47:01:e7:b7:70:bd:
         7a:86:74:4d:74:43:4f:a3:89:f7:67:b5:20:5f:6d:31:77:6e:
         4b:ce:c1:d1:0c:72:10:5c:0f:f1:51:f4:26:19:90:6a:aa:e8:
         18:d3:64:a6:64:b1:0c:5a:27:72:37:51:d1:71:1d:c5:6e:0c:
         b5:fb:cf:7e:49:b5:f1:85:49:31:12:3e:9c:07:e7:3c:2d:28:
         93:e5:25:42:24:5f:bf:1f:cc:bb:7c:b5:b7:6b:76:51:36:4e:
         14:3b:d2:ab:cb:3f:da:ba:39:9e:b4:bd:29:c3:a8:31:06:3d:
         92:19:58:e9:8d:c8:5b:b9:99:2a:52:d2:b5:67:a5:c0:ba:47:
         fc:0c:36:39:91:63:31:1e:fc:a6:9d:3e:ee:33:55:c4:8e:e0:
         30:f4:29:61:cd:e0:60:dc:cd:6f:71:29:94:e2:04:be:8d:a8:
         d7:7f:eb:ca:97:75:dc:47:6e:1b:54:aa:46:66:87:a2:21:69:
         6a:e8:95:2f:d2:66:63:ad:fd:de:ca:ed:bb:df:d2:a1:bc:e2:
         01:c8:78:fb:da:35:39:a5:3d:23:33:7c:f5:b6:3b:d5:64:52:
         b9:23:6d:f5:2c:3e:af:9b:52:d9:bd:83:6e:88:96:49:7f:ff:
         4a:8b:a5:ca:95:17:1b:d2:3e:e4:9e:3a:ac:f8:7d:fd:36:8c:
         33:63:39:96:15:40:65:dd:0f:fd:59:5d:36:07:f7:2e:ad:b3:
         ac:27:94:62:12:cb:29:2f:85:c4:db:74:d7:85:a6:c9:46:f9:
         c6:fc:01:b9:0a:a6:d5:8c:89:a2:f0:46:f9:7a:cf:7b:22:67:
         52:ab:41:e7:04:62:2d:9c:19:10:67:62:75:d5:12:e4:a0:d9:
         de:e5:6b:b4:0d:cc:a0:72:a0:6e:1b:93:55:42:28:be:0a:18:
         4e:b7:80:be:3a:84:88:45:a5:1e:35:6d:5f:b2:1f:a5:88:c8:
         57:c5:48:e1:be:ed:fc:0d:e9:da:6d:ea:21:df:92:8e:c7:b6:
         6c:4b:de:d4:cb:f1:1e:06:27:46:82:76:32:78:33:85:72:2b:
         2d:1d:3d:57:17:80:60:82:bb:07:70:69:3e:8d:9c:13:b9:1c:
         04:eb:90:a6:6c:fb:df:17:56:48:52:bc:8b:e7:cd:b3:31:08:
         af:29:5d:63:ef:d0:dc:9f:dd:6d:b6:ef:3f:fa:a1:8e:a1:24:
         be:b0:4e:08:04:58:d9:5c:2b:1e:18:a2:04:16:09:cf:41:bf:
         ad:53:d2:62:ed:f2:28:ba
-----BEGIN CERTIFICATE-----
MIIGrDCCBJSgAwIBAgICBTQwDQYJKoZIhvcNAQEEBQAwgawxCzAJBgNVBAYTAlVT
MQswCQYDVQQIEwJPSDERMA8GA1UEBxMIQ29sdW1idXMxEjAQBgNVBAoTCVZpa2lu
Z1ZQTjEdMBsGA1UECxMUTXlPcmdhbml6YXRpb25hbFVuaXQxFTATBgNVBAMTDFZp
a2luZ1ZQTiBDQTEQMA4GA1UEKRMHRWFzeVJTQTEhMB8GCSqGSIb3DQEJARYSbWVA
bXlob3N0Lm15ZG9tYWluMB4XDTE0MDMyMTEyMjc0NVoXDTI0MDMxODEyMjc0NVow
HjEcMBoGA1UEAxMTQ2xpZW50NDk2Q2VydDMwMzcwZDCCAiIwDQYJKoZIhvcNAQEB
BQADggIPADCCAgoCggIBAM89OWIuI6rOq6N46yC1QjBAhhmE3TpNcDEOQgPw53tL
tSlodQPeb2ML6+zacOvYIqp3YaTD1mzhoQtgjRB2SjAJ7/1t/ZNURsLertUkw8F9
OFQrM3CbMFD3bs+l/muZBdqY6tm4xsBfDJjHxYoTLY/XHlNKQXrIzdpk6wMxqZNF
nX3+4VvMgETX27HEIk/Bdmr3XWI6jQp0qOfGqHrqpXuP8zkpRxWKQm7DW4Yw7DlW
7t3TqNacJbqj8RlMrAUBrGiNiBXO1kAk4cO6iI8zJJ0zlXtqdtJTeIogt3HnJSLj
E4S1vjMgKSr0/Irc1P8GnGiLK2QI5BQ3n1MFkEAfuG8Q5Lup7uQGSx+cNvA9wfjy
O+IP7kQD++O2YgvgjnzHO6WmjS4iz8QjqNlZXwdkU6Yzv3qBylAm6Z8laQqlTQMz
0eApH895D6r7zCKMMEHmu5pu5Zgo3z32qd9acBVJrBaabzZz8mbbTPnHwETRHGh+
h3xu4Tbirhl+kibwz7nIIR7htcrpMmA4mRTgd0BdX4NcREBuep6xScnihmcdYT2Z
D4zkl/HDftNYxRM6TxJM50iiqsg6ENZ9+B2AUu/jJMqbW/GhHe3ZXg2HCf18BCxM
4q2moB+1DPxBmfT0ncx6cU4xnY7XyuOb4bnjhsB45I0tbdrn+pcLGckFsB/Nqhq5
AgMBAAGjggFjMIIBXzAJBgNVHRMEAjAAMC0GCWCGSAGG+EIBDQQgFh5FYXN5LVJT
QSBHZW5lcmF0ZWQgQ2VydGlmaWNhdGUwHQYDVR0OBBYEFC3Ir3MJOxAH9fE30PmO
vqjguc0xMIHhBgNVHSMEgdkwgdaAFBLNYATSoICecO3Gmbh7LMZS/RmhoYGypIGv
MIGsMQswCQYDVQQGEwJVUzELMAkGA1UECBMCT0gxETAPBgNVBAcTCENvbHVtYnVz
MRIwEAYDVQQKEwlWaWtpbmdWUE4xHTAbBgNVBAsTFE15T3JnYW5pemF0aW9uYWxV
bml0MRUwEwYDVQQDEwxWaWtpbmdWUE4gQ0ExEDAOBgNVBCkTB0Vhc3lSU0ExITAf
BgkqhkiG9w0BCQEWEm1lQG15aG9zdC5teWRvbWFpboIJAM81he6Avyo+MBMGA1Ud
JQQMMAoGCCsGAQUFBwMCMAsGA1UdDwQEAwIHgDANBgkqhkiG9w0BAQQFAAOCAgEA
TK8TVTTIYpbildC0m4GXJlexg47zxlAqwNU3Cc/9RwHnt3C9eoZ0TXRDT6OJ92e1
IF9tMXduS87B0QxyEFwP8VH0JhmQaqroGNNkpmSxDFoncjdR0XEdxW4MtfvPfkm1
8YVJMRI+nAfnPC0ok+UlQiRfvx/Mu3y1t2t2UTZOFDvSq8s/2ro5nrS9KcOoMQY9
khlY6Y3IW7mZKlLStWelwLpH/Aw2OZFjMR78pp0+7jNVxI7gMPQpYc3gYNzNb3Ep
lOIEvo2o13/rypd13EduG1SqRmaHoiFpauiVL9JmY6393srtu9/SobziAch4+9o1
OaU9IzN89bY71WRSuSNt9Sw+r5tS2b2DboiWSX//SoulypUXG9I+5J46rPh9/TaM
M2M5lhVAZd0P/VldNgf3Lq2zrCeUYhLLKS+FxNt014WmyUb5xvwBuQqm1YyJovBG
+XrPeyJnUqtB5wRiLZwZEGdiddUS5KDZ3uVrtA3MoHKgbhuTVUIovgoYTreAvjqE
iEWlHjVtX7IfpYjIV8VI4b7t/A3p2m3qId+Sjse2bEve1MvxHgYnRoJ2MngzhXIr
LR09VxeAYIK7B3BpPo2cE7kcBOuQpmz73xdWSFK8i+fNszEIryldY+/Q3J/dbbbv
P/qhjqEkvrBOCARY2VwrHhiiBBYJz0G/rVPSYu3yKLo=
-----END CERTIFICATE-----
