Certificate:
    Data:
        Version: 3 (0x2)
        Serial Number: 1336 (0x538)
    Signature Algorithm: md5WithRSAEncryption
        Issuer: C=US, ST=OH, L=Columbus, O=VikingVPN, OU=MyOrganizationalUnit, CN=VikingVPN CA/name=EasyRSA/emailAddress=me@myhost.mydomain
        Validity
            Not Before: Mar 21 20:20:00 2014 GMT
            Not After : Mar 18 20:20:00 2024 GMT
        Subject: CN=Client497Cert5566b5
        Subject Public Key Info:
            Public Key Algorithm: rsaEncryption
                Public-Key: (4096 bit)
                Modulus:
                    00:cb:9e:a7:ca:37:15:2a:7d:23:8b:0e:fe:23:11:
                    a7:ce:55:8e:e0:4d:40:ae:1b:cf:c5:a6:95:5c:4c:
                    68:55:45:e2:9e:67:eb:97:18:7e:3d:d6:ca:d5:94:
                    db:08:a6:fd:29:34:8d:ca:6f:2b:27:fc:2d:3b:70:
                    1e:98:2b:72:99:d4:3c:25:0b:9d:45:1c:d4:84:8b:
                    e6:f6:42:b1:91:fd:0f:42:54:c0:b2:0e:55:99:8d:
                    ba:75:4f:57:e4:71:7c:44:6a:f8:c6:8d:0f:43:e9:
                    dc:09:fb:90:d4:09:31:42:eb:eb:9d:47:0b:a5:49:
                    e4:dd:49:c0:f4:ee:e2:21:60:ee:e4:44:ef:65:b2:
                    42:cb:83:f9:f2:d0:4f:d4:8a:d5:67:0f:eb:4a:a2:
                    eb:d2:4e:6e:38:32:dd:82:41:5d:fc:41:86:f8:4c:
                    80:d4:b7:4d:35:ea:94:ae:f5:54:dd:cf:24:de:5f:
                    ab:f3:ba:bf:ee:47:a2:29:40:b4:41:d4:c2:20:16:
                    ab:27:b5:7a:9b:42:29:b5:c0:49:34:f0:39:4d:73:
                    c5:50:0a:d6:03:6a:b0:ed:45:9d:7c:49:3a:59:b5:
                    ba:7a:fd:07:1f:a2:66:c1:19:2c:08:55:14:68:b8:
                    f5:c7:7d:25:09:7d:31:81:89:87:51:5d:de:db:7b:
                    43:c9:25:02:0d:7f:c3:4a:ef:bb:a2:ca:dc:29:96:
                    24:c7:74:f9:ae:f1:15:0e:1e:4d:a1:da:c5:a6:e5:
                    e2:76:48:ee:7e:61:8e:8d:9e:0f:0a:fe:bd:1c:d6:
                    e0:ae:d3:06:9a:a0:ed:ce:66:8c:bc:14:1c:39:79:
                    2a:7c:1b:41:1b:cc:11:31:b7:11:4f:36:b3:35:cd:
                    78:e1:bc:3a:ee:a7:1e:a7:41:46:6e:86:ca:9a:4e:
                    a9:6e:dc:cf:3e:d7:03:ca:58:14:18:f1:f6:5f:0b:
                    50:e2:06:83:ee:2a:3a:82:0f:c2:40:25:bf:19:af:
                    50:6f:17:c0:22:61:e0:d2:0b:f6:96:9f:77:7b:ad:
                    34:e1:59:59:b8:b4:96:d1:32:fd:d1:cc:96:04:c0:
                    50:43:da:cd:7b:9c:d5:6e:8e:e9:0c:3f:a9:74:2c:
                    ba:e7:59:4c:6f:71:5c:e6:1c:0f:f9:dc:42:11:40:
                    a0:aa:14:0f:bc:8d:ea:dc:0c:14:06:ab:07:ee:50:
                    56:7e:68:a4:d6:cb:31:9a:eb:3f:8b:e9:f0:7b:ae:
                    34:18:25:d1:27:20:48:a5:ff:94:56:03:87:99:22:
                    1c:9e:0e:cc:5f:92:c6:d9:59:70:38:34:59:bf:40:
                    21:b3:f6:ac:3b:06:d8:a1:29:aa:ad:d3:90:94:a4:
                    41:7f:ff
                Exponent: 65537 (0x10001)
        X509v3 extensions:
            X509v3 Basic Constraints: 
                CA:FALSE
            Netscape Comment: 
                Easy-RSA Generated Certificate
            X509v3 Subject Key Identifier: 
                EA:F7:63:CA:0E:C7:D6:88:CE:28:26:F8:B6:6C:78:69:7A:DA:83:BC
            X509v3 Authority Key Identifier: 
                keyid:12:CD:60:04:D2:A0:80:9E:70:ED:C6:99:B8:7B:2C:C6:52:FD:19:A1
                DirName:/C=US/ST=OH/L=Columbus/O=VikingVPN/OU=MyOrganizationalUnit/CN=VikingVPN CA/name=EasyRSA/emailAddress=me@myhost.mydomain
                serial:CF:35:85:EE:80:BF:2A:3E

            X509v3 Extended Key Usage: 
                TLS Web Client Authentication
            X509v3 Key Usage: 
                Digital Signature
    Signature Algorithm: md5WithRSAEncryption
         ec:eb:57:6e:c7:03:a5:74:d7:18:87:35:b7:e9:6b:8b:2c:d8:
         66:3f:a1:28:3b:a3:cc:5e:ea:0a:c4:79:fa:1e:9f:5a:3c:28:
         4c:6e:7c:85:28:0f:ae:22:1d:02:0a:57:5b:c6:a8:04:70:c1:
         b8:02:b2:b4:0f:9e:09:d3:fc:5c:9f:85:c9:b9:62:b8:73:48:
         9e:13:75:b8:f0:9e:2a:6c:ef:0b:dc:2f:2d:a9:c6:bc:9f:b8:
         e8:91:09:e1:65:72:5c:78:4a:b3:e8:66:20:cd:3c:65:08:fe:
         24:34:cd:30:36:54:58:30:47:89:93:d8:75:39:0b:7d:c9:68:
         0f:42:f9:3d:3e:7f:57:81:97:f2:68:4a:02:2c:40:c8:df:f6:
         f8:df:5c:56:5d:be:d1:e1:e8:7a:76:31:7e:ef:ca:e1:16:db:
         43:be:55:31:27:14:a3:d5:f5:6f:e6:7a:fe:e0:28:1e:32:a6:
         38:78:af:8e:c0:d5:75:45:e4:9a:bb:36:88:1b:a1:d9:47:c5:
         2a:ba:40:29:c0:c3:a5:8d:70:34:a5:4e:93:44:45:0f:8b:67:
         9a:8a:8a:50:a0:b3:19:6c:f9:6d:45:36:5a:60:8c:b3:29:a8:
         f0:0d:c4:79:4b:e8:9b:10:50:d8:26:e3:ee:fd:1c:d8:94:8b:
         d7:82:90:c6:de:43:ca:fa:38:63:5e:5b:bc:53:f2:fe:e6:11:
         a7:33:89:5e:b9:de:a0:85:ef:64:8a:b3:23:3e:5e:2e:86:4b:
         1e:57:75:7d:c1:20:0a:db:12:37:c1:ad:f9:f8:89:c2:f9:ae:
         76:25:93:2c:d5:ec:2c:a9:28:b8:68:96:0b:25:ee:6b:8b:a4:
         fe:2c:82:dd:2d:a7:b1:d4:3d:36:1f:70:c9:16:bc:ca:f6:78:
         6d:23:c6:e3:38:06:f4:24:15:69:3c:78:95:3a:53:94:9a:01:
         53:3a:b2:11:30:ab:82:c1:1b:04:d1:86:2f:cf:e2:89:d8:9e:
         24:3b:db:59:d7:6b:cd:19:93:7c:0f:60:8d:d7:ae:5c:29:4b:
         77:5c:40:ac:c1:03:90:b6:57:cb:ad:84:04:a3:b9:d2:d8:9e:
         30:f1:84:fd:70:cb:05:2f:8b:35:d2:33:89:07:2b:bd:c2:83:
         0a:cf:42:3e:6e:08:c0:b8:53:64:5c:a1:df:2c:36:30:0e:f3:
         d8:a8:a3:84:9e:3c:08:7c:56:85:1d:ec:3f:8b:d7:30:a4:14:
         8d:12:bf:3d:b1:2c:2c:43:10:b5:50:5a:1e:46:69:00:57:19:
         6a:65:b4:99:03:1a:6a:4b:0a:8a:da:5d:1a:a6:ac:90:4f:00:
         fe:55:0f:80:1e:2d:f1:79
-----BEGIN CERTIFICATE-----
MIIGrDCCBJSgAwIBAgICBTgwDQYJKoZIhvcNAQEEBQAwgawxCzAJBgNVBAYTAlVT
MQswCQYDVQQIEwJPSDERMA8GA1UEBxMIQ29sdW1idXMxEjAQBgNVBAoTCVZpa2lu
Z1ZQTjEdMBsGA1UECxMUTXlPcmdhbml6YXRpb25hbFVuaXQxFTATBgNVBAMTDFZp
a2luZ1ZQTiBDQTEQMA4GA1UEKRMHRWFzeVJTQTEhMB8GCSqGSIb3DQEJARYSbWVA
bXlob3N0Lm15ZG9tYWluMB4XDTE0MDMyMTIwMjAwMFoXDTI0MDMxODIwMjAwMFow
HjEcMBoGA1UEAxMTQ2xpZW50NDk3Q2VydDU1NjZiNTCCAiIwDQYJKoZIhvcNAQEB
BQADggIPADCCAgoCggIBAMuep8o3FSp9I4sO/iMRp85VjuBNQK4bz8WmlVxMaFVF
4p5n65cYfj3WytWU2wim/Sk0jcpvKyf8LTtwHpgrcpnUPCULnUUc1ISL5vZCsZH9
D0JUwLIOVZmNunVPV+RxfERq+MaND0Pp3An7kNQJMULr651HC6VJ5N1JwPTu4iFg
7uRE72WyQsuD+fLQT9SK1WcP60qi69JObjgy3YJBXfxBhvhMgNS3TTXqlK71VN3P
JN5fq/O6v+5HoilAtEHUwiAWqye1eptCKbXASTTwOU1zxVAK1gNqsO1FnXxJOlm1
unr9Bx+iZsEZLAhVFGi49cd9JQl9MYGJh1Fd3tt7Q8klAg1/w0rvu6LK3CmWJMd0
+a7xFQ4eTaHaxabl4nZI7n5hjo2eDwr+vRzW4K7TBpqg7c5mjLwUHDl5KnwbQRvM
ETG3EU82szXNeOG8Ou6nHqdBRm6GyppOqW7czz7XA8pYFBjx9l8LUOIGg+4qOoIP
wkAlvxmvUG8XwCJh4NIL9pafd3utNOFZWbi0ltEy/dHMlgTAUEPazXuc1W6O6Qw/
qXQsuudZTG9xXOYcD/ncQhFAoKoUD7yN6twMFAarB+5QVn5opNbLMZrrP4vp8Huu
NBgl0ScgSKX/lFYDh5kiHJ4OzF+SxtlZcDg0Wb9AIbP2rDsG2KEpqq3TkJSkQX//
AgMBAAGjggFjMIIBXzAJBgNVHRMEAjAAMC0GCWCGSAGG+EIBDQQgFh5FYXN5LVJT
QSBHZW5lcmF0ZWQgQ2VydGlmaWNhdGUwHQYDVR0OBBYEFOr3Y8oOx9aIzigm+LZs
eGl62oO8MIHhBgNVHSMEgdkwgdaAFBLNYATSoICecO3Gmbh7LMZS/RmhoYGypIGv
MIGsMQswCQYDVQQGEwJVUzELMAkGA1UECBMCT0gxETAPBgNVBAcTCENvbHVtYnVz
MRIwEAYDVQQKEwlWaWtpbmdWUE4xHTAbBgNVBAsTFE15T3JnYW5pemF0aW9uYWxV
bml0MRUwEwYDVQQDEwxWaWtpbmdWUE4gQ0ExEDAOBgNVBCkTB0Vhc3lSU0ExITAf
BgkqhkiG9w0BCQEWEm1lQG15aG9zdC5teWRvbWFpboIJAM81he6Avyo+MBMGA1Ud
JQQMMAoGCCsGAQUFBwMCMAsGA1UdDwQEAwIHgDANBgkqhkiG9w0BAQQFAAOCAgEA
7OtXbscDpXTXGIc1t+lriyzYZj+hKDujzF7qCsR5+h6fWjwoTG58hSgPriIdAgpX
W8aoBHDBuAKytA+eCdP8XJ+FybliuHNInhN1uPCeKmzvC9wvLanGvJ+46JEJ4WVy
XHhKs+hmIM08ZQj+JDTNMDZUWDBHiZPYdTkLfcloD0L5PT5/V4GX8mhKAixAyN/2
+N9cVl2+0eHoenYxfu/K4RbbQ75VMScUo9X1b+Z6/uAoHjKmOHivjsDVdUXkmrs2
iBuh2UfFKrpAKcDDpY1wNKVOk0RFD4tnmoqKUKCzGWz5bUU2WmCMsymo8A3EeUvo
mxBQ2Cbj7v0c2JSL14KQxt5Dyvo4Y15bvFPy/uYRpzOJXrneoIXvZIqzIz5eLoZL
Hld1fcEgCtsSN8Gt+fiJwvmudiWTLNXsLKkouGiWCyXua4uk/iyC3S2nsdQ9Nh9w
yRa8yvZ4bSPG4zgG9CQVaTx4lTpTlJoBUzqyETCrgsEbBNGGL8/iidieJDvbWddr
zRmTfA9gjdeuXClLd1xArMEDkLZXy62EBKO50tieMPGE/XDLBS+LNdIziQcrvcKD
Cs9CPm4IwLhTZFyh3yw2MA7z2KijhJ48CHxWhR3sP4vXMKQUjRK/PbEsLEMQtVBa
HkZpAFcZamW0mQMaaksKitpdGqaskE8A/lUPgB4t8Xk=
-----END CERTIFICATE-----
