Certificate:
    Data:
        Version: 3 (0x2)
        Serial Number: 1386 (0x56a)
    Signature Algorithm: md5WithRSAEncryption
        Issuer: C=US, ST=OH, L=Columbus, O=VikingVPN, OU=MyOrganizationalUnit, CN=VikingVPN CA/name=EasyRSA/emailAddress=me@myhost.mydomain
        Validity
            Not Before: Mar 25 19:13:54 2014 GMT
            Not After : Mar 22 19:13:54 2024 GMT
        Subject: CN=Client509Certe2e23b
        Subject Public Key Info:
            Public Key Algorithm: rsaEncryption
                Public-Key: (4096 bit)
                Modulus:
                    00:ad:0a:c3:fe:c7:94:15:88:79:d4:aa:cd:8b:8b:
                    d8:66:22:02:e9:87:7b:c3:e9:d4:05:31:81:41:f2:
                    0f:1e:11:66:de:a3:57:6f:ce:1a:96:a7:c1:06:22:
                    84:79:2c:59:b6:d7:8a:07:ac:ac:69:5d:a5:fd:b1:
                    81:19:f9:0c:3c:2a:40:cf:fa:01:7d:a2:93:98:4f:
                    27:12:7d:bf:e4:5e:fd:cd:4e:20:4f:b1:d3:40:72:
                    79:b6:b3:09:eb:70:ed:0c:67:09:e9:b0:6e:c7:16:
                    9c:bc:e9:8c:b9:88:97:e8:37:2a:bb:58:85:19:d7:
                    e9:5e:37:4f:22:98:65:06:28:20:ff:6d:cf:71:33:
                    8b:b8:06:8b:f1:f2:e9:23:07:4a:2c:9f:32:f2:af:
                    6d:3f:e0:85:99:79:0e:da:ab:b2:9c:cc:1d:2b:b6:
                    97:c6:74:1d:dc:7e:8b:7d:8c:ce:e1:8b:29:e0:ba:
                    2e:89:45:41:69:0b:59:e6:0e:a6:db:dc:71:cd:f4:
                    b0:9e:7f:2b:d1:ba:0f:af:9b:3b:72:05:c8:6a:14:
                    67:7b:aa:eb:74:05:29:20:4f:b7:3b:74:49:80:27:
                    64:b0:51:7c:66:6f:fa:34:63:be:a1:0c:7b:4c:97:
                    ef:74:e5:db:93:f0:35:97:0e:09:9a:c1:5e:b1:25:
                    19:dd:12:f8:9a:e2:f8:d4:d1:0d:53:1f:6a:47:91:
                    fa:fe:ac:55:9e:02:da:2e:98:fa:0d:b6:c8:59:4c:
                    62:d0:80:4f:eb:e9:2b:05:2c:b0:00:e0:87:aa:e5:
                    0a:5c:1a:0b:a3:be:c9:c8:62:6b:86:0d:12:23:c3:
                    db:0f:11:b2:5f:91:d8:c1:34:b8:13:4f:15:ea:db:
                    ae:72:f2:cc:b8:43:a2:95:51:88:d1:ee:a1:a7:d0:
                    72:ea:d2:9a:37:d9:f8:8e:96:99:bd:20:08:7c:d2:
                    49:4e:4c:f9:aa:40:ab:8b:9e:31:bf:8c:67:4d:d2:
                    a0:55:85:f5:06:ae:a9:c5:90:32:26:03:28:3c:43:
                    64:6a:27:19:11:1a:1a:8d:78:02:56:61:2c:27:46:
                    86:01:97:33:98:2d:24:8f:9f:39:bc:02:23:b8:ab:
                    c5:87:93:04:f1:00:fd:45:28:4d:35:f3:25:84:87:
                    af:25:b6:cc:94:44:ea:7f:bf:bd:f1:55:2c:ba:4b:
                    ee:f4:62:a7:50:7b:63:84:73:16:7e:ee:db:67:00:
                    6d:76:72:45:77:f4:38:94:60:67:2b:5c:5b:fd:d4:
                    46:8f:1b:a6:36:ca:b2:60:c2:10:5a:27:fb:99:2a:
                    f7:53:84:4f:0c:a7:ef:56:a6:11:3a:6b:aa:ae:53:
                    6d:58:6d
                Exponent: 65537 (0x10001)
        X509v3 extensions:
            X509v3 Basic Constraints: 
                CA:FALSE
            Netscape Comment: 
                Easy-RSA Generated Certificate
            X509v3 Subject Key Identifier: 
                09:A8:C4:62:DE:88:2C:41:D8:F1:4E:85:F2:44:87:96:08:76:89:90
            X509v3 Authority Key Identifier: 
                keyid:12:CD:60:04:D2:A0:80:9E:70:ED:C6:99:B8:7B:2C:C6:52:FD:19:A1
                DirName:/C=US/ST=OH/L=Columbus/O=VikingVPN/OU=MyOrganizationalUnit/CN=VikingVPN CA/name=EasyRSA/emailAddress=me@myhost.mydomain
                serial:CF:35:85:EE:80:BF:2A:3E

            X509v3 Extended Key Usage: 
                TLS Web Client Authentication
            X509v3 Key Usage: 
                Digital Signature
    Signature Algorithm: md5WithRSAEncryption
         a8:d6:62:e9:0a:99:e8:23:1b:4a:3e:5e:7a:09:fa:8f:06:2f:
         70:6b:da:20:9c:38:98:0a:7e:d8:f7:92:96:56:b8:15:e5:89:
         c7:4f:ce:ee:d7:ae:9e:b0:c6:8f:20:da:8b:e4:89:ab:28:93:
         db:dc:a5:1d:38:cf:eb:fe:39:32:f1:08:c1:93:2d:e6:86:ae:
         fe:8c:f2:77:c7:15:ab:75:16:fe:54:02:8f:2d:9d:40:ac:53:
         6a:c4:2b:0f:65:52:01:eb:2f:9e:de:1c:d1:5f:67:21:07:d9:
         a2:d0:67:3f:7d:cd:b9:d1:5e:9a:16:7b:cc:62:d6:3e:e4:89:
         f0:00:59:99:bc:5d:99:f5:35:04:af:77:3b:d5:9e:a7:b3:6e:
         57:62:5b:b7:21:5d:6d:94:2d:a0:f8:c5:a1:5b:1f:eb:01:68:
         73:b5:1c:79:ca:e4:81:d7:76:cd:11:17:8e:2f:89:4e:c4:b5:
         1b:e3:ba:f8:31:c2:4d:ed:36:b0:aa:e9:e5:67:bd:87:76:13:
         90:7b:a4:dc:07:20:85:9f:0a:08:55:c9:1c:98:7d:64:e7:48:
         69:99:6a:ad:da:f0:ac:4c:38:96:10:8e:02:df:97:cd:17:cd:
         49:58:e3:13:6b:46:d0:a4:ba:02:8a:fb:64:3e:4d:b9:03:80:
         96:dc:f0:80:d0:b2:ca:df:31:05:07:4b:e9:f4:f5:d9:d6:28:
         09:3b:f0:4c:4b:6a:a6:73:61:a1:57:79:2a:7f:fd:b9:9a:bf:
         41:ad:d2:40:e7:f5:74:20:ae:64:97:73:5c:29:4b:63:7b:cf:
         c8:e4:11:2f:53:f9:02:fa:a3:3f:00:b8:64:e1:74:b0:e6:6a:
         d2:45:e8:f1:5b:5e:2c:52:68:45:52:be:09:7e:85:19:ee:86:
         8c:95:2b:25:d6:2b:31:f0:22:20:21:e5:fa:c1:0c:e8:2d:bc:
         a9:e7:11:18:0d:50:4b:e4:2e:9c:4e:97:58:d7:86:53:88:a0:
         15:00:ea:5d:8d:ec:c5:f6:c4:a8:e1:2a:81:8f:e6:c6:5d:1f:
         28:7f:4f:f8:e7:cf:a7:64:23:7e:15:15:3a:9a:a9:cd:b5:f3:
         bf:c2:df:e3:ca:b6:0b:6a:de:2d:bb:57:1b:b1:47:b7:76:c2:
         5b:1a:6b:78:59:d7:f9:dd:9c:60:63:fd:ad:3c:67:6c:03:a2:
         4b:dc:c2:43:7c:c6:64:0b:fe:50:f9:ac:a9:bb:47:ef:7c:f2:
         d6:2d:44:05:58:0e:5e:53:d4:aa:6c:81:61:11:4b:18:f1:b0:
         de:f9:3d:a0:67:f1:a7:54:08:a2:d5:7c:60:25:38:6c:05:ce:
         37:fd:1a:6c:23:49:64:f5
-----BEGIN CERTIFICATE-----
MIIGrDCCBJSgAwIBAgICBWowDQYJKoZIhvcNAQEEBQAwgawxCzAJBgNVBAYTAlVT
MQswCQYDVQQIEwJPSDERMA8GA1UEBxMIQ29sdW1idXMxEjAQBgNVBAoTCVZpa2lu
Z1ZQTjEdMBsGA1UECxMUTXlPcmdhbml6YXRpb25hbFVuaXQxFTATBgNVBAMTDFZp
a2luZ1ZQTiBDQTEQMA4GA1UEKRMHRWFzeVJTQTEhMB8GCSqGSIb3DQEJARYSbWVA
bXlob3N0Lm15ZG9tYWluMB4XDTE0MDMyNTE5MTM1NFoXDTI0MDMyMjE5MTM1NFow
HjEcMBoGA1UEAxMTQ2xpZW50NTA5Q2VydGUyZTIzYjCCAiIwDQYJKoZIhvcNAQEB
BQADggIPADCCAgoCggIBAK0Kw/7HlBWIedSqzYuL2GYiAumHe8Pp1AUxgUHyDx4R
Zt6jV2/OGpanwQYihHksWbbXigesrGldpf2xgRn5DDwqQM/6AX2ik5hPJxJ9v+Re
/c1OIE+x00ByebazCetw7QxnCemwbscWnLzpjLmIl+g3KrtYhRnX6V43TyKYZQYo
IP9tz3Ezi7gGi/Hy6SMHSiyfMvKvbT/ghZl5DtqrspzMHSu2l8Z0Hdx+i32MzuGL
KeC6LolFQWkLWeYOptvccc30sJ5/K9G6D6+bO3IFyGoUZ3uq63QFKSBPtzt0SYAn
ZLBRfGZv+jRjvqEMe0yX73Tl25PwNZcOCZrBXrElGd0S+Jri+NTRDVMfakeR+v6s
VZ4C2i6Y+g22yFlMYtCAT+vpKwUssADgh6rlClwaC6O+ychia4YNEiPD2w8Rsl+R
2ME0uBNPFerbrnLyzLhDopVRiNHuoafQcurSmjfZ+I6Wmb0gCHzSSU5M+apAq4ue
Mb+MZ03SoFWF9QauqcWQMiYDKDxDZGonGREaGo14AlZhLCdGhgGXM5gtJI+fObwC
I7irxYeTBPEA/UUoTTXzJYSHryW2zJRE6n+/vfFVLLpL7vRip1B7Y4RzFn7u22cA
bXZyRXf0OJRgZytcW/3URo8bpjbKsmDCEFon+5kq91OETwyn71amETprqq5TbVht
AgMBAAGjggFjMIIBXzAJBgNVHRMEAjAAMC0GCWCGSAGG+EIBDQQgFh5FYXN5LVJT
QSBHZW5lcmF0ZWQgQ2VydGlmaWNhdGUwHQYDVR0OBBYEFAmoxGLeiCxB2PFOhfJE
h5YIdomQMIHhBgNVHSMEgdkwgdaAFBLNYATSoICecO3Gmbh7LMZS/RmhoYGypIGv
MIGsMQswCQYDVQQGEwJVUzELMAkGA1UECBMCT0gxETAPBgNVBAcTCENvbHVtYnVz
MRIwEAYDVQQKEwlWaWtpbmdWUE4xHTAbBgNVBAsTFE15T3JnYW5pemF0aW9uYWxV
bml0MRUwEwYDVQQDEwxWaWtpbmdWUE4gQ0ExEDAOBgNVBCkTB0Vhc3lSU0ExITAf
BgkqhkiG9w0BCQEWEm1lQG15aG9zdC5teWRvbWFpboIJAM81he6Avyo+MBMGA1Ud
JQQMMAoGCCsGAQUFBwMCMAsGA1UdDwQEAwIHgDANBgkqhkiG9w0BAQQFAAOCAgEA
qNZi6QqZ6CMbSj5eegn6jwYvcGvaIJw4mAp+2PeSlla4FeWJx0/O7teunrDGjyDa
i+SJqyiT29ylHTjP6/45MvEIwZMt5oau/ozyd8cVq3UW/lQCjy2dQKxTasQrD2VS
Aesvnt4c0V9nIQfZotBnP33NudFemhZ7zGLWPuSJ8ABZmbxdmfU1BK93O9Wep7Nu
V2JbtyFdbZQtoPjFoVsf6wFoc7Ucecrkgdd2zREXji+JTsS1G+O6+DHCTe02sKrp
5We9h3YTkHuk3AcghZ8KCFXJHJh9ZOdIaZlqrdrwrEw4lhCOAt+XzRfNSVjjE2tG
0KS6Aor7ZD5NuQOAltzwgNCyyt8xBQdL6fT12dYoCTvwTEtqpnNhoVd5Kn/9uZq/
Qa3SQOf1dCCuZJdzXClLY3vPyOQRL1P5AvqjPwC4ZOF0sOZq0kXo8VteLFJoRVK+
CX6FGe6GjJUrJdYrMfAiICHl+sEM6C28qecRGA1QS+QunE6XWNeGU4igFQDqXY3s
xfbEqOEqgY/mxl0fKH9P+OfPp2QjfhUVOpqpzbXzv8Lf48q2C2reLbtXG7FHt3bC
WxpreFnX+d2cYGP9rTxnbAOiS9zCQ3zGZAv+UPmsqbtH73zy1i1EBVgOXlPUqmyB
YRFLGPGw3vk9oGfxp1QIotV8YCU4bAXON/0abCNJZPU=
-----END CERTIFICATE-----
