Certificate:
    Data:
        Version: 3 (0x2)
        Serial Number: 1390 (0x56e)
    Signature Algorithm: md5WithRSAEncryption
        Issuer: C=US, ST=OH, L=Columbus, O=VikingVPN, OU=MyOrganizationalUnit, CN=VikingVPN CA/name=EasyRSA/emailAddress=me@myhost.mydomain
        Validity
            Not Before: Mar 26 00:13:40 2014 GMT
            Not After : Mar 23 00:13:40 2024 GMT
        Subject: CN=Client49Cert817a61
        Subject Public Key Info:
            Public Key Algorithm: rsaEncryption
                Public-Key: (4096 bit)
                Modulus:
                    00:ba:7e:78:91:85:3a:2f:79:8b:bb:ef:c9:64:a2:
                    6a:87:ff:b8:21:44:b3:ae:7d:87:72:65:03:8c:d0:
                    99:de:51:ee:77:90:d9:18:8e:df:30:0b:cb:f4:54:
                    96:95:3a:35:a7:e7:16:27:2e:9f:7b:0d:9a:10:11:
                    f3:2c:8d:5f:8b:9b:bb:cd:ea:b6:be:c3:2b:f2:cc:
                    f2:34:ed:6a:a1:60:cb:f7:a5:cd:34:03:a2:92:1d:
                    74:3f:03:bb:9e:cf:c1:4d:92:b1:a0:f9:7d:1d:42:
                    15:89:23:a7:18:3b:a6:c5:df:ee:0a:88:a2:60:55:
                    10:c0:21:15:b5:e5:67:67:a3:23:18:b5:48:e7:52:
                    a2:ef:8b:d9:05:13:eb:cb:24:76:79:c4:d8:73:46:
                    9c:7c:20:b0:4a:70:94:ea:d9:a7:3c:b9:a3:87:67:
                    d4:49:99:05:9f:d3:17:30:d7:40:f8:b6:a6:05:64:
                    2d:4c:f5:3b:0b:6d:0f:61:1c:2b:87:db:b4:55:76:
                    41:2e:bb:a3:b1:be:18:0e:cb:3e:48:57:e3:cc:29:
                    04:3f:ce:ec:e8:5e:af:1e:a0:33:59:9d:34:50:1e:
                    c4:f4:f3:04:3b:d9:a6:f3:42:34:f3:08:60:a3:f4:
                    62:2f:8a:c1:1f:81:05:31:0b:8d:ab:19:63:8a:2b:
                    67:a4:0e:35:8f:86:98:12:a4:2b:04:26:fa:4e:05:
                    8b:a3:ce:45:e5:5c:ff:45:53:25:bb:ba:c5:c5:55:
                    58:5f:f0:e2:25:52:70:ae:53:96:60:dd:a1:c0:f9:
                    4b:cf:37:9e:f5:ef:b4:c6:ff:d6:ec:c1:3f:ab:d9:
                    96:41:19:be:f8:16:26:5b:a9:dc:69:08:b3:74:47:
                    7a:70:71:2c:90:f0:b7:ac:b4:02:f5:75:2d:8c:43:
                    3c:02:c5:7f:2a:f6:4c:b4:d9:2d:c9:61:c3:cb:5d:
                    b6:64:f5:43:54:e6:6b:74:1e:cf:96:1e:16:02:d6:
                    e2:6b:32:bc:bf:7e:cb:6b:30:bd:42:0e:3f:ca:41:
                    74:03:1d:64:2b:ec:bf:1f:c4:f1:f1:12:e6:d1:9d:
                    21:07:b9:d3:7d:ae:77:10:87:df:86:20:88:97:0c:
                    46:fb:c0:21:5d:87:7f:a2:bc:29:5b:14:4e:a9:39:
                    f0:45:5a:b5:f1:c9:d5:7a:d8:8f:39:4d:20:0e:44:
                    2a:07:a7:68:f8:bc:e6:ce:62:ec:82:63:6b:2b:04:
                    38:cc:cf:92:2c:e9:f6:f4:1f:03:80:27:7c:09:26:
                    5b:45:bc:73:bb:1c:bd:72:63:a9:26:7d:66:c3:55:
                    13:67:d1:6f:68:58:f3:0e:92:18:9c:65:c7:fe:96:
                    a4:77:bd
                Exponent: 65537 (0x10001)
        X509v3 extensions:
            X509v3 Basic Constraints: 
                CA:FALSE
            Netscape Comment: 
                Easy-RSA Generated Certificate
            X509v3 Subject Key Identifier: 
                F6:E9:BF:58:A9:38:AD:1B:AD:27:77:9B:AB:D5:BE:1F:1A:30:1D:68
            X509v3 Authority Key Identifier: 
                keyid:12:CD:60:04:D2:A0:80:9E:70:ED:C6:99:B8:7B:2C:C6:52:FD:19:A1
                DirName:/C=US/ST=OH/L=Columbus/O=VikingVPN/OU=MyOrganizationalUnit/CN=VikingVPN CA/name=EasyRSA/emailAddress=me@myhost.mydomain
                serial:CF:35:85:EE:80:BF:2A:3E

            X509v3 Extended Key Usage: 
                TLS Web Client Authentication
            X509v3 Key Usage: 
                Digital Signature
    Signature Algorithm: md5WithRSAEncryption
         7f:42:2d:00:fc:37:52:35:58:94:fc:d3:42:7d:a9:0c:15:38:
         f8:a2:95:79:85:c6:16:c1:33:6f:b6:b6:66:79:13:1b:4f:a0:
         ea:a3:f2:fa:0b:38:d0:5a:51:e1:b2:8f:97:b1:d6:f2:ce:59:
         ba:5f:e9:22:88:cf:31:09:8c:6b:02:df:0d:6e:77:74:2d:04:
         11:ec:0c:9b:dd:5f:a7:d6:bc:d9:e7:c8:36:8d:41:a1:7f:a9:
         14:7b:01:96:a6:59:21:20:4e:23:a8:31:02:bf:f6:c8:fb:0c:
         ea:e4:c6:70:a2:61:09:c1:eb:53:43:d8:a6:2b:9d:db:10:26:
         e2:52:da:94:e9:26:81:f7:99:c4:09:2c:51:12:5e:17:d3:eb:
         f3:c5:87:7d:90:18:14:d3:e3:5b:98:69:57:3c:21:4f:bb:a3:
         e1:1a:e9:91:69:90:2a:f5:36:d8:4f:9e:86:1d:51:50:5e:4a:
         d6:cf:c7:9a:74:d0:a5:0d:b7:3b:38:db:e0:c8:ed:2d:d3:7f:
         74:b3:28:97:36:85:db:f5:77:ea:9a:45:14:f8:aa:3a:4d:f4:
         e2:61:3b:d1:f1:da:c5:f4:2c:ee:34:1c:3e:e9:a1:c0:ea:cb:
         b0:c0:fc:d1:74:fa:b1:da:53:7e:3a:99:a4:f3:20:9b:38:b6:
         5e:b1:e3:29:ff:16:05:5e:41:3e:89:cf:e4:2c:b8:ca:32:2e:
         04:03:37:35:ee:10:70:28:92:5b:e2:31:27:8c:cd:c6:4b:a7:
         3b:93:e8:1b:5f:ed:d9:0d:18:be:f9:63:d2:86:6a:3f:1a:fe:
         1f:39:7c:53:d4:2e:04:13:79:6a:b3:79:00:58:d8:8b:70:a3:
         45:8c:14:6b:0c:20:8a:bf:8b:40:6e:90:67:2f:88:9d:65:3c:
         bb:1e:ad:db:39:1e:c3:87:3f:43:89:7b:10:a6:6b:2e:f0:9e:
         e9:29:d7:ec:6c:36:cf:43:c6:34:d9:f0:3d:55:83:08:6a:0b:
         dc:d1:f5:18:f9:b5:fc:88:09:b4:1a:c0:1f:0b:ec:d1:6d:82:
         fa:a6:94:b9:e7:fd:e6:6d:a7:9a:92:13:da:fb:43:94:21:46:
         66:cb:70:91:48:ba:d6:4d:ea:01:6c:a2:4f:55:bd:cd:69:9d:
         b4:ff:69:8d:05:ad:78:f5:04:66:4c:a7:7b:52:3a:d2:09:55:
         09:7b:a2:0f:48:13:70:d5:ca:bf:bb:b9:f4:7b:96:aa:a8:f8:
         76:40:37:1a:8a:36:2a:a6:45:fb:37:8e:74:6b:23:9a:b8:2a:
         4f:b5:f3:8c:d9:91:eb:3f:5b:7d:a5:8d:fc:d6:fd:10:e3:77:
         62:84:d6:78:83:83:38:ed
-----BEGIN CERTIFICATE-----
MIIGqzCCBJOgAwIBAgICBW4wDQYJKoZIhvcNAQEEBQAwgawxCzAJBgNVBAYTAlVT
MQswCQYDVQQIEwJPSDERMA8GA1UEBxMIQ29sdW1idXMxEjAQBgNVBAoTCVZpa2lu
Z1ZQTjEdMBsGA1UECxMUTXlPcmdhbml6YXRpb25hbFVuaXQxFTATBgNVBAMTDFZp
a2luZ1ZQTiBDQTEQMA4GA1UEKRMHRWFzeVJTQTEhMB8GCSqGSIb3DQEJARYSbWVA
bXlob3N0Lm15ZG9tYWluMB4XDTE0MDMyNjAwMTM0MFoXDTI0MDMyMzAwMTM0MFow
HTEbMBkGA1UEAxMSQ2xpZW50NDlDZXJ0ODE3YTYxMIICIjANBgkqhkiG9w0BAQEF
AAOCAg8AMIICCgKCAgEAun54kYU6L3mLu+/JZKJqh/+4IUSzrn2HcmUDjNCZ3lHu
d5DZGI7fMAvL9FSWlTo1p+cWJy6few2aEBHzLI1fi5u7zeq2vsMr8szyNO1qoWDL
96XNNAOikh10PwO7ns/BTZKxoPl9HUIViSOnGDumxd/uCoiiYFUQwCEVteVnZ6Mj
GLVI51Ki74vZBRPryyR2ecTYc0acfCCwSnCU6tmnPLmjh2fUSZkFn9MXMNdA+Lam
BWQtTPU7C20PYRwrh9u0VXZBLrujsb4YDss+SFfjzCkEP87s6F6vHqAzWZ00UB7E
9PMEO9mm80I08whgo/RiL4rBH4EFMQuNqxljiitnpA41j4aYEqQrBCb6TgWLo85F
5Vz/RVMlu7rFxVVYX/DiJVJwrlOWYN2hwPlLzzee9e+0xv/W7ME/q9mWQRm++BYm
W6ncaQizdEd6cHEskPC3rLQC9XUtjEM8AsV/KvZMtNktyWHDy122ZPVDVOZrdB7P
lh4WAtbiazK8v37LazC9Qg4/ykF0Ax1kK+y/H8Tx8RLm0Z0hB7nTfa53EIffhiCI
lwxG+8AhXYd/orwpWxROqTnwRVq18cnVetiPOU0gDkQqB6do+LzmzmLsgmNrKwQ4
zM+SLOn29B8DgCd8CSZbRbxzuxy9cmOpJn1mw1UTZ9FvaFjzDpIYnGXH/pakd70C
AwEAAaOCAWMwggFfMAkGA1UdEwQCMAAwLQYJYIZIAYb4QgENBCAWHkVhc3ktUlNB
IEdlbmVyYXRlZCBDZXJ0aWZpY2F0ZTAdBgNVHQ4EFgQU9um/WKk4rRutJ3ebq9W+
HxowHWgwgeEGA1UdIwSB2TCB1oAUEs1gBNKggJ5w7caZuHssxlL9GaGhgbKkga8w
gawxCzAJBgNVBAYTAlVTMQswCQYDVQQIEwJPSDERMA8GA1UEBxMIQ29sdW1idXMx
EjAQBgNVBAoTCVZpa2luZ1ZQTjEdMBsGA1UECxMUTXlPcmdhbml6YXRpb25hbFVu
aXQxFTATBgNVBAMTDFZpa2luZ1ZQTiBDQTEQMA4GA1UEKRMHRWFzeVJTQTEhMB8G
CSqGSIb3DQEJARYSbWVAbXlob3N0Lm15ZG9tYWluggkAzzWF7oC/Kj4wEwYDVR0l
BAwwCgYIKwYBBQUHAwIwCwYDVR0PBAQDAgeAMA0GCSqGSIb3DQEBBAUAA4ICAQB/
Qi0A/DdSNViU/NNCfakMFTj4opV5hcYWwTNvtrZmeRMbT6Dqo/L6CzjQWlHhso+X
sdbyzlm6X+kiiM8xCYxrAt8Nbnd0LQQR7Ayb3V+n1rzZ58g2jUGhf6kUewGWplkh
IE4jqDECv/bI+wzq5MZwomEJwetTQ9imK53bECbiUtqU6SaB95nECSxREl4X0+vz
xYd9kBgU0+NbmGlXPCFPu6PhGumRaZAq9TbYT56GHVFQXkrWz8eadNClDbc7ONvg
yO0t0390syiXNoXb9XfqmkUU+Ko6TfTiYTvR8drF9CzuNBw+6aHA6suwwPzRdPqx
2lN+Opmk8yCbOLZeseMp/xYFXkE+ic/kLLjKMi4EAzc17hBwKJJb4jEnjM3GS6c7
k+gbX+3ZDRi++WPShmo/Gv4fOXxT1C4EE3lqs3kAWNiLcKNFjBRrDCCKv4tAbpBn
L4idZTy7Hq3bOR7Dhz9DiXsQpmsu8J7pKdfsbDbPQ8Y02fA9VYMIagvc0fUY+bX8
iAm0GsAfC+zRbYL6ppS55/3mbaeakhPa+0OUIUZmy3CRSLrWTeoBbKJPVb3NaZ20
/2mNBa149QRmTKd7UjrSCVUJe6IPSBNw1cq/u7n0e5aqqPh2QDcaijYqpkX7N450
ayOauCpPtfOM2ZHrP1t9pY381v0Q43dihNZ4g4M47Q==
-----END CERTIFICATE-----
