Certificate:
    Data:
        Version: 3 (0x2)
        Serial Number: 1392 (0x570)
    Signature Algorithm: md5WithRSAEncryption
        Issuer: C=US, ST=OH, L=Columbus, O=VikingVPN, OU=MyOrganizationalUnit, CN=VikingVPN CA/name=EasyRSA/emailAddress=me@myhost.mydomain
        Validity
            Not Before: Mar 26 03:16:54 2014 GMT
            Not After : Mar 23 03:16:54 2024 GMT
        Subject: CN=Client396Cert26fc9b
        Subject Public Key Info:
            Public Key Algorithm: rsaEncryption
                Public-Key: (4096 bit)
                Modulus:
                    00:9d:d0:b4:56:93:0e:20:b8:6c:35:8b:28:cb:78:
                    82:c2:5c:78:5f:2d:6a:57:18:79:54:41:22:4d:62:
                    91:79:4c:b0:36:4c:de:9f:96:50:bd:48:a4:da:b5:
                    3c:be:ff:4a:cb:e2:74:ca:78:e5:67:87:25:3e:80:
                    97:90:30:ea:33:75:64:56:15:3f:1c:e7:9a:1d:4c:
                    7e:bf:be:ef:88:7e:cf:c1:db:cb:62:34:ea:3a:f9:
                    2b:81:8e:6a:32:36:57:f0:c7:e4:5a:ea:19:3f:b3:
                    10:8f:4d:d9:8c:c3:82:05:6a:5d:1d:c6:53:07:b3:
                    48:61:c4:24:59:a4:9f:ea:f2:ae:e7:ee:99:b7:ec:
                    fb:32:09:46:34:df:5a:58:80:68:f9:3e:73:3a:e9:
                    04:45:58:ad:20:c9:60:78:5f:2e:5d:5e:95:1a:9a:
                    8c:97:bd:c7:c0:4b:e6:51:31:0a:cb:e9:a6:67:c6:
                    04:08:f8:da:58:fc:c9:5a:64:e9:b7:ba:91:fb:a5:
                    ea:8f:8a:ec:2b:34:95:b0:fd:7d:9f:1e:b7:70:57:
                    35:b3:4f:a7:e1:3d:9b:14:18:41:64:2d:bb:ca:59:
                    98:c9:c8:31:77:18:26:c3:d2:e6:94:80:93:75:06:
                    34:16:e1:a6:5d:61:91:37:6e:fd:19:ff:53:b6:47:
                    86:e5:3b:ae:38:e4:15:e4:f6:28:3b:7c:12:7c:7b:
                    07:ae:f7:fa:b6:4f:52:f5:e0:ad:23:43:0a:9d:0f:
                    17:0d:d4:9f:57:02:ed:f0:da:53:55:f8:c3:8d:1a:
                    b5:bb:44:25:a3:d5:14:da:82:64:fd:3a:0d:40:3b:
                    ee:2f:c0:01:ab:c8:ba:02:cb:47:79:88:c4:58:5f:
                    c2:47:40:95:78:79:f3:80:26:52:b3:6e:ad:19:65:
                    b2:14:68:65:02:8d:40:86:ad:51:1e:1c:5d:b7:b7:
                    94:51:38:e3:ea:90:fe:4a:62:9f:d4:75:cd:55:3f:
                    d2:ea:aa:1d:1e:35:52:c7:bb:81:b0:fc:43:47:a6:
                    df:ec:f0:ca:e1:65:11:c5:94:f3:cc:29:50:69:1b:
                    4f:f8:06:b6:2a:5e:16:90:17:31:bc:be:a9:32:54:
                    d9:e1:4d:24:27:71:79:3e:3b:a1:34:85:51:80:21:
                    76:6a:ec:c4:8f:e9:d5:ad:d9:d5:4e:d4:d8:26:87:
                    9b:9a:e7:5f:05:ee:f3:45:45:24:e6:fe:f2:65:aa:
                    9d:cc:3b:f1:f8:6a:85:06:37:c5:37:10:21:05:94:
                    49:42:71:a3:c6:e6:b1:a1:03:8d:2b:7d:5b:43:84:
                    3b:30:c2:8f:1c:11:ca:a1:c3:91:f5:dd:dd:e6:ea:
                    3f:b1:9d
                Exponent: 65537 (0x10001)
        X509v3 extensions:
            X509v3 Basic Constraints: 
                CA:FALSE
            Netscape Comment: 
                Easy-RSA Generated Certificate
            X509v3 Subject Key Identifier: 
                B2:E8:80:01:D5:AE:EE:4C:B0:40:B2:7A:B2:C1:05:38:F0:63:C6:8A
            X509v3 Authority Key Identifier: 
                keyid:12:CD:60:04:D2:A0:80:9E:70:ED:C6:99:B8:7B:2C:C6:52:FD:19:A1
                DirName:/C=US/ST=OH/L=Columbus/O=VikingVPN/OU=MyOrganizationalUnit/CN=VikingVPN CA/name=EasyRSA/emailAddress=me@myhost.mydomain
                serial:CF:35:85:EE:80:BF:2A:3E

            X509v3 Extended Key Usage: 
                TLS Web Client Authentication
            X509v3 Key Usage: 
                Digital Signature
    Signature Algorithm: md5WithRSAEncryption
         0b:86:90:13:18:c9:09:8b:5e:d5:ec:bc:80:f8:67:c7:f8:84:
         a4:59:8f:40:a1:4c:e6:f7:fb:5d:10:7a:49:1a:c6:0a:aa:19:
         a0:bc:47:d1:f6:29:60:57:98:7a:e6:ce:52:da:b7:3b:73:d0:
         45:7f:57:7d:a3:ba:f1:09:11:1d:48:da:1b:a2:74:c7:ab:f7:
         3e:6c:69:8d:0e:ef:fe:61:41:77:d4:a0:ef:a5:8e:8e:87:74:
         6d:67:94:ff:a3:fa:f4:67:11:99:8d:c8:2d:1a:f3:d8:a4:06:
         c7:b4:7c:b1:a7:83:ce:cc:26:0a:84:80:56:9b:40:a5:b6:1b:
         99:4a:7b:15:5d:96:23:50:58:ea:89:00:bb:f5:32:5b:35:27:
         60:19:1d:be:c6:3e:23:a4:79:dd:20:04:aa:ad:8a:2c:78:e2:
         25:86:39:5f:d2:2d:be:b9:f1:96:55:2f:b7:2f:10:aa:60:e5:
         df:04:5e:76:ad:dd:f4:b8:f3:d1:bc:be:60:e8:58:9c:b8:53:
         76:b1:a0:d3:bf:8e:c4:8b:47:f0:76:e0:52:20:b7:33:fe:e9:
         4c:d7:59:89:5a:c0:cd:d1:45:9c:a8:a0:8d:39:87:2f:b9:8f:
         f8:a5:54:6e:6d:04:35:3b:f5:3a:23:7f:8e:41:a0:46:0a:4b:
         49:73:3e:de:f8:d1:73:07:92:a4:35:cf:26:e7:de:11:d2:0e:
         04:df:26:f1:06:10:d9:f3:90:b7:af:2b:bb:11:51:fc:aa:57:
         63:66:6e:8a:5a:f0:0d:0c:38:95:f9:aa:2a:8c:74:25:5e:d2:
         9f:31:1e:d7:6f:87:82:03:7e:a5:39:9f:c2:74:83:04:4e:47:
         36:cd:83:d7:a3:19:30:b2:96:c7:be:7c:7d:8f:36:3a:09:44:
         5b:24:17:d7:b0:14:e4:1a:6a:6c:4b:f1:35:3b:bd:48:90:22:
         3e:3f:b1:bc:44:4a:49:f8:7a:32:8d:0a:82:26:a7:10:64:ba:
         af:16:cc:a5:4b:c5:4b:e5:a0:88:10:a6:cd:96:2d:d7:04:b5:
         57:af:fa:59:33:0f:53:1e:8c:a5:35:bb:aa:5a:b3:ce:ce:3d:
         70:95:07:9a:61:c3:8c:89:35:c4:7a:79:e4:63:9d:69:da:64:
         18:59:1a:cf:49:94:31:36:6f:30:49:9f:52:f3:2f:0c:6b:c1:
         a1:17:21:52:f7:ee:0e:30:48:0f:2f:4f:91:40:fc:c7:8b:12:
         a3:1d:1e:2c:5c:68:58:6d:ad:2e:b4:8c:64:03:13:d5:fe:96:
         a4:ff:a3:4b:3b:29:21:38:0c:d9:d3:6a:3b:2b:88:fe:b5:c7:
         70:00:45:bc:1b:b9:9c:a6
-----BEGIN CERTIFICATE-----
MIIGrDCCBJSgAwIBAgICBXAwDQYJKoZIhvcNAQEEBQAwgawxCzAJBgNVBAYTAlVT
MQswCQYDVQQIEwJPSDERMA8GA1UEBxMIQ29sdW1idXMxEjAQBgNVBAoTCVZpa2lu
Z1ZQTjEdMBsGA1UECxMUTXlPcmdhbml6YXRpb25hbFVuaXQxFTATBgNVBAMTDFZp
a2luZ1ZQTiBDQTEQMA4GA1UEKRMHRWFzeVJTQTEhMB8GCSqGSIb3DQEJARYSbWVA
bXlob3N0Lm15ZG9tYWluMB4XDTE0MDMyNjAzMTY1NFoXDTI0MDMyMzAzMTY1NFow
HjEcMBoGA1UEAxMTQ2xpZW50Mzk2Q2VydDI2ZmM5YjCCAiIwDQYJKoZIhvcNAQEB
BQADggIPADCCAgoCggIBAJ3QtFaTDiC4bDWLKMt4gsJceF8talcYeVRBIk1ikXlM
sDZM3p+WUL1IpNq1PL7/SsvidMp45WeHJT6Al5Aw6jN1ZFYVPxznmh1Mfr++74h+
z8Hby2I06jr5K4GOajI2V/DH5FrqGT+zEI9N2YzDggVqXR3GUwezSGHEJFmkn+ry
rufumbfs+zIJRjTfWliAaPk+czrpBEVYrSDJYHhfLl1elRqajJe9x8BL5lExCsvp
pmfGBAj42lj8yVpk6be6kful6o+K7Cs0lbD9fZ8et3BXNbNPp+E9mxQYQWQtu8pZ
mMnIMXcYJsPS5pSAk3UGNBbhpl1hkTdu/Rn/U7ZHhuU7rjjkFeT2KDt8Enx7B673
+rZPUvXgrSNDCp0PFw3Un1cC7fDaU1X4w40atbtEJaPVFNqCZP06DUA77i/AAavI
ugLLR3mIxFhfwkdAlXh584AmUrNurRllshRoZQKNQIatUR4cXbe3lFE44+qQ/kpi
n9R1zVU/0uqqHR41Use7gbD8Q0em3+zwyuFlEcWU88wpUGkbT/gGtipeFpAXMby+
qTJU2eFNJCdxeT47oTSFUYAhdmrsxI/p1a3Z1U7U2CaHm5rnXwXu80VFJOb+8mWq
ncw78fhqhQY3xTcQIQWUSUJxo8bmsaEDjSt9W0OEOzDCjxwRyqHDkfXd3ebqP7Gd
AgMBAAGjggFjMIIBXzAJBgNVHRMEAjAAMC0GCWCGSAGG+EIBDQQgFh5FYXN5LVJT
QSBHZW5lcmF0ZWQgQ2VydGlmaWNhdGUwHQYDVR0OBBYEFLLogAHVru5MsECyerLB
BTjwY8aKMIHhBgNVHSMEgdkwgdaAFBLNYATSoICecO3Gmbh7LMZS/RmhoYGypIGv
MIGsMQswCQYDVQQGEwJVUzELMAkGA1UECBMCT0gxETAPBgNVBAcTCENvbHVtYnVz
MRIwEAYDVQQKEwlWaWtpbmdWUE4xHTAbBgNVBAsTFE15T3JnYW5pemF0aW9uYWxV
bml0MRUwEwYDVQQDEwxWaWtpbmdWUE4gQ0ExEDAOBgNVBCkTB0Vhc3lSU0ExITAf
BgkqhkiG9w0BCQEWEm1lQG15aG9zdC5teWRvbWFpboIJAM81he6Avyo+MBMGA1Ud
JQQMMAoGCCsGAQUFBwMCMAsGA1UdDwQEAwIHgDANBgkqhkiG9w0BAQQFAAOCAgEA
C4aQExjJCYte1ey8gPhnx/iEpFmPQKFM5vf7XRB6SRrGCqoZoLxH0fYpYFeYeubO
Utq3O3PQRX9XfaO68QkRHUjaG6J0x6v3PmxpjQ7v/mFBd9Sg76WOjod0bWeU/6P6
9GcRmY3ILRrz2KQGx7R8saeDzswmCoSAVptApbYbmUp7FV2WI1BY6okAu/UyWzUn
YBkdvsY+I6R53SAEqq2KLHjiJYY5X9ItvrnxllUvty8QqmDl3wRedq3d9Ljz0by+
YOhYnLhTdrGg07+OxItH8HbgUiC3M/7pTNdZiVrAzdFFnKigjTmHL7mP+KVUbm0E
NTv1OiN/jkGgRgpLSXM+3vjRcweSpDXPJufeEdIOBN8m8QYQ2fOQt68ruxFR/KpX
Y2ZuilrwDQw4lfmqKox0JV7SnzEe12+HggN+pTmfwnSDBE5HNs2D16MZMLKWx758
fY82OglEWyQX17AU5BpqbEvxNTu9SJAiPj+xvERKSfh6Mo0KgianEGS6rxbMpUvF
S+WgiBCmzZYt1wS1V6/6WTMPUx6MpTW7qlqzzs49cJUHmmHDjIk1xHp55GOdadpk
GFkaz0mUMTZvMEmfUvMvDGvBoRchUvfuDjBIDy9PkUD8x4sSox0eLFxoWG2tLrSM
ZAMT1f6WpP+jSzspITgM2dNqOyuI/rXHcABFvBu5nKY=
-----END CERTIFICATE-----
