Certificate:
    Data:
        Version: 3 (0x2)
        Serial Number: 1393 (0x571)
    Signature Algorithm: md5WithRSAEncryption
        Issuer: C=US, ST=OH, L=Columbus, O=VikingVPN, OU=MyOrganizationalUnit, CN=VikingVPN CA/name=EasyRSA/emailAddress=me@myhost.mydomain
        Validity
            Not Before: Mar 26 10:38:54 2014 GMT
            Not After : Mar 23 10:38:54 2024 GMT
        Subject: CN=Client258Cert047602
        Subject Public Key Info:
            Public Key Algorithm: rsaEncryption
                Public-Key: (4096 bit)
                Modulus:
                    00:95:fb:b1:38:61:58:7c:4a:2a:d4:6f:9f:bd:8d:
                    7d:25:11:bc:89:07:00:17:f2:36:04:84:84:e5:6b:
                    b5:2e:1d:bb:bb:5c:a2:45:83:52:84:11:b0:76:63:
                    83:52:65:e1:08:f3:00:6c:05:5e:2d:40:b4:c8:5a:
                    45:f1:73:91:05:7c:6e:d8:02:cc:06:1a:3c:f7:51:
                    71:76:79:0c:af:bc:19:e3:f4:cd:00:20:90:23:4e:
                    bf:1e:94:45:88:85:92:d2:3c:9b:22:95:77:53:76:
                    29:91:46:3e:c4:18:4f:d2:b3:a9:74:9e:71:7d:2d:
                    1d:da:f4:fe:57:15:c5:44:05:73:49:85:0f:1e:22:
                    ae:53:8c:17:82:9a:40:75:d3:d3:4d:e4:ce:52:8a:
                    01:21:98:d1:03:91:b4:d7:47:fa:e8:e6:db:f1:f7:
                    7b:e1:47:b7:17:59:fd:05:4d:0e:19:5a:e6:b2:8c:
                    a1:bb:e2:73:e2:77:94:b3:aa:f3:bd:ec:33:85:fb:
                    33:da:8c:49:6a:a6:7b:48:d8:8e:27:7a:9f:62:d1:
                    02:48:28:1d:88:0e:99:85:7f:ea:2c:c4:09:d4:15:
                    60:85:63:4b:56:38:41:66:64:a8:ee:35:f3:f7:53:
                    f7:a7:45:08:c6:50:47:b8:ba:43:7b:61:ea:c8:0b:
                    d4:61:99:b8:62:6c:1a:c9:28:44:f1:f4:f9:43:20:
                    6c:2e:40:90:51:28:7b:fc:69:b7:c4:93:47:de:24:
                    d1:5d:87:ee:fe:96:54:2f:91:d3:33:b6:44:0b:c7:
                    f9:5f:f0:51:fc:9d:c0:7b:98:84:20:9d:93:7e:94:
                    66:bc:d9:5b:95:ba:3a:2d:24:98:b6:40:e2:48:05:
                    e5:df:0e:96:84:60:6d:05:32:09:8b:fd:b6:10:e9:
                    0c:43:41:10:88:7e:c7:be:dd:78:92:61:36:66:7d:
                    01:4e:d9:3c:c2:5c:84:33:08:87:e0:77:b3:59:18:
                    3b:ba:15:0f:9b:18:06:ef:d6:5d:23:c6:06:7a:9e:
                    f2:49:8e:70:d8:7a:0d:0a:c9:53:8a:d9:af:2d:75:
                    6c:27:00:aa:64:3c:48:ec:e2:48:a9:bf:9d:ae:eb:
                    99:06:50:48:34:11:a2:c3:49:e5:40:b6:24:bf:15:
                    52:52:91:11:5a:39:21:51:61:91:35:5e:22:e2:06:
                    46:05:35:1b:c1:ff:50:96:57:9b:e6:aa:87:80:89:
                    1f:6b:11:58:e4:ee:73:ad:5a:78:58:24:24:d4:19:
                    76:df:51:fe:02:51:24:c2:6e:82:91:b0:92:6b:6d:
                    c6:52:1e:ea:a5:75:5d:2f:df:9d:bc:49:84:71:10:
                    2b:2f:7f
                Exponent: 65537 (0x10001)
        X509v3 extensions:
            X509v3 Basic Constraints: 
                CA:FALSE
            Netscape Comment: 
                Easy-RSA Generated Certificate
            X509v3 Subject Key Identifier: 
                C7:A8:5C:F7:80:F6:BF:13:AC:E7:AB:DE:B2:31:BB:EA:88:88:6C:87
            X509v3 Authority Key Identifier: 
                keyid:12:CD:60:04:D2:A0:80:9E:70:ED:C6:99:B8:7B:2C:C6:52:FD:19:A1
                DirName:/C=US/ST=OH/L=Columbus/O=VikingVPN/OU=MyOrganizationalUnit/CN=VikingVPN CA/name=EasyRSA/emailAddress=me@myhost.mydomain
                serial:CF:35:85:EE:80:BF:2A:3E

            X509v3 Extended Key Usage: 
                TLS Web Client Authentication
            X509v3 Key Usage: 
                Digital Signature
    Signature Algorithm: md5WithRSAEncryption
         cd:f3:e5:93:36:a5:f6:f0:f6:ab:3f:63:ce:5c:c8:7e:68:7f:
         57:4a:17:70:d3:1d:c7:a9:ac:85:18:17:58:59:62:5a:22:c5:
         27:43:f0:22:04:fa:87:5a:5a:b9:84:c7:73:f5:8c:a9:17:7d:
         91:99:f6:11:68:d6:be:e6:7f:8e:fe:49:c1:7c:1d:40:7d:d3:
         f4:cf:8b:9f:4f:69:f2:8c:08:cc:9d:aa:8f:18:60:7f:7b:ed:
         3d:f1:ef:f7:7a:a9:6d:31:45:15:4b:e1:1a:84:c4:88:da:a9:
         ca:ab:9e:71:a4:1b:ee:93:4c:f9:75:21:75:f0:22:21:11:c4:
         6e:b4:d8:1d:7c:9e:fd:06:55:d4:4e:f2:10:d7:54:97:cf:96:
         e8:bc:f2:04:62:9d:48:ef:c0:c9:29:ac:d6:61:95:b8:7d:10:
         be:9d:a3:8b:0a:fe:93:c1:f5:76:5b:89:9b:f9:f5:c8:97:48:
         48:0e:30:c4:60:8d:8d:cf:f0:84:68:66:80:a8:f4:2e:39:1c:
         ca:4c:dd:34:37:ba:fb:92:d9:f2:62:72:65:bc:91:76:b3:a5:
         85:92:d2:1c:1a:09:ba:94:c1:66:13:64:cc:3e:11:42:4d:74:
         04:27:1f:94:69:f3:30:99:55:8a:d7:e9:78:b2:bf:a3:86:11:
         79:16:b4:56:f4:4a:09:ea:99:ff:17:5d:d0:cc:6c:b0:2f:02:
         89:33:89:9a:51:c3:8b:8c:17:e7:05:8b:34:da:30:b3:3f:00:
         9c:69:51:10:2f:e1:39:ab:a6:15:36:3f:97:4a:1c:f3:9a:a0:
         5a:9f:85:1a:d7:40:13:2b:76:fb:a4:f8:00:d9:22:47:64:f0:
         8a:98:77:c0:3a:92:b4:ad:6f:f7:93:08:10:90:80:60:1b:e2:
         e2:62:cf:18:fd:be:5c:34:37:30:78:45:2b:b3:35:13:1d:ab:
         b0:56:a5:96:09:d2:fd:7e:02:63:de:31:a6:cb:73:60:bc:bc:
         54:c6:13:c6:03:d1:63:ea:69:d5:0e:0c:a7:a1:1b:a2:0a:1c:
         03:38:9f:46:14:11:af:77:79:1a:4d:5a:5c:dd:02:ca:d9:73:
         52:59:72:c3:f1:a1:19:f8:0c:b1:89:8b:8b:04:4b:d0:6e:be:
         02:5d:18:52:ae:84:01:32:7b:4d:a3:0e:ef:cf:b8:20:31:b5:
         cf:1e:43:22:34:8a:3c:a3:cc:6a:f4:03:58:fd:55:d0:c1:b9:
         12:c9:e4:d5:9a:bf:87:be:47:91:71:79:f8:e6:d5:de:2c:cb:
         ea:4f:c6:a0:48:07:d2:92:53:3b:17:50:8f:2d:d7:a6:5b:25:
         1f:fa:15:0b:8c:2b:b3:04
-----BEGIN CERTIFICATE-----
MIIGrDCCBJSgAwIBAgICBXEwDQYJKoZIhvcNAQEEBQAwgawxCzAJBgNVBAYTAlVT
MQswCQYDVQQIEwJPSDERMA8GA1UEBxMIQ29sdW1idXMxEjAQBgNVBAoTCVZpa2lu
Z1ZQTjEdMBsGA1UECxMUTXlPcmdhbml6YXRpb25hbFVuaXQxFTATBgNVBAMTDFZp
a2luZ1ZQTiBDQTEQMA4GA1UEKRMHRWFzeVJTQTEhMB8GCSqGSIb3DQEJARYSbWVA
bXlob3N0Lm15ZG9tYWluMB4XDTE0MDMyNjEwMzg1NFoXDTI0MDMyMzEwMzg1NFow
HjEcMBoGA1UEAxMTQ2xpZW50MjU4Q2VydDA0NzYwMjCCAiIwDQYJKoZIhvcNAQEB
BQADggIPADCCAgoCggIBAJX7sThhWHxKKtRvn72NfSURvIkHABfyNgSEhOVrtS4d
u7tcokWDUoQRsHZjg1Jl4QjzAGwFXi1AtMhaRfFzkQV8btgCzAYaPPdRcXZ5DK+8
GeP0zQAgkCNOvx6URYiFktI8myKVd1N2KZFGPsQYT9KzqXSecX0tHdr0/lcVxUQF
c0mFDx4irlOMF4KaQHXT003kzlKKASGY0QORtNdH+ujm2/H3e+FHtxdZ/QVNDhla
5rKMobvic+J3lLOq873sM4X7M9qMSWqme0jYjid6n2LRAkgoHYgOmYV/6izECdQV
YIVjS1Y4QWZkqO418/dT96dFCMZQR7i6Q3th6sgL1GGZuGJsGskoRPH0+UMgbC5A
kFEoe/xpt8STR94k0V2H7v6WVC+R0zO2RAvH+V/wUfydwHuYhCCdk36UZrzZW5W6
Oi0kmLZA4kgF5d8OloRgbQUyCYv9thDpDENBEIh+x77deJJhNmZ9AU7ZPMJchDMI
h+B3s1kYO7oVD5sYBu/WXSPGBnqe8kmOcNh6DQrJU4rZry11bCcAqmQ8SOziSKm/
na7rmQZQSDQRosNJ5UC2JL8VUlKREVo5IVFhkTVeIuIGRgU1G8H/UJZXm+aqh4CJ
H2sRWOTuc61aeFgkJNQZdt9R/gJRJMJugpGwkmttxlIe6qV1XS/fnbxJhHEQKy9/
AgMBAAGjggFjMIIBXzAJBgNVHRMEAjAAMC0GCWCGSAGG+EIBDQQgFh5FYXN5LVJT
QSBHZW5lcmF0ZWQgQ2VydGlmaWNhdGUwHQYDVR0OBBYEFMeoXPeA9r8TrOer3rIx
u+qIiGyHMIHhBgNVHSMEgdkwgdaAFBLNYATSoICecO3Gmbh7LMZS/RmhoYGypIGv
MIGsMQswCQYDVQQGEwJVUzELMAkGA1UECBMCT0gxETAPBgNVBAcTCENvbHVtYnVz
MRIwEAYDVQQKEwlWaWtpbmdWUE4xHTAbBgNVBAsTFE15T3JnYW5pemF0aW9uYWxV
bml0MRUwEwYDVQQDEwxWaWtpbmdWUE4gQ0ExEDAOBgNVBCkTB0Vhc3lSU0ExITAf
BgkqhkiG9w0BCQEWEm1lQG15aG9zdC5teWRvbWFpboIJAM81he6Avyo+MBMGA1Ud
JQQMMAoGCCsGAQUFBwMCMAsGA1UdDwQEAwIHgDANBgkqhkiG9w0BAQQFAAOCAgEA
zfPlkzal9vD2qz9jzlzIfmh/V0oXcNMdx6mshRgXWFliWiLFJ0PwIgT6h1pauYTH
c/WMqRd9kZn2EWjWvuZ/jv5JwXwdQH3T9M+Ln09p8owIzJ2qjxhgf3vtPfHv93qp
bTFFFUvhGoTEiNqpyquecaQb7pNM+XUhdfAiIRHEbrTYHXye/QZV1E7yENdUl8+W
6LzyBGKdSO/AySms1mGVuH0Qvp2jiwr+k8H1dluJm/n1yJdISA4wxGCNjc/whGhm
gKj0LjkcykzdNDe6+5LZ8mJyZbyRdrOlhZLSHBoJupTBZhNkzD4RQk10BCcflGnz
MJlVitfpeLK/o4YReRa0VvRKCeqZ/xdd0MxssC8CiTOJmlHDi4wX5wWLNNowsz8A
nGlREC/hOaumFTY/l0oc85qgWp+FGtdAEyt2+6T4ANkiR2Twiph3wDqStK1v95MI
EJCAYBvi4mLPGP2+XDQ3MHhFK7M1Ex2rsFallgnS/X4CY94xpstzYLy8VMYTxgPR
Y+pp1Q4Mp6EbogocAzifRhQRr3d5Gk1aXN0CytlzUllyw/GhGfgMsYmLiwRL0G6+
Al0YUq6EATJ7TaMO78+4IDG1zx5DIjSKPKPMavQDWP1V0MG5Esnk1Zq/h75HkXF5
+ObV3izL6k/GoEgH0pJTOxdQjy3XplslH/oVC4wrswQ=
-----END CERTIFICATE-----
