Certificate:
    Data:
        Version: 3 (0x2)
        Serial Number: 1408 (0x580)
    Signature Algorithm: md5WithRSAEncryption
        Issuer: C=US, ST=OH, L=Columbus, O=VikingVPN, OU=MyOrganizationalUnit, CN=VikingVPN CA/name=EasyRSA/emailAddress=me@myhost.mydomain
        Validity
            Not Before: Mar 29 15:31:35 2014 GMT
            Not After : Mar 26 15:31:35 2024 GMT
        Subject: CN=Client1Cert5552b7
        Subject Public Key Info:
            Public Key Algorithm: rsaEncryption
                Public-Key: (4096 bit)
                Modulus:
                    00:da:a4:88:2a:d6:ee:b1:ab:c0:9b:a8:91:0d:da:
                    f6:9f:84:d5:17:91:9b:eb:73:e5:96:8d:95:86:5a:
                    c9:86:f9:8b:9e:e4:01:2e:8a:bd:d6:83:f2:74:fe:
                    71:5b:36:fc:91:76:f9:5d:39:90:62:10:49:be:a1:
                    18:dc:82:b2:81:05:4e:b0:63:ed:ee:f2:a5:de:00:
                    a8:15:40:5a:5d:ef:76:3e:e0:e0:49:d7:41:e7:33:
                    c3:5d:a3:68:a9:e1:4e:30:a9:6e:7c:7c:6e:4b:67:
                    d0:ba:c4:45:0b:91:e6:b7:70:56:35:33:14:b4:fc:
                    2c:b3:16:5a:59:aa:62:34:60:8e:fc:4d:ed:7a:94:
                    27:61:54:a1:28:3f:5f:99:10:53:15:1a:dd:5c:b3:
                    f5:98:4b:a3:85:1d:1b:7d:e2:1b:ff:ab:fd:0e:22:
                    04:9d:95:51:77:56:bf:de:b2:d7:67:9c:34:82:d1:
                    d5:6b:3c:9e:1e:00:4c:44:61:7a:0a:d1:0d:2b:2c:
                    d6:93:49:c4:0b:94:07:24:0c:89:32:72:dc:5f:23:
                    67:21:6c:6b:09:d5:7d:21:dd:76:d7:0d:c5:6c:99:
                    33:c4:07:3c:08:b0:12:b3:d5:c7:81:13:6e:ea:56:
                    10:10:eb:e6:9f:79:d6:68:aa:6f:33:fb:57:7b:6d:
                    5b:84:88:1a:1e:97:19:7e:14:c5:6b:99:0c:33:b9:
                    8a:09:e8:79:25:a2:eb:42:e9:51:8e:63:f3:9f:90:
                    b2:b9:eb:eb:9f:9a:17:be:1a:4e:c4:52:11:52:fb:
                    18:77:1f:94:97:1d:0a:23:50:52:c7:16:fd:be:79:
                    1e:28:7b:f0:5b:5e:a9:bf:19:bc:76:43:2f:c6:5e:
                    11:70:63:f6:24:36:94:7d:7e:e8:5e:c6:11:6f:29:
                    5b:ed:7d:0c:4a:35:c7:b2:39:21:c5:e8:5a:9f:05:
                    70:f7:64:19:c2:68:c7:5b:47:7f:4f:c2:49:19:4d:
                    08:fc:8a:b3:8e:4f:3e:cf:0c:b2:9f:05:b6:b4:54:
                    60:0b:45:68:72:91:29:cc:71:37:25:bf:a9:03:18:
                    a4:94:9b:3d:4b:32:a1:f0:ff:cc:c9:66:e9:b9:e3:
                    07:0c:24:31:a4:a2:fc:e3:37:20:f7:17:00:44:57:
                    5d:4a:68:9f:07:99:65:f1:70:71:d5:9b:10:21:66:
                    58:71:c4:ab:dc:69:c6:2a:5c:d9:fc:50:76:3c:d4:
                    46:9d:8c:9f:c8:41:ee:2f:eb:b8:20:58:b2:d9:6e:
                    50:1e:ac:f0:f1:95:1c:2b:ae:5f:bd:4a:22:12:80:
                    d5:90:c8:e2:82:f4:47:20:09:51:c7:e8:9c:ff:97:
                    50:d1:07
                Exponent: 65537 (0x10001)
        X509v3 extensions:
            X509v3 Basic Constraints: 
                CA:FALSE
            Netscape Comment: 
                Easy-RSA Generated Certificate
            X509v3 Subject Key Identifier: 
                D9:CA:6A:6F:61:E3:EB:C9:5C:46:93:84:2B:EE:1A:C3:79:E2:9C:C0
            X509v3 Authority Key Identifier: 
                keyid:12:CD:60:04:D2:A0:80:9E:70:ED:C6:99:B8:7B:2C:C6:52:FD:19:A1
                DirName:/C=US/ST=OH/L=Columbus/O=VikingVPN/OU=MyOrganizationalUnit/CN=VikingVPN CA/name=EasyRSA/emailAddress=me@myhost.mydomain
                serial:CF:35:85:EE:80:BF:2A:3E

            X509v3 Extended Key Usage: 
                TLS Web Client Authentication
            X509v3 Key Usage: 
                Digital Signature
    Signature Algorithm: md5WithRSAEncryption
         5f:c9:d2:9d:33:76:2d:bb:36:05:ae:ab:64:9e:24:44:00:93:
         eb:8a:36:5d:8b:40:35:c3:1b:68:1d:f4:54:6c:4f:df:21:00:
         65:86:25:7f:d9:5f:9a:c6:3e:55:ac:0a:c8:07:aa:6d:f0:3e:
         93:e5:c4:00:f3:97:36:da:6c:6d:5d:e2:38:f4:d3:a8:9e:30:
         65:9a:0d:7e:c4:f7:7f:be:c5:cb:dc:09:e2:90:6d:65:62:77:
         2b:ea:fb:75:fa:6a:13:03:e3:c0:12:56:d9:44:df:58:74:a1:
         79:cb:1c:5f:76:3b:b6:ce:2b:99:b8:0a:c8:60:20:2f:a4:c7:
         4e:db:9c:82:8f:f6:3d:48:b0:25:a8:30:c4:9a:b3:ee:36:c4:
         42:00:c1:a8:27:91:c6:64:c0:ff:1a:cd:3c:00:12:90:c6:42:
         e0:23:ea:32:b7:03:c4:63:0a:67:b6:7d:a8:61:18:c2:ec:f5:
         c6:6e:4b:71:88:03:01:c6:96:b7:90:57:8f:1d:bd:fe:68:9c:
         a4:40:15:e7:41:87:fe:7e:d0:3f:40:19:a7:9f:2f:15:d6:c7:
         10:27:43:36:33:3a:ac:1e:d3:9c:fb:1c:e7:39:2f:9f:1c:c1:
         07:3b:3e:00:ad:20:35:58:bf:3c:bc:32:8d:ca:6e:58:88:f5:
         40:b1:9b:c9:b2:ea:06:b9:cd:a8:7c:a9:13:cf:3e:d3:15:ab:
         97:07:35:81:a1:54:a7:70:0b:8f:35:cb:fd:02:4b:c3:ef:7e:
         66:81:17:07:3c:87:40:28:1b:53:cf:12:d9:5f:a9:d3:64:7e:
         c8:9b:ea:66:cd:93:a1:61:1b:22:00:f3:03:d5:f3:f6:42:72:
         9d:b1:f7:63:c1:11:ed:ce:83:ba:fb:54:10:c0:8a:03:ce:0c:
         33:4b:1b:88:bf:af:fe:35:d4:f0:eb:78:ac:18:54:90:c9:cd:
         70:1a:17:c9:72:b1:7b:32:90:f8:f1:04:b9:16:20:7b:4d:cd:
         f1:62:10:c9:0a:9e:de:f3:d6:6a:f9:48:48:78:55:43:c0:83:
         dc:d4:33:23:01:1b:c5:be:3d:5f:89:6e:f5:32:14:81:d8:e7:
         c8:f6:f5:11:2f:4c:1a:4d:a1:ce:83:73:3c:af:de:ac:5a:4d:
         73:5d:09:1c:76:b0:02:bb:f4:00:12:96:c1:5e:a4:73:1a:9b:
         97:ab:5d:a4:ec:74:4f:a5:1f:fe:72:0f:c0:f6:15:37:b0:9a:
         44:46:7d:70:d5:4c:5e:75:fa:20:e5:3a:d4:9f:5d:f6:7f:f4:
         41:0d:07:08:d3:a3:4c:51:88:34:09:8f:ec:67:4b:c9:b5:85:
         03:90:9f:f2:d0:83:c4:0f
-----BEGIN CERTIFICATE-----
MIIGqjCCBJKgAwIBAgICBYAwDQYJKoZIhvcNAQEEBQAwgawxCzAJBgNVBAYTAlVT
MQswCQYDVQQIEwJPSDERMA8GA1UEBxMIQ29sdW1idXMxEjAQBgNVBAoTCVZpa2lu
Z1ZQTjEdMBsGA1UECxMUTXlPcmdhbml6YXRpb25hbFVuaXQxFTATBgNVBAMTDFZp
a2luZ1ZQTiBDQTEQMA4GA1UEKRMHRWFzeVJTQTEhMB8GCSqGSIb3DQEJARYSbWVA
bXlob3N0Lm15ZG9tYWluMB4XDTE0MDMyOTE1MzEzNVoXDTI0MDMyNjE1MzEzNVow
HDEaMBgGA1UEAxMRQ2xpZW50MUNlcnQ1NTUyYjcwggIiMA0GCSqGSIb3DQEBAQUA
A4ICDwAwggIKAoICAQDapIgq1u6xq8CbqJEN2vafhNUXkZvrc+WWjZWGWsmG+Yue
5AEuir3Wg/J0/nFbNvyRdvldOZBiEEm+oRjcgrKBBU6wY+3u8qXeAKgVQFpd73Y+
4OBJ10HnM8Ndo2ip4U4wqW58fG5LZ9C6xEULkea3cFY1MxS0/CyzFlpZqmI0YI78
Te16lCdhVKEoP1+ZEFMVGt1cs/WYS6OFHRt94hv/q/0OIgSdlVF3Vr/estdnnDSC
0dVrPJ4eAExEYXoK0Q0rLNaTScQLlAckDIkyctxfI2chbGsJ1X0h3XbXDcVsmTPE
BzwIsBKz1ceBE27qVhAQ6+afedZoqm8z+1d7bVuEiBoelxl+FMVrmQwzuYoJ6Hkl
outC6VGOY/OfkLK56+ufmhe+Gk7EUhFS+xh3H5SXHQojUFLHFv2+eR4oe/BbXqm/
Gbx2Qy/GXhFwY/YkNpR9fuhexhFvKVvtfQxKNceyOSHF6FqfBXD3ZBnCaMdbR39P
wkkZTQj8irOOTz7PDLKfBba0VGALRWhykSnMcTclv6kDGKSUmz1LMqHw/8zJZum5
4wcMJDGkovzjNyD3FwBEV11KaJ8HmWXxcHHVmxAhZlhxxKvcacYqXNn8UHY81Ead
jJ/IQe4v67ggWLLZblAerPDxlRwrrl+9SiISgNWQyOKC9EcgCVHH6Jz/l1DRBwID
AQABo4IBYzCCAV8wCQYDVR0TBAIwADAtBglghkgBhvhCAQ0EIBYeRWFzeS1SU0Eg
R2VuZXJhdGVkIENlcnRpZmljYXRlMB0GA1UdDgQWBBTZympvYePryVxGk4Qr7hrD
eeKcwDCB4QYDVR0jBIHZMIHWgBQSzWAE0qCAnnDtxpm4eyzGUv0ZoaGBsqSBrzCB
rDELMAkGA1UEBhMCVVMxCzAJBgNVBAgTAk9IMREwDwYDVQQHEwhDb2x1bWJ1czES
MBAGA1UEChMJVmlraW5nVlBOMR0wGwYDVQQLExRNeU9yZ2FuaXphdGlvbmFsVW5p
dDEVMBMGA1UEAxMMVmlraW5nVlBOIENBMRAwDgYDVQQpEwdFYXN5UlNBMSEwHwYJ
KoZIhvcNAQkBFhJtZUBteWhvc3QubXlkb21haW6CCQDPNYXugL8qPjATBgNVHSUE
DDAKBggrBgEFBQcDAjALBgNVHQ8EBAMCB4AwDQYJKoZIhvcNAQEEBQADggIBAF/J
0p0zdi27NgWuq2SeJEQAk+uKNl2LQDXDG2gd9FRsT98hAGWGJX/ZX5rGPlWsCsgH
qm3wPpPlxADzlzbabG1d4jj006ieMGWaDX7E93++xcvcCeKQbWVidyvq+3X6ahMD
48ASVtlE31h0oXnLHF92O7bOK5m4CshgIC+kx07bnIKP9j1IsCWoMMSas+42xEIA
wagnkcZkwP8azTwAEpDGQuAj6jK3A8RjCme2fahhGMLs9cZuS3GIAwHGlreQV48d
vf5onKRAFedBh/5+0D9AGaefLxXWxxAnQzYzOqwe05z7HOc5L58cwQc7PgCtIDVY
vzy8Mo3KbliI9UCxm8my6ga5zah8qRPPPtMVq5cHNYGhVKdwC481y/0CS8PvfmaB
Fwc8h0AoG1PPEtlfqdNkfsib6mbNk6FhGyIA8wPV8/ZCcp2x92PBEe3Og7r7VBDA
igPODDNLG4i/r/411PDreKwYVJDJzXAaF8lysXsykPjxBLkWIHtNzfFiEMkKnt7z
1mr5SEh4VUPAg9zUMyMBG8W+PV+JbvUyFIHY58j29REvTBpNoc6Dczyv3qxaTXNd
CRx2sAK79AASlsFepHMam5erXaTsdE+lH/5yD8D2FTewmkRGfXDVTF51+iDlOtSf
XfZ/9EENBwjTo0xRiDQJj+xnS8m1hQOQn/LQg8QP
-----END CERTIFICATE-----
