Certificate:
    Data:
        Version: 3 (0x2)
        Serial Number: 1409 (0x581)
    Signature Algorithm: md5WithRSAEncryption
        Issuer: C=US, ST=OH, L=Columbus, O=VikingVPN, OU=MyOrganizationalUnit, CN=VikingVPN CA/name=EasyRSA/emailAddress=me@myhost.mydomain
        Validity
            Not Before: Mar 29 16:07:40 2014 GMT
            Not After : Mar 26 16:07:40 2024 GMT
        Subject: CN=Client3Cert19a6e1
        Subject Public Key Info:
            Public Key Algorithm: rsaEncryption
                Public-Key: (4096 bit)
                Modulus:
                    00:b8:cf:6b:31:4d:ef:35:32:c5:d9:40:e5:44:ae:
                    30:58:91:9f:52:28:5a:a5:87:f7:30:e5:7d:cb:2e:
                    63:01:b1:70:8e:b0:bd:35:3a:57:4d:0b:9e:9c:cb:
                    3b:8e:cc:1c:92:80:cc:92:8a:ba:dd:39:3a:81:f5:
                    d8:2f:f6:3f:e3:be:f9:bc:a0:36:ae:f9:39:77:ec:
                    57:1e:8b:9c:44:34:1d:1d:70:53:3d:86:07:9b:a4:
                    ea:3c:5b:6b:65:3c:f0:02:53:34:29:2e:4e:06:c5:
                    0d:44:0a:fb:df:8f:4d:c2:d2:f9:cb:6b:3c:18:e3:
                    83:87:e8:83:9a:07:9b:67:bd:38:f0:04:63:4f:2b:
                    b4:dd:9b:16:b5:dc:90:38:f4:ba:eb:46:25:61:30:
                    b7:22:40:0b:0f:a8:43:25:34:b7:37:0f:dd:cd:65:
                    4f:d7:de:5f:cc:84:4e:b7:58:ea:eb:0e:77:aa:16:
                    51:29:e9:dc:af:ae:8f:5b:8f:f6:c2:64:42:42:62:
                    50:c0:65:7b:10:d7:14:c0:cc:57:55:fe:02:60:eb:
                    0c:bc:f4:8a:46:84:f8:d7:8b:f2:47:72:be:ae:aa:
                    c0:f9:b9:b0:57:b3:b8:6d:ce:41:d4:47:f5:75:d2:
                    35:86:86:17:e1:a9:4d:bb:12:6f:97:d1:c7:2a:5e:
                    6a:41:31:a0:31:70:58:d5:bf:73:f1:78:47:38:69:
                    c4:c0:45:8d:cf:0d:e5:f5:b0:60:ad:dc:e3:61:a3:
                    4f:1a:51:d8:c3:62:22:0f:70:bb:45:f2:ba:34:ce:
                    0d:d2:52:36:ba:ac:04:d1:1e:64:f9:c3:bf:41:a6:
                    25:d1:ab:af:0d:4c:c7:70:98:a1:f2:a2:d5:63:82:
                    6a:64:ac:43:ef:63:1c:2e:dc:90:1a:c4:7f:86:8b:
                    22:2e:a0:87:86:17:5f:0c:82:e8:76:4a:89:4d:f6:
                    41:0b:e8:d9:57:b8:f6:40:29:25:5b:10:9c:bf:11:
                    9c:ff:d2:f7:f2:3c:fc:47:b3:cf:01:98:a3:e7:96:
                    3c:6f:a7:c7:c9:7f:4e:87:ac:73:4a:6a:fc:10:39:
                    c6:da:d6:fa:da:e3:1f:91:b4:e0:fe:dd:78:67:1d:
                    4e:dd:0a:10:1a:e3:87:81:f4:d0:01:65:1c:94:7d:
                    ef:b5:d9:49:d3:ed:9b:6c:5f:1c:53:ae:83:dd:84:
                    ca:22:b4:33:af:be:6e:6a:40:9b:0d:3e:55:92:00:
                    dc:a4:7e:87:29:c6:04:60:84:ea:68:d5:58:92:b5:
                    60:99:d5:fa:a6:05:82:4d:73:0b:49:ba:83:74:3d:
                    3e:6e:2d:d8:03:86:3a:39:ac:19:58:bb:26:23:7d:
                    1b:f7:9b
                Exponent: 65537 (0x10001)
        X509v3 extensions:
            X509v3 Basic Constraints: 
                CA:FALSE
            Netscape Comment: 
                Easy-RSA Generated Certificate
            X509v3 Subject Key Identifier: 
                87:52:C8:F3:23:C6:FB:9A:B6:3B:20:FE:A6:35:46:45:71:54:D3:F5
            X509v3 Authority Key Identifier: 
                keyid:12:CD:60:04:D2:A0:80:9E:70:ED:C6:99:B8:7B:2C:C6:52:FD:19:A1
                DirName:/C=US/ST=OH/L=Columbus/O=VikingVPN/OU=MyOrganizationalUnit/CN=VikingVPN CA/name=EasyRSA/emailAddress=me@myhost.mydomain
                serial:CF:35:85:EE:80:BF:2A:3E

            X509v3 Extended Key Usage: 
                TLS Web Client Authentication
            X509v3 Key Usage: 
                Digital Signature
    Signature Algorithm: md5WithRSAEncryption
         05:4e:8d:89:ba:fa:06:61:01:33:10:5e:79:23:c2:cb:71:2c:
         6b:c0:9d:3b:21:ce:49:57:e4:ad:d9:93:a8:eb:42:9c:6f:6e:
         a0:0d:71:a6:e9:62:d8:32:10:f5:8e:8c:12:44:07:7f:7b:a1:
         70:86:c3:ec:59:0e:7e:38:0b:92:58:dd:19:ff:44:12:9a:64:
         fc:fb:32:97:85:07:0d:0d:6d:4f:01:b6:0b:35:97:08:3d:17:
         cf:ab:73:c1:bd:18:56:48:76:08:7d:65:48:d9:bf:fa:34:82:
         77:83:3f:f8:08:7d:19:78:ea:7f:2f:5d:92:be:ea:8b:59:af:
         ad:94:39:f2:5d:be:8d:80:0f:76:c2:78:26:6f:8d:23:f2:8c:
         dc:3b:b5:2a:2b:58:9a:45:9c:aa:9e:6d:fb:1e:40:14:32:cc:
         3b:9e:40:0f:0b:ae:e9:fc:fe:41:f8:12:1a:90:1e:8e:06:45:
         2c:0b:44:b9:35:f9:eb:84:97:74:86:e7:c0:00:c5:a6:52:31:
         39:6a:02:8c:67:9c:44:18:59:70:e4:0e:52:df:ce:3c:a8:81:
         aa:b4:c7:c6:07:75:65:e0:79:7f:e0:0f:c3:23:20:5e:81:71:
         ab:bd:6c:c8:c6:ff:0f:36:fc:1d:ee:9c:7b:2a:89:b6:39:90:
         6b:76:19:2a:06:10:48:16:d5:a7:10:e8:7f:a6:90:7d:17:f8:
         30:1e:30:04:ee:78:fb:53:ca:10:eb:ab:7b:80:3c:32:25:fc:
         28:37:28:77:68:f8:89:66:5d:7c:28:17:e0:1d:15:2f:64:6f:
         8a:3e:f0:5f:3b:10:f7:a8:d7:b4:13:7c:38:aa:b1:85:18:1f:
         91:1e:81:eb:1d:1f:59:bf:2c:51:98:0d:85:ec:f6:4f:58:49:
         c6:b9:c5:e7:6a:7b:cf:e8:ca:bc:14:ad:37:d1:a8:b2:d8:e8:
         4a:e3:74:b5:e7:f3:1e:dd:4e:66:30:14:28:15:03:79:11:30:
         9d:7f:df:46:a8:cc:93:1c:25:08:ae:1e:41:48:ee:69:01:5b:
         39:13:23:27:93:3f:59:07:f4:c0:fb:df:83:e5:d0:c7:e0:5a:
         ba:35:09:54:46:d8:06:f2:82:46:0c:00:9b:5b:6d:b8:11:61:
         83:47:06:40:df:c0:a3:69:26:cf:b8:c3:df:f4:2e:fb:45:82:
         60:c1:03:81:14:b2:d8:87:24:64:9a:b4:69:43:42:20:6f:0f:
         0f:2c:9e:67:8d:78:b6:d2:1b:cf:f3:12:e1:78:e9:9e:0f:8d:
         82:cf:91:e0:3d:36:57:55:30:fc:dd:fd:37:71:23:74:12:26:
         d8:2f:bb:bc:a1:f5:22:83
-----BEGIN CERTIFICATE-----
MIIGqjCCBJKgAwIBAgICBYEwDQYJKoZIhvcNAQEEBQAwgawxCzAJBgNVBAYTAlVT
MQswCQYDVQQIEwJPSDERMA8GA1UEBxMIQ29sdW1idXMxEjAQBgNVBAoTCVZpa2lu
Z1ZQTjEdMBsGA1UECxMUTXlPcmdhbml6YXRpb25hbFVuaXQxFTATBgNVBAMTDFZp
a2luZ1ZQTiBDQTEQMA4GA1UEKRMHRWFzeVJTQTEhMB8GCSqGSIb3DQEJARYSbWVA
bXlob3N0Lm15ZG9tYWluMB4XDTE0MDMyOTE2MDc0MFoXDTI0MDMyNjE2MDc0MFow
HDEaMBgGA1UEAxMRQ2xpZW50M0NlcnQxOWE2ZTEwggIiMA0GCSqGSIb3DQEBAQUA
A4ICDwAwggIKAoICAQC4z2sxTe81MsXZQOVErjBYkZ9SKFqlh/cw5X3LLmMBsXCO
sL01OldNC56cyzuOzBySgMySirrdOTqB9dgv9j/jvvm8oDau+Tl37Fcei5xENB0d
cFM9hgebpOo8W2tlPPACUzQpLk4GxQ1ECvvfj03C0vnLazwY44OH6IOaB5tnvTjw
BGNPK7Tdmxa13JA49LrrRiVhMLciQAsPqEMlNLc3D93NZU/X3l/MhE63WOrrDneq
FlEp6dyvro9bj/bCZEJCYlDAZXsQ1xTAzFdV/gJg6wy89IpGhPjXi/JHcr6uqsD5
ubBXs7htzkHUR/V10jWGhhfhqU27Em+X0ccqXmpBMaAxcFjVv3PxeEc4acTARY3P
DeX1sGCt3ONho08aUdjDYiIPcLtF8ro0zg3SUja6rATRHmT5w79BpiXRq68NTMdw
mKHyotVjgmpkrEPvYxwu3JAaxH+GiyIuoIeGF18Mguh2SolN9kEL6NlXuPZAKSVb
EJy/EZz/0vfyPPxHs88BmKPnljxvp8fJf06HrHNKavwQOcba1vra4x+RtOD+3Xhn
HU7dChAa44eB9NABZRyUfe+12UnT7ZtsXxxTroPdhMoitDOvvm5qQJsNPlWSANyk
focpxgRghOpo1ViStWCZ1fqmBYJNcwtJuoN0PT5uLdgDhjo5rBlYuyYjfRv3mwID
AQABo4IBYzCCAV8wCQYDVR0TBAIwADAtBglghkgBhvhCAQ0EIBYeRWFzeS1SU0Eg
R2VuZXJhdGVkIENlcnRpZmljYXRlMB0GA1UdDgQWBBSHUsjzI8b7mrY7IP6mNUZF
cVTT9TCB4QYDVR0jBIHZMIHWgBQSzWAE0qCAnnDtxpm4eyzGUv0ZoaGBsqSBrzCB
rDELMAkGA1UEBhMCVVMxCzAJBgNVBAgTAk9IMREwDwYDVQQHEwhDb2x1bWJ1czES
MBAGA1UEChMJVmlraW5nVlBOMR0wGwYDVQQLExRNeU9yZ2FuaXphdGlvbmFsVW5p
dDEVMBMGA1UEAxMMVmlraW5nVlBOIENBMRAwDgYDVQQpEwdFYXN5UlNBMSEwHwYJ
KoZIhvcNAQkBFhJtZUBteWhvc3QubXlkb21haW6CCQDPNYXugL8qPjATBgNVHSUE
DDAKBggrBgEFBQcDAjALBgNVHQ8EBAMCB4AwDQYJKoZIhvcNAQEEBQADggIBAAVO
jYm6+gZhATMQXnkjwstxLGvAnTshzklX5K3Zk6jrQpxvbqANcabpYtgyEPWOjBJE
B397oXCGw+xZDn44C5JY3Rn/RBKaZPz7MpeFBw0NbU8Btgs1lwg9F8+rc8G9GFZI
dgh9ZUjZv/o0gneDP/gIfRl46n8vXZK+6otZr62UOfJdvo2AD3bCeCZvjSPyjNw7
tSorWJpFnKqebfseQBQyzDueQA8Lrun8/kH4EhqQHo4GRSwLRLk1+euEl3SG58AA
xaZSMTlqAoxnnEQYWXDkDlLfzjyogaq0x8YHdWXgeX/gD8MjIF6Bcau9bMjG/w82
/B3unHsqibY5kGt2GSoGEEgW1acQ6H+mkH0X+DAeMATuePtTyhDrq3uAPDIl/Cg3
KHdo+IlmXXwoF+AdFS9kb4o+8F87EPeo17QTfDiqsYUYH5EegesdH1m/LFGYDYXs
9k9YSca5xedqe8/oyrwUrTfRqLLY6ErjdLXn8x7dTmYwFCgVA3kRMJ1/30aozJMc
JQiuHkFI7mkBWzkTIyeTP1kH9MD734Pl0MfgWro1CVRG2AbygkYMAJtbbbgRYYNH
BkDfwKNpJs+4w9/0LvtFgmDBA4EUstiHJGSatGlDQiBvDw8snmeNeLbSG8/zEuF4
6Z4PjYLPkeA9NldVMPzd/TdxI3QSJtgvu7yh9SKD
-----END CERTIFICATE-----
