Certificate:
    Data:
        Version: 3 (0x2)
        Serial Number: 1410 (0x582)
    Signature Algorithm: md5WithRSAEncryption
        Issuer: C=US, ST=OH, L=Columbus, O=VikingVPN, OU=MyOrganizationalUnit, CN=VikingVPN CA/name=EasyRSA/emailAddress=me@myhost.mydomain
        Validity
            Not Before: Mar 29 19:36:04 2014 GMT
            Not After : Mar 26 19:36:04 2024 GMT
        Subject: CN=Client521Cert2330bc
        Subject Public Key Info:
            Public Key Algorithm: rsaEncryption
                Public-Key: (4096 bit)
                Modulus:
                    00:c1:42:ac:ba:9f:9f:99:cd:5c:76:37:e7:6c:6a:
                    f0:c2:e2:aa:db:e8:18:bf:53:74:29:45:28:7c:43:
                    65:a6:c1:b0:f1:56:ac:ee:ba:53:c4:48:34:0e:40:
                    44:6a:89:2d:b5:08:96:f3:32:2a:fa:91:45:7f:94:
                    9c:98:61:3f:59:b9:07:48:30:c0:b7:fe:a9:d4:84:
                    ff:c6:00:f9:a7:0a:30:30:b9:eb:01:ce:93:d6:c6:
                    15:0d:ea:3a:d7:47:7f:6a:c3:a0:14:8f:65:9f:bb:
                    5c:3a:71:c0:a2:87:0c:cb:c8:8b:d6:2e:5a:be:ed:
                    c9:0e:fb:6e:88:02:7e:1a:a1:48:35:80:83:e6:75:
                    7b:41:88:eb:91:8e:e6:67:e1:88:9b:3a:fa:44:da:
                    a6:58:f2:f7:83:0a:12:05:31:03:b9:4d:ab:70:c5:
                    38:f8:33:bf:db:d5:73:25:1f:b1:b1:2c:2b:c7:79:
                    54:8c:8f:a3:39:e3:73:b9:9c:93:d6:b8:a2:78:9c:
                    2d:1a:09:48:f7:8b:80:ed:18:fe:ce:3f:b4:21:8d:
                    93:97:89:c9:db:73:c6:06:9c:ef:97:49:66:16:23:
                    f1:87:6b:8e:64:98:3d:9c:06:44:86:2c:8f:fd:5f:
                    85:7d:a6:13:99:b3:33:ce:1f:30:11:3a:20:16:0e:
                    33:48:50:04:fc:cc:8e:9b:c5:df:b0:51:15:2c:b0:
                    c8:85:bb:e2:18:ad:c1:16:91:34:3c:d1:7d:5e:82:
                    f1:d6:78:da:db:0a:ab:8b:de:9e:dc:86:7e:3d:c7:
                    5d:b5:64:de:cd:d9:8b:70:b0:e5:c6:8f:bd:56:5d:
                    5e:c7:8c:41:7f:cd:13:78:7d:fd:58:38:84:f0:69:
                    ad:02:b7:d7:46:c9:e4:23:c7:68:3d:b1:6a:67:54:
                    25:d7:c2:6f:48:c6:da:18:c5:17:8a:3b:62:d7:9e:
                    fa:aa:8e:9c:d8:92:f7:cb:a6:a8:16:a5:c6:97:aa:
                    72:9a:cd:b4:ed:a4:98:27:ad:83:9e:5c:f6:1e:75:
                    5f:64:4f:18:f3:90:33:cb:46:ba:21:45:b1:1e:61:
                    82:a0:5c:d4:15:ea:80:da:ad:e5:6f:a2:a0:9d:84:
                    0f:e5:85:12:d5:3e:87:f0:aa:49:6c:38:51:95:c8:
                    b1:b1:35:5c:88:c9:15:a5:00:e1:1e:fa:0d:d0:ad:
                    68:19:05:37:42:0d:10:ad:60:87:87:9f:e5:4a:84:
                    af:ef:77:df:9e:6e:7e:a2:bb:65:a6:33:18:b9:92:
                    9e:e6:18:21:ee:26:dc:83:ae:57:3d:a2:ee:00:a8:
                    c7:f6:c0:c4:57:ca:31:90:6c:c2:91:45:07:7a:79:
                    bd:a8:77
                Exponent: 65537 (0x10001)
        X509v3 extensions:
            X509v3 Basic Constraints: 
                CA:FALSE
            Netscape Comment: 
                Easy-RSA Generated Certificate
            X509v3 Subject Key Identifier: 
                8B:F8:DD:AD:6F:8F:79:28:EF:52:1E:46:BA:F3:4F:33:C9:28:91:C3
            X509v3 Authority Key Identifier: 
                keyid:12:CD:60:04:D2:A0:80:9E:70:ED:C6:99:B8:7B:2C:C6:52:FD:19:A1
                DirName:/C=US/ST=OH/L=Columbus/O=VikingVPN/OU=MyOrganizationalUnit/CN=VikingVPN CA/name=EasyRSA/emailAddress=me@myhost.mydomain
                serial:CF:35:85:EE:80:BF:2A:3E

            X509v3 Extended Key Usage: 
                TLS Web Client Authentication
            X509v3 Key Usage: 
                Digital Signature
    Signature Algorithm: md5WithRSAEncryption
         96:e9:1c:ab:63:7b:44:09:d1:17:30:d8:4a:ef:1f:15:6f:16:
         c3:0e:d6:2c:46:6c:b5:bc:69:f7:29:31:ce:45:3f:18:fe:0f:
         c5:fe:65:16:0d:3c:fd:4f:c6:f3:99:9a:b1:79:74:5b:f6:2f:
         b5:21:de:a6:93:ac:4c:bc:03:7f:fb:12:9d:a5:77:64:b2:59:
         54:4f:f0:c3:b8:c5:04:14:91:9e:60:e5:b3:67:67:fe:a7:e6:
         4d:68:af:d2:c9:4c:af:28:6f:b8:0e:95:e3:58:8d:b4:01:f4:
         f5:fc:ce:73:4c:db:42:ab:41:ee:eb:a0:d9:0c:aa:1b:7a:91:
         dd:03:92:aa:cd:7f:1e:c2:1f:0f:9d:d7:b9:ff:38:28:e1:a3:
         a1:f7:2b:fb:55:f5:96:ca:18:bd:b7:87:84:72:d6:e5:00:58:
         81:20:24:ad:6a:a1:b1:f9:6d:4e:53:b5:ac:50:2b:31:e0:9a:
         a4:6c:7d:bb:e1:a1:73:1c:73:15:0f:6f:40:06:ae:57:33:79:
         61:09:c7:a8:48:1b:2f:41:68:16:c3:5e:77:01:c2:ce:ab:48:
         f7:a2:4e:96:da:c2:67:ee:10:34:8c:e7:99:43:4a:a3:4e:9b:
         62:34:01:60:f1:64:66:a8:48:f9:96:fc:f5:0c:9c:4a:d0:e9:
         2e:8a:ac:e7:75:9f:c8:20:46:b0:0f:61:f1:71:46:4f:23:58:
         5d:26:22:f1:89:b7:50:14:32:04:06:52:96:e1:4b:73:40:8a:
         ef:4f:2c:8f:14:fc:fe:c6:d4:61:39:e3:18:9f:47:b8:69:f6:
         cd:1e:9a:01:38:e5:53:db:50:3b:6d:b6:47:13:08:10:c4:64:
         14:06:9f:51:89:21:25:2f:86:d7:3a:a7:b1:d1:8b:e1:50:42:
         96:b4:57:28:aa:a3:ff:04:85:6d:14:e1:42:7c:6d:ea:4b:21:
         ad:d3:fc:82:a2:10:72:0e:33:b3:d1:2c:1c:80:7b:d8:f2:3c:
         dd:11:5f:ad:a4:2b:88:b4:58:72:25:99:67:22:d7:2e:26:8b:
         4d:72:b8:bd:93:bd:19:d5:9b:f4:d1:dd:ae:31:24:72:aa:b3:
         da:de:b6:b1:1f:c5:72:64:26:3b:17:a3:ae:69:79:5e:d3:3a:
         5d:2a:e4:bd:7e:cb:50:e9:3b:d1:b3:5b:90:ac:38:a2:c2:b9:
         0b:77:e8:00:aa:16:35:78:42:54:dd:82:4a:45:81:bd:17:ad:
         04:bc:a3:f3:f1:a6:ff:c9:88:ca:e3:01:ef:e0:15:98:d9:8e:
         a4:b8:cf:d4:09:77:69:5a:21:f2:9f:bb:4b:4f:50:0e:f8:ea:
         c6:f0:e2:a1:cc:dc:33:3b
-----BEGIN CERTIFICATE-----
MIIGrDCCBJSgAwIBAgICBYIwDQYJKoZIhvcNAQEEBQAwgawxCzAJBgNVBAYTAlVT
MQswCQYDVQQIEwJPSDERMA8GA1UEBxMIQ29sdW1idXMxEjAQBgNVBAoTCVZpa2lu
Z1ZQTjEdMBsGA1UECxMUTXlPcmdhbml6YXRpb25hbFVuaXQxFTATBgNVBAMTDFZp
a2luZ1ZQTiBDQTEQMA4GA1UEKRMHRWFzeVJTQTEhMB8GCSqGSIb3DQEJARYSbWVA
bXlob3N0Lm15ZG9tYWluMB4XDTE0MDMyOTE5MzYwNFoXDTI0MDMyNjE5MzYwNFow
HjEcMBoGA1UEAxMTQ2xpZW50NTIxQ2VydDIzMzBiYzCCAiIwDQYJKoZIhvcNAQEB
BQADggIPADCCAgoCggIBAMFCrLqfn5nNXHY352xq8MLiqtvoGL9TdClFKHxDZabB
sPFWrO66U8RINA5ARGqJLbUIlvMyKvqRRX+UnJhhP1m5B0gwwLf+qdSE/8YA+acK
MDC56wHOk9bGFQ3qOtdHf2rDoBSPZZ+7XDpxwKKHDMvIi9YuWr7tyQ77bogCfhqh
SDWAg+Z1e0GI65GO5mfhiJs6+kTapljy94MKEgUxA7lNq3DFOPgzv9vVcyUfsbEs
K8d5VIyPoznjc7mck9a4onicLRoJSPeLgO0Y/s4/tCGNk5eJydtzxgac75dJZhYj
8YdrjmSYPZwGRIYsj/1fhX2mE5mzM84fMBE6IBYOM0hQBPzMjpvF37BRFSywyIW7
4hitwRaRNDzRfV6C8dZ42tsKq4ventyGfj3HXbVk3s3Zi3Cw5caPvVZdXseMQX/N
E3h9/Vg4hPBprQK310bJ5CPHaD2xamdUJdfCb0jG2hjFF4o7Ytee+qqOnNiS98um
qBalxpeqcprNtO2kmCetg55c9h51X2RPGPOQM8tGuiFFsR5hgqBc1BXqgNqt5W+i
oJ2ED+WFEtU+h/CqSWw4UZXIsbE1XIjJFaUA4R76DdCtaBkFN0INEK1gh4ef5UqE
r+93355ufqK7ZaYzGLmSnuYYIe4m3IOuVz2i7gCox/bAxFfKMZBswpFFB3p5vah3
AgMBAAGjggFjMIIBXzAJBgNVHRMEAjAAMC0GCWCGSAGG+EIBDQQgFh5FYXN5LVJT
QSBHZW5lcmF0ZWQgQ2VydGlmaWNhdGUwHQYDVR0OBBYEFIv43a1vj3ko71IeRrrz
TzPJKJHDMIHhBgNVHSMEgdkwgdaAFBLNYATSoICecO3Gmbh7LMZS/RmhoYGypIGv
MIGsMQswCQYDVQQGEwJVUzELMAkGA1UECBMCT0gxETAPBgNVBAcTCENvbHVtYnVz
MRIwEAYDVQQKEwlWaWtpbmdWUE4xHTAbBgNVBAsTFE15T3JnYW5pemF0aW9uYWxV
bml0MRUwEwYDVQQDEwxWaWtpbmdWUE4gQ0ExEDAOBgNVBCkTB0Vhc3lSU0ExITAf
BgkqhkiG9w0BCQEWEm1lQG15aG9zdC5teWRvbWFpboIJAM81he6Avyo+MBMGA1Ud
JQQMMAoGCCsGAQUFBwMCMAsGA1UdDwQEAwIHgDANBgkqhkiG9w0BAQQFAAOCAgEA
lukcq2N7RAnRFzDYSu8fFW8Www7WLEZstbxp9ykxzkU/GP4Pxf5lFg08/U/G85ma
sXl0W/YvtSHeppOsTLwDf/sSnaV3ZLJZVE/ww7jFBBSRnmDls2dn/qfmTWiv0slM
ryhvuA6V41iNtAH09fzOc0zbQqtB7uug2QyqG3qR3QOSqs1/HsIfD53Xuf84KOGj
ofcr+1X1lsoYvbeHhHLW5QBYgSAkrWqhsfltTlO1rFArMeCapGx9u+GhcxxzFQ9v
QAauVzN5YQnHqEgbL0FoFsNedwHCzqtI96JOltrCZ+4QNIznmUNKo06bYjQBYPFk
ZqhI+Zb89QycStDpLoqs53WfyCBGsA9h8XFGTyNYXSYi8Ym3UBQyBAZSluFLc0CK
708sjxT8/sbUYTnjGJ9HuGn2zR6aATjlU9tQO222RxMIEMRkFAafUYkhJS+G1zqn
sdGL4VBClrRXKKqj/wSFbRThQnxt6kshrdP8gqIQcg4zs9EsHIB72PI83RFfraQr
iLRYciWZZyLXLiaLTXK4vZO9GdWb9NHdrjEkcqqz2t62sR/FcmQmOxejrml5XtM6
XSrkvX7LUOk70bNbkKw4osK5C3foAKoWNXhCVN2CSkWBvRetBLyj8/Gm/8mIyuMB
7+AVmNmOpLjP1Al3aVoh8p+7S09QDvjqxvDioczcMzs=
-----END CERTIFICATE-----
