Certificate:
    Data:
        Version: 3 (0x2)
        Serial Number: 1429 (0x595)
    Signature Algorithm: md5WithRSAEncryption
        Issuer: C=US, ST=OH, L=Columbus, O=VikingVPN, OU=MyOrganizationalUnit, CN=VikingVPN CA/name=EasyRSA/emailAddress=me@myhost.mydomain
        Validity
            Not Before: Apr  1 16:44:14 2014 GMT
            Not After : Mar 29 16:44:14 2024 GMT
        Subject: CN=Client380Cert36af75
        Subject Public Key Info:
            Public Key Algorithm: rsaEncryption
                Public-Key: (4096 bit)
                Modulus:
                    00:bf:54:66:cd:40:e9:78:39:86:a7:36:85:91:8b:
                    42:16:d6:0e:31:db:1e:0d:db:13:ef:32:98:c3:07:
                    7c:9f:6f:8f:f6:c6:2e:9f:0a:7e:d6:f4:d2:74:fe:
                    13:85:5b:12:fe:3b:19:2b:4f:39:e2:32:bd:28:14:
                    e2:d1:61:ae:6f:00:0d:f9:9f:21:37:b2:53:71:a8:
                    6c:04:31:df:d1:b9:58:e2:e3:f7:f0:62:cb:7e:fe:
                    96:57:ba:89:41:c0:ba:f5:bc:30:a0:97:0a:f7:64:
                    16:59:8e:da:c9:e4:33:e9:cb:09:6b:ee:75:06:ef:
                    6c:7b:33:3b:b0:da:c3:3e:eb:db:9b:f2:b4:c4:33:
                    a7:29:de:ee:24:9f:ae:6f:ee:3c:f3:a4:29:93:f8:
                    9c:d0:9f:7b:10:5a:cf:b9:6c:71:e9:0e:c8:b2:5b:
                    cf:c5:1f:22:c9:4a:fd:f4:7c:29:a5:37:f3:30:46:
                    ec:de:a8:66:1c:4a:84:08:42:f0:a8:5f:74:67:a0:
                    29:0e:e4:06:8e:d4:d0:b0:1a:40:63:2e:32:d4:1a:
                    04:eb:3d:22:40:a6:91:98:45:69:3c:2c:1d:0f:79:
                    13:4b:5a:bf:8b:12:20:84:c8:41:60:ed:9b:7e:67:
                    b6:6b:d3:85:d3:18:a5:41:04:a6:7b:48:ed:d9:63:
                    60:05:b0:3d:62:4f:44:1e:3e:84:7b:dc:69:36:30:
                    b1:f3:e6:70:86:cb:a4:fc:27:57:b2:1b:3c:ee:fe:
                    be:94:76:59:79:21:bb:b3:33:74:a6:5e:1b:a3:27:
                    f8:f0:ec:48:48:2e:cf:7d:73:d8:7a:52:0f:91:ce:
                    b4:83:60:d7:bc:ca:a4:f7:9e:52:5d:c8:12:80:b3:
                    8c:81:ef:95:80:85:85:5f:de:35:66:81:b0:09:e6:
                    1c:8d:27:d3:94:84:90:a9:77:35:e5:bb:ee:fe:26:
                    06:fe:19:bb:31:45:1c:d6:46:7d:7b:3e:8b:48:b0:
                    61:28:bc:7f:9b:1b:a9:d8:75:9f:39:fb:73:05:9a:
                    56:a3:01:22:7f:61:ac:e4:f7:0e:72:98:d2:ac:1c:
                    a3:8c:17:c2:5b:ee:45:4a:a2:34:27:5d:c9:0d:d0:
                    ad:c9:f9:60:26:a4:0b:6a:28:c1:dc:7e:55:8c:a6:
                    0f:b5:ad:29:c9:c2:df:57:19:01:ae:83:08:2b:bd:
                    50:0e:51:45:e5:7f:d7:12:bd:b0:6d:fd:32:1e:a7:
                    31:c5:85:8c:fd:14:37:11:1b:8f:7e:0b:43:a8:0f:
                    37:a9:a3:4e:ee:54:98:09:74:fd:c2:dd:fc:41:c0:
                    98:bb:43:25:6b:d4:23:c2:83:26:17:da:b2:d8:e6:
                    76:58:69
                Exponent: 65537 (0x10001)
        X509v3 extensions:
            X509v3 Basic Constraints: 
                CA:FALSE
            Netscape Comment: 
                Easy-RSA Generated Certificate
            X509v3 Subject Key Identifier: 
                44:8C:52:AB:F0:FE:7A:95:DF:AF:33:1E:99:79:52:74:E9:12:BA:65
            X509v3 Authority Key Identifier: 
                keyid:12:CD:60:04:D2:A0:80:9E:70:ED:C6:99:B8:7B:2C:C6:52:FD:19:A1
                DirName:/C=US/ST=OH/L=Columbus/O=VikingVPN/OU=MyOrganizationalUnit/CN=VikingVPN CA/name=EasyRSA/emailAddress=me@myhost.mydomain
                serial:CF:35:85:EE:80:BF:2A:3E

            X509v3 Extended Key Usage: 
                TLS Web Client Authentication
            X509v3 Key Usage: 
                Digital Signature
    Signature Algorithm: md5WithRSAEncryption
         c5:49:e7:61:0a:3c:da:7f:60:14:de:22:4f:e2:3f:2c:72:a9:
         de:0e:d9:d7:86:e2:ee:91:49:be:6f:1f:14:03:33:7b:97:4f:
         5e:5a:54:e1:ed:49:10:cd:c3:86:9a:27:93:b7:41:3e:ed:d2:
         1a:e5:bc:80:33:ac:c8:f1:de:75:f0:8b:87:de:72:ca:4a:37:
         71:a3:1a:8a:50:7f:66:99:4f:66:21:04:81:84:8b:27:75:68:
         72:13:33:24:da:ec:08:09:80:82:5c:fe:47:8c:4d:40:90:28:
         0e:ac:83:bf:4e:6e:13:19:bb:b1:2c:cf:ca:ec:3d:30:8f:be:
         64:a9:ff:57:83:89:7d:cb:40:dc:3d:b6:0c:cf:14:76:87:67:
         62:2a:48:26:0f:7a:66:65:b2:ea:78:a9:77:b0:fd:d9:b7:bc:
         21:3a:82:42:2b:75:8c:b3:fa:c4:46:90:ad:6e:e2:1a:0e:0c:
         8b:88:3e:37:77:4f:72:88:71:75:7b:1b:ad:37:21:68:93:b1:
         2c:1e:0f:21:6a:92:75:ff:9c:99:ac:66:63:58:be:3b:8e:9d:
         c0:04:fe:4f:a5:e2:55:f6:ea:e0:b3:20:93:68:d7:f1:f1:62:
         77:55:07:0b:b4:50:35:4f:de:ba:a3:6b:f6:f3:e8:2f:bb:75:
         27:69:a5:cf:11:a9:b3:54:9d:65:e3:e6:ac:f8:1f:3e:47:11:
         da:28:f4:14:32:f7:63:9d:29:39:9c:a8:ea:d9:ba:cc:80:62:
         8d:b0:56:83:f3:73:00:f8:58:83:85:08:33:58:01:a0:23:55:
         54:3d:44:a3:49:1e:7f:68:c0:e5:7e:0d:21:0a:2e:c4:bc:b6:
         6d:05:e4:06:67:bd:cc:b1:0a:0c:e5:ce:dc:99:a1:74:db:a9:
         ba:af:87:f7:e0:32:c6:7f:b6:1c:ab:6e:14:40:a3:69:65:05:
         36:5f:a7:2e:b7:5a:ff:b7:a5:c1:c0:8d:d1:50:bf:72:b3:93:
         f2:78:30:1e:03:f5:32:97:ef:3c:56:c2:40:df:fd:0c:d2:8c:
         45:50:6d:2e:32:dc:20:b0:81:aa:bc:d9:bf:fe:46:41:ea:98:
         97:9d:59:ca:2d:49:21:2d:c4:e3:74:0b:81:ad:96:98:b4:58:
         6b:20:8a:b0:55:7a:97:c7:1b:d1:a9:3c:94:ab:20:66:d3:96:
         e8:88:f6:bd:47:e9:e0:23:5f:ea:6a:99:c9:c3:ca:91:83:0e:
         1b:1e:c5:f6:28:2e:1e:da:a7:1d:b5:57:7e:e3:a3:dc:af:de:
         32:02:b5:56:7d:8a:af:ec:0b:24:3e:23:bd:39:e3:b2:1e:77:
         80:69:4d:a3:b3:cb:22:04
-----BEGIN CERTIFICATE-----
MIIGrDCCBJSgAwIBAgICBZUwDQYJKoZIhvcNAQEEBQAwgawxCzAJBgNVBAYTAlVT
MQswCQYDVQQIEwJPSDERMA8GA1UEBxMIQ29sdW1idXMxEjAQBgNVBAoTCVZpa2lu
Z1ZQTjEdMBsGA1UECxMUTXlPcmdhbml6YXRpb25hbFVuaXQxFTATBgNVBAMTDFZp
a2luZ1ZQTiBDQTEQMA4GA1UEKRMHRWFzeVJTQTEhMB8GCSqGSIb3DQEJARYSbWVA
bXlob3N0Lm15ZG9tYWluMB4XDTE0MDQwMTE2NDQxNFoXDTI0MDMyOTE2NDQxNFow
HjEcMBoGA1UEAxMTQ2xpZW50MzgwQ2VydDM2YWY3NTCCAiIwDQYJKoZIhvcNAQEB
BQADggIPADCCAgoCggIBAL9UZs1A6Xg5hqc2hZGLQhbWDjHbHg3bE+8ymMMHfJ9v
j/bGLp8Kftb00nT+E4VbEv47GStPOeIyvSgU4tFhrm8ADfmfITeyU3GobAQx39G5
WOLj9/Biy37+lle6iUHAuvW8MKCXCvdkFlmO2snkM+nLCWvudQbvbHszO7Dawz7r
25vytMQzpyne7iSfrm/uPPOkKZP4nNCfexBaz7lscekOyLJbz8UfIslK/fR8KaU3
8zBG7N6oZhxKhAhC8KhfdGegKQ7kBo7U0LAaQGMuMtQaBOs9IkCmkZhFaTwsHQ95
E0tav4sSIITIQWDtm35ntmvThdMYpUEEpntI7dljYAWwPWJPRB4+hHvcaTYwsfPm
cIbLpPwnV7IbPO7+vpR2WXkhu7MzdKZeG6Mn+PDsSEguz31z2HpSD5HOtINg17zK
pPeeUl3IEoCzjIHvlYCFhV/eNWaBsAnmHI0n05SEkKl3NeW77v4mBv4ZuzFFHNZG
fXs+i0iwYSi8f5sbqdh1nzn7cwWaVqMBIn9hrOT3DnKY0qwco4wXwlvuRUqiNCdd
yQ3Qrcn5YCakC2oowdx+VYymD7WtKcnC31cZAa6DCCu9UA5RReV/1xK9sG39Mh6n
McWFjP0UNxEbj34LQ6gPN6mjTu5UmAl0/cLd/EHAmLtDJWvUI8KDJhfastjmdlhp
AgMBAAGjggFjMIIBXzAJBgNVHRMEAjAAMC0GCWCGSAGG+EIBDQQgFh5FYXN5LVJT
QSBHZW5lcmF0ZWQgQ2VydGlmaWNhdGUwHQYDVR0OBBYEFESMUqvw/nqV368zHpl5
UnTpErplMIHhBgNVHSMEgdkwgdaAFBLNYATSoICecO3Gmbh7LMZS/RmhoYGypIGv
MIGsMQswCQYDVQQGEwJVUzELMAkGA1UECBMCT0gxETAPBgNVBAcTCENvbHVtYnVz
MRIwEAYDVQQKEwlWaWtpbmdWUE4xHTAbBgNVBAsTFE15T3JnYW5pemF0aW9uYWxV
bml0MRUwEwYDVQQDEwxWaWtpbmdWUE4gQ0ExEDAOBgNVBCkTB0Vhc3lSU0ExITAf
BgkqhkiG9w0BCQEWEm1lQG15aG9zdC5teWRvbWFpboIJAM81he6Avyo+MBMGA1Ud
JQQMMAoGCCsGAQUFBwMCMAsGA1UdDwQEAwIHgDANBgkqhkiG9w0BAQQFAAOCAgEA
xUnnYQo82n9gFN4iT+I/LHKp3g7Z14bi7pFJvm8fFAMze5dPXlpU4e1JEM3Dhpon
k7dBPu3SGuW8gDOsyPHedfCLh95yyko3caMailB/ZplPZiEEgYSLJ3VochMzJNrs
CAmAglz+R4xNQJAoDqyDv05uExm7sSzPyuw9MI++ZKn/V4OJfctA3D22DM8Udodn
YipIJg96ZmWy6nipd7D92be8ITqCQit1jLP6xEaQrW7iGg4Mi4g+N3dPcohxdXsb
rTchaJOxLB4PIWqSdf+cmaxmY1i+O46dwAT+T6XiVfbq4LMgk2jX8fFid1UHC7RQ
NU/euqNr9vPoL7t1J2mlzxGps1SdZePmrPgfPkcR2ij0FDL3Y50pOZyo6tm6zIBi
jbBWg/NzAPhYg4UIM1gBoCNVVD1Eo0kef2jA5X4NIQouxLy2bQXkBme9zLEKDOXO
3JmhdNupuq+H9+Ayxn+2HKtuFECjaWUFNl+nLrda/7elwcCN0VC/crOT8ngwHgP1
MpfvPFbCQN/9DNKMRVBtLjLcILCBqrzZv/5GQeqYl51Zyi1JIS3E43QLga2WmLRY
ayCKsFV6l8cb0ak8lKsgZtOW6Ij2vUfp4CNf6mqZycPKkYMOGx7F9iguHtqnHbVX
fuOj3K/eMgK1Vn2Kr+wLJD4jvTnjsh53gGlNo7PLIgQ=
-----END CERTIFICATE-----
