Certificate:
    Data:
        Version: 3 (0x2)
        Serial Number: 1439 (0x59f)
    Signature Algorithm: md5WithRSAEncryption
        Issuer: C=US, ST=OH, L=Columbus, O=VikingVPN, OU=MyOrganizationalUnit, CN=VikingVPN CA/name=EasyRSA/emailAddress=me@myhost.mydomain
        Validity
            Not Before: Apr  2 07:21:09 2014 GMT
            Not After : Mar 30 07:21:09 2024 GMT
        Subject: CN=Client536Certc3bae3
        Subject Public Key Info:
            Public Key Algorithm: rsaEncryption
                Public-Key: (4096 bit)
                Modulus:
                    00:b8:23:08:55:57:05:a8:07:76:89:96:80:90:62:
                    ed:02:9b:ed:2b:33:74:22:25:c3:a0:7f:0e:f8:af:
                    75:2c:48:cf:03:1f:2a:f0:0c:4f:e6:e5:41:27:84:
                    60:d6:ee:91:7f:90:16:eb:0e:14:78:55:d5:be:c8:
                    9e:8a:c0:d6:60:09:86:59:7c:dc:9e:6c:a1:93:1a:
                    38:39:30:91:c5:0e:ca:91:47:71:f9:7b:a3:c0:82:
                    a9:ab:4a:ef:63:74:05:4e:2c:24:2a:f3:8e:24:74:
                    37:0f:23:7b:81:ea:ca:b2:2d:60:a7:bb:fe:f2:05:
                    15:e1:d9:57:5b:6f:14:91:44:46:af:91:33:6f:e8:
                    fa:28:f8:d9:e8:e6:26:cc:c0:0b:9e:2a:05:28:9c:
                    a8:1f:5c:92:30:e5:dc:e3:af:b5:37:9b:70:c6:f3:
                    c5:54:ad:71:c0:71:42:64:68:05:c9:0d:09:29:15:
                    b3:a2:74:b3:85:f8:19:e9:a1:19:9c:be:f8:30:28:
                    48:2c:9c:91:8c:87:35:ea:c6:75:ff:ee:65:99:04:
                    bc:50:9b:8a:fe:3b:04:cb:02:8d:47:b5:07:7f:7b:
                    28:f8:54:09:c8:61:de:7d:0c:0f:d6:38:ab:c9:df:
                    e5:5b:5f:96:0e:87:86:c0:a8:20:37:24:d5:c0:9a:
                    9e:66:83:00:64:a9:6c:9f:1a:28:4f:e1:f4:33:43:
                    af:fa:e6:6e:ca:33:7c:fe:f0:66:08:42:48:e6:44:
                    f8:df:aa:40:41:bb:c1:b8:0e:12:92:a7:df:8b:94:
                    1b:7f:67:92:d5:57:87:72:24:0b:fd:43:ab:4d:37:
                    45:64:38:9b:ff:f7:ab:50:7b:37:6b:ed:e3:5f:30:
                    64:74:25:7c:f7:ce:e1:c5:ea:52:5a:db:17:dc:a3:
                    7d:92:cc:9b:88:d6:bf:95:77:f7:ff:bd:54:2d:21:
                    ed:c1:72:9f:04:13:14:b0:bc:24:ca:a2:7f:08:a2:
                    70:52:e3:3a:dd:f2:79:43:08:02:44:fd:62:89:a6:
                    75:61:ac:8a:e7:fc:8a:82:d7:00:5d:44:88:38:3b:
                    7f:c3:a9:8b:bf:ba:f4:22:08:2b:01:fe:01:63:5e:
                    8a:1f:6a:bb:78:50:77:37:c8:3d:4e:9c:44:ed:8f:
                    72:60:56:32:b7:e3:0b:95:a1:af:05:89:ad:14:e3:
                    8f:cd:fe:99:97:48:3e:0d:cd:11:b1:cd:c7:c4:68:
                    c5:f8:24:ea:77:56:f0:f7:75:57:f5:13:08:8b:e9:
                    e2:b2:57:8a:0c:44:af:36:32:83:9e:48:fc:48:2e:
                    5a:d7:de:4f:27:c6:f9:3c:98:62:d1:a3:a8:2f:07:
                    cf:7f:3f
                Exponent: 65537 (0x10001)
        X509v3 extensions:
            X509v3 Basic Constraints: 
                CA:FALSE
            Netscape Comment: 
                Easy-RSA Generated Certificate
            X509v3 Subject Key Identifier: 
                D8:70:5B:E5:F6:9D:62:83:92:C8:16:CC:67:7C:FD:C5:71:48:E9:44
            X509v3 Authority Key Identifier: 
                keyid:12:CD:60:04:D2:A0:80:9E:70:ED:C6:99:B8:7B:2C:C6:52:FD:19:A1
                DirName:/C=US/ST=OH/L=Columbus/O=VikingVPN/OU=MyOrganizationalUnit/CN=VikingVPN CA/name=EasyRSA/emailAddress=me@myhost.mydomain
                serial:CF:35:85:EE:80:BF:2A:3E

            X509v3 Extended Key Usage: 
                TLS Web Client Authentication
            X509v3 Key Usage: 
                Digital Signature
    Signature Algorithm: md5WithRSAEncryption
         7d:b0:89:b0:9d:b9:cc:43:f8:a7:52:12:9c:26:cc:ca:f3:3f:
         93:08:87:4c:a8:db:f9:65:d1:5f:a2:45:4f:7d:03:6e:63:19:
         c6:37:3b:a6:55:43:0e:0f:29:2a:e4:51:e2:ed:12:58:a6:8a:
         04:12:94:6f:ad:5e:50:62:d4:5e:6a:8e:09:55:3f:1a:49:89:
         fb:74:a9:1e:b8:d9:23:ed:02:14:6d:06:39:68:fe:ab:44:0d:
         d1:28:9c:7f:d3:9e:82:f3:38:1f:1b:8b:52:60:2e:aa:b2:64:
         48:0a:af:cb:d5:f3:47:78:b3:17:5a:03:b8:bb:eb:a2:2a:62:
         98:95:12:34:44:75:25:ac:c7:7d:33:c8:3e:88:d1:fd:e9:71:
         f3:e1:85:81:32:e7:e7:f3:ef:cd:9c:c3:24:32:d2:9b:bd:15:
         9d:e3:4a:02:89:ec:65:aa:df:c5:c9:d9:9d:ea:0e:f0:9c:5b:
         3c:44:a8:35:f7:19:ab:e8:a9:68:e9:10:7e:62:10:f6:98:87:
         9c:9f:5b:c7:21:eb:46:cb:10:ee:6f:7d:b8:16:a4:53:8a:07:
         f3:c8:de:51:f3:e4:53:21:d2:2f:14:32:93:b5:5f:03:3e:dd:
         bf:e8:23:67:dc:1a:7e:ed:2b:84:7d:17:fa:cc:e8:f9:6d:41:
         f1:bb:7d:a6:89:68:69:e1:5d:98:5c:c6:41:12:7b:b3:d4:48:
         24:ff:db:67:f0:8f:37:47:c7:c5:8c:08:71:9b:83:81:32:46:
         b3:2b:97:5b:64:00:7e:2e:50:42:19:7e:51:c6:db:0f:72:ca:
         68:dc:69:a3:73:e0:0b:ae:a0:e7:3e:68:d2:5d:03:88:81:dd:
         e8:2c:b1:d4:b9:dc:b2:1a:7e:b2:20:44:ea:9b:96:a8:87:65:
         35:68:30:20:23:2f:3a:88:f9:d2:d7:7c:50:68:5b:bb:49:b0:
         68:ae:b5:52:d2:de:68:2b:ab:05:ec:89:41:a4:bf:f6:46:56:
         62:5f:56:37:4f:01:d5:16:98:2d:65:fe:66:0e:b0:cd:df:77:
         69:98:79:ac:b2:c0:9d:b1:d2:ae:53:68:04:cb:ec:36:1a:95:
         5f:f0:24:37:30:da:af:08:ef:13:7e:2f:9c:50:94:51:08:91:
         21:90:0a:6a:bb:e3:f1:18:04:96:a1:a0:82:28:e2:37:a5:5b:
         df:25:28:3b:77:ed:44:41:5e:42:2c:8e:86:e0:0f:17:35:20:
         c1:5a:04:dd:8e:59:a1:35:de:6e:09:13:2a:9f:2c:4c:44:63:
         5f:56:7c:27:70:cd:86:eb:5f:8a:14:84:16:58:3d:eb:bc:ee:
         56:ed:ab:36:c4:4b:72:e6
-----BEGIN CERTIFICATE-----
MIIGrDCCBJSgAwIBAgICBZ8wDQYJKoZIhvcNAQEEBQAwgawxCzAJBgNVBAYTAlVT
MQswCQYDVQQIEwJPSDERMA8GA1UEBxMIQ29sdW1idXMxEjAQBgNVBAoTCVZpa2lu
Z1ZQTjEdMBsGA1UECxMUTXlPcmdhbml6YXRpb25hbFVuaXQxFTATBgNVBAMTDFZp
a2luZ1ZQTiBDQTEQMA4GA1UEKRMHRWFzeVJTQTEhMB8GCSqGSIb3DQEJARYSbWVA
bXlob3N0Lm15ZG9tYWluMB4XDTE0MDQwMjA3MjEwOVoXDTI0MDMzMDA3MjEwOVow
HjEcMBoGA1UEAxMTQ2xpZW50NTM2Q2VydGMzYmFlMzCCAiIwDQYJKoZIhvcNAQEB
BQADggIPADCCAgoCggIBALgjCFVXBagHdomWgJBi7QKb7SszdCIlw6B/DvivdSxI
zwMfKvAMT+blQSeEYNbukX+QFusOFHhV1b7InorA1mAJhll83J5soZMaODkwkcUO
ypFHcfl7o8CCqatK72N0BU4sJCrzjiR0Nw8je4HqyrItYKe7/vIFFeHZV1tvFJFE
Rq+RM2/o+ij42ejmJszAC54qBSicqB9ckjDl3OOvtTebcMbzxVStccBxQmRoBckN
CSkVs6J0s4X4GemhGZy++DAoSCyckYyHNerGdf/uZZkEvFCbiv47BMsCjUe1B397
KPhUCchh3n0MD9Y4q8nf5Vtflg6HhsCoIDck1cCanmaDAGSpbJ8aKE/h9DNDr/rm
bsozfP7wZghCSOZE+N+qQEG7wbgOEpKn34uUG39nktVXh3IkC/1Dq003RWQ4m//3
q1B7N2vt418wZHQlfPfO4cXqUlrbF9yjfZLMm4jWv5V39/+9VC0h7cFynwQTFLC8
JMqifwiicFLjOt3yeUMIAkT9YommdWGsiuf8ioLXAF1EiDg7f8Opi7+69CIIKwH+
AWNeih9qu3hQdzfIPU6cRO2PcmBWMrfjC5WhrwWJrRTjj83+mZdIPg3NEbHNx8Ro
xfgk6ndW8Pd1V/UTCIvp4rJXigxErzYyg55I/EguWtfeTyfG+TyYYtGjqC8Hz38/
AgMBAAGjggFjMIIBXzAJBgNVHRMEAjAAMC0GCWCGSAGG+EIBDQQgFh5FYXN5LVJT
QSBHZW5lcmF0ZWQgQ2VydGlmaWNhdGUwHQYDVR0OBBYEFNhwW+X2nWKDksgWzGd8
/cVxSOlEMIHhBgNVHSMEgdkwgdaAFBLNYATSoICecO3Gmbh7LMZS/RmhoYGypIGv
MIGsMQswCQYDVQQGEwJVUzELMAkGA1UECBMCT0gxETAPBgNVBAcTCENvbHVtYnVz
MRIwEAYDVQQKEwlWaWtpbmdWUE4xHTAbBgNVBAsTFE15T3JnYW5pemF0aW9uYWxV
bml0MRUwEwYDVQQDEwxWaWtpbmdWUE4gQ0ExEDAOBgNVBCkTB0Vhc3lSU0ExITAf
BgkqhkiG9w0BCQEWEm1lQG15aG9zdC5teWRvbWFpboIJAM81he6Avyo+MBMGA1Ud
JQQMMAoGCCsGAQUFBwMCMAsGA1UdDwQEAwIHgDANBgkqhkiG9w0BAQQFAAOCAgEA
fbCJsJ25zEP4p1ISnCbMyvM/kwiHTKjb+WXRX6JFT30DbmMZxjc7plVDDg8pKuRR
4u0SWKaKBBKUb61eUGLUXmqOCVU/GkmJ+3SpHrjZI+0CFG0GOWj+q0QN0Sicf9Oe
gvM4HxuLUmAuqrJkSAqvy9XzR3izF1oDuLvroipimJUSNER1JazHfTPIPojR/elx
8+GFgTLn5/PvzZzDJDLSm70VneNKAonsZarfxcnZneoO8JxbPESoNfcZq+ipaOkQ
fmIQ9piHnJ9bxyHrRssQ7m99uBakU4oH88jeUfPkUyHSLxQyk7VfAz7dv+gjZ9wa
fu0rhH0X+szo+W1B8bt9poloaeFdmFzGQRJ7s9RIJP/bZ/CPN0fHxYwIcZuDgTJG
syuXW2QAfi5QQhl+UcbbD3LKaNxpo3PgC66g5z5o0l0DiIHd6Cyx1Lncshp+siBE
6puWqIdlNWgwICMvOoj50td8UGhbu0mwaK61UtLeaCurBeyJQaS/9kZWYl9WN08B
1RaYLWX+Zg6wzd93aZh5rLLAnbHSrlNoBMvsNhqVX/AkNzDarwjvE34vnFCUUQiR
IZAKarvj8RgElqGggijiN6Vb3yUoO3ftREFeQiyOhuAPFzUgwVoE3Y5ZoTXebgkT
Kp8sTERjX1Z8J3DNhutfihSEFlg967zuVu2rNsRLcuY=
-----END CERTIFICATE-----
