Certificate:
    Data:
        Version: 3 (0x2)
        Serial Number: 1443 (0x5a3)
    Signature Algorithm: md5WithRSAEncryption
        Issuer: C=US, ST=OH, L=Columbus, O=VikingVPN, OU=MyOrganizationalUnit, CN=VikingVPN CA/name=EasyRSA/emailAddress=me@myhost.mydomain
        Validity
            Not Before: Apr  2 13:55:37 2014 GMT
            Not After : Mar 30 13:55:37 2024 GMT
        Subject: CN=Client537Cert5f5b4c
        Subject Public Key Info:
            Public Key Algorithm: rsaEncryption
                Public-Key: (4096 bit)
                Modulus:
                    00:b5:08:30:14:49:5e:3e:ca:02:de:fc:d6:e0:20:
                    f1:f4:30:43:36:09:0e:f5:cb:31:16:e6:a0:73:05:
                    c8:52:59:10:4c:b0:af:9c:a8:65:c8:9b:93:7b:0a:
                    a6:23:17:68:80:3d:a0:0c:2f:19:2d:dd:22:a1:58:
                    16:8c:17:a7:04:40:48:0e:c1:f9:3e:7e:a7:2e:29:
                    e8:c1:ef:af:68:af:24:4b:c7:06:e0:bd:0c:19:cc:
                    5a:02:93:78:98:14:56:9e:c9:7c:40:e3:f7:c0:d7:
                    5f:40:ff:b4:d0:1b:61:b0:29:2a:84:2e:a4:9f:ad:
                    1e:0d:c4:98:92:18:69:fb:6a:30:ee:97:8c:fc:29:
                    f7:fa:ca:9e:37:51:50:11:7e:e8:17:c0:2b:2f:74:
                    3c:5f:60:43:c6:11:8c:31:a8:0b:2f:71:63:84:f5:
                    5a:0a:2e:60:a0:c3:d5:2e:5f:26:5a:de:76:fc:a5:
                    66:0b:a1:b6:d2:11:0f:69:77:6c:83:f1:d9:aa:87:
                    75:74:20:f6:0c:11:2f:df:1d:b3:27:90:29:65:9e:
                    3e:15:f6:82:22:f9:ee:56:a5:50:67:57:86:ea:60:
                    fe:0f:5e:22:3a:36:47:b1:83:33:03:e1:60:42:d2:
                    c0:ae:87:ed:ab:fb:27:34:28:38:f2:c8:54:22:44:
                    c1:8c:ec:27:f1:54:b9:c7:2d:02:0a:7d:3c:8e:a5:
                    fd:7c:65:7a:2b:18:a0:1c:08:5c:11:6a:9b:22:e9:
                    91:07:25:c0:71:cb:84:72:93:99:e0:0f:0e:ff:89:
                    18:2d:c8:05:55:ea:d0:fb:85:bc:89:c6:f0:ec:01:
                    0a:0f:ea:e8:e4:25:41:82:e0:d2:79:9e:5e:12:a4:
                    a2:ef:71:f3:c1:0e:1d:36:fd:4d:47:b5:d1:e5:b6:
                    5d:b1:5e:32:14:dd:2a:d1:c4:62:5d:82:df:bf:fc:
                    6a:d1:ff:9e:1b:b3:63:20:e4:42:5e:41:c4:82:ae:
                    68:f4:8d:d7:64:7b:e1:01:1b:05:a8:4e:5e:e1:b6:
                    54:f1:c2:8f:13:21:67:25:b9:91:eb:60:75:d9:29:
                    22:a4:06:b7:1a:24:0a:06:44:8a:90:cc:ed:7c:7e:
                    41:0e:18:66:dc:2b:98:6b:b0:e2:0f:e4:e1:7e:f5:
                    d5:bc:26:19:bc:38:a2:13:4a:64:6d:d8:cb:af:1e:
                    c7:2a:68:8c:a4:16:67:cf:1e:eb:ee:77:12:67:f0:
                    8d:37:29:3b:4b:c3:e9:3d:ea:7f:b0:60:a0:62:6c:
                    10:5a:44:57:f0:ef:25:63:c9:f1:bf:bf:31:e6:d1:
                    c7:16:81:b1:49:94:6e:19:96:ba:45:23:43:25:84:
                    c4:05:23
                Exponent: 65537 (0x10001)
        X509v3 extensions:
            X509v3 Basic Constraints: 
                CA:FALSE
            Netscape Comment: 
                Easy-RSA Generated Certificate
            X509v3 Subject Key Identifier: 
                00:36:5F:52:8A:2D:8A:1F:50:8C:E5:52:37:5F:AD:02:A6:31:1C:33
            X509v3 Authority Key Identifier: 
                keyid:12:CD:60:04:D2:A0:80:9E:70:ED:C6:99:B8:7B:2C:C6:52:FD:19:A1
                DirName:/C=US/ST=OH/L=Columbus/O=VikingVPN/OU=MyOrganizationalUnit/CN=VikingVPN CA/name=EasyRSA/emailAddress=me@myhost.mydomain
                serial:CF:35:85:EE:80:BF:2A:3E

            X509v3 Extended Key Usage: 
                TLS Web Client Authentication
            X509v3 Key Usage: 
                Digital Signature
    Signature Algorithm: md5WithRSAEncryption
         4c:cf:1e:c7:ab:84:aa:b7:c0:22:ed:54:45:6b:3c:27:7d:e4:
         0d:de:62:94:6f:c9:34:df:ba:a1:59:e5:6c:46:18:d1:cc:61:
         43:6e:db:24:d9:43:de:2c:67:90:81:05:2a:01:fc:1e:0d:8f:
         8f:b8:b2:65:0a:cb:ae:1a:7b:d3:cc:db:3a:51:d5:0b:54:b8:
         99:b8:5c:f9:4f:5a:8d:2b:2a:ac:7c:df:96:fd:1a:05:e2:b3:
         4e:ad:e9:17:2c:46:b4:1e:3d:16:fe:82:e4:31:47:10:e0:34:
         da:28:3e:31:c1:58:11:d0:75:f4:f3:e3:18:1e:32:33:6d:0e:
         6c:7a:9e:99:e4:e7:8f:d2:57:b6:d2:a6:6d:d8:b0:af:f6:58:
         c9:34:b2:45:c3:8c:e9:68:e3:fa:d1:9d:27:7b:64:ab:d4:27:
         5e:7f:f6:3f:34:99:dc:08:ee:4d:b0:6f:3c:42:f7:36:60:2e:
         97:5c:e0:f6:d4:b1:50:e7:c0:28:b4:a2:ad:73:de:cd:8f:37:
         f3:34:79:c1:c6:2a:89:a7:3a:0d:f0:8f:0f:04:e9:1e:ef:c3:
         34:b1:35:a7:ff:de:ff:67:92:c6:27:c8:e5:e7:0c:80:ac:48:
         59:02:80:55:d3:03:a7:8f:ea:e8:7a:68:c8:8d:a2:03:df:ae:
         8d:ec:57:61:78:a6:14:95:35:c6:2c:a1:3b:38:4b:9c:82:b6:
         44:49:4f:c9:98:9c:9d:cf:2f:4c:6b:5a:f6:b9:8c:6a:c5:b8:
         7b:5f:79:7f:3d:de:b6:e1:8f:66:a3:65:a2:0a:91:98:04:b0:
         8d:75:cd:0c:ef:95:a3:57:7d:a3:bc:43:6a:7e:d3:58:77:8e:
         b7:df:45:fc:54:84:a0:b9:71:49:a0:87:02:11:ae:94:b4:8b:
         88:07:02:2c:4e:1b:8c:80:1a:c6:5a:e6:af:50:f7:ea:a0:b4:
         9b:1c:73:73:4a:94:3b:28:80:83:81:9e:ee:5c:e1:ce:ad:25:
         cc:a0:87:b9:f8:7f:ba:89:c8:75:68:32:58:00:d2:04:e6:96:
         7b:fc:5a:f1:46:38:26:f6:f0:80:49:d7:93:0a:f1:40:f8:db:
         19:04:f8:54:83:9d:da:a2:be:aa:3d:81:cb:8a:4f:3f:d7:ef:
         ba:37:4d:b5:a4:3a:36:5c:76:a8:57:2b:92:d0:4d:5c:49:bc:
         af:1d:20:97:df:2b:f1:bf:0c:5a:88:71:35:42:7f:b7:93:9c:
         ac:70:08:2a:32:ed:e3:24:72:1f:55:5e:0a:57:19:3c:65:5d:
         0b:a3:f9:6d:4c:7c:ee:d0:77:7f:ba:de:f7:55:42:a6:dd:a4:
         5a:32:59:24:b5:a3:cf:49
-----BEGIN CERTIFICATE-----
MIIGrDCCBJSgAwIBAgICBaMwDQYJKoZIhvcNAQEEBQAwgawxCzAJBgNVBAYTAlVT
MQswCQYDVQQIEwJPSDERMA8GA1UEBxMIQ29sdW1idXMxEjAQBgNVBAoTCVZpa2lu
Z1ZQTjEdMBsGA1UECxMUTXlPcmdhbml6YXRpb25hbFVuaXQxFTATBgNVBAMTDFZp
a2luZ1ZQTiBDQTEQMA4GA1UEKRMHRWFzeVJTQTEhMB8GCSqGSIb3DQEJARYSbWVA
bXlob3N0Lm15ZG9tYWluMB4XDTE0MDQwMjEzNTUzN1oXDTI0MDMzMDEzNTUzN1ow
HjEcMBoGA1UEAxMTQ2xpZW50NTM3Q2VydDVmNWI0YzCCAiIwDQYJKoZIhvcNAQEB
BQADggIPADCCAgoCggIBALUIMBRJXj7KAt781uAg8fQwQzYJDvXLMRbmoHMFyFJZ
EEywr5yoZcibk3sKpiMXaIA9oAwvGS3dIqFYFowXpwRASA7B+T5+py4p6MHvr2iv
JEvHBuC9DBnMWgKTeJgUVp7JfEDj98DXX0D/tNAbYbApKoQupJ+tHg3EmJIYaftq
MO6XjPwp9/rKnjdRUBF+6BfAKy90PF9gQ8YRjDGoCy9xY4T1WgouYKDD1S5fJlre
dvylZguhttIRD2l3bIPx2aqHdXQg9gwRL98dsyeQKWWePhX2giL57lalUGdXhupg
/g9eIjo2R7GDMwPhYELSwK6H7av7JzQoOPLIVCJEwYzsJ/FUucctAgp9PI6l/Xxl
eisYoBwIXBFqmyLpkQclwHHLhHKTmeAPDv+JGC3IBVXq0PuFvInG8OwBCg/q6OQl
QYLg0nmeXhKkou9x88EOHTb9TUe10eW2XbFeMhTdKtHEYl2C37/8atH/nhuzYyDk
Ql5BxIKuaPSN12R74QEbBahOXuG2VPHCjxMhZyW5ketgddkpIqQGtxokCgZEipDM
7Xx+QQ4YZtwrmGuw4g/k4X711bwmGbw4ohNKZG3Yy68exypojKQWZ88e6+53Emfw
jTcpO0vD6T3qf7BgoGJsEFpEV/DvJWPJ8b+/MebRxxaBsUmUbhmWukUjQyWExAUj
AgMBAAGjggFjMIIBXzAJBgNVHRMEAjAAMC0GCWCGSAGG+EIBDQQgFh5FYXN5LVJT
QSBHZW5lcmF0ZWQgQ2VydGlmaWNhdGUwHQYDVR0OBBYEFAA2X1KKLYofUIzlUjdf
rQKmMRwzMIHhBgNVHSMEgdkwgdaAFBLNYATSoICecO3Gmbh7LMZS/RmhoYGypIGv
MIGsMQswCQYDVQQGEwJVUzELMAkGA1UECBMCT0gxETAPBgNVBAcTCENvbHVtYnVz
MRIwEAYDVQQKEwlWaWtpbmdWUE4xHTAbBgNVBAsTFE15T3JnYW5pemF0aW9uYWxV
bml0MRUwEwYDVQQDEwxWaWtpbmdWUE4gQ0ExEDAOBgNVBCkTB0Vhc3lSU0ExITAf
BgkqhkiG9w0BCQEWEm1lQG15aG9zdC5teWRvbWFpboIJAM81he6Avyo+MBMGA1Ud
JQQMMAoGCCsGAQUFBwMCMAsGA1UdDwQEAwIHgDANBgkqhkiG9w0BAQQFAAOCAgEA
TM8ex6uEqrfAIu1URWs8J33kDd5ilG/JNN+6oVnlbEYY0cxhQ27bJNlD3ixnkIEF
KgH8Hg2Pj7iyZQrLrhp708zbOlHVC1S4mbhc+U9ajSsqrHzflv0aBeKzTq3pFyxG
tB49Fv6C5DFHEOA02ig+McFYEdB19PPjGB4yM20ObHqemeTnj9JXttKmbdiwr/ZY
yTSyRcOM6Wjj+tGdJ3tkq9QnXn/2PzSZ3AjuTbBvPEL3NmAul1zg9tSxUOfAKLSi
rXPezY838zR5wcYqiac6DfCPDwTpHu/DNLE1p//e/2eSxifI5ecMgKxIWQKAVdMD
p4/q6HpoyI2iA9+ujexXYXimFJU1xiyhOzhLnIK2RElPyZicnc8vTGta9rmMasW4
e195fz3etuGPZqNlogqRmASwjXXNDO+Vo1d9o7xDan7TWHeOt99F/FSEoLlxSaCH
AhGulLSLiAcCLE4bjIAaxlrmr1D36qC0mxxzc0qUOyiAg4Ge7lzhzq0lzKCHufh/
uonIdWgyWADSBOaWe/xa8UY4JvbwgEnXkwrxQPjbGQT4VIOd2qK+qj2By4pPP9fv
ujdNtaQ6Nlx2qFcrktBNXEm8rx0gl98r8b8MWohxNUJ/t5OcrHAIKjLt4yRyH1Ve
ClcZPGVdC6P5bUx87tB3f7re91VCpt2kWjJZJLWjz0k=
-----END CERTIFICATE-----
