Certificate:
    Data:
        Version: 3 (0x2)
        Serial Number: 1460 (0x5b4)
    Signature Algorithm: md5WithRSAEncryption
        Issuer: C=US, ST=OH, L=Columbus, O=VikingVPN, OU=MyOrganizationalUnit, CN=VikingVPN CA/name=EasyRSA/emailAddress=me@myhost.mydomain
        Validity
            Not Before: Apr  4 11:28:57 2014 GMT
            Not After : Apr  1 11:28:57 2024 GMT
        Subject: CN=Client547Certa7748d
        Subject Public Key Info:
            Public Key Algorithm: rsaEncryption
                Public-Key: (4096 bit)
                Modulus:
                    00:dd:11:9a:a8:b7:fd:ba:3c:93:56:4d:64:d3:fb:
                    8d:1d:9f:f9:10:3f:9c:c9:79:e8:c2:66:62:77:47:
                    b3:a6:02:8a:38:fb:32:58:ee:32:c3:b3:c4:ab:fc:
                    c0:45:c0:c4:0a:9d:54:4f:71:05:62:db:69:6f:4e:
                    54:8b:02:d6:d5:7b:ee:c6:6e:3e:dd:93:4a:33:b2:
                    3d:44:18:35:82:91:52:f0:8d:9a:16:43:11:0d:0f:
                    be:d5:21:a1:46:c8:58:c7:61:5d:ac:30:6f:70:8e:
                    6e:01:46:89:d0:70:a9:0b:08:3f:ba:9c:ad:cb:34:
                    18:97:fe:a8:5b:46:c3:63:21:97:d4:51:1d:fe:51:
                    60:dd:e3:be:82:7d:96:c1:95:7a:3f:96:05:e3:00:
                    8f:2e:bc:74:9c:8a:07:43:a5:bf:38:5a:62:a9:95:
                    bb:d1:60:6b:c3:d7:db:c5:34:78:43:66:b5:32:8a:
                    ee:1c:1a:5d:23:e5:37:95:a4:94:0c:4c:11:f6:66:
                    d0:30:fa:db:1f:2e:b5:07:23:fb:10:fd:a3:7f:19:
                    d7:9d:7a:5c:37:19:e7:fb:e9:64:0b:21:09:4a:d8:
                    b8:0f:c3:95:8e:76:0f:3b:f8:7e:31:2a:00:de:4d:
                    54:c4:6f:e7:fb:e2:66:81:07:8e:92:39:e5:8c:2c:
                    d8:98:ad:46:04:f7:db:30:be:c1:13:80:69:5b:d8:
                    b6:fe:bc:d5:1c:cf:d2:aa:e6:2f:34:df:c4:a1:bf:
                    4c:cc:b3:db:b0:b7:66:cf:d4:a3:f9:e6:5c:7d:aa:
                    04:a1:8c:b7:63:fc:fa:84:8c:fb:17:2b:f0:cc:d7:
                    5f:11:09:b3:59:3a:0d:1c:23:a7:fc:a0:ac:91:13:
                    2a:32:60:1e:46:47:aa:8b:4d:60:91:81:0d:e1:d6:
                    0f:e6:08:6b:4a:75:0f:e8:b3:c1:e9:85:30:a1:c4:
                    cb:9e:49:e4:d4:1c:98:b7:77:4a:7a:98:8c:5b:78:
                    5d:55:e4:d4:28:d4:ef:1b:46:ec:a3:7d:c1:d2:d9:
                    40:5c:27:a8:68:4b:40:ab:f5:12:05:3b:13:11:1c:
                    8e:cf:10:06:9f:da:fb:58:2c:75:a4:48:9f:a4:43:
                    85:18:26:99:57:91:92:a3:51:a1:a0:92:e0:f9:79:
                    24:8c:6a:70:ed:e7:c7:b7:e5:be:29:ee:a3:87:ad:
                    5e:c9:2e:62:1d:87:e1:2c:a8:75:af:a5:9c:e9:4f:
                    66:50:83:29:ef:b1:16:4e:8e:b4:b6:22:af:ca:5e:
                    e1:00:d0:de:57:7f:75:91:20:33:30:bc:cd:2c:ee:
                    4e:f3:80:cd:b0:66:22:0f:e5:29:db:7c:3a:ad:86:
                    ec:84:2b
                Exponent: 65537 (0x10001)
        X509v3 extensions:
            X509v3 Basic Constraints: 
                CA:FALSE
            Netscape Comment: 
                Easy-RSA Generated Certificate
            X509v3 Subject Key Identifier: 
                82:2B:7D:57:05:69:8C:8D:01:0F:DF:8A:34:6A:52:DE:82:C1:06:81
            X509v3 Authority Key Identifier: 
                keyid:12:CD:60:04:D2:A0:80:9E:70:ED:C6:99:B8:7B:2C:C6:52:FD:19:A1
                DirName:/C=US/ST=OH/L=Columbus/O=VikingVPN/OU=MyOrganizationalUnit/CN=VikingVPN CA/name=EasyRSA/emailAddress=me@myhost.mydomain
                serial:CF:35:85:EE:80:BF:2A:3E

            X509v3 Extended Key Usage: 
                TLS Web Client Authentication
            X509v3 Key Usage: 
                Digital Signature
    Signature Algorithm: md5WithRSAEncryption
         a4:65:92:88:82:3d:2a:30:b6:13:75:75:6b:af:e1:4f:3f:33:
         12:88:32:36:6c:3d:f0:d3:1c:98:c5:f2:5d:12:7f:53:66:91:
         99:56:68:2d:2f:92:de:52:26:d5:b1:1c:82:ce:a5:af:b0:d9:
         fb:34:0b:60:cc:ca:b2:b7:af:69:2d:ff:4a:77:31:df:b6:97:
         02:47:12:cc:6a:19:fa:3e:b9:2c:a6:b8:23:d0:49:21:5b:08:
         a8:c8:2d:24:fc:92:eb:3f:0d:94:84:ac:c0:0f:17:66:75:24:
         d9:99:7f:62:cc:34:56:78:01:f2:d8:7b:62:72:6b:89:dd:d5:
         24:fc:3c:a9:2d:05:f4:77:da:8a:ba:7b:57:d1:35:44:41:f4:
         f7:1b:2a:e7:f9:26:d3:e6:1f:04:8f:84:a7:0e:c2:02:c1:92:
         a3:2c:c7:23:7f:fe:a4:bb:22:d7:81:e4:a6:b1:fc:4e:e8:e7:
         eb:e5:66:3a:e7:7b:b8:a7:c2:3c:fe:2c:ef:cb:ae:b9:a6:54:
         48:0f:3a:22:56:bf:91:df:c1:41:6d:76:51:1e:bc:58:7e:70:
         e2:05:f8:49:f1:67:ec:bd:07:65:16:7c:06:a5:5c:5e:3d:33:
         08:16:33:42:ad:83:57:ff:df:1f:5a:4f:cd:3b:21:8b:73:5f:
         52:f2:83:24:38:df:0a:25:4b:6c:35:df:3b:bf:d9:5d:e1:34:
         98:37:1a:27:63:9e:28:ad:1c:91:cb:67:dc:a1:c5:e6:91:00:
         54:90:d6:94:1c:c8:e5:4b:8d:d9:53:4a:c8:a5:84:ae:79:a4:
         42:a5:ab:1d:3c:b9:47:30:da:b3:99:18:12:d4:72:ad:d8:1f:
         80:94:6f:bd:98:7c:70:b8:50:4c:62:6f:fc:f2:8b:71:93:36:
         6b:d5:f8:30:0b:c3:43:42:fe:2f:a4:86:5c:6b:61:20:d4:e5:
         56:07:23:51:32:81:1a:24:e5:86:17:d4:f6:62:1d:d5:78:ab:
         82:00:ba:11:be:ef:1b:58:ac:27:6b:8d:9f:9c:a4:e2:53:39:
         c7:69:26:1f:d5:df:13:ae:54:ab:03:64:53:97:f8:1f:f9:b1:
         64:3c:f2:73:07:1e:89:06:0a:5e:ea:72:55:41:36:ce:3c:c2:
         57:26:d3:81:40:8f:66:2c:73:29:ce:41:ff:c9:f8:3c:92:6a:
         22:2f:41:1a:79:9b:e5:d1:db:15:75:9f:c1:57:2c:8d:9e:a9:
         e5:ca:c1:85:e4:81:79:23:ce:c3:69:d4:f2:e8:0d:0f:34:b0:
         76:fb:01:e9:f4:69:5a:bb:34:55:aa:80:f5:50:01:58:93:1e:
         94:c9:3e:29:23:44:67:61
-----BEGIN CERTIFICATE-----
MIIGrDCCBJSgAwIBAgICBbQwDQYJKoZIhvcNAQEEBQAwgawxCzAJBgNVBAYTAlVT
MQswCQYDVQQIEwJPSDERMA8GA1UEBxMIQ29sdW1idXMxEjAQBgNVBAoTCVZpa2lu
Z1ZQTjEdMBsGA1UECxMUTXlPcmdhbml6YXRpb25hbFVuaXQxFTATBgNVBAMTDFZp
a2luZ1ZQTiBDQTEQMA4GA1UEKRMHRWFzeVJTQTEhMB8GCSqGSIb3DQEJARYSbWVA
bXlob3N0Lm15ZG9tYWluMB4XDTE0MDQwNDExMjg1N1oXDTI0MDQwMTExMjg1N1ow
HjEcMBoGA1UEAxMTQ2xpZW50NTQ3Q2VydGE3NzQ4ZDCCAiIwDQYJKoZIhvcNAQEB
BQADggIPADCCAgoCggIBAN0Rmqi3/bo8k1ZNZNP7jR2f+RA/nMl56MJmYndHs6YC
ijj7MljuMsOzxKv8wEXAxAqdVE9xBWLbaW9OVIsC1tV77sZuPt2TSjOyPUQYNYKR
UvCNmhZDEQ0PvtUhoUbIWMdhXawwb3CObgFGidBwqQsIP7qcrcs0GJf+qFtGw2Mh
l9RRHf5RYN3jvoJ9lsGVej+WBeMAjy68dJyKB0OlvzhaYqmVu9Fga8PX28U0eENm
tTKK7hwaXSPlN5WklAxMEfZm0DD62x8utQcj+xD9o38Z1516XDcZ5/vpZAshCUrY
uA/DlY52Dzv4fjEqAN5NVMRv5/viZoEHjpI55Yws2JitRgT32zC+wROAaVvYtv68
1RzP0qrmLzTfxKG/TMyz27C3Zs/Uo/nmXH2qBKGMt2P8+oSM+xcr8MzXXxEJs1k6
DRwjp/ygrJETKjJgHkZHqotNYJGBDeHWD+YIa0p1D+izwemFMKHEy55J5NQcmLd3
SnqYjFt4XVXk1CjU7xtG7KN9wdLZQFwnqGhLQKv1EgU7ExEcjs8QBp/a+1gsdaRI
n6RDhRgmmVeRkqNRoaCS4Pl5JIxqcO3nx7flvinuo4etXskuYh2H4Syoda+lnOlP
ZlCDKe+xFk6OtLYir8pe4QDQ3ld/dZEgMzC8zSzuTvOAzbBmIg/lKdt8Oq2G7IQr
AgMBAAGjggFjMIIBXzAJBgNVHRMEAjAAMC0GCWCGSAGG+EIBDQQgFh5FYXN5LVJT
QSBHZW5lcmF0ZWQgQ2VydGlmaWNhdGUwHQYDVR0OBBYEFIIrfVcFaYyNAQ/fijRq
Ut6CwQaBMIHhBgNVHSMEgdkwgdaAFBLNYATSoICecO3Gmbh7LMZS/RmhoYGypIGv
MIGsMQswCQYDVQQGEwJVUzELMAkGA1UECBMCT0gxETAPBgNVBAcTCENvbHVtYnVz
MRIwEAYDVQQKEwlWaWtpbmdWUE4xHTAbBgNVBAsTFE15T3JnYW5pemF0aW9uYWxV
bml0MRUwEwYDVQQDEwxWaWtpbmdWUE4gQ0ExEDAOBgNVBCkTB0Vhc3lSU0ExITAf
BgkqhkiG9w0BCQEWEm1lQG15aG9zdC5teWRvbWFpboIJAM81he6Avyo+MBMGA1Ud
JQQMMAoGCCsGAQUFBwMCMAsGA1UdDwQEAwIHgDANBgkqhkiG9w0BAQQFAAOCAgEA
pGWSiII9KjC2E3V1a6/hTz8zEogyNmw98NMcmMXyXRJ/U2aRmVZoLS+S3lIm1bEc
gs6lr7DZ+zQLYMzKsrevaS3/Sncx37aXAkcSzGoZ+j65LKa4I9BJIVsIqMgtJPyS
6z8NlISswA8XZnUk2Zl/Ysw0VngB8th7YnJrid3VJPw8qS0F9Hfairp7V9E1REH0
9xsq5/km0+YfBI+Epw7CAsGSoyzHI3/+pLsi14HkprH8Tujn6+VmOud7uKfCPP4s
78uuuaZUSA86Ila/kd/BQW12UR68WH5w4gX4SfFn7L0HZRZ8BqVcXj0zCBYzQq2D
V//fH1pPzTshi3NfUvKDJDjfCiVLbDXfO7/ZXeE0mDcaJ2OeKK0ckctn3KHF5pEA
VJDWlBzI5UuN2VNKyKWErnmkQqWrHTy5RzDas5kYEtRyrdgfgJRvvZh8cLhQTGJv
/PKLcZM2a9X4MAvDQ0L+L6SGXGthINTlVgcjUTKBGiTlhhfU9mId1XirggC6Eb7v
G1isJ2uNn5yk4lM5x2kmH9XfE65UqwNkU5f4H/mxZDzycwceiQYKXupyVUE2zjzC
VybTgUCPZixzKc5B/8n4PJJqIi9BGnmb5dHbFXWfwVcsjZ6p5crBheSBeSPOw2nU
8ugNDzSwdvsB6fRpWrs0VaqA9VABWJMelMk+KSNEZ2E=
-----END CERTIFICATE-----
