Certificate:
    Data:
        Version: 3 (0x2)
        Serial Number: 1466 (0x5ba)
    Signature Algorithm: md5WithRSAEncryption
        Issuer: C=US, ST=OH, L=Columbus, O=VikingVPN, OU=MyOrganizationalUnit, CN=VikingVPN CA/name=EasyRSA/emailAddress=me@myhost.mydomain
        Validity
            Not Before: Apr  5 05:51:07 2014 GMT
            Not After : Apr  2 05:51:07 2024 GMT
        Subject: CN=Client549Certd79f2b
        Subject Public Key Info:
            Public Key Algorithm: rsaEncryption
                Public-Key: (4096 bit)
                Modulus:
                    00:be:b9:8d:cf:b8:1c:1a:41:15:ad:34:82:0f:e4:
                    a0:7f:ba:87:ae:18:76:13:2d:b5:84:63:cb:ef:e2:
                    a4:c3:8f:59:f0:51:98:2b:e8:18:47:2f:0e:69:74:
                    de:ab:d7:c7:f4:ec:90:ca:e3:34:f4:c8:71:b2:f6:
                    66:c4:34:27:47:da:50:1b:b3:27:40:f7:84:ca:59:
                    0e:a9:07:94:7a:ec:4d:81:3a:59:d8:4e:20:c7:8b:
                    27:d1:42:34:5a:5b:48:10:c4:ce:5c:49:ea:61:8b:
                    9c:fb:5c:f7:45:23:d3:81:f8:29:d7:62:d0:4f:ff:
                    1f:40:85:ee:19:a3:3b:26:d2:da:93:8c:9f:b8:0c:
                    24:d0:23:07:9a:b0:0f:bd:22:92:86:b3:52:a6:2a:
                    e8:5e:b5:7c:44:b9:f4:86:74:fd:d8:7a:f2:46:b9:
                    c9:81:d8:aa:c7:ee:df:2b:2c:52:50:38:92:0f:f8:
                    fe:c8:26:77:4f:de:52:d2:5b:37:0f:73:8b:e9:45:
                    fd:0b:de:af:fe:00:0c:f0:a0:62:dc:83:58:60:ad:
                    4d:75:39:6a:a4:57:a9:29:54:6d:3b:d3:db:d8:ca:
                    fb:1e:07:50:4d:ac:7e:1f:21:12:80:a3:30:bf:6e:
                    90:29:a4:55:42:29:4c:72:66:73:e9:70:d2:40:1b:
                    8b:fc:7f:78:6c:9a:eb:9d:d7:52:47:b3:c3:45:75:
                    03:e4:4b:16:dc:c1:f6:0d:7e:d7:27:16:5a:6d:c5:
                    44:59:ed:32:b2:9d:26:a3:e2:8f:f2:cc:56:c5:f7:
                    2d:50:8d:0d:02:b3:2d:cd:f8:c9:3e:53:a2:cf:59:
                    29:8b:01:41:e9:e8:95:96:d2:c4:7b:33:9b:d5:86:
                    d2:32:1a:c5:ed:ac:84:d5:3b:c1:af:94:b7:cb:cc:
                    71:a7:dc:aa:4b:74:96:76:43:61:32:62:2c:5e:91:
                    7e:65:3a:53:b0:ae:b2:32:50:87:0a:98:e7:15:c5:
                    74:0d:0d:a3:ba:21:d7:c9:8f:3a:ea:f6:1b:a0:c2:
                    98:cf:8f:b6:a9:93:43:4d:b6:2b:bc:4c:d2:b1:0a:
                    ba:14:39:fd:9e:99:0d:31:ec:9d:98:5f:ae:64:b2:
                    7f:24:bf:04:cc:5e:a5:29:3f:62:e2:e1:52:cc:60:
                    d7:f3:c1:eb:f1:43:ad:13:ae:bb:06:52:77:4f:23:
                    85:d0:c6:48:9a:32:0c:18:d2:35:4c:53:15:17:11:
                    5a:58:1b:35:9f:10:fa:95:97:99:68:a0:ad:6e:9f:
                    27:fe:5c:f1:35:4a:bc:7b:86:ac:72:35:b0:d9:6f:
                    16:16:5c:da:eb:9e:e8:bc:51:9d:8d:41:cd:8c:7c:
                    88:22:1f
                Exponent: 65537 (0x10001)
        X509v3 extensions:
            X509v3 Basic Constraints: 
                CA:FALSE
            Netscape Comment: 
                Easy-RSA Generated Certificate
            X509v3 Subject Key Identifier: 
                64:A3:2E:D7:68:53:37:72:2A:9A:22:F2:CF:8C:8D:81:AA:B8:40:23
            X509v3 Authority Key Identifier: 
                keyid:12:CD:60:04:D2:A0:80:9E:70:ED:C6:99:B8:7B:2C:C6:52:FD:19:A1
                DirName:/C=US/ST=OH/L=Columbus/O=VikingVPN/OU=MyOrganizationalUnit/CN=VikingVPN CA/name=EasyRSA/emailAddress=me@myhost.mydomain
                serial:CF:35:85:EE:80:BF:2A:3E

            X509v3 Extended Key Usage: 
                TLS Web Client Authentication
            X509v3 Key Usage: 
                Digital Signature
    Signature Algorithm: md5WithRSAEncryption
         33:72:cd:aa:4e:07:73:45:b1:44:82:5e:62:b4:eb:49:49:2b:
         5e:86:15:a5:a2:83:52:b8:56:71:b7:8c:e7:40:33:96:f1:43:
         80:af:cb:34:10:31:32:01:f7:56:fa:55:14:72:08:8a:ab:d3:
         15:98:2e:9b:a5:8e:23:68:6f:35:23:c9:98:7a:6e:11:e7:2c:
         15:b2:09:89:83:13:19:6d:f4:c5:b3:0c:41:e8:62:4f:f4:c9:
         4b:74:cc:a2:13:94:5b:a0:18:3c:74:91:15:bc:31:f9:27:fa:
         bc:ba:86:88:0d:0a:63:29:08:63:69:00:15:9f:13:e5:79:46:
         15:81:9e:06:ef:a9:3e:0c:60:bd:10:d0:66:21:4f:75:92:be:
         7f:5f:d2:6d:df:03:82:bb:f6:ef:ef:e8:a9:e0:4f:66:b6:4b:
         b0:ce:8a:65:b3:1f:ea:a6:c7:90:5d:a7:82:9f:50:45:28:5d:
         1b:55:e5:8d:e5:68:18:fd:b5:22:9b:45:59:7c:60:51:30:41:
         39:c6:e4:a4:a3:e4:e4:ac:6f:29:c2:be:e4:5d:b6:93:25:4e:
         d8:63:7e:13:79:44:04:d0:ab:ad:24:2e:1a:b6:66:55:e5:e3:
         db:6b:96:8a:98:b5:b3:6e:b1:06:20:33:49:15:0f:af:89:2d:
         85:21:19:2e:5d:0c:92:99:63:ed:f6:8f:10:7a:59:c4:cc:50:
         3f:96:dd:da:8e:0a:e1:f4:1a:a0:fb:60:1b:5c:d8:01:e1:86:
         41:1f:30:7c:36:c2:00:da:31:79:a1:06:93:c7:84:a2:21:50:
         b2:6e:4a:f9:ce:6f:41:07:5a:36:b2:c5:24:f9:82:81:ab:70:
         c8:56:8e:34:05:29:82:52:cd:88:c8:64:5e:e8:5f:02:f9:c0:
         8c:05:69:e5:ce:09:a3:44:09:6b:16:5b:88:b9:b4:9a:32:15:
         ee:de:48:dc:8f:fe:c8:c6:b6:61:cf:30:db:be:11:58:c8:03:
         18:5f:60:45:d1:b1:d6:60:e5:37:89:7b:74:fa:7c:96:65:2d:
         ed:f0:0b:65:4b:e7:37:2b:64:40:be:95:78:48:f5:50:ac:27:
         6e:73:31:1e:12:d9:26:b3:1a:23:f0:27:44:5d:41:fa:a2:fc:
         54:58:e3:f2:31:00:a4:23:5d:9f:87:33:4c:76:ce:54:01:07:
         1e:fd:66:4a:8f:9f:14:13:24:1a:cd:67:16:c2:84:33:0e:c0:
         13:62:3e:f6:4e:6b:f6:8a:8d:b4:b7:fe:95:e2:14:c2:9f:c0:
         c0:54:bb:0e:7c:24:5b:84:90:4f:c1:76:fd:12:8b:6a:ce:ce:
         74:4e:fa:55:ac:e5:f3:c3
-----BEGIN CERTIFICATE-----
MIIGrDCCBJSgAwIBAgICBbowDQYJKoZIhvcNAQEEBQAwgawxCzAJBgNVBAYTAlVT
MQswCQYDVQQIEwJPSDERMA8GA1UEBxMIQ29sdW1idXMxEjAQBgNVBAoTCVZpa2lu
Z1ZQTjEdMBsGA1UECxMUTXlPcmdhbml6YXRpb25hbFVuaXQxFTATBgNVBAMTDFZp
a2luZ1ZQTiBDQTEQMA4GA1UEKRMHRWFzeVJTQTEhMB8GCSqGSIb3DQEJARYSbWVA
bXlob3N0Lm15ZG9tYWluMB4XDTE0MDQwNTA1NTEwN1oXDTI0MDQwMjA1NTEwN1ow
HjEcMBoGA1UEAxMTQ2xpZW50NTQ5Q2VydGQ3OWYyYjCCAiIwDQYJKoZIhvcNAQEB
BQADggIPADCCAgoCggIBAL65jc+4HBpBFa00gg/koH+6h64YdhMttYRjy+/ipMOP
WfBRmCvoGEcvDml03qvXx/TskMrjNPTIcbL2ZsQ0J0faUBuzJ0D3hMpZDqkHlHrs
TYE6WdhOIMeLJ9FCNFpbSBDEzlxJ6mGLnPtc90Uj04H4Kddi0E//H0CF7hmjOybS
2pOMn7gMJNAjB5qwD70ikoazUqYq6F61fES59IZ0/dh68ka5yYHYqsfu3yssUlA4
kg/4/sgmd0/eUtJbNw9zi+lF/Qver/4ADPCgYtyDWGCtTXU5aqRXqSlUbTvT29jK
+x4HUE2sfh8hEoCjML9ukCmkVUIpTHJmc+lw0kAbi/x/eGya653XUkezw0V1A+RL
FtzB9g1+1ycWWm3FRFntMrKdJqPij/LMVsX3LVCNDQKzLc34yT5Tos9ZKYsBQeno
lZbSxHszm9WG0jIaxe2shNU7wa+Ut8vMcafcqkt0lnZDYTJiLF6RfmU6U7CusjJQ
hwqY5xXFdA0No7oh18mPOur2G6DCmM+PtqmTQ022K7xM0rEKuhQ5/Z6ZDTHsnZhf
rmSyfyS/BMxepSk/YuLhUsxg1/PB6/FDrROuuwZSd08jhdDGSJoyDBjSNUxTFRcR
WlgbNZ8Q+pWXmWigrW6fJ/5c8TVKvHuGrHI1sNlvFhZc2uue6LxRnY1BzYx8iCIf
AgMBAAGjggFjMIIBXzAJBgNVHRMEAjAAMC0GCWCGSAGG+EIBDQQgFh5FYXN5LVJT
QSBHZW5lcmF0ZWQgQ2VydGlmaWNhdGUwHQYDVR0OBBYEFGSjLtdoUzdyKpoi8s+M
jYGquEAjMIHhBgNVHSMEgdkwgdaAFBLNYATSoICecO3Gmbh7LMZS/RmhoYGypIGv
MIGsMQswCQYDVQQGEwJVUzELMAkGA1UECBMCT0gxETAPBgNVBAcTCENvbHVtYnVz
MRIwEAYDVQQKEwlWaWtpbmdWUE4xHTAbBgNVBAsTFE15T3JnYW5pemF0aW9uYWxV
bml0MRUwEwYDVQQDEwxWaWtpbmdWUE4gQ0ExEDAOBgNVBCkTB0Vhc3lSU0ExITAf
BgkqhkiG9w0BCQEWEm1lQG15aG9zdC5teWRvbWFpboIJAM81he6Avyo+MBMGA1Ud
JQQMMAoGCCsGAQUFBwMCMAsGA1UdDwQEAwIHgDANBgkqhkiG9w0BAQQFAAOCAgEA
M3LNqk4Hc0WxRIJeYrTrSUkrXoYVpaKDUrhWcbeM50AzlvFDgK/LNBAxMgH3VvpV
FHIIiqvTFZgum6WOI2hvNSPJmHpuEecsFbIJiYMTGW30xbMMQehiT/TJS3TMohOU
W6AYPHSRFbwx+Sf6vLqGiA0KYykIY2kAFZ8T5XlGFYGeBu+pPgxgvRDQZiFPdZK+
f1/Sbd8Dgrv27+/oqeBPZrZLsM6KZbMf6qbHkF2ngp9QRShdG1XljeVoGP21IptF
WXxgUTBBOcbkpKPk5KxvKcK+5F22kyVO2GN+E3lEBNCrrSQuGrZmVeXj22uWipi1
s26xBiAzSRUPr4kthSEZLl0Mkplj7faPEHpZxMxQP5bd2o4K4fQaoPtgG1zYAeGG
QR8wfDbCANoxeaEGk8eEoiFQsm5K+c5vQQdaNrLFJPmCgatwyFaONAUpglLNiMhk
XuhfAvnAjAVp5c4Jo0QJaxZbiLm0mjIV7t5I3I/+yMa2Yc8w274RWMgDGF9gRdGx
1mDlN4l7dPp8lmUt7fALZUvnNytkQL6VeEj1UKwnbnMxHhLZJrMaI/AnRF1B+qL8
VFjj8jEApCNdn4czTHbOVAEHHv1mSo+fFBMkGs1nFsKEMw7AE2I+9k5r9oqNtLf+
leIUwp/AwFS7DnwkW4SQT8F2/RKLas7OdE76Vazl88M=
-----END CERTIFICATE-----
