Certificate:
    Data:
        Version: 3 (0x2)
        Serial Number: 1480 (0x5c8)
    Signature Algorithm: md5WithRSAEncryption
        Issuer: C=US, ST=OH, L=Columbus, O=VikingVPN, OU=MyOrganizationalUnit, CN=VikingVPN CA/name=EasyRSA/emailAddress=me@myhost.mydomain
        Validity
            Not Before: Apr  6 10:43:31 2014 GMT
            Not After : Apr  3 10:43:31 2024 GMT
        Subject: CN=Client554Cert092024
        Subject Public Key Info:
            Public Key Algorithm: rsaEncryption
                Public-Key: (4096 bit)
                Modulus:
                    00:9d:71:da:5e:f4:de:01:7e:c3:bc:17:bf:2c:0d:
                    a1:e4:81:92:df:4d:4f:66:9a:7f:dd:56:9a:0a:19:
                    68:25:51:36:f7:b3:c8:b2:2c:67:8d:d4:75:80:a8:
                    0f:e1:23:8a:9d:6a:92:19:0a:7d:35:5d:fe:52:0c:
                    89:93:e3:6d:e2:f2:c2:a9:8c:a7:e3:dc:d0:ee:34:
                    30:f1:9f:3f:46:37:8f:74:fe:97:14:27:8a:40:e8:
                    0b:23:ad:9e:5f:f1:29:53:90:4d:2e:0e:57:51:d4:
                    bb:a8:e8:0e:59:70:18:0c:bb:0e:46:74:02:c1:23:
                    7a:8d:67:e3:35:d1:82:64:04:6c:6e:4a:49:35:5d:
                    b4:fd:66:03:37:fa:27:5f:d5:40:8b:e6:26:a6:c4:
                    13:29:3d:38:60:9c:20:ba:c3:5c:a9:3e:05:86:be:
                    a2:8e:d9:58:64:9a:3a:34:95:db:91:33:99:93:47:
                    05:e6:21:3c:72:f0:ce:52:c5:09:74:ec:24:48:ff:
                    17:78:8c:b7:1e:61:f1:33:69:75:d6:bb:89:61:46:
                    b9:28:8e:7e:9a:5d:f2:66:9d:8b:7d:9e:97:b2:70:
                    ad:02:30:f0:37:89:db:39:99:a5:8d:6b:98:5a:aa:
                    23:4a:1f:b9:4b:22:6d:39:52:87:df:02:4c:4d:30:
                    c0:2c:6a:ce:c3:0a:2f:f7:62:53:ed:a4:4f:a3:32:
                    66:3d:61:15:43:f8:67:29:89:19:10:9b:39:59:d3:
                    21:fe:cc:35:f2:22:42:b2:33:aa:06:99:e0:f9:59:
                    b3:8c:08:aa:0a:7f:c5:f1:1a:3f:01:1b:d5:2f:ad:
                    3f:6f:84:c3:23:4d:99:18:60:62:a7:dd:74:fa:5c:
                    3f:d7:21:ae:f8:51:b0:bc:0a:84:4f:18:f0:1e:1e:
                    d9:d2:14:af:1e:d3:a4:46:cf:2c:ac:00:5c:5d:34:
                    95:f5:d7:57:fb:af:a6:3e:81:90:3f:23:a3:f1:c4:
                    fc:04:47:0d:d2:69:e5:66:e9:2c:04:0e:12:55:e3:
                    05:ca:fe:f0:4e:8a:ca:72:8b:aa:5c:d7:23:03:5f:
                    fb:b9:d3:fd:38:41:12:9f:f8:ed:5a:b2:fa:eb:25:
                    00:7a:c1:17:13:07:ef:d0:51:34:f0:be:4f:fe:60:
                    7c:f9:b9:82:fb:07:3d:40:bb:4f:03:be:6d:fc:0c:
                    bc:98:0c:86:ec:fa:f6:ed:bc:e5:cc:0c:a1:11:e0:
                    32:18:23:60:45:35:aa:63:4e:4e:83:75:3b:95:9c:
                    c6:49:e2:1e:00:83:4f:5c:87:d9:ae:74:35:ad:c7:
                    e2:d1:bb:aa:11:97:2d:79:25:96:cc:ed:d2:18:19:
                    2b:4b:b5
                Exponent: 65537 (0x10001)
        X509v3 extensions:
            X509v3 Basic Constraints: 
                CA:FALSE
            Netscape Comment: 
                Easy-RSA Generated Certificate
            X509v3 Subject Key Identifier: 
                59:B0:60:80:8D:2D:CF:8A:C8:E0:6C:16:DA:34:A8:A8:D5:09:66:EE
            X509v3 Authority Key Identifier: 
                keyid:12:CD:60:04:D2:A0:80:9E:70:ED:C6:99:B8:7B:2C:C6:52:FD:19:A1
                DirName:/C=US/ST=OH/L=Columbus/O=VikingVPN/OU=MyOrganizationalUnit/CN=VikingVPN CA/name=EasyRSA/emailAddress=me@myhost.mydomain
                serial:CF:35:85:EE:80:BF:2A:3E

            X509v3 Extended Key Usage: 
                TLS Web Client Authentication
            X509v3 Key Usage: 
                Digital Signature
    Signature Algorithm: md5WithRSAEncryption
         ea:95:4a:b0:f5:8e:56:c0:0d:f6:88:0f:c8:98:68:45:09:b4:
         6f:9c:af:a9:50:a7:c9:3b:82:1e:c2:33:0f:1a:d0:c8:54:2a:
         2d:d3:67:54:f7:07:c4:76:63:5e:22:ae:02:41:96:3b:b3:8d:
         05:6f:36:30:71:8c:c2:46:c0:59:06:89:cd:69:51:7d:f6:6e:
         72:9b:50:21:b6:24:a4:db:fb:70:b0:10:e3:2f:06:1a:56:97:
         15:ab:46:f9:4a:5b:56:09:c8:c3:2e:e6:63:d6:ff:41:ee:ca:
         5a:c5:9b:0c:6b:32:b6:6f:b9:3c:55:41:36:09:83:62:bf:eb:
         8c:c0:7c:ca:f4:9e:fb:86:75:32:e0:e8:b2:d8:49:4a:4f:4b:
         73:8c:9b:30:3d:aa:2c:b6:f9:3c:2a:51:36:c9:3b:84:bc:f3:
         8a:54:5e:5f:f8:e4:58:62:bc:97:c0:72:72:e6:cf:d5:1a:bd:
         e3:d7:60:56:17:f0:6a:f3:bb:1e:e1:e0:be:f4:0c:d2:d5:07:
         57:0f:8d:18:1d:14:11:b5:3a:92:9c:94:63:8b:85:19:bf:01:
         fb:e8:03:57:33:c4:17:b3:0e:67:22:3e:92:46:63:96:ac:28:
         e4:66:7a:e2:f5:b1:c1:f6:93:bf:b1:7e:a6:17:20:b4:d0:17:
         5c:ad:20:30:7a:f9:6b:bd:09:f5:a6:15:9d:58:ad:31:da:15:
         d6:f6:6b:5d:19:79:28:bf:a3:18:a8:56:c8:d0:2c:6b:3a:26:
         dd:8b:06:af:5d:82:45:a4:2b:f4:20:70:4b:ed:f9:7e:09:d1:
         4e:da:60:57:ba:24:69:98:ad:db:b8:25:57:5d:dc:63:b2:25:
         18:de:a1:8f:a9:06:3c:49:51:71:28:4d:a8:97:7b:c0:cf:47:
         7c:9a:82:1a:f3:25:6e:08:80:21:db:35:80:30:35:c8:be:55:
         c5:b6:62:87:3b:48:dd:90:fe:72:18:ea:1b:a6:66:34:c0:ff:
         81:98:94:8a:73:92:fb:c9:17:17:f8:86:39:e0:c3:1e:50:13:
         d5:c7:8a:37:b2:92:4d:56:ee:16:e4:fd:fa:00:49:6a:7c:5b:
         71:f1:7b:6e:31:13:f6:a4:b1:94:7f:10:f8:9a:d6:53:90:a9:
         32:87:c9:3f:25:48:1d:14:a8:e9:c1:a1:97:20:a9:fb:9c:59:
         c5:bd:56:51:97:93:f3:c7:c7:aa:f9:a3:26:b1:44:e9:49:f3:
         d4:d4:f7:6d:a4:02:93:b8:ab:7c:1d:8c:78:e2:e4:b6:b6:fc:
         a8:06:2e:9d:ea:f5:9c:51:66:35:b4:2e:2f:51:5f:41:7a:ba:
         6d:e3:06:2f:bb:de:11:24
-----BEGIN CERTIFICATE-----
MIIGrDCCBJSgAwIBAgICBcgwDQYJKoZIhvcNAQEEBQAwgawxCzAJBgNVBAYTAlVT
MQswCQYDVQQIEwJPSDERMA8GA1UEBxMIQ29sdW1idXMxEjAQBgNVBAoTCVZpa2lu
Z1ZQTjEdMBsGA1UECxMUTXlPcmdhbml6YXRpb25hbFVuaXQxFTATBgNVBAMTDFZp
a2luZ1ZQTiBDQTEQMA4GA1UEKRMHRWFzeVJTQTEhMB8GCSqGSIb3DQEJARYSbWVA
bXlob3N0Lm15ZG9tYWluMB4XDTE0MDQwNjEwNDMzMVoXDTI0MDQwMzEwNDMzMVow
HjEcMBoGA1UEAxMTQ2xpZW50NTU0Q2VydDA5MjAyNDCCAiIwDQYJKoZIhvcNAQEB
BQADggIPADCCAgoCggIBAJ1x2l703gF+w7wXvywNoeSBkt9NT2aaf91WmgoZaCVR
NvezyLIsZ43UdYCoD+Ejip1qkhkKfTVd/lIMiZPjbeLywqmMp+Pc0O40MPGfP0Y3
j3T+lxQnikDoCyOtnl/xKVOQTS4OV1HUu6joDllwGAy7DkZ0AsEjeo1n4zXRgmQE
bG5KSTVdtP1mAzf6J1/VQIvmJqbEEyk9OGCcILrDXKk+BYa+oo7ZWGSaOjSV25Ez
mZNHBeYhPHLwzlLFCXTsJEj/F3iMtx5h8TNpdda7iWFGuSiOfppd8madi32el7Jw
rQIw8DeJ2zmZpY1rmFqqI0ofuUsibTlSh98CTE0wwCxqzsMKL/diU+2kT6MyZj1h
FUP4ZymJGRCbOVnTIf7MNfIiQrIzqgaZ4PlZs4wIqgp/xfEaPwEb1S+tP2+EwyNN
mRhgYqfddPpcP9chrvhRsLwKhE8Y8B4e2dIUrx7TpEbPLKwAXF00lfXXV/uvpj6B
kD8jo/HE/ARHDdJp5WbpLAQOElXjBcr+8E6KynKLqlzXIwNf+7nT/ThBEp/47Vqy
+uslAHrBFxMH79BRNPC+T/5gfPm5gvsHPUC7TwO+bfwMvJgMhuz69u285cwMoRHg
MhgjYEU1qmNOToN1O5WcxkniHgCDT1yH2a50Na3H4tG7qhGXLXkllszt0hgZK0u1
AgMBAAGjggFjMIIBXzAJBgNVHRMEAjAAMC0GCWCGSAGG+EIBDQQgFh5FYXN5LVJT
QSBHZW5lcmF0ZWQgQ2VydGlmaWNhdGUwHQYDVR0OBBYEFFmwYICNLc+KyOBsFto0
qKjVCWbuMIHhBgNVHSMEgdkwgdaAFBLNYATSoICecO3Gmbh7LMZS/RmhoYGypIGv
MIGsMQswCQYDVQQGEwJVUzELMAkGA1UECBMCT0gxETAPBgNVBAcTCENvbHVtYnVz
MRIwEAYDVQQKEwlWaWtpbmdWUE4xHTAbBgNVBAsTFE15T3JnYW5pemF0aW9uYWxV
bml0MRUwEwYDVQQDEwxWaWtpbmdWUE4gQ0ExEDAOBgNVBCkTB0Vhc3lSU0ExITAf
BgkqhkiG9w0BCQEWEm1lQG15aG9zdC5teWRvbWFpboIJAM81he6Avyo+MBMGA1Ud
JQQMMAoGCCsGAQUFBwMCMAsGA1UdDwQEAwIHgDANBgkqhkiG9w0BAQQFAAOCAgEA
6pVKsPWOVsAN9ogPyJhoRQm0b5yvqVCnyTuCHsIzDxrQyFQqLdNnVPcHxHZjXiKu
AkGWO7ONBW82MHGMwkbAWQaJzWlRffZucptQIbYkpNv7cLAQ4y8GGlaXFatG+Upb
VgnIwy7mY9b/Qe7KWsWbDGsytm+5PFVBNgmDYr/rjMB8yvSe+4Z1MuDosthJSk9L
c4ybMD2qLLb5PCpRNsk7hLzzilReX/jkWGK8l8BycubP1Rq949dgVhfwavO7HuHg
vvQM0tUHVw+NGB0UEbU6kpyUY4uFGb8B++gDVzPEF7MOZyI+kkZjlqwo5GZ64vWx
wfaTv7F+phcgtNAXXK0gMHr5a70J9aYVnVitMdoV1vZrXRl5KL+jGKhWyNAsazom
3YsGr12CRaQr9CBwS+35fgnRTtpgV7okaZit27glV13cY7IlGN6hj6kGPElRcShN
qJd7wM9HfJqCGvMlbgiAIds1gDA1yL5VxbZihztI3ZD+chjqG6ZmNMD/gZiUinOS
+8kXF/iGOeDDHlAT1ceKN7KSTVbuFuT9+gBJanxbcfF7bjET9qSxlH8Q+JrWU5Cp
MofJPyVIHRSo6cGhlyCp+5xZxb1WUZeT88fHqvmjJrFE6Unz1NT3baQCk7irfB2M
eOLktrb8qAYuner1nFFmNbQuL1FfQXq6beMGL7veESQ=
-----END CERTIFICATE-----
