Certificate:
    Data:
        Version: 3 (0x2)
        Serial Number: 1487 (0x5cf)
    Signature Algorithm: md5WithRSAEncryption
        Issuer: C=US, ST=OH, L=Columbus, O=VikingVPN, OU=MyOrganizationalUnit, CN=VikingVPN CA/name=EasyRSA/emailAddress=me@myhost.mydomain
        Validity
            Not Before: Apr  6 17:34:46 2014 GMT
            Not After : Apr  3 17:34:46 2024 GMT
        Subject: CN=Client269Certb07b2d
        Subject Public Key Info:
            Public Key Algorithm: rsaEncryption
                Public-Key: (4096 bit)
                Modulus:
                    00:ea:ce:82:8e:38:a4:06:62:1a:da:e5:49:c0:49:
                    c4:c9:f2:42:ef:8b:6e:ab:de:8d:8e:01:db:4d:d3:
                    62:8c:d9:35:38:89:93:c6:93:8c:87:56:be:99:f7:
                    37:02:b7:b6:ef:ed:95:46:65:cd:ff:27:57:58:c8:
                    43:72:a1:4e:76:70:d8:7a:3d:e6:2e:cb:f8:f4:3f:
                    ef:e9:fe:0a:5c:95:79:a5:8f:7f:0b:03:fb:cf:9b:
                    c2:7e:7d:90:76:57:b9:11:3f:43:6e:9b:a6:bf:41:
                    df:6c:03:72:5f:15:a2:6a:7d:03:bb:f3:e5:f4:60:
                    de:f6:e0:eb:c6:80:7e:21:7f:c5:0e:6d:06:68:03:
                    7e:c3:a2:c8:b6:5f:0e:ce:5d:1c:b4:b0:66:ed:09:
                    16:8e:eb:17:e6:7d:c9:a9:30:d2:43:1a:b0:d4:21:
                    bc:ce:d6:d8:cd:62:a4:32:cc:df:be:60:06:5c:da:
                    3b:84:a3:c0:75:e8:e7:c3:7a:c9:82:6f:85:2f:6d:
                    6b:ff:3f:c8:a6:03:bc:43:be:7c:56:20:20:87:cf:
                    6e:d1:72:55:84:dd:03:cd:c2:36:05:88:b4:9d:af:
                    c6:59:78:39:27:f2:e6:41:16:71:f9:b2:6e:5b:09:
                    a7:b1:ca:ea:e3:c3:51:80:79:5e:5a:7a:85:c9:06:
                    2c:df:b0:33:5d:9b:4c:5f:cc:75:95:0c:4a:60:61:
                    b1:c8:01:6c:08:4e:56:10:62:d8:c5:04:47:a0:60:
                    03:f9:59:8c:58:2e:36:12:ab:bf:19:d4:7d:d4:2f:
                    db:6f:47:12:87:d4:b9:96:aa:cd:f5:21:f4:b0:84:
                    c4:d9:51:30:84:75:7a:01:42:86:21:90:db:56:24:
                    11:ef:69:1c:a1:67:3f:0d:6f:46:c5:ca:5e:b7:2a:
                    48:ef:6b:58:11:79:a8:5b:3b:a4:68:34:ec:f4:14:
                    cd:de:77:30:df:44:78:1f:3a:5e:af:76:f5:82:1e:
                    87:07:5e:ce:e0:a3:74:58:18:9b:27:0c:a4:c6:6d:
                    d4:85:33:86:a1:65:48:1a:83:a4:1a:35:bb:70:94:
                    6e:f1:90:e5:84:a7:bc:3d:5b:b2:1a:e0:f4:74:f2:
                    7e:0f:b6:1d:d4:2e:dd:c8:89:56:f7:ca:dd:b3:b2:
                    11:e9:40:37:76:6d:47:2b:47:fd:75:42:b5:0e:20:
                    60:7e:b3:03:fa:72:f6:86:de:26:c2:47:16:a8:e3:
                    73:ed:b6:c0:9a:eb:a9:97:96:20:84:86:af:bc:0c:
                    98:89:60:88:b4:d6:85:d3:2c:76:48:0f:38:a0:dd:
                    14:c7:6c:bd:a7:98:e4:8e:16:6b:07:1d:67:6a:ce:
                    e7:2b:59
                Exponent: 65537 (0x10001)
        X509v3 extensions:
            X509v3 Basic Constraints: 
                CA:FALSE
            Netscape Comment: 
                Easy-RSA Generated Certificate
            X509v3 Subject Key Identifier: 
                49:AE:05:5C:F3:0A:6B:AC:22:24:FA:0E:A3:AA:70:67:7F:BE:62:E7
            X509v3 Authority Key Identifier: 
                keyid:12:CD:60:04:D2:A0:80:9E:70:ED:C6:99:B8:7B:2C:C6:52:FD:19:A1
                DirName:/C=US/ST=OH/L=Columbus/O=VikingVPN/OU=MyOrganizationalUnit/CN=VikingVPN CA/name=EasyRSA/emailAddress=me@myhost.mydomain
                serial:CF:35:85:EE:80:BF:2A:3E

            X509v3 Extended Key Usage: 
                TLS Web Client Authentication
            X509v3 Key Usage: 
                Digital Signature
    Signature Algorithm: md5WithRSAEncryption
         cf:58:ef:79:4e:0e:10:02:9e:e3:b3:6f:c0:63:5e:d9:dc:34:
         56:8d:41:c0:e3:fe:80:ad:5b:4a:1a:d1:3d:36:f5:46:16:30:
         e2:f2:24:d6:60:20:1d:7a:9f:e6:8b:66:0c:11:8e:55:b6:dc:
         82:ff:f8:55:fa:d8:ec:8e:5f:b1:2e:25:04:53:d3:90:4d:23:
         43:4c:33:36:6e:d1:00:24:04:eb:e7:00:cc:21:30:7c:13:0f:
         94:13:8e:52:fe:c7:cd:35:a6:fa:9a:75:f7:f9:d0:be:01:8d:
         a5:12:fb:44:15:17:50:f1:42:4c:df:aa:a2:f8:f0:fa:e9:96:
         f6:d5:5c:24:b6:e4:32:7c:58:b8:60:02:23:d3:db:ba:6e:5c:
         5f:63:21:4b:9e:97:6a:46:2d:43:e5:ea:3b:53:33:d2:23:fd:
         39:40:90:df:b9:a6:a1:db:6f:b3:f3:bc:f2:20:54:01:54:49:
         a8:87:ac:fe:e2:a6:71:58:59:20:55:b7:f7:1e:11:ef:99:52:
         04:17:a7:9b:4e:80:ab:90:82:8c:cf:4e:06:c7:b9:d6:d7:52:
         38:1d:49:44:92:d6:6c:ea:73:64:f1:5e:a1:5b:20:fc:c8:38:
         45:f4:db:8e:66:98:a2:74:5d:fd:df:47:5e:9e:4b:cd:a7:4a:
         bd:e3:27:bf:dc:dd:9d:63:d0:38:d4:9e:e2:ed:ad:9c:8c:ec:
         21:6a:c5:9e:f8:28:31:47:bf:bd:52:b4:17:58:fd:ed:e4:68:
         ed:2c:7f:64:e2:40:a4:b9:6d:90:74:80:9f:28:b4:d6:09:3c:
         37:5f:10:6b:30:78:b0:48:4d:cc:39:16:4e:3b:89:89:3c:b4:
         1a:3d:60:8e:45:bd:e9:2f:84:8f:5b:fc:83:b4:2b:8a:a4:cc:
         f1:d7:31:24:c6:c4:b7:c1:c9:b6:0e:ab:9a:8c:c5:34:28:1b:
         f6:e4:d0:32:c6:3a:2a:c8:13:c1:18:7f:22:be:ec:62:11:28:
         34:59:b1:e9:00:19:95:2a:26:63:40:a9:f4:11:6e:e1:e3:0c:
         87:d2:93:98:d6:d8:3f:c0:8c:5e:38:5a:f1:88:3e:6f:72:57:
         3b:c3:7f:f3:8b:63:71:97:5a:fe:4b:e2:91:31:7f:66:f5:85:
         f0:8f:1e:d3:7d:26:32:2f:d2:e6:f1:0f:14:0a:99:69:1e:59:
         5e:8d:a8:09:1c:f0:f9:88:4f:e2:a1:e3:b5:b2:84:d8:87:c9:
         e8:75:1a:f3:e3:61:b1:dc:b6:84:5b:64:6a:9f:d7:e4:45:da:
         07:a4:2c:98:bd:e9:17:6a:1b:29:0b:68:a7:26:a0:0e:1e:8f:
         6e:d0:03:f6:4a:42:04:fd
-----BEGIN CERTIFICATE-----
MIIGrDCCBJSgAwIBAgICBc8wDQYJKoZIhvcNAQEEBQAwgawxCzAJBgNVBAYTAlVT
MQswCQYDVQQIEwJPSDERMA8GA1UEBxMIQ29sdW1idXMxEjAQBgNVBAoTCVZpa2lu
Z1ZQTjEdMBsGA1UECxMUTXlPcmdhbml6YXRpb25hbFVuaXQxFTATBgNVBAMTDFZp
a2luZ1ZQTiBDQTEQMA4GA1UEKRMHRWFzeVJTQTEhMB8GCSqGSIb3DQEJARYSbWVA
bXlob3N0Lm15ZG9tYWluMB4XDTE0MDQwNjE3MzQ0NloXDTI0MDQwMzE3MzQ0Nlow
HjEcMBoGA1UEAxMTQ2xpZW50MjY5Q2VydGIwN2IyZDCCAiIwDQYJKoZIhvcNAQEB
BQADggIPADCCAgoCggIBAOrOgo44pAZiGtrlScBJxMnyQu+LbqvejY4B203TYozZ
NTiJk8aTjIdWvpn3NwK3tu/tlUZlzf8nV1jIQ3KhTnZw2Ho95i7L+PQ/7+n+ClyV
eaWPfwsD+8+bwn59kHZXuRE/Q26bpr9B32wDcl8Vomp9A7vz5fRg3vbg68aAfiF/
xQ5tBmgDfsOiyLZfDs5dHLSwZu0JFo7rF+Z9yakw0kMasNQhvM7W2M1ipDLM375g
BlzaO4SjwHXo58N6yYJvhS9ta/8/yKYDvEO+fFYgIIfPbtFyVYTdA83CNgWItJ2v
xll4OSfy5kEWcfmyblsJp7HK6uPDUYB5Xlp6hckGLN+wM12bTF/MdZUMSmBhscgB
bAhOVhBi2MUER6BgA/lZjFguNhKrvxnUfdQv229HEofUuZaqzfUh9LCExNlRMIR1
egFChiGQ21YkEe9pHKFnPw1vRsXKXrcqSO9rWBF5qFs7pGg07PQUzd53MN9EeB86
Xq929YIehwdezuCjdFgYmycMpMZt1IUzhqFlSBqDpBo1u3CUbvGQ5YSnvD1bshrg
9HTyfg+2HdQu3ciJVvfK3bOyEelAN3ZtRytH/XVCtQ4gYH6zA/py9obeJsJHFqjj
c+22wJrrqZeWIISGr7wMmIlgiLTWhdMsdkgPOKDdFMdsvaeY5I4WawcdZ2rO5ytZ
AgMBAAGjggFjMIIBXzAJBgNVHRMEAjAAMC0GCWCGSAGG+EIBDQQgFh5FYXN5LVJT
QSBHZW5lcmF0ZWQgQ2VydGlmaWNhdGUwHQYDVR0OBBYEFEmuBVzzCmusIiT6DqOq
cGd/vmLnMIHhBgNVHSMEgdkwgdaAFBLNYATSoICecO3Gmbh7LMZS/RmhoYGypIGv
MIGsMQswCQYDVQQGEwJVUzELMAkGA1UECBMCT0gxETAPBgNVBAcTCENvbHVtYnVz
MRIwEAYDVQQKEwlWaWtpbmdWUE4xHTAbBgNVBAsTFE15T3JnYW5pemF0aW9uYWxV
bml0MRUwEwYDVQQDEwxWaWtpbmdWUE4gQ0ExEDAOBgNVBCkTB0Vhc3lSU0ExITAf
BgkqhkiG9w0BCQEWEm1lQG15aG9zdC5teWRvbWFpboIJAM81he6Avyo+MBMGA1Ud
JQQMMAoGCCsGAQUFBwMCMAsGA1UdDwQEAwIHgDANBgkqhkiG9w0BAQQFAAOCAgEA
z1jveU4OEAKe47NvwGNe2dw0Vo1BwOP+gK1bShrRPTb1RhYw4vIk1mAgHXqf5otm
DBGOVbbcgv/4VfrY7I5fsS4lBFPTkE0jQ0wzNm7RACQE6+cAzCEwfBMPlBOOUv7H
zTWm+pp19/nQvgGNpRL7RBUXUPFCTN+qovjw+umW9tVcJLbkMnxYuGACI9Pbum5c
X2MhS56XakYtQ+XqO1Mz0iP9OUCQ37mmodtvs/O88iBUAVRJqIes/uKmcVhZIFW3
9x4R75lSBBenm06Aq5CCjM9OBse51tdSOB1JRJLWbOpzZPFeoVsg/Mg4RfTbjmaY
onRd/d9HXp5LzadKveMnv9zdnWPQONSe4u2tnIzsIWrFnvgoMUe/vVK0F1j97eRo
7Sx/ZOJApLltkHSAnyi01gk8N18QazB4sEhNzDkWTjuJiTy0Gj1gjkW96S+Ej1v8
g7QriqTM8dcxJMbEt8HJtg6rmozFNCgb9uTQMsY6KsgTwRh/Ir7sYhEoNFmx6QAZ
lSomY0Cp9BFu4eMMh9KTmNbYP8CMXjha8Yg+b3JXO8N/84tjcZda/kvikTF/ZvWF
8I8e030mMi/S5vEPFAqZaR5ZXo2oCRzw+YhP4qHjtbKE2IfJ6HUa8+Nhsdy2hFtk
ap/X5EXaB6QsmL3pF2obKQtopyagDh6PbtAD9kpCBP0=
-----END CERTIFICATE-----
