Certificate:
    Data:
        Version: 3 (0x2)
        Serial Number: 1500 (0x5dc)
    Signature Algorithm: md5WithRSAEncryption
        Issuer: C=US, ST=OH, L=Columbus, O=VikingVPN, OU=MyOrganizationalUnit, CN=VikingVPN CA/name=EasyRSA/emailAddress=me@myhost.mydomain
        Validity
            Not Before: Apr  7 08:49:38 2014 GMT
            Not After : Apr  4 08:49:38 2024 GMT
        Subject: CN=Client561Cert0472ca
        Subject Public Key Info:
            Public Key Algorithm: rsaEncryption
                Public-Key: (4096 bit)
                Modulus:
                    00:f7:fe:02:c1:ff:69:f3:c6:16:b2:ea:6b:fc:16:
                    55:c1:8d:0a:9c:ea:83:f5:2a:aa:07:dd:3c:42:46:
                    93:03:d0:13:a8:55:32:fe:32:e0:b1:76:c7:4f:2c:
                    fd:f5:43:75:54:f9:93:96:61:5e:11:36:d8:7b:33:
                    6a:0e:fc:55:d4:c2:51:9b:54:72:98:7f:aa:5a:0b:
                    24:39:c2:13:2f:92:30:f6:58:a6:f2:2a:33:1b:11:
                    17:3a:48:c4:d4:b0:f3:36:b1:48:a6:58:e1:fa:64:
                    0f:a3:32:04:80:1f:c2:23:c2:90:9c:8b:db:79:ce:
                    74:e8:7d:39:ba:b9:53:a6:47:2c:67:fb:b8:5c:d2:
                    2d:85:99:3a:b0:30:5a:14:2f:a2:cd:26:0a:31:91:
                    fd:74:f9:0b:eb:fa:a5:56:06:ad:76:2a:42:a4:f9:
                    26:d8:b9:b5:df:ea:47:05:db:f8:33:73:1a:8b:c0:
                    31:20:df:45:e9:81:a0:3c:d7:80:96:03:78:b9:ab:
                    cf:3e:cf:4e:16:09:27:d2:c2:e0:db:ab:7f:90:de:
                    a1:97:a4:6d:50:88:56:00:bf:b6:2f:e3:f9:67:7e:
                    8f:08:3f:60:44:47:9f:3d:f9:0c:e4:a4:58:9f:cd:
                    b9:b8:f4:d3:2c:b4:3b:9a:a0:5d:54:18:c4:9d:7f:
                    42:68:cd:73:5a:95:da:17:c9:f1:b2:be:31:47:3d:
                    28:e6:03:18:a2:4b:e0:52:1b:6d:f3:0e:76:81:d2:
                    ea:2b:0c:78:2b:09:e7:ab:32:e6:83:8e:b6:40:c3:
                    12:27:0b:80:e3:c3:8c:29:2d:54:3f:2f:bb:23:40:
                    dc:fb:53:31:e5:f1:de:21:6e:8c:40:e1:4c:a7:d0:
                    49:4f:2c:4d:71:a4:1b:bd:c5:ab:dd:b7:92:57:5c:
                    07:fe:52:7f:78:c6:c5:36:af:95:1b:25:88:90:98:
                    cd:1d:87:a3:ea:5c:af:df:f5:ee:d0:80:3c:65:68:
                    87:11:74:1f:e4:0f:b8:88:3f:6d:fd:2d:04:88:4e:
                    16:4f:5c:2a:e7:46:84:c7:ea:90:5f:67:ca:cb:f5:
                    99:be:9d:62:89:28:35:bf:d4:1c:b1:a5:c0:81:56:
                    a0:de:7d:dc:2a:4c:d0:5b:7d:72:6a:37:10:4c:62:
                    2d:02:f0:3f:1b:ea:6a:2a:95:df:1c:3c:c5:66:19:
                    f9:48:14:b6:74:df:e9:b1:ca:fe:c8:81:7e:92:70:
                    da:62:cc:f6:33:bc:23:4a:6b:47:3d:7a:0c:40:8b:
                    41:15:8a:dc:01:d1:3a:61:c6:4c:54:91:95:17:a7:
                    5f:50:c4:28:29:f5:62:12:7a:ca:6a:26:ca:4d:bb:
                    83:c7:fd
                Exponent: 65537 (0x10001)
        X509v3 extensions:
            X509v3 Basic Constraints: 
                CA:FALSE
            Netscape Comment: 
                Easy-RSA Generated Certificate
            X509v3 Subject Key Identifier: 
                48:93:AC:3A:2D:86:81:C6:D2:8B:DF:6F:9D:63:C7:D4:B5:7E:C0:F5
            X509v3 Authority Key Identifier: 
                keyid:12:CD:60:04:D2:A0:80:9E:70:ED:C6:99:B8:7B:2C:C6:52:FD:19:A1
                DirName:/C=US/ST=OH/L=Columbus/O=VikingVPN/OU=MyOrganizationalUnit/CN=VikingVPN CA/name=EasyRSA/emailAddress=me@myhost.mydomain
                serial:CF:35:85:EE:80:BF:2A:3E

            X509v3 Extended Key Usage: 
                TLS Web Client Authentication
            X509v3 Key Usage: 
                Digital Signature
    Signature Algorithm: md5WithRSAEncryption
         10:86:26:85:4c:64:82:72:36:98:cb:55:30:6c:7f:ad:31:16:
         d8:cc:e0:e5:23:88:fd:e3:20:2d:c7:17:cd:e7:59:ff:74:00:
         e9:b6:54:34:73:48:0c:b6:66:74:0d:65:cc:3a:22:63:22:28:
         3c:28:1d:0b:a3:8c:2a:cc:9b:69:1f:94:4f:31:55:3b:e0:d8:
         3b:46:ce:a7:da:b7:d4:a9:9e:2b:fb:14:be:d8:fa:f8:99:38:
         93:72:b9:17:a5:4a:55:f4:64:74:52:ad:8f:4c:27:73:31:da:
         49:c5:2d:8f:a9:ad:01:4a:c4:3f:ac:0e:7a:b8:a9:15:66:a7:
         f6:c7:13:bd:dd:20:cf:f6:ba:15:df:1f:12:f9:77:2b:a7:01:
         8a:7e:ae:f3:7b:5e:02:e8:6d:1c:e2:c7:75:c9:6e:53:2e:52:
         c1:53:0a:f2:27:2f:a0:9c:2e:f0:7e:84:ad:e2:99:a8:92:5d:
         47:dd:7c:56:7f:88:36:a6:dd:76:b7:8f:31:f7:86:cb:a5:c0:
         47:87:ea:b0:73:ab:9b:b2:9d:23:ae:f0:70:17:75:bf:27:f5:
         ca:f2:5e:32:86:a7:9a:96:17:08:5a:0a:06:8f:15:57:32:f2:
         87:ad:9b:f1:b3:46:b1:43:c8:e7:b4:b4:4e:b9:55:7f:64:7f:
         c8:b9:e0:ea:c9:5a:e6:ff:d3:dc:8e:fd:f8:73:e2:b3:aa:60:
         5b:d7:31:ba:2f:54:08:52:b6:0e:07:50:23:ca:bc:db:37:5b:
         d6:fb:de:18:22:bb:af:25:cd:12:c9:c5:1d:26:ff:22:40:fd:
         4b:12:d0:a3:46:50:f3:48:56:09:a5:59:ab:78:5f:a1:14:e6:
         8c:3e:94:ff:f6:75:0d:08:59:7e:97:b1:e9:7d:d0:14:fe:2e:
         8d:4f:5f:b6:06:61:7d:12:b4:f6:eb:02:76:f6:4f:a6:11:de:
         56:02:6a:29:08:b9:fb:ba:b3:9e:08:42:d9:cc:4d:71:93:d8:
         79:67:b6:d5:be:3c:23:5c:cf:71:5f:4d:31:4f:dd:1b:88:c7:
         fb:35:cb:a9:e3:56:50:3d:62:6b:1c:0b:4d:24:fe:82:11:76:
         f4:e2:ea:06:34:f9:f3:a5:8e:e8:24:9b:59:9c:04:0f:71:32:
         6f:14:f4:df:59:44:2a:ff:ff:f2:6d:18:75:7d:17:fd:fc:f7:
         89:fb:53:61:b6:f8:5a:27:05:bf:f9:25:f6:91:e9:33:38:7d:
         4a:2f:00:52:3c:02:89:73:89:4a:a9:ce:34:a3:07:f9:f7:92:
         8a:64:9d:79:d8:52:39:7e:86:68:44:e7:5b:84:58:b5:a8:3c:
         bd:0c:7e:59:18:5c:ff:4d
-----BEGIN CERTIFICATE-----
MIIGrDCCBJSgAwIBAgICBdwwDQYJKoZIhvcNAQEEBQAwgawxCzAJBgNVBAYTAlVT
MQswCQYDVQQIEwJPSDERMA8GA1UEBxMIQ29sdW1idXMxEjAQBgNVBAoTCVZpa2lu
Z1ZQTjEdMBsGA1UECxMUTXlPcmdhbml6YXRpb25hbFVuaXQxFTATBgNVBAMTDFZp
a2luZ1ZQTiBDQTEQMA4GA1UEKRMHRWFzeVJTQTEhMB8GCSqGSIb3DQEJARYSbWVA
bXlob3N0Lm15ZG9tYWluMB4XDTE0MDQwNzA4NDkzOFoXDTI0MDQwNDA4NDkzOFow
HjEcMBoGA1UEAxMTQ2xpZW50NTYxQ2VydDA0NzJjYTCCAiIwDQYJKoZIhvcNAQEB
BQADggIPADCCAgoCggIBAPf+AsH/afPGFrLqa/wWVcGNCpzqg/UqqgfdPEJGkwPQ
E6hVMv4y4LF2x08s/fVDdVT5k5ZhXhE22Hszag78VdTCUZtUcph/qloLJDnCEy+S
MPZYpvIqMxsRFzpIxNSw8zaxSKZY4fpkD6MyBIAfwiPCkJyL23nOdOh9Obq5U6ZH
LGf7uFzSLYWZOrAwWhQvos0mCjGR/XT5C+v6pVYGrXYqQqT5Jti5td/qRwXb+DNz
GovAMSDfRemBoDzXgJYDeLmrzz7PThYJJ9LC4Nurf5DeoZekbVCIVgC/ti/j+Wd+
jwg/YERHnz35DOSkWJ/Nubj00yy0O5qgXVQYxJ1/QmjNc1qV2hfJ8bK+MUc9KOYD
GKJL4FIbbfMOdoHS6isMeCsJ56sy5oOOtkDDEicLgOPDjCktVD8vuyNA3PtTMeXx
3iFujEDhTKfQSU8sTXGkG73Fq923kldcB/5Sf3jGxTavlRsliJCYzR2Ho+pcr9/1
7tCAPGVohxF0H+QPuIg/bf0tBIhOFk9cKudGhMfqkF9nysv1mb6dYokoNb/UHLGl
wIFWoN593CpM0Ft9cmo3EExiLQLwPxvqaiqV3xw8xWYZ+UgUtnTf6bHK/siBfpJw
2mLM9jO8I0prRz16DECLQRWK3AHROmHGTFSRlRenX1DEKCn1YhJ6ymomyk27g8f9
AgMBAAGjggFjMIIBXzAJBgNVHRMEAjAAMC0GCWCGSAGG+EIBDQQgFh5FYXN5LVJT
QSBHZW5lcmF0ZWQgQ2VydGlmaWNhdGUwHQYDVR0OBBYEFEiTrDothoHG0ovfb51j
x9S1fsD1MIHhBgNVHSMEgdkwgdaAFBLNYATSoICecO3Gmbh7LMZS/RmhoYGypIGv
MIGsMQswCQYDVQQGEwJVUzELMAkGA1UECBMCT0gxETAPBgNVBAcTCENvbHVtYnVz
MRIwEAYDVQQKEwlWaWtpbmdWUE4xHTAbBgNVBAsTFE15T3JnYW5pemF0aW9uYWxV
bml0MRUwEwYDVQQDEwxWaWtpbmdWUE4gQ0ExEDAOBgNVBCkTB0Vhc3lSU0ExITAf
BgkqhkiG9w0BCQEWEm1lQG15aG9zdC5teWRvbWFpboIJAM81he6Avyo+MBMGA1Ud
JQQMMAoGCCsGAQUFBwMCMAsGA1UdDwQEAwIHgDANBgkqhkiG9w0BAQQFAAOCAgEA
EIYmhUxkgnI2mMtVMGx/rTEW2Mzg5SOI/eMgLccXzedZ/3QA6bZUNHNIDLZmdA1l
zDoiYyIoPCgdC6OMKsybaR+UTzFVO+DYO0bOp9q31KmeK/sUvtj6+Jk4k3K5F6VK
VfRkdFKtj0wnczHaScUtj6mtAUrEP6wOeripFWan9scTvd0gz/a6Fd8fEvl3K6cB
in6u83teAuhtHOLHdcluUy5SwVMK8icvoJwu8H6EreKZqJJdR918Vn+INqbddreP
MfeGy6XAR4fqsHOrm7KdI67wcBd1vyf1yvJeMoanmpYXCFoKBo8VVzLyh62b8bNG
sUPI57S0TrlVf2R/yLng6sla5v/T3I79+HPis6pgW9cxui9UCFK2DgdQI8q82zdb
1vveGCK7ryXNEsnFHSb/IkD9SxLQo0ZQ80hWCaVZq3hfoRTmjD6U//Z1DQhZfpex
6X3QFP4ujU9ftgZhfRK09usCdvZPphHeVgJqKQi5+7qznghC2cxNcZPYeWe21b48
I1zPcV9NMU/dG4jH+zXLqeNWUD1iaxwLTST+ghF29OLqBjT586WO6CSbWZwED3Ey
bxT031lEKv//8m0YdX0X/fz3iftTYbb4WicFv/kl9pHpMzh9Si8AUjwCiXOJSqnO
NKMH+feSimSdedhSOX6GaETnW4RYtag8vQx+WRhc/00=
-----END CERTIFICATE-----
