Certificate:
    Data:
        Version: 3 (0x2)
        Serial Number: 1514 (0x5ea)
    Signature Algorithm: md5WithRSAEncryption
        Issuer: C=US, ST=OH, L=Columbus, O=VikingVPN, OU=MyOrganizationalUnit, CN=VikingVPN CA/name=EasyRSA/emailAddress=me@myhost.mydomain
        Validity
            Not Before: Apr  7 18:30:27 2014 GMT
            Not After : Apr  4 18:30:27 2024 GMT
        Subject: CN=Client564Cert0d121a
        Subject Public Key Info:
            Public Key Algorithm: rsaEncryption
                Public-Key: (4096 bit)
                Modulus:
                    00:e1:92:43:d2:65:a1:75:7d:9d:24:53:04:f4:fc:
                    c0:92:12:96:3b:67:2e:33:52:80:26:71:f2:3e:fa:
                    c9:9b:94:03:0f:f0:10:57:84:16:0c:ec:a2:a2:10:
                    ab:e5:60:d0:1c:29:98:02:0b:91:bf:1e:20:22:fc:
                    01:44:97:95:48:82:82:88:e3:74:57:be:8c:74:c5:
                    f9:ac:4f:ff:3e:0e:26:54:37:89:8f:cc:4e:bc:04:
                    ee:58:05:25:9b:76:88:6f:ab:5d:47:82:7b:62:c6:
                    9c:ea:7d:35:19:68:12:15:f8:6e:48:20:e3:ac:58:
                    ce:36:64:1e:ca:de:aa:41:92:4f:25:76:d6:21:29:
                    d1:f1:f2:58:c5:01:36:84:1b:b1:97:19:93:81:a6:
                    7d:b2:05:15:51:c4:de:d4:bb:7c:72:2f:f1:d6:41:
                    7d:d7:b3:eb:3c:cb:dd:6c:ab:bd:08:c6:f1:70:74:
                    6a:80:d5:ba:af:ee:6a:5d:84:21:c8:5e:a6:5a:e3:
                    89:8f:5c:fa:b3:8d:f3:da:38:f5:0f:6f:78:19:56:
                    29:85:1c:46:58:69:61:14:59:0a:ee:33:51:64:29:
                    e2:f9:56:80:99:d2:e4:1e:58:db:a7:cd:b1:35:4b:
                    fd:b1:2f:a7:7d:9d:18:29:85:71:57:10:8a:60:2b:
                    2f:0b:ba:6d:c9:bd:2c:b2:39:a6:40:8a:5d:e8:a4:
                    8e:d6:6a:0e:e4:f3:2e:36:49:30:72:79:da:fb:66:
                    8f:f4:7b:15:0b:a7:e1:60:c1:cf:cd:4c:82:68:4a:
                    31:21:2d:56:c7:98:e8:94:51:c0:07:ab:f4:bd:a2:
                    3f:e5:6e:d6:3b:f7:a8:e9:c0:b6:cf:39:0c:29:98:
                    b0:a1:73:13:fb:63:0c:a7:31:3e:e1:b1:e1:98:f5:
                    f2:f3:99:33:07:26:28:03:1f:de:e7:f9:5b:97:12:
                    56:be:13:07:f1:af:ee:26:a1:69:7e:64:3e:1c:07:
                    b0:be:ab:0e:fb:09:56:9a:ce:79:ed:84:8a:b1:1e:
                    b3:33:46:a8:0c:09:89:f3:32:5d:8c:30:2f:14:c0:
                    3d:53:85:3c:b5:54:b9:5d:ea:65:a3:ef:43:29:72:
                    f1:9e:e7:8a:21:81:b9:8b:25:50:4b:67:5d:40:0c:
                    11:f0:86:61:1d:9f:ec:ed:66:cc:b6:6e:db:79:18:
                    1c:40:c6:0e:d6:0a:54:50:e2:00:fe:f5:3a:dd:f4:
                    99:3a:34:d8:11:b9:d6:f0:6a:ac:e6:e4:01:18:95:
                    9d:6a:0e:58:8c:b9:a6:9e:72:80:a5:d0:1c:fe:7f:
                    11:29:2c:8c:71:35:66:83:93:a5:41:3a:49:3a:89:
                    7a:90:a3
                Exponent: 65537 (0x10001)
        X509v3 extensions:
            X509v3 Basic Constraints: 
                CA:FALSE
            Netscape Comment: 
                Easy-RSA Generated Certificate
            X509v3 Subject Key Identifier: 
                34:15:20:AF:68:E1:CC:77:13:2E:FE:48:19:9A:F5:15:53:9F:91:B8
            X509v3 Authority Key Identifier: 
                keyid:12:CD:60:04:D2:A0:80:9E:70:ED:C6:99:B8:7B:2C:C6:52:FD:19:A1
                DirName:/C=US/ST=OH/L=Columbus/O=VikingVPN/OU=MyOrganizationalUnit/CN=VikingVPN CA/name=EasyRSA/emailAddress=me@myhost.mydomain
                serial:CF:35:85:EE:80:BF:2A:3E

            X509v3 Extended Key Usage: 
                TLS Web Client Authentication
            X509v3 Key Usage: 
                Digital Signature
    Signature Algorithm: md5WithRSAEncryption
         98:dc:56:8d:f9:58:35:99:79:bd:b5:43:b4:83:f3:86:de:34:
         09:f0:1a:85:a6:ca:29:dd:61:eb:88:f8:56:f7:57:36:52:ba:
         53:28:59:f4:9e:16:2c:fa:75:61:8c:81:ac:76:f2:43:d4:15:
         be:70:8d:63:2b:18:62:f4:ca:49:a0:e5:e0:7b:77:5e:44:5d:
         f0:1b:66:dd:65:2a:ed:f8:f2:04:b8:bf:5e:5d:d5:d9:24:af:
         70:e6:1c:df:86:58:29:c3:ab:16:40:94:06:ca:c7:73:35:6c:
         71:7c:68:7c:1a:1c:5a:bb:90:2a:0e:eb:d8:68:c8:67:4b:44:
         db:da:6d:fd:45:b6:66:dc:d6:80:00:dd:3f:d0:1e:df:be:62:
         56:19:85:b2:13:02:e4:b5:55:0c:c7:69:42:6e:0b:e0:cb:94:
         00:55:dc:61:78:6a:2d:89:d6:96:57:2c:de:91:b1:6a:64:93:
         57:2f:78:0e:a9:23:df:2e:60:e3:ca:97:26:ce:f8:b0:f7:ff:
         95:c7:db:00:83:d8:bd:0d:df:84:92:16:0a:86:96:72:4c:0d:
         11:af:90:a4:cc:bf:df:d2:df:79:91:1e:e5:43:67:96:60:1c:
         c5:d8:23:44:f2:fc:8c:f9:91:0d:46:65:c3:b8:a4:74:2d:37:
         43:0c:64:0e:8b:34:2e:92:95:1f:fe:b2:f4:26:d3:ee:7e:cb:
         8a:f3:03:15:a3:30:3e:28:52:e0:45:b0:f5:05:a0:2c:4f:b9:
         45:b2:c5:57:d4:db:11:ac:37:a3:aa:2f:2b:7a:6f:6c:a3:67:
         0f:03:fc:06:c0:27:97:c1:ac:d0:2d:eb:58:90:53:ca:45:31:
         3c:5f:07:24:5a:8e:c2:f1:bc:11:eb:42:c7:e4:98:aa:8c:04:
         e1:a0:9d:6f:b0:ff:31:6a:ae:85:44:f8:b3:54:02:25:c6:80:
         e7:1c:a4:b1:f4:fa:4e:b6:02:c5:b0:b1:ac:b0:62:57:7e:48:
         b7:01:9e:b2:2d:98:f1:40:42:8c:d4:51:39:5d:69:23:73:df:
         43:59:af:43:cc:1c:4a:ec:ed:b8:72:7e:67:e7:28:d6:3a:71:
         83:0e:06:33:23:6d:3c:70:d1:8e:01:62:1f:15:e5:87:fd:e2:
         f8:57:d9:bc:6d:26:5e:51:ef:db:0f:9e:38:3c:62:af:85:b5:
         c9:9d:e1:c8:24:ae:87:30:83:1d:42:00:a9:5d:a8:83:27:da:
         83:e9:2e:a3:3a:18:df:4e:8c:64:9c:46:73:e4:d9:43:d8:c0:
         f8:4a:7f:5a:a9:b4:f8:57:07:94:42:be:2f:0f:f4:cb:9f:cd:
         b4:5e:80:53:56:37:01:7e
-----BEGIN CERTIFICATE-----
MIIGrDCCBJSgAwIBAgICBeowDQYJKoZIhvcNAQEEBQAwgawxCzAJBgNVBAYTAlVT
MQswCQYDVQQIEwJPSDERMA8GA1UEBxMIQ29sdW1idXMxEjAQBgNVBAoTCVZpa2lu
Z1ZQTjEdMBsGA1UECxMUTXlPcmdhbml6YXRpb25hbFVuaXQxFTATBgNVBAMTDFZp
a2luZ1ZQTiBDQTEQMA4GA1UEKRMHRWFzeVJTQTEhMB8GCSqGSIb3DQEJARYSbWVA
bXlob3N0Lm15ZG9tYWluMB4XDTE0MDQwNzE4MzAyN1oXDTI0MDQwNDE4MzAyN1ow
HjEcMBoGA1UEAxMTQ2xpZW50NTY0Q2VydDBkMTIxYTCCAiIwDQYJKoZIhvcNAQEB
BQADggIPADCCAgoCggIBAOGSQ9JloXV9nSRTBPT8wJISljtnLjNSgCZx8j76yZuU
Aw/wEFeEFgzsoqIQq+Vg0BwpmAILkb8eICL8AUSXlUiCgojjdFe+jHTF+axP/z4O
JlQ3iY/MTrwE7lgFJZt2iG+rXUeCe2LGnOp9NRloEhX4bkgg46xYzjZkHsreqkGS
TyV21iEp0fHyWMUBNoQbsZcZk4GmfbIFFVHE3tS7fHIv8dZBfdez6zzL3WyrvQjG
8XB0aoDVuq/ual2EIcheplrjiY9c+rON89o49Q9veBlWKYUcRlhpYRRZCu4zUWQp
4vlWgJnS5B5Y26fNsTVL/bEvp32dGCmFcVcQimArLwu6bcm9LLI5pkCKXeikjtZq
DuTzLjZJMHJ52vtmj/R7FQun4WDBz81MgmhKMSEtVseY6JRRwAer9L2iP+Vu1jv3
qOnAts85DCmYsKFzE/tjDKcxPuGx4Zj18vOZMwcmKAMf3uf5W5cSVr4TB/Gv7iah
aX5kPhwHsL6rDvsJVprOee2EirEeszNGqAwJifMyXYwwLxTAPVOFPLVUuV3qZaPv
Qyly8Z7niiGBuYslUEtnXUAMEfCGYR2f7O1mzLZu23kYHEDGDtYKVFDiAP71Ot30
mTo02BG51vBqrObkARiVnWoOWIy5pp5ygKXQHP5/ESksjHE1ZoOTpUE6STqJepCj
AgMBAAGjggFjMIIBXzAJBgNVHRMEAjAAMC0GCWCGSAGG+EIBDQQgFh5FYXN5LVJT
QSBHZW5lcmF0ZWQgQ2VydGlmaWNhdGUwHQYDVR0OBBYEFDQVIK9o4cx3Ey7+SBma
9RVTn5G4MIHhBgNVHSMEgdkwgdaAFBLNYATSoICecO3Gmbh7LMZS/RmhoYGypIGv
MIGsMQswCQYDVQQGEwJVUzELMAkGA1UECBMCT0gxETAPBgNVBAcTCENvbHVtYnVz
MRIwEAYDVQQKEwlWaWtpbmdWUE4xHTAbBgNVBAsTFE15T3JnYW5pemF0aW9uYWxV
bml0MRUwEwYDVQQDEwxWaWtpbmdWUE4gQ0ExEDAOBgNVBCkTB0Vhc3lSU0ExITAf
BgkqhkiG9w0BCQEWEm1lQG15aG9zdC5teWRvbWFpboIJAM81he6Avyo+MBMGA1Ud
JQQMMAoGCCsGAQUFBwMCMAsGA1UdDwQEAwIHgDANBgkqhkiG9w0BAQQFAAOCAgEA
mNxWjflYNZl5vbVDtIPzht40CfAahabKKd1h64j4VvdXNlK6UyhZ9J4WLPp1YYyB
rHbyQ9QVvnCNYysYYvTKSaDl4Ht3XkRd8Btm3WUq7fjyBLi/Xl3V2SSvcOYc34ZY
KcOrFkCUBsrHczVscXxofBocWruQKg7r2GjIZ0tE29pt/UW2ZtzWgADdP9Ae375i
VhmFshMC5LVVDMdpQm4L4MuUAFXcYXhqLYnWllcs3pGxamSTVy94Dqkj3y5g48qX
Js74sPf/lcfbAIPYvQ3fhJIWCoaWckwNEa+QpMy/39LfeZEe5UNnlmAcxdgjRPL8
jPmRDUZlw7ikdC03QwxkDos0LpKVH/6y9CbT7n7LivMDFaMwPihS4EWw9QWgLE+5
RbLFV9TbEaw3o6ovK3pvbKNnDwP8BsAnl8Gs0C3rWJBTykUxPF8HJFqOwvG8EetC
x+SYqowE4aCdb7D/MWquhUT4s1QCJcaA5xyksfT6TrYCxbCxrLBiV35ItwGesi2Y
8UBCjNRROV1pI3PfQ1mvQ8wcSuztuHJ+Z+co1jpxgw4GMyNtPHDRjgFiHxXlh/3i
+FfZvG0mXlHv2w+eODxir4W1yZ3hyCSuhzCDHUIAqV2ogyfag+kuozoY306MZJxG
c+TZQ9jA+Ep/Wqm0+FcHlEK+Lw/0y5/NtF6AU1Y3AX4=
-----END CERTIFICATE-----
