Certificate:
    Data:
        Version: 3 (0x2)
        Serial Number: 1522 (0x5f2)
    Signature Algorithm: md5WithRSAEncryption
        Issuer: C=US, ST=OH, L=Columbus, O=VikingVPN, OU=MyOrganizationalUnit, CN=VikingVPN CA/name=EasyRSA/emailAddress=me@myhost.mydomain
        Validity
            Not Before: Apr  8 00:50:34 2014 GMT
            Not After : Apr  5 00:50:34 2024 GMT
        Subject: CN=Client470Certcea21f
        Subject Public Key Info:
            Public Key Algorithm: rsaEncryption
                Public-Key: (4096 bit)
                Modulus:
                    00:f5:17:ed:ce:57:ed:99:bd:93:8a:71:13:3d:09:
                    66:de:8d:ef:e5:e6:73:d4:21:3f:4d:84:cf:79:a2:
                    2c:b4:fb:86:9f:3b:97:48:b1:c6:03:2a:22:b6:a3:
                    67:af:7a:cf:87:f6:6c:80:40:9e:36:19:dd:dd:bd:
                    18:d3:20:f1:98:ea:22:c9:bc:06:0a:22:89:26:42:
                    0e:f6:a7:30:59:d5:bd:a7:f3:c2:b4:10:a0:cb:73:
                    56:bf:57:a6:cf:61:37:42:63:47:74:9b:2e:39:5e:
                    18:34:88:e5:16:c2:98:f7:9f:06:a0:49:ab:93:c1:
                    18:5e:e1:c6:f4:04:36:0b:f5:d6:bf:52:d5:46:dc:
                    1a:8a:ea:e0:d8:75:ee:3b:94:9a:96:22:fa:05:a8:
                    6e:49:0d:3e:3c:b5:0e:c6:7d:51:f5:7a:96:6f:ed:
                    ce:32:c2:0c:08:a6:a2:02:3c:ef:7e:d2:84:1e:6f:
                    e4:6d:06:38:8d:f2:70:32:35:e2:71:dc:a8:54:6c:
                    1a:f3:26:c8:14:93:52:60:b9:de:b7:30:94:80:fa:
                    d4:aa:fd:a5:96:ca:70:f7:9f:68:b8:9e:ac:74:06:
                    ef:e0:e7:e9:78:26:2b:6b:f3:3d:dd:65:cb:cb:93:
                    76:ec:c2:15:65:93:7c:f1:96:bb:22:4c:0a:5b:a6:
                    d5:bb:c8:c3:5a:95:4b:19:3e:03:f0:19:db:a9:21:
                    b4:a0:01:35:e7:80:6e:da:2b:a8:b0:95:26:c9:f9:
                    c7:4e:26:2a:47:f6:bd:94:36:3e:35:b8:79:8e:89:
                    16:c8:c6:7f:3b:73:4b:be:1e:da:5c:19:c2:70:f7:
                    dc:39:05:77:e4:3d:29:7f:3f:8b:37:7f:7d:4b:8a:
                    2a:f1:4f:48:1d:4f:b5:88:55:5e:90:f7:f7:7e:15:
                    64:32:96:bb:ff:08:32:35:97:e8:03:4a:f6:67:d4:
                    eb:f5:d6:1c:07:6e:43:85:a8:15:0a:f2:bc:6e:0e:
                    10:99:c3:0f:32:06:26:13:ef:73:5e:07:bc:39:65:
                    41:d5:f5:34:e3:3c:2a:c0:9c:86:2f:26:68:ce:c1:
                    3d:55:80:ab:7d:71:20:78:0d:5e:0a:90:0d:62:5a:
                    01:b8:e0:bd:9d:8f:a3:64:e4:d0:ff:4e:32:d0:6c:
                    a0:07:49:70:f9:c8:54:a4:2d:8d:6a:54:4e:e0:c3:
                    43:a7:4f:52:99:26:ae:c9:56:45:6d:df:82:fc:c0:
                    5f:76:86:4b:a7:e3:0d:f5:1b:d9:de:05:ee:89:11:
                    23:12:2d:5a:92:b1:d2:2d:ff:10:5e:3b:5f:bb:53:
                    53:35:30:53:0a:e3:ca:ff:42:aa:a2:f2:39:9d:25:
                    4b:68:3d
                Exponent: 65537 (0x10001)
        X509v3 extensions:
            X509v3 Basic Constraints: 
                CA:FALSE
            Netscape Comment: 
                Easy-RSA Generated Certificate
            X509v3 Subject Key Identifier: 
                02:28:1B:70:E2:49:2D:D5:B5:30:67:D4:46:13:25:35:A9:37:14:F8
            X509v3 Authority Key Identifier: 
                keyid:12:CD:60:04:D2:A0:80:9E:70:ED:C6:99:B8:7B:2C:C6:52:FD:19:A1
                DirName:/C=US/ST=OH/L=Columbus/O=VikingVPN/OU=MyOrganizationalUnit/CN=VikingVPN CA/name=EasyRSA/emailAddress=me@myhost.mydomain
                serial:CF:35:85:EE:80:BF:2A:3E

            X509v3 Extended Key Usage: 
                TLS Web Client Authentication
            X509v3 Key Usage: 
                Digital Signature
    Signature Algorithm: md5WithRSAEncryption
         b2:5b:23:20:9a:91:70:f9:44:b9:65:46:8e:22:1e:5d:de:89:
         e1:a8:01:59:fb:aa:c7:ad:72:be:1f:7c:82:f3:53:b6:d6:2f:
         79:59:d2:eb:1a:dd:22:a5:7f:23:c7:c6:ba:95:00:15:44:8b:
         9b:0d:38:4c:bc:d4:56:0c:d3:92:ab:b9:6a:4c:53:40:16:90:
         1c:f0:f5:c4:f5:11:9e:34:54:b7:80:c4:ff:f6:bc:08:7f:ab:
         76:b9:9d:4c:6e:6b:aa:74:b6:13:1e:f0:ea:12:96:a1:22:9c:
         50:27:76:f3:e5:8e:0d:3c:24:1e:6a:c8:fe:27:b2:73:a7:57:
         2e:d7:49:6d:96:6c:58:2c:4f:5e:43:30:4c:75:fb:f7:a5:9d:
         6d:25:cb:fd:24:0e:f6:5d:13:a6:ac:de:ef:75:77:e2:95:39:
         ac:59:3f:8f:4f:a1:f7:7f:7f:22:8c:91:f9:2b:ae:27:14:cd:
         d5:87:d4:2e:45:5c:5f:ec:9a:9d:11:75:46:01:a9:76:79:8c:
         c5:ce:69:9e:f7:75:28:8d:1a:10:3a:e3:b7:1f:1d:b0:1d:1c:
         79:2e:03:05:20:8d:06:3e:be:fa:35:15:a6:c5:23:2d:ec:8c:
         f8:c4:c2:77:34:87:8c:21:bf:33:4a:22:12:cf:41:38:27:f2:
         bc:b0:ac:12:1c:74:4e:08:70:d1:f3:57:eb:00:05:fe:f9:cf:
         f2:44:7a:52:e1:1d:1c:92:6c:92:2f:40:61:bc:c2:6b:e7:49:
         fc:df:a1:1f:0a:57:7d:32:6e:fe:a3:0d:18:02:d7:11:c7:9d:
         c9:5d:d4:08:06:ba:4f:af:2a:c9:44:1d:c9:c7:9a:07:8a:0c:
         8d:cd:b5:b3:b0:76:2d:0c:7a:c8:28:4e:cf:42:1f:83:12:ee:
         1a:fd:65:96:f8:55:fa:3e:45:dd:f4:42:9c:a7:71:e7:76:33:
         96:49:86:19:86:8e:67:5b:66:79:fa:e6:a0:90:f4:d3:5c:44:
         d7:01:33:32:1c:ee:c9:28:c4:c8:bb:66:78:1f:9b:01:ff:60:
         01:28:fb:cc:01:4f:3f:e7:b7:96:1f:ae:64:4c:3e:eb:4c:27:
         17:1e:16:e8:68:57:8f:44:70:30:38:af:8c:d2:d4:a1:65:c8:
         b0:31:08:8c:c4:87:eb:6f:80:25:0f:99:54:93:1a:f8:57:52:
         72:06:ad:dc:6e:8c:82:0f:2e:10:87:ce:98:c7:bf:f3:74:12:
         78:c6:05:f1:75:4b:76:cf:39:68:5d:58:fb:ff:35:d7:6a:9b:
         c2:46:58:32:45:2e:df:07:4e:8a:4a:12:02:e7:87:71:35:53:
         c8:d7:12:ba:52:66:55:06
-----BEGIN CERTIFICATE-----
MIIGrDCCBJSgAwIBAgICBfIwDQYJKoZIhvcNAQEEBQAwgawxCzAJBgNVBAYTAlVT
MQswCQYDVQQIEwJPSDERMA8GA1UEBxMIQ29sdW1idXMxEjAQBgNVBAoTCVZpa2lu
Z1ZQTjEdMBsGA1UECxMUTXlPcmdhbml6YXRpb25hbFVuaXQxFTATBgNVBAMTDFZp
a2luZ1ZQTiBDQTEQMA4GA1UEKRMHRWFzeVJTQTEhMB8GCSqGSIb3DQEJARYSbWVA
bXlob3N0Lm15ZG9tYWluMB4XDTE0MDQwODAwNTAzNFoXDTI0MDQwNTAwNTAzNFow
HjEcMBoGA1UEAxMTQ2xpZW50NDcwQ2VydGNlYTIxZjCCAiIwDQYJKoZIhvcNAQEB
BQADggIPADCCAgoCggIBAPUX7c5X7Zm9k4pxEz0JZt6N7+Xmc9QhP02Ez3miLLT7
hp87l0ixxgMqIrajZ696z4f2bIBAnjYZ3d29GNMg8ZjqIsm8BgoiiSZCDvanMFnV
vafzwrQQoMtzVr9Xps9hN0JjR3SbLjleGDSI5RbCmPefBqBJq5PBGF7hxvQENgv1
1r9S1UbcGorq4Nh17juUmpYi+gWobkkNPjy1DsZ9UfV6lm/tzjLCDAimogI8737S
hB5v5G0GOI3ycDI14nHcqFRsGvMmyBSTUmC53rcwlID61Kr9pZbKcPefaLierHQG
7+Dn6XgmK2vzPd1ly8uTduzCFWWTfPGWuyJMClum1bvIw1qVSxk+A/AZ26khtKAB
NeeAbtorqLCVJsn5x04mKkf2vZQ2PjW4eY6JFsjGfztzS74e2lwZwnD33DkFd+Q9
KX8/izd/fUuKKvFPSB1PtYhVXpD3934VZDKWu/8IMjWX6ANK9mfU6/XWHAduQ4Wo
FQryvG4OEJnDDzIGJhPvc14HvDllQdX1NOM8KsCchi8maM7BPVWAq31xIHgNXgqQ
DWJaAbjgvZ2Po2Tk0P9OMtBsoAdJcPnIVKQtjWpUTuDDQ6dPUpkmrslWRW3fgvzA
X3aGS6fjDfUb2d4F7okRIxItWpKx0i3/EF47X7tTUzUwUwrjyv9CqqLyOZ0lS2g9
AgMBAAGjggFjMIIBXzAJBgNVHRMEAjAAMC0GCWCGSAGG+EIBDQQgFh5FYXN5LVJT
QSBHZW5lcmF0ZWQgQ2VydGlmaWNhdGUwHQYDVR0OBBYEFAIoG3DiSS3VtTBn1EYT
JTWpNxT4MIHhBgNVHSMEgdkwgdaAFBLNYATSoICecO3Gmbh7LMZS/RmhoYGypIGv
MIGsMQswCQYDVQQGEwJVUzELMAkGA1UECBMCT0gxETAPBgNVBAcTCENvbHVtYnVz
MRIwEAYDVQQKEwlWaWtpbmdWUE4xHTAbBgNVBAsTFE15T3JnYW5pemF0aW9uYWxV
bml0MRUwEwYDVQQDEwxWaWtpbmdWUE4gQ0ExEDAOBgNVBCkTB0Vhc3lSU0ExITAf
BgkqhkiG9w0BCQEWEm1lQG15aG9zdC5teWRvbWFpboIJAM81he6Avyo+MBMGA1Ud
JQQMMAoGCCsGAQUFBwMCMAsGA1UdDwQEAwIHgDANBgkqhkiG9w0BAQQFAAOCAgEA
slsjIJqRcPlEuWVGjiIeXd6J4agBWfuqx61yvh98gvNTttYveVnS6xrdIqV/I8fG
upUAFUSLmw04TLzUVgzTkqu5akxTQBaQHPD1xPURnjRUt4DE//a8CH+rdrmdTG5r
qnS2Ex7w6hKWoSKcUCd28+WODTwkHmrI/ieyc6dXLtdJbZZsWCxPXkMwTHX796Wd
bSXL/SQO9l0Tpqze73V34pU5rFk/j0+h939/IoyR+SuuJxTN1YfULkVcX+yanRF1
RgGpdnmMxc5pnvd1KI0aEDrjtx8dsB0ceS4DBSCNBj6++jUVpsUjLeyM+MTCdzSH
jCG/M0oiEs9BOCfyvLCsEhx0Tghw0fNX6wAF/vnP8kR6UuEdHJJski9AYbzCa+dJ
/N+hHwpXfTJu/qMNGALXEcedyV3UCAa6T68qyUQdyceaB4oMjc21s7B2LQx6yChO
z0IfgxLuGv1llvhV+j5F3fRCnKdx53YzlkmGGYaOZ1tmefrmoJD001xE1wEzMhzu
ySjEyLtmeB+bAf9gASj7zAFPP+e3lh+uZEw+60wnFx4W6GhXj0RwMDivjNLUoWXI
sDEIjMSH62+AJQ+ZVJMa+FdScgat3G6Mgg8uEIfOmMe/83QSeMYF8XVLds85aF1Y
+/8112qbwkZYMkUu3wdOikoSAueHcTVTyNcSulJmVQY=
-----END CERTIFICATE-----
