Certificate:
    Data:
        Version: 3 (0x2)
        Serial Number: 1524 (0x5f4)
    Signature Algorithm: md5WithRSAEncryption
        Issuer: C=US, ST=OH, L=Columbus, O=VikingVPN, OU=MyOrganizationalUnit, CN=VikingVPN CA/name=EasyRSA/emailAddress=me@myhost.mydomain
        Validity
            Not Before: Apr  8 05:03:51 2014 GMT
            Not After : Apr  5 05:03:51 2024 GMT
        Subject: CN=Client313Certffd75e
        Subject Public Key Info:
            Public Key Algorithm: rsaEncryption
                Public-Key: (4096 bit)
                Modulus:
                    00:cb:f9:49:57:98:54:0f:c1:cc:99:37:cd:71:cb:
                    47:00:a6:15:4a:b4:34:f8:f7:57:40:2a:c3:b5:18:
                    1a:37:0d:82:05:d6:69:90:52:87:21:38:e9:32:9b:
                    e9:25:b6:40:38:13:f6:e0:3e:76:5b:a6:c8:41:48:
                    32:a3:6c:5b:ca:d4:ed:a7:da:41:34:8c:48:b6:6f:
                    8b:ed:a7:3d:37:09:1c:e6:e9:71:9e:16:d6:b5:01:
                    09:a0:50:6a:4f:1d:b8:ac:b1:72:5f:c8:85:05:ed:
                    89:b0:6a:f6:38:e3:e9:59:c9:71:ca:00:dc:0e:1d:
                    0a:ff:b3:c4:aa:83:27:7d:14:78:89:1b:67:05:62:
                    f8:cb:18:d3:6d:c7:4a:53:ec:0d:6b:23:72:2f:a2:
                    81:50:4d:5d:e7:57:97:1f:cc:4f:78:d1:9d:93:57:
                    aa:b4:f3:9d:7c:a8:34:94:05:40:a2:b4:0f:60:43:
                    1f:14:a1:c3:42:45:ad:21:f5:dc:b6:8c:bc:a9:40:
                    5c:2b:97:76:9c:68:ce:2f:e8:6a:45:2c:bc:e2:9f:
                    c5:a4:ba:ea:ef:05:de:45:a2:d6:fd:a8:10:90:da:
                    f5:3e:3f:0c:c4:0d:8a:11:cd:14:f8:c7:e6:08:8e:
                    51:e2:c0:9a:a7:a2:58:c8:da:6c:e9:f1:32:7c:1d:
                    91:da:5d:7b:ac:1b:e6:98:70:aa:53:fc:da:4f:27:
                    2f:4c:9d:3d:ef:99:cc:86:fa:c8:a4:c8:10:3f:e8:
                    f1:ae:3f:31:f6:6b:cb:23:27:42:a4:a8:d6:49:57:
                    5d:67:bb:d9:0a:8a:7e:de:f6:66:1f:58:c6:dc:04:
                    4d:70:36:7a:f4:ae:3a:f9:42:57:9f:ef:e7:2e:76:
                    4f:fc:c1:9f:c1:39:cc:6d:54:e5:57:95:ba:e2:e8:
                    ab:35:2e:86:28:09:50:3b:0e:36:4e:09:a2:68:4b:
                    53:14:d9:f4:48:a9:6c:e4:b3:65:ec:ef:c8:d1:12:
                    05:93:61:4d:99:ec:17:94:93:17:29:c0:4c:9d:78:
                    3f:d3:a9:6e:ab:9b:23:ff:f2:0c:bc:1e:42:e6:78:
                    8a:39:64:d5:90:a5:51:54:6c:87:90:3c:a1:2e:5a:
                    c0:f5:50:8c:d0:1a:8f:22:61:eb:c3:39:1b:c9:26:
                    ff:97:05:88:b3:03:08:01:de:e7:03:13:60:6f:3d:
                    c4:6a:51:f6:ea:a4:e3:b5:a7:c6:b5:60:de:d1:7c:
                    c9:fe:6f:e8:5a:bc:42:4d:02:5e:5b:fb:a2:47:34:
                    3e:a2:58:02:ea:f8:3f:fd:f0:aa:47:f6:05:ac:b3:
                    71:83:14:20:f8:50:33:07:c7:b6:11:e1:bc:bc:af:
                    b0:0c:43
                Exponent: 65537 (0x10001)
        X509v3 extensions:
            X509v3 Basic Constraints: 
                CA:FALSE
            Netscape Comment: 
                Easy-RSA Generated Certificate
            X509v3 Subject Key Identifier: 
                E4:D0:8A:8E:1D:99:FA:E4:09:8B:2A:2A:1B:51:8E:BE:98:A9:0A:0D
            X509v3 Authority Key Identifier: 
                keyid:12:CD:60:04:D2:A0:80:9E:70:ED:C6:99:B8:7B:2C:C6:52:FD:19:A1
                DirName:/C=US/ST=OH/L=Columbus/O=VikingVPN/OU=MyOrganizationalUnit/CN=VikingVPN CA/name=EasyRSA/emailAddress=me@myhost.mydomain
                serial:CF:35:85:EE:80:BF:2A:3E

            X509v3 Extended Key Usage: 
                TLS Web Client Authentication
            X509v3 Key Usage: 
                Digital Signature
    Signature Algorithm: md5WithRSAEncryption
         e2:c2:18:08:49:bc:9a:29:3b:c3:c3:46:8d:92:6a:81:35:cc:
         7a:14:cd:f8:49:fc:fb:fa:8b:68:45:a9:8a:fc:51:59:72:56:
         0d:13:bd:f1:07:1f:86:e2:b6:98:c2:19:77:74:69:a9:87:8b:
         e5:fb:9f:16:fe:5d:c8:25:b6:4d:55:b3:a1:70:51:33:76:ee:
         91:96:b0:35:26:f8:2d:5d:c5:7c:6f:71:f0:a3:9c:3b:0b:92:
         9e:e6:0c:34:6c:99:e1:fe:d3:e3:88:90:f4:3f:36:4c:24:db:
         47:99:7f:bf:22:f2:4e:7c:95:d5:36:2a:27:8a:ea:9c:94:ec:
         60:41:bc:bd:e7:e8:11:f3:66:1b:7d:64:64:7f:78:7f:b7:68:
         93:84:0c:f9:41:5f:97:ec:d4:8e:1e:ba:4e:3e:5e:45:1f:08:
         98:31:44:d0:13:be:0b:c5:a2:d2:b4:e1:d4:31:d0:9a:c2:ba:
         d0:e1:bc:31:73:1c:67:4c:90:4f:79:8c:f7:83:84:06:74:cf:
         9a:fc:6e:35:b8:c1:d5:3d:0c:9e:98:14:c6:aa:1f:ff:36:48:
         8f:37:8d:a9:da:cf:c0:0b:c4:b7:a8:35:14:85:ae:f8:25:57:
         13:28:39:4f:ae:84:b5:82:ba:e7:21:4b:5e:d7:eb:6f:f5:43:
         c3:9f:b6:5c:99:1d:f7:d2:c2:ff:2c:6a:17:8f:c6:96:6a:5f:
         20:e5:8c:d9:2a:b6:24:60:e7:ea:cc:f3:3c:8c:4b:de:c4:24:
         32:5a:55:f4:d0:16:dc:b6:4f:a5:72:1b:c8:2c:99:05:39:80:
         60:3e:c2:66:7a:a5:fe:51:1e:a7:38:75:4b:23:29:01:e0:e8:
         a9:c8:53:d7:0a:b1:2e:41:4f:1b:2e:eb:c0:0c:1d:6d:12:bf:
         09:a4:f6:00:cf:4e:97:2c:e7:52:ec:b6:29:2c:3e:28:dc:fc:
         e9:71:da:a1:a3:0f:8c:69:5f:f2:75:09:93:36:b3:cc:71:ed:
         3a:bf:89:05:a4:fa:87:0f:ce:66:07:83:85:ce:a4:8b:09:e3:
         5d:09:9e:5b:d9:42:c0:d5:59:9c:76:a0:de:8e:eb:da:65:d4:
         1e:a0:37:df:14:30:1d:18:e6:b1:db:ea:8d:b2:72:3c:d1:09:
         af:ae:76:a3:00:c9:66:0b:25:96:dd:71:67:a5:c1:bc:46:d5:
         47:6f:b3:06:47:9b:ed:e3:7b:73:8b:e9:35:45:a9:9e:8d:86:
         84:a8:64:1c:77:d2:82:54:dc:00:85:31:9c:0b:e1:d4:8d:21:
         18:6b:10:e5:ab:c5:53:6e:ed:eb:42:ca:25:b7:6e:87:d2:ae:
         3a:40:b0:16:0e:ca:16:9b
-----BEGIN CERTIFICATE-----
MIIGrDCCBJSgAwIBAgICBfQwDQYJKoZIhvcNAQEEBQAwgawxCzAJBgNVBAYTAlVT
MQswCQYDVQQIEwJPSDERMA8GA1UEBxMIQ29sdW1idXMxEjAQBgNVBAoTCVZpa2lu
Z1ZQTjEdMBsGA1UECxMUTXlPcmdhbml6YXRpb25hbFVuaXQxFTATBgNVBAMTDFZp
a2luZ1ZQTiBDQTEQMA4GA1UEKRMHRWFzeVJTQTEhMB8GCSqGSIb3DQEJARYSbWVA
bXlob3N0Lm15ZG9tYWluMB4XDTE0MDQwODA1MDM1MVoXDTI0MDQwNTA1MDM1MVow
HjEcMBoGA1UEAxMTQ2xpZW50MzEzQ2VydGZmZDc1ZTCCAiIwDQYJKoZIhvcNAQEB
BQADggIPADCCAgoCggIBAMv5SVeYVA/BzJk3zXHLRwCmFUq0NPj3V0Aqw7UYGjcN
ggXWaZBShyE46TKb6SW2QDgT9uA+dlumyEFIMqNsW8rU7afaQTSMSLZvi+2nPTcJ
HObpcZ4W1rUBCaBQak8duKyxcl/IhQXtibBq9jjj6VnJccoA3A4dCv+zxKqDJ30U
eIkbZwVi+MsY023HSlPsDWsjci+igVBNXedXlx/MT3jRnZNXqrTznXyoNJQFQKK0
D2BDHxShw0JFrSH13LaMvKlAXCuXdpxozi/oakUsvOKfxaS66u8F3kWi1v2oEJDa
9T4/DMQNihHNFPjH5giOUeLAmqeiWMjabOnxMnwdkdpde6wb5phwqlP82k8nL0yd
Pe+ZzIb6yKTIED/o8a4/MfZryyMnQqSo1klXXWe72QqKft72Zh9YxtwETXA2evSu
OvlCV5/v5y52T/zBn8E5zG1U5VeVuuLoqzUuhigJUDsONk4JomhLUxTZ9EipbOSz
ZezvyNESBZNhTZnsF5STFynATJ14P9OpbqubI//yDLweQuZ4ijlk1ZClUVRsh5A8
oS5awPVQjNAajyJh68M5G8km/5cFiLMDCAHe5wMTYG89xGpR9uqk47WnxrVg3tF8
yf5v6Fq8Qk0CXlv7okc0PqJYAur4P/3wqkf2BayzcYMUIPhQMwfHthHhvLyvsAxD
AgMBAAGjggFjMIIBXzAJBgNVHRMEAjAAMC0GCWCGSAGG+EIBDQQgFh5FYXN5LVJT
QSBHZW5lcmF0ZWQgQ2VydGlmaWNhdGUwHQYDVR0OBBYEFOTQio4dmfrkCYsqKhtR
jr6YqQoNMIHhBgNVHSMEgdkwgdaAFBLNYATSoICecO3Gmbh7LMZS/RmhoYGypIGv
MIGsMQswCQYDVQQGEwJVUzELMAkGA1UECBMCT0gxETAPBgNVBAcTCENvbHVtYnVz
MRIwEAYDVQQKEwlWaWtpbmdWUE4xHTAbBgNVBAsTFE15T3JnYW5pemF0aW9uYWxV
bml0MRUwEwYDVQQDEwxWaWtpbmdWUE4gQ0ExEDAOBgNVBCkTB0Vhc3lSU0ExITAf
BgkqhkiG9w0BCQEWEm1lQG15aG9zdC5teWRvbWFpboIJAM81he6Avyo+MBMGA1Ud
JQQMMAoGCCsGAQUFBwMCMAsGA1UdDwQEAwIHgDANBgkqhkiG9w0BAQQFAAOCAgEA
4sIYCEm8mik7w8NGjZJqgTXMehTN+En8+/qLaEWpivxRWXJWDRO98QcfhuK2mMIZ
d3RpqYeL5fufFv5dyCW2TVWzoXBRM3bukZawNSb4LV3FfG9x8KOcOwuSnuYMNGyZ
4f7T44iQ9D82TCTbR5l/vyLyTnyV1TYqJ4rqnJTsYEG8vefoEfNmG31kZH94f7do
k4QM+UFfl+zUjh66Tj5eRR8ImDFE0BO+C8Wi0rTh1DHQmsK60OG8MXMcZ0yQT3mM
94OEBnTPmvxuNbjB1T0MnpgUxqof/zZIjzeNqdrPwAvEt6g1FIWu+CVXEyg5T66E
tYK65yFLXtfrb/VDw5+2XJkd99LC/yxqF4/GlmpfIOWM2Sq2JGDn6szzPIxL3sQk
MlpV9NAW3LZPpXIbyCyZBTmAYD7CZnql/lEepzh1SyMpAeDoqchT1wqxLkFPGy7r
wAwdbRK/CaT2AM9OlyznUuy2KSw+KNz86XHaoaMPjGlf8nUJkzazzHHtOr+JBaT6
hw/OZgeDhc6kiwnjXQmeW9lCwNVZnHag3o7r2mXUHqA33xQwHRjmsdvqjbJyPNEJ
r652owDJZgsllt1xZ6XBvEbVR2+zBkeb7eN7c4vpNUWpno2GhKhkHHfSglTcAIUx
nAvh1I0hGGsQ5avFU27t60LKJbduh9KuOkCwFg7KFps=
-----END CERTIFICATE-----
