Certificate:
    Data:
        Version: 3 (0x2)
        Serial Number: 1536 (0x600)
    Signature Algorithm: md5WithRSAEncryption
        Issuer: C=US, ST=OH, L=Columbus, O=VikingVPN, OU=MyOrganizationalUnit, CN=VikingVPN CA/name=EasyRSA/emailAddress=me@myhost.mydomain
        Validity
            Not Before: Apr  9 13:31:32 2014 GMT
            Not After : Apr  6 13:31:32 2024 GMT
        Subject: CN=Client567Cert33c8f8
        Subject Public Key Info:
            Public Key Algorithm: rsaEncryption
                Public-Key: (4096 bit)
                Modulus:
                    00:a1:76:1d:f6:56:13:b8:dc:c2:27:0f:35:b7:8b:
                    52:32:b6:02:48:cd:0d:df:aa:2c:9c:93:5b:62:4a:
                    f6:c5:ff:dd:ee:9f:ac:a1:fb:07:dc:42:4c:d4:3d:
                    31:1b:ac:b1:22:29:d1:26:b0:13:22:a4:bf:bc:fb:
                    59:10:b4:10:e2:ed:81:50:e1:4f:c8:d0:24:c1:ac:
                    7b:1d:5f:e1:f4:77:2f:da:9f:57:ac:73:ea:14:b7:
                    d0:98:9a:7d:37:97:7a:2e:9d:a1:71:65:3b:d6:06:
                    17:69:17:4f:02:f4:ba:d0:8e:dd:7b:16:0b:2d:47:
                    4b:fe:fc:de:90:df:f3:df:05:71:77:d3:39:72:1f:
                    79:4b:25:9b:b6:ba:92:8c:b0:f2:0d:bf:48:5d:2e:
                    f0:10:d1:95:22:69:37:71:be:9b:a6:6a:90:bc:53:
                    89:ba:8e:d8:4b:a4:45:1e:86:ce:e1:32:82:e5:da:
                    57:16:b8:1c:67:92:2f:0b:e3:f9:78:c3:6d:dc:7b:
                    f6:ae:22:f8:24:36:a2:b0:28:58:15:2e:e3:24:fd:
                    38:fc:53:cd:42:05:d4:dc:5c:aa:a2:ca:a9:38:2d:
                    ac:58:19:c3:e8:2b:f7:89:d7:0d:81:f3:f3:3d:bd:
                    ef:71:57:35:60:62:5a:38:15:03:6d:1f:e7:8f:28:
                    40:7b:7e:f6:54:88:3f:51:82:fc:39:41:51:93:5a:
                    9e:0b:e5:ce:7b:ab:4b:40:da:fc:c5:4a:83:83:d4:
                    08:d1:ab:5b:fe:04:96:ee:9c:11:c9:78:6c:8b:1c:
                    8c:96:1a:c1:6f:b9:1f:8c:de:0d:0f:76:ab:a2:06:
                    e9:a9:a9:5b:fd:88:3a:bd:7c:21:76:a3:71:91:e0:
                    97:40:8e:38:25:d9:a5:81:82:ec:3b:11:fe:9f:f8:
                    52:d0:1c:6f:ce:9b:a9:32:b1:39:9d:bd:47:f4:14:
                    52:98:5f:b4:d7:d8:94:11:d7:2e:f1:51:00:d7:94:
                    63:95:74:4f:9c:5e:92:29:65:87:32:f4:b6:56:5a:
                    13:2d:34:c9:66:72:67:a1:45:9d:b9:7d:e4:80:8e:
                    3a:69:f0:ee:02:5b:ad:e1:f6:84:b4:79:32:40:79:
                    63:0e:63:e3:66:93:29:26:69:f6:c0:aa:e8:6b:7e:
                    43:7c:e7:63:7a:ad:ce:04:c1:64:4e:39:47:d1:70:
                    3a:88:a4:99:b6:f5:1e:1e:8e:88:ce:3d:50:72:3c:
                    1f:98:a7:de:28:a2:05:c7:92:bd:b7:64:22:fb:11:
                    0c:58:fc:58:a4:46:de:86:9b:3b:ab:a7:9a:a8:16:
                    e0:42:4b:20:3b:b5:8a:52:dc:b4:0a:ff:a5:cc:18:
                    0a:a9:c1
                Exponent: 65537 (0x10001)
        X509v3 extensions:
            X509v3 Basic Constraints: 
                CA:FALSE
            Netscape Comment: 
                Easy-RSA Generated Certificate
            X509v3 Subject Key Identifier: 
                6B:C1:9F:0C:61:46:2E:50:9D:02:4B:D0:DB:60:25:B6:8D:E1:AB:7F
            X509v3 Authority Key Identifier: 
                keyid:12:CD:60:04:D2:A0:80:9E:70:ED:C6:99:B8:7B:2C:C6:52:FD:19:A1
                DirName:/C=US/ST=OH/L=Columbus/O=VikingVPN/OU=MyOrganizationalUnit/CN=VikingVPN CA/name=EasyRSA/emailAddress=me@myhost.mydomain
                serial:CF:35:85:EE:80:BF:2A:3E

            X509v3 Extended Key Usage: 
                TLS Web Client Authentication
            X509v3 Key Usage: 
                Digital Signature
    Signature Algorithm: md5WithRSAEncryption
         38:22:98:ef:8c:60:46:d6:5a:1e:70:96:c2:17:4e:e5:8f:78:
         94:eb:cc:ea:aa:6a:b0:fc:c6:3d:fa:dd:65:26:81:7d:e1:71:
         21:6b:a2:0a:06:80:28:2c:e7:06:19:0d:0e:22:64:e2:1f:3f:
         67:65:63:9b:fc:7c:17:59:3c:37:7e:fa:ad:2c:b5:33:b1:f2:
         98:20:81:b7:a6:85:7d:c8:9a:da:b2:16:d1:1b:19:9c:43:e9:
         f5:20:d2:41:18:d8:f9:92:38:44:17:c5:77:6c:30:08:86:7d:
         ef:ae:7d:c7:3e:27:c7:ca:2b:5a:6a:e8:1e:8c:b6:69:58:69:
         0b:b5:70:d7:8f:94:e2:b5:07:58:e1:98:12:43:9d:af:99:e6:
         ca:ec:49:b2:81:ff:15:8b:67:e0:55:40:de:6b:aa:60:f2:84:
         80:75:79:4e:10:e0:18:b8:ae:fc:71:be:39:bb:0e:39:07:91:
         9a:1e:6b:b7:41:77:3e:57:5a:ba:f8:83:89:95:6e:dd:00:b3:
         e3:2a:0d:90:01:23:87:c4:7b:a3:32:e0:dc:48:ff:d8:6b:f3:
         ab:a2:88:f7:73:c4:86:ff:ef:fe:7c:fc:15:2a:2b:bb:2c:38:
         e7:ad:70:61:f5:85:9d:ff:ca:6e:de:7a:4d:ce:e5:08:c9:6d:
         43:e5:5b:67:08:9a:df:44:28:fa:f6:f3:f9:9f:c6:5f:f7:84:
         75:16:bb:98:87:39:d0:97:47:84:27:78:49:f5:1a:7f:5a:42:
         41:e6:ac:73:72:ab:8d:e9:1a:80:42:91:b4:ae:25:9f:d0:fb:
         1f:48:c3:eb:b2:e3:29:84:d6:e0:43:b4:bc:11:b6:18:ec:e1:
         82:81:ef:76:65:77:1b:03:b0:0e:b3:f1:af:62:7c:b1:b1:a6:
         56:fc:de:4d:ca:9e:a8:8f:2c:05:6f:81:2e:87:86:93:ca:d7:
         74:c8:14:79:6c:ca:9d:cf:fb:21:60:fe:26:4d:09:79:90:28:
         1f:e0:17:41:b3:94:1b:81:3d:dc:5d:e3:c4:72:c1:59:6a:1e:
         c9:3d:54:74:1c:06:c9:ca:ec:22:7e:94:c0:3d:b3:06:8b:01:
         72:35:94:b7:0b:43:53:1f:28:68:a3:92:05:4a:c2:e0:7e:53:
         fd:f9:94:dc:28:16:fc:28:ac:54:e5:81:41:8f:ea:1e:05:fc:
         ce:7c:ec:a6:0f:98:d5:37:49:e9:2c:b9:13:bb:e8:4b:81:22:
         bd:ce:24:e4:00:ac:bf:e3:f5:9e:7e:ea:98:62:31:99:4b:bc:
         66:ca:a5:a7:11:a1:fe:cc:86:ad:7c:a8:31:a7:e7:80:3f:91:
         f2:4d:77:cb:8a:90:64:bd
-----BEGIN CERTIFICATE-----
MIIGrDCCBJSgAwIBAgICBgAwDQYJKoZIhvcNAQEEBQAwgawxCzAJBgNVBAYTAlVT
MQswCQYDVQQIEwJPSDERMA8GA1UEBxMIQ29sdW1idXMxEjAQBgNVBAoTCVZpa2lu
Z1ZQTjEdMBsGA1UECxMUTXlPcmdhbml6YXRpb25hbFVuaXQxFTATBgNVBAMTDFZp
a2luZ1ZQTiBDQTEQMA4GA1UEKRMHRWFzeVJTQTEhMB8GCSqGSIb3DQEJARYSbWVA
bXlob3N0Lm15ZG9tYWluMB4XDTE0MDQwOTEzMzEzMloXDTI0MDQwNjEzMzEzMlow
HjEcMBoGA1UEAxMTQ2xpZW50NTY3Q2VydDMzYzhmODCCAiIwDQYJKoZIhvcNAQEB
BQADggIPADCCAgoCggIBAKF2HfZWE7jcwicPNbeLUjK2AkjNDd+qLJyTW2JK9sX/
3e6frKH7B9xCTNQ9MRussSIp0SawEyKkv7z7WRC0EOLtgVDhT8jQJMGsex1f4fR3
L9qfV6xz6hS30JiafTeXei6doXFlO9YGF2kXTwL0utCO3XsWCy1HS/783pDf898F
cXfTOXIfeUslm7a6koyw8g2/SF0u8BDRlSJpN3G+m6ZqkLxTibqO2EukRR6GzuEy
guXaVxa4HGeSLwvj+XjDbdx79q4i+CQ2orAoWBUu4yT9OPxTzUIF1NxcqqLKqTgt
rFgZw+gr94nXDYHz8z2973FXNWBiWjgVA20f548oQHt+9lSIP1GC/DlBUZNangvl
znurS0Da/MVKg4PUCNGrW/4Elu6cEcl4bIscjJYawW+5H4zeDQ92q6IG6ampW/2I
Or18IXajcZHgl0COOCXZpYGC7DsR/p/4UtAcb86bqTKxOZ29R/QUUphftNfYlBHX
LvFRANeUY5V0T5xekillhzL0tlZaEy00yWZyZ6FFnbl95ICOOmnw7gJbreH2hLR5
MkB5Yw5j42aTKSZp9sCq6Gt+Q3znY3qtzgTBZE45R9FwOoikmbb1Hh6OiM49UHI8
H5in3iiiBceSvbdkIvsRDFj8WKRG3oabO6unmqgW4EJLIDu1ilLctAr/pcwYCqnB
AgMBAAGjggFjMIIBXzAJBgNVHRMEAjAAMC0GCWCGSAGG+EIBDQQgFh5FYXN5LVJT
QSBHZW5lcmF0ZWQgQ2VydGlmaWNhdGUwHQYDVR0OBBYEFGvBnwxhRi5QnQJL0Ntg
JbaN4at/MIHhBgNVHSMEgdkwgdaAFBLNYATSoICecO3Gmbh7LMZS/RmhoYGypIGv
MIGsMQswCQYDVQQGEwJVUzELMAkGA1UECBMCT0gxETAPBgNVBAcTCENvbHVtYnVz
MRIwEAYDVQQKEwlWaWtpbmdWUE4xHTAbBgNVBAsTFE15T3JnYW5pemF0aW9uYWxV
bml0MRUwEwYDVQQDEwxWaWtpbmdWUE4gQ0ExEDAOBgNVBCkTB0Vhc3lSU0ExITAf
BgkqhkiG9w0BCQEWEm1lQG15aG9zdC5teWRvbWFpboIJAM81he6Avyo+MBMGA1Ud
JQQMMAoGCCsGAQUFBwMCMAsGA1UdDwQEAwIHgDANBgkqhkiG9w0BAQQFAAOCAgEA
OCKY74xgRtZaHnCWwhdO5Y94lOvM6qpqsPzGPfrdZSaBfeFxIWuiCgaAKCznBhkN
DiJk4h8/Z2Vjm/x8F1k8N376rSy1M7HymCCBt6aFfcia2rIW0RsZnEPp9SDSQRjY
+ZI4RBfFd2wwCIZ97659xz4nx8orWmroHoy2aVhpC7Vw14+U4rUHWOGYEkOdr5nm
yuxJsoH/FYtn4FVA3muqYPKEgHV5ThDgGLiu/HG+ObsOOQeRmh5rt0F3PldauviD
iZVu3QCz4yoNkAEjh8R7ozLg3Ej/2Gvzq6KI93PEhv/v/nz8FSoruyw4561wYfWF
nf/Kbt56Tc7lCMltQ+VbZwia30Qo+vbz+Z/GX/eEdRa7mIc50JdHhCd4SfUaf1pC
Qeasc3KrjekagEKRtK4ln9D7H0jD67LjKYTW4EO0vBG2GOzhgoHvdmV3GwOwDrPx
r2J8sbGmVvzeTcqeqI8sBW+BLoeGk8rXdMgUeWzKnc/7IWD+Jk0JeZAoH+AXQbOU
G4E93F3jxHLBWWoeyT1UdBwGycrsIn6UwD2zBosBcjWUtwtDUx8oaKOSBUrC4H5T
/fmU3CgW/CisVOWBQY/qHgX8znzspg+Y1TdJ6Sy5E7voS4Eivc4k5ACsv+P1nn7q
mGIxmUu8ZsqlpxGh/syGrXyoMafngD+R8k13y4qQZL0=
-----END CERTIFICATE-----
