Certificate:
    Data:
        Version: 3 (0x2)
        Serial Number: 1543 (0x607)
    Signature Algorithm: md5WithRSAEncryption
        Issuer: C=US, ST=OH, L=Columbus, O=VikingVPN, OU=MyOrganizationalUnit, CN=VikingVPN CA/name=EasyRSA/emailAddress=me@myhost.mydomain
        Validity
            Not Before: Apr 10 01:20:59 2014 GMT
            Not After : Apr  7 01:20:59 2024 GMT
        Subject: CN=Client569Cert3f94c0
        Subject Public Key Info:
            Public Key Algorithm: rsaEncryption
                Public-Key: (4096 bit)
                Modulus:
                    00:d4:f4:13:c2:41:14:57:bc:cd:1e:10:b2:18:0b:
                    9b:d6:c4:66:2e:11:54:10:b8:32:b6:f9:d1:30:85:
                    b3:ec:d1:d2:53:22:74:b0:2e:74:e7:47:89:b1:9a:
                    c1:3e:d0:37:34:fc:d6:c0:b0:d8:47:55:58:d6:5b:
                    4b:23:2b:f8:9b:e2:b0:a8:f7:e3:bc:63:b3:f1:7e:
                    94:0e:86:02:ef:7a:ea:f2:0f:3d:fa:ad:26:6c:65:
                    ac:9c:28:6d:91:b5:9b:bd:fc:18:f9:f4:e2:b1:e6:
                    08:61:dc:18:af:0f:ce:99:90:e7:40:97:d6:91:f1:
                    53:ea:94:66:9a:70:c5:cd:83:52:41:b4:10:b1:2b:
                    3b:bf:4a:29:03:21:b9:b6:4c:bd:b9:87:51:6d:a0:
                    f6:0f:f0:e1:ad:f7:64:02:b6:cc:82:76:37:0d:9e:
                    21:03:47:1c:c8:35:4c:26:ed:05:a4:0b:c5:01:57:
                    c6:39:85:91:ae:13:26:6b:5b:19:bf:88:c1:ef:2e:
                    d2:e2:67:a4:24:fa:af:89:18:30:7c:e3:80:d5:2a:
                    ed:dd:e0:f7:ce:06:60:2c:e4:3e:89:62:0b:f2:48:
                    40:49:4b:79:2c:f9:13:04:9b:a4:89:c9:f7:b9:59:
                    67:b6:ae:6a:fb:1e:59:2c:51:c3:74:24:0c:1b:12:
                    89:2b:25:a8:e4:c5:18:3a:b4:b9:5d:01:6b:ba:65:
                    09:a6:9c:a1:b7:c0:21:67:2c:c4:91:2d:03:ae:90:
                    f0:66:69:0b:de:5a:19:d0:47:ba:3b:12:4e:4e:c9:
                    39:51:45:3e:b9:0e:5b:ca:fa:16:78:14:f5:ed:4e:
                    77:33:cf:3e:64:70:b3:7a:89:61:99:9a:0e:f4:b9:
                    a1:aa:f7:5e:6c:f8:17:3b:2e:57:41:14:08:52:34:
                    81:c4:9a:f0:6f:7d:f9:ac:b9:a3:ae:99:ff:52:3d:
                    87:c4:cd:3a:41:cc:97:fd:e8:75:08:af:73:e9:b3:
                    56:32:da:3f:23:cc:66:42:56:cf:a2:c7:96:40:34:
                    d7:9d:18:87:2f:99:a4:cf:49:50:3a:11:8a:b2:ea:
                    47:eb:2b:8c:db:84:17:87:55:4d:c6:7c:20:c1:9e:
                    1c:2e:01:55:b5:36:26:65:c1:08:ae:52:1e:2f:b8:
                    b5:7b:85:f4:71:9b:30:f7:44:6b:fb:c4:86:bf:70:
                    6b:a2:b2:55:a3:fb:62:19:d4:19:63:36:ab:da:27:
                    e4:d8:3e:93:de:d9:46:86:1a:ce:83:aa:4a:47:75:
                    72:f7:39:14:a1:d3:85:f2:b9:ab:ba:fa:39:c5:29:
                    99:10:3d:b0:d2:4b:05:82:9f:c7:24:97:93:9b:9c:
                    18:76:bb
                Exponent: 65537 (0x10001)
        X509v3 extensions:
            X509v3 Basic Constraints: 
                CA:FALSE
            Netscape Comment: 
                Easy-RSA Generated Certificate
            X509v3 Subject Key Identifier: 
                B0:6F:77:31:68:D2:B8:12:DC:EA:64:FC:DB:AA:5A:7D:B1:90:99:3B
            X509v3 Authority Key Identifier: 
                keyid:12:CD:60:04:D2:A0:80:9E:70:ED:C6:99:B8:7B:2C:C6:52:FD:19:A1
                DirName:/C=US/ST=OH/L=Columbus/O=VikingVPN/OU=MyOrganizationalUnit/CN=VikingVPN CA/name=EasyRSA/emailAddress=me@myhost.mydomain
                serial:CF:35:85:EE:80:BF:2A:3E

            X509v3 Extended Key Usage: 
                TLS Web Client Authentication
            X509v3 Key Usage: 
                Digital Signature
    Signature Algorithm: md5WithRSAEncryption
         e3:6a:54:c2:ea:1e:83:21:6b:71:de:46:6e:13:41:a7:b8:61:
         f6:30:32:a5:fa:a1:5a:7c:8f:0b:7c:30:5d:04:b2:c9:ba:02:
         6e:e8:87:8c:4c:96:9c:04:42:93:bf:9a:18:98:ab:44:9f:62:
         05:c6:5b:b1:36:f8:a0:6e:92:56:d1:62:5e:e7:b3:92:1d:b4:
         58:40:96:c6:9b:a3:f4:f3:53:21:b9:d7:74:6b:e7:27:04:f5:
         23:3e:a9:bd:6b:fc:4d:47:8a:78:b8:17:18:8a:6b:00:3b:0d:
         2d:46:ad:c0:55:79:3a:6a:ec:48:09:a2:9d:01:5b:53:3b:20:
         f7:a4:26:be:6a:e4:88:af:66:af:1a:58:ff:3f:5b:b2:59:e0:
         7f:91:68:b9:7d:6b:40:f6:5c:e8:5b:41:c7:11:9c:35:b3:5e:
         a9:c2:5c:52:c5:e2:07:54:b9:f0:39:90:98:b1:37:9c:6a:45:
         24:b7:8c:95:da:1a:0a:b8:59:4f:b9:d4:75:5c:b2:b8:f7:b1:
         32:4f:e4:5d:e5:0d:9a:ad:61:fe:4d:89:cc:3b:55:93:5a:a1:
         16:1f:61:36:20:0e:30:fa:29:79:28:a9:dc:31:5b:ff:94:38:
         a8:84:39:03:df:6c:79:46:d9:7e:93:62:6f:41:27:1d:bd:bf:
         29:f5:72:0e:e6:b8:0f:f2:6e:57:fb:e8:d5:a8:93:42:c8:e3:
         b8:9b:e8:af:1a:a8:25:84:c0:d9:d3:59:8a:34:aa:f9:39:63:
         df:91:81:50:90:e2:11:14:ba:6b:8a:b4:4d:c5:7f:da:e7:95:
         ee:d1:be:30:83:72:cd:83:c0:94:d1:94:2c:46:dd:bf:bc:f6:
         99:1d:5b:38:88:df:71:a0:82:28:82:9b:ae:69:5c:4a:aa:4f:
         8a:a8:17:2d:71:51:65:95:b0:10:e0:d7:80:7d:28:06:e6:85:
         fb:dd:5c:18:d1:e3:93:d1:c9:af:34:cd:ad:87:f5:e2:0e:04:
         48:80:da:09:30:c8:5d:0a:fd:fd:b6:e7:90:a7:0b:e7:b0:7e:
         8b:eb:e7:aa:75:f0:3b:c5:99:e0:e2:5e:34:10:ab:ed:21:5e:
         4b:d7:63:de:c5:9c:31:b3:31:be:e2:da:5e:20:40:84:a8:5d:
         19:88:b4:74:66:02:a2:cf:ea:90:a7:60:d3:a8:50:95:73:5e:
         40:84:cd:d0:a0:80:57:07:4e:3c:e1:60:51:12:12:2b:9d:f1:
         24:5c:72:0b:01:e7:0e:a5:b9:02:f0:e8:cc:38:f9:6a:57:34:
         7d:76:7b:f9:06:75:0d:c5:c0:e8:1b:90:6a:bf:fd:25:9e:d2:
         9f:4a:fa:db:ff:88:1b:f1
-----BEGIN CERTIFICATE-----
MIIGrDCCBJSgAwIBAgICBgcwDQYJKoZIhvcNAQEEBQAwgawxCzAJBgNVBAYTAlVT
MQswCQYDVQQIEwJPSDERMA8GA1UEBxMIQ29sdW1idXMxEjAQBgNVBAoTCVZpa2lu
Z1ZQTjEdMBsGA1UECxMUTXlPcmdhbml6YXRpb25hbFVuaXQxFTATBgNVBAMTDFZp
a2luZ1ZQTiBDQTEQMA4GA1UEKRMHRWFzeVJTQTEhMB8GCSqGSIb3DQEJARYSbWVA
bXlob3N0Lm15ZG9tYWluMB4XDTE0MDQxMDAxMjA1OVoXDTI0MDQwNzAxMjA1OVow
HjEcMBoGA1UEAxMTQ2xpZW50NTY5Q2VydDNmOTRjMDCCAiIwDQYJKoZIhvcNAQEB
BQADggIPADCCAgoCggIBANT0E8JBFFe8zR4QshgLm9bEZi4RVBC4Mrb50TCFs+zR
0lMidLAudOdHibGawT7QNzT81sCw2EdVWNZbSyMr+JvisKj347xjs/F+lA6GAu96
6vIPPfqtJmxlrJwobZG1m738GPn04rHmCGHcGK8PzpmQ50CX1pHxU+qUZppwxc2D
UkG0ELErO79KKQMhubZMvbmHUW2g9g/w4a33ZAK2zIJ2Nw2eIQNHHMg1TCbtBaQL
xQFXxjmFka4TJmtbGb+Iwe8u0uJnpCT6r4kYMHzjgNUq7d3g984GYCzkPoliC/JI
QElLeSz5EwSbpInJ97lZZ7auavseWSxRw3QkDBsSiSslqOTFGDq0uV0Ba7plCaac
obfAIWcsxJEtA66Q8GZpC95aGdBHujsSTk7JOVFFPrkOW8r6FngU9e1OdzPPPmRw
s3qJYZmaDvS5oar3Xmz4FzsuV0EUCFI0gcSa8G99+ay5o66Z/1I9h8TNOkHMl/3o
dQivc+mzVjLaPyPMZkJWz6LHlkA0150Yhy+ZpM9JUDoRirLqR+srjNuEF4dVTcZ8
IMGeHC4BVbU2JmXBCK5SHi+4tXuF9HGbMPdEa/vEhr9wa6KyVaP7YhnUGWM2q9on
5Ng+k97ZRoYazoOqSkd1cvc5FKHThfK5q7r6OcUpmRA9sNJLBYKfxySXk5ucGHa7
AgMBAAGjggFjMIIBXzAJBgNVHRMEAjAAMC0GCWCGSAGG+EIBDQQgFh5FYXN5LVJT
QSBHZW5lcmF0ZWQgQ2VydGlmaWNhdGUwHQYDVR0OBBYEFLBvdzFo0rgS3Opk/Nuq
Wn2xkJk7MIHhBgNVHSMEgdkwgdaAFBLNYATSoICecO3Gmbh7LMZS/RmhoYGypIGv
MIGsMQswCQYDVQQGEwJVUzELMAkGA1UECBMCT0gxETAPBgNVBAcTCENvbHVtYnVz
MRIwEAYDVQQKEwlWaWtpbmdWUE4xHTAbBgNVBAsTFE15T3JnYW5pemF0aW9uYWxV
bml0MRUwEwYDVQQDEwxWaWtpbmdWUE4gQ0ExEDAOBgNVBCkTB0Vhc3lSU0ExITAf
BgkqhkiG9w0BCQEWEm1lQG15aG9zdC5teWRvbWFpboIJAM81he6Avyo+MBMGA1Ud
JQQMMAoGCCsGAQUFBwMCMAsGA1UdDwQEAwIHgDANBgkqhkiG9w0BAQQFAAOCAgEA
42pUwuoegyFrcd5GbhNBp7hh9jAypfqhWnyPC3wwXQSyyboCbuiHjEyWnARCk7+a
GJirRJ9iBcZbsTb4oG6SVtFiXuezkh20WECWxpuj9PNTIbnXdGvnJwT1Iz6pvWv8
TUeKeLgXGIprADsNLUatwFV5OmrsSAminQFbUzsg96QmvmrkiK9mrxpY/z9bslng
f5FouX1rQPZc6FtBxxGcNbNeqcJcUsXiB1S58DmQmLE3nGpFJLeMldoaCrhZT7nU
dVyyuPexMk/kXeUNmq1h/k2JzDtVk1qhFh9hNiAOMPopeSip3DFb/5Q4qIQ5A99s
eUbZfpNib0EnHb2/KfVyDua4D/JuV/vo1aiTQsjjuJvorxqoJYTA2dNZijSq+Tlj
35GBUJDiERS6a4q0TcV/2ueV7tG+MINyzYPAlNGULEbdv7z2mR1bOIjfcaCCKIKb
rmlcSqpPiqgXLXFRZZWwEODXgH0oBuaF+91cGNHjk9HJrzTNrYf14g4ESIDaCTDI
XQr9/bbnkKcL57B+i+vnqnXwO8WZ4OJeNBCr7SFeS9dj3sWcMbMxvuLaXiBAhKhd
GYi0dGYCos/qkKdg06hQlXNeQITN0KCAVwdOPOFgURISK53xJFxyCwHnDqW5AvDo
zDj5alc0fXZ7+QZ1DcXA6BuQar/9JZ7Sn0r62/+IG/E=
-----END CERTIFICATE-----
