Certificate:
    Data:
        Version: 3 (0x2)
        Serial Number: 1550 (0x60e)
    Signature Algorithm: md5WithRSAEncryption
        Issuer: C=US, ST=OH, L=Columbus, O=VikingVPN, OU=MyOrganizationalUnit, CN=VikingVPN CA/name=EasyRSA/emailAddress=me@myhost.mydomain
        Validity
            Not Before: Apr 10 04:13:16 2014 GMT
            Not After : Apr  7 04:13:16 2024 GMT
        Subject: CN=Client470Cert08eece
        Subject Public Key Info:
            Public Key Algorithm: rsaEncryption
                Public-Key: (4096 bit)
                Modulus:
                    00:ab:9d:35:d8:99:90:22:20:19:02:5f:c9:b3:22:
                    96:48:27:8c:2e:c9:df:7e:2c:fc:55:78:34:7f:9c:
                    7b:3e:ce:17:22:0d:c7:f2:37:8c:3d:1e:81:98:3f:
                    dc:1b:c2:b8:21:64:21:8e:d8:fc:ee:53:39:db:ff:
                    04:d5:2a:c7:3a:84:7b:9b:ae:2b:d4:53:26:42:e2:
                    42:69:38:28:ec:7f:b6:fc:18:47:b6:68:7b:c3:9f:
                    39:0f:24:00:21:46:24:81:a6:af:92:38:9d:fc:30:
                    42:77:91:75:68:49:4d:7a:2d:13:89:98:7c:37:0f:
                    70:47:91:2e:b9:75:0d:66:ba:fe:52:77:01:9e:24:
                    a2:d7:68:25:15:2f:fe:b0:bf:49:0e:6b:17:15:c1:
                    4b:0b:9d:1e:88:df:c4:40:d5:70:df:cb:57:93:dc:
                    95:54:c9:c6:9e:a9:50:38:e1:5b:f1:94:59:75:92:
                    2a:ab:86:e2:a0:d7:79:c3:14:4f:48:b7:bb:18:ed:
                    e2:01:40:2f:b8:e5:a4:30:cb:c2:ae:bc:e0:a1:a8:
                    e8:87:ea:2d:4c:16:28:50:18:36:c5:7a:6e:f4:42:
                    dd:f6:9c:00:a2:31:9c:c9:0b:4d:f1:77:d3:bf:92:
                    a8:24:26:89:3a:0c:aa:b1:09:40:e1:c1:c5:a6:ed:
                    1f:62:bc:ef:86:d1:5f:20:8c:ae:50:a2:72:78:a2:
                    76:4f:03:40:9a:75:46:9f:d9:4e:98:7c:7f:3c:c6:
                    51:c3:78:29:39:c1:6b:6f:7a:89:fd:8e:5e:0f:51:
                    4d:2e:e6:2a:2c:9b:1d:6a:e9:63:f6:74:d2:ec:51:
                    af:5e:22:d4:7a:ed:1d:b5:3f:19:e9:fd:a7:de:11:
                    63:c8:82:ea:cf:74:0a:31:15:21:aa:b8:11:8e:5f:
                    0c:72:c3:fe:c5:d3:6d:0d:07:83:f8:ac:47:76:3d:
                    94:4a:4e:69:1e:e6:0a:07:0e:b5:09:d2:49:d5:13:
                    40:60:d3:70:c3:7d:63:19:86:64:23:73:87:da:83:
                    d1:a0:63:8d:0f:bc:15:a0:ed:e8:3a:21:65:f9:e8:
                    6b:45:ec:67:b5:0f:50:73:20:bf:c1:da:78:c3:b5:
                    ed:b1:8c:22:df:97:e4:49:fa:ef:ec:dd:df:51:87:
                    3f:54:24:96:57:de:4f:0a:80:fa:2c:3b:bf:54:f3:
                    b4:17:fa:40:5b:53:3c:73:49:60:ef:ee:1e:1b:49:
                    5e:32:73:87:6a:69:0b:26:d6:08:e1:4a:f7:9b:40:
                    4b:d2:8b:df:65:0e:0d:2d:33:ce:7d:02:10:f1:72:
                    2a:16:1f:b3:23:42:1e:2d:a8:b3:5e:37:f0:19:e4:
                    4d:c7:9d
                Exponent: 65537 (0x10001)
        X509v3 extensions:
            X509v3 Basic Constraints: 
                CA:FALSE
            Netscape Comment: 
                Easy-RSA Generated Certificate
            X509v3 Subject Key Identifier: 
                C8:A5:BA:C5:6A:72:44:ED:E2:EA:68:0C:00:2B:9F:84:90:71:76:9D
            X509v3 Authority Key Identifier: 
                keyid:12:CD:60:04:D2:A0:80:9E:70:ED:C6:99:B8:7B:2C:C6:52:FD:19:A1
                DirName:/C=US/ST=OH/L=Columbus/O=VikingVPN/OU=MyOrganizationalUnit/CN=VikingVPN CA/name=EasyRSA/emailAddress=me@myhost.mydomain
                serial:CF:35:85:EE:80:BF:2A:3E

            X509v3 Extended Key Usage: 
                TLS Web Client Authentication
            X509v3 Key Usage: 
                Digital Signature
    Signature Algorithm: md5WithRSAEncryption
         06:57:b7:77:51:ad:e0:ea:01:5d:db:9d:e7:39:0b:93:d7:13:
         06:85:7a:b3:93:db:ce:a6:17:ab:92:d5:a5:a3:61:77:fd:63:
         93:60:ba:a7:da:43:b4:ed:91:1b:ed:3f:d6:c1:1a:7f:e8:94:
         a9:c9:49:18:01:1b:b3:e4:df:9f:0b:29:eb:d9:2a:66:00:d7:
         98:70:83:83:1c:06:3d:10:1b:ec:68:95:8e:3f:f0:f8:08:83:
         31:b8:14:0a:c4:c9:42:a1:18:f2:ee:2c:be:ed:f4:3c:b6:10:
         3a:1a:b6:6a:93:a1:0c:87:f2:88:ba:61:23:45:0b:3f:4a:de:
         05:1e:90:68:66:1d:7a:f1:8a:18:65:e9:40:20:b0:ff:12:ae:
         b2:cf:04:47:16:e2:64:2d:07:42:b9:d2:e1:cb:86:96:cf:cd:
         08:8f:fe:36:54:5e:63:73:2f:10:a1:1f:45:c7:15:b5:92:13:
         64:45:ea:23:c9:12:6c:88:ae:b9:b3:e7:2d:05:9e:b5:8d:2b:
         73:7f:9d:84:9c:01:f3:c3:e6:af:e6:4e:8c:a1:06:74:ca:76:
         1b:f6:f6:2c:94:07:f7:ef:f6:1a:37:c9:d3:37:0f:f9:a6:90:
         8a:e4:7a:7b:38:25:1a:2f:fa:3e:b7:49:51:31:28:78:bf:40:
         79:5f:7a:1b:5a:ee:81:b1:01:3c:a4:43:de:15:48:0c:23:b7:
         01:9f:8a:b0:57:b3:0a:1b:24:9f:c5:26:f9:93:5c:05:9c:c7:
         d1:24:34:0b:59:6d:c4:40:37:47:90:8d:9c:d3:11:9f:64:49:
         4b:40:17:9d:03:70:37:7d:c8:0b:28:ea:29:db:2d:fc:94:1b:
         1b:4d:d1:26:6b:be:70:23:cc:bd:59:c4:39:7e:04:68:11:1b:
         ca:6a:92:b7:7b:a3:fb:81:a9:23:08:47:9c:5a:e2:d6:71:cf:
         ec:3e:b3:56:4c:b7:83:a0:2c:9f:83:a2:35:90:d1:ff:f1:0a:
         61:58:aa:9b:a6:e2:ee:f4:5e:39:a6:8b:62:f9:5e:17:c2:b5:
         97:8c:78:ca:f0:19:bf:94:c1:a7:d0:f6:71:0b:09:ea:29:0d:
         ea:bc:4f:a3:cf:47:a1:5f:29:3e:75:ce:45:47:e2:8f:76:92:
         f3:f0:74:44:f8:34:81:41:e6:51:34:22:7d:a9:17:3a:de:f5:
         42:3d:ff:b8:2c:e4:b9:7a:a7:81:fa:6e:76:c2:5b:79:f4:c0:
         ee:1d:5a:36:e5:ee:d3:52:1c:6b:50:d8:c9:b3:98:74:ce:49:
         2a:56:cd:de:3a:4b:6e:3f:b4:62:68:3c:b7:27:4d:ad:59:54:
         44:9b:e9:e0:c6:ab:f0:f7
-----BEGIN CERTIFICATE-----
MIIGrDCCBJSgAwIBAgICBg4wDQYJKoZIhvcNAQEEBQAwgawxCzAJBgNVBAYTAlVT
MQswCQYDVQQIEwJPSDERMA8GA1UEBxMIQ29sdW1idXMxEjAQBgNVBAoTCVZpa2lu
Z1ZQTjEdMBsGA1UECxMUTXlPcmdhbml6YXRpb25hbFVuaXQxFTATBgNVBAMTDFZp
a2luZ1ZQTiBDQTEQMA4GA1UEKRMHRWFzeVJTQTEhMB8GCSqGSIb3DQEJARYSbWVA
bXlob3N0Lm15ZG9tYWluMB4XDTE0MDQxMDA0MTMxNloXDTI0MDQwNzA0MTMxNlow
HjEcMBoGA1UEAxMTQ2xpZW50NDcwQ2VydDA4ZWVjZTCCAiIwDQYJKoZIhvcNAQEB
BQADggIPADCCAgoCggIBAKudNdiZkCIgGQJfybMilkgnjC7J334s/FV4NH+cez7O
FyINx/I3jD0egZg/3BvCuCFkIY7Y/O5TOdv/BNUqxzqEe5uuK9RTJkLiQmk4KOx/
tvwYR7Zoe8OfOQ8kACFGJIGmr5I4nfwwQneRdWhJTXotE4mYfDcPcEeRLrl1DWa6
/lJ3AZ4kotdoJRUv/rC/SQ5rFxXBSwudHojfxEDVcN/LV5PclVTJxp6pUDjhW/GU
WXWSKquG4qDXecMUT0i3uxjt4gFAL7jlpDDLwq684KGo6IfqLUwWKFAYNsV6bvRC
3facAKIxnMkLTfF307+SqCQmiToMqrEJQOHBxabtH2K874bRXyCMrlCicniidk8D
QJp1Rp/ZTph8fzzGUcN4KTnBa296if2OXg9RTS7mKiybHWrpY/Z00uxRr14i1Hrt
HbU/Gen9p94RY8iC6s90CjEVIaq4EY5fDHLD/sXTbQ0Hg/isR3Y9lEpOaR7mCgcO
tQnSSdUTQGDTcMN9YxmGZCNzh9qD0aBjjQ+8FaDt6DohZfnoa0XsZ7UPUHMgv8Ha
eMO17bGMIt+X5En67+zd31GHP1QkllfeTwqA+iw7v1TztBf6QFtTPHNJYO/uHhtJ
XjJzh2ppCybWCOFK95tAS9KL32UODS0zzn0CEPFyKhYfsyNCHi2os1438BnkTced
AgMBAAGjggFjMIIBXzAJBgNVHRMEAjAAMC0GCWCGSAGG+EIBDQQgFh5FYXN5LVJT
QSBHZW5lcmF0ZWQgQ2VydGlmaWNhdGUwHQYDVR0OBBYEFMilusVqckTt4upoDAAr
n4SQcXadMIHhBgNVHSMEgdkwgdaAFBLNYATSoICecO3Gmbh7LMZS/RmhoYGypIGv
MIGsMQswCQYDVQQGEwJVUzELMAkGA1UECBMCT0gxETAPBgNVBAcTCENvbHVtYnVz
MRIwEAYDVQQKEwlWaWtpbmdWUE4xHTAbBgNVBAsTFE15T3JnYW5pemF0aW9uYWxV
bml0MRUwEwYDVQQDEwxWaWtpbmdWUE4gQ0ExEDAOBgNVBCkTB0Vhc3lSU0ExITAf
BgkqhkiG9w0BCQEWEm1lQG15aG9zdC5teWRvbWFpboIJAM81he6Avyo+MBMGA1Ud
JQQMMAoGCCsGAQUFBwMCMAsGA1UdDwQEAwIHgDANBgkqhkiG9w0BAQQFAAOCAgEA
Ble3d1Gt4OoBXdud5zkLk9cTBoV6s5PbzqYXq5LVpaNhd/1jk2C6p9pDtO2RG+0/
1sEaf+iUqclJGAEbs+Tfnwsp69kqZgDXmHCDgxwGPRAb7GiVjj/w+AiDMbgUCsTJ
QqEY8u4svu30PLYQOhq2apOhDIfyiLphI0ULP0reBR6QaGYdevGKGGXpQCCw/xKu
ss8ERxbiZC0HQrnS4cuGls/NCI/+NlReY3MvEKEfRccVtZITZEXqI8kSbIiuubPn
LQWetY0rc3+dhJwB88Pmr+ZOjKEGdMp2G/b2LJQH9+/2GjfJ0zcP+aaQiuR6ezgl
Gi/6PrdJUTEoeL9AeV96G1rugbEBPKRD3hVIDCO3AZ+KsFezChskn8Um+ZNcBZzH
0SQ0C1ltxEA3R5CNnNMRn2RJS0AXnQNwN33ICyjqKdst/JQbG03RJmu+cCPMvVnE
OX4EaBEbymqSt3uj+4GpIwhHnFri1nHP7D6zVky3g6Asn4OiNZDR//EKYViqm6bi
7vReOaaLYvleF8K1l4x4yvAZv5TBp9D2cQsJ6ikN6rxPo89HoV8pPnXORUfij3aS
8/B0RPg0gUHmUTQifakXOt71Qj3/uCzkuXqngfpudsJbefTA7h1aNuXu01Ica1DY
ybOYdM5JKlbN3jpLbj+0Ymg8tydNrVlURJvp4Mar8Pc=
-----END CERTIFICATE-----
