Certificate:
    Data:
        Version: 3 (0x2)
        Serial Number: 1554 (0x612)
    Signature Algorithm: md5WithRSAEncryption
        Issuer: C=US, ST=OH, L=Columbus, O=VikingVPN, OU=MyOrganizationalUnit, CN=VikingVPN CA/name=EasyRSA/emailAddress=me@myhost.mydomain
        Validity
            Not Before: Apr 10 17:54:26 2014 GMT
            Not After : Apr  7 17:54:26 2024 GMT
        Subject: CN=Client561Cert110dde
        Subject Public Key Info:
            Public Key Algorithm: rsaEncryption
                Public-Key: (4096 bit)
                Modulus:
                    00:d0:49:e9:f4:9d:9f:97:31:3c:bb:28:76:e8:96:
                    c3:4f:c6:1f:19:a8:04:03:46:6f:ca:3c:4f:72:66:
                    59:b7:18:e8:2a:73:7d:d7:1b:65:d3:6f:99:98:29:
                    93:f6:3b:f4:78:64:8f:d1:1a:84:1b:fb:fe:14:24:
                    5a:8d:53:47:75:33:b0:a8:8a:9a:5b:c1:25:5a:d9:
                    e0:89:a4:ba:4b:fa:2d:4a:c4:c4:17:59:38:65:6a:
                    11:4c:87:50:7d:fe:dc:1c:73:c8:6d:87:e4:97:06:
                    d1:15:9f:90:ef:af:0e:ab:fb:3f:7c:37:a5:eb:83:
                    8e:da:03:9e:f3:1a:29:18:32:a4:27:67:83:41:06:
                    88:b8:31:16:8a:c8:6e:74:d1:5e:67:d0:7a:e3:5f:
                    78:26:c3:a7:aa:48:6f:c2:e4:2b:74:a6:49:ea:d6:
                    d8:24:9d:3a:d3:ae:ab:55:7f:f4:be:23:d9:b8:62:
                    3a:96:49:5c:cd:c1:63:bf:e5:de:f9:24:c1:f5:a1:
                    c2:cb:e4:79:6b:69:4f:3b:fb:3f:45:d8:da:09:8d:
                    27:e0:48:8d:aa:5a:32:68:c4:8d:fc:f2:38:26:b9:
                    c7:c5:b0:4d:32:f2:e8:d7:ff:a1:17:21:d8:00:40:
                    2d:42:52:f3:97:14:85:c3:3b:5b:af:8e:d0:76:e6:
                    78:2b:c4:e2:bf:1b:a7:b8:b4:d5:6f:08:c1:e4:ae:
                    fb:aa:f1:94:66:de:cd:f0:d5:2c:66:f3:b8:08:6e:
                    c3:28:55:81:67:62:8c:c2:a2:f3:8a:f0:ba:54:76:
                    6a:31:66:64:d4:f1:16:9d:39:8d:fb:21:7e:d6:27:
                    ae:9b:45:9e:b3:57:01:46:44:f5:60:60:dc:6a:d0:
                    e1:dd:b6:73:6f:e3:ee:50:b3:30:8e:58:d9:cc:ae:
                    e5:9c:65:bc:34:05:98:72:70:9d:92:f5:fa:bc:19:
                    88:5b:4a:95:53:97:bd:a9:1f:0f:99:5a:ff:16:c8:
                    2c:9f:63:88:88:94:bd:f2:10:a1:45:47:fd:1b:ed:
                    0c:98:8c:be:13:de:f2:16:77:78:5b:ef:20:4a:24:
                    de:64:e9:c2:39:01:04:9a:e0:c7:b6:6f:51:9b:3b:
                    e3:c5:17:e0:f9:33:29:41:90:33:2c:27:79:ea:09:
                    f1:7f:95:20:95:d4:28:55:72:ee:89:16:b6:f3:a7:
                    cc:99:4d:9e:e2:0f:7a:4a:53:fd:a1:24:ca:28:f9:
                    d9:7d:2a:a0:ef:5e:bf:4c:61:cd:7d:02:0d:16:38:
                    fd:f8:58:4b:1d:df:8a:b5:5c:d1:d1:16:08:52:23:
                    8a:b0:ca:dc:49:ac:0b:18:71:ab:85:0b:83:22:19:
                    a4:3d:5f
                Exponent: 65537 (0x10001)
        X509v3 extensions:
            X509v3 Basic Constraints: 
                CA:FALSE
            Netscape Comment: 
                Easy-RSA Generated Certificate
            X509v3 Subject Key Identifier: 
                1E:14:06:FB:7A:67:70:3F:49:2A:15:BC:41:97:33:26:0D:52:62:6B
            X509v3 Authority Key Identifier: 
                keyid:12:CD:60:04:D2:A0:80:9E:70:ED:C6:99:B8:7B:2C:C6:52:FD:19:A1
                DirName:/C=US/ST=OH/L=Columbus/O=VikingVPN/OU=MyOrganizationalUnit/CN=VikingVPN CA/name=EasyRSA/emailAddress=me@myhost.mydomain
                serial:CF:35:85:EE:80:BF:2A:3E

            X509v3 Extended Key Usage: 
                TLS Web Client Authentication
            X509v3 Key Usage: 
                Digital Signature
    Signature Algorithm: md5WithRSAEncryption
         6c:5d:48:c7:3c:22:97:a8:56:31:07:a3:9d:2d:15:35:29:2c:
         f3:c6:83:6f:d6:cf:75:34:c6:82:e9:57:7d:14:db:b3:f8:f5:
         a4:3d:a5:1c:9d:c9:55:b4:6a:a9:eb:50:76:a4:4b:a7:51:42:
         eb:b7:77:14:f4:a6:b9:22:09:78:3d:de:88:2b:a7:2e:79:f2:
         7a:c5:d6:5b:24:26:e7:63:68:58:56:06:9a:e3:13:cb:41:ea:
         7c:e8:8c:e0:38:33:60:60:3d:ca:2a:a8:b8:a2:98:0f:a8:7a:
         c5:70:04:ec:f4:9d:3c:06:0f:91:6c:9e:da:45:32:b7:40:11:
         63:97:6a:55:4b:b1:0f:95:b6:de:25:a4:93:44:4d:bc:42:fe:
         40:5e:18:6a:df:e2:d9:05:5a:4e:64:7b:55:7f:ab:0d:95:48:
         41:72:64:3d:2f:c9:15:39:ab:35:2d:83:17:a6:95:4a:5d:53:
         2b:a1:90:47:4b:37:4b:6f:6a:a9:e8:01:c8:37:ef:b2:de:32:
         dc:74:7b:81:a1:fa:e6:46:9d:35:cd:e9:35:6f:24:e0:30:66:
         34:5b:27:e0:b3:ff:5b:7d:c0:79:e5:7f:6d:78:55:f7:af:4e:
         ce:ce:e8:1c:8e:0b:35:2f:b8:bd:d6:4b:e2:1d:20:16:a6:ec:
         ce:64:d7:b3:fe:6d:9b:31:1e:e7:88:d7:d8:99:4e:d0:7f:3b:
         cd:69:fb:24:c6:65:da:8c:0a:a6:65:6a:19:69:a4:df:d6:a1:
         20:06:d7:f5:a1:e2:e3:8d:fd:79:a1:65:69:cb:d2:f3:4c:9e:
         89:c1:0d:fc:d3:98:c5:18:64:fd:0c:97:19:17:af:77:9d:d5:
         e8:15:3f:cb:92:16:10:ad:0f:9d:9a:a0:40:1b:11:4f:60:59:
         55:c4:94:8a:88:87:65:99:7a:71:86:1e:8a:b4:cb:cd:1d:36:
         20:6c:b2:06:f1:49:b7:8f:c9:99:5d:93:46:6a:eb:ab:ba:11:
         91:4f:41:1b:e5:82:59:2e:fe:74:b4:fe:ca:26:4f:f6:01:5c:
         7b:c1:09:63:ef:30:77:04:c0:b8:f7:7f:f1:86:31:f1:b6:ea:
         7c:b1:af:97:c1:70:b3:2c:e6:2c:82:3f:e5:c9:8a:5c:75:dd:
         6a:d3:85:8c:94:0e:3c:25:62:63:df:55:2c:51:79:76:35:81:
         4e:58:e2:5c:87:23:7b:fa:9e:cd:2d:97:86:48:7a:1b:f1:a7:
         82:c0:39:9a:59:20:fc:e2:1f:58:81:ad:a7:e6:c0:31:f9:fc:
         7e:fd:60:dd:39:9b:35:f1:34:6d:6a:c4:8d:43:c5:9e:b3:c2:
         3a:ae:92:81:ab:d7:4d:0e
-----BEGIN CERTIFICATE-----
MIIGrDCCBJSgAwIBAgICBhIwDQYJKoZIhvcNAQEEBQAwgawxCzAJBgNVBAYTAlVT
MQswCQYDVQQIEwJPSDERMA8GA1UEBxMIQ29sdW1idXMxEjAQBgNVBAoTCVZpa2lu
Z1ZQTjEdMBsGA1UECxMUTXlPcmdhbml6YXRpb25hbFVuaXQxFTATBgNVBAMTDFZp
a2luZ1ZQTiBDQTEQMA4GA1UEKRMHRWFzeVJTQTEhMB8GCSqGSIb3DQEJARYSbWVA
bXlob3N0Lm15ZG9tYWluMB4XDTE0MDQxMDE3NTQyNloXDTI0MDQwNzE3NTQyNlow
HjEcMBoGA1UEAxMTQ2xpZW50NTYxQ2VydDExMGRkZTCCAiIwDQYJKoZIhvcNAQEB
BQADggIPADCCAgoCggIBANBJ6fSdn5cxPLsoduiWw0/GHxmoBANGb8o8T3JmWbcY
6CpzfdcbZdNvmZgpk/Y79Hhkj9EahBv7/hQkWo1TR3UzsKiKmlvBJVrZ4Imkukv6
LUrExBdZOGVqEUyHUH3+3BxzyG2H5JcG0RWfkO+vDqv7P3w3peuDjtoDnvMaKRgy
pCdng0EGiLgxForIbnTRXmfQeuNfeCbDp6pIb8LkK3SmSerW2CSdOtOuq1V/9L4j
2bhiOpZJXM3BY7/l3vkkwfWhwsvkeWtpTzv7P0XY2gmNJ+BIjapaMmjEjfzyOCa5
x8WwTTLy6Nf/oRch2ABALUJS85cUhcM7W6+O0HbmeCvE4r8bp7i01W8IweSu+6rx
lGbezfDVLGbzuAhuwyhVgWdijMKi84rwulR2ajFmZNTxFp05jfshftYnrptFnrNX
AUZE9WBg3GrQ4d22c2/j7lCzMI5Y2cyu5ZxlvDQFmHJwnZL1+rwZiFtKlVOXvakf
D5la/xbILJ9jiIiUvfIQoUVH/RvtDJiMvhPe8hZ3eFvvIEok3mTpwjkBBJrgx7Zv
UZs748UX4PkzKUGQMywneeoJ8X+VIJXUKFVy7okWtvOnzJlNnuIPekpT/aEkyij5
2X0qoO9ev0xhzX0CDRY4/fhYSx3firVc0dEWCFIjirDK3EmsCxhxq4ULgyIZpD1f
AgMBAAGjggFjMIIBXzAJBgNVHRMEAjAAMC0GCWCGSAGG+EIBDQQgFh5FYXN5LVJT
QSBHZW5lcmF0ZWQgQ2VydGlmaWNhdGUwHQYDVR0OBBYEFB4UBvt6Z3A/SSoVvEGX
MyYNUmJrMIHhBgNVHSMEgdkwgdaAFBLNYATSoICecO3Gmbh7LMZS/RmhoYGypIGv
MIGsMQswCQYDVQQGEwJVUzELMAkGA1UECBMCT0gxETAPBgNVBAcTCENvbHVtYnVz
MRIwEAYDVQQKEwlWaWtpbmdWUE4xHTAbBgNVBAsTFE15T3JnYW5pemF0aW9uYWxV
bml0MRUwEwYDVQQDEwxWaWtpbmdWUE4gQ0ExEDAOBgNVBCkTB0Vhc3lSU0ExITAf
BgkqhkiG9w0BCQEWEm1lQG15aG9zdC5teWRvbWFpboIJAM81he6Avyo+MBMGA1Ud
JQQMMAoGCCsGAQUFBwMCMAsGA1UdDwQEAwIHgDANBgkqhkiG9w0BAQQFAAOCAgEA
bF1Ixzwil6hWMQejnS0VNSks88aDb9bPdTTGgulXfRTbs/j1pD2lHJ3JVbRqqetQ
dqRLp1FC67d3FPSmuSIJeD3eiCunLnnyesXWWyQm52NoWFYGmuMTy0HqfOiM4Dgz
YGA9yiqouKKYD6h6xXAE7PSdPAYPkWye2kUyt0ARY5dqVUuxD5W23iWkk0RNvEL+
QF4Yat/i2QVaTmR7VX+rDZVIQXJkPS/JFTmrNS2DF6aVSl1TK6GQR0s3S29qqegB
yDfvst4y3HR7gaH65kadNc3pNW8k4DBmNFsn4LP/W33AeeV/bXhV969Ozs7oHI4L
NS+4vdZL4h0gFqbszmTXs/5tmzEe54jX2JlO0H87zWn7JMZl2owKpmVqGWmk39ah
IAbX9aHi4439eaFlacvS80yeicEN/NOYxRhk/QyXGRevd53V6BU/y5IWEK0PnZqg
QBsRT2BZVcSUioiHZZl6cYYeirTLzR02IGyyBvFJt4/JmV2TRmrrq7oRkU9BG+WC
WS7+dLT+yiZP9gFce8EJY+8wdwTAuPd/8YYx8bbqfLGvl8FwsyzmLII/5cmKXHXd
atOFjJQOPCViY99VLFF5djWBTljiXIcje/qezS2Xhkh6G/GngsA5mlkg/OIfWIGt
p+bAMfn8fv1g3TmbNfE0bWrEjUPFnrPCOq6SgavXTQ4=
-----END CERTIFICATE-----
