Certificate:
    Data:
        Version: 3 (0x2)
        Serial Number: 1556 (0x614)
    Signature Algorithm: md5WithRSAEncryption
        Issuer: C=US, ST=OH, L=Columbus, O=VikingVPN, OU=MyOrganizationalUnit, CN=VikingVPN CA/name=EasyRSA/emailAddress=me@myhost.mydomain
        Validity
            Not Before: Apr 10 18:11:54 2014 GMT
            Not After : Apr  7 18:11:54 2024 GMT
        Subject: CN=Client109Cert8b292d
        Subject Public Key Info:
            Public Key Algorithm: rsaEncryption
                Public-Key: (4096 bit)
                Modulus:
                    00:b2:1a:83:eb:7f:ca:4c:ee:53:1e:6a:80:ed:8c:
                    de:e6:81:79:80:dd:f4:c1:44:a3:4f:46:4c:19:0e:
                    5e:76:dd:70:00:24:ff:e4:17:dc:03:c3:37:e6:b4:
                    6b:fc:00:ad:76:ed:75:cb:ce:63:1d:5d:bb:61:52:
                    fb:de:2d:06:f1:74:19:58:19:60:ca:64:aa:58:c0:
                    ae:01:9c:6f:67:7a:b5:23:b0:7e:0f:0e:20:36:82:
                    3b:f4:9f:ae:e3:26:c3:f1:40:f3:58:42:0e:9a:bf:
                    59:eb:5f:1f:9c:d3:f4:02:bb:86:2a:32:23:dc:62:
                    ab:8f:fa:bb:e9:c6:09:ed:aa:48:8b:b8:30:41:9f:
                    61:22:cb:67:ba:ea:0d:d2:c2:34:6c:46:d9:05:da:
                    a2:13:bb:32:42:4b:78:8d:ba:d3:9a:45:30:d2:43:
                    93:ea:e6:ad:1d:5d:c8:6c:b2:af:e7:15:86:e9:f3:
                    65:4b:f2:a3:4d:1e:8e:6e:c3:19:33:58:97:be:3c:
                    a9:6b:25:7f:f6:1b:47:d1:cd:f7:17:9b:7c:91:bc:
                    c1:38:4d:75:06:36:30:31:e5:9b:4c:32:97:83:74:
                    4f:07:50:a8:82:5e:4b:4b:59:5e:fe:4a:28:db:e9:
                    8e:5d:93:07:a5:92:e2:97:2d:90:5c:cc:5a:fa:54:
                    2a:d5:2c:c3:1d:c8:2d:74:4b:db:6b:40:52:eb:62:
                    0b:7a:52:03:40:29:45:dc:d2:93:86:f5:33:ba:e9:
                    28:52:84:a6:72:b5:25:38:9a:c3:46:96:6c:80:6c:
                    da:7e:5a:6b:93:f5:e6:47:45:28:65:fa:13:12:5a:
                    c4:be:4b:64:e5:4a:6d:06:a3:52:9e:b4:90:19:d0:
                    3d:1a:2c:1e:ec:86:1b:d4:b1:3d:24:4d:0b:43:48:
                    17:33:c9:d5:bb:73:cb:c5:ed:69:55:32:d2:e4:c1:
                    22:72:69:05:0c:d7:63:f6:a2:86:ad:60:b5:d8:41:
                    c6:cc:7a:a6:c1:ed:19:87:c0:03:ab:c5:df:49:21:
                    f6:03:fc:e9:c7:ea:14:a3:f4:35:ab:7c:c5:b6:83:
                    57:d2:4c:ed:ee:03:8e:a6:ed:08:d5:42:71:27:1f:
                    3d:4b:49:81:b9:a1:a6:f8:87:97:fb:06:7a:f0:b1:
                    e4:82:33:fb:eb:43:72:6d:07:64:5b:1e:f6:4a:5e:
                    28:47:a9:a9:d5:62:bd:40:3a:06:b7:9f:65:9e:fd:
                    56:d5:26:9c:92:c7:ad:98:d7:7e:bb:46:54:9a:c3:
                    de:b4:6e:30:6b:0e:f1:55:ba:6a:8d:6c:3e:5c:00:
                    c2:ea:c5:6f:5f:ca:0a:1e:1a:a6:11:4f:d3:31:f9:
                    79:e7:cf
                Exponent: 65537 (0x10001)
        X509v3 extensions:
            X509v3 Basic Constraints: 
                CA:FALSE
            Netscape Comment: 
                Easy-RSA Generated Certificate
            X509v3 Subject Key Identifier: 
                39:EF:7F:64:4D:B8:EE:94:D5:27:36:5A:81:D9:1E:34:E5:72:E4:5E
            X509v3 Authority Key Identifier: 
                keyid:12:CD:60:04:D2:A0:80:9E:70:ED:C6:99:B8:7B:2C:C6:52:FD:19:A1
                DirName:/C=US/ST=OH/L=Columbus/O=VikingVPN/OU=MyOrganizationalUnit/CN=VikingVPN CA/name=EasyRSA/emailAddress=me@myhost.mydomain
                serial:CF:35:85:EE:80:BF:2A:3E

            X509v3 Extended Key Usage: 
                TLS Web Client Authentication
            X509v3 Key Usage: 
                Digital Signature
    Signature Algorithm: md5WithRSAEncryption
         12:ed:19:30:5a:97:7d:ae:45:31:96:39:ea:63:cb:47:36:bd:
         47:51:7c:7f:3d:65:15:cb:1b:7d:9d:c1:f1:50:35:9f:ff:cb:
         87:8b:6d:49:24:11:7d:2a:cd:4b:a5:50:52:01:46:ad:e2:a7:
         3b:9f:b5:f5:95:10:97:d9:e3:79:f0:0c:a4:c4:bb:7e:7c:05:
         58:28:27:9c:f2:26:9d:3b:71:0d:a9:d7:3f:5d:b6:aa:ed:29:
         c2:8d:b1:e5:fc:26:cf:99:99:73:74:fc:25:43:d8:dd:a3:36:
         1f:4c:69:22:5a:ba:17:ad:2d:c3:e3:a1:b5:ad:05:24:05:c9:
         ab:d3:c2:36:63:ec:82:5a:b4:b7:3d:d1:4d:4f:d9:e7:63:bd:
         cc:18:cb:3e:75:9c:cc:76:5f:58:f3:ac:8e:58:28:40:a5:34:
         7b:0f:ea:b0:40:31:14:6c:f5:57:79:2c:15:4e:06:a3:65:a0:
         15:59:57:43:e3:4a:cb:b5:dd:fb:81:45:9c:82:33:92:88:23:
         53:49:03:ce:34:ef:65:af:aa:81:8e:3d:c0:42:d0:61:7b:74:
         68:22:2a:0d:fc:f4:b0:b5:51:7e:60:b2:11:6a:d5:eb:1c:67:
         03:a8:f0:d1:3e:5e:61:d1:b2:a6:9e:94:2c:7c:bf:d8:a5:e4:
         34:8d:a2:3c:19:d2:58:dc:9c:57:24:51:22:ad:71:fb:9e:c5:
         93:87:77:ec:6a:f7:d5:21:c5:41:41:f8:39:bd:95:d9:6d:27:
         5c:9a:46:d6:60:b2:c5:8d:f8:1d:2b:e3:01:db:bf:83:78:13:
         7e:88:ce:cb:cb:f5:2b:f7:c3:18:7c:66:5b:bc:4f:f8:d9:4e:
         c0:a4:48:f5:9e:1f:7e:22:70:ee:6b:20:69:24:e6:6e:a1:f9:
         77:82:51:b9:f2:bb:37:bf:b4:b8:79:bb:6b:58:78:1f:a8:78:
         37:7a:73:b5:e3:c4:84:75:5b:e4:87:b8:04:89:9e:a3:34:07:
         a9:65:af:8f:fa:89:ac:5f:3d:71:99:7b:07:a3:c3:ff:49:47:
         91:32:0c:5e:e3:f7:25:9f:bb:28:23:c7:04:8a:a0:9e:92:f1:
         6d:6b:65:b9:25:f6:8f:45:15:bf:e3:be:7c:05:96:96:fc:fb:
         20:a0:9b:3f:5f:3b:99:81:61:bd:6b:51:75:80:cf:84:53:f3:
         45:22:a6:76:3f:c9:b6:e2:0b:b8:a9:e2:5f:99:12:2b:7e:61:
         82:ed:16:69:43:f9:f9:e3:91:09:69:0c:00:68:07:d6:1b:95:
         e0:c9:d7:d7:ef:a0:e4:d4:6f:b0:0d:f6:7e:70:60:ef:21:b4:
         2c:1e:b1:89:cd:fc:05:e9
-----BEGIN CERTIFICATE-----
MIIGrDCCBJSgAwIBAgICBhQwDQYJKoZIhvcNAQEEBQAwgawxCzAJBgNVBAYTAlVT
MQswCQYDVQQIEwJPSDERMA8GA1UEBxMIQ29sdW1idXMxEjAQBgNVBAoTCVZpa2lu
Z1ZQTjEdMBsGA1UECxMUTXlPcmdhbml6YXRpb25hbFVuaXQxFTATBgNVBAMTDFZp
a2luZ1ZQTiBDQTEQMA4GA1UEKRMHRWFzeVJTQTEhMB8GCSqGSIb3DQEJARYSbWVA
bXlob3N0Lm15ZG9tYWluMB4XDTE0MDQxMDE4MTE1NFoXDTI0MDQwNzE4MTE1NFow
HjEcMBoGA1UEAxMTQ2xpZW50MTA5Q2VydDhiMjkyZDCCAiIwDQYJKoZIhvcNAQEB
BQADggIPADCCAgoCggIBALIag+t/ykzuUx5qgO2M3uaBeYDd9MFEo09GTBkOXnbd
cAAk/+QX3APDN+a0a/wArXbtdcvOYx1du2FS+94tBvF0GVgZYMpkqljArgGcb2d6
tSOwfg8OIDaCO/SfruMmw/FA81hCDpq/WetfH5zT9AK7hioyI9xiq4/6u+nGCe2q
SIu4MEGfYSLLZ7rqDdLCNGxG2QXaohO7MkJLeI2605pFMNJDk+rmrR1dyGyyr+cV
hunzZUvyo00ejm7DGTNYl748qWslf/YbR9HN9xebfJG8wThNdQY2MDHlm0wyl4N0
TwdQqIJeS0tZXv5KKNvpjl2TB6WS4pctkFzMWvpUKtUswx3ILXRL22tAUutiC3pS
A0ApRdzSk4b1M7rpKFKEpnK1JTiaw0aWbIBs2n5aa5P15kdFKGX6ExJaxL5LZOVK
bQajUp60kBnQPRosHuyGG9SxPSRNC0NIFzPJ1btzy8XtaVUy0uTBInJpBQzXY/ai
hq1gtdhBxsx6psHtGYfAA6vF30kh9gP86cfqFKP0Nat8xbaDV9JM7e4DjqbtCNVC
cScfPUtJgbmhpviHl/sGevCx5IIz++tDcm0HZFse9kpeKEepqdVivUA6BrefZZ79
VtUmnJLHrZjXfrtGVJrD3rRuMGsO8VW6ao1sPlwAwurFb1/KCh4aphFP0zH5eefP
AgMBAAGjggFjMIIBXzAJBgNVHRMEAjAAMC0GCWCGSAGG+EIBDQQgFh5FYXN5LVJT
QSBHZW5lcmF0ZWQgQ2VydGlmaWNhdGUwHQYDVR0OBBYEFDnvf2RNuO6U1Sc2WoHZ
HjTlcuReMIHhBgNVHSMEgdkwgdaAFBLNYATSoICecO3Gmbh7LMZS/RmhoYGypIGv
MIGsMQswCQYDVQQGEwJVUzELMAkGA1UECBMCT0gxETAPBgNVBAcTCENvbHVtYnVz
MRIwEAYDVQQKEwlWaWtpbmdWUE4xHTAbBgNVBAsTFE15T3JnYW5pemF0aW9uYWxV
bml0MRUwEwYDVQQDEwxWaWtpbmdWUE4gQ0ExEDAOBgNVBCkTB0Vhc3lSU0ExITAf
BgkqhkiG9w0BCQEWEm1lQG15aG9zdC5teWRvbWFpboIJAM81he6Avyo+MBMGA1Ud
JQQMMAoGCCsGAQUFBwMCMAsGA1UdDwQEAwIHgDANBgkqhkiG9w0BAQQFAAOCAgEA
Eu0ZMFqXfa5FMZY56mPLRza9R1F8fz1lFcsbfZ3B8VA1n//Lh4ttSSQRfSrNS6VQ
UgFGreKnO5+19ZUQl9njefAMpMS7fnwFWCgnnPImnTtxDanXP122qu0pwo2x5fwm
z5mZc3T8JUPY3aM2H0xpIlq6F60tw+Ohta0FJAXJq9PCNmPsglq0tz3RTU/Z52O9
zBjLPnWczHZfWPOsjlgoQKU0ew/qsEAxFGz1V3ksFU4Go2WgFVlXQ+NKy7Xd+4FF
nIIzkogjU0kDzjTvZa+qgY49wELQYXt0aCIqDfz0sLVRfmCyEWrV6xxnA6jw0T5e
YdGypp6ULHy/2KXkNI2iPBnSWNycVyRRIq1x+57Fk4d37Gr31SHFQUH4Ob2V2W0n
XJpG1mCyxY34HSvjAdu/g3gTfojOy8v1K/fDGHxmW7xP+NlOwKRI9Z4ffiJw7msg
aSTmbqH5d4JRufK7N7+0uHm7a1h4H6h4N3pztePEhHVb5Ie4BImeozQHqWWvj/qJ
rF89cZl7B6PD/0lHkTIMXuP3JZ+7KCPHBIqgnpLxbWtluSX2j0UVv+O+fAWWlvz7
IKCbP187mYFhvWtRdYDPhFPzRSKmdj/JtuILuKniX5kSK35hgu0WaUP5+eORCWkM
AGgH1huV4MnX1++g5NRvsA32fnBg7yG0LB6xic38Bek=
-----END CERTIFICATE-----
