Certificate:
    Data:
        Version: 3 (0x2)
        Serial Number: 1572 (0x624)
    Signature Algorithm: md5WithRSAEncryption
        Issuer: C=US, ST=OH, L=Columbus, O=VikingVPN, OU=MyOrganizationalUnit, CN=VikingVPN CA/name=EasyRSA/emailAddress=me@myhost.mydomain
        Validity
            Not Before: Apr 12 15:20:49 2014 GMT
            Not After : Apr  9 15:20:49 2024 GMT
        Subject: CN=Client336Cert396f2a
        Subject Public Key Info:
            Public Key Algorithm: rsaEncryption
                Public-Key: (4096 bit)
                Modulus:
                    00:ed:62:40:21:5b:7b:c0:32:fe:23:4f:7c:19:68:
                    d0:22:d5:1e:b3:e3:66:a2:87:c1:32:13:bc:83:74:
                    c3:59:75:80:35:b9:79:76:88:ea:7b:cb:e4:e2:f0:
                    ed:66:83:ae:14:c9:c6:a6:85:f6:ad:b0:1a:5c:28:
                    c5:52:19:62:15:eb:f5:fe:60:71:2d:24:9c:f2:d0:
                    82:df:1d:cc:23:96:0f:72:54:10:f3:09:b2:6b:36:
                    b8:0e:9d:08:20:a8:07:a6:51:b4:70:1d:a8:bd:6c:
                    5d:41:9d:b4:fd:4c:1c:f0:60:da:6d:5c:7e:70:4c:
                    0a:ad:b5:fe:bc:3a:10:c9:3e:78:8e:84:81:9c:ca:
                    61:14:96:2e:28:a7:52:71:68:c8:8d:4f:ba:49:3e:
                    6b:29:d9:93:74:98:da:c4:2e:95:f4:f6:4a:8b:d6:
                    e7:72:26:e8:0f:a1:a2:2c:a9:bc:63:d2:71:84:ad:
                    39:82:d1:25:ba:b9:28:f7:0d:55:e9:5a:54:0b:a8:
                    82:14:12:b9:30:90:82:14:93:e6:e2:f6:63:37:c5:
                    e0:bb:fa:5f:f0:b1:36:31:b4:07:b6:23:a2:a6:46:
                    35:8f:e9:09:e6:27:87:65:be:4b:4d:14:85:7d:34:
                    5a:f4:aa:60:d3:66:b9:47:33:c1:ff:66:51:13:b2:
                    e4:21:c9:1b:ee:4e:fa:51:56:c6:63:43:b4:28:b1:
                    d4:97:0b:ea:06:87:b3:94:d2:8f:d1:52:4e:dc:08:
                    3a:cf:d3:40:24:b4:4d:6b:b1:7f:b7:11:8e:34:e8:
                    b3:75:ba:b8:b6:79:29:94:9f:7a:fc:1b:86:41:3e:
                    10:d7:01:15:33:53:d2:8a:8c:ca:9f:c2:ba:d1:67:
                    93:a6:3e:cc:00:6d:76:f0:58:e3:fa:0b:11:51:96:
                    45:18:b1:95:a9:8f:fc:60:7f:3b:40:a0:b1:a5:33:
                    b6:e2:17:5e:5a:92:b3:74:cd:46:b1:7f:d5:fa:ba:
                    9b:0a:d9:23:1d:7b:80:e9:34:89:6d:48:bd:2a:5c:
                    1e:95:3b:75:9f:c1:8d:43:88:48:ae:9c:5e:7a:22:
                    57:b6:8a:77:d0:6c:29:95:28:82:02:d7:a4:1a:66:
                    34:fb:a0:82:75:d8:11:d4:1a:09:0b:4e:e1:aa:ab:
                    53:bc:88:07:2a:71:3c:78:de:7f:2d:32:b4:04:d7:
                    90:e4:01:0b:74:d0:11:67:f0:85:cb:ff:40:3c:cd:
                    a7:c7:35:46:f1:65:f7:c3:c2:5d:7b:88:08:b2:7d:
                    78:6f:0e:80:2d:6e:fd:28:0d:c7:16:c6:7f:dd:0e:
                    e0:f9:7a:ce:e0:7a:ad:62:b4:0a:3d:1e:6e:58:46:
                    e8:f7:2d
                Exponent: 65537 (0x10001)
        X509v3 extensions:
            X509v3 Basic Constraints: 
                CA:FALSE
            Netscape Comment: 
                Easy-RSA Generated Certificate
            X509v3 Subject Key Identifier: 
                BD:C3:A0:D2:60:58:E1:DB:13:32:12:D9:30:4E:73:EC:74:F7:C4:32
            X509v3 Authority Key Identifier: 
                keyid:12:CD:60:04:D2:A0:80:9E:70:ED:C6:99:B8:7B:2C:C6:52:FD:19:A1
                DirName:/C=US/ST=OH/L=Columbus/O=VikingVPN/OU=MyOrganizationalUnit/CN=VikingVPN CA/name=EasyRSA/emailAddress=me@myhost.mydomain
                serial:CF:35:85:EE:80:BF:2A:3E

            X509v3 Extended Key Usage: 
                TLS Web Client Authentication
            X509v3 Key Usage: 
                Digital Signature
    Signature Algorithm: md5WithRSAEncryption
         c6:08:51:65:83:5b:0d:14:83:2b:05:c1:40:04:4a:ef:16:bc:
         0e:77:ad:3d:48:9e:9e:a1:ce:1c:06:52:5f:53:52:84:fe:62:
         21:bb:b8:ca:25:a1:65:42:a9:75:58:fd:b5:2a:a5:94:d0:c6:
         c8:86:11:ea:ba:ae:b1:bf:10:82:f0:ce:7d:26:00:9a:4f:37:
         0d:79:38:3a:b2:5f:9e:fb:64:55:5f:a8:ea:a2:8d:ed:e7:a6:
         3e:93:af:6a:51:e7:72:da:ff:16:fa:96:49:1f:4e:93:b5:a2:
         1a:53:d0:cd:02:c2:35:de:35:21:e6:2b:6a:fd:01:d4:a8:b5:
         46:14:ea:82:87:e2:04:6b:5f:91:50:c1:31:b4:0a:51:65:99:
         47:80:0a:e0:75:d5:7e:23:54:f3:d9:11:91:46:64:3c:52:39:
         73:50:ee:5f:9f:fc:ff:08:a1:7c:e4:c8:6c:b7:37:8c:13:4b:
         dd:1c:8a:ae:10:a2:e0:62:76:68:2d:31:1e:50:a1:d9:44:76:
         94:1d:a1:7f:30:56:e3:94:0c:dd:a5:f2:2c:d6:dc:f5:bb:88:
         ee:bb:33:78:e2:dc:6c:df:51:e3:21:55:9e:24:66:10:13:c3:
         0e:17:ee:6c:f7:ea:f7:a4:11:53:3f:82:3d:28:dd:b1:39:e7:
         b4:0f:e8:58:67:43:f5:bd:a7:34:16:6b:81:6d:58:8e:71:db:
         3a:6b:93:f7:43:45:6d:75:cd:8d:91:6e:c1:57:29:42:ac:4d:
         88:e1:b4:3f:7e:e2:84:dd:13:0c:bd:49:b5:86:f8:29:7d:8f:
         f5:e6:40:06:18:38:7b:f1:b6:62:0b:39:ab:a0:ec:2a:15:d4:
         19:b1:d2:db:76:c5:ab:c9:d9:4e:44:d8:fe:66:96:79:b1:77:
         7f:ae:a3:15:6c:8a:b2:f4:a4:32:d5:7b:b4:4c:7d:8a:04:65:
         35:f9:ff:a3:b6:5e:b9:1f:4c:58:a2:cc:af:b8:5c:1d:a3:4d:
         82:f8:01:26:fb:48:26:aa:9a:2c:8c:c1:d4:91:fc:1b:db:d2:
         5b:aa:f0:34:31:9c:f4:d1:74:ee:01:9b:a8:3e:8a:f4:02:4b:
         ad:02:21:80:ac:34:69:9d:d2:2a:4c:3f:81:14:4c:d2:c7:28:
         c2:73:a3:14:ac:ff:76:d8:57:d6:67:b8:91:45:0b:13:8c:ed:
         39:53:63:c1:b4:f0:91:ea:bc:08:18:34:66:9b:90:49:0c:01:
         92:ae:0c:8f:b6:e1:c7:b1:d9:df:89:97:d4:1e:1b:32:3c:de:
         00:d7:32:40:8d:59:33:02:6f:fb:7d:01:72:28:3f:c9:13:68:
         bc:63:87:51:e0:7f:b4:4a
-----BEGIN CERTIFICATE-----
MIIGrDCCBJSgAwIBAgICBiQwDQYJKoZIhvcNAQEEBQAwgawxCzAJBgNVBAYTAlVT
MQswCQYDVQQIEwJPSDERMA8GA1UEBxMIQ29sdW1idXMxEjAQBgNVBAoTCVZpa2lu
Z1ZQTjEdMBsGA1UECxMUTXlPcmdhbml6YXRpb25hbFVuaXQxFTATBgNVBAMTDFZp
a2luZ1ZQTiBDQTEQMA4GA1UEKRMHRWFzeVJTQTEhMB8GCSqGSIb3DQEJARYSbWVA
bXlob3N0Lm15ZG9tYWluMB4XDTE0MDQxMjE1MjA0OVoXDTI0MDQwOTE1MjA0OVow
HjEcMBoGA1UEAxMTQ2xpZW50MzM2Q2VydDM5NmYyYTCCAiIwDQYJKoZIhvcNAQEB
BQADggIPADCCAgoCggIBAO1iQCFbe8Ay/iNPfBlo0CLVHrPjZqKHwTITvIN0w1l1
gDW5eXaI6nvL5OLw7WaDrhTJxqaF9q2wGlwoxVIZYhXr9f5gcS0knPLQgt8dzCOW
D3JUEPMJsms2uA6dCCCoB6ZRtHAdqL1sXUGdtP1MHPBg2m1cfnBMCq21/rw6EMk+
eI6EgZzKYRSWLiinUnFoyI1Pukk+aynZk3SY2sQulfT2SovW53Im6A+hoiypvGPS
cYStOYLRJbq5KPcNVelaVAuoghQSuTCQghST5uL2YzfF4Lv6X/CxNjG0B7YjoqZG
NY/pCeYnh2W+S00UhX00WvSqYNNmuUczwf9mUROy5CHJG+5O+lFWxmNDtCix1JcL
6gaHs5TSj9FSTtwIOs/TQCS0TWuxf7cRjjTos3W6uLZ5KZSfevwbhkE+ENcBFTNT
0oqMyp/CutFnk6Y+zABtdvBY4/oLEVGWRRixlamP/GB/O0CgsaUztuIXXlqSs3TN
RrF/1fq6mwrZIx17gOk0iW1IvSpcHpU7dZ/BjUOISK6cXnoiV7aKd9BsKZUoggLX
pBpmNPuggnXYEdQaCQtO4aqrU7yIBypxPHjefy0ytATXkOQBC3TQEWfwhcv/QDzN
p8c1RvFl98PCXXuICLJ9eG8OgC1u/SgNxxbGf90O4Pl6zuB6rWK0Cj0eblhG6Pct
AgMBAAGjggFjMIIBXzAJBgNVHRMEAjAAMC0GCWCGSAGG+EIBDQQgFh5FYXN5LVJT
QSBHZW5lcmF0ZWQgQ2VydGlmaWNhdGUwHQYDVR0OBBYEFL3DoNJgWOHbEzIS2TBO
c+x098QyMIHhBgNVHSMEgdkwgdaAFBLNYATSoICecO3Gmbh7LMZS/RmhoYGypIGv
MIGsMQswCQYDVQQGEwJVUzELMAkGA1UECBMCT0gxETAPBgNVBAcTCENvbHVtYnVz
MRIwEAYDVQQKEwlWaWtpbmdWUE4xHTAbBgNVBAsTFE15T3JnYW5pemF0aW9uYWxV
bml0MRUwEwYDVQQDEwxWaWtpbmdWUE4gQ0ExEDAOBgNVBCkTB0Vhc3lSU0ExITAf
BgkqhkiG9w0BCQEWEm1lQG15aG9zdC5teWRvbWFpboIJAM81he6Avyo+MBMGA1Ud
JQQMMAoGCCsGAQUFBwMCMAsGA1UdDwQEAwIHgDANBgkqhkiG9w0BAQQFAAOCAgEA
xghRZYNbDRSDKwXBQARK7xa8DnetPUienqHOHAZSX1NShP5iIbu4yiWhZUKpdVj9
tSqllNDGyIYR6rqusb8QgvDOfSYAmk83DXk4OrJfnvtkVV+o6qKN7eemPpOvalHn
ctr/FvqWSR9Ok7WiGlPQzQLCNd41IeYrav0B1Ki1RhTqgofiBGtfkVDBMbQKUWWZ
R4AK4HXVfiNU89kRkUZkPFI5c1DuX5/8/wihfOTIbLc3jBNL3RyKrhCi4GJ2aC0x
HlCh2UR2lB2hfzBW45QM3aXyLNbc9buI7rszeOLcbN9R4yFVniRmEBPDDhfubPfq
96QRUz+CPSjdsTnntA/oWGdD9b2nNBZrgW1YjnHbOmuT90NFbXXNjZFuwVcpQqxN
iOG0P37ihN0TDL1JtYb4KX2P9eZABhg4e/G2Ygs5q6DsKhXUGbHS23bFq8nZTkTY
/maWebF3f66jFWyKsvSkMtV7tEx9igRlNfn/o7ZeuR9MWKLMr7hcHaNNgvgBJvtI
JqqaLIzB1JH8G9vSW6rwNDGc9NF07gGbqD6K9AJLrQIhgKw0aZ3SKkw/gRRM0sco
wnOjFKz/dthX1me4kUULE4ztOVNjwbTwkeq8CBg0ZpuQSQwBkq4Mj7bhx7HZ34mX
1B4bMjzeANcyQI1ZMwJv+30Bcig/yRNovGOHUeB/tEo=
-----END CERTIFICATE-----
