Certificate:
    Data:
        Version: 3 (0x2)
        Serial Number: 1583 (0x62f)
    Signature Algorithm: md5WithRSAEncryption
        Issuer: C=US, ST=OH, L=Columbus, O=VikingVPN, OU=MyOrganizationalUnit, CN=VikingVPN CA/name=EasyRSA/emailAddress=me@myhost.mydomain
        Validity
            Not Before: Apr 13 15:55:25 2014 GMT
            Not After : Apr 10 15:55:25 2024 GMT
        Subject: CN=Client543Cert5d0806
        Subject Public Key Info:
            Public Key Algorithm: rsaEncryption
                Public-Key: (4096 bit)
                Modulus:
                    00:b3:9c:e3:ed:bb:ed:ca:e2:0e:51:19:2d:a5:fe:
                    84:d9:dc:f1:2e:f8:ed:81:2a:55:cc:a2:cb:10:e8:
                    87:d1:3d:4b:56:4c:6f:39:cc:25:c9:af:61:9d:4a:
                    b1:f9:db:ef:1a:3c:88:03:c3:22:01:97:9f:d2:a1:
                    7a:cc:b6:46:c4:1c:33:81:c4:7c:3e:ef:b6:0b:21:
                    1d:f0:72:16:f0:3a:10:90:bd:d8:3e:e2:84:6a:5a:
                    09:c5:34:91:81:57:a8:0f:c0:64:3e:ea:51:b9:18:
                    06:87:01:b9:81:76:64:ba:08:75:85:18:3b:60:0f:
                    f1:4c:c6:e6:17:da:e0:c3:b5:30:c7:16:f5:0d:8e:
                    b0:cc:41:84:09:22:e9:3e:39:13:22:50:68:5e:fb:
                    db:66:b3:c4:d6:d0:a0:9b:69:ab:5c:80:4d:40:70:
                    06:59:56:a0:5b:9a:9d:03:c4:6d:a9:90:c3:1d:05:
                    9c:92:41:56:9f:56:a5:7b:f8:8d:d8:0e:d0:18:99:
                    1c:cc:08:a6:ff:19:d5:31:53:d1:e3:e7:fd:fc:bf:
                    5c:49:05:9f:ad:02:59:56:e9:89:e9:36:d6:85:60:
                    18:41:c1:b2:ba:25:81:00:14:2c:e5:ef:b3:ed:35:
                    ba:a5:52:85:2b:25:50:af:2e:72:06:72:85:e8:5a:
                    a1:75:b1:3d:50:8e:9a:1c:e2:f8:98:03:8f:dc:9b:
                    61:10:3d:f7:91:5b:5a:0b:ac:92:f7:d4:e9:e8:79:
                    9e:1a:54:82:65:76:2b:13:0d:cf:f5:55:9e:ef:63:
                    49:80:73:54:a9:a8:24:91:3d:77:d5:1c:b7:0d:88:
                    b3:1b:cb:85:c1:84:d0:39:29:86:66:6e:54:83:fc:
                    9d:46:87:cb:97:3f:d0:4c:ce:35:8c:34:96:04:f9:
                    69:21:3d:0f:59:12:58:01:b1:5f:29:66:c8:9a:c1:
                    75:6f:25:68:7c:86:10:47:ac:6c:d9:aa:16:27:0a:
                    86:70:e4:7d:3c:71:47:95:4c:49:02:50:46:78:f2:
                    d4:6b:39:ae:07:5f:eb:71:ae:0f:d0:6b:be:5f:30:
                    15:b8:87:13:f9:eb:5b:12:4a:60:64:aa:c6:d9:5c:
                    83:57:80:7a:78:3c:67:2d:af:f0:1f:56:6d:c1:34:
                    f7:d3:83:d4:44:48:1d:8e:63:84:40:ac:e2:a1:07:
                    3c:27:73:10:af:29:0d:92:22:f0:cd:56:e4:1e:03:
                    a1:ab:ae:62:6e:d9:e8:9f:02:dc:ab:02:f1:36:97:
                    4d:a4:c1:64:0a:80:f7:53:cc:96:5b:95:b5:96:7a:
                    04:cf:50:b1:28:1e:47:4b:5a:69:9f:2d:d8:53:d6:
                    32:41:49
                Exponent: 65537 (0x10001)
        X509v3 extensions:
            X509v3 Basic Constraints: 
                CA:FALSE
            Netscape Comment: 
                Easy-RSA Generated Certificate
            X509v3 Subject Key Identifier: 
                1E:9D:DE:78:29:A4:1E:9F:A6:CF:A2:7D:0D:08:09:A0:D6:5F:BE:28
            X509v3 Authority Key Identifier: 
                keyid:12:CD:60:04:D2:A0:80:9E:70:ED:C6:99:B8:7B:2C:C6:52:FD:19:A1
                DirName:/C=US/ST=OH/L=Columbus/O=VikingVPN/OU=MyOrganizationalUnit/CN=VikingVPN CA/name=EasyRSA/emailAddress=me@myhost.mydomain
                serial:CF:35:85:EE:80:BF:2A:3E

            X509v3 Extended Key Usage: 
                TLS Web Client Authentication
            X509v3 Key Usage: 
                Digital Signature
    Signature Algorithm: md5WithRSAEncryption
         d4:4d:b8:24:ea:85:25:ce:e7:87:6f:ae:54:13:3e:d8:cc:85:
         2b:bf:fb:9e:d0:e1:cd:c7:22:63:2f:63:3a:4f:38:f5:ef:f8:
         50:82:9a:ba:aa:12:65:0d:13:89:78:47:9e:ab:9e:c3:80:25:
         81:15:e2:79:54:bd:f6:45:93:06:c8:f4:80:93:52:68:49:bc:
         02:7b:1c:9c:1d:b8:2e:2d:b0:c0:cf:3e:0b:b2:25:90:7b:fa:
         e0:51:4c:99:9e:ec:29:4c:60:29:3b:93:ba:97:97:07:97:f0:
         6d:ae:30:ca:87:ae:f1:8b:8d:3c:b6:8c:0f:f5:47:46:0a:5b:
         0c:9b:6c:0d:ab:07:1b:4f:77:d0:e2:dd:60:0f:a9:20:d4:b5:
         d6:6e:22:9d:c5:bb:37:ad:d5:53:eb:aa:6d:fb:03:c1:79:f9:
         be:73:14:a3:ff:82:9c:a8:46:bf:3e:4d:47:01:18:16:40:62:
         e7:59:45:e7:e6:34:2b:15:c6:88:34:b8:7f:1b:67:d9:6b:a9:
         c9:50:5a:7a:e8:42:fd:b4:e0:c6:6b:da:67:58:ed:02:49:70:
         7c:b0:3f:8f:65:71:76:dd:21:7a:26:27:70:94:1b:e2:d5:c9:
         c8:9c:23:56:40:51:31:42:ce:46:af:93:90:b0:87:e2:6c:f5:
         23:b2:31:ea:75:7a:64:71:4e:a5:e1:8e:42:97:66:55:f2:23:
         64:d7:f7:e6:37:0c:49:39:29:d8:45:8a:85:d6:7c:4b:23:dd:
         e3:a9:79:86:ed:f8:40:6a:a1:cb:e2:c7:a1:c7:c0:c1:5c:6e:
         66:3d:c9:8c:ab:99:38:29:a4:bb:1d:cb:60:dd:c1:3f:fd:3b:
         c7:03:4f:fa:c9:d8:95:ab:b7:d6:64:b2:d6:46:fc:da:5d:83:
         bf:18:3c:76:fb:1b:75:0c:6e:3b:1f:d7:7a:0a:72:61:84:5a:
         4a:c4:c7:15:65:94:aa:77:90:20:bf:c7:6b:78:b3:06:b2:66:
         c0:98:af:4c:f1:82:78:a7:87:fb:8c:d5:41:dc:44:fb:f4:c3:
         37:a7:64:6e:36:23:4c:43:25:12:10:1d:03:ac:7b:9b:1a:6f:
         61:ed:f5:07:dc:a0:ba:fc:a9:7c:58:9b:f7:32:bc:78:43:e8:
         3a:88:d0:29:6b:73:11:53:08:50:06:56:03:35:68:14:78:00:
         2c:67:81:97:c4:8d:a5:2a:d0:3a:51:d8:33:da:2e:4b:79:60:
         97:2c:1d:82:3b:0e:18:0c:8c:ab:ba:55:f1:1b:fe:2a:d8:96:
         62:28:8b:2b:86:17:fe:d9:32:39:d3:eb:25:85:4d:ca:aa:dd:
         6f:5b:db:ad:b5:a0:22:ae
-----BEGIN CERTIFICATE-----
MIIGrDCCBJSgAwIBAgICBi8wDQYJKoZIhvcNAQEEBQAwgawxCzAJBgNVBAYTAlVT
MQswCQYDVQQIEwJPSDERMA8GA1UEBxMIQ29sdW1idXMxEjAQBgNVBAoTCVZpa2lu
Z1ZQTjEdMBsGA1UECxMUTXlPcmdhbml6YXRpb25hbFVuaXQxFTATBgNVBAMTDFZp
a2luZ1ZQTiBDQTEQMA4GA1UEKRMHRWFzeVJTQTEhMB8GCSqGSIb3DQEJARYSbWVA
bXlob3N0Lm15ZG9tYWluMB4XDTE0MDQxMzE1NTUyNVoXDTI0MDQxMDE1NTUyNVow
HjEcMBoGA1UEAxMTQ2xpZW50NTQzQ2VydDVkMDgwNjCCAiIwDQYJKoZIhvcNAQEB
BQADggIPADCCAgoCggIBALOc4+277criDlEZLaX+hNnc8S747YEqVcyiyxDoh9E9
S1ZMbznMJcmvYZ1Ksfnb7xo8iAPDIgGXn9Khesy2RsQcM4HEfD7vtgshHfByFvA6
EJC92D7ihGpaCcU0kYFXqA/AZD7qUbkYBocBuYF2ZLoIdYUYO2AP8UzG5hfa4MO1
MMcW9Q2OsMxBhAki6T45EyJQaF7722azxNbQoJtpq1yATUBwBllWoFuanQPEbamQ
wx0FnJJBVp9WpXv4jdgO0BiZHMwIpv8Z1TFT0ePn/fy/XEkFn60CWVbpiek21oVg
GEHBsrolgQAULOXvs+01uqVShSslUK8ucgZyhehaoXWxPVCOmhzi+JgDj9ybYRA9
95FbWguskvfU6eh5nhpUgmV2KxMNz/VVnu9jSYBzVKmoJJE9d9Uctw2IsxvLhcGE
0DkphmZuVIP8nUaHy5c/0EzONYw0lgT5aSE9D1kSWAGxXylmyJrBdW8laHyGEEes
bNmqFicKhnDkfTxxR5VMSQJQRnjy1Gs5rgdf63GuD9Brvl8wFbiHE/nrWxJKYGSq
xtlcg1eAeng8Zy2v8B9WbcE099OD1ERIHY5jhECs4qEHPCdzEK8pDZIi8M1W5B4D
oauuYm7Z6J8C3KsC8TaXTaTBZAqA91PMlluVtZZ6BM9QsSgeR0taaZ8t2FPWMkFJ
AgMBAAGjggFjMIIBXzAJBgNVHRMEAjAAMC0GCWCGSAGG+EIBDQQgFh5FYXN5LVJT
QSBHZW5lcmF0ZWQgQ2VydGlmaWNhdGUwHQYDVR0OBBYEFB6d3ngppB6fps+ifQ0I
CaDWX74oMIHhBgNVHSMEgdkwgdaAFBLNYATSoICecO3Gmbh7LMZS/RmhoYGypIGv
MIGsMQswCQYDVQQGEwJVUzELMAkGA1UECBMCT0gxETAPBgNVBAcTCENvbHVtYnVz
MRIwEAYDVQQKEwlWaWtpbmdWUE4xHTAbBgNVBAsTFE15T3JnYW5pemF0aW9uYWxV
bml0MRUwEwYDVQQDEwxWaWtpbmdWUE4gQ0ExEDAOBgNVBCkTB0Vhc3lSU0ExITAf
BgkqhkiG9w0BCQEWEm1lQG15aG9zdC5teWRvbWFpboIJAM81he6Avyo+MBMGA1Ud
JQQMMAoGCCsGAQUFBwMCMAsGA1UdDwQEAwIHgDANBgkqhkiG9w0BAQQFAAOCAgEA
1E24JOqFJc7nh2+uVBM+2MyFK7/7ntDhzcciYy9jOk849e/4UIKauqoSZQ0TiXhH
nquew4AlgRXieVS99kWTBsj0gJNSaEm8AnscnB24Li2wwM8+C7IlkHv64FFMmZ7s
KUxgKTuTupeXB5fwba4wyoeu8YuNPLaMD/VHRgpbDJtsDasHG0930OLdYA+pINS1
1m4incW7N63VU+uqbfsDwXn5vnMUo/+CnKhGvz5NRwEYFkBi51lF5+Y0KxXGiDS4
fxtn2WupyVBaeuhC/bTgxmvaZ1jtAklwfLA/j2Vxdt0heiYncJQb4tXJyJwjVkBR
MULORq+TkLCH4mz1I7Ix6nV6ZHFOpeGOQpdmVfIjZNf35jcMSTkp2EWKhdZ8SyPd
46l5hu34QGqhy+LHocfAwVxuZj3JjKuZOCmkux3LYN3BP/07xwNP+snYlau31mSy
1kb82l2Dvxg8dvsbdQxuOx/XegpyYYRaSsTHFWWUqneQIL/Ha3izBrJmwJivTPGC
eKeH+4zVQdxE+/TDN6dkbjYjTEMlEhAdA6x7mxpvYe31B9yguvypfFib9zK8eEPo
OojQKWtzEVMIUAZWAzVoFHgALGeBl8SNpSrQOlHYM9ouS3lglywdgjsOGAyMq7pV
8Rv+KtiWYiiLK4YX/tkyOdPrJYVNyqrdb1vbrbWgIq4=
-----END CERTIFICATE-----
