Certificate:
    Data:
        Version: 3 (0x2)
        Serial Number: 1591 (0x637)
    Signature Algorithm: md5WithRSAEncryption
        Issuer: C=US, ST=OH, L=Columbus, O=VikingVPN, OU=MyOrganizationalUnit, CN=VikingVPN CA/name=EasyRSA/emailAddress=me@myhost.mydomain
        Validity
            Not Before: Apr 14 03:08:23 2014 GMT
            Not After : Apr 11 03:08:23 2024 GMT
        Subject: CN=Client303Certc04d62
        Subject Public Key Info:
            Public Key Algorithm: rsaEncryption
                Public-Key: (4096 bit)
                Modulus:
                    00:b4:5b:c9:6f:a3:8d:ed:09:0d:3b:4d:ba:53:df:
                    a2:b6:63:80:9d:10:fe:95:4d:eb:df:aa:f1:aa:95:
                    2b:8e:01:f0:aa:6c:0f:70:13:87:96:24:6d:25:cb:
                    99:84:0f:f6:93:ee:8f:fb:0e:5b:b2:63:38:81:99:
                    29:48:7e:50:3b:14:25:c8:f2:65:60:33:21:77:6f:
                    27:09:28:d5:72:21:1d:a0:e4:3f:58:bd:fb:8f:12:
                    5c:36:f1:91:a8:b4:a3:4e:18:55:0b:00:73:3a:f4:
                    ab:fa:d9:00:0f:5e:37:f4:49:f1:9b:c9:3d:69:a4:
                    b7:2c:d0:d7:4f:1d:33:e2:ea:a1:d5:5a:9b:aa:f4:
                    ca:0a:46:e9:60:36:5a:ef:28:22:11:65:05:14:88:
                    64:fb:86:b0:2d:0a:c0:79:90:83:e8:96:dd:02:6c:
                    1c:1c:df:5a:0f:b2:0e:79:66:27:c1:44:ce:02:81:
                    97:97:8b:1b:35:b9:ea:10:5e:5c:31:26:9e:ec:a8:
                    ea:41:12:2b:e1:b0:cf:1c:92:23:e6:73:13:6e:8c:
                    41:8c:a2:c5:48:43:e7:bc:64:56:cc:33:66:e4:78:
                    cc:77:62:e5:c4:49:65:57:81:c9:b0:59:a1:b2:f4:
                    a6:66:a3:84:72:0e:91:e6:a9:9b:d3:09:52:3c:12:
                    06:cc:1a:cc:26:e0:13:6c:2e:ca:6b:ac:38:24:92:
                    7f:85:03:4f:5e:bb:91:a0:f2:8a:2b:8f:88:33:85:
                    4b:ec:d6:b7:6f:b6:9b:97:6f:04:db:2c:73:b9:00:
                    07:2a:73:cc:b0:42:8d:8f:f6:54:8c:45:c5:ff:3e:
                    40:d8:6c:30:36:3a:ee:e5:1d:b5:ff:c2:a7:1d:bb:
                    b3:96:6d:57:c8:38:1d:f6:2c:22:56:f5:db:c7:45:
                    7b:04:5f:9c:68:26:23:a7:4d:8d:f2:ba:c7:10:d7:
                    04:c3:92:fb:a0:05:71:85:70:bb:49:37:e4:18:f7:
                    a5:40:16:38:89:50:82:97:9d:0d:b4:3c:db:04:03:
                    87:2d:dd:96:87:68:8c:27:11:5a:3b:a1:b8:3d:8a:
                    4e:45:f4:1d:d2:33:6b:1d:8f:4e:29:dc:3a:6f:28:
                    ad:bb:e5:c8:82:26:b5:6a:25:44:cc:ed:d4:d0:ba:
                    c6:27:20:71:17:57:c7:3f:13:4e:62:f1:7c:e2:64:
                    42:d3:c7:a7:e1:25:ec:a2:94:77:cb:26:2f:43:15:
                    97:4a:9c:cb:b2:8a:1a:6c:54:36:e8:fc:ea:e4:99:
                    6d:8a:d1:d9:94:2d:eb:77:67:58:9d:9e:16:a5:c6:
                    8b:55:71:48:e6:74:73:7f:7e:bf:b2:64:12:81:df:
                    f9:99:b5
                Exponent: 65537 (0x10001)
        X509v3 extensions:
            X509v3 Basic Constraints: 
                CA:FALSE
            Netscape Comment: 
                Easy-RSA Generated Certificate
            X509v3 Subject Key Identifier: 
                78:29:F8:80:E9:9A:1A:91:0A:80:1B:3C:86:BF:46:97:36:08:CE:00
            X509v3 Authority Key Identifier: 
                keyid:12:CD:60:04:D2:A0:80:9E:70:ED:C6:99:B8:7B:2C:C6:52:FD:19:A1
                DirName:/C=US/ST=OH/L=Columbus/O=VikingVPN/OU=MyOrganizationalUnit/CN=VikingVPN CA/name=EasyRSA/emailAddress=me@myhost.mydomain
                serial:CF:35:85:EE:80:BF:2A:3E

            X509v3 Extended Key Usage: 
                TLS Web Client Authentication
            X509v3 Key Usage: 
                Digital Signature
    Signature Algorithm: md5WithRSAEncryption
         58:9a:0a:0f:2a:b6:17:57:e1:f5:70:bd:43:1a:cc:4a:2e:63:
         a0:75:10:a7:24:c1:09:c0:92:be:b0:9f:3e:1e:90:78:68:9e:
         f5:f6:0f:95:12:4e:7a:51:32:f9:c5:ad:32:83:80:b8:ce:e2:
         83:9b:70:fc:ac:b5:f3:45:26:3f:1c:00:52:71:1f:31:cd:ed:
         5f:2e:ef:57:c8:43:f9:b4:ec:44:e0:71:2b:ae:3a:a1:e3:0e:
         22:13:d1:d9:9d:a7:15:fd:96:d0:36:73:91:c3:0a:dd:1f:73:
         39:47:19:26:9d:71:44:91:6a:79:90:b0:5b:7f:04:d6:d2:a4:
         4f:ea:0a:5f:a9:28:32:73:7e:4a:21:e5:ca:76:3c:40:b0:67:
         bf:fd:bf:57:dc:19:e3:b1:b3:08:b1:9f:99:dc:5a:af:3e:2e:
         39:69:09:7a:de:b7:38:2f:43:79:78:3e:83:82:cc:f2:51:ef:
         a1:27:9d:90:08:01:12:34:4f:8b:0d:73:a4:28:a0:ab:e5:2e:
         b0:a2:7b:53:26:a6:66:0b:2e:4a:c6:9d:67:c6:b8:34:64:70:
         6b:cc:21:ce:90:11:45:14:9a:e6:c5:53:7e:c5:a4:34:bf:53:
         b4:4d:8d:97:b1:ce:14:cb:21:0d:c6:ea:5d:99:8d:91:ed:32:
         71:05:50:8d:e1:93:bf:70:4a:bf:4e:50:c7:2f:2e:fa:b7:9e:
         17:92:46:d3:9f:53:96:04:88:54:41:79:20:44:38:7e:59:a7:
         58:22:8c:f1:5e:96:4f:c2:78:1c:bc:6d:f8:47:90:68:e6:db:
         e0:33:d3:55:fc:28:c6:22:eb:08:e0:a9:9d:8c:c4:26:60:52:
         96:48:cf:58:ec:8b:d1:c5:a2:02:aa:e6:5e:3a:19:8d:20:f4:
         4d:05:fe:6a:ef:7a:92:97:6d:11:2f:4a:fb:04:d5:41:dd:30:
         17:c1:d0:5c:ec:51:57:96:2f:ef:ab:60:43:12:e1:9c:98:d6:
         62:36:01:71:9e:d8:8a:b3:c0:b2:4c:8f:2a:5c:bf:c3:7b:16:
         8f:fb:5e:d7:1f:7c:b8:6b:1f:06:fb:24:d5:dd:ac:e7:05:ed:
         c2:d1:11:4c:76:d1:87:29:76:a1:b2:9c:2b:97:f7:97:a4:25:
         d0:24:61:c4:46:41:27:ba:c0:11:84:fd:58:bf:5d:e7:0f:95:
         44:c3:c3:de:3d:13:10:a3:e1:e6:63:c2:1a:bd:3d:b1:70:ee:
         9e:50:e8:be:4d:34:d4:ec:a5:05:64:25:30:47:0e:d6:eb:4e:
         e5:93:b1:8d:e6:ca:b1:05:73:cf:fd:82:da:54:a2:da:36:ae:
         c9:b0:94:07:9e:d1:df:2b
-----BEGIN CERTIFICATE-----
MIIGrDCCBJSgAwIBAgICBjcwDQYJKoZIhvcNAQEEBQAwgawxCzAJBgNVBAYTAlVT
MQswCQYDVQQIEwJPSDERMA8GA1UEBxMIQ29sdW1idXMxEjAQBgNVBAoTCVZpa2lu
Z1ZQTjEdMBsGA1UECxMUTXlPcmdhbml6YXRpb25hbFVuaXQxFTATBgNVBAMTDFZp
a2luZ1ZQTiBDQTEQMA4GA1UEKRMHRWFzeVJTQTEhMB8GCSqGSIb3DQEJARYSbWVA
bXlob3N0Lm15ZG9tYWluMB4XDTE0MDQxNDAzMDgyM1oXDTI0MDQxMTAzMDgyM1ow
HjEcMBoGA1UEAxMTQ2xpZW50MzAzQ2VydGMwNGQ2MjCCAiIwDQYJKoZIhvcNAQEB
BQADggIPADCCAgoCggIBALRbyW+jje0JDTtNulPforZjgJ0Q/pVN69+q8aqVK44B
8KpsD3ATh5YkbSXLmYQP9pPuj/sOW7JjOIGZKUh+UDsUJcjyZWAzIXdvJwko1XIh
HaDkP1i9+48SXDbxkai0o04YVQsAczr0q/rZAA9eN/RJ8ZvJPWmktyzQ108dM+Lq
odVam6r0ygpG6WA2Wu8oIhFlBRSIZPuGsC0KwHmQg+iW3QJsHBzfWg+yDnlmJ8FE
zgKBl5eLGzW56hBeXDEmnuyo6kESK+GwzxySI+ZzE26MQYyixUhD57xkVswzZuR4
zHdi5cRJZVeBybBZobL0pmajhHIOkeapm9MJUjwSBswazCbgE2wuymusOCSSf4UD
T167kaDyiiuPiDOFS+zWt2+2m5dvBNssc7kABypzzLBCjY/2VIxFxf8+QNhsMDY6
7uUdtf/Cpx27s5ZtV8g4HfYsIlb128dFewRfnGgmI6dNjfK6xxDXBMOS+6AFcYVw
u0k35Bj3pUAWOIlQgpedDbQ82wQDhy3dlodojCcRWjuhuD2KTkX0HdIzax2PTinc
Om8orbvlyIImtWolRMzt1NC6xicgcRdXxz8TTmLxfOJkQtPHp+El7KKUd8smL0MV
l0qcy7KKGmxUNuj86uSZbYrR2ZQt63dnWJ2eFqXGi1VxSOZ0c39+v7JkEoHf+Zm1
AgMBAAGjggFjMIIBXzAJBgNVHRMEAjAAMC0GCWCGSAGG+EIBDQQgFh5FYXN5LVJT
QSBHZW5lcmF0ZWQgQ2VydGlmaWNhdGUwHQYDVR0OBBYEFHgp+IDpmhqRCoAbPIa/
Rpc2CM4AMIHhBgNVHSMEgdkwgdaAFBLNYATSoICecO3Gmbh7LMZS/RmhoYGypIGv
MIGsMQswCQYDVQQGEwJVUzELMAkGA1UECBMCT0gxETAPBgNVBAcTCENvbHVtYnVz
MRIwEAYDVQQKEwlWaWtpbmdWUE4xHTAbBgNVBAsTFE15T3JnYW5pemF0aW9uYWxV
bml0MRUwEwYDVQQDEwxWaWtpbmdWUE4gQ0ExEDAOBgNVBCkTB0Vhc3lSU0ExITAf
BgkqhkiG9w0BCQEWEm1lQG15aG9zdC5teWRvbWFpboIJAM81he6Avyo+MBMGA1Ud
JQQMMAoGCCsGAQUFBwMCMAsGA1UdDwQEAwIHgDANBgkqhkiG9w0BAQQFAAOCAgEA
WJoKDyq2F1fh9XC9QxrMSi5joHUQpyTBCcCSvrCfPh6QeGie9fYPlRJOelEy+cWt
MoOAuM7ig5tw/Ky180UmPxwAUnEfMc3tXy7vV8hD+bTsROBxK646oeMOIhPR2Z2n
Ff2W0DZzkcMK3R9zOUcZJp1xRJFqeZCwW38E1tKkT+oKX6koMnN+SiHlynY8QLBn
v/2/V9wZ47GzCLGfmdxarz4uOWkJet63OC9DeXg+g4LM8lHvoSedkAgBEjRPiw1z
pCigq+UusKJ7UyamZgsuSsadZ8a4NGRwa8whzpARRRSa5sVTfsWkNL9TtE2Nl7HO
FMshDcbqXZmNke0ycQVQjeGTv3BKv05Qxy8u+reeF5JG059TlgSIVEF5IEQ4flmn
WCKM8V6WT8J4HLxt+EeQaObb4DPTVfwoxiLrCOCpnYzEJmBSlkjPWOyL0cWiAqrm
XjoZjSD0TQX+au96kpdtES9K+wTVQd0wF8HQXOxRV5Yv76tgQxLhnJjWYjYBcZ7Y
irPAskyPKly/w3sWj/te1x98uGsfBvsk1d2s5wXtwtERTHbRhyl2obKcK5f3l6Ql
0CRhxEZBJ7rAEYT9WL9d5w+VRMPD3j0TEKPh5mPCGr09sXDunlDovk001OylBWQl
MEcO1utO5ZOxjebKsQVzz/2C2lSi2jauybCUB57R3ys=
-----END CERTIFICATE-----
