Certificate:
    Data:
        Version: 3 (0x2)
        Serial Number: 1607 (0x647)
    Signature Algorithm: md5WithRSAEncryption
        Issuer: C=US, ST=OH, L=Columbus, O=VikingVPN, OU=MyOrganizationalUnit, CN=VikingVPN CA/name=EasyRSA/emailAddress=me@myhost.mydomain
        Validity
            Not Before: Apr 14 21:48:32 2014 GMT
            Not After : Apr 11 21:48:32 2024 GMT
        Subject: CN=Client581Cert074741
        Subject Public Key Info:
            Public Key Algorithm: rsaEncryption
                Public-Key: (4096 bit)
                Modulus:
                    00:ba:87:42:ae:8c:a3:26:b6:3a:fb:ce:d5:10:be:
                    c5:94:69:dc:71:b6:5a:54:0c:9e:17:e8:43:18:fe:
                    4f:af:90:d4:fa:5a:83:c3:a5:ce:e7:d1:d6:f3:1f:
                    83:27:3d:e5:02:8c:05:82:c0:9f:23:e5:41:f7:fa:
                    a6:fe:9f:27:31:dd:ce:47:ba:cc:14:2a:ed:b2:6a:
                    b7:00:bd:df:6c:fe:ee:9f:4d:1c:77:89:63:ac:02:
                    ac:87:b0:ee:40:68:e0:c5:22:29:09:ad:a7:c3:44:
                    01:fb:a8:da:32:79:b8:f7:c0:8c:1d:41:56:59:69:
                    40:47:5b:8b:f7:6f:55:81:a6:e6:c9:63:fe:78:92:
                    28:ff:11:aa:7e:ef:21:4a:3b:5d:65:33:8a:dc:40:
                    ba:b6:a9:ff:91:21:a1:26:eb:22:aa:1e:7d:a3:ec:
                    a3:22:7c:7a:ef:2d:87:8b:cd:04:3b:a0:ea:ba:33:
                    3d:b9:fb:36:96:b6:9b:54:bd:f0:90:5b:53:3c:03:
                    bc:92:60:b1:ec:79:3d:40:23:a5:2b:38:30:27:c9:
                    a6:71:7c:9d:db:19:29:d6:30:2d:68:44:02:0c:f7:
                    a0:3a:88:08:0b:24:fb:5e:fc:03:81:e1:39:33:ad:
                    0b:a3:3f:a1:fd:aa:3a:ab:e0:0d:3e:83:4b:8f:8e:
                    dd:29:4b:ac:f8:58:b1:c6:b6:2a:a3:ae:74:b8:83:
                    b2:18:bd:34:e7:5f:2b:61:1b:7a:2b:c3:a2:8c:35:
                    27:ef:23:78:c7:fa:4b:5d:5d:e0:f4:d3:ba:e1:df:
                    03:a9:04:e6:dd:c3:ee:a3:b0:c5:c9:31:b3:e8:11:
                    cd:e7:ce:5f:3a:c7:f1:d7:ec:cd:94:14:89:82:a5:
                    69:2d:48:9b:9e:ce:ca:d1:95:a1:18:8d:89:19:b0:
                    dc:5d:f0:1a:ce:48:60:3a:61:72:5f:ef:97:87:b5:
                    26:e8:1a:81:c6:a7:4c:1e:17:0d:69:88:9c:44:9f:
                    20:60:69:f8:57:f1:48:44:db:2e:bc:4b:51:9f:2a:
                    42:8a:d1:b2:85:b9:10:24:f9:7d:7f:c9:59:df:4f:
                    1e:3e:c5:19:84:00:88:29:52:c7:0b:c3:60:17:89:
                    cc:30:7f:cc:42:19:f2:2a:74:6f:07:17:b1:8d:c0:
                    78:06:65:7f:a9:4c:e5:db:7c:3e:51:a8:6b:43:a7:
                    f5:d6:f4:6c:16:03:08:42:0f:ae:30:f0:68:19:67:
                    78:c0:e1:6b:3b:35:2a:b2:07:ce:3e:b8:09:dc:5a:
                    6c:af:01:4e:97:21:ff:64:ea:cd:dc:b7:d9:63:41:
                    66:b9:5d:11:d2:56:4d:b0:02:64:ac:0c:5e:23:cd:
                    00:d2:49
                Exponent: 65537 (0x10001)
        X509v3 extensions:
            X509v3 Basic Constraints: 
                CA:FALSE
            Netscape Comment: 
                Easy-RSA Generated Certificate
            X509v3 Subject Key Identifier: 
                B1:A4:CC:72:EF:C4:CE:93:EB:10:48:A7:BD:BE:DC:BA:5B:C2:B2:1F
            X509v3 Authority Key Identifier: 
                keyid:12:CD:60:04:D2:A0:80:9E:70:ED:C6:99:B8:7B:2C:C6:52:FD:19:A1
                DirName:/C=US/ST=OH/L=Columbus/O=VikingVPN/OU=MyOrganizationalUnit/CN=VikingVPN CA/name=EasyRSA/emailAddress=me@myhost.mydomain
                serial:CF:35:85:EE:80:BF:2A:3E

            X509v3 Extended Key Usage: 
                TLS Web Client Authentication
            X509v3 Key Usage: 
                Digital Signature
    Signature Algorithm: md5WithRSAEncryption
         21:11:7c:46:93:d3:e6:87:a0:b8:ec:90:f7:3d:b5:d1:a9:d5:
         a8:d7:21:b0:98:e3:18:90:f5:9b:5a:22:d9:b3:e0:ad:4f:ea:
         6b:57:a0:4c:70:46:e3:00:97:ff:c4:dc:79:dc:8f:ba:ae:21:
         6e:e8:95:3c:da:f6:cc:99:9f:ad:fc:70:83:4a:71:43:3e:fa:
         49:a7:70:c4:24:c4:91:51:8c:78:d6:8e:bb:58:10:d5:db:b4:
         9d:cf:dd:c2:92:74:24:1e:39:2a:c1:98:2d:7f:ff:b8:d3:de:
         77:d1:cf:58:65:d9:bc:53:68:37:70:79:7e:b9:c6:da:0b:3c:
         0d:ca:97:80:5b:b4:29:29:fc:42:db:8a:94:fa:0b:cd:07:d6:
         03:d4:96:27:12:b9:86:6e:66:61:a0:8c:1a:f1:61:1b:f2:d0:
         b7:aa:e9:75:46:36:4e:99:3a:fe:d6:c7:bf:85:c4:48:d6:30:
         cc:32:00:6e:3a:dc:b1:68:92:37:93:3f:7b:d2:73:2e:99:7a:
         99:27:88:13:54:b9:b5:0b:ca:82:0b:a5:50:7e:9b:d8:71:40:
         d2:46:c5:8b:6d:4d:72:40:4d:c9:52:c3:0c:53:24:14:5f:ef:
         ca:9e:1c:73:a4:6e:9b:c9:63:a1:7f:73:6b:1a:d3:98:1f:2a:
         6e:1f:55:51:16:0d:ab:28:05:91:9f:63:9a:8c:46:f2:20:58:
         33:09:5b:0b:ca:d8:86:2d:a7:07:08:0d:0b:28:3b:bb:4c:b6:
         45:58:30:d8:a3:67:7b:05:67:e3:6b:87:dc:eb:f5:04:4d:0c:
         f6:9e:74:d7:95:32:de:7e:36:6d:93:1b:de:15:9b:bf:f6:c1:
         ab:2b:f5:fc:f8:2d:2f:75:2d:0a:42:08:ad:e4:1e:e1:b1:c6:
         0f:06:6b:9f:68:0e:c5:9f:a2:cb:c1:10:c3:c1:4a:22:25:f2:
         7b:73:92:a4:89:c4:d2:c3:81:6b:33:86:d1:27:b4:93:bc:bd:
         de:b2:e6:af:4e:ff:c4:e3:db:5a:3e:d9:e4:81:8b:06:16:41:
         1d:6b:85:61:5b:c7:11:64:91:c9:9f:7e:01:f1:3c:34:b7:64:
         bc:4d:75:54:e6:f1:f6:86:18:1c:44:4f:29:f3:16:de:76:fe:
         c8:fa:2d:e1:17:54:a9:1c:0f:3c:88:16:ef:cc:0f:9d:88:69:
         82:bd:b4:49:de:72:7f:02:3b:5e:c6:dd:83:75:2d:33:cd:c2:
         70:d8:bc:68:6a:4c:e3:fa:e0:e5:6c:34:ed:79:02:a8:18:9d:
         7d:7d:28:1f:95:95:bf:58:8d:e9:ad:96:fb:e4:b4:c9:e2:16:
         4e:ab:d4:1f:6c:d3:be:6c
-----BEGIN CERTIFICATE-----
MIIGrDCCBJSgAwIBAgICBkcwDQYJKoZIhvcNAQEEBQAwgawxCzAJBgNVBAYTAlVT
MQswCQYDVQQIEwJPSDERMA8GA1UEBxMIQ29sdW1idXMxEjAQBgNVBAoTCVZpa2lu
Z1ZQTjEdMBsGA1UECxMUTXlPcmdhbml6YXRpb25hbFVuaXQxFTATBgNVBAMTDFZp
a2luZ1ZQTiBDQTEQMA4GA1UEKRMHRWFzeVJTQTEhMB8GCSqGSIb3DQEJARYSbWVA
bXlob3N0Lm15ZG9tYWluMB4XDTE0MDQxNDIxNDgzMloXDTI0MDQxMTIxNDgzMlow
HjEcMBoGA1UEAxMTQ2xpZW50NTgxQ2VydDA3NDc0MTCCAiIwDQYJKoZIhvcNAQEB
BQADggIPADCCAgoCggIBALqHQq6Moya2OvvO1RC+xZRp3HG2WlQMnhfoQxj+T6+Q
1Ppag8OlzufR1vMfgyc95QKMBYLAnyPlQff6pv6fJzHdzke6zBQq7bJqtwC932z+
7p9NHHeJY6wCrIew7kBo4MUiKQmtp8NEAfuo2jJ5uPfAjB1BVllpQEdbi/dvVYGm
5slj/niSKP8Rqn7vIUo7XWUzitxAurap/5EhoSbrIqoefaPsoyJ8eu8th4vNBDug
6rozPbn7Npa2m1S98JBbUzwDvJJgsex5PUAjpSs4MCfJpnF8ndsZKdYwLWhEAgz3
oDqICAsk+178A4HhOTOtC6M/of2qOqvgDT6DS4+O3SlLrPhYsca2KqOudLiDshi9
NOdfK2EbeivDoow1J+8jeMf6S11d4PTTuuHfA6kE5t3D7qOwxckxs+gRzefOXzrH
8dfszZQUiYKlaS1Im57OytGVoRiNiRmw3F3wGs5IYDphcl/vl4e1JugagcanTB4X
DWmInESfIGBp+FfxSETbLrxLUZ8qQorRsoW5ECT5fX/JWd9PHj7FGYQAiClSxwvD
YBeJzDB/zEIZ8ip0bwcXsY3AeAZlf6lM5dt8PlGoa0On9db0bBYDCEIPrjDwaBln
eMDhazs1KrIHzj64CdxabK8BTpch/2Tqzdy32WNBZrldEdJWTbACZKwMXiPNANJJ
AgMBAAGjggFjMIIBXzAJBgNVHRMEAjAAMC0GCWCGSAGG+EIBDQQgFh5FYXN5LVJT
QSBHZW5lcmF0ZWQgQ2VydGlmaWNhdGUwHQYDVR0OBBYEFLGkzHLvxM6T6xBIp72+
3LpbwrIfMIHhBgNVHSMEgdkwgdaAFBLNYATSoICecO3Gmbh7LMZS/RmhoYGypIGv
MIGsMQswCQYDVQQGEwJVUzELMAkGA1UECBMCT0gxETAPBgNVBAcTCENvbHVtYnVz
MRIwEAYDVQQKEwlWaWtpbmdWUE4xHTAbBgNVBAsTFE15T3JnYW5pemF0aW9uYWxV
bml0MRUwEwYDVQQDEwxWaWtpbmdWUE4gQ0ExEDAOBgNVBCkTB0Vhc3lSU0ExITAf
BgkqhkiG9w0BCQEWEm1lQG15aG9zdC5teWRvbWFpboIJAM81he6Avyo+MBMGA1Ud
JQQMMAoGCCsGAQUFBwMCMAsGA1UdDwQEAwIHgDANBgkqhkiG9w0BAQQFAAOCAgEA
IRF8RpPT5oeguOyQ9z210anVqNchsJjjGJD1m1oi2bPgrU/qa1egTHBG4wCX/8Tc
edyPuq4hbuiVPNr2zJmfrfxwg0pxQz76SadwxCTEkVGMeNaOu1gQ1du0nc/dwpJ0
JB45KsGYLX//uNPed9HPWGXZvFNoN3B5frnG2gs8DcqXgFu0KSn8QtuKlPoLzQfW
A9SWJxK5hm5mYaCMGvFhG/LQt6rpdUY2Tpk6/tbHv4XESNYwzDIAbjrcsWiSN5M/
e9JzLpl6mSeIE1S5tQvKggulUH6b2HFA0kbFi21NckBNyVLDDFMkFF/vyp4cc6Ru
m8ljoX9zaxrTmB8qbh9VURYNqygFkZ9jmoxG8iBYMwlbC8rYhi2nBwgNCyg7u0y2
RVgw2KNnewVn42uH3Ov1BE0M9p5015Uy3n42bZMb3hWbv/bBqyv1/PgtL3UtCkII
reQe4bHGDwZrn2gOxZ+iy8EQw8FKIiXye3OSpInE0sOBazOG0Se0k7y93rLmr07/
xOPbWj7Z5IGLBhZBHWuFYVvHEWSRyZ9+AfE8NLdkvE11VObx9oYYHERPKfMW3nb+
yPot4RdUqRwPPIgW78wPnYhpgr20Sd5yfwI7Xsbdg3UtM83CcNi8aGpM4/rg5Ww0
7XkCqBidfX0oH5WVv1iN6a2W++S0yeIWTqvUH2zTvmw=
-----END CERTIFICATE-----
