Certificate:
    Data:
        Version: 3 (0x2)
        Serial Number: 1616 (0x650)
    Signature Algorithm: md5WithRSAEncryption
        Issuer: C=US, ST=OH, L=Columbus, O=VikingVPN, OU=MyOrganizationalUnit, CN=VikingVPN CA/name=EasyRSA/emailAddress=me@myhost.mydomain
        Validity
            Not Before: Apr 15 14:45:26 2014 GMT
            Not After : Apr 12 14:45:26 2024 GMT
        Subject: CN=Client549Cert765d20
        Subject Public Key Info:
            Public Key Algorithm: rsaEncryption
                Public-Key: (4096 bit)
                Modulus:
                    00:b5:08:21:ee:18:d7:7f:fa:e3:72:64:23:6a:01:
                    16:ae:2b:73:44:0c:28:b0:3b:61:93:6d:68:f6:0d:
                    34:7d:bd:ce:f8:8a:b9:ec:84:7f:3d:9b:2d:31:f0:
                    d3:98:d3:6a:c2:e1:e9:31:98:df:86:08:85:94:51:
                    9b:95:46:28:72:97:17:61:4c:c5:18:51:41:13:9b:
                    00:47:d6:58:24:02:94:54:9b:27:19:64:5c:b3:48:
                    65:71:e7:1c:88:c2:1e:5f:0a:37:64:b9:b2:12:4e:
                    f9:2f:de:27:20:5e:62:ba:d2:9e:bf:f1:5f:45:00:
                    3f:93:00:90:0e:a4:89:6a:41:8d:fc:1d:08:bc:34:
                    3f:04:de:0e:13:bd:14:8d:5f:10:30:0b:3b:6c:58:
                    77:66:04:b1:55:b8:10:09:88:4c:b9:d3:d3:e5:48:
                    79:44:60:36:eb:f3:1a:1f:95:95:89:4e:d4:5d:63:
                    18:0b:f2:7f:d5:d4:15:93:5c:82:48:1f:17:fb:11:
                    1f:66:93:51:18:58:e0:70:a4:4b:1d:a0:6f:6d:3e:
                    44:25:b8:f4:c6:46:a2:4f:c9:dc:53:e3:ff:a5:f9:
                    f7:80:5e:8b:0e:80:ee:b3:1d:22:42:96:d3:2d:97:
                    66:ab:64:a9:8a:42:41:29:4a:b2:23:0e:68:ee:83:
                    cf:b1:57:78:63:07:c7:db:e7:8d:37:ed:4b:b6:f7:
                    3d:3b:d9:c4:ec:f8:d8:14:c5:94:2f:2d:25:2f:39:
                    61:82:8a:c7:7f:94:a7:06:ef:3d:69:ff:d5:64:b8:
                    60:89:0a:c9:37:41:a1:05:cf:43:2c:a6:ac:7e:00:
                    45:62:ea:85:64:be:73:b5:8a:ea:5e:18:33:0b:de:
                    60:e6:88:98:6c:6f:34:0c:e7:2b:e0:49:48:73:bd:
                    7e:ee:cb:a1:6b:55:ec:ef:b2:06:5b:bc:36:3b:01:
                    07:12:99:1b:f1:cb:22:5d:05:46:b7:17:74:5d:3e:
                    10:c2:03:fa:7b:31:68:7f:24:7a:86:7a:f2:86:d6:
                    47:6b:56:1c:c9:86:be:e3:da:8d:18:8b:3f:74:76:
                    ac:e5:65:b9:d9:fa:23:33:46:09:e9:67:01:b9:98:
                    4b:9e:23:08:fa:02:03:a5:58:9c:99:89:a0:b8:35:
                    8b:32:07:b1:1a:80:10:8d:e2:b0:e5:80:dd:59:48:
                    61:fa:79:b8:f2:80:bf:42:5c:05:09:d0:31:3f:fd:
                    03:d0:80:1c:96:c2:f6:df:f6:08:44:1a:5f:f4:d7:
                    ee:63:9f:0b:ec:62:b7:3d:2a:e3:f7:ad:8a:42:fd:
                    c3:6d:66:d6:47:d1:b6:dd:cf:f2:10:66:53:25:7b:
                    86:d9:2b
                Exponent: 65537 (0x10001)
        X509v3 extensions:
            X509v3 Basic Constraints: 
                CA:FALSE
            Netscape Comment: 
                Easy-RSA Generated Certificate
            X509v3 Subject Key Identifier: 
                CF:9D:9B:F1:70:09:78:94:C7:FE:E5:E7:92:98:3A:7A:81:D3:85:EE
            X509v3 Authority Key Identifier: 
                keyid:12:CD:60:04:D2:A0:80:9E:70:ED:C6:99:B8:7B:2C:C6:52:FD:19:A1
                DirName:/C=US/ST=OH/L=Columbus/O=VikingVPN/OU=MyOrganizationalUnit/CN=VikingVPN CA/name=EasyRSA/emailAddress=me@myhost.mydomain
                serial:CF:35:85:EE:80:BF:2A:3E

            X509v3 Extended Key Usage: 
                TLS Web Client Authentication
            X509v3 Key Usage: 
                Digital Signature
    Signature Algorithm: md5WithRSAEncryption
         58:62:59:6e:a5:fe:e9:c7:bf:6f:1f:4b:d7:a3:d1:10:ec:79:
         43:16:ba:4e:82:06:5d:8c:17:19:9f:dc:b8:90:7d:95:dd:c7:
         a2:d2:60:d6:b9:48:53:e4:8c:b4:3f:cd:7d:e9:74:3b:91:ea:
         2d:79:0f:77:e8:67:cb:5f:c0:fd:a5:4f:2b:49:d5:36:2a:f7:
         6d:11:fa:67:50:68:54:70:92:64:fb:d1:cf:07:bd:ef:95:a8:
         42:f5:30:98:e5:fa:40:cd:90:d0:59:8f:71:7b:9b:f9:29:52:
         f4:2f:70:99:f7:6b:e5:d3:fc:78:b6:37:69:47:e1:81:93:4c:
         e6:dc:48:9f:71:e3:bd:da:a1:2e:92:0b:3b:aa:da:67:2e:13:
         46:e9:cf:1d:47:61:e0:19:3e:83:20:54:06:ef:0d:2b:c9:9d:
         5b:9a:1a:e2:d1:5a:fd:b4:7a:ef:cd:a0:61:f1:c6:d5:b8:e6:
         9d:ee:b4:4a:cd:37:15:d1:8e:4f:de:6c:b0:76:87:9b:e5:41:
         d3:45:88:0a:a8:d5:22:7e:57:80:5c:a2:c5:3d:10:4f:0f:ff:
         a3:e5:b5:15:6c:7b:d2:85:50:2c:5c:cb:e1:16:88:94:69:85:
         45:1f:0b:e9:f9:8c:38:c0:ff:a3:c4:e2:b8:ce:18:ae:11:1c:
         fb:63:79:0c:20:10:4d:e8:4e:4f:f0:ec:1b:10:14:4d:c1:0c:
         2c:bd:9d:99:d3:c7:ef:11:cc:3b:c9:fe:b6:5d:1b:8d:b0:f0:
         16:b5:e0:48:b3:2b:16:34:64:89:9d:14:3c:2c:3f:12:7b:86:
         e3:49:57:c4:ae:ac:b4:aa:ad:8c:df:56:b5:15:4b:8b:93:06:
         8c:a1:ef:ab:90:79:e3:09:ed:ae:2e:c2:6f:b2:0b:29:95:0a:
         4f:9b:bc:b1:5d:17:cb:74:83:92:98:08:31:7f:94:4f:35:db:
         8c:15:7d:d5:60:40:6a:5c:8f:e5:ea:eb:62:ec:ec:3b:8e:13:
         ee:ab:4e:15:fa:d9:4e:b3:88:f4:6d:24:c7:93:d3:34:62:61:
         fd:c5:31:ae:fa:d6:6c:90:07:62:a0:66:a1:60:bc:a8:9f:aa:
         01:9b:68:14:da:0f:d8:8c:92:c6:b2:cf:44:0b:d3:d6:b4:91:
         79:37:ab:b2:8a:82:04:f6:54:93:97:88:3f:72:ba:7a:b2:06:
         c9:3f:74:5e:5a:2b:79:01:01:a0:f7:b2:26:03:d3:1f:70:b1:
         96:5f:0f:ad:cb:7e:1e:44:28:c9:f0:04:f3:e4:23:f7:2b:5e:
         b3:2d:f9:dc:d2:16:b5:88:87:a7:fe:7e:3a:64:f1:d2:e7:40:
         76:27:7f:e9:88:de:20:56
-----BEGIN CERTIFICATE-----
MIIGrDCCBJSgAwIBAgICBlAwDQYJKoZIhvcNAQEEBQAwgawxCzAJBgNVBAYTAlVT
MQswCQYDVQQIEwJPSDERMA8GA1UEBxMIQ29sdW1idXMxEjAQBgNVBAoTCVZpa2lu
Z1ZQTjEdMBsGA1UECxMUTXlPcmdhbml6YXRpb25hbFVuaXQxFTATBgNVBAMTDFZp
a2luZ1ZQTiBDQTEQMA4GA1UEKRMHRWFzeVJTQTEhMB8GCSqGSIb3DQEJARYSbWVA
bXlob3N0Lm15ZG9tYWluMB4XDTE0MDQxNTE0NDUyNloXDTI0MDQxMjE0NDUyNlow
HjEcMBoGA1UEAxMTQ2xpZW50NTQ5Q2VydDc2NWQyMDCCAiIwDQYJKoZIhvcNAQEB
BQADggIPADCCAgoCggIBALUIIe4Y13/643JkI2oBFq4rc0QMKLA7YZNtaPYNNH29
zviKueyEfz2bLTHw05jTasLh6TGY34YIhZRRm5VGKHKXF2FMxRhRQRObAEfWWCQC
lFSbJxlkXLNIZXHnHIjCHl8KN2S5shJO+S/eJyBeYrrSnr/xX0UAP5MAkA6kiWpB
jfwdCLw0PwTeDhO9FI1fEDALO2xYd2YEsVW4EAmITLnT0+VIeURgNuvzGh+VlYlO
1F1jGAvyf9XUFZNcgkgfF/sRH2aTURhY4HCkSx2gb20+RCW49MZGok/J3FPj/6X5
94Beiw6A7rMdIkKW0y2XZqtkqYpCQSlKsiMOaO6Dz7FXeGMHx9vnjTftS7b3PTvZ
xOz42BTFlC8tJS85YYKKx3+UpwbvPWn/1WS4YIkKyTdBoQXPQyymrH4ARWLqhWS+
c7WK6l4YMwveYOaImGxvNAznK+BJSHO9fu7LoWtV7O+yBlu8NjsBBxKZG/HLIl0F
RrcXdF0+EMID+nsxaH8keoZ68obWR2tWHMmGvuPajRiLP3R2rOVludn6IzNGCeln
AbmYS54jCPoCA6VYnJmJoLg1izIHsRqAEI3isOWA3VlIYfp5uPKAv0JcBQnQMT/9
A9CAHJbC9t/2CEQaX/TX7mOfC+xitz0q4/etikL9w21m1kfRtt3P8hBmUyV7htkr
AgMBAAGjggFjMIIBXzAJBgNVHRMEAjAAMC0GCWCGSAGG+EIBDQQgFh5FYXN5LVJT
QSBHZW5lcmF0ZWQgQ2VydGlmaWNhdGUwHQYDVR0OBBYEFM+dm/FwCXiUx/7l55KY
OnqB04XuMIHhBgNVHSMEgdkwgdaAFBLNYATSoICecO3Gmbh7LMZS/RmhoYGypIGv
MIGsMQswCQYDVQQGEwJVUzELMAkGA1UECBMCT0gxETAPBgNVBAcTCENvbHVtYnVz
MRIwEAYDVQQKEwlWaWtpbmdWUE4xHTAbBgNVBAsTFE15T3JnYW5pemF0aW9uYWxV
bml0MRUwEwYDVQQDEwxWaWtpbmdWUE4gQ0ExEDAOBgNVBCkTB0Vhc3lSU0ExITAf
BgkqhkiG9w0BCQEWEm1lQG15aG9zdC5teWRvbWFpboIJAM81he6Avyo+MBMGA1Ud
JQQMMAoGCCsGAQUFBwMCMAsGA1UdDwQEAwIHgDANBgkqhkiG9w0BAQQFAAOCAgEA
WGJZbqX+6ce/bx9L16PREOx5Qxa6ToIGXYwXGZ/cuJB9ld3HotJg1rlIU+SMtD/N
fel0O5HqLXkPd+hny1/A/aVPK0nVNir3bRH6Z1BoVHCSZPvRzwe975WoQvUwmOX6
QM2Q0FmPcXub+SlS9C9wmfdr5dP8eLY3aUfhgZNM5txIn3HjvdqhLpILO6raZy4T
RunPHUdh4Bk+gyBUBu8NK8mdW5oa4tFa/bR6782gYfHG1bjmne60Ss03FdGOT95s
sHaHm+VB00WICqjVIn5XgFyixT0QTw//o+W1FWx70oVQLFzL4RaIlGmFRR8L6fmM
OMD/o8TiuM4YrhEc+2N5DCAQTehOT/DsGxAUTcEMLL2dmdPH7xHMO8n+tl0bjbDw
FrXgSLMrFjRkiZ0UPCw/EnuG40lXxK6stKqtjN9WtRVLi5MGjKHvq5B54wntri7C
b7ILKZUKT5u8sV0Xy3SDkpgIMX+UTzXbjBV91WBAalyP5errYuzsO44T7qtOFfrZ
TrOI9G0kx5PTNGJh/cUxrvrWbJAHYqBmoWC8qJ+qAZtoFNoP2IySxrLPRAvT1rSR
eTersoqCBPZUk5eIP3K6erIGyT90XloreQEBoPeyJgPTH3Cxll8Prct+HkQoyfAE
8+Qj9ytesy353NIWtYiHp/5+OmTx0udAdid/6YjeIFY=
-----END CERTIFICATE-----
