Certificate:
    Data:
        Version: 3 (0x2)
        Serial Number: 1618 (0x652)
    Signature Algorithm: md5WithRSAEncryption
        Issuer: C=US, ST=OH, L=Columbus, O=VikingVPN, OU=MyOrganizationalUnit, CN=VikingVPN CA/name=EasyRSA/emailAddress=me@myhost.mydomain
        Validity
            Not Before: Apr 15 15:39:28 2014 GMT
            Not After : Apr 12 15:39:28 2024 GMT
        Subject: CN=Client549Cert0f6a78
        Subject Public Key Info:
            Public Key Algorithm: rsaEncryption
                Public-Key: (4096 bit)
                Modulus:
                    00:d1:4a:67:92:d6:2a:85:9b:57:32:bf:e6:74:70:
                    60:38:f1:0c:0a:3e:7e:87:4a:b7:1a:2a:eb:2e:a0:
                    ad:e4:ea:c7:c3:a6:7f:fe:59:99:8f:bd:19:88:6c:
                    52:f1:a0:da:16:ff:b0:97:30:e4:76:ed:fc:41:dc:
                    e3:f9:af:9c:bc:fa:31:aa:e4:9a:c9:a8:aa:d9:be:
                    27:8c:f8:b1:2c:67:de:62:51:1c:be:fa:01:d8:03:
                    82:b5:71:38:59:30:31:d8:e3:de:21:29:a5:9e:c0:
                    28:5a:0c:4e:34:24:c7:c9:05:91:72:1b:94:eb:bf:
                    38:6c:7c:c5:6e:c4:0e:20:16:f3:4b:66:a3:56:19:
                    47:67:c5:76:83:01:39:b6:39:77:14:01:94:f1:19:
                    73:fb:27:88:ea:3e:46:fd:ba:a5:4d:91:56:33:b4:
                    09:9f:f9:d7:6b:c8:d4:36:91:8f:e1:2f:52:8b:11:
                    07:e9:a2:3b:ce:36:54:6a:a0:41:d3:4a:ff:a7:f5:
                    91:23:9f:0c:31:aa:79:87:2f:e4:9a:98:b7:45:fa:
                    fb:d1:e4:54:43:f5:37:56:fe:39:81:a7:df:f8:a8:
                    a4:54:87:f8:7c:90:95:2d:c6:52:af:f0:88:3c:ee:
                    52:50:f4:d5:b4:24:f7:5f:ca:d2:2d:d0:52:df:98:
                    eb:5f:3d:72:d1:58:9f:2a:68:54:73:7c:a8:26:3e:
                    5a:3f:b8:6c:36:cf:8b:2d:75:8d:f6:f4:fa:a0:27:
                    fd:87:3c:2d:e3:5d:38:96:7d:d2:f2:df:ac:1c:44:
                    77:c6:88:dc:21:34:70:58:48:a8:51:4c:b7:67:01:
                    79:53:6e:53:d2:95:09:38:26:52:61:74:58:e9:7a:
                    2c:22:11:16:3c:9a:87:4d:cb:44:6e:38:71:30:97:
                    a1:81:73:67:f6:22:69:d0:6d:47:80:83:f8:d6:fb:
                    ca:9e:c9:0f:82:12:f5:61:1f:e7:dc:ee:53:3a:9c:
                    ee:0c:54:c5:40:a6:eb:f9:e3:44:db:a8:8f:c3:79:
                    21:ea:42:88:7d:80:49:50:e7:06:8b:7a:c7:09:cd:
                    65:f6:a2:b3:48:63:ce:e4:7c:16:46:dc:39:2f:42:
                    94:3d:03:7d:77:df:1e:76:fa:87:6c:b0:ca:56:d9:
                    b6:a7:4b:c1:55:bd:26:19:5c:d2:5c:33:55:d2:80:
                    d3:35:be:65:f5:52:64:7b:69:68:20:ef:be:6b:d8:
                    4a:49:5c:bd:58:8d:12:15:99:6a:4d:6e:b1:0f:ae:
                    d4:00:2d:28:50:a6:a7:3d:88:66:ed:17:7a:d0:2a:
                    fa:64:68:0e:96:35:43:22:56:b7:99:61:65:27:29:
                    72:2c:c3
                Exponent: 65537 (0x10001)
        X509v3 extensions:
            X509v3 Basic Constraints: 
                CA:FALSE
            Netscape Comment: 
                Easy-RSA Generated Certificate
            X509v3 Subject Key Identifier: 
                68:31:4B:B3:26:40:04:AA:25:51:5D:31:9B:45:87:1E:7F:00:F0:66
            X509v3 Authority Key Identifier: 
                keyid:12:CD:60:04:D2:A0:80:9E:70:ED:C6:99:B8:7B:2C:C6:52:FD:19:A1
                DirName:/C=US/ST=OH/L=Columbus/O=VikingVPN/OU=MyOrganizationalUnit/CN=VikingVPN CA/name=EasyRSA/emailAddress=me@myhost.mydomain
                serial:CF:35:85:EE:80:BF:2A:3E

            X509v3 Extended Key Usage: 
                TLS Web Client Authentication
            X509v3 Key Usage: 
                Digital Signature
    Signature Algorithm: md5WithRSAEncryption
         d3:25:0e:5b:cf:61:f1:45:08:40:98:36:5e:79:6f:92:db:fd:
         5f:c5:62:1d:37:2c:7d:65:54:1a:c7:b4:49:26:b7:ad:d2:b6:
         1b:6f:c3:ff:cf:f6:81:80:32:e0:0d:92:02:5e:7b:66:25:22:
         85:eb:13:c3:35:f9:d3:91:b6:49:ff:37:6c:47:59:a1:a3:37:
         73:98:19:3c:a1:ed:64:27:10:d5:6b:4e:0f:7d:45:98:27:79:
         1d:49:13:c3:61:7d:d6:e7:af:13:d7:be:d5:f8:2f:6f:eb:bf:
         4d:0c:a2:7e:0b:af:76:6e:b4:c7:08:ac:8c:7a:90:56:f5:39:
         df:72:36:5c:50:4b:b6:0b:55:a8:1c:16:ce:b8:3c:78:37:6d:
         f1:6d:b4:4b:ca:19:4e:87:c1:6d:43:1c:2e:75:95:3e:91:b0:
         6e:36:a3:46:90:20:a1:8f:0a:67:41:19:08:bd:1f:7e:47:3f:
         88:b6:4c:a1:16:94:e6:df:d9:46:5a:d6:d5:6a:0a:31:a6:40:
         80:19:b3:b8:9c:56:19:91:87:a1:27:bf:7d:42:f4:34:66:f8:
         8f:88:42:6f:2f:86:5c:fb:9b:46:02:5d:2b:7f:bf:1c:48:47:
         30:3e:be:7d:39:d7:d0:0c:5c:88:7a:26:e3:de:23:5a:35:28:
         e0:f7:15:48:2e:6e:ee:5b:48:53:42:b4:2c:5e:06:a2:5d:62:
         a1:f0:b8:bc:1d:88:22:78:72:de:5f:b1:6c:23:da:18:aa:fc:
         1c:06:62:69:6a:c9:d0:a3:9b:48:4c:26:af:e6:f1:75:f6:6a:
         a4:00:6e:8d:58:3f:66:cc:b5:d5:f9:8c:15:fe:a2:ce:83:cd:
         03:4a:f5:72:b0:b4:0d:05:76:d9:6b:b0:66:f2:72:52:ac:fe:
         15:3a:32:66:a2:91:de:bf:49:ea:79:1e:ab:2d:e7:f5:72:d5:
         59:ad:54:a6:f4:f9:a3:fd:98:5c:22:a4:bb:9a:c8:24:ca:d4:
         f2:5f:ad:7f:3e:8a:f8:e5:79:07:16:c9:03:14:55:13:36:4a:
         f4:5f:c5:17:6f:b1:8e:d3:c5:3a:14:68:34:0e:fb:23:c2:55:
         04:6d:2a:c6:7d:82:1f:e1:a2:6a:95:b4:9d:f0:93:cd:fb:63:
         09:0a:a1:aa:4f:0d:09:67:2b:57:c7:81:44:f4:4c:fa:c4:a5:
         63:89:0e:d3:d8:85:32:42:70:36:ab:3c:2e:57:70:1e:fc:68:
         03:42:b3:3e:c9:c4:68:3f:3b:68:d7:2a:cf:d4:61:7b:c0:f1:
         e3:d2:cd:08:88:d0:67:44:a8:bf:45:a4:e4:5d:93:e1:5d:8a:
         35:0d:5e:b5:37:72:45:13
-----BEGIN CERTIFICATE-----
MIIGrDCCBJSgAwIBAgICBlIwDQYJKoZIhvcNAQEEBQAwgawxCzAJBgNVBAYTAlVT
MQswCQYDVQQIEwJPSDERMA8GA1UEBxMIQ29sdW1idXMxEjAQBgNVBAoTCVZpa2lu
Z1ZQTjEdMBsGA1UECxMUTXlPcmdhbml6YXRpb25hbFVuaXQxFTATBgNVBAMTDFZp
a2luZ1ZQTiBDQTEQMA4GA1UEKRMHRWFzeVJTQTEhMB8GCSqGSIb3DQEJARYSbWVA
bXlob3N0Lm15ZG9tYWluMB4XDTE0MDQxNTE1MzkyOFoXDTI0MDQxMjE1MzkyOFow
HjEcMBoGA1UEAxMTQ2xpZW50NTQ5Q2VydDBmNmE3ODCCAiIwDQYJKoZIhvcNAQEB
BQADggIPADCCAgoCggIBANFKZ5LWKoWbVzK/5nRwYDjxDAo+fodKtxoq6y6greTq
x8Omf/5ZmY+9GYhsUvGg2hb/sJcw5Hbt/EHc4/mvnLz6Markmsmoqtm+J4z4sSxn
3mJRHL76AdgDgrVxOFkwMdjj3iEppZ7AKFoMTjQkx8kFkXIblOu/OGx8xW7EDiAW
80tmo1YZR2fFdoMBObY5dxQBlPEZc/sniOo+Rv26pU2RVjO0CZ/512vI1DaRj+Ev
UosRB+miO842VGqgQdNK/6f1kSOfDDGqeYcv5JqYt0X6+9HkVEP1N1b+OYGn3/io
pFSH+HyQlS3GUq/wiDzuUlD01bQk91/K0i3QUt+Y6189ctFYnypoVHN8qCY+Wj+4
bDbPiy11jfb0+qAn/Yc8LeNdOJZ90vLfrBxEd8aI3CE0cFhIqFFMt2cBeVNuU9KV
CTgmUmF0WOl6LCIRFjyah03LRG44cTCXoYFzZ/YiadBtR4CD+Nb7yp7JD4IS9WEf
59zuUzqc7gxUxUCm6/njRNuoj8N5IepCiH2ASVDnBot6xwnNZfais0hjzuR8Fkbc
OS9ClD0DfXffHnb6h2ywylbZtqdLwVW9Jhlc0lwzVdKA0zW+ZfVSZHtpaCDvvmvY
SklcvViNEhWZak1usQ+u1AAtKFCmpz2IZu0XetAq+mRoDpY1QyJWt5lhZScpcizD
AgMBAAGjggFjMIIBXzAJBgNVHRMEAjAAMC0GCWCGSAGG+EIBDQQgFh5FYXN5LVJT
QSBHZW5lcmF0ZWQgQ2VydGlmaWNhdGUwHQYDVR0OBBYEFGgxS7MmQASqJVFdMZtF
hx5/APBmMIHhBgNVHSMEgdkwgdaAFBLNYATSoICecO3Gmbh7LMZS/RmhoYGypIGv
MIGsMQswCQYDVQQGEwJVUzELMAkGA1UECBMCT0gxETAPBgNVBAcTCENvbHVtYnVz
MRIwEAYDVQQKEwlWaWtpbmdWUE4xHTAbBgNVBAsTFE15T3JnYW5pemF0aW9uYWxV
bml0MRUwEwYDVQQDEwxWaWtpbmdWUE4gQ0ExEDAOBgNVBCkTB0Vhc3lSU0ExITAf
BgkqhkiG9w0BCQEWEm1lQG15aG9zdC5teWRvbWFpboIJAM81he6Avyo+MBMGA1Ud
JQQMMAoGCCsGAQUFBwMCMAsGA1UdDwQEAwIHgDANBgkqhkiG9w0BAQQFAAOCAgEA
0yUOW89h8UUIQJg2Xnlvktv9X8ViHTcsfWVUGse0SSa3rdK2G2/D/8/2gYAy4A2S
Al57ZiUihesTwzX505G2Sf83bEdZoaM3c5gZPKHtZCcQ1WtOD31FmCd5HUkTw2F9
1uevE9e+1fgvb+u/TQyifguvdm60xwisjHqQVvU533I2XFBLtgtVqBwWzrg8eDdt
8W20S8oZTofBbUMcLnWVPpGwbjajRpAgoY8KZ0EZCL0ffkc/iLZMoRaU5t/ZRlrW
1WoKMaZAgBmzuJxWGZGHoSe/fUL0NGb4j4hCby+GXPubRgJdK3+/HEhHMD6+fTnX
0AxciHom494jWjUo4PcVSC5u7ltIU0K0LF4Gol1iofC4vB2IInhy3l+xbCPaGKr8
HAZiaWrJ0KObSEwmr+bxdfZqpABujVg/Zsy11fmMFf6izoPNA0r1crC0DQV22Wuw
ZvJyUqz+FToyZqKR3r9J6nkeqy3n9XLVWa1UpvT5o/2YXCKku5rIJMrU8l+tfz6K
+OV5BxbJAxRVEzZK9F/FF2+xjtPFOhRoNA77I8JVBG0qxn2CH+GiapW0nfCTzftj
CQqhqk8NCWcrV8eBRPRM+sSlY4kO09iFMkJwNqs8LldwHvxoA0KzPsnEaD87aNcq
z9Rhe8Dx49LNCIjQZ0Sov0Wk5F2T4V2KNQ1etTdyRRM=
-----END CERTIFICATE-----
