Certificate:
    Data:
        Version: 3 (0x2)
        Serial Number: 1620 (0x654)
    Signature Algorithm: md5WithRSAEncryption
        Issuer: C=US, ST=OH, L=Columbus, O=VikingVPN, OU=MyOrganizationalUnit, CN=VikingVPN CA/name=EasyRSA/emailAddress=me@myhost.mydomain
        Validity
            Not Before: Apr 15 18:13:14 2014 GMT
            Not After : Apr 12 18:13:14 2024 GMT
        Subject: CN=Client535Cert5ebd6a
        Subject Public Key Info:
            Public Key Algorithm: rsaEncryption
                Public-Key: (4096 bit)
                Modulus:
                    00:ba:c7:76:a7:ff:0f:b6:0f:5c:24:46:ca:54:3b:
                    d1:80:f6:e8:16:d7:aa:9e:ce:cd:0b:de:3a:cd:7e:
                    6a:c7:f5:ad:e4:0b:16:ec:61:06:1f:29:2b:e0:0f:
                    2f:a3:f5:04:45:8d:98:76:c7:35:3d:ab:14:85:a8:
                    b3:5f:a9:0c:e3:24:75:fe:c6:58:ce:a2:5f:16:56:
                    8a:af:a8:92:3f:0f:69:bd:5e:1c:e1:4a:1b:a1:f3:
                    c7:e5:02:f8:da:20:7c:f2:3e:41:60:f2:f5:f3:47:
                    bb:94:ad:f5:cb:8b:f6:76:e6:f5:2b:7f:85:73:8e:
                    e8:a1:b3:2d:18:bf:84:f9:04:78:ff:74:cd:3e:c0:
                    b9:90:d7:25:5e:9e:32:8e:62:2d:2c:fc:ab:03:57:
                    b5:dd:da:4c:aa:46:7b:98:68:75:ef:e4:e4:f5:74:
                    57:c5:c4:0f:19:63:de:6f:23:12:ac:f6:c9:fa:53:
                    4f:e6:94:4a:3d:8b:45:9f:18:b8:c6:a8:b9:83:44:
                    2a:ba:5e:22:f0:18:16:bd:39:33:28:bf:8c:04:e4:
                    0c:2f:16:bb:6d:28:2c:54:62:89:7c:95:c3:22:e4:
                    cc:31:36:3c:01:2a:6b:41:c5:0e:37:2c:61:13:4f:
                    b6:1e:17:53:a3:e6:c3:88:d7:d6:f9:da:34:c2:bf:
                    e7:c9:c4:57:2a:43:58:e2:3d:4d:e0:41:b7:91:a2:
                    9f:62:0d:1a:62:87:76:57:e8:3c:84:3f:33:cd:c4:
                    97:72:d4:2c:5d:b4:5e:7d:aa:32:d8:c9:19:ef:0e:
                    e0:f7:9e:10:67:09:53:8a:17:8e:d3:dd:87:1c:31:
                    95:70:7d:d5:e6:de:ab:e6:2a:2b:8f:71:09:f0:67:
                    ad:98:fc:32:e7:79:85:0e:6b:9a:ff:41:a1:3a:98:
                    06:6f:88:48:31:0f:c1:30:71:27:aa:9f:80:3b:48:
                    ef:d8:2c:17:c6:dc:53:66:3f:d6:01:33:c2:1b:ad:
                    d5:cc:86:21:c2:22:50:52:3f:c2:04:bf:c3:56:70:
                    e8:8d:8f:04:76:34:dc:b4:25:95:a1:f6:58:6f:e4:
                    a4:ff:22:87:1e:17:14:68:9d:6b:10:44:21:75:f8:
                    7a:99:62:5c:ef:57:93:26:c2:01:b2:00:d6:d7:c6:
                    ed:48:07:4a:fd:fb:40:74:75:52:76:92:d5:2b:f9:
                    78:a2:00:8a:5f:7c:c9:58:9d:4a:96:82:8d:f5:48:
                    80:31:13:c9:db:5e:ad:2b:21:90:e4:c4:e5:83:7e:
                    26:73:34:49:b6:23:07:c5:da:75:de:ac:37:9d:67:
                    a8:d9:10:59:06:df:a5:0a:f2:6d:1b:2c:c8:01:ff:
                    a0:0c:01
                Exponent: 65537 (0x10001)
        X509v3 extensions:
            X509v3 Basic Constraints: 
                CA:FALSE
            Netscape Comment: 
                Easy-RSA Generated Certificate
            X509v3 Subject Key Identifier: 
                E3:18:AE:82:58:DE:CF:A2:FD:47:C6:27:26:D5:72:6B:F7:BE:61:92
            X509v3 Authority Key Identifier: 
                keyid:12:CD:60:04:D2:A0:80:9E:70:ED:C6:99:B8:7B:2C:C6:52:FD:19:A1
                DirName:/C=US/ST=OH/L=Columbus/O=VikingVPN/OU=MyOrganizationalUnit/CN=VikingVPN CA/name=EasyRSA/emailAddress=me@myhost.mydomain
                serial:CF:35:85:EE:80:BF:2A:3E

            X509v3 Extended Key Usage: 
                TLS Web Client Authentication
            X509v3 Key Usage: 
                Digital Signature
    Signature Algorithm: md5WithRSAEncryption
         00:a6:84:f2:d0:e5:6f:5f:df:d8:98:e5:c6:16:09:3e:02:73:
         4c:e6:26:0e:63:cd:7c:7d:d6:a7:80:7d:84:3e:46:83:b2:c5:
         df:a2:6c:f5:81:8f:af:f0:36:69:ef:49:fa:48:d8:6e:04:8d:
         13:20:cf:e7:f9:ee:e2:e2:ae:92:66:a3:2c:b8:94:eb:44:9d:
         b5:62:bb:16:4f:2d:4d:85:ea:a4:dd:a8:07:a8:f7:e6:8a:15:
         9d:1b:d8:4a:ec:5f:ed:fe:ec:c5:ec:23:44:bf:0c:6e:3b:85:
         6e:b3:06:46:12:2e:bb:07:94:3d:60:d3:63:b5:68:80:27:9f:
         c0:51:83:01:c1:94:f1:98:ea:ee:cb:ab:c1:3a:29:63:38:ef:
         ab:65:bd:4f:d9:3f:32:52:6e:f6:a5:45:61:26:ab:8c:5a:55:
         d3:51:58:3a:6c:94:f1:9c:3e:d4:58:f1:79:fe:8c:a6:98:69:
         1f:18:a0:e0:ba:55:e2:08:d8:14:21:32:c1:58:df:39:8d:d0:
         41:df:2f:1b:62:6e:74:3a:9c:e5:d6:c8:59:81:62:13:e6:fb:
         e5:23:16:f6:c4:5a:3e:bc:67:9a:17:67:5f:ef:d7:05:81:bc:
         4d:06:09:11:b4:68:53:5c:65:ba:88:d7:da:1f:6c:9d:b3:1a:
         1e:01:79:b1:37:60:9d:3e:b4:10:ec:32:01:bc:c7:3d:53:c5:
         2f:80:e5:85:5b:66:98:15:4c:54:6e:b9:7b:3b:5c:2c:74:da:
         2f:db:03:07:fe:4b:cc:9c:3e:b8:71:a1:21:b1:7c:f1:d4:da:
         09:c7:78:ad:72:21:47:fe:5a:02:da:78:bc:6a:c2:2d:e9:85:
         b1:21:6f:d4:36:8d:27:ee:6f:7c:cb:3f:9d:89:f3:0a:56:50:
         47:19:2a:04:c6:fc:e0:1f:88:1f:22:8f:1f:d8:d1:95:b8:6b:
         b0:5b:1c:54:00:78:3a:fc:9c:78:39:3d:9e:de:ea:e6:ec:e1:
         8b:6d:a3:ef:7a:60:0f:fb:86:dc:3e:74:19:aa:c7:82:c4:ca:
         86:20:56:c2:2d:bd:01:df:2f:52:a3:4a:20:72:43:f3:a6:94:
         74:a2:6d:97:c3:f7:dd:c2:ae:50:fe:d3:9c:d9:a4:ae:13:6c:
         d1:6b:ed:f8:c3:97:93:dd:fe:db:71:4c:3b:2c:f2:05:a4:3a:
         5a:ce:aa:be:97:74:ea:b3:75:c6:97:e9:89:3b:bf:5f:60:36:
         81:ff:49:a7:35:df:7c:93:0f:fa:18:25:0e:55:60:22:94:46:
         95:3f:2e:2b:d0:5e:5e:5a:71:6d:b2:98:73:74:47:4b:a1:7f:
         77:60:50:a8:e5:8d:11:76
-----BEGIN CERTIFICATE-----
MIIGrDCCBJSgAwIBAgICBlQwDQYJKoZIhvcNAQEEBQAwgawxCzAJBgNVBAYTAlVT
MQswCQYDVQQIEwJPSDERMA8GA1UEBxMIQ29sdW1idXMxEjAQBgNVBAoTCVZpa2lu
Z1ZQTjEdMBsGA1UECxMUTXlPcmdhbml6YXRpb25hbFVuaXQxFTATBgNVBAMTDFZp
a2luZ1ZQTiBDQTEQMA4GA1UEKRMHRWFzeVJTQTEhMB8GCSqGSIb3DQEJARYSbWVA
bXlob3N0Lm15ZG9tYWluMB4XDTE0MDQxNTE4MTMxNFoXDTI0MDQxMjE4MTMxNFow
HjEcMBoGA1UEAxMTQ2xpZW50NTM1Q2VydDVlYmQ2YTCCAiIwDQYJKoZIhvcNAQEB
BQADggIPADCCAgoCggIBALrHdqf/D7YPXCRGylQ70YD26BbXqp7OzQveOs1+asf1
reQLFuxhBh8pK+APL6P1BEWNmHbHNT2rFIWos1+pDOMkdf7GWM6iXxZWiq+okj8P
ab1eHOFKG6Hzx+UC+NogfPI+QWDy9fNHu5St9cuL9nbm9St/hXOO6KGzLRi/hPkE
eP90zT7AuZDXJV6eMo5iLSz8qwNXtd3aTKpGe5hode/k5PV0V8XEDxlj3m8jEqz2
yfpTT+aUSj2LRZ8YuMaouYNEKrpeIvAYFr05Myi/jATkDC8Wu20oLFRiiXyVwyLk
zDE2PAEqa0HFDjcsYRNPth4XU6Pmw4jX1vnaNMK/58nEVypDWOI9TeBBt5Gin2IN
GmKHdlfoPIQ/M83El3LULF20Xn2qMtjJGe8O4PeeEGcJU4oXjtPdhxwxlXB91ebe
q+YqK49xCfBnrZj8Mud5hQ5rmv9BoTqYBm+ISDEPwTBxJ6qfgDtI79gsF8bcU2Y/
1gEzwhut1cyGIcIiUFI/wgS/w1Zw6I2PBHY03LQllaH2WG/kpP8ihx4XFGidaxBE
IXX4epliXO9XkybCAbIA1tfG7UgHSv37QHR1UnaS1Sv5eKIAil98yVidSpaCjfVI
gDETydterSshkOTE5YN+JnM0SbYjB8Xadd6sN51nqNkQWQbfpQrybRssyAH/oAwB
AgMBAAGjggFjMIIBXzAJBgNVHRMEAjAAMC0GCWCGSAGG+EIBDQQgFh5FYXN5LVJT
QSBHZW5lcmF0ZWQgQ2VydGlmaWNhdGUwHQYDVR0OBBYEFOMYroJY3s+i/UfGJybV
cmv3vmGSMIHhBgNVHSMEgdkwgdaAFBLNYATSoICecO3Gmbh7LMZS/RmhoYGypIGv
MIGsMQswCQYDVQQGEwJVUzELMAkGA1UECBMCT0gxETAPBgNVBAcTCENvbHVtYnVz
MRIwEAYDVQQKEwlWaWtpbmdWUE4xHTAbBgNVBAsTFE15T3JnYW5pemF0aW9uYWxV
bml0MRUwEwYDVQQDEwxWaWtpbmdWUE4gQ0ExEDAOBgNVBCkTB0Vhc3lSU0ExITAf
BgkqhkiG9w0BCQEWEm1lQG15aG9zdC5teWRvbWFpboIJAM81he6Avyo+MBMGA1Ud
JQQMMAoGCCsGAQUFBwMCMAsGA1UdDwQEAwIHgDANBgkqhkiG9w0BAQQFAAOCAgEA
AKaE8tDlb1/f2JjlxhYJPgJzTOYmDmPNfH3Wp4B9hD5Gg7LF36Js9YGPr/A2ae9J
+kjYbgSNEyDP5/nu4uKukmajLLiU60SdtWK7Fk8tTYXqpN2oB6j35ooVnRvYSuxf
7f7sxewjRL8MbjuFbrMGRhIuuweUPWDTY7VogCefwFGDAcGU8Zjq7surwTopYzjv
q2W9T9k/MlJu9qVFYSarjFpV01FYOmyU8Zw+1Fjxef6MpphpHxig4LpV4gjYFCEy
wVjfOY3QQd8vG2JudDqc5dbIWYFiE+b75SMW9sRaPrxnmhdnX+/XBYG8TQYJEbRo
U1xluojX2h9snbMaHgF5sTdgnT60EOwyAbzHPVPFL4DlhVtmmBVMVG65eztcLHTa
L9sDB/5LzJw+uHGhIbF88dTaCcd4rXIhR/5aAtp4vGrCLemFsSFv1DaNJ+5vfMs/
nYnzClZQRxkqBMb84B+IHyKPH9jRlbhrsFscVAB4OvyceDk9nt7q5uzhi22j73pg
D/uG3D50GarHgsTKhiBWwi29Ad8vUqNKIHJD86aUdKJtl8P33cKuUP7TnNmkrhNs
0Wvt+MOXk93+23FMOyzyBaQ6Ws6qvpd06rN1xpfpiTu/X2A2gf9JpzXffJMP+hgl
DlVgIpRGlT8uK9BeXlpxbbKYc3RHS6F/d2BQqOWNEXY=
-----END CERTIFICATE-----
