Certificate:
    Data:
        Version: 3 (0x2)
        Serial Number: 1624 (0x658)
    Signature Algorithm: md5WithRSAEncryption
        Issuer: C=US, ST=OH, L=Columbus, O=VikingVPN, OU=MyOrganizationalUnit, CN=VikingVPN CA/name=EasyRSA/emailAddress=me@myhost.mydomain
        Validity
            Not Before: Apr 15 19:20:25 2014 GMT
            Not After : Apr 12 19:20:25 2024 GMT
        Subject: CN=Client585Cert8fb488
        Subject Public Key Info:
            Public Key Algorithm: rsaEncryption
                Public-Key: (4096 bit)
                Modulus:
                    00:a5:d5:96:b4:d6:22:48:4d:42:8b:c6:ed:3d:c6:
                    9a:4d:16:a8:f4:0c:23:4c:be:a9:80:cf:54:ea:2c:
                    ab:f6:5e:1a:b1:46:d5:1a:12:3e:a0:d6:83:7d:02:
                    3d:31:12:48:2b:91:d6:49:c4:86:35:23:a5:0b:77:
                    af:73:be:39:f8:1c:35:68:4a:84:50:49:7e:64:ae:
                    4d:7e:0b:38:af:8f:a3:5f:bd:ce:ed:53:27:9e:2c:
                    90:9d:1e:43:93:ed:0b:bd:31:de:2a:43:ab:8f:6e:
                    4b:c5:8a:c3:6f:f1:6c:2c:13:c6:aa:9b:bd:d9:61:
                    2d:73:e0:30:0c:f1:eb:da:30:9f:de:45:c5:a6:fd:
                    15:5c:45:9d:1d:a2:8c:a9:a7:ac:9e:5f:ba:79:9b:
                    86:37:f0:ed:ab:b6:44:de:ac:97:92:18:b8:01:a3:
                    b4:64:83:46:54:d6:28:db:e0:6c:17:00:64:37:2e:
                    8f:02:d7:a2:b1:fe:50:6d:c6:2a:50:a7:d0:f8:ce:
                    4e:5a:24:cb:c1:f9:41:62:21:d3:83:c8:0b:0b:ab:
                    50:8c:7e:fb:28:d1:d7:2a:f9:52:80:92:eb:16:58:
                    f9:93:42:c8:fe:42:06:57:c1:a7:83:9d:d9:af:c8:
                    4f:b8:0b:0e:5b:0e:53:0a:ea:6d:b1:15:cc:89:57:
                    5c:b6:4e:db:88:8d:0b:06:4e:55:e7:6b:00:ca:7b:
                    a6:db:d8:1c:1f:70:4c:19:db:e0:bc:9e:e5:1f:e6:
                    40:26:11:1c:32:0a:2d:6d:07:ee:3e:82:2e:1a:2a:
                    2c:d1:f6:52:88:f0:d6:26:d2:09:14:8f:4f:53:73:
                    a5:fe:95:4d:05:7d:65:cd:d3:3d:bb:32:82:05:7d:
                    45:8e:60:c2:a7:2a:7f:f2:17:c0:70:08:9d:9b:cd:
                    d7:3a:45:aa:f5:be:fe:0e:72:ae:2c:15:b8:ba:4b:
                    31:7b:36:c5:57:e3:8c:40:e0:b7:0f:f6:18:21:87:
                    e6:2a:eb:2b:f0:48:6a:43:29:2f:e8:f6:22:96:e6:
                    8f:a0:ab:b5:5d:eb:05:a3:70:14:bd:8e:4b:3c:8d:
                    4a:e5:94:da:4b:17:44:c3:ea:26:19:b8:a6:0c:53:
                    c0:d8:85:31:e1:eb:6b:2a:bb:4e:40:c8:b9:52:51:
                    99:10:ec:03:36:9c:1f:b6:a7:0b:73:77:c5:79:fe:
                    67:a8:c7:93:0d:d8:b2:1e:b5:ea:66:13:59:d9:7a:
                    31:d1:02:eb:f0:23:a9:5d:47:d0:95:6b:a9:bc:7f:
                    0d:1e:dd:97:20:82:dd:b8:c4:0b:a0:d9:9b:c3:70:
                    27:12:1b:03:8a:cb:b1:30:a1:c1:91:99:38:3d:1e:
                    23:ac:b3
                Exponent: 65537 (0x10001)
        X509v3 extensions:
            X509v3 Basic Constraints: 
                CA:FALSE
            Netscape Comment: 
                Easy-RSA Generated Certificate
            X509v3 Subject Key Identifier: 
                98:84:64:C4:9D:07:28:F6:C3:69:FE:F8:17:EF:08:4F:A2:A3:B9:6C
            X509v3 Authority Key Identifier: 
                keyid:12:CD:60:04:D2:A0:80:9E:70:ED:C6:99:B8:7B:2C:C6:52:FD:19:A1
                DirName:/C=US/ST=OH/L=Columbus/O=VikingVPN/OU=MyOrganizationalUnit/CN=VikingVPN CA/name=EasyRSA/emailAddress=me@myhost.mydomain
                serial:CF:35:85:EE:80:BF:2A:3E

            X509v3 Extended Key Usage: 
                TLS Web Client Authentication
            X509v3 Key Usage: 
                Digital Signature
    Signature Algorithm: md5WithRSAEncryption
         92:15:e1:17:ff:48:e8:4a:b6:15:8b:9e:21:d1:35:67:81:71:
         03:95:0a:54:cb:75:56:cc:29:d6:88:55:15:f3:d5:e7:68:9b:
         39:cd:28:b7:58:6b:cf:0b:82:20:2b:c0:b0:8f:5b:91:40:67:
         8a:63:09:5d:c9:e0:bd:11:2a:28:3d:90:db:0e:7b:3b:52:3e:
         ed:3c:f2:bb:f6:5b:3d:c6:80:4e:76:73:60:4d:c9:fd:37:b1:
         f5:f3:c4:d7:69:76:e3:e1:57:61:2b:e5:4e:d8:4d:34:e0:fa:
         96:46:4a:73:bf:01:c5:c8:66:55:b8:f7:0d:6e:45:9b:aa:a6:
         fb:20:61:a3:0d:a1:ad:b3:90:2c:93:2f:09:fc:ff:ef:c5:a9:
         9a:f6:44:97:02:d7:42:82:a3:43:6a:b5:19:5d:20:2a:1b:72:
         ca:4a:dc:47:cd:65:1c:a6:e0:3c:5a:5f:71:d7:6f:d4:b0:27:
         e0:81:5c:39:2b:1b:f2:ce:df:e2:82:ba:b9:c0:be:7c:5b:03:
         18:ef:39:b6:c4:c7:aa:e3:e3:ef:4c:ea:48:8c:71:8c:5a:ed:
         04:88:e5:8d:12:c8:68:8f:f3:33:65:f7:15:68:a4:c0:a6:56:
         5a:d3:8b:6f:9d:bb:a4:f0:c8:f7:5c:38:fe:70:c9:15:a4:f6:
         79:77:40:d4:1f:31:3a:cc:9f:e9:60:ef:58:15:a6:f5:55:4b:
         b3:dd:7a:1f:cd:80:d0:e9:2d:fd:4a:fb:fa:ba:e8:0b:04:f0:
         5d:85:f4:46:80:78:42:71:c7:6c:a6:96:12:43:78:05:c8:9e:
         93:da:d9:36:71:0c:0c:ec:0f:f4:7c:d9:21:af:a1:a2:3c:04:
         3f:d3:e3:eb:14:95:39:93:1d:c5:35:85:67:95:7e:18:e6:44:
         77:78:5c:4f:21:53:aa:66:79:6c:96:bc:a3:4e:54:cd:5a:81:
         69:49:de:bb:10:fb:ec:a1:34:ef:19:10:f7:cd:e0:1e:47:92:
         42:1b:fa:8a:7f:c3:88:29:b6:87:c6:a2:d4:91:b2:b2:ae:7a:
         b2:94:40:a2:3b:f8:45:f0:ac:10:06:9b:77:27:f9:93:eb:39:
         6d:54:72:36:a9:7e:08:1d:41:ca:a1:68:af:e1:ed:a9:77:bb:
         30:c4:b8:93:09:d1:78:47:1a:11:de:bb:04:7c:56:71:1a:c1:
         a8:41:29:0b:28:e4:05:48:53:06:43:a9:86:15:2e:75:65:08:
         aa:92:96:4a:63:22:63:a3:3c:83:b9:96:52:61:fc:5e:4f:c2:
         a8:0e:b3:8f:a0:31:45:54:69:56:fd:20:45:69:97:d2:7e:40:
         75:01:71:a7:8b:58:0d:5e
-----BEGIN CERTIFICATE-----
MIIGrDCCBJSgAwIBAgICBlgwDQYJKoZIhvcNAQEEBQAwgawxCzAJBgNVBAYTAlVT
MQswCQYDVQQIEwJPSDERMA8GA1UEBxMIQ29sdW1idXMxEjAQBgNVBAoTCVZpa2lu
Z1ZQTjEdMBsGA1UECxMUTXlPcmdhbml6YXRpb25hbFVuaXQxFTATBgNVBAMTDFZp
a2luZ1ZQTiBDQTEQMA4GA1UEKRMHRWFzeVJTQTEhMB8GCSqGSIb3DQEJARYSbWVA
bXlob3N0Lm15ZG9tYWluMB4XDTE0MDQxNTE5MjAyNVoXDTI0MDQxMjE5MjAyNVow
HjEcMBoGA1UEAxMTQ2xpZW50NTg1Q2VydDhmYjQ4ODCCAiIwDQYJKoZIhvcNAQEB
BQADggIPADCCAgoCggIBAKXVlrTWIkhNQovG7T3Gmk0WqPQMI0y+qYDPVOosq/Ze
GrFG1RoSPqDWg30CPTESSCuR1knEhjUjpQt3r3O+OfgcNWhKhFBJfmSuTX4LOK+P
o1+9zu1TJ54skJ0eQ5PtC70x3ipDq49uS8WKw2/xbCwTxqqbvdlhLXPgMAzx69ow
n95Fxab9FVxFnR2ijKmnrJ5funmbhjfw7au2RN6sl5IYuAGjtGSDRlTWKNvgbBcA
ZDcujwLXorH+UG3GKlCn0PjOTloky8H5QWIh04PICwurUIx++yjR1yr5UoCS6xZY
+ZNCyP5CBlfBp4Od2a/IT7gLDlsOUwrqbbEVzIlXXLZO24iNCwZOVedrAMp7ptvY
HB9wTBnb4Lye5R/mQCYRHDIKLW0H7j6CLhoqLNH2Uojw1ibSCRSPT1Nzpf6VTQV9
Zc3TPbsyggV9RY5gwqcqf/IXwHAInZvN1zpFqvW+/g5yriwVuLpLMXs2xVfjjEDg
tw/2GCGH5irrK/BIakMpL+j2Ipbmj6CrtV3rBaNwFL2OSzyNSuWU2ksXRMPqJhm4
pgxTwNiFMeHrayq7TkDIuVJRmRDsAzacH7anC3N3xXn+Z6jHkw3Ysh616mYTWdl6
MdEC6/AjqV1H0JVrqbx/DR7dlyCC3bjEC6DZm8NwJxIbA4rLsTChwZGZOD0eI6yz
AgMBAAGjggFjMIIBXzAJBgNVHRMEAjAAMC0GCWCGSAGG+EIBDQQgFh5FYXN5LVJT
QSBHZW5lcmF0ZWQgQ2VydGlmaWNhdGUwHQYDVR0OBBYEFJiEZMSdByj2w2n++Bfv
CE+io7lsMIHhBgNVHSMEgdkwgdaAFBLNYATSoICecO3Gmbh7LMZS/RmhoYGypIGv
MIGsMQswCQYDVQQGEwJVUzELMAkGA1UECBMCT0gxETAPBgNVBAcTCENvbHVtYnVz
MRIwEAYDVQQKEwlWaWtpbmdWUE4xHTAbBgNVBAsTFE15T3JnYW5pemF0aW9uYWxV
bml0MRUwEwYDVQQDEwxWaWtpbmdWUE4gQ0ExEDAOBgNVBCkTB0Vhc3lSU0ExITAf
BgkqhkiG9w0BCQEWEm1lQG15aG9zdC5teWRvbWFpboIJAM81he6Avyo+MBMGA1Ud
JQQMMAoGCCsGAQUFBwMCMAsGA1UdDwQEAwIHgDANBgkqhkiG9w0BAQQFAAOCAgEA
khXhF/9I6Eq2FYueIdE1Z4FxA5UKVMt1Vswp1ohVFfPV52ibOc0ot1hrzwuCICvA
sI9bkUBnimMJXcngvREqKD2Q2w57O1I+7Tzyu/ZbPcaATnZzYE3J/Tex9fPE12l2
4+FXYSvlTthNNOD6lkZKc78BxchmVbj3DW5Fm6qm+yBhow2hrbOQLJMvCfz/78Wp
mvZElwLXQoKjQ2q1GV0gKhtyykrcR81lHKbgPFpfcddv1LAn4IFcOSsb8s7f4oK6
ucC+fFsDGO85tsTHquPj70zqSIxxjFrtBIjljRLIaI/zM2X3FWikwKZWWtOLb527
pPDI91w4/nDJFaT2eXdA1B8xOsyf6WDvWBWm9VVLs916H82A0Okt/Ur7+rroCwTw
XYX0RoB4QnHHbKaWEkN4Bciek9rZNnEMDOwP9HzZIa+hojwEP9Pj6xSVOZMdxTWF
Z5V+GOZEd3hcTyFTqmZ5bJa8o05UzVqBaUneuxD77KE07xkQ983gHkeSQhv6in/D
iCm2h8ai1JGysq56spRAojv4RfCsEAabdyf5k+s5bVRyNql+CB1ByqFor+HtqXe7
MMS4kwnReEcaEd67BHxWcRrBqEEpCyjkBUhTBkOphhUudWUIqpKWSmMiY6M8g7mW
UmH8Xk/CqA6zj6AxRVRpVv0gRWmX0n5AdQFxp4tYDV4=
-----END CERTIFICATE-----
