Certificate:
    Data:
        Version: 3 (0x2)
        Serial Number: 1631 (0x65f)
    Signature Algorithm: md5WithRSAEncryption
        Issuer: C=US, ST=OH, L=Columbus, O=VikingVPN, OU=MyOrganizationalUnit, CN=VikingVPN CA/name=EasyRSA/emailAddress=me@myhost.mydomain
        Validity
            Not Before: Apr 16 00:38:35 2014 GMT
            Not After : Apr 13 00:38:35 2024 GMT
        Subject: CN=Client315Cert521319
        Subject Public Key Info:
            Public Key Algorithm: rsaEncryption
                Public-Key: (4096 bit)
                Modulus:
                    00:b5:9d:24:71:6f:a5:1f:88:0d:42:e1:85:c1:22:
                    99:2f:ad:f3:27:8b:db:3c:69:f5:ec:23:bc:a1:69:
                    85:56:48:ca:97:b0:8b:ab:4c:24:10:35:64:2d:03:
                    bd:38:4b:5b:c1:87:3b:b6:67:93:ac:c7:fd:cd:1a:
                    e6:75:b2:01:96:d5:ef:19:4e:3c:dc:1c:e9:64:11:
                    50:b8:66:13:c6:81:92:12:9e:e9:7a:67:e6:aa:7e:
                    9f:f7:6c:df:5f:6e:21:28:22:b7:bf:f7:bd:fd:6f:
                    19:a6:62:1a:1a:ba:84:80:cb:cc:8a:ec:71:f8:0d:
                    e5:3c:8d:20:5a:6d:67:9d:f3:00:fe:55:4a:2c:c0:
                    9a:25:2e:6c:66:89:94:92:e3:5b:18:19:14:b8:66:
                    d3:39:69:a9:1d:b8:be:54:75:a1:1c:cf:54:64:63:
                    a3:78:e3:74:e3:3c:8f:e7:01:6e:26:55:6d:f5:f8:
                    09:f1:d2:5e:65:60:9d:9c:19:b4:4f:13:56:9c:9e:
                    26:d1:39:4b:bb:a8:50:3e:dd:07:52:02:85:da:a0:
                    a6:ee:5c:76:67:16:87:09:08:4f:73:3f:ae:78:ba:
                    63:d9:ab:f2:ee:d7:38:9b:aa:3a:22:e5:12:ca:7a:
                    53:7b:d9:72:71:7d:58:fc:bb:78:21:50:2a:a6:8b:
                    62:d7:3d:72:9b:c2:7f:1a:7d:c1:e5:32:3a:e6:02:
                    ce:3f:b9:c3:23:b8:cc:e2:73:73:09:c9:cd:14:8f:
                    50:1f:8b:c5:91:dd:92:3e:a4:83:4d:c3:6c:37:b9:
                    0f:0c:af:42:29:55:09:11:ce:dd:e0:9f:49:38:ac:
                    de:0b:fc:83:fd:07:ab:71:1b:3f:de:08:a3:90:d4:
                    95:99:e9:63:ae:d0:81:cb:43:f4:de:5d:b3:a4:62:
                    0f:43:a3:a8:e2:9b:c9:3c:2f:00:06:38:87:5d:0a:
                    1f:e3:2d:39:60:a2:66:33:33:0a:88:06:60:5b:17:
                    a7:bc:20:b7:6b:39:db:d3:3c:1f:fd:a5:2a:93:13:
                    a4:18:37:6a:e7:bd:6d:0b:eb:ef:b9:22:e5:6b:c2:
                    75:12:bc:21:ed:44:56:54:cb:1a:cf:ce:81:4f:aa:
                    f9:18:e9:cf:0b:4b:f5:36:b6:9a:e9:83:05:ae:97:
                    d3:4d:9d:4c:5a:61:84:ec:49:b4:7d:88:f2:41:60:
                    45:58:e8:b4:c2:a5:6c:d4:54:71:be:1c:c0:59:69:
                    80:b9:9d:79:16:56:c7:94:3b:db:95:42:09:ce:7d:
                    fc:70:47:29:f1:cf:74:7c:e3:07:f2:24:d6:61:25:
                    73:9b:5c:38:8a:be:ce:fa:9f:cf:f3:a4:1a:b0:b9:
                    0c:d9:0d
                Exponent: 65537 (0x10001)
        X509v3 extensions:
            X509v3 Basic Constraints: 
                CA:FALSE
            Netscape Comment: 
                Easy-RSA Generated Certificate
            X509v3 Subject Key Identifier: 
                93:67:D1:65:87:2B:FF:41:4D:AF:93:BE:2C:03:A5:8E:98:2E:A0:D8
            X509v3 Authority Key Identifier: 
                keyid:12:CD:60:04:D2:A0:80:9E:70:ED:C6:99:B8:7B:2C:C6:52:FD:19:A1
                DirName:/C=US/ST=OH/L=Columbus/O=VikingVPN/OU=MyOrganizationalUnit/CN=VikingVPN CA/name=EasyRSA/emailAddress=me@myhost.mydomain
                serial:CF:35:85:EE:80:BF:2A:3E

            X509v3 Extended Key Usage: 
                TLS Web Client Authentication
            X509v3 Key Usage: 
                Digital Signature
    Signature Algorithm: md5WithRSAEncryption
         e4:11:f6:a5:96:30:67:c2:a9:6a:0a:b0:34:e6:f2:53:a7:ac:
         90:be:a9:b7:81:18:12:1a:68:5e:6f:95:7d:04:b5:fd:7b:43:
         32:d4:46:f2:72:18:2d:d6:a1:0a:92:54:15:d1:86:21:b1:47:
         8b:c4:bc:01:dd:df:f9:b5:8c:58:68:92:83:b3:fc:6e:c1:46:
         37:24:df:05:df:56:79:db:a6:97:1f:01:d4:5d:aa:03:46:2a:
         ad:ed:9f:83:0c:2c:b9:a0:da:95:1c:dc:aa:98:fe:3b:90:c7:
         de:12:df:c2:58:3e:9e:6a:99:2a:4c:20:d7:3a:4b:be:af:d5:
         45:41:a4:25:50:59:e6:9a:6e:48:53:c2:a8:fe:d0:d8:51:b7:
         17:c4:eb:f8:c7:27:78:23:3e:51:fd:9e:fc:6a:87:42:a2:a5:
         ae:83:76:4e:4d:9c:f7:ab:04:2e:55:a5:ef:bc:7f:7d:01:64:
         3e:00:4e:d3:b8:2b:1c:83:41:49:0d:2f:a8:2e:2e:30:1b:cd:
         11:9a:06:c5:de:ad:44:89:a3:2a:e0:46:c8:11:a0:ce:90:27:
         02:21:08:79:a9:e7:a9:eb:1e:a5:1d:93:57:c1:7b:b5:5a:b0:
         d7:44:d1:c3:0b:6d:66:62:58:71:7a:dc:64:fb:dd:c6:37:87:
         d2:c1:b5:a9:87:69:1a:67:35:6e:ad:41:59:95:92:c4:47:e8:
         43:c8:17:96:73:53:18:e6:92:85:87:d5:2f:42:b1:8c:f6:b8:
         ce:80:cb:79:ec:4b:86:67:d5:43:49:3f:62:d3:53:38:46:41:
         4c:14:4b:82:5b:5e:54:66:e3:a4:e6:c3:4d:2e:5c:18:29:b1:
         26:6e:bd:df:0b:a7:38:aa:ee:99:d6:bb:1c:9d:81:28:d7:46:
         ec:d7:a2:07:b3:da:3e:f3:ed:9e:48:d9:34:5a:ff:6c:f4:22:
         ad:40:5f:cd:5e:0c:8c:99:6d:d8:f9:67:f0:db:80:4b:d9:79:
         63:12:25:e6:a6:1f:b8:e4:86:1e:d9:92:7a:58:1e:dd:c1:71:
         67:32:bb:24:ba:46:75:1d:f8:99:83:f9:2d:43:9c:bd:eb:f5:
         e6:9d:db:63:d7:17:3c:18:6e:d2:10:3a:41:52:e2:6d:62:d4:
         81:e5:8f:f8:22:49:dd:f1:44:52:70:73:c8:59:fa:44:7a:4e:
         38:c8:7c:f3:ba:53:f3:4c:e2:63:bc:34:02:d3:3d:25:09:b5:
         e6:27:ce:5f:5e:a0:b4:8e:9f:bb:2d:e8:be:3f:ac:77:07:7c:
         28:9b:2f:07:32:09:f7:29:4b:24:3d:f9:f2:91:0b:bd:2d:60:
         36:61:e0:c8:09:cb:a4:22
-----BEGIN CERTIFICATE-----
MIIGrDCCBJSgAwIBAgICBl8wDQYJKoZIhvcNAQEEBQAwgawxCzAJBgNVBAYTAlVT
MQswCQYDVQQIEwJPSDERMA8GA1UEBxMIQ29sdW1idXMxEjAQBgNVBAoTCVZpa2lu
Z1ZQTjEdMBsGA1UECxMUTXlPcmdhbml6YXRpb25hbFVuaXQxFTATBgNVBAMTDFZp
a2luZ1ZQTiBDQTEQMA4GA1UEKRMHRWFzeVJTQTEhMB8GCSqGSIb3DQEJARYSbWVA
bXlob3N0Lm15ZG9tYWluMB4XDTE0MDQxNjAwMzgzNVoXDTI0MDQxMzAwMzgzNVow
HjEcMBoGA1UEAxMTQ2xpZW50MzE1Q2VydDUyMTMxOTCCAiIwDQYJKoZIhvcNAQEB
BQADggIPADCCAgoCggIBALWdJHFvpR+IDULhhcEimS+t8yeL2zxp9ewjvKFphVZI
ypewi6tMJBA1ZC0DvThLW8GHO7Znk6zH/c0a5nWyAZbV7xlOPNwc6WQRULhmE8aB
khKe6Xpn5qp+n/ds319uISgit7/3vf1vGaZiGhq6hIDLzIrscfgN5TyNIFptZ53z
AP5VSizAmiUubGaJlJLjWxgZFLhm0zlpqR24vlR1oRzPVGRjo3jjdOM8j+cBbiZV
bfX4CfHSXmVgnZwZtE8TVpyeJtE5S7uoUD7dB1IChdqgpu5cdmcWhwkIT3M/rni6
Y9mr8u7XOJuqOiLlEsp6U3vZcnF9WPy7eCFQKqaLYtc9cpvCfxp9weUyOuYCzj+5
wyO4zOJzcwnJzRSPUB+LxZHdkj6kg03DbDe5DwyvQilVCRHO3eCfSTis3gv8g/0H
q3EbP94Io5DUlZnpY67QgctD9N5ds6RiD0OjqOKbyTwvAAY4h10KH+MtOWCiZjMz
CogGYFsXp7wgt2s529M8H/2lKpMTpBg3aue9bQvr77ki5WvCdRK8Ie1EVlTLGs/O
gU+q+RjpzwtL9Ta2mumDBa6X002dTFphhOxJtH2I8kFgRVjotMKlbNRUcb4cwFlp
gLmdeRZWx5Q725VCCc59/HBHKfHPdHzjB/Ik1mElc5tcOIq+zvqfz/OkGrC5DNkN
AgMBAAGjggFjMIIBXzAJBgNVHRMEAjAAMC0GCWCGSAGG+EIBDQQgFh5FYXN5LVJT
QSBHZW5lcmF0ZWQgQ2VydGlmaWNhdGUwHQYDVR0OBBYEFJNn0WWHK/9BTa+TviwD
pY6YLqDYMIHhBgNVHSMEgdkwgdaAFBLNYATSoICecO3Gmbh7LMZS/RmhoYGypIGv
MIGsMQswCQYDVQQGEwJVUzELMAkGA1UECBMCT0gxETAPBgNVBAcTCENvbHVtYnVz
MRIwEAYDVQQKEwlWaWtpbmdWUE4xHTAbBgNVBAsTFE15T3JnYW5pemF0aW9uYWxV
bml0MRUwEwYDVQQDEwxWaWtpbmdWUE4gQ0ExEDAOBgNVBCkTB0Vhc3lSU0ExITAf
BgkqhkiG9w0BCQEWEm1lQG15aG9zdC5teWRvbWFpboIJAM81he6Avyo+MBMGA1Ud
JQQMMAoGCCsGAQUFBwMCMAsGA1UdDwQEAwIHgDANBgkqhkiG9w0BAQQFAAOCAgEA
5BH2pZYwZ8KpagqwNObyU6eskL6pt4EYEhpoXm+VfQS1/XtDMtRG8nIYLdahCpJU
FdGGIbFHi8S8Ad3f+bWMWGiSg7P8bsFGNyTfBd9Wedumlx8B1F2qA0Yqre2fgwws
uaDalRzcqpj+O5DH3hLfwlg+nmqZKkwg1zpLvq/VRUGkJVBZ5ppuSFPCqP7Q2FG3
F8Tr+McneCM+Uf2e/GqHQqKlroN2Tk2c96sELlWl77x/fQFkPgBO07grHINBSQ0v
qC4uMBvNEZoGxd6tRImjKuBGyBGgzpAnAiEIeannqesepR2TV8F7tVqw10TRwwtt
ZmJYcXrcZPvdxjeH0sG1qYdpGmc1bq1BWZWSxEfoQ8gXlnNTGOaShYfVL0KxjPa4
zoDLeexLhmfVQ0k/YtNTOEZBTBRLglteVGbjpObDTS5cGCmxJm693wunOKrumda7
HJ2BKNdG7NeiB7PaPvPtnkjZNFr/bPQirUBfzV4MjJlt2Pln8NuAS9l5YxIl5qYf
uOSGHtmSelge3cFxZzK7JLpGdR34mYP5LUOcvev15p3bY9cXPBhu0hA6QVLibWLU
geWP+CJJ3fFEUnBzyFn6RHpOOMh887pT80ziY7w0AtM9JQm15ifOX16gtI6fuy3o
vj+sdwd8KJsvBzIJ9ylLJD358pELvS1gNmHgyAnLpCI=
-----END CERTIFICATE-----
