Certificate:
    Data:
        Version: 3 (0x2)
        Serial Number: 1639 (0x667)
    Signature Algorithm: md5WithRSAEncryption
        Issuer: C=US, ST=OH, L=Columbus, O=VikingVPN, OU=MyOrganizationalUnit, CN=VikingVPN CA/name=EasyRSA/emailAddress=me@myhost.mydomain
        Validity
            Not Before: Apr 16 04:28:31 2014 GMT
            Not After : Apr 13 04:28:31 2024 GMT
        Subject: CN=Client549Certa21f79
        Subject Public Key Info:
            Public Key Algorithm: rsaEncryption
                Public-Key: (4096 bit)
                Modulus:
                    00:d2:24:e9:f6:87:91:68:8f:09:4e:40:70:62:a6:
                    0f:bf:4b:bc:8f:f2:46:80:61:0f:8b:ad:f6:f5:c3:
                    b4:71:7d:73:76:95:1a:d9:bf:28:d4:59:d4:a6:34:
                    f1:70:3b:61:8d:65:cc:4c:db:f2:8b:9f:45:a0:e0:
                    b1:a4:db:98:87:ed:69:03:e2:fb:c4:ef:6f:1c:c0:
                    ec:df:67:9c:52:27:88:8c:8d:40:df:9d:73:bc:28:
                    98:db:6a:eb:7e:f6:ad:5f:44:fa:a0:75:00:66:77:
                    0d:a7:6e:7d:c3:20:65:84:26:7b:d5:63:13:29:0a:
                    6e:b8:be:55:10:b1:96:6a:64:06:4c:c2:dc:6a:c7:
                    46:8d:2f:f4:cb:db:d7:8b:e9:ee:17:f9:14:e9:97:
                    78:d6:5f:8f:f2:67:39:33:7a:a3:39:de:4c:dc:ef:
                    4d:8a:c8:47:e0:6a:26:54:34:87:cc:ae:70:30:a9:
                    4e:98:78:ea:97:ae:fd:cd:65:82:a3:6e:a5:d9:3b:
                    42:ef:24:87:5f:10:84:a6:75:56:d5:26:69:4f:d0:
                    26:1b:e2:8e:1d:d8:33:ae:38:77:27:ef:86:07:b3:
                    fc:2a:e7:ec:98:14:6d:28:da:16:7b:8d:2e:32:2b:
                    92:61:9d:80:6c:76:4a:fd:83:de:a0:5b:a9:b7:81:
                    54:3b:93:f4:6c:c1:83:8e:ef:9b:0b:1e:54:d6:c8:
                    24:e5:33:3e:09:64:1f:95:0b:42:5c:06:4c:06:c7:
                    1d:dc:fb:be:4b:c6:b1:76:81:10:21:12:5f:3d:50:
                    a8:f8:b5:7b:1a:d4:99:dd:37:91:a9:c8:5d:62:2d:
                    4e:e8:b4:cc:99:6f:c8:ac:dc:d1:d5:f1:cf:22:04:
                    44:e3:aa:f2:ce:d8:f4:12:f1:36:2d:fd:02:40:6e:
                    cc:24:9e:30:c3:a7:e1:24:ba:82:41:cd:6a:76:88:
                    90:9c:ea:01:75:d4:ae:84:80:dd:e2:4c:db:df:86:
                    6c:ff:db:cc:41:32:20:fe:c8:44:ff:45:2a:64:17:
                    56:77:6d:5d:a8:73:07:78:d9:4f:2d:50:f6:ad:a2:
                    5b:b7:81:10:e2:44:73:cb:c5:6a:60:62:57:80:82:
                    f3:25:8f:e9:9c:96:78:90:18:7a:0b:61:04:8a:a4:
                    3c:82:b4:15:a2:2c:00:bf:97:ac:ea:5f:82:60:87:
                    d2:fc:ac:1a:e4:ef:16:8c:78:23:80:05:70:21:ad:
                    4e:e8:0d:65:2e:c6:93:55:12:19:89:e5:64:f2:8e:
                    82:21:39:e3:b4:40:1a:18:55:8a:c9:c9:0e:c7:dd:
                    53:73:2e:f2:93:b8:fe:00:30:b1:9a:8f:fb:a6:3b:
                    1f:9c:4d
                Exponent: 65537 (0x10001)
        X509v3 extensions:
            X509v3 Basic Constraints: 
                CA:FALSE
            Netscape Comment: 
                Easy-RSA Generated Certificate
            X509v3 Subject Key Identifier: 
                A2:E2:83:20:83:14:DE:0E:B9:CC:7E:D8:CE:89:46:B9:A9:B9:3D:23
            X509v3 Authority Key Identifier: 
                keyid:12:CD:60:04:D2:A0:80:9E:70:ED:C6:99:B8:7B:2C:C6:52:FD:19:A1
                DirName:/C=US/ST=OH/L=Columbus/O=VikingVPN/OU=MyOrganizationalUnit/CN=VikingVPN CA/name=EasyRSA/emailAddress=me@myhost.mydomain
                serial:CF:35:85:EE:80:BF:2A:3E

            X509v3 Extended Key Usage: 
                TLS Web Client Authentication
            X509v3 Key Usage: 
                Digital Signature
    Signature Algorithm: md5WithRSAEncryption
         07:39:4f:44:f4:ab:07:88:0d:e4:95:b2:ea:67:0b:92:ae:51:
         10:a8:57:48:bd:57:e6:2d:12:33:1d:c9:3f:d3:66:3b:48:e6:
         e1:0d:c0:52:e4:7e:9d:29:18:4b:65:1b:e2:6b:8d:90:07:9b:
         ff:df:88:78:ed:d8:b1:28:d5:6a:d0:fa:f5:9c:f8:c2:71:90:
         cb:54:90:c1:f8:89:40:68:f7:3a:eb:95:a9:4e:2b:de:25:42:
         8f:13:da:00:ea:91:42:71:d8:07:fa:b3:00:83:13:71:eb:24:
         a0:83:0d:52:97:a2:0e:0a:35:cb:46:54:a3:6e:78:c7:85:bb:
         2b:69:c5:25:b7:49:05:63:19:84:13:87:10:ac:46:da:6e:fa:
         b3:e4:7c:23:2b:33:c6:b2:e4:07:e6:f9:51:69:45:98:c5:0c:
         d4:de:99:26:0b:be:4c:dc:c3:16:ed:e7:a7:5e:dc:6e:23:c4:
         7e:c9:8f:7e:7f:65:da:61:60:3f:09:e2:bd:15:13:af:05:13:
         40:e1:35:96:c5:ec:1d:2d:af:80:1f:7f:9a:52:6a:f7:07:02:
         3a:b1:01:0c:ed:bf:75:4e:62:8b:e6:2d:34:ac:1a:d7:4c:19:
         c1:5e:cd:d1:9f:7c:1f:0d:a1:8b:a6:bd:e8:fb:6c:ee:2d:de:
         b3:d6:3d:83:b4:49:89:26:8d:1f:82:7c:12:a9:8e:47:b5:20:
         fb:6b:bc:cb:bb:d2:c2:75:4f:3a:ac:09:d3:42:e3:d1:11:85:
         52:b2:c3:9a:ec:3d:71:68:60:40:df:3c:e5:fc:8d:03:cd:61:
         22:57:bb:07:65:40:d4:ab:e2:56:04:28:01:fa:0d:6b:76:19:
         d2:06:f6:bd:e4:24:8e:d9:e7:cd:39:19:46:e2:09:d1:6d:bf:
         a5:06:61:d4:e0:5d:20:84:36:71:9a:23:fe:c1:2f:57:09:87:
         a9:f3:b0:0c:0d:bd:64:eb:3e:34:c0:13:0e:3a:ae:21:f8:68:
         9c:27:91:2b:5e:08:14:14:b5:4e:0d:46:3c:e4:a5:98:13:70:
         8e:9e:d7:8d:fc:8e:75:22:4c:e1:89:cb:36:df:a7:68:b3:fa:
         36:44:0f:fd:99:78:c7:96:24:48:e4:61:00:4d:43:12:a6:ab:
         22:34:3e:d0:25:7b:4f:33:0b:82:2d:98:04:92:59:e1:e6:8b:
         18:c7:38:9f:bc:ae:78:d7:23:69:42:77:3b:3b:d2:bc:ad:7e:
         0d:55:9c:3e:27:9b:9d:cf:ae:3d:4f:d7:27:a6:ee:01:d5:db:
         3d:8e:52:79:39:63:7e:0c:4b:37:ad:cb:a0:ed:d7:04:f0:d6:
         f8:4d:5f:ef:99:77:48:41
-----BEGIN CERTIFICATE-----
MIIGrDCCBJSgAwIBAgICBmcwDQYJKoZIhvcNAQEEBQAwgawxCzAJBgNVBAYTAlVT
MQswCQYDVQQIEwJPSDERMA8GA1UEBxMIQ29sdW1idXMxEjAQBgNVBAoTCVZpa2lu
Z1ZQTjEdMBsGA1UECxMUTXlPcmdhbml6YXRpb25hbFVuaXQxFTATBgNVBAMTDFZp
a2luZ1ZQTiBDQTEQMA4GA1UEKRMHRWFzeVJTQTEhMB8GCSqGSIb3DQEJARYSbWVA
bXlob3N0Lm15ZG9tYWluMB4XDTE0MDQxNjA0MjgzMVoXDTI0MDQxMzA0MjgzMVow
HjEcMBoGA1UEAxMTQ2xpZW50NTQ5Q2VydGEyMWY3OTCCAiIwDQYJKoZIhvcNAQEB
BQADggIPADCCAgoCggIBANIk6faHkWiPCU5AcGKmD79LvI/yRoBhD4ut9vXDtHF9
c3aVGtm/KNRZ1KY08XA7YY1lzEzb8oufRaDgsaTbmIftaQPi+8TvbxzA7N9nnFIn
iIyNQN+dc7womNtq6372rV9E+qB1AGZ3DadufcMgZYQme9VjEykKbri+VRCxlmpk
BkzC3GrHRo0v9Mvb14vp7hf5FOmXeNZfj/JnOTN6ozneTNzvTYrIR+BqJlQ0h8yu
cDCpTph46peu/c1lgqNupdk7Qu8kh18QhKZ1VtUmaU/QJhvijh3YM644dyfvhgez
/Crn7JgUbSjaFnuNLjIrkmGdgGx2Sv2D3qBbqbeBVDuT9GzBg47vmwseVNbIJOUz
PglkH5ULQlwGTAbHHdz7vkvGsXaBECESXz1QqPi1exrUmd03kanIXWItTui0zJlv
yKzc0dXxzyIEROOq8s7Y9BLxNi39AkBuzCSeMMOn4SS6gkHNanaIkJzqAXXUroSA
3eJM29+GbP/bzEEyIP7IRP9FKmQXVndtXahzB3jZTy1Q9q2iW7eBEOJEc8vFamBi
V4CC8yWP6ZyWeJAYegthBIqkPIK0FaIsAL+XrOpfgmCH0vysGuTvFox4I4AFcCGt
TugNZS7Gk1USGYnlZPKOgiE547RAGhhVisnJDsfdU3Mu8pO4/gAwsZqP+6Y7H5xN
AgMBAAGjggFjMIIBXzAJBgNVHRMEAjAAMC0GCWCGSAGG+EIBDQQgFh5FYXN5LVJT
QSBHZW5lcmF0ZWQgQ2VydGlmaWNhdGUwHQYDVR0OBBYEFKLigyCDFN4Oucx+2M6J
RrmpuT0jMIHhBgNVHSMEgdkwgdaAFBLNYATSoICecO3Gmbh7LMZS/RmhoYGypIGv
MIGsMQswCQYDVQQGEwJVUzELMAkGA1UECBMCT0gxETAPBgNVBAcTCENvbHVtYnVz
MRIwEAYDVQQKEwlWaWtpbmdWUE4xHTAbBgNVBAsTFE15T3JnYW5pemF0aW9uYWxV
bml0MRUwEwYDVQQDEwxWaWtpbmdWUE4gQ0ExEDAOBgNVBCkTB0Vhc3lSU0ExITAf
BgkqhkiG9w0BCQEWEm1lQG15aG9zdC5teWRvbWFpboIJAM81he6Avyo+MBMGA1Ud
JQQMMAoGCCsGAQUFBwMCMAsGA1UdDwQEAwIHgDANBgkqhkiG9w0BAQQFAAOCAgEA
BzlPRPSrB4gN5JWy6mcLkq5REKhXSL1X5i0SMx3JP9NmO0jm4Q3AUuR+nSkYS2Ub
4muNkAeb/9+IeO3YsSjVatD69Zz4wnGQy1SQwfiJQGj3OuuVqU4r3iVCjxPaAOqR
QnHYB/qzAIMTceskoIMNUpeiDgo1y0ZUo254x4W7K2nFJbdJBWMZhBOHEKxG2m76
s+R8IyszxrLkB+b5UWlFmMUM1N6ZJgu+TNzDFu3np17cbiPEfsmPfn9l2mFgPwni
vRUTrwUTQOE1lsXsHS2vgB9/mlJq9wcCOrEBDO2/dU5ii+YtNKwa10wZwV7N0Z98
Hw2hi6a96Pts7i3es9Y9g7RJiSaNH4J8EqmOR7Ug+2u8y7vSwnVPOqwJ00Lj0RGF
UrLDmuw9cWhgQN885fyNA81hIle7B2VA1KviVgQoAfoNa3YZ0gb2veQkjtnnzTkZ
RuIJ0W2/pQZh1OBdIIQ2cZoj/sEvVwmHqfOwDA29ZOs+NMATDjquIfhonCeRK14I
FBS1Tg1GPOSlmBNwjp7XjfyOdSJM4YnLNt+naLP6NkQP/Zl4x5YkSORhAE1DEqar
IjQ+0CV7TzMLgi2YBJJZ4eaLGMc4n7yueNcjaUJ3OzvSvK1+DVWcPiebnc+uPU/X
J6buAdXbPY5SeTljfgxLN63LoO3XBPDW+E1f75l3SEE=
-----END CERTIFICATE-----
