Certificate:
    Data:
        Version: 3 (0x2)
        Serial Number: 1645 (0x66d)
    Signature Algorithm: md5WithRSAEncryption
        Issuer: C=US, ST=OH, L=Columbus, O=VikingVPN, OU=MyOrganizationalUnit, CN=VikingVPN CA/name=EasyRSA/emailAddress=me@myhost.mydomain
        Validity
            Not Before: Apr 16 07:08:18 2014 GMT
            Not After : Apr 13 07:08:18 2024 GMT
        Subject: CN=Client586Cert2227f2
        Subject Public Key Info:
            Public Key Algorithm: rsaEncryption
                Public-Key: (4096 bit)
                Modulus:
                    00:e6:c5:79:c8:20:c7:81:59:71:c2:ae:75:05:f6:
                    94:ae:92:ae:5a:63:cb:6a:a1:21:40:58:b3:54:3c:
                    70:68:9a:18:a4:f5:81:08:ab:2d:2c:cc:b7:71:62:
                    6f:b0:8c:05:1d:d8:30:4b:9e:00:89:3e:e7:03:99:
                    ac:fe:f3:92:b6:99:f0:d5:8e:75:9a:67:55:92:1b:
                    ff:d4:4b:75:82:59:f9:90:cf:8a:86:e3:1a:b8:d1:
                    7e:12:66:9e:32:8d:31:b1:fb:1e:9a:3f:ef:80:30:
                    01:67:c8:37:d9:7c:72:e0:5e:bb:d8:15:59:95:bf:
                    80:ac:9b:e7:a9:21:de:89:db:93:5b:56:d2:e7:15:
                    54:5f:68:f7:69:fe:1d:ae:03:17:6d:1a:3d:2b:d2:
                    33:c5:22:d9:e6:e7:28:16:72:9f:28:b9:78:5a:a1:
                    99:cc:25:5b:99:4b:a8:02:c4:20:5a:3f:c3:32:32:
                    95:c4:58:fd:e9:e1:25:b8:db:c2:c6:ad:51:30:95:
                    78:00:3d:42:65:3b:ff:9f:63:70:c5:eb:76:9d:c5:
                    d8:a7:f8:ad:f2:84:49:de:60:9c:a4:ac:d9:9b:00:
                    7e:6a:49:f6:58:6c:8a:6a:30:f1:a2:34:64:20:e8:
                    4a:0a:80:c1:77:78:37:94:38:7f:96:67:9d:b7:5a:
                    4f:5f:99:93:b1:87:90:42:83:60:34:da:40:78:1c:
                    5d:a1:c0:a6:4b:48:75:78:d7:26:14:22:d4:81:02:
                    ef:e2:89:f3:78:8a:21:c9:5e:37:d8:be:40:00:d2:
                    85:83:08:97:af:fe:83:ba:c6:74:39:1f:9e:fd:e4:
                    a6:42:6e:81:51:83:88:dc:bf:c6:6f:1d:37:d2:15:
                    e2:e8:f3:b4:33:26:3e:ba:2e:c4:ae:78:93:7e:0f:
                    70:1c:b1:b0:80:01:6a:ce:8e:0a:b6:b9:cb:82:fa:
                    10:7a:21:7a:05:eb:de:30:8d:8d:9a:c8:5d:60:a2:
                    d4:e6:f6:3c:05:bf:f5:e2:54:18:85:24:64:a5:ee:
                    7e:fb:09:50:4f:53:12:eb:45:64:c4:23:7f:04:a8:
                    62:6e:5a:a7:f9:de:84:22:15:c7:55:f2:df:33:b3:
                    76:b7:76:e9:3c:6a:30:b8:fe:a8:89:89:62:eb:9b:
                    11:e6:e0:38:6e:bc:95:fe:d1:65:63:ca:6b:8d:46:
                    02:4c:7a:14:e4:df:00:41:e3:df:f4:a3:c8:ad:05:
                    5c:ec:89:00:72:79:3d:da:4f:71:63:3b:6d:01:cb:
                    d5:46:bf:a3:90:df:ab:93:7d:8f:db:92:ce:ba:3a:
                    16:b9:b8:bd:58:27:5a:1e:6e:29:71:61:b8:d6:36:
                    1b:1d:85
                Exponent: 65537 (0x10001)
        X509v3 extensions:
            X509v3 Basic Constraints: 
                CA:FALSE
            Netscape Comment: 
                Easy-RSA Generated Certificate
            X509v3 Subject Key Identifier: 
                A1:66:C5:31:0B:65:1F:66:13:CA:AB:86:6E:6B:F6:54:B0:71:0C:E5
            X509v3 Authority Key Identifier: 
                keyid:12:CD:60:04:D2:A0:80:9E:70:ED:C6:99:B8:7B:2C:C6:52:FD:19:A1
                DirName:/C=US/ST=OH/L=Columbus/O=VikingVPN/OU=MyOrganizationalUnit/CN=VikingVPN CA/name=EasyRSA/emailAddress=me@myhost.mydomain
                serial:CF:35:85:EE:80:BF:2A:3E

            X509v3 Extended Key Usage: 
                TLS Web Client Authentication
            X509v3 Key Usage: 
                Digital Signature
    Signature Algorithm: md5WithRSAEncryption
         d1:53:ce:22:ea:10:c7:27:36:a0:2a:20:b9:c4:cb:cb:62:87:
         91:f5:d1:a7:99:81:27:f7:b4:60:5e:34:94:ea:4a:2e:17:38:
         24:a0:2a:67:dc:8c:9d:e6:0a:bf:6b:b3:4c:6b:c3:cc:2b:ed:
         d2:6e:b6:85:b3:d6:ae:ec:e0:0b:28:c0:ea:ad:e0:68:a7:d3:
         63:c1:5b:3b:0b:11:50:ed:4e:f6:49:74:82:8e:bf:e6:da:2b:
         68:0a:d4:12:f0:48:5a:8b:b1:1a:7a:0e:da:8b:fb:fc:bf:59:
         28:6a:b9:22:62:cc:dc:dd:c1:9e:6e:75:13:ee:01:12:98:c0:
         98:ca:d9:bd:1e:6f:5a:ef:9b:5e:35:1e:de:1e:ac:c1:be:9f:
         d0:5e:be:56:d8:e4:e4:5d:c5:0a:c7:22:8a:9d:fb:04:97:b0:
         50:bc:0d:00:47:57:44:9c:97:bf:03:fe:53:ad:bb:f8:63:48:
         70:1e:81:9d:d1:b0:63:a6:d5:3c:18:30:d6:7b:e7:0f:91:e8:
         e6:34:04:81:6b:70:db:0d:ef:62:5b:56:3f:80:ca:82:26:2c:
         00:c6:42:2b:d3:e3:e7:21:15:f8:46:5c:92:82:b6:ec:0c:e5:
         08:bf:84:65:cc:ad:45:19:cc:5d:3b:e9:3d:d4:07:05:d1:e0:
         e0:b2:1d:30:2d:ae:98:23:93:6d:03:99:c8:92:98:11:63:9e:
         09:96:5a:16:ff:af:77:b3:bd:d5:35:9a:b2:74:69:99:b5:16:
         d9:d5:49:0e:25:78:1b:3b:20:73:7f:31:f7:13:1a:88:64:bd:
         b0:42:96:05:3a:90:8b:4e:f4:c8:53:71:b2:da:0d:44:37:c3:
         9f:c5:e4:8c:09:1c:57:3d:53:f1:47:70:77:8b:59:1f:95:c5:
         98:c3:d7:10:ce:94:3b:19:3b:ad:c0:79:bd:f7:59:d0:f9:16:
         fe:a6:0d:89:8e:2d:bb:e9:e5:43:12:e5:4d:3e:7c:5b:4b:eb:
         4a:60:6e:28:66:6c:11:d7:a3:78:66:69:69:db:0c:36:c5:f4:
         82:22:ab:b9:22:ea:a5:7e:92:70:8b:5c:83:62:ec:42:2c:c2:
         df:5c:0d:f2:5e:6e:a3:fa:67:32:93:6d:8e:1f:4f:12:3a:9d:
         19:53:22:8e:af:a0:47:90:15:39:b6:ad:2d:f9:a7:0f:8d:df:
         2a:39:98:66:77:e0:b2:a5:41:0d:cd:5d:ea:1d:d6:fd:77:34:
         c2:c4:b0:e0:55:e5:f5:11:a6:80:5f:42:4c:9f:85:61:cf:be:
         91:9a:7c:fd:e2:50:17:15:61:6b:b5:ed:f2:1e:62:7d:15:4f:
         32:7d:40:82:76:5f:f4:d9
-----BEGIN CERTIFICATE-----
MIIGrDCCBJSgAwIBAgICBm0wDQYJKoZIhvcNAQEEBQAwgawxCzAJBgNVBAYTAlVT
MQswCQYDVQQIEwJPSDERMA8GA1UEBxMIQ29sdW1idXMxEjAQBgNVBAoTCVZpa2lu
Z1ZQTjEdMBsGA1UECxMUTXlPcmdhbml6YXRpb25hbFVuaXQxFTATBgNVBAMTDFZp
a2luZ1ZQTiBDQTEQMA4GA1UEKRMHRWFzeVJTQTEhMB8GCSqGSIb3DQEJARYSbWVA
bXlob3N0Lm15ZG9tYWluMB4XDTE0MDQxNjA3MDgxOFoXDTI0MDQxMzA3MDgxOFow
HjEcMBoGA1UEAxMTQ2xpZW50NTg2Q2VydDIyMjdmMjCCAiIwDQYJKoZIhvcNAQEB
BQADggIPADCCAgoCggIBAObFecggx4FZccKudQX2lK6Srlpjy2qhIUBYs1Q8cGia
GKT1gQirLSzMt3Fib7CMBR3YMEueAIk+5wOZrP7zkraZ8NWOdZpnVZIb/9RLdYJZ
+ZDPiobjGrjRfhJmnjKNMbH7Hpo/74AwAWfIN9l8cuBeu9gVWZW/gKyb56kh3onb
k1tW0ucVVF9o92n+Ha4DF20aPSvSM8Ui2ebnKBZynyi5eFqhmcwlW5lLqALEIFo/
wzIylcRY/enhJbjbwsatUTCVeAA9QmU7/59jcMXrdp3F2Kf4rfKESd5gnKSs2ZsA
fmpJ9lhsimow8aI0ZCDoSgqAwXd4N5Q4f5ZnnbdaT1+Zk7GHkEKDYDTaQHgcXaHA
pktIdXjXJhQi1IEC7+KJ83iKIcleN9i+QADShYMIl6/+g7rGdDkfnv3kpkJugVGD
iNy/xm8dN9IV4ujztDMmProuxK54k34PcByxsIABas6OCra5y4L6EHohegXr3jCN
jZrIXWCi1Ob2PAW/9eJUGIUkZKXufvsJUE9TEutFZMQjfwSoYm5ap/nehCIVx1Xy
3zOzdrd26TxqMLj+qImJYuubEebgOG68lf7RZWPKa41GAkx6FOTfAEHj3/SjyK0F
XOyJAHJ5PdpPcWM7bQHL1Ua/o5Dfq5N9j9uSzro6Frm4vVgnWh5uKXFhuNY2Gx2F
AgMBAAGjggFjMIIBXzAJBgNVHRMEAjAAMC0GCWCGSAGG+EIBDQQgFh5FYXN5LVJT
QSBHZW5lcmF0ZWQgQ2VydGlmaWNhdGUwHQYDVR0OBBYEFKFmxTELZR9mE8qrhm5r
9lSwcQzlMIHhBgNVHSMEgdkwgdaAFBLNYATSoICecO3Gmbh7LMZS/RmhoYGypIGv
MIGsMQswCQYDVQQGEwJVUzELMAkGA1UECBMCT0gxETAPBgNVBAcTCENvbHVtYnVz
MRIwEAYDVQQKEwlWaWtpbmdWUE4xHTAbBgNVBAsTFE15T3JnYW5pemF0aW9uYWxV
bml0MRUwEwYDVQQDEwxWaWtpbmdWUE4gQ0ExEDAOBgNVBCkTB0Vhc3lSU0ExITAf
BgkqhkiG9w0BCQEWEm1lQG15aG9zdC5teWRvbWFpboIJAM81he6Avyo+MBMGA1Ud
JQQMMAoGCCsGAQUFBwMCMAsGA1UdDwQEAwIHgDANBgkqhkiG9w0BAQQFAAOCAgEA
0VPOIuoQxyc2oCogucTLy2KHkfXRp5mBJ/e0YF40lOpKLhc4JKAqZ9yMneYKv2uz
TGvDzCvt0m62hbPWruzgCyjA6q3gaKfTY8FbOwsRUO1O9kl0go6/5toraArUEvBI
WouxGnoO2ov7/L9ZKGq5ImLM3N3Bnm51E+4BEpjAmMrZvR5vWu+bXjUe3h6swb6f
0F6+Vtjk5F3FCsciip37BJewULwNAEdXRJyXvwP+U627+GNIcB6BndGwY6bVPBgw
1nvnD5Ho5jQEgWtw2w3vYltWP4DKgiYsAMZCK9Pj5yEV+EZckoK27AzlCL+EZcyt
RRnMXTvpPdQHBdHg4LIdMC2umCOTbQOZyJKYEWOeCZZaFv+vd7O91TWasnRpmbUW
2dVJDiV4Gzsgc38x9xMaiGS9sEKWBTqQi070yFNxstoNRDfDn8XkjAkcVz1T8Udw
d4tZH5XFmMPXEM6UOxk7rcB5vfdZ0PkW/qYNiY4tu+nlQxLlTT58W0vrSmBuKGZs
EdejeGZpadsMNsX0giKruSLqpX6ScItcg2LsQizC31wN8l5uo/pnMpNtjh9PEjqd
GVMijq+gR5AVObatLfmnD43fKjmYZnfgsqVBDc1d6h3W/Xc0wsSw4FXl9RGmgF9C
TJ+FYc++kZp8/eJQFxVha7Xt8h5ifRVPMn1AgnZf9Nk=
-----END CERTIFICATE-----
