Certificate:
    Data:
        Version: 3 (0x2)
        Serial Number: 1646 (0x66e)
    Signature Algorithm: md5WithRSAEncryption
        Issuer: C=US, ST=OH, L=Columbus, O=VikingVPN, OU=MyOrganizationalUnit, CN=VikingVPN CA/name=EasyRSA/emailAddress=me@myhost.mydomain
        Validity
            Not Before: Apr 16 07:08:43 2014 GMT
            Not After : Apr 13 07:08:43 2024 GMT
        Subject: CN=Client549Cert2cbbb3
        Subject Public Key Info:
            Public Key Algorithm: rsaEncryption
                Public-Key: (4096 bit)
                Modulus:
                    00:95:75:2a:ef:a1:cf:82:58:05:fe:ae:f1:c6:9c:
                    01:86:40:a6:f7:0e:22:57:f8:e2:ee:1f:8d:e2:d4:
                    28:29:54:ee:a6:f1:eb:b0:f4:4a:a3:e0:4e:5b:cd:
                    93:36:f1:5d:2d:f0:51:08:a6:2a:ac:f1:b2:fb:cf:
                    ac:ae:30:f0:38:ff:cb:3d:d7:fa:fd:b6:8d:53:ad:
                    eb:17:94:8e:f9:e1:70:b4:7e:05:d9:e3:cc:b1:40:
                    18:96:84:37:0d:b7:86:60:c1:f2:99:7e:44:98:7e:
                    ab:82:f6:c7:38:e7:24:19:d1:8f:0d:9a:df:f4:9b:
                    4c:3e:d3:9c:c0:5f:1e:86:3c:cc:04:0a:4a:3d:d2:
                    b1:45:79:9c:58:06:22:6b:6d:0e:27:63:78:0e:d5:
                    80:16:db:33:43:18:be:d4:20:79:97:6a:58:01:aa:
                    bd:22:8a:e4:c2:19:3b:1f:54:7b:c5:4f:90:0c:23:
                    18:5f:96:44:5a:c4:08:a6:c3:0e:da:20:0d:46:5a:
                    04:13:d6:66:34:08:a4:19:bc:3f:ca:6f:13:ef:b0:
                    25:cb:1f:7f:8c:40:fb:b5:89:68:17:dd:3e:55:49:
                    99:a5:bf:22:f0:3c:af:df:73:7f:5b:c7:19:9c:6a:
                    a3:5d:58:d0:6b:ae:10:99:39:83:4d:cc:07:d9:a1:
                    d3:e2:82:7c:a6:06:47:ca:51:72:c6:2d:53:75:a1:
                    02:73:ee:3e:2c:2e:48:cd:b9:cc:c5:9a:5a:cd:92:
                    63:0e:8e:fc:ca:88:95:4d:45:95:83:c9:41:dc:f2:
                    2a:7d:34:af:19:08:74:4f:e4:79:11:d7:12:36:15:
                    6e:8b:84:fc:b8:1d:bb:6c:d4:22:a9:47:2a:5d:89:
                    1f:ea:12:0d:cb:d9:a6:24:08:7f:6e:ce:18:d2:09:
                    0c:04:51:f1:9e:c0:6c:4f:88:21:ea:3c:d6:9b:04:
                    a0:39:b6:7a:f4:41:43:91:69:df:03:e7:a9:94:b0:
                    ef:2c:bb:e2:ae:92:a5:d5:e4:99:da:53:d2:4f:05:
                    10:89:88:d8:2c:6e:da:0f:e5:ed:d1:6b:b5:fd:7e:
                    bd:1c:fa:1b:66:a7:3a:b0:75:91:c9:73:9b:f1:b5:
                    ed:98:19:df:6e:80:b3:58:cd:0b:09:25:d4:47:ce:
                    05:d8:58:1a:cd:41:00:ef:8b:1f:ee:9d:e9:15:2f:
                    e3:35:86:23:e0:aa:38:5c:9a:18:a3:6e:fa:2c:65:
                    b6:69:6e:42:66:f6:de:3a:78:bb:73:46:74:bf:6b:
                    16:fc:50:a4:5a:d1:02:84:9f:79:09:dd:df:da:fd:
                    fb:af:38:8d:85:e6:4c:cd:77:64:1b:d7:87:10:a2:
                    76:1f:b3
                Exponent: 65537 (0x10001)
        X509v3 extensions:
            X509v3 Basic Constraints: 
                CA:FALSE
            Netscape Comment: 
                Easy-RSA Generated Certificate
            X509v3 Subject Key Identifier: 
                1B:EF:FA:69:0D:53:95:04:5F:A5:F2:1C:0D:C3:82:23:33:13:64:B2
            X509v3 Authority Key Identifier: 
                keyid:12:CD:60:04:D2:A0:80:9E:70:ED:C6:99:B8:7B:2C:C6:52:FD:19:A1
                DirName:/C=US/ST=OH/L=Columbus/O=VikingVPN/OU=MyOrganizationalUnit/CN=VikingVPN CA/name=EasyRSA/emailAddress=me@myhost.mydomain
                serial:CF:35:85:EE:80:BF:2A:3E

            X509v3 Extended Key Usage: 
                TLS Web Client Authentication
            X509v3 Key Usage: 
                Digital Signature
    Signature Algorithm: md5WithRSAEncryption
         4c:b0:dc:30:00:3c:16:3a:ca:52:fc:dc:6b:5a:f1:7f:a3:66:
         68:77:5a:26:c6:93:70:e7:8f:72:c1:68:68:03:be:85:9c:fc:
         7c:2c:b1:53:36:a6:a9:56:a8:f2:04:dd:d0:8f:1a:4b:2f:78:
         5d:7a:0a:ca:6a:23:d9:e7:a8:ba:b9:26:61:85:34:0c:4b:f5:
         1a:ea:3e:6d:0a:a6:c8:55:42:af:4f:3e:83:cd:44:a3:59:09:
         62:53:1f:44:84:97:81:b6:01:27:4b:7a:b3:18:63:f6:2d:66:
         15:28:7e:ce:12:3b:8c:a7:a6:3a:3e:d0:b7:7f:d1:04:d1:de:
         b9:c4:56:c1:65:dc:cd:23:39:d4:70:0f:50:6a:9d:ec:c5:11:
         95:e8:76:d0:60:74:c8:b7:36:e5:df:0e:51:58:6c:a1:06:3e:
         8f:ab:77:75:6d:a5:26:32:14:b5:b9:90:7b:f6:fa:74:58:da:
         5c:a1:a1:77:a1:e4:5d:96:98:d3:a2:b7:3b:f9:7a:33:9b:a0:
         c8:79:c9:6b:f8:8b:1f:a1:41:d2:7f:1e:54:65:36:c0:58:3e:
         cf:a3:ec:e4:e3:f7:50:ec:76:a5:61:5e:8d:57:2c:48:a1:ad:
         ec:69:c3:62:d8:0b:dd:8a:13:8f:fd:d8:1f:dc:89:6f:ef:1a:
         a7:6a:ae:29:28:90:d8:1e:ca:d0:a3:10:18:5d:fd:6f:26:26:
         2b:d9:62:28:32:a6:7e:c3:a4:00:39:24:07:a9:f9:93:23:b7:
         b9:6b:f3:dd:ac:39:3f:36:97:7c:bc:32:51:c6:0e:c4:79:37:
         d4:79:d8:88:30:b9:a6:ba:00:1f:12:72:36:41:aa:0f:e4:e8:
         5e:8e:19:45:11:ac:30:e6:87:68:29:94:55:8a:c0:d7:6b:e8:
         9b:40:1f:88:37:6d:33:bd:11:8d:99:92:94:d5:48:47:f5:76:
         d8:8e:f0:cc:4d:7a:ba:0e:88:b1:91:6a:26:7f:b9:50:74:02:
         46:a0:9f:88:53:24:3d:23:12:97:d2:c2:49:05:fd:55:45:98:
         4c:84:ac:ee:33:d5:11:94:ee:4d:ad:62:f6:62:cc:54:3e:b9:
         8b:41:c5:14:0f:de:6e:02:e5:44:d5:bf:c7:34:18:8b:31:f7:
         5c:5f:dd:eb:13:03:68:72:5f:5f:f5:ba:f9:5d:28:28:52:e9:
         70:27:c7:7b:5c:3c:80:a4:bb:d0:a5:e5:ec:10:78:b5:fe:f1:
         82:03:f8:82:5a:3d:97:53:a2:5d:8d:1c:b0:24:95:8b:fd:53:
         63:be:38:a9:f6:c5:e6:14:a3:29:44:db:4b:71:9c:3f:5d:5f:
         e4:41:0b:f1:00:6f:74:69
-----BEGIN CERTIFICATE-----
MIIGrDCCBJSgAwIBAgICBm4wDQYJKoZIhvcNAQEEBQAwgawxCzAJBgNVBAYTAlVT
MQswCQYDVQQIEwJPSDERMA8GA1UEBxMIQ29sdW1idXMxEjAQBgNVBAoTCVZpa2lu
Z1ZQTjEdMBsGA1UECxMUTXlPcmdhbml6YXRpb25hbFVuaXQxFTATBgNVBAMTDFZp
a2luZ1ZQTiBDQTEQMA4GA1UEKRMHRWFzeVJTQTEhMB8GCSqGSIb3DQEJARYSbWVA
bXlob3N0Lm15ZG9tYWluMB4XDTE0MDQxNjA3MDg0M1oXDTI0MDQxMzA3MDg0M1ow
HjEcMBoGA1UEAxMTQ2xpZW50NTQ5Q2VydDJjYmJiMzCCAiIwDQYJKoZIhvcNAQEB
BQADggIPADCCAgoCggIBAJV1Ku+hz4JYBf6u8cacAYZApvcOIlf44u4fjeLUKClU
7qbx67D0SqPgTlvNkzbxXS3wUQimKqzxsvvPrK4w8Dj/yz3X+v22jVOt6xeUjvnh
cLR+BdnjzLFAGJaENw23hmDB8pl+RJh+q4L2xzjnJBnRjw2a3/SbTD7TnMBfHoY8
zAQKSj3SsUV5nFgGImttDidjeA7VgBbbM0MYvtQgeZdqWAGqvSKK5MIZOx9Ue8VP
kAwjGF+WRFrECKbDDtogDUZaBBPWZjQIpBm8P8pvE++wJcsff4xA+7WJaBfdPlVJ
maW/IvA8r99zf1vHGZxqo11Y0GuuEJk5g03MB9mh0+KCfKYGR8pRcsYtU3WhAnPu
PiwuSM25zMWaWs2SYw6O/MqIlU1FlYPJQdzyKn00rxkIdE/keRHXEjYVbouE/Lgd
u2zUIqlHKl2JH+oSDcvZpiQIf27OGNIJDARR8Z7AbE+IIeo81psEoDm2evRBQ5Fp
3wPnqZSw7yy74q6SpdXkmdpT0k8FEImI2Cxu2g/l7dFrtf1+vRz6G2anOrB1kclz
m/G17ZgZ326As1jNCwkl1EfOBdhYGs1BAO+LH+6d6RUv4zWGI+CqOFyaGKNu+ixl
tmluQmb23jp4u3NGdL9rFvxQpFrRAoSfeQnd39r9+684jYXmTM13ZBvXhxCidh+z
AgMBAAGjggFjMIIBXzAJBgNVHRMEAjAAMC0GCWCGSAGG+EIBDQQgFh5FYXN5LVJT
QSBHZW5lcmF0ZWQgQ2VydGlmaWNhdGUwHQYDVR0OBBYEFBvv+mkNU5UEX6XyHA3D
giMzE2SyMIHhBgNVHSMEgdkwgdaAFBLNYATSoICecO3Gmbh7LMZS/RmhoYGypIGv
MIGsMQswCQYDVQQGEwJVUzELMAkGA1UECBMCT0gxETAPBgNVBAcTCENvbHVtYnVz
MRIwEAYDVQQKEwlWaWtpbmdWUE4xHTAbBgNVBAsTFE15T3JnYW5pemF0aW9uYWxV
bml0MRUwEwYDVQQDEwxWaWtpbmdWUE4gQ0ExEDAOBgNVBCkTB0Vhc3lSU0ExITAf
BgkqhkiG9w0BCQEWEm1lQG15aG9zdC5teWRvbWFpboIJAM81he6Avyo+MBMGA1Ud
JQQMMAoGCCsGAQUFBwMCMAsGA1UdDwQEAwIHgDANBgkqhkiG9w0BAQQFAAOCAgEA
TLDcMAA8FjrKUvzca1rxf6NmaHdaJsaTcOePcsFoaAO+hZz8fCyxUzamqVao8gTd
0I8aSy94XXoKymoj2eeourkmYYU0DEv1Guo+bQqmyFVCr08+g81Eo1kJYlMfRISX
gbYBJ0t6sxhj9i1mFSh+zhI7jKemOj7Qt3/RBNHeucRWwWXczSM51HAPUGqd7MUR
leh20GB0yLc25d8OUVhsoQY+j6t3dW2lJjIUtbmQe/b6dFjaXKGhd6HkXZaY06K3
O/l6M5ugyHnJa/iLH6FB0n8eVGU2wFg+z6Ps5OP3UOx2pWFejVcsSKGt7GnDYtgL
3YoTj/3YH9yJb+8ap2quKSiQ2B7K0KMQGF39byYmK9liKDKmfsOkADkkB6n5kyO3
uWvz3aw5PzaXfLwyUcYOxHk31HnYiDC5proAHxJyNkGqD+ToXo4ZRRGsMOaHaCmU
VYrA12vom0AfiDdtM70RjZmSlNVIR/V22I7wzE16ug6IsZFqJn+5UHQCRqCfiFMk
PSMSl9LCSQX9VUWYTISs7jPVEZTuTa1i9mLMVD65i0HFFA/ebgLlRNW/xzQYizH3
XF/d6xMDaHJfX/W6+V0oKFLpcCfHe1w8gKS70KXl7BB4tf7xggP4glo9l1OiXY0c
sCSVi/1TY744qfbF5hSjKUTbS3GcP11f5EEL8QBvdGk=
-----END CERTIFICATE-----
