Certificate:
    Data:
        Version: 3 (0x2)
        Serial Number: 1670 (0x686)
    Signature Algorithm: md5WithRSAEncryption
        Issuer: C=US, ST=OH, L=Columbus, O=VikingVPN, OU=MyOrganizationalUnit, CN=VikingVPN CA/name=EasyRSA/emailAddress=me@myhost.mydomain
        Validity
            Not Before: Apr 18 21:08:36 2014 GMT
            Not After : Apr 15 21:08:36 2024 GMT
        Subject: CN=Client338Cert39969d
        Subject Public Key Info:
            Public Key Algorithm: rsaEncryption
                Public-Key: (4096 bit)
                Modulus:
                    00:c9:b7:1f:d7:20:49:25:26:d0:17:47:8f:79:8f:
                    43:70:f6:ae:d7:b5:14:4b:e0:d0:b7:f8:df:a3:bc:
                    f0:74:02:f4:49:d5:26:b1:ab:ca:3b:68:35:74:46:
                    b2:ce:6d:e4:e5:58:50:81:5f:23:3b:17:f2:04:02:
                    35:f3:90:bd:74:4a:52:af:1d:85:00:85:da:47:48:
                    c2:fc:21:2a:8e:eb:ea:d1:44:3f:68:82:b0:80:dd:
                    6b:90:77:83:16:5a:2a:b4:19:08:cc:a4:55:59:4b:
                    66:ce:81:1a:ea:3d:85:ac:ba:f7:ec:fc:0b:39:a7:
                    13:db:11:54:bd:e3:06:e4:51:7f:9b:82:33:b7:ce:
                    72:35:0c:1c:38:c9:8e:c5:d0:c1:f4:82:fa:09:32:
                    81:37:13:3c:43:e3:7f:92:f7:fb:09:c2:bc:ff:f2:
                    da:98:76:cc:02:ab:d0:9e:e8:04:dd:d7:5e:90:1a:
                    dd:35:97:83:88:c9:92:5f:93:08:4d:09:e2:d4:40:
                    c2:a0:80:42:ed:23:1e:54:b7:ad:a3:85:93:10:a9:
                    b4:fa:1b:ed:4f:ff:fd:61:ed:cf:96:61:ff:94:e8:
                    93:98:d5:88:c4:f8:73:58:44:97:1a:50:e4:bc:17:
                    c1:b6:53:ba:8b:af:b8:c0:66:fb:86:05:be:b8:67:
                    4d:53:28:e9:a8:d3:1f:88:57:20:33:15:ff:74:46:
                    f3:42:92:7d:03:70:0b:c6:23:89:4b:44:de:76:66:
                    00:04:65:41:75:48:52:d9:b9:ea:2d:81:10:e6:eb:
                    19:7c:3d:de:58:6e:18:fe:13:6b:aa:b3:6f:35:a2:
                    ca:9d:14:35:fb:dc:34:77:aa:d7:16:58:e7:f6:9f:
                    74:4f:88:60:77:c8:11:dd:ef:a3:a5:7c:8d:75:8b:
                    c9:b2:fe:4b:bb:aa:15:36:50:cb:41:3f:55:0e:1f:
                    fa:ff:d6:50:4f:af:15:ea:13:ba:74:18:92:39:56:
                    b4:cb:ea:65:14:a3:9f:88:3a:29:04:91:b5:9c:0f:
                    b8:fd:95:b9:1e:29:85:9b:9a:78:6c:43:cd:6a:60:
                    0c:48:4d:9a:23:01:63:1e:ee:72:a3:ab:07:13:1d:
                    ae:43:88:3d:73:af:fd:fe:33:22:28:67:31:db:31:
                    fe:e0:a1:51:47:be:6d:2b:67:74:02:1d:8d:6a:34:
                    89:4a:1d:72:66:c5:4d:ec:9a:7a:a1:cb:ad:30:65:
                    26:26:b2:ad:41:7d:30:08:da:28:25:fd:b3:85:25:
                    70:8c:91:b4:a4:ec:4c:c9:0b:ec:a5:ab:67:cf:a5:
                    b9:1c:ef:7c:cf:b2:ae:40:d6:ae:d1:2c:d1:5a:78:
                    7e:d3:d3
                Exponent: 65537 (0x10001)
        X509v3 extensions:
            X509v3 Basic Constraints: 
                CA:FALSE
            Netscape Comment: 
                Easy-RSA Generated Certificate
            X509v3 Subject Key Identifier: 
                93:48:BF:02:42:1E:EC:4D:C8:33:A3:4F:5C:27:E8:23:43:E1:F4:25
            X509v3 Authority Key Identifier: 
                keyid:12:CD:60:04:D2:A0:80:9E:70:ED:C6:99:B8:7B:2C:C6:52:FD:19:A1
                DirName:/C=US/ST=OH/L=Columbus/O=VikingVPN/OU=MyOrganizationalUnit/CN=VikingVPN CA/name=EasyRSA/emailAddress=me@myhost.mydomain
                serial:CF:35:85:EE:80:BF:2A:3E

            X509v3 Extended Key Usage: 
                TLS Web Client Authentication
            X509v3 Key Usage: 
                Digital Signature
    Signature Algorithm: md5WithRSAEncryption
         28:f1:9f:21:05:9c:5a:62:89:e9:21:ab:4f:c9:57:8e:78:cb:
         7d:28:e7:01:4b:af:ac:be:e7:92:80:54:c4:b8:40:70:43:92:
         d1:f5:40:7a:bd:34:57:a0:2f:9b:ad:ca:51:21:ab:f0:21:bd:
         69:45:66:5c:c8:f5:2f:09:75:ab:a8:43:0f:80:6f:ce:49:43:
         1f:61:67:35:8d:25:f2:cd:fb:4c:c8:f5:e7:fb:94:f0:d3:f9:
         56:af:8e:ed:d1:87:59:7e:d1:0d:5d:0f:74:e9:2a:d3:c4:9c:
         bb:ea:09:ac:a4:fc:51:13:12:0a:51:b9:bf:f6:b8:2f:e2:d8:
         85:cd:fb:78:14:32:ee:1b:2b:40:d3:12:37:15:8d:6b:0c:3a:
         cc:6f:37:e2:44:bb:1b:c1:4d:48:ab:87:7e:d6:64:a5:a8:4c:
         15:66:61:35:7e:32:59:64:9c:04:c5:23:62:3f:a7:2f:ac:6e:
         a3:86:d6:7f:42:a5:78:12:72:da:9a:4a:b8:24:4e:9b:98:48:
         45:79:a0:d6:3e:ea:2a:89:21:73:fb:f9:bc:72:70:11:e1:39:
         98:be:eb:b1:59:b9:e8:22:f8:e2:a1:cc:7b:8e:8d:f8:23:3a:
         1f:8b:06:f1:09:1c:3f:b9:07:f4:37:8f:5c:7c:61:63:ce:f8:
         58:6d:43:25:47:12:e5:fe:06:df:26:d1:77:72:e9:13:38:da:
         f5:08:00:af:07:c8:a2:f5:c8:f9:c5:03:27:ce:54:ac:51:5e:
         95:65:97:57:41:fe:cb:62:55:81:b7:1d:34:04:fd:e8:f3:e0:
         84:1e:66:45:9f:65:1a:b0:85:ae:23:44:cf:c1:dd:6f:38:34:
         bd:a3:6a:bb:37:84:dc:02:c3:d8:1e:20:ad:38:18:93:b9:95:
         1e:fc:ee:af:1e:e7:66:df:43:0d:be:99:74:00:19:38:94:6c:
         2f:f3:5c:6b:56:a3:4a:ed:16:21:1c:af:d8:f2:99:5b:3f:fa:
         4e:41:df:b3:9f:72:6f:21:6b:e5:35:30:c3:ae:11:75:6b:db:
         42:78:c3:4d:13:3f:d7:64:03:ed:4b:76:eb:b2:bf:d1:b0:28:
         f6:08:4b:7e:d3:b9:af:ac:07:07:62:d4:56:fb:63:ed:f6:1a:
         19:bc:ae:24:b3:82:89:c4:fa:0b:bd:52:38:c8:be:de:d3:ea:
         d7:06:9d:70:9d:28:27:d8:6f:6b:01:de:a4:c7:30:71:17:09:
         ec:ec:3a:d3:76:97:b4:fd:44:54:14:e6:6b:6e:74:fa:04:a1:
         30:b4:c2:27:7d:e3:61:a8:27:0f:f8:dd:ec:0d:40:35:b2:58:
         f8:d2:ea:c9:65:8d:ad:43
-----BEGIN CERTIFICATE-----
MIIGrDCCBJSgAwIBAgICBoYwDQYJKoZIhvcNAQEEBQAwgawxCzAJBgNVBAYTAlVT
MQswCQYDVQQIEwJPSDERMA8GA1UEBxMIQ29sdW1idXMxEjAQBgNVBAoTCVZpa2lu
Z1ZQTjEdMBsGA1UECxMUTXlPcmdhbml6YXRpb25hbFVuaXQxFTATBgNVBAMTDFZp
a2luZ1ZQTiBDQTEQMA4GA1UEKRMHRWFzeVJTQTEhMB8GCSqGSIb3DQEJARYSbWVA
bXlob3N0Lm15ZG9tYWluMB4XDTE0MDQxODIxMDgzNloXDTI0MDQxNTIxMDgzNlow
HjEcMBoGA1UEAxMTQ2xpZW50MzM4Q2VydDM5OTY5ZDCCAiIwDQYJKoZIhvcNAQEB
BQADggIPADCCAgoCggIBAMm3H9cgSSUm0BdHj3mPQ3D2rte1FEvg0Lf436O88HQC
9EnVJrGryjtoNXRGss5t5OVYUIFfIzsX8gQCNfOQvXRKUq8dhQCF2kdIwvwhKo7r
6tFEP2iCsIDda5B3gxZaKrQZCMykVVlLZs6BGuo9hay69+z8CzmnE9sRVL3jBuRR
f5uCM7fOcjUMHDjJjsXQwfSC+gkygTcTPEPjf5L3+wnCvP/y2ph2zAKr0J7oBN3X
XpAa3TWXg4jJkl+TCE0J4tRAwqCAQu0jHlS3raOFkxCptPob7U///WHtz5Zh/5To
k5jViMT4c1hElxpQ5LwXwbZTuouvuMBm+4YFvrhnTVMo6ajTH4hXIDMV/3RG80KS
fQNwC8YjiUtE3nZmAARlQXVIUtm56i2BEObrGXw93lhuGP4Ta6qzbzWiyp0UNfvc
NHeq1xZY5/afdE+IYHfIEd3vo6V8jXWLybL+S7uqFTZQy0E/VQ4f+v/WUE+vFeoT
unQYkjlWtMvqZRSjn4g6KQSRtZwPuP2VuR4phZuaeGxDzWpgDEhNmiMBYx7ucqOr
BxMdrkOIPXOv/f4zIihnMdsx/uChUUe+bStndAIdjWo0iUodcmbFTeyaeqHLrTBl
JiayrUF9MAjaKCX9s4UlcIyRtKTsTMkL7KWrZ8+luRzvfM+yrkDWrtEs0Vp4ftPT
AgMBAAGjggFjMIIBXzAJBgNVHRMEAjAAMC0GCWCGSAGG+EIBDQQgFh5FYXN5LVJT
QSBHZW5lcmF0ZWQgQ2VydGlmaWNhdGUwHQYDVR0OBBYEFJNIvwJCHuxNyDOjT1wn
6CND4fQlMIHhBgNVHSMEgdkwgdaAFBLNYATSoICecO3Gmbh7LMZS/RmhoYGypIGv
MIGsMQswCQYDVQQGEwJVUzELMAkGA1UECBMCT0gxETAPBgNVBAcTCENvbHVtYnVz
MRIwEAYDVQQKEwlWaWtpbmdWUE4xHTAbBgNVBAsTFE15T3JnYW5pemF0aW9uYWxV
bml0MRUwEwYDVQQDEwxWaWtpbmdWUE4gQ0ExEDAOBgNVBCkTB0Vhc3lSU0ExITAf
BgkqhkiG9w0BCQEWEm1lQG15aG9zdC5teWRvbWFpboIJAM81he6Avyo+MBMGA1Ud
JQQMMAoGCCsGAQUFBwMCMAsGA1UdDwQEAwIHgDANBgkqhkiG9w0BAQQFAAOCAgEA
KPGfIQWcWmKJ6SGrT8lXjnjLfSjnAUuvrL7nkoBUxLhAcEOS0fVAer00V6Avm63K
USGr8CG9aUVmXMj1Lwl1q6hDD4BvzklDH2FnNY0l8s37TMj15/uU8NP5Vq+O7dGH
WX7RDV0PdOkq08Scu+oJrKT8URMSClG5v/a4L+LYhc37eBQy7hsrQNMSNxWNaww6
zG834kS7G8FNSKuHftZkpahMFWZhNX4yWWScBMUjYj+nL6xuo4bWf0KleBJy2ppK
uCROm5hIRXmg1j7qKokhc/v5vHJwEeE5mL7rsVm56CL44qHMe46N+CM6H4sG8Qkc
P7kH9DePXHxhY874WG1DJUcS5f4G3ybRd3LpEzja9QgArwfIovXI+cUDJ85UrFFe
lWWXV0H+y2JVgbcdNAT96PPghB5mRZ9lGrCFriNEz8Hdbzg0vaNquzeE3ALD2B4g
rTgYk7mVHvzurx7nZt9DDb6ZdAAZOJRsL/Nca1ajSu0WIRyv2PKZWz/6TkHfs59y
byFr5TUww64RdWvbQnjDTRM/12QD7Ut267K/0bAo9ghLftO5r6wHB2LUVvtj7fYa
GbyuJLOCicT6C71SOMi+3tPq1wadcJ0oJ9hvawHepMcwcRcJ7Ow603aXtP1EVBTm
a250+gShMLTCJ33jYagnD/jd7A1ANbJY+NLqyWWNrUM=
-----END CERTIFICATE-----
