Certificate:
    Data:
        Version: 3 (0x2)
        Serial Number: 1676 (0x68c)
    Signature Algorithm: md5WithRSAEncryption
        Issuer: C=US, ST=OH, L=Columbus, O=VikingVPN, OU=MyOrganizationalUnit, CN=VikingVPN CA/name=EasyRSA/emailAddress=me@myhost.mydomain
        Validity
            Not Before: Apr 19 17:38:44 2014 GMT
            Not After : Apr 16 17:38:44 2024 GMT
        Subject: CN=Client599Cert9048d2
        Subject Public Key Info:
            Public Key Algorithm: rsaEncryption
                Public-Key: (4096 bit)
                Modulus:
                    00:b7:93:0f:c7:67:80:60:48:3b:c9:7c:75:1a:82:
                    b1:71:a6:9c:41:e2:b7:19:81:f0:b3:fd:9e:a0:77:
                    b3:6d:3a:9d:ec:28:76:a0:91:eb:34:1e:38:41:bd:
                    d2:d4:f6:58:99:32:3e:e6:c6:84:9c:44:46:5d:50:
                    cb:19:c0:0b:fa:e6:bb:b1:3c:a8:07:9b:bd:9a:76:
                    ee:cb:ed:82:c3:4e:8e:42:57:76:29:a3:e2:56:91:
                    39:d1:95:d4:9d:2d:78:a0:f8:97:6a:64:79:a3:22:
                    7b:b0:60:86:87:09:a2:9e:e1:a2:70:01:91:40:ce:
                    1a:b1:96:2d:9c:50:e8:de:bc:17:11:7e:7d:0f:d4:
                    d0:9f:e8:45:bf:b0:f1:d5:29:04:8f:d1:6c:5f:74:
                    17:1d:0c:d7:75:41:15:34:b6:df:f0:a9:99:98:ec:
                    fa:95:8a:07:f8:1b:c3:13:bd:18:57:cc:90:b4:7e:
                    2f:6e:d4:58:6e:88:04:00:c5:df:41:ff:7e:fb:c6:
                    56:e1:cd:84:97:4f:48:14:26:32:93:d9:e0:82:8c:
                    c8:b6:7b:db:9a:82:b4:58:59:8f:85:bf:b6:b7:13:
                    4b:2e:92:48:d4:dc:7a:90:91:5b:42:7f:23:0d:09:
                    bb:ff:68:76:ce:ae:21:8f:ed:f5:dc:34:c6:15:e5:
                    f2:aa:6e:91:07:55:49:ab:88:41:89:21:53:3a:4c:
                    36:4e:4a:96:02:4b:3f:c7:25:b2:74:ec:71:f8:88:
                    f6:d5:b5:b7:6e:2d:be:16:b2:8c:9d:2d:ea:f1:21:
                    21:90:b3:cc:2a:15:9e:43:22:fb:63:d0:b5:cb:df:
                    88:ff:a8:1d:e0:4c:90:40:0c:66:40:ad:54:81:cd:
                    43:4b:a1:2e:2b:be:b0:1e:d7:da:63:7e:75:4e:a5:
                    05:c3:69:5e:be:3c:5a:c4:68:9d:67:b8:8f:da:72:
                    bd:22:ab:35:8a:45:ba:42:9e:57:c2:63:bf:11:ac:
                    ef:c3:a3:e5:2f:c6:8e:c8:32:32:44:be:2a:d1:ce:
                    fa:fa:de:4a:68:73:6a:b8:62:0d:d2:33:e5:e8:a0:
                    8b:fc:a4:53:7a:b8:79:70:26:40:ef:22:f7:51:36:
                    69:0a:aa:8b:03:c4:4a:ee:36:b1:cd:ad:c0:3f:a0:
                    19:bd:05:98:fb:b6:bc:56:09:58:1a:c9:b2:45:ac:
                    85:49:cb:53:54:e0:02:ae:d8:5a:39:91:89:92:92:
                    eb:a2:f1:32:e1:f5:51:71:ae:40:47:d6:d7:bd:a4:
                    55:07:15:05:9c:cb:4a:ad:b7:d7:2a:05:c5:f3:0f:
                    0d:0b:ac:61:0a:27:50:af:d1:77:45:e5:eb:81:f1:
                    89:77:0f
                Exponent: 65537 (0x10001)
        X509v3 extensions:
            X509v3 Basic Constraints: 
                CA:FALSE
            Netscape Comment: 
                Easy-RSA Generated Certificate
            X509v3 Subject Key Identifier: 
                22:67:E8:72:38:91:83:4E:72:66:FA:40:DC:5E:7A:67:DD:36:BA:48
            X509v3 Authority Key Identifier: 
                keyid:12:CD:60:04:D2:A0:80:9E:70:ED:C6:99:B8:7B:2C:C6:52:FD:19:A1
                DirName:/C=US/ST=OH/L=Columbus/O=VikingVPN/OU=MyOrganizationalUnit/CN=VikingVPN CA/name=EasyRSA/emailAddress=me@myhost.mydomain
                serial:CF:35:85:EE:80:BF:2A:3E

            X509v3 Extended Key Usage: 
                TLS Web Client Authentication
            X509v3 Key Usage: 
                Digital Signature
    Signature Algorithm: md5WithRSAEncryption
         0b:45:50:f8:76:70:07:56:7d:8c:27:b1:92:c2:e3:0d:c8:a0:
         11:ed:7f:a0:7a:d1:a9:1d:af:b0:31:7b:e2:ef:b9:1a:dc:a9:
         81:3e:44:b0:62:30:15:8f:a3:38:9c:3c:0e:99:0e:7a:4f:3b:
         a8:78:e3:de:1e:42:c4:89:67:f1:8d:33:fc:49:d1:ce:e9:8b:
         64:19:d6:03:23:95:2f:1a:e3:a1:1a:5b:24:82:8e:e3:94:be:
         87:2e:71:bd:7c:4a:26:7c:8a:b0:df:24:ea:ac:d9:a2:07:ba:
         a3:d7:c4:dc:06:21:ed:d1:9d:22:65:dc:b3:7c:d2:f5:a4:02:
         86:92:aa:bd:9b:f0:6c:90:50:0b:e7:9b:69:71:c2:57:69:52:
         98:68:35:91:33:15:5f:4e:7c:00:77:54:a9:1a:ae:f5:2d:9b:
         20:be:d3:45:f5:2d:94:9b:7c:bb:85:d1:11:0a:a5:32:d3:81:
         db:b4:0b:c7:d2:c0:82:40:6f:91:ad:a1:ba:b7:7e:1c:03:c0:
         3f:90:5b:39:b6:3d:ef:c7:ff:54:7b:5f:0c:a0:20:b2:44:57:
         06:bf:9d:ee:4c:64:c4:20:ec:29:1b:06:10:ea:fb:de:f4:2a:
         fa:2d:4f:a8:da:84:f3:af:c3:44:c7:1a:35:ab:78:92:53:1f:
         44:b9:74:af:98:59:38:dd:ef:b1:67:9a:08:57:3b:b5:9f:c5:
         e9:6e:16:31:fa:44:3a:f5:73:86:ee:17:6e:fd:40:76:cd:b5:
         bf:56:fa:ff:66:63:43:fb:69:41:b0:cb:92:71:89:62:5c:78:
         8e:9f:91:cf:f0:47:63:54:b2:d9:53:23:1b:f5:4c:1b:35:5e:
         0c:a7:8f:29:1c:a0:62:f7:b3:a3:73:9a:65:4c:f6:e7:17:32:
         8e:8c:c4:a0:f0:22:25:12:02:3c:be:fb:fe:b1:88:78:70:f9:
         fa:31:7b:05:cf:60:f0:8e:bc:69:dc:80:29:ad:88:95:88:8f:
         45:13:26:02:45:10:72:1d:37:59:78:a5:8e:2d:05:e7:55:73:
         42:b9:a8:ea:a7:28:c7:24:9c:18:5c:dc:1e:bc:7b:3a:2e:9c:
         2b:8b:ad:61:ba:48:2d:a4:4a:6e:bf:0c:46:fb:4c:a0:19:b6:
         3b:f5:4f:ba:2c:f5:ae:d5:a7:9d:b2:6c:e5:80:36:d1:fb:c0:
         bc:82:ef:e6:79:a6:6d:6d:24:d7:94:e2:06:44:68:5a:6c:88:
         5d:83:5a:8d:f2:50:54:24:a6:19:92:fc:3e:19:eb:80:3f:77:
         37:3e:59:d3:17:10:cc:5a:cd:21:00:62:7b:bc:0d:fe:1a:90:
         9b:d1:cc:ad:41:7c:22:ff
-----BEGIN CERTIFICATE-----
MIIGrDCCBJSgAwIBAgICBowwDQYJKoZIhvcNAQEEBQAwgawxCzAJBgNVBAYTAlVT
MQswCQYDVQQIEwJPSDERMA8GA1UEBxMIQ29sdW1idXMxEjAQBgNVBAoTCVZpa2lu
Z1ZQTjEdMBsGA1UECxMUTXlPcmdhbml6YXRpb25hbFVuaXQxFTATBgNVBAMTDFZp
a2luZ1ZQTiBDQTEQMA4GA1UEKRMHRWFzeVJTQTEhMB8GCSqGSIb3DQEJARYSbWVA
bXlob3N0Lm15ZG9tYWluMB4XDTE0MDQxOTE3Mzg0NFoXDTI0MDQxNjE3Mzg0NFow
HjEcMBoGA1UEAxMTQ2xpZW50NTk5Q2VydDkwNDhkMjCCAiIwDQYJKoZIhvcNAQEB
BQADggIPADCCAgoCggIBALeTD8dngGBIO8l8dRqCsXGmnEHitxmB8LP9nqB3s206
newodqCR6zQeOEG90tT2WJkyPubGhJxERl1QyxnAC/rmu7E8qAebvZp27svtgsNO
jkJXdimj4laROdGV1J0teKD4l2pkeaMie7BghocJop7honABkUDOGrGWLZxQ6N68
FxF+fQ/U0J/oRb+w8dUpBI/RbF90Fx0M13VBFTS23/CpmZjs+pWKB/gbwxO9GFfM
kLR+L27UWG6IBADF30H/fvvGVuHNhJdPSBQmMpPZ4IKMyLZ725qCtFhZj4W/trcT
Sy6SSNTcepCRW0J/Iw0Ju/9ods6uIY/t9dw0xhXl8qpukQdVSauIQYkhUzpMNk5K
lgJLP8clsnTscfiI9tW1t24tvhayjJ0t6vEhIZCzzCoVnkMi+2PQtcvfiP+oHeBM
kEAMZkCtVIHNQ0uhLiu+sB7X2mN+dU6lBcNpXr48WsRonWe4j9pyvSKrNYpFukKe
V8JjvxGs78Oj5S/GjsgyMkS+KtHO+vreSmhzarhiDdIz5eigi/ykU3q4eXAmQO8i
91E2aQqqiwPESu42sc2twD+gGb0FmPu2vFYJWBrJskWshUnLU1TgAq7YWjmRiZKS
66LxMuH1UXGuQEfW172kVQcVBZzLSq231yoFxfMPDQusYQonUK/Rd0Xl64HxiXcP
AgMBAAGjggFjMIIBXzAJBgNVHRMEAjAAMC0GCWCGSAGG+EIBDQQgFh5FYXN5LVJT
QSBHZW5lcmF0ZWQgQ2VydGlmaWNhdGUwHQYDVR0OBBYEFCJn6HI4kYNOcmb6QNxe
emfdNrpIMIHhBgNVHSMEgdkwgdaAFBLNYATSoICecO3Gmbh7LMZS/RmhoYGypIGv
MIGsMQswCQYDVQQGEwJVUzELMAkGA1UECBMCT0gxETAPBgNVBAcTCENvbHVtYnVz
MRIwEAYDVQQKEwlWaWtpbmdWUE4xHTAbBgNVBAsTFE15T3JnYW5pemF0aW9uYWxV
bml0MRUwEwYDVQQDEwxWaWtpbmdWUE4gQ0ExEDAOBgNVBCkTB0Vhc3lSU0ExITAf
BgkqhkiG9w0BCQEWEm1lQG15aG9zdC5teWRvbWFpboIJAM81he6Avyo+MBMGA1Ud
JQQMMAoGCCsGAQUFBwMCMAsGA1UdDwQEAwIHgDANBgkqhkiG9w0BAQQFAAOCAgEA
C0VQ+HZwB1Z9jCexksLjDcigEe1/oHrRqR2vsDF74u+5GtypgT5EsGIwFY+jOJw8
DpkOek87qHjj3h5CxIln8Y0z/EnRzumLZBnWAyOVLxrjoRpbJIKO45S+hy5xvXxK
JnyKsN8k6qzZoge6o9fE3AYh7dGdImXcs3zS9aQChpKqvZvwbJBQC+ebaXHCV2lS
mGg1kTMVX058AHdUqRqu9S2bIL7TRfUtlJt8u4XREQqlMtOB27QLx9LAgkBvka2h
urd+HAPAP5BbObY978f/VHtfDKAgskRXBr+d7kxkxCDsKRsGEOr73vQq+i1PqNqE
86/DRMcaNat4klMfRLl0r5hZON3vsWeaCFc7tZ/F6W4WMfpEOvVzhu4Xbv1Ads21
v1b6/2ZjQ/tpQbDLknGJYlx4jp+Rz/BHY1Sy2VMjG/VMGzVeDKePKRygYvezo3Oa
ZUz25xcyjozEoPAiJRICPL77/rGIeHD5+jF7Bc9g8I68adyAKa2IlYiPRRMmAkUQ
ch03WXilji0F51VzQrmo6qcoxyScGFzcHrx7Oi6cK4utYbpILaRKbr8MRvtMoBm2
O/VPuiz1rtWnnbJs5YA20fvAvILv5nmmbW0k15TiBkRoWmyIXYNajfJQVCSmGZL8
PhnrgD93Nz5Z0xcQzFrNIQBie7wN/hqQm9HMrUF8Iv8=
-----END CERTIFICATE-----
