Certificate:
    Data:
        Version: 3 (0x2)
        Serial Number: 1682 (0x692)
    Signature Algorithm: md5WithRSAEncryption
        Issuer: C=US, ST=OH, L=Columbus, O=VikingVPN, OU=MyOrganizationalUnit, CN=VikingVPN CA/name=EasyRSA/emailAddress=me@myhost.mydomain
        Validity
            Not Before: Apr 21 01:02:05 2014 GMT
            Not After : Apr 18 01:02:05 2024 GMT
        Subject: CN=Client541Cert16bbc9
        Subject Public Key Info:
            Public Key Algorithm: rsaEncryption
                Public-Key: (4096 bit)
                Modulus:
                    00:e0:72:eb:04:80:b0:0b:bf:8c:06:69:4f:38:23:
                    1d:ed:09:84:1d:4d:b4:7d:ee:19:28:aa:45:3c:e7:
                    3b:aa:51:cb:4f:bc:2f:32:2a:46:48:76:36:fe:a0:
                    93:9f:08:62:03:b2:2e:8f:58:3d:8a:23:26:02:5a:
                    43:a1:6c:fb:22:11:3f:6b:aa:8c:61:25:10:73:99:
                    68:4f:e0:60:2b:5d:f6:6d:2d:c6:8c:81:42:fe:93:
                    f5:86:3c:c1:b6:4c:b0:a7:2f:71:92:dd:a8:0d:2d:
                    fc:5c:68:0b:12:a2:6e:d7:e7:26:46:b1:18:4a:cc:
                    2c:c1:0b:e0:09:de:e7:52:a6:02:4a:db:aa:9e:5a:
                    de:28:31:99:e3:fe:2c:c6:bc:ee:bd:dc:69:ae:c6:
                    b3:78:f5:05:30:81:7c:19:40:80:40:55:09:33:eb:
                    52:97:cb:b6:f0:38:8f:39:07:95:25:5e:4b:78:10:
                    09:63:2b:e4:d0:a3:5d:3b:c0:03:ad:ee:9c:87:f6:
                    9a:ef:1b:ad:69:17:c4:fa:4b:cb:37:4b:23:fa:08:
                    d2:1d:2b:7a:4d:e6:d9:35:88:51:80:2e:9f:9c:31:
                    f0:18:51:56:49:58:ac:e6:87:9d:7d:29:da:2c:c1:
                    61:a4:c2:52:7a:ff:7b:b3:77:fd:32:8c:a7:92:0c:
                    d0:95:60:95:dd:5e:c4:ce:91:7d:ba:19:a9:e1:ce:
                    0d:69:1e:f7:62:c3:be:8a:a4:28:c8:d0:05:65:d3:
                    0d:2b:1d:05:14:de:a5:66:ff:a3:8d:ba:ac:59:ca:
                    d6:5f:d3:d6:d4:33:f2:6f:9f:2c:9b:67:bd:1e:bf:
                    38:ec:4a:bd:f9:b1:5f:91:35:95:84:0f:43:b9:bd:
                    19:6c:c6:a0:01:4d:ae:1e:e5:f9:04:eb:68:86:90:
                    dd:26:9b:28:60:f9:4b:e6:e1:b9:a9:dd:ca:c2:9d:
                    87:54:48:e6:7f:73:73:e3:58:cc:64:5f:16:25:98:
                    e8:72:6a:c2:5c:ef:9d:eb:0c:70:9e:2f:8e:55:28:
                    d6:4f:0b:3a:23:55:d0:03:d3:ff:2d:8a:72:b7:bd:
                    6e:fe:b0:f7:27:3d:55:dd:08:6b:d5:36:aa:e7:30:
                    88:6e:19:2a:bc:68:7a:29:4f:f4:7c:d0:6d:9b:af:
                    2e:32:62:e4:83:1e:e4:98:dc:62:31:8e:78:15:fa:
                    33:a5:56:ff:7e:5c:6c:3d:89:a2:a4:cd:4f:c0:99:
                    32:02:bc:9a:40:96:46:b2:7f:b3:af:30:6a:16:67:
                    49:b9:54:b4:9b:df:e4:83:c6:60:6a:44:ec:41:f1:
                    53:2e:57:3f:73:e8:ad:a0:e6:99:bb:33:13:56:c5:
                    86:2c:87
                Exponent: 65537 (0x10001)
        X509v3 extensions:
            X509v3 Basic Constraints: 
                CA:FALSE
            Netscape Comment: 
                Easy-RSA Generated Certificate
            X509v3 Subject Key Identifier: 
                E5:94:D8:0E:61:38:5F:4A:C8:99:EC:20:66:37:E4:BE:78:3B:B7:C3
            X509v3 Authority Key Identifier: 
                keyid:12:CD:60:04:D2:A0:80:9E:70:ED:C6:99:B8:7B:2C:C6:52:FD:19:A1
                DirName:/C=US/ST=OH/L=Columbus/O=VikingVPN/OU=MyOrganizationalUnit/CN=VikingVPN CA/name=EasyRSA/emailAddress=me@myhost.mydomain
                serial:CF:35:85:EE:80:BF:2A:3E

            X509v3 Extended Key Usage: 
                TLS Web Client Authentication
            X509v3 Key Usage: 
                Digital Signature
    Signature Algorithm: md5WithRSAEncryption
         64:d3:f7:aa:fe:23:f6:a9:e1:e5:fa:ff:f5:6d:69:42:5a:eb:
         5f:79:66:ce:98:e2:02:2c:c6:5d:56:49:4f:c7:c7:73:38:04:
         c8:92:07:af:c1:31:a7:0f:63:e6:42:63:81:14:dd:af:c6:82:
         c9:45:4d:f5:0c:78:36:d9:8b:84:19:86:44:0d:96:dc:db:86:
         a0:6a:0a:6e:03:be:ba:9c:29:04:45:a1:bb:b6:56:f2:06:c7:
         11:95:d8:43:bd:22:6b:60:59:4a:bd:1b:1f:fc:26:63:a9:1b:
         f2:28:f4:1f:63:24:45:d7:c7:9a:13:73:d0:f7:09:a7:bf:1c:
         54:a9:1e:76:58:c2:81:80:60:df:4d:20:cd:76:c6:2f:25:eb:
         21:66:16:22:b4:ee:06:db:46:03:32:b9:36:59:2b:9a:8f:a4:
         21:31:6e:da:c9:11:18:f9:5e:c5:88:67:86:c6:dc:fa:dd:27:
         c8:28:5e:ef:81:55:2e:9e:a2:f0:74:3e:63:46:b6:a2:f1:78:
         e8:94:c5:fe:5f:fe:9a:5d:f3:49:52:48:9a:9e:b8:e0:c2:3a:
         77:dd:f6:2a:e2:96:96:cf:af:c7:10:6d:5c:02:76:63:e6:14:
         95:20:6d:27:a0:4a:1d:e5:30:4d:5e:35:cd:5a:64:4c:e3:61:
         90:96:0f:24:f2:a9:fe:80:ef:44:21:c3:86:9c:24:56:4d:79:
         e3:46:b5:9b:33:52:6d:64:1e:3e:6c:e4:56:bc:71:44:6f:34:
         37:09:1e:4b:4e:9e:43:3e:17:ec:d1:46:00:ab:1c:31:ba:38:
         b6:8e:80:ad:e0:4c:ba:9c:b0:6c:8d:1e:3d:b7:b7:e4:cf:7f:
         32:2c:9e:ca:b5:7a:39:67:cc:86:a0:47:e0:2d:41:56:db:aa:
         71:f6:0a:d2:74:77:4f:ad:fc:63:14:78:83:b5:71:f2:41:bd:
         21:c1:62:09:bf:9a:e5:68:49:77:1e:2e:f7:ec:c2:0f:30:d0:
         9c:6a:5f:58:1f:16:e2:fb:3d:57:41:87:0c:7b:85:9f:ed:c1:
         e1:50:a0:b5:79:a5:d1:50:88:c0:9e:55:09:86:16:15:1d:08:
         35:75:61:df:7a:85:db:93:83:22:52:b3:cf:e5:95:9e:50:38:
         48:3d:94:da:77:28:00:78:78:ac:e7:5e:c4:49:21:c4:bc:c3:
         c1:6f:2b:97:ea:54:4c:2c:f1:56:22:43:44:1e:b6:2c:bf:c4:
         eb:d5:57:14:3f:fe:56:b3:64:b3:cc:00:a7:d3:6a:71:1c:36:
         66:6f:2f:e1:fd:1e:8c:a6:08:ca:b3:14:f1:43:b1:37:25:11:
         aa:b3:e7:51:02:d2:95:47
-----BEGIN CERTIFICATE-----
MIIGrDCCBJSgAwIBAgICBpIwDQYJKoZIhvcNAQEEBQAwgawxCzAJBgNVBAYTAlVT
MQswCQYDVQQIEwJPSDERMA8GA1UEBxMIQ29sdW1idXMxEjAQBgNVBAoTCVZpa2lu
Z1ZQTjEdMBsGA1UECxMUTXlPcmdhbml6YXRpb25hbFVuaXQxFTATBgNVBAMTDFZp
a2luZ1ZQTiBDQTEQMA4GA1UEKRMHRWFzeVJTQTEhMB8GCSqGSIb3DQEJARYSbWVA
bXlob3N0Lm15ZG9tYWluMB4XDTE0MDQyMTAxMDIwNVoXDTI0MDQxODAxMDIwNVow
HjEcMBoGA1UEAxMTQ2xpZW50NTQxQ2VydDE2YmJjOTCCAiIwDQYJKoZIhvcNAQEB
BQADggIPADCCAgoCggIBAOBy6wSAsAu/jAZpTzgjHe0JhB1NtH3uGSiqRTznO6pR
y0+8LzIqRkh2Nv6gk58IYgOyLo9YPYojJgJaQ6Fs+yIRP2uqjGElEHOZaE/gYCtd
9m0txoyBQv6T9YY8wbZMsKcvcZLdqA0t/FxoCxKibtfnJkaxGErMLMEL4Ane51Km
Akrbqp5a3igxmeP+LMa87r3caa7Gs3j1BTCBfBlAgEBVCTPrUpfLtvA4jzkHlSVe
S3gQCWMr5NCjXTvAA63unIf2mu8brWkXxPpLyzdLI/oI0h0rek3m2TWIUYAun5wx
8BhRVklYrOaHnX0p2izBYaTCUnr/e7N3/TKMp5IM0JVgld1exM6RfboZqeHODWke
92LDvoqkKMjQBWXTDSsdBRTepWb/o426rFnK1l/T1tQz8m+fLJtnvR6/OOxKvfmx
X5E1lYQPQ7m9GWzGoAFNrh7l+QTraIaQ3SabKGD5S+bhuandysKdh1RI5n9zc+NY
zGRfFiWY6HJqwlzvnesMcJ4vjlUo1k8LOiNV0APT/y2Kcre9bv6w9yc9Vd0Ia9U2
qucwiG4ZKrxoeilP9HzQbZuvLjJi5IMe5JjcYjGOeBX6M6VW/35cbD2JoqTNT8CZ
MgK8mkCWRrJ/s68wahZnSblUtJvf5IPGYGpE7EHxUy5XP3PoraDmmbszE1bFhiyH
AgMBAAGjggFjMIIBXzAJBgNVHRMEAjAAMC0GCWCGSAGG+EIBDQQgFh5FYXN5LVJT
QSBHZW5lcmF0ZWQgQ2VydGlmaWNhdGUwHQYDVR0OBBYEFOWU2A5hOF9KyJnsIGY3
5L54O7fDMIHhBgNVHSMEgdkwgdaAFBLNYATSoICecO3Gmbh7LMZS/RmhoYGypIGv
MIGsMQswCQYDVQQGEwJVUzELMAkGA1UECBMCT0gxETAPBgNVBAcTCENvbHVtYnVz
MRIwEAYDVQQKEwlWaWtpbmdWUE4xHTAbBgNVBAsTFE15T3JnYW5pemF0aW9uYWxV
bml0MRUwEwYDVQQDEwxWaWtpbmdWUE4gQ0ExEDAOBgNVBCkTB0Vhc3lSU0ExITAf
BgkqhkiG9w0BCQEWEm1lQG15aG9zdC5teWRvbWFpboIJAM81he6Avyo+MBMGA1Ud
JQQMMAoGCCsGAQUFBwMCMAsGA1UdDwQEAwIHgDANBgkqhkiG9w0BAQQFAAOCAgEA
ZNP3qv4j9qnh5fr/9W1pQlrrX3lmzpjiAizGXVZJT8fHczgEyJIHr8Expw9j5kJj
gRTdr8aCyUVN9Qx4NtmLhBmGRA2W3NuGoGoKbgO+upwpBEWhu7ZW8gbHEZXYQ70i
a2BZSr0bH/wmY6kb8ij0H2MkRdfHmhNz0PcJp78cVKkedljCgYBg300gzXbGLyXr
IWYWIrTuBttGAzK5Nlkrmo+kITFu2skRGPlexYhnhsbc+t0nyChe74FVLp6i8HQ+
Y0a2ovF46JTF/l/+ml3zSVJImp644MI6d932KuKWls+vxxBtXAJ2Y+YUlSBtJ6BK
HeUwTV41zVpkTONhkJYPJPKp/oDvRCHDhpwkVk1540a1mzNSbWQePmzkVrxxRG80
NwkeS06eQz4X7NFGAKscMbo4to6AreBMupywbI0ePbe35M9/MiyeyrV6OWfMhqBH
4C1BVtuqcfYK0nR3T638YxR4g7Vx8kG9IcFiCb+a5WhJdx4u9+zCDzDQnGpfWB8W
4vs9V0GHDHuFn+3B4VCgtXml0VCIwJ5VCYYWFR0INXVh33qF25ODIlKzz+WVnlA4
SD2U2ncoAHh4rOdexEkhxLzDwW8rl+pUTCzxViJDRB62LL/E69VXFD/+VrNks8wA
p9NqcRw2Zm8v4f0ejKYIyrMU8UOxNyURqrPnUQLSlUc=
-----END CERTIFICATE-----
