Certificate:
    Data:
        Version: 3 (0x2)
        Serial Number: 1689 (0x699)
    Signature Algorithm: md5WithRSAEncryption
        Issuer: C=US, ST=OH, L=Columbus, O=VikingVPN, OU=MyOrganizationalUnit, CN=VikingVPN CA/name=EasyRSA/emailAddress=me@myhost.mydomain
        Validity
            Not Before: Apr 21 17:16:27 2014 GMT
            Not After : Apr 18 17:16:27 2024 GMT
        Subject: CN=Client303Cert22943e
        Subject Public Key Info:
            Public Key Algorithm: rsaEncryption
                Public-Key: (4096 bit)
                Modulus:
                    00:9a:86:e1:b6:18:85:50:a0:39:2b:59:89:f7:7a:
                    9b:24:87:96:ff:aa:e3:f9:6e:4b:66:15:de:5a:84:
                    0c:d3:b2:52:c7:3e:f7:ca:6d:e9:9f:62:d2:a5:10:
                    02:74:98:f7:ff:3e:d1:12:3c:36:21:9d:09:ba:dc:
                    35:9b:da:a2:c2:21:b0:d8:6d:54:ad:e3:28:9c:77:
                    c9:c8:6b:9c:37:14:94:60:6c:2c:ce:51:2c:c0:92:
                    b9:e2:48:e1:2c:4e:4d:0b:b8:c9:51:19:9c:51:8a:
                    d5:60:30:47:e8:3f:3c:b3:d8:d2:36:43:2b:92:b1:
                    19:70:56:45:45:75:17:a4:e3:76:11:8f:4a:30:13:
                    d5:00:aa:5b:41:bd:f9:50:8c:58:9d:65:35:b7:54:
                    52:68:dc:ce:4d:7c:b0:cb:48:df:b9:15:4d:9e:c2:
                    4f:74:90:f5:1f:e6:02:a3:0f:f8:07:de:6b:5f:95:
                    db:50:48:cb:58:1c:9d:f6:98:43:1c:29:a9:c9:dc:
                    15:cb:cc:8e:2b:e0:c7:c6:bc:81:f9:c2:b7:40:f0:
                    33:f5:90:f2:3b:62:36:92:f4:b4:f7:2a:b3:2c:a9:
                    48:71:40:f3:42:d3:ec:3a:96:7f:22:d6:13:33:24:
                    8b:5e:9c:66:c1:b8:7f:35:bf:2e:e8:ef:e9:bd:c1:
                    f3:8d:fc:a4:ec:7a:7d:ec:6e:81:f4:f9:74:ee:9e:
                    0a:69:2f:3a:14:16:87:31:ad:07:2c:58:e9:4b:da:
                    1a:8b:cd:cd:a4:75:7d:f7:fa:3d:26:3d:9c:81:5d:
                    a7:56:15:23:a8:7e:50:50:1e:d9:63:44:14:71:76:
                    43:a5:10:56:4d:c9:b5:94:5d:61:74:e3:d1:44:38:
                    80:45:dd:75:7c:96:35:25:da:0d:2d:02:5c:5b:7c:
                    08:ba:90:a0:57:e7:66:e3:0b:c7:df:d2:e1:32:ae:
                    8c:64:b4:6e:78:8d:b3:84:ff:a8:f9:10:82:61:ee:
                    75:96:12:ae:fa:ea:3f:5d:46:ca:84:ce:f0:44:45:
                    71:5a:a6:50:fe:9e:dd:a0:88:b6:a3:cd:42:ea:4c:
                    2d:7b:ee:86:83:c3:6a:ba:4b:87:56:82:be:fd:90:
                    98:6f:87:25:69:c5:54:da:81:85:e7:91:85:22:fc:
                    9e:d4:b5:af:01:e7:76:8e:5a:90:37:00:7e:b3:b8:
                    d7:28:2a:93:2a:f4:95:6e:d7:44:39:69:45:16:1c:
                    16:f0:3f:5c:37:69:2d:52:59:c3:a8:dc:58:a2:f3:
                    ff:cb:ec:e1:01:ee:ea:b5:6b:1e:e0:96:e7:eb:4f:
                    95:29:7a:d3:90:45:4e:85:a7:91:4d:7a:c4:14:7f:
                    e9:af:ef
                Exponent: 65537 (0x10001)
        X509v3 extensions:
            X509v3 Basic Constraints: 
                CA:FALSE
            Netscape Comment: 
                Easy-RSA Generated Certificate
            X509v3 Subject Key Identifier: 
                FF:27:00:23:6D:F1:EC:2B:47:08:D2:8F:F4:5B:51:AA:BF:F6:AF:D5
            X509v3 Authority Key Identifier: 
                keyid:12:CD:60:04:D2:A0:80:9E:70:ED:C6:99:B8:7B:2C:C6:52:FD:19:A1
                DirName:/C=US/ST=OH/L=Columbus/O=VikingVPN/OU=MyOrganizationalUnit/CN=VikingVPN CA/name=EasyRSA/emailAddress=me@myhost.mydomain
                serial:CF:35:85:EE:80:BF:2A:3E

            X509v3 Extended Key Usage: 
                TLS Web Client Authentication
            X509v3 Key Usage: 
                Digital Signature
    Signature Algorithm: md5WithRSAEncryption
         ad:d9:3c:2a:31:0c:df:ac:92:16:11:49:de:6e:d1:58:5c:f7:
         e9:28:bb:d6:32:7e:7f:b9:ee:f6:21:f7:3c:82:e5:ad:28:47:
         bd:49:3b:87:97:f5:07:39:8c:6e:28:15:71:f4:c5:73:04:ad:
         15:4c:b2:7a:fb:2c:d3:f3:1a:90:a3:f0:44:5f:01:11:fa:d0:
         bf:67:f3:ee:3e:c5:ce:5f:60:dc:44:79:b5:4b:80:98:58:85:
         cb:d0:32:c8:cd:f2:58:60:33:b7:6a:a3:29:7a:a4:0e:73:01:
         59:07:b2:6a:93:10:33:e0:20:4c:3a:46:a5:7b:ee:98:3c:11:
         c3:bd:83:ed:d6:21:a0:a7:ec:ac:a2:84:f4:7c:3e:b3:ff:2d:
         00:f4:a7:68:41:41:80:29:af:91:eb:d2:36:c1:c5:aa:a4:30:
         bc:49:a5:79:db:47:a1:e9:d3:1f:3f:94:46:79:08:35:5b:39:
         78:80:0e:25:58:ba:91:ff:b6:04:e4:2c:e4:cf:0e:3b:49:be:
         e9:9a:70:66:0e:55:7c:1a:de:36:4c:8a:45:eb:9b:e1:ce:ba:
         3d:af:89:e9:5c:fc:2d:04:d1:c0:22:90:8e:3e:e8:28:37:47:
         23:35:6c:1f:48:7c:36:17:40:9e:cb:1e:bd:a5:b7:f1:3c:ab:
         80:f8:b6:53:ce:40:7e:92:2b:bc:ad:85:6c:d4:54:1f:3d:85:
         61:50:40:a1:2f:f3:b1:79:d3:a5:ac:d2:ca:ee:a7:7c:75:db:
         bc:27:3b:cc:ed:58:d1:e3:0f:95:60:1a:94:68:37:b9:2f:7d:
         9c:e6:59:21:fa:82:ba:0b:23:7d:85:86:00:61:d5:eb:85:6e:
         f9:e1:dc:19:8c:d2:c2:f0:07:fa:5a:30:43:3d:08:01:dc:c4:
         1e:56:c1:4a:21:55:1e:66:ef:1f:0a:62:56:c9:59:6e:63:1e:
         48:9d:7c:85:6a:34:51:30:35:ad:04:0b:16:af:24:de:25:28:
         0b:9f:7e:4f:5c:47:1e:6e:d1:75:90:8e:97:82:4f:1f:b5:74:
         e9:fa:e5:b7:c4:44:5e:e1:78:07:3c:51:50:a2:1e:94:e6:75:
         92:e0:2a:6a:80:95:3f:9d:7c:f6:63:a0:05:ed:43:5c:7a:85:
         6a:28:50:0c:50:01:3d:2a:3d:b1:42:e1:aa:67:7a:ae:8c:79:
         b2:d6:b8:09:5a:e2:a7:47:34:e5:57:91:d2:84:e5:17:c5:26:
         88:18:8e:af:ff:44:8a:2e:97:7e:73:b4:88:86:2c:49:03:c5:
         5f:38:fa:f2:92:5d:ab:a7:b3:77:c8:35:c9:81:b0:e1:55:0a:
         7c:ca:a3:fe:48:09:7d:1a
-----BEGIN CERTIFICATE-----
MIIGrDCCBJSgAwIBAgICBpkwDQYJKoZIhvcNAQEEBQAwgawxCzAJBgNVBAYTAlVT
MQswCQYDVQQIEwJPSDERMA8GA1UEBxMIQ29sdW1idXMxEjAQBgNVBAoTCVZpa2lu
Z1ZQTjEdMBsGA1UECxMUTXlPcmdhbml6YXRpb25hbFVuaXQxFTATBgNVBAMTDFZp
a2luZ1ZQTiBDQTEQMA4GA1UEKRMHRWFzeVJTQTEhMB8GCSqGSIb3DQEJARYSbWVA
bXlob3N0Lm15ZG9tYWluMB4XDTE0MDQyMTE3MTYyN1oXDTI0MDQxODE3MTYyN1ow
HjEcMBoGA1UEAxMTQ2xpZW50MzAzQ2VydDIyOTQzZTCCAiIwDQYJKoZIhvcNAQEB
BQADggIPADCCAgoCggIBAJqG4bYYhVCgOStZifd6mySHlv+q4/luS2YV3lqEDNOy
Usc+98pt6Z9i0qUQAnSY9/8+0RI8NiGdCbrcNZvaosIhsNhtVK3jKJx3ychrnDcU
lGBsLM5RLMCSueJI4SxOTQu4yVEZnFGK1WAwR+g/PLPY0jZDK5KxGXBWRUV1F6Tj
dhGPSjAT1QCqW0G9+VCMWJ1lNbdUUmjczk18sMtI37kVTZ7CT3SQ9R/mAqMP+Afe
a1+V21BIy1gcnfaYQxwpqcncFcvMjivgx8a8gfnCt0DwM/WQ8jtiNpL0tPcqsyyp
SHFA80LT7DqWfyLWEzMki16cZsG4fzW/Lujv6b3B8438pOx6fexugfT5dO6eCmkv
OhQWhzGtByxY6UvaGovNzaR1fff6PSY9nIFdp1YVI6h+UFAe2WNEFHF2Q6UQVk3J
tZRdYXTj0UQ4gEXddXyWNSXaDS0CXFt8CLqQoFfnZuMLx9/S4TKujGS0bniNs4T/
qPkQgmHudZYSrvrqP11GyoTO8ERFcVqmUP6e3aCItqPNQupMLXvuhoPDarpLh1aC
vv2QmG+HJWnFVNqBheeRhSL8ntS1rwHndo5akDcAfrO41ygqkyr0lW7XRDlpRRYc
FvA/XDdpLVJZw6jcWKLz/8vs4QHu6rVrHuCW5+tPlSl605BFToWnkU16xBR/6a/v
AgMBAAGjggFjMIIBXzAJBgNVHRMEAjAAMC0GCWCGSAGG+EIBDQQgFh5FYXN5LVJT
QSBHZW5lcmF0ZWQgQ2VydGlmaWNhdGUwHQYDVR0OBBYEFP8nACNt8ewrRwjSj/Rb
Uaq/9q/VMIHhBgNVHSMEgdkwgdaAFBLNYATSoICecO3Gmbh7LMZS/RmhoYGypIGv
MIGsMQswCQYDVQQGEwJVUzELMAkGA1UECBMCT0gxETAPBgNVBAcTCENvbHVtYnVz
MRIwEAYDVQQKEwlWaWtpbmdWUE4xHTAbBgNVBAsTFE15T3JnYW5pemF0aW9uYWxV
bml0MRUwEwYDVQQDEwxWaWtpbmdWUE4gQ0ExEDAOBgNVBCkTB0Vhc3lSU0ExITAf
BgkqhkiG9w0BCQEWEm1lQG15aG9zdC5teWRvbWFpboIJAM81he6Avyo+MBMGA1Ud
JQQMMAoGCCsGAQUFBwMCMAsGA1UdDwQEAwIHgDANBgkqhkiG9w0BAQQFAAOCAgEA
rdk8KjEM36ySFhFJ3m7RWFz36Si71jJ+f7nu9iH3PILlrShHvUk7h5f1BzmMbigV
cfTFcwStFUyyevss0/MakKPwRF8BEfrQv2fz7j7Fzl9g3ER5tUuAmFiFy9AyyM3y
WGAzt2qjKXqkDnMBWQeyapMQM+AgTDpGpXvumDwRw72D7dYhoKfsrKKE9Hw+s/8t
APSnaEFBgCmvkevSNsHFqqQwvEmledtHoenTHz+URnkINVs5eIAOJVi6kf+2BOQs
5M8OO0m+6ZpwZg5VfBreNkyKReub4c66Pa+J6Vz8LQTRwCKQjj7oKDdHIzVsH0h8
NhdAnssevaW38TyrgPi2U85AfpIrvK2FbNRUHz2FYVBAoS/zsXnTpazSyu6nfHXb
vCc7zO1Y0eMPlWAalGg3uS99nOZZIfqCugsjfYWGAGHV64Vu+eHcGYzSwvAH+low
Qz0IAdzEHlbBSiFVHmbvHwpiVslZbmMeSJ18hWo0UTA1rQQLFq8k3iUoC59+T1xH
Hm7RdZCOl4JPH7V06frlt8REXuF4BzxRUKIelOZ1kuAqaoCVP5189mOgBe1DXHqF
aihQDFABPSo9sULhqmd6rox5sta4CVrip0c05VeR0oTlF8UmiBiOr/9Eii6XfnO0
iIYsSQPFXzj68pJdq6ezd8g1yYGw4VUKfMqj/kgJfRo=
-----END CERTIFICATE-----
