Certificate:
    Data:
        Version: 3 (0x2)
        Serial Number: 1696 (0x6a0)
    Signature Algorithm: md5WithRSAEncryption
        Issuer: C=US, ST=OH, L=Columbus, O=VikingVPN, OU=MyOrganizationalUnit, CN=VikingVPN CA/name=EasyRSA/emailAddress=me@myhost.mydomain
        Validity
            Not Before: Apr 22 22:30:27 2014 GMT
            Not After : Apr 19 22:30:27 2024 GMT
        Subject: CN=Client605Cert07458a
        Subject Public Key Info:
            Public Key Algorithm: rsaEncryption
                Public-Key: (4096 bit)
                Modulus:
                    00:d7:31:ac:22:50:f2:ec:1c:ad:47:9a:51:6d:36:
                    e9:37:e3:0f:43:49:77:27:0e:0c:3a:19:b7:30:ff:
                    e8:e9:37:b9:b6:e9:84:3a:d3:0a:fe:c4:f5:c6:83:
                    ad:81:11:cf:53:52:2a:26:6a:64:e8:31:e5:8d:78:
                    a8:85:6b:35:9b:29:ba:17:a5:90:13:9a:09:ce:a1:
                    5e:89:a6:51:7a:c7:bb:d6:59:f0:88:11:d8:63:1b:
                    ab:79:b6:02:99:97:e4:ce:79:11:f8:a7:21:9a:bc:
                    68:66:1f:68:77:f3:ec:66:4f:e5:d9:bb:3a:38:ec:
                    8f:9e:4d:2c:f6:1c:6b:38:dd:ca:10:25:25:90:a8:
                    aa:83:73:30:ba:7d:2e:de:fd:41:a0:6b:bc:88:20:
                    9e:63:02:b2:41:65:13:9a:46:95:e1:53:89:1d:b1:
                    d6:c3:6d:59:a6:8d:1a:ca:4c:5e:53:9b:9a:40:82:
                    81:a6:a9:f1:ef:d5:f3:47:ff:df:0a:2c:c5:fc:cb:
                    2a:a3:5a:c3:f1:33:6f:0d:a2:0b:f9:df:35:d7:51:
                    e4:eb:51:89:ca:9a:28:eb:37:53:65:02:00:40:85:
                    1a:37:3c:1f:e8:4f:68:3c:bc:3e:25:46:5d:ca:e6:
                    c8:75:b9:fd:d0:ca:b1:c6:20:90:b4:a0:93:7c:8a:
                    21:25:d1:65:83:5a:6b:6e:c9:1d:91:49:c1:f5:c7:
                    9b:ec:db:89:31:94:26:c2:f9:ec:0f:54:b1:11:a6:
                    b8:c9:36:61:1e:72:e0:49:71:ce:ba:57:4a:ee:f6:
                    02:56:59:f4:be:fb:04:19:00:25:ab:33:eb:f7:6f:
                    57:bd:2a:cc:25:6f:da:88:db:8f:b8:7b:ba:55:7d:
                    f0:35:8c:49:00:8e:13:41:b7:29:ed:d0:78:92:96:
                    ab:55:76:56:39:76:fa:87:41:98:3b:1b:ae:c4:fb:
                    d7:78:a2:f1:f9:a5:84:33:c0:64:48:3e:f6:e5:f6:
                    54:3a:f7:5a:10:51:87:3a:4a:19:a0:7b:e1:02:be:
                    ba:b6:18:99:c7:82:98:90:f1:09:ec:13:52:62:04:
                    fb:91:8c:1a:00:b4:60:44:ea:02:01:8c:00:78:f7:
                    11:08:9f:60:f6:25:a2:1b:15:01:4a:27:60:6b:05:
                    06:91:62:da:c6:f7:8b:2b:d4:b5:fd:2a:0c:f8:26:
                    20:ea:b7:f1:2d:a5:83:e3:f0:51:ce:20:22:7a:45:
                    36:1b:1a:ac:6a:d0:20:b8:8c:de:dd:0f:2a:20:8e:
                    11:cd:d1:cf:ae:36:c2:02:35:98:9e:26:f6:0f:2e:
                    5b:46:b6:77:aa:61:26:51:b2:e3:4c:77:d2:c9:27:
                    3b:b0:d1
                Exponent: 65537 (0x10001)
        X509v3 extensions:
            X509v3 Basic Constraints: 
                CA:FALSE
            Netscape Comment: 
                Easy-RSA Generated Certificate
            X509v3 Subject Key Identifier: 
                52:51:06:A7:72:57:17:30:77:2F:2C:81:F0:6D:92:0C:9D:2B:7D:6F
            X509v3 Authority Key Identifier: 
                keyid:12:CD:60:04:D2:A0:80:9E:70:ED:C6:99:B8:7B:2C:C6:52:FD:19:A1
                DirName:/C=US/ST=OH/L=Columbus/O=VikingVPN/OU=MyOrganizationalUnit/CN=VikingVPN CA/name=EasyRSA/emailAddress=me@myhost.mydomain
                serial:CF:35:85:EE:80:BF:2A:3E

            X509v3 Extended Key Usage: 
                TLS Web Client Authentication
            X509v3 Key Usage: 
                Digital Signature
    Signature Algorithm: md5WithRSAEncryption
         2f:d2:a8:4c:75:23:5f:29:ad:50:82:7a:24:b0:46:35:fc:be:
         a9:9b:e1:a8:c5:22:86:55:17:29:54:a4:70:f4:55:94:96:31:
         f3:81:fa:72:a0:d2:62:53:2a:47:47:5f:e8:71:fc:3f:0f:40:
         0b:ec:51:0b:05:d5:a2:4b:b7:11:bf:67:85:32:48:37:2c:7d:
         c2:20:f7:8a:c4:09:1c:e9:3d:8f:37:9a:e1:4b:e1:4b:10:47:
         0f:42:52:d6:3d:85:c4:ef:74:16:78:d8:13:ec:c5:67:6e:34:
         0f:1a:1c:c8:e1:15:45:6c:a0:51:60:23:70:ef:9e:96:bd:e4:
         93:6e:d8:f5:b3:ee:ff:c4:b0:bf:6e:e5:d7:ae:d8:57:bb:ae:
         26:db:3f:45:44:2f:6f:30:a7:43:9d:d3:0f:50:6a:b3:81:31:
         ae:f5:99:2f:9d:fc:43:8c:a9:e9:83:d6:b7:c4:ae:ef:8e:a7:
         1b:48:5c:1f:eb:45:2f:3d:c3:6f:cd:56:25:6b:39:12:5b:0d:
         53:ea:17:42:ac:a1:be:da:6f:d8:ed:09:27:e7:4b:55:3a:39:
         00:20:ae:ab:70:ce:cf:88:10:5d:b9:5a:a0:b2:90:48:11:ff:
         41:9a:68:45:4f:0b:55:72:0e:e2:51:14:60:ae:74:d9:11:3e:
         da:48:d0:df:69:50:aa:02:a6:b2:a0:0a:a5:9d:3b:f3:71:ec:
         80:46:1b:be:59:53:8f:ff:0c:f1:1a:58:d6:4b:08:e9:0a:0f:
         c5:5f:c7:d6:24:c2:e8:56:e2:31:d3:f0:6d:bc:05:15:4e:f4:
         5c:cf:e8:d7:14:ca:4b:f7:96:f8:2f:fe:59:85:71:57:17:21:
         cd:0d:1f:24:d6:67:78:b3:40:35:e1:e0:63:30:1b:f4:50:09:
         05:a9:f5:ab:3a:fc:e3:48:82:c3:a1:d2:c1:5d:b4:1d:f6:5b:
         c2:c6:c5:48:bb:37:70:8d:5d:86:3d:4b:79:79:5c:fa:89:5a:
         59:e6:63:0e:22:bc:3c:d0:00:de:f9:38:aa:de:41:43:d0:2d:
         6e:9c:c9:d7:53:c9:54:fc:b7:8b:ad:b2:c1:43:2e:13:3c:3a:
         7c:91:9f:40:04:4a:1c:26:5b:f0:77:4a:3c:be:d6:bf:4c:7d:
         86:c7:59:86:12:66:1e:fc:79:86:69:72:d0:85:46:f2:bb:24:
         6e:d9:1a:91:aa:3f:f2:90:70:5c:19:ee:11:78:d6:48:9f:4e:
         e5:48:5a:c9:3d:8d:1e:58:e8:17:a5:cf:7b:75:5c:9f:00:09:
         a1:5a:7e:7d:a7:8d:b2:39:1f:70:12:7c:5f:e8:16:2d:65:6b:
         f9:eb:57:9e:30:56:9a:c4
-----BEGIN CERTIFICATE-----
MIIGrDCCBJSgAwIBAgICBqAwDQYJKoZIhvcNAQEEBQAwgawxCzAJBgNVBAYTAlVT
MQswCQYDVQQIEwJPSDERMA8GA1UEBxMIQ29sdW1idXMxEjAQBgNVBAoTCVZpa2lu
Z1ZQTjEdMBsGA1UECxMUTXlPcmdhbml6YXRpb25hbFVuaXQxFTATBgNVBAMTDFZp
a2luZ1ZQTiBDQTEQMA4GA1UEKRMHRWFzeVJTQTEhMB8GCSqGSIb3DQEJARYSbWVA
bXlob3N0Lm15ZG9tYWluMB4XDTE0MDQyMjIyMzAyN1oXDTI0MDQxOTIyMzAyN1ow
HjEcMBoGA1UEAxMTQ2xpZW50NjA1Q2VydDA3NDU4YTCCAiIwDQYJKoZIhvcNAQEB
BQADggIPADCCAgoCggIBANcxrCJQ8uwcrUeaUW026TfjD0NJdycODDoZtzD/6Ok3
ubbphDrTCv7E9caDrYERz1NSKiZqZOgx5Y14qIVrNZspuhelkBOaCc6hXommUXrH
u9ZZ8IgR2GMbq3m2ApmX5M55EfinIZq8aGYfaHfz7GZP5dm7Ojjsj55NLPYcazjd
yhAlJZCoqoNzMLp9Lt79QaBrvIggnmMCskFlE5pGleFTiR2x1sNtWaaNGspMXlOb
mkCCgaap8e/V80f/3wosxfzLKqNaw/Ezbw2iC/nfNddR5OtRicqaKOs3U2UCAECF
Gjc8H+hPaDy8PiVGXcrmyHW5/dDKscYgkLSgk3yKISXRZYNaa27JHZFJwfXHm+zb
iTGUJsL57A9UsRGmuMk2YR5y4ElxzrpXSu72AlZZ9L77BBkAJasz6/dvV70qzCVv
2ojbj7h7ulV98DWMSQCOE0G3Ke3QeJKWq1V2Vjl2+odBmDsbrsT713ii8fmlhDPA
ZEg+9uX2VDr3WhBRhzpKGaB74QK+urYYmceCmJDxCewTUmIE+5GMGgC0YETqAgGM
AHj3EQifYPYlohsVAUonYGsFBpFi2sb3iyvUtf0qDPgmIOq38S2lg+PwUc4gInpF
NhsarGrQILiM3t0PKiCOEc3Rz642wgI1mJ4m9g8uW0a2d6phJlGy40x30sknO7DR
AgMBAAGjggFjMIIBXzAJBgNVHRMEAjAAMC0GCWCGSAGG+EIBDQQgFh5FYXN5LVJT
QSBHZW5lcmF0ZWQgQ2VydGlmaWNhdGUwHQYDVR0OBBYEFFJRBqdyVxcwdy8sgfBt
kgydK31vMIHhBgNVHSMEgdkwgdaAFBLNYATSoICecO3Gmbh7LMZS/RmhoYGypIGv
MIGsMQswCQYDVQQGEwJVUzELMAkGA1UECBMCT0gxETAPBgNVBAcTCENvbHVtYnVz
MRIwEAYDVQQKEwlWaWtpbmdWUE4xHTAbBgNVBAsTFE15T3JnYW5pemF0aW9uYWxV
bml0MRUwEwYDVQQDEwxWaWtpbmdWUE4gQ0ExEDAOBgNVBCkTB0Vhc3lSU0ExITAf
BgkqhkiG9w0BCQEWEm1lQG15aG9zdC5teWRvbWFpboIJAM81he6Avyo+MBMGA1Ud
JQQMMAoGCCsGAQUFBwMCMAsGA1UdDwQEAwIHgDANBgkqhkiG9w0BAQQFAAOCAgEA
L9KoTHUjXymtUIJ6JLBGNfy+qZvhqMUihlUXKVSkcPRVlJYx84H6cqDSYlMqR0df
6HH8Pw9AC+xRCwXVoku3Eb9nhTJINyx9wiD3isQJHOk9jzea4UvhSxBHD0JS1j2F
xO90FnjYE+zFZ240DxocyOEVRWygUWAjcO+elr3kk27Y9bPu/8Swv27l167YV7uu
Jts/RUQvbzCnQ53TD1Bqs4ExrvWZL538Q4yp6YPWt8Su746nG0hcH+tFLz3Db81W
JWs5ElsNU+oXQqyhvtpv2O0JJ+dLVTo5ACCuq3DOz4gQXblaoLKQSBH/QZpoRU8L
VXIO4lEUYK502RE+2kjQ32lQqgKmsqAKpZ0783HsgEYbvllTj/8M8RpY1ksI6QoP
xV/H1iTC6FbiMdPwbbwFFU70XM/o1xTKS/eW+C/+WYVxVxchzQ0fJNZneLNANeHg
YzAb9FAJBan1qzr840iCw6HSwV20HfZbwsbFSLs3cI1dhj1LeXlc+olaWeZjDiK8
PNAA3vk4qt5BQ9AtbpzJ11PJVPy3i62ywUMuEzw6fJGfQARKHCZb8HdKPL7Wv0x9
hsdZhhJmHvx5hmly0IVG8rskbtkakao/8pBwXBnuEXjWSJ9O5UhayT2NHljoF6XP
e3VcnwAJoVp+faeNsjkfcBJ8X+gWLWVr+etXnjBWmsQ=
-----END CERTIFICATE-----
