Certificate:
    Data:
        Version: 3 (0x2)
        Serial Number: 1701 (0x6a5)
    Signature Algorithm: md5WithRSAEncryption
        Issuer: C=US, ST=OH, L=Columbus, O=VikingVPN, OU=MyOrganizationalUnit, CN=VikingVPN CA/name=EasyRSA/emailAddress=me@myhost.mydomain
        Validity
            Not Before: Apr 23 09:31:24 2014 GMT
            Not After : Apr 20 09:31:24 2024 GMT
        Subject: CN=Client606Certe6cfa5
        Subject Public Key Info:
            Public Key Algorithm: rsaEncryption
                Public-Key: (4096 bit)
                Modulus:
                    00:cc:7a:da:42:5b:c2:b8:1e:13:76:4f:03:8b:a0:
                    53:5f:0f:e1:93:00:52:b0:ce:1f:7f:80:e0:8a:1d:
                    9a:9a:6f:fa:d1:9c:1e:00:3c:ba:39:45:fd:e6:03:
                    bc:ae:a8:36:c0:21:99:fc:61:ee:03:e6:b6:5d:63:
                    da:a4:6f:ae:7a:a8:ab:ec:2e:ee:b4:81:44:ed:23:
                    d7:dd:35:c5:35:44:66:7e:3b:49:ee:c6:13:96:63:
                    c5:03:77:57:56:07:e2:3a:56:c7:fc:d7:16:20:a4:
                    c9:81:26:50:a8:2a:81:b1:29:48:41:49:a2:1c:a9:
                    61:87:f0:8c:20:64:5d:3b:9c:d4:6f:2d:7d:9e:2f:
                    8e:39:03:f8:79:74:3b:79:83:2f:f4:5d:38:9a:73:
                    ae:24:4f:a2:c6:14:06:fd:48:73:d9:b0:97:cb:2b:
                    67:47:a5:7f:db:86:a6:da:a2:e4:67:19:cf:39:29:
                    6e:b6:a2:85:42:1d:76:90:cf:b8:60:f2:d4:af:ee:
                    39:25:4a:7e:1d:c8:18:5d:2e:69:4a:69:87:a8:5c:
                    f6:53:06:ae:00:8a:8a:12:5e:ef:3f:bb:74:78:54:
                    a5:e3:f0:88:64:51:22:0c:ff:53:f5:7c:32:d5:b9:
                    75:dd:ab:07:72:46:2f:30:1c:37:78:ba:45:1e:94:
                    52:5b:e9:03:85:a7:31:e6:9b:e5:cc:bc:20:76:07:
                    0b:38:dd:8a:77:d7:77:8a:0f:ae:68:89:8a:83:75:
                    37:c3:7a:eb:3c:fe:b0:e7:e6:5c:0d:ae:5b:5f:e4:
                    43:d5:e1:cf:b4:06:57:72:c2:ad:44:53:8d:ea:a9:
                    a2:3d:9d:fc:a0:d2:dd:ae:9d:19:e3:f0:33:f3:54:
                    3a:3c:5d:d7:22:73:ff:3e:ae:0f:6e:ff:06:9c:6e:
                    73:51:a4:e1:9d:11:f0:42:a6:f5:86:69:f2:74:c8:
                    70:45:8f:c2:45:c6:ac:a4:2a:38:27:b6:de:9e:d2:
                    99:23:de:fb:f1:b9:a3:a0:ce:5c:7e:9e:c5:33:65:
                    4a:c5:96:d5:40:5d:fc:38:71:0a:60:e2:55:1b:0a:
                    4f:57:9c:85:ac:ac:be:8b:24:c5:91:a8:a6:3f:df:
                    72:1e:cb:8c:7a:5d:fb:c5:1f:0c:ad:1f:09:ab:27:
                    43:05:2c:d4:7c:2e:3b:6e:55:c0:fa:12:f1:58:50:
                    dd:2a:14:91:3a:79:1a:c1:42:ff:2a:83:06:d4:08:
                    9a:8f:e9:7f:c7:5e:04:6b:2d:58:cd:4b:2f:9a:0f:
                    38:22:ba:63:8e:bf:18:f9:5b:87:2f:5f:fc:84:bf:
                    15:70:8e:d0:50:35:c0:e3:bd:9a:4e:c8:7e:86:b4:
                    f8:13:ad
                Exponent: 65537 (0x10001)
        X509v3 extensions:
            X509v3 Basic Constraints: 
                CA:FALSE
            Netscape Comment: 
                Easy-RSA Generated Certificate
            X509v3 Subject Key Identifier: 
                0B:F2:F8:54:3E:3B:BA:33:A8:07:6D:19:40:7C:A3:AE:05:4B:18:1D
            X509v3 Authority Key Identifier: 
                keyid:12:CD:60:04:D2:A0:80:9E:70:ED:C6:99:B8:7B:2C:C6:52:FD:19:A1
                DirName:/C=US/ST=OH/L=Columbus/O=VikingVPN/OU=MyOrganizationalUnit/CN=VikingVPN CA/name=EasyRSA/emailAddress=me@myhost.mydomain
                serial:CF:35:85:EE:80:BF:2A:3E

            X509v3 Extended Key Usage: 
                TLS Web Client Authentication
            X509v3 Key Usage: 
                Digital Signature
    Signature Algorithm: md5WithRSAEncryption
         50:2a:fd:25:fb:39:70:a6:0e:da:94:d1:58:ad:36:ae:8e:fe:
         8c:49:e0:cb:d3:fc:47:2f:71:99:7d:3f:8c:d8:93:02:d0:01:
         04:69:36:b7:a7:7a:e5:7f:62:cf:61:56:4a:b5:41:92:74:9e:
         87:78:fd:b2:f7:4b:1e:04:a7:0b:20:66:02:0f:f5:83:ec:ba:
         2e:56:bb:cb:29:ca:df:71:1f:a7:c5:c4:21:46:bc:dc:c1:ba:
         a0:8d:1c:cf:3f:ad:72:d3:f9:bc:b8:b5:10:d9:f9:81:24:08:
         4e:ae:0d:30:98:c0:f3:24:0d:23:d1:00:be:9d:f8:84:ab:e3:
         a9:d5:0c:2a:e8:66:d7:81:bb:14:f8:97:0c:d9:0a:4d:51:ac:
         0c:bb:ba:d1:bb:1b:bb:d3:c5:0b:cd:a1:5d:a7:fe:19:0f:24:
         ce:cd:ca:8d:55:c1:9f:68:1d:42:11:84:01:55:54:e8:78:d5:
         bd:2c:19:e9:68:9b:32:3a:cd:88:63:e5:be:6a:34:ec:85:f5:
         ae:9d:dd:7e:95:95:f1:74:c6:bc:2e:de:da:e1:66:81:ab:58:
         c5:99:15:21:01:65:32:55:09:49:f3:86:b7:90:cd:f0:cf:ad:
         dd:c7:ac:88:df:1e:f3:d5:cf:ef:77:4a:df:2e:6a:2f:f5:8d:
         2c:0d:8f:36:b9:bd:dc:9e:77:aa:71:02:e5:3b:cc:c0:cc:0a:
         a4:38:f3:be:bb:d2:b6:0c:77:8f:82:f1:ee:e8:ce:22:98:06:
         31:8c:59:d9:3c:e7:31:8e:dd:02:42:f7:05:18:a9:88:73:88:
         e8:c0:a9:18:1b:41:2b:38:fc:fb:ec:de:5a:b3:c7:bb:f8:5e:
         29:0a:1d:72:2f:a2:6c:b7:82:5a:fb:3c:c6:78:d6:1d:54:3d:
         3c:79:64:78:4f:f4:48:f6:25:08:8b:44:f4:b7:9a:f3:48:38:
         23:1c:46:f3:1a:9b:88:13:b6:e8:2f:50:86:e6:e4:90:55:94:
         e7:0c:2e:00:f4:7e:87:63:ea:c5:6b:98:23:54:a7:1a:8a:aa:
         d2:1c:12:a1:80:30:5f:f7:af:57:6f:5a:d6:05:68:7a:66:2c:
         7f:f3:d8:93:f4:01:26:ae:f7:93:4a:5a:b8:71:71:9d:3e:e2:
         c9:03:dc:b5:bf:3c:d4:6c:67:3a:93:d3:b5:cb:a4:1e:2f:6d:
         fd:9a:1b:85:b6:0c:a7:0f:22:6c:26:df:72:6e:5e:73:4f:15:
         16:04:48:5b:79:7c:3d:e5:50:0d:ed:60:64:94:38:16:c7:4a:
         6a:7f:6b:bb:87:04:9e:1e:0a:ff:8f:b0:90:d4:1f:50:10:a5:
         49:46:06:98:de:86:78:c0
-----BEGIN CERTIFICATE-----
MIIGrDCCBJSgAwIBAgICBqUwDQYJKoZIhvcNAQEEBQAwgawxCzAJBgNVBAYTAlVT
MQswCQYDVQQIEwJPSDERMA8GA1UEBxMIQ29sdW1idXMxEjAQBgNVBAoTCVZpa2lu
Z1ZQTjEdMBsGA1UECxMUTXlPcmdhbml6YXRpb25hbFVuaXQxFTATBgNVBAMTDFZp
a2luZ1ZQTiBDQTEQMA4GA1UEKRMHRWFzeVJTQTEhMB8GCSqGSIb3DQEJARYSbWVA
bXlob3N0Lm15ZG9tYWluMB4XDTE0MDQyMzA5MzEyNFoXDTI0MDQyMDA5MzEyNFow
HjEcMBoGA1UEAxMTQ2xpZW50NjA2Q2VydGU2Y2ZhNTCCAiIwDQYJKoZIhvcNAQEB
BQADggIPADCCAgoCggIBAMx62kJbwrgeE3ZPA4ugU18P4ZMAUrDOH3+A4Iodmppv
+tGcHgA8ujlF/eYDvK6oNsAhmfxh7gPmtl1j2qRvrnqoq+wu7rSBRO0j1901xTVE
Zn47Se7GE5ZjxQN3V1YH4jpWx/zXFiCkyYEmUKgqgbEpSEFJohypYYfwjCBkXTuc
1G8tfZ4vjjkD+Hl0O3mDL/RdOJpzriRPosYUBv1Ic9mwl8srZ0elf9uGptqi5GcZ
zzkpbraihUIddpDPuGDy1K/uOSVKfh3IGF0uaUpph6hc9lMGrgCKihJe7z+7dHhU
pePwiGRRIgz/U/V8MtW5dd2rB3JGLzAcN3i6RR6UUlvpA4WnMeab5cy8IHYHCzjd
infXd4oPrmiJioN1N8N66zz+sOfmXA2uW1/kQ9Xhz7QGV3LCrURTjeqpoj2d/KDS
3a6dGePwM/NUOjxd1yJz/z6uD27/Bpxuc1Gk4Z0R8EKm9YZp8nTIcEWPwkXGrKQq
OCe23p7SmSPe+/G5o6DOXH6exTNlSsWW1UBd/DhxCmDiVRsKT1echaysvoskxZGo
pj/fch7LjHpd+8UfDK0fCasnQwUs1HwuO25VwPoS8VhQ3SoUkTp5GsFC/yqDBtQI
mo/pf8deBGstWM1LL5oPOCK6Y46/GPlbhy9f/IS/FXCO0FA1wOO9mk7Ifoa0+BOt
AgMBAAGjggFjMIIBXzAJBgNVHRMEAjAAMC0GCWCGSAGG+EIBDQQgFh5FYXN5LVJT
QSBHZW5lcmF0ZWQgQ2VydGlmaWNhdGUwHQYDVR0OBBYEFAvy+FQ+O7ozqAdtGUB8
o64FSxgdMIHhBgNVHSMEgdkwgdaAFBLNYATSoICecO3Gmbh7LMZS/RmhoYGypIGv
MIGsMQswCQYDVQQGEwJVUzELMAkGA1UECBMCT0gxETAPBgNVBAcTCENvbHVtYnVz
MRIwEAYDVQQKEwlWaWtpbmdWUE4xHTAbBgNVBAsTFE15T3JnYW5pemF0aW9uYWxV
bml0MRUwEwYDVQQDEwxWaWtpbmdWUE4gQ0ExEDAOBgNVBCkTB0Vhc3lSU0ExITAf
BgkqhkiG9w0BCQEWEm1lQG15aG9zdC5teWRvbWFpboIJAM81he6Avyo+MBMGA1Ud
JQQMMAoGCCsGAQUFBwMCMAsGA1UdDwQEAwIHgDANBgkqhkiG9w0BAQQFAAOCAgEA
UCr9Jfs5cKYO2pTRWK02ro7+jEngy9P8Ry9xmX0/jNiTAtABBGk2t6d65X9iz2FW
SrVBknSeh3j9svdLHgSnCyBmAg/1g+y6Lla7yynK33Efp8XEIUa83MG6oI0czz+t
ctP5vLi1ENn5gSQITq4NMJjA8yQNI9EAvp34hKvjqdUMKuhm14G7FPiXDNkKTVGs
DLu60bsbu9PFC82hXaf+GQ8kzs3KjVXBn2gdQhGEAVVU6HjVvSwZ6WibMjrNiGPl
vmo07IX1rp3dfpWV8XTGvC7e2uFmgatYxZkVIQFlMlUJSfOGt5DN8M+t3cesiN8e
89XP73dK3y5qL/WNLA2PNrm93J53qnEC5TvMwMwKpDjzvrvStgx3j4Lx7ujOIpgG
MYxZ2TznMY7dAkL3BRipiHOI6MCpGBtBKzj8++zeWrPHu/heKQodci+ibLeCWvs8
xnjWHVQ9PHlkeE/0SPYlCItE9Lea80g4IxxG8xqbiBO26C9QhubkkFWU5wwuAPR+
h2PqxWuYI1SnGoqq0hwSoYAwX/evV29a1gVoemYsf/PYk/QBJq73k0pauHFxnT7i
yQPctb881GxnOpPTtcukHi9t/ZobhbYMpw8ibCbfcm5ec08VFgRIW3l8PeVQDe1g
ZJQ4FsdKan9ru4cEnh4K/4+wkNQfUBClSUYGmN6GeMA=
-----END CERTIFICATE-----
