Certificate:
    Data:
        Version: 3 (0x2)
        Serial Number: 1733 (0x6c5)
    Signature Algorithm: md5WithRSAEncryption
        Issuer: C=US, ST=OH, L=Columbus, O=VikingVPN, OU=MyOrganizationalUnit, CN=VikingVPN CA/name=EasyRSA/emailAddress=me@myhost.mydomain
        Validity
            Not Before: Apr 27 00:53:26 2014 GMT
            Not After : Apr 24 00:53:26 2024 GMT
        Subject: CN=Client601Certbb8a8b
        Subject Public Key Info:
            Public Key Algorithm: rsaEncryption
                Public-Key: (4096 bit)
                Modulus:
                    00:cd:48:e0:2b:6d:a8:4f:24:05:45:5c:fb:44:2b:
                    54:fc:0e:95:19:89:7c:a3:43:5a:d6:91:8f:e6:cf:
                    20:f0:6c:fa:ef:5f:bc:45:ca:77:96:10:7f:fc:b5:
                    5f:31:cd:3b:53:71:37:8a:e4:f0:43:11:69:0e:41:
                    56:24:96:bb:c6:28:0d:1b:12:45:24:53:87:70:4c:
                    a2:f3:1f:1f:ae:0f:d2:9e:50:bf:7c:e9:5f:1b:a4:
                    5b:33:75:ed:db:40:df:9f:31:3c:d8:90:5a:82:bf:
                    56:86:38:9c:22:0f:00:ce:bd:1e:d6:52:f1:fa:50:
                    0d:37:ab:28:44:a3:99:83:68:32:69:00:3a:d3:dd:
                    1c:eb:1c:c6:70:55:88:8e:64:0d:b0:75:91:cf:69:
                    bf:06:3c:a2:d8:65:84:51:6d:e0:3e:02:21:87:c5:
                    2b:ac:37:b0:11:42:93:e1:18:da:5c:59:47:b6:b6:
                    b0:c3:87:5b:46:ad:f6:dd:39:4a:05:ee:10:86:41:
                    e6:f0:5e:49:bf:c1:f2:ed:25:c1:4e:4e:74:fb:27:
                    00:71:5b:07:93:e5:7d:9c:a9:00:18:ea:b5:ca:5a:
                    c6:73:b1:da:52:71:56:6a:51:fd:08:97:83:b9:90:
                    d1:48:3c:e9:a1:db:52:8b:56:7f:63:f0:77:32:ca:
                    5a:37:ea:bf:13:f4:90:53:85:37:f7:dd:35:e1:76:
                    13:a7:53:fe:80:9c:00:3f:1d:cf:60:aa:3c:c4:26:
                    ae:d2:36:9f:b4:ee:05:84:99:b6:46:61:d0:e4:37:
                    63:16:73:a5:0c:31:16:52:c4:eb:ec:18:1a:04:e3:
                    7a:78:88:3c:bf:01:bb:de:00:84:0f:62:ba:d2:89:
                    44:ba:ed:02:4a:35:bc:25:ec:8a:41:f3:0e:03:bc:
                    5f:82:3b:33:ba:d1:9a:c6:31:4a:5c:0b:b2:68:0f:
                    71:89:38:34:34:be:cd:42:fb:59:7e:02:5a:a4:8d:
                    59:a0:a7:66:fd:94:ba:e2:8a:c7:6c:e3:24:78:c3:
                    be:80:b3:7e:78:2b:ff:54:44:e0:71:8e:b6:f2:ca:
                    03:65:d8:a3:8e:2d:1c:a4:84:a6:98:84:82:67:31:
                    80:b5:7d:1b:f2:aa:1d:19:85:31:c4:03:c9:b1:89:
                    1f:86:29:1e:3f:76:3a:e7:b0:eb:64:0e:ae:44:48:
                    d9:ec:34:ff:d7:4f:14:18:dc:66:1d:1f:4d:5b:08:
                    ae:e8:12:7c:ab:4e:6e:6c:93:46:2d:b3:2f:40:46:
                    c6:75:bb:2e:a9:da:9a:0d:58:33:d9:74:27:cc:e0:
                    09:96:44:8a:53:e9:65:df:c2:ac:7c:72:e3:a3:4c:
                    60:33:ff
                Exponent: 65537 (0x10001)
        X509v3 extensions:
            X509v3 Basic Constraints: 
                CA:FALSE
            Netscape Comment: 
                Easy-RSA Generated Certificate
            X509v3 Subject Key Identifier: 
                EA:6B:0D:22:4A:25:C0:4E:38:35:E9:B8:0D:D5:7C:0E:82:5C:14:C3
            X509v3 Authority Key Identifier: 
                keyid:12:CD:60:04:D2:A0:80:9E:70:ED:C6:99:B8:7B:2C:C6:52:FD:19:A1
                DirName:/C=US/ST=OH/L=Columbus/O=VikingVPN/OU=MyOrganizationalUnit/CN=VikingVPN CA/name=EasyRSA/emailAddress=me@myhost.mydomain
                serial:CF:35:85:EE:80:BF:2A:3E

            X509v3 Extended Key Usage: 
                TLS Web Client Authentication
            X509v3 Key Usage: 
                Digital Signature
    Signature Algorithm: md5WithRSAEncryption
         4b:05:23:94:33:c1:99:60:23:e1:21:e7:6d:ce:a3:fc:d5:cb:
         89:1c:99:4a:db:d5:39:c9:2f:8c:27:1e:f5:85:46:23:8f:d6:
         b9:a6:21:29:1e:b0:1f:53:f0:ea:82:e2:90:e1:f1:f4:5a:2d:
         d9:ab:aa:2f:9c:8c:d8:a1:3b:d5:be:a4:04:99:6e:28:1c:5a:
         a7:a3:3d:38:ff:e7:a6:ff:79:60:9c:3a:50:4b:70:f7:f8:a9:
         4b:14:76:99:6a:57:06:1c:51:d9:30:81:14:2f:0e:5b:a0:5f:
         f4:10:6e:61:b5:80:50:f3:fd:bb:9e:c9:9e:76:dd:c0:8e:2d:
         38:d1:de:20:b3:3a:89:7a:77:10:7d:49:0c:a6:79:77:c3:59:
         be:fb:ae:af:da:20:b8:67:fd:53:1c:54:61:0d:50:f3:66:9f:
         a7:e3:af:f9:6a:ef:3e:1e:f4:bc:46:62:d9:22:4b:22:4e:52:
         a7:a4:14:c6:ec:d3:61:b8:3f:85:0d:e0:b7:a5:4e:86:0a:8f:
         d1:f7:4e:5d:00:0a:09:bc:aa:dd:21:15:c9:f8:8a:22:03:78:
         9c:60:cd:c5:f9:bd:ae:4a:37:e2:56:8a:15:7e:fe:19:29:0b:
         9f:40:f5:3d:df:56:87:3e:4b:19:88:71:8b:0b:09:b5:3e:ef:
         e0:0a:cb:25:6f:68:1f:d2:1e:fb:bf:7d:fe:79:85:04:f4:8f:
         cc:84:a9:83:8a:1c:1e:c3:07:36:d2:64:85:35:ad:0a:65:b6:
         cb:3e:c6:8c:ac:41:00:2e:30:fb:17:28:51:06:33:31:4e:c0:
         6a:6e:bb:46:f9:cf:0d:17:ee:c8:2b:d2:91:e1:e2:15:30:0e:
         c8:00:88:2c:a3:de:dd:0d:40:21:06:f6:0f:a5:13:54:4a:85:
         5e:8f:73:90:91:73:cb:8c:89:31:ef:9a:ee:35:52:f4:00:ce:
         eb:1a:80:d8:bd:d0:e2:e4:ea:ee:96:71:ea:55:3e:60:91:1d:
         94:58:8a:2a:bc:d8:90:f4:5f:be:8a:44:99:c5:df:60:de:c9:
         8d:b3:69:77:8b:52:d4:9a:50:b3:b2:43:66:b6:a6:09:87:5e:
         9d:8b:e4:ce:9f:3f:b4:31:50:4c:19:60:6c:cc:21:be:fe:7b:
         67:92:cf:6d:da:25:7c:74:24:ed:28:8e:3b:21:ec:ba:40:a0:
         94:e0:6a:df:04:8d:ea:d0:ac:43:f2:e2:7d:67:ee:14:b6:74:
         65:5a:9a:76:e3:ac:2f:8d:8d:56:45:59:b3:89:08:23:06:39:
         d8:d7:db:58:1a:fa:bb:12:9b:74:d7:61:22:97:5b:66:c3:45:
         b6:bf:a3:b8:82:55:c4:d8
-----BEGIN CERTIFICATE-----
MIIGrDCCBJSgAwIBAgICBsUwDQYJKoZIhvcNAQEEBQAwgawxCzAJBgNVBAYTAlVT
MQswCQYDVQQIEwJPSDERMA8GA1UEBxMIQ29sdW1idXMxEjAQBgNVBAoTCVZpa2lu
Z1ZQTjEdMBsGA1UECxMUTXlPcmdhbml6YXRpb25hbFVuaXQxFTATBgNVBAMTDFZp
a2luZ1ZQTiBDQTEQMA4GA1UEKRMHRWFzeVJTQTEhMB8GCSqGSIb3DQEJARYSbWVA
bXlob3N0Lm15ZG9tYWluMB4XDTE0MDQyNzAwNTMyNloXDTI0MDQyNDAwNTMyNlow
HjEcMBoGA1UEAxMTQ2xpZW50NjAxQ2VydGJiOGE4YjCCAiIwDQYJKoZIhvcNAQEB
BQADggIPADCCAgoCggIBAM1I4CttqE8kBUVc+0QrVPwOlRmJfKNDWtaRj+bPIPBs
+u9fvEXKd5YQf/y1XzHNO1NxN4rk8EMRaQ5BViSWu8YoDRsSRSRTh3BMovMfH64P
0p5Qv3zpXxukWzN17dtA358xPNiQWoK/VoY4nCIPAM69HtZS8fpQDTerKESjmYNo
MmkAOtPdHOscxnBViI5kDbB1kc9pvwY8othlhFFt4D4CIYfFK6w3sBFCk+EY2lxZ
R7a2sMOHW0at9t05SgXuEIZB5vBeSb/B8u0lwU5OdPsnAHFbB5PlfZypABjqtcpa
xnOx2lJxVmpR/QiXg7mQ0Ug86aHbUotWf2PwdzLKWjfqvxP0kFOFN/fdNeF2E6dT
/oCcAD8dz2CqPMQmrtI2n7TuBYSZtkZh0OQ3YxZzpQwxFlLE6+wYGgTjeniIPL8B
u94AhA9iutKJRLrtAko1vCXsikHzDgO8X4I7M7rRmsYxSlwLsmgPcYk4NDS+zUL7
WX4CWqSNWaCnZv2UuuKKx2zjJHjDvoCzfngr/1RE4HGOtvLKA2XYo44tHKSEppiE
gmcxgLV9G/KqHRmFMcQDybGJH4YpHj92Ouew62QOrkRI2ew0/9dPFBjcZh0fTVsI
rugSfKtObmyTRi2zL0BGxnW7Lqnamg1YM9l0J8zgCZZEilPpZd/CrHxy46NMYDP/
AgMBAAGjggFjMIIBXzAJBgNVHRMEAjAAMC0GCWCGSAGG+EIBDQQgFh5FYXN5LVJT
QSBHZW5lcmF0ZWQgQ2VydGlmaWNhdGUwHQYDVR0OBBYEFOprDSJKJcBOODXpuA3V
fA6CXBTDMIHhBgNVHSMEgdkwgdaAFBLNYATSoICecO3Gmbh7LMZS/RmhoYGypIGv
MIGsMQswCQYDVQQGEwJVUzELMAkGA1UECBMCT0gxETAPBgNVBAcTCENvbHVtYnVz
MRIwEAYDVQQKEwlWaWtpbmdWUE4xHTAbBgNVBAsTFE15T3JnYW5pemF0aW9uYWxV
bml0MRUwEwYDVQQDEwxWaWtpbmdWUE4gQ0ExEDAOBgNVBCkTB0Vhc3lSU0ExITAf
BgkqhkiG9w0BCQEWEm1lQG15aG9zdC5teWRvbWFpboIJAM81he6Avyo+MBMGA1Ud
JQQMMAoGCCsGAQUFBwMCMAsGA1UdDwQEAwIHgDANBgkqhkiG9w0BAQQFAAOCAgEA
SwUjlDPBmWAj4SHnbc6j/NXLiRyZStvVOckvjCce9YVGI4/WuaYhKR6wH1Pw6oLi
kOHx9Fot2auqL5yM2KE71b6kBJluKBxap6M9OP/npv95YJw6UEtw9/ipSxR2mWpX
BhxR2TCBFC8OW6Bf9BBuYbWAUPP9u57JnnbdwI4tONHeILM6iXp3EH1JDKZ5d8NZ
vvuur9oguGf9UxxUYQ1Q82afp+Ov+WrvPh70vEZi2SJLIk5Sp6QUxuzTYbg/hQ3g
t6VOhgqP0fdOXQAKCbyq3SEVyfiKIgN4nGDNxfm9rko34laKFX7+GSkLn0D1Pd9W
hz5LGYhxiwsJtT7v4ArLJW9oH9Ie+799/nmFBPSPzISpg4ocHsMHNtJkhTWtCmW2
yz7GjKxBAC4w+xcoUQYzMU7Aam67RvnPDRfuyCvSkeHiFTAOyACILKPe3Q1AIQb2
D6UTVEqFXo9zkJFzy4yJMe+a7jVS9ADO6xqA2L3Q4uTq7pZx6lU+YJEdlFiKKrzY
kPRfvopEmcXfYN7JjbNpd4tS1JpQs7JDZramCYdenYvkzp8/tDFQTBlgbMwhvv57
Z5LPbdolfHQk7SiOOyHsukCglOBq3wSN6tCsQ/LifWfuFLZ0ZVqaduOsL42NVkVZ
s4kIIwY52NfbWBr6uxKbdNdhIpdbZsNFtr+juIJVxNg=
-----END CERTIFICATE-----
