Certificate:
    Data:
        Version: 3 (0x2)
        Serial Number: 1734 (0x6c6)
    Signature Algorithm: md5WithRSAEncryption
        Issuer: C=US, ST=OH, L=Columbus, O=VikingVPN, OU=MyOrganizationalUnit, CN=VikingVPN CA/name=EasyRSA/emailAddress=me@myhost.mydomain
        Validity
            Not Before: Apr 27 01:45:43 2014 GMT
            Not After : Apr 24 01:45:43 2024 GMT
        Subject: CN=Client601Cert5e830d
        Subject Public Key Info:
            Public Key Algorithm: rsaEncryption
                Public-Key: (4096 bit)
                Modulus:
                    00:d7:5f:b6:6e:51:82:54:eb:b9:e0:f1:0b:4d:b5:
                    8d:57:59:53:26:38:e2:20:dc:8c:35:ad:4c:76:72:
                    32:14:fb:7d:2b:80:d5:24:a6:7c:63:7f:d2:29:eb:
                    8e:18:ec:52:81:53:b9:66:fe:1d:08:50:a7:8b:66:
                    52:60:db:7f:9e:f5:63:7f:1c:6b:23:22:4e:f2:14:
                    28:0e:d8:a8:52:43:96:1f:10:2f:d7:ef:6b:be:97:
                    f6:39:87:39:09:39:19:fd:16:32:67:f9:43:a7:5c:
                    78:79:85:52:1b:4a:7b:e9:fa:e7:12:2a:15:64:32:
                    58:a7:33:d6:6e:97:4a:70:25:95:0f:8a:08:e4:b0:
                    a0:e8:c6:31:e9:ee:58:cf:32:7f:7e:f4:58:fe:68:
                    85:80:72:85:45:34:1f:63:1e:62:f4:97:b8:0b:65:
                    d7:99:ad:2e:15:f2:93:6d:d6:2f:7e:df:4e:83:4a:
                    63:ef:cd:6b:c3:c1:f1:a2:b6:b9:28:3b:bc:b5:62:
                    35:41:3f:e3:ad:fb:5e:32:e3:5d:53:24:a3:4d:84:
                    19:cf:a8:6a:78:8e:75:9e:7a:16:5a:1f:30:83:de:
                    e3:ff:ec:93:4f:02:43:75:60:f1:ca:ab:4b:fe:2a:
                    44:53:a5:4d:3b:f5:05:41:f5:6b:68:35:73:7e:5f:
                    4c:90:3a:57:29:26:45:a6:7f:e3:98:cd:ed:74:3c:
                    e2:30:6a:70:44:fc:45:79:28:a6:26:09:ed:66:7f:
                    e7:13:8c:9d:95:cb:81:6d:7d:03:a9:9e:97:c8:3f:
                    d8:cf:a2:a9:49:d6:d1:cb:92:90:b4:f5:56:90:6a:
                    19:4d:d6:1f:4d:c4:a3:57:b3:73:a2:dd:5d:c6:9c:
                    54:07:4a:52:4f:b4:3d:c0:e8:14:a6:93:26:b8:05:
                    38:5f:07:0c:4a:04:85:3c:63:79:62:07:df:40:1c:
                    30:c3:97:d1:b8:2f:05:72:2e:ab:b7:26:78:8e:e7:
                    33:31:9c:48:8c:c0:eb:5f:1c:1a:ee:fe:8b:90:a6:
                    ad:cf:89:36:dd:fa:e3:c3:03:c3:eb:e7:bb:f7:12:
                    e4:99:ff:cc:d9:ee:45:98:ac:88:51:fe:9f:91:f2:
                    c6:45:25:37:20:59:84:13:3d:13:9d:b9:42:d9:74:
                    6a:45:5e:70:b8:0b:a5:3d:1f:53:77:dc:9f:18:c2:
                    c8:72:45:68:b8:b9:09:24:d8:a0:4e:9c:50:b6:d7:
                    1d:10:a1:6b:9c:71:5e:51:ed:20:82:45:98:d6:b9:
                    a8:66:20:cd:e6:a2:94:8d:26:45:0e:88:cd:19:19:
                    f5:9b:7b:48:81:f4:df:38:d8:43:3a:8d:8b:e8:db:
                    fb:17:b1
                Exponent: 65537 (0x10001)
        X509v3 extensions:
            X509v3 Basic Constraints: 
                CA:FALSE
            Netscape Comment: 
                Easy-RSA Generated Certificate
            X509v3 Subject Key Identifier: 
                CA:9B:0B:2E:F6:E7:6E:30:B0:90:78:96:EA:78:8F:1F:7C:A7:2A:2C
            X509v3 Authority Key Identifier: 
                keyid:12:CD:60:04:D2:A0:80:9E:70:ED:C6:99:B8:7B:2C:C6:52:FD:19:A1
                DirName:/C=US/ST=OH/L=Columbus/O=VikingVPN/OU=MyOrganizationalUnit/CN=VikingVPN CA/name=EasyRSA/emailAddress=me@myhost.mydomain
                serial:CF:35:85:EE:80:BF:2A:3E

            X509v3 Extended Key Usage: 
                TLS Web Client Authentication
            X509v3 Key Usage: 
                Digital Signature
    Signature Algorithm: md5WithRSAEncryption
         77:1e:08:b6:0e:3e:a6:b3:3a:9d:74:50:7c:88:76:85:4f:02:
         2c:8e:b8:c3:55:7c:6c:14:5b:e0:3a:eb:b1:14:9e:97:c0:0e:
         aa:03:c8:03:18:b4:8b:ee:5e:dc:43:f5:86:47:b3:ef:0d:ec:
         dc:4e:64:9f:68:9b:a9:33:25:83:de:09:d5:08:68:3a:52:2a:
         de:51:a6:01:70:32:8b:8e:67:67:d9:fd:be:5d:fa:73:aa:48:
         3e:4d:52:f3:14:66:14:7b:8e:51:52:93:c9:1b:cd:1c:89:a3:
         0b:ef:5e:fa:e6:f4:d3:4a:43:ea:18:fe:71:0e:43:cf:93:e5:
         e2:3d:c7:f2:42:c4:6e:26:99:e0:ff:09:99:f6:04:49:72:5a:
         c2:15:ff:fe:a9:01:f3:e6:dc:83:7d:02:08:9c:13:f0:4a:46:
         43:85:1f:52:12:e6:26:fe:cb:db:63:ea:25:55:8e:fa:ab:4f:
         5d:bd:96:f7:7b:c4:9c:76:b8:f1:26:64:dd:c5:86:17:67:fb:
         5f:9f:f8:e3:41:80:44:df:2f:89:56:4b:40:bd:b5:9a:8b:3a:
         b8:ea:f7:45:3c:3d:e0:70:32:1f:df:be:e2:3d:cb:2c:bd:db:
         ce:e1:c2:10:f7:57:58:4d:9a:e5:b4:40:25:f6:05:2f:6f:ad:
         4c:e7:21:25:ce:93:15:dc:32:78:32:77:ea:e0:19:01:57:49:
         b6:4f:ae:df:ee:83:e8:af:75:f7:47:24:32:58:2d:61:1f:e7:
         a9:2c:43:c8:2f:3e:a1:ea:24:44:53:0d:29:3f:22:8a:15:8f:
         62:64:cf:ff:e0:f4:9a:17:45:64:e2:c6:01:80:43:91:fb:3e:
         68:87:82:c9:90:67:15:bd:ee:08:14:4e:6e:09:d0:61:8b:26:
         e1:63:33:ba:f4:3d:24:c5:5d:0c:ff:d5:1c:73:85:51:2b:7d:
         2a:d8:53:3f:1f:a1:73:7d:92:d6:1c:23:d0:46:1a:81:df:18:
         01:62:0c:73:93:51:f3:25:0c:5b:d1:cb:64:5f:f6:22:96:0a:
         99:b3:e3:b6:d6:1a:f9:6d:80:8b:bc:45:9b:4f:de:24:1b:7f:
         0e:10:9f:99:36:ec:57:c9:59:c1:22:d0:a2:2d:4f:9f:a3:1f:
         22:40:e2:6c:ff:87:82:27:29:42:75:1c:c9:d7:8d:a8:48:d5:
         53:eb:e7:da:f7:3d:0c:6f:0f:7f:db:d1:59:ef:2b:6d:f2:59:
         48:f9:17:a2:57:69:13:6d:6b:41:a7:f4:66:83:63:b4:b6:d3:
         84:b3:b4:32:f0:30:cf:e5:3f:f6:11:cd:87:91:f8:32:41:1e:
         06:a1:71:2d:da:b0:4e:c5
-----BEGIN CERTIFICATE-----
MIIGrDCCBJSgAwIBAgICBsYwDQYJKoZIhvcNAQEEBQAwgawxCzAJBgNVBAYTAlVT
MQswCQYDVQQIEwJPSDERMA8GA1UEBxMIQ29sdW1idXMxEjAQBgNVBAoTCVZpa2lu
Z1ZQTjEdMBsGA1UECxMUTXlPcmdhbml6YXRpb25hbFVuaXQxFTATBgNVBAMTDFZp
a2luZ1ZQTiBDQTEQMA4GA1UEKRMHRWFzeVJTQTEhMB8GCSqGSIb3DQEJARYSbWVA
bXlob3N0Lm15ZG9tYWluMB4XDTE0MDQyNzAxNDU0M1oXDTI0MDQyNDAxNDU0M1ow
HjEcMBoGA1UEAxMTQ2xpZW50NjAxQ2VydDVlODMwZDCCAiIwDQYJKoZIhvcNAQEB
BQADggIPADCCAgoCggIBANdftm5RglTrueDxC021jVdZUyY44iDcjDWtTHZyMhT7
fSuA1SSmfGN/0inrjhjsUoFTuWb+HQhQp4tmUmDbf571Y38cayMiTvIUKA7YqFJD
lh8QL9fva76X9jmHOQk5Gf0WMmf5Q6dceHmFUhtKe+n65xIqFWQyWKcz1m6XSnAl
lQ+KCOSwoOjGMenuWM8yf370WP5ohYByhUU0H2MeYvSXuAtl15mtLhXyk23WL37f
ToNKY+/Na8PB8aK2uSg7vLViNUE/4637XjLjXVMko02EGc+oaniOdZ56FlofMIPe
4//sk08CQ3Vg8cqrS/4qRFOlTTv1BUH1a2g1c35fTJA6VykmRaZ/45jN7XQ84jBq
cET8RXkopiYJ7WZ/5xOMnZXLgW19A6mel8g/2M+iqUnW0cuSkLT1VpBqGU3WH03E
o1ezc6LdXcacVAdKUk+0PcDoFKaTJrgFOF8HDEoEhTxjeWIH30AcMMOX0bgvBXIu
q7cmeI7nMzGcSIzA618cGu7+i5Cmrc+JNt3648MDw+vnu/cS5Jn/zNnuRZisiFH+
n5HyxkUlNyBZhBM9E525Qtl0akVecLgLpT0fU3fcnxjCyHJFaLi5CSTYoE6cULbX
HRCha5xxXlHtIIJFmNa5qGYgzeailI0mRQ6IzRkZ9Zt7SIH03zjYQzqNi+jb+xex
AgMBAAGjggFjMIIBXzAJBgNVHRMEAjAAMC0GCWCGSAGG+EIBDQQgFh5FYXN5LVJT
QSBHZW5lcmF0ZWQgQ2VydGlmaWNhdGUwHQYDVR0OBBYEFMqbCy72524wsJB4lup4
jx98pyosMIHhBgNVHSMEgdkwgdaAFBLNYATSoICecO3Gmbh7LMZS/RmhoYGypIGv
MIGsMQswCQYDVQQGEwJVUzELMAkGA1UECBMCT0gxETAPBgNVBAcTCENvbHVtYnVz
MRIwEAYDVQQKEwlWaWtpbmdWUE4xHTAbBgNVBAsTFE15T3JnYW5pemF0aW9uYWxV
bml0MRUwEwYDVQQDEwxWaWtpbmdWUE4gQ0ExEDAOBgNVBCkTB0Vhc3lSU0ExITAf
BgkqhkiG9w0BCQEWEm1lQG15aG9zdC5teWRvbWFpboIJAM81he6Avyo+MBMGA1Ud
JQQMMAoGCCsGAQUFBwMCMAsGA1UdDwQEAwIHgDANBgkqhkiG9w0BAQQFAAOCAgEA
dx4Itg4+prM6nXRQfIh2hU8CLI64w1V8bBRb4DrrsRSel8AOqgPIAxi0i+5e3EP1
hkez7w3s3E5kn2ibqTMlg94J1QhoOlIq3lGmAXAyi45nZ9n9vl36c6pIPk1S8xRm
FHuOUVKTyRvNHImjC+9e+ub000pD6hj+cQ5Dz5Pl4j3H8kLEbiaZ4P8JmfYESXJa
whX//qkB8+bcg30CCJwT8EpGQ4UfUhLmJv7L22PqJVWO+qtPXb2W93vEnHa48SZk
3cWGF2f7X5/440GARN8viVZLQL21mos6uOr3RTw94HAyH9++4j3LLL3bzuHCEPdX
WE2a5bRAJfYFL2+tTOchJc6TFdwyeDJ36uAZAVdJtk+u3+6D6K9190ckMlgtYR/n
qSxDyC8+oeokRFMNKT8iihWPYmTP/+D0mhdFZOLGAYBDkfs+aIeCyZBnFb3uCBRO
bgnQYYsm4WMzuvQ9JMVdDP/VHHOFUSt9KthTPx+hc32S1hwj0EYagd8YAWIMc5NR
8yUMW9HLZF/2IpYKmbPjttYa+W2Ai7xFm0/eJBt/DhCfmTbsV8lZwSLQoi1Pn6Mf
IkDibP+HgicpQnUcydeNqEjVU+vn2vc9DG8Pf9vRWe8rbfJZSPkXoldpE21rQaf0
ZoNjtLbThLO0MvAwz+U/9hHNh5H4MkEeBqFxLdqwTsU=
-----END CERTIFICATE-----
