Certificate:
    Data:
        Version: 3 (0x2)
        Serial Number: 1737 (0x6c9)
    Signature Algorithm: md5WithRSAEncryption
        Issuer: C=US, ST=OH, L=Columbus, O=VikingVPN, OU=MyOrganizationalUnit, CN=VikingVPN CA/name=EasyRSA/emailAddress=me@myhost.mydomain
        Validity
            Not Before: Apr 28 01:59:03 2014 GMT
            Not After : Apr 25 01:59:03 2024 GMT
        Subject: CN=Client614Cert358be7
        Subject Public Key Info:
            Public Key Algorithm: rsaEncryption
                Public-Key: (4096 bit)
                Modulus:
                    00:cd:04:84:56:0a:53:ab:02:bd:64:c8:a6:c8:2f:
                    dd:27:48:5b:15:41:2a:77:94:ff:41:11:65:b2:bf:
                    93:22:63:0f:30:9f:bd:92:3c:2a:89:56:0e:ca:aa:
                    48:af:be:6b:7d:c0:1e:54:19:31:18:e3:b5:63:7d:
                    aa:8d:54:90:1b:2a:9f:e1:b0:2b:a5:19:7c:1f:d1:
                    55:53:56:f6:61:3c:be:b0:19:38:92:95:4f:05:87:
                    53:60:89:c3:4e:55:76:46:a9:9d:0d:17:d9:c5:2e:
                    07:48:3f:9d:74:aa:0f:d4:0b:28:64:7b:8a:cb:59:
                    63:7a:73:26:a3:e6:14:f0:7a:ea:b4:53:41:f9:f4:
                    13:1a:91:4b:7f:6d:d3:72:98:df:69:0e:d1:07:b5:
                    33:0e:50:f3:bc:3c:66:17:8c:46:21:d8:55:5e:a1:
                    80:cf:b9:a2:fb:3b:1f:af:0b:f8:d8:c4:ad:fe:9c:
                    5f:86:64:19:c1:02:09:55:9b:c1:4b:e9:0d:5a:df:
                    84:68:60:2e:07:73:8a:4a:74:c1:ad:34:54:5a:51:
                    8c:8c:bd:90:7c:a1:9e:b8:17:d1:f8:e6:c9:32:e9:
                    bf:b7:20:5f:c7:67:62:8e:e6:14:33:5a:f6:00:8f:
                    c2:06:ce:e0:51:1d:08:79:de:4a:8f:52:e0:64:99:
                    4d:dd:0f:f1:14:eb:14:5a:99:15:87:60:e5:68:f1:
                    4d:75:95:88:52:f2:c9:9a:17:c7:12:79:ef:a0:a9:
                    8a:89:e7:35:d5:1a:d0:99:31:d4:06:b7:5c:30:5b:
                    9b:ce:90:bd:25:e5:2d:da:a1:41:b3:79:55:79:49:
                    59:34:4e:04:bf:45:1c:bf:e4:bc:22:53:47:d2:65:
                    3a:f7:05:f8:cf:96:75:7f:b0:aa:27:31:6e:aa:5b:
                    9d:c5:be:70:15:44:fe:00:68:b0:9a:f6:69:5a:b1:
                    d6:2d:75:60:5b:a9:fc:ef:76:8b:4e:37:f4:be:0b:
                    ed:85:bf:03:d6:f1:75:41:88:02:78:e0:17:a6:f8:
                    ad:46:5d:f2:88:49:ca:08:81:aa:7d:ce:6e:75:9f:
                    ce:bb:cf:eb:35:2f:57:c0:b8:75:e0:c6:d8:eb:0c:
                    61:1f:7c:b4:25:56:ed:dc:51:aa:12:f8:d1:52:c3:
                    18:8a:b8:dd:c8:d0:1e:3a:63:17:2f:20:f6:30:ed:
                    74:d2:5b:fb:71:88:11:e5:f2:b5:ea:33:c2:c1:97:
                    97:82:d9:23:35:9c:e7:9e:41:73:1c:c6:d5:7f:67:
                    8f:22:85:d6:31:79:12:76:b9:f1:83:4b:07:09:e4:
                    2f:2c:6f:97:58:2b:a7:dd:84:84:df:e1:2b:e8:dc:
                    fe:85:7f
                Exponent: 65537 (0x10001)
        X509v3 extensions:
            X509v3 Basic Constraints: 
                CA:FALSE
            Netscape Comment: 
                Easy-RSA Generated Certificate
            X509v3 Subject Key Identifier: 
                DF:68:62:C4:F3:60:FD:B2:C7:D9:73:3B:B1:A2:E1:C4:E9:3A:58:53
            X509v3 Authority Key Identifier: 
                keyid:12:CD:60:04:D2:A0:80:9E:70:ED:C6:99:B8:7B:2C:C6:52:FD:19:A1
                DirName:/C=US/ST=OH/L=Columbus/O=VikingVPN/OU=MyOrganizationalUnit/CN=VikingVPN CA/name=EasyRSA/emailAddress=me@myhost.mydomain
                serial:CF:35:85:EE:80:BF:2A:3E

            X509v3 Extended Key Usage: 
                TLS Web Client Authentication
            X509v3 Key Usage: 
                Digital Signature
    Signature Algorithm: md5WithRSAEncryption
         63:0a:67:ce:a3:3c:e8:b8:fa:30:ec:de:be:c9:a8:19:42:09:
         69:b2:cb:ad:e9:45:65:9f:89:b8:26:d0:ea:c4:b3:4e:85:1e:
         75:ba:45:c3:91:5b:a9:6d:72:68:aa:31:94:f8:eb:0a:e2:3b:
         af:d3:56:94:c6:86:74:c0:a9:84:59:89:9b:67:d4:95:8d:68:
         97:da:7a:89:4f:cd:9b:23:45:13:03:53:ce:7a:07:fc:a6:f0:
         f0:17:d1:99:3d:e8:77:b6:52:22:32:2a:1a:6d:6f:d7:08:d7:
         d6:64:fa:59:f1:5a:f7:ff:01:2c:7d:d6:a9:da:1c:a6:ad:05:
         09:d2:cf:56:71:7e:bb:83:2f:ab:07:1c:d5:06:01:44:2d:03:
         5e:d0:69:77:ba:7e:12:e7:18:55:cb:d5:e7:fd:41:b4:ce:7f:
         93:03:a0:6f:a8:3a:ef:24:82:3c:ec:82:52:16:c0:3d:90:b9:
         43:eb:6d:38:7b:d2:05:09:d9:a5:14:7f:63:80:e4:0e:8e:d0:
         f1:6d:fc:35:33:6f:2e:89:80:ea:59:9f:b0:b9:a1:c1:d5:18:
         b9:fd:b9:fc:3b:ca:91:f1:1e:bb:56:c1:d3:dd:fc:ac:1a:0c:
         4a:26:4b:b2:70:c1:d9:ae:bc:a7:c1:41:19:d1:a6:a0:29:24:
         c5:5d:3d:17:1d:9c:d4:b3:19:73:94:79:b6:5b:36:1f:4f:a3:
         03:5d:3e:84:f7:60:fc:f3:53:20:e6:6b:6c:39:67:3e:04:5b:
         9a:01:55:20:2f:ce:2b:d4:e4:f0:92:3e:3d:e1:48:e1:a8:5c:
         bd:26:33:73:58:74:77:2d:15:ee:c8:3e:e9:74:3b:1c:f0:cb:
         2e:2e:cd:4c:d5:05:56:c4:da:4e:a4:79:76:67:a6:0f:b8:2f:
         50:24:49:af:93:33:d9:f6:62:d4:6c:65:1b:18:59:b0:a0:1c:
         37:de:b2:21:9a:a9:d9:c1:3b:56:6f:d0:57:ef:87:af:09:ca:
         23:ef:59:4c:62:d4:84:32:2c:89:b3:eb:b6:a1:c4:63:b8:bf:
         70:6d:c0:77:5e:59:4f:e6:4b:02:73:76:d7:77:b9:76:da:b3:
         f5:74:63:ba:63:d0:29:dc:ab:99:03:cf:01:d6:fb:93:15:8a:
         a3:ae:37:6c:c1:6a:25:91:13:62:28:76:7f:60:0d:3f:54:67:
         25:c4:01:86:95:22:7b:0c:a3:1b:b6:88:59:4c:3a:ad:a8:ec:
         97:5a:92:da:cb:9c:28:aa:1d:12:53:eb:6b:53:08:25:3a:e0:
         44:90:19:d7:47:07:de:3c:04:28:15:5e:2c:1b:79:5d:13:92:
         4b:31:a2:4f:75:c6:ff:82
-----BEGIN CERTIFICATE-----
MIIGrDCCBJSgAwIBAgICBskwDQYJKoZIhvcNAQEEBQAwgawxCzAJBgNVBAYTAlVT
MQswCQYDVQQIEwJPSDERMA8GA1UEBxMIQ29sdW1idXMxEjAQBgNVBAoTCVZpa2lu
Z1ZQTjEdMBsGA1UECxMUTXlPcmdhbml6YXRpb25hbFVuaXQxFTATBgNVBAMTDFZp
a2luZ1ZQTiBDQTEQMA4GA1UEKRMHRWFzeVJTQTEhMB8GCSqGSIb3DQEJARYSbWVA
bXlob3N0Lm15ZG9tYWluMB4XDTE0MDQyODAxNTkwM1oXDTI0MDQyNTAxNTkwM1ow
HjEcMBoGA1UEAxMTQ2xpZW50NjE0Q2VydDM1OGJlNzCCAiIwDQYJKoZIhvcNAQEB
BQADggIPADCCAgoCggIBAM0EhFYKU6sCvWTIpsgv3SdIWxVBKneU/0ERZbK/kyJj
DzCfvZI8KolWDsqqSK++a33AHlQZMRjjtWN9qo1UkBsqn+GwK6UZfB/RVVNW9mE8
vrAZOJKVTwWHU2CJw05VdkapnQ0X2cUuB0g/nXSqD9QLKGR7istZY3pzJqPmFPB6
6rRTQfn0ExqRS39t03KY32kO0Qe1Mw5Q87w8ZheMRiHYVV6hgM+5ovs7H68L+NjE
rf6cX4ZkGcECCVWbwUvpDVrfhGhgLgdzikp0wa00VFpRjIy9kHyhnrgX0fjmyTLp
v7cgX8dnYo7mFDNa9gCPwgbO4FEdCHneSo9S4GSZTd0P8RTrFFqZFYdg5WjxTXWV
iFLyyZoXxxJ576CpionnNdUa0Jkx1Aa3XDBbm86QvSXlLdqhQbN5VXlJWTROBL9F
HL/kvCJTR9JlOvcF+M+WdX+wqicxbqpbncW+cBVE/gBosJr2aVqx1i11YFup/O92
i0439L4L7YW/A9bxdUGIAnjgF6b4rUZd8ohJygiBqn3ObnWfzrvP6zUvV8C4deDG
2OsMYR98tCVW7dxRqhL40VLDGIq43cjQHjpjFy8g9jDtdNJb+3GIEeXyteozwsGX
l4LZIzWc555BcxzG1X9njyKF1jF5Ena58YNLBwnkLyxvl1grp92EhN/hK+jc/oV/
AgMBAAGjggFjMIIBXzAJBgNVHRMEAjAAMC0GCWCGSAGG+EIBDQQgFh5FYXN5LVJT
QSBHZW5lcmF0ZWQgQ2VydGlmaWNhdGUwHQYDVR0OBBYEFN9oYsTzYP2yx9lzO7Gi
4cTpOlhTMIHhBgNVHSMEgdkwgdaAFBLNYATSoICecO3Gmbh7LMZS/RmhoYGypIGv
MIGsMQswCQYDVQQGEwJVUzELMAkGA1UECBMCT0gxETAPBgNVBAcTCENvbHVtYnVz
MRIwEAYDVQQKEwlWaWtpbmdWUE4xHTAbBgNVBAsTFE15T3JnYW5pemF0aW9uYWxV
bml0MRUwEwYDVQQDEwxWaWtpbmdWUE4gQ0ExEDAOBgNVBCkTB0Vhc3lSU0ExITAf
BgkqhkiG9w0BCQEWEm1lQG15aG9zdC5teWRvbWFpboIJAM81he6Avyo+MBMGA1Ud
JQQMMAoGCCsGAQUFBwMCMAsGA1UdDwQEAwIHgDANBgkqhkiG9w0BAQQFAAOCAgEA
YwpnzqM86Lj6MOzevsmoGUIJabLLrelFZZ+JuCbQ6sSzToUedbpFw5FbqW1yaKox
lPjrCuI7r9NWlMaGdMCphFmJm2fUlY1ol9p6iU/NmyNFEwNTznoH/Kbw8BfRmT3o
d7ZSIjIqGm1v1wjX1mT6WfFa9/8BLH3Wqdocpq0FCdLPVnF+u4Mvqwcc1QYBRC0D
XtBpd7p+EucYVcvV5/1BtM5/kwOgb6g67ySCPOyCUhbAPZC5Q+ttOHvSBQnZpRR/
Y4DkDo7Q8W38NTNvLomA6lmfsLmhwdUYuf25/DvKkfEeu1bB0938rBoMSiZLsnDB
2a68p8FBGdGmoCkkxV09Fx2c1LMZc5R5tls2H0+jA10+hPdg/PNTIOZrbDlnPgRb
mgFVIC/OK9Tk8JI+PeFI4ahcvSYzc1h0dy0V7sg+6XQ7HPDLLi7NTNUFVsTaTqR5
dmemD7gvUCRJr5Mz2fZi1GxlGxhZsKAcN96yIZqp2cE7Vm/QV++HrwnKI+9ZTGLU
hDIsibPrtqHEY7i/cG3Ad15ZT+ZLAnN213e5dtqz9XRjumPQKdyrmQPPAdb7kxWK
o643bMFqJZETYih2f2ANP1RnJcQBhpUiewyjG7aIWUw6rajsl1qS2sucKKodElPr
a1MIJTrgRJAZ10cH3jwEKBVeLBt5XROSSzGiT3XG/4I=
-----END CERTIFICATE-----
