Certificate:
    Data:
        Version: 3 (0x2)
        Serial Number: 1741 (0x6cd)
    Signature Algorithm: md5WithRSAEncryption
        Issuer: C=US, ST=OH, L=Columbus, O=VikingVPN, OU=MyOrganizationalUnit, CN=VikingVPN CA/name=EasyRSA/emailAddress=me@myhost.mydomain
        Validity
            Not Before: Apr 28 03:07:31 2014 GMT
            Not After : Apr 25 03:07:31 2024 GMT
        Subject: CN=Client617Certfe05ca
        Subject Public Key Info:
            Public Key Algorithm: rsaEncryption
                Public-Key: (4096 bit)
                Modulus:
                    00:c0:c6:47:e6:b5:18:38:05:4c:21:be:f8:06:b9:
                    d1:48:ea:ce:51:4b:26:41:1d:33:86:84:de:09:ed:
                    7b:1c:cb:d3:3a:25:e1:3d:4c:f0:40:e0:eb:29:2f:
                    27:7c:8c:b4:44:f2:78:70:45:31:e0:c2:c2:6c:4d:
                    e9:c4:49:9a:e5:38:59:bd:dd:0a:72:84:bc:2d:48:
                    b3:6e:eb:69:5f:9d:21:f5:51:ef:bc:5f:37:8e:66:
                    2f:b6:d4:21:ff:a0:b6:68:89:19:04:16:4f:16:6f:
                    95:91:34:50:2e:4f:7d:90:96:f2:89:64:b5:4c:3e:
                    bd:37:26:cf:fb:b7:03:65:cf:78:60:4b:cf:0f:e9:
                    ee:cb:1f:3d:90:ba:37:1c:af:ec:2f:52:f9:4e:9b:
                    dc:82:ba:29:b5:52:d0:a8:36:ab:6e:8c:b0:3f:ae:
                    53:95:5a:e2:7a:34:dd:63:1b:6c:70:8a:31:97:46:
                    74:74:f5:da:11:f7:24:61:df:3a:33:7f:b1:9c:b0:
                    eb:d1:ca:61:17:c5:c6:b6:c9:99:3a:c3:32:b9:f1:
                    96:b7:57:5b:18:a6:06:06:b3:1d:96:6d:2b:75:8e:
                    4b:be:f2:d1:4e:cb:35:bb:e6:f0:cd:28:95:9b:20:
                    20:96:3d:dc:2d:4e:5f:4c:86:9b:d3:a6:14:bb:d7:
                    d0:34:73:94:81:92:78:fe:8f:aa:80:90:64:93:42:
                    b4:9a:e9:1d:ba:71:60:ed:07:da:4a:b1:9c:4d:b4:
                    3e:9f:99:7c:bf:68:d6:ba:58:32:9f:b7:44:a3:47:
                    14:e0:87:01:47:93:cf:a0:50:42:98:59:57:0f:39:
                    63:9b:f0:0f:6a:f4:c0:1c:a9:85:83:60:e1:f9:a5:
                    7d:b1:cb:c5:54:61:a8:82:f9:25:fa:a8:2e:86:8d:
                    b0:59:5a:d6:74:88:ba:69:b4:67:fd:97:a1:0f:8b:
                    a2:4c:5c:0e:6e:9a:ab:f3:a9:64:39:3c:cb:33:d8:
                    f9:a2:64:3b:05:0b:e3:9d:16:08:46:47:8e:59:07:
                    7d:20:00:e8:e3:f7:6a:e7:6a:7c:53:2c:ec:99:b8:
                    95:cf:eb:14:0a:d9:ad:6e:49:b6:13:f9:b9:bf:66:
                    b7:ae:9c:18:07:81:00:0a:08:96:dc:ad:80:38:31:
                    a6:04:a2:ab:26:42:e8:68:0d:1f:fb:d5:dd:4b:da:
                    cb:90:22:06:75:ca:61:7c:b1:a9:46:18:0d:87:06:
                    87:99:04:08:2a:bc:c6:e5:99:3a:c4:80:3e:bc:78:
                    e6:69:fb:91:e2:7d:ae:9e:72:f1:0a:7d:ad:c2:96:
                    a4:cc:77:2e:97:d6:89:9a:ab:42:14:ef:ac:b1:5c:
                    60:07:23
                Exponent: 65537 (0x10001)
        X509v3 extensions:
            X509v3 Basic Constraints: 
                CA:FALSE
            Netscape Comment: 
                Easy-RSA Generated Certificate
            X509v3 Subject Key Identifier: 
                54:2B:04:A6:AD:6D:9E:15:4E:10:CF:09:5F:08:62:60:23:26:30:3A
            X509v3 Authority Key Identifier: 
                keyid:12:CD:60:04:D2:A0:80:9E:70:ED:C6:99:B8:7B:2C:C6:52:FD:19:A1
                DirName:/C=US/ST=OH/L=Columbus/O=VikingVPN/OU=MyOrganizationalUnit/CN=VikingVPN CA/name=EasyRSA/emailAddress=me@myhost.mydomain
                serial:CF:35:85:EE:80:BF:2A:3E

            X509v3 Extended Key Usage: 
                TLS Web Client Authentication
            X509v3 Key Usage: 
                Digital Signature
    Signature Algorithm: md5WithRSAEncryption
         ea:62:7f:d8:5a:06:d1:f1:25:c0:16:af:1f:5e:bb:c4:e8:c8:
         6f:e3:3a:6b:b6:85:51:95:fd:c1:4f:b9:44:29:ba:cf:63:44:
         ac:ce:21:d7:9f:75:6c:de:6e:fb:48:95:19:82:c8:67:17:9e:
         ed:15:df:8f:2b:d5:b3:e9:67:f4:af:16:d0:5f:4a:35:92:1a:
         4b:0f:0e:c9:0a:27:76:9e:4e:7a:1a:a7:33:0f:a3:dc:96:37:
         90:88:16:06:f0:84:a9:25:13:58:55:7d:17:d5:8e:ed:b9:59:
         41:b0:7d:32:eb:d4:93:fb:4f:dd:78:0e:0f:e2:c3:6c:1f:8f:
         45:fb:88:59:48:83:b4:e0:4c:2a:83:77:23:04:df:62:69:19:
         19:7b:cf:93:ee:66:cb:18:2b:74:58:86:ed:0f:1d:0c:b6:ec:
         e4:a1:bd:8c:bd:4e:17:16:51:33:81:31:dd:6d:9a:0b:a2:00:
         56:9f:5d:ce:27:a3:4d:f3:75:29:b8:fa:68:68:3b:96:d8:0a:
         a9:98:ce:90:59:bf:a8:88:23:4c:39:b3:ca:ba:ac:9a:3e:fe:
         5a:6b:53:d4:be:33:0f:a4:40:22:e9:1a:fc:49:cb:4c:fc:43:
         e9:80:74:ae:14:06:c9:e4:b3:ec:69:90:0d:7f:9f:4c:c5:fe:
         69:dc:62:9f:6f:e6:f8:80:02:2a:47:83:4a:9c:22:38:f5:a6:
         61:ed:1a:ba:1d:30:5b:be:81:cd:5c:e5:6d:41:46:00:88:7e:
         91:b3:58:77:87:67:3c:22:0a:d9:15:db:46:65:3e:b9:ea:d9:
         c6:36:71:5f:68:5b:99:00:3f:87:14:d0:1c:e5:14:09:d1:0c:
         d7:5d:01:b2:49:e2:2f:b7:24:43:3f:f2:66:a5:4f:1c:7c:b8:
         ab:d6:06:1a:78:2d:ff:1b:78:db:f4:27:71:d3:46:b1:1b:ee:
         72:a1:ce:a9:c9:86:0c:e5:4a:e8:11:f3:27:6a:55:74:4b:d7:
         ee:7c:57:a9:b3:97:80:0b:bd:91:7f:25:aa:4f:80:f0:64:91:
         86:3d:4e:55:8b:81:f4:66:df:37:bb:83:b0:f6:2e:8d:4d:ac:
         fd:a4:85:b5:d3:f1:b2:84:42:cf:13:2e:ac:71:b2:04:bc:0c:
         00:76:e2:e4:1d:3f:84:45:cb:24:db:41:5e:83:41:19:9b:c4:
         70:9f:ab:a6:4a:ee:43:ed:34:a8:0f:44:7c:70:dd:15:75:35:
         3f:d8:33:c9:ff:d5:66:4c:ac:a8:34:a0:c0:0f:86:a3:a5:1d:
         a7:76:ff:94:3a:f5:71:61:42:ef:9d:6c:93:b3:50:51:04:b0:
         e6:f7:cf:7b:c6:cc:84:59
-----BEGIN CERTIFICATE-----
MIIGrDCCBJSgAwIBAgICBs0wDQYJKoZIhvcNAQEEBQAwgawxCzAJBgNVBAYTAlVT
MQswCQYDVQQIEwJPSDERMA8GA1UEBxMIQ29sdW1idXMxEjAQBgNVBAoTCVZpa2lu
Z1ZQTjEdMBsGA1UECxMUTXlPcmdhbml6YXRpb25hbFVuaXQxFTATBgNVBAMTDFZp
a2luZ1ZQTiBDQTEQMA4GA1UEKRMHRWFzeVJTQTEhMB8GCSqGSIb3DQEJARYSbWVA
bXlob3N0Lm15ZG9tYWluMB4XDTE0MDQyODAzMDczMVoXDTI0MDQyNTAzMDczMVow
HjEcMBoGA1UEAxMTQ2xpZW50NjE3Q2VydGZlMDVjYTCCAiIwDQYJKoZIhvcNAQEB
BQADggIPADCCAgoCggIBAMDGR+a1GDgFTCG++Aa50UjqzlFLJkEdM4aE3gntexzL
0zol4T1M8EDg6ykvJ3yMtETyeHBFMeDCwmxN6cRJmuU4Wb3dCnKEvC1Is27raV+d
IfVR77xfN45mL7bUIf+gtmiJGQQWTxZvlZE0UC5PfZCW8olktUw+vTcmz/u3A2XP
eGBLzw/p7ssfPZC6Nxyv7C9S+U6b3IK6KbVS0Kg2q26MsD+uU5Va4no03WMbbHCK
MZdGdHT12hH3JGHfOjN/sZyw69HKYRfFxrbJmTrDMrnxlrdXWximBgazHZZtK3WO
S77y0U7LNbvm8M0olZsgIJY93C1OX0yGm9OmFLvX0DRzlIGSeP6PqoCQZJNCtJrp
HbpxYO0H2kqxnE20Pp+ZfL9o1rpYMp+3RKNHFOCHAUeTz6BQQphZVw85Y5vwD2r0
wByphYNg4fmlfbHLxVRhqIL5JfqoLoaNsFla1nSIumm0Z/2XoQ+LokxcDm6aq/Op
ZDk8yzPY+aJkOwUL450WCEZHjlkHfSAA6OP3audqfFMs7Jm4lc/rFArZrW5JthP5
ub9mt66cGAeBAAoIltytgDgxpgSiqyZC6GgNH/vV3Uvay5AiBnXKYXyxqUYYDYcG
h5kECCq8xuWZOsSAPrx45mn7keJ9rp5y8Qp9rcKWpMx3LpfWiZqrQhTvrLFcYAcj
AgMBAAGjggFjMIIBXzAJBgNVHRMEAjAAMC0GCWCGSAGG+EIBDQQgFh5FYXN5LVJT
QSBHZW5lcmF0ZWQgQ2VydGlmaWNhdGUwHQYDVR0OBBYEFFQrBKatbZ4VThDPCV8I
YmAjJjA6MIHhBgNVHSMEgdkwgdaAFBLNYATSoICecO3Gmbh7LMZS/RmhoYGypIGv
MIGsMQswCQYDVQQGEwJVUzELMAkGA1UECBMCT0gxETAPBgNVBAcTCENvbHVtYnVz
MRIwEAYDVQQKEwlWaWtpbmdWUE4xHTAbBgNVBAsTFE15T3JnYW5pemF0aW9uYWxV
bml0MRUwEwYDVQQDEwxWaWtpbmdWUE4gQ0ExEDAOBgNVBCkTB0Vhc3lSU0ExITAf
BgkqhkiG9w0BCQEWEm1lQG15aG9zdC5teWRvbWFpboIJAM81he6Avyo+MBMGA1Ud
JQQMMAoGCCsGAQUFBwMCMAsGA1UdDwQEAwIHgDANBgkqhkiG9w0BAQQFAAOCAgEA
6mJ/2FoG0fElwBavH167xOjIb+M6a7aFUZX9wU+5RCm6z2NErM4h1591bN5u+0iV
GYLIZxee7RXfjyvVs+ln9K8W0F9KNZIaSw8OyQondp5OehqnMw+j3JY3kIgWBvCE
qSUTWFV9F9WO7blZQbB9MuvUk/tP3XgOD+LDbB+PRfuIWUiDtOBMKoN3IwTfYmkZ
GXvPk+5myxgrdFiG7Q8dDLbs5KG9jL1OFxZRM4Ex3W2aC6IAVp9dziejTfN1Kbj6
aGg7ltgKqZjOkFm/qIgjTDmzyrqsmj7+WmtT1L4zD6RAIuka/EnLTPxD6YB0rhQG
yeSz7GmQDX+fTMX+adxin2/m+IACKkeDSpwiOPWmYe0auh0wW76BzVzlbUFGAIh+
kbNYd4dnPCIK2RXbRmU+uerZxjZxX2hbmQA/hxTQHOUUCdEM110BskniL7ckQz/y
ZqVPHHy4q9YGGngt/xt42/QncdNGsRvucqHOqcmGDOVK6BHzJ2pVdEvX7nxXqbOX
gAu9kX8lqk+A8GSRhj1OVYuB9GbfN7uDsPYujU2s/aSFtdPxsoRCzxMurHGyBLwM
AHbi5B0/hEXLJNtBXoNBGZvEcJ+rpkruQ+00qA9EfHDdFXU1P9gzyf/VZkysqDSg
wA+Go6Udp3b/lDr1cWFC751sk7NQUQSw5vfPe8bMhFk=
-----END CERTIFICATE-----
