Certificate:
    Data:
        Version: 3 (0x2)
        Serial Number: 1753 (0x6d9)
    Signature Algorithm: md5WithRSAEncryption
        Issuer: C=US, ST=OH, L=Columbus, O=VikingVPN, OU=MyOrganizationalUnit, CN=VikingVPN CA/name=EasyRSA/emailAddress=me@myhost.mydomain
        Validity
            Not Before: Apr 28 18:12:33 2014 GMT
            Not After : Apr 25 18:12:33 2024 GMT
        Subject: CN=Client619Cert1a09da
        Subject Public Key Info:
            Public Key Algorithm: rsaEncryption
                Public-Key: (4096 bit)
                Modulus:
                    00:b0:8f:ee:dd:ad:a3:92:7f:45:76:48:a3:af:7b:
                    2e:ac:01:58:30:6a:50:b1:47:ea:4a:44:8d:98:1c:
                    b8:1d:00:23:e4:04:06:94:c3:a5:a9:1c:b5:04:82:
                    18:b9:16:3b:c1:67:32:09:9c:48:5a:ef:ff:c4:c7:
                    a1:09:32:3a:f3:20:be:32:83:5f:93:46:44:c7:42:
                    e2:f1:48:c5:0e:77:b1:d3:11:f4:ac:f4:e0:41:ee:
                    b0:35:d6:b6:4e:b8:39:af:9a:aa:9b:fa:bd:11:3e:
                    bc:af:ff:d5:10:19:4e:f7:a8:36:a9:cd:b3:de:82:
                    72:76:ac:53:86:5e:fd:c4:7c:26:d8:da:77:8a:c9:
                    58:a3:6c:87:e2:cb:79:26:77:a8:8d:f1:d2:d6:3d:
                    1f:05:85:bd:a7:44:25:19:75:e9:95:cf:9f:de:45:
                    39:9c:d4:93:ee:47:d1:b7:8b:5e:ed:64:64:b5:65:
                    da:ad:05:b6:90:a5:4d:64:ca:41:fe:c4:fb:9f:fa:
                    26:f8:04:d8:4a:08:00:da:53:81:a0:4e:b3:87:69:
                    c5:12:a5:b7:3b:bb:96:fc:16:30:d8:87:55:ca:98:
                    17:2f:2f:92:4f:7f:74:d5:f8:fa:74:8a:c0:6f:c2:
                    1e:75:22:87:2e:62:a1:76:aa:7d:1c:19:d1:09:5a:
                    49:46:b4:c0:d7:ce:48:12:a4:ad:ea:cd:ee:58:ae:
                    4f:82:09:ca:02:51:60:2b:e1:95:aa:a4:69:1e:1a:
                    12:b6:1c:cd:41:1f:d4:9e:05:79:d9:34:08:9a:f7:
                    20:61:22:d9:e2:39:e5:e6:db:5b:f5:9a:22:1c:f3:
                    ec:28:20:6d:2b:35:47:6a:71:ce:55:24:60:cc:bf:
                    0d:cb:a2:63:0d:ca:1f:bb:2e:aa:03:4e:26:06:4b:
                    d4:40:9b:b4:26:bf:ce:98:b7:1e:14:b2:42:7f:97:
                    f8:78:1a:95:41:be:9a:dc:66:b4:ba:d4:90:b4:65:
                    73:11:b2:93:72:41:4f:9d:6b:a2:8f:30:f3:6e:ee:
                    dc:e9:60:50:b4:a8:e4:dd:b2:c7:b2:e0:ad:2c:50:
                    e0:8b:b2:ab:d6:a1:ae:3c:d8:c7:2b:d9:82:5b:bb:
                    68:10:85:d4:b2:23:91:f3:25:a4:34:06:44:7e:d4:
                    20:ec:14:9d:53:a4:e2:c9:38:2e:c6:77:15:22:c0:
                    04:ef:ee:cb:c6:00:f7:17:d3:09:c8:21:9f:ff:d3:
                    79:d3:77:38:79:93:c2:e2:10:5c:0a:75:fe:ab:df:
                    b9:e6:08:06:d2:d4:e2:a6:01:21:4b:1d:1e:e3:05:
                    fa:ad:ee:a0:57:cf:f2:c4:d0:14:48:01:11:c9:30:
                    a0:53:7d
                Exponent: 65537 (0x10001)
        X509v3 extensions:
            X509v3 Basic Constraints: 
                CA:FALSE
            Netscape Comment: 
                Easy-RSA Generated Certificate
            X509v3 Subject Key Identifier: 
                98:8E:95:E2:88:CF:E4:BC:8B:8E:70:F8:0C:B9:80:BA:5C:47:F4:FB
            X509v3 Authority Key Identifier: 
                keyid:12:CD:60:04:D2:A0:80:9E:70:ED:C6:99:B8:7B:2C:C6:52:FD:19:A1
                DirName:/C=US/ST=OH/L=Columbus/O=VikingVPN/OU=MyOrganizationalUnit/CN=VikingVPN CA/name=EasyRSA/emailAddress=me@myhost.mydomain
                serial:CF:35:85:EE:80:BF:2A:3E

            X509v3 Extended Key Usage: 
                TLS Web Client Authentication
            X509v3 Key Usage: 
                Digital Signature
    Signature Algorithm: md5WithRSAEncryption
         69:9c:67:6f:04:f4:16:89:17:f1:80:0f:99:4e:1f:ce:2f:b4:
         97:fa:8a:f9:ea:67:ff:f3:b5:b0:b0:81:ce:2e:2b:b9:11:79:
         d4:8c:d3:44:e9:2d:41:bf:28:d6:0a:d0:26:98:bd:3b:a7:0f:
         fe:2c:6c:7e:01:67:ab:43:46:ac:6d:29:03:71:48:99:b6:0e:
         4c:2a:f2:0d:71:3d:b8:91:a3:22:24:a1:7e:24:4b:99:9d:9b:
         4a:70:d5:7a:83:35:80:f0:ad:50:e7:de:0c:04:b5:fb:8a:7c:
         df:8a:c2:76:48:58:d7:69:09:ea:35:50:ed:5b:11:fd:c2:d7:
         84:a6:12:5b:c9:39:0e:72:25:13:30:47:76:c7:46:e5:d7:96:
         c2:82:59:fb:ac:62:5f:4d:06:fb:65:34:f6:a5:39:d7:69:f5:
         62:92:5a:a1:fb:58:c2:2b:b0:4f:67:02:f6:c4:5c:1b:8e:1e:
         a0:11:84:42:1c:10:35:28:12:53:0e:7f:f9:f7:8b:c3:36:8a:
         96:cf:b2:cb:1e:a8:ae:2c:31:fa:61:eb:d6:21:a7:93:3e:99:
         e7:29:a6:10:f7:6e:b1:bf:f5:da:0f:07:ad:46:40:6c:da:94:
         fe:97:d3:18:79:95:21:9b:4e:c0:6b:d2:e3:d1:d0:ac:cf:a5:
         b7:24:f9:95:f1:f9:92:b1:f7:6a:e6:41:f5:8d:d8:6d:74:40:
         b4:d3:38:f5:38:a0:d5:44:72:a4:e6:50:f1:56:95:9b:73:01:
         71:ff:31:de:91:9e:92:79:d2:b2:eb:2d:60:56:1e:0d:90:2a:
         0e:f3:84:48:7a:4d:f7:92:7f:40:bd:66:5c:85:a1:10:a3:cc:
         41:36:71:b1:e7:40:a6:aa:ea:d8:a3:29:ef:d4:a7:dc:4b:4c:
         1d:bf:cc:d6:1f:30:1d:b0:10:b7:5f:ff:df:5a:49:5a:ad:66:
         20:08:c6:3a:b9:94:78:ef:82:96:f2:8f:29:ec:6c:3d:9d:17:
         56:ee:b5:1e:98:e0:2d:ff:fa:aa:48:7b:51:9b:95:9d:ab:75:
         92:98:21:f5:ab:ed:a6:a4:62:99:bf:05:6b:2a:67:16:a3:1c:
         1c:c1:8a:00:b6:c0:87:c5:9a:db:cf:8b:26:84:02:bb:14:38:
         e7:6f:b7:c8:d4:3a:dd:54:24:51:fd:be:6e:f0:ca:13:07:d9:
         30:8d:95:88:f6:94:67:bd:c3:fb:bc:b2:5e:4d:82:0d:c4:db:
         3a:7e:b2:d9:62:e2:dc:a4:7a:45:43:56:90:25:b1:1c:a6:6d:
         3c:9d:ad:b2:71:5c:12:42:92:b9:f3:e2:8f:e9:78:22:ff:b2:
         15:fe:ac:3e:aa:95:a6:12
-----BEGIN CERTIFICATE-----
MIIGrDCCBJSgAwIBAgICBtkwDQYJKoZIhvcNAQEEBQAwgawxCzAJBgNVBAYTAlVT
MQswCQYDVQQIEwJPSDERMA8GA1UEBxMIQ29sdW1idXMxEjAQBgNVBAoTCVZpa2lu
Z1ZQTjEdMBsGA1UECxMUTXlPcmdhbml6YXRpb25hbFVuaXQxFTATBgNVBAMTDFZp
a2luZ1ZQTiBDQTEQMA4GA1UEKRMHRWFzeVJTQTEhMB8GCSqGSIb3DQEJARYSbWVA
bXlob3N0Lm15ZG9tYWluMB4XDTE0MDQyODE4MTIzM1oXDTI0MDQyNTE4MTIzM1ow
HjEcMBoGA1UEAxMTQ2xpZW50NjE5Q2VydDFhMDlkYTCCAiIwDQYJKoZIhvcNAQEB
BQADggIPADCCAgoCggIBALCP7t2to5J/RXZIo697LqwBWDBqULFH6kpEjZgcuB0A
I+QEBpTDpakctQSCGLkWO8FnMgmcSFrv/8THoQkyOvMgvjKDX5NGRMdC4vFIxQ53
sdMR9Kz04EHusDXWtk64Oa+aqpv6vRE+vK//1RAZTveoNqnNs96CcnasU4Ze/cR8
Jtjad4rJWKNsh+LLeSZ3qI3x0tY9HwWFvadEJRl16ZXPn95FOZzUk+5H0beLXu1k
ZLVl2q0FtpClTWTKQf7E+5/6JvgE2EoIANpTgaBOs4dpxRKltzu7lvwWMNiHVcqY
Fy8vkk9/dNX4+nSKwG/CHnUihy5ioXaqfRwZ0QlaSUa0wNfOSBKkrerN7liuT4IJ
ygJRYCvhlaqkaR4aErYczUEf1J4Fedk0CJr3IGEi2eI55ebbW/WaIhzz7CggbSs1
R2pxzlUkYMy/DcuiYw3KH7suqgNOJgZL1ECbtCa/zpi3HhSyQn+X+HgalUG+mtxm
tLrUkLRlcxGyk3JBT51roo8w827u3OlgULSo5N2yx7LgrSxQ4Iuyq9ahrjzYxyvZ
glu7aBCF1LIjkfMlpDQGRH7UIOwUnVOk4sk4LsZ3FSLABO/uy8YA9xfTCcghn//T
edN3OHmTwuIQXAp1/qvfueYIBtLU4qYBIUsdHuMF+q3uoFfP8sTQFEgBEckwoFN9
AgMBAAGjggFjMIIBXzAJBgNVHRMEAjAAMC0GCWCGSAGG+EIBDQQgFh5FYXN5LVJT
QSBHZW5lcmF0ZWQgQ2VydGlmaWNhdGUwHQYDVR0OBBYEFJiOleKIz+S8i45w+Ay5
gLpcR/T7MIHhBgNVHSMEgdkwgdaAFBLNYATSoICecO3Gmbh7LMZS/RmhoYGypIGv
MIGsMQswCQYDVQQGEwJVUzELMAkGA1UECBMCT0gxETAPBgNVBAcTCENvbHVtYnVz
MRIwEAYDVQQKEwlWaWtpbmdWUE4xHTAbBgNVBAsTFE15T3JnYW5pemF0aW9uYWxV
bml0MRUwEwYDVQQDEwxWaWtpbmdWUE4gQ0ExEDAOBgNVBCkTB0Vhc3lSU0ExITAf
BgkqhkiG9w0BCQEWEm1lQG15aG9zdC5teWRvbWFpboIJAM81he6Avyo+MBMGA1Ud
JQQMMAoGCCsGAQUFBwMCMAsGA1UdDwQEAwIHgDANBgkqhkiG9w0BAQQFAAOCAgEA
aZxnbwT0FokX8YAPmU4fzi+0l/qK+epn//O1sLCBzi4ruRF51IzTROktQb8o1grQ
Jpi9O6cP/ixsfgFnq0NGrG0pA3FImbYOTCryDXE9uJGjIiShfiRLmZ2bSnDVeoM1
gPCtUOfeDAS1+4p834rCdkhY12kJ6jVQ7VsR/cLXhKYSW8k5DnIlEzBHdsdG5deW
woJZ+6xiX00G+2U09qU512n1YpJaoftYwiuwT2cC9sRcG44eoBGEQhwQNSgSUw5/
+feLwzaKls+yyx6oriwx+mHr1iGnkz6Z5ymmEPdusb/12g8HrUZAbNqU/pfTGHmV
IZtOwGvS49HQrM+ltyT5lfH5krH3auZB9Y3YbXRAtNM49Tig1URypOZQ8VaVm3MB
cf8x3pGeknnSsustYFYeDZAqDvOESHpN95J/QL1mXIWhEKPMQTZxsedApqrq2KMp
79Sn3EtMHb/M1h8wHbAQt1//31pJWq1mIAjGOrmUeO+ClvKPKexsPZ0XVu61Hpjg
Lf/6qkh7UZuVnat1kpgh9avtpqRimb8FaypnFqMcHMGKALbAh8Wa28+LJoQCuxQ4
52+3yNQ63VQkUf2+bvDKEwfZMI2ViPaUZ73D+7yyXk2CDcTbOn6y2WLi3KR6RUNW
kCWxHKZtPJ2tsnFcEkKSufPij+l4Iv+yFf6sPqqVphI=
-----END CERTIFICATE-----
