Certificate:
    Data:
        Version: 3 (0x2)
        Serial Number: 1754 (0x6da)
    Signature Algorithm: md5WithRSAEncryption
        Issuer: C=US, ST=OH, L=Columbus, O=VikingVPN, OU=MyOrganizationalUnit, CN=VikingVPN CA/name=EasyRSA/emailAddress=me@myhost.mydomain
        Validity
            Not Before: Apr 28 18:15:29 2014 GMT
            Not After : Apr 25 18:15:29 2024 GMT
        Subject: CN=Client619Cert6707f4
        Subject Public Key Info:
            Public Key Algorithm: rsaEncryption
                Public-Key: (4096 bit)
                Modulus:
                    00:b0:35:0b:ae:e0:60:7a:97:b9:92:c7:c2:a9:2f:
                    d1:ab:33:1f:1f:50:c0:8b:26:45:48:ae:b0:d3:ee:
                    66:b9:73:f1:a1:b1:43:51:39:3a:9a:91:67:a2:b9:
                    4d:3b:ed:f7:43:15:a1:6f:be:74:60:49:20:a8:75:
                    f2:67:95:43:19:6b:93:49:48:ef:73:a1:9d:ce:76:
                    13:7d:a6:c1:8a:49:fa:54:44:55:a9:85:7d:72:ff:
                    0d:50:0f:cb:7b:62:c8:93:ad:83:09:40:75:94:4e:
                    73:38:e1:a9:81:62:39:80:60:6a:a6:74:66:64:ad:
                    ea:b6:0d:9b:4b:77:92:5e:fa:7e:33:88:80:a7:12:
                    52:5c:3e:6b:62:57:48:8a:35:3b:9b:77:1b:b2:d8:
                    e9:45:fe:e0:38:46:1c:69:71:14:70:9b:22:ac:a1:
                    2b:40:fb:b0:88:be:87:4d:67:05:cd:6f:fb:cc:1c:
                    98:cd:49:0f:0c:43:c9:f4:c9:0c:09:f4:d7:66:cf:
                    ce:43:67:49:c5:29:56:ed:11:12:1e:70:27:d5:6b:
                    36:5f:e5:a6:9b:e4:3c:02:88:b6:ac:80:01:6a:1c:
                    da:67:6d:f0:b8:9d:5d:b6:6a:8b:5f:d3:eb:8e:2b:
                    46:b7:85:ca:66:8a:39:7e:d9:4e:45:51:49:2d:0f:
                    08:90:31:36:49:d7:a4:b8:b1:89:d8:bb:0c:fe:7c:
                    4d:8f:6e:00:a8:7c:db:c4:8c:b1:ab:c3:e4:34:40:
                    80:f3:94:60:71:10:7b:f5:ed:8c:cc:62:81:d2:98:
                    15:4f:06:26:01:35:90:06:86:87:b5:dd:e8:b8:8b:
                    92:78:36:10:f4:4b:24:25:e8:39:44:bd:83:6d:ce:
                    11:63:cf:9e:33:a3:7f:f7:85:c1:8a:6b:41:10:6e:
                    9e:92:6a:ca:80:d1:80:e3:6c:a0:bb:26:43:7a:98:
                    46:dc:b0:b5:44:91:65:28:9a:82:e5:6a:85:c0:ce:
                    31:a5:a9:7c:7b:c5:ce:40:5b:9a:a0:89:53:a4:f5:
                    5b:c7:a1:9b:ee:2e:8b:69:f8:38:d7:06:f8:44:ff:
                    d7:0a:7b:a3:6f:cf:80:7a:ff:2a:9e:d3:a5:c0:e0:
                    f8:94:b7:0b:bd:90:20:a0:86:75:24:12:01:06:f2:
                    77:6d:fa:35:c9:b6:f8:ef:d4:68:c9:8d:f3:e0:10:
                    c2:8e:9a:8a:49:6b:90:d9:ee:2f:be:62:da:19:cc:
                    63:a1:ff:2b:df:5c:28:55:9f:58:b3:ce:f6:77:56:
                    e1:05:de:92:a6:d9:a2:ff:b0:f3:99:a5:68:f5:5e:
                    d8:8f:85:ea:76:0d:c2:6d:62:97:bf:de:04:54:65:
                    fa:29:17
                Exponent: 65537 (0x10001)
        X509v3 extensions:
            X509v3 Basic Constraints: 
                CA:FALSE
            Netscape Comment: 
                Easy-RSA Generated Certificate
            X509v3 Subject Key Identifier: 
                4A:76:E9:B6:38:8B:B7:5C:B2:45:75:A6:91:56:5B:E1:4B:3F:BD:95
            X509v3 Authority Key Identifier: 
                keyid:12:CD:60:04:D2:A0:80:9E:70:ED:C6:99:B8:7B:2C:C6:52:FD:19:A1
                DirName:/C=US/ST=OH/L=Columbus/O=VikingVPN/OU=MyOrganizationalUnit/CN=VikingVPN CA/name=EasyRSA/emailAddress=me@myhost.mydomain
                serial:CF:35:85:EE:80:BF:2A:3E

            X509v3 Extended Key Usage: 
                TLS Web Client Authentication
            X509v3 Key Usage: 
                Digital Signature
    Signature Algorithm: md5WithRSAEncryption
         40:a2:b3:f7:48:b9:2c:a7:ca:ff:b4:94:96:a8:31:95:61:fb:
         c7:67:62:64:cf:0e:60:e9:3b:1a:29:2f:82:84:bc:1f:96:89:
         ea:2e:3f:30:2e:1a:f7:05:5a:9b:c3:0b:e6:35:6d:84:2d:4b:
         63:19:90:e5:96:11:df:64:f2:5a:e2:3b:0f:99:1d:38:5d:f9:
         72:de:d8:6a:e3:a8:8a:a5:67:a2:6e:90:d1:8e:e9:e5:0a:17:
         d7:ea:e0:48:fd:d4:1a:41:3c:8f:d2:7d:95:e7:56:59:68:de:
         f7:0e:3a:ef:75:45:f9:e3:36:d4:c2:43:0f:65:23:5e:09:8c:
         23:d3:54:75:b9:de:a3:99:28:a5:17:06:c7:8a:05:ff:7d:30:
         9b:44:88:01:f6:e9:67:3e:62:b1:28:db:db:1f:81:a1:cb:3e:
         e0:d5:81:33:22:67:45:16:16:40:5b:d9:c6:9b:2b:7b:a2:d0:
         3c:ea:10:72:c2:2b:1f:ad:a0:66:11:70:91:fa:62:a4:df:f6:
         d4:3a:57:14:b5:72:0f:0f:3d:79:2e:a0:9b:59:59:37:8e:5c:
         60:e7:6b:d1:d2:f0:7a:94:e3:56:11:fb:22:6a:3d:e7:22:24:
         42:ce:c8:26:27:1c:32:4a:61:22:f1:7b:82:96:b7:69:8d:ed:
         14:6a:dc:7a:82:33:d6:cd:90:10:b0:c0:a9:6e:07:1a:01:4f:
         17:67:28:6c:26:d6:9c:5b:09:37:05:6f:bb:72:a8:66:7f:7b:
         38:2b:d3:7c:69:20:6c:0f:74:a1:8a:d4:7e:82:43:0f:a4:c9:
         c4:c7:1e:e7:6d:5b:90:2b:fb:9f:c8:1b:89:14:2e:de:a5:f8:
         f9:07:48:2c:f1:43:7f:48:1b:15:ec:e9:ea:84:7f:72:d9:0f:
         68:0d:c0:63:6d:a6:df:d7:f3:b3:5e:30:b2:a6:a9:00:e6:bd:
         92:35:c3:5e:cd:12:85:b6:79:e5:1b:db:5f:40:a8:40:6e:3b:
         f1:58:59:12:bb:3d:9e:88:5c:b0:d0:22:b3:95:6b:08:a7:ba:
         8d:f9:13:6f:85:16:24:92:0c:6d:16:8a:5c:56:46:a4:5a:d5:
         30:54:1a:f5:da:36:12:94:52:3a:70:e8:a6:ac:85:db:a4:ba:
         1f:b4:fc:64:c3:72:48:d8:48:52:7e:02:f9:5c:35:81:da:5e:
         f2:a0:34:93:f5:38:cb:19:13:dd:d5:5c:85:5e:08:79:a4:33:
         24:c2:a0:1f:13:7f:ba:9d:70:bc:97:50:da:2d:c7:8d:d5:55:
         f7:87:60:45:88:43:7b:b1:aa:ea:bf:ee:99:d5:64:10:49:aa:
         0e:5e:2e:7d:3f:fa:5b:3e
-----BEGIN CERTIFICATE-----
MIIGrDCCBJSgAwIBAgICBtowDQYJKoZIhvcNAQEEBQAwgawxCzAJBgNVBAYTAlVT
MQswCQYDVQQIEwJPSDERMA8GA1UEBxMIQ29sdW1idXMxEjAQBgNVBAoTCVZpa2lu
Z1ZQTjEdMBsGA1UECxMUTXlPcmdhbml6YXRpb25hbFVuaXQxFTATBgNVBAMTDFZp
a2luZ1ZQTiBDQTEQMA4GA1UEKRMHRWFzeVJTQTEhMB8GCSqGSIb3DQEJARYSbWVA
bXlob3N0Lm15ZG9tYWluMB4XDTE0MDQyODE4MTUyOVoXDTI0MDQyNTE4MTUyOVow
HjEcMBoGA1UEAxMTQ2xpZW50NjE5Q2VydDY3MDdmNDCCAiIwDQYJKoZIhvcNAQEB
BQADggIPADCCAgoCggIBALA1C67gYHqXuZLHwqkv0aszHx9QwIsmRUiusNPuZrlz
8aGxQ1E5OpqRZ6K5TTvt90MVoW++dGBJIKh18meVQxlrk0lI73Ohnc52E32mwYpJ
+lREVamFfXL/DVAPy3tiyJOtgwlAdZROczjhqYFiOYBgaqZ0ZmSt6rYNm0t3kl76
fjOIgKcSUlw+a2JXSIo1O5t3G7LY6UX+4DhGHGlxFHCbIqyhK0D7sIi+h01nBc1v
+8wcmM1JDwxDyfTJDAn012bPzkNnScUpVu0REh5wJ9VrNl/lppvkPAKItqyAAWoc
2mdt8LidXbZqi1/T644rRreFymaKOX7ZTkVRSS0PCJAxNknXpLixidi7DP58TY9u
AKh828SMsavD5DRAgPOUYHEQe/XtjMxigdKYFU8GJgE1kAaGh7Xd6LiLkng2EPRL
JCXoOUS9g23OEWPPnjOjf/eFwYprQRBunpJqyoDRgONsoLsmQ3qYRtywtUSRZSia
guVqhcDOMaWpfHvFzkBbmqCJU6T1W8ehm+4ui2n4ONcG+ET/1wp7o2/PgHr/Kp7T
pcDg+JS3C72QIKCGdSQSAQbyd236Ncm2+O/UaMmN8+AQwo6aiklrkNnuL75i2hnM
Y6H/K99cKFWfWLPO9ndW4QXekqbZov+w85mlaPVe2I+F6nYNwm1il7/eBFRl+ikX
AgMBAAGjggFjMIIBXzAJBgNVHRMEAjAAMC0GCWCGSAGG+EIBDQQgFh5FYXN5LVJT
QSBHZW5lcmF0ZWQgQ2VydGlmaWNhdGUwHQYDVR0OBBYEFEp26bY4i7dcskV1ppFW
W+FLP72VMIHhBgNVHSMEgdkwgdaAFBLNYATSoICecO3Gmbh7LMZS/RmhoYGypIGv
MIGsMQswCQYDVQQGEwJVUzELMAkGA1UECBMCT0gxETAPBgNVBAcTCENvbHVtYnVz
MRIwEAYDVQQKEwlWaWtpbmdWUE4xHTAbBgNVBAsTFE15T3JnYW5pemF0aW9uYWxV
bml0MRUwEwYDVQQDEwxWaWtpbmdWUE4gQ0ExEDAOBgNVBCkTB0Vhc3lSU0ExITAf
BgkqhkiG9w0BCQEWEm1lQG15aG9zdC5teWRvbWFpboIJAM81he6Avyo+MBMGA1Ud
JQQMMAoGCCsGAQUFBwMCMAsGA1UdDwQEAwIHgDANBgkqhkiG9w0BAQQFAAOCAgEA
QKKz90i5LKfK/7SUlqgxlWH7x2diZM8OYOk7GikvgoS8H5aJ6i4/MC4a9wVam8ML
5jVthC1LYxmQ5ZYR32TyWuI7D5kdOF35ct7YauOoiqVnom6Q0Y7p5QoX1+rgSP3U
GkE8j9J9ledWWWje9w4673VF+eM21MJDD2UjXgmMI9NUdbneo5kopRcGx4oF/30w
m0SIAfbpZz5isSjb2x+Bocs+4NWBMyJnRRYWQFvZxpsre6LQPOoQcsIrH62gZhFw
kfpipN/21DpXFLVyDw89eS6gm1lZN45cYOdr0dLwepTjVhH7Imo95yIkQs7IJicc
MkphIvF7gpa3aY3tFGrceoIz1s2QELDAqW4HGgFPF2cobCbWnFsJNwVvu3KoZn97
OCvTfGkgbA90oYrUfoJDD6TJxMce521bkCv7n8gbiRQu3qX4+QdILPFDf0gbFezp
6oR/ctkPaA3AY22m39fzs14wsqapAOa9kjXDXs0ShbZ55RvbX0CoQG478VhZErs9
nohcsNAis5VrCKe6jfkTb4UWJJIMbRaKXFZGpFrVMFQa9do2EpRSOnDopqyF26S6
H7T8ZMNySNhIUn4C+Vw1gdpe8qA0k/U4yxkT3dVchV4IeaQzJMKgHxN/up1wvJdQ
2i3HjdVV94dgRYhDe7Gq6r/umdVkEEmqDl4ufT/6Wz4=
-----END CERTIFICATE-----
