Certificate:
    Data:
        Version: 3 (0x2)
        Serial Number: 1756 (0x6dc)
    Signature Algorithm: md5WithRSAEncryption
        Issuer: C=US, ST=OH, L=Columbus, O=VikingVPN, OU=MyOrganizationalUnit, CN=VikingVPN CA/name=EasyRSA/emailAddress=me@myhost.mydomain
        Validity
            Not Before: Apr 28 19:44:21 2014 GMT
            Not After : Apr 25 19:44:21 2024 GMT
        Subject: CN=Client615Cert21ea3a
        Subject Public Key Info:
            Public Key Algorithm: rsaEncryption
                Public-Key: (4096 bit)
                Modulus:
                    00:bf:55:94:dc:06:5b:8a:3f:60:ca:96:05:2b:9d:
                    11:f0:6b:30:f6:fa:cf:e7:da:ed:4d:96:df:c2:3e:
                    bb:f6:1b:71:a8:f2:5c:df:8f:49:6a:17:36:26:af:
                    b8:9f:3a:dd:0a:e0:34:36:c3:9c:88:ca:04:6d:52:
                    9c:ac:4f:c6:10:d3:a2:4b:f3:a0:11:2a:a6:3b:7e:
                    17:3a:ed:c3:84:82:d8:7a:95:00:b3:f3:82:9d:2d:
                    5d:5e:32:3d:f6:39:82:8c:a3:a2:f9:66:19:f3:d8:
                    b9:91:47:a2:7a:28:46:a4:59:f8:c1:63:25:c3:09:
                    de:1a:ac:b6:bc:1f:55:b1:82:d8:49:87:4c:a7:7d:
                    89:10:ad:83:2a:9b:66:20:4b:62:51:4e:a4:f5:51:
                    f7:92:a8:66:7d:ee:5b:ea:02:35:c6:94:5d:90:61:
                    17:7f:78:b9:ff:8f:a9:e5:e6:6d:0e:d7:bb:74:1f:
                    60:eb:98:59:5d:3d:8f:52:e4:8d:b8:2b:9d:ff:99:
                    5d:97:31:91:a5:35:cb:dc:18:0d:37:c4:33:d2:02:
                    7b:46:ad:87:3d:84:48:ca:61:5f:a8:a4:57:d5:9d:
                    f3:8e:d4:b7:61:f2:59:22:a7:83:a9:36:c1:72:13:
                    97:08:94:66:ae:6e:ec:e5:91:22:c2:2e:e6:9f:6b:
                    6f:ae:c8:d5:4e:fd:4e:f0:80:99:e8:4e:65:26:1a:
                    69:7c:4d:c3:4a:64:01:84:4c:41:b0:4c:8b:b7:f3:
                    db:8e:f4:ff:d1:5b:bd:24:4b:a2:0c:a9:2a:1a:0c:
                    93:64:f2:ed:76:c6:b2:eb:11:dc:8a:5d:b1:1c:76:
                    73:20:aa:d7:23:a2:f5:13:ec:a2:ff:1b:a5:35:a6:
                    d9:3b:ea:2a:10:18:52:d6:0f:08:db:de:e2:0d:c9:
                    3b:61:a1:a7:a2:1c:e5:e6:02:07:fb:0c:d9:cf:34:
                    f1:78:99:9f:72:62:9b:8d:83:46:24:ad:cf:9a:b2:
                    f3:43:6a:07:0a:65:e4:6e:7f:49:e9:60:12:61:2d:
                    f8:d7:85:9a:71:aa:fd:04:28:63:20:30:02:46:ad:
                    83:1f:cd:0b:aa:bc:24:75:a2:9e:0e:1d:a3:46:8b:
                    29:e4:92:db:51:c7:dd:d3:20:eb:2c:e5:9e:27:e3:
                    b8:f5:3e:05:86:2f:5c:1b:2a:ed:a8:b8:a3:19:82:
                    17:0a:91:f1:bb:c3:7a:6a:a9:1b:88:39:fc:07:63:
                    30:d3:27:be:51:80:db:02:46:16:dc:db:e0:87:8f:
                    53:34:41:0d:06:e5:a3:88:c0:56:64:ed:62:22:70:
                    67:71:c0:74:59:13:bb:fb:94:b4:91:6c:05:a7:0a:
                    c5:ea:13
                Exponent: 65537 (0x10001)
        X509v3 extensions:
            X509v3 Basic Constraints: 
                CA:FALSE
            Netscape Comment: 
                Easy-RSA Generated Certificate
            X509v3 Subject Key Identifier: 
                EA:83:52:57:51:9F:A5:35:E3:DD:FE:83:66:AB:B7:35:92:AC:A9:53
            X509v3 Authority Key Identifier: 
                keyid:12:CD:60:04:D2:A0:80:9E:70:ED:C6:99:B8:7B:2C:C6:52:FD:19:A1
                DirName:/C=US/ST=OH/L=Columbus/O=VikingVPN/OU=MyOrganizationalUnit/CN=VikingVPN CA/name=EasyRSA/emailAddress=me@myhost.mydomain
                serial:CF:35:85:EE:80:BF:2A:3E

            X509v3 Extended Key Usage: 
                TLS Web Client Authentication
            X509v3 Key Usage: 
                Digital Signature
    Signature Algorithm: md5WithRSAEncryption
         3c:70:39:91:4d:66:3d:38:f4:51:12:a8:77:da:b5:0a:44:c7:
         f3:70:ce:5f:00:06:d6:8e:97:46:da:96:06:00:83:95:37:f9:
         1c:5e:13:4a:8d:62:2c:22:bd:9c:51:f4:27:8b:54:24:c1:35:
         84:bc:81:18:e1:8f:91:5d:37:a5:81:ab:a6:60:fe:80:38:94:
         61:2d:a4:02:b0:38:3d:d1:3e:32:7c:07:7a:6d:e5:5e:99:98:
         5b:d4:92:b6:07:5d:86:82:af:cd:45:85:fc:0d:4b:6d:63:7c:
         b6:ce:af:24:95:0f:41:c0:5b:4f:8e:00:0d:61:32:f9:c1:d3:
         82:d5:31:a3:9a:e0:25:aa:a0:2f:2e:2d:47:a5:e5:84:aa:15:
         ae:f3:8f:1a:76:75:0c:9c:15:0b:47:d5:e9:78:32:28:bf:e6:
         1d:61:10:79:24:57:56:cf:e5:02:37:00:66:85:22:1c:a4:26:
         5c:fe:5e:9f:bd:df:7f:ca:4e:15:f6:50:b6:b2:32:b2:59:13:
         6c:ef:a1:9a:3d:68:7f:a6:ab:7c:f5:67:09:d7:77:bb:ef:aa:
         2d:d6:46:c6:68:fb:50:cb:5a:c8:a7:2a:b9:69:dd:cc:b4:45:
         b8:b2:31:8f:4e:ac:a3:05:1c:1b:4b:19:2b:4e:32:be:2a:47:
         4d:c8:7c:c4:a8:6f:eb:71:4e:da:7d:78:93:ce:84:f0:d8:31:
         fd:19:f7:6e:0c:ac:a0:85:96:89:18:d1:e9:ee:4c:1c:44:2e:
         f1:34:fb:d6:65:af:c4:66:01:f0:46:f2:85:60:e1:0b:b5:3c:
         76:e8:1d:c8:dc:c0:a1:12:bd:b6:5f:71:d3:e4:d8:58:b8:83:
         ba:b5:d6:5e:df:08:fb:6b:e7:4b:98:89:c2:89:4d:31:d9:e5:
         83:26:9d:ec:69:c5:3c:4c:8a:29:a0:8f:b4:31:29:36:97:c3:
         93:9f:06:94:ef:4b:2a:a7:dc:92:d1:06:fa:e6:fe:57:74:23:
         88:42:1e:b3:1b:65:f8:35:16:83:2d:ef:ac:fd:f7:a8:e6:9e:
         9d:29:39:bc:bc:95:5b:f9:57:32:46:17:eb:57:56:c8:f0:44:
         cb:14:09:3e:87:a9:1f:31:47:2f:b3:98:53:1b:b3:d9:5a:f4:
         9c:b8:dd:31:ca:bd:96:9b:6d:9f:ee:87:40:a4:2b:70:6a:f3:
         25:89:8d:07:15:40:50:09:84:ea:77:32:ef:ac:10:28:6d:a2:
         67:b3:25:69:d2:e0:a0:19:5e:5e:9d:2b:35:4d:4b:d2:87:f6:
         7f:b5:f2:5e:33:55:a4:ef:d9:aa:2e:a8:1d:b7:21:fa:18:83:
         7a:d3:50:c5:98:f5:59:c6
-----BEGIN CERTIFICATE-----
MIIGrDCCBJSgAwIBAgICBtwwDQYJKoZIhvcNAQEEBQAwgawxCzAJBgNVBAYTAlVT
MQswCQYDVQQIEwJPSDERMA8GA1UEBxMIQ29sdW1idXMxEjAQBgNVBAoTCVZpa2lu
Z1ZQTjEdMBsGA1UECxMUTXlPcmdhbml6YXRpb25hbFVuaXQxFTATBgNVBAMTDFZp
a2luZ1ZQTiBDQTEQMA4GA1UEKRMHRWFzeVJTQTEhMB8GCSqGSIb3DQEJARYSbWVA
bXlob3N0Lm15ZG9tYWluMB4XDTE0MDQyODE5NDQyMVoXDTI0MDQyNTE5NDQyMVow
HjEcMBoGA1UEAxMTQ2xpZW50NjE1Q2VydDIxZWEzYTCCAiIwDQYJKoZIhvcNAQEB
BQADggIPADCCAgoCggIBAL9VlNwGW4o/YMqWBSudEfBrMPb6z+fa7U2W38I+u/Yb
cajyXN+PSWoXNiavuJ863QrgNDbDnIjKBG1SnKxPxhDTokvzoBEqpjt+Fzrtw4SC
2HqVALPzgp0tXV4yPfY5goyjovlmGfPYuZFHonooRqRZ+MFjJcMJ3hqstrwfVbGC
2EmHTKd9iRCtgyqbZiBLYlFOpPVR95KoZn3uW+oCNcaUXZBhF394uf+PqeXmbQ7X
u3QfYOuYWV09j1Lkjbgrnf+ZXZcxkaU1y9wYDTfEM9ICe0athz2ESMphX6ikV9Wd
847Ut2HyWSKng6k2wXITlwiUZq5u7OWRIsIu5p9rb67I1U79TvCAmehOZSYaaXxN
w0pkAYRMQbBMi7fz2470/9FbvSRLogypKhoMk2Ty7XbGsusR3IpdsRx2cyCq1yOi
9RPsov8bpTWm2TvqKhAYUtYPCNve4g3JO2Ghp6Ic5eYCB/sM2c808XiZn3Jim42D
RiStz5qy80NqBwpl5G5/SelgEmEt+NeFmnGq/QQoYyAwAkatgx/NC6q8JHWing4d
o0aLKeSS21HH3dMg6yzlnifjuPU+BYYvXBsq7ai4oxmCFwqR8bvDemqpG4g5/Adj
MNMnvlGA2wJGFtzb4IePUzRBDQblo4jAVmTtYiJwZ3HAdFkTu/uUtJFsBacKxeoT
AgMBAAGjggFjMIIBXzAJBgNVHRMEAjAAMC0GCWCGSAGG+EIBDQQgFh5FYXN5LVJT
QSBHZW5lcmF0ZWQgQ2VydGlmaWNhdGUwHQYDVR0OBBYEFOqDUldRn6U1493+g2ar
tzWSrKlTMIHhBgNVHSMEgdkwgdaAFBLNYATSoICecO3Gmbh7LMZS/RmhoYGypIGv
MIGsMQswCQYDVQQGEwJVUzELMAkGA1UECBMCT0gxETAPBgNVBAcTCENvbHVtYnVz
MRIwEAYDVQQKEwlWaWtpbmdWUE4xHTAbBgNVBAsTFE15T3JnYW5pemF0aW9uYWxV
bml0MRUwEwYDVQQDEwxWaWtpbmdWUE4gQ0ExEDAOBgNVBCkTB0Vhc3lSU0ExITAf
BgkqhkiG9w0BCQEWEm1lQG15aG9zdC5teWRvbWFpboIJAM81he6Avyo+MBMGA1Ud
JQQMMAoGCCsGAQUFBwMCMAsGA1UdDwQEAwIHgDANBgkqhkiG9w0BAQQFAAOCAgEA
PHA5kU1mPTj0URKod9q1CkTH83DOXwAG1o6XRtqWBgCDlTf5HF4TSo1iLCK9nFH0
J4tUJME1hLyBGOGPkV03pYGrpmD+gDiUYS2kArA4PdE+MnwHem3lXpmYW9SStgdd
hoKvzUWF/A1LbWN8ts6vJJUPQcBbT44ADWEy+cHTgtUxo5rgJaqgLy4tR6XlhKoV
rvOPGnZ1DJwVC0fV6XgyKL/mHWEQeSRXVs/lAjcAZoUiHKQmXP5en73ff8pOFfZQ
trIyslkTbO+hmj1of6arfPVnCdd3u++qLdZGxmj7UMtayKcquWndzLRFuLIxj06s
owUcG0sZK04yvipHTch8xKhv63FO2n14k86E8Ngx/Rn3bgysoIWWiRjR6e5MHEQu
8TT71mWvxGYB8EbyhWDhC7U8dugdyNzAoRK9tl9x0+TYWLiDurXWXt8I+2vnS5iJ
wolNMdnlgyad7GnFPEyKKaCPtDEpNpfDk58GlO9LKqfcktEG+ub+V3QjiEIesxtl
+DUWgy3vrP33qOaenSk5vLyVW/lXMkYX61dWyPBEyxQJPoepHzFHL7OYUxuz2Vr0
nLjdMcq9lpttn+6HQKQrcGrzJYmNBxVAUAmE6ncy76wQKG2iZ7MladLgoBleXp0r
NU1L0of2f7XyXjNVpO/Zqi6oHbch+hiDetNQxZj1WcY=
-----END CERTIFICATE-----
