Certificate:
    Data:
        Version: 3 (0x2)
        Serial Number: 1761 (0x6e1)
    Signature Algorithm: md5WithRSAEncryption
        Issuer: C=US, ST=OH, L=Columbus, O=VikingVPN, OU=MyOrganizationalUnit, CN=VikingVPN CA/name=EasyRSA/emailAddress=me@myhost.mydomain
        Validity
            Not Before: Apr 29 07:36:16 2014 GMT
            Not After : Apr 26 07:36:16 2024 GMT
        Subject: CN=Client619Cert846a04
        Subject Public Key Info:
            Public Key Algorithm: rsaEncryption
                Public-Key: (4096 bit)
                Modulus:
                    00:f6:e6:05:ee:e9:d8:34:10:0f:24:d9:40:a2:1f:
                    9d:ea:f8:dd:3e:25:a1:cf:cc:7c:e2:fe:3e:dc:76:
                    56:b6:71:88:59:12:68:ce:3c:f5:63:6a:44:09:44:
                    ee:d0:97:fe:aa:d9:c9:3b:50:0f:37:d0:ac:79:80:
                    a0:26:a4:78:2d:3c:7d:20:8e:4f:b1:5d:b5:e8:31:
                    c0:b4:c3:41:93:fd:3d:59:69:86:e7:3b:15:99:e9:
                    6c:89:0d:e3:e9:47:7c:30:3c:8d:e0:31:94:37:6b:
                    d6:0e:47:6e:14:95:b3:12:39:21:e6:c2:ff:19:f2:
                    c5:78:52:01:0c:f2:99:90:ab:55:02:0f:24:24:2f:
                    fa:52:f1:24:5a:ff:c7:9b:30:42:e7:0a:14:25:86:
                    42:8e:21:9c:d3:c9:f8:ba:db:8b:6d:fc:96:68:d8:
                    4e:8b:5a:ae:73:98:98:c4:7f:ad:f2:f9:33:6e:ca:
                    f2:26:d6:a8:3b:f1:40:5b:68:61:27:5b:bd:52:f0:
                    e1:6f:44:ad:da:72:c9:fd:dd:5a:d4:0d:5f:fd:6c:
                    34:18:80:a6:9b:cc:88:ee:6d:b4:55:86:a7:53:f8:
                    48:57:99:c2:a6:d6:a9:65:ee:7f:f3:ac:19:e2:0c:
                    27:ec:3f:85:1a:2a:b5:b4:08:7f:be:ec:b6:eb:33:
                    1f:36:c1:b2:0b:0e:39:b3:66:cb:03:75:e1:85:2b:
                    05:0d:08:64:99:62:a3:67:ef:b8:b7:ee:bc:90:a2:
                    8a:c7:5c:ee:03:a2:f9:30:86:f0:c1:6e:8e:b3:03:
                    76:ba:73:83:a3:e9:86:33:5a:19:9c:49:3f:b8:e6:
                    88:3d:99:a4:83:46:0a:ad:d3:04:12:d2:bc:40:53:
                    c6:0d:7f:43:f6:07:fc:f6:a7:98:b8:86:5b:4a:5b:
                    ed:ef:6f:fd:79:32:ae:87:f4:0a:11:08:70:c0:7c:
                    fc:26:89:f8:1a:d2:e5:8c:24:12:2b:b1:3e:e6:24:
                    61:2b:9b:be:60:0c:87:af:53:66:b1:43:8f:7d:19:
                    25:a6:07:5e:16:49:11:c0:ea:f9:09:69:c9:61:87:
                    38:43:df:69:29:cf:38:c2:2a:66:39:06:1b:67:91:
                    2f:07:0f:22:2a:f6:dc:89:0e:eb:63:25:85:67:3f:
                    a2:4a:35:77:44:f4:dc:18:43:34:a4:f6:fb:f1:29:
                    b4:bc:42:68:54:5a:e1:5c:08:8e:58:d1:21:a1:dc:
                    30:57:15:41:00:1b:8d:1b:a2:80:d0:ba:b7:b7:95:
                    16:6d:2e:52:1a:a3:3d:af:e5:fb:6a:cd:d6:7e:da:
                    38:76:48:b2:1a:e3:a2:52:37:89:d7:40:46:bc:90:
                    3a:40:0d
                Exponent: 65537 (0x10001)
        X509v3 extensions:
            X509v3 Basic Constraints: 
                CA:FALSE
            Netscape Comment: 
                Easy-RSA Generated Certificate
            X509v3 Subject Key Identifier: 
                90:C7:17:FE:DB:8F:E5:59:62:26:51:07:FC:AA:3C:26:F0:EA:3F:9F
            X509v3 Authority Key Identifier: 
                keyid:12:CD:60:04:D2:A0:80:9E:70:ED:C6:99:B8:7B:2C:C6:52:FD:19:A1
                DirName:/C=US/ST=OH/L=Columbus/O=VikingVPN/OU=MyOrganizationalUnit/CN=VikingVPN CA/name=EasyRSA/emailAddress=me@myhost.mydomain
                serial:CF:35:85:EE:80:BF:2A:3E

            X509v3 Extended Key Usage: 
                TLS Web Client Authentication
            X509v3 Key Usage: 
                Digital Signature
    Signature Algorithm: md5WithRSAEncryption
         70:9d:b3:16:54:a6:a2:9f:6a:5d:fd:d5:5f:5e:12:fd:26:fd:
         89:55:d4:c1:20:60:e8:4d:9d:e9:7f:40:8a:b2:36:18:63:72:
         2a:90:da:97:fb:6f:29:0c:1d:9e:2c:b5:07:ff:d5:ee:f4:5b:
         0d:3b:1e:6f:3b:8d:71:d9:aa:f5:c0:29:a7:ee:7e:42:29:69:
         fb:6c:b7:5a:42:99:a0:8d:e7:3b:e0:9a:78:3c:d3:32:c6:b2:
         62:1c:d0:17:af:a9:ce:75:ad:07:46:24:be:7d:f3:0a:4e:6e:
         01:e3:7f:19:76:3e:a9:57:67:1c:4d:ab:1b:06:d1:f0:07:8c:
         e9:73:00:86:94:88:c8:d2:e4:f0:d2:b1:56:1d:9e:22:6a:77:
         03:da:0b:d0:f4:1c:80:9e:2a:78:e9:54:af:20:2b:95:42:b2:
         20:96:6e:ba:27:bc:89:ae:e4:12:b7:34:f4:bf:9d:b0:57:1c:
         83:b9:69:11:a4:84:c0:87:eb:6a:e5:8e:41:83:23:a2:ae:fc:
         86:3b:3b:bd:3c:92:fe:bb:6c:ce:07:b0:ce:da:fa:09:c2:3e:
         af:1c:8e:d0:e7:08:ef:b7:21:a0:ea:e6:ee:14:99:b9:39:46:
         3c:9e:86:79:be:e7:9e:95:40:ea:ec:25:51:76:26:a2:4a:bc:
         c1:e7:5f:58:3e:8a:2f:89:0d:31:c6:22:19:02:29:0e:9c:32:
         09:e8:ea:8c:de:04:18:a3:41:60:ef:57:f4:e7:6d:da:5f:7c:
         c7:c3:6f:33:50:16:77:4f:7b:57:41:e8:e7:ed:b1:80:a1:79:
         b4:99:a1:8b:9e:3c:2b:83:d0:78:82:03:f9:9e:2c:02:d2:37:
         bd:61:07:b0:f4:70:25:93:90:07:7d:d5:f1:02:46:9d:6a:01:
         9a:46:38:af:42:d5:5e:78:59:ef:7a:e3:62:94:1b:e5:2b:40:
         0a:4f:a5:96:b6:7c:07:98:3e:76:5c:43:93:b8:47:8c:26:92:
         44:c7:e0:12:70:7f:08:83:13:ce:a4:c3:80:96:da:0b:3c:07:
         06:fc:79:19:81:fe:4c:86:b1:28:36:f7:42:8b:e3:1e:d2:bc:
         ba:32:c8:35:3e:39:59:69:25:1f:b6:cd:71:73:45:9a:47:86:
         d0:0a:8f:3a:7b:76:81:aa:4f:c7:bd:06:cf:f1:87:6c:89:5a:
         d8:c3:e8:4e:92:02:53:9b:3c:5b:74:56:bc:80:5c:fc:8f:a8:
         c2:31:d5:b3:0f:32:3c:8f:9e:f9:3a:62:03:51:aa:7e:bb:12:
         af:57:35:4e:01:8a:f7:09:cd:bb:08:6d:4d:98:97:c8:6a:ee:
         f3:cd:52:e5:e6:aa:f2:5b
-----BEGIN CERTIFICATE-----
MIIGrDCCBJSgAwIBAgICBuEwDQYJKoZIhvcNAQEEBQAwgawxCzAJBgNVBAYTAlVT
MQswCQYDVQQIEwJPSDERMA8GA1UEBxMIQ29sdW1idXMxEjAQBgNVBAoTCVZpa2lu
Z1ZQTjEdMBsGA1UECxMUTXlPcmdhbml6YXRpb25hbFVuaXQxFTATBgNVBAMTDFZp
a2luZ1ZQTiBDQTEQMA4GA1UEKRMHRWFzeVJTQTEhMB8GCSqGSIb3DQEJARYSbWVA
bXlob3N0Lm15ZG9tYWluMB4XDTE0MDQyOTA3MzYxNloXDTI0MDQyNjA3MzYxNlow
HjEcMBoGA1UEAxMTQ2xpZW50NjE5Q2VydDg0NmEwNDCCAiIwDQYJKoZIhvcNAQEB
BQADggIPADCCAgoCggIBAPbmBe7p2DQQDyTZQKIfner43T4loc/MfOL+Ptx2VrZx
iFkSaM489WNqRAlE7tCX/qrZyTtQDzfQrHmAoCakeC08fSCOT7FdtegxwLTDQZP9
PVlphuc7FZnpbIkN4+lHfDA8jeAxlDdr1g5HbhSVsxI5IebC/xnyxXhSAQzymZCr
VQIPJCQv+lLxJFr/x5swQucKFCWGQo4hnNPJ+Lrbi238lmjYTotarnOYmMR/rfL5
M27K8ibWqDvxQFtoYSdbvVLw4W9Erdpyyf3dWtQNX/1sNBiAppvMiO5ttFWGp1P4
SFeZwqbWqWXuf/OsGeIMJ+w/hRoqtbQIf77stuszHzbBsgsOObNmywN14YUrBQ0I
ZJlio2fvuLfuvJCiisdc7gOi+TCG8MFujrMDdrpzg6PphjNaGZxJP7jmiD2ZpING
Cq3TBBLSvEBTxg1/Q/YH/PanmLiGW0pb7e9v/Xkyrof0ChEIcMB8/CaJ+BrS5Ywk
EiuxPuYkYSubvmAMh69TZrFDj30ZJaYHXhZJEcDq+QlpyWGHOEPfaSnPOMIqZjkG
G2eRLwcPIir23IkO62MlhWc/oko1d0T03BhDNKT2+/EptLxCaFRa4VwIjljRIaHc
MFcVQQAbjRuigNC6t7eVFm0uUhqjPa/l+2rN1n7aOHZIshrjolI3iddARryQOkAN
AgMBAAGjggFjMIIBXzAJBgNVHRMEAjAAMC0GCWCGSAGG+EIBDQQgFh5FYXN5LVJT
QSBHZW5lcmF0ZWQgQ2VydGlmaWNhdGUwHQYDVR0OBBYEFJDHF/7bj+VZYiZRB/yq
PCbw6j+fMIHhBgNVHSMEgdkwgdaAFBLNYATSoICecO3Gmbh7LMZS/RmhoYGypIGv
MIGsMQswCQYDVQQGEwJVUzELMAkGA1UECBMCT0gxETAPBgNVBAcTCENvbHVtYnVz
MRIwEAYDVQQKEwlWaWtpbmdWUE4xHTAbBgNVBAsTFE15T3JnYW5pemF0aW9uYWxV
bml0MRUwEwYDVQQDEwxWaWtpbmdWUE4gQ0ExEDAOBgNVBCkTB0Vhc3lSU0ExITAf
BgkqhkiG9w0BCQEWEm1lQG15aG9zdC5teWRvbWFpboIJAM81he6Avyo+MBMGA1Ud
JQQMMAoGCCsGAQUFBwMCMAsGA1UdDwQEAwIHgDANBgkqhkiG9w0BAQQFAAOCAgEA
cJ2zFlSmop9qXf3VX14S/Sb9iVXUwSBg6E2d6X9AirI2GGNyKpDal/tvKQwdniy1
B//V7vRbDTsebzuNcdmq9cApp+5+Qilp+2y3WkKZoI3nO+CaeDzTMsayYhzQF6+p
znWtB0Ykvn3zCk5uAeN/GXY+qVdnHE2rGwbR8AeM6XMAhpSIyNLk8NKxVh2eImp3
A9oL0PQcgJ4qeOlUryArlUKyIJZuuie8ia7kErc09L+dsFccg7lpEaSEwIfrauWO
QYMjoq78hjs7vTyS/rtszgewztr6CcI+rxyO0OcI77choOrm7hSZuTlGPJ6Geb7n
npVA6uwlUXYmokq8wedfWD6KL4kNMcYiGQIpDpwyCejqjN4EGKNBYO9X9Odt2l98
x8NvM1AWd097V0Ho5+2xgKF5tJmhi548K4PQeIID+Z4sAtI3vWEHsPRwJZOQB33V
8QJGnWoBmkY4r0LVXnhZ73rjYpQb5StACk+llrZ8B5g+dlxDk7hHjCaSRMfgEnB/
CIMTzqTDgJbaCzwHBvx5GYH+TIaxKDb3QovjHtK8ujLINT45WWklH7bNcXNFmkeG
0AqPOnt2gapPx70Gz/GHbIla2MPoTpICU5s8W3RWvIBc/I+owjHVsw8yPI+e+Tpi
A1GqfrsSr1c1TgGK9wnNuwhtTZiXyGru881S5eaq8ls=
-----END CERTIFICATE-----
