Certificate:
    Data:
        Version: 3 (0x2)
        Serial Number: 1771 (0x6eb)
    Signature Algorithm: md5WithRSAEncryption
        Issuer: C=US, ST=OH, L=Columbus, O=VikingVPN, OU=MyOrganizationalUnit, CN=VikingVPN CA/name=EasyRSA/emailAddress=me@myhost.mydomain
        Validity
            Not Before: Apr 30 04:44:22 2014 GMT
            Not After : Apr 27 04:44:22 2024 GMT
        Subject: CN=Client622Cert4fd02a
        Subject Public Key Info:
            Public Key Algorithm: rsaEncryption
                Public-Key: (4096 bit)
                Modulus:
                    00:b1:f2:da:e1:63:45:0d:ee:cb:6e:53:b4:7a:b9:
                    4b:3d:7b:4d:5c:08:97:f0:86:16:de:09:9b:9e:90:
                    2d:39:5f:72:ee:67:3c:a3:ea:c8:c4:f4:de:51:98:
                    77:63:d5:79:db:b4:88:15:7c:f7:80:76:1d:22:2b:
                    3a:d9:f6:77:e8:13:e2:de:a5:ce:62:10:83:e5:b2:
                    77:4f:55:cf:a6:7a:38:64:d9:f4:0a:8a:f7:18:f2:
                    ac:b4:65:73:e5:02:76:c5:83:49:f6:16:c4:97:62:
                    3e:78:0f:d4:75:0a:d7:84:e7:1b:b5:f4:28:c4:29:
                    00:5a:53:87:ed:10:73:da:ef:d8:ce:48:fe:25:1a:
                    32:74:50:12:d6:62:c9:b7:0c:bd:e7:a2:49:43:48:
                    19:ba:1a:3e:6b:9d:ed:4e:0f:0d:f2:47:b5:29:10:
                    ba:6f:01:c6:08:7f:cd:27:29:ef:59:76:1c:3d:c4:
                    84:5c:40:a4:82:e7:3c:f6:80:ac:b1:f9:08:7f:93:
                    a7:7c:27:62:51:24:42:68:78:55:34:3a:27:05:07:
                    9a:78:a6:08:33:ab:d1:6c:bf:02:0d:6a:b9:dc:ba:
                    22:ca:c6:d9:18:fc:7a:f4:b6:08:b8:ad:d8:b0:4d:
                    b1:eb:ba:48:8e:cd:6d:54:74:40:94:c1:09:f3:71:
                    16:98:91:dc:40:bd:fc:de:86:53:75:59:2f:35:14:
                    90:b0:2f:01:f7:ce:89:44:d9:9b:42:a4:82:1c:a9:
                    7c:54:0d:4d:b3:0e:f4:4d:12:b0:20:4d:12:3c:c2:
                    5b:e4:dc:6b:55:44:f8:b1:20:c5:89:03:41:cd:41:
                    89:3f:8a:99:6b:06:59:3b:e3:99:db:34:16:d3:20:
                    82:29:d0:a4:e4:3c:0a:cf:f2:65:88:af:09:65:1b:
                    ac:6f:51:03:b4:59:27:e2:b8:58:2c:16:8e:f5:43:
                    ce:74:5e:8f:98:8e:08:23:e9:b3:eb:a1:86:64:1f:
                    89:0d:1a:5f:81:0d:b1:6c:0b:22:58:f8:29:3e:15:
                    12:56:18:1f:e4:75:8f:db:43:e5:8d:01:4e:11:70:
                    1d:b0:f7:1f:07:d3:3f:09:72:97:fb:eb:02:f6:bb:
                    cc:76:9b:20:11:91:46:1f:62:c6:33:c0:e8:88:02:
                    e2:e6:51:03:9e:f8:d6:0c:d4:fe:43:12:f0:49:53:
                    f9:e9:14:9a:ac:1e:68:86:fe:44:fb:5b:e5:c7:fc:
                    6a:dc:6f:fd:b3:c1:b3:83:8f:b1:11:6e:0e:f3:7c:
                    37:60:01:15:6a:e6:ba:6e:0e:75:b4:34:04:3f:01:
                    4e:33:9c:36:8d:d9:6b:5b:fe:ba:38:b1:01:6f:fe:
                    15:56:cd
                Exponent: 65537 (0x10001)
        X509v3 extensions:
            X509v3 Basic Constraints: 
                CA:FALSE
            Netscape Comment: 
                Easy-RSA Generated Certificate
            X509v3 Subject Key Identifier: 
                8D:AD:7C:15:EF:71:D5:E2:DE:21:A1:EE:FB:82:D7:A0:B1:EC:0C:A4
            X509v3 Authority Key Identifier: 
                keyid:12:CD:60:04:D2:A0:80:9E:70:ED:C6:99:B8:7B:2C:C6:52:FD:19:A1
                DirName:/C=US/ST=OH/L=Columbus/O=VikingVPN/OU=MyOrganizationalUnit/CN=VikingVPN CA/name=EasyRSA/emailAddress=me@myhost.mydomain
                serial:CF:35:85:EE:80:BF:2A:3E

            X509v3 Extended Key Usage: 
                TLS Web Client Authentication
            X509v3 Key Usage: 
                Digital Signature
    Signature Algorithm: md5WithRSAEncryption
         9b:84:80:4e:b3:9e:23:6e:db:56:e6:eb:d5:34:f1:20:23:85:
         c5:92:e3:18:7b:c4:36:97:51:98:bc:44:80:47:1f:6e:6c:86:
         e1:65:58:ac:cf:1c:2e:fc:48:55:5e:6b:0a:d3:12:bd:12:80:
         a0:dd:24:23:5a:6c:ee:5c:be:32:d8:f5:a9:14:78:73:e3:c3:
         60:43:ae:e8:05:d4:29:1b:f4:f1:10:ff:9a:13:90:04:9c:de:
         b8:68:e6:68:9c:bc:00:a9:a5:66:a1:5c:70:84:e8:52:96:2c:
         d6:70:6e:21:47:6c:f5:31:97:9c:b2:14:da:ff:64:40:46:0c:
         f2:4b:55:af:ec:bb:ae:e5:28:9e:8c:c2:49:56:ce:96:22:52:
         90:73:e4:21:20:0a:e0:0d:e7:1f:63:bd:da:a2:8d:59:14:d8:
         41:a5:cc:77:29:c2:dc:fd:7f:8a:58:44:8a:21:b4:96:47:8e:
         25:12:53:b0:96:8d:2c:b3:4d:b7:0f:96:93:7e:9e:d1:08:fa:
         6d:fb:95:77:f0:9c:e6:fe:00:45:7a:f3:9b:f8:e7:ff:4a:3c:
         ca:d5:4a:1c:82:ae:39:3b:42:db:b9:3c:1c:5b:1f:21:b8:42:
         3c:88:f6:c8:4d:bf:2f:83:21:83:0a:bf:b0:e9:2d:ef:df:61:
         17:42:72:db:1d:78:37:36:f1:e3:cb:03:f1:ff:af:ec:04:d2:
         07:4d:ee:90:be:67:b3:e1:36:11:48:c9:eb:26:7f:ff:9c:60:
         5f:e4:59:d7:d9:9f:70:52:28:35:e0:93:27:42:91:66:d7:8c:
         93:6f:3f:8f:d2:21:ab:ac:f1:c8:cf:c5:fd:47:62:28:6c:cc:
         25:d3:46:ea:1a:53:39:8e:74:74:e3:69:1d:3a:7c:60:26:b0:
         f2:ba:4b:de:a1:b2:2d:12:2e:a1:9e:38:25:30:8d:26:8c:0d:
         d5:70:a8:2d:c7:81:cf:ec:a5:13:e8:78:b9:2e:c2:9e:1c:f6:
         94:ec:24:3c:8d:a3:5a:27:29:ee:4f:52:f6:03:e1:52:71:c1:
         5e:65:22:75:f5:49:09:18:56:95:eb:4c:6a:2c:0a:3d:a1:29:
         9d:4e:3a:19:11:5e:58:cf:cb:74:24:f3:90:23:38:e2:14:74:
         43:38:ff:d6:65:07:86:fc:61:04:ef:ff:b6:db:2f:86:01:1c:
         d5:82:db:92:cb:e7:b7:b9:25:2b:93:65:92:c6:93:25:83:4e:
         e8:26:4b:b9:a9:24:ef:79:b6:a3:5d:30:a8:fb:ba:fc:a8:c0:
         87:0b:c9:ca:d0:45:b9:0f:81:1d:be:1e:cb:33:b9:59:94:7c:
         09:1c:9a:8f:5f:73:15:f7
-----BEGIN CERTIFICATE-----
MIIGrDCCBJSgAwIBAgICBuswDQYJKoZIhvcNAQEEBQAwgawxCzAJBgNVBAYTAlVT
MQswCQYDVQQIEwJPSDERMA8GA1UEBxMIQ29sdW1idXMxEjAQBgNVBAoTCVZpa2lu
Z1ZQTjEdMBsGA1UECxMUTXlPcmdhbml6YXRpb25hbFVuaXQxFTATBgNVBAMTDFZp
a2luZ1ZQTiBDQTEQMA4GA1UEKRMHRWFzeVJTQTEhMB8GCSqGSIb3DQEJARYSbWVA
bXlob3N0Lm15ZG9tYWluMB4XDTE0MDQzMDA0NDQyMloXDTI0MDQyNzA0NDQyMlow
HjEcMBoGA1UEAxMTQ2xpZW50NjIyQ2VydDRmZDAyYTCCAiIwDQYJKoZIhvcNAQEB
BQADggIPADCCAgoCggIBALHy2uFjRQ3uy25TtHq5Sz17TVwIl/CGFt4Jm56QLTlf
cu5nPKPqyMT03lGYd2PVedu0iBV894B2HSIrOtn2d+gT4t6lzmIQg+Wyd09Vz6Z6
OGTZ9AqK9xjyrLRlc+UCdsWDSfYWxJdiPngP1HUK14TnG7X0KMQpAFpTh+0Qc9rv
2M5I/iUaMnRQEtZiybcMveeiSUNIGboaPmud7U4PDfJHtSkQum8Bxgh/zScp71l2
HD3EhFxApILnPPaArLH5CH+Tp3wnYlEkQmh4VTQ6JwUHmnimCDOr0Wy/Ag1qudy6
IsrG2Rj8evS2CLit2LBNseu6SI7NbVR0QJTBCfNxFpiR3EC9/N6GU3VZLzUUkLAv
AffOiUTZm0KkghypfFQNTbMO9E0SsCBNEjzCW+Tca1VE+LEgxYkDQc1BiT+KmWsG
WTvjmds0FtMgginQpOQ8Cs/yZYivCWUbrG9RA7RZJ+K4WCwWjvVDznRej5iOCCPp
s+uhhmQfiQ0aX4ENsWwLIlj4KT4VElYYH+R1j9tD5Y0BThFwHbD3HwfTPwlyl/vr
Ava7zHabIBGRRh9ixjPA6IgC4uZRA5741gzU/kMS8ElT+ekUmqweaIb+RPtb5cf8
atxv/bPBs4OPsRFuDvN8N2ABFWrmum4OdbQ0BD8BTjOcNo3Za1v+ujixAW/+FVbN
AgMBAAGjggFjMIIBXzAJBgNVHRMEAjAAMC0GCWCGSAGG+EIBDQQgFh5FYXN5LVJT
QSBHZW5lcmF0ZWQgQ2VydGlmaWNhdGUwHQYDVR0OBBYEFI2tfBXvcdXi3iGh7vuC
16Cx7AykMIHhBgNVHSMEgdkwgdaAFBLNYATSoICecO3Gmbh7LMZS/RmhoYGypIGv
MIGsMQswCQYDVQQGEwJVUzELMAkGA1UECBMCT0gxETAPBgNVBAcTCENvbHVtYnVz
MRIwEAYDVQQKEwlWaWtpbmdWUE4xHTAbBgNVBAsTFE15T3JnYW5pemF0aW9uYWxV
bml0MRUwEwYDVQQDEwxWaWtpbmdWUE4gQ0ExEDAOBgNVBCkTB0Vhc3lSU0ExITAf
BgkqhkiG9w0BCQEWEm1lQG15aG9zdC5teWRvbWFpboIJAM81he6Avyo+MBMGA1Ud
JQQMMAoGCCsGAQUFBwMCMAsGA1UdDwQEAwIHgDANBgkqhkiG9w0BAQQFAAOCAgEA
m4SATrOeI27bVubr1TTxICOFxZLjGHvENpdRmLxEgEcfbmyG4WVYrM8cLvxIVV5r
CtMSvRKAoN0kI1ps7ly+Mtj1qRR4c+PDYEOu6AXUKRv08RD/mhOQBJzeuGjmaJy8
AKmlZqFccIToUpYs1nBuIUds9TGXnLIU2v9kQEYM8ktVr+y7ruUonozCSVbOliJS
kHPkISAK4A3nH2O92qKNWRTYQaXMdynC3P1/ilhEiiG0lkeOJRJTsJaNLLNNtw+W
k36e0Qj6bfuVd/Cc5v4ARXrzm/jn/0o8ytVKHIKuOTtC27k8HFsfIbhCPIj2yE2/
L4Mhgwq/sOkt799hF0Jy2x14Nzbx48sD8f+v7ATSB03ukL5ns+E2EUjJ6yZ//5xg
X+RZ19mfcFIoNeCTJ0KRZteMk28/j9Ihq6zxyM/F/UdiKGzMJdNG6hpTOY50dONp
HTp8YCaw8rpL3qGyLRIuoZ44JTCNJowN1XCoLceBz+ylE+h4uS7Cnhz2lOwkPI2j
Wicp7k9S9gPhUnHBXmUidfVJCRhWletMaiwKPaEpnU46GRFeWM/LdCTzkCM44hR0
Qzj/1mUHhvxhBO//ttsvhgEc1YLbksvnt7klK5NlksaTJYNO6CZLuakk73m2o10w
qPu6/KjAhwvJytBFuQ+BHb4eyzO5WZR8CRyaj19zFfc=
-----END CERTIFICATE-----
