Certificate:
    Data:
        Version: 3 (0x2)
        Serial Number: 1797 (0x705)
    Signature Algorithm: md5WithRSAEncryption
        Issuer: C=US, ST=OH, L=Columbus, O=VikingVPN, OU=MyOrganizationalUnit, CN=VikingVPN CA/name=EasyRSA/emailAddress=me@myhost.mydomain
        Validity
            Not Before: May  3 02:51:27 2014 GMT
            Not After : Apr 30 02:51:27 2024 GMT
        Subject: CN=Client632Cert8ba53d
        Subject Public Key Info:
            Public Key Algorithm: rsaEncryption
                Public-Key: (4096 bit)
                Modulus:
                    00:f6:fc:75:fa:f1:8a:19:2f:f8:40:07:4a:d5:36:
                    e6:43:e6:e2:6b:1a:23:59:92:6e:0f:aa:18:86:5d:
                    85:31:94:a1:64:e4:3b:d9:c5:15:64:fe:8e:dd:64:
                    52:e9:17:3f:28:f8:c5:53:26:0d:71:1b:99:a3:c6:
                    27:43:c7:0f:c4:cf:a5:e7:32:2a:b5:21:1a:52:b0:
                    87:29:61:a7:46:c3:49:8b:ff:22:42:41:cf:0e:69:
                    56:a5:fc:e5:93:9d:7d:39:a0:48:0c:7f:67:a4:28:
                    60:9f:51:85:1c:80:d5:26:4f:c0:fc:9e:2a:cd:40:
                    a7:20:4b:b8:53:f8:d0:37:b7:5c:4c:c3:84:7e:15:
                    3d:82:0b:72:8b:92:7a:c2:78:fc:21:50:b8:b5:5b:
                    5e:75:42:a4:0f:7a:87:ad:5a:8e:26:87:83:b3:3c:
                    5b:c8:00:b0:a8:03:1c:6f:07:bc:d7:25:00:04:c6:
                    be:d5:7d:06:3e:d4:c6:cb:c7:f0:51:3e:aa:5c:bf:
                    03:6e:da:30:d0:b1:60:ce:e5:f6:f1:1d:04:86:87:
                    9f:15:8c:b6:71:09:bb:e1:a6:1d:04:3f:7b:dc:07:
                    a8:c0:ec:b6:a9:99:f8:45:87:b0:ff:7d:20:d6:05:
                    fc:8d:ad:37:d0:cf:6e:d8:7f:98:19:3d:c8:2a:4d:
                    31:0a:62:32:ab:2b:d3:db:6a:d5:e7:f7:69:e7:a1:
                    de:3a:76:0e:1f:51:1d:26:51:60:45:26:89:80:9c:
                    28:5f:a4:67:39:01:a0:fc:7f:b3:39:68:4e:77:3d:
                    8a:7f:5b:37:fb:5b:90:74:b2:4a:3f:4c:b7:1f:38:
                    04:28:1d:8a:02:de:1f:34:e4:18:99:7c:63:4a:91:
                    44:f6:85:25:a2:2a:6f:17:a7:e6:6d:88:83:ae:04:
                    bd:d6:19:45:1e:8a:16:37:48:2c:41:fb:8c:8b:86:
                    06:b2:4e:89:24:3f:7f:7a:e2:0d:3c:8c:c8:59:a2:
                    4b:92:5b:16:32:3f:9a:d4:fd:d2:26:16:ba:b5:88:
                    dc:96:5c:05:01:30:3a:dd:1a:2a:f0:91:31:7c:eb:
                    bc:02:9a:bf:2f:fb:6a:14:4e:b0:4a:43:f0:3d:e5:
                    13:08:23:b2:a7:26:60:ad:a4:33:3d:2f:0a:2e:09:
                    e4:2e:18:39:7f:36:90:9e:03:a3:9e:d3:e7:53:3e:
                    cb:75:c3:79:bb:31:c2:ce:d4:36:96:49:36:fe:e4:
                    13:fa:2d:02:b5:80:37:10:5a:6c:f7:40:ba:5d:c2:
                    f0:b6:52:4c:42:5b:34:23:9c:63:38:05:c3:e6:0d:
                    3a:3a:52:44:73:53:0b:3e:29:e5:6d:f8:de:6b:09:
                    0f:87:c7
                Exponent: 65537 (0x10001)
        X509v3 extensions:
            X509v3 Basic Constraints: 
                CA:FALSE
            Netscape Comment: 
                Easy-RSA Generated Certificate
            X509v3 Subject Key Identifier: 
                84:6C:7F:CB:9C:73:0E:BE:D2:AD:A4:A3:14:13:18:22:AC:94:4F:94
            X509v3 Authority Key Identifier: 
                keyid:12:CD:60:04:D2:A0:80:9E:70:ED:C6:99:B8:7B:2C:C6:52:FD:19:A1
                DirName:/C=US/ST=OH/L=Columbus/O=VikingVPN/OU=MyOrganizationalUnit/CN=VikingVPN CA/name=EasyRSA/emailAddress=me@myhost.mydomain
                serial:CF:35:85:EE:80:BF:2A:3E

            X509v3 Extended Key Usage: 
                TLS Web Client Authentication
            X509v3 Key Usage: 
                Digital Signature
    Signature Algorithm: md5WithRSAEncryption
         de:c3:f0:be:47:5a:ef:a3:54:dc:be:1b:bd:70:2f:68:46:ad:
         82:62:c5:86:70:a1:40:bf:42:4e:a7:7d:0b:67:47:f9:2d:d9:
         9c:34:90:d4:66:eb:93:22:0a:ae:5f:e6:c4:81:cc:f2:58:40:
         bb:58:14:37:d6:21:23:39:3f:e2:c4:16:88:a0:37:7e:d5:0c:
         19:6f:44:cd:c1:01:6b:7b:84:20:50:80:12:17:ee:1d:11:94:
         23:83:e7:f9:f1:73:29:67:b7:11:36:73:fa:c8:45:07:96:94:
         79:b6:7c:1b:60:a8:06:fc:12:48:7f:1d:39:0a:94:d4:5c:95:
         82:02:2b:fa:ef:50:1e:04:d0:50:fa:e3:15:a8:60:14:b2:ab:
         84:5b:02:f8:95:d4:ef:4c:5c:85:8a:08:ca:17:2f:a3:71:40:
         11:c7:82:bf:d1:49:a1:e6:b6:80:67:da:a7:cf:ef:15:49:03:
         c1:ca:bd:cf:68:26:4c:2b:bd:d4:82:ec:a0:70:3d:27:62:07:
         97:70:b0:9b:52:50:4b:f9:ab:78:2d:7e:b9:24:f5:72:67:13:
         94:da:52:08:47:3f:99:ea:48:79:46:35:a4:6d:97:fb:5b:79:
         97:6f:81:d2:f3:f8:66:e3:0b:9a:2c:a1:38:a2:38:a4:bb:3a:
         6a:94:41:ee:68:4a:dc:29:27:6c:fd:df:2e:b1:db:52:f9:84:
         83:12:06:1c:e3:b3:34:21:03:2b:e2:a9:56:e4:64:0f:00:04:
         4d:ca:50:c2:ac:e4:23:fb:17:c9:1f:df:c0:53:ab:31:6f:5a:
         87:76:f4:43:33:66:cb:a6:d2:fa:4c:c8:aa:ec:b2:56:5d:21:
         88:92:a4:c0:61:3a:63:f6:c1:38:38:84:9e:a4:13:34:49:0e:
         b8:75:95:53:bb:ea:41:5a:bc:7e:be:a8:ff:df:63:c7:95:0f:
         83:31:0f:ca:c5:e4:7a:04:e1:24:87:2c:90:ac:95:a4:11:5d:
         da:be:14:9e:ee:eb:9a:1a:d2:51:48:f0:15:28:f8:6b:7a:68:
         6d:dd:2e:c9:da:d8:57:c4:d3:93:55:f9:d7:a2:dd:7b:9f:15:
         ec:0c:a5:26:c4:ba:cd:2f:89:2f:f6:a5:00:43:d1:b4:0c:57:
         98:26:84:a1:c4:cd:6f:24:a1:fe:7c:39:68:ab:1e:b8:52:85:
         98:b3:b3:17:a0:3b:9e:1f:79:3b:d5:3e:2b:fc:20:16:da:2f:
         d5:78:14:60:fe:35:f7:d6:66:98:33:23:19:d1:87:54:c5:07:
         c5:18:f6:bd:44:ee:9f:1a:9c:2d:99:6f:b5:2e:f5:7c:70:56:
         70:95:00:0e:1e:07:fc:47
-----BEGIN CERTIFICATE-----
MIIGrDCCBJSgAwIBAgICBwUwDQYJKoZIhvcNAQEEBQAwgawxCzAJBgNVBAYTAlVT
MQswCQYDVQQIEwJPSDERMA8GA1UEBxMIQ29sdW1idXMxEjAQBgNVBAoTCVZpa2lu
Z1ZQTjEdMBsGA1UECxMUTXlPcmdhbml6YXRpb25hbFVuaXQxFTATBgNVBAMTDFZp
a2luZ1ZQTiBDQTEQMA4GA1UEKRMHRWFzeVJTQTEhMB8GCSqGSIb3DQEJARYSbWVA
bXlob3N0Lm15ZG9tYWluMB4XDTE0MDUwMzAyNTEyN1oXDTI0MDQzMDAyNTEyN1ow
HjEcMBoGA1UEAxMTQ2xpZW50NjMyQ2VydDhiYTUzZDCCAiIwDQYJKoZIhvcNAQEB
BQADggIPADCCAgoCggIBAPb8dfrxihkv+EAHStU25kPm4msaI1mSbg+qGIZdhTGU
oWTkO9nFFWT+jt1kUukXPyj4xVMmDXEbmaPGJ0PHD8TPpecyKrUhGlKwhylhp0bD
SYv/IkJBzw5pVqX85ZOdfTmgSAx/Z6QoYJ9RhRyA1SZPwPyeKs1ApyBLuFP40De3
XEzDhH4VPYILcouSesJ4/CFQuLVbXnVCpA96h61ajiaHg7M8W8gAsKgDHG8HvNcl
AATGvtV9Bj7UxsvH8FE+qly/A27aMNCxYM7l9vEdBIaHnxWMtnEJu+GmHQQ/e9wH
qMDstqmZ+EWHsP99INYF/I2tN9DPbth/mBk9yCpNMQpiMqsr09tq1ef3aeeh3jp2
Dh9RHSZRYEUmiYCcKF+kZzkBoPx/szloTnc9in9bN/tbkHSySj9Mtx84BCgdigLe
HzTkGJl8Y0qRRPaFJaIqbxen5m2Ig64EvdYZRR6KFjdILEH7jIuGBrJOiSQ/f3ri
DTyMyFmiS5JbFjI/mtT90iYWurWI3JZcBQEwOt0aKvCRMXzrvAKavy/7ahROsEpD
8D3lEwgjsqcmYK2kMz0vCi4J5C4YOX82kJ4Do57T51M+y3XDebsxws7UNpZJNv7k
E/otArWANxBabPdAul3C8LZSTEJbNCOcYzgFw+YNOjpSRHNTCz4p5W343msJD4fH
AgMBAAGjggFjMIIBXzAJBgNVHRMEAjAAMC0GCWCGSAGG+EIBDQQgFh5FYXN5LVJT
QSBHZW5lcmF0ZWQgQ2VydGlmaWNhdGUwHQYDVR0OBBYEFIRsf8uccw6+0q2koxQT
GCKslE+UMIHhBgNVHSMEgdkwgdaAFBLNYATSoICecO3Gmbh7LMZS/RmhoYGypIGv
MIGsMQswCQYDVQQGEwJVUzELMAkGA1UECBMCT0gxETAPBgNVBAcTCENvbHVtYnVz
MRIwEAYDVQQKEwlWaWtpbmdWUE4xHTAbBgNVBAsTFE15T3JnYW5pemF0aW9uYWxV
bml0MRUwEwYDVQQDEwxWaWtpbmdWUE4gQ0ExEDAOBgNVBCkTB0Vhc3lSU0ExITAf
BgkqhkiG9w0BCQEWEm1lQG15aG9zdC5teWRvbWFpboIJAM81he6Avyo+MBMGA1Ud
JQQMMAoGCCsGAQUFBwMCMAsGA1UdDwQEAwIHgDANBgkqhkiG9w0BAQQFAAOCAgEA
3sPwvkda76NU3L4bvXAvaEatgmLFhnChQL9CTqd9C2dH+S3ZnDSQ1GbrkyIKrl/m
xIHM8lhAu1gUN9YhIzk/4sQWiKA3ftUMGW9EzcEBa3uEIFCAEhfuHRGUI4Pn+fFz
KWe3ETZz+shFB5aUebZ8G2CoBvwSSH8dOQqU1FyVggIr+u9QHgTQUPrjFahgFLKr
hFsC+JXU70xchYoIyhcvo3FAEceCv9FJoea2gGfap8/vFUkDwcq9z2gmTCu91ILs
oHA9J2IHl3Cwm1JQS/mreC1+uST1cmcTlNpSCEc/mepIeUY1pG2X+1t5l2+B0vP4
ZuMLmiyhOKI4pLs6apRB7mhK3CknbP3fLrHbUvmEgxIGHOOzNCEDK+KpVuRkDwAE
TcpQwqzkI/sXyR/fwFOrMW9ah3b0QzNmy6bS+kzIquyyVl0hiJKkwGE6Y/bBODiE
nqQTNEkOuHWVU7vqQVq8fr6o/99jx5UPgzEPysXkegThJIcskKyVpBFd2r4Unu7r
mhrSUUjwFSj4a3pobd0uydrYV8TTk1X516Lde58V7AylJsS6zS+JL/alAEPRtAxX
mCaEocTNbySh/nw5aKseuFKFmLOzF6A7nh95O9U+K/wgFtov1XgUYP4199ZmmDMj
GdGHVMUHxRj2vUTunxqcLZlvtS71fHBWcJUADh4H/Ec=
-----END CERTIFICATE-----
