Certificate:
    Data:
        Version: 3 (0x2)
        Serial Number: 1802 (0x70a)
    Signature Algorithm: md5WithRSAEncryption
        Issuer: C=US, ST=OH, L=Columbus, O=VikingVPN, OU=MyOrganizationalUnit, CN=VikingVPN CA/name=EasyRSA/emailAddress=me@myhost.mydomain
        Validity
            Not Before: May  3 15:36:29 2014 GMT
            Not After : Apr 30 15:36:29 2024 GMT
        Subject: CN=Client259Cert18c7de
        Subject Public Key Info:
            Public Key Algorithm: rsaEncryption
                Public-Key: (4096 bit)
                Modulus:
                    00:d2:be:5a:d1:7a:ab:5a:aa:0b:19:8b:31:1b:9b:
                    f7:b4:4c:cf:11:93:84:d7:46:c9:3f:0a:d3:79:3b:
                    02:75:bf:72:e9:24:bd:57:8f:35:b4:ab:ba:90:c0:
                    56:16:a3:b3:18:a3:ff:97:0b:aa:72:2f:0b:e6:ac:
                    52:f9:ba:6d:18:ed:78:15:22:d8:da:d9:3c:ec:f3:
                    33:0f:94:ee:ad:52:d3:0e:9e:90:b3:3d:f8:4c:53:
                    0f:80:fc:6c:32:d4:5e:9e:07:b2:9c:0f:10:49:d6:
                    89:70:50:54:39:88:71:c7:32:fb:9d:b4:e1:23:76:
                    4e:b8:00:cf:fb:dc:b6:d0:04:87:ea:5d:23:aa:15:
                    79:3a:61:7c:be:88:11:8f:3d:e2:04:de:ca:99:09:
                    f1:87:56:0d:23:64:de:01:7f:f9:83:62:6a:e3:be:
                    4a:f7:a5:ea:af:73:ca:a5:86:82:e2:2e:17:47:7e:
                    7d:80:24:b5:f7:c8:40:db:b4:1b:61:03:00:1e:c9:
                    a2:06:b3:52:f6:38:e3:24:24:43:8a:e1:4b:32:d1:
                    94:05:1f:25:8f:fa:63:14:d1:9f:85:23:e2:09:4c:
                    af:e0:c1:bc:a6:66:6f:ee:cd:24:41:72:44:af:4e:
                    4f:aa:8d:96:4c:ae:3a:39:e2:4d:02:53:1e:4b:44:
                    1c:ba:11:b4:b2:20:55:34:4d:85:97:51:73:3e:2c:
                    d1:77:15:1f:1a:89:78:10:b7:72:1b:54:6a:6c:1d:
                    01:c6:74:2b:f0:71:9f:64:0e:3c:f3:16:9a:fc:96:
                    ff:ae:22:08:83:65:5e:69:a8:49:06:17:24:a9:c7:
                    64:97:86:44:12:5e:8f:80:d0:d2:ec:20:08:68:31:
                    90:06:54:95:0f:c5:52:cc:8f:a5:ba:e6:28:36:ee:
                    3e:6c:38:e1:d5:0d:a3:19:ed:27:0d:7b:8a:ba:77:
                    17:82:58:19:0a:1d:24:53:0f:30:f6:27:fe:fd:74:
                    7a:80:fb:0f:f7:d1:cc:77:08:63:90:6f:dc:84:a1:
                    f9:0b:71:13:94:bc:f0:ad:99:0e:51:b3:9d:6e:0f:
                    e3:f4:57:2e:2b:8f:c4:5a:8c:d7:c0:4c:4a:c8:c1:
                    96:2f:a4:c5:fe:cd:03:e7:b1:a1:82:be:2d:04:91:
                    84:79:18:de:3c:6b:68:c0:9a:32:11:4f:f3:aa:1f:
                    0c:9a:84:01:82:fa:61:54:58:20:21:4b:0d:10:d0:
                    9d:44:66:73:f0:66:7f:42:f5:3e:95:16:13:6b:13:
                    a0:8b:43:85:f9:0e:bf:41:fa:d0:42:b0:53:a1:ef:
                    36:f6:5c:fd:39:2d:33:4a:03:95:cc:fe:26:2e:d1:
                    c7:0f:bd
                Exponent: 65537 (0x10001)
        X509v3 extensions:
            X509v3 Basic Constraints: 
                CA:FALSE
            Netscape Comment: 
                Easy-RSA Generated Certificate
            X509v3 Subject Key Identifier: 
                4B:EB:D8:DE:8E:1E:D8:EA:8C:8A:30:F1:27:BD:F1:C2:D4:E9:27:1A
            X509v3 Authority Key Identifier: 
                keyid:12:CD:60:04:D2:A0:80:9E:70:ED:C6:99:B8:7B:2C:C6:52:FD:19:A1
                DirName:/C=US/ST=OH/L=Columbus/O=VikingVPN/OU=MyOrganizationalUnit/CN=VikingVPN CA/name=EasyRSA/emailAddress=me@myhost.mydomain
                serial:CF:35:85:EE:80:BF:2A:3E

            X509v3 Extended Key Usage: 
                TLS Web Client Authentication
            X509v3 Key Usage: 
                Digital Signature
    Signature Algorithm: md5WithRSAEncryption
         34:64:8e:ca:b3:6b:8d:e8:5a:b4:80:95:83:15:6d:95:5d:14:
         4c:49:d1:56:f6:03:40:0e:96:89:c0:8d:9e:0e:05:4e:fb:bc:
         d7:cc:63:e0:42:fa:6f:81:85:27:94:4f:ce:ae:80:b6:0f:a2:
         ef:4e:e8:f8:2f:20:26:f5:67:00:01:5e:ed:be:f5:be:5f:d2:
         96:6a:e7:bd:34:3b:21:da:5c:99:99:45:38:e6:d1:81:88:f5:
         b7:62:17:56:fe:94:6c:9d:17:0e:8a:85:8f:c5:71:3e:81:30:
         31:e9:55:01:ed:63:70:ea:b0:cc:cb:ed:5d:85:2a:f5:b6:90:
         7d:64:9e:75:83:fa:0e:1c:13:9f:1b:e3:41:5f:d9:40:f7:4f:
         0b:93:9b:9f:44:1f:b6:f8:91:b2:ce:c2:90:c2:a0:d6:ae:6d:
         24:85:96:be:55:c3:96:3e:89:29:1f:06:03:99:38:9a:33:f1:
         6d:16:fb:6d:2d:4c:bb:f0:58:c3:02:ea:80:d2:49:9a:97:73:
         81:ca:1d:02:d9:56:5e:b5:2d:f6:d2:e8:e2:39:80:fa:18:e6:
         ee:80:5d:93:8e:3b:80:d6:6b:ec:9c:48:ab:37:d7:88:47:86:
         71:ef:27:52:bd:46:f7:75:4a:e0:52:2e:1f:97:f8:61:b3:3c:
         e2:14:90:10:d6:57:da:5a:f5:7e:be:a9:63:4f:5d:03:51:b3:
         ba:2f:f4:61:94:30:cb:21:bc:21:f1:a8:d9:19:71:29:37:7e:
         4e:02:43:bc:e1:4f:1c:1b:74:e9:6e:cf:20:49:35:2a:d3:71:
         1e:8c:96:8d:d7:84:2c:51:57:e0:5c:63:c1:16:df:2e:41:22:
         c0:2c:99:61:6e:c5:71:05:b2:34:db:9a:d8:44:5d:af:d1:9b:
         23:fc:c7:f2:e7:a7:e2:b5:15:67:0b:82:e3:d0:0d:a0:e5:50:
         88:1c:54:2b:66:d5:00:96:5d:b1:6e:32:17:9a:d9:1f:b0:d9:
         05:f3:6e:af:e2:36:8f:f3:a6:f6:7d:a6:a9:16:10:a8:8a:be:
         d9:45:d2:27:b0:cf:25:41:d2:9d:27:94:1b:33:90:6c:95:66:
         93:89:07:2b:d4:bb:a5:c5:01:18:d0:cc:65:cc:2b:ad:89:4d:
         de:ff:b2:6d:34:c4:0f:8f:6c:5b:e4:47:dc:1e:ab:49:9d:8b:
         49:35:06:f6:eb:84:09:90:b6:e8:3d:7d:43:74:ad:32:52:2d:
         9c:b1:9e:68:4b:60:b1:15:bf:b5:be:b2:e0:e3:b1:6f:a4:7a:
         2e:d6:e4:15:74:fa:65:4b:f0:6e:00:cb:29:79:e3:1a:0a:84:
         10:60:4e:86:8f:01:23:35
-----BEGIN CERTIFICATE-----
MIIGrDCCBJSgAwIBAgICBwowDQYJKoZIhvcNAQEEBQAwgawxCzAJBgNVBAYTAlVT
MQswCQYDVQQIEwJPSDERMA8GA1UEBxMIQ29sdW1idXMxEjAQBgNVBAoTCVZpa2lu
Z1ZQTjEdMBsGA1UECxMUTXlPcmdhbml6YXRpb25hbFVuaXQxFTATBgNVBAMTDFZp
a2luZ1ZQTiBDQTEQMA4GA1UEKRMHRWFzeVJTQTEhMB8GCSqGSIb3DQEJARYSbWVA
bXlob3N0Lm15ZG9tYWluMB4XDTE0MDUwMzE1MzYyOVoXDTI0MDQzMDE1MzYyOVow
HjEcMBoGA1UEAxMTQ2xpZW50MjU5Q2VydDE4YzdkZTCCAiIwDQYJKoZIhvcNAQEB
BQADggIPADCCAgoCggIBANK+WtF6q1qqCxmLMRub97RMzxGThNdGyT8K03k7AnW/
cukkvVePNbSrupDAVhajsxij/5cLqnIvC+asUvm6bRjteBUi2NrZPOzzMw+U7q1S
0w6ekLM9+ExTD4D8bDLUXp4HspwPEEnWiXBQVDmIcccy+5204SN2TrgAz/vcttAE
h+pdI6oVeTphfL6IEY894gTeypkJ8YdWDSNk3gF/+YNiauO+Svel6q9zyqWGguIu
F0d+fYAktffIQNu0G2EDAB7JogazUvY44yQkQ4rhSzLRlAUfJY/6YxTRn4Uj4glM
r+DBvKZmb+7NJEFyRK9OT6qNlkyuOjniTQJTHktEHLoRtLIgVTRNhZdRcz4s0XcV
HxqJeBC3chtUamwdAcZ0K/Bxn2QOPPMWmvyW/64iCINlXmmoSQYXJKnHZJeGRBJe
j4DQ0uwgCGgxkAZUlQ/FUsyPpbrmKDbuPmw44dUNoxntJw17irp3F4JYGQodJFMP
MPYn/v10eoD7D/fRzHcIY5Bv3ISh+QtxE5S88K2ZDlGznW4P4/RXLiuPxFqM18BM
SsjBli+kxf7NA+exoYK+LQSRhHkY3jxraMCaMhFP86ofDJqEAYL6YVRYICFLDRDQ
nURmc/Bmf0L1PpUWE2sToItDhfkOv0H60EKwU6HvNvZc/TktM0oDlcz+Ji7Rxw+9
AgMBAAGjggFjMIIBXzAJBgNVHRMEAjAAMC0GCWCGSAGG+EIBDQQgFh5FYXN5LVJT
QSBHZW5lcmF0ZWQgQ2VydGlmaWNhdGUwHQYDVR0OBBYEFEvr2N6OHtjqjIow8Se9
8cLU6ScaMIHhBgNVHSMEgdkwgdaAFBLNYATSoICecO3Gmbh7LMZS/RmhoYGypIGv
MIGsMQswCQYDVQQGEwJVUzELMAkGA1UECBMCT0gxETAPBgNVBAcTCENvbHVtYnVz
MRIwEAYDVQQKEwlWaWtpbmdWUE4xHTAbBgNVBAsTFE15T3JnYW5pemF0aW9uYWxV
bml0MRUwEwYDVQQDEwxWaWtpbmdWUE4gQ0ExEDAOBgNVBCkTB0Vhc3lSU0ExITAf
BgkqhkiG9w0BCQEWEm1lQG15aG9zdC5teWRvbWFpboIJAM81he6Avyo+MBMGA1Ud
JQQMMAoGCCsGAQUFBwMCMAsGA1UdDwQEAwIHgDANBgkqhkiG9w0BAQQFAAOCAgEA
NGSOyrNrjehatICVgxVtlV0UTEnRVvYDQA6WicCNng4FTvu818xj4EL6b4GFJ5RP
zq6Atg+i707o+C8gJvVnAAFe7b71vl/SlmrnvTQ7IdpcmZlFOObRgYj1t2IXVv6U
bJ0XDoqFj8VxPoEwMelVAe1jcOqwzMvtXYUq9baQfWSedYP6DhwTnxvjQV/ZQPdP
C5Obn0QftviRss7CkMKg1q5tJIWWvlXDlj6JKR8GA5k4mjPxbRb7bS1Mu/BYwwLq
gNJJmpdzgcodAtlWXrUt9tLo4jmA+hjm7oBdk447gNZr7JxIqzfXiEeGce8nUr1G
93VK4FIuH5f4YbM84hSQENZX2lr1fr6pY09dA1Gzui/0YZQwyyG8IfGo2RlxKTd+
TgJDvOFPHBt06W7PIEk1KtNxHoyWjdeELFFX4FxjwRbfLkEiwCyZYW7FcQWyNNua
2ERdr9GbI/zH8uen4rUVZwuC49ANoOVQiBxUK2bVAJZdsW4yF5rZH7DZBfNur+I2
j/Om9n2mqRYQqIq+2UXSJ7DPJUHSnSeUGzOQbJVmk4kHK9S7pcUBGNDMZcwrrYlN
3v+ybTTED49sW+RH3B6rSZ2LSTUG9uuECZC26D19Q3StMlItnLGeaEtgsRW/tb6y
4OOxb6R6LtbkFXT6ZUvwbgDLKXnjGgqEEGBOho8BIzU=
-----END CERTIFICATE-----
