Certificate:
    Data:
        Version: 3 (0x2)
        Serial Number: 1808 (0x710)
    Signature Algorithm: md5WithRSAEncryption
        Issuer: C=US, ST=OH, L=Columbus, O=VikingVPN, OU=MyOrganizationalUnit, CN=VikingVPN CA/name=EasyRSA/emailAddress=me@myhost.mydomain
        Validity
            Not Before: May  3 16:00:40 2014 GMT
            Not After : Apr 30 16:00:40 2024 GMT
        Subject: CN=Client474Certf60cb0
        Subject Public Key Info:
            Public Key Algorithm: rsaEncryption
                Public-Key: (4096 bit)
                Modulus:
                    00:a4:84:bf:be:a2:2e:6c:ba:2f:32:00:4f:d7:2e:
                    db:0a:9c:12:17:8a:dc:ab:72:c8:70:d3:15:d0:ee:
                    77:90:20:69:c0:f8:d4:e0:35:4c:bb:ae:6a:26:36:
                    75:35:3e:67:f2:0f:26:d8:32:5a:1b:cd:10:67:3c:
                    3f:f7:82:b5:cd:41:5b:0d:a8:bc:54:ed:48:74:41:
                    ba:27:84:ab:33:d2:97:d2:9c:56:40:18:bc:50:ab:
                    34:a9:c4:95:0a:b8:09:7c:40:7d:25:b5:1a:f3:ca:
                    2a:9c:7b:23:bc:d2:d9:cb:35:02:aa:0c:49:17:42:
                    3e:39:ad:d8:ee:4e:bf:9b:32:b0:81:f6:b5:46:91:
                    53:57:e5:b3:83:b8:c9:f7:5d:c4:11:5b:b9:c2:b4:
                    fb:9d:67:99:90:a5:40:b3:b0:07:3f:d0:ba:44:b2:
                    7b:35:81:f4:41:d2:ab:5b:6b:4d:93:12:d8:93:44:
                    bf:4f:5e:74:70:f2:11:07:29:13:63:d9:00:f2:53:
                    0d:01:93:9f:6d:c2:d7:85:a1:6e:96:fc:5c:28:e0:
                    aa:59:b6:9f:14:00:16:ab:f9:79:ed:b7:7a:5a:cf:
                    5f:ee:9a:c1:90:ff:82:cb:ba:9d:4e:39:f6:67:e2:
                    8a:47:9f:7e:84:af:6e:ca:c9:d1:49:be:f9:48:1d:
                    6c:5b:99:fe:81:18:d7:23:da:d6:47:06:a4:b0:79:
                    22:e5:02:34:f6:09:c7:c5:87:8c:95:5e:78:6b:3e:
                    bb:46:9b:1e:ba:95:38:b9:29:47:41:2b:a2:6c:35:
                    dc:81:80:11:79:77:be:fc:7f:44:98:55:f5:ab:10:
                    ac:f6:40:44:9f:a8:23:b4:4b:f4:65:7b:b7:24:33:
                    ab:19:da:cf:d0:87:b1:2b:d8:3c:40:6d:95:df:a5:
                    7c:44:d1:50:68:28:d7:c1:d1:da:3b:8d:1b:e4:f4:
                    3a:4b:fe:ef:38:66:49:8b:bb:96:ae:de:7b:22:c6:
                    54:54:5b:79:39:5f:3f:55:9a:66:7e:86:ea:7f:e0:
                    bb:52:5a:c4:b5:3c:f0:57:fd:37:be:7a:b2:74:e8:
                    eb:2f:16:ff:92:3d:88:f5:6c:40:e7:47:11:d5:7a:
                    56:a1:ed:6b:af:08:cf:6f:cf:22:f1:a9:cc:1f:85:
                    61:14:11:c0:9b:ef:76:f6:9d:1e:e9:d4:c5:e4:6d:
                    56:fa:3d:8a:6d:67:0d:18:fe:4a:e5:b3:95:14:fe:
                    f5:1a:0e:55:b7:45:d1:5d:dc:bf:68:5c:62:11:0f:
                    6a:97:ee:f2:77:35:51:78:e9:57:84:ff:63:c2:69:
                    3b:fe:7a:a5:5e:dc:d8:ef:8c:30:e8:33:db:36:a5:
                    90:28:67
                Exponent: 65537 (0x10001)
        X509v3 extensions:
            X509v3 Basic Constraints: 
                CA:FALSE
            Netscape Comment: 
                Easy-RSA Generated Certificate
            X509v3 Subject Key Identifier: 
                38:96:EA:AD:33:66:C3:EE:EF:39:FE:C9:D5:28:70:BE:D8:70:4C:26
            X509v3 Authority Key Identifier: 
                keyid:12:CD:60:04:D2:A0:80:9E:70:ED:C6:99:B8:7B:2C:C6:52:FD:19:A1
                DirName:/C=US/ST=OH/L=Columbus/O=VikingVPN/OU=MyOrganizationalUnit/CN=VikingVPN CA/name=EasyRSA/emailAddress=me@myhost.mydomain
                serial:CF:35:85:EE:80:BF:2A:3E

            X509v3 Extended Key Usage: 
                TLS Web Client Authentication
            X509v3 Key Usage: 
                Digital Signature
    Signature Algorithm: md5WithRSAEncryption
         29:22:25:d4:88:a7:f9:ad:cc:84:79:be:2a:12:36:88:bd:0e:
         60:0a:9b:83:ee:cf:2f:2a:57:28:4f:6d:fa:0b:8f:b3:5f:02:
         6f:e8:67:b7:ec:56:a5:46:de:88:c1:6a:8d:aa:a9:a4:28:08:
         21:5c:fd:92:2e:ca:63:86:67:56:e8:93:0b:f5:20:24:0f:3e:
         98:73:f4:bf:fe:22:1e:09:6d:fb:63:9b:c5:cb:23:1b:18:2c:
         be:44:a5:e1:fb:95:21:07:4c:95:7b:43:f7:f9:4e:60:3c:f0:
         83:b5:86:07:3b:4c:a9:30:31:ad:c2:55:e0:36:ac:c6:8b:93:
         2a:ef:db:a3:89:1f:6d:69:e9:76:bb:ab:b5:e8:82:fd:ad:a8:
         00:72:cd:16:d9:61:25:bd:ff:22:40:8d:3c:b9:83:a7:22:8d:
         13:16:fd:2a:17:ff:7c:ba:e1:53:ce:c3:ed:23:1b:ff:5e:cb:
         d2:db:0b:e7:14:96:cf:95:eb:95:67:6f:8b:81:50:c9:d0:cb:
         d6:a7:da:75:9d:fb:d0:5f:bd:20:eb:86:4b:2a:8a:e4:01:c0:
         c2:8b:44:c9:fc:0c:c9:57:01:fc:22:7d:97:33:ab:d8:b7:01:
         0a:38:2a:cb:c3:5f:16:39:25:7b:c8:de:34:9e:bd:30:17:83:
         00:c6:91:08:d2:ec:be:06:85:57:d8:9b:95:dc:b3:86:f3:69:
         d1:ca:f3:eb:9d:fb:04:b5:f8:b2:bd:e6:cb:91:39:72:bb:d3:
         b6:5e:07:cd:5b:7b:26:1e:e3:48:18:c1:de:07:77:08:1a:82:
         01:50:d6:fc:df:0e:59:b9:f4:ec:e9:97:05:53:e1:1a:6e:70:
         30:c6:a0:57:6f:6a:04:d4:22:8c:f9:57:ee:64:3e:3b:02:32:
         3c:14:37:40:d0:db:75:18:f3:e8:63:d5:ed:2d:20:d4:d9:91:
         16:db:31:43:7e:ce:9e:85:43:99:bb:af:39:a0:be:da:7b:9b:
         b2:64:4a:55:91:ec:68:74:ae:84:60:df:02:4f:5c:b5:2c:80:
         c9:1f:de:c7:08:92:43:38:de:d1:3f:05:ec:a9:37:eb:6b:32:
         26:c8:9f:54:f3:bb:ee:ac:67:22:f0:6c:8f:ab:71:19:f7:45:
         fa:0a:cc:22:9d:bf:3f:28:28:db:3f:1d:f7:41:14:a4:b8:8f:
         55:4b:6c:8d:68:ec:84:4d:a1:48:1f:14:a7:84:50:33:be:a0:
         bd:b3:b5:60:c8:f4:d2:13:b9:9a:42:a1:5b:82:9f:fd:95:7b:
         47:87:96:ae:30:4e:31:08:33:93:d8:2e:20:31:0b:a2:ab:42:
         1a:92:eb:54:17:93:d8:7c
-----BEGIN CERTIFICATE-----
MIIGrDCCBJSgAwIBAgICBxAwDQYJKoZIhvcNAQEEBQAwgawxCzAJBgNVBAYTAlVT
MQswCQYDVQQIEwJPSDERMA8GA1UEBxMIQ29sdW1idXMxEjAQBgNVBAoTCVZpa2lu
Z1ZQTjEdMBsGA1UECxMUTXlPcmdhbml6YXRpb25hbFVuaXQxFTATBgNVBAMTDFZp
a2luZ1ZQTiBDQTEQMA4GA1UEKRMHRWFzeVJTQTEhMB8GCSqGSIb3DQEJARYSbWVA
bXlob3N0Lm15ZG9tYWluMB4XDTE0MDUwMzE2MDA0MFoXDTI0MDQzMDE2MDA0MFow
HjEcMBoGA1UEAxMTQ2xpZW50NDc0Q2VydGY2MGNiMDCCAiIwDQYJKoZIhvcNAQEB
BQADggIPADCCAgoCggIBAKSEv76iLmy6LzIAT9cu2wqcEheK3KtyyHDTFdDud5Ag
acD41OA1TLuuaiY2dTU+Z/IPJtgyWhvNEGc8P/eCtc1BWw2ovFTtSHRBuieEqzPS
l9KcVkAYvFCrNKnElQq4CXxAfSW1GvPKKpx7I7zS2cs1AqoMSRdCPjmt2O5Ov5sy
sIH2tUaRU1fls4O4yfddxBFbucK0+51nmZClQLOwBz/QukSyezWB9EHSq1trTZMS
2JNEv09edHDyEQcpE2PZAPJTDQGTn23C14Whbpb8XCjgqlm2nxQAFqv5ee23elrP
X+6awZD/gsu6nU459mfiikeffoSvbsrJ0Um++UgdbFuZ/oEY1yPa1kcGpLB5IuUC
NPYJx8WHjJVeeGs+u0abHrqVOLkpR0Eromw13IGAEXl3vvx/RJhV9asQrPZARJ+o
I7RL9GV7tyQzqxnaz9CHsSvYPEBtld+lfETRUGgo18HR2juNG+T0Okv+7zhmSYu7
lq7eeyLGVFRbeTlfP1WaZn6G6n/gu1JaxLU88Ff9N756snTo6y8W/5I9iPVsQOdH
EdV6VqHta68Iz2/PIvGpzB+FYRQRwJvvdvadHunUxeRtVvo9im1nDRj+SuWzlRT+
9RoOVbdF0V3cv2hcYhEPapfu8nc1UXjpV4T/Y8JpO/56pV7c2O+MMOgz2zalkChn
AgMBAAGjggFjMIIBXzAJBgNVHRMEAjAAMC0GCWCGSAGG+EIBDQQgFh5FYXN5LVJT
QSBHZW5lcmF0ZWQgQ2VydGlmaWNhdGUwHQYDVR0OBBYEFDiW6q0zZsPu7zn+ydUo
cL7YcEwmMIHhBgNVHSMEgdkwgdaAFBLNYATSoICecO3Gmbh7LMZS/RmhoYGypIGv
MIGsMQswCQYDVQQGEwJVUzELMAkGA1UECBMCT0gxETAPBgNVBAcTCENvbHVtYnVz
MRIwEAYDVQQKEwlWaWtpbmdWUE4xHTAbBgNVBAsTFE15T3JnYW5pemF0aW9uYWxV
bml0MRUwEwYDVQQDEwxWaWtpbmdWUE4gQ0ExEDAOBgNVBCkTB0Vhc3lSU0ExITAf
BgkqhkiG9w0BCQEWEm1lQG15aG9zdC5teWRvbWFpboIJAM81he6Avyo+MBMGA1Ud
JQQMMAoGCCsGAQUFBwMCMAsGA1UdDwQEAwIHgDANBgkqhkiG9w0BAQQFAAOCAgEA
KSIl1Iin+a3MhHm+KhI2iL0OYAqbg+7PLypXKE9t+guPs18Cb+hnt+xWpUbeiMFq
jaqppCgIIVz9ki7KY4ZnVuiTC/UgJA8+mHP0v/4iHglt+2ObxcsjGxgsvkSl4fuV
IQdMlXtD9/lOYDzwg7WGBztMqTAxrcJV4DasxouTKu/bo4kfbWnpdrurteiC/a2o
AHLNFtlhJb3/IkCNPLmDpyKNExb9Khf/fLrhU87D7SMb/17L0tsL5xSWz5XrlWdv
i4FQydDL1qfadZ370F+9IOuGSyqK5AHAwotEyfwMyVcB/CJ9lzOr2LcBCjgqy8Nf
Fjkle8jeNJ69MBeDAMaRCNLsvgaFV9ibldyzhvNp0crz6537BLX4sr3my5E5crvT
tl4HzVt7Jh7jSBjB3gd3CBqCAVDW/N8OWbn07OmXBVPhGm5wMMagV29qBNQijPlX
7mQ+OwIyPBQ3QNDbdRjz6GPV7S0g1NmRFtsxQ37OnoVDmbuvOaC+2nubsmRKVZHs
aHSuhGDfAk9ctSyAyR/exwiSQzje0T8F7Kk362syJsifVPO77qxnIvBsj6txGfdF
+grMIp2/Pygo2z8d90EUpLiPVUtsjWjshE2hSB8Up4RQM76gvbO1YMj00hO5mkKh
W4Kf/ZV7R4eWrjBOMQgzk9guIDELoqtCGpLrVBeT2Hw=
-----END CERTIFICATE-----
