Certificate:
    Data:
        Version: 3 (0x2)
        Serial Number: 1811 (0x713)
    Signature Algorithm: md5WithRSAEncryption
        Issuer: C=US, ST=OH, L=Columbus, O=VikingVPN, OU=MyOrganizationalUnit, CN=VikingVPN CA/name=EasyRSA/emailAddress=me@myhost.mydomain
        Validity
            Not Before: May  3 18:28:49 2014 GMT
            Not After : Apr 30 18:28:49 2024 GMT
        Subject: CN=Client303Cert607475
        Subject Public Key Info:
            Public Key Algorithm: rsaEncryption
                Public-Key: (4096 bit)
                Modulus:
                    00:db:a7:e4:4b:41:87:f4:2c:99:e4:ed:da:8c:f4:
                    db:0f:24:0d:0a:4c:70:8e:f6:65:1b:95:a7:e0:dd:
                    f0:1e:88:16:c0:b7:b2:2d:bd:26:1c:ef:2d:c0:76:
                    3b:0f:b7:4b:2f:5d:c6:b7:90:65:24:93:1e:c5:b2:
                    05:d8:fe:88:c6:41:78:b3:b8:b4:8f:12:2e:83:29:
                    7b:e3:f5:fa:50:73:24:9b:5e:82:6f:96:40:78:90:
                    ce:f3:1d:e6:69:88:20:cf:f3:91:12:4e:e6:7a:bd:
                    73:85:75:f5:e2:07:11:eb:0d:17:0b:84:34:82:ab:
                    55:90:70:5c:29:de:39:75:4e:9e:13:47:11:58:3b:
                    a2:e1:72:55:9a:37:2c:49:7c:ff:65:b9:33:53:62:
                    3a:37:44:1c:e8:82:36:2b:24:20:f7:ed:37:fb:24:
                    fa:34:55:b1:b0:4b:fb:69:ce:a1:52:df:99:90:97:
                    5e:ae:fc:6e:97:9c:e7:7d:b1:3e:c7:90:0b:c5:f2:
                    31:bc:e2:0f:a8:d4:84:c0:96:27:c2:d8:14:3b:48:
                    fa:25:53:6c:e8:91:06:6e:f2:74:11:87:93:ea:4e:
                    8f:87:57:19:ca:be:da:20:88:6f:65:a0:35:f4:8b:
                    fc:94:39:a7:88:6c:d1:78:98:36:ec:77:d1:c8:52:
                    1f:f1:fd:c0:2c:d4:3a:b5:4a:91:e5:8d:f2:b7:55:
                    a4:f2:86:0b:94:1f:5b:9f:a3:b1:b2:aa:bf:4c:7e:
                    de:b3:87:87:06:95:8e:08:e0:55:4d:16:fd:ca:6d:
                    9e:75:ef:f7:bb:de:99:b7:b4:5b:2d:ab:9a:39:07:
                    13:73:f2:4e:05:08:67:93:6c:8d:40:06:96:8d:ca:
                    cf:a3:19:67:59:87:00:5d:f4:e5:2f:1e:70:b2:1c:
                    9f:52:14:c7:a1:85:4a:56:9c:23:5a:ad:aa:28:b8:
                    80:0e:a7:64:78:a0:af:f5:7e:18:68:2f:9c:18:4a:
                    0c:72:31:3e:59:ff:91:4b:3f:e3:eb:68:b7:e4:7d:
                    df:47:55:2d:01:1c:7b:41:2b:c5:1f:5d:78:5b:a2:
                    e2:40:e7:05:84:8a:66:81:52:37:4a:45:97:84:e8:
                    4f:91:ce:ed:7c:02:9c:24:55:19:51:74:47:57:8d:
                    93:ef:fd:1c:2d:7e:6a:89:b1:06:ef:a5:7f:f7:22:
                    84:e8:c4:0b:5e:b0:72:4a:16:fc:67:44:c8:dc:d4:
                    b0:df:a7:dd:a3:4c:c7:d5:c5:bd:60:dd:56:c6:04:
                    f4:35:7a:9e:f1:e5:a7:1a:ff:3a:b6:c6:49:67:fb:
                    96:3e:0f:f4:61:14:05:66:a1:01:20:e0:6f:b8:62:
                    17:ec:b5
                Exponent: 65537 (0x10001)
        X509v3 extensions:
            X509v3 Basic Constraints: 
                CA:FALSE
            Netscape Comment: 
                Easy-RSA Generated Certificate
            X509v3 Subject Key Identifier: 
                FB:BF:8D:71:7E:DA:07:42:EF:24:F3:A5:6B:66:77:63:15:C7:BF:F2
            X509v3 Authority Key Identifier: 
                keyid:12:CD:60:04:D2:A0:80:9E:70:ED:C6:99:B8:7B:2C:C6:52:FD:19:A1
                DirName:/C=US/ST=OH/L=Columbus/O=VikingVPN/OU=MyOrganizationalUnit/CN=VikingVPN CA/name=EasyRSA/emailAddress=me@myhost.mydomain
                serial:CF:35:85:EE:80:BF:2A:3E

            X509v3 Extended Key Usage: 
                TLS Web Client Authentication
            X509v3 Key Usage: 
                Digital Signature
    Signature Algorithm: md5WithRSAEncryption
         e3:13:d9:d7:4e:99:86:6e:22:b3:d4:f4:c9:e7:da:94:fd:e0:
         a4:90:5e:45:4c:74:58:af:53:82:d8:d9:54:71:0a:bb:7a:da:
         cb:c9:7c:56:1f:29:7a:bb:fd:2f:3c:59:d8:a5:7e:9a:dc:19:
         72:1a:7b:39:d6:a3:b0:b4:cd:e5:8b:37:1d:71:15:5e:86:1c:
         e7:8f:74:5d:bd:6f:94:46:08:f4:cd:9d:d6:d7:d4:7b:8a:48:
         83:e1:9e:8a:3e:e9:91:8d:1f:a6:8b:0a:58:88:fc:e9:41:8c:
         68:8d:d1:b0:9a:e3:e5:54:2c:a3:a6:42:b3:0b:43:f8:3f:91:
         ad:26:fa:37:45:15:63:42:9c:7f:35:8b:09:a6:df:b8:ac:42:
         1b:65:c3:a6:40:71:aa:60:21:d0:5e:1b:99:34:a5:af:36:95:
         1c:cc:7b:85:49:75:cd:21:03:2a:69:42:68:31:dd:a9:2f:52:
         f6:a6:a6:b9:a8:39:7f:fa:a7:16:08:f9:28:08:d5:e2:40:17:
         d0:95:54:49:ef:76:29:bc:d7:92:41:c4:1a:86:54:b0:57:6c:
         5a:59:e0:8a:81:e6:15:40:f9:f2:93:f6:af:4e:38:6d:f1:7b:
         c6:fc:46:9c:1f:0f:74:17:8a:46:66:af:84:c6:0d:64:07:62:
         a1:56:88:a7:1a:69:6d:e0:36:7a:5f:e4:79:a3:23:94:50:b0:
         a2:6f:f7:70:66:a9:bc:a6:e8:85:c1:9d:5f:0a:66:5e:e9:50:
         e5:25:e9:fd:f2:e8:9d:94:69:83:b9:87:0e:49:40:ee:b0:9d:
         ab:be:0d:fb:f8:8b:2c:ea:42:9c:ed:dc:bf:a4:3a:5b:37:43:
         07:6c:e1:0c:cb:34:f9:3a:2d:1b:ec:77:bd:b1:1b:bb:80:67:
         a8:d2:15:87:5c:a2:7f:a2:1c:54:d3:52:c5:38:3d:cd:c5:1d:
         66:af:04:7e:9b:d3:15:0a:49:72:fd:8a:45:26:85:54:e2:a4:
         0b:fc:06:a8:57:db:b5:06:b4:86:97:07:a0:c3:85:d9:c5:50:
         7f:67:76:1f:14:8a:ac:e5:4e:2b:bc:4a:75:42:10:99:ad:bb:
         56:9e:ea:10:dc:f1:68:42:f5:7b:ab:30:fe:e2:f7:3c:58:c7:
         f6:80:a7:2a:61:9c:d9:95:f8:0a:ac:9b:30:db:f9:b6:c0:99:
         09:05:d6:b9:9e:62:b4:a2:73:b9:a1:c1:f8:4d:f0:5a:47:a8:
         b5:34:4a:4e:5a:9c:e9:5a:94:93:bb:ac:1a:f7:39:57:76:74:
         80:06:dd:fb:af:e9:2d:19:3f:79:07:79:99:31:c0:dd:ba:cd:
         ee:8b:86:c6:7f:68:f8:a5
-----BEGIN CERTIFICATE-----
MIIGrDCCBJSgAwIBAgICBxMwDQYJKoZIhvcNAQEEBQAwgawxCzAJBgNVBAYTAlVT
MQswCQYDVQQIEwJPSDERMA8GA1UEBxMIQ29sdW1idXMxEjAQBgNVBAoTCVZpa2lu
Z1ZQTjEdMBsGA1UECxMUTXlPcmdhbml6YXRpb25hbFVuaXQxFTATBgNVBAMTDFZp
a2luZ1ZQTiBDQTEQMA4GA1UEKRMHRWFzeVJTQTEhMB8GCSqGSIb3DQEJARYSbWVA
bXlob3N0Lm15ZG9tYWluMB4XDTE0MDUwMzE4Mjg0OVoXDTI0MDQzMDE4Mjg0OVow
HjEcMBoGA1UEAxMTQ2xpZW50MzAzQ2VydDYwNzQ3NTCCAiIwDQYJKoZIhvcNAQEB
BQADggIPADCCAgoCggIBANun5EtBh/QsmeTt2oz02w8kDQpMcI72ZRuVp+Dd8B6I
FsC3si29JhzvLcB2Ow+3Sy9dxreQZSSTHsWyBdj+iMZBeLO4tI8SLoMpe+P1+lBz
JJtegm+WQHiQzvMd5mmIIM/zkRJO5nq9c4V19eIHEesNFwuENIKrVZBwXCneOXVO
nhNHEVg7ouFyVZo3LEl8/2W5M1NiOjdEHOiCNiskIPftN/sk+jRVsbBL+2nOoVLf
mZCXXq78bpec532xPseQC8XyMbziD6jUhMCWJ8LYFDtI+iVTbOiRBm7ydBGHk+pO
j4dXGcq+2iCIb2WgNfSL/JQ5p4hs0XiYNux30chSH/H9wCzUOrVKkeWN8rdVpPKG
C5QfW5+jsbKqv0x+3rOHhwaVjgjgVU0W/cptnnXv97vembe0Wy2rmjkHE3PyTgUI
Z5NsjUAGlo3Kz6MZZ1mHAF305S8ecLIcn1IUx6GFSlacI1qtqii4gA6nZHigr/V+
GGgvnBhKDHIxPln/kUs/4+tot+R930dVLQEce0ErxR9deFui4kDnBYSKZoFSN0pF
l4ToT5HO7XwCnCRVGVF0R1eNk+/9HC1+aomxBu+lf/cihOjEC16wckoW/GdEyNzU
sN+n3aNMx9XFvWDdVsYE9DV6nvHlpxr/OrbGSWf7lj4P9GEUBWahASDgb7hiF+y1
AgMBAAGjggFjMIIBXzAJBgNVHRMEAjAAMC0GCWCGSAGG+EIBDQQgFh5FYXN5LVJT
QSBHZW5lcmF0ZWQgQ2VydGlmaWNhdGUwHQYDVR0OBBYEFPu/jXF+2gdC7yTzpWtm
d2MVx7/yMIHhBgNVHSMEgdkwgdaAFBLNYATSoICecO3Gmbh7LMZS/RmhoYGypIGv
MIGsMQswCQYDVQQGEwJVUzELMAkGA1UECBMCT0gxETAPBgNVBAcTCENvbHVtYnVz
MRIwEAYDVQQKEwlWaWtpbmdWUE4xHTAbBgNVBAsTFE15T3JnYW5pemF0aW9uYWxV
bml0MRUwEwYDVQQDEwxWaWtpbmdWUE4gQ0ExEDAOBgNVBCkTB0Vhc3lSU0ExITAf
BgkqhkiG9w0BCQEWEm1lQG15aG9zdC5teWRvbWFpboIJAM81he6Avyo+MBMGA1Ud
JQQMMAoGCCsGAQUFBwMCMAsGA1UdDwQEAwIHgDANBgkqhkiG9w0BAQQFAAOCAgEA
4xPZ106Zhm4is9T0yefalP3gpJBeRUx0WK9TgtjZVHEKu3ray8l8Vh8perv9LzxZ
2KV+mtwZchp7OdajsLTN5Ys3HXEVXoYc5490Xb1vlEYI9M2d1tfUe4pIg+Geij7p
kY0fposKWIj86UGMaI3RsJrj5VQso6ZCswtD+D+RrSb6N0UVY0KcfzWLCabfuKxC
G2XDpkBxqmAh0F4bmTSlrzaVHMx7hUl1zSEDKmlCaDHdqS9S9qamuag5f/qnFgj5
KAjV4kAX0JVUSe92KbzXkkHEGoZUsFdsWlngioHmFUD58pP2r044bfF7xvxGnB8P
dBeKRmavhMYNZAdioVaIpxppbeA2el/keaMjlFCwom/3cGapvKbohcGdXwpmXulQ
5SXp/fLonZRpg7mHDklA7rCdq74N+/iLLOpCnO3cv6Q6WzdDB2zhDMs0+TotG+x3
vbEbu4BnqNIVh1yif6IcVNNSxTg9zcUdZq8EfpvTFQpJcv2KRSaFVOKkC/wGqFfb
tQa0hpcHoMOF2cVQf2d2HxSKrOVOK7xKdUIQma27Vp7qENzxaEL1e6sw/uL3PFjH
9oCnKmGc2ZX4CqybMNv5tsCZCQXWuZ5itKJzuaHB+E3wWkeotTRKTlqc6VqUk7us
Gvc5V3Z0gAbd+6/pLRk/eQd5mTHA3brN7ouGxn9o+KU=
-----END CERTIFICATE-----
