Certificate:
    Data:
        Version: 3 (0x2)
        Serial Number: 1812 (0x714)
    Signature Algorithm: md5WithRSAEncryption
        Issuer: C=US, ST=OH, L=Columbus, O=VikingVPN, OU=MyOrganizationalUnit, CN=VikingVPN CA/name=EasyRSA/emailAddress=me@myhost.mydomain
        Validity
            Not Before: May  3 18:28:57 2014 GMT
            Not After : Apr 30 18:28:57 2024 GMT
        Subject: CN=Client303Cert98e0b2
        Subject Public Key Info:
            Public Key Algorithm: rsaEncryption
                Public-Key: (4096 bit)
                Modulus:
                    00:bf:4a:3f:69:d5:33:bf:1b:6e:99:8b:88:6b:97:
                    dd:ab:05:ea:97:81:5a:0a:6a:67:0e:c9:bd:02:3e:
                    3d:f6:c0:08:e3:53:b9:04:67:0a:d2:ff:1c:08:20:
                    54:d4:f4:d1:4a:52:ca:e3:63:3e:8b:23:1e:cc:1b:
                    63:48:af:a6:8f:47:a4:c2:61:6e:d0:02:4c:5d:f7:
                    29:0d:78:ce:43:b5:5c:ee:68:c7:16:0e:72:1b:cf:
                    6e:d1:57:c7:ba:57:0d:46:c0:5c:ea:97:99:66:d3:
                    68:75:47:2b:96:37:3c:49:6f:53:31:79:03:75:a5:
                    a7:38:00:ba:dd:9b:85:27:8d:05:67:30:7f:8c:14:
                    b6:06:69:39:b1:ed:6b:b2:c2:cd:90:fe:e4:05:6c:
                    f6:e4:91:79:29:b6:56:60:87:a8:ae:93:de:fd:cd:
                    dd:60:84:46:2a:6f:f4:2f:c2:2b:83:5f:3a:4d:9f:
                    33:af:6e:b6:26:80:f8:c7:98:9f:f7:37:2b:3f:51:
                    94:27:d0:0e:a7:19:27:48:16:fc:4c:cc:d0:65:3e:
                    78:f1:01:f9:9e:74:4f:f1:c8:a4:25:e0:69:bd:66:
                    d8:62:d4:dd:55:48:df:ba:cc:5e:13:7f:90:44:fd:
                    dc:34:08:87:34:15:03:c7:c4:86:19:80:3d:8b:5d:
                    b7:54:6a:ae:05:27:0e:2e:05:94:21:4f:5a:ae:f1:
                    ed:a5:ab:2c:e3:82:e0:ed:01:ca:f4:91:88:ff:15:
                    95:14:e3:a5:ac:06:fd:9a:48:ea:b8:30:18:55:00:
                    c2:96:e9:a1:e7:a6:05:82:ba:51:fd:8f:1a:52:ae:
                    2c:49:93:53:78:41:cb:4c:71:79:37:dd:23:27:e0:
                    ff:84:4b:9e:1f:57:b6:4e:4e:c2:a1:d1:24:a7:0d:
                    0b:b6:ed:0a:55:6c:18:7c:1b:72:8a:19:97:e6:34:
                    1c:c8:54:20:ba:b3:e9:64:6e:59:db:25:44:41:15:
                    c1:b1:16:56:bb:51:40:5d:0c:f8:a4:cf:20:a9:49:
                    84:b5:93:72:cb:9c:ef:70:60:04:03:01:5c:5f:a5:
                    7d:54:49:26:42:ed:0b:c1:ac:08:23:18:64:2e:e0:
                    58:d7:3a:eb:cb:cf:f4:7b:57:c6:b1:cf:9c:e4:ff:
                    43:b2:eb:ab:21:aa:f8:17:98:7d:cd:86:fb:cf:bc:
                    3b:4d:63:25:6f:be:2e:ff:2b:27:ed:ec:d7:ea:b0:
                    b1:cd:6c:06:d3:3f:62:e4:cf:a1:f7:aa:19:95:f7:
                    ce:7b:6c:c9:93:bc:d4:f2:6d:95:11:32:7f:e6:88:
                    91:f9:77:a7:5c:77:98:91:6c:9d:2a:d9:46:50:34:
                    ac:8e:d1
                Exponent: 65537 (0x10001)
        X509v3 extensions:
            X509v3 Basic Constraints: 
                CA:FALSE
            Netscape Comment: 
                Easy-RSA Generated Certificate
            X509v3 Subject Key Identifier: 
                96:E1:B6:1A:FB:40:DC:47:C5:F1:20:33:3C:49:FF:90:3F:0F:78:7C
            X509v3 Authority Key Identifier: 
                keyid:12:CD:60:04:D2:A0:80:9E:70:ED:C6:99:B8:7B:2C:C6:52:FD:19:A1
                DirName:/C=US/ST=OH/L=Columbus/O=VikingVPN/OU=MyOrganizationalUnit/CN=VikingVPN CA/name=EasyRSA/emailAddress=me@myhost.mydomain
                serial:CF:35:85:EE:80:BF:2A:3E

            X509v3 Extended Key Usage: 
                TLS Web Client Authentication
            X509v3 Key Usage: 
                Digital Signature
    Signature Algorithm: md5WithRSAEncryption
         a2:85:92:66:4b:e2:5a:f1:e0:82:53:99:68:3b:b6:f6:c4:bc:
         a5:0a:c1:9f:44:85:e4:45:dc:af:04:8d:08:ca:02:6a:7a:54:
         b3:12:a8:d8:98:9a:14:b0:71:d7:97:32:aa:17:2b:e8:f0:48:
         8f:fb:71:dd:a4:7d:d1:6b:4f:0e:73:88:cc:85:46:09:ca:d8:
         ff:4a:f8:e9:61:f9:4f:79:e9:e9:9d:5d:53:9e:78:64:31:99:
         21:28:19:82:ef:c8:a0:16:93:51:eb:57:3c:f4:88:5c:dd:fe:
         db:18:bb:30:34:bb:4c:73:7c:9b:cf:32:12:b4:37:24:6f:46:
         17:0d:42:3e:3a:27:38:0c:17:16:40:db:bd:9c:c9:e2:10:64:
         b6:22:08:ca:87:5e:3c:66:87:7e:b4:a0:fc:50:97:ad:42:29:
         01:40:8f:84:d3:4d:0e:e3:56:e8:2e:34:e7:5a:c1:be:43:73:
         18:9f:38:13:26:3d:a4:cf:fb:20:e9:53:cb:df:3c:9b:59:4c:
         ef:b5:61:0b:34:bb:22:5c:94:e0:ec:60:56:00:b0:62:3d:95:
         51:d3:85:86:7c:4b:7d:0a:71:fb:67:56:cc:a9:30:2c:05:b9:
         68:04:08:5a:64:16:54:d6:b3:1f:61:d0:a4:49:90:3e:38:49:
         34:a0:83:ae:2e:6f:ec:22:4d:2a:b3:9f:17:f8:ba:7a:53:65:
         da:fa:0d:50:08:d0:e6:65:e5:01:8a:31:f9:d0:73:74:4e:3c:
         20:da:e4:f5:d8:96:31:4c:c9:65:e7:f4:bf:2a:ce:45:3b:3f:
         df:4d:81:cc:6f:d6:ab:26:d5:91:c0:de:6f:45:99:1f:85:77:
         1e:53:d5:72:be:b6:66:32:b0:00:b9:ed:d5:8c:80:c9:51:22:
         ab:e4:3a:8a:b7:c2:e1:aa:b1:f9:eb:98:63:68:fa:aa:16:48:
         5e:a2:e5:df:ec:fd:9e:2d:85:ea:f6:52:59:d1:ac:dd:84:e6:
         08:07:c3:a6:ab:47:3b:fc:13:52:ca:a6:02:88:9d:44:ed:24:
         c4:91:9c:37:b6:07:72:28:3e:51:50:98:c3:8d:c5:30:8b:c4:
         59:24:f8:d7:6a:61:50:9d:e1:a0:1c:2a:e7:bf:b2:da:d3:a2:
         89:60:a7:0d:81:bb:d1:fa:b7:9b:82:69:14:d9:3c:22:75:8d:
         6c:95:ef:a9:92:92:6e:11:33:24:28:b9:0e:f8:b6:39:0c:2e:
         cf:e5:ff:b0:d0:ea:ad:2a:d8:26:25:dd:d1:ed:40:b4:ac:cf:
         5d:9a:a1:cf:4f:8c:63:92:90:79:5f:61:b0:bc:39:a1:cd:5e:
         91:a1:f7:4b:40:db:53:cd
-----BEGIN CERTIFICATE-----
MIIGrDCCBJSgAwIBAgICBxQwDQYJKoZIhvcNAQEEBQAwgawxCzAJBgNVBAYTAlVT
MQswCQYDVQQIEwJPSDERMA8GA1UEBxMIQ29sdW1idXMxEjAQBgNVBAoTCVZpa2lu
Z1ZQTjEdMBsGA1UECxMUTXlPcmdhbml6YXRpb25hbFVuaXQxFTATBgNVBAMTDFZp
a2luZ1ZQTiBDQTEQMA4GA1UEKRMHRWFzeVJTQTEhMB8GCSqGSIb3DQEJARYSbWVA
bXlob3N0Lm15ZG9tYWluMB4XDTE0MDUwMzE4Mjg1N1oXDTI0MDQzMDE4Mjg1N1ow
HjEcMBoGA1UEAxMTQ2xpZW50MzAzQ2VydDk4ZTBiMjCCAiIwDQYJKoZIhvcNAQEB
BQADggIPADCCAgoCggIBAL9KP2nVM78bbpmLiGuX3asF6peBWgpqZw7JvQI+PfbA
CONTuQRnCtL/HAggVNT00UpSyuNjPosjHswbY0ivpo9HpMJhbtACTF33KQ14zkO1
XO5oxxYOchvPbtFXx7pXDUbAXOqXmWbTaHVHK5Y3PElvUzF5A3WlpzgAut2bhSeN
BWcwf4wUtgZpObHta7LCzZD+5AVs9uSReSm2VmCHqK6T3v3N3WCERipv9C/CK4Nf
Ok2fM69utiaA+MeYn/c3Kz9RlCfQDqcZJ0gW/EzM0GU+ePEB+Z50T/HIpCXgab1m
2GLU3VVI37rMXhN/kET93DQIhzQVA8fEhhmAPYtdt1RqrgUnDi4FlCFPWq7x7aWr
LOOC4O0ByvSRiP8VlRTjpawG/ZpI6rgwGFUAwpbpoeemBYK6Uf2PGlKuLEmTU3hB
y0xxeTfdIyfg/4RLnh9Xtk5OwqHRJKcNC7btClVsGHwbcooZl+Y0HMhUILqz6WRu
WdslREEVwbEWVrtRQF0M+KTPIKlJhLWTcsuc73BgBAMBXF+lfVRJJkLtC8GsCCMY
ZC7gWNc668vP9HtXxrHPnOT/Q7LrqyGq+BeYfc2G+8+8O01jJW++Lv8rJ+3s1+qw
sc1sBtM/YuTPofeqGZX3zntsyZO81PJtlREyf+aIkfl3p1x3mJFsnSrZRlA0rI7R
AgMBAAGjggFjMIIBXzAJBgNVHRMEAjAAMC0GCWCGSAGG+EIBDQQgFh5FYXN5LVJT
QSBHZW5lcmF0ZWQgQ2VydGlmaWNhdGUwHQYDVR0OBBYEFJbhthr7QNxHxfEgMzxJ
/5A/D3h8MIHhBgNVHSMEgdkwgdaAFBLNYATSoICecO3Gmbh7LMZS/RmhoYGypIGv
MIGsMQswCQYDVQQGEwJVUzELMAkGA1UECBMCT0gxETAPBgNVBAcTCENvbHVtYnVz
MRIwEAYDVQQKEwlWaWtpbmdWUE4xHTAbBgNVBAsTFE15T3JnYW5pemF0aW9uYWxV
bml0MRUwEwYDVQQDEwxWaWtpbmdWUE4gQ0ExEDAOBgNVBCkTB0Vhc3lSU0ExITAf
BgkqhkiG9w0BCQEWEm1lQG15aG9zdC5teWRvbWFpboIJAM81he6Avyo+MBMGA1Ud
JQQMMAoGCCsGAQUFBwMCMAsGA1UdDwQEAwIHgDANBgkqhkiG9w0BAQQFAAOCAgEA
ooWSZkviWvHgglOZaDu29sS8pQrBn0SF5EXcrwSNCMoCanpUsxKo2JiaFLBx15cy
qhcr6PBIj/tx3aR90WtPDnOIzIVGCcrY/0r46WH5T3np6Z1dU554ZDGZISgZgu/I
oBaTUetXPPSIXN3+2xi7MDS7THN8m88yErQ3JG9GFw1CPjonOAwXFkDbvZzJ4hBk
tiIIyodePGaHfrSg/FCXrUIpAUCPhNNNDuNW6C4051rBvkNzGJ84EyY9pM/7IOlT
y988m1lM77VhCzS7IlyU4OxgVgCwYj2VUdOFhnxLfQpx+2dWzKkwLAW5aAQIWmQW
VNazH2HQpEmQPjhJNKCDri5v7CJNKrOfF/i6elNl2voNUAjQ5mXlAYox+dBzdE48
INrk9diWMUzJZef0vyrORTs/302BzG/WqybVkcDeb0WZH4V3HlPVcr62ZjKwALnt
1YyAyVEiq+Q6irfC4aqx+euYY2j6qhZIXqLl3+z9ni2F6vZSWdGs3YTmCAfDpqtH
O/wTUsqmAoidRO0kxJGcN7YHcig+UVCYw43FMIvEWST412phUJ3hoBwq57+y2tOi
iWCnDYG70fq3m4JpFNk8InWNbJXvqZKSbhEzJCi5Dvi2OQwuz+X/sNDqrSrYJiXd
0e1AtKzPXZqhz0+MY5KQeV9hsLw5oc1ekaH3S0DbU80=
-----END CERTIFICATE-----
