Certificate:
    Data:
        Version: 3 (0x2)
        Serial Number: 1813 (0x715)
    Signature Algorithm: md5WithRSAEncryption
        Issuer: C=US, ST=OH, L=Columbus, O=VikingVPN, OU=MyOrganizationalUnit, CN=VikingVPN CA/name=EasyRSA/emailAddress=me@myhost.mydomain
        Validity
            Not Before: May  4 10:28:02 2014 GMT
            Not After : May  1 10:28:02 2024 GMT
        Subject: CN=Client635Cert45341c
        Subject Public Key Info:
            Public Key Algorithm: rsaEncryption
                Public-Key: (4096 bit)
                Modulus:
                    00:d0:4d:b6:2e:30:ad:aa:c7:2c:4d:5a:9a:fd:e7:
                    7f:ec:c9:d6:db:cb:ce:84:23:78:be:f4:90:34:0b:
                    6f:58:5f:9c:d6:65:81:54:de:48:0e:72:ba:0e:1f:
                    0d:d9:c8:c1:08:9b:f7:d3:c9:a2:3a:fd:7f:13:cb:
                    0b:3c:e3:74:c5:eb:c6:14:ca:c2:3e:5f:c4:67:8b:
                    e2:d8:74:df:7d:53:7e:ef:4b:15:0e:fb:ad:bf:11:
                    83:4a:e1:21:7c:53:61:b6:42:e2:fe:76:22:12:92:
                    22:ac:19:af:1d:b9:6f:78:d4:97:32:11:8b:8b:01:
                    fd:fb:42:47:65:0a:cf:50:0a:3e:75:7e:f6:be:8c:
                    d0:7c:c6:a9:e4:06:58:49:75:72:e8:f2:d4:2c:bd:
                    e1:27:82:81:85:76:5d:63:de:b7:38:b7:b6:0c:bd:
                    37:a4:08:56:0e:95:60:e5:21:73:21:e4:45:a5:37:
                    91:b6:de:92:89:bb:a0:08:1f:61:7c:1b:74:9f:f2:
                    0e:a4:d7:f2:11:56:9f:30:40:0c:a5:01:40:2f:9e:
                    01:77:86:74:c0:d5:48:3b:ec:6c:ae:37:fd:0f:59:
                    d3:68:8e:f8:b6:15:ce:b0:ce:05:e2:13:44:a8:08:
                    d1:e1:55:77:3f:7a:34:fb:78:af:8c:06:ee:37:79:
                    8b:5a:cd:e2:19:b0:b8:bb:dd:13:34:3f:c1:86:04:
                    55:27:23:2b:00:be:22:5d:49:38:55:44:bf:c8:74:
                    f4:9f:85:2c:52:a8:dd:c2:35:fd:18:4a:ff:81:b2:
                    15:76:5c:70:7f:16:cb:93:96:82:bf:87:fb:cf:33:
                    f9:5a:7f:6e:ab:06:f5:77:ee:cf:f8:72:89:c2:1f:
                    26:c3:4f:79:59:7a:78:df:88:d6:15:22:56:65:68:
                    cd:7c:64:89:ad:fe:40:6b:61:74:e4:4c:50:1b:e3:
                    24:25:b5:d8:42:da:96:b1:0c:bc:0e:70:47:d1:10:
                    67:b7:ef:89:0e:5d:6a:6e:07:34:9d:a5:c7:4e:83:
                    17:9e:1a:90:fc:c1:8f:c8:5f:53:db:64:39:f8:bc:
                    63:b2:20:1c:15:e7:27:c9:fb:74:f8:5b:c4:f7:c5:
                    e2:86:bf:dc:fa:26:dd:a6:9c:51:a7:ae:4b:0a:9d:
                    cc:c2:b4:18:b5:3f:17:e5:b7:68:b3:ea:54:74:8b:
                    66:ce:08:4d:44:19:94:2b:e9:6b:21:85:b4:3c:5e:
                    d4:a4:0e:6f:26:c4:86:5a:d4:e9:7e:fb:d0:58:f1:
                    b1:3f:9f:7a:82:7d:a3:c1:bb:52:b9:75:80:3c:9e:
                    9b:b9:ca:3b:d8:30:1a:1d:59:48:40:90:9e:7d:76:
                    15:f0:97
                Exponent: 65537 (0x10001)
        X509v3 extensions:
            X509v3 Basic Constraints: 
                CA:FALSE
            Netscape Comment: 
                Easy-RSA Generated Certificate
            X509v3 Subject Key Identifier: 
                A0:F5:D1:AA:6D:A4:07:F5:23:D0:9C:F5:B0:9C:FB:65:E1:AD:78:CC
            X509v3 Authority Key Identifier: 
                keyid:12:CD:60:04:D2:A0:80:9E:70:ED:C6:99:B8:7B:2C:C6:52:FD:19:A1
                DirName:/C=US/ST=OH/L=Columbus/O=VikingVPN/OU=MyOrganizationalUnit/CN=VikingVPN CA/name=EasyRSA/emailAddress=me@myhost.mydomain
                serial:CF:35:85:EE:80:BF:2A:3E

            X509v3 Extended Key Usage: 
                TLS Web Client Authentication
            X509v3 Key Usage: 
                Digital Signature
    Signature Algorithm: md5WithRSAEncryption
         7e:11:d9:9f:4a:83:e0:54:17:c7:da:23:51:2f:b5:3c:82:79:
         af:a0:51:07:e9:c1:69:06:6f:1a:9f:a6:5f:5d:75:74:f8:4d:
         30:3f:8f:b8:00:a3:f7:20:31:b7:c3:f7:2d:1f:17:ab:3f:96:
         51:61:40:40:5f:05:10:a2:63:b9:88:e9:5a:41:c7:47:7b:58:
         90:ad:6d:6a:30:be:8f:7e:99:37:07:00:4a:64:b1:f6:83:53:
         5d:26:fc:ea:88:83:c3:df:bd:16:f5:ea:00:23:d1:44:57:f2:
         65:64:b0:7d:b6:02:93:40:fa:68:e5:54:a0:54:d9:9d:aa:fc:
         f7:52:d5:5a:e5:e1:88:54:18:1c:25:39:8c:76:87:de:9f:a1:
         33:4c:48:0e:97:c3:59:ca:57:e8:66:e2:e5:0d:85:4e:8e:36:
         58:46:94:1b:1b:17:5d:18:b1:60:49:54:20:fc:ba:69:ce:25:
         dc:98:e8:89:ac:f5:91:8c:1c:72:c3:5f:63:ea:d7:53:5c:3c:
         71:c9:8c:13:59:ed:f0:61:99:a9:34:e7:46:12:6b:39:07:ac:
         3a:ca:f3:c4:93:85:bd:c7:74:7e:42:e4:53:fc:d9:83:d2:5a:
         9c:13:61:d8:ab:8b:54:ce:17:ba:a4:0c:7e:ce:f7:08:49:37:
         4c:e4:f3:35:ae:42:9d:5f:f3:8a:92:a5:a6:a2:41:86:01:90:
         62:87:cf:cb:0a:28:d6:10:2b:31:f6:45:c9:0a:97:96:7a:06:
         bf:3c:6c:64:b6:cf:f0:3d:5e:9b:f7:f2:9b:2f:00:9b:5d:a4:
         f3:0d:bb:59:59:96:ed:f5:d1:85:a0:4d:cd:06:ea:48:0b:6a:
         77:d9:4f:50:23:f8:16:8b:57:e5:d7:41:42:34:1a:ca:27:f9:
         27:37:e8:48:fb:01:5a:b4:96:7f:9e:fe:f2:8c:d4:10:49:9c:
         b8:7d:d2:06:b6:df:93:c1:03:9f:fa:bf:4f:85:85:c8:9a:4b:
         e9:6e:36:ee:a8:7d:44:3f:d7:81:84:61:09:97:68:67:c8:84:
         48:c8:c3:a5:d2:c8:f5:58:04:9a:54:4a:89:f2:60:69:3d:96:
         79:30:27:87:83:60:c9:38:33:df:42:f3:e2:55:f0:ea:1a:4c:
         a1:b5:ef:6f:4c:36:22:97:f7:45:ec:2e:78:95:ac:a3:3c:96:
         73:da:0b:e5:30:57:25:63:f6:69:6f:84:66:a4:dd:18:a5:80:
         1b:e9:9b:55:e9:07:e8:db:b3:56:91:ea:c3:bd:97:18:0d:f9:
         a7:10:67:ee:b2:c3:4b:c7:3b:40:1d:f9:50:94:15:31:e4:5a:
         04:17:4f:12:ff:a8:bb:51
-----BEGIN CERTIFICATE-----
MIIGrDCCBJSgAwIBAgICBxUwDQYJKoZIhvcNAQEEBQAwgawxCzAJBgNVBAYTAlVT
MQswCQYDVQQIEwJPSDERMA8GA1UEBxMIQ29sdW1idXMxEjAQBgNVBAoTCVZpa2lu
Z1ZQTjEdMBsGA1UECxMUTXlPcmdhbml6YXRpb25hbFVuaXQxFTATBgNVBAMTDFZp
a2luZ1ZQTiBDQTEQMA4GA1UEKRMHRWFzeVJTQTEhMB8GCSqGSIb3DQEJARYSbWVA
bXlob3N0Lm15ZG9tYWluMB4XDTE0MDUwNDEwMjgwMloXDTI0MDUwMTEwMjgwMlow
HjEcMBoGA1UEAxMTQ2xpZW50NjM1Q2VydDQ1MzQxYzCCAiIwDQYJKoZIhvcNAQEB
BQADggIPADCCAgoCggIBANBNti4wrarHLE1amv3nf+zJ1tvLzoQjeL70kDQLb1hf
nNZlgVTeSA5yug4fDdnIwQib99PJojr9fxPLCzzjdMXrxhTKwj5fxGeL4th0331T
fu9LFQ77rb8Rg0rhIXxTYbZC4v52IhKSIqwZrx25b3jUlzIRi4sB/ftCR2UKz1AK
PnV+9r6M0HzGqeQGWEl1cujy1Cy94SeCgYV2XWPetzi3tgy9N6QIVg6VYOUhcyHk
RaU3kbbekom7oAgfYXwbdJ/yDqTX8hFWnzBADKUBQC+eAXeGdMDVSDvsbK43/Q9Z
02iO+LYVzrDOBeITRKgI0eFVdz96NPt4r4wG7jd5i1rN4hmwuLvdEzQ/wYYEVScj
KwC+Il1JOFVEv8h09J+FLFKo3cI1/RhK/4GyFXZccH8Wy5OWgr+H+88z+Vp/bqsG
9Xfuz/hyicIfJsNPeVl6eN+I1hUiVmVozXxkia3+QGthdORMUBvjJCW12ELalrEM
vA5wR9EQZ7fviQ5dam4HNJ2lx06DF54akPzBj8hfU9tkOfi8Y7IgHBXnJ8n7dPhb
xPfF4oa/3Pom3aacUaeuSwqdzMK0GLU/F+W3aLPqVHSLZs4ITUQZlCvpayGFtDxe
1KQObybEhlrU6X770FjxsT+feoJ9o8G7Url1gDyem7nKO9gwGh1ZSECQnn12FfCX
AgMBAAGjggFjMIIBXzAJBgNVHRMEAjAAMC0GCWCGSAGG+EIBDQQgFh5FYXN5LVJT
QSBHZW5lcmF0ZWQgQ2VydGlmaWNhdGUwHQYDVR0OBBYEFKD10aptpAf1I9Cc9bCc
+2XhrXjMMIHhBgNVHSMEgdkwgdaAFBLNYATSoICecO3Gmbh7LMZS/RmhoYGypIGv
MIGsMQswCQYDVQQGEwJVUzELMAkGA1UECBMCT0gxETAPBgNVBAcTCENvbHVtYnVz
MRIwEAYDVQQKEwlWaWtpbmdWUE4xHTAbBgNVBAsTFE15T3JnYW5pemF0aW9uYWxV
bml0MRUwEwYDVQQDEwxWaWtpbmdWUE4gQ0ExEDAOBgNVBCkTB0Vhc3lSU0ExITAf
BgkqhkiG9w0BCQEWEm1lQG15aG9zdC5teWRvbWFpboIJAM81he6Avyo+MBMGA1Ud
JQQMMAoGCCsGAQUFBwMCMAsGA1UdDwQEAwIHgDANBgkqhkiG9w0BAQQFAAOCAgEA
fhHZn0qD4FQXx9ojUS+1PIJ5r6BRB+nBaQZvGp+mX111dPhNMD+PuACj9yAxt8P3
LR8Xqz+WUWFAQF8FEKJjuYjpWkHHR3tYkK1tajC+j36ZNwcASmSx9oNTXSb86oiD
w9+9FvXqACPRRFfyZWSwfbYCk0D6aOVUoFTZnar891LVWuXhiFQYHCU5jHaH3p+h
M0xIDpfDWcpX6Gbi5Q2FTo42WEaUGxsXXRixYElUIPy6ac4l3Jjoiaz1kYwccsNf
Y+rXU1w8ccmME1nt8GGZqTTnRhJrOQesOsrzxJOFvcd0fkLkU/zZg9JanBNh2KuL
VM4XuqQMfs73CEk3TOTzNa5CnV/zipKlpqJBhgGQYofPywoo1hArMfZFyQqXlnoG
vzxsZLbP8D1em/fymy8Am12k8w27WVmW7fXRhaBNzQbqSAtqd9lPUCP4FotX5ddB
QjQayif5JzfoSPsBWrSWf57+8ozUEEmcuH3SBrbfk8EDn/q/T4WFyJpL6W427qh9
RD/XgYRhCZdoZ8iESMjDpdLI9VgEmlRKifJgaT2WeTAnh4NgyTgz30Lz4lXw6hpM
obXvb0w2Ipf3RewueJWsozyWc9oL5TBXJWP2aW+EZqTdGKWAG+mbVekH6NuzVpHq
w72XGA35pxBn7rLDS8c7QB35UJQVMeRaBBdPEv+ou1E=
-----END CERTIFICATE-----
