Certificate:
    Data:
        Version: 3 (0x2)
        Serial Number: 1814 (0x716)
    Signature Algorithm: md5WithRSAEncryption
        Issuer: C=US, ST=OH, L=Columbus, O=VikingVPN, OU=MyOrganizationalUnit, CN=VikingVPN CA/name=EasyRSA/emailAddress=me@myhost.mydomain
        Validity
            Not Before: May  4 10:29:52 2014 GMT
            Not After : May  1 10:29:52 2024 GMT
        Subject: CN=Client635Cert4eb727
        Subject Public Key Info:
            Public Key Algorithm: rsaEncryption
                Public-Key: (4096 bit)
                Modulus:
                    00:bb:cc:9a:94:dd:67:49:e1:06:cd:f6:34:4e:05:
                    f4:fa:0d:1f:7b:6e:90:b5:42:e7:b3:04:70:99:17:
                    d1:70:15:eb:98:f8:7a:75:4b:70:c4:69:6d:66:0d:
                    fe:be:96:a3:bc:03:7b:f4:50:14:bd:cc:ce:f3:16:
                    de:7a:d5:78:9a:19:c0:3e:9d:96:8a:1f:dd:37:af:
                    a7:36:c9:d9:5f:ff:7f:91:17:ec:bd:25:3c:cc:68:
                    2e:ba:ac:9a:cf:a8:9d:ab:5c:b4:b4:8f:c6:27:e0:
                    e2:a0:26:65:c8:f5:b2:22:6e:af:b0:12:d5:ff:e2:
                    f7:39:6f:67:13:ee:37:96:60:30:0f:5d:dc:2e:d5:
                    70:b4:59:89:46:db:f2:58:0e:0f:f8:71:5c:6c:c0:
                    2f:58:e5:26:5b:9c:d0:c9:1f:42:4d:6f:e7:de:4b:
                    fe:57:4c:4d:a7:a9:69:b4:b8:a7:30:bb:cd:c5:fd:
                    a9:54:78:0f:7f:c5:9a:4e:f3:d3:c3:9b:6f:23:9c:
                    39:8a:f6:95:3a:a5:ac:a8:2c:b2:2d:38:79:4e:47:
                    fc:64:f1:15:d0:8f:fe:95:2c:b9:89:9c:0b:b1:69:
                    00:8c:79:36:cf:14:fb:af:51:39:c5:86:30:7a:b9:
                    88:e0:23:63:b7:51:83:c7:c3:f1:c3:0a:3f:7d:0d:
                    24:25:03:8d:2c:ac:0c:93:52:03:29:94:5e:53:00:
                    25:a1:13:59:95:b6:af:5b:c6:92:3a:db:ba:32:e7:
                    27:ad:e7:76:72:bb:49:d7:98:32:f9:5e:c1:76:1d:
                    aa:5b:b1:83:0e:eb:3d:1f:dd:01:e2:a1:41:88:f7:
                    a0:5d:94:f2:a8:98:6b:20:fc:00:41:3a:34:54:47:
                    e7:a6:b5:c6:7e:3c:04:53:9c:a2:15:0e:00:fe:0d:
                    bb:25:73:a2:5c:88:e7:46:ab:3c:fb:be:85:3b:d9:
                    8a:8e:41:c6:c8:3d:7f:e4:a8:74:f2:34:54:a7:ee:
                    6a:58:15:56:46:c0:ca:5d:e7:b1:4b:78:82:b3:a5:
                    ff:ff:78:00:54:ae:ce:db:1e:08:74:84:c9:fa:40:
                    4d:87:f4:9e:46:3a:aa:23:4d:a3:14:18:f8:1a:7c:
                    86:8c:75:3a:c6:1f:be:4c:77:22:d0:d0:fe:9e:30:
                    bb:6d:fe:2c:99:b8:24:d6:f0:33:27:18:e2:a6:62:
                    59:50:fe:20:05:71:16:7d:90:77:b4:b2:ef:06:14:
                    3c:87:01:89:12:63:2e:7d:e4:07:84:0b:a4:98:d0:
                    ad:bc:e0:60:21:0e:0a:ce:0c:71:6e:25:d7:28:b5:
                    23:f3:cb:b1:07:7e:92:30:e7:ec:8d:51:e1:28:40:
                    59:a4:fb
                Exponent: 65537 (0x10001)
        X509v3 extensions:
            X509v3 Basic Constraints: 
                CA:FALSE
            Netscape Comment: 
                Easy-RSA Generated Certificate
            X509v3 Subject Key Identifier: 
                EA:85:FB:61:28:33:E8:41:1F:A7:9E:92:90:84:A8:53:D5:98:62:BB
            X509v3 Authority Key Identifier: 
                keyid:12:CD:60:04:D2:A0:80:9E:70:ED:C6:99:B8:7B:2C:C6:52:FD:19:A1
                DirName:/C=US/ST=OH/L=Columbus/O=VikingVPN/OU=MyOrganizationalUnit/CN=VikingVPN CA/name=EasyRSA/emailAddress=me@myhost.mydomain
                serial:CF:35:85:EE:80:BF:2A:3E

            X509v3 Extended Key Usage: 
                TLS Web Client Authentication
            X509v3 Key Usage: 
                Digital Signature
    Signature Algorithm: md5WithRSAEncryption
         4a:61:02:30:8f:30:31:4f:33:0e:60:12:a4:aa:2f:94:cd:97:
         8c:c0:5b:6d:e2:ba:c9:eb:7e:f0:b6:13:99:5b:b7:ac:a0:b1:
         81:50:da:fd:b8:de:92:24:48:34:49:1f:70:37:0f:0e:a8:9b:
         fe:44:48:f5:f3:57:cf:a7:59:06:2d:8a:72:f9:ff:bc:98:2b:
         6a:62:94:16:ac:d4:93:e8:ac:99:16:fb:03:bb:c1:85:63:6b:
         96:95:b0:ff:94:9d:11:f1:e4:3e:7b:7f:05:f7:ed:dc:19:7b:
         98:f0:2d:b0:ff:4e:5b:f3:93:35:ad:ec:22:f1:c3:56:eb:cf:
         4f:71:0c:38:e7:74:63:88:e0:92:f9:cc:bc:39:3b:c3:59:d5:
         6e:b7:c9:93:7d:f5:a0:14:3b:d0:3d:53:48:34:e9:af:f4:01:
         13:4f:27:5e:92:4b:06:da:7c:f9:e1:41:5e:42:22:6f:2a:04:
         07:ac:5b:48:f4:b2:ed:cd:f2:f5:5d:e3:b6:a2:a2:73:a0:db:
         36:a5:b5:a5:c6:8c:ba:79:e0:0d:2b:e0:57:75:d6:45:26:cf:
         d2:2b:1c:4d:cf:c0:af:2d:7e:8b:73:0e:08:ad:3d:86:ba:57:
         7f:0a:d3:8d:40:26:79:df:1c:ce:5b:dc:18:0f:1f:2b:45:34:
         e1:89:38:f3:1e:8e:d3:45:23:46:84:7d:c9:05:a8:c5:68:6d:
         ae:1e:83:77:13:82:6c:57:c2:a1:54:52:87:f9:20:5d:90:60:
         e5:92:6f:db:10:5d:a4:df:67:76:e4:de:2e:b6:5d:37:c1:8c:
         23:bf:55:70:e0:a5:ac:68:a6:ff:b8:03:6c:ac:04:91:53:50:
         d1:5f:a1:6d:20:1f:20:77:84:ed:af:b3:41:44:ce:dc:a3:69:
         f8:60:ca:28:b8:b9:86:ce:c8:6d:5a:d5:32:cf:27:07:a9:71:
         1b:96:9e:b2:3b:95:41:5d:ba:3b:e5:3b:88:ea:49:26:ab:d1:
         09:b1:4c:4a:2b:74:85:9b:e3:c4:71:aa:13:77:32:82:8c:8a:
         a1:b1:84:a7:81:65:a3:77:a7:b1:2f:34:5e:87:72:f3:82:c9:
         1c:b3:0a:44:83:ea:05:e8:2d:6b:17:f0:76:55:43:03:61:f0:
         74:95:e9:68:99:fa:7e:4d:5a:de:ae:b4:ff:70:1f:bd:83:2b:
         93:05:96:7d:35:35:42:37:1b:6f:f5:86:e2:ce:b4:f3:aa:88:
         76:94:06:d0:51:76:24:ff:44:3c:62:c2:7d:98:b8:20:18:13:
         24:94:a5:1a:11:c1:02:df:4a:de:c1:97:b5:eb:80:d0:56:92:
         2c:3a:0c:50:35:17:45:1b
-----BEGIN CERTIFICATE-----
MIIGrDCCBJSgAwIBAgICBxYwDQYJKoZIhvcNAQEEBQAwgawxCzAJBgNVBAYTAlVT
MQswCQYDVQQIEwJPSDERMA8GA1UEBxMIQ29sdW1idXMxEjAQBgNVBAoTCVZpa2lu
Z1ZQTjEdMBsGA1UECxMUTXlPcmdhbml6YXRpb25hbFVuaXQxFTATBgNVBAMTDFZp
a2luZ1ZQTiBDQTEQMA4GA1UEKRMHRWFzeVJTQTEhMB8GCSqGSIb3DQEJARYSbWVA
bXlob3N0Lm15ZG9tYWluMB4XDTE0MDUwNDEwMjk1MloXDTI0MDUwMTEwMjk1Mlow
HjEcMBoGA1UEAxMTQ2xpZW50NjM1Q2VydDRlYjcyNzCCAiIwDQYJKoZIhvcNAQEB
BQADggIPADCCAgoCggIBALvMmpTdZ0nhBs32NE4F9PoNH3tukLVC57MEcJkX0XAV
65j4enVLcMRpbWYN/r6Wo7wDe/RQFL3MzvMW3nrVeJoZwD6dloof3TevpzbJ2V//
f5EX7L0lPMxoLrqsms+onatctLSPxifg4qAmZcj1siJur7AS1f/i9zlvZxPuN5Zg
MA9d3C7VcLRZiUbb8lgOD/hxXGzAL1jlJluc0MkfQk1v595L/ldMTaepabS4pzC7
zcX9qVR4D3/Fmk7z08ObbyOcOYr2lTqlrKgssi04eU5H/GTxFdCP/pUsuYmcC7Fp
AIx5Ns8U+69ROcWGMHq5iOAjY7dRg8fD8cMKP30NJCUDjSysDJNSAymUXlMAJaET
WZW2r1vGkjrbujLnJ63ndnK7SdeYMvlewXYdqluxgw7rPR/dAeKhQYj3oF2U8qiY
ayD8AEE6NFRH56a1xn48BFOcohUOAP4NuyVzolyI50arPPu+hTvZio5Bxsg9f+So
dPI0VKfualgVVkbAyl3nsUt4grOl//94AFSuztseCHSEyfpATYf0nkY6qiNNoxQY
+Bp8hox1OsYfvkx3ItDQ/p4wu23+LJm4JNbwMycY4qZiWVD+IAVxFn2Qd7Sy7wYU
PIcBiRJjLn3kB4QLpJjQrbzgYCEOCs4McW4l1yi1I/PLsQd+kjDn7I1R4ShAWaT7
AgMBAAGjggFjMIIBXzAJBgNVHRMEAjAAMC0GCWCGSAGG+EIBDQQgFh5FYXN5LVJT
QSBHZW5lcmF0ZWQgQ2VydGlmaWNhdGUwHQYDVR0OBBYEFOqF+2EoM+hBH6eekpCE
qFPVmGK7MIHhBgNVHSMEgdkwgdaAFBLNYATSoICecO3Gmbh7LMZS/RmhoYGypIGv
MIGsMQswCQYDVQQGEwJVUzELMAkGA1UECBMCT0gxETAPBgNVBAcTCENvbHVtYnVz
MRIwEAYDVQQKEwlWaWtpbmdWUE4xHTAbBgNVBAsTFE15T3JnYW5pemF0aW9uYWxV
bml0MRUwEwYDVQQDEwxWaWtpbmdWUE4gQ0ExEDAOBgNVBCkTB0Vhc3lSU0ExITAf
BgkqhkiG9w0BCQEWEm1lQG15aG9zdC5teWRvbWFpboIJAM81he6Avyo+MBMGA1Ud
JQQMMAoGCCsGAQUFBwMCMAsGA1UdDwQEAwIHgDANBgkqhkiG9w0BAQQFAAOCAgEA
SmECMI8wMU8zDmASpKovlM2XjMBbbeK6yet+8LYTmVu3rKCxgVDa/bjekiRINEkf
cDcPDqib/kRI9fNXz6dZBi2Kcvn/vJgramKUFqzUk+ismRb7A7vBhWNrlpWw/5Sd
EfHkPnt/Bfft3Bl7mPAtsP9OW/OTNa3sIvHDVuvPT3EMOOd0Y4jgkvnMvDk7w1nV
brfJk331oBQ70D1TSDTpr/QBE08nXpJLBtp8+eFBXkIibyoEB6xbSPSy7c3y9V3j
tqKic6DbNqW1pcaMunngDSvgV3XWRSbP0iscTc/Ary1+i3MOCK09hrpXfwrTjUAm
ed8czlvcGA8fK0U04Yk48x6O00UjRoR9yQWoxWhtrh6DdxOCbFfCoVRSh/kgXZBg
5ZJv2xBdpN9nduTeLrZdN8GMI79VcOClrGim/7gDbKwEkVNQ0V+hbSAfIHeE7a+z
QUTO3KNp+GDKKLi5hs7IbVrVMs8nB6lxG5aesjuVQV26O+U7iOpJJqvRCbFMSit0
hZvjxHGqE3cygoyKobGEp4Flo3ensS80Xody84LJHLMKRIPqBegtaxfwdlVDA2Hw
dJXpaJn6fk1a3q60/3AfvYMrkwWWfTU1Qjcbb/WG4s6086qIdpQG0FF2JP9EPGLC
fZi4IBgTJJSlGhHBAt9K3sGXteuA0FaSLDoMUDUXRRs=
-----END CERTIFICATE-----
