Certificate:
    Data:
        Version: 3 (0x2)
        Serial Number: 1818 (0x71a)
    Signature Algorithm: md5WithRSAEncryption
        Issuer: C=US, ST=OH, L=Columbus, O=VikingVPN, OU=MyOrganizationalUnit, CN=VikingVPN CA/name=EasyRSA/emailAddress=me@myhost.mydomain
        Validity
            Not Before: May  4 19:57:02 2014 GMT
            Not After : May  1 19:57:02 2024 GMT
        Subject: CN=Client388Cert51fddb
        Subject Public Key Info:
            Public Key Algorithm: rsaEncryption
                Public-Key: (4096 bit)
                Modulus:
                    00:b5:1d:8b:64:92:ff:4b:75:54:9b:53:57:bb:2e:
                    15:a5:47:b3:c8:cf:f9:6c:86:da:62:fa:c9:20:31:
                    95:36:fc:21:0e:0c:23:36:bd:2b:d1:51:cd:5f:cc:
                    45:39:91:32:a5:8f:c8:4b:f3:65:86:9c:05:5f:0c:
                    52:96:7c:2d:65:a3:c5:a5:43:f7:27:9b:f8:d6:12:
                    39:38:14:80:44:b5:6e:b2:02:2f:17:b8:65:96:9b:
                    4e:02:59:2e:39:f4:72:da:1c:5c:1b:5a:b6:b8:da:
                    30:02:2f:02:30:5d:a9:64:74:9e:99:0f:b1:bb:d5:
                    d0:a8:7e:e5:fd:81:ea:b0:d7:dd:30:7c:c8:8c:46:
                    9b:98:7f:1f:2c:b6:2b:76:56:5b:50:91:34:33:98:
                    c4:f0:7f:60:c1:b5:58:14:ba:c2:8e:7b:ae:44:88:
                    98:1a:0e:6a:51:d8:52:ab:3b:51:ba:d3:a9:6f:78:
                    1d:8f:77:5d:62:d6:de:2f:bd:04:43:51:ac:94:47:
                    d1:a3:93:55:1f:91:45:2b:84:04:a6:8b:1e:40:d8:
                    86:a0:1f:dc:94:85:3a:fc:b3:69:cf:ac:46:3f:68:
                    a5:f7:6a:61:ce:58:4a:f3:8f:20:00:c4:80:3a:58:
                    f3:18:ce:3c:39:6d:2d:52:39:50:c9:d5:13:17:83:
                    e3:d9:b6:da:2c:8e:47:52:08:a7:21:02:fa:ad:1b:
                    64:6e:5d:96:7e:e0:6a:fe:53:97:4d:c7:b0:f1:06:
                    f0:01:c1:7e:e8:1e:19:69:11:22:42:99:77:b8:25:
                    12:cf:ed:ec:27:ae:50:05:79:eb:06:c8:66:1e:c9:
                    26:70:10:1c:7a:40:f5:16:39:cf:f3:c3:f6:29:6b:
                    20:36:fd:17:d5:9c:96:23:44:af:f5:bb:1e:c3:d6:
                    64:73:69:fc:21:2e:97:a5:2b:72:75:21:ba:00:33:
                    c3:c7:2f:4f:aa:87:bf:98:19:f4:39:6d:46:87:42:
                    0a:e5:a1:bd:0f:d8:e5:0d:f4:2f:2c:8e:d9:bc:d2:
                    42:3f:4f:34:7c:a7:bd:a0:23:d2:23:ce:58:bb:54:
                    7a:1a:7f:37:db:e4:fb:ac:47:76:13:f6:df:11:54:
                    1e:0c:d4:eb:ea:48:df:8c:13:9e:1a:73:7e:c5:3e:
                    2e:fc:0e:27:a5:6a:73:e0:5b:8b:d1:10:7f:6e:b2:
                    68:43:c9:4a:2d:23:d7:94:5c:15:0c:0c:bb:9a:92:
                    a6:5f:1f:a5:c6:1c:07:b1:8e:c8:d0:e7:0f:38:14:
                    ca:3c:4b:c2:f6:9b:d1:98:32:f2:94:8b:02:15:c7:
                    52:f1:6e:b8:7a:5b:0a:73:dc:ef:d4:e8:a8:e6:b5:
                    4d:39:a9
                Exponent: 65537 (0x10001)
        X509v3 extensions:
            X509v3 Basic Constraints: 
                CA:FALSE
            Netscape Comment: 
                Easy-RSA Generated Certificate
            X509v3 Subject Key Identifier: 
                D6:DE:B8:85:8F:89:68:C8:5B:4F:EB:A3:C9:D5:05:E4:64:81:29:5A
            X509v3 Authority Key Identifier: 
                keyid:12:CD:60:04:D2:A0:80:9E:70:ED:C6:99:B8:7B:2C:C6:52:FD:19:A1
                DirName:/C=US/ST=OH/L=Columbus/O=VikingVPN/OU=MyOrganizationalUnit/CN=VikingVPN CA/name=EasyRSA/emailAddress=me@myhost.mydomain
                serial:CF:35:85:EE:80:BF:2A:3E

            X509v3 Extended Key Usage: 
                TLS Web Client Authentication
            X509v3 Key Usage: 
                Digital Signature
    Signature Algorithm: md5WithRSAEncryption
         84:76:c1:66:34:05:ac:85:a7:41:d4:c0:d7:58:9b:14:6b:8f:
         7b:a7:f2:33:a8:bd:d8:da:c0:51:a6:40:e2:f3:ae:75:ce:8d:
         e4:68:86:22:80:64:86:cf:74:8d:34:d5:1b:9a:0c:e0:c3:60:
         b3:fe:8b:0d:b8:b1:d6:c8:1d:27:e0:c5:6f:66:7e:f2:9e:45:
         8b:91:5f:71:3b:ad:07:85:2f:77:da:31:81:4c:c5:83:57:8a:
         65:19:ef:58:64:a4:da:4c:e2:87:c7:74:c6:c4:77:6d:f5:c0:
         a5:ac:7e:8b:f4:61:02:4b:40:17:a3:15:52:ab:43:23:43:d4:
         7b:51:12:ab:19:3a:e8:c1:4b:36:5c:88:cc:c7:26:46:68:77:
         92:9d:4c:7b:c2:bd:c8:1d:c4:ec:d6:f3:a7:6a:85:d0:71:23:
         2f:1c:27:0c:eb:29:f6:c6:9e:8a:c6:93:0c:31:2c:41:35:4d:
         0b:45:ef:af:ef:60:80:1f:a7:04:18:63:43:dd:34:1d:7e:27:
         9b:a1:bc:ee:b9:a7:f6:bd:33:2a:47:df:a4:ac:fa:bb:5a:25:
         95:d6:dd:43:de:11:34:06:97:6b:63:0e:62:a0:3e:7f:f0:09:
         9d:03:45:33:2a:e1:41:c4:38:5e:b8:bc:7f:46:2c:ab:89:69:
         d5:bf:cc:70:18:5d:34:e1:81:04:ef:09:54:57:73:d1:d8:3c:
         98:00:68:d3:9e:14:34:9f:67:4d:f9:44:08:19:ca:4a:d9:2a:
         2c:11:ea:a6:89:ab:c1:e4:1f:f4:62:ca:d6:03:85:90:3f:72:
         8a:aa:40:5b:aa:4e:f3:3d:d2:8b:e1:07:e1:97:57:a1:9b:dd:
         13:91:42:97:25:e8:64:22:36:9e:b6:40:d7:53:bc:27:54:e1:
         48:0e:b3:6c:3d:5c:03:ed:59:9d:3b:e3:7c:53:97:ff:d5:e9:
         48:96:18:71:27:6c:2f:d4:ab:3b:32:c5:37:8b:55:81:ce:19:
         17:7b:c0:db:cf:f6:ca:79:58:5a:89:dd:22:de:00:e8:ec:b2:
         9a:f2:d5:87:ab:15:7b:82:59:97:01:33:cf:23:1f:3e:8e:c2:
         ae:f4:db:6f:dc:4c:e6:01:10:84:39:a9:9b:24:df:02:72:a0:
         f5:8e:37:d3:8f:95:1a:13:5f:20:2e:a9:68:49:d2:78:ee:47:
         00:ca:d7:d8:7c:84:55:ea:26:b4:a2:02:c6:98:c9:4c:2e:d3:
         ea:19:29:8d:90:fe:58:ac:a5:9f:cb:7f:e9:3a:5c:5d:3c:c8:
         a2:1b:47:78:eb:63:7c:de:b6:9b:4f:cd:50:15:7a:d6:31:e2:
         57:76:58:89:8c:bb:68:99
-----BEGIN CERTIFICATE-----
MIIGrDCCBJSgAwIBAgICBxowDQYJKoZIhvcNAQEEBQAwgawxCzAJBgNVBAYTAlVT
MQswCQYDVQQIEwJPSDERMA8GA1UEBxMIQ29sdW1idXMxEjAQBgNVBAoTCVZpa2lu
Z1ZQTjEdMBsGA1UECxMUTXlPcmdhbml6YXRpb25hbFVuaXQxFTATBgNVBAMTDFZp
a2luZ1ZQTiBDQTEQMA4GA1UEKRMHRWFzeVJTQTEhMB8GCSqGSIb3DQEJARYSbWVA
bXlob3N0Lm15ZG9tYWluMB4XDTE0MDUwNDE5NTcwMloXDTI0MDUwMTE5NTcwMlow
HjEcMBoGA1UEAxMTQ2xpZW50Mzg4Q2VydDUxZmRkYjCCAiIwDQYJKoZIhvcNAQEB
BQADggIPADCCAgoCggIBALUdi2SS/0t1VJtTV7suFaVHs8jP+WyG2mL6ySAxlTb8
IQ4MIza9K9FRzV/MRTmRMqWPyEvzZYacBV8MUpZ8LWWjxaVD9yeb+NYSOTgUgES1
brICLxe4ZZabTgJZLjn0ctocXBtatrjaMAIvAjBdqWR0npkPsbvV0Kh+5f2B6rDX
3TB8yIxGm5h/Hyy2K3ZWW1CRNDOYxPB/YMG1WBS6wo57rkSImBoOalHYUqs7UbrT
qW94HY93XWLW3i+9BENRrJRH0aOTVR+RRSuEBKaLHkDYhqAf3JSFOvyzac+sRj9o
pfdqYc5YSvOPIADEgDpY8xjOPDltLVI5UMnVExeD49m22iyOR1IIpyEC+q0bZG5d
ln7gav5Tl03HsPEG8AHBfugeGWkRIkKZd7glEs/t7CeuUAV56wbIZh7JJnAQHHpA
9RY5z/PD9ilrIDb9F9WcliNEr/W7HsPWZHNp/CEul6UrcnUhugAzw8cvT6qHv5gZ
9DltRodCCuWhvQ/Y5Q30LyyO2bzSQj9PNHynvaAj0iPOWLtUehp/N9vk+6xHdhP2
3xFUHgzU6+pI34wTnhpzfsU+LvwOJ6Vqc+Bbi9EQf26yaEPJSi0j15RcFQwMu5qS
pl8fpcYcB7GOyNDnDzgUyjxLwvab0Zgy8pSLAhXHUvFuuHpbCnPc79ToqOa1TTmp
AgMBAAGjggFjMIIBXzAJBgNVHRMEAjAAMC0GCWCGSAGG+EIBDQQgFh5FYXN5LVJT
QSBHZW5lcmF0ZWQgQ2VydGlmaWNhdGUwHQYDVR0OBBYEFNbeuIWPiWjIW0/ro8nV
BeRkgSlaMIHhBgNVHSMEgdkwgdaAFBLNYATSoICecO3Gmbh7LMZS/RmhoYGypIGv
MIGsMQswCQYDVQQGEwJVUzELMAkGA1UECBMCT0gxETAPBgNVBAcTCENvbHVtYnVz
MRIwEAYDVQQKEwlWaWtpbmdWUE4xHTAbBgNVBAsTFE15T3JnYW5pemF0aW9uYWxV
bml0MRUwEwYDVQQDEwxWaWtpbmdWUE4gQ0ExEDAOBgNVBCkTB0Vhc3lSU0ExITAf
BgkqhkiG9w0BCQEWEm1lQG15aG9zdC5teWRvbWFpboIJAM81he6Avyo+MBMGA1Ud
JQQMMAoGCCsGAQUFBwMCMAsGA1UdDwQEAwIHgDANBgkqhkiG9w0BAQQFAAOCAgEA
hHbBZjQFrIWnQdTA11ibFGuPe6fyM6i92NrAUaZA4vOudc6N5GiGIoBkhs90jTTV
G5oM4MNgs/6LDbix1sgdJ+DFb2Z+8p5Fi5FfcTutB4Uvd9oxgUzFg1eKZRnvWGSk
2kzih8d0xsR3bfXApax+i/RhAktAF6MVUqtDI0PUe1ESqxk66MFLNlyIzMcmRmh3
kp1Me8K9yB3E7Nbzp2qF0HEjLxwnDOsp9saeisaTDDEsQTVNC0Xvr+9ggB+nBBhj
Q900HX4nm6G87rmn9r0zKkffpKz6u1olldbdQ94RNAaXa2MOYqA+f/AJnQNFMyrh
QcQ4Xri8f0Ysq4lp1b/McBhdNOGBBO8JVFdz0dg8mABo054UNJ9nTflECBnKStkq
LBHqpomrweQf9GLK1gOFkD9yiqpAW6pO8z3Si+EH4ZdXoZvdE5FClyXoZCI2nrZA
11O8J1ThSA6zbD1cA+1ZnTvjfFOX/9XpSJYYcSdsL9SrOzLFN4tVgc4ZF3vA28/2
ynlYWondIt4A6OyymvLVh6sVe4JZlwEzzyMfPo7CrvTbb9xM5gEQhDmpmyTfAnKg
9Y4304+VGhNfIC6paEnSeO5HAMrX2HyEVeomtKICxpjJTC7T6hkpjZD+WKyln8t/
6TpcXTzIohtHeOtjfN62m0/NUBV61jHiV3ZYiYy7aJk=
-----END CERTIFICATE-----
