Certificate:
    Data:
        Version: 3 (0x2)
        Serial Number: 1851 (0x73b)
    Signature Algorithm: md5WithRSAEncryption
        Issuer: C=US, ST=OH, L=Columbus, O=VikingVPN, OU=MyOrganizationalUnit, CN=VikingVPN CA/name=EasyRSA/emailAddress=me@myhost.mydomain
        Validity
            Not Before: May 11 00:45:23 2014 GMT
            Not After : May  8 00:45:23 2024 GMT
        Subject: CN=Client624Certe1dcdb
        Subject Public Key Info:
            Public Key Algorithm: rsaEncryption
                Public-Key: (4096 bit)
                Modulus:
                    00:da:4c:b9:61:f5:26:8f:f3:22:67:1a:bd:6c:f1:
                    36:0b:34:d8:3a:8a:b2:cc:da:12:82:b6:20:27:35:
                    82:a0:ff:4c:e9:3e:c6:3b:e6:41:6a:2a:5e:51:a4:
                    7d:86:82:53:e6:b3:52:b7:ae:2c:da:07:5b:b3:ac:
                    77:fa:93:fd:28:86:16:2e:38:6f:d7:9c:a7:79:a1:
                    0c:45:be:af:1a:30:ae:34:69:f0:cc:7c:ca:0d:67:
                    99:50:87:1c:6f:d9:89:82:6f:e8:7c:f9:01:df:80:
                    4c:79:6e:2d:85:97:31:b1:23:01:4e:8f:b4:11:35:
                    a0:db:aa:b3:11:16:17:80:1d:5a:2a:82:85:87:37:
                    11:18:67:1f:53:d9:0f:e3:ad:bd:8c:6c:7a:ea:27:
                    f5:fb:b6:dc:cb:ec:d2:be:b9:4d:47:a5:c6:9f:81:
                    70:b6:5c:94:f9:83:29:56:8a:9f:a5:a0:f9:23:22:
                    5f:29:6d:16:37:fc:7a:28:8f:c3:80:e0:fd:d8:43:
                    8b:14:48:9b:4a:ca:46:cf:5f:cb:4b:a9:b4:22:bf:
                    71:45:3f:4f:f7:5b:e2:f2:4f:30:6c:29:33:9a:d7:
                    08:80:a3:28:28:b9:2e:a8:d9:3d:23:72:4f:e2:c9:
                    f7:03:98:b6:8e:6e:e7:a1:d3:37:6c:ad:ab:24:d1:
                    d8:09:74:6b:b7:3e:1f:63:c6:28:be:ba:04:33:d2:
                    94:b2:d8:ee:c7:6f:79:a5:a7:7f:7d:a1:17:de:b7:
                    ab:a5:a7:c5:45:82:24:0a:ec:72:e2:14:c8:64:5c:
                    1a:59:ab:11:8c:7a:75:57:64:92:46:b2:dd:55:33:
                    3d:ab:5a:c5:c6:62:d7:a5:25:c4:c1:c0:19:30:30:
                    c7:50:de:42:88:6b:a8:73:1a:e4:3e:6e:f1:27:37:
                    10:35:06:99:7b:39:10:af:33:2f:c6:ef:c1:57:50:
                    72:f5:e0:f2:f8:4f:cc:0f:36:99:7f:ba:61:c7:f3:
                    eb:20:a8:29:40:51:0f:c0:31:f7:75:e6:32:52:2d:
                    85:ed:f4:75:ae:cc:66:1f:a7:66:cb:15:ff:b4:ac:
                    02:da:20:6d:02:dc:91:4a:1d:20:bd:fa:e2:99:f8:
                    cc:62:41:dc:a3:98:17:3a:32:7f:9d:8b:d1:9c:e2:
                    e1:99:2c:08:3d:1f:1e:73:d2:60:88:9d:d6:c1:42:
                    53:3a:a3:a0:54:76:27:17:93:79:91:02:86:64:94:
                    74:d0:04:5e:22:6a:e7:01:f3:17:21:43:7b:83:01:
                    e3:e0:04:ce:a0:36:56:a6:82:b7:6d:c0:2f:d4:03:
                    7a:f6:65:5f:69:8c:3c:44:89:87:d3:bb:69:4a:55:
                    ea:74:65
                Exponent: 65537 (0x10001)
        X509v3 extensions:
            X509v3 Basic Constraints: 
                CA:FALSE
            Netscape Comment: 
                Easy-RSA Generated Certificate
            X509v3 Subject Key Identifier: 
                30:CA:5F:60:16:B4:1F:B4:6C:D6:50:B5:40:16:AA:DE:81:87:7E:2C
            X509v3 Authority Key Identifier: 
                keyid:12:CD:60:04:D2:A0:80:9E:70:ED:C6:99:B8:7B:2C:C6:52:FD:19:A1
                DirName:/C=US/ST=OH/L=Columbus/O=VikingVPN/OU=MyOrganizationalUnit/CN=VikingVPN CA/name=EasyRSA/emailAddress=me@myhost.mydomain
                serial:CF:35:85:EE:80:BF:2A:3E

            X509v3 Extended Key Usage: 
                TLS Web Client Authentication
            X509v3 Key Usage: 
                Digital Signature
    Signature Algorithm: md5WithRSAEncryption
         e2:07:81:4b:b2:e3:43:ed:6a:37:0a:a1:55:34:aa:7e:67:18:
         7b:db:24:d0:2b:ed:b8:74:9b:e7:be:94:ff:3b:07:c0:ee:2b:
         f5:fa:ac:10:de:1a:63:32:db:89:39:63:d2:58:c7:d9:d8:d8:
         ec:cb:a0:89:6e:31:dc:ff:61:21:bb:6b:59:36:fe:a0:dd:2a:
         81:8b:75:7d:9f:0e:f6:e6:e9:ab:82:90:da:e8:37:2d:89:a1:
         e6:89:6b:69:57:5d:ee:cb:f6:3a:e4:11:9b:93:52:8d:10:dd:
         95:72:39:4a:42:25:d4:2d:db:5e:4e:47:76:37:90:63:39:55:
         cb:a9:a1:d3:58:17:bd:9b:6e:db:c5:c5:a3:3f:d7:fd:74:01:
         a0:66:45:eb:01:33:69:c8:48:0e:f8:95:52:0a:44:34:72:79:
         81:c9:cc:19:5d:6c:39:4c:15:15:37:bd:2b:c6:ce:8a:79:bc:
         c4:b3:20:98:6f:6e:41:91:31:87:b0:55:87:de:2d:06:21:c2:
         f6:d4:61:3d:d6:48:c3:f0:11:d3:a5:93:d7:1c:4b:3c:1e:a1:
         18:25:8e:dc:9e:fa:ad:e9:47:ea:8e:d8:4e:a3:f0:ad:55:1c:
         12:50:a1:50:d4:4d:41:46:7d:69:5f:26:92:f0:85:d1:18:5a:
         04:13:e9:6c:b2:7e:ae:79:1c:35:51:2e:58:c1:7e:a4:d5:df:
         48:49:0f:cf:dc:83:50:6f:cb:0c:b8:1f:12:33:5e:64:97:42:
         e7:6b:f0:a4:1f:b9:bd:4f:cd:b5:c3:94:be:55:e3:79:c3:f7:
         12:52:41:50:55:4d:9d:0b:59:a0:a5:27:68:6b:b0:c9:4e:84:
         2e:6a:dc:a4:6b:dc:ad:1f:0e:9e:aa:0a:9c:6c:4a:a5:de:12:
         d9:15:f0:5f:d0:b7:c8:84:59:80:6e:72:19:1c:97:c2:12:90:
         33:6a:f4:6d:b2:a9:97:e2:af:21:17:b2:96:27:fa:53:15:b1:
         9a:c2:6f:4c:af:2c:dd:2f:5b:14:26:bf:c9:82:34:13:b6:52:
         92:92:51:64:52:9a:e3:d7:79:03:e8:9c:1c:be:25:d1:ae:7f:
         02:33:02:14:1c:ad:f3:d1:5e:16:0c:54:c2:83:d6:ce:3c:c6:
         90:f9:ef:bb:7a:57:08:e7:80:8a:39:f6:9f:48:09:dd:25:3a:
         61:79:d3:fa:eb:ef:04:04:30:fb:f9:9d:f1:93:38:0d:f7:5f:
         6a:b9:e9:2e:dc:91:70:01:0e:fa:43:89:d2:99:4d:9e:0b:c1:
         c1:77:c0:0b:41:eb:42:f8:db:34:cc:45:b3:25:59:96:a0:ee:
         73:f1:7f:8e:be:60:32:16
-----BEGIN CERTIFICATE-----
MIIGrDCCBJSgAwIBAgICBzswDQYJKoZIhvcNAQEEBQAwgawxCzAJBgNVBAYTAlVT
MQswCQYDVQQIEwJPSDERMA8GA1UEBxMIQ29sdW1idXMxEjAQBgNVBAoTCVZpa2lu
Z1ZQTjEdMBsGA1UECxMUTXlPcmdhbml6YXRpb25hbFVuaXQxFTATBgNVBAMTDFZp
a2luZ1ZQTiBDQTEQMA4GA1UEKRMHRWFzeVJTQTEhMB8GCSqGSIb3DQEJARYSbWVA
bXlob3N0Lm15ZG9tYWluMB4XDTE0MDUxMTAwNDUyM1oXDTI0MDUwODAwNDUyM1ow
HjEcMBoGA1UEAxMTQ2xpZW50NjI0Q2VydGUxZGNkYjCCAiIwDQYJKoZIhvcNAQEB
BQADggIPADCCAgoCggIBANpMuWH1Jo/zImcavWzxNgs02DqKsszaEoK2ICc1gqD/
TOk+xjvmQWoqXlGkfYaCU+azUreuLNoHW7Osd/qT/SiGFi44b9ecp3mhDEW+rxow
rjRp8Mx8yg1nmVCHHG/ZiYJv6Hz5Ad+ATHluLYWXMbEjAU6PtBE1oNuqsxEWF4Ad
WiqChYc3ERhnH1PZD+OtvYxseuon9fu23Mvs0r65TUelxp+BcLZclPmDKVaKn6Wg
+SMiXyltFjf8eiiPw4Dg/dhDixRIm0rKRs9fy0uptCK/cUU/T/db4vJPMGwpM5rX
CICjKCi5LqjZPSNyT+LJ9wOYto5u56HTN2ytqyTR2Al0a7c+H2PGKL66BDPSlLLY
7sdveaWnf32hF963q6WnxUWCJArscuIUyGRcGlmrEYx6dVdkkkay3VUzPataxcZi
16UlxMHAGTAwx1DeQohrqHMa5D5u8Sc3EDUGmXs5EK8zL8bvwVdQcvXg8vhPzA82
mX+6Ycfz6yCoKUBRD8Ax93XmMlIthe30da7MZh+nZssV/7SsAtogbQLckUodIL36
4pn4zGJB3KOYFzoyf52L0Zzi4ZksCD0fHnPSYIid1sFCUzqjoFR2JxeTeZEChmSU
dNAEXiJq5wHzFyFDe4MB4+AEzqA2VqaCt23AL9QDevZlX2mMPESJh9O7aUpV6nRl
AgMBAAGjggFjMIIBXzAJBgNVHRMEAjAAMC0GCWCGSAGG+EIBDQQgFh5FYXN5LVJT
QSBHZW5lcmF0ZWQgQ2VydGlmaWNhdGUwHQYDVR0OBBYEFDDKX2AWtB+0bNZQtUAW
qt6Bh34sMIHhBgNVHSMEgdkwgdaAFBLNYATSoICecO3Gmbh7LMZS/RmhoYGypIGv
MIGsMQswCQYDVQQGEwJVUzELMAkGA1UECBMCT0gxETAPBgNVBAcTCENvbHVtYnVz
MRIwEAYDVQQKEwlWaWtpbmdWUE4xHTAbBgNVBAsTFE15T3JnYW5pemF0aW9uYWxV
bml0MRUwEwYDVQQDEwxWaWtpbmdWUE4gQ0ExEDAOBgNVBCkTB0Vhc3lSU0ExITAf
BgkqhkiG9w0BCQEWEm1lQG15aG9zdC5teWRvbWFpboIJAM81he6Avyo+MBMGA1Ud
JQQMMAoGCCsGAQUFBwMCMAsGA1UdDwQEAwIHgDANBgkqhkiG9w0BAQQFAAOCAgEA
4geBS7LjQ+1qNwqhVTSqfmcYe9sk0CvtuHSb576U/zsHwO4r9fqsEN4aYzLbiTlj
0ljH2djY7MugiW4x3P9hIbtrWTb+oN0qgYt1fZ8O9ubpq4KQ2ug3LYmh5olraVdd
7sv2OuQRm5NSjRDdlXI5SkIl1C3bXk5HdjeQYzlVy6mh01gXvZtu28XFoz/X/XQB
oGZF6wEzachIDviVUgpENHJ5gcnMGV1sOUwVFTe9K8bOinm8xLMgmG9uQZExh7BV
h94tBiHC9tRhPdZIw/AR06WT1xxLPB6hGCWO3J76relH6o7YTqPwrVUcElChUNRN
QUZ9aV8mkvCF0RhaBBPpbLJ+rnkcNVEuWMF+pNXfSEkPz9yDUG/LDLgfEjNeZJdC
52vwpB+5vU/NtcOUvlXjecP3ElJBUFVNnQtZoKUnaGuwyU6ELmrcpGvcrR8OnqoK
nGxKpd4S2RXwX9C3yIRZgG5yGRyXwhKQM2r0bbKpl+KvIReylif6UxWxmsJvTK8s
3S9bFCa/yYI0E7ZSkpJRZFKa49d5A+icHL4l0a5/AjMCFByt89FeFgxUwoPWzjzG
kPnvu3pXCOeAijn2n0gJ3SU6YXnT+uvvBAQw+/md8ZM4DfdfarnpLtyRcAEO+kOJ
0plNngvBwXfAC0HrQvjbNMxFsyVZlqDuc/F/jr5gMhY=
-----END CERTIFICATE-----
