Certificate:
    Data:
        Version: 3 (0x2)
        Serial Number: 1859 (0x743)
    Signature Algorithm: md5WithRSAEncryption
        Issuer: C=US, ST=OH, L=Columbus, O=VikingVPN, OU=MyOrganizationalUnit, CN=VikingVPN CA/name=EasyRSA/emailAddress=me@myhost.mydomain
        Validity
            Not Before: May 12 05:17:01 2014 GMT
            Not After : May  9 05:17:01 2024 GMT
        Subject: CN=Client434Certe3f4cf
        Subject Public Key Info:
            Public Key Algorithm: rsaEncryption
                Public-Key: (4096 bit)
                Modulus:
                    00:bc:e7:43:3d:5e:56:97:bd:ef:10:cb:1c:84:24:
                    f0:83:ec:21:5c:c4:9b:08:53:0c:ba:69:e1:f9:85:
                    62:a7:7c:2b:46:8a:4f:47:fb:57:f8:23:fe:9f:df:
                    7f:50:93:c1:6c:10:42:63:05:ab:6e:a4:e9:69:1a:
                    f5:33:21:81:9d:9b:fa:05:72:e5:88:8b:88:46:4e:
                    e6:b1:ac:88:d8:18:3e:d9:c8:5f:09:aa:44:2d:43:
                    2b:4d:da:7b:fd:cf:2f:46:01:72:42:b9:33:9a:de:
                    c1:c5:7e:76:24:a9:ef:ba:82:e9:5f:a8:61:f8:b3:
                    8f:44:f6:b4:97:f4:e9:fd:dc:ec:11:9c:be:7c:a1:
                    ef:9d:43:4f:e5:8b:00:f7:d2:99:8c:81:41:da:61:
                    48:8c:4a:dd:a6:e8:b7:18:d8:b5:6c:6a:96:9c:a9:
                    d8:fd:71:f8:92:7d:81:b5:98:80:16:be:6c:f2:1e:
                    51:35:68:1f:d4:55:af:16:e9:bf:c8:bb:3c:36:e9:
                    cf:de:7f:e1:60:2c:7f:16:c0:3b:e9:b1:c8:42:59:
                    b4:23:49:f4:5d:67:a7:e0:80:ee:41:66:76:4c:3c:
                    17:dd:9b:9e:98:1d:8d:62:5b:a3:8e:01:df:75:60:
                    fa:67:70:82:00:61:b5:02:28:f4:ed:1f:6f:01:f5:
                    f1:25:c3:11:f5:c3:93:cc:92:53:0f:a9:4f:5a:5e:
                    3d:17:77:49:d6:7e:86:0f:1c:81:17:4f:c9:fb:fe:
                    35:cd:61:e9:21:e5:60:f4:bc:3f:4a:ca:d4:5a:17:
                    21:2b:60:08:fb:1a:3e:f9:f7:02:7d:a5:e0:ad:a3:
                    fb:4c:12:7e:a8:ee:1c:93:3c:8f:22:21:4a:ea:2c:
                    46:fc:7b:13:3f:97:e3:e9:8f:f7:c4:ae:91:f8:43:
                    12:c7:c8:67:a3:b4:ea:e5:13:82:32:28:3c:b4:19:
                    a9:bd:44:c8:6d:6e:2b:55:e6:e2:98:9a:10:76:c7:
                    d0:a0:da:41:7e:c7:e8:84:03:c2:86:2d:bd:73:27:
                    c5:de:8e:77:36:b0:9f:c4:74:3c:52:0d:b1:c6:0d:
                    89:73:94:f5:02:dc:53:bc:42:15:ec:6d:78:79:72:
                    bf:77:61:62:82:b9:fc:ce:61:d2:72:b6:c1:14:b7:
                    c7:f7:d5:61:3f:99:9f:ab:7d:c7:63:ce:d2:bd:7c:
                    30:95:ec:78:cb:82:eb:ba:31:9f:32:26:4c:b7:8e:
                    71:29:76:a5:6b:c4:2f:bd:04:90:05:a3:a3:bc:96:
                    b1:e7:19:f1:9f:24:59:00:5a:7c:a9:4b:22:f5:1d:
                    85:9e:57:a9:3a:32:6a:40:f3:1b:4e:63:1a:9b:42:
                    44:71:d7
                Exponent: 65537 (0x10001)
        X509v3 extensions:
            X509v3 Basic Constraints: 
                CA:FALSE
            Netscape Comment: 
                Easy-RSA Generated Certificate
            X509v3 Subject Key Identifier: 
                EF:C8:B4:2F:64:E7:19:1A:17:6C:88:B1:9F:16:04:73:3D:03:C1:7A
            X509v3 Authority Key Identifier: 
                keyid:12:CD:60:04:D2:A0:80:9E:70:ED:C6:99:B8:7B:2C:C6:52:FD:19:A1
                DirName:/C=US/ST=OH/L=Columbus/O=VikingVPN/OU=MyOrganizationalUnit/CN=VikingVPN CA/name=EasyRSA/emailAddress=me@myhost.mydomain
                serial:CF:35:85:EE:80:BF:2A:3E

            X509v3 Extended Key Usage: 
                TLS Web Client Authentication
            X509v3 Key Usage: 
                Digital Signature
    Signature Algorithm: md5WithRSAEncryption
         68:3e:36:e7:38:da:b2:a1:8a:a5:31:21:d3:27:e9:ae:df:0c:
         4c:db:18:58:09:c5:dc:5b:32:41:98:34:b7:9e:52:32:75:da:
         d5:b6:44:03:c5:0a:07:66:53:89:38:39:0d:af:af:d5:35:e1:
         43:ac:46:1a:f8:83:64:0b:f3:c9:a1:3a:c9:ce:9b:33:41:ba:
         92:71:27:5f:4e:b5:72:48:b4:7c:0a:7e:22:9e:44:35:94:83:
         41:7a:32:88:1a:ff:6e:58:5f:66:c1:a5:08:68:0c:ca:9c:6b:
         01:37:d7:79:76:a9:59:d7:1c:2c:d2:ff:5f:07:84:c4:7e:ea:
         b6:3e:79:2c:7d:24:9a:d2:1c:7b:65:12:61:a6:1e:98:7f:63:
         d2:ed:17:3d:36:54:ba:f2:df:2f:af:26:89:72:90:1b:59:d4:
         c0:5f:67:bf:88:a7:d9:3a:ac:3b:06:d4:bc:b6:64:1c:5c:fe:
         1f:4c:ff:6f:5f:61:4a:0d:d5:94:8b:0b:21:96:e4:d1:1a:2a:
         cc:cc:1c:a9:13:ae:74:74:56:51:cf:46:00:2d:07:5c:f2:d0:
         33:d4:9d:35:3c:b3:cf:3a:fb:dc:cd:d4:97:2a:09:16:cd:a1:
         54:0b:fc:30:05:2a:7e:84:c0:cc:5b:3d:23:03:98:fe:13:ea:
         92:c3:8f:72:a3:b7:10:7b:6e:c8:a6:69:44:cd:3f:68:b6:f2:
         fb:8e:be:7f:a3:b6:79:b6:b0:4d:a4:01:a7:fc:fa:c8:c1:4c:
         67:97:9a:d7:60:7b:c3:f3:6d:86:e4:20:bb:ec:be:c7:5f:56:
         64:f9:82:4b:fe:c0:aa:2e:bc:51:04:a5:08:c9:49:b6:5e:d1:
         11:4b:98:6a:b6:46:33:47:61:03:71:e2:20:9a:74:91:01:90:
         53:fd:f5:20:e9:c6:eb:46:99:99:2d:e8:e6:d5:21:c3:ed:8f:
         49:48:90:4c:0f:6b:a3:45:32:86:e4:98:53:59:52:ea:5f:f7:
         06:1b:a3:a5:23:26:ee:09:7c:10:fd:09:48:c4:24:50:e8:14:
         0e:85:89:eb:11:0c:cd:58:76:06:42:19:e7:a2:cb:21:1b:99:
         2c:d5:55:25:a5:12:39:7c:f5:4c:4c:4c:30:a0:4e:e1:fb:fa:
         ae:0d:20:dd:7e:c6:87:73:c6:fb:fd:54:71:e1:75:fe:e8:1b:
         a0:b9:12:9a:b4:35:6e:e6:d2:07:36:48:13:b3:62:41:61:2b:
         cc:63:e6:c1:a6:4a:dd:b3:8a:0f:ad:37:b3:2a:45:9a:28:c1:
         58:da:b9:56:e9:c0:de:0b:c9:1a:c3:b9:4a:ac:b6:0b:c7:07:
         bc:ce:25:71:e0:45:dd:e9
-----BEGIN CERTIFICATE-----
MIIGrDCCBJSgAwIBAgICB0MwDQYJKoZIhvcNAQEEBQAwgawxCzAJBgNVBAYTAlVT
MQswCQYDVQQIEwJPSDERMA8GA1UEBxMIQ29sdW1idXMxEjAQBgNVBAoTCVZpa2lu
Z1ZQTjEdMBsGA1UECxMUTXlPcmdhbml6YXRpb25hbFVuaXQxFTATBgNVBAMTDFZp
a2luZ1ZQTiBDQTEQMA4GA1UEKRMHRWFzeVJTQTEhMB8GCSqGSIb3DQEJARYSbWVA
bXlob3N0Lm15ZG9tYWluMB4XDTE0MDUxMjA1MTcwMVoXDTI0MDUwOTA1MTcwMVow
HjEcMBoGA1UEAxMTQ2xpZW50NDM0Q2VydGUzZjRjZjCCAiIwDQYJKoZIhvcNAQEB
BQADggIPADCCAgoCggIBALznQz1eVpe97xDLHIQk8IPsIVzEmwhTDLpp4fmFYqd8
K0aKT0f7V/gj/p/ff1CTwWwQQmMFq26k6Wka9TMhgZ2b+gVy5YiLiEZO5rGsiNgY
PtnIXwmqRC1DK03ae/3PL0YBckK5M5rewcV+diSp77qC6V+oYfizj0T2tJf06f3c
7BGcvnyh751DT+WLAPfSmYyBQdphSIxK3abotxjYtWxqlpyp2P1x+JJ9gbWYgBa+
bPIeUTVoH9RVrxbpv8i7PDbpz95/4WAsfxbAO+mxyEJZtCNJ9F1np+CA7kFmdkw8
F92bnpgdjWJbo44B33Vg+mdwggBhtQIo9O0fbwH18SXDEfXDk8ySUw+pT1pePRd3
SdZ+hg8cgRdPyfv+Nc1h6SHlYPS8P0rK1FoXIStgCPsaPvn3An2l4K2j+0wSfqju
HJM8jyIhSuosRvx7Ez+X4+mP98SukfhDEsfIZ6O06uUTgjIoPLQZqb1EyG1uK1Xm
4piaEHbH0KDaQX7H6IQDwoYtvXMnxd6Odzawn8R0PFINscYNiXOU9QLcU7xCFext
eHlyv3dhYoK5/M5h0nK2wRS3x/fVYT+Zn6t9x2PO0r18MJXseMuC67oxnzImTLeO
cSl2pWvEL70EkAWjo7yWsecZ8Z8kWQBafKlLIvUdhZ5XqToyakDzG05jGptCRHHX
AgMBAAGjggFjMIIBXzAJBgNVHRMEAjAAMC0GCWCGSAGG+EIBDQQgFh5FYXN5LVJT
QSBHZW5lcmF0ZWQgQ2VydGlmaWNhdGUwHQYDVR0OBBYEFO/ItC9k5xkaF2yIsZ8W
BHM9A8F6MIHhBgNVHSMEgdkwgdaAFBLNYATSoICecO3Gmbh7LMZS/RmhoYGypIGv
MIGsMQswCQYDVQQGEwJVUzELMAkGA1UECBMCT0gxETAPBgNVBAcTCENvbHVtYnVz
MRIwEAYDVQQKEwlWaWtpbmdWUE4xHTAbBgNVBAsTFE15T3JnYW5pemF0aW9uYWxV
bml0MRUwEwYDVQQDEwxWaWtpbmdWUE4gQ0ExEDAOBgNVBCkTB0Vhc3lSU0ExITAf
BgkqhkiG9w0BCQEWEm1lQG15aG9zdC5teWRvbWFpboIJAM81he6Avyo+MBMGA1Ud
JQQMMAoGCCsGAQUFBwMCMAsGA1UdDwQEAwIHgDANBgkqhkiG9w0BAQQFAAOCAgEA
aD425zjasqGKpTEh0yfprt8MTNsYWAnF3FsyQZg0t55SMnXa1bZEA8UKB2ZTiTg5
Da+v1TXhQ6xGGviDZAvzyaE6yc6bM0G6knEnX061cki0fAp+Ip5ENZSDQXoyiBr/
blhfZsGlCGgMypxrATfXeXapWdccLNL/XweExH7qtj55LH0kmtIce2USYaYemH9j
0u0XPTZUuvLfL68miXKQG1nUwF9nv4in2TqsOwbUvLZkHFz+H0z/b19hSg3VlIsL
IZbk0RoqzMwcqROudHRWUc9GAC0HXPLQM9SdNTyzzzr73M3UlyoJFs2hVAv8MAUq
foTAzFs9IwOY/hPqksOPcqO3EHtuyKZpRM0/aLby+46+f6O2ebawTaQBp/z6yMFM
Z5ea12B7w/NthuQgu+y+x19WZPmCS/7Aqi68UQSlCMlJtl7REUuYarZGM0dhA3Hi
IJp0kQGQU/31IOnG60aZmS3o5tUhw+2PSUiQTA9ro0UyhuSYU1lS6l/3BhujpSMm
7gl8EP0JSMQkUOgUDoWJ6xEMzVh2BkIZ56LLIRuZLNVVJaUSOXz1TExMMKBO4fv6
rg0g3X7Gh3PG+/1UceF1/ugboLkSmrQ1bubSBzZIE7NiQWErzGPmwaZK3bOKD603
sypFmijBWNq5VunA3gvJGsO5Sqy2C8cHvM4lceBF3ek=
-----END CERTIFICATE-----
