Certificate:
    Data:
        Version: 3 (0x2)
        Serial Number: 1862 (0x746)
    Signature Algorithm: md5WithRSAEncryption
        Issuer: C=US, ST=OH, L=Columbus, O=VikingVPN, OU=MyOrganizationalUnit, CN=VikingVPN CA/name=EasyRSA/emailAddress=me@myhost.mydomain
        Validity
            Not Before: May 12 21:54:57 2014 GMT
            Not After : May  9 21:54:57 2024 GMT
        Subject: CN=Client646Cert8d9d30
        Subject Public Key Info:
            Public Key Algorithm: rsaEncryption
                Public-Key: (4096 bit)
                Modulus:
                    00:b8:4c:61:3c:7c:0c:78:92:21:bc:60:cd:fa:93:
                    35:d3:9c:6e:6d:47:2a:78:d0:2c:ff:5b:c5:17:3b:
                    56:e1:ee:c9:d7:85:47:65:2f:c5:8d:00:cd:45:f2:
                    48:3b:28:7d:7c:f9:6d:ec:5f:af:06:44:7b:2b:1e:
                    06:9b:3e:7d:c7:6c:97:63:99:55:80:09:dc:65:12:
                    10:f9:e5:57:a8:69:6f:ad:46:00:e8:8d:92:f7:e7:
                    21:62:8b:ad:f9:c9:7f:77:4a:93:fc:61:68:b5:a4:
                    6b:78:c7:9b:08:d1:ff:84:02:b8:b1:d0:d2:52:49:
                    00:57:45:a2:09:61:d6:1b:87:46:77:11:ff:1d:c3:
                    3b:61:a2:c4:26:de:80:7a:35:07:19:18:23:a6:cf:
                    f2:ac:79:07:58:3c:3a:d2:23:a5:2b:9d:61:83:43:
                    1c:12:12:d0:46:7e:bb:cc:ac:63:68:96:a0:03:cc:
                    dd:3e:14:09:2c:39:69:8e:49:1d:05:04:13:33:5b:
                    40:a5:ac:e0:0a:d7:57:7b:b0:cf:0e:54:d0:87:d5:
                    a3:df:4f:8d:ad:b3:81:e8:93:8f:2a:c6:2f:6f:0e:
                    26:2a:53:5e:05:88:22:d8:c7:00:a4:86:d7:fa:3f:
                    40:21:82:10:f3:0d:bd:b2:d2:3c:32:3e:e9:ce:b9:
                    75:05:fe:24:09:b8:e6:9f:2a:c2:b6:b4:88:63:04:
                    72:f4:89:83:86:38:46:91:db:f5:91:04:14:fa:39:
                    a7:9d:dc:17:95:27:61:22:a6:cc:55:80:c4:64:27:
                    a5:d6:9f:d7:b4:51:ab:8a:8b:a7:fa:5b:ee:23:44:
                    b5:ca:c1:32:d7:db:11:7f:f7:aa:53:db:cd:2e:e6:
                    e7:b8:96:a3:2d:13:f3:79:13:6a:7e:33:d6:ea:45:
                    7e:91:66:0e:39:23:6a:cc:67:4d:53:a2:68:79:6f:
                    32:e7:76:ab:da:e0:c7:57:88:65:81:bf:b0:15:a3:
                    22:9a:52:87:27:1a:c3:6d:c0:63:06:7b:36:3b:55:
                    55:77:4e:f3:70:51:61:87:8f:56:bb:93:d5:4b:77:
                    2e:73:53:ac:4a:87:be:26:fd:66:f7:9b:58:19:75:
                    25:0c:b4:9e:83:90:7d:96:d4:63:3c:18:97:d2:4f:
                    f0:6e:ff:e9:90:f8:bc:ca:07:03:45:bd:15:b0:6c:
                    45:52:97:be:3f:ea:52:cf:a3:aa:25:08:64:c5:76:
                    1c:62:74:c3:10:f3:6b:45:38:2d:cc:3f:30:a3:d7:
                    b3:97:0a:45:e3:6c:1e:8d:32:4e:43:59:a0:77:c1:
                    6d:44:2f:f0:9c:c9:d8:f3:c6:cb:e9:c7:dd:1e:5d:
                    f6:49:c9
                Exponent: 65537 (0x10001)
        X509v3 extensions:
            X509v3 Basic Constraints: 
                CA:FALSE
            Netscape Comment: 
                Easy-RSA Generated Certificate
            X509v3 Subject Key Identifier: 
                FF:18:9A:AF:C0:97:89:FD:A8:CE:91:CC:87:31:B6:77:A7:AF:61:48
            X509v3 Authority Key Identifier: 
                keyid:12:CD:60:04:D2:A0:80:9E:70:ED:C6:99:B8:7B:2C:C6:52:FD:19:A1
                DirName:/C=US/ST=OH/L=Columbus/O=VikingVPN/OU=MyOrganizationalUnit/CN=VikingVPN CA/name=EasyRSA/emailAddress=me@myhost.mydomain
                serial:CF:35:85:EE:80:BF:2A:3E

            X509v3 Extended Key Usage: 
                TLS Web Client Authentication
            X509v3 Key Usage: 
                Digital Signature
    Signature Algorithm: md5WithRSAEncryption
         ce:c4:c3:2d:0f:a4:d1:d7:39:b3:c6:49:c4:6d:7a:53:40:05:
         a4:8f:f9:8e:2b:2c:8a:5e:73:20:04:d0:04:d2:a3:f6:b4:c9:
         39:89:62:4d:ce:a8:0a:b8:87:fd:cf:41:ef:9e:91:b6:8f:ae:
         8f:ba:83:f5:92:cf:46:d3:18:37:c4:a2:21:51:8d:30:c0:a9:
         c9:da:90:5d:c2:fe:cc:29:c6:27:0a:23:66:0a:94:3a:4b:f0:
         13:9f:f8:77:a5:d8:8d:0b:b4:91:a1:0f:fe:67:f2:a3:0f:ec:
         7a:b3:92:86:a1:70:af:bb:55:69:f5:0c:b0:b1:db:ef:b9:67:
         70:7e:52:cd:99:69:1c:60:8d:1a:84:44:e7:a2:6e:cc:57:dd:
         c2:d3:44:77:fb:7f:08:a6:6c:51:1a:7e:76:53:1d:d6:3e:e6:
         f2:47:65:40:68:ac:69:2c:fd:2b:fe:80:9e:ab:2c:0e:bd:07:
         bd:44:93:a0:0d:66:a8:8c:1f:35:57:f4:ac:4b:e7:05:26:93:
         20:71:65:d2:ce:a9:9c:40:9c:be:4d:35:0b:0f:36:52:d6:6e:
         4e:7c:05:1e:07:b6:dd:43:a7:c4:08:98:3e:2c:60:33:7e:82:
         f0:67:b6:78:3a:f3:19:e5:d1:83:02:b4:7a:c3:6f:07:85:38:
         d6:be:b2:d5:37:7a:f8:f5:26:de:41:31:cf:9b:6a:ac:14:4e:
         04:73:42:e7:f8:9f:b6:de:e6:25:2c:36:25:16:0e:78:ba:b2:
         02:c6:0b:73:c5:62:f6:df:4b:23:d8:89:82:30:c4:66:d8:35:
         ee:4f:a0:3d:3d:7a:a9:fc:11:e4:9a:9d:3c:3e:21:59:1e:c4:
         19:ff:e2:68:2f:b0:09:16:97:ee:80:eb:0f:a9:b4:dd:4f:56:
         48:05:33:53:78:a0:8d:10:d0:d5:e0:61:24:55:21:98:d5:da:
         49:c1:95:09:5b:1f:4d:04:e2:e8:ad:3e:59:96:e3:ee:0c:82:
         45:4d:8a:79:86:a5:bb:83:60:ea:20:f4:a4:bc:ea:3c:21:25:
         12:99:46:cc:f4:ed:08:c4:1a:be:5e:a7:5a:7e:b0:6e:0f:59:
         b9:1a:49:93:94:b1:01:ef:dc:51:a0:1d:77:bb:3d:5d:a9:de:
         df:81:43:c8:21:b7:8e:f3:1e:e4:69:cb:f7:11:ab:d4:97:15:
         5d:d8:7e:e9:d2:53:a0:29:05:b4:be:cc:30:19:ec:48:ee:d5:
         ad:8d:0a:df:00:81:02:c6:75:20:e1:08:4a:80:47:ca:1c:71:
         bf:72:ef:e5:15:58:7d:88:96:c1:df:81:51:45:e5:ba:f0:e9:
         58:8f:55:40:a6:bf:73:6a
-----BEGIN CERTIFICATE-----
MIIGrDCCBJSgAwIBAgICB0YwDQYJKoZIhvcNAQEEBQAwgawxCzAJBgNVBAYTAlVT
MQswCQYDVQQIEwJPSDERMA8GA1UEBxMIQ29sdW1idXMxEjAQBgNVBAoTCVZpa2lu
Z1ZQTjEdMBsGA1UECxMUTXlPcmdhbml6YXRpb25hbFVuaXQxFTATBgNVBAMTDFZp
a2luZ1ZQTiBDQTEQMA4GA1UEKRMHRWFzeVJTQTEhMB8GCSqGSIb3DQEJARYSbWVA
bXlob3N0Lm15ZG9tYWluMB4XDTE0MDUxMjIxNTQ1N1oXDTI0MDUwOTIxNTQ1N1ow
HjEcMBoGA1UEAxMTQ2xpZW50NjQ2Q2VydDhkOWQzMDCCAiIwDQYJKoZIhvcNAQEB
BQADggIPADCCAgoCggIBALhMYTx8DHiSIbxgzfqTNdOcbm1HKnjQLP9bxRc7VuHu
ydeFR2UvxY0AzUXySDsofXz5bexfrwZEeyseBps+fcdsl2OZVYAJ3GUSEPnlV6hp
b61GAOiNkvfnIWKLrfnJf3dKk/xhaLWka3jHmwjR/4QCuLHQ0lJJAFdFoglh1huH
RncR/x3DO2GixCbegHo1BxkYI6bP8qx5B1g8OtIjpSudYYNDHBIS0EZ+u8ysY2iW
oAPM3T4UCSw5aY5JHQUEEzNbQKWs4ArXV3uwzw5U0IfVo99Pja2zgeiTjyrGL28O
JipTXgWIItjHAKSG1/o/QCGCEPMNvbLSPDI+6c65dQX+JAm45p8qwra0iGMEcvSJ
g4Y4RpHb9ZEEFPo5p53cF5UnYSKmzFWAxGQnpdaf17RRq4qLp/pb7iNEtcrBMtfb
EX/3qlPbzS7m57iWoy0T83kTan4z1upFfpFmDjkjasxnTVOiaHlvMud2q9rgx1eI
ZYG/sBWjIppShycaw23AYwZ7NjtVVXdO83BRYYePVruT1Ut3LnNTrEqHvib9Zveb
WBl1JQy0noOQfZbUYzwYl9JP8G7/6ZD4vMoHA0W9FbBsRVKXvj/qUs+jqiUIZMV2
HGJ0wxDza0U4Lcw/MKPXs5cKReNsHo0yTkNZoHfBbUQv8JzJ2PPGy+nH3R5d9knJ
AgMBAAGjggFjMIIBXzAJBgNVHRMEAjAAMC0GCWCGSAGG+EIBDQQgFh5FYXN5LVJT
QSBHZW5lcmF0ZWQgQ2VydGlmaWNhdGUwHQYDVR0OBBYEFP8Ymq/Al4n9qM6RzIcx
tnenr2FIMIHhBgNVHSMEgdkwgdaAFBLNYATSoICecO3Gmbh7LMZS/RmhoYGypIGv
MIGsMQswCQYDVQQGEwJVUzELMAkGA1UECBMCT0gxETAPBgNVBAcTCENvbHVtYnVz
MRIwEAYDVQQKEwlWaWtpbmdWUE4xHTAbBgNVBAsTFE15T3JnYW5pemF0aW9uYWxV
bml0MRUwEwYDVQQDEwxWaWtpbmdWUE4gQ0ExEDAOBgNVBCkTB0Vhc3lSU0ExITAf
BgkqhkiG9w0BCQEWEm1lQG15aG9zdC5teWRvbWFpboIJAM81he6Avyo+MBMGA1Ud
JQQMMAoGCCsGAQUFBwMCMAsGA1UdDwQEAwIHgDANBgkqhkiG9w0BAQQFAAOCAgEA
zsTDLQ+k0dc5s8ZJxG16U0AFpI/5jissil5zIATQBNKj9rTJOYliTc6oCriH/c9B
756Rto+uj7qD9ZLPRtMYN8SiIVGNMMCpydqQXcL+zCnGJwojZgqUOkvwE5/4d6XY
jQu0kaEP/mfyow/serOShqFwr7tVafUMsLHb77lncH5SzZlpHGCNGoRE56JuzFfd
wtNEd/t/CKZsURp+dlMd1j7m8kdlQGisaSz9K/6AnqssDr0HvUSToA1mqIwfNVf0
rEvnBSaTIHFl0s6pnECcvk01Cw82UtZuTnwFHge23UOnxAiYPixgM36C8Ge2eDrz
GeXRgwK0esNvB4U41r6y1Td6+PUm3kExz5tqrBROBHNC5/iftt7mJSw2JRYOeLqy
AsYLc8Vi9t9LI9iJgjDEZtg17k+gPT16qfwR5JqdPD4hWR7EGf/iaC+wCRaX7oDr
D6m03U9WSAUzU3igjRDQ1eBhJFUhmNXaScGVCVsfTQTi6K0+WZbj7gyCRU2KeYal
u4Ng6iD0pLzqPCElEplGzPTtCMQavl6nWn6wbg9ZuRpJk5SxAe/cUaAdd7s9Xane
34FDyCG3jvMe5GnL9xGr1JcVXdh+6dJToCkFtL7MMBnsSO7VrY0K3wCBAsZ1IOEI
SoBHyhxxv3Lv5RVYfYiWwd+BUUXluvDpWI9VQKa/c2o=
-----END CERTIFICATE-----
