Certificate:
    Data:
        Version: 3 (0x2)
        Serial Number: 1864 (0x748)
    Signature Algorithm: md5WithRSAEncryption
        Issuer: C=US, ST=OH, L=Columbus, O=VikingVPN, OU=MyOrganizationalUnit, CN=VikingVPN CA/name=EasyRSA/emailAddress=me@myhost.mydomain
        Validity
            Not Before: May 12 22:38:31 2014 GMT
            Not After : May  9 22:38:31 2024 GMT
        Subject: CN=Client647Certe836ee
        Subject Public Key Info:
            Public Key Algorithm: rsaEncryption
                Public-Key: (4096 bit)
                Modulus:
                    00:ab:cd:fa:17:0a:1c:44:95:b0:55:6e:8f:f9:b8:
                    33:42:1c:02:f3:83:5c:86:cb:80:f5:44:04:6f:cc:
                    55:cc:b8:1c:b0:1f:bd:26:20:ec:22:b1:4b:60:83:
                    0a:f8:b4:e1:60:a6:5c:47:8f:5b:07:79:aa:37:1e:
                    aa:86:ff:bc:c7:86:f0:fc:bd:bc:35:2c:13:c7:e1:
                    dc:66:7b:42:90:4e:2b:45:8b:35:9c:b9:f7:7a:78:
                    37:0a:c7:6a:9f:f4:ae:22:72:72:4e:be:d4:09:c0:
                    87:3a:b3:de:32:2d:93:80:9e:b3:f0:64:d4:cd:1c:
                    ac:1c:4d:97:b3:90:0d:4f:63:da:d8:16:5a:e8:5d:
                    d1:7e:4b:54:04:cf:1a:87:9a:fe:b2:05:a8:0c:6d:
                    10:b4:88:d3:4a:0e:cb:ea:13:6e:e9:e2:89:74:a5:
                    ff:fd:a9:a3:5a:b8:32:ef:16:02:95:c1:91:ef:dd:
                    2f:01:22:56:31:91:d1:46:e3:38:5f:b5:46:47:f2:
                    c9:27:ab:a9:84:96:0d:06:7b:35:58:6c:6a:74:9c:
                    50:f6:86:0e:f0:55:01:18:92:60:44:a1:b6:11:a1:
                    c7:4f:c0:c1:f5:b9:35:d2:be:8b:c1:fd:66:83:b2:
                    cd:53:67:f3:89:59:38:78:7a:b6:24:55:1c:0d:15:
                    6d:24:e0:fe:9d:16:1a:eb:bd:a9:49:ba:bb:f1:5c:
                    15:38:e6:09:4b:af:d0:16:f1:80:ef:b1:ab:2f:0d:
                    ba:a7:21:ee:a1:70:4a:04:10:b1:41:8c:91:cb:6d:
                    cc:e6:05:43:2b:2e:03:9b:71:1a:82:40:93:09:cf:
                    ba:e4:64:d4:4d:17:59:f8:d4:90:a6:b4:c7:64:d4:
                    8d:f7:87:88:dc:87:fc:86:11:8e:20:43:9c:ce:0f:
                    74:7b:47:2a:3e:d4:4f:8c:cc:db:4d:27:61:25:e5:
                    ed:f3:a9:43:a1:fd:96:57:88:c1:55:27:c1:a0:5b:
                    a7:76:ba:e2:1c:c4:24:67:98:00:03:9b:a8:2b:57:
                    93:9a:ad:b1:41:6a:53:25:ec:4b:27:e9:84:e3:05:
                    62:c3:ce:58:29:6f:c9:0b:66:4a:af:57:6a:4d:80:
                    79:91:fc:16:07:65:4c:2b:96:a0:e1:a0:5a:b8:76:
                    a5:8e:eb:ab:c9:d8:04:aa:64:e1:cf:3c:92:8a:d9:
                    52:4e:eb:10:e9:19:c3:05:0d:e7:dc:c0:55:d8:20:
                    03:4d:91:4c:82:eb:d9:a0:f5:b9:66:3a:e2:19:c0:
                    51:7b:52:8f:b5:0f:d2:db:86:02:c6:29:74:28:ce:
                    ca:a9:68:92:09:42:38:bc:4e:95:98:90:3f:0d:88:
                    66:a4:f7
                Exponent: 65537 (0x10001)
        X509v3 extensions:
            X509v3 Basic Constraints: 
                CA:FALSE
            Netscape Comment: 
                Easy-RSA Generated Certificate
            X509v3 Subject Key Identifier: 
                65:93:09:D2:3D:05:D0:FC:8E:8A:28:01:73:D8:43:5C:05:9C:8F:08
            X509v3 Authority Key Identifier: 
                keyid:12:CD:60:04:D2:A0:80:9E:70:ED:C6:99:B8:7B:2C:C6:52:FD:19:A1
                DirName:/C=US/ST=OH/L=Columbus/O=VikingVPN/OU=MyOrganizationalUnit/CN=VikingVPN CA/name=EasyRSA/emailAddress=me@myhost.mydomain
                serial:CF:35:85:EE:80:BF:2A:3E

            X509v3 Extended Key Usage: 
                TLS Web Client Authentication
            X509v3 Key Usage: 
                Digital Signature
    Signature Algorithm: md5WithRSAEncryption
         51:dd:ad:c4:c9:66:ef:44:84:9b:6e:39:4b:51:80:6d:c7:ee:
         0b:1f:61:b8:1a:9a:9c:4b:c5:16:25:81:38:b2:5c:b1:95:10:
         dd:07:3d:f2:d7:e8:ef:b1:eb:9f:54:28:3b:78:0b:93:c8:a6:
         a3:2e:cf:f8:94:7c:de:57:85:ac:6f:af:38:7f:fa:2a:4c:a4:
         7b:04:c5:fc:98:62:82:bb:af:ba:4e:89:2d:41:e0:67:f9:44:
         89:eb:55:9f:5e:47:72:9b:58:a8:c8:c5:4d:32:c7:43:1c:e8:
         3f:92:0a:06:ea:3d:05:73:bd:11:c7:ac:ea:fa:d3:72:2f:ef:
         fb:ec:10:5a:01:4e:55:69:05:17:52:1f:08:19:92:e5:f0:ce:
         4c:eb:f0:55:1a:d1:bd:c1:c9:f4:17:f0:1a:28:30:e7:91:53:
         41:db:0a:2b:dc:44:e3:71:3f:4d:d4:f0:d7:7f:ee:ae:da:62:
         c9:53:a8:39:3f:8c:d6:20:c9:35:2a:0b:2b:4f:18:9d:53:1e:
         7e:3a:78:70:60:43:3f:75:81:3c:cd:87:ce:7d:d1:50:db:62:
         d2:cc:0e:7d:69:35:51:2f:85:a6:bd:61:86:4f:2f:75:1e:ae:
         6e:76:f5:27:f0:b5:da:f9:fd:40:a1:27:dd:56:2b:eb:28:e8:
         1f:4e:76:9a:4c:8f:31:52:b4:5b:c7:c0:d3:b8:de:05:48:db:
         0b:06:5c:d1:86:4b:68:66:e3:95:08:85:04:be:72:2a:f4:74:
         c2:fa:82:a9:5b:c3:cd:09:c1:9e:51:c1:a0:55:d4:4e:9d:15:
         02:41:a4:2d:9c:2c:1e:0c:63:d6:e7:5d:7a:b9:6b:35:ee:20:
         ce:9d:5d:be:56:f9:3e:ef:e0:a8:d7:1f:02:99:c9:6d:8a:e9:
         87:a8:7e:eb:2b:08:71:6d:a0:47:9c:9c:61:4a:b7:6b:56:16:
         24:43:21:70:e6:60:c5:fe:e0:f8:92:c8:58:cd:ef:0c:3a:cf:
         63:f2:af:66:82:de:70:b3:83:6a:2d:35:6a:94:4c:f0:0f:2e:
         13:a2:aa:d2:b7:66:41:9a:85:51:be:a9:b8:8b:e5:c5:98:ca:
         bb:88:bc:4b:77:af:96:fb:53:c8:d4:9f:b6:9e:27:79:67:0c:
         e8:22:27:3b:9d:aa:b2:87:44:8c:7a:a0:d9:77:05:f8:aa:00:
         cb:15:09:21:2f:c0:80:64:72:97:4d:f0:c6:6d:80:22:aa:51:
         a7:e3:b6:3e:1a:9b:a5:10:24:ca:af:cb:97:00:1a:0e:ee:ee:
         2a:c2:0e:d1:29:c1:f2:0c:fa:11:46:56:1a:79:b8:67:9d:07:
         c5:40:f3:18:41:67:7c:79
-----BEGIN CERTIFICATE-----
MIIGrDCCBJSgAwIBAgICB0gwDQYJKoZIhvcNAQEEBQAwgawxCzAJBgNVBAYTAlVT
MQswCQYDVQQIEwJPSDERMA8GA1UEBxMIQ29sdW1idXMxEjAQBgNVBAoTCVZpa2lu
Z1ZQTjEdMBsGA1UECxMUTXlPcmdhbml6YXRpb25hbFVuaXQxFTATBgNVBAMTDFZp
a2luZ1ZQTiBDQTEQMA4GA1UEKRMHRWFzeVJTQTEhMB8GCSqGSIb3DQEJARYSbWVA
bXlob3N0Lm15ZG9tYWluMB4XDTE0MDUxMjIyMzgzMVoXDTI0MDUwOTIyMzgzMVow
HjEcMBoGA1UEAxMTQ2xpZW50NjQ3Q2VydGU4MzZlZTCCAiIwDQYJKoZIhvcNAQEB
BQADggIPADCCAgoCggIBAKvN+hcKHESVsFVuj/m4M0IcAvODXIbLgPVEBG/MVcy4
HLAfvSYg7CKxS2CDCvi04WCmXEePWwd5qjceqob/vMeG8Py9vDUsE8fh3GZ7QpBO
K0WLNZy593p4NwrHap/0riJyck6+1AnAhzqz3jItk4Ces/Bk1M0crBxNl7OQDU9j
2tgWWuhd0X5LVATPGoea/rIFqAxtELSI00oOy+oTbuniiXSl//2po1q4Mu8WApXB
ke/dLwEiVjGR0UbjOF+1RkfyySerqYSWDQZ7NVhsanScUPaGDvBVARiSYEShthGh
x0/AwfW5NdK+i8H9ZoOyzVNn84lZOHh6tiRVHA0VbSTg/p0WGuu9qUm6u/FcFTjm
CUuv0BbxgO+xqy8Nuqch7qFwSgQQsUGMkcttzOYFQysuA5txGoJAkwnPuuRk1E0X
WfjUkKa0x2TUjfeHiNyH/IYRjiBDnM4PdHtHKj7UT4zM200nYSXl7fOpQ6H9lleI
wVUnwaBbp3a64hzEJGeYAAObqCtXk5qtsUFqUyXsSyfphOMFYsPOWClvyQtmSq9X
ak2AeZH8FgdlTCuWoOGgWrh2pY7rq8nYBKpk4c88korZUk7rEOkZwwUN59zAVdgg
A02RTILr2aD1uWY64hnAUXtSj7UP0tuGAsYpdCjOyqlokglCOLxOlZiQPw2IZqT3
AgMBAAGjggFjMIIBXzAJBgNVHRMEAjAAMC0GCWCGSAGG+EIBDQQgFh5FYXN5LVJT
QSBHZW5lcmF0ZWQgQ2VydGlmaWNhdGUwHQYDVR0OBBYEFGWTCdI9BdD8joooAXPY
Q1wFnI8IMIHhBgNVHSMEgdkwgdaAFBLNYATSoICecO3Gmbh7LMZS/RmhoYGypIGv
MIGsMQswCQYDVQQGEwJVUzELMAkGA1UECBMCT0gxETAPBgNVBAcTCENvbHVtYnVz
MRIwEAYDVQQKEwlWaWtpbmdWUE4xHTAbBgNVBAsTFE15T3JnYW5pemF0aW9uYWxV
bml0MRUwEwYDVQQDEwxWaWtpbmdWUE4gQ0ExEDAOBgNVBCkTB0Vhc3lSU0ExITAf
BgkqhkiG9w0BCQEWEm1lQG15aG9zdC5teWRvbWFpboIJAM81he6Avyo+MBMGA1Ud
JQQMMAoGCCsGAQUFBwMCMAsGA1UdDwQEAwIHgDANBgkqhkiG9w0BAQQFAAOCAgEA
Ud2txMlm70SEm245S1GAbcfuCx9huBqanEvFFiWBOLJcsZUQ3Qc98tfo77Hrn1Qo
O3gLk8imoy7P+JR83leFrG+vOH/6KkykewTF/Jhigruvuk6JLUHgZ/lEietVn15H
cptYqMjFTTLHQxzoP5IKBuo9BXO9Eces6vrTci/v++wQWgFOVWkFF1IfCBmS5fDO
TOvwVRrRvcHJ9BfwGigw55FTQdsKK9xE43E/TdTw13/urtpiyVOoOT+M1iDJNSoL
K08YnVMefjp4cGBDP3WBPM2Hzn3RUNti0swOfWk1US+Fpr1hhk8vdR6ubnb1J/C1
2vn9QKEn3VYr6yjoH052mkyPMVK0W8fA07jeBUjbCwZc0YZLaGbjlQiFBL5yKvR0
wvqCqVvDzQnBnlHBoFXUTp0VAkGkLZwsHgxj1udderlrNe4gzp1dvlb5Pu/gqNcf
ApnJbYrph6h+6ysIcW2gR5ycYUq3a1YWJEMhcOZgxf7g+JLIWM3vDDrPY/KvZoLe
cLODai01apRM8A8uE6Kq0rdmQZqFUb6puIvlxZjKu4i8S3evlvtTyNSftp4neWcM
6CInO52qsodEjHqg2XcF+KoAyxUJIS/AgGRyl03wxm2AIqpRp+O2PhqbpRAkyq/L
lwAaDu7uKsIO0SnB8gz6EUZWGnm4Z50HxUDzGEFnfHk=
-----END CERTIFICATE-----
