Certificate:
    Data:
        Version: 3 (0x2)
        Serial Number: 1880 (0x758)
    Signature Algorithm: md5WithRSAEncryption
        Issuer: C=US, ST=OH, L=Columbus, O=VikingVPN, OU=MyOrganizationalUnit, CN=VikingVPN CA/name=EasyRSA/emailAddress=me@myhost.mydomain
        Validity
            Not Before: May 15 22:30:30 2014 GMT
            Not After : May 12 22:30:30 2024 GMT
        Subject: CN=Client656Certbce83e
        Subject Public Key Info:
            Public Key Algorithm: rsaEncryption
                Public-Key: (4096 bit)
                Modulus:
                    00:b3:ce:73:2d:1c:5d:c5:3a:cd:d0:42:34:c5:bf:
                    39:2e:ac:4f:32:a9:ed:1b:45:ec:bb:d5:a9:4e:1e:
                    dd:22:14:3f:cb:36:fa:f7:42:1b:fe:64:59:04:6c:
                    5b:ea:d2:7f:40:ad:9f:b1:1a:78:f2:28:08:df:a9:
                    3f:47:25:d8:96:c9:b2:aa:97:7e:4f:5e:a0:ed:c6:
                    1d:89:38:fb:c0:cb:da:e3:d4:69:6e:eb:54:a3:af:
                    41:b6:8d:20:c8:53:b2:5b:ed:eb:4d:be:d7:29:4e:
                    7f:a2:c7:dc:f5:c2:ff:c7:90:42:51:fd:30:ff:46:
                    6d:aa:e0:07:5c:d2:7e:ea:a5:71:b7:38:d8:98:96:
                    12:48:b1:13:97:0e:72:6f:64:41:f5:1a:22:20:b0:
                    14:55:04:72:ac:8c:21:dd:99:74:fd:41:f1:98:c4:
                    94:8a:91:8b:61:a1:13:08:5b:59:1c:1c:f1:ba:3a:
                    9f:33:e1:be:dd:7d:3d:94:0e:02:8b:8e:be:ea:78:
                    0f:dc:93:d2:2f:0a:ba:c4:9b:7f:1c:53:79:9c:7b:
                    67:5a:aa:c7:0a:cc:34:56:52:b8:01:5c:e5:8c:45:
                    b4:1b:29:5e:62:bb:0d:04:9a:5a:0e:54:da:c8:9f:
                    9d:ce:54:67:64:99:85:e8:9b:ae:ad:dd:db:a4:be:
                    a7:4f:5d:50:b9:cf:57:4a:d9:47:3a:53:61:63:d2:
                    72:2f:96:a6:f9:61:3c:cf:d3:ed:3b:eb:54:4c:c3:
                    fa:17:89:cd:78:4d:f8:c8:b1:4f:0e:8b:d9:61:02:
                    07:b8:8d:8e:dd:9c:a6:6c:d6:c1:5a:a9:ce:b3:49:
                    ca:1d:23:bb:32:36:5c:b8:2e:de:70:72:df:e4:9b:
                    bf:97:14:c5:97:dd:78:75:c0:c1:5c:2f:a9:17:5e:
                    b7:62:e8:32:7a:56:65:d8:16:48:98:97:f1:5f:90:
                    98:84:91:09:a8:9f:56:53:72:ef:55:f9:72:ad:91:
                    f4:6a:de:09:f3:31:19:ca:0c:6a:1c:65:2b:97:6b:
                    5d:f7:ff:94:c5:8a:a1:4c:56:2e:e0:9a:da:56:a7:
                    df:bc:73:62:37:6e:64:c2:53:11:f7:6c:bb:f2:11:
                    14:de:89:d1:75:48:53:3a:17:99:67:bc:56:3e:5b:
                    33:0e:7f:85:12:52:ad:a7:c0:12:19:1a:fc:ff:64:
                    33:37:33:36:c6:58:a8:15:de:bd:6d:15:5f:dd:01:
                    99:d4:ea:4a:a4:24:40:43:d3:6a:95:3f:87:30:12:
                    c9:74:21:a0:4c:4c:39:2e:da:ff:75:ff:40:44:ca:
                    a5:26:46:a1:58:c6:bb:98:03:b6:f5:51:9f:df:e1:
                    c4:a0:83
                Exponent: 65537 (0x10001)
        X509v3 extensions:
            X509v3 Basic Constraints: 
                CA:FALSE
            Netscape Comment: 
                Easy-RSA Generated Certificate
            X509v3 Subject Key Identifier: 
                3B:47:EE:61:F3:89:07:D7:A2:82:5F:CE:6C:DA:72:3D:F0:EA:A4:B4
            X509v3 Authority Key Identifier: 
                keyid:12:CD:60:04:D2:A0:80:9E:70:ED:C6:99:B8:7B:2C:C6:52:FD:19:A1
                DirName:/C=US/ST=OH/L=Columbus/O=VikingVPN/OU=MyOrganizationalUnit/CN=VikingVPN CA/name=EasyRSA/emailAddress=me@myhost.mydomain
                serial:CF:35:85:EE:80:BF:2A:3E

            X509v3 Extended Key Usage: 
                TLS Web Client Authentication
            X509v3 Key Usage: 
                Digital Signature
    Signature Algorithm: md5WithRSAEncryption
         17:55:75:01:96:e3:ac:e9:1d:1f:7e:2c:12:b3:14:f5:40:52:
         6d:a4:28:5f:48:08:30:b6:2b:c6:fb:d0:e7:25:a0:86:aa:61:
         91:0e:1b:b7:88:be:81:57:85:a7:77:1d:2f:23:38:e3:84:a7:
         f1:18:27:85:a2:d9:07:d3:71:28:a4:54:e2:b3:be:54:5a:28:
         11:f5:ba:1c:18:b0:02:ba:e8:70:19:21:83:12:c8:35:cf:38:
         8c:c1:e2:81:b1:3e:ac:44:43:b5:2f:0d:ee:5d:5f:29:6b:e5:
         31:80:a3:70:89:da:5d:b7:17:9d:e5:5b:d0:e2:8e:1c:2f:d3:
         96:60:56:ca:b3:13:13:77:36:79:a4:c1:d7:e0:b3:d6:b7:8c:
         b2:73:70:5a:ec:8e:95:cb:39:5c:2d:bf:3d:13:fa:fd:33:13:
         11:2d:2c:d7:4d:b4:5f:d1:44:5e:eb:96:11:54:4d:82:27:f5:
         a7:cd:fe:24:34:6f:07:f8:bc:b1:02:75:ba:99:a3:00:9e:80:
         1c:0d:85:72:33:6e:6f:db:db:52:9d:8b:45:24:48:d2:a2:4f:
         50:f2:7d:9a:bf:ae:d9:61:a3:62:4d:5a:87:68:68:cd:01:c3:
         1e:6d:2a:cd:0e:08:6c:03:07:df:a7:72:b8:47:4e:b9:e7:a0:
         18:28:42:d3:18:28:1a:4a:a3:19:d1:2d:1c:b7:58:7f:a3:58:
         98:8f:e2:00:60:f4:11:fa:86:02:a4:d2:c0:1e:ee:23:87:56:
         df:d4:16:8e:2d:02:43:1b:45:3d:ec:a5:82:a1:df:9f:86:81:
         24:d0:11:b2:ea:27:7b:06:ce:89:ed:ec:00:3e:63:a9:e1:d1:
         f9:04:40:ae:4e:d8:50:65:cb:10:6b:57:a2:1a:cd:65:00:85:
         53:e3:19:30:7f:b1:d1:6e:bd:76:04:36:a9:54:e2:1c:73:b5:
         ce:ac:aa:ba:3f:04:c7:58:f1:d5:35:a9:5c:e7:01:e0:bb:5c:
         84:ab:02:bf:6e:fb:d8:50:01:f0:bd:15:5f:7d:05:1e:aa:dc:
         d7:72:ec:f4:b6:1a:2e:fc:d1:10:e2:a9:b7:de:fa:a0:c4:55:
         27:2b:2e:06:7d:3b:69:dc:c7:e7:47:bb:e7:ce:2d:ac:ae:73:
         bd:8d:11:dd:79:35:65:ac:d1:cb:eb:80:51:21:16:48:76:4b:
         99:36:99:19:b4:ac:80:75:e7:9c:76:91:39:cd:ca:a1:cd:c9:
         a8:24:f6:ed:65:e0:1c:48:df:06:5e:f3:fb:3c:10:4e:13:7f:
         45:87:1e:46:81:3f:91:e8:9b:24:a8:c1:43:57:9f:ca:6b:87:
         ab:bd:40:04:ea:1c:86:a9
-----BEGIN CERTIFICATE-----
MIIGrDCCBJSgAwIBAgICB1gwDQYJKoZIhvcNAQEEBQAwgawxCzAJBgNVBAYTAlVT
MQswCQYDVQQIEwJPSDERMA8GA1UEBxMIQ29sdW1idXMxEjAQBgNVBAoTCVZpa2lu
Z1ZQTjEdMBsGA1UECxMUTXlPcmdhbml6YXRpb25hbFVuaXQxFTATBgNVBAMTDFZp
a2luZ1ZQTiBDQTEQMA4GA1UEKRMHRWFzeVJTQTEhMB8GCSqGSIb3DQEJARYSbWVA
bXlob3N0Lm15ZG9tYWluMB4XDTE0MDUxNTIyMzAzMFoXDTI0MDUxMjIyMzAzMFow
HjEcMBoGA1UEAxMTQ2xpZW50NjU2Q2VydGJjZTgzZTCCAiIwDQYJKoZIhvcNAQEB
BQADggIPADCCAgoCggIBALPOcy0cXcU6zdBCNMW/OS6sTzKp7RtF7LvVqU4e3SIU
P8s2+vdCG/5kWQRsW+rSf0Ctn7EaePIoCN+pP0cl2JbJsqqXfk9eoO3GHYk4+8DL
2uPUaW7rVKOvQbaNIMhTslvt602+1ylOf6LH3PXC/8eQQlH9MP9GbargB1zSfuql
cbc42JiWEkixE5cOcm9kQfUaIiCwFFUEcqyMId2ZdP1B8ZjElIqRi2GhEwhbWRwc
8bo6nzPhvt19PZQOAouOvup4D9yT0i8KusSbfxxTeZx7Z1qqxwrMNFZSuAFc5YxF
tBspXmK7DQSaWg5U2sifnc5UZ2SZheibrq3d26S+p09dULnPV0rZRzpTYWPSci+W
pvlhPM/T7TvrVEzD+heJzXhN+MixTw6L2WECB7iNjt2cpmzWwVqpzrNJyh0juzI2
XLgu3nBy3+Sbv5cUxZfdeHXAwVwvqRdet2LoMnpWZdgWSJiX8V+QmISRCaifVlNy
71X5cq2R9GreCfMxGcoMahxlK5drXff/lMWKoUxWLuCa2lan37xzYjduZMJTEfds
u/IRFN6J0XVIUzoXmWe8Vj5bMw5/hRJSrafAEhka/P9kMzczNsZYqBXevW0VX90B
mdTqSqQkQEPTapU/hzASyXQhoExMOS7a/3X/QETKpSZGoVjGu5gDtvVRn9/hxKCD
AgMBAAGjggFjMIIBXzAJBgNVHRMEAjAAMC0GCWCGSAGG+EIBDQQgFh5FYXN5LVJT
QSBHZW5lcmF0ZWQgQ2VydGlmaWNhdGUwHQYDVR0OBBYEFDtH7mHziQfXooJfzmza
cj3w6qS0MIHhBgNVHSMEgdkwgdaAFBLNYATSoICecO3Gmbh7LMZS/RmhoYGypIGv
MIGsMQswCQYDVQQGEwJVUzELMAkGA1UECBMCT0gxETAPBgNVBAcTCENvbHVtYnVz
MRIwEAYDVQQKEwlWaWtpbmdWUE4xHTAbBgNVBAsTFE15T3JnYW5pemF0aW9uYWxV
bml0MRUwEwYDVQQDEwxWaWtpbmdWUE4gQ0ExEDAOBgNVBCkTB0Vhc3lSU0ExITAf
BgkqhkiG9w0BCQEWEm1lQG15aG9zdC5teWRvbWFpboIJAM81he6Avyo+MBMGA1Ud
JQQMMAoGCCsGAQUFBwMCMAsGA1UdDwQEAwIHgDANBgkqhkiG9w0BAQQFAAOCAgEA
F1V1AZbjrOkdH34sErMU9UBSbaQoX0gIMLYrxvvQ5yWghqphkQ4bt4i+gVeFp3cd
LyM444Sn8RgnhaLZB9NxKKRU4rO+VFooEfW6HBiwArrocBkhgxLINc84jMHigbE+
rERDtS8N7l1fKWvlMYCjcInaXbcXneVb0OKOHC/TlmBWyrMTE3c2eaTB1+Cz1reM
snNwWuyOlcs5XC2/PRP6/TMTES0s1020X9FEXuuWEVRNgif1p83+JDRvB/i8sQJ1
upmjAJ6AHA2FcjNub9vbUp2LRSRI0qJPUPJ9mr+u2WGjYk1ah2hozQHDHm0qzQ4I
bAMH36dyuEdOueegGChC0xgoGkqjGdEtHLdYf6NYmI/iAGD0EfqGAqTSwB7uI4dW
39QWji0CQxtFPeylgqHfn4aBJNARsuonewbOie3sAD5jqeHR+QRArk7YUGXLEGtX
ohrNZQCFU+MZMH+x0W69dgQ2qVTiHHO1zqyquj8Ex1jx1TWpXOcB4LtchKsCv277
2FAB8L0VX30FHqrc13Ls9LYaLvzREOKpt976oMRVJysuBn07adzH50e7584trK5z
vY0R3Xk1ZazRy+uAUSEWSHZLmTaZGbSsgHXnnHaROc3Koc3JqCT27WXgHEjfBl7z
+zwQThN/RYceRoE/keibJKjBQ1efymuHq71ABOochqk=
-----END CERTIFICATE-----
