Certificate:
    Data:
        Version: 3 (0x2)
        Serial Number: 1887 (0x75f)
    Signature Algorithm: md5WithRSAEncryption
        Issuer: C=US, ST=OH, L=Columbus, O=VikingVPN, OU=MyOrganizationalUnit, CN=VikingVPN CA/name=EasyRSA/emailAddress=me@myhost.mydomain
        Validity
            Not Before: May 16 02:36:36 2014 GMT
            Not After : May 13 02:36:36 2024 GMT
        Subject: CN=Client648Cert57d0f3
        Subject Public Key Info:
            Public Key Algorithm: rsaEncryption
                Public-Key: (4096 bit)
                Modulus:
                    00:a3:30:dd:5d:60:07:27:cc:33:18:04:48:5b:4a:
                    33:1f:52:f2:6e:ba:6c:c8:46:b8:2b:a6:fd:1a:62:
                    9c:01:77:15:fc:0b:d6:4c:a5:6c:1c:c6:e3:48:61:
                    89:56:96:b2:cb:4b:82:12:43:1d:b1:46:0c:e6:d6:
                    ea:f1:d7:90:56:94:a1:17:a8:e3:a9:99:aa:1c:27:
                    52:19:a5:53:9c:e1:47:40:e3:97:f8:13:9b:fd:86:
                    4f:75:18:68:9c:f5:03:eb:ad:47:fa:d6:7e:1a:d0:
                    f6:28:d6:3b:91:2a:ed:d8:61:3b:71:f8:f1:58:44:
                    b7:a7:1a:e0:b3:fc:04:66:9c:7f:17:be:41:23:5e:
                    a3:d7:6b:2f:63:46:a4:f0:9c:1d:26:39:18:a5:04:
                    96:c7:a2:1c:76:bb:b9:c6:13:44:b6:83:ab:fb:f1:
                    3c:15:78:e0:7e:bd:1e:b6:6f:81:84:f7:e2:b0:b5:
                    4b:da:a5:50:57:7d:e5:12:93:7a:a5:5f:66:f9:74:
                    f1:83:d7:34:b4:5a:a5:3c:7f:05:af:38:1f:18:6c:
                    77:3f:d6:28:45:3b:30:a7:02:d4:11:85:de:cd:c3:
                    05:22:2e:86:58:e3:bd:54:df:5d:a6:32:59:50:33:
                    8d:23:73:55:0f:50:58:07:11:51:05:b3:25:71:2a:
                    e3:2f:eb:02:ef:ab:67:d1:94:38:83:dc:97:68:d9:
                    d8:6e:a1:fb:0a:94:f8:58:a2:81:ff:53:47:ff:43:
                    a3:f8:e1:49:95:67:c5:17:dc:45:f5:73:87:db:74:
                    28:78:58:09:97:f8:ef:3d:ed:4d:46:f3:30:b2:fe:
                    06:c7:f8:4d:47:35:5c:82:a6:c9:38:02:0f:8d:d4:
                    d3:4a:c2:17:b4:db:4a:44:e2:4b:bf:50:05:41:4a:
                    49:c8:ff:ea:52:07:48:64:9e:ca:0d:15:0b:84:2e:
                    05:f8:61:16:50:96:ec:b6:85:01:fa:c1:ab:0a:61:
                    70:18:91:69:c5:6c:d5:06:5f:a6:de:d3:67:e0:04:
                    2a:70:86:96:0f:0f:3e:43:00:a4:85:c5:36:22:84:
                    39:eb:18:1d:05:ad:8a:de:7f:15:a7:80:1b:14:96:
                    35:ff:53:cb:4b:bd:85:b4:99:ec:3a:f9:fd:2f:e2:
                    85:e5:7b:c6:86:51:9a:6d:c6:9f:b8:cb:b2:95:c0:
                    be:e0:74:ca:45:c7:27:9a:f5:28:c9:55:9d:6e:63:
                    ce:a6:9c:ea:ce:5f:b2:4a:84:d6:44:0e:72:84:81:
                    bf:15:4e:5a:10:94:6b:f3:77:25:bb:ba:b4:b8:e6:
                    e0:71:26:32:b8:7e:8f:86:48:de:16:dd:9a:53:a2:
                    8f:59:3b
                Exponent: 65537 (0x10001)
        X509v3 extensions:
            X509v3 Basic Constraints: 
                CA:FALSE
            Netscape Comment: 
                Easy-RSA Generated Certificate
            X509v3 Subject Key Identifier: 
                45:29:A3:10:F7:BA:33:CD:A6:48:C8:5C:C2:43:F8:94:88:9A:D3:13
            X509v3 Authority Key Identifier: 
                keyid:12:CD:60:04:D2:A0:80:9E:70:ED:C6:99:B8:7B:2C:C6:52:FD:19:A1
                DirName:/C=US/ST=OH/L=Columbus/O=VikingVPN/OU=MyOrganizationalUnit/CN=VikingVPN CA/name=EasyRSA/emailAddress=me@myhost.mydomain
                serial:CF:35:85:EE:80:BF:2A:3E

            X509v3 Extended Key Usage: 
                TLS Web Client Authentication
            X509v3 Key Usage: 
                Digital Signature
    Signature Algorithm: md5WithRSAEncryption
         53:c9:a1:7d:00:06:4f:c3:cf:19:98:bb:0b:72:56:65:e5:1c:
         83:80:83:d2:f2:2b:1b:f9:53:44:fb:35:70:d3:dd:03:e7:c0:
         ba:b3:6b:8d:6f:7f:f3:cd:45:83:18:c3:39:7d:e6:ad:df:6d:
         f1:59:cf:ca:cf:ce:3a:1b:24:5e:3f:c3:be:7c:6c:e7:ff:61:
         ab:14:52:36:9f:e3:aa:9a:3b:55:72:05:53:4a:dd:94:ea:a5:
         72:e0:90:ae:94:83:69:01:cd:1b:c8:1b:7a:2f:c7:1c:e9:65:
         aa:99:6b:53:44:5c:de:5e:28:34:20:09:8c:74:11:c1:22:a1:
         e7:a5:ec:e8:d7:7e:e5:f9:a2:fe:5b:e1:d4:dc:ca:2f:ed:13:
         3b:c6:d7:5e:01:8a:b2:a6:a5:96:06:20:c7:e0:eb:08:47:34:
         c7:fb:8b:92:8f:d8:98:c6:d6:12:1f:d5:03:94:12:c8:0e:66:
         df:7c:ca:e8:8f:ac:28:5f:90:4b:6c:1f:c5:ce:08:d1:36:17:
         dd:34:e2:d3:f5:65:51:cb:3e:62:58:04:39:a9:53:ee:c5:0d:
         0b:9a:3e:2a:b2:e7:ea:67:10:6d:be:d4:8b:46:36:f9:91:89:
         7c:5e:e6:8c:d2:ed:14:44:47:52:3a:5c:dc:e1:fc:b7:c5:e8:
         14:f2:71:36:f0:db:2d:42:50:30:a7:63:eb:2d:69:01:8e:aa:
         ff:77:ea:5e:22:e2:68:a1:86:2e:44:34:a3:f3:14:7f:85:3d:
         07:e1:f7:61:02:19:53:91:a1:ce:80:8a:3f:58:bf:96:8c:23:
         91:5b:95:e6:35:81:70:0d:42:35:50:b8:b3:10:8f:76:15:c8:
         ff:ef:bf:25:38:a4:32:da:5c:f5:e0:dd:2b:1e:21:1c:35:6b:
         bb:23:4d:6f:1a:2a:43:49:c6:43:f6:00:35:4c:93:fa:65:e0:
         6c:3c:68:52:7d:8a:f1:05:b5:56:b0:bc:d4:0a:c2:4b:58:0f:
         c5:e4:6f:86:1b:62:13:ce:8f:1c:10:06:c4:08:b0:4f:1c:d2:
         43:c4:e9:94:60:d0:35:27:88:df:e9:ed:32:18:1f:52:aa:ea:
         0b:2f:c9:0c:74:1f:ee:53:28:a3:56:45:34:6a:62:d4:c8:9b:
         0d:9a:ee:7f:0e:36:1d:ce:ea:c6:2c:31:51:36:01:75:5d:32:
         6d:b4:18:2e:24:07:d5:54:c6:c4:cb:03:ea:1b:0b:ad:3a:b0:
         cb:54:ed:68:35:fd:78:e7:9a:c0:96:04:af:67:c8:9f:8e:75:
         c3:92:74:75:e0:25:d1:98:ad:f3:f5:cf:95:19:d2:fe:00:07:
         1b:8d:b7:e5:af:bf:30:df
-----BEGIN CERTIFICATE-----
MIIGrDCCBJSgAwIBAgICB18wDQYJKoZIhvcNAQEEBQAwgawxCzAJBgNVBAYTAlVT
MQswCQYDVQQIEwJPSDERMA8GA1UEBxMIQ29sdW1idXMxEjAQBgNVBAoTCVZpa2lu
Z1ZQTjEdMBsGA1UECxMUTXlPcmdhbml6YXRpb25hbFVuaXQxFTATBgNVBAMTDFZp
a2luZ1ZQTiBDQTEQMA4GA1UEKRMHRWFzeVJTQTEhMB8GCSqGSIb3DQEJARYSbWVA
bXlob3N0Lm15ZG9tYWluMB4XDTE0MDUxNjAyMzYzNloXDTI0MDUxMzAyMzYzNlow
HjEcMBoGA1UEAxMTQ2xpZW50NjQ4Q2VydDU3ZDBmMzCCAiIwDQYJKoZIhvcNAQEB
BQADggIPADCCAgoCggIBAKMw3V1gByfMMxgESFtKMx9S8m66bMhGuCum/RpinAF3
FfwL1kylbBzG40hhiVaWsstLghJDHbFGDObW6vHXkFaUoReo46mZqhwnUhmlU5zh
R0Djl/gTm/2GT3UYaJz1A+utR/rWfhrQ9ijWO5Eq7dhhO3H48VhEt6ca4LP8BGac
fxe+QSNeo9drL2NGpPCcHSY5GKUElseiHHa7ucYTRLaDq/vxPBV44H69HrZvgYT3
4rC1S9qlUFd95RKTeqVfZvl08YPXNLRapTx/Ba84Hxhsdz/WKEU7MKcC1BGF3s3D
BSIuhljjvVTfXaYyWVAzjSNzVQ9QWAcRUQWzJXEq4y/rAu+rZ9GUOIPcl2jZ2G6h
+wqU+Fiigf9TR/9Do/jhSZVnxRfcRfVzh9t0KHhYCZf47z3tTUbzMLL+Bsf4TUc1
XIKmyTgCD43U00rCF7TbSkTiS79QBUFKScj/6lIHSGSeyg0VC4QuBfhhFlCW7LaF
AfrBqwphcBiRacVs1QZfpt7TZ+AEKnCGlg8PPkMApIXFNiKEOesYHQWtit5/FaeA
GxSWNf9Ty0u9hbSZ7Dr5/S/iheV7xoZRmm3Gn7jLspXAvuB0ykXHJ5r1KMlVnW5j
zqac6s5fskqE1kQOcoSBvxVOWhCUa/N3Jbu6tLjm4HEmMrh+j4ZI3hbdmlOij1k7
AgMBAAGjggFjMIIBXzAJBgNVHRMEAjAAMC0GCWCGSAGG+EIBDQQgFh5FYXN5LVJT
QSBHZW5lcmF0ZWQgQ2VydGlmaWNhdGUwHQYDVR0OBBYEFEUpoxD3ujPNpkjIXMJD
+JSImtMTMIHhBgNVHSMEgdkwgdaAFBLNYATSoICecO3Gmbh7LMZS/RmhoYGypIGv
MIGsMQswCQYDVQQGEwJVUzELMAkGA1UECBMCT0gxETAPBgNVBAcTCENvbHVtYnVz
MRIwEAYDVQQKEwlWaWtpbmdWUE4xHTAbBgNVBAsTFE15T3JnYW5pemF0aW9uYWxV
bml0MRUwEwYDVQQDEwxWaWtpbmdWUE4gQ0ExEDAOBgNVBCkTB0Vhc3lSU0ExITAf
BgkqhkiG9w0BCQEWEm1lQG15aG9zdC5teWRvbWFpboIJAM81he6Avyo+MBMGA1Ud
JQQMMAoGCCsGAQUFBwMCMAsGA1UdDwQEAwIHgDANBgkqhkiG9w0BAQQFAAOCAgEA
U8mhfQAGT8PPGZi7C3JWZeUcg4CD0vIrG/lTRPs1cNPdA+fAurNrjW9/881FgxjD
OX3mrd9t8VnPys/OOhskXj/Dvnxs5/9hqxRSNp/jqpo7VXIFU0rdlOqlcuCQrpSD
aQHNG8gbei/HHOllqplrU0Rc3l4oNCAJjHQRwSKh56Xs6Nd+5fmi/lvh1NzKL+0T
O8bXXgGKsqallgYgx+DrCEc0x/uLko/YmMbWEh/VA5QSyA5m33zK6I+sKF+QS2wf
xc4I0TYX3TTi0/VlUcs+YlgEOalT7sUNC5o+KrLn6mcQbb7Ui0Y2+ZGJfF7mjNLt
FERHUjpc3OH8t8XoFPJxNvDbLUJQMKdj6y1pAY6q/3fqXiLiaKGGLkQ0o/MUf4U9
B+H3YQIZU5GhzoCKP1i/lowjkVuV5jWBcA1CNVC4sxCPdhXI/++/JTikMtpc9eDd
Kx4hHDVruyNNbxoqQ0nGQ/YANUyT+mXgbDxoUn2K8QW1VrC81ArCS1gPxeRvhhti
E86PHBAGxAiwTxzSQ8TplGDQNSeI3+ntMhgfUqrqCy/JDHQf7lMoo1ZFNGpi1Mib
DZrufw42Hc7qxiwxUTYBdV0ybbQYLiQH1VTGxMsD6hsLrTqwy1TtaDX9eOeawJYE
r2fIn451w5J0deAl0Zit8/XPlRnS/gAHG4235a+/MN8=
-----END CERTIFICATE-----
