Certificate:
    Data:
        Version: 3 (0x2)
        Serial Number: 1899 (0x76b)
    Signature Algorithm: md5WithRSAEncryption
        Issuer: C=US, ST=OH, L=Columbus, O=VikingVPN, OU=MyOrganizationalUnit, CN=VikingVPN CA/name=EasyRSA/emailAddress=me@myhost.mydomain
        Validity
            Not Before: May 16 14:27:34 2014 GMT
            Not After : May 13 14:27:34 2024 GMT
        Subject: CN=Client648Cert6888f2
        Subject Public Key Info:
            Public Key Algorithm: rsaEncryption
                Public-Key: (4096 bit)
                Modulus:
                    00:bd:2c:4b:d0:fc:54:8e:ae:f5:77:4e:71:0d:5f:
                    4f:c6:8d:ce:a5:81:5a:b2:93:dd:fe:79:32:bd:8d:
                    5f:a9:94:bd:2d:68:86:d9:8a:51:45:cf:b1:12:68:
                    9f:2b:b5:06:1d:06:72:a8:db:44:01:b9:5a:f8:7f:
                    ab:3f:c2:06:e2:b3:fd:c9:43:91:71:77:14:37:79:
                    9d:92:5e:43:6d:77:84:fd:77:d8:2b:66:20:60:58:
                    8c:d3:13:22:d2:99:c8:7f:81:a5:18:04:46:40:b6:
                    27:67:09:bf:f4:59:d8:45:cc:05:be:bb:53:d3:16:
                    37:a9:1b:a5:fd:21:95:95:06:19:28:ee:4b:91:c0:
                    51:3d:24:25:b8:62:57:e1:b2:10:07:33:e2:02:2d:
                    48:8a:50:ab:2c:7a:45:73:10:a8:2e:fb:f8:80:50:
                    e3:b1:2e:2c:9c:bd:d3:b0:21:62:ef:6a:8f:3b:5f:
                    a5:eb:80:3a:44:d7:d7:1a:5d:d1:de:b2:c9:a3:eb:
                    ab:67:93:df:9f:05:ab:a3:42:88:eb:ea:55:9b:5f:
                    da:e4:d9:57:8f:fa:1a:5c:f9:68:dd:1b:90:34:4a:
                    82:38:41:40:b1:f6:78:8d:44:80:52:a6:f4:eb:74:
                    42:db:fd:51:45:96:a8:ea:f6:36:39:8e:11:91:3f:
                    85:38:67:2f:bf:1b:fb:da:fe:2e:06:56:8e:de:31:
                    05:fc:7b:9a:e9:01:64:cb:b4:77:06:80:d6:5d:f5:
                    b1:99:b1:24:d1:56:0f:d7:1d:d4:0b:3d:f5:7e:27:
                    44:f8:d1:70:85:b7:7b:04:e4:db:dc:ef:64:c1:2f:
                    ab:83:b0:64:7a:06:da:cb:41:d1:06:85:5c:a2:d5:
                    2c:59:ba:96:44:a9:80:ec:b2:66:78:ac:6a:40:c4:
                    e5:8f:73:6e:2d:fd:de:78:60:7e:f0:34:38:7a:88:
                    27:9b:ed:ed:ec:8e:f1:e1:ce:e0:5b:62:1a:58:59:
                    d5:7d:5d:34:71:7f:4b:06:d1:cf:e1:c9:e9:aa:d8:
                    4c:58:30:5e:f0:bf:e1:b7:c5:73:db:c4:89:66:b5:
                    7b:05:1b:c0:a6:bd:b6:13:18:00:02:f8:f0:a8:d0:
                    c9:ca:06:d8:90:2b:e2:56:8a:04:a7:64:8e:f7:0e:
                    53:d3:54:ac:2b:fd:eb:75:0b:a2:dc:86:df:f2:3a:
                    4c:07:0f:8a:84:4b:c1:33:4e:d0:cb:03:41:1c:25:
                    99:f1:fd:d0:b8:14:c5:7f:ef:24:bf:3e:55:fe:8c:
                    63:e9:74:ec:f9:f6:86:5a:8e:38:13:36:1a:66:70:
                    bf:c7:63:c3:36:ba:f7:2e:69:b7:3c:3f:6f:46:1a:
                    ad:1c:3f
                Exponent: 65537 (0x10001)
        X509v3 extensions:
            X509v3 Basic Constraints: 
                CA:FALSE
            Netscape Comment: 
                Easy-RSA Generated Certificate
            X509v3 Subject Key Identifier: 
                87:02:6B:12:80:BB:84:EA:C7:98:D9:56:34:FB:4D:89:0D:C1:87:FA
            X509v3 Authority Key Identifier: 
                keyid:12:CD:60:04:D2:A0:80:9E:70:ED:C6:99:B8:7B:2C:C6:52:FD:19:A1
                DirName:/C=US/ST=OH/L=Columbus/O=VikingVPN/OU=MyOrganizationalUnit/CN=VikingVPN CA/name=EasyRSA/emailAddress=me@myhost.mydomain
                serial:CF:35:85:EE:80:BF:2A:3E

            X509v3 Extended Key Usage: 
                TLS Web Client Authentication
            X509v3 Key Usage: 
                Digital Signature
    Signature Algorithm: md5WithRSAEncryption
         27:e4:cf:5c:dd:ae:9a:c4:4a:42:c5:78:14:fb:d8:42:bf:77:
         4c:15:b7:dd:0c:02:0a:9a:02:1d:d0:69:6e:48:b4:3b:52:0c:
         27:06:d7:25:10:5b:bc:a7:99:f4:d1:5a:4b:16:a9:8f:f8:ba:
         5c:42:6c:a0:53:26:4b:3f:14:64:c8:cb:ff:21:1b:1d:6e:5c:
         8f:13:32:0d:f8:89:5d:a2:25:87:cc:77:40:02:17:5d:f1:eb:
         e9:39:67:ac:59:64:c7:7a:2b:a4:da:9e:e5:37:1e:ff:7b:f6:
         c6:6a:15:46:54:fd:79:f8:74:4e:26:80:30:ff:77:40:26:50:
         b9:d9:ab:a4:b4:fc:f3:a0:67:4f:fa:94:7d:b2:86:fd:35:69:
         f1:32:0b:ad:d3:1d:82:d9:06:68:92:f7:f6:5d:94:6e:eb:66:
         93:19:28:19:20:ac:86:cc:d0:10:3d:90:fe:96:96:3b:6e:00:
         68:b9:1c:ac:c8:6b:12:35:bb:e0:8e:48:50:14:2d:0d:ba:7f:
         b2:24:f7:80:5c:d9:9f:66:e5:8d:3d:f2:ef:ed:21:53:dc:4b:
         85:81:21:5d:f6:5c:a9:63:aa:a5:bb:ac:77:71:9e:90:7f:d0:
         0d:e0:80:bf:05:6d:b5:cf:91:6c:f0:26:77:89:44:74:fa:aa:
         21:59:bd:7d:c4:1c:48:cd:7e:d6:89:92:7a:53:3b:98:c0:1e:
         f9:a8:7f:71:fd:dd:d2:d3:af:13:7b:8b:3e:10:75:39:d3:1f:
         4e:77:d2:43:4f:1c:30:4d:47:18:fe:d4:98:53:d6:e7:0b:e9:
         db:d5:3c:dc:2f:ec:62:bf:99:22:11:e3:bb:1d:d6:af:b7:ee:
         8d:fa:f2:1f:1c:2f:e7:15:b8:a8:2e:28:a1:60:e4:fb:d3:63:
         fd:b8:71:ce:f7:ae:46:64:dd:13:9c:03:cd:21:f3:7b:7d:04:
         86:8e:9c:32:9b:42:d5:4e:5e:ac:81:c3:3d:fc:e8:f5:1c:26:
         8e:6d:2a:dc:a9:00:ac:bb:f1:8e:b0:4e:37:4c:4f:8e:be:f5:
         92:08:4e:88:6e:88:b3:39:00:dd:7f:e2:8f:1d:1c:62:44:fa:
         d9:3c:42:60:59:d2:40:d1:ef:b9:91:b6:62:7e:e1:89:42:54:
         b4:c3:a4:52:96:64:f8:f8:af:67:68:24:0c:f1:58:0e:7e:99:
         2d:5a:0e:96:a4:b8:62:4e:68:38:25:4d:92:39:3e:16:5e:f9:
         48:e0:08:c3:c4:24:1a:3f:d4:a5:06:6b:e3:be:99:6b:41:39:
         89:75:cc:47:a0:87:06:e7:e1:94:cf:88:f1:5c:cc:ee:7f:7e:
         fc:1d:bc:6b:87:eb:ab:c0
-----BEGIN CERTIFICATE-----
MIIGrDCCBJSgAwIBAgICB2swDQYJKoZIhvcNAQEEBQAwgawxCzAJBgNVBAYTAlVT
MQswCQYDVQQIEwJPSDERMA8GA1UEBxMIQ29sdW1idXMxEjAQBgNVBAoTCVZpa2lu
Z1ZQTjEdMBsGA1UECxMUTXlPcmdhbml6YXRpb25hbFVuaXQxFTATBgNVBAMTDFZp
a2luZ1ZQTiBDQTEQMA4GA1UEKRMHRWFzeVJTQTEhMB8GCSqGSIb3DQEJARYSbWVA
bXlob3N0Lm15ZG9tYWluMB4XDTE0MDUxNjE0MjczNFoXDTI0MDUxMzE0MjczNFow
HjEcMBoGA1UEAxMTQ2xpZW50NjQ4Q2VydDY4ODhmMjCCAiIwDQYJKoZIhvcNAQEB
BQADggIPADCCAgoCggIBAL0sS9D8VI6u9XdOcQ1fT8aNzqWBWrKT3f55Mr2NX6mU
vS1ohtmKUUXPsRJonyu1Bh0GcqjbRAG5Wvh/qz/CBuKz/clDkXF3FDd5nZJeQ213
hP132CtmIGBYjNMTItKZyH+BpRgERkC2J2cJv/RZ2EXMBb67U9MWN6kbpf0hlZUG
GSjuS5HAUT0kJbhiV+GyEAcz4gItSIpQqyx6RXMQqC77+IBQ47EuLJy907AhYu9q
jztfpeuAOkTX1xpd0d6yyaPrq2eT358Fq6NCiOvqVZtf2uTZV4/6Glz5aN0bkDRK
gjhBQLH2eI1EgFKm9Ot0Qtv9UUWWqOr2NjmOEZE/hThnL78b+9r+LgZWjt4xBfx7
mukBZMu0dwaA1l31sZmxJNFWD9cd1As99X4nRPjRcIW3ewTk29zvZMEvq4OwZHoG
2stB0QaFXKLVLFm6lkSpgOyyZnisakDE5Y9zbi393nhgfvA0OHqIJ5vt7eyO8eHO
4FtiGlhZ1X1dNHF/SwbRz+HJ6arYTFgwXvC/4bfFc9vEiWa1ewUbwKa9thMYAAL4
8KjQycoG2JAr4laKBKdkjvcOU9NUrCv963ULotyG3/I6TAcPioRLwTNO0MsDQRwl
mfH90LgUxX/vJL8+Vf6MY+l07Pn2hlqOOBM2GmZwv8djwza69y5ptzw/b0YarRw/
AgMBAAGjggFjMIIBXzAJBgNVHRMEAjAAMC0GCWCGSAGG+EIBDQQgFh5FYXN5LVJT
QSBHZW5lcmF0ZWQgQ2VydGlmaWNhdGUwHQYDVR0OBBYEFIcCaxKAu4Tqx5jZVjT7
TYkNwYf6MIHhBgNVHSMEgdkwgdaAFBLNYATSoICecO3Gmbh7LMZS/RmhoYGypIGv
MIGsMQswCQYDVQQGEwJVUzELMAkGA1UECBMCT0gxETAPBgNVBAcTCENvbHVtYnVz
MRIwEAYDVQQKEwlWaWtpbmdWUE4xHTAbBgNVBAsTFE15T3JnYW5pemF0aW9uYWxV
bml0MRUwEwYDVQQDEwxWaWtpbmdWUE4gQ0ExEDAOBgNVBCkTB0Vhc3lSU0ExITAf
BgkqhkiG9w0BCQEWEm1lQG15aG9zdC5teWRvbWFpboIJAM81he6Avyo+MBMGA1Ud
JQQMMAoGCCsGAQUFBwMCMAsGA1UdDwQEAwIHgDANBgkqhkiG9w0BAQQFAAOCAgEA
J+TPXN2umsRKQsV4FPvYQr93TBW33QwCCpoCHdBpbki0O1IMJwbXJRBbvKeZ9NFa
Sxapj/i6XEJsoFMmSz8UZMjL/yEbHW5cjxMyDfiJXaIlh8x3QAIXXfHr6TlnrFlk
x3orpNqe5Tce/3v2xmoVRlT9efh0TiaAMP93QCZQudmrpLT886BnT/qUfbKG/TVp
8TILrdMdgtkGaJL39l2UbutmkxkoGSCshszQED2Q/paWO24AaLkcrMhrEjW74I5I
UBQtDbp/siT3gFzZn2bljT3y7+0hU9xLhYEhXfZcqWOqpbusd3GekH/QDeCAvwVt
tc+RbPAmd4lEdPqqIVm9fcQcSM1+1omSelM7mMAe+ah/cf3d0tOvE3uLPhB1OdMf
TnfSQ08cME1HGP7UmFPW5wvp29U83C/sYr+ZIhHjux3Wr7fujfryHxwv5xW4qC4o
oWDk+9Nj/bhxzveuRmTdE5wDzSHze30Eho6cMptC1U5erIHDPfzo9Rwmjm0q3KkA
rLvxjrBON0xPjr71kghOiG6IszkA3X/ijx0cYkT62TxCYFnSQNHvuZG2Yn7hiUJU
tMOkUpZk+PivZ2gkDPFYDn6ZLVoOlqS4Yk5oOCVNkjk+Fl75SOAIw8QkGj/UpQZr
476Za0E5iXXMR6CHBufhlM+I8VzM7n9+/B28a4frq8A=
-----END CERTIFICATE-----
