Certificate:
    Data:
        Version: 3 (0x2)
        Serial Number: 1903 (0x76f)
    Signature Algorithm: md5WithRSAEncryption
        Issuer: C=US, ST=OH, L=Columbus, O=VikingVPN, OU=MyOrganizationalUnit, CN=VikingVPN CA/name=EasyRSA/emailAddress=me@myhost.mydomain
        Validity
            Not Before: May 16 17:37:16 2014 GMT
            Not After : May 13 17:37:16 2024 GMT
        Subject: CN=Client163Certb1bc7c
        Subject Public Key Info:
            Public Key Algorithm: rsaEncryption
                Public-Key: (4096 bit)
                Modulus:
                    00:9d:44:64:1c:2d:08:84:01:97:f3:24:82:17:2d:
                    ff:66:ef:e8:1d:91:92:3e:4c:6e:60:4a:33:bf:02:
                    a7:43:c9:ee:91:cf:90:9f:30:9f:b6:24:ce:33:4a:
                    b5:15:fa:78:81:7e:7b:31:4a:e1:84:ee:11:84:a2:
                    a8:b2:e9:cb:a3:ce:bb:3d:ce:54:fc:46:da:0d:b8:
                    a1:a6:15:00:70:bf:a5:2e:8a:5f:28:16:7f:b4:43:
                    1e:85:d6:57:43:98:c8:ec:29:13:ba:e2:b5:23:f7:
                    4c:7f:77:70:14:ff:d0:00:fe:4c:7b:b7:b4:6f:27:
                    a4:1e:d8:b6:1e:b6:f3:67:3d:2a:ef:bd:80:84:aa:
                    ae:5b:b7:c8:87:ed:7f:cb:58:04:61:26:b2:c1:2c:
                    e2:1c:4a:3c:63:1c:cc:bc:48:12:04:06:7e:7c:49:
                    21:7d:b2:87:72:3b:e7:db:fa:23:b8:b0:40:e7:b0:
                    14:ff:d1:9a:ce:34:a2:03:74:ac:a1:27:50:47:b1:
                    f7:33:80:f3:ab:b1:6e:3d:bc:43:f2:ff:f3:3a:e2:
                    f6:22:4d:24:28:92:5f:38:55:2a:0d:cf:c9:c4:68:
                    46:57:08:b9:d9:50:c2:f3:4d:47:07:25:d2:d6:eb:
                    c1:c9:be:f8:90:b2:2c:e2:e4:d2:ee:7a:b2:69:65:
                    aa:7c:42:42:95:45:ed:ef:15:56:80:95:1d:68:08:
                    e8:e2:13:26:ee:29:ac:ab:6f:11:73:7f:c0:5c:70:
                    f8:62:ea:7a:5c:9d:00:e3:f2:65:65:2d:01:43:91:
                    22:b2:55:5b:70:21:24:fd:e0:f4:95:66:08:4e:77:
                    0d:78:04:24:5a:5e:38:9a:9c:92:63:0a:a6:84:2e:
                    20:fd:d5:65:8f:22:40:85:4e:87:06:7a:99:c0:9e:
                    c8:a1:94:fc:35:c9:02:8a:e9:77:98:90:33:eb:d7:
                    21:ab:6c:67:26:0e:69:21:e6:ce:26:37:84:ae:ec:
                    13:5c:52:20:44:09:6a:59:16:38:f4:62:12:0c:18:
                    16:03:4a:20:ef:57:0c:ec:2f:fd:72:44:07:f8:eb:
                    36:9e:76:b3:14:e6:47:76:3f:0b:62:43:f8:47:f9:
                    f2:82:f4:81:e5:05:f0:ff:fb:b8:cc:45:53:9a:f3:
                    b0:b7:98:5d:60:ee:d3:5b:98:a6:9f:d9:15:38:28:
                    b1:62:24:bf:78:2b:f6:e6:25:f1:a3:43:12:ec:a6:
                    db:f3:f1:87:07:93:69:71:1b:ca:16:df:36:40:88:
                    5f:4d:8c:9b:d2:66:7c:6e:52:ce:65:1d:59:25:9a:
                    e8:e3:9c:a0:fb:c6:24:8a:ab:3f:32:7d:8b:e6:55:
                    4f:d1:9d
                Exponent: 65537 (0x10001)
        X509v3 extensions:
            X509v3 Basic Constraints: 
                CA:FALSE
            Netscape Comment: 
                Easy-RSA Generated Certificate
            X509v3 Subject Key Identifier: 
                C7:60:CF:87:61:61:D6:7C:FF:15:DB:26:2B:7A:07:CF:ED:63:B4:C5
            X509v3 Authority Key Identifier: 
                keyid:12:CD:60:04:D2:A0:80:9E:70:ED:C6:99:B8:7B:2C:C6:52:FD:19:A1
                DirName:/C=US/ST=OH/L=Columbus/O=VikingVPN/OU=MyOrganizationalUnit/CN=VikingVPN CA/name=EasyRSA/emailAddress=me@myhost.mydomain
                serial:CF:35:85:EE:80:BF:2A:3E

            X509v3 Extended Key Usage: 
                TLS Web Client Authentication
            X509v3 Key Usage: 
                Digital Signature
    Signature Algorithm: md5WithRSAEncryption
         64:49:86:b8:76:a4:11:e0:52:4b:22:13:62:e4:4d:84:01:86:
         73:c8:59:e3:7f:af:6d:3a:26:7e:82:ae:0c:79:19:06:fd:e0:
         b3:a4:b1:cd:d3:f3:2f:d7:f2:48:aa:e2:c7:b5:e7:37:39:ae:
         64:ce:64:06:17:65:e3:1d:8f:a9:2a:54:f5:99:a0:ff:81:a0:
         fd:86:c1:63:1b:4f:ad:77:2f:bc:8e:57:9f:2c:49:b9:f8:6b:
         f7:50:51:01:e1:66:a5:f6:53:87:7a:6c:fd:36:e2:db:46:c5:
         28:ba:bf:3e:aa:45:ea:85:8c:de:65:40:b9:b1:5f:ab:5c:0f:
         99:1e:53:93:30:04:cf:7f:84:d0:ec:0e:1a:c1:32:44:0a:2c:
         87:01:e3:91:51:68:1a:63:d8:c3:8f:fe:65:bd:4b:60:e3:92:
         84:13:b5:1a:98:29:af:48:93:e1:10:d4:c1:a4:c8:b0:13:55:
         e3:00:b6:9f:dd:9f:c8:3f:4b:4a:06:67:0a:85:05:b4:4b:7d:
         7d:77:f5:9e:f9:e6:58:a3:b1:c7:08:aa:16:b5:a6:e4:d9:ce:
         3d:23:c8:e6:23:93:de:c7:29:29:ea:8c:8c:b8:10:f6:c3:96:
         1d:31:8e:80:c4:5b:70:76:d3:81:0c:9b:0f:15:af:2c:97:82:
         9b:8d:07:ce:e1:95:de:85:3d:c5:45:47:20:05:27:e1:47:cb:
         26:98:80:77:e2:7a:b1:09:7b:26:cb:53:16:ee:3e:81:08:16:
         6b:bc:b0:33:26:76:83:3d:fe:6b:04:4b:94:a8:c7:2a:bc:8a:
         4b:b4:9f:b2:af:25:f2:6a:9d:6c:4c:55:87:e8:d3:b6:1b:18:
         9e:84:89:2a:e2:5d:54:39:da:45:8a:b6:f0:04:0e:c0:06:f5:
         ef:d1:2d:f6:76:e1:94:29:4f:03:c1:24:2c:6b:db:45:11:bd:
         0c:d7:fd:a9:69:97:0c:c5:fc:4e:3a:cb:ec:cf:54:c3:d1:f5:
         c6:6f:46:09:cc:b5:b2:27:c0:ed:20:54:35:9f:67:7b:2b:7d:
         cf:b0:be:c2:b0:69:cd:df:ef:6f:f4:fb:16:c2:4f:56:8a:d4:
         68:17:a0:6d:5d:33:87:b2:98:bb:fe:1a:36:98:59:55:60:5e:
         ea:52:81:81:94:42:0f:90:77:e9:9d:ac:89:60:50:cb:f5:40:
         0a:d5:d1:64:ad:36:e2:25:ec:3a:3e:26:57:9a:65:f0:30:02:
         57:e3:ed:f7:32:b4:c2:26:03:8f:66:28:e9:27:2b:51:d8:f6:
         fe:aa:20:c8:ca:9c:aa:25:f5:f2:92:47:5f:5a:18:67:99:50:
         73:1e:ed:6b:c3:29:e4:8a
-----BEGIN CERTIFICATE-----
MIIGrDCCBJSgAwIBAgICB28wDQYJKoZIhvcNAQEEBQAwgawxCzAJBgNVBAYTAlVT
MQswCQYDVQQIEwJPSDERMA8GA1UEBxMIQ29sdW1idXMxEjAQBgNVBAoTCVZpa2lu
Z1ZQTjEdMBsGA1UECxMUTXlPcmdhbml6YXRpb25hbFVuaXQxFTATBgNVBAMTDFZp
a2luZ1ZQTiBDQTEQMA4GA1UEKRMHRWFzeVJTQTEhMB8GCSqGSIb3DQEJARYSbWVA
bXlob3N0Lm15ZG9tYWluMB4XDTE0MDUxNjE3MzcxNloXDTI0MDUxMzE3MzcxNlow
HjEcMBoGA1UEAxMTQ2xpZW50MTYzQ2VydGIxYmM3YzCCAiIwDQYJKoZIhvcNAQEB
BQADggIPADCCAgoCggIBAJ1EZBwtCIQBl/Mkghct/2bv6B2Rkj5MbmBKM78Cp0PJ
7pHPkJ8wn7YkzjNKtRX6eIF+ezFK4YTuEYSiqLLpy6POuz3OVPxG2g24oaYVAHC/
pS6KXygWf7RDHoXWV0OYyOwpE7ritSP3TH93cBT/0AD+THu3tG8npB7Yth6282c9
Ku+9gISqrlu3yIftf8tYBGEmssEs4hxKPGMczLxIEgQGfnxJIX2yh3I759v6I7iw
QOewFP/Rms40ogN0rKEnUEex9zOA86uxbj28Q/L/8zri9iJNJCiSXzhVKg3PycRo
RlcIudlQwvNNRwcl0tbrwcm++JCyLOLk0u56smllqnxCQpVF7e8VVoCVHWgI6OIT
Ju4prKtvEXN/wFxw+GLqelydAOPyZWUtAUORIrJVW3AhJP3g9JVmCE53DXgEJFpe
OJqckmMKpoQuIP3VZY8iQIVOhwZ6mcCeyKGU/DXJAorpd5iQM+vXIatsZyYOaSHm
ziY3hK7sE1xSIEQJalkWOPRiEgwYFgNKIO9XDOwv/XJEB/jrNp52sxTmR3Y/C2JD
+Ef58oL0geUF8P/7uMxFU5rzsLeYXWDu01uYpp/ZFTgosWIkv3gr9uYl8aNDEuym
2/PxhweTaXEbyhbfNkCIX02Mm9JmfG5SzmUdWSWa6OOcoPvGJIqrPzJ9i+ZVT9Gd
AgMBAAGjggFjMIIBXzAJBgNVHRMEAjAAMC0GCWCGSAGG+EIBDQQgFh5FYXN5LVJT
QSBHZW5lcmF0ZWQgQ2VydGlmaWNhdGUwHQYDVR0OBBYEFMdgz4dhYdZ8/xXbJit6
B8/tY7TFMIHhBgNVHSMEgdkwgdaAFBLNYATSoICecO3Gmbh7LMZS/RmhoYGypIGv
MIGsMQswCQYDVQQGEwJVUzELMAkGA1UECBMCT0gxETAPBgNVBAcTCENvbHVtYnVz
MRIwEAYDVQQKEwlWaWtpbmdWUE4xHTAbBgNVBAsTFE15T3JnYW5pemF0aW9uYWxV
bml0MRUwEwYDVQQDEwxWaWtpbmdWUE4gQ0ExEDAOBgNVBCkTB0Vhc3lSU0ExITAf
BgkqhkiG9w0BCQEWEm1lQG15aG9zdC5teWRvbWFpboIJAM81he6Avyo+MBMGA1Ud
JQQMMAoGCCsGAQUFBwMCMAsGA1UdDwQEAwIHgDANBgkqhkiG9w0BAQQFAAOCAgEA
ZEmGuHakEeBSSyITYuRNhAGGc8hZ43+vbTomfoKuDHkZBv3gs6SxzdPzL9fySKri
x7XnNzmuZM5kBhdl4x2PqSpU9Zmg/4Gg/YbBYxtPrXcvvI5XnyxJufhr91BRAeFm
pfZTh3ps/Tbi20bFKLq/PqpF6oWM3mVAubFfq1wPmR5TkzAEz3+E0OwOGsEyRAos
hwHjkVFoGmPYw4/+Zb1LYOOShBO1Gpgpr0iT4RDUwaTIsBNV4wC2n92fyD9LSgZn
CoUFtEt9fXf1nvnmWKOxxwiqFrWm5NnOPSPI5iOT3scpKeqMjLgQ9sOWHTGOgMRb
cHbTgQybDxWvLJeCm40HzuGV3oU9xUVHIAUn4UfLJpiAd+J6sQl7JstTFu4+gQgW
a7ywMyZ2gz3+awRLlKjHKryKS7Sfsq8l8mqdbExVh+jTthsYnoSJKuJdVDnaRYq2
8AQOwAb179Et9nbhlClPA8EkLGvbRRG9DNf9qWmXDMX8TjrL7M9Uw9H1xm9GCcy1
sifA7SBUNZ9neyt9z7C+wrBpzd/vb/T7FsJPVorUaBegbV0zh7KYu/4aNphZVWBe
6lKBgZRCD5B36Z2siWBQy/VACtXRZK024iXsOj4mV5pl8DACV+Pt9zK0wiYDj2Yo
6ScrUdj2/qogyMqcqiX18pJHX1oYZ5lQcx7ta8Mp5Io=
-----END CERTIFICATE-----
