Certificate:
    Data:
        Version: 3 (0x2)
        Serial Number: 1932 (0x78c)
    Signature Algorithm: md5WithRSAEncryption
        Issuer: C=US, ST=OH, L=Columbus, O=VikingVPN, OU=MyOrganizationalUnit, CN=VikingVPN CA/name=EasyRSA/emailAddress=me@myhost.mydomain
        Validity
            Not Before: May 19 13:40:11 2014 GMT
            Not After : May 16 13:40:11 2024 GMT
        Subject: CN=Client428Certd053aa
        Subject Public Key Info:
            Public Key Algorithm: rsaEncryption
                Public-Key: (4096 bit)
                Modulus:
                    00:d2:e9:7d:ba:ee:d9:30:e0:94:05:4d:24:92:ab:
                    19:33:6e:29:1c:15:e6:12:c8:5f:6a:b2:05:53:42:
                    ac:64:48:27:dc:6b:a4:85:f0:fe:38:57:82:b1:b8:
                    54:64:e2:37:9a:2c:65:ab:e0:52:08:c8:d0:f9:ef:
                    cd:a7:13:e5:e1:86:2f:53:de:76:b9:bf:e3:cc:9b:
                    21:be:94:de:5e:a9:45:80:27:16:e5:3c:de:4c:49:
                    f2:e8:e3:ec:c1:eb:ef:33:ef:7c:48:c7:83:54:fd:
                    91:fc:3d:85:cf:e3:03:75:f0:57:a6:4b:96:7b:81:
                    a4:d6:4b:eb:ab:ea:2c:ad:a8:cf:3f:d4:25:f8:4a:
                    c3:e1:56:ac:3c:08:f5:19:6c:fe:95:47:13:7a:f6:
                    15:04:74:87:c8:ab:2e:95:e9:cf:03:3d:94:45:da:
                    7c:50:83:a3:80:35:59:d0:0c:d9:91:cb:9b:3c:0b:
                    ea:1c:67:c7:52:42:49:84:f2:ef:fb:13:6a:4e:44:
                    7e:d4:99:65:31:01:0e:62:15:d0:82:87:99:9a:7e:
                    11:21:c4:de:d9:1f:70:2c:50:1b:79:31:e7:be:8d:
                    2d:30:13:b8:2f:ae:66:88:ac:c5:b3:b9:a3:aa:48:
                    19:f8:e6:a4:37:15:1e:49:01:47:a6:80:dd:8d:4e:
                    63:ff:b1:cb:92:44:f6:ed:0e:6e:55:c0:84:2c:2d:
                    36:79:dd:e3:09:98:32:88:9d:64:bc:bf:55:85:3d:
                    02:ad:31:c0:ea:81:24:6c:75:bd:2a:3c:78:d1:85:
                    0e:ff:96:ae:c0:12:3e:fd:19:76:ff:18:63:7a:9b:
                    b9:44:3b:4c:14:e5:3b:2d:04:cb:3f:7d:f4:0a:4f:
                    fc:5d:94:0d:b5:f3:c3:9b:67:ff:87:2e:28:7f:53:
                    93:04:7a:8e:49:58:88:f0:96:26:2a:c9:1b:87:1b:
                    0f:2d:d0:21:c7:e2:55:ca:5b:15:44:d7:a5:82:4b:
                    4f:7a:c1:88:44:43:3b:37:3c:d7:31:7e:24:9b:d9:
                    25:25:b4:e9:11:a2:d1:78:d3:de:1f:3b:c3:a1:61:
                    09:7c:c7:45:3c:77:ce:c7:2a:21:56:a7:21:06:57:
                    43:03:ef:62:18:83:51:1a:3b:89:b8:47:c7:55:ef:
                    a7:39:b8:b7:fa:d9:0e:f4:0d:19:67:ad:04:a2:89:
                    23:26:a7:a3:97:c1:4b:d5:68:68:27:32:dc:ee:9c:
                    c2:97:27:36:b5:87:e0:fb:77:b7:e6:7f:89:48:e1:
                    83:b8:15:24:8b:66:94:b0:43:a3:6f:a5:44:8a:7b:
                    65:20:93:10:23:4f:fd:04:c4:bc:36:cb:60:8c:f7:
                    f7:e0:a3
                Exponent: 65537 (0x10001)
        X509v3 extensions:
            X509v3 Basic Constraints: 
                CA:FALSE
            Netscape Comment: 
                Easy-RSA Generated Certificate
            X509v3 Subject Key Identifier: 
                5C:C9:8A:E2:D3:93:9A:20:EC:0A:37:F0:D2:81:FB:7A:BC:EF:C7:B3
            X509v3 Authority Key Identifier: 
                keyid:12:CD:60:04:D2:A0:80:9E:70:ED:C6:99:B8:7B:2C:C6:52:FD:19:A1
                DirName:/C=US/ST=OH/L=Columbus/O=VikingVPN/OU=MyOrganizationalUnit/CN=VikingVPN CA/name=EasyRSA/emailAddress=me@myhost.mydomain
                serial:CF:35:85:EE:80:BF:2A:3E

            X509v3 Extended Key Usage: 
                TLS Web Client Authentication
            X509v3 Key Usage: 
                Digital Signature
    Signature Algorithm: md5WithRSAEncryption
         11:25:9e:c4:7a:c0:bb:99:92:50:71:9d:66:58:33:6c:3f:5e:
         39:00:7e:da:37:a9:19:82:52:d9:e8:bb:15:d9:68:31:7d:61:
         95:88:c8:e2:59:e3:5a:1c:14:03:ef:3a:79:a9:41:dc:37:4b:
         4a:83:ee:ec:50:ca:51:f0:df:ca:41:ac:bc:86:a6:1e:37:a6:
         13:bb:98:d6:dd:c5:9f:4e:49:54:2b:b7:be:95:41:f1:4b:41:
         dc:66:2c:71:f7:d8:ae:93:23:8d:8a:71:3c:c6:9a:45:ec:f5:
         36:cd:24:ff:d6:80:22:60:0b:d1:3c:cd:b6:8a:fb:71:d4:3d:
         de:ab:bc:50:ae:02:0a:9d:83:6d:ab:e7:6b:93:46:75:64:7c:
         c5:c3:f1:7c:d5:4f:29:84:ef:bc:7c:fd:54:74:00:cd:f2:56:
         24:94:6a:54:bb:3f:4c:85:8d:f2:7c:71:6f:40:eb:cf:3b:96:
         44:6e:f6:9e:a1:b2:42:07:4b:86:62:26:00:d0:65:78:d0:d6:
         8a:66:b7:c3:b1:59:9b:62:0a:f0:18:00:db:03:87:ef:da:67:
         73:f4:6a:7b:7b:c6:6f:bf:8e:49:85:6d:10:29:d1:97:c1:ca:
         e2:7b:43:14:0d:1c:f2:77:0f:f1:bb:54:80:81:fe:bb:c3:3a:
         fa:6b:7d:71:9c:53:f3:98:36:a8:f9:d6:f5:2c:42:35:cd:cc:
         ed:d2:8f:e6:df:5e:ea:ab:a9:18:41:c9:f1:e2:27:e7:94:63:
         6f:1b:b0:3b:e2:26:7b:cb:89:88:11:d2:8c:7c:f5:70:c6:69:
         d7:f6:5b:34:39:cb:f3:5f:38:5e:d1:17:a5:b6:1d:08:04:bd:
         61:4c:8b:8c:9e:84:2a:3a:7d:7d:2d:3f:86:b9:4b:d3:3b:a7:
         f7:7f:72:c7:56:44:2c:fc:d1:c6:71:f5:d9:4d:db:55:0c:b2:
         49:82:be:23:24:7c:6c:71:a1:15:6f:82:62:dd:09:92:d8:42:
         3c:89:7b:cc:5e:6d:36:af:af:8b:99:4a:1f:c8:d9:03:83:1b:
         58:ee:65:f9:f6:10:d6:6c:da:62:c7:e8:4b:a3:42:02:b2:5e:
         01:75:c7:fc:cb:1e:6a:7b:b0:b5:2d:e9:70:79:15:8a:c8:a2:
         4a:e1:49:28:b9:71:b7:72:f8:a1:c0:8f:99:2c:54:d9:d5:35:
         cf:70:bc:b8:97:03:16:b5:31:7f:fc:43:5f:53:e9:df:39:36:
         77:39:e6:94:fc:f6:ca:d6:9d:bd:20:44:c1:c6:2c:42:e7:b7:
         24:26:34:88:57:1f:9c:49:68:3a:f1:07:0c:0f:a8:76:46:a7:
         d5:dc:3b:4d:71:7c:30:5d
-----BEGIN CERTIFICATE-----
MIIGrDCCBJSgAwIBAgICB4wwDQYJKoZIhvcNAQEEBQAwgawxCzAJBgNVBAYTAlVT
MQswCQYDVQQIEwJPSDERMA8GA1UEBxMIQ29sdW1idXMxEjAQBgNVBAoTCVZpa2lu
Z1ZQTjEdMBsGA1UECxMUTXlPcmdhbml6YXRpb25hbFVuaXQxFTATBgNVBAMTDFZp
a2luZ1ZQTiBDQTEQMA4GA1UEKRMHRWFzeVJTQTEhMB8GCSqGSIb3DQEJARYSbWVA
bXlob3N0Lm15ZG9tYWluMB4XDTE0MDUxOTEzNDAxMVoXDTI0MDUxNjEzNDAxMVow
HjEcMBoGA1UEAxMTQ2xpZW50NDI4Q2VydGQwNTNhYTCCAiIwDQYJKoZIhvcNAQEB
BQADggIPADCCAgoCggIBANLpfbru2TDglAVNJJKrGTNuKRwV5hLIX2qyBVNCrGRI
J9xrpIXw/jhXgrG4VGTiN5osZavgUgjI0PnvzacT5eGGL1Pedrm/48ybIb6U3l6p
RYAnFuU83kxJ8ujj7MHr7zPvfEjHg1T9kfw9hc/jA3XwV6ZLlnuBpNZL66vqLK2o
zz/UJfhKw+FWrDwI9Rls/pVHE3r2FQR0h8irLpXpzwM9lEXafFCDo4A1WdAM2ZHL
mzwL6hxnx1JCSYTy7/sTak5EftSZZTEBDmIV0IKHmZp+ESHE3tkfcCxQG3kx576N
LTATuC+uZoisxbO5o6pIGfjmpDcVHkkBR6aA3Y1OY/+xy5JE9u0OblXAhCwtNnnd
4wmYMoidZLy/VYU9Aq0xwOqBJGx1vSo8eNGFDv+WrsASPv0Zdv8YY3qbuUQ7TBTl
Oy0Eyz999ApP/F2UDbXzw5tn/4cuKH9TkwR6jklYiPCWJirJG4cbDy3QIcfiVcpb
FUTXpYJLT3rBiERDOzc81zF+JJvZJSW06RGi0XjT3h87w6FhCXzHRTx3zscqIVan
IQZXQwPvYhiDURo7ibhHx1Xvpzm4t/rZDvQNGWetBKKJIyano5fBS9VoaCcy3O6c
wpcnNrWH4Pt3t+Z/iUjhg7gVJItmlLBDo2+lRIp7ZSCTECNP/QTEvDbLYIz39+Cj
AgMBAAGjggFjMIIBXzAJBgNVHRMEAjAAMC0GCWCGSAGG+EIBDQQgFh5FYXN5LVJT
QSBHZW5lcmF0ZWQgQ2VydGlmaWNhdGUwHQYDVR0OBBYEFFzJiuLTk5og7Ao38NKB
+3q878ezMIHhBgNVHSMEgdkwgdaAFBLNYATSoICecO3Gmbh7LMZS/RmhoYGypIGv
MIGsMQswCQYDVQQGEwJVUzELMAkGA1UECBMCT0gxETAPBgNVBAcTCENvbHVtYnVz
MRIwEAYDVQQKEwlWaWtpbmdWUE4xHTAbBgNVBAsTFE15T3JnYW5pemF0aW9uYWxV
bml0MRUwEwYDVQQDEwxWaWtpbmdWUE4gQ0ExEDAOBgNVBCkTB0Vhc3lSU0ExITAf
BgkqhkiG9w0BCQEWEm1lQG15aG9zdC5teWRvbWFpboIJAM81he6Avyo+MBMGA1Ud
JQQMMAoGCCsGAQUFBwMCMAsGA1UdDwQEAwIHgDANBgkqhkiG9w0BAQQFAAOCAgEA
ESWexHrAu5mSUHGdZlgzbD9eOQB+2jepGYJS2ei7FdloMX1hlYjI4lnjWhwUA+86
ealB3DdLSoPu7FDKUfDfykGsvIamHjemE7uY1t3Fn05JVCu3vpVB8UtB3GYscffY
rpMjjYpxPMaaRez1Ns0k/9aAImAL0TzNtor7cdQ93qu8UK4CCp2Dbavna5NGdWR8
xcPxfNVPKYTvvHz9VHQAzfJWJJRqVLs/TIWN8nxxb0DrzzuWRG72nqGyQgdLhmIm
ANBleNDWima3w7FZm2IK8BgA2wOH79pnc/Rqe3vGb7+OSYVtECnRl8HK4ntDFA0c
8ncP8btUgIH+u8M6+mt9cZxT85g2qPnW9SxCNc3M7dKP5t9e6qupGEHJ8eIn55Rj
bxuwO+Ime8uJiBHSjHz1cMZp1/ZbNDnL8184XtEXpbYdCAS9YUyLjJ6EKjp9fS0/
hrlL0zun939yx1ZELPzRxnH12U3bVQyySYK+IyR8bHGhFW+CYt0JkthCPIl7zF5t
Nq+vi5lKH8jZA4MbWO5l+fYQ1mzaYsfoS6NCArJeAXXH/MseanuwtS3pcHkVisii
SuFJKLlxt3L4ocCPmSxU2dU1z3C8uJcDFrUxf/xDX1Pp3zk2dznmlPz2ytadvSBE
wcYsQue3JCY0iFcfnEloOvEHDA+odkan1dw7TXF8MF0=
-----END CERTIFICATE-----
