Certificate:
    Data:
        Version: 3 (0x2)
        Serial Number: 1942 (0x796)
    Signature Algorithm: md5WithRSAEncryption
        Issuer: C=US, ST=OH, L=Columbus, O=VikingVPN, OU=MyOrganizationalUnit, CN=VikingVPN CA/name=EasyRSA/emailAddress=me@myhost.mydomain
        Validity
            Not Before: May 21 17:58:35 2014 GMT
            Not After : May 18 17:58:35 2024 GMT
        Subject: CN=Client659Cert357baa
        Subject Public Key Info:
            Public Key Algorithm: rsaEncryption
                Public-Key: (4096 bit)
                Modulus:
                    00:ef:18:c7:76:b1:22:1c:38:79:21:65:34:b6:2b:
                    98:f9:0c:83:14:81:32:2e:c5:ea:e7:14:06:dd:93:
                    e7:a4:59:e1:39:ec:1c:e0:a2:5b:e0:de:63:72:6b:
                    64:37:f0:43:f4:06:83:9f:99:01:44:df:9f:80:2e:
                    38:7a:7a:f3:3c:39:fe:e4:e3:2b:57:dd:2c:e6:c5:
                    3f:a9:15:8c:a1:1b:08:8a:7a:83:0c:12:c0:87:26:
                    7d:5b:36:44:df:75:36:e6:b8:86:13:3c:92:8c:98:
                    e2:79:2b:ce:59:e1:12:e9:15:71:49:c0:99:a1:79:
                    ef:b3:e5:55:e3:12:90:84:dd:8b:7e:d9:b2:02:06:
                    f0:d0:5b:c5:05:86:46:19:10:30:ef:bf:cc:2f:9f:
                    24:ce:a4:0e:a2:8a:41:ef:b9:08:be:e8:d4:d4:7b:
                    7b:38:ba:7a:44:2d:07:ec:6c:5c:9a:4b:fc:db:14:
                    a8:52:b3:7f:86:79:cd:99:ac:bb:f8:26:15:3a:88:
                    ca:dd:36:b4:28:9e:78:27:e4:5c:a8:a8:c6:62:a3:
                    1a:cf:17:70:70:12:f0:c8:bc:59:68:02:79:6c:d4:
                    ca:fe:e4:e4:bd:78:6a:f6:af:b8:f0:1a:ad:fd:cf:
                    f5:be:9a:8f:c9:d4:23:24:ec:08:c2:d0:47:c2:ed:
                    30:cb:2e:d7:6f:1e:76:e0:d6:6d:a4:ec:70:79:44:
                    31:ea:10:13:39:39:56:3a:64:7c:37:13:f5:59:62:
                    af:1e:9c:8d:3f:fa:e6:81:d5:b3:03:96:d8:b9:d9:
                    5f:6b:50:b0:9e:5f:0e:ef:ad:e4:a3:c7:4e:57:d3:
                    dd:57:b6:a8:a7:a6:c0:bf:3d:9b:71:51:c7:b9:98:
                    40:5c:41:1c:fa:6b:27:79:7d:ae:7f:3f:a7:8a:df:
                    12:95:58:c6:11:64:56:a3:20:24:5e:58:7d:eb:20:
                    19:88:cd:41:cb:c0:27:ba:65:91:57:4f:b6:94:59:
                    b4:41:69:76:57:94:f9:4e:2f:7f:fd:07:17:f6:6c:
                    3b:b6:04:bf:cd:96:af:4f:8e:b7:ae:36:db:ef:b0:
                    e7:d6:d3:74:9f:1e:53:ad:4a:2e:61:19:c6:c7:0d:
                    3c:fe:92:3e:a6:84:0f:2d:fb:9d:d6:c3:c9:45:3c:
                    30:2f:21:f4:1e:6d:e4:cb:af:17:51:2f:26:66:db:
                    06:7f:e0:c2:67:f0:21:96:36:ab:9a:cc:aa:fe:8a:
                    b2:6b:09:7a:08:e7:69:c9:3b:df:5a:1c:f7:60:04:
                    46:09:13:02:2a:4e:b9:46:f0:a2:c7:c4:d9:17:39:
                    70:01:a1:27:c1:e8:54:2a:33:cf:be:e7:69:71:ff:
                    0b:db:33
                Exponent: 65537 (0x10001)
        X509v3 extensions:
            X509v3 Basic Constraints: 
                CA:FALSE
            Netscape Comment: 
                Easy-RSA Generated Certificate
            X509v3 Subject Key Identifier: 
                5C:6F:72:26:01:CF:FD:F2:A5:FE:22:74:15:CD:6B:5B:AE:B8:5C:BE
            X509v3 Authority Key Identifier: 
                keyid:12:CD:60:04:D2:A0:80:9E:70:ED:C6:99:B8:7B:2C:C6:52:FD:19:A1
                DirName:/C=US/ST=OH/L=Columbus/O=VikingVPN/OU=MyOrganizationalUnit/CN=VikingVPN CA/name=EasyRSA/emailAddress=me@myhost.mydomain
                serial:CF:35:85:EE:80:BF:2A:3E

            X509v3 Extended Key Usage: 
                TLS Web Client Authentication
            X509v3 Key Usage: 
                Digital Signature
    Signature Algorithm: md5WithRSAEncryption
         46:3b:01:af:ec:21:3e:f6:dd:f8:ef:ef:c9:33:10:d8:13:89:
         24:a8:36:97:11:ff:17:1d:8a:91:a9:2a:d7:9c:40:eb:64:ca:
         64:03:1e:3f:9f:e1:65:dd:cd:e4:bd:f0:e9:8b:b2:f0:63:5f:
         1e:78:f6:6f:8a:99:f3:11:40:d0:62:02:e2:e1:99:9f:3b:c7:
         4d:fa:51:64:26:07:00:54:ba:25:7a:07:5d:7c:02:4f:c0:00:
         39:37:73:ea:c5:43:6c:1a:81:57:4f:5f:98:65:2f:a2:b9:2f:
         67:11:7c:8f:38:63:76:d6:f8:3c:8a:8a:43:25:20:0a:9d:44:
         1d:33:50:d7:0d:c5:f1:2d:27:3a:59:f8:ca:f0:d8:87:17:0b:
         28:0a:84:80:54:3a:98:9b:63:39:c1:49:db:71:c1:6f:b1:64:
         ba:8b:8c:8e:6a:49:d6:e3:cf:25:46:c8:bd:cb:8f:0b:65:e5:
         68:fa:77:8a:45:58:d0:79:3b:f9:6c:5e:e9:50:f5:ef:1b:d0:
         42:25:86:73:53:fa:da:d9:04:80:ed:96:40:ec:c0:4b:db:33:
         b3:57:ec:6f:7f:7d:ad:2e:2b:0b:57:8a:f0:e1:b4:6e:9b:a2:
         84:f8:fc:f5:a7:83:3f:81:fc:16:fc:95:2e:9f:c2:0d:c9:9d:
         c2:04:ae:8e:e6:02:ed:21:d6:52:48:92:6d:55:a8:48:d1:a6:
         b6:2b:09:74:0f:a8:ad:97:ea:e8:69:95:7f:0b:64:1e:c3:65:
         fb:1c:44:58:73:9b:c7:7e:7b:43:ee:6f:1d:88:35:64:76:38:
         f7:b2:dd:bc:f9:0c:ac:75:f6:cc:f8:72:27:0c:f3:5e:9d:36:
         4c:4a:a7:cf:2e:3f:59:28:ce:7f:4c:c8:ff:95:dd:cb:db:3f:
         f2:a7:ea:e4:44:a6:44:00:ed:61:8d:35:85:9c:26:cf:8e:8f:
         f7:f7:fb:7e:ad:38:52:3d:30:a0:1d:8a:1b:c9:f6:d4:68:f4:
         e0:e5:37:01:66:b4:4c:eb:8f:62:0b:2c:7e:81:37:6a:cd:84:
         ec:54:89:08:0b:1e:18:04:07:ec:80:4a:4b:b7:da:5c:29:ae:
         1d:53:41:e6:0d:e5:a5:50:1d:ab:4e:2c:9c:65:76:5a:41:3a:
         6f:01:e0:fe:43:33:50:6d:5b:53:a1:c1:64:fa:56:0d:9e:b9:
         8a:34:47:0a:c2:b6:d5:41:4a:36:ee:a1:c2:56:1a:f7:9d:50:
         1b:5e:84:41:73:5f:bd:f9:c5:ba:e7:bc:6c:1b:80:c8:9a:22:
         47:7b:e9:af:d3:6c:1b:04:c6:fa:64:c2:48:70:4f:e3:17:e6:
         3f:48:51:62:3d:be:ee:fe
-----BEGIN CERTIFICATE-----
MIIGrDCCBJSgAwIBAgICB5YwDQYJKoZIhvcNAQEEBQAwgawxCzAJBgNVBAYTAlVT
MQswCQYDVQQIEwJPSDERMA8GA1UEBxMIQ29sdW1idXMxEjAQBgNVBAoTCVZpa2lu
Z1ZQTjEdMBsGA1UECxMUTXlPcmdhbml6YXRpb25hbFVuaXQxFTATBgNVBAMTDFZp
a2luZ1ZQTiBDQTEQMA4GA1UEKRMHRWFzeVJTQTEhMB8GCSqGSIb3DQEJARYSbWVA
bXlob3N0Lm15ZG9tYWluMB4XDTE0MDUyMTE3NTgzNVoXDTI0MDUxODE3NTgzNVow
HjEcMBoGA1UEAxMTQ2xpZW50NjU5Q2VydDM1N2JhYTCCAiIwDQYJKoZIhvcNAQEB
BQADggIPADCCAgoCggIBAO8Yx3axIhw4eSFlNLYrmPkMgxSBMi7F6ucUBt2T56RZ
4TnsHOCiW+DeY3JrZDfwQ/QGg5+ZAUTfn4AuOHp68zw5/uTjK1fdLObFP6kVjKEb
CIp6gwwSwIcmfVs2RN91Nua4hhM8koyY4nkrzlnhEukVcUnAmaF577PlVeMSkITd
i37ZsgIG8NBbxQWGRhkQMO+/zC+fJM6kDqKKQe+5CL7o1NR7ezi6ekQtB+xsXJpL
/NsUqFKzf4Z5zZmsu/gmFTqIyt02tCieeCfkXKioxmKjGs8XcHAS8Mi8WWgCeWzU
yv7k5L14avavuPAarf3P9b6aj8nUIyTsCMLQR8LtMMsu128eduDWbaTscHlEMeoQ
Ezk5VjpkfDcT9Vlirx6cjT/65oHVswOW2LnZX2tQsJ5fDu+t5KPHTlfT3Ve2qKem
wL89m3FRx7mYQFxBHPprJ3l9rn8/p4rfEpVYxhFkVqMgJF5YfesgGYjNQcvAJ7pl
kVdPtpRZtEFpdleU+U4vf/0HF/ZsO7YEv82Wr0+Ot6422++w59bTdJ8eU61KLmEZ
xscNPP6SPqaEDy37ndbDyUU8MC8h9B5t5MuvF1EvJmbbBn/gwmfwIZY2q5rMqv6K
smsJegjnack731oc92AERgkTAipOuUbwosfE2Rc5cAGhJ8HoVCozz77naXH/C9sz
AgMBAAGjggFjMIIBXzAJBgNVHRMEAjAAMC0GCWCGSAGG+EIBDQQgFh5FYXN5LVJT
QSBHZW5lcmF0ZWQgQ2VydGlmaWNhdGUwHQYDVR0OBBYEFFxvciYBz/3ypf4idBXN
a1uuuFy+MIHhBgNVHSMEgdkwgdaAFBLNYATSoICecO3Gmbh7LMZS/RmhoYGypIGv
MIGsMQswCQYDVQQGEwJVUzELMAkGA1UECBMCT0gxETAPBgNVBAcTCENvbHVtYnVz
MRIwEAYDVQQKEwlWaWtpbmdWUE4xHTAbBgNVBAsTFE15T3JnYW5pemF0aW9uYWxV
bml0MRUwEwYDVQQDEwxWaWtpbmdWUE4gQ0ExEDAOBgNVBCkTB0Vhc3lSU0ExITAf
BgkqhkiG9w0BCQEWEm1lQG15aG9zdC5teWRvbWFpboIJAM81he6Avyo+MBMGA1Ud
JQQMMAoGCCsGAQUFBwMCMAsGA1UdDwQEAwIHgDANBgkqhkiG9w0BAQQFAAOCAgEA
RjsBr+whPvbd+O/vyTMQ2BOJJKg2lxH/Fx2Kkakq15xA62TKZAMeP5/hZd3N5L3w
6Yuy8GNfHnj2b4qZ8xFA0GIC4uGZnzvHTfpRZCYHAFS6JXoHXXwCT8AAOTdz6sVD
bBqBV09fmGUvorkvZxF8jzhjdtb4PIqKQyUgCp1EHTNQ1w3F8S0nOln4yvDYhxcL
KAqEgFQ6mJtjOcFJ23HBb7FkuouMjmpJ1uPPJUbIvcuPC2XlaPp3ikVY0Hk7+Wxe
6VD17xvQQiWGc1P62tkEgO2WQOzAS9szs1fsb399rS4rC1eK8OG0bpuihPj89aeD
P4H8FvyVLp/CDcmdwgSujuYC7SHWUkiSbVWoSNGmtisJdA+orZfq6GmVfwtkHsNl
+xxEWHObx357Q+5vHYg1ZHY497LdvPkMrHX2zPhyJwzzXp02TEqnzy4/WSjOf0zI
/5Xdy9s/8qfq5ESmRADtYY01hZwmz46P9/f7fq04Uj0woB2KG8n21Gj04OU3AWa0
TOuPYgssfoE3as2E7FSJCAseGAQH7IBKS7faXCmuHVNB5g3lpVAdq04snGV2WkE6
bwHg/kMzUG1bU6HBZPpWDZ65ijRHCsK21UFKNu6hwlYa951QG16EQXNfvfnFuue8
bBuAyJoiR3vpr9NsGwTG+mTCSHBP4xfmP0hRYj2+7v4=
-----END CERTIFICATE-----
