Certificate:
    Data:
        Version: 3 (0x2)
        Serial Number: 1944 (0x798)
    Signature Algorithm: md5WithRSAEncryption
        Issuer: C=US, ST=OH, L=Columbus, O=VikingVPN, OU=MyOrganizationalUnit, CN=VikingVPN CA/name=EasyRSA/emailAddress=me@myhost.mydomain
        Validity
            Not Before: May 21 19:31:57 2014 GMT
            Not After : May 18 19:31:57 2024 GMT
        Subject: CN=Client655Cert933292
        Subject Public Key Info:
            Public Key Algorithm: rsaEncryption
                Public-Key: (4096 bit)
                Modulus:
                    00:9a:b6:c3:7e:08:19:f9:6b:68:39:9a:06:cf:06:
                    6c:d6:69:36:21:b8:f9:5a:0b:3d:94:14:b2:e6:22:
                    87:5d:2d:92:db:60:52:ae:98:e0:6c:8a:a0:ae:36:
                    4f:b5:f5:a3:15:9d:88:c8:7e:88:d4:3f:5a:9e:ce:
                    c4:af:f9:64:47:4f:67:42:b0:dc:12:56:93:48:c0:
                    d5:d2:1c:47:50:fd:a4:78:3e:c6:d1:33:db:b4:f1:
                    74:89:79:f8:0f:45:6f:97:c5:7b:11:e2:fb:2b:b5:
                    03:9f:f1:50:00:e4:d4:74:7a:05:ea:cc:95:2b:12:
                    a5:b0:e4:af:57:c6:71:26:f5:cf:9f:3d:30:3d:57:
                    4e:bc:a0:56:44:b4:c8:fb:de:45:71:43:55:fa:df:
                    d9:1c:1e:6b:6c:cf:20:f4:aa:04:37:21:c1:78:d1:
                    f5:90:6f:b9:59:94:d8:1f:69:ab:ed:72:1d:7f:47:
                    ac:1d:57:0d:2a:e5:8c:cb:7d:ef:5d:f5:8c:31:54:
                    f2:d4:df:09:46:fe:69:d5:93:71:d7:58:dd:d9:4b:
                    2c:c7:1c:36:14:3e:bc:91:9d:ab:34:db:ae:ea:cb:
                    b1:9c:66:a5:75:b7:f8:df:71:77:9d:dd:c0:9c:ca:
                    07:a4:a8:2f:bc:7f:1d:c8:85:21:47:fc:89:f4:a8:
                    d5:6e:93:fa:0f:d8:fe:c8:99:77:76:22:0f:4d:50:
                    bf:6a:ee:f9:3f:68:6d:90:8b:92:a2:5b:88:b5:d6:
                    f9:88:f5:ab:88:1b:c1:5f:aa:d3:e9:7a:df:60:4c:
                    48:22:f1:64:f2:ba:e6:61:cc:18:c2:af:95:b3:a5:
                    20:e6:5f:3f:c9:c8:a8:d9:8d:3a:5c:97:dd:d3:c0:
                    f3:2a:f5:cd:1f:53:d0:9b:14:7d:83:65:67:29:14:
                    d5:14:af:c7:6d:0a:10:43:52:63:34:4e:a8:45:c1:
                    05:8e:7b:4e:ae:a8:15:cd:19:b5:ca:1a:3e:2e:c9:
                    0c:d7:bd:32:c5:b6:32:d9:29:a7:96:4e:4f:5a:fd:
                    a5:54:bd:de:09:27:6b:7e:dd:b2:09:ee:11:2c:f2:
                    86:4d:11:46:99:4b:21:fb:10:c1:37:47:77:bb:fc:
                    b0:ef:a8:cc:60:b6:75:48:0e:76:c5:8d:ab:25:6b:
                    8b:a0:4c:80:e0:c9:6b:94:1b:29:25:71:45:25:03:
                    88:5a:fb:aa:2f:2b:3d:23:79:15:e0:4d:17:af:2e:
                    97:39:7f:68:2e:37:48:63:5b:19:36:b5:c6:9a:38:
                    a9:0f:17:d1:4f:8c:7f:66:5c:00:24:b0:39:99:72:
                    1e:b6:bd:7d:7e:27:ab:ac:26:59:3b:61:c5:63:df:
                    94:61:c1
                Exponent: 65537 (0x10001)
        X509v3 extensions:
            X509v3 Basic Constraints: 
                CA:FALSE
            Netscape Comment: 
                Easy-RSA Generated Certificate
            X509v3 Subject Key Identifier: 
                74:C1:82:B3:6A:B0:A9:8F:13:45:F5:31:8B:CF:7A:72:9D:5D:81:CA
            X509v3 Authority Key Identifier: 
                keyid:12:CD:60:04:D2:A0:80:9E:70:ED:C6:99:B8:7B:2C:C6:52:FD:19:A1
                DirName:/C=US/ST=OH/L=Columbus/O=VikingVPN/OU=MyOrganizationalUnit/CN=VikingVPN CA/name=EasyRSA/emailAddress=me@myhost.mydomain
                serial:CF:35:85:EE:80:BF:2A:3E

            X509v3 Extended Key Usage: 
                TLS Web Client Authentication
            X509v3 Key Usage: 
                Digital Signature
    Signature Algorithm: md5WithRSAEncryption
         86:61:62:c2:ca:61:0f:40:a9:05:66:6d:bd:c5:b7:e6:3c:23:
         e7:e5:f2:ce:16:cf:b0:88:9e:ea:f7:0e:53:f7:8b:72:2e:8e:
         49:2d:dc:83:37:bd:62:2a:e8:f9:1b:de:8d:de:36:35:55:45:
         e4:b6:7b:c0:d2:3d:2b:73:dd:0e:e1:c3:5e:4c:7c:fe:81:29:
         ff:77:d1:a8:51:7c:ac:c9:83:5a:65:5b:86:69:41:42:60:fc:
         08:49:95:9f:3e:ee:d3:86:4b:61:09:9c:1d:63:41:e0:e1:05:
         22:a6:79:c1:a6:3c:12:b0:b4:5f:5f:97:2c:0c:7f:07:0e:ca:
         48:30:8b:88:27:10:c8:a1:0c:47:3a:a6:d2:d9:5b:d8:b3:d7:
         92:bd:08:8a:2c:02:8b:3d:e1:54:76:a1:18:20:84:b2:7e:e5:
         36:50:03:3f:ec:f8:3d:7f:e6:58:57:ef:34:31:43:ce:1d:f7:
         01:4f:b8:67:d8:af:57:c7:bc:d9:4f:b2:e2:c4:fc:21:55:be:
         2a:9a:3d:7c:9d:01:ed:5e:c1:70:31:e7:4c:ab:c3:e3:db:9e:
         54:c9:38:b0:a4:ed:0e:66:d7:9d:12:cc:c8:66:c0:bb:50:cc:
         5e:19:fd:78:fe:2b:3c:c8:e5:d3:af:db:a5:49:9c:ab:e7:31:
         f1:89:82:58:fb:9d:9f:47:94:a4:93:d5:71:07:4d:95:76:6f:
         3b:70:92:b0:53:64:38:33:f0:a5:85:00:78:3a:87:e0:21:18:
         40:55:12:5b:aa:50:a5:c3:04:85:8a:1b:85:66:58:71:db:dc:
         68:40:0a:54:45:df:38:a0:5f:86:a9:f6:f3:02:0e:2b:98:8e:
         32:64:31:30:34:d0:b5:e8:35:d4:16:0a:3b:94:2c:4c:98:98:
         ca:ac:72:9f:0e:01:1f:b4:b0:9a:96:ef:20:dc:d2:9d:c1:6d:
         d3:97:39:b2:f3:cc:fe:3f:31:49:68:5e:6d:4e:e4:27:cc:6d:
         ce:21:2b:c7:82:50:d4:94:a6:e7:6a:5a:d2:4c:c3:f1:58:07:
         39:f6:d0:54:50:ab:37:99:8d:6e:8d:c2:e2:fa:9e:47:d1:34:
         7c:de:c0:1a:78:01:cd:e5:bf:59:b1:06:e9:3e:b2:7b:3d:24:
         e8:c0:9e:c0:b5:30:a0:b7:d7:d7:03:c2:e7:03:03:4b:b8:f7:
         7a:68:3a:48:59:85:c1:6e:bf:2c:df:01:4c:66:2e:85:90:44:
         e9:ee:22:36:8a:64:13:7a:9e:d0:fe:6c:b6:6a:5b:34:cd:98:
         02:04:fb:04:24:3b:23:aa:6e:f1:5e:5d:f9:95:22:0b:ee:6d:
         00:dd:36:f9:27:3b:17:09
-----BEGIN CERTIFICATE-----
MIIGrDCCBJSgAwIBAgICB5gwDQYJKoZIhvcNAQEEBQAwgawxCzAJBgNVBAYTAlVT
MQswCQYDVQQIEwJPSDERMA8GA1UEBxMIQ29sdW1idXMxEjAQBgNVBAoTCVZpa2lu
Z1ZQTjEdMBsGA1UECxMUTXlPcmdhbml6YXRpb25hbFVuaXQxFTATBgNVBAMTDFZp
a2luZ1ZQTiBDQTEQMA4GA1UEKRMHRWFzeVJTQTEhMB8GCSqGSIb3DQEJARYSbWVA
bXlob3N0Lm15ZG9tYWluMB4XDTE0MDUyMTE5MzE1N1oXDTI0MDUxODE5MzE1N1ow
HjEcMBoGA1UEAxMTQ2xpZW50NjU1Q2VydDkzMzI5MjCCAiIwDQYJKoZIhvcNAQEB
BQADggIPADCCAgoCggIBAJq2w34IGflraDmaBs8GbNZpNiG4+VoLPZQUsuYih10t
kttgUq6Y4GyKoK42T7X1oxWdiMh+iNQ/Wp7OxK/5ZEdPZ0Kw3BJWk0jA1dIcR1D9
pHg+xtEz27TxdIl5+A9Fb5fFexHi+yu1A5/xUADk1HR6BerMlSsSpbDkr1fGcSb1
z589MD1XTrygVkS0yPveRXFDVfrf2Rwea2zPIPSqBDchwXjR9ZBvuVmU2B9pq+1y
HX9HrB1XDSrljMt97131jDFU8tTfCUb+adWTcddY3dlLLMccNhQ+vJGdqzTbrurL
sZxmpXW3+N9xd53dwJzKB6SoL7x/HciFIUf8ifSo1W6T+g/Y/siZd3YiD01Qv2ru
+T9obZCLkqJbiLXW+Yj1q4gbwV+q0+l632BMSCLxZPK65mHMGMKvlbOlIOZfP8nI
qNmNOlyX3dPA8yr1zR9T0JsUfYNlZykU1RSvx20KEENSYzROqEXBBY57Tq6oFc0Z
tcoaPi7JDNe9MsW2Mtkpp5ZOT1r9pVS93gkna37dsgnuESzyhk0RRplLIfsQwTdH
d7v8sO+ozGC2dUgOdsWNqyVri6BMgODJa5QbKSVxRSUDiFr7qi8rPSN5FeBNF68u
lzl/aC43SGNbGTa1xpo4qQ8X0U+Mf2ZcACSwOZlyHra9fX4nq6wmWTthxWPflGHB
AgMBAAGjggFjMIIBXzAJBgNVHRMEAjAAMC0GCWCGSAGG+EIBDQQgFh5FYXN5LVJT
QSBHZW5lcmF0ZWQgQ2VydGlmaWNhdGUwHQYDVR0OBBYEFHTBgrNqsKmPE0X1MYvP
enKdXYHKMIHhBgNVHSMEgdkwgdaAFBLNYATSoICecO3Gmbh7LMZS/RmhoYGypIGv
MIGsMQswCQYDVQQGEwJVUzELMAkGA1UECBMCT0gxETAPBgNVBAcTCENvbHVtYnVz
MRIwEAYDVQQKEwlWaWtpbmdWUE4xHTAbBgNVBAsTFE15T3JnYW5pemF0aW9uYWxV
bml0MRUwEwYDVQQDEwxWaWtpbmdWUE4gQ0ExEDAOBgNVBCkTB0Vhc3lSU0ExITAf
BgkqhkiG9w0BCQEWEm1lQG15aG9zdC5teWRvbWFpboIJAM81he6Avyo+MBMGA1Ud
JQQMMAoGCCsGAQUFBwMCMAsGA1UdDwQEAwIHgDANBgkqhkiG9w0BAQQFAAOCAgEA
hmFiwsphD0CpBWZtvcW35jwj5+XyzhbPsIie6vcOU/eLci6OSS3cgze9Yiro+Rve
jd42NVVF5LZ7wNI9K3PdDuHDXkx8/oEp/3fRqFF8rMmDWmVbhmlBQmD8CEmVnz7u
04ZLYQmcHWNB4OEFIqZ5waY8ErC0X1+XLAx/Bw7KSDCLiCcQyKEMRzqm0tlb2LPX
kr0IiiwCiz3hVHahGCCEsn7lNlADP+z4PX/mWFfvNDFDzh33AU+4Z9ivV8e82U+y
4sT8IVW+Kpo9fJ0B7V7BcDHnTKvD49ueVMk4sKTtDmbXnRLMyGbAu1DMXhn9eP4r
PMjl06/bpUmcq+cx8YmCWPudn0eUpJPVcQdNlXZvO3CSsFNkODPwpYUAeDqH4CEY
QFUSW6pQpcMEhYobhWZYcdvcaEAKVEXfOKBfhqn28wIOK5iOMmQxMDTQteg11BYK
O5QsTJiYyqxynw4BH7SwmpbvINzSncFt05c5svPM/j8xSWhebU7kJ8xtziErx4JQ
1JSm52pa0kzD8VgHOfbQVFCrN5mNbo3C4vqeR9E0fN7AGngBzeW/WbEG6T6yez0k
6MCewLUwoLfX1wPC5wMDS7j3emg6SFmFwW6/LN8BTGYuhZBE6e4iNopkE3qe0P5s
tmpbNM2YAgT7BCQ7I6pu8V5d+ZUiC+5tAN02+Sc7Fwk=
-----END CERTIFICATE-----
