Certificate:
    Data:
        Version: 3 (0x2)
        Serial Number: 1959 (0x7a7)
    Signature Algorithm: md5WithRSAEncryption
        Issuer: C=US, ST=OH, L=Columbus, O=VikingVPN, OU=MyOrganizationalUnit, CN=VikingVPN CA/name=EasyRSA/emailAddress=me@myhost.mydomain
        Validity
            Not Before: May 27 00:02:36 2014 GMT
            Not After : May 24 00:02:36 2024 GMT
        Subject: CN=Client678Cert15d8fc
        Subject Public Key Info:
            Public Key Algorithm: rsaEncryption
                Public-Key: (4096 bit)
                Modulus:
                    00:e9:90:fe:68:19:91:20:13:c6:16:be:bc:53:ba:
                    d4:53:11:80:61:62:76:fa:0e:6d:01:6e:2c:92:cb:
                    7d:03:9a:f5:bf:cf:71:0c:d0:ad:f4:2d:ff:2a:52:
                    46:1f:a4:25:7b:7a:6a:f0:e2:c9:a8:9a:ac:8f:78:
                    9f:74:d0:fc:2a:2f:2d:6a:d6:cb:1f:18:b8:73:bf:
                    31:61:4c:92:1c:20:c1:71:29:21:70:cb:af:80:74:
                    40:25:ac:62:e8:77:25:68:85:ac:bd:65:40:78:85:
                    92:c8:7f:64:72:46:d5:61:43:6e:03:1b:2b:78:88:
                    4e:b1:93:73:ef:11:73:c9:2a:21:ad:24:b2:7a:44:
                    71:75:68:17:fe:60:94:e1:3a:32:d2:5a:8b:5e:06:
                    b0:bd:8f:d6:4f:d2:be:2c:d9:08:7b:06:7c:bd:16:
                    3b:4f:c8:9f:0f:08:f1:58:64:25:20:e1:4b:01:f1:
                    aa:e8:1b:59:34:af:40:f8:2b:83:93:5b:40:4b:66:
                    b4:e4:7f:07:48:eb:41:a0:f4:b3:ba:fa:93:04:96:
                    50:7e:1b:d8:10:cd:81:14:7a:8e:e0:5a:75:be:ee:
                    a5:81:eb:7a:87:2d:0c:46:e5:01:0b:1c:ea:b0:90:
                    6e:0c:2e:2a:b4:f3:03:4e:3b:90:61:50:fe:57:b6:
                    32:91:2e:d1:85:b6:e8:e2:97:51:60:26:e9:80:90:
                    bf:c2:6a:59:4c:90:e3:58:4f:2d:b5:1a:e6:b8:d6:
                    a1:95:e1:d1:b3:e0:97:f7:4e:53:6c:83:b7:30:b3:
                    0b:67:2c:88:17:20:c2:46:77:bf:ee:8e:90:aa:3c:
                    cd:e4:55:3e:c1:88:29:f8:a1:55:11:d7:88:bf:9c:
                    a1:11:bd:90:49:f3:e4:bc:ad:a0:16:58:ea:e6:09:
                    48:c8:03:d1:20:fb:69:22:1d:96:e0:04:e9:bf:53:
                    76:c9:5a:33:29:c6:27:19:bb:22:82:ab:21:ee:2f:
                    45:e3:04:a1:58:38:f8:2d:e2:4b:64:2b:af:a9:26:
                    57:ff:6a:ad:b1:62:24:b1:00:a3:eb:64:53:4d:a7:
                    a4:a5:93:48:1e:f5:c7:40:77:1b:e1:83:ac:55:9d:
                    5d:1f:15:6d:59:e9:bd:1e:e4:84:24:3b:f6:bc:36:
                    e8:cd:b0:be:dd:02:0a:37:81:a5:08:1d:81:1a:1a:
                    bf:84:47:13:4c:83:b4:75:ed:a8:d4:1c:ec:d8:bd:
                    31:06:41:0d:37:79:04:dc:83:6f:e4:50:07:93:62:
                    e8:b9:9b:26:21:f3:25:25:f4:a2:e4:15:e8:b0:12:
                    03:29:50:36:b8:c5:2d:d2:4c:e3:db:3f:b9:f7:ed:
                    10:95:67
                Exponent: 65537 (0x10001)
        X509v3 extensions:
            X509v3 Basic Constraints: 
                CA:FALSE
            Netscape Comment: 
                Easy-RSA Generated Certificate
            X509v3 Subject Key Identifier: 
                EE:10:17:E3:DA:FB:4D:D8:DD:C4:6F:B3:DE:64:B4:0F:DF:44:51:CE
            X509v3 Authority Key Identifier: 
                keyid:12:CD:60:04:D2:A0:80:9E:70:ED:C6:99:B8:7B:2C:C6:52:FD:19:A1
                DirName:/C=US/ST=OH/L=Columbus/O=VikingVPN/OU=MyOrganizationalUnit/CN=VikingVPN CA/name=EasyRSA/emailAddress=me@myhost.mydomain
                serial:CF:35:85:EE:80:BF:2A:3E

            X509v3 Extended Key Usage: 
                TLS Web Client Authentication
            X509v3 Key Usage: 
                Digital Signature
    Signature Algorithm: md5WithRSAEncryption
         16:82:fe:76:f2:e8:d6:01:ed:62:ed:48:84:d5:04:f6:46:3e:
         e7:39:96:60:f1:e1:b7:ed:c8:3e:4b:b3:63:dd:ec:82:11:f3:
         4a:89:ce:68:88:7a:92:bb:2a:5a:32:34:d9:6a:0c:40:47:46:
         b9:11:88:07:e8:a8:9d:bb:01:a9:63:c3:58:0b:89:ed:d2:78:
         48:bf:f9:ab:14:a2:86:69:b2:f3:39:99:f4:9d:2d:2a:3e:34:
         e3:75:e3:09:eb:e5:2f:78:61:c1:cd:1a:f1:ed:14:0c:ed:5d:
         2c:d7:57:19:7e:7f:f4:1a:b0:5b:36:a1:f5:21:5f:3f:b6:0f:
         63:c5:06:1f:de:25:f2:2c:45:a2:66:49:89:4a:b0:8d:aa:57:
         c6:70:07:a1:c3:10:5c:0f:5b:5e:d0:64:38:2e:f0:dc:8e:cd:
         df:7f:09:2c:9e:2f:eb:0f:81:16:90:fb:41:0e:7c:c5:13:92:
         27:a8:b1:ce:bb:5b:df:00:81:18:5c:0d:5b:df:e6:eb:61:53:
         98:0f:2a:76:76:c5:c7:17:23:d5:3d:2a:a1:8d:23:f5:11:f0:
         db:35:2a:54:d6:f4:50:a5:a1:98:58:fb:ed:de:a6:c6:ac:b0:
         f0:8f:2e:bc:98:d2:6e:fb:41:77:b5:3c:d8:48:1d:da:e9:02:
         db:07:c3:99:a0:8f:da:75:37:ed:95:2d:6d:4b:25:f7:f4:4d:
         8e:ba:73:14:db:53:1a:88:d6:28:df:71:ee:a2:26:92:59:77:
         d4:08:b5:98:77:28:85:de:fd:3a:44:02:5e:d3:18:45:21:52:
         e0:e5:a1:b3:80:3c:62:61:42:bc:38:2a:7c:56:09:63:dc:6a:
         50:5f:9d:d9:16:c6:33:49:62:58:52:07:3b:7c:9e:ae:25:52:
         91:a2:3f:9e:98:94:eb:6b:bf:ff:e1:f4:f6:fc:f8:9e:ab:34:
         3d:ff:4a:15:1e:8b:40:2c:05:da:f2:fa:0e:7e:6b:79:2c:d0:
         fd:3e:af:1b:35:31:22:6e:34:31:10:c9:46:ea:a6:d8:ea:8b:
         0f:40:3c:b3:68:8f:f4:db:00:66:8d:a4:f4:7c:c5:e9:aa:a2:
         bb:32:eb:78:fe:81:1a:fa:93:9a:f9:98:94:62:04:18:17:fd:
         f6:ee:72:b7:06:5f:39:3e:fe:a7:b4:2f:72:db:c8:d3:00:48:
         f9:26:4a:2c:66:03:08:95:f8:50:57:d9:75:0e:54:14:35:3e:
         4f:5f:c6:68:ff:b0:cb:a8:80:c5:b1:af:91:bf:6a:ca:14:86:
         84:9e:d0:40:7b:05:af:02:3b:ab:4d:64:f9:2a:8d:ee:5f:1f:
         0b:06:d6:9b:65:c7:00:1d
-----BEGIN CERTIFICATE-----
MIIGrDCCBJSgAwIBAgICB6cwDQYJKoZIhvcNAQEEBQAwgawxCzAJBgNVBAYTAlVT
MQswCQYDVQQIEwJPSDERMA8GA1UEBxMIQ29sdW1idXMxEjAQBgNVBAoTCVZpa2lu
Z1ZQTjEdMBsGA1UECxMUTXlPcmdhbml6YXRpb25hbFVuaXQxFTATBgNVBAMTDFZp
a2luZ1ZQTiBDQTEQMA4GA1UEKRMHRWFzeVJTQTEhMB8GCSqGSIb3DQEJARYSbWVA
bXlob3N0Lm15ZG9tYWluMB4XDTE0MDUyNzAwMDIzNloXDTI0MDUyNDAwMDIzNlow
HjEcMBoGA1UEAxMTQ2xpZW50Njc4Q2VydDE1ZDhmYzCCAiIwDQYJKoZIhvcNAQEB
BQADggIPADCCAgoCggIBAOmQ/mgZkSATxha+vFO61FMRgGFidvoObQFuLJLLfQOa
9b/PcQzQrfQt/ypSRh+kJXt6avDiyaiarI94n3TQ/CovLWrWyx8YuHO/MWFMkhwg
wXEpIXDLr4B0QCWsYuh3JWiFrL1lQHiFksh/ZHJG1WFDbgMbK3iITrGTc+8Rc8kq
Ia0ksnpEcXVoF/5glOE6MtJai14GsL2P1k/SvizZCHsGfL0WO0/Inw8I8VhkJSDh
SwHxqugbWTSvQPgrg5NbQEtmtOR/B0jrQaD0s7r6kwSWUH4b2BDNgRR6juBadb7u
pYHreoctDEblAQsc6rCQbgwuKrTzA047kGFQ/le2MpEu0YW26OKXUWAm6YCQv8Jq
WUyQ41hPLbUa5rjWoZXh0bPgl/dOU2yDtzCzC2csiBcgwkZ3v+6OkKo8zeRVPsGI
KfihVRHXiL+coRG9kEnz5LytoBZY6uYJSMgD0SD7aSIdluAE6b9TdslaMynGJxm7
IoKrIe4vReMEoVg4+C3iS2Qrr6kmV/9qrbFiJLEAo+tkU02npKWTSB71x0B3G+GD
rFWdXR8VbVnpvR7khCQ79rw26M2wvt0CCjeBpQgdgRoav4RHE0yDtHXtqNQc7Ni9
MQZBDTd5BNyDb+RQB5Ni6LmbJiHzJSX0ouQV6LASAylQNrjFLdJM49s/ufftEJVn
AgMBAAGjggFjMIIBXzAJBgNVHRMEAjAAMC0GCWCGSAGG+EIBDQQgFh5FYXN5LVJT
QSBHZW5lcmF0ZWQgQ2VydGlmaWNhdGUwHQYDVR0OBBYEFO4QF+Pa+03Y3cRvs95k
tA/fRFHOMIHhBgNVHSMEgdkwgdaAFBLNYATSoICecO3Gmbh7LMZS/RmhoYGypIGv
MIGsMQswCQYDVQQGEwJVUzELMAkGA1UECBMCT0gxETAPBgNVBAcTCENvbHVtYnVz
MRIwEAYDVQQKEwlWaWtpbmdWUE4xHTAbBgNVBAsTFE15T3JnYW5pemF0aW9uYWxV
bml0MRUwEwYDVQQDEwxWaWtpbmdWUE4gQ0ExEDAOBgNVBCkTB0Vhc3lSU0ExITAf
BgkqhkiG9w0BCQEWEm1lQG15aG9zdC5teWRvbWFpboIJAM81he6Avyo+MBMGA1Ud
JQQMMAoGCCsGAQUFBwMCMAsGA1UdDwQEAwIHgDANBgkqhkiG9w0BAQQFAAOCAgEA
FoL+dvLo1gHtYu1IhNUE9kY+5zmWYPHht+3IPkuzY93sghHzSonOaIh6krsqWjI0
2WoMQEdGuRGIB+ionbsBqWPDWAuJ7dJ4SL/5qxSihmmy8zmZ9J0tKj4043XjCevl
L3hhwc0a8e0UDO1dLNdXGX5/9BqwWzah9SFfP7YPY8UGH94l8ixFomZJiUqwjapX
xnAHocMQXA9bXtBkOC7w3I7N338JLJ4v6w+BFpD7QQ58xROSJ6ixzrtb3wCBGFwN
W9/m62FTmA8qdnbFxxcj1T0qoY0j9RHw2zUqVNb0UKWhmFj77d6mxqyw8I8uvJjS
bvtBd7U82Egd2ukC2wfDmaCP2nU37ZUtbUsl9/RNjrpzFNtTGojWKN9x7qImkll3
1Ai1mHcohd79OkQCXtMYRSFS4OWhs4A8YmFCvDgqfFYJY9xqUF+d2RbGM0liWFIH
O3yeriVSkaI/npiU62u//+H09vz4nqs0Pf9KFR6LQCwF2vL6Dn5reSzQ/T6vGzUx
Im40MRDJRuqm2OqLD0A8s2iP9NsAZo2k9HzF6aqiuzLreP6BGvqTmvmYlGIEGBf9
9u5ytwZfOT7+p7QvctvI0wBI+SZKLGYDCJX4UFfZdQ5UFDU+T1/GaP+wy6iAxbGv
kb9qyhSGhJ7QQHsFrwI7q01k+SqN7l8fCwbWm2XHAB0=
-----END CERTIFICATE-----
