Certificate:
    Data:
        Version: 3 (0x2)
        Serial Number: 1961 (0x7a9)
    Signature Algorithm: md5WithRSAEncryption
        Issuer: C=US, ST=OH, L=Columbus, O=VikingVPN, OU=MyOrganizationalUnit, CN=VikingVPN CA/name=EasyRSA/emailAddress=me@myhost.mydomain
        Validity
            Not Before: May 27 21:46:02 2014 GMT
            Not After : May 24 21:46:02 2024 GMT
        Subject: CN=Client679Certfd91ca
        Subject Public Key Info:
            Public Key Algorithm: rsaEncryption
                Public-Key: (4096 bit)
                Modulus:
                    00:cd:5f:a2:97:2b:8e:1c:b3:35:51:6b:cb:68:65:
                    60:9c:f7:c3:d4:97:75:39:a6:34:d1:9e:2c:32:c4:
                    d9:a1:8f:53:a0:29:af:77:df:6f:be:19:3d:ea:78:
                    09:83:80:89:55:53:d6:21:b9:c1:52:9f:0a:0b:d6:
                    23:84:4f:31:9c:08:2a:bd:af:dc:1e:36:55:bf:33:
                    94:22:c8:68:e2:ba:9f:ed:8f:01:f1:a5:78:bf:97:
                    9f:55:eb:d8:f3:a8:89:d3:a7:23:91:13:e2:75:f8:
                    71:49:a5:76:a0:d7:91:22:18:f8:b7:9f:29:57:36:
                    54:98:1d:08:74:0d:0d:ff:3d:2c:e0:62:d3:fc:da:
                    91:de:19:11:dd:39:37:a1:cb:96:e3:62:c7:85:61:
                    db:9b:51:a0:c4:d4:02:ee:8a:b9:76:15:08:b3:23:
                    18:be:67:76:7a:1f:e2:7e:6f:bb:da:a8:4a:51:9f:
                    ab:ea:05:43:27:cc:74:bd:2f:ce:30:ff:2c:25:c8:
                    9e:87:b2:ec:ad:45:1e:ee:f5:87:6b:26:00:19:b2:
                    43:81:0a:8a:09:6c:9b:c1:ec:ce:13:4a:9f:a5:28:
                    62:24:1f:87:46:6d:16:58:b8:86:9a:51:68:12:04:
                    e6:a5:6a:fa:61:28:31:d3:eb:0c:b5:3c:86:0d:14:
                    5b:de:b3:e7:0e:c4:9c:83:ab:c8:05:68:e4:1f:a1:
                    3b:8e:bd:41:16:ec:9a:e1:66:f7:d9:f1:44:65:c9:
                    a2:77:fd:8c:fc:f3:51:83:8a:45:9b:cc:b5:e7:55:
                    97:3d:7b:a8:b6:8d:57:5b:ef:f7:d2:2b:e1:0a:b4:
                    3d:d4:37:fb:f4:9e:f7:52:2a:bd:49:a6:f7:6a:66:
                    8d:6e:0a:cd:62:ee:d5:6b:9f:a0:e5:b0:17:fb:27:
                    77:06:34:ee:fc:9a:fc:d6:35:cc:3d:85:e3:9c:4e:
                    88:e2:cd:8d:84:85:6a:c0:f3:5f:90:60:21:4b:3f:
                    eb:62:17:1d:c1:ec:32:60:43:9e:bc:7b:4c:32:81:
                    15:14:45:3f:41:70:a8:38:39:26:e6:6c:cb:7f:3a:
                    3f:ff:ec:cc:3c:49:74:48:a1:8f:6a:f9:8e:09:0b:
                    e3:ac:6e:85:d8:68:84:a1:1f:e9:ca:f2:7f:77:7c:
                    a2:db:ef:d7:af:84:2f:3c:ef:83:35:10:19:fe:dc:
                    9f:d8:91:d5:2b:00:09:65:1e:35:b4:09:31:25:a6:
                    65:a8:dc:cf:a1:49:3b:9b:94:98:67:74:11:c1:73:
                    86:cf:e3:0b:fa:dd:05:e8:ee:74:62:e8:8f:02:26:
                    ef:30:4a:69:25:86:de:30:b4:cd:4c:e4:23:03:a5:
                    a8:bf:65
                Exponent: 65537 (0x10001)
        X509v3 extensions:
            X509v3 Basic Constraints: 
                CA:FALSE
            Netscape Comment: 
                Easy-RSA Generated Certificate
            X509v3 Subject Key Identifier: 
                33:F0:52:F8:11:10:5C:28:39:09:A4:10:83:26:99:E2:69:D0:8F:74
            X509v3 Authority Key Identifier: 
                keyid:12:CD:60:04:D2:A0:80:9E:70:ED:C6:99:B8:7B:2C:C6:52:FD:19:A1
                DirName:/C=US/ST=OH/L=Columbus/O=VikingVPN/OU=MyOrganizationalUnit/CN=VikingVPN CA/name=EasyRSA/emailAddress=me@myhost.mydomain
                serial:CF:35:85:EE:80:BF:2A:3E

            X509v3 Extended Key Usage: 
                TLS Web Client Authentication
            X509v3 Key Usage: 
                Digital Signature
    Signature Algorithm: md5WithRSAEncryption
         85:b2:96:ef:5c:90:42:30:53:0b:03:74:0c:d5:b3:07:8c:86:
         ce:f8:8b:d1:40:78:7a:00:ea:d3:6b:25:aa:48:06:98:cc:96:
         91:0e:4d:5a:c3:ab:00:f6:2e:7c:3f:4c:d1:7d:7b:63:8b:a3:
         97:8b:1b:5d:7e:23:35:ef:e3:86:e2:9a:1e:9f:f4:06:1a:05:
         55:55:2c:8b:21:d4:d2:09:2c:01:6b:9c:0f:0c:75:57:ba:a9:
         20:8c:13:e2:aa:3b:04:19:c6:4c:ad:12:e5:53:a1:a9:5d:4a:
         1a:8f:36:dd:02:ed:b8:c5:23:f7:b9:f9:f3:b0:75:46:a5:33:
         fa:32:8a:f3:5c:6d:f5:0e:f4:93:dd:f6:92:cd:47:c7:7d:10:
         3a:85:aa:fa:23:54:0f:a8:b9:e2:4b:3f:ca:d1:78:0f:61:c7:
         60:b8:1e:1a:6f:ed:35:c9:42:df:43:07:92:e3:60:d3:31:83:
         9f:09:76:7b:04:5d:64:06:fe:a6:78:a6:ce:0d:07:62:e3:e6:
         84:14:fe:26:b3:2d:4b:bc:ab:d6:00:0d:2f:de:21:44:10:a6:
         bb:f3:06:16:af:5d:f9:02:70:4e:4f:ec:45:e8:d6:61:fc:6c:
         02:73:d8:21:e8:e3:af:6b:d7:a9:22:f1:4a:ae:84:db:f5:7d:
         e7:1d:47:48:6f:d8:f8:f2:30:53:d4:09:c2:c6:fe:c4:98:b6:
         3f:8a:7a:65:3e:c9:3f:e0:fe:f2:d0:96:66:b5:34:b4:9b:66:
         2d:14:cb:ea:75:a9:6c:fc:f7:a4:20:02:39:54:d5:68:e5:63:
         a1:f5:a7:25:5a:cb:b9:47:c4:65:ce:bd:9d:56:e7:74:60:db:
         09:9f:9b:1d:6a:c8:61:fc:1b:38:cc:3c:74:23:70:8b:6e:2f:
         8d:17:2d:ec:32:bb:a5:4a:39:af:e7:bd:25:86:4f:4b:5d:54:
         b9:37:b7:3b:bf:d1:c8:4c:3e:20:6c:18:86:53:3f:0a:09:4f:
         dd:1b:d1:38:8b:24:ec:f4:2a:23:55:12:7b:da:e6:05:b4:c7:
         6e:91:e1:55:c6:e0:8d:9b:54:41:f8:79:7c:11:1c:f3:01:91:
         3a:74:5e:9f:48:53:0b:48:e5:d2:d7:01:36:ae:d4:a9:7a:0f:
         a3:20:87:17:50:0e:a2:22:2e:9c:6b:5a:f7:2d:a7:59:db:b8:
         fe:60:be:f3:ee:e3:00:d9:39:6a:1e:86:e7:a8:47:f2:3b:72:
         0c:76:2e:bb:3a:49:50:28:04:c0:c5:b1:18:f7:98:64:1a:91:
         6c:45:e6:54:a8:3e:38:6f:16:7e:21:23:4f:44:d6:0b:50:93:
         8c:03:10:2b:ae:8c:af:dd
-----BEGIN CERTIFICATE-----
MIIGrDCCBJSgAwIBAgICB6kwDQYJKoZIhvcNAQEEBQAwgawxCzAJBgNVBAYTAlVT
MQswCQYDVQQIEwJPSDERMA8GA1UEBxMIQ29sdW1idXMxEjAQBgNVBAoTCVZpa2lu
Z1ZQTjEdMBsGA1UECxMUTXlPcmdhbml6YXRpb25hbFVuaXQxFTATBgNVBAMTDFZp
a2luZ1ZQTiBDQTEQMA4GA1UEKRMHRWFzeVJTQTEhMB8GCSqGSIb3DQEJARYSbWVA
bXlob3N0Lm15ZG9tYWluMB4XDTE0MDUyNzIxNDYwMloXDTI0MDUyNDIxNDYwMlow
HjEcMBoGA1UEAxMTQ2xpZW50Njc5Q2VydGZkOTFjYTCCAiIwDQYJKoZIhvcNAQEB
BQADggIPADCCAgoCggIBAM1fopcrjhyzNVFry2hlYJz3w9SXdTmmNNGeLDLE2aGP
U6Apr3ffb74ZPep4CYOAiVVT1iG5wVKfCgvWI4RPMZwIKr2v3B42Vb8zlCLIaOK6
n+2PAfGleL+Xn1Xr2POoidOnI5ET4nX4cUmldqDXkSIY+LefKVc2VJgdCHQNDf89
LOBi0/zakd4ZEd05N6HLluNix4Vh25tRoMTUAu6KuXYVCLMjGL5ndnof4n5vu9qo
SlGfq+oFQyfMdL0vzjD/LCXInoey7K1FHu71h2smABmyQ4EKiglsm8HszhNKn6Uo
YiQfh0ZtFli4hppRaBIE5qVq+mEoMdPrDLU8hg0UW96z5w7EnIOryAVo5B+hO469
QRbsmuFm99nxRGXJonf9jPzzUYOKRZvMtedVlz17qLaNV1vv99Ir4Qq0PdQ3+/Se
91IqvUmm92pmjW4KzWLu1WufoOWwF/sndwY07vya/NY1zD2F45xOiOLNjYSFasDz
X5BgIUs/62IXHcHsMmBDnrx7TDKBFRRFP0FwqDg5JuZsy386P//szDxJdEihj2r5
jgkL46xuhdhohKEf6cryf3d8otvv16+ELzzvgzUQGf7cn9iR1SsACWUeNbQJMSWm
Zajcz6FJO5uUmGd0EcFzhs/jC/rdBejudGLojwIm7zBKaSWG3jC0zUzkIwOlqL9l
AgMBAAGjggFjMIIBXzAJBgNVHRMEAjAAMC0GCWCGSAGG+EIBDQQgFh5FYXN5LVJT
QSBHZW5lcmF0ZWQgQ2VydGlmaWNhdGUwHQYDVR0OBBYEFDPwUvgREFwoOQmkEIMm
meJp0I90MIHhBgNVHSMEgdkwgdaAFBLNYATSoICecO3Gmbh7LMZS/RmhoYGypIGv
MIGsMQswCQYDVQQGEwJVUzELMAkGA1UECBMCT0gxETAPBgNVBAcTCENvbHVtYnVz
MRIwEAYDVQQKEwlWaWtpbmdWUE4xHTAbBgNVBAsTFE15T3JnYW5pemF0aW9uYWxV
bml0MRUwEwYDVQQDEwxWaWtpbmdWUE4gQ0ExEDAOBgNVBCkTB0Vhc3lSU0ExITAf
BgkqhkiG9w0BCQEWEm1lQG15aG9zdC5teWRvbWFpboIJAM81he6Avyo+MBMGA1Ud
JQQMMAoGCCsGAQUFBwMCMAsGA1UdDwQEAwIHgDANBgkqhkiG9w0BAQQFAAOCAgEA
hbKW71yQQjBTCwN0DNWzB4yGzviL0UB4egDq02slqkgGmMyWkQ5NWsOrAPYufD9M
0X17Y4ujl4sbXX4jNe/jhuKaHp/0BhoFVVUsiyHU0gksAWucDwx1V7qpIIwT4qo7
BBnGTK0S5VOhqV1KGo823QLtuMUj97n587B1RqUz+jKK81xt9Q70k932ks1Hx30Q
OoWq+iNUD6i54ks/ytF4D2HHYLgeGm/tNclC30MHkuNg0zGDnwl2ewRdZAb+pnim
zg0HYuPmhBT+JrMtS7yr1gANL94hRBCmu/MGFq9d+QJwTk/sRejWYfxsAnPYIejj
r2vXqSLxSq6E2/V95x1HSG/Y+PIwU9QJwsb+xJi2P4p6ZT7JP+D+8tCWZrU0tJtm
LRTL6nWpbPz3pCACOVTVaOVjofWnJVrLuUfEZc69nVbndGDbCZ+bHWrIYfwbOMw8
dCNwi24vjRct7DK7pUo5r+e9JYZPS11UuTe3O7/RyEw+IGwYhlM/CglP3RvROIsk
7PQqI1USe9rmBbTHbpHhVcbgjZtUQfh5fBEc8wGROnRen0hTC0jl0tcBNq7UqXoP
oyCHF1AOoiIunGta9y2nWdu4/mC+8+7jANk5ah6G56hH8jtyDHYuuzpJUCgEwMWx
GPeYZBqRbEXmVKg+OG8WfiEjT0TWC1CTjAMQK66Mr90=
-----END CERTIFICATE-----
