Certificate:
    Data:
        Version: 3 (0x2)
        Serial Number: 1964 (0x7ac)
    Signature Algorithm: md5WithRSAEncryption
        Issuer: C=US, ST=OH, L=Columbus, O=VikingVPN, OU=MyOrganizationalUnit, CN=VikingVPN CA/name=EasyRSA/emailAddress=me@myhost.mydomain
        Validity
            Not Before: May 27 22:01:34 2014 GMT
            Not After : May 24 22:01:34 2024 GMT
        Subject: CN=Client679Certe34587
        Subject Public Key Info:
            Public Key Algorithm: rsaEncryption
                Public-Key: (4096 bit)
                Modulus:
                    00:ad:26:e4:3a:0b:17:a6:e8:0d:16:a5:1f:66:9d:
                    c0:ff:43:0a:1b:ce:81:43:cf:3c:8c:6e:2b:98:9e:
                    9b:c6:d1:0e:78:5c:fb:32:ca:0b:cd:75:d8:ea:76:
                    9d:59:4f:50:d6:61:20:5a:87:8e:9d:fe:a9:bd:bf:
                    0d:9f:3b:c8:d9:c9:2d:01:e8:ff:53:6c:3f:a8:2f:
                    0a:2f:8f:ae:bb:06:b6:cd:bc:8c:9e:0a:28:5d:dc:
                    3b:c2:62:c3:c6:b3:61:e8:6d:0d:96:c7:28:d9:0f:
                    6b:f7:c4:80:bc:b6:84:e9:58:58:b1:a0:64:a2:0d:
                    c0:c9:4e:65:03:0e:fe:58:8c:06:9d:c8:11:9c:57:
                    c9:73:5a:c5:08:26:67:5c:16:50:32:65:b8:bc:34:
                    c8:bd:f5:4a:1e:d7:42:69:d0:22:07:6e:81:88:5c:
                    d3:48:01:9c:f1:7b:f5:e1:ad:08:df:cb:b9:cb:c5:
                    c6:96:6b:e4:f4:32:25:bd:77:99:40:54:ee:f4:59:
                    df:0a:2e:7e:2d:be:47:f7:34:2f:70:0f:03:69:0e:
                    4a:b3:4b:bf:6b:ac:08:0f:6c:4a:35:f9:4e:a3:21:
                    8b:39:a4:c4:a2:32:72:aa:29:e1:6d:77:9c:d5:d4:
                    39:7f:9b:77:b9:69:c9:a0:73:c6:f7:a4:2b:1f:02:
                    0d:42:2b:85:db:46:ed:8f:d9:89:60:4f:da:74:b6:
                    a1:ab:43:77:fb:2c:36:6a:f9:87:09:fe:64:2e:9f:
                    b8:60:64:cd:04:1a:af:16:14:13:e2:26:57:c6:e1:
                    03:18:c2:65:b2:f9:66:a7:35:91:a6:6f:3b:55:8f:
                    bd:f4:d8:82:e4:67:6a:2d:7f:19:d8:40:af:13:57:
                    ae:09:57:59:c7:12:76:d0:a4:56:58:d2:01:a1:7f:
                    47:3f:1f:d8:38:36:34:50:57:56:e3:b9:49:44:f9:
                    c6:0d:13:a6:ba:fe:b9:25:40:1f:59:18:25:87:10:
                    12:6f:ab:2e:20:cb:ba:c8:5b:5e:d1:0c:62:4f:4b:
                    4a:c5:f5:d7:6b:5f:29:ec:c2:66:69:22:e1:74:86:
                    72:c2:e9:f2:10:18:ab:23:68:ce:fb:10:02:fa:ca:
                    72:c9:28:a2:c0:c5:fe:7e:2c:bf:46:7c:3e:b4:30:
                    41:de:fb:df:48:3e:fc:8b:87:c3:1e:4b:7b:8f:00:
                    37:e2:d0:2b:50:78:51:c0:7b:28:c5:fa:cd:5c:69:
                    9e:5c:0a:c2:3c:77:45:5f:c8:56:8a:4a:e4:32:7f:
                    55:40:01:07:e3:bc:ac:e6:b8:b2:58:01:6e:6a:a9:
                    22:44:89:32:a7:a3:29:33:c5:ee:3e:25:85:8c:57:
                    5d:5a:af
                Exponent: 65537 (0x10001)
        X509v3 extensions:
            X509v3 Basic Constraints: 
                CA:FALSE
            Netscape Comment: 
                Easy-RSA Generated Certificate
            X509v3 Subject Key Identifier: 
                76:AE:E9:2C:D5:1E:27:14:1C:D6:21:84:B6:B8:E9:E2:2F:D4:CC:F0
            X509v3 Authority Key Identifier: 
                keyid:12:CD:60:04:D2:A0:80:9E:70:ED:C6:99:B8:7B:2C:C6:52:FD:19:A1
                DirName:/C=US/ST=OH/L=Columbus/O=VikingVPN/OU=MyOrganizationalUnit/CN=VikingVPN CA/name=EasyRSA/emailAddress=me@myhost.mydomain
                serial:CF:35:85:EE:80:BF:2A:3E

            X509v3 Extended Key Usage: 
                TLS Web Client Authentication
            X509v3 Key Usage: 
                Digital Signature
    Signature Algorithm: md5WithRSAEncryption
         2b:15:27:89:60:ff:b4:56:cc:a9:42:c8:e1:bb:8b:d4:9b:a7:
         2b:10:ff:01:1b:a9:6f:ee:01:8f:cd:ef:46:c0:f4:4d:7a:ce:
         7a:9b:92:cf:13:92:fd:e2:e9:61:9b:60:0e:0b:cf:40:2e:1f:
         37:b5:38:30:ad:a1:08:30:38:71:ce:08:95:b2:42:06:4e:cc:
         75:d4:61:30:d1:d4:cd:18:0f:32:ee:83:ab:38:f3:fc:a1:31:
         b0:c7:59:d7:17:ac:ff:ce:29:63:b1:f3:ec:6d:47:65:83:9c:
         c3:76:6d:5a:ff:4a:f2:68:6f:87:4d:8c:9b:35:74:fc:97:08:
         75:89:3b:5d:af:d7:84:b9:eb:2c:d7:aa:e8:f1:f6:6c:cc:ff:
         34:ba:06:29:d3:b0:71:43:d9:e1:53:8d:48:56:c7:6a:81:64:
         53:61:2b:2a:c1:8f:f0:d1:d3:6e:89:9a:08:e3:9a:64:ea:5e:
         a8:cb:f6:f0:d5:62:46:97:e2:76:54:ac:76:b0:e3:a7:fd:2d:
         c0:c0:74:04:08:61:7f:4a:e2:a9:57:c6:c9:da:f8:bd:cb:70:
         4f:aa:55:d9:c5:40:33:28:cd:07:d3:5d:e6:64:20:ae:92:98:
         ab:2e:68:2b:b5:87:5b:3d:03:2c:c9:ed:c6:40:23:9d:12:b0:
         84:b0:a7:46:af:26:2e:9c:91:26:bc:f5:06:96:ab:ab:42:fe:
         e0:f8:a4:80:60:97:e1:39:d9:38:42:99:74:b0:92:57:b6:88:
         b4:92:97:31:3b:a4:41:39:54:e3:c3:82:61:78:b1:25:68:4c:
         d4:9d:25:72:ca:3e:04:13:7d:e3:7e:c1:3e:7e:30:1d:21:47:
         be:ae:53:0b:71:1a:e2:4b:73:56:8a:49:8d:31:80:49:6e:e3:
         59:f4:1d:cd:6c:b2:73:49:e7:ed:ef:0e:be:dc:76:72:7a:8e:
         05:b9:d8:0a:98:45:29:3d:b2:fd:6a:b3:68:00:db:2f:37:74:
         17:4a:33:38:81:da:72:92:f0:71:0a:1a:93:64:15:6c:62:a2:
         9a:a9:a6:3d:6c:2e:cf:3d:60:09:6e:54:9c:f1:d6:74:4c:72:
         ea:f7:59:8d:ae:5c:64:cb:c2:38:f3:03:1f:76:3a:c7:bd:33:
         f3:b8:ef:e3:ac:98:64:39:2e:ea:1f:2e:50:3e:b3:c0:6d:24:
         69:84:66:1f:45:c7:81:42:f6:bf:fc:3c:fe:11:60:69:08:df:
         a5:c5:af:e8:79:e0:d6:fa:20:7c:99:27:42:62:e1:a2:77:e6:
         26:d3:aa:bf:17:9e:cb:7e:f4:cf:84:96:ac:db:38:03:11:d7:
         06:43:20:fd:8e:86:6f:3d
-----BEGIN CERTIFICATE-----
MIIGrDCCBJSgAwIBAgICB6wwDQYJKoZIhvcNAQEEBQAwgawxCzAJBgNVBAYTAlVT
MQswCQYDVQQIEwJPSDERMA8GA1UEBxMIQ29sdW1idXMxEjAQBgNVBAoTCVZpa2lu
Z1ZQTjEdMBsGA1UECxMUTXlPcmdhbml6YXRpb25hbFVuaXQxFTATBgNVBAMTDFZp
a2luZ1ZQTiBDQTEQMA4GA1UEKRMHRWFzeVJTQTEhMB8GCSqGSIb3DQEJARYSbWVA
bXlob3N0Lm15ZG9tYWluMB4XDTE0MDUyNzIyMDEzNFoXDTI0MDUyNDIyMDEzNFow
HjEcMBoGA1UEAxMTQ2xpZW50Njc5Q2VydGUzNDU4NzCCAiIwDQYJKoZIhvcNAQEB
BQADggIPADCCAgoCggIBAK0m5DoLF6boDRalH2adwP9DChvOgUPPPIxuK5iem8bR
Dnhc+zLKC8112Op2nVlPUNZhIFqHjp3+qb2/DZ87yNnJLQHo/1NsP6gvCi+PrrsG
ts28jJ4KKF3cO8Jiw8azYehtDZbHKNkPa/fEgLy2hOlYWLGgZKINwMlOZQMO/liM
Bp3IEZxXyXNaxQgmZ1wWUDJluLw0yL31Sh7XQmnQIgdugYhc00gBnPF79eGtCN/L
ucvFxpZr5PQyJb13mUBU7vRZ3woufi2+R/c0L3APA2kOSrNLv2usCA9sSjX5TqMh
izmkxKIycqop4W13nNXUOX+bd7lpyaBzxvekKx8CDUIrhdtG7Y/ZiWBP2nS2oatD
d/ssNmr5hwn+ZC6fuGBkzQQarxYUE+ImV8bhAxjCZbL5Zqc1kaZvO1WPvfTYguRn
ai1/GdhArxNXrglXWccSdtCkVljSAaF/Rz8f2Dg2NFBXVuO5SUT5xg0Tprr+uSVA
H1kYJYcQEm+rLiDLushbXtEMYk9LSsX112tfKezCZmki4XSGcsLp8hAYqyNozvsQ
AvrKcskoosDF/n4sv0Z8PrQwQd7730g+/IuHwx5Le48AN+LQK1B4UcB7KMX6zVxp
nlwKwjx3RV/IVopK5DJ/VUABB+O8rOa4slgBbmqpIkSJMqejKTPF7j4lhYxXXVqv
AgMBAAGjggFjMIIBXzAJBgNVHRMEAjAAMC0GCWCGSAGG+EIBDQQgFh5FYXN5LVJT
QSBHZW5lcmF0ZWQgQ2VydGlmaWNhdGUwHQYDVR0OBBYEFHau6SzVHicUHNYhhLa4
6eIv1MzwMIHhBgNVHSMEgdkwgdaAFBLNYATSoICecO3Gmbh7LMZS/RmhoYGypIGv
MIGsMQswCQYDVQQGEwJVUzELMAkGA1UECBMCT0gxETAPBgNVBAcTCENvbHVtYnVz
MRIwEAYDVQQKEwlWaWtpbmdWUE4xHTAbBgNVBAsTFE15T3JnYW5pemF0aW9uYWxV
bml0MRUwEwYDVQQDEwxWaWtpbmdWUE4gQ0ExEDAOBgNVBCkTB0Vhc3lSU0ExITAf
BgkqhkiG9w0BCQEWEm1lQG15aG9zdC5teWRvbWFpboIJAM81he6Avyo+MBMGA1Ud
JQQMMAoGCCsGAQUFBwMCMAsGA1UdDwQEAwIHgDANBgkqhkiG9w0BAQQFAAOCAgEA
KxUniWD/tFbMqULI4buL1JunKxD/ARupb+4Bj83vRsD0TXrOepuSzxOS/eLpYZtg
DgvPQC4fN7U4MK2hCDA4cc4IlbJCBk7MddRhMNHUzRgPMu6Dqzjz/KExsMdZ1xes
/84pY7Hz7G1HZYOcw3ZtWv9K8mhvh02MmzV0/JcIdYk7Xa/XhLnrLNeq6PH2bMz/
NLoGKdOwcUPZ4VONSFbHaoFkU2ErKsGP8NHTbomaCOOaZOpeqMv28NViRpfidlSs
drDjp/0twMB0BAhhf0riqVfGydr4vctwT6pV2cVAMyjNB9Nd5mQgrpKYqy5oK7WH
Wz0DLMntxkAjnRKwhLCnRq8mLpyRJrz1Bparq0L+4PikgGCX4TnZOEKZdLCSV7aI
tJKXMTukQTlU48OCYXixJWhM1J0lcso+BBN9437BPn4wHSFHvq5TC3Ea4ktzVopJ
jTGASW7jWfQdzWyyc0nn7e8Ovtx2cnqOBbnYCphFKT2y/WqzaADbLzd0F0ozOIHa
cpLwcQoak2QVbGKimqmmPWwuzz1gCW5UnPHWdExy6vdZja5cZMvCOPMDH3Y6x70z
87jv46yYZDku6h8uUD6zwG0kaYRmH0XHgUL2v/w8/hFgaQjfpcWv6Hng1vogfJkn
QmLhonfmJtOqvxeey370z4SWrNs4AxHXBkMg/Y6Gbz0=
-----END CERTIFICATE-----
