Certificate:
    Data:
        Version: 3 (0x2)
        Serial Number: 1985 (0x7c1)
    Signature Algorithm: md5WithRSAEncryption
        Issuer: C=US, ST=OH, L=Columbus, O=VikingVPN, OU=MyOrganizationalUnit, CN=VikingVPN CA/name=EasyRSA/emailAddress=me@myhost.mydomain
        Validity
            Not Before: May 31 12:36:05 2014 GMT
            Not After : May 28 12:36:05 2024 GMT
        Subject: CN=Client681Certc8a5d2
        Subject Public Key Info:
            Public Key Algorithm: rsaEncryption
                Public-Key: (4096 bit)
                Modulus:
                    00:c6:dd:4a:34:b8:f3:89:e5:d2:f1:5f:6a:59:1e:
                    8a:a6:94:14:dd:b6:01:e5:69:4f:56:e2:be:94:50:
                    f8:08:d3:fd:21:50:43:43:b4:0f:37:8b:89:45:33:
                    4b:02:d2:69:8c:2f:d2:3c:d7:24:5b:4c:dc:bb:46:
                    91:08:59:c3:54:d9:b7:0e:7f:a6:17:85:2b:11:3e:
                    c5:93:96:88:3a:b2:ea:4b:cd:23:77:fb:12:c4:9e:
                    79:23:f4:02:4a:0c:b7:19:36:5d:fa:52:8b:18:e5:
                    51:6e:f6:d9:8b:57:69:ef:3b:d8:b2:4a:d5:2a:81:
                    e4:35:35:75:b8:2c:0a:85:e1:61:a1:04:74:da:a1:
                    17:49:a5:a2:7c:e1:a7:98:e6:65:77:14:dc:41:fe:
                    d5:20:c0:63:81:99:06:be:30:f5:6d:3b:87:b0:8a:
                    46:c4:87:1c:83:e7:f4:3f:74:a7:98:5e:8e:21:68:
                    23:ce:95:5d:7f:a5:8c:ba:8d:0e:80:88:3a:87:e6:
                    44:33:f0:86:60:a9:6c:ad:6e:76:a5:44:28:7d:42:
                    2b:98:e7:db:0f:7c:61:e7:8c:7b:10:75:44:8e:0b:
                    95:74:39:37:d5:51:67:eb:ad:a2:b9:75:c9:84:14:
                    fa:cb:f4:15:8f:a6:e0:6b:65:72:70:63:d2:89:d8:
                    b2:e7:4e:bf:4e:87:c5:32:6a:e9:aa:64:6f:22:d6:
                    91:7e:c3:87:95:46:8d:77:13:66:f5:aa:ac:6a:c7:
                    0d:d2:23:e8:32:e7:b8:62:ea:e4:d6:af:f3:98:7f:
                    7b:06:ce:45:7b:05:d0:66:b3:bd:cd:7f:6b:6f:08:
                    21:40:41:86:0f:02:b6:32:3f:1a:a1:a0:69:ed:62:
                    ce:d7:e3:f4:1c:e3:69:ac:4e:12:cf:59:af:c0:af:
                    07:a5:55:5d:be:a1:ba:95:eb:00:3f:45:f3:92:d6:
                    12:57:a4:b5:71:7c:96:8b:cf:b2:0c:25:3d:77:1e:
                    6f:0e:b5:c7:38:b8:2e:f6:b4:77:2c:2e:e6:66:cd:
                    40:e4:63:63:0b:84:23:9c:0a:f9:ca:07:2c:5f:cf:
                    45:f4:04:3b:f1:62:3d:2d:15:14:0f:a1:bf:14:bc:
                    6a:8f:fc:90:73:95:00:33:c0:06:b4:ab:f7:ff:ec:
                    62:1f:43:80:7b:ee:e5:b8:7e:4f:4c:e5:7c:50:9e:
                    30:b9:c0:59:c5:82:0a:e0:f6:51:50:ce:f6:05:5e:
                    7c:8d:b3:00:79:d1:e4:2b:46:f4:49:c7:c0:3d:0b:
                    22:15:db:23:c9:5f:d2:72:85:e4:2c:a8:52:f6:22:
                    fd:05:1b:f8:69:a5:76:68:a5:bb:b6:00:4a:b6:63:
                    e1:26:4b
                Exponent: 65537 (0x10001)
        X509v3 extensions:
            X509v3 Basic Constraints: 
                CA:FALSE
            Netscape Comment: 
                Easy-RSA Generated Certificate
            X509v3 Subject Key Identifier: 
                F6:22:CC:06:2D:3D:03:61:27:79:6F:08:7C:94:A5:C8:55:D3:39:4B
            X509v3 Authority Key Identifier: 
                keyid:12:CD:60:04:D2:A0:80:9E:70:ED:C6:99:B8:7B:2C:C6:52:FD:19:A1
                DirName:/C=US/ST=OH/L=Columbus/O=VikingVPN/OU=MyOrganizationalUnit/CN=VikingVPN CA/name=EasyRSA/emailAddress=me@myhost.mydomain
                serial:CF:35:85:EE:80:BF:2A:3E

            X509v3 Extended Key Usage: 
                TLS Web Client Authentication
            X509v3 Key Usage: 
                Digital Signature
    Signature Algorithm: md5WithRSAEncryption
         58:32:43:89:81:54:e1:56:ff:3a:09:ef:06:ca:1d:c3:2e:5f:
         fd:81:33:25:07:a9:e4:f2:73:55:62:dd:5e:bb:cc:f7:f1:a1:
         6f:4a:d5:14:e1:e4:57:a6:35:19:1d:dc:cc:6c:55:d9:33:65:
         42:f2:21:ba:4d:22:6a:4c:62:f6:2c:21:4a:c0:50:7e:88:2b:
         cb:da:7e:33:d2:17:b3:a7:08:6d:00:e6:1d:81:67:54:01:9f:
         fc:69:a5:fb:8f:8c:62:18:7b:e8:12:6c:c8:fc:e6:7d:aa:c3:
         65:50:21:0d:f7:ee:89:f2:28:07:77:ae:e0:18:85:05:65:81:
         2c:30:49:dd:dc:b8:cc:78:6e:92:e5:84:af:a7:bd:87:05:8b:
         22:c1:ed:76:3b:b7:5c:cc:a7:56:e1:9a:11:2a:2a:4e:3e:af:
         03:90:76:11:e2:ae:e3:07:c0:10:ff:82:68:dc:d5:af:0b:31:
         9f:05:df:ee:f1:b3:91:3b:08:f8:51:a5:06:98:db:7e:09:dc:
         ce:b2:44:28:40:b3:85:84:83:0c:d8:b4:85:83:c5:4f:ae:f2:
         2b:70:e3:51:66:49:1f:f5:8d:55:85:54:d4:8e:d6:85:e6:b0:
         19:6e:56:84:8e:16:02:71:04:f9:97:38:1c:de:c9:65:6e:af:
         5a:7b:00:d0:c9:0d:b6:76:af:6b:77:a6:b6:5a:e3:3b:e9:f1:
         6d:66:4b:86:e9:63:e4:78:f8:f3:9c:c8:0d:77:2e:54:c6:15:
         2b:8d:67:54:6d:be:f4:10:eb:a5:25:ac:b3:0b:c8:5f:17:e9:
         32:ff:e8:03:e0:d3:d3:c4:7d:20:2b:87:55:c0:cf:fb:22:8d:
         10:e0:be:a3:18:1b:3a:db:83:72:74:0b:21:ef:8e:1b:82:21:
         c9:7d:38:fc:50:ae:8a:d2:c3:91:96:af:fc:af:58:ce:b8:5c:
         b4:12:ca:e1:bd:e5:84:89:80:0f:c6:05:12:a1:5c:48:76:7d:
         34:83:0a:3f:d3:31:6d:cc:e5:c6:66:b4:c5:c9:66:05:f6:1f:
         11:9d:65:19:19:08:8d:90:8a:b7:f0:c5:29:b1:bd:5d:cf:22:
         e8:63:dd:cd:e6:2b:7e:08:fe:1a:4f:52:30:06:17:20:fe:ec:
         fe:d8:97:e8:89:3f:d5:65:27:43:da:ee:2d:77:0e:e7:9c:ea:
         7f:5a:1e:8e:3e:d3:ad:e4:dc:e4:d2:a9:16:3a:3d:91:e0:e0:
         d5:22:03:10:7d:33:46:40:fd:d2:6d:3f:82:c8:e2:6a:24:1f:
         20:2f:dd:66:70:cd:d0:82:15:9e:d2:70:24:59:59:bd:e2:99:
         51:bc:09:02:5f:1e:80:67
-----BEGIN CERTIFICATE-----
MIIGrDCCBJSgAwIBAgICB8EwDQYJKoZIhvcNAQEEBQAwgawxCzAJBgNVBAYTAlVT
MQswCQYDVQQIEwJPSDERMA8GA1UEBxMIQ29sdW1idXMxEjAQBgNVBAoTCVZpa2lu
Z1ZQTjEdMBsGA1UECxMUTXlPcmdhbml6YXRpb25hbFVuaXQxFTATBgNVBAMTDFZp
a2luZ1ZQTiBDQTEQMA4GA1UEKRMHRWFzeVJTQTEhMB8GCSqGSIb3DQEJARYSbWVA
bXlob3N0Lm15ZG9tYWluMB4XDTE0MDUzMTEyMzYwNVoXDTI0MDUyODEyMzYwNVow
HjEcMBoGA1UEAxMTQ2xpZW50NjgxQ2VydGM4YTVkMjCCAiIwDQYJKoZIhvcNAQEB
BQADggIPADCCAgoCggIBAMbdSjS484nl0vFfalkeiqaUFN22AeVpT1bivpRQ+AjT
/SFQQ0O0DzeLiUUzSwLSaYwv0jzXJFtM3LtGkQhZw1TZtw5/pheFKxE+xZOWiDqy
6kvNI3f7EsSeeSP0AkoMtxk2XfpSixjlUW722YtXae872LJK1SqB5DU1dbgsCoXh
YaEEdNqhF0mlonzhp5jmZXcU3EH+1SDAY4GZBr4w9W07h7CKRsSHHIPn9D90p5he
jiFoI86VXX+ljLqNDoCIOofmRDPwhmCpbK1udqVEKH1CK5jn2w98YeeMexB1RI4L
lXQ5N9VRZ+utorl1yYQU+sv0FY+m4GtlcnBj0onYsudOv06HxTJq6apkbyLWkX7D
h5VGjXcTZvWqrGrHDdIj6DLnuGLq5Nav85h/ewbORXsF0Gazvc1/a28IIUBBhg8C
tjI/GqGgae1iztfj9BzjaaxOEs9Zr8CvB6VVXb6hupXrAD9F85LWElektXF8lovP
sgwlPXcebw61xzi4Lva0dywu5mbNQORjYwuEI5wK+coHLF/PRfQEO/FiPS0VFA+h
vxS8ao/8kHOVADPABrSr9//sYh9DgHvu5bh+T0zlfFCeMLnAWcWCCuD2UVDO9gVe
fI2zAHnR5CtG9EnHwD0LIhXbI8lf0nKF5CyoUvYi/QUb+Gmldmilu7YASrZj4SZL
AgMBAAGjggFjMIIBXzAJBgNVHRMEAjAAMC0GCWCGSAGG+EIBDQQgFh5FYXN5LVJT
QSBHZW5lcmF0ZWQgQ2VydGlmaWNhdGUwHQYDVR0OBBYEFPYizAYtPQNhJ3lvCHyU
pchV0zlLMIHhBgNVHSMEgdkwgdaAFBLNYATSoICecO3Gmbh7LMZS/RmhoYGypIGv
MIGsMQswCQYDVQQGEwJVUzELMAkGA1UECBMCT0gxETAPBgNVBAcTCENvbHVtYnVz
MRIwEAYDVQQKEwlWaWtpbmdWUE4xHTAbBgNVBAsTFE15T3JnYW5pemF0aW9uYWxV
bml0MRUwEwYDVQQDEwxWaWtpbmdWUE4gQ0ExEDAOBgNVBCkTB0Vhc3lSU0ExITAf
BgkqhkiG9w0BCQEWEm1lQG15aG9zdC5teWRvbWFpboIJAM81he6Avyo+MBMGA1Ud
JQQMMAoGCCsGAQUFBwMCMAsGA1UdDwQEAwIHgDANBgkqhkiG9w0BAQQFAAOCAgEA
WDJDiYFU4Vb/OgnvBsodwy5f/YEzJQep5PJzVWLdXrvM9/Ghb0rVFOHkV6Y1GR3c
zGxV2TNlQvIhuk0iakxi9iwhSsBQfogry9p+M9IXs6cIbQDmHYFnVAGf/Gml+4+M
Yhh76BJsyPzmfarDZVAhDffuifIoB3eu4BiFBWWBLDBJ3dy4zHhukuWEr6e9hwWL
IsHtdju3XMynVuGaESoqTj6vA5B2EeKu4wfAEP+CaNzVrwsxnwXf7vGzkTsI+FGl
BpjbfgnczrJEKECzhYSDDNi0hYPFT67yK3DjUWZJH/WNVYVU1I7WheawGW5WhI4W
AnEE+Zc4HN7JZW6vWnsA0MkNtnava3emtlrjO+nxbWZLhulj5Hj485zIDXcuVMYV
K41nVG2+9BDrpSWsswvIXxfpMv/oA+DT08R9ICuHVcDP+yKNEOC+oxgbOtuDcnQL
Ie+OG4IhyX04/FCuitLDkZav/K9YzrhctBLK4b3lhImAD8YFEqFcSHZ9NIMKP9Mx
bczlxma0xclmBfYfEZ1lGRkIjZCKt/DFKbG9Xc8i6GPdzeYrfgj+Gk9SMAYXIP7s
/tiX6Ik/1WUnQ9ruLXcO55zqf1oejj7TreTc5NKpFjo9keDg1SIDEH0zRkD90m0/
gsjiaiQfIC/dZnDN0IIVntJwJFlZveKZUbwJAl8egGc=
-----END CERTIFICATE-----
