Certificate:
    Data:
        Version: 3 (0x2)
        Serial Number: 1993 (0x7c9)
    Signature Algorithm: md5WithRSAEncryption
        Issuer: C=US, ST=OH, L=Columbus, O=VikingVPN, OU=MyOrganizationalUnit, CN=VikingVPN CA/name=EasyRSA/emailAddress=me@myhost.mydomain
        Validity
            Not Before: Jun  1 21:34:55 2014 GMT
            Not After : May 29 21:34:55 2024 GMT
        Subject: CN=Client691Certca9e2d
        Subject Public Key Info:
            Public Key Algorithm: rsaEncryption
                Public-Key: (4096 bit)
                Modulus:
                    00:db:f2:9a:d0:13:01:c1:ae:90:54:24:f3:b4:05:
                    96:bc:28:a9:d2:56:87:b0:5f:7a:74:94:72:c0:6d:
                    bc:6b:57:1c:59:02:bb:dd:37:b3:60:15:69:46:48:
                    fa:17:55:cf:0a:76:99:5a:45:7a:ff:72:36:4d:a8:
                    83:91:d3:d9:ef:f7:86:12:9c:4d:9e:d8:1a:24:a3:
                    9e:92:a9:89:bf:5a:8c:3a:65:b6:29:91:33:97:5f:
                    5a:83:a0:c9:6a:46:7b:52:5d:44:63:c3:e7:69:ab:
                    e3:17:d3:17:c1:28:f2:ab:3f:60:88:5f:9c:db:1b:
                    b3:a0:c4:f6:69:ee:85:82:74:6b:bb:9d:1f:7b:cd:
                    aa:83:46:40:f6:c4:a0:4c:fc:f8:4e:95:1a:19:b1:
                    37:81:0f:cd:b0:6c:3e:c0:cb:f6:b4:06:e5:55:82:
                    db:50:ef:6c:36:79:ba:3c:eb:8c:30:9c:08:12:82:
                    eb:8b:58:f1:7f:fd:c5:63:24:c4:fe:ec:37:ac:30:
                    d1:ba:d6:d9:97:26:ac:5c:25:fc:30:cf:b9:c1:95:
                    ff:cd:4a:3a:e3:22:24:db:45:de:b2:6d:2b:cf:9c:
                    35:e9:76:c7:14:10:67:58:96:de:f7:21:e5:a0:ae:
                    85:38:86:8c:23:e6:46:9b:cb:48:a6:b8:d7:11:3b:
                    b7:c4:cb:6d:38:fd:fd:72:1a:cb:ba:39:55:89:ef:
                    1a:27:c5:77:5e:bd:b8:87:66:77:d8:6c:7a:22:a0:
                    63:01:9e:14:5c:60:2f:00:fb:31:80:59:81:d2:aa:
                    6d:0e:55:64:b4:ac:5a:8a:11:90:05:00:f8:7b:4c:
                    b1:5d:6d:27:81:59:7c:b7:db:2b:6d:cd:b5:ae:fb:
                    7d:06:f9:a4:46:5e:5d:f8:c0:7f:f1:b9:53:2b:04:
                    37:e2:9f:78:3a:27:95:45:3a:bb:65:93:10:1d:22:
                    3d:15:79:d9:21:6e:8a:0c:ca:62:97:7d:56:42:c8:
                    9d:c2:e4:ba:9f:63:cb:35:b2:e1:e4:2d:3b:e0:1f:
                    20:02:cc:03:2e:6e:50:0c:e6:81:94:9d:f5:d2:4f:
                    9e:6f:21:74:b4:28:d8:34:d6:54:98:32:f6:bd:4b:
                    ad:1f:92:f6:27:0a:d5:56:bd:ca:21:a1:e4:01:15:
                    ff:19:d4:64:c9:7a:81:1f:75:94:df:71:dc:01:63:
                    d4:aa:cf:ac:2b:ee:93:22:60:5e:25:f1:ef:b2:5b:
                    6a:c9:58:38:34:d5:0f:2b:95:45:51:89:88:45:53:
                    ef:44:f1:13:32:db:e9:00:13:fe:32:4e:3c:87:29:
                    49:28:c1:31:04:6a:c1:7a:13:03:bc:80:76:39:bb:
                    cb:b3:03
                Exponent: 65537 (0x10001)
        X509v3 extensions:
            X509v3 Basic Constraints: 
                CA:FALSE
            Netscape Comment: 
                Easy-RSA Generated Certificate
            X509v3 Subject Key Identifier: 
                9E:D2:FE:47:09:44:95:86:5C:0E:14:7E:22:4A:0E:FD:1E:37:78:60
            X509v3 Authority Key Identifier: 
                keyid:12:CD:60:04:D2:A0:80:9E:70:ED:C6:99:B8:7B:2C:C6:52:FD:19:A1
                DirName:/C=US/ST=OH/L=Columbus/O=VikingVPN/OU=MyOrganizationalUnit/CN=VikingVPN CA/name=EasyRSA/emailAddress=me@myhost.mydomain
                serial:CF:35:85:EE:80:BF:2A:3E

            X509v3 Extended Key Usage: 
                TLS Web Client Authentication
            X509v3 Key Usage: 
                Digital Signature
    Signature Algorithm: md5WithRSAEncryption
         9e:bd:13:70:7b:2f:fa:82:a8:c9:b4:9d:8a:b4:51:6d:f7:01:
         70:ea:84:96:10:36:25:72:41:ff:ec:4c:29:e8:14:10:8b:30:
         57:72:47:90:3e:da:d7:8a:47:5a:fc:2c:f7:33:9e:df:32:5b:
         c4:ea:61:2b:ee:11:87:f3:df:77:79:48:e6:5e:df:46:ea:35:
         39:0a:4b:55:73:ab:49:a4:5b:7f:9e:7d:63:be:be:b9:90:6c:
         47:2c:d8:8b:7d:63:7a:93:1a:37:db:25:3d:0f:52:62:94:9c:
         47:81:f3:62:a8:87:fc:e0:fc:dc:92:8d:1d:04:bf:dc:d0:ce:
         9b:a5:ff:b6:59:c4:96:d1:b0:d8:a9:ed:3c:50:02:82:2e:f9:
         b4:77:8a:3a:67:5d:a6:36:30:f6:6e:69:28:cc:3a:9f:97:d5:
         ff:a3:4d:d9:89:88:de:f9:63:31:6e:2c:11:d1:44:e1:c1:d3:
         28:ff:21:e8:6a:68:79:ea:3c:be:66:ad:fb:a2:fc:66:81:75:
         bc:56:06:14:cc:d4:10:38:02:73:fc:d4:b2:58:9e:2e:ad:61:
         77:96:11:f2:25:9d:b0:b4:ef:62:df:90:76:87:a0:4c:c2:79:
         bb:7c:bf:11:7f:22:8f:50:d5:7e:88:d7:a6:e9:12:62:0a:f2:
         02:e4:de:10:ce:c7:9a:6f:33:3e:57:d5:9b:f7:bf:63:80:11:
         be:48:b9:2c:6b:ec:bd:a2:4f:30:a2:e8:49:18:7a:60:3a:66:
         0b:03:5b:57:f7:d5:8b:dc:7c:2a:29:55:78:f0:ea:b7:b4:4b:
         bd:b1:0c:56:7d:92:8a:0a:04:92:1d:e5:0e:73:a5:ef:6d:af:
         40:3a:66:8c:3d:62:3c:32:ba:8a:f2:17:f4:0a:f0:f4:8b:7f:
         3f:67:0d:c0:6b:2d:a3:06:ec:73:84:4d:80:be:14:b4:a8:66:
         b6:9a:e1:7f:86:8c:38:14:2c:84:da:9d:29:f6:ed:2b:e0:86:
         94:3d:81:5d:aa:8b:66:cb:c3:ea:c7:2c:6a:c4:3e:53:14:54:
         d2:80:26:a1:7e:e5:6c:b3:02:36:fa:39:18:f0:f5:00:72:46:
         a0:8d:f2:f1:18:c5:ff:11:ad:53:50:3e:de:b9:e0:4c:3a:f4:
         7a:95:e1:96:4d:e3:a0:4b:3a:12:69:e6:d5:2e:80:f2:5f:37:
         94:72:5a:6e:84:73:bd:33:99:72:be:e2:1e:bd:0a:0f:5e:81:
         4b:c8:ed:65:fa:55:55:f8:31:80:30:74:b5:36:a6:36:ac:3a:
         0f:27:2e:e1:07:2d:71:0d:0a:38:29:a4:6a:6e:a0:51:4a:93:
         85:e8:9d:45:df:f3:2c:d1
-----BEGIN CERTIFICATE-----
MIIGrDCCBJSgAwIBAgICB8kwDQYJKoZIhvcNAQEEBQAwgawxCzAJBgNVBAYTAlVT
MQswCQYDVQQIEwJPSDERMA8GA1UEBxMIQ29sdW1idXMxEjAQBgNVBAoTCVZpa2lu
Z1ZQTjEdMBsGA1UECxMUTXlPcmdhbml6YXRpb25hbFVuaXQxFTATBgNVBAMTDFZp
a2luZ1ZQTiBDQTEQMA4GA1UEKRMHRWFzeVJTQTEhMB8GCSqGSIb3DQEJARYSbWVA
bXlob3N0Lm15ZG9tYWluMB4XDTE0MDYwMTIxMzQ1NVoXDTI0MDUyOTIxMzQ1NVow
HjEcMBoGA1UEAxMTQ2xpZW50NjkxQ2VydGNhOWUyZDCCAiIwDQYJKoZIhvcNAQEB
BQADggIPADCCAgoCggIBANvymtATAcGukFQk87QFlrwoqdJWh7BfenSUcsBtvGtX
HFkCu903s2AVaUZI+hdVzwp2mVpFev9yNk2og5HT2e/3hhKcTZ7YGiSjnpKpib9a
jDpltimRM5dfWoOgyWpGe1JdRGPD52mr4xfTF8Eo8qs/YIhfnNsbs6DE9mnuhYJ0
a7udH3vNqoNGQPbEoEz8+E6VGhmxN4EPzbBsPsDL9rQG5VWC21DvbDZ5ujzrjDCc
CBKC64tY8X/9xWMkxP7sN6ww0brW2ZcmrFwl/DDPucGV/81KOuMiJNtF3rJtK8+c
Nel2xxQQZ1iW3vch5aCuhTiGjCPmRpvLSKa41xE7t8TLbTj9/XIay7o5VYnvGifF
d169uIdmd9hseiKgYwGeFFxgLwD7MYBZgdKqbQ5VZLSsWooRkAUA+HtMsV1tJ4FZ
fLfbK23Nta77fQb5pEZeXfjAf/G5UysEN+KfeDonlUU6u2WTEB0iPRV52SFuigzK
Ypd9VkLIncLkup9jyzWy4eQtO+AfIALMAy5uUAzmgZSd9dJPnm8hdLQo2DTWVJgy
9r1LrR+S9icK1Va9yiGh5AEV/xnUZMl6gR91lN9x3AFj1KrPrCvukyJgXiXx77Jb
aslYODTVDyuVRVGJiEVT70TxEzLb6QAT/jJOPIcpSSjBMQRqwXoTA7yAdjm7y7MD
AgMBAAGjggFjMIIBXzAJBgNVHRMEAjAAMC0GCWCGSAGG+EIBDQQgFh5FYXN5LVJT
QSBHZW5lcmF0ZWQgQ2VydGlmaWNhdGUwHQYDVR0OBBYEFJ7S/kcJRJWGXA4UfiJK
Dv0eN3hgMIHhBgNVHSMEgdkwgdaAFBLNYATSoICecO3Gmbh7LMZS/RmhoYGypIGv
MIGsMQswCQYDVQQGEwJVUzELMAkGA1UECBMCT0gxETAPBgNVBAcTCENvbHVtYnVz
MRIwEAYDVQQKEwlWaWtpbmdWUE4xHTAbBgNVBAsTFE15T3JnYW5pemF0aW9uYWxV
bml0MRUwEwYDVQQDEwxWaWtpbmdWUE4gQ0ExEDAOBgNVBCkTB0Vhc3lSU0ExITAf
BgkqhkiG9w0BCQEWEm1lQG15aG9zdC5teWRvbWFpboIJAM81he6Avyo+MBMGA1Ud
JQQMMAoGCCsGAQUFBwMCMAsGA1UdDwQEAwIHgDANBgkqhkiG9w0BAQQFAAOCAgEA
nr0TcHsv+oKoybSdirRRbfcBcOqElhA2JXJB/+xMKegUEIswV3JHkD7a14pHWvws
9zOe3zJbxOphK+4Rh/Pfd3lI5l7fRuo1OQpLVXOrSaRbf559Y76+uZBsRyzYi31j
epMaN9slPQ9SYpScR4HzYqiH/OD83JKNHQS/3NDOm6X/tlnEltGw2KntPFACgi75
tHeKOmddpjYw9m5pKMw6n5fV/6NN2YmI3vljMW4sEdFE4cHTKP8h6Gpoeeo8vmat
+6L8ZoF1vFYGFMzUEDgCc/zUslieLq1hd5YR8iWdsLTvYt+QdoegTMJ5u3y/EX8i
j1DVfojXpukSYgryAuTeEM7Hmm8zPlfVm/e/Y4ARvki5LGvsvaJPMKLoSRh6YDpm
CwNbV/fVi9x8KilVePDqt7RLvbEMVn2SigoEkh3lDnOl722vQDpmjD1iPDK6ivIX
9Arw9It/P2cNwGstowbsc4RNgL4UtKhmtprhf4aMOBQshNqdKfbtK+CGlD2BXaqL
ZsvD6scsasQ+UxRU0oAmoX7lbLMCNvo5GPD1AHJGoI3y8RjF/xGtU1A+3rngTDr0
epXhlk3joEs6Emnm1S6A8l83lHJaboRzvTOZcr7iHr0KD16BS8jtZfpVVfgxgDB0
tTamNqw6Dycu4QctcQ0KOCmkam6gUUqTheidRd/zLNE=
-----END CERTIFICATE-----
