Certificate:
    Data:
        Version: 3 (0x2)
        Serial Number: 2018 (0x7e2)
    Signature Algorithm: md5WithRSAEncryption
        Issuer: C=US, ST=OH, L=Columbus, O=VikingVPN, OU=MyOrganizationalUnit, CN=VikingVPN CA/name=EasyRSA/emailAddress=me@myhost.mydomain
        Validity
            Not Before: Jun  4 01:51:10 2014 GMT
            Not After : Jun  1 01:51:10 2024 GMT
        Subject: CN=Client702Certdf3b28
        Subject Public Key Info:
            Public Key Algorithm: rsaEncryption
                Public-Key: (4096 bit)
                Modulus:
                    00:c1:f7:a5:df:e6:dc:af:b2:21:aa:a6:58:6a:24:
                    3a:2c:5d:86:c3:a9:3b:89:80:68:0a:76:ac:22:d6:
                    48:d5:b2:dd:f4:39:fd:da:9b:1e:8c:cf:80:b0:c3:
                    e2:c0:e0:be:b9:0a:c4:36:b3:64:81:03:e0:78:77:
                    1a:e9:bb:05:d8:54:cf:ab:04:e3:da:6e:d5:a3:36:
                    33:2e:30:4f:0d:63:f1:59:1d:2e:77:3e:d1:ff:bb:
                    83:e2:dc:b2:9c:6d:a9:84:ac:4c:74:89:c4:3a:d4:
                    45:49:d5:f9:1f:91:e9:99:00:fc:d9:ba:00:78:31:
                    96:00:9d:da:e9:1d:e3:9e:aa:6a:30:11:b2:02:38:
                    4b:89:7a:67:39:19:23:f0:92:4a:04:5f:2c:e6:b7:
                    9a:89:a2:9b:31:7a:54:92:9e:47:20:99:30:39:cb:
                    2f:4b:81:ee:60:a8:37:a6:db:de:f5:38:49:05:57:
                    c2:3a:4a:0f:97:2a:22:87:cf:cd:ae:43:6d:65:06:
                    23:82:ce:a1:d3:c4:fd:94:48:c7:01:83:dc:b7:79:
                    3c:de:df:15:dd:60:39:ac:e2:47:0c:10:37:be:d2:
                    4c:50:e5:29:d9:99:d6:7f:2f:fa:fb:02:de:99:a3:
                    a4:6c:39:b9:ae:43:d0:d8:34:f9:83:68:2b:30:07:
                    e9:25:03:d4:f8:33:da:5c:4f:dc:dd:4e:8f:ac:39:
                    2b:14:a1:0a:76:4f:62:07:75:12:17:74:83:b7:1a:
                    9e:da:58:b7:56:70:a8:16:af:31:ac:33:e1:3d:83:
                    a0:91:4f:b3:18:5c:4c:94:68:8a:de:10:12:1d:81:
                    c7:f3:0d:af:72:23:6b:e8:25:cb:0d:3f:d1:f8:05:
                    f2:03:09:2f:29:42:85:fb:59:d8:d5:01:a8:87:96:
                    e0:2d:d6:d0:a3:7f:2d:31:20:97:8f:1a:a7:fd:d5:
                    db:f9:0f:51:30:93:fe:3b:c4:8b:4f:ea:74:87:f9:
                    95:8d:4e:15:72:42:cc:16:14:9a:2f:94:9a:35:c0:
                    54:6c:70:63:88:1b:29:1e:e9:3f:66:8d:fb:c8:19:
                    25:7e:64:88:e7:bd:26:05:51:28:56:92:01:c4:d2:
                    94:25:04:be:a1:24:18:82:61:ff:10:52:e3:5d:58:
                    8c:f8:0e:26:d8:c2:d7:34:4e:49:1e:60:83:72:9a:
                    78:fd:03:65:69:8c:3e:44:e3:e9:b1:ab:48:2c:73:
                    b7:92:bc:bc:45:eb:cc:6d:54:07:51:3d:c6:61:4a:
                    fb:54:b1:48:68:0a:d4:11:35:d8:53:f1:3c:7c:41:
                    11:6e:0f:11:15:71:7c:f9:c1:4d:8d:ba:1b:7f:dd:
                    53:db:f9
                Exponent: 65537 (0x10001)
        X509v3 extensions:
            X509v3 Basic Constraints: 
                CA:FALSE
            Netscape Comment: 
                Easy-RSA Generated Certificate
            X509v3 Subject Key Identifier: 
                03:A0:12:67:27:E8:C5:E6:58:4A:D6:86:0E:EC:54:92:B3:5C:EE:10
            X509v3 Authority Key Identifier: 
                keyid:12:CD:60:04:D2:A0:80:9E:70:ED:C6:99:B8:7B:2C:C6:52:FD:19:A1
                DirName:/C=US/ST=OH/L=Columbus/O=VikingVPN/OU=MyOrganizationalUnit/CN=VikingVPN CA/name=EasyRSA/emailAddress=me@myhost.mydomain
                serial:CF:35:85:EE:80:BF:2A:3E

            X509v3 Extended Key Usage: 
                TLS Web Client Authentication
            X509v3 Key Usage: 
                Digital Signature
    Signature Algorithm: md5WithRSAEncryption
         8f:85:16:fd:b3:32:9e:6f:c0:05:6a:df:66:aa:e0:9d:24:66:
         4a:7d:40:4c:9d:65:6b:55:91:00:96:0c:9a:8a:b7:c0:8e:41:
         8a:2d:f4:ce:aa:01:48:5b:f6:62:de:a0:38:2d:f8:eb:1a:9e:
         c1:1e:f5:cd:6e:9f:44:37:8e:26:29:28:2f:ac:70:38:0b:e6:
         ce:9b:66:59:a9:4b:5c:10:3a:87:54:1c:0e:2b:5e:b7:93:ad:
         36:b0:23:5c:0f:95:80:4f:03:55:65:d6:b8:7e:fc:c9:46:8e:
         8a:be:be:66:8c:19:3f:4f:1b:93:3b:c9:15:97:2e:c3:65:b7:
         7e:9a:27:08:89:13:0f:ef:89:00:9d:9b:33:b3:b5:11:ca:f1:
         75:73:7b:95:56:f3:ff:16:23:87:e6:43:62:89:ee:97:5a:1e:
         c2:32:3b:c4:8c:c9:93:5b:ce:30:02:82:59:9c:42:47:e2:33:
         b9:5b:d0:b5:bb:57:d3:b2:9e:2d:66:a4:e3:d6:23:5d:59:5c:
         c4:b4:1a:cf:56:90:79:35:66:bd:21:cf:ab:05:a7:9a:f5:72:
         45:86:0b:64:68:02:1d:86:4c:c2:ab:4b:a5:39:1d:32:5e:14:
         42:c1:16:a2:34:8a:74:7b:f9:9b:b5:9b:66:cb:0c:da:f1:22:
         cf:20:85:7a:ee:41:2c:5d:58:b2:b8:ad:28:41:bb:04:6f:c8:
         d9:87:a7:35:a1:dd:16:bc:c9:4f:35:a9:25:27:bb:96:35:73:
         de:67:3f:ff:fc:98:25:a8:49:27:94:83:e2:13:f4:f3:de:7e:
         eb:f9:11:fb:5c:0e:94:87:9b:7e:66:c7:d6:e1:fc:a5:91:5a:
         72:f4:07:09:9e:82:fa:56:ca:12:74:aa:c8:60:ec:65:7d:0d:
         fd:30:25:2a:04:f7:64:2e:ad:4a:8d:17:6d:67:73:26:d5:bd:
         2d:de:8d:53:22:42:64:d9:0d:fd:41:75:a6:59:0f:ad:8b:ce:
         66:1a:5f:80:52:00:c5:53:61:e4:48:ef:7a:09:9a:7f:8f:99:
         d6:7c:0b:cd:65:39:1f:08:e1:21:56:01:89:23:eb:cb:be:b0:
         b7:c5:bb:b3:b5:2c:49:2f:b7:27:79:fd:15:d1:0d:a7:04:f0:
         1b:11:5f:94:c9:3f:44:0e:9e:c5:2d:89:1a:cb:e3:9b:3b:65:
         5d:c6:a5:8e:c4:a1:00:a5:ab:d5:5a:f9:b1:13:4d:a3:99:0f:
         45:1a:d4:94:f1:8c:c6:0d:5d:dd:aa:db:9e:56:31:26:6f:da:
         21:bb:49:14:7f:34:58:5c:d8:c3:9b:ee:39:af:2e:f1:15:1d:
         18:a9:40:a0:36:07:5e:2a
-----BEGIN CERTIFICATE-----
MIIGrDCCBJSgAwIBAgICB+IwDQYJKoZIhvcNAQEEBQAwgawxCzAJBgNVBAYTAlVT
MQswCQYDVQQIEwJPSDERMA8GA1UEBxMIQ29sdW1idXMxEjAQBgNVBAoTCVZpa2lu
Z1ZQTjEdMBsGA1UECxMUTXlPcmdhbml6YXRpb25hbFVuaXQxFTATBgNVBAMTDFZp
a2luZ1ZQTiBDQTEQMA4GA1UEKRMHRWFzeVJTQTEhMB8GCSqGSIb3DQEJARYSbWVA
bXlob3N0Lm15ZG9tYWluMB4XDTE0MDYwNDAxNTExMFoXDTI0MDYwMTAxNTExMFow
HjEcMBoGA1UEAxMTQ2xpZW50NzAyQ2VydGRmM2IyODCCAiIwDQYJKoZIhvcNAQEB
BQADggIPADCCAgoCggIBAMH3pd/m3K+yIaqmWGokOixdhsOpO4mAaAp2rCLWSNWy
3fQ5/dqbHozPgLDD4sDgvrkKxDazZIED4Hh3Gum7BdhUz6sE49pu1aM2My4wTw1j
8VkdLnc+0f+7g+LcspxtqYSsTHSJxDrURUnV+R+R6ZkA/Nm6AHgxlgCd2ukd456q
ajARsgI4S4l6ZzkZI/CSSgRfLOa3momimzF6VJKeRyCZMDnLL0uB7mCoN6bb3vU4
SQVXwjpKD5cqIofPza5DbWUGI4LOodPE/ZRIxwGD3Ld5PN7fFd1gOaziRwwQN77S
TFDlKdmZ1n8v+vsC3pmjpGw5ua5D0Ng0+YNoKzAH6SUD1Pgz2lxP3N1Oj6w5KxSh
CnZPYgd1Ehd0g7cantpYt1ZwqBavMawz4T2DoJFPsxhcTJRoit4QEh2Bx/MNr3Ij
a+glyw0/0fgF8gMJLylChftZ2NUBqIeW4C3W0KN/LTEgl48ap/3V2/kPUTCT/jvE
i0/qdIf5lY1OFXJCzBYUmi+UmjXAVGxwY4gbKR7pP2aN+8gZJX5kiOe9JgVRKFaS
AcTSlCUEvqEkGIJh/xBS411YjPgOJtjC1zROSR5gg3KaeP0DZWmMPkTj6bGrSCxz
t5K8vEXrzG1UB1E9xmFK+1SxSGgK1BE12FPxPHxBEW4PERVxfPnBTY26G3/dU9v5
AgMBAAGjggFjMIIBXzAJBgNVHRMEAjAAMC0GCWCGSAGG+EIBDQQgFh5FYXN5LVJT
QSBHZW5lcmF0ZWQgQ2VydGlmaWNhdGUwHQYDVR0OBBYEFAOgEmcn6MXmWErWhg7s
VJKzXO4QMIHhBgNVHSMEgdkwgdaAFBLNYATSoICecO3Gmbh7LMZS/RmhoYGypIGv
MIGsMQswCQYDVQQGEwJVUzELMAkGA1UECBMCT0gxETAPBgNVBAcTCENvbHVtYnVz
MRIwEAYDVQQKEwlWaWtpbmdWUE4xHTAbBgNVBAsTFE15T3JnYW5pemF0aW9uYWxV
bml0MRUwEwYDVQQDEwxWaWtpbmdWUE4gQ0ExEDAOBgNVBCkTB0Vhc3lSU0ExITAf
BgkqhkiG9w0BCQEWEm1lQG15aG9zdC5teWRvbWFpboIJAM81he6Avyo+MBMGA1Ud
JQQMMAoGCCsGAQUFBwMCMAsGA1UdDwQEAwIHgDANBgkqhkiG9w0BAQQFAAOCAgEA
j4UW/bMynm/ABWrfZqrgnSRmSn1ATJ1la1WRAJYMmoq3wI5Bii30zqoBSFv2Yt6g
OC346xqewR71zW6fRDeOJikoL6xwOAvmzptmWalLXBA6h1QcDitet5OtNrAjXA+V
gE8DVWXWuH78yUaOir6+ZowZP08bkzvJFZcuw2W3fponCIkTD++JAJ2bM7O1Ecrx
dXN7lVbz/xYjh+ZDYonul1oewjI7xIzJk1vOMAKCWZxCR+IzuVvQtbtX07KeLWak
49YjXVlcxLQaz1aQeTVmvSHPqwWnmvVyRYYLZGgCHYZMwqtLpTkdMl4UQsEWojSK
dHv5m7WbZssM2vEizyCFeu5BLF1YsritKEG7BG/I2YenNaHdFrzJTzWpJSe7ljVz
3mc///yYJahJJ5SD4hP0895+6/kR+1wOlIebfmbH1uH8pZFacvQHCZ6C+lbKEnSq
yGDsZX0N/TAlKgT3ZC6tSo0XbWdzJtW9Ld6NUyJCZNkN/UF1plkPrYvOZhpfgFIA
xVNh5Ejvegmaf4+Z1nwLzWU5HwjhIVYBiSPry76wt8W7s7UsSS+3J3n9FdENpwTw
GxFflMk/RA6exS2JGsvjmztlXcaljsShAKWr1Vr5sRNNo5kPRRrUlPGMxg1d3arb
nlYxJm/aIbtJFH80WFzYw5vuOa8u8RUdGKlAoDYHXio=
-----END CERTIFICATE-----
