Certificate:
    Data:
        Version: 3 (0x2)
        Serial Number: 2048 (0x800)
    Signature Algorithm: md5WithRSAEncryption
        Issuer: C=US, ST=OH, L=Columbus, O=VikingVPN, OU=MyOrganizationalUnit, CN=VikingVPN CA/name=EasyRSA/emailAddress=me@myhost.mydomain
        Validity
            Not Before: Jun  7 04:22:50 2014 GMT
            Not After : Jun  4 04:22:50 2024 GMT
        Subject: CN=Client319Certb5c822
        Subject Public Key Info:
            Public Key Algorithm: rsaEncryption
                Public-Key: (4096 bit)
                Modulus:
                    00:c7:92:8a:2f:1d:d1:09:e1:8a:bf:a2:b6:0b:63:
                    6b:c3:77:20:d4:fe:ba:77:15:f3:11:65:10:22:41:
                    24:c2:dd:6f:50:de:c1:75:aa:e4:a8:50:6d:5a:13:
                    db:5f:b5:9b:7d:cb:50:aa:8a:2c:cc:fd:a4:36:83:
                    0f:24:5c:98:96:59:11:62:ad:12:28:4f:e8:47:6d:
                    3d:8c:a3:4c:17:e7:64:6d:be:c1:c6:0a:b2:64:a9:
                    c6:76:52:14:5e:1f:1a:3f:96:5b:eb:4b:f5:2a:6e:
                    33:8f:60:4f:d4:69:17:cf:87:10:79:f4:e0:92:f9:
                    91:2d:ba:8b:b4:97:3d:22:fd:15:ef:d6:1e:6a:88:
                    5a:a9:98:f6:ba:a5:9c:da:34:45:bd:ff:e2:cf:7a:
                    eb:01:2b:0c:a6:11:f6:3b:36:a9:92:75:60:19:ad:
                    d4:16:65:56:48:24:91:41:2c:bd:52:df:27:f3:b6:
                    5f:1d:a6:2a:20:78:99:6f:f5:8f:c5:02:84:89:c0:
                    70:ce:ca:c4:9e:86:7a:80:7d:75:99:a1:08:ea:8b:
                    a6:6c:10:d6:ae:90:2d:82:37:e7:00:2a:4d:48:f7:
                    73:96:4b:4b:a6:4a:1d:a5:d4:47:28:99:bc:04:64:
                    ec:be:84:7b:18:0c:d1:af:db:e7:37:fa:bb:54:10:
                    01:76:fe:3c:6e:05:a6:4c:41:59:28:0c:a6:92:75:
                    80:a9:8f:5b:64:eb:68:e1:dd:cd:26:cd:ba:80:3f:
                    77:7e:bd:94:f0:25:04:f0:d1:37:c0:79:bd:0d:6e:
                    90:d5:9c:84:86:1b:fc:75:07:0f:4a:19:70:40:dc:
                    56:91:03:eb:58:f1:8b:a8:37:3e:e7:a0:f6:4d:9a:
                    7d:51:72:41:a3:aa:83:ff:fe:42:be:ce:47:a9:74:
                    52:a8:00:40:b1:b0:cf:1c:94:88:c3:3d:41:67:9d:
                    e3:1b:0b:3b:6e:4c:e7:0a:96:3e:f0:77:f5:50:ca:
                    38:d2:f7:8c:0c:21:69:7b:35:93:6d:35:25:48:75:
                    fd:e8:5e:a9:66:45:ff:f4:6b:e7:bc:5b:77:09:73:
                    f7:89:8d:40:49:c5:12:9d:7c:57:52:49:a6:1c:d9:
                    2f:cd:1c:cc:d0:9c:5a:8b:a4:42:7a:95:48:e4:e9:
                    29:91:c5:aa:83:f0:7e:93:6a:fc:72:4a:55:31:c4:
                    fb:5e:45:69:f3:78:ea:77:bf:41:b7:cc:a8:a7:bc:
                    aa:d8:8a:bf:e1:2b:94:81:d9:6a:c4:fe:84:0e:cd:
                    3e:f3:be:89:45:43:45:d8:ff:35:bf:c8:c9:a3:1f:
                    9a:30:6d:37:22:db:a3:ba:15:8b:be:c1:29:f7:c5:
                    b6:91:05
                Exponent: 65537 (0x10001)
        X509v3 extensions:
            X509v3 Basic Constraints: 
                CA:FALSE
            Netscape Comment: 
                Easy-RSA Generated Certificate
            X509v3 Subject Key Identifier: 
                DE:16:4D:47:F4:59:7D:03:CC:E3:B7:D4:76:52:7C:6B:B6:72:DB:4F
            X509v3 Authority Key Identifier: 
                keyid:12:CD:60:04:D2:A0:80:9E:70:ED:C6:99:B8:7B:2C:C6:52:FD:19:A1
                DirName:/C=US/ST=OH/L=Columbus/O=VikingVPN/OU=MyOrganizationalUnit/CN=VikingVPN CA/name=EasyRSA/emailAddress=me@myhost.mydomain
                serial:CF:35:85:EE:80:BF:2A:3E

            X509v3 Extended Key Usage: 
                TLS Web Client Authentication
            X509v3 Key Usage: 
                Digital Signature
    Signature Algorithm: md5WithRSAEncryption
         93:15:46:43:7f:22:20:53:e7:96:36:8a:b1:c7:68:58:4d:7d:
         c1:96:fa:c6:6b:4d:21:68:fc:6d:d7:f3:f3:c3:70:f7:e3:2d:
         78:a2:c3:9b:a3:db:62:ff:eb:e7:27:33:ed:cc:ff:58:09:1c:
         e8:1c:07:62:ae:91:f9:34:e0:53:3d:e4:ae:fe:1f:1d:96:ce:
         43:08:cd:84:6a:14:66:24:f3:21:a5:b9:58:73:b9:2a:ab:a4:
         7c:c3:94:47:f2:68:0d:0f:2e:12:e9:11:b9:bc:a2:a5:b9:45:
         88:b9:73:9f:3b:99:c0:e1:4b:b0:16:03:e7:44:7c:b0:fc:28:
         1f:60:c3:fb:54:3e:84:d4:01:06:b5:6f:16:fe:6f:a4:28:55:
         2d:ce:e2:58:c7:d0:21:a0:ee:ea:05:52:cc:9a:39:8c:fa:1d:
         60:9f:12:b5:98:06:ad:83:2b:d3:b5:5f:9f:3c:3f:15:53:40:
         6b:50:b0:3a:e2:e7:c6:4e:d8:cf:fe:af:92:89:89:83:bf:ee:
         e4:52:b3:23:4f:c6:6f:6a:88:da:2d:e3:4c:f7:22:ae:47:c1:
         d3:90:1b:19:6c:5e:59:83:52:b2:e0:fb:f6:1f:a8:dc:67:a0:
         39:ff:53:4d:fc:fa:f7:57:37:60:fa:2d:8a:7a:a2:08:83:5a:
         c6:0c:f2:b9:56:0b:77:e1:7b:42:07:d1:6d:1e:49:03:1d:48:
         a8:1e:84:7d:76:e0:c2:95:f9:2b:d7:3e:8b:59:a4:43:8a:59:
         8f:74:55:de:1d:de:0e:ad:41:95:23:57:2c:88:bf:08:30:20:
         2e:e1:4e:05:a6:0c:3a:e0:76:09:62:7e:34:0d:a7:59:32:57:
         d4:59:49:47:eb:32:ee:83:ea:ed:f5:58:1d:24:08:46:c2:f1:
         ff:57:6c:fb:ad:55:6b:e7:0c:b6:5a:aa:ce:a8:31:39:18:7b:
         b5:e6:46:ab:88:fc:16:6f:a5:a7:a0:74:13:4c:67:de:62:63:
         4f:32:80:86:ca:4c:73:bf:a0:e8:c7:01:66:8b:a6:51:08:fe:
         d9:b9:a2:dd:90:dc:c8:2c:12:32:73:3d:87:c7:0b:a0:cf:c3:
         79:e5:e5:25:32:98:f7:45:c5:ba:32:7a:d3:45:df:27:e1:ff:
         d8:d5:5b:2d:dd:25:51:90:62:42:68:37:b8:e2:55:61:10:ba:
         24:1b:d3:31:7b:84:5c:3a:00:6b:55:f8:45:24:b4:04:e2:d5:
         3c:ed:7c:f5:bd:35:69:82:4e:38:33:f3:a7:e4:af:8b:b4:51:
         b3:4c:03:97:9c:1e:b6:33:d4:13:4b:b9:8b:30:6f:9b:b8:af:
         e0:92:56:24:99:ae:32:95
-----BEGIN CERTIFICATE-----
MIIGrDCCBJSgAwIBAgICCAAwDQYJKoZIhvcNAQEEBQAwgawxCzAJBgNVBAYTAlVT
MQswCQYDVQQIEwJPSDERMA8GA1UEBxMIQ29sdW1idXMxEjAQBgNVBAoTCVZpa2lu
Z1ZQTjEdMBsGA1UECxMUTXlPcmdhbml6YXRpb25hbFVuaXQxFTATBgNVBAMTDFZp
a2luZ1ZQTiBDQTEQMA4GA1UEKRMHRWFzeVJTQTEhMB8GCSqGSIb3DQEJARYSbWVA
bXlob3N0Lm15ZG9tYWluMB4XDTE0MDYwNzA0MjI1MFoXDTI0MDYwNDA0MjI1MFow
HjEcMBoGA1UEAxMTQ2xpZW50MzE5Q2VydGI1YzgyMjCCAiIwDQYJKoZIhvcNAQEB
BQADggIPADCCAgoCggIBAMeSii8d0Qnhir+itgtja8N3INT+uncV8xFlECJBJMLd
b1DewXWq5KhQbVoT21+1m33LUKqKLMz9pDaDDyRcmJZZEWKtEihP6EdtPYyjTBfn
ZG2+wcYKsmSpxnZSFF4fGj+WW+tL9SpuM49gT9RpF8+HEHn04JL5kS26i7SXPSL9
Fe/WHmqIWqmY9rqlnNo0Rb3/4s966wErDKYR9js2qZJ1YBmt1BZlVkgkkUEsvVLf
J/O2Xx2mKiB4mW/1j8UChInAcM7KxJ6GeoB9dZmhCOqLpmwQ1q6QLYI35wAqTUj3
c5ZLS6ZKHaXURyiZvARk7L6EexgM0a/b5zf6u1QQAXb+PG4FpkxBWSgMppJ1gKmP
W2TraOHdzSbNuoA/d369lPAlBPDRN8B5vQ1ukNWchIYb/HUHD0oZcEDcVpED61jx
i6g3Pueg9k2afVFyQaOqg//+Qr7OR6l0UqgAQLGwzxyUiMM9QWed4xsLO25M5wqW
PvB39VDKONL3jAwhaXs1k201JUh1/eheqWZF//Rr57xbdwlz94mNQEnFEp18V1JJ
phzZL80czNCcWoukQnqVSOTpKZHFqoPwfpNq/HJKVTHE+15FafN46ne/QbfMqKe8
qtiKv+ErlIHZasT+hA7NPvO+iUVDRdj/Nb/IyaMfmjBtNyLbo7oVi77BKffFtpEF
AgMBAAGjggFjMIIBXzAJBgNVHRMEAjAAMC0GCWCGSAGG+EIBDQQgFh5FYXN5LVJT
QSBHZW5lcmF0ZWQgQ2VydGlmaWNhdGUwHQYDVR0OBBYEFN4WTUf0WX0DzOO31HZS
fGu2cttPMIHhBgNVHSMEgdkwgdaAFBLNYATSoICecO3Gmbh7LMZS/RmhoYGypIGv
MIGsMQswCQYDVQQGEwJVUzELMAkGA1UECBMCT0gxETAPBgNVBAcTCENvbHVtYnVz
MRIwEAYDVQQKEwlWaWtpbmdWUE4xHTAbBgNVBAsTFE15T3JnYW5pemF0aW9uYWxV
bml0MRUwEwYDVQQDEwxWaWtpbmdWUE4gQ0ExEDAOBgNVBCkTB0Vhc3lSU0ExITAf
BgkqhkiG9w0BCQEWEm1lQG15aG9zdC5teWRvbWFpboIJAM81he6Avyo+MBMGA1Ud
JQQMMAoGCCsGAQUFBwMCMAsGA1UdDwQEAwIHgDANBgkqhkiG9w0BAQQFAAOCAgEA
kxVGQ38iIFPnljaKscdoWE19wZb6xmtNIWj8bdfz88Nw9+MteKLDm6PbYv/r5ycz
7cz/WAkc6BwHYq6R+TTgUz3krv4fHZbOQwjNhGoUZiTzIaW5WHO5KqukfMOUR/Jo
DQ8uEukRubyipblFiLlznzuZwOFLsBYD50R8sPwoH2DD+1Q+hNQBBrVvFv5vpChV
Lc7iWMfQIaDu6gVSzJo5jPodYJ8StZgGrYMr07Vfnzw/FVNAa1CwOuLnxk7Yz/6v
komJg7/u5FKzI0/Gb2qI2i3jTPcirkfB05AbGWxeWYNSsuD79h+o3GegOf9TTfz6
91c3YPotinqiCINaxgzyuVYLd+F7QgfRbR5JAx1IqB6EfXbgwpX5K9c+i1mkQ4pZ
j3RV3h3eDq1BlSNXLIi/CDAgLuFOBaYMOuB2CWJ+NA2nWTJX1FlJR+sy7oPq7fVY
HSQIRsLx/1ds+61Va+cMtlqqzqgxORh7teZGq4j8Fm+lp6B0E0xn3mJjTzKAhspM
c7+g6McBZoumUQj+2bmi3ZDcyCwSMnM9h8cLoM/DeeXlJTKY90XFujJ600XfJ+H/
2NVbLd0lUZBiQmg3uOJVYRC6JBvTMXuEXDoAa1X4RSS0BOLVPO189b01aYJOODPz
p+Svi7RRs0wDl5wetjPUE0u5izBvm7iv4JJWJJmuMpU=
-----END CERTIFICATE-----
