Certificate:
    Data:
        Version: 3 (0x2)
        Serial Number: 2050 (0x802)
    Signature Algorithm: md5WithRSAEncryption
        Issuer: C=US, ST=OH, L=Columbus, O=VikingVPN, OU=MyOrganizationalUnit, CN=VikingVPN CA/name=EasyRSA/emailAddress=me@myhost.mydomain
        Validity
            Not Before: Jun  7 08:19:08 2014 GMT
            Not After : Jun  4 08:19:08 2024 GMT
        Subject: CN=Client715Cert0d15bb
        Subject Public Key Info:
            Public Key Algorithm: rsaEncryption
                Public-Key: (4096 bit)
                Modulus:
                    00:b3:2e:a6:d1:59:24:69:2e:7f:e0:1f:f8:7c:8a:
                    a4:f8:ef:b1:98:63:11:b4:0b:a9:6f:19:93:44:e3:
                    20:8c:29:c0:ad:e0:ba:23:6c:a1:3a:17:83:ef:37:
                    1a:fc:84:66:69:b2:c0:e0:53:98:f8:3c:b4:84:d2:
                    fd:4b:d8:a5:52:75:b2:fb:2a:5c:35:cb:32:34:96:
                    72:18:6a:c2:23:f1:ee:00:87:49:74:0a:ed:b8:00:
                    fb:90:a9:89:8b:02:40:39:89:3a:df:f9:38:e5:a0:
                    e5:46:e4:20:67:d7:8f:89:07:42:3e:5d:fc:5d:4a:
                    27:6e:f6:3b:22:07:9b:7e:2a:e9:29:c1:d8:99:e0:
                    b2:e2:87:6b:ed:e6:da:a8:cb:9a:bb:2d:de:ab:8f:
                    74:b4:0e:90:0c:64:57:1d:db:2a:63:e7:69:fd:37:
                    cd:54:a5:50:17:f1:a1:69:39:6b:9d:af:bf:26:9f:
                    74:ee:64:1e:98:8c:78:4f:dc:93:00:16:bd:06:49:
                    16:a4:cb:c9:ec:24:25:13:05:80:ff:8f:4d:70:0b:
                    7e:59:f8:3f:a0:e1:3e:25:e5:41:38:49:55:3d:2e:
                    7e:4b:c5:63:d3:be:54:cb:2f:65:b4:af:a9:4b:b6:
                    37:40:57:e6:1e:92:c6:e1:1e:24:a4:2f:f5:77:01:
                    dc:fc:7d:16:19:39:3c:6f:db:78:d1:33:c6:6b:d9:
                    43:5d:01:f6:d8:13:22:d2:1a:b6:7b:7c:5c:7f:a3:
                    44:ac:40:ba:8a:73:06:da:c9:2d:2a:40:3b:35:4b:
                    ac:11:64:24:33:db:4a:38:3f:e6:5f:6b:65:76:5a:
                    b8:14:14:fa:5b:bf:eb:42:ce:96:9c:c9:52:d0:2c:
                    dd:f2:f0:ba:ab:8c:b0:f7:d4:28:57:91:14:24:6f:
                    7d:97:fa:13:2f:c9:c0:39:24:5b:2b:85:86:3a:bd:
                    62:55:b7:c7:76:8e:3e:bd:d8:bb:2e:73:9f:e8:d2:
                    9c:9e:1b:84:5d:49:5b:e7:d6:bf:41:67:48:3f:f1:
                    9e:47:46:c5:84:fd:0b:40:fb:8f:40:72:43:c0:ad:
                    10:69:74:3b:0d:43:c6:a2:61:b2:67:52:d1:4f:73:
                    fe:1f:db:34:d2:71:17:1b:75:09:cf:fe:10:6f:63:
                    a2:37:06:39:b5:08:bd:96:20:85:40:2a:e6:ee:ab:
                    24:d9:2e:28:45:22:9b:5b:b1:ec:bd:7b:5e:d4:32:
                    ae:12:06:2d:80:7e:7d:18:9a:df:c0:4d:23:85:99:
                    7a:a9:12:c6:7f:3f:c0:37:68:31:a7:44:69:47:e3:
                    18:e6:d3:7e:62:c9:1f:f8:9a:06:f3:d3:c2:e0:72:
                    dd:95:b5
                Exponent: 65537 (0x10001)
        X509v3 extensions:
            X509v3 Basic Constraints: 
                CA:FALSE
            Netscape Comment: 
                Easy-RSA Generated Certificate
            X509v3 Subject Key Identifier: 
                6E:00:51:5B:C9:61:F0:51:3A:6F:6E:6F:E3:3D:AB:70:AD:9E:14:F7
            X509v3 Authority Key Identifier: 
                keyid:12:CD:60:04:D2:A0:80:9E:70:ED:C6:99:B8:7B:2C:C6:52:FD:19:A1
                DirName:/C=US/ST=OH/L=Columbus/O=VikingVPN/OU=MyOrganizationalUnit/CN=VikingVPN CA/name=EasyRSA/emailAddress=me@myhost.mydomain
                serial:CF:35:85:EE:80:BF:2A:3E

            X509v3 Extended Key Usage: 
                TLS Web Client Authentication
            X509v3 Key Usage: 
                Digital Signature
    Signature Algorithm: md5WithRSAEncryption
         77:3a:d1:49:85:9a:d7:fe:3b:11:23:fb:d7:4d:d5:f1:d5:09:
         a5:a7:07:77:06:3c:9e:40:7c:f5:f2:9d:b0:8a:a9:f8:c7:1b:
         b1:6e:59:1b:14:4b:ce:6d:09:30:3b:63:bf:7a:20:8b:f5:d8:
         b0:93:17:47:a9:e7:7b:a8:fa:16:4f:a1:d6:c0:2e:81:8b:c7:
         59:72:47:cc:2c:a7:15:b9:9e:7f:e9:b4:33:b6:9b:f7:01:fd:
         e0:aa:98:a6:ab:5d:7e:40:26:a0:18:c0:2c:76:43:23:c0:fe:
         69:75:47:db:cf:59:02:e9:05:50:e2:09:6a:52:6a:2e:65:9c:
         58:8b:e0:14:63:c5:01:9a:31:26:8c:77:a8:21:56:bf:55:4a:
         ec:78:39:f5:6b:8e:59:e6:01:2d:b5:9e:c4:1e:05:ec:82:d2:
         37:52:c3:a9:dc:77:d2:ab:c1:20:bf:bf:eb:b0:2c:74:cc:50:
         a2:22:f4:3f:44:9c:ed:db:6b:a6:1e:23:6e:42:00:0a:cb:e6:
         44:6f:4e:21:b1:35:98:25:49:a1:be:0a:75:00:f5:ce:db:0b:
         bd:8e:a5:0c:d0:3d:18:d7:f2:32:14:f3:52:e0:c2:e7:2d:8c:
         b9:b0:03:c8:f4:ec:16:60:20:d0:04:8c:a6:2d:4a:63:69:65:
         54:3c:06:40:58:2b:3f:9c:08:80:b5:59:6f:32:70:17:6f:46:
         0d:5b:12:69:6a:56:64:2d:0c:c5:ae:4b:1a:76:79:4a:dc:b6:
         53:aa:a4:bf:10:57:02:d5:e9:42:5b:3a:83:ec:2a:68:ea:c5:
         e4:9a:5a:10:7f:18:69:f5:dc:8e:5e:dc:f6:c7:e9:26:80:46:
         74:d3:f1:f6:02:2b:42:b5:14:66:01:8c:c3:9a:a0:1f:65:6b:
         45:1f:0f:cc:78:40:67:87:0f:75:f7:ec:e6:1d:1b:d2:8b:56:
         9b:19:82:6c:5f:82:83:72:10:73:c5:0d:31:71:9a:66:a7:19:
         3e:46:07:d6:9d:61:13:e4:fe:9e:58:2c:6d:2a:c4:09:06:8e:
         68:19:f2:a5:70:b2:6e:b5:c7:c3:51:9c:24:93:93:96:83:e9:
         dc:0f:66:b9:d2:75:b0:ed:81:c5:8e:04:91:97:5c:cd:d1:f1:
         92:5c:96:34:e7:b2:70:d2:54:0c:11:11:3c:bc:29:20:8e:9b:
         f5:25:20:49:42:18:9a:9d:98:c2:dc:9f:a1:7a:9a:64:cd:73:
         21:d7:86:83:1c:55:6d:81:b0:5b:d1:25:d5:b0:8e:ff:81:40:
         2d:eb:9b:68:2d:ee:7e:cf:b9:f6:65:92:13:bb:11:18:be:d2:
         7c:4c:cf:c6:f7:fe:e3:0f
-----BEGIN CERTIFICATE-----
MIIGrDCCBJSgAwIBAgICCAIwDQYJKoZIhvcNAQEEBQAwgawxCzAJBgNVBAYTAlVT
MQswCQYDVQQIEwJPSDERMA8GA1UEBxMIQ29sdW1idXMxEjAQBgNVBAoTCVZpa2lu
Z1ZQTjEdMBsGA1UECxMUTXlPcmdhbml6YXRpb25hbFVuaXQxFTATBgNVBAMTDFZp
a2luZ1ZQTiBDQTEQMA4GA1UEKRMHRWFzeVJTQTEhMB8GCSqGSIb3DQEJARYSbWVA
bXlob3N0Lm15ZG9tYWluMB4XDTE0MDYwNzA4MTkwOFoXDTI0MDYwNDA4MTkwOFow
HjEcMBoGA1UEAxMTQ2xpZW50NzE1Q2VydDBkMTViYjCCAiIwDQYJKoZIhvcNAQEB
BQADggIPADCCAgoCggIBALMuptFZJGkuf+Af+HyKpPjvsZhjEbQLqW8Zk0TjIIwp
wK3guiNsoToXg+83GvyEZmmywOBTmPg8tITS/UvYpVJ1svsqXDXLMjSWchhqwiPx
7gCHSXQK7bgA+5CpiYsCQDmJOt/5OOWg5UbkIGfXj4kHQj5d/F1KJ272OyIHm34q
6SnB2JngsuKHa+3m2qjLmrst3quPdLQOkAxkVx3bKmPnaf03zVSlUBfxoWk5a52v
vyafdO5kHpiMeE/ckwAWvQZJFqTLyewkJRMFgP+PTXALfln4P6DhPiXlQThJVT0u
fkvFY9O+VMsvZbSvqUu2N0BX5h6SxuEeJKQv9XcB3Px9Fhk5PG/beNEzxmvZQ10B
9tgTItIatnt8XH+jRKxAuopzBtrJLSpAOzVLrBFkJDPbSjg/5l9rZXZauBQU+lu/
60LOlpzJUtAs3fLwuquMsPfUKFeRFCRvfZf6Ey/JwDkkWyuFhjq9YlW3x3aOPr3Y
uy5zn+jSnJ4bhF1JW+fWv0FnSD/xnkdGxYT9C0D7j0ByQ8CtEGl0Ow1DxqJhsmdS
0U9z/h/bNNJxFxt1Cc/+EG9jojcGObUIvZYghUAq5u6rJNkuKEUim1ux7L17XtQy
rhIGLYB+fRia38BNI4WZeqkSxn8/wDdoMadEaUfjGObTfmLJH/iaBvPTwuBy3ZW1
AgMBAAGjggFjMIIBXzAJBgNVHRMEAjAAMC0GCWCGSAGG+EIBDQQgFh5FYXN5LVJT
QSBHZW5lcmF0ZWQgQ2VydGlmaWNhdGUwHQYDVR0OBBYEFG4AUVvJYfBROm9ub+M9
q3CtnhT3MIHhBgNVHSMEgdkwgdaAFBLNYATSoICecO3Gmbh7LMZS/RmhoYGypIGv
MIGsMQswCQYDVQQGEwJVUzELMAkGA1UECBMCT0gxETAPBgNVBAcTCENvbHVtYnVz
MRIwEAYDVQQKEwlWaWtpbmdWUE4xHTAbBgNVBAsTFE15T3JnYW5pemF0aW9uYWxV
bml0MRUwEwYDVQQDEwxWaWtpbmdWUE4gQ0ExEDAOBgNVBCkTB0Vhc3lSU0ExITAf
BgkqhkiG9w0BCQEWEm1lQG15aG9zdC5teWRvbWFpboIJAM81he6Avyo+MBMGA1Ud
JQQMMAoGCCsGAQUFBwMCMAsGA1UdDwQEAwIHgDANBgkqhkiG9w0BAQQFAAOCAgEA
dzrRSYWa1/47ESP7103V8dUJpacHdwY8nkB89fKdsIqp+McbsW5ZGxRLzm0JMDtj
v3ogi/XYsJMXR6nne6j6Fk+h1sAugYvHWXJHzCynFbmef+m0M7ab9wH94KqYpqtd
fkAmoBjALHZDI8D+aXVH289ZAukFUOIJalJqLmWcWIvgFGPFAZoxJox3qCFWv1VK
7Hg59WuOWeYBLbWexB4F7ILSN1LDqdx30qvBIL+/67AsdMxQoiL0P0Sc7dtrph4j
bkIACsvmRG9OIbE1mCVJob4KdQD1ztsLvY6lDNA9GNfyMhTzUuDC5y2MubADyPTs
FmAg0ASMpi1KY2llVDwGQFgrP5wIgLVZbzJwF29GDVsSaWpWZC0Mxa5LGnZ5Sty2
U6qkvxBXAtXpQls6g+wqaOrF5JpaEH8YafXcjl7c9sfpJoBGdNPx9gIrQrUUZgGM
w5qgH2VrRR8PzHhAZ4cPdffs5h0b0otWmxmCbF+Cg3IQc8UNMXGaZqcZPkYH1p1h
E+T+nlgsbSrECQaOaBnypXCybrXHw1GcJJOTloPp3A9mudJ1sO2BxY4EkZdczdHx
klyWNOeycNJUDBERPLwpII6b9SUgSUIYmp2YwtyfoXqaZM1zIdeGgxxVbYGwW9El
1bCO/4FALeubaC3ufs+59mWSE7sRGL7SfEzPxvf+4w8=
-----END CERTIFICATE-----
