Certificate:
    Data:
        Version: 3 (0x2)
        Serial Number: 2051 (0x803)
    Signature Algorithm: md5WithRSAEncryption
        Issuer: C=US, ST=OH, L=Columbus, O=VikingVPN, OU=MyOrganizationalUnit, CN=VikingVPN CA/name=EasyRSA/emailAddress=me@myhost.mydomain
        Validity
            Not Before: Jun  7 18:09:40 2014 GMT
            Not After : Jun  4 18:09:40 2024 GMT
        Subject: CN=Client470Cert7fdbc1
        Subject Public Key Info:
            Public Key Algorithm: rsaEncryption
                Public-Key: (4096 bit)
                Modulus:
                    00:a2:08:e3:39:f7:13:b4:f6:7e:e9:69:46:32:73:
                    b8:2e:2f:02:87:c3:15:90:c1:f8:0b:96:70:91:9c:
                    ff:ad:33:dc:da:b2:3d:3b:87:5b:85:cf:01:fc:a4:
                    54:fd:5f:34:42:50:71:a6:d0:0a:48:9e:6d:65:ec:
                    1b:8c:d3:5c:3d:ee:9f:35:2f:3b:37:f7:46:06:91:
                    a2:97:76:5a:e3:06:d3:04:3d:49:99:ba:05:f8:09:
                    52:3e:a9:a5:ce:27:a4:0e:de:95:a3:a8:39:46:23:
                    9a:43:c4:a9:3b:53:f5:33:dc:e9:37:c1:3d:e3:da:
                    db:49:45:3a:4d:89:a4:a8:bb:8d:e9:31:aa:a3:e4:
                    d5:e0:7e:49:9e:c4:21:33:e7:5e:14:71:15:2d:8d:
                    54:a9:bb:81:05:c4:b9:4f:93:9c:18:fa:aa:cd:98:
                    50:29:c9:dd:bd:ee:c8:f5:c4:8c:ab:76:90:2e:ad:
                    d9:cd:a8:5a:35:f7:2f:41:22:87:62:d4:0a:31:9e:
                    97:c3:9d:28:0c:4e:bc:42:f5:e1:e2:93:04:e3:42:
                    45:7a:d2:77:17:09:db:fc:0f:62:3a:6a:e9:3e:52:
                    f9:be:30:1a:99:78:7c:56:87:d8:fb:41:d9:9e:29:
                    fc:af:37:7e:b2:b7:a3:ae:ef:51:80:10:ae:82:e5:
                    83:b6:47:ec:b1:a0:12:06:26:eb:aa:4e:7e:10:ef:
                    f8:df:23:46:02:07:e3:31:20:b6:aa:22:ea:24:cb:
                    16:04:76:4e:b2:c3:10:4f:cb:d5:37:b7:bf:f0:c0:
                    c3:11:11:f8:91:57:de:3f:86:73:ae:58:b3:62:12:
                    82:2c:3f:8e:b0:31:e6:e4:c4:b0:dc:f1:d7:95:f6:
                    59:06:a1:ee:3a:c6:74:62:a0:1b:fc:18:55:96:fb:
                    06:2c:03:c7:4b:26:c2:7a:6b:e9:df:f9:ec:ec:d0:
                    44:57:ea:35:35:8b:e2:d2:81:76:8c:40:6c:27:10:
                    fd:52:b6:1a:44:80:cd:a6:34:0a:d3:53:97:0f:b3:
                    bf:ba:f0:9c:f8:fb:ed:61:f9:75:c2:05:ad:96:ec:
                    db:de:2a:1c:76:cd:74:14:ad:0a:73:b3:0e:c4:07:
                    94:65:b9:72:16:96:41:22:d4:80:42:4c:8b:c2:39:
                    d3:74:18:a3:ae:1e:7c:7d:db:6e:75:45:d1:c3:c9:
                    57:d9:cd:8f:4b:c4:fb:b9:d6:1a:9a:4f:4c:ba:87:
                    7b:61:9f:b8:09:dd:44:ae:49:9a:37:c5:ff:ad:f2:
                    d6:c4:98:85:b9:81:fa:7a:f7:05:ba:10:6a:ac:22:
                    e9:18:5c:39:9f:5d:68:c9:23:c4:a9:4e:f4:8c:f4:
                    f1:7a:a9
                Exponent: 65537 (0x10001)
        X509v3 extensions:
            X509v3 Basic Constraints: 
                CA:FALSE
            Netscape Comment: 
                Easy-RSA Generated Certificate
            X509v3 Subject Key Identifier: 
                43:61:EC:CA:22:94:2F:45:5C:78:ED:A5:50:91:6A:D8:80:20:57:AE
            X509v3 Authority Key Identifier: 
                keyid:12:CD:60:04:D2:A0:80:9E:70:ED:C6:99:B8:7B:2C:C6:52:FD:19:A1
                DirName:/C=US/ST=OH/L=Columbus/O=VikingVPN/OU=MyOrganizationalUnit/CN=VikingVPN CA/name=EasyRSA/emailAddress=me@myhost.mydomain
                serial:CF:35:85:EE:80:BF:2A:3E

            X509v3 Extended Key Usage: 
                TLS Web Client Authentication
            X509v3 Key Usage: 
                Digital Signature
    Signature Algorithm: md5WithRSAEncryption
         38:24:51:5c:dd:7d:22:d4:aa:03:33:d0:db:6c:93:c3:9b:69:
         d5:d2:b6:90:c7:11:19:eb:c8:5e:2d:b2:0d:29:1c:2c:c6:9c:
         89:18:8a:0e:3b:e1:4a:68:1f:73:0b:00:bd:6b:a3:95:30:44:
         c9:d1:75:5e:f8:9a:c8:4b:a8:26:8b:30:3c:64:dc:b0:d8:bd:
         eb:ee:05:d6:de:c0:2d:d6:e4:47:c1:44:7f:5a:a3:09:95:88:
         ea:02:90:71:7c:79:46:0c:dc:f3:3f:f3:49:36:44:eb:b5:dc:
         90:5a:3b:3a:58:b9:e1:8c:d3:80:33:c0:5e:9c:31:91:2e:89:
         6e:fb:c6:e1:26:58:d7:57:89:e4:fc:7f:05:43:49:da:6e:d7:
         c4:d0:03:ba:e2:80:0d:64:f4:3b:c3:2e:ec:3b:5a:2f:73:87:
         83:53:f0:1c:a1:78:b0:20:b9:85:4f:78:55:e8:87:19:7f:c2:
         6e:03:8b:6b:24:8c:fe:40:1b:d7:3d:48:76:4c:a5:76:f3:58:
         62:c5:7f:8d:c8:e5:50:1e:da:11:0a:1e:b8:6c:ab:e0:48:56:
         ae:9e:c4:0a:fb:16:23:00:6d:ba:32:5b:fc:d7:1e:cb:d3:4f:
         37:a2:27:2b:b8:d7:75:7c:b6:90:88:a7:f7:8a:b0:2d:56:ca:
         69:62:6e:b9:ae:33:93:7d:66:c1:51:a2:ff:14:2d:a7:aa:ff:
         9f:78:49:ac:91:73:7b:99:dd:11:62:24:d4:dc:87:86:45:a2:
         32:94:48:1d:9b:32:f6:0c:7d:71:ca:25:3f:2b:47:1b:dd:74:
         e0:73:24:9e:25:26:dc:3f:9a:29:66:1f:d5:8f:f4:b3:4e:39:
         3b:dd:f8:d6:ef:c9:3f:28:10:ad:67:bb:43:18:e7:84:0a:31:
         01:92:0f:91:4c:f3:62:52:c6:9f:da:bf:70:34:b2:c3:33:88:
         38:a0:f1:8d:09:d7:22:17:80:18:a9:04:1d:94:23:01:19:36:
         83:ee:67:bd:a7:d6:a4:04:06:54:26:77:d6:48:84:7d:0c:59:
         e2:a3:4e:7a:ac:13:01:b7:64:f8:dc:5f:73:45:bf:78:32:29:
         e5:80:72:a1:78:b4:6c:cd:68:65:83:f1:16:dc:f6:f6:46:d0:
         af:eb:7c:f8:77:22:78:a2:b0:1c:ff:3a:c5:d3:1e:c4:0d:25:
         dd:18:90:b2:97:8b:ae:12:82:2e:67:bf:12:66:84:14:28:d6:
         a9:17:f9:d7:3e:4d:3d:10:3e:a9:ac:2c:3b:0a:c2:0c:0c:97:
         7e:df:a4:47:f9:59:31:95:77:72:9b:4d:d5:12:81:f6:69:f8:
         8c:bd:d8:7b:ce:65:f6:b5
-----BEGIN CERTIFICATE-----
MIIGrDCCBJSgAwIBAgICCAMwDQYJKoZIhvcNAQEEBQAwgawxCzAJBgNVBAYTAlVT
MQswCQYDVQQIEwJPSDERMA8GA1UEBxMIQ29sdW1idXMxEjAQBgNVBAoTCVZpa2lu
Z1ZQTjEdMBsGA1UECxMUTXlPcmdhbml6YXRpb25hbFVuaXQxFTATBgNVBAMTDFZp
a2luZ1ZQTiBDQTEQMA4GA1UEKRMHRWFzeVJTQTEhMB8GCSqGSIb3DQEJARYSbWVA
bXlob3N0Lm15ZG9tYWluMB4XDTE0MDYwNzE4MDk0MFoXDTI0MDYwNDE4MDk0MFow
HjEcMBoGA1UEAxMTQ2xpZW50NDcwQ2VydDdmZGJjMTCCAiIwDQYJKoZIhvcNAQEB
BQADggIPADCCAgoCggIBAKII4zn3E7T2fulpRjJzuC4vAofDFZDB+AuWcJGc/60z
3NqyPTuHW4XPAfykVP1fNEJQcabQCkiebWXsG4zTXD3unzUvOzf3RgaRopd2WuMG
0wQ9SZm6BfgJUj6ppc4npA7elaOoOUYjmkPEqTtT9TPc6TfBPePa20lFOk2JpKi7
jekxqqPk1eB+SZ7EITPnXhRxFS2NVKm7gQXEuU+TnBj6qs2YUCnJ3b3uyPXEjKt2
kC6t2c2oWjX3L0Eih2LUCjGel8OdKAxOvEL14eKTBONCRXrSdxcJ2/wPYjpq6T5S
+b4wGpl4fFaH2PtB2Z4p/K83frK3o67vUYAQroLlg7ZH7LGgEgYm66pOfhDv+N8j
RgIH4zEgtqoi6iTLFgR2TrLDEE/L1Te3v/DAwxER+JFX3j+Gc65Ys2ISgiw/jrAx
5uTEsNzx15X2WQah7jrGdGKgG/wYVZb7BiwDx0smwnpr6d/57OzQRFfqNTWL4tKB
doxAbCcQ/VK2GkSAzaY0CtNTlw+zv7rwnPj77WH5dcIFrZbs294qHHbNdBStCnOz
DsQHlGW5chaWQSLUgEJMi8I503QYo64efH3bbnVF0cPJV9nNj0vE+7nWGppPTLqH
e2GfuAndRK5JmjfF/63y1sSYhbmB+nr3BboQaqwi6RhcOZ9daMkjxKlO9Iz08Xqp
AgMBAAGjggFjMIIBXzAJBgNVHRMEAjAAMC0GCWCGSAGG+EIBDQQgFh5FYXN5LVJT
QSBHZW5lcmF0ZWQgQ2VydGlmaWNhdGUwHQYDVR0OBBYEFENh7MoilC9FXHjtpVCR
atiAIFeuMIHhBgNVHSMEgdkwgdaAFBLNYATSoICecO3Gmbh7LMZS/RmhoYGypIGv
MIGsMQswCQYDVQQGEwJVUzELMAkGA1UECBMCT0gxETAPBgNVBAcTCENvbHVtYnVz
MRIwEAYDVQQKEwlWaWtpbmdWUE4xHTAbBgNVBAsTFE15T3JnYW5pemF0aW9uYWxV
bml0MRUwEwYDVQQDEwxWaWtpbmdWUE4gQ0ExEDAOBgNVBCkTB0Vhc3lSU0ExITAf
BgkqhkiG9w0BCQEWEm1lQG15aG9zdC5teWRvbWFpboIJAM81he6Avyo+MBMGA1Ud
JQQMMAoGCCsGAQUFBwMCMAsGA1UdDwQEAwIHgDANBgkqhkiG9w0BAQQFAAOCAgEA
OCRRXN19ItSqAzPQ22yTw5tp1dK2kMcRGevIXi2yDSkcLMaciRiKDjvhSmgfcwsA
vWujlTBEydF1XviayEuoJoswPGTcsNi96+4F1t7ALdbkR8FEf1qjCZWI6gKQcXx5
Rgzc8z/zSTZE67XckFo7Oli54YzTgDPAXpwxkS6JbvvG4SZY11eJ5Px/BUNJ2m7X
xNADuuKADWT0O8Mu7DtaL3OHg1PwHKF4sCC5hU94VeiHGX/CbgOLaySM/kAb1z1I
dkyldvNYYsV/jcjlUB7aEQoeuGyr4EhWrp7ECvsWIwBtujJb/Ncey9NPN6InK7jX
dXy2kIin94qwLVbKaWJuua4zk31mwVGi/xQtp6r/n3hJrJFze5ndEWIk1NyHhkWi
MpRIHZsy9gx9ccolPytHG9104HMkniUm3D+aKWYf1Y/0s045O9341u/JPygQrWe7
QxjnhAoxAZIPkUzzYlLGn9q/cDSywzOIOKDxjQnXIheAGKkEHZQjARk2g+5nvafW
pAQGVCZ31kiEfQxZ4qNOeqwTAbdk+Nxfc0W/eDIp5YByoXi0bM1oZYPxFtz29kbQ
r+t8+HcieKKwHP86xdMexA0l3RiQspeLrhKCLme/EmaEFCjWqRf51z5NPRA+qaws
OwrCDAyXft+kR/lZMZV3cptN1RKB9mn4jL3Ye85l9rU=
-----END CERTIFICATE-----
