Certificate:
    Data:
        Version: 3 (0x2)
        Serial Number: 2054 (0x806)
    Signature Algorithm: md5WithRSAEncryption
        Issuer: C=US, ST=OH, L=Columbus, O=VikingVPN, OU=MyOrganizationalUnit, CN=VikingVPN CA/name=EasyRSA/emailAddress=me@myhost.mydomain
        Validity
            Not Before: Jun  7 20:23:34 2014 GMT
            Not After : Jun  4 20:23:34 2024 GMT
        Subject: CN=Client712Certb142a8
        Subject Public Key Info:
            Public Key Algorithm: rsaEncryption
                Public-Key: (4096 bit)
                Modulus:
                    00:ba:a4:29:84:1b:ea:af:24:57:30:2b:97:13:ce:
                    bd:52:03:89:f5:5d:36:94:27:2a:db:68:d4:7a:bd:
                    41:52:09:a7:4d:61:ef:4a:69:0d:dc:97:de:73:0f:
                    6c:6a:47:ec:49:3c:7c:be:1e:be:5e:5f:91:62:23:
                    8b:90:0c:b1:10:7c:c0:07:bc:f7:6a:45:67:ef:67:
                    e4:ac:25:e2:78:1c:12:44:1d:10:9f:ed:5a:46:e0:
                    1c:a2:cd:cd:a7:dc:f4:6a:9b:1e:57:ed:53:a0:e0:
                    50:a7:ab:02:aa:4d:91:0a:5a:41:e9:e5:64:1c:d8:
                    7f:da:74:1f:c0:ec:13:44:06:1b:e3:29:95:d1:35:
                    6f:3b:af:62:7f:0d:fa:75:4d:0e:3d:3f:42:a5:bc:
                    1d:56:b0:12:9b:6e:82:63:4b:db:a3:be:19:d5:bc:
                    be:69:8d:4d:79:6d:01:48:e8:83:bd:90:13:25:21:
                    d1:6a:4a:4c:bf:5c:0e:35:e4:71:70:66:6a:e7:54:
                    98:2a:38:8c:21:33:47:c7:ed:89:00:6b:27:eb:90:
                    cb:54:44:f1:d8:5c:99:bf:1b:9b:39:c2:0e:aa:ab:
                    57:03:15:bb:2c:de:c3:0d:89:76:21:79:7f:5f:ab:
                    15:0b:ed:be:2b:13:3e:29:e3:ad:6e:78:6e:70:7d:
                    d6:9b:f3:bb:2c:2d:e9:34:14:f2:3d:8b:f2:e9:ba:
                    7d:5b:70:7c:d7:55:9a:59:8d:98:63:11:34:19:03:
                    91:27:dd:e0:43:8e:f4:e6:96:db:a8:ae:fa:77:61:
                    5c:7e:0d:61:95:92:95:39:4a:61:d7:6f:a0:f8:6c:
                    8c:6b:27:ed:03:9f:4c:d0:95:86:6f:a4:3b:3a:14:
                    1a:c0:34:10:4c:b2:11:7e:3e:0f:a5:42:45:6b:2f:
                    eb:6b:bb:28:9d:9c:6a:57:ba:12:54:a8:5b:5d:50:
                    c8:0a:91:f9:79:83:24:39:a7:14:da:42:8c:76:52:
                    30:52:d2:f2:5a:d2:ba:cd:73:14:42:96:02:1d:26:
                    5b:d6:1d:eb:8d:a4:d6:e9:9f:43:e8:5c:8b:6c:e6:
                    58:97:0f:18:3c:5c:76:85:46:a3:7c:e4:5d:42:60:
                    8e:a2:db:55:4e:d8:8f:3b:c7:98:9a:b6:62:1b:b2:
                    db:4b:cc:19:bb:48:80:93:0d:b0:d8:02:fb:e3:e3:
                    98:95:18:e8:a7:7e:04:25:59:22:ff:84:11:03:ab:
                    30:ad:8f:67:2d:45:cb:80:ad:20:47:aa:82:15:56:
                    55:a9:ab:f8:02:9e:fb:36:00:52:1e:09:cb:4c:75:
                    30:4e:45:48:5d:ce:55:7e:94:5a:5f:c8:9d:3e:03:
                    1b:b4:8b
                Exponent: 65537 (0x10001)
        X509v3 extensions:
            X509v3 Basic Constraints: 
                CA:FALSE
            Netscape Comment: 
                Easy-RSA Generated Certificate
            X509v3 Subject Key Identifier: 
                EB:1F:F6:58:A3:A0:21:9C:7F:C2:0E:9E:DA:1D:86:DE:05:3D:F2:54
            X509v3 Authority Key Identifier: 
                keyid:12:CD:60:04:D2:A0:80:9E:70:ED:C6:99:B8:7B:2C:C6:52:FD:19:A1
                DirName:/C=US/ST=OH/L=Columbus/O=VikingVPN/OU=MyOrganizationalUnit/CN=VikingVPN CA/name=EasyRSA/emailAddress=me@myhost.mydomain
                serial:CF:35:85:EE:80:BF:2A:3E

            X509v3 Extended Key Usage: 
                TLS Web Client Authentication
            X509v3 Key Usage: 
                Digital Signature
    Signature Algorithm: md5WithRSAEncryption
         bd:16:2f:8e:67:1f:ae:4e:71:7c:e7:49:96:56:5c:0a:8d:2d:
         34:fe:09:64:c6:99:cc:e4:1b:cd:f1:70:8f:e9:18:b1:1f:36:
         28:c4:c3:3d:d3:e5:3a:36:e4:37:3e:04:f1:22:84:30:11:5d:
         4a:af:18:01:47:08:fe:f7:be:38:8f:20:2c:89:6d:6a:af:3a:
         70:6b:36:04:59:bb:f6:18:c6:9d:97:88:4b:22:11:74:96:6a:
         6e:fd:66:53:09:01:4d:a1:1c:a4:17:b8:c1:2f:1e:72:cb:cc:
         ec:f1:ca:66:c0:fa:7c:0c:a4:54:94:f5:82:20:58:0d:47:70:
         43:e3:2a:a5:71:df:b8:aa:f2:20:fa:15:bd:29:31:1b:f6:14:
         8d:27:b3:a9:b5:27:4f:21:df:ae:27:97:af:50:54:48:1f:29:
         ce:35:43:ad:20:73:4c:f2:03:e7:1f:53:7c:85:35:98:6d:98:
         1c:2f:eb:97:a4:da:9b:1e:7e:5b:11:c0:02:c3:15:e2:fa:d0:
         ca:fa:a9:20:f6:aa:6f:2c:04:47:0a:f1:f3:a3:f9:b1:d5:30:
         fd:c0:db:9c:2d:c5:12:fb:c9:ea:2e:d5:04:01:12:21:d5:c2:
         ed:ea:a0:30:f6:44:04:19:e3:6f:e6:a1:d5:6c:03:d2:b7:da:
         45:92:7d:cf:6b:10:ad:c6:eb:05:96:04:0b:94:85:36:80:3e:
         80:b9:34:4b:8e:f7:b9:e8:22:6a:e0:38:77:9d:d0:8d:c7:f4:
         dd:d2:ab:5f:9b:1a:92:bf:8d:9e:3e:f6:ce:a4:2f:37:78:ff:
         7d:ee:00:07:41:24:f9:5a:6e:64:97:c8:a5:50:d3:2d:c6:a1:
         b0:17:e6:39:77:e8:00:e8:32:5a:60:51:86:63:00:4c:f5:f3:
         37:f3:93:42:22:46:6e:de:d2:d8:45:ec:6a:0e:99:88:bc:64:
         ed:da:fe:9e:8e:c2:3e:3d:f8:cb:aa:73:38:0e:e6:52:f1:b0:
         75:68:eb:b6:b1:32:03:ca:9a:0c:35:2f:1b:7c:5a:cd:53:33:
         bc:11:93:ac:a5:da:0b:c0:06:d9:4d:d0:75:e4:9d:2d:b2:e1:
         08:88:09:b2:76:8f:92:17:de:5e:13:7e:cb:2e:7d:e0:87:c7:
         7f:c8:1a:ec:d5:d5:84:60:33:7a:2b:d1:55:6f:0e:4c:fb:26:
         1c:63:07:02:ec:58:50:4a:31:44:7c:21:38:bd:50:a5:1b:97:
         58:b9:f7:1d:be:23:e6:46:e9:e7:72:47:48:a4:f8:83:bf:86:
         94:59:45:f6:6e:cd:15:45:a6:73:1f:d0:91:0e:0e:4e:35:43:
         54:e0:aa:31:62:18:17:66
-----BEGIN CERTIFICATE-----
MIIGrDCCBJSgAwIBAgICCAYwDQYJKoZIhvcNAQEEBQAwgawxCzAJBgNVBAYTAlVT
MQswCQYDVQQIEwJPSDERMA8GA1UEBxMIQ29sdW1idXMxEjAQBgNVBAoTCVZpa2lu
Z1ZQTjEdMBsGA1UECxMUTXlPcmdhbml6YXRpb25hbFVuaXQxFTATBgNVBAMTDFZp
a2luZ1ZQTiBDQTEQMA4GA1UEKRMHRWFzeVJTQTEhMB8GCSqGSIb3DQEJARYSbWVA
bXlob3N0Lm15ZG9tYWluMB4XDTE0MDYwNzIwMjMzNFoXDTI0MDYwNDIwMjMzNFow
HjEcMBoGA1UEAxMTQ2xpZW50NzEyQ2VydGIxNDJhODCCAiIwDQYJKoZIhvcNAQEB
BQADggIPADCCAgoCggIBALqkKYQb6q8kVzArlxPOvVIDifVdNpQnKtto1Hq9QVIJ
p01h70ppDdyX3nMPbGpH7Ek8fL4evl5fkWIji5AMsRB8wAe892pFZ+9n5Kwl4ngc
EkQdEJ/tWkbgHKLNzafc9GqbHlftU6DgUKerAqpNkQpaQenlZBzYf9p0H8DsE0QG
G+MpldE1bzuvYn8N+nVNDj0/QqW8HVawEptugmNL26O+GdW8vmmNTXltAUjog72Q
EyUh0WpKTL9cDjXkcXBmaudUmCo4jCEzR8ftiQBrJ+uQy1RE8dhcmb8bmznCDqqr
VwMVuyzeww2JdiF5f1+rFQvtvisTPinjrW54bnB91pvzuywt6TQU8j2L8um6fVtw
fNdVmlmNmGMRNBkDkSfd4EOO9OaW26iu+ndhXH4NYZWSlTlKYddvoPhsjGsn7QOf
TNCVhm+kOzoUGsA0EEyyEX4+D6VCRWsv62u7KJ2cale6ElSoW11QyAqR+XmDJDmn
FNpCjHZSMFLS8lrSus1zFEKWAh0mW9Yd642k1umfQ+hci2zmWJcPGDxcdoVGo3zk
XUJgjqLbVU7YjzvHmJq2Yhuy20vMGbtIgJMNsNgC++PjmJUY6Kd+BCVZIv+EEQOr
MK2PZy1Fy4CtIEeqghVWVamr+AKe+zYAUh4Jy0x1ME5FSF3OVX6UWl/InT4DG7SL
AgMBAAGjggFjMIIBXzAJBgNVHRMEAjAAMC0GCWCGSAGG+EIBDQQgFh5FYXN5LVJT
QSBHZW5lcmF0ZWQgQ2VydGlmaWNhdGUwHQYDVR0OBBYEFOsf9lijoCGcf8IOntod
ht4FPfJUMIHhBgNVHSMEgdkwgdaAFBLNYATSoICecO3Gmbh7LMZS/RmhoYGypIGv
MIGsMQswCQYDVQQGEwJVUzELMAkGA1UECBMCT0gxETAPBgNVBAcTCENvbHVtYnVz
MRIwEAYDVQQKEwlWaWtpbmdWUE4xHTAbBgNVBAsTFE15T3JnYW5pemF0aW9uYWxV
bml0MRUwEwYDVQQDEwxWaWtpbmdWUE4gQ0ExEDAOBgNVBCkTB0Vhc3lSU0ExITAf
BgkqhkiG9w0BCQEWEm1lQG15aG9zdC5teWRvbWFpboIJAM81he6Avyo+MBMGA1Ud
JQQMMAoGCCsGAQUFBwMCMAsGA1UdDwQEAwIHgDANBgkqhkiG9w0BAQQFAAOCAgEA
vRYvjmcfrk5xfOdJllZcCo0tNP4JZMaZzOQbzfFwj+kYsR82KMTDPdPlOjbkNz4E
8SKEMBFdSq8YAUcI/ve+OI8gLIltaq86cGs2BFm79hjGnZeISyIRdJZqbv1mUwkB
TaEcpBe4wS8ecsvM7PHKZsD6fAykVJT1giBYDUdwQ+MqpXHfuKryIPoVvSkxG/YU
jSezqbUnTyHfrieXr1BUSB8pzjVDrSBzTPID5x9TfIU1mG2YHC/rl6Tamx5+WxHA
AsMV4vrQyvqpIPaqbywERwrx86P5sdUw/cDbnC3FEvvJ6i7VBAESIdXC7eqgMPZE
BBnjb+ah1WwD0rfaRZJ9z2sQrcbrBZYEC5SFNoA+gLk0S473uegiauA4d53Qjcf0
3dKrX5sakr+Nnj72zqQvN3j/fe4AB0Ek+VpuZJfIpVDTLcahsBfmOXfoAOgyWmBR
hmMATPXzN/OTQiJGbt7S2EXsag6ZiLxk7dr+no7CPj34y6pzOA7mUvGwdWjrtrEy
A8qaDDUvG3xazVMzvBGTrKXaC8AG2U3QdeSdLbLhCIgJsnaPkhfeXhN+yy594IfH
f8ga7NXVhGAzeivRVW8OTPsmHGMHAuxYUEoxRHwhOL1QpRuXWLn3Hb4j5kbp53JH
SKT4g7+GlFlF9m7NFUWmcx/QkQ4OTjVDVOCqMWIYF2Y=
-----END CERTIFICATE-----
