Certificate:
    Data:
        Version: 3 (0x2)
        Serial Number: 2069 (0x815)
    Signature Algorithm: md5WithRSAEncryption
        Issuer: C=US, ST=OH, L=Columbus, O=VikingVPN, OU=MyOrganizationalUnit, CN=VikingVPN CA/name=EasyRSA/emailAddress=me@myhost.mydomain
        Validity
            Not Before: Jun 11 08:27:00 2014 GMT
            Not After : Jun  8 08:27:00 2024 GMT
        Subject: CN=Client720Cert7b0657
        Subject Public Key Info:
            Public Key Algorithm: rsaEncryption
                Public-Key: (4096 bit)
                Modulus:
                    00:a4:00:4d:6f:c6:6c:1a:b3:07:fd:bf:fd:c2:56:
                    63:96:01:34:5c:f2:51:76:4d:fa:d6:fc:9d:09:bd:
                    f5:a9:8e:13:3b:8f:46:a2:43:c7:93:1c:ce:24:ec:
                    a1:91:d3:04:3d:94:6c:d7:f6:30:3b:1d:78:66:8e:
                    73:26:d7:75:65:ee:bc:da:86:61:8c:21:b5:38:89:
                    47:39:70:0a:12:39:49:64:83:ed:11:ea:f9:11:05:
                    7e:ba:39:a1:dc:7e:4a:45:ab:bc:42:d4:51:2f:d0:
                    4e:7d:e1:ae:34:a6:1e:32:9f:b2:13:d6:8e:36:d8:
                    79:94:36:54:3d:76:f5:58:85:81:b1:8c:d3:cb:b7:
                    b2:29:d1:e1:06:08:92:64:b8:b5:b1:9a:eb:c0:cc:
                    a7:8a:0d:0c:f2:25:76:40:8a:a4:6b:f2:f2:7a:c7:
                    6c:0f:6e:0f:1f:ef:51:87:e9:57:21:d4:91:6b:d2:
                    08:5c:26:aa:6a:f7:4d:a6:42:38:d4:01:6a:c2:07:
                    f9:6b:6c:92:59:47:ad:c9:ed:9e:c3:20:a4:44:68:
                    bd:06:1a:1c:d9:82:be:84:52:41:92:5c:13:56:ef:
                    3e:7b:7a:47:31:83:02:63:22:b7:85:d4:74:0e:a0:
                    69:4e:c2:27:be:64:dc:a2:ec:df:0a:cd:37:ef:83:
                    72:05:d8:20:01:c5:f6:d7:4b:6e:4a:15:05:be:89:
                    18:5e:0f:0a:6e:99:b3:f1:60:e6:77:24:2c:10:9e:
                    16:25:0e:02:0c:f6:c0:87:a6:68:da:f7:8f:27:a7:
                    a0:f7:da:6d:7f:17:5f:f9:97:54:3c:50:23:92:9e:
                    21:38:59:89:50:4f:c1:fd:37:b0:cc:ea:96:55:f1:
                    a7:f8:11:c4:27:9f:de:e4:e5:b3:30:9c:54:d8:ec:
                    79:bd:a2:45:45:78:16:5d:cc:4e:8e:88:b9:ab:1b:
                    42:e4:5b:cf:f8:b6:22:5a:d7:62:70:33:d9:27:f0:
                    3b:81:ad:64:b9:97:7a:4e:ea:4e:a4:19:a5:80:cf:
                    02:cf:b4:9b:47:b3:9b:b6:19:f0:8b:45:84:d0:2f:
                    f8:e3:54:1c:a0:46:68:f9:27:9a:20:cf:da:b4:c7:
                    03:74:c8:21:e4:11:46:03:c5:44:c5:37:11:33:ff:
                    16:e7:b2:bb:e0:ec:f6:15:95:ea:00:8e:24:21:01:
                    91:51:2c:f2:01:7a:e9:64:1b:4f:3c:f2:db:35:94:
                    e4:cc:25:b7:1c:8b:03:ee:c7:31:98:57:57:61:cf:
                    e4:0a:96:f5:89:a3:fa:73:d1:51:47:1b:8a:ea:28:
                    40:b2:fc:de:71:96:1d:0c:b6:c3:ad:59:e8:cf:43:
                    fa:62:79
                Exponent: 65537 (0x10001)
        X509v3 extensions:
            X509v3 Basic Constraints: 
                CA:FALSE
            Netscape Comment: 
                Easy-RSA Generated Certificate
            X509v3 Subject Key Identifier: 
                9B:55:1A:85:4A:EC:E6:0B:BA:67:21:70:74:26:09:82:33:E8:63:10
            X509v3 Authority Key Identifier: 
                keyid:12:CD:60:04:D2:A0:80:9E:70:ED:C6:99:B8:7B:2C:C6:52:FD:19:A1
                DirName:/C=US/ST=OH/L=Columbus/O=VikingVPN/OU=MyOrganizationalUnit/CN=VikingVPN CA/name=EasyRSA/emailAddress=me@myhost.mydomain
                serial:CF:35:85:EE:80:BF:2A:3E

            X509v3 Extended Key Usage: 
                TLS Web Client Authentication
            X509v3 Key Usage: 
                Digital Signature
    Signature Algorithm: md5WithRSAEncryption
         4b:b2:99:dc:b2:4a:58:63:0d:8d:b2:99:f4:49:b0:61:d8:e3:
         17:63:f5:04:d5:ce:fe:c6:be:8d:89:c9:7c:66:f8:67:f7:54:
         68:91:f8:bf:a1:c4:67:de:ef:fc:80:cd:99:6f:fc:2f:7c:0d:
         8a:66:7b:b6:0b:df:a1:5b:a0:1a:b5:ed:4e:4b:60:a4:45:0c:
         0b:0f:19:f5:c2:8a:44:3e:8d:27:da:50:98:82:c8:22:73:69:
         33:f9:6d:a4:57:e1:6e:03:c3:b3:21:c3:76:46:9b:82:46:f6:
         17:0f:de:45:cc:66:02:26:e8:a2:a8:ca:3e:be:05:e5:eb:af:
         03:9b:83:b5:b1:2d:c6:7d:59:ee:2e:fe:d5:07:8d:0c:5a:ea:
         5c:6b:3f:83:fc:9e:a0:77:f9:d4:3f:fe:0a:44:c3:d7:08:af:
         9d:46:a0:73:78:05:7a:d2:ae:86:43:8e:4d:55:30:25:1c:7b:
         81:c3:e8:7d:41:65:c4:61:ec:b5:54:8f:3a:54:8e:bc:af:53:
         be:76:be:3c:0d:19:50:53:bc:cf:87:e0:ac:1f:3f:ad:b9:1e:
         ec:cf:cc:1b:cf:b1:4c:aa:3b:cf:d9:fb:48:67:81:37:16:9b:
         f9:45:5e:3d:71:bd:1c:34:10:48:fc:2c:98:db:b3:36:a3:a0:
         87:1a:8b:b9:fc:e7:15:dc:29:f6:ae:e2:2c:d7:8e:97:33:71:
         2b:52:5b:fe:0f:7c:50:32:11:63:26:1f:d5:22:86:51:e4:83:
         aa:36:67:b3:fb:c8:40:3b:4e:bd:bb:68:09:96:6a:e3:4e:43:
         9c:1a:af:97:74:44:9f:f1:6b:a9:e0:12:d2:f5:36:9d:6c:54:
         ac:18:a3:27:9c:65:78:42:2a:c9:34:75:08:69:d1:8d:69:54:
         60:95:2d:a1:6e:c1:68:57:90:43:ea:33:f6:d6:e8:6e:f0:b9:
         2d:00:8f:86:e3:04:d2:e1:26:a4:50:b7:91:c6:0b:f8:a1:28:
         d4:09:77:e2:9a:7c:5f:a3:7b:d6:4e:0f:f4:9c:bd:44:f6:cd:
         39:e6:c6:a6:ae:72:ee:9d:15:c0:f5:4b:c8:f0:90:e8:52:b3:
         83:2e:eb:50:8d:e7:6e:4c:23:35:60:75:89:46:4e:19:66:81:
         b4:e4:c5:8a:da:3c:a7:5a:a9:63:2e:15:b7:8d:d5:55:f7:85:
         1c:28:49:c6:96:05:81:96:f5:48:b5:6e:d0:7b:c1:c1:cb:af:
         65:f1:f9:5d:57:fe:25:c3:79:7a:b3:00:19:18:87:b5:20:13:
         f7:aa:a2:91:d6:19:0a:64:ad:8b:12:a7:41:c8:4b:74:28:8a:
         c7:62:e3:c2:d5:1e:41:4d
-----BEGIN CERTIFICATE-----
MIIGrDCCBJSgAwIBAgICCBUwDQYJKoZIhvcNAQEEBQAwgawxCzAJBgNVBAYTAlVT
MQswCQYDVQQIEwJPSDERMA8GA1UEBxMIQ29sdW1idXMxEjAQBgNVBAoTCVZpa2lu
Z1ZQTjEdMBsGA1UECxMUTXlPcmdhbml6YXRpb25hbFVuaXQxFTATBgNVBAMTDFZp
a2luZ1ZQTiBDQTEQMA4GA1UEKRMHRWFzeVJTQTEhMB8GCSqGSIb3DQEJARYSbWVA
bXlob3N0Lm15ZG9tYWluMB4XDTE0MDYxMTA4MjcwMFoXDTI0MDYwODA4MjcwMFow
HjEcMBoGA1UEAxMTQ2xpZW50NzIwQ2VydDdiMDY1NzCCAiIwDQYJKoZIhvcNAQEB
BQADggIPADCCAgoCggIBAKQATW/GbBqzB/2//cJWY5YBNFzyUXZN+tb8nQm99amO
EzuPRqJDx5McziTsoZHTBD2UbNf2MDsdeGaOcybXdWXuvNqGYYwhtTiJRzlwChI5
SWSD7RHq+REFfro5odx+SkWrvELUUS/QTn3hrjSmHjKfshPWjjbYeZQ2VD129ViF
gbGM08u3sinR4QYIkmS4tbGa68DMp4oNDPIldkCKpGvy8nrHbA9uDx/vUYfpVyHU
kWvSCFwmqmr3TaZCONQBasIH+WtskllHrcntnsMgpERovQYaHNmCvoRSQZJcE1bv
Pnt6RzGDAmMit4XUdA6gaU7CJ75k3KLs3wrNN++DcgXYIAHF9tdLbkoVBb6JGF4P
Cm6Zs/Fg5nckLBCeFiUOAgz2wIemaNr3jyenoPfabX8XX/mXVDxQI5KeIThZiVBP
wf03sMzqllXxp/gRxCef3uTlszCcVNjseb2iRUV4Fl3MTo6IuasbQuRbz/i2IlrX
YnAz2SfwO4GtZLmXek7qTqQZpYDPAs+0m0ezm7YZ8ItFhNAv+ONUHKBGaPknmiDP
2rTHA3TIIeQRRgPFRMU3ETP/Fueyu+Ds9hWV6gCOJCEBkVEs8gF66WQbTzzy2zWU
5MwltxyLA+7HMZhXV2HP5AqW9Ymj+nPRUUcbiuooQLL83nGWHQy2w61Z6M9D+mJ5
AgMBAAGjggFjMIIBXzAJBgNVHRMEAjAAMC0GCWCGSAGG+EIBDQQgFh5FYXN5LVJT
QSBHZW5lcmF0ZWQgQ2VydGlmaWNhdGUwHQYDVR0OBBYEFJtVGoVK7OYLumchcHQm
CYIz6GMQMIHhBgNVHSMEgdkwgdaAFBLNYATSoICecO3Gmbh7LMZS/RmhoYGypIGv
MIGsMQswCQYDVQQGEwJVUzELMAkGA1UECBMCT0gxETAPBgNVBAcTCENvbHVtYnVz
MRIwEAYDVQQKEwlWaWtpbmdWUE4xHTAbBgNVBAsTFE15T3JnYW5pemF0aW9uYWxV
bml0MRUwEwYDVQQDEwxWaWtpbmdWUE4gQ0ExEDAOBgNVBCkTB0Vhc3lSU0ExITAf
BgkqhkiG9w0BCQEWEm1lQG15aG9zdC5teWRvbWFpboIJAM81he6Avyo+MBMGA1Ud
JQQMMAoGCCsGAQUFBwMCMAsGA1UdDwQEAwIHgDANBgkqhkiG9w0BAQQFAAOCAgEA
S7KZ3LJKWGMNjbKZ9EmwYdjjF2P1BNXO/sa+jYnJfGb4Z/dUaJH4v6HEZ97v/IDN
mW/8L3wNimZ7tgvfoVugGrXtTktgpEUMCw8Z9cKKRD6NJ9pQmILIInNpM/ltpFfh
bgPDsyHDdkabgkb2Fw/eRcxmAibooqjKPr4F5euvA5uDtbEtxn1Z7i7+1QeNDFrq
XGs/g/yeoHf51D/+CkTD1wivnUagc3gFetKuhkOOTVUwJRx7gcPofUFlxGHstVSP
OlSOvK9Tvna+PA0ZUFO8z4fgrB8/rbke7M/MG8+xTKo7z9n7SGeBNxab+UVePXG9
HDQQSPwsmNuzNqOghxqLufznFdwp9q7iLNeOlzNxK1Jb/g98UDIRYyYf1SKGUeSD
qjZns/vIQDtOvbtoCZZq405DnBqvl3REn/FrqeAS0vU2nWxUrBijJ5xleEIqyTR1
CGnRjWlUYJUtoW7BaFeQQ+oz9tbobvC5LQCPhuME0uEmpFC3kcYL+KEo1Al34pp8
X6N71k4P9Jy9RPbNOebGpq5y7p0VwPVLyPCQ6FKzgy7rUI3nbkwjNWB1iUZOGWaB
tOTFito8p1qpYy4Vt43VVfeFHChJxpYFgZb1SLVu0HvBwcuvZfH5XVf+JcN5erMA
GRiHtSAT96qikdYZCmStixKnQchLdCiKx2LjwtUeQU0=
-----END CERTIFICATE-----
