Certificate:
    Data:
        Version: 3 (0x2)
        Serial Number: 2085 (0x825)
    Signature Algorithm: md5WithRSAEncryption
        Issuer: C=US, ST=OH, L=Columbus, O=VikingVPN, OU=MyOrganizationalUnit, CN=VikingVPN CA/name=EasyRSA/emailAddress=me@myhost.mydomain
        Validity
            Not Before: Jun 13 16:18:14 2014 GMT
            Not After : Jun 10 16:18:14 2024 GMT
        Subject: CN=Client545Cert48fe70
        Subject Public Key Info:
            Public Key Algorithm: rsaEncryption
                Public-Key: (4096 bit)
                Modulus:
                    00:c0:88:b9:94:0e:fe:52:c9:e4:0f:70:e2:37:db:
                    08:df:de:12:39:bc:b1:09:8a:da:2e:dd:00:8c:d6:
                    20:cc:79:59:cd:4e:2a:fc:14:f1:f8:38:bd:c2:ff:
                    c6:f3:73:b7:30:91:dd:6e:68:4a:fc:bf:f0:09:31:
                    07:8c:17:79:1d:44:b4:d8:9b:8a:9e:d5:51:ca:e4:
                    c6:65:ab:85:a5:8f:66:eb:35:d4:08:f3:c7:96:0a:
                    e3:0e:b2:34:f7:b8:da:e9:eb:83:11:68:43:e8:c1:
                    da:0f:30:e2:51:a9:81:e6:69:d2:37:90:40:83:69:
                    3a:ef:e2:dc:73:43:f7:62:e3:d9:5c:44:94:2d:36:
                    2a:75:52:7c:82:f0:03:74:7b:68:6b:63:f3:e6:b8:
                    ce:54:ae:d6:07:13:ad:e0:a1:91:19:38:b7:4c:b7:
                    85:df:e2:8d:67:65:c3:d0:e4:3d:37:6c:10:37:47:
                    97:86:39:e4:97:af:28:05:25:7e:33:3f:ec:ac:a1:
                    4b:c0:51:b8:98:41:4f:c2:68:7e:a9:c0:39:8e:60:
                    00:f5:25:20:82:fe:1b:73:37:aa:f0:96:d6:74:4d:
                    13:78:af:65:9e:da:03:3a:95:89:d6:fd:ec:73:e9:
                    f3:d3:a0:0d:47:f4:37:a7:59:9c:3e:8a:6f:c5:c8:
                    68:6b:78:87:bf:70:d5:16:f8:85:92:fb:3b:59:a5:
                    ee:04:2b:43:cf:fc:0f:ea:ce:8f:24:cb:f7:28:bc:
                    88:73:19:d3:95:59:ae:d1:54:61:b5:8a:b6:df:59:
                    0f:bb:6b:f1:60:d0:b6:8e:bf:a1:51:6f:af:34:31:
                    11:58:78:12:60:21:53:99:c5:39:9c:da:02:cc:3e:
                    ae:cf:4c:77:65:cf:30:93:5a:20:96:33:bb:b3:3f:
                    83:d0:b1:96:1f:f0:21:6a:03:97:46:d1:84:36:2a:
                    57:1a:b7:17:b0:79:e4:26:c2:1d:a4:24:52:5d:91:
                    67:f1:5a:0f:f7:57:69:06:46:37:fc:51:2b:07:cd:
                    5f:06:fd:5f:1f:a7:2a:24:5a:1e:0f:a4:a7:97:f7:
                    c3:cd:9c:bf:c3:5c:a4:1b:d6:d2:61:7b:f5:ed:22:
                    95:aa:0a:13:3f:08:a2:5b:98:49:28:42:47:63:d1:
                    96:39:39:0a:64:34:cc:7c:03:4f:ee:4c:2a:45:00:
                    6f:51:26:a6:1f:2a:87:57:7b:24:c9:1a:5f:67:49:
                    e4:b5:85:13:7f:8e:31:e5:c4:8a:69:d6:a8:ba:4a:
                    65:e5:1f:a0:53:9d:cf:a9:9f:40:08:33:1a:a6:a6:
                    cd:a0:a2:04:d1:23:1f:7c:72:0e:1d:36:f0:1e:f8:
                    6c:f7:4b
                Exponent: 65537 (0x10001)
        X509v3 extensions:
            X509v3 Basic Constraints: 
                CA:FALSE
            Netscape Comment: 
                Easy-RSA Generated Certificate
            X509v3 Subject Key Identifier: 
                1E:2F:DB:C3:95:4C:AE:A6:90:D7:B9:13:80:E9:36:70:11:F5:B0:82
            X509v3 Authority Key Identifier: 
                keyid:12:CD:60:04:D2:A0:80:9E:70:ED:C6:99:B8:7B:2C:C6:52:FD:19:A1
                DirName:/C=US/ST=OH/L=Columbus/O=VikingVPN/OU=MyOrganizationalUnit/CN=VikingVPN CA/name=EasyRSA/emailAddress=me@myhost.mydomain
                serial:CF:35:85:EE:80:BF:2A:3E

            X509v3 Extended Key Usage: 
                TLS Web Client Authentication
            X509v3 Key Usage: 
                Digital Signature
    Signature Algorithm: md5WithRSAEncryption
         21:3d:d2:9e:a3:39:0e:00:02:da:67:48:82:41:de:65:f6:a2:
         af:d1:08:d0:f9:1c:89:4a:1c:10:0c:a5:2d:04:51:20:92:d6:
         fb:65:9b:f6:2a:00:1e:25:02:52:00:93:1a:f0:1f:04:19:10:
         a7:81:4d:3b:b0:51:25:88:13:c6:c4:bf:d6:f9:05:36:e2:0c:
         b2:e1:57:49:6b:a3:bb:fd:70:ad:f6:84:fa:c4:b0:03:84:b6:
         14:5a:84:31:03:7d:84:37:9b:dd:48:20:8e:85:6d:8b:0b:35:
         f5:79:20:42:35:c4:3a:f9:4e:f9:be:8f:23:5b:9c:07:0f:dd:
         92:2b:96:ed:9b:5f:92:97:51:4c:09:d5:c3:69:b7:c7:66:1f:
         5a:49:b2:4b:8f:e5:8d:8a:52:21:34:03:2b:6f:fb:24:b3:d0:
         b2:8d:24:0a:a8:bb:3d:1e:65:c7:80:11:bd:9d:db:82:0e:87:
         25:54:62:49:92:fc:57:91:96:69:c9:27:87:c1:55:c6:4c:e4:
         0a:47:a9:4d:95:41:9a:4d:97:63:c7:5c:6a:a1:60:40:55:05:
         59:91:d9:6e:4c:a3:1e:27:0d:aa:21:59:cb:3c:aa:72:d1:3e:
         22:81:14:e2:80:7d:8f:b6:8e:0d:cd:c0:31:d1:3d:6e:4d:77:
         b8:d3:23:ce:87:da:fc:42:f5:e9:fd:7e:93:b7:c7:5a:d7:a8:
         77:3c:da:14:10:ab:34:e5:6d:44:20:d5:b4:00:f5:70:0c:5d:
         c3:60:5a:0a:c6:85:91:f1:a9:b8:4e:2e:ff:90:8e:fe:d2:d5:
         af:a2:00:49:5e:89:7d:e9:df:29:e2:5c:a9:ba:37:8e:1f:c5:
         84:cf:5b:0f:9f:b6:06:96:2f:75:fa:82:14:fa:f9:fe:69:64:
         dd:34:10:6f:5b:51:0f:b6:d8:f8:01:99:f3:ff:4d:1e:34:ad:
         7c:0a:58:b2:03:57:b6:27:e4:f1:c9:4a:8d:ac:76:e4:ed:70:
         d6:5b:e9:08:da:ef:90:9c:02:65:f8:8f:6e:9c:31:fa:d9:fd:
         87:1c:98:93:a5:51:d1:28:87:2e:6a:ab:6b:75:84:8b:2c:6e:
         68:ca:b9:f6:4e:3d:d3:a9:b3:73:5c:a1:00:9e:25:4d:6a:d9:
         88:33:e3:ba:e0:68:37:ae:e9:20:9d:7f:71:8d:ff:e7:e0:d8:
         f2:aa:69:b8:2e:98:42:35:dc:cb:c7:5d:ee:00:33:64:ce:ad:
         d5:4e:51:d1:96:d9:ac:1d:66:47:12:3a:65:3d:e4:4e:1f:6c:
         ad:63:08:e6:0c:e8:81:56:5b:1a:15:c5:88:65:76:46:08:82:
         d0:46:04:80:ee:4f:0b:36
-----BEGIN CERTIFICATE-----
MIIGrDCCBJSgAwIBAgICCCUwDQYJKoZIhvcNAQEEBQAwgawxCzAJBgNVBAYTAlVT
MQswCQYDVQQIEwJPSDERMA8GA1UEBxMIQ29sdW1idXMxEjAQBgNVBAoTCVZpa2lu
Z1ZQTjEdMBsGA1UECxMUTXlPcmdhbml6YXRpb25hbFVuaXQxFTATBgNVBAMTDFZp
a2luZ1ZQTiBDQTEQMA4GA1UEKRMHRWFzeVJTQTEhMB8GCSqGSIb3DQEJARYSbWVA
bXlob3N0Lm15ZG9tYWluMB4XDTE0MDYxMzE2MTgxNFoXDTI0MDYxMDE2MTgxNFow
HjEcMBoGA1UEAxMTQ2xpZW50NTQ1Q2VydDQ4ZmU3MDCCAiIwDQYJKoZIhvcNAQEB
BQADggIPADCCAgoCggIBAMCIuZQO/lLJ5A9w4jfbCN/eEjm8sQmK2i7dAIzWIMx5
Wc1OKvwU8fg4vcL/xvNztzCR3W5oSvy/8AkxB4wXeR1EtNibip7VUcrkxmWrhaWP
Zus11Ajzx5YK4w6yNPe42unrgxFoQ+jB2g8w4lGpgeZp0jeQQINpOu/i3HND92Lj
2VxElC02KnVSfILwA3R7aGtj8+a4zlSu1gcTreChkRk4t0y3hd/ijWdlw9DkPTds
EDdHl4Y55JevKAUlfjM/7KyhS8BRuJhBT8JofqnAOY5gAPUlIIL+G3M3qvCW1nRN
E3ivZZ7aAzqVidb97HPp89OgDUf0N6dZnD6Kb8XIaGt4h79w1Rb4hZL7O1ml7gQr
Q8/8D+rOjyTL9yi8iHMZ05VZrtFUYbWKtt9ZD7tr8WDQto6/oVFvrzQxEVh4EmAh
U5nFOZzaAsw+rs9Md2XPMJNaIJYzu7M/g9Cxlh/wIWoDl0bRhDYqVxq3F7B55CbC
HaQkUl2RZ/FaD/dXaQZGN/xRKwfNXwb9Xx+nKiRaHg+kp5f3w82cv8NcpBvW0mF7
9e0ilaoKEz8IoluYSShCR2PRljk5CmQ0zHwDT+5MKkUAb1Emph8qh1d7JMkaX2dJ
5LWFE3+OMeXEimnWqLpKZeUfoFOdz6mfQAgzGqamzaCiBNEjH3xyDh028B74bPdL
AgMBAAGjggFjMIIBXzAJBgNVHRMEAjAAMC0GCWCGSAGG+EIBDQQgFh5FYXN5LVJT
QSBHZW5lcmF0ZWQgQ2VydGlmaWNhdGUwHQYDVR0OBBYEFB4v28OVTK6mkNe5E4Dp
NnAR9bCCMIHhBgNVHSMEgdkwgdaAFBLNYATSoICecO3Gmbh7LMZS/RmhoYGypIGv
MIGsMQswCQYDVQQGEwJVUzELMAkGA1UECBMCT0gxETAPBgNVBAcTCENvbHVtYnVz
MRIwEAYDVQQKEwlWaWtpbmdWUE4xHTAbBgNVBAsTFE15T3JnYW5pemF0aW9uYWxV
bml0MRUwEwYDVQQDEwxWaWtpbmdWUE4gQ0ExEDAOBgNVBCkTB0Vhc3lSU0ExITAf
BgkqhkiG9w0BCQEWEm1lQG15aG9zdC5teWRvbWFpboIJAM81he6Avyo+MBMGA1Ud
JQQMMAoGCCsGAQUFBwMCMAsGA1UdDwQEAwIHgDANBgkqhkiG9w0BAQQFAAOCAgEA
IT3SnqM5DgAC2mdIgkHeZfair9EI0PkciUocEAylLQRRIJLW+2Wb9ioAHiUCUgCT
GvAfBBkQp4FNO7BRJYgTxsS/1vkFNuIMsuFXSWuju/1wrfaE+sSwA4S2FFqEMQN9
hDeb3UggjoVtiws19XkgQjXEOvlO+b6PI1ucBw/dkiuW7ZtfkpdRTAnVw2m3x2Yf
WkmyS4/ljYpSITQDK2/7JLPQso0kCqi7PR5lx4ARvZ3bgg6HJVRiSZL8V5GWackn
h8FVxkzkCkepTZVBmk2XY8dcaqFgQFUFWZHZbkyjHicNqiFZyzyqctE+IoEU4oB9
j7aODc3AMdE9bk13uNMjzofa/EL16f1+k7fHWteodzzaFBCrNOVtRCDVtAD1cAxd
w2BaCsaFkfGpuE4u/5CO/tLVr6IASV6JfenfKeJcqbo3jh/FhM9bD5+2BpYvdfqC
FPr5/mlk3TQQb1tRD7bY+AGZ8/9NHjStfApYsgNXtifk8clKjax25O1w1lvpCNrv
kJwCZfiPbpwx+tn9hxyYk6VR0SiHLmqra3WEiyxuaMq59k4906mzc1yhAJ4lTWrZ
iDPjuuBoN67pIJ1/cY3/5+DY8qppuC6YQjXcy8dd7gAzZM6t1U5R0ZbZrB1mRxI6
ZT3kTh9srWMI5gzogVZbGhXFiGV2RgiC0EYEgO5PCzY=
-----END CERTIFICATE-----
