Certificate:
    Data:
        Version: 3 (0x2)
        Serial Number: 2088 (0x828)
    Signature Algorithm: md5WithRSAEncryption
        Issuer: C=US, ST=OH, L=Columbus, O=VikingVPN, OU=MyOrganizationalUnit, CN=VikingVPN CA/name=EasyRSA/emailAddress=me@myhost.mydomain
        Validity
            Not Before: Jun 14 04:39:52 2014 GMT
            Not After : Jun 11 04:39:52 2024 GMT
        Subject: CN=Client470Cert8b56f1
        Subject Public Key Info:
            Public Key Algorithm: rsaEncryption
                Public-Key: (4096 bit)
                Modulus:
                    00:bd:e8:e9:d4:83:28:36:bf:e7:b3:a3:c0:86:0d:
                    27:80:42:0c:ed:fc:8c:cf:5e:83:89:76:c2:16:5b:
                    89:38:82:b6:cf:d6:06:a1:29:e4:49:3d:9b:a8:68:
                    c0:2b:2e:cd:cf:6a:49:31:36:a6:b7:02:b2:41:3e:
                    f6:41:ec:98:f5:63:79:66:db:c9:63:c5:16:c2:14:
                    fa:06:4f:0b:a5:1f:4f:58:b7:15:da:c0:e8:35:30:
                    04:18:f1:17:c6:fe:07:ff:c3:01:6e:be:0c:74:60:
                    82:10:c1:de:40:c0:55:e9:56:2c:9c:0c:48:10:cd:
                    17:6d:47:15:af:d5:05:3a:0a:a6:af:0d:9e:b5:b4:
                    ae:22:64:f7:59:a7:75:de:e6:05:0a:62:4d:58:6e:
                    23:77:c5:0e:b3:87:5c:5c:38:8d:3c:d6:a2:fd:55:
                    3c:00:aa:21:40:d1:b5:72:37:e3:84:3f:d5:6b:fe:
                    49:af:a1:08:c7:4e:99:b0:81:48:09:77:01:46:11:
                    68:9e:a2:ba:24:d2:7b:64:7d:fb:10:37:d2:a6:e7:
                    7f:1c:c1:d2:15:60:b8:6d:2b:9a:ec:11:fb:65:d9:
                    61:72:a0:21:93:bf:50:99:33:e3:f0:5d:4a:b7:4c:
                    ce:7a:44:08:82:6c:ac:68:68:22:a2:49:8d:91:6f:
                    23:f1:87:4c:d8:ab:6e:f9:b4:47:60:df:71:88:c1:
                    ed:6e:9c:36:7a:c3:aa:cb:f2:02:f7:f1:ed:c6:b9:
                    df:8a:57:5e:55:21:7b:d6:ad:dd:31:ae:7d:c3:d9:
                    99:58:48:f2:69:40:38:21:08:11:a9:fd:7b:8b:f2:
                    2c:b4:82:cd:88:43:3d:27:d5:88:36:11:73:33:be:
                    ca:14:00:60:90:12:a9:d5:7c:c8:1a:5f:0c:42:13:
                    b9:a4:74:b7:a6:1a:7f:c0:1e:94:b4:c5:03:ca:a0:
                    52:e7:a4:c4:ed:ea:27:38:39:b2:49:9c:5f:63:3c:
                    21:4b:96:8d:b4:5c:a7:cf:4e:d9:3c:83:3b:57:bd:
                    8f:c6:76:8e:51:b4:ba:53:4d:f6:a1:8f:21:e9:1a:
                    5b:bd:7a:2f:37:20:6d:94:53:33:10:64:ef:9d:02:
                    a1:08:15:dc:88:4e:aa:7d:9a:36:71:ea:01:58:16:
                    21:0f:ac:e6:e6:72:f8:f2:60:bd:de:82:0c:04:e9:
                    ae:02:58:4b:53:33:f9:1a:3f:5d:df:2b:73:1f:c1:
                    ae:c9:68:d0:7e:39:4c:f9:30:96:a6:dc:98:56:aa:
                    d7:5b:d3:e1:b0:f8:68:ab:0a:45:6c:b4:08:b3:30:
                    f7:5e:1e:ba:92:05:69:48:5b:66:68:53:21:fb:86:
                    c7:6c:03
                Exponent: 65537 (0x10001)
        X509v3 extensions:
            X509v3 Basic Constraints: 
                CA:FALSE
            Netscape Comment: 
                Easy-RSA Generated Certificate
            X509v3 Subject Key Identifier: 
                46:FD:26:55:B6:96:75:6A:78:0E:87:B9:98:AE:19:6E:E8:CC:66:50
            X509v3 Authority Key Identifier: 
                keyid:12:CD:60:04:D2:A0:80:9E:70:ED:C6:99:B8:7B:2C:C6:52:FD:19:A1
                DirName:/C=US/ST=OH/L=Columbus/O=VikingVPN/OU=MyOrganizationalUnit/CN=VikingVPN CA/name=EasyRSA/emailAddress=me@myhost.mydomain
                serial:CF:35:85:EE:80:BF:2A:3E

            X509v3 Extended Key Usage: 
                TLS Web Client Authentication
            X509v3 Key Usage: 
                Digital Signature
    Signature Algorithm: md5WithRSAEncryption
         c1:c0:be:33:9a:bc:74:ab:f3:02:9d:d7:91:e1:92:3f:47:90:
         4e:4a:bc:d4:e6:18:68:01:39:6b:55:47:74:50:00:27:70:e2:
         41:fb:d7:c7:ed:87:10:8d:13:fb:79:43:a0:e0:4a:66:79:b5:
         ea:30:fc:da:dc:0e:3a:33:45:e1:81:c2:34:6e:da:81:84:bb:
         b3:a1:5a:45:81:84:48:d8:7b:7e:fa:7c:16:f2:2b:1c:87:f2:
         b0:cf:92:c3:83:21:2d:37:74:83:0b:70:88:eb:03:a7:bd:c8:
         d1:85:54:fc:46:40:02:c6:32:64:a5:61:46:7b:fa:ae:05:d0:
         ee:1e:e2:c0:09:a6:c6:b5:f3:83:69:ef:c0:df:d3:4c:dd:ac:
         03:6d:01:65:db:3d:e5:64:47:bc:84:4d:19:37:2f:55:56:35:
         0c:5d:84:cb:d6:29:cd:9f:59:bf:83:52:4c:8e:25:1d:7e:f2:
         bd:c2:15:99:2c:82:23:b8:0a:35:f1:f1:45:87:11:24:73:92:
         a7:64:2a:f8:a8:97:09:fb:8b:8a:5c:a3:b8:85:b1:94:87:ce:
         19:9f:73:bd:dd:16:09:31:00:82:64:66:0a:88:1c:c2:4b:8e:
         1a:dc:bf:77:6a:3b:c5:f9:18:23:df:20:ec:25:ae:b7:a4:b8:
         a6:7f:79:c5:c5:8c:3c:5e:24:ba:d6:c5:4e:8f:dd:20:8a:6f:
         bf:8d:54:05:01:9d:1b:4a:4c:96:8b:59:8b:b3:c1:27:d8:a8:
         c5:02:ed:18:c2:b3:bb:12:97:0f:a2:a6:4b:a1:25:4e:75:93:
         64:50:ba:bc:27:a7:62:17:37:ca:03:ec:0f:05:1f:20:d3:bd:
         f1:d2:7f:a8:68:f6:7c:16:91:d0:8c:27:1b:c3:7c:94:87:24:
         8c:fb:bc:7b:82:20:d7:13:10:6b:3b:36:20:b3:02:84:c6:70:
         d5:02:41:51:cf:5f:ac:b3:f7:8e:5b:f5:b1:c3:a2:d2:60:85:
         7f:cc:81:17:b7:7d:d2:22:68:f6:61:04:05:9a:49:a1:01:f1:
         d0:74:5f:1d:a6:77:e8:e4:f4:45:12:4d:8c:b9:8c:06:29:cc:
         bf:9c:0a:6f:ae:86:08:52:2f:c7:ab:7c:18:24:90:a2:cf:44:
         04:a3:a6:98:50:0d:35:bf:a8:9d:bc:6c:29:d6:e3:0d:5f:02:
         a7:ac:f9:b8:b0:65:4e:c6:a5:47:f8:58:65:a2:d0:d2:40:e1:
         be:91:e1:da:e2:e9:f5:55:09:10:95:ca:f7:a5:c4:5c:fe:7c:
         c6:7a:a5:1a:a9:1d:58:1e:5e:40:fa:53:22:51:1e:5b:a2:aa:
         22:dc:79:de:77:b2:40:d8
-----BEGIN CERTIFICATE-----
MIIGrDCCBJSgAwIBAgICCCgwDQYJKoZIhvcNAQEEBQAwgawxCzAJBgNVBAYTAlVT
MQswCQYDVQQIEwJPSDERMA8GA1UEBxMIQ29sdW1idXMxEjAQBgNVBAoTCVZpa2lu
Z1ZQTjEdMBsGA1UECxMUTXlPcmdhbml6YXRpb25hbFVuaXQxFTATBgNVBAMTDFZp
a2luZ1ZQTiBDQTEQMA4GA1UEKRMHRWFzeVJTQTEhMB8GCSqGSIb3DQEJARYSbWVA
bXlob3N0Lm15ZG9tYWluMB4XDTE0MDYxNDA0Mzk1MloXDTI0MDYxMTA0Mzk1Mlow
HjEcMBoGA1UEAxMTQ2xpZW50NDcwQ2VydDhiNTZmMTCCAiIwDQYJKoZIhvcNAQEB
BQADggIPADCCAgoCggIBAL3o6dSDKDa/57OjwIYNJ4BCDO38jM9eg4l2whZbiTiC
ts/WBqEp5Ek9m6howCsuzc9qSTE2prcCskE+9kHsmPVjeWbbyWPFFsIU+gZPC6Uf
T1i3FdrA6DUwBBjxF8b+B//DAW6+DHRgghDB3kDAVelWLJwMSBDNF21HFa/VBToK
pq8NnrW0riJk91mndd7mBQpiTVhuI3fFDrOHXFw4jTzWov1VPACqIUDRtXI344Q/
1Wv+Sa+hCMdOmbCBSAl3AUYRaJ6iuiTSe2R9+xA30qbnfxzB0hVguG0rmuwR+2XZ
YXKgIZO/UJkz4/BdSrdMznpECIJsrGhoIqJJjZFvI/GHTNirbvm0R2DfcYjB7W6c
NnrDqsvyAvfx7ca534pXXlUhe9at3TGufcPZmVhI8mlAOCEIEan9e4vyLLSCzYhD
PSfViDYRczO+yhQAYJASqdV8yBpfDEITuaR0t6Yaf8AelLTFA8qgUuekxO3qJzg5
skmcX2M8IUuWjbRcp89O2TyDO1e9j8Z2jlG0ulNN9qGPIekaW716LzcgbZRTMxBk
750CoQgV3IhOqn2aNnHqAVgWIQ+s5uZy+PJgvd6CDATprgJYS1Mz+Ro/Xd8rcx/B
rslo0H45TPkwlqbcmFaq11vT4bD4aKsKRWy0CLMw914eupIFaUhbZmhTIfuGx2wD
AgMBAAGjggFjMIIBXzAJBgNVHRMEAjAAMC0GCWCGSAGG+EIBDQQgFh5FYXN5LVJT
QSBHZW5lcmF0ZWQgQ2VydGlmaWNhdGUwHQYDVR0OBBYEFEb9JlW2lnVqeA6HuZiu
GW7ozGZQMIHhBgNVHSMEgdkwgdaAFBLNYATSoICecO3Gmbh7LMZS/RmhoYGypIGv
MIGsMQswCQYDVQQGEwJVUzELMAkGA1UECBMCT0gxETAPBgNVBAcTCENvbHVtYnVz
MRIwEAYDVQQKEwlWaWtpbmdWUE4xHTAbBgNVBAsTFE15T3JnYW5pemF0aW9uYWxV
bml0MRUwEwYDVQQDEwxWaWtpbmdWUE4gQ0ExEDAOBgNVBCkTB0Vhc3lSU0ExITAf
BgkqhkiG9w0BCQEWEm1lQG15aG9zdC5teWRvbWFpboIJAM81he6Avyo+MBMGA1Ud
JQQMMAoGCCsGAQUFBwMCMAsGA1UdDwQEAwIHgDANBgkqhkiG9w0BAQQFAAOCAgEA
wcC+M5q8dKvzAp3XkeGSP0eQTkq81OYYaAE5a1VHdFAAJ3DiQfvXx+2HEI0T+3lD
oOBKZnm16jD82twOOjNF4YHCNG7agYS7s6FaRYGESNh7fvp8FvIrHIfysM+Sw4Mh
LTd0gwtwiOsDp73I0YVU/EZAAsYyZKVhRnv6rgXQ7h7iwAmmxrXzg2nvwN/TTN2s
A20BZds95WRHvIRNGTcvVVY1DF2Ey9YpzZ9Zv4NSTI4lHX7yvcIVmSyCI7gKNfHx
RYcRJHOSp2Qq+KiXCfuLilyjuIWxlIfOGZ9zvd0WCTEAgmRmCogcwkuOGty/d2o7
xfkYI98g7CWut6S4pn95xcWMPF4kutbFTo/dIIpvv41UBQGdG0pMlotZi7PBJ9io
xQLtGMKzuxKXD6KmS6ElTnWTZFC6vCenYhc3ygPsDwUfINO98dJ/qGj2fBaR0Iwn
G8N8lIckjPu8e4Ig1xMQazs2ILMChMZw1QJBUc9frLP3jlv1scOi0mCFf8yBF7d9
0iJo9mEEBZpJoQHx0HRfHaZ36OT0RRJNjLmMBinMv5wKb66GCFIvx6t8GCSQos9E
BKOmmFANNb+onbxsKdbjDV8Cp6z5uLBlTsalR/hYZaLQ0kDhvpHh2uLp9VUJEJXK
96XEXP58xnqlGqkdWB5eQPpTIlEeW6KqItx53neyQNg=
-----END CERTIFICATE-----
