Certificate:
    Data:
        Version: 3 (0x2)
        Serial Number: 2089 (0x829)
    Signature Algorithm: md5WithRSAEncryption
        Issuer: C=US, ST=OH, L=Columbus, O=VikingVPN, OU=MyOrganizationalUnit, CN=VikingVPN CA/name=EasyRSA/emailAddress=me@myhost.mydomain
        Validity
            Not Before: Jun 14 10:27:49 2014 GMT
            Not After : Jun 11 10:27:49 2024 GMT
        Subject: CN=Client722Certdc13b6
        Subject Public Key Info:
            Public Key Algorithm: rsaEncryption
                Public-Key: (4096 bit)
                Modulus:
                    00:d7:0b:49:89:2d:21:de:26:cb:c7:63:23:87:e7:
                    16:88:e9:84:76:7e:7e:90:6c:4e:0e:b1:40:a5:b5:
                    11:01:d8:eb:dc:1b:7b:7a:aa:11:d0:cd:08:86:62:
                    2f:52:f9:2b:59:86:d5:b8:bc:57:0e:3c:55:fc:eb:
                    69:91:9a:cd:5e:7a:db:50:57:9e:b7:38:d6:92:4e:
                    ef:b7:0f:d5:c3:97:b0:8b:93:42:27:3c:22:ca:c7:
                    ec:15:8f:8f:a5:d6:b6:0e:6c:d0:12:24:22:78:78:
                    51:39:81:9c:e8:bd:bf:1b:c8:24:32:45:24:94:00:
                    33:f2:00:a0:0e:d2:cd:d6:7e:06:f3:a3:ed:c7:ef:
                    7a:27:ef:53:1d:f5:43:75:ad:fd:89:e0:97:01:3d:
                    83:ec:7a:82:08:25:dd:80:04:57:ac:f8:a2:82:d5:
                    2f:8d:38:85:d0:0e:ca:48:49:4b:00:6b:b6:a7:f0:
                    8d:10:37:28:07:67:56:b6:df:2f:03:37:93:ce:ae:
                    b2:44:50:d7:20:91:a2:a9:8b:fe:36:f8:65:19:03:
                    78:e1:5c:f3:27:27:ad:4b:38:b7:aa:21:0b:1b:e6:
                    88:6c:82:e2:78:22:29:7c:45:4b:01:dd:ec:75:1d:
                    e9:fd:c9:ed:ec:f7:6a:b5:aa:0e:99:12:d3:98:8b:
                    ab:87:37:df:b5:2f:f5:3d:06:19:92:d3:8d:9e:74:
                    fa:82:b3:df:17:df:30:a9:14:ab:26:7d:eb:58:6b:
                    c6:d7:af:4c:79:9c:c7:2c:90:aa:a3:ae:41:fc:09:
                    40:fc:a1:7f:b2:41:9d:b3:1a:b3:88:4b:20:ab:56:
                    8f:11:83:a9:76:aa:f2:25:2a:06:a4:60:18:4d:06:
                    43:a4:1e:cb:90:c7:67:6c:4f:e9:76:ce:f8:bf:75:
                    95:a6:d1:48:c0:14:10:eb:a7:f9:e0:35:23:44:05:
                    67:ce:4e:8d:b3:2e:62:50:bc:fc:4f:91:ae:1b:38:
                    6f:de:ad:a8:eb:e9:76:a6:45:31:da:33:1f:27:b1:
                    4c:84:bb:11:12:55:2a:36:70:61:06:16:2a:d3:6d:
                    be:f4:f8:5d:16:ca:80:05:d9:d3:52:b6:7d:c5:be:
                    93:7f:ae:79:ed:1a:af:7e:8c:a3:8f:86:a5:16:2d:
                    b7:39:e8:5f:5a:64:55:4c:68:6b:fe:a9:4d:26:f6:
                    05:bb:41:cf:65:c2:79:0c:62:ba:7d:1f:cb:60:8a:
                    1c:66:77:d2:2c:2f:f1:1f:b8:16:1b:cb:cd:6d:24:
                    a2:2a:f9:d2:00:b7:c1:e1:3f:d4:09:d2:7d:d8:15:
                    ec:11:c6:5a:a8:0a:71:31:bc:49:43:50:88:23:fe:
                    7d:df:e5
                Exponent: 65537 (0x10001)
        X509v3 extensions:
            X509v3 Basic Constraints: 
                CA:FALSE
            Netscape Comment: 
                Easy-RSA Generated Certificate
            X509v3 Subject Key Identifier: 
                96:1E:07:6E:D1:70:DF:A5:75:E7:88:EC:81:0A:80:AE:13:F8:AC:FA
            X509v3 Authority Key Identifier: 
                keyid:12:CD:60:04:D2:A0:80:9E:70:ED:C6:99:B8:7B:2C:C6:52:FD:19:A1
                DirName:/C=US/ST=OH/L=Columbus/O=VikingVPN/OU=MyOrganizationalUnit/CN=VikingVPN CA/name=EasyRSA/emailAddress=me@myhost.mydomain
                serial:CF:35:85:EE:80:BF:2A:3E

            X509v3 Extended Key Usage: 
                TLS Web Client Authentication
            X509v3 Key Usage: 
                Digital Signature
    Signature Algorithm: md5WithRSAEncryption
         15:a8:34:b1:52:de:1b:af:de:24:ec:f9:07:12:3d:4c:ee:92:
         13:59:8a:cf:54:53:00:59:62:73:1e:61:e1:c3:6a:3e:0e:76:
         e5:5c:01:cb:df:12:dd:eb:5f:7a:a4:19:ea:23:c1:49:db:47:
         32:37:fe:76:33:e6:3a:22:f7:0b:2e:2a:25:6f:5b:7b:3d:9b:
         ea:1b:12:cf:fd:c2:ea:75:19:1e:77:d9:51:cd:d2:5e:e5:46:
         fd:05:78:1b:5a:0a:5f:71:51:4e:bf:52:95:8e:b6:10:dc:5b:
         ea:99:0c:44:d0:03:7b:c9:bc:5f:e0:51:e8:75:50:b0:b1:94:
         28:69:af:32:d0:a0:08:cc:cd:18:5a:29:48:60:dd:7b:86:60:
         95:2e:da:54:40:1e:f1:13:69:d7:7f:44:c3:8e:25:6b:82:fc:
         2f:de:4c:89:f4:4d:00:aa:38:f0:e4:bc:6f:42:f4:ae:35:10:
         d7:84:a3:fc:54:a8:4e:2c:6f:3c:f8:95:29:dc:4f:20:c8:43:
         5c:93:41:30:b0:6a:5b:d6:76:f3:af:9b:b8:ba:49:44:94:2a:
         7a:19:a6:25:18:a2:83:17:03:78:c3:f9:be:fd:52:91:8e:9b:
         e7:15:a9:da:d1:5a:e2:6b:18:6e:6c:bb:5f:c4:4a:ba:15:1e:
         32:8a:f3:5d:41:03:3b:8a:98:83:47:53:84:bf:85:17:71:ec:
         be:c5:ce:73:92:3f:34:bf:4b:86:0b:84:6f:a5:bc:8b:b7:1c:
         c2:d1:b8:a1:cd:d7:60:6d:3d:ab:7c:97:17:bb:f6:2f:06:0a:
         0f:ff:9e:08:43:5f:4d:9d:aa:30:4f:97:25:bd:b8:2d:31:52:
         5e:d7:df:92:1d:60:fa:55:4f:8c:a7:dd:c3:6a:a6:07:19:2e:
         1a:43:f1:0e:0e:8c:eb:58:0f:cf:85:4e:62:34:98:fa:4e:13:
         b7:10:6f:38:04:e4:f3:fe:1d:60:69:58:f0:bb:7d:d4:36:e2:
         7d:9e:d0:44:89:95:e7:1c:9d:df:b6:b0:e2:00:b3:b3:3f:a4:
         cf:62:fb:aa:dd:ed:c6:f8:96:b8:bf:06:8f:f0:97:53:cd:1b:
         13:47:eb:5f:ed:4e:01:62:8c:b5:31:5d:11:04:97:6e:e9:72:
         5c:93:be:4c:6d:32:1e:89:db:7e:3d:3f:d3:25:21:55:12:d3:
         ff:f0:69:96:ad:4d:7f:d0:ed:6d:1b:21:b1:76:ea:1a:93:8a:
         14:c7:31:04:1c:de:bd:00:33:74:df:dc:02:e7:50:94:85:99:
         53:80:6c:3d:d3:ee:ee:e9:ec:1b:cb:95:fd:cd:f6:38:7b:89:
         1c:ec:8c:e4:af:fb:ca:85
-----BEGIN CERTIFICATE-----
MIIGrDCCBJSgAwIBAgICCCkwDQYJKoZIhvcNAQEEBQAwgawxCzAJBgNVBAYTAlVT
MQswCQYDVQQIEwJPSDERMA8GA1UEBxMIQ29sdW1idXMxEjAQBgNVBAoTCVZpa2lu
Z1ZQTjEdMBsGA1UECxMUTXlPcmdhbml6YXRpb25hbFVuaXQxFTATBgNVBAMTDFZp
a2luZ1ZQTiBDQTEQMA4GA1UEKRMHRWFzeVJTQTEhMB8GCSqGSIb3DQEJARYSbWVA
bXlob3N0Lm15ZG9tYWluMB4XDTE0MDYxNDEwMjc0OVoXDTI0MDYxMTEwMjc0OVow
HjEcMBoGA1UEAxMTQ2xpZW50NzIyQ2VydGRjMTNiNjCCAiIwDQYJKoZIhvcNAQEB
BQADggIPADCCAgoCggIBANcLSYktId4my8djI4fnFojphHZ+fpBsTg6xQKW1EQHY
69wbe3qqEdDNCIZiL1L5K1mG1bi8Vw48VfzraZGazV5621BXnrc41pJO77cP1cOX
sIuTQic8IsrH7BWPj6XWtg5s0BIkInh4UTmBnOi9vxvIJDJFJJQAM/IAoA7SzdZ+
BvOj7cfveifvUx31Q3Wt/YnglwE9g+x6gggl3YAEV6z4ooLVL404hdAOykhJSwBr
tqfwjRA3KAdnVrbfLwM3k86uskRQ1yCRoqmL/jb4ZRkDeOFc8ycnrUs4t6ohCxvm
iGyC4ngiKXxFSwHd7HUd6f3J7ez3arWqDpkS05iLq4c337Uv9T0GGZLTjZ50+oKz
3xffMKkUqyZ961hrxtevTHmcxyyQqqOuQfwJQPyhf7JBnbMas4hLIKtWjxGDqXaq
8iUqBqRgGE0GQ6Qey5DHZ2xP6XbO+L91labRSMAUEOun+eA1I0QFZ85OjbMuYlC8
/E+Rrhs4b96tqOvpdqZFMdozHyexTIS7ERJVKjZwYQYWKtNtvvT4XRbKgAXZ01K2
fcW+k3+uee0ar36Mo4+GpRYttznoX1pkVUxoa/6pTSb2BbtBz2XCeQxiun0fy2CK
HGZ30iwv8R+4FhvLzW0koir50gC3weE/1AnSfdgV7BHGWqgKcTG8SUNQiCP+fd/l
AgMBAAGjggFjMIIBXzAJBgNVHRMEAjAAMC0GCWCGSAGG+EIBDQQgFh5FYXN5LVJT
QSBHZW5lcmF0ZWQgQ2VydGlmaWNhdGUwHQYDVR0OBBYEFJYeB27RcN+ldeeI7IEK
gK4T+Kz6MIHhBgNVHSMEgdkwgdaAFBLNYATSoICecO3Gmbh7LMZS/RmhoYGypIGv
MIGsMQswCQYDVQQGEwJVUzELMAkGA1UECBMCT0gxETAPBgNVBAcTCENvbHVtYnVz
MRIwEAYDVQQKEwlWaWtpbmdWUE4xHTAbBgNVBAsTFE15T3JnYW5pemF0aW9uYWxV
bml0MRUwEwYDVQQDEwxWaWtpbmdWUE4gQ0ExEDAOBgNVBCkTB0Vhc3lSU0ExITAf
BgkqhkiG9w0BCQEWEm1lQG15aG9zdC5teWRvbWFpboIJAM81he6Avyo+MBMGA1Ud
JQQMMAoGCCsGAQUFBwMCMAsGA1UdDwQEAwIHgDANBgkqhkiG9w0BAQQFAAOCAgEA
Fag0sVLeG6/eJOz5BxI9TO6SE1mKz1RTAFlicx5h4cNqPg525VwBy98S3etfeqQZ
6iPBSdtHMjf+djPmOiL3Cy4qJW9bez2b6hsSz/3C6nUZHnfZUc3SXuVG/QV4G1oK
X3FRTr9SlY62ENxb6pkMRNADe8m8X+BR6HVQsLGUKGmvMtCgCMzNGFopSGDde4Zg
lS7aVEAe8RNp139Ew44la4L8L95MifRNAKo48OS8b0L0rjUQ14Sj/FSoTixvPPiV
KdxPIMhDXJNBMLBqW9Z286+buLpJRJQqehmmJRiigxcDeMP5vv1SkY6b5xWp2tFa
4msYbmy7X8RKuhUeMorzXUEDO4qYg0dThL+FF3HsvsXOc5I/NL9LhguEb6W8i7cc
wtG4oc3XYG09q3yXF7v2LwYKD/+eCENfTZ2qME+XJb24LTFSXtffkh1g+lVPjKfd
w2qmBxkuGkPxDg6M61gPz4VOYjSY+k4TtxBvOATk8/4dYGlY8Lt91DbifZ7QRImV
5xyd37aw4gCzsz+kz2L7qt3txviWuL8Gj/CXU80bE0frX+1OAWKMtTFdEQSXbuly
XJO+TG0yHonbfj0/0yUhVRLT//Bplq1Nf9DtbRshsXbqGpOKFMcxBBzevQAzdN/c
AudQlIWZU4BsPdPu7unsG8uV/c32OHuJHOyM5K/7yoU=
-----END CERTIFICATE-----
