Certificate:
    Data:
        Version: 3 (0x2)
        Serial Number: 2095 (0x82f)
    Signature Algorithm: md5WithRSAEncryption
        Issuer: C=US, ST=OH, L=Columbus, O=VikingVPN, OU=MyOrganizationalUnit, CN=VikingVPN CA/name=EasyRSA/emailAddress=me@myhost.mydomain
        Validity
            Not Before: Jun 15 09:09:47 2014 GMT
            Not After : Jun 12 09:09:47 2024 GMT
        Subject: CN=Client731Cert336295
        Subject Public Key Info:
            Public Key Algorithm: rsaEncryption
                Public-Key: (4096 bit)
                Modulus:
                    00:ea:ee:ff:2d:a6:ef:d6:a0:e4:63:33:da:b6:6a:
                    64:25:aa:a0:db:94:a6:15:41:30:1a:08:f1:ff:a3:
                    b2:df:2b:78:73:c5:ef:d4:62:78:51:f2:84:14:70:
                    7c:3b:7a:42:d3:1a:8f:93:de:a0:46:6a:d6:bd:e7:
                    b2:26:70:79:89:02:37:be:8f:74:4c:ff:e2:e3:dd:
                    4d:3c:a7:78:4d:45:04:92:83:68:b5:02:2d:f8:d2:
                    e3:0f:ef:46:8d:72:fa:2a:17:91:0b:15:34:ea:a6:
                    eb:dc:d6:17:86:98:a8:a7:c4:b2:99:73:e0:c1:3f:
                    c6:22:0e:0b:2f:fb:98:14:fb:32:2f:dd:63:a4:16:
                    10:31:2a:3e:dd:73:77:bf:de:ef:2c:88:10:66:52:
                    59:05:22:0b:3d:98:39:8e:be:16:b0:ad:80:dc:1f:
                    81:dc:eb:60:e8:4b:79:1d:e6:2c:db:5a:74:e6:5e:
                    7b:d0:fc:23:01:db:69:72:31:dc:df:07:9f:ee:24:
                    8a:a0:da:89:a6:75:b5:7f:83:77:b7:b7:69:d2:82:
                    30:e5:9b:2d:bc:ef:6c:04:70:7c:3e:5d:f5:08:c6:
                    3a:84:40:20:e9:fa:76:f5:18:95:3d:a9:61:c1:54:
                    3a:ab:17:4e:57:70:67:62:ee:6e:21:dd:75:5c:db:
                    e3:34:b7:0a:c9:46:30:e5:af:17:04:b6:eb:59:95:
                    3b:48:94:f6:76:dc:36:3c:59:e1:64:8d:fa:e6:cd:
                    fa:50:eb:51:21:7f:46:bb:82:0d:03:08:07:a5:1a:
                    28:60:03:e9:bb:e9:99:f2:a2:f0:4e:67:70:23:02:
                    b5:f1:07:b9:d0:a8:1f:53:b3:b8:02:b6:71:22:3d:
                    1d:62:dd:bc:a5:52:ca:a8:c3:31:14:4a:63:f0:1b:
                    7b:a3:dc:2c:9c:94:5e:84:08:ed:75:0b:a9:c4:71:
                    66:b7:98:4a:f1:52:10:42:48:e0:7d:2d:4b:61:0c:
                    ed:9e:39:c8:a1:b5:cc:1d:a5:b9:eb:a1:12:15:f8:
                    bc:70:25:9c:7b:e6:9c:48:1a:b7:a9:be:c1:09:68:
                    64:b4:95:3a:e4:d6:4c:44:7f:eb:5e:49:6e:56:31:
                    d0:df:99:75:fc:f9:73:af:74:f0:4f:4a:27:44:e1:
                    42:57:14:a4:5a:91:7a:9f:6b:a0:56:20:e7:57:e6:
                    a7:65:f4:da:98:d6:fb:b9:fc:7e:f0:ed:7c:ab:f6:
                    da:54:32:39:48:03:b3:e2:80:fa:ec:b8:80:66:e4:
                    a6:0d:08:a8:5f:a1:5b:a4:94:3a:0b:94:39:78:7c:
                    fd:aa:b3:73:eb:67:9e:b0:be:d8:90:d3:d9:9f:c2:
                    87:0d:df
                Exponent: 65537 (0x10001)
        X509v3 extensions:
            X509v3 Basic Constraints: 
                CA:FALSE
            Netscape Comment: 
                Easy-RSA Generated Certificate
            X509v3 Subject Key Identifier: 
                1A:F8:62:73:0B:3D:98:1F:87:76:9F:56:66:7E:72:BF:8F:0B:7C:BA
            X509v3 Authority Key Identifier: 
                keyid:12:CD:60:04:D2:A0:80:9E:70:ED:C6:99:B8:7B:2C:C6:52:FD:19:A1
                DirName:/C=US/ST=OH/L=Columbus/O=VikingVPN/OU=MyOrganizationalUnit/CN=VikingVPN CA/name=EasyRSA/emailAddress=me@myhost.mydomain
                serial:CF:35:85:EE:80:BF:2A:3E

            X509v3 Extended Key Usage: 
                TLS Web Client Authentication
            X509v3 Key Usage: 
                Digital Signature
    Signature Algorithm: md5WithRSAEncryption
         e1:2e:7a:db:f5:88:9f:e3:3e:58:31:2a:8a:14:d1:77:d5:cb:
         28:9e:9e:79:9b:36:8f:98:8c:1d:91:ca:8d:6e:88:e3:94:15:
         72:89:0d:7d:af:b9:5c:72:b7:3b:8b:d5:2d:ed:ab:38:bf:9f:
         6a:d1:51:de:ab:d8:14:98:7f:56:09:40:e6:83:03:c6:67:12:
         f7:ca:88:5e:55:29:1c:5e:2f:80:bb:be:f8:7e:3a:5a:ce:8a:
         5c:1b:65:b2:17:87:11:0a:91:5e:e6:7d:12:8c:a6:e2:43:75:
         ec:14:08:af:b4:17:3b:1a:74:e6:3e:7d:67:f4:0f:a9:84:20:
         53:46:53:1b:28:c5:83:fd:2c:d8:4c:56:7c:cd:d9:d9:98:1d:
         d4:db:71:86:49:11:2c:05:34:67:11:37:94:6d:dd:5e:fd:2f:
         a8:91:49:76:56:22:9e:bf:0e:5d:f7:b5:ac:e4:8b:59:59:e9:
         b6:f6:72:9d:9d:b2:a5:ce:8a:38:43:63:45:37:3d:21:25:a8:
         4d:f4:a2:70:17:60:e9:ec:33:aa:51:76:0a:c6:6b:89:ca:01:
         86:b2:2c:2f:c1:d2:45:ca:59:68:1f:c7:f5:60:d3:d3:65:eb:
         31:44:62:37:c3:9f:26:c5:dd:4b:23:ce:88:92:8f:19:3e:48:
         70:da:7b:2f:c7:34:af:5c:69:57:fe:cc:91:e1:14:8c:9d:91:
         18:d5:1e:a0:cf:2f:29:8b:22:dc:cd:c4:5f:c8:5c:72:d3:c9:
         e6:9d:52:ae:b6:42:85:7a:fb:57:70:4f:98:16:bb:2e:0b:c6:
         75:a9:bc:4d:8f:54:e0:08:c9:48:45:22:80:8b:80:d2:45:42:
         b3:d9:4c:d4:9a:f1:01:05:13:65:c3:2f:c3:4d:e4:75:cc:6a:
         6b:ae:c0:fe:d2:44:e2:85:fc:78:c3:48:03:b4:2e:dc:97:1e:
         4f:a0:d7:72:d5:e7:7b:10:c7:fd:2d:be:03:8e:ec:09:c0:b4:
         4e:4d:72:b6:1d:cb:b3:8e:9a:d5:4b:48:d8:53:88:67:39:6c:
         66:c2:4b:ef:61:24:fd:ac:d3:71:9d:3e:7d:c7:51:73:67:c0:
         e4:5f:00:30:2c:39:1f:18:bf:f7:e7:c7:3c:7b:8b:ed:5e:d9:
         33:8e:49:a6:04:32:04:61:5c:0b:5d:83:7d:02:d5:99:4d:b0:
         83:b1:c1:6c:4c:5c:ec:ba:22:d8:4c:c3:37:dd:46:3a:14:b4:
         88:89:f9:c4:3b:01:2a:28:8e:f8:f0:29:16:17:18:2e:0a:3f:
         16:19:43:fa:d4:62:39:ae:67:fb:76:97:93:de:dc:a1:92:c1:
         86:c5:90:c5:5f:47:70:58
-----BEGIN CERTIFICATE-----
MIIGrDCCBJSgAwIBAgICCC8wDQYJKoZIhvcNAQEEBQAwgawxCzAJBgNVBAYTAlVT
MQswCQYDVQQIEwJPSDERMA8GA1UEBxMIQ29sdW1idXMxEjAQBgNVBAoTCVZpa2lu
Z1ZQTjEdMBsGA1UECxMUTXlPcmdhbml6YXRpb25hbFVuaXQxFTATBgNVBAMTDFZp
a2luZ1ZQTiBDQTEQMA4GA1UEKRMHRWFzeVJTQTEhMB8GCSqGSIb3DQEJARYSbWVA
bXlob3N0Lm15ZG9tYWluMB4XDTE0MDYxNTA5MDk0N1oXDTI0MDYxMjA5MDk0N1ow
HjEcMBoGA1UEAxMTQ2xpZW50NzMxQ2VydDMzNjI5NTCCAiIwDQYJKoZIhvcNAQEB
BQADggIPADCCAgoCggIBAOru/y2m79ag5GMz2rZqZCWqoNuUphVBMBoI8f+jst8r
eHPF79RieFHyhBRwfDt6QtMaj5PeoEZq1r3nsiZweYkCN76PdEz/4uPdTTyneE1F
BJKDaLUCLfjS4w/vRo1y+ioXkQsVNOqm69zWF4aYqKfEsplz4ME/xiIOCy/7mBT7
Mi/dY6QWEDEqPt1zd7/e7yyIEGZSWQUiCz2YOY6+FrCtgNwfgdzrYOhLeR3mLNta
dOZee9D8IwHbaXIx3N8Hn+4kiqDaiaZ1tX+Dd7e3adKCMOWbLbzvbARwfD5d9QjG
OoRAIOn6dvUYlT2pYcFUOqsXTldwZ2LubiHddVzb4zS3CslGMOWvFwS261mVO0iU
9nbcNjxZ4WSN+ubN+lDrUSF/RruCDQMIB6UaKGAD6bvpmfKi8E5ncCMCtfEHudCo
H1OzuAK2cSI9HWLdvKVSyqjDMRRKY/Abe6PcLJyUXoQI7XULqcRxZreYSvFSEEJI
4H0tS2EM7Z45yKG1zB2lueuhEhX4vHAlnHvmnEgat6m+wQloZLSVOuTWTER/615J
blYx0N+Zdfz5c6908E9KJ0ThQlcUpFqRep9roFYg51fmp2X02pjW+7n8fvDtfKv2
2lQyOUgDs+KA+uy4gGbkpg0IqF+hW6SUOguUOXh8/aqzc+tnnrC+2JDT2Z/Chw3f
AgMBAAGjggFjMIIBXzAJBgNVHRMEAjAAMC0GCWCGSAGG+EIBDQQgFh5FYXN5LVJT
QSBHZW5lcmF0ZWQgQ2VydGlmaWNhdGUwHQYDVR0OBBYEFBr4YnMLPZgfh3afVmZ+
cr+PC3y6MIHhBgNVHSMEgdkwgdaAFBLNYATSoICecO3Gmbh7LMZS/RmhoYGypIGv
MIGsMQswCQYDVQQGEwJVUzELMAkGA1UECBMCT0gxETAPBgNVBAcTCENvbHVtYnVz
MRIwEAYDVQQKEwlWaWtpbmdWUE4xHTAbBgNVBAsTFE15T3JnYW5pemF0aW9uYWxV
bml0MRUwEwYDVQQDEwxWaWtpbmdWUE4gQ0ExEDAOBgNVBCkTB0Vhc3lSU0ExITAf
BgkqhkiG9w0BCQEWEm1lQG15aG9zdC5teWRvbWFpboIJAM81he6Avyo+MBMGA1Ud
JQQMMAoGCCsGAQUFBwMCMAsGA1UdDwQEAwIHgDANBgkqhkiG9w0BAQQFAAOCAgEA
4S562/WIn+M+WDEqihTRd9XLKJ6eeZs2j5iMHZHKjW6I45QVcokNfa+5XHK3O4vV
Le2rOL+fatFR3qvYFJh/VglA5oMDxmcS98qIXlUpHF4vgLu++H46Ws6KXBtlsheH
EQqRXuZ9Eoym4kN17BQIr7QXOxp05j59Z/QPqYQgU0ZTGyjFg/0s2ExWfM3Z2Zgd
1NtxhkkRLAU0ZxE3lG3dXv0vqJFJdlYinr8OXfe1rOSLWVnptvZynZ2ypc6KOENj
RTc9ISWoTfSicBdg6ewzqlF2CsZricoBhrIsL8HSRcpZaB/H9WDT02XrMURiN8Of
JsXdSyPOiJKPGT5IcNp7L8c0r1xpV/7MkeEUjJ2RGNUeoM8vKYsi3M3EX8hcctPJ
5p1SrrZChXr7V3BPmBa7LgvGdam8TY9U4AjJSEUigIuA0kVCs9lM1JrxAQUTZcMv
w03kdcxqa67A/tJE4oX8eMNIA7Qu3JceT6DXctXnexDH/S2+A47sCcC0Tk1yth3L
s46a1UtI2FOIZzlsZsJL72Ek/azTcZ0+fcdRc2fA5F8AMCw5Hxi/9+fHPHuL7V7Z
M45JpgQyBGFcC12DfQLVmU2wg7HBbExc7Loi2EzDN91GOhS0iIn5xDsBKiiO+PAp
FhcYLgo/FhlD+tRiOa5n+3aXk97coZLBhsWQxV9HcFg=
-----END CERTIFICATE-----
