Certificate:
    Data:
        Version: 3 (0x2)
        Serial Number: 2102 (0x836)
    Signature Algorithm: md5WithRSAEncryption
        Issuer: C=US, ST=OH, L=Columbus, O=VikingVPN, OU=MyOrganizationalUnit, CN=VikingVPN CA/name=EasyRSA/emailAddress=me@myhost.mydomain
        Validity
            Not Before: Jun 16 09:14:47 2014 GMT
            Not After : Jun 13 09:14:47 2024 GMT
        Subject: CN=Client733Certb40800
        Subject Public Key Info:
            Public Key Algorithm: rsaEncryption
                Public-Key: (4096 bit)
                Modulus:
                    00:c8:00:a6:ae:9f:ab:f1:94:84:8a:45:88:61:c6:
                    0e:38:af:0e:07:ca:e9:5f:1b:40:ee:05:2c:59:db:
                    34:0a:1e:02:b7:e2:06:f7:58:7d:4a:e3:3a:d8:e8:
                    a8:0f:e2:60:b9:e2:59:b7:eb:36:84:6c:79:9d:a0:
                    66:12:de:28:6b:47:54:45:0b:04:81:0a:62:8b:76:
                    f1:73:8f:ad:c2:cf:57:2b:f4:c1:50:5f:9f:fb:3f:
                    67:13:e7:38:64:43:84:5a:17:5d:11:e1:ac:e9:60:
                    51:c5:86:09:c7:ab:be:3c:b0:5b:ce:a0:59:06:6f:
                    6a:a5:a5:08:20:4c:83:1d:7b:a9:9b:7b:8c:9a:b4:
                    7c:3a:d5:75:40:6b:ba:63:2a:cb:ba:d2:fa:3a:2d:
                    9c:75:0b:71:c2:b9:bf:1c:5f:40:48:b7:95:36:3c:
                    9c:28:c8:eb:9a:38:dc:46:e8:0f:c3:22:1f:0b:78:
                    86:fc:81:da:7a:62:cb:07:86:a4:2d:c5:4d:64:3c:
                    46:e8:64:6d:49:cd:24:78:ff:a0:0f:29:b3:84:93:
                    b8:66:88:cd:15:d7:01:6a:de:16:c7:35:b3:f8:fe:
                    94:99:1c:80:dd:8c:5f:a5:1a:f6:f7:4e:e1:26:73:
                    3e:88:41:f9:30:a6:c9:6c:76:23:c4:ef:6c:36:40:
                    2c:3c:90:86:12:e2:c4:06:f3:6d:b9:00:2a:d1:36:
                    5d:fd:73:d1:cb:32:54:6f:58:84:e7:8b:e2:a5:24:
                    c1:07:e4:1f:d7:a6:b0:6b:2c:9e:b7:47:95:2a:51:
                    61:56:70:c6:fc:51:b6:18:28:00:c2:f5:fd:c1:49:
                    ed:a2:f6:ac:fb:27:5f:d0:c1:a3:58:03:e5:69:f3:
                    20:b4:cc:68:83:27:06:57:81:b0:c5:19:be:7f:78:
                    39:83:18:a3:3d:1a:13:30:31:31:67:fa:fe:3d:b1:
                    1a:b0:aa:19:cf:43:1a:d6:83:30:4b:73:a6:f2:af:
                    f5:94:2d:62:72:35:30:04:ec:fe:5c:2f:58:19:06:
                    bb:7c:69:52:7b:d8:f4:a9:ff:aa:31:5b:85:ae:ac:
                    a0:0f:56:8f:a6:ed:df:83:f1:43:2c:7a:93:d1:70:
                    43:74:3f:b3:70:96:86:15:99:36:15:bd:db:c9:e5:
                    6c:79:11:4b:4c:19:d1:0b:6e:ad:35:39:58:ac:2e:
                    cc:2d:10:aa:16:cb:2d:eb:13:4f:e3:9d:4f:d4:1c:
                    67:e7:93:d2:4b:42:a8:ba:c0:27:56:aa:b2:ae:ad:
                    a3:7b:c7:22:a5:9a:f9:86:d5:f9:4b:ca:50:2e:a7:
                    2d:22:d5:b9:41:66:42:18:ba:b8:18:89:7a:dc:4b:
                    db:d8:b1
                Exponent: 65537 (0x10001)
        X509v3 extensions:
            X509v3 Basic Constraints: 
                CA:FALSE
            Netscape Comment: 
                Easy-RSA Generated Certificate
            X509v3 Subject Key Identifier: 
                97:48:22:3C:90:BB:52:6D:AD:B1:D4:E3:69:88:54:C1:CE:7D:CD:14
            X509v3 Authority Key Identifier: 
                keyid:12:CD:60:04:D2:A0:80:9E:70:ED:C6:99:B8:7B:2C:C6:52:FD:19:A1
                DirName:/C=US/ST=OH/L=Columbus/O=VikingVPN/OU=MyOrganizationalUnit/CN=VikingVPN CA/name=EasyRSA/emailAddress=me@myhost.mydomain
                serial:CF:35:85:EE:80:BF:2A:3E

            X509v3 Extended Key Usage: 
                TLS Web Client Authentication
            X509v3 Key Usage: 
                Digital Signature
    Signature Algorithm: md5WithRSAEncryption
         37:d6:50:e2:86:a9:4b:7c:54:45:39:33:85:3e:0d:f6:72:51:
         70:ad:99:a6:74:df:29:84:74:d6:7b:1f:c4:3b:19:c3:07:a3:
         be:6f:5b:63:83:33:b7:19:93:28:7c:3f:27:c6:04:56:7c:3e:
         72:5b:c4:a2:eb:4f:57:10:4f:d8:b2:ab:9c:bd:dc:43:19:8f:
         24:06:e2:4c:0b:eb:11:c5:2c:22:9e:39:99:6f:4b:6a:2e:da:
         64:fd:39:35:a4:6c:24:ca:d5:78:f3:1b:75:53:2d:96:e8:eb:
         31:7b:ca:0a:76:c7:53:b7:bf:9d:6b:b8:cd:d8:2a:62:5e:19:
         65:eb:8d:5a:6c:06:1a:06:0f:19:4b:de:db:8a:89:44:18:cf:
         38:b6:d3:dd:d6:7d:78:55:72:7d:33:8f:a3:39:eb:36:5f:b6:
         2b:c9:0b:f0:3e:ae:0a:8a:ec:5b:6b:89:0a:94:76:21:4e:4f:
         fa:6f:25:56:ab:a3:34:f5:10:2c:ad:d9:ca:95:96:d0:d1:79:
         37:d6:36:c9:c7:96:dc:e3:a6:a7:a3:60:de:06:cf:ed:13:96:
         f3:8a:21:6e:ab:13:86:9a:a5:e8:7f:ef:21:f9:ac:ca:f2:fc:
         86:68:b5:4b:fe:c8:0c:98:49:a7:f3:e3:eb:79:05:c6:23:94:
         43:da:95:f2:d3:38:a7:f5:5a:e6:b1:ef:1e:ca:f0:68:e5:4b:
         20:84:c4:bf:b9:b5:9d:1a:fb:e8:03:63:60:98:1b:68:58:c2:
         c5:eb:a6:75:a5:c8:9f:fb:ea:dc:91:5d:1a:eb:e4:94:92:5e:
         ab:9c:6b:e6:8c:e9:18:1f:f8:53:a7:95:4d:8d:d8:0a:69:f1:
         e6:55:fa:17:bd:78:89:7b:16:ad:f0:81:f2:43:2b:e0:9f:ea:
         c4:8b:14:29:bd:fb:bf:28:63:65:86:2e:67:5c:d3:30:70:46:
         b6:0e:69:69:27:ab:c4:cf:c4:f4:65:00:ec:b6:bc:2e:42:e9:
         b3:80:0d:54:e8:6e:3f:0c:1f:5a:36:96:27:52:be:a4:87:be:
         2a:a6:33:fc:5b:27:c1:08:cf:36:75:f1:5f:99:eb:61:7b:fe:
         48:68:94:1a:ee:5d:20:64:25:7a:d0:87:76:10:cd:43:18:66:
         14:84:aa:59:72:ae:d9:49:eb:c2:00:17:d8:e8:67:5d:f5:da:
         60:74:f8:a8:85:1d:f0:80:a4:9e:d9:07:27:61:aa:71:ca:57:
         8f:d7:04:e8:82:d4:c2:55:ce:17:a8:53:f7:2c:9c:73:f5:ff:
         b9:17:6a:5f:82:64:11:7d:2c:15:f0:aa:c4:ca:c2:86:a5:ae:
         b8:d6:d2:90:a5:c8:2d:b9
-----BEGIN CERTIFICATE-----
MIIGrDCCBJSgAwIBAgICCDYwDQYJKoZIhvcNAQEEBQAwgawxCzAJBgNVBAYTAlVT
MQswCQYDVQQIEwJPSDERMA8GA1UEBxMIQ29sdW1idXMxEjAQBgNVBAoTCVZpa2lu
Z1ZQTjEdMBsGA1UECxMUTXlPcmdhbml6YXRpb25hbFVuaXQxFTATBgNVBAMTDFZp
a2luZ1ZQTiBDQTEQMA4GA1UEKRMHRWFzeVJTQTEhMB8GCSqGSIb3DQEJARYSbWVA
bXlob3N0Lm15ZG9tYWluMB4XDTE0MDYxNjA5MTQ0N1oXDTI0MDYxMzA5MTQ0N1ow
HjEcMBoGA1UEAxMTQ2xpZW50NzMzQ2VydGI0MDgwMDCCAiIwDQYJKoZIhvcNAQEB
BQADggIPADCCAgoCggIBAMgApq6fq/GUhIpFiGHGDjivDgfK6V8bQO4FLFnbNAoe
ArfiBvdYfUrjOtjoqA/iYLniWbfrNoRseZ2gZhLeKGtHVEULBIEKYot28XOPrcLP
Vyv0wVBfn/s/ZxPnOGRDhFoXXRHhrOlgUcWGCcervjywW86gWQZvaqWlCCBMgx17
qZt7jJq0fDrVdUBrumMqy7rS+jotnHULccK5vxxfQEi3lTY8nCjI65o43EboD8Mi
Hwt4hvyB2npiyweGpC3FTWQ8RuhkbUnNJHj/oA8ps4STuGaIzRXXAWreFsc1s/j+
lJkcgN2MX6Ua9vdO4SZzPohB+TCmyWx2I8TvbDZALDyQhhLixAbzbbkAKtE2Xf1z
0csyVG9YhOeL4qUkwQfkH9emsGssnrdHlSpRYVZwxvxRthgoAML1/cFJ7aL2rPsn
X9DBo1gD5WnzILTMaIMnBleBsMUZvn94OYMYoz0aEzAxMWf6/j2xGrCqGc9DGtaD
MEtzpvKv9ZQtYnI1MATs/lwvWBkGu3xpUnvY9Kn/qjFbha6soA9Wj6bt34PxQyx6
k9FwQ3Q/s3CWhhWZNhW928nlbHkRS0wZ0QturTU5WKwuzC0QqhbLLesTT+OdT9Qc
Z+eT0ktCqLrAJ1aqsq6to3vHIqWa+YbV+UvKUC6nLSLVuUFmQhi6uBiJetxL29ix
AgMBAAGjggFjMIIBXzAJBgNVHRMEAjAAMC0GCWCGSAGG+EIBDQQgFh5FYXN5LVJT
QSBHZW5lcmF0ZWQgQ2VydGlmaWNhdGUwHQYDVR0OBBYEFJdIIjyQu1JtrbHU42mI
VMHOfc0UMIHhBgNVHSMEgdkwgdaAFBLNYATSoICecO3Gmbh7LMZS/RmhoYGypIGv
MIGsMQswCQYDVQQGEwJVUzELMAkGA1UECBMCT0gxETAPBgNVBAcTCENvbHVtYnVz
MRIwEAYDVQQKEwlWaWtpbmdWUE4xHTAbBgNVBAsTFE15T3JnYW5pemF0aW9uYWxV
bml0MRUwEwYDVQQDEwxWaWtpbmdWUE4gQ0ExEDAOBgNVBCkTB0Vhc3lSU0ExITAf
BgkqhkiG9w0BCQEWEm1lQG15aG9zdC5teWRvbWFpboIJAM81he6Avyo+MBMGA1Ud
JQQMMAoGCCsGAQUFBwMCMAsGA1UdDwQEAwIHgDANBgkqhkiG9w0BAQQFAAOCAgEA
N9ZQ4oapS3xURTkzhT4N9nJRcK2ZpnTfKYR01nsfxDsZwwejvm9bY4MztxmTKHw/
J8YEVnw+clvEoutPVxBP2LKrnL3cQxmPJAbiTAvrEcUsIp45mW9Lai7aZP05NaRs
JMrVePMbdVMtlujrMXvKCnbHU7e/nWu4zdgqYl4ZZeuNWmwGGgYPGUve24qJRBjP
OLbT3dZ9eFVyfTOPoznrNl+2K8kL8D6uCorsW2uJCpR2IU5P+m8lVqujNPUQLK3Z
ypWW0NF5N9Y2yceW3OOmp6Ng3gbP7ROW84ohbqsThpql6H/vIfmsyvL8hmi1S/7I
DJhJp/Pj63kFxiOUQ9qV8tM4p/Va5rHvHsrwaOVLIITEv7m1nRr76ANjYJgbaFjC
xeumdaXIn/vq3JFdGuvklJJeq5xr5ozpGB/4U6eVTY3YCmnx5lX6F714iXsWrfCB
8kMr4J/qxIsUKb37vyhjZYYuZ1zTMHBGtg5paSerxM/E9GUA7La8LkLps4ANVOhu
PwwfWjaWJ1K+pIe+KqYz/FsnwQjPNnXxX5nrYXv+SGiUGu5dIGQletCHdhDNQxhm
FISqWXKu2UnrwgAX2OhnXfXaYHT4qIUd8ICkntkHJ2GqccpXj9cE6ILUwlXOF6hT
9yycc/X/uRdqX4JkEX0sFfCqxMrChqWuuNbSkKXILbk=
-----END CERTIFICATE-----
