Certificate:
    Data:
        Version: 3 (0x2)
        Serial Number: 2117 (0x845)
    Signature Algorithm: md5WithRSAEncryption
        Issuer: C=US, ST=OH, L=Columbus, O=VikingVPN, OU=MyOrganizationalUnit, CN=VikingVPN CA/name=EasyRSA/emailAddress=me@myhost.mydomain
        Validity
            Not Before: Jun 17 15:42:38 2014 GMT
            Not After : Jun 14 15:42:38 2024 GMT
        Subject: CN=Client725Cert0b07a1
        Subject Public Key Info:
            Public Key Algorithm: rsaEncryption
                Public-Key: (4096 bit)
                Modulus:
                    00:cf:36:c1:27:0c:03:bc:fc:3e:09:33:e2:e4:31:
                    ac:21:bc:d3:b2:9c:13:3a:db:88:cb:c0:76:86:31:
                    cc:ef:ed:53:fe:81:88:18:56:1a:ec:70:b5:a9:59:
                    98:1c:93:7c:b0:27:37:01:19:49:dd:2b:e6:80:5f:
                    54:f9:f1:e4:fb:02:aa:7b:cf:5b:26:7a:93:3d:6b:
                    08:be:08:ee:94:6e:b2:1f:d4:df:9e:24:1c:0f:1c:
                    66:5d:c1:a2:f7:09:6d:b4:86:bb:0a:e9:d5:42:27:
                    a5:46:1c:b0:e4:73:f3:27:8e:96:75:a4:bb:0f:33:
                    6f:2d:8f:5e:c9:fb:c7:4f:45:26:7b:ea:89:eb:d2:
                    d3:f7:1f:90:29:a5:7f:c8:3b:8c:72:8b:22:01:c8:
                    fa:af:d0:39:3e:e8:e1:d7:e8:1d:3a:c7:f2:f1:40:
                    e7:6e:03:85:5c:a6:4f:74:9b:1c:db:0d:4a:91:b0:
                    28:03:2f:ed:e9:9c:3a:9c:a8:60:f9:2a:a1:aa:6d:
                    e0:19:44:39:62:9e:bb:0f:f0:c6:4a:fe:d4:58:c5:
                    5b:32:e2:eb:7d:18:41:87:3d:1f:ed:45:25:34:69:
                    56:35:de:33:e6:7a:08:5d:53:37:25:38:5e:0b:10:
                    2a:6d:04:d3:d9:f1:95:06:17:96:d6:34:36:52:91:
                    15:31:42:f9:f6:b1:91:74:f8:a1:c0:4b:9a:d5:a1:
                    e7:f7:3e:04:0c:9f:bf:3f:e5:ee:37:f2:64:ff:2d:
                    2b:22:8d:41:25:a1:79:7a:98:f4:2d:e6:fe:04:28:
                    8d:6a:29:bd:98:8a:53:03:1a:0c:8a:ce:ae:75:bf:
                    d6:14:2e:73:5a:1e:4c:67:27:9e:1b:27:cd:13:84:
                    c6:73:a2:b4:8b:e0:40:70:9d:8a:07:d4:e5:92:97:
                    56:93:50:39:1e:ba:bf:97:eb:4d:0e:4b:b6:a3:02:
                    c0:cf:23:aa:53:f1:fd:df:5d:a6:e8:80:3f:99:60:
                    20:3c:43:94:3e:79:98:b2:47:a5:8e:8a:3c:86:23:
                    9e:e8:02:ad:18:12:6a:c4:5f:dc:bf:14:8d:f1:4c:
                    16:1f:23:48:6a:6c:ad:c8:47:54:73:f8:87:8a:70:
                    7f:e4:f1:04:d9:5a:09:db:63:8c:8e:40:1e:13:34:
                    15:51:4c:4e:2d:1b:52:01:bf:e3:58:25:1a:b1:88:
                    2b:41:4c:7d:d0:4b:b2:6d:ed:cb:80:66:fd:1c:7e:
                    78:6c:67:ab:9d:5e:9e:cd:aa:a3:b2:13:93:da:b9:
                    7f:ec:bf:e6:dc:47:8a:9c:fc:22:6d:3b:c2:3b:aa:
                    a7:12:81:0b:3f:29:77:7f:72:68:53:06:23:2f:ca:
                    49:92:bd
                Exponent: 65537 (0x10001)
        X509v3 extensions:
            X509v3 Basic Constraints: 
                CA:FALSE
            Netscape Comment: 
                Easy-RSA Generated Certificate
            X509v3 Subject Key Identifier: 
                F0:8C:B3:71:E1:01:E5:F4:B8:3B:83:F0:84:98:F3:4B:1D:FC:C2:12
            X509v3 Authority Key Identifier: 
                keyid:12:CD:60:04:D2:A0:80:9E:70:ED:C6:99:B8:7B:2C:C6:52:FD:19:A1
                DirName:/C=US/ST=OH/L=Columbus/O=VikingVPN/OU=MyOrganizationalUnit/CN=VikingVPN CA/name=EasyRSA/emailAddress=me@myhost.mydomain
                serial:CF:35:85:EE:80:BF:2A:3E

            X509v3 Extended Key Usage: 
                TLS Web Client Authentication
            X509v3 Key Usage: 
                Digital Signature
    Signature Algorithm: md5WithRSAEncryption
         b9:64:fc:40:0b:22:d5:d8:be:ae:41:b4:77:7f:17:7c:70:21:
         33:5a:9e:4b:34:92:49:39:30:0f:3f:12:d8:dc:5e:9e:f7:7d:
         66:94:ca:50:fa:81:69:f9:07:cd:e6:a7:8d:08:f3:05:0f:ff:
         2b:73:ff:ea:4c:40:fe:3a:83:db:65:66:31:52:3b:c3:0c:fe:
         92:ae:21:bc:45:3d:42:77:b2:2b:0b:b3:31:f4:cd:37:4b:a0:
         6c:d7:e0:6d:37:75:b7:2e:4f:a7:5b:c2:a2:cd:2e:26:63:70:
         3c:5a:ef:2f:01:06:d5:e0:05:61:d3:9e:9e:9a:36:cd:b2:69:
         ea:85:b8:cb:6a:eb:ae:bd:5a:75:87:b7:ce:2e:dd:17:08:d4:
         2e:c7:9f:5d:45:40:77:9e:d3:2a:82:ac:96:19:8a:a0:ca:65:
         19:d0:d6:26:0f:55:ef:cf:bb:7b:55:f0:4c:96:9e:f4:7c:bb:
         85:50:44:31:ac:c1:a1:ca:6a:04:0a:13:18:a6:d1:8b:1f:92:
         fa:d2:f7:15:35:dd:64:2e:4e:16:7d:e7:3f:09:ea:6a:46:1c:
         7d:45:06:61:76:e5:3e:e2:11:6f:e4:23:5e:c0:a9:03:62:9b:
         7d:6e:0e:57:49:d2:2b:32:0d:62:a9:0a:6c:9a:ca:64:37:99:
         15:91:57:53:8a:2b:29:63:31:fe:18:f1:fe:79:24:9b:45:f6:
         a6:ee:27:c7:b9:69:3e:ff:9a:48:be:e9:88:7b:77:b5:fb:0b:
         9c:e9:10:6e:dc:55:a5:0b:f1:dd:93:ee:cf:aa:27:cd:ec:ac:
         a6:59:d4:93:de:f0:2d:08:72:a3:d5:04:e8:0b:68:ac:62:18:
         77:b7:04:47:f9:e3:43:e9:f9:99:1e:c0:96:29:ab:c9:32:21:
         67:21:6c:87:eb:c3:d1:29:0f:7d:f5:7c:f5:60:a1:1c:db:98:
         4e:c0:8a:4c:3e:b0:2e:5b:6e:ac:18:ed:05:98:96:41:dd:ab:
         83:cf:a1:8f:4c:70:f8:8b:e0:25:f6:c7:05:36:07:fb:7e:f8:
         53:b6:fc:a4:de:4a:29:34:44:82:47:65:68:48:65:66:06:29:
         a5:8d:dd:2b:5f:6e:a8:c1:0c:53:48:14:fb:b4:60:9b:80:4e:
         41:ed:0f:2d:1b:83:45:5e:36:a4:cf:a6:42:3f:78:51:9e:1c:
         13:69:ed:c5:1f:2c:51:79:25:3c:f9:6b:43:62:68:b4:ee:05:
         62:71:81:1c:fb:d2:81:2c:8a:38:68:44:86:90:18:26:da:d8:
         41:1d:cb:15:50:df:84:5b:22:1b:51:4c:de:23:f6:fb:2c:fd:
         72:90:e3:79:37:16:b2:19
-----BEGIN CERTIFICATE-----
MIIGrDCCBJSgAwIBAgICCEUwDQYJKoZIhvcNAQEEBQAwgawxCzAJBgNVBAYTAlVT
MQswCQYDVQQIEwJPSDERMA8GA1UEBxMIQ29sdW1idXMxEjAQBgNVBAoTCVZpa2lu
Z1ZQTjEdMBsGA1UECxMUTXlPcmdhbml6YXRpb25hbFVuaXQxFTATBgNVBAMTDFZp
a2luZ1ZQTiBDQTEQMA4GA1UEKRMHRWFzeVJTQTEhMB8GCSqGSIb3DQEJARYSbWVA
bXlob3N0Lm15ZG9tYWluMB4XDTE0MDYxNzE1NDIzOFoXDTI0MDYxNDE1NDIzOFow
HjEcMBoGA1UEAxMTQ2xpZW50NzI1Q2VydDBiMDdhMTCCAiIwDQYJKoZIhvcNAQEB
BQADggIPADCCAgoCggIBAM82wScMA7z8Pgkz4uQxrCG807KcEzrbiMvAdoYxzO/t
U/6BiBhWGuxwtalZmByTfLAnNwEZSd0r5oBfVPnx5PsCqnvPWyZ6kz1rCL4I7pRu
sh/U354kHA8cZl3BovcJbbSGuwrp1UInpUYcsORz8yeOlnWkuw8zby2PXsn7x09F
JnvqievS0/cfkCmlf8g7jHKLIgHI+q/QOT7o4dfoHTrH8vFA524DhVymT3SbHNsN
SpGwKAMv7emcOpyoYPkqoapt4BlEOWKeuw/wxkr+1FjFWzLi630YQYc9H+1FJTRp
VjXeM+Z6CF1TNyU4XgsQKm0E09nxlQYXltY0NlKRFTFC+faxkXT4ocBLmtWh5/c+
BAyfvz/l7jfyZP8tKyKNQSWheXqY9C3m/gQojWopvZiKUwMaDIrOrnW/1hQuc1oe
TGcnnhsnzROExnOitIvgQHCdigfU5ZKXVpNQOR66v5frTQ5LtqMCwM8jqlPx/d9d
puiAP5lgIDxDlD55mLJHpY6KPIYjnugCrRgSasRf3L8UjfFMFh8jSGpsrchHVHP4
h4pwf+TxBNlaCdtjjI5AHhM0FVFMTi0bUgG/41glGrGIK0FMfdBLsm3ty4Bm/Rx+
eGxnq51ens2qo7ITk9q5f+y/5txHipz8Im07wjuqpxKBCz8pd39yaFMGIy/KSZK9
AgMBAAGjggFjMIIBXzAJBgNVHRMEAjAAMC0GCWCGSAGG+EIBDQQgFh5FYXN5LVJT
QSBHZW5lcmF0ZWQgQ2VydGlmaWNhdGUwHQYDVR0OBBYEFPCMs3HhAeX0uDuD8ISY
80sd/MISMIHhBgNVHSMEgdkwgdaAFBLNYATSoICecO3Gmbh7LMZS/RmhoYGypIGv
MIGsMQswCQYDVQQGEwJVUzELMAkGA1UECBMCT0gxETAPBgNVBAcTCENvbHVtYnVz
MRIwEAYDVQQKEwlWaWtpbmdWUE4xHTAbBgNVBAsTFE15T3JnYW5pemF0aW9uYWxV
bml0MRUwEwYDVQQDEwxWaWtpbmdWUE4gQ0ExEDAOBgNVBCkTB0Vhc3lSU0ExITAf
BgkqhkiG9w0BCQEWEm1lQG15aG9zdC5teWRvbWFpboIJAM81he6Avyo+MBMGA1Ud
JQQMMAoGCCsGAQUFBwMCMAsGA1UdDwQEAwIHgDANBgkqhkiG9w0BAQQFAAOCAgEA
uWT8QAsi1di+rkG0d38XfHAhM1qeSzSSSTkwDz8S2Nxenvd9ZpTKUPqBafkHzean
jQjzBQ//K3P/6kxA/jqD22VmMVI7wwz+kq4hvEU9QneyKwuzMfTNN0ugbNfgbTd1
ty5Pp1vCos0uJmNwPFrvLwEG1eAFYdOenpo2zbJp6oW4y2rrrr1adYe3zi7dFwjU
LsefXUVAd57TKoKslhmKoMplGdDWJg9V78+7e1XwTJae9Hy7hVBEMazBocpqBAoT
GKbRix+S+tL3FTXdZC5OFn3nPwnqakYcfUUGYXblPuIRb+QjXsCpA2KbfW4OV0nS
KzINYqkKbJrKZDeZFZFXU4orKWMx/hjx/nkkm0X2pu4nx7lpPv+aSL7piHt3tfsL
nOkQbtxVpQvx3ZPuz6onzeysplnUk97wLQhyo9UE6AtorGIYd7cER/njQ+n5mR7A
limryTIhZyFsh+vD0SkPffV89WChHNuYTsCKTD6wLlturBjtBZiWQd2rg8+hj0xw
+IvgJfbHBTYH+374U7b8pN5KKTREgkdlaEhlZgYppY3dK19uqMEMU0gU+7Rgm4BO
Qe0PLRuDRV42pM+mQj94UZ4cE2ntxR8sUXklPPlrQ2JotO4FYnGBHPvSgSyKOGhE
hpAYJtrYQR3LFVDfhFsiG1FM3iP2+yz9cpDjeTcWshk=
-----END CERTIFICATE-----
