Certificate:
    Data:
        Version: 3 (0x2)
        Serial Number: 2146 (0x862)
    Signature Algorithm: md5WithRSAEncryption
        Issuer: C=US, ST=OH, L=Columbus, O=VikingVPN, OU=MyOrganizationalUnit, CN=VikingVPN CA/name=EasyRSA/emailAddress=me@myhost.mydomain
        Validity
            Not Before: Jun 20 13:31:19 2014 GMT
            Not After : Jun 17 13:31:19 2024 GMT
        Subject: CN=Client749Cert08f234
        Subject Public Key Info:
            Public Key Algorithm: rsaEncryption
                Public-Key: (4096 bit)
                Modulus:
                    00:cf:a4:79:ad:85:e2:15:79:9f:16:54:d7:01:37:
                    38:35:79:12:64:60:bf:2e:12:bb:74:bd:43:a5:6a:
                    4f:ea:95:8a:08:d2:41:00:79:28:1e:f1:5f:98:c1:
                    00:d7:3c:ee:08:88:e0:59:cd:10:e8:fa:8a:a3:76:
                    60:29:2f:a5:cb:b1:11:57:51:de:fe:ed:be:a5:35:
                    6c:85:05:9e:b7:4b:94:57:12:ff:9d:10:e7:78:be:
                    6a:db:6a:87:75:26:6c:72:87:f8:8b:4a:9e:9b:89:
                    07:50:bc:d9:be:0b:28:3a:f7:61:83:e3:72:57:a9:
                    2a:62:19:9a:f6:55:d4:48:53:79:90:6b:18:45:b8:
                    02:55:e5:b5:06:8c:7d:05:ab:ed:2f:63:29:75:16:
                    80:ff:de:d6:8a:22:57:2f:dc:23:65:73:63:a8:a0:
                    4b:15:27:16:5b:49:62:1c:b4:55:51:9f:4a:19:60:
                    54:a8:63:e5:fb:3d:1d:7f:6c:f4:30:e9:6f:4b:ee:
                    35:12:be:7f:1e:93:16:61:df:a3:15:bc:47:75:ce:
                    ea:41:08:6d:55:18:db:af:98:5c:5d:78:41:1f:7e:
                    03:0d:ad:a7:fc:66:78:5b:e6:d0:19:51:41:25:17:
                    19:37:88:ec:e6:12:34:18:80:01:a0:ef:c2:e7:eb:
                    cf:21:d3:12:ba:4f:a7:5b:a3:46:f6:18:67:37:c9:
                    8b:66:68:b5:ce:aa:11:dc:41:f0:b0:99:38:de:38:
                    d9:e8:0a:62:72:a1:fd:72:ea:a6:1f:2d:43:23:09:
                    11:ed:f4:e8:9b:ad:ea:04:fe:4d:35:5b:a6:d1:cd:
                    96:a8:4c:27:f0:9c:f9:3a:52:b6:3d:f8:35:38:4c:
                    e2:c2:5b:0f:93:99:67:f2:2e:b3:3f:66:09:30:bd:
                    45:be:92:97:2c:bb:f4:e3:c0:b5:18:ce:c3:8f:7b:
                    6e:9a:85:16:b0:02:9a:fb:a8:80:7a:64:0e:6b:70:
                    77:c7:f7:6f:3e:07:85:6f:91:53:f9:84:ee:88:7b:
                    36:53:2f:6b:fa:43:7a:04:43:b0:51:75:da:f4:bd:
                    1a:d7:bf:76:fa:0b:96:f8:62:f2:c9:7c:f7:43:58:
                    b4:3b:73:b2:ab:e1:d4:2d:e1:20:ab:96:34:ed:c6:
                    40:79:ba:e6:3a:54:43:02:b4:f6:f1:07:18:1f:3a:
                    f3:43:11:7c:a7:f4:35:c8:4b:25:ae:71:c4:f6:ea:
                    25:92:33:84:3e:c1:39:9a:1c:d4:d5:c2:60:51:8c:
                    e6:c9:19:98:1d:61:84:97:56:8c:3a:d4:6b:af:7a:
                    cd:cc:56:cc:3f:fe:b1:30:d1:37:95:e7:35:1b:65:
                    2f:11:e7
                Exponent: 65537 (0x10001)
        X509v3 extensions:
            X509v3 Basic Constraints: 
                CA:FALSE
            Netscape Comment: 
                Easy-RSA Generated Certificate
            X509v3 Subject Key Identifier: 
                3A:65:8C:7B:81:03:CA:6E:9B:4A:17:ED:80:60:8A:38:D5:9D:49:9F
            X509v3 Authority Key Identifier: 
                keyid:12:CD:60:04:D2:A0:80:9E:70:ED:C6:99:B8:7B:2C:C6:52:FD:19:A1
                DirName:/C=US/ST=OH/L=Columbus/O=VikingVPN/OU=MyOrganizationalUnit/CN=VikingVPN CA/name=EasyRSA/emailAddress=me@myhost.mydomain
                serial:CF:35:85:EE:80:BF:2A:3E

            X509v3 Extended Key Usage: 
                TLS Web Client Authentication
            X509v3 Key Usage: 
                Digital Signature
    Signature Algorithm: md5WithRSAEncryption
         3c:53:a3:e5:be:7e:a9:0e:6d:47:2a:35:15:23:22:dd:d9:f7:
         97:de:17:f3:ab:99:be:4e:16:a3:2d:64:73:11:0f:3b:79:4f:
         6b:1a:be:fa:75:66:3c:7c:cf:32:4c:ea:a5:2f:b0:6c:96:c4:
         a4:fd:be:40:7d:6e:f3:e5:68:1e:92:8f:14:ee:9e:5b:77:8c:
         b6:fa:a4:78:6d:4f:aa:0f:93:db:6d:24:43:f8:5c:f2:92:21:
         92:04:35:14:42:bd:bd:8f:fe:f0:0e:c9:5b:7c:26:27:86:2f:
         7d:4f:bd:d7:ca:37:d6:fa:79:c4:18:9c:c4:b2:5f:fa:f8:9f:
         9a:b0:0b:7a:dd:44:2b:2c:58:24:75:95:eb:2d:19:71:78:5e:
         78:70:80:9f:6c:dc:47:21:79:fc:cf:d7:d1:57:6e:81:63:2c:
         50:3c:dc:47:71:b1:d8:7a:9d:fb:db:2b:69:81:ac:8c:54:7e:
         dc:fc:5f:e0:57:ab:6a:b3:e5:a2:e5:38:88:11:b4:92:cc:e2:
         00:03:85:36:24:18:17:2f:e7:da:9a:93:64:75:3d:f2:a4:e0:
         8c:d6:0d:1f:f4:e7:fb:ea:76:ca:94:62:5f:13:07:68:52:13:
         fe:2a:f2:7c:71:04:22:d5:ed:46:80:ea:da:79:7e:33:c6:c4:
         82:12:d7:8e:97:19:a1:cb:b8:d5:69:7b:4a:a7:fc:5e:08:24:
         6a:ba:ea:10:df:3d:b5:67:da:9d:c6:1d:63:19:37:d2:b0:71:
         e6:fd:5e:87:a3:7c:76:16:f9:37:00:f7:52:cb:98:e7:ec:a1:
         15:3e:58:32:d8:a7:01:85:08:60:b9:8c:ba:ec:22:94:ac:8b:
         8c:31:04:3e:c9:9a:a8:a4:7d:cc:af:7f:07:0d:15:7c:b7:8c:
         40:67:62:28:f9:4b:64:ca:6f:02:4f:5b:5b:0d:c9:ff:d2:9d:
         5a:f8:e6:cc:37:39:b9:5e:df:fc:0d:5c:0d:20:97:34:a9:c9:
         af:0a:0b:4c:6b:b5:2d:e3:9e:cf:2b:34:79:b0:e5:3d:3b:1d:
         1f:65:fa:75:87:ed:8f:10:18:97:94:03:e0:c9:36:6e:ff:14:
         6a:76:12:5f:94:49:ca:75:c3:85:ca:b4:14:c4:b6:fc:ff:82:
         bb:46:ce:d5:3b:0f:d1:92:df:db:c7:99:a5:e2:2e:7b:cb:52:
         a4:36:a5:73:ab:3a:9b:c7:5f:4a:c2:4a:a2:b9:8a:7a:ca:ec:
         fe:ad:90:97:47:69:3a:fd:49:e3:f2:5b:cb:47:fa:e8:3d:33:
         0c:bb:0e:41:de:ad:c2:39:c1:41:4b:1a:83:20:fc:43:2d:cf:
         8c:9b:4e:03:13:a2:d3:14
-----BEGIN CERTIFICATE-----
MIIGrDCCBJSgAwIBAgICCGIwDQYJKoZIhvcNAQEEBQAwgawxCzAJBgNVBAYTAlVT
MQswCQYDVQQIEwJPSDERMA8GA1UEBxMIQ29sdW1idXMxEjAQBgNVBAoTCVZpa2lu
Z1ZQTjEdMBsGA1UECxMUTXlPcmdhbml6YXRpb25hbFVuaXQxFTATBgNVBAMTDFZp
a2luZ1ZQTiBDQTEQMA4GA1UEKRMHRWFzeVJTQTEhMB8GCSqGSIb3DQEJARYSbWVA
bXlob3N0Lm15ZG9tYWluMB4XDTE0MDYyMDEzMzExOVoXDTI0MDYxNzEzMzExOVow
HjEcMBoGA1UEAxMTQ2xpZW50NzQ5Q2VydDA4ZjIzNDCCAiIwDQYJKoZIhvcNAQEB
BQADggIPADCCAgoCggIBAM+kea2F4hV5nxZU1wE3ODV5EmRgvy4Su3S9Q6VqT+qV
igjSQQB5KB7xX5jBANc87giI4FnNEOj6iqN2YCkvpcuxEVdR3v7tvqU1bIUFnrdL
lFcS/50Q53i+attqh3UmbHKH+ItKnpuJB1C82b4LKDr3YYPjclepKmIZmvZV1EhT
eZBrGEW4AlXltQaMfQWr7S9jKXUWgP/e1ooiVy/cI2VzY6igSxUnFltJYhy0VVGf
ShlgVKhj5fs9HX9s9DDpb0vuNRK+fx6TFmHfoxW8R3XO6kEIbVUY26+YXF14QR9+
Aw2tp/xmeFvm0BlRQSUXGTeI7OYSNBiAAaDvwufrzyHTErpPp1ujRvYYZzfJi2Zo
tc6qEdxB8LCZON442egKYnKh/XLqph8tQyMJEe306Jut6gT+TTVbptHNlqhMJ/Cc
+TpStj34NThM4sJbD5OZZ/Iusz9mCTC9Rb6Slyy79OPAtRjOw497bpqFFrACmvuo
gHpkDmtwd8f3bz4HhW+RU/mE7oh7NlMva/pDegRDsFF12vS9Gte/dvoLlvhi8sl8
90NYtDtzsqvh1C3hIKuWNO3GQHm65jpUQwK09vEHGB8680MRfKf0NchLJa5xxPbq
JZIzhD7BOZoc1NXCYFGM5skZmB1hhJdWjDrUa696zcxWzD/+sTDRN5XnNRtlLxHn
AgMBAAGjggFjMIIBXzAJBgNVHRMEAjAAMC0GCWCGSAGG+EIBDQQgFh5FYXN5LVJT
QSBHZW5lcmF0ZWQgQ2VydGlmaWNhdGUwHQYDVR0OBBYEFDpljHuBA8pum0oX7YBg
ijjVnUmfMIHhBgNVHSMEgdkwgdaAFBLNYATSoICecO3Gmbh7LMZS/RmhoYGypIGv
MIGsMQswCQYDVQQGEwJVUzELMAkGA1UECBMCT0gxETAPBgNVBAcTCENvbHVtYnVz
MRIwEAYDVQQKEwlWaWtpbmdWUE4xHTAbBgNVBAsTFE15T3JnYW5pemF0aW9uYWxV
bml0MRUwEwYDVQQDEwxWaWtpbmdWUE4gQ0ExEDAOBgNVBCkTB0Vhc3lSU0ExITAf
BgkqhkiG9w0BCQEWEm1lQG15aG9zdC5teWRvbWFpboIJAM81he6Avyo+MBMGA1Ud
JQQMMAoGCCsGAQUFBwMCMAsGA1UdDwQEAwIHgDANBgkqhkiG9w0BAQQFAAOCAgEA
PFOj5b5+qQ5tRyo1FSMi3dn3l94X86uZvk4Woy1kcxEPO3lPaxq++nVmPHzPMkzq
pS+wbJbEpP2+QH1u8+VoHpKPFO6eW3eMtvqkeG1Pqg+T220kQ/hc8pIhkgQ1FEK9
vY/+8A7JW3wmJ4YvfU+918o31vp5xBicxLJf+vifmrALet1EKyxYJHWV6y0ZcXhe
eHCAn2zcRyF5/M/X0VdugWMsUDzcR3Gx2Hqd+9sraYGsjFR+3Pxf4FerarPlouU4
iBG0ksziAAOFNiQYFy/n2pqTZHU98qTgjNYNH/Tn++p2ypRiXxMHaFIT/iryfHEE
ItXtRoDq2nl+M8bEghLXjpcZocu41Wl7Sqf8XggkarrqEN89tWfancYdYxk30rBx
5v1eh6N8dhb5NwD3UsuY5+yhFT5YMtinAYUIYLmMuuwilKyLjDEEPsmaqKR9zK9/
Bw0VfLeMQGdiKPlLZMpvAk9bWw3J/9KdWvjmzDc5uV7f/A1cDSCXNKnJrwoLTGu1
LeOezys0ebDlPTsdH2X6dYftjxAYl5QD4Mk2bv8UanYSX5RJynXDhcq0FMS2/P+C
u0bO1TsP0ZLf28eZpeIue8tSpDalc6s6m8dfSsJKormKesrs/q2Ql0dpOv1J4/Jb
y0f66D0zDLsOQd6twjnBQUsagyD8Qy3PjJtOAxOi0xQ=
-----END CERTIFICATE-----
