Certificate:
    Data:
        Version: 3 (0x2)
        Serial Number: 2148 (0x864)
    Signature Algorithm: md5WithRSAEncryption
        Issuer: C=US, ST=OH, L=Columbus, O=VikingVPN, OU=MyOrganizationalUnit, CN=VikingVPN CA/name=EasyRSA/emailAddress=me@myhost.mydomain
        Validity
            Not Before: Jun 20 15:45:45 2014 GMT
            Not After : Jun 17 15:45:45 2024 GMT
        Subject: CN=Client750Certa42ab0
        Subject Public Key Info:
            Public Key Algorithm: rsaEncryption
                Public-Key: (4096 bit)
                Modulus:
                    00:9f:e1:2a:48:70:b9:52:8d:e0:60:67:75:5d:5f:
                    79:61:f0:56:88:79:05:13:01:0a:bb:c1:c5:30:ff:
                    7a:80:cc:38:e9:cc:9d:6f:84:ad:b3:ed:59:95:2e:
                    f3:00:93:ba:13:53:a8:be:8e:c8:c0:3a:fd:20:b4:
                    92:f8:03:9c:10:cf:a6:03:97:44:e1:29:ea:2c:1a:
                    07:b1:80:96:92:df:e8:16:f5:b9:4e:9b:84:1f:c9:
                    cf:6a:9a:96:7b:72:fb:fc:4a:79:78:96:0a:c2:04:
                    28:9f:b8:e3:ce:49:72:86:32:e6:4e:57:7a:a1:00:
                    0f:0d:2e:cd:05:21:81:73:ec:de:85:98:67:6b:54:
                    06:0a:30:ad:d5:98:c3:b1:f5:74:8e:97:12:7c:e9:
                    ab:64:df:cc:03:04:ad:c9:12:09:bd:ce:b1:0a:a8:
                    17:de:bd:24:6e:84:ec:f7:4f:00:e1:d3:1f:de:8d:
                    de:76:b8:c6:bc:19:e5:bd:50:77:de:87:77:e0:6e:
                    1a:2f:67:40:f7:46:28:6f:90:0a:89:64:8c:18:31:
                    c6:12:ac:1a:c4:cf:54:66:3a:50:9c:89:ec:5a:87:
                    10:05:2f:b8:4f:ba:a3:51:22:50:70:9f:46:5d:c1:
                    67:ed:e9:bd:1d:8d:95:71:5b:7e:b3:91:ea:02:b8:
                    a4:96:a9:48:a2:b6:c2:7c:a4:a4:8f:9b:15:59:d5:
                    27:0a:11:d0:f4:cb:d4:cd:0d:56:df:58:3c:80:48:
                    ed:e2:3f:21:92:c4:f7:d4:21:9f:f0:81:a9:8e:92:
                    7a:dd:04:0a:9c:03:44:6f:30:b2:d4:42:e4:1e:43:
                    3f:f4:98:d3:cb:f1:12:ea:c1:53:99:5f:17:ae:45:
                    95:0d:54:e1:5b:89:f6:f2:de:a5:2e:31:17:cd:1a:
                    2b:a8:e1:7a:58:3d:1c:51:23:1c:d4:c3:f1:df:4a:
                    5b:bc:e3:f2:8e:d3:70:82:02:ce:b7:65:33:54:fa:
                    60:64:6c:cd:21:5f:d6:87:26:7c:bf:c4:dd:82:73:
                    a6:eb:a4:8b:22:9b:50:dc:22:40:1d:9e:68:aa:5d:
                    c0:be:cd:cf:f4:a8:dd:3b:06:d3:ad:2c:1a:a5:30:
                    cb:6f:6a:e8:5e:63:62:f3:1a:65:50:2c:f5:49:ac:
                    70:c3:8b:6d:ab:01:ad:84:2b:da:dc:76:88:19:0c:
                    6a:16:9a:5c:f4:71:0e:11:de:4a:c2:fa:73:76:a9:
                    6d:e0:a4:21:65:15:5c:61:e7:44:82:04:fe:d0:34:
                    0c:87:a1:71:c2:c6:7d:4c:5d:29:27:b4:e6:f5:47:
                    94:40:03:25:a7:0b:e7:94:4a:ac:b6:4d:66:37:0f:
                    bf:5a:45
                Exponent: 65537 (0x10001)
        X509v3 extensions:
            X509v3 Basic Constraints: 
                CA:FALSE
            Netscape Comment: 
                Easy-RSA Generated Certificate
            X509v3 Subject Key Identifier: 
                B6:86:1D:70:B8:1A:BB:5A:A6:B1:80:FB:C3:09:2C:3F:97:3B:01:CA
            X509v3 Authority Key Identifier: 
                keyid:12:CD:60:04:D2:A0:80:9E:70:ED:C6:99:B8:7B:2C:C6:52:FD:19:A1
                DirName:/C=US/ST=OH/L=Columbus/O=VikingVPN/OU=MyOrganizationalUnit/CN=VikingVPN CA/name=EasyRSA/emailAddress=me@myhost.mydomain
                serial:CF:35:85:EE:80:BF:2A:3E

            X509v3 Extended Key Usage: 
                TLS Web Client Authentication
            X509v3 Key Usage: 
                Digital Signature
    Signature Algorithm: md5WithRSAEncryption
         04:2f:ee:e5:e1:fc:65:6e:45:05:30:96:64:01:50:4b:32:9a:
         98:b2:b0:28:02:03:63:41:fd:23:b5:ae:a6:ef:d2:bd:69:8f:
         bd:a8:e9:46:49:da:6d:8f:33:8d:67:c7:a5:11:ea:6b:07:a1:
         8c:78:d5:3c:73:cd:01:02:3b:88:b2:cb:b7:eb:31:80:48:ae:
         56:7e:08:7d:70:15:88:78:eb:0a:b7:35:a6:6a:2d:61:1e:56:
         92:36:e2:ed:a4:c4:29:d8:67:fa:ef:cc:43:75:01:56:cf:78:
         bb:a3:e5:73:d0:cc:b8:fa:0f:18:15:3e:c5:7c:81:76:95:5b:
         ae:78:fa:fb:05:c8:6a:91:5b:6a:b7:94:d0:11:71:7b:09:8b:
         27:65:7a:40:61:59:bc:1f:e8:a9:55:96:c5:78:3b:97:6e:30:
         d9:14:c3:13:60:b3:0b:0a:30:61:a0:a5:c3:d6:66:da:5a:29:
         3a:43:2f:60:40:34:7d:6f:77:d1:3d:5a:af:fa:fa:c6:a8:61:
         e7:21:e2:8b:7f:ca:d7:35:23:ed:80:c1:22:b8:48:62:3d:e9:
         21:f9:58:cc:32:c8:b5:aa:16:04:47:a9:14:ab:75:b8:3a:b4:
         66:9d:f6:4f:15:60:c8:c5:db:3e:ae:ed:c8:02:c5:4d:b0:81:
         04:27:51:b5:28:72:96:46:9b:6a:d8:3d:cd:67:40:dc:6f:46:
         6d:7f:4c:26:ca:07:18:e8:14:ff:22:66:e0:31:11:ac:f9:04:
         61:39:d4:c2:09:14:74:e8:61:7b:b6:47:0e:d8:ec:4f:9a:7a:
         89:18:ea:bf:60:6b:8c:18:14:2e:2b:a4:9d:0d:97:88:5a:34:
         c7:b6:b9:74:55:53:7e:f8:b6:a4:2d:b7:d4:74:18:4e:fd:4b:
         28:ed:c7:7d:d7:81:c3:0e:bc:bd:19:29:92:d7:62:92:17:64:
         e9:95:56:22:a1:b7:10:52:2d:50:fd:15:e3:61:d9:23:45:3d:
         30:d4:7e:20:5c:c3:80:c8:6d:70:0d:ae:71:52:35:44:4a:1f:
         a4:c8:a0:07:92:9b:2f:35:64:28:af:50:4c:93:74:82:75:e0:
         01:a6:83:ab:4b:52:41:7a:38:14:fe:e0:bb:70:b5:21:a2:1c:
         a6:06:85:f5:49:75:3f:5b:ad:36:fc:0c:76:7a:b3:e6:48:a3:
         eb:a2:1f:86:45:8c:1d:b1:32:8f:26:7a:68:2a:3e:c7:42:58:
         be:de:08:89:05:61:c5:83:54:a3:ae:1b:98:a1:39:0d:90:08:
         18:e3:31:ff:c2:6f:e6:2b:6b:4c:bd:41:13:5e:e8:b6:05:17:
         01:93:9b:23:27:49:be:8e
-----BEGIN CERTIFICATE-----
MIIGrDCCBJSgAwIBAgICCGQwDQYJKoZIhvcNAQEEBQAwgawxCzAJBgNVBAYTAlVT
MQswCQYDVQQIEwJPSDERMA8GA1UEBxMIQ29sdW1idXMxEjAQBgNVBAoTCVZpa2lu
Z1ZQTjEdMBsGA1UECxMUTXlPcmdhbml6YXRpb25hbFVuaXQxFTATBgNVBAMTDFZp
a2luZ1ZQTiBDQTEQMA4GA1UEKRMHRWFzeVJTQTEhMB8GCSqGSIb3DQEJARYSbWVA
bXlob3N0Lm15ZG9tYWluMB4XDTE0MDYyMDE1NDU0NVoXDTI0MDYxNzE1NDU0NVow
HjEcMBoGA1UEAxMTQ2xpZW50NzUwQ2VydGE0MmFiMDCCAiIwDQYJKoZIhvcNAQEB
BQADggIPADCCAgoCggIBAJ/hKkhwuVKN4GBndV1feWHwVoh5BRMBCrvBxTD/eoDM
OOnMnW+ErbPtWZUu8wCTuhNTqL6OyMA6/SC0kvgDnBDPpgOXROEp6iwaB7GAlpLf
6Bb1uU6bhB/Jz2qalnty+/xKeXiWCsIEKJ+4485JcoYy5k5XeqEADw0uzQUhgXPs
3oWYZ2tUBgowrdWYw7H1dI6XEnzpq2TfzAMErckSCb3OsQqoF969JG6E7PdPAOHT
H96N3na4xrwZ5b1Qd96Hd+BuGi9nQPdGKG+QColkjBgxxhKsGsTPVGY6UJyJ7FqH
EAUvuE+6o1EiUHCfRl3BZ+3pvR2NlXFbfrOR6gK4pJapSKK2wnykpI+bFVnVJwoR
0PTL1M0NVt9YPIBI7eI/IZLE99Qhn/CBqY6Set0ECpwDRG8wstRC5B5DP/SY08vx
EurBU5lfF65FlQ1U4VuJ9vLepS4xF80aK6jhelg9HFEjHNTD8d9KW7zj8o7TcIIC
zrdlM1T6YGRszSFf1ocmfL/E3YJzpuukiyKbUNwiQB2eaKpdwL7Nz/So3TsG060s
GqUwy29q6F5jYvMaZVAs9UmscMOLbasBrYQr2tx2iBkMahaaXPRxDhHeSsL6c3ap
beCkIWUVXGHnRIIE/tA0DIehccLGfUxdKSe05vVHlEADJacL55RKrLZNZjcPv1pF
AgMBAAGjggFjMIIBXzAJBgNVHRMEAjAAMC0GCWCGSAGG+EIBDQQgFh5FYXN5LVJT
QSBHZW5lcmF0ZWQgQ2VydGlmaWNhdGUwHQYDVR0OBBYEFLaGHXC4GrtaprGA+8MJ
LD+XOwHKMIHhBgNVHSMEgdkwgdaAFBLNYATSoICecO3Gmbh7LMZS/RmhoYGypIGv
MIGsMQswCQYDVQQGEwJVUzELMAkGA1UECBMCT0gxETAPBgNVBAcTCENvbHVtYnVz
MRIwEAYDVQQKEwlWaWtpbmdWUE4xHTAbBgNVBAsTFE15T3JnYW5pemF0aW9uYWxV
bml0MRUwEwYDVQQDEwxWaWtpbmdWUE4gQ0ExEDAOBgNVBCkTB0Vhc3lSU0ExITAf
BgkqhkiG9w0BCQEWEm1lQG15aG9zdC5teWRvbWFpboIJAM81he6Avyo+MBMGA1Ud
JQQMMAoGCCsGAQUFBwMCMAsGA1UdDwQEAwIHgDANBgkqhkiG9w0BAQQFAAOCAgEA
BC/u5eH8ZW5FBTCWZAFQSzKamLKwKAIDY0H9I7Wupu/SvWmPvajpRknabY8zjWfH
pRHqawehjHjVPHPNAQI7iLLLt+sxgEiuVn4IfXAViHjrCrc1pmotYR5Wkjbi7aTE
Kdhn+u/MQ3UBVs94u6Plc9DMuPoPGBU+xXyBdpVbrnj6+wXIapFbareU0BFxewmL
J2V6QGFZvB/oqVWWxXg7l24w2RTDE2CzCwowYaClw9Zm2lopOkMvYEA0fW930T1a
r/r6xqhh5yHii3/K1zUj7YDBIrhIYj3pIflYzDLItaoWBEepFKt1uDq0Zp32TxVg
yMXbPq7tyALFTbCBBCdRtShylkabatg9zWdA3G9GbX9MJsoHGOgU/yJm4DERrPkE
YTnUwgkUdOhhe7ZHDtjsT5p6iRjqv2BrjBgULiuknQ2XiFo0x7a5dFVTfvi2pC23
1HQYTv1LKO3HfdeBww68vRkpktdikhdk6ZVWIqG3EFItUP0V42HZI0U9MNR+IFzD
gMhtcA2ucVI1REofpMigB5KbLzVkKK9QTJN0gnXgAaaDq0tSQXo4FP7gu3C1IaIc
pgaF9Ul1P1utNvwMdnqz5kij66IfhkWMHbEyjyZ6aCo+x0JYvt4IiQVhxYNUo64b
mKE5DZAIGOMx/8Jv5itrTL1BE17otgUXAZObIydJvo4=
-----END CERTIFICATE-----
