Certificate:
    Data:
        Version: 3 (0x2)
        Serial Number: 2157 (0x86d)
    Signature Algorithm: md5WithRSAEncryption
        Issuer: C=US, ST=OH, L=Columbus, O=VikingVPN, OU=MyOrganizationalUnit, CN=VikingVPN CA/name=EasyRSA/emailAddress=me@myhost.mydomain
        Validity
            Not Before: Jun 21 14:58:50 2014 GMT
            Not After : Jun 18 14:58:50 2024 GMT
        Subject: CN=Client598Certae2ad6
        Subject Public Key Info:
            Public Key Algorithm: rsaEncryption
                Public-Key: (4096 bit)
                Modulus:
                    00:b9:34:89:a9:8e:c7:d5:e7:e1:1a:1d:fe:05:46:
                    7e:7c:66:fc:7b:83:62:81:0e:7d:9d:c7:cd:80:1d:
                    e8:4b:83:78:dd:e1:b3:89:b1:62:ec:1f:af:cd:15:
                    ea:e4:16:8a:8c:25:79:15:1f:72:2b:55:ad:94:e5:
                    08:75:40:bc:bb:26:4a:d8:ec:71:2c:ed:02:33:bd:
                    47:9a:30:06:84:8c:8e:30:60:14:20:17:98:c3:31:
                    02:ac:6d:1c:b8:e5:a4:d8:7e:fb:72:7a:9b:cc:f8:
                    e8:cf:b8:8e:fc:c0:e0:5c:83:b1:d3:84:e8:07:ea:
                    79:ee:1f:f0:ad:c4:ca:0c:eb:21:55:b4:73:3d:98:
                    ba:2c:89:14:97:31:d1:5f:35:63:dc:d2:3f:fc:f6:
                    c6:1d:80:33:94:c5:8b:45:db:6c:b1:cf:67:bd:ae:
                    97:dc:55:e5:06:8e:26:54:cc:06:52:1d:6a:3d:79:
                    44:d1:51:3c:e5:3d:fd:3c:90:31:e8:72:9a:ea:26:
                    46:05:2b:eb:34:a9:6a:db:5d:79:58:e2:04:73:3e:
                    0e:f7:ec:d0:2d:1d:ef:b8:8a:99:b3:53:ef:4c:4c:
                    5c:9d:1c:65:c0:b9:a0:bb:70:30:c5:0a:a0:12:0c:
                    b1:f8:9a:d2:ef:5c:9a:c6:59:b1:70:a9:88:20:d0:
                    a1:ee:a7:32:cc:71:7d:cc:46:f7:b6:41:95:3e:79:
                    18:c5:ab:c1:64:8a:2e:4e:9b:25:26:36:00:0d:f9:
                    f5:29:a6:92:90:26:d2:48:01:cb:2f:34:32:39:dc:
                    bf:28:8a:ae:a4:b8:14:6e:85:95:9b:38:39:65:94:
                    f5:a5:e5:4e:4a:58:14:8b:6f:bf:b7:b1:80:ab:ec:
                    5f:7c:bf:67:c5:98:3b:f0:a8:2b:cc:3f:cf:74:04:
                    88:57:2f:e4:68:ae:a0:5f:51:69:4d:6c:cf:4c:8b:
                    99:b1:2d:c3:d4:65:7b:bd:e0:38:a9:71:93:2d:eb:
                    a5:41:8b:27:ee:3e:e8:e2:6a:65:7b:36:95:d9:31:
                    1e:dd:78:54:a3:73:12:cf:9b:44:20:98:bb:b5:ea:
                    b4:97:6e:16:c9:52:a9:8b:63:bc:39:99:e4:9e:77:
                    21:6b:00:6f:13:52:c1:9f:fa:fd:2e:56:4f:8b:04:
                    3f:aa:aa:bd:ae:31:6e:57:c3:33:93:b3:c4:b4:bd:
                    05:a9:1e:86:65:65:5e:98:0e:ad:09:66:95:85:91:
                    f2:1a:c0:b3:52:98:13:cf:46:fe:a9:f8:ec:75:ea:
                    b5:48:4f:5a:a1:12:28:13:e3:5b:9e:ac:f0:65:ac:
                    fe:d2:79:0b:80:a9:7e:c2:9a:7a:50:92:c5:1a:c4:
                    0c:a8:01
                Exponent: 65537 (0x10001)
        X509v3 extensions:
            X509v3 Basic Constraints: 
                CA:FALSE
            Netscape Comment: 
                Easy-RSA Generated Certificate
            X509v3 Subject Key Identifier: 
                88:4C:43:53:49:9C:C1:04:51:2C:8A:6F:52:7E:D9:84:F8:69:58:AC
            X509v3 Authority Key Identifier: 
                keyid:12:CD:60:04:D2:A0:80:9E:70:ED:C6:99:B8:7B:2C:C6:52:FD:19:A1
                DirName:/C=US/ST=OH/L=Columbus/O=VikingVPN/OU=MyOrganizationalUnit/CN=VikingVPN CA/name=EasyRSA/emailAddress=me@myhost.mydomain
                serial:CF:35:85:EE:80:BF:2A:3E

            X509v3 Extended Key Usage: 
                TLS Web Client Authentication
            X509v3 Key Usage: 
                Digital Signature
    Signature Algorithm: md5WithRSAEncryption
         a8:fa:45:d6:16:6f:d5:3d:54:5f:0e:7f:00:b6:8e:b9:9f:d6:
         e4:04:60:83:9a:02:ba:22:ac:78:d0:2c:a4:59:0d:4f:32:8b:
         98:f3:e1:54:e4:0c:83:41:13:7e:d8:df:5f:03:cb:79:df:68:
         c3:c4:ca:94:36:b9:dd:1e:19:d8:1b:c4:fe:f9:d9:5c:c3:18:
         3c:12:8f:e6:21:10:54:93:ae:bf:b0:a3:80:49:12:0f:c4:ab:
         26:98:81:2f:23:67:85:9c:6b:80:25:7f:6f:ee:40:c1:00:12:
         97:e9:6b:bd:73:f2:b9:b9:f2:a3:b4:f8:41:81:ce:c6:a9:91:
         6c:82:7c:f7:18:3c:8b:cc:b7:04:93:e5:d2:c8:55:f5:9d:db:
         19:d0:4b:37:b5:0e:ff:98:f8:48:ee:2a:ea:6c:15:45:6c:3d:
         2d:eb:0f:f9:fe:e1:9c:39:31:a0:b6:44:93:0d:ad:50:39:1a:
         77:5d:f8:a5:42:a5:de:ae:67:57:92:b3:7e:9b:1b:1b:6a:0b:
         10:6d:0c:f2:d7:8a:2a:50:70:3d:f5:f3:87:ff:74:53:4c:b4:
         19:42:fe:dc:3a:b6:ef:b0:1e:39:0b:b7:c1:17:3e:ab:1e:4f:
         50:4f:2d:bd:e7:7c:7a:0f:61:4b:77:06:46:68:8e:58:67:59:
         6f:9f:b8:91:5e:1b:96:c6:ef:83:42:ba:06:de:1b:bf:37:ca:
         57:96:62:f0:40:90:c4:99:99:f2:df:c4:55:20:66:c8:f2:fe:
         59:84:a4:11:72:e3:92:0a:d3:eb:6a:a5:2d:b8:f5:1d:32:8b:
         1a:ac:2b:34:10:dc:9b:4e:6c:8a:e4:30:1f:39:76:c4:eb:ef:
         b5:2e:7a:c2:a5:0c:ea:7c:a7:8c:04:ba:a5:de:2a:b3:a2:11:
         6c:8d:95:e1:9a:27:aa:f2:11:7b:f2:ce:6b:fc:66:67:85:9c:
         01:f0:ee:bb:c3:44:85:b8:6c:d9:72:af:7d:3d:aa:5e:99:f3:
         f6:f7:ef:6a:20:d0:8e:9f:f3:5e:47:22:05:5f:7e:7b:66:e4:
         e3:0d:d0:a0:dc:fa:56:dd:cd:f1:5b:ec:7f:ef:65:3b:2b:75:
         3f:f2:da:e1:b3:56:e9:22:29:63:41:50:17:27:c3:48:92:5e:
         af:33:a1:3f:c1:4e:33:0e:58:10:6f:11:2d:33:60:35:61:20:
         e4:42:8e:58:04:02:45:88:ce:8d:08:23:10:af:74:d8:ac:e5:
         8d:c9:9b:1f:8f:1d:ab:2d:b1:0a:26:27:fb:3f:3f:08:e6:de:
         bb:3b:7e:7c:4f:b1:46:56:34:60:41:6d:91:e4:07:e5:76:c4:
         ad:88:ab:69:a0:7a:0c:4c
-----BEGIN CERTIFICATE-----
MIIGrDCCBJSgAwIBAgICCG0wDQYJKoZIhvcNAQEEBQAwgawxCzAJBgNVBAYTAlVT
MQswCQYDVQQIEwJPSDERMA8GA1UEBxMIQ29sdW1idXMxEjAQBgNVBAoTCVZpa2lu
Z1ZQTjEdMBsGA1UECxMUTXlPcmdhbml6YXRpb25hbFVuaXQxFTATBgNVBAMTDFZp
a2luZ1ZQTiBDQTEQMA4GA1UEKRMHRWFzeVJTQTEhMB8GCSqGSIb3DQEJARYSbWVA
bXlob3N0Lm15ZG9tYWluMB4XDTE0MDYyMTE0NTg1MFoXDTI0MDYxODE0NTg1MFow
HjEcMBoGA1UEAxMTQ2xpZW50NTk4Q2VydGFlMmFkNjCCAiIwDQYJKoZIhvcNAQEB
BQADggIPADCCAgoCggIBALk0iamOx9Xn4Rod/gVGfnxm/HuDYoEOfZ3HzYAd6EuD
eN3hs4mxYuwfr80V6uQWiowleRUfcitVrZTlCHVAvLsmStjscSztAjO9R5owBoSM
jjBgFCAXmMMxAqxtHLjlpNh++3J6m8z46M+4jvzA4FyDsdOE6Afqee4f8K3Eygzr
IVW0cz2YuiyJFJcx0V81Y9zSP/z2xh2AM5TFi0XbbLHPZ72ul9xV5QaOJlTMBlId
aj15RNFRPOU9/TyQMehymuomRgUr6zSpattdeVjiBHM+Dvfs0C0d77iKmbNT70xM
XJ0cZcC5oLtwMMUKoBIMsfia0u9cmsZZsXCpiCDQoe6nMsxxfcxG97ZBlT55GMWr
wWSKLk6bJSY2AA359SmmkpAm0kgByy80MjncvyiKrqS4FG6FlZs4OWWU9aXlTkpY
FItvv7exgKvsX3y/Z8WYO/CoK8w/z3QEiFcv5GiuoF9RaU1sz0yLmbEtw9Rle73g
OKlxky3rpUGLJ+4+6OJqZXs2ldkxHt14VKNzEs+bRCCYu7XqtJduFslSqYtjvDmZ
5J53IWsAbxNSwZ/6/S5WT4sEP6qqva4xblfDM5OzxLS9BakehmVlXpgOrQlmlYWR
8hrAs1KYE89G/qn47HXqtUhPWqESKBPjW56s8GWs/tJ5C4CpfsKaelCSxRrEDKgB
AgMBAAGjggFjMIIBXzAJBgNVHRMEAjAAMC0GCWCGSAGG+EIBDQQgFh5FYXN5LVJT
QSBHZW5lcmF0ZWQgQ2VydGlmaWNhdGUwHQYDVR0OBBYEFIhMQ1NJnMEEUSyKb1J+
2YT4aVisMIHhBgNVHSMEgdkwgdaAFBLNYATSoICecO3Gmbh7LMZS/RmhoYGypIGv
MIGsMQswCQYDVQQGEwJVUzELMAkGA1UECBMCT0gxETAPBgNVBAcTCENvbHVtYnVz
MRIwEAYDVQQKEwlWaWtpbmdWUE4xHTAbBgNVBAsTFE15T3JnYW5pemF0aW9uYWxV
bml0MRUwEwYDVQQDEwxWaWtpbmdWUE4gQ0ExEDAOBgNVBCkTB0Vhc3lSU0ExITAf
BgkqhkiG9w0BCQEWEm1lQG15aG9zdC5teWRvbWFpboIJAM81he6Avyo+MBMGA1Ud
JQQMMAoGCCsGAQUFBwMCMAsGA1UdDwQEAwIHgDANBgkqhkiG9w0BAQQFAAOCAgEA
qPpF1hZv1T1UXw5/ALaOuZ/W5ARgg5oCuiKseNAspFkNTzKLmPPhVOQMg0ETftjf
XwPLed9ow8TKlDa53R4Z2BvE/vnZXMMYPBKP5iEQVJOuv7CjgEkSD8SrJpiBLyNn
hZxrgCV/b+5AwQASl+lrvXPyubnyo7T4QYHOxqmRbIJ89xg8i8y3BJPl0shV9Z3b
GdBLN7UO/5j4SO4q6mwVRWw9LesP+f7hnDkxoLZEkw2tUDkad134pUKl3q5nV5Kz
fpsbG2oLEG0M8teKKlBwPfXzh/90U0y0GUL+3Dq277AeOQu3wRc+qx5PUE8tved8
eg9hS3cGRmiOWGdZb5+4kV4blsbvg0K6Bt4bvzfKV5Zi8ECQxJmZ8t/EVSBmyPL+
WYSkEXLjkgrT62qlLbj1HTKLGqwrNBDcm05siuQwHzl2xOvvtS56wqUM6nynjAS6
pd4qs6IRbI2V4ZonqvIRe/LOa/xmZ4WcAfDuu8NEhbhs2XKvfT2qXpnz9vfvaiDQ
jp/zXkciBV9+e2bk4w3QoNz6Vt3N8Vvsf+9lOyt1P/La4bNW6SIpY0FQFyfDSJJe
rzOhP8FOMw5YEG8RLTNgNWEg5EKOWAQCRYjOjQgjEK902KzljcmbH48dqy2xCiYn
+z8/CObeuzt+fE+xRlY0YEFtkeQH5XbErYiraaB6DEw=
-----END CERTIFICATE-----
