Certificate:
    Data:
        Version: 3 (0x2)
        Serial Number: 2182 (0x886)
    Signature Algorithm: md5WithRSAEncryption
        Issuer: C=US, ST=OH, L=Columbus, O=VikingVPN, OU=MyOrganizationalUnit, CN=VikingVPN CA/name=EasyRSA/emailAddress=me@myhost.mydomain
        Validity
            Not Before: Jun 27 15:50:31 2014 GMT
            Not After : Jun 24 15:50:31 2024 GMT
        Subject: CN=Client764Cert0b1b2e
        Subject Public Key Info:
            Public Key Algorithm: rsaEncryption
                Public-Key: (4096 bit)
                Modulus:
                    00:d1:b4:1b:2e:88:95:1e:11:7c:a8:31:ee:63:86:
                    c1:d6:1c:d9:84:6a:1d:fc:cf:2d:f6:d5:ef:46:00:
                    ac:9b:b0:ed:f8:a9:52:64:f6:0b:77:c7:9e:19:6d:
                    70:ce:4e:35:1d:de:75:27:89:88:70:35:1d:13:ba:
                    70:7c:f7:be:15:5f:c5:2c:05:53:1d:76:bd:5c:4a:
                    9b:bd:39:66:9f:6c:80:05:2f:bf:a2:02:29:38:9a:
                    52:24:70:13:24:07:cc:1b:af:4c:68:15:65:67:15:
                    e0:6e:bc:6a:a4:d5:2f:5c:76:93:09:a6:1e:04:39:
                    77:d2:18:96:ec:1c:65:a7:31:53:06:13:c1:34:74:
                    3c:8f:b1:92:3f:80:6b:84:97:56:04:d7:a4:e3:98:
                    59:c3:4e:6f:ce:12:fe:7d:a1:ff:27:7f:8a:03:1e:
                    3f:58:68:cd:d6:11:ba:f5:7e:1c:a6:52:a0:72:92:
                    9e:6f:14:8d:21:19:88:67:fa:53:75:45:1e:35:a2:
                    b2:1c:ec:ff:a8:15:0a:9d:66:68:b8:7a:ae:22:4a:
                    6d:91:0a:67:62:6b:0c:6b:c7:2b:1a:db:e5:58:8b:
                    dc:19:89:4c:2b:82:9c:08:dc:8f:2c:a6:27:a8:54:
                    c1:82:3e:cb:c8:3d:e6:3c:28:dc:a5:37:c0:fe:40:
                    df:f4:e6:0a:5f:fe:3c:f2:97:2d:2a:17:06:be:61:
                    7d:7f:12:ec:ee:90:01:0d:2d:96:3c:43:e6:98:bf:
                    9e:5d:a4:b5:a4:b1:81:e3:4f:4c:0b:d3:76:bc:ce:
                    8d:ee:78:90:ba:a5:14:90:9f:e5:e8:9d:c9:a1:09:
                    a7:0d:23:87:f4:a0:52:25:85:c9:82:4b:83:a1:18:
                    b4:2e:93:5d:aa:c9:6c:9a:33:aa:ba:ef:83:5b:aa:
                    7c:10:6f:48:44:8f:8e:d1:dd:54:1c:78:6f:53:27:
                    61:ed:42:54:fc:b7:d6:f4:8b:a8:45:5f:8c:27:47:
                    c9:25:01:8b:a1:dc:43:86:70:7a:e3:dc:04:9e:fb:
                    75:87:fa:f7:c3:92:98:5b:37:50:28:b4:0b:02:07:
                    c6:60:80:a0:9e:0e:9d:b3:55:5a:8e:f0:41:33:a9:
                    a2:97:aa:7a:ad:70:1c:a3:f9:44:f8:38:8f:f9:05:
                    f1:bd:4f:bc:d7:a3:0d:2d:44:7e:67:47:f1:ab:64:
                    13:0a:9a:63:62:54:49:56:b9:e2:4a:bb:42:46:3a:
                    ba:71:e4:72:0e:84:2b:2f:9f:3f:ac:63:53:91:60:
                    6b:97:f7:b5:63:d0:46:0b:bb:09:f4:e6:a1:8e:bb:
                    e9:96:f1:5c:1e:ce:8d:f9:bc:ad:02:64:a1:b0:f1:
                    89:b4:c1
                Exponent: 65537 (0x10001)
        X509v3 extensions:
            X509v3 Basic Constraints: 
                CA:FALSE
            Netscape Comment: 
                Easy-RSA Generated Certificate
            X509v3 Subject Key Identifier: 
                5A:DA:95:23:C0:96:85:6D:48:D8:5E:AF:AA:69:67:0E:5C:C6:AA:82
            X509v3 Authority Key Identifier: 
                keyid:12:CD:60:04:D2:A0:80:9E:70:ED:C6:99:B8:7B:2C:C6:52:FD:19:A1
                DirName:/C=US/ST=OH/L=Columbus/O=VikingVPN/OU=MyOrganizationalUnit/CN=VikingVPN CA/name=EasyRSA/emailAddress=me@myhost.mydomain
                serial:CF:35:85:EE:80:BF:2A:3E

            X509v3 Extended Key Usage: 
                TLS Web Client Authentication
            X509v3 Key Usage: 
                Digital Signature
    Signature Algorithm: md5WithRSAEncryption
         99:60:bc:39:fd:49:d0:7a:99:b9:a2:34:ea:7b:99:d1:0e:74:
         c1:08:40:25:30:15:b1:63:c7:28:5d:3b:fc:94:c6:a5:10:b0:
         d8:32:49:14:0e:e9:78:ac:b9:12:11:90:34:f6:f9:97:51:51:
         a1:e7:32:b2:22:94:00:2d:e4:02:e1:f7:19:60:14:3e:ca:06:
         b1:88:43:8b:d2:2c:fa:e3:7a:fa:cc:db:25:4e:d6:01:dc:0a:
         36:66:04:d3:fa:28:de:53:fb:d4:ae:8a:36:22:08:2d:8b:54:
         3f:a2:01:14:dc:6c:87:6b:15:11:01:fb:89:d1:27:fc:a5:3c:
         02:ac:03:41:88:69:c1:b5:4f:c6:20:02:6e:a2:45:a2:b4:34:
         28:27:17:5a:55:d6:56:de:23:63:e6:5d:ba:26:16:dd:fd:9d:
         6a:d0:c4:0c:7e:90:41:64:22:2c:92:07:36:56:1e:dd:ab:ba:
         01:8a:be:3d:04:6a:1c:a9:6d:a4:38:44:3b:e4:66:59:f4:c4:
         5b:8c:47:f2:74:0c:b4:44:1c:b5:68:d3:dc:04:cf:02:f0:a4:
         97:60:f1:19:82:75:9f:e7:91:96:73:e8:bc:1e:e1:50:68:5c:
         c6:c8:1d:f8:53:45:91:c5:2d:0f:0a:09:29:f6:48:20:34:7e:
         16:d0:bd:02:1d:ac:57:1b:48:28:b9:fe:53:a8:b8:ca:66:8a:
         92:a6:d4:08:73:a7:94:59:da:d9:ac:cd:50:0b:8e:53:a3:0f:
         18:bf:b1:6e:b1:28:7a:c5:d4:99:6a:98:cb:20:74:34:ee:97:
         5b:ac:dc:6b:07:73:44:07:2d:f6:f1:d3:72:23:34:fa:da:2a:
         b2:02:72:af:af:75:9d:08:fa:ab:2d:05:fe:e5:19:ad:a2:57:
         11:46:8f:9f:d0:14:82:c8:9f:35:79:0f:04:ac:c8:fb:7e:58:
         b4:69:8b:41:e3:d2:4e:b1:5d:91:59:83:56:c7:02:39:2d:78:
         03:e0:0a:f4:db:0f:33:62:23:8b:7d:bc:60:9a:83:9e:92:0f:
         d1:aa:9b:17:41:0f:6b:74:f0:56:91:07:39:7f:dc:6d:d5:48:
         69:4f:45:ba:4b:be:46:51:50:93:02:bd:3b:36:7a:2c:20:8a:
         56:cb:f2:0f:f7:1e:fb:b3:31:d4:a9:2f:5a:0c:9c:ba:c0:ff:
         9c:19:fc:92:93:55:83:4a:f5:0c:4e:0f:c0:38:ad:bf:57:66:
         6f:78:fc:a0:50:cc:df:bf:ae:ad:52:53:8c:c1:3d:35:ae:22:
         fa:d7:5e:88:2b:14:41:22:c4:e3:ff:e8:d6:e0:56:d7:58:0b:
         a3:5e:31:be:d9:60:8f:35
-----BEGIN CERTIFICATE-----
MIIGrDCCBJSgAwIBAgICCIYwDQYJKoZIhvcNAQEEBQAwgawxCzAJBgNVBAYTAlVT
MQswCQYDVQQIEwJPSDERMA8GA1UEBxMIQ29sdW1idXMxEjAQBgNVBAoTCVZpa2lu
Z1ZQTjEdMBsGA1UECxMUTXlPcmdhbml6YXRpb25hbFVuaXQxFTATBgNVBAMTDFZp
a2luZ1ZQTiBDQTEQMA4GA1UEKRMHRWFzeVJTQTEhMB8GCSqGSIb3DQEJARYSbWVA
bXlob3N0Lm15ZG9tYWluMB4XDTE0MDYyNzE1NTAzMVoXDTI0MDYyNDE1NTAzMVow
HjEcMBoGA1UEAxMTQ2xpZW50NzY0Q2VydDBiMWIyZTCCAiIwDQYJKoZIhvcNAQEB
BQADggIPADCCAgoCggIBANG0Gy6IlR4RfKgx7mOGwdYc2YRqHfzPLfbV70YArJuw
7fipUmT2C3fHnhltcM5ONR3edSeJiHA1HRO6cHz3vhVfxSwFUx12vVxKm705Zp9s
gAUvv6ICKTiaUiRwEyQHzBuvTGgVZWcV4G68aqTVL1x2kwmmHgQ5d9IYluwcZacx
UwYTwTR0PI+xkj+Aa4SXVgTXpOOYWcNOb84S/n2h/yd/igMeP1hozdYRuvV+HKZS
oHKSnm8UjSEZiGf6U3VFHjWishzs/6gVCp1maLh6riJKbZEKZ2JrDGvHKxrb5ViL
3BmJTCuCnAjcjyymJ6hUwYI+y8g95jwo3KU3wP5A3/TmCl/+PPKXLSoXBr5hfX8S
7O6QAQ0tljxD5pi/nl2ktaSxgeNPTAvTdrzOje54kLqlFJCf5eidyaEJpw0jh/Sg
UiWFyYJLg6EYtC6TXarJbJozqrrvg1uqfBBvSESPjtHdVBx4b1MnYe1CVPy31vSL
qEVfjCdHySUBi6HcQ4ZweuPcBJ77dYf698OSmFs3UCi0CwIHxmCAoJ4OnbNVWo7w
QTOpopeqeq1wHKP5RPg4j/kF8b1PvNejDS1EfmdH8atkEwqaY2JUSVa54kq7QkY6
unHkcg6EKy+fP6xjU5Fga5f3tWPQRgu7CfTmoY676ZbxXB7Ojfm8rQJkobDxibTB
AgMBAAGjggFjMIIBXzAJBgNVHRMEAjAAMC0GCWCGSAGG+EIBDQQgFh5FYXN5LVJT
QSBHZW5lcmF0ZWQgQ2VydGlmaWNhdGUwHQYDVR0OBBYEFFralSPAloVtSNher6pp
Zw5cxqqCMIHhBgNVHSMEgdkwgdaAFBLNYATSoICecO3Gmbh7LMZS/RmhoYGypIGv
MIGsMQswCQYDVQQGEwJVUzELMAkGA1UECBMCT0gxETAPBgNVBAcTCENvbHVtYnVz
MRIwEAYDVQQKEwlWaWtpbmdWUE4xHTAbBgNVBAsTFE15T3JnYW5pemF0aW9uYWxV
bml0MRUwEwYDVQQDEwxWaWtpbmdWUE4gQ0ExEDAOBgNVBCkTB0Vhc3lSU0ExITAf
BgkqhkiG9w0BCQEWEm1lQG15aG9zdC5teWRvbWFpboIJAM81he6Avyo+MBMGA1Ud
JQQMMAoGCCsGAQUFBwMCMAsGA1UdDwQEAwIHgDANBgkqhkiG9w0BAQQFAAOCAgEA
mWC8Of1J0HqZuaI06nuZ0Q50wQhAJTAVsWPHKF07/JTGpRCw2DJJFA7peKy5EhGQ
NPb5l1FRoecysiKUAC3kAuH3GWAUPsoGsYhDi9Is+uN6+szbJU7WAdwKNmYE0/oo
3lP71K6KNiIILYtUP6IBFNxsh2sVEQH7idEn/KU8AqwDQYhpwbVPxiACbqJForQ0
KCcXWlXWVt4jY+ZduiYW3f2datDEDH6QQWQiLJIHNlYe3au6AYq+PQRqHKltpDhE
O+RmWfTEW4xH8nQMtEQctWjT3ATPAvCkl2DxGYJ1n+eRlnPovB7hUGhcxsgd+FNF
kcUtDwoJKfZIIDR+FtC9Ah2sVxtIKLn+U6i4ymaKkqbUCHOnlFna2azNUAuOU6MP
GL+xbrEoesXUmWqYyyB0NO6XW6zcawdzRAct9vHTciM0+toqsgJyr691nQj6qy0F
/uUZraJXEUaPn9AUgsifNXkPBKzI+35YtGmLQePSTrFdkVmDVscCOS14A+AK9NsP
M2Iji328YJqDnpIP0aqbF0EPa3TwVpEHOX/cbdVIaU9Fuku+RlFQkwK9OzZ6LCCK
VsvyD/ce+7Mx1KkvWgycusD/nBn8kpNVg0r1DE4PwDitv1dmb3j8oFDM37+urVJT
jME9Na4i+tdeiCsUQSLE4//o1uBW11gLo14xvtlgjzU=
-----END CERTIFICATE-----
