Certificate:
    Data:
        Version: 3 (0x2)
        Serial Number: 2184 (0x888)
    Signature Algorithm: md5WithRSAEncryption
        Issuer: C=US, ST=OH, L=Columbus, O=VikingVPN, OU=MyOrganizationalUnit, CN=VikingVPN CA/name=EasyRSA/emailAddress=me@myhost.mydomain
        Validity
            Not Before: Jun 28 23:01:12 2014 GMT
            Not After : Jun 25 23:01:12 2024 GMT
        Subject: CN=Client767Cert298910
        Subject Public Key Info:
            Public Key Algorithm: rsaEncryption
                Public-Key: (4096 bit)
                Modulus:
                    00:a6:f4:f6:b9:62:09:0f:e9:f1:bf:bc:ac:46:26:
                    8f:6b:76:d0:1f:26:82:11:d9:65:0b:79:98:f2:1f:
                    91:96:db:0b:62:4c:cb:66:ba:e5:25:d5:90:63:73:
                    1d:93:40:ff:41:bd:fa:d7:de:ce:41:56:4f:62:70:
                    ab:6b:b1:e6:ba:d1:b3:3e:77:4f:51:04:e4:2d:1c:
                    f4:85:27:93:d1:2f:40:10:c5:19:04:e1:d0:bb:13:
                    24:5e:98:31:52:5c:1e:3f:bb:c5:e2:36:ca:ae:a6:
                    0e:a9:e3:6c:7c:61:3f:ad:4a:b6:92:28:0b:52:b3:
                    cd:ec:7d:b8:f2:33:6c:fc:f2:d4:46:4b:8e:f3:49:
                    bc:82:65:ac:aa:88:14:ff:aa:f1:d8:4d:13:f5:cc:
                    8b:4b:bb:b1:5f:77:95:3a:ea:8a:c3:b4:67:66:a1:
                    d4:c2:94:c8:05:a2:90:7d:91:00:c5:51:76:b6:fd:
                    81:4c:9e:75:b1:85:98:c1:96:3d:50:a2:64:02:ce:
                    04:6f:b3:d6:9c:76:5a:bb:e0:75:38:97:71:7f:a0:
                    d8:b6:33:ef:44:b4:af:f4:75:29:32:66:85:ae:e7:
                    b3:ec:a8:5e:6d:32:12:43:6a:98:2a:d1:f2:08:ec:
                    c1:66:20:e2:db:25:1e:75:7a:21:d0:4b:6b:ca:8e:
                    9c:34:6c:e6:85:39:c7:67:5b:4e:14:68:7d:19:5e:
                    08:83:a1:99:12:62:d9:b5:68:22:61:b6:37:21:83:
                    51:2c:58:ae:c4:01:fc:75:9a:5f:f3:a4:ba:a5:7d:
                    99:ee:f0:e0:70:57:60:bc:f8:f8:a8:96:8e:47:28:
                    c9:12:36:be:34:bb:72:2d:8d:f8:48:c1:db:15:a8:
                    24:3a:49:74:fa:cc:7c:a8:c0:c7:48:a6:45:66:73:
                    5f:92:3d:3c:f3:97:a4:93:8f:0f:81:c0:ce:de:57:
                    bf:e6:dc:cd:d6:e6:eb:c8:48:c8:3b:c6:b1:be:ff:
                    f2:c3:0d:45:4c:aa:1a:2b:88:af:5e:c7:88:06:3e:
                    a6:42:59:97:6f:38:92:75:90:1e:f5:ed:fb:ff:77:
                    a5:28:68:91:7b:53:22:37:1c:68:8f:4b:8a:be:de:
                    49:49:69:41:88:fd:d4:c9:d8:4f:29:8b:bc:5d:21:
                    de:36:8d:c3:84:c6:43:4b:14:8f:63:f1:1d:a0:75:
                    1e:87:0f:a2:e7:d5:95:20:82:3b:7a:1d:31:0c:5b:
                    93:d9:4f:b7:f2:7a:cf:28:53:df:cb:56:67:4b:20:
                    65:40:eb:99:42:31:af:c1:55:f8:d6:dc:dc:4c:bf:
                    f3:2f:bd:f5:48:5a:41:a3:d7:73:fb:d8:46:e6:d1:
                    6d:10:51
                Exponent: 65537 (0x10001)
        X509v3 extensions:
            X509v3 Basic Constraints: 
                CA:FALSE
            Netscape Comment: 
                Easy-RSA Generated Certificate
            X509v3 Subject Key Identifier: 
                9D:98:AC:F7:B1:2D:EA:3F:EA:8B:46:00:BA:E3:2D:A3:A8:90:34:3C
            X509v3 Authority Key Identifier: 
                keyid:12:CD:60:04:D2:A0:80:9E:70:ED:C6:99:B8:7B:2C:C6:52:FD:19:A1
                DirName:/C=US/ST=OH/L=Columbus/O=VikingVPN/OU=MyOrganizationalUnit/CN=VikingVPN CA/name=EasyRSA/emailAddress=me@myhost.mydomain
                serial:CF:35:85:EE:80:BF:2A:3E

            X509v3 Extended Key Usage: 
                TLS Web Client Authentication
            X509v3 Key Usage: 
                Digital Signature
    Signature Algorithm: md5WithRSAEncryption
         2a:f6:14:48:61:88:38:06:35:2d:6c:c3:1d:95:fb:49:ae:3e:
         e8:ca:a1:3d:14:03:65:9e:8b:24:05:fc:ac:3a:10:32:93:92:
         3c:80:4c:bf:9b:20:59:1a:bf:85:95:53:88:2a:8a:9f:2c:f9:
         68:ab:97:97:01:57:2e:05:c7:03:ee:23:07:67:4b:bc:5d:60:
         41:9c:e2:81:2f:00:77:ab:66:01:50:2c:29:6b:b2:af:28:d5:
         5f:cc:a4:e3:8e:f0:99:1c:4c:b4:72:8e:43:6e:77:dd:44:c6:
         bc:c8:e8:e6:43:fc:11:a8:86:0a:3c:d2:d2:33:0b:75:a4:b1:
         75:96:d7:12:73:86:ba:60:76:ac:5c:bc:2b:51:b0:2d:be:af:
         e2:bb:10:99:3a:d2:12:86:d4:9b:d3:79:67:bc:06:1a:be:96:
         41:33:7d:76:40:ff:d5:1a:89:ec:bc:16:80:e0:90:08:3a:77:
         04:fd:41:2d:b8:f0:a9:ab:9e:88:28:50:1f:75:28:a8:1f:8e:
         f5:ed:20:df:8f:5b:4d:b9:58:08:c5:67:a1:93:c9:47:f9:62:
         41:0c:19:47:c9:d9:9f:d1:20:2d:30:40:55:a8:62:78:38:2b:
         8c:88:d2:7c:fa:01:b8:3f:12:7e:8a:26:2a:8b:27:a6:9c:88:
         47:f2:88:89:17:b7:a2:28:44:58:96:d7:af:49:e0:48:04:e2:
         86:62:cd:26:89:cc:c7:2e:f1:2e:f8:fa:15:cd:ac:5a:05:55:
         c9:01:8b:83:f0:7d:01:c8:05:7a:49:d1:04:87:51:18:ed:bd:
         76:3b:37:a8:a5:ad:9d:05:a0:99:03:19:a1:68:79:c8:a9:4b:
         a5:a9:51:ed:79:d7:41:7c:94:9a:75:10:40:e6:2f:59:5d:06:
         3f:c9:af:e0:0f:e1:75:7f:78:29:51:2c:59:54:ad:77:d4:52:
         4f:2f:16:d8:c1:27:16:03:37:00:8f:b8:0a:d2:e3:49:d0:f0:
         de:e7:e8:f4:56:2c:bd:7b:53:b9:17:fa:e2:fe:31:cd:98:94:
         7d:50:f6:3e:ff:37:fc:52:1d:b0:d6:28:4e:37:59:3d:0a:3f:
         5c:52:3f:67:9c:f4:97:c9:24:54:54:94:9f:2a:a5:fe:56:42:
         80:4c:35:f2:5d:00:bb:d1:8f:e1:e8:1c:e6:37:5d:54:37:4b:
         eb:5e:c9:3e:78:1f:29:92:92:44:24:53:f2:12:a2:ee:98:fe:
         cb:2d:01:0d:eb:b2:3c:60:cf:b5:8e:4d:2a:8a:85:4a:84:dc:
         29:ca:81:57:9c:08:00:7a:b3:f6:7d:38:ed:33:2c:af:f8:fd:
         5f:f9:27:1c:31:8e:c2:e6
-----BEGIN CERTIFICATE-----
MIIGrDCCBJSgAwIBAgICCIgwDQYJKoZIhvcNAQEEBQAwgawxCzAJBgNVBAYTAlVT
MQswCQYDVQQIEwJPSDERMA8GA1UEBxMIQ29sdW1idXMxEjAQBgNVBAoTCVZpa2lu
Z1ZQTjEdMBsGA1UECxMUTXlPcmdhbml6YXRpb25hbFVuaXQxFTATBgNVBAMTDFZp
a2luZ1ZQTiBDQTEQMA4GA1UEKRMHRWFzeVJTQTEhMB8GCSqGSIb3DQEJARYSbWVA
bXlob3N0Lm15ZG9tYWluMB4XDTE0MDYyODIzMDExMloXDTI0MDYyNTIzMDExMlow
HjEcMBoGA1UEAxMTQ2xpZW50NzY3Q2VydDI5ODkxMDCCAiIwDQYJKoZIhvcNAQEB
BQADggIPADCCAgoCggIBAKb09rliCQ/p8b+8rEYmj2t20B8mghHZZQt5mPIfkZbb
C2JMy2a65SXVkGNzHZNA/0G9+tfezkFWT2Jwq2ux5rrRsz53T1EE5C0c9IUnk9Ev
QBDFGQTh0LsTJF6YMVJcHj+7xeI2yq6mDqnjbHxhP61KtpIoC1Kzzex9uPIzbPzy
1EZLjvNJvIJlrKqIFP+q8dhNE/XMi0u7sV93lTrqisO0Z2ah1MKUyAWikH2RAMVR
drb9gUyedbGFmMGWPVCiZALOBG+z1px2WrvgdTiXcX+g2LYz70S0r/R1KTJmha7n
s+yoXm0yEkNqmCrR8gjswWYg4tslHnV6IdBLa8qOnDRs5oU5x2dbThRofRleCIOh
mRJi2bVoImG2NyGDUSxYrsQB/HWaX/OkuqV9me7w4HBXYLz4+KiWjkcoyRI2vjS7
ci2N+EjB2xWoJDpJdPrMfKjAx0imRWZzX5I9PPOXpJOPD4HAzt5Xv+bczdbm68hI
yDvGsb7/8sMNRUyqGiuIr17HiAY+pkJZl284knWQHvXt+/93pShokXtTIjccaI9L
ir7eSUlpQYj91MnYTymLvF0h3jaNw4TGQ0sUj2PxHaB1HocPoufVlSCCO3odMQxb
k9lPt/J6zyhT38tWZ0sgZUDrmUIxr8FV+Nbc3Ey/8y+99UhaQaPXc/vYRubRbRBR
AgMBAAGjggFjMIIBXzAJBgNVHRMEAjAAMC0GCWCGSAGG+EIBDQQgFh5FYXN5LVJT
QSBHZW5lcmF0ZWQgQ2VydGlmaWNhdGUwHQYDVR0OBBYEFJ2YrPexLeo/6otGALrj
LaOokDQ8MIHhBgNVHSMEgdkwgdaAFBLNYATSoICecO3Gmbh7LMZS/RmhoYGypIGv
MIGsMQswCQYDVQQGEwJVUzELMAkGA1UECBMCT0gxETAPBgNVBAcTCENvbHVtYnVz
MRIwEAYDVQQKEwlWaWtpbmdWUE4xHTAbBgNVBAsTFE15T3JnYW5pemF0aW9uYWxV
bml0MRUwEwYDVQQDEwxWaWtpbmdWUE4gQ0ExEDAOBgNVBCkTB0Vhc3lSU0ExITAf
BgkqhkiG9w0BCQEWEm1lQG15aG9zdC5teWRvbWFpboIJAM81he6Avyo+MBMGA1Ud
JQQMMAoGCCsGAQUFBwMCMAsGA1UdDwQEAwIHgDANBgkqhkiG9w0BAQQFAAOCAgEA
KvYUSGGIOAY1LWzDHZX7Sa4+6MqhPRQDZZ6LJAX8rDoQMpOSPIBMv5sgWRq/hZVT
iCqKnyz5aKuXlwFXLgXHA+4jB2dLvF1gQZzigS8Ad6tmAVAsKWuyryjVX8yk447w
mRxMtHKOQ2533UTGvMjo5kP8EaiGCjzS0jMLdaSxdZbXEnOGumB2rFy8K1GwLb6v
4rsQmTrSEobUm9N5Z7wGGr6WQTN9dkD/1RqJ7LwWgOCQCDp3BP1BLbjwqaueiChQ
H3UoqB+O9e0g349bTblYCMVnoZPJR/liQQwZR8nZn9EgLTBAVahieDgrjIjSfPoB
uD8SfoomKosnppyIR/KIiRe3oihEWJbXr0ngSATihmLNJonMxy7xLvj6Fc2sWgVV
yQGLg/B9AcgFeknRBIdRGO29djs3qKWtnQWgmQMZoWh5yKlLpalR7XnXQXyUmnUQ
QOYvWV0GP8mv4A/hdX94KVEsWVStd9RSTy8W2MEnFgM3AI+4CtLjSdDw3ufo9FYs
vXtTuRf64v4xzZiUfVD2Pv83/FIdsNYoTjdZPQo/XFI/Z5z0l8kkVFSUnyql/lZC
gEw18l0Au9GP4egc5jddVDdL617JPngfKZKSRCRT8hKi7pj+yy0BDeuyPGDPtY5N
KoqFSoTcKcqBV5wIAHqz9n047TMsr/j9X/knHDGOwuY=
-----END CERTIFICATE-----
