Certificate:
    Data:
        Version: 3 (0x2)
        Serial Number: 2189 (0x88d)
    Signature Algorithm: md5WithRSAEncryption
        Issuer: C=US, ST=OH, L=Columbus, O=VikingVPN, OU=MyOrganizationalUnit, CN=VikingVPN CA/name=EasyRSA/emailAddress=me@myhost.mydomain
        Validity
            Not Before: Jun 29 13:34:18 2014 GMT
            Not After : Jun 26 13:34:18 2024 GMT
        Subject: CN=Client768Certa86373
        Subject Public Key Info:
            Public Key Algorithm: rsaEncryption
                Public-Key: (4096 bit)
                Modulus:
                    00:9a:8f:f0:72:0c:2c:81:0b:0c:8d:90:bf:54:a8:
                    58:f4:d2:0c:7a:aa:5f:e0:0f:42:0c:6a:7c:ff:c5:
                    7a:da:95:7b:8b:65:fb:75:bd:be:a9:41:ed:f0:d6:
                    23:0d:70:a1:30:e0:20:8d:09:21:f1:e6:b7:dd:cb:
                    94:40:f4:7f:b9:aa:32:c1:35:53:0e:a0:ae:c5:98:
                    91:0d:87:3a:3e:ae:ff:f7:8a:4d:f6:32:bb:f9:23:
                    8c:00:06:c4:2c:ce:ed:2f:33:6c:ef:e7:83:17:1d:
                    b9:a6:c1:74:df:79:70:c9:89:c3:2a:27:a3:c6:12:
                    8e:3c:ad:7a:7a:df:39:79:62:ed:e2:aa:9f:dd:1a:
                    5c:24:d1:ca:67:5e:99:01:2c:e6:4c:12:c0:20:31:
                    06:44:c1:3e:57:5e:fe:df:2e:3c:08:95:b4:e5:31:
                    6a:00:4e:ec:c8:15:fd:f1:15:d9:75:92:96:37:7b:
                    26:5d:66:4f:8c:5d:9d:0b:a0:7a:cf:ef:f9:39:45:
                    7e:52:2d:9b:99:35:bf:dd:71:78:49:68:ed:aa:b2:
                    fd:a4:c3:ce:f8:93:19:e4:45:5f:3f:cb:f7:94:82:
                    e3:dd:06:1a:df:21:b3:63:f7:51:34:97:cf:8d:35:
                    e2:e4:37:26:bc:ee:43:0a:a9:b7:db:6b:24:31:86:
                    c4:99:a3:83:80:67:ed:45:b3:86:1c:97:3d:d3:91:
                    35:c7:1c:8f:ed:06:48:c0:51:e9:7f:bc:0f:ac:8c:
                    07:3a:de:6a:f4:7f:d5:46:e0:00:5a:e8:a7:eb:24:
                    8e:64:00:7b:61:6e:50:28:4a:1d:f6:3e:6a:9a:75:
                    16:1c:3b:cd:2d:eb:ba:05:b1:5a:7a:a2:bf:0e:18:
                    e2:63:83:05:a9:70:68:09:cc:4f:b5:b8:6f:ad:45:
                    1b:8b:ce:26:f9:51:5d:7d:61:32:cd:d2:b8:0f:87:
                    44:a7:fa:9d:ad:d4:bb:34:38:09:37:4e:77:31:f9:
                    5b:c9:36:36:14:6d:b8:b7:4c:78:92:db:e2:b2:6b:
                    ab:a1:03:5f:50:22:7d:97:7a:2d:8d:46:ce:25:96:
                    be:0f:88:9e:f7:d7:58:9e:7f:f5:3a:9f:a8:f2:2c:
                    15:f5:c8:fa:31:d9:3c:79:c3:fd:2f:6b:ef:63:f3:
                    cb:ff:f5:0d:30:ca:d6:63:d4:f0:30:a7:1e:e3:22:
                    da:35:a4:4e:b3:7a:c3:ce:87:b8:9b:2c:c5:20:93:
                    5b:cc:aa:1a:5d:dd:00:97:bc:e3:81:72:0b:fa:d5:
                    61:71:96:e7:e5:e8:38:c6:84:c1:06:2c:99:e4:dd:
                    7a:b5:04:b9:71:02:a0:ea:df:27:42:91:e6:0b:28:
                    3b:83:2b
                Exponent: 65537 (0x10001)
        X509v3 extensions:
            X509v3 Basic Constraints: 
                CA:FALSE
            Netscape Comment: 
                Easy-RSA Generated Certificate
            X509v3 Subject Key Identifier: 
                39:2F:C2:58:55:A3:81:5C:47:81:26:60:3B:7A:4B:FE:4C:88:B1:EE
            X509v3 Authority Key Identifier: 
                keyid:12:CD:60:04:D2:A0:80:9E:70:ED:C6:99:B8:7B:2C:C6:52:FD:19:A1
                DirName:/C=US/ST=OH/L=Columbus/O=VikingVPN/OU=MyOrganizationalUnit/CN=VikingVPN CA/name=EasyRSA/emailAddress=me@myhost.mydomain
                serial:CF:35:85:EE:80:BF:2A:3E

            X509v3 Extended Key Usage: 
                TLS Web Client Authentication
            X509v3 Key Usage: 
                Digital Signature
    Signature Algorithm: md5WithRSAEncryption
         0d:69:cb:3d:7c:2b:f3:cf:15:5b:6a:a9:96:53:d4:2f:86:8c:
         43:98:8f:d3:a3:2b:2c:0e:7e:36:45:c7:49:01:5a:a8:87:00:
         b0:b1:56:1a:13:f5:b1:b4:bc:f5:f4:ca:9b:e5:5b:c3:a1:6f:
         30:c6:90:64:11:9a:e5:86:10:bc:d0:a6:7f:de:b5:74:65:2e:
         71:40:48:70:e8:6e:7e:dc:e4:5e:bf:b0:df:d5:69:6a:4b:7a:
         76:42:49:82:e6:1f:1d:aa:c3:43:73:fe:8a:f3:38:ce:91:dc:
         e8:a9:a2:43:3e:c8:ed:3d:7b:ef:8e:ed:ff:91:dd:3a:70:77:
         13:96:56:b6:72:73:49:1e:a2:e8:59:cd:11:89:59:fc:57:de:
         87:6e:03:8f:33:cc:cf:b1:46:2f:62:cc:97:52:d8:da:1f:57:
         b5:32:58:54:9e:b4:52:56:81:fb:4b:6b:d4:b9:d3:9f:af:67:
         db:ce:0c:15:a5:b9:0a:56:5d:ac:03:6e:39:c5:08:84:c8:d9:
         a2:8a:62:a5:86:42:4e:70:df:8d:8a:28:f0:11:5e:19:00:4d:
         0c:fc:5a:20:af:80:f0:dd:43:78:e2:bb:34:cc:dc:9b:c6:31:
         1c:1d:2b:80:8d:b1:d3:39:4d:cb:51:e7:9a:23:03:2a:de:a2:
         e2:e0:10:1b:68:d3:fd:9c:7a:24:50:ea:07:3e:6c:9d:06:8e:
         4d:eb:b0:8a:68:6d:e4:3e:6e:30:0b:28:20:ce:e6:12:59:e5:
         e7:aa:7d:c0:ec:9e:1e:31:03:41:e3:11:72:75:f8:df:67:c7:
         82:29:ef:e0:88:16:25:f2:62:5c:01:18:60:fd:77:96:3b:1d:
         b2:24:d7:7c:14:b7:b0:89:36:41:a2:0c:53:c1:cf:fc:99:de:
         19:8d:f0:86:9b:ca:df:c8:8c:78:57:0f:d2:e4:2d:74:ce:86:
         11:6f:0a:e4:fa:7c:a8:18:33:48:05:75:f7:a6:01:41:0d:6c:
         2e:f0:48:53:3f:0c:87:b9:d1:c3:8f:06:0d:1f:d0:de:68:0e:
         0c:20:a2:b1:cc:18:6b:dd:f3:1d:ed:80:ba:d5:c5:21:2b:12:
         fb:e1:e3:2d:86:f1:17:70:06:6e:02:3b:c2:d4:46:44:ed:9c:
         53:f1:13:e0:4b:36:0b:47:12:4d:e9:68:7e:76:9c:fe:da:60:
         bb:fe:b0:72:de:58:3f:72:4a:f0:62:56:de:d4:ef:2e:de:ba:
         48:6c:5c:ca:22:b4:6f:95:11:d1:4a:32:11:14:79:9c:56:80:
         d9:60:f6:96:d4:30:aa:38:86:ba:73:3c:30:28:8d:92:78:f6:
         38:8b:79:c7:cf:16:28:cf
-----BEGIN CERTIFICATE-----
MIIGrDCCBJSgAwIBAgICCI0wDQYJKoZIhvcNAQEEBQAwgawxCzAJBgNVBAYTAlVT
MQswCQYDVQQIEwJPSDERMA8GA1UEBxMIQ29sdW1idXMxEjAQBgNVBAoTCVZpa2lu
Z1ZQTjEdMBsGA1UECxMUTXlPcmdhbml6YXRpb25hbFVuaXQxFTATBgNVBAMTDFZp
a2luZ1ZQTiBDQTEQMA4GA1UEKRMHRWFzeVJTQTEhMB8GCSqGSIb3DQEJARYSbWVA
bXlob3N0Lm15ZG9tYWluMB4XDTE0MDYyOTEzMzQxOFoXDTI0MDYyNjEzMzQxOFow
HjEcMBoGA1UEAxMTQ2xpZW50NzY4Q2VydGE4NjM3MzCCAiIwDQYJKoZIhvcNAQEB
BQADggIPADCCAgoCggIBAJqP8HIMLIELDI2Qv1SoWPTSDHqqX+APQgxqfP/FetqV
e4tl+3W9vqlB7fDWIw1woTDgII0JIfHmt93LlED0f7mqMsE1Uw6grsWYkQ2HOj6u
//eKTfYyu/kjjAAGxCzO7S8zbO/ngxcduabBdN95cMmJwyono8YSjjytenrfOXli
7eKqn90aXCTRymdemQEs5kwSwCAxBkTBPlde/t8uPAiVtOUxagBO7MgV/fEV2XWS
ljd7Jl1mT4xdnQuges/v+TlFflItm5k1v91xeElo7aqy/aTDzviTGeRFXz/L95SC
490GGt8hs2P3UTSXz4014uQ3JrzuQwqpt9trJDGGxJmjg4Bn7UWzhhyXPdORNccc
j+0GSMBR6X+8D6yMBzreavR/1UbgAFrop+skjmQAe2FuUChKHfY+app1Fhw7zS3r
ugWxWnqivw4Y4mODBalwaAnMT7W4b61FG4vOJvlRXX1hMs3SuA+HRKf6na3UuzQ4
CTdOdzH5W8k2NhRtuLdMeJLb4rJrq6EDX1AifZd6LY1GziWWvg+InvfXWJ5/9Tqf
qPIsFfXI+jHZPHnD/S9r72Pzy//1DTDK1mPU8DCnHuMi2jWkTrN6w86HuJssxSCT
W8yqGl3dAJe844FyC/rVYXGW5+XoOMaEwQYsmeTderUEuXECoOrfJ0KR5gsoO4Mr
AgMBAAGjggFjMIIBXzAJBgNVHRMEAjAAMC0GCWCGSAGG+EIBDQQgFh5FYXN5LVJT
QSBHZW5lcmF0ZWQgQ2VydGlmaWNhdGUwHQYDVR0OBBYEFDkvwlhVo4FcR4EmYDt6
S/5MiLHuMIHhBgNVHSMEgdkwgdaAFBLNYATSoICecO3Gmbh7LMZS/RmhoYGypIGv
MIGsMQswCQYDVQQGEwJVUzELMAkGA1UECBMCT0gxETAPBgNVBAcTCENvbHVtYnVz
MRIwEAYDVQQKEwlWaWtpbmdWUE4xHTAbBgNVBAsTFE15T3JnYW5pemF0aW9uYWxV
bml0MRUwEwYDVQQDEwxWaWtpbmdWUE4gQ0ExEDAOBgNVBCkTB0Vhc3lSU0ExITAf
BgkqhkiG9w0BCQEWEm1lQG15aG9zdC5teWRvbWFpboIJAM81he6Avyo+MBMGA1Ud
JQQMMAoGCCsGAQUFBwMCMAsGA1UdDwQEAwIHgDANBgkqhkiG9w0BAQQFAAOCAgEA
DWnLPXwr888VW2qpllPUL4aMQ5iP06MrLA5+NkXHSQFaqIcAsLFWGhP1sbS89fTK
m+Vbw6FvMMaQZBGa5YYQvNCmf961dGUucUBIcOhuftzkXr+w39Vpakt6dkJJguYf
HarDQ3P+ivM4zpHc6KmiQz7I7T17747t/5HdOnB3E5ZWtnJzSR6i6FnNEYlZ/Ffe
h24DjzPMz7FGL2LMl1LY2h9XtTJYVJ60UlaB+0tr1LnTn69n284MFaW5ClZdrANu
OcUIhMjZoopipYZCTnDfjYoo8BFeGQBNDPxaIK+A8N1DeOK7NMzcm8YxHB0rgI2x
0zlNy1HnmiMDKt6i4uAQG2jT/Zx6JFDqBz5snQaOTeuwimht5D5uMAsoIM7mElnl
56p9wOyeHjEDQeMRcnX432fHginv4IgWJfJiXAEYYP13ljsdsiTXfBS3sIk2QaIM
U8HP/JneGY3whpvK38iMeFcP0uQtdM6GEW8K5Pp8qBgzSAV196YBQQ1sLvBIUz8M
h7nRw48GDR/Q3mgODCCiscwYa93zHe2AutXFISsS++HjLYbxF3AGbgI7wtRGRO2c
U/ET4Es2C0cSTelofnac/tpgu/6wct5YP3JK8GJW3tTvLt66SGxcyiK0b5UR0Uoy
ERR5nFaA2WD2ltQwqjiGunM8MCiNknj2OIt5x88WKM8=
-----END CERTIFICATE-----
