Certificate:
    Data:
        Version: 3 (0x2)
        Serial Number: 2190 (0x88e)
    Signature Algorithm: md5WithRSAEncryption
        Issuer: C=US, ST=OH, L=Columbus, O=VikingVPN, OU=MyOrganizationalUnit, CN=VikingVPN CA/name=EasyRSA/emailAddress=me@myhost.mydomain
        Validity
            Not Before: Jun 29 18:02:56 2014 GMT
            Not After : Jun 26 18:02:56 2024 GMT
        Subject: CN=Client686Cert511893
        Subject Public Key Info:
            Public Key Algorithm: rsaEncryption
                Public-Key: (4096 bit)
                Modulus:
                    00:ab:58:1b:9e:87:78:b9:3e:a0:63:e2:86:41:67:
                    f0:18:23:cb:8a:10:23:55:0d:d6:3e:3d:30:1e:3d:
                    ee:ec:75:d4:9a:89:dc:0c:43:ee:d2:53:51:64:3c:
                    8a:91:cd:a2:2b:53:72:32:e7:70:41:fb:22:0d:a9:
                    58:da:c7:06:e4:69:90:cf:e6:a5:d6:c2:c0:3a:eb:
                    37:1d:32:82:43:3a:c1:85:96:7f:b8:25:17:6f:5d:
                    b4:79:4a:9d:bf:04:06:2a:f4:4a:f4:19:32:37:00:
                    ee:f5:2c:cf:31:3e:ba:55:1e:19:e3:73:35:2c:35:
                    d8:e2:1a:bd:76:87:d9:30:7e:9e:c2:b1:e8:ec:1b:
                    1a:50:70:8a:28:ff:3a:42:a7:b6:ad:56:3e:7d:26:
                    f1:64:61:f5:67:2d:71:5a:dc:04:05:5b:e6:67:20:
                    e1:e0:8c:ba:e2:22:73:8c:cb:0d:5b:10:a6:77:e8:
                    2e:a8:8b:c9:02:38:0b:f6:86:7b:34:51:eb:0b:3b:
                    65:e3:b5:bb:1c:73:12:aa:d9:85:3f:2d:e0:99:d9:
                    79:b7:65:2d:67:b2:68:7d:c4:ee:0b:2c:54:01:01:
                    0d:23:09:15:f4:ef:85:08:84:f0:cb:61:2c:55:ee:
                    a5:79:10:5f:a7:d4:2b:74:a8:93:f3:7f:a0:5d:6d:
                    c8:ea:97:04:88:c2:56:f4:f8:81:90:4d:a3:25:fa:
                    de:6e:2d:e4:bf:d2:36:5d:7b:96:07:d9:1e:99:09:
                    6f:8a:ba:d9:29:82:57:f6:fd:2a:11:3a:d5:a5:28:
                    9b:a5:3c:f6:55:20:87:84:00:71:4c:0f:d3:fa:f4:
                    22:e3:74:67:13:b1:ca:7c:f9:28:05:2c:db:5c:2e:
                    80:22:ba:c2:0f:48:a4:84:b9:e3:de:c4:60:1a:cb:
                    c9:46:82:de:7f:b3:64:30:6f:e0:20:7e:b7:22:f8:
                    29:10:78:d6:75:7f:b4:29:96:64:64:5d:b6:be:6f:
                    4b:4c:a3:39:94:92:42:7b:aa:65:9d:87:51:1d:fe:
                    db:2d:92:9e:a7:bb:2b:c4:a3:e3:72:29:ac:bc:79:
                    45:ec:89:10:b8:29:21:b5:64:d2:5e:87:52:a4:3f:
                    9b:58:05:ac:6c:92:85:9c:f5:e8:2c:1a:59:4a:28:
                    00:e0:08:23:9f:36:3f:14:93:77:02:5d:72:43:dc:
                    c8:e3:26:5b:49:e9:8d:38:42:15:91:63:9e:41:55:
                    2f:2e:a6:ff:db:65:f5:79:88:c4:b3:05:a3:e7:34:
                    60:bf:37:9c:20:b9:8c:a9:0a:04:74:a6:5f:43:85:
                    10:63:55:78:4a:1d:c7:65:94:82:b4:c6:de:b7:d6:
                    55:47:35
                Exponent: 65537 (0x10001)
        X509v3 extensions:
            X509v3 Basic Constraints: 
                CA:FALSE
            Netscape Comment: 
                Easy-RSA Generated Certificate
            X509v3 Subject Key Identifier: 
                E6:02:18:35:F5:47:4F:E9:7C:B8:0B:5F:73:86:BE:AC:15:FB:EF:FA
            X509v3 Authority Key Identifier: 
                keyid:12:CD:60:04:D2:A0:80:9E:70:ED:C6:99:B8:7B:2C:C6:52:FD:19:A1
                DirName:/C=US/ST=OH/L=Columbus/O=VikingVPN/OU=MyOrganizationalUnit/CN=VikingVPN CA/name=EasyRSA/emailAddress=me@myhost.mydomain
                serial:CF:35:85:EE:80:BF:2A:3E

            X509v3 Extended Key Usage: 
                TLS Web Client Authentication
            X509v3 Key Usage: 
                Digital Signature
    Signature Algorithm: md5WithRSAEncryption
         a8:c2:e4:ec:66:55:af:a2:a6:37:22:c1:f3:1b:85:cf:82:b4:
         d7:62:6e:43:1d:3e:99:ca:48:b6:53:78:8c:31:6f:5f:aa:c9:
         23:52:35:c1:43:88:c0:75:4b:40:ad:67:a9:43:37:87:c8:94:
         ee:ff:2e:ff:4a:b4:28:4d:05:61:3a:43:b8:8d:2f:dd:39:58:
         26:ea:5d:0b:e6:34:74:81:35:1a:2a:48:0e:60:74:0e:77:2c:
         50:31:63:9a:49:e6:6f:95:0b:67:8b:4f:15:6e:43:1d:6b:d4:
         6e:c2:95:82:9b:bc:bd:08:a4:2e:d7:14:0c:70:40:e4:cc:fc:
         71:4b:df:2b:24:fb:21:29:de:46:01:68:ab:84:55:7a:8a:c5:
         80:29:47:29:06:cf:0f:ca:99:28:44:f5:b5:de:44:34:9a:ef:
         e8:ed:24:70:ab:6e:bc:3c:57:b6:31:7c:75:48:ee:dc:2f:5f:
         7e:a6:db:40:bc:5c:a3:cf:75:e9:79:53:38:0a:35:54:dc:f6:
         82:3b:0a:79:9a:8c:1d:a0:38:46:b8:db:c3:2a:60:c1:b6:0e:
         35:79:c4:04:11:af:f3:b7:07:79:1f:70:50:39:5e:68:8d:d4:
         e4:b8:cd:69:68:6f:f6:d2:9d:b2:a9:6b:2f:0c:07:08:d9:c5:
         c8:cd:eb:79:8f:a6:b5:a2:36:0b:e8:03:2b:90:7b:3a:58:6d:
         26:b2:c4:b5:f2:e0:1b:7f:ba:c7:f8:76:81:ea:8b:aa:e3:ab:
         df:65:8c:42:d6:24:5a:41:9e:e2:68:7b:3a:1f:d7:7d:20:08:
         3f:ca:c4:8a:bf:23:a8:f0:8f:cf:d2:2a:80:ab:e3:12:ae:96:
         4b:a7:70:81:4c:6d:a2:2b:b2:32:59:d6:cd:47:09:3e:02:99:
         b7:88:ef:b4:2d:3a:fe:91:11:3c:cf:e5:3a:5d:60:a5:7e:35:
         d6:03:e2:98:a6:d6:73:45:a2:c0:60:19:dc:2f:b8:a1:1d:96:
         45:64:e7:26:a0:c4:47:20:97:fe:7f:f0:cf:29:c4:c0:71:ab:
         12:53:51:e5:56:c0:b1:16:2e:dc:cf:fb:af:a6:9a:56:96:43:
         5e:87:4b:36:d1:2b:18:7b:0b:67:df:b5:93:bb:53:1f:8d:58:
         0d:52:db:8e:d2:b3:84:55:c8:e9:4e:5e:75:74:1e:e4:b5:3a:
         a3:92:64:b4:af:2b:a5:61:44:d5:57:6f:ab:88:1a:a2:0a:af:
         45:33:df:1b:1d:39:6c:e9:3b:db:02:ab:14:1e:84:b0:9a:ae:
         86:4f:e9:5c:24:16:b2:bf:ea:a8:57:be:70:ef:1e:ff:1d:cc:
         36:5b:ec:58:b7:83:b3:ab
-----BEGIN CERTIFICATE-----
MIIGrDCCBJSgAwIBAgICCI4wDQYJKoZIhvcNAQEEBQAwgawxCzAJBgNVBAYTAlVT
MQswCQYDVQQIEwJPSDERMA8GA1UEBxMIQ29sdW1idXMxEjAQBgNVBAoTCVZpa2lu
Z1ZQTjEdMBsGA1UECxMUTXlPcmdhbml6YXRpb25hbFVuaXQxFTATBgNVBAMTDFZp
a2luZ1ZQTiBDQTEQMA4GA1UEKRMHRWFzeVJTQTEhMB8GCSqGSIb3DQEJARYSbWVA
bXlob3N0Lm15ZG9tYWluMB4XDTE0MDYyOTE4MDI1NloXDTI0MDYyNjE4MDI1Nlow
HjEcMBoGA1UEAxMTQ2xpZW50Njg2Q2VydDUxMTg5MzCCAiIwDQYJKoZIhvcNAQEB
BQADggIPADCCAgoCggIBAKtYG56HeLk+oGPihkFn8Bgjy4oQI1UN1j49MB497ux1
1JqJ3AxD7tJTUWQ8ipHNoitTcjLncEH7Ig2pWNrHBuRpkM/mpdbCwDrrNx0ygkM6
wYWWf7glF29dtHlKnb8EBir0SvQZMjcA7vUszzE+ulUeGeNzNSw12OIavXaH2TB+
nsKx6OwbGlBwiij/OkKntq1WPn0m8WRh9WctcVrcBAVb5mcg4eCMuuIic4zLDVsQ
pnfoLqiLyQI4C/aGezRR6ws7ZeO1uxxzEqrZhT8t4JnZebdlLWeyaH3E7gssVAEB
DSMJFfTvhQiE8MthLFXupXkQX6fUK3Sok/N/oF1tyOqXBIjCVvT4gZBNoyX63m4t
5L/SNl17lgfZHpkJb4q62SmCV/b9KhE61aUom6U89lUgh4QAcUwP0/r0IuN0ZxOx
ynz5KAUs21wugCK6wg9IpIS5497EYBrLyUaC3n+zZDBv4CB+tyL4KRB41nV/tCmW
ZGRdtr5vS0yjOZSSQnuqZZ2HUR3+2y2Snqe7K8Sj43IprLx5ReyJELgpIbVk0l6H
UqQ/m1gFrGyShZz16CwaWUooAOAII582PxSTdwJdckPcyOMmW0npjThCFZFjnkFV
Ly6m/9tl9XmIxLMFo+c0YL83nCC5jKkKBHSmX0OFEGNVeEodx2WUgrTG3rfWVUc1
AgMBAAGjggFjMIIBXzAJBgNVHRMEAjAAMC0GCWCGSAGG+EIBDQQgFh5FYXN5LVJT
QSBHZW5lcmF0ZWQgQ2VydGlmaWNhdGUwHQYDVR0OBBYEFOYCGDX1R0/pfLgLX3OG
vqwV++/6MIHhBgNVHSMEgdkwgdaAFBLNYATSoICecO3Gmbh7LMZS/RmhoYGypIGv
MIGsMQswCQYDVQQGEwJVUzELMAkGA1UECBMCT0gxETAPBgNVBAcTCENvbHVtYnVz
MRIwEAYDVQQKEwlWaWtpbmdWUE4xHTAbBgNVBAsTFE15T3JnYW5pemF0aW9uYWxV
bml0MRUwEwYDVQQDEwxWaWtpbmdWUE4gQ0ExEDAOBgNVBCkTB0Vhc3lSU0ExITAf
BgkqhkiG9w0BCQEWEm1lQG15aG9zdC5teWRvbWFpboIJAM81he6Avyo+MBMGA1Ud
JQQMMAoGCCsGAQUFBwMCMAsGA1UdDwQEAwIHgDANBgkqhkiG9w0BAQQFAAOCAgEA
qMLk7GZVr6KmNyLB8xuFz4K012JuQx0+mcpItlN4jDFvX6rJI1I1wUOIwHVLQK1n
qUM3h8iU7v8u/0q0KE0FYTpDuI0v3TlYJupdC+Y0dIE1GipIDmB0DncsUDFjmknm
b5ULZ4tPFW5DHWvUbsKVgpu8vQikLtcUDHBA5Mz8cUvfKyT7ISneRgFoq4RVeorF
gClHKQbPD8qZKET1td5ENJrv6O0kcKtuvDxXtjF8dUju3C9ffqbbQLxco8916XlT
OAo1VNz2gjsKeZqMHaA4RrjbwypgwbYONXnEBBGv87cHeR9wUDleaI3U5LjNaWhv
9tKdsqlrLwwHCNnFyM3reY+mtaI2C+gDK5B7OlhtJrLEtfLgG3+6x/h2geqLquOr
32WMQtYkWkGe4mh7Oh/XfSAIP8rEir8jqPCPz9IqgKvjEq6WS6dwgUxtoiuyMlnW
zUcJPgKZt4jvtC06/pERPM/lOl1gpX411gPimKbWc0WiwGAZ3C+4oR2WRWTnJqDE
RyCX/n/wzynEwHGrElNR5VbAsRYu3M/7r6aaVpZDXodLNtErGHsLZ9+1k7tTH41Y
DVLbjtKzhFXI6U5edXQe5LU6o5JktK8rpWFE1Vdvq4gaogqvRTPfGx05bOk72wKr
FB6EsJquhk/pXCQWsr/qqFe+cO8e/x3MNlvsWLeDs6s=
-----END CERTIFICATE-----
