Certificate:
    Data:
        Version: 3 (0x2)
        Serial Number: 2207 (0x89f)
    Signature Algorithm: md5WithRSAEncryption
        Issuer: C=US, ST=OH, L=Columbus, O=VikingVPN, OU=MyOrganizationalUnit, CN=VikingVPN CA/name=EasyRSA/emailAddress=me@myhost.mydomain
        Validity
            Not Before: Jul  3 19:30:31 2014 GMT
            Not After : Jun 30 19:30:31 2024 GMT
        Subject: CN=Client319Certe665fb
        Subject Public Key Info:
            Public Key Algorithm: rsaEncryption
                Public-Key: (4096 bit)
                Modulus:
                    00:ef:ce:7b:06:85:5c:a6:12:48:a0:b5:c6:2c:ae:
                    2c:93:58:6c:c1:bd:c0:48:01:f3:e6:4e:c2:96:5f:
                    e1:a9:e0:b1:9b:7b:09:3a:b9:0c:ab:93:1f:72:6a:
                    69:73:f9:c1:2b:76:02:63:6e:25:b7:e6:26:9d:1b:
                    83:95:94:0b:13:26:86:4a:48:d8:75:a2:13:3f:df:
                    20:5f:59:5d:b2:65:ef:f5:50:8f:58:84:bb:dc:f5:
                    67:47:34:d5:55:42:33:aa:d3:a8:ac:65:6d:2e:19:
                    b4:c2:c2:ec:eb:f6:8d:e4:fa:7b:b8:16:72:45:c7:
                    57:de:79:8f:a5:1c:13:5e:57:33:23:81:24:ee:bf:
                    47:34:73:80:8f:23:16:89:1b:d4:fc:cd:01:04:ef:
                    25:31:70:ff:b7:7f:36:5f:c5:bd:a2:4c:bc:74:bb:
                    9f:3e:63:f4:cc:41:0e:fe:25:23:b5:62:8b:1d:03:
                    73:91:1c:78:67:7f:b8:4b:70:3a:57:eb:b3:7b:39:
                    10:67:18:b1:f1:94:9f:f0:81:a8:c2:9c:f1:2b:dc:
                    77:fd:c4:0a:7f:7e:0d:f6:9a:71:87:28:fc:89:85:
                    3f:83:2a:a8:cc:83:ed:22:11:b5:03:c5:45:34:31:
                    f6:d1:86:90:92:c9:04:a6:d7:f4:62:61:78:54:4d:
                    89:2d:31:59:05:64:58:a4:38:a1:cd:03:33:11:e4:
                    c0:5b:d9:01:38:16:e0:89:dc:a5:ef:05:c1:f4:cd:
                    86:ab:8b:f0:22:26:dc:0a:eb:3f:6f:5a:bf:58:81:
                    4d:75:52:75:fa:b4:4b:18:64:3c:40:90:ab:a6:a3:
                    67:58:24:fa:77:db:b2:6c:4a:dc:9c:80:8b:e6:99:
                    af:e9:96:ad:57:f1:32:2f:8d:63:99:51:03:89:ed:
                    63:21:41:95:2e:53:52:78:6b:8d:50:d3:b4:18:69:
                    d4:fb:41:36:59:d1:93:b6:30:f4:93:b5:c4:66:1f:
                    dd:c9:18:7d:fe:10:64:a2:3b:6d:04:9f:71:4a:db:
                    4d:a7:6f:da:11:ee:bf:5c:90:cd:74:47:07:dc:20:
                    0a:de:a4:46:37:03:d4:a3:a0:9f:c0:7a:95:07:81:
                    c1:30:75:ac:db:87:ee:82:2c:e7:63:18:11:68:3b:
                    70:01:a4:6a:06:21:bf:4d:b5:81:62:fd:5d:6a:a5:
                    92:3d:a4:67:3e:cb:4a:b6:19:34:be:ee:8a:55:e3:
                    ec:2e:8b:44:51:38:59:3d:c8:e3:48:0c:74:5c:a0:
                    96:56:3f:86:2b:99:38:e4:41:cd:21:e6:3b:b5:2a:
                    1c:48:e3:2e:87:be:33:ba:43:48:c3:b9:16:62:64:
                    b8:83:49
                Exponent: 65537 (0x10001)
        X509v3 extensions:
            X509v3 Basic Constraints: 
                CA:FALSE
            Netscape Comment: 
                Easy-RSA Generated Certificate
            X509v3 Subject Key Identifier: 
                6D:1E:37:34:D7:1D:3C:31:46:07:A6:90:43:19:84:CA:C7:ED:26:25
            X509v3 Authority Key Identifier: 
                keyid:12:CD:60:04:D2:A0:80:9E:70:ED:C6:99:B8:7B:2C:C6:52:FD:19:A1
                DirName:/C=US/ST=OH/L=Columbus/O=VikingVPN/OU=MyOrganizationalUnit/CN=VikingVPN CA/name=EasyRSA/emailAddress=me@myhost.mydomain
                serial:CF:35:85:EE:80:BF:2A:3E

            X509v3 Extended Key Usage: 
                TLS Web Client Authentication
            X509v3 Key Usage: 
                Digital Signature
    Signature Algorithm: md5WithRSAEncryption
         29:92:f4:8a:1d:5c:18:44:b7:af:85:65:4a:45:59:1e:a5:1c:
         03:ed:15:63:4e:ee:06:87:66:1c:f6:a2:07:e5:b3:6a:7f:91:
         a2:b9:8a:7d:4f:d8:88:66:68:07:7d:59:b6:85:b9:66:d9:08:
         74:9a:48:ea:e3:bc:36:af:4d:0a:f6:d0:b2:12:34:b8:56:92:
         ed:71:0f:81:2a:11:7d:1d:c3:93:23:f3:9a:e6:1f:cb:91:68:
         5b:03:4c:12:b4:21:11:ac:b3:9c:26:b6:18:ab:dc:b7:19:10:
         a7:3b:86:23:62:bd:f3:3c:53:2e:17:ae:b8:57:75:64:3e:af:
         3d:03:65:0c:39:a2:ce:ed:6c:bd:eb:e5:6f:71:ad:f1:fb:37:
         5d:55:e3:7a:65:b5:e2:48:1b:17:4b:3b:77:73:ae:94:01:24:
         a9:72:09:dd:5a:83:7a:f0:10:44:14:9b:05:17:d7:74:ae:3b:
         73:b4:67:e5:17:1b:45:f5:56:c0:f3:cd:4e:91:71:05:ff:ee:
         d8:0f:f5:ba:ee:2b:0d:12:77:1a:b4:4c:a4:0a:93:0f:f0:93:
         29:1a:c7:95:cd:64:0d:09:d7:41:5e:5d:96:76:40:bf:27:db:
         9a:a6:a7:ca:63:5d:fc:c6:df:0c:0f:44:ed:b7:04:64:3e:35:
         c3:af:b8:41:37:cd:87:a0:98:5d:49:01:83:71:a9:9f:0d:f6:
         13:71:50:0e:f5:4c:55:05:54:40:54:b2:f4:f4:c3:64:09:47:
         0e:87:51:f4:0f:ff:67:e6:92:e6:46:b9:0a:b1:ac:11:69:e9:
         b2:61:47:19:09:e5:98:9d:49:8f:49:db:f1:d7:52:27:a4:93:
         af:ed:47:e1:10:2f:38:38:d2:85:27:45:14:58:06:7e:d7:67:
         e7:c2:35:8b:ef:73:4b:4a:7f:5e:93:f1:3b:e9:b6:dd:c6:ff:
         bc:29:a3:d3:d2:ad:19:b3:92:bc:64:30:6e:a7:16:94:61:5f:
         ff:e9:15:af:d5:c5:16:f3:23:6f:16:a5:ff:73:45:3a:5c:97:
         01:0e:df:82:96:20:24:91:b5:07:b4:bb:ae:ac:0f:24:4e:c8:
         09:d2:36:2c:e0:6d:a0:e1:f5:89:da:0e:79:e8:dd:cc:81:ab:
         e2:1f:fc:a0:49:f1:00:18:8a:b1:16:12:63:19:f2:46:37:05:
         f0:65:3e:00:33:d4:4d:15:d5:9c:1b:5f:27:56:49:0c:53:11:
         0b:8b:55:a1:0e:6e:16:eb:7f:be:94:5b:51:5f:7b:42:99:cf:
         ea:34:1d:63:ce:88:50:d9:88:bb:a4:b5:4a:8f:99:3e:b0:3a:
         eb:94:24:9a:9f:f5:2e:43
-----BEGIN CERTIFICATE-----
MIIGrDCCBJSgAwIBAgICCJ8wDQYJKoZIhvcNAQEEBQAwgawxCzAJBgNVBAYTAlVT
MQswCQYDVQQIEwJPSDERMA8GA1UEBxMIQ29sdW1idXMxEjAQBgNVBAoTCVZpa2lu
Z1ZQTjEdMBsGA1UECxMUTXlPcmdhbml6YXRpb25hbFVuaXQxFTATBgNVBAMTDFZp
a2luZ1ZQTiBDQTEQMA4GA1UEKRMHRWFzeVJTQTEhMB8GCSqGSIb3DQEJARYSbWVA
bXlob3N0Lm15ZG9tYWluMB4XDTE0MDcwMzE5MzAzMVoXDTI0MDYzMDE5MzAzMVow
HjEcMBoGA1UEAxMTQ2xpZW50MzE5Q2VydGU2NjVmYjCCAiIwDQYJKoZIhvcNAQEB
BQADggIPADCCAgoCggIBAO/OewaFXKYSSKC1xiyuLJNYbMG9wEgB8+ZOwpZf4ang
sZt7CTq5DKuTH3JqaXP5wSt2AmNuJbfmJp0bg5WUCxMmhkpI2HWiEz/fIF9ZXbJl
7/VQj1iEu9z1Z0c01VVCM6rTqKxlbS4ZtMLC7Ov2jeT6e7gWckXHV955j6UcE15X
MyOBJO6/RzRzgI8jFokb1PzNAQTvJTFw/7d/Nl/FvaJMvHS7nz5j9MxBDv4lI7Vi
ix0Dc5EceGd/uEtwOlfrs3s5EGcYsfGUn/CBqMKc8Svcd/3ECn9+DfaacYco/ImF
P4MqqMyD7SIRtQPFRTQx9tGGkJLJBKbX9GJheFRNiS0xWQVkWKQ4oc0DMxHkwFvZ
ATgW4Incpe8FwfTNhquL8CIm3ArrP29av1iBTXVSdfq0SxhkPECQq6ajZ1gk+nfb
smxK3JyAi+aZr+mWrVfxMi+NY5lRA4ntYyFBlS5TUnhrjVDTtBhp1PtBNlnRk7Yw
9JO1xGYf3ckYff4QZKI7bQSfcUrbTadv2hHuv1yQzXRHB9wgCt6kRjcD1KOgn8B6
lQeBwTB1rNuH7oIs52MYEWg7cAGkagYhv021gWL9XWqlkj2kZz7LSrYZNL7uilXj
7C6LRFE4WT3I40gMdFygllY/hiuZOORBzSHmO7UqHEjjLoe+M7pDSMO5FmJkuINJ
AgMBAAGjggFjMIIBXzAJBgNVHRMEAjAAMC0GCWCGSAGG+EIBDQQgFh5FYXN5LVJT
QSBHZW5lcmF0ZWQgQ2VydGlmaWNhdGUwHQYDVR0OBBYEFG0eNzTXHTwxRgemkEMZ
hMrH7SYlMIHhBgNVHSMEgdkwgdaAFBLNYATSoICecO3Gmbh7LMZS/RmhoYGypIGv
MIGsMQswCQYDVQQGEwJVUzELMAkGA1UECBMCT0gxETAPBgNVBAcTCENvbHVtYnVz
MRIwEAYDVQQKEwlWaWtpbmdWUE4xHTAbBgNVBAsTFE15T3JnYW5pemF0aW9uYWxV
bml0MRUwEwYDVQQDEwxWaWtpbmdWUE4gQ0ExEDAOBgNVBCkTB0Vhc3lSU0ExITAf
BgkqhkiG9w0BCQEWEm1lQG15aG9zdC5teWRvbWFpboIJAM81he6Avyo+MBMGA1Ud
JQQMMAoGCCsGAQUFBwMCMAsGA1UdDwQEAwIHgDANBgkqhkiG9w0BAQQFAAOCAgEA
KZL0ih1cGES3r4VlSkVZHqUcA+0VY07uBodmHPaiB+Wzan+RormKfU/YiGZoB31Z
toW5ZtkIdJpI6uO8Nq9NCvbQshI0uFaS7XEPgSoRfR3DkyPzmuYfy5FoWwNMErQh
EayznCa2GKvctxkQpzuGI2K98zxTLheuuFd1ZD6vPQNlDDmizu1svevlb3Gt8fs3
XVXjemW14kgbF0s7d3OulAEkqXIJ3VqDevAQRBSbBRfXdK47c7Rn5RcbRfVWwPPN
TpFxBf/u2A/1uu4rDRJ3GrRMpAqTD/CTKRrHlc1kDQnXQV5dlnZAvyfbmqanymNd
/MbfDA9E7bcEZD41w6+4QTfNh6CYXUkBg3Gpnw32E3FQDvVMVQVUQFSy9PTDZAlH
DodR9A//Z+aS5ka5CrGsEWnpsmFHGQnlmJ1Jj0nb8ddSJ6STr+1H4RAvODjShSdF
FFgGftdn58I1i+9zS0p/XpPxO+m23cb/vCmj09KtGbOSvGQwbqcWlGFf/+kVr9XF
FvMjbxal/3NFOlyXAQ7fgpYgJJG1B7S7rqwPJE7ICdI2LOBtoOH1idoOeejdzIGr
4h/8oEnxABiKsRYSYxnyRjcF8GU+ADPUTRXVnBtfJ1ZJDFMRC4tVoQ5uFut/vpRb
UV97QpnP6jQdY86IUNmIu6S1So+ZPrA665Qkmp/1LkM=
-----END CERTIFICATE-----
