Certificate:
    Data:
        Version: 3 (0x2)
        Serial Number: 2241 (0x8c1)
    Signature Algorithm: md5WithRSAEncryption
        Issuer: C=US, ST=OH, L=Columbus, O=VikingVPN, OU=MyOrganizationalUnit, CN=VikingVPN CA/name=EasyRSA/emailAddress=me@myhost.mydomain
        Validity
            Not Before: Jul 11 12:59:03 2014 GMT
            Not After : Jul  8 12:59:03 2024 GMT
        Subject: CN=Client791Cert554249
        Subject Public Key Info:
            Public Key Algorithm: rsaEncryption
                Public-Key: (4096 bit)
                Modulus:
                    00:b3:c5:f5:9c:d1:03:bc:15:12:64:81:f7:74:e9:
                    9a:a7:3d:53:f5:04:5b:a0:66:14:ea:74:9b:db:26:
                    bd:80:f3:77:8b:02:b5:c6:68:28:6d:74:04:72:83:
                    83:13:4b:e4:ca:da:66:35:e1:28:02:a5:ad:fa:3b:
                    72:1d:4a:a4:91:ff:06:3a:eb:46:b4:d9:9a:ed:1c:
                    30:c9:d0:4c:ba:b4:92:41:2c:4d:2d:9f:67:a7:87:
                    73:ab:af:59:a9:ee:23:d9:df:99:1c:ee:93:66:2f:
                    e1:da:c1:65:27:a6:a3:26:8f:16:d1:eb:23:43:bf:
                    e4:8d:08:d3:ca:3a:66:88:50:7c:57:ac:5f:db:99:
                    cd:ca:b3:c3:fe:48:32:d0:2c:69:93:b6:8c:22:fd:
                    92:e1:d6:41:28:14:11:7d:8b:0b:3d:6a:24:0d:3b:
                    4a:53:11:03:80:29:d5:0f:33:cd:81:53:21:5a:13:
                    e8:b3:2b:6c:6a:13:43:28:35:6f:24:27:2f:6e:0e:
                    9e:ac:85:6b:e4:47:db:86:b1:4d:d9:5d:52:eb:3f:
                    db:cd:90:f1:5d:60:07:38:30:54:bd:3b:bb:ed:30:
                    a5:26:d4:62:c2:a9:b0:69:c8:69:8c:d0:06:8f:74:
                    c6:05:74:40:d7:af:ea:1a:ed:cb:67:09:68:b8:4d:
                    5e:9c:53:83:93:74:91:f2:d9:ed:d9:4b:8f:19:6b:
                    40:91:f6:51:3e:c2:1a:18:ef:08:56:c4:c5:fa:85:
                    75:b1:26:0b:d3:fa:55:67:8f:06:08:95:00:ce:00:
                    86:c6:4b:31:c3:d8:1f:c4:47:18:08:9b:33:a8:28:
                    a5:de:7f:3e:4f:07:82:87:06:a8:e5:8a:1e:21:78:
                    4f:92:a8:55:13:86:9e:df:d3:39:b4:bb:0d:42:26:
                    7d:dd:ac:43:29:0f:2f:4d:9b:58:a7:77:67:b3:ca:
                    5f:99:32:9b:52:74:1d:3d:14:4b:1f:f6:cf:35:86:
                    86:6e:a0:89:b4:df:ab:55:28:b3:7d:44:bc:79:8b:
                    63:8c:e1:3d:43:c4:41:66:6b:96:51:8e:a8:28:8f:
                    00:93:c3:28:13:45:81:fe:f1:1c:fd:8f:8c:14:6f:
                    65:60:b6:d9:d6:08:46:46:98:4a:9b:00:ff:a7:1e:
                    ed:9c:c8:43:95:a6:b3:dc:38:3f:71:42:b8:45:19:
                    5b:68:81:02:39:8c:ff:03:9a:02:2d:16:4b:ad:b9:
                    1a:e2:21:44:e3:1b:a0:d2:39:58:21:21:8a:93:0f:
                    ba:24:b4:de:bd:86:e0:a1:de:18:b6:0f:1f:2d:88:
                    2e:36:8f:4a:b7:ee:ee:13:5b:6a:8e:89:6e:42:16:
                    be:a7:97
                Exponent: 65537 (0x10001)
        X509v3 extensions:
            X509v3 Basic Constraints: 
                CA:FALSE
            Netscape Comment: 
                Easy-RSA Generated Certificate
            X509v3 Subject Key Identifier: 
                20:85:13:22:ED:4E:A5:7D:42:2A:93:B8:90:82:56:5D:29:C4:7A:3D
            X509v3 Authority Key Identifier: 
                keyid:12:CD:60:04:D2:A0:80:9E:70:ED:C6:99:B8:7B:2C:C6:52:FD:19:A1
                DirName:/C=US/ST=OH/L=Columbus/O=VikingVPN/OU=MyOrganizationalUnit/CN=VikingVPN CA/name=EasyRSA/emailAddress=me@myhost.mydomain
                serial:CF:35:85:EE:80:BF:2A:3E

            X509v3 Extended Key Usage: 
                TLS Web Client Authentication
            X509v3 Key Usage: 
                Digital Signature
    Signature Algorithm: md5WithRSAEncryption
         d2:a3:96:a0:dd:2c:ee:2f:10:fe:1c:7e:5b:a8:8e:de:43:d0:
         74:32:f5:43:e2:35:be:a0:5e:c4:d3:36:b0:51:25:a8:f9:30:
         a0:df:fe:03:bb:75:18:fe:c4:73:89:64:15:13:c9:9a:fd:8a:
         5c:c7:ff:98:fc:63:ca:5e:e9:06:63:02:e8:68:ed:44:3b:e2:
         aa:de:30:7c:8b:cf:de:c7:37:cd:6e:98:f4:f1:b2:9d:67:51:
         fc:6f:1f:36:4e:0c:f7:d4:14:82:9e:b3:bf:01:6f:84:7f:c7:
         5c:fb:92:47:50:9b:64:11:b6:92:7d:82:aa:b1:e4:3b:83:7e:
         8e:37:d8:1e:df:02:5d:82:5f:7f:82:2d:24:51:ef:f1:30:e1:
         be:1a:db:5d:85:35:15:0c:fb:a8:31:bc:b3:ed:36:85:2d:61:
         27:79:52:12:09:cd:cd:d9:f3:62:47:45:1d:0e:af:95:68:c8:
         9c:ee:43:68:76:9f:54:e3:ff:b4:c1:63:5a:9f:35:d2:7b:7f:
         9c:d4:9b:a9:3d:28:d6:e2:4b:05:c6:4a:09:43:6f:64:56:b4:
         26:c6:03:35:77:ce:9b:bf:d7:c2:ab:d6:ab:5d:05:d8:43:e5:
         04:34:04:05:31:f2:67:14:43:7e:7a:32:2e:76:86:5e:57:12:
         bf:24:ef:6f:fe:1f:09:85:9b:2b:91:75:b3:18:c5:ba:6a:02:
         90:09:22:97:ca:a4:a2:5f:40:09:4b:01:7d:28:fc:0f:57:92:
         31:d9:88:79:9c:02:22:ca:d9:9a:ca:0a:ca:8b:f5:73:c4:d3:
         3a:61:5f:c3:96:be:68:3a:dc:2b:ac:f8:38:92:9c:da:4b:d3:
         ec:ae:73:28:97:bd:ba:20:64:04:7c:f1:83:00:a3:4f:b4:4f:
         ca:5b:53:e7:5c:d0:ff:5f:93:23:d1:5f:f7:27:cc:c1:fa:44:
         f0:6d:9c:4e:2d:b9:9b:30:b0:a4:07:b0:6f:8b:71:4f:5d:c5:
         ce:57:3f:25:72:4b:86:83:29:1c:01:59:46:10:d0:ba:d3:f3:
         4e:38:e6:4f:88:85:24:1d:91:f8:2c:43:c1:bc:70:a1:40:dd:
         09:2e:6b:6e:3e:47:b0:79:9b:f4:fa:05:36:a5:89:5b:ea:17:
         e7:4d:89:1e:58:50:df:02:d9:26:1d:89:8f:60:e8:83:f7:fc:
         52:32:14:bd:1d:bc:23:9c:09:62:49:38:33:19:1e:c9:bc:e7:
         2d:53:8b:75:2c:21:52:46:b5:a2:bf:69:e5:76:4f:9b:b8:30:
         b2:ee:d0:c4:69:8e:69:f5:f1:a8:ff:66:4a:7a:86:dc:03:68:
         00:fb:05:57:dc:f2:ed:06
-----BEGIN CERTIFICATE-----
MIIGrDCCBJSgAwIBAgICCMEwDQYJKoZIhvcNAQEEBQAwgawxCzAJBgNVBAYTAlVT
MQswCQYDVQQIEwJPSDERMA8GA1UEBxMIQ29sdW1idXMxEjAQBgNVBAoTCVZpa2lu
Z1ZQTjEdMBsGA1UECxMUTXlPcmdhbml6YXRpb25hbFVuaXQxFTATBgNVBAMTDFZp
a2luZ1ZQTiBDQTEQMA4GA1UEKRMHRWFzeVJTQTEhMB8GCSqGSIb3DQEJARYSbWVA
bXlob3N0Lm15ZG9tYWluMB4XDTE0MDcxMTEyNTkwM1oXDTI0MDcwODEyNTkwM1ow
HjEcMBoGA1UEAxMTQ2xpZW50NzkxQ2VydDU1NDI0OTCCAiIwDQYJKoZIhvcNAQEB
BQADggIPADCCAgoCggIBALPF9ZzRA7wVEmSB93Tpmqc9U/UEW6BmFOp0m9smvYDz
d4sCtcZoKG10BHKDgxNL5MraZjXhKAKlrfo7ch1KpJH/BjrrRrTZmu0cMMnQTLq0
kkEsTS2fZ6eHc6uvWanuI9nfmRzuk2Yv4drBZSemoyaPFtHrI0O/5I0I08o6ZohQ
fFesX9uZzcqzw/5IMtAsaZO2jCL9kuHWQSgUEX2LCz1qJA07SlMRA4Ap1Q8zzYFT
IVoT6LMrbGoTQyg1byQnL24OnqyFa+RH24axTdldUus/282Q8V1gBzgwVL07u+0w
pSbUYsKpsGnIaYzQBo90xgV0QNev6hrty2cJaLhNXpxTg5N0kfLZ7dlLjxlrQJH2
UT7CGhjvCFbExfqFdbEmC9P6VWePBgiVAM4AhsZLMcPYH8RHGAibM6gopd5/Pk8H
gocGqOWKHiF4T5KoVROGnt/TObS7DUImfd2sQykPL02bWKd3Z7PKX5kym1J0HT0U
Sx/2zzWGhm6gibTfq1Uos31EvHmLY4zhPUPEQWZrllGOqCiPAJPDKBNFgf7xHP2P
jBRvZWC22dYIRkaYSpsA/6ce7ZzIQ5Wms9w4P3FCuEUZW2iBAjmM/wOaAi0WS625
GuIhROMboNI5WCEhipMPuiS03r2G4KHeGLYPHy2ILjaPSrfu7hNbao6JbkIWvqeX
AgMBAAGjggFjMIIBXzAJBgNVHRMEAjAAMC0GCWCGSAGG+EIBDQQgFh5FYXN5LVJT
QSBHZW5lcmF0ZWQgQ2VydGlmaWNhdGUwHQYDVR0OBBYEFCCFEyLtTqV9QiqTuJCC
Vl0pxHo9MIHhBgNVHSMEgdkwgdaAFBLNYATSoICecO3Gmbh7LMZS/RmhoYGypIGv
MIGsMQswCQYDVQQGEwJVUzELMAkGA1UECBMCT0gxETAPBgNVBAcTCENvbHVtYnVz
MRIwEAYDVQQKEwlWaWtpbmdWUE4xHTAbBgNVBAsTFE15T3JnYW5pemF0aW9uYWxV
bml0MRUwEwYDVQQDEwxWaWtpbmdWUE4gQ0ExEDAOBgNVBCkTB0Vhc3lSU0ExITAf
BgkqhkiG9w0BCQEWEm1lQG15aG9zdC5teWRvbWFpboIJAM81he6Avyo+MBMGA1Ud
JQQMMAoGCCsGAQUFBwMCMAsGA1UdDwQEAwIHgDANBgkqhkiG9w0BAQQFAAOCAgEA
0qOWoN0s7i8Q/hx+W6iO3kPQdDL1Q+I1vqBexNM2sFElqPkwoN/+A7t1GP7Ec4lk
FRPJmv2KXMf/mPxjyl7pBmMC6GjtRDviqt4wfIvP3sc3zW6Y9PGynWdR/G8fNk4M
99QUgp6zvwFvhH/HXPuSR1CbZBG2kn2CqrHkO4N+jjfYHt8CXYJff4ItJFHv8TDh
vhrbXYU1FQz7qDG8s+02hS1hJ3lSEgnNzdnzYkdFHQ6vlWjInO5DaHafVOP/tMFj
Wp810nt/nNSbqT0o1uJLBcZKCUNvZFa0JsYDNXfOm7/XwqvWq10F2EPlBDQEBTHy
ZxRDfnoyLnaGXlcSvyTvb/4fCYWbK5F1sxjFumoCkAkil8qkol9ACUsBfSj8D1eS
MdmIeZwCIsrZmsoKyov1c8TTOmFfw5a+aDrcK6z4OJKc2kvT7K5zKJe9uiBkBHzx
gwCjT7RPyltT51zQ/1+TI9Ff9yfMwfpE8G2cTi25mzCwpAewb4txT13Fzlc/JXJL
hoMpHAFZRhDQutPzTjjmT4iFJB2R+CxDwbxwoUDdCS5rbj5HsHmb9PoFNqWJW+oX
502JHlhQ3wLZJh2Jj2Dog/f8UjIUvR28I5wJYkk4MxkeybznLVOLdSwhUka1or9p
5XZPm7gwsu7QxGmOafXxqP9mSnqG3ANoAPsFV9zy7QY=
-----END CERTIFICATE-----
