Certificate:
    Data:
        Version: 3 (0x2)
        Serial Number: 2256 (0x8d0)
    Signature Algorithm: md5WithRSAEncryption
        Issuer: C=US, ST=OH, L=Columbus, O=VikingVPN, OU=MyOrganizationalUnit, CN=VikingVPN CA/name=EasyRSA/emailAddress=me@myhost.mydomain
        Validity
            Not Before: Jul 13 20:24:26 2014 GMT
            Not After : Jul 10 20:24:26 2024 GMT
        Subject: CN=Client380Cert22ab47
        Subject Public Key Info:
            Public Key Algorithm: rsaEncryption
                Public-Key: (4096 bit)
                Modulus:
                    00:99:b5:e6:73:f2:32:fc:99:59:98:93:44:f8:8e:
                    94:0a:30:61:8d:2d:ff:74:1f:1f:66:71:fe:85:f3:
                    34:68:36:28:69:12:eb:51:68:a3:18:eb:31:19:68:
                    93:42:26:2a:08:3e:95:4e:3e:d8:64:d6:94:ca:38:
                    32:67:58:5c:20:76:8c:9b:2c:11:92:87:ad:ae:b7:
                    1e:1c:f7:a2:f0:b7:9d:7c:b4:3d:81:84:87:be:b8:
                    5c:f6:83:0c:0e:e9:32:72:ca:8f:5e:48:4f:a7:e2:
                    f9:26:53:45:95:ff:37:e1:94:22:19:35:0f:7a:69:
                    ff:47:23:07:46:26:81:89:53:42:68:ed:d2:b2:6a:
                    b9:eb:74:68:c6:3b:d4:2f:22:35:80:aa:8b:b8:a4:
                    e2:9b:69:0e:da:75:6a:94:af:aa:19:5c:68:21:74:
                    f0:ed:6b:e9:26:83:ed:75:1b:2a:a0:23:d8:ed:16:
                    03:84:80:a0:1b:e5:1a:70:90:14:b4:98:36:bd:2f:
                    da:ec:40:a8:0a:b2:e3:d8:3a:c4:bd:6b:84:20:54:
                    d4:58:99:35:92:a0:73:93:85:8c:99:58:2d:22:5e:
                    4f:30:8c:06:69:fe:f0:5a:46:43:64:b0:96:ca:67:
                    4a:1b:91:8c:e0:c4:38:91:53:a1:4b:7b:72:29:3e:
                    b4:3c:4a:ea:bc:ac:38:aa:00:1a:38:16:c3:86:b9:
                    4d:29:c5:07:e5:a3:31:d3:46:b5:aa:53:f6:55:4f:
                    60:5b:6e:5d:74:68:c9:37:62:61:c5:c9:3f:ba:3d:
                    8c:12:61:c7:1b:b8:69:53:0a:c2:61:46:2e:06:c7:
                    8a:15:bf:50:11:c3:f8:57:5b:17:88:63:d4:6e:4d:
                    0b:51:d2:05:cb:ed:5b:3f:e3:a8:fa:2c:b5:59:50:
                    70:2b:1d:23:c6:7c:79:e8:4e:b3:a8:2e:f8:14:4d:
                    0b:1e:bd:56:7f:b8:98:96:b8:da:89:43:b8:23:72:
                    0e:35:d8:53:0d:58:a5:9d:8c:e7:ac:72:57:71:f6:
                    a0:10:ee:50:79:4b:96:e9:4e:8c:84:c3:10:97:c4:
                    44:16:eb:ad:1d:fe:48:8e:f7:e3:4a:0c:39:7c:83:
                    66:2e:10:42:46:ee:90:34:ad:0d:f1:14:ff:eb:dd:
                    90:cf:79:ec:73:3a:0a:dc:c6:8f:df:be:bb:42:1b:
                    59:d7:7e:da:35:25:5c:4f:a6:66:d0:f3:a5:17:25:
                    25:99:7c:32:83:34:f1:f4:28:bf:e4:e5:b8:ba:51:
                    8a:8e:84:1f:b7:35:5b:12:4b:65:e2:b8:ff:34:62:
                    c5:a2:fa:4f:6f:33:cf:c3:b8:83:09:d7:5e:7f:ea:
                    e9:9b:b5
                Exponent: 65537 (0x10001)
        X509v3 extensions:
            X509v3 Basic Constraints: 
                CA:FALSE
            Netscape Comment: 
                Easy-RSA Generated Certificate
            X509v3 Subject Key Identifier: 
                B6:92:0C:99:8D:0F:56:24:9E:77:E8:2B:D7:26:7E:B0:AE:74:EE:1E
            X509v3 Authority Key Identifier: 
                keyid:12:CD:60:04:D2:A0:80:9E:70:ED:C6:99:B8:7B:2C:C6:52:FD:19:A1
                DirName:/C=US/ST=OH/L=Columbus/O=VikingVPN/OU=MyOrganizationalUnit/CN=VikingVPN CA/name=EasyRSA/emailAddress=me@myhost.mydomain
                serial:CF:35:85:EE:80:BF:2A:3E

            X509v3 Extended Key Usage: 
                TLS Web Client Authentication
            X509v3 Key Usage: 
                Digital Signature
    Signature Algorithm: md5WithRSAEncryption
         ba:b0:39:67:0e:bd:e9:6f:9e:53:58:cc:48:c4:8e:d8:42:3f:
         f6:56:e4:f3:da:35:9e:57:1b:38:9b:59:14:da:b2:36:38:67:
         30:e6:7a:b1:33:46:73:09:10:0d:15:d6:8c:aa:34:34:45:9b:
         bf:6f:b4:34:84:b4:77:ae:f7:72:f6:ea:75:30:08:c7:21:35:
         70:f6:32:11:f4:a5:72:1d:14:2b:e4:97:75:f8:f3:da:84:d5:
         d6:c7:77:f8:8b:48:df:90:c7:d2:6e:af:b7:48:23:a5:c9:52:
         45:ff:4a:65:60:d1:18:81:60:64:18:bb:9c:87:1b:1c:74:73:
         6c:5b:a4:ae:77:3e:aa:90:c3:c8:b8:cf:8c:53:a3:c8:5d:33:
         b5:87:01:b6:ee:1f:f9:bf:53:c0:84:b2:c0:73:e7:6f:08:5c:
         9a:a1:16:8f:3a:93:28:7b:29:e8:88:5d:86:cf:b2:aa:c3:70:
         ed:18:c3:ed:1d:f7:d4:e7:96:9c:82:7b:0a:b2:49:ad:38:f0:
         09:20:a8:83:8d:06:46:fa:d1:5e:f8:ca:aa:91:12:d4:d3:3c:
         58:4a:ea:cd:d2:13:d6:37:04:c3:4b:b7:84:68:e9:e7:cd:1d:
         8c:ce:39:4f:f9:2f:f9:f2:16:1f:a3:cc:0e:b4:70:d5:2b:90:
         d5:3f:a7:b1:4b:7b:e8:ad:cf:fe:6d:59:9d:1a:41:69:dd:19:
         6c:d3:b5:66:78:e6:c8:b2:50:41:7f:9d:5e:06:7a:2f:4f:6d:
         2e:83:43:42:15:14:aa:ae:e3:e7:a9:02:b3:25:30:4b:3d:6f:
         bb:c1:96:6a:2b:a3:1a:33:0f:29:2f:78:06:dc:5a:30:04:7d:
         b7:bf:5e:52:82:19:8a:09:c4:44:a8:58:41:53:a0:e2:c3:c3:
         e6:62:9e:7f:73:5a:47:19:58:5a:e2:e1:46:95:de:55:03:08:
         31:cc:df:db:11:4b:4e:bc:6e:80:e2:c9:ef:f1:1b:93:38:0e:
         09:9b:60:0c:e8:9b:08:5e:50:a5:ee:67:66:f9:2f:da:25:da:
         e6:c8:ea:fe:f7:48:0f:5a:15:fc:2a:59:46:1d:d7:d4:07:dc:
         53:bc:3d:db:62:5f:11:24:f6:be:18:3c:b7:c8:51:9a:5f:04:
         d1:e2:5f:52:8f:6a:af:40:11:4a:5a:47:22:7f:2e:31:36:f0:
         41:02:0d:59:53:75:a1:24:03:47:4d:75:ab:ad:dd:96:da:8f:
         7f:11:1b:29:55:6b:45:b3:24:e6:42:57:9b:6c:08:d0:02:69:
         58:9e:da:73:d1:6b:be:43:f0:59:97:95:38:5e:34:45:c5:f0:
         53:73:dc:1f:bf:59:52:7f
-----BEGIN CERTIFICATE-----
MIIGrDCCBJSgAwIBAgICCNAwDQYJKoZIhvcNAQEEBQAwgawxCzAJBgNVBAYTAlVT
MQswCQYDVQQIEwJPSDERMA8GA1UEBxMIQ29sdW1idXMxEjAQBgNVBAoTCVZpa2lu
Z1ZQTjEdMBsGA1UECxMUTXlPcmdhbml6YXRpb25hbFVuaXQxFTATBgNVBAMTDFZp
a2luZ1ZQTiBDQTEQMA4GA1UEKRMHRWFzeVJTQTEhMB8GCSqGSIb3DQEJARYSbWVA
bXlob3N0Lm15ZG9tYWluMB4XDTE0MDcxMzIwMjQyNloXDTI0MDcxMDIwMjQyNlow
HjEcMBoGA1UEAxMTQ2xpZW50MzgwQ2VydDIyYWI0NzCCAiIwDQYJKoZIhvcNAQEB
BQADggIPADCCAgoCggIBAJm15nPyMvyZWZiTRPiOlAowYY0t/3QfH2Zx/oXzNGg2
KGkS61FooxjrMRlok0ImKgg+lU4+2GTWlMo4MmdYXCB2jJssEZKHra63Hhz3ovC3
nXy0PYGEh764XPaDDA7pMnLKj15IT6fi+SZTRZX/N+GUIhk1D3pp/0cjB0YmgYlT
Qmjt0rJquet0aMY71C8iNYCqi7ik4ptpDtp1apSvqhlcaCF08O1r6SaD7XUbKqAj
2O0WA4SAoBvlGnCQFLSYNr0v2uxAqAqy49g6xL1rhCBU1FiZNZKgc5OFjJlYLSJe
TzCMBmn+8FpGQ2SwlspnShuRjODEOJFToUt7cik+tDxK6rysOKoAGjgWw4a5TSnF
B+WjMdNGtapT9lVPYFtuXXRoyTdiYcXJP7o9jBJhxxu4aVMKwmFGLgbHihW/UBHD
+FdbF4hj1G5NC1HSBcvtWz/jqPostVlQcCsdI8Z8eehOs6gu+BRNCx69Vn+4mJa4
2olDuCNyDjXYUw1YpZ2M56xyV3H2oBDuUHlLlulOjITDEJfERBbrrR3+SI7340oM
OXyDZi4QQkbukDStDfEU/+vdkM957HM6CtzGj9++u0IbWdd+2jUlXE+mZtDzpRcl
JZl8MoM08fQov+TluLpRio6EH7c1WxJLZeK4/zRixaL6T28zz8O4gwnXXn/q6Zu1
AgMBAAGjggFjMIIBXzAJBgNVHRMEAjAAMC0GCWCGSAGG+EIBDQQgFh5FYXN5LVJT
QSBHZW5lcmF0ZWQgQ2VydGlmaWNhdGUwHQYDVR0OBBYEFLaSDJmND1YknnfoK9cm
frCudO4eMIHhBgNVHSMEgdkwgdaAFBLNYATSoICecO3Gmbh7LMZS/RmhoYGypIGv
MIGsMQswCQYDVQQGEwJVUzELMAkGA1UECBMCT0gxETAPBgNVBAcTCENvbHVtYnVz
MRIwEAYDVQQKEwlWaWtpbmdWUE4xHTAbBgNVBAsTFE15T3JnYW5pemF0aW9uYWxV
bml0MRUwEwYDVQQDEwxWaWtpbmdWUE4gQ0ExEDAOBgNVBCkTB0Vhc3lSU0ExITAf
BgkqhkiG9w0BCQEWEm1lQG15aG9zdC5teWRvbWFpboIJAM81he6Avyo+MBMGA1Ud
JQQMMAoGCCsGAQUFBwMCMAsGA1UdDwQEAwIHgDANBgkqhkiG9w0BAQQFAAOCAgEA
urA5Zw696W+eU1jMSMSO2EI/9lbk89o1nlcbOJtZFNqyNjhnMOZ6sTNGcwkQDRXW
jKo0NEWbv2+0NIS0d673cvbqdTAIxyE1cPYyEfSlch0UK+SXdfjz2oTV1sd3+ItI
35DH0m6vt0gjpclSRf9KZWDRGIFgZBi7nIcbHHRzbFukrnc+qpDDyLjPjFOjyF0z
tYcBtu4f+b9TwISywHPnbwhcmqEWjzqTKHsp6Ihdhs+yqsNw7RjD7R331OeWnIJ7
CrJJrTjwCSCog40GRvrRXvjKqpES1NM8WErqzdIT1jcEw0u3hGjp580djM45T/kv
+fIWH6PMDrRw1SuQ1T+nsUt76K3P/m1ZnRpBad0ZbNO1ZnjmyLJQQX+dXgZ6L09t
LoNDQhUUqq7j56kCsyUwSz1vu8GWaiujGjMPKS94BtxaMAR9t79eUoIZignERKhY
QVOg4sPD5mKef3NaRxlYWuLhRpXeVQMIMczf2xFLTrxugOLJ7/EbkzgOCZtgDOib
CF5Qpe5nZvkv2iXa5sjq/vdID1oV/CpZRh3X1AfcU7w922JfEST2vhg8t8hRml8E
0eJfUo9qr0ARSlpHIn8uMTbwQQINWVN1oSQDR011q63dltqPfxEbKVVrRbMk5kJX
m2wI0AJpWJ7ac9FrvkPwWZeVOF40RcXwU3PcH79ZUn8=
-----END CERTIFICATE-----
