Certificate:
    Data:
        Version: 3 (0x2)
        Serial Number: 2278 (0x8e6)
    Signature Algorithm: md5WithRSAEncryption
        Issuer: C=US, ST=OH, L=Columbus, O=VikingVPN, OU=MyOrganizationalUnit, CN=VikingVPN CA/name=EasyRSA/emailAddress=me@myhost.mydomain
        Validity
            Not Before: Jul 15 23:35:19 2014 GMT
            Not After : Jul 12 23:35:19 2024 GMT
        Subject: CN=Client808Cert0d4605
        Subject Public Key Info:
            Public Key Algorithm: rsaEncryption
                Public-Key: (4096 bit)
                Modulus:
                    00:dc:a9:f9:e2:0a:ed:41:10:a0:66:ee:f7:fb:a8:
                    d8:b6:b8:b4:12:e6:d8:32:b4:bf:89:7a:3d:51:c7:
                    1d:94:3b:1b:a8:dd:4a:3c:2b:06:95:41:6d:c8:11:
                    0a:d9:60:71:77:d3:47:f0:b3:74:f6:6c:cf:6f:78:
                    9d:32:a4:92:51:b4:3f:54:c3:fc:a3:35:83:fe:42:
                    7d:f5:e2:b8:b6:53:75:67:ec:e9:b7:30:63:59:10:
                    e5:b3:76:d5:00:f8:99:4f:17:22:88:74:47:7c:ea:
                    24:4a:67:c0:87:ce:f7:a9:09:e5:49:95:82:03:41:
                    39:f9:67:b7:8c:35:a3:59:03:34:54:33:fb:29:99:
                    16:32:e7:9c:12:26:c5:e0:14:e6:df:f4:2b:35:3f:
                    01:9e:93:7a:95:23:80:0e:e7:15:67:ce:60:c3:4b:
                    90:fc:80:e1:eb:66:7c:f6:df:ff:9d:e7:65:89:84:
                    c1:23:a7:a6:f3:35:d9:c5:fc:3d:94:90:92:e6:73:
                    4d:ae:da:6c:80:db:f7:c7:77:4a:8c:2c:4c:d9:e2:
                    fe:cb:97:75:31:12:b2:de:66:3e:16:ec:ce:ae:7e:
                    a4:8f:a0:4e:c4:48:1b:5c:c1:94:98:d5:4f:08:af:
                    82:de:da:69:f3:25:ba:5c:93:6c:4e:88:5f:f2:f5:
                    d8:85:da:fa:9b:ff:ec:c4:13:c2:c1:0c:4e:bb:b4:
                    09:90:a6:19:cd:fb:3c:41:7d:95:16:2f:a4:ff:97:
                    b4:c1:5e:73:17:46:40:d2:f1:cc:58:b0:3b:ea:50:
                    40:b3:88:e5:e1:32:6f:f9:f6:aa:e2:4f:05:07:d7:
                    5d:66:dd:3d:cc:19:40:69:79:e1:33:e6:4d:1b:47:
                    0a:96:57:a7:d3:9b:7f:68:9f:97:6d:04:d5:d6:72:
                    80:79:19:ce:37:9f:75:81:17:44:e1:67:aa:56:5e:
                    cf:be:df:c4:d7:93:d9:76:1c:33:a0:ed:db:8e:44:
                    bb:c3:8b:bd:0f:a5:69:e4:5d:18:b2:c2:93:34:85:
                    0e:cf:fe:19:8b:2a:e3:1f:30:1a:6d:b0:15:19:b5:
                    0e:d8:58:7f:17:44:c0:f2:6e:5a:2e:9a:24:07:39:
                    ef:6d:26:43:a3:00:33:b6:58:4a:aa:c5:b7:8b:b3:
                    71:c5:51:d5:33:c6:d1:8f:a7:9b:fd:95:17:89:8f:
                    73:b6:34:1a:c9:1d:28:99:2f:5a:73:5d:0a:73:fb:
                    e6:a7:4e:a4:6c:82:22:36:5c:11:44:cd:f1:0d:4e:
                    2d:b9:a5:65:3b:f7:fd:79:75:01:a1:be:a4:5a:4c:
                    88:12:d6:b5:29:0b:2b:0e:0a:5d:30:86:48:a4:cb:
                    ac:7f:15
                Exponent: 65537 (0x10001)
        X509v3 extensions:
            X509v3 Basic Constraints: 
                CA:FALSE
            Netscape Comment: 
                Easy-RSA Generated Certificate
            X509v3 Subject Key Identifier: 
                FE:59:17:FD:1E:ED:E6:FD:4F:52:18:E5:20:B3:B9:CA:58:11:38:C2
            X509v3 Authority Key Identifier: 
                keyid:12:CD:60:04:D2:A0:80:9E:70:ED:C6:99:B8:7B:2C:C6:52:FD:19:A1
                DirName:/C=US/ST=OH/L=Columbus/O=VikingVPN/OU=MyOrganizationalUnit/CN=VikingVPN CA/name=EasyRSA/emailAddress=me@myhost.mydomain
                serial:CF:35:85:EE:80:BF:2A:3E

            X509v3 Extended Key Usage: 
                TLS Web Client Authentication
            X509v3 Key Usage: 
                Digital Signature
    Signature Algorithm: md5WithRSAEncryption
         4b:e3:e7:e7:d3:4b:66:a9:e0:75:22:0a:45:3d:f8:45:62:d5:
         0d:2e:4b:e2:17:be:22:fa:f1:01:c3:02:f4:2e:dc:c3:88:ce:
         da:4d:b9:b1:54:6f:2c:21:60:39:60:dc:09:72:0a:6c:d8:7d:
         b2:fe:d9:93:58:73:e9:c3:bb:ed:c2:51:77:b3:e1:0c:29:1e:
         25:4b:00:09:27:03:66:16:d1:ef:08:06:d6:d3:b7:82:53:da:
         cf:f4:f8:d7:62:f9:d2:db:d2:a8:66:39:91:74:ea:51:f1:4f:
         b7:04:ab:80:5d:be:8d:59:eb:fb:12:b5:b8:a3:32:f7:5b:02:
         3d:b4:c7:01:9c:18:1a:63:24:40:88:0a:d0:2b:61:74:7b:ad:
         23:cc:42:18:86:62:09:5c:4d:dd:cd:2d:48:bd:5f:8e:6c:a3:
         09:a3:3c:82:9d:5f:4d:c3:59:81:1c:11:77:4b:82:64:d4:e3:
         c2:42:7a:56:76:00:c4:9a:85:48:2a:c5:d0:bc:34:86:e9:4d:
         21:dd:d5:41:25:f6:30:c7:13:56:5f:9a:f3:e0:02:38:e9:2f:
         3d:b2:3c:a3:19:b8:63:28:56:13:0c:de:59:60:a3:6c:84:45:
         70:04:09:a6:0c:1c:59:44:dd:ab:f4:00:7a:f3:a3:85:cc:4e:
         d3:97:d5:a8:d9:70:bd:1d:8e:6a:26:0d:5e:a6:5f:f3:96:20:
         e9:f4:62:54:9f:9c:8e:b7:86:cd:25:72:77:32:92:e0:a1:b9:
         c7:3e:7b:ba:85:4e:be:7f:2e:0f:e7:24:27:30:2a:eb:f8:a2:
         c3:01:2a:cb:cb:31:27:b8:ec:b0:24:3d:8b:12:d3:3b:f4:05:
         b6:b2:bf:c8:bf:89:97:12:94:c4:95:3d:b9:b3:09:ea:c3:96:
         d6:f8:05:69:ad:5f:ab:f4:bf:f0:c8:ec:e6:bb:26:96:9e:87:
         41:b0:61:3c:ca:cb:bf:1b:45:f2:5f:a7:88:b7:c6:98:c9:e0:
         26:48:c9:c6:32:41:7a:88:09:32:8e:c2:75:c8:a0:15:a4:88:
         83:2e:84:79:0f:ff:67:5e:da:51:95:0d:b3:14:39:4c:bb:a0:
         07:bb:98:2e:d1:17:d3:98:40:25:0e:cf:b2:6c:a2:a1:ec:2e:
         fc:a2:0b:e6:e2:6c:e6:84:dd:47:79:7a:10:df:e3:4d:1d:f6:
         cf:6e:1d:93:e2:10:54:4d:41:f6:f1:1e:bb:9f:a8:b9:27:42:
         8a:43:15:13:1b:fe:03:3c:a5:23:a9:e1:d0:0b:51:9d:01:ae:
         e8:11:eb:fe:24:67:f3:98:a8:5f:93:2d:0f:e7:56:a3:ea:ad:
         83:54:c9:a8:df:3e:25:71
-----BEGIN CERTIFICATE-----
MIIGrDCCBJSgAwIBAgICCOYwDQYJKoZIhvcNAQEEBQAwgawxCzAJBgNVBAYTAlVT
MQswCQYDVQQIEwJPSDERMA8GA1UEBxMIQ29sdW1idXMxEjAQBgNVBAoTCVZpa2lu
Z1ZQTjEdMBsGA1UECxMUTXlPcmdhbml6YXRpb25hbFVuaXQxFTATBgNVBAMTDFZp
a2luZ1ZQTiBDQTEQMA4GA1UEKRMHRWFzeVJTQTEhMB8GCSqGSIb3DQEJARYSbWVA
bXlob3N0Lm15ZG9tYWluMB4XDTE0MDcxNTIzMzUxOVoXDTI0MDcxMjIzMzUxOVow
HjEcMBoGA1UEAxMTQ2xpZW50ODA4Q2VydDBkNDYwNTCCAiIwDQYJKoZIhvcNAQEB
BQADggIPADCCAgoCggIBANyp+eIK7UEQoGbu9/uo2La4tBLm2DK0v4l6PVHHHZQ7
G6jdSjwrBpVBbcgRCtlgcXfTR/CzdPZsz294nTKkklG0P1TD/KM1g/5CffXiuLZT
dWfs6bcwY1kQ5bN21QD4mU8XIoh0R3zqJEpnwIfO96kJ5UmVggNBOflnt4w1o1kD
NFQz+ymZFjLnnBImxeAU5t/0KzU/AZ6TepUjgA7nFWfOYMNLkPyA4etmfPbf/53n
ZYmEwSOnpvM12cX8PZSQkuZzTa7abIDb98d3SowsTNni/suXdTESst5mPhbszq5+
pI+gTsRIG1zBlJjVTwivgt7aafMlulyTbE6IX/L12IXa+pv/7MQTwsEMTru0CZCm
Gc37PEF9lRYvpP+XtMFecxdGQNLxzFiwO+pQQLOI5eEyb/n2quJPBQfXXWbdPcwZ
QGl54TPmTRtHCpZXp9Obf2ifl20E1dZygHkZzjefdYEXROFnqlZez77fxNeT2XYc
M6Dt245Eu8OLvQ+laeRdGLLCkzSFDs/+GYsq4x8wGm2wFRm1DthYfxdEwPJuWi6a
JAc5720mQ6MAM7ZYSqrFt4uzccVR1TPG0Y+nm/2VF4mPc7Y0GskdKJkvWnNdCnP7
5qdOpGyCIjZcEUTN8Q1OLbmlZTv3/Xl1AaG+pFpMiBLWtSkLKw4KXTCGSKTLrH8V
AgMBAAGjggFjMIIBXzAJBgNVHRMEAjAAMC0GCWCGSAGG+EIBDQQgFh5FYXN5LVJT
QSBHZW5lcmF0ZWQgQ2VydGlmaWNhdGUwHQYDVR0OBBYEFP5ZF/0e7eb9T1IY5SCz
ucpYETjCMIHhBgNVHSMEgdkwgdaAFBLNYATSoICecO3Gmbh7LMZS/RmhoYGypIGv
MIGsMQswCQYDVQQGEwJVUzELMAkGA1UECBMCT0gxETAPBgNVBAcTCENvbHVtYnVz
MRIwEAYDVQQKEwlWaWtpbmdWUE4xHTAbBgNVBAsTFE15T3JnYW5pemF0aW9uYWxV
bml0MRUwEwYDVQQDEwxWaWtpbmdWUE4gQ0ExEDAOBgNVBCkTB0Vhc3lSU0ExITAf
BgkqhkiG9w0BCQEWEm1lQG15aG9zdC5teWRvbWFpboIJAM81he6Avyo+MBMGA1Ud
JQQMMAoGCCsGAQUFBwMCMAsGA1UdDwQEAwIHgDANBgkqhkiG9w0BAQQFAAOCAgEA
S+Pn59NLZqngdSIKRT34RWLVDS5L4he+IvrxAcMC9C7cw4jO2k25sVRvLCFgOWDc
CXIKbNh9sv7Zk1hz6cO77cJRd7PhDCkeJUsACScDZhbR7wgG1tO3glPaz/T412L5
0tvSqGY5kXTqUfFPtwSrgF2+jVnr+xK1uKMy91sCPbTHAZwYGmMkQIgK0CthdHut
I8xCGIZiCVxN3c0tSL1fjmyjCaM8gp1fTcNZgRwRd0uCZNTjwkJ6VnYAxJqFSCrF
0Lw0hulNId3VQSX2MMcTVl+a8+ACOOkvPbI8oxm4YyhWEwzeWWCjbIRFcAQJpgwc
WUTdq/QAevOjhcxO05fVqNlwvR2OaiYNXqZf85Yg6fRiVJ+cjreGzSVydzKS4KG5
xz57uoVOvn8uD+ckJzAq6/iiwwEqy8sxJ7jssCQ9ixLTO/QFtrK/yL+JlxKUxJU9
ubMJ6sOW1vgFaa1fq/S/8Mjs5rsmlp6HQbBhPMrLvxtF8l+niLfGmMngJkjJxjJB
eogJMo7CdcigFaSIgy6EeQ//Z17aUZUNsxQ5TLugB7uYLtEX05hAJQ7Psmyioewu
/KIL5uJs5oTdR3l6EN/jTR32z24dk+IQVE1B9vEeu5+ouSdCikMVExv+AzylI6nh
0AtRnQGu6BHr/iRn85ioX5MtD+dWo+qtg1TJqN8+JXE=
-----END CERTIFICATE-----
