Certificate:
    Data:
        Version: 3 (0x2)
        Serial Number: 2280 (0x8e8)
    Signature Algorithm: md5WithRSAEncryption
        Issuer: C=US, ST=OH, L=Columbus, O=VikingVPN, OU=MyOrganizationalUnit, CN=VikingVPN CA/name=EasyRSA/emailAddress=me@myhost.mydomain
        Validity
            Not Before: Jul 15 23:52:49 2014 GMT
            Not After : Jul 12 23:52:49 2024 GMT
        Subject: CN=Client808Certc2c957
        Subject Public Key Info:
            Public Key Algorithm: rsaEncryption
                Public-Key: (4096 bit)
                Modulus:
                    00:cf:0c:26:59:81:60:75:59:d9:6c:52:75:ce:18:
                    5c:56:29:c7:d6:78:ed:be:e0:24:ff:13:0c:03:3c:
                    3a:86:9e:10:53:57:8a:f1:88:e1:49:59:e2:0b:45:
                    19:30:92:0d:1c:d6:eb:8f:53:f9:5a:fa:e0:4c:3d:
                    4e:f8:c1:4a:df:5f:90:fb:2a:00:18:49:84:bc:3d:
                    b2:d3:25:17:93:88:54:00:8b:4b:26:6f:23:fb:b1:
                    dc:8f:22:7d:e3:34:eb:c8:85:f5:1d:40:ef:37:54:
                    ae:6e:77:91:82:9d:44:c2:d0:f7:4b:02:72:4c:b6:
                    98:6b:c5:0b:e3:dc:22:64:42:1d:94:04:06:2e:39:
                    c4:fa:61:00:b8:ac:42:27:26:a5:6a:0b:8b:f3:2e:
                    5b:66:84:fc:7c:72:6d:3c:55:67:bc:85:0a:7d:0b:
                    06:88:b8:63:6d:7f:11:12:b6:5a:c2:a1:8a:ce:8a:
                    b1:5d:ba:28:b0:41:f0:ab:e9:ee:13:27:1b:41:42:
                    70:7c:14:56:17:06:b3:8a:54:86:b8:92:c9:49:07:
                    ab:50:32:a8:cd:48:7b:36:9e:d2:27:dc:ee:5d:3e:
                    bf:5a:46:f4:21:2a:69:55:a9:93:a7:71:c4:5a:95:
                    29:39:01:c0:c3:f4:d5:0a:7d:30:e7:18:ef:d8:b6:
                    62:56:cd:ce:c3:62:91:a5:db:2f:96:5b:bc:ab:f9:
                    92:6a:61:1f:d1:08:73:64:bc:ad:fb:22:87:59:61:
                    fe:ca:1c:b8:b2:2b:f3:c6:a7:2c:80:03:d8:6f:30:
                    23:6c:ec:e0:c6:2d:dc:3c:aa:10:64:b3:25:fa:38:
                    6e:89:e8:f0:26:f8:42:ad:0a:ef:84:a2:7f:bb:cb:
                    fe:13:df:f2:09:ba:7a:2b:e0:8f:f4:05:06:d9:30:
                    18:1f:36:79:cb:5e:a5:87:2e:b7:0d:3f:0f:01:c6:
                    3b:b7:fc:90:86:1d:9c:e2:20:ae:48:98:2d:19:cf:
                    35:b4:04:40:fc:b9:b9:95:85:52:e9:c6:8e:3c:fc:
                    99:28:9e:b6:31:7e:da:93:fc:f3:11:15:4c:4e:f0:
                    5e:9f:a0:01:3b:bd:f6:f0:0e:3f:90:97:e3:e5:7b:
                    7c:6d:88:51:48:6f:83:de:6a:c4:ee:7d:7c:fe:c6:
                    74:be:3b:8e:14:dc:70:50:69:83:98:d5:9f:e9:1a:
                    9d:57:c9:7a:d2:89:c4:18:cc:ce:c8:f4:1c:14:c7:
                    49:f8:17:c6:b1:de:a3:34:44:68:4c:72:80:92:33:
                    04:4c:14:c4:b7:d0:9e:9d:67:71:00:99:65:58:93:
                    03:48:36:db:e3:e2:0a:a1:f5:6b:75:1b:84:20:2f:
                    db:d8:5f
                Exponent: 65537 (0x10001)
        X509v3 extensions:
            X509v3 Basic Constraints: 
                CA:FALSE
            Netscape Comment: 
                Easy-RSA Generated Certificate
            X509v3 Subject Key Identifier: 
                75:FE:CA:6B:9D:A0:F0:58:54:2F:F2:38:69:E0:1C:A7:90:C9:20:01
            X509v3 Authority Key Identifier: 
                keyid:12:CD:60:04:D2:A0:80:9E:70:ED:C6:99:B8:7B:2C:C6:52:FD:19:A1
                DirName:/C=US/ST=OH/L=Columbus/O=VikingVPN/OU=MyOrganizationalUnit/CN=VikingVPN CA/name=EasyRSA/emailAddress=me@myhost.mydomain
                serial:CF:35:85:EE:80:BF:2A:3E

            X509v3 Extended Key Usage: 
                TLS Web Client Authentication
            X509v3 Key Usage: 
                Digital Signature
    Signature Algorithm: md5WithRSAEncryption
         e2:e6:a8:b9:26:e9:65:ca:6a:d9:21:56:5c:c2:60:11:e3:87:
         37:6b:60:26:a7:01:7e:85:46:28:15:b6:2a:ae:c5:1b:d9:27:
         ba:01:44:d9:5f:d6:1d:2c:37:70:2d:a1:d9:9c:50:aa:5c:78:
         b2:b6:df:f8:22:a7:ca:4f:de:9b:f9:33:29:cb:04:ce:c4:1a:
         12:ad:44:65:4a:9f:fc:24:c5:cf:47:c5:fe:e6:9c:dd:02:92:
         4b:1b:23:9d:dc:92:5f:56:34:66:58:e2:9c:c7:9e:c6:7c:39:
         86:8f:32:5c:56:c6:df:1c:21:fc:96:f7:f9:85:ae:c9:de:2f:
         57:d9:81:c9:91:f2:11:f0:ff:ea:91:8d:80:e1:58:b5:57:5d:
         27:4a:d2:97:2f:74:ca:8a:61:71:40:ea:7b:7f:04:7f:12:98:
         d8:34:8c:bf:08:d6:b0:7e:b8:8a:a6:ac:b8:af:c6:b6:cf:3e:
         72:68:e9:0e:05:41:73:0f:95:c7:88:7c:ff:3b:90:d4:60:be:
         f1:ad:ae:cf:e3:cc:7c:28:0e:91:b0:8f:64:4f:3e:6d:d7:d8:
         9b:7f:f7:91:f8:17:8b:1e:9e:ae:ec:cd:7a:f1:a9:a4:48:aa:
         4d:18:f2:ed:80:d6:1f:1d:40:cf:60:71:0f:85:53:c4:e1:6c:
         56:3a:d2:25:42:e0:87:e0:ee:23:f2:cb:ce:da:fe:a0:0b:e8:
         a6:7d:3d:3b:05:ce:49:95:a2:e7:69:60:26:a9:fa:eb:85:c4:
         12:b4:ce:37:84:73:ad:22:b3:90:4e:02:11:16:83:d9:16:d1:
         cb:09:fc:95:82:9c:43:a2:27:a1:9c:af:2f:32:62:9e:3a:56:
         6e:35:c1:93:a9:f8:78:aa:ed:fd:38:41:5d:73:23:78:e3:9e:
         72:58:3c:01:95:9a:6a:a6:e0:da:5f:17:50:97:81:1c:bb:5c:
         fb:90:be:17:52:68:af:b8:1c:61:00:81:46:43:34:23:8a:40:
         2c:a4:04:42:d1:34:92:a1:af:4f:de:e3:8d:28:33:fd:43:67:
         49:b0:4a:02:a3:e9:1a:4b:fe:fc:e2:56:8c:3b:b6:c1:50:5a:
         21:1b:53:33:54:92:69:29:3b:9e:34:07:98:1f:28:a4:4f:68:
         d8:5a:a4:d2:3c:55:db:39:cc:32:50:92:67:25:6c:39:7f:82:
         1c:71:e7:5e:0d:43:7a:f0:d6:e1:19:42:0d:91:28:eb:4e:c2:
         c2:cf:48:47:ce:22:a4:f4:36:8b:b0:8b:5f:c3:49:6d:1a:e9:
         0a:6c:8f:89:f6:17:5d:3b:8a:d9:b2:dc:b9:85:7e:54:b1:a1:
         da:64:16:a6:cd:f7:f0:ad
-----BEGIN CERTIFICATE-----
MIIGrDCCBJSgAwIBAgICCOgwDQYJKoZIhvcNAQEEBQAwgawxCzAJBgNVBAYTAlVT
MQswCQYDVQQIEwJPSDERMA8GA1UEBxMIQ29sdW1idXMxEjAQBgNVBAoTCVZpa2lu
Z1ZQTjEdMBsGA1UECxMUTXlPcmdhbml6YXRpb25hbFVuaXQxFTATBgNVBAMTDFZp
a2luZ1ZQTiBDQTEQMA4GA1UEKRMHRWFzeVJTQTEhMB8GCSqGSIb3DQEJARYSbWVA
bXlob3N0Lm15ZG9tYWluMB4XDTE0MDcxNTIzNTI0OVoXDTI0MDcxMjIzNTI0OVow
HjEcMBoGA1UEAxMTQ2xpZW50ODA4Q2VydGMyYzk1NzCCAiIwDQYJKoZIhvcNAQEB
BQADggIPADCCAgoCggIBAM8MJlmBYHVZ2WxSdc4YXFYpx9Z47b7gJP8TDAM8Ooae
EFNXivGI4UlZ4gtFGTCSDRzW649T+Vr64Ew9TvjBSt9fkPsqABhJhLw9stMlF5OI
VACLSyZvI/ux3I8ifeM068iF9R1A7zdUrm53kYKdRMLQ90sCcky2mGvFC+PcImRC
HZQEBi45xPphALisQicmpWoLi/MuW2aE/HxybTxVZ7yFCn0LBoi4Y21/ERK2WsKh
is6KsV26KLBB8Kvp7hMnG0FCcHwUVhcGs4pUhriSyUkHq1AyqM1Iezae0ifc7l0+
v1pG9CEqaVWpk6dxxFqVKTkBwMP01Qp9MOcY79i2YlbNzsNikaXbL5ZbvKv5kmph
H9EIc2S8rfsih1lh/socuLIr88anLIAD2G8wI2zs4MYt3DyqEGSzJfo4bono8Cb4
Qq0K74Sif7vL/hPf8gm6eivgj/QFBtkwGB82ectepYcutw0/DwHGO7f8kIYdnOIg
rkiYLRnPNbQEQPy5uZWFUunGjjz8mSietjF+2pP88xEVTE7wXp+gATu99vAOP5CX
4+V7fG2IUUhvg95qxO59fP7GdL47jhTccFBpg5jVn+kanVfJetKJxBjMzsj0HBTH
SfgXxrHeozREaExygJIzBEwUxLfQnp1ncQCZZViTA0g22+PiCqH1a3UbhCAv29hf
AgMBAAGjggFjMIIBXzAJBgNVHRMEAjAAMC0GCWCGSAGG+EIBDQQgFh5FYXN5LVJT
QSBHZW5lcmF0ZWQgQ2VydGlmaWNhdGUwHQYDVR0OBBYEFHX+ymudoPBYVC/yOGng
HKeQySABMIHhBgNVHSMEgdkwgdaAFBLNYATSoICecO3Gmbh7LMZS/RmhoYGypIGv
MIGsMQswCQYDVQQGEwJVUzELMAkGA1UECBMCT0gxETAPBgNVBAcTCENvbHVtYnVz
MRIwEAYDVQQKEwlWaWtpbmdWUE4xHTAbBgNVBAsTFE15T3JnYW5pemF0aW9uYWxV
bml0MRUwEwYDVQQDEwxWaWtpbmdWUE4gQ0ExEDAOBgNVBCkTB0Vhc3lSU0ExITAf
BgkqhkiG9w0BCQEWEm1lQG15aG9zdC5teWRvbWFpboIJAM81he6Avyo+MBMGA1Ud
JQQMMAoGCCsGAQUFBwMCMAsGA1UdDwQEAwIHgDANBgkqhkiG9w0BAQQFAAOCAgEA
4uaouSbpZcpq2SFWXMJgEeOHN2tgJqcBfoVGKBW2Kq7FG9knugFE2V/WHSw3cC2h
2ZxQqlx4srbf+CKnyk/em/kzKcsEzsQaEq1EZUqf/CTFz0fF/uac3QKSSxsjndyS
X1Y0ZljinMeexnw5ho8yXFbG3xwh/Jb3+YWuyd4vV9mByZHyEfD/6pGNgOFYtVdd
J0rSly90yophcUDqe38EfxKY2DSMvwjWsH64iqasuK/Gts8+cmjpDgVBcw+Vx4h8
/zuQ1GC+8a2uz+PMfCgOkbCPZE8+bdfYm3/3kfgXix6eruzNevGppEiqTRjy7YDW
Hx1Az2BxD4VTxOFsVjrSJULgh+DuI/LLztr+oAvopn09OwXOSZWi52lgJqn664XE
ErTON4RzrSKzkE4CERaD2RbRywn8lYKcQ6InoZyvLzJinjpWbjXBk6n4eKrt/ThB
XXMjeOOeclg8AZWaaqbg2l8XUJeBHLtc+5C+F1Jor7gcYQCBRkM0I4pALKQEQtE0
kqGvT97jjSgz/UNnSbBKAqPpGkv+/OJWjDu2wVBaIRtTM1SSaSk7njQHmB8opE9o
2Fqk0jxV2znMMlCSZyVsOX+CHHHnXg1DevDW4RlCDZEo607Cws9IR84ipPQ2i7CL
X8NJbRrpCmyPifYXXTuK2bLcuYV+VLGh2mQWps338K0=
-----END CERTIFICATE-----
