Certificate:
    Data:
        Version: 3 (0x2)
        Serial Number: 2285 (0x8ed)
    Signature Algorithm: md5WithRSAEncryption
        Issuer: C=US, ST=OH, L=Columbus, O=VikingVPN, OU=MyOrganizationalUnit, CN=VikingVPN CA/name=EasyRSA/emailAddress=me@myhost.mydomain
        Validity
            Not Before: Jul 16 01:08:15 2014 GMT
            Not After : Jul 13 01:08:15 2024 GMT
        Subject: CN=Client807Certec2dcc
        Subject Public Key Info:
            Public Key Algorithm: rsaEncryption
                Public-Key: (4096 bit)
                Modulus:
                    00:cd:67:62:2c:27:1d:0b:f5:57:d5:f5:10:e3:78:
                    f1:cb:78:19:19:69:aa:c8:49:e0:55:f9:34:37:92:
                    82:47:3b:5b:23:87:98:73:c3:e3:28:a8:65:bc:2c:
                    80:45:91:37:2b:48:f8:8d:28:1d:22:89:16:4d:85:
                    bd:ab:9b:2e:3e:9e:33:b1:03:22:ee:0a:7f:be:91:
                    da:56:40:a7:29:47:5f:8a:de:bd:d8:b3:5a:91:80:
                    c8:04:de:3d:df:56:ae:8b:b3:e0:85:5e:50:b1:d4:
                    86:9a:5b:11:86:5e:3a:36:f3:26:df:cb:c3:48:1e:
                    d2:77:87:cf:82:0a:13:db:fc:1c:ec:90:23:f6:ec:
                    3e:f6:c2:9a:93:bf:96:69:98:b7:f9:ac:44:4c:07:
                    76:a4:3d:e7:6b:c0:1b:bd:3c:ac:ad:6c:88:d9:1a:
                    35:d5:cc:c7:c1:cd:df:84:af:07:c4:5d:60:d9:e1:
                    e9:fc:c0:26:80:2d:75:8c:b3:01:0e:30:ec:ae:25:
                    80:6c:84:53:f2:3f:9e:4a:03:f5:e1:13:b0:79:88:
                    ce:4f:07:e9:f9:32:60:1e:81:18:90:f2:12:6e:f4:
                    a0:cf:44:e3:70:2a:dc:c3:27:f9:cc:97:d6:6b:87:
                    92:3a:c7:53:a7:9a:02:86:7f:a1:33:bb:a8:c3:15:
                    33:44:e9:34:90:cf:81:98:24:f3:6c:7c:cf:04:28:
                    ca:87:b8:3a:5e:c4:3f:c6:3e:bb:fe:d6:94:e8:aa:
                    6d:9d:5d:e7:50:12:f7:f8:c7:5c:24:cd:1f:7f:9a:
                    dc:fc:ae:10:46:8f:fe:41:0e:81:90:f0:90:b7:8b:
                    53:60:ef:ae:f3:ea:c3:2e:63:b7:b6:97:c6:1f:b7:
                    c4:c2:d0:ac:1d:19:e5:20:20:f2:2a:5f:eb:d0:7e:
                    98:ac:9e:89:06:f6:d9:c6:9f:69:c9:86:db:d5:11:
                    4e:76:d6:7b:02:d9:c6:5b:f6:6a:51:9c:a8:1d:f7:
                    0b:5a:bd:f1:c5:23:03:4b:66:43:04:d1:72:04:f1:
                    00:3b:00:3e:a2:c9:26:d1:97:f3:7f:f1:fc:5c:4a:
                    86:ad:ab:6c:70:e9:8c:f2:a8:bc:dc:82:f8:1a:0e:
                    0a:bb:e2:f2:24:37:6f:3e:28:d4:fa:da:32:19:eb:
                    26:00:57:3d:04:e2:10:04:9e:6a:6b:b3:bf:a8:64:
                    45:da:2b:10:11:d1:a0:80:43:89:95:dd:31:12:73:
                    ad:6e:02:7f:e7:63:a6:c2:1c:6d:aa:0a:b1:a9:ca:
                    54:bd:27:ec:4c:ff:66:5a:41:22:30:fe:88:f9:52:
                    3a:15:fe:62:8b:e4:c8:b9:37:08:c1:fd:c4:2d:04:
                    af:12:33
                Exponent: 65537 (0x10001)
        X509v3 extensions:
            X509v3 Basic Constraints: 
                CA:FALSE
            Netscape Comment: 
                Easy-RSA Generated Certificate
            X509v3 Subject Key Identifier: 
                3F:E1:31:F3:F1:2A:D6:31:0B:74:D6:96:82:80:1B:0F:B4:59:DF:4A
            X509v3 Authority Key Identifier: 
                keyid:12:CD:60:04:D2:A0:80:9E:70:ED:C6:99:B8:7B:2C:C6:52:FD:19:A1
                DirName:/C=US/ST=OH/L=Columbus/O=VikingVPN/OU=MyOrganizationalUnit/CN=VikingVPN CA/name=EasyRSA/emailAddress=me@myhost.mydomain
                serial:CF:35:85:EE:80:BF:2A:3E

            X509v3 Extended Key Usage: 
                TLS Web Client Authentication
            X509v3 Key Usage: 
                Digital Signature
    Signature Algorithm: md5WithRSAEncryption
         37:92:7f:87:41:51:7e:9f:a0:57:3d:8c:ba:33:6a:27:e5:76:
         bf:21:12:ec:53:d0:8a:8d:dd:7a:66:4a:9a:04:28:cd:78:3f:
         b1:52:8a:50:77:f4:1a:04:51:26:d4:0c:81:fa:43:03:6a:b9:
         52:a7:d1:bd:f9:67:dc:60:4c:d7:f5:eb:35:25:43:b1:91:eb:
         9a:c5:ed:59:e8:0a:e3:1b:40:99:a6:dc:b3:3f:87:20:73:fc:
         0f:5f:c2:5e:27:6d:79:a3:38:af:ad:0a:d0:9b:fd:c2:d6:83:
         d0:da:82:cb:71:ff:34:f7:ea:43:a5:e9:30:09:78:0e:12:d6:
         4d:89:4a:75:ea:0b:ea:53:34:ef:da:89:ac:80:a1:a0:67:5e:
         3c:90:a9:53:b5:af:09:62:7d:2d:52:cd:fc:5e:4c:09:3e:ce:
         44:cd:70:92:3d:63:ab:53:4e:8a:0a:c5:79:4c:d0:88:fb:e6:
         0a:26:a2:97:d3:79:1f:ab:db:6c:26:68:8c:56:48:c4:48:5b:
         11:35:9d:10:44:53:5e:de:c2:78:9d:69:ca:5c:45:52:42:c7:
         e8:22:3a:89:a1:26:b2:aa:1b:6b:19:07:65:bb:0a:ec:81:8f:
         8b:61:f9:cf:d1:f9:55:36:c1:7b:fc:19:93:2c:f6:e1:bf:34:
         3d:d6:ab:18:a1:b0:81:7e:ee:0f:23:6a:d6:e0:6b:70:96:87:
         8e:1a:b2:8b:78:25:d6:3d:43:43:42:d2:10:16:cd:be:99:1a:
         cc:18:dc:93:36:e6:e1:80:fd:dc:69:1c:c5:1c:00:d3:65:6e:
         b8:35:cc:3b:db:f6:d0:67:2b:5f:57:b2:d2:95:ee:1c:a0:3e:
         03:d2:8a:22:b6:02:dc:b9:80:9b:a9:7b:a3:7f:81:92:cd:fb:
         ff:d9:0e:c6:3b:01:59:05:60:9e:b3:6b:e4:3a:ec:ca:8a:b3:
         31:38:78:5e:c5:dd:a9:d1:57:89:fa:5d:b1:35:3f:c1:f7:95:
         7f:7c:ec:88:36:33:f3:3d:21:b7:aa:12:be:8e:12:2a:8c:b4:
         9c:55:28:9e:76:8f:e1:d5:d7:9b:75:98:1e:7a:dc:28:9c:2b:
         ac:c1:f9:01:f6:18:86:6c:7d:e8:7c:07:c4:88:56:4d:7a:a2:
         6c:99:d8:dd:42:3e:f3:2f:f7:6d:5f:d2:31:ff:fa:a3:37:6f:
         fe:4f:54:c1:7d:e4:c7:69:56:3f:1a:04:dc:80:ac:e0:c1:c9:
         8d:f2:0c:d3:ab:55:e0:d9:4f:2b:cb:c9:61:27:a8:e9:66:a7:
         f8:c5:b0:02:3b:82:e0:2c:a9:ca:43:48:0b:98:6e:f7:36:4d:
         91:f1:05:6b:bd:3c:03:8d
-----BEGIN CERTIFICATE-----
MIIGrDCCBJSgAwIBAgICCO0wDQYJKoZIhvcNAQEEBQAwgawxCzAJBgNVBAYTAlVT
MQswCQYDVQQIEwJPSDERMA8GA1UEBxMIQ29sdW1idXMxEjAQBgNVBAoTCVZpa2lu
Z1ZQTjEdMBsGA1UECxMUTXlPcmdhbml6YXRpb25hbFVuaXQxFTATBgNVBAMTDFZp
a2luZ1ZQTiBDQTEQMA4GA1UEKRMHRWFzeVJTQTEhMB8GCSqGSIb3DQEJARYSbWVA
bXlob3N0Lm15ZG9tYWluMB4XDTE0MDcxNjAxMDgxNVoXDTI0MDcxMzAxMDgxNVow
HjEcMBoGA1UEAxMTQ2xpZW50ODA3Q2VydGVjMmRjYzCCAiIwDQYJKoZIhvcNAQEB
BQADggIPADCCAgoCggIBAM1nYiwnHQv1V9X1EON48ct4GRlpqshJ4FX5NDeSgkc7
WyOHmHPD4yioZbwsgEWRNytI+I0oHSKJFk2FvaubLj6eM7EDIu4Kf76R2lZApylH
X4revdizWpGAyATePd9Wrouz4IVeULHUhppbEYZeOjbzJt/Lw0ge0neHz4IKE9v8
HOyQI/bsPvbCmpO/lmmYt/msREwHdqQ952vAG708rK1siNkaNdXMx8HN34SvB8Rd
YNnh6fzAJoAtdYyzAQ4w7K4lgGyEU/I/nkoD9eETsHmIzk8H6fkyYB6BGJDyEm70
oM9E43Aq3MMn+cyX1muHkjrHU6eaAoZ/oTO7qMMVM0TpNJDPgZgk82x8zwQoyoe4
Ol7EP8Y+u/7WlOiqbZ1d51AS9/jHXCTNH3+a3PyuEEaP/kEOgZDwkLeLU2DvrvPq
wy5jt7aXxh+3xMLQrB0Z5SAg8ipf69B+mKyeiQb22cafacmG29URTnbWewLZxlv2
alGcqB33C1q98cUjA0tmQwTRcgTxADsAPqLJJtGX83/x/FxKhq2rbHDpjPKovNyC
+BoOCrvi8iQ3bz4o1PraMhnrJgBXPQTiEASeamuzv6hkRdorEBHRoIBDiZXdMRJz
rW4Cf+djpsIcbaoKsanKVL0n7Ez/ZlpBIjD+iPlSOhX+YovkyLk3CMH9xC0ErxIz
AgMBAAGjggFjMIIBXzAJBgNVHRMEAjAAMC0GCWCGSAGG+EIBDQQgFh5FYXN5LVJT
QSBHZW5lcmF0ZWQgQ2VydGlmaWNhdGUwHQYDVR0OBBYEFD/hMfPxKtYxC3TWloKA
Gw+0Wd9KMIHhBgNVHSMEgdkwgdaAFBLNYATSoICecO3Gmbh7LMZS/RmhoYGypIGv
MIGsMQswCQYDVQQGEwJVUzELMAkGA1UECBMCT0gxETAPBgNVBAcTCENvbHVtYnVz
MRIwEAYDVQQKEwlWaWtpbmdWUE4xHTAbBgNVBAsTFE15T3JnYW5pemF0aW9uYWxV
bml0MRUwEwYDVQQDEwxWaWtpbmdWUE4gQ0ExEDAOBgNVBCkTB0Vhc3lSU0ExITAf
BgkqhkiG9w0BCQEWEm1lQG15aG9zdC5teWRvbWFpboIJAM81he6Avyo+MBMGA1Ud
JQQMMAoGCCsGAQUFBwMCMAsGA1UdDwQEAwIHgDANBgkqhkiG9w0BAQQFAAOCAgEA
N5J/h0FRfp+gVz2MujNqJ+V2vyES7FPQio3demZKmgQozXg/sVKKUHf0GgRRJtQM
gfpDA2q5UqfRvfln3GBM1/XrNSVDsZHrmsXtWegK4xtAmabcsz+HIHP8D1/CXidt
eaM4r60K0Jv9wtaD0NqCy3H/NPfqQ6XpMAl4DhLWTYlKdeoL6lM079qJrIChoGde
PJCpU7WvCWJ9LVLN/F5MCT7ORM1wkj1jq1NOigrFeUzQiPvmCiail9N5H6vbbCZo
jFZIxEhbETWdEERTXt7CeJ1pylxFUkLH6CI6iaEmsqobaxkHZbsK7IGPi2H5z9H5
VTbBe/wZkyz24b80PdarGKGwgX7uDyNq1uBrcJaHjhqyi3gl1j1DQ0LSEBbNvpka
zBjckzbm4YD93GkcxRwA02VuuDXMO9v20GcrX1ey0pXuHKA+A9KKIrYC3LmAm6l7
o3+Bks37/9kOxjsBWQVgnrNr5DrsyoqzMTh4XsXdqdFXifpdsTU/wfeVf3zsiDYz
8z0ht6oSvo4SKoy0nFUonnaP4dXXm3WYHnrcKJwrrMH5AfYYhmx96HwHxIhWTXqi
bJnY3UI+8y/3bV/SMf/6ozdv/k9UwX3kx2lWPxoE3ICs4MHJjfIM06tV4NlPK8vJ
YSeo6Wan+MWwAjuC4CypykNIC5hu9zZNkfEFa708A40=
-----END CERTIFICATE-----
