Certificate:
    Data:
        Version: 3 (0x2)
        Serial Number: 2293 (0x8f5)
    Signature Algorithm: md5WithRSAEncryption
        Issuer: C=US, ST=OH, L=Columbus, O=VikingVPN, OU=MyOrganizationalUnit, CN=VikingVPN CA/name=EasyRSA/emailAddress=me@myhost.mydomain
        Validity
            Not Before: Jul 16 03:50:36 2014 GMT
            Not After : Jul 13 03:50:36 2024 GMT
        Subject: CN=Client574Certb078cc
        Subject Public Key Info:
            Public Key Algorithm: rsaEncryption
                Public-Key: (4096 bit)
                Modulus:
                    00:9b:72:8b:7e:1e:30:b5:5c:41:09:96:57:43:9b:
                    b0:32:32:ab:f1:c6:94:04:39:c2:64:f2:e3:61:54:
                    91:15:39:ee:63:10:e0:e2:39:35:90:7f:06:c7:5e:
                    63:13:c3:f0:21:79:ad:b6:56:0d:38:eb:0e:2f:39:
                    76:0b:bd:5b:d3:c9:d1:eb:10:43:69:17:fc:28:db:
                    f6:17:f9:bd:15:71:03:e7:87:01:ce:6a:c6:31:6b:
                    9a:22:8e:f9:98:2d:ab:27:54:17:8b:b0:90:4a:91:
                    1d:5f:24:f8:40:20:22:50:c2:0e:b8:77:50:42:45:
                    5c:7c:48:c8:c2:ba:9b:be:a2:c7:38:c8:03:a1:34:
                    cc:b9:b7:76:f7:fa:0e:19:c4:47:ba:c2:f6:de:8d:
                    c4:9b:c6:5c:91:b0:cf:89:27:17:cd:ab:64:f2:cd:
                    20:43:5d:65:48:d9:04:f9:7e:e0:e8:d8:e3:25:47:
                    35:f6:cb:a3:86:11:95:8c:3c:08:0d:a0:50:4d:89:
                    46:ff:af:15:41:04:a2:e2:2d:97:2c:35:57:aa:d2:
                    37:81:3d:5c:26:b5:98:64:a8:c1:7c:ba:46:5b:fb:
                    df:98:65:4e:6c:d2:ed:b8:ce:cd:47:00:3c:f2:d6:
                    af:a5:71:1a:80:e4:f2:f2:5d:00:84:5f:27:6f:63:
                    5a:e1:a7:04:20:e3:8d:68:45:66:f4:07:c2:15:35:
                    38:64:b9:23:d0:33:e1:b1:e5:43:1d:cb:6f:a6:40:
                    e7:38:e4:02:43:bf:d1:42:17:fc:b8:1b:4e:0e:ed:
                    04:6c:24:88:95:b9:56:9e:92:93:18:0d:26:76:8d:
                    de:82:b4:7f:6f:fb:5a:7e:58:63:21:0d:b3:3a:c9:
                    f9:7d:c1:50:a6:81:3e:4e:d5:ea:0c:be:99:ef:90:
                    00:4a:6c:3a:75:54:d0:79:d7:f8:62:7c:23:dc:08:
                    2d:10:32:80:44:60:d2:c3:b0:9f:07:a6:e9:b3:c3:
                    b2:32:bd:2f:cc:57:d9:78:bc:63:21:ed:ef:ea:99:
                    e4:43:37:61:df:58:4c:75:d8:34:91:1a:c8:b8:76:
                    b2:b3:7b:dd:fc:6b:3c:4b:24:d1:3f:64:81:be:39:
                    bc:29:d4:78:e3:83:3d:ab:52:eb:15:83:35:55:60:
                    2b:70:19:05:7c:fa:54:30:e3:12:95:2c:21:6c:27:
                    59:8c:dd:3d:30:1c:72:0c:69:50:5d:0d:e7:17:d5:
                    00:cf:06:6f:ef:be:a3:9a:a5:79:07:06:fb:38:db:
                    06:7f:26:ff:ee:f5:93:73:66:5a:5d:04:92:68:34:
                    59:f5:ec:88:7c:db:ca:0e:36:28:26:8b:ff:eb:89:
                    48:e1:f1
                Exponent: 65537 (0x10001)
        X509v3 extensions:
            X509v3 Basic Constraints: 
                CA:FALSE
            Netscape Comment: 
                Easy-RSA Generated Certificate
            X509v3 Subject Key Identifier: 
                FD:DC:2C:E0:19:55:4C:A5:5E:D2:9A:97:E1:68:9C:16:DB:BB:76:19
            X509v3 Authority Key Identifier: 
                keyid:12:CD:60:04:D2:A0:80:9E:70:ED:C6:99:B8:7B:2C:C6:52:FD:19:A1
                DirName:/C=US/ST=OH/L=Columbus/O=VikingVPN/OU=MyOrganizationalUnit/CN=VikingVPN CA/name=EasyRSA/emailAddress=me@myhost.mydomain
                serial:CF:35:85:EE:80:BF:2A:3E

            X509v3 Extended Key Usage: 
                TLS Web Client Authentication
            X509v3 Key Usage: 
                Digital Signature
    Signature Algorithm: md5WithRSAEncryption
         e8:11:86:6e:f3:42:35:0d:9e:e6:b0:47:8f:8a:9f:40:70:07:
         6f:6f:29:18:f1:85:43:ff:58:7d:33:ea:70:49:0e:2c:fa:5b:
         ce:1c:60:86:47:23:8b:d8:9d:2b:15:cc:3a:35:bb:db:78:55:
         ef:8f:98:94:75:0e:da:12:73:38:77:c0:21:69:0c:a3:56:22:
         9b:18:5a:00:58:d7:51:d1:96:57:63:5e:53:8e:05:a8:c1:6a:
         38:f4:77:37:0d:4c:26:6d:e9:55:03:1d:2d:20:75:0f:4a:11:
         49:6b:f8:66:ef:47:d6:9a:99:0a:51:46:27:63:8e:a7:44:ac:
         eb:58:8c:42:88:7b:10:07:3f:0f:33:18:e3:81:4b:82:5b:b0:
         e1:55:18:e9:65:a6:18:2b:f9:e5:ac:14:3f:01:d8:6e:64:c1:
         68:0c:b1:2f:2a:a7:37:86:52:01:99:91:8e:9b:4c:cd:6b:2b:
         e8:cf:77:d3:6e:93:40:8c:2e:3c:ea:d4:d5:d7:f5:ae:36:8d:
         ed:22:48:cf:ab:7a:20:fc:5a:64:32:7f:42:2f:0a:74:0b:e8:
         a4:dd:c6:dc:b9:ed:89:4d:e7:dd:93:24:16:f8:13:80:c2:01:
         57:2d:1d:1a:00:7d:20:00:ca:73:1a:3c:e8:64:25:77:a4:93:
         39:28:ab:3c:d2:c8:1a:1a:9b:46:b3:42:e9:fa:a4:09:6b:9a:
         3f:b4:d0:31:c5:18:7c:b7:6c:c8:ed:cd:fc:49:fb:a9:ce:a7:
         1a:8a:1f:ef:6d:4e:95:ed:04:32:d3:0a:69:f8:6c:12:9e:2e:
         b3:6e:e8:c5:15:d9:84:32:6e:31:85:69:27:d6:c7:34:9e:a4:
         9e:72:40:8f:3d:b0:60:b6:eb:ce:d7:3c:29:06:8d:0c:95:28:
         1d:4c:f4:73:9d:3c:a4:4c:e4:b4:cd:5e:62:c9:2f:b5:ed:59:
         33:1d:0a:8b:f9:6c:fa:e1:f4:13:40:98:8a:98:8a:4c:58:bc:
         69:50:73:0b:14:28:d9:a2:10:88:d0:61:0f:72:35:0e:d8:79:
         e3:6d:ee:e7:c9:80:ea:6a:68:bd:b1:8c:96:0f:b4:95:e0:70:
         61:88:82:f6:72:34:58:24:f0:ef:ac:b8:5c:6b:9a:fe:fb:c7:
         20:7a:34:4a:62:1d:43:60:47:25:45:e8:dc:10:42:da:84:c0:
         87:2e:e9:71:40:48:d6:2f:71:b2:a3:3a:51:44:2e:30:cb:91:
         b2:8a:d3:a3:bd:5b:72:0f:71:67:3d:b4:ec:d8:2a:6e:29:5a:
         94:5d:3c:50:85:49:34:cc:e2:51:b9:12:30:71:00:7b:6a:ea:
         6b:6f:9e:75:82:5c:5b:ec
-----BEGIN CERTIFICATE-----
MIIGrDCCBJSgAwIBAgICCPUwDQYJKoZIhvcNAQEEBQAwgawxCzAJBgNVBAYTAlVT
MQswCQYDVQQIEwJPSDERMA8GA1UEBxMIQ29sdW1idXMxEjAQBgNVBAoTCVZpa2lu
Z1ZQTjEdMBsGA1UECxMUTXlPcmdhbml6YXRpb25hbFVuaXQxFTATBgNVBAMTDFZp
a2luZ1ZQTiBDQTEQMA4GA1UEKRMHRWFzeVJTQTEhMB8GCSqGSIb3DQEJARYSbWVA
bXlob3N0Lm15ZG9tYWluMB4XDTE0MDcxNjAzNTAzNloXDTI0MDcxMzAzNTAzNlow
HjEcMBoGA1UEAxMTQ2xpZW50NTc0Q2VydGIwNzhjYzCCAiIwDQYJKoZIhvcNAQEB
BQADggIPADCCAgoCggIBAJtyi34eMLVcQQmWV0ObsDIyq/HGlAQ5wmTy42FUkRU5
7mMQ4OI5NZB/BsdeYxPD8CF5rbZWDTjrDi85dgu9W9PJ0esQQ2kX/Cjb9hf5vRVx
A+eHAc5qxjFrmiKO+ZgtqydUF4uwkEqRHV8k+EAgIlDCDrh3UEJFXHxIyMK6m76i
xzjIA6E0zLm3dvf6DhnER7rC9t6NxJvGXJGwz4knF82rZPLNIENdZUjZBPl+4OjY
4yVHNfbLo4YRlYw8CA2gUE2JRv+vFUEEouItlyw1V6rSN4E9XCa1mGSowXy6Rlv7
35hlTmzS7bjOzUcAPPLWr6VxGoDk8vJdAIRfJ29jWuGnBCDjjWhFZvQHwhU1OGS5
I9Az4bHlQx3Lb6ZA5zjkAkO/0UIX/LgbTg7tBGwkiJW5Vp6SkxgNJnaN3oK0f2/7
Wn5YYyENszrJ+X3BUKaBPk7V6gy+me+QAEpsOnVU0HnX+GJ8I9wILRAygERg0sOw
nwem6bPDsjK9L8xX2Xi8YyHt7+qZ5EM3Yd9YTHXYNJEayLh2srN73fxrPEsk0T9k
gb45vCnUeOODPatS6xWDNVVgK3AZBXz6VDDjEpUsIWwnWYzdPTAccgxpUF0N5xfV
AM8Gb+++o5qleQcG+zjbBn8m/+71k3NmWl0Ekmg0WfXsiHzbyg42KCaL/+uJSOHx
AgMBAAGjggFjMIIBXzAJBgNVHRMEAjAAMC0GCWCGSAGG+EIBDQQgFh5FYXN5LVJT
QSBHZW5lcmF0ZWQgQ2VydGlmaWNhdGUwHQYDVR0OBBYEFP3cLOAZVUylXtKal+Fo
nBbbu3YZMIHhBgNVHSMEgdkwgdaAFBLNYATSoICecO3Gmbh7LMZS/RmhoYGypIGv
MIGsMQswCQYDVQQGEwJVUzELMAkGA1UECBMCT0gxETAPBgNVBAcTCENvbHVtYnVz
MRIwEAYDVQQKEwlWaWtpbmdWUE4xHTAbBgNVBAsTFE15T3JnYW5pemF0aW9uYWxV
bml0MRUwEwYDVQQDEwxWaWtpbmdWUE4gQ0ExEDAOBgNVBCkTB0Vhc3lSU0ExITAf
BgkqhkiG9w0BCQEWEm1lQG15aG9zdC5teWRvbWFpboIJAM81he6Avyo+MBMGA1Ud
JQQMMAoGCCsGAQUFBwMCMAsGA1UdDwQEAwIHgDANBgkqhkiG9w0BAQQFAAOCAgEA
6BGGbvNCNQ2e5rBHj4qfQHAHb28pGPGFQ/9YfTPqcEkOLPpbzhxghkcji9idKxXM
OjW723hV74+YlHUO2hJzOHfAIWkMo1YimxhaAFjXUdGWV2NeU44FqMFqOPR3Nw1M
Jm3pVQMdLSB1D0oRSWv4Zu9H1pqZClFGJ2OOp0Ss61iMQoh7EAc/DzMY44FLgluw
4VUY6WWmGCv55awUPwHYbmTBaAyxLyqnN4ZSAZmRjptMzWsr6M93026TQIwuPOrU
1df1rjaN7SJIz6t6IPxaZDJ/Qi8KdAvopN3G3LntiU3n3ZMkFvgTgMIBVy0dGgB9
IADKcxo86GQld6STOSirPNLIGhqbRrNC6fqkCWuaP7TQMcUYfLdsyO3N/En7qc6n
Goof721Ole0EMtMKafhsEp4us27oxRXZhDJuMYVpJ9bHNJ6knnJAjz2wYLbrztc8
KQaNDJUoHUz0c508pEzktM1eYskvte1ZMx0Ki/ls+uH0E0CYipiKTFi8aVBzCxQo
2aIQiNBhD3I1Dth5423u58mA6mpovbGMlg+0leBwYYiC9nI0WCTw76y4XGua/vvH
IHo0SmIdQ2BHJUXo3BBC2oTAhy7pcUBI1i9xsqM6UUQuMMuRsorTo71bcg9xZz20
7NgqbilalF08UIVJNMziUbkSMHEAe2rqa2+edYJcW+w=
-----END CERTIFICATE-----
