Certificate:
    Data:
        Version: 3 (0x2)
        Serial Number: 2296 (0x8f8)
    Signature Algorithm: md5WithRSAEncryption
        Issuer: C=US, ST=OH, L=Columbus, O=VikingVPN, OU=MyOrganizationalUnit, CN=VikingVPN CA/name=EasyRSA/emailAddress=me@myhost.mydomain
        Validity
            Not Before: Jul 16 09:05:51 2014 GMT
            Not After : Jul 13 09:05:51 2024 GMT
        Subject: CN=Client810Cert037d7e
        Subject Public Key Info:
            Public Key Algorithm: rsaEncryption
                Public-Key: (4096 bit)
                Modulus:
                    00:ce:17:61:a2:c9:79:5e:6f:cc:e2:f9:e3:f9:ff:
                    e3:cc:53:fa:68:39:d9:c0:27:f0:cd:25:6a:c6:1b:
                    14:e7:fa:d5:b1:46:43:f6:c5:52:f4:23:80:5f:25:
                    99:02:d7:0c:22:7c:48:73:6b:12:68:c8:c1:19:63:
                    39:85:86:f1:5b:f1:d4:8d:31:bf:9d:e7:5c:8e:1a:
                    58:57:f4:20:43:c0:94:cb:1b:cb:78:4c:3e:54:84:
                    cf:ea:83:66:09:82:9d:92:06:d5:7b:b9:31:b9:57:
                    74:7b:0b:16:82:a0:1d:a2:6f:4d:54:a3:47:3a:ec:
                    79:3c:5b:48:b3:78:9a:ac:c4:82:ff:1a:de:91:0c:
                    29:0d:01:41:b6:d1:24:0e:21:18:37:47:db:94:16:
                    ea:4f:2b:62:12:39:9a:7f:20:3b:3d:5b:f8:e9:98:
                    13:85:6f:e9:3d:75:fd:14:0a:57:4a:0e:6f:a4:ff:
                    59:e7:d1:81:0f:f3:f1:3a:55:05:38:e8:65:34:d1:
                    4f:1d:2b:03:b5:a2:26:60:1b:87:1f:ea:2e:3a:d2:
                    6a:bf:4f:ad:d2:07:a8:ff:f0:0c:2d:bf:b8:f7:75:
                    3f:ca:da:28:82:c3:71:37:44:81:4f:e5:e2:50:ae:
                    52:85:55:af:9a:32:35:70:72:8d:64:c4:14:ff:f5:
                    fe:bf:63:46:50:ad:1d:b4:6f:d5:5f:b7:5f:f2:1b:
                    2a:03:44:3e:62:1e:8f:27:00:f1:97:55:39:79:91:
                    d3:c8:4c:75:68:6c:3e:41:6a:bd:01:9e:62:89:6b:
                    5f:fe:d1:e1:e0:af:b5:a5:59:40:c2:5b:34:9b:ce:
                    e4:19:fc:a5:58:2a:9d:fc:42:a3:3b:93:00:8b:de:
                    a6:97:6f:8e:cd:cf:de:8b:70:c7:50:2d:0e:af:01:
                    00:ac:90:65:87:c3:04:79:44:c3:ae:6e:6a:3e:07:
                    70:c0:59:39:be:c6:b6:2b:ef:3e:32:37:36:78:36:
                    a9:17:29:dc:3a:91:ff:b3:87:78:2d:de:0f:ad:86:
                    20:c2:3c:0e:6a:8f:2d:60:37:80:be:cc:3d:a8:12:
                    99:3b:f9:e2:cb:fa:4e:61:fe:66:0d:93:d0:68:e9:
                    99:cc:3b:db:1f:95:95:b4:2b:96:93:61:a5:1d:c7:
                    75:45:bf:81:83:7f:4b:db:f9:66:50:c8:ee:11:e2:
                    f9:16:0e:c2:9d:5f:63:f5:56:e0:7a:88:59:75:96:
                    4c:38:04:18:9f:12:11:94:eb:82:bf:e5:ba:25:3a:
                    44:fa:eb:ff:29:9d:f3:40:b4:ae:c9:cd:81:e1:87:
                    69:cc:d8:23:f9:8c:e3:d8:90:f7:f6:93:0f:9b:27:
                    05:f4:eb
                Exponent: 65537 (0x10001)
        X509v3 extensions:
            X509v3 Basic Constraints: 
                CA:FALSE
            Netscape Comment: 
                Easy-RSA Generated Certificate
            X509v3 Subject Key Identifier: 
                0C:69:C9:90:08:97:68:61:DE:83:B7:90:01:F7:BC:7A:64:7B:64:D8
            X509v3 Authority Key Identifier: 
                keyid:12:CD:60:04:D2:A0:80:9E:70:ED:C6:99:B8:7B:2C:C6:52:FD:19:A1
                DirName:/C=US/ST=OH/L=Columbus/O=VikingVPN/OU=MyOrganizationalUnit/CN=VikingVPN CA/name=EasyRSA/emailAddress=me@myhost.mydomain
                serial:CF:35:85:EE:80:BF:2A:3E

            X509v3 Extended Key Usage: 
                TLS Web Client Authentication
            X509v3 Key Usage: 
                Digital Signature
    Signature Algorithm: md5WithRSAEncryption
         61:ad:76:49:78:96:11:e1:c4:39:df:1a:f4:69:86:30:d0:9d:
         1f:67:f9:5e:a7:d9:2b:a8:2f:46:6c:22:29:10:53:2c:e5:11:
         36:32:e7:b4:6d:4b:bd:c9:f1:7e:c4:11:53:46:fe:60:5b:46:
         f2:a5:de:0a:99:4b:26:0d:98:21:aa:e2:ec:c9:97:87:cf:be:
         78:9b:d0:b3:1c:2b:42:5a:56:08:60:6e:15:26:af:f6:1b:12:
         30:47:d5:fa:86:46:0a:da:d9:2f:63:6e:34:4a:aa:59:a5:1d:
         44:bb:aa:14:fb:38:15:7d:00:1b:75:09:fa:8b:43:49:1a:e3:
         a8:2a:cd:77:8a:42:7e:71:c0:40:e9:f6:96:43:05:11:fc:f1:
         57:fa:34:88:5a:5e:f5:7f:7e:3c:c2:fb:bc:3c:cf:66:cd:1c:
         f7:d3:46:4f:91:d0:72:d6:0f:9b:97:c7:2c:a6:c9:dd:b4:91:
         80:c0:a4:62:21:36:26:c9:8a:3f:7a:b9:c3:a7:37:a0:49:98:
         ed:4f:d8:14:6a:0d:22:51:19:df:86:1d:e6:61:d6:36:b1:66:
         8e:09:e0:a3:3b:23:a4:03:4b:e6:19:8d:2a:66:40:0b:b8:4e:
         0b:33:2a:76:1b:65:4f:7a:30:8e:cb:c5:57:6d:e7:9b:f5:c7:
         87:56:c5:c6:ef:89:59:3b:3f:40:92:80:29:e8:9f:17:d2:da:
         80:a2:1f:a4:31:b6:89:56:2d:08:98:1a:bd:a5:6a:92:68:eb:
         ba:71:8d:f2:fd:d3:a6:59:88:ce:e9:90:8b:92:c7:2d:23:50:
         63:66:5a:b1:59:a0:b8:cd:51:0a:2c:ff:ee:06:e1:b5:64:0f:
         92:c6:7d:40:fa:c7:a4:12:06:f9:d7:0e:f8:9d:0c:91:aa:e2:
         ea:65:34:68:30:9f:2c:91:e4:ec:58:a9:7c:8a:24:7c:87:4c:
         7b:ae:77:6e:61:a8:88:6a:39:ae:50:87:0c:1e:13:2e:1b:a4:
         08:54:a1:1c:c8:c9:44:68:f8:04:a3:85:46:97:fc:6c:6d:5a:
         67:4e:55:c4:a3:29:89:3b:dd:10:7e:bf:9b:6f:2d:78:1e:fa:
         6c:e5:a3:5f:68:5a:8d:c1:cc:14:90:4b:34:8e:91:5a:7b:a6:
         7b:c3:7d:34:ff:95:56:d6:6e:01:06:bd:ec:c9:fe:d4:09:f9:
         75:b2:db:71:72:e4:a1:9f:a2:e4:02:e2:f8:ac:f5:2f:bb:f6:
         e4:10:b6:60:fd:6e:e8:dc:91:94:66:ed:0b:6a:e7:e1:c4:36:
         85:21:90:b6:e3:fd:57:94:1c:9b:b1:4d:41:c7:e6:f4:cd:b6:
         f4:03:f5:f3:14:d3:c6:80
-----BEGIN CERTIFICATE-----
MIIGrDCCBJSgAwIBAgICCPgwDQYJKoZIhvcNAQEEBQAwgawxCzAJBgNVBAYTAlVT
MQswCQYDVQQIEwJPSDERMA8GA1UEBxMIQ29sdW1idXMxEjAQBgNVBAoTCVZpa2lu
Z1ZQTjEdMBsGA1UECxMUTXlPcmdhbml6YXRpb25hbFVuaXQxFTATBgNVBAMTDFZp
a2luZ1ZQTiBDQTEQMA4GA1UEKRMHRWFzeVJTQTEhMB8GCSqGSIb3DQEJARYSbWVA
bXlob3N0Lm15ZG9tYWluMB4XDTE0MDcxNjA5MDU1MVoXDTI0MDcxMzA5MDU1MVow
HjEcMBoGA1UEAxMTQ2xpZW50ODEwQ2VydDAzN2Q3ZTCCAiIwDQYJKoZIhvcNAQEB
BQADggIPADCCAgoCggIBAM4XYaLJeV5vzOL54/n/48xT+mg52cAn8M0lasYbFOf6
1bFGQ/bFUvQjgF8lmQLXDCJ8SHNrEmjIwRljOYWG8Vvx1I0xv53nXI4aWFf0IEPA
lMsby3hMPlSEz+qDZgmCnZIG1Xu5MblXdHsLFoKgHaJvTVSjRzrseTxbSLN4mqzE
gv8a3pEMKQ0BQbbRJA4hGDdH25QW6k8rYhI5mn8gOz1b+OmYE4Vv6T11/RQKV0oO
b6T/WefRgQ/z8TpVBTjoZTTRTx0rA7WiJmAbhx/qLjrSar9PrdIHqP/wDC2/uPd1
P8raKILDcTdEgU/l4lCuUoVVr5oyNXByjWTEFP/1/r9jRlCtHbRv1V+3X/IbKgNE
PmIejycA8ZdVOXmR08hMdWhsPkFqvQGeYolrX/7R4eCvtaVZQMJbNJvO5Bn8pVgq
nfxCozuTAIveppdvjs3P3otwx1AtDq8BAKyQZYfDBHlEw65uaj4HcMBZOb7Gtivv
PjI3Nng2qRcp3DqR/7OHeC3eD62GIMI8DmqPLWA3gL7MPagSmTv54sv6TmH+Zg2T
0Gjpmcw72x+VlbQrlpNhpR3HdUW/gYN/S9v5ZlDI7hHi+RYOwp1fY/VW4HqIWXWW
TDgEGJ8SEZTrgr/luiU6RPrr/ymd80C0rsnNgeGHaczYI/mM49iQ9/aTD5snBfTr
AgMBAAGjggFjMIIBXzAJBgNVHRMEAjAAMC0GCWCGSAGG+EIBDQQgFh5FYXN5LVJT
QSBHZW5lcmF0ZWQgQ2VydGlmaWNhdGUwHQYDVR0OBBYEFAxpyZAIl2hh3oO3kAH3
vHpke2TYMIHhBgNVHSMEgdkwgdaAFBLNYATSoICecO3Gmbh7LMZS/RmhoYGypIGv
MIGsMQswCQYDVQQGEwJVUzELMAkGA1UECBMCT0gxETAPBgNVBAcTCENvbHVtYnVz
MRIwEAYDVQQKEwlWaWtpbmdWUE4xHTAbBgNVBAsTFE15T3JnYW5pemF0aW9uYWxV
bml0MRUwEwYDVQQDEwxWaWtpbmdWUE4gQ0ExEDAOBgNVBCkTB0Vhc3lSU0ExITAf
BgkqhkiG9w0BCQEWEm1lQG15aG9zdC5teWRvbWFpboIJAM81he6Avyo+MBMGA1Ud
JQQMMAoGCCsGAQUFBwMCMAsGA1UdDwQEAwIHgDANBgkqhkiG9w0BAQQFAAOCAgEA
Ya12SXiWEeHEOd8a9GmGMNCdH2f5XqfZK6gvRmwiKRBTLOURNjLntG1LvcnxfsQR
U0b+YFtG8qXeCplLJg2YIari7MmXh8++eJvQsxwrQlpWCGBuFSav9hsSMEfV+oZG
CtrZL2NuNEqqWaUdRLuqFPs4FX0AG3UJ+otDSRrjqCrNd4pCfnHAQOn2lkMFEfzx
V/o0iFpe9X9+PML7vDzPZs0c99NGT5HQctYPm5fHLKbJ3bSRgMCkYiE2JsmKP3q5
w6c3oEmY7U/YFGoNIlEZ34Yd5mHWNrFmjgngozsjpANL5hmNKmZAC7hOCzMqdhtl
T3owjsvFV23nm/XHh1bFxu+JWTs/QJKAKeifF9LagKIfpDG2iVYtCJgavaVqkmjr
unGN8v3TplmIzumQi5LHLSNQY2ZasVmguM1RCiz/7gbhtWQPksZ9QPrHpBIG+dcO
+J0Mkari6mU0aDCfLJHk7FipfIokfIdMe653bmGoiGo5rlCHDB4TLhukCFShHMjJ
RGj4BKOFRpf8bG1aZ05VxKMpiTvdEH6/m28teB76bOWjX2hajcHMFJBLNI6RWnum
e8N9NP+VVtZuAQa97Mn+1An5dbLbcXLkoZ+i5ALi+Kz1L7v25BC2YP1u6NyRlGbt
C2rn4cQ2hSGQtuP9V5Qcm7FNQcfm9M229AP18xTTxoA=
-----END CERTIFICATE-----
