Certificate:
    Data:
        Version: 3 (0x2)
        Serial Number: 2301 (0x8fd)
    Signature Algorithm: md5WithRSAEncryption
        Issuer: C=US, ST=OH, L=Columbus, O=VikingVPN, OU=MyOrganizationalUnit, CN=VikingVPN CA/name=EasyRSA/emailAddress=me@myhost.mydomain
        Validity
            Not Before: Jul 16 20:28:27 2014 GMT
            Not After : Jul 13 20:28:27 2024 GMT
        Subject: CN=Client811Cert872620
        Subject Public Key Info:
            Public Key Algorithm: rsaEncryption
                Public-Key: (4096 bit)
                Modulus:
                    00:e0:a0:14:aa:d5:b8:66:5a:05:15:97:35:aa:9d:
                    17:14:f7:97:11:c5:d6:d7:ef:ee:2a:54:e4:73:51:
                    a9:70:98:6a:56:39:62:bb:73:f6:ac:82:e8:f2:e9:
                    7b:02:0c:31:88:74:07:9f:2b:20:f7:9f:6a:45:cc:
                    68:33:da:6f:99:19:cd:ef:ac:28:2d:b6:80:04:86:
                    e0:7d:e5:02:0f:82:d2:a9:ec:fa:72:7b:0d:44:7c:
                    c2:98:cd:c7:cd:45:e9:b2:40:ec:2f:94:d4:91:8b:
                    dd:74:bf:4d:b9:03:6e:23:39:63:5d:dd:fe:78:5c:
                    64:a0:83:52:72:71:f2:2e:79:3d:dc:2a:a1:96:c8:
                    aa:a5:4b:f3:21:09:6d:4f:9e:50:7f:f1:f1:5c:f2:
                    d9:b5:0d:9c:52:06:32:cf:73:8a:ad:32:c2:79:54:
                    1d:82:44:7a:6e:c2:5d:9e:03:04:d1:1e:6b:81:21:
                    be:ed:b9:56:ac:f8:79:62:30:75:ba:35:dd:13:cb:
                    ba:07:98:fa:17:e6:a6:8d:7e:5a:5b:16:dc:5b:07:
                    94:f1:66:ec:67:75:dd:59:38:42:aa:bc:90:b9:3e:
                    c9:d5:3a:ae:21:b2:16:82:f9:b5:dd:8d:1d:5b:a4:
                    24:4d:80:34:89:74:5d:a1:2d:3d:60:cc:2d:61:ca:
                    5c:dc:90:71:6f:df:48:bf:97:bc:73:f7:bb:b9:aa:
                    c3:24:d6:d4:a8:48:50:3b:14:81:d3:2a:c0:fb:fe:
                    f5:4e:6f:5c:5b:23:ba:7d:49:4e:f5:f1:97:34:cb:
                    eb:e7:f4:31:bb:62:11:c3:d0:6b:3f:c3:c6:41:02:
                    c6:9a:fa:ff:ff:c7:cc:6c:9b:2e:8d:25:2e:e8:21:
                    33:5c:bd:38:48:14:a6:fc:44:b2:91:c4:3a:21:56:
                    2d:7b:0b:15:52:70:a2:70:51:e4:09:8d:24:40:da:
                    39:de:d4:f4:0d:5d:13:c6:14:79:8d:52:e9:c8:86:
                    b2:bd:45:56:24:af:78:29:2c:b0:21:49:6d:cd:d2:
                    56:76:13:d8:22:41:c3:67:ba:12:09:11:9c:19:ab:
                    9d:1c:36:43:13:f9:b4:28:92:1f:f1:e4:ab:8e:d6:
                    e2:72:c9:9a:38:c6:3d:1b:4a:5f:75:41:c4:e5:6f:
                    5d:0b:d9:bd:ac:c4:24:6a:1b:ad:e9:0f:e8:4b:f3:
                    03:ea:e3:a2:6e:d6:0b:ee:f7:0f:12:8e:3a:a1:20:
                    ad:f0:82:21:d3:56:b3:f4:9d:6f:64:61:a4:f0:11:
                    b6:33:39:29:75:86:d7:8d:c1:07:27:34:b7:4c:a5:
                    c3:62:6d:25:24:a5:de:22:4a:bb:66:07:02:4c:73:
                    0f:ae:8f
                Exponent: 65537 (0x10001)
        X509v3 extensions:
            X509v3 Basic Constraints: 
                CA:FALSE
            Netscape Comment: 
                Easy-RSA Generated Certificate
            X509v3 Subject Key Identifier: 
                F1:49:95:D9:A6:20:AC:85:05:AA:11:41:13:AB:9D:60:58:47:95:FA
            X509v3 Authority Key Identifier: 
                keyid:12:CD:60:04:D2:A0:80:9E:70:ED:C6:99:B8:7B:2C:C6:52:FD:19:A1
                DirName:/C=US/ST=OH/L=Columbus/O=VikingVPN/OU=MyOrganizationalUnit/CN=VikingVPN CA/name=EasyRSA/emailAddress=me@myhost.mydomain
                serial:CF:35:85:EE:80:BF:2A:3E

            X509v3 Extended Key Usage: 
                TLS Web Client Authentication
            X509v3 Key Usage: 
                Digital Signature
    Signature Algorithm: md5WithRSAEncryption
         ce:5c:1c:8f:21:ce:88:80:81:c8:92:f4:3f:0f:41:85:9f:27:
         62:a0:f5:9e:12:b1:e4:15:6d:eb:e4:b3:3e:dd:7c:8b:d1:5a:
         90:af:f6:6e:50:14:b5:fb:1b:ed:1e:76:ba:b4:aa:3f:fa:01:
         7c:18:09:aa:75:2e:b3:68:34:3b:03:9f:70:3c:e3:32:13:41:
         36:d6:99:d6:0b:6d:78:c2:1b:d8:3e:f6:ba:ce:6e:e7:11:56:
         97:a8:57:fc:02:96:fe:45:bb:ed:3e:47:7f:e2:51:30:5a:f0:
         f1:ee:63:e5:5e:a1:5e:63:54:17:63:3f:77:7b:3b:be:55:ad:
         88:bd:6b:59:9a:6c:87:dc:b4:b1:6c:72:72:36:00:4d:31:d1:
         83:a6:0c:91:ef:45:ff:bf:77:01:6a:5e:c9:45:fc:a4:de:b6:
         be:b7:49:b1:5e:11:5f:2c:8a:a1:6b:37:2f:d7:80:57:94:30:
         f5:70:00:39:05:51:18:b0:93:cf:5a:03:8b:ee:ce:bb:42:bf:
         d4:c0:56:4d:a1:0d:1e:34:72:12:29:a1:96:cf:31:45:e8:ae:
         d1:a9:be:fc:b4:25:62:01:97:d9:5a:55:ad:4e:91:f6:ec:ec:
         bf:87:77:bc:d6:b5:fc:52:e9:6f:93:ec:05:84:e5:6b:5e:9e:
         50:1f:39:6e:1f:a5:c5:70:46:99:77:80:06:6d:47:db:63:07:
         8b:29:f8:c5:6f:8d:9f:19:de:29:6d:c3:3e:5e:72:22:0e:2f:
         19:f6:85:ca:5c:2f:7c:ca:07:2a:22:ca:90:ad:59:48:e3:d3:
         9b:90:d8:13:b2:79:7f:49:b1:b8:d8:97:52:54:42:2a:16:6e:
         ee:24:b6:7c:e9:8d:1d:16:f9:dd:6b:27:63:a3:89:05:db:da:
         e6:fc:e5:be:fe:f0:24:37:94:ee:66:52:3e:4d:f5:7a:74:52:
         cb:2e:04:13:a7:10:5c:f5:16:63:b1:a3:99:12:03:83:b2:7f:
         6e:f3:71:b4:57:a0:0a:fd:7b:99:a4:c5:5a:7a:35:c9:7a:b6:
         44:cc:bd:2c:b7:84:d8:75:bf:62:95:f1:21:be:ee:59:f4:75:
         15:16:fe:d4:4c:63:90:50:ff:9c:b9:21:e7:90:39:ec:8a:08:
         34:c5:04:c2:46:e6:33:0a:d5:eb:f8:63:5d:45:4a:9c:4d:e7:
         75:4d:91:eb:ea:d2:10:c3:5c:f1:0a:81:52:cb:c3:ab:5e:12:
         d1:fb:bb:fc:22:95:93:4b:f5:69:8f:e4:c5:5c:f9:0d:b0:d2:
         27:2f:b5:99:c6:d8:42:b4:ff:63:58:9f:5d:91:e7:f3:59:95:
         fd:9e:83:2c:da:6b:f2:71
-----BEGIN CERTIFICATE-----
MIIGrDCCBJSgAwIBAgICCP0wDQYJKoZIhvcNAQEEBQAwgawxCzAJBgNVBAYTAlVT
MQswCQYDVQQIEwJPSDERMA8GA1UEBxMIQ29sdW1idXMxEjAQBgNVBAoTCVZpa2lu
Z1ZQTjEdMBsGA1UECxMUTXlPcmdhbml6YXRpb25hbFVuaXQxFTATBgNVBAMTDFZp
a2luZ1ZQTiBDQTEQMA4GA1UEKRMHRWFzeVJTQTEhMB8GCSqGSIb3DQEJARYSbWVA
bXlob3N0Lm15ZG9tYWluMB4XDTE0MDcxNjIwMjgyN1oXDTI0MDcxMzIwMjgyN1ow
HjEcMBoGA1UEAxMTQ2xpZW50ODExQ2VydDg3MjYyMDCCAiIwDQYJKoZIhvcNAQEB
BQADggIPADCCAgoCggIBAOCgFKrVuGZaBRWXNaqdFxT3lxHF1tfv7ipU5HNRqXCY
alY5Yrtz9qyC6PLpewIMMYh0B58rIPefakXMaDPab5kZze+sKC22gASG4H3lAg+C
0qns+nJ7DUR8wpjNx81F6bJA7C+U1JGL3XS/TbkDbiM5Y13d/nhcZKCDUnJx8i55
PdwqoZbIqqVL8yEJbU+eUH/x8Vzy2bUNnFIGMs9ziq0ywnlUHYJEem7CXZ4DBNEe
a4Ehvu25Vqz4eWIwdbo13RPLugeY+hfmpo1+WlsW3FsHlPFm7Gd13Vk4Qqq8kLk+
ydU6riGyFoL5td2NHVukJE2ANIl0XaEtPWDMLWHKXNyQcW/fSL+XvHP3u7mqwyTW
1KhIUDsUgdMqwPv+9U5vXFsjun1JTvXxlzTL6+f0MbtiEcPQaz/DxkECxpr6///H
zGybLo0lLughM1y9OEgUpvxEspHEOiFWLXsLFVJwonBR5AmNJEDaOd7U9A1dE8YU
eY1S6ciGsr1FViSveCkssCFJbc3SVnYT2CJBw2e6EgkRnBmrnRw2QxP5tCiSH/Hk
q47W4nLJmjjGPRtKX3VBxOVvXQvZvazEJGobrekP6EvzA+rjom7WC+73DxKOOqEg
rfCCIdNWs/Sdb2RhpPARtjM5KXWG143BByc0t0ylw2JtJSSl3iJKu2YHAkxzD66P
AgMBAAGjggFjMIIBXzAJBgNVHRMEAjAAMC0GCWCGSAGG+EIBDQQgFh5FYXN5LVJT
QSBHZW5lcmF0ZWQgQ2VydGlmaWNhdGUwHQYDVR0OBBYEFPFJldmmIKyFBaoRQROr
nWBYR5X6MIHhBgNVHSMEgdkwgdaAFBLNYATSoICecO3Gmbh7LMZS/RmhoYGypIGv
MIGsMQswCQYDVQQGEwJVUzELMAkGA1UECBMCT0gxETAPBgNVBAcTCENvbHVtYnVz
MRIwEAYDVQQKEwlWaWtpbmdWUE4xHTAbBgNVBAsTFE15T3JnYW5pemF0aW9uYWxV
bml0MRUwEwYDVQQDEwxWaWtpbmdWUE4gQ0ExEDAOBgNVBCkTB0Vhc3lSU0ExITAf
BgkqhkiG9w0BCQEWEm1lQG15aG9zdC5teWRvbWFpboIJAM81he6Avyo+MBMGA1Ud
JQQMMAoGCCsGAQUFBwMCMAsGA1UdDwQEAwIHgDANBgkqhkiG9w0BAQQFAAOCAgEA
zlwcjyHOiICByJL0Pw9BhZ8nYqD1nhKx5BVt6+SzPt18i9FakK/2blAUtfsb7R52
urSqP/oBfBgJqnUus2g0OwOfcDzjMhNBNtaZ1gtteMIb2D72us5u5xFWl6hX/AKW
/kW77T5Hf+JRMFrw8e5j5V6hXmNUF2M/d3s7vlWtiL1rWZpsh9y0sWxycjYATTHR
g6YMke9F/793AWpeyUX8pN62vrdJsV4RXyyKoWs3L9eAV5Qw9XAAOQVRGLCTz1oD
i+7Ou0K/1MBWTaENHjRyEimhls8xReiu0am+/LQlYgGX2VpVrU6R9uzsv4d3vNa1
/FLpb5PsBYTla16eUB85bh+lxXBGmXeABm1H22MHiyn4xW+NnxneKW3DPl5yIg4v
GfaFylwvfMoHKiLKkK1ZSOPTm5DYE7J5f0mxuNiXUlRCKhZu7iS2fOmNHRb53Wsn
Y6OJBdva5vzlvv7wJDeU7mZSPk31enRSyy4EE6cQXPUWY7GjmRIDg7J/bvNxtFeg
Cv17maTFWno1yXq2RMy9LLeE2HW/YpXxIb7uWfR1FRb+1ExjkFD/nLkh55A57IoI
NMUEwkbmMwrV6/hjXUVKnE3ndU2R6+rSEMNc8QqBUsvDq14S0fu7/CKVk0v1aY/k
xVz5DbDSJy+1mcbYQrT/Y1ifXZHn81mV/Z6DLNpr8nE=
-----END CERTIFICATE-----
