Certificate:
    Data:
        Version: 3 (0x2)
        Serial Number: 2302 (0x8fe)
    Signature Algorithm: md5WithRSAEncryption
        Issuer: C=US, ST=OH, L=Columbus, O=VikingVPN, OU=MyOrganizationalUnit, CN=VikingVPN CA/name=EasyRSA/emailAddress=me@myhost.mydomain
        Validity
            Not Before: Jul 16 20:30:53 2014 GMT
            Not After : Jul 13 20:30:53 2024 GMT
        Subject: CN=Client811Cert0dd11b
        Subject Public Key Info:
            Public Key Algorithm: rsaEncryption
                Public-Key: (4096 bit)
                Modulus:
                    00:a7:ef:ad:c7:13:b5:05:0a:c9:21:34:1b:27:ab:
                    ad:cc:55:e7:58:7a:cb:58:6c:93:3c:15:9f:3f:c4:
                    99:e7:5f:02:bd:23:28:3e:c5:db:24:48:11:21:af:
                    9d:41:8e:cc:5f:f6:82:25:ee:ca:de:e5:05:74:7c:
                    80:0f:48:6a:da:3b:ba:93:d8:46:88:74:77:41:7c:
                    b5:7d:f9:e1:87:4a:c9:df:7d:35:1f:09:70:af:87:
                    7b:6a:38:fb:e5:79:42:3b:b3:51:d2:d0:76:a2:5a:
                    b3:14:03:e5:58:fc:66:8b:7a:25:69:ca:bf:ef:ac:
                    71:07:f9:42:15:4a:20:a2:2d:cc:2e:19:b5:69:7f:
                    0f:78:3c:e4:56:50:ff:0d:5b:42:dd:14:b1:fe:2a:
                    a7:75:6f:f8:51:97:33:9c:94:7f:e6:15:ac:9d:95:
                    2a:40:77:40:70:ad:78:3b:c2:e0:ef:10:85:7a:df:
                    4d:9a:24:28:29:90:89:4c:39:20:94:c2:62:95:98:
                    cf:a5:54:c4:a5:f4:3e:71:d1:9a:c2:b4:d5:8a:1f:
                    b6:cc:5e:70:3f:44:3f:f2:c3:09:18:c4:dc:7f:39:
                    1b:33:32:dc:c2:e2:60:55:e1:09:6c:aa:b9:37:ec:
                    b8:d1:0a:e8:f4:5b:cb:98:be:d5:01:e8:7b:70:41:
                    fb:80:7a:d2:81:8e:6e:de:ad:00:dd:32:c1:ae:04:
                    0a:df:29:32:50:b8:2c:ca:4f:7c:e8:c7:a2:f7:57:
                    0f:e1:15:b0:60:17:29:3e:33:f6:c1:76:0b:c5:77:
                    45:2d:3e:67:29:94:ba:f2:cb:e2:b4:8a:18:bc:13:
                    94:66:d1:d0:06:54:9f:5c:08:ed:29:89:e9:30:61:
                    3d:1c:86:25:77:9e:a3:96:3e:3a:25:19:4c:c3:bc:
                    35:15:eb:fc:ae:3d:62:02:32:39:07:b8:45:2d:bc:
                    f9:b0:e1:a2:e0:7a:dc:f4:9c:cc:bc:73:55:12:5e:
                    23:d8:79:69:9e:4b:7a:b6:e6:80:5b:f5:77:b0:9b:
                    fa:41:b4:81:4b:34:88:7c:84:a6:79:4f:48:bd:98:
                    fa:84:cd:23:9c:2e:3e:e3:b1:ac:34:18:0e:67:33:
                    83:83:56:1e:5e:7e:68:9a:a0:d6:be:09:fe:fa:96:
                    e9:0c:9b:b9:20:1f:f3:0b:32:8b:6a:92:3f:69:b4:
                    0d:28:77:45:93:40:c4:5a:75:a0:65:ce:8b:0a:e2:
                    ee:c9:38:bb:f8:81:08:65:5c:b6:6b:48:fd:22:c5:
                    bb:50:24:dd:9d:03:c0:6a:94:32:08:ef:9f:2e:5c:
                    b8:57:67:e2:73:05:c1:76:fd:61:15:1c:a7:aa:63:
                    f7:42:05
                Exponent: 65537 (0x10001)
        X509v3 extensions:
            X509v3 Basic Constraints: 
                CA:FALSE
            Netscape Comment: 
                Easy-RSA Generated Certificate
            X509v3 Subject Key Identifier: 
                69:39:A6:D9:19:2C:2C:B5:B5:5C:31:3B:42:CC:24:73:70:24:0E:83
            X509v3 Authority Key Identifier: 
                keyid:12:CD:60:04:D2:A0:80:9E:70:ED:C6:99:B8:7B:2C:C6:52:FD:19:A1
                DirName:/C=US/ST=OH/L=Columbus/O=VikingVPN/OU=MyOrganizationalUnit/CN=VikingVPN CA/name=EasyRSA/emailAddress=me@myhost.mydomain
                serial:CF:35:85:EE:80:BF:2A:3E

            X509v3 Extended Key Usage: 
                TLS Web Client Authentication
            X509v3 Key Usage: 
                Digital Signature
    Signature Algorithm: md5WithRSAEncryption
         75:08:41:f7:8d:0e:bd:22:13:45:1f:da:c2:0b:d4:72:e8:63:
         4d:6f:4d:27:29:42:1f:73:97:e3:c5:e4:fd:90:b2:b5:3b:e1:
         2c:c4:ac:08:87:1d:17:25:e0:5b:a7:85:51:30:67:d4:76:3c:
         f6:a9:83:06:f8:0e:fa:3d:64:5a:67:89:86:82:b4:b1:7a:ae:
         12:14:98:65:dd:da:85:59:3e:57:26:d6:14:75:2d:e2:16:15:
         c8:65:85:96:91:29:1b:d7:9d:a5:80:c3:c2:96:83:8f:58:a5:
         bc:47:ae:3f:8e:de:bb:60:14:10:b1:87:40:3a:ed:af:68:5b:
         14:c6:28:05:37:86:2e:71:f2:cb:d7:04:68:25:f9:a1:b0:31:
         1a:59:13:71:52:ef:d9:24:a0:9b:fa:44:7b:d3:12:8d:ad:57:
         d4:99:f7:16:be:cd:fb:a6:95:72:56:5d:a1:32:e8:0f:58:54:
         be:d0:c8:05:9a:6d:99:8a:62:cf:c2:e2:e8:fd:17:1c:f9:1f:
         ed:ec:06:4c:76:92:c0:14:e6:91:4f:2d:62:30:1f:b7:fc:fc:
         66:f7:84:22:c6:05:b2:0d:b2:2c:32:4a:47:eb:4a:df:81:d6:
         33:33:b1:0a:33:47:d3:9d:7e:4d:8f:cd:2a:cf:b4:9f:de:9e:
         d1:66:a8:e2:1f:76:8b:ed:1a:39:7c:ab:d8:d5:9a:2f:ee:a1:
         42:6b:f3:b7:16:70:b2:08:68:b3:8c:98:4a:3e:8c:1b:2a:9d:
         4c:a0:b7:94:3e:58:3d:63:61:55:50:4c:66:ce:f0:5d:fb:a3:
         be:64:70:7e:b3:f9:1f:51:47:bb:08:dc:a6:be:56:ff:1a:60:
         01:a3:f5:b5:69:9d:79:c1:40:b5:fc:61:66:12:8d:94:08:f9:
         1f:6f:5e:5d:df:d6:97:3d:b8:67:02:8a:93:96:4a:6f:49:21:
         be:04:aa:bc:b7:6a:66:55:0f:31:cf:ca:d8:f6:19:3d:44:18:
         42:2b:e2:be:13:37:e9:5f:05:86:11:32:b2:e5:99:14:65:67:
         ee:1f:0c:2d:9a:b9:69:c1:88:40:56:01:d5:55:41:60:d5:d8:
         f2:34:58:76:f1:8e:51:56:9d:05:d1:68:09:dd:98:47:7e:e5:
         c0:32:53:43:78:90:7a:d1:8a:7b:01:23:22:59:76:04:df:2c:
         6c:95:4d:53:95:8e:c4:b2:a0:17:8e:a3:bd:55:46:69:e6:44:
         a3:89:83:ff:63:2a:2d:31:30:59:43:c4:1d:52:34:8d:f3:bd:
         c5:52:ae:6b:05:3f:c4:bb:59:70:96:fc:f3:39:01:98:10:98:
         f6:ec:ed:da:42:fd:19:3c
-----BEGIN CERTIFICATE-----
MIIGrDCCBJSgAwIBAgICCP4wDQYJKoZIhvcNAQEEBQAwgawxCzAJBgNVBAYTAlVT
MQswCQYDVQQIEwJPSDERMA8GA1UEBxMIQ29sdW1idXMxEjAQBgNVBAoTCVZpa2lu
Z1ZQTjEdMBsGA1UECxMUTXlPcmdhbml6YXRpb25hbFVuaXQxFTATBgNVBAMTDFZp
a2luZ1ZQTiBDQTEQMA4GA1UEKRMHRWFzeVJTQTEhMB8GCSqGSIb3DQEJARYSbWVA
bXlob3N0Lm15ZG9tYWluMB4XDTE0MDcxNjIwMzA1M1oXDTI0MDcxMzIwMzA1M1ow
HjEcMBoGA1UEAxMTQ2xpZW50ODExQ2VydDBkZDExYjCCAiIwDQYJKoZIhvcNAQEB
BQADggIPADCCAgoCggIBAKfvrccTtQUKySE0GyerrcxV51h6y1hskzwVnz/Emedf
Ar0jKD7F2yRIESGvnUGOzF/2giXuyt7lBXR8gA9Iato7upPYRoh0d0F8tX354YdK
yd99NR8JcK+He2o4++V5QjuzUdLQdqJasxQD5Vj8Zot6JWnKv++scQf5QhVKIKIt
zC4ZtWl/D3g85FZQ/w1bQt0Usf4qp3Vv+FGXM5yUf+YVrJ2VKkB3QHCteDvC4O8Q
hXrfTZokKCmQiUw5IJTCYpWYz6VUxKX0PnHRmsK01YoftsxecD9EP/LDCRjE3H85
GzMy3MLiYFXhCWyquTfsuNEK6PRby5i+1QHoe3BB+4B60oGObt6tAN0ywa4ECt8p
MlC4LMpPfOjHovdXD+EVsGAXKT4z9sF2C8V3RS0+ZymUuvLL4rSKGLwTlGbR0AZU
n1wI7SmJ6TBhPRyGJXeeo5Y+OiUZTMO8NRXr/K49YgIyOQe4RS28+bDhouB63PSc
zLxzVRJeI9h5aZ5LerbmgFv1d7Cb+kG0gUs0iHyEpnlPSL2Y+oTNI5wuPuOxrDQY
Dmczg4NWHl5+aJqg1r4J/vqW6QybuSAf8wsyi2qSP2m0DSh3RZNAxFp1oGXOiwri
7sk4u/iBCGVctmtI/SLFu1Ak3Z0DwGqUMgjvny5cuFdn4nMFwXb9YRUcp6pj90IF
AgMBAAGjggFjMIIBXzAJBgNVHRMEAjAAMC0GCWCGSAGG+EIBDQQgFh5FYXN5LVJT
QSBHZW5lcmF0ZWQgQ2VydGlmaWNhdGUwHQYDVR0OBBYEFGk5ptkZLCy1tVwxO0LM
JHNwJA6DMIHhBgNVHSMEgdkwgdaAFBLNYATSoICecO3Gmbh7LMZS/RmhoYGypIGv
MIGsMQswCQYDVQQGEwJVUzELMAkGA1UECBMCT0gxETAPBgNVBAcTCENvbHVtYnVz
MRIwEAYDVQQKEwlWaWtpbmdWUE4xHTAbBgNVBAsTFE15T3JnYW5pemF0aW9uYWxV
bml0MRUwEwYDVQQDEwxWaWtpbmdWUE4gQ0ExEDAOBgNVBCkTB0Vhc3lSU0ExITAf
BgkqhkiG9w0BCQEWEm1lQG15aG9zdC5teWRvbWFpboIJAM81he6Avyo+MBMGA1Ud
JQQMMAoGCCsGAQUFBwMCMAsGA1UdDwQEAwIHgDANBgkqhkiG9w0BAQQFAAOCAgEA
dQhB940OvSITRR/awgvUcuhjTW9NJylCH3OX48Xk/ZCytTvhLMSsCIcdFyXgW6eF
UTBn1HY89qmDBvgO+j1kWmeJhoK0sXquEhSYZd3ahVk+VybWFHUt4hYVyGWFlpEp
G9edpYDDwpaDj1ilvEeuP47eu2AUELGHQDrtr2hbFMYoBTeGLnHyy9cEaCX5obAx
GlkTcVLv2SSgm/pEe9MSja1X1Jn3Fr7N+6aVclZdoTLoD1hUvtDIBZptmYpiz8Li
6P0XHPkf7ewGTHaSwBTmkU8tYjAft/z8ZveEIsYFsg2yLDJKR+tK34HWMzOxCjNH
051+TY/NKs+0n96e0Wao4h92i+0aOXyr2NWaL+6hQmvztxZwsghos4yYSj6MGyqd
TKC3lD5YPWNhVVBMZs7wXfujvmRwfrP5H1FHuwjcpr5W/xpgAaP1tWmdecFAtfxh
ZhKNlAj5H29eXd/Wlz24ZwKKk5ZKb0khvgSqvLdqZlUPMc/K2PYZPUQYQivivhM3
6V8FhhEysuWZFGVn7h8MLZq5acGIQFYB1VVBYNXY8jRYdvGOUVadBdFoCd2YR37l
wDJTQ3iQetGKewEjIll2BN8sbJVNU5WOxLKgF46jvVVGaeZEo4mD/2MqLTEwWUPE
HVI0jfO9xVKuawU/xLtZcJb88zkBmBCY9uzt2kL9GTw=
-----END CERTIFICATE-----
