Certificate:
    Data:
        Version: 3 (0x2)
        Serial Number: 2337 (0x921)
    Signature Algorithm: md5WithRSAEncryption
        Issuer: C=US, ST=OH, L=Columbus, O=VikingVPN, OU=MyOrganizationalUnit, CN=VikingVPN CA/name=EasyRSA/emailAddress=me@myhost.mydomain
        Validity
            Not Before: Jul 21 13:41:14 2014 GMT
            Not After : Jul 18 13:41:14 2024 GMT
        Subject: CN=Client824Certd7233d
        Subject Public Key Info:
            Public Key Algorithm: rsaEncryption
                Public-Key: (4096 bit)
                Modulus:
                    00:c8:7a:50:25:64:e2:ed:f8:78:c8:ba:e3:9b:1e:
                    c9:38:d3:2f:92:b9:7b:c4:e0:e4:26:34:ea:e7:21:
                    e6:a6:9d:80:09:40:06:11:96:bd:de:c8:41:cc:4b:
                    49:2c:01:10:a8:43:33:bb:fd:cb:eb:1c:58:f4:08:
                    98:09:14:51:e0:8f:2f:31:8d:2b:59:1e:19:2b:e5:
                    9d:0b:f2:92:cf:fe:49:8d:ff:e7:d2:e7:ec:38:38:
                    bc:28:a2:1b:99:27:a0:4c:50:ef:8d:ba:d6:71:67:
                    4c:30:30:02:7f:50:5b:db:6c:55:60:f4:e7:b1:7d:
                    7e:18:d0:34:97:18:8c:e1:fa:75:af:00:3b:5c:70:
                    cc:ca:fd:16:4a:6f:06:41:33:53:b1:b4:2e:23:51:
                    bb:31:09:b3:63:4e:0f:00:7f:3d:7b:af:93:e5:4e:
                    3f:93:2d:19:1c:72:1b:ec:8a:2d:a6:5b:8c:e5:f6:
                    7b:68:85:ef:16:ab:73:8c:76:b5:98:26:1c:9b:ed:
                    0d:ae:04:41:41:bc:69:cc:c9:58:8a:99:f0:52:8d:
                    f8:00:42:4b:0e:64:cb:00:a7:f5:9d:fc:5a:6f:47:
                    41:fc:d2:eb:84:f0:8f:5a:6b:e4:e2:0f:45:eb:e4:
                    18:3c:53:13:88:c4:3b:5d:40:8b:3c:4a:9a:c1:94:
                    8a:eb:8f:8b:da:d3:5c:c4:57:39:e6:3d:ec:d5:d8:
                    8a:2c:d1:3f:63:7c:1a:d1:a4:36:28:ff:75:4e:f3:
                    8e:3d:47:12:61:ab:b7:50:71:70:4b:54:c8:15:52:
                    9f:48:31:93:89:f7:e8:8d:52:e1:c9:70:6c:b3:96:
                    73:25:78:e2:81:4b:59:d2:c3:3b:41:3e:39:83:8e:
                    5d:cb:55:a8:cd:5e:27:7f:eb:37:f2:eb:d3:3e:8b:
                    07:a7:94:41:2e:c4:11:da:6c:b6:45:fe:fd:3c:f5:
                    d2:b1:56:3c:87:09:16:f3:41:4c:3a:88:5f:fc:27:
                    3b:3a:e8:ed:45:34:07:d5:91:33:c0:dc:bd:6c:07:
                    ff:78:21:cc:83:14:77:4d:09:e6:d9:5b:1a:b4:5f:
                    19:b1:a2:d5:82:79:c5:d2:c9:f6:ab:54:8b:c9:3b:
                    e0:56:d5:64:b4:a1:3e:c0:37:90:53:84:2c:45:83:
                    c1:89:9a:6f:52:06:0d:ee:45:3d:1c:cc:7a:43:b7:
                    f4:bd:30:42:95:80:9c:73:2a:4b:eb:33:45:7e:3d:
                    f1:e4:94:98:50:58:2a:9e:95:fe:52:98:ce:8b:88:
                    60:88:c9:c1:89:40:b2:76:ed:be:11:80:6f:79:2d:
                    8f:d4:b9:28:86:b6:af:30:b0:38:75:f5:d4:a1:ae:
                    73:11:23
                Exponent: 65537 (0x10001)
        X509v3 extensions:
            X509v3 Basic Constraints: 
                CA:FALSE
            Netscape Comment: 
                Easy-RSA Generated Certificate
            X509v3 Subject Key Identifier: 
                FD:D0:8D:64:F8:73:0B:7A:20:6B:F3:BA:76:03:A4:E8:34:51:B1:DC
            X509v3 Authority Key Identifier: 
                keyid:12:CD:60:04:D2:A0:80:9E:70:ED:C6:99:B8:7B:2C:C6:52:FD:19:A1
                DirName:/C=US/ST=OH/L=Columbus/O=VikingVPN/OU=MyOrganizationalUnit/CN=VikingVPN CA/name=EasyRSA/emailAddress=me@myhost.mydomain
                serial:CF:35:85:EE:80:BF:2A:3E

            X509v3 Extended Key Usage: 
                TLS Web Client Authentication
            X509v3 Key Usage: 
                Digital Signature
    Signature Algorithm: md5WithRSAEncryption
         87:e7:ac:f0:e3:34:23:cf:68:7c:9a:54:3a:5e:72:12:b3:8b:
         00:b1:2d:bc:76:d3:cc:ca:f7:d8:0e:50:70:9c:ba:91:01:b4:
         be:cb:05:ba:ed:d3:89:90:21:b7:1a:f6:93:16:70:e0:95:d9:
         4b:e4:42:89:af:5d:51:ca:ac:0e:0c:f1:18:62:8e:f0:24:d3:
         0d:29:04:f4:8d:e0:31:aa:32:8f:7e:75:bc:35:86:86:7c:70:
         6c:05:35:fb:ab:9d:ef:40:b5:4f:48:b2:52:be:fd:60:10:66:
         7f:03:3c:ea:dc:fb:97:36:6f:0e:35:e4:d8:4e:92:cd:10:6a:
         f9:a6:a5:95:a9:62:42:2e:fb:ae:1c:06:33:60:ad:7d:ee:9d:
         54:5c:e2:37:12:a4:e7:39:76:ad:51:f1:65:17:84:54:cf:d7:
         b9:97:de:c7:af:36:3f:25:94:c6:4a:1d:d6:eb:0f:98:a9:c0:
         c3:ee:50:e0:94:eb:ff:1b:45:4e:47:ca:6a:0b:a0:3b:81:79:
         9e:34:17:3d:20:d8:c8:b2:3b:6b:66:1d:b4:95:4f:48:ae:56:
         26:ea:5f:8f:65:60:7a:56:db:62:51:62:86:c4:31:48:a0:6e:
         7e:c1:02:74:f0:a2:6c:2e:3c:06:14:87:a1:df:18:4c:42:5e:
         8e:b9:47:5e:cc:33:26:96:d8:38:40:e4:25:ae:39:68:d9:b5:
         04:e9:bc:22:e0:15:5f:22:15:06:84:8c:80:b5:b8:d6:17:e1:
         43:d7:eb:13:51:fe:d1:50:2a:2a:88:ec:b8:28:e8:a4:c8:b4:
         e4:3d:ba:9b:88:cb:18:41:f4:8c:d7:4a:8f:f6:8b:df:42:fa:
         98:62:e2:ef:f4:b8:5e:92:00:b3:94:15:ce:d0:fc:50:bb:22:
         53:ed:23:02:69:1e:1e:f6:73:00:0b:ed:ac:5a:9b:e7:a4:fd:
         ca:b8:95:67:6c:79:f5:ab:70:b0:6c:e6:93:b1:10:12:72:72:
         3c:14:6b:cf:cd:50:7e:f6:6d:8f:93:f1:18:ec:2e:c7:3f:68:
         41:36:57:a0:a2:ad:9d:d3:af:c1:78:5d:71:57:06:ce:cb:fd:
         c1:fd:39:94:ff:f1:90:2e:00:fe:4e:87:80:dc:28:be:06:7b:
         f9:31:2a:fd:db:86:19:f3:81:7b:15:1d:fc:c0:bc:1e:35:3d:
         5d:74:b0:e5:f7:8f:dd:9d:b7:e9:f2:d8:1c:04:0f:f1:5c:e1:
         5a:80:07:cb:04:05:e9:f7:85:fd:33:9c:a1:4b:c7:c4:89:f2:
         36:04:93:2b:28:5f:d4:14:8a:e5:f5:35:2a:97:e4:c4:af:8c:
         07:12:d1:1a:be:fb:de:a6
-----BEGIN CERTIFICATE-----
MIIGrDCCBJSgAwIBAgICCSEwDQYJKoZIhvcNAQEEBQAwgawxCzAJBgNVBAYTAlVT
MQswCQYDVQQIEwJPSDERMA8GA1UEBxMIQ29sdW1idXMxEjAQBgNVBAoTCVZpa2lu
Z1ZQTjEdMBsGA1UECxMUTXlPcmdhbml6YXRpb25hbFVuaXQxFTATBgNVBAMTDFZp
a2luZ1ZQTiBDQTEQMA4GA1UEKRMHRWFzeVJTQTEhMB8GCSqGSIb3DQEJARYSbWVA
bXlob3N0Lm15ZG9tYWluMB4XDTE0MDcyMTEzNDExNFoXDTI0MDcxODEzNDExNFow
HjEcMBoGA1UEAxMTQ2xpZW50ODI0Q2VydGQ3MjMzZDCCAiIwDQYJKoZIhvcNAQEB
BQADggIPADCCAgoCggIBAMh6UCVk4u34eMi645seyTjTL5K5e8Tg5CY06uch5qad
gAlABhGWvd7IQcxLSSwBEKhDM7v9y+scWPQImAkUUeCPLzGNK1keGSvlnQvyks/+
SY3/59Ln7Dg4vCiiG5knoExQ74261nFnTDAwAn9QW9tsVWD057F9fhjQNJcYjOH6
da8AO1xwzMr9FkpvBkEzU7G0LiNRuzEJs2NODwB/PXuvk+VOP5MtGRxyG+yKLaZb
jOX2e2iF7xarc4x2tZgmHJvtDa4EQUG8aczJWIqZ8FKN+ABCSw5kywCn9Z38Wm9H
QfzS64Twj1pr5OIPRevkGDxTE4jEO11AizxKmsGUiuuPi9rTXMRXOeY97NXYiizR
P2N8GtGkNij/dU7zjj1HEmGrt1BxcEtUyBVSn0gxk4n36I1S4clwbLOWcyV44oFL
WdLDO0E+OYOOXctVqM1eJ3/rN/Lr0z6LB6eUQS7EEdpstkX+/Tz10rFWPIcJFvNB
TDqIX/wnOzro7UU0B9WRM8DcvWwH/3ghzIMUd00J5tlbGrRfGbGi1YJ5xdLJ9qtU
i8k74FbVZLShPsA3kFOELEWDwYmab1IGDe5FPRzMekO39L0wQpWAnHMqS+szRX49
8eSUmFBYKp6V/lKYzouIYIjJwYlAsnbtvhGAb3ktj9S5KIa2rzCwOHX11KGucxEj
AgMBAAGjggFjMIIBXzAJBgNVHRMEAjAAMC0GCWCGSAGG+EIBDQQgFh5FYXN5LVJT
QSBHZW5lcmF0ZWQgQ2VydGlmaWNhdGUwHQYDVR0OBBYEFP3QjWT4cwt6IGvzunYD
pOg0UbHcMIHhBgNVHSMEgdkwgdaAFBLNYATSoICecO3Gmbh7LMZS/RmhoYGypIGv
MIGsMQswCQYDVQQGEwJVUzELMAkGA1UECBMCT0gxETAPBgNVBAcTCENvbHVtYnVz
MRIwEAYDVQQKEwlWaWtpbmdWUE4xHTAbBgNVBAsTFE15T3JnYW5pemF0aW9uYWxV
bml0MRUwEwYDVQQDEwxWaWtpbmdWUE4gQ0ExEDAOBgNVBCkTB0Vhc3lSU0ExITAf
BgkqhkiG9w0BCQEWEm1lQG15aG9zdC5teWRvbWFpboIJAM81he6Avyo+MBMGA1Ud
JQQMMAoGCCsGAQUFBwMCMAsGA1UdDwQEAwIHgDANBgkqhkiG9w0BAQQFAAOCAgEA
h+es8OM0I89ofJpUOl5yErOLALEtvHbTzMr32A5QcJy6kQG0vssFuu3TiZAhtxr2
kxZw4JXZS+RCia9dUcqsDgzxGGKO8CTTDSkE9I3gMaoyj351vDWGhnxwbAU1+6ud
70C1T0iyUr79YBBmfwM86tz7lzZvDjXk2E6SzRBq+aallaliQi77rhwGM2Ctfe6d
VFziNxKk5zl2rVHxZReEVM/XuZfex682PyWUxkod1usPmKnAw+5Q4JTr/xtFTkfK
agugO4F5njQXPSDYyLI7a2YdtJVPSK5WJupfj2VgelbbYlFihsQxSKBufsECdPCi
bC48BhSHod8YTEJejrlHXswzJpbYOEDkJa45aNm1BOm8IuAVXyIVBoSMgLW41hfh
Q9frE1H+0VAqKojsuCjopMi05D26m4jLGEH0jNdKj/aL30L6mGLi7/S4XpIAs5QV
ztD8ULsiU+0jAmkeHvZzAAvtrFqb56T9yriVZ2x59atwsGzmk7EQEnJyPBRrz81Q
fvZtj5PxGOwuxz9oQTZXoKKtndOvwXhdcVcGzsv9wf05lP/xkC4A/k6HgNwovgZ7
+TEq/duGGfOBexUd/MC8HjU9XXSw5feP3Z236fLYHAQP8VzhWoAHywQF6feF/TOc
oUvHxInyNgSTKyhf1BSK5fU1KpfkxK+MBxLRGr773qY=
-----END CERTIFICATE-----
