Certificate:
    Data:
        Version: 3 (0x2)
        Serial Number: 2343 (0x927)
    Signature Algorithm: md5WithRSAEncryption
        Issuer: C=US, ST=OH, L=Columbus, O=VikingVPN, OU=MyOrganizationalUnit, CN=VikingVPN CA/name=EasyRSA/emailAddress=me@myhost.mydomain
        Validity
            Not Before: Jul 22 00:42:35 2014 GMT
            Not After : Jul 19 00:42:35 2024 GMT
        Subject: CN=Client826Certcb0481
        Subject Public Key Info:
            Public Key Algorithm: rsaEncryption
                Public-Key: (4096 bit)
                Modulus:
                    00:dd:c1:d6:ed:5d:b7:2c:49:eb:25:f6:da:65:8c:
                    18:2e:e4:ab:cb:a5:52:b8:60:19:ee:ae:d7:45:c2:
                    bf:4e:bd:f5:fd:39:18:6c:d7:db:3d:e2:d2:ec:7c:
                    3f:80:94:e0:e6:91:cc:2e:47:c6:a3:ed:47:f7:49:
                    e6:2b:93:24:a8:a9:91:76:22:29:ab:c6:62:64:fe:
                    c9:35:66:c2:2c:57:b5:60:f2:bf:22:eb:f2:76:cf:
                    91:b2:cd:26:4b:6c:a1:bc:a4:34:5b:4d:95:fc:00:
                    a4:af:06:24:9e:36:1d:85:f7:1d:0e:6c:1f:f2:19:
                    84:6f:5e:ae:a2:23:a4:c0:f7:e6:2f:54:ab:e8:33:
                    ba:99:2e:1e:ed:57:0b:94:66:65:c7:fc:60:f1:95:
                    f2:1b:c5:15:13:a9:3c:37:ed:70:7c:34:11:7f:79:
                    44:24:93:35:27:25:9c:7c:34:47:d8:ba:13:2c:cf:
                    a8:84:6a:b2:d7:ad:5c:98:c8:f0:a5:05:07:bf:32:
                    92:e6:26:f8:1f:b4:04:75:83:82:bb:08:c0:f1:af:
                    39:36:80:bf:f5:cf:8b:22:39:09:cf:75:89:01:e6:
                    da:6c:07:c3:e9:cc:2b:99:f9:88:d5:02:ff:3d:f6:
                    d6:29:17:7b:f6:ff:0c:d1:11:17:25:9f:1f:bd:40:
                    9f:48:4f:68:b5:74:3a:a0:77:07:88:25:83:e8:b1:
                    e3:d6:24:ac:21:8e:8e:b9:3b:a6:78:ba:50:18:1f:
                    6f:c6:93:57:4a:11:2b:dc:a8:01:54:a0:17:e5:b1:
                    5e:a6:77:50:c4:75:91:26:e1:ac:78:f4:28:38:cb:
                    5b:86:da:10:b5:4c:0b:e4:06:30:62:eb:52:2c:6a:
                    46:15:c7:05:55:d1:97:da:c6:e6:58:64:53:4a:ea:
                    bb:c9:a4:0a:53:12:fb:2e:33:f7:a6:6b:b0:2e:12:
                    d7:53:cb:2f:d3:20:a4:94:4d:5f:2d:cd:18:bf:10:
                    72:72:4a:72:5b:21:12:40:7c:fb:b2:10:ef:4f:33:
                    49:6c:37:08:95:cb:a8:ba:8e:ff:ab:a5:2a:2e:1f:
                    b9:e9:bb:fb:ed:ed:be:b4:e5:13:90:8f:ba:e7:38:
                    a1:f5:19:54:c3:68:57:82:d0:cb:02:61:eb:e5:d8:
                    70:c8:76:a6:95:9c:5e:47:5c:98:30:a7:ff:06:c0:
                    93:23:1c:87:12:d8:ad:30:3a:87:e4:7d:c0:3f:1d:
                    3d:a0:02:17:29:f3:5f:ef:4b:15:63:0a:2e:e2:6a:
                    08:4e:2b:42:0a:e8:52:f9:4f:87:c2:65:95:59:20:
                    bc:ff:3b:9c:16:41:bb:12:09:0a:e3:12:ef:eb:29:
                    de:ad:a1
                Exponent: 65537 (0x10001)
        X509v3 extensions:
            X509v3 Basic Constraints: 
                CA:FALSE
            Netscape Comment: 
                Easy-RSA Generated Certificate
            X509v3 Subject Key Identifier: 
                7E:52:82:4D:E7:AD:B0:75:07:B9:B0:78:FA:5A:CE:7D:00:54:A8:98
            X509v3 Authority Key Identifier: 
                keyid:12:CD:60:04:D2:A0:80:9E:70:ED:C6:99:B8:7B:2C:C6:52:FD:19:A1
                DirName:/C=US/ST=OH/L=Columbus/O=VikingVPN/OU=MyOrganizationalUnit/CN=VikingVPN CA/name=EasyRSA/emailAddress=me@myhost.mydomain
                serial:CF:35:85:EE:80:BF:2A:3E

            X509v3 Extended Key Usage: 
                TLS Web Client Authentication
            X509v3 Key Usage: 
                Digital Signature
    Signature Algorithm: md5WithRSAEncryption
         4b:c5:9e:b7:ef:8f:41:b0:f6:3e:ce:cd:ba:31:a1:7a:ea:18:
         2b:ac:31:0f:c9:fe:13:82:91:30:2a:1f:ab:dc:e4:22:e2:48:
         cc:30:93:e0:cd:a2:f7:87:1e:6a:2a:27:50:9f:a5:3c:64:dc:
         7c:e9:99:67:a6:43:62:fb:57:8f:c3:70:37:ce:8f:e7:68:fb:
         6a:de:7e:d1:13:2e:49:ca:29:04:8c:ef:e5:11:f2:a7:17:79:
         af:ac:98:b2:13:30:21:9c:23:48:cc:13:22:b2:d2:69:24:19:
         44:e4:ec:95:71:b6:95:57:4f:b6:7b:39:c0:07:a3:6e:38:29:
         a5:2b:55:38:fa:5d:0a:3a:a1:d8:19:2b:42:2a:66:eb:73:a0:
         a8:b2:d7:1b:13:d6:a9:63:96:04:33:96:cd:83:2e:2f:b2:7e:
         75:0a:79:28:6f:39:79:ac:00:b5:c6:22:10:d6:7b:d2:04:ad:
         a9:c1:5d:d9:4c:60:52:1b:be:11:44:c7:ff:4f:05:4c:9c:5c:
         27:f7:08:77:df:a3:e0:05:50:44:80:b3:cf:d0:73:3b:d2:cd:
         8c:9d:7b:27:72:0e:bd:e8:05:53:8a:37:8f:d9:bb:80:4f:38:
         03:53:a8:4d:4c:44:41:18:ab:6e:d1:63:f0:b3:36:d5:4d:9e:
         a9:05:1c:b4:3a:dc:6d:5d:10:4f:12:83:d4:47:5d:29:6a:22:
         f9:01:41:57:d4:ae:65:e9:4d:9d:25:a8:7e:c2:27:e9:3a:b8:
         00:12:32:cd:a4:b2:c8:35:66:be:19:3d:cf:59:51:b4:fc:a6:
         6c:4b:07:10:93:e0:2b:ce:a2:4b:da:66:02:83:7d:b7:b9:d9:
         79:cb:3a:3e:53:f4:b2:81:14:6f:22:13:21:1b:de:98:ae:7d:
         39:8b:8e:e6:3e:2a:e6:dc:4a:fd:c8:2d:a5:a1:17:13:7d:d0:
         04:f0:c0:61:e7:c5:16:40:37:88:9e:6c:f7:aa:70:a6:65:7d:
         e3:55:f0:92:3d:93:c2:8c:f5:e3:4f:2c:d5:24:6d:1f:ca:8a:
         a0:24:56:13:ff:c6:55:ad:f7:52:d0:0e:21:f2:b1:32:e6:bd:
         ca:7a:39:c1:2e:34:dd:a7:a8:7f:f8:58:a1:31:bb:04:f1:bc:
         55:77:6b:17:56:09:12:53:df:d5:d2:e2:f3:88:17:c5:93:7e:
         17:0c:73:d9:fa:22:d3:44:92:7b:77:5c:48:41:20:b8:79:b1:
         a4:43:a9:27:f7:ba:c9:b7:69:34:e0:1d:84:2a:42:f5:db:a4:
         50:48:e8:99:ea:26:9e:f6:ce:d1:4f:11:34:2d:73:fe:50:3e:
         aa:dd:2d:ae:5e:8e:d4:d6
-----BEGIN CERTIFICATE-----
MIIGrDCCBJSgAwIBAgICCScwDQYJKoZIhvcNAQEEBQAwgawxCzAJBgNVBAYTAlVT
MQswCQYDVQQIEwJPSDERMA8GA1UEBxMIQ29sdW1idXMxEjAQBgNVBAoTCVZpa2lu
Z1ZQTjEdMBsGA1UECxMUTXlPcmdhbml6YXRpb25hbFVuaXQxFTATBgNVBAMTDFZp
a2luZ1ZQTiBDQTEQMA4GA1UEKRMHRWFzeVJTQTEhMB8GCSqGSIb3DQEJARYSbWVA
bXlob3N0Lm15ZG9tYWluMB4XDTE0MDcyMjAwNDIzNVoXDTI0MDcxOTAwNDIzNVow
HjEcMBoGA1UEAxMTQ2xpZW50ODI2Q2VydGNiMDQ4MTCCAiIwDQYJKoZIhvcNAQEB
BQADggIPADCCAgoCggIBAN3B1u1dtyxJ6yX22mWMGC7kq8ulUrhgGe6u10XCv069
9f05GGzX2z3i0ux8P4CU4OaRzC5HxqPtR/dJ5iuTJKipkXYiKavGYmT+yTVmwixX
tWDyvyLr8nbPkbLNJktsobykNFtNlfwApK8GJJ42HYX3HQ5sH/IZhG9erqIjpMD3
5i9Uq+gzupkuHu1XC5RmZcf8YPGV8hvFFROpPDftcHw0EX95RCSTNSclnHw0R9i6
EyzPqIRqstetXJjI8KUFB78ykuYm+B+0BHWDgrsIwPGvOTaAv/XPiyI5Cc91iQHm
2mwHw+nMK5n5iNUC/z321ikXe/b/DNERFyWfH71An0hPaLV0OqB3B4glg+ix49Yk
rCGOjrk7pni6UBgfb8aTV0oRK9yoAVSgF+WxXqZ3UMR1kSbhrHj0KDjLW4baELVM
C+QGMGLrUixqRhXHBVXRl9rG5lhkU0rqu8mkClMS+y4z96ZrsC4S11PLL9MgpJRN
Xy3NGL8QcnJKclshEkB8+7IQ708zSWw3CJXLqLqO/6ulKi4fuem7++3tvrTlE5CP
uuc4ofUZVMNoV4LQywJh6+XYcMh2ppWcXkdcmDCn/wbAkyMchxLYrTA6h+R9wD8d
PaACFynzX+9LFWMKLuJqCE4rQgroUvlPh8JllVkgvP87nBZBuxIJCuMS7+sp3q2h
AgMBAAGjggFjMIIBXzAJBgNVHRMEAjAAMC0GCWCGSAGG+EIBDQQgFh5FYXN5LVJT
QSBHZW5lcmF0ZWQgQ2VydGlmaWNhdGUwHQYDVR0OBBYEFH5Sgk3nrbB1B7mwePpa
zn0AVKiYMIHhBgNVHSMEgdkwgdaAFBLNYATSoICecO3Gmbh7LMZS/RmhoYGypIGv
MIGsMQswCQYDVQQGEwJVUzELMAkGA1UECBMCT0gxETAPBgNVBAcTCENvbHVtYnVz
MRIwEAYDVQQKEwlWaWtpbmdWUE4xHTAbBgNVBAsTFE15T3JnYW5pemF0aW9uYWxV
bml0MRUwEwYDVQQDEwxWaWtpbmdWUE4gQ0ExEDAOBgNVBCkTB0Vhc3lSU0ExITAf
BgkqhkiG9w0BCQEWEm1lQG15aG9zdC5teWRvbWFpboIJAM81he6Avyo+MBMGA1Ud
JQQMMAoGCCsGAQUFBwMCMAsGA1UdDwQEAwIHgDANBgkqhkiG9w0BAQQFAAOCAgEA
S8Wet++PQbD2Ps7NujGheuoYK6wxD8n+E4KRMCofq9zkIuJIzDCT4M2i94ceaion
UJ+lPGTcfOmZZ6ZDYvtXj8NwN86P52j7at5+0RMuScopBIzv5RHypxd5r6yYshMw
IZwjSMwTIrLSaSQZROTslXG2lVdPtns5wAejbjgppStVOPpdCjqh2BkrQipm63Og
qLLXGxPWqWOWBDOWzYMuL7J+dQp5KG85eawAtcYiENZ70gStqcFd2UxgUhu+EUTH
/08FTJxcJ/cId9+j4AVQRICzz9BzO9LNjJ17J3IOvegFU4o3j9m7gE84A1OoTUxE
QRirbtFj8LM21U2eqQUctDrcbV0QTxKD1EddKWoi+QFBV9SuZelNnSWofsIn6Tq4
ABIyzaSyyDVmvhk9z1lRtPymbEsHEJPgK86iS9pmAoN9t7nZecs6PlP0soEUbyIT
IRvemK59OYuO5j4q5txK/cgtpaEXE33QBPDAYefFFkA3iJ5s96pwpmV941Xwkj2T
woz1408s1SRtH8qKoCRWE//GVa33UtAOIfKxMua9yno5wS403aeof/hYoTG7BPG8
VXdrF1YJElPf1dLi84gXxZN+Fwxz2foi00SSe3dcSEEguHmxpEOpJ/e6ybdpNOAd
hCpC9dukUEjomeomnvbO0U8RNC1z/lA+qt0trl6O1NY=
-----END CERTIFICATE-----
