Certificate:
    Data:
        Version: 3 (0x2)
        Serial Number: 2348 (0x92c)
    Signature Algorithm: md5WithRSAEncryption
        Issuer: C=US, ST=OH, L=Columbus, O=VikingVPN, OU=MyOrganizationalUnit, CN=VikingVPN CA/name=EasyRSA/emailAddress=me@myhost.mydomain
        Validity
            Not Before: Jul 22 13:57:16 2014 GMT
            Not After : Jul 19 13:57:16 2024 GMT
        Subject: CN=Client813Cert99bac2
        Subject Public Key Info:
            Public Key Algorithm: rsaEncryption
                Public-Key: (4096 bit)
                Modulus:
                    00:c3:4e:9b:f3:46:dc:1c:91:88:2c:aa:c5:d3:b6:
                    eb:77:51:dd:70:60:29:4f:43:2b:d3:16:e3:b7:5b:
                    61:a3:1a:98:8b:9e:46:74:fc:be:39:b6:75:cb:dc:
                    cf:61:1e:1f:ff:f0:20:4d:a6:b2:f0:08:00:7f:6f:
                    3c:a4:c5:1c:96:49:f6:67:db:40:6f:71:75:96:6b:
                    d0:49:ef:86:ba:90:c0:5d:f9:44:3b:31:2f:58:70:
                    07:6b:c4:0c:c9:d5:22:58:77:43:df:0d:39:ab:3e:
                    20:a1:87:2a:b3:c9:f1:fe:d8:ec:bb:7e:c8:bb:c2:
                    4e:ec:2d:3e:11:31:48:cb:7d:67:45:b7:f6:4e:14:
                    b8:af:e2:89:db:29:5b:6a:b5:97:77:35:eb:0d:fa:
                    70:5f:81:91:f2:11:24:42:13:9b:f4:5a:37:ba:48:
                    2b:19:2c:78:14:6f:55:8a:e5:77:0b:25:39:8c:7e:
                    f6:ee:3e:a1:c8:9d:90:16:87:f9:38:be:c5:39:5d:
                    33:15:13:ba:3d:f7:35:95:a7:2b:56:85:93:f3:90:
                    4c:35:e7:63:b0:bc:12:d2:27:1c:a7:b4:b5:2b:03:
                    0f:45:d3:d7:ce:67:6e:f3:94:a9:00:79:71:5c:95:
                    6a:3e:1c:c5:31:09:70:7a:d3:a8:bd:f2:06:a9:af:
                    05:7c:53:1d:03:c8:ee:7e:94:4f:25:0b:87:ac:95:
                    23:79:b7:c6:c1:23:4a:9a:b6:79:a3:63:8c:9b:09:
                    5f:8c:8d:de:46:dd:e6:3e:18:aa:17:68:b9:af:49:
                    c6:b3:0d:8f:19:fc:54:6f:7b:4f:3f:ef:78:30:3d:
                    39:90:69:ca:60:ce:c2:b7:7a:ce:65:57:69:72:db:
                    96:de:03:30:27:d2:02:92:fd:e8:1f:b6:08:fc:c5:
                    c7:1b:b6:88:ef:2b:6d:8b:aa:35:af:12:33:3c:93:
                    91:52:e3:d7:4f:34:36:4a:7e:79:21:07:cb:35:1a:
                    6f:5d:71:bc:7f:1a:44:52:f8:63:88:6a:5b:64:18:
                    1d:53:6f:06:85:76:b6:1d:6f:29:11:5c:f3:d9:3f:
                    0e:75:a8:a7:30:86:3e:b1:06:3e:ad:b2:25:e3:72:
                    01:4d:5c:98:de:b9:06:c4:9f:c8:ca:2f:ba:a4:10:
                    ac:47:77:85:d4:42:35:7c:ec:23:96:c8:3e:04:4b:
                    b4:98:71:91:0b:e5:a5:88:28:77:e1:6f:b9:31:1b:
                    90:90:b2:5b:36:85:1f:1e:a2:00:98:b2:c1:b6:77:
                    3a:ad:b5:38:c9:8b:3d:48:f3:92:8c:8b:19:5e:da:
                    e4:c8:69:97:a6:47:8d:f7:ce:34:44:fb:aa:1a:4a:
                    29:3d:6d
                Exponent: 65537 (0x10001)
        X509v3 extensions:
            X509v3 Basic Constraints: 
                CA:FALSE
            Netscape Comment: 
                Easy-RSA Generated Certificate
            X509v3 Subject Key Identifier: 
                D7:07:34:4D:D5:02:D8:BA:60:B8:8A:B3:4C:E6:D1:97:6B:54:FC:A3
            X509v3 Authority Key Identifier: 
                keyid:12:CD:60:04:D2:A0:80:9E:70:ED:C6:99:B8:7B:2C:C6:52:FD:19:A1
                DirName:/C=US/ST=OH/L=Columbus/O=VikingVPN/OU=MyOrganizationalUnit/CN=VikingVPN CA/name=EasyRSA/emailAddress=me@myhost.mydomain
                serial:CF:35:85:EE:80:BF:2A:3E

            X509v3 Extended Key Usage: 
                TLS Web Client Authentication
            X509v3 Key Usage: 
                Digital Signature
    Signature Algorithm: md5WithRSAEncryption
         84:54:58:91:b4:3f:90:bb:b2:d3:63:15:88:58:74:e8:a4:2c:
         d8:65:dd:b4:ca:f4:8a:dd:05:f4:45:b3:e9:3a:91:93:62:d5:
         ff:3c:97:98:b1:d1:8b:42:f7:5e:aa:f5:5b:e9:fe:61:df:0b:
         e6:ae:2c:ce:53:57:a7:5f:f0:f7:3d:38:42:65:43:8b:87:fb:
         f5:f8:61:cf:86:d7:fe:7c:46:df:57:b4:f7:42:7d:7d:f2:08:
         cb:be:c7:52:8f:73:84:50:07:8c:5c:87:a6:00:bd:14:86:5f:
         84:3d:29:ee:50:aa:8f:08:88:eb:2d:ca:08:a8:32:67:cd:a3:
         30:39:63:8a:44:83:45:2f:cb:d6:5f:40:23:e1:ce:bb:00:6d:
         b6:0f:09:25:6f:5e:b6:a3:d5:45:1d:c7:cb:76:be:8c:9f:a5:
         f1:d4:7c:df:cd:b0:54:d0:7c:eb:9b:9e:19:61:54:1e:a5:2f:
         70:88:b3:32:20:77:a3:76:2d:47:da:1b:f7:29:c6:93:b6:97:
         40:f3:93:ff:72:27:5a:12:56:d9:75:96:f1:9c:f8:48:ea:75:
         93:9c:7f:e4:19:5b:58:af:8a:e7:89:d9:4a:86:59:54:9c:db:
         43:70:9d:48:f1:33:45:df:b6:ca:cd:b8:3b:0e:3f:97:88:d1:
         0c:26:12:30:25:f2:f6:ae:ea:63:29:f4:52:50:1d:ce:9c:61:
         25:4c:23:af:71:a1:29:e3:51:2e:87:37:75:14:99:28:76:41:
         38:54:d3:ec:c1:e2:2c:34:88:7b:5c:cc:4c:61:73:06:07:a3:
         81:aa:a4:89:d0:04:2a:83:f0:b3:8f:fa:38:16:a1:2c:c7:9c:
         2e:00:15:42:4d:57:84:9d:cf:89:7b:61:ad:57:a1:3a:a0:55:
         f1:ef:0d:b9:bd:de:c0:87:ea:dc:7d:95:93:3a:a6:b0:c0:bf:
         d4:9a:dc:5c:f4:11:6b:1a:49:53:0d:61:a3:1f:9e:73:e3:e9:
         61:82:e9:c8:77:aa:5b:9a:55:54:c6:60:81:b4:17:38:e7:48:
         74:14:d7:5f:b3:79:82:b3:2d:22:e1:84:57:f9:92:b3:8d:fc:
         e7:48:db:fe:fd:0c:bf:c0:de:3d:c0:6b:81:20:65:95:67:5d:
         71:4b:78:80:3c:9a:40:50:29:b3:e6:17:cc:9a:92:7a:be:76:
         4e:99:a8:75:03:dc:2f:1c:2d:2e:7b:df:4b:ad:7a:bc:2f:3b:
         e8:8f:32:d7:8d:b6:79:ee:19:08:e8:3f:83:a5:43:6b:43:68:
         c3:38:26:d5:b6:fa:70:5e:4f:a4:e0:cc:ee:c1:be:b4:d8:87:
         33:0c:4d:cb:1c:f6:a6:a0
-----BEGIN CERTIFICATE-----
MIIGrDCCBJSgAwIBAgICCSwwDQYJKoZIhvcNAQEEBQAwgawxCzAJBgNVBAYTAlVT
MQswCQYDVQQIEwJPSDERMA8GA1UEBxMIQ29sdW1idXMxEjAQBgNVBAoTCVZpa2lu
Z1ZQTjEdMBsGA1UECxMUTXlPcmdhbml6YXRpb25hbFVuaXQxFTATBgNVBAMTDFZp
a2luZ1ZQTiBDQTEQMA4GA1UEKRMHRWFzeVJTQTEhMB8GCSqGSIb3DQEJARYSbWVA
bXlob3N0Lm15ZG9tYWluMB4XDTE0MDcyMjEzNTcxNloXDTI0MDcxOTEzNTcxNlow
HjEcMBoGA1UEAxMTQ2xpZW50ODEzQ2VydDk5YmFjMjCCAiIwDQYJKoZIhvcNAQEB
BQADggIPADCCAgoCggIBAMNOm/NG3ByRiCyqxdO263dR3XBgKU9DK9MW47dbYaMa
mIueRnT8vjm2dcvcz2EeH//wIE2msvAIAH9vPKTFHJZJ9mfbQG9xdZZr0EnvhrqQ
wF35RDsxL1hwB2vEDMnVIlh3Q98NOas+IKGHKrPJ8f7Y7Lt+yLvCTuwtPhExSMt9
Z0W39k4UuK/iidspW2q1l3c16w36cF+BkfIRJEITm/RaN7pIKxkseBRvVYrldwsl
OYx+9u4+ocidkBaH+Ti+xTldMxUTuj33NZWnK1aFk/OQTDXnY7C8EtInHKe0tSsD
D0XT185nbvOUqQB5cVyVaj4cxTEJcHrTqL3yBqmvBXxTHQPI7n6UTyULh6yVI3m3
xsEjSpq2eaNjjJsJX4yN3kbd5j4Yqhdoua9JxrMNjxn8VG97Tz/veDA9OZBpymDO
wrd6zmVXaXLblt4DMCfSApL96B+2CPzFxxu2iO8rbYuqNa8SMzyTkVLj1080Nkp+
eSEHyzUab11xvH8aRFL4Y4hqW2QYHVNvBoV2th1vKRFc89k/DnWopzCGPrEGPq2y
JeNyAU1cmN65BsSfyMovuqQQrEd3hdRCNXzsI5bIPgRLtJhxkQvlpYgod+FvuTEb
kJCyWzaFHx6iAJiywbZ3Oq21OMmLPUjzkoyLGV7a5Mhpl6ZHjffONET7qhpKKT1t
AgMBAAGjggFjMIIBXzAJBgNVHRMEAjAAMC0GCWCGSAGG+EIBDQQgFh5FYXN5LVJT
QSBHZW5lcmF0ZWQgQ2VydGlmaWNhdGUwHQYDVR0OBBYEFNcHNE3VAti6YLiKs0zm
0ZdrVPyjMIHhBgNVHSMEgdkwgdaAFBLNYATSoICecO3Gmbh7LMZS/RmhoYGypIGv
MIGsMQswCQYDVQQGEwJVUzELMAkGA1UECBMCT0gxETAPBgNVBAcTCENvbHVtYnVz
MRIwEAYDVQQKEwlWaWtpbmdWUE4xHTAbBgNVBAsTFE15T3JnYW5pemF0aW9uYWxV
bml0MRUwEwYDVQQDEwxWaWtpbmdWUE4gQ0ExEDAOBgNVBCkTB0Vhc3lSU0ExITAf
BgkqhkiG9w0BCQEWEm1lQG15aG9zdC5teWRvbWFpboIJAM81he6Avyo+MBMGA1Ud
JQQMMAoGCCsGAQUFBwMCMAsGA1UdDwQEAwIHgDANBgkqhkiG9w0BAQQFAAOCAgEA
hFRYkbQ/kLuy02MViFh06KQs2GXdtMr0it0F9EWz6TqRk2LV/zyXmLHRi0L3Xqr1
W+n+Yd8L5q4szlNXp1/w9z04QmVDi4f79fhhz4bX/nxG31e090J9ffIIy77HUo9z
hFAHjFyHpgC9FIZfhD0p7lCqjwiI6y3KCKgyZ82jMDljikSDRS/L1l9AI+HOuwBt
tg8JJW9etqPVRR3Hy3a+jJ+l8dR8382wVNB865ueGWFUHqUvcIizMiB3o3YtR9ob
9ynGk7aXQPOT/3InWhJW2XWW8Zz4SOp1k5x/5BlbWK+K54nZSoZZVJzbQ3CdSPEz
Rd+2ys24Ow4/l4jRDCYSMCXy9q7qYyn0UlAdzpxhJUwjr3GhKeNRLoc3dRSZKHZB
OFTT7MHiLDSIe1zMTGFzBgejgaqkidAEKoPws4/6OBahLMecLgAVQk1XhJ3PiXth
rVehOqBV8e8Nub3ewIfq3H2VkzqmsMC/1JrcXPQRaxpJUw1hox+ec+PpYYLpyHeq
W5pVVMZggbQXOOdIdBTXX7N5grMtIuGEV/mSs43850jb/v0Mv8DePcBrgSBllWdd
cUt4gDyaQFAps+YXzJqSer52TpmodQPcLxwtLnvfS616vC876I8y1422ee4ZCOg/
g6VDa0Nowzgm1bb6cF5PpODM7sG+tNiHMwxNyxz2pqA=
-----END CERTIFICATE-----
