Certificate:
    Data:
        Version: 3 (0x2)
        Serial Number: 2352 (0x930)
    Signature Algorithm: md5WithRSAEncryption
        Issuer: C=US, ST=OH, L=Columbus, O=VikingVPN, OU=MyOrganizationalUnit, CN=VikingVPN CA/name=EasyRSA/emailAddress=me@myhost.mydomain
        Validity
            Not Before: Jul 22 16:10:43 2014 GMT
            Not After : Jul 19 16:10:43 2024 GMT
        Subject: CN=Client827Cert81ef02
        Subject Public Key Info:
            Public Key Algorithm: rsaEncryption
                Public-Key: (4096 bit)
                Modulus:
                    00:e1:16:93:d6:e4:3b:35:68:e5:11:4d:e7:3e:5c:
                    8e:0a:6c:94:42:9d:04:03:62:4b:b5:36:9a:54:23:
                    1b:a7:e9:97:2f:5e:a2:3a:e0:a2:02:e0:ec:6b:56:
                    d0:78:46:54:8c:a1:07:77:3a:6a:40:58:63:15:d4:
                    bb:43:8e:57:e4:f0:8b:14:c3:b3:cd:15:fb:81:b2:
                    42:f9:dc:7f:4a:9a:76:ed:e2:36:71:2b:c0:32:01:
                    79:de:0a:b7:94:36:49:8c:28:86:fc:17:bd:64:a6:
                    5b:34:1a:c4:04:b4:d0:9b:25:9b:78:b4:bd:a0:25:
                    82:13:03:9a:3d:af:1f:d6:02:11:95:e0:86:73:6b:
                    d0:5c:93:d7:f7:fa:ed:01:6a:e4:ae:d7:8b:94:64:
                    80:a1:2d:1f:45:ce:88:a5:c2:f3:ac:55:03:45:b4:
                    17:65:c1:f1:cb:10:b7:7a:e9:36:57:74:b9:93:07:
                    aa:28:8e:72:6e:87:16:45:79:f8:d6:15:4b:3b:f7:
                    a8:33:a2:62:17:e4:dd:76:52:63:7b:1c:6c:5c:30:
                    7f:6a:e2:2b:cd:9b:77:6d:8e:1e:d2:bb:dc:b1:a9:
                    55:5c:3d:22:5e:71:5d:8b:8b:af:45:e4:5c:f4:fa:
                    38:d4:02:d2:a8:5f:69:c8:df:e7:e5:72:e3:75:7e:
                    88:95:86:5f:82:96:d1:41:a9:cb:1a:dc:ba:f8:43:
                    68:bc:7b:00:be:f2:ee:d5:ec:89:be:f6:62:d2:c5:
                    3f:5f:93:57:f8:08:30:8b:3d:11:37:b6:ab:1c:da:
                    a6:e6:29:dc:87:e7:11:7f:2c:b1:8d:fc:eb:eb:d7:
                    28:4d:c8:e9:7d:a0:18:64:09:ca:fe:08:e6:c3:d4:
                    4b:c1:c5:54:f6:23:e3:27:e1:46:b4:45:e4:db:8a:
                    7e:b7:cb:35:dd:e4:23:48:a8:69:a0:37:ee:80:0a:
                    8a:ba:e2:82:af:67:a2:f1:a9:2e:0b:9d:64:c3:19:
                    b2:ec:a1:52:d5:f3:8a:f1:86:5b:b0:5f:21:a8:d5:
                    7d:4b:c7:97:8c:32:bc:6d:8d:6e:9b:2f:c5:b3:b5:
                    58:23:e2:b6:b1:24:21:c0:08:6d:a8:78:c0:f9:f5:
                    4d:6f:d5:54:45:be:1c:d5:97:64:46:3c:ac:84:a3:
                    25:12:cc:87:be:59:93:20:e1:e1:4f:54:d0:a4:8a:
                    c7:53:a0:5c:49:2e:1e:e0:da:11:03:a9:10:22:16:
                    f8:84:32:0a:82:ae:53:15:c2:9e:55:74:44:6a:56:
                    66:62:87:07:62:a9:6c:50:c2:7f:ee:f2:c0:ea:c4:
                    ae:ab:e1:7a:d8:88:f8:2f:98:61:66:46:f2:60:9f:
                    1d:ba:db
                Exponent: 65537 (0x10001)
        X509v3 extensions:
            X509v3 Basic Constraints: 
                CA:FALSE
            Netscape Comment: 
                Easy-RSA Generated Certificate
            X509v3 Subject Key Identifier: 
                3B:64:DC:81:31:8D:97:54:97:39:E6:D2:C6:52:62:FE:3D:37:BB:14
            X509v3 Authority Key Identifier: 
                keyid:12:CD:60:04:D2:A0:80:9E:70:ED:C6:99:B8:7B:2C:C6:52:FD:19:A1
                DirName:/C=US/ST=OH/L=Columbus/O=VikingVPN/OU=MyOrganizationalUnit/CN=VikingVPN CA/name=EasyRSA/emailAddress=me@myhost.mydomain
                serial:CF:35:85:EE:80:BF:2A:3E

            X509v3 Extended Key Usage: 
                TLS Web Client Authentication
            X509v3 Key Usage: 
                Digital Signature
    Signature Algorithm: md5WithRSAEncryption
         30:c6:1e:1a:e0:1e:32:06:e6:13:c1:1c:94:8e:5d:9e:f1:5e:
         a1:4a:6b:e2:ab:54:93:57:bf:82:f8:e6:08:1a:ac:b7:02:b4:
         ce:40:75:da:18:58:89:9f:90:e6:70:8b:e3:f5:3d:17:07:94:
         6e:d2:aa:60:86:b8:b2:ae:27:32:f6:a4:81:c7:b5:39:ae:d9:
         f3:e3:15:b1:ed:d7:4d:e5:9d:8e:d8:25:91:68:48:5f:5b:50:
         3f:ac:3b:68:cd:ac:1f:29:cc:a8:d2:cd:5d:81:1f:cb:23:09:
         c5:cc:30:e4:1d:d5:37:38:a7:6c:8b:d8:5c:b4:07:04:75:79:
         35:35:ef:c7:66:f1:c7:5f:a7:5c:f8:3b:21:6b:3e:a3:1b:84:
         fd:4a:4e:69:5a:46:83:82:c9:7d:c9:eb:49:d4:93:91:45:c8:
         51:50:a0:58:ad:fc:13:65:f4:0c:f7:4d:99:3e:38:64:4b:3c:
         44:29:4a:6d:12:35:41:2a:7b:0e:ad:ff:4e:c4:42:6a:11:9a:
         20:9b:c0:09:74:dd:10:e5:06:bf:43:5f:2a:d2:75:ba:ed:f2:
         97:90:72:62:8e:ac:8f:6d:83:e1:56:aa:bd:ef:54:3a:5f:0d:
         a7:86:f2:f4:ff:68:4b:c1:aa:ad:3d:3c:ea:87:f0:79:02:d3:
         76:df:9c:2e:90:7a:82:73:cc:58:8f:10:c6:b0:b8:73:ba:0c:
         d9:58:c7:ec:d7:68:06:c0:62:53:88:02:ba:9d:71:e6:2c:ab:
         b8:62:aa:2d:74:aa:57:9b:b4:00:23:a5:d4:c9:ab:63:bc:97:
         17:19:b2:da:f0:3e:00:09:26:c3:8b:0a:c4:a6:ab:4a:73:84:
         5c:fd:c1:07:b4:fe:7a:ef:e2:1e:c1:53:83:a5:93:47:48:5e:
         a0:ec:cb:81:ac:13:39:08:ba:30:71:7f:e7:1d:a5:fa:7b:ed:
         c4:f1:fb:7b:b7:91:e4:1b:a3:c6:97:54:b4:99:22:c7:91:61:
         c6:71:fb:87:e2:8d:a6:ec:74:9e:ef:4c:0b:50:ca:af:02:49:
         96:81:8e:09:65:af:6f:9a:0a:9c:3e:01:56:b9:56:bb:29:33:
         80:ea:f9:34:b2:b6:e3:e1:eb:1f:bb:02:48:77:8a:ae:17:e5:
         38:e5:a9:62:ac:5b:3d:9f:8e:e5:4e:c7:34:c7:e8:d6:b1:e6:
         26:7c:c5:a1:55:b4:7d:03:8b:84:ee:ea:04:d4:d8:83:95:42:
         dc:9c:29:c3:db:21:a1:69:73:36:08:18:03:a2:ad:98:1d:b1:
         e1:14:e7:25:02:7a:19:90:d1:8e:0d:69:fe:d3:33:f6:ed:1c:
         8e:5a:5d:94:0a:fa:fe:d6
-----BEGIN CERTIFICATE-----
MIIGrDCCBJSgAwIBAgICCTAwDQYJKoZIhvcNAQEEBQAwgawxCzAJBgNVBAYTAlVT
MQswCQYDVQQIEwJPSDERMA8GA1UEBxMIQ29sdW1idXMxEjAQBgNVBAoTCVZpa2lu
Z1ZQTjEdMBsGA1UECxMUTXlPcmdhbml6YXRpb25hbFVuaXQxFTATBgNVBAMTDFZp
a2luZ1ZQTiBDQTEQMA4GA1UEKRMHRWFzeVJTQTEhMB8GCSqGSIb3DQEJARYSbWVA
bXlob3N0Lm15ZG9tYWluMB4XDTE0MDcyMjE2MTA0M1oXDTI0MDcxOTE2MTA0M1ow
HjEcMBoGA1UEAxMTQ2xpZW50ODI3Q2VydDgxZWYwMjCCAiIwDQYJKoZIhvcNAQEB
BQADggIPADCCAgoCggIBAOEWk9bkOzVo5RFN5z5cjgpslEKdBANiS7U2mlQjG6fp
ly9eojrgogLg7GtW0HhGVIyhB3c6akBYYxXUu0OOV+TwixTDs80V+4GyQvncf0qa
du3iNnErwDIBed4Kt5Q2SYwohvwXvWSmWzQaxAS00Jslm3i0vaAlghMDmj2vH9YC
EZXghnNr0FyT1/f67QFq5K7Xi5RkgKEtH0XOiKXC86xVA0W0F2XB8csQt3rpNld0
uZMHqiiOcm6HFkV5+NYVSzv3qDOiYhfk3XZSY3scbFwwf2riK82bd22OHtK73LGp
VVw9Il5xXYuLr0XkXPT6ONQC0qhfacjf5+Vy43V+iJWGX4KW0UGpyxrcuvhDaLx7
AL7y7tXsib72YtLFP1+TV/gIMIs9ETe2qxzapuYp3IfnEX8ssY386+vXKE3I6X2g
GGQJyv4I5sPUS8HFVPYj4yfhRrRF5NuKfrfLNd3kI0ioaaA37oAKirrigq9novGp
LgudZMMZsuyhUtXzivGGW7BfIajVfUvHl4wyvG2NbpsvxbO1WCPitrEkIcAIbah4
wPn1TW/VVEW+HNWXZEY8rISjJRLMh75ZkyDh4U9U0KSKx1OgXEkuHuDaEQOpECIW
+IQyCoKuUxXCnlV0RGpWZmKHB2KpbFDCf+7ywOrErqvhetiI+C+YYWZG8mCfHbrb
AgMBAAGjggFjMIIBXzAJBgNVHRMEAjAAMC0GCWCGSAGG+EIBDQQgFh5FYXN5LVJT
QSBHZW5lcmF0ZWQgQ2VydGlmaWNhdGUwHQYDVR0OBBYEFDtk3IExjZdUlznm0sZS
Yv49N7sUMIHhBgNVHSMEgdkwgdaAFBLNYATSoICecO3Gmbh7LMZS/RmhoYGypIGv
MIGsMQswCQYDVQQGEwJVUzELMAkGA1UECBMCT0gxETAPBgNVBAcTCENvbHVtYnVz
MRIwEAYDVQQKEwlWaWtpbmdWUE4xHTAbBgNVBAsTFE15T3JnYW5pemF0aW9uYWxV
bml0MRUwEwYDVQQDEwxWaWtpbmdWUE4gQ0ExEDAOBgNVBCkTB0Vhc3lSU0ExITAf
BgkqhkiG9w0BCQEWEm1lQG15aG9zdC5teWRvbWFpboIJAM81he6Avyo+MBMGA1Ud
JQQMMAoGCCsGAQUFBwMCMAsGA1UdDwQEAwIHgDANBgkqhkiG9w0BAQQFAAOCAgEA
MMYeGuAeMgbmE8EclI5dnvFeoUpr4qtUk1e/gvjmCBqstwK0zkB12hhYiZ+Q5nCL
4/U9FweUbtKqYIa4sq4nMvakgce1Oa7Z8+MVse3XTeWdjtglkWhIX1tQP6w7aM2s
HynMqNLNXYEfyyMJxcww5B3VNzinbIvYXLQHBHV5NTXvx2bxx1+nXPg7IWs+oxuE
/UpOaVpGg4LJfcnrSdSTkUXIUVCgWK38E2X0DPdNmT44ZEs8RClKbRI1QSp7Dq3/
TsRCahGaIJvACXTdEOUGv0NfKtJ1uu3yl5ByYo6sj22D4Vaqve9UOl8Np4by9P9o
S8GqrT086ofweQLTdt+cLpB6gnPMWI8QxrC4c7oM2VjH7NdoBsBiU4gCup1x5iyr
uGKqLXSqV5u0ACOl1MmrY7yXFxmy2vA+AAkmw4sKxKarSnOEXP3BB7T+eu/iHsFT
g6WTR0heoOzLgawTOQi6MHF/5x2l+nvtxPH7e7eR5BujxpdUtJkix5FhxnH7h+KN
pux0nu9MC1DKrwJJloGOCWWvb5oKnD4BVrlWuykzgOr5NLK24+HrH7sCSHeKrhfl
OOWpYqxbPZ+O5U7HNMfo1rHmJnzFoVW0fQOLhO7qBNTYg5VC3Jwpw9shoWlzNggY
A6KtmB2x4RTnJQJ6GZDRjg1p/tMz9u0cjlpdlAr6/tY=
-----END CERTIFICATE-----
