Certificate:
    Data:
        Version: 3 (0x2)
        Serial Number: 2391 (0x957)
    Signature Algorithm: md5WithRSAEncryption
        Issuer: C=US, ST=OH, L=Columbus, O=VikingVPN, OU=MyOrganizationalUnit, CN=VikingVPN CA/name=EasyRSA/emailAddress=me@myhost.mydomain
        Validity
            Not Before: Jul 25 22:50:59 2014 GMT
            Not After : Jul 22 22:50:59 2024 GMT
        Subject: CN=Client835Certcb9a28
        Subject Public Key Info:
            Public Key Algorithm: rsaEncryption
                Public-Key: (4096 bit)
                Modulus:
                    00:f6:cf:1a:b8:17:4f:a4:f8:7c:b9:ad:74:36:e8:
                    2c:60:ec:ea:d9:17:12:f1:1d:14:3d:a1:49:ea:4a:
                    61:1f:c8:0f:bc:81:18:a3:38:41:f4:11:fd:f9:dd:
                    6b:3e:30:dd:58:62:29:8f:fc:f1:a9:c3:5d:ef:bb:
                    10:da:8c:36:48:c5:56:5c:45:ce:26:0b:20:cd:55:
                    1d:ce:3e:66:a0:20:fd:7e:67:59:5d:ef:24:26:e8:
                    67:c5:d2:50:f0:08:c1:bd:4a:50:1b:81:71:9a:7b:
                    e6:72:64:de:85:f4:60:ec:ed:1f:36:7f:e3:d3:36:
                    19:ce:13:af:34:cf:0e:fb:c1:09:1c:26:79:77:61:
                    08:f6:08:cb:4f:03:07:00:3d:b7:ad:66:03:de:ff:
                    56:d1:28:75:e5:8c:11:69:7a:de:3e:36:82:c5:f8:
                    42:2a:04:e4:9d:e5:9b:da:9a:a9:35:85:09:5d:0e:
                    5e:57:aa:50:83:47:04:35:2d:2c:06:9b:e8:6f:f5:
                    4e:5b:37:1c:4c:19:8a:92:3a:ea:af:bb:4e:bf:4c:
                    ef:55:df:92:91:73:98:54:0d:e3:fa:89:05:30:69:
                    ea:ec:9c:61:ff:04:88:63:e1:ff:4a:b3:2e:6b:19:
                    ad:83:4e:eb:4d:00:c5:a7:7a:f9:8c:2e:fb:f7:57:
                    51:34:12:17:de:83:3f:8c:7e:f8:1e:74:d6:15:c7:
                    1a:00:3d:46:ef:41:8b:41:e3:55:a0:6a:ae:54:e8:
                    ce:26:b1:e0:6c:d7:08:f1:0b:d8:43:f7:c5:12:09:
                    b1:f1:77:b9:a6:4b:c3:5a:e9:d9:d8:9a:20:81:3d:
                    de:a1:11:b0:40:4e:58:06:70:15:7e:ce:d6:19:35:
                    c2:a8:7e:46:b2:7a:42:77:29:c9:42:10:de:a0:10:
                    30:55:db:4e:54:09:20:2d:da:fa:95:6b:63:27:fb:
                    e8:d5:fc:c4:be:df:64:d7:fb:2e:e6:b5:f3:06:3b:
                    29:50:2c:8b:3c:cd:99:8c:65:19:8d:8b:75:98:07:
                    e4:b8:59:32:e0:7c:6b:21:e5:d7:58:3b:0c:ea:26:
                    cd:c8:7b:63:7b:a9:d9:69:65:ea:3b:ee:aa:cc:5b:
                    49:2f:61:73:0e:cf:91:dd:d5:df:56:54:77:c7:5b:
                    ab:9e:9f:5a:75:87:2a:1f:b4:1d:3f:17:9d:e4:e8:
                    d9:20:ce:d5:c1:e8:46:bc:f9:98:69:b2:91:12:86:
                    47:46:91:36:29:8a:f2:60:d9:16:c9:59:b9:33:cc:
                    40:02:48:6e:95:cf:b8:cf:7e:3c:2e:51:77:a1:77:
                    03:5a:73:3f:07:27:94:2d:2f:11:81:43:09:a9:5d:
                    de:08:b1
                Exponent: 65537 (0x10001)
        X509v3 extensions:
            X509v3 Basic Constraints: 
                CA:FALSE
            Netscape Comment: 
                Easy-RSA Generated Certificate
            X509v3 Subject Key Identifier: 
                15:41:C8:79:13:DD:42:0B:7D:32:BE:36:C8:28:BB:11:AE:0F:85:9A
            X509v3 Authority Key Identifier: 
                keyid:12:CD:60:04:D2:A0:80:9E:70:ED:C6:99:B8:7B:2C:C6:52:FD:19:A1
                DirName:/C=US/ST=OH/L=Columbus/O=VikingVPN/OU=MyOrganizationalUnit/CN=VikingVPN CA/name=EasyRSA/emailAddress=me@myhost.mydomain
                serial:CF:35:85:EE:80:BF:2A:3E

            X509v3 Extended Key Usage: 
                TLS Web Client Authentication
            X509v3 Key Usage: 
                Digital Signature
    Signature Algorithm: md5WithRSAEncryption
         36:b9:8c:62:97:03:0d:68:1e:75:65:13:78:3c:18:41:b9:be:
         7f:89:62:40:31:0d:cf:95:05:0d:4c:c2:46:c7:e9:34:74:d7:
         d5:11:4e:bd:51:56:90:38:2c:46:26:c0:33:4a:d5:26:83:87:
         b2:41:9c:2d:30:cd:e6:e6:68:89:80:82:b2:f2:fe:58:88:ea:
         6e:5f:bc:2d:5f:48:a1:00:77:c5:96:0b:6e:58:1f:e1:39:09:
         64:ad:64:d8:6a:d0:81:c2:9e:26:a6:43:e6:1f:3b:75:ed:20:
         f9:b1:ee:7f:29:ac:01:01:e2:81:85:90:45:f3:dc:eb:17:1f:
         56:ae:21:b9:6d:f5:70:d1:6c:4e:13:fd:a6:46:fe:44:69:cb:
         95:ab:9b:61:fd:90:cc:67:33:6d:53:73:09:1c:e3:ea:92:2e:
         39:f4:c6:c8:11:1c:b8:67:fc:2f:a9:cb:50:24:82:51:1d:c3:
         af:a5:34:f3:a2:78:26:03:fc:29:a7:2b:16:7e:93:49:62:b6:
         97:30:bf:a8:fc:ed:39:ae:04:48:04:45:cc:2e:d3:4a:67:0e:
         be:03:ee:d1:4b:10:af:a3:07:7c:87:33:0d:f8:59:d6:04:b6:
         73:62:12:f3:ee:23:96:10:19:16:9a:53:23:23:f9:24:4b:fe:
         c3:e4:fd:52:18:6a:c2:c3:18:4b:74:48:43:e0:04:ff:f0:ac:
         8b:d3:c3:f7:ec:f9:6d:1f:0a:73:5f:95:49:6f:bf:47:07:dd:
         24:b5:32:92:92:0b:83:3c:85:f3:7c:48:36:f2:22:07:0b:df:
         7b:c8:cc:55:ba:20:5f:8a:3f:11:25:b7:df:e0:23:5e:a3:03:
         c0:ce:1a:0a:03:33:dc:ee:9d:bd:08:93:0f:82:75:14:12:af:
         7c:7f:df:53:c5:11:af:a2:af:ad:0d:93:6f:a8:86:9c:6c:86:
         0a:ab:d1:ea:54:88:3c:55:e4:cb:25:6d:50:38:1e:99:38:77:
         7d:4c:5b:f0:55:24:9e:d7:81:bb:8b:68:f9:0b:3c:02:60:f4:
         50:c2:12:15:cc:cb:2c:7c:16:4b:66:be:b7:64:cc:91:e9:bb:
         24:91:d6:ed:51:c0:21:8f:71:67:29:5a:b3:f5:a7:a6:0b:54:
         19:bf:ba:f5:74:6b:82:63:1d:57:9e:11:0f:4c:11:d5:b7:79:
         18:dd:25:73:5e:3f:45:7b:7c:da:02:17:a9:e2:f5:bb:c4:20:
         a8:27:c7:22:96:07:4b:f7:5f:06:3e:13:f5:3c:01:7c:d7:1f:
         b8:ff:3d:44:98:42:07:02:2d:7d:25:1f:4f:31:f1:79:d3:b7:
         12:16:fc:84:fa:6d:67:44
-----BEGIN CERTIFICATE-----
MIIGrDCCBJSgAwIBAgICCVcwDQYJKoZIhvcNAQEEBQAwgawxCzAJBgNVBAYTAlVT
MQswCQYDVQQIEwJPSDERMA8GA1UEBxMIQ29sdW1idXMxEjAQBgNVBAoTCVZpa2lu
Z1ZQTjEdMBsGA1UECxMUTXlPcmdhbml6YXRpb25hbFVuaXQxFTATBgNVBAMTDFZp
a2luZ1ZQTiBDQTEQMA4GA1UEKRMHRWFzeVJTQTEhMB8GCSqGSIb3DQEJARYSbWVA
bXlob3N0Lm15ZG9tYWluMB4XDTE0MDcyNTIyNTA1OVoXDTI0MDcyMjIyNTA1OVow
HjEcMBoGA1UEAxMTQ2xpZW50ODM1Q2VydGNiOWEyODCCAiIwDQYJKoZIhvcNAQEB
BQADggIPADCCAgoCggIBAPbPGrgXT6T4fLmtdDboLGDs6tkXEvEdFD2hSepKYR/I
D7yBGKM4QfQR/fndaz4w3VhiKY/88anDXe+7ENqMNkjFVlxFziYLIM1VHc4+ZqAg
/X5nWV3vJCboZ8XSUPAIwb1KUBuBcZp75nJk3oX0YOztHzZ/49M2Gc4TrzTPDvvB
CRwmeXdhCPYIy08DBwA9t61mA97/VtEodeWMEWl63j42gsX4QioE5J3lm9qaqTWF
CV0OXleqUINHBDUtLAab6G/1Tls3HEwZipI66q+7Tr9M71XfkpFzmFQN4/qJBTBp
6uycYf8EiGPh/0qzLmsZrYNO600Axad6+Ywu+/dXUTQSF96DP4x++B501hXHGgA9
Ru9Bi0HjVaBqrlToziax4GzXCPEL2EP3xRIJsfF3uaZLw1rp2diaIIE93qERsEBO
WAZwFX7O1hk1wqh+RrJ6QncpyUIQ3qAQMFXbTlQJIC3a+pVrYyf76NX8xL7fZNf7
Lua18wY7KVAsizzNmYxlGY2LdZgH5LhZMuB8ayHl11g7DOomzch7Y3up2Wll6jvu
qsxbSS9hcw7Pkd3V31ZUd8dbq56fWnWHKh+0HT8XneTo2SDO1cHoRrz5mGmykRKG
R0aRNimK8mDZFslZuTPMQAJIbpXPuM9+PC5Rd6F3A1pzPwcnlC0vEYFDCald3gix
AgMBAAGjggFjMIIBXzAJBgNVHRMEAjAAMC0GCWCGSAGG+EIBDQQgFh5FYXN5LVJT
QSBHZW5lcmF0ZWQgQ2VydGlmaWNhdGUwHQYDVR0OBBYEFBVByHkT3UILfTK+Nsgo
uxGuD4WaMIHhBgNVHSMEgdkwgdaAFBLNYATSoICecO3Gmbh7LMZS/RmhoYGypIGv
MIGsMQswCQYDVQQGEwJVUzELMAkGA1UECBMCT0gxETAPBgNVBAcTCENvbHVtYnVz
MRIwEAYDVQQKEwlWaWtpbmdWUE4xHTAbBgNVBAsTFE15T3JnYW5pemF0aW9uYWxV
bml0MRUwEwYDVQQDEwxWaWtpbmdWUE4gQ0ExEDAOBgNVBCkTB0Vhc3lSU0ExITAf
BgkqhkiG9w0BCQEWEm1lQG15aG9zdC5teWRvbWFpboIJAM81he6Avyo+MBMGA1Ud
JQQMMAoGCCsGAQUFBwMCMAsGA1UdDwQEAwIHgDANBgkqhkiG9w0BAQQFAAOCAgEA
NrmMYpcDDWgedWUTeDwYQbm+f4liQDENz5UFDUzCRsfpNHTX1RFOvVFWkDgsRibA
M0rVJoOHskGcLTDN5uZoiYCCsvL+WIjqbl+8LV9IoQB3xZYLblgf4TkJZK1k2GrQ
gcKeJqZD5h87de0g+bHufymsAQHigYWQRfPc6xcfVq4huW31cNFsThP9pkb+RGnL
laubYf2QzGczbVNzCRzj6pIuOfTGyBEcuGf8L6nLUCSCUR3Dr6U086J4JgP8Kacr
Fn6TSWK2lzC/qPztOa4ESARFzC7TSmcOvgPu0UsQr6MHfIczDfhZ1gS2c2IS8+4j
lhAZFppTIyP5JEv+w+T9UhhqwsMYS3RIQ+AE//Csi9PD9+z5bR8Kc1+VSW+/Rwfd
JLUykpILgzyF83xINvIiBwvfe8jMVbogX4o/ESW33+AjXqMDwM4aCgMz3O6dvQiT
D4J1FBKvfH/fU8URr6KvrQ2Tb6iGnGyGCqvR6lSIPFXkyyVtUDgemTh3fUxb8FUk
nteBu4to+Qs8AmD0UMISFczLLHwWS2a+t2TMkem7JJHW7VHAIY9xZylas/WnpgtU
Gb+69XRrgmMdV54RD0wR1bd5GN0lc14/RXt82gIXqeL1u8QgqCfHIpYHS/dfBj4T
9TwBfNcfuP89RJhCBwItfSUfTzHxedO3Ehb8hPptZ0Q=
-----END CERTIFICATE-----
