Certificate:
    Data:
        Version: 3 (0x2)
        Serial Number: 2401 (0x961)
    Signature Algorithm: md5WithRSAEncryption
        Issuer: C=US, ST=OH, L=Columbus, O=VikingVPN, OU=MyOrganizationalUnit, CN=VikingVPN CA/name=EasyRSA/emailAddress=me@myhost.mydomain
        Validity
            Not Before: Jul 27 22:34:08 2014 GMT
            Not After : Jul 24 22:34:08 2024 GMT
        Subject: CN=Client732Certc9e13a
        Subject Public Key Info:
            Public Key Algorithm: rsaEncryption
                Public-Key: (4096 bit)
                Modulus:
                    00:c5:f4:27:44:fd:5e:25:0c:aa:cd:e5:3b:f5:6d:
                    25:4e:9a:84:5b:c5:da:01:38:8e:0d:e2:a2:e5:9d:
                    fb:a0:c8:b7:bb:6a:22:c8:90:c8:0b:fa:32:c7:8b:
                    71:88:74:93:bd:93:52:dd:e6:ee:1d:92:92:bb:78:
                    a1:1a:19:b4:53:d4:07:eb:eb:b6:68:b5:68:82:24:
                    33:9a:d0:8a:15:27:5b:35:f6:3c:2e:ee:9c:47:23:
                    e2:f9:e0:9f:73:78:c0:8a:c5:15:6a:30:2b:f2:fc:
                    e4:42:e0:b5:83:bc:4f:99:3c:75:f9:17:8a:36:d6:
                    c8:74:4b:6b:5c:79:2c:d3:b3:71:3a:40:df:a7:13:
                    98:7b:6d:f7:f8:4e:e4:85:d1:94:3b:1e:11:a3:32:
                    5a:06:4c:57:93:76:66:20:30:1d:11:8a:79:6c:04:
                    cf:8f:f0:83:a9:7c:d3:95:8f:8b:90:0a:c7:80:24:
                    9f:34:ed:9d:13:e0:5b:bc:3c:1a:de:f2:74:e2:49:
                    82:2f:14:1b:78:81:0e:80:2d:64:c2:db:3c:ba:20:
                    73:59:91:9b:f4:e0:27:48:4c:d6:ec:31:a6:35:8c:
                    2e:82:a4:1d:26:52:1a:34:3d:bc:ac:d0:a5:29:00:
                    db:94:c3:41:ca:04:36:6c:f5:72:67:b2:da:7f:3f:
                    61:15:de:f8:01:84:18:2c:cf:81:30:a5:d3:6d:02:
                    d6:f9:aa:c4:e7:98:e9:22:88:20:19:37:4e:c7:49:
                    11:d8:e0:bb:2a:1e:f4:b6:c0:9a:0f:71:40:cc:10:
                    b9:99:72:7c:a0:19:5c:a7:6e:e9:67:ea:75:01:4b:
                    30:20:18:db:a9:2a:af:53:11:bb:e4:c0:17:a9:76:
                    8b:18:08:34:ce:23:f3:be:02:21:16:c3:4f:f3:66:
                    21:13:1b:a0:79:c7:d9:a2:52:b0:18:1b:34:9d:07:
                    84:e0:41:1e:db:c0:ab:d3:a4:06:aa:ff:20:a6:62:
                    e8:e3:a2:2c:fe:32:51:1c:45:58:d6:63:a7:ec:b1:
                    be:37:ab:88:80:48:54:10:b8:ee:5c:32:fb:41:b2:
                    2b:5b:4b:a7:9f:d9:9c:dc:5e:ee:d7:9b:26:66:62:
                    ea:10:73:f5:48:ff:7c:a4:33:ef:00:56:76:f8:18:
                    41:35:4f:bc:47:e8:9f:bd:35:da:0d:1f:ff:d2:82:
                    25:79:14:fd:3b:0a:bc:3e:e9:c3:f6:73:0e:d9:2d:
                    3b:b8:41:19:82:f2:ad:6b:78:1b:73:02:72:91:31:
                    81:ef:82:c2:46:51:e2:28:32:4b:a0:21:2a:cd:eb:
                    58:f2:38:0e:a4:0a:0a:77:7d:f5:ef:55:a3:61:7a:
                    2e:19:c9
                Exponent: 65537 (0x10001)
        X509v3 extensions:
            X509v3 Basic Constraints: 
                CA:FALSE
            Netscape Comment: 
                Easy-RSA Generated Certificate
            X509v3 Subject Key Identifier: 
                BD:25:AA:BE:B2:AC:E2:8D:C6:CF:16:5F:AD:50:71:A3:C6:19:C2:6E
            X509v3 Authority Key Identifier: 
                keyid:12:CD:60:04:D2:A0:80:9E:70:ED:C6:99:B8:7B:2C:C6:52:FD:19:A1
                DirName:/C=US/ST=OH/L=Columbus/O=VikingVPN/OU=MyOrganizationalUnit/CN=VikingVPN CA/name=EasyRSA/emailAddress=me@myhost.mydomain
                serial:CF:35:85:EE:80:BF:2A:3E

            X509v3 Extended Key Usage: 
                TLS Web Client Authentication
            X509v3 Key Usage: 
                Digital Signature
    Signature Algorithm: md5WithRSAEncryption
         ad:f4:bb:49:c1:dc:b6:5c:da:36:cb:d9:2a:29:b9:b4:cf:50:
         a2:34:d8:5a:3c:77:74:0b:5b:6b:dd:0b:13:c6:ec:4d:71:4a:
         7f:16:89:a4:2f:24:75:4b:c7:c9:19:bb:51:76:03:75:12:9d:
         d5:af:49:08:2b:44:bf:3b:f6:98:d5:07:2f:d6:03:1a:c6:dd:
         fb:1e:55:4c:94:4d:d0:08:37:dc:6f:4b:d2:eb:c2:45:4a:55:
         6e:03:b3:d2:dd:66:cc:3d:d4:50:f3:e5:f6:08:6e:f8:57:b9:
         ba:0f:6d:8d:04:37:e5:99:8f:fd:b4:10:cf:f2:2d:c8:13:3e:
         49:e2:e3:fe:ea:57:ba:47:f9:d1:37:b0:ca:fe:7f:a3:31:e9:
         30:5b:a9:71:72:c4:15:6b:79:14:63:e5:79:79:77:db:64:3c:
         46:c8:1d:9d:cc:8c:04:c9:41:60:79:b5:4a:76:10:7c:1f:dc:
         02:5a:10:15:2f:59:12:6a:14:03:9b:65:75:10:d1:69:23:67:
         1b:bb:9c:f6:59:5b:fe:75:47:8f:11:bf:06:a0:8e:77:2e:91:
         dc:74:b6:5d:84:70:d1:8d:16:ef:70:fe:8e:08:5c:ce:f3:7f:
         b7:7c:aa:ec:73:ec:39:08:8d:b9:11:36:43:31:8f:07:00:1b:
         8c:67:de:1f:a0:78:61:cc:3c:9b:19:6e:bd:5d:5a:19:77:57:
         ff:f5:a4:72:fc:9f:7f:fe:a9:20:cb:9b:f8:0c:d1:ee:7c:d3:
         37:19:5e:d7:b1:cd:40:57:3e:9c:23:e6:dd:6a:d0:9b:93:fd:
         8a:11:e9:d0:23:11:15:d9:89:dc:ad:94:65:0f:1c:8f:44:11:
         f8:54:7e:34:fa:5d:dc:ea:cd:89:19:d2:ca:26:e7:d0:f7:ff:
         93:9d:c9:a4:f7:a6:48:64:69:75:b9:c1:0c:c0:e2:ad:08:76:
         ed:d8:e9:16:e5:c8:95:92:28:51:5f:10:71:1d:c1:fe:2a:90:
         6e:64:cc:f4:83:6f:f4:4d:65:67:2f:f6:83:63:4b:b3:06:f5:
         c4:72:84:59:60:8f:51:aa:91:12:07:0b:37:2e:55:53:99:46:
         4d:c6:8f:54:54:33:a5:99:e9:dd:71:ca:b5:6c:fc:3e:2f:b4:
         66:82:fe:0f:47:55:de:7b:90:3c:0d:f5:c3:da:e6:07:13:7a:
         40:b2:bb:38:7d:7e:d7:55:b9:41:a2:7b:2a:89:74:62:88:3e:
         97:17:b8:f2:61:ca:26:a2:f8:1a:0c:75:f5:f6:1c:71:6a:77:
         3f:0f:88:6f:16:a7:5f:3e:39:68:79:7e:f5:18:fa:49:51:2a:
         5b:99:49:bd:d3:90:90:ba
-----BEGIN CERTIFICATE-----
MIIGrDCCBJSgAwIBAgICCWEwDQYJKoZIhvcNAQEEBQAwgawxCzAJBgNVBAYTAlVT
MQswCQYDVQQIEwJPSDERMA8GA1UEBxMIQ29sdW1idXMxEjAQBgNVBAoTCVZpa2lu
Z1ZQTjEdMBsGA1UECxMUTXlPcmdhbml6YXRpb25hbFVuaXQxFTATBgNVBAMTDFZp
a2luZ1ZQTiBDQTEQMA4GA1UEKRMHRWFzeVJTQTEhMB8GCSqGSIb3DQEJARYSbWVA
bXlob3N0Lm15ZG9tYWluMB4XDTE0MDcyNzIyMzQwOFoXDTI0MDcyNDIyMzQwOFow
HjEcMBoGA1UEAxMTQ2xpZW50NzMyQ2VydGM5ZTEzYTCCAiIwDQYJKoZIhvcNAQEB
BQADggIPADCCAgoCggIBAMX0J0T9XiUMqs3lO/VtJU6ahFvF2gE4jg3iouWd+6DI
t7tqIsiQyAv6MseLcYh0k72TUt3m7h2Skrt4oRoZtFPUB+vrtmi1aIIkM5rQihUn
WzX2PC7unEcj4vngn3N4wIrFFWowK/L85ELgtYO8T5k8dfkXijbWyHRLa1x5LNOz
cTpA36cTmHtt9/hO5IXRlDseEaMyWgZMV5N2ZiAwHRGKeWwEz4/wg6l805WPi5AK
x4AknzTtnRPgW7w8Gt7ydOJJgi8UG3iBDoAtZMLbPLogc1mRm/TgJ0hM1uwxpjWM
LoKkHSZSGjQ9vKzQpSkA25TDQcoENmz1cmey2n8/YRXe+AGEGCzPgTCl020C1vmq
xOeY6SKIIBk3TsdJEdjguyoe9LbAmg9xQMwQuZlyfKAZXKdu6WfqdQFLMCAY26kq
r1MRu+TAF6l2ixgINM4j874CIRbDT/NmIRMboHnH2aJSsBgbNJ0HhOBBHtvAq9Ok
Bqr/IKZi6OOiLP4yURxFWNZjp+yxvjeriIBIVBC47lwy+0GyK1tLp5/ZnNxe7teb
JmZi6hBz9Uj/fKQz7wBWdvgYQTVPvEfon7012g0f/9KCJXkU/TsKvD7pw/ZzDtkt
O7hBGYLyrWt4G3MCcpExge+CwkZR4igyS6AhKs3rWPI4DqQKCnd99e9Vo2F6LhnJ
AgMBAAGjggFjMIIBXzAJBgNVHRMEAjAAMC0GCWCGSAGG+EIBDQQgFh5FYXN5LVJT
QSBHZW5lcmF0ZWQgQ2VydGlmaWNhdGUwHQYDVR0OBBYEFL0lqr6yrOKNxs8WX61Q
caPGGcJuMIHhBgNVHSMEgdkwgdaAFBLNYATSoICecO3Gmbh7LMZS/RmhoYGypIGv
MIGsMQswCQYDVQQGEwJVUzELMAkGA1UECBMCT0gxETAPBgNVBAcTCENvbHVtYnVz
MRIwEAYDVQQKEwlWaWtpbmdWUE4xHTAbBgNVBAsTFE15T3JnYW5pemF0aW9uYWxV
bml0MRUwEwYDVQQDEwxWaWtpbmdWUE4gQ0ExEDAOBgNVBCkTB0Vhc3lSU0ExITAf
BgkqhkiG9w0BCQEWEm1lQG15aG9zdC5teWRvbWFpboIJAM81he6Avyo+MBMGA1Ud
JQQMMAoGCCsGAQUFBwMCMAsGA1UdDwQEAwIHgDANBgkqhkiG9w0BAQQFAAOCAgEA
rfS7ScHctlzaNsvZKim5tM9QojTYWjx3dAtba90LE8bsTXFKfxaJpC8kdUvHyRm7
UXYDdRKd1a9JCCtEvzv2mNUHL9YDGsbd+x5VTJRN0Ag33G9L0uvCRUpVbgOz0t1m
zD3UUPPl9ghu+Fe5ug9tjQQ35ZmP/bQQz/ItyBM+SeLj/upXukf50Tewyv5/ozHp
MFupcXLEFWt5FGPleXl322Q8RsgdncyMBMlBYHm1SnYQfB/cAloQFS9ZEmoUA5tl
dRDRaSNnG7uc9llb/nVHjxG/BqCOdy6R3HS2XYRw0Y0W73D+jghczvN/t3yq7HPs
OQiNuRE2QzGPBwAbjGfeH6B4Ycw8mxluvV1aGXdX//Wkcvyff/6pIMub+AzR7nzT
Nxle17HNQFc+nCPm3WrQm5P9ihHp0CMRFdmJ3K2UZQ8cj0QR+FR+NPpd3OrNiRnS
yibn0Pf/k53JpPemSGRpdbnBDMDirQh27djpFuXIlZIoUV8QcR3B/iqQbmTM9INv
9E1lZy/2g2NLswb1xHKEWWCPUaqREgcLNy5VU5lGTcaPVFQzpZnp3XHKtWz8Pi+0
ZoL+D0dV3nuQPA31w9rmBxN6QLK7OH1+11W5QaJ7Kol0Yog+lxe48mHKJqL4Ggx1
9fYccWp3Pw+IbxanXz45aHl+9Rj6SVEqW5lJvdOQkLo=
-----END CERTIFICATE-----
