Certificate:
    Data:
        Version: 3 (0x2)
        Serial Number: 2402 (0x962)
    Signature Algorithm: md5WithRSAEncryption
        Issuer: C=US, ST=OH, L=Columbus, O=VikingVPN, OU=MyOrganizationalUnit, CN=VikingVPN CA/name=EasyRSA/emailAddress=me@myhost.mydomain
        Validity
            Not Before: Jul 27 22:37:30 2014 GMT
            Not After : Jul 24 22:37:30 2024 GMT
        Subject: CN=Client548Cert575b6a
        Subject Public Key Info:
            Public Key Algorithm: rsaEncryption
                Public-Key: (4096 bit)
                Modulus:
                    00:cd:aa:f3:61:8a:08:c5:6e:45:65:ee:a6:02:50:
                    2a:0e:a4:45:ff:e5:2f:5c:d3:d4:c0:a5:9b:07:64:
                    f0:72:93:47:ae:2d:ea:66:8d:b4:7b:fd:f3:96:f3:
                    17:88:d3:f6:de:cd:cd:c4:b2:ac:37:14:6d:70:c1:
                    c1:ad:4a:4d:ae:c4:c2:06:d2:62:44:a5:f3:d0:b5:
                    f5:0f:1f:22:bb:df:ee:21:19:f2:cb:23:0c:f9:40:
                    6f:a3:e0:0f:89:30:ff:77:fd:3c:88:f7:10:5f:96:
                    42:72:e0:5d:04:2e:41:37:03:58:8f:8d:fc:75:87:
                    b1:9c:9f:6a:23:82:14:c1:f4:d9:61:2c:db:66:68:
                    e6:ca:1e:89:bd:c4:98:6b:50:18:f5:d5:04:c5:a6:
                    1f:96:d5:1f:80:47:53:e4:1a:f8:d1:37:63:94:89:
                    9b:ce:25:7d:5f:e2:71:78:b4:c0:6c:71:ed:8c:ba:
                    de:fe:c5:e5:83:4f:81:c9:af:3d:06:6c:96:cd:88:
                    43:bf:03:a0:d3:98:1c:20:00:8d:6b:3b:50:a2:ab:
                    45:2a:64:3c:2a:6f:b4:e8:33:17:97:ff:d9:d2:97:
                    5b:f3:3d:0a:3b:48:1f:e9:b8:30:bd:7c:f5:00:c0:
                    11:d4:31:c2:aa:6d:82:23:67:7a:7a:4a:3b:f7:2c:
                    32:1f:7e:5d:4a:34:28:dd:62:1f:04:13:b2:00:01:
                    0c:4f:c5:a3:cf:0d:37:8c:19:4b:f6:92:4c:6e:27:
                    ca:17:87:ef:3e:57:e9:31:f7:ed:c2:17:53:04:46:
                    eb:e2:a3:41:a0:bf:52:fe:1b:5c:e1:bf:fd:13:f0:
                    9a:13:ab:43:e4:ce:b7:d9:8a:04:a5:38:7f:f9:2f:
                    01:16:5d:c7:c5:4d:67:a5:59:cf:98:35:33:37:3d:
                    7c:cc:78:13:15:db:6e:49:78:45:5b:57:a9:65:80:
                    49:27:a8:e7:05:49:b1:19:51:f5:22:60:f8:49:52:
                    87:2f:71:be:73:78:f8:dc:0f:2d:66:b0:67:90:98:
                    5e:a9:3d:00:8b:90:bf:a7:71:bb:5c:a4:1a:ba:6f:
                    51:8b:79:6b:83:2e:eb:ea:4f:c6:3f:4e:30:73:33:
                    dc:d9:29:61:ee:32:2c:9e:c5:66:7f:73:57:12:2a:
                    1f:13:9b:92:1d:98:1c:7f:a4:b0:5d:63:0a:65:b8:
                    26:c9:bd:b1:ef:30:d6:88:b7:2b:48:3e:9e:fe:b8:
                    92:04:03:df:7d:3e:57:65:19:e8:c2:92:d9:2f:c4:
                    18:5d:6e:05:42:7f:a2:92:4e:d1:05:d2:91:63:67:
                    4d:5c:c6:fc:0f:ea:2a:e5:a4:1c:c8:fe:9c:3f:c9:
                    c7:a2:0d
                Exponent: 65537 (0x10001)
        X509v3 extensions:
            X509v3 Basic Constraints: 
                CA:FALSE
            Netscape Comment: 
                Easy-RSA Generated Certificate
            X509v3 Subject Key Identifier: 
                91:28:3C:E9:93:70:98:0C:8E:1D:37:84:4E:1B:5E:C2:F2:12:5E:1E
            X509v3 Authority Key Identifier: 
                keyid:12:CD:60:04:D2:A0:80:9E:70:ED:C6:99:B8:7B:2C:C6:52:FD:19:A1
                DirName:/C=US/ST=OH/L=Columbus/O=VikingVPN/OU=MyOrganizationalUnit/CN=VikingVPN CA/name=EasyRSA/emailAddress=me@myhost.mydomain
                serial:CF:35:85:EE:80:BF:2A:3E

            X509v3 Extended Key Usage: 
                TLS Web Client Authentication
            X509v3 Key Usage: 
                Digital Signature
    Signature Algorithm: md5WithRSAEncryption
         36:4f:26:30:98:0b:2a:2b:45:f0:3e:18:8f:29:1e:27:cf:9e:
         fa:22:02:43:cd:9b:9b:39:95:f0:95:8d:36:51:65:f1:a0:1c:
         49:eb:3f:ee:06:21:4d:bc:5a:53:fa:20:ed:99:14:1a:1b:98:
         92:52:58:bf:c2:7a:a0:46:33:84:0b:92:3c:44:ab:be:68:0a:
         b7:d3:1e:df:45:31:bc:cc:8e:b2:ee:02:33:2b:e2:6f:2e:4b:
         a2:c6:ad:d9:ea:b6:20:fa:0a:f3:01:3c:e1:a4:20:ba:3e:2f:
         a7:91:67:a5:de:54:f9:56:02:6f:9f:4e:e3:25:1f:e8:f7:41:
         c6:c8:7a:2a:1b:e5:18:22:d0:25:0d:8e:d0:6a:02:a1:8f:a4:
         17:f0:db:1d:63:30:f7:49:aa:e8:2d:67:1a:c4:20:6a:07:11:
         52:4d:a7:b4:03:c3:ac:34:1f:5e:e9:54:aa:5b:e4:a3:02:71:
         48:c8:8b:13:b9:0b:cd:46:23:3e:2b:84:95:17:96:6f:1e:b3:
         fc:df:bb:e7:83:8b:15:d4:b6:d6:b7:75:d3:9a:0b:90:8a:60:
         c2:9e:21:ca:a4:6c:10:18:b2:85:ca:ba:cc:de:f5:46:87:73:
         31:8a:00:e1:a1:ae:49:6f:ae:88:3e:66:d0:85:c2:9a:00:a6:
         54:f6:3b:a7:ed:0b:f9:e8:9c:64:e8:12:e3:3b:b9:16:4c:39:
         1c:e3:09:1b:91:4f:59:c1:ad:b4:4b:84:00:88:a6:5c:67:d5:
         df:2f:59:64:6c:21:38:07:35:b1:90:3e:a9:9f:90:9c:70:68:
         4b:2d:a8:cd:ca:85:26:55:0e:9a:6c:d3:9a:b3:23:81:84:03:
         e4:60:c4:3e:ea:f6:07:72:d9:31:4d:7b:63:ad:1d:3b:16:28:
         36:fd:d5:b5:a3:be:ed:74:22:5c:52:07:cd:f2:b8:85:f6:7d:
         a6:19:da:5e:b2:e8:62:bb:4d:be:5b:cd:92:e9:9a:c4:64:8c:
         39:86:f7:f7:c8:62:cd:0a:c7:c7:a0:a8:9f:b7:80:5f:0f:55:
         f0:47:19:f9:f3:ed:b4:fe:da:73:62:46:1c:11:da:fb:1e:5f:
         53:3f:d9:03:2e:c7:ac:8e:3d:62:77:ce:ed:d8:d9:28:f0:48:
         6a:97:62:ba:35:95:31:8a:e2:11:52:b2:ae:8b:36:62:f7:2f:
         00:0b:f9:71:29:ba:19:8f:96:e4:75:88:45:a4:7f:80:a8:b8:
         2e:4d:9e:95:2a:45:7b:2d:d4:f1:ac:b5:86:00:76:07:80:35:
         53:64:50:0f:41:c4:7a:54:22:27:56:90:48:de:42:d4:b6:4c:
         15:c0:89:c5:68:4e:be:06
-----BEGIN CERTIFICATE-----
MIIGrDCCBJSgAwIBAgICCWIwDQYJKoZIhvcNAQEEBQAwgawxCzAJBgNVBAYTAlVT
MQswCQYDVQQIEwJPSDERMA8GA1UEBxMIQ29sdW1idXMxEjAQBgNVBAoTCVZpa2lu
Z1ZQTjEdMBsGA1UECxMUTXlPcmdhbml6YXRpb25hbFVuaXQxFTATBgNVBAMTDFZp
a2luZ1ZQTiBDQTEQMA4GA1UEKRMHRWFzeVJTQTEhMB8GCSqGSIb3DQEJARYSbWVA
bXlob3N0Lm15ZG9tYWluMB4XDTE0MDcyNzIyMzczMFoXDTI0MDcyNDIyMzczMFow
HjEcMBoGA1UEAxMTQ2xpZW50NTQ4Q2VydDU3NWI2YTCCAiIwDQYJKoZIhvcNAQEB
BQADggIPADCCAgoCggIBAM2q82GKCMVuRWXupgJQKg6kRf/lL1zT1MClmwdk8HKT
R64t6maNtHv985bzF4jT9t7NzcSyrDcUbXDBwa1KTa7EwgbSYkSl89C19Q8fIrvf
7iEZ8ssjDPlAb6PgD4kw/3f9PIj3EF+WQnLgXQQuQTcDWI+N/HWHsZyfaiOCFMH0
2WEs22Zo5soeib3EmGtQGPXVBMWmH5bVH4BHU+Qa+NE3Y5SJm84lfV/icXi0wGxx
7Yy63v7F5YNPgcmvPQZsls2IQ78DoNOYHCAAjWs7UKKrRSpkPCpvtOgzF5f/2dKX
W/M9CjtIH+m4ML189QDAEdQxwqptgiNnenpKO/csMh9+XUo0KN1iHwQTsgABDE/F
o88NN4wZS/aSTG4nyheH7z5X6TH37cIXUwRG6+KjQaC/Uv4bXOG//RPwmhOrQ+TO
t9mKBKU4f/kvARZdx8VNZ6VZz5g1Mzc9fMx4ExXbbkl4RVtXqWWASSeo5wVJsRlR
9SJg+ElShy9xvnN4+NwPLWawZ5CYXqk9AIuQv6dxu1ykGrpvUYt5a4Mu6+pPxj9O
MHMz3NkpYe4yLJ7FZn9zVxIqHxObkh2YHH+ksF1jCmW4Jsm9se8w1oi3K0g+nv64
kgQD330+V2UZ6MKS2S/EGF1uBUJ/opJO0QXSkWNnTVzG/A/qKuWkHMj+nD/Jx6IN
AgMBAAGjggFjMIIBXzAJBgNVHRMEAjAAMC0GCWCGSAGG+EIBDQQgFh5FYXN5LVJT
QSBHZW5lcmF0ZWQgQ2VydGlmaWNhdGUwHQYDVR0OBBYEFJEoPOmTcJgMjh03hE4b
XsLyEl4eMIHhBgNVHSMEgdkwgdaAFBLNYATSoICecO3Gmbh7LMZS/RmhoYGypIGv
MIGsMQswCQYDVQQGEwJVUzELMAkGA1UECBMCT0gxETAPBgNVBAcTCENvbHVtYnVz
MRIwEAYDVQQKEwlWaWtpbmdWUE4xHTAbBgNVBAsTFE15T3JnYW5pemF0aW9uYWxV
bml0MRUwEwYDVQQDEwxWaWtpbmdWUE4gQ0ExEDAOBgNVBCkTB0Vhc3lSU0ExITAf
BgkqhkiG9w0BCQEWEm1lQG15aG9zdC5teWRvbWFpboIJAM81he6Avyo+MBMGA1Ud
JQQMMAoGCCsGAQUFBwMCMAsGA1UdDwQEAwIHgDANBgkqhkiG9w0BAQQFAAOCAgEA
Nk8mMJgLKitF8D4YjykeJ8+e+iICQ82bmzmV8JWNNlFl8aAcSes/7gYhTbxaU/og
7ZkUGhuYklJYv8J6oEYzhAuSPESrvmgKt9Me30UxvMyOsu4CMyviby5Losat2eq2
IPoK8wE84aQguj4vp5Fnpd5U+VYCb59O4yUf6PdBxsh6KhvlGCLQJQ2O0GoCoY+k
F/DbHWMw90mq6C1nGsQgagcRUk2ntAPDrDQfXulUqlvkowJxSMiLE7kLzUYjPiuE
lReWbx6z/N+754OLFdS21rd105oLkIpgwp4hyqRsEBiyhcq6zN71RodzMYoA4aGu
SW+uiD5m0IXCmgCmVPY7p+0L+eicZOgS4zu5Fkw5HOMJG5FPWcGttEuEAIimXGfV
3y9ZZGwhOAc1sZA+qZ+QnHBoSy2ozcqFJlUOmmzTmrMjgYQD5GDEPur2B3LZMU17
Y60dOxYoNv3VtaO+7XQiXFIHzfK4hfZ9phnaXrLoYrtNvlvNkumaxGSMOYb398hi
zQrHx6Con7eAXw9V8EcZ+fPttP7ac2JGHBHa+x5fUz/ZAy7HrI49YnfO7djZKPBI
apdiujWVMYriEVKyros2YvcvAAv5cSm6GY+W5HWIRaR/gKi4Lk2elSpFey3U8ay1
hgB2B4A1U2RQD0HEelQiJ1aQSN5C1LZMFcCJxWhOvgY=
-----END CERTIFICATE-----
