Certificate:
    Data:
        Version: 3 (0x2)
        Serial Number: 2440 (0x988)
    Signature Algorithm: md5WithRSAEncryption
        Issuer: C=US, ST=OH, L=Columbus, O=VikingVPN, OU=MyOrganizationalUnit, CN=VikingVPN CA/name=EasyRSA/emailAddress=me@myhost.mydomain
        Validity
            Not Before: Aug  1 13:08:48 2014 GMT
            Not After : Jul 29 13:08:48 2024 GMT
        Subject: CN=Client852Cert3fa2ee
        Subject Public Key Info:
            Public Key Algorithm: rsaEncryption
                Public-Key: (4096 bit)
                Modulus:
                    00:aa:17:7c:8f:b2:4e:3c:80:1b:08:33:f5:10:c8:
                    1a:7d:c9:82:ea:ac:96:96:61:2c:48:76:3f:9c:af:
                    db:a9:5a:40:07:31:99:1a:ed:ae:a2:11:79:6f:2c:
                    d8:5d:a9:87:d0:80:57:b8:12:65:44:8e:ed:0f:94:
                    6f:4c:4a:f2:9a:5a:39:26:8b:ed:be:e8:4a:c6:4e:
                    3c:ff:53:68:06:a0:02:14:b6:45:ab:48:9d:55:72:
                    23:3b:2d:36:08:54:22:f1:e5:5a:46:ea:91:b5:39:
                    e5:93:73:51:c8:20:aa:9b:52:dc:7b:3e:a8:35:cf:
                    68:27:c4:dd:41:30:c5:82:0c:7d:e9:41:16:a9:3f:
                    b4:e0:32:ee:f2:f7:c1:39:1a:b6:29:11:7a:e4:2b:
                    d4:5e:e0:4e:18:1e:fc:33:64:b7:51:0f:97:8e:aa:
                    1b:3a:c3:1b:60:0f:10:e3:5e:d6:bc:41:6b:47:72:
                    46:d5:e8:32:e4:7a:4d:d7:8d:ff:7b:d9:51:e8:fa:
                    1d:2d:15:65:80:e2:9e:9a:7a:90:40:7a:4a:dc:02:
                    24:04:1e:ad:dc:8b:cb:a4:7e:fc:59:4e:c1:37:1a:
                    6d:ec:40:8a:61:8f:e1:cd:5b:5f:17:44:8c:67:07:
                    7d:30:dd:84:7f:08:bc:85:44:ff:97:fb:fc:74:8c:
                    9a:2a:8a:0f:98:f6:cd:cc:af:b7:3d:7c:72:c7:54:
                    c7:1d:38:9d:03:71:1a:73:0c:08:29:d8:1b:f0:32:
                    cb:dd:9b:3f:d2:01:66:78:ad:39:d1:21:e0:b6:73:
                    aa:0e:b0:a2:07:96:76:b6:49:98:9c:92:95:a4:a7:
                    24:5b:75:1b:72:0d:a1:f5:84:b3:40:ff:8c:d1:0f:
                    ae:6a:99:25:4d:ef:9a:9c:42:6b:5d:46:8d:49:24:
                    c7:ea:04:52:34:a2:b5:2b:01:4c:17:4d:d7:48:9d:
                    4b:b2:85:4b:e2:6c:c9:7d:d9:b8:a1:9c:36:89:3c:
                    27:01:cb:da:55:76:15:1c:39:e6:fd:4a:6c:7c:c3:
                    83:d2:82:95:0c:4b:73:66:77:82:81:b2:27:04:b9:
                    eb:9a:f2:d8:bb:a0:50:45:0a:de:7b:b5:25:29:c3:
                    31:14:3c:93:1a:48:b1:4d:f9:de:f6:9a:64:94:62:
                    9b:5b:45:6e:5d:35:1f:85:32:19:34:3f:bb:de:26:
                    b2:8c:db:16:bd:c1:31:59:26:1c:b5:28:e7:c9:b1:
                    9f:fc:fe:9b:ec:7a:70:bd:ef:55:b7:dd:36:c3:e5:
                    01:f7:fc:c8:82:1c:99:ef:e7:f9:81:3d:6e:b5:78:
                    12:35:af:dd:22:d9:cb:4f:99:0f:85:52:e8:e4:54:
                    52:96:43
                Exponent: 65537 (0x10001)
        X509v3 extensions:
            X509v3 Basic Constraints: 
                CA:FALSE
            Netscape Comment: 
                Easy-RSA Generated Certificate
            X509v3 Subject Key Identifier: 
                3F:D9:5B:AF:05:AB:AA:B4:CF:02:0E:64:A3:A4:C2:7B:E4:2F:2C:82
            X509v3 Authority Key Identifier: 
                keyid:12:CD:60:04:D2:A0:80:9E:70:ED:C6:99:B8:7B:2C:C6:52:FD:19:A1
                DirName:/C=US/ST=OH/L=Columbus/O=VikingVPN/OU=MyOrganizationalUnit/CN=VikingVPN CA/name=EasyRSA/emailAddress=me@myhost.mydomain
                serial:CF:35:85:EE:80:BF:2A:3E

            X509v3 Extended Key Usage: 
                TLS Web Client Authentication
            X509v3 Key Usage: 
                Digital Signature
    Signature Algorithm: md5WithRSAEncryption
         cb:78:81:a0:50:db:2a:db:61:64:ee:a0:9f:8d:7a:36:92:86:
         2f:09:61:ff:a0:7d:54:6a:5c:c7:ec:16:90:b1:98:40:b8:25:
         70:50:9c:02:9b:e3:61:93:f1:8f:9d:6c:cf:f2:a4:15:0c:a8:
         a3:1c:52:bb:78:13:b8:cf:9a:5b:1d:79:bb:19:5d:be:3a:67:
         f3:b3:2b:07:12:6d:8f:cd:4b:d5:2d:5c:76:cc:9f:31:a8:37:
         e7:98:37:86:12:49:f0:f9:bb:8c:21:64:68:87:a9:e7:0b:27:
         9a:e6:94:b9:b6:00:88:d4:8a:7a:d1:01:99:a0:c8:a5:45:99:
         37:17:d3:f8:af:5d:5f:1d:1e:f1:a7:a2:b0:36:d6:78:10:35:
         fd:fd:aa:c7:dc:52:f1:38:44:bd:ef:83:4a:32:57:26:c6:e1:
         ee:f0:87:dd:b7:52:1e:db:47:1d:8d:64:7a:6a:c6:67:0c:ae:
         42:ae:69:6e:5d:27:8d:3b:4d:93:e1:c1:95:ef:ef:8c:43:25:
         c7:38:ac:34:9d:68:ff:20:1b:80:5b:89:e5:40:5c:f9:60:b6:
         37:4c:89:82:ed:62:7b:ae:4f:e9:7e:ad:3a:85:21:52:b1:9b:
         ab:52:f8:78:c4:c6:75:24:91:9b:0e:e9:67:25:1c:67:19:3e:
         ed:c9:19:c2:49:1a:85:04:75:d0:2a:98:ef:9a:f9:71:d2:05:
         4c:92:c5:c3:a1:2a:0c:34:4a:81:2c:a1:91:62:ac:97:b3:da:
         e9:2d:89:b7:7f:57:8c:e4:03:49:91:82:07:7b:ad:8f:93:e7:
         cf:08:2a:b4:d0:e7:5d:40:97:86:62:bd:72:58:92:9d:6d:54:
         bb:a0:c0:1e:0d:bd:82:2f:13:26:3e:42:57:af:d9:a3:f2:4f:
         ae:0e:a2:d2:88:6e:48:ef:33:95:0f:79:d7:e1:5e:0d:9d:39:
         59:4b:ed:d8:a4:ed:43:97:05:28:05:8a:b5:bf:86:50:a1:cb:
         77:64:b2:4e:5c:91:b1:a3:c4:dd:cb:4f:6b:20:6a:48:89:c2:
         09:06:d1:93:4b:0a:9c:19:79:c5:c0:2c:99:d2:fd:cc:30:1a:
         b1:72:f7:21:c1:60:c5:5b:c8:f8:ce:aa:c6:81:7d:4f:36:a7:
         32:d8:56:2b:2e:36:2a:2e:ef:e2:51:98:6f:50:c4:e0:55:63:
         9c:83:66:ad:88:51:dc:e0:46:34:65:ba:67:76:25:60:c5:61:
         a5:60:28:51:cf:10:c0:ef:cc:a0:da:41:8c:c7:97:0d:a4:be:
         d1:45:2e:32:c4:67:87:9a:23:cf:31:c3:a4:06:27:e1:95:26:
         0c:7d:9d:44:8c:42:7b:de
-----BEGIN CERTIFICATE-----
MIIGrDCCBJSgAwIBAgICCYgwDQYJKoZIhvcNAQEEBQAwgawxCzAJBgNVBAYTAlVT
MQswCQYDVQQIEwJPSDERMA8GA1UEBxMIQ29sdW1idXMxEjAQBgNVBAoTCVZpa2lu
Z1ZQTjEdMBsGA1UECxMUTXlPcmdhbml6YXRpb25hbFVuaXQxFTATBgNVBAMTDFZp
a2luZ1ZQTiBDQTEQMA4GA1UEKRMHRWFzeVJTQTEhMB8GCSqGSIb3DQEJARYSbWVA
bXlob3N0Lm15ZG9tYWluMB4XDTE0MDgwMTEzMDg0OFoXDTI0MDcyOTEzMDg0OFow
HjEcMBoGA1UEAxMTQ2xpZW50ODUyQ2VydDNmYTJlZTCCAiIwDQYJKoZIhvcNAQEB
BQADggIPADCCAgoCggIBAKoXfI+yTjyAGwgz9RDIGn3JguqslpZhLEh2P5yv26la
QAcxmRrtrqIReW8s2F2ph9CAV7gSZUSO7Q+Ub0xK8ppaOSaL7b7oSsZOPP9TaAag
AhS2RatInVVyIzstNghUIvHlWkbqkbU55ZNzUcggqptS3Hs+qDXPaCfE3UEwxYIM
felBFqk/tOAy7vL3wTkatikReuQr1F7gThge/DNkt1EPl46qGzrDG2APEONe1rxB
a0dyRtXoMuR6TdeN/3vZUej6HS0VZYDinpp6kEB6StwCJAQerdyLy6R+/FlOwTca
bexAimGP4c1bXxdEjGcHfTDdhH8IvIVE/5f7/HSMmiqKD5j2zcyvtz18csdUxx04
nQNxGnMMCCnYG/Ayy92bP9IBZnitOdEh4LZzqg6wogeWdrZJmJySlaSnJFt1G3IN
ofWEs0D/jNEPrmqZJU3vmpxCa11GjUkkx+oEUjSitSsBTBdN10idS7KFS+JsyX3Z
uKGcNok8JwHL2lV2FRw55v1KbHzDg9KClQxLc2Z3goGyJwS565ry2LugUEUK3nu1
JSnDMRQ8kxpIsU353vaaZJRim1tFbl01H4UyGTQ/u94msozbFr3BMVkmHLUo58mx
n/z+m+x6cL3vVbfdNsPlAff8yIIcme/n+YE9brV4EjWv3SLZy0+ZD4VS6ORUUpZD
AgMBAAGjggFjMIIBXzAJBgNVHRMEAjAAMC0GCWCGSAGG+EIBDQQgFh5FYXN5LVJT
QSBHZW5lcmF0ZWQgQ2VydGlmaWNhdGUwHQYDVR0OBBYEFD/ZW68Fq6q0zwIOZKOk
wnvkLyyCMIHhBgNVHSMEgdkwgdaAFBLNYATSoICecO3Gmbh7LMZS/RmhoYGypIGv
MIGsMQswCQYDVQQGEwJVUzELMAkGA1UECBMCT0gxETAPBgNVBAcTCENvbHVtYnVz
MRIwEAYDVQQKEwlWaWtpbmdWUE4xHTAbBgNVBAsTFE15T3JnYW5pemF0aW9uYWxV
bml0MRUwEwYDVQQDEwxWaWtpbmdWUE4gQ0ExEDAOBgNVBCkTB0Vhc3lSU0ExITAf
BgkqhkiG9w0BCQEWEm1lQG15aG9zdC5teWRvbWFpboIJAM81he6Avyo+MBMGA1Ud
JQQMMAoGCCsGAQUFBwMCMAsGA1UdDwQEAwIHgDANBgkqhkiG9w0BAQQFAAOCAgEA
y3iBoFDbKtthZO6gn416NpKGLwlh/6B9VGpcx+wWkLGYQLglcFCcApvjYZPxj51s
z/KkFQyooxxSu3gTuM+aWx15uxldvjpn87MrBxJtj81L1S1cdsyfMag355g3hhJJ
8Pm7jCFkaIep5wsnmuaUubYAiNSKetEBmaDIpUWZNxfT+K9dXx0e8aeisDbWeBA1
/f2qx9xS8ThEve+DSjJXJsbh7vCH3bdSHttHHY1kemrGZwyuQq5pbl0njTtNk+HB
le/vjEMlxzisNJ1o/yAbgFuJ5UBc+WC2N0yJgu1ie65P6X6tOoUhUrGbq1L4eMTG
dSSRmw7pZyUcZxk+7ckZwkkahQR10CqY75r5cdIFTJLFw6EqDDRKgSyhkWKsl7Pa
6S2Jt39XjOQDSZGCB3utj5PnzwgqtNDnXUCXhmK9cliSnW1Uu6DAHg29gi8TJj5C
V6/Zo/JPrg6i0ohuSO8zlQ951+FeDZ05WUvt2KTtQ5cFKAWKtb+GUKHLd2SyTlyR
saPE3ctPayBqSInCCQbRk0sKnBl5xcAsmdL9zDAasXL3IcFgxVvI+M6qxoF9Tzan
MthWKy42Ki7v4lGYb1DE4FVjnINmrYhR3OBGNGW6Z3YlYMVhpWAoUc8QwO/MoNpB
jMeXDaS+0UUuMsRnh5ojzzHDpAYn4ZUmDH2dRIxCe94=
-----END CERTIFICATE-----
