Certificate:
    Data:
        Version: 3 (0x2)
        Serial Number: 2444 (0x98c)
    Signature Algorithm: md5WithRSAEncryption
        Issuer: C=US, ST=OH, L=Columbus, O=VikingVPN, OU=MyOrganizationalUnit, CN=VikingVPN CA/name=EasyRSA/emailAddress=me@myhost.mydomain
        Validity
            Not Before: Aug  2 02:46:09 2014 GMT
            Not After : Jul 30 02:46:09 2024 GMT
        Subject: CN=Client850Cert754c8a
        Subject Public Key Info:
            Public Key Algorithm: rsaEncryption
                Public-Key: (4096 bit)
                Modulus:
                    00:9b:aa:e0:b8:94:d4:39:30:67:63:0e:ab:e3:e2:
                    d6:95:bf:ae:3d:f4:60:0f:a6:c3:5f:cd:46:8e:d0:
                    e5:44:40:29:86:45:cd:46:cc:69:c0:a9:31:ba:99:
                    66:0c:52:a2:95:2d:8f:5e:0f:19:39:88:bd:be:a5:
                    b1:00:ac:20:70:1e:b5:9b:f9:30:e0:b5:5f:c1:35:
                    74:35:ba:68:62:a0:2f:e0:60:ff:64:e4:45:e9:ef:
                    e0:bf:e7:ed:5e:c5:a1:5d:bf:c5:e4:8e:ae:41:9c:
                    24:ff:8e:92:a8:07:37:e0:83:07:d4:c3:57:dc:3c:
                    84:5a:b5:3d:d5:ea:88:82:c1:e7:d7:6f:19:0d:fe:
                    2f:c2:70:e7:97:ad:2a:c3:10:ac:81:32:06:c7:01:
                    0d:d5:e9:d2:ec:a9:ec:8e:41:1d:48:6e:ac:26:fd:
                    77:80:21:35:d5:23:2b:91:c5:24:93:85:c2:9b:87:
                    12:48:7a:63:32:2a:9a:94:89:02:d0:f8:d9:84:ca:
                    c4:a8:d4:db:f7:30:0b:54:ee:01:02:a4:ff:4a:fb:
                    31:d5:2a:79:bc:27:02:19:d0:3d:3f:e9:9a:99:7c:
                    17:e1:b9:10:2a:64:ab:03:31:e8:df:d0:1b:32:80:
                    6b:b8:51:fa:1f:68:ef:1e:fe:fb:7a:ad:9e:bf:2a:
                    b1:5e:84:37:49:54:71:74:a5:ae:86:ca:a8:07:98:
                    73:eb:bd:77:5b:8a:12:7b:fe:f3:05:a0:db:00:31:
                    95:8d:32:e5:c8:c6:1a:26:4b:bb:4a:96:43:4a:a3:
                    15:81:02:e4:ee:24:e4:d7:d0:8d:71:7e:0b:31:f1:
                    e0:02:ba:da:7d:7d:74:66:9c:60:c7:03:3c:21:7b:
                    9b:3c:de:c7:dd:de:57:7e:cf:e0:f8:25:a5:ed:9f:
                    c4:64:cd:17:4e:5c:58:7f:1d:3d:a2:1d:9d:7a:13:
                    8e:f3:a3:59:09:28:3b:e9:8a:c0:59:95:a3:55:53:
                    94:25:28:67:01:73:35:ce:93:8f:88:da:b8:9e:f2:
                    56:6c:b5:06:8a:7f:a7:54:53:06:a8:d2:7b:4b:ca:
                    c1:b0:f5:9c:56:21:9c:1d:81:77:60:af:3a:31:6b:
                    00:7e:93:80:7a:74:ac:9b:ea:ef:a9:7d:d8:58:fa:
                    e3:b1:3e:68:85:63:5a:49:09:60:c1:13:32:07:21:
                    47:71:d1:ee:98:be:fa:b3:18:7f:78:99:c3:aa:e1:
                    73:51:6b:99:b1:c5:aa:55:3a:46:e5:1d:a3:34:a0:
                    ce:f5:7a:a9:ba:fd:db:11:16:87:cc:ce:ae:a8:45:
                    d3:e4:d0:3d:8a:01:ed:b3:1a:07:35:21:ff:94:7b:
                    30:d1:19
                Exponent: 65537 (0x10001)
        X509v3 extensions:
            X509v3 Basic Constraints: 
                CA:FALSE
            Netscape Comment: 
                Easy-RSA Generated Certificate
            X509v3 Subject Key Identifier: 
                FB:76:E1:7B:D7:46:F3:86:5E:AD:AF:BC:AD:CF:9E:CC:19:EE:3C:E0
            X509v3 Authority Key Identifier: 
                keyid:12:CD:60:04:D2:A0:80:9E:70:ED:C6:99:B8:7B:2C:C6:52:FD:19:A1
                DirName:/C=US/ST=OH/L=Columbus/O=VikingVPN/OU=MyOrganizationalUnit/CN=VikingVPN CA/name=EasyRSA/emailAddress=me@myhost.mydomain
                serial:CF:35:85:EE:80:BF:2A:3E

            X509v3 Extended Key Usage: 
                TLS Web Client Authentication
            X509v3 Key Usage: 
                Digital Signature
    Signature Algorithm: md5WithRSAEncryption
         22:02:eb:a0:30:5c:34:e8:2a:a0:09:1d:5c:1b:19:d2:01:b6:
         8d:1b:16:5e:c6:5a:37:12:23:c1:ef:3c:a7:10:42:e8:a5:dd:
         59:28:03:89:f2:81:88:d1:f5:a9:d3:f6:5c:8a:e9:34:4a:70:
         7a:ee:bb:64:4a:ff:04:5d:8b:2a:86:fe:16:86:74:7b:0e:d6:
         9b:85:88:f4:cb:3b:f2:87:e7:0c:8a:dc:1e:91:3d:f1:ef:71:
         36:f8:66:b0:57:8b:fe:ea:73:a1:d5:64:54:ca:76:b5:5d:e4:
         53:a5:bb:70:ff:8f:65:43:05:f2:6a:90:2a:d0:e9:31:33:4e:
         16:3a:1d:8f:1d:2b:3d:39:5f:1c:32:73:e0:7f:f5:56:9c:af:
         19:03:d0:80:a2:cd:0b:9e:1b:1c:11:ff:13:9c:c6:f4:5d:06:
         df:7f:97:1d:1a:21:14:21:09:61:4d:be:5c:9c:ec:d9:b8:06:
         e2:5b:aa:0d:8f:3c:71:f5:35:0e:75:41:38:ed:e3:89:32:9e:
         cf:87:9a:51:ff:7a:f8:89:06:24:05:3f:52:77:92:14:e5:c5:
         74:ff:ab:7f:7c:8f:68:29:50:e8:a3:26:f7:bc:a2:ba:75:f7:
         a4:22:65:92:07:14:10:a0:a6:e7:82:e6:8a:ea:bd:ec:e9:a9:
         b4:81:4a:81:7d:11:31:0a:03:53:75:f9:81:f3:b2:5a:07:fb:
         b5:78:20:b6:4a:36:9b:22:f6:b5:8c:88:cc:5c:4f:93:13:c0:
         d8:7b:df:e8:99:3c:af:ae:d1:ac:11:9e:94:90:32:bf:fd:d9:
         f6:51:9f:44:13:27:cf:7f:30:3b:82:c7:15:36:04:9b:66:0d:
         de:cd:5e:a0:bf:7e:02:70:ac:cb:b0:cd:67:e1:c6:59:34:3b:
         79:fc:77:28:4f:ce:6f:5a:4d:76:91:f5:fe:96:f0:d8:8d:c7:
         a3:e0:3c:ed:32:21:51:3c:76:22:2c:f7:cd:78:9c:a5:20:50:
         97:95:1d:a9:c7:c7:d5:0d:a6:5e:c9:2e:c8:1e:62:64:6a:06:
         47:23:34:56:07:85:95:d9:bb:f7:74:86:97:5c:9a:bb:96:6c:
         20:39:74:d2:d4:a0:89:58:d7:6b:2d:17:51:61:20:c8:5b:0b:
         5c:7e:cc:61:b8:40:6a:ac:c7:52:8d:d3:aa:2a:45:7f:4c:be:
         5e:25:b8:42:08:e2:b3:aa:db:42:e2:35:53:17:3e:5d:9b:6d:
         3d:42:21:48:82:67:9e:e4:dc:b2:fd:74:bc:fe:00:4a:21:f8:
         4b:82:ad:0c:df:89:eb:9d:be:75:ae:6a:13:b9:77:a3:c3:52:
         df:9c:4f:d5:7f:c1:3d:9a
-----BEGIN CERTIFICATE-----
MIIGrDCCBJSgAwIBAgICCYwwDQYJKoZIhvcNAQEEBQAwgawxCzAJBgNVBAYTAlVT
MQswCQYDVQQIEwJPSDERMA8GA1UEBxMIQ29sdW1idXMxEjAQBgNVBAoTCVZpa2lu
Z1ZQTjEdMBsGA1UECxMUTXlPcmdhbml6YXRpb25hbFVuaXQxFTATBgNVBAMTDFZp
a2luZ1ZQTiBDQTEQMA4GA1UEKRMHRWFzeVJTQTEhMB8GCSqGSIb3DQEJARYSbWVA
bXlob3N0Lm15ZG9tYWluMB4XDTE0MDgwMjAyNDYwOVoXDTI0MDczMDAyNDYwOVow
HjEcMBoGA1UEAxMTQ2xpZW50ODUwQ2VydDc1NGM4YTCCAiIwDQYJKoZIhvcNAQEB
BQADggIPADCCAgoCggIBAJuq4LiU1DkwZ2MOq+Pi1pW/rj30YA+mw1/NRo7Q5URA
KYZFzUbMacCpMbqZZgxSopUtj14PGTmIvb6lsQCsIHAetZv5MOC1X8E1dDW6aGKg
L+Bg/2TkRenv4L/n7V7FoV2/xeSOrkGcJP+OkqgHN+CDB9TDV9w8hFq1PdXqiILB
59dvGQ3+L8Jw55etKsMQrIEyBscBDdXp0uyp7I5BHUhurCb9d4AhNdUjK5HFJJOF
wpuHEkh6YzIqmpSJAtD42YTKxKjU2/cwC1TuAQKk/0r7MdUqebwnAhnQPT/pmpl8
F+G5ECpkqwMx6N/QGzKAa7hR+h9o7x7++3qtnr8qsV6EN0lUcXSlrobKqAeYc+u9
d1uKEnv+8wWg2wAxlY0y5cjGGiZLu0qWQ0qjFYEC5O4k5NfQjXF+CzHx4AK62n19
dGacYMcDPCF7mzzex93eV37P4Pglpe2fxGTNF05cWH8dPaIdnXoTjvOjWQkoO+mK
wFmVo1VTlCUoZwFzNc6Tj4jauJ7yVmy1Bop/p1RTBqjSe0vKwbD1nFYhnB2Bd2Cv
OjFrAH6TgHp0rJvq76l92Fj647E+aIVjWkkJYMETMgchR3HR7pi++rMYf3iZw6rh
c1FrmbHFqlU6RuUdozSgzvV6qbr92xEWh8zOrqhF0+TQPYoB7bMaBzUh/5R7MNEZ
AgMBAAGjggFjMIIBXzAJBgNVHRMEAjAAMC0GCWCGSAGG+EIBDQQgFh5FYXN5LVJT
QSBHZW5lcmF0ZWQgQ2VydGlmaWNhdGUwHQYDVR0OBBYEFPt24XvXRvOGXq2vvK3P
nswZ7jzgMIHhBgNVHSMEgdkwgdaAFBLNYATSoICecO3Gmbh7LMZS/RmhoYGypIGv
MIGsMQswCQYDVQQGEwJVUzELMAkGA1UECBMCT0gxETAPBgNVBAcTCENvbHVtYnVz
MRIwEAYDVQQKEwlWaWtpbmdWUE4xHTAbBgNVBAsTFE15T3JnYW5pemF0aW9uYWxV
bml0MRUwEwYDVQQDEwxWaWtpbmdWUE4gQ0ExEDAOBgNVBCkTB0Vhc3lSU0ExITAf
BgkqhkiG9w0BCQEWEm1lQG15aG9zdC5teWRvbWFpboIJAM81he6Avyo+MBMGA1Ud
JQQMMAoGCCsGAQUFBwMCMAsGA1UdDwQEAwIHgDANBgkqhkiG9w0BAQQFAAOCAgEA
IgLroDBcNOgqoAkdXBsZ0gG2jRsWXsZaNxIjwe88pxBC6KXdWSgDifKBiNH1qdP2
XIrpNEpweu67ZEr/BF2LKob+FoZ0ew7Wm4WI9Ms78ofnDIrcHpE98e9xNvhmsFeL
/upzodVkVMp2tV3kU6W7cP+PZUMF8mqQKtDpMTNOFjodjx0rPTlfHDJz4H/1Vpyv
GQPQgKLNC54bHBH/E5zG9F0G33+XHRohFCEJYU2+XJzs2bgG4luqDY88cfU1DnVB
OO3jiTKez4eaUf96+IkGJAU/UneSFOXFdP+rf3yPaClQ6KMm97yiunX3pCJlkgcU
EKCm54Lmiuq97OmptIFKgX0RMQoDU3X5gfOyWgf7tXggtko2myL2tYyIzFxPkxPA
2Hvf6Jk8r67RrBGelJAyv/3Z9lGfRBMnz38wO4LHFTYEm2YN3s1eoL9+AnCsy7DN
Z+HGWTQ7efx3KE/Ob1pNdpH1/pbw2I3Ho+A87TIhUTx2Iiz3zXicpSBQl5UdqcfH
1Q2mXskuyB5iZGoGRyM0VgeFldm793SGl1yau5ZsIDl00tSgiVjXay0XUWEgyFsL
XH7MYbhAaqzHUo3TqipFf0y+XiW4Qgjis6rbQuI1Uxc+XZttPUIhSIJnnuTcsv10
vP4ASiH4S4KtDN+J652+da5qE7l3o8NS35xP1X/BPZo=
-----END CERTIFICATE-----
