Certificate:
    Data:
        Version: 3 (0x2)
        Serial Number: 2448 (0x990)
    Signature Algorithm: md5WithRSAEncryption
        Issuer: C=US, ST=OH, L=Columbus, O=VikingVPN, OU=MyOrganizationalUnit, CN=VikingVPN CA/name=EasyRSA/emailAddress=me@myhost.mydomain
        Validity
            Not Before: Aug  2 23:20:10 2014 GMT
            Not After : Jul 30 23:20:10 2024 GMT
        Subject: CN=Client835Certffd732
        Subject Public Key Info:
            Public Key Algorithm: rsaEncryption
                Public-Key: (4096 bit)
                Modulus:
                    00:db:13:51:d9:c5:fc:32:06:aa:ad:21:9c:5c:e0:
                    7a:da:2c:94:71:24:dd:99:b5:f0:32:2f:0d:3e:56:
                    9e:98:66:23:a9:48:c8:7b:d7:0d:0a:cb:40:3e:4b:
                    88:47:a7:59:a4:90:7d:e6:4f:e4:68:09:75:73:dd:
                    3d:d1:13:80:3b:2c:a5:1c:64:14:f8:da:88:ea:d3:
                    1c:45:46:7d:2f:60:c9:a1:b7:4b:bd:3f:b0:0d:21:
                    f5:a3:14:e2:11:af:fb:44:1f:99:2e:5e:64:2e:c7:
                    2b:45:8f:0d:9f:eb:ac:c8:d9:67:b5:e1:7b:ba:96:
                    16:d6:49:7a:58:82:f3:20:d7:ec:be:7e:0f:ab:ab:
                    91:44:a3:59:9c:49:61:cf:47:cf:b1:e7:47:71:76:
                    48:5c:1a:46:37:69:ad:ff:31:9e:58:65:49:fd:52:
                    b4:ec:2d:33:89:03:b5:73:ed:52:1d:d9:68:f7:9d:
                    be:82:79:5b:40:59:1e:33:59:7a:36:93:5c:1f:a5:
                    0d:3c:e2:d4:88:b6:82:a7:ca:9f:e8:7f:e8:99:3e:
                    be:23:ce:b7:ce:56:2f:09:b6:d5:e7:ac:04:38:ae:
                    5a:67:98:39:db:11:12:06:b2:8d:a7:de:59:52:18:
                    81:e1:14:70:b4:29:51:3d:cc:a4:bf:93:7d:8a:b3:
                    0b:1b:a6:15:85:55:1f:d5:86:da:00:51:46:1f:0c:
                    28:6c:34:33:6f:44:d5:3b:15:94:9f:aa:f2:9e:39:
                    78:ad:43:1a:b3:f3:64:ed:b3:61:b9:b7:b1:e6:67:
                    8b:96:eb:54:1f:a0:1e:eb:0b:cc:8c:44:a2:3b:8d:
                    2b:0f:a7:fe:6a:f2:c7:8f:7e:2f:1a:ed:a4:9d:1b:
                    32:90:1b:fa:60:1b:4c:31:02:8a:b1:c0:05:91:5a:
                    0d:41:8e:4e:da:98:b0:91:65:1f:0c:ae:99:bc:fc:
                    7e:de:e8:d9:bd:7e:4c:f6:64:f9:9b:d7:ae:d0:8f:
                    ea:ff:19:42:54:28:33:9d:08:d7:9b:56:93:c0:58:
                    3e:92:15:d3:bf:e2:a8:50:be:fc:44:c2:86:5f:53:
                    5a:5a:ff:28:ae:c3:5b:be:d5:08:e5:04:d8:c5:d2:
                    24:89:93:0e:97:d9:55:5c:ad:01:52:fa:83:a5:3d:
                    7e:cf:24:2a:8e:1f:18:0c:bc:7a:45:b4:20:d1:7b:
                    90:53:9c:0f:88:9d:88:6d:dd:78:d3:9b:1c:48:26:
                    89:e8:12:2b:53:86:61:3c:d4:e4:27:34:57:a0:51:
                    78:7c:ab:4a:bd:ff:09:d0:b7:dd:8e:32:c0:20:09:
                    2f:b9:e0:4a:ee:82:0f:27:ed:3f:09:0d:ef:d3:cf:
                    26:a4:69
                Exponent: 65537 (0x10001)
        X509v3 extensions:
            X509v3 Basic Constraints: 
                CA:FALSE
            Netscape Comment: 
                Easy-RSA Generated Certificate
            X509v3 Subject Key Identifier: 
                B4:F5:37:C5:E0:64:CF:06:6D:AA:C3:36:79:E5:66:DF:7B:AE:66:F4
            X509v3 Authority Key Identifier: 
                keyid:12:CD:60:04:D2:A0:80:9E:70:ED:C6:99:B8:7B:2C:C6:52:FD:19:A1
                DirName:/C=US/ST=OH/L=Columbus/O=VikingVPN/OU=MyOrganizationalUnit/CN=VikingVPN CA/name=EasyRSA/emailAddress=me@myhost.mydomain
                serial:CF:35:85:EE:80:BF:2A:3E

            X509v3 Extended Key Usage: 
                TLS Web Client Authentication
            X509v3 Key Usage: 
                Digital Signature
    Signature Algorithm: md5WithRSAEncryption
         6e:36:0d:a9:02:9c:fc:ef:25:e9:f1:35:b2:b4:9e:1e:b5:26:
         83:03:31:78:af:95:d5:c8:6a:40:06:56:75:3a:62:a3:c6:50:
         14:eb:1d:d8:41:b6:7f:70:40:f1:8f:4b:c6:eb:ab:19:2d:70:
         dd:a6:e9:2a:d3:8b:91:89:68:de:f0:45:b8:3e:b4:d8:3a:9c:
         4b:1c:8f:9a:76:28:c3:22:d4:be:1e:18:30:24:8c:de:b1:b4:
         e1:f2:f8:37:04:f8:74:52:dc:19:d4:d0:ee:01:d0:c5:96:38:
         9c:9f:f8:aa:17:2a:6f:7a:da:40:00:74:4c:5c:b6:78:a0:e0:
         d4:32:2f:da:fa:a2:47:b8:04:54:df:ee:ad:91:26:a5:3e:95:
         d9:a9:0e:06:fb:4b:69:5c:d6:d0:66:4d:81:8f:70:14:0a:21:
         bd:fa:12:31:12:7e:44:19:1b:40:3a:05:ca:2d:5b:21:93:8d:
         b5:ef:fc:97:33:12:af:d1:45:02:df:dc:92:c2:75:70:2e:81:
         f8:d0:5a:32:e6:b7:31:ee:1c:a2:7c:1c:c2:87:4f:eb:68:ff:
         6e:60:97:fa:4a:3a:07:6a:a3:55:70:e8:69:a1:19:9d:d3:cb:
         27:09:ab:95:ae:c1:d6:9b:1d:c0:ea:ec:3c:44:c0:9c:75:33:
         05:54:76:d8:2e:6a:21:51:2a:f5:e9:2d:80:25:a9:77:5b:bc:
         ef:28:9e:71:ab:8b:a7:eb:e7:84:5e:05:67:db:46:19:0e:b8:
         e0:1e:35:00:0d:84:25:a7:12:36:76:86:82:a7:47:1a:6e:3e:
         27:36:14:e9:66:cc:2e:29:29:21:38:7c:f8:55:e3:c2:c2:29:
         a6:76:42:f3:e3:68:f7:14:8f:3e:32:8f:3d:b3:8b:da:ef:ac:
         7e:4a:73:f7:09:3f:dd:31:1b:c7:2d:c3:a0:a4:bf:6e:2c:7f:
         94:60:00:e4:08:1e:a9:84:44:32:61:a3:a0:fd:7c:1c:9e:e2:
         a0:9b:57:b3:c6:e8:88:7e:41:71:f6:9a:42:85:b2:f6:3f:19:
         64:ee:be:d5:82:58:33:16:17:23:6f:9f:0f:de:8c:25:b3:87:
         3f:3b:d1:3b:8b:3e:27:05:32:a3:04:e5:ac:28:98:3a:b7:ad:
         c9:cf:fb:df:f9:6e:ee:50:2d:60:6f:8e:e9:dd:fd:b8:d5:61:
         dd:b6:57:1a:e1:86:d4:bb:8c:63:18:4d:77:37:a8:1d:d8:91:
         36:5c:17:5c:8b:94:c4:e2:90:d2:30:de:04:5a:ae:9d:22:5f:
         19:55:a6:f9:42:b6:f4:05:dd:68:09:c0:5d:e2:03:48:e7:28:
         90:6a:58:b5:e1:d6:e6:9c
-----BEGIN CERTIFICATE-----
MIIGrDCCBJSgAwIBAgICCZAwDQYJKoZIhvcNAQEEBQAwgawxCzAJBgNVBAYTAlVT
MQswCQYDVQQIEwJPSDERMA8GA1UEBxMIQ29sdW1idXMxEjAQBgNVBAoTCVZpa2lu
Z1ZQTjEdMBsGA1UECxMUTXlPcmdhbml6YXRpb25hbFVuaXQxFTATBgNVBAMTDFZp
a2luZ1ZQTiBDQTEQMA4GA1UEKRMHRWFzeVJTQTEhMB8GCSqGSIb3DQEJARYSbWVA
bXlob3N0Lm15ZG9tYWluMB4XDTE0MDgwMjIzMjAxMFoXDTI0MDczMDIzMjAxMFow
HjEcMBoGA1UEAxMTQ2xpZW50ODM1Q2VydGZmZDczMjCCAiIwDQYJKoZIhvcNAQEB
BQADggIPADCCAgoCggIBANsTUdnF/DIGqq0hnFzgetoslHEk3Zm18DIvDT5Wnphm
I6lIyHvXDQrLQD5LiEenWaSQfeZP5GgJdXPdPdETgDsspRxkFPjaiOrTHEVGfS9g
yaG3S70/sA0h9aMU4hGv+0QfmS5eZC7HK0WPDZ/rrMjZZ7Xhe7qWFtZJeliC8yDX
7L5+D6urkUSjWZxJYc9Hz7HnR3F2SFwaRjdprf8xnlhlSf1StOwtM4kDtXPtUh3Z
aPedvoJ5W0BZHjNZejaTXB+lDTzi1Ii2gqfKn+h/6Jk+viPOt85WLwm21eesBDiu
WmeYOdsREgayjafeWVIYgeEUcLQpUT3MpL+TfYqzCxumFYVVH9WG2gBRRh8MKGw0
M29E1TsVlJ+q8p45eK1DGrPzZO2zYbm3seZni5brVB+gHusLzIxEojuNKw+n/mry
x49+LxrtpJ0bMpAb+mAbTDECirHABZFaDUGOTtqYsJFlHwyumbz8ft7o2b1+TPZk
+ZvXrtCP6v8ZQlQoM50I15tWk8BYPpIV07/iqFC+/ETChl9TWlr/KK7DW77VCOUE
2MXSJImTDpfZVVytAVL6g6U9fs8kKo4fGAy8ekW0INF7kFOcD4idiG3deNObHEgm
iegSK1OGYTzU5Cc0V6BReHyrSr3/CdC33Y4ywCAJL7ngSu6CDyftPwkN79PPJqRp
AgMBAAGjggFjMIIBXzAJBgNVHRMEAjAAMC0GCWCGSAGG+EIBDQQgFh5FYXN5LVJT
QSBHZW5lcmF0ZWQgQ2VydGlmaWNhdGUwHQYDVR0OBBYEFLT1N8XgZM8GbarDNnnl
Zt97rmb0MIHhBgNVHSMEgdkwgdaAFBLNYATSoICecO3Gmbh7LMZS/RmhoYGypIGv
MIGsMQswCQYDVQQGEwJVUzELMAkGA1UECBMCT0gxETAPBgNVBAcTCENvbHVtYnVz
MRIwEAYDVQQKEwlWaWtpbmdWUE4xHTAbBgNVBAsTFE15T3JnYW5pemF0aW9uYWxV
bml0MRUwEwYDVQQDEwxWaWtpbmdWUE4gQ0ExEDAOBgNVBCkTB0Vhc3lSU0ExITAf
BgkqhkiG9w0BCQEWEm1lQG15aG9zdC5teWRvbWFpboIJAM81he6Avyo+MBMGA1Ud
JQQMMAoGCCsGAQUFBwMCMAsGA1UdDwQEAwIHgDANBgkqhkiG9w0BAQQFAAOCAgEA
bjYNqQKc/O8l6fE1srSeHrUmgwMxeK+V1chqQAZWdTpio8ZQFOsd2EG2f3BA8Y9L
xuurGS1w3abpKtOLkYlo3vBFuD602DqcSxyPmnYowyLUvh4YMCSM3rG04fL4NwT4
dFLcGdTQ7gHQxZY4nJ/4qhcqb3raQAB0TFy2eKDg1DIv2vqiR7gEVN/urZEmpT6V
2akOBvtLaVzW0GZNgY9wFAohvfoSMRJ+RBkbQDoFyi1bIZONte/8lzMSr9FFAt/c
ksJ1cC6B+NBaMua3Me4conwcwodP62j/bmCX+ko6B2qjVXDoaaEZndPLJwmrla7B
1psdwOrsPETAnHUzBVR22C5qIVEq9ektgCWpd1u87yiecauLp+vnhF4FZ9tGGQ64
4B41AA2EJacSNnaGgqdHGm4+JzYU6WbMLikpITh8+FXjwsIppnZC8+No9xSPPjKP
PbOL2u+sfkpz9wk/3TEbxy3DoKS/bix/lGAA5AgeqYREMmGjoP18HJ7ioJtXs8bo
iH5BcfaaQoWy9j8ZZO6+1YJYMxYXI2+fD96MJbOHPzvRO4s+JwUyowTlrCiYOret
yc/73/lu7lAtYG+O6d39uNVh3bZXGuGG1LuMYxhNdzeoHdiRNlwXXIuUxOKQ0jDe
BFqunSJfGVWm+UK29AXdaAnAXeIDSOcokGpYteHW5pw=
-----END CERTIFICATE-----
