Certificate:
    Data:
        Version: 3 (0x2)
        Serial Number: 2493 (0x9bd)
    Signature Algorithm: md5WithRSAEncryption
        Issuer: C=US, ST=OH, L=Columbus, O=VikingVPN, OU=MyOrganizationalUnit, CN=VikingVPN CA/name=EasyRSA/emailAddress=me@myhost.mydomain
        Validity
            Not Before: Aug  8 11:54:52 2014 GMT
            Not After : Aug  5 11:54:52 2024 GMT
        Subject: CN=Client868Cert53ad54
        Subject Public Key Info:
            Public Key Algorithm: rsaEncryption
                Public-Key: (4096 bit)
                Modulus:
                    00:bf:cd:2a:26:f9:de:db:c1:27:b3:e2:43:eb:21:
                    97:dd:9a:90:27:93:e4:59:b6:4d:46:88:30:25:f9:
                    92:fa:07:a4:e1:c2:73:5b:b3:a3:18:9f:ee:db:e3:
                    46:23:db:af:fb:74:8a:43:41:3c:e9:c9:44:33:b6:
                    0a:9d:e0:a1:1c:96:24:e1:28:32:f8:50:c6:29:56:
                    95:f3:e3:0c:e0:a8:30:ab:24:87:21:2b:31:74:a2:
                    2f:d9:0e:34:70:55:1e:c8:7d:22:19:b8:dd:b9:ff:
                    1a:a0:fb:76:0a:54:8d:cb:36:aa:07:5c:d7:d2:8d:
                    b3:51:00:d7:66:67:7d:16:80:57:99:12:25:62:01:
                    53:47:35:da:20:f1:af:c8:14:03:71:b9:36:1d:83:
                    01:e3:f3:2f:ab:fa:dc:a7:49:24:f0:20:d3:12:6b:
                    ec:7f:46:5e:c3:27:b8:45:67:b1:2d:fe:e4:2b:6a:
                    8a:1a:79:87:d9:fc:1f:3d:83:85:38:2e:63:f2:6b:
                    24:1a:5a:4a:e7:62:43:1b:fd:e7:90:c9:c2:fd:47:
                    c4:17:2d:99:10:c6:11:ad:e7:37:88:ae:97:5c:21:
                    25:72:4d:59:08:89:c5:e5:be:f6:38:fe:f6:2c:21:
                    6a:5f:64:28:91:2e:c1:98:76:36:cc:50:da:67:fb:
                    88:21:f4:c9:1c:44:68:27:dc:dc:25:8e:2f:0e:14:
                    7d:bc:cd:bc:90:ec:60:27:7c:e1:2c:1b:26:98:9d:
                    42:b1:1e:34:74:52:fb:11:51:b0:49:54:9a:05:68:
                    0e:da:5f:48:42:c0:d8:d6:2c:7f:f7:4c:81:40:1f:
                    de:47:8e:24:82:d7:2b:44:e5:32:12:68:41:14:12:
                    af:5c:62:f9:fc:30:ca:08:11:fd:7e:6f:b1:de:5e:
                    7b:d8:0c:a6:56:eb:fe:13:56:7f:e2:75:de:9c:36:
                    23:5e:fd:76:00:30:36:94:d8:00:b7:c8:84:08:f2:
                    2c:c1:90:f2:57:df:67:b9:86:55:5c:31:6a:ee:7c:
                    5e:3e:cb:44:eb:0b:63:17:5d:41:df:9c:23:8a:57:
                    b4:56:c9:8d:4e:6e:0d:10:a6:46:5d:ce:0f:9c:58:
                    b1:43:57:79:9b:b2:95:c0:f1:d0:14:5c:63:39:1c:
                    b4:f6:e8:7b:9a:3d:8c:b7:0a:5e:4f:b4:22:50:65:
                    ed:c0:1e:ff:ba:49:6a:6a:e0:a2:d7:10:c9:74:92:
                    54:01:ab:b2:73:56:35:68:bc:1a:49:f0:2c:7c:ea:
                    d4:f8:8f:0c:c8:af:7d:e6:fa:3e:44:c1:0b:0c:1f:
                    98:3d:cc:80:cd:9b:40:94:62:de:e8:25:87:fb:27:
                    d5:05:85
                Exponent: 65537 (0x10001)
        X509v3 extensions:
            X509v3 Basic Constraints: 
                CA:FALSE
            Netscape Comment: 
                Easy-RSA Generated Certificate
            X509v3 Subject Key Identifier: 
                26:DD:88:0A:29:18:02:F8:CB:62:AA:C3:15:11:7A:28:ED:A9:15:DF
            X509v3 Authority Key Identifier: 
                keyid:12:CD:60:04:D2:A0:80:9E:70:ED:C6:99:B8:7B:2C:C6:52:FD:19:A1
                DirName:/C=US/ST=OH/L=Columbus/O=VikingVPN/OU=MyOrganizationalUnit/CN=VikingVPN CA/name=EasyRSA/emailAddress=me@myhost.mydomain
                serial:CF:35:85:EE:80:BF:2A:3E

            X509v3 Extended Key Usage: 
                TLS Web Client Authentication
            X509v3 Key Usage: 
                Digital Signature
    Signature Algorithm: md5WithRSAEncryption
         60:fc:40:22:de:c8:9a:67:91:fe:8a:2c:ac:49:d4:47:d2:fc:
         a2:66:e4:74:79:72:66:0f:f8:5b:95:bb:46:f3:4f:b6:7b:30:
         3b:cc:ee:fc:75:14:cb:fd:51:84:60:27:ee:62:d8:10:11:1c:
         18:d7:69:75:aa:35:89:f1:38:85:75:96:c8:7c:6b:e9:dc:b6:
         c5:16:12:58:82:9f:53:e4:02:23:1b:d6:aa:87:09:44:8d:86:
         88:fe:62:6c:fe:66:4d:7c:0e:7a:9c:14:9f:d0:5a:31:b1:b3:
         62:99:1b:d5:95:c8:23:f5:23:6d:f0:1d:c8:2c:f0:47:10:2e:
         ec:23:8b:20:a7:19:c6:46:67:45:1c:48:3a:2c:96:c8:37:8d:
         c3:f4:5f:68:30:9b:91:03:81:fe:cd:26:40:31:82:ec:66:77:
         6e:aa:73:a2:3d:41:6c:aa:cf:29:fe:18:b0:cb:d3:6e:5c:57:
         20:b0:d1:b3:0b:ac:90:9c:79:7a:2c:3e:6a:6d:80:47:b0:f1:
         0b:ca:43:53:c6:a3:0f:fa:fc:35:10:77:d2:8b:20:9a:32:2d:
         bf:3d:05:77:cd:ed:cd:26:bb:9e:dc:68:cd:25:0b:2f:01:e8:
         8a:a9:92:32:8d:49:d3:85:63:57:79:d4:24:9c:f2:08:f6:66:
         ba:83:38:3a:39:c4:4d:75:1a:65:37:4b:f1:77:36:d6:7d:d7:
         2d:3b:ec:2a:19:32:62:7c:a8:2e:36:24:b3:a5:af:fd:a7:9c:
         d1:0b:7f:70:3e:e6:e6:b0:c8:cd:69:ce:b8:55:a0:60:1e:d2:
         fe:71:cc:28:1f:5e:52:48:18:39:f5:58:4c:2e:05:c1:2e:c9:
         3f:e0:e0:1f:dc:7f:0c:4c:00:9a:af:45:eb:2a:c6:50:d5:bd:
         d4:4c:24:d5:8a:43:17:ff:62:f5:9d:e9:e4:1c:2c:0e:4a:63:
         e1:ba:6e:03:07:d1:bb:33:6e:90:19:da:6f:3c:55:d4:36:e5:
         3e:44:19:0f:96:49:26:d0:51:bb:5e:72:35:98:f9:db:da:80:
         52:fe:d2:22:7c:38:49:91:e8:53:e9:55:4c:67:7f:b0:8b:14:
         db:8e:2d:2b:19:1b:f1:61:f3:de:1c:ca:8b:22:a5:df:28:35:
         2e:38:31:e9:58:fe:c9:48:5f:ab:53:22:eb:75:64:27:5c:cc:
         73:ef:23:dd:66:5b:59:5c:7b:41:5b:7a:4f:3e:9a:bf:4c:12:
         d1:65:b8:71:dd:8f:9c:6c:25:94:70:59:7a:d8:fd:1c:a8:2b:
         4f:34:66:40:17:80:f4:d9:60:1a:bc:9a:d3:1b:d0:7a:7a:43:
         a1:83:60:8a:49:66:28:a4
-----BEGIN CERTIFICATE-----
MIIGrDCCBJSgAwIBAgICCb0wDQYJKoZIhvcNAQEEBQAwgawxCzAJBgNVBAYTAlVT
MQswCQYDVQQIEwJPSDERMA8GA1UEBxMIQ29sdW1idXMxEjAQBgNVBAoTCVZpa2lu
Z1ZQTjEdMBsGA1UECxMUTXlPcmdhbml6YXRpb25hbFVuaXQxFTATBgNVBAMTDFZp
a2luZ1ZQTiBDQTEQMA4GA1UEKRMHRWFzeVJTQTEhMB8GCSqGSIb3DQEJARYSbWVA
bXlob3N0Lm15ZG9tYWluMB4XDTE0MDgwODExNTQ1MloXDTI0MDgwNTExNTQ1Mlow
HjEcMBoGA1UEAxMTQ2xpZW50ODY4Q2VydDUzYWQ1NDCCAiIwDQYJKoZIhvcNAQEB
BQADggIPADCCAgoCggIBAL/NKib53tvBJ7PiQ+shl92akCeT5Fm2TUaIMCX5kvoH
pOHCc1uzoxif7tvjRiPbr/t0ikNBPOnJRDO2Cp3goRyWJOEoMvhQxilWlfPjDOCo
MKskhyErMXSiL9kONHBVHsh9Ihm43bn/GqD7dgpUjcs2qgdc19KNs1EA12ZnfRaA
V5kSJWIBU0c12iDxr8gUA3G5Nh2DAePzL6v63KdJJPAg0xJr7H9GXsMnuEVnsS3+
5Ctqihp5h9n8Hz2DhTguY/JrJBpaSudiQxv955DJwv1HxBctmRDGEa3nN4iul1wh
JXJNWQiJxeW+9jj+9iwhal9kKJEuwZh2NsxQ2mf7iCH0yRxEaCfc3CWOLw4UfbzN
vJDsYCd84SwbJpidQrEeNHRS+xFRsElUmgVoDtpfSELA2NYsf/dMgUAf3keOJILX
K0TlMhJoQRQSr1xi+fwwyggR/X5vsd5ee9gMplbr/hNWf+J13pw2I179dgAwNpTY
ALfIhAjyLMGQ8lffZ7mGVVwxau58Xj7LROsLYxddQd+cI4pXtFbJjU5uDRCmRl3O
D5xYsUNXeZuylcDx0BRcYzkctPboe5o9jLcKXk+0IlBl7cAe/7pJamrgotcQyXSS
VAGrsnNWNWi8GknwLHzq1PiPDMivfeb6PkTBCwwfmD3MgM2bQJRi3uglh/sn1QWF
AgMBAAGjggFjMIIBXzAJBgNVHRMEAjAAMC0GCWCGSAGG+EIBDQQgFh5FYXN5LVJT
QSBHZW5lcmF0ZWQgQ2VydGlmaWNhdGUwHQYDVR0OBBYEFCbdiAopGAL4y2KqwxUR
eijtqRXfMIHhBgNVHSMEgdkwgdaAFBLNYATSoICecO3Gmbh7LMZS/RmhoYGypIGv
MIGsMQswCQYDVQQGEwJVUzELMAkGA1UECBMCT0gxETAPBgNVBAcTCENvbHVtYnVz
MRIwEAYDVQQKEwlWaWtpbmdWUE4xHTAbBgNVBAsTFE15T3JnYW5pemF0aW9uYWxV
bml0MRUwEwYDVQQDEwxWaWtpbmdWUE4gQ0ExEDAOBgNVBCkTB0Vhc3lSU0ExITAf
BgkqhkiG9w0BCQEWEm1lQG15aG9zdC5teWRvbWFpboIJAM81he6Avyo+MBMGA1Ud
JQQMMAoGCCsGAQUFBwMCMAsGA1UdDwQEAwIHgDANBgkqhkiG9w0BAQQFAAOCAgEA
YPxAIt7ImmeR/oosrEnUR9L8ombkdHlyZg/4W5W7RvNPtnswO8zu/HUUy/1RhGAn
7mLYEBEcGNdpdao1ifE4hXWWyHxr6dy2xRYSWIKfU+QCIxvWqocJRI2GiP5ibP5m
TXwOepwUn9BaMbGzYpkb1ZXII/UjbfAdyCzwRxAu7COLIKcZxkZnRRxIOiyWyDeN
w/RfaDCbkQOB/s0mQDGC7GZ3bqpzoj1BbKrPKf4YsMvTblxXILDRswuskJx5eiw+
am2AR7DxC8pDU8ajD/r8NRB30osgmjItvz0Fd83tzSa7ntxozSULLwHoiqmSMo1J
04VjV3nUJJzyCPZmuoM4OjnETXUaZTdL8Xc21n3XLTvsKhkyYnyoLjYks6Wv/aec
0Qt/cD7m5rDIzWnOuFWgYB7S/nHMKB9eUkgYOfVYTC4FwS7JP+DgH9x/DEwAmq9F
6yrGUNW91Ewk1YpDF/9i9Z3p5BwsDkpj4bpuAwfRuzNukBnabzxV1DblPkQZD5ZJ
JtBRu15yNZj529qAUv7SInw4SZHoU+lVTGd/sIsU244tKxkb8WHz3hzKiyKl3yg1
Ljgx6Vj+yUhfq1Mi63VkJ1zMc+8j3WZbWVx7QVt6Tz6av0wS0WW4cd2PnGwllHBZ
etj9HKgrTzRmQBeA9NlgGrya0xvQenpDoYNgiklmKKQ=
-----END CERTIFICATE-----
