Certificate:
    Data:
        Version: 3 (0x2)
        Serial Number: 2495 (0x9bf)
    Signature Algorithm: md5WithRSAEncryption
        Issuer: C=US, ST=OH, L=Columbus, O=VikingVPN, OU=MyOrganizationalUnit, CN=VikingVPN CA/name=EasyRSA/emailAddress=me@myhost.mydomain
        Validity
            Not Before: Aug  8 11:59:18 2014 GMT
            Not After : Aug  5 11:59:18 2024 GMT
        Subject: CN=Client868Cert2f7546
        Subject Public Key Info:
            Public Key Algorithm: rsaEncryption
                Public-Key: (4096 bit)
                Modulus:
                    00:c5:2b:62:f4:4c:80:10:be:70:8b:4c:e6:f4:93:
                    d1:fc:dd:5d:ae:ef:4e:50:00:46:c3:2e:18:13:38:
                    66:31:a5:4d:3b:75:88:28:0f:27:6f:c3:b7:73:df:
                    12:74:ff:e7:8f:6a:3c:2f:1a:0e:9e:6d:84:7a:e6:
                    d7:29:ee:84:b9:13:a2:8f:ad:e3:77:66:f7:e6:3d:
                    eb:b3:4c:a0:46:f4:2d:a3:d1:74:93:28:8e:cb:20:
                    05:94:0b:59:0e:a3:0e:c4:98:e8:0f:96:bd:cb:01:
                    9e:31:0a:4e:f4:fc:21:64:f0:6c:cf:de:b3:c9:f6:
                    01:d7:56:9d:e2:37:cb:a1:79:fe:19:c9:44:06:47:
                    fe:1f:cb:c0:d0:39:81:fe:6f:0f:b1:18:76:fc:ee:
                    f0:88:98:0a:2b:1d:64:40:1b:6d:9d:04:55:07:90:
                    5c:83:00:7e:30:26:06:c4:50:10:d8:4d:98:a5:3f:
                    e3:75:5b:4c:ea:3c:3f:38:3a:c1:f0:6c:09:5e:6b:
                    28:04:9c:73:f4:b5:9b:90:89:f8:5c:ac:67:d2:25:
                    70:f0:c5:3a:6c:d3:3d:bc:d5:ed:23:a9:20:60:28:
                    fb:c6:1c:02:40:ab:f2:8a:3d:53:f0:02:90:76:c4:
                    3b:3d:05:e6:03:b2:56:e6:72:58:d5:e8:29:84:86:
                    37:47:49:7f:7d:42:e3:e9:19:9a:4c:5b:63:3d:9e:
                    d3:29:44:10:6d:a9:79:f1:38:c8:38:f5:20:92:bb:
                    8c:6f:19:d8:72:e4:86:5b:20:0b:14:69:cf:d1:48:
                    ea:8d:e1:fb:b8:c0:a8:ad:ba:27:5e:a1:50:0f:3d:
                    98:2c:a8:25:8f:54:be:21:eb:df:6d:40:c9:8f:0f:
                    7f:c9:91:09:d7:41:f6:6d:4e:64:f8:55:2d:41:78:
                    22:a4:da:b7:87:2d:c4:20:cf:13:37:90:03:74:7a:
                    8a:04:15:e2:6e:93:83:f4:80:1d:88:94:35:22:fa:
                    1f:94:30:97:5e:50:b9:84:2d:55:58:25:b4:8f:6d:
                    2c:b4:ef:32:4c:75:ae:d5:d1:cb:16:9e:30:1b:d0:
                    3f:85:93:36:12:13:5c:d5:89:00:06:e9:e5:17:0f:
                    3e:31:bd:17:b8:07:01:55:52:0d:b1:da:c3:f7:ec:
                    99:10:1c:8d:ba:85:43:78:78:79:20:94:08:6b:72:
                    8d:f1:c6:46:0a:41:38:29:0b:93:89:1e:d5:8b:8f:
                    fe:39:53:43:a9:a6:f6:b5:24:b1:41:07:34:1e:d6:
                    43:d4:05:b1:c1:b9:53:89:68:96:d4:20:67:c8:0d:
                    75:e8:91:4f:29:14:e3:da:2f:f0:0d:bb:45:58:7f:
                    95:6e:f5
                Exponent: 65537 (0x10001)
        X509v3 extensions:
            X509v3 Basic Constraints: 
                CA:FALSE
            Netscape Comment: 
                Easy-RSA Generated Certificate
            X509v3 Subject Key Identifier: 
                83:64:E0:3C:6B:FD:41:EC:C7:A0:B1:26:44:E5:C6:29:C5:33:46:BD
            X509v3 Authority Key Identifier: 
                keyid:12:CD:60:04:D2:A0:80:9E:70:ED:C6:99:B8:7B:2C:C6:52:FD:19:A1
                DirName:/C=US/ST=OH/L=Columbus/O=VikingVPN/OU=MyOrganizationalUnit/CN=VikingVPN CA/name=EasyRSA/emailAddress=me@myhost.mydomain
                serial:CF:35:85:EE:80:BF:2A:3E

            X509v3 Extended Key Usage: 
                TLS Web Client Authentication
            X509v3 Key Usage: 
                Digital Signature
    Signature Algorithm: md5WithRSAEncryption
         83:f4:e2:10:87:e0:68:ad:15:c8:75:d1:d5:5d:d8:1c:08:59:
         fb:34:b2:b9:5e:43:d1:77:90:68:5b:50:f2:a1:9f:95:c4:4c:
         8b:8b:f7:3a:c3:4f:32:b6:c8:7e:93:f5:dc:37:31:44:a8:ca:
         45:b6:a8:79:51:51:7f:fc:34:ac:22:22:64:88:9f:59:c4:d0:
         17:d5:bd:54:b7:6b:9b:33:d2:7e:d1:12:c6:23:bb:65:27:43:
         8e:78:bb:cd:6c:6e:33:6a:9c:dc:5d:3f:f3:46:da:15:a3:eb:
         b5:7c:85:e4:2d:9c:fc:4d:ff:eb:36:1e:ca:29:ec:be:5e:8a:
         a4:da:52:7b:a1:ac:ce:10:82:6c:85:f8:51:ab:a1:d9:ab:5e:
         ae:29:b7:5d:68:9e:7d:6a:39:eb:6b:6a:41:a7:da:9f:58:5b:
         3d:ac:8d:d5:61:8f:c6:0f:03:7a:2e:f5:09:3e:49:35:26:81:
         79:44:2f:af:0e:b9:14:98:1e:65:9d:6d:72:3c:4d:d3:71:1c:
         8e:d4:cc:fb:e5:c4:18:20:5e:78:b8:a9:31:25:aa:ff:3f:54:
         3b:92:d1:78:48:e7:40:d0:2c:ca:04:90:eb:91:e3:98:aa:5c:
         63:33:1e:93:40:c3:5b:4d:38:ad:87:19:b2:90:05:a1:23:9d:
         75:6e:55:5e:a5:3e:83:b2:8a:ce:19:66:5d:8b:26:28:29:a7:
         40:f6:f7:5d:9f:c0:d8:6b:ae:f7:a6:dc:b8:fe:9b:b1:47:4d:
         98:5d:9c:d6:09:d2:48:a0:1e:7f:5b:be:b4:d6:2c:54:3a:e1:
         f7:ab:e1:c3:7f:20:e5:e1:26:a8:03:57:61:2a:9d:8a:a9:64:
         45:13:45:54:50:32:67:19:dd:36:e9:83:db:37:d5:81:5a:ab:
         dc:33:90:7c:b3:57:06:99:8a:47:de:75:5c:c1:66:31:81:4a:
         7d:61:70:11:82:f4:a5:1b:e1:b5:22:1f:2e:79:12:b1:bd:5a:
         11:9f:44:b0:fb:ac:33:5b:ed:4c:22:a2:73:90:a2:03:3f:94:
         3e:35:8f:2a:5a:a9:4c:18:87:c5:66:35:a7:59:8f:d4:05:33:
         7d:40:18:3e:7d:6b:a2:bf:0c:fc:83:e2:93:f0:e4:10:b7:2f:
         76:45:22:92:29:d5:4c:81:67:2f:3b:4d:82:23:47:69:55:92:
         fb:9b:b9:0e:a0:68:04:15:30:9f:6b:5a:8f:67:3b:a6:2b:bf:
         7f:21:4f:6f:08:e1:a6:e5:26:d3:ad:3b:cc:d5:fb:43:02:f5:
         f6:8e:ce:cc:71:6c:cf:8e:39:5a:fd:4e:ad:a4:cd:16:8d:70:
         d0:a1:12:50:50:28:7f:52
-----BEGIN CERTIFICATE-----
MIIGrDCCBJSgAwIBAgICCb8wDQYJKoZIhvcNAQEEBQAwgawxCzAJBgNVBAYTAlVT
MQswCQYDVQQIEwJPSDERMA8GA1UEBxMIQ29sdW1idXMxEjAQBgNVBAoTCVZpa2lu
Z1ZQTjEdMBsGA1UECxMUTXlPcmdhbml6YXRpb25hbFVuaXQxFTATBgNVBAMTDFZp
a2luZ1ZQTiBDQTEQMA4GA1UEKRMHRWFzeVJTQTEhMB8GCSqGSIb3DQEJARYSbWVA
bXlob3N0Lm15ZG9tYWluMB4XDTE0MDgwODExNTkxOFoXDTI0MDgwNTExNTkxOFow
HjEcMBoGA1UEAxMTQ2xpZW50ODY4Q2VydDJmNzU0NjCCAiIwDQYJKoZIhvcNAQEB
BQADggIPADCCAgoCggIBAMUrYvRMgBC+cItM5vST0fzdXa7vTlAARsMuGBM4ZjGl
TTt1iCgPJ2/Dt3PfEnT/549qPC8aDp5thHrm1ynuhLkToo+t43dm9+Y967NMoEb0
LaPRdJMojssgBZQLWQ6jDsSY6A+WvcsBnjEKTvT8IWTwbM/es8n2AddWneI3y6F5
/hnJRAZH/h/LwNA5gf5vD7EYdvzu8IiYCisdZEAbbZ0EVQeQXIMAfjAmBsRQENhN
mKU/43VbTOo8Pzg6wfBsCV5rKAScc/S1m5CJ+FysZ9IlcPDFOmzTPbzV7SOpIGAo
+8YcAkCr8oo9U/ACkHbEOz0F5gOyVuZyWNXoKYSGN0dJf31C4+kZmkxbYz2e0ylE
EG2pefE4yDj1IJK7jG8Z2HLkhlsgCxRpz9FI6o3h+7jAqK26J16hUA89mCyoJY9U
viHr321AyY8Pf8mRCddB9m1OZPhVLUF4IqTat4ctxCDPEzeQA3R6igQV4m6Tg/SA
HYiUNSL6H5Qwl15QuYQtVVgltI9tLLTvMkx1rtXRyxaeMBvQP4WTNhITXNWJAAbp
5RcPPjG9F7gHAVVSDbHaw/fsmRAcjbqFQ3h4eSCUCGtyjfHGRgpBOCkLk4ke1YuP
/jlTQ6mm9rUksUEHNB7WQ9QFscG5U4loltQgZ8gNdeiRTykU49ov8A27RVh/lW71
AgMBAAGjggFjMIIBXzAJBgNVHRMEAjAAMC0GCWCGSAGG+EIBDQQgFh5FYXN5LVJT
QSBHZW5lcmF0ZWQgQ2VydGlmaWNhdGUwHQYDVR0OBBYEFINk4Dxr/UHsx6CxJkTl
xinFM0a9MIHhBgNVHSMEgdkwgdaAFBLNYATSoICecO3Gmbh7LMZS/RmhoYGypIGv
MIGsMQswCQYDVQQGEwJVUzELMAkGA1UECBMCT0gxETAPBgNVBAcTCENvbHVtYnVz
MRIwEAYDVQQKEwlWaWtpbmdWUE4xHTAbBgNVBAsTFE15T3JnYW5pemF0aW9uYWxV
bml0MRUwEwYDVQQDEwxWaWtpbmdWUE4gQ0ExEDAOBgNVBCkTB0Vhc3lSU0ExITAf
BgkqhkiG9w0BCQEWEm1lQG15aG9zdC5teWRvbWFpboIJAM81he6Avyo+MBMGA1Ud
JQQMMAoGCCsGAQUFBwMCMAsGA1UdDwQEAwIHgDANBgkqhkiG9w0BAQQFAAOCAgEA
g/TiEIfgaK0VyHXR1V3YHAhZ+zSyuV5D0XeQaFtQ8qGflcRMi4v3OsNPMrbIfpP1
3DcxRKjKRbaoeVFRf/w0rCIiZIifWcTQF9W9VLdrmzPSftESxiO7ZSdDjni7zWxu
M2qc3F0/80baFaPrtXyF5C2c/E3/6zYeyinsvl6KpNpSe6GszhCCbIX4Uauh2ate
rim3XWiefWo562tqQafan1hbPayN1WGPxg8Dei71CT5JNSaBeUQvrw65FJgeZZ1t
cjxN03EcjtTM++XEGCBeeLipMSWq/z9UO5LReEjnQNAsygSQ65HjmKpcYzMek0DD
W004rYcZspAFoSOddW5VXqU+g7KKzhlmXYsmKCmnQPb3XZ/A2Guu96bcuP6bsUdN
mF2c1gnSSKAef1u+tNYsVDrh96vhw38g5eEmqANXYSqdiqlkRRNFVFAyZxndNumD
2zfVgVqr3DOQfLNXBpmKR951XMFmMYFKfWFwEYL0pRvhtSIfLnkSsb1aEZ9EsPus
M1vtTCKic5CiAz+UPjWPKlqpTBiHxWY1p1mP1AUzfUAYPn1ror8M/IPik/DkELcv
dkUikinVTIFnLztNgiNHaVWS+5u5DqBoBBUwn2taj2c7piu/fyFPbwjhpuUm0607
zNX7QwL19o7OzHFsz445Wv1OraTNFo1w0KESUFAof1I=
-----END CERTIFICATE-----
