Certificate:
    Data:
        Version: 3 (0x2)
        Serial Number: 2509 (0x9cd)
    Signature Algorithm: md5WithRSAEncryption
        Issuer: C=US, ST=OH, L=Columbus, O=VikingVPN, OU=MyOrganizationalUnit, CN=VikingVPN CA/name=EasyRSA/emailAddress=me@myhost.mydomain
        Validity
            Not Before: Aug  9 14:25:45 2014 GMT
            Not After : Aug  6 14:25:45 2024 GMT
        Subject: CN=Client872Cert1e60e4
        Subject Public Key Info:
            Public Key Algorithm: rsaEncryption
                Public-Key: (4096 bit)
                Modulus:
                    00:c1:bb:5a:09:b8:8d:85:de:e9:72:25:72:a4:af:
                    33:2c:72:ae:3a:98:35:50:bd:f1:9c:5b:7f:3a:e2:
                    7a:be:50:72:3a:b7:6d:ac:f1:b3:e5:99:fc:dd:77:
                    f8:94:3b:8e:4c:64:48:b2:b6:fc:4f:7b:ab:40:c6:
                    57:e8:2a:09:b1:9c:6d:75:05:22:37:a1:aa:c8:7d:
                    f3:59:e1:65:d9:87:2f:1f:86:98:4e:08:55:dd:25:
                    ff:7a:39:21:69:b6:de:75:3e:d9:ca:db:c9:23:2d:
                    ea:a2:89:46:d1:28:a2:ac:e0:ca:96:c5:f7:a5:71:
                    2f:85:de:cc:e1:e9:f7:e1:fa:74:ea:c2:8c:16:65:
                    61:0c:a0:1b:8b:0c:c5:e2:02:74:60:f0:97:1e:fb:
                    7e:64:a4:79:ee:24:47:74:43:ed:54:6b:ed:de:d2:
                    c9:54:32:e6:b0:93:b5:4c:ba:6f:b9:18:b1:59:71:
                    2e:6e:1e:b6:3d:c3:aa:34:13:54:3d:57:ce:35:5b:
                    70:a6:09:f0:a4:18:27:54:22:15:07:41:18:9f:b3:
                    a4:b5:98:2c:c8:34:30:a2:8e:de:91:6d:7f:f8:57:
                    c8:c8:fc:7f:c5:bf:11:e7:b0:ab:65:ab:09:f3:c6:
                    d6:cb:45:b1:a1:3c:11:a1:25:a6:66:67:38:c9:0e:
                    8a:10:38:ef:e2:9f:7a:ca:1b:90:17:b1:a9:49:6f:
                    9c:bc:2f:da:47:f0:8a:28:93:58:6c:db:35:55:f6:
                    18:9c:0a:a0:de:83:eb:74:2c:f9:81:8c:0b:09:8e:
                    86:96:1d:96:19:ad:f2:94:d1:ca:60:6f:d7:ff:35:
                    9e:3e:a5:51:1c:cf:99:c4:6c:30:15:d7:83:f0:90:
                    2c:3a:7b:ac:6b:cc:0f:83:a9:2a:67:6a:5f:1d:4c:
                    e5:c3:de:e8:61:ad:4a:40:7e:f8:fa:0a:e6:bc:2d:
                    7c:85:6a:78:ca:ce:fd:36:45:5a:f1:33:b6:bf:ba:
                    54:0c:31:9f:63:8f:ec:44:89:43:4f:75:97:64:14:
                    8f:95:3a:a5:81:38:1e:27:74:98:54:29:56:2e:08:
                    8f:36:1c:78:e9:35:cd:44:11:5f:97:06:61:f6:8c:
                    b7:7b:fb:0c:a0:e1:f6:dd:62:7c:0d:be:90:6d:c1:
                    74:c0:0d:bc:ca:c8:70:79:64:4e:ac:68:d0:ee:31:
                    9b:ff:09:53:b1:4c:6a:1a:64:5e:95:4a:60:89:d4:
                    ff:c5:87:e6:54:3f:6b:2c:10:57:53:aa:10:b1:01:
                    95:df:12:7a:5a:f8:45:3c:be:c7:72:85:e4:6f:a7:
                    8f:b1:1e:6e:4f:81:27:69:ca:51:42:9d:83:7d:19:
                    ad:9c:8f
                Exponent: 65537 (0x10001)
        X509v3 extensions:
            X509v3 Basic Constraints: 
                CA:FALSE
            Netscape Comment: 
                Easy-RSA Generated Certificate
            X509v3 Subject Key Identifier: 
                87:1C:15:44:4B:FA:10:A2:22:19:56:27:BC:2D:45:01:F3:57:CD:D2
            X509v3 Authority Key Identifier: 
                keyid:12:CD:60:04:D2:A0:80:9E:70:ED:C6:99:B8:7B:2C:C6:52:FD:19:A1
                DirName:/C=US/ST=OH/L=Columbus/O=VikingVPN/OU=MyOrganizationalUnit/CN=VikingVPN CA/name=EasyRSA/emailAddress=me@myhost.mydomain
                serial:CF:35:85:EE:80:BF:2A:3E

            X509v3 Extended Key Usage: 
                TLS Web Client Authentication
            X509v3 Key Usage: 
                Digital Signature
    Signature Algorithm: md5WithRSAEncryption
         57:f0:f9:bb:1f:2a:36:48:6f:d4:b3:b6:ca:7b:7a:1a:13:4f:
         eb:f4:5f:9f:02:da:c8:d2:72:ef:1f:af:2f:9b:08:22:30:59:
         bc:99:4d:2b:65:c9:f1:0e:1a:b8:d6:71:b1:e2:1b:11:07:73:
         5d:6a:77:92:2d:c9:c8:97:c4:91:1b:28:84:65:c7:12:a4:1e:
         00:a3:0b:08:9a:11:39:82:9c:6b:b5:70:3e:46:ac:a0:65:b9:
         c5:7a:1e:07:91:34:0d:20:53:0b:98:83:34:8e:2f:22:4c:2d:
         af:67:7e:f0:d7:47:b2:f6:fe:64:a3:40:32:f5:19:a6:9e:65:
         20:63:ab:73:12:4f:2a:49:aa:bb:43:f0:51:08:5a:11:bc:32:
         7e:aa:95:3e:3c:28:66:1a:29:5b:ed:0d:7a:d3:48:56:f8:b8:
         84:31:d4:5b:c9:a5:c2:9a:0d:90:4d:65:7b:e5:42:ce:56:4d:
         ab:10:05:d8:51:e4:4c:c5:a0:93:0f:78:70:f8:e7:ea:c6:59:
         db:a3:df:3b:40:af:1f:93:d1:58:7e:db:95:36:1c:fe:03:cb:
         66:72:61:91:21:b2:da:e0:f0:71:a3:d9:c2:93:94:9f:6c:5c:
         db:ca:ce:5b:fe:11:7d:24:25:f5:09:42:7c:6e:fb:1a:91:88:
         37:51:f5:52:4c:ee:bd:79:48:bb:89:f4:ee:2b:16:04:d7:4c:
         a2:19:ba:11:7e:11:c0:e6:28:e8:df:ec:87:cb:52:23:9c:d2:
         73:14:25:35:21:56:ae:31:8c:ba:fe:a3:e3:78:b2:a5:16:1a:
         b4:4f:a3:24:f4:dd:b7:1f:b4:38:15:95:9b:2b:cb:62:49:ae:
         23:c9:25:2a:ea:ab:ee:54:24:2f:b8:26:07:f4:4e:e1:59:7a:
         02:76:4e:ea:7e:e9:50:20:f6:e3:f5:6c:55:2f:bf:6e:55:66:
         3d:78:eb:b8:7c:8a:6e:d2:5c:2e:af:82:b5:99:1b:8a:c3:38:
         a1:cb:d2:8b:35:85:45:2a:47:df:b6:61:30:bd:99:b9:40:82:
         fd:60:ac:59:cd:fc:f7:7b:53:e3:a8:16:49:8d:6f:ec:48:6b:
         8f:47:a0:c3:b5:23:17:ec:10:08:ae:90:61:6d:89:98:28:c0:
         10:8e:60:db:57:93:1b:00:5f:4f:df:5f:a7:0a:22:39:98:6d:
         cb:ea:3d:18:29:1b:40:a8:c8:3d:d1:e6:86:3e:f7:11:bd:28:
         47:5d:bb:b5:7f:c9:49:58:dc:fa:af:b7:e1:c4:cf:b5:31:2d:
         d0:c3:60:f6:c8:23:ef:76:01:b7:51:f5:67:52:b5:17:74:44:
         40:8a:c8:11:7c:2c:e6:40
-----BEGIN CERTIFICATE-----
MIIGrDCCBJSgAwIBAgICCc0wDQYJKoZIhvcNAQEEBQAwgawxCzAJBgNVBAYTAlVT
MQswCQYDVQQIEwJPSDERMA8GA1UEBxMIQ29sdW1idXMxEjAQBgNVBAoTCVZpa2lu
Z1ZQTjEdMBsGA1UECxMUTXlPcmdhbml6YXRpb25hbFVuaXQxFTATBgNVBAMTDFZp
a2luZ1ZQTiBDQTEQMA4GA1UEKRMHRWFzeVJTQTEhMB8GCSqGSIb3DQEJARYSbWVA
bXlob3N0Lm15ZG9tYWluMB4XDTE0MDgwOTE0MjU0NVoXDTI0MDgwNjE0MjU0NVow
HjEcMBoGA1UEAxMTQ2xpZW50ODcyQ2VydDFlNjBlNDCCAiIwDQYJKoZIhvcNAQEB
BQADggIPADCCAgoCggIBAMG7Wgm4jYXe6XIlcqSvMyxyrjqYNVC98Zxbfzrier5Q
cjq3bazxs+WZ/N13+JQ7jkxkSLK2/E97q0DGV+gqCbGcbXUFIjehqsh981nhZdmH
Lx+GmE4IVd0l/3o5IWm23nU+2crbySMt6qKJRtEooqzgypbF96VxL4XezOHp9+H6
dOrCjBZlYQygG4sMxeICdGDwlx77fmSkee4kR3RD7VRr7d7SyVQy5rCTtUy6b7kY
sVlxLm4etj3DqjQTVD1XzjVbcKYJ8KQYJ1QiFQdBGJ+zpLWYLMg0MKKO3pFtf/hX
yMj8f8W/Eeewq2WrCfPG1stFsaE8EaElpmZnOMkOihA47+KfesobkBexqUlvnLwv
2kfwiiiTWGzbNVX2GJwKoN6D63Qs+YGMCwmOhpYdlhmt8pTRymBv1/81nj6lURzP
mcRsMBXXg/CQLDp7rGvMD4OpKmdqXx1M5cPe6GGtSkB++PoK5rwtfIVqeMrO/TZF
WvEztr+6VAwxn2OP7ESJQ091l2QUj5U6pYE4Hid0mFQpVi4IjzYceOk1zUQRX5cG
YfaMt3v7DKDh9t1ifA2+kG3BdMANvMrIcHlkTqxo0O4xm/8JU7FMahpkXpVKYInU
/8WH5lQ/aywQV1OqELEBld8Selr4RTy+x3KF5G+nj7Eebk+BJ2nKUUKdg30ZrZyP
AgMBAAGjggFjMIIBXzAJBgNVHRMEAjAAMC0GCWCGSAGG+EIBDQQgFh5FYXN5LVJT
QSBHZW5lcmF0ZWQgQ2VydGlmaWNhdGUwHQYDVR0OBBYEFIccFURL+hCiIhlWJ7wt
RQHzV83SMIHhBgNVHSMEgdkwgdaAFBLNYATSoICecO3Gmbh7LMZS/RmhoYGypIGv
MIGsMQswCQYDVQQGEwJVUzELMAkGA1UECBMCT0gxETAPBgNVBAcTCENvbHVtYnVz
MRIwEAYDVQQKEwlWaWtpbmdWUE4xHTAbBgNVBAsTFE15T3JnYW5pemF0aW9uYWxV
bml0MRUwEwYDVQQDEwxWaWtpbmdWUE4gQ0ExEDAOBgNVBCkTB0Vhc3lSU0ExITAf
BgkqhkiG9w0BCQEWEm1lQG15aG9zdC5teWRvbWFpboIJAM81he6Avyo+MBMGA1Ud
JQQMMAoGCCsGAQUFBwMCMAsGA1UdDwQEAwIHgDANBgkqhkiG9w0BAQQFAAOCAgEA
V/D5ux8qNkhv1LO2ynt6GhNP6/RfnwLayNJy7x+vL5sIIjBZvJlNK2XJ8Q4auNZx
seIbEQdzXWp3ki3JyJfEkRsohGXHEqQeAKMLCJoROYKca7VwPkasoGW5xXoeB5E0
DSBTC5iDNI4vIkwtr2d+8NdHsvb+ZKNAMvUZpp5lIGOrcxJPKkmqu0PwUQhaEbwy
fqqVPjwoZhopW+0NetNIVvi4hDHUW8mlwpoNkE1le+VCzlZNqxAF2FHkTMWgkw94
cPjn6sZZ26PfO0CvH5PRWH7blTYc/gPLZnJhkSGy2uDwcaPZwpOUn2xc28rOW/4R
fSQl9QlCfG77GpGIN1H1UkzuvXlIu4n07isWBNdMohm6EX4RwOYo6N/sh8tSI5zS
cxQlNSFWrjGMuv6j43iypRYatE+jJPTdtx+0OBWVmyvLYkmuI8klKuqr7lQkL7gm
B/RO4Vl6AnZO6n7pUCD24/VsVS+/blVmPXjruHyKbtJcLq+CtZkbisM4ocvSizWF
RSpH37ZhML2ZuUCC/WCsWc3893tT46gWSY1v7Ehrj0egw7UjF+wQCK6QYW2JmCjA
EI5g21eTGwBfT99fpwoiOZhty+o9GCkbQKjIPdHmhj73Eb0oR127tX/JSVjc+q+3
4cTPtTEt0MNg9sgj73YBt1H1Z1K1F3REQIrIEXws5kA=
-----END CERTIFICATE-----
