Certificate:
    Data:
        Version: 3 (0x2)
        Serial Number: 2518 (0x9d6)
    Signature Algorithm: md5WithRSAEncryption
        Issuer: C=US, ST=OH, L=Columbus, O=VikingVPN, OU=MyOrganizationalUnit, CN=VikingVPN CA/name=EasyRSA/emailAddress=me@myhost.mydomain
        Validity
            Not Before: Aug 10 13:59:01 2014 GMT
            Not After : Aug  7 13:59:01 2024 GMT
        Subject: CN=Client876Cert589a3a
        Subject Public Key Info:
            Public Key Algorithm: rsaEncryption
                Public-Key: (4096 bit)
                Modulus:
                    00:c0:77:4b:0f:81:2b:24:0e:b7:8f:43:e5:54:ba:
                    0f:3e:38:a0:b8:6d:ec:1a:94:39:ba:74:6e:84:82:
                    a4:35:28:07:8f:aa:99:ee:d2:45:9b:f1:2d:19:14:
                    75:4a:c5:f9:2f:fe:1c:24:9d:52:a8:15:b5:1d:3b:
                    72:35:ec:8b:58:05:5d:0d:2d:60:e3:52:f5:24:7a:
                    5c:84:93:cc:20:c5:17:e0:ff:3b:28:3c:30:e7:98:
                    af:f3:27:54:46:ad:42:e3:96:da:7d:cb:04:c6:ac:
                    8f:5f:15:0f:b8:e0:4e:36:df:f3:1a:6e:d2:30:38:
                    c4:d0:17:51:31:ca:d0:1b:75:36:13:17:8e:74:81:
                    14:c3:54:bc:77:7c:23:45:56:fc:a7:43:ea:6c:14:
                    f0:66:84:05:db:93:c7:19:23:5c:b4:db:03:f2:75:
                    87:17:bb:26:91:e2:dc:67:0e:77:52:18:f7:9c:cd:
                    f2:eb:88:ce:c4:b5:41:33:76:3a:0c:3f:61:87:72:
                    d1:9f:65:1c:2f:e0:f4:a8:4f:52:f5:e0:c0:84:0b:
                    3e:f6:73:36:e4:7d:66:72:53:08:1a:e8:91:70:9b:
                    a5:c2:f6:bf:03:1e:91:65:4c:ff:4b:f0:00:70:ea:
                    67:1b:b9:d2:e6:e7:89:5d:93:02:bb:e4:3b:0b:86:
                    0b:aa:e6:3e:04:66:e5:36:af:78:b0:96:94:2f:8b:
                    70:d7:8b:63:a1:ee:d8:b3:9a:df:a1:87:9b:a6:b5:
                    5e:aa:7e:94:93:d9:8c:ee:ee:79:c5:ac:2e:b1:9c:
                    a5:5d:82:71:58:f0:46:41:62:b6:71:fa:0b:18:7d:
                    ec:dd:03:10:81:8d:8e:71:09:a1:17:b0:ef:29:56:
                    d3:b5:5a:4f:5a:bf:9d:d7:22:b3:18:0f:1c:38:8d:
                    e1:9f:bc:eb:f8:f0:ca:9e:ae:4e:fc:57:40:1c:5d:
                    ea:b2:fd:49:c3:ab:8b:a7:0e:b7:91:a2:ba:f6:f2:
                    c8:42:d5:86:fa:7c:55:ac:c9:50:46:34:ee:99:7c:
                    62:ab:c9:e1:43:7c:fc:ef:8d:3c:f4:85:98:ff:95:
                    d6:e1:4a:48:6c:11:6b:e3:dc:a1:8a:3a:17:61:bb:
                    36:cd:3d:25:47:a6:77:89:b4:a5:fb:71:2a:d3:9b:
                    19:e4:bf:06:1a:30:9d:ef:9c:be:96:aa:3c:15:0f:
                    6e:be:98:22:4e:8d:f6:e9:0d:7c:b5:3b:d3:4e:cd:
                    c5:19:ed:18:9b:bf:ad:95:b2:e9:a9:27:03:67:fa:
                    14:6c:78:24:22:d7:24:cf:8a:1b:cb:c5:e3:02:18:
                    90:41:7c:fa:9a:97:ea:1b:e4:6c:10:b9:51:bd:16:
                    7d:75:95
                Exponent: 65537 (0x10001)
        X509v3 extensions:
            X509v3 Basic Constraints: 
                CA:FALSE
            Netscape Comment: 
                Easy-RSA Generated Certificate
            X509v3 Subject Key Identifier: 
                42:EF:01:B7:61:F0:BD:B0:6A:51:F6:01:E4:64:A4:EC:C0:18:93:1E
            X509v3 Authority Key Identifier: 
                keyid:12:CD:60:04:D2:A0:80:9E:70:ED:C6:99:B8:7B:2C:C6:52:FD:19:A1
                DirName:/C=US/ST=OH/L=Columbus/O=VikingVPN/OU=MyOrganizationalUnit/CN=VikingVPN CA/name=EasyRSA/emailAddress=me@myhost.mydomain
                serial:CF:35:85:EE:80:BF:2A:3E

            X509v3 Extended Key Usage: 
                TLS Web Client Authentication
            X509v3 Key Usage: 
                Digital Signature
    Signature Algorithm: md5WithRSAEncryption
         bb:57:ab:9d:5b:bc:da:b1:16:73:6b:3c:15:57:3f:30:2a:25:
         07:d0:62:c3:f2:ff:c9:ff:81:d8:c6:db:6e:8d:74:16:77:02:
         6c:c5:00:87:84:9b:4c:02:eb:88:c9:28:eb:e3:2a:d3:e3:32:
         f8:f9:d8:aa:f5:bf:29:d1:26:a3:4c:4e:78:44:10:c1:d4:fe:
         34:da:c6:0a:f0:bc:99:67:15:80:0d:1a:28:4f:40:84:1e:4f:
         08:76:6c:4d:44:b8:42:c9:a0:b2:a9:62:26:0b:67:20:24:89:
         f4:3a:95:7b:f3:f0:7b:d3:ab:71:60:a6:29:63:53:ba:ea:79:
         7d:12:3b:46:43:d6:a1:44:dc:30:4d:ac:e5:8b:95:dc:36:b6:
         56:ac:97:58:ab:c4:9f:4a:ff:ba:8d:0c:d5:17:1a:c7:f2:11:
         8f:f2:ec:16:53:d5:45:76:49:8a:81:c8:e4:43:37:75:4f:1e:
         78:f1:00:68:b6:04:84:9a:55:b4:13:81:23:1f:78:80:b7:85:
         9d:1b:5c:f0:73:03:25:45:b1:0f:97:9a:0a:c2:a6:64:b0:ad:
         56:4a:8b:3b:b1:c2:9b:be:5c:40:e1:d5:9b:37:b7:f6:57:1c:
         ff:03:29:dc:86:09:21:b1:3c:a1:57:7b:08:f4:dc:5f:21:de:
         14:9e:f4:0d:54:03:57:00:1f:53:43:64:74:02:fb:f9:88:96:
         b3:4a:2d:7f:a0:8e:6c:5e:81:ef:9f:0c:14:32:fb:29:35:57:
         62:1c:70:53:12:57:69:8b:b4:4c:36:3e:9e:e5:44:fa:1a:2f:
         3f:9b:d9:f1:b5:fb:38:b4:6d:eb:ec:1b:e6:73:23:4a:3e:fb:
         8d:1d:33:ba:a3:4c:e1:55:81:c2:aa:6b:1c:4f:34:33:10:66:
         58:ff:15:61:f2:3c:01:64:ba:c3:92:d5:6c:9e:f8:43:f3:81:
         20:2c:06:e3:bd:8e:76:57:e4:b1:72:c4:9f:86:c5:a1:bc:78:
         d6:69:16:42:f9:64:c5:4f:a1:be:53:5f:26:c3:45:04:40:a0:
         af:80:74:14:96:d6:2a:19:8b:e7:7b:b5:34:2d:fd:38:ee:1c:
         10:e5:08:74:20:14:0e:85:a1:d5:bd:38:3b:ee:cf:eb:42:f6:
         d3:e8:b6:2d:6f:a7:a2:fb:9e:8e:ff:b0:a8:72:e3:e2:a1:33:
         e2:8b:6e:96:34:70:f4:4f:e4:78:d8:27:18:fb:f7:76:3d:be:
         a0:42:2a:46:e6:6d:16:9a:2b:13:ab:93:9c:f9:6c:c7:1a:24:
         0a:99:8c:ec:d5:48:18:02:5d:47:46:58:3d:ed:78:3e:98:ed:
         7f:32:de:7f:e1:10:01:39
-----BEGIN CERTIFICATE-----
MIIGrDCCBJSgAwIBAgICCdYwDQYJKoZIhvcNAQEEBQAwgawxCzAJBgNVBAYTAlVT
MQswCQYDVQQIEwJPSDERMA8GA1UEBxMIQ29sdW1idXMxEjAQBgNVBAoTCVZpa2lu
Z1ZQTjEdMBsGA1UECxMUTXlPcmdhbml6YXRpb25hbFVuaXQxFTATBgNVBAMTDFZp
a2luZ1ZQTiBDQTEQMA4GA1UEKRMHRWFzeVJTQTEhMB8GCSqGSIb3DQEJARYSbWVA
bXlob3N0Lm15ZG9tYWluMB4XDTE0MDgxMDEzNTkwMVoXDTI0MDgwNzEzNTkwMVow
HjEcMBoGA1UEAxMTQ2xpZW50ODc2Q2VydDU4OWEzYTCCAiIwDQYJKoZIhvcNAQEB
BQADggIPADCCAgoCggIBAMB3Sw+BKyQOt49D5VS6Dz44oLht7BqUObp0boSCpDUo
B4+qme7SRZvxLRkUdUrF+S/+HCSdUqgVtR07cjXsi1gFXQ0tYONS9SR6XISTzCDF
F+D/Oyg8MOeYr/MnVEatQuOW2n3LBMasj18VD7jgTjbf8xpu0jA4xNAXUTHK0Bt1
NhMXjnSBFMNUvHd8I0VW/KdD6mwU8GaEBduTxxkjXLTbA/J1hxe7JpHi3GcOd1IY
95zN8uuIzsS1QTN2Ogw/YYdy0Z9lHC/g9KhPUvXgwIQLPvZzNuR9ZnJTCBrokXCb
pcL2vwMekWVM/0vwAHDqZxu50ubniV2TArvkOwuGC6rmPgRm5TaveLCWlC+LcNeL
Y6Hu2LOa36GHm6a1Xqp+lJPZjO7uecWsLrGcpV2CcVjwRkFitnH6Cxh97N0DEIGN
jnEJoRew7ylW07VaT1q/ndcisxgPHDiN4Z+86/jwyp6uTvxXQBxd6rL9ScOri6cO
t5GiuvbyyELVhvp8VazJUEY07pl8YqvJ4UN8/O+NPPSFmP+V1uFKSGwRa+PcoYo6
F2G7Ns09JUemd4m0pftxKtObGeS/Bhowne+cvpaqPBUPbr6YIk6N9ukNfLU7007N
xRntGJu/rZWy6aknA2f6FGx4JCLXJM+KG8vF4wIYkEF8+pqX6hvkbBC5Ub0WfXWV
AgMBAAGjggFjMIIBXzAJBgNVHRMEAjAAMC0GCWCGSAGG+EIBDQQgFh5FYXN5LVJT
QSBHZW5lcmF0ZWQgQ2VydGlmaWNhdGUwHQYDVR0OBBYEFELvAbdh8L2walH2AeRk
pOzAGJMeMIHhBgNVHSMEgdkwgdaAFBLNYATSoICecO3Gmbh7LMZS/RmhoYGypIGv
MIGsMQswCQYDVQQGEwJVUzELMAkGA1UECBMCT0gxETAPBgNVBAcTCENvbHVtYnVz
MRIwEAYDVQQKEwlWaWtpbmdWUE4xHTAbBgNVBAsTFE15T3JnYW5pemF0aW9uYWxV
bml0MRUwEwYDVQQDEwxWaWtpbmdWUE4gQ0ExEDAOBgNVBCkTB0Vhc3lSU0ExITAf
BgkqhkiG9w0BCQEWEm1lQG15aG9zdC5teWRvbWFpboIJAM81he6Avyo+MBMGA1Ud
JQQMMAoGCCsGAQUFBwMCMAsGA1UdDwQEAwIHgDANBgkqhkiG9w0BAQQFAAOCAgEA
u1ernVu82rEWc2s8FVc/MColB9Biw/L/yf+B2Mbbbo10FncCbMUAh4SbTALriMko
6+Mq0+My+PnYqvW/KdEmo0xOeEQQwdT+NNrGCvC8mWcVgA0aKE9AhB5PCHZsTUS4
QsmgsqliJgtnICSJ9DqVe/Pwe9OrcWCmKWNTuup5fRI7RkPWoUTcME2s5YuV3Da2
VqyXWKvEn0r/uo0M1Rcax/IRj/LsFlPVRXZJioHI5EM3dU8eePEAaLYEhJpVtBOB
Ix94gLeFnRtc8HMDJUWxD5eaCsKmZLCtVkqLO7HCm75cQOHVmze39lcc/wMp3IYJ
IbE8oVd7CPTcXyHeFJ70DVQDVwAfU0NkdAL7+YiWs0otf6CObF6B758MFDL7KTVX
YhxwUxJXaYu0TDY+nuVE+hovP5vZ8bX7OLRt6+wb5nMjSj77jR0zuqNM4VWBwqpr
HE80MxBmWP8VYfI8AWS6w5LVbJ74Q/OBICwG472OdlfksXLEn4bFobx41mkWQvlk
xU+hvlNfJsNFBECgr4B0FJbWKhmL53u1NC39OO4cEOUIdCAUDoWh1b04O+7P60L2
0+i2LW+novuejv+wqHLj4qEz4otuljRw9E/keNgnGPv3dj2+oEIqRuZtFporE6uT
nPlsxxokCpmM7NVIGAJdR0ZYPe14PpjtfzLef+EQATk=
-----END CERTIFICATE-----
