Certificate:
    Data:
        Version: 3 (0x2)
        Serial Number: 2535 (0x9e7)
    Signature Algorithm: md5WithRSAEncryption
        Issuer: C=US, ST=OH, L=Columbus, O=VikingVPN, OU=MyOrganizationalUnit, CN=VikingVPN CA/name=EasyRSA/emailAddress=me@myhost.mydomain
        Validity
            Not Before: Aug 11 07:08:01 2014 GMT
            Not After : Aug  8 07:08:01 2024 GMT
        Subject: CN=Client3Certcd8171
        Subject Public Key Info:
            Public Key Algorithm: rsaEncryption
                Public-Key: (4096 bit)
                Modulus:
                    00:a1:b9:98:de:4c:0f:9f:3f:f6:34:75:4a:ba:8f:
                    e6:33:74:ef:ce:a8:b9:48:28:1f:a0:a2:5f:29:30:
                    7d:f4:7f:8e:38:31:a8:8e:50:76:d4:40:05:62:87:
                    62:41:76:2a:88:ea:2d:b9:f2:63:93:d6:91:e7:30:
                    6a:c5:a7:49:ad:48:90:48:25:33:48:2c:3e:28:da:
                    42:9e:49:a8:e4:ba:c6:61:1d:07:a6:0f:4c:62:d9:
                    d7:8d:29:72:03:1e:c6:a4:2d:85:f4:cd:97:55:2d:
                    3a:45:0f:7c:25:25:7d:fe:a4:42:35:ed:69:8b:da:
                    b4:07:e7:02:0f:98:8f:42:7b:ae:6c:8c:56:03:00:
                    d6:cf:87:ea:07:07:d7:4d:10:4c:ed:49:0c:97:8e:
                    57:ba:11:dd:09:a4:15:64:6e:c7:10:f4:0f:4d:f4:
                    1a:2f:f4:d5:1d:0b:eb:c2:0d:78:db:89:34:5e:1e:
                    ca:e0:5f:06:ce:ae:cf:16:d0:b3:b3:62:40:f7:77:
                    bb:a4:99:58:19:71:eb:a6:dc:77:78:6a:7a:15:30:
                    e3:21:ff:0a:8c:f5:85:47:35:9c:e8:b4:4f:01:94:
                    c2:c8:43:ef:58:7f:57:1c:51:ae:38:4b:64:3a:65:
                    f4:cc:40:9c:92:5f:20:2e:98:3d:5c:40:1e:92:a2:
                    e4:e0:a4:3e:fc:bc:1d:37:af:d5:10:f9:56:37:f2:
                    d9:50:ad:63:f7:bb:fe:b8:bb:e0:e7:f8:47:42:cd:
                    47:32:6d:ac:82:72:6c:14:3a:ca:ef:71:e8:c7:06:
                    3b:00:29:e2:51:0f:9f:05:5a:34:13:15:75:c9:75:
                    f1:9b:c0:a8:a3:71:30:22:5d:1d:7a:d5:47:96:6f:
                    1d:70:df:96:7e:c3:6c:b0:f9:82:85:fa:10:ea:e1:
                    05:c4:83:9f:ad:3e:18:bf:a6:f1:0d:7a:73:7e:3c:
                    89:90:11:aa:cd:9d:9a:cd:11:3a:e2:71:e8:eb:77:
                    b1:f8:e2:05:67:45:10:7b:4c:81:5d:c8:e5:65:ed:
                    d0:7a:b0:17:da:9e:7e:2f:66:5d:68:74:1c:26:00:
                    9c:d7:e8:82:e0:90:c3:69:56:1f:65:62:f7:b5:f5:
                    7f:95:11:a6:55:56:f5:06:3e:8a:69:48:d2:2f:bf:
                    a7:bf:e1:d2:f4:55:dc:1c:ff:2a:69:d3:5c:69:00:
                    ea:f7:96:fd:e2:87:d6:b6:bc:cc:d9:89:bd:bc:3b:
                    91:1f:df:09:6f:f8:4a:e1:c7:a1:74:87:a4:9a:04:
                    2f:86:09:57:e5:46:92:07:f3:6f:c4:e5:41:a9:0b:
                    6a:da:ca:b2:2f:ef:64:be:d2:8b:fc:ad:5d:17:ff:
                    7b:a7:5d
                Exponent: 65537 (0x10001)
        X509v3 extensions:
            X509v3 Basic Constraints: 
                CA:FALSE
            Netscape Comment: 
                Easy-RSA Generated Certificate
            X509v3 Subject Key Identifier: 
                B9:FE:7D:51:20:32:28:A5:56:DB:FC:3D:5F:BE:30:0E:AC:44:0A:7E
            X509v3 Authority Key Identifier: 
                keyid:12:CD:60:04:D2:A0:80:9E:70:ED:C6:99:B8:7B:2C:C6:52:FD:19:A1
                DirName:/C=US/ST=OH/L=Columbus/O=VikingVPN/OU=MyOrganizationalUnit/CN=VikingVPN CA/name=EasyRSA/emailAddress=me@myhost.mydomain
                serial:CF:35:85:EE:80:BF:2A:3E

            X509v3 Extended Key Usage: 
                TLS Web Client Authentication
            X509v3 Key Usage: 
                Digital Signature
    Signature Algorithm: md5WithRSAEncryption
         e5:5f:9b:c2:db:97:05:1a:65:de:00:25:72:ba:1c:27:3b:56:
         fc:c7:74:35:d3:93:3a:83:a5:e7:8d:a5:e0:f3:e9:1c:30:8d:
         dc:cb:fc:4b:e4:0e:61:18:2f:a0:24:ef:ce:03:5f:13:16:18:
         d2:8d:30:07:77:85:52:23:72:95:10:11:64:81:43:1b:06:5a:
         90:22:f5:d2:f7:aa:cd:9d:24:cc:03:8d:b3:1e:65:53:33:1e:
         7f:52:96:0c:4c:55:03:00:e1:94:ce:ea:0b:23:74:b3:fb:3c:
         dd:b6:f6:0a:18:76:57:86:14:40:7a:f7:c1:c9:36:18:63:ca:
         f8:c6:87:55:34:72:67:af:7e:10:99:19:10:41:d3:d0:f3:b4:
         4c:f1:86:3e:e2:b2:3c:67:01:ac:b1:10:45:ee:30:6e:ad:cf:
         98:90:55:ad:88:88:ce:b3:78:8c:06:f2:c9:1a:c2:32:6d:4d:
         78:e1:75:fe:03:79:c6:29:f4:92:f2:5a:91:8e:30:3b:c4:27:
         1e:c4:13:f0:e2:47:eb:bb:7e:3d:cc:db:fd:0b:5e:f0:2a:b7:
         34:26:ce:d2:5f:80:e5:3f:75:c8:66:cb:4a:9f:c5:71:64:83:
         c5:98:cc:6f:97:53:80:92:6d:59:92:52:6d:1b:18:2b:ae:b3:
         d8:66:12:b5:22:1e:b5:42:46:c0:d0:4e:47:2a:5b:48:55:be:
         dc:17:59:c7:5a:74:db:1b:5d:77:d3:9c:a5:42:ba:95:b1:16:
         ec:12:8c:d7:de:a0:10:91:4b:8b:a2:9a:05:e6:e0:08:6c:cc:
         83:72:c5:69:d9:d5:18:df:73:1c:65:c3:46:9f:b4:6d:05:95:
         66:be:e8:9d:ec:79:a2:67:fa:4b:07:3d:81:2e:8c:6a:07:94:
         09:b7:f7:8c:5e:f2:78:1a:9a:8e:90:e5:3d:15:dc:21:a0:66:
         74:53:31:35:97:d8:0d:21:22:d4:53:ec:22:2a:dd:5b:3c:38:
         74:2a:8e:7d:20:ab:4b:6e:41:d4:f9:a5:20:c5:e9:2e:87:93:
         fa:1c:69:de:13:fe:75:ac:31:14:05:09:1e:25:b3:cb:ce:f7:
         81:81:2a:6f:b1:3d:03:2b:46:bb:78:e7:e8:1c:9b:d6:20:ea:
         46:06:cb:b0:69:c2:ef:06:b1:69:0e:25:0d:19:b1:52:f8:f0:
         7f:f0:26:63:7b:23:f7:d7:08:9d:35:6f:8d:f9:61:0a:6d:8d:
         2f:11:1a:c6:05:44:6b:3a:97:9f:d5:d3:08:f1:93:22:49:59:
         af:fb:2f:b3:8a:34:19:fd:7b:cd:d0:a9:8b:8c:d5:5e:8c:cd:
         93:8f:94:9f:de:b8:92:7c
-----BEGIN CERTIFICATE-----
MIIGqjCCBJKgAwIBAgICCecwDQYJKoZIhvcNAQEEBQAwgawxCzAJBgNVBAYTAlVT
MQswCQYDVQQIEwJPSDERMA8GA1UEBxMIQ29sdW1idXMxEjAQBgNVBAoTCVZpa2lu
Z1ZQTjEdMBsGA1UECxMUTXlPcmdhbml6YXRpb25hbFVuaXQxFTATBgNVBAMTDFZp
a2luZ1ZQTiBDQTEQMA4GA1UEKRMHRWFzeVJTQTEhMB8GCSqGSIb3DQEJARYSbWVA
bXlob3N0Lm15ZG9tYWluMB4XDTE0MDgxMTA3MDgwMVoXDTI0MDgwODA3MDgwMVow
HDEaMBgGA1UEAxMRQ2xpZW50M0NlcnRjZDgxNzEwggIiMA0GCSqGSIb3DQEBAQUA
A4ICDwAwggIKAoICAQChuZjeTA+fP/Y0dUq6j+YzdO/OqLlIKB+gol8pMH30f444
MaiOUHbUQAVih2JBdiqI6i258mOT1pHnMGrFp0mtSJBIJTNILD4o2kKeSajkusZh
HQemD0xi2deNKXIDHsakLYX0zZdVLTpFD3wlJX3+pEI17WmL2rQH5wIPmI9Ce65s
jFYDANbPh+oHB9dNEEztSQyXjle6Ed0JpBVkbscQ9A9N9Bov9NUdC+vCDXjbiTRe
HsrgXwbOrs8W0LOzYkD3d7ukmVgZceum3Hd4anoVMOMh/wqM9YVHNZzotE8BlMLI
Q+9Yf1ccUa44S2Q6ZfTMQJySXyAumD1cQB6SouTgpD78vB03r9UQ+VY38tlQrWP3
u/64u+Dn+EdCzUcybayCcmwUOsrvcejHBjsAKeJRD58FWjQTFXXJdfGbwKijcTAi
XR161UeWbx1w35Z+w2yw+YKF+hDq4QXEg5+tPhi/pvENenN+PImQEarNnZrNETri
cejrd7H44gVnRRB7TIFdyOVl7dB6sBfann4vZl1odBwmAJzX6ILgkMNpVh9lYve1
9X+VEaZVVvUGPoppSNIvv6e/4dL0Vdwc/ypp01xpAOr3lv3ih9a2vMzZib28O5Ef
3wlv+Erhx6F0h6SaBC+GCVflRpIH82/E5UGpC2rayrIv72S+0ov8rV0X/3unXQID
AQABo4IBYzCCAV8wCQYDVR0TBAIwADAtBglghkgBhvhCAQ0EIBYeRWFzeS1SU0Eg
R2VuZXJhdGVkIENlcnRpZmljYXRlMB0GA1UdDgQWBBS5/n1RIDIopVbb/D1fvjAO
rEQKfjCB4QYDVR0jBIHZMIHWgBQSzWAE0qCAnnDtxpm4eyzGUv0ZoaGBsqSBrzCB
rDELMAkGA1UEBhMCVVMxCzAJBgNVBAgTAk9IMREwDwYDVQQHEwhDb2x1bWJ1czES
MBAGA1UEChMJVmlraW5nVlBOMR0wGwYDVQQLExRNeU9yZ2FuaXphdGlvbmFsVW5p
dDEVMBMGA1UEAxMMVmlraW5nVlBOIENBMRAwDgYDVQQpEwdFYXN5UlNBMSEwHwYJ
KoZIhvcNAQkBFhJtZUBteWhvc3QubXlkb21haW6CCQDPNYXugL8qPjATBgNVHSUE
DDAKBggrBgEFBQcDAjALBgNVHQ8EBAMCB4AwDQYJKoZIhvcNAQEEBQADggIBAOVf
m8LblwUaZd4AJXK6HCc7VvzHdDXTkzqDpeeNpeDz6RwwjdzL/EvkDmEYL6Ak784D
XxMWGNKNMAd3hVIjcpUQEWSBQxsGWpAi9dL3qs2dJMwDjbMeZVMzHn9SlgxMVQMA
4ZTO6gsjdLP7PN229goYdleGFEB698HJNhhjyvjGh1U0cmevfhCZGRBB09DztEzx
hj7isjxnAayxEEXuMG6tz5iQVa2IiM6zeIwG8skawjJtTXjhdf4DecYp9JLyWpGO
MDvEJx7EE/DiR+u7fj3M2/0LXvAqtzQmztJfgOU/dchmy0qfxXFkg8WYzG+XU4CS
bVmSUm0bGCuus9hmErUiHrVCRsDQTkcqW0hVvtwXWcdadNsbXXfTnKVCupWxFuwS
jNfeoBCRS4uimgXm4AhszINyxWnZ1Rjfcxxlw0aftG0FlWa+6J3seaJn+ksHPYEu
jGoHlAm394xe8ngamo6Q5T0V3CGgZnRTMTWX2A0hItRT7CIq3Vs8OHQqjn0gq0tu
QdT5pSDF6S6Hk/ocad4T/nWsMRQFCR4ls8vO94GBKm+xPQMrRrt45+gcm9Yg6kYG
y7Bpwu8GsWkOJQ0ZsVL48H/wJmN7I/fXCJ01b435YQptjS8RGsYFRGs6l5/V0wjx
kyJJWa/7L7OKNBn9e83QqYuM1V6MzZOPlJ/euJJ8
-----END CERTIFICATE-----
