Certificate:
    Data:
        Version: 3 (0x2)
        Serial Number: 2536 (0x9e8)
    Signature Algorithm: md5WithRSAEncryption
        Issuer: C=US, ST=OH, L=Columbus, O=VikingVPN, OU=MyOrganizationalUnit, CN=VikingVPN CA/name=EasyRSA/emailAddress=me@myhost.mydomain
        Validity
            Not Before: Aug 11 13:12:25 2014 GMT
            Not After : Aug  8 13:12:25 2024 GMT
        Subject: CN=Client407Cert9f463a
        Subject Public Key Info:
            Public Key Algorithm: rsaEncryption
                Public-Key: (4096 bit)
                Modulus:
                    00:f4:50:44:dc:8b:85:6d:20:ce:5a:cf:7e:27:aa:
                    47:3a:c6:1a:6c:32:4f:9a:2f:12:df:60:76:85:37:
                    49:35:80:55:55:ad:3b:59:7f:b3:74:d3:29:72:60:
                    5d:47:a6:36:99:20:69:49:66:a2:e3:89:ed:ca:0d:
                    a5:68:0f:bb:dc:c5:b6:58:65:ec:f2:df:9d:25:71:
                    24:87:e1:5f:e8:57:ac:df:95:4d:81:9e:71:bd:34:
                    28:c0:b6:b5:00:9b:57:35:b5:fb:a9:63:dd:12:5e:
                    6d:ba:cb:7e:a4:17:ac:12:f9:5d:3b:59:20:1f:2c:
                    85:06:87:2e:27:24:79:fa:9f:9a:07:0d:cf:ad:15:
                    aa:b6:67:47:09:20:62:90:f9:18:06:5c:81:75:3e:
                    b9:4a:3b:82:15:12:24:e4:cf:b4:93:25:88:74:3f:
                    f6:21:02:1f:54:f1:c1:4e:48:63:c9:33:4f:cf:c2:
                    bf:57:3b:3e:8b:c6:48:e3:b3:fd:ed:ab:27:0c:54:
                    6a:44:0d:c0:13:9e:e0:9a:84:85:af:59:2c:ff:49:
                    ab:a0:19:6d:ec:90:fe:cb:52:32:92:92:4e:73:f3:
                    06:43:6f:19:39:7d:f7:07:ed:70:41:8a:b9:ec:85:
                    28:41:8f:bf:b3:8a:e5:65:68:a5:4e:b2:a8:8b:f4:
                    81:a2:8e:a2:07:22:01:46:f7:7b:5f:e7:32:4c:ba:
                    b3:75:db:9d:58:39:70:ea:45:a2:a9:d7:4c:cd:43:
                    de:04:fd:fd:d3:e2:95:e7:bc:c1:1a:09:d1:77:16:
                    ab:a2:1e:3b:5f:ff:8a:21:75:b7:fa:46:1c:88:f5:
                    b9:a6:78:a5:da:68:d1:12:70:ed:c2:13:09:fb:99:
                    01:79:9c:af:22:9a:35:9d:a6:2a:45:3e:58:af:7e:
                    c0:39:27:19:09:4c:22:f9:57:02:6e:ed:de:f0:a9:
                    3a:af:6a:33:c7:40:c3:48:c8:f0:83:34:7e:7a:74:
                    0c:3d:ca:86:2f:ae:23:12:da:b2:17:d6:fb:61:0c:
                    7f:1f:ed:5e:99:83:bd:fa:46:39:c6:0f:95:cc:b3:
                    5b:a2:a4:95:d6:a4:0b:c7:0c:12:7b:2b:a8:f6:e2:
                    f9:6f:02:e1:95:8b:4f:74:58:8e:69:88:22:39:30:
                    60:fc:cf:3a:10:ad:44:45:90:d4:3d:23:91:bb:2e:
                    46:5b:c1:43:fe:cc:05:c0:18:21:ff:b8:04:dd:c4:
                    8d:0d:2b:6f:82:b9:7e:4c:18:d7:c6:36:1d:2e:b8:
                    c6:e7:32:d0:e2:67:81:7d:1a:b5:6a:d4:4d:19:b6:
                    af:65:64:a9:7e:11:f3:16:4b:34:2a:01:ea:7e:a7:
                    d7:4c:bf
                Exponent: 65537 (0x10001)
        X509v3 extensions:
            X509v3 Basic Constraints: 
                CA:FALSE
            Netscape Comment: 
                Easy-RSA Generated Certificate
            X509v3 Subject Key Identifier: 
                36:F5:FA:1C:C1:3B:31:EF:28:F4:84:D8:BD:C3:5B:7C:9F:20:E5:14
            X509v3 Authority Key Identifier: 
                keyid:12:CD:60:04:D2:A0:80:9E:70:ED:C6:99:B8:7B:2C:C6:52:FD:19:A1
                DirName:/C=US/ST=OH/L=Columbus/O=VikingVPN/OU=MyOrganizationalUnit/CN=VikingVPN CA/name=EasyRSA/emailAddress=me@myhost.mydomain
                serial:CF:35:85:EE:80:BF:2A:3E

            X509v3 Extended Key Usage: 
                TLS Web Client Authentication
            X509v3 Key Usage: 
                Digital Signature
    Signature Algorithm: md5WithRSAEncryption
         4e:39:02:69:81:8c:c6:58:a3:67:81:db:b1:20:08:00:4f:5d:
         26:a1:a9:50:e4:4f:b2:4a:56:ad:51:62:af:28:9b:a4:bc:06:
         c9:b5:d0:1b:9a:4d:96:2a:f4:1e:13:9a:da:bc:b0:39:d1:32:
         62:9d:35:19:d0:88:8b:be:0b:37:c4:12:ee:d7:6f:a3:e4:8e:
         f5:a7:0d:37:7e:e2:dd:9e:34:cc:06:85:16:c7:13:f2:d8:13:
         14:af:e0:0d:63:57:9f:a8:a4:95:4d:52:85:b5:51:a1:f6:dc:
         e5:0d:94:72:26:09:36:51:65:5a:02:81:45:4e:66:44:34:f5:
         e6:dc:ac:ec:60:af:21:2b:c5:cf:25:f5:c4:c0:73:d3:ce:bc:
         ec:0e:49:f5:84:c9:62:df:26:0c:8b:1f:10:3a:a9:07:f0:0a:
         1f:cb:53:04:d3:39:09:9f:be:e2:e2:5e:d5:2d:e0:ef:10:3c:
         03:10:e2:f5:10:ef:cb:71:81:87:89:51:64:bc:80:2a:5b:05:
         18:1b:d9:07:45:43:b7:a4:22:c1:26:14:3b:8c:b6:75:ec:7d:
         ca:81:46:70:d2:58:76:8a:eb:d1:d5:2c:24:29:64:e0:17:ec:
         34:d4:da:9b:72:84:17:44:f2:e6:8e:d9:c6:a2:a5:63:0b:7f:
         94:74:18:ca:2e:58:4e:68:d8:3e:d5:eb:34:ac:7a:1a:98:93:
         08:d2:52:90:07:4c:52:29:20:44:6f:12:9d:60:c9:14:0c:6f:
         f7:71:3b:b7:55:d5:99:e4:d4:ec:b5:1e:e2:ce:5d:4d:c8:92:
         ad:dd:6e:d6:63:1b:37:e8:93:00:84:f6:fe:bc:3f:25:0c:d6:
         03:a6:7b:93:8c:36:29:4a:d3:98:f6:a8:b8:13:67:3d:5a:d7:
         13:fd:1c:c4:5e:4e:f1:25:93:d5:cf:be:38:21:ab:d8:7d:e2:
         0b:b6:5e:6c:e7:b2:fc:04:84:13:03:b3:56:19:3a:a0:75:92:
         22:1b:ec:f6:81:83:4f:a4:6e:c1:03:c1:35:c7:c5:c9:c7:f3:
         c9:e8:a0:9e:d8:9c:32:ed:5c:5f:0f:fb:b5:92:f7:f6:4f:6b:
         6d:2d:54:d1:b1:7a:2b:1b:62:b8:92:8a:14:b7:78:32:25:3e:
         e5:31:cc:9c:89:27:7b:79:e4:37:08:be:54:ec:40:c4:e4:7b:
         7f:23:87:5c:d2:c2:42:44:1a:4d:18:b9:7d:3c:52:fa:3a:ff:
         9d:10:52:5b:30:da:c7:47:72:0d:74:0f:7d:32:7d:b3:bd:68:
         6f:69:a4:82:4e:2a:33:07:36:78:c5:02:9e:b2:84:6d:0a:0f:
         90:80:53:d5:b0:23:30:cb
-----BEGIN CERTIFICATE-----
MIIGrDCCBJSgAwIBAgICCegwDQYJKoZIhvcNAQEEBQAwgawxCzAJBgNVBAYTAlVT
MQswCQYDVQQIEwJPSDERMA8GA1UEBxMIQ29sdW1idXMxEjAQBgNVBAoTCVZpa2lu
Z1ZQTjEdMBsGA1UECxMUTXlPcmdhbml6YXRpb25hbFVuaXQxFTATBgNVBAMTDFZp
a2luZ1ZQTiBDQTEQMA4GA1UEKRMHRWFzeVJTQTEhMB8GCSqGSIb3DQEJARYSbWVA
bXlob3N0Lm15ZG9tYWluMB4XDTE0MDgxMTEzMTIyNVoXDTI0MDgwODEzMTIyNVow
HjEcMBoGA1UEAxMTQ2xpZW50NDA3Q2VydDlmNDYzYTCCAiIwDQYJKoZIhvcNAQEB
BQADggIPADCCAgoCggIBAPRQRNyLhW0gzlrPfieqRzrGGmwyT5ovEt9gdoU3STWA
VVWtO1l/s3TTKXJgXUemNpkgaUlmouOJ7coNpWgPu9zFtlhl7PLfnSVxJIfhX+hX
rN+VTYGecb00KMC2tQCbVzW1+6lj3RJebbrLfqQXrBL5XTtZIB8shQaHLickefqf
mgcNz60VqrZnRwkgYpD5GAZcgXU+uUo7ghUSJOTPtJMliHQ/9iECH1TxwU5IY8kz
T8/Cv1c7PovGSOOz/e2rJwxUakQNwBOe4JqEha9ZLP9Jq6AZbeyQ/stSMpKSTnPz
BkNvGTl99wftcEGKueyFKEGPv7OK5WVopU6yqIv0gaKOogciAUb3e1/nMky6s3Xb
nVg5cOpFoqnXTM1D3gT9/dPilee8wRoJ0XcWq6IeO1//iiF1t/pGHIj1uaZ4pdpo
0RJw7cITCfuZAXmcryKaNZ2mKkU+WK9+wDknGQlMIvlXAm7t3vCpOq9qM8dAw0jI
8IM0fnp0DD3Khi+uIxLashfW+2EMfx/tXpmDvfpGOcYPlcyzW6KkldakC8cMEnsr
qPbi+W8C4ZWLT3RYjmmIIjkwYPzPOhCtREWQ1D0jkbsuRlvBQ/7MBcAYIf+4BN3E
jQ0rb4K5fkwY18Y2HS64xucy0OJngX0atWrUTRm2r2VkqX4R8xZLNCoB6n6n10y/
AgMBAAGjggFjMIIBXzAJBgNVHRMEAjAAMC0GCWCGSAGG+EIBDQQgFh5FYXN5LVJT
QSBHZW5lcmF0ZWQgQ2VydGlmaWNhdGUwHQYDVR0OBBYEFDb1+hzBOzHvKPSE2L3D
W3yfIOUUMIHhBgNVHSMEgdkwgdaAFBLNYATSoICecO3Gmbh7LMZS/RmhoYGypIGv
MIGsMQswCQYDVQQGEwJVUzELMAkGA1UECBMCT0gxETAPBgNVBAcTCENvbHVtYnVz
MRIwEAYDVQQKEwlWaWtpbmdWUE4xHTAbBgNVBAsTFE15T3JnYW5pemF0aW9uYWxV
bml0MRUwEwYDVQQDEwxWaWtpbmdWUE4gQ0ExEDAOBgNVBCkTB0Vhc3lSU0ExITAf
BgkqhkiG9w0BCQEWEm1lQG15aG9zdC5teWRvbWFpboIJAM81he6Avyo+MBMGA1Ud
JQQMMAoGCCsGAQUFBwMCMAsGA1UdDwQEAwIHgDANBgkqhkiG9w0BAQQFAAOCAgEA
TjkCaYGMxlijZ4HbsSAIAE9dJqGpUORPskpWrVFiryibpLwGybXQG5pNlir0HhOa
2rywOdEyYp01GdCIi74LN8QS7tdvo+SO9acNN37i3Z40zAaFFscT8tgTFK/gDWNX
n6iklU1ShbVRofbc5Q2UciYJNlFlWgKBRU5mRDT15tys7GCvISvFzyX1xMBz0868
7A5J9YTJYt8mDIsfEDqpB/AKH8tTBNM5CZ++4uJe1S3g7xA8AxDi9RDvy3GBh4lR
ZLyAKlsFGBvZB0VDt6QiwSYUO4y2dex9yoFGcNJYdorr0dUsJClk4BfsNNTam3KE
F0Ty5o7ZxqKlYwt/lHQYyi5YTmjYPtXrNKx6GpiTCNJSkAdMUikgRG8SnWDJFAxv
93E7t1XVmeTU7LUe4s5dTciSrd1u1mMbN+iTAIT2/rw/JQzWA6Z7k4w2KUrTmPao
uBNnPVrXE/0cxF5O8SWT1c++OCGr2H3iC7ZebOey/ASEEwOzVhk6oHWSIhvs9oGD
T6RuwQPBNcfFycfzyeignticMu1cXw/7tZL39k9rbS1U0bF6KxtiuJKKFLd4MiU+
5THMnIkne3nkNwi+VOxAxOR7fyOHXNLCQkQaTRi5fTxS+jr/nRBSWzDax0dyDXQP
fTJ9s71ob2mkgk4qMwc2eMUCnrKEbQoPkIBT1bAjMMs=
-----END CERTIFICATE-----
