Certificate:
    Data:
        Version: 3 (0x2)
        Serial Number: 2539 (0x9eb)
    Signature Algorithm: md5WithRSAEncryption
        Issuer: C=US, ST=OH, L=Columbus, O=VikingVPN, OU=MyOrganizationalUnit, CN=VikingVPN CA/name=EasyRSA/emailAddress=me@myhost.mydomain
        Validity
            Not Before: Aug 11 15:19:00 2014 GMT
            Not After : Aug  8 15:19:00 2024 GMT
        Subject: CN=Client614Certcbe222
        Subject Public Key Info:
            Public Key Algorithm: rsaEncryption
                Public-Key: (4096 bit)
                Modulus:
                    00:b8:17:78:18:db:46:01:89:01:04:94:01:8e:b0:
                    db:69:23:9e:14:b6:eb:ad:ad:6c:8f:8d:71:73:bc:
                    af:81:05:cb:91:9e:00:f4:87:e7:97:34:38:fc:02:
                    e0:a3:af:95:72:25:41:ed:52:31:e5:1b:7c:44:34:
                    e0:fd:95:72:97:18:c0:5c:21:9c:b7:73:16:07:cc:
                    c0:67:58:28:23:62:1a:1e:17:ad:e5:b1:9c:f7:44:
                    d1:ff:50:5c:48:5a:9b:6b:71:80:83:6a:4a:c7:4f:
                    c8:d8:be:a9:4a:fc:64:26:d2:41:cc:67:24:82:8e:
                    69:42:91:c8:1a:06:69:b6:fd:c8:70:ec:7f:cd:00:
                    01:11:1b:64:6a:a9:a1:62:74:ba:63:8e:60:2c:55:
                    ec:5f:8d:a3:95:41:0b:e7:01:d9:0d:db:8b:ef:78:
                    e2:d8:b6:36:5b:9c:8c:2d:9e:b5:1e:d1:60:8e:a2:
                    32:39:bb:bc:1d:56:75:45:e3:f4:b5:c9:ec:81:ba:
                    3d:a7:b5:1d:9f:ad:18:cf:14:6c:8f:8d:a6:d1:52:
                    84:06:fa:51:0c:78:65:18:7e:2c:61:67:71:3a:fb:
                    47:87:e9:41:46:51:45:5f:50:55:93:dc:f5:de:f5:
                    b9:11:ae:49:dd:e5:63:fd:f3:aa:54:1e:75:23:49:
                    9f:ad:01:77:b3:63:8f:3a:02:f9:82:72:96:6f:34:
                    3a:b5:14:6a:0a:dc:b4:8b:57:16:bd:d5:64:96:10:
                    f1:d7:5f:4b:d2:8d:fe:10:b6:7f:c7:40:a1:17:b0:
                    f9:4e:d7:6f:87:aa:78:19:e1:57:95:b9:fe:ca:93:
                    f8:28:8c:5f:0a:41:b0:cc:ba:17:ae:47:b7:93:77:
                    5f:ae:63:ef:ce:6c:bb:73:94:a3:85:3b:66:19:16:
                    fc:8b:ad:60:a0:59:7b:cf:0f:d3:7d:26:22:70:4f:
                    d4:b9:cf:c7:d5:53:9b:9e:cf:fa:0b:0a:4c:c8:e1:
                    10:b8:ee:bf:7a:91:69:bd:18:c6:e4:a5:2e:88:19:
                    13:63:42:6b:be:ae:91:86:d4:ae:ab:e0:2b:bb:c2:
                    2d:91:eb:8a:8a:2a:ea:d0:bc:9b:2c:22:67:c6:d7:
                    dd:25:5d:11:7e:21:3e:e4:75:98:ac:8c:28:d5:78:
                    86:c3:31:07:c7:04:ef:1d:52:a6:0e:bf:ee:52:f6:
                    e3:34:4b:61:fe:23:d8:28:8e:7f:30:b6:41:67:4d:
                    02:71:4a:1b:21:b5:9a:01:f5:3b:c7:04:99:0d:b5:
                    b0:31:9d:b7:c4:56:93:98:8c:23:f5:01:b9:28:9b:
                    ab:5f:8f:56:7e:60:6b:3c:17:8e:c7:c7:b2:1b:67:
                    92:e6:cd
                Exponent: 65537 (0x10001)
        X509v3 extensions:
            X509v3 Basic Constraints: 
                CA:FALSE
            Netscape Comment: 
                Easy-RSA Generated Certificate
            X509v3 Subject Key Identifier: 
                B2:32:5D:49:D7:80:34:35:A8:3A:A7:C3:7A:A2:5E:5F:5B:90:AE:DB
            X509v3 Authority Key Identifier: 
                keyid:12:CD:60:04:D2:A0:80:9E:70:ED:C6:99:B8:7B:2C:C6:52:FD:19:A1
                DirName:/C=US/ST=OH/L=Columbus/O=VikingVPN/OU=MyOrganizationalUnit/CN=VikingVPN CA/name=EasyRSA/emailAddress=me@myhost.mydomain
                serial:CF:35:85:EE:80:BF:2A:3E

            X509v3 Extended Key Usage: 
                TLS Web Client Authentication
            X509v3 Key Usage: 
                Digital Signature
    Signature Algorithm: md5WithRSAEncryption
         21:4d:61:e3:90:0e:96:7b:75:32:f5:05:7a:5a:39:dd:31:96:
         25:fb:8c:52:6a:f1:69:7d:e9:96:c7:b7:3c:76:90:b2:b2:b5:
         be:7d:df:65:68:60:6f:c4:19:91:44:36:e3:94:0d:fa:5b:51:
         37:90:b5:4d:87:22:00:0f:07:4a:59:37:e0:63:6c:6c:b1:6b:
         17:cf:73:42:af:7c:cd:90:da:c4:e4:dd:83:83:09:73:65:d1:
         7b:81:f9:e0:49:65:e1:21:05:11:9c:53:c0:84:21:b6:56:3d:
         15:44:d8:19:c4:02:86:0e:43:1f:bc:9a:f5:d9:80:46:9c:c2:
         d7:91:02:bb:36:36:0b:93:e4:6f:14:ff:57:02:c4:eb:31:c5:
         51:a0:ae:05:6a:bf:9a:52:76:24:48:00:0a:38:f8:78:f7:26:
         3e:82:50:08:ee:88:a4:c0:0c:d6:12:89:fa:92:84:99:0b:00:
         fb:26:96:31:37:94:5a:8c:a4:a9:38:b2:5d:59:0b:78:f9:37:
         b6:1d:68:8f:2c:49:83:e9:37:22:6e:35:c9:5a:53:b0:d1:2c:
         ab:7e:ff:c3:c7:50:26:ee:29:45:03:f7:fb:e1:27:64:fb:2f:
         bb:c6:8e:89:42:2b:2f:50:4d:cd:66:94:2e:e9:a8:56:7c:36:
         36:58:23:fe:9f:7b:46:46:68:0b:2d:a5:b5:33:e4:56:9f:04:
         ac:cb:ac:16:fe:0f:23:c7:5b:87:c3:11:f9:b3:3d:2d:dc:d9:
         7c:ec:ab:ca:4c:d3:f1:6d:85:22:1c:55:ff:9d:45:8a:3e:4e:
         9d:2b:c8:87:70:f6:d3:bb:2d:c5:3a:14:43:3f:e0:e6:af:df:
         ee:f0:08:74:19:4b:57:35:e3:9a:80:f0:ec:34:99:d8:4a:16:
         88:fe:cb:5f:c8:d5:c0:e6:61:d5:31:dd:16:4f:95:b7:f9:bf:
         05:5e:9b:d5:03:98:3c:a6:2a:c6:c9:29:94:f3:88:09:ab:ad:
         d3:5d:fa:e2:85:09:c0:28:a8:f0:e5:f7:61:67:12:da:6d:97:
         2b:53:d2:b5:61:bd:16:92:b0:4e:c8:59:f2:2f:ee:53:73:2e:
         c6:d5:18:c1:7b:cc:86:d6:68:61:0e:24:44:32:ab:a1:7c:c3:
         b9:b9:ff:33:03:d6:00:b4:0b:df:c8:e4:e7:04:76:8d:11:11:
         cd:84:0d:c0:03:f3:aa:9c:35:3a:51:aa:4d:66:d8:95:68:4c:
         d9:59:c9:a2:bb:46:14:5d:d3:f3:c5:d4:a3:6d:69:bc:08:f9:
         68:fc:e3:c0:9e:f1:40:b3:b7:41:64:00:7b:51:42:7e:c9:a3:
         f5:a5:2e:fb:09:1b:37:4b
-----BEGIN CERTIFICATE-----
MIIGrDCCBJSgAwIBAgICCeswDQYJKoZIhvcNAQEEBQAwgawxCzAJBgNVBAYTAlVT
MQswCQYDVQQIEwJPSDERMA8GA1UEBxMIQ29sdW1idXMxEjAQBgNVBAoTCVZpa2lu
Z1ZQTjEdMBsGA1UECxMUTXlPcmdhbml6YXRpb25hbFVuaXQxFTATBgNVBAMTDFZp
a2luZ1ZQTiBDQTEQMA4GA1UEKRMHRWFzeVJTQTEhMB8GCSqGSIb3DQEJARYSbWVA
bXlob3N0Lm15ZG9tYWluMB4XDTE0MDgxMTE1MTkwMFoXDTI0MDgwODE1MTkwMFow
HjEcMBoGA1UEAxMTQ2xpZW50NjE0Q2VydGNiZTIyMjCCAiIwDQYJKoZIhvcNAQEB
BQADggIPADCCAgoCggIBALgXeBjbRgGJAQSUAY6w22kjnhS2662tbI+NcXO8r4EF
y5GeAPSH55c0OPwC4KOvlXIlQe1SMeUbfEQ04P2VcpcYwFwhnLdzFgfMwGdYKCNi
Gh4XreWxnPdE0f9QXEham2txgINqSsdPyNi+qUr8ZCbSQcxnJIKOaUKRyBoGabb9
yHDsf80AAREbZGqpoWJ0umOOYCxV7F+No5VBC+cB2Q3bi+944ti2NlucjC2etR7R
YI6iMjm7vB1WdUXj9LXJ7IG6Pae1HZ+tGM8UbI+NptFShAb6UQx4ZRh+LGFncTr7
R4fpQUZRRV9QVZPc9d71uRGuSd3lY/3zqlQedSNJn60Bd7NjjzoC+YJylm80OrUU
agrctItXFr3VZJYQ8ddfS9KN/hC2f8dAoRew+U7Xb4eqeBnhV5W5/sqT+CiMXwpB
sMy6F65Ht5N3X65j785su3OUo4U7ZhkW/IutYKBZe88P030mInBP1LnPx9VTm57P
+gsKTMjhELjuv3qRab0YxuSlLogZE2NCa76ukYbUrqvgK7vCLZHriooq6tC8mywi
Z8bX3SVdEX4hPuR1mKyMKNV4hsMxB8cE7x1Spg6/7lL24zRLYf4j2CiOfzC2QWdN
AnFKGyG1mgH1O8cEmQ21sDGdt8RWk5iMI/UBuSibq1+PVn5gazwXjsfHshtnkubN
AgMBAAGjggFjMIIBXzAJBgNVHRMEAjAAMC0GCWCGSAGG+EIBDQQgFh5FYXN5LVJT
QSBHZW5lcmF0ZWQgQ2VydGlmaWNhdGUwHQYDVR0OBBYEFLIyXUnXgDQ1qDqnw3qi
Xl9bkK7bMIHhBgNVHSMEgdkwgdaAFBLNYATSoICecO3Gmbh7LMZS/RmhoYGypIGv
MIGsMQswCQYDVQQGEwJVUzELMAkGA1UECBMCT0gxETAPBgNVBAcTCENvbHVtYnVz
MRIwEAYDVQQKEwlWaWtpbmdWUE4xHTAbBgNVBAsTFE15T3JnYW5pemF0aW9uYWxV
bml0MRUwEwYDVQQDEwxWaWtpbmdWUE4gQ0ExEDAOBgNVBCkTB0Vhc3lSU0ExITAf
BgkqhkiG9w0BCQEWEm1lQG15aG9zdC5teWRvbWFpboIJAM81he6Avyo+MBMGA1Ud
JQQMMAoGCCsGAQUFBwMCMAsGA1UdDwQEAwIHgDANBgkqhkiG9w0BAQQFAAOCAgEA
IU1h45AOlnt1MvUFelo53TGWJfuMUmrxaX3plse3PHaQsrK1vn3fZWhgb8QZkUQ2
45QN+ltRN5C1TYciAA8HSlk34GNsbLFrF89zQq98zZDaxOTdg4MJc2XRe4H54Ell
4SEFEZxTwIQhtlY9FUTYGcQChg5DH7ya9dmARpzC15ECuzY2C5PkbxT/VwLE6zHF
UaCuBWq/mlJ2JEgACjj4ePcmPoJQCO6IpMAM1hKJ+pKEmQsA+yaWMTeUWoykqTiy
XVkLePk3th1ojyxJg+k3Im41yVpTsNEsq37/w8dQJu4pRQP3++EnZPsvu8aOiUIr
L1BNzWaULumoVnw2Nlgj/p97RkZoCy2ltTPkVp8ErMusFv4PI8dbh8MR+bM9LdzZ
fOyrykzT8W2FIhxV/51Fij5OnSvIh3D207stxToUQz/g5q/f7vAIdBlLVzXjmoDw
7DSZ2EoWiP7LX8jVwOZh1THdFk+Vt/m/BV6b1QOYPKYqxskplPOICaut01364oUJ
wCio8OX3YWcS2m2XK1PStWG9FpKwTshZ8i/uU3MuxtUYwXvMhtZoYQ4kRDKroXzD
ubn/MwPWALQL38jk5wR2jRERzYQNwAPzqpw1OlGqTWbYlWhM2VnJortGFF3T88XU
o21pvAj5aPzjwJ7xQLO3QWQAe1FCfsmj9aUu+wkbN0s=
-----END CERTIFICATE-----
