Certificate:
    Data:
        Version: 3 (0x2)
        Serial Number: 2557 (0x9fd)
    Signature Algorithm: md5WithRSAEncryption
        Issuer: C=US, ST=OH, L=Columbus, O=VikingVPN, OU=MyOrganizationalUnit, CN=VikingVPN CA/name=EasyRSA/emailAddress=me@myhost.mydomain
        Validity
            Not Before: Aug 13 00:24:16 2014 GMT
            Not After : Aug 10 00:24:16 2024 GMT
        Subject: CN=Client870Certda1d21
        Subject Public Key Info:
            Public Key Algorithm: rsaEncryption
                Public-Key: (4096 bit)
                Modulus:
                    00:c8:a2:84:21:2a:d8:61:67:7f:2e:52:2b:71:f3:
                    ec:6a:56:ab:4c:2b:de:3c:22:b8:54:79:a4:21:e2:
                    7b:5c:3c:97:01:72:c7:ef:e3:15:c8:db:71:33:1f:
                    b1:dd:5b:20:44:b0:07:4e:34:43:d1:69:40:f1:da:
                    89:72:f8:8f:90:cb:2b:fe:d9:ec:4c:16:e2:95:77:
                    02:8e:fe:76:99:1c:02:8b:2f:2d:9b:dd:c0:8f:e1:
                    4b:06:44:3e:ac:5c:9d:e7:ad:e0:f6:48:04:e6:4d:
                    f7:fe:c9:09:a7:9a:29:69:59:a8:3d:74:14:75:8b:
                    6a:97:8c:18:cd:a9:96:97:3c:c1:2c:2e:87:d6:41:
                    da:ca:bf:b8:5a:31:7a:88:bb:1f:81:86:48:7b:26:
                    40:79:94:c3:8c:75:bb:ac:fe:7d:5a:6c:52:28:c8:
                    15:fc:37:95:85:b4:4e:e6:47:ac:a8:1c:4f:74:df:
                    2d:46:93:05:ad:ed:98:bf:e8:62:21:cf:ab:d4:ff:
                    89:a7:02:cb:e6:1c:e6:ea:92:65:67:bb:32:a8:b0:
                    d7:90:fc:f2:50:38:fe:e2:db:1b:b2:83:ec:73:4d:
                    4d:5a:cb:a0:e2:9d:e8:c4:89:af:86:6d:20:b6:1a:
                    e0:8e:2c:ef:7b:77:51:e8:21:16:76:57:e5:02:cf:
                    1a:c7:9b:d5:b6:f0:29:48:ae:c5:1f:b5:ac:3d:e2:
                    c8:c1:9b:ae:5b:f0:49:e6:04:9d:84:1d:5b:e0:09:
                    71:b0:9e:4f:6f:e8:23:bf:76:12:56:6f:66:b8:28:
                    e3:5a:ca:30:7d:c2:8e:e8:23:49:f9:bd:e3:e8:0d:
                    38:c4:02:b2:ea:47:b4:1c:f4:33:46:82:6b:dc:d2:
                    1f:e0:3f:94:b5:0f:ec:47:75:de:6e:50:77:35:7d:
                    59:ea:33:15:ff:e8:46:23:38:e5:70:6b:b4:f0:ce:
                    42:96:13:23:38:cc:dc:92:c7:0c:f6:99:08:d3:2a:
                    7d:71:48:f9:c0:c2:15:68:b0:95:65:67:31:9b:1b:
                    4e:c0:ff:e6:cb:62:7a:7b:41:19:aa:47:49:1c:34:
                    7a:dc:22:69:5e:39:63:3a:9d:7c:1f:01:54:59:69:
                    e2:29:8d:a2:da:03:5c:2f:56:1e:e8:01:4d:e7:e9:
                    7a:dd:d3:fb:8e:b6:35:ed:74:fa:ca:13:15:9b:56:
                    3e:c6:c2:e7:35:32:e9:6f:74:14:f8:c7:0e:3e:cb:
                    9f:68:21:93:15:19:ff:ad:f2:f1:16:0d:1d:8a:2b:
                    6e:12:b1:a6:18:d0:24:20:5b:42:57:fc:34:52:73:
                    0f:1e:95:44:db:bd:ca:0c:02:fc:e1:1f:ab:01:b4:
                    48:5e:a1
                Exponent: 65537 (0x10001)
        X509v3 extensions:
            X509v3 Basic Constraints: 
                CA:FALSE
            Netscape Comment: 
                Easy-RSA Generated Certificate
            X509v3 Subject Key Identifier: 
                B7:4D:F7:ED:52:A0:16:A6:37:FC:7D:83:73:E4:61:03:01:B3:9E:E7
            X509v3 Authority Key Identifier: 
                keyid:12:CD:60:04:D2:A0:80:9E:70:ED:C6:99:B8:7B:2C:C6:52:FD:19:A1
                DirName:/C=US/ST=OH/L=Columbus/O=VikingVPN/OU=MyOrganizationalUnit/CN=VikingVPN CA/name=EasyRSA/emailAddress=me@myhost.mydomain
                serial:CF:35:85:EE:80:BF:2A:3E

            X509v3 Extended Key Usage: 
                TLS Web Client Authentication
            X509v3 Key Usage: 
                Digital Signature
    Signature Algorithm: md5WithRSAEncryption
         d7:12:ed:f8:c9:23:3e:a9:bb:7a:56:fb:8b:2e:63:4a:de:23:
         90:9a:1f:5e:12:9e:09:7e:df:65:a1:23:99:dc:a7:fb:08:96:
         e3:50:4b:e6:a9:48:9e:7f:e5:4b:85:1a:41:53:fd:37:dc:76:
         c1:59:7c:62:95:a7:98:48:66:4d:f3:44:aa:5b:fd:89:43:f1:
         f9:fb:a0:93:8f:ee:46:c0:2d:ca:93:4e:49:48:9e:d1:7c:af:
         46:63:a2:9d:7c:48:63:f0:2b:2c:a7:48:31:26:e2:be:b7:06:
         11:3b:23:f8:99:f7:ab:dc:f6:84:15:57:fa:7a:81:32:93:8c:
         cb:84:d3:31:6a:a6:f9:7a:17:03:46:48:38:e2:27:3d:5c:f8:
         ae:6e:d7:9c:b8:bc:f5:6f:43:94:83:0f:cb:5f:4a:2d:2d:40:
         95:29:5b:25:fe:da:1e:1e:ab:fa:33:81:d8:a6:41:a0:ca:95:
         e6:67:ba:85:10:92:6d:66:fe:1b:c1:d2:cb:6a:8f:8a:40:b0:
         25:f9:a6:1b:17:4f:dc:72:9c:72:53:ea:b3:d8:20:78:a0:ca:
         84:9a:dd:c8:41:61:52:1a:47:6d:69:e3:e4:98:ac:f8:90:60:
         a3:f1:2e:b8:ba:c6:92:83:d8:97:c8:0d:18:af:d2:64:99:9d:
         3a:23:f6:a2:c4:79:10:cd:46:94:57:13:9e:3c:33:e3:40:eb:
         4c:05:64:8d:ea:a2:a5:65:f5:f0:65:ed:df:b9:b0:21:aa:69:
         5a:03:aa:51:68:f6:47:44:cc:8b:68:04:b0:22:c4:2e:a5:53:
         e9:a0:34:33:05:05:31:85:e4:f4:6d:94:14:94:34:60:f1:5c:
         ae:a4:18:4b:af:90:f3:6d:7d:99:41:7a:ae:4f:59:83:03:38:
         7c:1f:73:c2:a0:4d:f2:78:c4:47:3a:e6:85:ee:b6:9b:7c:78:
         c2:52:91:0b:78:73:25:b1:3a:7f:43:3b:e4:ee:87:c8:2e:ce:
         8f:9b:35:bc:20:bc:38:e2:23:fe:e0:7f:6a:18:5e:37:26:ce:
         bb:5e:94:d5:49:b8:a7:87:50:71:f4:48:2c:12:1e:d1:27:4e:
         bf:e0:4e:37:8e:3d:6b:52:b2:4f:0d:f7:92:f6:33:b8:04:34:
         50:3a:be:15:59:9c:7e:30:e4:c9:5b:f8:be:8d:fb:f9:e7:da:
         e5:4f:cb:38:88:a7:71:5b:cb:10:cd:f2:ec:96:40:62:1d:4c:
         48:5d:57:f7:d9:77:f7:b4:b2:c4:15:a9:76:b2:50:ce:63:51:
         cb:07:89:60:ab:f5:8e:ad:61:38:94:48:2a:f1:03:36:e4:b3:
         28:83:92:8e:45:62:2b:65
-----BEGIN CERTIFICATE-----
MIIGrDCCBJSgAwIBAgICCf0wDQYJKoZIhvcNAQEEBQAwgawxCzAJBgNVBAYTAlVT
MQswCQYDVQQIEwJPSDERMA8GA1UEBxMIQ29sdW1idXMxEjAQBgNVBAoTCVZpa2lu
Z1ZQTjEdMBsGA1UECxMUTXlPcmdhbml6YXRpb25hbFVuaXQxFTATBgNVBAMTDFZp
a2luZ1ZQTiBDQTEQMA4GA1UEKRMHRWFzeVJTQTEhMB8GCSqGSIb3DQEJARYSbWVA
bXlob3N0Lm15ZG9tYWluMB4XDTE0MDgxMzAwMjQxNloXDTI0MDgxMDAwMjQxNlow
HjEcMBoGA1UEAxMTQ2xpZW50ODcwQ2VydGRhMWQyMTCCAiIwDQYJKoZIhvcNAQEB
BQADggIPADCCAgoCggIBAMiihCEq2GFnfy5SK3Hz7GpWq0wr3jwiuFR5pCHie1w8
lwFyx+/jFcjbcTMfsd1bIESwB040Q9FpQPHaiXL4j5DLK/7Z7EwW4pV3Ao7+dpkc
AosvLZvdwI/hSwZEPqxcneet4PZIBOZN9/7JCaeaKWlZqD10FHWLapeMGM2plpc8
wSwuh9ZB2sq/uFoxeoi7H4GGSHsmQHmUw4x1u6z+fVpsUijIFfw3lYW0TuZHrKgc
T3TfLUaTBa3tmL/oYiHPq9T/iacCy+Yc5uqSZWe7Mqiw15D88lA4/uLbG7KD7HNN
TVrLoOKd6MSJr4ZtILYa4I4s73t3UeghFnZX5QLPGseb1bbwKUiuxR+1rD3iyMGb
rlvwSeYEnYQdW+AJcbCeT2/oI792ElZvZrgo41rKMH3CjugjSfm94+gNOMQCsupH
tBz0M0aCa9zSH+A/lLUP7Ed13m5QdzV9WeozFf/oRiM45XBrtPDOQpYTIzjM3JLH
DPaZCNMqfXFI+cDCFWiwlWVnMZsbTsD/5stientBGapHSRw0etwiaV45YzqdfB8B
VFlp4imNotoDXC9WHugBTefpet3T+462Ne10+soTFZtWPsbC5zUy6W90FPjHDj7L
n2ghkxUZ/63y8RYNHYorbhKxphjQJCBbQlf8NFJzDx6VRNu9ygwC/OEfqwG0SF6h
AgMBAAGjggFjMIIBXzAJBgNVHRMEAjAAMC0GCWCGSAGG+EIBDQQgFh5FYXN5LVJT
QSBHZW5lcmF0ZWQgQ2VydGlmaWNhdGUwHQYDVR0OBBYEFLdN9+1SoBamN/x9g3Pk
YQMBs57nMIHhBgNVHSMEgdkwgdaAFBLNYATSoICecO3Gmbh7LMZS/RmhoYGypIGv
MIGsMQswCQYDVQQGEwJVUzELMAkGA1UECBMCT0gxETAPBgNVBAcTCENvbHVtYnVz
MRIwEAYDVQQKEwlWaWtpbmdWUE4xHTAbBgNVBAsTFE15T3JnYW5pemF0aW9uYWxV
bml0MRUwEwYDVQQDEwxWaWtpbmdWUE4gQ0ExEDAOBgNVBCkTB0Vhc3lSU0ExITAf
BgkqhkiG9w0BCQEWEm1lQG15aG9zdC5teWRvbWFpboIJAM81he6Avyo+MBMGA1Ud
JQQMMAoGCCsGAQUFBwMCMAsGA1UdDwQEAwIHgDANBgkqhkiG9w0BAQQFAAOCAgEA
1xLt+MkjPqm7elb7iy5jSt4jkJofXhKeCX7fZaEjmdyn+wiW41BL5qlInn/lS4Ua
QVP9N9x2wVl8YpWnmEhmTfNEqlv9iUPx+fugk4/uRsAtypNOSUie0XyvRmOinXxI
Y/ArLKdIMSbivrcGETsj+Jn3q9z2hBVX+nqBMpOMy4TTMWqm+XoXA0ZIOOInPVz4
rm7XnLi89W9DlIMPy19KLS1AlSlbJf7aHh6r+jOB2KZBoMqV5me6hRCSbWb+G8HS
y2qPikCwJfmmGxdP3HKcclPqs9ggeKDKhJrdyEFhUhpHbWnj5Jis+JBgo/EuuLrG
koPYl8gNGK/SZJmdOiP2osR5EM1GlFcTnjwz40DrTAVkjeqipWX18GXt37mwIapp
WgOqUWj2R0TMi2gEsCLELqVT6aA0MwUFMYXk9G2UFJQ0YPFcrqQYS6+Q8219mUF6
rk9ZgwM4fB9zwqBN8njERzrmhe62m3x4wlKRC3hzJbE6f0M75O6HyC7Oj5s1vCC8
OOIj/uB/ahheNybOu16U1Um4p4dQcfRILBIe0SdOv+BON449a1KyTw33kvYzuAQ0
UDq+FVmcfjDkyVv4vo37+efa5U/LOIincVvLEM3y7JZAYh1MSF1X99l397SyxBWp
drJQzmNRyweJYKv1jq1hOJRIKvEDNuSzKIOSjkViK2U=
-----END CERTIFICATE-----
