Certificate:
    Data:
        Version: 3 (0x2)
        Serial Number: 2595 (0xa23)
    Signature Algorithm: md5WithRSAEncryption
        Issuer: C=US, ST=OH, L=Columbus, O=VikingVPN, OU=MyOrganizationalUnit, CN=VikingVPN CA/name=EasyRSA/emailAddress=me@myhost.mydomain
        Validity
            Not Before: Aug 15 23:38:42 2014 GMT
            Not After : Aug 12 23:38:42 2024 GMT
        Subject: CN=Client895Cert7e161f
        Subject Public Key Info:
            Public Key Algorithm: rsaEncryption
                Public-Key: (4096 bit)
                Modulus:
                    00:fd:2e:2d:76:f2:2c:f8:96:e6:9e:b7:71:10:89:
                    e0:53:81:43:05:d1:c8:69:95:4d:23:c4:b4:5b:1e:
                    b5:c6:de:d6:8e:3a:f2:f9:9c:02:14:19:ec:85:fa:
                    b2:8a:d0:31:5e:5c:f8:20:19:b4:75:45:23:61:f5:
                    a2:2e:1b:fb:d8:8c:0d:5c:b0:e5:4b:7f:2e:ca:43:
                    4a:87:16:1a:50:b5:63:a8:00:c0:84:7e:89:f2:92:
                    e7:16:cd:85:0c:17:bc:28:f4:94:98:aa:b6:b5:4b:
                    cd:91:a7:30:2c:db:3e:cc:c6:1d:28:2d:f0:89:8b:
                    e0:dd:58:19:80:51:3b:05:9c:81:c6:72:93:91:82:
                    b7:a0:03:c9:51:3d:eb:f2:6c:61:01:1d:df:f2:37:
                    90:93:3d:44:08:e8:64:41:31:50:e8:42:e2:8e:c7:
                    6c:55:2f:dc:bc:89:2f:d8:0c:b1:da:7a:33:6b:10:
                    e9:72:a0:3f:17:1e:52:21:2a:1b:ef:dc:b0:25:54:
                    50:8b:63:96:09:cb:63:30:3b:d5:22:8e:1e:b6:bc:
                    84:62:23:21:7f:41:0f:5b:5c:c6:5e:80:9a:20:cc:
                    fc:1f:e3:a4:c3:e3:de:48:84:6d:f3:d6:71:c3:17:
                    32:f9:08:4c:a5:3d:46:78:99:f9:55:89:ab:65:0e:
                    54:f6:b0:8c:c2:f2:ce:b9:0b:e9:cf:88:ae:77:0c:
                    f6:d2:f5:75:9b:2c:fa:e4:5d:7d:ef:8e:c1:db:76:
                    54:07:e3:8c:8e:d4:8f:03:70:c7:ad:58:9a:2d:41:
                    77:68:e3:e1:23:c4:b6:6c:fb:18:e1:c6:92:c5:b4:
                    5f:08:35:1a:3a:6e:8f:53:32:d1:7d:c5:04:a5:a1:
                    81:5f:a7:2e:ed:e8:30:9b:45:40:eb:00:a1:64:38:
                    47:f6:42:bf:4e:31:73:30:8d:34:2b:3c:8c:8d:8b:
                    bc:82:f3:09:a9:ab:27:b7:ea:3d:f4:9e:32:b0:e5:
                    c7:e7:98:4b:f8:fe:19:4d:4f:5d:58:47:af:5b:79:
                    4e:40:8d:67:31:12:65:34:1c:1d:37:51:d9:9b:16:
                    5e:83:35:34:a1:e2:5c:13:0a:3e:73:12:f0:5d:8b:
                    4b:e3:c6:c8:b4:ff:11:60:8d:57:d2:c6:11:f3:f6:
                    b1:26:7f:ab:c5:48:6e:91:22:b6:da:84:3f:d0:e4:
                    36:e8:f0:ea:31:26:5b:fe:71:43:47:62:c5:cd:37:
                    3e:56:da:10:3b:24:9b:5b:95:6d:51:18:67:6f:3f:
                    86:51:c9:22:e5:13:84:e5:96:01:13:4b:76:c2:43:
                    0e:32:6f:0c:6e:ae:58:ef:67:46:26:fc:2b:84:79:
                    0e:e7:1f
                Exponent: 65537 (0x10001)
        X509v3 extensions:
            X509v3 Basic Constraints: 
                CA:FALSE
            Netscape Comment: 
                Easy-RSA Generated Certificate
            X509v3 Subject Key Identifier: 
                25:81:76:6D:61:74:2C:9E:36:D4:5D:A3:B3:49:6F:78:8B:FD:96:96
            X509v3 Authority Key Identifier: 
                keyid:12:CD:60:04:D2:A0:80:9E:70:ED:C6:99:B8:7B:2C:C6:52:FD:19:A1
                DirName:/C=US/ST=OH/L=Columbus/O=VikingVPN/OU=MyOrganizationalUnit/CN=VikingVPN CA/name=EasyRSA/emailAddress=me@myhost.mydomain
                serial:CF:35:85:EE:80:BF:2A:3E

            X509v3 Extended Key Usage: 
                TLS Web Client Authentication
            X509v3 Key Usage: 
                Digital Signature
    Signature Algorithm: md5WithRSAEncryption
         06:69:33:ba:89:5a:1f:4d:cf:71:7d:b9:66:a7:e4:07:9a:8f:
         5c:6b:bb:9e:aa:76:bc:c0:40:89:ab:ae:7c:05:f0:91:55:1c:
         83:a7:02:31:13:42:71:ac:13:81:73:38:35:73:5f:4f:52:5d:
         74:98:22:22:5c:5c:a0:ea:67:78:61:c4:01:c6:c3:a4:a8:82:
         2e:70:40:dd:57:82:5c:d5:39:82:a1:27:16:ef:eb:1d:43:5d:
         2a:51:44:1c:78:f8:5d:ac:b2:b8:06:e1:7f:46:22:10:06:e9:
         90:bb:9c:0c:b4:18:0d:19:bd:a3:81:23:03:22:ed:fb:d7:bc:
         32:d4:a2:45:8a:96:f2:08:ac:ac:21:03:39:89:08:5c:80:dd:
         88:88:c0:58:b7:42:05:3e:aa:0d:22:b1:1c:ae:66:6b:a3:cc:
         cd:eb:2c:58:4f:86:da:61:2d:83:6c:76:a0:70:1b:61:72:3c:
         39:65:ef:c3:01:4b:f4:8e:00:ba:bf:a8:22:fe:3b:fa:93:c8:
         18:c9:46:7a:f6:e6:68:fb:69:b6:ff:b5:4f:0f:7d:6d:d2:0f:
         69:d2:8f:97:f0:93:ed:ea:85:a1:ff:fc:71:ac:c9:92:31:fb:
         87:1c:c9:26:74:e9:ae:d1:28:56:db:ef:30:31:74:f6:9d:a1:
         1a:7a:be:0d:92:e9:88:cf:83:af:64:09:38:79:b6:31:e4:da:
         50:9c:8e:7d:e5:7b:fa:46:b6:7c:d3:f0:74:e7:26:99:d7:37:
         f0:3c:bc:cd:e8:34:71:00:51:06:fd:96:21:0a:c1:dd:d2:74:
         1e:28:98:79:6e:a5:0a:f7:df:13:fc:6a:40:5d:54:cf:ac:f0:
         cf:0d:97:76:b4:aa:54:c9:51:57:ee:3e:62:7b:3b:1d:4d:65:
         e8:11:40:a1:e3:96:f0:dc:e0:0d:6a:06:12:3f:19:6d:33:4c:
         68:3e:3a:61:35:3d:46:a5:81:61:0f:93:57:61:02:c1:85:bd:
         db:f7:c1:e7:07:f2:97:c5:7c:5b:75:eb:b9:af:db:7f:f5:9b:
         1e:95:22:ff:1e:30:3f:94:42:1a:86:0d:0f:66:c1:05:47:f8:
         e6:20:2a:0a:59:ce:45:6c:73:99:c2:94:c6:3e:06:1f:7b:5c:
         51:78:7c:58:2b:28:2c:06:0d:76:cf:b6:94:bb:5d:d1:e7:1c:
         c2:bb:92:46:02:94:f6:a1:6a:3c:fa:ff:10:6f:d1:4d:bb:da:
         76:73:b3:8d:72:c5:38:59:89:a8:08:07:04:ab:07:ff:71:34:
         9c:f6:02:c3:85:bf:5f:f5:12:46:40:d6:d1:d2:7b:6d:22:33:
         8a:10:75:97:bd:32:9c:ba
-----BEGIN CERTIFICATE-----
MIIGrDCCBJSgAwIBAgICCiMwDQYJKoZIhvcNAQEEBQAwgawxCzAJBgNVBAYTAlVT
MQswCQYDVQQIEwJPSDERMA8GA1UEBxMIQ29sdW1idXMxEjAQBgNVBAoTCVZpa2lu
Z1ZQTjEdMBsGA1UECxMUTXlPcmdhbml6YXRpb25hbFVuaXQxFTATBgNVBAMTDFZp
a2luZ1ZQTiBDQTEQMA4GA1UEKRMHRWFzeVJTQTEhMB8GCSqGSIb3DQEJARYSbWVA
bXlob3N0Lm15ZG9tYWluMB4XDTE0MDgxNTIzMzg0MloXDTI0MDgxMjIzMzg0Mlow
HjEcMBoGA1UEAxMTQ2xpZW50ODk1Q2VydDdlMTYxZjCCAiIwDQYJKoZIhvcNAQEB
BQADggIPADCCAgoCggIBAP0uLXbyLPiW5p63cRCJ4FOBQwXRyGmVTSPEtFsetcbe
1o468vmcAhQZ7IX6sorQMV5c+CAZtHVFI2H1oi4b+9iMDVyw5Ut/LspDSocWGlC1
Y6gAwIR+ifKS5xbNhQwXvCj0lJiqtrVLzZGnMCzbPszGHSgt8ImL4N1YGYBROwWc
gcZyk5GCt6ADyVE96/JsYQEd3/I3kJM9RAjoZEExUOhC4o7HbFUv3LyJL9gMsdp6
M2sQ6XKgPxceUiEqG+/csCVUUItjlgnLYzA71SKOHra8hGIjIX9BD1tcxl6AmiDM
/B/jpMPj3kiEbfPWccMXMvkITKU9RniZ+VWJq2UOVPawjMLyzrkL6c+IrncM9tL1
dZss+uRdfe+Owdt2VAfjjI7UjwNwx61Ymi1Bd2jj4SPEtmz7GOHGksW0Xwg1Gjpu
j1My0X3FBKWhgV+nLu3oMJtFQOsAoWQ4R/ZCv04xczCNNCs8jI2LvILzCamrJ7fq
PfSeMrDlx+eYS/j+GU1PXVhHr1t5TkCNZzESZTQcHTdR2ZsWXoM1NKHiXBMKPnMS
8F2LS+PGyLT/EWCNV9LGEfP2sSZ/q8VIbpEittqEP9DkNujw6jEmW/5xQ0dixc03
PlbaEDskm1uVbVEYZ28/hlHJIuUThOWWARNLdsJDDjJvDG6uWO9nRib8K4R5Ducf
AgMBAAGjggFjMIIBXzAJBgNVHRMEAjAAMC0GCWCGSAGG+EIBDQQgFh5FYXN5LVJT
QSBHZW5lcmF0ZWQgQ2VydGlmaWNhdGUwHQYDVR0OBBYEFCWBdm1hdCyeNtRdo7NJ
b3iL/ZaWMIHhBgNVHSMEgdkwgdaAFBLNYATSoICecO3Gmbh7LMZS/RmhoYGypIGv
MIGsMQswCQYDVQQGEwJVUzELMAkGA1UECBMCT0gxETAPBgNVBAcTCENvbHVtYnVz
MRIwEAYDVQQKEwlWaWtpbmdWUE4xHTAbBgNVBAsTFE15T3JnYW5pemF0aW9uYWxV
bml0MRUwEwYDVQQDEwxWaWtpbmdWUE4gQ0ExEDAOBgNVBCkTB0Vhc3lSU0ExITAf
BgkqhkiG9w0BCQEWEm1lQG15aG9zdC5teWRvbWFpboIJAM81he6Avyo+MBMGA1Ud
JQQMMAoGCCsGAQUFBwMCMAsGA1UdDwQEAwIHgDANBgkqhkiG9w0BAQQFAAOCAgEA
BmkzuolaH03PcX25ZqfkB5qPXGu7nqp2vMBAiauufAXwkVUcg6cCMRNCcawTgXM4
NXNfT1JddJgiIlxcoOpneGHEAcbDpKiCLnBA3VeCXNU5gqEnFu/rHUNdKlFEHHj4
XayyuAbhf0YiEAbpkLucDLQYDRm9o4EjAyLt+9e8MtSiRYqW8gisrCEDOYkIXIDd
iIjAWLdCBT6qDSKxHK5ma6PMzessWE+G2mEtg2x2oHAbYXI8OWXvwwFL9I4Aur+o
Iv47+pPIGMlGevbmaPtptv+1Tw99bdIPadKPl/CT7eqFof/8cazJkjH7hxzJJnTp
rtEoVtvvMDF09p2hGnq+DZLpiM+Dr2QJOHm2MeTaUJyOfeV7+ka2fNPwdOcmmdc3
8Dy8zeg0cQBRBv2WIQrB3dJ0HiiYeW6lCvffE/xqQF1Uz6zwzw2XdrSqVMlRV+4+
Yns7HU1l6BFAoeOW8NzgDWoGEj8ZbTNMaD46YTU9RqWBYQ+TV2ECwYW92/fB5wfy
l8V8W3Xrua/bf/WbHpUi/x4wP5RCGoYND2bBBUf45iAqClnORWxzmcKUxj4GH3tc
UXh8WCsoLAYNds+2lLtd0eccwruSRgKU9qFqPPr/EG/RTbvadnOzjXLFOFmJqAgH
BKsH/3E0nPYCw4W/X/USRkDW0dJ7bSIzihB1l70ynLo=
-----END CERTIFICATE-----
