Certificate:
    Data:
        Version: 3 (0x2)
        Serial Number: 2597 (0xa25)
    Signature Algorithm: md5WithRSAEncryption
        Issuer: C=US, ST=OH, L=Columbus, O=VikingVPN, OU=MyOrganizationalUnit, CN=VikingVPN CA/name=EasyRSA/emailAddress=me@myhost.mydomain
        Validity
            Not Before: Aug 16 01:16:56 2014 GMT
            Not After : Aug 13 01:16:56 2024 GMT
        Subject: CN=Client344Certbf4cbe
        Subject Public Key Info:
            Public Key Algorithm: rsaEncryption
                Public-Key: (4096 bit)
                Modulus:
                    00:ca:19:35:b6:91:1f:dc:d3:33:4c:a6:d1:44:1b:
                    dc:d1:08:bc:42:7a:35:62:3b:2b:1c:b7:39:4d:f1:
                    1b:c5:be:8c:7c:47:5c:f1:ef:68:24:e8:0b:35:7a:
                    a0:11:62:29:50:ba:67:e7:e6:60:08:3d:12:f8:8f:
                    34:68:32:3d:9c:63:b2:8f:c9:ec:29:b3:67:21:28:
                    82:21:a2:e4:36:f8:5a:70:5f:9f:be:2c:5f:48:95:
                    54:91:ce:d7:00:c8:26:a0:b3:37:1f:3b:db:52:aa:
                    2d:2c:de:21:67:5a:f1:c5:b2:b0:5b:4d:2f:e8:1e:
                    73:2f:f9:d4:44:32:09:4b:43:d6:f7:de:a2:05:3c:
                    d7:56:0e:cf:47:1d:75:64:69:93:8a:64:1b:6f:11:
                    f0:95:c5:08:ae:64:60:20:fa:63:da:b1:ff:ff:2c:
                    f1:4a:68:37:c5:da:10:03:7d:a7:55:3c:42:64:24:
                    e0:a3:03:b5:a8:30:22:f8:14:77:45:b4:40:3a:df:
                    e3:d5:0c:51:f9:67:4e:d0:f1:7c:f3:37:b0:e0:80:
                    cf:69:e6:6f:4e:0f:65:e9:0f:32:76:b1:07:6d:5d:
                    96:72:ad:7e:4b:a2:57:62:13:9e:e5:88:ca:e0:f8:
                    7b:78:8a:f1:ce:e7:70:36:d4:79:1b:03:44:f2:a8:
                    fd:90:0d:58:12:33:90:83:69:a5:a6:1c:86:68:a8:
                    3b:74:51:da:13:d2:30:25:c4:1f:05:02:50:90:e3:
                    09:83:63:3b:cc:a9:e2:a1:1c:17:75:15:3c:68:d5:
                    67:5b:dc:1a:ea:3d:9a:73:8f:99:ff:c2:9e:d2:c1:
                    37:7d:5c:22:14:c4:36:d2:72:c9:39:3b:fd:ac:73:
                    79:87:24:53:9d:19:4e:f7:da:64:fa:5c:1e:34:91:
                    d4:83:8f:12:29:36:25:a0:50:a1:45:b2:8d:2c:21:
                    00:81:6b:c6:4e:24:aa:e4:8b:15:3f:39:b5:d6:60:
                    e5:ed:23:bf:aa:f7:67:ab:9b:e5:9b:8c:b4:d6:3b:
                    9c:fd:4b:4c:a2:a3:1e:81:8b:4d:c0:1e:c7:01:9d:
                    a4:09:ec:fc:28:59:0d:e7:28:5d:04:30:ee:b6:61:
                    e5:93:3d:7d:71:44:2b:49:72:16:0a:bf:b0:0a:ce:
                    99:aa:2a:d1:39:8b:a7:57:c6:c0:4c:17:17:ea:44:
                    81:70:4e:6c:89:a1:34:b2:8c:62:eb:c1:b6:88:74:
                    9b:c6:fa:e7:b1:84:cc:96:72:2c:11:db:75:b0:c9:
                    de:00:74:b6:26:e0:e3:4d:21:27:c9:b1:06:f4:47:
                    60:fa:38:2d:11:39:dd:09:52:3a:c7:d5:31:93:0a:
                    93:70:21
                Exponent: 65537 (0x10001)
        X509v3 extensions:
            X509v3 Basic Constraints: 
                CA:FALSE
            Netscape Comment: 
                Easy-RSA Generated Certificate
            X509v3 Subject Key Identifier: 
                04:54:EB:4C:1F:22:F0:AB:E0:73:9A:91:07:A2:6E:B0:C1:BF:76:B4
            X509v3 Authority Key Identifier: 
                keyid:12:CD:60:04:D2:A0:80:9E:70:ED:C6:99:B8:7B:2C:C6:52:FD:19:A1
                DirName:/C=US/ST=OH/L=Columbus/O=VikingVPN/OU=MyOrganizationalUnit/CN=VikingVPN CA/name=EasyRSA/emailAddress=me@myhost.mydomain
                serial:CF:35:85:EE:80:BF:2A:3E

            X509v3 Extended Key Usage: 
                TLS Web Client Authentication
            X509v3 Key Usage: 
                Digital Signature
    Signature Algorithm: md5WithRSAEncryption
         63:08:36:9e:04:ed:f9:f0:f1:dc:e2:58:3f:1e:f1:5b:f6:f1:
         d9:8b:f0:da:88:8d:8d:08:b8:2b:c9:70:eb:1c:37:a1:a6:ff:
         15:e6:12:07:a1:f3:a5:66:a2:00:50:ff:c1:73:63:aa:40:c2:
         a2:25:ed:9d:f3:f8:a7:e8:c4:a0:af:b7:83:91:c2:e9:79:e3:
         a2:16:31:f3:cc:74:4f:ef:a7:19:5c:79:3a:e3:af:46:b2:45:
         c2:93:4e:54:c7:4b:9d:82:41:6b:39:af:e9:48:38:81:c9:2b:
         81:e6:1b:82:61:7b:4f:68:a2:10:b7:b6:64:fb:cb:ac:d0:5d:
         01:66:fd:6d:20:b3:63:7a:8e:cd:8b:25:f9:0a:74:ac:42:97:
         32:c2:c8:ec:63:5c:74:b8:b9:fc:42:8e:26:17:7b:27:25:64:
         0a:08:5a:5e:d3:1a:1f:7d:66:14:9f:42:57:0e:00:07:8a:73:
         92:d4:ab:32:37:06:08:aa:ef:7a:2b:31:d7:ad:9e:c9:25:55:
         b5:49:c4:dd:da:e7:5b:66:68:d7:1d:9d:fb:57:0c:82:88:e5:
         eb:b5:0d:32:40:0b:d7:ba:60:84:b6:e4:77:48:01:6f:f4:5e:
         b1:99:3d:be:61:41:88:8c:26:7b:d4:2e:86:df:42:ec:c1:95:
         27:b3:09:09:fb:b9:fd:80:36:3e:d1:35:2c:16:6d:50:ab:3a:
         37:6d:8e:ed:72:c4:8b:62:9b:d1:3c:97:dd:e8:e8:93:a9:fe:
         24:cc:77:28:54:fa:fb:4d:9b:70:c0:1a:57:c2:d7:eb:3f:2b:
         31:91:c7:30:89:79:69:65:92:d6:1d:d2:0c:a1:29:ef:2f:72:
         35:82:7f:c8:02:a7:0d:6f:07:0e:45:1e:e4:12:fb:ee:9b:af:
         9d:04:ef:37:da:43:45:a6:78:57:f1:01:76:b0:7a:97:05:d6:
         8c:b8:95:15:f6:72:4d:2c:9d:34:05:72:2c:90:14:7b:2a:28:
         a1:16:4e:cc:bf:68:7f:3b:b7:f4:ba:7c:ff:58:21:24:64:03:
         13:5a:9c:6a:08:d9:77:d5:5d:20:63:77:bd:b3:25:b5:16:5e:
         4b:8c:54:13:00:fd:ee:a4:2d:40:7a:59:c0:0e:94:a7:cb:84:
         9f:7c:12:4b:92:70:c7:ae:ac:96:f5:65:bf:94:17:a5:c8:8c:
         b1:3c:4e:37:a4:ae:f5:d4:cb:9b:76:41:f8:a1:8b:ed:c1:bf:
         67:03:14:c6:51:28:90:84:4e:db:b0:90:ba:13:4e:41:02:9b:
         67:9f:47:78:ea:0e:b0:09:31:7e:11:5d:39:c8:9e:c5:e2:34:
         8a:ff:10:0a:60:ed:28:57
-----BEGIN CERTIFICATE-----
MIIGrDCCBJSgAwIBAgICCiUwDQYJKoZIhvcNAQEEBQAwgawxCzAJBgNVBAYTAlVT
MQswCQYDVQQIEwJPSDERMA8GA1UEBxMIQ29sdW1idXMxEjAQBgNVBAoTCVZpa2lu
Z1ZQTjEdMBsGA1UECxMUTXlPcmdhbml6YXRpb25hbFVuaXQxFTATBgNVBAMTDFZp
a2luZ1ZQTiBDQTEQMA4GA1UEKRMHRWFzeVJTQTEhMB8GCSqGSIb3DQEJARYSbWVA
bXlob3N0Lm15ZG9tYWluMB4XDTE0MDgxNjAxMTY1NloXDTI0MDgxMzAxMTY1Nlow
HjEcMBoGA1UEAxMTQ2xpZW50MzQ0Q2VydGJmNGNiZTCCAiIwDQYJKoZIhvcNAQEB
BQADggIPADCCAgoCggIBAMoZNbaRH9zTM0ym0UQb3NEIvEJ6NWI7Kxy3OU3xG8W+
jHxHXPHvaCToCzV6oBFiKVC6Z+fmYAg9EviPNGgyPZxjso/J7CmzZyEogiGi5Db4
WnBfn74sX0iVVJHO1wDIJqCzNx8721KqLSzeIWda8cWysFtNL+gecy/51EQyCUtD
1vfeogU811YOz0cddWRpk4pkG28R8JXFCK5kYCD6Y9qx//8s8UpoN8XaEAN9p1U8
QmQk4KMDtagwIvgUd0W0QDrf49UMUflnTtDxfPM3sOCAz2nmb04PZekPMnaxB21d
lnKtfkuiV2ITnuWIyuD4e3iK8c7ncDbUeRsDRPKo/ZANWBIzkINppaYchmioO3RR
2hPSMCXEHwUCUJDjCYNjO8yp4qEcF3UVPGjVZ1vcGuo9mnOPmf/CntLBN31cIhTE
NtJyyTk7/axzeYckU50ZTvfaZPpcHjSR1IOPEik2JaBQoUWyjSwhAIFrxk4kquSL
FT85tdZg5e0jv6r3Z6ub5ZuMtNY7nP1LTKKjHoGLTcAexwGdpAns/ChZDecoXQQw
7rZh5ZM9fXFEK0lyFgq/sArOmaoq0TmLp1fGwEwXF+pEgXBObImhNLKMYuvBtoh0
m8b657GEzJZyLBHbdbDJ3gB0tibg400hJ8mxBvRHYPo4LRE53QlSOsfVMZMKk3Ah
AgMBAAGjggFjMIIBXzAJBgNVHRMEAjAAMC0GCWCGSAGG+EIBDQQgFh5FYXN5LVJT
QSBHZW5lcmF0ZWQgQ2VydGlmaWNhdGUwHQYDVR0OBBYEFARU60wfIvCr4HOakQei
brDBv3a0MIHhBgNVHSMEgdkwgdaAFBLNYATSoICecO3Gmbh7LMZS/RmhoYGypIGv
MIGsMQswCQYDVQQGEwJVUzELMAkGA1UECBMCT0gxETAPBgNVBAcTCENvbHVtYnVz
MRIwEAYDVQQKEwlWaWtpbmdWUE4xHTAbBgNVBAsTFE15T3JnYW5pemF0aW9uYWxV
bml0MRUwEwYDVQQDEwxWaWtpbmdWUE4gQ0ExEDAOBgNVBCkTB0Vhc3lSU0ExITAf
BgkqhkiG9w0BCQEWEm1lQG15aG9zdC5teWRvbWFpboIJAM81he6Avyo+MBMGA1Ud
JQQMMAoGCCsGAQUFBwMCMAsGA1UdDwQEAwIHgDANBgkqhkiG9w0BAQQFAAOCAgEA
Ywg2ngTt+fDx3OJYPx7xW/bx2Yvw2oiNjQi4K8lw6xw3oab/FeYSB6HzpWaiAFD/
wXNjqkDCoiXtnfP4p+jEoK+3g5HC6XnjohYx88x0T++nGVx5OuOvRrJFwpNOVMdL
nYJBazmv6Ug4gckrgeYbgmF7T2iiELe2ZPvLrNBdAWb9bSCzY3qOzYsl+Qp0rEKX
MsLI7GNcdLi5/EKOJhd7JyVkCghaXtMaH31mFJ9CVw4AB4pzktSrMjcGCKrveisx
162eySVVtUnE3drnW2Zo1x2d+1cMgojl67UNMkAL17pghLbkd0gBb/ResZk9vmFB
iIwme9Quht9C7MGVJ7MJCfu5/YA2PtE1LBZtUKs6N22O7XLEi2Kb0TyX3ejok6n+
JMx3KFT6+02bcMAaV8LX6z8rMZHHMIl5aWWS1h3SDKEp7y9yNYJ/yAKnDW8HDkUe
5BL77puvnQTvN9pDRaZ4V/EBdrB6lwXWjLiVFfZyTSydNAVyLJAUeyoooRZOzL9o
fzu39Lp8/1ghJGQDE1qcagjZd9VdIGN3vbMltRZeS4xUEwD97qQtQHpZwA6Up8uE
n3wSS5Jwx66slvVlv5QXpciMsTxON6Su9dTLm3ZB+KGL7cG/ZwMUxlEokIRO27CQ
uhNOQQKbZ59HeOoOsAkxfhFdOciexeI0iv8QCmDtKFc=
-----END CERTIFICATE-----
