Certificate:
    Data:
        Version: 3 (0x2)
        Serial Number: 2606 (0xa2e)
    Signature Algorithm: md5WithRSAEncryption
        Issuer: C=US, ST=OH, L=Columbus, O=VikingVPN, OU=MyOrganizationalUnit, CN=VikingVPN CA/name=EasyRSA/emailAddress=me@myhost.mydomain
        Validity
            Not Before: Aug 17 21:05:26 2014 GMT
            Not After : Aug 14 21:05:26 2024 GMT
        Subject: CN=Client431Certa1a668
        Subject Public Key Info:
            Public Key Algorithm: rsaEncryption
                Public-Key: (4096 bit)
                Modulus:
                    00:d0:9b:2b:0d:aa:ef:b5:4a:24:4d:17:b5:1d:53:
                    e9:f0:cc:c5:d0:26:7d:be:70:68:9b:45:c2:0a:e2:
                    bd:28:68:c8:73:66:fc:d3:cd:53:50:86:c3:e2:d3:
                    09:cc:b3:9a:98:d4:aa:cf:80:2c:fb:90:f5:cd:8c:
                    90:d5:83:8d:b3:68:48:32:1e:4a:cd:e8:7e:63:3d:
                    5e:e7:63:88:fb:57:af:75:e4:cf:6c:ab:e2:43:b5:
                    99:90:2d:7c:74:21:c9:1f:da:ad:b9:a7:a4:df:95:
                    ab:8c:79:e4:95:17:77:0d:84:83:5d:e8:47:cf:63:
                    d4:06:44:30:7b:44:b3:70:bf:86:06:4f:96:d7:54:
                    e0:1c:8d:10:51:a5:84:2c:96:af:80:aa:e2:b2:5f:
                    13:28:21:b7:65:55:cf:31:c4:ae:d3:d1:bd:08:ab:
                    0a:85:a3:4d:c9:a7:b5:e7:f1:28:94:2c:b2:8e:65:
                    db:2e:67:81:60:ff:04:f9:f4:9b:8a:7a:94:e8:e4:
                    a0:bb:5c:da:cb:90:12:6a:fa:e3:cb:c3:09:2e:15:
                    37:c7:62:40:f7:08:ee:d5:3c:a8:2d:f6:24:c5:40:
                    cb:41:d9:87:a7:d6:6f:bd:24:d6:e2:78:6d:0b:3f:
                    1a:08:49:ee:bb:53:fe:8e:37:fc:00:15:0e:0e:86:
                    0f:e8:21:a4:40:05:fc:78:86:c0:7b:84:84:0e:5f:
                    28:83:19:e0:88:ba:61:1e:eb:66:71:2e:b0:7b:34:
                    0d:8f:63:c5:30:06:c1:f3:eb:01:83:99:52:72:cc:
                    ee:7f:89:8b:de:bf:8f:bd:2a:31:30:34:4f:96:65:
                    2f:56:a0:92:73:e9:e7:75:a5:c5:16:10:99:18:2f:
                    15:ed:aa:af:d4:b6:36:c6:86:d4:aa:7d:63:dd:5a:
                    b6:38:09:3f:40:a1:c5:1e:ca:67:a9:3f:03:1b:91:
                    03:d4:9c:a3:06:66:87:01:3d:a1:a9:64:69:15:d0:
                    6a:a6:78:ac:2e:ed:39:b3:3e:a7:4a:6b:92:30:a6:
                    6b:f1:df:5c:0c:1a:ea:f7:09:31:e7:f7:b7:ce:37:
                    88:33:aa:89:3e:35:b9:30:7f:b3:7b:f3:d3:3e:b9:
                    09:60:ba:4e:d7:b4:41:0f:f1:5f:72:8a:5c:d8:bd:
                    0a:25:62:55:97:45:09:b0:56:cf:37:4e:0a:b2:cc:
                    6e:a2:3d:27:bd:aa:7d:7a:ef:54:00:57:94:9f:6d:
                    8b:7e:29:71:6a:5a:3e:ae:20:56:74:05:5f:fc:f9:
                    67:bc:b3:c7:a7:b3:ef:3b:02:06:b1:0e:18:09:12:
                    25:ce:41:4c:bd:bc:e8:09:5e:e8:5a:8c:e8:16:75:
                    c3:d3:0b
                Exponent: 65537 (0x10001)
        X509v3 extensions:
            X509v3 Basic Constraints: 
                CA:FALSE
            Netscape Comment: 
                Easy-RSA Generated Certificate
            X509v3 Subject Key Identifier: 
                0F:61:D9:52:E2:FD:0E:9F:AF:DC:A9:A3:A9:BA:16:DA:58:DB:FC:0A
            X509v3 Authority Key Identifier: 
                keyid:12:CD:60:04:D2:A0:80:9E:70:ED:C6:99:B8:7B:2C:C6:52:FD:19:A1
                DirName:/C=US/ST=OH/L=Columbus/O=VikingVPN/OU=MyOrganizationalUnit/CN=VikingVPN CA/name=EasyRSA/emailAddress=me@myhost.mydomain
                serial:CF:35:85:EE:80:BF:2A:3E

            X509v3 Extended Key Usage: 
                TLS Web Client Authentication
            X509v3 Key Usage: 
                Digital Signature
    Signature Algorithm: md5WithRSAEncryption
         24:cf:34:79:64:f1:fc:c1:dc:2f:e1:35:c1:67:66:d4:bd:96:
         30:03:9d:ee:a8:f6:d9:7a:15:ac:3a:2a:2c:db:ab:b7:ea:49:
         b8:38:65:63:56:34:46:c5:aa:c6:30:6c:ac:f1:96:a8:9e:31:
         11:8b:94:a9:2e:88:c5:bd:a5:70:29:49:19:dd:7f:50:33:76:
         1e:f8:03:f7:61:f1:a7:9b:a6:3f:ab:79:85:44:36:cc:85:5a:
         cf:54:5b:ff:d5:4b:91:41:b5:d4:14:5d:d0:d6:d4:aa:39:25:
         dc:cd:c2:76:69:75:8c:2c:c7:54:4e:a5:19:f2:28:30:4c:b7:
         79:e5:08:26:d2:6b:73:89:b1:41:65:4b:01:3a:6d:96:23:5c:
         40:78:cc:8a:d6:c6:b1:9b:e2:2b:08:21:fe:05:16:f2:57:cd:
         d0:1d:ad:7d:8f:64:25:74:17:b2:48:78:3d:b5:4e:b7:84:b7:
         aa:63:63:24:c1:fb:30:2b:f3:2f:23:fe:55:9f:17:95:b1:83:
         e8:b9:43:75:67:ec:93:da:1d:4c:16:39:6c:38:cc:a3:3d:aa:
         47:7a:5f:a7:74:e8:fe:ce:ef:21:e7:67:f2:0d:09:05:aa:32:
         17:4a:e2:b9:b3:64:10:f2:ac:ed:5a:42:1e:5c:59:31:ca:03:
         7b:21:6f:d0:42:ac:f8:1a:6c:56:88:6c:b8:98:ea:c8:5b:41:
         0a:8c:d8:60:5a:68:5e:d8:e4:7e:09:e2:9b:78:02:08:cb:49:
         16:f8:3a:bf:c4:89:51:b2:77:7f:9e:1c:2d:7b:ff:7e:f8:b3:
         47:a8:24:11:ec:57:d9:a5:1b:65:62:8c:26:7b:de:15:0f:25:
         68:58:99:6e:16:4e:0e:b5:4a:5a:12:89:82:0a:5e:9a:ae:ff:
         e4:6a:91:9e:a4:5e:d9:f0:92:36:8b:5c:8f:85:ec:b0:f4:38:
         3e:bd:05:2f:80:df:83:1a:d6:e4:3d:db:c9:38:08:35:e2:35:
         fc:20:16:a7:b6:e6:6d:2a:6a:59:8f:c5:ca:0f:84:fd:a6:39:
         fe:f3:7b:44:ab:7c:00:ed:47:22:83:c8:6c:8b:f7:af:cc:7f:
         ff:c0:03:e7:6f:20:da:0a:6a:c5:5c:56:7e:dd:e8:eb:93:22:
         f8:69:93:5d:ee:ef:e9:60:6e:f5:47:af:30:a3:8f:69:bd:a6:
         e4:af:5c:ab:66:14:2e:7a:3d:b4:94:05:e4:3a:13:04:02:1b:
         23:17:7b:68:b7:78:bd:6b:da:47:5f:4a:f8:9d:31:05:b4:c0:
         a5:9d:f2:6b:fb:a6:1f:26:c7:be:d8:1c:9a:9c:03:db:5e:4c:
         ce:1b:10:86:da:21:f8:b7
-----BEGIN CERTIFICATE-----
MIIGrDCCBJSgAwIBAgICCi4wDQYJKoZIhvcNAQEEBQAwgawxCzAJBgNVBAYTAlVT
MQswCQYDVQQIEwJPSDERMA8GA1UEBxMIQ29sdW1idXMxEjAQBgNVBAoTCVZpa2lu
Z1ZQTjEdMBsGA1UECxMUTXlPcmdhbml6YXRpb25hbFVuaXQxFTATBgNVBAMTDFZp
a2luZ1ZQTiBDQTEQMA4GA1UEKRMHRWFzeVJTQTEhMB8GCSqGSIb3DQEJARYSbWVA
bXlob3N0Lm15ZG9tYWluMB4XDTE0MDgxNzIxMDUyNloXDTI0MDgxNDIxMDUyNlow
HjEcMBoGA1UEAxMTQ2xpZW50NDMxQ2VydGExYTY2ODCCAiIwDQYJKoZIhvcNAQEB
BQADggIPADCCAgoCggIBANCbKw2q77VKJE0XtR1T6fDMxdAmfb5waJtFwgrivSho
yHNm/NPNU1CGw+LTCcyzmpjUqs+ALPuQ9c2MkNWDjbNoSDIeSs3ofmM9XudjiPtX
r3Xkz2yr4kO1mZAtfHQhyR/arbmnpN+Vq4x55JUXdw2Eg13oR89j1AZEMHtEs3C/
hgZPltdU4ByNEFGlhCyWr4Cq4rJfEyght2VVzzHErtPRvQirCoWjTcmntefxKJQs
so5l2y5ngWD/BPn0m4p6lOjkoLtc2suQEmr648vDCS4VN8diQPcI7tU8qC32JMVA
y0HZh6fWb70k1uJ4bQs/GghJ7rtT/o43/AAVDg6GD+ghpEAF/HiGwHuEhA5fKIMZ
4Ii6YR7rZnEusHs0DY9jxTAGwfPrAYOZUnLM7n+Ji96/j70qMTA0T5ZlL1agknPp
53WlxRYQmRgvFe2qr9S2NsaG1Kp9Y91atjgJP0ChxR7KZ6k/AxuRA9ScowZmhwE9
oalkaRXQaqZ4rC7tObM+p0prkjCma/HfXAwa6vcJMef3t843iDOqiT41uTB/s3vz
0z65CWC6Tte0QQ/xX3KKXNi9CiViVZdFCbBWzzdOCrLMbqI9J72qfXrvVABXlJ9t
i34pcWpaPq4gVnQFX/z5Z7yzx6ez7zsCBrEOGAkSJc5BTL286Ale6FqM6BZ1w9ML
AgMBAAGjggFjMIIBXzAJBgNVHRMEAjAAMC0GCWCGSAGG+EIBDQQgFh5FYXN5LVJT
QSBHZW5lcmF0ZWQgQ2VydGlmaWNhdGUwHQYDVR0OBBYEFA9h2VLi/Q6fr9ypo6m6
FtpY2/wKMIHhBgNVHSMEgdkwgdaAFBLNYATSoICecO3Gmbh7LMZS/RmhoYGypIGv
MIGsMQswCQYDVQQGEwJVUzELMAkGA1UECBMCT0gxETAPBgNVBAcTCENvbHVtYnVz
MRIwEAYDVQQKEwlWaWtpbmdWUE4xHTAbBgNVBAsTFE15T3JnYW5pemF0aW9uYWxV
bml0MRUwEwYDVQQDEwxWaWtpbmdWUE4gQ0ExEDAOBgNVBCkTB0Vhc3lSU0ExITAf
BgkqhkiG9w0BCQEWEm1lQG15aG9zdC5teWRvbWFpboIJAM81he6Avyo+MBMGA1Ud
JQQMMAoGCCsGAQUFBwMCMAsGA1UdDwQEAwIHgDANBgkqhkiG9w0BAQQFAAOCAgEA
JM80eWTx/MHcL+E1wWdm1L2WMAOd7qj22XoVrDoqLNurt+pJuDhlY1Y0RsWqxjBs
rPGWqJ4xEYuUqS6Ixb2lcClJGd1/UDN2HvgD92Hxp5umP6t5hUQ2zIVaz1Rb/9VL
kUG11BRd0NbUqjkl3M3Cdml1jCzHVE6lGfIoMEy3eeUIJtJrc4mxQWVLATptliNc
QHjMitbGsZviKwgh/gUW8lfN0B2tfY9kJXQXskh4PbVOt4S3qmNjJMH7MCvzLyP+
VZ8XlbGD6LlDdWfsk9odTBY5bDjMoz2qR3pfp3To/s7vIedn8g0JBaoyF0riubNk
EPKs7VpCHlxZMcoDeyFv0EKs+BpsVohsuJjqyFtBCozYYFpoXtjkfgnim3gCCMtJ
Fvg6v8SJUbJ3f54cLXv/fvizR6gkEexX2aUbZWKMJnveFQ8laFiZbhZODrVKWhKJ
ggpemq7/5GqRnqRe2fCSNotcj4XssPQ4Pr0FL4DfgxrW5D3byTgINeI1/CAWp7bm
bSpqWY/Fyg+E/aY5/vN7RKt8AO1HIoPIbIv3r8x//8AD528g2gpqxVxWft3o65Mi
+GmTXe7v6WBu9UevMKOPab2m5K9cq2YULno9tJQF5DoTBAIbIxd7aLd4vWvaR19K
+J0xBbTApZ3ya/umHybHvtgcmpwD215MzhsQhtoh+Lc=
-----END CERTIFICATE-----
