Certificate:
    Data:
        Version: 3 (0x2)
        Serial Number: 2631 (0xa47)
    Signature Algorithm: md5WithRSAEncryption
        Issuer: C=US, ST=OH, L=Columbus, O=VikingVPN, OU=MyOrganizationalUnit, CN=VikingVPN CA/name=EasyRSA/emailAddress=me@myhost.mydomain
        Validity
            Not Before: Aug 21 09:55:56 2014 GMT
            Not After : Aug 18 09:55:56 2024 GMT
        Subject: CN=Client608Certcae367
        Subject Public Key Info:
            Public Key Algorithm: rsaEncryption
                Public-Key: (4096 bit)
                Modulus:
                    00:cc:08:80:f2:8a:39:f8:44:ad:42:41:8e:ad:1d:
                    13:73:50:43:d7:3a:91:46:77:82:9c:2e:e4:ad:0a:
                    ca:9b:1c:96:a6:1e:13:2e:42:bd:52:9c:d8:ea:68:
                    f6:45:2b:66:be:30:fb:8e:44:59:d6:d6:1b:02:4a:
                    91:18:9f:bd:49:03:65:cb:63:4c:9e:5e:09:93:81:
                    20:05:23:f2:0d:28:65:6b:c6:38:6d:54:3f:b2:fa:
                    ac:43:20:ba:e9:05:68:13:a9:53:5d:5f:92:46:38:
                    2d:cf:89:39:c9:cd:8d:66:78:80:fa:1d:99:c4:59:
                    97:62:3c:39:62:a0:4e:3a:04:39:68:b8:ca:92:73:
                    13:1d:14:42:de:be:62:c5:25:25:14:5c:10:29:9e:
                    f5:f4:f9:bc:83:35:81:03:b0:59:5f:c1:e6:c9:75:
                    6b:54:fb:88:d4:44:0d:f5:16:ba:03:a0:72:3c:b9:
                    07:f8:c9:d8:e3:a9:d8:e8:a7:ec:49:91:07:8c:e0:
                    f3:0f:e5:dd:0d:06:55:f8:b1:5b:8d:f3:cb:d9:05:
                    4f:9f:86:c9:f0:1c:24:98:93:ca:08:0e:78:89:5d:
                    9f:ef:44:40:c3:c2:88:76:be:a3:09:e8:32:2f:92:
                    28:3c:d4:60:b8:c5:23:aa:61:d7:64:61:c9:1f:15:
                    55:6c:1f:f8:bc:63:4f:92:c4:c1:db:72:05:2b:80:
                    70:c3:80:ca:2f:f0:a4:3a:ec:34:23:a3:39:bd:79:
                    f0:66:fc:fc:e5:db:fb:a6:23:17:65:45:10:03:9d:
                    8f:0a:9a:da:7d:51:b4:81:ca:73:93:a2:0d:93:d1:
                    b5:e1:0b:ed:cd:1c:4f:25:5f:ae:fb:af:87:49:e9:
                    a1:2c:60:40:63:be:a7:1f:a3:68:4a:c6:9c:ba:54:
                    9e:31:51:61:04:dd:c1:1e:df:37:63:3e:25:a8:4f:
                    2f:01:37:84:46:11:ba:95:cf:e7:fd:af:34:a5:35:
                    5c:37:05:8a:77:a8:37:af:3e:e7:e3:71:7e:45:b7:
                    8b:75:d6:bb:d9:bd:05:d4:de:c9:b4:51:73:23:dd:
                    2a:3a:7b:01:b3:5c:09:45:88:88:64:55:b9:1f:14:
                    7f:af:cc:b2:7a:99:4c:aa:e4:4f:16:38:4e:51:a0:
                    24:35:30:85:f9:93:e7:59:c0:27:70:1f:e9:ec:93:
                    e8:32:0a:80:a6:6d:9f:7e:a6:b8:14:87:36:79:35:
                    89:0d:bc:c1:5b:09:61:4f:f0:95:81:70:0d:6b:84:
                    f5:5c:64:9c:c4:f0:b3:2e:a5:5f:90:2f:ca:81:3a:
                    1e:bb:a3:4d:fc:bd:4c:1b:9a:6c:d2:e2:cb:d2:a3:
                    1e:47:e1
                Exponent: 65537 (0x10001)
        X509v3 extensions:
            X509v3 Basic Constraints: 
                CA:FALSE
            Netscape Comment: 
                Easy-RSA Generated Certificate
            X509v3 Subject Key Identifier: 
                38:49:8F:87:5F:F5:B0:91:2E:FC:1D:28:C9:91:D3:85:A6:D5:93:9A
            X509v3 Authority Key Identifier: 
                keyid:12:CD:60:04:D2:A0:80:9E:70:ED:C6:99:B8:7B:2C:C6:52:FD:19:A1
                DirName:/C=US/ST=OH/L=Columbus/O=VikingVPN/OU=MyOrganizationalUnit/CN=VikingVPN CA/name=EasyRSA/emailAddress=me@myhost.mydomain
                serial:CF:35:85:EE:80:BF:2A:3E

            X509v3 Extended Key Usage: 
                TLS Web Client Authentication
            X509v3 Key Usage: 
                Digital Signature
    Signature Algorithm: md5WithRSAEncryption
         cd:4f:64:e5:37:5e:85:0e:a2:05:c7:34:b1:28:fe:b2:9b:9b:
         ca:b5:ec:ce:fe:98:5f:bc:4e:8e:ee:31:f6:7c:4d:92:3f:96:
         2b:64:c4:2f:93:ad:7d:f6:50:a9:4d:05:db:a8:a4:72:e2:67:
         c9:dd:bb:67:1d:b3:bd:61:b0:ba:cd:b1:88:2f:fa:0f:4d:92:
         6f:d9:f6:d0:24:ad:66:4d:e2:5e:cc:92:6b:6e:3c:bf:64:f8:
         2d:6f:e9:0c:62:3d:ef:23:3d:62:11:cc:a4:7d:d1:b4:13:04:
         e9:ba:52:fe:89:11:49:9b:71:8c:89:5b:4a:9a:3e:80:f8:f5:
         8d:8e:45:f9:c9:9d:2f:39:ac:b2:98:95:d4:53:70:50:24:55:
         c9:10:16:9b:15:22:72:93:ba:58:92:29:b9:dc:1f:6b:21:b3:
         c0:b6:5a:33:26:c5:84:e9:57:fc:4b:b7:f9:19:44:b9:12:67:
         60:98:2e:98:43:86:c5:1d:47:33:70:53:83:f3:11:4e:3a:f6:
         98:5e:44:51:ba:6f:a0:9f:1c:d5:42:b8:ca:03:3f:84:31:6d:
         61:4b:49:95:22:4a:9b:3a:37:97:08:3a:b9:03:26:a8:0c:bd:
         3c:f3:25:80:56:c2:48:43:4e:4c:a1:ef:b7:f3:6c:98:9a:54:
         6c:ac:65:39:10:d4:4d:f0:98:d1:a3:26:66:96:73:23:88:74:
         56:2e:00:86:bc:89:d8:dd:81:68:2b:3b:f0:e0:ba:ee:21:16:
         14:87:7b:10:b3:e8:ee:33:1c:c5:55:8d:c9:76:6b:8c:8c:99:
         9e:86:7e:68:13:50:d5:55:da:f4:7d:a6:93:a5:26:6d:08:95:
         d1:9f:7a:36:76:2c:75:ce:3f:5f:a1:4e:b6:9a:e7:57:99:d0:
         86:ae:12:76:b5:d3:f0:1e:6c:91:03:0d:19:d2:0a:61:2b:da:
         35:f6:fc:1d:b4:72:4f:39:e0:59:ae:31:87:80:7a:4e:3f:99:
         b3:3e:64:13:6a:38:de:09:4d:7f:bd:87:71:9b:6d:53:6a:e3:
         51:d1:fc:05:94:fa:35:a3:59:04:2f:be:12:c5:27:78:a7:a6:
         27:e0:cc:ce:29:14:91:fc:78:84:08:5e:82:f0:d8:07:12:17:
         9f:2e:fd:25:3b:9e:4f:8b:2c:0d:8f:32:e5:4e:db:7b:50:84:
         f4:c9:22:d6:3e:35:02:a7:18:4f:9c:b2:24:c3:53:e3:3f:cb:
         ee:02:26:2b:90:0c:5a:cd:5d:33:53:87:85:ab:88:57:73:e1:
         48:63:69:04:ef:db:27:2b:d8:0c:9c:bc:79:c5:35:09:f0:1e:
         8c:01:3c:85:81:02:4c:80
-----BEGIN CERTIFICATE-----
MIIGrDCCBJSgAwIBAgICCkcwDQYJKoZIhvcNAQEEBQAwgawxCzAJBgNVBAYTAlVT
MQswCQYDVQQIEwJPSDERMA8GA1UEBxMIQ29sdW1idXMxEjAQBgNVBAoTCVZpa2lu
Z1ZQTjEdMBsGA1UECxMUTXlPcmdhbml6YXRpb25hbFVuaXQxFTATBgNVBAMTDFZp
a2luZ1ZQTiBDQTEQMA4GA1UEKRMHRWFzeVJTQTEhMB8GCSqGSIb3DQEJARYSbWVA
bXlob3N0Lm15ZG9tYWluMB4XDTE0MDgyMTA5NTU1NloXDTI0MDgxODA5NTU1Nlow
HjEcMBoGA1UEAxMTQ2xpZW50NjA4Q2VydGNhZTM2NzCCAiIwDQYJKoZIhvcNAQEB
BQADggIPADCCAgoCggIBAMwIgPKKOfhErUJBjq0dE3NQQ9c6kUZ3gpwu5K0Kypsc
lqYeEy5CvVKc2Opo9kUrZr4w+45EWdbWGwJKkRifvUkDZctjTJ5eCZOBIAUj8g0o
ZWvGOG1UP7L6rEMguukFaBOpU11fkkY4Lc+JOcnNjWZ4gPodmcRZl2I8OWKgTjoE
OWi4ypJzEx0UQt6+YsUlJRRcECme9fT5vIM1gQOwWV/B5sl1a1T7iNREDfUWugOg
cjy5B/jJ2OOp2Oin7EmRB4zg8w/l3Q0GVfixW43zy9kFT5+GyfAcJJiTyggOeIld
n+9EQMPCiHa+ownoMi+SKDzUYLjFI6ph12RhyR8VVWwf+LxjT5LEwdtyBSuAcMOA
yi/wpDrsNCOjOb158Gb8/OXb+6YjF2VFEAOdjwqa2n1RtIHKc5OiDZPRteEL7c0c
TyVfrvuvh0npoSxgQGO+px+jaErGnLpUnjFRYQTdwR7fN2M+JahPLwE3hEYRupXP
5/2vNKU1XDcFineoN68+5+NxfkW3i3XWu9m9BdTeybRRcyPdKjp7AbNcCUWIiGRV
uR8Uf6/MsnqZTKrkTxY4TlGgJDUwhfmT51nAJ3Af6eyT6DIKgKZtn36muBSHNnk1
iQ28wVsJYU/wlYFwDWuE9VxknMTwsy6lX5AvyoE6HrujTfy9TBuabNLiy9KjHkfh
AgMBAAGjggFjMIIBXzAJBgNVHRMEAjAAMC0GCWCGSAGG+EIBDQQgFh5FYXN5LVJT
QSBHZW5lcmF0ZWQgQ2VydGlmaWNhdGUwHQYDVR0OBBYEFDhJj4df9bCRLvwdKMmR
04Wm1ZOaMIHhBgNVHSMEgdkwgdaAFBLNYATSoICecO3Gmbh7LMZS/RmhoYGypIGv
MIGsMQswCQYDVQQGEwJVUzELMAkGA1UECBMCT0gxETAPBgNVBAcTCENvbHVtYnVz
MRIwEAYDVQQKEwlWaWtpbmdWUE4xHTAbBgNVBAsTFE15T3JnYW5pemF0aW9uYWxV
bml0MRUwEwYDVQQDEwxWaWtpbmdWUE4gQ0ExEDAOBgNVBCkTB0Vhc3lSU0ExITAf
BgkqhkiG9w0BCQEWEm1lQG15aG9zdC5teWRvbWFpboIJAM81he6Avyo+MBMGA1Ud
JQQMMAoGCCsGAQUFBwMCMAsGA1UdDwQEAwIHgDANBgkqhkiG9w0BAQQFAAOCAgEA
zU9k5TdehQ6iBcc0sSj+spubyrXszv6YX7xOju4x9nxNkj+WK2TEL5OtffZQqU0F
26ikcuJnyd27Zx2zvWGwus2xiC/6D02Sb9n20CStZk3iXsySa248v2T4LW/pDGI9
7yM9YhHMpH3RtBME6bpS/okRSZtxjIlbSpo+gPj1jY5F+cmdLzmsspiV1FNwUCRV
yRAWmxUicpO6WJIpudwfayGzwLZaMybFhOlX/Eu3+RlEuRJnYJgumEOGxR1HM3BT
g/MRTjr2mF5EUbpvoJ8c1UK4ygM/hDFtYUtJlSJKmzo3lwg6uQMmqAy9PPMlgFbC
SENOTKHvt/NsmJpUbKxlORDUTfCY0aMmZpZzI4h0Vi4AhryJ2N2BaCs78OC67iEW
FId7ELPo7jMcxVWNyXZrjIyZnoZ+aBNQ1VXa9H2mk6UmbQiV0Z96NnYsdc4/X6FO
tprnV5nQhq4SdrXT8B5skQMNGdIKYSvaNfb8HbRyTzngWa4xh4B6Tj+Zsz5kE2o4
3glNf72HcZttU2rjUdH8BZT6NaNZBC++EsUneKemJ+DMzikUkfx4hAhegvDYBxIX
ny79JTueT4ssDY8y5U7be1CE9Mki1j41AqcYT5yyJMNT4z/L7gImK5AMWs1dM1OH
hauIV3PhSGNpBO/bJyvYDJy8ecU1CfAejAE8hYECTIA=
-----END CERTIFICATE-----
