Certificate:
    Data:
        Version: 3 (0x2)
        Serial Number: 2644 (0xa54)
    Signature Algorithm: md5WithRSAEncryption
        Issuer: C=US, ST=OH, L=Columbus, O=VikingVPN, OU=MyOrganizationalUnit, CN=VikingVPN CA/name=EasyRSA/emailAddress=me@myhost.mydomain
        Validity
            Not Before: Aug 22 19:35:09 2014 GMT
            Not After : Aug 19 19:35:09 2024 GMT
        Subject: CN=Client924Cert445f88
        Subject Public Key Info:
            Public Key Algorithm: rsaEncryption
                Public-Key: (4096 bit)
                Modulus:
                    00:ce:a5:16:21:8c:92:d6:97:ef:8c:6f:8d:b2:c8:
                    82:8c:2f:bc:3f:4d:b3:4f:85:9a:4c:d9:3f:af:06:
                    5b:51:22:4a:2a:0b:34:f0:d1:86:3a:45:9a:ad:a7:
                    91:ca:c6:24:57:b7:47:f0:47:84:81:97:86:2e:f9:
                    8d:d6:b2:0e:85:d2:58:ec:4f:1a:46:2d:46:98:72:
                    78:9f:f7:71:00:00:da:4b:d2:b2:d1:aa:45:ff:dd:
                    ae:04:17:f8:22:6d:8f:95:de:2a:96:06:c2:79:da:
                    d9:38:ae:cb:8a:0a:33:32:16:f9:98:88:d4:5e:e7:
                    5f:3a:b6:4b:ff:e8:b6:63:3a:6a:15:9f:b5:43:87:
                    26:99:2d:b0:e9:ff:96:58:a9:03:cd:32:e7:2c:64:
                    1f:c8:87:54:37:26:82:83:9f:a6:29:8a:51:6f:49:
                    ca:9f:6e:1e:96:af:f3:2a:d6:83:53:4b:7b:1a:b7:
                    aa:97:49:6c:86:96:af:ea:4b:5d:69:30:1e:e2:e1:
                    eb:c9:0f:1f:4b:49:e7:d4:c6:f1:3e:58:ee:2b:67:
                    d3:98:5e:56:1b:ed:63:e7:0c:ba:38:d3:57:20:97:
                    89:12:3f:16:a3:7f:4e:20:cc:dc:28:ff:a7:81:23:
                    f8:c1:57:b9:8a:dd:7a:35:d3:75:10:b0:72:74:f1:
                    b2:8c:1c:8d:8f:6a:0c:35:29:fa:bc:ae:f2:f4:ec:
                    3e:aa:93:93:3a:62:eb:78:32:fa:0b:48:aa:6d:ee:
                    59:24:3d:ee:45:6b:c1:39:a9:75:6e:d1:69:f2:75:
                    3c:7b:27:f3:36:04:bc:fd:0b:be:2e:5a:5d:0a:2e:
                    5c:c7:31:c2:a7:99:6c:82:9d:3f:b6:7d:37:23:dd:
                    94:e0:c2:56:82:9e:1e:03:fc:4a:75:9d:49:3b:22:
                    58:52:64:60:8a:05:78:39:30:2b:e7:eb:02:b9:6b:
                    96:ab:98:45:90:81:d4:a1:15:ae:44:4d:f9:5b:9b:
                    2c:04:ae:36:f5:c5:0a:61:49:9c:20:e7:69:35:5a:
                    4d:18:6b:3c:82:0a:33:53:54:f5:7f:d5:1d:e6:e5:
                    99:9c:48:44:c7:83:d0:e6:43:98:6b:9c:fa:5d:7c:
                    6a:6b:a5:43:1f:ba:2d:a8:ed:57:bf:11:72:e5:00:
                    b4:31:40:1c:8a:d8:ee:52:1f:fc:31:ed:5b:41:bb:
                    be:c2:7e:ae:91:3b:c0:3c:4b:85:b2:20:ba:5d:28:
                    a5:4e:36:13:e7:43:d3:7d:ce:97:51:59:a2:a4:42:
                    f1:37:b0:ce:be:6e:62:6b:3c:9d:6a:e9:c0:6e:eb:
                    fe:67:39:4e:47:02:6c:94:48:0d:56:2b:72:3d:00:
                    9d:49:af
                Exponent: 65537 (0x10001)
        X509v3 extensions:
            X509v3 Basic Constraints: 
                CA:FALSE
            Netscape Comment: 
                Easy-RSA Generated Certificate
            X509v3 Subject Key Identifier: 
                66:42:E4:5E:A5:41:A9:46:D9:89:DD:01:A8:1B:91:BA:D2:00:73:DB
            X509v3 Authority Key Identifier: 
                keyid:12:CD:60:04:D2:A0:80:9E:70:ED:C6:99:B8:7B:2C:C6:52:FD:19:A1
                DirName:/C=US/ST=OH/L=Columbus/O=VikingVPN/OU=MyOrganizationalUnit/CN=VikingVPN CA/name=EasyRSA/emailAddress=me@myhost.mydomain
                serial:CF:35:85:EE:80:BF:2A:3E

            X509v3 Extended Key Usage: 
                TLS Web Client Authentication
            X509v3 Key Usage: 
                Digital Signature
    Signature Algorithm: md5WithRSAEncryption
         d9:47:aa:85:94:96:4e:b8:39:38:97:79:de:90:db:1e:d0:bb:
         6e:bd:1c:3e:d3:10:da:69:99:fe:ac:a7:e4:32:42:27:b5:0e:
         45:a7:70:84:69:8a:54:ca:27:10:08:8a:97:49:cc:33:8e:89:
         bd:98:67:19:bf:7c:a4:f4:d6:e4:e0:80:be:ba:26:42:a2:79:
         a7:d3:98:33:c3:e0:1e:1a:79:fa:22:e2:c7:27:fc:28:2b:e8:
         0c:69:a9:e4:9d:95:d2:d6:4c:96:eb:82:83:ee:ee:8b:28:d2:
         ad:e0:d8:c8:74:fa:81:83:ab:c5:fe:ee:24:1a:bc:74:fe:14:
         17:c6:15:05:5b:dc:60:2e:08:4b:99:86:66:3c:a2:56:68:fa:
         6d:5e:d4:62:db:d6:d7:36:3f:f9:97:13:17:fc:47:93:23:44:
         30:8c:bd:b8:e8:36:d2:90:c6:f3:c0:c9:0f:5d:ee:26:06:59:
         e0:f4:31:20:e9:3f:32:bb:59:30:da:4a:6b:e4:00:be:7f:c4:
         31:c4:64:b0:bf:54:0b:17:a0:e9:86:ef:c1:e3:9c:b1:85:d1:
         c6:06:9f:a8:cb:28:65:33:f7:40:03:8c:7e:19:15:9a:98:a1:
         b1:3e:32:0e:ab:d8:b5:7b:04:4f:53:a9:67:f5:70:48:c1:eb:
         8f:5c:87:43:d7:3a:12:4a:51:16:23:0d:bf:f5:41:b2:98:cd:
         8f:cf:45:7d:39:b7:e4:db:cb:d0:f2:2a:66:85:a4:1d:e9:25:
         0a:dd:4c:7d:93:f5:cf:d7:3c:90:7f:36:0c:d2:98:99:2d:3f:
         4a:9f:b4:38:c4:49:3d:e3:5b:00:38:81:14:35:28:ee:e5:39:
         88:2e:c7:66:0f:a4:65:f7:65:25:f1:42:70:82:91:4b:1f:72:
         99:97:65:13:69:58:d8:42:ba:6f:9d:2a:9d:55:93:c7:0d:74:
         9b:d2:c7:95:dd:31:f8:1d:b4:83:6c:89:ea:35:5f:8a:38:24:
         e9:2a:f9:6a:8b:09:19:a2:1b:62:d6:66:ef:92:0c:ed:c5:ab:
         97:96:47:00:0b:06:b0:da:23:47:1c:98:4e:5b:52:18:b3:f7:
         a5:9b:3b:ff:14:16:e2:32:64:5e:32:55:d8:5a:40:16:cc:8b:
         19:6d:0d:17:c5:e1:b8:47:93:55:d5:b7:ca:21:d2:c5:4f:64:
         6d:5f:2c:e4:17:7a:93:53:5b:2b:7b:07:d3:22:59:3d:9c:5c:
         40:ca:bd:3a:31:06:00:26:ef:7a:13:c4:30:e5:86:4b:09:f7:
         96:d8:29:95:07:94:4d:0f:29:2e:94:5e:c9:da:b7:0d:4f:83:
         73:3a:07:80:f8:03:4c:04
-----BEGIN CERTIFICATE-----
MIIGrDCCBJSgAwIBAgICClQwDQYJKoZIhvcNAQEEBQAwgawxCzAJBgNVBAYTAlVT
MQswCQYDVQQIEwJPSDERMA8GA1UEBxMIQ29sdW1idXMxEjAQBgNVBAoTCVZpa2lu
Z1ZQTjEdMBsGA1UECxMUTXlPcmdhbml6YXRpb25hbFVuaXQxFTATBgNVBAMTDFZp
a2luZ1ZQTiBDQTEQMA4GA1UEKRMHRWFzeVJTQTEhMB8GCSqGSIb3DQEJARYSbWVA
bXlob3N0Lm15ZG9tYWluMB4XDTE0MDgyMjE5MzUwOVoXDTI0MDgxOTE5MzUwOVow
HjEcMBoGA1UEAxMTQ2xpZW50OTI0Q2VydDQ0NWY4ODCCAiIwDQYJKoZIhvcNAQEB
BQADggIPADCCAgoCggIBAM6lFiGMktaX74xvjbLIgowvvD9Ns0+FmkzZP68GW1Ei
SioLNPDRhjpFmq2nkcrGJFe3R/BHhIGXhi75jdayDoXSWOxPGkYtRphyeJ/3cQAA
2kvSstGqRf/drgQX+CJtj5XeKpYGwnna2Tiuy4oKMzIW+ZiI1F7nXzq2S//otmM6
ahWftUOHJpktsOn/llipA80y5yxkH8iHVDcmgoOfpimKUW9Jyp9uHpav8yrWg1NL
exq3qpdJbIaWr+pLXWkwHuLh68kPH0tJ59TG8T5Y7itn05heVhvtY+cMujjTVyCX
iRI/FqN/TiDM3Cj/p4Ej+MFXuYrdejXTdRCwcnTxsowcjY9qDDUp+ryu8vTsPqqT
kzpi63gy+gtIqm3uWSQ97kVrwTmpdW7RafJ1PHsn8zYEvP0Lvi5aXQouXMcxwqeZ
bIKdP7Z9NyPdlODCVoKeHgP8SnWdSTsiWFJkYIoFeDkwK+frArlrlquYRZCB1KEV
rkRN+VubLASuNvXFCmFJnCDnaTVaTRhrPIIKM1NU9X/VHeblmZxIRMeD0OZDmGuc
+l18amulQx+6LajtV78RcuUAtDFAHIrY7lIf/DHtW0G7vsJ+rpE7wDxLhbIgul0o
pU42E+dD033Ol1FZoqRC8Tewzr5uYms8nWrpwG7r/mc5TkcCbJRIDVYrcj0AnUmv
AgMBAAGjggFjMIIBXzAJBgNVHRMEAjAAMC0GCWCGSAGG+EIBDQQgFh5FYXN5LVJT
QSBHZW5lcmF0ZWQgQ2VydGlmaWNhdGUwHQYDVR0OBBYEFGZC5F6lQalG2YndAagb
kbrSAHPbMIHhBgNVHSMEgdkwgdaAFBLNYATSoICecO3Gmbh7LMZS/RmhoYGypIGv
MIGsMQswCQYDVQQGEwJVUzELMAkGA1UECBMCT0gxETAPBgNVBAcTCENvbHVtYnVz
MRIwEAYDVQQKEwlWaWtpbmdWUE4xHTAbBgNVBAsTFE15T3JnYW5pemF0aW9uYWxV
bml0MRUwEwYDVQQDEwxWaWtpbmdWUE4gQ0ExEDAOBgNVBCkTB0Vhc3lSU0ExITAf
BgkqhkiG9w0BCQEWEm1lQG15aG9zdC5teWRvbWFpboIJAM81he6Avyo+MBMGA1Ud
JQQMMAoGCCsGAQUFBwMCMAsGA1UdDwQEAwIHgDANBgkqhkiG9w0BAQQFAAOCAgEA
2UeqhZSWTrg5OJd53pDbHtC7br0cPtMQ2mmZ/qyn5DJCJ7UORadwhGmKVMonEAiK
l0nMM46JvZhnGb98pPTW5OCAvromQqJ5p9OYM8PgHhp5+iLixyf8KCvoDGmp5J2V
0tZMluuCg+7uiyjSreDYyHT6gYOrxf7uJBq8dP4UF8YVBVvcYC4IS5mGZjyiVmj6
bV7UYtvW1zY/+ZcTF/xHkyNEMIy9uOg20pDG88DJD13uJgZZ4PQxIOk/MrtZMNpK
a+QAvn/EMcRksL9UCxeg6YbvweOcsYXRxgafqMsoZTP3QAOMfhkVmpihsT4yDqvY
tXsET1OpZ/VwSMHrj1yHQ9c6EkpRFiMNv/VBspjNj89FfTm35NvL0PIqZoWkHekl
Ct1MfZP1z9c8kH82DNKYmS0/Sp+0OMRJPeNbADiBFDUo7uU5iC7HZg+kZfdlJfFC
cIKRSx9ymZdlE2lY2EK6b50qnVWTxw10m9LHld0x+B20g2yJ6jVfijgk6Sr5aosJ
GaIbYtZm75IM7cWrl5ZHAAsGsNojRxyYTltSGLP3pZs7/xQW4jJkXjJV2FpAFsyL
GW0NF8XhuEeTVdW3yiHSxU9kbV8s5Bd6k1NbK3sH0yJZPZxcQMq9OjEGACbvehPE
MOWGSwn3ltgplQeUTQ8pLpReydq3DU+DczoHgPgDTAQ=
-----END CERTIFICATE-----
