Certificate:
    Data:
        Version: 3 (0x2)
        Serial Number: 2675 (0xa73)
    Signature Algorithm: md5WithRSAEncryption
        Issuer: C=US, ST=OH, L=Columbus, O=VikingVPN, OU=MyOrganizationalUnit, CN=VikingVPN CA/name=EasyRSA/emailAddress=me@myhost.mydomain
        Validity
            Not Before: Aug 26 03:36:27 2014 GMT
            Not After : Aug 23 03:36:27 2024 GMT
        Subject: CN=Client931Cert178b12
        Subject Public Key Info:
            Public Key Algorithm: rsaEncryption
                Public-Key: (4096 bit)
                Modulus:
                    00:f4:f4:31:98:63:dd:7a:b4:77:49:0a:c4:5a:a4:
                    46:3c:c8:1b:be:4f:8b:9c:79:bc:6e:23:55:74:e6:
                    5e:22:5e:d2:51:b0:db:68:6b:89:e2:fb:7b:9e:94:
                    de:51:90:c8:38:a7:17:04:9e:bb:1b:e7:ac:f6:ec:
                    82:1f:90:5a:2e:e0:8b:f2:3d:ff:74:4b:95:79:fd:
                    7b:61:97:55:88:d8:35:ee:bd:e2:4a:77:8a:68:54:
                    11:42:b0:42:02:b4:b6:6b:b2:cd:81:56:c1:51:18:
                    30:fc:9f:ee:8a:fe:a9:4b:43:17:c3:74:5b:93:35:
                    4c:a4:d3:79:14:18:b9:59:e6:d9:47:11:b9:b6:97:
                    30:36:97:90:53:ed:8e:b4:a3:c9:50:61:14:da:c1:
                    2e:7a:40:c2:25:e8:43:2b:77:a8:3c:fa:9d:82:d6:
                    c4:73:b1:50:d4:14:3b:a5:c1:af:2d:de:9d:88:85:
                    1f:1f:fd:26:f9:63:09:44:64:bb:3c:71:80:d1:dd:
                    3b:0a:0f:cd:aa:b7:01:a3:50:52:06:a5:4d:e7:b4:
                    a6:35:fa:3d:65:1d:d2:45:ae:e8:3d:7a:37:3b:0b:
                    3c:17:b1:ce:8a:23:a0:75:92:53:08:fd:33:54:7e:
                    81:b9:18:13:77:b6:cd:0d:71:12:77:31:6e:01:e8:
                    9a:ed:63:6b:62:ef:98:45:67:7c:e9:f1:41:3f:e8:
                    75:03:12:c9:b3:5c:13:fe:d1:ea:0d:d3:d1:0f:88:
                    15:cc:fb:d2:9e:ec:9b:d7:2a:a8:db:50:f7:13:b7:
                    cf:78:d4:d8:ac:b3:9b:c3:ae:51:7a:8f:11:f8:bb:
                    e1:0a:21:00:6c:30:b4:39:52:ec:76:59:d9:2c:d3:
                    a0:f9:77:34:90:14:eb:0f:bc:bf:4d:6e:37:15:71:
                    2c:89:af:fd:7b:9d:56:1a:1d:bb:4b:ab:0d:4e:84:
                    d2:6b:a1:ee:de:4e:f0:7b:0b:e4:37:f7:53:41:d0:
                    e7:4e:5e:23:3e:44:8e:2a:d4:c4:ac:3d:57:14:82:
                    3e:fe:bf:26:48:45:84:8f:19:45:3d:09:08:3d:c5:
                    36:fa:cb:0a:ed:e2:1a:5a:8a:b1:2a:f0:bb:17:1e:
                    70:76:38:9b:25:43:3e:4d:d2:94:2b:0b:2f:b1:2d:
                    3f:0c:43:a7:fc:fa:36:2a:ce:c0:67:6f:f1:c7:db:
                    42:c1:45:0b:bc:a8:f6:72:ed:ab:dd:2a:c1:56:19:
                    86:ed:f4:8f:1d:df:01:9c:e7:09:43:fd:1e:66:dd:
                    32:37:88:f1:bd:1d:44:5b:cf:6b:cd:60:3a:45:ee:
                    92:d9:32:bc:de:c5:b0:89:ef:3b:7c:56:4d:91:06:
                    4e:c9:7b
                Exponent: 65537 (0x10001)
        X509v3 extensions:
            X509v3 Basic Constraints: 
                CA:FALSE
            Netscape Comment: 
                Easy-RSA Generated Certificate
            X509v3 Subject Key Identifier: 
                CE:04:A7:23:0D:EA:82:99:CC:D5:F3:DA:FB:EB:61:60:DE:94:4A:78
            X509v3 Authority Key Identifier: 
                keyid:12:CD:60:04:D2:A0:80:9E:70:ED:C6:99:B8:7B:2C:C6:52:FD:19:A1
                DirName:/C=US/ST=OH/L=Columbus/O=VikingVPN/OU=MyOrganizationalUnit/CN=VikingVPN CA/name=EasyRSA/emailAddress=me@myhost.mydomain
                serial:CF:35:85:EE:80:BF:2A:3E

            X509v3 Extended Key Usage: 
                TLS Web Client Authentication
            X509v3 Key Usage: 
                Digital Signature
    Signature Algorithm: md5WithRSAEncryption
         e1:ec:f6:b5:d2:e5:b9:02:9e:54:cc:26:9b:ac:91:97:a7:c7:
         7e:72:f3:df:1c:28:53:13:05:fa:8b:78:ff:70:1a:98:15:fe:
         a3:b2:0f:25:7f:f6:1f:d8:b4:60:ea:9d:3d:93:ce:ff:c8:38:
         47:de:49:36:d6:52:29:73:ac:6d:db:92:c3:48:f4:96:b6:33:
         9c:8f:a4:14:84:78:78:1c:3a:4d:6d:0c:ee:39:d6:ab:c5:68:
         8d:2a:eb:84:31:6c:52:3b:fc:12:9e:78:39:d3:12:f0:60:65:
         ec:26:b1:59:64:4f:2a:73:18:09:7b:a7:a5:0f:fa:14:9a:93:
         8f:30:16:51:15:a1:c9:d4:73:11:2c:ec:0f:ca:92:31:ab:7e:
         d7:1c:92:ea:4e:db:96:81:4f:50:85:2d:fa:89:a9:3e:53:e3:
         80:0c:0a:30:b8:66:c1:72:ba:5c:66:55:2f:78:4f:4b:5e:d3:
         d2:9a:56:8f:cf:e0:86:3f:a1:1d:50:b0:09:9b:03:93:03:ae:
         d1:da:8f:42:61:57:ce:17:5d:cf:97:15:3c:a0:7d:c8:1a:71:
         08:5b:e4:7d:14:1e:76:bb:8c:ad:51:26:e7:40:ff:f3:58:b9:
         cd:35:ad:b4:5c:4a:cb:c6:15:aa:62:35:16:19:90:6e:37:38:
         6e:b7:67:cf:4d:d7:30:da:31:42:d5:a1:5f:53:4d:a2:45:6a:
         97:1e:94:7c:f4:39:12:c3:90:66:01:ea:d5:3f:e1:28:ba:38:
         51:7f:37:58:e4:79:38:91:e9:53:f9:7b:20:ec:db:55:80:bb:
         fc:96:fe:73:28:d0:4b:2c:15:cb:56:09:0b:48:e9:65:a4:d6:
         80:4b:2e:f2:f9:8b:f5:30:47:66:25:b7:a4:81:78:84:db:71:
         f3:60:bf:bf:33:d7:62:a8:97:c1:c7:8c:b0:89:0d:a8:b8:0c:
         b2:2f:c4:88:93:d5:fe:b0:fc:83:4a:25:3c:91:92:e1:cc:8f:
         58:c3:4e:d7:82:35:5e:cc:8d:3b:58:51:a4:41:fc:a5:a6:88:
         53:1b:fa:68:31:23:4f:74:25:09:c2:3d:0b:2b:dd:4e:c1:e1:
         b1:25:14:14:e0:da:ca:34:fc:d8:fb:eb:c1:9a:46:cb:01:b7:
         8b:09:05:25:91:56:87:07:30:05:11:2b:83:45:69:b2:29:11:
         21:9f:e6:df:73:49:06:0c:5c:f3:53:dc:1b:6c:dc:ae:bf:1b:
         6a:95:d8:fd:d2:ee:aa:68:0c:1e:16:32:3f:58:e9:25:4e:55:
         f0:01:c5:5a:3e:9f:91:97:d4:cd:31:e9:03:e4:9b:20:38:4d:
         c9:27:19:7d:ff:bb:1c:c1
-----BEGIN CERTIFICATE-----
MIIGrDCCBJSgAwIBAgICCnMwDQYJKoZIhvcNAQEEBQAwgawxCzAJBgNVBAYTAlVT
MQswCQYDVQQIEwJPSDERMA8GA1UEBxMIQ29sdW1idXMxEjAQBgNVBAoTCVZpa2lu
Z1ZQTjEdMBsGA1UECxMUTXlPcmdhbml6YXRpb25hbFVuaXQxFTATBgNVBAMTDFZp
a2luZ1ZQTiBDQTEQMA4GA1UEKRMHRWFzeVJTQTEhMB8GCSqGSIb3DQEJARYSbWVA
bXlob3N0Lm15ZG9tYWluMB4XDTE0MDgyNjAzMzYyN1oXDTI0MDgyMzAzMzYyN1ow
HjEcMBoGA1UEAxMTQ2xpZW50OTMxQ2VydDE3OGIxMjCCAiIwDQYJKoZIhvcNAQEB
BQADggIPADCCAgoCggIBAPT0MZhj3Xq0d0kKxFqkRjzIG75Pi5x5vG4jVXTmXiJe
0lGw22hrieL7e56U3lGQyDinFwSeuxvnrPbsgh+QWi7gi/I9/3RLlXn9e2GXVYjY
Ne694kp3imhUEUKwQgK0tmuyzYFWwVEYMPyf7or+qUtDF8N0W5M1TKTTeRQYuVnm
2UcRubaXMDaXkFPtjrSjyVBhFNrBLnpAwiXoQyt3qDz6nYLWxHOxUNQUO6XBry3e
nYiFHx/9JvljCURkuzxxgNHdOwoPzaq3AaNQUgalTee0pjX6PWUd0kWu6D16NzsL
PBexzoojoHWSUwj9M1R+gbkYE3e2zQ1xEncxbgHomu1ja2LvmEVnfOnxQT/odQMS
ybNcE/7R6g3T0Q+IFcz70p7sm9cqqNtQ9xO3z3jU2Kyzm8OuUXqPEfi74QohAGww
tDlS7HZZ2SzToPl3NJAU6w+8v01uNxVxLImv/XudVhodu0urDU6E0muh7t5O8HsL
5Df3U0HQ505eIz5EjirUxKw9VxSCPv6/JkhFhI8ZRT0JCD3FNvrLCu3iGlqKsSrw
uxcecHY4myVDPk3SlCsLL7EtPwxDp/z6NirOwGdv8cfbQsFFC7yo9nLtq90qwVYZ
hu30jx3fAZznCUP9HmbdMjeI8b0dRFvPa81gOkXuktkyvN7FsInvO3xWTZEGTsl7
AgMBAAGjggFjMIIBXzAJBgNVHRMEAjAAMC0GCWCGSAGG+EIBDQQgFh5FYXN5LVJT
QSBHZW5lcmF0ZWQgQ2VydGlmaWNhdGUwHQYDVR0OBBYEFM4EpyMN6oKZzNXz2vvr
YWDelEp4MIHhBgNVHSMEgdkwgdaAFBLNYATSoICecO3Gmbh7LMZS/RmhoYGypIGv
MIGsMQswCQYDVQQGEwJVUzELMAkGA1UECBMCT0gxETAPBgNVBAcTCENvbHVtYnVz
MRIwEAYDVQQKEwlWaWtpbmdWUE4xHTAbBgNVBAsTFE15T3JnYW5pemF0aW9uYWxV
bml0MRUwEwYDVQQDEwxWaWtpbmdWUE4gQ0ExEDAOBgNVBCkTB0Vhc3lSU0ExITAf
BgkqhkiG9w0BCQEWEm1lQG15aG9zdC5teWRvbWFpboIJAM81he6Avyo+MBMGA1Ud
JQQMMAoGCCsGAQUFBwMCMAsGA1UdDwQEAwIHgDANBgkqhkiG9w0BAQQFAAOCAgEA
4ez2tdLluQKeVMwmm6yRl6fHfnLz3xwoUxMF+ot4/3AamBX+o7IPJX/2H9i0YOqd
PZPO/8g4R95JNtZSKXOsbduSw0j0lrYznI+kFIR4eBw6TW0M7jnWq8VojSrrhDFs
Ujv8Ep54OdMS8GBl7CaxWWRPKnMYCXunpQ/6FJqTjzAWURWhydRzESzsD8qSMat+
1xyS6k7bloFPUIUt+ompPlPjgAwKMLhmwXK6XGZVL3hPS17T0ppWj8/ghj+hHVCw
CZsDkwOu0dqPQmFXzhddz5cVPKB9yBpxCFvkfRQedruMrVEm50D/81i5zTWttFxK
y8YVqmI1FhmQbjc4brdnz03XMNoxQtWhX1NNokVqlx6UfPQ5EsOQZgHq1T/hKLo4
UX83WOR5OJHpU/l7IOzbVYC7/Jb+cyjQSywVy1YJC0jpZaTWgEsu8vmL9TBHZiW3
pIF4hNtx82C/vzPXYqiXwceMsIkNqLgMsi/EiJPV/rD8g0olPJGS4cyPWMNO14I1
XsyNO1hRpEH8paaIUxv6aDEjT3QlCcI9CyvdTsHhsSUUFODayjT82PvrwZpGywG3
iwkFJZFWhwcwBRErg0VpsikRIZ/m33NJBgxc81PcG2zcrr8bapXY/dLuqmgMHhYy
P1jpJU5V8AHFWj6fkZfUzTHpA+SbIDhNyScZff+7HME=
-----END CERTIFICATE-----
