Certificate:
    Data:
        Version: 3 (0x2)
        Serial Number: 2696 (0xa88)
    Signature Algorithm: md5WithRSAEncryption
        Issuer: C=US, ST=OH, L=Columbus, O=VikingVPN, OU=MyOrganizationalUnit, CN=VikingVPN CA/name=EasyRSA/emailAddress=me@myhost.mydomain
        Validity
            Not Before: Aug 28 01:54:07 2014 GMT
            Not After : Aug 25 01:54:07 2024 GMT
        Subject: CN=Client937Certcc00ae
        Subject Public Key Info:
            Public Key Algorithm: rsaEncryption
                Public-Key: (4096 bit)
                Modulus:
                    00:ba:88:d7:32:2c:b8:fc:3c:04:04:1e:39:f8:ec:
                    60:97:cf:5a:04:67:d5:94:05:61:19:4e:8e:68:41:
                    6e:dd:9f:74:be:85:e3:72:f1:97:c3:8d:b6:84:88:
                    ea:a6:25:08:e8:6b:9e:fe:30:3f:0b:70:4f:64:6e:
                    b6:b3:cd:15:a3:d3:4b:88:45:04:41:ab:54:6b:fd:
                    82:9f:37:ee:2c:f5:6e:e6:b8:50:45:15:85:78:d1:
                    20:43:8c:c2:41:71:b8:d7:58:ff:b3:09:96:be:05:
                    e0:0c:26:f6:68:f7:75:cb:7e:4e:79:36:f5:a6:3a:
                    43:96:9c:cd:5f:ec:54:4f:b1:4e:ea:9f:65:26:ca:
                    04:64:ae:2a:08:34:42:0a:eb:3a:09:8e:94:29:e5:
                    18:7f:67:f6:f3:16:d9:16:25:c5:5e:ff:18:bf:4f:
                    4f:80:89:f7:9a:72:71:16:04:ce:97:71:ff:52:c4:
                    83:71:f3:cb:09:fe:8c:f8:c4:f5:f7:1d:71:fd:21:
                    9e:28:4c:20:98:fc:49:9a:15:c6:12:15:6a:fa:9d:
                    84:ea:63:f6:8c:fc:dd:c4:ba:17:0a:6e:3e:d3:15:
                    31:94:47:b0:47:27:00:46:c5:aa:0e:47:3c:bc:ec:
                    56:af:e4:4d:51:bf:54:50:ee:b5:33:e6:b6:14:e5:
                    b5:68:b4:1f:63:37:a9:da:93:50:fa:34:85:d5:e6:
                    a7:83:8a:7b:d7:14:d3:0b:62:48:e2:f5:c6:c7:6d:
                    0e:3f:fc:cf:f3:a6:09:93:d8:1c:a8:f8:e9:d2:6d:
                    68:92:67:ec:d7:91:fa:29:12:a8:87:29:41:dd:21:
                    bf:49:b8:e0:05:ca:ef:78:86:b8:a8:39:e6:2a:d3:
                    c1:de:a4:0a:f1:8e:34:07:9e:1f:1e:1f:13:a3:7d:
                    b0:ca:0d:65:1f:81:08:d0:01:7b:71:25:15:58:2f:
                    2f:8c:ae:0b:89:39:1c:71:16:cd:e7:56:b0:86:5e:
                    88:f2:d3:e9:05:77:0f:7e:d6:30:b8:a4:bf:72:95:
                    ac:0a:41:cc:1f:a8:0a:40:c5:fe:54:75:ad:c7:f8:
                    c2:6c:0e:d8:50:ab:3c:8c:bc:e2:f0:5f:78:ca:e6:
                    0a:06:bc:3a:cf:ef:2a:fd:f7:d9:99:fc:f5:1e:e1:
                    29:e5:68:ff:24:1c:b2:e8:32:c5:e1:30:2a:fa:2a:
                    8c:56:94:e2:4e:88:0c:0e:49:91:bc:04:70:d1:c0:
                    c8:fc:62:88:57:91:2b:4d:7e:5d:e7:e4:12:0d:8f:
                    c9:5d:3c:0a:27:07:1d:6f:0f:00:68:ca:0b:a0:4c:
                    6f:8e:03:33:8f:2a:bc:87:7b:eb:02:db:cc:5c:d7:
                    53:99:cd
                Exponent: 65537 (0x10001)
        X509v3 extensions:
            X509v3 Basic Constraints: 
                CA:FALSE
            Netscape Comment: 
                Easy-RSA Generated Certificate
            X509v3 Subject Key Identifier: 
                2A:CF:C9:28:A9:DE:79:32:20:3B:2D:D3:78:15:E2:C7:ED:99:F2:08
            X509v3 Authority Key Identifier: 
                keyid:12:CD:60:04:D2:A0:80:9E:70:ED:C6:99:B8:7B:2C:C6:52:FD:19:A1
                DirName:/C=US/ST=OH/L=Columbus/O=VikingVPN/OU=MyOrganizationalUnit/CN=VikingVPN CA/name=EasyRSA/emailAddress=me@myhost.mydomain
                serial:CF:35:85:EE:80:BF:2A:3E

            X509v3 Extended Key Usage: 
                TLS Web Client Authentication
            X509v3 Key Usage: 
                Digital Signature
    Signature Algorithm: md5WithRSAEncryption
         3b:e6:40:d2:11:d9:27:f7:2f:f7:01:65:ff:8b:57:7e:97:e9:
         c9:3c:02:b1:27:ed:4d:cf:23:ae:70:5d:e6:07:f4:a3:34:b2:
         19:dd:75:2f:88:a4:41:96:f0:4a:bf:9d:7a:ed:26:b3:4c:67:
         97:d2:3e:5b:45:73:57:9f:0b:18:2b:8a:4d:cc:69:c0:08:00:
         56:f7:da:40:43:dc:4f:1e:19:4a:75:2f:b0:14:e6:09:7a:bd:
         97:e4:90:c2:88:9f:e6:e9:bb:1b:dd:fd:7c:01:a4:ec:f1:8d:
         bd:57:33:42:64:35:5f:e7:02:49:46:f9:e1:c9:be:ed:db:66:
         d0:e7:0a:b3:8a:a4:fe:50:1d:81:4f:7c:d5:2c:03:0b:10:01:
         aa:1e:c0:e3:c3:e0:d5:6c:a6:a0:c1:ce:af:e5:a7:64:00:32:
         4f:88:64:78:f1:e1:58:10:cd:92:94:09:7c:17:57:fd:ea:31:
         ae:78:6c:84:8d:e7:37:96:d6:4d:1d:1c:fa:ac:ea:95:bf:f6:
         8f:49:cd:d0:77:f1:bf:25:f5:b7:93:e4:e6:7b:72:1b:18:19:
         00:5f:41:4a:21:2a:97:5d:2f:67:41:43:bb:dc:1d:bb:03:ba:
         94:62:c4:3b:86:52:5f:7b:8e:d4:18:a3:b8:48:0b:70:fd:cf:
         54:5f:1c:b8:5e:bc:7b:d3:e1:11:06:d5:12:b8:e7:3f:18:f3:
         c4:24:bd:00:d7:9d:ee:a3:5f:79:94:67:4b:8a:ac:e6:d7:2b:
         bf:46:cc:4f:b4:ff:96:52:cf:90:43:f7:64:fb:ef:ba:79:26:
         c8:77:8a:24:e5:14:88:a5:19:f9:d5:5e:aa:2b:74:ae:1c:99:
         14:6d:c1:b7:9b:0e:27:6f:00:04:17:2b:37:4e:b5:88:9a:9c:
         85:5a:bd:6e:26:73:6a:0a:f7:9f:7d:62:00:71:06:25:93:a8:
         bf:73:b3:89:32:04:2a:75:27:34:d9:04:cd:48:78:4d:e5:70:
         8b:08:00:58:14:8a:61:22:c9:b1:59:4c:c7:f6:1a:04:d3:a0:
         e7:bb:2c:c4:b2:7e:3b:1f:8f:dd:03:1e:e9:bd:d8:17:b7:19:
         50:c3:2a:83:89:dc:56:19:e3:68:0c:55:e1:a5:ba:f9:9b:f8:
         73:d4:35:4a:be:1f:39:51:f8:86:42:5a:15:7b:2a:a5:9d:74:
         7b:f3:c4:b7:51:95:83:82:76:50:3a:77:fe:56:a9:0d:a5:3f:
         3c:7a:a8:d1:44:7c:7d:56:53:29:03:4e:6a:7e:82:b0:fe:12:
         92:61:66:5e:69:de:ca:7c:47:35:98:d4:4f:07:e0:51:8b:e0:
         62:26:53:5a:cb:ba:18:55
-----BEGIN CERTIFICATE-----
MIIGrDCCBJSgAwIBAgICCogwDQYJKoZIhvcNAQEEBQAwgawxCzAJBgNVBAYTAlVT
MQswCQYDVQQIEwJPSDERMA8GA1UEBxMIQ29sdW1idXMxEjAQBgNVBAoTCVZpa2lu
Z1ZQTjEdMBsGA1UECxMUTXlPcmdhbml6YXRpb25hbFVuaXQxFTATBgNVBAMTDFZp
a2luZ1ZQTiBDQTEQMA4GA1UEKRMHRWFzeVJTQTEhMB8GCSqGSIb3DQEJARYSbWVA
bXlob3N0Lm15ZG9tYWluMB4XDTE0MDgyODAxNTQwN1oXDTI0MDgyNTAxNTQwN1ow
HjEcMBoGA1UEAxMTQ2xpZW50OTM3Q2VydGNjMDBhZTCCAiIwDQYJKoZIhvcNAQEB
BQADggIPADCCAgoCggIBALqI1zIsuPw8BAQeOfjsYJfPWgRn1ZQFYRlOjmhBbt2f
dL6F43Lxl8ONtoSI6qYlCOhrnv4wPwtwT2RutrPNFaPTS4hFBEGrVGv9gp837iz1
bua4UEUVhXjRIEOMwkFxuNdY/7MJlr4F4Awm9mj3dct+Tnk29aY6Q5aczV/sVE+x
TuqfZSbKBGSuKgg0QgrrOgmOlCnlGH9n9vMW2RYlxV7/GL9PT4CJ95pycRYEzpdx
/1LEg3Hzywn+jPjE9fcdcf0hnihMIJj8SZoVxhIVavqdhOpj9oz83cS6FwpuPtMV
MZRHsEcnAEbFqg5HPLzsVq/kTVG/VFDutTPmthTltWi0H2M3qdqTUPo0hdXmp4OK
e9cU0wtiSOL1xsdtDj/8z/OmCZPYHKj46dJtaJJn7NeR+ikSqIcpQd0hv0m44AXK
73iGuKg55irTwd6kCvGONAeeHx4fE6N9sMoNZR+BCNABe3ElFVgvL4yuC4k5HHEW
zedWsIZeiPLT6QV3D37WMLikv3KVrApBzB+oCkDF/lR1rcf4wmwO2FCrPIy84vBf
eMrmCga8Os/vKv332Zn89R7hKeVo/yQcsugyxeEwKvoqjFaU4k6IDA5JkbwEcNHA
yPxiiFeRK01+XefkEg2PyV08CicHHW8PAGjKC6BMb44DM48qvId76wLbzFzXU5nN
AgMBAAGjggFjMIIBXzAJBgNVHRMEAjAAMC0GCWCGSAGG+EIBDQQgFh5FYXN5LVJT
QSBHZW5lcmF0ZWQgQ2VydGlmaWNhdGUwHQYDVR0OBBYEFCrPySip3nkyIDst03gV
4sftmfIIMIHhBgNVHSMEgdkwgdaAFBLNYATSoICecO3Gmbh7LMZS/RmhoYGypIGv
MIGsMQswCQYDVQQGEwJVUzELMAkGA1UECBMCT0gxETAPBgNVBAcTCENvbHVtYnVz
MRIwEAYDVQQKEwlWaWtpbmdWUE4xHTAbBgNVBAsTFE15T3JnYW5pemF0aW9uYWxV
bml0MRUwEwYDVQQDEwxWaWtpbmdWUE4gQ0ExEDAOBgNVBCkTB0Vhc3lSU0ExITAf
BgkqhkiG9w0BCQEWEm1lQG15aG9zdC5teWRvbWFpboIJAM81he6Avyo+MBMGA1Ud
JQQMMAoGCCsGAQUFBwMCMAsGA1UdDwQEAwIHgDANBgkqhkiG9w0BAQQFAAOCAgEA
O+ZA0hHZJ/cv9wFl/4tXfpfpyTwCsSftTc8jrnBd5gf0ozSyGd11L4ikQZbwSr+d
eu0ms0xnl9I+W0VzV58LGCuKTcxpwAgAVvfaQEPcTx4ZSnUvsBTmCXq9l+SQwoif
5um7G939fAGk7PGNvVczQmQ1X+cCSUb54cm+7dtm0OcKs4qk/lAdgU981SwDCxAB
qh7A48Pg1WymoMHOr+WnZAAyT4hkePHhWBDNkpQJfBdX/eoxrnhshI3nN5bWTR0c
+qzqlb/2j0nN0HfxvyX1t5Pk5ntyGxgZAF9BSiEql10vZ0FDu9wduwO6lGLEO4ZS
X3uO1BijuEgLcP3PVF8cuF68e9PhEQbVErjnPxjzxCS9ANed7qNfeZRnS4qs5tcr
v0bMT7T/llLPkEP3ZPvvunkmyHeKJOUUiKUZ+dVeqit0rhyZFG3Bt5sOJ28ABBcr
N061iJqchVq9biZzagr3n31iAHEGJZOov3OziTIEKnUnNNkEzUh4TeVwiwgAWBSK
YSLJsVlMx/YaBNOg57ssxLJ+Ox+P3QMe6b3YF7cZUMMqg4ncVhnjaAxV4aW6+Zv4
c9Q1Sr4fOVH4hkJaFXsqpZ10e/PEt1GVg4J2UDp3/lapDaU/PHqo0UR8fVZTKQNO
an6CsP4SkmFmXmneynxHNZjUTwfgUYvgYiZTWsu6GFU=
-----END CERTIFICATE-----
