Certificate:
    Data:
        Version: 3 (0x2)
        Serial Number: 2698 (0xa8a)
    Signature Algorithm: md5WithRSAEncryption
        Issuer: C=US, ST=OH, L=Columbus, O=VikingVPN, OU=MyOrganizationalUnit, CN=VikingVPN CA/name=EasyRSA/emailAddress=me@myhost.mydomain
        Validity
            Not Before: Aug 28 02:24:30 2014 GMT
            Not After : Aug 25 02:24:30 2024 GMT
        Subject: CN=Client938Cert4821ec
        Subject Public Key Info:
            Public Key Algorithm: rsaEncryption
                Public-Key: (4096 bit)
                Modulus:
                    00:db:3f:5f:2a:96:92:d8:f0:91:dd:68:f5:37:fd:
                    e6:3c:d2:92:29:8b:73:9d:53:0a:bb:09:a5:f6:3a:
                    a1:ff:ff:46:01:a6:9d:40:17:20:69:e7:de:8c:2e:
                    a2:df:88:26:9c:ad:39:2c:4b:8d:0a:16:b7:6f:52:
                    b8:3a:f4:77:ff:27:bc:5a:6b:ba:91:cf:fd:8c:5f:
                    52:83:53:c4:fc:7d:73:6c:fd:25:0c:bb:da:50:16:
                    83:f4:de:c8:cc:37:34:a9:48:c7:b5:19:d2:1a:38:
                    80:d8:4c:aa:1c:05:6e:ea:82:55:ce:0f:fe:5d:23:
                    8e:91:8d:b3:56:c4:d4:63:3e:f4:20:2f:38:fc:a6:
                    3f:16:f4:77:91:e1:29:90:38:38:af:22:f1:cd:7f:
                    39:1a:18:70:a2:52:11:0a:d6:34:e7:f2:18:dd:31:
                    7f:e3:05:21:2d:42:bb:2e:16:52:c9:ab:b9:4c:15:
                    a4:e9:cc:fa:64:19:d8:d2:b4:f1:6c:1f:66:33:5b:
                    b8:d7:19:e6:f6:44:16:05:5d:c0:04:2e:76:df:3a:
                    11:bf:26:f0:5c:18:7b:3c:f1:2a:4c:dd:4b:d7:d1:
                    ff:64:b5:9c:c4:0e:27:9d:6a:aa:53:b7:d5:e0:e2:
                    f6:ef:23:b0:f6:1e:36:09:f6:13:a0:cb:30:fb:31:
                    e1:c4:b0:5f:49:bc:34:05:89:9c:70:4b:34:1b:36:
                    ff:ba:f9:b1:0c:55:85:12:1b:ed:ce:12:1e:4d:8f:
                    fa:34:c6:0d:61:e2:f3:70:c3:e4:71:3d:4b:0b:3b:
                    0d:49:18:c1:7e:e9:7f:fa:8a:d6:77:b6:ec:47:1f:
                    b6:ae:ee:81:57:6b:0d:45:aa:89:d8:c2:df:75:93:
                    ce:64:31:2d:4c:eb:6e:26:b9:e0:3a:c8:37:eb:08:
                    b1:d7:83:15:b2:42:a3:2c:6f:03:9c:79:39:1d:13:
                    48:71:6f:03:39:0e:dd:ca:cd:da:0b:81:65:40:72:
                    2e:9b:d3:71:39:d0:b8:57:6d:b5:c5:36:f8:b7:f7:
                    af:f3:7a:5b:4e:35:ff:b7:ba:72:7f:fa:c8:73:fe:
                    ef:6d:7a:fa:dd:17:5b:12:8e:bf:19:35:c6:dd:4b:
                    d8:59:21:d9:a1:96:c2:ce:65:7c:5a:1c:19:35:32:
                    fc:07:23:9a:10:d9:17:3a:91:f6:2a:41:62:fd:8a:
                    33:46:d9:8d:05:17:e3:68:0d:8c:20:8c:58:71:85:
                    51:91:6e:56:8b:8f:9a:29:b3:e6:f6:37:2d:18:bd:
                    a7:5d:33:aa:fe:3e:5b:50:a5:06:15:32:3d:5d:78:
                    54:a4:86:f7:da:c9:2f:70:34:fc:08:43:09:0d:12:
                    10:b4:3f
                Exponent: 65537 (0x10001)
        X509v3 extensions:
            X509v3 Basic Constraints: 
                CA:FALSE
            Netscape Comment: 
                Easy-RSA Generated Certificate
            X509v3 Subject Key Identifier: 
                46:55:1E:62:4A:97:1A:E7:63:29:61:70:A6:5D:A7:A7:4E:D1:E6:59
            X509v3 Authority Key Identifier: 
                keyid:12:CD:60:04:D2:A0:80:9E:70:ED:C6:99:B8:7B:2C:C6:52:FD:19:A1
                DirName:/C=US/ST=OH/L=Columbus/O=VikingVPN/OU=MyOrganizationalUnit/CN=VikingVPN CA/name=EasyRSA/emailAddress=me@myhost.mydomain
                serial:CF:35:85:EE:80:BF:2A:3E

            X509v3 Extended Key Usage: 
                TLS Web Client Authentication
            X509v3 Key Usage: 
                Digital Signature
    Signature Algorithm: md5WithRSAEncryption
         1e:6f:ec:b4:6f:a4:c0:92:1f:1d:90:84:80:01:7c:49:93:89:
         ac:e8:56:9f:1e:76:0e:80:8f:2d:e7:49:e8:60:e3:f1:70:d4:
         74:50:a6:a1:de:97:72:aa:52:2f:40:ab:61:c4:3a:68:53:99:
         07:2d:13:fa:d6:14:32:0b:3f:a0:a4:9c:ac:45:4e:38:c3:29:
         3e:93:d8:71:6d:1a:60:58:84:2e:a6:4f:f6:10:81:51:af:df:
         81:e9:0e:b8:34:0f:57:7b:6e:67:f7:23:de:2c:4a:65:2e:c0:
         68:42:16:a8:ba:1f:77:a4:d6:da:c7:a7:d1:4a:4a:68:77:76:
         98:54:d8:7c:d6:55:f8:34:94:2f:50:8a:8e:da:34:80:78:d7:
         14:eb:13:1c:c9:e0:f5:6d:d1:4c:3f:02:37:cb:6e:f8:55:fd:
         3a:8c:7e:81:74:5d:e1:49:13:72:5f:b1:d6:f8:2b:fd:71:68:
         29:d9:ee:df:a5:b8:9d:26:63:1d:df:9a:d0:ad:40:11:c0:f1:
         a1:42:9e:fc:9b:8e:70:07:70:a1:db:57:29:05:df:34:2a:8e:
         c2:8c:35:87:15:ee:89:26:4c:c2:69:93:31:76:f0:51:6d:6e:
         39:1a:7f:f3:28:3e:33:9d:6a:12:6b:d3:70:bc:f6:f2:2b:bb:
         4f:8b:10:fa:7c:f5:f9:fb:5a:25:42:70:ea:cd:cb:10:8c:60:
         54:5e:41:d8:3b:0b:89:01:e5:14:e0:af:6d:26:18:59:c4:21:
         b3:e1:bc:f1:91:9a:a3:00:b3:bb:b6:8c:a3:9a:f1:60:a2:3a:
         fc:53:3f:78:74:79:09:c0:03:38:06:de:ca:3a:99:37:5b:24:
         22:8c:63:26:bd:4e:91:fa:0c:10:7f:7e:77:12:71:c9:49:0e:
         2b:d1:e9:13:6b:25:10:e0:87:93:68:e2:a9:dd:0d:9e:e5:95:
         8f:1e:8c:65:b4:98:bd:c4:13:49:e9:1e:7c:a3:78:ee:03:77:
         c6:47:a2:ea:8b:ca:92:1a:3e:8c:91:b6:b9:b4:3c:ed:65:64:
         e8:19:ca:99:c4:b3:e8:39:ea:cd:95:89:96:66:b8:02:78:3d:
         82:28:ac:91:49:6a:b1:0f:9f:7e:dc:43:15:2f:f6:95:6b:79:
         47:fb:63:cf:d3:f4:44:a1:2d:32:1a:6c:74:86:be:4a:ab:35:
         22:41:c9:6a:d2:51:62:f8:b5:1c:bb:a3:8c:41:54:c4:0d:31:
         52:f5:98:f4:67:be:75:db:d8:10:4b:2c:9b:f2:e7:e9:c7:68:
         2f:ba:2d:eb:b4:40:79:6d:c8:b2:b1:02:28:6b:f9:c2:98:f9:
         69:48:5a:54:be:cc:e1:d3
-----BEGIN CERTIFICATE-----
MIIGrDCCBJSgAwIBAgICCoowDQYJKoZIhvcNAQEEBQAwgawxCzAJBgNVBAYTAlVT
MQswCQYDVQQIEwJPSDERMA8GA1UEBxMIQ29sdW1idXMxEjAQBgNVBAoTCVZpa2lu
Z1ZQTjEdMBsGA1UECxMUTXlPcmdhbml6YXRpb25hbFVuaXQxFTATBgNVBAMTDFZp
a2luZ1ZQTiBDQTEQMA4GA1UEKRMHRWFzeVJTQTEhMB8GCSqGSIb3DQEJARYSbWVA
bXlob3N0Lm15ZG9tYWluMB4XDTE0MDgyODAyMjQzMFoXDTI0MDgyNTAyMjQzMFow
HjEcMBoGA1UEAxMTQ2xpZW50OTM4Q2VydDQ4MjFlYzCCAiIwDQYJKoZIhvcNAQEB
BQADggIPADCCAgoCggIBANs/XyqWktjwkd1o9Tf95jzSkimLc51TCrsJpfY6of//
RgGmnUAXIGnn3owuot+IJpytOSxLjQoWt29SuDr0d/8nvFprupHP/YxfUoNTxPx9
c2z9JQy72lAWg/TeyMw3NKlIx7UZ0ho4gNhMqhwFbuqCVc4P/l0jjpGNs1bE1GM+
9CAvOPymPxb0d5HhKZA4OK8i8c1/ORoYcKJSEQrWNOfyGN0xf+MFIS1Cuy4WUsmr
uUwVpOnM+mQZ2NK08WwfZjNbuNcZ5vZEFgVdwAQudt86Eb8m8FwYezzxKkzdS9fR
/2S1nMQOJ51qqlO31eDi9u8jsPYeNgn2E6DLMPsx4cSwX0m8NAWJnHBLNBs2/7r5
sQxVhRIb7c4SHk2P+jTGDWHi83DD5HE9Sws7DUkYwX7pf/qK1ne27Ecftq7ugVdr
DUWqidjC33WTzmQxLUzrbia54DrIN+sIsdeDFbJCoyxvA5x5OR0TSHFvAzkO3crN
2guBZUByLpvTcTnQuFdttcU2+Lf3r/N6W041/7e6cn/6yHP+7216+t0XWxKOvxk1
xt1L2Fkh2aGWws5lfFocGTUy/AcjmhDZFzqR9ipBYv2KM0bZjQUX42gNjCCMWHGF
UZFuVouPmimz5vY3LRi9p10zqv4+W1ClBhUyPV14VKSG99rJL3A0/AhDCQ0SELQ/
AgMBAAGjggFjMIIBXzAJBgNVHRMEAjAAMC0GCWCGSAGG+EIBDQQgFh5FYXN5LVJT
QSBHZW5lcmF0ZWQgQ2VydGlmaWNhdGUwHQYDVR0OBBYEFEZVHmJKlxrnYylhcKZd
p6dO0eZZMIHhBgNVHSMEgdkwgdaAFBLNYATSoICecO3Gmbh7LMZS/RmhoYGypIGv
MIGsMQswCQYDVQQGEwJVUzELMAkGA1UECBMCT0gxETAPBgNVBAcTCENvbHVtYnVz
MRIwEAYDVQQKEwlWaWtpbmdWUE4xHTAbBgNVBAsTFE15T3JnYW5pemF0aW9uYWxV
bml0MRUwEwYDVQQDEwxWaWtpbmdWUE4gQ0ExEDAOBgNVBCkTB0Vhc3lSU0ExITAf
BgkqhkiG9w0BCQEWEm1lQG15aG9zdC5teWRvbWFpboIJAM81he6Avyo+MBMGA1Ud
JQQMMAoGCCsGAQUFBwMCMAsGA1UdDwQEAwIHgDANBgkqhkiG9w0BAQQFAAOCAgEA
Hm/stG+kwJIfHZCEgAF8SZOJrOhWnx52DoCPLedJ6GDj8XDUdFCmod6XcqpSL0Cr
YcQ6aFOZBy0T+tYUMgs/oKScrEVOOMMpPpPYcW0aYFiELqZP9hCBUa/fgekOuDQP
V3tuZ/cj3ixKZS7AaEIWqLofd6TW2sen0UpKaHd2mFTYfNZV+DSUL1CKjto0gHjX
FOsTHMng9W3RTD8CN8tu+FX9Oox+gXRd4UkTcl+x1vgr/XFoKdnu36W4nSZjHd+a
0K1AEcDxoUKe/JuOcAdwodtXKQXfNCqOwow1hxXuiSZMwmmTMXbwUW1uORp/8yg+
M51qEmvTcLz28iu7T4sQ+nz1+ftaJUJw6s3LEIxgVF5B2DsLiQHlFOCvbSYYWcQh
s+G88ZGaowCzu7aMo5rxYKI6/FM/eHR5CcADOAbeyjqZN1skIoxjJr1OkfoMEH9+
dxJxyUkOK9HpE2slEOCHk2jiqd0NnuWVjx6MZbSYvcQTSekefKN47gN3xkei6ovK
kho+jJG2ubQ87WVk6BnKmcSz6DnqzZWJlma4Ang9giiskUlqsQ+fftxDFS/2lWt5
R/tjz9P0RKEtMhpsdIa+Sqs1IkHJatJRYvi1HLujjEFUxA0xUvWY9Ge+ddvYEEss
m/Ln6cdoL7ot67RAeW3IsrECKGv5wpj5aUhaVL7M4dM=
-----END CERTIFICATE-----
