Certificate:
    Data:
        Version: 3 (0x2)
        Serial Number: 2714 (0xa9a)
    Signature Algorithm: md5WithRSAEncryption
        Issuer: C=US, ST=OH, L=Columbus, O=VikingVPN, OU=MyOrganizationalUnit, CN=VikingVPN CA/name=EasyRSA/emailAddress=me@myhost.mydomain
        Validity
            Not Before: Aug 29 18:03:36 2014 GMT
            Not After : Aug 26 18:03:36 2024 GMT
        Subject: CN=Client942Certd3b14a
        Subject Public Key Info:
            Public Key Algorithm: rsaEncryption
                Public-Key: (4096 bit)
                Modulus:
                    00:b2:b7:00:98:5a:d5:ad:15:97:86:ab:f5:ec:af:
                    c2:b7:25:65:d8:74:84:f7:cb:78:28:af:8b:b5:53:
                    0f:16:09:18:1d:01:b5:b2:b0:97:4a:8d:95:2f:3f:
                    ff:1c:b2:80:b0:8c:08:fa:d5:f7:48:e8:6f:5d:49:
                    75:db:e6:f1:77:c6:37:aa:c2:96:e9:dd:48:8b:11:
                    1b:1d:a5:83:f5:24:d7:98:f5:bc:0d:ad:20:de:cb:
                    5f:b9:71:20:0d:27:73:ef:d1:f2:c9:e2:cc:df:20:
                    28:56:29:24:f8:8f:6f:ed:0f:9e:4a:e2:29:2e:88:
                    9a:1d:2e:56:d3:b6:8f:db:74:6f:0a:0a:5c:67:4c:
                    7c:47:6b:94:5b:1b:4d:07:fb:2b:44:48:36:09:eb:
                    1a:4f:2c:6f:6a:a2:9e:b7:51:76:f7:10:49:cd:10:
                    1e:98:62:76:04:7e:4c:2f:e9:c7:f7:3f:42:09:29:
                    fb:83:80:0f:21:63:dc:ed:77:d9:88:92:03:d9:dd:
                    b7:e1:84:02:d9:df:e0:80:53:d1:1b:18:4d:85:cb:
                    b7:a8:7a:74:34:2d:88:d1:ea:c6:f6:f0:20:2f:9b:
                    52:e2:26:1c:42:f1:da:a0:b8:e9:50:18:e7:65:b0:
                    c2:9a:23:47:f8:31:33:b5:d0:d6:39:1f:ad:4b:d5:
                    30:16:11:52:01:5b:bc:06:66:32:38:bf:e7:02:c8:
                    29:08:07:ea:9f:92:67:2d:33:67:42:2d:a3:4d:13:
                    b0:ca:94:88:6b:2d:5c:80:28:f4:5f:b7:cd:6c:90:
                    06:49:17:7d:9a:df:7a:af:7b:97:2a:3a:52:d7:3b:
                    da:14:f6:b8:af:72:8d:2c:42:d1:3e:94:1c:fb:f8:
                    8b:7f:e8:80:0f:76:69:22:32:ed:6e:14:08:fd:d7:
                    f9:50:4f:d6:f6:2d:b1:69:e4:33:ad:61:a2:ef:9b:
                    c1:62:a9:f8:4f:f9:68:73:1e:30:84:30:ba:45:0a:
                    f0:b8:4e:05:34:8c:9a:75:8e:c7:40:6f:ac:10:92:
                    6a:26:e9:7d:90:69:c5:76:53:f9:8b:17:2d:df:8b:
                    b4:b7:19:f1:2a:8b:ac:c6:d8:f9:51:60:6e:51:ff:
                    60:51:f2:46:ba:b1:72:cb:fe:ee:51:2c:88:6b:c3:
                    e1:b2:01:0f:74:70:48:25:a1:c4:c3:7f:ba:42:69:
                    ef:9f:3b:12:2c:4c:7c:c3:c3:38:ce:93:37:33:06:
                    8c:54:36:06:7b:f9:8c:76:57:76:c7:cc:df:f7:32:
                    80:7f:90:23:77:72:56:4e:c9:4f:dd:00:c5:e9:78:
                    24:35:5f:e8:a9:87:01:e4:f3:f8:b6:99:62:9c:e3:
                    1d:c0:23
                Exponent: 65537 (0x10001)
        X509v3 extensions:
            X509v3 Basic Constraints: 
                CA:FALSE
            Netscape Comment: 
                Easy-RSA Generated Certificate
            X509v3 Subject Key Identifier: 
                7A:DD:9B:24:2E:41:F6:C6:11:38:30:D3:21:4F:50:56:3F:1B:14:71
            X509v3 Authority Key Identifier: 
                keyid:12:CD:60:04:D2:A0:80:9E:70:ED:C6:99:B8:7B:2C:C6:52:FD:19:A1
                DirName:/C=US/ST=OH/L=Columbus/O=VikingVPN/OU=MyOrganizationalUnit/CN=VikingVPN CA/name=EasyRSA/emailAddress=me@myhost.mydomain
                serial:CF:35:85:EE:80:BF:2A:3E

            X509v3 Extended Key Usage: 
                TLS Web Client Authentication
            X509v3 Key Usage: 
                Digital Signature
    Signature Algorithm: md5WithRSAEncryption
         75:4b:28:70:07:9f:da:9c:38:b2:81:42:be:4e:db:9c:f5:ea:
         f9:b8:f5:97:fd:00:65:01:6e:3c:26:fe:22:7a:38:0b:ad:2e:
         e0:0d:61:5a:b6:df:9c:64:67:0b:30:d0:d0:47:78:b3:da:4b:
         54:90:31:14:25:0e:df:fc:ce:d6:ce:ac:79:a1:d2:3d:50:e7:
         ad:58:a0:4e:bd:83:fd:80:53:d4:2a:1a:81:1c:26:c2:56:40:
         41:91:29:5b:e9:93:87:a3:9d:9e:88:cc:c5:6d:4c:f2:c6:56:
         b5:59:cb:db:9f:a1:40:18:30:b4:ca:bf:a3:55:d0:1f:b4:eb:
         dd:d0:9b:bb:aa:c2:6e:85:fc:7d:fd:9f:d7:05:69:41:23:35:
         37:22:56:65:9b:d5:8c:45:8b:e9:52:16:e2:f0:f9:09:e3:a1:
         fa:31:63:48:ec:70:a2:3e:98:cb:11:ba:85:97:11:57:86:55:
         3d:19:6d:fa:e0:15:9f:47:a0:ad:5b:00:04:cb:c4:cf:7b:6f:
         ab:05:4b:32:d8:37:d1:a8:85:01:c5:8e:a1:ce:31:2c:fa:c6:
         ae:9c:b7:16:b8:df:96:d5:7f:60:65:05:11:c1:b1:6b:2b:45:
         7c:09:cc:42:c2:66:e5:c6:cb:50:94:81:ee:1a:67:33:57:7b:
         d1:22:11:c6:30:66:51:3c:a9:c6:00:23:2d:6a:e9:6e:2d:5f:
         89:1d:16:98:a5:eb:3f:65:ef:07:24:b6:b7:2e:62:d7:4e:96:
         aa:8e:73:e2:1a:83:f4:9e:b3:41:cf:ce:d5:36:b0:a8:a8:57:
         f9:a3:e8:ef:c0:96:dd:62:a8:13:43:1c:63:bb:8d:bd:47:67:
         50:22:62:91:8e:3b:1e:a3:6c:d0:ca:d2:89:9e:b9:64:0f:f2:
         4d:19:a0:23:31:b3:89:95:ac:92:ae:94:0f:50:f1:41:76:26:
         a8:cb:6d:73:9f:1c:c1:36:3d:27:ff:81:7e:ca:39:27:05:c0:
         19:cf:59:9b:a3:46:8d:1b:88:79:6f:3a:83:c9:ca:bb:df:6f:
         d5:23:56:7c:d2:6f:b9:71:e2:cc:5d:04:5c:b8:4c:3a:a8:ff:
         27:d6:9f:c3:ce:8b:cc:46:cd:7e:ab:1e:c5:27:1b:f7:4d:1e:
         fd:85:cc:b5:ae:a2:89:b3:cc:55:6a:f9:6e:57:67:3a:72:6c:
         a5:62:69:7d:eb:bd:11:2d:5e:df:0e:7d:86:4d:a6:6d:fc:6f:
         71:bf:0c:6c:c6:ef:4d:0e:73:1a:df:6b:a9:2c:2a:e2:98:f4:
         88:0d:04:b9:b8:fb:cf:63:82:43:9b:b8:a7:15:d1:07:49:91:
         f1:96:56:f8:af:da:13:f6
-----BEGIN CERTIFICATE-----
MIIGrDCCBJSgAwIBAgICCpowDQYJKoZIhvcNAQEEBQAwgawxCzAJBgNVBAYTAlVT
MQswCQYDVQQIEwJPSDERMA8GA1UEBxMIQ29sdW1idXMxEjAQBgNVBAoTCVZpa2lu
Z1ZQTjEdMBsGA1UECxMUTXlPcmdhbml6YXRpb25hbFVuaXQxFTATBgNVBAMTDFZp
a2luZ1ZQTiBDQTEQMA4GA1UEKRMHRWFzeVJTQTEhMB8GCSqGSIb3DQEJARYSbWVA
bXlob3N0Lm15ZG9tYWluMB4XDTE0MDgyOTE4MDMzNloXDTI0MDgyNjE4MDMzNlow
HjEcMBoGA1UEAxMTQ2xpZW50OTQyQ2VydGQzYjE0YTCCAiIwDQYJKoZIhvcNAQEB
BQADggIPADCCAgoCggIBALK3AJha1a0Vl4ar9eyvwrclZdh0hPfLeCivi7VTDxYJ
GB0BtbKwl0qNlS8//xyygLCMCPrV90job11Jddvm8XfGN6rClundSIsRGx2lg/Uk
15j1vA2tIN7LX7lxIA0nc+/R8snizN8gKFYpJPiPb+0PnkriKS6Imh0uVtO2j9t0
bwoKXGdMfEdrlFsbTQf7K0RINgnrGk8sb2qinrdRdvcQSc0QHphidgR+TC/px/c/
Qgkp+4OADyFj3O132YiSA9ndt+GEAtnf4IBT0RsYTYXLt6h6dDQtiNHqxvbwIC+b
UuImHELx2qC46VAY52WwwpojR/gxM7XQ1jkfrUvVMBYRUgFbvAZmMji/5wLIKQgH
6p+SZy0zZ0Ito00TsMqUiGstXIAo9F+3zWyQBkkXfZrfeq97lyo6Utc72hT2uK9y
jSxC0T6UHPv4i3/ogA92aSIy7W4UCP3X+VBP1vYtsWnkM61hou+bwWKp+E/5aHMe
MIQwukUK8LhOBTSMmnWOx0BvrBCSaibpfZBpxXZT+YsXLd+LtLcZ8SqLrMbY+VFg
blH/YFHyRrqxcsv+7lEsiGvD4bIBD3RwSCWhxMN/ukJp7587EixMfMPDOM6TNzMG
jFQ2Bnv5jHZXdsfM3/cygH+QI3dyVk7JT90Axel4JDVf6KmHAeTz+LaZYpzjHcAj
AgMBAAGjggFjMIIBXzAJBgNVHRMEAjAAMC0GCWCGSAGG+EIBDQQgFh5FYXN5LVJT
QSBHZW5lcmF0ZWQgQ2VydGlmaWNhdGUwHQYDVR0OBBYEFHrdmyQuQfbGETgw0yFP
UFY/GxRxMIHhBgNVHSMEgdkwgdaAFBLNYATSoICecO3Gmbh7LMZS/RmhoYGypIGv
MIGsMQswCQYDVQQGEwJVUzELMAkGA1UECBMCT0gxETAPBgNVBAcTCENvbHVtYnVz
MRIwEAYDVQQKEwlWaWtpbmdWUE4xHTAbBgNVBAsTFE15T3JnYW5pemF0aW9uYWxV
bml0MRUwEwYDVQQDEwxWaWtpbmdWUE4gQ0ExEDAOBgNVBCkTB0Vhc3lSU0ExITAf
BgkqhkiG9w0BCQEWEm1lQG15aG9zdC5teWRvbWFpboIJAM81he6Avyo+MBMGA1Ud
JQQMMAoGCCsGAQUFBwMCMAsGA1UdDwQEAwIHgDANBgkqhkiG9w0BAQQFAAOCAgEA
dUsocAef2pw4soFCvk7bnPXq+bj1l/0AZQFuPCb+Ino4C60u4A1hWrbfnGRnCzDQ
0Ed4s9pLVJAxFCUO3/zO1s6seaHSPVDnrVigTr2D/YBT1CoagRwmwlZAQZEpW+mT
h6OdnojMxW1M8sZWtVnL25+hQBgwtMq/o1XQH7Tr3dCbu6rCboX8ff2f1wVpQSM1
NyJWZZvVjEWL6VIW4vD5CeOh+jFjSOxwoj6YyxG6hZcRV4ZVPRlt+uAVn0egrVsA
BMvEz3tvqwVLMtg30aiFAcWOoc4xLPrGrpy3FrjfltV/YGUFEcGxaytFfAnMQsJm
5cbLUJSB7hpnM1d70SIRxjBmUTypxgAjLWrpbi1fiR0WmKXrP2XvByS2ty5i106W
qo5z4hqD9J6zQc/O1TawqKhX+aPo78CW3WKoE0McY7uNvUdnUCJikY47HqNs0MrS
iZ65ZA/yTRmgIzGziZWskq6UD1DxQXYmqMttc58cwTY9J/+Bfso5JwXAGc9Zm6NG
jRuIeW86g8nKu99v1SNWfNJvuXHizF0EXLhMOqj/J9afw86LzEbNfqsexScb900e
/YXMta6iibPMVWr5bldnOnJspWJpfeu9ES1e3w59hk2mbfxvcb8MbMbvTQ5zGt9r
qSwq4pj0iA0Eubj7z2OCQ5u4pxXRB0mR8ZZW+K/aE/Y=
-----END CERTIFICATE-----
