Certificate:
    Data:
        Version: 3 (0x2)
        Serial Number: 2718 (0xa9e)
    Signature Algorithm: md5WithRSAEncryption
        Issuer: C=US, ST=OH, L=Columbus, O=VikingVPN, OU=MyOrganizationalUnit, CN=VikingVPN CA/name=EasyRSA/emailAddress=me@myhost.mydomain
        Validity
            Not Before: Aug 30 05:37:03 2014 GMT
            Not After : Aug 27 05:37:03 2024 GMT
        Subject: CN=Client931Cert2bb8a9
        Subject Public Key Info:
            Public Key Algorithm: rsaEncryption
                Public-Key: (4096 bit)
                Modulus:
                    00:9d:43:b7:e4:0a:f5:32:29:d2:89:ac:b8:59:8e:
                    68:4d:fb:6f:36:48:0a:e2:c1:84:74:ff:a8:8b:1f:
                    d4:e3:15:53:68:19:3e:9e:92:18:4b:85:d1:18:f1:
                    dd:79:47:df:c1:24:98:90:f2:35:b8:6f:58:f0:dc:
                    f2:c9:47:03:f3:c0:56:72:1d:29:5c:d8:71:1d:ee:
                    df:2e:cb:6c:ba:54:22:79:65:5e:d7:02:24:9b:2a:
                    70:b4:fc:48:3d:67:32:21:e2:59:6e:df:61:52:2a:
                    f0:9b:5b:2d:59:55:60:8f:4c:2d:bb:e5:fe:f6:75:
                    f7:4c:87:12:41:00:9f:1f:7d:77:04:30:a6:c7:ce:
                    33:c6:c8:50:5a:02:a4:ce:a7:53:06:d1:1b:6e:f4:
                    8c:fb:4d:5f:51:bc:a7:2a:39:81:88:c3:b1:48:ea:
                    13:5f:92:a9:17:53:d1:45:72:97:b2:71:78:b2:8d:
                    9d:2a:b8:63:a9:95:37:00:00:f8:41:9d:ad:8c:ec:
                    f5:63:48:1d:56:88:9a:91:a7:aa:d9:3a:6f:86:d3:
                    ef:51:ea:19:58:1d:e7:c7:8c:e9:8a:fb:cd:ad:47:
                    65:2a:16:08:f7:e4:83:44:ce:2c:ca:b3:bc:81:da:
                    7f:b6:51:97:fd:2d:d6:88:39:b0:77:db:2b:bf:88:
                    4f:fe:42:a1:ea:1b:21:aa:ff:a8:0b:c6:41:e5:5c:
                    29:4d:18:89:98:b0:79:2d:f2:e0:3b:0d:8c:3b:43:
                    67:2b:c1:0e:32:73:f6:35:62:d8:ff:dd:6e:fb:71:
                    28:b2:b6:8b:ae:a7:7d:0d:0b:95:f6:96:32:a0:57:
                    a0:c2:79:4e:6f:fe:3c:e2:4e:be:88:40:cd:90:cd:
                    01:92:82:2e:1f:9e:92:8b:b6:3a:a9:27:a1:2b:49:
                    a6:9d:cd:74:d7:2d:84:03:6e:ce:ef:7d:d4:d1:c1:
                    a0:44:06:9c:e8:a9:41:36:fc:f3:ab:86:3e:b2:9f:
                    cd:79:ae:33:42:3e:10:08:4f:82:e5:a2:ab:70:c4:
                    52:28:97:9b:09:42:a3:53:b9:e3:9a:4c:da:42:72:
                    63:77:3c:40:f6:8c:18:56:d8:8e:0d:66:70:30:b7:
                    ad:41:73:40:21:cf:ae:ff:ad:16:ea:9c:49:c9:b9:
                    79:91:bc:c1:22:34:62:2b:6b:a7:24:60:85:b9:52:
                    09:86:30:b5:a0:d2:72:2c:05:0d:69:b3:95:5c:80:
                    b2:58:82:a4:ea:f1:14:70:ad:25:69:84:bc:e3:ef:
                    e7:d1:59:71:9f:4a:72:aa:f0:c3:6b:5c:e5:e1:44:
                    81:9f:f8:13:69:fa:7d:0a:67:c3:85:4c:cb:9c:37:
                    f5:33:fd
                Exponent: 65537 (0x10001)
        X509v3 extensions:
            X509v3 Basic Constraints: 
                CA:FALSE
            Netscape Comment: 
                Easy-RSA Generated Certificate
            X509v3 Subject Key Identifier: 
                04:94:94:AB:C1:93:B7:3A:C3:C1:6D:4A:CB:60:33:85:83:F8:90:23
            X509v3 Authority Key Identifier: 
                keyid:12:CD:60:04:D2:A0:80:9E:70:ED:C6:99:B8:7B:2C:C6:52:FD:19:A1
                DirName:/C=US/ST=OH/L=Columbus/O=VikingVPN/OU=MyOrganizationalUnit/CN=VikingVPN CA/name=EasyRSA/emailAddress=me@myhost.mydomain
                serial:CF:35:85:EE:80:BF:2A:3E

            X509v3 Extended Key Usage: 
                TLS Web Client Authentication
            X509v3 Key Usage: 
                Digital Signature
    Signature Algorithm: md5WithRSAEncryption
         9f:dc:e9:7f:3c:95:87:e4:16:8a:a4:34:05:7c:c9:29:08:8d:
         c7:a0:d9:0d:ac:b7:9a:23:c1:f2:26:83:65:65:bf:97:4f:50:
         c1:86:f6:e2:f9:0d:1f:36:56:63:a4:d3:74:a2:e3:78:e0:2b:
         f3:c9:96:0a:d4:f6:03:a9:c5:ad:10:d1:01:ff:10:76:d6:36:
         91:93:21:9c:7c:68:3d:e2:eb:5f:bd:11:86:51:c7:19:81:3d:
         50:bc:fd:3d:36:c4:0c:00:b7:ca:a3:b1:15:b6:b9:7f:77:70:
         15:50:6c:7c:fa:d3:1c:ed:69:c6:8d:a8:94:b9:3e:d0:69:73:
         5b:99:4b:20:d4:28:26:ad:69:a4:f2:09:43:0d:48:21:c5:8a:
         18:8c:5d:05:04:e9:3e:62:52:c5:d0:6c:93:ac:b4:04:9d:3c:
         23:99:60:88:82:79:b4:c7:48:15:ab:13:4e:63:67:f6:17:ac:
         ac:e7:9a:7d:ad:fa:91:f0:32:77:42:da:22:11:4d:f6:6a:15:
         50:b3:b6:f5:d6:cb:52:30:2f:a3:07:cb:73:fc:7c:b0:8c:2e:
         3e:61:85:5d:5a:10:0c:f0:ee:9b:6a:c3:62:f4:0a:20:26:e1:
         33:11:09:a5:de:cf:fe:63:5e:43:63:1f:ae:9d:cd:c1:29:77:
         8e:10:43:37:ea:04:f7:1e:c4:f4:d0:a4:f7:5d:9d:6c:89:3c:
         ea:e7:19:46:77:1b:8c:3b:cb:8d:54:1d:7d:90:6c:cf:6c:b2:
         79:44:7a:47:a6:b8:8b:b7:1b:6b:98:52:04:97:77:b1:67:d8:
         79:29:bb:97:d0:28:16:69:08:6a:22:93:ef:f7:e4:b4:01:10:
         30:7b:63:55:83:6f:ac:53:f0:62:6a:25:c1:75:b4:91:ce:f7:
         ba:3f:16:bd:ea:01:d5:e0:2d:0d:53:74:88:61:4e:93:ca:db:
         5f:8a:8b:02:25:ef:2a:83:49:ad:09:22:ab:37:f6:56:88:dc:
         62:07:89:19:99:84:cb:6b:0b:2b:c0:e1:80:2d:92:14:df:68:
         cd:fa:0c:b0:cb:a5:f0:d5:08:ba:0c:27:42:81:43:a2:90:cb:
         3e:6f:8e:99:0a:64:05:fd:18:c1:15:1e:b2:23:85:70:49:fc:
         d8:b0:e0:04:41:c1:2d:16:e6:2c:f2:09:42:35:57:9b:33:b9:
         2a:e7:2a:6e:d7:b7:79:da:2f:f0:fd:f0:b4:93:90:e9:d8:7c:
         32:04:eb:2d:8d:f2:93:01:45:6d:24:a2:87:18:15:e0:c3:94:
         8e:a0:a0:7d:20:c7:db:51:03:3e:33:82:72:1e:6c:09:57:0f:
         94:70:e6:df:f0:d3:3a:96
-----BEGIN CERTIFICATE-----
MIIGrDCCBJSgAwIBAgICCp4wDQYJKoZIhvcNAQEEBQAwgawxCzAJBgNVBAYTAlVT
MQswCQYDVQQIEwJPSDERMA8GA1UEBxMIQ29sdW1idXMxEjAQBgNVBAoTCVZpa2lu
Z1ZQTjEdMBsGA1UECxMUTXlPcmdhbml6YXRpb25hbFVuaXQxFTATBgNVBAMTDFZp
a2luZ1ZQTiBDQTEQMA4GA1UEKRMHRWFzeVJTQTEhMB8GCSqGSIb3DQEJARYSbWVA
bXlob3N0Lm15ZG9tYWluMB4XDTE0MDgzMDA1MzcwM1oXDTI0MDgyNzA1MzcwM1ow
HjEcMBoGA1UEAxMTQ2xpZW50OTMxQ2VydDJiYjhhOTCCAiIwDQYJKoZIhvcNAQEB
BQADggIPADCCAgoCggIBAJ1Dt+QK9TIp0omsuFmOaE37bzZICuLBhHT/qIsf1OMV
U2gZPp6SGEuF0Rjx3XlH38EkmJDyNbhvWPDc8slHA/PAVnIdKVzYcR3u3y7LbLpU
InllXtcCJJsqcLT8SD1nMiHiWW7fYVIq8JtbLVlVYI9MLbvl/vZ190yHEkEAnx99
dwQwpsfOM8bIUFoCpM6nUwbRG270jPtNX1G8pyo5gYjDsUjqE1+SqRdT0UVyl7Jx
eLKNnSq4Y6mVNwAA+EGdrYzs9WNIHVaImpGnqtk6b4bT71HqGVgd58eM6Yr7za1H
ZSoWCPfkg0TOLMqzvIHaf7ZRl/0t1og5sHfbK7+IT/5CoeobIar/qAvGQeVcKU0Y
iZiweS3y4DsNjDtDZyvBDjJz9jVi2P/dbvtxKLK2i66nfQ0LlfaWMqBXoMJ5Tm/+
POJOvohAzZDNAZKCLh+ekou2OqknoStJpp3NdNcthANuzu991NHBoEQGnOipQTb8
86uGPrKfzXmuM0I+EAhPguWiq3DEUiiXmwlCo1O545pM2kJyY3c8QPaMGFbYjg1m
cDC3rUFzQCHPrv+tFuqcScm5eZG8wSI0YitrpyRghblSCYYwtaDSciwFDWmzlVyA
sliCpOrxFHCtJWmEvOPv59FZcZ9Kcqrww2tc5eFEgZ/4E2n6fQpnw4VMy5w39TP9
AgMBAAGjggFjMIIBXzAJBgNVHRMEAjAAMC0GCWCGSAGG+EIBDQQgFh5FYXN5LVJT
QSBHZW5lcmF0ZWQgQ2VydGlmaWNhdGUwHQYDVR0OBBYEFASUlKvBk7c6w8FtSstg
M4WD+JAjMIHhBgNVHSMEgdkwgdaAFBLNYATSoICecO3Gmbh7LMZS/RmhoYGypIGv
MIGsMQswCQYDVQQGEwJVUzELMAkGA1UECBMCT0gxETAPBgNVBAcTCENvbHVtYnVz
MRIwEAYDVQQKEwlWaWtpbmdWUE4xHTAbBgNVBAsTFE15T3JnYW5pemF0aW9uYWxV
bml0MRUwEwYDVQQDEwxWaWtpbmdWUE4gQ0ExEDAOBgNVBCkTB0Vhc3lSU0ExITAf
BgkqhkiG9w0BCQEWEm1lQG15aG9zdC5teWRvbWFpboIJAM81he6Avyo+MBMGA1Ud
JQQMMAoGCCsGAQUFBwMCMAsGA1UdDwQEAwIHgDANBgkqhkiG9w0BAQQFAAOCAgEA
n9zpfzyVh+QWiqQ0BXzJKQiNx6DZDay3miPB8iaDZWW/l09QwYb24vkNHzZWY6TT
dKLjeOAr88mWCtT2A6nFrRDRAf8QdtY2kZMhnHxoPeLrX70RhlHHGYE9ULz9PTbE
DAC3yqOxFba5f3dwFVBsfPrTHO1pxo2olLk+0GlzW5lLINQoJq1ppPIJQw1IIcWK
GIxdBQTpPmJSxdBsk6y0BJ08I5lgiIJ5tMdIFasTTmNn9hesrOeafa36kfAyd0La
IhFN9moVULO29dbLUjAvowfLc/x8sIwuPmGFXVoQDPDum2rDYvQKICbhMxEJpd7P
/mNeQ2Mfrp3NwSl3jhBDN+oE9x7E9NCk912dbIk86ucZRncbjDvLjVQdfZBsz2yy
eUR6R6a4i7cba5hSBJd3sWfYeSm7l9AoFmkIaiKT7/fktAEQMHtjVYNvrFPwYmol
wXW0kc73uj8WveoB1eAtDVN0iGFOk8rbX4qLAiXvKoNJrQkiqzf2VojcYgeJGZmE
y2sLK8DhgC2SFN9ozfoMsMul8NUIugwnQoFDopDLPm+OmQpkBf0YwRUesiOFcEn8
2LDgBEHBLRbmLPIJQjVXmzO5Kucqbte3edov8P3wtJOQ6dh8MgTrLY3ykwFFbSSi
hxgV4MOUjqCgfSDH21EDPjOCch5sCVcPlHDm3/DTOpY=
-----END CERTIFICATE-----
