Certificate:
    Data:
        Version: 3 (0x2)
        Serial Number: 2766 (0xace)
    Signature Algorithm: md5WithRSAEncryption
        Issuer: C=US, ST=OH, L=Columbus, O=VikingVPN, OU=MyOrganizationalUnit, CN=VikingVPN CA/name=EasyRSA/emailAddress=me@myhost.mydomain
        Validity
            Not Before: Sep  4 01:49:39 2014 GMT
            Not After : Sep  1 01:49:39 2024 GMT
        Subject: CN=Client962Cert0618ca
        Subject Public Key Info:
            Public Key Algorithm: rsaEncryption
                Public-Key: (4096 bit)
                Modulus:
                    00:ae:fa:a6:b0:86:bb:4c:14:14:f0:f6:48:a1:eb:
                    2c:fa:f5:71:04:64:3c:d3:09:fa:e9:a2:9f:93:6a:
                    9e:21:8d:b7:58:bb:ea:7a:87:fb:71:74:3d:b6:85:
                    f4:41:6a:0a:53:cc:1c:0c:bb:5d:57:f1:dc:57:6f:
                    51:c6:89:cc:69:5b:6d:e2:bc:fe:b7:da:34:60:9b:
                    08:b3:79:1e:f7:8c:fb:be:63:eb:8e:51:12:5c:f7:
                    55:71:70:de:52:1e:5a:4e:08:83:fa:ea:1f:73:dd:
                    f4:78:fd:6f:68:f6:11:5b:ad:bf:27:58:f3:e3:35:
                    a1:55:8d:d9:49:9e:74:ab:f8:ab:c5:62:46:d3:46:
                    0f:70:59:c6:ae:a4:3c:5b:57:3d:5a:cd:83:51:d0:
                    c2:60:4b:7f:19:f3:99:fc:99:16:d3:d8:f7:7e:19:
                    40:fd:f4:6d:61:31:a9:e1:48:fb:f0:b5:70:53:99:
                    18:6e:5b:de:d1:60:e4:dc:e4:13:97:cb:06:a0:ec:
                    48:84:6f:c8:c2:9a:d0:f9:8b:c5:d6:e8:38:8d:16:
                    9a:ab:c4:ed:b3:d1:5e:87:90:21:da:f5:e5:92:aa:
                    4a:86:65:d8:3e:da:e3:9d:10:8f:9c:59:8e:74:26:
                    20:5f:96:de:46:b3:78:12:f3:88:5d:87:f8:87:3a:
                    87:38:bd:73:59:2c:9c:ca:93:ef:86:86:a6:d0:39:
                    57:ff:d4:19:98:97:a6:36:cd:a1:34:f5:40:c0:48:
                    aa:ff:2f:72:db:12:0e:be:4a:ea:9f:68:17:d8:2a:
                    0c:8d:0b:63:62:89:4c:c6:5e:b1:e6:04:ad:f1:a3:
                    ac:9f:6d:15:3c:b1:95:f6:b8:03:8f:10:08:67:55:
                    3a:8f:e1:f6:2b:f0:17:18:f7:29:dc:3a:25:37:2a:
                    60:1e:f4:96:bf:67:86:b5:73:0d:fc:70:29:a5:ed:
                    8c:11:31:71:ee:c0:25:40:e7:04:ce:43:f5:24:64:
                    f2:7f:f2:ae:62:0f:e9:f9:70:16:03:1f:7a:bc:78:
                    d5:34:75:3c:26:dd:25:10:bd:72:3c:6f:90:d4:dd:
                    7e:0e:02:80:27:57:9f:b7:70:9d:88:64:4a:77:7c:
                    57:64:f2:96:43:8b:8a:14:99:6f:f7:6b:bc:0d:b9:
                    a6:67:9c:91:41:be:37:16:a6:47:21:3d:13:5a:0f:
                    3f:20:16:b6:34:f7:24:a0:7f:7b:5f:9a:e1:99:f2:
                    ef:ca:1b:53:5c:0b:51:19:d4:f0:ca:08:19:59:0a:
                    b0:4d:19:f0:cf:3b:47:88:58:9b:54:a8:a2:ac:51:
                    c9:a2:fb:25:59:d5:e8:84:a1:f1:a9:45:a7:35:bf:
                    79:90:5b
                Exponent: 65537 (0x10001)
        X509v3 extensions:
            X509v3 Basic Constraints: 
                CA:FALSE
            Netscape Comment: 
                Easy-RSA Generated Certificate
            X509v3 Subject Key Identifier: 
                57:42:9D:F1:68:21:E5:FF:7D:3F:CB:25:F3:B8:F7:9D:2A:F6:69:84
            X509v3 Authority Key Identifier: 
                keyid:12:CD:60:04:D2:A0:80:9E:70:ED:C6:99:B8:7B:2C:C6:52:FD:19:A1
                DirName:/C=US/ST=OH/L=Columbus/O=VikingVPN/OU=MyOrganizationalUnit/CN=VikingVPN CA/name=EasyRSA/emailAddress=me@myhost.mydomain
                serial:CF:35:85:EE:80:BF:2A:3E

            X509v3 Extended Key Usage: 
                TLS Web Client Authentication
            X509v3 Key Usage: 
                Digital Signature
    Signature Algorithm: md5WithRSAEncryption
         3b:26:41:1b:1b:29:f4:4a:42:3a:67:a0:10:3b:d6:bb:b3:0a:
         48:00:1a:14:e7:55:63:f4:f8:cf:94:1e:ed:4d:83:9d:35:fc:
         4a:af:85:99:e4:dd:11:70:b1:15:b6:ac:52:e6:22:9d:1a:1c:
         5e:f9:2e:24:c3:48:81:dd:3e:b0:d9:86:f5:92:60:8f:85:57:
         31:62:a4:78:00:b0:e7:bb:f3:f9:56:2b:c8:67:11:50:dc:7c:
         f0:57:89:bc:ca:eb:3a:af:1e:6e:e3:7c:bd:a1:95:21:7d:e0:
         5b:67:4f:5e:b6:0c:b9:2f:b3:16:3d:3e:c3:3b:d7:d6:69:d1:
         fd:92:7b:a6:42:72:ac:a9:eb:c9:89:04:a2:14:ae:ee:c3:2e:
         e1:9e:2e:e6:66:c7:63:2c:33:8b:82:3d:47:3d:90:54:f5:d8:
         b8:a3:bd:f6:38:ad:88:79:48:db:63:55:da:e2:ef:76:1d:f6:
         de:ec:02:79:f7:31:2a:4e:30:ec:fb:1e:d4:ec:2a:de:f1:80:
         7c:d6:d0:f3:12:61:63:17:fd:fd:df:a3:0a:7b:49:6e:ca:30:
         4b:62:09:26:49:5e:e2:16:4f:4c:66:36:91:1d:c7:a6:60:d3:
         f0:ab:13:c1:25:ea:d1:a3:cf:19:8f:47:2e:c2:44:0e:5b:4d:
         82:cd:2d:e5:32:af:7d:e9:bf:d9:b3:45:b5:b4:4f:22:40:e1:
         bc:17:16:50:d3:c9:b7:2c:c5:f7:d8:ed:8e:64:cf:cd:1c:c5:
         77:da:59:c9:8e:3c:e3:fa:10:38:f8:7f:eb:1c:d9:95:01:c9:
         2b:85:40:e8:91:97:3c:2d:9a:ab:5c:b1:61:b1:c8:ef:1b:fc:
         fc:6b:93:b8:c5:90:0a:6f:c7:b1:48:44:b5:85:5b:9d:27:f6:
         66:47:77:f6:97:be:c9:6e:89:cd:af:3b:c2:7b:67:48:cf:d5:
         aa:53:1e:52:6d:c3:23:76:de:79:df:d0:fe:88:b1:ae:8a:36:
         8e:cc:07:b2:cf:8f:10:92:44:18:cd:37:63:1b:40:1b:de:33:
         e3:78:31:ad:9d:8d:b6:c7:51:fe:ae:b3:ac:1a:fb:b0:2d:e6:
         78:99:df:59:1c:29:7e:02:fe:55:6c:a6:93:ef:eb:f7:e9:b7:
         03:56:3a:f0:b2:c2:78:ca:99:f3:b0:de:21:70:cc:00:0e:7b:
         97:94:5c:d0:7b:f5:00:43:10:01:7e:12:3a:e0:c1:5e:9d:81:
         76:6c:a7:6f:f8:91:d8:88:e4:c7:95:58:a8:79:66:66:3e:32:
         04:25:57:e1:53:96:83:84:0c:e7:51:ba:84:76:d4:67:22:f6:
         5c:f5:8f:81:6c:c4:d1:8e
-----BEGIN CERTIFICATE-----
MIIGrDCCBJSgAwIBAgICCs4wDQYJKoZIhvcNAQEEBQAwgawxCzAJBgNVBAYTAlVT
MQswCQYDVQQIEwJPSDERMA8GA1UEBxMIQ29sdW1idXMxEjAQBgNVBAoTCVZpa2lu
Z1ZQTjEdMBsGA1UECxMUTXlPcmdhbml6YXRpb25hbFVuaXQxFTATBgNVBAMTDFZp
a2luZ1ZQTiBDQTEQMA4GA1UEKRMHRWFzeVJTQTEhMB8GCSqGSIb3DQEJARYSbWVA
bXlob3N0Lm15ZG9tYWluMB4XDTE0MDkwNDAxNDkzOVoXDTI0MDkwMTAxNDkzOVow
HjEcMBoGA1UEAxMTQ2xpZW50OTYyQ2VydDA2MThjYTCCAiIwDQYJKoZIhvcNAQEB
BQADggIPADCCAgoCggIBAK76prCGu0wUFPD2SKHrLPr1cQRkPNMJ+umin5NqniGN
t1i76nqH+3F0PbaF9EFqClPMHAy7XVfx3FdvUcaJzGlbbeK8/rfaNGCbCLN5HveM
+75j645RElz3VXFw3lIeWk4Ig/rqH3Pd9Hj9b2j2EVutvydY8+M1oVWN2UmedKv4
q8ViRtNGD3BZxq6kPFtXPVrNg1HQwmBLfxnzmfyZFtPY934ZQP30bWExqeFI+/C1
cFOZGG5b3tFg5NzkE5fLBqDsSIRvyMKa0PmLxdboOI0WmqvE7bPRXoeQIdr15ZKq
SoZl2D7a450Qj5xZjnQmIF+W3kazeBLziF2H+Ic6hzi9c1ksnMqT74aGptA5V//U
GZiXpjbNoTT1QMBIqv8vctsSDr5K6p9oF9gqDI0LY2KJTMZeseYErfGjrJ9tFTyx
lfa4A48QCGdVOo/h9ivwFxj3Kdw6JTcqYB70lr9nhrVzDfxwKaXtjBExce7AJUDn
BM5D9SRk8n/yrmIP6flwFgMferx41TR1PCbdJRC9cjxvkNTdfg4CgCdXn7dwnYhk
Snd8V2TylkOLihSZb/drvA25pmeckUG+NxamRyE9E1oPPyAWtjT3JKB/e1+a4Zny
78obU1wLURnU8MoIGVkKsE0Z8M87R4hYm1SooqxRyaL7JVnV6ISh8alFpzW/eZBb
AgMBAAGjggFjMIIBXzAJBgNVHRMEAjAAMC0GCWCGSAGG+EIBDQQgFh5FYXN5LVJT
QSBHZW5lcmF0ZWQgQ2VydGlmaWNhdGUwHQYDVR0OBBYEFFdCnfFoIeX/fT/LJfO4
950q9mmEMIHhBgNVHSMEgdkwgdaAFBLNYATSoICecO3Gmbh7LMZS/RmhoYGypIGv
MIGsMQswCQYDVQQGEwJVUzELMAkGA1UECBMCT0gxETAPBgNVBAcTCENvbHVtYnVz
MRIwEAYDVQQKEwlWaWtpbmdWUE4xHTAbBgNVBAsTFE15T3JnYW5pemF0aW9uYWxV
bml0MRUwEwYDVQQDEwxWaWtpbmdWUE4gQ0ExEDAOBgNVBCkTB0Vhc3lSU0ExITAf
BgkqhkiG9w0BCQEWEm1lQG15aG9zdC5teWRvbWFpboIJAM81he6Avyo+MBMGA1Ud
JQQMMAoGCCsGAQUFBwMCMAsGA1UdDwQEAwIHgDANBgkqhkiG9w0BAQQFAAOCAgEA
OyZBGxsp9EpCOmegEDvWu7MKSAAaFOdVY/T4z5Qe7U2DnTX8Sq+FmeTdEXCxFbas
UuYinRocXvkuJMNIgd0+sNmG9ZJgj4VXMWKkeACw57vz+VYryGcRUNx88FeJvMrr
Oq8ebuN8vaGVIX3gW2dPXrYMuS+zFj0+wzvX1mnR/ZJ7pkJyrKnryYkEohSu7sMu
4Z4u5mbHYywzi4I9Rz2QVPXYuKO99jitiHlI22NV2uLvdh323uwCefcxKk4w7Pse
1Owq3vGAfNbQ8xJhYxf9/d+jCntJbsowS2IJJkle4hZPTGY2kR3HpmDT8KsTwSXq
0aPPGY9HLsJEDltNgs0t5TKvfem/2bNFtbRPIkDhvBcWUNPJtyzF99jtjmTPzRzF
d9pZyY484/oQOPh/6xzZlQHJK4VA6JGXPC2aq1yxYbHI7xv8/GuTuMWQCm/HsUhE
tYVbnSf2Zkd39pe+yW6Jza87wntnSM/VqlMeUm3DI3beed/Q/oixroo2jswHss+P
EJJEGM03YxtAG94z43gxrZ2NtsdR/q6zrBr7sC3meJnfWRwpfgL+VWymk+/r9+m3
A1Y68LLCeMqZ87DeIXDMAA57l5Rc0Hv1AEMQAX4SOuDBXp2Bdmynb/iR2Ijkx5VY
qHlmZj4yBCVX4VOWg4QM51G6hHbUZyL2XPWPgWzE0Y4=
-----END CERTIFICATE-----
