Certificate:
    Data:
        Version: 3 (0x2)
        Serial Number: 2772 (0xad4)
    Signature Algorithm: md5WithRSAEncryption
        Issuer: C=US, ST=OH, L=Columbus, O=VikingVPN, OU=MyOrganizationalUnit, CN=VikingVPN CA/name=EasyRSA/emailAddress=me@myhost.mydomain
        Validity
            Not Before: Sep  5 19:29:10 2014 GMT
            Not After : Sep  2 19:29:10 2024 GMT
        Subject: CN=Client958Cert3c69ee
        Subject Public Key Info:
            Public Key Algorithm: rsaEncryption
                Public-Key: (4096 bit)
                Modulus:
                    00:c1:61:62:c7:f7:b9:f9:7a:11:ba:b9:a9:30:ec:
                    68:03:b6:25:b1:08:78:0e:91:10:e0:bc:11:9e:d8:
                    c4:df:c4:74:dd:6b:9e:04:1f:76:5f:e0:b7:bd:d7:
                    17:7d:cf:f8:79:3f:38:f5:18:2b:34:ce:1c:ba:48:
                    de:07:ce:c9:f1:37:7a:04:28:b1:4f:55:fa:9d:39:
                    21:6f:9e:22:93:7f:1f:e3:85:8a:ad:c4:88:c0:2a:
                    91:4e:a6:7a:18:f2:ee:9b:fa:d9:a1:2a:74:24:1a:
                    c2:fa:1d:af:30:ec:78:92:2b:fd:58:1e:b8:9f:73:
                    4c:ae:66:85:14:47:26:86:22:96:87:d8:53:d6:c5:
                    0c:1f:60:54:2f:2e:a4:82:1a:11:6a:3d:56:84:54:
                    c0:8c:0a:a9:59:db:8a:99:b8:31:05:6f:18:5b:48:
                    06:1f:21:bd:14:6f:6c:76:1f:5e:f8:a1:69:74:37:
                    d6:92:9c:0e:c5:55:af:77:b6:7c:fe:a0:01:ee:9c:
                    b4:d2:35:b0:be:a0:23:53:9f:f4:01:5e:aa:d8:a3:
                    f2:2b:b7:24:04:74:f3:1b:dd:2f:92:42:16:81:96:
                    b2:4d:b0:2d:66:78:11:83:69:e0:62:7e:80:e7:89:
                    64:a5:29:b8:ca:f4:d3:16:01:2f:54:53:ac:37:0d:
                    8a:77:31:96:5c:a4:e7:cb:84:53:55:a3:3f:4b:4e:
                    03:ba:02:5c:3c:d7:b1:6e:31:a9:b1:8e:00:5f:4f:
                    0d:3b:87:49:52:cf:55:23:f1:42:00:bb:05:3f:ac:
                    3b:b4:8c:22:eb:83:4a:3b:4b:f3:c7:fa:78:37:a6:
                    45:d8:08:b0:b3:88:36:55:75:e6:5a:76:ea:f1:7e:
                    c9:9e:2b:f0:48:79:85:39:c6:21:ef:3b:5c:37:e7:
                    67:a3:e8:1e:58:70:5b:b5:2e:c2:df:ff:a0:1d:e8:
                    3c:66:f9:81:b3:e0:25:82:09:1b:39:1e:0c:cf:31:
                    79:b8:b5:c4:76:7d:51:53:7c:99:d6:86:df:9e:07:
                    bf:58:aa:3a:fb:f9:71:6b:da:73:31:a1:93:58:85:
                    a6:ea:fd:4d:cc:c0:45:7b:c5:9c:04:e5:e2:09:19:
                    e5:96:4e:d8:f0:39:ee:ed:b0:85:68:20:2c:3d:a7:
                    8b:dc:5c:f3:b4:48:51:b3:d1:13:f9:27:80:b5:a7:
                    5d:08:a2:e8:f5:8b:93:b4:74:36:e0:e0:77:c4:3f:
                    54:76:8f:fb:54:b6:d5:92:1b:7b:f5:2d:01:b1:6d:
                    f7:97:ed:57:ee:26:c6:39:21:bf:a8:27:06:54:f0:
                    59:4f:15:53:c4:34:72:97:9a:8f:44:dd:53:29:4a:
                    d6:44:91
                Exponent: 65537 (0x10001)
        X509v3 extensions:
            X509v3 Basic Constraints: 
                CA:FALSE
            Netscape Comment: 
                Easy-RSA Generated Certificate
            X509v3 Subject Key Identifier: 
                43:36:1D:4C:4E:FF:C2:0C:AA:DA:5B:3C:1C:D7:3F:96:90:93:69:A5
            X509v3 Authority Key Identifier: 
                keyid:12:CD:60:04:D2:A0:80:9E:70:ED:C6:99:B8:7B:2C:C6:52:FD:19:A1
                DirName:/C=US/ST=OH/L=Columbus/O=VikingVPN/OU=MyOrganizationalUnit/CN=VikingVPN CA/name=EasyRSA/emailAddress=me@myhost.mydomain
                serial:CF:35:85:EE:80:BF:2A:3E

            X509v3 Extended Key Usage: 
                TLS Web Client Authentication
            X509v3 Key Usage: 
                Digital Signature
    Signature Algorithm: md5WithRSAEncryption
         34:d9:4a:d3:d0:3c:0b:2b:a6:7d:75:91:3e:bf:50:fb:ce:f2:
         9a:ed:dd:4d:b3:2a:02:9e:52:92:f7:de:90:82:fd:3b:4d:e1:
         fe:83:9f:b0:a4:41:e5:1f:ac:68:99:4f:19:7c:2f:ca:42:49:
         46:b3:3f:c5:43:fe:56:ad:bf:1b:b9:fa:6f:5e:2b:22:20:fb:
         48:d2:e5:30:cd:2f:be:b5:7d:24:6f:47:c7:49:b3:12:82:de:
         27:e8:4f:58:0c:69:0b:24:6e:aa:3c:4d:d9:0b:01:7f:db:c6:
         7b:d6:c0:77:d3:3d:90:64:16:47:f2:68:ee:d2:30:6f:db:70:
         df:4d:b2:d3:39:a6:68:fe:cd:d0:87:af:56:a3:3f:af:3d:6a:
         f6:07:ad:24:d1:1b:e9:39:2d:b3:37:f3:20:3a:4c:64:7e:ad:
         96:81:30:99:b2:91:00:11:bd:d2:cf:91:0c:43:e4:cf:c3:2f:
         7f:65:cb:d2:7d:37:5e:b1:e7:df:8d:cf:fa:5f:c9:6f:28:93:
         a9:ee:61:e1:c5:40:e1:14:36:8b:84:04:80:49:71:48:0b:99:
         3d:d1:91:94:66:22:b6:d9:64:c8:fa:dc:8b:fd:6c:26:b4:ec:
         09:a0:4b:60:c5:fb:85:21:8d:6b:f3:8d:ab:05:4e:73:3d:7a:
         c9:f3:dd:7d:f1:cf:4c:cb:87:ad:9f:c1:5d:ca:b3:10:22:d8:
         7f:d7:0e:77:00:ba:b9:02:f7:7f:72:a0:17:31:f3:c7:20:57:
         82:22:ae:79:cd:a2:2c:34:dc:7c:63:c9:c0:99:c5:1c:bb:6d:
         f3:e9:1d:67:b7:f7:af:04:bd:ad:e9:75:1f:84:79:b4:49:51:
         1f:89:f9:b0:81:28:d5:87:2e:4f:bc:7d:d0:7e:52:ad:00:e0:
         c5:04:0b:b5:3d:15:1c:93:3b:51:36:d2:2b:8b:36:94:9f:94:
         e5:16:e2:02:5b:40:40:ff:cb:59:0d:bc:92:b1:0e:5b:44:df:
         28:05:f5:a9:06:c9:b0:38:be:5c:f8:47:30:01:b7:2b:81:96:
         44:4e:e0:d0:2c:63:50:1f:fa:fd:a9:81:70:48:94:ad:ae:8a:
         2a:9e:cf:40:61:6a:68:50:7b:c3:85:23:7e:f5:82:a1:22:08:
         d8:e3:5f:4a:b2:8a:bc:27:8d:eb:ef:72:06:82:23:5b:f7:9f:
         36:8a:2e:b2:4e:32:d2:3f:10:a4:3e:dd:d2:4f:ab:11:00:3f:
         fc:25:53:bc:44:b0:4a:d6:58:a6:5c:88:ba:6a:a3:7d:46:9a:
         b5:d6:28:36:9a:b3:24:18:42:79:5a:42:d4:92:d1:eb:49:3c:
         4f:ff:64:06:51:b9:58:c5
-----BEGIN CERTIFICATE-----
MIIGrDCCBJSgAwIBAgICCtQwDQYJKoZIhvcNAQEEBQAwgawxCzAJBgNVBAYTAlVT
MQswCQYDVQQIEwJPSDERMA8GA1UEBxMIQ29sdW1idXMxEjAQBgNVBAoTCVZpa2lu
Z1ZQTjEdMBsGA1UECxMUTXlPcmdhbml6YXRpb25hbFVuaXQxFTATBgNVBAMTDFZp
a2luZ1ZQTiBDQTEQMA4GA1UEKRMHRWFzeVJTQTEhMB8GCSqGSIb3DQEJARYSbWVA
bXlob3N0Lm15ZG9tYWluMB4XDTE0MDkwNTE5MjkxMFoXDTI0MDkwMjE5MjkxMFow
HjEcMBoGA1UEAxMTQ2xpZW50OTU4Q2VydDNjNjllZTCCAiIwDQYJKoZIhvcNAQEB
BQADggIPADCCAgoCggIBAMFhYsf3ufl6Ebq5qTDsaAO2JbEIeA6REOC8EZ7YxN/E
dN1rngQfdl/gt73XF33P+Hk/OPUYKzTOHLpI3gfOyfE3egQosU9V+p05IW+eIpN/
H+OFiq3EiMAqkU6mehjy7pv62aEqdCQawvodrzDseJIr/VgeuJ9zTK5mhRRHJoYi
lofYU9bFDB9gVC8upIIaEWo9VoRUwIwKqVnbipm4MQVvGFtIBh8hvRRvbHYfXvih
aXQ31pKcDsVVr3e2fP6gAe6ctNI1sL6gI1Of9AFeqtij8iu3JAR08xvdL5JCFoGW
sk2wLWZ4EYNp4GJ+gOeJZKUpuMr00xYBL1RTrDcNincxllyk58uEU1WjP0tOA7oC
XDzXsW4xqbGOAF9PDTuHSVLPVSPxQgC7BT+sO7SMIuuDSjtL88f6eDemRdgIsLOI
NlV15lp26vF+yZ4r8Eh5hTnGIe87XDfnZ6PoHlhwW7Uuwt//oB3oPGb5gbPgJYIJ
GzkeDM8xebi1xHZ9UVN8mdaG354Hv1iqOvv5cWvaczGhk1iFpur9TczARXvFnATl
4gkZ5ZZO2PA57u2whWggLD2ni9xc87RIUbPRE/kngLWnXQii6PWLk7R0NuDgd8Q/
VHaP+1S21ZIbe/UtAbFt95ftV+4mxjkhv6gnBlTwWU8VU8Q0cpeaj0TdUylK1kSR
AgMBAAGjggFjMIIBXzAJBgNVHRMEAjAAMC0GCWCGSAGG+EIBDQQgFh5FYXN5LVJT
QSBHZW5lcmF0ZWQgQ2VydGlmaWNhdGUwHQYDVR0OBBYEFEM2HUxO/8IMqtpbPBzX
P5aQk2mlMIHhBgNVHSMEgdkwgdaAFBLNYATSoICecO3Gmbh7LMZS/RmhoYGypIGv
MIGsMQswCQYDVQQGEwJVUzELMAkGA1UECBMCT0gxETAPBgNVBAcTCENvbHVtYnVz
MRIwEAYDVQQKEwlWaWtpbmdWUE4xHTAbBgNVBAsTFE15T3JnYW5pemF0aW9uYWxV
bml0MRUwEwYDVQQDEwxWaWtpbmdWUE4gQ0ExEDAOBgNVBCkTB0Vhc3lSU0ExITAf
BgkqhkiG9w0BCQEWEm1lQG15aG9zdC5teWRvbWFpboIJAM81he6Avyo+MBMGA1Ud
JQQMMAoGCCsGAQUFBwMCMAsGA1UdDwQEAwIHgDANBgkqhkiG9w0BAQQFAAOCAgEA
NNlK09A8CyumfXWRPr9Q+87ymu3dTbMqAp5SkvfekIL9O03h/oOfsKRB5R+saJlP
GXwvykJJRrM/xUP+Vq2/G7n6b14rIiD7SNLlMM0vvrV9JG9Hx0mzEoLeJ+hPWAxp
CyRuqjxN2QsBf9vGe9bAd9M9kGQWR/Jo7tIwb9tw302y0zmmaP7N0IevVqM/rz1q
9getJNEb6TktszfzIDpMZH6tloEwmbKRABG90s+RDEPkz8Mvf2XL0n03XrHn343P
+l/JbyiTqe5h4cVA4RQ2i4QEgElxSAuZPdGRlGYittlkyPrci/1sJrTsCaBLYMX7
hSGNa/ONqwVOcz16yfPdffHPTMuHrZ/BXcqzECLYf9cOdwC6uQL3f3KgFzHzxyBX
giKuec2iLDTcfGPJwJnFHLtt8+kdZ7f3rwS9rel1H4R5tElRH4n5sIEo1YcuT7x9
0H5SrQDgxQQLtT0VHJM7UTbSK4s2lJ+U5RbiAltAQP/LWQ28krEOW0TfKAX1qQbJ
sDi+XPhHMAG3K4GWRE7g0CxjUB/6/amBcEiUra6KKp7PQGFqaFB7w4UjfvWCoSII
2ONfSrKKvCeN6+9yBoIjW/efNoousk4y0j8QpD7d0k+rEQA//CVTvESwStZYplyI
umqjfUaatdYoNpqzJBhCeVpC1JLR60k8T/9kBlG5WMU=
-----END CERTIFICATE-----
