Certificate:
    Data:
        Version: 3 (0x2)
        Serial Number: 2783 (0xadf)
    Signature Algorithm: md5WithRSAEncryption
        Issuer: C=US, ST=OH, L=Columbus, O=VikingVPN, OU=MyOrganizationalUnit, CN=VikingVPN CA/name=EasyRSA/emailAddress=me@myhost.mydomain
        Validity
            Not Before: Sep  7 16:10:55 2014 GMT
            Not After : Sep  4 16:10:55 2024 GMT
        Subject: CN=Client539Cert815048
        Subject Public Key Info:
            Public Key Algorithm: rsaEncryption
                Public-Key: (4096 bit)
                Modulus:
                    00:b7:dd:c9:3f:c6:9d:c7:bb:bc:f9:bb:0d:e3:83:
                    46:f7:b9:29:f6:e4:0e:4d:2f:eb:d0:41:e1:34:0b:
                    73:b9:65:a4:25:10:8d:23:93:da:3b:0a:3b:ff:fa:
                    53:6b:62:be:01:6c:0b:9d:40:60:fc:ad:a7:12:be:
                    36:28:07:95:d9:d0:8c:83:b5:fe:df:b6:99:20:9e:
                    e7:9f:60:39:c7:07:7b:bf:15:ad:1c:60:ab:60:33:
                    e6:30:53:91:bd:06:b6:be:08:f4:05:f6:fe:78:67:
                    06:42:9a:9f:3a:40:a9:90:71:e4:7c:05:db:70:6a:
                    14:6e:d6:b7:f3:60:e5:89:44:c6:0a:22:79:9f:7c:
                    71:60:ed:8f:5a:0e:7e:be:5a:37:52:ef:dc:c6:6f:
                    11:e4:85:a2:8a:d9:d1:91:dd:1f:16:16:68:b3:d4:
                    ef:55:c6:61:54:4a:67:a9:b2:92:7a:8c:a0:60:df:
                    db:68:6b:b4:d0:68:9c:61:26:1f:ec:1c:c9:1f:ea:
                    3e:05:b2:b5:b2:e8:30:c5:8f:ad:fe:9f:75:69:9b:
                    85:29:82:92:dd:44:e7:ac:ad:41:0e:bd:52:58:53:
                    65:71:c3:4f:97:93:2e:7f:67:f2:f7:6b:81:49:d5:
                    84:ed:0f:67:2a:66:f9:d4:8d:ad:7f:dd:56:4b:50:
                    25:9c:cd:ab:bf:a3:e1:54:0f:2f:88:ed:7b:9d:f9:
                    52:f3:3a:6d:1b:91:11:10:60:ca:95:b8:4d:20:f7:
                    fe:ca:d3:33:5f:ad:e0:71:26:40:f8:c3:e6:8f:c4:
                    c7:4a:10:19:d0:24:9b:3a:6f:db:f1:a0:52:10:2f:
                    cd:ad:9e:60:27:4b:1b:a9:8e:4f:ad:79:e9:52:d3:
                    97:86:5f:de:44:6f:95:bb:33:9a:87:69:03:c9:9d:
                    e6:39:a8:b6:c0:5c:bc:1c:2c:3e:6a:34:b5:f0:8c:
                    66:0c:55:ce:a8:f6:b5:7f:3b:88:ac:ca:ec:c1:c7:
                    e9:97:65:f7:b2:4c:b5:20:dd:ad:81:c6:d5:f1:48:
                    38:5f:4d:01:da:0e:bc:5f:ec:90:18:aa:b3:37:c6:
                    4f:0c:0f:84:2b:23:03:0f:bb:7f:4a:f7:d0:23:50:
                    4e:7a:55:bc:c4:44:4f:f8:c3:e8:4c:67:b4:29:6d:
                    6a:4e:39:92:09:da:8a:39:63:ba:b9:c6:6c:d9:b4:
                    63:dc:56:a8:4b:ff:17:bd:02:6e:4d:8b:82:a6:2f:
                    0c:69:1b:35:8e:fe:46:65:af:6f:82:33:ba:b1:d2:
                    92:79:2b:38:a1:31:db:a0:b8:00:21:43:6f:94:18:
                    55:f9:7f:ee:3c:17:86:a4:be:ca:30:24:61:27:2e:
                    81:25:47
                Exponent: 65537 (0x10001)
        X509v3 extensions:
            X509v3 Basic Constraints: 
                CA:FALSE
            Netscape Comment: 
                Easy-RSA Generated Certificate
            X509v3 Subject Key Identifier: 
                BD:53:9D:3C:1F:71:31:04:12:0A:EE:72:E3:37:34:13:E9:1B:52:20
            X509v3 Authority Key Identifier: 
                keyid:12:CD:60:04:D2:A0:80:9E:70:ED:C6:99:B8:7B:2C:C6:52:FD:19:A1
                DirName:/C=US/ST=OH/L=Columbus/O=VikingVPN/OU=MyOrganizationalUnit/CN=VikingVPN CA/name=EasyRSA/emailAddress=me@myhost.mydomain
                serial:CF:35:85:EE:80:BF:2A:3E

            X509v3 Extended Key Usage: 
                TLS Web Client Authentication
            X509v3 Key Usage: 
                Digital Signature
    Signature Algorithm: md5WithRSAEncryption
         c4:7c:a6:41:03:ca:57:93:05:ab:43:20:b9:6c:e3:a9:69:35:
         e2:d9:bd:ff:0b:5c:e8:dd:c3:5a:0d:8d:d0:d5:b6:61:a1:f0:
         30:4b:ba:48:2d:38:d1:d1:11:84:ed:b4:f6:d0:45:dd:fd:69:
         9e:15:ca:ac:72:70:e4:aa:b0:2e:2d:16:ba:f0:a8:37:0f:e9:
         b6:1d:14:a7:f2:be:01:1b:53:31:2f:a2:e7:fe:cf:b7:83:8d:
         c1:55:8b:6c:d2:cc:29:58:3c:04:c0:e8:e3:7a:6b:c4:df:c4:
         a9:e5:53:a2:ac:a3:1b:6c:50:85:2e:d8:32:ef:60:74:d8:cd:
         5a:bf:6e:97:d9:ec:6c:49:3a:5c:ab:c7:11:73:2b:78:e3:74:
         f6:fa:25:a3:05:5b:93:b1:7c:32:b9:06:5a:e8:f2:fd:ae:f2:
         ea:79:d9:b2:30:63:08:e1:3f:9e:82:2c:d7:c5:d1:17:be:e7:
         7c:ce:d4:be:30:12:3d:b2:a6:1b:d4:57:03:88:98:88:76:db:
         88:bd:a4:e5:40:65:18:c3:8d:31:b3:64:bb:e7:7f:3c:d5:0b:
         b0:aa:7a:cd:87:69:7a:cc:23:88:9b:7b:a3:55:94:b2:d3:8f:
         84:53:97:93:d9:b4:a5:4a:a4:fa:0f:f1:1d:58:9f:db:81:ef:
         84:2d:ee:45:ca:e5:30:3e:4c:e9:0c:dc:a8:96:f0:ac:d4:6a:
         eb:b0:f7:96:9f:b9:4e:8e:25:36:8c:81:02:7a:a7:2a:b8:04:
         83:28:0a:1a:2f:13:6b:d1:2f:82:d7:bc:b7:bc:be:19:29:52:
         d8:49:a4:ab:e2:11:e7:78:43:30:bd:01:2e:ce:05:c2:7d:6d:
         97:1c:2c:9c:8f:cb:93:2d:7a:3d:86:94:7e:7c:6e:3c:f1:2e:
         9e:1a:b8:42:d4:2b:07:99:3b:1a:6a:98:ea:09:a0:56:02:6d:
         db:f7:50:ce:70:68:e5:e6:a7:2d:3e:33:32:39:4c:9c:69:36:
         79:16:4a:bc:4e:b0:76:78:62:59:45:c7:88:97:fc:d4:3f:62:
         01:d9:f9:9d:99:56:73:2a:d4:d7:56:e7:98:63:00:57:09:64:
         9b:be:08:8b:8a:bd:74:f0:8c:0e:4c:1d:8b:7e:4b:b9:29:7c:
         c4:c9:b4:af:91:ca:22:e5:d2:5b:b5:d6:8d:5b:22:86:95:8d:
         d1:45:5d:ae:9f:02:ea:d6:32:61:d1:b8:90:ff:33:c2:ef:1a:
         6c:16:a9:43:d8:25:ef:c5:1b:a0:41:40:e7:6f:04:22:c0:eb:
         18:bd:ea:42:2f:80:53:59:4a:f3:b4:4a:95:29:75:45:7b:78:
         a4:ef:ea:28:9c:1d:0b:88
-----BEGIN CERTIFICATE-----
MIIGrDCCBJSgAwIBAgICCt8wDQYJKoZIhvcNAQEEBQAwgawxCzAJBgNVBAYTAlVT
MQswCQYDVQQIEwJPSDERMA8GA1UEBxMIQ29sdW1idXMxEjAQBgNVBAoTCVZpa2lu
Z1ZQTjEdMBsGA1UECxMUTXlPcmdhbml6YXRpb25hbFVuaXQxFTATBgNVBAMTDFZp
a2luZ1ZQTiBDQTEQMA4GA1UEKRMHRWFzeVJTQTEhMB8GCSqGSIb3DQEJARYSbWVA
bXlob3N0Lm15ZG9tYWluMB4XDTE0MDkwNzE2MTA1NVoXDTI0MDkwNDE2MTA1NVow
HjEcMBoGA1UEAxMTQ2xpZW50NTM5Q2VydDgxNTA0ODCCAiIwDQYJKoZIhvcNAQEB
BQADggIPADCCAgoCggIBALfdyT/Gnce7vPm7DeODRve5KfbkDk0v69BB4TQLc7ll
pCUQjSOT2jsKO//6U2tivgFsC51AYPytpxK+NigHldnQjIO1/t+2mSCe559gOccH
e78VrRxgq2Az5jBTkb0Gtr4I9AX2/nhnBkKanzpAqZBx5HwF23BqFG7Wt/Ng5YlE
xgoieZ98cWDtj1oOfr5aN1Lv3MZvEeSFoorZ0ZHdHxYWaLPU71XGYVRKZ6myknqM
oGDf22hrtNBonGEmH+wcyR/qPgWytbLoMMWPrf6fdWmbhSmCkt1E56ytQQ69UlhT
ZXHDT5eTLn9n8vdrgUnVhO0PZypm+dSNrX/dVktQJZzNq7+j4VQPL4jte535UvM6
bRuRERBgypW4TSD3/srTM1+t4HEmQPjD5o/Ex0oQGdAkmzpv2/GgUhAvza2eYCdL
G6mOT6156VLTl4Zf3kRvlbszmodpA8md5jmotsBcvBwsPmo0tfCMZgxVzqj2tX87
iKzK7MHH6Zdl97JMtSDdrYHG1fFIOF9NAdoOvF/skBiqszfGTwwPhCsjAw+7f0r3
0CNQTnpVvMRET/jD6ExntCltak45kgnaijljurnGbNm0Y9xWqEv/F70Cbk2LgqYv
DGkbNY7+RmWvb4IzurHSknkrOKEx26C4ACFDb5QYVfl/7jwXhqS+yjAkYScugSVH
AgMBAAGjggFjMIIBXzAJBgNVHRMEAjAAMC0GCWCGSAGG+EIBDQQgFh5FYXN5LVJT
QSBHZW5lcmF0ZWQgQ2VydGlmaWNhdGUwHQYDVR0OBBYEFL1TnTwfcTEEEgrucuM3
NBPpG1IgMIHhBgNVHSMEgdkwgdaAFBLNYATSoICecO3Gmbh7LMZS/RmhoYGypIGv
MIGsMQswCQYDVQQGEwJVUzELMAkGA1UECBMCT0gxETAPBgNVBAcTCENvbHVtYnVz
MRIwEAYDVQQKEwlWaWtpbmdWUE4xHTAbBgNVBAsTFE15T3JnYW5pemF0aW9uYWxV
bml0MRUwEwYDVQQDEwxWaWtpbmdWUE4gQ0ExEDAOBgNVBCkTB0Vhc3lSU0ExITAf
BgkqhkiG9w0BCQEWEm1lQG15aG9zdC5teWRvbWFpboIJAM81he6Avyo+MBMGA1Ud
JQQMMAoGCCsGAQUFBwMCMAsGA1UdDwQEAwIHgDANBgkqhkiG9w0BAQQFAAOCAgEA
xHymQQPKV5MFq0MguWzjqWk14tm9/wtc6N3DWg2N0NW2YaHwMEu6SC040dERhO20
9tBF3f1pnhXKrHJw5KqwLi0WuvCoNw/pth0Up/K+ARtTMS+i5/7Pt4ONwVWLbNLM
KVg8BMDo43prxN/EqeVToqyjG2xQhS7YMu9gdNjNWr9ul9nsbEk6XKvHEXMreON0
9volowVbk7F8MrkGWujy/a7y6nnZsjBjCOE/noIs18XRF77nfM7UvjASPbKmG9RX
A4iYiHbbiL2k5UBlGMONMbNku+d/PNULsKp6zYdpeswjiJt7o1WUstOPhFOXk9m0
pUqk+g/xHVif24HvhC3uRcrlMD5M6QzcqJbwrNRq67D3lp+5To4lNoyBAnqnKrgE
gygKGi8Ta9Evgte8t7y+GSlS2Emkq+IR53hDML0BLs4Fwn1tlxwsnI/Lky16PYaU
fnxuPPEunhq4QtQrB5k7GmqY6gmgVgJt2/dQznBo5eanLT4zMjlMnGk2eRZKvE6w
dnhiWUXHiJf81D9iAdn5nZlWcyrU11bnmGMAVwlkm74Ii4q9dPCMDkwdi35LuSl8
xMm0r5HKIuXSW7XWjVsihpWN0UVdrp8C6tYyYdG4kP8zwu8abBapQ9gl78UboEFA
528EIsDrGL3qQi+AU1lK87RKlSl1RXt4pO/qKJwdC4g=
-----END CERTIFICATE-----
