Certificate:
    Data:
        Version: 3 (0x2)
        Serial Number: 2796 (0xaec)
    Signature Algorithm: md5WithRSAEncryption
        Issuer: C=US, ST=OH, L=Columbus, O=VikingVPN, OU=MyOrganizationalUnit, CN=VikingVPN CA/name=EasyRSA/emailAddress=me@myhost.mydomain
        Validity
            Not Before: Sep  9 16:53:36 2014 GMT
            Not After : Sep  6 16:53:36 2024 GMT
        Subject: CN=Client974Cert3488f1
        Subject Public Key Info:
            Public Key Algorithm: rsaEncryption
                Public-Key: (4096 bit)
                Modulus:
                    00:ca:4b:51:3d:96:33:b1:09:13:aa:04:24:3f:4a:
                    5e:48:13:19:fd:2e:3a:68:3d:ac:66:34:63:3d:f1:
                    0c:48:f2:5b:2d:b5:4e:e4:f8:e2:f1:45:98:9c:38:
                    5e:04:76:e5:d3:92:90:6d:fb:75:15:f4:c0:6b:71:
                    84:76:a3:57:ad:e5:79:00:c2:d3:46:52:4e:67:95:
                    a1:38:e0:b2:47:11:80:5e:f2:38:78:1e:08:e5:74:
                    cc:f2:ad:8f:ae:36:db:9a:4b:82:7f:f2:8f:99:bf:
                    79:7b:52:e9:3e:fa:7f:25:f0:5c:9b:3e:42:c6:a8:
                    4f:db:02:b8:20:ad:17:8a:9c:eb:81:c7:bd:7e:96:
                    31:7b:af:97:6c:f6:e4:7c:a8:b3:a8:ee:e2:75:b5:
                    45:a8:7a:d9:58:9b:c8:e3:39:a6:01:21:5f:32:df:
                    b6:21:a3:fb:2b:61:06:3c:1f:3d:b2:c0:bf:25:e0:
                    eb:7b:e0:8d:54:a2:8e:62:33:ec:9a:e0:b8:b9:cd:
                    30:e1:95:4a:27:d9:69:cf:84:10:9a:82:55:7a:af:
                    25:c5:b2:b7:11:4e:27:2c:9f:81:59:d6:a5:9f:8b:
                    de:e8:04:c3:03:34:93:8f:02:1a:11:e4:5c:e4:a4:
                    46:c2:ec:f9:0c:32:14:eb:42:dc:0d:2a:98:84:b4:
                    84:86:11:4d:67:f0:7f:7d:5a:16:31:6d:8f:58:52:
                    48:ba:ef:94:06:0d:7a:57:0d:19:26:67:9c:55:38:
                    87:d6:56:7f:34:96:60:c3:70:ac:70:fe:89:ab:f7:
                    f3:a5:80:63:0a:d0:2c:f2:2b:4d:ea:b8:47:7d:e3:
                    d0:58:0f:79:fa:ba:f6:b2:12:43:f2:60:71:1c:f9:
                    3e:21:80:e9:0b:40:6a:7e:5d:43:f8:b7:36:da:ee:
                    86:dd:dd:cb:4a:15:b3:8e:0e:30:ee:79:0c:31:6d:
                    c8:3a:3c:0a:97:7b:0c:21:f8:e4:ce:18:2b:71:e9:
                    79:4f:bb:0a:a2:31:d9:f0:35:9e:b1:26:53:65:a6:
                    f8:f4:f8:8f:aa:2a:c6:e4:b1:0c:08:f7:ac:2b:9d:
                    9f:fa:85:07:89:e4:10:c4:0d:19:86:78:69:ad:a9:
                    94:af:4d:8c:7e:9f:2d:1f:34:a9:d2:05:ef:6d:ac:
                    fa:24:f9:0d:44:f2:e2:31:88:d6:bc:7d:9d:ce:e9:
                    da:28:99:90:bc:1f:c3:93:2f:67:f8:79:1f:d1:4e:
                    43:96:8f:19:8a:72:2a:be:ee:b9:86:aa:f7:96:e9:
                    a7:0f:45:1e:b8:bb:14:e9:4b:20:61:aa:b8:c6:11:
                    99:52:d6:ca:d5:b0:ba:e1:18:6b:f0:ca:99:f6:31:
                    4f:20:c9
                Exponent: 65537 (0x10001)
        X509v3 extensions:
            X509v3 Basic Constraints: 
                CA:FALSE
            Netscape Comment: 
                Easy-RSA Generated Certificate
            X509v3 Subject Key Identifier: 
                73:E4:16:82:1B:C6:57:17:D2:74:6E:F6:A3:D9:74:1A:09:57:A9:55
            X509v3 Authority Key Identifier: 
                keyid:12:CD:60:04:D2:A0:80:9E:70:ED:C6:99:B8:7B:2C:C6:52:FD:19:A1
                DirName:/C=US/ST=OH/L=Columbus/O=VikingVPN/OU=MyOrganizationalUnit/CN=VikingVPN CA/name=EasyRSA/emailAddress=me@myhost.mydomain
                serial:CF:35:85:EE:80:BF:2A:3E

            X509v3 Extended Key Usage: 
                TLS Web Client Authentication
            X509v3 Key Usage: 
                Digital Signature
    Signature Algorithm: md5WithRSAEncryption
         0a:02:fa:48:d6:33:40:c5:ac:cf:a5:85:7e:5a:1d:0e:ba:82:
         b5:c8:40:bd:1a:e7:c9:4e:f7:cd:48:8d:2f:de:8f:8d:15:50:
         48:bb:8e:f7:7b:8d:68:43:36:4e:b0:29:87:67:fe:88:37:2e:
         a7:f7:11:d5:3c:02:a1:92:e8:9a:76:47:3d:c4:e4:90:3a:09:
         f8:dd:c1:06:a7:03:3c:72:b6:65:53:5b:4a:1a:0d:d0:f3:46:
         e3:5d:d8:26:e2:82:f9:44:44:a3:4c:1b:f8:1b:f7:9c:90:30:
         7e:7c:fb:ce:d5:ac:86:6a:83:bc:24:d1:2c:fa:6f:82:6f:6a:
         0e:2c:3f:fa:95:d2:55:92:87:eb:92:b4:06:67:24:36:0b:99:
         b1:6b:81:ae:be:06:6c:7b:f7:eb:e2:fd:e5:95:62:8b:13:45:
         af:d4:a2:23:c2:bb:f5:05:9b:67:5b:45:1d:d2:88:2a:22:96:
         c4:d4:5f:32:8a:74:0a:c4:4e:24:46:fb:71:5c:2d:6b:9b:0f:
         94:f5:15:f5:8b:a2:dc:ae:b1:6f:83:70:27:96:23:52:65:3a:
         ce:16:3c:7a:f9:55:cb:1e:3b:d1:fc:fc:41:92:55:24:b8:64:
         0f:e5:b0:2a:2f:db:57:12:ac:40:a7:37:97:d8:14:00:39:c5:
         e9:cc:2b:bb:0d:5f:ea:03:d8:ae:82:b1:5b:bb:69:a9:f6:fc:
         8a:67:2e:b2:1d:19:64:2f:48:e9:a6:dd:6a:9f:94:25:e6:ce:
         9c:aa:f6:e3:0c:05:2d:00:5d:66:0f:88:1d:61:f9:cb:1e:b4:
         73:48:ba:9f:40:e8:c7:67:d3:bf:44:b6:b2:b3:9a:81:99:b1:
         1d:b0:60:fe:dd:51:f3:ba:44:60:ae:ec:f9:21:ab:1a:93:86:
         20:a9:ff:3f:21:d6:5e:06:3e:11:96:77:a1:7b:13:68:7b:f4:
         8c:d1:0e:38:b6:60:06:ce:f7:8c:df:57:c9:1a:5f:0c:81:02:
         29:2b:cc:37:4e:fa:30:8d:ed:4c:b4:64:30:8d:c4:7b:3f:64:
         ae:b6:5b:cc:b5:d4:91:ff:94:42:04:1f:0b:65:90:fb:3b:4a:
         ac:29:f2:0d:2d:9f:08:06:2a:c3:d8:80:81:a9:b0:97:d4:ba:
         62:e4:5b:57:f8:90:2a:72:1e:6b:20:be:2e:d1:d5:54:40:76:
         7e:ff:18:3d:9a:2e:2d:0d:03:d7:68:61:33:46:75:a9:78:7d:
         d4:16:ed:0e:cc:84:80:a8:df:df:eb:91:a5:be:f8:50:b4:ba:
         4e:82:aa:b4:8c:03:5a:66:e7:a2:d3:5e:20:1b:3f:18:ac:d8:
         13:7c:39:5b:67:ee:7a:2b
-----BEGIN CERTIFICATE-----
MIIGrDCCBJSgAwIBAgICCuwwDQYJKoZIhvcNAQEEBQAwgawxCzAJBgNVBAYTAlVT
MQswCQYDVQQIEwJPSDERMA8GA1UEBxMIQ29sdW1idXMxEjAQBgNVBAoTCVZpa2lu
Z1ZQTjEdMBsGA1UECxMUTXlPcmdhbml6YXRpb25hbFVuaXQxFTATBgNVBAMTDFZp
a2luZ1ZQTiBDQTEQMA4GA1UEKRMHRWFzeVJTQTEhMB8GCSqGSIb3DQEJARYSbWVA
bXlob3N0Lm15ZG9tYWluMB4XDTE0MDkwOTE2NTMzNloXDTI0MDkwNjE2NTMzNlow
HjEcMBoGA1UEAxMTQ2xpZW50OTc0Q2VydDM0ODhmMTCCAiIwDQYJKoZIhvcNAQEB
BQADggIPADCCAgoCggIBAMpLUT2WM7EJE6oEJD9KXkgTGf0uOmg9rGY0Yz3xDEjy
Wy21TuT44vFFmJw4XgR25dOSkG37dRX0wGtxhHajV63leQDC00ZSTmeVoTjgskcR
gF7yOHgeCOV0zPKtj64225pLgn/yj5m/eXtS6T76fyXwXJs+QsaoT9sCuCCtF4qc
64HHvX6WMXuvl2z25Hyos6ju4nW1Rah62VibyOM5pgEhXzLftiGj+ythBjwfPbLA
vyXg63vgjVSijmIz7JrguLnNMOGVSifZac+EEJqCVXqvJcWytxFOJyyfgVnWpZ+L
3ugEwwM0k48CGhHkXOSkRsLs+QwyFOtC3A0qmIS0hIYRTWfwf31aFjFtj1hSSLrv
lAYNelcNGSZnnFU4h9ZWfzSWYMNwrHD+iav386WAYwrQLPIrTeq4R33j0FgPefq6
9rISQ/JgcRz5PiGA6QtAan5dQ/i3Ntruht3dy0oVs44OMO55DDFtyDo8Cpd7DCH4
5M4YK3HpeU+7CqIx2fA1nrEmU2Wm+PT4j6oqxuSxDAj3rCudn/qFB4nkEMQNGYZ4
aa2plK9NjH6fLR80qdIF722s+iT5DUTy4jGI1rx9nc7p2iiZkLwfw5MvZ/h5H9FO
Q5aPGYpyKr7uuYaq95bppw9FHri7FOlLIGGquMYRmVLWytWwuuEYa/DKmfYxTyDJ
AgMBAAGjggFjMIIBXzAJBgNVHRMEAjAAMC0GCWCGSAGG+EIBDQQgFh5FYXN5LVJT
QSBHZW5lcmF0ZWQgQ2VydGlmaWNhdGUwHQYDVR0OBBYEFHPkFoIbxlcX0nRu9qPZ
dBoJV6lVMIHhBgNVHSMEgdkwgdaAFBLNYATSoICecO3Gmbh7LMZS/RmhoYGypIGv
MIGsMQswCQYDVQQGEwJVUzELMAkGA1UECBMCT0gxETAPBgNVBAcTCENvbHVtYnVz
MRIwEAYDVQQKEwlWaWtpbmdWUE4xHTAbBgNVBAsTFE15T3JnYW5pemF0aW9uYWxV
bml0MRUwEwYDVQQDEwxWaWtpbmdWUE4gQ0ExEDAOBgNVBCkTB0Vhc3lSU0ExITAf
BgkqhkiG9w0BCQEWEm1lQG15aG9zdC5teWRvbWFpboIJAM81he6Avyo+MBMGA1Ud
JQQMMAoGCCsGAQUFBwMCMAsGA1UdDwQEAwIHgDANBgkqhkiG9w0BAQQFAAOCAgEA
CgL6SNYzQMWsz6WFflodDrqCtchAvRrnyU73zUiNL96PjRVQSLuO93uNaEM2TrAp
h2f+iDcup/cR1TwCoZLomnZHPcTkkDoJ+N3BBqcDPHK2ZVNbShoN0PNG413YJuKC
+UREo0wb+Bv3nJAwfnz7ztWshmqDvCTRLPpvgm9qDiw/+pXSVZKH65K0BmckNguZ
sWuBrr4GbHv36+L95ZViixNFr9SiI8K79QWbZ1tFHdKIKiKWxNRfMop0CsROJEb7
cVwta5sPlPUV9Yui3K6xb4NwJ5YjUmU6zhY8evlVyx470fz8QZJVJLhkD+WwKi/b
VxKsQKc3l9gUADnF6cwruw1f6gPYroKxW7tpqfb8imcush0ZZC9I6abdap+UJebO
nKr24wwFLQBdZg+IHWH5yx60c0i6n0Dox2fTv0S2srOagZmxHbBg/t1R87pEYK7s
+SGrGpOGIKn/PyHWXgY+EZZ3oXsTaHv0jNEOOLZgBs73jN9XyRpfDIECKSvMN076
MI3tTLRkMI3Eez9krrZbzLXUkf+UQgQfC2WQ+ztKrCnyDS2fCAYqw9iAgamwl9S6
YuRbV/iQKnIeayC+LtHVVEB2fv8YPZouLQ0D12hhM0Z1qXh91BbtDsyEgKjf3+uR
pb74ULS6ToKqtIwDWmbnotNeIBs/GKzYE3w5W2fueis=
-----END CERTIFICATE-----
