Certificate:
    Data:
        Version: 3 (0x2)
        Serial Number: 2799 (0xaef)
    Signature Algorithm: md5WithRSAEncryption
        Issuer: C=US, ST=OH, L=Columbus, O=VikingVPN, OU=MyOrganizationalUnit, CN=VikingVPN CA/name=EasyRSA/emailAddress=me@myhost.mydomain
        Validity
            Not Before: Sep  9 16:53:47 2014 GMT
            Not After : Sep  6 16:53:47 2024 GMT
        Subject: CN=Client974Cert36b85f
        Subject Public Key Info:
            Public Key Algorithm: rsaEncryption
                Public-Key: (4096 bit)
                Modulus:
                    00:d1:f0:3c:64:a4:90:7c:50:04:7a:f3:04:bd:6b:
                    5b:63:8b:99:56:96:61:b1:eb:a5:36:a1:2b:e1:8a:
                    a5:55:f7:60:61:96:80:d2:28:d5:a9:4d:48:77:61:
                    e2:81:b4:d2:1e:cf:3a:80:41:5f:92:28:7a:09:99:
                    5b:95:38:d4:a6:b3:dc:05:c9:31:a5:dc:e1:7d:f0:
                    f8:d6:1a:73:32:bd:7b:7b:98:e5:7b:df:fc:94:62:
                    01:a2:52:16:f2:bc:d6:68:7b:b9:70:c3:29:cc:d0:
                    bd:3a:45:8a:17:ce:2f:6b:40:98:39:7f:3b:e9:37:
                    0e:4f:89:1e:1e:dd:6b:e2:1c:63:db:2d:a4:36:6a:
                    3f:fa:27:9d:5b:df:56:bc:dd:13:9d:29:a1:55:0c:
                    8f:d8:9c:e8:1c:8c:53:09:38:fb:ba:3d:fd:79:26:
                    e2:59:ae:6b:0b:59:d4:97:5e:87:aa:55:2d:36:66:
                    a5:59:ff:04:03:42:9d:43:30:05:6d:da:10:9a:98:
                    84:55:63:7d:6e:f2:04:10:89:2b:9d:75:02:a5:91:
                    53:83:26:55:f5:6d:ec:67:c1:d8:a3:25:bf:23:15:
                    b4:36:f6:af:02:d8:4d:7d:8d:df:93:3b:d9:c5:50:
                    24:9f:bd:7e:16:1b:09:4b:2e:f0:1b:99:90:08:4d:
                    12:6e:1f:73:88:0b:c0:f3:c4:cf:bb:a8:cd:d0:41:
                    c1:0c:e8:3e:a1:df:d6:2f:f6:ad:89:7f:80:75:b7:
                    a8:21:98:5d:dd:05:fb:48:7c:f1:5a:aa:93:f5:fc:
                    5c:02:2b:bd:d2:54:ee:82:3a:fb:86:e7:5a:b8:a1:
                    32:b2:86:df:e0:bb:b6:30:2e:59:43:d1:e4:d9:4c:
                    56:98:e4:a2:4b:f4:d9:dc:cf:e9:c7:13:c2:71:75:
                    b4:f1:16:04:96:10:dc:67:f3:42:32:a6:3a:8e:e1:
                    68:62:29:9a:25:89:df:be:27:cc:97:bb:29:fa:d7:
                    b1:02:1e:6c:c7:e1:d9:90:02:f2:fe:95:f3:77:53:
                    71:95:30:9b:0f:a2:99:5e:73:95:f8:d1:43:eb:87:
                    ef:54:8f:2d:a6:a1:7e:cb:cc:b6:a6:55:cf:a3:58:
                    34:40:39:45:08:cf:d6:3a:20:75:d0:d2:34:76:bb:
                    d0:e1:2e:ef:06:9c:09:fb:da:d4:dd:90:a8:45:72:
                    79:24:37:43:be:4c:d0:da:10:fd:01:14:9e:51:f9:
                    f9:74:65:aa:5a:38:40:e8:93:99:06:93:52:33:d0:
                    9c:a3:79:a9:e7:66:12:ba:c3:a9:fc:33:fe:e0:66:
                    e2:9c:4e:cc:6f:c6:6a:29:48:bd:da:61:5a:fc:ba:
                    a2:79:61
                Exponent: 65537 (0x10001)
        X509v3 extensions:
            X509v3 Basic Constraints: 
                CA:FALSE
            Netscape Comment: 
                Easy-RSA Generated Certificate
            X509v3 Subject Key Identifier: 
                FA:6A:78:F5:C3:C7:03:FE:ED:B8:94:B7:09:37:79:9F:DB:1B:D7:35
            X509v3 Authority Key Identifier: 
                keyid:12:CD:60:04:D2:A0:80:9E:70:ED:C6:99:B8:7B:2C:C6:52:FD:19:A1
                DirName:/C=US/ST=OH/L=Columbus/O=VikingVPN/OU=MyOrganizationalUnit/CN=VikingVPN CA/name=EasyRSA/emailAddress=me@myhost.mydomain
                serial:CF:35:85:EE:80:BF:2A:3E

            X509v3 Extended Key Usage: 
                TLS Web Client Authentication
            X509v3 Key Usage: 
                Digital Signature
    Signature Algorithm: md5WithRSAEncryption
         50:50:24:a4:5a:70:4b:ad:c2:0b:4c:6f:89:f5:96:8d:d8:52:
         a6:e7:74:d8:17:89:08:4f:cf:00:f3:6d:ed:e8:6d:bf:97:a9:
         26:3a:28:b9:8e:f4:de:04:ae:4c:cb:31:e8:cb:92:ec:2d:a1:
         61:fe:04:50:4b:8b:30:79:43:b3:39:2a:32:85:85:6f:69:b2:
         72:f9:89:55:f8:84:a2:30:b3:14:66:17:ce:f9:74:35:ce:47:
         79:2e:56:3f:88:ca:a1:dc:33:4d:35:7d:29:a6:b5:56:bc:c1:
         28:5e:ea:4c:98:9f:4e:f3:2b:30:9e:13:10:a6:b0:ec:b8:82:
         62:27:ad:b2:18:fd:73:29:6b:67:1e:92:95:ba:b9:23:8e:03:
         4c:e4:d7:a6:c3:9d:5d:88:ac:ea:05:8d:8c:cc:34:22:36:5f:
         dd:06:cd:2b:02:30:3a:34:f1:12:cd:37:53:6e:f8:dc:23:f8:
         f4:d4:f2:7a:76:4c:27:53:8f:f9:11:80:1c:66:c5:79:dc:a7:
         31:ec:e8:8c:8c:45:df:d3:e3:52:ec:d4:15:d2:92:1a:54:0e:
         f5:f4:7b:55:0a:0e:6d:bf:f4:63:f4:64:d7:f3:32:7e:6b:a6:
         ac:b1:12:81:87:52:3c:dc:d6:4b:b5:84:b6:c3:bd:d4:50:a9:
         27:52:ee:a2:39:da:ee:df:12:76:d6:24:4a:ee:f6:2e:69:da:
         4f:12:88:f3:26:80:5f:8e:95:dd:46:7d:ec:1b:20:c6:34:1b:
         fa:17:eb:dd:12:c2:2c:0c:f7:3d:71:e2:83:51:b8:0f:c3:fb:
         6e:a7:89:cf:a0:0d:df:d1:e1:fc:2a:6d:6a:7e:a7:6b:1c:88:
         a7:ec:c0:aa:76:db:6a:a1:b5:56:57:b8:bc:25:47:a4:3f:6d:
         cf:d5:79:32:3f:7e:0c:82:63:ce:ea:31:f9:f2:62:c9:a3:2c:
         8c:f4:f0:e5:ba:80:51:9a:70:12:41:f4:84:e0:1f:a0:98:0c:
         34:62:0a:fa:e1:a2:66:3b:60:bd:ac:b1:91:1b:87:5e:70:66:
         55:b5:1a:4f:6b:c5:a6:c6:c4:7f:25:42:71:3f:fe:1e:5c:79:
         d1:10:7e:f5:ef:91:c2:65:a7:4e:a2:73:8b:06:55:4f:9d:8f:
         74:a5:74:3e:a7:03:08:8b:9e:4b:e7:02:c8:96:6e:df:ba:dc:
         a3:de:2a:b9:7a:99:90:cb:3f:bc:02:8a:f8:d4:a1:88:e2:7d:
         0f:9f:25:49:86:c9:76:a0:82:87:45:3c:4d:60:78:5c:ee:48:
         29:9c:d9:36:31:a3:c4:2e:77:d4:15:33:5c:d0:9a:cd:8a:c9:
         d0:51:df:df:e2:79:66:c4
-----BEGIN CERTIFICATE-----
MIIGrDCCBJSgAwIBAgICCu8wDQYJKoZIhvcNAQEEBQAwgawxCzAJBgNVBAYTAlVT
MQswCQYDVQQIEwJPSDERMA8GA1UEBxMIQ29sdW1idXMxEjAQBgNVBAoTCVZpa2lu
Z1ZQTjEdMBsGA1UECxMUTXlPcmdhbml6YXRpb25hbFVuaXQxFTATBgNVBAMTDFZp
a2luZ1ZQTiBDQTEQMA4GA1UEKRMHRWFzeVJTQTEhMB8GCSqGSIb3DQEJARYSbWVA
bXlob3N0Lm15ZG9tYWluMB4XDTE0MDkwOTE2NTM0N1oXDTI0MDkwNjE2NTM0N1ow
HjEcMBoGA1UEAxMTQ2xpZW50OTc0Q2VydDM2Yjg1ZjCCAiIwDQYJKoZIhvcNAQEB
BQADggIPADCCAgoCggIBANHwPGSkkHxQBHrzBL1rW2OLmVaWYbHrpTahK+GKpVX3
YGGWgNIo1alNSHdh4oG00h7POoBBX5IoegmZW5U41Kaz3AXJMaXc4X3w+NYaczK9
e3uY5Xvf/JRiAaJSFvK81mh7uXDDKczQvTpFihfOL2tAmDl/O+k3Dk+JHh7da+Ic
Y9stpDZqP/onnVvfVrzdE50poVUMj9ic6ByMUwk4+7o9/Xkm4lmuawtZ1Jdeh6pV
LTZmpVn/BANCnUMwBW3aEJqYhFVjfW7yBBCJK511AqWRU4MmVfVt7GfB2KMlvyMV
tDb2rwLYTX2N35M72cVQJJ+9fhYbCUsu8BuZkAhNEm4fc4gLwPPEz7uozdBBwQzo
PqHf1i/2rYl/gHW3qCGYXd0F+0h88Vqqk/X8XAIrvdJU7oI6+4bnWrihMrKG3+C7
tjAuWUPR5NlMVpjkokv02dzP6ccTwnF1tPEWBJYQ3GfzQjKmOo7haGIpmiWJ374n
zJe7KfrXsQIebMfh2ZAC8v6V83dTcZUwmw+imV5zlfjRQ+uH71SPLaahfsvMtqZV
z6NYNEA5RQjP1jogddDSNHa70OEu7wacCfva1N2QqEVyeSQ3Q75M0NoQ/QEUnlH5
+XRlqlo4QOiTmQaTUjPQnKN5qedmErrDqfwz/uBm4pxOzG/GailIvdphWvy6onlh
AgMBAAGjggFjMIIBXzAJBgNVHRMEAjAAMC0GCWCGSAGG+EIBDQQgFh5FYXN5LVJT
QSBHZW5lcmF0ZWQgQ2VydGlmaWNhdGUwHQYDVR0OBBYEFPpqePXDxwP+7biUtwk3
eZ/bG9c1MIHhBgNVHSMEgdkwgdaAFBLNYATSoICecO3Gmbh7LMZS/RmhoYGypIGv
MIGsMQswCQYDVQQGEwJVUzELMAkGA1UECBMCT0gxETAPBgNVBAcTCENvbHVtYnVz
MRIwEAYDVQQKEwlWaWtpbmdWUE4xHTAbBgNVBAsTFE15T3JnYW5pemF0aW9uYWxV
bml0MRUwEwYDVQQDEwxWaWtpbmdWUE4gQ0ExEDAOBgNVBCkTB0Vhc3lSU0ExITAf
BgkqhkiG9w0BCQEWEm1lQG15aG9zdC5teWRvbWFpboIJAM81he6Avyo+MBMGA1Ud
JQQMMAoGCCsGAQUFBwMCMAsGA1UdDwQEAwIHgDANBgkqhkiG9w0BAQQFAAOCAgEA
UFAkpFpwS63CC0xvifWWjdhSpud02BeJCE/PAPNt7ehtv5epJjoouY703gSuTMsx
6MuS7C2hYf4EUEuLMHlDszkqMoWFb2mycvmJVfiEojCzFGYXzvl0Nc5HeS5WP4jK
odwzTTV9Kaa1VrzBKF7qTJifTvMrMJ4TEKaw7LiCYietshj9cylrZx6Slbq5I44D
TOTXpsOdXYis6gWNjMw0IjZf3QbNKwIwOjTxEs03U2743CP49NTyenZMJ1OP+RGA
HGbFedynMezojIxF39PjUuzUFdKSGlQO9fR7VQoObb/0Y/Rk1/MyfmumrLESgYdS
PNzWS7WEtsO91FCpJ1Luojna7t8SdtYkSu72LmnaTxKI8yaAX46V3UZ97BsgxjQb
+hfr3RLCLAz3PXHig1G4D8P7bqeJz6AN39Hh/Cptan6naxyIp+zAqnbbaqG1Vle4
vCVHpD9tz9V5Mj9+DIJjzuox+fJiyaMsjPTw5bqAUZpwEkH0hOAfoJgMNGIK+uGi
ZjtgvayxkRuHXnBmVbUaT2vFpsbEfyVCcT/+Hlx50RB+9e+RwmWnTqJziwZVT52P
dKV0PqcDCIueS+cCyJZu37rco94quXqZkMs/vAKK+NShiOJ9D58lSYbJdqCCh0U8
TWB4XO5IKZzZNjGjxC531BUzXNCazYrJ0FHf3+J5ZsQ=
-----END CERTIFICATE-----
