Certificate:
    Data:
        Version: 3 (0x2)
        Serial Number: 2816 (0xb00)
    Signature Algorithm: md5WithRSAEncryption
        Issuer: C=US, ST=OH, L=Columbus, O=VikingVPN, OU=MyOrganizationalUnit, CN=VikingVPN CA/name=EasyRSA/emailAddress=me@myhost.mydomain
        Validity
            Not Before: Sep  9 16:55:00 2014 GMT
            Not After : Sep  6 16:55:00 2024 GMT
        Subject: CN=Client974Cert947b26
        Subject Public Key Info:
            Public Key Algorithm: rsaEncryption
                Public-Key: (4096 bit)
                Modulus:
                    00:a9:07:17:ff:dc:3c:0a:c5:02:9a:f3:0a:fe:18:
                    ea:8e:ae:a9:b3:9d:ca:be:5a:5c:05:98:e6:a8:1a:
                    6c:09:9e:fd:f5:e7:48:b5:8b:b5:f3:8e:d0:0a:4c:
                    9d:1c:47:71:55:bd:59:ed:ca:f3:e5:3d:4a:c8:d3:
                    ed:64:57:e1:89:fc:b8:e9:52:16:7f:c3:be:ab:6e:
                    57:6a:0a:d2:aa:50:e3:cc:0a:b3:ec:52:e2:a6:9c:
                    78:74:87:e6:8b:e7:5d:d9:c8:9b:25:43:e7:b2:55:
                    ce:1a:fb:4e:94:d1:55:27:5e:ea:92:70:70:ba:23:
                    62:2b:e6:32:5a:d3:27:fc:e9:7a:21:7c:72:b5:7f:
                    a8:68:fe:db:24:93:b3:56:54:01:cc:a5:95:ad:b0:
                    70:c6:6b:76:9f:e6:62:1c:b9:82:c8:21:cd:b8:0e:
                    e3:3f:a0:29:6f:ef:8d:9c:a8:21:1b:61:d6:10:b6:
                    16:84:cc:8f:68:ff:b1:c9:0f:8d:8f:40:0e:1e:de:
                    86:f5:29:69:77:1d:6e:f4:4b:fa:e9:39:29:5b:d4:
                    5d:37:32:2a:59:02:b3:40:fc:71:a5:36:68:93:99:
                    0d:f3:28:26:ae:24:33:83:64:4a:5f:2b:2c:a0:bf:
                    b0:56:2e:5a:a5:ed:50:fc:7e:a3:00:8a:32:f3:f7:
                    9c:8d:1d:3c:06:b4:85:69:1a:03:da:9a:0c:94:01:
                    72:d8:b6:b8:89:04:de:e5:11:07:c5:44:0d:ea:6b:
                    eb:50:ac:17:99:50:30:ba:40:77:19:5c:68:e7:87:
                    ae:24:80:d8:ea:b2:cb:43:f9:c5:f2:cc:a1:1b:8c:
                    09:b5:c8:3b:05:44:25:15:6d:b6:f5:c9:1b:6b:85:
                    0c:b2:04:8b:6b:af:66:cf:e1:fc:bd:a7:f5:aa:54:
                    96:20:33:81:7d:37:39:97:e9:10:44:39:df:cd:72:
                    29:84:5b:94:b9:e7:23:b1:16:39:34:01:4f:a8:42:
                    ea:f8:c3:ec:ca:ee:92:6c:3e:25:a0:f5:5a:0b:03:
                    c3:85:c6:34:30:d6:47:fa:d7:e4:29:14:7b:2e:2e:
                    8b:60:7c:f5:d7:dd:2a:89:f5:46:79:f0:94:3f:77:
                    14:e9:a7:fc:7b:d5:0a:63:89:b4:0e:91:32:1b:bb:
                    f9:d8:7c:82:40:c2:0f:fa:4a:1f:ee:4f:c9:25:0b:
                    79:dd:ae:de:30:74:64:6d:d9:4f:41:7e:49:ee:36:
                    4e:e1:97:94:7a:8a:10:74:46:8a:2d:75:2f:85:1e:
                    6e:c0:c7:3c:da:bb:20:5b:27:ad:9b:26:cf:ee:44:
                    40:80:47:b5:7b:e5:4e:98:1c:3a:d9:17:b8:c1:b4:
                    dd:58:97
                Exponent: 65537 (0x10001)
        X509v3 extensions:
            X509v3 Basic Constraints: 
                CA:FALSE
            Netscape Comment: 
                Easy-RSA Generated Certificate
            X509v3 Subject Key Identifier: 
                4C:53:4B:0D:99:1D:A3:4B:25:D3:73:D7:57:78:58:5B:29:B4:BC:0A
            X509v3 Authority Key Identifier: 
                keyid:12:CD:60:04:D2:A0:80:9E:70:ED:C6:99:B8:7B:2C:C6:52:FD:19:A1
                DirName:/C=US/ST=OH/L=Columbus/O=VikingVPN/OU=MyOrganizationalUnit/CN=VikingVPN CA/name=EasyRSA/emailAddress=me@myhost.mydomain
                serial:CF:35:85:EE:80:BF:2A:3E

            X509v3 Extended Key Usage: 
                TLS Web Client Authentication
            X509v3 Key Usage: 
                Digital Signature
    Signature Algorithm: md5WithRSAEncryption
         c1:6d:1b:92:42:c1:dc:5f:26:11:58:b4:a8:39:be:2c:c5:37:
         b1:dc:3e:c3:54:a9:f7:dc:e4:cb:a4:5b:e1:a5:3f:ad:60:cd:
         ee:2f:ec:54:76:bd:04:67:82:0b:c5:2a:bc:67:ca:cc:64:bb:
         79:38:54:c4:d8:80:f0:8b:0a:14:61:e3:12:df:db:dd:f4:27:
         96:0b:ce:b7:cf:db:df:a4:24:17:87:5b:0f:bb:4c:c3:3d:44:
         bb:08:f0:50:5b:c4:8a:94:49:b2:b1:47:96:79:24:32:12:2c:
         c8:4a:14:2b:90:8e:2c:7a:7b:94:79:28:50:8a:4b:a5:5a:da:
         4e:ca:ee:20:63:99:85:7f:62:0e:f5:57:fd:9d:70:d6:5a:98:
         25:22:5d:87:14:6a:87:b8:2b:b8:e3:06:f5:10:ba:82:de:fb:
         59:de:71:76:dd:6e:6b:23:ca:a5:19:86:d9:a6:48:e0:9d:bf:
         98:22:08:7e:8e:4a:0f:e1:30:6e:d9:62:c4:77:3e:7e:11:e7:
         88:00:26:0e:b1:8c:a7:42:f3:31:53:5a:02:55:2d:b3:32:a9:
         13:45:4c:64:b1:30:31:8b:b0:6a:b2:cb:cd:04:0e:0e:2a:bc:
         a9:c0:53:75:bf:eb:47:88:24:75:12:c9:60:c0:0a:9d:fa:55:
         3f:09:a3:cf:c6:9a:8f:24:16:73:1e:a7:8b:e0:a0:00:c7:57:
         a5:56:d3:7a:ef:d4:81:78:b8:2f:1f:45:40:74:3a:d9:48:fa:
         eb:17:c9:1c:d9:aa:d9:02:ae:4e:e3:86:cb:b1:5a:de:92:4f:
         05:36:46:06:3a:6e:9f:03:2e:5b:f3:9d:1c:17:48:8e:e9:81:
         7a:ad:0d:1b:5e:15:5f:f1:a4:df:79:9e:6b:13:3e:23:14:4f:
         f2:8b:53:cb:24:ab:50:40:b7:fe:2b:8e:bb:e9:c9:80:51:63:
         d2:3d:f0:36:93:51:61:f4:fb:85:16:5a:e3:9c:02:9b:83:68:
         8d:10:a4:88:f7:5c:95:fb:2c:e7:73:1b:bc:10:7a:00:0e:f0:
         be:2c:f5:41:88:f2:93:0e:13:b5:00:23:fa:5b:47:c1:e3:85:
         35:4e:2d:eb:68:0c:88:50:5e:a0:77:db:f5:a5:ae:1f:e7:62:
         2a:84:d2:1e:d2:75:ff:3a:1c:b6:f4:f8:d5:1f:8d:df:01:0a:
         f4:b7:d7:12:96:8a:66:87:c8:16:fd:ae:26:0a:64:de:db:4b:
         d4:65:f6:6d:c0:02:2c:e2:5e:d4:47:51:d1:5c:87:d9:26:e5:
         cc:56:e1:bc:b5:db:5e:04:90:11:4b:0a:f0:dd:1e:18:80:ab:
         69:8a:c5:c2:15:4b:4f:f4
-----BEGIN CERTIFICATE-----
MIIGrDCCBJSgAwIBAgICCwAwDQYJKoZIhvcNAQEEBQAwgawxCzAJBgNVBAYTAlVT
MQswCQYDVQQIEwJPSDERMA8GA1UEBxMIQ29sdW1idXMxEjAQBgNVBAoTCVZpa2lu
Z1ZQTjEdMBsGA1UECxMUTXlPcmdhbml6YXRpb25hbFVuaXQxFTATBgNVBAMTDFZp
a2luZ1ZQTiBDQTEQMA4GA1UEKRMHRWFzeVJTQTEhMB8GCSqGSIb3DQEJARYSbWVA
bXlob3N0Lm15ZG9tYWluMB4XDTE0MDkwOTE2NTUwMFoXDTI0MDkwNjE2NTUwMFow
HjEcMBoGA1UEAxMTQ2xpZW50OTc0Q2VydDk0N2IyNjCCAiIwDQYJKoZIhvcNAQEB
BQADggIPADCCAgoCggIBAKkHF//cPArFAprzCv4Y6o6uqbOdyr5aXAWY5qgabAme
/fXnSLWLtfOO0ApMnRxHcVW9We3K8+U9SsjT7WRX4Yn8uOlSFn/DvqtuV2oK0qpQ
48wKs+xS4qaceHSH5ovnXdnImyVD57JVzhr7TpTRVSde6pJwcLojYivmMlrTJ/zp
eiF8crV/qGj+2ySTs1ZUAcylla2wcMZrdp/mYhy5gsghzbgO4z+gKW/vjZyoIRth
1hC2FoTMj2j/sckPjY9ADh7ehvUpaXcdbvRL+uk5KVvUXTcyKlkCs0D8caU2aJOZ
DfMoJq4kM4NkSl8rLKC/sFYuWqXtUPx+owCKMvP3nI0dPAa0hWkaA9qaDJQBcti2
uIkE3uURB8VEDepr61CsF5lQMLpAdxlcaOeHriSA2Oqyy0P5xfLMoRuMCbXIOwVE
JRVttvXJG2uFDLIEi2uvZs/h/L2n9apUliAzgX03OZfpEEQ5381yKYRblLnnI7EW
OTQBT6hC6vjD7Mrukmw+JaD1WgsDw4XGNDDWR/rX5CkUey4ui2B89dfdKon1Rnnw
lD93FOmn/HvVCmOJtA6RMhu7+dh8gkDCD/pKH+5PySULed2u3jB0ZG3ZT0F+Se42
TuGXlHqKEHRGii11L4UebsDHPNq7IFsnrZsmz+5EQIBHtXvlTpgcOtkXuMG03ViX
AgMBAAGjggFjMIIBXzAJBgNVHRMEAjAAMC0GCWCGSAGG+EIBDQQgFh5FYXN5LVJT
QSBHZW5lcmF0ZWQgQ2VydGlmaWNhdGUwHQYDVR0OBBYEFExTSw2ZHaNLJdNz11d4
WFsptLwKMIHhBgNVHSMEgdkwgdaAFBLNYATSoICecO3Gmbh7LMZS/RmhoYGypIGv
MIGsMQswCQYDVQQGEwJVUzELMAkGA1UECBMCT0gxETAPBgNVBAcTCENvbHVtYnVz
MRIwEAYDVQQKEwlWaWtpbmdWUE4xHTAbBgNVBAsTFE15T3JnYW5pemF0aW9uYWxV
bml0MRUwEwYDVQQDEwxWaWtpbmdWUE4gQ0ExEDAOBgNVBCkTB0Vhc3lSU0ExITAf
BgkqhkiG9w0BCQEWEm1lQG15aG9zdC5teWRvbWFpboIJAM81he6Avyo+MBMGA1Ud
JQQMMAoGCCsGAQUFBwMCMAsGA1UdDwQEAwIHgDANBgkqhkiG9w0BAQQFAAOCAgEA
wW0bkkLB3F8mEVi0qDm+LMU3sdw+w1Sp99zky6Rb4aU/rWDN7i/sVHa9BGeCC8Uq
vGfKzGS7eThUxNiA8IsKFGHjEt/b3fQnlgvOt8/b36QkF4dbD7tMwz1EuwjwUFvE
ipRJsrFHlnkkMhIsyEoUK5COLHp7lHkoUIpLpVraTsruIGOZhX9iDvVX/Z1w1lqY
JSJdhxRqh7gruOMG9RC6gt77Wd5xdt1uayPKpRmG2aZI4J2/mCIIfo5KD+Ewbtli
xHc+fhHniAAmDrGMp0LzMVNaAlUtszKpE0VMZLEwMYuwarLLzQQODiq8qcBTdb/r
R4gkdRLJYMAKnfpVPwmjz8aajyQWcx6ni+CgAMdXpVbTeu/UgXi4Lx9FQHQ62Uj6
6xfJHNmq2QKuTuOGy7Fa3pJPBTZGBjpunwMuW/OdHBdIjumBeq0NG14VX/Gk33me
axM+IxRP8otTyySrUEC3/iuOu+nJgFFj0j3wNpNRYfT7hRZa45wCm4NojRCkiPdc
lfss53MbvBB6AA7wviz1QYjykw4TtQAj+ltHweOFNU4t62gMiFBeoHfb9aWuH+di
KoTSHtJ1/zoctvT41R+N3wEK9LfXEpaKZofIFv2uJgpk3ttL1GX2bcACLOJe1EdR
0VyH2SblzFbhvLXbXgSQEUsK8N0eGICraYrFwhVLT/Q=
-----END CERTIFICATE-----
