Certificate:
    Data:
        Version: 3 (0x2)
        Serial Number: 2827 (0xb0b)
    Signature Algorithm: md5WithRSAEncryption
        Issuer: C=US, ST=OH, L=Columbus, O=VikingVPN, OU=MyOrganizationalUnit, CN=VikingVPN CA/name=EasyRSA/emailAddress=me@myhost.mydomain
        Validity
            Not Before: Sep 11 23:24:30 2014 GMT
            Not After : Sep  8 23:24:30 2024 GMT
        Subject: CN=Client142Cert5166a7
        Subject Public Key Info:
            Public Key Algorithm: rsaEncryption
                Public-Key: (4096 bit)
                Modulus:
                    00:f4:cc:9d:b5:00:a3:06:a6:81:92:f3:6f:33:80:
                    4d:0f:6b:6f:8f:d6:3c:37:a6:00:26:e7:63:7b:f4:
                    8f:1c:c1:6f:53:1e:73:52:7a:88:e3:e4:38:5c:62:
                    93:b1:8f:98:a5:38:bc:39:be:93:08:c0:ad:b5:43:
                    4f:0f:0b:3e:dc:89:6f:80:14:0b:a6:e7:f0:c2:51:
                    b9:f4:89:e8:24:3a:49:47:63:34:ad:ab:60:e2:6b:
                    cc:8b:c6:63:4d:d8:a0:57:d9:1c:43:34:dc:72:3f:
                    a2:5e:cb:04:a5:97:55:d3:ce:e8:da:5a:63:d4:49:
                    7f:98:f4:40:f8:24:4f:4c:12:f5:6e:2b:ee:39:db:
                    06:ab:56:63:30:d1:ba:72:e9:2f:11:21:62:ea:b2:
                    28:cb:ce:78:77:22:7f:b2:6e:e0:ef:34:94:fc:4b:
                    91:7f:10:09:9d:b8:35:23:54:16:c1:df:50:e8:14:
                    5d:8c:11:0d:49:8b:ce:e1:ae:af:1e:50:8c:7b:e1:
                    30:1b:f8:0b:9d:af:f8:98:07:da:ec:85:e5:10:a1:
                    f3:71:39:e2:fa:76:9e:fd:34:1f:74:8e:32:d8:c6:
                    4b:c8:15:dd:dc:11:1a:af:ab:4d:ab:87:b4:42:08:
                    7c:e6:24:74:2e:a6:e8:c6:31:fc:62:78:3d:d6:65:
                    92:c1:da:27:ca:b8:ba:df:4a:b0:4b:a4:57:f6:76:
                    30:97:76:66:05:40:50:11:fe:d2:be:cd:40:35:de:
                    d0:bc:8c:21:30:b8:52:08:2a:88:84:7b:f3:5b:34:
                    52:fc:e9:e1:8a:d1:b9:57:33:6d:3e:62:41:0c:d2:
                    12:e6:13:a2:cb:9d:cd:e9:93:c7:18:81:4b:82:37:
                    b4:57:5d:e3:fd:36:a6:8e:c0:67:4a:cb:9f:eb:e7:
                    e0:a5:98:5e:26:f0:f3:ba:9b:f5:55:85:83:0c:96:
                    71:14:2d:e0:d4:d9:73:2a:99:27:d0:b9:69:c6:53:
                    fb:1b:8f:2f:cc:bb:76:63:c4:b3:f5:f6:bc:32:e0:
                    0b:ed:b3:80:c0:72:a0:c4:ff:b5:3b:2b:a2:b0:60:
                    2c:77:35:22:db:b8:70:f3:66:ea:eb:3b:ab:da:65:
                    d8:14:2a:f7:0f:91:96:65:db:09:91:71:61:fc:da:
                    af:a6:29:9c:1b:60:f9:78:68:e3:43:9a:5c:2d:1d:
                    e5:85:01:f7:aa:70:e3:4b:3a:44:a7:8c:13:78:e3:
                    20:1c:23:fe:85:5f:f9:86:c8:62:36:b3:8e:ef:2b:
                    76:f5:29:90:da:26:cd:7c:07:84:a7:d1:47:b1:f7:
                    0b:9e:61:db:fd:83:87:78:d0:58:dd:87:9a:d0:bd:
                    01:d9:81
                Exponent: 65537 (0x10001)
        X509v3 extensions:
            X509v3 Basic Constraints: 
                CA:FALSE
            Netscape Comment: 
                Easy-RSA Generated Certificate
            X509v3 Subject Key Identifier: 
                07:9E:F9:44:0B:05:DC:E8:2A:42:21:4F:87:DF:0F:EE:82:52:2E:11
            X509v3 Authority Key Identifier: 
                keyid:12:CD:60:04:D2:A0:80:9E:70:ED:C6:99:B8:7B:2C:C6:52:FD:19:A1
                DirName:/C=US/ST=OH/L=Columbus/O=VikingVPN/OU=MyOrganizationalUnit/CN=VikingVPN CA/name=EasyRSA/emailAddress=me@myhost.mydomain
                serial:CF:35:85:EE:80:BF:2A:3E

            X509v3 Extended Key Usage: 
                TLS Web Client Authentication
            X509v3 Key Usage: 
                Digital Signature
    Signature Algorithm: md5WithRSAEncryption
         60:93:af:d1:60:00:6c:d2:e5:4b:9e:28:d7:a7:8d:81:0a:64:
         5f:60:6e:fe:7f:5b:95:e9:c8:09:66:2d:76:e0:8a:65:9d:64:
         23:c3:6e:99:09:a7:cb:a5:52:e2:7f:f0:76:f0:48:15:62:1d:
         dc:d3:0b:cb:a0:98:ec:02:d3:f7:54:2c:00:d2:fd:62:be:c9:
         87:33:9b:55:f0:27:f9:df:36:d7:1a:a9:8a:53:b3:3b:3d:22:
         50:9e:64:39:f1:6e:9f:70:fa:e1:45:f4:53:3d:37:a8:5b:b8:
         b2:2e:0b:49:5d:0e:c6:82:80:38:54:98:21:1a:fd:71:3a:0e:
         64:43:5e:71:ad:0c:45:73:cc:25:b9:51:d3:72:ac:e6:7d:c8:
         bd:c6:10:d6:eb:cd:c0:6f:94:70:c5:95:ae:4b:23:3a:1c:8e:
         64:38:fb:37:25:86:0d:00:7b:67:a2:c9:0b:8a:4b:2c:7f:05:
         62:82:cb:c1:53:9e:6f:81:34:20:d6:6e:d8:b1:60:cd:3a:c0:
         59:ad:cf:97:9a:1b:7e:3e:bd:0a:57:68:19:7e:8a:02:ac:ee:
         5b:47:f2:28:28:42:12:e6:bc:56:83:1e:db:4b:fe:02:0b:45:
         d8:7c:b5:5a:e3:1c:3d:7f:4d:ae:f6:2e:f8:43:b9:e6:a0:31:
         f5:41:e4:39:87:87:09:48:db:e7:02:93:62:73:fa:aa:d8:6b:
         92:be:31:65:c4:9a:fa:07:03:ba:6b:cf:96:87:13:b7:37:99:
         e2:75:0a:8b:01:92:e3:18:69:09:c2:22:02:41:6b:3d:76:c6:
         cc:be:20:84:da:f1:aa:5b:85:db:33:88:bd:27:35:3c:90:0c:
         f7:c5:68:d5:f4:c3:25:b0:63:57:92:4e:13:10:44:f6:56:86:
         53:c4:fa:c7:d7:18:24:e1:74:9b:2d:7d:a1:12:c2:20:c8:42:
         57:43:55:e9:ef:e2:dd:83:e7:a1:fc:a1:63:6f:00:f4:d3:b4:
         05:77:90:38:32:ea:ed:63:41:36:37:f7:41:ad:19:0c:1b:4f:
         c0:8f:47:d1:96:1e:23:26:56:59:76:ca:b6:83:6d:dc:d4:38:
         a8:c7:94:1e:d6:fa:23:31:17:e4:0f:4c:c7:24:50:47:9b:b8:
         00:70:2e:73:b7:75:85:4a:9a:bb:b0:74:47:67:8a:2d:bf:25:
         ad:72:17:b8:88:c8:2e:f5:66:5a:e6:30:88:17:2b:d4:ba:63:
         d3:aa:80:e6:f3:84:6a:9f:06:0c:a2:8d:e1:f2:4f:d8:37:3b:
         03:6d:68:3a:b1:55:3e:59:71:9f:e2:a5:da:3f:b0:fe:58:c8:
         d1:65:6a:6e:fd:85:de:75
-----BEGIN CERTIFICATE-----
MIIGrDCCBJSgAwIBAgICCwswDQYJKoZIhvcNAQEEBQAwgawxCzAJBgNVBAYTAlVT
MQswCQYDVQQIEwJPSDERMA8GA1UEBxMIQ29sdW1idXMxEjAQBgNVBAoTCVZpa2lu
Z1ZQTjEdMBsGA1UECxMUTXlPcmdhbml6YXRpb25hbFVuaXQxFTATBgNVBAMTDFZp
a2luZ1ZQTiBDQTEQMA4GA1UEKRMHRWFzeVJTQTEhMB8GCSqGSIb3DQEJARYSbWVA
bXlob3N0Lm15ZG9tYWluMB4XDTE0MDkxMTIzMjQzMFoXDTI0MDkwODIzMjQzMFow
HjEcMBoGA1UEAxMTQ2xpZW50MTQyQ2VydDUxNjZhNzCCAiIwDQYJKoZIhvcNAQEB
BQADggIPADCCAgoCggIBAPTMnbUAowamgZLzbzOATQ9rb4/WPDemACbnY3v0jxzB
b1Mec1J6iOPkOFxik7GPmKU4vDm+kwjArbVDTw8LPtyJb4AUC6bn8MJRufSJ6CQ6
SUdjNK2rYOJrzIvGY03YoFfZHEM03HI/ol7LBKWXVdPO6NpaY9RJf5j0QPgkT0wS
9W4r7jnbBqtWYzDRunLpLxEhYuqyKMvOeHcif7Ju4O80lPxLkX8QCZ24NSNUFsHf
UOgUXYwRDUmLzuGurx5QjHvhMBv4C52v+JgH2uyF5RCh83E54vp2nv00H3SOMtjG
S8gV3dwRGq+rTauHtEIIfOYkdC6m6MYx/GJ4PdZlksHaJ8q4ut9KsEukV/Z2MJd2
ZgVAUBH+0r7NQDXe0LyMITC4UggqiIR781s0Uvzp4YrRuVczbT5iQQzSEuYTosud
zemTxxiBS4I3tFdd4/02po7AZ0rLn+vn4KWYXibw87qb9VWFgwyWcRQt4NTZcyqZ
J9C5acZT+xuPL8y7dmPEs/X2vDLgC+2zgMByoMT/tTsrorBgLHc1Itu4cPNm6us7
q9pl2BQq9w+RlmXbCZFxYfzar6YpnBtg+Xho40OaXC0d5YUB96pw40s6RKeME3jj
IBwj/oVf+YbIYjazju8rdvUpkNomzXwHhKfRR7H3C55h2/2Dh3jQWN2HmtC9AdmB
AgMBAAGjggFjMIIBXzAJBgNVHRMEAjAAMC0GCWCGSAGG+EIBDQQgFh5FYXN5LVJT
QSBHZW5lcmF0ZWQgQ2VydGlmaWNhdGUwHQYDVR0OBBYEFAee+UQLBdzoKkIhT4ff
D+6CUi4RMIHhBgNVHSMEgdkwgdaAFBLNYATSoICecO3Gmbh7LMZS/RmhoYGypIGv
MIGsMQswCQYDVQQGEwJVUzELMAkGA1UECBMCT0gxETAPBgNVBAcTCENvbHVtYnVz
MRIwEAYDVQQKEwlWaWtpbmdWUE4xHTAbBgNVBAsTFE15T3JnYW5pemF0aW9uYWxV
bml0MRUwEwYDVQQDEwxWaWtpbmdWUE4gQ0ExEDAOBgNVBCkTB0Vhc3lSU0ExITAf
BgkqhkiG9w0BCQEWEm1lQG15aG9zdC5teWRvbWFpboIJAM81he6Avyo+MBMGA1Ud
JQQMMAoGCCsGAQUFBwMCMAsGA1UdDwQEAwIHgDANBgkqhkiG9w0BAQQFAAOCAgEA
YJOv0WAAbNLlS54o16eNgQpkX2Bu/n9blenICWYtduCKZZ1kI8NumQmny6VS4n/w
dvBIFWId3NMLy6CY7ALT91QsANL9Yr7JhzObVfAn+d821xqpilOzOz0iUJ5kOfFu
n3D64UX0Uz03qFu4si4LSV0OxoKAOFSYIRr9cToOZENeca0MRXPMJblR03Ks5n3I
vcYQ1uvNwG+UcMWVrksjOhyOZDj7NyWGDQB7Z6LJC4pLLH8FYoLLwVOeb4E0INZu
2LFgzTrAWa3Pl5obfj69CldoGX6KAqzuW0fyKChCEua8VoMe20v+AgtF2Hy1WuMc
PX9NrvYu+EO55qAx9UHkOYeHCUjb5wKTYnP6qthrkr4xZcSa+gcDumvPlocTtzeZ
4nUKiwGS4xhpCcIiAkFrPXbGzL4ghNrxqluF2zOIvSc1PJAM98Vo1fTDJbBjV5JO
ExBE9laGU8T6x9cYJOF0my19oRLCIMhCV0NV6e/i3YPnofyhY28A9NO0BXeQODLq
7WNBNjf3Qa0ZDBtPwI9H0ZYeIyZWWXbKtoNt3NQ4qMeUHtb6IzEX5A9MxyRQR5u4
AHAuc7d1hUqau7B0R2eKLb8lrXIXuIjILvVmWuYwiBcr1Lpj06qA5vOEap8GDKKN
4fJP2Dc7A21oOrFVPllxn+Kl2j+w/ljI0WVqbv2F3nU=
-----END CERTIFICATE-----
