Certificate:
    Data:
        Version: 3 (0x2)
        Serial Number: 2834 (0xb12)
    Signature Algorithm: md5WithRSAEncryption
        Issuer: C=US, ST=OH, L=Columbus, O=VikingVPN, OU=MyOrganizationalUnit, CN=VikingVPN CA/name=EasyRSA/emailAddress=me@myhost.mydomain
        Validity
            Not Before: Sep 12 22:25:29 2014 GMT
            Not After : Sep  9 22:25:29 2024 GMT
        Subject: CN=Client982Certb5ebd2
        Subject Public Key Info:
            Public Key Algorithm: rsaEncryption
                Public-Key: (4096 bit)
                Modulus:
                    00:b8:c8:49:a6:1a:2e:97:16:70:73:6f:2d:80:85:
                    11:3d:53:0f:db:68:cf:59:65:a4:81:a7:bf:9b:66:
                    c9:9c:7b:03:41:8d:aa:d9:c0:6f:2d:76:bd:eb:b1:
                    99:98:c3:73:d6:18:06:d9:29:73:b4:72:c0:eb:9c:
                    c3:5c:2e:d0:5b:36:74:b5:29:a2:f3:26:3f:c7:91:
                    5a:93:fe:d3:99:36:21:15:eb:43:ac:cd:03:1c:30:
                    a5:59:cc:a4:59:8c:e7:97:b0:23:80:f4:40:8e:8c:
                    ec:63:fc:84:da:95:3b:72:a0:d9:34:f3:af:50:b6:
                    63:8e:fc:9a:ad:f6:00:2e:99:47:f0:c1:f9:f1:04:
                    06:b7:70:cc:26:c2:a8:dc:c3:f5:ef:1f:a2:e4:8c:
                    f7:3c:d7:00:a9:f3:0e:6d:37:1e:46:50:c5:8d:5f:
                    93:4c:ef:e7:ff:e7:9e:9a:ac:69:47:45:9f:ae:e8:
                    68:bb:1f:b6:9d:2d:54:4d:6e:e6:88:bb:59:dc:50:
                    60:c9:eb:c7:38:f9:15:80:a5:32:8b:cd:f1:35:6f:
                    61:7c:76:2a:4d:3b:1e:09:09:54:f8:86:10:9a:21:
                    fd:5b:0d:56:dc:db:ba:c3:9a:83:75:a9:d1:fb:1e:
                    b3:11:92:e4:8f:69:52:22:d7:23:60:ea:dc:4c:ba:
                    2f:f5:8a:f3:fb:46:b7:cc:8a:ce:ef:06:f2:4b:6f:
                    95:0b:2f:8c:ad:25:1e:51:ad:0b:37:73:60:82:06:
                    8c:1c:cc:4b:e2:9c:09:f0:79:be:f7:14:8e:1f:44:
                    d6:5f:dd:24:9f:a7:8f:67:f9:8a:76:11:28:e3:13:
                    43:b1:5a:ca:4f:6a:2b:d2:f6:26:ba:c2:24:46:7a:
                    4d:93:3d:f0:4a:44:66:8f:7a:35:8e:60:73:f0:d3:
                    39:de:31:bb:e4:e5:ef:ba:1b:96:d5:fa:5c:1c:24:
                    5b:9a:64:b4:0c:ac:70:cd:01:38:50:88:69:9d:54:
                    d4:4e:9c:3e:11:8f:76:7d:2f:4c:34:a0:82:fe:98:
                    dc:2c:35:c3:d2:a1:68:70:a5:2a:76:62:81:c5:84:
                    8e:a2:65:b7:8e:2c:60:8a:61:8c:a2:1f:75:61:e1:
                    03:8b:58:0c:dd:b4:7d:27:32:ec:8c:31:d3:06:e8:
                    1f:ed:b5:d4:29:61:0e:3b:95:6c:69:ad:ba:60:ed:
                    5f:9e:3d:60:39:b5:26:97:6a:ec:81:0c:68:eb:2d:
                    ec:b4:16:41:7e:f9:ad:06:9c:d9:1b:39:48:1f:8f:
                    6f:de:75:07:99:2e:b6:6a:6d:22:a2:9e:10:f2:c6:
                    82:42:e8:f4:b8:9b:93:e6:27:97:f7:7d:4e:09:37:
                    1c:93:7b
                Exponent: 65537 (0x10001)
        X509v3 extensions:
            X509v3 Basic Constraints: 
                CA:FALSE
            Netscape Comment: 
                Easy-RSA Generated Certificate
            X509v3 Subject Key Identifier: 
                8E:2C:9F:12:0F:78:FA:99:79:B5:65:50:A0:77:11:39:9A:75:A9:48
            X509v3 Authority Key Identifier: 
                keyid:12:CD:60:04:D2:A0:80:9E:70:ED:C6:99:B8:7B:2C:C6:52:FD:19:A1
                DirName:/C=US/ST=OH/L=Columbus/O=VikingVPN/OU=MyOrganizationalUnit/CN=VikingVPN CA/name=EasyRSA/emailAddress=me@myhost.mydomain
                serial:CF:35:85:EE:80:BF:2A:3E

            X509v3 Extended Key Usage: 
                TLS Web Client Authentication
            X509v3 Key Usage: 
                Digital Signature
    Signature Algorithm: md5WithRSAEncryption
         65:2b:79:f6:fa:4b:9a:d2:19:34:72:26:66:9e:2e:63:42:f3:
         4c:7f:af:59:29:2f:cb:32:f6:18:98:ae:27:c1:79:5e:9c:26:
         a3:d9:83:a6:20:3f:20:42:90:5f:fc:4e:e8:aa:27:41:5f:42:
         f2:35:2b:3b:1c:0f:ad:e2:e9:d5:3f:4a:80:a6:37:b2:4d:07:
         84:79:c5:44:e3:00:58:c1:4b:93:03:98:29:a3:7b:63:01:67:
         48:68:b7:28:6b:5a:08:58:40:59:a1:fc:ca:2d:90:41:51:5c:
         b7:08:03:e9:ce:24:77:53:e9:d5:9a:12:a4:b3:b5:83:64:20:
         8e:f5:4e:62:d6:2e:1e:a6:78:61:59:79:de:5b:a4:ce:0c:6e:
         09:6d:fc:20:54:9f:e6:7e:97:42:64:58:99:8a:01:d4:0f:d1:
         3e:f3:0a:1d:83:87:50:60:03:5d:22:32:82:1c:79:ff:f4:70:
         80:57:b4:75:2d:8a:ce:4a:5a:43:3e:71:a8:7f:09:2d:e5:c7:
         6f:fe:d0:c3:34:dd:ea:1f:00:f1:ec:a0:e5:8d:2f:9d:5f:a0:
         61:8d:88:d2:63:7e:d4:5a:fb:18:dd:7a:dc:98:f0:b5:8e:f0:
         5e:75:0c:6e:f8:e7:9a:60:c1:26:86:03:df:0c:69:a6:c5:49:
         25:02:f2:89:e0:fe:09:6f:cf:4a:dd:b8:18:05:6c:a7:74:0e:
         be:7a:cb:a7:4a:f5:5a:37:c7:b3:6d:f4:f2:94:0a:e2:63:23:
         3d:80:ef:da:99:82:0d:91:7d:73:27:a4:a0:cc:0d:ad:43:67:
         25:78:dc:3d:d8:5b:cd:9a:43:1b:da:fe:ef:a6:37:3f:48:9a:
         30:80:5e:c3:57:84:50:91:db:87:e7:38:e8:de:f0:8b:84:b0:
         74:48:68:c6:0c:34:13:3c:f2:70:03:59:16:58:ae:d7:82:57:
         16:39:2b:1d:fa:01:e8:df:97:d6:d9:6a:62:ab:e5:2e:f1:97:
         fa:4d:0f:f8:5e:e6:fa:6a:2b:70:8c:98:ca:b0:77:41:03:0a:
         43:1c:24:ac:bd:15:c1:6d:04:47:1e:5a:9d:6f:e6:40:2c:e0:
         c4:9f:c1:06:87:1e:c0:6d:ab:2c:34:bd:8c:12:56:e1:86:4f:
         b6:f0:91:68:0c:5e:0b:7e:27:4d:50:37:50:57:a4:a8:b3:e6:
         bd:96:dd:fe:03:81:67:95:32:56:6e:65:98:79:b7:97:9e:b7:
         34:1b:38:ad:e4:04:94:05:37:66:22:76:f3:84:f5:64:31:8c:
         07:3c:77:95:b8:62:98:cf:33:cf:ae:9b:61:f7:d1:6f:86:60:
         8e:38:0e:d4:e2:86:f7:87
-----BEGIN CERTIFICATE-----
MIIGrDCCBJSgAwIBAgICCxIwDQYJKoZIhvcNAQEEBQAwgawxCzAJBgNVBAYTAlVT
MQswCQYDVQQIEwJPSDERMA8GA1UEBxMIQ29sdW1idXMxEjAQBgNVBAoTCVZpa2lu
Z1ZQTjEdMBsGA1UECxMUTXlPcmdhbml6YXRpb25hbFVuaXQxFTATBgNVBAMTDFZp
a2luZ1ZQTiBDQTEQMA4GA1UEKRMHRWFzeVJTQTEhMB8GCSqGSIb3DQEJARYSbWVA
bXlob3N0Lm15ZG9tYWluMB4XDTE0MDkxMjIyMjUyOVoXDTI0MDkwOTIyMjUyOVow
HjEcMBoGA1UEAxMTQ2xpZW50OTgyQ2VydGI1ZWJkMjCCAiIwDQYJKoZIhvcNAQEB
BQADggIPADCCAgoCggIBALjISaYaLpcWcHNvLYCFET1TD9toz1llpIGnv5tmyZx7
A0GNqtnAby12veuxmZjDc9YYBtkpc7RywOucw1wu0Fs2dLUpovMmP8eRWpP+05k2
IRXrQ6zNAxwwpVnMpFmM55ewI4D0QI6M7GP8hNqVO3Kg2TTzr1C2Y478mq32AC6Z
R/DB+fEEBrdwzCbCqNzD9e8fouSM9zzXAKnzDm03HkZQxY1fk0zv5//nnpqsaUdF
n67oaLsftp0tVE1u5oi7WdxQYMnrxzj5FYClMovN8TVvYXx2Kk07HgkJVPiGEJoh
/VsNVtzbusOag3Wp0fsesxGS5I9pUiLXI2Dq3Ey6L/WK8/tGt8yKzu8G8ktvlQsv
jK0lHlGtCzdzYIIGjBzMS+KcCfB5vvcUjh9E1l/dJJ+nj2f5inYRKOMTQ7Fayk9q
K9L2JrrCJEZ6TZM98EpEZo96NY5gc/DTOd4xu+Tl77obltX6XBwkW5pktAyscM0B
OFCIaZ1U1E6cPhGPdn0vTDSggv6Y3Cw1w9KhaHClKnZigcWEjqJlt44sYIphjKIf
dWHhA4tYDN20fScy7Iwx0wboH+211ClhDjuVbGmtumDtX549YDm1Jpdq7IEMaOst
7LQWQX75rQac2Rs5SB+Pb951B5kutmptIqKeEPLGgkLo9Libk+Ynl/d9Tgk3HJN7
AgMBAAGjggFjMIIBXzAJBgNVHRMEAjAAMC0GCWCGSAGG+EIBDQQgFh5FYXN5LVJT
QSBHZW5lcmF0ZWQgQ2VydGlmaWNhdGUwHQYDVR0OBBYEFI4snxIPePqZebVlUKB3
ETmadalIMIHhBgNVHSMEgdkwgdaAFBLNYATSoICecO3Gmbh7LMZS/RmhoYGypIGv
MIGsMQswCQYDVQQGEwJVUzELMAkGA1UECBMCT0gxETAPBgNVBAcTCENvbHVtYnVz
MRIwEAYDVQQKEwlWaWtpbmdWUE4xHTAbBgNVBAsTFE15T3JnYW5pemF0aW9uYWxV
bml0MRUwEwYDVQQDEwxWaWtpbmdWUE4gQ0ExEDAOBgNVBCkTB0Vhc3lSU0ExITAf
BgkqhkiG9w0BCQEWEm1lQG15aG9zdC5teWRvbWFpboIJAM81he6Avyo+MBMGA1Ud
JQQMMAoGCCsGAQUFBwMCMAsGA1UdDwQEAwIHgDANBgkqhkiG9w0BAQQFAAOCAgEA
ZSt59vpLmtIZNHImZp4uY0LzTH+vWSkvyzL2GJiuJ8F5Xpwmo9mDpiA/IEKQX/xO
6KonQV9C8jUrOxwPreLp1T9KgKY3sk0HhHnFROMAWMFLkwOYKaN7YwFnSGi3KGta
CFhAWaH8yi2QQVFctwgD6c4kd1Pp1ZoSpLO1g2QgjvVOYtYuHqZ4YVl53lukzgxu
CW38IFSf5n6XQmRYmYoB1A/RPvMKHYOHUGADXSIyghx5//RwgFe0dS2KzkpaQz5x
qH8JLeXHb/7QwzTd6h8A8eyg5Y0vnV+gYY2I0mN+1Fr7GN163JjwtY7wXnUMbvjn
mmDBJoYD3wxppsVJJQLyieD+CW/PSt24GAVsp3QOvnrLp0r1WjfHs2308pQK4mMj
PYDv2pmCDZF9cyekoMwNrUNnJXjcPdhbzZpDG9r+76Y3P0iaMIBew1eEUJHbh+c4
6N7wi4SwdEhoxgw0EzzycANZFliu14JXFjkrHfoB6N+X1tlqYqvlLvGX+k0P+F7m
+morcIyYyrB3QQMKQxwkrL0VwW0ERx5anW/mQCzgxJ/BBocewG2rLDS9jBJW4YZP
tvCRaAxeC34nTVA3UFekqLPmvZbd/gOBZ5UyVm5lmHm3l563NBs4reQElAU3ZiJ2
84T1ZDGMBzx3lbhimM8zz66bYffRb4ZgjjgO1OKG94c=
-----END CERTIFICATE-----
