Certificate:
    Data:
        Version: 3 (0x2)
        Serial Number: 2848 (0xb20)
    Signature Algorithm: md5WithRSAEncryption
        Issuer: C=US, ST=OH, L=Columbus, O=VikingVPN, OU=MyOrganizationalUnit, CN=VikingVPN CA/name=EasyRSA/emailAddress=me@myhost.mydomain
        Validity
            Not Before: Sep 13 16:06:03 2014 GMT
            Not After : Sep 10 16:06:03 2024 GMT
        Subject: CN=Client984Certfcdd1a
        Subject Public Key Info:
            Public Key Algorithm: rsaEncryption
                Public-Key: (4096 bit)
                Modulus:
                    00:e8:14:9d:b9:7d:97:b4:e9:35:0c:ed:34:5c:5a:
                    f2:91:0e:15:d9:1f:20:1f:4f:c3:55:da:50:a9:11:
                    3d:57:94:ca:eb:66:b9:98:20:88:fc:4e:39:22:2b:
                    1f:7d:10:73:0a:76:f2:64:f4:d1:13:2a:4a:b9:40:
                    a9:81:b9:e3:e1:77:fb:df:75:79:d1:d2:a2:ac:0e:
                    67:be:60:6a:ad:8c:42:4d:ac:1c:b7:7b:d5:a4:7b:
                    7d:41:e0:35:63:56:2f:be:cf:a8:c6:33:39:46:ee:
                    dc:c8:07:50:66:e6:87:3b:8a:eb:41:c4:07:31:a3:
                    5f:eb:44:12:a8:2c:30:3c:52:b1:7f:ad:1e:bd:3f:
                    f2:8d:83:d3:e7:20:cf:4b:6a:df:3e:2d:5a:b4:2a:
                    d9:f8:3e:26:19:e4:63:71:cf:63:c0:30:43:50:09:
                    79:49:8e:04:82:08:eb:7c:7a:e6:06:fd:e7:3c:b1:
                    98:2a:a8:c1:e3:12:1d:87:87:78:0c:03:5e:94:82:
                    3b:2f:3c:92:a3:67:d4:22:ea:ca:f0:0d:61:b4:0f:
                    d1:d6:ac:82:33:ce:be:9b:4c:ef:cd:5f:9c:59:03:
                    e0:2b:dc:61:03:c5:af:45:ef:24:1b:0a:71:2a:f6:
                    b5:c1:85:85:87:0d:af:2a:97:0b:9b:a5:a6:7c:1c:
                    9a:1a:a3:ff:50:81:71:72:3f:67:89:75:f9:71:37:
                    8b:be:f8:88:62:de:81:1d:a9:d5:91:0b:e8:13:90:
                    40:07:8e:34:6d:a6:e7:f5:3c:10:d1:2b:97:98:31:
                    2b:d6:00:d5:6f:e7:62:0a:e1:2a:e0:01:c5:a8:48:
                    6d:56:bd:9b:e9:98:17:66:10:36:8f:1f:30:e8:d1:
                    43:5e:c3:6c:f0:22:e3:0c:3a:84:34:d1:d0:77:3f:
                    7f:32:3d:e6:06:b3:e1:77:86:e7:41:e3:18:0d:45:
                    9a:9c:bb:87:b5:aa:79:35:99:e7:d8:43:fc:ba:cd:
                    9c:d9:6e:87:5a:2f:d4:6d:a4:8e:46:7c:a5:82:7e:
                    04:53:e8:4c:52:2f:59:12:61:98:0a:44:03:54:a0:
                    46:01:ed:28:35:0c:ee:5c:92:d1:92:38:4c:17:70:
                    70:ae:30:24:ae:34:f7:bd:76:b9:d4:df:87:4d:49:
                    50:b7:02:38:38:32:7d:6f:5e:89:94:0e:b5:d5:88:
                    e5:14:7d:01:67:1f:0b:c6:70:30:e4:6a:5f:94:79:
                    8f:56:b9:53:f5:a0:b3:58:df:dc:54:96:32:65:db:
                    e5:cc:e7:77:3c:60:00:4c:27:42:5c:86:5a:a9:db:
                    68:c6:3c:7f:b0:54:53:4c:43:4d:3a:0c:0f:e4:b5:
                    d5:99:f3
                Exponent: 65537 (0x10001)
        X509v3 extensions:
            X509v3 Basic Constraints: 
                CA:FALSE
            Netscape Comment: 
                Easy-RSA Generated Certificate
            X509v3 Subject Key Identifier: 
                CF:B6:8B:9E:B0:55:28:BF:A5:BF:2C:16:77:B9:1F:13:0A:C0:FE:05
            X509v3 Authority Key Identifier: 
                keyid:12:CD:60:04:D2:A0:80:9E:70:ED:C6:99:B8:7B:2C:C6:52:FD:19:A1
                DirName:/C=US/ST=OH/L=Columbus/O=VikingVPN/OU=MyOrganizationalUnit/CN=VikingVPN CA/name=EasyRSA/emailAddress=me@myhost.mydomain
                serial:CF:35:85:EE:80:BF:2A:3E

            X509v3 Extended Key Usage: 
                TLS Web Client Authentication
            X509v3 Key Usage: 
                Digital Signature
    Signature Algorithm: md5WithRSAEncryption
         10:71:08:9f:02:89:39:5d:3a:94:cf:a3:67:e6:1b:30:9a:8b:
         b0:8c:d9:1e:5e:af:ac:40:6f:3b:96:22:ea:4e:28:58:eb:75:
         5d:13:0e:d1:15:16:b4:d0:1d:6c:13:a0:ea:ef:42:c8:e2:c4:
         1e:3c:ac:eb:e4:39:9e:bb:49:95:63:14:b9:c5:40:ba:6b:5f:
         d4:67:0d:75:1e:c3:ff:b0:c2:82:b1:b0:85:a8:fa:32:09:c5:
         78:c1:1b:7e:98:84:63:a9:06:3e:36:14:b7:dc:ed:9e:c0:f7:
         03:a2:f6:a1:6c:c6:e0:73:e8:ad:10:b0:07:23:d4:4f:e4:8c:
         77:82:1d:38:21:a9:5b:d2:63:3c:7e:f3:a7:61:e5:2e:ff:4d:
         a9:75:f8:68:3f:3e:3a:16:d1:89:ed:4e:84:37:15:5b:8f:50:
         d1:5b:de:0c:7f:15:51:f4:3a:c0:34:4f:41:e1:6c:f5:d8:1a:
         a7:a4:f8:d0:c3:77:6b:dd:5d:8f:99:45:da:6e:0b:1b:1a:03:
         f6:18:f7:41:e3:ea:17:e8:54:12:c4:91:ce:cd:f3:27:f9:be:
         2f:99:ea:39:e9:cc:33:76:35:84:76:35:4e:62:39:c3:8c:20:
         fb:d3:83:7f:1c:ec:9d:83:c5:61:e0:b1:2f:cc:a5:86:66:21:
         e0:d1:01:e0:f5:e6:1c:d5:ca:59:86:03:ec:d1:be:de:b5:42:
         7c:37:71:5d:46:92:34:21:2d:d4:11:f4:75:0e:dc:72:d0:c2:
         72:94:f5:17:a1:d2:e2:8c:f4:83:37:0c:72:6a:5c:ea:47:6d:
         2e:ff:8c:9b:16:84:a3:8c:8a:c3:96:39:6e:b6:72:51:66:c7:
         63:b4:e3:96:44:49:29:e3:d7:c9:f9:e2:48:dc:ac:66:e2:26:
         48:84:d8:94:a5:54:e1:86:24:1a:a2:c7:b6:57:73:99:b0:e9:
         0f:2b:1e:41:73:6b:45:bf:9c:78:f5:72:e4:ca:29:75:cd:61:
         9f:8e:ee:56:6a:b1:6a:ec:a9:67:a8:e4:a4:58:4c:43:7a:2f:
         5a:5c:13:d6:91:a4:6d:2f:96:b3:ed:26:2f:b8:18:81:80:e3:
         d2:27:c5:99:a8:61:8c:52:de:4b:79:30:46:a3:ee:cc:8d:d2:
         7e:e0:f0:e6:75:14:75:48:67:8b:d6:b1:ae:6d:93:eb:df:3b:
         b2:a3:7d:33:a1:60:9a:17:0f:ab:5d:58:09:79:b3:9a:82:e3:
         96:06:83:4b:cd:8a:c1:78:45:2d:00:0d:cf:14:ff:0e:b5:10:
         dd:43:ea:1f:63:ca:7d:19:b1:7f:fb:c8:95:c7:44:c1:ce:b6:
         f0:ca:03:53:b3:27:41:34
-----BEGIN CERTIFICATE-----
MIIGrDCCBJSgAwIBAgICCyAwDQYJKoZIhvcNAQEEBQAwgawxCzAJBgNVBAYTAlVT
MQswCQYDVQQIEwJPSDERMA8GA1UEBxMIQ29sdW1idXMxEjAQBgNVBAoTCVZpa2lu
Z1ZQTjEdMBsGA1UECxMUTXlPcmdhbml6YXRpb25hbFVuaXQxFTATBgNVBAMTDFZp
a2luZ1ZQTiBDQTEQMA4GA1UEKRMHRWFzeVJTQTEhMB8GCSqGSIb3DQEJARYSbWVA
bXlob3N0Lm15ZG9tYWluMB4XDTE0MDkxMzE2MDYwM1oXDTI0MDkxMDE2MDYwM1ow
HjEcMBoGA1UEAxMTQ2xpZW50OTg0Q2VydGZjZGQxYTCCAiIwDQYJKoZIhvcNAQEB
BQADggIPADCCAgoCggIBAOgUnbl9l7TpNQztNFxa8pEOFdkfIB9Pw1XaUKkRPVeU
yutmuZggiPxOOSIrH30Qcwp28mT00RMqSrlAqYG54+F3+991edHSoqwOZ75gaq2M
Qk2sHLd71aR7fUHgNWNWL77PqMYzOUbu3MgHUGbmhzuK60HEBzGjX+tEEqgsMDxS
sX+tHr0/8o2D0+cgz0tq3z4tWrQq2fg+JhnkY3HPY8AwQ1AJeUmOBIII63x65gb9
5zyxmCqoweMSHYeHeAwDXpSCOy88kqNn1CLqyvANYbQP0dasgjPOvptM781fnFkD
4CvcYQPFr0XvJBsKcSr2tcGFhYcNryqXC5ulpnwcmhqj/1CBcXI/Z4l1+XE3i774
iGLegR2p1ZEL6BOQQAeONG2m5/U8ENErl5gxK9YA1W/nYgrhKuABxahIbVa9m+mY
F2YQNo8fMOjRQ17DbPAi4ww6hDTR0Hc/fzI95gaz4XeG50HjGA1Fmpy7h7WqeTWZ
59hD/LrNnNluh1ov1G2kjkZ8pYJ+BFPoTFIvWRJhmApEA1SgRgHtKDUM7lyS0ZI4
TBdwcK4wJK409712udTfh01JULcCODgyfW9eiZQOtdWI5RR9AWcfC8ZwMORqX5R5
j1a5U/Wgs1jf3FSWMmXb5czndzxgAEwnQlyGWqnbaMY8f7BUU0xDTToMD+S11Znz
AgMBAAGjggFjMIIBXzAJBgNVHRMEAjAAMC0GCWCGSAGG+EIBDQQgFh5FYXN5LVJT
QSBHZW5lcmF0ZWQgQ2VydGlmaWNhdGUwHQYDVR0OBBYEFM+2i56wVSi/pb8sFne5
HxMKwP4FMIHhBgNVHSMEgdkwgdaAFBLNYATSoICecO3Gmbh7LMZS/RmhoYGypIGv
MIGsMQswCQYDVQQGEwJVUzELMAkGA1UECBMCT0gxETAPBgNVBAcTCENvbHVtYnVz
MRIwEAYDVQQKEwlWaWtpbmdWUE4xHTAbBgNVBAsTFE15T3JnYW5pemF0aW9uYWxV
bml0MRUwEwYDVQQDEwxWaWtpbmdWUE4gQ0ExEDAOBgNVBCkTB0Vhc3lSU0ExITAf
BgkqhkiG9w0BCQEWEm1lQG15aG9zdC5teWRvbWFpboIJAM81he6Avyo+MBMGA1Ud
JQQMMAoGCCsGAQUFBwMCMAsGA1UdDwQEAwIHgDANBgkqhkiG9w0BAQQFAAOCAgEA
EHEInwKJOV06lM+jZ+YbMJqLsIzZHl6vrEBvO5Yi6k4oWOt1XRMO0RUWtNAdbBOg
6u9CyOLEHjys6+Q5nrtJlWMUucVAumtf1GcNdR7D/7DCgrGwhaj6MgnFeMEbfpiE
Y6kGPjYUt9ztnsD3A6L2oWzG4HPorRCwByPUT+SMd4IdOCGpW9JjPH7zp2HlLv9N
qXX4aD8+OhbRie1OhDcVW49Q0VveDH8VUfQ6wDRPQeFs9dgap6T40MN3a91dj5lF
2m4LGxoD9hj3QePqF+hUEsSRzs3zJ/m+L5nqOenMM3Y1hHY1TmI5w4wg+9ODfxzs
nYPFYeCxL8ylhmYh4NEB4PXmHNXKWYYD7NG+3rVCfDdxXUaSNCEt1BH0dQ7cctDC
cpT1F6HS4oz0gzcMcmpc6kdtLv+MmxaEo4yKw5Y5brZyUWbHY7TjlkRJKePXyfni
SNysZuImSITYlKVU4YYkGqLHtldzmbDpDyseQXNrRb+cePVy5Mopdc1hn47uVmqx
auypZ6jkpFhMQ3ovWlwT1pGkbS+Ws+0mL7gYgYDj0ifFmahhjFLeS3kwRqPuzI3S
fuDw5nUUdUhni9axrm2T6987sqN9M6FgmhcPq11YCXmzmoLjlgaDS82KwXhFLQAN
zxT/DrUQ3UPqH2PKfRmxf/vIlcdEwc628MoDU7MnQTQ=
-----END CERTIFICATE-----
