Certificate:
    Data:
        Version: 3 (0x2)
        Serial Number: 2850 (0xb22)
    Signature Algorithm: md5WithRSAEncryption
        Issuer: C=US, ST=OH, L=Columbus, O=VikingVPN, OU=MyOrganizationalUnit, CN=VikingVPN CA/name=EasyRSA/emailAddress=me@myhost.mydomain
        Validity
            Not Before: Sep 13 17:04:41 2014 GMT
            Not After : Sep 10 17:04:41 2024 GMT
        Subject: CN=Client136Cert1e3f74
        Subject Public Key Info:
            Public Key Algorithm: rsaEncryption
                Public-Key: (4096 bit)
                Modulus:
                    00:bb:42:e4:64:aa:5b:08:a4:42:c0:ff:57:be:8e:
                    cb:0c:0b:02:80:92:c6:b3:eb:b6:e2:22:0e:e4:57:
                    1c:e8:ef:c1:f1:f3:f8:45:8a:ad:3c:d0:e3:ca:cd:
                    11:ab:20:44:20:c0:33:85:2d:3b:d5:16:de:8c:6d:
                    d3:10:c7:dc:45:9e:28:4c:64:e5:31:95:06:c5:6c:
                    38:9f:28:b0:bc:ed:9d:4e:bf:9c:09:d2:c7:7d:a5:
                    5f:8a:f6:64:3c:42:a3:64:99:ff:d9:02:fc:51:81:
                    a4:cd:41:05:7c:9d:71:22:c5:94:8d:e7:46:24:ef:
                    18:45:72:14:43:b3:b7:1f:6a:9a:f2:b9:31:63:c1:
                    21:79:b6:17:04:b2:af:13:91:74:26:b3:73:c9:78:
                    f0:96:88:cb:57:f4:34:c8:0f:c0:37:c9:a1:14:fe:
                    1f:46:97:c5:4b:1f:1c:77:d8:a6:44:42:db:57:12:
                    28:ea:e8:82:9b:d8:2b:94:ab:41:ce:2b:81:14:69:
                    06:61:c6:12:0d:5f:69:21:01:c5:de:ff:62:42:7d:
                    fe:b0:fc:87:ce:4a:2a:1c:ff:46:6d:7e:ce:94:d8:
                    81:e4:0e:af:c0:c1:48:25:e6:d5:a9:db:d3:8a:b0:
                    f7:b7:55:2e:56:82:7b:ea:c1:0a:78:e8:96:8d:e9:
                    e7:6b:b1:f3:67:40:e5:89:97:54:34:31:ec:9e:9f:
                    c4:ce:3d:92:f5:77:a8:8c:52:d5:38:92:96:ca:10:
                    33:55:4b:24:cd:65:4a:c5:6e:0f:b7:f5:6f:7b:07:
                    1d:b3:3a:2b:ad:a6:ed:bf:f7:00:44:2d:7e:40:eb:
                    fd:d9:93:eb:0b:3c:f9:bc:38:fe:cc:98:b3:fb:0a:
                    00:b6:b4:78:31:15:93:0b:40:04:35:27:d7:a7:32:
                    c8:b1:4d:92:26:38:c8:e7:f7:2d:75:b4:1b:28:61:
                    a7:f7:10:c7:85:91:e9:ff:14:47:dc:ae:7c:cf:e0:
                    2e:29:e6:1b:a7:30:8f:42:7e:98:ee:6d:43:52:72:
                    a6:37:55:77:fe:12:90:93:c7:35:0d:37:f8:f3:8a:
                    6a:7d:f8:04:9e:77:6d:a3:5f:6f:db:a9:65:78:c8:
                    41:87:67:7a:ee:a9:fd:bb:6d:28:45:a4:d3:67:57:
                    28:6c:cb:c5:62:0b:0b:31:25:3f:7d:ba:92:36:b8:
                    4f:df:1a:cf:dd:09:d3:f8:9c:66:a6:7e:12:cd:c0:
                    1b:e0:1f:18:8a:1d:1c:7c:0e:e5:b3:83:8a:e2:d5:
                    12:e4:29:b6:e2:6f:3a:87:8c:4c:e2:47:6c:8e:59:
                    63:74:23:7b:c4:4d:a2:9d:c1:18:f1:c1:86:77:bb:
                    c9:2b:fd
                Exponent: 65537 (0x10001)
        X509v3 extensions:
            X509v3 Basic Constraints: 
                CA:FALSE
            Netscape Comment: 
                Easy-RSA Generated Certificate
            X509v3 Subject Key Identifier: 
                9D:0E:79:0C:E3:1E:3B:46:3A:D0:81:BA:F2:C9:6A:88:32:04:3C:64
            X509v3 Authority Key Identifier: 
                keyid:12:CD:60:04:D2:A0:80:9E:70:ED:C6:99:B8:7B:2C:C6:52:FD:19:A1
                DirName:/C=US/ST=OH/L=Columbus/O=VikingVPN/OU=MyOrganizationalUnit/CN=VikingVPN CA/name=EasyRSA/emailAddress=me@myhost.mydomain
                serial:CF:35:85:EE:80:BF:2A:3E

            X509v3 Extended Key Usage: 
                TLS Web Client Authentication
            X509v3 Key Usage: 
                Digital Signature
    Signature Algorithm: md5WithRSAEncryption
         e7:5e:3c:26:7b:95:84:66:79:96:85:54:c3:f5:43:b0:d0:3d:
         b8:b2:ef:a2:c0:12:e0:3c:e6:d2:57:2a:82:93:6b:4d:28:ff:
         b7:dc:ee:b8:e3:6a:25:b4:94:05:fa:f2:21:b1:9d:e3:27:5a:
         e9:c4:8d:25:00:6e:fe:e3:7b:47:b5:59:fd:02:6e:86:60:d3:
         b2:20:2d:27:17:83:41:ff:da:6d:ff:77:e2:a2:0b:8e:87:0c:
         65:fa:b8:2a:36:03:33:19:48:46:af:78:be:6e:f5:1f:86:21:
         95:d5:95:e1:93:b4:e3:4c:49:97:d9:ac:48:bf:8a:f3:6e:41:
         b1:5d:f0:d3:09:37:d3:74:f1:1e:42:62:4b:ab:b0:9a:43:72:
         d8:1b:0e:18:22:7f:fb:39:3e:67:78:c1:6f:47:43:0f:a8:70:
         d5:d5:34:8d:60:c9:1c:20:79:03:3f:4e:29:9e:e6:ea:d6:eb:
         7a:99:4b:5a:f2:d5:f5:e4:6d:c4:c9:aa:a9:86:c3:7b:d2:bb:
         e5:a5:21:5b:3f:78:ed:7e:25:b2:b0:6f:34:63:b6:a0:72:c7:
         d0:23:4f:e3:ca:3c:89:42:df:d6:33:5b:6f:7a:c9:af:99:74:
         a2:36:11:a8:18:3c:62:b0:fe:d8:dd:a0:38:e4:44:0a:e1:89:
         08:0b:f6:4d:4a:e6:a9:77:b7:54:09:bb:33:10:39:e2:64:af:
         fa:02:32:8c:09:7d:a8:74:21:be:3b:60:33:43:35:97:89:6d:
         46:72:f0:a4:45:e3:d9:36:e2:84:9f:0d:7a:07:7f:b3:77:d9:
         01:95:90:dc:21:ab:76:6f:a8:38:0a:6a:2f:90:b2:1c:b5:09:
         ef:89:38:e1:60:fc:4f:a7:9f:46:ac:d0:6a:6b:97:17:1b:c9:
         e9:90:56:f5:47:93:da:df:96:b5:a5:ac:b8:1a:40:6a:ef:ae:
         46:11:db:0d:e4:5b:db:8c:74:46:1d:aa:06:a0:02:50:78:a1:
         eb:b0:27:c6:9c:4d:52:25:00:0c:b0:58:0b:9a:d1:9d:75:c4:
         3b:80:67:62:4e:97:fd:5b:9d:94:c0:50:0f:0d:4b:25:52:91:
         d1:1a:03:fe:90:c6:32:6c:11:26:f5:ef:13:68:d0:df:20:b9:
         49:2f:e5:74:86:66:14:85:51:76:18:d0:c9:ad:d4:27:95:0a:
         30:21:e2:76:57:ab:a3:aa:5c:20:ca:f8:99:19:82:71:79:44:
         4c:4b:98:c2:e5:5b:9a:e2:58:9a:48:6b:dc:3d:31:fe:4b:48:
         52:a8:ef:f4:b6:6d:47:cc:66:d7:e8:4a:43:7a:18:2d:12:4b:
         53:b9:c6:93:01:5a:fb:cd
-----BEGIN CERTIFICATE-----
MIIGrDCCBJSgAwIBAgICCyIwDQYJKoZIhvcNAQEEBQAwgawxCzAJBgNVBAYTAlVT
MQswCQYDVQQIEwJPSDERMA8GA1UEBxMIQ29sdW1idXMxEjAQBgNVBAoTCVZpa2lu
Z1ZQTjEdMBsGA1UECxMUTXlPcmdhbml6YXRpb25hbFVuaXQxFTATBgNVBAMTDFZp
a2luZ1ZQTiBDQTEQMA4GA1UEKRMHRWFzeVJTQTEhMB8GCSqGSIb3DQEJARYSbWVA
bXlob3N0Lm15ZG9tYWluMB4XDTE0MDkxMzE3MDQ0MVoXDTI0MDkxMDE3MDQ0MVow
HjEcMBoGA1UEAxMTQ2xpZW50MTM2Q2VydDFlM2Y3NDCCAiIwDQYJKoZIhvcNAQEB
BQADggIPADCCAgoCggIBALtC5GSqWwikQsD/V76OywwLAoCSxrPrtuIiDuRXHOjv
wfHz+EWKrTzQ48rNEasgRCDAM4UtO9UW3oxt0xDH3EWeKExk5TGVBsVsOJ8osLzt
nU6/nAnSx32lX4r2ZDxCo2SZ/9kC/FGBpM1BBXydcSLFlI3nRiTvGEVyFEOztx9q
mvK5MWPBIXm2FwSyrxORdCazc8l48JaIy1f0NMgPwDfJoRT+H0aXxUsfHHfYpkRC
21cSKOrogpvYK5SrQc4rgRRpBmHGEg1faSEBxd7/YkJ9/rD8h85KKhz/Rm1+zpTY
geQOr8DBSCXm1anb04qw97dVLlaCe+rBCnjolo3p52ux82dA5YmXVDQx7J6fxM49
kvV3qIxS1TiSlsoQM1VLJM1lSsVuD7f1b3sHHbM6K62m7b/3AEQtfkDr/dmT6ws8
+bw4/syYs/sKALa0eDEVkwtABDUn16cyyLFNkiY4yOf3LXW0Gyhhp/cQx4WR6f8U
R9yufM/gLinmG6cwj0J+mO5tQ1JypjdVd/4SkJPHNQ03+POKan34BJ53baNfb9up
ZXjIQYdneu6p/bttKEWk02dXKGzLxWILCzElP326kja4T98az90J0/icZqZ+Es3A
G+AfGIodHHwO5bODiuLVEuQptuJvOoeMTOJHbI5ZY3Qje8RNop3BGPHBhne7ySv9
AgMBAAGjggFjMIIBXzAJBgNVHRMEAjAAMC0GCWCGSAGG+EIBDQQgFh5FYXN5LVJT
QSBHZW5lcmF0ZWQgQ2VydGlmaWNhdGUwHQYDVR0OBBYEFJ0OeQzjHjtGOtCBuvLJ
aogyBDxkMIHhBgNVHSMEgdkwgdaAFBLNYATSoICecO3Gmbh7LMZS/RmhoYGypIGv
MIGsMQswCQYDVQQGEwJVUzELMAkGA1UECBMCT0gxETAPBgNVBAcTCENvbHVtYnVz
MRIwEAYDVQQKEwlWaWtpbmdWUE4xHTAbBgNVBAsTFE15T3JnYW5pemF0aW9uYWxV
bml0MRUwEwYDVQQDEwxWaWtpbmdWUE4gQ0ExEDAOBgNVBCkTB0Vhc3lSU0ExITAf
BgkqhkiG9w0BCQEWEm1lQG15aG9zdC5teWRvbWFpboIJAM81he6Avyo+MBMGA1Ud
JQQMMAoGCCsGAQUFBwMCMAsGA1UdDwQEAwIHgDANBgkqhkiG9w0BAQQFAAOCAgEA
5148JnuVhGZ5loVUw/VDsNA9uLLvosAS4Dzm0lcqgpNrTSj/t9zuuONqJbSUBfry
IbGd4yda6cSNJQBu/uN7R7VZ/QJuhmDTsiAtJxeDQf/abf934qILjocMZfq4KjYD
MxlIRq94vm71H4YhldWV4ZO040xJl9msSL+K825BsV3w0wk303TxHkJiS6uwmkNy
2BsOGCJ/+zk+Z3jBb0dDD6hw1dU0jWDJHCB5Az9OKZ7m6tbreplLWvLV9eRtxMmq
qYbDe9K75aUhWz947X4lsrBvNGO2oHLH0CNP48o8iULf1jNbb3rJr5l0ojYRqBg8
YrD+2N2gOORECuGJCAv2TUrmqXe3VAm7MxA54mSv+gIyjAl9qHQhvjtgM0M1l4lt
RnLwpEXj2TbihJ8Negd/s3fZAZWQ3CGrdm+oOApqL5CyHLUJ74k44WD8T6efRqzQ
amuXFxvJ6ZBW9UeT2t+WtaWsuBpAau+uRhHbDeRb24x0Rh2qBqACUHih67AnxpxN
UiUADLBYC5rRnXXEO4BnYk6X/VudlMBQDw1LJVKR0RoD/pDGMmwRJvXvE2jQ3yC5
SS/ldIZmFIVRdhjQya3UJ5UKMCHidlero6pcIMr4mRmCcXlETEuYwuVbmuJYmkhr
3D0x/ktIUqjv9LZtR8xm1+hKQ3oYLRJLU7nGkwFa+80=
-----END CERTIFICATE-----
