Certificate:
    Data:
        Version: 3 (0x2)
        Serial Number: 2866 (0xb32)
    Signature Algorithm: md5WithRSAEncryption
        Issuer: C=US, ST=OH, L=Columbus, O=VikingVPN, OU=MyOrganizationalUnit, CN=VikingVPN CA/name=EasyRSA/emailAddress=me@myhost.mydomain
        Validity
            Not Before: Sep 16 10:03:58 2014 GMT
            Not After : Sep 13 10:03:58 2024 GMT
        Subject: CN=Client986Cert70b9df
        Subject Public Key Info:
            Public Key Algorithm: rsaEncryption
                Public-Key: (4096 bit)
                Modulus:
                    00:ba:0f:69:f3:f4:ea:20:50:44:c7:58:3b:14:3a:
                    eb:89:13:8e:ee:e7:48:27:30:8f:a9:6f:83:39:37:
                    8b:b7:db:9c:65:6f:65:26:02:86:0d:1c:08:52:12:
                    5b:89:4d:cb:35:39:b0:2a:4e:0a:d4:c0:7e:f8:7b:
                    13:40:06:7b:31:7d:a1:23:f5:78:a9:00:70:02:8b:
                    88:8c:13:c5:fa:2c:1e:18:eb:8d:83:ef:48:b4:ce:
                    f1:6a:32:52:5b:d9:0f:1e:03:53:2d:e6:b2:77:f6:
                    8c:84:7b:a8:f5:60:f4:44:51:5a:21:2d:e5:e3:c8:
                    11:65:0d:65:1b:15:78:54:e2:21:95:5a:ac:09:6c:
                    3e:db:b5:80:94:9c:4f:0d:e1:0c:bf:4d:c8:99:a6:
                    d9:52:14:39:4c:74:a0:04:e7:06:ec:45:38:2a:ba:
                    25:aa:4d:a4:e7:df:f1:5e:0a:6d:87:4e:8f:61:26:
                    b6:85:a5:86:1c:04:c7:84:a0:27:c8:9a:26:b0:ca:
                    ba:78:98:ef:45:4f:49:4f:14:3a:04:e3:63:20:82:
                    de:0e:66:25:b5:5c:5e:47:e2:5f:1a:0e:9a:c2:e5:
                    5a:aa:08:b8:64:5c:9c:e8:28:e9:19:c8:32:51:e8:
                    f8:9a:44:e4:f7:23:1b:d9:a2:01:76:0e:fb:d4:8f:
                    0e:b3:be:32:cb:69:9f:e9:9a:a3:7e:bf:57:7a:f0:
                    ef:8f:9b:c8:a5:15:24:88:80:ff:ed:ae:da:82:00:
                    91:de:c9:05:15:90:04:2c:46:c0:8d:aa:76:86:e2:
                    79:36:24:86:c2:bf:ce:5b:5e:b3:64:dc:52:24:bb:
                    c0:88:fb:58:c6:e3:97:1c:8a:e4:f4:b9:4c:0c:4e:
                    28:8b:2d:9b:36:96:94:c4:04:38:93:6a:9a:0e:8f:
                    f9:29:2c:60:b2:f1:78:76:5c:7a:06:8d:21:40:3a:
                    5a:5b:7f:d6:dd:58:9b:70:be:c0:80:30:04:00:33:
                    8a:c7:b8:dd:f4:c9:06:c4:4e:bd:57:5b:db:8b:88:
                    d2:cd:e3:24:15:32:e2:03:ea:b0:e9:9c:80:b1:7e:
                    3a:52:1f:fe:59:cb:cb:36:4d:d2:b2:05:ae:19:1b:
                    50:fe:be:bf:6c:d5:58:36:ca:44:f6:5e:81:fd:86:
                    67:ab:df:b8:67:8c:54:73:0f:f1:59:96:38:94:95:
                    f3:e3:6f:33:3f:bb:66:fe:10:da:11:75:d2:e7:4e:
                    ff:b3:92:cd:6b:14:d0:6f:af:9a:da:b6:69:a8:da:
                    b7:ee:98:b9:08:91:13:7a:94:77:92:32:a4:06:4a:
                    19:83:0e:00:fb:6c:70:8b:23:dc:6f:3e:25:07:4b:
                    af:4a:a9
                Exponent: 65537 (0x10001)
        X509v3 extensions:
            X509v3 Basic Constraints: 
                CA:FALSE
            Netscape Comment: 
                Easy-RSA Generated Certificate
            X509v3 Subject Key Identifier: 
                56:4A:9F:F5:92:8B:9D:C6:A4:D4:B6:BC:3E:98:BC:57:CC:12:E6:06
            X509v3 Authority Key Identifier: 
                keyid:12:CD:60:04:D2:A0:80:9E:70:ED:C6:99:B8:7B:2C:C6:52:FD:19:A1
                DirName:/C=US/ST=OH/L=Columbus/O=VikingVPN/OU=MyOrganizationalUnit/CN=VikingVPN CA/name=EasyRSA/emailAddress=me@myhost.mydomain
                serial:CF:35:85:EE:80:BF:2A:3E

            X509v3 Extended Key Usage: 
                TLS Web Client Authentication
            X509v3 Key Usage: 
                Digital Signature
    Signature Algorithm: md5WithRSAEncryption
         92:6f:6c:e3:1b:4e:35:8c:a7:41:55:92:3c:1c:ed:f8:dd:50:
         3c:ac:fc:b2:51:18:93:0a:66:18:e9:9d:14:bc:6e:1c:e7:dd:
         fd:e4:a3:b9:f8:d3:01:21:bc:e1:e1:0c:2e:20:2e:4c:46:1b:
         45:4e:fe:0d:22:f3:09:eb:50:11:ca:9f:f6:ae:7a:17:7d:e9:
         c3:ca:5e:19:bc:37:4b:54:53:de:72:0a:10:80:88:af:5b:25:
         b7:73:c5:77:67:7f:2b:2f:ed:e9:7a:a7:cf:0d:08:7e:5b:21:
         10:43:15:20:95:13:c7:07:6d:52:10:04:3c:ce:d2:e3:46:b8:
         05:08:8e:7d:28:70:26:06:07:ff:b7:43:b0:cc:4b:89:bf:2e:
         72:14:52:62:ee:0b:bd:cb:39:ed:39:bb:f5:e2:e4:7d:e5:f5:
         18:c9:06:5e:34:1f:f3:f8:d7:a0:b4:26:a7:68:be:da:53:fb:
         db:70:7a:74:2f:29:8e:bd:04:20:1b:e0:e0:c4:6e:2d:6d:e9:
         84:8f:b9:fb:37:71:db:78:a0:06:c5:7f:1d:64:6b:bb:07:d1:
         f3:f1:8d:2a:d1:51:41:c6:63:52:b1:e0:e8:cc:07:a5:5e:8e:
         f9:2f:11:bc:9e:5e:24:2b:37:05:cc:87:f4:00:ea:4e:6e:cf:
         90:74:a4:92:f7:c0:96:35:86:4a:4e:ae:61:67:64:ea:15:92:
         b1:de:ca:75:59:48:76:99:77:6e:fe:d8:2a:87:12:df:14:14:
         a1:6f:4a:20:99:03:64:55:c3:32:55:e1:8a:26:95:48:dd:cb:
         7a:ce:8b:bb:0d:9c:ed:2a:47:ef:98:49:40:d7:36:a7:99:11:
         34:14:eb:64:ff:18:55:67:2f:92:6f:7d:88:4d:b3:a4:43:2e:
         59:c6:35:0b:ca:fa:a7:9f:2d:2b:75:2d:eb:04:63:8a:c5:7e:
         a4:d2:a9:c4:a0:b9:b7:3f:2f:1d:36:f6:ca:82:e2:7c:26:09:
         e6:b3:7d:41:b0:46:1a:fc:6c:53:6d:1a:27:67:df:1b:e2:30:
         a1:c3:89:65:de:60:bc:0e:bf:8b:d2:ba:b7:0e:a8:fe:d7:b5:
         ec:01:04:84:be:25:a8:cd:8b:97:a7:ad:cd:50:d6:26:9b:91:
         eb:4b:ac:cb:64:92:53:6b:c5:42:62:4a:37:12:3a:9f:7a:ba:
         73:86:d3:90:65:e0:f0:83:d2:e4:f7:df:6a:c8:81:3b:83:c0:
         0e:60:61:da:a5:20:a7:d7:c6:7f:43:a4:91:ae:1c:57:c6:9f:
         99:95:c4:69:e5:ca:f5:a4:7e:5f:26:01:07:a9:68:fd:ae:5b:
         98:bc:52:6c:56:9f:b0:f4
-----BEGIN CERTIFICATE-----
MIIGrDCCBJSgAwIBAgICCzIwDQYJKoZIhvcNAQEEBQAwgawxCzAJBgNVBAYTAlVT
MQswCQYDVQQIEwJPSDERMA8GA1UEBxMIQ29sdW1idXMxEjAQBgNVBAoTCVZpa2lu
Z1ZQTjEdMBsGA1UECxMUTXlPcmdhbml6YXRpb25hbFVuaXQxFTATBgNVBAMTDFZp
a2luZ1ZQTiBDQTEQMA4GA1UEKRMHRWFzeVJTQTEhMB8GCSqGSIb3DQEJARYSbWVA
bXlob3N0Lm15ZG9tYWluMB4XDTE0MDkxNjEwMDM1OFoXDTI0MDkxMzEwMDM1OFow
HjEcMBoGA1UEAxMTQ2xpZW50OTg2Q2VydDcwYjlkZjCCAiIwDQYJKoZIhvcNAQEB
BQADggIPADCCAgoCggIBALoPafP06iBQRMdYOxQ664kTju7nSCcwj6lvgzk3i7fb
nGVvZSYChg0cCFISW4lNyzU5sCpOCtTAfvh7E0AGezF9oSP1eKkAcAKLiIwTxfos
HhjrjYPvSLTO8WoyUlvZDx4DUy3msnf2jIR7qPVg9ERRWiEt5ePIEWUNZRsVeFTi
IZVarAlsPtu1gJScTw3hDL9NyJmm2VIUOUx0oATnBuxFOCq6JapNpOff8V4KbYdO
j2EmtoWlhhwEx4SgJ8iaJrDKuniY70VPSU8UOgTjYyCC3g5mJbVcXkfiXxoOmsLl
WqoIuGRcnOgo6RnIMlHo+JpE5PcjG9miAXYO+9SPDrO+Mstpn+mao36/V3rw74+b
yKUVJIiA/+2u2oIAkd7JBRWQBCxGwI2qdobieTYkhsK/zltes2TcUiS7wIj7WMbj
lxyK5PS5TAxOKIstmzaWlMQEOJNqmg6P+SksYLLxeHZcegaNIUA6Wlt/1t1Ym3C+
wIAwBAAzise43fTJBsROvVdb24uI0s3jJBUy4gPqsOmcgLF+OlIf/lnLyzZN0rIF
rhkbUP6+v2zVWDbKRPZegf2GZ6vfuGeMVHMP8VmWOJSV8+NvMz+7Zv4Q2hF10udO
/7OSzWsU0G+vmtq2aajat+6YuQiRE3qUd5IypAZKGYMOAPtscIsj3G8+JQdLr0qp
AgMBAAGjggFjMIIBXzAJBgNVHRMEAjAAMC0GCWCGSAGG+EIBDQQgFh5FYXN5LVJT
QSBHZW5lcmF0ZWQgQ2VydGlmaWNhdGUwHQYDVR0OBBYEFFZKn/WSi53GpNS2vD6Y
vFfMEuYGMIHhBgNVHSMEgdkwgdaAFBLNYATSoICecO3Gmbh7LMZS/RmhoYGypIGv
MIGsMQswCQYDVQQGEwJVUzELMAkGA1UECBMCT0gxETAPBgNVBAcTCENvbHVtYnVz
MRIwEAYDVQQKEwlWaWtpbmdWUE4xHTAbBgNVBAsTFE15T3JnYW5pemF0aW9uYWxV
bml0MRUwEwYDVQQDEwxWaWtpbmdWUE4gQ0ExEDAOBgNVBCkTB0Vhc3lSU0ExITAf
BgkqhkiG9w0BCQEWEm1lQG15aG9zdC5teWRvbWFpboIJAM81he6Avyo+MBMGA1Ud
JQQMMAoGCCsGAQUFBwMCMAsGA1UdDwQEAwIHgDANBgkqhkiG9w0BAQQFAAOCAgEA
km9s4xtONYynQVWSPBzt+N1QPKz8slEYkwpmGOmdFLxuHOfd/eSjufjTASG84eEM
LiAuTEYbRU7+DSLzCetQEcqf9q56F33pw8peGbw3S1RT3nIKEICIr1slt3PFd2d/
Ky/t6Xqnzw0IflshEEMVIJUTxwdtUhAEPM7S40a4BQiOfShwJgYH/7dDsMxLib8u
chRSYu4Lvcs57Tm79eLkfeX1GMkGXjQf8/jXoLQmp2i+2lP723B6dC8pjr0EIBvg
4MRuLW3phI+5+zdx23igBsV/HWRruwfR8/GNKtFRQcZjUrHg6MwHpV6O+S8RvJ5e
JCs3BcyH9ADqTm7PkHSkkvfAljWGSk6uYWdk6hWSsd7KdVlIdpl3bv7YKocS3xQU
oW9KIJkDZFXDMlXhiiaVSN3Les6Luw2c7SpH75hJQNc2p5kRNBTrZP8YVWcvkm99
iE2zpEMuWcY1C8r6p58tK3Ut6wRjisV+pNKpxKC5tz8vHTb2yoLifCYJ5rN9QbBG
GvxsU20aJ2ffG+IwocOJZd5gvA6/i9K6tw6o/te17AEEhL4lqM2Ll6etzVDWJpuR
60usy2SSU2vFQmJKNxI6n3q6c4bTkGXg8IPS5PffasiBO4PADmBh2qUgp9fGf0Ok
ka4cV8afmZXEaeXK9aR+XyYBB6lo/a5bmLxSbFafsPQ=
-----END CERTIFICATE-----
