Certificate:
    Data:
        Version: 3 (0x2)
        Serial Number: 2881 (0xb41)
    Signature Algorithm: md5WithRSAEncryption
        Issuer: C=US, ST=OH, L=Columbus, O=VikingVPN, OU=MyOrganizationalUnit, CN=VikingVPN CA/name=EasyRSA/emailAddress=me@myhost.mydomain
        Validity
            Not Before: Sep 18 07:43:46 2014 GMT
            Not After : Sep 15 07:43:46 2024 GMT
        Subject: CN=Client604Certd8d786
        Subject Public Key Info:
            Public Key Algorithm: rsaEncryption
                Public-Key: (4096 bit)
                Modulus:
                    00:ae:3a:55:98:3e:94:0f:07:b1:6c:27:cd:bf:b9:
                    81:ce:9c:d6:5e:d4:64:7e:96:de:08:25:2a:13:09:
                    5e:78:3a:86:ea:43:95:90:ac:18:3e:ae:12:e4:de:
                    d6:70:76:5f:a0:c5:a4:e5:36:d8:19:2f:10:14:ab:
                    6c:e9:a8:30:80:4f:d3:85:4b:e9:c1:1a:72:71:a8:
                    d0:6b:52:67:f5:26:ed:35:b7:f6:45:50:78:98:9a:
                    01:a8:04:68:cf:ca:4d:42:91:3b:b7:f6:46:0f:51:
                    cb:64:ae:bd:4b:bd:f8:01:1f:d5:fd:25:a3:ba:33:
                    6c:34:8a:41:3d:6e:5e:ef:ac:b6:f7:e3:56:29:25:
                    49:d4:bd:55:cd:ce:d0:59:a1:c1:b4:39:71:7c:f2:
                    ec:f3:e8:63:30:a7:3c:0b:24:93:2f:40:8f:cf:89:
                    1a:8e:5b:da:83:94:e5:3a:f1:1f:d8:45:e2:00:0c:
                    cb:aa:ca:51:74:75:8d:70:c2:6d:74:c1:00:26:36:
                    31:9d:3c:1f:2c:c5:8c:fe:d3:f0:f9:10:50:aa:16:
                    2a:f0:59:25:46:d9:1c:99:8a:73:bf:13:10:55:21:
                    8c:18:40:d6:8e:82:84:44:58:4f:a5:1c:6b:a2:07:
                    a3:ee:85:fd:23:33:31:55:58:07:b3:8b:3b:a1:03:
                    81:b3:8d:97:f2:32:63:34:16:7c:a7:c1:43:f8:2e:
                    08:60:2d:4b:05:61:90:26:bc:30:e0:41:6e:81:c3:
                    2d:1d:77:02:98:f4:08:f1:6c:1a:de:36:57:65:13:
                    e2:0e:4d:82:c8:f6:9b:a9:c5:b1:ce:4a:14:01:75:
                    6f:e6:03:59:05:d6:28:3f:87:1c:56:01:59:e2:8a:
                    b9:f1:6f:e6:de:bb:5a:90:40:6f:14:36:30:69:d2:
                    9a:3b:91:55:b9:3d:a0:9e:8e:f7:87:04:e9:f6:77:
                    d8:67:4a:b7:39:b5:85:82:d8:e9:00:b9:68:2f:e9:
                    28:99:eb:54:f0:23:f9:74:08:8c:1f:d0:ef:0b:1b:
                    7e:82:d7:8b:94:04:0f:37:10:51:11:5d:d3:91:db:
                    9c:a0:4c:2c:2a:bf:f9:2a:81:16:6d:6c:27:0c:f5:
                    55:28:1a:4e:a8:11:b8:42:d0:6c:6e:3d:4d:fd:59:
                    3d:00:85:2a:16:39:6b:6d:6e:4e:d7:f5:dd:08:95:
                    b8:27:cc:b8:de:d4:d6:7c:52:d5:8d:1c:e8:34:0a:
                    62:73:04:3b:9a:21:fc:da:35:b1:2b:66:5e:b9:e5:
                    99:97:74:5a:12:88:46:8a:1a:94:3e:a2:55:59:1b:
                    3d:a9:76:45:e5:1f:1e:39:1e:d5:a8:da:f9:4e:d2:
                    02:cf:ff
                Exponent: 65537 (0x10001)
        X509v3 extensions:
            X509v3 Basic Constraints: 
                CA:FALSE
            Netscape Comment: 
                Easy-RSA Generated Certificate
            X509v3 Subject Key Identifier: 
                79:41:CE:71:39:0B:86:AC:5D:44:6A:82:1E:E3:DE:69:78:28:41:76
            X509v3 Authority Key Identifier: 
                keyid:12:CD:60:04:D2:A0:80:9E:70:ED:C6:99:B8:7B:2C:C6:52:FD:19:A1
                DirName:/C=US/ST=OH/L=Columbus/O=VikingVPN/OU=MyOrganizationalUnit/CN=VikingVPN CA/name=EasyRSA/emailAddress=me@myhost.mydomain
                serial:CF:35:85:EE:80:BF:2A:3E

            X509v3 Extended Key Usage: 
                TLS Web Client Authentication
            X509v3 Key Usage: 
                Digital Signature
    Signature Algorithm: md5WithRSAEncryption
         c3:a0:fd:34:85:8e:37:17:6a:a7:12:64:5f:1d:6b:c5:90:8c:
         1c:a4:88:1f:54:ca:c3:3a:bf:87:78:8c:82:87:19:e4:4d:52:
         de:cd:da:87:a3:c9:93:75:10:1a:2d:f2:5d:c4:77:70:ec:bc:
         7b:04:fa:87:72:0a:26:c9:f9:78:37:c1:73:eb:9b:b8:38:05:
         7f:5a:de:72:0a:19:92:f2:7d:f2:c4:81:45:c4:6a:c7:6f:8e:
         94:3b:f3:a4:37:2c:a0:83:ec:1e:ae:ab:c6:93:26:37:b2:bc:
         5b:0c:83:ec:10:4e:23:1c:31:f0:92:e4:b8:1e:22:ec:77:20:
         81:b7:0d:8d:80:6c:17:2b:6d:40:af:72:d9:83:4c:77:46:0b:
         e1:68:91:ef:b9:c8:bb:89:ab:4a:4d:f8:43:f4:55:10:d9:1d:
         eb:e2:76:e7:7d:36:48:58:a7:51:8b:2e:99:f9:ef:19:ed:b4:
         31:ee:62:a8:61:13:c7:44:9b:42:6a:ee:7f:6b:7f:7b:69:84:
         9c:d9:af:4d:cc:25:a0:a2:e7:e7:83:16:de:62:f4:b6:a6:a6:
         48:f4:69:8e:69:9d:78:45:35:67:55:88:37:76:f3:6e:8f:c1:
         8b:c5:75:55:99:98:fb:cd:8a:72:62:fc:0c:4a:7a:21:4e:25:
         67:0d:70:3d:e3:87:86:17:23:64:77:71:a9:33:32:b8:b2:2f:
         e2:0d:61:b3:fb:0f:47:6e:87:9e:c7:3f:3a:da:9e:fe:3d:96:
         6f:23:2b:64:49:f0:ed:75:54:ad:23:44:90:43:51:77:93:c2:
         b6:11:18:dc:55:0b:83:3e:3a:91:cc:05:9f:c2:2f:a3:91:e3:
         69:30:77:36:77:45:73:74:67:c5:9e:1a:2a:93:fb:b0:7d:34:
         db:a2:c8:fb:42:a4:86:e4:d0:c6:12:9c:50:23:c2:08:31:36:
         d6:a8:f8:73:40:86:f9:e0:a4:99:d0:be:8c:b9:4f:e4:78:72:
         98:c1:6c:ab:6b:7f:e9:a6:b9:72:a8:c0:32:32:5a:d8:d1:c7:
         d5:80:32:25:20:6e:e4:e8:7c:87:29:43:b3:23:1a:99:39:94:
         f9:dc:e4:a4:21:d6:e5:06:bc:b5:87:f9:b7:94:2a:14:d9:41:
         ec:4f:e6:56:f8:4b:fa:12:d5:5e:ec:d6:be:c5:3b:51:93:bc:
         11:9d:1b:9b:6a:bd:44:49:f0:d0:43:56:e9:e8:9c:3e:20:4e:
         04:19:9e:9c:10:d5:0c:07:e3:88:f5:a5:15:7d:1a:99:8c:2e:
         8a:4c:cb:6b:3d:ff:d5:42:a8:3a:61:94:4d:aa:fc:48:1d:fd:
         32:9c:ce:09:5e:b4:13:68
-----BEGIN CERTIFICATE-----
MIIGrDCCBJSgAwIBAgICC0EwDQYJKoZIhvcNAQEEBQAwgawxCzAJBgNVBAYTAlVT
MQswCQYDVQQIEwJPSDERMA8GA1UEBxMIQ29sdW1idXMxEjAQBgNVBAoTCVZpa2lu
Z1ZQTjEdMBsGA1UECxMUTXlPcmdhbml6YXRpb25hbFVuaXQxFTATBgNVBAMTDFZp
a2luZ1ZQTiBDQTEQMA4GA1UEKRMHRWFzeVJTQTEhMB8GCSqGSIb3DQEJARYSbWVA
bXlob3N0Lm15ZG9tYWluMB4XDTE0MDkxODA3NDM0NloXDTI0MDkxNTA3NDM0Nlow
HjEcMBoGA1UEAxMTQ2xpZW50NjA0Q2VydGQ4ZDc4NjCCAiIwDQYJKoZIhvcNAQEB
BQADggIPADCCAgoCggIBAK46VZg+lA8HsWwnzb+5gc6c1l7UZH6W3gglKhMJXng6
hupDlZCsGD6uEuTe1nB2X6DFpOU22BkvEBSrbOmoMIBP04VL6cEacnGo0GtSZ/Um
7TW39kVQeJiaAagEaM/KTUKRO7f2Rg9Ry2SuvUu9+AEf1f0lo7ozbDSKQT1uXu+s
tvfjViklSdS9Vc3O0FmhwbQ5cXzy7PPoYzCnPAskky9Aj8+JGo5b2oOU5TrxH9hF
4gAMy6rKUXR1jXDCbXTBACY2MZ08HyzFjP7T8PkQUKoWKvBZJUbZHJmKc78TEFUh
jBhA1o6ChERYT6Uca6IHo+6F/SMzMVVYB7OLO6EDgbONl/IyYzQWfKfBQ/guCGAt
SwVhkCa8MOBBboHDLR13Apj0CPFsGt42V2UT4g5Ngsj2m6nFsc5KFAF1b+YDWQXW
KD+HHFYBWeKKufFv5t67WpBAbxQ2MGnSmjuRVbk9oJ6O94cE6fZ32GdKtzm1hYLY
6QC5aC/pKJnrVPAj+XQIjB/Q7wsbfoLXi5QEDzcQURFd05HbnKBMLCq/+SqBFm1s
Jwz1VSgaTqgRuELQbG49Tf1ZPQCFKhY5a21uTtf13QiVuCfMuN7U1nxS1Y0c6DQK
YnMEO5oh/No1sStmXrnlmZd0WhKIRooalD6iVVkbPal2ReUfHjke1aja+U7SAs//
AgMBAAGjggFjMIIBXzAJBgNVHRMEAjAAMC0GCWCGSAGG+EIBDQQgFh5FYXN5LVJT
QSBHZW5lcmF0ZWQgQ2VydGlmaWNhdGUwHQYDVR0OBBYEFHlBznE5C4asXURqgh7j
3ml4KEF2MIHhBgNVHSMEgdkwgdaAFBLNYATSoICecO3Gmbh7LMZS/RmhoYGypIGv
MIGsMQswCQYDVQQGEwJVUzELMAkGA1UECBMCT0gxETAPBgNVBAcTCENvbHVtYnVz
MRIwEAYDVQQKEwlWaWtpbmdWUE4xHTAbBgNVBAsTFE15T3JnYW5pemF0aW9uYWxV
bml0MRUwEwYDVQQDEwxWaWtpbmdWUE4gQ0ExEDAOBgNVBCkTB0Vhc3lSU0ExITAf
BgkqhkiG9w0BCQEWEm1lQG15aG9zdC5teWRvbWFpboIJAM81he6Avyo+MBMGA1Ud
JQQMMAoGCCsGAQUFBwMCMAsGA1UdDwQEAwIHgDANBgkqhkiG9w0BAQQFAAOCAgEA
w6D9NIWONxdqpxJkXx1rxZCMHKSIH1TKwzq/h3iMgocZ5E1S3s3ah6PJk3UQGi3y
XcR3cOy8ewT6h3IKJsn5eDfBc+ubuDgFf1recgoZkvJ98sSBRcRqx2+OlDvzpDcs
oIPsHq6rxpMmN7K8WwyD7BBOIxwx8JLkuB4i7HcggbcNjYBsFyttQK9y2YNMd0YL
4WiR77nIu4mrSk34Q/RVENkd6+J25302SFinUYsumfnvGe20Me5iqGETx0SbQmru
f2t/e2mEnNmvTcwloKLn54MW3mL0tqamSPRpjmmdeEU1Z1WIN3bzbo/Bi8V1VZmY
+82KcmL8DEp6IU4lZw1wPeOHhhcjZHdxqTMyuLIv4g1hs/sPR26Hnsc/Otqe/j2W
byMrZEnw7XVUrSNEkENRd5PCthEY3FULgz46kcwFn8Ivo5HjaTB3NndFc3RnxZ4a
KpP7sH0026LI+0KkhuTQxhKcUCPCCDE21qj4c0CG+eCkmdC+jLlP5HhymMFsq2t/
6aa5cqjAMjJa2NHH1YAyJSBu5Oh8hylDsyMamTmU+dzkpCHW5Qa8tYf5t5QqFNlB
7E/mVvhL+hLVXuzWvsU7UZO8EZ0bm2q9REnw0ENW6eicPiBOBBmenBDVDAfjiPWl
FX0amYwuikzLaz3/1UKoOmGUTar8SB39MpzOCV60E2g=
-----END CERTIFICATE-----
