Certificate:
    Data:
        Version: 3 (0x2)
        Serial Number: 2882 (0xb42)
    Signature Algorithm: md5WithRSAEncryption
        Issuer: C=US, ST=OH, L=Columbus, O=VikingVPN, OU=MyOrganizationalUnit, CN=VikingVPN CA/name=EasyRSA/emailAddress=me@myhost.mydomain
        Validity
            Not Before: Sep 18 10:29:01 2014 GMT
            Not After : Sep 15 10:29:01 2024 GMT
        Subject: CN=Client993Cert1f5c3c
        Subject Public Key Info:
            Public Key Algorithm: rsaEncryption
                Public-Key: (4096 bit)
                Modulus:
                    00:c8:2d:1b:f3:ee:b4:01:b9:97:95:e8:00:e8:11:
                    51:ad:b5:cd:02:4e:76:29:ef:a0:26:ae:2b:5d:25:
                    36:53:c5:2f:23:f9:d6:18:37:4c:41:4d:dc:a6:f3:
                    20:24:71:87:39:47:11:07:6e:2f:f8:ab:22:9d:69:
                    a9:a2:50:34:84:18:09:93:87:b6:01:ae:a8:24:69:
                    91:7c:1b:8c:6d:66:06:42:9d:f0:9a:47:6a:7f:50:
                    80:18:72:ee:1a:01:3b:3d:84:4d:a5:7d:3b:71:d3:
                    2f:ec:ac:bf:e6:e1:ca:b2:2c:48:1a:4c:6c:64:ff:
                    ee:f2:5d:bd:93:e7:34:c4:fc:8e:e7:81:5a:14:67:
                    58:0d:cc:22:d2:c2:a8:56:bb:f5:4e:d0:69:4e:6e:
                    51:02:c2:29:83:b7:2f:81:16:47:ce:b4:ec:d5:4e:
                    9c:50:af:0a:9d:3e:42:b4:42:bf:61:5f:5d:9a:f7:
                    35:61:75:3f:0a:93:31:02:be:bc:09:d8:75:7c:fd:
                    c7:eb:4e:69:2a:85:a8:2e:59:6a:00:ca:61:3c:7c:
                    20:5c:30:9d:b7:fa:27:3a:b8:b2:b3:cb:00:cd:66:
                    98:03:18:24:e5:36:75:8c:73:37:8a:cb:00:b8:8c:
                    80:86:c0:ec:a2:ba:8e:c4:7e:21:a8:07:53:12:ad:
                    80:b5:92:03:b7:83:d5:8c:67:cc:83:68:e6:d3:1b:
                    8f:a1:78:f2:7c:e4:f8:50:a3:3d:7c:82:20:d7:fb:
                    68:60:24:42:5a:96:b2:43:d4:03:f4:10:60:d3:63:
                    48:0a:72:6f:26:51:e0:83:16:6b:aa:2a:65:2e:c6:
                    b2:ca:68:34:62:fd:f8:13:af:0a:1e:da:5f:c1:f9:
                    0a:f1:b3:53:43:9b:c2:2c:30:e4:2a:e8:8b:95:67:
                    55:cf:38:1b:93:a4:45:73:78:c9:b4:23:d2:dd:f1:
                    47:22:cd:45:9d:31:bd:22:93:c3:1a:1b:a5:ef:48:
                    b9:a3:74:7a:ca:6a:0e:3b:ac:57:d2:f5:75:2d:32:
                    a9:ad:ed:a8:16:68:b4:49:a6:36:9e:c8:0a:0f:c0:
                    16:b7:88:10:af:30:44:05:c2:9c:04:ff:a4:6a:b1:
                    77:b0:22:6b:0d:13:e2:89:c2:c7:64:80:f9:97:8f:
                    76:53:39:72:f8:42:fd:70:5b:d2:e5:c9:4f:9e:6b:
                    73:0b:15:82:68:1d:08:37:a4:88:20:6a:40:66:38:
                    9a:ec:24:64:ae:15:67:8a:ff:0f:8a:a8:82:44:94:
                    df:c6:fe:d8:d2:e4:c8:d1:29:9b:f3:a0:e6:e2:4f:
                    cb:b4:64:07:d5:b8:73:1f:18:25:8e:f7:fd:dc:38:
                    98:b5:c5
                Exponent: 65537 (0x10001)
        X509v3 extensions:
            X509v3 Basic Constraints: 
                CA:FALSE
            Netscape Comment: 
                Easy-RSA Generated Certificate
            X509v3 Subject Key Identifier: 
                8A:B7:96:39:09:FF:DE:37:90:65:E3:9D:55:40:AF:61:38:FA:BC:F0
            X509v3 Authority Key Identifier: 
                keyid:12:CD:60:04:D2:A0:80:9E:70:ED:C6:99:B8:7B:2C:C6:52:FD:19:A1
                DirName:/C=US/ST=OH/L=Columbus/O=VikingVPN/OU=MyOrganizationalUnit/CN=VikingVPN CA/name=EasyRSA/emailAddress=me@myhost.mydomain
                serial:CF:35:85:EE:80:BF:2A:3E

            X509v3 Extended Key Usage: 
                TLS Web Client Authentication
            X509v3 Key Usage: 
                Digital Signature
    Signature Algorithm: md5WithRSAEncryption
         27:cd:7a:c7:c3:31:de:4a:70:f5:59:3b:39:d1:d9:aa:d3:dd:
         6c:15:ab:f2:0e:b4:5d:a5:e9:e1:46:86:20:47:5d:c4:89:b0:
         f9:5b:dc:af:5f:3a:5a:fb:17:db:7d:f8:8f:05:34:b3:15:d9:
         4e:83:b6:38:39:a0:2c:77:7f:c8:ac:bb:c7:85:c6:b4:c0:67:
         77:59:07:64:0d:51:e7:f5:af:3f:26:74:1d:37:73:50:ab:5a:
         14:63:1f:e7:a3:ea:98:bf:49:de:a1:1c:ba:6b:c5:52:43:bc:
         f9:ad:9f:2e:91:c0:f1:47:73:87:d3:c9:07:4a:2f:d0:58:bc:
         04:75:58:f8:84:07:c9:90:9d:e1:af:46:9a:13:b0:80:4d:0d:
         db:cd:7e:bb:77:50:01:d8:d7:d9:33:f9:81:bc:b7:ac:a4:28:
         6f:50:fa:36:ec:f4:0f:fd:cb:ac:a0:7e:05:7b:9a:7e:c9:c6:
         56:27:25:2a:ba:bc:b8:54:fe:ec:47:cd:a6:5e:6f:e2:7e:5a:
         26:bb:4b:10:5e:3a:15:ae:74:26:4a:3a:6d:93:98:2a:f7:00:
         fd:db:5e:92:d3:53:ff:de:91:54:3a:24:0d:10:2d:97:28:35:
         b1:87:ad:a6:d9:fa:d9:f5:83:a8:8b:19:54:a3:16:dc:39:79:
         a5:87:cd:16:71:56:d7:05:48:16:73:36:d3:33:8f:6a:ea:f8:
         6c:82:6f:00:73:05:41:46:07:7a:90:54:eb:4f:37:ce:bc:85:
         a7:6c:7b:27:80:ec:88:41:9c:23:25:2a:d9:45:be:4a:05:41:
         4e:f8:12:17:6b:89:c7:74:f1:18:2f:bf:d9:42:37:07:83:d1:
         56:e1:ee:02:b1:b3:73:5e:e0:31:c7:d1:e4:26:00:90:bb:5b:
         b1:e9:3c:55:ac:68:b5:29:fa:17:ef:22:25:ce:87:ce:9c:50:
         31:9f:24:8a:10:1c:ae:38:8b:02:9e:74:94:aa:b1:41:1f:99:
         db:c0:cd:c8:68:86:f6:ef:35:d6:b2:04:67:cb:97:38:2f:66:
         5f:97:e9:0b:09:5f:2b:9c:85:d8:05:62:1a:64:5e:2a:48:6c:
         90:33:45:51:b0:72:08:35:b0:0e:ef:71:f9:a4:d0:47:fc:d9:
         36:b0:d7:ff:ef:dc:f2:d8:bd:d4:17:8a:33:b5:42:d1:f2:85:
         94:bc:5d:94:52:46:d8:a9:70:ae:9a:dd:6f:eb:8b:6f:5f:3b:
         57:8b:0b:36:4c:df:61:bb:29:00:23:4f:a1:21:31:ae:43:1c:
         75:c1:26:ad:e3:82:2a:00:bd:ea:72:d3:b1:4e:6e:23:17:fc:
         9c:0c:c6:3f:4d:e8:b8:f1
-----BEGIN CERTIFICATE-----
MIIGrDCCBJSgAwIBAgICC0IwDQYJKoZIhvcNAQEEBQAwgawxCzAJBgNVBAYTAlVT
MQswCQYDVQQIEwJPSDERMA8GA1UEBxMIQ29sdW1idXMxEjAQBgNVBAoTCVZpa2lu
Z1ZQTjEdMBsGA1UECxMUTXlPcmdhbml6YXRpb25hbFVuaXQxFTATBgNVBAMTDFZp
a2luZ1ZQTiBDQTEQMA4GA1UEKRMHRWFzeVJTQTEhMB8GCSqGSIb3DQEJARYSbWVA
bXlob3N0Lm15ZG9tYWluMB4XDTE0MDkxODEwMjkwMVoXDTI0MDkxNTEwMjkwMVow
HjEcMBoGA1UEAxMTQ2xpZW50OTkzQ2VydDFmNWMzYzCCAiIwDQYJKoZIhvcNAQEB
BQADggIPADCCAgoCggIBAMgtG/PutAG5l5XoAOgRUa21zQJOdinvoCauK10lNlPF
LyP51hg3TEFN3KbzICRxhzlHEQduL/irIp1pqaJQNIQYCZOHtgGuqCRpkXwbjG1m
BkKd8JpHan9QgBhy7hoBOz2ETaV9O3HTL+ysv+bhyrIsSBpMbGT/7vJdvZPnNMT8
jueBWhRnWA3MItLCqFa79U7QaU5uUQLCKYO3L4EWR8607NVOnFCvCp0+QrRCv2Ff
XZr3NWF1PwqTMQK+vAnYdXz9x+tOaSqFqC5ZagDKYTx8IFwwnbf6Jzq4srPLAM1m
mAMYJOU2dYxzN4rLALiMgIbA7KK6jsR+IagHUxKtgLWSA7eD1YxnzINo5tMbj6F4
8nzk+FCjPXyCINf7aGAkQlqWskPUA/QQYNNjSApybyZR4IMWa6oqZS7GsspoNGL9
+BOvCh7aX8H5CvGzU0Obwiww5Croi5VnVc84G5OkRXN4ybQj0t3xRyLNRZ0xvSKT
wxobpe9IuaN0espqDjusV9L1dS0yqa3tqBZotEmmNp7ICg/AFreIEK8wRAXCnAT/
pGqxd7Aiaw0T4onCx2SA+ZePdlM5cvhC/XBb0uXJT55rcwsVgmgdCDekiCBqQGY4
muwkZK4VZ4r/D4qogkSU38b+2NLkyNEpm/Og5uJPy7RkB9W4cx8YJY73/dw4mLXF
AgMBAAGjggFjMIIBXzAJBgNVHRMEAjAAMC0GCWCGSAGG+EIBDQQgFh5FYXN5LVJT
QSBHZW5lcmF0ZWQgQ2VydGlmaWNhdGUwHQYDVR0OBBYEFIq3ljkJ/943kGXjnVVA
r2E4+rzwMIHhBgNVHSMEgdkwgdaAFBLNYATSoICecO3Gmbh7LMZS/RmhoYGypIGv
MIGsMQswCQYDVQQGEwJVUzELMAkGA1UECBMCT0gxETAPBgNVBAcTCENvbHVtYnVz
MRIwEAYDVQQKEwlWaWtpbmdWUE4xHTAbBgNVBAsTFE15T3JnYW5pemF0aW9uYWxV
bml0MRUwEwYDVQQDEwxWaWtpbmdWUE4gQ0ExEDAOBgNVBCkTB0Vhc3lSU0ExITAf
BgkqhkiG9w0BCQEWEm1lQG15aG9zdC5teWRvbWFpboIJAM81he6Avyo+MBMGA1Ud
JQQMMAoGCCsGAQUFBwMCMAsGA1UdDwQEAwIHgDANBgkqhkiG9w0BAQQFAAOCAgEA
J816x8Mx3kpw9Vk7OdHZqtPdbBWr8g60XaXp4UaGIEddxImw+Vvcr186WvsX2334
jwU0sxXZToO2ODmgLHd/yKy7x4XGtMBnd1kHZA1R5/WvPyZ0HTdzUKtaFGMf56Pq
mL9J3qEcumvFUkO8+a2fLpHA8Udzh9PJB0ov0Fi8BHVY+IQHyZCd4a9GmhOwgE0N
281+u3dQAdjX2TP5gby3rKQob1D6Nuz0D/3LrKB+BXuafsnGViclKrq8uFT+7EfN
pl5v4n5aJrtLEF46Fa50Jko6bZOYKvcA/dtektNT/96RVDokDRAtlyg1sYetptn6
2fWDqIsZVKMW3Dl5pYfNFnFW1wVIFnM20zOPaur4bIJvAHMFQUYHepBU6083zryF
p2x7J4DsiEGcIyUq2UW+SgVBTvgSF2uJx3TxGC+/2UI3B4PRVuHuArGzc17gMcfR
5CYAkLtbsek8VaxotSn6F+8iJc6HzpxQMZ8kihAcrjiLAp50lKqxQR+Z28DNyGiG
9u811rIEZ8uXOC9mX5fpCwlfK5yF2AViGmReKkhskDNFUbByCDWwDu9x+aTQR/zZ
NrDX/+/c8ti91BeKM7VC0fKFlLxdlFJG2Klwrprdb+uLb187V4sLNkzfYbspACNP
oSExrkMcdcEmreOCKgC96nLTsU5uIxf8nAzGP03ouPE=
-----END CERTIFICATE-----
