Certificate:
    Data:
        Version: 3 (0x2)
        Serial Number: 2894 (0xb4e)
    Signature Algorithm: md5WithRSAEncryption
        Issuer: C=US, ST=OH, L=Columbus, O=VikingVPN, OU=MyOrganizationalUnit, CN=VikingVPN CA/name=EasyRSA/emailAddress=me@myhost.mydomain
        Validity
            Not Before: Sep 19 11:38:41 2014 GMT
            Not After : Sep 16 11:38:41 2024 GMT
        Subject: CN=Client996Cert12dc6c
        Subject Public Key Info:
            Public Key Algorithm: rsaEncryption
                Public-Key: (4096 bit)
                Modulus:
                    00:d7:18:fa:cb:d8:b5:d4:67:28:b9:87:bd:e7:da:
                    56:89:22:b7:2e:c8:a6:42:fb:17:77:3d:b1:ab:91:
                    d8:9c:e0:92:34:0d:a0:94:3a:2b:bb:c1:4f:5b:62:
                    bd:d6:65:df:c3:bf:30:c0:08:3f:7e:04:c8:36:51:
                    10:e8:06:7d:75:ac:f9:9b:8f:97:e2:bc:70:11:93:
                    12:43:07:f9:be:2d:3d:40:98:ad:db:6f:7e:ef:99:
                    e5:81:f3:05:90:74:79:3e:7b:70:7e:14:2d:31:b4:
                    e4:25:6c:e3:bb:02:ce:f7:87:70:17:80:43:a2:33:
                    0d:75:dd:34:b8:e4:d1:90:1d:55:b1:79:87:43:e8:
                    17:71:43:24:df:f6:53:5a:4d:b9:03:03:34:49:7e:
                    71:aa:28:41:ab:92:ef:71:1d:c6:ff:3a:5b:b4:aa:
                    20:aa:5d:35:5f:3b:b0:4b:fe:6b:08:82:1b:29:04:
                    90:63:08:13:03:2d:06:7a:c5:94:29:20:b6:b8:41:
                    15:6a:b3:cd:7f:0c:b8:cd:0b:dc:e4:a4:a4:8c:1c:
                    6a:46:d0:d2:e6:6c:5a:53:c8:cb:0b:04:e8:c6:ba:
                    6e:da:e5:d6:cd:05:93:55:3b:cb:fa:d0:1d:d1:32:
                    94:64:03:bd:c1:c5:e6:4c:95:e7:14:0c:b7:77:d8:
                    87:a2:14:0f:a5:bc:ce:fe:5a:c3:54:e9:96:be:b2:
                    84:41:e2:1b:c8:b4:d8:58:85:95:dc:73:e8:ad:72:
                    1e:e1:61:22:d6:52:c2:7f:88:dd:8c:9b:1f:12:c2:
                    55:ef:0c:e0:cb:4c:f1:42:5a:d4:09:a3:c2:2e:fa:
                    d6:d1:76:c6:f0:1e:30:77:af:c4:27:41:af:ef:34:
                    eb:e7:e1:ed:04:35:5a:9f:bc:3c:1b:1f:94:ec:51:
                    70:ec:e3:45:cb:cb:5a:d1:cc:9f:ce:6d:ab:92:0c:
                    b8:5d:2f:50:40:dd:f1:48:f6:c6:b9:f1:57:4d:9f:
                    9e:96:c4:8b:5f:16:e1:5d:81:e6:75:86:b6:fd:56:
                    19:5a:2a:aa:da:d0:ce:7b:bf:e4:f6:12:a4:fc:8c:
                    75:61:2d:dc:63:04:53:26:55:d5:68:7c:38:88:9a:
                    15:21:72:73:eb:bc:6d:20:26:8b:56:f1:6f:9c:c1:
                    cd:64:4b:79:d4:84:7a:6b:12:d3:47:67:2a:0e:88:
                    1e:4d:29:9c:65:fc:52:d5:81:b7:51:64:1f:98:e6:
                    6a:93:ef:85:4f:f6:7d:c5:74:83:55:80:04:1b:81:
                    e3:cc:e6:c2:73:e8:76:fc:c3:ff:c7:61:51:a0:4f:
                    31:68:6a:98:06:d8:91:c5:e7:f5:6b:32:86:8e:6f:
                    13:e0:45
                Exponent: 65537 (0x10001)
        X509v3 extensions:
            X509v3 Basic Constraints: 
                CA:FALSE
            Netscape Comment: 
                Easy-RSA Generated Certificate
            X509v3 Subject Key Identifier: 
                70:7E:FE:C8:67:3F:1A:C8:53:EB:22:87:02:66:E9:C8:7A:5E:29:C5
            X509v3 Authority Key Identifier: 
                keyid:12:CD:60:04:D2:A0:80:9E:70:ED:C6:99:B8:7B:2C:C6:52:FD:19:A1
                DirName:/C=US/ST=OH/L=Columbus/O=VikingVPN/OU=MyOrganizationalUnit/CN=VikingVPN CA/name=EasyRSA/emailAddress=me@myhost.mydomain
                serial:CF:35:85:EE:80:BF:2A:3E

            X509v3 Extended Key Usage: 
                TLS Web Client Authentication
            X509v3 Key Usage: 
                Digital Signature
    Signature Algorithm: md5WithRSAEncryption
         e5:f8:dd:75:6e:ee:18:42:29:6f:ff:09:fc:da:f8:39:3b:d3:
         9e:62:69:bd:fc:85:4f:a2:d6:9e:f6:59:99:96:d6:a7:2f:65:
         63:1e:ef:78:ea:8f:c8:94:5a:b7:0c:57:4e:d3:9c:bc:ef:e5:
         15:f0:1e:ee:6a:6d:4e:bf:c3:09:9a:81:a3:55:6b:f6:26:76:
         1e:cc:7d:08:dd:84:ed:d9:a4:48:be:6a:d2:5d:64:5f:38:fb:
         37:47:85:e8:1d:65:d4:07:84:e1:4b:c8:a7:44:ea:6e:78:94:
         59:a3:3a:b3:34:3c:c6:df:90:5e:c8:fe:3b:97:ed:9d:7c:62:
         c5:2a:a3:26:34:e1:7d:65:64:fd:e8:66:83:46:8e:c6:95:6e:
         9e:ae:0a:23:2e:1c:e0:82:d8:32:dc:4b:ed:f2:77:d0:85:6c:
         6b:63:8a:83:5f:ab:71:80:6f:94:a9:a8:5b:ea:1c:60:e7:1a:
         3d:15:63:f3:cd:6f:da:5c:3f:0c:b9:f2:b7:70:7d:9f:02:53:
         82:ee:18:af:34:8a:96:b3:41:10:fc:4d:21:10:f2:23:7c:ce:
         ab:92:63:f6:96:a7:ff:9c:0e:85:03:cf:53:83:cc:8e:89:dd:
         2a:c6:7c:c6:0e:aa:f9:82:ec:c6:48:0b:18:f7:05:1a:71:b4:
         28:42:43:10:7d:42:ef:7b:bd:7a:65:65:c8:17:47:e2:80:c9:
         e9:a2:7c:a6:81:78:8b:42:f7:08:06:1c:c0:82:10:73:67:1f:
         ba:2c:7e:4f:8e:4f:ea:b3:4c:ca:db:f3:65:70:93:31:07:20:
         12:f4:5a:eb:aa:ef:90:cf:52:5c:e2:79:70:44:e0:8b:5c:2a:
         0b:4c:7b:bc:bf:6f:03:85:f1:71:33:a0:9e:fa:85:c6:11:64:
         48:ef:b0:d4:a6:d5:bd:ce:24:e4:90:76:b9:8e:e6:68:43:3e:
         6b:19:b1:63:fa:cc:e2:c2:d7:c4:67:86:40:d6:b1:73:ec:0c:
         40:3a:f2:31:37:fb:87:d1:3c:20:28:d5:16:b7:aa:fd:68:82:
         00:83:43:78:4f:57:db:7a:d5:26:e8:5d:08:f2:d1:54:28:c4:
         ee:f0:1d:87:b3:75:b9:1b:df:32:ee:90:91:2f:eb:4c:32:e1:
         df:f4:62:1d:56:dd:9e:5e:34:39:db:0f:bc:83:c3:85:84:0c:
         b5:b2:51:d0:bc:bb:be:36:72:53:ad:ab:eb:2d:da:2b:73:71:
         e3:1b:af:2a:24:05:53:ea:e3:44:c6:56:d8:00:c9:93:3e:44:
         c2:ae:dd:32:68:f0:11:f2:80:41:bf:67:b3:51:6b:c5:0a:d6:
         a3:e6:eb:97:b2:9f:dc:65
-----BEGIN CERTIFICATE-----
MIIGrDCCBJSgAwIBAgICC04wDQYJKoZIhvcNAQEEBQAwgawxCzAJBgNVBAYTAlVT
MQswCQYDVQQIEwJPSDERMA8GA1UEBxMIQ29sdW1idXMxEjAQBgNVBAoTCVZpa2lu
Z1ZQTjEdMBsGA1UECxMUTXlPcmdhbml6YXRpb25hbFVuaXQxFTATBgNVBAMTDFZp
a2luZ1ZQTiBDQTEQMA4GA1UEKRMHRWFzeVJTQTEhMB8GCSqGSIb3DQEJARYSbWVA
bXlob3N0Lm15ZG9tYWluMB4XDTE0MDkxOTExMzg0MVoXDTI0MDkxNjExMzg0MVow
HjEcMBoGA1UEAxMTQ2xpZW50OTk2Q2VydDEyZGM2YzCCAiIwDQYJKoZIhvcNAQEB
BQADggIPADCCAgoCggIBANcY+svYtdRnKLmHvefaVokity7IpkL7F3c9sauR2Jzg
kjQNoJQ6K7vBT1tivdZl38O/MMAIP34EyDZREOgGfXWs+ZuPl+K8cBGTEkMH+b4t
PUCYrdtvfu+Z5YHzBZB0eT57cH4ULTG05CVs47sCzveHcBeAQ6IzDXXdNLjk0ZAd
VbF5h0PoF3FDJN/2U1pNuQMDNEl+caooQauS73Edxv86W7SqIKpdNV87sEv+awiC
GykEkGMIEwMtBnrFlCkgtrhBFWqzzX8MuM0L3OSkpIwcakbQ0uZsWlPIywsE6Ma6
btrl1s0Fk1U7y/rQHdEylGQDvcHF5kyV5xQMt3fYh6IUD6W8zv5aw1Tplr6yhEHi
G8i02FiFldxz6K1yHuFhItZSwn+I3YybHxLCVe8M4MtM8UJa1Amjwi761tF2xvAe
MHevxCdBr+806+fh7QQ1Wp+8PBsflOxRcOzjRcvLWtHMn85tq5IMuF0vUEDd8Uj2
xrnxV02fnpbEi18W4V2B5nWGtv1WGVoqqtrQznu/5PYSpPyMdWEt3GMEUyZV1Wh8
OIiaFSFyc+u8bSAmi1bxb5zBzWRLedSEemsS00dnKg6IHk0pnGX8UtWBt1FkH5jm
apPvhU/2fcV0g1WABBuB48zmwnPodvzD/8dhUaBPMWhqmAbYkcXn9Wsyho5vE+BF
AgMBAAGjggFjMIIBXzAJBgNVHRMEAjAAMC0GCWCGSAGG+EIBDQQgFh5FYXN5LVJT
QSBHZW5lcmF0ZWQgQ2VydGlmaWNhdGUwHQYDVR0OBBYEFHB+/shnPxrIU+sihwJm
6ch6XinFMIHhBgNVHSMEgdkwgdaAFBLNYATSoICecO3Gmbh7LMZS/RmhoYGypIGv
MIGsMQswCQYDVQQGEwJVUzELMAkGA1UECBMCT0gxETAPBgNVBAcTCENvbHVtYnVz
MRIwEAYDVQQKEwlWaWtpbmdWUE4xHTAbBgNVBAsTFE15T3JnYW5pemF0aW9uYWxV
bml0MRUwEwYDVQQDEwxWaWtpbmdWUE4gQ0ExEDAOBgNVBCkTB0Vhc3lSU0ExITAf
BgkqhkiG9w0BCQEWEm1lQG15aG9zdC5teWRvbWFpboIJAM81he6Avyo+MBMGA1Ud
JQQMMAoGCCsGAQUFBwMCMAsGA1UdDwQEAwIHgDANBgkqhkiG9w0BAQQFAAOCAgEA
5fjddW7uGEIpb/8J/Nr4OTvTnmJpvfyFT6LWnvZZmZbWpy9lYx7veOqPyJRatwxX
TtOcvO/lFfAe7mptTr/DCZqBo1Vr9iZ2Hsx9CN2E7dmkSL5q0l1kXzj7N0eF6B1l
1AeE4UvIp0TqbniUWaM6szQ8xt+QXsj+O5ftnXxixSqjJjThfWVk/ehmg0aOxpVu
nq4KIy4c4ILYMtxL7fJ30IVsa2OKg1+rcYBvlKmoW+ocYOcaPRVj881v2lw/DLny
t3B9nwJTgu4YrzSKlrNBEPxNIRDyI3zOq5Jj9pan/5wOhQPPU4PMjondKsZ8xg6q
+YLsxkgLGPcFGnG0KEJDEH1C73u9emVlyBdH4oDJ6aJ8poF4i0L3CAYcwIIQc2cf
uix+T45P6rNMytvzZXCTMQcgEvRa66rvkM9SXOJ5cETgi1wqC0x7vL9vA4XxcTOg
nvqFxhFkSO+w1KbVvc4k5JB2uY7maEM+axmxY/rM4sLXxGeGQNaxc+wMQDryMTf7
h9E8ICjVFreq/WiCAINDeE9X23rVJuhdCPLRVCjE7vAdh7N1uRvfMu6QkS/rTDLh
3/RiHVbdnl40OdsPvIPDhYQMtbJR0Ly7vjZyU62r6y3aK3Nx4xuvKiQFU+rjRMZW
2ADJkz5Ewq7dMmjwEfKAQb9ns1FrxQrWo+brl7Kf3GU=
-----END CERTIFICATE-----
