Certificate:
    Data:
        Version: 3 (0x2)
        Serial Number: 2899 (0xb53)
    Signature Algorithm: md5WithRSAEncryption
        Issuer: C=US, ST=OH, L=Columbus, O=VikingVPN, OU=MyOrganizationalUnit, CN=VikingVPN CA/name=EasyRSA/emailAddress=me@myhost.mydomain
        Validity
            Not Before: Sep 19 13:14:16 2014 GMT
            Not After : Sep 16 13:14:16 2024 GMT
        Subject: CN=Client997Certedcb00
        Subject Public Key Info:
            Public Key Algorithm: rsaEncryption
                Public-Key: (4096 bit)
                Modulus:
                    00:d5:4c:76:21:b5:ad:60:15:a6:72:4d:3d:cb:73:
                    ee:b0:52:46:0f:c0:66:b6:fd:ca:f4:3a:84:6a:b2:
                    83:78:98:e7:a9:6a:c1:8a:f5:44:85:25:f8:aa:1d:
                    9c:2c:13:33:2b:06:c7:04:14:d5:3c:da:9f:7d:11:
                    64:be:a6:85:61:b1:c6:8c:1a:13:0f:a8:de:73:dc:
                    c7:4a:57:c9:ee:f4:78:e6:7c:74:9c:8b:0f:34:97:
                    a8:7e:ac:bd:06:a1:e7:52:4b:49:b9:46:cf:4a:8e:
                    76:56:d1:f5:cb:e7:6e:82:b6:ee:66:89:9d:a3:74:
                    47:6a:e8:0d:6d:03:67:db:e4:1b:d3:04:56:b7:aa:
                    96:41:16:a0:20:c6:e1:33:06:ec:bf:04:12:92:8d:
                    57:ab:c2:f6:cb:68:68:5d:fc:4f:c3:f7:47:4e:c3:
                    4c:88:27:8e:28:9c:13:2d:d0:bb:1d:40:d1:62:ed:
                    47:7c:8f:ee:e8:3c:b5:56:c2:b3:6f:12:8d:da:0d:
                    d6:a2:df:f0:c2:f8:e9:42:b3:19:c6:84:b7:a3:a8:
                    31:db:f5:3a:59:d9:1c:91:39:4e:8f:6a:ab:8a:04:
                    58:1f:ba:1d:51:2f:64:74:da:9a:c1:31:31:b3:cd:
                    8c:8a:15:e3:60:2c:3f:df:98:73:1d:09:a6:6b:5c:
                    a8:7c:a2:e3:21:f6:b0:75:89:84:98:79:d1:f1:f0:
                    d2:1e:93:e7:a9:a6:5c:db:a0:1a:33:f0:f5:b2:7d:
                    24:02:c6:89:e8:58:a2:d6:3f:ba:cb:79:27:98:b4:
                    fe:ed:55:cd:31:d8:7e:94:aa:2a:7a:51:a4:0f:2c:
                    f3:20:5b:1f:fc:fd:ed:a8:9f:44:3b:79:8a:d4:18:
                    66:84:8e:fd:08:ee:97:ab:6b:f7:ee:18:42:5e:3a:
                    a5:a3:6c:e8:98:5e:ba:f9:38:0b:1e:4d:8e:af:27:
                    e2:cc:1d:32:ae:60:41:86:9f:d2:f4:c3:54:27:76:
                    83:6b:8b:de:12:f2:6c:86:33:f7:45:d1:38:83:e8:
                    40:63:3d:44:2f:a7:30:b4:e9:0d:ee:3e:2c:f2:88:
                    28:83:83:e2:b7:e4:9a:ef:5d:96:94:b1:15:37:09:
                    f4:a5:7d:39:0a:26:0e:81:6c:72:5e:37:b1:b8:fe:
                    9b:fb:cb:1c:e0:e2:8e:5e:22:8a:3b:03:b4:a0:93:
                    15:45:97:fd:4a:03:3b:04:f5:9d:66:9c:97:66:a5:
                    5b:f3:9c:e0:a9:e7:b8:4e:9e:f7:6a:9b:74:7c:13:
                    b1:fd:02:ff:96:6f:ad:8b:4d:43:36:d8:53:23:9f:
                    df:45:e7:b3:21:ac:01:43:1d:fa:99:da:d1:8a:a3:
                    1c:ef:ed
                Exponent: 65537 (0x10001)
        X509v3 extensions:
            X509v3 Basic Constraints: 
                CA:FALSE
            Netscape Comment: 
                Easy-RSA Generated Certificate
            X509v3 Subject Key Identifier: 
                3C:1C:D6:8F:8E:49:CA:8B:B5:3D:A2:9C:E1:BD:12:D9:BA:20:23:AB
            X509v3 Authority Key Identifier: 
                keyid:12:CD:60:04:D2:A0:80:9E:70:ED:C6:99:B8:7B:2C:C6:52:FD:19:A1
                DirName:/C=US/ST=OH/L=Columbus/O=VikingVPN/OU=MyOrganizationalUnit/CN=VikingVPN CA/name=EasyRSA/emailAddress=me@myhost.mydomain
                serial:CF:35:85:EE:80:BF:2A:3E

            X509v3 Extended Key Usage: 
                TLS Web Client Authentication
            X509v3 Key Usage: 
                Digital Signature
    Signature Algorithm: md5WithRSAEncryption
         8f:22:eb:7d:9f:0e:ce:cc:e1:66:20:d2:2f:bd:43:92:9e:c4:
         d7:8a:41:27:a6:76:19:6b:4b:96:05:ea:32:db:1f:11:25:03:
         50:3e:33:81:0e:e8:7f:e0:fb:b2:ca:fb:b2:1a:b6:ab:0e:4f:
         4d:85:2f:97:a0:9c:91:4e:0b:9e:0a:08:8b:66:08:3b:38:c0:
         07:2a:27:28:be:46:74:10:20:1b:4a:3b:0f:d3:6b:b9:f7:13:
         c4:2a:ad:5a:eb:3d:c5:bc:42:36:51:24:44:5f:16:b8:fd:3b:
         07:2f:8c:9d:7e:d1:92:6e:d0:88:8a:44:3d:3e:d3:ac:e9:f1:
         03:dc:f7:b6:47:d2:fa:c6:30:1e:fc:0f:3a:da:56:17:da:cb:
         bd:eb:cc:99:ab:f4:f5:85:e5:78:8e:c1:a1:e1:bb:0e:25:67:
         e2:dc:55:7f:da:29:4c:81:98:4d:b8:3b:73:31:a9:cc:37:7d:
         c2:be:88:ef:c4:ea:9a:ae:ec:bd:b4:91:59:27:76:a3:a7:43:
         27:3b:15:2e:af:34:1f:ae:49:42:71:ad:60:36:e9:26:19:3d:
         c2:23:b3:5d:03:5a:fc:24:bc:9e:4c:1e:66:8f:00:3c:b4:5d:
         30:8e:5f:19:fe:3d:4a:eb:a4:eb:9b:51:6c:13:8c:93:f8:fe:
         36:31:28:e6:c3:8e:ea:7d:0d:55:72:03:99:dc:47:17:90:59:
         44:e0:04:c1:80:11:37:c3:49:9f:41:61:36:75:8f:c7:a8:b1:
         14:03:35:7f:5a:18:cd:b7:da:3d:97:5a:b5:0e:18:25:96:1b:
         07:f9:5f:70:7c:34:fe:62:56:dc:b0:23:92:e2:5a:be:10:09:
         33:27:96:94:2a:18:f0:19:20:25:f5:68:a2:c4:f9:2c:8e:03:
         02:f2:f5:4a:b0:e7:9b:6e:05:09:52:51:68:68:7a:68:27:78:
         8c:bf:c2:bf:71:3f:fd:a1:83:b3:55:db:3e:80:c8:d1:07:dc:
         71:a9:fa:82:ec:56:d4:ec:ee:a2:cb:2c:4d:e8:0a:17:15:f7:
         68:55:c3:0b:7f:a2:2d:d2:2a:96:82:60:76:87:13:b8:77:29:
         34:f5:c2:ce:48:52:a3:d2:30:28:64:4e:c1:60:e9:8f:ea:b2:
         a4:47:86:8d:8f:e7:da:1b:0d:57:3b:26:51:36:3d:84:86:f8:
         e9:a4:0e:65:34:1e:80:21:c7:d2:ba:c8:3c:bd:ad:4b:e8:de:
         1f:4e:0a:33:ca:0c:3b:58:12:de:0c:cd:bd:12:78:ea:90:1e:
         b2:99:09:56:7c:ee:ca:ab:98:94:2e:c9:b5:80:20:48:3b:04:
         21:28:14:1f:94:18:04:06
-----BEGIN CERTIFICATE-----
MIIGrDCCBJSgAwIBAgICC1MwDQYJKoZIhvcNAQEEBQAwgawxCzAJBgNVBAYTAlVT
MQswCQYDVQQIEwJPSDERMA8GA1UEBxMIQ29sdW1idXMxEjAQBgNVBAoTCVZpa2lu
Z1ZQTjEdMBsGA1UECxMUTXlPcmdhbml6YXRpb25hbFVuaXQxFTATBgNVBAMTDFZp
a2luZ1ZQTiBDQTEQMA4GA1UEKRMHRWFzeVJTQTEhMB8GCSqGSIb3DQEJARYSbWVA
bXlob3N0Lm15ZG9tYWluMB4XDTE0MDkxOTEzMTQxNloXDTI0MDkxNjEzMTQxNlow
HjEcMBoGA1UEAxMTQ2xpZW50OTk3Q2VydGVkY2IwMDCCAiIwDQYJKoZIhvcNAQEB
BQADggIPADCCAgoCggIBANVMdiG1rWAVpnJNPctz7rBSRg/AZrb9yvQ6hGqyg3iY
56lqwYr1RIUl+KodnCwTMysGxwQU1Tzan30RZL6mhWGxxowaEw+o3nPcx0pXye70
eOZ8dJyLDzSXqH6svQah51JLSblGz0qOdlbR9cvnboK27maJnaN0R2roDW0DZ9vk
G9MEVreqlkEWoCDG4TMG7L8EEpKNV6vC9stoaF38T8P3R07DTIgnjiicEy3Qux1A
0WLtR3yP7ug8tVbCs28SjdoN1qLf8ML46UKzGcaEt6OoMdv1OlnZHJE5To9qq4oE
WB+6HVEvZHTamsExMbPNjIoV42AsP9+Ycx0JpmtcqHyi4yH2sHWJhJh50fHw0h6T
56mmXNugGjPw9bJ9JALGiehYotY/ust5J5i0/u1VzTHYfpSqKnpRpA8s8yBbH/z9
7aifRDt5itQYZoSO/Qjul6tr9+4YQl46paNs6Jheuvk4Cx5Njq8n4swdMq5gQYaf
0vTDVCd2g2uL3hLybIYz90XROIPoQGM9RC+nMLTpDe4+LPKIKIOD4rfkmu9dlpSx
FTcJ9KV9OQomDoFscl43sbj+m/vLHODijl4iijsDtKCTFUWX/UoDOwT1nWacl2al
W/Oc4KnnuE6e92qbdHwTsf0C/5ZvrYtNQzbYUyOf30XnsyGsAUMd+pna0YqjHO/t
AgMBAAGjggFjMIIBXzAJBgNVHRMEAjAAMC0GCWCGSAGG+EIBDQQgFh5FYXN5LVJT
QSBHZW5lcmF0ZWQgQ2VydGlmaWNhdGUwHQYDVR0OBBYEFDwc1o+OScqLtT2inOG9
Etm6ICOrMIHhBgNVHSMEgdkwgdaAFBLNYATSoICecO3Gmbh7LMZS/RmhoYGypIGv
MIGsMQswCQYDVQQGEwJVUzELMAkGA1UECBMCT0gxETAPBgNVBAcTCENvbHVtYnVz
MRIwEAYDVQQKEwlWaWtpbmdWUE4xHTAbBgNVBAsTFE15T3JnYW5pemF0aW9uYWxV
bml0MRUwEwYDVQQDEwxWaWtpbmdWUE4gQ0ExEDAOBgNVBCkTB0Vhc3lSU0ExITAf
BgkqhkiG9w0BCQEWEm1lQG15aG9zdC5teWRvbWFpboIJAM81he6Avyo+MBMGA1Ud
JQQMMAoGCCsGAQUFBwMCMAsGA1UdDwQEAwIHgDANBgkqhkiG9w0BAQQFAAOCAgEA
jyLrfZ8OzszhZiDSL71Dkp7E14pBJ6Z2GWtLlgXqMtsfESUDUD4zgQ7of+D7ssr7
shq2qw5PTYUvl6CckU4LngoIi2YIOzjAByonKL5GdBAgG0o7D9NrufcTxCqtWus9
xbxCNlEkRF8WuP07By+MnX7Rkm7QiIpEPT7TrOnxA9z3tkfS+sYwHvwPOtpWF9rL
vevMmav09YXleI7BoeG7DiVn4txVf9opTIGYTbg7czGpzDd9wr6I78Tqmq7svbSR
WSd2o6dDJzsVLq80H65JQnGtYDbpJhk9wiOzXQNa/CS8nkweZo8APLRdMI5fGf49
Suuk65tRbBOMk/j+NjEo5sOO6n0NVXIDmdxHF5BZROAEwYARN8NJn0FhNnWPx6ix
FAM1f1oYzbfaPZdatQ4YJZYbB/lfcHw0/mJW3LAjkuJavhAJMyeWlCoY8BkgJfVo
osT5LI4DAvL1SrDnm24FCVJRaGh6aCd4jL/Cv3E//aGDs1XbPoDI0Qfccan6guxW
1OzuosssTegKFxX3aFXDC3+iLdIqloJgdocTuHcpNPXCzkhSo9IwKGROwWDpj+qy
pEeGjY/n2hsNVzsmUTY9hIb46aQOZTQegCHH0rrIPL2tS+jeH04KM8oMO1gS3gzN
vRJ46pAespkJVnzuyquYlC7JtYAgSDsEISgUH5QYBAY=
-----END CERTIFICATE-----
