Certificate:
    Data:
        Version: 3 (0x2)
        Serial Number: 2907 (0xb5b)
    Signature Algorithm: md5WithRSAEncryption
        Issuer: C=US, ST=OH, L=Columbus, O=VikingVPN, OU=MyOrganizationalUnit, CN=VikingVPN CA/name=EasyRSA/emailAddress=me@myhost.mydomain
        Validity
            Not Before: Sep 20 21:32:50 2014 GMT
            Not After : Sep 17 21:32:50 2024 GMT
        Subject: CN=Client1002Certbb8355
        Subject Public Key Info:
            Public Key Algorithm: rsaEncryption
                Public-Key: (4096 bit)
                Modulus:
                    00:99:5e:f8:3b:21:fc:12:b3:f3:ab:9e:20:58:24:
                    36:95:c7:db:d0:0e:45:24:39:95:39:b9:83:8b:02:
                    ca:5e:66:54:73:fb:3b:45:42:eb:6b:bc:46:75:3a:
                    b4:c3:32:b5:d4:82:03:cd:5e:7a:79:fa:7a:13:09:
                    fa:26:27:2c:8c:77:50:6c:ac:f3:26:ac:f3:5a:41:
                    71:7e:0e:a2:ea:89:e1:84:ad:6d:6e:a0:4c:4e:be:
                    02:a7:a5:95:d8:38:b5:69:ed:5b:c4:4c:b9:be:e0:
                    6c:28:03:d7:f0:a0:24:ae:2e:ff:f4:b8:2a:41:32:
                    9d:7c:20:3f:08:cd:ad:35:ab:c0:2a:6c:46:92:5a:
                    7c:29:cc:2b:4c:ec:3b:20:71:44:6e:55:99:17:dc:
                    55:01:6e:2a:3b:0f:e5:af:2b:e8:8b:ce:95:4f:a6:
                    85:0b:62:db:31:11:f5:5a:a9:b5:de:63:43:34:9f:
                    dd:a1:f3:11:6b:3e:9c:bc:32:68:a8:b2:e6:4f:ea:
                    f2:ab:11:4c:63:3a:60:24:e2:66:78:7c:76:34:08:
                    5a:ae:53:22:c3:05:73:25:93:dd:df:58:86:7d:19:
                    4f:7b:5b:b9:1e:e0:c3:f9:a5:3d:fc:b7:11:ca:e7:
                    48:c6:33:a9:2e:4a:6c:4c:41:da:ae:d8:c0:0c:9e:
                    f5:a6:16:b0:9a:0f:8a:9c:69:c0:ae:f0:7e:25:c9:
                    c2:60:e9:74:7b:2a:57:74:f8:7d:7c:7f:4a:e7:9e:
                    79:ea:9a:54:b9:c9:b3:26:f5:ef:d1:49:c3:52:be:
                    5b:6a:e2:9b:f0:27:33:04:5b:fd:ed:97:e7:98:6e:
                    27:b9:07:65:91:51:fe:ad:50:b8:aa:12:de:47:31:
                    13:50:21:6e:df:41:0d:3c:3b:15:0f:33:76:74:b3:
                    45:fa:9e:d1:28:ff:17:0c:35:6f:02:41:53:0f:00:
                    38:66:7a:a3:4a:15:d0:3a:a9:1e:b2:74:b3:b8:4c:
                    42:b5:18:be:b2:fa:a5:59:ac:3e:d8:88:8c:a5:f9:
                    a8:d0:51:ae:1d:6b:42:6a:0c:d2:a1:6b:a8:40:68:
                    01:60:12:9a:70:22:78:9f:48:a8:53:54:2c:be:cc:
                    84:d2:fb:64:a7:4e:b2:a8:75:e5:8c:97:68:f9:7b:
                    33:4d:e7:2a:d8:b0:f0:dd:63:ef:e2:d7:09:1a:b3:
                    11:18:ad:49:a7:a2:b5:5d:dc:09:38:0e:9a:a5:4d:
                    df:04:bb:53:87:f7:3d:8b:e7:b5:e1:35:94:c8:17:
                    cf:e8:7c:50:27:ce:e3:da:45:51:c8:ee:67:1d:07:
                    d2:9e:e7:3e:4a:cc:ff:21:a7:ea:e6:f8:8c:16:61:
                    64:df:49
                Exponent: 65537 (0x10001)
        X509v3 extensions:
            X509v3 Basic Constraints: 
                CA:FALSE
            Netscape Comment: 
                Easy-RSA Generated Certificate
            X509v3 Subject Key Identifier: 
                40:CC:0F:DC:14:86:EE:F3:D3:08:BB:99:4B:AA:83:3C:C5:25:73:58
            X509v3 Authority Key Identifier: 
                keyid:12:CD:60:04:D2:A0:80:9E:70:ED:C6:99:B8:7B:2C:C6:52:FD:19:A1
                DirName:/C=US/ST=OH/L=Columbus/O=VikingVPN/OU=MyOrganizationalUnit/CN=VikingVPN CA/name=EasyRSA/emailAddress=me@myhost.mydomain
                serial:CF:35:85:EE:80:BF:2A:3E

            X509v3 Extended Key Usage: 
                TLS Web Client Authentication
            X509v3 Key Usage: 
                Digital Signature
    Signature Algorithm: md5WithRSAEncryption
         28:f1:ad:06:d4:90:74:24:e4:7e:33:b7:0a:8a:10:8d:81:6c:
         4d:77:cc:12:96:22:fe:10:fa:9d:31:b5:b7:07:1c:f2:4c:89:
         e6:30:af:16:e1:62:d2:95:be:10:a5:1d:a0:d8:41:67:a7:be:
         2b:6f:c7:55:a8:85:75:b0:fe:46:23:57:3a:3a:ff:eb:fc:9a:
         d2:d3:00:c8:c0:1d:04:33:50:33:7e:41:bd:64:32:46:69:66:
         c4:dd:ee:57:ed:42:23:60:3e:04:a8:9d:98:ff:3d:1a:85:2c:
         ac:10:0f:f0:66:3d:11:05:74:11:af:c0:26:d3:ce:42:e6:b0:
         25:59:e2:e9:b8:99:37:dd:b8:9e:8e:f0:7c:96:17:dc:7f:44:
         ac:f7:ab:a4:63:36:31:9e:79:06:97:e2:2a:8e:f5:77:0d:b5:
         df:40:4d:f3:51:48:0b:a4:dc:7b:4f:64:7c:0b:70:7c:3d:59:
         e9:b4:e2:6a:70:2d:6b:ca:5e:46:63:fe:6e:50:ff:1f:b0:9b:
         db:90:1a:d5:e5:81:d9:b1:23:01:af:d1:0d:bf:26:92:f7:b4:
         af:18:83:8b:b0:c8:8c:e0:e6:5d:0f:cd:2e:cc:28:8b:00:b9:
         2c:87:a2:dc:3b:0a:d7:18:99:d6:be:db:32:f1:dc:4e:58:86:
         55:0b:26:1f:71:c6:09:fb:88:31:50:4e:de:0a:1d:ac:08:20:
         af:d1:5d:3d:45:06:da:37:3f:26:41:d7:76:13:d7:91:fd:09:
         3f:f5:82:7c:16:30:75:2c:aa:3a:a7:1c:52:9e:04:f3:10:d7:
         4f:65:61:f8:e3:b5:11:26:fc:5a:9f:5f:0e:c7:07:0e:cf:46:
         55:eb:df:29:fb:1a:f2:d3:42:6b:de:a9:b6:25:a5:63:5e:87:
         82:e9:f3:ed:74:46:19:63:45:e9:a7:e2:47:f9:4e:da:fc:6e:
         75:7a:01:8a:47:0f:b3:d2:4c:0a:8c:d7:07:16:8e:f7:ed:dd:
         d1:19:60:26:7f:61:b3:85:c0:eb:5e:b4:bb:95:fb:0c:24:76:
         f4:0b:41:d4:a9:42:77:a5:d5:f0:dd:ce:43:b2:e2:c3:b5:eb:
         db:c8:49:c0:fa:15:f9:6c:00:27:61:8b:04:44:aa:29:24:d2:
         aa:a3:c5:2d:c9:fb:6e:e1:49:48:69:a1:87:c4:11:ba:70:ab:
         f0:b4:fc:21:16:1d:d3:77:3e:c9:5f:46:b5:cd:e1:79:c2:c6:
         57:9c:73:21:7e:39:25:cd:b7:cf:00:f0:5e:31:cc:fa:f0:5c:
         5a:6c:8c:1f:2e:43:74:d3:8e:63:da:c5:ec:5d:71:6d:54:21:
         44:59:8c:be:27:a7:59:3c
-----BEGIN CERTIFICATE-----
MIIGrTCCBJWgAwIBAgICC1swDQYJKoZIhvcNAQEEBQAwgawxCzAJBgNVBAYTAlVT
MQswCQYDVQQIEwJPSDERMA8GA1UEBxMIQ29sdW1idXMxEjAQBgNVBAoTCVZpa2lu
Z1ZQTjEdMBsGA1UECxMUTXlPcmdhbml6YXRpb25hbFVuaXQxFTATBgNVBAMTDFZp
a2luZ1ZQTiBDQTEQMA4GA1UEKRMHRWFzeVJTQTEhMB8GCSqGSIb3DQEJARYSbWVA
bXlob3N0Lm15ZG9tYWluMB4XDTE0MDkyMDIxMzI1MFoXDTI0MDkxNzIxMzI1MFow
HzEdMBsGA1UEAxMUQ2xpZW50MTAwMkNlcnRiYjgzNTUwggIiMA0GCSqGSIb3DQEB
AQUAA4ICDwAwggIKAoICAQCZXvg7IfwSs/OrniBYJDaVx9vQDkUkOZU5uYOLAspe
ZlRz+ztFQutrvEZ1OrTDMrXUggPNXnp5+noTCfomJyyMd1BsrPMmrPNaQXF+DqLq
ieGErW1uoExOvgKnpZXYOLVp7VvETLm+4GwoA9fwoCSuLv/0uCpBMp18ID8Iza01
q8AqbEaSWnwpzCtM7DsgcURuVZkX3FUBbio7D+WvK+iLzpVPpoULYtsxEfVaqbXe
Y0M0n92h8xFrPpy8MmiosuZP6vKrEUxjOmAk4mZ4fHY0CFquUyLDBXMlk93fWIZ9
GU97W7ke4MP5pT38txHK50jGM6kuSmxMQdqu2MAMnvWmFrCaD4qcacCu8H4lycJg
6XR7Kld0+H18f0rnnnnqmlS5ybMm9e/RScNSvltq4pvwJzMEW/3tl+eYbie5B2WR
Uf6tULiqEt5HMRNQIW7fQQ08OxUPM3Z0s0X6ntEo/xcMNW8CQVMPADhmeqNKFdA6
qR6ydLO4TEK1GL6y+qVZrD7YiIyl+ajQUa4da0JqDNKha6hAaAFgEppwInifSKhT
VCy+zITS+2SnTrKodeWMl2j5ezNN5yrYsPDdY+/i1wkasxEYrUmnorVd3Ak4Dpql
Td8Eu1OH9z2L57XhNZTIF8/ofFAnzuPaRVHI7mcdB9Ke5z5KzP8hp+rm+IwWYWTf
SQIDAQABo4IBYzCCAV8wCQYDVR0TBAIwADAtBglghkgBhvhCAQ0EIBYeRWFzeS1S
U0EgR2VuZXJhdGVkIENlcnRpZmljYXRlMB0GA1UdDgQWBBRAzA/cFIbu89MIu5lL
qoM8xSVzWDCB4QYDVR0jBIHZMIHWgBQSzWAE0qCAnnDtxpm4eyzGUv0ZoaGBsqSB
rzCBrDELMAkGA1UEBhMCVVMxCzAJBgNVBAgTAk9IMREwDwYDVQQHEwhDb2x1bWJ1
czESMBAGA1UEChMJVmlraW5nVlBOMR0wGwYDVQQLExRNeU9yZ2FuaXphdGlvbmFs
VW5pdDEVMBMGA1UEAxMMVmlraW5nVlBOIENBMRAwDgYDVQQpEwdFYXN5UlNBMSEw
HwYJKoZIhvcNAQkBFhJtZUBteWhvc3QubXlkb21haW6CCQDPNYXugL8qPjATBgNV
HSUEDDAKBggrBgEFBQcDAjALBgNVHQ8EBAMCB4AwDQYJKoZIhvcNAQEEBQADggIB
ACjxrQbUkHQk5H4ztwqKEI2BbE13zBKWIv4Q+p0xtbcHHPJMieYwrxbhYtKVvhCl
HaDYQWenvitvx1WohXWw/kYjVzo6/+v8mtLTAMjAHQQzUDN+Qb1kMkZpZsTd7lft
QiNgPgSonZj/PRqFLKwQD/BmPREFdBGvwCbTzkLmsCVZ4um4mTfduJ6O8HyWF9x/
RKz3q6RjNjGeeQaX4iqO9XcNtd9ATfNRSAuk3HtPZHwLcHw9Wem04mpwLWvKXkZj
/m5Q/x+wm9uQGtXlgdmxIwGv0Q2/JpL3tK8Yg4uwyIzg5l0PzS7MKIsAuSyHotw7
CtcYmda+2zLx3E5YhlULJh9xxgn7iDFQTt4KHawIIK/RXT1FBto3PyZB13YT15H9
CT/1gnwWMHUsqjqnHFKeBPMQ109lYfjjtREm/FqfXw7HBw7PRlXr3yn7GvLTQmve
qbYlpWNeh4Lp8+10RhljRemn4kf5Ttr8bnV6AYpHD7PSTAqM1wcWjvft3dEZYCZ/
YbOFwOtetLuV+wwkdvQLQdSpQnel1fDdzkOy4sO169vIScD6FflsACdhiwREqikk
0qqjxS3J+27hSUhpoYfEEbpwq/C0/CEWHdN3PslfRrXN4XnCxleccyF+OSXNt88A
8F4xzPrwXFpsjB8uQ3TTjmPaxexdcW1UIURZjL4np1k8
-----END CERTIFICATE-----
