Certificate:
    Data:
        Version: 3 (0x2)
        Serial Number: 2915 (0xb63)
    Signature Algorithm: md5WithRSAEncryption
        Issuer: C=US, ST=OH, L=Columbus, O=VikingVPN, OU=MyOrganizationalUnit, CN=VikingVPN CA/name=EasyRSA/emailAddress=me@myhost.mydomain
        Validity
            Not Before: Sep 21 09:51:01 2014 GMT
            Not After : Sep 18 09:51:01 2024 GMT
        Subject: CN=Client682Cert805bc0
        Subject Public Key Info:
            Public Key Algorithm: rsaEncryption
                Public-Key: (4096 bit)
                Modulus:
                    00:e6:06:cb:54:d5:63:45:06:45:b6:44:2f:d7:ff:
                    fa:d9:56:17:27:f1:03:70:63:5a:bd:1b:88:8f:59:
                    c3:2f:05:73:0e:81:6b:13:ca:52:2a:06:e6:5d:94:
                    da:fd:e0:6b:b3:cb:94:02:46:fb:cc:62:79:14:13:
                    04:45:17:63:1d:24:eb:03:bc:72:65:30:a8:33:a9:
                    47:01:9c:30:82:39:c9:f5:c7:01:73:e7:73:f3:65:
                    a7:bf:d0:92:06:95:91:bf:8d:3b:93:31:6f:fb:ee:
                    89:d2:ab:71:32:18:3d:27:57:77:e6:81:11:b4:ce:
                    5a:a6:2b:c3:4b:2d:e3:f1:22:f9:a7:2a:f1:a9:81:
                    f8:ee:0c:66:36:55:8c:3a:b0:3c:05:91:29:e1:c9:
                    3d:aa:c3:f8:32:0a:35:1d:b1:62:51:f9:a5:0f:63:
                    2a:b0:c6:fa:65:b1:00:b9:53:21:95:a6:b7:95:2c:
                    a3:2b:36:28:f1:10:e3:ce:a7:d4:bb:bb:a5:42:5f:
                    31:52:46:2d:b4:68:df:3e:66:a3:89:6a:ae:de:10:
                    0c:02:b3:47:e4:46:38:b4:63:89:99:2e:ee:f6:f7:
                    3c:77:c5:f3:25:33:a4:61:9b:63:3c:25:ed:c5:d3:
                    7c:fc:a9:7d:11:46:d1:41:94:5a:65:19:7b:d2:21:
                    84:8f:1b:d4:3d:ef:ea:33:80:2a:98:70:9f:5a:57:
                    51:1c:9e:2a:ca:62:2e:b6:b9:55:03:58:5e:cd:b8:
                    b6:75:e9:90:d5:54:14:b2:c2:33:04:16:79:b3:e7:
                    db:bb:12:19:fb:16:ec:2d:91:d2:6a:5b:2d:ae:ad:
                    32:1d:ab:f2:a0:39:56:fb:8b:50:7f:e2:15:8a:da:
                    ba:88:c5:1c:a8:c6:3d:6a:26:65:a9:3a:f3:8c:fb:
                    76:16:eb:ab:59:95:7b:5d:30:22:e7:b2:08:bc:e0:
                    b1:4f:2a:f8:11:20:ce:c8:c3:53:ae:b6:ef:0b:61:
                    42:d8:57:9b:ec:6a:15:08:fc:28:ce:2e:a0:63:46:
                    c3:09:52:0c:36:8a:9c:99:7b:18:d2:e8:97:ee:2c:
                    85:88:60:c2:eb:1e:da:00:4e:58:ff:3d:f0:e3:6d:
                    fc:35:4e:7b:2b:53:9d:de:6b:13:31:07:0c:d9:9b:
                    ff:ef:86:db:b0:fd:74:47:7c:2e:04:1e:e9:8f:33:
                    7f:a9:58:20:73:30:87:3d:df:46:04:64:ab:47:47:
                    47:3f:22:34:37:af:fd:8b:c3:85:ee:c6:ff:4e:a9:
                    48:a4:12:65:a7:76:f1:1d:74:14:36:a3:27:fa:cf:
                    7a:e9:0c:14:8c:88:e6:43:b6:5f:8c:3c:79:8a:5e:
                    23:58:53
                Exponent: 65537 (0x10001)
        X509v3 extensions:
            X509v3 Basic Constraints: 
                CA:FALSE
            Netscape Comment: 
                Easy-RSA Generated Certificate
            X509v3 Subject Key Identifier: 
                1F:5C:DD:2F:59:E9:81:94:E9:47:BB:94:17:35:5B:4A:02:95:A6:EB
            X509v3 Authority Key Identifier: 
                keyid:12:CD:60:04:D2:A0:80:9E:70:ED:C6:99:B8:7B:2C:C6:52:FD:19:A1
                DirName:/C=US/ST=OH/L=Columbus/O=VikingVPN/OU=MyOrganizationalUnit/CN=VikingVPN CA/name=EasyRSA/emailAddress=me@myhost.mydomain
                serial:CF:35:85:EE:80:BF:2A:3E

            X509v3 Extended Key Usage: 
                TLS Web Client Authentication
            X509v3 Key Usage: 
                Digital Signature
    Signature Algorithm: md5WithRSAEncryption
         86:72:82:5d:40:6a:55:b2:32:0c:56:09:b0:75:8c:52:61:83:
         cd:c0:f0:50:4d:31:51:4e:b4:6a:04:1e:6a:72:1a:dd:6b:96:
         47:fd:a9:57:0d:e7:f0:5c:92:00:69:1d:e5:0e:a6:88:46:ed:
         bf:05:3a:5a:01:79:62:5d:04:3e:4e:d0:bf:fe:92:9b:4f:69:
         52:2f:54:27:92:be:77:cb:58:dd:0b:6f:5b:49:cf:f6:78:47:
         a5:6c:2d:86:af:ef:87:95:75:91:fb:e6:9f:f8:73:e0:62:38:
         82:5f:e1:4c:e0:81:70:9c:5f:21:14:5d:ae:a1:6c:0e:a6:74:
         c8:98:0c:07:93:6e:d1:9e:5e:cb:9b:5a:8c:6f:a5:14:c9:af:
         75:2f:8a:cd:66:21:f1:bc:ba:63:40:40:d1:be:58:b6:83:00:
         63:4e:59:67:06:e1:30:1c:61:1c:8a:f5:73:42:96:9a:de:d0:
         71:91:6c:3c:78:1b:c6:1b:be:65:49:ff:27:e5:e4:d4:11:f7:
         5f:c0:65:b3:8f:90:3c:fe:3b:99:7c:8b:89:d9:80:88:02:14:
         db:68:a1:e3:8c:cd:b0:bc:64:e1:36:84:d6:d3:cd:eb:52:e7:
         08:ac:5f:33:ae:19:72:bc:b0:ea:86:05:e8:77:f8:9b:51:c5:
         60:1a:34:cc:00:42:d9:2d:c5:a3:79:20:c2:13:8a:55:83:9b:
         61:a5:e2:f1:3b:5a:60:48:9c:f5:33:0e:3d:94:14:ec:bc:f4:
         be:fc:9d:1d:46:95:9e:49:bf:fb:e4:b8:6c:27:9b:df:f6:6c:
         fb:5a:6f:bf:86:b7:35:6f:70:3d:3a:e3:c9:9f:08:ba:7d:e9:
         2a:f8:56:c7:03:ab:3e:63:b5:2c:e5:dd:42:d9:07:21:9b:21:
         6d:02:a7:42:7f:9d:c6:2d:4a:7d:9d:5d:e8:5e:a3:55:d0:7a:
         59:27:d1:43:46:be:53:d5:56:4b:cb:0e:e2:05:3e:5f:9b:10:
         04:ca:3b:78:f6:51:78:a1:de:03:f2:36:10:3a:50:6d:cb:35:
         7c:f3:a1:9a:0c:6b:ef:e9:1c:b2:65:f6:dd:ee:a0:cd:65:21:
         86:e8:eb:82:b8:ee:79:97:cd:3f:2b:7f:1b:08:7e:39:66:5a:
         9e:59:6c:4f:94:04:7a:d6:66:50:4f:c5:0f:6e:5c:92:ca:aa:
         a0:1d:8d:53:19:1b:ca:86:e9:75:32:24:6b:38:bd:a6:8c:39:
         3a:44:61:a2:31:8a:90:56:92:ab:42:81:95:b8:1d:dd:dd:2b:
         33:d6:e3:42:49:72:7e:3d:73:8f:0f:15:93:8c:8c:e1:ce:4c:
         5f:1c:cf:0a:68:fa:57:8b
-----BEGIN CERTIFICATE-----
MIIGrDCCBJSgAwIBAgICC2MwDQYJKoZIhvcNAQEEBQAwgawxCzAJBgNVBAYTAlVT
MQswCQYDVQQIEwJPSDERMA8GA1UEBxMIQ29sdW1idXMxEjAQBgNVBAoTCVZpa2lu
Z1ZQTjEdMBsGA1UECxMUTXlPcmdhbml6YXRpb25hbFVuaXQxFTATBgNVBAMTDFZp
a2luZ1ZQTiBDQTEQMA4GA1UEKRMHRWFzeVJTQTEhMB8GCSqGSIb3DQEJARYSbWVA
bXlob3N0Lm15ZG9tYWluMB4XDTE0MDkyMTA5NTEwMVoXDTI0MDkxODA5NTEwMVow
HjEcMBoGA1UEAxMTQ2xpZW50NjgyQ2VydDgwNWJjMDCCAiIwDQYJKoZIhvcNAQEB
BQADggIPADCCAgoCggIBAOYGy1TVY0UGRbZEL9f/+tlWFyfxA3BjWr0biI9Zwy8F
cw6BaxPKUioG5l2U2v3ga7PLlAJG+8xieRQTBEUXYx0k6wO8cmUwqDOpRwGcMII5
yfXHAXPnc/Nlp7/QkgaVkb+NO5Mxb/vuidKrcTIYPSdXd+aBEbTOWqYrw0st4/Ei
+acq8amB+O4MZjZVjDqwPAWRKeHJParD+DIKNR2xYlH5pQ9jKrDG+mWxALlTIZWm
t5Usoys2KPEQ486n1Lu7pUJfMVJGLbRo3z5mo4lqrt4QDAKzR+RGOLRjiZku7vb3
PHfF8yUzpGGbYzwl7cXTfPypfRFG0UGUWmUZe9IhhI8b1D3v6jOAKphwn1pXURye
KspiLra5VQNYXs24tnXpkNVUFLLCMwQWebPn27sSGfsW7C2R0mpbLa6tMh2r8qA5
VvuLUH/iFYrauojFHKjGPWomZak684z7dhbrq1mVe10wIueyCLzgsU8q+BEgzsjD
U6627wthQthXm+xqFQj8KM4uoGNGwwlSDDaKnJl7GNLol+4shYhgwuse2gBOWP89
8ONt/DVOeytTnd5rEzEHDNmb/++G27D9dEd8LgQe6Y8zf6lYIHMwhz3fRgRkq0dH
Rz8iNDev/YvDhe7G/06pSKQSZad28R10FDajJ/rPeukMFIyI5kO2X4w8eYpeI1hT
AgMBAAGjggFjMIIBXzAJBgNVHRMEAjAAMC0GCWCGSAGG+EIBDQQgFh5FYXN5LVJT
QSBHZW5lcmF0ZWQgQ2VydGlmaWNhdGUwHQYDVR0OBBYEFB9c3S9Z6YGU6Ue7lBc1
W0oClabrMIHhBgNVHSMEgdkwgdaAFBLNYATSoICecO3Gmbh7LMZS/RmhoYGypIGv
MIGsMQswCQYDVQQGEwJVUzELMAkGA1UECBMCT0gxETAPBgNVBAcTCENvbHVtYnVz
MRIwEAYDVQQKEwlWaWtpbmdWUE4xHTAbBgNVBAsTFE15T3JnYW5pemF0aW9uYWxV
bml0MRUwEwYDVQQDEwxWaWtpbmdWUE4gQ0ExEDAOBgNVBCkTB0Vhc3lSU0ExITAf
BgkqhkiG9w0BCQEWEm1lQG15aG9zdC5teWRvbWFpboIJAM81he6Avyo+MBMGA1Ud
JQQMMAoGCCsGAQUFBwMCMAsGA1UdDwQEAwIHgDANBgkqhkiG9w0BAQQFAAOCAgEA
hnKCXUBqVbIyDFYJsHWMUmGDzcDwUE0xUU60agQeanIa3WuWR/2pVw3n8FySAGkd
5Q6miEbtvwU6WgF5Yl0EPk7Qv/6Sm09pUi9UJ5K+d8tY3QtvW0nP9nhHpWwthq/v
h5V1kfvmn/hz4GI4gl/hTOCBcJxfIRRdrqFsDqZ0yJgMB5Nu0Z5ey5tajG+lFMmv
dS+KzWYh8by6Y0BA0b5YtoMAY05ZZwbhMBxhHIr1c0KWmt7QcZFsPHgbxhu+ZUn/
J+Xk1BH3X8Bls4+QPP47mXyLidmAiAIU22ih44zNsLxk4TaE1tPN61LnCKxfM64Z
cryw6oYF6Hf4m1HFYBo0zABC2S3Fo3kgwhOKVYObYaXi8TtaYEic9TMOPZQU7Lz0
vvydHUaVnkm/++S4bCeb3/Zs+1pvv4a3NW9wPTrjyZ8Iun3pKvhWxwOrPmO1LOXd
QtkHIZshbQKnQn+dxi1KfZ1d6F6jVdB6WSfRQ0a+U9VWS8sO4gU+X5sQBMo7ePZR
eKHeA/I2EDpQbcs1fPOhmgxr7+kcsmX23e6gzWUhhujrgrjueZfNPyt/Gwh+OWZa
nllsT5QEetZmUE/FD25cksqqoB2NUxkbyobpdTIkazi9pow5OkRhojGKkFaSq0KB
lbgd3d0rM9bjQklyfj1zjw8Vk4yM4c5MXxzPCmj6V4s=
-----END CERTIFICATE-----
