Certificate:
    Data:
        Version: 3 (0x2)
        Serial Number: 2919 (0xb67)
    Signature Algorithm: md5WithRSAEncryption
        Issuer: C=US, ST=OH, L=Columbus, O=VikingVPN, OU=MyOrganizationalUnit, CN=VikingVPN CA/name=EasyRSA/emailAddress=me@myhost.mydomain
        Validity
            Not Before: Sep 22 00:27:11 2014 GMT
            Not After : Sep 19 00:27:11 2024 GMT
        Subject: CN=Client1004Certeaf2e2
        Subject Public Key Info:
            Public Key Algorithm: rsaEncryption
                Public-Key: (4096 bit)
                Modulus:
                    00:d4:15:24:f1:d3:67:e9:d8:a5:de:54:ac:04:89:
                    41:11:a4:84:a2:2e:d1:de:4d:e0:10:07:5f:07:1d:
                    fc:c2:51:10:55:72:ff:b2:72:3d:bc:6e:64:f3:c3:
                    0b:e7:20:80:6a:33:c7:70:d0:2f:6e:8e:20:27:2f:
                    c6:c3:12:19:b8:86:90:e1:77:06:5d:02:56:4c:12:
                    2b:46:aa:23:48:84:84:8f:78:0b:a9:f2:0f:c9:31:
                    a2:61:90:e3:d1:f2:a5:9a:d2:7c:e8:7b:a4:a4:d1:
                    cd:44:d1:a9:6f:d4:7b:da:aa:e9:c4:d3:c0:f8:b1:
                    7f:6d:d0:d6:4a:36:f2:40:5d:ce:ee:95:0c:94:a0:
                    37:a1:0b:38:0d:5c:8e:17:3a:32:25:76:73:91:e1:
                    cd:12:11:3f:20:71:84:bf:12:91:77:e0:49:ab:f5:
                    88:fc:c4:60:1a:0c:b1:01:a4:d9:28:43:d7:59:59:
                    bc:bd:04:5b:94:d4:82:83:13:1f:d6:75:c5:14:17:
                    9e:cd:b3:28:8f:5c:8f:4a:37:1c:85:b8:aa:da:cf:
                    79:db:9f:db:be:c4:ed:ad:11:15:fa:e4:32:f8:83:
                    25:94:23:2e:9b:56:1f:76:f9:f2:2d:07:7f:7b:ec:
                    18:ec:2f:72:a8:b7:21:db:63:d8:f8:7e:f2:a1:af:
                    aa:b5:9a:18:c3:2a:5e:41:fc:86:da:ea:ad:a7:a3:
                    47:87:37:76:85:47:48:22:09:5a:86:f3:4d:9f:a4:
                    19:4f:15:de:54:b5:72:a4:81:86:28:79:ac:4d:d4:
                    7c:4c:12:4d:48:0e:bb:f4:5f:70:2c:97:0a:73:7d:
                    97:5f:82:06:c7:1f:45:0f:08:b6:c9:a9:2d:87:86:
                    3a:d2:15:ec:4b:09:88:c4:af:be:1e:38:f5:c0:3a:
                    1d:ee:04:da:d5:b1:c2:00:ec:f1:b6:ef:f9:e6:81:
                    b0:a2:44:39:23:42:a2:fd:59:40:83:15:17:6d:3f:
                    90:d7:1f:cd:cf:89:d7:8c:fd:1d:7a:bc:77:de:70:
                    65:ab:d5:f3:58:39:55:ea:b5:79:32:5d:4b:0b:09:
                    f4:4a:4e:86:cc:5e:8b:ca:ca:f7:5d:10:e0:a8:6f:
                    08:11:36:79:cf:5f:a4:86:0d:8a:19:d7:4c:79:19:
                    20:f1:ca:68:54:f8:ba:9e:fd:6c:ca:cb:76:a6:bf:
                    ef:8e:10:f1:ea:a4:15:1c:23:63:37:43:05:54:b9:
                    08:17:9d:53:03:92:37:9c:7c:49:68:16:e2:d7:53:
                    da:42:87:74:57:75:6c:4a:45:dc:be:66:31:18:6c:
                    b2:8b:36:49:43:86:46:fd:4a:a5:f6:86:ad:cf:52:
                    8c:aa:df
                Exponent: 65537 (0x10001)
        X509v3 extensions:
            X509v3 Basic Constraints: 
                CA:FALSE
            Netscape Comment: 
                Easy-RSA Generated Certificate
            X509v3 Subject Key Identifier: 
                13:69:C2:0E:15:D9:B9:30:FF:EB:EF:EC:7D:CC:28:0B:7E:04:C8:4A
            X509v3 Authority Key Identifier: 
                keyid:12:CD:60:04:D2:A0:80:9E:70:ED:C6:99:B8:7B:2C:C6:52:FD:19:A1
                DirName:/C=US/ST=OH/L=Columbus/O=VikingVPN/OU=MyOrganizationalUnit/CN=VikingVPN CA/name=EasyRSA/emailAddress=me@myhost.mydomain
                serial:CF:35:85:EE:80:BF:2A:3E

            X509v3 Extended Key Usage: 
                TLS Web Client Authentication
            X509v3 Key Usage: 
                Digital Signature
    Signature Algorithm: md5WithRSAEncryption
         10:07:1e:2d:2c:11:50:8b:56:f1:1d:69:bd:92:35:78:49:41:
         87:4e:f5:ad:c1:be:ad:c1:70:7b:da:39:d1:9a:f8:e6:4f:43:
         ee:c5:cf:9f:fb:85:48:8c:e0:6a:bf:cf:15:de:b1:0f:0e:94:
         7a:44:cf:13:06:92:02:f5:b0:29:20:9e:c0:b9:ea:5d:26:d0:
         69:31:0b:02:bc:b2:76:2c:b3:ed:c9:45:34:49:86:bf:45:e7:
         50:74:20:e0:ec:91:fc:1c:59:73:0c:b2:a3:98:30:1f:9f:0f:
         f2:63:5d:68:f5:93:22:c0:55:70:9c:01:e9:c4:74:77:e5:54:
         2c:9a:3a:9b:51:1d:1f:6d:17:f7:bb:d3:f7:12:09:64:ef:ef:
         59:c3:7e:fb:cf:40:a7:34:3f:15:85:31:9a:f5:41:e6:3c:9d:
         db:21:47:f7:34:d1:ac:aa:1c:91:1b:30:0c:94:75:e7:cb:ef:
         3b:82:1b:06:6b:60:91:87:87:d9:a7:bc:2d:8f:bf:46:af:ee:
         47:f7:e6:23:51:21:f6:78:3f:3e:11:00:ef:1d:ca:e3:83:c8:
         e0:9e:40:e0:4e:c7:1c:a0:cf:0d:86:41:c8:b4:fc:93:fa:06:
         26:a5:1d:12:22:5b:9f:42:cb:64:6d:6e:6b:e7:73:77:e4:19:
         93:c9:12:11:78:32:1d:6f:e5:ae:97:10:d6:76:3d:ff:ee:37:
         4e:d7:e2:bc:41:7f:2c:b5:4d:c7:af:bc:b6:a8:5a:a0:f7:1a:
         09:0f:a2:13:a3:38:83:fb:c1:d8:34:5d:59:1e:1a:2b:b7:31:
         69:f6:b2:a9:66:15:2e:53:94:52:ff:e8:46:7e:a3:3f:86:32:
         5b:ed:49:55:10:cc:fc:91:28:ce:6c:b6:fd:d0:84:98:ed:6f:
         9a:a2:3f:b0:ca:de:0f:17:85:6b:6d:28:33:59:95:da:e6:bb:
         a7:fc:6c:18:94:57:e3:8a:05:54:13:ec:b3:e1:4c:87:53:fe:
         08:cc:73:ff:36:2d:2d:db:f1:98:01:52:11:3a:86:f6:74:8a:
         d4:56:b7:7e:87:e4:f3:69:4e:d0:3e:5e:c0:21:fd:f4:f1:aa:
         6d:11:35:3b:57:1d:7e:b5:e1:e5:bc:e3:d1:85:af:bf:bd:2d:
         16:35:4d:c4:e1:62:62:2d:58:6c:ef:f8:26:e2:04:c2:33:8e:
         97:e3:f9:61:a8:26:97:7a:74:e5:93:f4:bc:86:d8:be:49:b9:
         68:4a:17:c4:17:2e:8f:0f:e7:15:cb:8f:6f:20:14:7d:b0:9f:
         b4:08:ba:ff:b2:e0:dd:54:6e:d8:28:8b:7c:ef:9e:61:5a:95:
         f8:2b:a5:88:23:38:f2:8f
-----BEGIN CERTIFICATE-----
MIIGrTCCBJWgAwIBAgICC2cwDQYJKoZIhvcNAQEEBQAwgawxCzAJBgNVBAYTAlVT
MQswCQYDVQQIEwJPSDERMA8GA1UEBxMIQ29sdW1idXMxEjAQBgNVBAoTCVZpa2lu
Z1ZQTjEdMBsGA1UECxMUTXlPcmdhbml6YXRpb25hbFVuaXQxFTATBgNVBAMTDFZp
a2luZ1ZQTiBDQTEQMA4GA1UEKRMHRWFzeVJTQTEhMB8GCSqGSIb3DQEJARYSbWVA
bXlob3N0Lm15ZG9tYWluMB4XDTE0MDkyMjAwMjcxMVoXDTI0MDkxOTAwMjcxMVow
HzEdMBsGA1UEAxMUQ2xpZW50MTAwNENlcnRlYWYyZTIwggIiMA0GCSqGSIb3DQEB
AQUAA4ICDwAwggIKAoICAQDUFSTx02fp2KXeVKwEiUERpISiLtHeTeAQB18HHfzC
URBVcv+ycj28bmTzwwvnIIBqM8dw0C9ujiAnL8bDEhm4hpDhdwZdAlZMEitGqiNI
hISPeAup8g/JMaJhkOPR8qWa0nzoe6Sk0c1E0alv1HvaqunE08D4sX9t0NZKNvJA
Xc7ulQyUoDehCzgNXI4XOjIldnOR4c0SET8gcYS/EpF34Emr9Yj8xGAaDLEBpNko
Q9dZWby9BFuU1IKDEx/WdcUUF57NsyiPXI9KNxyFuKraz3nbn9u+xO2tERX65DL4
gyWUIy6bVh92+fItB3977BjsL3KotyHbY9j4fvKhr6q1mhjDKl5B/Iba6q2no0eH
N3aFR0giCVqG802fpBlPFd5UtXKkgYYoeaxN1HxMEk1IDrv0X3AslwpzfZdfggbH
H0UPCLbJqS2HhjrSFexLCYjEr74eOPXAOh3uBNrVscIA7PG27/nmgbCiRDkjQqL9
WUCDFRdtP5DXH83PideM/R16vHfecGWr1fNYOVXqtXkyXUsLCfRKTobMXovKyvdd
EOCobwgRNnnPX6SGDYoZ10x5GSDxymhU+Lqe/WzKy3amv++OEPHqpBUcI2M3QwVU
uQgXnVMDkjecfEloFuLXU9pCh3RXdWxKRdy+ZjEYbLKLNklDhkb9SqX2hq3PUoyq
3wIDAQABo4IBYzCCAV8wCQYDVR0TBAIwADAtBglghkgBhvhCAQ0EIBYeRWFzeS1S
U0EgR2VuZXJhdGVkIENlcnRpZmljYXRlMB0GA1UdDgQWBBQTacIOFdm5MP/r7+x9
zCgLfgTISjCB4QYDVR0jBIHZMIHWgBQSzWAE0qCAnnDtxpm4eyzGUv0ZoaGBsqSB
rzCBrDELMAkGA1UEBhMCVVMxCzAJBgNVBAgTAk9IMREwDwYDVQQHEwhDb2x1bWJ1
czESMBAGA1UEChMJVmlraW5nVlBOMR0wGwYDVQQLExRNeU9yZ2FuaXphdGlvbmFs
VW5pdDEVMBMGA1UEAxMMVmlraW5nVlBOIENBMRAwDgYDVQQpEwdFYXN5UlNBMSEw
HwYJKoZIhvcNAQkBFhJtZUBteWhvc3QubXlkb21haW6CCQDPNYXugL8qPjATBgNV
HSUEDDAKBggrBgEFBQcDAjALBgNVHQ8EBAMCB4AwDQYJKoZIhvcNAQEEBQADggIB
ABAHHi0sEVCLVvEdab2SNXhJQYdO9a3Bvq3BcHvaOdGa+OZPQ+7Fz5/7hUiM4Gq/
zxXesQ8OlHpEzxMGkgL1sCkgnsC56l0m0GkxCwK8snYss+3JRTRJhr9F51B0IODs
kfwcWXMMsqOYMB+fD/JjXWj1kyLAVXCcAenEdHflVCyaOptRHR9tF/e70/cSCWTv
71nDfvvPQKc0PxWFMZr1QeY8ndshR/c00ayqHJEbMAyUdefL7zuCGwZrYJGHh9mn
vC2Pv0av7kf35iNRIfZ4Pz4RAO8dyuODyOCeQOBOxxygzw2GQci0/JP6BialHRIi
W59Cy2Rtbmvnc3fkGZPJEhF4Mh1v5a6XENZ2Pf/uN07X4rxBfyy1TcevvLaoWqD3
GgkPohOjOIP7wdg0XVkeGiu3MWn2sqlmFS5TlFL/6EZ+oz+GMlvtSVUQzPyRKM5s
tv3QhJjtb5qiP7DK3g8XhWttKDNZldrmu6f8bBiUV+OKBVQT7LPhTIdT/gjMc/82
LS3b8ZgBUhE6hvZ0itRWt36H5PNpTtA+XsAh/fTxqm0RNTtXHX614eW849GFr7+9
LRY1TcThYmItWGzv+CbiBMIzjpfj+WGoJpd6dOWT9LyG2L5JuWhKF8QXLo8P5xXL
j28gFH2wn7QIuv+y4N1Ubtgoi3zvnmFalfgrpYgjOPKP
-----END CERTIFICATE-----
