Certificate:
    Data:
        Version: 3 (0x2)
        Serial Number: 2929 (0xb71)
    Signature Algorithm: md5WithRSAEncryption
        Issuer: C=US, ST=OH, L=Columbus, O=VikingVPN, OU=MyOrganizationalUnit, CN=VikingVPN CA/name=EasyRSA/emailAddress=me@myhost.mydomain
        Validity
            Not Before: Sep 23 07:23:52 2014 GMT
            Not After : Sep 20 07:23:52 2024 GMT
        Subject: CN=Client1008Cert96726c
        Subject Public Key Info:
            Public Key Algorithm: rsaEncryption
                Public-Key: (4096 bit)
                Modulus:
                    00:b7:f1:23:03:a6:1a:e1:32:24:a9:f8:9b:3a:56:
                    22:9c:7d:c2:8a:fb:ed:da:23:a9:3d:9e:2c:c9:53:
                    c5:57:a2:47:10:30:3a:00:02:52:7f:df:02:41:9e:
                    25:11:3a:9c:5d:16:ff:be:4b:7d:04:05:7e:cf:c9:
                    bb:a5:12:1b:c0:a6:d5:ca:6b:71:c0:39:81:89:d5:
                    80:fb:da:6d:ee:ed:be:40:aa:56:56:05:87:6e:41:
                    ae:a4:fc:4f:54:4b:63:6a:f7:71:8f:72:2c:3b:40:
                    4e:23:af:c6:9f:9a:b0:c1:ea:09:75:2a:6f:8b:0d:
                    f0:ae:53:81:55:ef:8d:a3:bf:44:8e:2f:f6:81:31:
                    e1:ab:d5:5c:8b:53:9d:7b:bf:d1:f0:53:7e:fe:21:
                    81:be:56:fc:75:86:4d:d2:59:1f:d6:f5:6c:ff:36:
                    62:d6:b0:7c:9f:fa:33:fc:ce:e3:3b:0e:09:d8:9d:
                    69:fd:69:29:2c:f2:2a:af:b4:1b:1b:01:bd:70:ff:
                    29:78:4f:a5:a9:6b:cf:3a:a4:4d:61:30:83:c5:35:
                    80:7b:a7:8a:26:40:29:fc:4f:c6:7a:7c:eb:bb:6a:
                    00:3d:c7:0e:fd:08:c7:24:c3:7a:0a:b8:55:3c:db:
                    82:6f:08:98:57:73:81:c6:e7:a3:07:93:5b:fe:f9:
                    ed:fd:03:ec:a8:8a:11:b9:f3:8f:82:a4:09:ab:6a:
                    59:2e:66:3b:2d:7f:d2:ab:c5:fc:89:50:8e:bb:eb:
                    50:39:ed:10:3a:3e:6d:cf:06:c5:78:b8:d0:b9:5b:
                    ba:5d:60:79:46:4c:02:3e:a9:a2:c5:17:f3:4f:e3:
                    c0:3e:bf:49:d1:82:0e:a5:88:71:66:ef:3a:98:c5:
                    cc:6f:5a:57:31:35:5e:4f:cd:da:9e:33:d6:be:52:
                    92:2a:fc:e1:bd:33:91:93:55:b5:45:da:18:58:28:
                    2c:a6:59:2f:b8:c0:ed:97:3d:29:a2:ca:57:49:50:
                    d4:21:dc:62:4f:a7:2a:29:f5:1c:65:9d:29:8d:3f:
                    0f:64:33:86:47:fe:10:b5:f0:0b:6b:47:99:15:e7:
                    ba:f7:34:ef:d6:e0:8f:88:85:5a:09:d0:f2:5b:e4:
                    26:4d:99:22:1e:d4:fe:d6:f5:ea:40:3b:32:8a:58:
                    d6:76:43:d7:b4:06:44:3f:64:03:ab:f2:1b:e7:11:
                    ac:ef:21:f0:c2:d2:20:ce:76:33:8c:6d:6a:e0:d8:
                    11:07:b9:4e:a8:4f:76:93:98:ea:69:dc:87:02:89:
                    4f:34:33:61:09:8c:82:6f:02:f3:ad:7e:56:16:29:
                    b5:70:7b:88:4f:4a:1a:0d:60:fe:28:fd:2f:a6:94:
                    cf:96:fb
                Exponent: 65537 (0x10001)
        X509v3 extensions:
            X509v3 Basic Constraints: 
                CA:FALSE
            Netscape Comment: 
                Easy-RSA Generated Certificate
            X509v3 Subject Key Identifier: 
                0A:06:67:21:C9:1F:53:47:56:A7:95:81:34:71:42:1A:1A:81:60:14
            X509v3 Authority Key Identifier: 
                keyid:12:CD:60:04:D2:A0:80:9E:70:ED:C6:99:B8:7B:2C:C6:52:FD:19:A1
                DirName:/C=US/ST=OH/L=Columbus/O=VikingVPN/OU=MyOrganizationalUnit/CN=VikingVPN CA/name=EasyRSA/emailAddress=me@myhost.mydomain
                serial:CF:35:85:EE:80:BF:2A:3E

            X509v3 Extended Key Usage: 
                TLS Web Client Authentication
            X509v3 Key Usage: 
                Digital Signature
    Signature Algorithm: md5WithRSAEncryption
         bf:ec:ec:9b:2d:f1:2a:9a:c1:59:b8:1a:5d:7c:52:8b:5f:86:
         78:be:49:36:c4:38:e2:6c:7a:a6:f8:ce:b8:07:60:6e:1f:4d:
         be:2f:b7:4a:b8:a2:2c:40:05:5d:c7:11:91:ff:7e:c6:f4:71:
         3a:ab:a3:be:8d:9d:e2:8e:b5:83:17:bc:1d:6b:cb:07:a1:1a:
         1f:dc:9e:12:22:7d:1b:4d:16:d0:e8:50:24:3c:e5:1d:a9:38:
         a8:d9:c5:14:ea:87:93:fc:df:d7:12:f9:03:78:87:32:e3:01:
         1a:66:aa:1b:13:87:50:00:90:e3:17:1e:98:76:b5:66:0b:20:
         df:0f:09:fa:25:84:5a:41:47:9e:f3:ad:6d:09:6c:65:d2:9e:
         4d:40:c0:b2:57:e8:af:ca:45:74:73:26:b1:b9:13:08:b2:2f:
         ee:83:ed:98:85:aa:3b:f2:85:a5:31:32:c5:b1:8d:34:b0:9b:
         03:12:f0:10:44:8d:ef:a2:f5:3d:98:bd:6d:b4:29:a2:3c:ee:
         ee:d7:a3:81:24:09:5e:70:5b:98:a0:ad:6d:1d:bf:71:b4:d9:
         ec:e2:ad:96:69:e2:04:4d:11:fe:63:7b:96:41:87:2d:24:11:
         a1:64:72:f7:69:5c:03:e1:7f:61:a1:6a:8b:56:d1:78:ad:5a:
         5f:fe:b3:9e:23:86:a9:a8:a8:96:1b:60:ba:3a:aa:fc:07:a4:
         e1:91:43:5f:19:69:7d:d3:0d:55:26:bf:89:1f:18:26:85:6a:
         5e:5f:3a:5d:b8:ee:4d:ea:7d:6b:00:dd:20:a7:ee:0f:68:0d:
         c3:03:f0:71:73:dc:0b:d1:d3:b2:aa:07:37:83:7d:ca:13:7e:
         a6:a3:79:07:7c:1e:67:32:c1:4c:99:a0:9c:af:a5:28:9c:ba:
         e0:d6:a6:a7:1c:a3:22:aa:d2:70:7e:b6:6c:8a:ae:fb:ae:ce:
         3a:3c:12:58:bc:89:50:42:a7:18:f0:21:6c:ff:b6:e6:31:c6:
         c8:75:cc:a4:a9:b6:d3:b8:b8:fa:e1:b6:2c:f5:0e:25:b4:6e:
         a5:8d:cb:f4:8e:b7:f2:a2:54:62:46:94:2b:dc:4a:51:5b:b5:
         4c:9d:a8:2f:29:86:d9:b4:d3:d2:31:7b:16:59:ea:93:2e:62:
         0d:ea:5b:f4:f2:23:54:89:ca:41:29:2f:82:75:aa:6d:7a:6b:
         b1:4e:4b:d2:ee:44:4d:3c:27:5c:3f:2b:3a:53:48:8b:fe:2e:
         6e:7e:64:e3:aa:13:d7:af:0c:44:46:a7:20:54:5a:19:95:f1:
         ff:2d:cb:b3:dd:3f:05:89:13:02:2e:b2:e4:65:41:23:aa:ce:
         2d:15:b4:66:f8:8f:d0:a8
-----BEGIN CERTIFICATE-----
MIIGrTCCBJWgAwIBAgICC3EwDQYJKoZIhvcNAQEEBQAwgawxCzAJBgNVBAYTAlVT
MQswCQYDVQQIEwJPSDERMA8GA1UEBxMIQ29sdW1idXMxEjAQBgNVBAoTCVZpa2lu
Z1ZQTjEdMBsGA1UECxMUTXlPcmdhbml6YXRpb25hbFVuaXQxFTATBgNVBAMTDFZp
a2luZ1ZQTiBDQTEQMA4GA1UEKRMHRWFzeVJTQTEhMB8GCSqGSIb3DQEJARYSbWVA
bXlob3N0Lm15ZG9tYWluMB4XDTE0MDkyMzA3MjM1MloXDTI0MDkyMDA3MjM1Mlow
HzEdMBsGA1UEAxMUQ2xpZW50MTAwOENlcnQ5NjcyNmMwggIiMA0GCSqGSIb3DQEB
AQUAA4ICDwAwggIKAoICAQC38SMDphrhMiSp+Js6ViKcfcKK++3aI6k9nizJU8VX
okcQMDoAAlJ/3wJBniUROpxdFv++S30EBX7PybulEhvAptXKa3HAOYGJ1YD72m3u
7b5AqlZWBYduQa6k/E9US2Nq93GPciw7QE4jr8afmrDB6gl1Km+LDfCuU4FV742j
v0SOL/aBMeGr1VyLU517v9HwU37+IYG+Vvx1hk3SWR/W9Wz/NmLWsHyf+jP8zuM7
DgnYnWn9aSks8iqvtBsbAb1w/yl4T6Wpa886pE1hMIPFNYB7p4omQCn8T8Z6fOu7
agA9xw79CMckw3oKuFU824JvCJhXc4HG56MHk1v++e39A+yoihG584+CpAmralku
Zjstf9KrxfyJUI6761A57RA6Pm3PBsV4uNC5W7pdYHlGTAI+qaLFF/NP48A+v0nR
gg6liHFm7zqYxcxvWlcxNV5PzdqeM9a+UpIq/OG9M5GTVbVF2hhYKCymWS+4wO2X
PSmiyldJUNQh3GJPpyop9RxlnSmNPw9kM4ZH/hC18AtrR5kV57r3NO/W4I+IhVoJ
0PJb5CZNmSIe1P7W9epAOzKKWNZ2Q9e0BkQ/ZAOr8hvnEazvIfDC0iDOdjOMbWrg
2BEHuU6oT3aTmOpp3IcCiU80M2EJjIJvAvOtflYWKbVwe4hPShoNYP4o/S+mlM+W
+wIDAQABo4IBYzCCAV8wCQYDVR0TBAIwADAtBglghkgBhvhCAQ0EIBYeRWFzeS1S
U0EgR2VuZXJhdGVkIENlcnRpZmljYXRlMB0GA1UdDgQWBBQKBmchyR9TR1anlYE0
cUIaGoFgFDCB4QYDVR0jBIHZMIHWgBQSzWAE0qCAnnDtxpm4eyzGUv0ZoaGBsqSB
rzCBrDELMAkGA1UEBhMCVVMxCzAJBgNVBAgTAk9IMREwDwYDVQQHEwhDb2x1bWJ1
czESMBAGA1UEChMJVmlraW5nVlBOMR0wGwYDVQQLExRNeU9yZ2FuaXphdGlvbmFs
VW5pdDEVMBMGA1UEAxMMVmlraW5nVlBOIENBMRAwDgYDVQQpEwdFYXN5UlNBMSEw
HwYJKoZIhvcNAQkBFhJtZUBteWhvc3QubXlkb21haW6CCQDPNYXugL8qPjATBgNV
HSUEDDAKBggrBgEFBQcDAjALBgNVHQ8EBAMCB4AwDQYJKoZIhvcNAQEEBQADggIB
AL/s7Jst8SqawVm4Gl18Uotfhni+STbEOOJseqb4zrgHYG4fTb4vt0q4oixABV3H
EZH/fsb0cTqro76NneKOtYMXvB1rywehGh/cnhIifRtNFtDoUCQ85R2pOKjZxRTq
h5P839cS+QN4hzLjARpmqhsTh1AAkOMXHph2tWYLIN8PCfolhFpBR57zrW0JbGXS
nk1AwLJX6K/KRXRzJrG5EwiyL+6D7ZiFqjvyhaUxMsWxjTSwmwMS8BBEje+i9T2Y
vW20KaI87u7Xo4EkCV5wW5igrW0dv3G02ezirZZp4gRNEf5je5ZBhy0kEaFkcvdp
XAPhf2GhaotW0XitWl/+s54jhqmoqJYbYLo6qvwHpOGRQ18ZaX3TDVUmv4kfGCaF
al5fOl247k3qfWsA3SCn7g9oDcMD8HFz3AvR07KqBzeDfcoTfqajeQd8HmcywUyZ
oJyvpSicuuDWpqccoyKq0nB+tmyKrvuuzjo8Eli8iVBCpxjwIWz/tuYxxsh1zKSp
ttO4uPrhtiz1DiW0bqWNy/SOt/KiVGJGlCvcSlFbtUydqC8phtm009IxexZZ6pMu
Yg3qW/TyI1SJykEpL4J1qm16a7FOS9LuRE08J1w/KzpTSIv+Lm5+ZOOqE9evDERG
pyBUWhmV8f8ty7PdPwWJEwIusuRlQSOqzi0VtGb4j9Co
-----END CERTIFICATE-----
