Certificate:
    Data:
        Version: 3 (0x2)
        Serial Number: 2934 (0xb76)
    Signature Algorithm: md5WithRSAEncryption
        Issuer: C=US, ST=OH, L=Columbus, O=VikingVPN, OU=MyOrganizationalUnit, CN=VikingVPN CA/name=EasyRSA/emailAddress=me@myhost.mydomain
        Validity
            Not Before: Sep 24 01:36:59 2014 GMT
            Not After : Sep 21 01:36:59 2024 GMT
        Subject: CN=Client996Cert478ace
        Subject Public Key Info:
            Public Key Algorithm: rsaEncryption
                Public-Key: (4096 bit)
                Modulus:
                    00:c0:a2:40:50:e7:29:81:f6:c9:9d:6c:70:98:6f:
                    db:9a:49:4b:28:ea:55:69:ad:16:6e:68:b8:c8:c7:
                    30:b1:20:76:3f:1e:89:e1:ea:e6:04:e4:1b:9c:e7:
                    9d:26:3f:49:a6:7c:39:0c:b3:1e:19:11:f1:48:79:
                    78:cb:ce:89:58:fe:a1:17:a9:6f:d9:c4:39:19:ad:
                    99:2d:bc:2e:35:aa:91:18:5e:ba:5c:95:e2:ea:5d:
                    3a:a4:b5:ec:5d:2a:7f:4e:cc:28:3e:e5:6c:ae:de:
                    5c:a5:ef:12:56:ac:03:e4:59:58:d3:a3:22:c8:08:
                    49:75:b9:0c:bd:76:e3:85:0e:ee:a0:b4:36:8e:39:
                    6b:11:35:60:51:92:20:98:0d:1b:e8:cb:df:01:81:
                    64:8e:8b:15:7a:fd:a1:ff:7d:10:2e:ff:2d:16:c8:
                    ce:15:1e:1d:12:0c:cf:94:0e:3d:18:6d:61:fd:fd:
                    ec:b1:4a:31:20:e4:b1:29:6b:9e:07:70:51:22:0f:
                    6b:be:c5:e7:c2:1f:ec:e9:c5:e7:b8:ee:02:af:eb:
                    65:44:6b:10:8d:ff:32:cc:e0:75:73:05:bc:14:38:
                    87:6b:e2:3b:84:2e:fe:2f:07:be:b1:dc:7d:97:1d:
                    38:99:a9:98:b9:f8:f5:34:2b:87:9c:b1:5f:5b:1f:
                    6a:c8:29:91:06:5b:55:f7:f8:1a:a6:b5:2d:79:90:
                    ee:4e:fe:b1:df:f5:2a:68:86:e6:f1:7c:c6:73:9d:
                    38:17:34:a0:d4:b8:23:b3:53:1a:51:2c:fc:f2:b6:
                    1c:7b:d5:c7:63:e6:eb:af:ad:d9:55:b1:70:1f:2d:
                    a1:6f:8b:7c:0f:9d:74:b0:44:72:50:a8:35:d5:34:
                    75:2e:b7:51:2f:d7:f3:92:b3:80:8d:92:cf:9e:2b:
                    47:ad:c4:fa:f0:c7:b2:25:40:bc:41:0a:90:61:0f:
                    bc:58:ae:51:d3:61:0c:3d:05:21:d0:29:01:5d:b8:
                    51:0a:86:cc:fb:12:58:b2:38:0f:4e:d6:fe:d5:e9:
                    d8:1d:ae:06:b4:08:e1:0a:17:4f:20:7a:8c:9c:69:
                    2c:74:0e:be:21:d5:63:3e:3f:45:7f:9c:8f:64:ca:
                    b8:f0:9f:b1:29:b9:73:68:19:a1:be:02:45:1d:66:
                    dc:b2:6c:0b:7c:40:78:02:28:06:40:46:7c:f9:d6:
                    8c:f5:8a:bc:82:2f:42:6e:fb:80:81:36:d9:d3:56:
                    26:39:b7:c7:70:6c:f0:b4:01:60:38:6d:1f:92:1a:
                    13:f0:10:11:ec:7d:7a:15:1d:de:03:40:76:fc:42:
                    1e:1c:bf:db:78:e3:cf:11:7c:4f:bd:e5:84:9d:29:
                    5f:b2:77
                Exponent: 65537 (0x10001)
        X509v3 extensions:
            X509v3 Basic Constraints: 
                CA:FALSE
            Netscape Comment: 
                Easy-RSA Generated Certificate
            X509v3 Subject Key Identifier: 
                E3:4D:8E:8D:96:3E:DD:2C:CA:AC:84:2A:C1:44:B9:CB:83:57:3A:E8
            X509v3 Authority Key Identifier: 
                keyid:12:CD:60:04:D2:A0:80:9E:70:ED:C6:99:B8:7B:2C:C6:52:FD:19:A1
                DirName:/C=US/ST=OH/L=Columbus/O=VikingVPN/OU=MyOrganizationalUnit/CN=VikingVPN CA/name=EasyRSA/emailAddress=me@myhost.mydomain
                serial:CF:35:85:EE:80:BF:2A:3E

            X509v3 Extended Key Usage: 
                TLS Web Client Authentication
            X509v3 Key Usage: 
                Digital Signature
    Signature Algorithm: md5WithRSAEncryption
         32:40:db:c2:3e:c5:83:5d:af:e7:e7:21:a9:91:a4:ea:fe:a7:
         cd:4c:03:6f:a2:1a:bf:02:e0:01:11:13:55:38:1d:92:16:a7:
         c0:2c:e4:3b:cc:fe:67:6a:e7:7a:c7:3b:5d:17:3f:21:50:c6:
         81:9b:81:dd:56:8a:ff:aa:cd:4f:b5:01:ac:1d:c0:97:97:10:
         fb:b5:f3:16:8f:7e:38:c1:d4:1b:1d:c6:ea:b2:f2:af:fc:a7:
         5c:d8:05:d6:1a:59:0b:cc:82:ee:eb:5e:bf:de:b4:7b:f1:c8:
         82:14:b6:de:8f:e1:e6:b9:12:b2:97:cd:24:b1:92:92:0b:00:
         43:1c:5d:47:31:57:28:ea:17:48:82:06:cd:2b:c6:b4:09:4e:
         f9:83:cb:75:9e:f1:27:8b:60:e6:c6:c9:d6:22:a4:a5:6d:e6:
         ea:f7:b9:52:57:8d:ff:0e:03:b9:ba:3a:b8:9f:38:cf:85:63:
         59:fa:53:fd:3d:b0:93:ea:77:c4:59:77:48:a4:00:19:5c:c0:
         6a:5c:42:f7:82:40:b5:61:d7:76:fb:c9:57:ab:2e:03:dc:d7:
         3d:ca:68:66:ea:0c:68:be:b1:3c:3b:01:8d:16:c3:a9:00:5b:
         90:43:08:1f:e2:2f:d2:9b:ac:77:ba:57:8f:79:2d:2e:54:81:
         1b:32:c4:1c:42:68:9b:d2:bb:81:1d:b5:19:cc:c2:e3:a9:bd:
         a4:2e:62:20:be:12:7e:8e:ef:61:52:d5:31:55:4b:04:b1:27:
         93:3a:6a:fa:fc:d7:20:e0:a6:5d:ab:10:07:aa:15:ec:88:60:
         eb:83:e0:58:2c:e7:0f:e3:29:7e:03:85:df:fa:da:16:7f:51:
         aa:0e:53:44:da:ad:99:d1:b8:8a:c9:00:dd:e7:26:ff:63:da:
         23:fb:ef:6d:48:30:c9:d4:1d:ed:86:32:f2:ff:19:f8:5e:d5:
         ef:a8:23:0e:05:04:b1:1c:f1:2f:5e:01:6b:55:9e:7f:c6:f2:
         96:25:c8:70:dd:a6:1c:da:70:1a:01:ed:6b:73:a5:67:70:e8:
         ea:dd:e0:81:29:3a:84:8a:a4:ed:07:82:e3:a4:f6:7e:57:a3:
         40:51:d2:49:86:bb:6f:81:93:1b:81:7b:9d:66:2f:73:aa:2c:
         45:72:25:d4:7c:22:ae:bb:ff:91:fd:5b:c4:32:e4:07:c4:9d:
         dd:35:78:a5:2d:e4:74:d1:ae:90:f8:22:14:b4:79:e7:4e:f6:
         2e:cc:0f:07:21:c9:6b:70:76:73:e0:9c:70:47:14:ce:0c:17:
         5e:7b:bc:5e:7c:97:3b:2f:29:83:b3:f5:77:91:f7:79:db:d4:
         df:63:cd:db:f2:c0:8e:7b
-----BEGIN CERTIFICATE-----
MIIGrDCCBJSgAwIBAgICC3YwDQYJKoZIhvcNAQEEBQAwgawxCzAJBgNVBAYTAlVT
MQswCQYDVQQIEwJPSDERMA8GA1UEBxMIQ29sdW1idXMxEjAQBgNVBAoTCVZpa2lu
Z1ZQTjEdMBsGA1UECxMUTXlPcmdhbml6YXRpb25hbFVuaXQxFTATBgNVBAMTDFZp
a2luZ1ZQTiBDQTEQMA4GA1UEKRMHRWFzeVJTQTEhMB8GCSqGSIb3DQEJARYSbWVA
bXlob3N0Lm15ZG9tYWluMB4XDTE0MDkyNDAxMzY1OVoXDTI0MDkyMTAxMzY1OVow
HjEcMBoGA1UEAxMTQ2xpZW50OTk2Q2VydDQ3OGFjZTCCAiIwDQYJKoZIhvcNAQEB
BQADggIPADCCAgoCggIBAMCiQFDnKYH2yZ1scJhv25pJSyjqVWmtFm5ouMjHMLEg
dj8eieHq5gTkG5znnSY/SaZ8OQyzHhkR8Uh5eMvOiVj+oRepb9nEORmtmS28LjWq
kRheulyV4updOqS17F0qf07MKD7lbK7eXKXvElasA+RZWNOjIsgISXW5DL1244UO
7qC0No45axE1YFGSIJgNG+jL3wGBZI6LFXr9of99EC7/LRbIzhUeHRIMz5QOPRht
Yf397LFKMSDksSlrngdwUSIPa77F58If7OnF57juAq/rZURrEI3/MszgdXMFvBQ4
h2viO4Qu/i8HvrHcfZcdOJmpmLn49TQrh5yxX1sfasgpkQZbVff4Gqa1LXmQ7k7+
sd/1KmiG5vF8xnOdOBc0oNS4I7NTGlEs/PK2HHvVx2Pm66+t2VWxcB8toW+LfA+d
dLBEclCoNdU0dS63US/X85KzgI2Sz54rR63E+vDHsiVAvEEKkGEPvFiuUdNhDD0F
IdApAV24UQqGzPsSWLI4D07W/tXp2B2uBrQI4QoXTyB6jJxpLHQOviHVYz4/RX+c
j2TKuPCfsSm5c2gZob4CRR1m3LJsC3xAeAIoBkBGfPnWjPWKvIIvQm77gIE22dNW
Jjm3x3Bs8LQBYDhtH5IaE/AQEex9ehUd3gNAdvxCHhy/23jjzxF8T73lhJ0pX7J3
AgMBAAGjggFjMIIBXzAJBgNVHRMEAjAAMC0GCWCGSAGG+EIBDQQgFh5FYXN5LVJT
QSBHZW5lcmF0ZWQgQ2VydGlmaWNhdGUwHQYDVR0OBBYEFONNjo2WPt0syqyEKsFE
ucuDVzroMIHhBgNVHSMEgdkwgdaAFBLNYATSoICecO3Gmbh7LMZS/RmhoYGypIGv
MIGsMQswCQYDVQQGEwJVUzELMAkGA1UECBMCT0gxETAPBgNVBAcTCENvbHVtYnVz
MRIwEAYDVQQKEwlWaWtpbmdWUE4xHTAbBgNVBAsTFE15T3JnYW5pemF0aW9uYWxV
bml0MRUwEwYDVQQDEwxWaWtpbmdWUE4gQ0ExEDAOBgNVBCkTB0Vhc3lSU0ExITAf
BgkqhkiG9w0BCQEWEm1lQG15aG9zdC5teWRvbWFpboIJAM81he6Avyo+MBMGA1Ud
JQQMMAoGCCsGAQUFBwMCMAsGA1UdDwQEAwIHgDANBgkqhkiG9w0BAQQFAAOCAgEA
MkDbwj7Fg12v5+chqZGk6v6nzUwDb6IavwLgARETVTgdkhanwCzkO8z+Z2rnesc7
XRc/IVDGgZuB3VaK/6rNT7UBrB3Al5cQ+7XzFo9+OMHUGx3G6rLyr/ynXNgF1hpZ
C8yC7utev960e/HIghS23o/h5rkSspfNJLGSkgsAQxxdRzFXKOoXSIIGzSvGtAlO
+YPLdZ7xJ4tg5sbJ1iKkpW3m6ve5UleN/w4Dubo6uJ84z4VjWfpT/T2wk+p3xFl3
SKQAGVzAalxC94JAtWHXdvvJV6suA9zXPcpoZuoMaL6xPDsBjRbDqQBbkEMIH+Iv
0pusd7pXj3ktLlSBGzLEHEJom9K7gR21GczC46m9pC5iIL4Sfo7vYVLVMVVLBLEn
kzpq+vzXIOCmXasQB6oV7Ihg64PgWCznD+MpfgOF3/raFn9Rqg5TRNqtmdG4iskA
3ecm/2PaI/vvbUgwydQd7YYy8v8Z+F7V76gjDgUEsRzxL14Ba1Wef8byliXIcN2m
HNpwGgHta3OlZ3Do6t3ggSk6hIqk7QeC46T2flejQFHSSYa7b4GTG4F7nWYvc6os
RXIl1Hwirrv/kf1bxDLkB8Sd3TV4pS3kdNGukPgiFLR55072LswPByHJa3B2c+Cc
cEcUzgwXXnu8XnyXOy8pg7P1d5H3edvU32PN2/LAjns=
-----END CERTIFICATE-----
