Certificate:
    Data:
        Version: 3 (0x2)
        Serial Number: 2950 (0xb86)
    Signature Algorithm: md5WithRSAEncryption
        Issuer: C=US, ST=OH, L=Columbus, O=VikingVPN, OU=MyOrganizationalUnit, CN=VikingVPN CA/name=EasyRSA/emailAddress=me@myhost.mydomain
        Validity
            Not Before: Sep 24 21:22:55 2014 GMT
            Not After : Sep 21 21:22:55 2024 GMT
        Subject: CN=Client603Cert1ee51a
        Subject Public Key Info:
            Public Key Algorithm: rsaEncryption
                Public-Key: (4096 bit)
                Modulus:
                    00:cc:eb:73:a4:7b:46:b2:ac:f8:63:d9:6e:15:86:
                    e6:c5:c6:59:21:05:a6:de:d9:33:44:3d:6c:da:0d:
                    89:9f:45:36:c5:ef:e0:3a:f5:3e:b7:8b:0f:9a:c3:
                    46:2f:f2:0a:a8:f7:85:2d:0f:f6:f5:21:19:e0:65:
                    e6:29:ec:46:3a:eb:da:73:0f:c9:49:80:fa:d7:ae:
                    35:a0:f0:3a:61:57:69:eb:3f:1a:48:f1:45:b4:7e:
                    ec:23:f6:73:7e:64:11:31:d8:91:8f:56:e7:35:a7:
                    71:c7:d1:e5:ba:fc:1b:5c:00:94:9a:0a:d5:e2:74:
                    59:47:4c:be:d5:9c:46:f3:f8:0e:f2:8c:0b:cd:30:
                    71:14:a3:cd:ce:55:f9:75:48:b2:8d:8e:1c:c5:fd:
                    cf:a4:dc:34:2f:31:10:a9:42:37:ea:03:c3:e8:d0:
                    a6:80:4f:ae:b3:e3:b3:a1:dc:ec:7e:ff:b7:58:d7:
                    fe:af:1b:67:c8:e9:43:97:d0:d2:2d:9b:ab:1c:f4:
                    b7:9b:bf:66:03:c8:2a:d6:86:d9:9e:d3:d0:59:45:
                    ee:6b:85:6b:08:01:d3:8f:23:fa:0a:e3:ca:dc:67:
                    54:c1:15:ff:10:0f:2e:fd:30:21:ca:88:7c:b5:40:
                    70:3b:39:3f:a3:f7:e8:6f:0f:e7:06:9e:43:7c:46:
                    7c:36:24:02:0a:8b:b9:c4:62:38:b3:cf:b4:99:ad:
                    8c:42:43:71:cc:00:04:66:85:31:4b:78:4f:8a:61:
                    fc:2c:82:9f:72:67:63:f3:38:88:dd:df:0c:03:9d:
                    4d:86:d6:70:bc:4b:ad:f9:dd:f7:ce:58:24:5d:b2:
                    2c:f5:a1:cb:fe:ad:a5:6d:20:e2:5f:7c:50:e7:72:
                    1f:6f:2d:77:cf:23:f2:b8:85:73:c8:47:ba:af:45:
                    36:cb:19:d4:35:22:f3:be:82:7f:03:71:6e:b3:96:
                    2b:87:d4:c5:18:c1:54:e8:99:9b:cf:51:7e:dc:79:
                    9c:97:99:93:01:fb:b9:a0:45:de:74:bd:c0:6a:ca:
                    77:b9:c2:58:dc:c6:b5:97:69:2d:d0:a1:1d:7b:30:
                    6e:2d:3b:b3:ae:2a:96:37:12:9f:20:7b:ce:86:cc:
                    f5:de:84:27:7b:b8:e0:93:3e:f5:27:13:d1:8e:a3:
                    d2:27:56:90:e7:62:25:c5:8b:a1:2e:fe:fd:9d:ac:
                    10:38:75:62:c1:28:5c:6e:a0:09:96:0e:03:f8:98:
                    46:49:73:6f:0b:3f:64:a5:62:46:1d:76:14:78:d9:
                    be:cb:80:dc:b0:3f:84:63:0d:db:52:b9:43:57:67:
                    dc:72:95:5a:a7:bd:bd:88:a2:f5:91:a3:83:11:ae:
                    1e:bb:71
                Exponent: 65537 (0x10001)
        X509v3 extensions:
            X509v3 Basic Constraints: 
                CA:FALSE
            Netscape Comment: 
                Easy-RSA Generated Certificate
            X509v3 Subject Key Identifier: 
                00:2D:3B:45:CB:F4:9B:7B:DF:38:9E:C7:77:80:83:54:5F:F7:14:83
            X509v3 Authority Key Identifier: 
                keyid:12:CD:60:04:D2:A0:80:9E:70:ED:C6:99:B8:7B:2C:C6:52:FD:19:A1
                DirName:/C=US/ST=OH/L=Columbus/O=VikingVPN/OU=MyOrganizationalUnit/CN=VikingVPN CA/name=EasyRSA/emailAddress=me@myhost.mydomain
                serial:CF:35:85:EE:80:BF:2A:3E

            X509v3 Extended Key Usage: 
                TLS Web Client Authentication
            X509v3 Key Usage: 
                Digital Signature
    Signature Algorithm: md5WithRSAEncryption
         c6:ba:16:1a:4f:73:00:39:53:a5:92:9e:d9:de:5f:5e:8b:d6:
         52:43:fe:cc:cb:8a:d6:96:be:15:14:8a:4c:65:10:33:c3:3e:
         0c:8c:77:59:59:13:38:59:38:e9:8c:ce:5e:0f:c7:c5:8c:a8:
         42:1f:62:fe:74:19:41:24:f4:2a:cf:8b:74:5f:07:51:d2:e9:
         70:97:33:9d:ee:34:05:85:8f:da:a9:f5:05:2a:b6:81:bb:e7:
         07:03:8a:2a:9c:c5:cc:a4:7c:fc:1a:ca:74:36:2b:37:cf:37:
         4e:78:ed:38:cb:79:4f:81:56:7d:c1:30:82:be:ca:78:f3:e0:
         14:2a:ca:fc:a2:67:9b:f9:3d:7d:94:3c:28:b5:c1:c2:8c:6c:
         83:ba:64:97:29:36:23:c0:57:e8:27:60:05:9c:cf:ee:e1:99:
         8e:6d:ec:7e:1d:5d:44:81:eb:61:2b:2e:d1:46:65:8e:5b:1b:
         1c:f6:34:82:47:88:c4:c3:62:9e:d5:e8:eb:b9:40:2b:8c:ca:
         e0:0f:b7:b8:48:79:88:6b:ab:54:c8:54:7c:a4:5c:7f:ab:fe:
         53:04:ae:64:47:78:d9:f9:0b:d3:38:54:30:2e:ac:bb:fa:27:
         28:3a:a4:ca:e7:f3:8d:1f:a8:34:34:65:49:a3:ec:0d:d9:09:
         53:6b:2d:8d:01:0b:ca:ea:31:76:0e:b8:00:4e:79:b7:62:39:
         2e:9e:69:32:69:4c:2a:63:d8:98:98:a1:2f:fb:18:e3:88:11:
         48:f1:b8:34:31:67:4e:51:bc:58:22:eb:86:94:a3:51:d5:05:
         24:dc:71:19:ca:e7:b4:a5:04:dd:07:7b:9e:53:0f:3d:16:bc:
         37:90:60:fc:5b:aa:2e:cf:fd:33:8a:7a:6c:88:ec:ed:85:72:
         94:d4:21:ad:45:55:e8:92:74:b8:94:62:01:e0:ba:46:e1:23:
         b3:2a:a4:e9:aa:e3:47:b7:b0:69:93:f5:e3:85:4e:31:3e:50:
         8d:ea:90:d7:1e:e8:e2:77:8a:2b:e5:db:0c:cd:84:63:49:05:
         00:70:c9:4e:f5:83:bd:a6:3e:bb:11:23:74:e4:be:b5:81:22:
         02:66:c9:62:30:c1:6d:6a:fc:f7:79:8f:ce:12:00:73:b0:00:
         a1:e9:09:cf:41:b3:de:fd:29:10:7e:21:49:f1:ef:51:bd:8e:
         cb:84:47:1c:e6:3b:ac:68:be:fa:43:29:64:28:f2:57:75:af:
         a5:00:a3:f2:95:57:20:00:f9:26:9d:27:33:9f:30:c2:1a:71:
         cd:72:bc:db:ae:3c:67:f4:02:2a:a8:0e:04:c6:57:77:43:7b:
         89:9f:ff:01:0e:f8:c4:39
-----BEGIN CERTIFICATE-----
MIIGrDCCBJSgAwIBAgICC4YwDQYJKoZIhvcNAQEEBQAwgawxCzAJBgNVBAYTAlVT
MQswCQYDVQQIEwJPSDERMA8GA1UEBxMIQ29sdW1idXMxEjAQBgNVBAoTCVZpa2lu
Z1ZQTjEdMBsGA1UECxMUTXlPcmdhbml6YXRpb25hbFVuaXQxFTATBgNVBAMTDFZp
a2luZ1ZQTiBDQTEQMA4GA1UEKRMHRWFzeVJTQTEhMB8GCSqGSIb3DQEJARYSbWVA
bXlob3N0Lm15ZG9tYWluMB4XDTE0MDkyNDIxMjI1NVoXDTI0MDkyMTIxMjI1NVow
HjEcMBoGA1UEAxMTQ2xpZW50NjAzQ2VydDFlZTUxYTCCAiIwDQYJKoZIhvcNAQEB
BQADggIPADCCAgoCggIBAMzrc6R7RrKs+GPZbhWG5sXGWSEFpt7ZM0Q9bNoNiZ9F
NsXv4Dr1PreLD5rDRi/yCqj3hS0P9vUhGeBl5insRjrr2nMPyUmA+teuNaDwOmFX
aes/GkjxRbR+7CP2c35kETHYkY9W5zWnccfR5br8G1wAlJoK1eJ0WUdMvtWcRvP4
DvKMC80wcRSjzc5V+XVIso2OHMX9z6TcNC8xEKlCN+oDw+jQpoBPrrPjs6Hc7H7/
t1jX/q8bZ8jpQ5fQ0i2bqxz0t5u/ZgPIKtaG2Z7T0FlF7muFawgB048j+grjytxn
VMEV/xAPLv0wIcqIfLVAcDs5P6P36G8P5waeQ3xGfDYkAgqLucRiOLPPtJmtjEJD
ccwABGaFMUt4T4ph/CyCn3JnY/M4iN3fDAOdTYbWcLxLrfnd985YJF2yLPWhy/6t
pW0g4l98UOdyH28td88j8riFc8hHuq9FNssZ1DUi876CfwNxbrOWK4fUxRjBVOiZ
m89Rftx5nJeZkwH7uaBF3nS9wGrKd7nCWNzGtZdpLdChHXswbi07s64qljcSnyB7
zobM9d6EJ3u44JM+9ScT0Y6j0idWkOdiJcWLoS7+/Z2sEDh1YsEoXG6gCZYOA/iY
Rklzbws/ZKViRh12FHjZvsuA3LA/hGMN21K5Q1dn3HKVWqe9vYii9ZGjgxGuHrtx
AgMBAAGjggFjMIIBXzAJBgNVHRMEAjAAMC0GCWCGSAGG+EIBDQQgFh5FYXN5LVJT
QSBHZW5lcmF0ZWQgQ2VydGlmaWNhdGUwHQYDVR0OBBYEFAAtO0XL9Jt73ziex3eA
g1Rf9xSDMIHhBgNVHSMEgdkwgdaAFBLNYATSoICecO3Gmbh7LMZS/RmhoYGypIGv
MIGsMQswCQYDVQQGEwJVUzELMAkGA1UECBMCT0gxETAPBgNVBAcTCENvbHVtYnVz
MRIwEAYDVQQKEwlWaWtpbmdWUE4xHTAbBgNVBAsTFE15T3JnYW5pemF0aW9uYWxV
bml0MRUwEwYDVQQDEwxWaWtpbmdWUE4gQ0ExEDAOBgNVBCkTB0Vhc3lSU0ExITAf
BgkqhkiG9w0BCQEWEm1lQG15aG9zdC5teWRvbWFpboIJAM81he6Avyo+MBMGA1Ud
JQQMMAoGCCsGAQUFBwMCMAsGA1UdDwQEAwIHgDANBgkqhkiG9w0BAQQFAAOCAgEA
xroWGk9zADlTpZKe2d5fXovWUkP+zMuK1pa+FRSKTGUQM8M+DIx3WVkTOFk46YzO
Xg/HxYyoQh9i/nQZQST0Ks+LdF8HUdLpcJczne40BYWP2qn1BSq2gbvnBwOKKpzF
zKR8/BrKdDYrN883TnjtOMt5T4FWfcEwgr7KePPgFCrK/KJnm/k9fZQ8KLXBwoxs
g7pklyk2I8BX6CdgBZzP7uGZjm3sfh1dRIHrYSsu0UZljlsbHPY0gkeIxMNintXo
67lAK4zK4A+3uEh5iGurVMhUfKRcf6v+UwSuZEd42fkL0zhUMC6su/onKDqkyufz
jR+oNDRlSaPsDdkJU2stjQELyuoxdg64AE55t2I5Lp5pMmlMKmPYmJihL/sY44gR
SPG4NDFnTlG8WCLrhpSjUdUFJNxxGcrntKUE3Qd7nlMPPRa8N5Bg/FuqLs/9M4p6
bIjs7YVylNQhrUVV6JJ0uJRiAeC6RuEjsyqk6arjR7ewaZP144VOMT5QjeqQ1x7o
4neKK+XbDM2EY0kFAHDJTvWDvaY+uxEjdOS+tYEiAmbJYjDBbWr893mPzhIAc7AA
oekJz0Gz3v0pEH4hSfHvUb2Oy4RHHOY7rGi++kMpZCjyV3WvpQCj8pVXIAD5Jp0n
M58wwhpxzXK82648Z/QCKqgOBMZXd0N7iZ//AQ74xDk=
-----END CERTIFICATE-----
