Certificate:
    Data:
        Version: 3 (0x2)
        Serial Number: 2974 (0xb9e)
    Signature Algorithm: md5WithRSAEncryption
        Issuer: C=US, ST=OH, L=Columbus, O=VikingVPN, OU=MyOrganizationalUnit, CN=VikingVPN CA/name=EasyRSA/emailAddress=me@myhost.mydomain
        Validity
            Not Before: Sep 26 23:40:00 2014 GMT
            Not After : Sep 23 23:40:00 2024 GMT
        Subject: CN=Client1020Cert499a1c
        Subject Public Key Info:
            Public Key Algorithm: rsaEncryption
                Public-Key: (4096 bit)
                Modulus:
                    00:c9:be:c0:ee:71:01:a6:38:77:26:00:53:24:2f:
                    fe:22:2c:00:c3:9a:12:29:2d:45:bf:92:2d:16:de:
                    5f:de:f5:37:98:6f:1d:8f:79:16:c7:8a:62:b1:e2:
                    50:17:60:90:f4:90:dc:af:c7:cc:dc:1b:1e:23:c8:
                    7b:90:a2:5b:19:94:d4:e5:1b:e7:d1:74:d3:75:29:
                    c3:49:4a:51:2c:42:7b:be:b2:35:10:d4:6a:5a:01:
                    b7:66:3e:47:cb:29:d7:ce:18:b0:89:70:77:81:ee:
                    fe:fb:4c:d2:a6:5a:0d:9e:81:4a:55:75:60:48:0b:
                    48:d3:98:a9:f3:8b:60:b3:2a:da:5a:8a:ff:e6:ea:
                    fa:10:f0:0c:f9:f3:01:f5:d6:19:36:3f:6b:c4:92:
                    4a:6a:96:6a:ed:40:76:a2:da:9a:03:53:16:52:91:
                    c0:f2:8e:0e:51:19:6d:8d:34:a0:0b:f4:d5:b7:a3:
                    c1:d6:75:27:e8:ff:6d:51:62:ee:4a:a7:4f:10:32:
                    f4:e5:7c:6b:d3:6a:20:73:d0:7c:9e:98:a1:3a:bc:
                    98:d8:cb:cb:09:d6:1b:a2:6d:f5:68:73:f9:55:9d:
                    24:b6:26:1a:cd:12:48:f7:48:86:a6:3c:94:ab:b6:
                    ff:ab:33:88:56:dd:aa:55:58:79:93:80:d4:ed:8e:
                    d2:52:5d:76:97:57:33:7a:56:6e:d1:02:44:c2:5c:
                    86:37:26:82:be:7b:7c:e8:97:e0:2b:35:92:cb:62:
                    44:72:70:01:3f:b2:b7:5c:42:4b:c6:15:66:00:4f:
                    b8:74:93:38:50:3d:6a:9b:41:21:19:6e:a0:59:87:
                    0c:33:64:bf:44:86:8d:3e:5c:60:11:d8:ec:9a:d4:
                    9f:58:24:3f:6c:99:4a:13:5f:de:1e:f8:74:3d:8b:
                    05:ec:03:7f:74:67:10:3f:24:a5:8b:37:9f:39:28:
                    96:52:3a:da:5d:7e:cf:00:c1:ca:3f:d9:f9:bb:2c:
                    a3:d5:c4:48:ed:f9:e6:ab:12:56:09:c8:af:a9:a5:
                    18:21:29:3f:58:34:2a:8d:59:ac:8a:26:79:da:4a:
                    13:49:a5:07:b3:a2:98:77:ae:e0:79:86:b7:df:75:
                    1b:5c:b3:e8:d9:f2:0c:ad:00:5b:c6:89:ed:8a:7b:
                    e6:39:b1:da:89:b9:82:59:df:c7:7d:f1:10:61:d1:
                    50:eb:8b:60:45:bc:a0:4a:cc:cf:21:9e:6d:f0:cc:
                    75:f1:eb:56:ed:da:6d:9b:8d:9f:8f:1c:c3:e8:1a:
                    54:f6:66:72:65:87:e0:41:01:36:96:55:6c:78:b3:
                    46:ac:33:4a:57:52:d7:19:50:26:71:be:14:4c:45:
                    78:ad:e5
                Exponent: 65537 (0x10001)
        X509v3 extensions:
            X509v3 Basic Constraints: 
                CA:FALSE
            Netscape Comment: 
                Easy-RSA Generated Certificate
            X509v3 Subject Key Identifier: 
                5F:09:D0:B3:21:11:CA:E3:30:E2:4E:F9:F7:C2:49:10:AE:30:72:DC
            X509v3 Authority Key Identifier: 
                keyid:12:CD:60:04:D2:A0:80:9E:70:ED:C6:99:B8:7B:2C:C6:52:FD:19:A1
                DirName:/C=US/ST=OH/L=Columbus/O=VikingVPN/OU=MyOrganizationalUnit/CN=VikingVPN CA/name=EasyRSA/emailAddress=me@myhost.mydomain
                serial:CF:35:85:EE:80:BF:2A:3E

            X509v3 Extended Key Usage: 
                TLS Web Client Authentication
            X509v3 Key Usage: 
                Digital Signature
    Signature Algorithm: md5WithRSAEncryption
         2f:b0:97:6f:aa:dd:07:73:31:f1:16:6c:20:97:0f:11:eb:2d:
         78:f4:f3:3b:9f:d2:e9:b4:7f:d8:fa:bc:b8:31:4f:f3:19:1d:
         98:97:bc:6f:5d:b1:4a:8a:ee:0f:ca:c5:37:2d:58:b0:31:c7:
         f6:0e:6e:b2:3c:53:01:7f:a2:05:62:3a:d7:31:8e:41:ea:44:
         ff:be:0c:27:7c:16:1c:22:8e:38:39:3a:dd:7c:71:26:df:1b:
         54:59:64:83:67:03:a0:68:62:57:aa:f8:c9:8a:10:a0:86:45:
         1f:d1:e8:e1:7b:e2:7e:45:62:b7:74:d2:d7:ee:3c:d7:af:80:
         2d:13:3e:06:bd:3c:09:38:8c:83:0f:2d:4f:b2:39:11:e7:a8:
         f7:4a:29:3c:a8:5c:17:87:97:5d:d7:56:07:95:26:23:2c:ed:
         81:d4:03:77:17:8f:39:8b:bf:b3:d8:6a:1b:1e:6e:2a:4a:28:
         56:ff:1d:3a:79:a9:79:b9:8a:a7:0c:5c:13:6d:45:22:fd:7c:
         0f:3d:b9:e5:14:c7:14:d8:dd:d9:e7:a4:32:c9:b3:84:3d:81:
         13:13:b7:f7:9f:aa:d4:9a:46:1a:4a:f0:cb:d6:02:54:96:b7:
         10:91:e2:cc:dc:1f:78:2d:ba:82:33:60:b5:ee:56:ae:60:da:
         54:c4:d4:c9:d7:4b:95:9a:b9:13:0a:76:54:10:2a:a7:84:40:
         67:3e:b0:41:74:7d:02:ea:ac:e5:0b:6e:1b:00:f7:97:5a:d8:
         d4:ac:85:e4:42:f3:02:2e:fb:f0:df:54:d7:8e:35:ef:ba:e1:
         1d:a5:5e:fc:70:0d:18:32:fc:d1:7d:1c:b3:fe:04:3f:6f:c7:
         50:9b:2b:e2:01:dc:a9:a3:b8:94:c8:ad:6b:5e:18:65:fa:04:
         65:3e:b5:2c:95:fe:4b:e2:3f:43:2a:65:d5:91:6a:66:1d:ca:
         89:7b:ec:6f:1a:02:35:80:07:97:e8:7e:39:df:34:00:39:24:
         50:7f:90:1a:57:47:40:9b:23:15:06:61:57:d1:70:5e:60:8b:
         b1:00:d6:4f:cf:fd:d0:a6:e6:56:4b:d0:0f:c0:9e:ae:77:b2:
         1d:b4:d3:b8:6e:90:69:77:94:d2:8a:91:83:f6:bf:bb:91:a7:
         89:be:17:50:a7:c1:f2:38:d3:db:8a:57:f1:36:a1:0c:92:6d:
         b9:6c:cd:a1:0d:bd:f5:95:a4:2a:bf:61:d4:fc:50:67:5a:17:
         5c:b9:83:05:9a:ee:94:ab:bb:ba:62:2f:36:15:e9:73:b8:94:
         e1:28:2e:8f:b8:54:51:98:55:57:41:c1:3a:ca:e1:4e:f4:58:
         00:58:41:56:d4:ee:27:22
-----BEGIN CERTIFICATE-----
MIIGrTCCBJWgAwIBAgICC54wDQYJKoZIhvcNAQEEBQAwgawxCzAJBgNVBAYTAlVT
MQswCQYDVQQIEwJPSDERMA8GA1UEBxMIQ29sdW1idXMxEjAQBgNVBAoTCVZpa2lu
Z1ZQTjEdMBsGA1UECxMUTXlPcmdhbml6YXRpb25hbFVuaXQxFTATBgNVBAMTDFZp
a2luZ1ZQTiBDQTEQMA4GA1UEKRMHRWFzeVJTQTEhMB8GCSqGSIb3DQEJARYSbWVA
bXlob3N0Lm15ZG9tYWluMB4XDTE0MDkyNjIzNDAwMFoXDTI0MDkyMzIzNDAwMFow
HzEdMBsGA1UEAxMUQ2xpZW50MTAyMENlcnQ0OTlhMWMwggIiMA0GCSqGSIb3DQEB
AQUAA4ICDwAwggIKAoICAQDJvsDucQGmOHcmAFMkL/4iLADDmhIpLUW/ki0W3l/e
9TeYbx2PeRbHimKx4lAXYJD0kNyvx8zcGx4jyHuQolsZlNTlG+fRdNN1KcNJSlEs
Qnu+sjUQ1GpaAbdmPkfLKdfOGLCJcHeB7v77TNKmWg2egUpVdWBIC0jTmKnzi2Cz
Ktpaiv/m6voQ8Az58wH11hk2P2vEkkpqlmrtQHai2poDUxZSkcDyjg5RGW2NNKAL
9NW3o8HWdSfo/21RYu5Kp08QMvTlfGvTaiBz0HyemKE6vJjYy8sJ1huibfVoc/lV
nSS2JhrNEkj3SIamPJSrtv+rM4hW3apVWHmTgNTtjtJSXXaXVzN6Vm7RAkTCXIY3
JoK+e3zol+ArNZLLYkRycAE/srdcQkvGFWYAT7h0kzhQPWqbQSEZbqBZhwwzZL9E
ho0+XGAR2Oya1J9YJD9smUoTX94e+HQ9iwXsA390ZxA/JKWLN585KJZSOtpdfs8A
wco/2fm7LKPVxEjt+earElYJyK+ppRghKT9YNCqNWayKJnnaShNJpQezoph3ruB5
hrffdRtcs+jZ8gytAFvGie2Ke+Y5sdqJuYJZ38d98RBh0VDri2BFvKBKzM8hnm3w
zHXx61bt2m2bjZ+PHMPoGlT2ZnJlh+BBATaWVWx4s0asM0pXUtcZUCZxvhRMRXit
5QIDAQABo4IBYzCCAV8wCQYDVR0TBAIwADAtBglghkgBhvhCAQ0EIBYeRWFzeS1S
U0EgR2VuZXJhdGVkIENlcnRpZmljYXRlMB0GA1UdDgQWBBRfCdCzIRHK4zDiTvn3
wkkQrjBy3DCB4QYDVR0jBIHZMIHWgBQSzWAE0qCAnnDtxpm4eyzGUv0ZoaGBsqSB
rzCBrDELMAkGA1UEBhMCVVMxCzAJBgNVBAgTAk9IMREwDwYDVQQHEwhDb2x1bWJ1
czESMBAGA1UEChMJVmlraW5nVlBOMR0wGwYDVQQLExRNeU9yZ2FuaXphdGlvbmFs
VW5pdDEVMBMGA1UEAxMMVmlraW5nVlBOIENBMRAwDgYDVQQpEwdFYXN5UlNBMSEw
HwYJKoZIhvcNAQkBFhJtZUBteWhvc3QubXlkb21haW6CCQDPNYXugL8qPjATBgNV
HSUEDDAKBggrBgEFBQcDAjALBgNVHQ8EBAMCB4AwDQYJKoZIhvcNAQEEBQADggIB
AC+wl2+q3QdzMfEWbCCXDxHrLXj08zuf0um0f9j6vLgxT/MZHZiXvG9dsUqK7g/K
xTctWLAxx/YObrI8UwF/ogViOtcxjkHqRP++DCd8Fhwijjg5Ot18cSbfG1RZZINn
A6BoYleq+MmKEKCGRR/R6OF74n5FYrd00tfuPNevgC0TPga9PAk4jIMPLU+yORHn
qPdKKTyoXBeHl13XVgeVJiMs7YHUA3cXjzmLv7PYahsebipKKFb/HTp5qXm5iqcM
XBNtRSL9fA89ueUUxxTY3dnnpDLJs4Q9gRMTt/efqtSaRhpK8MvWAlSWtxCR4szc
H3gtuoIzYLXuVq5g2lTE1MnXS5WauRMKdlQQKqeEQGc+sEF0fQLqrOULbhsA95da
2NSsheRC8wIu+/DfVNeONe+64R2lXvxwDRgy/NF9HLP+BD9vx1CbK+IB3KmjuJTI
rWteGGX6BGU+tSyV/kviP0MqZdWRamYdyol77G8aAjWAB5fofjnfNAA5JFB/kBpX
R0CbIxUGYVfRcF5gi7EA1k/P/dCm5lZL0A/Anq53sh2007hukGl3lNKKkYP2v7uR
p4m+F1CnwfI409uKV/E2oQySbblszaENvfWVpCq/YdT8UGdaF1y5gwWa7pSru7pi
LzYV6XO4lOEoLo+4VFGYVVdBwTrK4U70WABYQVbU7ici
-----END CERTIFICATE-----
