Certificate:
    Data:
        Version: 3 (0x2)
        Serial Number: 2979 (0xba3)
    Signature Algorithm: md5WithRSAEncryption
        Issuer: C=US, ST=OH, L=Columbus, O=VikingVPN, OU=MyOrganizationalUnit, CN=VikingVPN CA/name=EasyRSA/emailAddress=me@myhost.mydomain
        Validity
            Not Before: Sep 28 00:59:30 2014 GMT
            Not After : Sep 25 00:59:30 2024 GMT
        Subject: CN=Client1023Cert92e788
        Subject Public Key Info:
            Public Key Algorithm: rsaEncryption
                Public-Key: (4096 bit)
                Modulus:
                    00:d8:61:67:a2:3d:d8:89:8e:1a:b1:ca:4f:17:f7:
                    61:db:69:bb:f4:6c:bd:ca:b2:e3:5a:dc:67:e3:8b:
                    f4:59:db:2c:7f:a8:a9:86:9e:9e:37:76:c2:ea:8c:
                    a7:e8:ca:f0:21:95:56:0d:08:76:a8:7f:7b:50:bf:
                    30:4c:fb:dd:87:c9:4f:51:ba:92:16:03:08:7f:42:
                    9b:11:e7:65:4f:aa:a2:93:7e:25:5b:ea:3c:bb:10:
                    cd:ae:62:16:38:b7:80:c0:fe:ed:bd:86:9a:d5:53:
                    f8:d4:15:b4:28:55:97:f1:a4:65:71:3a:9d:ad:2b:
                    50:19:96:9a:c9:7a:94:cb:c2:00:3f:22:c7:7b:85:
                    3c:e9:5e:ac:d0:ad:1c:50:09:84:c3:29:8d:9a:6b:
                    a5:cf:67:fc:aa:d3:be:b9:31:65:11:df:fb:29:52:
                    a9:c7:f1:e0:8d:45:53:38:41:b2:bd:b0:79:ce:76:
                    11:d7:20:a4:50:69:10:e2:cc:c2:27:d9:07:7c:ba:
                    a0:7f:a4:ad:7d:d1:6d:11:c4:45:79:b3:31:39:47:
                    c9:d4:34:ed:8c:7d:12:b5:cd:ef:46:7e:eb:42:77:
                    bf:b4:76:c7:cf:d3:35:51:65:4b:14:08:c5:59:a1:
                    08:18:5f:f4:dc:e8:f1:f2:f1:1e:0b:cd:00:01:90:
                    41:c8:7d:a1:15:35:f2:dd:60:1c:7a:9d:ea:54:bf:
                    62:5d:9e:be:c5:bf:dd:d1:34:8b:06:05:90:34:b3:
                    c6:20:73:6a:c5:26:6e:99:41:1f:3e:f3:35:54:f1:
                    50:e5:7a:88:26:38:04:b7:87:e2:ab:b0:e8:c1:9a:
                    ec:ad:a0:a8:73:53:bc:e0:a0:65:15:ba:f1:fe:f2:
                    08:05:79:19:11:3f:48:3f:aa:f3:f8:9d:c1:bb:a7:
                    80:d0:df:4b:31:f0:b3:b3:2c:c2:0e:68:d0:1d:f8:
                    e8:a9:3a:9f:6f:e7:7f:13:ee:c9:49:0e:50:19:54:
                    74:e4:26:4e:1b:1f:a2:6a:90:bd:a3:71:c6:b8:67:
                    49:cc:25:d8:83:1c:eb:7e:19:37:23:ad:a7:4a:c2:
                    79:07:f1:f4:d4:87:e8:11:9e:69:fb:db:97:10:bd:
                    a1:ee:57:ce:02:ec:dd:b0:3e:4f:01:ad:fb:7a:66:
                    cf:88:5f:13:e5:d1:e6:64:29:c0:13:1c:a4:61:1b:
                    e5:75:97:a6:d6:40:a0:29:4e:f2:fb:92:69:94:db:
                    d2:10:ac:5b:82:29:4f:79:f6:22:ef:3d:a6:7c:c8:
                    ae:19:1f:a8:6b:ba:91:3a:95:e0:b2:d1:62:d4:66:
                    72:8a:92:ce:55:53:a1:1e:9f:4d:ff:a4:76:91:bc:
                    5f:c0:21
                Exponent: 65537 (0x10001)
        X509v3 extensions:
            X509v3 Basic Constraints: 
                CA:FALSE
            Netscape Comment: 
                Easy-RSA Generated Certificate
            X509v3 Subject Key Identifier: 
                F6:59:AA:E8:B1:3A:09:14:E5:4F:CF:71:44:58:78:52:10:03:0B:5D
            X509v3 Authority Key Identifier: 
                keyid:12:CD:60:04:D2:A0:80:9E:70:ED:C6:99:B8:7B:2C:C6:52:FD:19:A1
                DirName:/C=US/ST=OH/L=Columbus/O=VikingVPN/OU=MyOrganizationalUnit/CN=VikingVPN CA/name=EasyRSA/emailAddress=me@myhost.mydomain
                serial:CF:35:85:EE:80:BF:2A:3E

            X509v3 Extended Key Usage: 
                TLS Web Client Authentication
            X509v3 Key Usage: 
                Digital Signature
    Signature Algorithm: md5WithRSAEncryption
         27:84:01:07:1c:8b:1d:20:5c:84:90:3e:2f:e1:f1:d1:81:9a:
         c1:10:e6:44:83:c1:f1:ae:c5:56:f2:a1:eb:57:b2:cb:10:eb:
         69:bf:85:88:8e:9f:51:62:9e:25:34:ac:59:f9:1a:a0:09:51:
         c3:7e:25:be:6f:a8:33:33:2b:f6:4c:f8:42:ce:83:20:3f:08:
         56:3d:f2:64:77:5f:5c:a6:fe:ed:26:91:2b:4e:3a:95:6e:46:
         56:c7:72:97:c9:ff:f6:aa:7e:df:5e:06:c5:8f:ed:4d:a7:db:
         ff:6d:52:96:63:21:b3:5b:01:4b:05:50:84:5c:ef:27:1a:bb:
         5b:41:87:50:d2:ef:86:84:c6:be:ff:d3:ac:c0:1b:f7:05:c4:
         a7:e3:4f:d1:bf:92:e0:df:42:75:44:13:12:29:7e:a4:b2:f6:
         64:e1:62:18:04:f3:6c:54:65:68:b6:5e:54:8b:a5:a6:01:b6:
         a3:79:1a:3f:89:14:de:fc:b9:65:f6:70:fc:eb:a3:57:0a:79:
         49:87:17:fc:d2:3a:46:07:99:49:00:d8:b8:f9:e2:84:5f:e6:
         35:fb:55:86:55:7f:73:0f:41:41:a0:ef:b0:ab:4f:9d:fb:97:
         5e:43:b8:8e:10:39:d0:fa:46:9e:db:ee:1b:c8:bd:8b:bc:34:
         05:d4:69:d2:7a:b7:42:b6:bd:2a:7e:b4:a8:63:0f:82:e6:e5:
         03:e4:d5:31:0a:e2:c0:f8:34:78:26:c3:2d:36:ba:df:f7:37:
         6e:0d:59:7e:12:2c:8a:af:5a:8a:81:bc:95:52:75:d4:78:e2:
         b5:8b:e9:46:ea:c2:63:85:ff:aa:56:84:66:c9:96:69:31:30:
         7b:0d:2e:38:42:83:e2:94:03:98:28:63:66:ab:f8:3c:7e:4e:
         21:7b:0c:51:f3:86:cf:fe:05:24:cc:8b:60:aa:23:bf:ca:58:
         5a:3f:48:b9:25:9e:96:79:f1:6a:71:1c:23:0e:b0:39:56:cb:
         a5:9b:cd:30:52:89:7b:07:0a:e8:44:e6:88:56:27:40:10:e6:
         d5:88:35:65:53:fb:6f:66:1e:ed:c0:f7:b1:d0:f5:08:bd:b6:
         78:df:9f:61:dc:ff:c4:80:0b:69:38:d9:92:87:77:5e:5f:07:
         50:32:61:4a:a6:72:4a:2f:9b:30:da:0f:bd:c2:39:9d:9f:88:
         a1:58:72:60:f2:db:7d:f5:af:a2:33:8b:c4:c9:88:f4:bb:07:
         5e:08:0f:81:43:0a:4a:c1:45:ff:ae:70:32:93:9d:2b:bb:ac:
         38:cc:d6:c0:e0:99:60:53:3a:83:60:44:66:90:68:d9:e9:28:
         a4:d1:71:1b:de:1f:9c:32
-----BEGIN CERTIFICATE-----
MIIGrTCCBJWgAwIBAgICC6MwDQYJKoZIhvcNAQEEBQAwgawxCzAJBgNVBAYTAlVT
MQswCQYDVQQIEwJPSDERMA8GA1UEBxMIQ29sdW1idXMxEjAQBgNVBAoTCVZpa2lu
Z1ZQTjEdMBsGA1UECxMUTXlPcmdhbml6YXRpb25hbFVuaXQxFTATBgNVBAMTDFZp
a2luZ1ZQTiBDQTEQMA4GA1UEKRMHRWFzeVJTQTEhMB8GCSqGSIb3DQEJARYSbWVA
bXlob3N0Lm15ZG9tYWluMB4XDTE0MDkyODAwNTkzMFoXDTI0MDkyNTAwNTkzMFow
HzEdMBsGA1UEAxMUQ2xpZW50MTAyM0NlcnQ5MmU3ODgwggIiMA0GCSqGSIb3DQEB
AQUAA4ICDwAwggIKAoICAQDYYWeiPdiJjhqxyk8X92Hbabv0bL3KsuNa3Gfji/RZ
2yx/qKmGnp43dsLqjKfoyvAhlVYNCHaof3tQvzBM+92HyU9RupIWAwh/QpsR52VP
qqKTfiVb6jy7EM2uYhY4t4DA/u29hprVU/jUFbQoVZfxpGVxOp2tK1AZlprJepTL
wgA/Isd7hTzpXqzQrRxQCYTDKY2aa6XPZ/yq0765MWUR3/spUqnH8eCNRVM4QbK9
sHnOdhHXIKRQaRDizMIn2Qd8uqB/pK190W0RxEV5szE5R8nUNO2MfRK1ze9GfutC
d7+0dsfP0zVRZUsUCMVZoQgYX/Tc6PHy8R4LzQABkEHIfaEVNfLdYBx6nepUv2Jd
nr7Fv93RNIsGBZA0s8Ygc2rFJm6ZQR8+8zVU8VDleogmOAS3h+KrsOjBmuytoKhz
U7zgoGUVuvH+8ggFeRkRP0g/qvP4ncG7p4DQ30sx8LOzLMIOaNAd+OipOp9v538T
7slJDlAZVHTkJk4bH6JqkL2jcca4Z0nMJdiDHOt+GTcjradKwnkH8fTUh+gRnmn7
25cQvaHuV84C7N2wPk8Brft6Zs+IXxPl0eZkKcATHKRhG+V1l6bWQKApTvL7kmmU
29IQrFuCKU959iLvPaZ8yK4ZH6hrupE6leCy0WLUZnKKks5VU6Een03/pHaRvF/A
IQIDAQABo4IBYzCCAV8wCQYDVR0TBAIwADAtBglghkgBhvhCAQ0EIBYeRWFzeS1S
U0EgR2VuZXJhdGVkIENlcnRpZmljYXRlMB0GA1UdDgQWBBT2WarosToJFOVPz3FE
WHhSEAMLXTCB4QYDVR0jBIHZMIHWgBQSzWAE0qCAnnDtxpm4eyzGUv0ZoaGBsqSB
rzCBrDELMAkGA1UEBhMCVVMxCzAJBgNVBAgTAk9IMREwDwYDVQQHEwhDb2x1bWJ1
czESMBAGA1UEChMJVmlraW5nVlBOMR0wGwYDVQQLExRNeU9yZ2FuaXphdGlvbmFs
VW5pdDEVMBMGA1UEAxMMVmlraW5nVlBOIENBMRAwDgYDVQQpEwdFYXN5UlNBMSEw
HwYJKoZIhvcNAQkBFhJtZUBteWhvc3QubXlkb21haW6CCQDPNYXugL8qPjATBgNV
HSUEDDAKBggrBgEFBQcDAjALBgNVHQ8EBAMCB4AwDQYJKoZIhvcNAQEEBQADggIB
ACeEAQccix0gXISQPi/h8dGBmsEQ5kSDwfGuxVbyoetXsssQ62m/hYiOn1FiniU0
rFn5GqAJUcN+Jb5vqDMzK/ZM+ELOgyA/CFY98mR3X1ym/u0mkStOOpVuRlbHcpfJ
//aqft9eBsWP7U2n2/9tUpZjIbNbAUsFUIRc7ycau1tBh1DS74aExr7/06zAG/cF
xKfjT9G/kuDfQnVEExIpfqSy9mThYhgE82xUZWi2XlSLpaYBtqN5Gj+JFN78uWX2
cPzro1cKeUmHF/zSOkYHmUkA2Lj54oRf5jX7VYZVf3MPQUGg77CrT537l15DuI4Q
OdD6Rp7b7hvIvYu8NAXUadJ6t0K2vSp+tKhjD4Lm5QPk1TEK4sD4NHgmwy02ut/3
N24NWX4SLIqvWoqBvJVSddR44rWL6UbqwmOF/6pWhGbJlmkxMHsNLjhCg+KUA5go
Y2ar+Dx+TiF7DFHzhs/+BSTMi2CqI7/KWFo/SLklnpZ58WpxHCMOsDlWy6WbzTBS
iXsHCuhE5ohWJ0AQ5tWINWVT+29mHu3A97HQ9Qi9tnjfn2Hc/8SAC2k42ZKHd15f
B1AyYUqmckovmzDaD73COZ2fiKFYcmDy2331r6Izi8TJiPS7B14ID4FDCkrBRf+u
cDKTnSu7rDjM1sDgmWBTOoNgRGaQaNnpKKTRcRveH5wy
-----END CERTIFICATE-----
