Certificate:
    Data:
        Version: 3 (0x2)
        Serial Number: 2991 (0xbaf)
    Signature Algorithm: md5WithRSAEncryption
        Issuer: C=US, ST=OH, L=Columbus, O=VikingVPN, OU=MyOrganizationalUnit, CN=VikingVPN CA/name=EasyRSA/emailAddress=me@myhost.mydomain
        Validity
            Not Before: Sep 29 03:23:11 2014 GMT
            Not After : Sep 26 03:23:11 2024 GMT
        Subject: CN=Client1027Cert82e927
        Subject Public Key Info:
            Public Key Algorithm: rsaEncryption
                Public-Key: (4096 bit)
                Modulus:
                    00:d8:74:61:71:ef:14:51:b5:8b:c3:8c:0e:4f:7b:
                    fb:c5:7c:2f:4e:82:46:90:7a:ef:80:31:10:d1:bc:
                    d8:e5:f1:b5:6c:b9:c2:f4:a6:99:97:ab:b2:cf:bf:
                    90:0c:2f:dd:93:65:ff:6b:97:43:94:bb:24:3e:cc:
                    50:b1:6b:ae:2e:03:22:2a:e9:d2:a3:16:46:96:52:
                    5d:d9:f9:a8:b6:11:a1:3d:85:61:74:80:c5:d3:dc:
                    cd:e6:da:00:be:13:87:3c:8c:1b:a9:96:f2:35:cb:
                    1b:0d:21:9b:bf:92:9c:1b:03:fb:95:c1:79:5e:f7:
                    c1:41:11:2e:1b:c9:10:10:fe:e6:3b:e0:8e:e2:18:
                    fb:37:01:61:66:fd:1e:23:93:10:02:02:f1:a7:20:
                    d2:30:5b:a3:4b:60:5d:a9:31:b6:db:28:35:7e:7a:
                    84:32:9e:5b:b2:f3:a1:c6:5f:8f:bf:af:90:e8:85:
                    22:1d:26:4b:0e:57:27:5f:82:cd:aa:a8:1e:39:82:
                    95:63:91:55:82:6d:59:bc:0f:24:e8:f0:23:d0:f2:
                    45:77:17:50:ba:4d:08:3c:b4:81:29:e0:fe:14:c9:
                    dc:e5:51:34:5a:b3:25:d1:25:3f:57:8d:6d:78:85:
                    4c:e4:d9:28:a7:b1:c2:c9:39:35:77:79:15:47:a0:
                    14:61:3d:51:bd:59:c0:a9:f4:91:25:34:96:3b:53:
                    90:6d:38:7d:0d:ff:45:d6:5a:aa:57:c2:de:57:00:
                    0e:d2:da:5a:b0:66:ea:b3:1a:be:ae:fe:bd:36:19:
                    83:e0:88:5b:f2:e5:cf:23:3f:33:88:ae:8c:20:2d:
                    37:53:86:d6:3a:99:c9:aa:b2:81:61:74:cf:75:2c:
                    a0:fd:56:af:1b:cb:b0:f9:1c:c1:d0:f6:18:69:1d:
                    a6:60:ca:c3:a3:a5:fc:a3:c2:81:06:55:68:8b:97:
                    cd:16:50:90:95:a9:c2:3a:84:f5:4c:15:42:29:96:
                    20:17:61:a2:fb:40:05:40:22:0e:d6:03:4b:9e:1d:
                    00:3f:7b:d6:7c:db:f6:b8:86:47:27:70:c4:9e:f7:
                    e5:9d:42:e1:03:5f:97:c3:ff:18:d6:40:ae:c0:fd:
                    c1:7e:1d:0e:a5:03:8c:f1:02:4a:66:a8:34:ad:51:
                    4e:db:46:bf:67:85:fb:10:7f:3a:ea:a8:31:fd:85:
                    2d:f9:7a:21:64:56:56:bf:89:20:ec:21:92:cc:f4:
                    ea:f5:08:21:a5:74:2e:77:54:7e:32:f9:e1:30:d8:
                    f1:0a:65:66:59:07:99:3d:19:b4:68:d9:75:00:48:
                    04:82:5c:05:29:cf:d2:83:bf:45:bd:ce:b8:f4:d3:
                    c7:7f:13
                Exponent: 65537 (0x10001)
        X509v3 extensions:
            X509v3 Basic Constraints: 
                CA:FALSE
            Netscape Comment: 
                Easy-RSA Generated Certificate
            X509v3 Subject Key Identifier: 
                E9:46:0A:92:5C:9B:E5:F1:48:92:19:9C:80:BD:C0:4D:19:44:9C:21
            X509v3 Authority Key Identifier: 
                keyid:12:CD:60:04:D2:A0:80:9E:70:ED:C6:99:B8:7B:2C:C6:52:FD:19:A1
                DirName:/C=US/ST=OH/L=Columbus/O=VikingVPN/OU=MyOrganizationalUnit/CN=VikingVPN CA/name=EasyRSA/emailAddress=me@myhost.mydomain
                serial:CF:35:85:EE:80:BF:2A:3E

            X509v3 Extended Key Usage: 
                TLS Web Client Authentication
            X509v3 Key Usage: 
                Digital Signature
    Signature Algorithm: md5WithRSAEncryption
         c1:1e:4e:87:08:2d:0e:32:8a:e4:ae:21:87:62:44:45:aa:38:
         55:dc:23:2d:fe:ef:7c:11:6b:bb:1a:35:6a:d0:f3:7b:ad:b5:
         40:e2:17:35:cb:9e:f1:e7:ca:08:f4:94:f4:29:36:47:98:8e:
         ba:13:30:5d:a9:98:4b:87:dc:6c:39:e0:6c:3d:43:5e:ea:65:
         cd:4c:06:bf:fb:f0:61:20:39:12:18:b4:e0:59:2a:c3:d0:3c:
         9e:66:eb:d0:45:7d:79:f7:20:11:81:9f:94:55:48:6f:ba:3b:
         6d:88:a6:e5:a3:5a:48:fb:68:e6:af:f8:70:c2:31:38:b0:1d:
         60:84:51:5b:fc:20:7e:9f:31:5b:b7:04:c7:6e:50:be:04:3d:
         aa:eb:df:95:8a:86:b8:2e:61:f5:de:6c:16:ac:ff:4d:62:08:
         84:cc:e2:80:1c:35:a0:13:ad:19:3f:e3:30:0d:ab:87:08:78:
         ce:66:51:0e:92:f9:e1:6c:b5:a7:8c:2e:0f:3f:a0:b1:89:08:
         e3:04:4b:f5:d4:58:74:35:84:f7:a2:99:43:e3:82:b4:17:57:
         b2:26:70:7c:c8:9e:9c:e6:a4:84:a6:64:c5:6c:91:f6:cc:d3:
         bf:e7:a5:e8:58:e2:75:10:91:2b:47:a7:53:a4:c9:fd:3f:1e:
         ca:dd:ae:8e:d8:62:af:49:fb:45:34:9f:27:36:eb:c7:cf:f1:
         1f:8e:3a:f7:32:78:4f:77:bc:0a:69:31:5b:12:a7:67:82:70:
         da:7c:f9:4b:43:5c:00:d9:18:dc:01:1b:a4:9c:6d:75:49:0d:
         0b:7c:c0:61:8e:be:3b:d0:a6:69:7a:93:3f:fe:db:88:5a:66:
         9c:c8:00:2f:1d:64:98:06:d3:ad:6b:0a:67:f4:fc:9f:b7:d2:
         cc:00:f2:fc:7b:25:1c:76:42:09:8b:ae:ef:1b:0f:d5:88:36:
         b0:3c:85:a2:dc:c6:2c:8e:9a:9d:4a:62:5a:f5:d2:2e:5d:9f:
         11:b0:30:43:a4:ea:46:ed:be:6c:d7:e9:0e:c1:ec:ac:73:f1:
         c6:24:23:8f:ab:c4:95:62:0c:b9:cd:e4:f8:7b:17:b6:2a:64:
         08:3e:ff:b3:fe:4e:5d:b9:07:53:36:68:1f:7e:31:76:e3:98:
         d5:23:57:03:be:f6:72:2b:14:ca:b2:50:e7:d1:ad:29:37:18:
         c4:40:f8:21:ea:4c:a5:17:34:8f:62:32:6c:9f:38:16:51:32:
         db:3c:c0:9b:af:e5:77:00:36:dd:c0:91:f4:72:90:59:50:a6:
         b3:a4:8f:c9:60:0c:05:75:27:e3:7d:0b:4d:3b:56:9f:a2:d8:
         09:c7:5a:93:c8:1e:4f:fb
-----BEGIN CERTIFICATE-----
MIIGrTCCBJWgAwIBAgICC68wDQYJKoZIhvcNAQEEBQAwgawxCzAJBgNVBAYTAlVT
MQswCQYDVQQIEwJPSDERMA8GA1UEBxMIQ29sdW1idXMxEjAQBgNVBAoTCVZpa2lu
Z1ZQTjEdMBsGA1UECxMUTXlPcmdhbml6YXRpb25hbFVuaXQxFTATBgNVBAMTDFZp
a2luZ1ZQTiBDQTEQMA4GA1UEKRMHRWFzeVJTQTEhMB8GCSqGSIb3DQEJARYSbWVA
bXlob3N0Lm15ZG9tYWluMB4XDTE0MDkyOTAzMjMxMVoXDTI0MDkyNjAzMjMxMVow
HzEdMBsGA1UEAxMUQ2xpZW50MTAyN0NlcnQ4MmU5MjcwggIiMA0GCSqGSIb3DQEB
AQUAA4ICDwAwggIKAoICAQDYdGFx7xRRtYvDjA5Pe/vFfC9OgkaQeu+AMRDRvNjl
8bVsucL0ppmXq7LPv5AML92TZf9rl0OUuyQ+zFCxa64uAyIq6dKjFkaWUl3Z+ai2
EaE9hWF0gMXT3M3m2gC+E4c8jBuplvI1yxsNIZu/kpwbA/uVwXle98FBES4byRAQ
/uY74I7iGPs3AWFm/R4jkxACAvGnINIwW6NLYF2pMbbbKDV+eoQynluy86HGX4+/
r5DohSIdJksOVydfgs2qqB45gpVjkVWCbVm8DyTo8CPQ8kV3F1C6TQg8tIEp4P4U
ydzlUTRasyXRJT9XjW14hUzk2SinscLJOTV3eRVHoBRhPVG9WcCp9JElNJY7U5Bt
OH0N/0XWWqpXwt5XAA7S2lqwZuqzGr6u/r02GYPgiFvy5c8jPzOIrowgLTdThtY6
mcmqsoFhdM91LKD9Vq8by7D5HMHQ9hhpHaZgysOjpfyjwoEGVWiLl80WUJCVqcI6
hPVMFUIpliAXYaL7QAVAIg7WA0ueHQA/e9Z82/a4hkcncMSe9+WdQuEDX5fD/xjW
QK7A/cF+HQ6lA4zxAkpmqDStUU7bRr9nhfsQfzrqqDH9hS35eiFkVla/iSDsIZLM
9Or1CCGldC53VH4y+eEw2PEKZWZZB5k9GbRo2XUASASCXAUpz9KDv0W9zrj008d/
EwIDAQABo4IBYzCCAV8wCQYDVR0TBAIwADAtBglghkgBhvhCAQ0EIBYeRWFzeS1S
U0EgR2VuZXJhdGVkIENlcnRpZmljYXRlMB0GA1UdDgQWBBTpRgqSXJvl8UiSGZyA
vcBNGUScITCB4QYDVR0jBIHZMIHWgBQSzWAE0qCAnnDtxpm4eyzGUv0ZoaGBsqSB
rzCBrDELMAkGA1UEBhMCVVMxCzAJBgNVBAgTAk9IMREwDwYDVQQHEwhDb2x1bWJ1
czESMBAGA1UEChMJVmlraW5nVlBOMR0wGwYDVQQLExRNeU9yZ2FuaXphdGlvbmFs
VW5pdDEVMBMGA1UEAxMMVmlraW5nVlBOIENBMRAwDgYDVQQpEwdFYXN5UlNBMSEw
HwYJKoZIhvcNAQkBFhJtZUBteWhvc3QubXlkb21haW6CCQDPNYXugL8qPjATBgNV
HSUEDDAKBggrBgEFBQcDAjALBgNVHQ8EBAMCB4AwDQYJKoZIhvcNAQEEBQADggIB
AMEeTocILQ4yiuSuIYdiREWqOFXcIy3+73wRa7saNWrQ83uttUDiFzXLnvHnygj0
lPQpNkeYjroTMF2pmEuH3Gw54Gw9Q17qZc1MBr/78GEgORIYtOBZKsPQPJ5m69BF
fXn3IBGBn5RVSG+6O22IpuWjWkj7aOav+HDCMTiwHWCEUVv8IH6fMVu3BMduUL4E
Parr35WKhrguYfXebBas/01iCITM4oAcNaATrRk/4zANq4cIeM5mUQ6S+eFstaeM
Lg8/oLGJCOMES/XUWHQ1hPeimUPjgrQXV7ImcHzInpzmpISmZMVskfbM07/npehY
4nUQkStHp1Okyf0/Hsrdro7YYq9J+0U0nyc268fP8R+OOvcyeE93vAppMVsSp2eC
cNp8+UtDXADZGNwBG6ScbXVJDQt8wGGOvjvQpml6kz/+24haZpzIAC8dZJgG061r
Cmf0/J+30swA8vx7JRx2QgmLru8bD9WINrA8haLcxiyOmp1KYlr10i5dnxGwMEOk
6kbtvmzX6Q7B7Kxz8cYkI4+rxJViDLnN5Ph7F7YqZAg+/7P+Tl25B1M2aB9+MXbj
mNUjVwO+9nIrFMqyUOfRrSk3GMRA+CHqTKUXNI9iMmyfOBZRMts8wJuv5XcANt3A
kfRykFlQprOkj8lgDAV1J+N9C007Vp+i2AnHWpPIHk/7
-----END CERTIFICATE-----
