Certificate:
    Data:
        Version: 3 (0x2)
        Serial Number: 2998 (0xbb6)
    Signature Algorithm: md5WithRSAEncryption
        Issuer: C=US, ST=OH, L=Columbus, O=VikingVPN, OU=MyOrganizationalUnit, CN=VikingVPN CA/name=EasyRSA/emailAddress=me@myhost.mydomain
        Validity
            Not Before: Sep 30 08:34:42 2014 GMT
            Not After : Sep 27 08:34:42 2024 GMT
        Subject: CN=Client1031Cert412e03
        Subject Public Key Info:
            Public Key Algorithm: rsaEncryption
                Public-Key: (4096 bit)
                Modulus:
                    00:c8:04:4c:67:ae:58:50:5e:73:85:46:8b:6c:5f:
                    c3:2e:f0:a9:5e:da:fb:d4:cf:17:cb:09:eb:62:49:
                    e3:81:f9:f4:cb:4b:62:23:39:40:89:14:b0:c2:ef:
                    e1:54:c4:90:3e:eb:35:50:4e:b0:ea:a7:87:e1:2f:
                    d9:a2:14:98:68:8c:53:ea:2e:9c:ad:d2:e9:02:13:
                    29:19:e2:26:c9:45:77:fc:89:0e:c0:b7:a1:13:9e:
                    84:53:d1:ee:97:c1:ed:7e:e8:cb:fb:b5:9f:7e:d3:
                    0a:0c:6b:82:6f:e7:08:e4:ac:38:9d:2a:16:d3:f7:
                    ce:21:84:fb:71:65:49:24:e0:92:05:4e:ea:a8:e3:
                    56:8f:f5:ff:63:67:b6:b9:02:05:2b:17:fb:7a:ce:
                    79:fd:8f:fc:23:fc:9c:9b:f6:af:8f:19:4f:54:1a:
                    f8:69:1b:2f:e4:6c:0d:55:2d:fe:dd:24:2f:18:7f:
                    53:e4:35:1f:14:47:62:c1:3a:e3:c4:fa:5b:7b:76:
                    e4:ca:f3:34:7c:68:fa:87:5b:c8:1e:fe:18:a5:10:
                    2e:6f:f0:7c:92:17:19:56:f4:67:37:de:20:a6:7b:
                    97:a3:39:62:de:d8:f0:37:37:ac:52:a2:72:c3:20:
                    50:33:8f:83:06:d5:7b:a9:62:da:ee:d2:bf:b5:ea:
                    e4:8b:2a:6a:c5:c0:7a:e7:5e:7c:e3:cf:9a:fb:b1:
                    12:10:b9:1b:52:d8:a4:ac:30:87:70:19:41:6c:13:
                    bd:88:50:d3:b2:9c:a0:f2:37:f4:3c:de:15:16:fc:
                    77:bb:30:46:8e:5f:8c:4f:e4:70:5a:cb:ed:bc:9e:
                    62:18:58:23:24:55:6a:4e:bf:32:77:37:be:34:cf:
                    fc:a7:a0:d0:75:c1:f2:e2:2a:4b:93:9d:84:a8:6f:
                    ab:65:25:e7:51:74:a7:94:f5:9f:9a:4c:08:08:6f:
                    81:19:c7:26:6b:98:8b:48:17:c0:9e:b2:9e:dc:53:
                    9d:ef:15:f3:c3:42:46:68:1f:75:d7:77:49:fb:e7:
                    b3:0a:99:eb:65:b3:2e:7f:27:f2:f2:93:1a:8f:66:
                    51:03:a9:21:25:ba:5d:dd:e3:8b:4d:81:62:36:69:
                    33:91:dc:6e:bd:56:a8:b9:e8:4c:b6:54:96:d6:04:
                    5b:8a:30:59:d6:b2:1c:b7:5d:26:c7:44:d7:a0:5f:
                    95:47:bf:c8:c4:de:44:64:95:21:dc:31:ea:b3:b1:
                    b6:b0:bb:2f:5a:f5:9b:75:dc:ce:48:48:88:92:8a:
                    88:d2:f2:c0:d4:8e:bd:a9:46:5d:79:82:d8:f2:39:
                    d6:ff:1e:f6:db:78:3e:78:61:8d:65:22:7c:26:f8:
                    dc:05:bd
                Exponent: 65537 (0x10001)
        X509v3 extensions:
            X509v3 Basic Constraints: 
                CA:FALSE
            Netscape Comment: 
                Easy-RSA Generated Certificate
            X509v3 Subject Key Identifier: 
                A9:30:86:E8:05:22:6D:3B:8B:EE:01:BA:41:C8:75:2C:78:EC:81:20
            X509v3 Authority Key Identifier: 
                keyid:12:CD:60:04:D2:A0:80:9E:70:ED:C6:99:B8:7B:2C:C6:52:FD:19:A1
                DirName:/C=US/ST=OH/L=Columbus/O=VikingVPN/OU=MyOrganizationalUnit/CN=VikingVPN CA/name=EasyRSA/emailAddress=me@myhost.mydomain
                serial:CF:35:85:EE:80:BF:2A:3E

            X509v3 Extended Key Usage: 
                TLS Web Client Authentication
            X509v3 Key Usage: 
                Digital Signature
    Signature Algorithm: md5WithRSAEncryption
         7e:8b:9d:25:48:47:41:3a:07:d6:e5:41:71:f8:fe:de:2c:97:
         f6:9f:4c:d5:62:9f:98:aa:b9:d5:8c:d2:4d:8e:40:a2:19:79:
         eb:b4:8c:09:16:a9:2d:85:08:e7:c9:01:94:e9:af:76:7d:23:
         5b:fc:e6:d1:21:2f:22:33:de:e2:a6:3b:0d:8a:f4:cd:9e:95:
         d1:3a:17:4a:a2:54:3b:5d:dd:d1:5c:a7:5f:50:b4:1f:b6:cd:
         8d:b3:a2:62:92:14:05:c3:7c:15:9e:04:0a:10:24:4f:95:b0:
         23:70:b2:9a:61:f0:2a:89:ab:05:2f:41:af:20:46:19:26:c1:
         2f:b4:ad:e3:ed:3d:05:8d:a3:76:d5:ae:7e:37:0e:5d:f6:ac:
         dd:8b:13:87:ca:80:85:9b:63:92:45:d0:80:4c:b5:43:f6:7b:
         75:1e:2c:2a:b6:88:6f:67:14:79:57:b9:21:57:df:80:2d:ee:
         dc:dd:6d:d4:69:9e:8c:f0:d5:a0:f1:b8:db:de:63:c6:74:ea:
         18:be:4d:97:7a:4b:76:f7:0f:d8:78:ca:a1:83:45:25:b6:5f:
         47:3e:cc:85:af:dd:35:a8:bc:48:56:4a:38:b7:ea:4d:00:be:
         7e:00:99:4a:bd:bb:80:dd:12:a5:fd:8e:12:72:3f:f1:a5:ae:
         64:64:13:b8:a5:60:42:a1:67:48:c1:96:3a:e5:a7:29:ac:12:
         b1:02:c2:08:1f:c9:04:72:e1:1b:93:39:4e:c3:d4:33:19:ba:
         72:b9:aa:45:fd:01:03:6b:d6:dc:9f:95:9e:25:5e:a4:0f:5e:
         56:af:f9:37:4f:c9:f1:32:08:6a:67:9e:ac:20:5a:8b:31:9a:
         97:4d:8f:dc:1a:bc:ca:ce:81:e0:ca:9c:49:29:b4:47:38:77:
         64:f5:31:ed:80:de:a3:b2:30:2f:e8:74:6b:3a:0a:9b:6d:be:
         fb:a4:22:7b:31:bb:44:53:ee:c8:ea:e7:a9:28:5c:72:3e:c8:
         a0:c9:be:a9:52:f7:8d:cc:b8:60:ff:61:fb:8a:2f:02:68:8f:
         bd:c5:5a:54:a4:64:9a:cf:bd:d5:e6:5e:1e:8b:4b:ef:01:1a:
         68:b1:da:4a:17:d4:c4:c2:5e:3b:c2:c7:d0:37:de:f7:dc:24:
         e4:6b:cc:7c:06:34:2f:74:85:1c:83:96:6b:8b:2d:01:22:de:
         7d:7d:66:cc:41:61:30:3e:5f:99:46:15:4b:54:7f:fc:85:77:
         d3:73:31:ef:96:d1:54:2c:64:d8:2b:03:f1:72:42:9f:61:21:
         74:39:39:01:47:ed:69:ec:e2:02:2f:c8:06:35:2f:a2:5c:75:
         18:51:d8:1e:f6:89:63:4c
-----BEGIN CERTIFICATE-----
MIIGrTCCBJWgAwIBAgICC7YwDQYJKoZIhvcNAQEEBQAwgawxCzAJBgNVBAYTAlVT
MQswCQYDVQQIEwJPSDERMA8GA1UEBxMIQ29sdW1idXMxEjAQBgNVBAoTCVZpa2lu
Z1ZQTjEdMBsGA1UECxMUTXlPcmdhbml6YXRpb25hbFVuaXQxFTATBgNVBAMTDFZp
a2luZ1ZQTiBDQTEQMA4GA1UEKRMHRWFzeVJTQTEhMB8GCSqGSIb3DQEJARYSbWVA
bXlob3N0Lm15ZG9tYWluMB4XDTE0MDkzMDA4MzQ0MloXDTI0MDkyNzA4MzQ0Mlow
HzEdMBsGA1UEAxMUQ2xpZW50MTAzMUNlcnQ0MTJlMDMwggIiMA0GCSqGSIb3DQEB
AQUAA4ICDwAwggIKAoICAQDIBExnrlhQXnOFRotsX8Mu8Kle2vvUzxfLCetiSeOB
+fTLS2IjOUCJFLDC7+FUxJA+6zVQTrDqp4fhL9miFJhojFPqLpyt0ukCEykZ4ibJ
RXf8iQ7At6ETnoRT0e6Xwe1+6Mv7tZ9+0woMa4Jv5wjkrDidKhbT984hhPtxZUkk
4JIFTuqo41aP9f9jZ7a5AgUrF/t6znn9j/wj/Jyb9q+PGU9UGvhpGy/kbA1VLf7d
JC8Yf1PkNR8UR2LBOuPE+lt7duTK8zR8aPqHW8ge/hilEC5v8HySFxlW9Gc33iCm
e5ejOWLe2PA3N6xSonLDIFAzj4MG1XupYtru0r+16uSLKmrFwHrnXnzjz5r7sRIQ
uRtS2KSsMIdwGUFsE72IUNOynKDyN/Q83hUW/He7MEaOX4xP5HBay+28nmIYWCMk
VWpOvzJ3N740z/ynoNB1wfLiKkuTnYSob6tlJedRdKeU9Z+aTAgIb4EZxyZrmItI
F8Cesp7cU53vFfPDQkZoH3XXd0n757MKmetlsy5/J/LykxqPZlEDqSElul3d44tN
gWI2aTOR3G69Vqi56Ey2VJbWBFuKMFnWshy3XSbHRNegX5VHv8jE3kRklSHcMeqz
sbawuy9a9Zt13M5ISIiSiojS8sDUjr2pRl15gtjyOdb/HvbbeD54YY1lInwm+NwF
vQIDAQABo4IBYzCCAV8wCQYDVR0TBAIwADAtBglghkgBhvhCAQ0EIBYeRWFzeS1S
U0EgR2VuZXJhdGVkIENlcnRpZmljYXRlMB0GA1UdDgQWBBSpMIboBSJtO4vuAbpB
yHUseOyBIDCB4QYDVR0jBIHZMIHWgBQSzWAE0qCAnnDtxpm4eyzGUv0ZoaGBsqSB
rzCBrDELMAkGA1UEBhMCVVMxCzAJBgNVBAgTAk9IMREwDwYDVQQHEwhDb2x1bWJ1
czESMBAGA1UEChMJVmlraW5nVlBOMR0wGwYDVQQLExRNeU9yZ2FuaXphdGlvbmFs
VW5pdDEVMBMGA1UEAxMMVmlraW5nVlBOIENBMRAwDgYDVQQpEwdFYXN5UlNBMSEw
HwYJKoZIhvcNAQkBFhJtZUBteWhvc3QubXlkb21haW6CCQDPNYXugL8qPjATBgNV
HSUEDDAKBggrBgEFBQcDAjALBgNVHQ8EBAMCB4AwDQYJKoZIhvcNAQEEBQADggIB
AH6LnSVIR0E6B9blQXH4/t4sl/afTNVin5iqudWM0k2OQKIZeeu0jAkWqS2FCOfJ
AZTpr3Z9I1v85tEhLyIz3uKmOw2K9M2eldE6F0qiVDtd3dFcp19QtB+2zY2zomKS
FAXDfBWeBAoQJE+VsCNwspph8CqJqwUvQa8gRhkmwS+0rePtPQWNo3bVrn43Dl32
rN2LE4fKgIWbY5JF0IBMtUP2e3UeLCq2iG9nFHlXuSFX34At7tzdbdRpnozw1aDx
uNveY8Z06hi+TZd6S3b3D9h4yqGDRSW2X0c+zIWv3TWovEhWSji36k0Avn4AmUq9
u4DdEqX9jhJyP/GlrmRkE7ilYEKhZ0jBljrlpymsErECwggfyQRy4RuTOU7D1DMZ
unK5qkX9AQNr1tyflZ4lXqQPXlav+TdPyfEyCGpnnqwgWosxmpdNj9wavMrOgeDK
nEkptEc4d2T1Me2A3qOyMC/odGs6CpttvvukInsxu0RT7sjq56koXHI+yKDJvqlS
943MuGD/YfuKLwJoj73FWlSkZJrPvdXmXh6LS+8BGmix2koX1MTCXjvCx9A33vfc
JORrzHwGNC90hRyDlmuLLQEi3n19ZsxBYTA+X5lGFUtUf/yFd9NzMe+W0VQsZNgr
A/FyQp9hIXQ5OQFH7Wns4gIvyAY1L6JcdRhR2B72iWNM
-----END CERTIFICATE-----
