Certificate:
    Data:
        Version: 3 (0x2)
        Serial Number: 3016 (0xbc8)
    Signature Algorithm: md5WithRSAEncryption
        Issuer: C=US, ST=OH, L=Columbus, O=VikingVPN, OU=MyOrganizationalUnit, CN=VikingVPN CA/name=EasyRSA/emailAddress=me@myhost.mydomain
        Validity
            Not Before: Oct  2 08:16:12 2014 GMT
            Not After : Sep 29 08:16:12 2024 GMT
        Subject: CN=Client1039Certbfc1e1
        Subject Public Key Info:
            Public Key Algorithm: rsaEncryption
                Public-Key: (4096 bit)
                Modulus:
                    00:a4:43:67:ee:06:c6:14:f6:34:00:b8:20:87:2f:
                    eb:65:5c:66:6c:4a:84:69:70:57:aa:87:4c:3e:aa:
                    d2:21:2d:80:d8:0a:78:b3:14:97:0d:7e:b0:ab:f6:
                    6b:8b:f4:30:8a:c9:be:bf:60:ab:fd:c9:71:38:5c:
                    35:82:7a:cf:f9:d5:66:4f:18:c7:b5:73:2c:a8:d3:
                    5d:4d:03:e5:ab:6b:59:41:dc:6a:28:49:e2:21:de:
                    5f:f2:c6:28:03:16:e2:54:e7:23:7d:2c:00:0c:9a:
                    92:70:40:2d:ca:04:3d:ce:ed:5c:5a:27:e4:a9:92:
                    1d:b3:34:69:68:43:06:36:f7:a5:f5:5a:55:11:f3:
                    ea:b9:91:12:21:d1:56:9c:75:a0:df:57:21:9f:f1:
                    6b:7f:dc:a8:f9:29:9c:40:5e:d7:ff:9f:c7:61:97:
                    ba:1d:71:5a:5a:75:60:64:b3:4d:64:05:6e:ff:a3:
                    39:7e:97:49:53:39:73:17:75:d1:84:37:7e:04:ab:
                    44:ed:f9:45:ba:6a:3c:13:22:32:5b:f2:ab:0d:20:
                    a9:a6:c4:02:df:8b:69:f0:72:31:68:9e:b4:07:7f:
                    24:50:3f:b0:e6:fe:a8:da:e8:cb:87:cc:41:b3:65:
                    2d:ba:16:fa:4a:2a:c0:79:13:5b:fc:1f:2d:a4:d5:
                    72:ef:42:62:3a:d2:54:59:ec:e8:65:90:4f:9d:97:
                    5b:5a:83:ea:b8:1a:1e:71:9b:ab:00:70:85:b3:b4:
                    1e:27:ca:b5:6a:3d:a9:8c:8d:cd:7c:d5:0c:fe:a8:
                    43:2a:6a:3e:6a:16:77:c9:6d:6d:f7:a9:09:e8:07:
                    1d:d8:3b:7b:68:ce:7d:26:cb:aa:42:f5:dc:86:86:
                    69:be:9b:4d:6f:a6:66:37:09:06:dc:a1:bf:63:33:
                    dd:7d:cd:e2:89:c2:0c:3b:a1:c5:e2:4a:3c:b1:a1:
                    fe:88:f6:03:7b:c7:17:71:f7:7a:8e:3f:ea:cb:7b:
                    4f:94:3e:87:a5:3c:4b:0f:16:99:a9:00:e2:aa:27:
                    50:6f:9b:cd:c5:06:17:0a:cc:3e:84:ee:2a:57:88:
                    b3:27:19:f5:9f:93:ec:03:5e:8e:1b:5a:df:b8:9b:
                    aa:7d:9b:ac:3e:f7:ad:60:0c:c6:1d:c2:1b:e7:7a:
                    66:91:2a:91:39:19:04:9c:fe:39:f4:b5:eb:98:0c:
                    b3:d1:d4:4b:cc:ed:e0:a8:5c:01:05:91:81:93:20:
                    ca:e4:56:0c:bb:af:b6:04:2f:ee:70:99:2c:fc:bd:
                    2e:1b:bf:8e:51:84:33:a0:97:c1:f3:58:9c:5b:6c:
                    80:97:05:77:20:d2:e3:00:6e:15:a3:ac:84:7a:4a:
                    6a:fa:93
                Exponent: 65537 (0x10001)
        X509v3 extensions:
            X509v3 Basic Constraints: 
                CA:FALSE
            Netscape Comment: 
                Easy-RSA Generated Certificate
            X509v3 Subject Key Identifier: 
                81:16:E8:B3:CE:5E:AA:1B:C1:92:FB:F2:07:8E:6A:D9:3B:58:32:3E
            X509v3 Authority Key Identifier: 
                keyid:12:CD:60:04:D2:A0:80:9E:70:ED:C6:99:B8:7B:2C:C6:52:FD:19:A1
                DirName:/C=US/ST=OH/L=Columbus/O=VikingVPN/OU=MyOrganizationalUnit/CN=VikingVPN CA/name=EasyRSA/emailAddress=me@myhost.mydomain
                serial:CF:35:85:EE:80:BF:2A:3E

            X509v3 Extended Key Usage: 
                TLS Web Client Authentication
            X509v3 Key Usage: 
                Digital Signature
    Signature Algorithm: md5WithRSAEncryption
         57:96:b7:1c:a7:4c:b1:b9:b4:52:7e:86:ef:88:a2:df:27:5b:
         fa:8b:a8:d6:ad:69:4e:4b:bd:f0:46:84:38:a7:58:cf:da:bf:
         d4:51:25:0b:e3:e1:d9:b1:e6:37:42:09:43:aa:e8:3c:15:ae:
         b9:bc:ca:76:0e:50:21:8e:b8:2c:ba:e6:60:0d:93:1d:68:5a:
         b5:9b:d6:e4:be:0e:8d:64:ae:bb:09:30:11:cf:0f:fa:de:b8:
         ad:d3:b5:7f:a2:7f:5d:c9:ee:db:9d:8e:33:3b:15:49:a0:61:
         7d:2e:dc:48:f5:44:92:b0:7a:1f:58:38:e6:95:41:9f:fa:87:
         c0:c4:b7:da:4c:3b:56:0a:c2:00:1f:29:dc:ae:68:dd:f1:c0:
         76:fb:c8:20:2d:59:16:66:38:40:28:ae:c4:98:86:f8:16:13:
         e4:71:40:4d:b2:54:b2:35:4a:cf:9e:3b:af:e7:b1:4b:40:db:
         43:b6:ea:84:a2:4c:d2:2d:3c:1b:29:33:b4:11:5a:71:3f:50:
         b9:bb:04:38:4d:4f:63:7a:49:ab:51:bf:79:0b:eb:bd:ac:62:
         b5:44:da:53:ae:b3:99:0e:6f:5b:e7:b8:84:b5:ee:60:f7:61:
         50:07:8b:1f:eb:4c:e3:6b:1c:7d:5d:14:22:b2:08:56:6a:24:
         64:d1:ba:f3:05:11:6f:00:48:63:30:aa:18:d0:23:37:1f:9b:
         22:7e:02:67:43:b6:3c:56:07:e3:cc:4e:60:b5:f3:71:13:55:
         34:13:0d:ca:7d:a4:06:c4:14:47:69:e2:8f:f8:5e:47:fb:de:
         48:15:de:23:19:93:cc:18:c0:90:af:89:d3:9e:c2:b3:1c:1d:
         e3:98:5e:1d:89:c9:b4:c3:00:89:46:97:ad:10:fb:f9:09:bd:
         ae:ae:26:d6:70:49:46:17:ff:df:b6:b3:6f:3c:bd:70:96:b3:
         fa:54:22:0a:bd:c5:ac:36:73:39:37:a4:6c:a5:fa:e0:2b:41:
         2e:db:0f:e9:d7:13:63:c4:62:a7:0b:53:a2:e2:dd:82:fa:e0:
         b3:3d:bc:38:b0:4c:12:0b:1a:b7:7e:86:30:96:bd:e5:4e:27:
         0c:1a:ad:a7:1f:18:de:bc:2f:9f:89:ac:df:2f:7c:3d:57:ce:
         64:2f:6e:a8:e4:bc:32:ee:89:d5:d4:9d:d9:8c:01:1b:25:ac:
         35:20:f5:83:b0:1a:31:94:8c:c3:3f:1e:03:bf:1d:22:b3:da:
         df:17:14:5b:99:00:a9:1d:00:8d:4f:09:1e:41:01:01:7c:23:
         dd:97:15:8e:04:d9:53:6b:7a:44:df:74:fe:40:e4:e5:b7:d7:
         ce:68:e9:76:bb:19:41:99
-----BEGIN CERTIFICATE-----
MIIGrTCCBJWgAwIBAgICC8gwDQYJKoZIhvcNAQEEBQAwgawxCzAJBgNVBAYTAlVT
MQswCQYDVQQIEwJPSDERMA8GA1UEBxMIQ29sdW1idXMxEjAQBgNVBAoTCVZpa2lu
Z1ZQTjEdMBsGA1UECxMUTXlPcmdhbml6YXRpb25hbFVuaXQxFTATBgNVBAMTDFZp
a2luZ1ZQTiBDQTEQMA4GA1UEKRMHRWFzeVJTQTEhMB8GCSqGSIb3DQEJARYSbWVA
bXlob3N0Lm15ZG9tYWluMB4XDTE0MTAwMjA4MTYxMloXDTI0MDkyOTA4MTYxMlow
HzEdMBsGA1UEAxMUQ2xpZW50MTAzOUNlcnRiZmMxZTEwggIiMA0GCSqGSIb3DQEB
AQUAA4ICDwAwggIKAoICAQCkQ2fuBsYU9jQAuCCHL+tlXGZsSoRpcFeqh0w+qtIh
LYDYCnizFJcNfrCr9muL9DCKyb6/YKv9yXE4XDWCes/51WZPGMe1cyyo011NA+Wr
a1lB3GooSeIh3l/yxigDFuJU5yN9LAAMmpJwQC3KBD3O7VxaJ+Spkh2zNGloQwY2
96X1WlUR8+q5kRIh0VacdaDfVyGf8Wt/3Kj5KZxAXtf/n8dhl7odcVpadWBks01k
BW7/ozl+l0lTOXMXddGEN34Eq0Tt+UW6ajwTIjJb8qsNIKmmxALfi2nwcjFonrQH
fyRQP7Dm/qja6MuHzEGzZS26FvpKKsB5E1v8Hy2k1XLvQmI60lRZ7OhlkE+dl1ta
g+q4Gh5xm6sAcIWztB4nyrVqPamMjc181Qz+qEMqaj5qFnfJbW33qQnoBx3YO3to
zn0my6pC9dyGhmm+m01vpmY3CQbcob9jM919zeKJwgw7ocXiSjyxof6I9gN7xxdx
93qOP+rLe0+UPoelPEsPFpmpAOKqJ1Bvm83FBhcKzD6E7ipXiLMnGfWfk+wDXo4b
Wt+4m6p9m6w+961gDMYdwhvnemaRKpE5GQSc/jn0teuYDLPR1EvM7eCoXAEFkYGT
IMrkVgy7r7YEL+5wmSz8vS4bv45RhDOgl8HzWJxbbICXBXcg0uMAbhWjrIR6Smr6
kwIDAQABo4IBYzCCAV8wCQYDVR0TBAIwADAtBglghkgBhvhCAQ0EIBYeRWFzeS1S
U0EgR2VuZXJhdGVkIENlcnRpZmljYXRlMB0GA1UdDgQWBBSBFuizzl6qG8GS+/IH
jmrZO1gyPjCB4QYDVR0jBIHZMIHWgBQSzWAE0qCAnnDtxpm4eyzGUv0ZoaGBsqSB
rzCBrDELMAkGA1UEBhMCVVMxCzAJBgNVBAgTAk9IMREwDwYDVQQHEwhDb2x1bWJ1
czESMBAGA1UEChMJVmlraW5nVlBOMR0wGwYDVQQLExRNeU9yZ2FuaXphdGlvbmFs
VW5pdDEVMBMGA1UEAxMMVmlraW5nVlBOIENBMRAwDgYDVQQpEwdFYXN5UlNBMSEw
HwYJKoZIhvcNAQkBFhJtZUBteWhvc3QubXlkb21haW6CCQDPNYXugL8qPjATBgNV
HSUEDDAKBggrBgEFBQcDAjALBgNVHQ8EBAMCB4AwDQYJKoZIhvcNAQEEBQADggIB
AFeWtxynTLG5tFJ+hu+Iot8nW/qLqNataU5LvfBGhDinWM/av9RRJQvj4dmx5jdC
CUOq6DwVrrm8ynYOUCGOuCy65mANkx1oWrWb1uS+Do1krrsJMBHPD/reuK3TtX+i
f13J7tudjjM7FUmgYX0u3Ej1RJKweh9YOOaVQZ/6h8DEt9pMO1YKwgAfKdyuaN3x
wHb7yCAtWRZmOEAorsSYhvgWE+RxQE2yVLI1Ss+eO6/nsUtA20O26oSiTNItPBsp
M7QRWnE/ULm7BDhNT2N6SatRv3kL672sYrVE2lOus5kOb1vnuIS17mD3YVAHix/r
TONrHH1dFCKyCFZqJGTRuvMFEW8ASGMwqhjQIzcfmyJ+AmdDtjxWB+PMTmC183ET
VTQTDcp9pAbEFEdp4o/4Xkf73kgV3iMZk8wYwJCvidOewrMcHeOYXh2JybTDAIlG
l60Q+/kJva6uJtZwSUYX/9+2s288vXCWs/pUIgq9xaw2czk3pGyl+uArQS7bD+nX
E2PEYqcLU6Li3YL64LM9vDiwTBILGrd+hjCWveVOJwwaracfGN68L5+JrN8vfD1X
zmQvbqjkvDLuidXUndmMARslrDUg9YOwGjGUjMM/HgO/HSKz2t8XFFuZAKkdAI1P
CR5BAQF8I92XFY4E2VNrekTfdP5A5OW3185o6Xa7GUGZ
-----END CERTIFICATE-----
