Certificate:
    Data:
        Version: 3 (0x2)
        Serial Number: 3020 (0xbcc)
    Signature Algorithm: md5WithRSAEncryption
        Issuer: C=US, ST=OH, L=Columbus, O=VikingVPN, OU=MyOrganizationalUnit, CN=VikingVPN CA/name=EasyRSA/emailAddress=me@myhost.mydomain
        Validity
            Not Before: Oct  2 19:09:55 2014 GMT
            Not After : Sep 29 19:09:55 2024 GMT
        Subject: CN=Client1041Certe55808
        Subject Public Key Info:
            Public Key Algorithm: rsaEncryption
                Public-Key: (4096 bit)
                Modulus:
                    00:b3:bb:ed:28:17:bd:48:b5:43:3f:06:00:98:7b:
                    1a:32:fc:d5:f5:f9:62:72:6c:31:45:e8:06:85:69:
                    7e:a3:b6:62:60:d2:2f:7d:a2:a1:86:1f:f8:b6:6d:
                    55:9d:f3:8c:cb:06:a4:41:96:37:12:4b:f5:22:3b:
                    8c:e4:c6:49:16:ec:a3:82:70:06:77:3e:a5:2f:08:
                    2f:83:76:e4:d3:38:96:1f:43:30:be:00:0e:f5:b3:
                    ae:5a:6c:db:4a:5d:02:70:05:30:16:06:d9:62:67:
                    71:ad:1a:51:ca:dc:f5:7b:db:e9:d8:42:72:c8:75:
                    bb:b7:e6:a2:66:c3:b8:b7:31:56:eb:f5:de:77:06:
                    23:a8:f2:ea:9d:84:28:25:c2:10:a8:0e:75:95:fe:
                    a7:ff:aa:0a:45:1a:4a:c1:17:3a:30:66:0a:52:ef:
                    81:ec:96:35:85:02:ce:33:f2:4f:01:c5:08:30:dd:
                    2c:bb:f9:3d:8c:fa:a7:49:b8:6c:cc:9f:dc:fc:42:
                    82:52:0e:aa:6c:ea:c1:7e:57:21:99:2a:0d:f7:69:
                    01:4a:60:9d:54:20:07:b3:ee:f4:ee:09:76:99:28:
                    cc:16:71:2a:3c:5d:41:79:0e:5f:68:86:86:7c:34:
                    00:81:26:ad:9d:c6:1d:4d:3b:32:a7:e0:49:bc:1a:
                    0d:0f:42:5f:2b:f4:c3:1b:a1:07:64:8a:ee:27:0a:
                    2d:37:87:45:32:d3:3b:82:9b:2e:c4:29:37:cb:d8:
                    c5:99:e6:d2:b8:e1:53:39:50:fa:f4:51:79:ac:0d:
                    ce:ad:97:f1:81:f8:cf:77:22:60:fa:d6:4f:fb:0b:
                    ea:7a:d6:a5:02:49:ab:b7:24:86:ac:f4:58:82:a1:
                    f1:5f:17:00:81:ef:d0:ed:30:6c:6a:fb:35:79:52:
                    6f:f4:f4:28:50:77:ee:f4:2a:a1:77:4d:84:e5:c0:
                    c4:3a:94:71:39:2a:99:41:ba:86:f5:da:e3:e0:70:
                    e2:0b:ca:a3:4f:5c:d4:5f:ca:ce:4e:c1:7f:0c:f6:
                    8e:6a:28:c1:43:87:e4:d2:f5:bd:20:9c:12:cc:af:
                    ae:db:ba:65:40:07:f5:48:a4:80:6d:bc:1f:df:7c:
                    50:ee:32:c9:f0:15:64:51:ad:9b:0d:a2:76:f4:c1:
                    6f:b3:a0:6a:26:e1:4e:c6:ff:6a:13:73:f0:25:7f:
                    e1:b6:44:3b:81:97:03:36:96:3e:c4:d8:0a:fd:f2:
                    47:41:21:e1:05:01:e5:e7:2a:c0:26:81:5c:66:b9:
                    84:7c:02:93:29:18:75:c3:d4:b9:10:f7:70:38:84:
                    59:f7:10:9f:62:a3:fc:f6:45:23:42:27:ec:56:8d:
                    63:da:0f
                Exponent: 65537 (0x10001)
        X509v3 extensions:
            X509v3 Basic Constraints: 
                CA:FALSE
            Netscape Comment: 
                Easy-RSA Generated Certificate
            X509v3 Subject Key Identifier: 
                90:4E:FA:A8:06:E0:15:97:BD:4E:02:FD:A8:41:0F:B3:07:11:D2:72
            X509v3 Authority Key Identifier: 
                keyid:12:CD:60:04:D2:A0:80:9E:70:ED:C6:99:B8:7B:2C:C6:52:FD:19:A1
                DirName:/C=US/ST=OH/L=Columbus/O=VikingVPN/OU=MyOrganizationalUnit/CN=VikingVPN CA/name=EasyRSA/emailAddress=me@myhost.mydomain
                serial:CF:35:85:EE:80:BF:2A:3E

            X509v3 Extended Key Usage: 
                TLS Web Client Authentication
            X509v3 Key Usage: 
                Digital Signature
    Signature Algorithm: md5WithRSAEncryption
         c2:ff:49:41:56:50:72:1c:f7:46:bc:9f:aa:85:ed:1f:f2:77:
         62:58:2d:b9:05:b9:06:5f:bf:65:24:4e:31:1d:75:70:cb:63:
         ea:9b:e3:bb:c2:ef:b5:1f:3d:46:a4:cd:a7:6d:ec:a9:10:c3:
         e4:cf:93:05:1b:b4:a3:b1:db:cc:e9:37:b7:8b:b1:08:61:38:
         ad:20:d0:d9:dd:de:88:ef:b5:c6:50:b0:29:7c:ad:b3:56:95:
         f7:17:d7:7f:99:ba:a0:78:d4:3f:4a:5d:b8:83:31:4d:1e:62:
         3c:5b:b7:73:ed:bc:c3:a7:22:ca:eb:3e:b4:71:91:8f:16:e8:
         bb:a3:22:b0:06:44:a6:4f:0c:0e:ab:c5:be:44:18:70:85:8d:
         12:28:0f:1e:70:79:aa:53:80:97:7c:6c:ec:5b:8f:39:11:84:
         fc:c9:2a:64:be:a0:7a:dc:6a:e5:e0:04:b8:94:c7:7d:30:9b:
         45:c7:fe:f8:37:63:c5:70:46:2d:a4:bd:5f:15:90:01:f5:78:
         ac:6f:cd:ab:43:bf:7c:34:bf:25:ec:47:6b:36:fa:23:33:ff:
         f8:e9:be:8f:be:22:72:33:8c:80:2d:07:e6:e0:89:5d:f3:3d:
         6d:96:73:cc:78:b7:24:4c:74:eb:21:fb:15:5f:89:ef:0c:8a:
         26:80:1e:29:8e:4e:18:af:9b:a1:c5:22:e2:b5:2a:d0:db:b8:
         84:36:80:d1:02:05:73:ac:b1:2a:1a:28:df:06:fa:96:fa:23:
         b2:26:79:79:26:35:ec:1c:72:ab:4e:27:7f:29:fc:bb:98:03:
         b7:08:6a:f2:a5:ec:b3:84:40:22:44:91:dd:13:73:7f:8f:6d:
         54:24:b8:e5:d2:53:d9:21:7a:da:8c:2e:0e:1f:08:2e:9b:fc:
         06:86:81:bb:65:77:9f:57:01:98:4b:b7:cb:74:59:a2:89:59:
         41:cc:29:0a:62:84:37:85:e2:cd:9d:5b:76:a3:f4:c2:5e:28:
         d5:d6:a0:df:82:35:9b:ce:2e:02:20:92:bc:3d:04:ff:b8:f1:
         75:98:ac:dc:4a:9f:c4:98:dc:39:72:18:64:46:f5:2e:8c:7b:
         c7:27:f0:71:ab:59:1f:a9:a9:79:08:42:15:1d:87:b7:6a:ae:
         69:7b:4a:63:01:e5:e8:42:79:5c:bc:f1:9a:4d:20:ad:bd:6f:
         a2:42:68:89:a1:6f:ff:ee:eb:71:bf:b0:34:e4:c5:02:76:65:
         1d:35:b4:00:ec:d5:f7:73:bf:5c:c6:6d:43:13:0e:c7:36:4e:
         5a:db:3e:4d:34:06:b1:22:bf:f4:9b:14:67:ba:65:b0:59:35:
         0a:2d:89:a5:7c:16:60:c2
-----BEGIN CERTIFICATE-----
MIIGrTCCBJWgAwIBAgICC8wwDQYJKoZIhvcNAQEEBQAwgawxCzAJBgNVBAYTAlVT
MQswCQYDVQQIEwJPSDERMA8GA1UEBxMIQ29sdW1idXMxEjAQBgNVBAoTCVZpa2lu
Z1ZQTjEdMBsGA1UECxMUTXlPcmdhbml6YXRpb25hbFVuaXQxFTATBgNVBAMTDFZp
a2luZ1ZQTiBDQTEQMA4GA1UEKRMHRWFzeVJTQTEhMB8GCSqGSIb3DQEJARYSbWVA
bXlob3N0Lm15ZG9tYWluMB4XDTE0MTAwMjE5MDk1NVoXDTI0MDkyOTE5MDk1NVow
HzEdMBsGA1UEAxMUQ2xpZW50MTA0MUNlcnRlNTU4MDgwggIiMA0GCSqGSIb3DQEB
AQUAA4ICDwAwggIKAoICAQCzu+0oF71ItUM/BgCYexoy/NX1+WJybDFF6AaFaX6j
tmJg0i99oqGGH/i2bVWd84zLBqRBljcSS/UiO4zkxkkW7KOCcAZ3PqUvCC+DduTT
OJYfQzC+AA71s65abNtKXQJwBTAWBtliZ3GtGlHK3PV72+nYQnLIdbu35qJmw7i3
MVbr9d53BiOo8uqdhCglwhCoDnWV/qf/qgpFGkrBFzowZgpS74HsljWFAs4z8k8B
xQgw3Sy7+T2M+qdJuGzMn9z8QoJSDqps6sF+VyGZKg33aQFKYJ1UIAez7vTuCXaZ
KMwWcSo8XUF5Dl9ohoZ8NACBJq2dxh1NOzKn4Em8Gg0PQl8r9MMboQdkiu4nCi03
h0Uy0zuCmy7EKTfL2MWZ5tK44VM5UPr0UXmsDc6tl/GB+M93ImD61k/7C+p61qUC
Sau3JIas9FiCofFfFwCB79DtMGxq+zV5Um/09ChQd+70KqF3TYTlwMQ6lHE5KplB
uob12uPgcOILyqNPXNRfys5OwX8M9o5qKMFDh+TS9b0gnBLMr67bumVAB/VIpIBt
vB/ffFDuMsnwFWRRrZsNonb0wW+zoGom4U7G/2oTc/Alf+G2RDuBlwM2lj7E2Ar9
8kdBIeEFAeXnKsAmgVxmuYR8ApMpGHXD1LkQ93A4hFn3EJ9io/z2RSNCJ+xWjWPa
DwIDAQABo4IBYzCCAV8wCQYDVR0TBAIwADAtBglghkgBhvhCAQ0EIBYeRWFzeS1S
U0EgR2VuZXJhdGVkIENlcnRpZmljYXRlMB0GA1UdDgQWBBSQTvqoBuAVl71OAv2o
QQ+zBxHScjCB4QYDVR0jBIHZMIHWgBQSzWAE0qCAnnDtxpm4eyzGUv0ZoaGBsqSB
rzCBrDELMAkGA1UEBhMCVVMxCzAJBgNVBAgTAk9IMREwDwYDVQQHEwhDb2x1bWJ1
czESMBAGA1UEChMJVmlraW5nVlBOMR0wGwYDVQQLExRNeU9yZ2FuaXphdGlvbmFs
VW5pdDEVMBMGA1UEAxMMVmlraW5nVlBOIENBMRAwDgYDVQQpEwdFYXN5UlNBMSEw
HwYJKoZIhvcNAQkBFhJtZUBteWhvc3QubXlkb21haW6CCQDPNYXugL8qPjATBgNV
HSUEDDAKBggrBgEFBQcDAjALBgNVHQ8EBAMCB4AwDQYJKoZIhvcNAQEEBQADggIB
AML/SUFWUHIc90a8n6qF7R/yd2JYLbkFuQZfv2UkTjEddXDLY+qb47vC77UfPUak
zadt7KkQw+TPkwUbtKOx28zpN7eLsQhhOK0g0Nnd3ojvtcZQsCl8rbNWlfcX13+Z
uqB41D9KXbiDMU0eYjxbt3PtvMOnIsrrPrRxkY8W6LujIrAGRKZPDA6rxb5EGHCF
jRIoDx5weapTgJd8bOxbjzkRhPzJKmS+oHrcauXgBLiUx30wm0XH/vg3Y8VwRi2k
vV8VkAH1eKxvzatDv3w0vyXsR2s2+iMz//jpvo++InIzjIAtB+bgiV3zPW2Wc8x4
tyRMdOsh+xVfie8MiiaAHimOThivm6HFIuK1KtDbuIQ2gNECBXOssSoaKN8G+pb6
I7ImeXkmNewccqtOJ38p/LuYA7cIavKl7LOEQCJEkd0Tc3+PbVQkuOXSU9khetqM
Lg4fCC6b/AaGgbtld59XAZhLt8t0WaKJWUHMKQpihDeF4s2dW3aj9MJeKNXWoN+C
NZvOLgIgkrw9BP+48XWYrNxKn8SY3DlyGGRG9S6Me8cn8HGrWR+pqXkIQhUdh7dq
rml7SmMB5ehCeVy88ZpNIK29b6JCaImhb//u63G/sDTkxQJ2ZR01tADs1fdzv1zG
bUMTDsc2TlrbPk00BrEiv/SbFGe6ZbBZNQotiaV8FmDC
-----END CERTIFICATE-----
