Certificate:
    Data:
        Version: 3 (0x2)
        Serial Number: 3032 (0xbd8)
    Signature Algorithm: md5WithRSAEncryption
        Issuer: C=US, ST=OH, L=Columbus, O=VikingVPN, OU=MyOrganizationalUnit, CN=VikingVPN CA/name=EasyRSA/emailAddress=me@myhost.mydomain
        Validity
            Not Before: Oct  4 17:34:14 2014 GMT
            Not After : Oct  1 17:34:14 2024 GMT
        Subject: CN=Client1045Certac1727
        Subject Public Key Info:
            Public Key Algorithm: rsaEncryption
                Public-Key: (4096 bit)
                Modulus:
                    00:c0:25:88:44:bd:77:58:e0:0a:13:73:80:9d:b7:
                    fa:2e:c7:19:37:9b:0a:c1:1f:68:22:9c:5c:39:cf:
                    ec:bf:8e:84:26:62:91:f9:b6:27:7c:b4:cb:40:38:
                    8f:07:dc:05:e1:5a:5b:0b:97:b5:ec:f1:99:cf:12:
                    a1:f1:6b:a3:1e:17:82:b4:54:e2:ea:a1:7d:e9:e9:
                    91:fc:55:dc:91:97:b7:c0:80:5d:6d:ee:5a:da:72:
                    54:fa:89:8e:0f:36:db:16:f2:0c:99:cf:13:e4:0c:
                    96:0d:a3:13:e1:61:f0:03:03:6a:b2:92:8f:89:40:
                    64:c0:02:8c:7b:3f:b1:3f:bf:85:fc:74:43:11:f6:
                    28:6a:2b:f1:fd:d1:b1:18:a2:fa:dc:a3:55:2c:9f:
                    a5:f3:56:28:30:2f:22:d6:9e:23:af:e9:71:09:d4:
                    e1:0c:be:1c:e8:90:f7:f4:ce:b5:c9:bd:58:cd:c2:
                    86:5c:85:40:20:be:2e:41:79:b6:f3:fa:3c:50:e4:
                    c1:2e:ba:a4:ec:83:19:c8:9c:3d:72:bb:d1:ea:38:
                    1b:b4:65:8d:ca:53:2a:2d:d0:04:ab:9f:3e:4a:ab:
                    59:b9:8a:55:1d:c0:86:09:10:7e:59:54:b3:b5:ca:
                    05:9f:15:cc:12:bf:47:4f:db:d7:6c:cd:5f:bb:39:
                    c1:d4:3e:73:42:6c:ad:d3:46:f9:30:ab:b2:32:46:
                    3a:63:75:00:a0:30:44:ad:21:ae:70:dd:ef:4a:2c:
                    fb:16:24:49:ac:27:3a:56:97:1d:42:58:68:d5:4c:
                    e3:21:e4:7c:d6:b8:1e:f9:a7:c1:19:28:7f:4f:f2:
                    ca:e5:65:86:39:f6:9a:0b:aa:cd:8d:6e:03:75:9a:
                    5e:19:ac:3c:9b:01:a7:db:0a:2a:98:1c:50:81:7a:
                    49:aa:e1:5d:67:85:1a:b6:9b:7e:80:be:ad:b3:fa:
                    55:8d:5f:7c:1e:b0:50:f0:04:f2:6d:e5:f0:03:03:
                    9b:5f:6e:32:d4:a0:1b:cf:91:64:86:3e:18:ff:3e:
                    58:0d:99:2f:12:c6:ba:92:31:3e:cb:6c:51:aa:d1:
                    c3:0a:03:0c:b3:a6:28:45:55:34:e7:f0:a1:2f:ac:
                    19:da:d0:9d:38:26:5c:c8:29:3a:5f:28:5c:9e:45:
                    2e:4e:d7:87:3b:31:89:63:61:2a:e6:ee:f0:81:17:
                    59:f7:51:bc:5b:b5:9f:9d:d4:1b:84:75:a9:3c:91:
                    b3:fa:cc:79:c9:77:51:c6:80:51:7e:78:7a:df:62:
                    f4:dc:3e:c0:73:97:85:13:26:0c:5f:f9:1f:a9:ae:
                    f1:cc:be:d8:89:78:91:47:69:e4:9a:d2:88:12:b2:
                    44:d2:c7
                Exponent: 65537 (0x10001)
        X509v3 extensions:
            X509v3 Basic Constraints: 
                CA:FALSE
            Netscape Comment: 
                Easy-RSA Generated Certificate
            X509v3 Subject Key Identifier: 
                0D:1E:C6:8E:78:44:CD:E9:97:C8:68:F3:CE:ED:01:9B:29:70:79:91
            X509v3 Authority Key Identifier: 
                keyid:12:CD:60:04:D2:A0:80:9E:70:ED:C6:99:B8:7B:2C:C6:52:FD:19:A1
                DirName:/C=US/ST=OH/L=Columbus/O=VikingVPN/OU=MyOrganizationalUnit/CN=VikingVPN CA/name=EasyRSA/emailAddress=me@myhost.mydomain
                serial:CF:35:85:EE:80:BF:2A:3E

            X509v3 Extended Key Usage: 
                TLS Web Client Authentication
            X509v3 Key Usage: 
                Digital Signature
    Signature Algorithm: md5WithRSAEncryption
         e6:21:71:f8:c0:55:a2:ad:5f:2a:c9:3c:9e:84:e4:7a:e7:64:
         b5:32:a5:c4:a9:d8:62:26:5d:74:a2:4c:de:ab:f2:0c:76:2e:
         5a:c0:dd:97:10:24:50:8c:ff:4a:eb:dc:09:09:19:f1:1f:77:
         4c:7c:62:46:e2:01:bb:4b:a1:d0:95:b8:19:9b:a4:58:20:81:
         0d:c3:8b:2a:c6:04:82:68:b7:74:cf:5b:61:cb:5b:0f:fe:38:
         e9:ed:f2:da:71:a6:82:fd:ba:23:16:af:81:11:23:aa:0c:1a:
         c7:69:af:73:2a:7f:75:a0:5e:ac:97:0d:32:fc:7c:bd:ef:97:
         e3:69:5e:92:7d:3c:24:12:d1:09:74:67:c2:6c:51:36:e6:84:
         99:9f:8e:f4:04:07:f8:e4:b9:d1:ff:3b:61:67:b7:8a:a9:6f:
         eb:35:c8:91:db:7b:3e:6b:69:89:ed:47:82:27:8b:0b:90:11:
         b0:af:82:78:9c:32:19:2b:d4:68:61:e1:cb:fb:6c:c3:d3:18:
         99:7a:be:98:95:dd:c6:4c:b3:a5:06:b6:71:a6:95:4b:a4:7f:
         88:81:45:7b:3a:4e:0d:21:02:91:5f:6c:c2:09:47:5c:78:40:
         b9:79:73:97:53:8d:3f:25:6d:93:fc:8a:c0:00:a4:05:35:83:
         35:2f:0e:00:13:5e:40:d8:b7:34:a4:ea:cd:71:a7:7b:d0:f4:
         5a:91:53:79:18:d0:1d:0e:ef:9d:82:8c:08:c0:fe:e7:70:dc:
         57:e3:34:e6:20:a6:9a:3d:42:be:e8:b7:c8:34:42:54:11:5b:
         14:d6:79:6a:21:62:d6:44:cd:58:dd:bb:1e:83:43:6a:2e:2b:
         1c:4a:61:b3:d5:a0:c0:c9:6b:0c:dd:95:d0:e5:68:81:e7:8c:
         50:81:b9:d8:d2:34:68:ab:8d:d6:c2:47:9e:f3:aa:10:1c:02:
         93:fe:15:94:fa:a0:8a:fa:bf:ee:69:96:9d:14:ff:a1:6e:f5:
         22:5b:8a:6b:f1:8a:f2:68:68:74:54:ef:dc:c8:de:18:5e:3a:
         e2:9f:d9:ee:49:47:e7:a9:57:1f:c4:07:cb:38:e0:81:f3:98:
         d6:82:53:34:fd:50:35:1e:b4:6d:09:c5:76:02:ba:a8:26:02:
         48:bb:3d:c3:e5:e7:19:47:41:a9:09:bc:06:e0:9d:02:3a:67:
         a8:6f:3f:2e:57:43:4c:e0:10:7e:df:b1:98:8e:da:af:d9:ae:
         8c:de:05:20:9b:11:7f:83:fd:c5:c2:87:06:10:3f:cd:04:b2:
         64:5f:6f:80:9c:27:a8:39:44:86:e6:7a:d2:19:72:ec:da:2b:
         1b:db:d7:8b:07:70:ea:47
-----BEGIN CERTIFICATE-----
MIIGrTCCBJWgAwIBAgICC9gwDQYJKoZIhvcNAQEEBQAwgawxCzAJBgNVBAYTAlVT
MQswCQYDVQQIEwJPSDERMA8GA1UEBxMIQ29sdW1idXMxEjAQBgNVBAoTCVZpa2lu
Z1ZQTjEdMBsGA1UECxMUTXlPcmdhbml6YXRpb25hbFVuaXQxFTATBgNVBAMTDFZp
a2luZ1ZQTiBDQTEQMA4GA1UEKRMHRWFzeVJTQTEhMB8GCSqGSIb3DQEJARYSbWVA
bXlob3N0Lm15ZG9tYWluMB4XDTE0MTAwNDE3MzQxNFoXDTI0MTAwMTE3MzQxNFow
HzEdMBsGA1UEAxMUQ2xpZW50MTA0NUNlcnRhYzE3MjcwggIiMA0GCSqGSIb3DQEB
AQUAA4ICDwAwggIKAoICAQDAJYhEvXdY4AoTc4Cdt/ouxxk3mwrBH2ginFw5z+y/
joQmYpH5tid8tMtAOI8H3AXhWlsLl7Xs8ZnPEqHxa6MeF4K0VOLqoX3p6ZH8VdyR
l7fAgF1t7lraclT6iY4PNtsW8gyZzxPkDJYNoxPhYfADA2qyko+JQGTAAox7P7E/
v4X8dEMR9ihqK/H90bEYovrco1Usn6XzVigwLyLWniOv6XEJ1OEMvhzokPf0zrXJ
vVjNwoZchUAgvi5Bebbz+jxQ5MEuuqTsgxnInD1yu9HqOBu0ZY3KUyot0ASrnz5K
q1m5ilUdwIYJEH5ZVLO1ygWfFcwSv0dP29dszV+7OcHUPnNCbK3TRvkwq7IyRjpj
dQCgMEStIa5w3e9KLPsWJEmsJzpWlx1CWGjVTOMh5HzWuB75p8EZKH9P8srlZYY5
9poLqs2NbgN1ml4ZrDybAafbCiqYHFCBekmq4V1nhRq2m36Avq2z+lWNX3wesFDw
BPJt5fADA5tfbjLUoBvPkWSGPhj/PlgNmS8SxrqSMT7LbFGq0cMKAwyzpihFVTTn
8KEvrBna0J04JlzIKTpfKFyeRS5O14c7MYljYSrm7vCBF1n3UbxbtZ+d1BuEdak8
kbP6zHnJd1HGgFF+eHrfYvTcPsBzl4UTJgxf+R+prvHMvtiJeJFHaeSa0ogSskTS
xwIDAQABo4IBYzCCAV8wCQYDVR0TBAIwADAtBglghkgBhvhCAQ0EIBYeRWFzeS1S
U0EgR2VuZXJhdGVkIENlcnRpZmljYXRlMB0GA1UdDgQWBBQNHsaOeETN6ZfIaPPO
7QGbKXB5kTCB4QYDVR0jBIHZMIHWgBQSzWAE0qCAnnDtxpm4eyzGUv0ZoaGBsqSB
rzCBrDELMAkGA1UEBhMCVVMxCzAJBgNVBAgTAk9IMREwDwYDVQQHEwhDb2x1bWJ1
czESMBAGA1UEChMJVmlraW5nVlBOMR0wGwYDVQQLExRNeU9yZ2FuaXphdGlvbmFs
VW5pdDEVMBMGA1UEAxMMVmlraW5nVlBOIENBMRAwDgYDVQQpEwdFYXN5UlNBMSEw
HwYJKoZIhvcNAQkBFhJtZUBteWhvc3QubXlkb21haW6CCQDPNYXugL8qPjATBgNV
HSUEDDAKBggrBgEFBQcDAjALBgNVHQ8EBAMCB4AwDQYJKoZIhvcNAQEEBQADggIB
AOYhcfjAVaKtXyrJPJ6E5HrnZLUypcSp2GImXXSiTN6r8gx2LlrA3ZcQJFCM/0rr
3AkJGfEfd0x8YkbiAbtLodCVuBmbpFgggQ3DiyrGBIJot3TPW2HLWw/+OOnt8tpx
poL9uiMWr4ERI6oMGsdpr3Mqf3WgXqyXDTL8fL3vl+NpXpJ9PCQS0Ql0Z8JsUTbm
hJmfjvQEB/jkudH/O2Fnt4qpb+s1yJHbez5raYntR4IniwuQEbCvgnicMhkr1Ghh
4cv7bMPTGJl6vpiV3cZMs6UGtnGmlUukf4iBRXs6Tg0hApFfbMIJR1x4QLl5c5dT
jT8lbZP8isAApAU1gzUvDgATXkDYtzSk6s1xp3vQ9FqRU3kY0B0O752CjAjA/udw
3FfjNOYgppo9Qr7ot8g0QlQRWxTWeWohYtZEzVjdux6DQ2ouKxxKYbPVoMDJawzd
ldDlaIHnjFCBudjSNGirjdbCR57zqhAcApP+FZT6oIr6v+5plp0U/6Fu9SJbimvx
ivJoaHRU79zI3hheOuKf2e5JR+epVx/EB8s44IHzmNaCUzT9UDUetG0JxXYCuqgm
Aki7PcPl5xlHQakJvAbgnQI6Z6hvPy5XQ0zgEH7fsZiO2q/ZrozeBSCbEX+D/cXC
hwYQP80EsmRfb4CcJ6g5RIbmetIZcuzaKxvb14sHcOpH
-----END CERTIFICATE-----
