Certificate:
    Data:
        Version: 3 (0x2)
        Serial Number: 3043 (0xbe3)
    Signature Algorithm: md5WithRSAEncryption
        Issuer: C=US, ST=OH, L=Columbus, O=VikingVPN, OU=MyOrganizationalUnit, CN=VikingVPN CA/name=EasyRSA/emailAddress=me@myhost.mydomain
        Validity
            Not Before: Oct  5 19:40:15 2014 GMT
            Not After : Oct  2 19:40:15 2024 GMT
        Subject: CN=Client1049Cert29f9f3
        Subject Public Key Info:
            Public Key Algorithm: rsaEncryption
                Public-Key: (4096 bit)
                Modulus:
                    00:c5:b9:ab:42:a8:77:78:c3:36:34:c0:c8:c4:d5:
                    f6:3f:1a:a2:34:97:e8:8a:ee:3e:aa:1b:c1:17:89:
                    e0:bc:89:ea:a6:df:30:66:34:8f:02:3a:a3:3d:2d:
                    68:cb:3d:b4:04:b4:0f:f0:c9:1d:2e:44:a8:cb:22:
                    93:04:f6:46:ff:85:20:1c:b4:23:c7:32:8b:31:47:
                    6f:d0:3b:cb:bd:81:3b:b6:dc:f0:c9:98:88:80:73:
                    f2:9d:e7:72:5b:ae:4d:bc:9a:7b:d0:dc:36:87:fe:
                    50:72:51:cc:ad:c1:04:c0:de:87:9e:6b:cd:14:2d:
                    b3:0e:f2:04:c3:38:24:94:78:a4:a1:0b:31:21:3a:
                    f3:f8:60:1a:47:96:ad:c8:04:7f:fc:ff:3d:e8:6e:
                    4a:ae:aa:17:fa:ab:d2:93:c5:07:03:f2:36:78:b9:
                    4a:ba:71:76:d3:4b:05:cc:f9:09:57:bf:5e:81:44:
                    8a:2d:30:05:ae:5f:eb:27:8a:71:e0:60:41:1e:cf:
                    cb:1c:e2:c3:fb:4c:f9:d1:95:20:47:27:95:03:79:
                    7d:13:18:d5:45:42:84:0e:1d:5a:e6:56:be:b4:dc:
                    7c:37:8f:81:57:68:6a:57:aa:e7:62:cf:33:cb:51:
                    c3:0a:f4:b7:96:1b:33:ad:2f:34:d9:51:ee:db:97:
                    10:fa:a3:13:a5:bd:60:93:84:6d:c6:8f:c1:d7:f9:
                    87:31:be:c4:ab:1a:59:c5:c0:94:6b:b0:7b:d4:b4:
                    e2:f4:60:b0:21:57:93:61:9e:aa:b5:33:0f:2c:8e:
                    c5:3c:5c:e8:95:d2:fc:20:79:2f:6e:28:cf:34:2e:
                    42:35:1f:81:ee:b6:cc:60:b1:42:99:26:51:65:e8:
                    9b:2f:71:98:bb:78:ad:04:3d:dd:99:74:19:11:8e:
                    b4:2d:30:b6:76:36:48:06:d0:8a:b2:28:9f:96:4a:
                    52:e2:6b:b5:2d:2e:72:6e:17:f0:71:d0:f0:19:67:
                    9e:8f:ba:bd:80:4b:60:c9:dd:99:a3:34:4c:7a:81:
                    7b:45:ee:33:31:cf:03:8d:53:db:66:af:44:16:ae:
                    03:74:83:5f:b5:4b:d6:a2:c2:b7:28:63:54:4c:21:
                    19:8d:25:3a:9c:a8:14:4e:99:d2:ed:ff:40:6c:ca:
                    3e:8e:1c:c0:80:c3:1d:c6:57:40:09:b3:27:61:90:
                    de:7e:46:84:c7:0f:0f:f9:cf:30:db:af:a8:ef:5b:
                    f7:98:cf:1f:2b:02:ac:ba:a2:22:3f:80:1e:c5:4f:
                    b5:70:69:2e:8f:a1:7d:da:ed:73:37:c9:22:0a:f5:
                    9a:4a:85:18:40:73:4c:c8:7c:9f:1a:a4:b6:7e:e7:
                    45:fc:5d
                Exponent: 65537 (0x10001)
        X509v3 extensions:
            X509v3 Basic Constraints: 
                CA:FALSE
            Netscape Comment: 
                Easy-RSA Generated Certificate
            X509v3 Subject Key Identifier: 
                90:75:F4:32:5E:E5:88:C7:F7:58:E1:D9:54:7F:A1:86:CE:86:C9:09
            X509v3 Authority Key Identifier: 
                keyid:12:CD:60:04:D2:A0:80:9E:70:ED:C6:99:B8:7B:2C:C6:52:FD:19:A1
                DirName:/C=US/ST=OH/L=Columbus/O=VikingVPN/OU=MyOrganizationalUnit/CN=VikingVPN CA/name=EasyRSA/emailAddress=me@myhost.mydomain
                serial:CF:35:85:EE:80:BF:2A:3E

            X509v3 Extended Key Usage: 
                TLS Web Client Authentication
            X509v3 Key Usage: 
                Digital Signature
    Signature Algorithm: md5WithRSAEncryption
         7d:f5:ca:5d:f4:bf:c0:b4:22:dc:36:88:39:13:4d:5e:3c:c7:
         ee:17:40:75:88:e9:26:f1:b4:81:7a:7b:ee:f9:34:28:41:eb:
         61:bc:96:fd:18:eb:3f:5a:31:ef:9b:af:b6:34:5a:59:e4:b0:
         72:7c:3a:6d:35:7b:ce:30:8d:16:36:d4:fd:54:17:0a:57:a1:
         46:33:7d:8a:7a:7b:b2:70:49:90:49:58:25:b5:4a:85:19:61:
         41:01:a0:5f:0b:a5:ca:68:74:9f:d5:73:6d:ce:dc:8f:44:1a:
         21:83:74:4e:ee:d5:86:96:90:bd:94:51:7d:69:c9:e9:46:a8:
         7a:2d:37:2b:6e:42:4c:52:b4:57:f5:82:95:12:8b:d0:7a:d6:
         8d:07:66:09:ed:99:19:f5:d7:98:01:7f:79:f8:06:0e:c8:73:
         0a:e8:68:b6:95:9b:f7:42:4e:89:0d:e1:27:88:7f:5a:53:81:
         65:39:ea:10:3d:d8:81:73:18:81:ab:cc:dd:c9:80:f1:8e:5d:
         97:e9:d1:e2:03:5c:bc:90:1e:10:48:9c:c0:93:43:00:89:e8:
         0d:52:cb:f7:7f:ef:3c:93:9e:bb:51:f5:54:73:6e:dc:ef:7a:
         a1:0e:70:71:0e:f3:33:a5:73:ed:12:28:d3:1a:68:13:9b:7d:
         cf:c2:9d:a6:17:4d:cd:8f:01:bd:97:f3:8f:4b:b2:9d:4a:17:
         77:98:9d:f1:e3:15:f4:dd:1b:f7:6c:7f:c1:a9:32:ba:78:15:
         cb:a4:07:58:63:79:e7:d7:fe:33:bf:d7:06:57:fe:fa:5e:7c:
         52:ce:be:d8:68:e6:18:40:23:67:e5:af:29:6e:a6:37:17:39:
         ac:6b:ea:8e:be:79:5d:a2:de:c2:0b:8a:d1:cd:83:d0:8d:f2:
         44:88:60:a4:fd:90:12:0f:b4:f2:ec:90:f1:fb:46:79:0c:ae:
         3a:ad:f5:ea:8e:d2:e8:14:46:d0:0c:e6:9b:b2:75:cb:fd:14:
         0e:38:c7:44:eb:46:07:dc:98:e9:31:a1:2a:e7:b7:e8:18:b0:
         21:88:e5:ed:7d:65:b8:1d:29:31:18:03:64:c6:89:c1:2c:a9:
         4d:1f:7a:5a:28:da:e5:7b:93:44:93:4e:72:dd:94:99:de:e8:
         92:db:41:d3:96:b1:ff:16:e3:d5:c0:29:59:d1:e7:f2:c4:78:
         d2:17:a1:93:ea:c3:39:a2:58:08:12:3e:d4:43:ec:ac:79:15:
         b8:88:ae:6c:ae:53:75:b2:dd:d3:44:02:11:8b:d2:64:9d:c9:
         b7:6a:f8:4f:86:13:cd:f7:7d:c4:a4:d9:96:e9:b3:dc:aa:6a:
         a3:4c:b4:b4:04:c4:8b:b8
-----BEGIN CERTIFICATE-----
MIIGrTCCBJWgAwIBAgICC+MwDQYJKoZIhvcNAQEEBQAwgawxCzAJBgNVBAYTAlVT
MQswCQYDVQQIEwJPSDERMA8GA1UEBxMIQ29sdW1idXMxEjAQBgNVBAoTCVZpa2lu
Z1ZQTjEdMBsGA1UECxMUTXlPcmdhbml6YXRpb25hbFVuaXQxFTATBgNVBAMTDFZp
a2luZ1ZQTiBDQTEQMA4GA1UEKRMHRWFzeVJTQTEhMB8GCSqGSIb3DQEJARYSbWVA
bXlob3N0Lm15ZG9tYWluMB4XDTE0MTAwNTE5NDAxNVoXDTI0MTAwMjE5NDAxNVow
HzEdMBsGA1UEAxMUQ2xpZW50MTA0OUNlcnQyOWY5ZjMwggIiMA0GCSqGSIb3DQEB
AQUAA4ICDwAwggIKAoICAQDFuatCqHd4wzY0wMjE1fY/GqI0l+iK7j6qG8EXieC8
ieqm3zBmNI8COqM9LWjLPbQEtA/wyR0uRKjLIpME9kb/hSActCPHMosxR2/QO8u9
gTu23PDJmIiAc/Kd53Jbrk28mnvQ3DaH/lByUcytwQTA3oeea80ULbMO8gTDOCSU
eKShCzEhOvP4YBpHlq3IBH/8/z3obkquqhf6q9KTxQcD8jZ4uUq6cXbTSwXM+QlX
v16BRIotMAWuX+sninHgYEEez8sc4sP7TPnRlSBHJ5UDeX0TGNVFQoQOHVrmVr60
3Hw3j4FXaGpXqudizzPLUcMK9LeWGzOtLzTZUe7blxD6oxOlvWCThG3Gj8HX+Ycx
vsSrGlnFwJRrsHvUtOL0YLAhV5Nhnqq1Mw8sjsU8XOiV0vwgeS9uKM80LkI1H4Hu
tsxgsUKZJlFl6JsvcZi7eK0EPd2ZdBkRjrQtMLZ2NkgG0IqyKJ+WSlLia7UtLnJu
F/Bx0PAZZ56Pur2AS2DJ3ZmjNEx6gXtF7jMxzwONU9tmr0QWrgN0g1+1S9aiwrco
Y1RMIRmNJTqcqBROmdLt/0Bsyj6OHMCAwx3GV0AJsydhkN5+RoTHDw/5zzDbr6jv
W/eYzx8rAqy6oiI/gB7FT7VwaS6PoX3a7XM3ySIK9ZpKhRhAc0zIfJ8apLZ+50X8
XQIDAQABo4IBYzCCAV8wCQYDVR0TBAIwADAtBglghkgBhvhCAQ0EIBYeRWFzeS1S
U0EgR2VuZXJhdGVkIENlcnRpZmljYXRlMB0GA1UdDgQWBBSQdfQyXuWIx/dY4dlU
f6GGzobJCTCB4QYDVR0jBIHZMIHWgBQSzWAE0qCAnnDtxpm4eyzGUv0ZoaGBsqSB
rzCBrDELMAkGA1UEBhMCVVMxCzAJBgNVBAgTAk9IMREwDwYDVQQHEwhDb2x1bWJ1
czESMBAGA1UEChMJVmlraW5nVlBOMR0wGwYDVQQLExRNeU9yZ2FuaXphdGlvbmFs
VW5pdDEVMBMGA1UEAxMMVmlraW5nVlBOIENBMRAwDgYDVQQpEwdFYXN5UlNBMSEw
HwYJKoZIhvcNAQkBFhJtZUBteWhvc3QubXlkb21haW6CCQDPNYXugL8qPjATBgNV
HSUEDDAKBggrBgEFBQcDAjALBgNVHQ8EBAMCB4AwDQYJKoZIhvcNAQEEBQADggIB
AH31yl30v8C0Itw2iDkTTV48x+4XQHWI6SbxtIF6e+75NChB62G8lv0Y6z9aMe+b
r7Y0WlnksHJ8Om01e84wjRY21P1UFwpXoUYzfYp6e7JwSZBJWCW1SoUZYUEBoF8L
pcpodJ/Vc23O3I9EGiGDdE7u1YaWkL2UUX1pyelGqHotNytuQkxStFf1gpUSi9B6
1o0HZgntmRn115gBf3n4Bg7IcwroaLaVm/dCTokN4SeIf1pTgWU56hA92IFzGIGr
zN3JgPGOXZfp0eIDXLyQHhBInMCTQwCJ6A1Sy/d/7zyTnrtR9VRzbtzveqEOcHEO
8zOlc+0SKNMaaBObfc/CnaYXTc2PAb2X849Lsp1KF3eYnfHjFfTdG/dsf8GpMrp4
FcukB1hjeefX/jO/1wZX/vpefFLOvtho5hhAI2flrylupjcXOaxr6o6+eV2i3sIL
itHNg9CN8kSIYKT9kBIPtPLskPH7RnkMrjqt9eqO0ugURtAM5puydcv9FA44x0Tr
RgfcmOkxoSrnt+gYsCGI5e19ZbgdKTEYA2TGicEsqU0feloo2uV7k0STTnLdlJne
6JLbQdOWsf8W49XAKVnR5/LEeNIXoZPqwzmiWAgSPtRD7Kx5FbiIrmyuU3Wy3dNE
AhGL0mSdybdq+E+GE833fcSk2Zbps9yqaqNMtLQExIu4
-----END CERTIFICATE-----
