Certificate:
    Data:
        Version: 3 (0x2)
        Serial Number: 3094 (0xc16)
    Signature Algorithm: md5WithRSAEncryption
        Issuer: C=US, ST=OH, L=Columbus, O=VikingVPN, OU=MyOrganizationalUnit, CN=VikingVPN CA/name=EasyRSA/emailAddress=me@myhost.mydomain
        Validity
            Not Before: Oct 11 08:42:45 2014 GMT
            Not After : Oct  8 08:42:45 2024 GMT
        Subject: CN=Client597Cert18bc6c
        Subject Public Key Info:
            Public Key Algorithm: rsaEncryption
                Public-Key: (4096 bit)
                Modulus:
                    00:a3:e5:b8:ab:68:02:cb:3b:2b:a5:69:28:a4:ad:
                    43:c3:a4:5f:a9:2f:0a:a2:5d:44:6d:d5:dd:81:f8:
                    9b:e2:34:16:65:3d:bd:7f:ad:e5:23:91:50:1a:09:
                    de:cc:fa:1b:dc:e5:8b:17:5a:d9:9b:4f:72:f6:48:
                    3a:6d:4a:e6:37:c2:02:18:ec:74:ef:e2:e5:87:df:
                    34:1a:82:34:5f:62:62:c7:98:49:ed:92:1b:c6:58:
                    81:de:e0:98:53:5f:ec:32:3c:ee:39:97:77:60:17:
                    29:8e:69:c3:18:72:5b:04:bf:3f:ae:d2:e4:07:4b:
                    7f:1a:16:46:3f:41:6e:e7:3f:da:a5:14:07:82:a7:
                    d8:0b:d9:63:77:fa:cc:b8:06:f9:2b:f3:f1:8a:16:
                    86:8e:fa:a4:82:ea:f4:17:9f:6b:a5:d6:c6:18:83:
                    e4:23:7f:42:b9:0b:bd:47:c3:5e:df:62:89:cd:56:
                    11:6c:6a:65:6d:af:dd:c3:32:04:9d:12:2d:5d:9a:
                    82:bf:03:97:08:5c:40:bc:bc:a2:d7:31:73:46:5b:
                    ee:6c:e1:0a:76:8c:57:b6:83:24:f8:e9:1e:3e:63:
                    5f:d9:59:3f:bc:0e:6d:47:fe:1c:63:77:89:e4:77:
                    fd:e5:f6:f3:12:ae:c9:bc:cd:a9:db:ae:12:19:6f:
                    d0:3d:e9:0d:d6:6a:4d:42:13:61:eb:90:1e:a9:91:
                    29:6a:94:ae:da:2b:7b:b8:25:1b:a8:a5:5e:c3:be:
                    38:6c:fe:bf:5c:83:69:82:be:da:5b:eb:97:fb:35:
                    9a:05:ed:01:8a:ab:9d:72:d6:76:4d:48:c3:2e:e3:
                    db:21:4e:45:1b:5e:2a:d9:4d:03:ae:d8:ef:61:38:
                    47:f1:40:4b:63:ce:8c:6c:b5:0c:d0:f7:1b:c0:54:
                    6f:a6:2a:2b:0f:05:d2:37:90:1c:b5:9a:3e:c8:0b:
                    60:97:c8:33:d6:bc:f8:8c:63:a7:37:55:12:c1:bf:
                    e0:07:fc:fc:a0:31:20:bd:ba:5a:cf:a8:6d:19:1d:
                    78:9d:85:5d:03:6e:cf:2a:42:47:99:8a:29:6e:09:
                    85:5d:30:09:0d:b8:58:e9:f4:ba:8a:ae:29:3c:7c:
                    5d:67:7d:36:c6:98:66:18:f2:3d:83:98:72:f2:26:
                    41:b5:9d:d3:86:52:61:b7:e4:fa:c4:89:d1:3b:19:
                    57:71:c9:76:7b:f2:4e:a2:68:2f:17:14:17:29:1f:
                    1e:63:3b:4e:85:be:c6:67:4a:0c:dd:b4:4f:8e:60:
                    e7:15:94:f9:c3:e8:bb:13:1f:06:ef:80:3e:2b:7d:
                    19:76:86:00:09:24:08:8e:a3:4e:db:d2:65:0e:79:
                    05:3e:f3
                Exponent: 65537 (0x10001)
        X509v3 extensions:
            X509v3 Basic Constraints: 
                CA:FALSE
            Netscape Comment: 
                Easy-RSA Generated Certificate
            X509v3 Subject Key Identifier: 
                20:40:26:F7:E7:73:C6:06:7D:67:29:3F:44:25:B7:FA:70:91:83:F1
            X509v3 Authority Key Identifier: 
                keyid:12:CD:60:04:D2:A0:80:9E:70:ED:C6:99:B8:7B:2C:C6:52:FD:19:A1
                DirName:/C=US/ST=OH/L=Columbus/O=VikingVPN/OU=MyOrganizationalUnit/CN=VikingVPN CA/name=EasyRSA/emailAddress=me@myhost.mydomain
                serial:CF:35:85:EE:80:BF:2A:3E

            X509v3 Extended Key Usage: 
                TLS Web Client Authentication
            X509v3 Key Usage: 
                Digital Signature
    Signature Algorithm: md5WithRSAEncryption
         4f:04:21:70:97:b8:5f:75:2b:30:73:a0:e3:c6:f6:9f:b4:49:
         dc:1d:ec:d5:92:55:05:08:b2:74:b5:1c:e1:dc:d5:cd:ff:d1:
         93:a9:97:b0:97:8f:bc:49:86:78:33:71:d2:96:8f:f2:70:95:
         90:75:81:ed:90:08:1e:af:fb:f8:21:93:10:45:82:3b:94:67:
         21:40:cb:81:dd:0e:a1:ac:66:44:a7:f4:96:ac:ac:8f:c8:46:
         5f:bd:fc:71:0c:f2:a0:84:85:7f:a5:6d:b0:90:e3:30:a9:10:
         5d:7c:65:35:bd:5b:d8:d0:88:c1:fe:c8:7d:1f:b1:fd:42:5d:
         0f:c1:b0:9f:35:e4:db:6c:93:b9:5c:7c:8f:06:43:3f:a2:4f:
         36:0b:56:d6:1e:8f:87:00:ee:ef:98:44:08:5b:25:92:a8:83:
         f1:3f:1a:c5:2d:ab:da:a0:b4:62:dc:ae:d7:68:84:fd:fa:67:
         e6:82:de:09:40:40:47:1b:f5:35:22:92:a7:6d:31:cc:b3:4e:
         6f:7f:c3:36:45:34:af:8a:94:c7:ad:15:0a:6c:1c:f3:96:65:
         b2:49:35:e0:ba:a5:2d:bd:57:4f:c2:0d:3e:cc:67:52:81:e1:
         69:76:06:2a:28:10:e4:e4:fa:e4:f4:e9:8a:a0:f7:71:3d:6e:
         25:04:6a:cd:69:48:97:b1:24:9b:30:8f:07:88:4d:73:0a:9e:
         3c:57:c1:37:05:97:50:77:30:fd:ca:44:e6:23:37:44:d8:96:
         86:e0:d8:be:25:48:05:ed:3e:98:1e:2a:d2:25:1c:bb:77:c0:
         bc:80:9a:4f:ec:35:cc:dc:57:1a:11:ae:3e:ab:e8:1f:ec:c5:
         c5:7f:31:5f:0f:1f:25:b6:fb:19:ce:f9:f4:72:83:a7:8d:49:
         ed:11:45:f8:5d:a6:0e:6a:74:3f:ae:37:52:6e:8f:b2:58:ff:
         4e:68:ec:85:41:e8:a5:f4:21:01:3a:a8:8d:d8:89:fa:be:73:
         1d:12:9b:bb:49:78:7e:6f:ce:5a:50:8c:04:03:a0:b8:7b:e6:
         af:c3:bf:89:69:70:a3:65:07:ae:9a:d9:d9:06:91:a5:39:20:
         89:6d:23:f5:50:1d:0e:f3:3b:61:a8:5d:4b:65:68:65:a8:bd:
         44:d9:cb:64:a2:1e:48:cc:ca:d5:21:64:d1:ef:da:6d:39:74:
         64:41:77:63:6b:ed:4f:b8:98:1f:12:7b:18:ac:29:95:0b:b7:
         a4:7c:0b:55:6b:36:e0:70:93:ff:9d:41:e8:a5:81:92:8c:79:
         9a:eb:85:a2:18:97:2a:6d:5a:9d:47:3d:ea:e1:c3:1e:10:85:
         1d:cc:06:be:64:c4:8b:8f
-----BEGIN CERTIFICATE-----
MIIGrDCCBJSgAwIBAgICDBYwDQYJKoZIhvcNAQEEBQAwgawxCzAJBgNVBAYTAlVT
MQswCQYDVQQIEwJPSDERMA8GA1UEBxMIQ29sdW1idXMxEjAQBgNVBAoTCVZpa2lu
Z1ZQTjEdMBsGA1UECxMUTXlPcmdhbml6YXRpb25hbFVuaXQxFTATBgNVBAMTDFZp
a2luZ1ZQTiBDQTEQMA4GA1UEKRMHRWFzeVJTQTEhMB8GCSqGSIb3DQEJARYSbWVA
bXlob3N0Lm15ZG9tYWluMB4XDTE0MTAxMTA4NDI0NVoXDTI0MTAwODA4NDI0NVow
HjEcMBoGA1UEAxMTQ2xpZW50NTk3Q2VydDE4YmM2YzCCAiIwDQYJKoZIhvcNAQEB
BQADggIPADCCAgoCggIBAKPluKtoAss7K6VpKKStQ8OkX6kvCqJdRG3V3YH4m+I0
FmU9vX+t5SORUBoJ3sz6G9zlixda2ZtPcvZIOm1K5jfCAhjsdO/i5YffNBqCNF9i
YseYSe2SG8ZYgd7gmFNf7DI87jmXd2AXKY5pwxhyWwS/P67S5AdLfxoWRj9Bbuc/
2qUUB4Kn2AvZY3f6zLgG+Svz8YoWho76pILq9Befa6XWxhiD5CN/QrkLvUfDXt9i
ic1WEWxqZW2v3cMyBJ0SLV2agr8DlwhcQLy8otcxc0Zb7mzhCnaMV7aDJPjpHj5j
X9lZP7wObUf+HGN3ieR3/eX28xKuybzNqduuEhlv0D3pDdZqTUITYeuQHqmRKWqU
rtore7glG6ilXsO+OGz+v1yDaYK+2lvrl/s1mgXtAYqrnXLWdk1Iwy7j2yFORRte
KtlNA67Y72E4R/FAS2POjGy1DND3G8BUb6YqKw8F0jeQHLWaPsgLYJfIM9a8+Ixj
pzdVEsG/4Af8/KAxIL26Ws+obRkdeJ2FXQNuzypCR5mKKW4JhV0wCQ24WOn0uoqu
KTx8XWd9NsaYZhjyPYOYcvImQbWd04ZSYbfk+sSJ0TsZV3HJdnvyTqJoLxcUFykf
HmM7ToW+xmdKDN20T45g5xWU+cPouxMfBu+APit9GXaGAAkkCI6jTtvSZQ55BT7z
AgMBAAGjggFjMIIBXzAJBgNVHRMEAjAAMC0GCWCGSAGG+EIBDQQgFh5FYXN5LVJT
QSBHZW5lcmF0ZWQgQ2VydGlmaWNhdGUwHQYDVR0OBBYEFCBAJvfnc8YGfWcpP0Ql
t/pwkYPxMIHhBgNVHSMEgdkwgdaAFBLNYATSoICecO3Gmbh7LMZS/RmhoYGypIGv
MIGsMQswCQYDVQQGEwJVUzELMAkGA1UECBMCT0gxETAPBgNVBAcTCENvbHVtYnVz
MRIwEAYDVQQKEwlWaWtpbmdWUE4xHTAbBgNVBAsTFE15T3JnYW5pemF0aW9uYWxV
bml0MRUwEwYDVQQDEwxWaWtpbmdWUE4gQ0ExEDAOBgNVBCkTB0Vhc3lSU0ExITAf
BgkqhkiG9w0BCQEWEm1lQG15aG9zdC5teWRvbWFpboIJAM81he6Avyo+MBMGA1Ud
JQQMMAoGCCsGAQUFBwMCMAsGA1UdDwQEAwIHgDANBgkqhkiG9w0BAQQFAAOCAgEA
TwQhcJe4X3UrMHOg48b2n7RJ3B3s1ZJVBQiydLUc4dzVzf/Rk6mXsJePvEmGeDNx
0paP8nCVkHWB7ZAIHq/7+CGTEEWCO5RnIUDLgd0OoaxmRKf0lqysj8hGX738cQzy
oISFf6VtsJDjMKkQXXxlNb1b2NCIwf7IfR+x/UJdD8GwnzXk22yTuVx8jwZDP6JP
NgtW1h6PhwDu75hECFslkqiD8T8axS2r2qC0Ytyu12iE/fpn5oLeCUBARxv1NSKS
p20xzLNOb3/DNkU0r4qUx60VCmwc85Zlskk14LqlLb1XT8INPsxnUoHhaXYGKigQ
5OT65PTpiqD3cT1uJQRqzWlIl7EkmzCPB4hNcwqePFfBNwWXUHcw/cpE5iM3RNiW
huDYviVIBe0+mB4q0iUcu3fAvICaT+w1zNxXGhGuPqvoH+zFxX8xXw8fJbb7Gc75
9HKDp41J7RFF+F2mDmp0P643Um6Pslj/TmjshUHopfQhATqojdiJ+r5zHRKbu0l4
fm/OWlCMBAOguHvmr8O/iWlwo2UHrprZ2QaRpTkgiW0j9VAdDvM7YahdS2VoZai9
RNnLZKIeSMzK1SFk0e/abTl0ZEF3Y2vtT7iYHxJ7GKwplQu3pHwLVWs24HCT/51B
6KWBkox5muuFohiXKm1anUc96uHDHhCFHcwGvmTEi48=
-----END CERTIFICATE-----
