Certificate:
    Data:
        Version: 3 (0x2)
        Serial Number: 3121 (0xc31)
    Signature Algorithm: md5WithRSAEncryption
        Issuer: C=US, ST=OH, L=Columbus, O=VikingVPN, OU=MyOrganizationalUnit, CN=VikingVPN CA/name=EasyRSA/emailAddress=me@myhost.mydomain
        Validity
            Not Before: Oct 14 20:47:52 2014 GMT
            Not After : Oct 11 20:47:52 2024 GMT
        Subject: CN=Client1077Certcccf39
        Subject Public Key Info:
            Public Key Algorithm: rsaEncryption
                Public-Key: (4096 bit)
                Modulus:
                    00:d5:3d:bb:13:10:34:5d:b7:ca:6a:80:5e:30:da:
                    89:a4:31:ad:7f:60:e2:fb:e2:05:1e:15:43:dc:7d:
                    ac:98:ca:5a:8b:03:0c:34:4b:a1:85:16:94:04:60:
                    b4:ae:1a:23:04:31:38:d7:5f:a3:ce:a1:8b:49:34:
                    19:63:f9:71:38:e0:18:b0:96:81:15:79:c9:27:a0:
                    dc:8d:a5:1d:d4:f2:13:eb:23:de:dc:67:c3:27:4b:
                    5d:09:65:31:03:ba:5a:2b:b7:3d:54:9f:84:3b:53:
                    eb:56:90:29:be:94:98:08:2e:69:4c:f1:72:96:b1:
                    3e:e9:43:be:b1:30:4b:1c:05:60:fd:f5:64:6b:3a:
                    1a:3f:a3:0c:d1:98:28:b1:47:68:7c:03:0b:1b:62:
                    0b:25:0f:54:65:a9:fc:10:f4:87:7f:ab:5d:8d:4f:
                    d2:a0:c3:2e:18:82:c5:53:9f:0c:95:b0:2a:10:85:
                    9b:61:5c:30:69:8d:0d:b1:88:f3:2b:73:a1:f3:84:
                    a2:77:60:91:63:b6:6b:d4:52:9f:d1:76:c0:39:20:
                    0c:e5:70:db:01:92:75:9b:9f:28:36:74:3f:a4:90:
                    3f:d9:bf:be:b5:19:2b:ad:6c:5a:07:00:34:9a:5c:
                    36:e6:42:cc:4e:26:cf:3f:fe:1f:32:c2:fa:70:54:
                    5e:ab:40:4b:8e:db:ae:a8:83:43:27:54:cc:b3:8d:
                    59:d3:2f:6f:e5:4c:0f:ca:44:b9:2d:75:d5:f3:a3:
                    9f:76:97:2f:53:8b:78:e8:ca:c7:7a:00:00:79:64:
                    b6:f2:f0:93:14:21:f1:c7:be:5b:31:c5:5d:30:ae:
                    54:4d:cf:97:a4:53:04:14:07:59:b9:a3:12:35:22:
                    58:4f:3a:c1:b3:77:c3:84:74:84:4d:de:fd:0f:12:
                    50:e2:76:2a:f8:f5:04:cb:a1:e2:3a:ef:ba:f5:55:
                    59:8d:8c:9e:82:e0:e4:b5:dd:89:f4:15:7b:aa:71:
                    fb:ba:9c:b9:0d:f2:fd:77:2a:33:5a:4d:27:a0:13:
                    8b:c9:31:b0:f9:5b:86:f8:42:cd:8d:0d:fc:f0:fa:
                    dc:d6:c2:6f:5a:e4:3c:b8:1c:bb:4d:5b:63:66:16:
                    0c:ef:9a:39:94:f8:71:9c:e8:2e:7e:fa:26:7f:b3:
                    24:a2:2a:99:7f:8d:db:e5:2f:c3:6e:81:bb:ed:e0:
                    33:18:3c:d6:08:f3:98:45:d3:94:ae:88:92:b6:cd:
                    b0:f2:c2:a4:36:9f:76:1b:11:b4:f7:80:a8:31:67:
                    03:f7:8f:5d:4a:b8:31:fe:05:5e:93:a4:0b:24:27:
                    15:41:6b:57:b5:72:3d:84:26:ab:67:44:65:2f:ba:
                    9f:93:43
                Exponent: 65537 (0x10001)
        X509v3 extensions:
            X509v3 Basic Constraints: 
                CA:FALSE
            Netscape Comment: 
                Easy-RSA Generated Certificate
            X509v3 Subject Key Identifier: 
                FC:D6:6B:48:C7:9E:05:6B:22:A5:25:B8:86:67:A1:98:60:92:EE:13
            X509v3 Authority Key Identifier: 
                keyid:12:CD:60:04:D2:A0:80:9E:70:ED:C6:99:B8:7B:2C:C6:52:FD:19:A1
                DirName:/C=US/ST=OH/L=Columbus/O=VikingVPN/OU=MyOrganizationalUnit/CN=VikingVPN CA/name=EasyRSA/emailAddress=me@myhost.mydomain
                serial:CF:35:85:EE:80:BF:2A:3E

            X509v3 Extended Key Usage: 
                TLS Web Client Authentication
            X509v3 Key Usage: 
                Digital Signature
    Signature Algorithm: md5WithRSAEncryption
         d6:ed:4f:ff:e2:f0:46:6e:45:7d:28:99:b0:8d:6c:da:88:96:
         a4:9a:56:12:02:d0:b2:b3:3f:50:b9:2c:8a:dd:fd:cf:e8:b0:
         f4:66:85:26:75:97:22:c7:0f:f8:b9:56:e5:54:ed:9e:ea:1a:
         fa:f8:93:e4:75:0c:97:99:4d:de:9c:4e:12:80:71:79:6d:a3:
         99:50:cd:dc:c4:0a:2c:78:b1:7c:35:10:59:06:5b:11:55:21:
         89:dd:48:46:4e:2b:e1:64:c5:2a:dc:a5:cc:4c:68:21:ac:9b:
         4f:52:f5:81:80:be:a7:7e:79:30:ad:d9:0d:eb:f4:44:8f:1b:
         09:97:2f:7c:9a:b1:9e:01:02:41:a7:8d:36:7b:ee:f8:89:21:
         4c:4c:a4:a0:3d:31:b6:86:0d:ee:a1:00:17:ff:80:19:91:e2:
         e5:e2:e6:b9:a2:6b:e0:58:56:c5:b1:d5:34:26:92:d8:34:6f:
         98:83:2f:d8:fe:bb:a1:3f:39:30:83:46:36:ca:ba:cd:cf:d4:
         9c:58:8a:90:96:6b:e5:d0:65:ae:06:3c:11:2e:40:78:03:49:
         79:23:ae:35:0d:79:b8:b7:86:18:b2:4a:ac:06:ad:3b:cc:5b:
         c0:ba:c5:0e:7f:85:dc:80:1e:c0:82:d2:d2:88:02:c6:7f:d4:
         eb:7f:b0:a5:08:8e:b9:70:8b:6b:34:a0:63:37:9a:b9:a3:52:
         b5:a7:61:13:8a:1a:a6:96:85:17:b9:e7:24:73:40:52:e5:45:
         ce:0b:26:ca:35:74:3b:18:41:f5:96:ea:9d:89:3d:55:5c:ac:
         d8:02:41:69:af:1d:af:1b:8f:76:51:c0:0e:9c:7f:8a:4a:19:
         1a:2c:38:24:f1:08:52:a8:cc:24:f5:c4:7a:e6:a7:bb:4f:e5:
         24:e6:3c:e7:05:6f:aa:4a:7c:58:8d:d8:63:e3:c5:57:9d:a9:
         b8:fa:6e:5f:ad:18:8a:79:23:21:32:ec:02:87:35:24:23:0a:
         7a:c4:8f:51:58:8e:8e:8c:f0:f2:68:e2:e7:81:a2:32:4a:ba:
         b2:2b:61:e4:87:d0:d5:5c:ef:79:1c:ec:42:fb:d9:9e:64:c3:
         44:4f:09:7f:ef:c8:ea:ce:c1:d6:fb:15:66:16:e0:37:e8:a2:
         36:2e:f8:83:f1:2f:db:d5:35:c8:f7:c2:d0:4e:53:17:c5:8b:
         43:ef:8a:e6:3d:1a:bb:61:db:d4:22:6c:b7:69:49:81:46:de:
         43:c6:51:e2:05:6d:33:7f:24:5b:fe:dd:fd:f0:0c:6e:71:4f:
         c4:b6:b4:61:2c:ec:06:bd:13:47:f1:06:a5:80:4c:0e:ff:04:
         fa:e7:6a:ce:7e:bd:ef:2b
-----BEGIN CERTIFICATE-----
MIIGrTCCBJWgAwIBAgICDDEwDQYJKoZIhvcNAQEEBQAwgawxCzAJBgNVBAYTAlVT
MQswCQYDVQQIEwJPSDERMA8GA1UEBxMIQ29sdW1idXMxEjAQBgNVBAoTCVZpa2lu
Z1ZQTjEdMBsGA1UECxMUTXlPcmdhbml6YXRpb25hbFVuaXQxFTATBgNVBAMTDFZp
a2luZ1ZQTiBDQTEQMA4GA1UEKRMHRWFzeVJTQTEhMB8GCSqGSIb3DQEJARYSbWVA
bXlob3N0Lm15ZG9tYWluMB4XDTE0MTAxNDIwNDc1MloXDTI0MTAxMTIwNDc1Mlow
HzEdMBsGA1UEAxMUQ2xpZW50MTA3N0NlcnRjY2NmMzkwggIiMA0GCSqGSIb3DQEB
AQUAA4ICDwAwggIKAoICAQDVPbsTEDRdt8pqgF4w2omkMa1/YOL74gUeFUPcfayY
ylqLAww0S6GFFpQEYLSuGiMEMTjXX6POoYtJNBlj+XE44BiwloEVecknoNyNpR3U
8hPrI97cZ8MnS10JZTEDulortz1Un4Q7U+tWkCm+lJgILmlM8XKWsT7pQ76xMEsc
BWD99WRrOho/owzRmCixR2h8AwsbYgslD1RlqfwQ9Id/q12NT9Kgwy4YgsVTnwyV
sCoQhZthXDBpjQ2xiPMrc6HzhKJ3YJFjtmvUUp/RdsA5IAzlcNsBknWbnyg2dD+k
kD/Zv761GSutbFoHADSaXDbmQsxOJs8//h8ywvpwVF6rQEuO266og0MnVMyzjVnT
L2/lTA/KRLktddXzo592ly9Ti3joysd6AAB5ZLby8JMUIfHHvlsxxV0wrlRNz5ek
UwQUB1m5oxI1IlhPOsGzd8OEdIRN3v0PElDidir49QTLoeI677r1VVmNjJ6C4OS1
3Yn0FXuqcfu6nLkN8v13KjNaTSegE4vJMbD5W4b4Qs2NDfzw+tzWwm9a5Dy4HLtN
W2NmFgzvmjmU+HGc6C5++iZ/sySiKpl/jdvlL8Nugbvt4DMYPNYI85hF05SuiJK2
zbDywqQ2n3YbEbT3gKgxZwP3j11KuDH+BV6TpAskJxVBa1e1cj2EJqtnRGUvup+T
QwIDAQABo4IBYzCCAV8wCQYDVR0TBAIwADAtBglghkgBhvhCAQ0EIBYeRWFzeS1S
U0EgR2VuZXJhdGVkIENlcnRpZmljYXRlMB0GA1UdDgQWBBT81mtIx54FayKlJbiG
Z6GYYJLuEzCB4QYDVR0jBIHZMIHWgBQSzWAE0qCAnnDtxpm4eyzGUv0ZoaGBsqSB
rzCBrDELMAkGA1UEBhMCVVMxCzAJBgNVBAgTAk9IMREwDwYDVQQHEwhDb2x1bWJ1
czESMBAGA1UEChMJVmlraW5nVlBOMR0wGwYDVQQLExRNeU9yZ2FuaXphdGlvbmFs
VW5pdDEVMBMGA1UEAxMMVmlraW5nVlBOIENBMRAwDgYDVQQpEwdFYXN5UlNBMSEw
HwYJKoZIhvcNAQkBFhJtZUBteWhvc3QubXlkb21haW6CCQDPNYXugL8qPjATBgNV
HSUEDDAKBggrBgEFBQcDAjALBgNVHQ8EBAMCB4AwDQYJKoZIhvcNAQEEBQADggIB
ANbtT//i8EZuRX0ombCNbNqIlqSaVhIC0LKzP1C5LIrd/c/osPRmhSZ1lyLHD/i5
VuVU7Z7qGvr4k+R1DJeZTd6cThKAcXlto5lQzdzECix4sXw1EFkGWxFVIYndSEZO
K+FkxSrcpcxMaCGsm09S9YGAvqd+eTCt2Q3r9ESPGwmXL3yasZ4BAkGnjTZ77viJ
IUxMpKA9MbaGDe6hABf/gBmR4uXi5rmia+BYVsWx1TQmktg0b5iDL9j+u6E/OTCD
RjbKus3P1JxYipCWa+XQZa4GPBEuQHgDSXkjrjUNebi3hhiySqwGrTvMW8C6xQ5/
hdyAHsCC0tKIAsZ/1Ot/sKUIjrlwi2s0oGM3mrmjUrWnYROKGqaWhRe55yRzQFLl
Rc4LJso1dDsYQfWW6p2JPVVcrNgCQWmvHa8bj3ZRwA6cf4pKGRosOCTxCFKozCT1
xHrmp7tP5STmPOcFb6pKfFiN2GPjxVedqbj6bl+tGIp5IyEy7AKHNSQjCnrEj1FY
jo6M8PJo4ueBojJKurIrYeSH0NVc73kc7EL72Z5kw0RPCX/vyOrOwdb7FWYW4Dfo
ojYu+IPxL9vVNcj3wtBOUxfFi0PviuY9Grth29QibLdpSYFG3kPGUeIFbTN/JFv+
3f3wDG5xT8S2tGEs7Aa9E0fxBqWATA7/BPrnas5+ve8r
-----END CERTIFICATE-----
