Certificate:
    Data:
        Version: 3 (0x2)
        Serial Number: 3123 (0xc33)
    Signature Algorithm: md5WithRSAEncryption
        Issuer: C=US, ST=OH, L=Columbus, O=VikingVPN, OU=MyOrganizationalUnit, CN=VikingVPN CA/name=EasyRSA/emailAddress=me@myhost.mydomain
        Validity
            Not Before: Oct 15 01:29:03 2014 GMT
            Not After : Oct 12 01:29:03 2024 GMT
        Subject: CN=Client1044Certc3e2fc
        Subject Public Key Info:
            Public Key Algorithm: rsaEncryption
                Public-Key: (4096 bit)
                Modulus:
                    00:cc:96:f4:c0:c3:1d:12:9d:8a:5b:fd:46:ac:77:
                    26:ec:a9:6d:b4:34:a0:01:6c:ee:6d:90:75:24:c1:
                    85:28:40:3b:e8:08:f3:4f:60:9b:9b:9f:93:2a:da:
                    02:c0:97:4b:86:e6:4a:16:c7:44:e5:d3:f8:85:46:
                    12:dd:fa:0c:85:c4:8b:db:42:bc:53:4d:ea:57:a9:
                    f5:e9:c2:9f:b5:1a:8e:3a:0c:7a:8c:94:59:a7:08:
                    f8:88:bf:75:e1:fe:69:0b:ea:4b:5a:63:2c:3a:84:
                    3b:9e:96:ae:4c:34:0e:38:a3:8d:38:f7:44:10:30:
                    29:0c:62:57:16:69:93:6c:df:d7:7d:f6:2b:8c:6b:
                    af:02:f4:07:58:ec:ba:fb:07:b1:c4:14:68:e2:f8:
                    16:1b:62:01:e3:6e:ed:4e:8b:83:9e:8d:b1:11:43:
                    c6:16:01:25:2e:f5:a4:31:43:14:c0:3d:31:14:3a:
                    bd:9b:a3:4c:32:39:5d:1d:ab:fe:7b:c5:82:a2:40:
                    21:d5:b5:cd:2c:65:ea:e0:ee:a8:14:c0:98:6a:b9:
                    20:07:ba:b7:84:e8:70:17:b2:ea:17:6e:4b:ad:67:
                    9f:ea:b9:7d:07:a4:1a:09:00:df:eb:64:49:e9:cf:
                    8a:54:d1:a7:37:1e:0c:81:0c:fd:51:7d:2d:d3:74:
                    e8:05:e5:53:01:c0:9e:e7:df:26:21:4a:8f:b7:5d:
                    f9:2a:7f:78:fd:fb:2f:2e:5e:c9:e5:cb:3f:c4:8e:
                    fe:5b:5b:56:33:58:30:0f:bd:b8:f5:a2:c2:c8:90:
                    a8:9a:5a:1f:69:fc:5d:a0:29:b1:a2:90:24:26:9a:
                    dd:b1:7d:68:df:e5:15:ea:ce:b6:ae:38:09:55:9f:
                    c9:50:9d:50:e8:f9:fd:f6:a2:ba:61:3d:b8:8d:74:
                    6b:14:08:81:dc:04:d9:4d:1d:3f:48:ec:58:13:04:
                    30:0d:c4:21:f6:2a:6d:c5:af:f6:bb:5c:38:65:6e:
                    64:49:45:c0:01:27:3c:d4:f2:4b:7a:4c:b9:e7:50:
                    9c:c9:a0:74:cb:31:84:8c:54:4f:9c:79:58:f5:b6:
                    fe:1d:cb:31:91:4f:3f:ed:57:bb:05:4f:ec:94:cb:
                    c8:1e:08:c0:eb:23:55:cb:a0:89:69:2e:27:a7:0c:
                    e5:99:9a:5a:c1:0f:23:1c:22:96:79:a3:a1:8d:a4:
                    2d:63:bf:53:9b:b1:bc:4c:23:ab:37:c2:ea:a5:06:
                    51:28:0e:ee:f0:f3:e3:16:05:36:f6:54:86:9f:34:
                    55:05:ef:33:96:8a:20:01:87:5b:cd:a6:57:65:a6:
                    df:e3:5a:76:ce:19:2a:41:bc:67:2c:82:4d:24:fc:
                    87:e0:e5
                Exponent: 65537 (0x10001)
        X509v3 extensions:
            X509v3 Basic Constraints: 
                CA:FALSE
            Netscape Comment: 
                Easy-RSA Generated Certificate
            X509v3 Subject Key Identifier: 
                E0:51:7C:7B:CE:28:81:C7:34:89:41:22:BC:96:F0:23:A8:D4:49:BF
            X509v3 Authority Key Identifier: 
                keyid:12:CD:60:04:D2:A0:80:9E:70:ED:C6:99:B8:7B:2C:C6:52:FD:19:A1
                DirName:/C=US/ST=OH/L=Columbus/O=VikingVPN/OU=MyOrganizationalUnit/CN=VikingVPN CA/name=EasyRSA/emailAddress=me@myhost.mydomain
                serial:CF:35:85:EE:80:BF:2A:3E

            X509v3 Extended Key Usage: 
                TLS Web Client Authentication
            X509v3 Key Usage: 
                Digital Signature
    Signature Algorithm: md5WithRSAEncryption
         1b:f8:8a:5d:d4:ad:2f:b1:f0:4b:48:0f:d4:a3:c0:36:2c:ea:
         86:8e:bf:5b:e4:4c:b2:18:38:b0:64:e6:10:c9:60:9b:0e:d2:
         2d:b5:25:44:9e:ba:2a:02:a1:e4:91:f2:7c:73:fe:95:4e:ea:
         c6:e5:c6:05:dc:24:5d:17:6e:b1:bc:73:1f:b9:af:64:d2:9a:
         74:c5:39:50:1d:51:d7:61:0c:97:cd:b9:8f:ac:d9:58:d5:11:
         92:b2:70:b5:55:ba:25:48:ce:c1:f0:95:30:95:49:01:7c:c0:
         8c:c7:1a:32:97:36:5d:b1:07:7f:44:23:59:16:e7:4d:65:16:
         a8:a3:51:17:fc:0a:64:d7:41:51:49:6b:0b:cd:ab:b0:86:a4:
         fb:e1:60:e5:e1:f5:4a:7c:20:6c:83:4b:85:c1:c7:42:4d:54:
         e1:f4:b5:10:96:b7:47:a5:9e:dd:b5:b5:0f:07:e3:87:3b:cd:
         da:ce:0b:5a:1b:c7:05:6e:5c:1f:98:9d:54:83:26:df:af:26:
         b6:3f:bb:58:7d:26:59:79:1b:a0:16:87:6e:7d:bc:27:1d:82:
         6d:90:d8:40:47:ab:ca:0c:45:db:8d:63:b2:7e:6f:b4:80:77:
         ac:d6:e0:7b:43:59:d4:fa:5a:a4:a6:f3:e4:c8:f7:6a:62:84:
         4e:96:8f:1b:b3:40:c4:b9:cf:56:1c:9e:91:e4:c2:36:cc:3d:
         93:b1:a4:9d:52:da:d9:ff:50:d1:7b:64:25:e9:e7:04:0c:02:
         14:30:6f:f2:33:eb:9b:78:0b:c8:5b:2c:4f:8b:f4:2f:31:2e:
         1f:67:44:b2:9e:52:23:0a:14:b8:26:a5:e2:5e:55:a3:db:7e:
         ff:01:8f:5d:c7:8b:cb:2e:fb:b3:e9:d2:7e:42:57:c1:4b:c0:
         0b:e9:1e:aa:1b:f1:76:1d:17:ba:6a:73:c7:c3:8d:22:ec:36:
         c8:6d:94:ce:ae:ff:44:93:fe:f6:ee:3f:f6:52:d6:b8:08:74:
         9a:96:04:41:2c:b3:41:68:d4:5a:c4:9f:65:d1:61:89:80:03:
         d7:aa:30:8e:b9:6c:a5:20:30:37:35:08:30:f8:3e:42:fe:ad:
         38:52:b8:d1:01:22:1d:ed:e0:6e:0b:43:a4:0e:b2:cc:e4:a8:
         2e:a3:e5:b0:42:a3:bf:3d:ef:89:3a:ad:6c:1b:16:ad:2c:42:
         07:19:d9:0f:c0:92:d3:5d:f3:7a:0e:09:1c:2a:b7:d9:b5:3e:
         bb:41:aa:1b:29:8f:6c:0b:bc:9e:65:6b:62:ff:2d:c7:71:9f:
         dc:00:b0:d9:21:11:35:41:d0:58:e4:56:ec:46:92:87:4f:66:
         c0:0c:55:af:6a:1d:60:b0
-----BEGIN CERTIFICATE-----
MIIGrTCCBJWgAwIBAgICDDMwDQYJKoZIhvcNAQEEBQAwgawxCzAJBgNVBAYTAlVT
MQswCQYDVQQIEwJPSDERMA8GA1UEBxMIQ29sdW1idXMxEjAQBgNVBAoTCVZpa2lu
Z1ZQTjEdMBsGA1UECxMUTXlPcmdhbml6YXRpb25hbFVuaXQxFTATBgNVBAMTDFZp
a2luZ1ZQTiBDQTEQMA4GA1UEKRMHRWFzeVJTQTEhMB8GCSqGSIb3DQEJARYSbWVA
bXlob3N0Lm15ZG9tYWluMB4XDTE0MTAxNTAxMjkwM1oXDTI0MTAxMjAxMjkwM1ow
HzEdMBsGA1UEAxMUQ2xpZW50MTA0NENlcnRjM2UyZmMwggIiMA0GCSqGSIb3DQEB
AQUAA4ICDwAwggIKAoICAQDMlvTAwx0SnYpb/UasdybsqW20NKABbO5tkHUkwYUo
QDvoCPNPYJubn5Mq2gLAl0uG5koWx0Tl0/iFRhLd+gyFxIvbQrxTTepXqfXpwp+1
Go46DHqMlFmnCPiIv3Xh/mkL6ktaYyw6hDuelq5MNA44o40490QQMCkMYlcWaZNs
39d99iuMa68C9AdY7Lr7B7HEFGji+BYbYgHjbu1Oi4OejbERQ8YWASUu9aQxQxTA
PTEUOr2bo0wyOV0dq/57xYKiQCHVtc0sZerg7qgUwJhquSAHureE6HAXsuoXbkut
Z5/quX0HpBoJAN/rZEnpz4pU0ac3HgyBDP1RfS3TdOgF5VMBwJ7n3yYhSo+3Xfkq
f3j9+y8uXsnlyz/Ejv5bW1YzWDAPvbj1osLIkKiaWh9p/F2gKbGikCQmmt2xfWjf
5RXqzrauOAlVn8lQnVDo+f32orphPbiNdGsUCIHcBNlNHT9I7FgTBDANxCH2Km3F
r/a7XDhlbmRJRcABJzzU8kt6TLnnUJzJoHTLMYSMVE+ceVj1tv4dyzGRTz/tV7sF
T+yUy8geCMDrI1XLoIlpLienDOWZmlrBDyMcIpZ5o6GNpC1jv1ObsbxMI6s3wuql
BlEoDu7w8+MWBTb2VIafNFUF7zOWiiABh1vNpldlpt/jWnbOGSpBvGcsgk0k/Ifg
5QIDAQABo4IBYzCCAV8wCQYDVR0TBAIwADAtBglghkgBhvhCAQ0EIBYeRWFzeS1S
U0EgR2VuZXJhdGVkIENlcnRpZmljYXRlMB0GA1UdDgQWBBTgUXx7ziiBxzSJQSK8
lvAjqNRJvzCB4QYDVR0jBIHZMIHWgBQSzWAE0qCAnnDtxpm4eyzGUv0ZoaGBsqSB
rzCBrDELMAkGA1UEBhMCVVMxCzAJBgNVBAgTAk9IMREwDwYDVQQHEwhDb2x1bWJ1
czESMBAGA1UEChMJVmlraW5nVlBOMR0wGwYDVQQLExRNeU9yZ2FuaXphdGlvbmFs
VW5pdDEVMBMGA1UEAxMMVmlraW5nVlBOIENBMRAwDgYDVQQpEwdFYXN5UlNBMSEw
HwYJKoZIhvcNAQkBFhJtZUBteWhvc3QubXlkb21haW6CCQDPNYXugL8qPjATBgNV
HSUEDDAKBggrBgEFBQcDAjALBgNVHQ8EBAMCB4AwDQYJKoZIhvcNAQEEBQADggIB
ABv4il3UrS+x8EtID9SjwDYs6oaOv1vkTLIYOLBk5hDJYJsO0i21JUSeuioCoeSR
8nxz/pVO6sblxgXcJF0XbrG8cx+5r2TSmnTFOVAdUddhDJfNuY+s2VjVEZKycLVV
uiVIzsHwlTCVSQF8wIzHGjKXNl2xB39EI1kW501lFqijURf8CmTXQVFJawvNq7CG
pPvhYOXh9Up8IGyDS4XBx0JNVOH0tRCWt0elnt21tQ8H44c7zdrOC1obxwVuXB+Y
nVSDJt+vJrY/u1h9Jll5G6AWh259vCcdgm2Q2EBHq8oMRduNY7J+b7SAd6zW4HtD
WdT6WqSm8+TI92pihE6WjxuzQMS5z1YcnpHkwjbMPZOxpJ1S2tn/UNF7ZCXp5wQM
AhQwb/Iz65t4C8hbLE+L9C8xLh9nRLKeUiMKFLgmpeJeVaPbfv8Bj13Hi8su+7Pp
0n5CV8FLwAvpHqob8XYdF7pqc8fDjSLsNshtlM6u/0ST/vbuP/ZS1rgIdJqWBEEs
s0Fo1FrEn2XRYYmAA9eqMI65bKUgMDc1CDD4PkL+rThSuNEBIh3t4G4LQ6QOsszk
qC6j5bBCo78974k6rWwbFq0sQgcZ2Q/AktNd83oOCRwqt9m1PrtBqhspj2wLvJ5l
a2L/Lcdxn9wAsNkhETVB0FjkVuxGkodPZsAMVa9qHWCw
-----END CERTIFICATE-----
