Certificate:
    Data:
        Version: 3 (0x2)
        Serial Number: 3126 (0xc36)
    Signature Algorithm: md5WithRSAEncryption
        Issuer: C=US, ST=OH, L=Columbus, O=VikingVPN, OU=MyOrganizationalUnit, CN=VikingVPN CA/name=EasyRSA/emailAddress=me@myhost.mydomain
        Validity
            Not Before: Oct 15 10:53:06 2014 GMT
            Not After : Oct 12 10:53:06 2024 GMT
        Subject: CN=Client1078Certa8fb9e
        Subject Public Key Info:
            Public Key Algorithm: rsaEncryption
                Public-Key: (4096 bit)
                Modulus:
                    00:bb:e3:38:a8:45:ba:25:cc:54:fe:d4:84:a6:5d:
                    f2:8c:9e:fa:3a:fa:70:c9:f1:81:11:94:0f:e5:ba:
                    89:83:cd:ec:d0:c3:c2:1d:11:a5:fa:7c:73:9d:12:
                    53:90:1b:f9:2e:d3:21:9f:20:00:fb:30:50:60:4e:
                    dd:11:2a:26:c0:4c:42:dd:d3:a8:5b:15:2a:0e:f1:
                    01:c0:bd:fc:c6:19:ce:64:20:c9:73:6b:e0:e1:75:
                    f2:7c:6b:cd:56:88:7c:8d:61:a0:55:fc:36:2a:79:
                    82:d6:7e:2b:75:f5:d8:15:ed:0d:34:51:0e:d3:c1:
                    b1:9d:f9:d1:1f:28:89:47:86:a1:be:c9:3d:03:46:
                    e3:98:37:98:40:58:91:bf:4f:bb:e2:45:64:b7:83:
                    27:99:4b:30:0c:cf:66:4d:8c:49:5c:1a:24:6a:be:
                    ed:15:e9:03:72:a7:8b:67:2f:3f:48:37:76:cd:e6:
                    8b:2d:01:5b:21:f9:4b:16:1b:af:32:cd:96:39:0f:
                    0f:43:a9:c2:d0:b7:19:d8:4f:14:b6:a3:6b:98:e8:
                    f4:9b:34:40:de:40:61:19:de:24:f4:0b:43:af:03:
                    94:87:4a:aa:7a:d4:20:34:eb:d1:4d:62:e7:c6:32:
                    50:72:c3:ed:d3:69:cf:01:47:20:3d:48:5c:3e:6a:
                    3f:fe:6f:2b:cf:26:95:67:64:e0:01:35:d2:02:1f:
                    68:31:e4:1a:f4:9d:b5:bd:7d:f4:03:ef:cd:7d:f8:
                    41:16:f6:ae:f8:76:d0:a1:eb:df:50:6d:ed:aa:3a:
                    2c:fa:d8:69:2a:44:97:02:a4:47:31:11:07:7f:68:
                    be:76:5f:cf:18:82:d7:28:88:64:52:e4:01:18:d8:
                    5a:0f:c8:31:89:13:bf:73:4c:97:00:33:6c:fb:1b:
                    ac:fd:49:24:2c:b1:b2:f7:aa:8d:b0:2d:3b:27:46:
                    01:cf:d4:2d:4f:8c:56:ff:a5:45:d5:59:45:37:d0:
                    d1:25:fa:a1:10:49:98:7f:43:c1:e0:9d:1e:93:b4:
                    50:43:bd:b8:c5:cf:74:de:d9:4c:08:15:87:7e:da:
                    e6:46:34:e6:56:03:3b:81:4f:c9:4a:f3:27:1c:63:
                    5f:96:c1:9a:5c:91:8a:fe:fe:36:13:16:4c:2f:11:
                    f8:f3:d6:5d:ed:0a:f4:0e:af:f8:e2:97:ca:d4:14:
                    d7:a3:f2:f1:a1:01:4a:fd:fc:74:c6:83:70:d1:24:
                    18:5b:fe:1b:b0:75:f7:aa:ab:14:e8:5d:57:34:c8:
                    7f:de:c3:4d:64:01:5f:da:db:90:a2:35:f2:24:bb:
                    04:47:70:66:9f:fc:8a:5f:92:14:d7:09:17:cf:2d:
                    74:04:e5
                Exponent: 65537 (0x10001)
        X509v3 extensions:
            X509v3 Basic Constraints: 
                CA:FALSE
            Netscape Comment: 
                Easy-RSA Generated Certificate
            X509v3 Subject Key Identifier: 
                55:4E:7B:42:B6:42:E2:A3:35:60:55:AA:51:FD:73:F7:E3:D0:B2:19
            X509v3 Authority Key Identifier: 
                keyid:12:CD:60:04:D2:A0:80:9E:70:ED:C6:99:B8:7B:2C:C6:52:FD:19:A1
                DirName:/C=US/ST=OH/L=Columbus/O=VikingVPN/OU=MyOrganizationalUnit/CN=VikingVPN CA/name=EasyRSA/emailAddress=me@myhost.mydomain
                serial:CF:35:85:EE:80:BF:2A:3E

            X509v3 Extended Key Usage: 
                TLS Web Client Authentication
            X509v3 Key Usage: 
                Digital Signature
    Signature Algorithm: md5WithRSAEncryption
         99:b2:f1:93:c0:76:55:7c:0b:a4:e0:57:7d:9b:b7:61:24:3a:
         df:a4:e6:b3:3a:e4:b4:22:e8:8b:0d:6a:73:ef:1e:3f:9f:8b:
         4e:7c:56:53:bf:f5:2f:7e:2d:10:64:a9:a1:b3:31:11:43:99:
         1d:d0:c8:14:6d:09:02:a1:ab:c4:92:92:af:be:7b:ca:ef:5d:
         a7:2c:bb:fe:02:ef:95:a5:39:47:53:0f:36:50:59:b4:c6:24:
         c3:f6:86:2d:69:83:1e:c3:37:12:ce:a3:eb:71:33:61:14:fb:
         05:4a:de:0a:5c:53:64:dd:67:a5:26:fa:dd:2c:7f:f0:1d:1f:
         80:8a:52:aa:db:d8:36:44:4b:33:96:f8:c9:29:7c:65:9d:0c:
         3d:5b:e8:26:62:5b:ee:8c:02:83:82:e7:59:f2:6f:8c:15:59:
         64:ae:e5:6e:b0:26:a5:a2:f2:82:b9:d3:ee:d3:a1:2d:60:aa:
         ae:4c:7d:ce:5b:92:86:a2:c1:af:1b:19:34:98:1a:03:16:2b:
         69:71:f1:43:40:6d:56:58:5c:b8:28:a5:d6:a6:32:d8:f1:aa:
         8d:ce:8d:aa:09:31:27:05:e4:78:b2:c2:f9:ae:28:9f:a1:3f:
         dd:ea:0d:0b:2e:f9:6e:2a:38:47:ee:f1:29:fb:4b:91:a7:6f:
         3a:88:9e:9b:02:d5:38:fc:7b:04:9a:98:63:1a:4f:c5:bd:be:
         18:d0:f1:3f:0c:f0:1b:6b:d9:39:61:da:44:9a:f3:ef:88:a9:
         08:cd:f4:63:be:97:60:09:71:39:6c:45:a4:f1:5b:da:6c:19:
         29:ec:c3:05:e7:63:cf:ea:7f:83:4e:a2:33:26:66:24:9d:e3:
         f5:ef:1a:f5:21:48:23:25:b1:c2:7a:17:f8:9e:ee:21:f1:4f:
         71:a8:08:27:ab:99:2a:1e:2c:a4:62:3b:bc:ab:b0:3a:c9:54:
         66:ad:02:f1:2c:26:9f:2a:f5:b9:a6:87:8d:ad:eb:a0:59:4a:
         93:44:38:20:38:1b:c7:aa:fe:28:62:fd:3c:42:be:5f:cb:12:
         ff:2f:58:77:e1:7c:e1:1d:55:97:7c:30:6d:df:f8:87:6b:07:
         b1:bc:af:4b:50:04:b0:aa:bd:21:95:dc:c8:17:36:18:9f:47:
         60:87:d5:74:b7:73:1a:af:d9:3c:9e:b3:1b:20:29:6b:5e:9d:
         e2:1b:50:a4:1f:a4:c4:38:90:dd:28:03:29:51:08:a3:a3:11:
         18:c3:16:28:41:db:f2:b8:79:88:be:21:7e:59:3b:35:4e:fc:
         bb:66:3c:34:fe:93:bc:cf:67:d2:48:2d:4b:cf:6b:88:3c:23:
         6a:ec:ab:74:6f:65:55:2d
-----BEGIN CERTIFICATE-----
MIIGrTCCBJWgAwIBAgICDDYwDQYJKoZIhvcNAQEEBQAwgawxCzAJBgNVBAYTAlVT
MQswCQYDVQQIEwJPSDERMA8GA1UEBxMIQ29sdW1idXMxEjAQBgNVBAoTCVZpa2lu
Z1ZQTjEdMBsGA1UECxMUTXlPcmdhbml6YXRpb25hbFVuaXQxFTATBgNVBAMTDFZp
a2luZ1ZQTiBDQTEQMA4GA1UEKRMHRWFzeVJTQTEhMB8GCSqGSIb3DQEJARYSbWVA
bXlob3N0Lm15ZG9tYWluMB4XDTE0MTAxNTEwNTMwNloXDTI0MTAxMjEwNTMwNlow
HzEdMBsGA1UEAxMUQ2xpZW50MTA3OENlcnRhOGZiOWUwggIiMA0GCSqGSIb3DQEB
AQUAA4ICDwAwggIKAoICAQC74zioRbolzFT+1ISmXfKMnvo6+nDJ8YERlA/luomD
zezQw8IdEaX6fHOdElOQG/ku0yGfIAD7MFBgTt0RKibATELd06hbFSoO8QHAvfzG
Gc5kIMlza+DhdfJ8a81WiHyNYaBV/DYqeYLWfit19dgV7Q00UQ7TwbGd+dEfKIlH
hqG+yT0DRuOYN5hAWJG/T7viRWS3gyeZSzAMz2ZNjElcGiRqvu0V6QNyp4tnLz9I
N3bN5ostAVsh+UsWG68yzZY5Dw9DqcLQtxnYTxS2o2uY6PSbNEDeQGEZ3iT0C0Ov
A5SHSqp61CA069FNYufGMlByw+3Tac8BRyA9SFw+aj/+byvPJpVnZOABNdICH2gx
5Br0nbW9ffQD7819+EEW9q74dtCh699Qbe2qOiz62GkqRJcCpEcxEQd/aL52X88Y
gtcoiGRS5AEY2FoPyDGJE79zTJcAM2z7G6z9SSQssbL3qo2wLTsnRgHP1C1PjFb/
pUXVWUU30NEl+qEQSZh/Q8HgnR6TtFBDvbjFz3Te2UwIFYd+2uZGNOZWAzuBT8lK
8yccY1+WwZpckYr+/jYTFkwvEfjz1l3tCvQOr/jil8rUFNej8vGhAUr9/HTGg3DR
JBhb/huwdfeqqxToXVc0yH/ew01kAV/a25CiNfIkuwRHcGaf/IpfkhTXCRfPLXQE
5QIDAQABo4IBYzCCAV8wCQYDVR0TBAIwADAtBglghkgBhvhCAQ0EIBYeRWFzeS1S
U0EgR2VuZXJhdGVkIENlcnRpZmljYXRlMB0GA1UdDgQWBBRVTntCtkLiozVgVapR
/XP349CyGTCB4QYDVR0jBIHZMIHWgBQSzWAE0qCAnnDtxpm4eyzGUv0ZoaGBsqSB
rzCBrDELMAkGA1UEBhMCVVMxCzAJBgNVBAgTAk9IMREwDwYDVQQHEwhDb2x1bWJ1
czESMBAGA1UEChMJVmlraW5nVlBOMR0wGwYDVQQLExRNeU9yZ2FuaXphdGlvbmFs
VW5pdDEVMBMGA1UEAxMMVmlraW5nVlBOIENBMRAwDgYDVQQpEwdFYXN5UlNBMSEw
HwYJKoZIhvcNAQkBFhJtZUBteWhvc3QubXlkb21haW6CCQDPNYXugL8qPjATBgNV
HSUEDDAKBggrBgEFBQcDAjALBgNVHQ8EBAMCB4AwDQYJKoZIhvcNAQEEBQADggIB
AJmy8ZPAdlV8C6TgV32bt2EkOt+k5rM65LQi6IsNanPvHj+fi058VlO/9S9+LRBk
qaGzMRFDmR3QyBRtCQKhq8SSkq++e8rvXacsu/4C75WlOUdTDzZQWbTGJMP2hi1p
gx7DNxLOo+txM2EU+wVK3gpcU2TdZ6Um+t0sf/AdH4CKUqrb2DZESzOW+MkpfGWd
DD1b6CZiW+6MAoOC51nyb4wVWWSu5W6wJqWi8oK50+7ToS1gqq5Mfc5bkoaiwa8b
GTSYGgMWK2lx8UNAbVZYXLgopdamMtjxqo3OjaoJMScF5HiywvmuKJ+hP93qDQsu
+W4qOEfu8Sn7S5GnbzqInpsC1Tj8ewSamGMaT8W9vhjQ8T8M8Btr2Tlh2kSa8++I
qQjN9GO+l2AJcTlsRaTxW9psGSnswwXnY8/qf4NOojMmZiSd4/XvGvUhSCMlscJ6
F/ie7iHxT3GoCCermSoeLKRiO7yrsDrJVGatAvEsJp8q9bmmh42t66BZSpNEOCA4
G8eq/ihi/TxCvl/LEv8vWHfhfOEdVZd8MG3f+IdrB7G8r0tQBLCqvSGV3MgXNhif
R2CH1XS3cxqv2TyesxsgKWteneIbUKQfpMQ4kN0oAylRCKOjERjDFihB2/K4eYi+
IX5ZOzVO/LtmPDT+k7zPZ9JILUvPa4g8I2rsq3RvZVUt
-----END CERTIFICATE-----
