Certificate:
    Data:
        Version: 3 (0x2)
        Serial Number: 3130 (0xc3a)
    Signature Algorithm: md5WithRSAEncryption
        Issuer: C=US, ST=OH, L=Columbus, O=VikingVPN, OU=MyOrganizationalUnit, CN=VikingVPN CA/name=EasyRSA/emailAddress=me@myhost.mydomain
        Validity
            Not Before: Oct 15 13:44:09 2014 GMT
            Not After : Oct 12 13:44:09 2024 GMT
        Subject: CN=Client1079Cert246440
        Subject Public Key Info:
            Public Key Algorithm: rsaEncryption
                Public-Key: (4096 bit)
                Modulus:
                    00:b2:83:69:f9:97:af:87:08:b6:33:39:02:a8:da:
                    e0:2c:03:f5:bf:8e:17:61:5d:e8:5d:4a:5d:5e:fa:
                    17:e9:7c:44:0c:d2:dd:fa:92:26:bb:1c:91:ff:b2:
                    fc:9e:39:97:02:8e:7b:f4:63:a6:6c:d7:67:d6:f3:
                    ef:0b:b9:86:34:42:2c:bb:5d:5e:b1:df:9c:4e:97:
                    4f:c7:74:9b:82:4f:19:cd:18:bb:22:73:1e:e6:3e:
                    80:13:8a:26:db:d4:f2:2c:0a:3f:a5:5c:7a:68:a0:
                    ad:bb:01:7c:46:ef:61:6f:de:20:b9:08:e2:ad:14:
                    77:a2:17:75:81:81:80:3f:4b:40:56:bd:c4:40:b7:
                    2e:42:df:12:b0:d7:1d:a3:e2:b3:a3:75:10:78:d4:
                    26:cc:98:2c:c5:bc:73:22:51:56:6d:67:62:b7:32:
                    7f:4e:d1:d3:7f:35:71:0c:5d:a5:44:a9:b0:34:ef:
                    a5:7a:6b:d8:cf:92:52:b3:67:82:98:41:78:50:fb:
                    f6:6e:38:81:a0:19:07:e4:d5:1a:5c:79:c4:97:ea:
                    a4:b9:a5:0c:1f:58:53:a3:a6:44:96:9f:52:a6:73:
                    23:51:cb:3b:a2:87:1a:da:ff:36:fb:a9:f5:07:5d:
                    d0:9e:dd:3f:6b:6b:d2:e8:cc:2d:28:a6:8f:23:13:
                    b9:fa:a2:19:a6:41:34:92:8a:61:f7:90:18:e4:24:
                    26:9c:1c:0e:f5:26:9b:1d:98:c2:a4:80:9f:62:8a:
                    ee:ac:a3:dd:36:c3:7a:f0:fd:a0:c9:08:20:ca:11:
                    4a:c9:ae:23:c7:b5:df:67:1d:45:66:63:40:d8:12:
                    8c:6c:aa:11:ab:1b:16:6a:4a:f9:65:58:24:8e:37:
                    e7:c1:91:d7:2c:ad:2b:d0:d4:2e:6b:ce:a4:4f:d2:
                    8f:ca:1e:5b:81:46:61:6d:0e:4b:c7:1c:24:96:20:
                    25:fd:e4:c7:b9:ac:5a:d8:4e:ae:0f:dd:bd:3f:07:
                    67:4d:ef:dd:86:e4:53:05:51:06:19:bb:04:b4:26:
                    22:88:c2:92:9b:d4:d9:4c:0b:be:c9:49:2e:bb:ad:
                    f4:f8:b0:47:f4:84:98:31:ec:c8:fb:6d:e7:19:a7:
                    a0:8c:44:f6:17:47:cb:db:e9:0e:91:84:e5:88:82:
                    85:7d:d1:1e:50:a8:8a:70:bd:f7:11:6f:8a:48:55:
                    fc:99:a9:65:77:0d:73:b2:33:83:d0:98:7a:05:fb:
                    db:39:57:d0:79:53:68:9a:f5:eb:9b:91:85:c9:c3:
                    25:2d:7e:53:55:6c:ed:41:7a:86:0b:9a:93:cb:a6:
                    11:d7:60:31:5c:13:87:a7:00:5e:bd:79:a6:7f:c8:
                    f5:27:4f
                Exponent: 65537 (0x10001)
        X509v3 extensions:
            X509v3 Basic Constraints: 
                CA:FALSE
            Netscape Comment: 
                Easy-RSA Generated Certificate
            X509v3 Subject Key Identifier: 
                7F:27:36:FC:7B:E2:3E:83:DE:EF:6C:EF:57:E1:0A:0E:F4:C2:6A:F2
            X509v3 Authority Key Identifier: 
                keyid:12:CD:60:04:D2:A0:80:9E:70:ED:C6:99:B8:7B:2C:C6:52:FD:19:A1
                DirName:/C=US/ST=OH/L=Columbus/O=VikingVPN/OU=MyOrganizationalUnit/CN=VikingVPN CA/name=EasyRSA/emailAddress=me@myhost.mydomain
                serial:CF:35:85:EE:80:BF:2A:3E

            X509v3 Extended Key Usage: 
                TLS Web Client Authentication
            X509v3 Key Usage: 
                Digital Signature
    Signature Algorithm: md5WithRSAEncryption
         a2:93:8e:ac:00:49:68:10:f3:1a:f8:a4:1b:fa:0b:32:cf:e4:
         4e:b9:6f:3a:6e:36:b0:4a:53:da:d0:bf:fb:dd:d3:a4:74:02:
         82:1a:fb:37:d0:fc:6a:8c:2a:dc:71:85:83:21:50:14:af:57:
         b3:d0:05:db:ff:60:82:9f:fc:06:15:d3:4f:de:9f:8f:cf:98:
         0a:1c:72:56:47:44:7e:e8:0b:df:2f:f4:df:8b:20:ce:81:a3:
         6d:62:a1:0b:74:d1:d1:5f:b7:bb:d5:03:a2:21:cc:a0:47:3a:
         a9:bd:b4:23:45:ae:84:c1:67:65:23:fc:b9:4b:16:be:66:92:
         01:bf:80:8d:a3:0a:8c:d4:8b:26:fe:7a:8c:9d:b8:42:72:33:
         b6:b7:3b:cb:88:16:ac:af:14:d0:33:5e:66:5e:b6:53:33:68:
         0c:b0:99:66:bf:45:6e:aa:05:41:bd:29:a1:e6:ce:66:6d:da:
         03:19:1c:11:56:7f:44:29:a1:b7:48:64:f9:d5:37:22:d8:69:
         69:9c:9e:62:e1:6b:d7:0d:75:f8:09:a4:15:cb:95:24:df:45:
         58:7f:b1:e7:53:38:13:ef:d0:b4:8c:da:1e:9c:7a:ae:eb:46:
         62:f1:62:ca:db:49:65:62:ea:6a:58:31:6a:df:c3:00:7d:a8:
         f4:ef:fa:08:32:b4:f6:f7:2e:db:60:96:f2:e7:65:f5:98:56:
         43:6a:c6:cd:ab:19:30:77:f6:2d:07:ff:b7:ef:0b:12:78:b0:
         be:29:43:3c:f4:58:93:9c:7b:eb:29:86:94:53:17:b4:0a:29:
         7e:90:1a:83:9d:93:b0:3c:b3:fc:43:34:08:06:83:73:c5:7f:
         0c:6b:af:d3:25:56:9f:64:53:c2:42:dd:12:2a:2e:ed:b2:12:
         58:c1:40:35:07:47:38:b2:86:2f:ed:c3:d5:9b:8b:29:5c:82:
         90:f7:5e:f7:4c:2c:b8:79:83:ef:1c:67:2c:61:bd:71:28:e7:
         4b:5d:6d:79:9d:99:4c:00:49:7e:60:a3:d6:13:59:8e:1b:f7:
         23:95:f5:0c:23:a9:08:d6:4d:74:e5:47:2d:da:6a:d9:3b:01:
         0e:2c:72:3a:7d:40:48:00:76:ba:a6:f7:5c:8b:f0:78:31:c3:
         34:94:49:db:fb:eb:88:fe:44:ee:4e:bb:8d:c5:ef:4c:97:c1:
         44:83:05:3f:c0:4f:57:01:9b:c4:ee:1b:c1:d7:d7:8b:de:71:
         b5:7a:fa:b8:a2:98:45:57:0d:f4:85:98:47:9a:74:96:1e:18:
         92:2d:c3:55:b0:f9:58:98:c1:c1:91:d2:b6:c5:c7:11:33:b8:
         45:08:71:72:91:17:d0:4d
-----BEGIN CERTIFICATE-----
MIIGrTCCBJWgAwIBAgICDDowDQYJKoZIhvcNAQEEBQAwgawxCzAJBgNVBAYTAlVT
MQswCQYDVQQIEwJPSDERMA8GA1UEBxMIQ29sdW1idXMxEjAQBgNVBAoTCVZpa2lu
Z1ZQTjEdMBsGA1UECxMUTXlPcmdhbml6YXRpb25hbFVuaXQxFTATBgNVBAMTDFZp
a2luZ1ZQTiBDQTEQMA4GA1UEKRMHRWFzeVJTQTEhMB8GCSqGSIb3DQEJARYSbWVA
bXlob3N0Lm15ZG9tYWluMB4XDTE0MTAxNTEzNDQwOVoXDTI0MTAxMjEzNDQwOVow
HzEdMBsGA1UEAxMUQ2xpZW50MTA3OUNlcnQyNDY0NDAwggIiMA0GCSqGSIb3DQEB
AQUAA4ICDwAwggIKAoICAQCyg2n5l6+HCLYzOQKo2uAsA/W/jhdhXehdSl1e+hfp
fEQM0t36kia7HJH/svyeOZcCjnv0Y6Zs12fW8+8LuYY0Qiy7XV6x35xOl0/HdJuC
TxnNGLsicx7mPoATiibb1PIsCj+lXHpooK27AXxG72Fv3iC5COKtFHeiF3WBgYA/
S0BWvcRAty5C3xKw1x2j4rOjdRB41CbMmCzFvHMiUVZtZ2K3Mn9O0dN/NXEMXaVE
qbA076V6a9jPklKzZ4KYQXhQ+/ZuOIGgGQfk1RpcecSX6qS5pQwfWFOjpkSWn1Km
cyNRyzuihxra/zb7qfUHXdCe3T9ra9LozC0opo8jE7n6ohmmQTSSimH3kBjkJCac
HA71JpsdmMKkgJ9iiu6so902w3rw/aDJCCDKEUrJriPHtd9nHUVmY0DYEoxsqhGr
GxZqSvllWCSON+fBkdcsrSvQ1C5rzqRP0o/KHluBRmFtDkvHHCSWICX95Me5rFrY
Tq4P3b0/B2dN792G5FMFUQYZuwS0JiKIwpKb1NlMC77JSS67rfT4sEf0hJgx7Mj7
becZp6CMRPYXR8vb6Q6RhOWIgoV90R5QqIpwvfcRb4pIVfyZqWV3DXOyM4PQmHoF
+9s5V9B5U2ia9eubkYXJwyUtflNVbO1BeoYLmpPLphHXYDFcE4enAF69eaZ/yPUn
TwIDAQABo4IBYzCCAV8wCQYDVR0TBAIwADAtBglghkgBhvhCAQ0EIBYeRWFzeS1S
U0EgR2VuZXJhdGVkIENlcnRpZmljYXRlMB0GA1UdDgQWBBR/Jzb8e+I+g97vbO9X
4QoO9MJq8jCB4QYDVR0jBIHZMIHWgBQSzWAE0qCAnnDtxpm4eyzGUv0ZoaGBsqSB
rzCBrDELMAkGA1UEBhMCVVMxCzAJBgNVBAgTAk9IMREwDwYDVQQHEwhDb2x1bWJ1
czESMBAGA1UEChMJVmlraW5nVlBOMR0wGwYDVQQLExRNeU9yZ2FuaXphdGlvbmFs
VW5pdDEVMBMGA1UEAxMMVmlraW5nVlBOIENBMRAwDgYDVQQpEwdFYXN5UlNBMSEw
HwYJKoZIhvcNAQkBFhJtZUBteWhvc3QubXlkb21haW6CCQDPNYXugL8qPjATBgNV
HSUEDDAKBggrBgEFBQcDAjALBgNVHQ8EBAMCB4AwDQYJKoZIhvcNAQEEBQADggIB
AKKTjqwASWgQ8xr4pBv6CzLP5E65bzpuNrBKU9rQv/vd06R0AoIa+zfQ/GqMKtxx
hYMhUBSvV7PQBdv/YIKf/AYV00/en4/PmAocclZHRH7oC98v9N+LIM6Bo21ioQt0
0dFft7vVA6IhzKBHOqm9tCNFroTBZ2Uj/LlLFr5mkgG/gI2jCozUiyb+eoyduEJy
M7a3O8uIFqyvFNAzXmZetlMzaAywmWa/RW6qBUG9KaHmzmZt2gMZHBFWf0QpobdI
ZPnVNyLYaWmcnmLha9cNdfgJpBXLlSTfRVh/sedTOBPv0LSM2h6ceq7rRmLxYsrb
SWVi6mpYMWrfwwB9qPTv+ggytPb3LttglvLnZfWYVkNqxs2rGTB39i0H/7fvCxJ4
sL4pQzz0WJOce+sphpRTF7QKKX6QGoOdk7A8s/xDNAgGg3PFfwxrr9MlVp9kU8JC
3RIqLu2yEljBQDUHRziyhi/tw9WbiylcgpD3XvdMLLh5g+8cZyxhvXEo50tdbXmd
mUwASX5go9YTWY4b9yOV9QwjqQjWTXTlRy3aatk7AQ4scjp9QEgAdrqm91yL8Hgx
wzSUSdv764j+RO5Ou43F70yXwUSDBT/AT1cBm8TuG8HX14vecbV6+riimEVXDfSF
mEeadJYeGJItw1Ww+ViYwcGR0rbFxxEzuEUIcXKRF9BN
-----END CERTIFICATE-----
