Certificate:
    Data:
        Version: 3 (0x2)
        Serial Number: 3132 (0xc3c)
    Signature Algorithm: md5WithRSAEncryption
        Issuer: C=US, ST=OH, L=Columbus, O=VikingVPN, OU=MyOrganizationalUnit, CN=VikingVPN CA/name=EasyRSA/emailAddress=me@myhost.mydomain
        Validity
            Not Before: Oct 15 14:55:50 2014 GMT
            Not After : Oct 12 14:55:50 2024 GMT
        Subject: CN=Client884Certa13be4
        Subject Public Key Info:
            Public Key Algorithm: rsaEncryption
                Public-Key: (4096 bit)
                Modulus:
                    00:c0:cb:df:e4:1b:05:b9:e6:58:29:8c:8d:e7:4a:
                    c9:f1:3c:62:90:42:70:4f:43:56:ed:42:6b:b0:4a:
                    a2:9e:32:8d:46:a8:0b:34:e9:74:e0:da:7d:99:b8:
                    d6:7a:12:80:f1:fd:d5:1a:2e:a8:8d:ec:58:47:db:
                    7b:5e:c1:4a:93:ab:ed:d2:29:b0:c7:4f:dc:01:7d:
                    1a:bf:0e:c2:fd:84:89:c3:56:f8:8c:1c:61:28:e1:
                    0f:a1:24:04:44:b7:4d:1d:80:5c:5d:05:8f:1c:2a:
                    13:7d:06:d3:f4:70:58:b5:ac:26:a8:71:25:d8:0a:
                    d1:2c:67:5e:a5:5a:bb:01:d4:55:de:74:f9:25:59:
                    6f:e1:27:3f:61:51:a8:d7:55:dc:a2:30:07:bd:cf:
                    cb:eb:59:8d:6a:c1:bd:42:b8:91:f4:b4:a6:dc:a2:
                    ef:41:e6:6a:4a:95:46:37:3c:2d:ec:90:47:46:0a:
                    de:b4:03:6d:84:c0:05:7c:ba:4c:e7:0f:14:dd:49:
                    68:04:5d:fc:ac:3c:dc:60:16:e3:54:84:3e:ac:04:
                    b9:9b:2a:ee:12:7a:44:d9:d0:ea:13:a1:b1:c9:46:
                    8d:a2:1a:af:3f:6a:34:a7:14:78:aa:a2:d9:05:1a:
                    56:8e:22:76:a8:fd:ed:9e:8a:63:55:dd:b8:af:fa:
                    e5:e2:c0:23:5b:a4:5e:8c:8d:da:98:02:14:bc:cc:
                    c7:8c:4d:b9:b9:40:e1:e5:42:66:0a:f5:c7:10:f5:
                    3c:19:45:bc:34:e6:7a:da:68:ed:06:bb:2f:d1:2c:
                    76:81:03:69:e7:95:0a:37:ff:ea:d4:65:0c:ff:86:
                    63:44:50:d9:e0:6e:9a:73:41:6f:eb:f6:4d:94:2b:
                    0e:da:9c:76:7c:f1:e7:c8:d8:a8:0b:90:d2:ae:3e:
                    c9:42:dc:a9:38:19:48:01:79:0c:03:7f:c3:f4:44:
                    44:e7:11:bf:18:b7:f8:99:08:4d:72:94:44:bb:32:
                    05:e6:78:45:0b:1f:d0:2a:fd:d1:e9:c0:25:f5:c4:
                    22:4b:6c:33:11:c3:d5:2f:af:84:89:e4:f3:a3:5b:
                    78:96:35:2e:bc:dc:f2:c0:6f:ac:88:30:58:34:f7:
                    92:b4:3b:63:e9:44:40:5b:7d:64:6a:9f:c9:5c:c3:
                    f5:44:84:ad:4c:0b:27:4f:99:0f:8c:f2:ad:40:41:
                    f2:73:4f:43:07:28:8a:cd:1d:ac:86:65:d9:10:94:
                    83:ae:74:9e:f3:73:a6:79:5e:bd:a7:e3:84:73:0c:
                    80:7f:8c:b2:a9:e9:58:a2:81:0d:22:b6:29:ad:ce:
                    0a:4a:71:87:62:6d:8f:c5:2c:6a:10:ba:57:e0:0d:
                    e1:d2:e1
                Exponent: 65537 (0x10001)
        X509v3 extensions:
            X509v3 Basic Constraints: 
                CA:FALSE
            Netscape Comment: 
                Easy-RSA Generated Certificate
            X509v3 Subject Key Identifier: 
                AB:99:F3:BB:7E:1F:0F:B1:D0:A9:5D:6D:5B:8C:DC:62:AE:F7:28:A3
            X509v3 Authority Key Identifier: 
                keyid:12:CD:60:04:D2:A0:80:9E:70:ED:C6:99:B8:7B:2C:C6:52:FD:19:A1
                DirName:/C=US/ST=OH/L=Columbus/O=VikingVPN/OU=MyOrganizationalUnit/CN=VikingVPN CA/name=EasyRSA/emailAddress=me@myhost.mydomain
                serial:CF:35:85:EE:80:BF:2A:3E

            X509v3 Extended Key Usage: 
                TLS Web Client Authentication
            X509v3 Key Usage: 
                Digital Signature
    Signature Algorithm: md5WithRSAEncryption
         ac:9e:19:ac:e2:3f:37:97:80:04:fc:a8:11:d7:7d:c0:08:9a:
         8b:22:08:64:56:cc:90:05:97:6e:c0:81:63:3f:e8:7b:5c:ff:
         dd:a7:ec:ba:fb:34:a4:d8:06:30:e9:70:c9:dc:15:ae:9a:e6:
         c0:2a:65:0c:15:2a:63:4e:8a:d3:73:41:ae:82:ad:27:47:23:
         29:53:c1:45:74:48:fb:65:4b:30:5f:40:3f:33:eb:92:b2:e3:
         a3:be:03:26:17:4c:5a:8e:00:3c:dd:be:0b:fc:20:24:c3:13:
         c5:f5:40:d9:6e:e2:4a:b8:1a:fa:51:7e:34:72:2a:0c:05:73:
         a1:cf:30:a8:1a:c6:48:7f:65:5d:66:6c:f9:41:81:26:bf:9e:
         b5:54:c6:d9:9a:d5:99:bb:48:fc:17:3d:c4:98:51:9f:01:98:
         d4:af:49:17:29:96:f0:90:ee:d3:7f:49:98:05:5e:b9:8e:88:
         95:6d:f5:12:fe:30:fd:93:56:f4:4a:d6:16:c8:e7:82:4a:73:
         c0:1d:41:a8:fe:8a:5e:49:1f:23:72:e4:ed:a8:9c:dc:df:96:
         db:18:22:7b:51:bb:fc:66:22:71:0b:22:9b:0d:5a:eb:1b:3a:
         d9:6c:aa:c1:4b:fe:e2:e4:c3:21:81:d8:fa:42:57:bb:c8:7d:
         d2:a7:ff:7c:fb:5b:87:25:ad:d7:35:19:e0:9b:d9:ed:c4:fc:
         fe:3e:fe:0c:04:60:b6:72:71:fe:2c:92:7e:82:31:6a:0c:16:
         6e:51:7f:ff:f0:39:77:57:f8:29:ea:8b:f6:da:a9:73:a3:0a:
         a5:30:6c:40:3d:65:7c:27:3c:2e:c3:6c:e7:8a:c7:0e:fd:a2:
         92:77:b7:dd:10:6e:3f:cf:77:7b:63:1a:27:69:c5:ff:39:02:
         09:b6:2b:74:19:07:2b:bb:35:b3:32:89:a5:ab:38:d2:9e:33:
         dc:9e:6e:cc:10:20:54:0c:2a:c7:8f:9b:9b:e3:d1:d0:26:fa:
         4e:17:9c:a9:8b:c6:3b:ac:78:4a:e5:d9:6e:c0:14:7b:cf:1f:
         f3:c7:bc:f8:5f:9d:5e:06:10:3c:74:3b:30:1e:6a:d1:98:8b:
         f6:b2:f0:ba:ff:7d:9a:d5:bf:ca:50:a1:32:49:8b:cd:6c:d2:
         72:13:10:40:bd:8f:91:9b:9d:94:fe:e9:82:96:44:d9:e7:f9:
         19:a9:b0:51:fe:79:5a:e3:8a:c3:3c:e9:84:64:30:ef:9c:b6:
         e1:ba:5c:e7:e3:2e:6f:30:e1:41:a7:55:91:f5:d6:66:95:1d:
         2f:f6:8d:e5:8d:3b:0c:9d:aa:ef:61:e9:c4:ca:d3:9f:76:9f:
         0b:d3:1d:77:8e:44:55:74
-----BEGIN CERTIFICATE-----
MIIGrDCCBJSgAwIBAgICDDwwDQYJKoZIhvcNAQEEBQAwgawxCzAJBgNVBAYTAlVT
MQswCQYDVQQIEwJPSDERMA8GA1UEBxMIQ29sdW1idXMxEjAQBgNVBAoTCVZpa2lu
Z1ZQTjEdMBsGA1UECxMUTXlPcmdhbml6YXRpb25hbFVuaXQxFTATBgNVBAMTDFZp
a2luZ1ZQTiBDQTEQMA4GA1UEKRMHRWFzeVJTQTEhMB8GCSqGSIb3DQEJARYSbWVA
bXlob3N0Lm15ZG9tYWluMB4XDTE0MTAxNTE0NTU1MFoXDTI0MTAxMjE0NTU1MFow
HjEcMBoGA1UEAxMTQ2xpZW50ODg0Q2VydGExM2JlNDCCAiIwDQYJKoZIhvcNAQEB
BQADggIPADCCAgoCggIBAMDL3+QbBbnmWCmMjedKyfE8YpBCcE9DVu1Ca7BKop4y
jUaoCzTpdODafZm41noSgPH91RouqI3sWEfbe17BSpOr7dIpsMdP3AF9Gr8Owv2E
icNW+IwcYSjhD6EkBES3TR2AXF0FjxwqE30G0/RwWLWsJqhxJdgK0SxnXqVauwHU
Vd50+SVZb+EnP2FRqNdV3KIwB73Py+tZjWrBvUK4kfS0ptyi70HmakqVRjc8LeyQ
R0YK3rQDbYTABXy6TOcPFN1JaARd/Kw83GAW41SEPqwEuZsq7hJ6RNnQ6hOhsclG
jaIarz9qNKcUeKqi2QUaVo4idqj97Z6KY1XduK/65eLAI1ukXoyN2pgCFLzMx4xN
ublA4eVCZgr1xxD1PBlFvDTmetpo7Qa7L9EsdoEDaeeVCjf/6tRlDP+GY0RQ2eBu
mnNBb+v2TZQrDtqcdnzx58jYqAuQ0q4+yULcqTgZSAF5DAN/w/REROcRvxi3+JkI
TXKURLsyBeZ4RQsf0Cr90enAJfXEIktsMxHD1S+vhInk86NbeJY1Lrzc8sBvrIgw
WDT3krQ7Y+lEQFt9ZGqfyVzD9USErUwLJ0+ZD4zyrUBB8nNPQwcois0drIZl2RCU
g650nvNzpnlevafjhHMMgH+MsqnpWKKBDSK2Ka3OCkpxh2Jtj8UsahC6V+AN4dLh
AgMBAAGjggFjMIIBXzAJBgNVHRMEAjAAMC0GCWCGSAGG+EIBDQQgFh5FYXN5LVJT
QSBHZW5lcmF0ZWQgQ2VydGlmaWNhdGUwHQYDVR0OBBYEFKuZ87t+Hw+x0KldbVuM
3GKu9yijMIHhBgNVHSMEgdkwgdaAFBLNYATSoICecO3Gmbh7LMZS/RmhoYGypIGv
MIGsMQswCQYDVQQGEwJVUzELMAkGA1UECBMCT0gxETAPBgNVBAcTCENvbHVtYnVz
MRIwEAYDVQQKEwlWaWtpbmdWUE4xHTAbBgNVBAsTFE15T3JnYW5pemF0aW9uYWxV
bml0MRUwEwYDVQQDEwxWaWtpbmdWUE4gQ0ExEDAOBgNVBCkTB0Vhc3lSU0ExITAf
BgkqhkiG9w0BCQEWEm1lQG15aG9zdC5teWRvbWFpboIJAM81he6Avyo+MBMGA1Ud
JQQMMAoGCCsGAQUFBwMCMAsGA1UdDwQEAwIHgDANBgkqhkiG9w0BAQQFAAOCAgEA
rJ4ZrOI/N5eABPyoEdd9wAiaiyIIZFbMkAWXbsCBYz/oe1z/3afsuvs0pNgGMOlw
ydwVrprmwCplDBUqY06K03NBroKtJ0cjKVPBRXRI+2VLMF9APzPrkrLjo74DJhdM
Wo4APN2+C/wgJMMTxfVA2W7iSrga+lF+NHIqDAVzoc8wqBrGSH9lXWZs+UGBJr+e
tVTG2ZrVmbtI/Bc9xJhRnwGY1K9JFymW8JDu039JmAVeuY6IlW31Ev4w/ZNW9ErW
FsjngkpzwB1BqP6KXkkfI3Lk7aic3N+W2xgie1G7/GYicQsimw1a6xs62WyqwUv+
4uTDIYHY+kJXu8h90qf/fPtbhyWt1zUZ4JvZ7cT8/j7+DARgtnJx/iySfoIxagwW
blF///A5d1f4KeqL9tqpc6MKpTBsQD1lfCc8LsNs54rHDv2ikne33RBuP893e2Ma
J2nF/zkCCbYrdBkHK7s1szKJpas40p4z3J5uzBAgVAwqx4+bm+PR0Cb6ThecqYvG
O6x4SuXZbsAUe88f88e8+F+dXgYQPHQ7MB5q0ZiL9rLwuv99mtW/ylChMkmLzWzS
chMQQL2PkZudlP7pgpZE2ef5GamwUf55WuOKwzzphGQw75y24bpc5+MubzDhQadV
kfXWZpUdL/aN5Y07DJ2q72HpxMrTn3afC9Mdd45EVXQ=
-----END CERTIFICATE-----
