Certificate:
    Data:
        Version: 3 (0x2)
        Serial Number: 3174 (0xc66)
    Signature Algorithm: md5WithRSAEncryption
        Issuer: C=US, ST=OH, L=Columbus, O=VikingVPN, OU=MyOrganizationalUnit, CN=VikingVPN CA/name=EasyRSA/emailAddress=me@myhost.mydomain
        Validity
            Not Before: Oct 22 18:08:42 2014 GMT
            Not After : Oct 19 18:08:42 2024 GMT
        Subject: CN=Client433Cert5de4f0
        Subject Public Key Info:
            Public Key Algorithm: rsaEncryption
                Public-Key: (4096 bit)
                Modulus:
                    00:da:ac:79:7a:fa:e1:fd:91:54:64:38:e5:99:79:
                    dc:4e:9c:fb:68:1d:60:49:46:c8:2b:42:22:fb:ec:
                    38:b8:ef:03:28:23:a0:f1:93:2f:50:fe:1d:63:f8:
                    8c:03:82:e8:f3:31:a8:c1:d6:bf:b0:18:46:50:52:
                    34:b6:67:20:f9:b3:50:a0:87:65:71:01:95:d8:c9:
                    ac:46:26:13:de:58:b3:6a:71:83:c4:d0:bc:7a:fc:
                    88:80:30:22:a7:a5:63:bd:e0:36:68:e1:be:be:ee:
                    1b:a2:e8:5f:e2:a7:73:6e:15:4c:c1:cd:f3:cc:15:
                    d2:29:55:75:96:63:d8:f8:6a:af:39:0e:a1:a2:51:
                    af:59:b6:3a:df:d0:56:f1:72:fa:12:ca:d6:65:20:
                    64:50:14:04:41:77:5b:ec:c6:0e:1f:a0:bd:bf:a5:
                    d6:44:da:10:a7:47:dd:95:db:30:5d:38:f6:01:2b:
                    34:ae:e3:8c:71:58:3f:2b:8a:d8:3e:c7:be:89:62:
                    f0:ba:58:c7:a9:c3:e6:95:a0:0c:c1:35:fa:1d:b3:
                    32:1f:1d:08:fe:de:2c:78:35:98:87:df:e2:d4:2e:
                    8f:d0:0d:7c:78:cf:cd:51:be:d2:85:43:71:49:c5:
                    97:8d:66:a2:6a:7f:1d:1c:40:2f:b1:a1:07:bd:78:
                    f9:4f:35:28:8c:f3:95:12:4b:1a:2a:13:43:6d:32:
                    ab:78:53:c5:a1:a2:22:7a:14:49:71:21:75:7f:d8:
                    93:77:58:0a:13:fb:94:ef:2f:3a:2e:70:83:a7:ca:
                    d5:e7:63:5e:70:bb:1c:8c:95:cc:f4:fd:5d:9b:19:
                    ef:5f:95:2f:c8:d4:0f:10:36:f8:0a:a5:9b:eb:14:
                    1d:64:16:55:4e:95:24:7b:22:e2:2a:44:19:a1:1f:
                    7f:fe:e8:e9:56:cc:d6:4f:7e:7d:43:d5:50:0e:68:
                    20:79:97:be:e1:5d:44:c1:a3:3f:de:e2:5e:8b:42:
                    4b:2e:17:ba:d4:50:4d:40:3c:3d:11:34:68:de:b1:
                    9d:a7:dc:3d:5b:38:77:12:d7:f4:d4:e9:ff:36:70:
                    71:9b:4c:49:d1:ff:97:c2:af:37:78:b4:2d:47:f2:
                    ef:a3:1d:26:d6:95:5e:27:f3:27:70:a7:29:66:f0:
                    59:6c:47:e8:ab:49:0b:e9:3d:0f:cb:e5:8a:bc:c3:
                    56:8e:71:a5:54:36:6a:0b:fd:27:64:ec:96:32:a9:
                    10:7c:97:e6:c6:f9:39:02:2e:61:30:15:51:8c:72:
                    48:58:22:42:0d:47:00:0f:fc:f3:83:61:10:8d:2a:
                    29:f4:02:c1:07:4e:1c:d7:f4:d0:f3:3c:a0:fc:e8:
                    6b:9d:e1
                Exponent: 65537 (0x10001)
        X509v3 extensions:
            X509v3 Basic Constraints: 
                CA:FALSE
            Netscape Comment: 
                Easy-RSA Generated Certificate
            X509v3 Subject Key Identifier: 
                F3:32:B9:CA:50:BE:CF:7C:A1:2C:03:F5:50:98:48:CC:7C:88:93:34
            X509v3 Authority Key Identifier: 
                keyid:12:CD:60:04:D2:A0:80:9E:70:ED:C6:99:B8:7B:2C:C6:52:FD:19:A1
                DirName:/C=US/ST=OH/L=Columbus/O=VikingVPN/OU=MyOrganizationalUnit/CN=VikingVPN CA/name=EasyRSA/emailAddress=me@myhost.mydomain
                serial:CF:35:85:EE:80:BF:2A:3E

            X509v3 Extended Key Usage: 
                TLS Web Client Authentication
            X509v3 Key Usage: 
                Digital Signature
    Signature Algorithm: md5WithRSAEncryption
         29:85:80:ea:9d:cb:37:37:cc:5a:ca:e1:8e:35:9c:8b:47:f7:
         9e:cd:e2:b0:0c:74:82:a8:79:a9:8f:2c:c2:5f:9c:bc:b9:49:
         71:e5:90:ec:ef:42:c3:f7:45:88:39:af:0e:45:72:3a:54:37:
         2a:60:27:ca:11:7b:88:e4:f1:11:6e:08:e5:84:54:b6:f3:e3:
         67:a4:c1:62:1f:4a:7c:c9:0a:19:07:c4:2e:f4:cc:bc:1e:99:
         9c:00:26:8c:fa:05:0b:19:17:08:01:ca:80:29:76:37:c8:3d:
         5b:98:cb:08:17:3c:74:ab:bd:64:22:cd:1b:d8:0f:b0:0a:42:
         b0:f8:08:bd:0b:52:37:22:e6:26:6e:67:25:7a:38:89:da:1f:
         c1:ed:ea:ee:0d:af:5a:9f:b6:dc:9c:9e:8e:3b:de:2f:a2:b2:
         b6:ee:77:31:f9:74:10:bb:5d:96:6e:a2:42:8e:76:43:fb:2f:
         de:85:cf:be:63:d7:c7:c0:44:67:9a:43:b9:29:aa:22:76:e7:
         7a:7e:7f:85:4b:c3:65:e2:2c:f2:63:02:05:f5:07:fb:a9:e6:
         82:aa:4c:c0:57:c6:f0:7b:b1:b4:dd:c5:b4:fc:66:5f:8d:4f:
         56:be:c4:21:8a:45:2e:b9:0d:4a:4e:24:73:4f:d3:e6:8e:82:
         08:3c:b2:eb:58:fa:58:13:4c:01:24:d5:a7:2b:fc:83:cb:70:
         c2:f8:e8:74:33:b0:df:9d:bc:b2:59:1b:2e:83:53:12:72:69:
         7a:79:43:e7:03:57:4d:b0:d7:13:85:c4:2f:fe:29:e5:f9:fb:
         2f:62:06:a8:6c:0f:5d:ae:1a:34:e2:d1:c3:29:86:24:ab:f8:
         cb:5d:d2:2a:d8:c6:b3:45:99:31:af:50:b9:3f:03:12:dd:63:
         5d:bc:51:af:05:0f:ec:0b:58:7d:6d:5d:11:8d:8a:5f:9b:22:
         f7:d4:2f:a8:c4:30:2d:76:14:ea:ad:10:02:35:a5:4b:b3:ba:
         9f:78:a0:39:5c:20:ee:48:f9:7b:79:a5:68:d4:30:43:2f:9f:
         14:4a:d8:50:ad:47:d1:db:4b:3a:95:27:d6:f2:9a:6c:31:d8:
         36:4b:ca:50:31:89:95:65:cf:9a:8d:4c:1c:d0:d5:0c:86:94:
         12:e5:aa:ea:e6:d0:1f:d8:0d:66:63:a7:74:4e:ad:fb:63:f7:
         16:ac:95:f0:c4:c2:b9:a4:4c:f6:34:68:89:00:a1:c8:41:73:
         b7:54:05:36:bb:45:b2:70:2d:85:0e:fa:c6:30:2f:e0:31:aa:
         34:e3:19:b2:fc:57:45:de:8b:62:80:d8:3c:30:e2:97:2b:a3:
         30:37:d4:0b:91:03:ce:a8
-----BEGIN CERTIFICATE-----
MIIGrDCCBJSgAwIBAgICDGYwDQYJKoZIhvcNAQEEBQAwgawxCzAJBgNVBAYTAlVT
MQswCQYDVQQIEwJPSDERMA8GA1UEBxMIQ29sdW1idXMxEjAQBgNVBAoTCVZpa2lu
Z1ZQTjEdMBsGA1UECxMUTXlPcmdhbml6YXRpb25hbFVuaXQxFTATBgNVBAMTDFZp
a2luZ1ZQTiBDQTEQMA4GA1UEKRMHRWFzeVJTQTEhMB8GCSqGSIb3DQEJARYSbWVA
bXlob3N0Lm15ZG9tYWluMB4XDTE0MTAyMjE4MDg0MloXDTI0MTAxOTE4MDg0Mlow
HjEcMBoGA1UEAxMTQ2xpZW50NDMzQ2VydDVkZTRmMDCCAiIwDQYJKoZIhvcNAQEB
BQADggIPADCCAgoCggIBANqseXr64f2RVGQ45Zl53E6c+2gdYElGyCtCIvvsOLjv
AygjoPGTL1D+HWP4jAOC6PMxqMHWv7AYRlBSNLZnIPmzUKCHZXEBldjJrEYmE95Y
s2pxg8TQvHr8iIAwIqelY73gNmjhvr7uG6LoX+Knc24VTMHN88wV0ilVdZZj2Phq
rzkOoaJRr1m2Ot/QVvFy+hLK1mUgZFAUBEF3W+zGDh+gvb+l1kTaEKdH3ZXbMF04
9gErNK7jjHFYPyuK2D7Hvoli8LpYx6nD5pWgDME1+h2zMh8dCP7eLHg1mIff4tQu
j9ANfHjPzVG+0oVDcUnFl41momp/HRxAL7GhB714+U81KIzzlRJLGioTQ20yq3hT
xaGiInoUSXEhdX/Yk3dYChP7lO8vOi5wg6fK1edjXnC7HIyVzPT9XZsZ71+VL8jU
DxA2+Aqlm+sUHWQWVU6VJHsi4ipEGaEff/7o6VbM1k9+fUPVUA5oIHmXvuFdRMGj
P97iXotCSy4XutRQTUA8PRE0aN6xnafcPVs4dxLX9NTp/zZwcZtMSdH/l8KvN3i0
LUfy76MdJtaVXifzJ3CnKWbwWWxH6KtJC+k9D8vlirzDVo5xpVQ2agv9J2TsljKp
EHyX5sb5OQIuYTAVUYxySFgiQg1HAA/884NhEI0qKfQCwQdOHNf00PM8oPzoa53h
AgMBAAGjggFjMIIBXzAJBgNVHRMEAjAAMC0GCWCGSAGG+EIBDQQgFh5FYXN5LVJT
QSBHZW5lcmF0ZWQgQ2VydGlmaWNhdGUwHQYDVR0OBBYEFPMyucpQvs98oSwD9VCY
SMx8iJM0MIHhBgNVHSMEgdkwgdaAFBLNYATSoICecO3Gmbh7LMZS/RmhoYGypIGv
MIGsMQswCQYDVQQGEwJVUzELMAkGA1UECBMCT0gxETAPBgNVBAcTCENvbHVtYnVz
MRIwEAYDVQQKEwlWaWtpbmdWUE4xHTAbBgNVBAsTFE15T3JnYW5pemF0aW9uYWxV
bml0MRUwEwYDVQQDEwxWaWtpbmdWUE4gQ0ExEDAOBgNVBCkTB0Vhc3lSU0ExITAf
BgkqhkiG9w0BCQEWEm1lQG15aG9zdC5teWRvbWFpboIJAM81he6Avyo+MBMGA1Ud
JQQMMAoGCCsGAQUFBwMCMAsGA1UdDwQEAwIHgDANBgkqhkiG9w0BAQQFAAOCAgEA
KYWA6p3LNzfMWsrhjjWci0f3ns3isAx0gqh5qY8swl+cvLlJceWQ7O9Cw/dFiDmv
DkVyOlQ3KmAnyhF7iOTxEW4I5YRUtvPjZ6TBYh9KfMkKGQfELvTMvB6ZnAAmjPoF
CxkXCAHKgCl2N8g9W5jLCBc8dKu9ZCLNG9gPsApCsPgIvQtSNyLmJm5nJXo4idof
we3q7g2vWp+23JyejjveL6Kytu53Mfl0ELtdlm6iQo52Q/sv3oXPvmPXx8BEZ5pD
uSmqInbnen5/hUvDZeIs8mMCBfUH+6nmgqpMwFfG8HuxtN3FtPxmX41PVr7EIYpF
LrkNSk4kc0/T5o6CCDyy61j6WBNMASTVpyv8g8twwvjodDOw3528slkbLoNTEnJp
enlD5wNXTbDXE4XEL/4p5fn7L2IGqGwPXa4aNOLRwymGJKv4y13SKtjGs0WZMa9Q
uT8DEt1jXbxRrwUP7AtYfW1dEY2KX5si99QvqMQwLXYU6q0QAjWlS7O6n3igOVwg
7kj5e3mlaNQwQy+fFErYUK1H0dtLOpUn1vKabDHYNkvKUDGJlWXPmo1MHNDVDIaU
EuWq6ubQH9gNZmOndE6t+2P3FqyV8MTCuaRM9jRoiQChyEFzt1QFNrtFsnAthQ76
xjAv4DGqNOMZsvxXRd6LYoDYPDDilyujMDfUC5EDzqg=
-----END CERTIFICATE-----
