Certificate:
    Data:
        Version: 3 (0x2)
        Serial Number: 3194 (0xc7a)
    Signature Algorithm: md5WithRSAEncryption
        Issuer: C=US, ST=OH, L=Columbus, O=VikingVPN, OU=MyOrganizationalUnit, CN=VikingVPN CA/name=EasyRSA/emailAddress=me@myhost.mydomain
        Validity
            Not Before: Oct 25 16:51:19 2014 GMT
            Not After : Oct 22 16:51:19 2024 GMT
        Subject: CN=Client1110Cert8e1fa9
        Subject Public Key Info:
            Public Key Algorithm: rsaEncryption
                Public-Key: (4096 bit)
                Modulus:
                    00:af:d8:b8:80:3e:a0:28:7f:70:48:46:72:51:92:
                    5c:c2:cf:4d:90:61:d4:cc:01:42:0f:da:3c:e6:eb:
                    bd:ba:4f:65:5c:e1:dc:0d:37:ca:2f:de:83:c5:be:
                    35:59:97:ba:65:a8:d9:5a:43:48:e2:5f:05:a5:9c:
                    29:15:5b:f4:28:e8:b5:4e:e8:49:32:7d:f0:04:e0:
                    42:67:bb:d0:41:97:43:2e:13:3b:11:86:d5:28:4d:
                    6d:bb:ec:81:35:ce:df:26:97:f4:23:e2:9a:70:30:
                    d1:c8:85:62:0a:7d:4d:96:5d:6a:5c:6d:0c:13:c5:
                    34:ba:3a:4b:fd:6e:c5:d5:6e:a6:3f:a6:fe:7e:a4:
                    c5:cc:5c:f6:bd:65:8e:cc:a7:06:ae:ca:d6:a7:04:
                    0a:1f:8b:fe:67:49:ee:eb:7d:ea:f7:57:1b:bd:66:
                    2f:c9:02:b4:bf:a9:35:43:e0:f7:f1:8e:33:c6:8f:
                    15:c2:9a:ec:14:e4:a4:c9:46:74:97:43:dc:9b:e8:
                    47:3d:5c:72:47:45:2e:ff:15:83:5e:36:3c:10:a9:
                    fc:11:d3:12:76:24:c6:cd:f0:5c:1d:8e:23:b9:8b:
                    45:7d:b1:bd:cd:d7:96:59:b4:27:de:6a:c0:04:cd:
                    76:71:1e:18:3b:65:8e:8d:2a:a8:ac:98:eb:8f:49:
                    97:a9:ea:0a:e4:ba:bf:d8:77:c0:32:89:ee:ce:72:
                    e4:97:d8:a5:af:0e:e7:41:04:d3:be:68:7c:f1:be:
                    5d:7b:1a:0c:64:87:42:cb:61:94:de:b4:47:e1:f9:
                    6e:c7:f8:37:c3:ca:fb:be:9c:ee:b3:d2:93:cc:f7:
                    2b:3b:7e:f0:17:a5:cd:63:a0:3e:6e:48:55:f3:4c:
                    d7:d7:50:ac:c9:52:c3:08:51:a0:bd:94:12:89:99:
                    1d:2d:19:d0:87:92:7a:03:f4:64:7d:59:a3:71:83:
                    b8:1b:90:a4:e9:f8:95:e7:e6:74:7a:e7:89:2e:cc:
                    92:ea:7c:14:16:aa:b4:d0:9c:46:fb:ee:95:ed:5b:
                    0c:61:b0:13:c4:fa:9d:d7:9b:89:52:62:09:c1:1c:
                    32:e5:6f:4a:c5:2a:74:cd:3b:3a:8a:59:f5:86:81:
                    4d:b6:39:ad:83:32:a0:aa:3c:42:89:9a:3e:cf:b4:
                    5d:1f:bc:f6:ea:35:11:e1:60:a3:51:8b:e9:cc:14:
                    46:bd:e4:06:f1:5a:29:62:f2:41:89:b3:bf:29:84:
                    51:60:20:1c:f3:ed:7f:64:e8:34:2c:71:5a:7e:fe:
                    11:be:e3:95:1d:92:7e:35:43:b6:a0:89:3c:74:4f:
                    a3:f8:c2:0d:76:d9:fb:70:19:04:92:f4:be:78:25:
                    ca:37:d1
                Exponent: 65537 (0x10001)
        X509v3 extensions:
            X509v3 Basic Constraints: 
                CA:FALSE
            Netscape Comment: 
                Easy-RSA Generated Certificate
            X509v3 Subject Key Identifier: 
                3C:E7:EE:71:9D:F3:52:8A:57:04:B5:02:D2:BC:08:E7:16:9F:90:DE
            X509v3 Authority Key Identifier: 
                keyid:12:CD:60:04:D2:A0:80:9E:70:ED:C6:99:B8:7B:2C:C6:52:FD:19:A1
                DirName:/C=US/ST=OH/L=Columbus/O=VikingVPN/OU=MyOrganizationalUnit/CN=VikingVPN CA/name=EasyRSA/emailAddress=me@myhost.mydomain
                serial:CF:35:85:EE:80:BF:2A:3E

            X509v3 Extended Key Usage: 
                TLS Web Client Authentication
            X509v3 Key Usage: 
                Digital Signature
    Signature Algorithm: md5WithRSAEncryption
         66:ea:0b:9a:99:9b:95:58:ab:89:98:1b:b9:69:07:17:b9:7f:
         36:1c:13:4b:13:6b:09:84:c0:7b:6d:e4:bf:b6:96:99:15:b7:
         2e:bf:f3:56:55:4d:1e:84:8c:14:27:50:6f:f0:6f:28:c9:83:
         6a:f9:a8:52:2f:c3:e3:8e:ec:40:0c:02:dd:94:d1:34:93:a3:
         e2:d9:35:c8:45:ce:db:70:3b:2b:a6:95:77:ca:7c:40:d4:9b:
         04:0f:0f:6d:1f:2b:a6:53:67:f3:5a:4f:2d:cf:47:ff:bb:10:
         33:36:47:9a:76:4a:d7:89:bb:75:68:e6:ab:04:7c:1e:d7:24:
         85:11:d9:e8:48:a8:8c:7d:f9:5c:1b:a4:0f:66:dd:53:a3:a4:
         38:f6:45:31:9b:20:e4:d9:e6:4e:c3:ea:6c:ba:ef:bd:fb:f8:
         37:2c:a1:8e:ef:c0:3f:75:d0:ca:2f:c1:59:9f:75:5c:eb:ef:
         46:ac:1b:f7:f3:d0:60:b3:7b:61:f0:27:03:d6:c5:b8:b6:43:
         bc:63:c4:3b:b6:6b:91:3a:e0:d0:8d:87:93:0d:12:e4:b7:60:
         39:5b:58:bf:b0:34:ec:c2:bb:64:d0:26:a8:94:ff:c3:57:be:
         8c:3b:c3:50:70:6f:c3:22:ee:55:96:1c:20:e6:eb:de:f3:58:
         7b:77:c3:98:8c:21:80:e6:6b:41:68:f8:8b:54:c4:b6:01:9e:
         54:0e:26:1d:f2:94:33:e0:00:02:26:06:a7:0e:d5:5a:4c:36:
         e9:a6:be:4d:23:ee:cd:8a:dc:5b:ee:f4:24:e6:c8:d0:11:b3:
         ee:c2:e6:1c:b1:c0:2d:cc:7c:1b:06:9f:04:d5:2b:33:b4:a2:
         eb:24:7f:a1:09:48:bf:b7:13:78:d6:2d:9b:a3:34:81:4c:54:
         bf:73:5e:50:6d:13:06:02:99:9c:13:76:ce:c3:fd:a0:11:41:
         0f:85:e1:ee:54:45:71:78:78:13:c0:9d:25:38:cd:c1:8b:4f:
         85:0d:d3:e4:8a:2f:40:8e:c9:78:77:be:6d:f2:6f:69:e4:82:
         db:37:37:d9:f5:55:08:ba:88:b1:43:b6:ad:4b:1e:00:32:64:
         73:ea:d0:df:5e:40:62:6a:3a:9f:4b:eb:93:cc:2b:5a:7c:eb:
         14:81:78:d6:e4:e2:4e:c1:a4:62:49:e4:47:ae:43:f8:2e:33:
         61:5c:23:50:21:ec:fa:ea:6b:43:b5:96:4f:5e:fc:f2:b1:dc:
         e0:7c:be:86:b4:2d:9e:d5:f5:d3:f0:f7:c1:e8:b7:93:01:05:
         0c:a3:d3:37:c3:bd:bf:bb:05:7d:09:4a:9a:a4:de:25:fc:ac:
         5e:f1:c4:51:3d:9e:61:f4
-----BEGIN CERTIFICATE-----
MIIGrTCCBJWgAwIBAgICDHowDQYJKoZIhvcNAQEEBQAwgawxCzAJBgNVBAYTAlVT
MQswCQYDVQQIEwJPSDERMA8GA1UEBxMIQ29sdW1idXMxEjAQBgNVBAoTCVZpa2lu
Z1ZQTjEdMBsGA1UECxMUTXlPcmdhbml6YXRpb25hbFVuaXQxFTATBgNVBAMTDFZp
a2luZ1ZQTiBDQTEQMA4GA1UEKRMHRWFzeVJTQTEhMB8GCSqGSIb3DQEJARYSbWVA
bXlob3N0Lm15ZG9tYWluMB4XDTE0MTAyNTE2NTExOVoXDTI0MTAyMjE2NTExOVow
HzEdMBsGA1UEAxMUQ2xpZW50MTExMENlcnQ4ZTFmYTkwggIiMA0GCSqGSIb3DQEB
AQUAA4ICDwAwggIKAoICAQCv2LiAPqAof3BIRnJRklzCz02QYdTMAUIP2jzm6726
T2Vc4dwNN8ov3oPFvjVZl7plqNlaQ0jiXwWlnCkVW/Qo6LVO6EkyffAE4EJnu9BB
l0MuEzsRhtUoTW277IE1zt8ml/Qj4ppwMNHIhWIKfU2WXWpcbQwTxTS6Okv9bsXV
bqY/pv5+pMXMXPa9ZY7MpwauytanBAofi/5nSe7rfer3Vxu9Zi/JArS/qTVD4Pfx
jjPGjxXCmuwU5KTJRnSXQ9yb6Ec9XHJHRS7/FYNeNjwQqfwR0xJ2JMbN8FwdjiO5
i0V9sb3N15ZZtCfeasAEzXZxHhg7ZY6NKqismOuPSZep6grkur/Yd8Ayie7OcuSX
2KWvDudBBNO+aHzxvl17Ggxkh0LLYZTetEfh+W7H+DfDyvu+nO6z0pPM9ys7fvAX
pc1joD5uSFXzTNfXUKzJUsMIUaC9lBKJmR0tGdCHknoD9GR9WaNxg7gbkKTp+JXn
5nR654kuzJLqfBQWqrTQnEb77pXtWwxhsBPE+p3Xm4lSYgnBHDLlb0rFKnTNOzqK
WfWGgU22Oa2DMqCqPEKJmj7PtF0fvPbqNRHhYKNRi+nMFEa95AbxWili8kGJs78p
hFFgIBzz7X9k6DQscVp+/hG+45Udkn41Q7agiTx0T6P4wg122ftwGQSS9L54Jco3
0QIDAQABo4IBYzCCAV8wCQYDVR0TBAIwADAtBglghkgBhvhCAQ0EIBYeRWFzeS1S
U0EgR2VuZXJhdGVkIENlcnRpZmljYXRlMB0GA1UdDgQWBBQ85+5xnfNSilcEtQLS
vAjnFp+Q3jCB4QYDVR0jBIHZMIHWgBQSzWAE0qCAnnDtxpm4eyzGUv0ZoaGBsqSB
rzCBrDELMAkGA1UEBhMCVVMxCzAJBgNVBAgTAk9IMREwDwYDVQQHEwhDb2x1bWJ1
czESMBAGA1UEChMJVmlraW5nVlBOMR0wGwYDVQQLExRNeU9yZ2FuaXphdGlvbmFs
VW5pdDEVMBMGA1UEAxMMVmlraW5nVlBOIENBMRAwDgYDVQQpEwdFYXN5UlNBMSEw
HwYJKoZIhvcNAQkBFhJtZUBteWhvc3QubXlkb21haW6CCQDPNYXugL8qPjATBgNV
HSUEDDAKBggrBgEFBQcDAjALBgNVHQ8EBAMCB4AwDQYJKoZIhvcNAQEEBQADggIB
AGbqC5qZm5VYq4mYG7lpBxe5fzYcE0sTawmEwHtt5L+2lpkVty6/81ZVTR6EjBQn
UG/wbyjJg2r5qFIvw+OO7EAMAt2U0TSTo+LZNchFzttwOyumlXfKfEDUmwQPD20f
K6ZTZ/NaTy3PR/+7EDM2R5p2SteJu3Vo5qsEfB7XJIUR2ehIqIx9+VwbpA9m3VOj
pDj2RTGbIOTZ5k7D6my67737+DcsoY7vwD910MovwVmfdVzr70asG/fz0GCze2Hw
JwPWxbi2Q7xjxDu2a5E64NCNh5MNEuS3YDlbWL+wNOzCu2TQJqiU/8NXvow7w1Bw
b8Mi7lWWHCDm697zWHt3w5iMIYDma0Fo+ItUxLYBnlQOJh3ylDPgAAImBqcO1VpM
Nummvk0j7s2K3Fvu9CTmyNARs+7C5hyxwC3MfBsGnwTVKzO0ouskf6EJSL+3E3jW
LZujNIFMVL9zXlBtEwYCmZwTds7D/aARQQ+F4e5URXF4eBPAnSU4zcGLT4UN0+SK
L0COyXh3vm3yb2nkgts3N9n1VQi6iLFDtq1LHgAyZHPq0N9eQGJqOp9L65PMK1p8
6xSBeNbk4k7BpGJJ5EeuQ/guM2FcI1Ah7Prqa0O1lk9e/PKx3OB8voa0LZ7V9dPw
98Hot5MBBQyj0zfDvb+7BX0JSpqk3iX8rF7xxFE9nmH0
-----END CERTIFICATE-----
