Certificate:
    Data:
        Version: 3 (0x2)
        Serial Number: 3200 (0xc80)
    Signature Algorithm: md5WithRSAEncryption
        Issuer: C=US, ST=OH, L=Columbus, O=VikingVPN, OU=MyOrganizationalUnit, CN=VikingVPN CA/name=EasyRSA/emailAddress=me@myhost.mydomain
        Validity
            Not Before: Oct 27 02:12:43 2014 GMT
            Not After : Oct 24 02:12:43 2024 GMT
        Subject: CN=Client1112Cert05a74b
        Subject Public Key Info:
            Public Key Algorithm: rsaEncryption
                Public-Key: (4096 bit)
                Modulus:
                    00:c9:5f:1a:9b:e8:43:dc:66:13:58:cb:50:b0:7a:
                    3b:6d:ed:4b:45:b0:94:db:b0:33:f3:7e:6b:c5:02:
                    86:98:1b:c5:56:54:43:12:f7:c7:db:99:a9:29:f7:
                    f8:09:4e:29:16:ac:db:ed:ae:d8:b8:cb:7c:c1:2a:
                    b6:bc:9a:db:e0:e2:54:9f:ad:c1:a3:3d:cb:23:d7:
                    7f:b0:b9:f8:bc:a2:aa:3a:07:30:85:ef:21:70:f6:
                    34:f2:31:7f:c5:2c:2d:b7:8f:9a:2b:1f:6b:5b:df:
                    67:15:63:6d:c4:fc:12:08:e7:04:11:13:8a:88:f4:
                    92:5e:88:05:1a:ee:62:82:b9:44:8c:a0:e9:2b:c9:
                    5b:42:58:50:27:48:b6:a4:d5:89:6b:ed:81:4b:e4:
                    cb:16:b0:fd:85:33:e0:7a:6d:f4:48:54:12:b8:cb:
                    8a:8b:f8:b1:ba:3d:bf:db:f7:ec:be:70:cb:31:84:
                    c1:d3:84:45:ce:d3:78:65:dd:1b:eb:b2:8e:6c:1f:
                    61:48:52:a5:46:97:2b:58:ac:ab:c6:e3:ea:d0:b9:
                    0e:a3:ab:61:8e:eb:03:a9:37:e0:e2:a4:1d:46:3c:
                    d4:82:57:23:61:4a:90:4b:00:8c:7f:3c:fb:c8:4f:
                    23:2c:bb:03:55:80:7b:33:5d:18:64:73:0a:f5:50:
                    af:1f:30:2c:fd:ae:21:21:53:be:fa:89:ec:c2:17:
                    56:61:48:f5:ca:a4:7b:03:48:1c:6f:d8:93:54:00:
                    d1:eb:1b:e3:4a:0f:ba:e5:13:e1:e5:66:53:f3:ec:
                    d9:68:00:3e:69:8b:45:40:2a:2c:21:c6:ea:c0:c1:
                    49:78:21:93:01:46:e5:7b:43:85:b9:e7:ca:a7:df:
                    68:c9:72:5b:a8:9b:9a:32:62:dd:3b:dd:c0:63:c1:
                    bd:02:b7:05:31:bd:fa:ff:14:df:92:b6:b2:c6:a3:
                    b3:c9:e1:ed:58:01:06:7b:f7:48:cc:f0:9f:a8:df:
                    ec:0a:2c:52:50:df:00:70:c8:f5:9d:d4:33:25:a8:
                    10:64:94:7c:fd:1f:0b:07:b8:d2:0c:69:92:6b:0d:
                    f5:48:31:7b:e4:74:8c:41:97:a0:5e:e7:15:14:90:
                    8b:13:b5:3b:65:69:7f:f6:14:40:c1:f6:f4:28:06:
                    7c:cc:62:c3:bf:cb:bd:52:47:c0:62:42:de:a7:7b:
                    2c:af:06:7f:44:ec:52:87:e7:07:0e:13:03:13:d0:
                    62:74:5c:36:50:66:e5:40:1a:39:58:79:5a:3b:b6:
                    5c:2c:a3:7f:62:55:cf:b5:06:a7:69:ce:bb:c0:47:
                    6f:33:67:a5:28:9b:4e:b7:0c:36:24:8a:17:c3:91:
                    11:ba:9b
                Exponent: 65537 (0x10001)
        X509v3 extensions:
            X509v3 Basic Constraints: 
                CA:FALSE
            Netscape Comment: 
                Easy-RSA Generated Certificate
            X509v3 Subject Key Identifier: 
                D4:62:C2:3C:77:A2:F5:73:54:2A:AA:8B:80:71:43:22:F1:F8:A2:0B
            X509v3 Authority Key Identifier: 
                keyid:12:CD:60:04:D2:A0:80:9E:70:ED:C6:99:B8:7B:2C:C6:52:FD:19:A1
                DirName:/C=US/ST=OH/L=Columbus/O=VikingVPN/OU=MyOrganizationalUnit/CN=VikingVPN CA/name=EasyRSA/emailAddress=me@myhost.mydomain
                serial:CF:35:85:EE:80:BF:2A:3E

            X509v3 Extended Key Usage: 
                TLS Web Client Authentication
            X509v3 Key Usage: 
                Digital Signature
    Signature Algorithm: md5WithRSAEncryption
         3d:93:c7:a7:13:de:92:50:42:92:6e:34:ef:75:6e:b2:9c:e6:
         3f:ad:bf:55:37:d1:03:42:c5:08:51:4b:c9:3a:65:72:1f:5e:
         0c:64:8f:ed:8e:6d:aa:91:6e:dc:d3:79:28:99:a1:f4:27:25:
         72:0b:39:95:c4:39:6b:06:9d:60:23:4e:9b:a5:37:c1:b9:f9:
         46:c3:ee:fa:11:f4:13:6c:9a:19:80:70:c3:24:0e:d6:00:f4:
         6c:6b:91:7e:62:4b:da:06:30:22:92:1e:c4:5d:df:ed:e7:d1:
         30:63:22:74:90:9f:bd:c3:b2:6d:fc:96:46:e0:4d:4e:b3:45:
         68:d5:ab:d4:c2:5f:96:8e:49:68:9c:c1:2c:77:72:02:ae:9e:
         5f:a1:ea:d4:b9:d9:d3:ab:77:c2:28:73:31:15:4b:73:60:b7:
         fe:8d:43:20:56:a3:3e:79:89:6d:da:e8:73:97:3f:b8:8a:4f:
         b0:0d:5b:fa:80:b3:8b:8a:cc:da:e3:53:eb:88:a4:00:ad:5a:
         06:78:4b:ad:0a:37:6c:f9:e2:99:77:1e:56:3c:e2:c0:2f:ce:
         8a:0b:51:0a:90:05:db:e8:90:82:6c:48:e2:d3:ba:64:f1:de:
         10:58:77:8f:21:54:fe:d0:ce:c4:1f:e0:58:ce:18:1c:7a:5a:
         ef:e8:2c:1d:91:ff:2d:fa:7f:6c:11:bb:8a:f2:8a:d0:97:9e:
         22:f4:a1:87:f6:3a:74:e7:3b:77:04:ec:b0:37:26:45:01:8c:
         07:21:fe:5c:03:b3:a8:af:e6:c9:c0:55:52:9a:62:7a:63:e0:
         ae:df:4a:0b:bb:cc:bf:bc:e9:c0:90:69:44:dc:69:93:ae:72:
         d1:42:32:05:23:22:af:0c:87:34:b9:c9:c3:f1:25:ff:4e:c7:
         d6:50:d2:22:9b:c6:aa:7d:b4:d6:5b:6a:5e:6b:36:04:56:4b:
         33:fd:f0:03:93:45:e9:54:a3:24:42:16:8c:bd:0a:da:88:d7:
         6b:b1:4a:99:4c:a1:99:83:4c:47:09:0b:54:af:f9:46:cc:98:
         a7:88:0e:ab:34:fe:7c:9a:77:2c:eb:fe:ac:57:4f:d7:07:19:
         97:84:6f:f8:5b:25:08:5b:65:fb:3f:8c:73:be:9d:03:b9:9e:
         48:3b:38:2f:fe:05:c8:f5:bb:da:d2:aa:c2:61:1b:31:02:64:
         b5:6d:f3:4a:60:e1:10:79:40:2d:f9:18:f8:8e:a0:bb:38:ac:
         07:f9:ef:83:a5:4f:79:65:b7:bf:3e:55:7e:58:89:3d:3c:47:
         f0:6a:76:ca:92:e0:f4:37:7c:f4:6d:a8:ae:e4:3f:38:77:3a:
         c8:69:69:ea:82:6f:cc:81
-----BEGIN CERTIFICATE-----
MIIGrTCCBJWgAwIBAgICDIAwDQYJKoZIhvcNAQEEBQAwgawxCzAJBgNVBAYTAlVT
MQswCQYDVQQIEwJPSDERMA8GA1UEBxMIQ29sdW1idXMxEjAQBgNVBAoTCVZpa2lu
Z1ZQTjEdMBsGA1UECxMUTXlPcmdhbml6YXRpb25hbFVuaXQxFTATBgNVBAMTDFZp
a2luZ1ZQTiBDQTEQMA4GA1UEKRMHRWFzeVJTQTEhMB8GCSqGSIb3DQEJARYSbWVA
bXlob3N0Lm15ZG9tYWluMB4XDTE0MTAyNzAyMTI0M1oXDTI0MTAyNDAyMTI0M1ow
HzEdMBsGA1UEAxMUQ2xpZW50MTExMkNlcnQwNWE3NGIwggIiMA0GCSqGSIb3DQEB
AQUAA4ICDwAwggIKAoICAQDJXxqb6EPcZhNYy1Cwejtt7UtFsJTbsDPzfmvFAoaY
G8VWVEMS98fbmakp9/gJTikWrNvtrti4y3zBKra8mtvg4lSfrcGjPcsj13+wufi8
oqo6BzCF7yFw9jTyMX/FLC23j5orH2tb32cVY23E/BII5wQRE4qI9JJeiAUa7mKC
uUSMoOkryVtCWFAnSLak1Ylr7YFL5MsWsP2FM+B6bfRIVBK4y4qL+LG6Pb/b9+y+
cMsxhMHThEXO03hl3Rvrso5sH2FIUqVGlytYrKvG4+rQuQ6jq2GO6wOpN+DipB1G
PNSCVyNhSpBLAIx/PPvITyMsuwNVgHszXRhkcwr1UK8fMCz9riEhU776iezCF1Zh
SPXKpHsDSBxv2JNUANHrG+NKD7rlE+HlZlPz7NloAD5pi0VAKiwhxurAwUl4IZMB
RuV7Q4W558qn32jJcluom5oyYt073cBjwb0CtwUxvfr/FN+StrLGo7PJ4e1YAQZ7
90jM8J+o3+wKLFJQ3wBwyPWd1DMlqBBklHz9HwsHuNIMaZJrDfVIMXvkdIxBl6Be
5xUUkIsTtTtlaX/2FEDB9vQoBnzMYsO/y71SR8BiQt6neyyvBn9E7FKH5wcOEwMT
0GJ0XDZQZuVAGjlYeVo7tlwso39iVc+1BqdpzrvAR28zZ6Uom063DDYkihfDkRG6
mwIDAQABo4IBYzCCAV8wCQYDVR0TBAIwADAtBglghkgBhvhCAQ0EIBYeRWFzeS1S
U0EgR2VuZXJhdGVkIENlcnRpZmljYXRlMB0GA1UdDgQWBBTUYsI8d6L1c1QqqouA
cUMi8fiiCzCB4QYDVR0jBIHZMIHWgBQSzWAE0qCAnnDtxpm4eyzGUv0ZoaGBsqSB
rzCBrDELMAkGA1UEBhMCVVMxCzAJBgNVBAgTAk9IMREwDwYDVQQHEwhDb2x1bWJ1
czESMBAGA1UEChMJVmlraW5nVlBOMR0wGwYDVQQLExRNeU9yZ2FuaXphdGlvbmFs
VW5pdDEVMBMGA1UEAxMMVmlraW5nVlBOIENBMRAwDgYDVQQpEwdFYXN5UlNBMSEw
HwYJKoZIhvcNAQkBFhJtZUBteWhvc3QubXlkb21haW6CCQDPNYXugL8qPjATBgNV
HSUEDDAKBggrBgEFBQcDAjALBgNVHQ8EBAMCB4AwDQYJKoZIhvcNAQEEBQADggIB
AD2Tx6cT3pJQQpJuNO91brKc5j+tv1U30QNCxQhRS8k6ZXIfXgxkj+2ObaqRbtzT
eSiZofQnJXILOZXEOWsGnWAjTpulN8G5+UbD7voR9BNsmhmAcMMkDtYA9GxrkX5i
S9oGMCKSHsRd3+3n0TBjInSQn73Dsm38lkbgTU6zRWjVq9TCX5aOSWicwSx3cgKu
nl+h6tS52dOrd8IoczEVS3Ngt/6NQyBWoz55iW3a6HOXP7iKT7ANW/qAs4uKzNrj
U+uIpACtWgZ4S60KN2z54pl3HlY84sAvzooLUQqQBdvokIJsSOLTumTx3hBYd48h
VP7QzsQf4FjOGBx6Wu/oLB2R/y36f2wRu4ryitCXniL0oYf2OnTnO3cE7LA3JkUB
jAch/lwDs6iv5snAVVKaYnpj4K7fSgu7zL+86cCQaUTcaZOuctFCMgUjIq8MhzS5
ycPxJf9Ox9ZQ0iKbxqp9tNZbal5rNgRWSzP98AOTRelUoyRCFoy9CtqI12uxSplM
oZmDTEcJC1Sv+UbMmKeIDqs0/nyadyzr/qxXT9cHGZeEb/hbJQhbZfs/jHO+nQO5
nkg7OC/+Bcj1u9rSqsJhGzECZLVt80pg4RB5QC35GPiOoLs4rAf574OlT3llt78+
VX5YiT08R/BqdsqS4PQ3fPRtqK7kPzh3OshpaeqCb8yB
-----END CERTIFICATE-----
