Certificate:
    Data:
        Version: 3 (0x2)
        Serial Number: 3215 (0xc8f)
    Signature Algorithm: md5WithRSAEncryption
        Issuer: C=US, ST=OH, L=Columbus, O=VikingVPN, OU=MyOrganizationalUnit, CN=VikingVPN CA/name=EasyRSA/emailAddress=me@myhost.mydomain
        Validity
            Not Before: Oct 29 01:13:11 2014 GMT
            Not After : Oct 26 01:13:11 2024 GMT
        Subject: CN=Client1115Cert7d1a2e
        Subject Public Key Info:
            Public Key Algorithm: rsaEncryption
                Public-Key: (4096 bit)
                Modulus:
                    00:e2:31:54:2e:44:b1:84:50:60:51:f3:7c:eb:87:
                    9f:7d:12:d0:fe:18:e3:3e:10:0d:d5:7c:54:ec:2e:
                    5a:19:a3:dd:8b:0a:5e:3e:0e:0e:53:7e:73:bd:ec:
                    f3:8f:41:4e:c3:31:a6:c3:f4:29:6c:4a:12:e4:9d:
                    49:c2:e8:2a:66:8f:25:4c:d5:03:e4:0d:fe:03:fa:
                    14:c1:d2:e3:73:1c:de:3c:32:cd:6c:02:c6:e3:5a:
                    c1:61:1f:94:99:5f:4c:38:66:5c:49:5a:a3:83:57:
                    32:74:b8:83:1e:82:61:bf:d8:38:d2:b0:10:80:91:
                    cc:72:1d:75:ff:7c:a3:02:99:7c:83:21:df:2f:b8:
                    24:4e:6c:6f:37:d5:6c:6d:8f:41:c2:eb:fc:8b:2e:
                    82:9f:85:6b:95:53:aa:31:19:dd:4d:a7:03:16:92:
                    19:da:47:47:ba:cb:1a:6d:35:7a:a7:59:11:d8:b6:
                    59:9a:00:15:af:7f:38:92:92:ef:85:2a:64:bd:30:
                    a9:48:82:b7:3c:dc:e2:ae:17:c9:44:a4:52:c5:3a:
                    93:2d:2f:d5:e4:1e:98:57:d5:cb:0d:6b:94:da:e6:
                    40:ef:ee:70:b7:e1:90:a5:8a:4a:29:64:03:59:17:
                    58:dd:95:b8:f8:c4:68:9d:f5:d4:0e:40:d0:b2:6b:
                    49:8b:87:51:2a:03:59:21:56:50:96:27:ad:ff:d9:
                    29:a1:c0:16:c2:87:63:25:82:c1:68:16:5d:0b:d6:
                    3c:d1:39:55:bb:8f:ed:86:67:7f:f9:9f:18:98:7f:
                    f5:cf:8d:a6:61:84:82:f1:9d:e9:09:93:df:4a:fb:
                    34:7a:1e:18:55:5e:9b:59:95:30:95:79:1a:9b:d2:
                    c9:3b:57:d4:39:02:11:c8:10:a5:5d:dc:7e:65:87:
                    6d:6e:1d:39:6c:86:76:7d:7d:81:f8:c2:ca:f7:ae:
                    a0:25:18:72:f3:8e:f9:0d:f3:4b:27:42:b5:7b:d3:
                    f0:05:14:de:57:be:9e:fa:03:52:0b:31:d4:0a:cc:
                    f6:90:3a:a4:b4:73:3a:9e:1c:4c:f7:96:5a:e1:05:
                    8f:5c:b5:5a:09:43:99:b1:46:39:ab:e0:8b:22:04:
                    04:2c:91:e8:4c:6b:0a:b7:60:3a:f6:90:06:ca:64:
                    3d:3b:29:49:15:cd:a7:41:0b:9a:65:d0:f3:a3:78:
                    29:ae:d4:d5:24:18:d8:f5:9e:a0:0e:cd:0b:07:dd:
                    f5:9c:3b:42:7f:27:f0:dc:37:12:cd:65:9c:12:a8:
                    0e:81:6f:28:0e:70:6b:b6:77:22:4d:94:a6:7e:eb:
                    7a:b5:d4:36:ad:fe:30:89:2b:45:d5:b8:bc:d5:41:
                    40:b0:df
                Exponent: 65537 (0x10001)
        X509v3 extensions:
            X509v3 Basic Constraints: 
                CA:FALSE
            Netscape Comment: 
                Easy-RSA Generated Certificate
            X509v3 Subject Key Identifier: 
                2C:F9:6A:8E:33:30:01:54:3E:47:EF:83:81:05:58:04:BA:8E:33:53
            X509v3 Authority Key Identifier: 
                keyid:12:CD:60:04:D2:A0:80:9E:70:ED:C6:99:B8:7B:2C:C6:52:FD:19:A1
                DirName:/C=US/ST=OH/L=Columbus/O=VikingVPN/OU=MyOrganizationalUnit/CN=VikingVPN CA/name=EasyRSA/emailAddress=me@myhost.mydomain
                serial:CF:35:85:EE:80:BF:2A:3E

            X509v3 Extended Key Usage: 
                TLS Web Client Authentication
            X509v3 Key Usage: 
                Digital Signature
    Signature Algorithm: md5WithRSAEncryption
         0a:00:4a:64:4d:08:25:43:c5:65:f2:2c:e6:5e:70:48:6e:ec:
         12:de:55:fa:e5:98:ed:f2:b5:aa:11:7f:12:f3:61:55:62:02:
         5c:36:ce:69:2f:b3:0f:42:37:05:d9:1e:71:38:f2:24:25:c1:
         bc:5f:d9:ce:e0:9c:1e:dd:76:86:0f:83:e7:d3:7a:1a:af:95:
         ad:29:e3:09:f3:2a:cb:de:60:da:0c:85:50:09:79:fa:25:08:
         1c:43:1d:7d:12:39:13:66:5c:16:94:da:c6:61:47:77:3a:e5:
         35:04:a7:7a:3c:b8:aa:bc:e1:c0:57:4c:8f:91:03:c1:b6:cd:
         6c:8e:12:c9:90:32:18:78:81:7f:a1:cb:91:f4:85:f2:a0:cd:
         07:f4:d8:97:7a:ae:9f:a6:9c:eb:81:e8:0f:dc:28:89:e5:3f:
         05:98:f0:12:20:5d:ba:a8:b9:4a:53:4a:40:fa:12:71:13:6d:
         fe:36:2a:ef:cd:b9:61:f1:f0:49:63:4f:c5:e8:c2:29:36:30:
         2d:2e:97:49:e7:dd:53:e8:4f:86:79:41:5f:10:17:65:21:66:
         37:1e:df:3a:6f:95:07:10:fc:18:a7:45:b4:7b:d2:b8:8a:19:
         da:3e:57:de:39:90:8f:1e:8d:61:74:22:69:bc:78:0d:4e:4e:
         9e:75:f8:55:e4:4b:ad:4f:71:d4:0f:db:75:46:cb:f5:bc:79:
         fa:12:11:e5:79:fd:42:bd:a4:63:53:e9:78:f4:f1:40:c0:3d:
         d7:2e:d5:ca:0c:ba:39:6a:59:fb:0f:83:09:d4:4a:80:4e:94:
         66:e4:38:aa:5c:91:2a:7a:e0:2f:8e:8c:e2:3b:02:c8:9d:93:
         59:4d:5f:20:38:b4:d6:74:98:89:7f:7e:14:0b:f9:f2:91:53:
         c4:87:42:1f:79:b8:62:82:27:73:f1:4d:23:a6:ff:24:d6:06:
         32:49:09:e3:67:9d:3d:17:e9:d0:99:07:b2:6f:e3:83:25:a3:
         ce:3e:e1:5f:f0:f6:81:bc:86:d3:6e:bb:9f:91:0f:d1:18:89:
         90:18:ab:75:f6:74:8c:89:0a:56:7f:bc:05:b8:57:db:30:4e:
         b1:42:d9:c2:9d:07:59:e0:bf:b3:e3:06:3f:a0:e2:7f:cb:24:
         be:43:a5:5b:4f:cd:c4:d7:4e:09:fb:b6:6f:91:86:ec:a7:cf:
         cd:36:13:9e:08:06:8d:06:bb:ef:22:19:2a:6a:10:d4:d6:d9:
         49:e6:f5:b8:d9:03:cf:a6:71:70:f3:d0:69:2e:e5:93:69:8a:
         93:7f:9f:5d:bc:f8:0b:ba:15:59:5d:e4:9e:65:75:8e:bf:36:
         38:97:5b:d5:65:28:24:65
-----BEGIN CERTIFICATE-----
MIIGrTCCBJWgAwIBAgICDI8wDQYJKoZIhvcNAQEEBQAwgawxCzAJBgNVBAYTAlVT
MQswCQYDVQQIEwJPSDERMA8GA1UEBxMIQ29sdW1idXMxEjAQBgNVBAoTCVZpa2lu
Z1ZQTjEdMBsGA1UECxMUTXlPcmdhbml6YXRpb25hbFVuaXQxFTATBgNVBAMTDFZp
a2luZ1ZQTiBDQTEQMA4GA1UEKRMHRWFzeVJTQTEhMB8GCSqGSIb3DQEJARYSbWVA
bXlob3N0Lm15ZG9tYWluMB4XDTE0MTAyOTAxMTMxMVoXDTI0MTAyNjAxMTMxMVow
HzEdMBsGA1UEAxMUQ2xpZW50MTExNUNlcnQ3ZDFhMmUwggIiMA0GCSqGSIb3DQEB
AQUAA4ICDwAwggIKAoICAQDiMVQuRLGEUGBR83zrh599EtD+GOM+EA3VfFTsLloZ
o92LCl4+Dg5TfnO97POPQU7DMabD9ClsShLknUnC6CpmjyVM1QPkDf4D+hTB0uNz
HN48Ms1sAsbjWsFhH5SZX0w4ZlxJWqODVzJ0uIMegmG/2DjSsBCAkcxyHXX/fKMC
mXyDId8vuCRObG831Wxtj0HC6/yLLoKfhWuVU6oxGd1NpwMWkhnaR0e6yxptNXqn
WRHYtlmaABWvfziSku+FKmS9MKlIgrc83OKuF8lEpFLFOpMtL9XkHphX1csNa5Ta
5kDv7nC34ZClikopZANZF1jdlbj4xGid9dQOQNCya0mLh1EqA1khVlCWJ63/2Smh
wBbCh2MlgsFoFl0L1jzROVW7j+2GZ3/5nxiYf/XPjaZhhILxnekJk99K+zR6HhhV
XptZlTCVeRqb0sk7V9Q5AhHIEKVd3H5lh21uHTlshnZ9fYH4wsr3rqAlGHLzjvkN
80snQrV70/AFFN5Xvp76A1ILMdQKzPaQOqS0czqeHEz3llrhBY9ctVoJQ5mxRjmr
4IsiBAQskehMawq3YDr2kAbKZD07KUkVzadBC5pl0POjeCmu1NUkGNj1nqAOzQsH
3fWcO0J/J/DcNxLNZZwSqA6BbygOcGu2dyJNlKZ+63q11Dat/jCJK0XVuLzVQUCw
3wIDAQABo4IBYzCCAV8wCQYDVR0TBAIwADAtBglghkgBhvhCAQ0EIBYeRWFzeS1S
U0EgR2VuZXJhdGVkIENlcnRpZmljYXRlMB0GA1UdDgQWBBQs+WqOMzABVD5H74OB
BVgEuo4zUzCB4QYDVR0jBIHZMIHWgBQSzWAE0qCAnnDtxpm4eyzGUv0ZoaGBsqSB
rzCBrDELMAkGA1UEBhMCVVMxCzAJBgNVBAgTAk9IMREwDwYDVQQHEwhDb2x1bWJ1
czESMBAGA1UEChMJVmlraW5nVlBOMR0wGwYDVQQLExRNeU9yZ2FuaXphdGlvbmFs
VW5pdDEVMBMGA1UEAxMMVmlraW5nVlBOIENBMRAwDgYDVQQpEwdFYXN5UlNBMSEw
HwYJKoZIhvcNAQkBFhJtZUBteWhvc3QubXlkb21haW6CCQDPNYXugL8qPjATBgNV
HSUEDDAKBggrBgEFBQcDAjALBgNVHQ8EBAMCB4AwDQYJKoZIhvcNAQEEBQADggIB
AAoASmRNCCVDxWXyLOZecEhu7BLeVfrlmO3ytaoRfxLzYVViAlw2zmkvsw9CNwXZ
HnE48iQlwbxf2c7gnB7ddoYPg+fTehqvla0p4wnzKsveYNoMhVAJefolCBxDHX0S
ORNmXBaU2sZhR3c65TUEp3o8uKq84cBXTI+RA8G2zWyOEsmQMhh4gX+hy5H0hfKg
zQf02Jd6rp+mnOuB6A/cKInlPwWY8BIgXbqouUpTSkD6EnETbf42Ku/NuWHx8Elj
T8Xowik2MC0ul0nn3VPoT4Z5QV8QF2UhZjce3zpvlQcQ/BinRbR70riKGdo+V945
kI8ejWF0Imm8eA1OTp51+FXkS61PcdQP23VGy/W8efoSEeV5/UK9pGNT6Xj08UDA
Pdcu1coMujlqWfsPgwnUSoBOlGbkOKpckSp64C+OjOI7Asidk1lNXyA4tNZ0mIl/
fhQL+fKRU8SHQh95uGKCJ3PxTSOm/yTWBjJJCeNnnT0X6dCZB7Jv44Mlo84+4V/w
9oG8htNuu5+RD9EYiZAYq3X2dIyJClZ/vAW4V9swTrFC2cKdB1ngv7PjBj+g4n/L
JL5DpVtPzcTXTgn7tm+Rhuynz802E54IBo0Gu+8iGSpqENTW2Unm9bjZA8+mcXDz
0Gku5ZNpipN/n128+Au6FVld5J5ldY6/NjiXW9VlKCRl
-----END CERTIFICATE-----
