Certificate:
    Data:
        Version: 3 (0x2)
        Serial Number: 3219 (0xc93)
    Signature Algorithm: md5WithRSAEncryption
        Issuer: C=US, ST=OH, L=Columbus, O=VikingVPN, OU=MyOrganizationalUnit, CN=VikingVPN CA/name=EasyRSA/emailAddress=me@myhost.mydomain
        Validity
            Not Before: Oct 29 13:28:42 2014 GMT
            Not After : Oct 26 13:28:42 2024 GMT
        Subject: CN=Client830Certf5f3b2
        Subject Public Key Info:
            Public Key Algorithm: rsaEncryption
                Public-Key: (4096 bit)
                Modulus:
                    00:b0:db:0c:c6:c8:00:57:ea:30:bb:eb:44:f6:48:
                    2d:7b:3b:e2:ff:b5:c5:2c:40:d0:cc:c4:fd:b6:a1:
                    34:9d:fd:a5:27:6c:4c:3f:9c:7f:01:29:ab:cf:ee:
                    45:af:23:e8:77:c7:eb:01:81:f8:4f:c8:a1:53:29:
                    83:10:b0:20:31:d6:cd:90:2f:58:5b:09:c6:5b:aa:
                    b8:16:b5:57:2e:2d:45:46:d7:d8:dc:73:cf:09:66:
                    9c:cc:96:a0:c1:7d:a9:62:4c:a8:2c:5e:9d:d1:34:
                    66:28:66:ca:c2:cb:6a:8c:88:35:4c:bb:bb:e7:38:
                    69:7a:ec:0f:de:a2:5a:c8:09:38:31:d9:36:93:1c:
                    f9:20:5a:cf:b0:ec:6a:93:3d:9d:d0:e9:e2:af:4e:
                    c1:39:28:b4:a0:b9:6e:15:b9:1f:72:dc:8b:9c:3c:
                    ef:1c:8a:47:63:96:5a:61:51:1e:df:9d:0c:87:04:
                    ea:2c:ed:13:ea:d7:cc:76:71:05:a7:d8:44:5a:33:
                    f7:e2:75:8c:48:c3:91:4a:02:8a:1c:11:66:09:65:
                    e2:57:12:03:c3:7a:a4:b6:d4:a9:c6:39:b7:f9:6f:
                    ce:a7:db:34:6f:1d:d9:73:73:e5:7e:a2:31:f3:a6:
                    d5:32:20:97:ea:46:e2:06:e7:d8:a7:54:28:f8:77:
                    86:e0:4b:da:b2:07:cf:96:15:17:45:4a:1a:3e:6d:
                    33:a4:01:a8:70:cc:ed:74:c9:a8:64:23:9f:69:d8:
                    14:b7:01:41:94:f2:e8:f7:37:cb:09:50:9b:fd:27:
                    a8:9a:04:2e:ce:2f:5a:c0:41:71:2d:89:d5:d4:05:
                    72:c9:4f:3c:ef:c8:83:d4:34:39:3e:9c:6c:47:40:
                    eb:76:ea:96:03:eb:fc:27:e5:9d:f6:1a:4e:02:ea:
                    43:6a:dd:50:eb:07:b8:8e:95:99:ad:3f:18:ab:43:
                    24:9c:10:cd:e2:bc:80:20:e5:d8:30:a4:7f:89:a9:
                    0a:8e:c1:b7:f7:8e:cb:49:21:b8:a5:15:73:16:21:
                    3f:25:cc:c5:28:44:f9:e4:b6:97:a3:de:79:ff:41:
                    39:1f:4b:9f:b4:8f:58:82:bd:26:2c:5b:fe:91:7d:
                    b4:99:ec:a6:88:72:ad:93:08:28:bb:88:a0:62:c3:
                    70:42:f0:9b:a5:a6:e4:51:54:97:25:42:06:0a:e0:
                    28:f8:05:9a:b7:aa:49:77:ba:62:25:01:67:f1:08:
                    84:89:8d:49:b0:6b:b0:57:08:2b:4d:57:4f:ef:14:
                    83:36:8f:db:0e:d5:78:70:35:14:0e:db:52:25:13:
                    7e:f0:08:a4:0b:f3:72:46:69:47:5a:eb:c5:6f:fb:
                    6d:63:f9
                Exponent: 65537 (0x10001)
        X509v3 extensions:
            X509v3 Basic Constraints: 
                CA:FALSE
            Netscape Comment: 
                Easy-RSA Generated Certificate
            X509v3 Subject Key Identifier: 
                13:D9:C3:A0:5E:E9:18:E1:28:C8:22:6F:DB:7E:F2:40:42:33:E9:5C
            X509v3 Authority Key Identifier: 
                keyid:12:CD:60:04:D2:A0:80:9E:70:ED:C6:99:B8:7B:2C:C6:52:FD:19:A1
                DirName:/C=US/ST=OH/L=Columbus/O=VikingVPN/OU=MyOrganizationalUnit/CN=VikingVPN CA/name=EasyRSA/emailAddress=me@myhost.mydomain
                serial:CF:35:85:EE:80:BF:2A:3E

            X509v3 Extended Key Usage: 
                TLS Web Client Authentication
            X509v3 Key Usage: 
                Digital Signature
    Signature Algorithm: md5WithRSAEncryption
         a5:fe:fe:2d:c1:0d:2d:28:8f:79:a4:e4:64:78:7b:11:57:cc:
         f6:e6:43:b8:e2:15:61:54:f3:05:ab:50:d3:bf:97:85:3d:59:
         4d:31:c3:90:1d:48:d5:29:45:5b:e8:4c:70:d5:f1:6a:1e:fe:
         02:b1:4a:70:2b:e9:f6:65:20:98:2a:cd:73:79:42:a3:8e:9d:
         5b:7d:e5:9a:2e:28:dc:72:94:51:be:85:88:b6:0c:fe:d7:ef:
         ec:95:1f:b9:e0:20:f3:74:da:12:2e:df:83:50:e9:04:51:3e:
         36:6f:8b:d7:e1:cd:12:68:b8:91:dd:1c:67:06:6d:97:a2:4b:
         f4:e5:08:ab:ce:be:25:f3:7f:eb:7c:c4:d8:0b:85:25:34:d8:
         43:e9:31:02:39:58:d7:41:1c:4d:a5:de:de:66:ce:65:c0:c1:
         f5:80:e3:92:db:22:b5:9d:11:4a:39:56:7f:e1:77:cd:be:c3:
         ad:07:36:f7:8e:18:be:4c:5f:83:32:18:17:38:ed:1d:7f:63:
         5e:4a:51:aa:c6:31:c1:8e:4b:3e:2d:cb:19:b9:aa:2d:5b:1e:
         de:74:43:19:99:c9:d3:df:37:8d:39:58:f3:c6:ca:0e:0b:62:
         d1:77:d5:aa:b8:65:ab:47:95:a6:4a:c8:75:32:14:a1:09:4e:
         22:cf:1d:7c:b4:b3:c3:6d:ec:0d:ac:cf:54:d7:eb:d4:a6:c7:
         17:78:bf:53:3e:a2:4a:a5:31:d0:50:8d:50:e6:fe:93:14:88:
         53:71:ba:15:74:2c:8c:a1:5b:ab:42:d1:9c:b9:88:07:35:2a:
         3d:06:ef:f9:01:5b:99:2d:31:2f:61:6e:90:76:4e:68:ae:a2:
         64:48:5b:a2:db:dc:8d:81:9c:d7:16:79:04:c8:e9:a2:4a:5c:
         e4:39:67:96:87:72:0d:6e:1a:66:72:f1:c3:c6:3c:25:37:d3:
         04:dc:2a:00:eb:5a:15:99:fd:28:3c:28:94:1c:bc:8b:be:88:
         5e:57:42:9b:4a:9f:3b:be:de:ae:fa:72:b2:21:20:72:78:22:
         a7:b4:4b:5c:81:83:05:ba:13:4b:bb:8e:64:66:26:db:07:ee:
         4a:40:a1:34:62:4c:73:68:fb:0c:22:66:a3:c7:7a:61:10:dd:
         c7:0b:f1:fc:bb:f2:e3:3d:28:cc:56:f1:bd:dc:64:9b:2c:6d:
         a0:16:ec:64:9b:9c:17:3d:20:d9:d7:00:b1:13:94:08:0f:d2:
         a2:51:e3:09:6d:75:18:3e:97:28:8a:2c:c9:84:d9:58:9a:83:
         37:94:f0:ab:56:20:a1:d3:e7:55:ce:8d:7b:c0:98:56:68:67:
         e5:82:88:02:47:95:39:4b
-----BEGIN CERTIFICATE-----
MIIGrDCCBJSgAwIBAgICDJMwDQYJKoZIhvcNAQEEBQAwgawxCzAJBgNVBAYTAlVT
MQswCQYDVQQIEwJPSDERMA8GA1UEBxMIQ29sdW1idXMxEjAQBgNVBAoTCVZpa2lu
Z1ZQTjEdMBsGA1UECxMUTXlPcmdhbml6YXRpb25hbFVuaXQxFTATBgNVBAMTDFZp
a2luZ1ZQTiBDQTEQMA4GA1UEKRMHRWFzeVJTQTEhMB8GCSqGSIb3DQEJARYSbWVA
bXlob3N0Lm15ZG9tYWluMB4XDTE0MTAyOTEzMjg0MloXDTI0MTAyNjEzMjg0Mlow
HjEcMBoGA1UEAxMTQ2xpZW50ODMwQ2VydGY1ZjNiMjCCAiIwDQYJKoZIhvcNAQEB
BQADggIPADCCAgoCggIBALDbDMbIAFfqMLvrRPZILXs74v+1xSxA0MzE/bahNJ39
pSdsTD+cfwEpq8/uRa8j6HfH6wGB+E/IoVMpgxCwIDHWzZAvWFsJxluquBa1Vy4t
RUbX2NxzzwlmnMyWoMF9qWJMqCxendE0ZihmysLLaoyINUy7u+c4aXrsD96iWsgJ
ODHZNpMc+SBaz7DsapM9ndDp4q9OwTkotKC5bhW5H3Lci5w87xyKR2OWWmFRHt+d
DIcE6iztE+rXzHZxBafYRFoz9+J1jEjDkUoCihwRZgll4lcSA8N6pLbUqcY5t/lv
zqfbNG8d2XNz5X6iMfOm1TIgl+pG4gbn2KdUKPh3huBL2rIHz5YVF0VKGj5tM6QB
qHDM7XTJqGQjn2nYFLcBQZTy6Pc3ywlQm/0nqJoELs4vWsBBcS2J1dQFcslPPO/I
g9Q0OT6cbEdA63bqlgPr/CflnfYaTgLqQ2rdUOsHuI6Vma0/GKtDJJwQzeK8gCDl
2DCkf4mpCo7Bt/eOy0khuKUVcxYhPyXMxShE+eS2l6Peef9BOR9Ln7SPWIK9Jixb
/pF9tJnspohyrZMIKLuIoGLDcELwm6Wm5FFUlyVCBgrgKPgFmreqSXe6YiUBZ/EI
hImNSbBrsFcIK01XT+8UgzaP2w7VeHA1FA7bUiUTfvAIpAvzckZpR1rrxW/7bWP5
AgMBAAGjggFjMIIBXzAJBgNVHRMEAjAAMC0GCWCGSAGG+EIBDQQgFh5FYXN5LVJT
QSBHZW5lcmF0ZWQgQ2VydGlmaWNhdGUwHQYDVR0OBBYEFBPZw6Be6RjhKMgib9t+
8kBCM+lcMIHhBgNVHSMEgdkwgdaAFBLNYATSoICecO3Gmbh7LMZS/RmhoYGypIGv
MIGsMQswCQYDVQQGEwJVUzELMAkGA1UECBMCT0gxETAPBgNVBAcTCENvbHVtYnVz
MRIwEAYDVQQKEwlWaWtpbmdWUE4xHTAbBgNVBAsTFE15T3JnYW5pemF0aW9uYWxV
bml0MRUwEwYDVQQDEwxWaWtpbmdWUE4gQ0ExEDAOBgNVBCkTB0Vhc3lSU0ExITAf
BgkqhkiG9w0BCQEWEm1lQG15aG9zdC5teWRvbWFpboIJAM81he6Avyo+MBMGA1Ud
JQQMMAoGCCsGAQUFBwMCMAsGA1UdDwQEAwIHgDANBgkqhkiG9w0BAQQFAAOCAgEA
pf7+LcENLSiPeaTkZHh7EVfM9uZDuOIVYVTzBatQ07+XhT1ZTTHDkB1I1SlFW+hM
cNXxah7+ArFKcCvp9mUgmCrNc3lCo46dW33lmi4o3HKUUb6FiLYM/tfv7JUfueAg
83TaEi7fg1DpBFE+Nm+L1+HNEmi4kd0cZwZtl6JL9OUIq86+JfN/63zE2AuFJTTY
Q+kxAjlY10EcTaXe3mbOZcDB9YDjktsitZ0RSjlWf+F3zb7DrQc2944YvkxfgzIY
FzjtHX9jXkpRqsYxwY5LPi3LGbmqLVse3nRDGZnJ0983jTlY88bKDgti0XfVqrhl
q0eVpkrIdTIUoQlOIs8dfLSzw23sDazPVNfr1KbHF3i/Uz6iSqUx0FCNUOb+kxSI
U3G6FXQsjKFbq0LRnLmIBzUqPQbv+QFbmS0xL2FukHZOaK6iZEhbotvcjYGc1xZ5
BMjpokpc5DlnlodyDW4aZnLxw8Y8JTfTBNwqAOtaFZn9KDwolBy8i76IXldCm0qf
O77ervpysiEgcngip7RLXIGDBboTS7uOZGYm2wfuSkChNGJMc2j7DCJmo8d6YRDd
xwvx/Lvy4z0ozFbxvdxkmyxtoBbsZJucFz0g2dcAsROUCA/SolHjCW11GD6XKIos
yYTZWJqDN5Twq1YgodPnVc6Ne8CYVmhn5YKIAkeVOUs=
-----END CERTIFICATE-----
