Certificate:
    Data:
        Version: 3 (0x2)
        Serial Number: 3223 (0xc97)
    Signature Algorithm: md5WithRSAEncryption
        Issuer: C=US, ST=OH, L=Columbus, O=VikingVPN, OU=MyOrganizationalUnit, CN=VikingVPN CA/name=EasyRSA/emailAddress=me@myhost.mydomain
        Validity
            Not Before: Oct 30 06:13:53 2014 GMT
            Not After : Oct 27 06:13:53 2024 GMT
        Subject: CN=Client1123Certe223b3
        Subject Public Key Info:
            Public Key Algorithm: rsaEncryption
                Public-Key: (4096 bit)
                Modulus:
                    00:c8:fa:82:1d:39:d5:f8:bb:ac:7f:f5:59:da:c8:
                    0a:a6:ba:d4:54:4d:3f:3b:a9:59:f8:1b:a3:2a:00:
                    6f:d6:d4:bb:a8:ad:a7:cd:f6:62:8c:79:b9:00:7c:
                    74:f1:c2:e2:e4:20:96:42:8f:e0:03:de:3a:bf:ab:
                    80:df:5d:6e:7e:2b:77:5c:8f:2a:80:8d:94:da:b8:
                    e8:b6:8a:28:ed:7a:4b:84:8b:a2:56:6b:ef:ab:82:
                    38:08:35:e9:d5:4a:51:67:69:97:65:7f:60:c6:a1:
                    b3:ad:9b:36:d6:ee:a1:ef:e7:bf:01:93:b6:4a:92:
                    49:b0:96:f1:5f:b5:2b:b3:93:e6:be:ed:33:4b:93:
                    8d:75:77:c5:ea:64:e4:60:88:ed:3b:aa:59:94:8c:
                    09:58:a3:8f:63:51:19:f6:58:a0:00:14:60:79:f8:
                    bc:2c:0a:24:15:e1:2d:26:23:76:14:fe:1d:1e:d6:
                    d2:df:dc:de:ac:ec:09:b1:94:52:63:54:50:37:22:
                    6a:26:57:02:46:24:40:d7:83:2e:7a:36:94:25:a5:
                    55:79:46:21:2d:e1:7e:83:e5:3f:fb:90:80:98:c8:
                    b7:1b:40:88:2e:f2:25:80:45:7c:85:c3:ae:56:20:
                    72:5e:70:9b:be:e6:1e:66:0f:f1:25:ab:8d:32:15:
                    2a:e8:4c:5d:a8:bc:37:7e:89:36:47:1c:28:fe:ae:
                    5e:c7:4a:7b:07:d1:ef:13:09:e0:6e:48:5a:ec:96:
                    89:77:26:2b:ce:c7:67:76:fa:86:3b:f5:cc:1e:3c:
                    90:b9:ff:e6:44:0f:45:0f:70:2c:7d:64:b1:0e:78:
                    7c:7c:31:9a:87:10:92:04:fe:34:4b:e7:c0:25:8a:
                    5b:36:4f:f7:95:26:db:d2:ac:df:71:53:a8:8b:53:
                    3b:50:3b:1f:dd:6d:1d:b7:64:51:9a:bf:d5:88:a5:
                    33:4b:1d:ae:be:70:d4:c0:6d:86:9e:16:ad:2d:9b:
                    71:28:9f:6d:d0:70:d1:e1:ea:71:8e:f4:44:51:e6:
                    c7:ce:01:e1:72:1b:6c:cb:a0:05:9a:b6:a6:1d:a7:
                    f0:aa:31:7b:01:99:1f:14:24:0b:a7:8a:37:7b:94:
                    a2:66:0f:3b:ac:35:2c:03:57:4b:d5:a9:ae:6b:51:
                    0b:a7:d0:b5:75:09:bd:d7:b1:a5:64:5c:da:c4:a3:
                    5b:74:6c:d1:df:d6:3b:79:8b:90:ad:a2:13:fd:4d:
                    ca:27:68:39:78:db:df:94:3d:9d:2f:54:e2:9d:3d:
                    5f:a3:c5:1d:d7:33:4c:d0:67:b1:f4:53:b4:8d:17:
                    ff:f9:7c:4a:a8:ae:a5:4e:db:47:7e:3e:c3:4d:05:
                    26:03:93
                Exponent: 65537 (0x10001)
        X509v3 extensions:
            X509v3 Basic Constraints: 
                CA:FALSE
            Netscape Comment: 
                Easy-RSA Generated Certificate
            X509v3 Subject Key Identifier: 
                E2:C3:81:12:44:55:DC:5A:7A:9F:2C:20:E2:31:1E:CC:99:48:44:4B
            X509v3 Authority Key Identifier: 
                keyid:12:CD:60:04:D2:A0:80:9E:70:ED:C6:99:B8:7B:2C:C6:52:FD:19:A1
                DirName:/C=US/ST=OH/L=Columbus/O=VikingVPN/OU=MyOrganizationalUnit/CN=VikingVPN CA/name=EasyRSA/emailAddress=me@myhost.mydomain
                serial:CF:35:85:EE:80:BF:2A:3E

            X509v3 Extended Key Usage: 
                TLS Web Client Authentication
            X509v3 Key Usage: 
                Digital Signature
    Signature Algorithm: md5WithRSAEncryption
         57:1a:d0:cf:1a:31:df:9c:9d:e7:dd:b4:53:f9:2a:52:d7:80:
         f9:a0:8d:80:d3:b0:d6:2c:e0:66:07:80:13:88:f3:23:1c:e5:
         8c:aa:67:41:10:56:27:72:d1:ec:4c:29:05:fa:f7:de:d6:82:
         08:0b:ab:4e:e7:22:60:81:e7:37:6b:5b:38:d4:fc:35:40:5e:
         0b:43:c0:98:12:50:ee:ee:4a:cc:2f:a7:5b:7c:f0:83:4f:0d:
         ab:92:9b:75:0e:95:33:32:4f:31:bd:1f:23:86:29:9d:b2:2d:
         67:34:f7:b5:9e:5b:f5:fd:c3:44:9f:12:59:87:20:80:15:63:
         68:43:b3:0c:90:6d:2d:22:d5:5f:c5:c4:e9:ed:41:5d:80:a9:
         75:78:75:63:64:bd:51:7b:96:8a:2f:10:30:b8:8b:8f:2f:31:
         4e:91:9f:62:7f:af:53:4f:24:5e:c4:58:62:93:31:07:5e:59:
         c4:63:66:7c:7f:45:07:78:3b:18:fb:aa:61:71:08:2e:76:75:
         7e:d8:24:46:86:ba:7d:7e:20:35:21:c0:0d:3b:82:a7:d7:4b:
         ab:f1:ce:06:9f:14:77:28:f9:b8:07:f5:ec:90:39:cc:f7:b3:
         5b:80:74:8a:d9:85:ca:a2:fe:4e:62:a7:50:2d:10:d3:23:e6:
         f3:1e:c9:4d:71:44:ea:df:5e:3d:b9:f9:e7:ed:08:d7:96:f4:
         de:bf:13:df:f1:0b:c4:72:27:8e:7c:da:3c:bb:20:85:f6:64:
         f6:44:89:0c:3b:29:44:c0:48:b0:a2:b2:f1:91:d4:bd:63:d4:
         e4:0e:0f:8e:8e:61:e2:d5:8c:9e:ae:7e:47:d0:78:b7:0c:de:
         d9:82:a9:89:6f:58:a9:0b:72:35:02:5a:a0:13:bf:b1:d2:ab:
         11:f2:d7:23:be:b6:0a:b2:a9:6a:54:f5:df:cc:2f:fa:ac:e7:
         9c:1d:c2:ce:5a:64:29:68:2d:43:82:b5:01:f1:49:d4:ac:f2:
         5c:89:e2:38:e7:cf:d1:b6:f4:39:0e:d2:3e:75:5c:8f:fa:9b:
         89:b1:af:b2:f9:c8:b0:a0:56:94:e2:ba:92:25:ae:12:43:10:
         71:4f:44:a0:9c:67:02:eb:7e:0e:58:22:fb:91:8c:d9:64:4e:
         dc:fa:58:ce:7d:ce:b8:a1:c8:98:6f:0b:f2:76:af:eb:a5:16:
         96:39:2a:c1:ff:c0:2b:7b:08:f0:c8:5a:6d:42:d7:d9:9b:bc:
         4f:1a:b3:04:06:5d:b7:ff:1c:16:a7:9f:a7:08:fb:7f:20:6c:
         7e:55:f5:f2:95:0a:05:81:fc:40:48:d3:80:16:4a:0a:10:af:
         8a:06:90:2c:e2:b4:88:10
-----BEGIN CERTIFICATE-----
MIIGrTCCBJWgAwIBAgICDJcwDQYJKoZIhvcNAQEEBQAwgawxCzAJBgNVBAYTAlVT
MQswCQYDVQQIEwJPSDERMA8GA1UEBxMIQ29sdW1idXMxEjAQBgNVBAoTCVZpa2lu
Z1ZQTjEdMBsGA1UECxMUTXlPcmdhbml6YXRpb25hbFVuaXQxFTATBgNVBAMTDFZp
a2luZ1ZQTiBDQTEQMA4GA1UEKRMHRWFzeVJTQTEhMB8GCSqGSIb3DQEJARYSbWVA
bXlob3N0Lm15ZG9tYWluMB4XDTE0MTAzMDA2MTM1M1oXDTI0MTAyNzA2MTM1M1ow
HzEdMBsGA1UEAxMUQ2xpZW50MTEyM0NlcnRlMjIzYjMwggIiMA0GCSqGSIb3DQEB
AQUAA4ICDwAwggIKAoICAQDI+oIdOdX4u6x/9VnayAqmutRUTT87qVn4G6MqAG/W
1LuorafN9mKMebkAfHTxwuLkIJZCj+AD3jq/q4DfXW5+K3dcjyqAjZTauOi2iijt
ekuEi6JWa++rgjgINenVSlFnaZdlf2DGobOtmzbW7qHv578Bk7ZKkkmwlvFftSuz
k+a+7TNLk411d8XqZORgiO07qlmUjAlYo49jURn2WKAAFGB5+LwsCiQV4S0mI3YU
/h0e1tLf3N6s7AmxlFJjVFA3ImomVwJGJEDXgy56NpQlpVV5RiEt4X6D5T/7kICY
yLcbQIgu8iWARXyFw65WIHJecJu+5h5mD/Elq40yFSroTF2ovDd+iTZHHCj+rl7H
SnsH0e8TCeBuSFrslol3JivOx2d2+oY79cwePJC5/+ZED0UPcCx9ZLEOeHx8MZqH
EJIE/jRL58Alils2T/eVJtvSrN9xU6iLUztQOx/dbR23ZFGav9WIpTNLHa6+cNTA
bYaeFq0tm3Eon23QcNHh6nGO9ERR5sfOAeFyG2zLoAWatqYdp/CqMXsBmR8UJAun
ijd7lKJmDzusNSwDV0vVqa5rUQun0LV1Cb3XsaVkXNrEo1t0bNHf1jt5i5CtohP9
TconaDl429+UPZ0vVOKdPV+jxR3XM0zQZ7H0U7SNF//5fEqorqVO20d+PsNNBSYD
kwIDAQABo4IBYzCCAV8wCQYDVR0TBAIwADAtBglghkgBhvhCAQ0EIBYeRWFzeS1S
U0EgR2VuZXJhdGVkIENlcnRpZmljYXRlMB0GA1UdDgQWBBTiw4ESRFXcWnqfLCDi
MR7MmUhESzCB4QYDVR0jBIHZMIHWgBQSzWAE0qCAnnDtxpm4eyzGUv0ZoaGBsqSB
rzCBrDELMAkGA1UEBhMCVVMxCzAJBgNVBAgTAk9IMREwDwYDVQQHEwhDb2x1bWJ1
czESMBAGA1UEChMJVmlraW5nVlBOMR0wGwYDVQQLExRNeU9yZ2FuaXphdGlvbmFs
VW5pdDEVMBMGA1UEAxMMVmlraW5nVlBOIENBMRAwDgYDVQQpEwdFYXN5UlNBMSEw
HwYJKoZIhvcNAQkBFhJtZUBteWhvc3QubXlkb21haW6CCQDPNYXugL8qPjATBgNV
HSUEDDAKBggrBgEFBQcDAjALBgNVHQ8EBAMCB4AwDQYJKoZIhvcNAQEEBQADggIB
AFca0M8aMd+cnefdtFP5KlLXgPmgjYDTsNYs4GYHgBOI8yMc5YyqZ0EQVidy0exM
KQX6997WgggLq07nImCB5zdrWzjU/DVAXgtDwJgSUO7uSswvp1t88INPDauSm3UO
lTMyTzG9HyOGKZ2yLWc097WeW/X9w0SfElmHIIAVY2hDswyQbS0i1V/FxOntQV2A
qXV4dWNkvVF7loovEDC4i48vMU6Rn2J/r1NPJF7EWGKTMQdeWcRjZnx/RQd4Oxj7
qmFxCC52dX7YJEaGun1+IDUhwA07gqfXS6vxzgafFHco+bgH9eyQOcz3s1uAdIrZ
hcqi/k5ip1AtENMj5vMeyU1xROrfXj25+eftCNeW9N6/E9/xC8RyJ4582jy7IIX2
ZPZEiQw7KUTASLCisvGR1L1j1OQOD46OYeLVjJ6ufkfQeLcM3tmCqYlvWKkLcjUC
WqATv7HSqxHy1yO+tgqyqWpU9d/ML/qs55wdws5aZCloLUOCtQHxSdSs8lyJ4jjn
z9G29DkO0j51XI/6m4mxr7L5yLCgVpTiupIlrhJDEHFPRKCcZwLrfg5YIvuRjNlk
Ttz6WM59zrihyJhvC/J2r+ulFpY5KsH/wCt7CPDIWm1C19mbvE8aswQGXbf/HBan
n6cI+38gbH5V9fKVCgWB/EBI04AWSgoQr4oGkCzitIgQ
-----END CERTIFICATE-----
