Certificate:
    Data:
        Version: 3 (0x2)
        Serial Number: 3229 (0xc9d)
    Signature Algorithm: md5WithRSAEncryption
        Issuer: C=US, ST=OH, L=Columbus, O=VikingVPN, OU=MyOrganizationalUnit, CN=VikingVPN CA/name=EasyRSA/emailAddress=me@myhost.mydomain
        Validity
            Not Before: Nov  1 05:58:18 2014 GMT
            Not After : Oct 29 05:58:18 2024 GMT
        Subject: CN=Client1124Certa8143c
        Subject Public Key Info:
            Public Key Algorithm: rsaEncryption
                Public-Key: (4096 bit)
                Modulus:
                    00:cb:ce:9a:bd:86:53:dd:ca:70:28:38:38:97:9a:
                    95:2b:73:95:cb:80:c1:48:94:cc:00:4e:5b:7d:e5:
                    5f:af:59:77:06:95:d8:cb:96:c4:c9:6e:ce:69:54:
                    9b:f3:b3:59:4e:ce:7e:95:48:ab:04:33:a4:2a:67:
                    14:34:2c:06:97:1c:c4:17:5c:0b:d9:57:ae:82:18:
                    c4:a5:73:93:af:db:ec:3f:01:de:99:20:7f:b9:20:
                    c7:49:b1:d0:f4:f1:7d:52:42:3c:79:89:0d:72:2b:
                    28:0b:e2:69:67:75:6f:52:df:75:5d:31:31:5f:c3:
                    dc:41:69:5c:95:fc:d7:17:de:c6:b5:d0:25:b0:67:
                    5a:65:f2:4d:d4:db:f4:cd:ab:a4:be:93:1c:60:2e:
                    a2:7d:ee:63:d3:c2:ad:e0:2a:31:73:f7:6a:b7:9d:
                    42:84:6f:bb:94:d2:e3:b8:23:da:59:65:31:be:57:
                    c6:50:bf:4f:96:9e:e2:fb:94:6a:ab:3d:f4:5e:4f:
                    43:be:be:3c:b7:e4:12:3e:8a:29:4b:de:f2:c5:f7:
                    70:f0:87:c4:46:1a:60:26:7b:80:f9:60:7f:bf:58:
                    eb:4a:2b:14:cb:3a:e1:de:bf:65:3e:27:e0:22:4f:
                    b7:7c:71:c3:1d:ed:05:ed:05:1b:a2:b1:35:f5:1b:
                    85:f5:45:76:fd:aa:e3:9f:ea:ed:c0:37:34:8b:7d:
                    a7:bc:61:57:8e:d3:98:d1:a4:58:f3:3b:1f:da:9c:
                    8c:a3:c9:41:ef:60:2a:f9:95:68:1d:c5:9e:6e:b8:
                    57:ab:37:08:45:58:c9:75:d9:4c:88:bc:49:91:d6:
                    33:2f:da:14:f2:dc:13:27:26:ec:a9:c4:8c:52:dd:
                    9a:3d:53:37:68:0e:ba:20:ae:26:ed:ed:20:b3:81:
                    43:9f:22:19:6c:0f:71:b7:28:d9:c7:a3:3b:01:e6:
                    8c:4e:78:eb:26:8d:d7:e6:ff:2c:17:d2:a8:a3:c1:
                    ce:c9:7e:ae:50:b6:c4:b9:0a:20:08:42:65:0a:08:
                    88:ce:63:4a:ea:b3:de:59:f8:d5:dc:dd:5a:d6:5d:
                    ae:d3:80:99:c4:46:57:35:f6:dd:84:42:66:a8:f9:
                    db:a0:a1:ae:64:79:95:5e:82:88:00:a8:e7:07:92:
                    7a:9b:be:cf:e2:42:3b:57:10:45:57:69:0f:58:da:
                    c7:68:93:ac:a2:1e:31:82:a8:11:b1:85:a8:d0:f2:
                    03:99:a0:5e:52:c3:88:06:86:4c:ba:32:72:77:1c:
                    48:54:4d:02:94:d2:51:c8:3c:97:84:01:65:9e:06:
                    8d:30:2f:2d:30:62:7a:b2:6d:2c:aa:df:1d:87:c3:
                    ba:49:f7
                Exponent: 65537 (0x10001)
        X509v3 extensions:
            X509v3 Basic Constraints: 
                CA:FALSE
            Netscape Comment: 
                Easy-RSA Generated Certificate
            X509v3 Subject Key Identifier: 
                18:75:69:BC:85:A8:59:2E:61:3E:36:51:E1:7A:69:06:9D:AB:C1:E5
            X509v3 Authority Key Identifier: 
                keyid:12:CD:60:04:D2:A0:80:9E:70:ED:C6:99:B8:7B:2C:C6:52:FD:19:A1
                DirName:/C=US/ST=OH/L=Columbus/O=VikingVPN/OU=MyOrganizationalUnit/CN=VikingVPN CA/name=EasyRSA/emailAddress=me@myhost.mydomain
                serial:CF:35:85:EE:80:BF:2A:3E

            X509v3 Extended Key Usage: 
                TLS Web Client Authentication
            X509v3 Key Usage: 
                Digital Signature
    Signature Algorithm: md5WithRSAEncryption
         19:97:0e:21:41:7d:8d:37:4e:fb:de:e3:2e:e3:51:b5:8e:5d:
         83:07:13:b8:1b:e8:34:ba:ee:ea:6d:82:6c:ff:7f:c7:6f:33:
         1e:bb:b9:2f:6e:85:92:2e:e8:d3:69:48:e3:77:75:1a:cf:d6:
         80:53:90:78:ff:0a:c7:3f:8b:6e:c7:9a:b1:09:a5:fe:46:b4:
         66:15:57:78:15:16:80:25:e3:90:a1:20:c9:38:68:aa:b2:ac:
         29:bd:73:85:3a:58:31:37:7a:66:b6:4e:76:b7:5f:40:67:f7:
         a8:ba:50:f5:b5:76:e9:18:75:4f:c1:d7:7d:35:b2:1c:ca:ae:
         25:37:8e:17:b4:bf:f2:38:11:7f:15:d7:eb:25:6a:e5:9d:7b:
         b2:14:1e:e8:4d:e0:60:fb:de:2a:0f:18:34:0a:e0:8e:67:38:
         f9:38:45:ca:fa:26:33:55:9e:3a:5d:97:ba:26:4f:5f:c8:7d:
         8d:92:ea:82:d1:5e:d0:16:d5:d4:87:e4:07:47:bd:9c:49:0a:
         27:17:47:c9:91:46:8d:de:ec:0b:21:bf:68:d4:7e:92:c9:d0:
         e0:f7:eb:f9:eb:05:c2:3a:80:6f:eb:ed:78:f8:d2:a9:83:6f:
         8b:42:07:1f:22:1a:28:c6:25:cf:26:ef:29:30:47:41:6b:93:
         e7:ad:52:7a:92:b5:39:1c:c6:13:ce:51:65:7b:86:b0:3f:ab:
         6a:d9:d4:f8:68:2c:02:07:23:0e:34:dc:5a:3f:9d:fb:d2:28:
         98:08:db:4c:47:cb:63:dc:1a:fc:ad:eb:c2:59:67:e0:de:9c:
         68:5b:63:ad:1d:94:58:a1:51:bd:54:b4:0c:cb:5f:fc:b6:be:
         87:5f:98:9d:49:ca:ab:83:da:81:4e:dd:82:c4:bd:79:0a:a1:
         25:c0:a5:54:dc:af:8a:83:8a:fd:76:dd:37:8d:d0:17:92:b7:
         57:61:ea:1b:2c:a6:92:e6:bc:26:96:42:12:c9:28:15:66:5c:
         10:10:b2:c8:1f:30:2b:c4:e2:e5:00:ab:b4:0d:82:11:de:ba:
         ad:f0:c7:39:fe:03:fc:4e:e0:e6:10:e2:0b:5f:a5:7f:e5:2c:
         50:ae:26:6d:09:5a:5c:59:3a:93:b0:38:93:57:b2:8e:2a:bd:
         6f:68:3f:3e:3b:d6:42:bc:73:4c:b2:37:5c:34:3d:0e:7f:7f:
         bc:3a:a3:f8:fe:3b:61:8a:56:b8:64:78:17:e2:fe:40:46:0e:
         89:f5:4c:b1:bb:2c:00:3a:63:7f:fd:29:25:3b:ff:c6:82:cb:
         6d:29:df:5d:7a:ea:9e:d2:3f:07:43:c5:16:e1:5b:b8:27:c7:
         41:3f:ef:9b:10:26:21:8e
-----BEGIN CERTIFICATE-----
MIIGrTCCBJWgAwIBAgICDJ0wDQYJKoZIhvcNAQEEBQAwgawxCzAJBgNVBAYTAlVT
MQswCQYDVQQIEwJPSDERMA8GA1UEBxMIQ29sdW1idXMxEjAQBgNVBAoTCVZpa2lu
Z1ZQTjEdMBsGA1UECxMUTXlPcmdhbml6YXRpb25hbFVuaXQxFTATBgNVBAMTDFZp
a2luZ1ZQTiBDQTEQMA4GA1UEKRMHRWFzeVJTQTEhMB8GCSqGSIb3DQEJARYSbWVA
bXlob3N0Lm15ZG9tYWluMB4XDTE0MTEwMTA1NTgxOFoXDTI0MTAyOTA1NTgxOFow
HzEdMBsGA1UEAxMUQ2xpZW50MTEyNENlcnRhODE0M2MwggIiMA0GCSqGSIb3DQEB
AQUAA4ICDwAwggIKAoICAQDLzpq9hlPdynAoODiXmpUrc5XLgMFIlMwATlt95V+v
WXcGldjLlsTJbs5pVJvzs1lOzn6VSKsEM6QqZxQ0LAaXHMQXXAvZV66CGMSlc5Ov
2+w/Ad6ZIH+5IMdJsdD08X1SQjx5iQ1yKygL4mlndW9S33VdMTFfw9xBaVyV/NcX
3sa10CWwZ1pl8k3U2/TNq6S+kxxgLqJ97mPTwq3gKjFz92q3nUKEb7uU0uO4I9pZ
ZTG+V8ZQv0+WnuL7lGqrPfReT0O+vjy35BI+iilL3vLF93Dwh8RGGmAme4D5YH+/
WOtKKxTLOuHev2U+J+AiT7d8ccMd7QXtBRuisTX1G4X1RXb9quOf6u3ANzSLfae8
YVeO05jRpFjzOx/anIyjyUHvYCr5lWgdxZ5uuFerNwhFWMl12UyIvEmR1jMv2hTy
3BMnJuypxIxS3Zo9UzdoDrogribt7SCzgUOfIhlsD3G3KNnHozsB5oxOeOsmjdfm
/ywX0qijwc7Jfq5QtsS5CiAIQmUKCIjOY0rqs95Z+NXc3VrWXa7TgJnERlc19t2E
Qmao+dugoa5keZVegogAqOcHknqbvs/iQjtXEEVXaQ9Y2sdok6yiHjGCqBGxhajQ
8gOZoF5Sw4gGhky6MnJ3HEhUTQKU0lHIPJeEAWWeBo0wLy0wYnqybSyq3x2Hw7pJ
9wIDAQABo4IBYzCCAV8wCQYDVR0TBAIwADAtBglghkgBhvhCAQ0EIBYeRWFzeS1S
U0EgR2VuZXJhdGVkIENlcnRpZmljYXRlMB0GA1UdDgQWBBQYdWm8hahZLmE+NlHh
emkGnavB5TCB4QYDVR0jBIHZMIHWgBQSzWAE0qCAnnDtxpm4eyzGUv0ZoaGBsqSB
rzCBrDELMAkGA1UEBhMCVVMxCzAJBgNVBAgTAk9IMREwDwYDVQQHEwhDb2x1bWJ1
czESMBAGA1UEChMJVmlraW5nVlBOMR0wGwYDVQQLExRNeU9yZ2FuaXphdGlvbmFs
VW5pdDEVMBMGA1UEAxMMVmlraW5nVlBOIENBMRAwDgYDVQQpEwdFYXN5UlNBMSEw
HwYJKoZIhvcNAQkBFhJtZUBteWhvc3QubXlkb21haW6CCQDPNYXugL8qPjATBgNV
HSUEDDAKBggrBgEFBQcDAjALBgNVHQ8EBAMCB4AwDQYJKoZIhvcNAQEEBQADggIB
ABmXDiFBfY03Tvve4y7jUbWOXYMHE7gb6DS67uptgmz/f8dvMx67uS9uhZIu6NNp
SON3dRrP1oBTkHj/Csc/i27HmrEJpf5GtGYVV3gVFoAl45ChIMk4aKqyrCm9c4U6
WDE3ema2Tna3X0Bn96i6UPW1dukYdU/B1301shzKriU3jhe0v/I4EX8V1+slauWd
e7IUHuhN4GD73ioPGDQK4I5nOPk4Rcr6JjNVnjpdl7omT1/IfY2S6oLRXtAW1dSH
5AdHvZxJCicXR8mRRo3e7Ashv2jUfpLJ0OD36/nrBcI6gG/r7Xj40qmDb4tCBx8i
GijGJc8m7ykwR0Frk+etUnqStTkcxhPOUWV7hrA/q2rZ1PhoLAIHIw403Fo/nfvS
KJgI20xHy2PcGvyt68JZZ+DenGhbY60dlFihUb1UtAzLX/y2vodfmJ1JyquD2oFO
3YLEvXkKoSXApVTcr4qDiv123TeN0BeSt1dh6hssppLmvCaWQhLJKBVmXBAQssgf
MCvE4uUAq7QNghHeuq3wxzn+A/xO4OYQ4gtfpX/lLFCuJm0JWlxZOpOwOJNXso4q
vW9oPz471kK8c0yyN1w0PQ5/f7w6o/j+O2GKVrhkeBfi/kBGDon1TLG7LAA6Y3/9
KSU7/8aCy20p31166p7SPwdDxRbhW7gnx0E/75sQJiGO
-----END CERTIFICATE-----
