Certificate:
    Data:
        Version: 3 (0x2)
        Serial Number: 3231 (0xc9f)
    Signature Algorithm: md5WithRSAEncryption
        Issuer: C=US, ST=OH, L=Columbus, O=VikingVPN, OU=MyOrganizationalUnit, CN=VikingVPN CA/name=EasyRSA/emailAddress=me@myhost.mydomain
        Validity
            Not Before: Nov  1 08:36:34 2014 GMT
            Not After : Oct 29 08:36:34 2024 GMT
        Subject: CN=Client1125Cert7c906f
        Subject Public Key Info:
            Public Key Algorithm: rsaEncryption
                Public-Key: (4096 bit)
                Modulus:
                    00:d3:0e:b6:2e:3d:50:8b:eb:51:4e:5f:17:cd:84:
                    41:6c:b3:fe:86:4a:f0:e0:9e:7f:4c:11:7b:01:75:
                    d5:37:f3:fd:e6:12:c5:a8:7a:98:3d:58:73:26:6b:
                    a7:b3:41:f4:40:ba:26:b0:69:94:2f:b9:bd:24:00:
                    6b:cb:21:87:05:b3:9c:90:2d:63:cd:99:8a:24:56:
                    a0:5a:68:2e:bb:b5:b4:3f:63:70:90:db:83:7e:e9:
                    1a:fd:0f:15:71:78:21:26:95:cf:b1:4e:88:7b:c3:
                    0f:7d:65:57:d0:25:4b:7e:83:8c:01:f6:2c:6c:b3:
                    4d:e6:f9:27:5d:89:bc:34:1d:02:62:c4:09:07:ba:
                    1c:d4:93:d5:93:f3:ee:12:e6:9c:41:63:da:d7:37:
                    0d:bb:9c:62:73:c4:e2:51:c4:07:ae:c9:fe:42:75:
                    16:56:da:f1:70:79:8e:ca:83:de:d2:e6:60:25:8b:
                    6f:0d:1f:dc:a7:e3:11:c6:f8:80:eb:84:55:e7:81:
                    82:54:50:f5:87:64:04:da:15:92:4b:e7:35:6d:ca:
                    88:d0:fe:ae:ab:6e:8f:73:9e:e3:72:82:1b:65:4e:
                    4f:93:fd:db:1c:51:14:69:02:c9:68:4b:ae:bb:57:
                    8e:41:25:cc:38:43:d2:fa:12:88:09:9e:84:82:6b:
                    9b:f1:05:9b:c5:6d:74:62:b2:1b:c4:43:1c:09:42:
                    3b:5a:29:45:ab:c7:f5:18:18:93:22:54:86:8c:5e:
                    83:f7:5d:0e:f9:e3:63:8e:2c:c1:c2:cb:9d:f1:21:
                    b8:98:b8:22:45:84:66:75:e7:54:79:32:28:db:82:
                    ac:ad:03:bd:29:9f:d6:5e:18:1f:65:60:c4:8b:50:
                    91:c1:78:40:02:5e:56:b7:34:4f:f4:17:59:a4:b4:
                    0c:47:0d:d7:50:2d:d1:f0:a2:97:99:4d:b8:2d:3d:
                    5e:32:97:95:f2:81:78:84:87:12:d4:b2:49:2d:2a:
                    2d:56:ad:60:1b:01:92:9a:47:57:d3:17:e3:7c:58:
                    29:ad:6d:0d:0a:88:a0:18:39:6d:9d:b1:54:13:e2:
                    ce:b8:6d:1a:7e:86:f5:1f:04:24:74:cb:5b:0f:b6:
                    c7:dc:a1:c2:1b:91:1d:96:2b:88:da:f9:3b:6c:81:
                    fe:e9:e4:b7:82:74:ad:09:41:63:64:e1:cf:fb:e7:
                    c9:26:d7:ca:fc:d5:19:83:83:4c:40:44:d2:ba:2b:
                    48:87:e0:c0:70:e0:56:e9:1a:dd:a6:81:d9:53:eb:
                    6d:d5:5f:af:c6:4d:ba:9e:78:d4:fa:16:81:53:46:
                    c1:92:15:f6:6a:12:59:18:07:b8:c9:35:d3:b0:5d:
                    0d:6b:3b
                Exponent: 65537 (0x10001)
        X509v3 extensions:
            X509v3 Basic Constraints: 
                CA:FALSE
            Netscape Comment: 
                Easy-RSA Generated Certificate
            X509v3 Subject Key Identifier: 
                EE:B8:76:9E:29:15:77:31:82:FC:A2:C8:BE:C6:54:9C:E0:E6:58:4D
            X509v3 Authority Key Identifier: 
                keyid:12:CD:60:04:D2:A0:80:9E:70:ED:C6:99:B8:7B:2C:C6:52:FD:19:A1
                DirName:/C=US/ST=OH/L=Columbus/O=VikingVPN/OU=MyOrganizationalUnit/CN=VikingVPN CA/name=EasyRSA/emailAddress=me@myhost.mydomain
                serial:CF:35:85:EE:80:BF:2A:3E

            X509v3 Extended Key Usage: 
                TLS Web Client Authentication
            X509v3 Key Usage: 
                Digital Signature
    Signature Algorithm: md5WithRSAEncryption
         cf:09:b7:ab:4c:79:99:23:5f:80:2d:fd:07:4f:76:3b:b9:b6:
         55:2b:3d:98:df:4f:80:95:51:02:0d:e8:f0:ae:5c:0c:64:b8:
         ff:1a:e2:fa:92:b1:b3:88:0b:73:01:1b:77:68:18:1e:e1:ad:
         f2:96:75:7e:ad:78:d0:5c:1c:3a:12:d1:92:3f:c2:62:ad:3e:
         3a:d4:33:99:3a:32:bb:e8:ff:53:ea:7b:8d:59:bc:67:d3:4c:
         ee:ac:83:65:39:28:d2:62:6d:90:fd:1f:8d:51:7c:d2:bb:28:
         67:ce:25:56:e5:e9:15:36:30:75:ed:c5:71:48:81:11:b7:b0:
         cc:fe:bd:03:12:34:40:20:67:e9:a3:c9:16:db:14:68:88:59:
         c5:86:c4:f2:5b:f4:fd:38:73:63:39:41:1f:97:b5:5b:58:6d:
         bf:80:7a:89:30:45:e4:ab:e1:67:95:db:88:e3:45:cd:6d:19:
         a3:ce:b4:e6:cf:44:77:b7:90:4f:48:fb:6d:29:b9:f1:9e:84:
         09:13:16:1f:96:95:1e:0c:99:e0:6f:81:22:34:d8:12:1b:26:
         61:de:40:56:ab:cc:11:50:cd:5c:be:8f:fb:cd:d6:19:8a:a9:
         be:3d:3c:15:94:87:fb:14:03:6f:64:d0:af:20:11:66:02:e2:
         4b:f6:d8:69:fd:3f:2d:13:86:ef:f2:09:bf:ae:f3:45:b7:3c:
         75:52:3f:f0:a9:46:05:e1:1e:94:07:99:cf:2f:70:62:2d:25:
         1d:b1:bb:3d:df:f4:52:ab:1c:ae:88:05:72:cf:fd:5d:c2:3e:
         d4:3d:9e:93:de:86:b0:8b:c2:ff:0f:99:e5:7d:4b:70:17:0a:
         49:a0:55:5c:03:a5:c6:a7:f7:2f:9f:49:d4:21:c8:0d:20:ee:
         ce:37:56:d5:e2:36:8d:17:3d:51:49:cd:c1:75:64:4f:a6:a2:
         c3:ff:a1:a8:57:fa:8e:2e:a3:4b:a3:12:67:44:04:9c:a9:b9:
         46:72:77:ca:7c:13:65:a4:c1:62:22:59:33:6d:46:2c:62:ce:
         e5:e7:36:d9:f0:f6:dc:e1:36:0d:74:0e:02:57:16:cc:08:48:
         fe:4d:a8:c8:40:a1:f9:db:33:06:dd:94:91:b3:e5:d9:6c:4f:
         99:ef:ff:47:6d:8d:d6:e5:ca:b6:1b:4c:cf:e1:06:05:f3:b9:
         f9:29:40:f0:4c:27:f7:76:24:1e:72:67:bb:5c:3b:51:bd:dc:
         8c:83:e3:00:48:a8:92:21:01:8f:9c:e6:52:0e:e3:85:24:c3:
         40:b4:d0:1e:c2:cd:20:71:7f:48:bd:b3:c3:1b:43:c4:e8:2a:
         df:20:c2:7f:2d:18:80:5a
-----BEGIN CERTIFICATE-----
MIIGrTCCBJWgAwIBAgICDJ8wDQYJKoZIhvcNAQEEBQAwgawxCzAJBgNVBAYTAlVT
MQswCQYDVQQIEwJPSDERMA8GA1UEBxMIQ29sdW1idXMxEjAQBgNVBAoTCVZpa2lu
Z1ZQTjEdMBsGA1UECxMUTXlPcmdhbml6YXRpb25hbFVuaXQxFTATBgNVBAMTDFZp
a2luZ1ZQTiBDQTEQMA4GA1UEKRMHRWFzeVJTQTEhMB8GCSqGSIb3DQEJARYSbWVA
bXlob3N0Lm15ZG9tYWluMB4XDTE0MTEwMTA4MzYzNFoXDTI0MTAyOTA4MzYzNFow
HzEdMBsGA1UEAxMUQ2xpZW50MTEyNUNlcnQ3YzkwNmYwggIiMA0GCSqGSIb3DQEB
AQUAA4ICDwAwggIKAoICAQDTDrYuPVCL61FOXxfNhEFss/6GSvDgnn9MEXsBddU3
8/3mEsWoepg9WHMma6ezQfRAuiawaZQvub0kAGvLIYcFs5yQLWPNmYokVqBaaC67
tbQ/Y3CQ24N+6Rr9DxVxeCEmlc+xToh7ww99ZVfQJUt+g4wB9ixss03m+Sddibw0
HQJixAkHuhzUk9WT8+4S5pxBY9rXNw27nGJzxOJRxAeuyf5CdRZW2vFweY7Kg97S
5mAli28NH9yn4xHG+IDrhFXngYJUUPWHZATaFZJL5zVtyojQ/q6rbo9znuNyghtl
Tk+T/dscURRpAsloS667V45BJcw4Q9L6EogJnoSCa5vxBZvFbXRishvEQxwJQjta
KUWrx/UYGJMiVIaMXoP3XQ7542OOLMHCy53xIbiYuCJFhGZ151R5MijbgqytA70p
n9ZeGB9lYMSLUJHBeEACXla3NE/0F1mktAxHDddQLdHwopeZTbgtPV4yl5XygXiE
hxLUskktKi1WrWAbAZKaR1fTF+N8WCmtbQ0KiKAYOW2dsVQT4s64bRp+hvUfBCR0
y1sPtsfcocIbkR2WK4ja+Ttsgf7p5LeCdK0JQWNk4c/758km18r81RmDg0xARNK6
K0iH4MBw4FbpGt2mgdlT623VX6/GTbqeeNT6FoFTRsGSFfZqElkYB7jJNdOwXQ1r
OwIDAQABo4IBYzCCAV8wCQYDVR0TBAIwADAtBglghkgBhvhCAQ0EIBYeRWFzeS1S
U0EgR2VuZXJhdGVkIENlcnRpZmljYXRlMB0GA1UdDgQWBBTuuHaeKRV3MYL8osi+
xlSc4OZYTTCB4QYDVR0jBIHZMIHWgBQSzWAE0qCAnnDtxpm4eyzGUv0ZoaGBsqSB
rzCBrDELMAkGA1UEBhMCVVMxCzAJBgNVBAgTAk9IMREwDwYDVQQHEwhDb2x1bWJ1
czESMBAGA1UEChMJVmlraW5nVlBOMR0wGwYDVQQLExRNeU9yZ2FuaXphdGlvbmFs
VW5pdDEVMBMGA1UEAxMMVmlraW5nVlBOIENBMRAwDgYDVQQpEwdFYXN5UlNBMSEw
HwYJKoZIhvcNAQkBFhJtZUBteWhvc3QubXlkb21haW6CCQDPNYXugL8qPjATBgNV
HSUEDDAKBggrBgEFBQcDAjALBgNVHQ8EBAMCB4AwDQYJKoZIhvcNAQEEBQADggIB
AM8Jt6tMeZkjX4At/QdPdju5tlUrPZjfT4CVUQIN6PCuXAxkuP8a4vqSsbOIC3MB
G3doGB7hrfKWdX6teNBcHDoS0ZI/wmKtPjrUM5k6Mrvo/1Pqe41ZvGfTTO6sg2U5
KNJibZD9H41RfNK7KGfOJVbl6RU2MHXtxXFIgRG3sMz+vQMSNEAgZ+mjyRbbFGiI
WcWGxPJb9P04c2M5QR+XtVtYbb+AeokwReSr4WeV24jjRc1tGaPOtObPRHe3kE9I
+20pufGehAkTFh+WlR4MmeBvgSI02BIbJmHeQFarzBFQzVy+j/vN1hmKqb49PBWU
h/sUA29k0K8gEWYC4kv22Gn9Py0Thu/yCb+u80W3PHVSP/CpRgXhHpQHmc8vcGIt
JR2xuz3f9FKrHK6IBXLP/V3CPtQ9npPehrCLwv8PmeV9S3AXCkmgVVwDpcan9y+f
SdQhyA0g7s43VtXiNo0XPVFJzcF1ZE+mosP/oahX+o4uo0ujEmdEBJypuUZyd8p8
E2WkwWIiWTNtRixizuXnNtnw9tzhNg10DgJXFswISP5NqMhAofnbMwbdlJGz5dls
T5nv/0dtjdblyrYbTM/hBgXzufkpQPBMJ/d2JB5yZ7tcO1G93IyD4wBIqJIhAY+c
5lIO44Ukw0C00B7CzSBxf0i9s8MbQ8ToKt8gwn8tGIBa
-----END CERTIFICATE-----
