Certificate:
    Data:
        Version: 3 (0x2)
        Serial Number: 3234 (0xca2)
    Signature Algorithm: md5WithRSAEncryption
        Issuer: C=US, ST=OH, L=Columbus, O=VikingVPN, OU=MyOrganizationalUnit, CN=VikingVPN CA/name=EasyRSA/emailAddress=me@myhost.mydomain
        Validity
            Not Before: Nov  1 22:48:46 2014 GMT
            Not After : Oct 29 22:48:46 2024 GMT
        Subject: CN=Client1127Cert5f5f4f
        Subject Public Key Info:
            Public Key Algorithm: rsaEncryption
                Public-Key: (4096 bit)
                Modulus:
                    00:dc:63:d7:90:1b:70:69:b8:b9:42:84:0d:47:1d:
                    36:0d:31:56:8e:0e:5d:3e:0c:54:ba:2d:47:e3:31:
                    b4:15:d0:39:b1:5b:39:32:ca:35:fa:51:ed:f6:34:
                    9c:a1:5b:2c:f1:9e:e6:8b:c6:71:e2:bd:90:a7:e4:
                    9e:82:99:6b:b1:7b:05:03:26:eb:08:56:67:23:7b:
                    87:b1:fa:f9:a8:b4:15:bf:ed:41:77:bd:65:75:81:
                    8a:ca:ed:e6:97:89:a9:c0:42:43:f8:98:a5:88:64:
                    db:0e:6e:0f:3a:63:a2:02:7e:bd:82:0c:91:57:2c:
                    5d:48:68:b5:41:06:d8:d8:19:27:2a:af:5e:99:72:
                    81:75:d6:e5:d6:b5:6b:35:03:a0:d5:96:ac:da:9b:
                    62:81:8b:ba:30:04:f3:2e:15:ec:02:f5:d4:8c:24:
                    e7:63:68:30:d1:79:0b:42:cb:1e:18:20:c8:85:51:
                    68:ac:0e:07:da:45:07:1e:bb:23:50:ba:91:c3:7d:
                    bc:5e:99:4e:8a:50:67:46:29:1b:02:43:bd:6f:16:
                    0d:b2:d5:1a:66:d7:a1:5d:27:aa:f2:e8:19:42:b7:
                    1c:02:24:e1:72:89:91:17:36:90:23:6f:b9:90:f5:
                    3d:b2:e1:7b:94:fd:e4:b2:8c:44:3a:d2:a4:c2:35:
                    89:65:b6:d1:5f:9e:3d:e3:e5:a2:fd:7e:07:25:81:
                    4a:a6:1a:0e:6c:25:47:5d:83:dc:d3:62:64:86:0b:
                    b6:07:9d:fc:9b:e4:dd:4d:1c:07:51:2a:6d:e1:65:
                    7b:ae:46:57:00:fb:e9:b6:3b:bc:eb:85:5c:a2:51:
                    3e:f0:28:6e:23:3e:08:f0:eb:5c:b7:67:d1:60:e9:
                    f5:bb:81:ad:5f:99:ea:21:8e:97:cb:1b:f8:f9:85:
                    ec:82:cc:3d:04:fc:c0:95:b4:60:3b:19:db:71:db:
                    ab:a9:1a:c3:bd:e5:b0:b9:d9:bb:e5:1b:3a:30:09:
                    30:53:37:ba:9f:d9:d6:a1:8c:70:1c:d4:38:4f:8d:
                    d2:4b:d2:69:4b:30:b1:0a:7d:22:41:c0:62:31:b0:
                    6e:15:fe:4f:9d:15:d1:55:fc:33:4f:00:f7:3a:5f:
                    20:1a:ed:f4:95:98:03:cc:87:cb:b7:37:8f:e9:90:
                    5f:b3:67:8f:ef:c9:7f:21:ed:f4:15:fe:83:71:cb:
                    71:86:99:be:2b:ca:40:ce:fe:7e:c6:c8:03:b0:7b:
                    ba:d7:16:a5:cd:aa:79:18:74:b7:8e:5e:8b:6f:fe:
                    42:74:f4:d2:eb:7d:1d:75:bf:19:cf:93:2f:22:c4:
                    5b:56:cb:df:7c:1f:02:96:6f:9a:e4:47:3d:79:d5:
                    fe:8a:f7
                Exponent: 65537 (0x10001)
        X509v3 extensions:
            X509v3 Basic Constraints: 
                CA:FALSE
            Netscape Comment: 
                Easy-RSA Generated Certificate
            X509v3 Subject Key Identifier: 
                8D:3E:8B:90:9C:0A:76:D4:19:47:59:B4:02:C7:6B:A8:36:2E:C6:A7
            X509v3 Authority Key Identifier: 
                keyid:12:CD:60:04:D2:A0:80:9E:70:ED:C6:99:B8:7B:2C:C6:52:FD:19:A1
                DirName:/C=US/ST=OH/L=Columbus/O=VikingVPN/OU=MyOrganizationalUnit/CN=VikingVPN CA/name=EasyRSA/emailAddress=me@myhost.mydomain
                serial:CF:35:85:EE:80:BF:2A:3E

            X509v3 Extended Key Usage: 
                TLS Web Client Authentication
            X509v3 Key Usage: 
                Digital Signature
    Signature Algorithm: md5WithRSAEncryption
         2e:bd:d2:b8:da:47:5b:c4:1f:c2:81:28:cb:3d:8b:ef:2b:f7:
         b7:62:98:41:cf:13:33:eb:fa:fd:16:6f:ab:c6:4a:06:a2:eb:
         7b:7e:be:fa:f4:19:42:d1:d8:35:eb:c1:bd:e5:a5:28:47:30:
         2f:91:7a:76:32:2a:3c:17:85:e5:8f:61:aa:43:25:00:6c:91:
         e5:b6:45:93:6f:fb:d6:7e:26:ec:ec:55:cf:c3:d7:4f:cf:c6:
         76:df:6a:92:bc:38:f8:e9:05:cb:3f:39:4f:93:7c:c8:bf:df:
         98:d1:b1:72:2d:44:23:2d:d1:04:1a:77:df:ad:fd:53:8c:a0:
         33:0f:24:1a:9c:ee:fc:70:dc:29:90:33:ce:0a:de:b8:44:ee:
         33:2a:41:6f:01:f0:1d:60:e6:a9:8a:80:d6:4a:d6:14:dc:a3:
         12:33:1b:0b:72:59:83:c1:bc:3b:e8:f6:87:d5:48:ab:72:8c:
         65:24:ed:1a:0a:47:c4:f9:4f:e2:09:06:45:4e:7e:91:c3:b3:
         23:2c:bb:89:b9:be:13:f9:35:81:e6:c7:18:61:e4:f0:6a:9a:
         bc:9b:8d:7e:55:09:93:ae:2e:d8:84:90:7a:71:9c:3c:d4:02:
         bd:4c:9e:5c:46:19:9b:d9:3f:4f:93:1f:f4:d3:fa:a3:50:70:
         f2:e4:de:3c:df:71:7f:24:9f:02:4a:51:17:9d:e9:3c:a8:c7:
         12:3a:58:3d:aa:f2:1f:fb:10:17:aa:9e:d8:24:db:de:15:a3:
         4f:82:81:15:cc:27:81:9d:ca:da:0f:b0:25:6b:01:37:78:bc:
         af:9a:ec:5a:b8:f2:dc:87:db:41:e6:67:27:58:e0:23:94:26:
         62:72:b6:ce:aa:53:f9:d3:dd:29:16:92:21:6a:88:24:b4:96:
         24:df:a8:94:1e:66:b5:82:97:d1:0e:7b:2b:73:60:a4:f4:fb:
         ed:a2:0f:7a:bd:1b:b8:b3:8b:f7:09:71:c3:c5:a9:c0:e0:77:
         28:5b:42:82:82:e4:23:f9:2c:c7:8a:8a:a0:0d:3c:12:e7:3d:
         7d:40:70:3a:30:d0:5f:d8:fd:82:2e:fc:fe:ce:4e:f9:de:51:
         22:2b:be:19:1e:2e:70:af:21:d5:4b:4c:45:a4:2e:50:91:3d:
         70:0b:ee:1c:39:37:eb:9d:ab:76:0c:45:fa:54:52:f2:44:4f:
         d9:88:d3:95:ad:16:23:4c:84:96:0c:99:e9:57:89:3f:71:c8:
         37:17:f5:8a:46:f3:2e:cd:cd:a1:52:63:b3:89:61:a6:3d:c1:
         35:96:8f:a3:b4:6c:a2:b8:6e:e6:d2:6e:7e:69:82:1c:63:94:
         d3:81:b3:22:f1:2e:ac:82
-----BEGIN CERTIFICATE-----
MIIGrTCCBJWgAwIBAgICDKIwDQYJKoZIhvcNAQEEBQAwgawxCzAJBgNVBAYTAlVT
MQswCQYDVQQIEwJPSDERMA8GA1UEBxMIQ29sdW1idXMxEjAQBgNVBAoTCVZpa2lu
Z1ZQTjEdMBsGA1UECxMUTXlPcmdhbml6YXRpb25hbFVuaXQxFTATBgNVBAMTDFZp
a2luZ1ZQTiBDQTEQMA4GA1UEKRMHRWFzeVJTQTEhMB8GCSqGSIb3DQEJARYSbWVA
bXlob3N0Lm15ZG9tYWluMB4XDTE0MTEwMTIyNDg0NloXDTI0MTAyOTIyNDg0Nlow
HzEdMBsGA1UEAxMUQ2xpZW50MTEyN0NlcnQ1ZjVmNGYwggIiMA0GCSqGSIb3DQEB
AQUAA4ICDwAwggIKAoICAQDcY9eQG3BpuLlChA1HHTYNMVaODl0+DFS6LUfjMbQV
0DmxWzkyyjX6Ue32NJyhWyzxnuaLxnHivZCn5J6CmWuxewUDJusIVmcje4ex+vmo
tBW/7UF3vWV1gYrK7eaXianAQkP4mKWIZNsObg86Y6ICfr2CDJFXLF1IaLVBBtjY
GScqr16ZcoF11uXWtWs1A6DVlqzam2KBi7owBPMuFewC9dSMJOdjaDDReQtCyx4Y
IMiFUWisDgfaRQceuyNQupHDfbxemU6KUGdGKRsCQ71vFg2y1Rpm16FdJ6ry6BlC
txwCJOFyiZEXNpAjb7mQ9T2y4XuU/eSyjEQ60qTCNYllttFfnj3j5aL9fgclgUqm
Gg5sJUddg9zTYmSGC7YHnfyb5N1NHAdRKm3hZXuuRlcA++m2O7zrhVyiUT7wKG4j
Pgjw61y3Z9Fg6fW7ga1fmeohjpfLG/j5heyCzD0E/MCVtGA7Gdtx26upGsO95bC5
2bvlGzowCTBTN7qf2dahjHAc1DhPjdJL0mlLMLEKfSJBwGIxsG4V/k+dFdFV/DNP
APc6XyAa7fSVmAPMh8u3N4/pkF+zZ4/vyX8h7fQV/oNxy3GGmb4rykDO/n7GyAOw
e7rXFqXNqnkYdLeOXotv/kJ09NLrfR11vxnPky8ixFtWy998HwKWb5rkRz151f6K
9wIDAQABo4IBYzCCAV8wCQYDVR0TBAIwADAtBglghkgBhvhCAQ0EIBYeRWFzeS1S
U0EgR2VuZXJhdGVkIENlcnRpZmljYXRlMB0GA1UdDgQWBBSNPouQnAp21BlHWbQC
x2uoNi7GpzCB4QYDVR0jBIHZMIHWgBQSzWAE0qCAnnDtxpm4eyzGUv0ZoaGBsqSB
rzCBrDELMAkGA1UEBhMCVVMxCzAJBgNVBAgTAk9IMREwDwYDVQQHEwhDb2x1bWJ1
czESMBAGA1UEChMJVmlraW5nVlBOMR0wGwYDVQQLExRNeU9yZ2FuaXphdGlvbmFs
VW5pdDEVMBMGA1UEAxMMVmlraW5nVlBOIENBMRAwDgYDVQQpEwdFYXN5UlNBMSEw
HwYJKoZIhvcNAQkBFhJtZUBteWhvc3QubXlkb21haW6CCQDPNYXugL8qPjATBgNV
HSUEDDAKBggrBgEFBQcDAjALBgNVHQ8EBAMCB4AwDQYJKoZIhvcNAQEEBQADggIB
AC690rjaR1vEH8KBKMs9i+8r97dimEHPEzPr+v0Wb6vGSgai63t+vvr0GULR2DXr
wb3lpShHMC+RenYyKjwXheWPYapDJQBskeW2RZNv+9Z+JuzsVc/D10/PxnbfapK8
OPjpBcs/OU+TfMi/35jRsXItRCMt0QQad9+t/VOMoDMPJBqc7vxw3CmQM84K3rhE
7jMqQW8B8B1g5qmKgNZK1hTcoxIzGwtyWYPBvDvo9ofVSKtyjGUk7RoKR8T5T+IJ
BkVOfpHDsyMsu4m5vhP5NYHmxxhh5PBqmrybjX5VCZOuLtiEkHpxnDzUAr1MnlxG
GZvZP0+TH/TT+qNQcPLk3jzfcX8knwJKURed6TyoxxI6WD2q8h/7EBeqntgk294V
o0+CgRXMJ4GdytoPsCVrATd4vK+a7Fq48tyH20HmZydY4COUJmJyts6qU/nT3SkW
kiFqiCS0liTfqJQeZrWCl9EOeytzYKT0++2iD3q9G7izi/cJccPFqcDgdyhbQoKC
5CP5LMeKiqANPBLnPX1AcDow0F/Y/YIu/P7OTvneUSIrvhkeLnCvIdVLTEWkLlCR
PXAL7hw5N+udq3YMRfpUUvJET9mI05WtFiNMhJYMmelXiT9xyDcX9YpG8y7NzaFS
Y7OJYaY9wTWWj6O0bKK4bubSbn5pghxjlNOBsyLxLqyC
-----END CERTIFICATE-----
