Certificate:
    Data:
        Version: 3 (0x2)
        Serial Number: 3235 (0xca3)
    Signature Algorithm: md5WithRSAEncryption
        Issuer: C=US, ST=OH, L=Columbus, O=VikingVPN, OU=MyOrganizationalUnit, CN=VikingVPN CA/name=EasyRSA/emailAddress=me@myhost.mydomain
        Validity
            Not Before: Nov  2 01:56:59 2014 GMT
            Not After : Oct 30 01:56:59 2024 GMT
        Subject: CN=Client1128Cert9f92be
        Subject Public Key Info:
            Public Key Algorithm: rsaEncryption
                Public-Key: (4096 bit)
                Modulus:
                    00:b3:c2:fb:43:8c:85:0b:91:20:a7:f5:9f:be:14:
                    c1:48:9f:0e:bf:2c:e3:af:db:85:0e:06:63:01:40:
                    30:ac:07:b6:5d:91:97:c9:dc:18:ea:fe:42:e6:c6:
                    28:cf:f8:e9:cb:1a:7d:8b:26:fc:91:3b:be:39:16:
                    f6:19:ce:c2:cd:1c:9d:53:2b:d6:7d:5d:80:b1:be:
                    96:16:b2:2a:d3:30:69:96:7e:d3:01:d6:b6:5e:b5:
                    05:cd:2a:f4:93:bc:4e:64:1f:4a:a4:f8:38:b4:0f:
                    0f:de:bc:b7:40:98:76:18:b6:a6:bc:e2:e9:82:23:
                    d4:35:85:f0:b1:ef:52:d0:bd:9c:e4:01:b9:32:ce:
                    cb:84:7c:87:6b:28:b1:56:18:0a:06:33:6e:da:d9:
                    f5:01:1f:d7:d2:f2:10:cf:2a:15:31:29:b7:b2:d2:
                    cc:12:04:d9:c5:04:d8:c9:e7:f1:8b:54:3c:42:53:
                    1d:1a:d7:4a:0e:bf:b3:ed:a2:28:de:18:fe:ff:aa:
                    20:9c:bd:d3:b4:61:98:ee:9d:52:eb:f1:e2:d0:68:
                    f6:8f:34:84:f2:36:8b:b1:f8:58:67:1d:8e:c7:14:
                    d6:83:99:3d:62:1f:94:bc:ca:5b:dc:33:cb:ad:47:
                    b4:27:79:19:97:60:e5:a0:66:e4:b6:c8:a9:c1:25:
                    4e:94:ba:b2:9b:f8:8c:42:f4:72:2c:24:93:2a:7e:
                    62:51:f2:c7:1c:c5:4c:70:42:98:08:26:36:c5:63:
                    5e:45:a6:db:5c:a7:92:83:a8:23:d3:da:d3:fd:ee:
                    e0:06:f5:3a:92:a7:5a:16:b0:f1:30:50:fe:c6:ac:
                    b9:13:a2:92:0f:8b:c2:f3:1a:33:0f:82:6b:99:80:
                    9f:3d:44:4e:de:e7:f7:ed:b1:22:33:a2:f0:d2:a8:
                    29:84:d1:19:69:3b:96:e1:2c:ba:38:d2:49:86:c8:
                    d4:f7:2a:25:85:55:15:8c:f5:2c:5e:57:34:a2:fa:
                    22:86:96:a0:fd:8d:76:1e:8c:89:3a:ab:02:ba:5a:
                    ff:aa:c8:31:3a:fd:eb:49:65:0c:60:81:34:3f:dc:
                    2f:fb:40:95:28:37:18:81:e4:1a:40:72:d4:f8:69:
                    51:ef:40:f2:ec:63:12:34:c9:f9:5f:5c:c3:f4:0a:
                    68:39:57:1d:10:60:92:22:69:ea:fd:6b:62:8f:0d:
                    90:a9:cf:7c:76:9a:24:3f:aa:f7:7d:30:05:36:15:
                    2f:3b:7e:c0:65:d9:dc:bf:1b:ff:80:07:b2:c5:9c:
                    25:8a:73:94:3b:7b:d6:e5:c3:4d:9a:02:f3:9d:ec:
                    73:69:cb:7a:c4:48:8c:0b:b2:78:fa:67:bf:8a:c7:
                    cd:c0:0d
                Exponent: 65537 (0x10001)
        X509v3 extensions:
            X509v3 Basic Constraints: 
                CA:FALSE
            Netscape Comment: 
                Easy-RSA Generated Certificate
            X509v3 Subject Key Identifier: 
                1A:26:88:34:79:4F:D2:7C:05:3B:F9:EA:A2:5F:CD:2C:0D:05:B0:FF
            X509v3 Authority Key Identifier: 
                keyid:12:CD:60:04:D2:A0:80:9E:70:ED:C6:99:B8:7B:2C:C6:52:FD:19:A1
                DirName:/C=US/ST=OH/L=Columbus/O=VikingVPN/OU=MyOrganizationalUnit/CN=VikingVPN CA/name=EasyRSA/emailAddress=me@myhost.mydomain
                serial:CF:35:85:EE:80:BF:2A:3E

            X509v3 Extended Key Usage: 
                TLS Web Client Authentication
            X509v3 Key Usage: 
                Digital Signature
    Signature Algorithm: md5WithRSAEncryption
         db:4c:f4:b6:f6:3b:51:b6:01:c1:67:33:9e:f6:33:aa:19:93:
         ed:51:2e:ca:6d:35:78:96:2c:bf:a0:d1:04:1a:f9:32:21:8e:
         cb:88:f6:46:1a:ae:7f:ad:24:cd:a3:74:d8:0b:75:b3:17:72:
         cc:90:64:c3:e4:01:6c:b2:92:b2:b8:04:72:fe:70:ca:8a:c5:
         2c:3e:eb:5f:8e:cc:f2:68:b3:c3:12:1d:45:f0:15:9a:36:24:
         71:d8:26:50:93:58:d7:65:e8:30:ad:dd:ce:1b:70:1c:37:25:
         52:6c:43:cc:89:d7:a9:b3:ed:8a:0f:ac:b5:1e:7b:96:06:9e:
         cc:87:68:61:86:3c:87:9b:9c:4c:b3:52:c7:3b:e2:50:fc:e8:
         5a:1f:9f:cc:f9:3d:aa:57:12:00:19:37:13:01:71:61:ea:32:
         b3:ca:ee:68:1b:1e:d1:3b:c2:1e:5e:af:da:ee:c1:02:ea:4b:
         74:a2:80:c2:4d:96:a7:7a:62:8a:45:87:3d:90:2c:64:62:6a:
         fd:b3:c5:ac:c4:41:50:be:a0:b9:9b:d0:b3:16:35:28:d5:5a:
         84:5d:55:69:c7:ae:8e:85:4b:6f:29:69:b5:3c:0b:4f:8c:ae:
         24:95:aa:83:e0:ea:37:b1:b6:dc:66:1e:42:60:7f:bd:a9:97:
         d1:5d:cd:92:d9:ba:17:39:af:4f:d6:58:1c:0b:bb:2c:63:8e:
         a7:92:e5:55:3e:79:25:2a:87:56:e2:fb:af:ae:73:23:76:ad:
         49:65:45:3b:51:2c:f7:98:31:c8:c1:44:74:c1:68:24:17:e3:
         c6:5b:de:32:b6:33:d0:95:13:90:50:e6:03:ef:02:8f:ac:ab:
         f9:2d:6d:6e:e9:14:fa:06:22:71:0d:be:a4:39:54:34:dd:43:
         3f:40:41:03:0f:eb:7b:4c:56:00:5c:9c:aa:85:e7:6b:70:56:
         ae:f1:66:e6:3a:ce:46:bc:41:a7:d5:d1:cb:cb:b8:34:bb:cf:
         d9:79:0a:cc:67:d4:3b:97:a0:72:c0:be:f0:10:41:3b:9b:b1:
         32:0e:79:f6:2d:5f:bd:f3:af:2e:5b:da:c0:e8:4b:2e:e9:e7:
         e8:b9:8e:90:71:75:54:88:43:ef:f4:5c:89:d4:09:fe:f0:98:
         c6:67:14:88:13:f3:48:05:1d:fb:86:24:d7:55:ce:d7:1e:81:
         d6:e5:41:5a:ef:8e:ce:17:a2:b6:7d:d7:d5:92:31:18:2f:78:
         90:7d:05:42:03:ae:b1:de:3b:c0:8e:48:d3:1a:3d:61:1f:b4:
         02:c4:8a:16:87:dc:2d:4d:f0:f7:63:5c:4f:54:5f:12:b2:60:
         90:34:51:58:bf:5b:8a:65
-----BEGIN CERTIFICATE-----
MIIGrTCCBJWgAwIBAgICDKMwDQYJKoZIhvcNAQEEBQAwgawxCzAJBgNVBAYTAlVT
MQswCQYDVQQIEwJPSDERMA8GA1UEBxMIQ29sdW1idXMxEjAQBgNVBAoTCVZpa2lu
Z1ZQTjEdMBsGA1UECxMUTXlPcmdhbml6YXRpb25hbFVuaXQxFTATBgNVBAMTDFZp
a2luZ1ZQTiBDQTEQMA4GA1UEKRMHRWFzeVJTQTEhMB8GCSqGSIb3DQEJARYSbWVA
bXlob3N0Lm15ZG9tYWluMB4XDTE0MTEwMjAxNTY1OVoXDTI0MTAzMDAxNTY1OVow
HzEdMBsGA1UEAxMUQ2xpZW50MTEyOENlcnQ5ZjkyYmUwggIiMA0GCSqGSIb3DQEB
AQUAA4ICDwAwggIKAoICAQCzwvtDjIULkSCn9Z++FMFInw6/LOOv24UOBmMBQDCs
B7ZdkZfJ3Bjq/kLmxijP+OnLGn2LJvyRO745FvYZzsLNHJ1TK9Z9XYCxvpYWsirT
MGmWftMB1rZetQXNKvSTvE5kH0qk+Di0Dw/evLdAmHYYtqa84umCI9Q1hfCx71LQ
vZzkAbkyzsuEfIdrKLFWGAoGM27a2fUBH9fS8hDPKhUxKbey0swSBNnFBNjJ5/GL
VDxCUx0a10oOv7PtoijeGP7/qiCcvdO0YZjunVLr8eLQaPaPNITyNoux+FhnHY7H
FNaDmT1iH5S8ylvcM8utR7QneRmXYOWgZuS2yKnBJU6UurKb+IxC9HIsJJMqfmJR
8sccxUxwQpgIJjbFY15Fpttcp5KDqCPT2tP97uAG9TqSp1oWsPEwUP7GrLkTopIP
i8LzGjMPgmuZgJ89RE7e5/ftsSIzovDSqCmE0RlpO5bhLLo40kmGyNT3KiWFVRWM
9SxeVzSi+iKGlqD9jXYejIk6qwK6Wv+qyDE6/etJZQxggTQ/3C/7QJUoNxiB5BpA
ctT4aVHvQPLsYxI0yflfXMP0Cmg5Vx0QYJIiaer9a2KPDZCpz3x2miQ/qvd9MAU2
FS87fsBl2dy/G/+AB7LFnCWKc5Q7e9blw02aAvOd7HNpy3rESIwLsnj6Z7+Kx83A
DQIDAQABo4IBYzCCAV8wCQYDVR0TBAIwADAtBglghkgBhvhCAQ0EIBYeRWFzeS1S
U0EgR2VuZXJhdGVkIENlcnRpZmljYXRlMB0GA1UdDgQWBBQaJog0eU/SfAU7+eqi
X80sDQWw/zCB4QYDVR0jBIHZMIHWgBQSzWAE0qCAnnDtxpm4eyzGUv0ZoaGBsqSB
rzCBrDELMAkGA1UEBhMCVVMxCzAJBgNVBAgTAk9IMREwDwYDVQQHEwhDb2x1bWJ1
czESMBAGA1UEChMJVmlraW5nVlBOMR0wGwYDVQQLExRNeU9yZ2FuaXphdGlvbmFs
VW5pdDEVMBMGA1UEAxMMVmlraW5nVlBOIENBMRAwDgYDVQQpEwdFYXN5UlNBMSEw
HwYJKoZIhvcNAQkBFhJtZUBteWhvc3QubXlkb21haW6CCQDPNYXugL8qPjATBgNV
HSUEDDAKBggrBgEFBQcDAjALBgNVHQ8EBAMCB4AwDQYJKoZIhvcNAQEEBQADggIB
ANtM9Lb2O1G2AcFnM572M6oZk+1RLsptNXiWLL+g0QQa+TIhjsuI9kYarn+tJM2j
dNgLdbMXcsyQZMPkAWyykrK4BHL+cMqKxSw+61+OzPJos8MSHUXwFZo2JHHYJlCT
WNdl6DCt3c4bcBw3JVJsQ8yJ16mz7YoPrLUee5YGnsyHaGGGPIebnEyzUsc74lD8
6Fofn8z5PapXEgAZNxMBcWHqMrPK7mgbHtE7wh5er9ruwQLqS3SigMJNlqd6YopF
hz2QLGRiav2zxazEQVC+oLmb0LMWNSjVWoRdVWnHro6FS28pabU8C0+MriSVqoPg
6jexttxmHkJgf72pl9FdzZLZuhc5r0/WWBwLuyxjjqeS5VU+eSUqh1bi+6+ucyN2
rUllRTtRLPeYMcjBRHTBaCQX48Zb3jK2M9CVE5BQ5gPvAo+sq/ktbW7pFPoGInEN
vqQ5VDTdQz9AQQMP63tMVgBcnKqF52twVq7xZuY6zka8QafV0cvLuDS7z9l5Csxn
1DuXoHLAvvAQQTubsTIOefYtX73zry5b2sDoSy7p5+i5jpBxdVSIQ+/0XInUCf7w
mMZnFIgT80gFHfuGJNdVztcegdblQVrvjs4XorZ919WSMRgveJB9BUIDrrHeO8CO
SNMaPWEftALEihaH3C1N8PdjXE9UXxKyYJA0UVi/W4pl
-----END CERTIFICATE-----
