Certificate:
    Data:
        Version: 3 (0x2)
        Serial Number: 3248 (0xcb0)
    Signature Algorithm: md5WithRSAEncryption
        Issuer: C=US, ST=OH, L=Columbus, O=VikingVPN, OU=MyOrganizationalUnit, CN=VikingVPN CA/name=EasyRSA/emailAddress=me@myhost.mydomain
        Validity
            Not Before: Nov  3 13:26:03 2014 GMT
            Not After : Oct 31 13:26:03 2024 GMT
        Subject: CN=Client1132Cert9ea193
        Subject Public Key Info:
            Public Key Algorithm: rsaEncryption
                Public-Key: (4096 bit)
                Modulus:
                    00:da:c6:84:ab:37:75:38:6e:de:35:55:57:96:58:
                    ba:de:45:ac:06:9e:66:76:43:bc:aa:4e:a1:a5:33:
                    97:96:94:bb:c7:84:fb:28:20:e2:57:d0:9e:45:e3:
                    3a:d6:a7:fb:0b:73:d3:2b:68:ea:8f:30:57:f7:07:
                    52:60:9f:ff:e9:1d:62:10:b8:ef:aa:6f:9c:d7:1d:
                    9a:c6:24:69:e8:0e:93:73:8e:fe:31:b5:7d:ac:94:
                    3b:c2:46:40:32:af:ac:c6:fb:cf:f5:2c:dc:56:d7:
                    45:a6:b6:ec:68:df:79:75:04:55:93:4d:77:4e:fd:
                    43:d0:d1:61:59:14:89:55:dd:4b:c8:f1:4f:49:a8:
                    99:c8:96:96:27:d6:cd:59:92:86:0e:25:f7:93:da:
                    de:c9:82:53:d6:b0:85:3e:a6:94:9f:ae:7c:2d:a3:
                    14:6d:83:c5:81:60:f8:ff:ca:82:6f:58:01:67:58:
                    05:73:c7:28:07:7c:7c:49:94:23:6a:b2:3f:e0:3f:
                    7a:70:4d:d5:c9:34:f0:c3:fa:1e:45:a3:ab:9a:b6:
                    49:79:45:ce:8e:b3:99:ea:3a:02:26:26:a3:99:fd:
                    9c:1b:e4:12:b1:62:7c:7a:33:ef:a1:dd:b4:97:26:
                    59:a4:d8:80:a4:4f:21:62:7f:84:22:c8:51:93:ba:
                    bd:c9:4e:a1:cf:97:42:c1:32:7e:f1:8c:02:44:fc:
                    a9:dd:c0:db:6c:b5:0e:7f:16:d2:61:98:74:92:47:
                    5f:11:27:cf:09:b4:7a:2a:8f:4c:3f:63:21:4f:25:
                    49:6a:57:ec:a4:16:9b:87:af:65:f4:ff:bf:54:0e:
                    9c:a7:35:84:04:28:c1:04:89:c9:50:ea:e1:e4:18:
                    fc:d6:a4:06:93:c2:08:4d:34:36:2c:44:3b:93:46:
                    a5:28:1a:90:44:43:23:f0:f6:a3:54:57:82:b7:9e:
                    a7:cc:f7:8a:22:84:98:17:89:5a:63:ff:e3:33:62:
                    41:26:f2:23:3f:8f:23:4e:fc:87:3d:ea:82:86:c0:
                    fa:cf:d8:54:f5:3a:9d:8e:f5:24:a4:95:b3:99:3b:
                    c4:ae:95:53:fc:3b:c5:38:7a:a8:af:9a:93:07:44:
                    52:d2:42:42:6a:bb:12:49:1e:c7:5d:da:e3:b5:7a:
                    6c:c3:01:b2:9e:c5:59:77:16:db:00:77:fd:14:a9:
                    b1:aa:c4:ca:14:a9:2f:7a:6f:16:9a:3f:50:2d:65:
                    a6:2a:60:37:73:65:9e:4b:a2:92:9c:fc:87:01:5b:
                    00:51:6a:3d:39:5e:20:7c:82:5b:21:53:17:07:e7:
                    2a:f9:4f:c6:94:21:a0:2c:7f:bb:e0:12:61:21:b1:
                    8a:69:b9
                Exponent: 65537 (0x10001)
        X509v3 extensions:
            X509v3 Basic Constraints: 
                CA:FALSE
            Netscape Comment: 
                Easy-RSA Generated Certificate
            X509v3 Subject Key Identifier: 
                E6:F3:E8:27:89:50:A2:8E:10:A8:BF:C2:EA:21:DC:11:B0:73:A7:07
            X509v3 Authority Key Identifier: 
                keyid:12:CD:60:04:D2:A0:80:9E:70:ED:C6:99:B8:7B:2C:C6:52:FD:19:A1
                DirName:/C=US/ST=OH/L=Columbus/O=VikingVPN/OU=MyOrganizationalUnit/CN=VikingVPN CA/name=EasyRSA/emailAddress=me@myhost.mydomain
                serial:CF:35:85:EE:80:BF:2A:3E

            X509v3 Extended Key Usage: 
                TLS Web Client Authentication
            X509v3 Key Usage: 
                Digital Signature
    Signature Algorithm: md5WithRSAEncryption
         bd:96:56:16:cc:7b:d9:5a:bc:35:87:a9:db:1a:0a:3f:22:02:
         34:c2:13:24:b2:a5:b2:d5:77:18:ba:21:27:11:8b:87:79:0b:
         22:26:53:59:ea:ba:ce:9e:f4:d8:7a:ad:c1:33:69:6b:10:36:
         33:1a:d2:fa:d8:08:e9:0b:e2:22:6a:c7:72:fc:e2:f3:97:7f:
         7d:8e:b9:c5:d3:ef:83:26:6f:9b:90:f7:0b:a9:c2:a1:1b:ff:
         d3:30:ba:90:c7:96:08:a4:90:91:80:4c:be:1a:94:73:0e:b7:
         29:d6:d2:f6:f8:5e:00:26:63:c4:c2:a5:e1:57:98:66:1d:6f:
         53:a9:36:f1:83:8f:2b:58:e5:e2:a5:4e:8a:15:0c:50:0a:05:
         55:e6:7a:67:cf:57:c2:13:7b:bb:a1:01:f3:af:9f:b1:ac:b6:
         bb:7e:12:e4:eb:67:e7:94:b8:62:ba:e0:83:70:f7:05:68:b7:
         33:7f:19:3f:9b:28:e2:4b:f8:9f:9a:a5:05:ba:d0:85:2f:6c:
         a7:4b:32:4b:4e:48:fe:3d:ef:5d:d0:7b:d1:17:79:c6:cb:c0:
         93:60:2d:03:e6:fb:5a:6d:87:18:f7:ee:8f:1f:5b:6e:b1:ff:
         62:24:c8:6f:2a:64:da:76:5b:7a:06:25:35:c1:78:17:4e:ac:
         e0:ed:0a:e7:32:50:b6:73:65:1e:32:37:a7:83:77:08:a9:73:
         40:ef:d2:2a:c4:29:93:4d:64:87:63:fb:c2:5b:b1:c7:b1:1b:
         9f:af:6c:f3:c2:52:c9:27:ae:95:50:c6:7b:e7:6f:e7:50:83:
         87:74:7f:59:f1:f6:0f:a2:07:63:24:86:94:1f:5a:74:c5:54:
         44:85:9e:41:8a:dc:99:f2:41:11:35:69:12:38:4a:6d:f1:2c:
         ad:20:43:67:a9:d5:22:fb:e6:38:88:30:8d:d8:bf:88:19:ca:
         97:c6:81:1a:30:95:17:d6:af:d4:61:6c:ce:4d:98:26:93:e3:
         93:6b:ff:cc:83:58:1e:1d:20:5c:2e:f8:fb:6b:3a:1e:2b:ff:
         bb:98:70:61:b9:da:26:24:3a:e3:8b:8c:fd:f5:cd:3b:32:b5:
         b2:5d:3e:f9:dc:49:a0:f7:c5:b1:40:aa:81:ef:ee:e8:f4:e7:
         38:10:08:a3:89:d7:ca:a4:fe:63:4a:77:aa:b8:dc:b0:c4:3e:
         de:08:7c:eb:14:e7:e2:69:7d:29:92:2e:5a:40:4a:6d:19:0b:
         99:e6:02:ec:f1:a3:5a:21:de:7b:8a:c2:7d:02:ac:29:cd:0a:
         81:cd:a0:a8:7b:f4:46:1d:41:35:79:05:8c:ce:f3:a4:d4:63:
         93:fa:4a:9e:4f:1f:b2:e1
-----BEGIN CERTIFICATE-----
MIIGrTCCBJWgAwIBAgICDLAwDQYJKoZIhvcNAQEEBQAwgawxCzAJBgNVBAYTAlVT
MQswCQYDVQQIEwJPSDERMA8GA1UEBxMIQ29sdW1idXMxEjAQBgNVBAoTCVZpa2lu
Z1ZQTjEdMBsGA1UECxMUTXlPcmdhbml6YXRpb25hbFVuaXQxFTATBgNVBAMTDFZp
a2luZ1ZQTiBDQTEQMA4GA1UEKRMHRWFzeVJTQTEhMB8GCSqGSIb3DQEJARYSbWVA
bXlob3N0Lm15ZG9tYWluMB4XDTE0MTEwMzEzMjYwM1oXDTI0MTAzMTEzMjYwM1ow
HzEdMBsGA1UEAxMUQ2xpZW50MTEzMkNlcnQ5ZWExOTMwggIiMA0GCSqGSIb3DQEB
AQUAA4ICDwAwggIKAoICAQDaxoSrN3U4bt41VVeWWLreRawGnmZ2Q7yqTqGlM5eW
lLvHhPsoIOJX0J5F4zrWp/sLc9MraOqPMFf3B1Jgn//pHWIQuO+qb5zXHZrGJGno
DpNzjv4xtX2slDvCRkAyr6zG+8/1LNxW10Wmtuxo33l1BFWTTXdO/UPQ0WFZFIlV
3UvI8U9JqJnIlpYn1s1ZkoYOJfeT2t7JglPWsIU+ppSfrnwtoxRtg8WBYPj/yoJv
WAFnWAVzxygHfHxJlCNqsj/gP3pwTdXJNPDD+h5Fo6uatkl5Rc6Os5nqOgImJqOZ
/Zwb5BKxYnx6M++h3bSXJlmk2ICkTyFif4QiyFGTur3JTqHPl0LBMn7xjAJE/Knd
wNtstQ5/FtJhmHSSR18RJ88JtHoqj0w/YyFPJUlqV+ykFpuHr2X0/79UDpynNYQE
KMEEiclQ6uHkGPzWpAaTwghNNDYsRDuTRqUoGpBEQyPw9qNUV4K3nqfM94oihJgX
iVpj/+MzYkEm8iM/jyNO/Ic96oKGwPrP2FT1Op2O9SSklbOZO8SulVP8O8U4eqiv
mpMHRFLSQkJquxJJHsdd2uO1emzDAbKexVl3FtsAd/0UqbGqxMoUqS96bxaaP1At
ZaYqYDdzZZ5LopKc/IcBWwBRaj05XiB8glshUxcH5yr5T8aUIaAsf7vgEmEhsYpp
uQIDAQABo4IBYzCCAV8wCQYDVR0TBAIwADAtBglghkgBhvhCAQ0EIBYeRWFzeS1S
U0EgR2VuZXJhdGVkIENlcnRpZmljYXRlMB0GA1UdDgQWBBTm8+gniVCijhCov8Lq
IdwRsHOnBzCB4QYDVR0jBIHZMIHWgBQSzWAE0qCAnnDtxpm4eyzGUv0ZoaGBsqSB
rzCBrDELMAkGA1UEBhMCVVMxCzAJBgNVBAgTAk9IMREwDwYDVQQHEwhDb2x1bWJ1
czESMBAGA1UEChMJVmlraW5nVlBOMR0wGwYDVQQLExRNeU9yZ2FuaXphdGlvbmFs
VW5pdDEVMBMGA1UEAxMMVmlraW5nVlBOIENBMRAwDgYDVQQpEwdFYXN5UlNBMSEw
HwYJKoZIhvcNAQkBFhJtZUBteWhvc3QubXlkb21haW6CCQDPNYXugL8qPjATBgNV
HSUEDDAKBggrBgEFBQcDAjALBgNVHQ8EBAMCB4AwDQYJKoZIhvcNAQEEBQADggIB
AL2WVhbMe9lavDWHqdsaCj8iAjTCEySypbLVdxi6IScRi4d5CyImU1nqus6e9Nh6
rcEzaWsQNjMa0vrYCOkL4iJqx3L84vOXf32OucXT74Mmb5uQ9wupwqEb/9MwupDH
lgikkJGATL4alHMOtynW0vb4XgAmY8TCpeFXmGYdb1OpNvGDjytY5eKlTooVDFAK
BVXmemfPV8ITe7uhAfOvn7Gstrt+EuTrZ+eUuGK64INw9wVotzN/GT+bKOJL+J+a
pQW60IUvbKdLMktOSP49713Qe9EXecbLwJNgLQPm+1pthxj37o8fW26x/2IkyG8q
ZNp2W3oGJTXBeBdOrODtCucyULZzZR4yN6eDdwipc0Dv0irEKZNNZIdj+8Jbscex
G5+vbPPCUsknrpVQxnvnb+dQg4d0f1nx9g+iB2MkhpQfWnTFVESFnkGK3JnyQRE1
aRI4Sm3xLK0gQ2ep1SL75jiIMI3Yv4gZypfGgRowlRfWr9RhbM5NmCaT45Nr/8yD
WB4dIFwu+PtrOh4r/7uYcGG52iYkOuOLjP31zTsytbJdPvncSaD3xbFAqoHv7uj0
5zgQCKOJ18qk/mNKd6q43LDEPt4IfOsU5+JpfSmSLlpASm0ZC5nmAuzxo1oh3nuK
wn0CrCnNCoHNoKh79EYdQTV5BYzO86TUY5P6Sp5PH7Lh
-----END CERTIFICATE-----
