Certificate:
    Data:
        Version: 3 (0x2)
        Serial Number: 3251 (0xcb3)
    Signature Algorithm: md5WithRSAEncryption
        Issuer: C=US, ST=OH, L=Columbus, O=VikingVPN, OU=MyOrganizationalUnit, CN=VikingVPN CA/name=EasyRSA/emailAddress=me@myhost.mydomain
        Validity
            Not Before: Nov  4 00:29:21 2014 GMT
            Not After : Nov  1 00:29:21 2024 GMT
        Subject: CN=Client365Cert770aff
        Subject Public Key Info:
            Public Key Algorithm: rsaEncryption
                Public-Key: (4096 bit)
                Modulus:
                    00:c0:6f:b9:1c:0d:a3:b7:68:fe:6f:f6:6e:4c:52:
                    fa:90:8d:27:13:6a:1d:f6:8b:e1:9c:0f:91:31:ce:
                    80:37:b2:a3:cf:a0:8e:4d:e6:8c:4f:5c:6c:bc:fb:
                    42:2e:fb:b0:c0:70:cb:c9:f3:66:b9:46:e0:70:4e:
                    19:a9:c8:8f:e6:bc:f2:d7:24:af:2a:9e:ab:37:b4:
                    0a:20:c3:8f:42:7c:01:98:5a:cd:45:da:ac:c5:00:
                    8b:14:2d:31:42:a8:a2:c5:14:fb:fc:85:3f:c9:e4:
                    c8:92:e4:f0:1c:83:c4:0a:a0:59:24:96:a7:3e:dc:
                    f0:64:f2:28:4d:94:6e:c4:46:c5:23:5d:67:5e:e1:
                    49:bb:6f:e3:b8:c7:7c:85:23:93:22:6d:6f:7d:1d:
                    34:0a:59:43:70:58:1c:e9:67:70:02:98:78:f5:73:
                    b7:df:b9:86:5e:9d:7d:96:8a:96:76:69:b1:82:40:
                    74:8f:f1:83:98:41:48:dd:90:50:e5:7d:62:5c:a4:
                    88:d1:97:4e:02:20:f9:a4:04:77:ce:a1:7b:75:0d:
                    14:6c:07:cb:84:6d:00:d2:f5:56:19:3d:bd:f1:84:
                    eb:7c:2a:6e:c8:95:f4:d7:e3:8a:d7:07:85:3d:fc:
                    b0:15:1f:16:0c:4e:9e:e8:a6:91:83:56:75:33:6a:
                    cf:89:e5:63:5d:44:1f:9f:b2:d4:96:0f:55:c1:a8:
                    c2:bc:f3:80:03:d1:1b:ab:05:b3:d3:2b:06:af:06:
                    a5:3c:76:04:5e:d2:0c:c0:c4:ea:5e:8b:01:9f:58:
                    42:ee:4b:c7:a3:05:0c:ac:4c:80:ad:0f:1c:0f:8e:
                    23:2b:6a:26:17:cf:2f:dd:c5:3a:82:e7:ec:9e:2e:
                    3e:6e:ef:fd:26:e2:ce:76:0b:36:cd:85:b6:11:ba:
                    cc:ee:79:63:96:33:7c:8f:94:0d:3f:67:17:34:bd:
                    e7:f1:13:5c:03:d9:d1:9f:ca:1f:ad:80:cb:d4:0d:
                    38:8d:bb:81:82:c3:8a:77:19:90:97:2d:f2:76:c6:
                    c7:f6:93:09:7e:c1:78:20:d0:ed:4b:e0:4b:1b:bb:
                    e8:27:96:84:c8:0b:3a:13:b9:c8:66:99:a3:dc:77:
                    46:da:38:d7:3e:73:ac:70:0f:72:7e:19:4f:78:8b:
                    ec:04:70:65:68:5d:9b:95:71:0c:a9:49:7e:34:e6:
                    2a:e6:93:d2:db:8a:f4:e3:e6:ec:0b:ed:a0:9f:69:
                    6c:ed:66:d3:22:64:b8:ca:7e:a6:de:87:c7:74:66:
                    8f:2c:22:94:52:f8:64:cd:0f:99:99:ff:89:4f:f9:
                    0e:64:36:72:f1:14:20:94:10:25:ea:5a:02:43:96:
                    79:9a:fb
                Exponent: 65537 (0x10001)
        X509v3 extensions:
            X509v3 Basic Constraints: 
                CA:FALSE
            Netscape Comment: 
                Easy-RSA Generated Certificate
            X509v3 Subject Key Identifier: 
                66:4D:5A:2A:8F:98:54:B9:D8:AD:0F:FB:19:D5:D2:AA:D4:00:2F:E0
            X509v3 Authority Key Identifier: 
                keyid:12:CD:60:04:D2:A0:80:9E:70:ED:C6:99:B8:7B:2C:C6:52:FD:19:A1
                DirName:/C=US/ST=OH/L=Columbus/O=VikingVPN/OU=MyOrganizationalUnit/CN=VikingVPN CA/name=EasyRSA/emailAddress=me@myhost.mydomain
                serial:CF:35:85:EE:80:BF:2A:3E

            X509v3 Extended Key Usage: 
                TLS Web Client Authentication
            X509v3 Key Usage: 
                Digital Signature
    Signature Algorithm: md5WithRSAEncryption
         1a:ee:dd:df:e8:de:ce:30:dc:cf:1c:40:bd:48:cb:86:0a:88:
         07:31:d6:86:75:da:c5:8c:32:f8:69:90:22:4e:04:13:1e:12:
         9a:56:58:bc:2a:3e:6c:8a:68:96:24:d9:fb:1d:c1:1e:5b:51:
         72:52:49:dd:51:2b:2f:9e:96:a0:4d:9a:19:61:15:84:5b:75:
         b3:b6:1e:85:45:a8:8e:c4:05:98:eb:b3:05:3d:a1:ce:95:e8:
         33:45:5b:29:b0:71:22:78:43:bf:9b:3a:09:13:33:d7:d9:93:
         fe:f3:77:fc:78:0b:a2:b0:f6:dd:d4:91:c6:7c:d8:db:96:48:
         d5:c9:ee:05:db:50:56:f8:91:c7:1d:12:88:d2:2e:2b:59:5b:
         9e:d7:dd:70:3f:8a:f4:6c:ef:99:6b:f0:2c:0c:97:85:74:32:
         9f:0c:66:3e:1f:2e:4b:75:e8:58:0c:ec:77:39:c3:81:b4:47:
         40:08:3a:56:0f:fa:f8:0e:d9:2f:d6:e8:06:6c:0b:f1:5b:5f:
         4b:26:e6:58:4e:27:c2:f4:a1:e0:e4:9c:b8:f9:e4:0c:38:ea:
         c1:be:6e:a1:10:e6:d0:1e:d8:04:2b:d2:8c:a7:a8:30:48:ba:
         8b:af:3a:61:30:02:13:c0:14:fb:2a:26:24:db:19:85:30:63:
         a9:d2:33:5a:0a:4a:e8:e0:38:60:ce:e2:bf:b4:ce:1e:9d:f5:
         41:48:a2:2a:5e:48:2e:ea:8f:35:56:ce:b7:0b:e5:1e:c6:69:
         88:80:e8:25:fe:74:fe:5d:8b:14:07:a2:6c:4f:58:94:42:a6:
         d3:d3:80:ee:66:06:d9:9b:d1:ed:a3:64:53:41:49:af:86:cd:
         dc:15:ab:03:fc:66:25:f6:a4:5b:c0:16:d8:79:ac:cb:0e:3d:
         e1:13:92:77:8b:7d:56:28:a3:5f:9f:8b:12:03:74:4b:cc:5d:
         50:e6:d2:3e:0e:6d:01:cb:72:e1:9c:58:f7:59:16:c4:63:c4:
         00:74:12:2a:f9:50:1c:bc:73:54:5f:3a:3d:7c:be:97:ba:af:
         99:8e:7d:52:90:34:12:fe:19:d3:2f:8d:88:6e:03:7d:ad:58:
         67:80:86:d6:2e:39:2e:e2:7c:5e:6d:f5:27:e8:2f:e9:bb:4e:
         9d:7e:6f:bb:9f:28:9b:82:a1:57:db:da:f8:88:5b:34:97:5d:
         2c:66:0b:c4:c2:5e:76:9e:f5:e1:08:3b:b0:76:e2:31:97:90:
         a3:4e:ec:83:9b:e9:81:5d:54:d4:ca:06:f0:be:94:3b:35:dc:
         19:35:9c:df:e9:f7:f8:51:ce:06:a1:0b:4e:c1:7f:73:22:46:
         31:57:fb:f4:6a:98:ff:25
-----BEGIN CERTIFICATE-----
MIIGrDCCBJSgAwIBAgICDLMwDQYJKoZIhvcNAQEEBQAwgawxCzAJBgNVBAYTAlVT
MQswCQYDVQQIEwJPSDERMA8GA1UEBxMIQ29sdW1idXMxEjAQBgNVBAoTCVZpa2lu
Z1ZQTjEdMBsGA1UECxMUTXlPcmdhbml6YXRpb25hbFVuaXQxFTATBgNVBAMTDFZp
a2luZ1ZQTiBDQTEQMA4GA1UEKRMHRWFzeVJTQTEhMB8GCSqGSIb3DQEJARYSbWVA
bXlob3N0Lm15ZG9tYWluMB4XDTE0MTEwNDAwMjkyMVoXDTI0MTEwMTAwMjkyMVow
HjEcMBoGA1UEAxMTQ2xpZW50MzY1Q2VydDc3MGFmZjCCAiIwDQYJKoZIhvcNAQEB
BQADggIPADCCAgoCggIBAMBvuRwNo7do/m/2bkxS+pCNJxNqHfaL4ZwPkTHOgDey
o8+gjk3mjE9cbLz7Qi77sMBwy8nzZrlG4HBOGanIj+a88tckryqeqze0CiDDj0J8
AZhazUXarMUAixQtMUKoosUU+/yFP8nkyJLk8ByDxAqgWSSWpz7c8GTyKE2UbsRG
xSNdZ17hSbtv47jHfIUjkyJtb30dNApZQ3BYHOlncAKYePVzt9+5hl6dfZaKlnZp
sYJAdI/xg5hBSN2QUOV9YlykiNGXTgIg+aQEd86he3UNFGwHy4RtANL1Vhk9vfGE
63wqbsiV9NfjitcHhT38sBUfFgxOnuimkYNWdTNqz4nlY11EH5+y1JYPVcGowrzz
gAPRG6sFs9MrBq8GpTx2BF7SDMDE6l6LAZ9YQu5Lx6MFDKxMgK0PHA+OIytqJhfP
L93FOoLn7J4uPm7v/SbiznYLNs2FthG6zO55Y5YzfI+UDT9nFzS95/ETXAPZ0Z/K
H62Ay9QNOI27gYLDincZkJct8nbGx/aTCX7BeCDQ7UvgSxu76CeWhMgLOhO5yGaZ
o9x3Rto41z5zrHAPcn4ZT3iL7ARwZWhdm5VxDKlJfjTmKuaT0tuK9OPm7AvtoJ9p
bO1m0yJkuMp+pt6Hx3RmjywilFL4ZM0PmZn/iU/5DmQ2cvEUIJQQJepaAkOWeZr7
AgMBAAGjggFjMIIBXzAJBgNVHRMEAjAAMC0GCWCGSAGG+EIBDQQgFh5FYXN5LVJT
QSBHZW5lcmF0ZWQgQ2VydGlmaWNhdGUwHQYDVR0OBBYEFGZNWiqPmFS52K0P+xnV
0qrUAC/gMIHhBgNVHSMEgdkwgdaAFBLNYATSoICecO3Gmbh7LMZS/RmhoYGypIGv
MIGsMQswCQYDVQQGEwJVUzELMAkGA1UECBMCT0gxETAPBgNVBAcTCENvbHVtYnVz
MRIwEAYDVQQKEwlWaWtpbmdWUE4xHTAbBgNVBAsTFE15T3JnYW5pemF0aW9uYWxV
bml0MRUwEwYDVQQDEwxWaWtpbmdWUE4gQ0ExEDAOBgNVBCkTB0Vhc3lSU0ExITAf
BgkqhkiG9w0BCQEWEm1lQG15aG9zdC5teWRvbWFpboIJAM81he6Avyo+MBMGA1Ud
JQQMMAoGCCsGAQUFBwMCMAsGA1UdDwQEAwIHgDANBgkqhkiG9w0BAQQFAAOCAgEA
Gu7d3+jezjDczxxAvUjLhgqIBzHWhnXaxYwy+GmQIk4EEx4SmlZYvCo+bIpoliTZ
+x3BHltRclJJ3VErL56WoE2aGWEVhFt1s7YehUWojsQFmOuzBT2hzpXoM0VbKbBx
InhDv5s6CRMz19mT/vN3/HgLorD23dSRxnzY25ZI1cnuBdtQVviRxx0SiNIuK1lb
ntfdcD+K9GzvmWvwLAyXhXQynwxmPh8uS3XoWAzsdznDgbRHQAg6Vg/6+A7ZL9bo
BmwL8VtfSybmWE4nwvSh4OScuPnkDDjqwb5uoRDm0B7YBCvSjKeoMEi6i686YTAC
E8AU+yomJNsZhTBjqdIzWgpK6OA4YM7iv7TOHp31QUiiKl5ILuqPNVbOtwvlHsZp
iIDoJf50/l2LFAeibE9YlEKm09OA7mYG2ZvR7aNkU0FJr4bN3BWrA/xmJfakW8AW
2Hmsyw494ROSd4t9ViijX5+LEgN0S8xdUObSPg5tActy4ZxY91kWxGPEAHQSKvlQ
HLxzVF86PXy+l7qvmY59UpA0Ev4Z0y+NiG4Dfa1YZ4CG1i45LuJ8Xm31J+gv6btO
nX5vu58om4KhV9va+IhbNJddLGYLxMJedp714Qg7sHbiMZeQo07sg5vpgV1U1MoG
8L6UOzXcGTWc3+n3+FHOBqELTsF/cyJGMVf79GqY/yU=
-----END CERTIFICATE-----
