Certificate:
    Data:
        Version: 3 (0x2)
        Serial Number: 3253 (0xcb5)
    Signature Algorithm: md5WithRSAEncryption
        Issuer: C=US, ST=OH, L=Columbus, O=VikingVPN, OU=MyOrganizationalUnit, CN=VikingVPN CA/name=EasyRSA/emailAddress=me@myhost.mydomain
        Validity
            Not Before: Nov  4 10:32:24 2014 GMT
            Not After : Nov  1 10:32:24 2024 GMT
        Subject: CN=Client1134Cert55cef0
        Subject Public Key Info:
            Public Key Algorithm: rsaEncryption
                Public-Key: (4096 bit)
                Modulus:
                    00:ca:63:8b:33:4a:2c:80:bf:86:68:89:a6:d6:5e:
                    06:83:0b:1c:39:32:a1:0b:79:20:17:88:26:9e:33:
                    d6:b8:77:54:b2:86:f8:26:98:05:64:d3:8a:9b:2f:
                    45:0f:b3:ff:c2:02:02:9e:92:f4:fe:09:aa:9c:5c:
                    48:b2:f5:87:bc:f2:59:e6:d4:56:e3:61:b1:b5:5f:
                    1c:e7:18:bb:6c:0c:d5:fc:fb:1d:ed:20:c6:9c:90:
                    b4:48:24:e8:a5:05:ff:e1:73:53:0e:63:36:11:2b:
                    b8:f8:bd:7c:e7:65:c0:ae:13:bd:79:0e:ab:6b:90:
                    b9:36:af:b9:0a:01:72:b3:9a:dc:dd:ed:fb:ef:13:
                    da:27:a7:ca:2b:2e:76:57:58:11:8f:6f:ba:65:f8:
                    ec:ef:82:06:35:cd:1e:92:69:c6:38:14:f2:d2:17:
                    f1:75:a0:53:1a:9d:87:d7:85:0e:1b:42:3e:29:a1:
                    b6:cb:53:5f:bb:37:7d:b6:ce:98:ed:51:5b:e5:f8:
                    06:20:a8:8c:2e:13:e1:3f:47:b1:7e:7e:70:96:17:
                    9f:7a:57:62:84:f9:d5:9e:46:ee:20:e7:e0:b6:4e:
                    2b:a0:d7:a2:e6:3a:ba:58:36:80:95:59:34:2d:f9:
                    eb:7d:7b:5e:9d:55:a8:c8:5e:5b:4b:3a:c6:56:f0:
                    38:7b:e8:9e:4a:6a:ce:27:ca:78:eb:33:7c:e3:61:
                    2c:b1:97:f7:a9:2f:d5:4a:04:59:84:69:9f:98:0f:
                    93:6a:e7:6d:3d:27:72:2c:7a:5d:83:20:33:4f:25:
                    4d:53:80:ad:59:3f:c7:dc:0f:7e:ce:ec:9f:43:0c:
                    4d:88:23:88:1d:6e:4a:87:f0:05:a9:1c:e5:bf:2b:
                    57:c0:90:75:b6:b6:fb:7c:f9:f2:d2:79:f6:ba:8e:
                    24:68:e5:44:29:48:af:86:16:5a:4a:c4:27:e8:70:
                    d8:e4:44:41:9c:c7:a6:10:9d:f4:02:98:65:ed:b4:
                    8e:d7:ed:70:e0:0b:f8:2e:2f:43:0a:10:99:43:5e:
                    f9:62:bf:8c:7e:62:97:8c:1f:b1:f1:e6:a4:ac:1f:
                    52:c3:f8:7c:3f:4a:61:9e:d1:c2:07:6e:d1:74:42:
                    bf:d3:a6:8d:ec:c7:b2:40:a0:1b:c1:9b:0c:90:3a:
                    06:30:9e:71:09:c8:9e:19:ac:fb:54:af:33:7b:60:
                    a3:4a:c7:9f:c2:5a:03:eb:5f:12:71:4d:ab:70:ba:
                    a3:fd:94:2b:a9:02:61:16:6c:0c:0d:c4:89:00:bb:
                    36:a6:81:c7:9d:5e:42:82:56:8b:8e:93:9c:5c:27:
                    2a:fa:03:86:f5:16:f1:e2:ea:1b:eb:ab:3c:c4:98:
                    1d:69:31
                Exponent: 65537 (0x10001)
        X509v3 extensions:
            X509v3 Basic Constraints: 
                CA:FALSE
            Netscape Comment: 
                Easy-RSA Generated Certificate
            X509v3 Subject Key Identifier: 
                88:6C:88:E7:36:A2:CE:25:D2:38:63:55:85:DC:09:8D:ED:2A:8A:EC
            X509v3 Authority Key Identifier: 
                keyid:12:CD:60:04:D2:A0:80:9E:70:ED:C6:99:B8:7B:2C:C6:52:FD:19:A1
                DirName:/C=US/ST=OH/L=Columbus/O=VikingVPN/OU=MyOrganizationalUnit/CN=VikingVPN CA/name=EasyRSA/emailAddress=me@myhost.mydomain
                serial:CF:35:85:EE:80:BF:2A:3E

            X509v3 Extended Key Usage: 
                TLS Web Client Authentication
            X509v3 Key Usage: 
                Digital Signature
    Signature Algorithm: md5WithRSAEncryption
         79:02:8f:a9:3d:8c:15:e7:7e:b1:48:c4:5a:01:d7:27:76:c9:
         ae:1d:5b:3a:30:7c:7d:0f:a7:e0:44:43:31:06:42:64:95:19:
         4c:90:9c:dc:a9:f1:4e:ad:69:f4:40:54:df:d6:02:a1:6b:29:
         6a:59:7e:d1:a8:1c:cd:1f:b5:37:81:ac:56:9a:c4:97:94:a0:
         7d:b7:29:25:d7:e1:a0:46:1b:44:1d:79:74:ab:cd:d5:a3:02:
         35:d2:62:2b:6f:34:0a:74:9a:67:cc:dc:b7:16:7e:54:fa:75:
         81:d1:2f:1d:d5:7d:96:fb:54:ef:d2:03:e1:05:92:d8:1c:42:
         cd:af:6f:d0:68:a3:47:db:8b:2e:69:54:0d:e7:b3:52:93:c0:
         fd:4e:5a:01:0b:ff:37:8e:18:71:e1:e9:8a:e3:ef:7f:82:42:
         15:a8:6e:6b:c0:44:28:c5:67:67:c0:dc:bf:42:1c:5c:dd:b0:
         d8:49:c5:5e:62:3d:97:64:b5:6f:8c:33:7a:df:e1:c4:4e:9a:
         5d:c2:98:8c:db:8f:6c:f9:6e:a2:2c:9c:bf:0f:de:f4:31:6c:
         2e:cf:d4:8d:cc:b8:9c:a6:60:bb:22:26:0a:b5:61:a0:c4:52:
         8e:47:3f:66:b0:f0:ad:b6:a2:ae:d2:58:6b:f5:ca:1a:eb:cd:
         9b:78:0b:60:e0:84:c4:40:65:26:9d:4b:ae:1e:3d:bf:88:95:
         16:78:16:43:51:5f:96:53:4e:0c:a8:eb:49:dd:93:1b:4f:6d:
         17:4e:e5:0f:0f:d2:ca:11:6f:0b:92:1f:ee:93:76:45:95:7a:
         79:ad:60:f6:f6:bc:38:79:16:7f:aa:12:98:ab:23:27:55:c4:
         6e:3d:92:dc:b5:a4:28:55:f5:c2:0c:38:27:66:f1:ab:7d:06:
         87:9a:ef:06:43:f2:6f:4d:ea:f3:cd:d9:ac:f3:47:a4:84:85:
         12:a1:ba:49:c8:3f:3a:bd:34:cc:78:11:f5:ae:77:76:96:3a:
         e1:c9:36:b0:b6:7a:d9:9b:fc:30:51:b7:52:bd:4d:f0:4b:14:
         8d:0b:ec:cc:ee:52:de:f8:79:fb:42:20:92:34:85:98:8a:b6:
         a4:01:7a:f8:bd:e7:d5:60:62:3f:b9:b7:32:f1:b8:0d:7f:80:
         9d:2d:7c:7f:45:78:13:77:b9:af:bf:9c:17:19:2f:9e:fb:6f:
         10:51:56:56:48:46:ba:c3:4b:f6:48:8b:e1:83:ba:d8:1f:1b:
         81:2b:1c:90:9d:a1:4a:9f:00:97:84:48:dd:1e:f3:6d:6c:97:
         bd:08:72:4e:94:cc:6e:46:a7:9e:48:71:ca:ba:11:f2:fb:e0:
         5a:5c:22:07:35:96:b1:19
-----BEGIN CERTIFICATE-----
MIIGrTCCBJWgAwIBAgICDLUwDQYJKoZIhvcNAQEEBQAwgawxCzAJBgNVBAYTAlVT
MQswCQYDVQQIEwJPSDERMA8GA1UEBxMIQ29sdW1idXMxEjAQBgNVBAoTCVZpa2lu
Z1ZQTjEdMBsGA1UECxMUTXlPcmdhbml6YXRpb25hbFVuaXQxFTATBgNVBAMTDFZp
a2luZ1ZQTiBDQTEQMA4GA1UEKRMHRWFzeVJTQTEhMB8GCSqGSIb3DQEJARYSbWVA
bXlob3N0Lm15ZG9tYWluMB4XDTE0MTEwNDEwMzIyNFoXDTI0MTEwMTEwMzIyNFow
HzEdMBsGA1UEAxMUQ2xpZW50MTEzNENlcnQ1NWNlZjAwggIiMA0GCSqGSIb3DQEB
AQUAA4ICDwAwggIKAoICAQDKY4szSiyAv4ZoiabWXgaDCxw5MqELeSAXiCaeM9a4
d1SyhvgmmAVk04qbL0UPs//CAgKekvT+CaqcXEiy9Ye88lnm1FbjYbG1XxznGLts
DNX8+x3tIMackLRIJOilBf/hc1MOYzYRK7j4vXznZcCuE715DqtrkLk2r7kKAXKz
mtzd7fvvE9onp8orLnZXWBGPb7pl+OzvggY1zR6SacY4FPLSF/F1oFManYfXhQ4b
Qj4pobbLU1+7N322zpjtUVvl+AYgqIwuE+E/R7F+fnCWF596V2KE+dWeRu4g5+C2
Tiug16LmOrpYNoCVWTQt+et9e16dVajIXltLOsZW8Dh76J5Kas4nynjrM3zjYSyx
l/epL9VKBFmEaZ+YD5Nq5209J3Isel2DIDNPJU1TgK1ZP8fcD37O7J9DDE2II4gd
bkqH8AWpHOW/K1fAkHW2tvt8+fLSefa6jiRo5UQpSK+GFlpKxCfocNjkREGcx6YQ
nfQCmGXttI7X7XDgC/guL0MKEJlDXvliv4x+YpeMH7Hx5qSsH1LD+Hw/SmGe0cIH
btF0Qr/Tpo3sx7JAoBvBmwyQOgYwnnEJyJ4ZrPtUrzN7YKNKx5/CWgPrXxJxTatw
uqP9lCupAmEWbAwNxIkAuzamgcedXkKCVouOk5xcJyr6A4b1FvHi6hvrqzzEmB1p
MQIDAQABo4IBYzCCAV8wCQYDVR0TBAIwADAtBglghkgBhvhCAQ0EIBYeRWFzeS1S
U0EgR2VuZXJhdGVkIENlcnRpZmljYXRlMB0GA1UdDgQWBBSIbIjnNqLOJdI4Y1WF
3AmN7SqK7DCB4QYDVR0jBIHZMIHWgBQSzWAE0qCAnnDtxpm4eyzGUv0ZoaGBsqSB
rzCBrDELMAkGA1UEBhMCVVMxCzAJBgNVBAgTAk9IMREwDwYDVQQHEwhDb2x1bWJ1
czESMBAGA1UEChMJVmlraW5nVlBOMR0wGwYDVQQLExRNeU9yZ2FuaXphdGlvbmFs
VW5pdDEVMBMGA1UEAxMMVmlraW5nVlBOIENBMRAwDgYDVQQpEwdFYXN5UlNBMSEw
HwYJKoZIhvcNAQkBFhJtZUBteWhvc3QubXlkb21haW6CCQDPNYXugL8qPjATBgNV
HSUEDDAKBggrBgEFBQcDAjALBgNVHQ8EBAMCB4AwDQYJKoZIhvcNAQEEBQADggIB
AHkCj6k9jBXnfrFIxFoB1yd2ya4dWzowfH0Pp+BEQzEGQmSVGUyQnNyp8U6tafRA
VN/WAqFrKWpZftGoHM0ftTeBrFaaxJeUoH23KSXX4aBGG0QdeXSrzdWjAjXSYitv
NAp0mmfM3LcWflT6dYHRLx3VfZb7VO/SA+EFktgcQs2vb9Boo0fbiy5pVA3ns1KT
wP1OWgEL/zeOGHHh6Yrj73+CQhWobmvARCjFZ2fA3L9CHFzdsNhJxV5iPZdktW+M
M3rf4cROml3CmIzbj2z5bqIsnL8P3vQxbC7P1I3MuJymYLsiJgq1YaDEUo5HP2aw
8K22oq7SWGv1yhrrzZt4C2DghMRAZSadS64ePb+IlRZ4FkNRX5ZTTgyo60ndkxtP
bRdO5Q8P0soRbwuSH+6TdkWVenmtYPb2vDh5Fn+qEpirIydVxG49kty1pChV9cIM
OCdm8at9Boea7wZD8m9N6vPN2azzR6SEhRKhuknIPzq9NMx4EfWud3aWOuHJNrC2
etmb/DBRt1K9TfBLFI0L7MzuUt74eftCIJI0hZiKtqQBevi959VgYj+5tzLxuA1/
gJ0tfH9FeBN3ua+/nBcZL577bxBRVlZIRrrDS/ZIi+GDutgfG4ErHJCdoUqfAJeE
SN0e821sl70Ick6UzG5Gp55Iccq6EfL74FpcIgc1lrEZ
-----END CERTIFICATE-----
