Certificate:
    Data:
        Version: 3 (0x2)
        Serial Number: 3274 (0xcca)
    Signature Algorithm: md5WithRSAEncryption
        Issuer: C=US, ST=OH, L=Columbus, O=VikingVPN, OU=MyOrganizationalUnit, CN=VikingVPN CA/name=EasyRSA/emailAddress=me@myhost.mydomain
        Validity
            Not Before: Nov  7 13:58:12 2014 GMT
            Not After : Nov  4 13:58:12 2024 GMT
        Subject: CN=Client1143Cert5f527c
        Subject Public Key Info:
            Public Key Algorithm: rsaEncryption
                Public-Key: (4096 bit)
                Modulus:
                    00:df:da:50:24:de:b7:22:0a:c1:8a:2b:df:f2:21:
                    94:1d:bf:60:f3:f8:21:e4:b1:51:55:70:ec:60:a8:
                    48:d0:f9:ad:24:ad:94:73:a2:01:91:b6:92:6e:bd:
                    1c:13:71:72:12:06:63:1c:97:00:9e:dc:89:7d:6e:
                    3f:9b:df:cb:c1:25:4c:e2:65:a8:e4:0d:f6:24:cc:
                    3f:9d:d5:8e:ed:fe:32:3f:ef:bd:3e:bf:de:58:16:
                    f5:04:0b:9c:33:dc:2b:fc:29:73:ed:f1:ac:27:6f:
                    a3:33:74:a2:43:8f:75:e7:c5:c2:c7:5b:52:d1:5a:
                    56:3f:fd:e1:79:4b:b5:00:ad:9d:d3:c9:3b:f1:07:
                    91:23:5d:d1:b8:da:02:5b:ab:0f:49:ed:3e:79:fa:
                    f9:4a:a9:3f:9b:ba:b3:cd:60:a8:dc:db:03:1b:11:
                    d3:96:42:34:58:a3:3a:5c:4e:15:77:9d:44:aa:3a:
                    be:a4:97:b4:51:b5:71:9f:21:cf:c7:4e:5b:0e:3b:
                    6c:9c:27:d2:5b:56:26:78:53:05:d2:9d:cb:bf:8e:
                    11:33:18:f9:19:97:bc:01:17:9c:41:3e:01:34:5f:
                    77:da:5b:0d:b9:fd:6c:9b:cd:a2:e5:68:b4:66:d8:
                    e6:d1:a1:ed:ce:f6:0a:36:2a:93:f1:08:51:e2:70:
                    32:cf:b7:90:21:bc:58:69:a7:3f:02:3a:e7:44:47:
                    5c:da:1e:5f:31:14:ca:87:7f:26:da:4a:88:86:7d:
                    59:5f:e2:b4:5e:4b:5d:38:9c:df:7d:27:04:19:fb:
                    79:43:05:d7:51:61:29:c0:a9:2e:a9:e9:3d:44:b9:
                    0c:1b:23:a2:cf:44:cc:fd:a9:79:4e:93:c4:f6:d7:
                    bd:c9:d8:65:57:67:54:67:46:b4:d3:b8:a6:a5:2f:
                    cf:a7:9f:76:b1:48:14:a6:a8:f3:dc:ff:71:a4:b8:
                    a1:b6:8e:fe:2f:f0:09:b3:23:02:30:63:f4:eb:1f:
                    e1:ad:2d:b8:5b:60:03:4c:29:6a:72:e8:fb:54:dc:
                    bc:58:f1:bf:47:04:0f:69:2e:d3:3d:f4:dd:1f:4b:
                    22:21:f2:38:e9:cd:9c:7b:b6:25:79:30:36:4a:4b:
                    4c:c1:89:0b:4a:11:3e:0d:32:c6:48:2f:ca:9f:53:
                    ff:e2:8b:ac:47:ae:60:87:e1:51:14:d1:74:30:ae:
                    f8:49:e5:64:b9:e1:ee:d0:68:38:73:89:fc:81:7c:
                    57:a6:a9:dc:c0:8a:33:ed:8b:5c:36:39:e9:a7:81:
                    82:98:5c:96:9f:a7:d6:6f:68:7c:88:5c:fc:05:32:
                    23:ad:2c:6e:96:37:61:a6:f6:6a:11:2b:5e:f4:9f:
                    5a:e3:f1
                Exponent: 65537 (0x10001)
        X509v3 extensions:
            X509v3 Basic Constraints: 
                CA:FALSE
            Netscape Comment: 
                Easy-RSA Generated Certificate
            X509v3 Subject Key Identifier: 
                6D:B4:47:F1:9E:5D:BB:41:5F:EE:16:B3:63:9C:92:2E:AD:97:77:51
            X509v3 Authority Key Identifier: 
                keyid:12:CD:60:04:D2:A0:80:9E:70:ED:C6:99:B8:7B:2C:C6:52:FD:19:A1
                DirName:/C=US/ST=OH/L=Columbus/O=VikingVPN/OU=MyOrganizationalUnit/CN=VikingVPN CA/name=EasyRSA/emailAddress=me@myhost.mydomain
                serial:CF:35:85:EE:80:BF:2A:3E

            X509v3 Extended Key Usage: 
                TLS Web Client Authentication
            X509v3 Key Usage: 
                Digital Signature
    Signature Algorithm: md5WithRSAEncryption
         16:d6:85:31:df:eb:5c:52:76:71:cf:36:fa:81:98:c0:c3:4b:
         d1:9e:ff:db:d8:a6:9b:91:e5:f7:c7:11:b2:e9:79:d7:02:87:
         d8:11:f3:7a:0f:50:ec:34:5d:95:5b:7c:2a:84:f2:c9:1e:ab:
         28:30:d6:bf:b6:84:29:42:0f:e3:b1:d7:77:67:73:00:9b:8a:
         3a:8a:a5:35:e5:eb:29:f5:a8:37:62:92:5b:44:ce:d8:aa:b6:
         60:5f:2f:7e:68:06:7d:98:d8:bb:2a:d9:58:d8:61:d7:d5:93:
         f8:11:24:cb:8f:6a:31:3c:c6:f0:74:7d:f9:74:ac:1a:8b:c6:
         20:6b:39:d8:94:59:c0:76:c7:8d:e9:bb:35:d7:e7:0f:78:73:
         45:b9:01:01:16:71:59:ec:24:82:b3:3d:34:92:2a:a8:60:93:
         5e:dc:fc:c4:8c:30:40:e1:30:74:79:d0:8f:db:14:08:c8:f0:
         17:ad:0f:c3:7a:38:99:07:8b:08:65:57:12:72:ca:22:a1:6b:
         eb:e3:05:17:4c:aa:be:76:be:59:f8:ae:11:01:25:49:9d:0e:
         9c:8a:02:ae:c1:a8:6b:28:42:2d:21:50:a4:e1:2e:d8:36:32:
         ec:74:3b:f2:bf:ca:cb:06:18:84:f6:18:85:c2:1f:bf:cb:15:
         c1:67:76:22:b6:f9:f2:a9:08:a5:95:77:63:7c:8b:a4:87:bc:
         ae:54:d3:93:e6:af:23:ce:f5:83:c7:60:7f:c5:8b:79:e0:96:
         63:ed:55:03:41:1a:ab:53:84:a1:ff:58:09:5d:82:0d:66:00:
         7d:43:c7:ae:18:ce:9b:1e:e0:f1:fd:44:97:ae:5e:69:b2:bd:
         e4:2e:11:e4:2b:3a:a6:ca:76:fe:7f:89:5f:fe:4a:57:fd:2c:
         b5:8f:92:a3:b4:a2:88:cf:11:8c:11:6e:ed:68:fd:32:bd:08:
         47:4d:ff:2d:8c:0c:65:50:7e:e6:fe:6c:11:ca:74:a7:93:72:
         54:39:f8:84:68:ea:7f:29:1d:af:fc:4b:be:b2:d9:cb:f9:ad:
         96:6c:7b:95:23:5f:8e:4d:98:b8:67:88:00:88:82:73:d3:c3:
         59:50:3d:4d:d5:40:7c:94:6e:01:2f:a2:4d:bd:34:9b:13:30:
         ac:39:fb:59:ea:26:7e:f2:3d:40:58:f6:60:17:15:71:f3:8b:
         35:f1:31:ee:ed:6e:4f:2e:f7:e6:52:34:e2:34:0e:b6:b7:a3:
         52:6b:a1:06:58:cc:b5:93:a4:70:ac:3b:88:b3:81:64:59:9b:
         49:ae:67:12:68:8b:4c:c9:2f:c5:96:d5:a6:9a:75:3d:75:39:
         96:dd:5a:00:c6:e6:4c:14
-----BEGIN CERTIFICATE-----
MIIGrTCCBJWgAwIBAgICDMowDQYJKoZIhvcNAQEEBQAwgawxCzAJBgNVBAYTAlVT
MQswCQYDVQQIEwJPSDERMA8GA1UEBxMIQ29sdW1idXMxEjAQBgNVBAoTCVZpa2lu
Z1ZQTjEdMBsGA1UECxMUTXlPcmdhbml6YXRpb25hbFVuaXQxFTATBgNVBAMTDFZp
a2luZ1ZQTiBDQTEQMA4GA1UEKRMHRWFzeVJTQTEhMB8GCSqGSIb3DQEJARYSbWVA
bXlob3N0Lm15ZG9tYWluMB4XDTE0MTEwNzEzNTgxMloXDTI0MTEwNDEzNTgxMlow
HzEdMBsGA1UEAxMUQ2xpZW50MTE0M0NlcnQ1ZjUyN2MwggIiMA0GCSqGSIb3DQEB
AQUAA4ICDwAwggIKAoICAQDf2lAk3rciCsGKK9/yIZQdv2Dz+CHksVFVcOxgqEjQ
+a0krZRzogGRtpJuvRwTcXISBmMclwCe3Il9bj+b38vBJUziZajkDfYkzD+d1Y7t
/jI/770+v95YFvUEC5wz3Cv8KXPt8awnb6MzdKJDj3XnxcLHW1LRWlY//eF5S7UA
rZ3TyTvxB5EjXdG42gJbqw9J7T55+vlKqT+burPNYKjc2wMbEdOWQjRYozpcThV3
nUSqOr6kl7RRtXGfIc/HTlsOO2ycJ9JbViZ4UwXSncu/jhEzGPkZl7wBF5xBPgE0
X3faWw25/WybzaLlaLRm2ObRoe3O9go2KpPxCFHicDLPt5AhvFhppz8COudER1za
Hl8xFMqHfybaSoiGfVlf4rReS104nN99JwQZ+3lDBddRYSnAqS6p6T1EuQwbI6LP
RMz9qXlOk8T2173J2GVXZ1RnRrTTuKalL8+nn3axSBSmqPPc/3GkuKG2jv4v8Amz
IwIwY/TrH+GtLbhbYANMKWpy6PtU3LxY8b9HBA9pLtM99N0fSyIh8jjpzZx7tiV5
MDZKS0zBiQtKET4NMsZIL8qfU//ii6xHrmCH4VEU0XQwrvhJ5WS54e7QaDhzifyB
fFemqdzAijPti1w2OemngYKYXJafp9ZvaHyIXPwFMiOtLG6WN2Gm9moRK170n1rj
8QIDAQABo4IBYzCCAV8wCQYDVR0TBAIwADAtBglghkgBhvhCAQ0EIBYeRWFzeS1S
U0EgR2VuZXJhdGVkIENlcnRpZmljYXRlMB0GA1UdDgQWBBRttEfxnl27QV/uFrNj
nJIurZd3UTCB4QYDVR0jBIHZMIHWgBQSzWAE0qCAnnDtxpm4eyzGUv0ZoaGBsqSB
rzCBrDELMAkGA1UEBhMCVVMxCzAJBgNVBAgTAk9IMREwDwYDVQQHEwhDb2x1bWJ1
czESMBAGA1UEChMJVmlraW5nVlBOMR0wGwYDVQQLExRNeU9yZ2FuaXphdGlvbmFs
VW5pdDEVMBMGA1UEAxMMVmlraW5nVlBOIENBMRAwDgYDVQQpEwdFYXN5UlNBMSEw
HwYJKoZIhvcNAQkBFhJtZUBteWhvc3QubXlkb21haW6CCQDPNYXugL8qPjATBgNV
HSUEDDAKBggrBgEFBQcDAjALBgNVHQ8EBAMCB4AwDQYJKoZIhvcNAQEEBQADggIB
ABbWhTHf61xSdnHPNvqBmMDDS9Ge/9vYppuR5ffHEbLpedcCh9gR83oPUOw0XZVb
fCqE8skeqygw1r+2hClCD+Ox13dncwCbijqKpTXl6yn1qDdikltEztiqtmBfL35o
Bn2Y2Lsq2VjYYdfVk/gRJMuPajE8xvB0ffl0rBqLxiBrOdiUWcB2x43puzXX5w94
c0W5AQEWcVnsJIKzPTSSKqhgk17c/MSMMEDhMHR50I/bFAjI8BetD8N6OJkHiwhl
VxJyyiKha+vjBRdMqr52vln4rhEBJUmdDpyKAq7BqGsoQi0hUKThLtg2Mux0O/K/
yssGGIT2GIXCH7/LFcFndiK2+fKpCKWVd2N8i6SHvK5U05PmryPO9YPHYH/Fi3ng
lmPtVQNBGqtThKH/WAldgg1mAH1Dx64Yzpse4PH9RJeuXmmyveQuEeQrOqbKdv5/
iV/+Slf9LLWPkqO0oojPEYwRbu1o/TK9CEdN/y2MDGVQfub+bBHKdKeTclQ5+IRo
6n8pHa/8S76y2cv5rZZse5UjX45NmLhniACIgnPTw1lQPU3VQHyUbgEvok29NJsT
MKw5+1nqJn7yPUBY9mAXFXHzizXxMe7tbk8u9+ZSNOI0Dra3o1JroQZYzLWTpHCs
O4izgWRZm0muZxJoi0zJL8WW1aaadT11OZbdWgDG5kwU
-----END CERTIFICATE-----
