Certificate:
    Data:
        Version: 3 (0x2)
        Serial Number: 3291 (0xcdb)
    Signature Algorithm: md5WithRSAEncryption
        Issuer: C=US, ST=OH, L=Columbus, O=VikingVPN, OU=MyOrganizationalUnit, CN=VikingVPN CA/name=EasyRSA/emailAddress=me@myhost.mydomain
        Validity
            Not Before: Nov  7 14:00:26 2014 GMT
            Not After : Nov  4 14:00:26 2024 GMT
        Subject: CN=Client1143Certed780e
        Subject Public Key Info:
            Public Key Algorithm: rsaEncryption
                Public-Key: (4096 bit)
                Modulus:
                    00:c6:09:00:48:24:59:77:f8:8d:a9:da:1d:cd:65:
                    88:46:fe:3a:02:69:8e:58:c5:5d:e2:a8:c6:ac:2c:
                    03:6b:97:ed:2a:a7:b7:7f:4e:77:ad:19:76:6e:2c:
                    82:3d:8b:d3:1f:0b:0f:f3:98:4f:18:06:45:bc:31:
                    9e:0d:5f:d0:25:5e:a1:d0:58:ad:24:c5:fe:c0:ba:
                    f7:e8:d0:6b:b2:fb:cf:be:87:d2:6c:49:ca:cb:e9:
                    f7:30:f7:3c:6d:f1:0e:c8:c4:d4:ba:a3:46:16:42:
                    0d:bf:96:d0:11:df:d5:63:0e:c0:2e:69:c8:09:2b:
                    b2:f2:bc:50:a8:78:c0:f5:d8:03:24:9f:7e:3c:43:
                    95:2c:09:63:89:3c:d4:0f:b6:d6:d2:f0:20:64:5d:
                    a5:e9:7d:19:1f:76:2b:e4:66:e5:bc:6b:48:87:59:
                    a2:b5:33:f3:7c:5a:5f:b6:3e:7d:da:e4:ba:1c:b5:
                    67:5e:9b:a5:ec:d7:93:63:08:24:4c:79:40:24:3b:
                    60:b9:89:55:31:5a:55:e0:0f:ee:80:b5:79:ca:13:
                    85:da:b2:c8:b0:6f:93:ab:92:91:a4:bc:49:d4:a1:
                    b8:b8:7e:8f:9e:78:4d:e4:0f:06:bc:38:a8:30:11:
                    1f:41:05:12:f6:3f:65:c1:f0:b2:2e:b1:9f:32:d9:
                    14:d6:a0:35:51:2d:b3:3c:38:ee:cb:01:ca:a9:ab:
                    47:6c:fb:4e:d3:e6:b7:90:3f:46:f0:ce:6c:00:76:
                    ee:fb:f2:f3:6c:c3:2f:33:76:04:68:96:ad:70:59:
                    a0:8a:77:f8:19:2d:43:f6:72:77:48:c5:d1:00:66:
                    8f:50:8d:14:e9:17:84:9e:6a:01:63:d7:61:39:01:
                    33:26:25:ff:9e:74:94:b0:9e:7c:65:4c:3a:00:47:
                    34:85:ba:80:d3:1c:09:e2:58:10:6b:33:aa:e8:99:
                    f6:3c:10:8e:bd:ad:ce:0b:de:c6:cb:96:1d:34:e5:
                    8a:d2:00:2b:e5:16:58:f6:9a:30:4b:fb:01:8d:a6:
                    80:f0:73:10:80:7a:4a:87:c1:17:07:31:0b:14:59:
                    23:94:3c:a4:3e:d4:da:41:41:df:f1:4b:4c:c4:c3:
                    cd:62:12:d0:f1:e6:c3:c9:5d:f1:ad:1b:49:c6:43:
                    be:64:94:a3:7f:de:65:ba:39:f1:f0:ea:2b:10:dd:
                    e8:26:f6:d3:58:3d:c2:6c:d2:7d:c6:a1:5a:11:fd:
                    27:a0:c3:96:3a:0b:b5:b2:92:5b:28:f0:8a:df:7f:
                    76:6e:0b:35:87:8c:c0:28:ee:ff:7e:d2:8b:6e:cd:
                    5b:f3:e9:5e:07:d2:e6:db:f8:02:4e:00:e1:0d:8d:
                    c0:a1:f3
                Exponent: 65537 (0x10001)
        X509v3 extensions:
            X509v3 Basic Constraints: 
                CA:FALSE
            Netscape Comment: 
                Easy-RSA Generated Certificate
            X509v3 Subject Key Identifier: 
                43:07:32:03:43:B4:7B:05:41:73:43:47:B2:D4:27:D3:63:32:C1:43
            X509v3 Authority Key Identifier: 
                keyid:12:CD:60:04:D2:A0:80:9E:70:ED:C6:99:B8:7B:2C:C6:52:FD:19:A1
                DirName:/C=US/ST=OH/L=Columbus/O=VikingVPN/OU=MyOrganizationalUnit/CN=VikingVPN CA/name=EasyRSA/emailAddress=me@myhost.mydomain
                serial:CF:35:85:EE:80:BF:2A:3E

            X509v3 Extended Key Usage: 
                TLS Web Client Authentication
            X509v3 Key Usage: 
                Digital Signature
    Signature Algorithm: md5WithRSAEncryption
         bc:c2:f0:a3:07:07:1e:1d:1c:8f:3a:38:ee:ea:1f:42:fe:1e:
         fe:9f:45:0a:f4:75:01:0f:41:60:f3:ca:5b:5c:bd:a5:bb:ba:
         9d:56:6f:4c:62:d9:27:c5:38:4d:88:b1:b0:54:50:fb:69:b3:
         b5:59:c9:39:b3:fa:e7:fd:7a:d5:76:df:6e:df:fe:c3:e6:f0:
         0b:78:d7:a8:4b:10:bf:96:1e:0a:84:68:ef:ad:cd:d3:c5:dc:
         6f:ff:dc:e6:77:b0:6e:36:3f:ca:be:7d:c0:79:7b:cd:5b:e2:
         75:78:9a:76:f3:f2:1c:d2:71:a8:7e:16:53:ee:8b:52:91:53:
         56:93:d0:43:43:ba:4f:88:52:f9:f8:77:42:3b:2f:22:9b:c3:
         b2:58:00:d1:08:f5:d8:0b:18:21:35:7a:f7:3c:57:bb:41:5d:
         71:b4:c9:51:34:8b:5b:cb:2f:45:fe:3c:33:09:5d:b5:26:48:
         0d:17:a7:8b:50:56:61:45:96:ab:b6:35:6b:8d:aa:42:23:81:
         f2:82:7c:40:27:35:6b:ad:23:2b:c5:48:31:fa:91:0a:ee:14:
         3a:8e:73:b1:78:c0:25:37:9c:d1:f6:0a:55:4a:1a:7f:dd:ad:
         14:7a:4d:32:b8:d4:4f:b2:8c:c4:9d:71:ab:47:f8:bb:cc:97:
         56:c0:e7:63:0f:b2:94:82:b0:72:d2:e3:a6:3b:28:34:9a:21:
         fc:74:51:d0:26:95:8f:40:8f:cc:72:98:bf:fb:d3:44:fd:3e:
         e3:3f:12:46:90:18:80:df:56:1c:63:6a:fb:17:64:93:bd:78:
         b1:5c:fa:e8:b4:f7:46:60:ee:fe:17:2c:72:de:9a:2b:5e:dc:
         7f:2e:9a:28:f0:a8:f8:fc:cc:b1:ae:49:e3:77:ce:54:6e:a3:
         eb:d9:99:aa:0c:75:3c:14:3a:98:83:52:8c:f5:f9:ce:36:40:
         2b:9c:2f:b4:97:45:a1:e5:f3:8a:f8:ec:e2:3b:52:ab:f7:19:
         2d:0e:a9:cf:f9:bf:dc:a7:38:46:61:85:d8:41:5a:a0:92:ba:
         58:0e:86:82:b9:a1:f6:62:11:92:b3:05:86:65:cb:03:55:1f:
         82:c9:fd:f4:00:79:8e:52:ff:85:55:d3:67:a1:a7:15:36:1c:
         16:84:27:52:b0:26:4d:e7:f9:6a:b1:4a:e4:6a:20:91:e7:b3:
         84:3b:e7:a4:99:21:4d:79:ee:ac:5d:07:f4:cb:9e:68:5d:e2:
         18:b4:6d:58:a4:7d:f4:30:9c:9b:09:28:d7:e8:15:76:13:e5:
         f4:92:86:b9:f0:55:86:1a:1f:55:76:6d:24:b0:7a:04:26:7f:
         2a:96:99:5c:95:51:dd:99
-----BEGIN CERTIFICATE-----
MIIGrTCCBJWgAwIBAgICDNswDQYJKoZIhvcNAQEEBQAwgawxCzAJBgNVBAYTAlVT
MQswCQYDVQQIEwJPSDERMA8GA1UEBxMIQ29sdW1idXMxEjAQBgNVBAoTCVZpa2lu
Z1ZQTjEdMBsGA1UECxMUTXlPcmdhbml6YXRpb25hbFVuaXQxFTATBgNVBAMTDFZp
a2luZ1ZQTiBDQTEQMA4GA1UEKRMHRWFzeVJTQTEhMB8GCSqGSIb3DQEJARYSbWVA
bXlob3N0Lm15ZG9tYWluMB4XDTE0MTEwNzE0MDAyNloXDTI0MTEwNDE0MDAyNlow
HzEdMBsGA1UEAxMUQ2xpZW50MTE0M0NlcnRlZDc4MGUwggIiMA0GCSqGSIb3DQEB
AQUAA4ICDwAwggIKAoICAQDGCQBIJFl3+I2p2h3NZYhG/joCaY5YxV3iqMasLANr
l+0qp7d/TnetGXZuLII9i9MfCw/zmE8YBkW8MZ4NX9AlXqHQWK0kxf7Auvfo0Guy
+8++h9JsScrL6fcw9zxt8Q7IxNS6o0YWQg2/ltAR39VjDsAuacgJK7LyvFCoeMD1
2AMkn348Q5UsCWOJPNQPttbS8CBkXaXpfRkfdivkZuW8a0iHWaK1M/N8Wl+2Pn3a
5LoctWdem6Xs15NjCCRMeUAkO2C5iVUxWlXgD+6AtXnKE4Xassiwb5OrkpGkvEnU
obi4fo+eeE3kDwa8OKgwER9BBRL2P2XB8LIusZ8y2RTWoDVRLbM8OO7LAcqpq0ds
+07T5reQP0bwzmwAdu778vNswy8zdgRolq1wWaCKd/gZLUP2cndIxdEAZo9QjRTp
F4SeagFj12E5ATMmJf+edJSwnnxlTDoARzSFuoDTHAniWBBrM6romfY8EI69rc4L
3sbLlh005YrSACvlFlj2mjBL+wGNpoDwcxCAekqHwRcHMQsUWSOUPKQ+1NpBQd/x
S0zEw81iEtDx5sPJXfGtG0nGQ75klKN/3mW6OfHw6isQ3egm9tNYPcJs0n3GoVoR
/Segw5Y6C7Wyklso8Irff3ZuCzWHjMAo7v9+0otuzVvz6V4H0ubb+AJOAOENjcCh
8wIDAQABo4IBYzCCAV8wCQYDVR0TBAIwADAtBglghkgBhvhCAQ0EIBYeRWFzeS1S
U0EgR2VuZXJhdGVkIENlcnRpZmljYXRlMB0GA1UdDgQWBBRDBzIDQ7R7BUFzQ0ey
1CfTYzLBQzCB4QYDVR0jBIHZMIHWgBQSzWAE0qCAnnDtxpm4eyzGUv0ZoaGBsqSB
rzCBrDELMAkGA1UEBhMCVVMxCzAJBgNVBAgTAk9IMREwDwYDVQQHEwhDb2x1bWJ1
czESMBAGA1UEChMJVmlraW5nVlBOMR0wGwYDVQQLExRNeU9yZ2FuaXphdGlvbmFs
VW5pdDEVMBMGA1UEAxMMVmlraW5nVlBOIENBMRAwDgYDVQQpEwdFYXN5UlNBMSEw
HwYJKoZIhvcNAQkBFhJtZUBteWhvc3QubXlkb21haW6CCQDPNYXugL8qPjATBgNV
HSUEDDAKBggrBgEFBQcDAjALBgNVHQ8EBAMCB4AwDQYJKoZIhvcNAQEEBQADggIB
ALzC8KMHBx4dHI86OO7qH0L+Hv6fRQr0dQEPQWDzyltcvaW7up1Wb0xi2SfFOE2I
sbBUUPtps7VZyTmz+uf9etV2327f/sPm8At416hLEL+WHgqEaO+tzdPF3G//3OZ3
sG42P8q+fcB5e81b4nV4mnbz8hzScah+FlPui1KRU1aT0ENDuk+IUvn4d0I7LyKb
w7JYANEI9dgLGCE1evc8V7tBXXG0yVE0i1vLL0X+PDMJXbUmSA0Xp4tQVmFFlqu2
NWuNqkIjgfKCfEAnNWutIyvFSDH6kQruFDqOc7F4wCU3nNH2ClVKGn/drRR6TTK4
1E+yjMSdcatH+LvMl1bA52MPspSCsHLS46Y7KDSaIfx0UdAmlY9Aj8xymL/700T9
PuM/EkaQGIDfVhxjavsXZJO9eLFc+ui090Zg7v4XLHLemite3H8umijwqPj8zLGu
SeN3zlRuo+vZmaoMdTwUOpiDUoz1+c42QCucL7SXRaHl84r47OI7Uqv3GS0Oqc/5
v9ynOEZhhdhBWqCSulgOhoK5ofZiEZKzBYZlywNVH4LJ/fQAeY5S/4VV02ehpxU2
HBaEJ1KwJk3n+WqxSuRqIJHns4Q756SZIU157qxdB/TLnmhd4hi0bVikffQwnJsJ
KNfoFXYT5fSShrnwVYYaH1V2bSSwegQmfyqWmVyVUd2Z
-----END CERTIFICATE-----
