Certificate:
    Data:
        Version: 3 (0x2)
        Serial Number: 3296 (0xce0)
    Signature Algorithm: md5WithRSAEncryption
        Issuer: C=US, ST=OH, L=Columbus, O=VikingVPN, OU=MyOrganizationalUnit, CN=VikingVPN CA/name=EasyRSA/emailAddress=me@myhost.mydomain
        Validity
            Not Before: Nov  7 15:20:05 2014 GMT
            Not After : Nov  4 15:20:05 2024 GMT
        Subject: CN=Client1145Certadaaf3
        Subject Public Key Info:
            Public Key Algorithm: rsaEncryption
                Public-Key: (4096 bit)
                Modulus:
                    00:fd:70:04:c3:22:4b:95:00:1f:7a:fe:84:29:71:
                    5d:a8:44:03:a3:34:66:1d:46:df:68:a5:da:62:0c:
                    d3:08:cf:44:79:22:5f:04:84:93:c3:ef:26:c1:35:
                    32:73:ab:4b:93:3a:4c:e5:c2:80:14:44:8b:70:50:
                    ab:26:05:ac:e8:c9:36:fe:da:69:df:42:a3:7f:e9:
                    46:a8:f2:8c:f3:e6:ef:a1:91:06:3e:8e:bc:d2:58:
                    f1:06:2b:8a:fd:53:08:86:08:55:9a:dd:4f:4f:9c:
                    9d:a3:be:5f:98:eb:06:cb:bd:89:cc:cc:59:67:5d:
                    5b:23:54:92:91:d3:2c:ce:48:2d:71:48:79:7c:0c:
                    22:46:05:a5:a3:40:4f:fa:23:f7:fb:6b:8a:b2:29:
                    d9:ed:28:be:d5:9e:41:d3:e5:6d:19:58:27:25:a6:
                    41:84:e2:86:05:a5:da:89:89:fe:68:bf:13:db:1c:
                    44:21:8c:79:d9:9c:08:32:de:a4:06:bc:ae:92:e0:
                    35:db:c3:84:29:0f:f6:3c:8c:82:bc:34:51:d9:ae:
                    00:83:5a:6d:37:0c:2a:9a:69:ae:26:71:d0:2a:68:
                    5b:97:81:f4:e8:6d:df:68:a9:9c:ac:a9:c7:99:b0:
                    6d:aa:e7:c9:2e:95:7b:42:d6:cb:f4:1d:4c:02:70:
                    95:92:b3:0b:26:09:95:d7:13:2f:92:d6:91:e3:43:
                    32:8e:92:b1:9e:8f:62:eb:d7:eb:e2:5e:c0:27:72:
                    57:ff:28:9d:0d:24:f8:61:51:c6:46:d9:79:38:40:
                    c4:eb:48:17:7f:b1:1b:a8:a6:04:dd:e3:fa:e2:2b:
                    52:a2:24:43:20:a1:52:c3:29:10:e6:38:ce:16:a2:
                    23:bd:25:72:69:eb:f1:28:6d:30:75:5c:c2:36:31:
                    3a:44:a5:4e:56:fd:9f:c1:91:08:88:89:0f:1b:ca:
                    ce:7e:fd:70:8b:33:0a:23:f6:63:20:8f:f6:52:6e:
                    80:51:6f:4d:8a:ef:69:6d:ca:e5:df:98:75:7f:56:
                    f7:16:0b:bb:dd:cf:84:bb:10:87:d3:31:86:34:ce:
                    82:c6:58:e1:e1:87:b9:28:9f:69:5e:e7:81:be:98:
                    38:dc:45:74:d1:ff:96:9e:e7:44:89:ac:42:8a:8c:
                    17:64:3a:56:9c:63:b0:e6:a7:5a:18:75:bb:80:b3:
                    62:92:fd:f5:18:a9:2c:b7:75:42:2f:86:77:dd:da:
                    30:01:3d:46:4d:ba:cb:34:90:80:a3:6f:8f:b0:ac:
                    4d:3f:99:d2:a8:0c:35:a3:fb:ac:28:aa:73:24:43:
                    74:ef:ed:4b:ab:ed:c2:55:3c:f6:56:92:79:cd:e1:
                    26:20:03
                Exponent: 65537 (0x10001)
        X509v3 extensions:
            X509v3 Basic Constraints: 
                CA:FALSE
            Netscape Comment: 
                Easy-RSA Generated Certificate
            X509v3 Subject Key Identifier: 
                D9:AC:20:45:88:5A:6C:52:20:6C:8C:2E:A0:F0:00:E0:65:5A:E8:D2
            X509v3 Authority Key Identifier: 
                keyid:12:CD:60:04:D2:A0:80:9E:70:ED:C6:99:B8:7B:2C:C6:52:FD:19:A1
                DirName:/C=US/ST=OH/L=Columbus/O=VikingVPN/OU=MyOrganizationalUnit/CN=VikingVPN CA/name=EasyRSA/emailAddress=me@myhost.mydomain
                serial:CF:35:85:EE:80:BF:2A:3E

            X509v3 Extended Key Usage: 
                TLS Web Client Authentication
            X509v3 Key Usage: 
                Digital Signature
    Signature Algorithm: md5WithRSAEncryption
         10:d9:10:37:eb:e1:bd:b9:fa:2f:8c:15:78:33:b5:00:b0:55:
         04:f6:3e:d1:83:aa:d2:f1:87:2d:05:b4:8b:74:17:f5:36:e4:
         44:eb:32:ab:ea:04:e5:af:d6:aa:d5:6b:6e:e7:5a:e5:e4:1b:
         af:7a:c2:85:69:29:01:41:cb:43:64:af:08:4e:79:d1:47:e9:
         b3:a0:a6:8f:9a:63:d4:70:a8:cb:d8:8e:51:11:3e:e2:af:be:
         18:b7:f7:a7:eb:c8:e7:95:be:b4:df:78:c3:d1:cf:72:56:bb:
         60:04:28:76:1b:28:14:99:79:04:15:e8:ec:e7:72:27:44:71:
         88:31:d1:d3:76:aa:a9:5b:ac:22:51:4b:51:e1:ec:91:a5:6e:
         e6:ef:94:b1:27:d1:03:9a:bc:a1:48:18:ba:c8:06:ba:0b:da:
         75:6a:41:54:71:69:53:d7:2e:64:7c:74:63:ef:23:fe:51:7d:
         21:30:1f:12:09:d4:d5:d4:e7:3e:89:9f:2c:9e:d9:1c:be:44:
         5b:0c:9a:fe:5e:7d:b7:c8:94:e7:8d:90:d5:53:38:65:90:2c:
         85:67:cd:d1:71:29:54:5c:bc:9e:24:8b:88:4f:f0:1e:c3:52:
         79:56:0f:be:6a:f4:c6:bc:93:fd:88:ed:97:c2:a3:74:6f:8f:
         99:0b:44:f9:82:92:79:ec:a8:b6:e8:82:e6:d3:9c:30:15:13:
         24:1c:30:5b:3a:ab:74:f6:9c:b1:87:60:d5:45:c2:c7:08:bf:
         c3:e9:5d:79:d3:c0:47:19:0a:77:b5:4a:e4:2c:b6:2b:85:65:
         7f:e6:5c:1f:95:f3:ab:00:52:ed:26:4c:d5:ab:a1:a7:e3:f7:
         8a:48:af:59:d5:49:e2:33:55:fe:1d:1d:76:d6:36:ed:52:42:
         82:79:80:11:98:a4:f7:25:e5:11:7d:55:92:aa:24:bf:2d:1d:
         e3:8b:21:b5:6b:a0:36:da:be:30:af:5b:f5:1a:00:5b:e5:6b:
         85:5d:84:c0:10:e4:bc:f5:3a:50:c1:69:73:e5:7d:4b:ae:a2:
         b7:c2:6a:e5:2e:89:15:f8:f2:fb:62:73:1f:50:dd:96:6a:29:
         d7:a9:5c:1e:bb:94:34:fa:5b:2b:ee:22:39:e9:94:85:e3:bf:
         79:40:b3:1a:5e:43:0a:8c:69:11:1d:fe:4f:a5:29:30:c1:d3:
         19:7d:cf:1d:1e:00:df:40:24:cf:7d:19:da:c1:c0:2c:85:1f:
         cc:98:c7:61:45:23:eb:66:3f:e8:21:34:e0:13:56:a5:44:7f:
         47:be:13:8b:5b:15:66:06:20:4e:72:e6:2a:7e:99:40:87:05:
         08:3d:e2:46:c8:3d:eb:fb
-----BEGIN CERTIFICATE-----
MIIGrTCCBJWgAwIBAgICDOAwDQYJKoZIhvcNAQEEBQAwgawxCzAJBgNVBAYTAlVT
MQswCQYDVQQIEwJPSDERMA8GA1UEBxMIQ29sdW1idXMxEjAQBgNVBAoTCVZpa2lu
Z1ZQTjEdMBsGA1UECxMUTXlPcmdhbml6YXRpb25hbFVuaXQxFTATBgNVBAMTDFZp
a2luZ1ZQTiBDQTEQMA4GA1UEKRMHRWFzeVJTQTEhMB8GCSqGSIb3DQEJARYSbWVA
bXlob3N0Lm15ZG9tYWluMB4XDTE0MTEwNzE1MjAwNVoXDTI0MTEwNDE1MjAwNVow
HzEdMBsGA1UEAxMUQ2xpZW50MTE0NUNlcnRhZGFhZjMwggIiMA0GCSqGSIb3DQEB
AQUAA4ICDwAwggIKAoICAQD9cATDIkuVAB96/oQpcV2oRAOjNGYdRt9opdpiDNMI
z0R5Il8EhJPD7ybBNTJzq0uTOkzlwoAURItwUKsmBazoyTb+2mnfQqN/6Uao8ozz
5u+hkQY+jrzSWPEGK4r9UwiGCFWa3U9PnJ2jvl+Y6wbLvYnMzFlnXVsjVJKR0yzO
SC1xSHl8DCJGBaWjQE/6I/f7a4qyKdntKL7VnkHT5W0ZWCclpkGE4oYFpdqJif5o
vxPbHEQhjHnZnAgy3qQGvK6S4DXbw4QpD/Y8jIK8NFHZrgCDWm03DCqaaa4mcdAq
aFuXgfTobd9oqZysqceZsG2q58kulXtC1sv0HUwCcJWSswsmCZXXEy+S1pHjQzKO
krGej2Lr1+viXsAnclf/KJ0NJPhhUcZG2Xk4QMTrSBd/sRuopgTd4/riK1KiJEMg
oVLDKRDmOM4WoiO9JXJp6/EobTB1XMI2MTpEpU5W/Z/BkQiIiQ8bys5+/XCLMwoj
9mMgj/ZSboBRb02K72ltyuXfmHV/VvcWC7vdz4S7EIfTMYY0zoLGWOHhh7kon2le
54G+mDjcRXTR/5ae50SJrEKKjBdkOlacY7Dmp1oYdbuAs2KS/fUYqSy3dUIvhnfd
2jABPUZNuss0kICjb4+wrE0/mdKoDDWj+6woqnMkQ3Tv7Uur7cJVPPZWknnN4SYg
AwIDAQABo4IBYzCCAV8wCQYDVR0TBAIwADAtBglghkgBhvhCAQ0EIBYeRWFzeS1S
U0EgR2VuZXJhdGVkIENlcnRpZmljYXRlMB0GA1UdDgQWBBTZrCBFiFpsUiBsjC6g
8ADgZVro0jCB4QYDVR0jBIHZMIHWgBQSzWAE0qCAnnDtxpm4eyzGUv0ZoaGBsqSB
rzCBrDELMAkGA1UEBhMCVVMxCzAJBgNVBAgTAk9IMREwDwYDVQQHEwhDb2x1bWJ1
czESMBAGA1UEChMJVmlraW5nVlBOMR0wGwYDVQQLExRNeU9yZ2FuaXphdGlvbmFs
VW5pdDEVMBMGA1UEAxMMVmlraW5nVlBOIENBMRAwDgYDVQQpEwdFYXN5UlNBMSEw
HwYJKoZIhvcNAQkBFhJtZUBteWhvc3QubXlkb21haW6CCQDPNYXugL8qPjATBgNV
HSUEDDAKBggrBgEFBQcDAjALBgNVHQ8EBAMCB4AwDQYJKoZIhvcNAQEEBQADggIB
ABDZEDfr4b25+i+MFXgztQCwVQT2PtGDqtLxhy0FtIt0F/U25ETrMqvqBOWv1qrV
a27nWuXkG696woVpKQFBy0NkrwhOedFH6bOgpo+aY9RwqMvYjlERPuKvvhi396fr
yOeVvrTfeMPRz3JWu2AEKHYbKBSZeQQV6OzncidEcYgx0dN2qqlbrCJRS1Hh7JGl
bubvlLEn0QOavKFIGLrIBroL2nVqQVRxaVPXLmR8dGPvI/5RfSEwHxIJ1NXU5z6J
nyye2Ry+RFsMmv5efbfIlOeNkNVTOGWQLIVnzdFxKVRcvJ4ki4hP8B7DUnlWD75q
9Ma8k/2I7ZfCo3Rvj5kLRPmCknnsqLbogubTnDAVEyQcMFs6q3T2nLGHYNVFwscI
v8PpXXnTwEcZCne1SuQstiuFZX/mXB+V86sAUu0mTNWroafj94pIr1nVSeIzVf4d
HXbWNu1SQoJ5gBGYpPcl5RF9VZKqJL8tHeOLIbVroDbavjCvW/UaAFvla4VdhMAQ
5Lz1OlDBaXPlfUuuorfCauUuiRX48vticx9Q3ZZqKdepXB67lDT6WyvuIjnplIXj
v3lAsxpeQwqMaREd/k+lKTDB0xl9zx0eAN9AJM99GdrBwCyFH8yYx2FFI+tmP+gh
NOATVqVEf0e+E4tbFWYGIE5y5ip+mUCHBQg94kbIPev7
-----END CERTIFICATE-----
