Certificate:
    Data:
        Version: 3 (0x2)
        Serial Number: 3301 (0xce5)
    Signature Algorithm: md5WithRSAEncryption
        Issuer: C=US, ST=OH, L=Columbus, O=VikingVPN, OU=MyOrganizationalUnit, CN=VikingVPN CA/name=EasyRSA/emailAddress=me@myhost.mydomain
        Validity
            Not Before: Nov  8 06:36:35 2014 GMT
            Not After : Nov  5 06:36:35 2024 GMT
        Subject: CN=Client1149Cert06ce76
        Subject Public Key Info:
            Public Key Algorithm: rsaEncryption
                Public-Key: (4096 bit)
                Modulus:
                    00:9c:d8:84:d1:fd:ef:73:82:37:19:64:b2:85:a2:
                    51:08:4a:40:5e:01:98:c7:25:a1:4c:a9:d3:e0:7c:
                    50:90:53:b8:1a:8c:47:42:ce:6a:3a:78:53:be:2e:
                    e9:8e:c3:e9:51:17:07:41:de:da:87:db:8d:73:95:
                    f8:c4:7a:11:bc:94:09:f6:d5:eb:f6:ef:66:b6:6f:
                    f8:bc:6e:c2:0d:9f:65:9c:41:ae:0f:07:db:03:3b:
                    84:a8:2a:c1:08:9a:5c:88:20:e9:f6:0e:75:66:82:
                    2c:19:e1:1f:73:22:9c:95:6a:8b:1e:bf:32:d0:42:
                    0e:f5:50:67:74:99:be:20:f8:16:b7:e9:d6:fd:68:
                    d6:69:23:ff:87:73:26:12:be:96:59:67:7f:7c:5e:
                    1e:8d:ca:25:1c:29:7d:ec:1f:24:89:7c:a0:af:57:
                    a3:92:9b:15:39:a1:40:b9:42:e6:b3:e6:af:54:25:
                    e1:49:33:cc:48:c4:44:79:63:67:2a:4f:41:ca:d9:
                    33:e2:22:2a:98:20:c6:3d:88:5b:5a:da:40:40:c1:
                    a5:fb:9c:1c:5f:5d:40:71:a1:b6:25:45:46:6d:38:
                    ce:a9:ad:88:4f:c6:e2:e0:32:76:90:58:20:f2:b1:
                    be:df:c6:12:b7:8e:95:a5:bd:8c:9b:48:98:cb:7f:
                    97:d4:14:84:0d:66:40:d8:00:ca:22:51:46:96:8e:
                    1b:0b:96:79:eb:7d:30:a2:f7:30:2c:a4:68:88:d8:
                    9d:69:54:33:e5:02:b7:cd:0e:ba:b2:60:f3:4c:30:
                    dd:36:f2:be:b0:13:01:0c:c7:29:58:5e:a8:71:72:
                    ad:e3:a3:30:15:af:52:a7:a3:40:a1:1c:5a:92:34:
                    2a:fd:24:0a:79:bd:d7:2f:51:09:f2:2a:fc:87:2c:
                    59:7e:b2:f2:ef:28:3c:10:11:4e:a3:c8:6f:61:e2:
                    6c:15:b2:91:1f:80:98:54:a9:ae:50:7f:7e:f0:1c:
                    17:fe:95:43:c1:64:03:c7:6d:f1:f3:4f:3a:b9:05:
                    44:47:81:38:2f:66:34:2c:16:06:e6:0e:dd:ae:a8:
                    3b:eb:cc:1f:6c:e8:04:9c:33:91:94:fb:b5:49:da:
                    18:45:5b:bc:c1:87:17:e7:fb:a2:e0:6d:89:b5:67:
                    d5:de:57:3c:b5:1f:28:bd:fc:e0:d4:01:83:31:00:
                    bb:21:f4:0a:34:5f:54:cb:0f:20:9d:93:13:db:7f:
                    01:2b:46:3d:06:c8:fb:ba:4a:cb:75:47:66:2f:b2:
                    06:c1:e3:24:7b:aa:bd:0c:00:df:70:11:db:0f:52:
                    11:e4:23:2e:6c:51:2f:7f:4d:d9:c5:db:33:d4:88:
                    7c:b8:23
                Exponent: 65537 (0x10001)
        X509v3 extensions:
            X509v3 Basic Constraints: 
                CA:FALSE
            Netscape Comment: 
                Easy-RSA Generated Certificate
            X509v3 Subject Key Identifier: 
                43:E1:48:DE:DE:AC:E3:19:B6:00:70:17:C5:5D:FD:B6:BC:76:9B:75
            X509v3 Authority Key Identifier: 
                keyid:12:CD:60:04:D2:A0:80:9E:70:ED:C6:99:B8:7B:2C:C6:52:FD:19:A1
                DirName:/C=US/ST=OH/L=Columbus/O=VikingVPN/OU=MyOrganizationalUnit/CN=VikingVPN CA/name=EasyRSA/emailAddress=me@myhost.mydomain
                serial:CF:35:85:EE:80:BF:2A:3E

            X509v3 Extended Key Usage: 
                TLS Web Client Authentication
            X509v3 Key Usage: 
                Digital Signature
    Signature Algorithm: md5WithRSAEncryption
         e8:21:21:65:7d:4a:f3:ee:c7:58:52:7a:51:9c:61:a7:61:7b:
         67:84:a2:5a:f5:13:2e:50:3b:12:23:7e:6c:3f:f6:fb:3d:c2:
         c3:32:3c:7e:97:7a:44:1e:e4:d8:7f:79:8d:26:8b:a7:d1:90:
         8b:3e:5d:05:cf:12:f2:f3:f8:82:5f:cf:cf:28:39:12:28:0b:
         4a:9b:3e:b6:f1:0b:bd:2c:23:20:e1:29:8a:3e:b5:6c:34:bb:
         75:8f:ad:dd:b9:50:52:28:e8:1f:a4:95:39:d2:1b:f2:18:e6:
         cc:14:71:92:1d:e3:cd:53:11:d5:14:67:51:a6:77:1d:9b:8c:
         ca:fe:c9:d2:1e:b5:06:ba:7e:5d:a6:2c:1d:86:8c:e9:96:a7:
         1a:97:77:0b:db:be:88:1e:c4:fb:f3:76:d0:62:fc:05:7f:21:
         b3:2b:67:f9:8d:26:b6:c9:57:fd:ea:d2:38:ec:a3:0b:55:49:
         04:d7:77:c6:f1:87:d8:95:17:d2:b9:b5:68:5e:99:91:75:9a:
         a7:c4:90:e4:a6:aa:2e:46:b2:ec:85:c0:b0:87:05:08:e7:2f:
         79:b0:16:2e:d3:81:1a:af:11:54:3b:44:4e:b3:27:d4:7b:ee:
         fc:2c:5a:04:3d:35:f7:60:00:5b:e3:51:e9:66:ab:46:d5:35:
         21:c3:97:3a:32:e0:85:a6:ab:ab:73:ab:32:87:0d:10:90:c9:
         d2:c1:13:ec:17:f0:c0:28:a4:3b:59:fb:8d:75:63:49:e1:70:
         89:6f:9b:3d:e9:92:83:09:aa:fa:5e:9b:f2:f2:f4:2a:8e:a6:
         6f:73:c2:14:7e:25:6c:db:97:af:80:ab:92:01:56:f2:38:b8:
         9f:97:2a:f1:bf:4c:92:47:1e:3a:bf:c6:d2:cb:c8:73:9c:23:
         9a:f3:75:10:cb:7b:84:8f:62:53:ca:6b:d3:29:94:fb:6c:ed:
         26:98:b7:57:f2:aa:36:aa:bb:4a:17:db:2e:58:9d:8b:7f:d5:
         60:cc:cd:c8:76:60:5f:82:7f:6f:82:eb:ee:03:be:e2:50:ff:
         ab:40:a0:d4:18:b4:58:1f:5e:4c:d2:59:17:53:32:ac:ac:f1:
         bb:b9:e8:02:fc:d8:8f:35:b1:d3:89:18:65:17:4f:23:15:29:
         cc:f9:a5:7f:ba:fa:20:68:a6:e8:25:ad:3f:29:b7:51:83:fc:
         1d:e3:bd:51:7e:e1:ad:88:74:5b:9a:4c:91:59:59:4e:be:53:
         4d:9c:8d:6d:9f:84:b1:da:9b:b0:ab:40:41:e1:fa:70:96:9e:
         9e:ea:42:ad:9e:fa:0c:1b:ed:24:90:08:25:82:b6:e5:7c:e1:
         57:66:17:77:94:27:7d:64
-----BEGIN CERTIFICATE-----
MIIGrTCCBJWgAwIBAgICDOUwDQYJKoZIhvcNAQEEBQAwgawxCzAJBgNVBAYTAlVT
MQswCQYDVQQIEwJPSDERMA8GA1UEBxMIQ29sdW1idXMxEjAQBgNVBAoTCVZpa2lu
Z1ZQTjEdMBsGA1UECxMUTXlPcmdhbml6YXRpb25hbFVuaXQxFTATBgNVBAMTDFZp
a2luZ1ZQTiBDQTEQMA4GA1UEKRMHRWFzeVJTQTEhMB8GCSqGSIb3DQEJARYSbWVA
bXlob3N0Lm15ZG9tYWluMB4XDTE0MTEwODA2MzYzNVoXDTI0MTEwNTA2MzYzNVow
HzEdMBsGA1UEAxMUQ2xpZW50MTE0OUNlcnQwNmNlNzYwggIiMA0GCSqGSIb3DQEB
AQUAA4ICDwAwggIKAoICAQCc2ITR/e9zgjcZZLKFolEISkBeAZjHJaFMqdPgfFCQ
U7gajEdCzmo6eFO+LumOw+lRFwdB3tqH241zlfjEehG8lAn21ev272a2b/i8bsIN
n2WcQa4PB9sDO4SoKsEImlyIIOn2DnVmgiwZ4R9zIpyVaosevzLQQg71UGd0mb4g
+Ba36db9aNZpI/+HcyYSvpZZZ398Xh6NyiUcKX3sHySJfKCvV6OSmxU5oUC5Quaz
5q9UJeFJM8xIxER5Y2cqT0HK2TPiIiqYIMY9iFta2kBAwaX7nBxfXUBxobYlRUZt
OM6prYhPxuLgMnaQWCDysb7fxhK3jpWlvYybSJjLf5fUFIQNZkDYAMoiUUaWjhsL
lnnrfTCi9zAspGiI2J1pVDPlArfNDrqyYPNMMN028r6wEwEMxylYXqhxcq3jozAV
r1Kno0ChHFqSNCr9JAp5vdcvUQnyKvyHLFl+svLvKDwQEU6jyG9h4mwVspEfgJhU
qa5Qf37wHBf+lUPBZAPHbfHzTzq5BURHgTgvZjQsFgbmDt2uqDvrzB9s6AScM5GU
+7VJ2hhFW7zBhxfn+6LgbYm1Z9XeVzy1Hyi9/ODUAYMxALsh9Ao0X1TLDyCdkxPb
fwErRj0GyPu6Sst1R2YvsgbB4yR7qr0MAN9wEdsPUhHkIy5sUS9/TdnF2zPUiHy4
IwIDAQABo4IBYzCCAV8wCQYDVR0TBAIwADAtBglghkgBhvhCAQ0EIBYeRWFzeS1S
U0EgR2VuZXJhdGVkIENlcnRpZmljYXRlMB0GA1UdDgQWBBRD4Uje3qzjGbYAcBfF
Xf22vHabdTCB4QYDVR0jBIHZMIHWgBQSzWAE0qCAnnDtxpm4eyzGUv0ZoaGBsqSB
rzCBrDELMAkGA1UEBhMCVVMxCzAJBgNVBAgTAk9IMREwDwYDVQQHEwhDb2x1bWJ1
czESMBAGA1UEChMJVmlraW5nVlBOMR0wGwYDVQQLExRNeU9yZ2FuaXphdGlvbmFs
VW5pdDEVMBMGA1UEAxMMVmlraW5nVlBOIENBMRAwDgYDVQQpEwdFYXN5UlNBMSEw
HwYJKoZIhvcNAQkBFhJtZUBteWhvc3QubXlkb21haW6CCQDPNYXugL8qPjATBgNV
HSUEDDAKBggrBgEFBQcDAjALBgNVHQ8EBAMCB4AwDQYJKoZIhvcNAQEEBQADggIB
AOghIWV9SvPux1hSelGcYadhe2eEolr1Ey5QOxIjfmw/9vs9wsMyPH6XekQe5Nh/
eY0mi6fRkIs+XQXPEvLz+IJfz88oORIoC0qbPrbxC70sIyDhKYo+tWw0u3WPrd25
UFIo6B+klTnSG/IY5swUcZId481TEdUUZ1Gmdx2bjMr+ydIetQa6fl2mLB2GjOmW
pxqXdwvbvogexPvzdtBi/AV/IbMrZ/mNJrbJV/3q0jjsowtVSQTXd8bxh9iVF9K5
tWhemZF1mqfEkOSmqi5GsuyFwLCHBQjnL3mwFi7TgRqvEVQ7RE6zJ9R77vwsWgQ9
NfdgAFvjUelmq0bVNSHDlzoy4IWmq6tzqzKHDRCQydLBE+wX8MAopDtZ+411Y0nh
cIlvmz3pkoMJqvpem/Ly9CqOpm9zwhR+JWzbl6+Aq5IBVvI4uJ+XKvG/TJJHHjq/
xtLLyHOcI5rzdRDLe4SPYlPKa9MplPts7SaYt1fyqjaqu0oX2y5YnYt/1WDMzch2
YF+Cf2+C6+4DvuJQ/6tAoNQYtFgfXkzSWRdTMqys8bu56AL82I81sdOJGGUXTyMV
Kcz5pX+6+iBopuglrT8pt1GD/B3jvVF+4a2IdFuaTJFZWU6+U02cjW2fhLHam7Cr
QEHh+nCWnp7qQq2e+gwb7SSQCCWCtuV84VdmF3eUJ31k
-----END CERTIFICATE-----
