Certificate:
    Data:
        Version: 3 (0x2)
        Serial Number: 3304 (0xce8)
    Signature Algorithm: md5WithRSAEncryption
        Issuer: C=US, ST=OH, L=Columbus, O=VikingVPN, OU=MyOrganizationalUnit, CN=VikingVPN CA/name=EasyRSA/emailAddress=me@myhost.mydomain
        Validity
            Not Before: Nov  8 20:14:55 2014 GMT
            Not After : Nov  5 20:14:55 2024 GMT
        Subject: CN=Client1152Cert243756
        Subject Public Key Info:
            Public Key Algorithm: rsaEncryption
                Public-Key: (4096 bit)
                Modulus:
                    00:c0:47:5d:49:4d:10:cb:91:83:75:dc:44:84:b5:
                    00:14:88:6c:82:48:e2:86:87:73:28:8e:b5:c5:3a:
                    51:2c:8a:d1:f5:6c:19:b5:10:c1:fa:54:97:1c:c9:
                    85:7c:ca:6d:eb:b0:49:09:6e:6a:a9:68:66:47:f0:
                    f3:6c:e5:59:f9:56:bb:ca:e0:36:b3:a3:21:6f:8b:
                    be:07:e2:d2:d7:43:b0:24:38:fe:08:ca:bf:8a:a1:
                    07:8a:21:c3:b5:68:3d:26:f6:4e:5f:81:ff:c4:89:
                    fa:bc:99:b8:94:40:56:56:b1:a5:ad:41:fa:0f:02:
                    9d:4a:72:2d:40:50:e5:64:85:17:e2:a4:41:43:80:
                    ce:89:dd:8f:e2:bf:41:57:cb:02:8d:e5:1c:29:6e:
                    76:7b:05:17:dc:7d:a3:60:52:3c:2a:35:45:1b:0c:
                    ab:88:c3:60:22:63:82:8e:0d:91:be:e3:c8:bd:7a:
                    94:71:f0:b1:29:4a:26:66:a3:17:7c:39:d9:82:40:
                    f3:9c:26:ba:b9:34:27:a2:04:ce:a7:03:03:eb:5f:
                    5d:ae:73:bd:cd:96:c1:e5:a6:d4:75:2d:eb:f6:1e:
                    cd:bf:24:03:30:e4:03:67:fc:01:ab:22:5f:bc:dc:
                    6b:84:0a:a9:0e:94:34:41:f8:82:9d:78:68:7c:e4:
                    ea:79:05:30:e2:f9:71:81:ba:5d:d9:42:27:af:47:
                    e0:bc:66:82:58:db:45:cd:ce:8a:88:3b:ec:62:6b:
                    50:be:98:e6:03:55:a5:31:15:ef:7a:e8:2e:86:3e:
                    9f:71:ad:60:1c:d0:d6:b2:9c:b9:42:42:d0:8b:05:
                    e2:e6:2a:ed:d2:f9:eb:c0:19:89:ef:0d:f6:e6:5e:
                    a8:4e:1e:50:a3:e9:6e:b6:df:f7:df:8b:0b:14:74:
                    d9:d9:55:2e:44:4d:15:3e:00:f5:d5:b3:be:cf:cb:
                    ac:8a:6a:b0:60:dc:67:c5:ca:6f:ee:f1:04:9d:3f:
                    20:97:a0:d6:21:9d:17:2e:84:53:aa:56:76:b4:c9:
                    37:34:11:78:dc:38:a1:af:0b:0e:4d:44:73:d9:fe:
                    f5:b2:2d:bf:27:da:fe:e7:14:a7:f8:41:18:48:89:
                    ec:34:3e:07:4b:2a:a0:ac:90:72:b6:9c:47:45:02:
                    57:14:95:4a:04:54:e1:05:80:f7:be:e6:ac:bc:36:
                    e1:27:20:3c:47:79:ea:9c:f0:22:3b:5c:04:33:6a:
                    8d:ca:da:30:9e:bb:0a:10:d1:ea:62:1f:f6:36:19:
                    f5:0c:15:a3:ee:6f:43:8a:53:94:5a:bd:da:e1:48:
                    8e:c7:08:05:42:20:2f:36:7e:37:fa:91:ec:d1:3e:
                    d1:c3:6f
                Exponent: 65537 (0x10001)
        X509v3 extensions:
            X509v3 Basic Constraints: 
                CA:FALSE
            Netscape Comment: 
                Easy-RSA Generated Certificate
            X509v3 Subject Key Identifier: 
                D5:EA:AF:CC:35:EE:FB:00:53:78:8D:82:7F:87:06:E3:BF:86:1C:F8
            X509v3 Authority Key Identifier: 
                keyid:12:CD:60:04:D2:A0:80:9E:70:ED:C6:99:B8:7B:2C:C6:52:FD:19:A1
                DirName:/C=US/ST=OH/L=Columbus/O=VikingVPN/OU=MyOrganizationalUnit/CN=VikingVPN CA/name=EasyRSA/emailAddress=me@myhost.mydomain
                serial:CF:35:85:EE:80:BF:2A:3E

            X509v3 Extended Key Usage: 
                TLS Web Client Authentication
            X509v3 Key Usage: 
                Digital Signature
    Signature Algorithm: md5WithRSAEncryption
         11:1f:27:55:42:ee:a7:40:70:8f:e2:08:bc:d8:31:bc:86:da:
         d0:01:1d:cb:3d:a0:23:6b:b4:48:30:c5:72:6a:d8:45:dd:84:
         3e:21:88:55:4b:b4:47:34:c7:1d:e2:5a:61:3c:fa:5c:61:c8:
         c4:48:0d:95:e0:66:90:5b:87:22:01:86:22:dc:03:44:5e:f7:
         20:f8:13:14:31:6a:ed:32:71:37:48:71:60:26:da:37:42:ea:
         80:df:89:ab:45:93:e9:03:4b:3f:ce:56:19:ea:91:b7:12:dc:
         09:0b:1d:9a:cc:25:51:19:d0:af:24:46:04:7f:81:76:60:11:
         92:aa:b8:c2:f4:f5:a5:5f:cf:31:39:05:21:81:f9:1c:25:de:
         cd:f9:7e:e9:4f:91:87:a6:8b:da:ac:64:06:95:cb:9b:03:f9:
         fe:a7:56:06:a8:75:54:4c:02:a3:04:94:0c:1b:a9:03:19:43:
         27:01:42:bd:6d:0b:a5:5a:e3:f3:73:f9:f7:58:fc:cc:6b:32:
         3a:06:e9:60:97:fb:b0:fd:2f:5a:a8:55:2e:ba:86:0e:a1:a9:
         b5:f0:a9:ec:9f:3d:60:83:8c:9f:0f:bb:56:12:2a:11:2d:ec:
         9b:d5:93:36:2b:e2:6f:99:38:2b:5e:e6:b1:7e:82:ff:47:3f:
         dd:82:a5:e4:29:3b:08:ec:3d:14:1c:a5:86:ed:b2:be:a0:d9:
         1f:40:92:ee:1b:1f:02:cd:12:c7:c9:d5:f2:10:9c:7b:42:0b:
         a5:e6:bd:60:a3:05:98:00:8f:92:f6:16:08:80:cc:ba:b6:14:
         1a:2e:28:6b:be:1b:c0:b3:a8:f5:80:ef:d5:cc:5e:7f:58:8b:
         2f:ca:22:ab:b7:c4:7e:37:a0:45:cb:da:30:5b:a0:0e:03:20:
         60:38:91:bd:aa:af:f2:40:bf:8b:98:ee:f8:be:61:31:8b:7b:
         85:a9:dd:22:3c:21:9d:e0:d1:ed:0f:c1:ab:f0:29:49:2a:e0:
         17:cf:38:53:30:66:b3:81:5b:99:48:d7:eb:17:21:6e:3e:ce:
         21:f6:a7:ec:56:fe:91:52:13:c4:57:17:fe:a6:9d:f4:5f:cf:
         0a:f9:1f:f2:20:36:3f:36:ce:16:8a:d0:25:71:e1:84:a3:82:
         e4:52:c7:7c:02:05:61:0e:45:c5:40:84:7c:c9:44:01:1e:fd:
         d2:bd:b4:74:5b:9f:54:6c:5b:e6:2b:6f:15:3a:33:b1:2b:5e:
         2d:4a:52:c6:ae:63:41:93:07:e4:a7:93:00:47:bd:05:41:7f:
         61:8b:1c:09:d5:41:c0:9c:ae:b1:75:1e:9a:05:a7:93:29:7a:
         9a:f1:5f:f4:54:a4:47:e9
-----BEGIN CERTIFICATE-----
MIIGrTCCBJWgAwIBAgICDOgwDQYJKoZIhvcNAQEEBQAwgawxCzAJBgNVBAYTAlVT
MQswCQYDVQQIEwJPSDERMA8GA1UEBxMIQ29sdW1idXMxEjAQBgNVBAoTCVZpa2lu
Z1ZQTjEdMBsGA1UECxMUTXlPcmdhbml6YXRpb25hbFVuaXQxFTATBgNVBAMTDFZp
a2luZ1ZQTiBDQTEQMA4GA1UEKRMHRWFzeVJTQTEhMB8GCSqGSIb3DQEJARYSbWVA
bXlob3N0Lm15ZG9tYWluMB4XDTE0MTEwODIwMTQ1NVoXDTI0MTEwNTIwMTQ1NVow
HzEdMBsGA1UEAxMUQ2xpZW50MTE1MkNlcnQyNDM3NTYwggIiMA0GCSqGSIb3DQEB
AQUAA4ICDwAwggIKAoICAQDAR11JTRDLkYN13ESEtQAUiGyCSOKGh3MojrXFOlEs
itH1bBm1EMH6VJccyYV8ym3rsEkJbmqpaGZH8PNs5Vn5VrvK4DazoyFvi74H4tLX
Q7AkOP4Iyr+KoQeKIcO1aD0m9k5fgf/Eifq8mbiUQFZWsaWtQfoPAp1Kci1AUOVk
hRfipEFDgM6J3Y/iv0FXywKN5RwpbnZ7BRfcfaNgUjwqNUUbDKuIw2AiY4KODZG+
48i9epRx8LEpSiZmoxd8OdmCQPOcJrq5NCeiBM6nAwPrX12uc73NlsHlptR1Lev2
Hs2/JAMw5ANn/AGrIl+83GuECqkOlDRB+IKdeGh85Op5BTDi+XGBul3ZQievR+C8
ZoJY20XNzoqIO+xia1C+mOYDVaUxFe966C6GPp9xrWAc0NaynLlCQtCLBeLmKu3S
+evAGYnvDfbmXqhOHlCj6W623/ffiwsUdNnZVS5ETRU+APXVs77Py6yKarBg3GfF
ym/u8QSdPyCXoNYhnRcuhFOqVna0yTc0EXjcOKGvCw5NRHPZ/vWyLb8n2v7nFKf4
QRhIiew0PgdLKqCskHK2nEdFAlcUlUoEVOEFgPe+5qy8NuEnIDxHeeqc8CI7XAQz
ao3K2jCeuwoQ0epiH/Y2GfUMFaPub0OKU5RavdrhSI7HCAVCIC82fjf6kezRPtHD
bwIDAQABo4IBYzCCAV8wCQYDVR0TBAIwADAtBglghkgBhvhCAQ0EIBYeRWFzeS1S
U0EgR2VuZXJhdGVkIENlcnRpZmljYXRlMB0GA1UdDgQWBBTV6q/MNe77AFN4jYJ/
hwbjv4Yc+DCB4QYDVR0jBIHZMIHWgBQSzWAE0qCAnnDtxpm4eyzGUv0ZoaGBsqSB
rzCBrDELMAkGA1UEBhMCVVMxCzAJBgNVBAgTAk9IMREwDwYDVQQHEwhDb2x1bWJ1
czESMBAGA1UEChMJVmlraW5nVlBOMR0wGwYDVQQLExRNeU9yZ2FuaXphdGlvbmFs
VW5pdDEVMBMGA1UEAxMMVmlraW5nVlBOIENBMRAwDgYDVQQpEwdFYXN5UlNBMSEw
HwYJKoZIhvcNAQkBFhJtZUBteWhvc3QubXlkb21haW6CCQDPNYXugL8qPjATBgNV
HSUEDDAKBggrBgEFBQcDAjALBgNVHQ8EBAMCB4AwDQYJKoZIhvcNAQEEBQADggIB
ABEfJ1VC7qdAcI/iCLzYMbyG2tABHcs9oCNrtEgwxXJq2EXdhD4hiFVLtEc0xx3i
WmE8+lxhyMRIDZXgZpBbhyIBhiLcA0Re9yD4ExQxau0ycTdIcWAm2jdC6oDfiatF
k+kDSz/OVhnqkbcS3AkLHZrMJVEZ0K8kRgR/gXZgEZKquML09aVfzzE5BSGB+Rwl
3s35fulPkYemi9qsZAaVy5sD+f6nVgaodVRMAqMElAwbqQMZQycBQr1tC6Va4/Nz
+fdY/MxrMjoG6WCX+7D9L1qoVS66hg6hqbXwqeyfPWCDjJ8Pu1YSKhEt7JvVkzYr
4m+ZOCte5rF+gv9HP92CpeQpOwjsPRQcpYbtsr6g2R9Aku4bHwLNEsfJ1fIQnHtC
C6XmvWCjBZgAj5L2FgiAzLq2FBouKGu+G8CzqPWA79XMXn9Yiy/KIqu3xH43oEXL
2jBboA4DIGA4kb2qr/JAv4uY7vi+YTGLe4Wp3SI8IZ3g0e0PwavwKUkq4BfPOFMw
ZrOBW5lI1+sXIW4+ziH2p+xW/pFSE8RXF/6mnfRfzwr5H/IgNj82zhaK0CVx4YSj
guRSx3wCBWEORcVAhHzJRAEe/dK9tHRbn1RsW+YrbxU6M7ErXi1KUsauY0GTB+Sn
kwBHvQVBf2GLHAnVQcCcrrF1HpoFp5MpeprxX/RUpEfp
-----END CERTIFICATE-----
