Certificate:
    Data:
        Version: 3 (0x2)
        Serial Number: 3311 (0xcef)
    Signature Algorithm: md5WithRSAEncryption
        Issuer: C=US, ST=OH, L=Columbus, O=VikingVPN, OU=MyOrganizationalUnit, CN=VikingVPN CA/name=EasyRSA/emailAddress=me@myhost.mydomain
        Validity
            Not Before: Nov  9 05:17:48 2014 GMT
            Not After : Nov  6 05:17:48 2024 GMT
        Subject: CN=Client309Certe0e680
        Subject Public Key Info:
            Public Key Algorithm: rsaEncryption
                Public-Key: (4096 bit)
                Modulus:
                    00:b0:2b:7d:c0:26:8e:a8:16:e5:83:76:1c:de:e1:
                    72:39:e3:c9:41:74:7d:ec:fb:95:22:7b:bb:e6:95:
                    2d:c7:a5:00:3b:5c:6c:c1:b0:09:7c:83:7a:c7:2d:
                    4b:38:4f:a0:47:bf:00:f2:59:1d:6c:eb:83:b1:5b:
                    7d:74:59:28:e2:9b:03:f5:28:e3:14:aa:2e:e6:67:
                    61:96:07:09:fc:03:e5:ef:ff:9e:08:7b:52:f5:e8:
                    b4:b3:59:78:21:17:4a:d2:20:74:cb:b4:0b:8c:4d:
                    35:c9:7b:38:4b:8d:03:db:9e:76:e3:a9:23:97:ba:
                    6e:f0:53:4b:51:27:80:d8:73:7d:52:35:2a:37:eb:
                    6f:c0:16:61:ae:a1:9f:9c:25:78:8f:85:58:53:f1:
                    b7:1c:9d:6d:6a:bd:c1:80:9e:dc:90:f9:0b:fd:a8:
                    13:75:37:78:89:7f:6f:96:c4:ee:34:e9:d0:56:fd:
                    f4:45:12:9e:d6:ca:af:53:0e:6f:12:da:23:3c:c8:
                    36:4a:e6:e1:24:86:2c:71:36:82:15:63:4d:d3:21:
                    b8:fe:aa:68:ca:26:21:13:00:46:d9:b8:1a:86:d5:
                    44:68:4c:6c:67:2b:05:76:42:e1:03:bf:e6:22:f6:
                    b8:67:6f:bf:ca:bd:bf:fd:f9:82:8a:7e:73:e7:59:
                    db:c7:13:a5:3d:74:c1:8a:71:0d:9f:b0:91:bc:54:
                    45:38:ae:80:d8:6a:ed:28:05:a6:60:f7:70:ee:ee:
                    63:88:10:e7:e6:74:c9:64:95:40:e1:c4:e4:2c:77:
                    75:b1:b0:8a:0f:1d:54:78:c9:f8:1f:4f:f3:05:89:
                    03:c1:b6:61:5b:67:aa:c5:25:e7:7b:9a:41:45:43:
                    4e:2d:86:47:30:5d:03:0a:ae:eb:94:27:49:84:80:
                    64:b8:2e:41:3b:aa:01:9c:b2:2d:a7:15:4f:1f:3b:
                    8f:b4:ad:2d:d6:38:11:b2:79:96:a6:16:17:b7:86:
                    10:ba:50:1f:cb:0c:6c:6a:6b:51:6e:60:23:b2:d6:
                    52:da:d6:03:2b:3a:a3:aa:92:12:06:64:ba:bc:96:
                    18:43:cf:ee:5e:71:ec:1b:83:42:68:aa:dc:d8:f1:
                    63:87:54:ae:88:d6:7d:bb:ef:af:74:c3:09:ca:5c:
                    39:0f:4f:b4:0c:f4:7f:51:32:b1:7f:f4:0c:57:b7:
                    1c:41:91:89:c4:db:e6:28:f3:d8:bd:03:b1:ca:89:
                    6b:f5:04:93:df:cb:71:c7:d5:7e:ec:83:46:cd:b8:
                    30:a3:35:8c:5c:c2:b9:2e:32:00:07:d2:e1:6a:7a:
                    41:36:e7:3b:95:f8:3d:70:1b:f2:3f:e2:17:d9:39:
                    0f:7a:5b
                Exponent: 65537 (0x10001)
        X509v3 extensions:
            X509v3 Basic Constraints: 
                CA:FALSE
            Netscape Comment: 
                Easy-RSA Generated Certificate
            X509v3 Subject Key Identifier: 
                69:31:DC:46:B3:C2:2C:10:D2:85:2C:F4:D9:E9:3C:22:95:07:F7:0A
            X509v3 Authority Key Identifier: 
                keyid:12:CD:60:04:D2:A0:80:9E:70:ED:C6:99:B8:7B:2C:C6:52:FD:19:A1
                DirName:/C=US/ST=OH/L=Columbus/O=VikingVPN/OU=MyOrganizationalUnit/CN=VikingVPN CA/name=EasyRSA/emailAddress=me@myhost.mydomain
                serial:CF:35:85:EE:80:BF:2A:3E

            X509v3 Extended Key Usage: 
                TLS Web Client Authentication
            X509v3 Key Usage: 
                Digital Signature
    Signature Algorithm: md5WithRSAEncryption
         65:7d:84:1f:c3:d4:12:04:44:81:50:d3:a8:39:50:6e:b5:72:
         1f:24:ab:d7:51:f0:0f:87:c6:40:d4:bd:4a:dd:61:32:cd:44:
         29:e3:aa:7e:c6:5d:ea:65:28:0a:a9:4d:0c:dd:b6:cf:d8:fe:
         03:46:38:fe:9a:de:b5:4a:84:16:3e:19:73:77:57:32:83:f0:
         27:fd:45:4c:98:f8:fc:af:bf:6c:03:03:bf:78:37:81:1e:02:
         a6:2f:e7:1b:66:b0:e6:bb:0b:99:b8:27:f8:b9:6b:cf:82:23:
         84:87:6e:7c:10:b4:d2:16:5d:8b:1f:ef:7b:84:e7:83:43:4a:
         57:a6:2b:01:18:24:11:0c:48:71:65:ae:c1:38:59:c0:86:7f:
         09:ba:31:e3:87:3e:7b:2b:64:d1:05:2f:2e:df:b0:a0:f8:08:
         07:42:e0:90:84:8a:bc:08:ec:06:f6:49:0c:d6:43:86:99:f5:
         b2:0c:65:7f:29:e1:46:47:93:8a:b3:97:6f:4c:27:1b:27:98:
         bd:b5:ab:f6:1d:4d:3b:84:f6:2f:08:ae:4b:cb:53:cb:25:0e:
         58:f6:aa:c5:90:4b:1e:d8:7a:a3:27:38:b4:f9:f4:1a:ed:6f:
         1b:21:df:24:ee:76:34:7a:05:ae:64:d9:75:98:4f:94:b7:da:
         56:f3:2a:ad:f8:43:69:ae:97:96:1f:b3:d5:57:fe:ff:db:e8:
         e9:5a:2b:62:c7:5d:31:9a:cc:ec:20:fd:a3:ef:47:44:41:22:
         2b:88:d3:e8:fc:34:c7:c4:a4:1d:c9:d6:78:0d:8d:6d:a0:6c:
         03:87:21:46:f2:48:c1:df:97:dd:24:be:59:21:02:f5:6a:22:
         0a:aa:5c:68:a5:a6:63:dd:4a:9b:83:09:6f:6e:97:46:48:a0:
         b3:49:bf:f5:96:f6:6b:64:53:c2:1b:39:29:3b:3f:30:90:e5:
         fd:42:af:fb:18:91:47:6d:e5:3c:62:0f:4f:46:8d:14:b4:9f:
         f6:60:99:78:a8:ab:dd:f7:76:ab:ee:ce:09:d5:9f:a0:84:8b:
         c2:0f:d8:b3:84:e1:fc:28:2b:59:66:52:d9:ce:08:62:04:81:
         0b:35:28:20:94:8c:2f:aa:3c:c6:2c:b4:f4:0a:f1:a6:4b:67:
         dc:55:c4:eb:e8:f1:ae:af:3c:61:21:a2:1a:96:8e:02:6a:ef:
         d5:de:b2:64:fc:31:78:42:50:f0:fa:1d:8d:5f:eb:66:78:35:
         e7:67:35:9b:1d:01:57:16:1a:f3:b7:bc:d3:a5:30:d9:2f:a1:
         e0:e8:99:b2:66:de:81:16:57:c9:95:c9:9e:a8:a8:68:bf:99:
         3e:f0:b1:72:70:d0:ff:f5
-----BEGIN CERTIFICATE-----
MIIGrDCCBJSgAwIBAgICDO8wDQYJKoZIhvcNAQEEBQAwgawxCzAJBgNVBAYTAlVT
MQswCQYDVQQIEwJPSDERMA8GA1UEBxMIQ29sdW1idXMxEjAQBgNVBAoTCVZpa2lu
Z1ZQTjEdMBsGA1UECxMUTXlPcmdhbml6YXRpb25hbFVuaXQxFTATBgNVBAMTDFZp
a2luZ1ZQTiBDQTEQMA4GA1UEKRMHRWFzeVJTQTEhMB8GCSqGSIb3DQEJARYSbWVA
bXlob3N0Lm15ZG9tYWluMB4XDTE0MTEwOTA1MTc0OFoXDTI0MTEwNjA1MTc0OFow
HjEcMBoGA1UEAxMTQ2xpZW50MzA5Q2VydGUwZTY4MDCCAiIwDQYJKoZIhvcNAQEB
BQADggIPADCCAgoCggIBALArfcAmjqgW5YN2HN7hcjnjyUF0fez7lSJ7u+aVLcel
ADtcbMGwCXyDesctSzhPoEe/APJZHWzrg7FbfXRZKOKbA/Uo4xSqLuZnYZYHCfwD
5e//ngh7UvXotLNZeCEXStIgdMu0C4xNNcl7OEuNA9ueduOpI5e6bvBTS1EngNhz
fVI1Kjfrb8AWYa6hn5wleI+FWFPxtxydbWq9wYCe3JD5C/2oE3U3eIl/b5bE7jTp
0Fb99EUSntbKr1MObxLaIzzINkrm4SSGLHE2ghVjTdMhuP6qaMomIRMARtm4GobV
RGhMbGcrBXZC4QO/5iL2uGdvv8q9v/35gop+c+dZ28cTpT10wYpxDZ+wkbxURTiu
gNhq7SgFpmD3cO7uY4gQ5+Z0yWSVQOHE5Cx3dbGwig8dVHjJ+B9P8wWJA8G2YVtn
qsUl53uaQUVDTi2GRzBdAwqu65QnSYSAZLguQTuqAZyyLacVTx87j7StLdY4EbJ5
lqYWF7eGELpQH8sMbGprUW5gI7LWUtrWAys6o6qSEgZkuryWGEPP7l5x7BuDQmiq
3NjxY4dUrojWfbvvr3TDCcpcOQ9PtAz0f1EysX/0DFe3HEGRicTb5ijz2L0DscqJ
a/UEk9/LccfVfuyDRs24MKM1jFzCuS4yAAfS4Wp6QTbnO5X4PXAb8j/iF9k5D3pb
AgMBAAGjggFjMIIBXzAJBgNVHRMEAjAAMC0GCWCGSAGG+EIBDQQgFh5FYXN5LVJT
QSBHZW5lcmF0ZWQgQ2VydGlmaWNhdGUwHQYDVR0OBBYEFGkx3EazwiwQ0oUs9Nnp
PCKVB/cKMIHhBgNVHSMEgdkwgdaAFBLNYATSoICecO3Gmbh7LMZS/RmhoYGypIGv
MIGsMQswCQYDVQQGEwJVUzELMAkGA1UECBMCT0gxETAPBgNVBAcTCENvbHVtYnVz
MRIwEAYDVQQKEwlWaWtpbmdWUE4xHTAbBgNVBAsTFE15T3JnYW5pemF0aW9uYWxV
bml0MRUwEwYDVQQDEwxWaWtpbmdWUE4gQ0ExEDAOBgNVBCkTB0Vhc3lSU0ExITAf
BgkqhkiG9w0BCQEWEm1lQG15aG9zdC5teWRvbWFpboIJAM81he6Avyo+MBMGA1Ud
JQQMMAoGCCsGAQUFBwMCMAsGA1UdDwQEAwIHgDANBgkqhkiG9w0BAQQFAAOCAgEA
ZX2EH8PUEgREgVDTqDlQbrVyHySr11HwD4fGQNS9St1hMs1EKeOqfsZd6mUoCqlN
DN22z9j+A0Y4/pretUqEFj4Zc3dXMoPwJ/1FTJj4/K+/bAMDv3g3gR4Cpi/nG2aw
5rsLmbgn+Llrz4IjhIdufBC00hZdix/ve4Tng0NKV6YrARgkEQxIcWWuwThZwIZ/
Cbox44c+eytk0QUvLt+woPgIB0LgkISKvAjsBvZJDNZDhpn1sgxlfynhRkeTirOX
b0wnGyeYvbWr9h1NO4T2LwiuS8tTyyUOWPaqxZBLHth6oyc4tPn0Gu1vGyHfJO52
NHoFrmTZdZhPlLfaVvMqrfhDaa6Xlh+z1Vf+/9vo6VorYsddMZrM7CD9o+9HREEi
K4jT6Pw0x8SkHcnWeA2NbaBsA4chRvJIwd+X3SS+WSEC9WoiCqpcaKWmY91Km4MJ
b26XRkigs0m/9Zb2a2RTwhs5KTs/MJDl/UKv+xiRR23lPGIPT0aNFLSf9mCZeKir
3fd2q+7OCdWfoISLwg/Ys4Th/CgrWWZS2c4IYgSBCzUoIJSML6o8xiy09Arxpktn
3FXE6+jxrq88YSGiGpaOAmrv1d6yZPwxeEJQ8PodjV/rZng152c1mx0BVxYa87e8
06Uw2S+h4OiZsmbegRZXyZXJnqioaL+ZPvCxcnDQ//U=
-----END CERTIFICATE-----
