Certificate:
    Data:
        Version: 3 (0x2)
        Serial Number: 3332 (0xd04)
    Signature Algorithm: md5WithRSAEncryption
        Issuer: C=US, ST=OH, L=Columbus, O=VikingVPN, OU=MyOrganizationalUnit, CN=VikingVPN CA/name=EasyRSA/emailAddress=me@myhost.mydomain
        Validity
            Not Before: Nov 10 03:18:21 2014 GMT
            Not After : Nov  7 03:18:21 2024 GMT
        Subject: CN=Client448Cert40c9fe
        Subject Public Key Info:
            Public Key Algorithm: rsaEncryption
                Public-Key: (4096 bit)
                Modulus:
                    00:99:77:b8:a8:50:09:01:51:2b:d9:ea:12:eb:92:
                    e4:72:b3:28:47:51:9f:c2:a7:83:5b:53:0c:86:2f:
                    dd:d8:90:21:58:c6:fa:85:2a:b5:9b:3d:ba:71:f9:
                    e0:f3:d3:a3:48:75:14:2d:42:df:e8:98:d1:c2:69:
                    39:56:10:94:53:88:44:1b:0d:d2:f9:7d:2e:f1:dd:
                    3e:1b:73:08:8d:13:ba:96:fe:7d:81:c8:34:5b:dd:
                    c0:d9:09:dd:e1:d4:56:dd:7e:10:45:56:70:de:47:
                    c4:23:dc:b4:b4:bb:35:d3:90:1c:41:7b:ec:68:71:
                    06:84:ee:d9:39:c3:96:e5:67:0d:ee:4d:d6:1a:77:
                    1f:ca:be:93:94:8b:62:54:90:8e:c4:c1:ef:b0:94:
                    e1:23:85:09:96:b6:9a:03:d5:92:f1:54:76:1d:a1:
                    09:e7:09:40:40:71:25:a6:01:42:bf:20:fd:4c:56:
                    a6:f6:62:f7:86:24:8f:e9:e1:98:25:ad:dd:ef:bf:
                    ed:91:82:37:0c:f2:d3:ff:1f:5d:83:f7:17:3e:49:
                    84:20:57:ef:f4:cb:73:f7:36:2d:36:aa:81:6c:44:
                    a6:33:86:31:29:be:0b:ad:6b:a2:7e:4f:0a:11:08:
                    e0:77:e0:ec:de:62:8a:b5:04:c4:6b:3e:6a:2d:71:
                    58:78:e6:67:a0:0b:22:a3:e8:0d:9e:96:8b:42:91:
                    b9:ba:cd:4b:68:af:5a:9d:ce:92:b6:3c:f8:4e:ca:
                    97:cf:34:d5:ba:ac:0a:26:cd:db:9a:78:f3:83:28:
                    b0:33:69:8c:eb:a5:a6:ac:81:33:2e:33:7c:71:f0:
                    9f:70:61:e0:65:34:f4:c6:87:51:f3:23:23:b8:1a:
                    07:52:8f:41:05:18:ac:b8:8b:11:61:a5:8a:8c:4a:
                    09:6d:a7:b1:44:c3:64:38:65:19:22:88:eb:2f:26:
                    ed:eb:ca:d1:51:c3:39:7f:64:3f:59:9b:93:c0:30:
                    f9:03:ad:9a:ab:9b:ca:8d:2e:bd:5f:69:c5:0e:8a:
                    47:0f:d4:e5:52:42:e0:83:7c:3a:27:d4:3e:d9:7c:
                    0a:b6:b2:77:d0:4c:9e:d2:0f:28:be:46:d9:d3:eb:
                    a5:39:c9:76:a6:97:a1:bb:f3:98:58:52:9d:30:08:
                    31:74:d0:11:78:c8:6a:27:cf:67:90:36:53:99:be:
                    b5:e2:1d:70:68:75:d8:a7:a0:ed:15:94:1e:c4:5a:
                    1f:cf:90:e0:60:dd:c9:ca:10:9d:ff:ea:09:a1:ae:
                    ae:4b:78:e7:68:b5:fc:8f:4b:da:31:0e:3c:0f:8d:
                    e7:f4:01:44:2e:b4:3c:24:1d:c0:21:0c:86:3b:37:
                    b4:8b:a9
                Exponent: 65537 (0x10001)
        X509v3 extensions:
            X509v3 Basic Constraints: 
                CA:FALSE
            Netscape Comment: 
                Easy-RSA Generated Certificate
            X509v3 Subject Key Identifier: 
                2C:58:B9:C2:20:5F:FA:B6:60:92:E3:7D:19:AF:50:B9:B8:C3:89:EA
            X509v3 Authority Key Identifier: 
                keyid:12:CD:60:04:D2:A0:80:9E:70:ED:C6:99:B8:7B:2C:C6:52:FD:19:A1
                DirName:/C=US/ST=OH/L=Columbus/O=VikingVPN/OU=MyOrganizationalUnit/CN=VikingVPN CA/name=EasyRSA/emailAddress=me@myhost.mydomain
                serial:CF:35:85:EE:80:BF:2A:3E

            X509v3 Extended Key Usage: 
                TLS Web Client Authentication
            X509v3 Key Usage: 
                Digital Signature
    Signature Algorithm: md5WithRSAEncryption
         b2:f0:f5:1f:36:c2:11:fa:7d:70:58:1d:d0:53:a8:30:e1:84:
         02:6f:21:ec:14:ea:7e:8e:54:a6:1c:5c:11:9b:11:23:15:b2:
         31:09:5e:86:8a:98:80:ce:f0:9a:35:0a:ac:12:d5:be:39:05:
         ac:9a:ca:65:ea:57:15:0b:b7:c1:b8:0c:48:1a:37:e6:67:78:
         be:0a:b1:ea:9d:d7:1d:be:43:59:07:15:5c:32:5c:ca:2b:48:
         b6:f5:df:ba:33:d1:9d:e6:8a:2a:0e:7e:c1:b8:9d:86:82:fa:
         d7:f0:96:76:78:13:92:7c:b6:ae:2a:d8:d9:2a:5c:22:cc:f0:
         d1:a2:04:d5:73:86:0c:b9:47:ae:15:39:57:4b:0e:a8:02:9c:
         49:00:3a:86:38:d2:e5:1e:4b:d7:03:81:e4:46:30:a7:34:f6:
         34:96:3a:ee:a1:32:cc:9b:5a:14:8d:ef:bd:47:9d:65:c7:3b:
         31:e7:e5:e0:5c:66:fd:62:74:e9:7c:09:f6:0d:a5:99:97:d1:
         c5:2b:42:33:92:0f:11:9f:47:97:19:80:db:66:cb:cf:e6:34:
         3d:59:02:40:0c:77:0c:9f:9e:52:1b:19:16:5d:41:c9:76:c6:
         42:4b:e3:d4:4f:13:60:30:b3:04:52:64:10:fa:af:b2:9f:be:
         08:ae:3e:0f:e1:55:5d:46:de:ad:7a:a7:20:87:19:5b:95:03:
         93:9c:f3:36:58:ee:55:fa:ac:e5:9f:12:2e:58:01:25:d3:49:
         5a:8f:ce:6f:56:c9:80:b6:e1:b1:ce:ad:51:0f:fd:c7:f0:89:
         bc:1b:da:9a:4e:a8:af:31:22:2f:db:fd:28:85:e3:43:eb:8b:
         23:e6:e3:13:03:94:cb:55:88:08:3a:f5:96:ab:18:18:49:52:
         6d:4f:28:d9:1c:73:99:ab:81:92:c7:cf:10:ae:c4:47:1c:c1:
         32:f6:52:ef:68:46:17:26:f7:33:64:2b:9a:8e:2a:30:bb:81:
         98:95:2d:a2:5a:59:8c:52:06:a1:98:bc:7f:8e:06:e2:c0:ac:
         7f:ef:f1:6b:6f:e4:dc:cb:e3:a8:f6:c7:6b:57:9f:fe:77:0c:
         88:8d:5f:3f:69:92:28:ab:72:0d:57:a8:d6:64:cc:16:c8:e3:
         0a:7c:d3:b0:b1:d1:1d:d9:c9:1d:86:82:95:c5:1e:74:2b:39:
         61:92:5c:32:d5:f2:23:dd:e2:3f:0b:55:48:a5:91:b2:da:83:
         b0:41:9e:c9:4d:cc:56:75:f0:e3:57:7a:5c:20:d6:9d:f7:4b:
         e0:1a:3a:0a:28:08:3c:05:98:84:8b:e7:02:cf:99:88:99:b1:
         9c:0a:d9:ea:e2:ac:05:32
-----BEGIN CERTIFICATE-----
MIIGrDCCBJSgAwIBAgICDQQwDQYJKoZIhvcNAQEEBQAwgawxCzAJBgNVBAYTAlVT
MQswCQYDVQQIEwJPSDERMA8GA1UEBxMIQ29sdW1idXMxEjAQBgNVBAoTCVZpa2lu
Z1ZQTjEdMBsGA1UECxMUTXlPcmdhbml6YXRpb25hbFVuaXQxFTATBgNVBAMTDFZp
a2luZ1ZQTiBDQTEQMA4GA1UEKRMHRWFzeVJTQTEhMB8GCSqGSIb3DQEJARYSbWVA
bXlob3N0Lm15ZG9tYWluMB4XDTE0MTExMDAzMTgyMVoXDTI0MTEwNzAzMTgyMVow
HjEcMBoGA1UEAxMTQ2xpZW50NDQ4Q2VydDQwYzlmZTCCAiIwDQYJKoZIhvcNAQEB
BQADggIPADCCAgoCggIBAJl3uKhQCQFRK9nqEuuS5HKzKEdRn8Kng1tTDIYv3diQ
IVjG+oUqtZs9unH54PPTo0h1FC1C3+iY0cJpOVYQlFOIRBsN0vl9LvHdPhtzCI0T
upb+fYHINFvdwNkJ3eHUVt1+EEVWcN5HxCPctLS7NdOQHEF77GhxBoTu2TnDluVn
De5N1hp3H8q+k5SLYlSQjsTB77CU4SOFCZa2mgPVkvFUdh2hCecJQEBxJaYBQr8g
/UxWpvZi94Ykj+nhmCWt3e+/7ZGCNwzy0/8fXYP3Fz5JhCBX7/TLc/c2LTaqgWxE
pjOGMSm+C61ron5PChEI4Hfg7N5iirUExGs+ai1xWHjmZ6ALIqPoDZ6Wi0KRubrN
S2ivWp3OkrY8+E7Kl8801bqsCibN25p484MosDNpjOulpqyBMy4zfHHwn3Bh4GU0
9MaHUfMjI7gaB1KPQQUYrLiLEWGlioxKCW2nsUTDZDhlGSKI6y8m7evK0VHDOX9k
P1mbk8Aw+QOtmqubyo0uvV9pxQ6KRw/U5VJC4IN8OifUPtl8Crayd9BMntIPKL5G
2dPrpTnJdqaXobvzmFhSnTAIMXTQEXjIaifPZ5A2U5m+teIdcGh12Keg7RWUHsRa
H8+Q4GDdycoQnf/qCaGurkt452i1/I9L2jEOPA+N5/QBRC60PCQdwCEMhjs3tIup
AgMBAAGjggFjMIIBXzAJBgNVHRMEAjAAMC0GCWCGSAGG+EIBDQQgFh5FYXN5LVJT
QSBHZW5lcmF0ZWQgQ2VydGlmaWNhdGUwHQYDVR0OBBYEFCxYucIgX/q2YJLjfRmv
ULm4w4nqMIHhBgNVHSMEgdkwgdaAFBLNYATSoICecO3Gmbh7LMZS/RmhoYGypIGv
MIGsMQswCQYDVQQGEwJVUzELMAkGA1UECBMCT0gxETAPBgNVBAcTCENvbHVtYnVz
MRIwEAYDVQQKEwlWaWtpbmdWUE4xHTAbBgNVBAsTFE15T3JnYW5pemF0aW9uYWxV
bml0MRUwEwYDVQQDEwxWaWtpbmdWUE4gQ0ExEDAOBgNVBCkTB0Vhc3lSU0ExITAf
BgkqhkiG9w0BCQEWEm1lQG15aG9zdC5teWRvbWFpboIJAM81he6Avyo+MBMGA1Ud
JQQMMAoGCCsGAQUFBwMCMAsGA1UdDwQEAwIHgDANBgkqhkiG9w0BAQQFAAOCAgEA
svD1HzbCEfp9cFgd0FOoMOGEAm8h7BTqfo5UphxcEZsRIxWyMQlehoqYgM7wmjUK
rBLVvjkFrJrKZepXFQu3wbgMSBo35md4vgqx6p3XHb5DWQcVXDJcyitItvXfujPR
neaKKg5+wbidhoL61/CWdngTkny2rirY2SpcIszw0aIE1XOGDLlHrhU5V0sOqAKc
SQA6hjjS5R5L1wOB5EYwpzT2NJY67qEyzJtaFI3vvUedZcc7Mefl4Fxm/WJ06XwJ
9g2lmZfRxStCM5IPEZ9HlxmA22bLz+Y0PVkCQAx3DJ+eUhsZFl1ByXbGQkvj1E8T
YDCzBFJkEPqvsp++CK4+D+FVXUberXqnIIcZW5UDk5zzNljuVfqs5Z8SLlgBJdNJ
Wo/Ob1bJgLbhsc6tUQ/9x/CJvBvamk6orzEiL9v9KIXjQ+uLI+bjEwOUy1WICDr1
lqsYGElSbU8o2RxzmauBksfPEK7ERxzBMvZS72hGFyb3M2Qrmo4qMLuBmJUtolpZ
jFIGoZi8f44G4sCsf+/xa2/k3MvjqPbHa1ef/ncMiI1fP2mSKKtyDVeo1mTMFsjj
CnzTsLHRHdnJHYaClcUedCs5YZJcMtXyI93iPwtVSKWRstqDsEGeyU3MVnXw41d6
XCDWnfdL4Bo6CigIPAWYhIvnAs+ZiJmxnArZ6uKsBTI=
-----END CERTIFICATE-----
