Certificate:
    Data:
        Version: 3 (0x2)
        Serial Number: 3337 (0xd09)
    Signature Algorithm: md5WithRSAEncryption
        Issuer: C=US, ST=OH, L=Columbus, O=VikingVPN, OU=MyOrganizationalUnit, CN=VikingVPN CA/name=EasyRSA/emailAddress=me@myhost.mydomain
        Validity
            Not Before: Nov 10 06:16:54 2014 GMT
            Not After : Nov  7 06:16:54 2024 GMT
        Subject: CN=Client1156Certf4715e
        Subject Public Key Info:
            Public Key Algorithm: rsaEncryption
                Public-Key: (4096 bit)
                Modulus:
                    00:c6:f1:79:db:2d:f8:02:c6:24:d6:b7:e8:23:0d:
                    20:3b:a4:3b:c4:25:ee:fd:8e:45:35:18:54:36:11:
                    2f:e3:19:3b:db:5c:6d:be:74:3c:fe:a1:6e:e2:75:
                    6f:17:ea:84:ff:52:f3:f9:73:b2:23:80:14:22:e8:
                    ea:a8:cd:a3:12:b6:85:c3:00:91:51:15:7c:e6:fb:
                    28:b1:7d:80:91:4b:b3:7c:d0:0d:b3:aa:11:e9:0c:
                    05:46:e4:03:b5:9c:ec:ef:27:bc:a7:23:76:90:c2:
                    21:21:0d:a9:61:23:42:61:32:74:0a:37:c0:14:fb:
                    d7:46:5e:84:e5:77:be:22:b0:9b:cb:32:f0:42:7d:
                    df:9b:f1:6c:a4:57:45:92:f2:20:fa:22:0a:71:0c:
                    6f:8f:b3:7b:ac:41:a7:ab:de:14:6d:ba:8b:e2:9b:
                    d4:c9:70:e9:07:6a:4f:6c:b9:e1:4b:74:70:38:1b:
                    92:21:be:0e:47:f8:9c:6d:f9:00:1f:91:9f:59:7c:
                    02:7d:2f:bb:be:d2:d0:bf:01:6d:55:95:32:e1:65:
                    a8:a9:03:5d:77:76:26:98:fe:52:e6:ab:a1:49:a8:
                    59:00:d7:13:9f:08:29:3d:b4:8c:2d:f8:04:d4:2d:
                    bd:a5:1d:d7:08:37:25:44:d7:80:78:ff:cc:e2:49:
                    23:16:ab:be:40:9d:6f:50:91:19:66:33:19:9e:03:
                    d2:b2:d7:ad:ec:13:45:27:db:d9:32:a5:df:ca:21:
                    4f:55:1e:10:ca:fe:d0:ef:49:a0:0a:8e:09:09:ac:
                    4f:e7:ef:d0:57:cd:e2:4c:f3:5f:c0:b7:2d:6a:46:
                    e1:20:51:4c:d0:60:8d:d9:6f:dd:b7:5c:7d:8d:bb:
                    60:a1:92:a2:15:39:3a:5e:dd:b9:f8:98:bb:4c:b7:
                    29:ec:6e:fd:8b:74:28:e5:19:09:2d:12:e0:c0:07:
                    15:0a:e4:52:e4:36:d8:8c:c0:32:bf:3a:27:d8:10:
                    81:12:7c:b6:15:5b:0d:83:78:24:e6:e6:67:83:ac:
                    54:9b:0c:86:45:b1:1f:d1:12:7f:a1:49:b4:db:48:
                    e9:ff:92:22:1b:0f:43:88:6f:9d:c7:91:9f:20:48:
                    0d:a5:5b:53:6e:c4:a4:53:e8:e3:7b:9f:a6:00:db:
                    1e:0e:0e:5a:ca:2e:46:c4:d7:a7:77:46:94:c0:1b:
                    13:2b:7f:2a:e9:9c:0f:56:78:64:12:22:2d:71:e2:
                    d6:5c:56:d3:df:d4:a8:1f:14:7f:4c:25:32:df:8e:
                    db:56:33:85:be:0f:d4:b8:35:9d:be:f5:3f:e9:73:
                    7c:da:89:b7:dd:8e:0b:67:fc:61:31:77:eb:c7:38:
                    8d:17:ed
                Exponent: 65537 (0x10001)
        X509v3 extensions:
            X509v3 Basic Constraints: 
                CA:FALSE
            Netscape Comment: 
                Easy-RSA Generated Certificate
            X509v3 Subject Key Identifier: 
                14:96:3D:A4:B3:48:0B:CA:B6:1C:17:2F:22:F1:41:E8:A5:6F:2D:7E
            X509v3 Authority Key Identifier: 
                keyid:12:CD:60:04:D2:A0:80:9E:70:ED:C6:99:B8:7B:2C:C6:52:FD:19:A1
                DirName:/C=US/ST=OH/L=Columbus/O=VikingVPN/OU=MyOrganizationalUnit/CN=VikingVPN CA/name=EasyRSA/emailAddress=me@myhost.mydomain
                serial:CF:35:85:EE:80:BF:2A:3E

            X509v3 Extended Key Usage: 
                TLS Web Client Authentication
            X509v3 Key Usage: 
                Digital Signature
    Signature Algorithm: md5WithRSAEncryption
         30:6e:2e:19:ba:b9:f7:e1:aa:48:40:43:35:87:de:57:dc:c7:
         ea:84:6b:55:e9:95:18:53:6e:ac:8e:c8:4c:7c:b8:8c:1f:0a:
         17:de:43:0f:88:be:05:de:f0:a5:de:4b:0f:71:ec:6c:b7:21:
         34:da:c2:7c:80:bf:0a:4b:e5:ef:8b:5f:d8:51:f4:33:3c:d8:
         23:2c:ea:0d:15:d5:d6:37:9e:8c:08:8d:20:c7:41:64:7f:11:
         b4:d1:d5:35:eb:a5:c3:a9:3a:23:91:26:db:2a:e5:3f:35:5c:
         28:72:bf:59:40:15:42:30:83:9e:c0:37:f6:5b:eb:36:ec:0c:
         cb:7f:f6:cb:d9:74:43:07:59:e2:bf:1c:b3:43:45:6d:67:68:
         e4:69:62:22:ff:b3:52:bb:93:91:f4:25:64:0c:61:01:82:b5:
         08:98:4a:bd:1e:b0:d7:9b:2b:aa:a8:86:03:22:e6:71:a2:4d:
         28:03:39:19:8f:04:9d:64:56:89:5e:21:94:24:a1:a8:46:1b:
         43:d7:ce:36:5c:c1:a0:4e:57:5c:46:14:f8:9d:53:92:49:60:
         ec:30:01:95:29:5c:59:67:31:05:38:01:28:0a:8b:b7:59:d9:
         f2:40:55:bd:82:a1:f0:c7:3d:0b:1d:16:ba:c1:ab:24:65:60:
         06:cf:dc:2f:65:7a:db:47:f9:83:b7:eb:8b:cb:88:17:b5:fb:
         ae:87:ee:72:a6:8a:48:3b:44:d7:70:27:5b:33:b2:91:d7:18:
         9e:3c:e6:59:17:f9:37:ef:05:14:d8:2b:d6:b1:0d:7c:75:1f:
         aa:e2:d0:54:71:0e:81:5d:fd:75:e0:d9:9b:43:9f:66:0c:0b:
         0a:f0:61:f0:4b:4f:cd:df:9a:5b:b4:5d:66:a8:ae:7f:e0:b3:
         fc:c6:ca:33:2a:ed:44:35:da:e2:a6:5f:30:69:b8:39:e8:52:
         80:9b:14:47:e6:47:18:25:d4:de:09:b0:04:bc:e2:7b:2c:d0:
         47:47:b0:11:14:94:7b:93:76:bf:cb:81:f7:06:4a:f9:fd:1f:
         3c:91:0d:69:3a:d4:bf:7a:e4:b8:21:bd:60:01:bc:9c:d0:11:
         a4:75:fc:62:cf:0c:6f:c6:fa:02:29:12:07:3c:97:c1:c7:d6:
         17:3d:8e:a9:b9:a2:98:fe:3a:1f:b5:e5:34:86:f8:1e:54:ad:
         d9:8b:75:82:22:7d:b4:16:ea:fc:3f:9c:98:2f:15:e3:7e:9c:
         58:c4:22:88:75:23:0f:71:4e:dc:8d:4c:93:86:ff:4f:f5:a4:
         d8:d9:0b:62:03:59:25:04:21:bd:3a:f9:c6:ee:1e:64:76:19:
         30:f1:6e:d7:5f:bd:8b:5a
-----BEGIN CERTIFICATE-----
MIIGrTCCBJWgAwIBAgICDQkwDQYJKoZIhvcNAQEEBQAwgawxCzAJBgNVBAYTAlVT
MQswCQYDVQQIEwJPSDERMA8GA1UEBxMIQ29sdW1idXMxEjAQBgNVBAoTCVZpa2lu
Z1ZQTjEdMBsGA1UECxMUTXlPcmdhbml6YXRpb25hbFVuaXQxFTATBgNVBAMTDFZp
a2luZ1ZQTiBDQTEQMA4GA1UEKRMHRWFzeVJTQTEhMB8GCSqGSIb3DQEJARYSbWVA
bXlob3N0Lm15ZG9tYWluMB4XDTE0MTExMDA2MTY1NFoXDTI0MTEwNzA2MTY1NFow
HzEdMBsGA1UEAxMUQ2xpZW50MTE1NkNlcnRmNDcxNWUwggIiMA0GCSqGSIb3DQEB
AQUAA4ICDwAwggIKAoICAQDG8XnbLfgCxiTWt+gjDSA7pDvEJe79jkU1GFQ2ES/j
GTvbXG2+dDz+oW7idW8X6oT/UvP5c7IjgBQi6OqozaMStoXDAJFRFXzm+yixfYCR
S7N80A2zqhHpDAVG5AO1nOzvJ7ynI3aQwiEhDalhI0JhMnQKN8AU+9dGXoTld74i
sJvLMvBCfd+b8WykV0WS8iD6IgpxDG+Ps3usQaer3hRtuovim9TJcOkHak9sueFL
dHA4G5Ihvg5H+Jxt+QAfkZ9ZfAJ9L7u+0tC/AW1VlTLhZaipA113diaY/lLmq6FJ
qFkA1xOfCCk9tIwt+ATULb2lHdcINyVE14B4/8ziSSMWq75AnW9QkRlmMxmeA9Ky
163sE0Un29kypd/KIU9VHhDK/tDvSaAKjgkJrE/n79BXzeJM81/Aty1qRuEgUUzQ
YI3Zb923XH2Nu2ChkqIVOTpe3bn4mLtMtynsbv2LdCjlGQktEuDABxUK5FLkNtiM
wDK/OifYEIESfLYVWw2DeCTm5meDrFSbDIZFsR/REn+hSbTbSOn/kiIbD0OIb53H
kZ8gSA2lW1NuxKRT6ON7n6YA2x4ODlrKLkbE16d3RpTAGxMrfyrpnA9WeGQSIi1x
4tZcVtPf1KgfFH9MJTLfjttWM4W+D9S4NZ2+9T/pc3zaibfdjgtn/GExd+vHOI0X
7QIDAQABo4IBYzCCAV8wCQYDVR0TBAIwADAtBglghkgBhvhCAQ0EIBYeRWFzeS1S
U0EgR2VuZXJhdGVkIENlcnRpZmljYXRlMB0GA1UdDgQWBBQUlj2ks0gLyrYcFy8i
8UHopW8tfjCB4QYDVR0jBIHZMIHWgBQSzWAE0qCAnnDtxpm4eyzGUv0ZoaGBsqSB
rzCBrDELMAkGA1UEBhMCVVMxCzAJBgNVBAgTAk9IMREwDwYDVQQHEwhDb2x1bWJ1
czESMBAGA1UEChMJVmlraW5nVlBOMR0wGwYDVQQLExRNeU9yZ2FuaXphdGlvbmFs
VW5pdDEVMBMGA1UEAxMMVmlraW5nVlBOIENBMRAwDgYDVQQpEwdFYXN5UlNBMSEw
HwYJKoZIhvcNAQkBFhJtZUBteWhvc3QubXlkb21haW6CCQDPNYXugL8qPjATBgNV
HSUEDDAKBggrBgEFBQcDAjALBgNVHQ8EBAMCB4AwDQYJKoZIhvcNAQEEBQADggIB
ADBuLhm6uffhqkhAQzWH3lfcx+qEa1XplRhTbqyOyEx8uIwfChfeQw+IvgXe8KXe
Sw9x7Gy3ITTawnyAvwpL5e+LX9hR9DM82CMs6g0V1dY3nowIjSDHQWR/EbTR1TXr
pcOpOiORJtsq5T81XChyv1lAFUIwg57AN/Zb6zbsDMt/9svZdEMHWeK/HLNDRW1n
aORpYiL/s1K7k5H0JWQMYQGCtQiYSr0esNebK6qohgMi5nGiTSgDORmPBJ1kVole
IZQkoahGG0PXzjZcwaBOV1xGFPidU5JJYOwwAZUpXFlnMQU4ASgKi7dZ2fJAVb2C
ofDHPQsdFrrBqyRlYAbP3C9lettH+YO364vLiBe1+66H7nKmikg7RNdwJ1szspHX
GJ485lkX+TfvBRTYK9axDXx1H6ri0FRxDoFd/XXg2ZtDn2YMCwrwYfBLT83fmlu0
XWaorn/gs/zGyjMq7UQ12uKmXzBpuDnoUoCbFEfmRxgl1N4JsAS84nss0EdHsBEU
lHuTdr/LgfcGSvn9HzyRDWk61L965LghvWABvJzQEaR1/GLPDG/G+gIpEgc8l8HH
1hc9jqm5opj+Oh+15TSG+B5UrdmLdYIifbQW6vw/nJgvFeN+nFjEIoh1Iw9xTtyN
TJOG/0/1pNjZC2IDWSUEIb06+cbuHmR2GTDxbtdfvYta
-----END CERTIFICATE-----
