Certificate:
    Data:
        Version: 3 (0x2)
        Serial Number: 3357 (0xd1d)
    Signature Algorithm: md5WithRSAEncryption
        Issuer: C=US, ST=OH, L=Columbus, O=VikingVPN, OU=MyOrganizationalUnit, CN=VikingVPN CA/name=EasyRSA/emailAddress=me@myhost.mydomain
        Validity
            Not Before: Nov 11 15:18:01 2014 GMT
            Not After : Nov  8 15:18:01 2024 GMT
        Subject: CN=Client51Cert87bf9b
        Subject Public Key Info:
            Public Key Algorithm: rsaEncryption
                Public-Key: (4096 bit)
                Modulus:
                    00:b1:11:78:42:c1:0c:c6:02:93:d7:5d:15:5f:8d:
                    6b:10:1c:11:9a:9a:b2:45:3d:65:1f:f4:28:ba:f7:
                    48:c5:c5:2d:4c:03:f9:ac:7f:f4:c4:56:03:fc:28:
                    03:07:44:38:c6:40:12:fa:bc:55:ac:ad:80:c8:30:
                    1e:36:53:3c:a1:2d:b1:e5:92:ca:32:17:d6:12:ae:
                    d4:ca:50:a9:67:6e:8f:47:87:2f:c0:f9:d3:0e:fb:
                    f1:16:35:a5:db:72:a8:b0:d4:9c:dd:93:a8:9b:31:
                    2b:46:ea:4c:68:3e:0b:9c:1c:35:77:35:4d:7e:8d:
                    e1:73:82:91:eb:05:e8:c1:f7:0f:54:bb:1c:a6:63:
                    9d:b8:8c:69:8a:6a:94:7f:cf:f5:32:9f:20:fd:c9:
                    35:cf:81:ed:d2:20:62:59:26:f9:78:a3:79:64:c8:
                    c2:a9:e3:22:ef:f0:0e:d8:af:4b:7c:d9:2d:bb:a4:
                    5f:c1:7f:11:78:d5:b7:17:fa:4d:2a:81:48:8c:ed:
                    7b:b6:e5:6e:d4:4e:5e:ad:65:d4:da:f4:66:8e:8c:
                    65:be:1e:c0:d9:c4:16:80:f3:3f:57:bc:7e:d1:b3:
                    bf:05:9c:87:c0:d7:25:b0:a7:58:21:cd:d2:83:dc:
                    e4:77:10:32:82:60:b0:40:59:75:a8:9f:91:de:ae:
                    46:da:b0:ec:b7:6c:df:fe:14:0a:a5:3b:aa:06:b2:
                    95:45:75:aa:38:bf:94:b9:d4:0d:40:03:45:aa:c6:
                    f9:0f:09:c2:71:10:3a:07:04:33:1f:29:86:ad:f0:
                    90:44:55:df:09:6a:02:34:45:76:8d:a4:d8:b6:b5:
                    ea:de:12:a2:8c:cf:e7:84:02:58:60:c2:b4:61:bb:
                    89:82:94:e9:4f:1f:e3:cc:8e:97:c2:f6:3f:e4:8b:
                    37:9c:28:30:ed:6f:c6:f7:d7:9b:04:44:1d:de:c6:
                    90:4d:2b:2c:c7:5a:a8:6d:e8:ad:47:c4:35:01:45:
                    95:78:84:92:ce:bd:9c:e7:42:cd:28:35:fd:91:1f:
                    16:80:a9:e2:46:a3:04:59:25:73:e9:91:e7:22:fb:
                    c6:0b:d4:ce:89:11:09:4c:b5:58:23:13:67:03:df:
                    82:86:6e:99:2b:07:8a:5e:93:8b:aa:96:b5:79:21:
                    0d:09:f1:f8:0f:8f:52:60:c9:92:9e:48:40:94:47:
                    75:5c:37:50:2f:0e:33:64:7d:bf:05:3e:66:d9:94:
                    2b:4d:13:8d:3a:8c:bd:30:17:62:a8:11:0c:16:67:
                    c1:81:33:6a:31:cd:aa:29:29:fb:8f:42:4b:2c:cf:
                    64:a5:ed:d8:dc:84:a4:1e:42:9f:51:af:d0:13:87:
                    ee:00:7b
                Exponent: 65537 (0x10001)
        X509v3 extensions:
            X509v3 Basic Constraints: 
                CA:FALSE
            Netscape Comment: 
                Easy-RSA Generated Certificate
            X509v3 Subject Key Identifier: 
                39:9B:7E:8A:E1:F6:72:AE:61:D2:89:77:15:FE:20:64:6B:EE:CF:1E
            X509v3 Authority Key Identifier: 
                keyid:12:CD:60:04:D2:A0:80:9E:70:ED:C6:99:B8:7B:2C:C6:52:FD:19:A1
                DirName:/C=US/ST=OH/L=Columbus/O=VikingVPN/OU=MyOrganizationalUnit/CN=VikingVPN CA/name=EasyRSA/emailAddress=me@myhost.mydomain
                serial:CF:35:85:EE:80:BF:2A:3E

            X509v3 Extended Key Usage: 
                TLS Web Client Authentication
            X509v3 Key Usage: 
                Digital Signature
    Signature Algorithm: md5WithRSAEncryption
         9f:d8:63:a3:85:d2:cb:13:31:6b:1c:55:71:1e:38:e0:ab:1d:
         ff:c2:04:eb:e2:13:be:81:51:6b:05:c2:15:40:4c:f5:ee:f6:
         48:ef:0d:1e:33:8c:14:ec:e9:bb:32:1a:2a:e5:c0:02:08:42:
         43:ae:ad:1f:ac:aa:de:63:01:3a:d9:81:16:fa:e8:48:fe:a3:
         da:28:24:d8:50:34:c3:fc:27:7a:88:21:1b:c4:1f:0a:82:04:
         51:02:b3:c5:ae:1e:5b:a0:be:55:ce:fe:16:1d:94:c4:ef:cb:
         a1:62:c7:dc:be:f0:9e:02:8a:a0:fb:1a:96:0c:40:82:3f:d2:
         ca:3c:d7:db:18:ee:8e:ea:3e:2b:3d:ee:b4:41:86:52:a0:c3:
         5b:3b:18:3f:1e:fc:7c:32:e8:e3:d7:63:67:cc:c0:d5:02:34:
         ad:44:c8:ed:00:f8:16:d4:28:78:0e:32:e2:9e:da:7f:58:19:
         3c:69:11:28:d6:77:99:da:50:73:93:47:ce:63:28:d0:ef:4f:
         78:e3:6e:5b:d3:71:51:c5:49:5e:a0:3d:8c:b9:93:5e:67:e4:
         a3:18:59:ba:b8:57:d9:92:f0:fc:79:b5:c5:d3:ab:e3:2c:d0:
         ed:b3:c9:d0:27:60:6e:a5:d3:4d:4f:65:67:1e:fe:97:c9:7a:
         4b:46:40:b3:3d:46:e3:34:23:9b:8a:22:f6:24:8f:0b:af:32:
         fe:9d:45:92:74:00:c3:70:eb:07:04:1e:2c:d0:a8:48:35:10:
         38:a3:c6:72:79:b4:e4:da:8c:78:96:81:ea:e3:49:b7:26:e5:
         a9:e6:18:b0:6b:f2:df:70:2f:93:57:5f:dd:6d:d6:bd:de:15:
         b5:f8:2b:38:97:6c:ac:45:a9:2f:69:42:3e:0d:49:31:51:2d:
         67:b3:45:f4:10:70:6e:87:03:86:a8:24:3f:11:dd:e5:59:4f:
         f2:34:51:4d:51:22:bf:fc:5e:bb:e2:1a:a3:32:ed:6c:46:37:
         4e:84:2a:e8:40:b0:55:d2:f2:7f:0b:8b:4e:c6:5c:a0:2a:58:
         11:e5:bb:08:88:da:74:a3:4b:28:38:a4:f0:4a:a0:37:a5:24:
         c9:4b:e7:6d:5c:89:bd:b6:04:1c:86:1d:7e:a9:9c:58:ea:66:
         b6:96:5c:68:53:61:7a:28:e0:e2:78:40:b3:6d:b5:cc:3e:2e:
         2d:fd:fb:97:26:c3:73:17:fc:26:63:ee:7e:83:b8:c9:6d:6d:
         99:b8:9f:7f:76:0a:88:f0:f4:f3:71:4f:93:c8:a1:10:8a:7f:
         a4:b3:b6:a9:8e:15:4e:5f:b4:86:2b:a2:12:4c:c0:53:58:de:
         ea:44:d3:63:f2:de:0e:61
-----BEGIN CERTIFICATE-----
MIIGqzCCBJOgAwIBAgICDR0wDQYJKoZIhvcNAQEEBQAwgawxCzAJBgNVBAYTAlVT
MQswCQYDVQQIEwJPSDERMA8GA1UEBxMIQ29sdW1idXMxEjAQBgNVBAoTCVZpa2lu
Z1ZQTjEdMBsGA1UECxMUTXlPcmdhbml6YXRpb25hbFVuaXQxFTATBgNVBAMTDFZp
a2luZ1ZQTiBDQTEQMA4GA1UEKRMHRWFzeVJTQTEhMB8GCSqGSIb3DQEJARYSbWVA
bXlob3N0Lm15ZG9tYWluMB4XDTE0MTExMTE1MTgwMVoXDTI0MTEwODE1MTgwMVow
HTEbMBkGA1UEAxMSQ2xpZW50NTFDZXJ0ODdiZjliMIICIjANBgkqhkiG9w0BAQEF
AAOCAg8AMIICCgKCAgEAsRF4QsEMxgKT110VX41rEBwRmpqyRT1lH/QouvdIxcUt
TAP5rH/0xFYD/CgDB0Q4xkAS+rxVrK2AyDAeNlM8oS2x5ZLKMhfWEq7UylCpZ26P
R4cvwPnTDvvxFjWl23KosNSc3ZOomzErRupMaD4LnBw1dzVNfo3hc4KR6wXowfcP
VLscpmOduIxpimqUf8/1Mp8g/ck1z4Ht0iBiWSb5eKN5ZMjCqeMi7/AO2K9LfNkt
u6RfwX8ReNW3F/pNKoFIjO17tuVu1E5erWXU2vRmjoxlvh7A2cQWgPM/V7x+0bO/
BZyHwNclsKdYIc3Sg9zkdxAygmCwQFl1qJ+R3q5G2rDst2zf/hQKpTuqBrKVRXWq
OL+UudQNQANFqsb5DwnCcRA6BwQzHymGrfCQRFXfCWoCNEV2jaTYtrXq3hKijM/n
hAJYYMK0YbuJgpTpTx/jzI6XwvY/5Is3nCgw7W/G99ebBEQd3saQTSssx1qobeit
R8Q1AUWVeISSzr2c50LNKDX9kR8WgKniRqMEWSVz6ZHnIvvGC9TOiREJTLVYIxNn
A9+Chm6ZKweKXpOLqpa1eSENCfH4D49SYMmSnkhAlEd1XDdQLw4zZH2/BT5m2ZQr
TRONOoy9MBdiqBEMFmfBgTNqMc2qKSn7j0JLLM9kpe3Y3ISkHkKfUa/QE4fuAHsC
AwEAAaOCAWMwggFfMAkGA1UdEwQCMAAwLQYJYIZIAYb4QgENBCAWHkVhc3ktUlNB
IEdlbmVyYXRlZCBDZXJ0aWZpY2F0ZTAdBgNVHQ4EFgQUOZt+iuH2cq5h0ol3Ff4g
ZGvuzx4wgeEGA1UdIwSB2TCB1oAUEs1gBNKggJ5w7caZuHssxlL9GaGhgbKkga8w
gawxCzAJBgNVBAYTAlVTMQswCQYDVQQIEwJPSDERMA8GA1UEBxMIQ29sdW1idXMx
EjAQBgNVBAoTCVZpa2luZ1ZQTjEdMBsGA1UECxMUTXlPcmdhbml6YXRpb25hbFVu
aXQxFTATBgNVBAMTDFZpa2luZ1ZQTiBDQTEQMA4GA1UEKRMHRWFzeVJTQTEhMB8G
CSqGSIb3DQEJARYSbWVAbXlob3N0Lm15ZG9tYWluggkAzzWF7oC/Kj4wEwYDVR0l
BAwwCgYIKwYBBQUHAwIwCwYDVR0PBAQDAgeAMA0GCSqGSIb3DQEBBAUAA4ICAQCf
2GOjhdLLEzFrHFVxHjjgqx3/wgTr4hO+gVFrBcIVQEz17vZI7w0eM4wU7Om7Mhoq
5cACCEJDrq0frKreYwE62YEW+uhI/qPaKCTYUDTD/Cd6iCEbxB8KggRRArPFrh5b
oL5Vzv4WHZTE78uhYsfcvvCeAoqg+xqWDECCP9LKPNfbGO6O6j4rPe60QYZSoMNb
Oxg/Hvx8Mujj12NnzMDVAjStRMjtAPgW1Ch4DjLintp/WBk8aREo1neZ2lBzk0fO
YyjQ7094425b03FRxUleoD2MuZNeZ+SjGFm6uFfZkvD8ebXF06vjLNDts8nQJ2Bu
pdNNT2VnHv6XyXpLRkCzPUbjNCObiiL2JI8LrzL+nUWSdADDcOsHBB4s0KhINRA4
o8ZyebTk2ox4loHq40m3JuWp5hiwa/LfcC+TV1/dbda93hW1+Cs4l2ysRakvaUI+
DUkxUS1ns0X0EHBuhwOGqCQ/Ed3lWU/yNFFNUSK//F674hqjMu1sRjdOhCroQLBV
0vJ/C4tOxlygKlgR5bsIiNp0o0soOKTwSqA3pSTJS+dtXIm9tgQchh1+qZxY6ma2
llxoU2F6KODieECzbbXMPi4t/fuXJsNzF/wmY+5+g7jJbW2ZuJ9/dgqI8PTzcU+T
yKEQin+ks7apjhVOX7SGK6ISTMBTWN7qRNNj8t4OYQ==
-----END CERTIFICATE-----
