Certificate:
    Data:
        Version: 3 (0x2)
        Serial Number: 3361 (0xd21)
    Signature Algorithm: md5WithRSAEncryption
        Issuer: C=US, ST=OH, L=Columbus, O=VikingVPN, OU=MyOrganizationalUnit, CN=VikingVPN CA/name=EasyRSA/emailAddress=me@myhost.mydomain
        Validity
            Not Before: Nov 11 17:39:48 2014 GMT
            Not After : Nov  8 17:39:48 2024 GMT
        Subject: CN=Client1130Cert6b467f
        Subject Public Key Info:
            Public Key Algorithm: rsaEncryption
                Public-Key: (4096 bit)
                Modulus:
                    00:a3:6a:9c:be:2e:16:60:ab:ef:44:f4:4e:69:13:
                    f4:59:e7:df:aa:18:05:1e:66:55:9c:9a:75:6f:54:
                    36:d1:d0:ea:7c:64:eb:0d:9e:59:6b:39:02:e7:f9:
                    02:64:8d:da:4b:c0:4f:8a:fe:e4:b6:61:50:3d:d2:
                    8e:b1:16:30:0d:07:96:f2:85:c9:75:f0:8b:8a:4c:
                    3a:7d:1f:c6:9a:8f:f6:74:67:78:2a:18:a6:b3:95:
                    c8:3b:f0:1e:eb:78:ab:b1:95:f7:24:b2:4d:10:cc:
                    83:d4:3e:c6:c2:b0:e5:fd:0e:c7:32:9f:f5:ef:fb:
                    1f:20:b7:37:82:62:b1:9a:90:83:7d:3a:6b:32:8a:
                    ee:73:7b:10:88:90:b0:ca:0b:4c:44:95:4f:e0:ea:
                    2f:ac:a9:56:06:4c:1a:47:2e:6c:59:bd:87:54:36:
                    cc:c5:11:f1:ee:dc:23:62:68:4c:8f:1f:c8:01:55:
                    8b:57:0a:e7:cd:7f:02:73:86:49:18:fa:f1:ab:37:
                    d4:b8:b8:d1:c2:7e:12:60:ee:b4:27:57:0e:2d:76:
                    bd:96:b3:94:b9:b0:d2:b8:d7:4f:9f:56:5f:8d:30:
                    49:d3:18:df:56:3d:72:68:19:6d:b8:51:bc:73:9f:
                    a2:d2:a9:31:3f:e4:97:54:33:ce:b7:6a:35:3b:22:
                    37:51:84:39:be:70:b6:10:b6:25:b1:f8:fc:30:6f:
                    cc:bb:be:c4:a6:c8:ab:1a:7e:7e:cf:5f:92:48:22:
                    50:d3:47:bc:10:bb:28:1d:70:31:e2:bd:51:37:8f:
                    ef:3f:f8:5b:18:53:fd:18:35:51:0a:bb:29:bd:89:
                    a9:59:8b:e2:b1:e5:ca:15:88:93:5c:ea:c4:c8:0e:
                    81:10:d5:1a:32:52:bc:e5:7b:d7:03:dd:88:30:be:
                    ef:41:7e:6b:cc:9c:2e:36:05:fa:18:b0:d7:3d:76:
                    d5:78:f8:c4:ac:6b:c0:cc:43:55:45:bc:84:27:b5:
                    7b:da:e6:dd:b9:fd:c1:6c:31:8c:25:d0:97:ea:32:
                    b5:46:88:02:fe:73:36:7e:48:75:51:10:f9:06:a3:
                    7e:59:e4:34:2a:4d:b4:21:9b:ab:fd:af:e1:33:b4:
                    08:20:1b:f4:61:65:d6:88:8e:70:d4:bd:2a:34:f6:
                    18:63:56:fd:87:12:0a:11:06:e0:67:52:81:50:0c:
                    77:84:9e:1a:50:c5:f7:26:79:c8:42:a5:58:3f:d2:
                    f6:2f:d9:5b:b6:a6:cc:e8:b7:30:1d:a4:56:0d:db:
                    43:eb:42:13:39:27:30:fe:aa:0c:9b:0a:7e:ef:ee:
                    cc:7a:d6:df:4e:e9:03:bd:26:66:52:4d:68:ce:80:
                    2b:48:e3
                Exponent: 65537 (0x10001)
        X509v3 extensions:
            X509v3 Basic Constraints: 
                CA:FALSE
            Netscape Comment: 
                Easy-RSA Generated Certificate
            X509v3 Subject Key Identifier: 
                0D:FB:63:19:ED:D4:2B:8B:0E:78:4C:1A:93:81:DE:73:76:79:A8:0C
            X509v3 Authority Key Identifier: 
                keyid:12:CD:60:04:D2:A0:80:9E:70:ED:C6:99:B8:7B:2C:C6:52:FD:19:A1
                DirName:/C=US/ST=OH/L=Columbus/O=VikingVPN/OU=MyOrganizationalUnit/CN=VikingVPN CA/name=EasyRSA/emailAddress=me@myhost.mydomain
                serial:CF:35:85:EE:80:BF:2A:3E

            X509v3 Extended Key Usage: 
                TLS Web Client Authentication
            X509v3 Key Usage: 
                Digital Signature
    Signature Algorithm: md5WithRSAEncryption
         62:b6:f0:30:04:ef:cb:98:12:e8:3b:4f:2e:03:bd:02:be:a1:
         9e:e2:8a:69:53:07:b5:38:a7:96:ff:8a:19:97:d7:68:4a:17:
         91:fe:69:a0:52:d5:db:91:78:0b:19:a9:3e:1b:e5:18:75:57:
         25:43:9a:f3:17:fb:88:d3:43:28:23:16:4b:59:65:05:da:af:
         7c:3f:e2:af:9b:cb:94:65:dd:f1:ee:07:ec:f4:4d:00:c9:f3:
         04:1b:f0:fb:66:ae:9d:37:cd:ec:c9:d9:d7:eb:5a:b1:ff:24:
         2b:ab:85:32:2b:9b:18:02:c2:32:4a:aa:4d:5e:6f:90:71:a0:
         fb:c4:f1:d7:80:71:7f:b2:39:a8:a1:91:c5:d2:28:af:69:16:
         0e:21:a3:c0:c1:2a:c6:b3:03:06:d2:b7:ce:6e:39:03:1b:83:
         1a:8c:fe:3d:f6:f4:ee:ee:6a:d2:f5:cf:81:72:a9:6b:82:bf:
         aa:1f:c5:01:7c:9d:7e:da:56:fe:74:65:2b:ed:92:14:db:66:
         c5:6e:16:85:d2:4b:4f:31:6c:14:fc:c1:06:56:96:bc:2b:64:
         07:2b:73:4d:ce:0e:10:94:c6:eb:c3:bb:36:4b:e5:bd:da:37:
         71:47:56:87:b9:17:1a:4a:81:0f:61:18:b2:f6:85:07:8e:36:
         36:09:61:31:64:0c:10:a9:b5:b5:f7:f3:85:73:28:ff:e8:e5:
         a3:03:42:bb:f0:11:1a:81:90:d1:d4:8e:6e:a9:40:46:f6:4e:
         d2:74:bf:e4:1f:4c:69:fc:c6:05:c1:46:1a:35:3b:1f:5d:bd:
         d7:8e:ac:e5:f8:73:83:48:7e:1d:4d:80:9a:17:da:41:64:7b:
         12:fd:44:ca:1e:5c:f0:df:29:22:b0:00:17:71:e5:63:0e:b7:
         38:12:29:ef:63:96:86:fd:6c:4e:c7:f0:ce:b9:d5:08:9e:e6:
         0a:9e:a2:ae:da:c9:f0:20:18:e6:89:53:ae:c0:6d:c7:9a:92:
         e1:fb:0c:22:eb:b9:bc:e5:fa:62:9e:78:99:f0:b4:ff:98:69:
         9b:fd:c5:45:87:1b:89:f1:af:ad:58:b5:ec:f3:3f:5f:bb:a9:
         9a:ec:c5:e4:6e:83:d7:de:c6:9c:88:e2:ef:24:7e:79:0b:c0:
         af:40:b4:c6:48:bb:d0:6e:cc:a6:54:7d:70:e2:f4:40:01:1b:
         ec:99:91:fa:a9:b2:57:1a:47:e6:f9:0f:10:02:bf:c5:23:d7:
         bb:b6:75:19:49:f3:d2:17:87:83:3f:75:ca:f9:a9:59:b0:ab:
         8e:5b:86:8f:dd:46:39:37:9c:72:11:79:03:ae:56:8e:9e:02:
         2a:a9:28:97:77:9f:e8:f6
-----BEGIN CERTIFICATE-----
MIIGrTCCBJWgAwIBAgICDSEwDQYJKoZIhvcNAQEEBQAwgawxCzAJBgNVBAYTAlVT
MQswCQYDVQQIEwJPSDERMA8GA1UEBxMIQ29sdW1idXMxEjAQBgNVBAoTCVZpa2lu
Z1ZQTjEdMBsGA1UECxMUTXlPcmdhbml6YXRpb25hbFVuaXQxFTATBgNVBAMTDFZp
a2luZ1ZQTiBDQTEQMA4GA1UEKRMHRWFzeVJTQTEhMB8GCSqGSIb3DQEJARYSbWVA
bXlob3N0Lm15ZG9tYWluMB4XDTE0MTExMTE3Mzk0OFoXDTI0MTEwODE3Mzk0OFow
HzEdMBsGA1UEAxMUQ2xpZW50MTEzMENlcnQ2YjQ2N2YwggIiMA0GCSqGSIb3DQEB
AQUAA4ICDwAwggIKAoICAQCjapy+LhZgq+9E9E5pE/RZ59+qGAUeZlWcmnVvVDbR
0Op8ZOsNnllrOQLn+QJkjdpLwE+K/uS2YVA90o6xFjANB5byhcl18IuKTDp9H8aa
j/Z0Z3gqGKazlcg78B7reKuxlfcksk0QzIPUPsbCsOX9Dscyn/Xv+x8gtzeCYrGa
kIN9Omsyiu5zexCIkLDKC0xElU/g6i+sqVYGTBpHLmxZvYdUNszFEfHu3CNiaEyP
H8gBVYtXCufNfwJzhkkY+vGrN9S4uNHCfhJg7rQnVw4tdr2Ws5S5sNK410+fVl+N
MEnTGN9WPXJoGW24Ubxzn6LSqTE/5JdUM863ajU7IjdRhDm+cLYQtiWx+Pwwb8y7
vsSmyKsafn7PX5JIIlDTR7wQuygdcDHivVE3j+8/+FsYU/0YNVEKuym9ialZi+Kx
5coViJNc6sTIDoEQ1RoyUrzle9cD3Ygwvu9BfmvMnC42BfoYsNc9dtV4+MSsa8DM
Q1VFvIQntXva5t25/cFsMYwl0JfqMrVGiAL+czZ+SHVREPkGo35Z5DQqTbQhm6v9
r+EztAggG/RhZdaIjnDUvSo09hhjVv2HEgoRBuBnUoFQDHeEnhpQxfcmechCpVg/
0vYv2Vu2pszotzAdpFYN20PrQhM5JzD+qgybCn7v7sx61t9O6QO9JmZSTWjOgCtI
4wIDAQABo4IBYzCCAV8wCQYDVR0TBAIwADAtBglghkgBhvhCAQ0EIBYeRWFzeS1S
U0EgR2VuZXJhdGVkIENlcnRpZmljYXRlMB0GA1UdDgQWBBQN+2MZ7dQriw54TBqT
gd5zdnmoDDCB4QYDVR0jBIHZMIHWgBQSzWAE0qCAnnDtxpm4eyzGUv0ZoaGBsqSB
rzCBrDELMAkGA1UEBhMCVVMxCzAJBgNVBAgTAk9IMREwDwYDVQQHEwhDb2x1bWJ1
czESMBAGA1UEChMJVmlraW5nVlBOMR0wGwYDVQQLExRNeU9yZ2FuaXphdGlvbmFs
VW5pdDEVMBMGA1UEAxMMVmlraW5nVlBOIENBMRAwDgYDVQQpEwdFYXN5UlNBMSEw
HwYJKoZIhvcNAQkBFhJtZUBteWhvc3QubXlkb21haW6CCQDPNYXugL8qPjATBgNV
HSUEDDAKBggrBgEFBQcDAjALBgNVHQ8EBAMCB4AwDQYJKoZIhvcNAQEEBQADggIB
AGK28DAE78uYEug7Ty4DvQK+oZ7iimlTB7U4p5b/ihmX12hKF5H+aaBS1duReAsZ
qT4b5Rh1VyVDmvMX+4jTQygjFktZZQXar3w/4q+by5Rl3fHuB+z0TQDJ8wQb8Ptm
rp03zezJ2dfrWrH/JCurhTIrmxgCwjJKqk1eb5BxoPvE8deAcX+yOaihkcXSKK9p
Fg4ho8DBKsazAwbSt85uOQMbgxqM/j329O7uatL1z4FyqWuCv6ofxQF8nX7aVv50
ZSvtkhTbZsVuFoXSS08xbBT8wQZWlrwrZAcrc03ODhCUxuvDuzZL5b3aN3FHVoe5
FxpKgQ9hGLL2hQeONjYJYTFkDBCptbX384VzKP/o5aMDQrvwERqBkNHUjm6pQEb2
TtJ0v+QfTGn8xgXBRho1Ox9dvdeOrOX4c4NIfh1NgJoX2kFkexL9RMoeXPDfKSKw
ABdx5WMOtzgSKe9jlob9bE7H8M651Qie5gqeoq7ayfAgGOaJU67AbceakuH7DCLr
ubzl+mKeeJnwtP+YaZv9xUWHG4nxr61YtezzP1+7qZrsxeRug9fexpyI4u8kfnkL
wK9AtMZIu9BuzKZUfXDi9EABG+yZkfqpslcaR+b5DxACv8Uj17u2dRlJ89IXh4M/
dcr5qVmwq45bho/dRjk3nHIReQOuVo6eAiqpKJd3n+j2
-----END CERTIFICATE-----
