Certificate:
    Data:
        Version: 3 (0x2)
        Serial Number: 3364 (0xd24)
    Signature Algorithm: md5WithRSAEncryption
        Issuer: C=US, ST=OH, L=Columbus, O=VikingVPN, OU=MyOrganizationalUnit, CN=VikingVPN CA/name=EasyRSA/emailAddress=me@myhost.mydomain
        Validity
            Not Before: Nov 12 00:05:49 2014 GMT
            Not After : Nov  9 00:05:49 2024 GMT
        Subject: CN=Client889Certee80ff
        Subject Public Key Info:
            Public Key Algorithm: rsaEncryption
                Public-Key: (4096 bit)
                Modulus:
                    00:e3:18:4e:0e:d6:65:61:c6:5d:98:19:c3:58:17:
                    a0:06:f1:c9:b1:0a:25:70:1c:8b:f2:68:52:1a:8a:
                    56:65:cc:2d:bf:8a:e2:4e:50:71:9a:48:32:c4:e1:
                    9d:39:cc:ee:e6:2b:35:46:5b:90:1a:64:4f:76:a0:
                    3f:37:25:76:00:61:20:5e:ed:6c:71:0a:72:95:c5:
                    fb:f9:6d:ad:fc:ce:5e:59:70:96:38:18:15:b1:3b:
                    4a:b9:0b:2c:eb:b3:b9:19:95:29:2a:3b:67:1f:3c:
                    ec:6a:bd:a5:7b:bd:16:22:a4:e8:96:5c:ab:61:c4:
                    dc:dc:5d:2c:3a:17:d1:96:a1:a2:50:7f:f2:7a:b8:
                    65:68:ce:5e:24:d1:a2:4c:6f:8d:51:4c:da:2a:e3:
                    b3:4c:00:72:e0:90:8d:d9:cd:37:2b:ce:e8:a4:68:
                    18:39:1b:26:bc:d1:fa:8b:f7:ed:40:68:84:62:d9:
                    af:9f:64:4b:db:78:88:8e:76:c6:37:e5:ad:3b:5b:
                    f5:0c:ba:cc:9d:7d:5e:dd:a1:13:40:31:01:4c:4a:
                    8f:36:5d:5e:00:9d:eb:6a:f9:59:66:62:62:33:20:
                    11:06:fd:19:56:90:f0:4b:4a:27:29:c2:ce:85:01:
                    57:45:ac:d5:88:e2:61:80:c1:ca:4d:4f:fb:df:34:
                    ef:e6:db:18:45:06:f4:57:af:30:1b:88:c9:25:4a:
                    97:c7:c1:3a:a5:0c:36:d1:1d:7a:85:a8:97:c6:4c:
                    42:16:45:e2:ba:65:d1:74:76:b3:33:1d:93:b8:5a:
                    3e:2e:09:dc:80:3f:3b:b3:fb:c2:ac:3f:24:aa:45:
                    f4:14:f3:41:64:b2:c3:6c:1b:dd:cf:e3:26:5c:4d:
                    31:3d:2d:12:61:71:33:f8:d3:b6:1f:da:ac:15:5e:
                    85:ef:67:ba:a3:b5:77:ce:f9:e4:68:87:81:48:6a:
                    74:91:09:63:0e:b3:74:5e:a9:1f:95:c2:41:33:22:
                    a2:90:a9:de:2d:38:58:8b:08:a9:de:c8:c1:b2:35:
                    80:c1:68:e4:14:c1:3c:e8:51:a3:fa:46:9f:e7:05:
                    ca:69:2b:c9:e5:3a:4a:aa:9a:dd:da:3f:e3:8d:6c:
                    7a:40:f1:a5:af:dc:88:e5:64:27:4e:88:f0:e3:cf:
                    e7:a5:ab:ed:4c:e1:0f:29:62:60:89:a4:bc:f5:c7:
                    0e:c9:78:24:2f:76:09:04:4c:e0:c8:fc:32:ec:fc:
                    3a:b7:0c:bf:93:db:a8:1b:03:a8:88:bf:f7:4f:3a:
                    da:9e:b9:4d:2b:bb:d9:0a:0d:5d:66:6a:58:7b:4c:
                    98:a6:d9:40:3e:03:ba:87:10:eb:82:a1:17:8f:0b:
                    f9:90:3f
                Exponent: 65537 (0x10001)
        X509v3 extensions:
            X509v3 Basic Constraints: 
                CA:FALSE
            Netscape Comment: 
                Easy-RSA Generated Certificate
            X509v3 Subject Key Identifier: 
                B1:89:E1:98:AF:EA:EB:DC:0E:DC:D9:17:3C:3D:90:67:7A:38:A3:7E
            X509v3 Authority Key Identifier: 
                keyid:12:CD:60:04:D2:A0:80:9E:70:ED:C6:99:B8:7B:2C:C6:52:FD:19:A1
                DirName:/C=US/ST=OH/L=Columbus/O=VikingVPN/OU=MyOrganizationalUnit/CN=VikingVPN CA/name=EasyRSA/emailAddress=me@myhost.mydomain
                serial:CF:35:85:EE:80:BF:2A:3E

            X509v3 Extended Key Usage: 
                TLS Web Client Authentication
            X509v3 Key Usage: 
                Digital Signature
    Signature Algorithm: md5WithRSAEncryption
         e1:71:bc:c1:bb:60:2b:5e:af:47:5d:c0:57:3c:8d:ba:67:61:
         a6:f6:07:a2:c2:ce:ec:6a:c6:27:87:f9:4f:ef:87:a9:23:6e:
         48:df:75:bd:70:cb:be:c1:c7:c3:59:d7:fb:ea:88:76:e4:d8:
         9a:15:75:f2:ae:93:0c:8c:71:98:31:75:c6:a9:8a:5c:52:4a:
         3b:4e:ca:3c:be:c7:28:e8:29:d7:f3:cb:3d:2d:da:3a:1f:18:
         0f:ae:cb:7e:43:8b:fe:fe:98:8e:33:2f:73:f3:91:1a:4a:93:
         2d:eb:a3:95:aa:4c:14:0b:e4:c4:5d:2f:83:16:38:86:7e:5c:
         b5:8e:4e:6a:90:df:da:ca:ca:df:2c:16:98:57:b4:95:88:81:
         95:5e:e5:d1:c4:c9:42:e9:fe:21:76:58:24:7b:79:f6:ad:30:
         19:e6:42:0b:c9:a4:0c:9f:25:ae:65:25:78:b9:4e:c2:5d:21:
         90:5f:0d:30:68:96:c5:b6:80:01:d4:75:f9:9d:e3:3e:cc:fb:
         3c:70:77:d4:97:40:37:1e:93:c2:40:3a:d6:aa:db:83:b8:e6:
         40:6d:a6:ab:92:8c:f9:e1:84:cc:96:9b:b4:79:b5:c9:5a:10:
         87:5e:45:69:04:18:21:ec:e6:b1:8f:4a:84:38:e7:69:52:8e:
         e3:ef:c7:4c:06:0d:a5:95:9a:10:39:c3:62:14:30:f7:ab:a3:
         42:16:14:c9:19:f1:64:1f:aa:f6:e3:1c:d5:a1:8f:34:02:80:
         e9:03:3e:2a:9f:e5:56:ae:a6:42:a5:f5:80:da:e3:eb:57:08:
         47:bd:53:9c:79:4c:7d:d4:7c:53:79:33:98:2d:08:03:22:a0:
         68:6d:84:93:19:8c:97:c5:74:cb:dc:9c:bd:53:d8:ef:f8:9d:
         7b:b0:f1:8c:98:3e:1e:32:2d:70:e9:a3:2c:7a:02:23:6c:f7:
         52:af:ac:8a:f5:2b:c4:a2:e7:22:00:46:91:f9:6a:e3:5d:93:
         15:ca:5a:a3:71:c6:d3:75:35:39:43:06:d5:95:0e:44:2f:20:
         03:fb:6d:cc:ec:08:eb:85:7a:58:0d:7d:81:59:24:ed:40:31:
         f5:bc:a6:3a:da:9e:85:e3:35:0b:3f:77:78:53:47:f3:29:8a:
         a3:0b:7c:76:f6:68:e1:f5:2e:dd:84:51:95:18:a0:d3:58:c1:
         ad:38:00:2e:8e:20:5a:e1:2f:bc:e6:8d:da:ed:28:b6:e4:10:
         21:ee:92:72:73:ef:13:ba:e5:6f:c7:da:af:25:17:cc:2e:e6:
         05:4d:7a:7f:8d:46:31:33:77:2d:3a:dd:e2:c2:79:1d:6f:9e:
         ca:b9:49:6b:b7:f5:04:e3
-----BEGIN CERTIFICATE-----
MIIGrDCCBJSgAwIBAgICDSQwDQYJKoZIhvcNAQEEBQAwgawxCzAJBgNVBAYTAlVT
MQswCQYDVQQIEwJPSDERMA8GA1UEBxMIQ29sdW1idXMxEjAQBgNVBAoTCVZpa2lu
Z1ZQTjEdMBsGA1UECxMUTXlPcmdhbml6YXRpb25hbFVuaXQxFTATBgNVBAMTDFZp
a2luZ1ZQTiBDQTEQMA4GA1UEKRMHRWFzeVJTQTEhMB8GCSqGSIb3DQEJARYSbWVA
bXlob3N0Lm15ZG9tYWluMB4XDTE0MTExMjAwMDU0OVoXDTI0MTEwOTAwMDU0OVow
HjEcMBoGA1UEAxMTQ2xpZW50ODg5Q2VydGVlODBmZjCCAiIwDQYJKoZIhvcNAQEB
BQADggIPADCCAgoCggIBAOMYTg7WZWHGXZgZw1gXoAbxybEKJXAci/JoUhqKVmXM
Lb+K4k5QcZpIMsThnTnM7uYrNUZbkBpkT3agPzcldgBhIF7tbHEKcpXF+/ltrfzO
XllwljgYFbE7SrkLLOuzuRmVKSo7Zx887Gq9pXu9FiKk6JZcq2HE3NxdLDoX0Zah
olB/8nq4ZWjOXiTRokxvjVFM2irjs0wAcuCQjdnNNyvO6KRoGDkbJrzR+ov37UBo
hGLZr59kS9t4iI52xjflrTtb9Qy6zJ19Xt2hE0AxAUxKjzZdXgCd62r5WWZiYjMg
EQb9GVaQ8EtKJynCzoUBV0Ws1YjiYYDByk1P+9807+bbGEUG9FevMBuIySVKl8fB
OqUMNtEdeoWol8ZMQhZF4rpl0XR2szMdk7haPi4J3IA/O7P7wqw/JKpF9BTzQWSy
w2wb3c/jJlxNMT0tEmFxM/jTth/arBVehe9nuqO1d8755GiHgUhqdJEJYw6zdF6p
H5XCQTMiopCp3i04WIsIqd7IwbI1gMFo5BTBPOhRo/pGn+cFymkryeU6Sqqa3do/
441sekDxpa/ciOVkJ06I8OPP56Wr7UzhDyliYImkvPXHDsl4JC92CQRM4Mj8Muz8
OrcMv5PbqBsDqIi/90862p65TSu72QoNXWZqWHtMmKbZQD4DuocQ64KhF48L+ZA/
AgMBAAGjggFjMIIBXzAJBgNVHRMEAjAAMC0GCWCGSAGG+EIBDQQgFh5FYXN5LVJT
QSBHZW5lcmF0ZWQgQ2VydGlmaWNhdGUwHQYDVR0OBBYEFLGJ4Ziv6uvcDtzZFzw9
kGd6OKN+MIHhBgNVHSMEgdkwgdaAFBLNYATSoICecO3Gmbh7LMZS/RmhoYGypIGv
MIGsMQswCQYDVQQGEwJVUzELMAkGA1UECBMCT0gxETAPBgNVBAcTCENvbHVtYnVz
MRIwEAYDVQQKEwlWaWtpbmdWUE4xHTAbBgNVBAsTFE15T3JnYW5pemF0aW9uYWxV
bml0MRUwEwYDVQQDEwxWaWtpbmdWUE4gQ0ExEDAOBgNVBCkTB0Vhc3lSU0ExITAf
BgkqhkiG9w0BCQEWEm1lQG15aG9zdC5teWRvbWFpboIJAM81he6Avyo+MBMGA1Ud
JQQMMAoGCCsGAQUFBwMCMAsGA1UdDwQEAwIHgDANBgkqhkiG9w0BAQQFAAOCAgEA
4XG8wbtgK16vR13AVzyNumdhpvYHosLO7GrGJ4f5T++HqSNuSN91vXDLvsHHw1nX
++qIduTYmhV18q6TDIxxmDF1xqmKXFJKO07KPL7HKOgp1/PLPS3aOh8YD67LfkOL
/v6YjjMvc/ORGkqTLeujlapMFAvkxF0vgxY4hn5ctY5OapDf2srK3ywWmFe0lYiB
lV7l0cTJQun+IXZYJHt59q0wGeZCC8mkDJ8lrmUleLlOwl0hkF8NMGiWxbaAAdR1
+Z3jPsz7PHB31JdANx6TwkA61qrbg7jmQG2mq5KM+eGEzJabtHm1yVoQh15FaQQY
IezmsY9KhDjnaVKO4+/HTAYNpZWaEDnDYhQw96ujQhYUyRnxZB+q9uMc1aGPNAKA
6QM+Kp/lVq6mQqX1gNrj61cIR71TnHlMfdR8U3kzmC0IAyKgaG2EkxmMl8V0y9yc
vVPY7/ide7DxjJg+HjItcOmjLHoCI2z3Uq+sivUrxKLnIgBGkflq412TFcpao3HG
03U1OUMG1ZUORC8gA/ttzOwI64V6WA19gVkk7UAx9bymOtqeheM1Cz93eFNH8ymK
owt8dvZo4fUu3YRRlRig01jBrTgALo4gWuEvvOaN2u0otuQQIe6ScnPvE7rlb8fa
ryUXzC7mBU16f41GMTN3LTrd4sJ5HW+eyrlJa7f1BOM=
-----END CERTIFICATE-----
