Certificate:
    Data:
        Version: 3 (0x2)
        Serial Number: 3410 (0xd52)
    Signature Algorithm: md5WithRSAEncryption
        Issuer: C=US, ST=OH, L=Columbus, O=VikingVPN, OU=MyOrganizationalUnit, CN=VikingVPN CA/name=EasyRSA/emailAddress=me@myhost.mydomain
        Validity
            Not Before: Nov 16 10:39:26 2014 GMT
            Not After : Nov 13 10:39:26 2024 GMT
        Subject: CN=Client1134Cert61fd02
        Subject Public Key Info:
            Public Key Algorithm: rsaEncryption
                Public-Key: (4096 bit)
                Modulus:
                    00:b8:cb:ea:79:91:65:a5:4b:74:a6:5b:a5:3d:26:
                    86:23:47:d8:01:ab:cb:39:23:8e:db:9e:3e:8d:b3:
                    50:d9:22:89:dc:c7:05:a4:7a:b5:95:be:25:8a:af:
                    b0:1b:0a:26:95:16:76:ac:47:67:e8:e1:0b:ff:f7:
                    f5:cf:8b:aa:ed:42:61:e7:16:ab:f4:cf:c9:82:48:
                    0f:9d:8e:cd:83:1a:3a:c7:bc:af:2a:ad:56:6f:c6:
                    ed:56:de:27:9c:fe:7b:a0:32:4e:7f:8a:33:b5:39:
                    cf:f0:19:02:7b:6f:b5:6e:aa:ad:6f:55:cf:8c:82:
                    cc:2a:cb:e7:c7:d2:e2:bc:5d:18:d1:bf:14:3f:5d:
                    e1:c5:e8:a8:5e:a4:00:9d:6b:bf:df:a8:f0:c0:9e:
                    5d:aa:48:93:7b:4d:84:3e:85:ab:12:49:e6:a5:d1:
                    af:8e:60:0a:34:4b:7a:57:2a:10:b8:59:89:58:c9:
                    51:78:ee:3f:77:e4:b8:f3:e0:ac:d3:b1:22:88:65:
                    27:38:a4:15:9f:c2:3d:e4:89:ef:14:06:fa:f3:a8:
                    c8:61:e0:9e:23:2e:b3:bb:05:a7:cc:9e:4a:79:9f:
                    9f:6a:ef:b2:73:1d:4c:fd:07:8a:7b:82:3d:2a:1c:
                    6b:e3:08:8c:32:3c:56:5a:e8:12:0f:bd:ba:9e:f1:
                    cf:2a:c8:b1:01:a7:3c:ba:01:a5:95:2e:c3:9f:49:
                    be:58:34:15:d6:f6:a8:1a:57:bb:fb:ef:d7:18:fb:
                    39:08:fe:dc:02:4b:92:94:cc:68:5e:57:da:f8:09:
                    24:ed:08:a6:c7:ac:d0:66:02:43:5f:18:9a:45:5b:
                    cf:5f:a3:ee:96:ed:f2:bc:bd:40:af:df:e8:53:2b:
                    9d:7a:ed:d9:13:f3:42:ab:9c:bd:80:5b:c2:06:6d:
                    ef:92:49:03:21:3a:33:af:e6:fc:31:9e:df:70:ab:
                    a3:c5:c2:ed:d4:41:98:a0:45:63:4f:3f:10:3a:3b:
                    15:17:92:1c:38:a5:de:6b:9d:ea:90:92:d6:ba:22:
                    fb:aa:80:52:76:e5:62:9a:86:29:d8:ca:27:d6:e2:
                    1c:f3:4b:f0:98:cf:04:05:34:e2:11:52:bf:a7:80:
                    2d:3c:1b:49:14:64:47:f5:6b:36:98:dc:5c:c5:e6:
                    8e:2f:09:4c:7d:2d:6a:88:14:40:4e:ec:ad:34:f7:
                    e9:ce:6a:8c:8f:8a:a4:15:fa:4c:55:40:80:5c:63:
                    9e:f0:aa:a7:3e:45:ee:95:bf:8f:9b:62:2f:d8:a5:
                    19:42:d4:3e:3b:71:62:fa:df:f8:57:45:34:f6:e1:
                    59:66:cf:77:62:2b:bb:42:cc:f1:6f:5a:32:6f:60:
                    22:2f:37
                Exponent: 65537 (0x10001)
        X509v3 extensions:
            X509v3 Basic Constraints: 
                CA:FALSE
            Netscape Comment: 
                Easy-RSA Generated Certificate
            X509v3 Subject Key Identifier: 
                FC:90:62:78:A5:F6:CE:6E:D7:B7:C9:55:21:86:8B:13:BC:9C:93:65
            X509v3 Authority Key Identifier: 
                keyid:12:CD:60:04:D2:A0:80:9E:70:ED:C6:99:B8:7B:2C:C6:52:FD:19:A1
                DirName:/C=US/ST=OH/L=Columbus/O=VikingVPN/OU=MyOrganizationalUnit/CN=VikingVPN CA/name=EasyRSA/emailAddress=me@myhost.mydomain
                serial:CF:35:85:EE:80:BF:2A:3E

            X509v3 Extended Key Usage: 
                TLS Web Client Authentication
            X509v3 Key Usage: 
                Digital Signature
    Signature Algorithm: md5WithRSAEncryption
         a6:e6:00:2f:56:55:ba:19:9a:38:18:9d:39:eb:32:7b:f2:c1:
         d1:cb:93:0b:07:bf:1a:77:49:7c:bf:f0:69:a5:40:41:fb:27:
         d6:15:f9:90:46:ea:07:5e:c8:e2:26:db:45:8b:45:e8:6e:1f:
         3c:ca:3a:aa:c8:ce:cd:b8:41:c4:5d:7b:c6:0e:a3:60:a6:8d:
         f0:71:24:fc:ce:a6:7c:27:be:7d:19:79:ff:22:b3:1e:dc:51:
         09:48:ff:09:7c:10:1a:fc:cc:2a:b5:89:72:23:44:2c:bd:1a:
         1c:43:a4:7e:c3:34:c7:23:b8:19:da:42:a2:0c:28:01:f9:87:
         d2:05:64:57:0b:65:08:18:18:8d:0f:57:c0:0b:22:12:11:21:
         00:15:e9:01:49:f2:06:80:7c:3b:85:7d:e1:17:f3:fb:f2:3e:
         58:1c:a4:62:c0:d2:d0:32:30:3e:c5:cc:7a:78:12:dd:de:75:
         70:be:e2:ed:bd:57:5e:d3:41:fb:4d:29:6d:8c:dd:f2:a4:c4:
         58:c0:90:1d:ac:09:16:b2:a2:db:41:bc:4c:bb:25:44:fa:ac:
         93:2e:f5:10:ca:6a:17:f3:fb:2a:84:98:cf:b6:bf:78:6f:c7:
         53:0c:d0:e5:8a:ca:3a:1f:c7:40:17:5c:8e:17:68:49:f8:7a:
         8e:8f:b6:dd:47:b3:ba:6d:97:bf:3a:15:4d:54:f1:06:ac:b9:
         84:44:5f:bc:f7:bd:49:d2:96:68:4e:8f:4b:33:83:e7:c5:7f:
         52:0a:f3:dd:87:57:9e:09:41:5d:06:9e:ca:1d:71:b3:6a:e2:
         20:87:1e:9c:64:d6:0e:f5:0e:0c:4c:7b:06:34:8d:20:93:92:
         87:d4:25:e0:a3:df:bd:95:eb:9d:2d:9c:24:fd:57:86:12:53:
         1a:67:a5:46:ed:88:e0:a4:d8:1a:d8:bd:8f:ed:1d:4f:3a:76:
         3d:0e:03:d7:a5:5d:74:80:42:34:a3:a7:75:6c:09:22:e5:c3:
         50:57:09:2a:49:5b:e2:d7:37:68:e7:14:1e:f9:ce:dd:58:67:
         be:5a:42:13:fd:9a:a5:11:6b:ea:5f:41:c6:95:fe:aa:b3:fa:
         a4:49:cf:36:b2:97:f9:10:09:dd:a8:e6:47:53:67:50:4a:53:
         8d:1e:15:49:93:15:b9:c7:41:ff:80:96:99:11:82:37:7d:ea:
         54:db:1e:9d:69:6c:e5:78:f6:21:06:ff:20:bf:e3:26:63:b9:
         c6:33:16:ff:b2:2b:0b:b4:d1:aa:4f:39:59:49:77:f0:c0:1d:
         df:b0:15:82:db:ed:18:38:47:5e:30:a6:6d:5e:f0:10:a7:3c:
         37:ab:3c:6b:bf:c1:f9:f0
-----BEGIN CERTIFICATE-----
MIIGrTCCBJWgAwIBAgICDVIwDQYJKoZIhvcNAQEEBQAwgawxCzAJBgNVBAYTAlVT
MQswCQYDVQQIEwJPSDERMA8GA1UEBxMIQ29sdW1idXMxEjAQBgNVBAoTCVZpa2lu
Z1ZQTjEdMBsGA1UECxMUTXlPcmdhbml6YXRpb25hbFVuaXQxFTATBgNVBAMTDFZp
a2luZ1ZQTiBDQTEQMA4GA1UEKRMHRWFzeVJTQTEhMB8GCSqGSIb3DQEJARYSbWVA
bXlob3N0Lm15ZG9tYWluMB4XDTE0MTExNjEwMzkyNloXDTI0MTExMzEwMzkyNlow
HzEdMBsGA1UEAxMUQ2xpZW50MTEzNENlcnQ2MWZkMDIwggIiMA0GCSqGSIb3DQEB
AQUAA4ICDwAwggIKAoICAQC4y+p5kWWlS3SmW6U9JoYjR9gBq8s5I47bnj6Ns1DZ
IoncxwWkerWVviWKr7AbCiaVFnasR2fo4Qv/9/XPi6rtQmHnFqv0z8mCSA+djs2D
GjrHvK8qrVZvxu1W3iec/nugMk5/ijO1Oc/wGQJ7b7Vuqq1vVc+Mgswqy+fH0uK8
XRjRvxQ/XeHF6KhepACda7/fqPDAnl2qSJN7TYQ+hasSSeal0a+OYAo0S3pXKhC4
WYlYyVF47j935Ljz4KzTsSKIZSc4pBWfwj3kie8UBvrzqMhh4J4jLrO7BafMnkp5
n59q77JzHUz9B4p7gj0qHGvjCIwyPFZa6BIPvbqe8c8qyLEBpzy6AaWVLsOfSb5Y
NBXW9qgaV7v779cY+zkI/twCS5KUzGheV9r4CSTtCKbHrNBmAkNfGJpFW89fo+6W
7fK8vUCv3+hTK5167dkT80KrnL2AW8IGbe+SSQMhOjOv5vwxnt9wq6PFwu3UQZig
RWNPPxA6OxUXkhw4pd5rneqQkta6IvuqgFJ25WKahinYyifW4hzzS/CYzwQFNOIR
Ur+ngC08G0kUZEf1azaY3FzF5o4vCUx9LWqIFEBO7K009+nOaoyPiqQV+kxVQIBc
Y57wqqc+Re6Vv4+bYi/YpRlC1D47cWL63/hXRTT24Vlmz3diK7tCzPFvWjJvYCIv
NwIDAQABo4IBYzCCAV8wCQYDVR0TBAIwADAtBglghkgBhvhCAQ0EIBYeRWFzeS1S
U0EgR2VuZXJhdGVkIENlcnRpZmljYXRlMB0GA1UdDgQWBBT8kGJ4pfbObte3yVUh
hosTvJyTZTCB4QYDVR0jBIHZMIHWgBQSzWAE0qCAnnDtxpm4eyzGUv0ZoaGBsqSB
rzCBrDELMAkGA1UEBhMCVVMxCzAJBgNVBAgTAk9IMREwDwYDVQQHEwhDb2x1bWJ1
czESMBAGA1UEChMJVmlraW5nVlBOMR0wGwYDVQQLExRNeU9yZ2FuaXphdGlvbmFs
VW5pdDEVMBMGA1UEAxMMVmlraW5nVlBOIENBMRAwDgYDVQQpEwdFYXN5UlNBMSEw
HwYJKoZIhvcNAQkBFhJtZUBteWhvc3QubXlkb21haW6CCQDPNYXugL8qPjATBgNV
HSUEDDAKBggrBgEFBQcDAjALBgNVHQ8EBAMCB4AwDQYJKoZIhvcNAQEEBQADggIB
AKbmAC9WVboZmjgYnTnrMnvywdHLkwsHvxp3SXy/8GmlQEH7J9YV+ZBG6gdeyOIm
20WLRehuHzzKOqrIzs24QcRde8YOo2CmjfBxJPzOpnwnvn0Zef8isx7cUQlI/wl8
EBr8zCq1iXIjRCy9GhxDpH7DNMcjuBnaQqIMKAH5h9IFZFcLZQgYGI0PV8ALIhIR
IQAV6QFJ8gaAfDuFfeEX8/vyPlgcpGLA0tAyMD7FzHp4Et3edXC+4u29V17TQftN
KW2M3fKkxFjAkB2sCRayottBvEy7JUT6rJMu9RDKahfz+yqEmM+2v3hvx1MM0OWK
yjofx0AXXI4XaEn4eo6Ptt1Hs7ptl786FU1U8QasuYREX7z3vUnSlmhOj0szg+fF
f1IK892HV54JQV0GnsodcbNq4iCHHpxk1g71DgxMewY0jSCTkofUJeCj372V650t
nCT9V4YSUxpnpUbtiOCk2BrYvY/tHU86dj0OA9elXXSAQjSjp3VsCSLlw1BXCSpJ
W+LXN2jnFB75zt1YZ75aQhP9mqURa+pfQcaV/qqz+qRJzzayl/kQCd2o5kdTZ1BK
U40eFUmTFbnHQf+AlpkRgjd96lTbHp1pbOV49iEG/yC/4yZjucYzFv+yKwu00apP
OVlJd/DAHd+wFYLb7Rg4R14wpm1e8BCnPDerPGu/wfnw
-----END CERTIFICATE-----
