Certificate:
    Data:
        Version: 3 (0x2)
        Serial Number: 3419 (0xd5b)
    Signature Algorithm: md5WithRSAEncryption
        Issuer: C=US, ST=OH, L=Columbus, O=VikingVPN, OU=MyOrganizationalUnit, CN=VikingVPN CA/name=EasyRSA/emailAddress=me@myhost.mydomain
        Validity
            Not Before: Nov 17 10:42:19 2014 GMT
            Not After : Nov 14 10:42:19 2024 GMT
        Subject: CN=Client1175Certe6df00
        Subject Public Key Info:
            Public Key Algorithm: rsaEncryption
                Public-Key: (4096 bit)
                Modulus:
                    00:ce:1e:11:63:b0:60:29:d5:f3:df:e1:6c:11:34:
                    f3:f4:5f:a9:02:b6:31:1a:03:84:08:0a:8e:ea:a2:
                    4d:bf:05:71:6b:4a:2c:07:65:f6:97:63:ee:0a:d7:
                    30:a4:57:db:1c:73:c3:9a:d7:a8:ba:e5:ee:57:ec:
                    46:da:22:45:36:64:b4:ac:79:8c:e7:8c:6a:8d:e3:
                    86:7c:62:11:0d:f1:3e:7b:2e:0c:22:12:51:95:59:
                    3c:ee:ae:20:f3:cb:38:3d:25:e7:5e:26:fe:c6:56:
                    c6:bb:1f:4d:3b:f8:0a:1f:03:83:9b:9b:0c:a1:28:
                    e3:14:2e:b0:af:bb:3c:ed:6c:70:46:76:f3:bc:57:
                    4f:22:82:b1:66:a5:11:a8:ac:47:87:04:a1:0a:a2:
                    8c:d0:19:dc:2f:38:2d:a8:cc:8b:df:86:8b:37:47:
                    53:d3:b0:dc:d1:fe:5e:b4:e0:2d:54:e2:48:1d:10:
                    7e:a4:5b:69:5f:94:44:13:e3:9f:83:78:bc:9f:4e:
                    0a:d0:4c:9a:81:84:fe:a7:92:cf:60:c4:76:03:18:
                    b4:90:86:d4:66:8c:7f:94:fd:c9:5b:06:87:30:6c:
                    1a:7f:68:03:22:68:68:55:8e:b2:71:7f:a0:eb:9d:
                    1f:6f:32:52:5c:19:ab:52:15:76:16:99:2d:3e:93:
                    7a:1f:f5:d5:a3:a1:73:6b:81:82:d0:74:a7:e0:71:
                    58:c9:12:b0:a5:3e:3e:55:7c:18:6d:c4:6e:cc:75:
                    47:03:de:b8:69:82:b0:a6:50:46:16:8f:45:fd:42:
                    fc:25:6e:93:2a:ac:b6:88:13:7d:57:ef:c7:9a:f2:
                    6c:cd:2a:92:d3:ba:64:5f:ce:9b:f4:1e:03:77:7e:
                    87:cd:25:34:a6:ab:ef:16:8b:37:60:26:a6:49:42:
                    6e:56:f1:d5:9f:13:d9:a2:c7:07:ea:99:f9:96:52:
                    b6:38:0a:12:88:24:b5:60:47:34:85:4a:c4:1f:55:
                    ef:79:9d:a6:43:54:b0:4c:9f:8f:be:27:84:9d:2c:
                    6c:2d:77:91:f9:fd:db:f4:dd:df:4c:92:e7:4b:10:
                    78:7a:5a:f2:cb:75:07:01:8a:49:6a:a4:99:4a:6f:
                    c7:f1:d9:5a:89:b7:20:aa:78:e6:59:16:0f:6d:92:
                    15:ac:fe:9f:ac:85:e3:70:5b:73:2b:63:b8:22:87:
                    b8:48:68:b8:3a:28:86:ab:3e:d8:f1:29:f1:93:1e:
                    a4:4e:a4:17:da:df:c2:db:a5:13:1f:dc:05:b5:66:
                    74:c5:c3:39:37:83:2c:6a:17:e0:91:a3:f9:e2:81:
                    1b:f6:ed:c0:5a:cd:24:05:db:f4:76:3d:07:c4:4a:
                    ad:5b:f5
                Exponent: 65537 (0x10001)
        X509v3 extensions:
            X509v3 Basic Constraints: 
                CA:FALSE
            Netscape Comment: 
                Easy-RSA Generated Certificate
            X509v3 Subject Key Identifier: 
                06:20:16:71:1B:7A:2E:53:A4:17:56:77:F7:F6:44:BC:7A:B0:EE:AA
            X509v3 Authority Key Identifier: 
                keyid:12:CD:60:04:D2:A0:80:9E:70:ED:C6:99:B8:7B:2C:C6:52:FD:19:A1
                DirName:/C=US/ST=OH/L=Columbus/O=VikingVPN/OU=MyOrganizationalUnit/CN=VikingVPN CA/name=EasyRSA/emailAddress=me@myhost.mydomain
                serial:CF:35:85:EE:80:BF:2A:3E

            X509v3 Extended Key Usage: 
                TLS Web Client Authentication
            X509v3 Key Usage: 
                Digital Signature
    Signature Algorithm: md5WithRSAEncryption
         bd:29:33:00:7c:96:f4:8c:24:4c:91:8e:9f:76:4d:36:a1:1c:
         de:7e:7b:a3:8e:ea:c8:6e:fc:cd:ad:30:af:01:a6:98:d3:df:
         6f:07:4b:55:f3:90:22:43:14:48:b4:3c:7f:0a:f1:bc:e7:2a:
         14:be:b3:bc:0e:cb:20:a1:a4:90:96:fa:e8:8b:6f:5a:73:e2:
         19:a4:db:bc:1f:cb:ee:5b:66:da:94:b7:00:21:b6:76:ad:98:
         aa:cd:7f:bb:46:32:9f:97:73:29:53:c6:e0:3b:ea:6e:92:60:
         40:93:5a:2b:61:c3:17:d4:05:da:15:56:b2:4f:d6:37:68:66:
         34:05:c9:c0:69:b2:9f:be:08:95:1f:87:62:22:89:c7:93:ed:
         02:c0:78:2c:a6:d6:12:39:e6:95:5b:bc:ec:bc:c5:7e:56:4b:
         ec:e9:f0:88:3f:14:63:57:66:0e:ca:d6:48:d1:ed:d9:ea:1c:
         95:23:f0:e6:75:11:9f:c2:d4:3a:01:c9:2d:20:3a:de:69:30:
         43:e7:e8:c0:d3:e7:e5:d3:1b:88:b4:cb:6b:a7:48:bf:69:1a:
         85:80:f0:e0:46:81:c7:16:d6:9b:96:96:0e:81:55:87:30:f6:
         21:ae:f8:88:54:13:6e:89:8e:2f:08:1c:4b:af:ab:94:4d:bb:
         06:96:71:28:b4:33:c4:59:57:ee:4d:8d:df:2c:08:42:4a:01:
         1e:8b:ee:26:93:85:6b:11:d5:b5:3b:79:19:59:b2:5d:f7:07:
         54:dc:87:58:ca:10:aa:33:c9:4d:3e:c0:a6:e4:b5:9c:2c:1e:
         fe:36:61:c6:d1:e5:11:46:f3:8d:29:1f:d3:2e:00:e3:b2:13:
         51:6f:56:87:81:36:f1:24:bb:94:db:4e:b2:8c:fa:ba:7b:39:
         ba:0d:10:f6:df:9c:32:5b:93:f2:90:86:7b:05:f5:68:54:1a:
         c6:dc:bf:14:4d:c0:e3:83:d1:31:ea:34:b4:1e:3c:92:52:7d:
         49:d1:67:4e:f5:28:38:1b:9f:48:d2:32:36:67:6f:5f:65:86:
         68:19:32:3d:ec:94:8f:8c:39:11:e7:ea:e2:1b:dd:64:9a:12:
         9f:da:91:cd:2c:29:63:3a:d0:fe:18:80:a6:54:86:05:77:a0:
         1d:3e:e7:e9:47:14:80:be:b8:9a:02:dc:f1:63:35:48:6b:57:
         2f:89:ea:0b:32:05:01:bc:83:79:9f:b2:5e:6a:a2:39:2b:ef:
         c1:b2:97:6d:ab:41:35:29:39:c0:c2:89:90:64:c2:d7:13:77:
         14:64:00:a7:f7:05:93:d7:a4:a6:53:31:42:04:7f:da:5a:30:
         d8:31:f7:28:5f:3a:b6:d2
-----BEGIN CERTIFICATE-----
MIIGrTCCBJWgAwIBAgICDVswDQYJKoZIhvcNAQEEBQAwgawxCzAJBgNVBAYTAlVT
MQswCQYDVQQIEwJPSDERMA8GA1UEBxMIQ29sdW1idXMxEjAQBgNVBAoTCVZpa2lu
Z1ZQTjEdMBsGA1UECxMUTXlPcmdhbml6YXRpb25hbFVuaXQxFTATBgNVBAMTDFZp
a2luZ1ZQTiBDQTEQMA4GA1UEKRMHRWFzeVJTQTEhMB8GCSqGSIb3DQEJARYSbWVA
bXlob3N0Lm15ZG9tYWluMB4XDTE0MTExNzEwNDIxOVoXDTI0MTExNDEwNDIxOVow
HzEdMBsGA1UEAxMUQ2xpZW50MTE3NUNlcnRlNmRmMDAwggIiMA0GCSqGSIb3DQEB
AQUAA4ICDwAwggIKAoICAQDOHhFjsGAp1fPf4WwRNPP0X6kCtjEaA4QICo7qok2/
BXFrSiwHZfaXY+4K1zCkV9scc8Oa16i65e5X7EbaIkU2ZLSseYznjGqN44Z8YhEN
8T57LgwiElGVWTzuriDzyzg9JedeJv7GVsa7H007+AofA4ObmwyhKOMULrCvuzzt
bHBGdvO8V08igrFmpRGorEeHBKEKoozQGdwvOC2ozIvfhos3R1PTsNzR/l604C1U
4kgdEH6kW2lflEQT45+DeLyfTgrQTJqBhP6nks9gxHYDGLSQhtRmjH+U/clbBocw
bBp/aAMiaGhVjrJxf6DrnR9vMlJcGatSFXYWmS0+k3of9dWjoXNrgYLQdKfgcVjJ
ErClPj5VfBhtxG7MdUcD3rhpgrCmUEYWj0X9QvwlbpMqrLaIE31X78ea8mzNKpLT
umRfzpv0HgN3fofNJTSmq+8WizdgJqZJQm5W8dWfE9mixwfqmfmWUrY4ChKIJLVg
RzSFSsQfVe95naZDVLBMn4++J4SdLGwtd5H5/dv03d9MkudLEHh6WvLLdQcBiklq
pJlKb8fx2VqJtyCqeOZZFg9tkhWs/p+sheNwW3MrY7gih7hIaLg6KIarPtjxKfGT
HqROpBfa38LbpRMf3AW1ZnTFwzk3gyxqF+CRo/nigRv27cBazSQF2/R2PQfESq1b
9QIDAQABo4IBYzCCAV8wCQYDVR0TBAIwADAtBglghkgBhvhCAQ0EIBYeRWFzeS1S
U0EgR2VuZXJhdGVkIENlcnRpZmljYXRlMB0GA1UdDgQWBBQGIBZxG3ouU6QXVnf3
9kS8erDuqjCB4QYDVR0jBIHZMIHWgBQSzWAE0qCAnnDtxpm4eyzGUv0ZoaGBsqSB
rzCBrDELMAkGA1UEBhMCVVMxCzAJBgNVBAgTAk9IMREwDwYDVQQHEwhDb2x1bWJ1
czESMBAGA1UEChMJVmlraW5nVlBOMR0wGwYDVQQLExRNeU9yZ2FuaXphdGlvbmFs
VW5pdDEVMBMGA1UEAxMMVmlraW5nVlBOIENBMRAwDgYDVQQpEwdFYXN5UlNBMSEw
HwYJKoZIhvcNAQkBFhJtZUBteWhvc3QubXlkb21haW6CCQDPNYXugL8qPjATBgNV
HSUEDDAKBggrBgEFBQcDAjALBgNVHQ8EBAMCB4AwDQYJKoZIhvcNAQEEBQADggIB
AL0pMwB8lvSMJEyRjp92TTahHN5+e6OO6shu/M2tMK8BppjT328HS1XzkCJDFEi0
PH8K8bznKhS+s7wOyyChpJCW+uiLb1pz4hmk27wfy+5bZtqUtwAhtnatmKrNf7tG
Mp+XcylTxuA76m6SYECTWithwxfUBdoVVrJP1jdoZjQFycBpsp++CJUfh2IiiceT
7QLAeCym1hI55pVbvOy8xX5WS+zp8Ig/FGNXZg7K1kjR7dnqHJUj8OZ1EZ/C1DoB
yS0gOt5pMEPn6MDT5+XTG4i0y2unSL9pGoWA8OBGgccW1puWlg6BVYcw9iGu+IhU
E26Jji8IHEuvq5RNuwaWcSi0M8RZV+5Njd8sCEJKAR6L7iaThWsR1bU7eRlZsl33
B1Tch1jKEKozyU0+wKbktZwsHv42YcbR5RFG840pH9MuAOOyE1FvVoeBNvEku5Tb
TrKM+rp7OboNEPbfnDJbk/KQhnsF9WhUGsbcvxRNwOOD0THqNLQePJJSfUnRZ071
KDgbn0jSMjZnb19lhmgZMj3slI+MORHn6uIb3WSaEp/akc0sKWM60P4YgKZUhgV3
oB0+5+lHFIC+uJoC3PFjNUhrVy+J6gsyBQG8g3mfsl5qojkr78Gyl22rQTUpOcDC
iZBkwtcTdxRkAKf3BZPXpKZTMUIEf9paMNgx9yhfOrbS
-----END CERTIFICATE-----
