Certificate:
    Data:
        Version: 3 (0x2)
        Serial Number: 3425 (0xd61)
    Signature Algorithm: md5WithRSAEncryption
        Issuer: C=US, ST=OH, L=Columbus, O=VikingVPN, OU=MyOrganizationalUnit, CN=VikingVPN CA/name=EasyRSA/emailAddress=me@myhost.mydomain
        Validity
            Not Before: Nov 17 20:05:16 2014 GMT
            Not After : Nov 14 20:05:16 2024 GMT
        Subject: CN=Client1177Cert4d607a
        Subject Public Key Info:
            Public Key Algorithm: rsaEncryption
                Public-Key: (4096 bit)
                Modulus:
                    00:d8:dd:60:71:f4:9e:e5:c9:1c:6d:55:35:89:7d:
                    52:8a:a3:1a:9f:ee:a4:ad:f4:99:7f:5e:00:f0:6f:
                    1d:9b:6c:fb:d8:fa:19:a4:1b:8e:e6:38:72:9a:b9:
                    1b:45:cb:16:ec:46:75:f3:fd:f0:5b:c6:9d:82:b7:
                    14:4b:de:95:4c:3b:08:66:5a:56:a8:e4:57:0f:9b:
                    01:8c:63:81:99:41:59:9c:c0:88:18:a4:27:70:14:
                    3f:bf:9b:23:bc:63:af:f7:7d:2e:40:d9:2e:15:bd:
                    0a:a1:4d:a0:6d:07:63:3e:f5:6e:3f:0e:ac:a6:f4:
                    cf:36:60:c5:7b:fc:63:5f:1a:6e:2d:27:06:53:55:
                    dc:8b:cd:09:32:e3:ff:1f:26:0b:de:84:1f:4c:06:
                    c1:54:43:76:18:0f:92:55:f2:ae:da:46:15:e5:9a:
                    39:a2:f6:24:cf:ee:47:d0:a6:cc:17:27:c7:6e:c6:
                    30:83:f5:00:bc:14:05:f0:29:85:d2:16:03:52:c0:
                    e5:c0:90:07:31:93:10:dc:1b:3f:e7:01:b4:c4:65:
                    a8:9a:25:9a:52:88:21:5c:6d:58:64:32:2a:ed:3a:
                    c5:d9:c2:dc:f5:73:31:75:d5:dc:86:1a:a4:b5:f3:
                    c9:b6:2a:ec:b8:21:06:c0:be:b9:0f:22:12:98:f1:
                    7e:18:e8:77:21:e6:0e:e1:d3:61:5d:d0:03:3c:8e:
                    1c:81:59:7f:5c:a5:97:08:55:d0:09:71:54:85:a6:
                    f1:fe:85:4c:0c:8c:c5:fd:93:6b:f5:4c:73:4a:d8:
                    f6:6a:bc:cb:b6:8a:f8:bb:ed:c0:2d:62:da:d7:a8:
                    61:9f:01:45:1d:b7:cf:0f:5b:7a:c0:32:3c:63:7d:
                    a3:2b:72:c3:f9:7e:b7:02:8c:ae:80:98:4c:5d:1e:
                    26:c3:f5:8a:93:96:f2:f2:46:93:4d:7d:9f:8e:35:
                    c9:90:0f:69:bd:9d:b7:fd:64:13:ed:b5:fb:16:38:
                    86:09:23:1d:3b:f8:bd:7b:db:0c:ff:fd:7a:cc:b1:
                    e1:71:e2:19:3e:ee:a6:73:94:07:8b:18:8f:a0:2d:
                    6a:e9:30:40:4a:0d:f3:0e:4a:4c:7b:0c:d0:f3:75:
                    0d:9d:72:6a:5f:34:d7:e5:38:62:13:aa:97:dc:37:
                    0b:7d:a5:76:ae:b3:2c:8e:1a:4c:73:fa:fe:af:b2:
                    87:5c:fa:27:a4:1e:f9:9f:40:2b:80:d2:d1:46:b7:
                    fc:e8:90:c9:74:c5:5e:9d:c5:2a:4b:fa:41:2d:2c:
                    1d:d4:a0:fb:af:44:a8:bf:47:95:0a:f8:c6:d6:dc:
                    07:06:95:69:8e:66:1a:16:d4:d6:75:3e:cc:b3:c4:
                    93:24:d1
                Exponent: 65537 (0x10001)
        X509v3 extensions:
            X509v3 Basic Constraints: 
                CA:FALSE
            Netscape Comment: 
                Easy-RSA Generated Certificate
            X509v3 Subject Key Identifier: 
                5D:EA:89:FF:A3:34:AB:95:57:D6:E1:8A:6E:75:4C:90:48:6A:F4:2E
            X509v3 Authority Key Identifier: 
                keyid:12:CD:60:04:D2:A0:80:9E:70:ED:C6:99:B8:7B:2C:C6:52:FD:19:A1
                DirName:/C=US/ST=OH/L=Columbus/O=VikingVPN/OU=MyOrganizationalUnit/CN=VikingVPN CA/name=EasyRSA/emailAddress=me@myhost.mydomain
                serial:CF:35:85:EE:80:BF:2A:3E

            X509v3 Extended Key Usage: 
                TLS Web Client Authentication
            X509v3 Key Usage: 
                Digital Signature
    Signature Algorithm: md5WithRSAEncryption
         1a:ac:69:01:7b:71:1c:bb:51:7b:e6:e3:a3:ee:95:ad:15:5a:
         5a:75:71:ce:1d:86:50:43:05:4b:52:9c:50:61:72:c7:03:9e:
         ef:3d:d6:83:37:b3:2e:ad:e0:c7:8f:58:73:55:9d:e5:66:bd:
         d0:75:1f:2e:b1:3c:7e:a7:5c:b3:59:8d:12:86:6e:2a:eb:46:
         e3:bc:31:38:b6:5e:b2:46:c9:16:4b:a7:37:e1:2d:a7:18:c3:
         cd:63:d7:6e:c5:02:ab:2e:14:bf:66:79:43:28:37:03:f1:0b:
         e4:3f:7f:4c:e3:8c:a3:03:14:74:0c:0d:ec:14:7e:1c:94:3a:
         1b:15:be:24:66:f6:c1:89:bb:30:29:3b:cb:9b:9a:9f:01:83:
         25:9e:7c:c5:79:d2:10:6f:4a:01:3d:e7:cf:47:47:ac:dc:41:
         72:42:f7:7b:9e:88:e6:62:20:ea:e1:6d:a3:69:ec:35:af:6f:
         de:5a:3d:62:c7:df:8d:b4:8d:76:37:5d:c0:a5:fe:b1:24:6f:
         89:4b:5c:18:a2:9b:7d:90:67:06:3f:e3:85:28:67:1a:44:8a:
         5f:1a:d5:9a:e5:4e:ec:2a:ee:ca:dc:2b:e1:00:78:77:72:09:
         38:ab:10:98:c4:f0:fe:63:eb:0b:57:b0:cc:d7:80:5a:bc:e8:
         7c:ad:57:cb:f0:3d:a3:ac:43:00:70:67:38:e0:3b:f1:e8:3d:
         71:aa:e7:89:13:95:66:df:4d:b1:d5:ce:90:24:8d:ee:3d:70:
         59:18:59:b0:d5:31:10:2a:7a:83:f1:f1:76:b0:1c:a9:3a:9a:
         22:bc:d7:75:95:19:cb:bc:42:60:d7:27:09:db:a9:93:09:57:
         eb:9a:0f:0b:48:a3:d5:d7:04:ed:b3:b5:25:c4:94:dc:ff:57:
         23:6d:1d:5f:cc:ed:d1:5c:6f:d6:53:77:8a:38:a2:04:a3:be:
         c9:a8:73:eb:2f:29:85:c5:f4:3d:5b:84:71:fa:e1:d5:df:09:
         fb:fb:50:5b:5d:16:98:8f:f4:50:04:a1:57:9c:63:96:12:49:
         18:62:b7:f8:43:47:f6:73:a6:1c:8b:35:b7:c5:7b:8e:bf:3b:
         68:17:56:a4:38:f4:6f:68:87:3c:bc:36:23:ad:ae:c7:6e:4c:
         4a:cb:b6:86:1e:63:75:46:fa:87:bb:5d:66:4b:30:5a:27:f4:
         6e:8e:43:3d:bb:51:27:b2:04:e5:cd:44:87:23:9c:35:74:bd:
         5c:2a:41:1c:43:ba:98:bb:ab:ce:c2:14:62:32:d5:c9:32:19:
         b3:a3:ed:be:fb:a8:ee:8f:99:bb:d9:9e:8e:4c:70:01:fa:1d:
         34:2d:80:48:ce:d3:0e:8d
-----BEGIN CERTIFICATE-----
MIIGrTCCBJWgAwIBAgICDWEwDQYJKoZIhvcNAQEEBQAwgawxCzAJBgNVBAYTAlVT
MQswCQYDVQQIEwJPSDERMA8GA1UEBxMIQ29sdW1idXMxEjAQBgNVBAoTCVZpa2lu
Z1ZQTjEdMBsGA1UECxMUTXlPcmdhbml6YXRpb25hbFVuaXQxFTATBgNVBAMTDFZp
a2luZ1ZQTiBDQTEQMA4GA1UEKRMHRWFzeVJTQTEhMB8GCSqGSIb3DQEJARYSbWVA
bXlob3N0Lm15ZG9tYWluMB4XDTE0MTExNzIwMDUxNloXDTI0MTExNDIwMDUxNlow
HzEdMBsGA1UEAxMUQ2xpZW50MTE3N0NlcnQ0ZDYwN2EwggIiMA0GCSqGSIb3DQEB
AQUAA4ICDwAwggIKAoICAQDY3WBx9J7lyRxtVTWJfVKKoxqf7qSt9Jl/XgDwbx2b
bPvY+hmkG47mOHKauRtFyxbsRnXz/fBbxp2CtxRL3pVMOwhmWlao5FcPmwGMY4GZ
QVmcwIgYpCdwFD+/myO8Y6/3fS5A2S4VvQqhTaBtB2M+9W4/Dqym9M82YMV7/GNf
Gm4tJwZTVdyLzQky4/8fJgvehB9MBsFUQ3YYD5JV8q7aRhXlmjmi9iTP7kfQpswX
J8duxjCD9QC8FAXwKYXSFgNSwOXAkAcxkxDcGz/nAbTEZaiaJZpSiCFcbVhkMirt
OsXZwtz1czF11dyGGqS188m2Kuy4IQbAvrkPIhKY8X4Y6Hch5g7h02Fd0AM8jhyB
WX9cpZcIVdAJcVSFpvH+hUwMjMX9k2v1THNK2PZqvMu2ivi77cAtYtrXqGGfAUUd
t88PW3rAMjxjfaMrcsP5frcCjK6AmExdHibD9YqTlvLyRpNNfZ+ONcmQD2m9nbf9
ZBPttfsWOIYJIx07+L172wz//XrMseFx4hk+7qZzlAeLGI+gLWrpMEBKDfMOSkx7
DNDzdQ2dcmpfNNflOGITqpfcNwt9pXausyyOGkxz+v6vsodc+iekHvmfQCuA0tFG
t/zokMl0xV6dxSpL+kEtLB3UoPuvRKi/R5UK+MbW3AcGlWmOZhoW1NZ1PsyzxJMk
0QIDAQABo4IBYzCCAV8wCQYDVR0TBAIwADAtBglghkgBhvhCAQ0EIBYeRWFzeS1S
U0EgR2VuZXJhdGVkIENlcnRpZmljYXRlMB0GA1UdDgQWBBRd6on/ozSrlVfW4Ypu
dUyQSGr0LjCB4QYDVR0jBIHZMIHWgBQSzWAE0qCAnnDtxpm4eyzGUv0ZoaGBsqSB
rzCBrDELMAkGA1UEBhMCVVMxCzAJBgNVBAgTAk9IMREwDwYDVQQHEwhDb2x1bWJ1
czESMBAGA1UEChMJVmlraW5nVlBOMR0wGwYDVQQLExRNeU9yZ2FuaXphdGlvbmFs
VW5pdDEVMBMGA1UEAxMMVmlraW5nVlBOIENBMRAwDgYDVQQpEwdFYXN5UlNBMSEw
HwYJKoZIhvcNAQkBFhJtZUBteWhvc3QubXlkb21haW6CCQDPNYXugL8qPjATBgNV
HSUEDDAKBggrBgEFBQcDAjALBgNVHQ8EBAMCB4AwDQYJKoZIhvcNAQEEBQADggIB
ABqsaQF7cRy7UXvm46Pula0VWlp1cc4dhlBDBUtSnFBhcscDnu891oM3sy6t4MeP
WHNVneVmvdB1Hy6xPH6nXLNZjRKGbirrRuO8MTi2XrJGyRZLpzfhLacYw81j127F
AqsuFL9meUMoNwPxC+Q/f0zjjKMDFHQMDewUfhyUOhsVviRm9sGJuzApO8ubmp8B
gyWefMV50hBvSgE9589HR6zcQXJC93ueiOZiIOrhbaNp7DWvb95aPWLH3420jXY3
XcCl/rEkb4lLXBiim32QZwY/44UoZxpEil8a1ZrlTuwq7srcK+EAeHdyCTirEJjE
8P5j6wtXsMzXgFq86HytV8vwPaOsQwBwZzjgO/HoPXGq54kTlWbfTbHVzpAkje49
cFkYWbDVMRAqeoPx8XawHKk6miK813WVGcu8QmDXJwnbqZMJV+uaDwtIo9XXBO2z
tSXElNz/VyNtHV/M7dFcb9ZTd4o4ogSjvsmoc+svKYXF9D1bhHH64dXfCfv7UFtd
FpiP9FAEoVecY5YSSRhit/hDR/ZzphyLNbfFe46/O2gXVqQ49G9ohzy8NiOtrsdu
TErLtoYeY3VG+oe7XWZLMFon9G6OQz27USeyBOXNRIcjnDV0vVwqQRxDupi7q87C
FGIy1ckyGbOj7b77qO6PmbvZno5McAH6HTQtgEjO0w6N
-----END CERTIFICATE-----
