Certificate:
    Data:
        Version: 3 (0x2)
        Serial Number: 3448 (0xd78)
    Signature Algorithm: md5WithRSAEncryption
        Issuer: C=US, ST=OH, L=Columbus, O=VikingVPN, OU=MyOrganizationalUnit, CN=VikingVPN CA/name=EasyRSA/emailAddress=me@myhost.mydomain
        Validity
            Not Before: Nov 20 17:48:42 2014 GMT
            Not After : Nov 17 17:48:42 2024 GMT
        Subject: CN=Client884Cert016403
        Subject Public Key Info:
            Public Key Algorithm: rsaEncryption
                Public-Key: (4096 bit)
                Modulus:
                    00:f5:aa:31:0f:c8:21:be:e2:e4:8e:b1:4e:83:d0:
                    31:db:d3:76:48:c7:0c:c2:bb:04:e8:b4:94:4d:39:
                    ba:3f:7e:fe:be:d8:aa:74:3c:72:0d:98:7b:4e:c6:
                    6c:24:1c:4a:44:32:92:79:68:96:2e:f6:5a:1b:5f:
                    f9:6b:f8:d0:4a:ee:a4:48:f9:77:5a:54:34:e9:52:
                    30:1a:e1:36:b2:b1:1c:1a:fb:1b:ab:5c:f2:d1:22:
                    25:89:7a:6f:6b:62:7d:9a:b4:8e:d2:2d:4c:1d:8e:
                    ad:81:87:6b:80:90:ae:75:2b:02:40:e4:a1:57:dd:
                    02:69:91:6a:a5:66:a7:ec:62:b6:d9:e4:42:d9:f6:
                    30:1c:a8:90:2c:87:99:6f:b2:60:b4:cf:74:48:aa:
                    05:8c:d2:0c:b8:c2:e7:58:30:84:4c:84:ec:6e:44:
                    e8:b0:0a:9d:57:a6:bf:1a:b6:bc:c0:dc:37:7d:36:
                    4c:11:72:0c:48:07:ad:ba:a8:59:a2:2b:1a:0f:ae:
                    60:88:48:cb:47:f3:ce:3c:40:96:81:2a:c1:f6:aa:
                    10:e8:98:ba:67:13:5a:cd:9c:29:00:66:28:e4:55:
                    07:de:20:33:8a:ac:a5:b3:45:bf:08:eb:ca:f8:d8:
                    6d:26:86:df:73:a6:2c:53:2b:33:1b:64:78:0d:09:
                    3a:3b:37:1b:ce:ce:5e:f8:bb:20:f5:f6:69:b8:ec:
                    e8:40:6b:4a:88:03:ce:88:ad:c1:5f:9e:87:36:66:
                    40:67:e1:7e:89:7e:96:95:d3:1f:2b:6a:7b:ee:f8:
                    5a:ba:1b:dc:6f:ee:3b:5a:cb:24:ee:78:9e:8d:81:
                    e1:47:72:50:e3:8d:bf:fc:cd:b4:34:5a:60:80:f9:
                    6e:ba:32:9d:c9:45:6c:e1:d7:6a:82:cb:ab:ff:02:
                    73:13:28:e4:4b:03:ba:3e:00:e8:87:ed:b2:5c:c6:
                    f8:bc:5f:63:5c:a5:d7:f0:18:cd:be:38:eb:36:52:
                    0c:70:f5:82:9a:fe:ca:c1:91:a5:12:af:e9:55:6a:
                    49:14:22:07:01:1a:ba:b8:fd:42:e9:85:50:e9:95:
                    51:a1:ff:9f:02:c0:ce:92:6d:5d:8e:fd:c1:3d:7d:
                    a9:11:76:bb:b1:2f:3a:bc:e2:7f:34:90:bd:14:62:
                    1c:26:2d:e3:ab:84:f5:a0:19:2e:79:7c:77:25:b8:
                    3c:1c:e1:e9:cd:90:d9:f1:f8:04:e7:65:f7:d2:d0:
                    e2:41:2d:91:4e:95:0d:fb:bd:44:f9:00:21:ac:88:
                    b0:8b:86:a4:ac:b2:d3:af:c8:a4:1f:0c:7c:ab:44:
                    29:e5:12:a6:17:18:8a:56:90:c6:95:27:6f:f0:e1:
                    d5:d5:31
                Exponent: 65537 (0x10001)
        X509v3 extensions:
            X509v3 Basic Constraints: 
                CA:FALSE
            Netscape Comment: 
                Easy-RSA Generated Certificate
            X509v3 Subject Key Identifier: 
                8C:B7:9D:9E:30:6E:AF:4E:79:AA:6A:08:B8:C9:0F:56:36:2C:2E:88
            X509v3 Authority Key Identifier: 
                keyid:12:CD:60:04:D2:A0:80:9E:70:ED:C6:99:B8:7B:2C:C6:52:FD:19:A1
                DirName:/C=US/ST=OH/L=Columbus/O=VikingVPN/OU=MyOrganizationalUnit/CN=VikingVPN CA/name=EasyRSA/emailAddress=me@myhost.mydomain
                serial:CF:35:85:EE:80:BF:2A:3E

            X509v3 Extended Key Usage: 
                TLS Web Client Authentication
            X509v3 Key Usage: 
                Digital Signature
    Signature Algorithm: md5WithRSAEncryption
         4a:4e:06:64:c3:c3:e1:fa:c9:53:cc:7b:16:97:15:d5:f6:9b:
         3b:46:9e:93:46:90:e4:37:8b:ce:a1:ee:97:bd:12:5e:87:cc:
         aa:5f:cc:5d:7c:8f:65:2a:03:b0:89:75:8d:ba:63:3d:13:6f:
         d0:a8:48:7b:96:68:01:93:33:cb:1c:fb:d5:d8:f3:d6:93:21:
         8c:05:46:2d:51:88:4c:5b:a3:8d:69:4f:42:67:06:b2:89:f3:
         c8:bc:26:8e:e9:ba:13:6d:28:0a:b6:4b:c5:f0:53:4f:d2:98:
         31:ca:f1:1a:43:7f:64:58:2a:d9:00:42:67:9d:0a:82:e7:1c:
         d5:60:78:d0:2a:4f:4b:6b:c1:a6:c2:e1:eb:12:95:aa:8f:a4:
         3e:21:03:e1:58:b0:f1:5b:56:94:6c:52:63:91:6d:4d:b1:ce:
         14:5a:07:2d:ca:d9:92:ae:6d:fa:13:ce:e5:0a:69:ea:37:4d:
         36:65:3c:8d:9a:7b:66:a0:91:a6:bb:84:2b:9a:c2:87:48:dd:
         b9:67:b2:b5:2a:44:65:95:38:12:34:c9:97:a6:18:c5:dc:f6:
         df:61:d5:0a:e5:8a:15:db:61:0c:15:2e:89:89:e0:9a:d8:54:
         91:21:64:2a:c0:29:87:63:bb:70:d9:95:c9:7a:91:a2:de:e4:
         8e:0a:39:d5:97:7f:5f:3e:d3:f8:14:14:f7:de:0e:88:37:6c:
         c1:5e:33:a3:5c:25:50:ed:cc:5b:47:44:0b:ad:3a:77:0c:1e:
         2c:7e:73:f5:31:46:51:3f:83:8d:87:d0:1b:8d:08:b4:a9:d5:
         fb:2b:a4:c9:8a:76:58:bc:7e:4f:8b:c6:1d:34:b1:47:15:5f:
         3a:3a:3e:09:77:1a:c1:ce:d8:cc:97:1b:c3:e8:93:bd:5a:a3:
         e1:8e:b7:ee:26:fd:b2:fc:15:c6:8c:30:f0:2b:c3:11:61:6b:
         26:09:cf:22:44:54:a7:49:6b:73:c5:32:05:88:3e:55:6e:13:
         30:33:e1:b3:a5:7b:f7:d9:a4:2b:51:e3:35:42:c9:5e:40:e6:
         18:f6:07:a4:c9:0f:7c:40:8f:64:17:54:14:f3:2a:84:3d:25:
         08:bc:0e:af:78:f6:03:c6:72:b8:07:0f:dc:19:94:0a:36:c4:
         a5:f3:51:fe:5f:91:48:6c:96:7c:d9:56:6f:af:b5:ac:b4:28:
         bb:32:ae:07:87:1f:45:4b:14:dc:09:3f:ae:18:7c:4d:fa:bf:
         11:43:99:57:30:0b:0e:f8:32:d2:aa:f0:f1:40:fa:e4:a9:1a:
         48:fb:fe:87:99:0a:e7:a6:1a:17:90:15:64:bc:c4:7f:e4:15:
         ae:0f:13:d4:08:ae:dd:af
-----BEGIN CERTIFICATE-----
MIIGrDCCBJSgAwIBAgICDXgwDQYJKoZIhvcNAQEEBQAwgawxCzAJBgNVBAYTAlVT
MQswCQYDVQQIEwJPSDERMA8GA1UEBxMIQ29sdW1idXMxEjAQBgNVBAoTCVZpa2lu
Z1ZQTjEdMBsGA1UECxMUTXlPcmdhbml6YXRpb25hbFVuaXQxFTATBgNVBAMTDFZp
a2luZ1ZQTiBDQTEQMA4GA1UEKRMHRWFzeVJTQTEhMB8GCSqGSIb3DQEJARYSbWVA
bXlob3N0Lm15ZG9tYWluMB4XDTE0MTEyMDE3NDg0MloXDTI0MTExNzE3NDg0Mlow
HjEcMBoGA1UEAxMTQ2xpZW50ODg0Q2VydDAxNjQwMzCCAiIwDQYJKoZIhvcNAQEB
BQADggIPADCCAgoCggIBAPWqMQ/IIb7i5I6xToPQMdvTdkjHDMK7BOi0lE05uj9+
/r7YqnQ8cg2Ye07GbCQcSkQyknloli72Whtf+Wv40ErupEj5d1pUNOlSMBrhNrKx
HBr7G6tc8tEiJYl6b2tifZq0jtItTB2OrYGHa4CQrnUrAkDkoVfdAmmRaqVmp+xi
ttnkQtn2MByokCyHmW+yYLTPdEiqBYzSDLjC51gwhEyE7G5E6LAKnVemvxq2vMDc
N302TBFyDEgHrbqoWaIrGg+uYIhIy0fzzjxAloEqwfaqEOiYumcTWs2cKQBmKORV
B94gM4qspbNFvwjryvjYbSaG33OmLFMrMxtkeA0JOjs3G87OXvi7IPX2abjs6EBr
SogDzoitwV+ehzZmQGfhfol+lpXTHytqe+74Wrob3G/uO1rLJO54no2B4UdyUOON
v/zNtDRaYID5broynclFbOHXaoLLq/8CcxMo5EsDuj4A6IftslzG+LxfY1yl1/AY
zb446zZSDHD1gpr+ysGRpRKv6VVqSRQiBwEaurj9QumFUOmVUaH/nwLAzpJtXY79
wT19qRF2u7EvOrzifzSQvRRiHCYt46uE9aAZLnl8dyW4PBzh6c2Q2fH4BOdl99LQ
4kEtkU6VDfu9RPkAIayIsIuGpKyy06/IpB8MfKtEKeUSphcYilaQxpUnb/Dh1dUx
AgMBAAGjggFjMIIBXzAJBgNVHRMEAjAAMC0GCWCGSAGG+EIBDQQgFh5FYXN5LVJT
QSBHZW5lcmF0ZWQgQ2VydGlmaWNhdGUwHQYDVR0OBBYEFIy3nZ4wbq9OeapqCLjJ
D1Y2LC6IMIHhBgNVHSMEgdkwgdaAFBLNYATSoICecO3Gmbh7LMZS/RmhoYGypIGv
MIGsMQswCQYDVQQGEwJVUzELMAkGA1UECBMCT0gxETAPBgNVBAcTCENvbHVtYnVz
MRIwEAYDVQQKEwlWaWtpbmdWUE4xHTAbBgNVBAsTFE15T3JnYW5pemF0aW9uYWxV
bml0MRUwEwYDVQQDEwxWaWtpbmdWUE4gQ0ExEDAOBgNVBCkTB0Vhc3lSU0ExITAf
BgkqhkiG9w0BCQEWEm1lQG15aG9zdC5teWRvbWFpboIJAM81he6Avyo+MBMGA1Ud
JQQMMAoGCCsGAQUFBwMCMAsGA1UdDwQEAwIHgDANBgkqhkiG9w0BAQQFAAOCAgEA
Sk4GZMPD4frJU8x7FpcV1fabO0aek0aQ5DeLzqHul70SXofMql/MXXyPZSoDsIl1
jbpjPRNv0KhIe5ZoAZMzyxz71djz1pMhjAVGLVGITFujjWlPQmcGsonzyLwmjum6
E20oCrZLxfBTT9KYMcrxGkN/ZFgq2QBCZ50Kgucc1WB40CpPS2vBpsLh6xKVqo+k
PiED4Viw8VtWlGxSY5FtTbHOFFoHLcrZkq5t+hPO5Qpp6jdNNmU8jZp7ZqCRpruE
K5rCh0jduWeytSpEZZU4EjTJl6YYxdz232HVCuWKFdthDBUuiYngmthUkSFkKsAp
h2O7cNmVyXqRot7kjgo51Zd/Xz7T+BQU994OiDdswV4zo1wlUO3MW0dEC606dwwe
LH5z9TFGUT+DjYfQG40ItKnV+yukyYp2WLx+T4vGHTSxRxVfOjo+CXcawc7YzJcb
w+iTvVqj4Y637ib9svwVxoww8CvDEWFrJgnPIkRUp0lrc8UyBYg+VW4TMDPhs6V7
99mkK1HjNULJXkDmGPYHpMkPfECPZBdUFPMqhD0lCLwOr3j2A8ZyuAcP3BmUCjbE
pfNR/l+RSGyWfNlWb6+1rLQouzKuB4cfRUsU3Ak/rhh8Tfq/EUOZVzALDvgy0qrw
8UD65KkaSPv+h5kK56YaF5AVZLzEf+QVrg8T1Aiu3a8=
-----END CERTIFICATE-----
