Certificate:
    Data:
        Version: 3 (0x2)
        Serial Number: 3455 (0xd7f)
    Signature Algorithm: md5WithRSAEncryption
        Issuer: C=US, ST=OH, L=Columbus, O=VikingVPN, OU=MyOrganizationalUnit, CN=VikingVPN CA/name=EasyRSA/emailAddress=me@myhost.mydomain
        Validity
            Not Before: Nov 21 08:57:55 2014 GMT
            Not After : Nov 18 08:57:55 2024 GMT
        Subject: CN=Client1188Cert2bf420
        Subject Public Key Info:
            Public Key Algorithm: rsaEncryption
                Public-Key: (4096 bit)
                Modulus:
                    00:cb:58:ac:4e:0f:4c:1b:ac:8d:8c:1f:95:0d:4e:
                    da:36:87:5a:09:87:c1:cf:b7:d9:bd:03:e9:54:4c:
                    5f:21:56:3f:18:85:8c:ee:2d:88:4b:01:84:9b:c6:
                    48:fa:a9:66:15:ad:aa:34:00:10:2e:1d:15:b7:42:
                    b2:b2:4b:2e:08:7a:4d:03:2e:b2:48:cd:88:fc:96:
                    2b:72:f1:b4:5c:77:d1:fc:e6:c1:a4:95:8f:0b:af:
                    13:45:bc:96:7d:cc:4b:d9:3d:cf:d3:40:d9:35:3f:
                    8e:81:71:7a:e1:ca:84:2e:82:f1:5c:9d:db:03:59:
                    28:b4:df:77:71:d2:c5:dd:00:3f:4a:46:35:90:07:
                    51:8e:fc:84:92:3c:77:61:b8:5d:2e:e5:21:14:7f:
                    18:2d:8e:85:1e:0b:56:c8:a7:73:56:a0:52:89:a6:
                    68:44:4d:31:0b:46:78:82:3b:3b:d7:5b:c1:67:95:
                    79:71:e0:d2:7d:ef:0f:48:80:ab:c7:57:b1:f0:28:
                    00:e9:fc:da:af:49:22:24:75:ff:c9:54:cf:16:93:
                    7f:8d:ce:6b:bd:88:04:7b:19:71:fb:0a:77:40:dc:
                    05:20:ad:34:3f:ad:ba:05:be:b0:3b:d9:25:20:04:
                    85:ce:40:ac:4e:05:ad:92:3d:d8:cd:fb:87:6c:60:
                    d8:8b:af:f4:37:a8:c3:15:32:13:81:fe:06:77:4a:
                    e9:b5:83:7a:a6:86:2f:bd:99:7c:76:0c:65:d6:7d:
                    e2:8e:6a:6f:d2:6e:f1:36:34:8a:20:c3:e1:e5:a3:
                    43:39:10:49:f0:79:c5:ab:4a:9b:d9:1f:7d:c1:9a:
                    bb:93:f7:a8:c3:22:fc:4f:46:0f:11:b0:8a:9c:52:
                    0e:82:70:16:f1:a7:8f:b7:67:ff:27:16:d3:07:1d:
                    e6:35:85:67:03:6b:b6:c3:5d:1f:35:b9:57:8a:09:
                    81:19:6e:fd:95:e0:ad:75:f1:1c:d1:52:ef:7b:2b:
                    a3:f3:00:f1:e9:c4:67:2d:71:f9:86:fe:a2:64:06:
                    57:ec:bf:be:48:79:e7:56:2f:bc:cc:ff:fd:11:bb:
                    5b:42:ed:05:cb:81:01:e9:cf:ec:aa:6f:f2:b9:a7:
                    56:54:92:46:b6:dd:94:d8:92:77:41:e3:0d:1d:71:
                    1c:56:05:42:07:a9:2a:c0:b2:7d:5a:4c:87:e7:46:
                    a8:42:2a:74:32:42:c1:ce:ff:6a:02:02:dd:9c:4b:
                    9b:47:75:a9:9c:9d:1e:40:00:16:47:dd:6e:0c:5c:
                    5c:fb:85:85:2e:24:7d:39:34:56:09:9b:47:5a:8b:
                    60:e8:ab:24:83:11:cd:5d:7e:93:c1:21:66:4e:d3:
                    70:9d:bf
                Exponent: 65537 (0x10001)
        X509v3 extensions:
            X509v3 Basic Constraints: 
                CA:FALSE
            Netscape Comment: 
                Easy-RSA Generated Certificate
            X509v3 Subject Key Identifier: 
                4A:AF:EC:FE:EF:14:7C:A3:5C:A0:00:F3:99:68:63:D8:8D:3C:E4:B9
            X509v3 Authority Key Identifier: 
                keyid:12:CD:60:04:D2:A0:80:9E:70:ED:C6:99:B8:7B:2C:C6:52:FD:19:A1
                DirName:/C=US/ST=OH/L=Columbus/O=VikingVPN/OU=MyOrganizationalUnit/CN=VikingVPN CA/name=EasyRSA/emailAddress=me@myhost.mydomain
                serial:CF:35:85:EE:80:BF:2A:3E

            X509v3 Extended Key Usage: 
                TLS Web Client Authentication
            X509v3 Key Usage: 
                Digital Signature
    Signature Algorithm: md5WithRSAEncryption
         61:c8:7d:c7:83:3f:a1:06:fa:63:51:20:13:2b:53:37:12:b5:
         e6:f1:be:8a:43:f3:b6:4a:b4:bc:70:5a:4a:5f:3a:4e:b6:b3:
         2e:22:7c:70:02:fa:dc:ce:f1:14:8d:cb:16:19:1c:62:26:c4:
         76:3e:79:fc:9f:5d:6d:27:10:7f:fc:ed:5a:5c:0c:fe:12:68:
         28:b5:6b:6f:bc:cb:58:2b:ca:b2:af:46:d9:97:fe:95:b9:9b:
         48:3c:4e:53:b6:b7:40:48:75:1b:82:11:98:66:bc:93:23:f1:
         b4:aa:35:d2:80:ae:8f:2a:ef:4f:20:d0:fb:e0:e3:3f:25:1e:
         6d:41:cd:e9:07:ea:54:50:0d:dd:9b:e1:76:ea:0e:80:af:9f:
         4f:0b:1e:d8:5a:1d:a7:22:45:1b:74:95:0b:f1:28:80:49:09:
         dc:1d:7c:19:fc:6f:55:c5:37:9e:55:55:1f:db:64:cc:36:86:
         47:2a:1a:1f:b3:fa:3d:4a:6f:3d:27:c1:80:58:2a:5a:bd:49:
         07:48:cb:c3:51:5a:29:2c:cc:53:75:f7:72:22:dc:ae:46:41:
         9e:fe:10:a5:ab:b0:ab:5a:1f:aa:8c:0c:09:8e:89:ef:a6:1f:
         6d:9a:0e:60:64:a1:da:2a:9d:7c:a1:21:23:7c:8b:65:a3:c3:
         c8:a0:53:21:b5:6b:c9:f2:21:ee:8a:fe:8c:ff:bb:b8:19:87:
         78:8e:6b:af:db:2a:94:a1:69:df:ae:00:89:e0:ca:24:40:2d:
         8f:3d:0a:47:a3:96:2d:c3:80:32:ba:f8:6e:a3:f9:ef:9d:4c:
         dc:a5:cd:aa:7f:02:62:27:1b:b1:7b:e9:a7:5a:68:3e:8f:db:
         40:63:8a:10:a6:dd:b9:ba:76:b5:43:a0:c7:ae:81:84:76:f6:
         5b:2b:f3:f6:de:d1:a0:c0:5c:fb:7b:4a:4f:5f:fc:c2:0a:90:
         40:65:36:03:4e:22:a6:f9:52:5d:c2:5b:be:bf:39:86:f4:18:
         4c:a2:a2:5a:ce:d3:75:20:60:75:1c:81:b1:99:60:83:7c:c1:
         33:ea:10:4f:f6:d8:24:99:56:40:d3:19:df:e4:63:38:1f:83:
         00:92:0b:96:b5:5e:02:46:89:9a:00:40:fe:ce:cd:7c:a6:29:
         44:b0:2b:c9:d5:d8:61:d7:f0:f2:df:c9:49:da:45:ef:38:16:
         99:bd:c6:ed:89:d7:bb:6a:46:13:c2:ba:38:5a:68:1e:2e:f5:
         ef:37:83:df:7c:45:15:37:a9:db:bb:f8:ea:1e:ee:de:f6:0a:
         d1:0e:41:03:ab:63:b7:c6:ef:ac:33:10:28:d3:23:dd:1c:1d:
         e6:dd:99:45:a1:bc:0e:a0
-----BEGIN CERTIFICATE-----
MIIGrTCCBJWgAwIBAgICDX8wDQYJKoZIhvcNAQEEBQAwgawxCzAJBgNVBAYTAlVT
MQswCQYDVQQIEwJPSDERMA8GA1UEBxMIQ29sdW1idXMxEjAQBgNVBAoTCVZpa2lu
Z1ZQTjEdMBsGA1UECxMUTXlPcmdhbml6YXRpb25hbFVuaXQxFTATBgNVBAMTDFZp
a2luZ1ZQTiBDQTEQMA4GA1UEKRMHRWFzeVJTQTEhMB8GCSqGSIb3DQEJARYSbWVA
bXlob3N0Lm15ZG9tYWluMB4XDTE0MTEyMTA4NTc1NVoXDTI0MTExODA4NTc1NVow
HzEdMBsGA1UEAxMUQ2xpZW50MTE4OENlcnQyYmY0MjAwggIiMA0GCSqGSIb3DQEB
AQUAA4ICDwAwggIKAoICAQDLWKxOD0wbrI2MH5UNTto2h1oJh8HPt9m9A+lUTF8h
Vj8YhYzuLYhLAYSbxkj6qWYVrao0ABAuHRW3QrKySy4Iek0DLrJIzYj8lity8bRc
d9H85sGklY8LrxNFvJZ9zEvZPc/TQNk1P46BcXrhyoQugvFcndsDWSi033dx0sXd
AD9KRjWQB1GO/ISSPHdhuF0u5SEUfxgtjoUeC1bIp3NWoFKJpmhETTELRniCOzvX
W8FnlXlx4NJ97w9IgKvHV7HwKADp/NqvSSIkdf/JVM8Wk3+Nzmu9iAR7GXH7CndA
3AUgrTQ/rboFvrA72SUgBIXOQKxOBa2SPdjN+4dsYNiLr/Q3qMMVMhOB/gZ3Sum1
g3qmhi+9mXx2DGXWfeKOam/SbvE2NIogw+Hlo0M5EEnwecWrSpvZH33BmruT96jD
IvxPRg8RsIqcUg6CcBbxp4+3Z/8nFtMHHeY1hWcDa7bDXR81uVeKCYEZbv2V4K11
8RzRUu97K6PzAPHpxGctcfmG/qJkBlfsv75IeedWL7zM//0Ru1tC7QXLgQHpz+yq
b/K5p1ZUkka23ZTYkndB4w0dcRxWBUIHqSrAsn1aTIfnRqhCKnQyQsHO/2oCAt2c
S5tHdamcnR5AABZH3W4MXFz7hYUuJH05NFYJm0dai2DoqySDEc1dfpPBIWZO03Cd
vwIDAQABo4IBYzCCAV8wCQYDVR0TBAIwADAtBglghkgBhvhCAQ0EIBYeRWFzeS1S
U0EgR2VuZXJhdGVkIENlcnRpZmljYXRlMB0GA1UdDgQWBBRKr+z+7xR8o1ygAPOZ
aGPYjTzkuTCB4QYDVR0jBIHZMIHWgBQSzWAE0qCAnnDtxpm4eyzGUv0ZoaGBsqSB
rzCBrDELMAkGA1UEBhMCVVMxCzAJBgNVBAgTAk9IMREwDwYDVQQHEwhDb2x1bWJ1
czESMBAGA1UEChMJVmlraW5nVlBOMR0wGwYDVQQLExRNeU9yZ2FuaXphdGlvbmFs
VW5pdDEVMBMGA1UEAxMMVmlraW5nVlBOIENBMRAwDgYDVQQpEwdFYXN5UlNBMSEw
HwYJKoZIhvcNAQkBFhJtZUBteWhvc3QubXlkb21haW6CCQDPNYXugL8qPjATBgNV
HSUEDDAKBggrBgEFBQcDAjALBgNVHQ8EBAMCB4AwDQYJKoZIhvcNAQEEBQADggIB
AGHIfceDP6EG+mNRIBMrUzcStebxvopD87ZKtLxwWkpfOk62sy4ifHAC+tzO8RSN
yxYZHGImxHY+efyfXW0nEH/87VpcDP4SaCi1a2+8y1gryrKvRtmX/pW5m0g8TlO2
t0BIdRuCEZhmvJMj8bSqNdKAro8q708g0Pvg4z8lHm1BzekH6lRQDd2b4XbqDoCv
n08LHthaHaciRRt0lQvxKIBJCdwdfBn8b1XFN55VVR/bZMw2hkcqGh+z+j1Kbz0n
wYBYKlq9SQdIy8NRWikszFN193Ii3K5GQZ7+EKWrsKtaH6qMDAmOie+mH22aDmBk
odoqnXyhISN8i2Wjw8igUyG1a8nyIe6K/oz/u7gZh3iOa6/bKpShad+uAIngyiRA
LY89Ckejli3DgDK6+G6j+e+dTNylzap/AmInG7F76adaaD6P20BjihCm3bm6drVD
oMeugYR29lsr8/be0aDAXPt7Sk9f/MIKkEBlNgNOIqb5Ul3CW76/OYb0GEyiolrO
03UgYHUcgbGZYIN8wTPqEE/22CSZVkDTGd/kYzgfgwCSC5a1XgJGiZoAQP7OzXym
KUSwK8nV2GHX8PLfyUnaRe84Fpm9xu2J17tqRhPCujhaaB4u9e83g998RRU3qdu7
+Ooe7t72CtEOQQOrY7fG76wzECjTI90cHebdmUWhvA6g
-----END CERTIFICATE-----
