Certificate:
    Data:
        Version: 3 (0x2)
        Serial Number: 3457 (0xd81)
    Signature Algorithm: md5WithRSAEncryption
        Issuer: C=US, ST=OH, L=Columbus, O=VikingVPN, OU=MyOrganizationalUnit, CN=VikingVPN CA/name=EasyRSA/emailAddress=me@myhost.mydomain
        Validity
            Not Before: Nov 21 12:06:12 2014 GMT
            Not After : Nov 18 12:06:12 2024 GMT
        Subject: CN=Client380Certe73714
        Subject Public Key Info:
            Public Key Algorithm: rsaEncryption
                Public-Key: (4096 bit)
                Modulus:
                    00:9e:b8:be:18:b2:3b:26:60:4d:90:9b:b2:44:62:
                    34:54:71:6b:65:8a:ee:32:6b:13:5e:22:be:43:4c:
                    05:4f:7e:d2:81:b1:a8:24:cd:eb:5d:79:af:25:12:
                    3e:ac:6f:b5:30:b7:79:53:32:46:58:c7:1f:10:02:
                    fd:98:d5:a5:21:66:02:18:58:a2:13:06:89:fc:3a:
                    bb:a5:f6:45:59:00:a9:a4:ea:24:37:b7:4e:fd:ff:
                    0f:17:ee:cd:91:b4:35:78:ab:ac:4d:4c:7d:50:e2:
                    cf:d1:19:88:f2:f0:23:2b:68:96:59:fe:c4:9a:b7:
                    35:84:50:53:49:23:65:7f:f3:3d:a0:ae:ba:26:e0:
                    66:c8:e2:03:99:de:aa:99:67:b2:f5:6e:10:e3:c3:
                    02:d5:8a:01:bb:6a:f3:a8:c3:e7:b1:0d:0b:84:e7:
                    9b:94:4c:c5:ae:14:0f:a7:f8:aa:dd:7f:ba:05:1f:
                    75:f9:6e:63:da:88:4f:0c:33:aa:d9:68:8d:ac:00:
                    5a:73:14:a1:66:73:0d:a9:a5:44:a6:87:81:96:dc:
                    a5:5b:db:64:8c:dd:db:ec:00:e4:c9:02:37:9c:d5:
                    48:15:51:d0:be:eb:c9:c8:4f:bb:f7:4c:85:82:b2:
                    6b:71:50:73:80:69:c5:82:98:d7:e7:13:37:c3:fd:
                    e8:5d:de:8a:08:ad:f4:72:c2:a0:0a:9e:2d:5d:9f:
                    28:f2:c8:57:d7:dc:1f:06:8a:93:9b:e3:b5:b1:a2:
                    5a:35:a2:c6:ef:bf:ad:9e:bb:83:a2:15:d7:13:99:
                    9b:f2:16:5d:ea:8a:61:69:39:ef:d0:01:13:eb:09:
                    8d:11:26:77:63:1c:4b:17:c2:78:86:42:9e:89:39:
                    9a:6a:ac:48:65:69:7c:af:68:d1:e2:34:77:ec:41:
                    fe:44:d7:e6:22:cf:53:39:d9:a4:30:55:2a:f5:26:
                    a7:42:ec:61:9a:46:8a:b6:49:a1:a8:c9:87:92:c7:
                    4b:f1:62:fd:fb:ec:e9:1b:42:4d:bf:a0:df:06:db:
                    ae:93:80:fe:a1:01:b3:f3:eb:7c:8c:9d:eb:33:db:
                    a3:91:f7:c5:d4:cb:18:62:65:54:7e:34:2e:67:fc:
                    ad:e5:37:10:fd:a5:11:7c:16:7c:c1:44:83:0e:5f:
                    f9:1b:0b:9e:d7:06:a2:37:08:2b:af:1a:e3:a5:8d:
                    39:35:c2:27:bb:f0:eb:5f:d6:65:e3:7d:6d:13:ae:
                    ec:46:76:1a:76:39:99:74:bb:af:de:51:97:df:dc:
                    75:06:31:76:0c:6a:e3:7b:ca:71:cb:92:03:fb:2b:
                    13:4b:cb:0f:14:f0:77:b3:ee:ee:9b:88:bc:fb:97:
                    9c:6d:41
                Exponent: 65537 (0x10001)
        X509v3 extensions:
            X509v3 Basic Constraints: 
                CA:FALSE
            Netscape Comment: 
                Easy-RSA Generated Certificate
            X509v3 Subject Key Identifier: 
                54:79:45:31:C2:98:6F:45:EE:25:E8:C8:4D:68:84:00:22:0D:A1:80
            X509v3 Authority Key Identifier: 
                keyid:12:CD:60:04:D2:A0:80:9E:70:ED:C6:99:B8:7B:2C:C6:52:FD:19:A1
                DirName:/C=US/ST=OH/L=Columbus/O=VikingVPN/OU=MyOrganizationalUnit/CN=VikingVPN CA/name=EasyRSA/emailAddress=me@myhost.mydomain
                serial:CF:35:85:EE:80:BF:2A:3E

            X509v3 Extended Key Usage: 
                TLS Web Client Authentication
            X509v3 Key Usage: 
                Digital Signature
    Signature Algorithm: md5WithRSAEncryption
         c9:77:f6:08:50:0d:8b:b7:23:a7:1f:cf:78:16:68:ed:22:17:
         06:46:6e:75:79:dc:e9:33:8a:2a:5a:11:a9:b0:5e:7c:33:ed:
         1a:06:b3:e3:b3:c7:93:29:7b:ad:be:5c:49:f1:9e:03:ae:8a:
         ae:d9:b4:64:fa:a5:81:95:e3:df:9c:8e:e2:84:9a:8f:ca:3d:
         ab:d4:52:77:fb:ef:ee:26:ce:e6:47:63:bd:0a:0c:14:c4:16:
         0d:f0:49:bb:8a:57:d0:67:09:ce:f9:ad:42:05:24:b7:b6:88:
         8c:6b:fd:d6:99:75:d0:eb:b5:67:3a:9d:cb:3a:e3:b9:e4:e2:
         cc:b2:5e:af:e3:3e:28:51:42:01:95:99:c6:51:d7:ef:2b:59:
         91:48:30:dc:66:c3:6b:62:60:11:6d:42:94:f7:7a:c6:27:a9:
         eb:de:b5:37:d8:9e:6c:f6:f7:c6:33:e8:52:b5:cb:71:69:41:
         c9:d8:67:4b:c5:37:e3:9e:2a:12:f9:89:9b:a6:86:8b:9a:1b:
         a3:19:8e:39:2d:99:2c:05:27:a1:84:29:e0:de:3e:97:11:14:
         21:d5:cc:c8:ed:4c:49:ef:be:41:55:98:46:43:ad:7b:65:21:
         e2:c1:14:16:d0:45:73:db:79:1c:3f:1d:e2:49:92:8b:46:16:
         05:6f:77:22:e4:83:92:97:59:17:87:3c:1f:49:a7:03:78:c0:
         67:db:3b:2c:d8:94:0f:a0:8c:91:eb:43:cc:56:5a:f7:42:c2:
         99:b4:c5:95:89:5d:30:a4:bc:78:54:ce:bf:54:23:bb:0b:66:
         a5:0f:8b:59:6b:cc:e9:ce:6b:1b:39:d9:f9:a8:ad:e3:94:0a:
         1a:e4:f7:e9:e0:6f:72:0d:b6:bd:94:e7:eb:37:db:dc:3f:e6:
         9b:51:40:69:bd:9d:86:89:09:de:d1:a1:38:5c:cf:1f:4c:a7:
         df:cb:cb:98:ec:6d:e5:4f:bf:26:40:25:7e:82:f4:e7:8c:98:
         4b:15:91:a2:ab:43:47:49:3b:a2:b5:76:13:06:e8:d2:91:c0:
         0a:f3:d0:46:d2:90:98:c4:c0:53:00:9c:5d:c7:5c:64:1d:be:
         f8:4b:d4:16:4d:5a:0b:de:5d:28:ca:62:b7:e1:9d:89:15:54:
         39:14:d1:7b:af:90:46:da:43:2d:b0:f5:a9:92:14:a5:29:7f:
         76:2f:41:56:b3:87:d8:77:28:d5:c0:bf:4a:ec:db:29:95:4e:
         75:f3:b1:ad:01:c4:45:b0:87:f0:09:dc:48:bc:a5:6f:56:40:
         64:8f:bd:82:5b:38:60:a4:27:d5:f5:a5:11:6b:29:e8:a9:95:
         f4:36:c1:da:77:b0:e5:59
-----BEGIN CERTIFICATE-----
MIIGrDCCBJSgAwIBAgICDYEwDQYJKoZIhvcNAQEEBQAwgawxCzAJBgNVBAYTAlVT
MQswCQYDVQQIEwJPSDERMA8GA1UEBxMIQ29sdW1idXMxEjAQBgNVBAoTCVZpa2lu
Z1ZQTjEdMBsGA1UECxMUTXlPcmdhbml6YXRpb25hbFVuaXQxFTATBgNVBAMTDFZp
a2luZ1ZQTiBDQTEQMA4GA1UEKRMHRWFzeVJTQTEhMB8GCSqGSIb3DQEJARYSbWVA
bXlob3N0Lm15ZG9tYWluMB4XDTE0MTEyMTEyMDYxMloXDTI0MTExODEyMDYxMlow
HjEcMBoGA1UEAxMTQ2xpZW50MzgwQ2VydGU3MzcxNDCCAiIwDQYJKoZIhvcNAQEB
BQADggIPADCCAgoCggIBAJ64vhiyOyZgTZCbskRiNFRxa2WK7jJrE14ivkNMBU9+
0oGxqCTN6115ryUSPqxvtTC3eVMyRljHHxAC/ZjVpSFmAhhYohMGifw6u6X2RVkA
qaTqJDe3Tv3/DxfuzZG0NXirrE1MfVDiz9EZiPLwIytolln+xJq3NYRQU0kjZX/z
PaCuuibgZsjiA5neqplnsvVuEOPDAtWKAbtq86jD57ENC4Tnm5RMxa4UD6f4qt1/
ugUfdfluY9qITwwzqtlojawAWnMUoWZzDamlRKaHgZbcpVvbZIzd2+wA5MkCN5zV
SBVR0L7rychPu/dMhYKya3FQc4BpxYKY1+cTN8P96F3eigit9HLCoAqeLV2fKPLI
V9fcHwaKk5vjtbGiWjWixu+/rZ67g6IV1xOZm/IWXeqKYWk579ABE+sJjREmd2Mc
SxfCeIZCnok5mmqsSGVpfK9o0eI0d+xB/kTX5iLPUznZpDBVKvUmp0LsYZpGirZJ
oajJh5LHS/Fi/fvs6RtCTb+g3wbbrpOA/qEBs/PrfIyd6zPbo5H3xdTLGGJlVH40
Lmf8reU3EP2lEXwWfMFEgw5f+RsLntcGojcIK68a46WNOTXCJ7vw61/WZeN9bROu
7EZ2GnY5mXS7r95Rl9/cdQYxdgxq43vKccuSA/srE0vLDxTwd7Pu7puIvPuXnG1B
AgMBAAGjggFjMIIBXzAJBgNVHRMEAjAAMC0GCWCGSAGG+EIBDQQgFh5FYXN5LVJT
QSBHZW5lcmF0ZWQgQ2VydGlmaWNhdGUwHQYDVR0OBBYEFFR5RTHCmG9F7iXoyE1o
hAAiDaGAMIHhBgNVHSMEgdkwgdaAFBLNYATSoICecO3Gmbh7LMZS/RmhoYGypIGv
MIGsMQswCQYDVQQGEwJVUzELMAkGA1UECBMCT0gxETAPBgNVBAcTCENvbHVtYnVz
MRIwEAYDVQQKEwlWaWtpbmdWUE4xHTAbBgNVBAsTFE15T3JnYW5pemF0aW9uYWxV
bml0MRUwEwYDVQQDEwxWaWtpbmdWUE4gQ0ExEDAOBgNVBCkTB0Vhc3lSU0ExITAf
BgkqhkiG9w0BCQEWEm1lQG15aG9zdC5teWRvbWFpboIJAM81he6Avyo+MBMGA1Ud
JQQMMAoGCCsGAQUFBwMCMAsGA1UdDwQEAwIHgDANBgkqhkiG9w0BAQQFAAOCAgEA
yXf2CFANi7cjpx/PeBZo7SIXBkZudXnc6TOKKloRqbBefDPtGgaz47PHkyl7rb5c
SfGeA66Krtm0ZPqlgZXj35yO4oSaj8o9q9RSd/vv7ibO5kdjvQoMFMQWDfBJu4pX
0GcJzvmtQgUkt7aIjGv91pl10Ou1ZzqdyzrjueTizLJer+M+KFFCAZWZxlHX7ytZ
kUgw3GbDa2JgEW1ClPd6xiep6961N9iebPb3xjPoUrXLcWlBydhnS8U3454qEvmJ
m6aGi5oboxmOOS2ZLAUnoYQp4N4+lxEUIdXMyO1MSe++QVWYRkOte2Uh4sEUFtBF
c9t5HD8d4kmSi0YWBW93IuSDkpdZF4c8H0mnA3jAZ9s7LNiUD6CMketDzFZa90LC
mbTFlYldMKS8eFTOv1QjuwtmpQ+LWWvM6c5rGznZ+ait45QKGuT36eBvcg22vZTn
6zfb3D/mm1FAab2dhokJ3tGhOFzPH0yn38vLmOxt5U+/JkAlfoL054yYSxWRoqtD
R0k7orV2Ewbo0pHACvPQRtKQmMTAUwCcXcdcZB2++EvUFk1aC95dKMpit+GdiRVU
ORTRe6+QRtpDLbD1qZIUpSl/di9BVrOH2Hco1cC/SuzbKZVOdfOxrQHERbCH8Anc
SLylb1ZAZI+9gls4YKQn1fWlEWsp6KmV9DbB2new5Vk=
-----END CERTIFICATE-----
