Certificate:
    Data:
        Version: 3 (0x2)
        Serial Number: 3459 (0xd83)
    Signature Algorithm: md5WithRSAEncryption
        Issuer: C=US, ST=OH, L=Columbus, O=VikingVPN, OU=MyOrganizationalUnit, CN=VikingVPN CA/name=EasyRSA/emailAddress=me@myhost.mydomain
        Validity
            Not Before: Nov 21 13:56:45 2014 GMT
            Not After : Nov 18 13:56:45 2024 GMT
        Subject: CN=Client1189Cert996d91
        Subject Public Key Info:
            Public Key Algorithm: rsaEncryption
                Public-Key: (4096 bit)
                Modulus:
                    00:c0:5c:13:7a:26:b7:4f:79:15:e3:e9:7e:07:13:
                    f2:b8:07:51:63:d3:d2:dd:67:b8:a0:1f:bf:86:76:
                    97:04:37:b6:10:c8:f9:44:60:b5:82:85:1b:c8:7a:
                    ef:05:2b:02:e3:00:84:f6:36:24:97:e9:8d:b6:08:
                    bd:4f:65:3f:7c:29:c2:2e:c6:7f:ed:d1:20:80:67:
                    ce:c1:38:26:fb:3b:57:0a:3d:48:8c:d9:e6:22:1d:
                    9a:72:18:3d:e5:ef:71:74:01:00:8f:9d:74:14:b2:
                    23:fc:70:02:07:ac:90:db:e2:81:8e:e7:d8:d8:39:
                    0e:91:bc:ed:30:7d:89:00:b0:99:ae:ae:3b:84:fa:
                    54:67:98:91:15:dd:02:ed:5b:7a:b8:72:ae:82:80:
                    b9:3f:88:f3:ba:19:aa:86:21:d9:5c:46:cc:9d:0e:
                    c0:16:a9:1c:72:6b:d6:a9:46:a2:18:69:d0:42:fb:
                    c6:38:b7:db:b3:56:95:f4:5f:fa:0a:7f:5d:ac:b1:
                    7b:18:b9:f5:f2:22:22:3d:6b:1a:1a:9b:28:8a:fb:
                    27:9e:50:e0:c9:0e:0a:31:d4:80:0f:f0:27:05:7f:
                    cd:5d:59:9b:c0:42:5d:8b:15:32:00:50:42:68:fe:
                    0d:1c:bc:3e:ec:4d:f5:81:76:31:77:55:b4:7f:05:
                    5d:cf:7a:c8:15:74:f7:f9:c5:84:7a:b5:8f:ca:eb:
                    83:5c:e5:02:1e:12:a2:9e:51:bd:1c:93:6e:6b:bc:
                    9a:d7:29:ee:c7:4d:dd:18:f6:98:d7:5b:f4:f2:97:
                    3e:b1:41:18:9e:d6:36:e5:bc:1b:38:ca:d4:0f:a1:
                    57:1f:b3:a6:d7:53:b2:d8:c2:c9:ef:75:04:40:6a:
                    11:89:ec:5d:7a:81:50:a2:9a:4b:37:35:fd:56:4f:
                    83:75:60:e2:a8:4e:61:a7:d7:43:3e:bb:9f:3c:37:
                    58:5e:7d:d6:20:f9:da:c9:5d:f5:af:83:7e:1d:1e:
                    66:15:11:76:d0:b0:30:fe:c0:75:52:7f:db:5e:b9:
                    21:f3:24:86:44:b5:32:48:f8:e4:77:a2:f8:cd:67:
                    bf:2d:cf:be:b9:ee:9f:3d:f6:02:05:a6:01:4e:00:
                    1c:77:67:3c:44:82:1a:03:88:29:73:af:e7:fa:b6:
                    c6:73:25:0a:92:a9:34:79:ee:e6:30:89:87:21:d7:
                    35:ae:a5:3c:9b:4e:4b:d4:1f:6d:be:52:ec:cf:4f:
                    37:ee:16:82:cb:47:9a:c9:0e:a7:9d:3d:66:43:9b:
                    e5:03:00:bc:a7:6c:dc:39:f5:b7:e2:52:37:f7:9c:
                    74:7c:6a:a9:8f:44:bd:0c:67:7f:01:f2:26:6f:d7:
                    fd:bf:ad
                Exponent: 65537 (0x10001)
        X509v3 extensions:
            X509v3 Basic Constraints: 
                CA:FALSE
            Netscape Comment: 
                Easy-RSA Generated Certificate
            X509v3 Subject Key Identifier: 
                70:A3:E5:73:57:03:58:6E:0F:F7:7A:95:3B:04:57:4A:61:A5:67:18
            X509v3 Authority Key Identifier: 
                keyid:12:CD:60:04:D2:A0:80:9E:70:ED:C6:99:B8:7B:2C:C6:52:FD:19:A1
                DirName:/C=US/ST=OH/L=Columbus/O=VikingVPN/OU=MyOrganizationalUnit/CN=VikingVPN CA/name=EasyRSA/emailAddress=me@myhost.mydomain
                serial:CF:35:85:EE:80:BF:2A:3E

            X509v3 Extended Key Usage: 
                TLS Web Client Authentication
            X509v3 Key Usage: 
                Digital Signature
    Signature Algorithm: md5WithRSAEncryption
         7f:87:d5:ad:42:5a:58:81:f3:a6:94:bf:a9:5b:78:91:ea:37:
         0c:6a:0b:41:c3:b6:4f:98:db:96:ca:e8:b4:3e:54:f8:35:d2:
         de:ee:8d:54:11:33:28:d7:97:5f:f3:3e:36:5a:20:4f:50:b6:
         9f:fa:24:f5:63:76:a6:b6:30:ae:30:51:8a:04:97:cc:5c:0f:
         8c:f7:91:39:49:9a:d7:ab:bf:ae:71:fa:32:06:05:0e:04:fb:
         b3:5b:27:8d:2e:e4:cd:d9:08:07:56:55:ad:3a:5c:68:89:ef:
         35:28:9a:70:aa:59:4c:34:d6:2e:1c:d1:b3:93:e8:13:c5:29:
         cd:70:c8:2f:c4:9f:9c:72:7e:27:7e:65:34:b0:fe:b6:1c:ab:
         2c:f2:4c:d9:66:bc:71:b5:a1:b1:90:fa:fd:f1:97:0b:3b:c8:
         e1:f8:53:b5:40:3c:9d:b7:64:25:3c:b9:2f:0e:8f:39:bb:19:
         4e:f3:8a:bc:36:5c:2f:e9:91:7c:10:4a:db:8f:59:ba:b1:8f:
         9f:6c:73:bd:3c:c7:ee:1c:19:db:34:5d:0c:71:5b:77:c4:7c:
         a7:7c:a3:f0:94:2f:57:56:78:52:52:bd:cc:18:90:ae:da:4d:
         37:98:ff:5f:3a:5c:d2:83:9c:dd:58:e5:b2:ff:c9:1d:4b:ce:
         2f:31:ca:58:ad:b0:52:56:c9:32:72:90:29:61:60:3d:5a:72:
         fc:6a:8c:7f:ea:96:40:29:64:03:49:21:40:00:39:6c:9c:f0:
         a8:1e:19:aa:c4:79:3f:bb:3a:58:e4:10:47:c9:a2:f9:4d:d9:
         6b:44:8f:1a:90:1c:a3:4a:2c:79:39:0a:ac:9c:ed:d5:93:02:
         7e:1e:63:9f:bf:8c:57:06:69:66:1b:2d:e2:47:dd:5c:cf:da:
         9b:7d:5c:d7:33:bf:f3:57:c4:42:a1:25:a8:3f:c0:fc:6e:b1:
         b0:37:91:c9:9b:a0:25:98:8e:8e:35:a8:44:c7:31:5c:82:5f:
         7b:d9:83:67:9f:36:3b:01:e2:3c:f9:30:aa:6e:c3:8f:38:38:
         b2:1c:78:70:90:90:f4:2c:33:37:ac:ed:98:3f:41:36:f6:90:
         24:5b:21:d4:e4:2b:c1:a0:61:0c:09:79:ba:b2:c5:03:bf:bf:
         5f:dc:90:99:af:31:6d:46:16:f1:85:8d:c4:2b:48:cf:24:d0:
         28:55:46:95:a4:1c:24:99:71:f6:a5:2a:23:92:80:05:69:c4:
         60:01:53:d1:60:79:a2:2d:03:40:84:60:41:84:62:f4:76:4d:
         9c:2f:6c:71:0a:b5:59:56:e5:fd:d7:ff:21:74:35:b9:aa:5c:
         63:0b:29:29:db:aa:64:5f
-----BEGIN CERTIFICATE-----
MIIGrTCCBJWgAwIBAgICDYMwDQYJKoZIhvcNAQEEBQAwgawxCzAJBgNVBAYTAlVT
MQswCQYDVQQIEwJPSDERMA8GA1UEBxMIQ29sdW1idXMxEjAQBgNVBAoTCVZpa2lu
Z1ZQTjEdMBsGA1UECxMUTXlPcmdhbml6YXRpb25hbFVuaXQxFTATBgNVBAMTDFZp
a2luZ1ZQTiBDQTEQMA4GA1UEKRMHRWFzeVJTQTEhMB8GCSqGSIb3DQEJARYSbWVA
bXlob3N0Lm15ZG9tYWluMB4XDTE0MTEyMTEzNTY0NVoXDTI0MTExODEzNTY0NVow
HzEdMBsGA1UEAxMUQ2xpZW50MTE4OUNlcnQ5OTZkOTEwggIiMA0GCSqGSIb3DQEB
AQUAA4ICDwAwggIKAoICAQDAXBN6JrdPeRXj6X4HE/K4B1Fj09LdZ7igH7+GdpcE
N7YQyPlEYLWChRvIeu8FKwLjAIT2NiSX6Y22CL1PZT98KcIuxn/t0SCAZ87BOCb7
O1cKPUiM2eYiHZpyGD3l73F0AQCPnXQUsiP8cAIHrJDb4oGO59jYOQ6RvO0wfYkA
sJmurjuE+lRnmJEV3QLtW3q4cq6CgLk/iPO6GaqGIdlcRsydDsAWqRxya9apRqIY
adBC+8Y4t9uzVpX0X/oKf12ssXsYufXyIiI9axoamyiK+yeeUODJDgox1IAP8CcF
f81dWZvAQl2LFTIAUEJo/g0cvD7sTfWBdjF3VbR/BV3PesgVdPf5xYR6tY/K64Nc
5QIeEqKeUb0ck25rvJrXKe7HTd0Y9pjXW/Tylz6xQRie1jblvBs4ytQPoVcfs6bX
U7LYwsnvdQRAahGJ7F16gVCimks3Nf1WT4N1YOKoTmGn10M+u588N1hefdYg+drJ
XfWvg34dHmYVEXbQsDD+wHVSf9teuSHzJIZEtTJI+OR3ovjNZ78tz7657p899gIF
pgFOABx3ZzxEghoDiClzr+f6tsZzJQqSqTR57uYwiYch1zWupTybTkvUH22+UuzP
TzfuFoLLR5rJDqedPWZDm+UDALynbNw59bfiUjf3nHR8aqmPRL0MZ38B8iZv1/2/
rQIDAQABo4IBYzCCAV8wCQYDVR0TBAIwADAtBglghkgBhvhCAQ0EIBYeRWFzeS1S
U0EgR2VuZXJhdGVkIENlcnRpZmljYXRlMB0GA1UdDgQWBBRwo+VzVwNYbg/3epU7
BFdKYaVnGDCB4QYDVR0jBIHZMIHWgBQSzWAE0qCAnnDtxpm4eyzGUv0ZoaGBsqSB
rzCBrDELMAkGA1UEBhMCVVMxCzAJBgNVBAgTAk9IMREwDwYDVQQHEwhDb2x1bWJ1
czESMBAGA1UEChMJVmlraW5nVlBOMR0wGwYDVQQLExRNeU9yZ2FuaXphdGlvbmFs
VW5pdDEVMBMGA1UEAxMMVmlraW5nVlBOIENBMRAwDgYDVQQpEwdFYXN5UlNBMSEw
HwYJKoZIhvcNAQkBFhJtZUBteWhvc3QubXlkb21haW6CCQDPNYXugL8qPjATBgNV
HSUEDDAKBggrBgEFBQcDAjALBgNVHQ8EBAMCB4AwDQYJKoZIhvcNAQEEBQADggIB
AH+H1a1CWliB86aUv6lbeJHqNwxqC0HDtk+Y25bK6LQ+VPg10t7ujVQRMyjXl1/z
PjZaIE9Qtp/6JPVjdqa2MK4wUYoEl8xcD4z3kTlJmterv65x+jIGBQ4E+7NbJ40u
5M3ZCAdWVa06XGiJ7zUomnCqWUw01i4c0bOT6BPFKc1wyC/En5xyfid+ZTSw/rYc
qyzyTNlmvHG1obGQ+v3xlws7yOH4U7VAPJ23ZCU8uS8Ojzm7GU7zirw2XC/pkXwQ
StuPWbqxj59sc708x+4cGds0XQxxW3fEfKd8o/CUL1dWeFJSvcwYkK7aTTeY/186
XNKDnN1Y5bL/yR1Lzi8xylitsFJWyTJykClhYD1acvxqjH/qlkApZANJIUAAOWyc
8KgeGarEeT+7OljkEEfJovlN2WtEjxqQHKNKLHk5Cqyc7dWTAn4eY5+/jFcGaWYb
LeJH3VzP2pt9XNczv/NXxEKhJag/wPxusbA3kcmboCWYjo41qETHMVyCX3vZg2ef
NjsB4jz5MKpuw484OLIceHCQkPQsMzes7Zg/QTb2kCRbIdTkK8GgYQwJebqyxQO/
v1/ckJmvMW1GFvGFjcQrSM8k0ChVRpWkHCSZcfalKiOSgAVpxGABU9FgeaItA0CE
YEGEYvR2TZwvbHEKtVlW5f3X/yF0NbmqXGMLKSnbqmRf
-----END CERTIFICATE-----
