Certificate:
    Data:
        Version: 3 (0x2)
        Serial Number: 3475 (0xd93)
    Signature Algorithm: md5WithRSAEncryption
        Issuer: C=US, ST=OH, L=Columbus, O=VikingVPN, OU=MyOrganizationalUnit, CN=VikingVPN CA/name=EasyRSA/emailAddress=me@myhost.mydomain
        Validity
            Not Before: Nov 23 22:23:21 2014 GMT
            Not After : Nov 20 22:23:21 2024 GMT
        Subject: CN=Client51Cert628fc5
        Subject Public Key Info:
            Public Key Algorithm: rsaEncryption
                Public-Key: (4096 bit)
                Modulus:
                    00:e7:da:9d:f5:77:49:ae:b5:39:73:93:bf:d3:b7:
                    38:57:d7:d5:7e:ba:38:da:9e:4b:c0:15:ba:f2:0c:
                    e4:71:95:97:77:2d:2b:b6:7e:37:e1:db:60:5a:1f:
                    59:46:54:b3:14:8a:f9:40:9d:9f:59:2e:fb:4c:cc:
                    df:99:9c:76:6d:6c:58:45:40:14:ec:9b:54:33:62:
                    c2:8a:d9:a0:74:ff:70:92:bc:df:e7:6a:b5:ad:9f:
                    91:84:16:75:9d:04:a7:63:7f:1d:79:28:bf:ae:3b:
                    3a:76:15:65:0f:6d:7c:ba:f7:8a:a8:26:88:4a:49:
                    93:14:3f:5f:52:02:e2:01:cd:11:0a:8e:f2:80:a5:
                    0f:19:12:d9:4a:5e:ab:4b:1e:29:1f:01:6c:f3:42:
                    6e:d9:38:14:8e:b9:48:23:65:58:72:84:d7:88:e1:
                    38:3f:35:6a:ee:0f:ec:a3:97:25:89:a1:a3:c6:3b:
                    4c:c9:dd:2e:ec:ce:86:16:1f:8a:dc:0c:f5:e2:5e:
                    be:5f:2b:26:01:92:97:b9:e6:35:35:32:84:83:d1:
                    f2:55:59:d7:ec:e4:eb:08:2e:68:3d:81:fa:f1:d8:
                    bc:97:c5:ec:2e:ee:78:fa:b9:40:41:d1:68:21:c8:
                    49:f5:db:86:a0:ec:2a:74:be:b7:a4:01:55:71:56:
                    63:a1:65:f7:bd:14:03:f1:5c:fb:89:f6:e5:11:38:
                    cb:92:49:d8:98:a5:34:f2:61:51:45:6a:9a:ca:46:
                    2b:37:34:d9:b8:53:8c:ac:76:ce:c3:90:08:35:cd:
                    a6:06:c3:e3:98:ae:9b:3f:2d:25:a5:36:71:cc:b1:
                    2e:fb:92:5b:67:64:88:12:06:99:bd:ba:21:87:6c:
                    a9:4e:94:6d:14:04:d4:83:00:71:33:05:f1:35:54:
                    d9:cd:fc:e3:b0:a3:e8:6c:08:cf:f2:58:63:6e:67:
                    e3:6a:66:77:f2:f3:bc:41:f9:a9:df:05:f7:52:fd:
                    4c:6f:a0:de:11:85:1d:5a:92:fc:9a:0c:fe:ee:39:
                    10:80:60:c2:b6:20:82:77:98:e3:c4:b8:b7:91:dc:
                    5b:96:7a:b9:13:70:25:a1:5c:85:bc:b5:8c:f2:ab:
                    8e:3d:4b:d2:de:49:f4:aa:c9:8b:18:d5:23:5a:30:
                    09:b3:bf:a9:48:06:92:1b:7f:b6:98:b0:d1:8c:6c:
                    a1:51:d5:46:a7:42:00:d3:bd:ea:ff:9f:fd:9a:2d:
                    30:1a:64:c5:a7:f5:06:5c:61:4c:c7:b3:96:00:67:
                    3b:9b:f8:56:a3:b7:4f:d3:9b:cd:93:b0:a5:85:b2:
                    43:2f:ed:b4:10:02:51:ea:6d:63:e3:ae:fa:65:40:
                    c0:16:59
                Exponent: 65537 (0x10001)
        X509v3 extensions:
            X509v3 Basic Constraints: 
                CA:FALSE
            Netscape Comment: 
                Easy-RSA Generated Certificate
            X509v3 Subject Key Identifier: 
                AF:16:DF:FC:9E:0E:A4:89:DC:38:17:C2:4E:E6:C3:BD:1C:EF:88:D1
            X509v3 Authority Key Identifier: 
                keyid:12:CD:60:04:D2:A0:80:9E:70:ED:C6:99:B8:7B:2C:C6:52:FD:19:A1
                DirName:/C=US/ST=OH/L=Columbus/O=VikingVPN/OU=MyOrganizationalUnit/CN=VikingVPN CA/name=EasyRSA/emailAddress=me@myhost.mydomain
                serial:CF:35:85:EE:80:BF:2A:3E

            X509v3 Extended Key Usage: 
                TLS Web Client Authentication
            X509v3 Key Usage: 
                Digital Signature
    Signature Algorithm: md5WithRSAEncryption
         c4:c0:8a:da:58:c5:82:80:a2:b6:79:a6:b4:18:38:2d:2f:19:
         7f:42:02:3e:a4:fe:cd:91:75:c3:53:62:36:60:ec:87:c1:6d:
         cd:cf:a1:51:1c:4b:1d:88:bc:a7:63:b3:a1:77:a5:8f:30:57:
         cb:f2:cc:4a:4c:82:d5:15:00:c1:b9:99:f6:cd:ac:c4:45:dd:
         a3:62:ac:83:76:c0:26:00:e3:18:c8:b0:14:e8:e3:24:82:1f:
         15:d5:1c:3c:db:0f:19:23:b0:0b:ef:94:27:44:3b:e1:40:ce:
         2c:25:e3:01:31:66:42:ab:93:b0:b2:d4:60:14:b0:ac:e5:59:
         c3:77:c4:21:62:70:2a:88:67:62:e9:20:31:23:19:77:31:c1:
         1e:03:d5:6e:47:a5:ff:6b:68:e0:b5:c3:00:ee:ad:5c:9b:af:
         bc:06:8d:c5:b2:c3:1f:4b:cf:af:f0:12:b4:00:fc:56:5c:1d:
         f5:e9:a9:18:83:12:50:f7:22:93:cf:c2:dd:f2:ef:11:29:74:
         3b:1b:40:cb:f4:74:60:f0:b3:cf:cf:b4:ca:93:69:d3:5a:3d:
         3c:c1:69:7a:5a:15:43:71:f2:11:12:3c:15:41:d4:80:29:77:
         07:65:44:54:22:03:7c:8f:44:ce:44:38:22:3d:89:dd:8c:0f:
         c4:f4:87:76:9f:bb:c4:46:48:3a:38:bc:92:78:7e:0c:fd:be:
         1e:c2:85:0f:11:64:b3:30:07:a0:d6:c0:78:36:70:9b:b5:ef:
         06:29:36:12:f3:e0:a2:43:72:34:13:e5:ce:07:16:87:f6:a5:
         eb:bc:ea:60:e3:62:fb:24:d2:86:07:56:22:8f:e0:37:cf:b8:
         d4:4e:b8:16:dd:fb:5e:f7:ea:81:b4:a6:02:ab:4b:05:6d:bf:
         23:16:41:81:71:b4:2a:73:57:43:7f:65:d1:23:22:28:ba:79:
         3d:af:35:ba:a5:fd:9a:e7:0d:ec:ce:c1:3d:46:52:36:fe:99:
         c0:57:a1:ff:af:b5:af:83:84:42:40:fb:23:a4:c2:26:a2:8f:
         51:d0:a1:ce:03:5c:50:13:f2:af:6c:47:4e:c8:66:ea:0e:72:
         f1:de:10:cf:54:a8:69:30:04:55:37:c8:eb:f2:88:5d:d0:24:
         8f:e0:5a:bf:82:17:e5:04:22:da:33:0d:8f:13:92:43:f0:b5:
         65:7c:bc:73:b0:34:eb:ac:29:e0:a8:bd:4e:5b:dc:4f:cc:39:
         d7:57:53:2d:1a:42:45:89:ff:7d:44:21:24:af:09:84:f3:8c:
         36:52:a6:b5:4a:8c:19:db:16:d1:73:79:e1:10:5a:c5:aa:ba:
         c8:1f:c7:5a:ef:6b:a3:24
-----BEGIN CERTIFICATE-----
MIIGqzCCBJOgAwIBAgICDZMwDQYJKoZIhvcNAQEEBQAwgawxCzAJBgNVBAYTAlVT
MQswCQYDVQQIEwJPSDERMA8GA1UEBxMIQ29sdW1idXMxEjAQBgNVBAoTCVZpa2lu
Z1ZQTjEdMBsGA1UECxMUTXlPcmdhbml6YXRpb25hbFVuaXQxFTATBgNVBAMTDFZp
a2luZ1ZQTiBDQTEQMA4GA1UEKRMHRWFzeVJTQTEhMB8GCSqGSIb3DQEJARYSbWVA
bXlob3N0Lm15ZG9tYWluMB4XDTE0MTEyMzIyMjMyMVoXDTI0MTEyMDIyMjMyMVow
HTEbMBkGA1UEAxMSQ2xpZW50NTFDZXJ0NjI4ZmM1MIICIjANBgkqhkiG9w0BAQEF
AAOCAg8AMIICCgKCAgEA59qd9XdJrrU5c5O/07c4V9fVfro42p5LwBW68gzkcZWX
dy0rtn434dtgWh9ZRlSzFIr5QJ2fWS77TMzfmZx2bWxYRUAU7JtUM2LCitmgdP9w
krzf52q1rZ+RhBZ1nQSnY38deSi/rjs6dhVlD218uveKqCaISkmTFD9fUgLiAc0R
Co7ygKUPGRLZSl6rSx4pHwFs80Ju2TgUjrlII2VYcoTXiOE4PzVq7g/so5cliaGj
xjtMyd0u7M6GFh+K3Az14l6+XysmAZKXueY1NTKEg9HyVVnX7OTrCC5oPYH68di8
l8XsLu54+rlAQdFoIchJ9duGoOwqdL63pAFVcVZjoWX3vRQD8Vz7ifblETjLkknY
mKU08mFRRWqaykYrNzTZuFOMrHbOw5AINc2mBsPjmK6bPy0lpTZxzLEu+5JbZ2SI
EgaZvbohh2ypTpRtFATUgwBxMwXxNVTZzfzjsKPobAjP8lhjbmfjamZ38vO8Qfmp
3wX3Uv1Mb6DeEYUdWpL8mgz+7jkQgGDCtiCCd5jjxLi3kdxblnq5E3AloVyFvLWM
8quOPUvS3kn0qsmLGNUjWjAJs7+pSAaSG3+2mLDRjGyhUdVGp0IA073q/5/9mi0w
GmTFp/UGXGFMx7OWAGc7m/hWo7dP05vNk7ClhbJDL+20EAJR6m1j4676ZUDAFlkC
AwEAAaOCAWMwggFfMAkGA1UdEwQCMAAwLQYJYIZIAYb4QgENBCAWHkVhc3ktUlNB
IEdlbmVyYXRlZCBDZXJ0aWZpY2F0ZTAdBgNVHQ4EFgQUrxbf/J4OpIncOBfCTubD
vRzviNEwgeEGA1UdIwSB2TCB1oAUEs1gBNKggJ5w7caZuHssxlL9GaGhgbKkga8w
gawxCzAJBgNVBAYTAlVTMQswCQYDVQQIEwJPSDERMA8GA1UEBxMIQ29sdW1idXMx
EjAQBgNVBAoTCVZpa2luZ1ZQTjEdMBsGA1UECxMUTXlPcmdhbml6YXRpb25hbFVu
aXQxFTATBgNVBAMTDFZpa2luZ1ZQTiBDQTEQMA4GA1UEKRMHRWFzeVJTQTEhMB8G
CSqGSIb3DQEJARYSbWVAbXlob3N0Lm15ZG9tYWluggkAzzWF7oC/Kj4wEwYDVR0l
BAwwCgYIKwYBBQUHAwIwCwYDVR0PBAQDAgeAMA0GCSqGSIb3DQEBBAUAA4ICAQDE
wIraWMWCgKK2eaa0GDgtLxl/QgI+pP7NkXXDU2I2YOyHwW3Nz6FRHEsdiLynY7Oh
d6WPMFfL8sxKTILVFQDBuZn2zazERd2jYqyDdsAmAOMYyLAU6OMkgh8V1Rw82w8Z
I7AL75QnRDvhQM4sJeMBMWZCq5OwstRgFLCs5VnDd8QhYnAqiGdi6SAxIxl3McEe
A9VuR6X/a2jgtcMA7q1cm6+8Bo3FssMfS8+v8BK0APxWXB316akYgxJQ9yKTz8Ld
8u8RKXQ7G0DL9HRg8LPPz7TKk2nTWj08wWl6WhVDcfIREjwVQdSAKXcHZURUIgN8
j0TORDgiPYndjA/E9Id2n7vERkg6OLySeH4M/b4ewoUPEWSzMAeg1sB4NnCbte8G
KTYS8+CiQ3I0E+XOBxaH9qXrvOpg42L7JNKGB1Yij+A3z7jUTrgW3fte9+qBtKYC
q0sFbb8jFkGBcbQqc1dDf2XRIyIounk9rzW6pf2a5w3szsE9RlI2/pnAV6H/r7Wv
g4RCQPsjpMImoo9R0KHOA1xQE/KvbEdOyGbqDnLx3hDPVKhpMARVN8jr8ohd0CSP
4Fq/ghflBCLaMw2PE5JD8LVlfLxzsDTrrCngqL1OW9xPzDnXV1MtGkJFif99RCEk
rwmE84w2Uqa1SowZ2xbRc3nhEFrFqrrIH8da72ujJA==
-----END CERTIFICATE-----
