Certificate:
    Data:
        Version: 3 (0x2)
        Serial Number: 3494 (0xda6)
    Signature Algorithm: md5WithRSAEncryption
        Issuer: C=US, ST=OH, L=Columbus, O=VikingVPN, OU=MyOrganizationalUnit, CN=VikingVPN CA/name=EasyRSA/emailAddress=me@myhost.mydomain
        Validity
            Not Before: Nov 25 02:09:13 2014 GMT
            Not After : Nov 22 02:09:13 2024 GMT
        Subject: CN=Client782Cert1b93ac
        Subject Public Key Info:
            Public Key Algorithm: rsaEncryption
                Public-Key: (4096 bit)
                Modulus:
                    00:a9:d3:36:9e:c0:4f:e2:f0:b5:2a:10:75:9f:7a:
                    77:b5:14:37:5d:7a:23:c5:7f:b4:00:8c:bf:50:d3:
                    c5:d2:77:e2:8d:f0:6d:2a:ae:06:88:6b:11:7b:7b:
                    ea:5d:45:eb:88:88:3f:ee:33:bc:d7:9a:82:cf:b8:
                    3e:38:6c:94:ae:84:02:e1:ce:65:84:e9:b5:ba:4f:
                    a4:61:60:03:d9:38:06:c0:ad:4a:6f:d4:2d:8c:22:
                    1a:27:21:c9:36:ae:55:91:5a:4f:6a:28:f0:61:06:
                    23:4f:b9:28:8a:d8:84:2d:f6:d5:4d:70:72:32:cd:
                    95:44:22:7d:90:09:c7:78:2c:98:08:a6:2a:1b:b1:
                    51:a8:d1:b5:89:77:28:08:7c:59:2b:7f:ae:04:bc:
                    ca:ed:ab:65:28:c0:02:41:e4:42:30:61:9b:46:98:
                    5c:45:c9:57:19:6f:31:0c:c4:df:e4:7c:91:60:07:
                    86:7d:74:22:08:fd:05:38:23:f4:cb:be:76:e7:0a:
                    24:8a:08:63:45:eb:3b:88:01:41:fd:95:5b:13:e3:
                    36:55:42:69:7a:87:5d:70:3a:3b:86:61:6c:5c:a8:
                    d3:73:2d:17:90:3c:72:8d:eb:ec:f6:d6:4c:12:98:
                    89:81:1c:0e:ad:ef:1a:0d:35:14:40:7c:77:f9:2d:
                    96:50:91:41:5f:6a:e9:c4:d4:57:2b:62:d8:fd:76:
                    05:bd:0c:d9:77:65:78:c4:a1:db:23:e5:d5:1e:87:
                    24:96:fe:39:f0:37:c8:52:16:35:d2:ab:8e:a6:9b:
                    e9:21:c9:1e:58:92:75:3a:66:3d:00:2e:28:34:16:
                    ac:e8:05:02:62:03:08:5d:a7:dc:76:93:45:6a:ff:
                    8e:7f:ae:e7:16:5d:e9:8e:7c:5f:90:73:b8:3e:c7:
                    57:6e:09:ee:f5:e4:5f:ab:f4:81:ed:a3:01:9f:86:
                    e9:f3:99:03:7b:20:d4:1d:b6:c0:12:80:ca:36:3d:
                    84:f1:ee:f7:12:22:69:86:88:c6:68:7b:65:81:33:
                    65:d5:59:37:2b:6e:a4:b1:67:fa:89:c1:22:c6:14:
                    c2:c1:af:a3:c1:9f:ff:d6:3c:c1:b1:26:1b:34:b5:
                    9f:ba:69:af:8e:b2:6e:e4:9c:96:3f:5c:1c:52:67:
                    ae:d0:eb:6f:e6:a0:af:90:3c:c8:4c:a8:38:c6:97:
                    0e:cc:5c:af:6e:3f:b1:8b:bf:85:2b:06:b5:a3:44:
                    f8:70:a6:7f:50:31:f1:61:dd:49:5d:0b:cb:b2:5d:
                    4b:79:55:ce:8b:cc:6b:43:c9:a5:16:2b:62:e2:c0:
                    cf:42:ce:69:3c:d4:74:83:37:2f:58:86:93:22:42:
                    4f:d9:11
                Exponent: 65537 (0x10001)
        X509v3 extensions:
            X509v3 Basic Constraints: 
                CA:FALSE
            Netscape Comment: 
                Easy-RSA Generated Certificate
            X509v3 Subject Key Identifier: 
                10:C6:C4:7F:88:01:38:1B:44:0B:BF:F8:95:DB:02:73:AD:B5:84:E7
            X509v3 Authority Key Identifier: 
                keyid:12:CD:60:04:D2:A0:80:9E:70:ED:C6:99:B8:7B:2C:C6:52:FD:19:A1
                DirName:/C=US/ST=OH/L=Columbus/O=VikingVPN/OU=MyOrganizationalUnit/CN=VikingVPN CA/name=EasyRSA/emailAddress=me@myhost.mydomain
                serial:CF:35:85:EE:80:BF:2A:3E

            X509v3 Extended Key Usage: 
                TLS Web Client Authentication
            X509v3 Key Usage: 
                Digital Signature
    Signature Algorithm: md5WithRSAEncryption
         a0:68:bc:2d:a1:59:b7:a3:56:55:b1:69:73:ce:22:bb:12:a7:
         d4:e7:46:b3:72:e3:d8:59:fb:f1:a5:76:53:2a:53:e0:9f:5c:
         63:42:a2:6b:6f:c5:6b:8f:5f:3e:37:da:12:d4:51:b2:09:c7:
         72:fb:c1:ea:7e:44:d4:78:1f:78:26:4d:c2:20:af:00:25:b6:
         53:ea:73:ac:58:3a:b0:08:fd:b0:78:2e:8a:9e:4b:36:1f:5e:
         e2:3d:cc:64:5f:80:24:1f:5c:eb:1b:38:f1:99:eb:bc:44:48:
         e9:08:60:5c:16:ba:6f:6f:e7:c7:3e:a8:14:1b:dd:e5:e8:8d:
         bd:28:52:7b:42:cc:70:8d:41:c8:7d:cf:5e:14:f6:0e:98:ce:
         19:4c:b8:0c:51:3a:2b:63:ca:7d:87:1d:f8:c1:e2:64:36:61:
         a1:7d:62:9e:07:04:64:a2:24:1b:9e:c4:3f:5a:71:2f:cc:3f:
         7c:dd:da:cb:b0:f9:12:aa:91:17:f1:b5:4f:3a:8f:0a:aa:4b:
         ad:c7:4f:63:68:c3:3c:a2:56:c9:94:e5:ee:dd:f9:ed:dc:49:
         ed:66:01:0f:ae:1c:23:07:77:03:93:93:b4:1e:62:d6:e1:f5:
         13:15:e0:44:97:86:41:93:0e:2b:7d:f8:6f:4a:f0:82:fc:c3:
         71:f5:79:8b:f1:06:66:84:25:f2:c6:53:0f:2a:b1:11:3f:0d:
         b9:41:df:38:fe:43:65:bc:f3:64:16:ca:5f:0c:8d:2a:df:b0:
         45:17:8d:7d:3f:08:52:9f:e7:ec:3f:81:42:2c:58:d9:b5:88:
         e5:56:06:60:a7:66:0d:cd:52:3e:ed:7f:ee:d8:70:66:16:d2:
         33:c9:11:31:7b:7a:93:32:08:1a:0e:71:0e:7f:92:bc:5f:9a:
         38:7b:c5:25:33:0d:4d:bd:3b:3d:5a:27:6b:a4:78:ae:2b:70:
         92:10:a3:67:e8:79:f5:b5:c2:7b:f2:6e:4d:73:a5:f6:a8:67:
         2e:0d:fd:44:59:09:77:60:b9:f2:59:00:5d:70:77:02:38:e3:
         60:77:74:dc:90:a7:18:ca:60:f0:e3:4d:6e:1b:da:d1:d1:18:
         92:5d:55:d0:a0:8b:96:3f:f5:88:97:4a:99:1c:80:b6:fd:7f:
         0b:6c:ed:e3:19:20:9f:07:21:bb:1d:a9:60:dd:a4:ee:31:6b:
         ff:64:84:1e:8a:05:49:32:8b:5c:4b:52:e4:47:c9:1d:91:82:
         8a:58:42:0d:4d:b9:09:a0:5e:02:c4:d1:81:e7:08:ac:eb:75:
         06:ff:08:0a:56:8c:09:07:f6:c6:a7:70:0d:12:50:0d:1e:44:
         42:75:6a:f9:4d:b5:6f:43
-----BEGIN CERTIFICATE-----
MIIGrDCCBJSgAwIBAgICDaYwDQYJKoZIhvcNAQEEBQAwgawxCzAJBgNVBAYTAlVT
MQswCQYDVQQIEwJPSDERMA8GA1UEBxMIQ29sdW1idXMxEjAQBgNVBAoTCVZpa2lu
Z1ZQTjEdMBsGA1UECxMUTXlPcmdhbml6YXRpb25hbFVuaXQxFTATBgNVBAMTDFZp
a2luZ1ZQTiBDQTEQMA4GA1UEKRMHRWFzeVJTQTEhMB8GCSqGSIb3DQEJARYSbWVA
bXlob3N0Lm15ZG9tYWluMB4XDTE0MTEyNTAyMDkxM1oXDTI0MTEyMjAyMDkxM1ow
HjEcMBoGA1UEAxMTQ2xpZW50NzgyQ2VydDFiOTNhYzCCAiIwDQYJKoZIhvcNAQEB
BQADggIPADCCAgoCggIBAKnTNp7AT+LwtSoQdZ96d7UUN116I8V/tACMv1DTxdJ3
4o3wbSquBohrEXt76l1F64iIP+4zvNeags+4PjhslK6EAuHOZYTptbpPpGFgA9k4
BsCtSm/ULYwiGichyTauVZFaT2oo8GEGI0+5KIrYhC321U1wcjLNlUQifZAJx3gs
mAimKhuxUajRtYl3KAh8WSt/rgS8yu2rZSjAAkHkQjBhm0aYXEXJVxlvMQzE3+R8
kWAHhn10Igj9BTgj9Mu+ducKJIoIY0XrO4gBQf2VWxPjNlVCaXqHXXA6O4ZhbFyo
03MtF5A8co3r7PbWTBKYiYEcDq3vGg01FEB8d/ktllCRQV9q6cTUVyti2P12Bb0M
2XdleMSh2yPl1R6HJJb+OfA3yFIWNdKrjqab6SHJHliSdTpmPQAuKDQWrOgFAmID
CF2n3HaTRWr/jn+u5xZd6Y58X5BzuD7HV24J7vXkX6v0ge2jAZ+G6fOZA3sg1B22
wBKAyjY9hPHu9xIiaYaIxmh7ZYEzZdVZNytupLFn+onBIsYUwsGvo8Gf/9Y8wbEm
GzS1n7ppr46ybuSclj9cHFJnrtDrb+agr5A8yEyoOMaXDsxcr24/sYu/hSsGtaNE
+HCmf1Ax8WHdSV0Ly7JdS3lVzovMa0PJpRYrYuLAz0LOaTzUdIM3L1iGkyJCT9kR
AgMBAAGjggFjMIIBXzAJBgNVHRMEAjAAMC0GCWCGSAGG+EIBDQQgFh5FYXN5LVJT
QSBHZW5lcmF0ZWQgQ2VydGlmaWNhdGUwHQYDVR0OBBYEFBDGxH+IATgbRAu/+JXb
AnOttYTnMIHhBgNVHSMEgdkwgdaAFBLNYATSoICecO3Gmbh7LMZS/RmhoYGypIGv
MIGsMQswCQYDVQQGEwJVUzELMAkGA1UECBMCT0gxETAPBgNVBAcTCENvbHVtYnVz
MRIwEAYDVQQKEwlWaWtpbmdWUE4xHTAbBgNVBAsTFE15T3JnYW5pemF0aW9uYWxV
bml0MRUwEwYDVQQDEwxWaWtpbmdWUE4gQ0ExEDAOBgNVBCkTB0Vhc3lSU0ExITAf
BgkqhkiG9w0BCQEWEm1lQG15aG9zdC5teWRvbWFpboIJAM81he6Avyo+MBMGA1Ud
JQQMMAoGCCsGAQUFBwMCMAsGA1UdDwQEAwIHgDANBgkqhkiG9w0BAQQFAAOCAgEA
oGi8LaFZt6NWVbFpc84iuxKn1OdGs3Lj2Fn78aV2UypT4J9cY0Kia2/Fa49fPjfa
EtRRsgnHcvvB6n5E1HgfeCZNwiCvACW2U+pzrFg6sAj9sHguip5LNh9e4j3MZF+A
JB9c6xs48ZnrvERI6QhgXBa6b2/nxz6oFBvd5eiNvShSe0LMcI1ByH3PXhT2DpjO
GUy4DFE6K2PKfYcd+MHiZDZhoX1ingcEZKIkG57EP1pxL8w/fN3ay7D5EqqRF/G1
TzqPCqpLrcdPY2jDPKJWyZTl7t357dxJ7WYBD64cIwd3A5OTtB5i1uH1ExXgRJeG
QZMOK334b0rwgvzDcfV5i/EGZoQl8sZTDyqxET8NuUHfOP5DZbzzZBbKXwyNKt+w
RReNfT8IUp/n7D+BQixY2bWI5VYGYKdmDc1SPu1/7thwZhbSM8kRMXt6kzIIGg5x
Dn+SvF+aOHvFJTMNTb07PVona6R4ritwkhCjZ+h59bXCe/JuTXOl9qhnLg39RFkJ
d2C58lkAXXB3AjjjYHd03JCnGMpg8ONNbhva0dEYkl1V0KCLlj/1iJdKmRyAtv1/
C2zt4xkgnwchux2pYN2k7jFr/2SEHooFSTKLXEtS5EfJHZGCilhCDU25CaBeAsTR
gecIrOt1Bv8IClaMCQf2xqdwDRJQDR5EQnVq+U21b0M=
-----END CERTIFICATE-----
