Certificate:
    Data:
        Version: 3 (0x2)
        Serial Number: 3518 (0xdbe)
    Signature Algorithm: md5WithRSAEncryption
        Issuer: C=US, ST=OH, L=Columbus, O=VikingVPN, OU=MyOrganizationalUnit, CN=VikingVPN CA/name=EasyRSA/emailAddress=me@myhost.mydomain
        Validity
            Not Before: Nov 27 15:07:22 2014 GMT
            Not After : Nov 24 15:07:22 2024 GMT
        Subject: CN=Client1206Certee3f38
        Subject Public Key Info:
            Public Key Algorithm: rsaEncryption
                Public-Key: (4096 bit)
                Modulus:
                    00:eb:79:2f:d1:da:54:1f:8e:7c:47:7c:bc:ae:da:
                    1f:f1:7f:08:85:f9:f0:7a:26:4c:bd:1b:41:d5:db:
                    d3:ab:0a:71:0c:9f:2e:b4:ba:0d:eb:d8:e2:4d:a1:
                    7c:ea:75:91:32:fc:d5:b2:da:07:3b:c3:70:13:5c:
                    62:04:33:58:0e:e4:6a:7f:ca:13:09:fe:ef:eb:00:
                    bb:24:ed:32:47:c9:12:01:6b:0d:2b:0f:d0:d5:4b:
                    d2:f2:62:5a:3a:ed:ad:39:66:23:43:67:41:09:31:
                    1a:5d:66:c6:e8:05:63:b9:9c:06:05:5d:67:84:a1:
                    81:db:48:6f:fc:e0:2d:c4:79:3e:c4:7d:c0:21:10:
                    62:92:08:84:33:b5:8b:3c:4b:17:63:7b:3c:cc:f1:
                    1c:7d:d9:50:3e:18:08:03:d1:da:3a:c0:5e:99:e8:
                    8c:cd:d0:cc:39:d2:cd:39:bb:e8:11:0a:38:7f:69:
                    99:e0:6a:d4:2d:bb:77:6d:66:8e:02:af:8f:f5:89:
                    5a:04:9f:3c:40:be:62:bd:da:c2:40:c1:33:b6:28:
                    ad:7b:dc:65:58:8f:ef:ff:a7:5c:45:9e:cd:56:d5:
                    ed:63:21:88:bb:59:01:5f:cf:9c:9e:2a:92:ac:c2:
                    6c:c8:25:b4:f6:b6:60:ac:f9:f0:32:8f:53:94:06:
                    52:82:e3:23:9a:b3:f8:d1:ec:65:62:aa:d0:89:96:
                    ce:c6:64:0f:3c:ab:fe:3e:64:8a:9d:71:5c:02:28:
                    9c:52:40:c4:e8:5a:cc:a4:f3:41:7c:09:ef:fa:4b:
                    4e:d5:6e:63:f2:05:94:16:23:4b:6c:01:83:85:1c:
                    4d:1f:70:35:a4:84:3d:b9:a3:7d:84:46:dd:50:3d:
                    4e:63:a1:59:92:07:db:55:fd:45:a9:05:ee:5a:dd:
                    16:9b:26:4c:46:b8:92:9f:6f:4e:4d:2d:bf:73:cc:
                    01:89:a9:9e:5a:c4:d3:cd:25:7d:a4:a0:98:17:1c:
                    7a:d1:b0:ae:15:67:24:05:c7:2e:9f:2d:f0:aa:db:
                    d3:3f:26:e1:47:a7:1c:99:17:ed:ac:e4:11:da:17:
                    dc:eb:64:6a:58:e3:2d:f2:7f:5d:b7:26:f7:10:b0:
                    16:cf:0c:4b:1f:29:d8:b2:1a:db:16:c2:61:d0:05:
                    3e:fc:a5:cf:b0:a9:1d:36:88:5b:12:c2:0d:d4:84:
                    28:e2:ab:7f:3e:7d:a5:c2:8f:e0:0e:0a:a3:34:cc:
                    ef:3f:ad:ee:46:ed:cf:7f:72:7e:30:20:56:d1:b6:
                    f6:9a:8e:3b:33:dd:99:e0:58:6a:16:06:4b:33:e6:
                    07:b8:35:8e:5a:b4:3a:c1:07:6d:51:a3:e7:2a:a6:
                    57:4e:43
                Exponent: 65537 (0x10001)
        X509v3 extensions:
            X509v3 Basic Constraints: 
                CA:FALSE
            Netscape Comment: 
                Easy-RSA Generated Certificate
            X509v3 Subject Key Identifier: 
                E9:53:17:6A:B0:0C:36:65:4F:5E:72:65:77:CE:E6:B0:37:8B:5A:F8
            X509v3 Authority Key Identifier: 
                keyid:12:CD:60:04:D2:A0:80:9E:70:ED:C6:99:B8:7B:2C:C6:52:FD:19:A1
                DirName:/C=US/ST=OH/L=Columbus/O=VikingVPN/OU=MyOrganizationalUnit/CN=VikingVPN CA/name=EasyRSA/emailAddress=me@myhost.mydomain
                serial:CF:35:85:EE:80:BF:2A:3E

            X509v3 Extended Key Usage: 
                TLS Web Client Authentication
            X509v3 Key Usage: 
                Digital Signature
    Signature Algorithm: md5WithRSAEncryption
         a6:96:9c:c2:e4:13:b3:b2:72:03:df:21:eb:99:9d:6d:4c:e4:
         ad:d0:85:c0:6c:65:55:17:76:9c:60:f0:ec:b8:69:1f:f2:50:
         9e:a0:67:14:bc:63:18:5a:88:52:f3:17:64:c2:bb:47:ee:85:
         57:ea:3e:1c:c9:d8:25:8e:70:c9:0c:c1:d5:f2:f0:55:18:4a:
         e9:70:b5:e0:47:dc:9a:d9:52:06:3e:c2:c8:54:d4:43:21:40:
         ac:12:0f:88:11:97:d2:30:aa:47:66:9c:fd:41:b3:86:cd:d8:
         ef:26:55:37:3d:4d:e3:13:19:03:95:de:72:d0:c2:ad:30:4f:
         16:8e:69:46:15:f3:46:f4:89:30:82:77:30:4c:55:0d:a3:a8:
         c9:25:36:a7:ea:84:55:d4:ef:a5:f5:17:cc:48:45:ef:b4:40:
         a1:43:01:5a:b4:d4:b2:14:73:cc:b1:a9:d4:64:c9:21:91:8e:
         27:9f:50:31:9c:f1:54:dc:4d:d6:26:f8:59:e7:5c:ef:dc:77:
         ef:5f:b3:71:bc:cd:8b:56:9c:fb:03:04:6b:b1:c6:fd:70:4f:
         17:e7:b3:d1:96:70:a0:54:ac:12:f8:a1:7f:b1:76:9c:86:3e:
         ba:9f:a1:0f:7b:6c:4d:e0:48:0a:f3:2a:ec:90:bd:80:39:8c:
         c0:fd:f9:2f:ec:27:2f:8e:39:23:55:c3:40:a1:4b:b4:07:17:
         6c:07:ec:5b:be:aa:d4:f6:47:b5:00:b8:20:76:a0:a7:c7:27:
         23:10:05:38:bd:31:4c:26:a0:c8:9d:9c:5f:e4:d7:94:78:3c:
         9b:ad:9b:31:38:d7:44:3d:5a:84:ca:33:1f:7b:d2:52:d5:9d:
         ae:11:d8:81:1a:20:1a:61:2c:ac:1f:ca:63:49:f0:da:7d:39:
         7c:de:86:19:34:1a:12:df:fe:72:17:ea:94:e4:75:cb:dd:7e:
         ed:77:1b:92:e6:74:ae:7d:22:b6:fb:85:58:32:c8:da:59:d6:
         3f:19:e4:3e:0c:de:4b:94:33:ce:9f:6a:f1:ba:e6:58:bb:40:
         17:38:d8:e8:20:9f:fd:c5:5f:36:51:5b:8a:b9:d0:53:11:7a:
         ff:7c:41:e2:0a:67:77:06:9b:b7:e8:a4:53:3b:ee:aa:17:8b:
         f9:31:ed:41:5e:b8:f2:0e:ed:62:fc:2a:5a:50:e1:4b:f6:11:
         30:22:8a:dc:e1:33:2c:81:5a:37:33:03:42:b1:14:be:6e:5d:
         f6:37:d4:c0:fb:ba:c6:37:20:14:1b:61:ed:98:3c:80:7c:91:
         0c:1f:d4:31:9d:61:95:3e:76:7f:2e:b0:d2:8d:93:35:0b:a6:
         5d:69:a3:5a:e3:5c:d4:ee
-----BEGIN CERTIFICATE-----
MIIGrTCCBJWgAwIBAgICDb4wDQYJKoZIhvcNAQEEBQAwgawxCzAJBgNVBAYTAlVT
MQswCQYDVQQIEwJPSDERMA8GA1UEBxMIQ29sdW1idXMxEjAQBgNVBAoTCVZpa2lu
Z1ZQTjEdMBsGA1UECxMUTXlPcmdhbml6YXRpb25hbFVuaXQxFTATBgNVBAMTDFZp
a2luZ1ZQTiBDQTEQMA4GA1UEKRMHRWFzeVJTQTEhMB8GCSqGSIb3DQEJARYSbWVA
bXlob3N0Lm15ZG9tYWluMB4XDTE0MTEyNzE1MDcyMloXDTI0MTEyNDE1MDcyMlow
HzEdMBsGA1UEAxMUQ2xpZW50MTIwNkNlcnRlZTNmMzgwggIiMA0GCSqGSIb3DQEB
AQUAA4ICDwAwggIKAoICAQDreS/R2lQfjnxHfLyu2h/xfwiF+fB6Jky9G0HV29Or
CnEMny60ug3r2OJNoXzqdZEy/NWy2gc7w3ATXGIEM1gO5Gp/yhMJ/u/rALsk7TJH
yRIBaw0rD9DVS9LyYlo67a05ZiNDZ0EJMRpdZsboBWO5nAYFXWeEoYHbSG/84C3E
eT7EfcAhEGKSCIQztYs8SxdjezzM8Rx92VA+GAgD0do6wF6Z6IzN0Mw50s05u+gR
Cjh/aZngatQtu3dtZo4Cr4/1iVoEnzxAvmK92sJAwTO2KK173GVYj+//p1xFns1W
1e1jIYi7WQFfz5yeKpKswmzIJbT2tmCs+fAyj1OUBlKC4yOas/jR7GViqtCJls7G
ZA88q/4+ZIqdcVwCKJxSQMToWsyk80F8Ce/6S07VbmPyBZQWI0tsAYOFHE0fcDWk
hD25o32ERt1QPU5joVmSB9tV/UWpBe5a3RabJkxGuJKfb05NLb9zzAGJqZ5axNPN
JX2koJgXHHrRsK4VZyQFxy6fLfCq29M/JuFHpxyZF+2s5BHaF9zrZGpY4y3yf123
JvcQsBbPDEsfKdiyGtsWwmHQBT78pc+wqR02iFsSwg3UhCjiq38+faXCj+AOCqM0
zO8/re5G7c9/cn4wIFbRtvaajjsz3ZngWGoWBksz5ge4NY5atDrBB21Ro+cqpldO
QwIDAQABo4IBYzCCAV8wCQYDVR0TBAIwADAtBglghkgBhvhCAQ0EIBYeRWFzeS1S
U0EgR2VuZXJhdGVkIENlcnRpZmljYXRlMB0GA1UdDgQWBBTpUxdqsAw2ZU9ecmV3
zuawN4ta+DCB4QYDVR0jBIHZMIHWgBQSzWAE0qCAnnDtxpm4eyzGUv0ZoaGBsqSB
rzCBrDELMAkGA1UEBhMCVVMxCzAJBgNVBAgTAk9IMREwDwYDVQQHEwhDb2x1bWJ1
czESMBAGA1UEChMJVmlraW5nVlBOMR0wGwYDVQQLExRNeU9yZ2FuaXphdGlvbmFs
VW5pdDEVMBMGA1UEAxMMVmlraW5nVlBOIENBMRAwDgYDVQQpEwdFYXN5UlNBMSEw
HwYJKoZIhvcNAQkBFhJtZUBteWhvc3QubXlkb21haW6CCQDPNYXugL8qPjATBgNV
HSUEDDAKBggrBgEFBQcDAjALBgNVHQ8EBAMCB4AwDQYJKoZIhvcNAQEEBQADggIB
AKaWnMLkE7OycgPfIeuZnW1M5K3QhcBsZVUXdpxg8Oy4aR/yUJ6gZxS8YxhaiFLz
F2TCu0fuhVfqPhzJ2CWOcMkMwdXy8FUYSulwteBH3JrZUgY+wshU1EMhQKwSD4gR
l9IwqkdmnP1Bs4bN2O8mVTc9TeMTGQOV3nLQwq0wTxaOaUYV80b0iTCCdzBMVQ2j
qMklNqfqhFXU76X1F8xIRe+0QKFDAVq01LIUc8yxqdRkySGRjiefUDGc8VTcTdYm
+FnnXO/cd+9fs3G8zYtWnPsDBGuxxv1wTxfns9GWcKBUrBL4oX+xdpyGPrqfoQ97
bE3gSArzKuyQvYA5jMD9+S/sJy+OOSNVw0ChS7QHF2wH7Fu+qtT2R7UAuCB2oKfH
JyMQBTi9MUwmoMidnF/k15R4PJutmzE410Q9WoTKMx970lLVna4R2IEaIBphLKwf
ymNJ8Np9OXzehhk0GhLf/nIX6pTkdcvdfu13G5LmdK59Irb7hVgyyNpZ1j8Z5D4M
3kuUM86favG65li7QBc42Oggn/3FXzZRW4q50FMRev98QeIKZ3cGm7fopFM77qoX
i/kx7UFeuPIO7WL8KlpQ4Uv2ETAiitzhMyyBWjczA0KxFL5uXfY31MD7usY3IBQb
Ye2YPIB8kQwf1DGdYZU+dn8usNKNkzULpl1po1rjXNTu
-----END CERTIFICATE-----
