Certificate:
    Data:
        Version: 3 (0x2)
        Serial Number: 3532 (0xdcc)
    Signature Algorithm: md5WithRSAEncryption
        Issuer: C=US, ST=OH, L=Columbus, O=VikingVPN, OU=MyOrganizationalUnit, CN=VikingVPN CA/name=EasyRSA/emailAddress=me@myhost.mydomain
        Validity
            Not Before: Nov 28 14:23:37 2014 GMT
            Not After : Nov 25 14:23:37 2024 GMT
        Subject: CN=Client1172Cert63cf3f
        Subject Public Key Info:
            Public Key Algorithm: rsaEncryption
                Public-Key: (4096 bit)
                Modulus:
                    00:cd:e4:44:b5:dd:45:82:db:3c:07:18:43:de:3b:
                    01:5b:e1:bb:01:24:5c:15:22:0a:65:89:03:fb:64:
                    6a:ea:67:24:8e:4a:53:c7:22:41:66:d9:db:18:a5:
                    e7:77:e0:a9:df:81:fe:fd:01:95:15:a2:ae:f8:3a:
                    29:1b:66:7a:01:10:51:ea:ec:ba:89:4b:16:7e:c2:
                    54:ba:54:33:23:dc:4d:59:5b:7e:12:7d:f2:5b:54:
                    96:8f:a6:f8:e9:16:7e:28:91:33:ab:e1:22:99:ec:
                    29:99:6e:09:23:17:ff:58:f4:a1:5a:4e:71:14:a6:
                    a5:b5:34:83:c2:3e:49:d5:b6:a9:98:c4:23:ce:ed:
                    0b:3c:3b:fc:93:85:45:72:14:a4:2e:8b:3c:10:42:
                    da:23:ec:1b:d6:2e:eb:28:6b:84:9a:f9:c7:78:a5:
                    1d:ad:17:a3:db:04:81:a4:a5:91:6f:f5:d9:4e:df:
                    f4:3c:95:de:9c:ed:08:45:ea:ff:ec:91:6b:dc:01:
                    c4:c3:6c:63:8c:06:b6:f5:3a:17:2b:4a:05:95:4d:
                    a2:55:ca:b0:20:e4:68:a5:20:83:18:35:1e:02:18:
                    13:ac:cf:e8:9b:c0:be:4c:0a:a5:8b:28:27:44:3f:
                    2d:9b:ec:d1:9b:aa:1f:07:8b:94:0b:ac:69:ef:f6:
                    96:9e:ec:5d:af:5b:4f:3a:22:55:28:a9:40:8a:0c:
                    0c:4c:6b:ea:4b:c5:92:1f:38:a3:6f:57:1a:bc:1f:
                    6f:49:b5:37:c4:14:3c:b4:f3:cc:64:31:c6:5d:77:
                    a4:b9:0c:f8:a4:b8:e0:4c:d1:3e:72:c7:2c:d3:c3:
                    d8:e6:87:b5:6c:11:3b:e9:a8:83:90:8b:3c:8b:80:
                    75:eb:be:19:db:c4:d0:b1:97:9d:10:18:cc:10:99:
                    d8:b5:16:be:b4:87:da:f7:ab:65:7e:76:1e:f1:8d:
                    8b:e0:04:90:64:25:f7:a0:79:d5:ea:d9:85:91:8c:
                    0f:f1:9d:c9:f2:d0:54:67:68:4b:10:97:b9:e6:2e:
                    17:79:6b:92:2a:5e:7b:b5:db:38:5b:f7:f4:c0:2a:
                    fa:3f:21:af:7a:90:b6:95:67:6d:fd:d0:84:9e:88:
                    39:62:84:e4:82:fa:ff:58:4b:82:22:97:6e:75:38:
                    dd:8b:a7:42:ab:3d:b9:79:58:16:10:36:d8:1b:4d:
                    72:bf:7a:a0:51:5a:7e:12:03:88:7f:9a:c2:9e:21:
                    f3:f0:00:d4:af:be:4f:81:6e:6e:1d:13:61:ef:2c:
                    18:12:bf:ae:53:87:2c:4c:35:f0:42:fa:6c:78:c6:
                    9d:64:f0:d4:1a:6c:a0:8d:cf:19:62:02:09:cd:2e:
                    00:18:0d
                Exponent: 65537 (0x10001)
        X509v3 extensions:
            X509v3 Basic Constraints: 
                CA:FALSE
            Netscape Comment: 
                Easy-RSA Generated Certificate
            X509v3 Subject Key Identifier: 
                DF:DF:7C:5A:91:01:19:90:2E:55:7F:D1:27:DB:34:45:82:FD:A0:A4
            X509v3 Authority Key Identifier: 
                keyid:12:CD:60:04:D2:A0:80:9E:70:ED:C6:99:B8:7B:2C:C6:52:FD:19:A1
                DirName:/C=US/ST=OH/L=Columbus/O=VikingVPN/OU=MyOrganizationalUnit/CN=VikingVPN CA/name=EasyRSA/emailAddress=me@myhost.mydomain
                serial:CF:35:85:EE:80:BF:2A:3E

            X509v3 Extended Key Usage: 
                TLS Web Client Authentication
            X509v3 Key Usage: 
                Digital Signature
    Signature Algorithm: md5WithRSAEncryption
         ac:cc:b1:4f:68:15:e8:95:fd:29:5e:f5:83:a3:05:35:ac:53:
         b7:4a:af:40:e1:9b:56:a6:0e:0b:96:3d:50:86:09:fb:ea:a5:
         f9:62:e8:0c:d3:b6:b8:cd:f2:71:8e:a3:d7:91:63:94:be:38:
         45:fe:9a:47:b2:da:35:7f:13:46:94:91:bc:74:c8:6b:25:6d:
         d0:5a:3b:88:4d:cf:08:34:dd:26:8f:de:16:f1:16:00:fd:a2:
         8f:b9:fe:10:2e:37:91:90:5f:d6:05:87:03:30:7e:f7:f5:ac:
         06:4c:10:0d:48:53:57:f5:ec:25:2f:68:c3:8c:a4:56:35:fb:
         75:fd:65:7a:ae:d2:6d:40:3f:f6:d5:fd:fb:ca:78:4d:87:6a:
         7c:3c:28:33:fc:4f:19:5f:25:b3:79:71:81:e8:11:d8:af:f1:
         fd:6c:4d:db:97:9a:fb:47:09:1e:cb:a0:0c:e5:eb:ce:64:ec:
         d0:2f:3c:d0:39:d8:29:06:4a:18:0d:a8:a8:79:86:52:c9:a8:
         81:1d:79:71:f4:51:5f:a8:b1:ee:0b:02:27:2e:58:95:76:91:
         86:d1:39:eb:f4:0a:06:63:8c:26:fe:13:12:7e:f8:e6:0f:9a:
         cd:73:02:ba:62:7c:9e:c1:45:b3:9a:eb:82:79:fa:15:b5:8f:
         a2:c7:d9:ec:6e:a0:3d:08:f1:86:86:51:12:d1:a9:18:09:a5:
         44:e7:b7:59:5b:47:d6:50:27:8f:f5:42:1e:2a:0a:43:97:b6:
         6c:7b:e7:c9:cf:c7:64:62:ed:71:ad:9d:fb:db:da:46:04:ef:
         d8:41:b1:6c:29:35:14:70:b8:64:9b:13:bb:5e:56:e6:7e:cc:
         cc:6b:4e:c4:63:83:a1:2a:e2:d3:a7:af:88:bb:99:cc:a9:78:
         4e:6e:36:0a:03:ff:bf:aa:fc:82:45:af:4c:e7:d2:db:c5:31:
         57:85:6f:a1:bf:64:61:a6:9b:ee:0d:95:e7:56:9e:e4:9f:50:
         e8:bc:2b:1a:fe:27:f1:74:bd:1c:73:59:3e:ab:ce:43:6a:4b:
         de:63:80:30:8d:78:7b:14:4c:36:b2:11:d2:42:5f:a3:3b:93:
         32:85:08:12:aa:41:c6:62:c6:c7:46:67:a3:33:da:8d:54:7a:
         a1:3e:d2:81:36:94:b1:d1:a2:34:02:4e:b1:a5:ab:38:57:60:
         fd:61:15:d7:93:47:a7:f7:97:bb:dc:84:cf:f9:19:86:01:04:
         07:2b:10:b3:73:2b:ea:5e:58:d1:68:ee:97:14:4c:fa:8e:48:
         49:c6:87:f6:77:70:40:4c:58:3f:ff:8e:a8:55:bc:36:d7:6a:
         99:21:7a:5b:dc:e8:60:7d
-----BEGIN CERTIFICATE-----
MIIGrTCCBJWgAwIBAgICDcwwDQYJKoZIhvcNAQEEBQAwgawxCzAJBgNVBAYTAlVT
MQswCQYDVQQIEwJPSDERMA8GA1UEBxMIQ29sdW1idXMxEjAQBgNVBAoTCVZpa2lu
Z1ZQTjEdMBsGA1UECxMUTXlPcmdhbml6YXRpb25hbFVuaXQxFTATBgNVBAMTDFZp
a2luZ1ZQTiBDQTEQMA4GA1UEKRMHRWFzeVJTQTEhMB8GCSqGSIb3DQEJARYSbWVA
bXlob3N0Lm15ZG9tYWluMB4XDTE0MTEyODE0MjMzN1oXDTI0MTEyNTE0MjMzN1ow
HzEdMBsGA1UEAxMUQ2xpZW50MTE3MkNlcnQ2M2NmM2YwggIiMA0GCSqGSIb3DQEB
AQUAA4ICDwAwggIKAoICAQDN5ES13UWC2zwHGEPeOwFb4bsBJFwVIgpliQP7ZGrq
ZySOSlPHIkFm2dsYped34Knfgf79AZUVoq74OikbZnoBEFHq7LqJSxZ+wlS6VDMj
3E1ZW34SffJbVJaPpvjpFn4okTOr4SKZ7CmZbgkjF/9Y9KFaTnEUpqW1NIPCPknV
tqmYxCPO7Qs8O/yThUVyFKQuizwQQtoj7BvWLusoa4Sa+cd4pR2tF6PbBIGkpZFv
9dlO3/Q8ld6c7QhF6v/skWvcAcTDbGOMBrb1OhcrSgWVTaJVyrAg5GilIIMYNR4C
GBOsz+ibwL5MCqWLKCdEPy2b7NGbqh8Hi5QLrGnv9pae7F2vW086IlUoqUCKDAxM
a+pLxZIfOKNvVxq8H29JtTfEFDy088xkMcZdd6S5DPikuOBM0T5yxyzTw9jmh7Vs
ETvpqIOQizyLgHXrvhnbxNCxl50QGMwQmdi1Fr60h9r3q2V+dh7xjYvgBJBkJfeg
edXq2YWRjA/xncny0FRnaEsQl7nmLhd5a5IqXnu12zhb9/TAKvo/Ia96kLaVZ239
0ISeiDlihOSC+v9YS4Iil251ON2Lp0KrPbl5WBYQNtgbTXK/eqBRWn4SA4h/msKe
IfPwANSvvk+Bbm4dE2HvLBgSv65ThyxMNfBC+mx4xp1k8NQabKCNzxliAgnNLgAY
DQIDAQABo4IBYzCCAV8wCQYDVR0TBAIwADAtBglghkgBhvhCAQ0EIBYeRWFzeS1S
U0EgR2VuZXJhdGVkIENlcnRpZmljYXRlMB0GA1UdDgQWBBTf33xakQEZkC5Vf9En
2zRFgv2gpDCB4QYDVR0jBIHZMIHWgBQSzWAE0qCAnnDtxpm4eyzGUv0ZoaGBsqSB
rzCBrDELMAkGA1UEBhMCVVMxCzAJBgNVBAgTAk9IMREwDwYDVQQHEwhDb2x1bWJ1
czESMBAGA1UEChMJVmlraW5nVlBOMR0wGwYDVQQLExRNeU9yZ2FuaXphdGlvbmFs
VW5pdDEVMBMGA1UEAxMMVmlraW5nVlBOIENBMRAwDgYDVQQpEwdFYXN5UlNBMSEw
HwYJKoZIhvcNAQkBFhJtZUBteWhvc3QubXlkb21haW6CCQDPNYXugL8qPjATBgNV
HSUEDDAKBggrBgEFBQcDAjALBgNVHQ8EBAMCB4AwDQYJKoZIhvcNAQEEBQADggIB
AKzMsU9oFeiV/Sle9YOjBTWsU7dKr0Dhm1amDguWPVCGCfvqpfli6AzTtrjN8nGO
o9eRY5S+OEX+mkey2jV/E0aUkbx0yGslbdBaO4hNzwg03SaP3hbxFgD9oo+5/hAu
N5GQX9YFhwMwfvf1rAZMEA1IU1f17CUvaMOMpFY1+3X9ZXqu0m1AP/bV/fvKeE2H
anw8KDP8TxlfJbN5cYHoEdiv8f1sTduXmvtHCR7LoAzl685k7NAvPNA52CkGShgN
qKh5hlLJqIEdeXH0UV+ose4LAicuWJV2kYbROev0CgZjjCb+ExJ++OYPms1zArpi
fJ7BRbOa64J5+hW1j6LH2exuoD0I8YaGURLRqRgJpUTnt1lbR9ZQJ4/1Qh4qCkOX
tmx758nPx2Ri7XGtnfvb2kYE79hBsWwpNRRwuGSbE7teVuZ+zMxrTsRjg6Eq4tOn
r4i7mcypeE5uNgoD/7+q/IJFr0zn0tvFMVeFb6G/ZGGmm+4NledWnuSfUOi8Kxr+
J/F0vRxzWT6rzkNqS95jgDCNeHsUTDayEdJCX6M7kzKFCBKqQcZixsdGZ6Mz2o1U
eqE+0oE2lLHRojQCTrGlqzhXYP1hFdeTR6f3l7vchM/5GYYBBAcrELNzK+peWNFo
7pcUTPqOSEnGh/Z3cEBMWD//jqhVvDbXapkhelvc6GB9
-----END CERTIFICATE-----
