Certificate:
    Data:
        Version: 3 (0x2)
        Serial Number: 3533 (0xdcd)
    Signature Algorithm: md5WithRSAEncryption
        Issuer: C=US, ST=OH, L=Columbus, O=VikingVPN, OU=MyOrganizationalUnit, CN=VikingVPN CA/name=EasyRSA/emailAddress=me@myhost.mydomain
        Validity
            Not Before: Nov 28 16:06:23 2014 GMT
            Not After : Nov 25 16:06:23 2024 GMT
        Subject: CN=Client1062Cert6a5c56
        Subject Public Key Info:
            Public Key Algorithm: rsaEncryption
                Public-Key: (4096 bit)
                Modulus:
                    00:d1:61:b2:fd:85:37:eb:28:0d:55:f1:be:63:ec:
                    49:c8:55:2e:85:e3:63:3a:c1:0c:0c:6f:9c:8f:e2:
                    80:33:d4:d5:e7:1b:92:ff:e6:44:94:9d:dc:ac:39:
                    30:ad:92:26:a4:a3:9b:08:53:c2:b5:1d:65:3a:37:
                    5d:1e:3b:4d:c3:b6:20:76:cf:7a:3b:08:c1:9d:3b:
                    af:7f:58:62:9e:99:8e:c6:5d:8f:72:71:7d:be:0a:
                    77:7e:67:b4:0a:33:72:1f:0d:61:0c:7f:20:2d:ad:
                    41:4f:a8:06:89:e6:17:49:42:a9:d5:54:01:5e:3f:
                    79:e8:42:5b:6d:73:82:6b:ea:d2:7f:ef:3b:e5:3b:
                    cc:45:97:68:26:b1:99:b2:32:ce:7f:00:17:27:c9:
                    2f:52:ec:58:b0:47:4f:63:24:a2:e8:ec:02:92:cb:
                    54:5b:fc:14:46:86:ae:c6:93:9f:3b:94:42:c9:8e:
                    e4:47:17:f9:1a:3b:0d:46:fd:05:a0:5a:39:2c:6f:
                    0d:eb:42:f4:46:de:15:85:44:9f:7b:6b:35:a4:c2:
                    6e:3f:62:5b:70:b6:34:5f:38:8b:58:d0:4b:a1:63:
                    c8:e7:e5:cb:fe:94:96:0c:f4:a0:18:fb:de:f0:bb:
                    76:d7:1e:71:ff:ea:c4:e4:09:f1:da:cf:77:48:c3:
                    9a:73:a0:44:1a:cb:38:b2:b6:ee:24:ea:3f:11:87:
                    dd:c2:bb:2a:94:0d:a9:c8:d2:f6:b4:b6:8a:80:f5:
                    5e:b4:7d:f9:74:9a:23:5e:e0:7e:b0:35:07:5f:dc:
                    27:78:74:bf:cd:9a:1f:d0:0d:ac:18:e0:bd:12:39:
                    94:aa:b2:1c:9b:a6:35:06:43:ab:2b:0a:5d:fc:e8:
                    a7:66:24:76:14:bb:37:54:dd:af:7c:04:dd:a5:39:
                    b9:41:5c:4c:3f:60:2c:fd:33:74:52:68:38:2e:6a:
                    4b:0e:43:ad:a1:ef:0f:95:72:d9:d0:ce:07:e6:42:
                    b8:be:10:0d:8d:25:9c:bc:dd:af:1d:5f:36:ab:76:
                    19:1d:17:65:9f:6a:a1:f1:f5:d2:68:72:d0:c6:9d:
                    18:11:74:8b:b4:8c:a0:62:72:3c:95:6a:98:0b:d9:
                    f1:d6:ff:8d:f0:7c:db:b0:10:92:a0:54:2c:a1:6e:
                    42:ef:67:2d:5f:9f:17:75:02:c5:13:9b:fb:04:79:
                    9b:74:ba:b0:69:5a:be:c5:87:49:d7:76:07:5f:2a:
                    17:13:05:de:ac:0b:38:32:8e:2f:c8:4f:bd:9a:46:
                    26:fd:93:56:69:69:57:cf:b0:74:d9:11:60:16:b2:
                    37:b4:c5:53:b2:d4:2c:b0:ea:b2:fc:22:51:2e:12:
                    f8:98:cb
                Exponent: 65537 (0x10001)
        X509v3 extensions:
            X509v3 Basic Constraints: 
                CA:FALSE
            Netscape Comment: 
                Easy-RSA Generated Certificate
            X509v3 Subject Key Identifier: 
                05:02:4E:ED:69:C3:66:71:B1:69:A4:6D:A4:1C:24:A0:23:79:5C:F3
            X509v3 Authority Key Identifier: 
                keyid:12:CD:60:04:D2:A0:80:9E:70:ED:C6:99:B8:7B:2C:C6:52:FD:19:A1
                DirName:/C=US/ST=OH/L=Columbus/O=VikingVPN/OU=MyOrganizationalUnit/CN=VikingVPN CA/name=EasyRSA/emailAddress=me@myhost.mydomain
                serial:CF:35:85:EE:80:BF:2A:3E

            X509v3 Extended Key Usage: 
                TLS Web Client Authentication
            X509v3 Key Usage: 
                Digital Signature
    Signature Algorithm: md5WithRSAEncryption
         e1:47:26:ac:dd:91:a5:c3:71:e3:8e:36:4a:8e:99:25:d1:f1:
         f6:0c:71:3d:ae:65:f7:8f:b5:74:66:66:84:9d:3a:1e:20:2f:
         44:90:41:76:35:17:5f:52:d2:2a:5a:cd:f8:06:58:72:fc:c6:
         f1:4b:98:8a:fd:a7:29:bc:cc:35:bb:19:94:c5:0d:e5:62:03:
         fb:df:94:03:77:29:25:cc:76:63:a4:3e:5f:c8:ba:48:4e:cb:
         0c:04:0c:7e:83:7c:14:00:74:09:d1:55:11:62:15:fa:61:f3:
         95:aa:97:7d:55:db:a5:3a:a3:7f:04:6a:b0:ed:93:d2:8d:38:
         dd:23:6b:41:63:6d:3c:c9:76:21:ba:fb:a0:05:ac:35:eb:bd:
         d0:ae:ad:ea:26:2f:2b:61:d7:5e:60:e4:61:75:89:5b:05:55:
         89:f8:67:d1:de:ec:ba:5a:d3:3a:99:c1:3f:71:cf:1d:0d:a8:
         44:d6:1c:a1:bd:a6:e9:0b:3a:dc:e0:3c:53:1b:79:e6:74:59:
         db:57:57:f3:65:5c:5f:11:21:f5:b9:fe:6e:a2:93:58:42:fc:
         2c:40:8a:fb:9d:0f:c8:18:50:9b:0b:c4:29:f7:cd:3d:d1:d1:
         bd:a1:24:e9:ce:7c:54:09:de:77:9a:42:5b:6a:b1:ae:44:56:
         3a:c4:71:4c:d6:7e:92:6b:ce:04:88:e0:72:94:ae:55:38:f9:
         14:65:87:17:85:df:f9:79:38:86:66:7c:2f:d1:35:a0:76:1b:
         7e:6e:8b:41:96:5f:44:37:63:f8:9a:4f:75:6d:1e:56:d1:8c:
         f6:8c:e4:96:ee:fd:9c:83:b0:9e:70:5a:c3:5d:01:89:77:bf:
         b7:a7:fb:59:9a:e1:55:a8:ac:d3:99:8b:9a:7f:b0:a4:95:ed:
         40:01:a5:60:06:e2:d8:06:8c:cc:98:8a:f2:e9:f7:7b:9a:83:
         80:d2:c9:cb:23:be:31:5d:90:b3:02:53:c8:6b:ba:ea:52:6a:
         3f:05:8f:13:55:fc:2b:7b:9b:52:67:14:23:b6:e3:bf:98:9f:
         90:60:01:49:2a:65:ee:c8:1f:46:6d:3f:e3:cc:52:a7:c2:95:
         49:ff:5d:c9:67:a2:af:b9:2b:07:67:e8:e2:76:e2:c5:76:5d:
         b4:5a:a0:57:58:41:a6:99:bb:a2:1f:5e:9e:52:a1:fa:33:f6:
         58:b6:97:b7:2c:81:97:ce:b0:62:81:c7:16:a4:af:20:1f:f7:
         77:36:78:77:c5:2c:91:53:85:36:41:2a:5f:8e:08:df:40:8b:
         7e:be:c7:13:45:49:7f:4c:a4:5a:ec:72:9d:ee:30:fb:42:b0:
         4b:16:36:bb:62:cb:14:c4
-----BEGIN CERTIFICATE-----
MIIGrTCCBJWgAwIBAgICDc0wDQYJKoZIhvcNAQEEBQAwgawxCzAJBgNVBAYTAlVT
MQswCQYDVQQIEwJPSDERMA8GA1UEBxMIQ29sdW1idXMxEjAQBgNVBAoTCVZpa2lu
Z1ZQTjEdMBsGA1UECxMUTXlPcmdhbml6YXRpb25hbFVuaXQxFTATBgNVBAMTDFZp
a2luZ1ZQTiBDQTEQMA4GA1UEKRMHRWFzeVJTQTEhMB8GCSqGSIb3DQEJARYSbWVA
bXlob3N0Lm15ZG9tYWluMB4XDTE0MTEyODE2MDYyM1oXDTI0MTEyNTE2MDYyM1ow
HzEdMBsGA1UEAxMUQ2xpZW50MTA2MkNlcnQ2YTVjNTYwggIiMA0GCSqGSIb3DQEB
AQUAA4ICDwAwggIKAoICAQDRYbL9hTfrKA1V8b5j7EnIVS6F42M6wQwMb5yP4oAz
1NXnG5L/5kSUndysOTCtkiako5sIU8K1HWU6N10eO03DtiB2z3o7CMGdO69/WGKe
mY7GXY9ycX2+Cnd+Z7QKM3IfDWEMfyAtrUFPqAaJ5hdJQqnVVAFeP3noQlttc4Jr
6tJ/7zvlO8xFl2gmsZmyMs5/ABcnyS9S7FiwR09jJKLo7AKSy1Rb/BRGhq7Gk587
lELJjuRHF/kaOw1G/QWgWjksbw3rQvRG3hWFRJ97azWkwm4/YltwtjRfOItY0Euh
Y8jn5cv+lJYM9KAY+97wu3bXHnH/6sTkCfHaz3dIw5pzoEQayziytu4k6j8Rh93C
uyqUDanI0va0toqA9V60ffl0miNe4H6wNQdf3Cd4dL/Nmh/QDawY4L0SOZSqshyb
pjUGQ6srCl386KdmJHYUuzdU3a98BN2lOblBXEw/YCz9M3RSaDguaksOQ62h7w+V
ctnQzgfmQri+EA2NJZy83a8dXzardhkdF2WfaqHx9dJoctDGnRgRdIu0jKBicjyV
apgL2fHW/43wfNuwEJKgVCyhbkLvZy1fnxd1AsUTm/sEeZt0urBpWr7Fh0nXdgdf
KhcTBd6sCzgyji/IT72aRib9k1ZpaVfPsHTZEWAWsje0xVOy1Cyw6rL8IlEuEviY
ywIDAQABo4IBYzCCAV8wCQYDVR0TBAIwADAtBglghkgBhvhCAQ0EIBYeRWFzeS1S
U0EgR2VuZXJhdGVkIENlcnRpZmljYXRlMB0GA1UdDgQWBBQFAk7tacNmcbFppG2k
HCSgI3lc8zCB4QYDVR0jBIHZMIHWgBQSzWAE0qCAnnDtxpm4eyzGUv0ZoaGBsqSB
rzCBrDELMAkGA1UEBhMCVVMxCzAJBgNVBAgTAk9IMREwDwYDVQQHEwhDb2x1bWJ1
czESMBAGA1UEChMJVmlraW5nVlBOMR0wGwYDVQQLExRNeU9yZ2FuaXphdGlvbmFs
VW5pdDEVMBMGA1UEAxMMVmlraW5nVlBOIENBMRAwDgYDVQQpEwdFYXN5UlNBMSEw
HwYJKoZIhvcNAQkBFhJtZUBteWhvc3QubXlkb21haW6CCQDPNYXugL8qPjATBgNV
HSUEDDAKBggrBgEFBQcDAjALBgNVHQ8EBAMCB4AwDQYJKoZIhvcNAQEEBQADggIB
AOFHJqzdkaXDceOONkqOmSXR8fYMcT2uZfePtXRmZoSdOh4gL0SQQXY1F19S0ipa
zfgGWHL8xvFLmIr9pym8zDW7GZTFDeViA/vflAN3KSXMdmOkPl/IukhOywwEDH6D
fBQAdAnRVRFiFfph85Wql31V26U6o38EarDtk9KNON0ja0FjbTzJdiG6+6AFrDXr
vdCureomLyth115g5GF1iVsFVYn4Z9He7Lpa0zqZwT9xzx0NqETWHKG9pukLOtzg
PFMbeeZ0WdtXV/NlXF8RIfW5/m6ik1hC/CxAivudD8gYUJsLxCn3zT3R0b2hJOnO
fFQJ3neaQltqsa5EVjrEcUzWfpJrzgSI4HKUrlU4+RRlhxeF3/l5OIZmfC/RNaB2
G35ui0GWX0Q3Y/iaT3VtHlbRjPaM5Jbu/ZyDsJ5wWsNdAYl3v7en+1ma4VWorNOZ
i5p/sKSV7UABpWAG4tgGjMyYivLp93uag4DSycsjvjFdkLMCU8hruupSaj8FjxNV
/Ct7m1JnFCO247+Yn5BgAUkqZe7IH0ZtP+PMUqfClUn/Xclnoq+5Kwdn6OJ24sV2
XbRaoFdYQaaZu6IfXp5Sofoz9li2l7csgZfOsGKBxxakryAf93c2eHfFLJFThTZB
Kl+OCN9Ai36+xxNFSX9MpFrscp3uMPtCsEsWNrtiyxTE
-----END CERTIFICATE-----
