Certificate:
    Data:
        Version: 3 (0x2)
        Serial Number: 3540 (0xdd4)
    Signature Algorithm: md5WithRSAEncryption
        Issuer: C=US, ST=OH, L=Columbus, O=VikingVPN, OU=MyOrganizationalUnit, CN=VikingVPN CA/name=EasyRSA/emailAddress=me@myhost.mydomain
        Validity
            Not Before: Nov 29 00:26:33 2014 GMT
            Not After : Nov 26 00:26:33 2024 GMT
        Subject: CN=Client1214Certfce518
        Subject Public Key Info:
            Public Key Algorithm: rsaEncryption
                Public-Key: (4096 bit)
                Modulus:
                    00:bd:40:5a:4e:53:ee:28:9e:c4:4c:28:65:6f:b8:
                    d1:f1:04:88:91:cb:59:04:7c:10:08:5c:f7:9b:a1:
                    52:d4:f1:7b:8d:e5:69:b6:27:d3:30:03:5c:27:37:
                    e5:fa:d9:00:83:cd:18:4e:8b:45:7d:15:c4:5f:a1:
                    b4:b1:40:46:4f:86:ed:fc:f4:c6:65:95:aa:ed:e3:
                    be:59:31:b7:bd:75:eb:45:f5:4e:64:cf:a9:6b:c7:
                    11:61:8c:a6:84:18:29:2b:f6:e7:86:99:40:7e:22:
                    d2:df:23:fb:b9:2d:4e:9e:d9:ac:36:1b:8b:f6:af:
                    5f:c8:a5:43:8b:db:bf:c7:0e:a2:7f:af:9c:72:c9:
                    78:44:da:d0:2d:fa:96:d0:a8:fe:70:2c:eb:d1:dc:
                    c6:ae:93:22:5a:73:7c:aa:61:e8:63:e4:4b:a5:de:
                    89:aa:d6:46:5e:e6:79:bc:5a:0a:e5:8d:29:99:4b:
                    2f:69:c0:7b:7b:f5:1f:fc:5c:cb:e6:9f:20:95:fc:
                    d7:c9:9f:58:09:0b:ea:48:ae:6e:c3:80:22:73:a0:
                    4d:02:cc:27:a0:5a:22:e9:4d:b7:66:4a:2b:1c:eb:
                    94:70:c6:42:1f:bf:09:74:19:88:c9:5d:86:58:24:
                    6c:50:84:72:27:6a:bd:24:99:a2:c8:9b:ff:25:77:
                    dc:eb:50:1c:09:70:61:8c:39:cb:3a:d4:95:0b:3c:
                    44:a6:a7:55:a2:30:90:8d:a9:8a:8c:50:1a:30:58:
                    db:0e:55:bb:8d:21:12:f3:f5:b7:14:fd:6f:b0:2b:
                    b3:91:57:2d:c0:14:3b:df:5b:34:f5:7b:bf:c9:91:
                    16:8d:61:34:e2:0a:30:17:45:4f:d1:44:ab:39:50:
                    89:67:a6:72:f5:4a:c2:f2:81:6d:2c:28:ff:09:18:
                    c5:93:f1:06:23:94:14:85:db:07:c2:b1:b5:fc:80:
                    c4:36:e2:2e:2c:90:1f:37:53:61:7e:f2:ac:1e:1a:
                    96:44:64:5f:63:ea:ce:a3:af:fd:98:16:fb:7e:27:
                    30:83:d0:a7:44:06:8b:be:e5:fd:3e:3d:ed:6c:e0:
                    26:74:98:0a:74:3a:55:1e:e2:f5:92:f4:be:f9:4d:
                    39:18:1b:95:5b:2c:ac:d0:67:26:a0:3d:71:2a:55:
                    bc:5b:41:18:84:3d:c7:dc:31:08:14:16:80:a4:6a:
                    47:9e:c1:c1:e2:5f:ec:81:3f:ec:11:23:31:a9:40:
                    05:01:bf:04:6a:78:04:dc:e3:60:5a:4e:18:b7:c8:
                    21:2d:06:d3:10:52:cd:07:61:cb:9c:04:05:4e:a3:
                    0e:ef:7f:9c:2d:22:15:29:f0:73:13:34:f6:3d:c0:
                    92:5b:31
                Exponent: 65537 (0x10001)
        X509v3 extensions:
            X509v3 Basic Constraints: 
                CA:FALSE
            Netscape Comment: 
                Easy-RSA Generated Certificate
            X509v3 Subject Key Identifier: 
                EA:B2:DE:C7:E2:69:68:5D:FE:89:79:F8:F1:43:51:D1:B7:B4:DD:2B
            X509v3 Authority Key Identifier: 
                keyid:12:CD:60:04:D2:A0:80:9E:70:ED:C6:99:B8:7B:2C:C6:52:FD:19:A1
                DirName:/C=US/ST=OH/L=Columbus/O=VikingVPN/OU=MyOrganizationalUnit/CN=VikingVPN CA/name=EasyRSA/emailAddress=me@myhost.mydomain
                serial:CF:35:85:EE:80:BF:2A:3E

            X509v3 Extended Key Usage: 
                TLS Web Client Authentication
            X509v3 Key Usage: 
                Digital Signature
    Signature Algorithm: md5WithRSAEncryption
         88:54:c2:c6:b6:1d:66:33:aa:fd:18:c8:f8:33:65:b4:7e:74:
         03:50:cc:52:82:e5:74:b2:41:24:11:f2:26:0e:68:c9:a6:b1:
         6a:5a:51:27:c5:52:d4:0a:54:bc:f8:69:89:a6:12:59:ee:52:
         1b:4a:9c:ff:59:96:c8:72:eb:1f:f4:0c:59:ae:a0:ed:59:ab:
         fd:f2:34:62:35:10:5f:fe:88:c6:fe:39:47:71:02:83:f9:fd:
         1c:5f:83:c6:83:7f:f8:df:39:b3:e7:65:00:fe:cb:8d:8e:38:
         3e:2a:84:98:86:b6:b5:ab:cb:04:40:32:72:ae:ce:73:f5:55:
         15:2d:5e:d8:3f:dd:9d:d3:d1:b6:ba:30:19:07:cf:d5:75:85:
         cc:d3:d5:63:c9:0f:90:3c:6f:32:85:0f:27:92:11:f2:a8:08:
         dd:a8:69:c4:9b:bf:64:dd:24:a3:ab:40:4f:04:19:7b:0c:c0:
         4f:ff:50:68:ef:01:c3:f0:9d:46:1c:1e:75:2e:67:eb:40:b5:
         7c:63:1e:13:51:dd:84:24:14:29:6f:fa:9f:20:65:09:20:4d:
         8c:b4:ba:28:6c:82:69:7c:f4:a9:fb:a6:ce:8d:09:ca:a8:c5:
         f7:8e:c6:21:8b:5b:c7:57:ca:65:11:63:3b:78:0a:b2:5a:d5:
         ee:a9:46:6e:4f:31:63:72:77:de:50:c7:0d:4b:d5:82:f3:7a:
         29:09:8d:4d:d7:e0:3d:0e:ac:58:76:6e:2c:6a:2a:ad:84:7e:
         76:0b:6a:8e:30:90:32:3f:c8:57:e7:69:07:e1:d3:ce:44:21:
         bf:4d:e5:c6:e9:78:22:be:d5:22:e8:9f:0c:78:d9:d2:d8:b0:
         2a:72:eb:bc:cb:5c:9f:19:1f:21:c6:7f:00:3a:ed:73:95:9f:
         51:85:6b:57:78:9b:0c:c6:21:e7:1a:bc:a1:29:5f:b5:f6:46:
         10:cd:72:9e:2a:c5:3f:c7:90:71:8a:c5:61:8c:cf:d3:5c:60:
         20:00:a2:2f:98:0e:b5:02:d0:7f:11:a5:85:d3:9f:66:0d:bc:
         f1:60:31:76:d2:d7:4f:dd:c5:6f:d1:e7:a9:e0:92:ab:51:5a:
         4c:dd:7b:32:07:b0:b9:e1:c0:4c:6c:60:b5:ba:25:cb:87:0d:
         cb:f9:56:ba:4b:63:48:5e:bb:46:fc:78:6d:ae:cb:c9:5e:f8:
         5b:44:a3:87:96:df:59:96:83:0c:f7:f8:87:b9:b0:2f:d8:46:
         ae:99:2b:93:d3:7f:55:48:6a:87:d2:96:eb:4d:18:67:45:1b:
         21:43:0f:e0:ff:f7:c3:7d:9b:1b:35:30:21:52:ce:09:b3:37:
         1e:9c:c4:cd:92:e2:dd:bd
-----BEGIN CERTIFICATE-----
MIIGrTCCBJWgAwIBAgICDdQwDQYJKoZIhvcNAQEEBQAwgawxCzAJBgNVBAYTAlVT
MQswCQYDVQQIEwJPSDERMA8GA1UEBxMIQ29sdW1idXMxEjAQBgNVBAoTCVZpa2lu
Z1ZQTjEdMBsGA1UECxMUTXlPcmdhbml6YXRpb25hbFVuaXQxFTATBgNVBAMTDFZp
a2luZ1ZQTiBDQTEQMA4GA1UEKRMHRWFzeVJTQTEhMB8GCSqGSIb3DQEJARYSbWVA
bXlob3N0Lm15ZG9tYWluMB4XDTE0MTEyOTAwMjYzM1oXDTI0MTEyNjAwMjYzM1ow
HzEdMBsGA1UEAxMUQ2xpZW50MTIxNENlcnRmY2U1MTgwggIiMA0GCSqGSIb3DQEB
AQUAA4ICDwAwggIKAoICAQC9QFpOU+4onsRMKGVvuNHxBIiRy1kEfBAIXPeboVLU
8XuN5Wm2J9MwA1wnN+X62QCDzRhOi0V9FcRfobSxQEZPhu389MZllart475ZMbe9
detF9U5kz6lrxxFhjKaEGCkr9ueGmUB+ItLfI/u5LU6e2aw2G4v2r1/IpUOL27/H
DqJ/r5xyyXhE2tAt+pbQqP5wLOvR3MaukyJac3yqYehj5Eul3omq1kZe5nm8Wgrl
jSmZSy9pwHt79R/8XMvmnyCV/NfJn1gJC+pIrm7DgCJzoE0CzCegWiLpTbdmSisc
65RwxkIfvwl0GYjJXYZYJGxQhHInar0kmaLIm/8ld9zrUBwJcGGMOcs61JULPESm
p1WiMJCNqYqMUBowWNsOVbuNIRLz9bcU/W+wK7ORVy3AFDvfWzT1e7/JkRaNYTTi
CjAXRU/RRKs5UIlnpnL1SsLygW0sKP8JGMWT8QYjlBSF2wfCsbX8gMQ24i4skB83
U2F+8qweGpZEZF9j6s6jr/2YFvt+JzCD0KdEBou+5f0+Pe1s4CZ0mAp0OlUe4vWS
9L75TTkYG5VbLKzQZyagPXEqVbxbQRiEPcfcMQgUFoCkakeewcHiX+yBP+wRIzGp
QAUBvwRqeATc42BaThi3yCEtBtMQUs0HYcucBAVOow7vf5wtIhUp8HMTNPY9wJJb
MQIDAQABo4IBYzCCAV8wCQYDVR0TBAIwADAtBglghkgBhvhCAQ0EIBYeRWFzeS1S
U0EgR2VuZXJhdGVkIENlcnRpZmljYXRlMB0GA1UdDgQWBBTqst7H4mloXf6Jefjx
Q1HRt7TdKzCB4QYDVR0jBIHZMIHWgBQSzWAE0qCAnnDtxpm4eyzGUv0ZoaGBsqSB
rzCBrDELMAkGA1UEBhMCVVMxCzAJBgNVBAgTAk9IMREwDwYDVQQHEwhDb2x1bWJ1
czESMBAGA1UEChMJVmlraW5nVlBOMR0wGwYDVQQLExRNeU9yZ2FuaXphdGlvbmFs
VW5pdDEVMBMGA1UEAxMMVmlraW5nVlBOIENBMRAwDgYDVQQpEwdFYXN5UlNBMSEw
HwYJKoZIhvcNAQkBFhJtZUBteWhvc3QubXlkb21haW6CCQDPNYXugL8qPjATBgNV
HSUEDDAKBggrBgEFBQcDAjALBgNVHQ8EBAMCB4AwDQYJKoZIhvcNAQEEBQADggIB
AIhUwsa2HWYzqv0YyPgzZbR+dANQzFKC5XSyQSQR8iYOaMmmsWpaUSfFUtQKVLz4
aYmmElnuUhtKnP9Zlshy6x/0DFmuoO1Zq/3yNGI1EF/+iMb+OUdxAoP5/Rxfg8aD
f/jfObPnZQD+y42OOD4qhJiGtrWrywRAMnKuznP1VRUtXtg/3Z3T0ba6MBkHz9V1
hczT1WPJD5A8bzKFDyeSEfKoCN2oacSbv2TdJKOrQE8EGXsMwE//UGjvAcPwnUYc
HnUuZ+tAtXxjHhNR3YQkFClv+p8gZQkgTYy0uihsgml89Kn7ps6NCcqoxfeOxiGL
W8dXymURYzt4CrJa1e6pRm5PMWNyd95Qxw1L1YLzeikJjU3X4D0OrFh2bixqKq2E
fnYLao4wkDI/yFfnaQfh085EIb9N5cbpeCK+1SLonwx42dLYsCpy67zLXJ8ZHyHG
fwA67XOVn1GFa1d4mwzGIecavKEpX7X2RhDNcp4qxT/HkHGKxWGMz9NcYCAAoi+Y
DrUC0H8RpYXTn2YNvPFgMXbS10/dxW/R56ngkqtRWkzdezIHsLnhwExsYLW6JcuH
Dcv5VrpLY0heu0b8eG2uy8le+FtEo4eW31mWgwz3+Ie5sC/YRq6ZK5PTf1VIaofS
lutNGGdFGyFDD+D/98N9mxs1MCFSzgmzNx6cxM2S4t29
-----END CERTIFICATE-----
