Certificate:
    Data:
        Version: 3 (0x2)
        Serial Number: 3553 (0xde1)
    Signature Algorithm: md5WithRSAEncryption
        Issuer: C=US, ST=OH, L=Columbus, O=VikingVPN, OU=MyOrganizationalUnit, CN=VikingVPN CA/name=EasyRSA/emailAddress=me@myhost.mydomain
        Validity
            Not Before: Nov 30 11:13:31 2014 GMT
            Not After : Nov 27 11:13:31 2024 GMT
        Subject: CN=Client1217Certb89e43
        Subject Public Key Info:
            Public Key Algorithm: rsaEncryption
                Public-Key: (4096 bit)
                Modulus:
                    00:d5:34:cf:13:3e:04:f8:df:9d:38:2d:67:cc:3c:
                    09:13:a7:c9:68:b9:a0:84:a6:c3:db:15:d4:4d:1a:
                    e2:c7:56:b5:f9:4b:3c:e4:59:e4:7a:ef:77:0a:df:
                    ea:d1:67:08:87:0b:c8:bd:9b:4f:e6:de:0b:88:1c:
                    f1:da:0d:e8:28:0b:4c:1e:53:10:1f:46:36:39:ce:
                    5c:5f:bf:18:f7:11:cf:72:ab:3e:cc:4b:ad:2a:66:
                    32:5a:9b:37:50:73:96:8c:27:92:d2:ad:c6:0c:0a:
                    29:1d:08:d7:0e:21:1f:d5:31:72:70:c4:83:08:ec:
                    9d:63:59:57:94:4a:70:b5:2d:7b:db:ee:1c:00:69:
                    c3:9a:85:eb:56:b6:18:49:2f:b2:67:71:22:38:84:
                    0c:1b:53:af:72:80:1d:a1:cd:3c:55:3d:1c:09:7c:
                    05:95:6f:e9:47:7c:30:07:a6:d6:b1:c6:85:e2:84:
                    c7:29:a4:ec:fc:88:26:20:67:ac:b7:c8:73:8a:85:
                    94:31:0b:83:1f:4e:12:14:9f:35:ee:04:54:1c:a4:
                    aa:19:98:0e:b7:eb:2b:83:6c:4d:e3:72:27:09:e9:
                    d7:18:94:b3:f5:37:f6:62:6f:dd:c4:5d:37:5c:e8:
                    be:f2:10:92:cc:bf:5a:ec:e8:68:35:63:aa:63:bb:
                    f6:84:2c:dd:a7:5f:c2:77:54:71:ac:d4:38:01:01:
                    6d:e9:fe:ce:53:a9:8b:b5:f7:1f:6a:03:b3:6e:c1:
                    41:02:60:6d:50:3a:5a:c4:a1:b5:5a:b3:ca:de:46:
                    f0:a3:e4:bc:6d:66:91:c4:95:d5:49:be:bf:3b:0f:
                    8f:cb:9d:0c:c7:f2:da:df:c8:d7:8b:f4:4f:b9:fd:
                    e8:db:37:43:45:f4:2e:35:d1:b2:e1:05:f0:73:ba:
                    47:75:61:e8:62:72:f0:f5:0a:65:d5:0c:6e:5a:9b:
                    f0:0d:98:6a:be:c0:5b:e5:a6:db:3f:3e:06:47:74:
                    19:b4:62:e4:71:bd:12:f4:32:5c:e3:54:35:6e:6f:
                    fc:ca:1d:3f:04:1c:dd:b0:91:16:2f:84:c1:ba:40:
                    80:d4:58:53:cd:ae:3f:47:1d:70:9c:10:3b:3e:51:
                    07:9e:32:a8:c6:15:ec:96:d0:35:4d:8e:18:c8:6b:
                    86:61:3d:12:e6:ce:33:43:b7:0b:e3:b9:5e:63:92:
                    fc:de:d7:3f:9b:46:56:a5:23:72:e9:8a:85:48:30:
                    66:9a:74:0d:86:3e:14:ad:54:29:d6:b1:c3:cc:e1:
                    f8:6e:4b:36:c3:b0:17:92:99:4f:8e:09:40:9e:55:
                    48:ad:67:8f:8a:ed:80:3f:49:5c:d8:4c:d9:13:24:
                    ff:6e:a5
                Exponent: 65537 (0x10001)
        X509v3 extensions:
            X509v3 Basic Constraints: 
                CA:FALSE
            Netscape Comment: 
                Easy-RSA Generated Certificate
            X509v3 Subject Key Identifier: 
                41:32:A0:B8:99:5E:19:1B:7F:F8:9A:71:5C:A6:34:A4:EC:88:C4:69
            X509v3 Authority Key Identifier: 
                keyid:12:CD:60:04:D2:A0:80:9E:70:ED:C6:99:B8:7B:2C:C6:52:FD:19:A1
                DirName:/C=US/ST=OH/L=Columbus/O=VikingVPN/OU=MyOrganizationalUnit/CN=VikingVPN CA/name=EasyRSA/emailAddress=me@myhost.mydomain
                serial:CF:35:85:EE:80:BF:2A:3E

            X509v3 Extended Key Usage: 
                TLS Web Client Authentication
            X509v3 Key Usage: 
                Digital Signature
    Signature Algorithm: md5WithRSAEncryption
         b3:83:97:28:32:f4:13:57:af:da:8f:b9:e9:9e:1f:ce:b8:e9:
         ed:c1:85:88:f2:cb:ef:59:5d:1c:c4:b0:70:61:9c:c9:71:2e:
         33:4b:bc:94:54:b0:a6:65:a7:57:ef:c9:3b:12:76:e5:88:b2:
         9f:e0:0a:7d:6f:20:1b:3d:d5:ac:af:25:68:52:4b:0c:ea:3b:
         7f:27:56:ff:b7:8b:48:2f:4f:df:9c:cb:7a:23:02:c3:86:c3:
         c9:cd:02:36:3c:d5:52:9a:e5:46:33:6a:69:bc:ed:b2:7d:a4:
         c4:52:52:ed:f2:7e:8f:07:e9:55:02:1c:43:de:77:48:0e:64:
         ef:6b:00:d5:b2:4a:e1:2a:e1:73:57:f9:34:7c:63:d5:e9:76:
         73:b0:7f:63:5d:3e:19:fb:5a:59:4a:f5:bb:6e:8b:77:cc:a8:
         3f:6c:37:ec:88:dd:6c:26:8b:e7:5d:c6:58:44:f4:be:d0:c2:
         e4:fe:b2:32:0f:54:2a:45:a1:7b:f5:21:b1:32:3c:39:cc:e5:
         90:55:9d:c5:8b:b8:a2:26:5e:2b:7a:71:a4:3d:96:5c:27:e8:
         31:cf:7e:cd:cf:c2:56:ab:95:87:c9:db:ec:b3:5e:54:9e:98:
         ba:ba:5b:45:26:ab:28:32:5f:c2:78:1e:9e:d3:57:69:43:4f:
         12:56:b3:6d:33:34:de:68:d2:ed:04:86:a6:01:25:d9:02:56:
         ee:b3:36:10:a3:af:7c:43:19:8a:f5:8d:ac:8b:28:7f:ae:5f:
         11:2f:1c:e2:8c:6f:58:2c:96:e5:51:8d:a2:b7:ed:6a:f4:bc:
         52:9e:c8:c1:9e:40:24:7b:5c:ba:6f:bf:0a:c3:a3:aa:1a:30:
         12:47:a8:04:28:29:c2:62:80:73:87:a5:f2:7c:14:4b:7d:90:
         6c:2b:83:4e:67:34:09:e5:d2:27:47:6f:8f:42:96:14:94:24:
         51:8a:26:10:f8:a5:04:37:ae:ef:4b:c2:ee:7d:5b:17:64:37:
         90:ad:07:23:b2:a2:07:c7:ce:b9:eb:3a:a7:b4:03:b8:70:15:
         c3:4f:21:cc:47:dd:c1:65:52:fe:74:57:9f:ee:37:81:d5:70:
         6f:26:63:a8:17:7b:fd:09:36:d5:72:00:e0:d4:65:88:4a:e7:
         8f:de:16:35:e0:47:c8:8d:36:78:95:5b:53:48:b1:cb:16:0e:
         35:67:27:8b:c4:76:76:ec:85:36:b6:55:50:01:04:3f:61:58:
         99:77:cd:35:d9:be:1c:7b:d6:82:24:8f:fa:db:52:36:35:79:
         ee:99:8b:2a:22:26:96:da:6e:ac:1d:71:4a:fd:96:e8:b5:e5:
         72:17:f8:75:e0:bb:4b:82
-----BEGIN CERTIFICATE-----
MIIGrTCCBJWgAwIBAgICDeEwDQYJKoZIhvcNAQEEBQAwgawxCzAJBgNVBAYTAlVT
MQswCQYDVQQIEwJPSDERMA8GA1UEBxMIQ29sdW1idXMxEjAQBgNVBAoTCVZpa2lu
Z1ZQTjEdMBsGA1UECxMUTXlPcmdhbml6YXRpb25hbFVuaXQxFTATBgNVBAMTDFZp
a2luZ1ZQTiBDQTEQMA4GA1UEKRMHRWFzeVJTQTEhMB8GCSqGSIb3DQEJARYSbWVA
bXlob3N0Lm15ZG9tYWluMB4XDTE0MTEzMDExMTMzMVoXDTI0MTEyNzExMTMzMVow
HzEdMBsGA1UEAxMUQ2xpZW50MTIxN0NlcnRiODllNDMwggIiMA0GCSqGSIb3DQEB
AQUAA4ICDwAwggIKAoICAQDVNM8TPgT43504LWfMPAkTp8louaCEpsPbFdRNGuLH
VrX5SzzkWeR673cK3+rRZwiHC8i9m0/m3guIHPHaDegoC0weUxAfRjY5zlxfvxj3
Ec9yqz7MS60qZjJamzdQc5aMJ5LSrcYMCikdCNcOIR/VMXJwxIMI7J1jWVeUSnC1
LXvb7hwAacOahetWthhJL7JncSI4hAwbU69ygB2hzTxVPRwJfAWVb+lHfDAHptax
xoXihMcppOz8iCYgZ6y3yHOKhZQxC4MfThIUnzXuBFQcpKoZmA636yuDbE3jcicJ
6dcYlLP1N/Zib93EXTdc6L7yEJLMv1rs6Gg1Y6pju/aELN2nX8J3VHGs1DgBAW3p
/s5TqYu19x9qA7NuwUECYG1QOlrEobVas8reRvCj5LxtZpHEldVJvr87D4/LnQzH
8trfyNeL9E+5/ejbN0NF9C410bLhBfBzukd1YehicvD1CmXVDG5am/ANmGq+wFvl
pts/PgZHdBm0YuRxvRL0MlzjVDVub/zKHT8EHN2wkRYvhMG6QIDUWFPNrj9HHXCc
EDs+UQeeMqjGFeyW0DVNjhjIa4ZhPRLmzjNDtwvjuV5jkvze1z+bRlalI3LpioVI
MGaadA2GPhStVCnWscPM4fhuSzbDsBeSmU+OCUCeVUitZ4+K7YA/SVzYTNkTJP9u
pQIDAQABo4IBYzCCAV8wCQYDVR0TBAIwADAtBglghkgBhvhCAQ0EIBYeRWFzeS1S
U0EgR2VuZXJhdGVkIENlcnRpZmljYXRlMB0GA1UdDgQWBBRBMqC4mV4ZG3/4mnFc
pjSk7IjEaTCB4QYDVR0jBIHZMIHWgBQSzWAE0qCAnnDtxpm4eyzGUv0ZoaGBsqSB
rzCBrDELMAkGA1UEBhMCVVMxCzAJBgNVBAgTAk9IMREwDwYDVQQHEwhDb2x1bWJ1
czESMBAGA1UEChMJVmlraW5nVlBOMR0wGwYDVQQLExRNeU9yZ2FuaXphdGlvbmFs
VW5pdDEVMBMGA1UEAxMMVmlraW5nVlBOIENBMRAwDgYDVQQpEwdFYXN5UlNBMSEw
HwYJKoZIhvcNAQkBFhJtZUBteWhvc3QubXlkb21haW6CCQDPNYXugL8qPjATBgNV
HSUEDDAKBggrBgEFBQcDAjALBgNVHQ8EBAMCB4AwDQYJKoZIhvcNAQEEBQADggIB
ALODlygy9BNXr9qPuemeH8646e3BhYjyy+9ZXRzEsHBhnMlxLjNLvJRUsKZlp1fv
yTsSduWIsp/gCn1vIBs91ayvJWhSSwzqO38nVv+3i0gvT9+cy3ojAsOGw8nNAjY8
1VKa5UYzamm87bJ9pMRSUu3yfo8H6VUCHEPed0gOZO9rANWySuEq4XNX+TR8Y9Xp
dnOwf2NdPhn7WllK9btui3fMqD9sN+yI3Wwmi+ddxlhE9L7QwuT+sjIPVCpFoXv1
IbEyPDnM5ZBVncWLuKImXit6caQ9llwn6DHPfs3PwlarlYfJ2+yzXlSemLq6W0Um
qygyX8J4Hp7TV2lDTxJWs20zNN5o0u0EhqYBJdkCVu6zNhCjr3xDGYr1jayLKH+u
XxEvHOKMb1gsluVRjaK37Wr0vFKeyMGeQCR7XLpvvwrDo6oaMBJHqAQoKcJigHOH
pfJ8FEt9kGwrg05nNAnl0idHb49ClhSUJFGKJhD4pQQ3ru9Lwu59WxdkN5CtByOy
ogfHzrnrOqe0A7hwFcNPIcxH3cFlUv50V5/uN4HVcG8mY6gXe/0JNtVyAODUZYhK
54/eFjXgR8iNNniVW1NIscsWDjVnJ4vEdnbshTa2VVABBD9hWJl3zTXZvhx71oIk
j/rbUjY1ee6ZiyoiJpbabqwdcUr9lui15XIX+HXgu0uC
-----END CERTIFICATE-----
