Certificate:
    Data:
        Version: 3 (0x2)
        Serial Number: 3558 (0xde6)
    Signature Algorithm: md5WithRSAEncryption
        Issuer: C=US, ST=OH, L=Columbus, O=VikingVPN, OU=MyOrganizationalUnit, CN=VikingVPN CA/name=EasyRSA/emailAddress=me@myhost.mydomain
        Validity
            Not Before: Nov 30 18:53:03 2014 GMT
            Not After : Nov 27 18:53:03 2024 GMT
        Subject: CN=Client1193Cert9b7175
        Subject Public Key Info:
            Public Key Algorithm: rsaEncryption
                Public-Key: (4096 bit)
                Modulus:
                    00:f1:7d:78:95:c3:8c:79:99:6c:f0:9e:a8:07:d2:
                    69:9a:99:55:78:a4:af:f6:3b:cf:10:78:af:5d:7f:
                    c9:be:e9:67:c6:69:a8:82:4b:16:8a:1b:5f:04:ef:
                    c1:db:d8:fb:8c:ed:0a:a2:0c:62:77:43:72:12:a8:
                    19:68:cb:6d:9e:35:97:19:97:75:db:fa:2c:ec:d7:
                    35:72:3e:23:8d:e9:d6:88:ec:a4:51:38:19:5f:9f:
                    cc:05:42:28:18:f5:44:16:81:a2:11:82:43:ae:2d:
                    a1:ab:f3:17:74:71:1b:77:6d:86:5c:f2:f0:df:76:
                    50:5d:b8:c2:29:8e:85:be:b1:07:42:48:c1:a6:db:
                    81:16:a5:66:3f:81:af:35:a5:40:f2:9e:f2:bd:14:
                    c7:2a:7e:02:ae:88:da:8f:51:d7:0d:9f:c8:31:4e:
                    3a:bd:4c:b6:08:21:48:f5:6c:fe:09:af:52:0a:de:
                    d5:a2:6a:fd:54:f6:3d:e5:57:65:0d:6a:58:0e:1f:
                    59:56:1b:97:24:7c:5a:88:fc:bd:65:8c:27:61:ca:
                    be:97:44:ec:95:b4:5a:03:88:73:62:9e:5a:55:98:
                    6e:80:37:31:f4:3c:8d:03:d4:a7:84:83:6f:f6:15:
                    b7:b0:80:5c:1f:be:97:43:93:e7:1e:67:ff:65:5c:
                    f1:d6:6a:85:6c:f9:6b:3c:d4:fb:26:fb:41:da:8f:
                    13:c9:3a:4b:ea:52:cb:11:1b:83:f2:7b:74:c6:05:
                    40:e3:8d:55:3d:86:f1:63:54:69:24:3e:c7:45:58:
                    06:7a:ce:ba:7c:76:2b:ab:8c:07:2c:b6:f6:85:ea:
                    21:91:57:9e:a2:2e:42:6e:bd:56:43:73:73:7f:3b:
                    ea:7a:e9:a8:37:b8:0b:85:a1:3a:3b:a1:bc:77:27:
                    1c:be:c6:6e:ab:bc:a8:2e:a5:99:bf:75:3d:69:71:
                    2e:fd:64:9c:c4:ae:3f:d8:99:e0:7a:2b:4e:79:bc:
                    02:9f:06:4e:ec:97:85:05:0e:a3:ed:44:92:04:48:
                    fc:66:79:f5:f9:33:86:be:ce:1c:44:87:05:71:76:
                    43:27:4c:be:b1:4f:8c:14:3d:c1:27:fe:f0:a1:96:
                    4f:f6:39:c4:1e:94:d2:6a:b2:61:bc:b8:52:75:73:
                    ec:82:7a:4c:97:2a:34:17:c7:7e:8b:ad:e7:ee:2f:
                    05:de:3a:e4:b3:8a:ea:6b:2d:b8:1d:b5:19:53:e4:
                    76:e0:7a:ec:d7:37:9c:e6:56:a9:4b:b9:be:d3:6c:
                    ea:f9:8a:b3:a4:49:10:c7:45:0c:68:54:1c:d0:62:
                    5f:32:40:2f:48:bd:2e:37:1f:5a:88:11:3f:4a:91:
                    9a:3a:dd
                Exponent: 65537 (0x10001)
        X509v3 extensions:
            X509v3 Basic Constraints: 
                CA:FALSE
            Netscape Comment: 
                Easy-RSA Generated Certificate
            X509v3 Subject Key Identifier: 
                71:F4:3F:3F:B7:01:09:D6:41:4F:A8:0D:DB:FF:4D:ED:38:FD:99:26
            X509v3 Authority Key Identifier: 
                keyid:12:CD:60:04:D2:A0:80:9E:70:ED:C6:99:B8:7B:2C:C6:52:FD:19:A1
                DirName:/C=US/ST=OH/L=Columbus/O=VikingVPN/OU=MyOrganizationalUnit/CN=VikingVPN CA/name=EasyRSA/emailAddress=me@myhost.mydomain
                serial:CF:35:85:EE:80:BF:2A:3E

            X509v3 Extended Key Usage: 
                TLS Web Client Authentication
            X509v3 Key Usage: 
                Digital Signature
    Signature Algorithm: md5WithRSAEncryption
         c3:61:76:e5:b3:12:0b:95:8e:e3:c8:6e:d0:a3:93:e9:37:b9:
         54:b0:21:2a:6e:17:42:7b:92:c3:a5:b4:df:21:c2:72:a7:26:
         7a:29:93:1f:d7:48:b4:92:63:6d:70:9a:76:96:d3:13:a4:84:
         6b:e6:61:26:eb:ab:be:b1:73:f0:9e:cc:0c:1a:a2:6e:91:8b:
         be:a5:7a:b9:a3:d2:f5:df:e5:9c:6e:de:b0:38:98:cb:05:e7:
         3d:7a:cd:ff:4a:e0:6f:0e:c1:a1:ed:c2:d7:b6:a9:7f:c9:58:
         48:86:7c:78:61:d7:34:05:a9:cd:e9:a8:b9:bd:bb:eb:7c:56:
         e1:01:d0:85:7e:0d:0f:e3:be:08:05:bb:9c:90:6a:04:b7:4d:
         d2:c5:e2:8b:9d:79:9a:3e:2b:9a:ba:58:7f:cd:9f:59:14:33:
         0a:67:33:2b:0e:ff:d9:86:33:6d:8d:72:d7:59:af:ee:48:83:
         74:79:8f:d6:c1:d3:d3:f2:f5:8e:80:e2:91:16:67:39:11:78:
         65:da:f8:55:de:6f:64:76:b8:23:70:c9:93:2c:f9:55:41:e7:
         a2:0b:7e:b3:c0:82:b6:76:04:05:59:89:70:c2:ec:d8:ad:87:
         d1:fe:45:c4:b0:8d:37:40:33:e2:a5:a3:fa:db:04:c7:39:5a:
         70:60:53:8c:2f:cf:80:0a:d6:44:25:58:81:25:f2:82:d7:fe:
         0a:33:b0:53:42:ed:c7:29:b5:d2:2e:73:23:78:c8:8a:9a:82:
         d8:50:fb:31:13:7f:23:18:9e:22:93:16:74:8e:3b:12:a3:2e:
         97:ef:17:a6:99:55:69:6f:20:6f:b3:58:f6:71:e3:03:a8:2a:
         7c:ab:68:75:5e:9a:91:43:a5:69:0c:b7:51:96:d5:9b:f9:53:
         39:49:9e:bd:a3:9f:68:e8:00:63:d2:a1:53:2e:a1:b3:b6:f0:
         ee:45:8f:81:11:2a:b0:6d:d5:96:c6:e3:f9:e8:2a:b4:a3:b8:
         35:b4:b9:00:a6:70:5f:94:ab:ea:95:25:b4:3d:c3:a6:ed:65:
         c2:16:b5:39:34:f1:e8:f4:ff:f4:d0:a5:27:4b:47:89:27:f9:
         1b:69:15:c9:ba:4d:01:36:6c:e8:67:35:59:15:14:b5:c5:f0:
         1c:b3:fe:20:8a:00:53:17:e5:69:59:4b:a8:a1:b8:5b:24:e9:
         77:19:0f:68:64:cb:82:38:d9:8d:fb:48:a0:2a:6f:ac:99:e8:
         0a:f0:ff:5d:5a:cc:c5:9f:d0:ce:d8:72:a6:29:68:ce:5b:bf:
         ce:40:5d:f7:02:0d:c3:ab:47:ae:9d:00:94:b3:21:37:5a:32:
         3c:9f:4d:f0:48:56:21:a4
-----BEGIN CERTIFICATE-----
MIIGrTCCBJWgAwIBAgICDeYwDQYJKoZIhvcNAQEEBQAwgawxCzAJBgNVBAYTAlVT
MQswCQYDVQQIEwJPSDERMA8GA1UEBxMIQ29sdW1idXMxEjAQBgNVBAoTCVZpa2lu
Z1ZQTjEdMBsGA1UECxMUTXlPcmdhbml6YXRpb25hbFVuaXQxFTATBgNVBAMTDFZp
a2luZ1ZQTiBDQTEQMA4GA1UEKRMHRWFzeVJTQTEhMB8GCSqGSIb3DQEJARYSbWVA
bXlob3N0Lm15ZG9tYWluMB4XDTE0MTEzMDE4NTMwM1oXDTI0MTEyNzE4NTMwM1ow
HzEdMBsGA1UEAxMUQ2xpZW50MTE5M0NlcnQ5YjcxNzUwggIiMA0GCSqGSIb3DQEB
AQUAA4ICDwAwggIKAoICAQDxfXiVw4x5mWzwnqgH0mmamVV4pK/2O88QeK9df8m+
6WfGaaiCSxaKG18E78Hb2PuM7QqiDGJ3Q3ISqBloy22eNZcZl3Xb+izs1zVyPiON
6daI7KRROBlfn8wFQigY9UQWgaIRgkOuLaGr8xd0cRt3bYZc8vDfdlBduMIpjoW+
sQdCSMGm24EWpWY/ga81pUDynvK9FMcqfgKuiNqPUdcNn8gxTjq9TLYIIUj1bP4J
r1IK3tWiav1U9j3lV2UNalgOH1lWG5ckfFqI/L1ljCdhyr6XROyVtFoDiHNinlpV
mG6ANzH0PI0D1KeEg2/2FbewgFwfvpdDk+ceZ/9lXPHWaoVs+Ws81Psm+0HajxPJ
OkvqUssRG4Pye3TGBUDjjVU9hvFjVGkkPsdFWAZ6zrp8diurjAcstvaF6iGRV56i
LkJuvVZDc3N/O+p66ag3uAuFoTo7obx3Jxy+xm6rvKgupZm/dT1pcS79ZJzErj/Y
meB6K055vAKfBk7sl4UFDqPtRJIESPxmefX5M4a+zhxEhwVxdkMnTL6xT4wUPcEn
/vChlk/2OcQelNJqsmG8uFJ1c+yCekyXKjQXx36LrefuLwXeOuSziuprLbgdtRlT
5HbgeuzXN5zmVqlLub7TbOr5irOkSRDHRQxoVBzQYl8yQC9IvS43H1qIET9KkZo6
3QIDAQABo4IBYzCCAV8wCQYDVR0TBAIwADAtBglghkgBhvhCAQ0EIBYeRWFzeS1S
U0EgR2VuZXJhdGVkIENlcnRpZmljYXRlMB0GA1UdDgQWBBRx9D8/twEJ1kFPqA3b
/03tOP2ZJjCB4QYDVR0jBIHZMIHWgBQSzWAE0qCAnnDtxpm4eyzGUv0ZoaGBsqSB
rzCBrDELMAkGA1UEBhMCVVMxCzAJBgNVBAgTAk9IMREwDwYDVQQHEwhDb2x1bWJ1
czESMBAGA1UEChMJVmlraW5nVlBOMR0wGwYDVQQLExRNeU9yZ2FuaXphdGlvbmFs
VW5pdDEVMBMGA1UEAxMMVmlraW5nVlBOIENBMRAwDgYDVQQpEwdFYXN5UlNBMSEw
HwYJKoZIhvcNAQkBFhJtZUBteWhvc3QubXlkb21haW6CCQDPNYXugL8qPjATBgNV
HSUEDDAKBggrBgEFBQcDAjALBgNVHQ8EBAMCB4AwDQYJKoZIhvcNAQEEBQADggIB
AMNhduWzEguVjuPIbtCjk+k3uVSwISpuF0J7ksOltN8hwnKnJnopkx/XSLSSY21w
mnaW0xOkhGvmYSbrq76xc/CezAwaom6Ri76lermj0vXf5Zxu3rA4mMsF5z16zf9K
4G8OwaHtwte2qX/JWEiGfHhh1zQFqc3pqLm9u+t8VuEB0IV+DQ/jvggFu5yQagS3
TdLF4oudeZo+K5q6WH/Nn1kUMwpnMysO/9mGM22NctdZr+5Ig3R5j9bB09Py9Y6A
4pEWZzkReGXa+FXeb2R2uCNwyZMs+VVB56ILfrPAgrZ2BAVZiXDC7Nith9H+RcSw
jTdAM+Klo/rbBMc5WnBgU4wvz4AK1kQlWIEl8oLX/gozsFNC7ccptdIucyN4yIqa
gthQ+zETfyMYniKTFnSOOxKjLpfvF6aZVWlvIG+zWPZx4wOoKnyraHVempFDpWkM
t1GW1Zv5UzlJnr2jn2joAGPSoVMuobO28O5Fj4ERKrBt1ZbG4/noKrSjuDW0uQCm
cF+Uq+qVJbQ9w6btZcIWtTk08ej0//TQpSdLR4kn+RtpFcm6TQE2bOhnNVkVFLXF
8Byz/iCKAFMX5WlZS6ihuFsk6XcZD2hky4I42Y37SKAqb6yZ6Arw/11azMWf0M7Y
cqYpaM5bv85AXfcCDcOrR66dAJSzITdaMjyfTfBIViGk
-----END CERTIFICATE-----
