Certificate:
    Data:
        Version: 3 (0x2)
        Serial Number: 3575 (0xdf7)
    Signature Algorithm: md5WithRSAEncryption
        Issuer: C=US, ST=OH, L=Columbus, O=VikingVPN, OU=MyOrganizationalUnit, CN=VikingVPN CA/name=EasyRSA/emailAddress=me@myhost.mydomain
        Validity
            Not Before: Dec  2 01:54:31 2014 GMT
            Not After : Nov 29 01:54:31 2024 GMT
        Subject: CN=Client1232Cert0c38de
        Subject Public Key Info:
            Public Key Algorithm: rsaEncryption
                Public-Key: (4096 bit)
                Modulus:
                    00:a1:67:22:51:05:2b:4a:ad:bb:cc:93:68:43:0b:
                    8f:fe:07:b6:f0:9c:2d:a9:76:a7:ca:5c:c9:09:5a:
                    15:40:ed:58:5a:14:bc:b5:e0:0f:c0:34:d5:9f:41:
                    88:75:bc:8b:2d:6b:fb:07:d8:26:c4:9b:47:cc:4e:
                    8d:d3:69:07:46:0d:60:85:7a:02:db:8f:d0:a8:7b:
                    f7:f2:14:c0:26:c2:5e:9e:e8:43:4d:dd:05:f4:5c:
                    d3:6c:df:26:7b:37:91:59:ac:82:b8:80:f3:a5:06:
                    f1:e8:6e:11:71:b4:3c:18:f8:52:b4:3f:ed:8e:b7:
                    24:83:18:ec:e3:ef:21:a8:ac:27:f9:7c:82:78:88:
                    d1:d0:04:4c:8e:db:66:a0:6d:bd:c6:f9:f4:93:4d:
                    eb:a9:15:35:29:7c:f4:ae:86:1b:4a:05:0d:de:63:
                    a3:3e:0f:8f:f1:5b:36:86:f0:c2:2d:ea:0a:5e:5f:
                    42:64:2c:97:77:f5:ac:c9:7f:b6:ac:e5:3c:9b:de:
                    11:d8:cd:a8:1b:6c:be:26:b2:af:d8:80:34:23:8b:
                    43:ed:e5:51:0e:cc:57:80:8c:c5:fa:3c:b2:e4:1a:
                    bf:0b:64:46:b5:4e:68:81:32:8a:87:d3:f7:8a:9f:
                    95:50:8d:fa:5e:c7:9d:45:9d:86:1c:ea:8d:cb:bc:
                    1e:69:f0:10:88:94:d7:72:ce:65:a7:0b:94:f5:bb:
                    bf:d7:51:53:74:31:af:c6:31:65:08:19:15:58:e8:
                    c4:86:dd:c8:ad:c1:94:01:da:0b:d6:02:ec:1c:4d:
                    cd:4c:ba:6d:9c:f4:e8:85:be:ee:2d:03:2b:04:9e:
                    36:cb:c8:f1:17:7a:94:32:6a:26:bd:45:0d:56:4b:
                    5b:9b:1e:39:0f:41:81:54:5f:ef:77:f9:4d:20:4b:
                    d4:21:a2:b8:52:e6:2d:46:5e:9c:0e:27:b0:d6:25:
                    2f:b6:e8:33:90:9d:86:bf:a0:2d:07:e7:10:42:16:
                    aa:3d:b5:32:e9:6b:ac:63:c3:93:b9:ae:0a:44:5c:
                    54:1e:8b:58:17:9e:ca:7a:29:9a:67:2e:ee:ff:cb:
                    57:e6:93:c6:f8:34:5b:73:15:c3:d1:f6:b0:9d:42:
                    1b:32:13:75:cf:21:c0:ce:6e:14:c5:5c:30:c1:15:
                    75:89:f2:c3:b2:a8:61:27:9b:cf:aa:aa:5f:81:93:
                    a2:1c:b1:11:ad:45:43:9f:2f:6a:ef:28:c9:c6:b0:
                    b3:ac:2b:b7:86:88:dc:d2:8c:c9:f2:f6:00:28:0b:
                    b1:99:11:43:06:62:59:04:29:b4:14:3f:24:fe:eb:
                    37:37:e6:a8:d2:8f:6d:77:ca:0f:18:f3:ff:c6:8b:
                    35:1f:f7
                Exponent: 65537 (0x10001)
        X509v3 extensions:
            X509v3 Basic Constraints: 
                CA:FALSE
            Netscape Comment: 
                Easy-RSA Generated Certificate
            X509v3 Subject Key Identifier: 
                D2:15:59:EF:65:6D:2E:85:9F:C1:14:8D:EC:AD:6B:84:D7:0F:A8:D2
            X509v3 Authority Key Identifier: 
                keyid:12:CD:60:04:D2:A0:80:9E:70:ED:C6:99:B8:7B:2C:C6:52:FD:19:A1
                DirName:/C=US/ST=OH/L=Columbus/O=VikingVPN/OU=MyOrganizationalUnit/CN=VikingVPN CA/name=EasyRSA/emailAddress=me@myhost.mydomain
                serial:CF:35:85:EE:80:BF:2A:3E

            X509v3 Extended Key Usage: 
                TLS Web Client Authentication
            X509v3 Key Usage: 
                Digital Signature
    Signature Algorithm: md5WithRSAEncryption
         46:1c:76:53:8a:d3:fe:0b:d4:06:27:cc:5e:b8:5d:e6:9c:95:
         71:55:73:56:07:93:68:f5:5f:d4:aa:3e:18:48:fe:a8:8c:a7:
         e8:cd:02:3d:bb:46:05:54:83:3c:a4:9e:98:c9:fc:48:ea:30:
         5f:01:3b:d9:4c:0f:60:91:b8:24:b2:4b:a5:7f:c7:94:d7:c0:
         cf:5e:ea:c3:b0:e6:0c:ad:26:13:19:0d:43:94:4d:80:62:8e:
         49:06:72:43:d7:25:2a:6c:32:58:0f:44:7a:de:c8:61:20:99:
         5d:76:95:ff:9e:4d:67:52:3b:4a:e7:65:ed:37:0f:1a:81:35:
         04:e9:8f:67:16:49:32:88:8b:41:b9:08:d3:55:a6:5f:1c:8d:
         a1:72:5e:ba:cb:f7:a0:e1:36:94:c5:c7:d8:bc:e2:94:a6:84:
         1b:2f:a9:3a:ab:cc:18:35:d8:4c:09:e9:8c:0e:dc:4d:7a:35:
         ae:a2:42:ec:53:87:5b:e7:77:85:a4:08:6c:ca:8b:fb:39:63:
         a6:0c:fc:1a:45:8b:42:aa:18:8c:e8:d8:bd:a7:71:f0:12:df:
         6e:50:59:96:9f:7a:0f:ac:6a:e6:b6:43:c9:1b:e1:c7:00:01:
         58:f4:08:80:31:cb:ed:2d:98:23:94:e3:a6:66:eb:77:49:59:
         b4:cf:d9:51:9a:2a:01:1a:03:91:9a:af:ec:33:d3:b2:4e:25:
         06:b4:c9:11:67:23:13:a1:2a:7b:35:83:6d:f8:f0:cc:ca:ed:
         eb:b5:62:19:04:24:55:ad:81:3d:9d:9c:12:a6:e8:3f:f0:99:
         5a:e6:d3:f9:1b:5d:c3:ed:88:d8:f0:cf:b5:1a:ef:e3:8e:9d:
         4f:9c:5b:21:ed:7e:ce:da:92:68:ce:d0:f3:5c:e7:41:8a:9e:
         2c:8d:20:38:53:93:af:51:71:74:4f:e5:f4:c4:bc:cb:e2:87:
         66:76:dc:e6:b7:39:50:3c:96:ed:e3:7d:6f:ac:7a:e5:79:3a:
         ab:60:c7:20:26:e8:2e:0a:fb:7b:4b:ee:89:9d:e2:55:13:5e:
         51:bc:86:5b:b6:1c:9a:3e:ad:da:b7:14:16:d2:1b:c4:a8:cb:
         07:6f:19:46:27:42:ef:a8:c5:c6:63:9d:da:70:4e:67:31:a6:
         60:54:53:08:43:44:48:ef:ed:fc:23:c7:b3:83:72:24:41:9b:
         55:e3:48:e1:7d:47:8f:06:ae:f7:fe:73:ee:2d:bd:0e:9d:94:
         cd:0e:99:46:b0:af:5b:33:e9:67:1c:43:af:61:68:1b:44:3c:
         d5:29:3a:45:c3:97:13:83:2f:22:35:35:90:49:27:a2:eb:b9:
         4a:05:03:81:d4:4b:91:2c
-----BEGIN CERTIFICATE-----
MIIGrTCCBJWgAwIBAgICDfcwDQYJKoZIhvcNAQEEBQAwgawxCzAJBgNVBAYTAlVT
MQswCQYDVQQIEwJPSDERMA8GA1UEBxMIQ29sdW1idXMxEjAQBgNVBAoTCVZpa2lu
Z1ZQTjEdMBsGA1UECxMUTXlPcmdhbml6YXRpb25hbFVuaXQxFTATBgNVBAMTDFZp
a2luZ1ZQTiBDQTEQMA4GA1UEKRMHRWFzeVJTQTEhMB8GCSqGSIb3DQEJARYSbWVA
bXlob3N0Lm15ZG9tYWluMB4XDTE0MTIwMjAxNTQzMVoXDTI0MTEyOTAxNTQzMVow
HzEdMBsGA1UEAxMUQ2xpZW50MTIzMkNlcnQwYzM4ZGUwggIiMA0GCSqGSIb3DQEB
AQUAA4ICDwAwggIKAoICAQChZyJRBStKrbvMk2hDC4/+B7bwnC2pdqfKXMkJWhVA
7VhaFLy14A/ANNWfQYh1vIsta/sH2CbEm0fMTo3TaQdGDWCFegLbj9Coe/fyFMAm
wl6e6ENN3QX0XNNs3yZ7N5FZrIK4gPOlBvHobhFxtDwY+FK0P+2OtySDGOzj7yGo
rCf5fIJ4iNHQBEyO22agbb3G+fSTTeupFTUpfPSuhhtKBQ3eY6M+D4/xWzaG8MIt
6gpeX0JkLJd39azJf7as5Tyb3hHYzagbbL4msq/YgDQji0Pt5VEOzFeAjMX6PLLk
Gr8LZEa1TmiBMoqH0/eKn5VQjfpex51FnYYc6o3LvB5p8BCIlNdyzmWnC5T1u7/X
UVN0Ma/GMWUIGRVY6MSG3citwZQB2gvWAuwcTc1Mum2c9OiFvu4tAysEnjbLyPEX
epQyaia9RQ1WS1ubHjkPQYFUX+93+U0gS9QhorhS5i1GXpwOJ7DWJS+26DOQnYa/
oC0H5xBCFqo9tTLpa6xjw5O5rgpEXFQei1gXnsp6KZpnLu7/y1fmk8b4NFtzFcPR
9rCdQhsyE3XPIcDObhTFXDDBFXWJ8sOyqGEnm8+qql+Bk6IcsRGtRUOfL2rvKMnG
sLOsK7eGiNzSjMny9gAoC7GZEUMGYlkEKbQUPyT+6zc35qjSj213yg8Y8//GizUf
9wIDAQABo4IBYzCCAV8wCQYDVR0TBAIwADAtBglghkgBhvhCAQ0EIBYeRWFzeS1S
U0EgR2VuZXJhdGVkIENlcnRpZmljYXRlMB0GA1UdDgQWBBTSFVnvZW0uhZ/BFI3s
rWuE1w+o0jCB4QYDVR0jBIHZMIHWgBQSzWAE0qCAnnDtxpm4eyzGUv0ZoaGBsqSB
rzCBrDELMAkGA1UEBhMCVVMxCzAJBgNVBAgTAk9IMREwDwYDVQQHEwhDb2x1bWJ1
czESMBAGA1UEChMJVmlraW5nVlBOMR0wGwYDVQQLExRNeU9yZ2FuaXphdGlvbmFs
VW5pdDEVMBMGA1UEAxMMVmlraW5nVlBOIENBMRAwDgYDVQQpEwdFYXN5UlNBMSEw
HwYJKoZIhvcNAQkBFhJtZUBteWhvc3QubXlkb21haW6CCQDPNYXugL8qPjATBgNV
HSUEDDAKBggrBgEFBQcDAjALBgNVHQ8EBAMCB4AwDQYJKoZIhvcNAQEEBQADggIB
AEYcdlOK0/4L1AYnzF64XeaclXFVc1YHk2j1X9SqPhhI/qiMp+jNAj27RgVUgzyk
npjJ/EjqMF8BO9lMD2CRuCSyS6V/x5TXwM9e6sOw5gytJhMZDUOUTYBijkkGckPX
JSpsMlgPRHreyGEgmV12lf+eTWdSO0rnZe03DxqBNQTpj2cWSTKIi0G5CNNVpl8c
jaFyXrrL96DhNpTFx9i84pSmhBsvqTqrzBg12EwJ6YwO3E16Na6iQuxTh1vnd4Wk
CGzKi/s5Y6YM/BpFi0KqGIzo2L2ncfAS325QWZafeg+saua2Q8kb4ccAAVj0CIAx
y+0tmCOU46Zm63dJWbTP2VGaKgEaA5Gar+wz07JOJQa0yRFnIxOhKns1g2348MzK
7eu1YhkEJFWtgT2dnBKm6D/wmVrm0/kbXcPtiNjwz7Ua7+OOnU+cWyHtfs7akmjO
0PNc50GKniyNIDhTk69RcXRP5fTEvMvih2Z23Oa3OVA8lu3jfW+seuV5OqtgxyAm
6C4K+3tL7omd4lUTXlG8hlu2HJo+rdq3FBbSG8SoywdvGUYnQu+oxcZjndpwTmcx
pmBUUwhDREjv7fwjx7ODciRBm1XjSOF9R48Grvf+c+4tvQ6dlM0OmUawr1sz6Wcc
Q69haBtEPNUpOkXDlxODLyI1NZBJJ6LruUoFA4HUS5Es
-----END CERTIFICATE-----
