Certificate:
    Data:
        Version: 3 (0x2)
        Serial Number: 3590 (0xe06)
    Signature Algorithm: md5WithRSAEncryption
        Issuer: C=US, ST=OH, L=Columbus, O=VikingVPN, OU=MyOrganizationalUnit, CN=VikingVPN CA/name=EasyRSA/emailAddress=me@myhost.mydomain
        Validity
            Not Before: Dec  2 19:37:10 2014 GMT
            Not After : Nov 29 19:37:10 2024 GMT
        Subject: CN=Client1236Cert225a77
        Subject Public Key Info:
            Public Key Algorithm: rsaEncryption
                Public-Key: (4096 bit)
                Modulus:
                    00:ab:5c:87:31:88:e0:de:44:18:c1:ce:56:40:33:
                    a7:c5:a6:96:d1:90:40:6e:ba:6d:95:9e:77:37:00:
                    25:de:66:24:48:0f:4c:24:40:b5:fd:bc:be:b7:ed:
                    b4:e6:1e:23:b0:20:90:ab:74:80:86:39:4f:85:de:
                    08:5a:a2:2f:89:9f:19:2d:bb:c6:4f:c8:c3:63:ca:
                    00:c8:2f:31:27:f9:54:bf:fb:db:50:18:2b:f6:9e:
                    a1:f8:06:fe:15:cb:77:76:cf:20:8b:ce:ea:0e:63:
                    df:bf:17:41:6c:18:d6:33:67:dd:c5:b6:c0:ca:45:
                    84:63:ab:28:55:0a:c3:7c:20:d4:6e:65:f3:cb:a3:
                    8d:eb:90:af:ea:2e:38:9c:1d:f3:09:35:2b:7b:74:
                    5a:e9:6e:16:8d:9d:11:e0:bf:a9:6a:55:0d:d8:ac:
                    f4:e5:55:44:ab:54:cc:1e:76:ad:67:b8:fd:a4:82:
                    e1:02:7f:f6:ac:ea:50:b7:ea:e0:7f:13:76:9b:5a:
                    62:b8:44:3e:b7:78:b2:dd:4e:49:54:02:29:6f:55:
                    3f:20:d3:fc:51:a6:18:fd:65:aa:5b:e0:60:55:64:
                    50:ac:5d:1d:81:dc:70:70:89:85:a7:94:cc:01:8d:
                    d5:49:fb:5c:83:16:57:d7:1a:87:3c:01:15:92:f8:
                    84:40:2e:f3:91:53:b0:9d:62:de:49:77:c7:35:2a:
                    86:09:fc:17:1e:5f:e5:cb:ec:e7:fc:03:bd:19:ed:
                    31:8a:2b:42:0a:e5:a1:66:4e:d5:15:eb:c3:74:60:
                    b6:46:6c:72:64:36:a0:b7:92:b9:76:34:43:62:aa:
                    08:28:4b:51:10:a8:d7:1e:2a:6c:f9:e6:a6:17:9b:
                    3e:1c:06:0f:5d:a5:fe:d2:9e:08:82:01:2f:c0:be:
                    35:8d:d9:74:9a:b1:85:82:26:a4:b9:6c:76:6f:01:
                    e4:d9:28:25:e5:51:1f:2a:f1:bf:e4:ac:eb:b8:55:
                    8f:45:31:7c:57:f1:6b:c3:fa:8c:5c:9f:07:4c:18:
                    3a:ce:c9:d4:45:b6:80:3e:85:4b:bf:cd:ff:f4:40:
                    d5:e6:a4:df:a0:32:70:8e:5f:a4:45:dc:84:78:0e:
                    ca:39:23:ee:5b:31:c5:a6:53:72:d9:e6:06:26:85:
                    41:ed:78:f0:0d:c4:8b:44:3b:ca:18:e1:1f:61:ce:
                    8a:e4:e5:90:ab:17:e7:2d:4d:ef:b1:57:d9:64:e9:
                    70:cd:da:b0:d4:1d:10:ec:d5:03:70:52:f8:33:76:
                    f3:63:44:c2:c1:4a:a9:e8:7b:46:52:2f:8d:c1:4b:
                    8e:16:d1:21:d5:a4:e1:cf:67:d2:11:45:e3:5b:11:
                    87:24:87
                Exponent: 65537 (0x10001)
        X509v3 extensions:
            X509v3 Basic Constraints: 
                CA:FALSE
            Netscape Comment: 
                Easy-RSA Generated Certificate
            X509v3 Subject Key Identifier: 
                0A:6F:2C:97:53:2B:F0:95:FF:0D:16:D5:10:11:A8:B0:F5:7D:60:CB
            X509v3 Authority Key Identifier: 
                keyid:12:CD:60:04:D2:A0:80:9E:70:ED:C6:99:B8:7B:2C:C6:52:FD:19:A1
                DirName:/C=US/ST=OH/L=Columbus/O=VikingVPN/OU=MyOrganizationalUnit/CN=VikingVPN CA/name=EasyRSA/emailAddress=me@myhost.mydomain
                serial:CF:35:85:EE:80:BF:2A:3E

            X509v3 Extended Key Usage: 
                TLS Web Client Authentication
            X509v3 Key Usage: 
                Digital Signature
    Signature Algorithm: md5WithRSAEncryption
         11:02:a3:4d:16:49:5a:a4:91:d2:03:13:45:4d:bf:0f:6b:7d:
         66:b4:70:3c:81:c4:1b:1d:a6:58:25:6b:3e:75:42:06:a6:a1:
         4c:20:f6:92:30:34:53:d4:6a:37:8e:2a:f2:36:d0:e9:8d:bd:
         44:d5:2a:db:03:ca:bb:a4:57:b7:52:af:d7:92:db:18:cb:f5:
         83:0c:ec:ef:2c:d8:9b:e0:f3:c0:f0:00:10:c7:07:fc:75:28:
         22:43:a4:57:e6:83:49:e2:26:7f:aa:b1:0b:86:be:90:cd:f2:
         73:b3:7a:d9:65:1b:28:7c:72:ed:4e:cf:df:14:06:8a:c2:71:
         8d:38:6d:5a:10:94:04:0e:c8:d8:68:5e:7a:6c:e2:f5:7e:cd:
         f7:9a:63:61:a9:99:42:51:2b:4a:90:41:7e:05:41:51:da:8e:
         b5:85:e1:ae:32:14:62:fc:8c:60:4e:f8:c9:0f:c6:ef:60:bf:
         8c:b1:2b:18:69:a2:a0:6c:dc:ba:78:33:7e:19:f5:45:e2:8a:
         19:5f:8f:71:cc:fb:bd:1b:6a:42:a6:44:0c:1e:df:70:e1:5c:
         bc:5c:75:54:2a:07:72:71:6a:fa:30:29:b4:8c:46:68:45:e6:
         0c:ca:30:f5:5e:04:ca:bb:b0:43:bc:73:e6:6c:e2:9b:8a:62:
         98:f5:17:68:e7:c2:16:ed:73:f6:ae:c0:8f:27:89:e3:4c:70:
         3a:b0:2b:f0:67:a2:95:4f:eb:2e:e8:48:1d:83:15:62:a2:8b:
         64:f3:68:be:ab:6d:c9:3c:47:bd:6f:26:ed:51:dd:9d:bd:fa:
         3f:e5:57:4c:e4:83:91:1d:82:c2:de:1d:7b:f2:a4:c4:8d:20:
         fa:4b:f7:8c:da:f4:eb:bf:a9:e8:d3:84:3d:e9:05:fd:cd:78:
         cb:45:74:4d:d7:ba:4a:98:09:5b:e5:83:7e:bb:dc:53:37:cc:
         ec:a4:71:94:61:a6:ce:4f:2e:5c:b7:ba:f7:3d:52:19:fd:f5:
         5c:0b:45:32:d0:0c:77:c7:02:ab:4f:ce:ca:00:3a:4f:28:84:
         84:9a:d2:73:f5:94:26:c5:08:33:31:cd:a0:37:ea:2a:56:1a:
         bc:c4:c3:b4:9a:3b:cb:6d:03:43:63:01:da:3a:c6:94:46:5d:
         fd:8b:92:f3:6e:98:fd:2a:12:d4:5f:62:4e:7e:37:e4:69:89:
         48:1f:b8:ee:2b:8b:40:f8:ea:83:01:54:49:b9:98:fc:f7:36:
         21:b1:b1:aa:03:f8:ae:ad:4b:e5:ce:4e:c0:33:d9:a9:2e:0d:
         62:3d:c8:3d:eb:c1:70:a9:f0:b9:58:1f:01:d3:65:a7:a8:61:
         82:30:70:8e:06:4c:bd:5a
-----BEGIN CERTIFICATE-----
MIIGrTCCBJWgAwIBAgICDgYwDQYJKoZIhvcNAQEEBQAwgawxCzAJBgNVBAYTAlVT
MQswCQYDVQQIEwJPSDERMA8GA1UEBxMIQ29sdW1idXMxEjAQBgNVBAoTCVZpa2lu
Z1ZQTjEdMBsGA1UECxMUTXlPcmdhbml6YXRpb25hbFVuaXQxFTATBgNVBAMTDFZp
a2luZ1ZQTiBDQTEQMA4GA1UEKRMHRWFzeVJTQTEhMB8GCSqGSIb3DQEJARYSbWVA
bXlob3N0Lm15ZG9tYWluMB4XDTE0MTIwMjE5MzcxMFoXDTI0MTEyOTE5MzcxMFow
HzEdMBsGA1UEAxMUQ2xpZW50MTIzNkNlcnQyMjVhNzcwggIiMA0GCSqGSIb3DQEB
AQUAA4ICDwAwggIKAoICAQCrXIcxiODeRBjBzlZAM6fFppbRkEBuum2Vnnc3ACXe
ZiRID0wkQLX9vL637bTmHiOwIJCrdICGOU+F3ghaoi+Jnxktu8ZPyMNjygDILzEn
+VS/+9tQGCv2nqH4Bv4Vy3d2zyCLzuoOY9+/F0FsGNYzZ93FtsDKRYRjqyhVCsN8
INRuZfPLo43rkK/qLjicHfMJNSt7dFrpbhaNnRHgv6lqVQ3YrPTlVUSrVMwedq1n
uP2kguECf/as6lC36uB/E3abWmK4RD63eLLdTklUAilvVT8g0/xRphj9Zapb4GBV
ZFCsXR2B3HBwiYWnlMwBjdVJ+1yDFlfXGoc8ARWS+IRALvORU7CdYt5Jd8c1KoYJ
/BceX+XL7Of8A70Z7TGKK0IK5aFmTtUV68N0YLZGbHJkNqC3krl2NENiqggoS1EQ
qNceKmz55qYXmz4cBg9dpf7SngiCAS/AvjWN2XSasYWCJqS5bHZvAeTZKCXlUR8q
8b/krOu4VY9FMXxX8WvD+oxcnwdMGDrOydRFtoA+hUu/zf/0QNXmpN+gMnCOX6RF
3IR4Dso5I+5bMcWmU3LZ5gYmhUHtePANxItEO8oY4R9hzork5ZCrF+ctTe+xV9lk
6XDN2rDUHRDs1QNwUvgzdvNjRMLBSqnoe0ZSL43BS44W0SHVpOHPZ9IRReNbEYck
hwIDAQABo4IBYzCCAV8wCQYDVR0TBAIwADAtBglghkgBhvhCAQ0EIBYeRWFzeS1S
U0EgR2VuZXJhdGVkIENlcnRpZmljYXRlMB0GA1UdDgQWBBQKbyyXUyvwlf8NFtUQ
Eaiw9X1gyzCB4QYDVR0jBIHZMIHWgBQSzWAE0qCAnnDtxpm4eyzGUv0ZoaGBsqSB
rzCBrDELMAkGA1UEBhMCVVMxCzAJBgNVBAgTAk9IMREwDwYDVQQHEwhDb2x1bWJ1
czESMBAGA1UEChMJVmlraW5nVlBOMR0wGwYDVQQLExRNeU9yZ2FuaXphdGlvbmFs
VW5pdDEVMBMGA1UEAxMMVmlraW5nVlBOIENBMRAwDgYDVQQpEwdFYXN5UlNBMSEw
HwYJKoZIhvcNAQkBFhJtZUBteWhvc3QubXlkb21haW6CCQDPNYXugL8qPjATBgNV
HSUEDDAKBggrBgEFBQcDAjALBgNVHQ8EBAMCB4AwDQYJKoZIhvcNAQEEBQADggIB
ABECo00WSVqkkdIDE0VNvw9rfWa0cDyBxBsdplglaz51QgamoUwg9pIwNFPUajeO
KvI20OmNvUTVKtsDyrukV7dSr9eS2xjL9YMM7O8s2Jvg88DwABDHB/x1KCJDpFfm
g0niJn+qsQuGvpDN8nOzetllGyh8cu1Oz98UBorCcY04bVoQlAQOyNhoXnps4vV+
zfeaY2GpmUJRK0qQQX4FQVHajrWF4a4yFGL8jGBO+MkPxu9gv4yxKxhpoqBs3Lp4
M34Z9UXiihlfj3HM+70bakKmRAwe33DhXLxcdVQqB3JxavowKbSMRmhF5gzKMPVe
BMq7sEO8c+Zs4puKYpj1F2jnwhbtc/auwI8nieNMcDqwK/BnopVP6y7oSB2DFWKi
i2TzaL6rbck8R71vJu1R3Z29+j/lV0zkg5EdgsLeHXvypMSNIPpL94za9Ou/qejT
hD3pBf3NeMtFdE3XukqYCVvlg3673FM3zOykcZRhps5PLly3uvc9Uhn99VwLRTLQ
DHfHAqtPzsoAOk8ohISa0nP1lCbFCDMxzaA36ipWGrzEw7SaO8ttA0NjAdo6xpRG
Xf2LkvNumP0qEtRfYk5+N+RpiUgfuO4ri0D46oMBVEm5mPz3NiGxsaoD+K6tS+XO
TsAz2akuDWI9yD3rwXCp8LlYHwHTZaeoYYIwcI4GTL1a
-----END CERTIFICATE-----
