Certificate:
    Data:
        Version: 3 (0x2)
        Serial Number: 3611 (0xe1b)
    Signature Algorithm: md5WithRSAEncryption
        Issuer: C=US, ST=OH, L=Columbus, O=VikingVPN, OU=MyOrganizationalUnit, CN=VikingVPN CA/name=EasyRSA/emailAddress=me@myhost.mydomain
        Validity
            Not Before: Dec  4 12:39:35 2014 GMT
            Not After : Dec  1 12:39:35 2024 GMT
        Subject: CN=Client1196Cert181a35
        Subject Public Key Info:
            Public Key Algorithm: rsaEncryption
                Public-Key: (4096 bit)
                Modulus:
                    00:b5:b6:47:3c:11:5c:f6:c3:6c:32:f1:18:1b:96:
                    22:0b:86:f2:76:82:59:18:e8:00:60:a2:2c:11:2e:
                    ad:d9:a5:6b:6d:b9:82:d7:28:56:b2:bf:f2:9e:32:
                    a1:45:ec:11:ac:d8:57:0f:58:e7:31:f9:0d:d0:12:
                    9f:d7:9d:20:60:50:2d:3b:fe:1b:db:ba:77:9e:1f:
                    0a:f6:8c:3c:80:a4:79:52:2d:68:7f:39:6d:6b:ea:
                    3c:1b:32:70:9e:e2:e6:d1:16:88:ec:92:44:88:d7:
                    b5:a1:2d:1c:e9:88:6b:d8:52:7b:6e:af:f2:2e:85:
                    18:9c:55:12:d9:50:ef:66:0f:c8:e3:1b:66:a9:bf:
                    19:a9:5a:4d:d1:24:8b:e9:8a:ae:44:99:9d:8e:26:
                    50:1a:44:f0:5e:95:5c:99:76:10:f9:45:50:2e:b5:
                    0c:11:27:6d:92:bb:80:39:b9:19:28:c2:ac:16:bf:
                    65:06:43:2b:89:0e:3e:a4:fb:d1:53:e8:5d:f2:2a:
                    3c:49:b1:f2:9f:ce:c8:87:6d:a9:8d:85:a0:58:c6:
                    3d:59:16:dd:57:1c:fa:dd:bf:b7:4b:89:7a:fd:07:
                    0d:3a:2e:ea:18:9e:73:72:a0:29:79:8c:31:b6:54:
                    4f:b9:3a:43:a9:a4:7a:2c:4f:3e:8b:ac:03:40:d7:
                    11:42:7f:62:61:f3:ce:15:48:54:b0:56:9f:3e:cf:
                    8e:3c:b7:9b:e7:52:20:71:75:63:9d:5c:ea:33:b5:
                    63:75:13:b8:45:34:61:4a:27:dd:91:a2:fb:b5:3c:
                    73:e2:0d:7e:ea:8d:55:ce:0d:9a:57:4d:27:ca:43:
                    21:9d:b1:f3:4d:09:c3:fa:1c:8c:a5:22:7e:6c:fe:
                    2a:8e:a7:d7:4e:ba:92:bf:25:c7:81:1c:9a:f7:0d:
                    55:bc:2a:13:73:60:66:70:81:d5:c1:d1:16:f2:8a:
                    a7:d1:49:ed:7e:df:32:16:c4:2b:82:a3:07:c5:3e:
                    8f:52:95:42:f3:b8:d6:8d:cb:34:24:86:e9:b7:13:
                    a4:6f:c8:d4:70:53:28:23:57:c5:ff:a7:9a:e6:98:
                    31:87:b8:6e:0b:49:28:64:a1:16:4f:04:ff:8e:45:
                    15:4d:4f:1b:54:25:19:e3:5d:3c:fb:85:07:f7:ca:
                    a8:cd:30:b0:c3:87:a8:1b:76:b8:ed:63:b0:fe:60:
                    50:8e:42:c6:75:84:87:f2:4c:0e:09:7a:77:f1:d1:
                    66:b4:9e:ce:3f:a8:94:84:ca:73:9a:f8:8a:21:b6:
                    da:00:35:28:4f:58:a9:89:30:16:84:1b:08:91:3f:
                    5c:71:23:c4:e5:ac:3b:bf:b3:8d:50:01:79:e9:a0:
                    a6:01:89
                Exponent: 65537 (0x10001)
        X509v3 extensions:
            X509v3 Basic Constraints: 
                CA:FALSE
            Netscape Comment: 
                Easy-RSA Generated Certificate
            X509v3 Subject Key Identifier: 
                29:00:7B:63:C0:70:5B:53:D5:81:06:B6:CE:15:95:28:15:28:0C:68
            X509v3 Authority Key Identifier: 
                keyid:12:CD:60:04:D2:A0:80:9E:70:ED:C6:99:B8:7B:2C:C6:52:FD:19:A1
                DirName:/C=US/ST=OH/L=Columbus/O=VikingVPN/OU=MyOrganizationalUnit/CN=VikingVPN CA/name=EasyRSA/emailAddress=me@myhost.mydomain
                serial:CF:35:85:EE:80:BF:2A:3E

            X509v3 Extended Key Usage: 
                TLS Web Client Authentication
            X509v3 Key Usage: 
                Digital Signature
    Signature Algorithm: md5WithRSAEncryption
         28:ce:49:27:12:6f:35:9e:6c:ed:fc:23:1e:5e:b9:10:e7:6a:
         10:9e:9a:c9:b7:3b:78:82:55:3d:45:68:8f:1c:10:d4:3a:65:
         f4:0e:4f:72:81:5b:7b:ad:e5:e4:95:f8:17:5c:47:23:b4:8a:
         5e:9c:dc:01:86:41:60:6a:eb:33:42:9e:6a:eb:11:39:e1:2a:
         bb:89:ff:19:e2:7e:d2:cb:9e:45:39:6c:8e:0b:7a:14:c5:56:
         c2:90:88:0a:f4:53:6e:ca:d7:55:b4:8b:ee:f9:40:56:69:f8:
         e5:4a:39:04:9f:4c:65:10:17:64:09:b0:55:b2:dc:61:4a:ec:
         fc:7e:1a:bb:b6:c1:f4:55:0c:ee:43:88:9e:78:cc:b2:04:9b:
         9d:6f:44:7f:6d:d6:59:ee:30:9b:f5:1b:ee:b3:20:61:25:ef:
         6e:81:52:26:90:69:2c:9c:88:6f:47:95:6b:4b:77:84:a6:cd:
         3f:40:ac:6a:6c:26:41:86:4e:48:63:7b:0b:ee:be:77:57:f4:
         5e:cf:d5:18:dd:c2:0c:ab:bb:29:7a:03:53:30:5f:64:7f:b5:
         a1:12:16:ad:12:f6:23:4e:f2:aa:c3:17:6f:d1:b5:b5:8e:79:
         81:2a:d0:03:7b:02:28:da:53:b9:95:6a:63:62:ce:c9:3a:c3:
         63:0b:eb:3b:42:b4:b8:ba:ce:43:3b:96:fd:35:21:7f:cd:67:
         a8:fa:98:a2:b7:5e:4b:01:3f:bb:3a:e6:49:fa:45:b2:7f:68:
         cb:dc:77:b0:4e:43:da:f4:cf:43:ff:8a:2d:ee:ec:2f:a2:41:
         f5:ee:86:10:2e:44:62:62:e3:df:50:62:4c:09:d6:a2:cc:52:
         34:36:e9:b5:17:75:27:af:20:4b:4b:7d:98:70:8c:a2:3f:bd:
         60:bb:35:44:bf:0c:cb:56:d3:22:4b:8f:d5:69:a5:aa:85:84:
         20:3a:ab:aa:a0:14:e4:bd:ab:75:86:5f:03:dd:64:52:be:98:
         69:4c:bd:3f:d8:74:73:7b:de:af:e8:64:4a:2f:bd:e8:14:fc:
         8f:36:2e:b9:e0:61:b2:f1:2a:7b:08:72:32:fa:7f:16:6e:92:
         a7:93:f9:5f:59:00:01:4e:4d:92:fd:42:b6:83:a4:ba:95:35:
         eb:ed:e5:49:d7:d2:71:05:64:e7:05:73:4b:17:b7:3d:ef:16:
         17:c5:0a:23:2c:55:d0:8b:ab:14:40:34:c5:bf:f3:23:08:06:
         76:c1:ba:05:3f:1b:3f:9f:dd:d3:fc:dc:a0:ab:14:82:e9:c0:
         9c:74:e1:74:96:ca:dd:56:ba:e9:a7:2b:c1:8c:57:0a:f1:52:
         cd:cb:b3:ee:b6:5d:fe:4f
-----BEGIN CERTIFICATE-----
MIIGrTCCBJWgAwIBAgICDhswDQYJKoZIhvcNAQEEBQAwgawxCzAJBgNVBAYTAlVT
MQswCQYDVQQIEwJPSDERMA8GA1UEBxMIQ29sdW1idXMxEjAQBgNVBAoTCVZpa2lu
Z1ZQTjEdMBsGA1UECxMUTXlPcmdhbml6YXRpb25hbFVuaXQxFTATBgNVBAMTDFZp
a2luZ1ZQTiBDQTEQMA4GA1UEKRMHRWFzeVJTQTEhMB8GCSqGSIb3DQEJARYSbWVA
bXlob3N0Lm15ZG9tYWluMB4XDTE0MTIwNDEyMzkzNVoXDTI0MTIwMTEyMzkzNVow
HzEdMBsGA1UEAxMUQ2xpZW50MTE5NkNlcnQxODFhMzUwggIiMA0GCSqGSIb3DQEB
AQUAA4ICDwAwggIKAoICAQC1tkc8EVz2w2wy8RgbliILhvJ2glkY6ABgoiwRLq3Z
pWttuYLXKFayv/KeMqFF7BGs2FcPWOcx+Q3QEp/XnSBgUC07/hvbuneeHwr2jDyA
pHlSLWh/OW1r6jwbMnCe4ubRFojskkSI17WhLRzpiGvYUntur/IuhRicVRLZUO9m
D8jjG2apvxmpWk3RJIvpiq5EmZ2OJlAaRPBelVyZdhD5RVAutQwRJ22Su4A5uRko
wqwWv2UGQyuJDj6k+9FT6F3yKjxJsfKfzsiHbamNhaBYxj1ZFt1XHPrdv7dLiXr9
Bw06LuoYnnNyoCl5jDG2VE+5OkOppHosTz6LrANA1xFCf2Jh884VSFSwVp8+z448
t5vnUiBxdWOdXOoztWN1E7hFNGFKJ92Rovu1PHPiDX7qjVXODZpXTSfKQyGdsfNN
CcP6HIylIn5s/iqOp9dOupK/JceBHJr3DVW8KhNzYGZwgdXB0RbyiqfRSe1+3zIW
xCuCowfFPo9SlULzuNaNyzQkhum3E6RvyNRwUygjV8X/p5rmmDGHuG4LSShkoRZP
BP+ORRVNTxtUJRnjXTz7hQf3yqjNMLDDh6gbdrjtY7D+YFCOQsZ1hIfyTA4Jenfx
0Wa0ns4/qJSEynOa+IohttoANShPWKmJMBaEGwiRP1xxI8TlrDu/s41QAXnpoKYB
iQIDAQABo4IBYzCCAV8wCQYDVR0TBAIwADAtBglghkgBhvhCAQ0EIBYeRWFzeS1S
U0EgR2VuZXJhdGVkIENlcnRpZmljYXRlMB0GA1UdDgQWBBQpAHtjwHBbU9WBBrbO
FZUoFSgMaDCB4QYDVR0jBIHZMIHWgBQSzWAE0qCAnnDtxpm4eyzGUv0ZoaGBsqSB
rzCBrDELMAkGA1UEBhMCVVMxCzAJBgNVBAgTAk9IMREwDwYDVQQHEwhDb2x1bWJ1
czESMBAGA1UEChMJVmlraW5nVlBOMR0wGwYDVQQLExRNeU9yZ2FuaXphdGlvbmFs
VW5pdDEVMBMGA1UEAxMMVmlraW5nVlBOIENBMRAwDgYDVQQpEwdFYXN5UlNBMSEw
HwYJKoZIhvcNAQkBFhJtZUBteWhvc3QubXlkb21haW6CCQDPNYXugL8qPjATBgNV
HSUEDDAKBggrBgEFBQcDAjALBgNVHQ8EBAMCB4AwDQYJKoZIhvcNAQEEBQADggIB
ACjOSScSbzWebO38Ix5euRDnahCemsm3O3iCVT1FaI8cENQ6ZfQOT3KBW3ut5eSV
+BdcRyO0il6c3AGGQWBq6zNCnmrrETnhKruJ/xniftLLnkU5bI4LehTFVsKQiAr0
U27K11W0i+75QFZp+OVKOQSfTGUQF2QJsFWy3GFK7Px+Gru2wfRVDO5DiJ54zLIE
m51vRH9t1lnuMJv1G+6zIGEl726BUiaQaSyciG9HlWtLd4SmzT9ArGpsJkGGTkhj
ewvuvndX9F7P1Rjdwgyruyl6A1MwX2R/taESFq0S9iNO8qrDF2/RtbWOeYEq0AN7
AijaU7mVamNizsk6w2ML6ztCtLi6zkM7lv01IX/NZ6j6mKK3XksBP7s65kn6RbJ/
aMvcd7BOQ9r0z0P/ii3u7C+iQfXuhhAuRGJi499QYkwJ1qLMUjQ26bUXdSevIEtL
fZhwjKI/vWC7NUS/DMtW0yJLj9VppaqFhCA6q6qgFOS9q3WGXwPdZFK+mGlMvT/Y
dHN73q/oZEovvegU/I82LrngYbLxKnsIcjL6fxZukqeT+V9ZAAFOTZL9QraDpLqV
Nevt5UnX0nEFZOcFc0sXtz3vFhfFCiMsVdCLqxRANMW/8yMIBnbBugU/Gz+f3dP8
3KCrFILpwJx04XSWyt1WuumnK8GMVwrxUs3Ls+62Xf5P
-----END CERTIFICATE-----
