Certificate:
    Data:
        Version: 3 (0x2)
        Serial Number: 3637 (0xe35)
    Signature Algorithm: md5WithRSAEncryption
        Issuer: C=US, ST=OH, L=Columbus, O=VikingVPN, OU=MyOrganizationalUnit, CN=VikingVPN CA/name=EasyRSA/emailAddress=me@myhost.mydomain
        Validity
            Not Before: Dec  8 22:12:05 2014 GMT
            Not After : Dec  5 22:12:05 2024 GMT
        Subject: CN=Client1250Certadf91c
        Subject Public Key Info:
            Public Key Algorithm: rsaEncryption
                Public-Key: (4096 bit)
                Modulus:
                    00:ca:d5:9d:08:f8:52:99:38:5c:02:9f:68:df:7b:
                    6b:10:fb:02:05:16:9f:cd:41:be:0a:8e:dd:83:6f:
                    ac:9d:a3:70:04:19:43:56:79:6a:76:e2:71:7f:1b:
                    b9:6e:05:25:aa:e1:30:01:82:fd:ed:64:2a:5a:b5:
                    20:71:94:44:62:02:d7:0c:23:44:65:f3:e2:be:8f:
                    be:2b:81:39:6f:f3:93:a3:2b:a7:28:05:18:0f:a6:
                    e6:fa:b4:bd:1a:4f:af:72:2d:fc:a6:01:06:70:73:
                    33:5b:8f:a7:ca:d0:49:8f:d9:3b:d1:35:6c:f9:62:
                    b5:59:5c:a4:f1:c9:29:60:f8:c0:0d:fe:a8:35:ef:
                    49:0e:b5:17:76:a9:17:99:23:51:d0:6d:ed:92:e2:
                    6e:40:5d:33:be:95:f9:8e:28:7e:5b:13:e2:13:44:
                    32:46:7b:7d:34:ea:aa:1d:01:ec:7a:82:41:0a:a7:
                    08:1a:2b:43:13:76:36:83:75:59:a6:e0:d5:1d:a4:
                    76:5e:f6:74:b2:3e:18:69:30:6f:c5:50:2e:4e:b7:
                    ea:44:06:9f:d0:0e:34:ee:61:d0:38:d3:e6:a9:49:
                    1e:39:df:ee:d3:fa:01:cf:08:76:ff:59:52:51:6f:
                    88:88:75:c1:28:15:f0:56:9b:7f:d7:22:5f:b0:aa:
                    e9:68:01:41:51:e1:0b:f7:7c:c9:11:b1:23:e8:8b:
                    9f:30:cb:96:41:cc:61:5b:e8:46:ba:6b:a9:84:bb:
                    9b:8f:3d:3f:56:27:f7:fb:13:c9:29:0a:c0:3a:51:
                    13:c6:48:73:b6:3a:b4:7b:d2:9a:13:e7:56:3e:84:
                    01:a4:f5:b8:eb:d5:36:f8:b1:85:44:79:0f:b2:7f:
                    b0:e9:13:1d:22:78:6e:bf:34:f2:d3:02:0d:7e:0c:
                    0d:12:78:c4:0b:eb:93:4c:3f:ad:33:a5:82:87:79:
                    f2:c1:43:c2:c0:7e:6f:35:4a:7a:e2:ec:0a:ab:51:
                    4a:4d:64:b5:16:cb:74:a6:03:75:b7:e3:79:fc:67:
                    c9:6f:22:e6:e8:8b:cc:14:5e:73:e3:11:8b:70:9f:
                    a4:49:40:36:09:85:39:6e:99:57:14:bb:51:55:45:
                    17:0e:69:a1:f7:f4:e3:6a:b0:2f:55:94:71:e0:3b:
                    9f:58:32:dc:df:ee:cf:d8:ae:12:94:c8:fc:d4:ef:
                    07:86:b8:99:3f:c7:70:c8:63:32:d1:d7:c2:41:ad:
                    18:c6:98:b7:fd:49:94:6e:8f:b4:0e:de:55:e6:00:
                    8d:12:fe:e9:9d:50:e0:70:b5:3f:18:2f:da:85:b4:
                    43:4f:3e:6d:8f:f1:3c:b6:53:a3:ec:43:cd:7c:8a:
                    44:0b:7b
                Exponent: 65537 (0x10001)
        X509v3 extensions:
            X509v3 Basic Constraints: 
                CA:FALSE
            Netscape Comment: 
                Easy-RSA Generated Certificate
            X509v3 Subject Key Identifier: 
                41:91:60:90:74:E2:B1:DA:03:D1:C0:48:23:6C:CF:02:57:34:11:00
            X509v3 Authority Key Identifier: 
                keyid:12:CD:60:04:D2:A0:80:9E:70:ED:C6:99:B8:7B:2C:C6:52:FD:19:A1
                DirName:/C=US/ST=OH/L=Columbus/O=VikingVPN/OU=MyOrganizationalUnit/CN=VikingVPN CA/name=EasyRSA/emailAddress=me@myhost.mydomain
                serial:CF:35:85:EE:80:BF:2A:3E

            X509v3 Extended Key Usage: 
                TLS Web Client Authentication
            X509v3 Key Usage: 
                Digital Signature
    Signature Algorithm: md5WithRSAEncryption
         ed:d3:0e:f4:a3:3b:0d:72:95:4e:54:a0:8e:7f:e3:82:b2:59:
         b5:3e:0c:d6:14:4c:98:e0:77:c1:8e:4e:8e:b2:b2:61:71:55:
         25:2d:c8:87:8d:ca:3d:89:3d:29:4a:fc:92:73:f2:9a:b8:46:
         66:f5:04:8b:df:9e:ca:70:db:d6:c1:fa:cd:2c:2e:9c:4c:d7:
         55:9b:8c:14:6e:d4:55:4c:35:4c:7f:6d:e2:e0:c4:d7:3c:6c:
         88:7b:a4:91:6a:6c:d0:de:f1:fc:a2:2c:8f:7c:54:62:cd:b6:
         7e:18:09:84:03:20:b2:8a:81:b2:50:fb:18:5e:3a:63:8d:a0:
         d1:4a:0c:4d:1e:d2:b0:70:cb:fa:02:74:e2:9f:e3:c8:37:b4:
         45:52:f7:06:cc:66:e2:a3:56:09:3c:36:66:07:5a:82:b0:25:
         1c:42:c7:d8:7e:4a:b6:43:86:3e:02:ab:c8:0f:8f:16:90:ff:
         4b:c7:34:43:ae:50:79:31:45:b9:8f:5c:72:88:41:f6:3f:a8:
         9e:73:61:43:61:80:5c:07:49:53:98:61:fe:19:46:a1:13:ca:
         fc:f2:aa:93:e9:1a:1a:7b:38:dd:38:37:dd:00:6c:f4:35:4e:
         66:88:11:7c:d8:98:d7:af:23:f1:02:8a:cf:ce:2d:ea:33:15:
         0d:a2:1e:d6:f9:ff:67:69:18:a2:7f:79:d1:9f:c7:1e:f8:e1:
         84:af:d6:62:fe:d1:82:6d:ab:b1:68:07:3e:0b:3c:d3:58:fc:
         fa:4e:3f:05:4e:2c:c4:a6:b3:d9:42:ab:c8:1e:7d:ac:00:3d:
         a0:8e:43:71:79:c7:87:e8:df:49:2c:a2:c3:14:c5:0e:fe:39:
         f6:5a:ec:67:17:da:e2:37:5d:47:0b:30:7f:05:ba:e1:00:75:
         a4:d2:14:04:16:65:6d:98:47:97:86:e7:4b:de:66:78:aa:7e:
         bb:02:05:7a:24:d6:b0:ee:c8:f4:23:68:fc:02:66:6d:f1:3b:
         e6:32:51:2d:76:29:03:d9:ee:0c:17:82:ae:6a:c9:41:15:f2:
         e3:23:ed:77:2a:68:f6:11:a8:d9:5d:76:32:a9:18:d4:30:cf:
         04:00:64:3b:20:10:af:9c:2d:00:75:67:c1:ac:f4:38:e3:2e:
         91:f2:2f:5d:41:91:79:60:f7:e1:06:14:f0:98:f7:e2:fe:0d:
         24:d9:e5:41:f8:be:1a:b5:53:a3:dd:32:f4:55:e2:1b:0f:9e:
         28:98:77:19:0d:97:e8:e2:a2:ad:8a:74:5f:62:2e:15:cd:67:
         44:37:31:23:0a:78:ff:b6:b3:9c:0d:a3:bc:f1:0e:4b:9e:22:
         cf:c4:42:3f:31:a0:ce:a9
-----BEGIN CERTIFICATE-----
MIIGrTCCBJWgAwIBAgICDjUwDQYJKoZIhvcNAQEEBQAwgawxCzAJBgNVBAYTAlVT
MQswCQYDVQQIEwJPSDERMA8GA1UEBxMIQ29sdW1idXMxEjAQBgNVBAoTCVZpa2lu
Z1ZQTjEdMBsGA1UECxMUTXlPcmdhbml6YXRpb25hbFVuaXQxFTATBgNVBAMTDFZp
a2luZ1ZQTiBDQTEQMA4GA1UEKRMHRWFzeVJTQTEhMB8GCSqGSIb3DQEJARYSbWVA
bXlob3N0Lm15ZG9tYWluMB4XDTE0MTIwODIyMTIwNVoXDTI0MTIwNTIyMTIwNVow
HzEdMBsGA1UEAxMUQ2xpZW50MTI1MENlcnRhZGY5MWMwggIiMA0GCSqGSIb3DQEB
AQUAA4ICDwAwggIKAoICAQDK1Z0I+FKZOFwCn2jfe2sQ+wIFFp/NQb4Kjt2Db6yd
o3AEGUNWeWp24nF/G7luBSWq4TABgv3tZCpatSBxlERiAtcMI0Rl8+K+j74rgTlv
85OjK6coBRgPpub6tL0aT69yLfymAQZwczNbj6fK0EmP2TvRNWz5YrVZXKTxySlg
+MAN/qg170kOtRd2qReZI1HQbe2S4m5AXTO+lfmOKH5bE+ITRDJGe3006qodAex6
gkEKpwgaK0MTdjaDdVmm4NUdpHZe9nSyPhhpMG/FUC5Ot+pEBp/QDjTuYdA40+ap
SR453+7T+gHPCHb/WVJRb4iIdcEoFfBWm3/XIl+wquloAUFR4Qv3fMkRsSPoi58w
y5ZBzGFb6Ea6a6mEu5uPPT9WJ/f7E8kpCsA6URPGSHO2OrR70poT51Y+hAGk9bjr
1Tb4sYVEeQ+yf7DpEx0ieG6/NPLTAg1+DA0SeMQL65NMP60zpYKHefLBQ8LAfm81
Snri7AqrUUpNZLUWy3SmA3W343n8Z8lvIuboi8wUXnPjEYtwn6RJQDYJhTlumVcU
u1FVRRcOaaH39ONqsC9VlHHgO59YMtzf7s/YrhKUyPzU7weGuJk/x3DIYzLR18JB
rRjGmLf9SZRuj7QO3lXmAI0S/umdUOBwtT8YL9qFtENPPm2P8Ty2U6PsQ818ikQL
ewIDAQABo4IBYzCCAV8wCQYDVR0TBAIwADAtBglghkgBhvhCAQ0EIBYeRWFzeS1S
U0EgR2VuZXJhdGVkIENlcnRpZmljYXRlMB0GA1UdDgQWBBRBkWCQdOKx2gPRwEgj
bM8CVzQRADCB4QYDVR0jBIHZMIHWgBQSzWAE0qCAnnDtxpm4eyzGUv0ZoaGBsqSB
rzCBrDELMAkGA1UEBhMCVVMxCzAJBgNVBAgTAk9IMREwDwYDVQQHEwhDb2x1bWJ1
czESMBAGA1UEChMJVmlraW5nVlBOMR0wGwYDVQQLExRNeU9yZ2FuaXphdGlvbmFs
VW5pdDEVMBMGA1UEAxMMVmlraW5nVlBOIENBMRAwDgYDVQQpEwdFYXN5UlNBMSEw
HwYJKoZIhvcNAQkBFhJtZUBteWhvc3QubXlkb21haW6CCQDPNYXugL8qPjATBgNV
HSUEDDAKBggrBgEFBQcDAjALBgNVHQ8EBAMCB4AwDQYJKoZIhvcNAQEEBQADggIB
AO3TDvSjOw1ylU5UoI5/44KyWbU+DNYUTJjgd8GOTo6ysmFxVSUtyIeNyj2JPSlK
/JJz8pq4Rmb1BIvfnspw29bB+s0sLpxM11WbjBRu1FVMNUx/beLgxNc8bIh7pJFq
bNDe8fyiLI98VGLNtn4YCYQDILKKgbJQ+xheOmONoNFKDE0e0rBwy/oCdOKf48g3
tEVS9wbMZuKjVgk8NmYHWoKwJRxCx9h+SrZDhj4Cq8gPjxaQ/0vHNEOuUHkxRbmP
XHKIQfY/qJ5zYUNhgFwHSVOYYf4ZRqETyvzyqpPpGhp7ON04N90AbPQ1TmaIEXzY
mNevI/ECis/OLeozFQ2iHtb5/2dpGKJ/edGfxx744YSv1mL+0YJtq7FoBz4LPNNY
/PpOPwVOLMSms9lCq8gefawAPaCOQ3F5x4fo30ksosMUxQ7+OfZa7GcX2uI3XUcL
MH8FuuEAdaTSFAQWZW2YR5eG50veZniqfrsCBXok1rDuyPQjaPwCZm3xO+YyUS12
KQPZ7gwXgq5qyUEV8uMj7XcqaPYRqNlddjKpGNQwzwQAZDsgEK+cLQB1Z8Gs9Djj
LpHyL11BkXlg9+EGFPCY9+L+DSTZ5UH4vhq1U6PdMvRV4hsPniiYdxkNl+jioq2K
dF9iLhXNZ0Q3MSMKeP+2s5wNo7zxDkueIs/EQj8xoM6p
-----END CERTIFICATE-----
