Certificate:
    Data:
        Version: 3 (0x2)
        Serial Number: 3643 (0xe3b)
    Signature Algorithm: md5WithRSAEncryption
        Issuer: C=US, ST=OH, L=Columbus, O=VikingVPN, OU=MyOrganizationalUnit, CN=VikingVPN CA/name=EasyRSA/emailAddress=me@myhost.mydomain
        Validity
            Not Before: Dec 10 05:59:52 2014 GMT
            Not After : Dec  7 05:59:52 2024 GMT
        Subject: CN=Client1230Cert6bbbaa
        Subject Public Key Info:
            Public Key Algorithm: rsaEncryption
                Public-Key: (4096 bit)
                Modulus:
                    00:f2:9c:96:c3:90:7b:2f:82:8e:8f:c0:50:a1:fe:
                    34:42:6e:37:3f:65:12:98:13:7a:e8:38:e1:cf:07:
                    04:4f:1e:97:48:6b:07:ac:dd:26:a9:6f:7d:65:84:
                    f0:b5:e6:a8:b2:8d:65:cf:50:39:96:b5:0e:a1:d1:
                    6e:e0:51:89:05:6f:68:a4:be:8d:3e:d6:7a:df:af:
                    87:1d:5c:e5:64:23:40:6d:b7:da:d4:5b:e4:7b:93:
                    3b:30:65:94:40:75:1f:9f:8f:27:81:ef:63:ca:d9:
                    09:07:f1:04:2e:52:e6:32:d6:bf:8f:ee:3b:03:c2:
                    0b:84:ad:4e:46:0c:fa:7e:dd:97:62:43:9e:27:b3:
                    f3:4e:d1:62:08:24:ab:98:11:fc:54:f7:39:60:7e:
                    14:2f:13:84:4b:5d:90:ab:22:a5:66:7a:9a:6a:ff:
                    14:0d:57:a2:94:95:8d:e1:9d:95:94:9a:64:00:86:
                    d1:3e:2f:df:95:a5:d7:91:cd:ce:07:b2:10:53:08:
                    3b:f1:4b:66:31:5a:cb:6c:6c:a6:2c:52:ef:cb:a3:
                    31:0b:57:28:78:cc:78:22:ab:b4:e7:6b:98:7b:90:
                    77:e9:13:11:d3:47:45:80:c0:7a:ec:fe:ef:4c:8e:
                    e7:b1:06:dd:6c:fd:2e:d5:55:ce:b8:98:b3:73:53:
                    7a:cc:d7:5a:6e:be:ea:35:7c:ce:ac:86:d6:e5:b2:
                    8a:69:57:8e:f6:df:2a:ff:5d:45:16:b9:ec:db:f4:
                    c3:8b:7a:43:63:c4:c1:33:3b:c5:17:25:63:a7:db:
                    62:ed:2f:63:a2:8a:84:88:8b:d4:e7:ce:f0:05:03:
                    02:4b:72:8a:23:55:d5:49:55:de:0e:84:2a:41:be:
                    e9:50:b0:c8:b8:63:92:4e:eb:47:d4:50:03:f3:ef:
                    dd:91:7f:f5:2b:4d:be:c3:e1:d7:03:45:64:74:ed:
                    cb:65:be:5b:f0:07:1c:63:1f:27:9d:46:68:5e:ce:
                    1d:48:d5:4b:c9:67:76:98:62:ec:50:a3:d9:57:f1:
                    f1:03:0b:19:0a:18:1d:c1:a4:b2:88:9b:3f:55:84:
                    a4:ba:d2:52:46:84:de:14:e5:f5:e9:5a:3a:47:aa:
                    0c:47:8b:aa:9a:34:ec:e2:fa:4c:1f:b5:c1:e3:90:
                    5c:89:92:15:f9:11:61:cd:ae:08:db:d5:13:39:6d:
                    2a:61:5c:28:a0:c2:e0:62:19:73:21:d2:ea:2e:3a:
                    ce:f7:07:f4:47:cb:2f:35:dc:c8:42:a2:a6:40:2a:
                    d7:e0:00:b5:98:4c:cb:5f:72:b3:b2:c7:ee:9f:a2:
                    30:52:29:02:5a:c8:84:da:34:a7:0f:73:03:ff:2e:
                    23:d3:3b
                Exponent: 65537 (0x10001)
        X509v3 extensions:
            X509v3 Basic Constraints: 
                CA:FALSE
            Netscape Comment: 
                Easy-RSA Generated Certificate
            X509v3 Subject Key Identifier: 
                25:28:9C:38:84:BF:93:BF:7F:82:42:99:2A:6C:37:93:75:93:5B:49
            X509v3 Authority Key Identifier: 
                keyid:12:CD:60:04:D2:A0:80:9E:70:ED:C6:99:B8:7B:2C:C6:52:FD:19:A1
                DirName:/C=US/ST=OH/L=Columbus/O=VikingVPN/OU=MyOrganizationalUnit/CN=VikingVPN CA/name=EasyRSA/emailAddress=me@myhost.mydomain
                serial:CF:35:85:EE:80:BF:2A:3E

            X509v3 Extended Key Usage: 
                TLS Web Client Authentication
            X509v3 Key Usage: 
                Digital Signature
    Signature Algorithm: md5WithRSAEncryption
         20:96:7b:3b:59:e7:fb:9c:c7:6f:23:2e:bb:12:10:b9:ca:4f:
         30:92:2e:99:46:13:ac:ef:80:3c:1c:82:db:e0:86:49:a1:c8:
         61:52:9f:3c:ec:94:e8:e2:52:bf:5c:fc:ab:97:37:a8:0f:ed:
         f2:38:d1:5b:0b:27:12:ae:40:76:4b:41:f1:64:b6:b4:c9:25:
         ee:fd:48:58:ce:c2:8f:9e:6f:96:45:ca:10:ba:7f:28:68:1b:
         c7:6c:ed:1e:bf:c0:e5:12:ef:02:fb:47:36:93:7d:a5:6b:a7:
         83:9f:aa:23:63:9a:35:cd:75:3e:d9:c1:2a:1b:c2:ae:05:56:
         9f:9c:b3:b5:1f:55:5e:e3:95:b0:db:ec:30:c7:b6:8f:6f:fa:
         90:a2:6b:f8:c9:03:63:65:94:51:2d:96:fb:79:54:ac:8f:d7:
         73:26:da:e1:87:16:eb:fb:bf:8b:0f:25:f0:c7:19:b3:b1:11:
         e1:c8:c9:94:3f:00:ff:f1:d7:f0:6c:eb:29:c0:bf:04:25:7c:
         65:2f:0d:40:08:fc:81:a2:de:60:e4:e2:9c:82:2e:35:94:18:
         96:ea:72:1b:e1:c9:73:c0:86:26:3f:a7:4c:fa:7f:a5:32:e8:
         c8:38:cd:0d:c1:0b:5d:1e:89:56:72:9f:16:5c:9d:ae:00:4f:
         9f:77:45:69:16:83:e0:ee:72:e6:8f:81:1f:63:2d:55:b1:77:
         d8:7f:7f:95:8a:ff:ca:b2:b5:d9:38:76:fb:8d:bb:53:09:1a:
         19:87:9f:ca:06:c0:a7:b0:de:32:bf:67:74:fa:28:fe:cc:9d:
         ea:15:59:43:80:bd:c2:8f:41:5d:0b:74:6b:77:69:f5:1e:d7:
         bd:8e:bc:f8:d8:c1:d3:4c:81:c2:73:22:01:9f:44:67:08:bb:
         51:d2:20:44:44:a8:31:d6:16:f1:e4:a1:e2:a2:03:31:6d:0c:
         18:1a:2d:09:ad:54:97:78:4a:e9:cb:fa:95:2e:4a:31:81:c4:
         3c:f6:7a:ee:67:c4:cd:92:db:cd:fc:4a:c5:9e:5c:3a:df:26:
         b2:28:04:2e:7a:e6:55:ac:a8:45:5b:1d:ce:71:55:f5:1d:75:
         b8:7e:d0:06:cd:d1:6e:04:cb:bb:b5:2c:54:ca:c3:4a:18:ab:
         79:11:c8:e5:66:57:43:3d:2a:b6:ba:5b:ff:a6:c0:e1:c1:ae:
         9f:44:42:b9:e1:80:77:94:a1:e0:05:32:df:8d:5c:d4:15:74:
         d0:bb:93:3e:1a:9e:28:14:a1:a4:17:22:40:4a:60:84:d5:e8:
         3d:9f:7d:e3:6f:1b:b4:db:c1:1d:d6:00:f1:fe:32:3c:a3:81:
         04:d0:c2:e3:61:6c:4f:41
-----BEGIN CERTIFICATE-----
MIIGrTCCBJWgAwIBAgICDjswDQYJKoZIhvcNAQEEBQAwgawxCzAJBgNVBAYTAlVT
MQswCQYDVQQIEwJPSDERMA8GA1UEBxMIQ29sdW1idXMxEjAQBgNVBAoTCVZpa2lu
Z1ZQTjEdMBsGA1UECxMUTXlPcmdhbml6YXRpb25hbFVuaXQxFTATBgNVBAMTDFZp
a2luZ1ZQTiBDQTEQMA4GA1UEKRMHRWFzeVJTQTEhMB8GCSqGSIb3DQEJARYSbWVA
bXlob3N0Lm15ZG9tYWluMB4XDTE0MTIxMDA1NTk1MloXDTI0MTIwNzA1NTk1Mlow
HzEdMBsGA1UEAxMUQ2xpZW50MTIzMENlcnQ2YmJiYWEwggIiMA0GCSqGSIb3DQEB
AQUAA4ICDwAwggIKAoICAQDynJbDkHsvgo6PwFCh/jRCbjc/ZRKYE3roOOHPBwRP
HpdIawes3Sapb31lhPC15qiyjWXPUDmWtQ6h0W7gUYkFb2ikvo0+1nrfr4cdXOVk
I0Btt9rUW+R7kzswZZRAdR+fjyeB72PK2QkH8QQuUuYy1r+P7jsDwguErU5GDPp+
3ZdiQ54ns/NO0WIIJKuYEfxU9zlgfhQvE4RLXZCrIqVmeppq/xQNV6KUlY3hnZWU
mmQAhtE+L9+VpdeRzc4HshBTCDvxS2YxWstsbKYsUu/LozELVyh4zHgiq7Tna5h7
kHfpExHTR0WAwHrs/u9MjuexBt1s/S7VVc64mLNzU3rM11puvuo1fM6shtblsopp
V4723yr/XUUWuezb9MOLekNjxMEzO8UXJWOn22LtL2OiioSIi9TnzvAFAwJLcooj
VdVJVd4OhCpBvulQsMi4Y5JO60fUUAPz792Rf/UrTb7D4dcDRWR07ctlvlvwBxxj
HyedRmhezh1I1UvJZ3aYYuxQo9lX8fEDCxkKGB3BpLKImz9VhKS60lJGhN4U5fXp
WjpHqgxHi6qaNOzi+kwftcHjkFyJkhX5EWHNrgjb1RM5bSphXCigwuBiGXMh0uou
Os73B/RHyy813MhCoqZAKtfgALWYTMtfcrOyx+6fojBSKQJayITaNKcPcwP/LiPT
OwIDAQABo4IBYzCCAV8wCQYDVR0TBAIwADAtBglghkgBhvhCAQ0EIBYeRWFzeS1S
U0EgR2VuZXJhdGVkIENlcnRpZmljYXRlMB0GA1UdDgQWBBQlKJw4hL+Tv3+CQpkq
bDeTdZNbSTCB4QYDVR0jBIHZMIHWgBQSzWAE0qCAnnDtxpm4eyzGUv0ZoaGBsqSB
rzCBrDELMAkGA1UEBhMCVVMxCzAJBgNVBAgTAk9IMREwDwYDVQQHEwhDb2x1bWJ1
czESMBAGA1UEChMJVmlraW5nVlBOMR0wGwYDVQQLExRNeU9yZ2FuaXphdGlvbmFs
VW5pdDEVMBMGA1UEAxMMVmlraW5nVlBOIENBMRAwDgYDVQQpEwdFYXN5UlNBMSEw
HwYJKoZIhvcNAQkBFhJtZUBteWhvc3QubXlkb21haW6CCQDPNYXugL8qPjATBgNV
HSUEDDAKBggrBgEFBQcDAjALBgNVHQ8EBAMCB4AwDQYJKoZIhvcNAQEEBQADggIB
ACCWeztZ5/ucx28jLrsSELnKTzCSLplGE6zvgDwcgtvghkmhyGFSnzzslOjiUr9c
/KuXN6gP7fI40VsLJxKuQHZLQfFktrTJJe79SFjOwo+eb5ZFyhC6fyhoG8ds7R6/
wOUS7wL7RzaTfaVrp4OfqiNjmjXNdT7ZwSobwq4FVp+cs7UfVV7jlbDb7DDHto9v
+pCia/jJA2NllFEtlvt5VKyP13Mm2uGHFuv7v4sPJfDHGbOxEeHIyZQ/AP/x1/Bs
6ynAvwQlfGUvDUAI/IGi3mDk4pyCLjWUGJbqchvhyXPAhiY/p0z6f6Uy6Mg4zQ3B
C10eiVZynxZcna4AT593RWkWg+DucuaPgR9jLVWxd9h/f5WK/8qytdk4dvuNu1MJ
GhmHn8oGwKew3jK/Z3T6KP7MneoVWUOAvcKPQV0LdGt3afUe172OvPjYwdNMgcJz
IgGfRGcIu1HSIEREqDHWFvHkoeKiAzFtDBgaLQmtVJd4SunL+pUuSjGBxDz2eu5n
xM2S2838SsWeXDrfJrIoBC565lWsqEVbHc5xVfUddbh+0AbN0W4Ey7u1LFTKw0oY
q3kRyOVmV0M9Kra6W/+mwOHBrp9EQrnhgHeUoeAFMt+NXNQVdNC7kz4anigUoaQX
IkBKYITV6D2ffeNvG7TbwR3WAPH+MjyjgQTQwuNhbE9B
-----END CERTIFICATE-----
