Certificate:
    Data:
        Version: 3 (0x2)
        Serial Number: 3648 (0xe40)
    Signature Algorithm: md5WithRSAEncryption
        Issuer: C=US, ST=OH, L=Columbus, O=VikingVPN, OU=MyOrganizationalUnit, CN=VikingVPN CA/name=EasyRSA/emailAddress=me@myhost.mydomain
        Validity
            Not Before: Dec 10 09:42:24 2014 GMT
            Not After : Dec  7 09:42:24 2024 GMT
        Subject: CN=Client1253Cert117313
        Subject Public Key Info:
            Public Key Algorithm: rsaEncryption
                Public-Key: (4096 bit)
                Modulus:
                    00:d4:67:9d:8b:2b:04:7b:33:eb:0b:74:4a:5d:18:
                    63:73:9c:a8:eb:23:07:8f:b5:44:2e:50:52:bc:da:
                    7b:5b:a8:76:55:de:45:b6:d1:8a:1e:91:ae:23:35:
                    2f:ed:91:46:38:2a:cb:3a:07:da:5b:df:bf:38:70:
                    02:ed:1a:2c:30:48:54:67:5a:c2:37:78:42:05:36:
                    c9:3f:ac:bc:e0:50:2c:39:8c:64:4c:e8:c1:1b:1b:
                    c5:d8:36:1c:45:49:4a:58:3b:e3:dc:06:1e:fc:7d:
                    01:21:50:d7:99:10:66:ab:43:fe:f2:d2:25:69:7f:
                    9d:fa:c1:86:ad:8a:ad:32:72:9a:3b:10:9c:20:95:
                    29:26:9f:11:83:d5:2a:77:5d:d1:20:a2:b4:78:82:
                    7b:a7:c9:5d:fb:ce:ea:65:b3:1a:7c:6c:0e:cb:44:
                    9f:39:e9:7a:33:85:c1:4d:37:05:bb:bf:c7:d2:64:
                    f0:2e:10:95:51:27:7e:eb:04:a8:d6:0c:3c:74:54:
                    b5:29:d9:83:61:b4:cf:99:d7:e4:1a:c7:45:5c:69:
                    20:7c:60:a7:fd:fb:97:94:18:a7:3e:58:0c:56:07:
                    77:8d:bc:75:ca:9e:3a:ce:9b:0d:ae:ce:cf:13:1a:
                    73:35:c3:ca:83:b4:55:96:2f:d3:d5:a1:5d:e5:52:
                    14:34:7f:9c:99:61:cc:3f:7f:b9:b2:e8:36:90:7f:
                    4c:a0:fe:5b:54:19:58:13:8e:ee:a2:ba:9d:8b:88:
                    27:0b:78:f7:d9:28:74:0e:5d:37:82:ad:e6:27:36:
                    16:aa:b4:a0:9a:cf:07:3a:7a:16:c5:62:1d:ab:6a:
                    22:e3:fb:e7:e2:34:a2:1c:79:88:74:7e:ad:5d:9f:
                    10:21:4b:b9:7f:0f:91:7b:41:41:9d:55:e5:b1:28:
                    92:ce:12:54:f1:06:d5:da:bc:e8:5d:bd:04:06:d3:
                    b6:72:7f:c2:39:b1:65:92:57:38:85:61:cc:a5:90:
                    c5:c7:dc:30:05:f3:d8:bb:53:fc:1f:a4:c5:bb:5e:
                    14:fc:c7:ea:8d:5a:0a:3a:ba:f7:d7:b0:1e:ca:7c:
                    82:de:51:82:f3:49:be:73:2c:28:08:05:96:21:3c:
                    08:a0:63:e4:01:41:fa:63:26:56:d2:f7:76:fd:92:
                    3a:b7:61:c1:ea:7f:18:03:e9:fb:f0:b6:13:8d:90:
                    ef:2b:3f:d2:f8:39:fd:47:9a:ba:92:02:72:68:46:
                    6d:12:01:d2:00:df:67:20:30:0f:5c:21:13:f4:3d:
                    09:a0:36:94:cb:b8:03:6b:c9:74:32:ca:1d:2d:43:
                    01:d0:10:4f:0e:2e:62:93:08:e2:6e:1a:37:44:fc:
                    d5:c6:bb
                Exponent: 65537 (0x10001)
        X509v3 extensions:
            X509v3 Basic Constraints: 
                CA:FALSE
            Netscape Comment: 
                Easy-RSA Generated Certificate
            X509v3 Subject Key Identifier: 
                7A:D0:C7:16:7C:C7:4E:A6:4A:72:0A:AC:41:2A:EF:62:82:E1:BA:E8
            X509v3 Authority Key Identifier: 
                keyid:12:CD:60:04:D2:A0:80:9E:70:ED:C6:99:B8:7B:2C:C6:52:FD:19:A1
                DirName:/C=US/ST=OH/L=Columbus/O=VikingVPN/OU=MyOrganizationalUnit/CN=VikingVPN CA/name=EasyRSA/emailAddress=me@myhost.mydomain
                serial:CF:35:85:EE:80:BF:2A:3E

            X509v3 Extended Key Usage: 
                TLS Web Client Authentication
            X509v3 Key Usage: 
                Digital Signature
    Signature Algorithm: md5WithRSAEncryption
         e5:5d:0b:0f:5f:ff:8b:95:27:94:85:b6:17:bb:c9:41:01:d8:
         b1:6c:46:df:05:d9:64:61:c9:32:af:8e:4d:e4:b1:ae:1d:05:
         c8:2a:b8:96:39:a1:38:90:40:9d:49:3f:cb:36:af:8e:6a:27:
         df:8f:fa:ae:35:94:24:9a:e2:d5:06:d7:7e:fa:6f:d3:ac:f4:
         7a:e7:d9:9b:ea:0c:ef:ea:b2:9e:ef:38:0a:e0:cb:1a:72:0e:
         c2:fa:10:37:59:34:42:84:dc:0e:29:c2:e3:6b:62:d9:29:6e:
         aa:64:3b:9a:b3:5e:dd:9a:60:d2:ef:ab:f0:7c:88:1d:e1:fe:
         d2:05:81:7d:0b:e7:37:b2:e2:50:99:24:cd:b0:e0:7d:b9:d3:
         15:98:fa:5c:82:e3:31:5e:17:e3:ef:4f:9c:24:48:85:0e:33:
         83:d6:78:a5:9d:c5:6b:b1:54:a1:01:6e:d8:0d:da:c7:df:bd:
         0b:9b:92:56:81:29:2e:6b:3f:18:0e:32:f0:8b:a2:53:5b:8d:
         82:b7:c2:e6:b4:cd:25:68:b4:7c:42:e8:93:24:24:b9:b6:ff:
         e9:4c:ee:c7:5e:37:09:16:4c:a9:6d:6d:31:d4:a5:13:32:ca:
         53:a2:cd:f3:2a:24:d8:95:a6:7e:d6:21:1a:49:21:14:d1:96:
         f9:87:0d:bd:58:6a:33:5d:88:90:05:ee:23:dc:09:e8:e7:a9:
         ca:e2:e4:d6:04:17:9a:c0:05:2d:f1:7c:b2:74:2e:99:eb:aa:
         87:79:1f:7a:f4:0a:1d:27:e9:a4:29:2f:9f:c7:64:09:e0:8f:
         18:a5:98:96:11:f7:4e:29:a9:ba:ec:67:24:f2:c5:ad:b7:1d:
         64:88:01:25:f8:8e:a0:d4:bd:0e:2f:3d:9e:66:04:94:70:56:
         46:34:15:c8:0f:31:75:74:43:4d:3c:66:e9:b8:63:72:90:ce:
         89:fd:f4:40:a0:e9:ad:26:72:49:01:1a:8a:55:2a:11:bf:88:
         34:76:14:19:7c:a4:f5:b4:ab:f1:4f:35:2a:b9:cd:12:27:f3:
         3f:5a:4e:29:6f:6f:bf:55:ab:7e:70:29:b3:39:66:f0:77:78:
         37:87:e4:7f:aa:01:49:17:18:81:d0:2e:87:25:07:e4:54:3d:
         af:ee:37:28:e0:3a:ce:50:2c:78:69:cc:a2:50:d4:92:ce:2e:
         dc:16:1c:91:03:4d:d3:5e:ca:17:73:b7:19:24:5b:ba:e1:90:
         eb:43:a6:b4:9b:75:25:ce:86:4e:ea:84:44:10:b0:94:01:d4:
         f4:b2:1e:55:da:5d:3b:77:5d:09:f4:3d:18:14:3c:6b:a0:5c:
         3c:2e:56:0a:79:c1:6e:98
-----BEGIN CERTIFICATE-----
MIIGrTCCBJWgAwIBAgICDkAwDQYJKoZIhvcNAQEEBQAwgawxCzAJBgNVBAYTAlVT
MQswCQYDVQQIEwJPSDERMA8GA1UEBxMIQ29sdW1idXMxEjAQBgNVBAoTCVZpa2lu
Z1ZQTjEdMBsGA1UECxMUTXlPcmdhbml6YXRpb25hbFVuaXQxFTATBgNVBAMTDFZp
a2luZ1ZQTiBDQTEQMA4GA1UEKRMHRWFzeVJTQTEhMB8GCSqGSIb3DQEJARYSbWVA
bXlob3N0Lm15ZG9tYWluMB4XDTE0MTIxMDA5NDIyNFoXDTI0MTIwNzA5NDIyNFow
HzEdMBsGA1UEAxMUQ2xpZW50MTI1M0NlcnQxMTczMTMwggIiMA0GCSqGSIb3DQEB
AQUAA4ICDwAwggIKAoICAQDUZ52LKwR7M+sLdEpdGGNznKjrIwePtUQuUFK82ntb
qHZV3kW20Yoeka4jNS/tkUY4Kss6B9pb3784cALtGiwwSFRnWsI3eEIFNsk/rLzg
UCw5jGRM6MEbG8XYNhxFSUpYO+PcBh78fQEhUNeZEGarQ/7y0iVpf536wYatiq0y
cpo7EJwglSkmnxGD1Sp3XdEgorR4gnunyV37zuplsxp8bA7LRJ856XozhcFNNwW7
v8fSZPAuEJVRJ37rBKjWDDx0VLUp2YNhtM+Z1+Qax0VcaSB8YKf9+5eUGKc+WAxW
B3eNvHXKnjrOmw2uzs8TGnM1w8qDtFWWL9PVoV3lUhQ0f5yZYcw/f7my6DaQf0yg
/ltUGVgTju6iup2LiCcLePfZKHQOXTeCreYnNhaqtKCazwc6ehbFYh2raiLj++fi
NKIceYh0fq1dnxAhS7l/D5F7QUGdVeWxKJLOElTxBtXavOhdvQQG07Zyf8I5sWWS
VziFYcylkMXH3DAF89i7U/wfpMW7XhT8x+qNWgo6uvfXsB7KfILeUYLzSb5zLCgI
BZYhPAigY+QBQfpjJlbS93b9kjq3YcHqfxgD6fvwthONkO8rP9L4Of1HmrqSAnJo
Rm0SAdIA32cgMA9cIRP0PQmgNpTLuANryXQyyh0tQwHQEE8OLmKTCOJuGjdE/NXG
uwIDAQABo4IBYzCCAV8wCQYDVR0TBAIwADAtBglghkgBhvhCAQ0EIBYeRWFzeS1S
U0EgR2VuZXJhdGVkIENlcnRpZmljYXRlMB0GA1UdDgQWBBR60McWfMdOpkpyCqxB
Ku9iguG66DCB4QYDVR0jBIHZMIHWgBQSzWAE0qCAnnDtxpm4eyzGUv0ZoaGBsqSB
rzCBrDELMAkGA1UEBhMCVVMxCzAJBgNVBAgTAk9IMREwDwYDVQQHEwhDb2x1bWJ1
czESMBAGA1UEChMJVmlraW5nVlBOMR0wGwYDVQQLExRNeU9yZ2FuaXphdGlvbmFs
VW5pdDEVMBMGA1UEAxMMVmlraW5nVlBOIENBMRAwDgYDVQQpEwdFYXN5UlNBMSEw
HwYJKoZIhvcNAQkBFhJtZUBteWhvc3QubXlkb21haW6CCQDPNYXugL8qPjATBgNV
HSUEDDAKBggrBgEFBQcDAjALBgNVHQ8EBAMCB4AwDQYJKoZIhvcNAQEEBQADggIB
AOVdCw9f/4uVJ5SFthe7yUEB2LFsRt8F2WRhyTKvjk3ksa4dBcgquJY5oTiQQJ1J
P8s2r45qJ9+P+q41lCSa4tUG1376b9Os9Hrn2ZvqDO/qsp7vOArgyxpyDsL6EDdZ
NEKE3A4pwuNrYtkpbqpkO5qzXt2aYNLvq/B8iB3h/tIFgX0L5zey4lCZJM2w4H25
0xWY+lyC4zFeF+PvT5wkSIUOM4PWeKWdxWuxVKEBbtgN2sffvQubklaBKS5rPxgO
MvCLolNbjYK3wua0zSVotHxC6JMkJLm2/+lM7sdeNwkWTKltbTHUpRMyylOizfMq
JNiVpn7WIRpJIRTRlvmHDb1YajNdiJAF7iPcCejnqcri5NYEF5rABS3xfLJ0Lpnr
qod5H3r0Ch0n6aQpL5/HZAngjxilmJYR904pqbrsZyTyxa23HWSIASX4jqDUvQ4v
PZ5mBJRwVkY0FcgPMXV0Q008Zum4Y3KQzon99ECg6a0mckkBGopVKhG/iDR2FBl8
pPW0q/FPNSq5zRIn8z9aTilvb79Vq35wKbM5ZvB3eDeH5H+qAUkXGIHQLoclB+RU
Pa/uNyjgOs5QLHhpzKJQ1JLOLtwWHJEDTdNeyhdztxkkW7rhkOtDprSbdSXOhk7q
hEQQsJQB1PSyHlXaXTt3XQn0PRgUPGugXDwuVgp5wW6Y
-----END CERTIFICATE-----
