Certificate:
    Data:
        Version: 3 (0x2)
        Serial Number: 3649 (0xe41)
    Signature Algorithm: md5WithRSAEncryption
        Issuer: C=US, ST=OH, L=Columbus, O=VikingVPN, OU=MyOrganizationalUnit, CN=VikingVPN CA/name=EasyRSA/emailAddress=me@myhost.mydomain
        Validity
            Not Before: Dec 10 12:25:04 2014 GMT
            Not After : Dec  7 12:25:04 2024 GMT
        Subject: CN=Client1254Cert8f2ff6
        Subject Public Key Info:
            Public Key Algorithm: rsaEncryption
                Public-Key: (4096 bit)
                Modulus:
                    00:96:a0:88:54:66:c4:98:5e:b0:9d:54:dc:fc:01:
                    0a:ca:85:38:e5:6b:f1:02:57:0f:28:9d:c4:2d:37:
                    32:0d:df:ea:77:2b:92:c8:60:f5:69:b1:7b:23:4c:
                    38:2a:dc:53:7e:94:ac:2e:75:8c:c3:7c:65:b4:17:
                    32:f8:e4:8a:62:0b:5b:41:64:24:0c:04:b2:d0:6f:
                    33:b1:74:2b:cf:45:e9:19:ad:0e:cf:7a:eb:14:3d:
                    58:7a:3b:de:b7:91:16:5d:58:6e:ce:7e:42:1d:31:
                    77:c2:82:3e:2c:2e:c4:77:80:94:e2:3b:e3:38:17:
                    7f:38:06:d0:2a:7e:77:b3:8d:b5:24:39:d9:ed:74:
                    a9:9b:ce:ed:ee:e0:55:45:2c:8b:dc:76:8a:4b:ea:
                    1a:bd:b1:36:92:b2:13:b1:86:ee:a2:4d:aa:7f:66:
                    3b:e5:63:c8:76:c0:e1:b5:c9:fb:4c:af:b5:01:47:
                    9d:b9:27:15:5e:c4:a8:c2:73:20:69:1d:35:40:95:
                    e3:f3:3b:2c:bb:e7:84:d7:2a:fc:1f:74:13:57:a0:
                    92:30:2e:6b:36:1b:6c:48:7f:52:89:23:3a:b4:d7:
                    6f:9e:92:7f:7a:7a:2f:21:a9:6a:47:bb:99:27:29:
                    fc:6e:04:dd:5b:75:1f:65:52:5f:24:8a:0b:5d:db:
                    c7:be:52:9d:eb:63:d5:56:93:6c:5a:55:b4:27:4d:
                    58:10:7a:5e:30:bb:ff:f2:ba:fc:54:34:bf:79:c6:
                    1c:6c:11:0b:20:a0:64:c6:d5:7e:b3:dd:37:bc:84:
                    88:c7:b0:d1:2a:84:09:6c:98:6e:ee:e4:b8:8b:12:
                    48:43:2b:f4:a4:84:b8:c9:e8:a6:31:f4:12:cb:f2:
                    12:d2:12:4a:c0:33:91:3c:25:d2:9a:35:a5:34:69:
                    ba:f7:ea:dc:44:d6:03:f3:b8:19:4e:1f:54:1a:51:
                    8c:43:ed:75:3d:05:b5:6d:e1:78:3d:9a:8d:61:1f:
                    80:cf:96:4e:f4:dd:49:1d:7f:43:e3:27:8f:9a:bb:
                    51:4c:db:bd:95:9d:e5:a4:6a:62:71:2a:90:8c:94:
                    3e:9f:4b:ee:09:2f:dd:23:4a:7d:36:a5:15:fb:b2:
                    60:c7:61:d8:94:a2:32:fd:e4:47:1b:34:b4:a6:f1:
                    a2:47:27:5f:98:21:3c:fd:ca:2f:92:a5:b0:80:fa:
                    8a:28:9b:91:90:c5:28:f1:10:85:2a:60:a0:cd:3b:
                    3b:a0:82:e9:1e:ae:e5:e3:fb:a8:f9:29:15:38:12:
                    9b:3d:97:d9:ec:59:5b:74:35:be:fb:c0:51:cb:3f:
                    b7:74:dd:e5:3d:a6:7e:3c:da:a5:38:b3:fe:ce:48:
                    2b:54:27
                Exponent: 65537 (0x10001)
        X509v3 extensions:
            X509v3 Basic Constraints: 
                CA:FALSE
            Netscape Comment: 
                Easy-RSA Generated Certificate
            X509v3 Subject Key Identifier: 
                AE:28:36:56:4C:A2:D7:38:98:EE:AC:E5:58:10:F0:87:46:67:EC:FA
            X509v3 Authority Key Identifier: 
                keyid:12:CD:60:04:D2:A0:80:9E:70:ED:C6:99:B8:7B:2C:C6:52:FD:19:A1
                DirName:/C=US/ST=OH/L=Columbus/O=VikingVPN/OU=MyOrganizationalUnit/CN=VikingVPN CA/name=EasyRSA/emailAddress=me@myhost.mydomain
                serial:CF:35:85:EE:80:BF:2A:3E

            X509v3 Extended Key Usage: 
                TLS Web Client Authentication
            X509v3 Key Usage: 
                Digital Signature
    Signature Algorithm: md5WithRSAEncryption
         8e:08:81:c5:ab:29:82:a8:df:97:89:38:3a:31:bc:5c:d4:fe:
         13:c0:05:ac:fb:07:9b:41:68:59:ac:75:78:dd:a5:4d:16:cb:
         e2:f7:7a:b9:2a:e2:6a:b6:bb:56:17:c0:e4:d7:da:a1:0a:65:
         94:97:8b:9f:2a:f8:2a:0d:e0:7e:5a:0f:db:24:35:f9:40:db:
         d6:bb:50:a5:e4:a3:80:41:7e:80:ee:62:e5:fb:98:c6:2f:84:
         8f:9b:c8:00:45:87:a2:d5:cf:15:b9:57:c8:82:be:86:7b:5b:
         eb:db:07:b2:2a:e5:7a:03:79:5f:c6:65:71:49:cd:50:62:0e:
         3e:ff:d7:2f:45:bb:d2:52:01:b2:01:47:f8:d8:11:6f:6a:42:
         a7:b7:30:35:92:1e:b8:f3:47:16:c0:a9:18:41:75:1c:44:df:
         12:99:9f:1e:34:f5:f1:e5:72:09:9c:49:33:1d:6e:3d:cf:e1:
         81:a8:f8:a4:eb:3f:6b:68:5b:54:15:8f:38:88:b8:b8:8d:eb:
         c0:d0:61:54:3c:db:8d:a5:38:a9:cb:d0:c3:65:b5:d4:45:25:
         c6:be:8d:48:5b:7b:ba:4d:74:7a:3b:d2:b0:72:bb:01:f6:4a:
         0d:4a:b3:1b:61:58:b2:fa:c1:ac:50:f2:9e:a1:09:c6:d1:6f:
         c3:72:94:49:21:77:82:5e:01:49:e7:8c:e6:d2:89:04:2d:2b:
         99:cf:f1:8e:3f:45:f7:c0:65:e7:28:91:37:a3:fd:ff:e4:20:
         9d:0b:dc:ac:ab:f6:ac:17:ab:63:90:f9:97:b6:0d:c7:01:bb:
         0b:33:5e:8f:a2:b7:3e:2b:60:33:df:71:85:37:fd:93:b1:2f:
         66:57:f9:03:2c:4b:bd:c1:43:94:e3:ea:6b:c2:79:c5:50:2c:
         b4:be:7e:05:c0:8d:29:66:e3:82:b9:56:69:b5:f3:be:06:24:
         f3:b2:71:49:6b:89:d4:02:a3:fa:71:e3:9c:c2:ce:e1:c0:cc:
         ad:cb:45:e7:5b:c7:e3:8e:62:51:59:28:09:7f:b8:40:c0:94:
         d5:dd:2d:0b:ca:0d:4a:9a:f6:cb:43:50:5e:b3:a8:ce:8a:a0:
         e5:14:1e:45:80:10:4c:e7:a8:9a:eb:90:51:07:27:07:20:b3:
         f3:2c:25:0c:58:0e:41:67:cb:08:09:10:29:3b:4d:dd:a0:76:
         eb:15:7d:10:b3:c7:a5:c9:4c:11:63:4a:4a:52:c0:c7:af:2b:
         85:1b:c0:f0:67:6e:b4:66:ec:7c:63:40:7b:aa:71:f5:e4:9e:
         dd:25:e0:0f:09:d6:8d:0e:1f:cb:c6:d6:94:ab:9a:3f:24:fe:
         57:48:fd:41:57:c2:a2:77
-----BEGIN CERTIFICATE-----
MIIGrTCCBJWgAwIBAgICDkEwDQYJKoZIhvcNAQEEBQAwgawxCzAJBgNVBAYTAlVT
MQswCQYDVQQIEwJPSDERMA8GA1UEBxMIQ29sdW1idXMxEjAQBgNVBAoTCVZpa2lu
Z1ZQTjEdMBsGA1UECxMUTXlPcmdhbml6YXRpb25hbFVuaXQxFTATBgNVBAMTDFZp
a2luZ1ZQTiBDQTEQMA4GA1UEKRMHRWFzeVJTQTEhMB8GCSqGSIb3DQEJARYSbWVA
bXlob3N0Lm15ZG9tYWluMB4XDTE0MTIxMDEyMjUwNFoXDTI0MTIwNzEyMjUwNFow
HzEdMBsGA1UEAxMUQ2xpZW50MTI1NENlcnQ4ZjJmZjYwggIiMA0GCSqGSIb3DQEB
AQUAA4ICDwAwggIKAoICAQCWoIhUZsSYXrCdVNz8AQrKhTjla/ECVw8oncQtNzIN
3+p3K5LIYPVpsXsjTDgq3FN+lKwudYzDfGW0FzL45IpiC1tBZCQMBLLQbzOxdCvP
RekZrQ7PeusUPVh6O963kRZdWG7OfkIdMXfCgj4sLsR3gJTiO+M4F384BtAqfnez
jbUkOdntdKmbzu3u4FVFLIvcdopL6hq9sTaSshOxhu6iTap/ZjvlY8h2wOG1yftM
r7UBR525JxVexKjCcyBpHTVAlePzOyy754TXKvwfdBNXoJIwLms2G2xIf1KJIzq0
12+ekn96ei8hqWpHu5knKfxuBN1bdR9lUl8kigtd28e+Up3rY9VWk2xaVbQnTVgQ
el4wu//yuvxUNL95xhxsEQsgoGTG1X6z3Te8hIjHsNEqhAlsmG7u5LiLEkhDK/Sk
hLjJ6KYx9BLL8hLSEkrAM5E8JdKaNaU0abr36txE1gPzuBlOH1QaUYxD7XU9BbVt
4Xg9mo1hH4DPlk703Ukdf0PjJ4+au1FM272VneWkamJxKpCMlD6fS+4JL90jSn02
pRX7smDHYdiUojL95EcbNLSm8aJHJ1+YITz9yi+SpbCA+ooom5GQxSjxEIUqYKDN
OzuggukeruXj+6j5KRU4Eps9l9nsWVt0Nb77wFHLP7d03eU9pn482qU4s/7OSCtU
JwIDAQABo4IBYzCCAV8wCQYDVR0TBAIwADAtBglghkgBhvhCAQ0EIBYeRWFzeS1S
U0EgR2VuZXJhdGVkIENlcnRpZmljYXRlMB0GA1UdDgQWBBSuKDZWTKLXOJjurOVY
EPCHRmfs+jCB4QYDVR0jBIHZMIHWgBQSzWAE0qCAnnDtxpm4eyzGUv0ZoaGBsqSB
rzCBrDELMAkGA1UEBhMCVVMxCzAJBgNVBAgTAk9IMREwDwYDVQQHEwhDb2x1bWJ1
czESMBAGA1UEChMJVmlraW5nVlBOMR0wGwYDVQQLExRNeU9yZ2FuaXphdGlvbmFs
VW5pdDEVMBMGA1UEAxMMVmlraW5nVlBOIENBMRAwDgYDVQQpEwdFYXN5UlNBMSEw
HwYJKoZIhvcNAQkBFhJtZUBteWhvc3QubXlkb21haW6CCQDPNYXugL8qPjATBgNV
HSUEDDAKBggrBgEFBQcDAjALBgNVHQ8EBAMCB4AwDQYJKoZIhvcNAQEEBQADggIB
AI4IgcWrKYKo35eJODoxvFzU/hPABaz7B5tBaFmsdXjdpU0Wy+L3erkq4mq2u1YX
wOTX2qEKZZSXi58q+CoN4H5aD9skNflA29a7UKXko4BBfoDuYuX7mMYvhI+byABF
h6LVzxW5V8iCvoZ7W+vbB7Iq5XoDeV/GZXFJzVBiDj7/1y9Fu9JSAbIBR/jYEW9q
Qqe3MDWSHrjzRxbAqRhBdRxE3xKZnx409fHlcgmcSTMdbj3P4YGo+KTrP2toW1QV
jziIuLiN68DQYVQ8242lOKnL0MNltdRFJca+jUhbe7pNdHo70rByuwH2Sg1Ksxth
WLL6waxQ8p6hCcbRb8NylEkhd4JeAUnnjObSiQQtK5nP8Y4/RffAZecokTej/f/k
IJ0L3Kyr9qwXq2OQ+Ze2DccBuwszXo+itz4rYDPfcYU3/ZOxL2ZX+QMsS73BQ5Tj
6mvCecVQLLS+fgXAjSlm44K5Vmm1874GJPOycUlridQCo/px45zCzuHAzK3LRedb
x+OOYlFZKAl/uEDAlNXdLQvKDUqa9stDUF6zqM6KoOUUHkWAEEznqJrrkFEHJwcg
s/MsJQxYDkFnywgJECk7Td2gdusVfRCzx6XJTBFjSkpSwMevK4UbwPBnbrRm7Hxj
QHuqcfXknt0l4A8J1o0OH8vG1pSrmj8k/ldI/UFXwqJ3
-----END CERTIFICATE-----
