Certificate:
    Data:
        Version: 3 (0x2)
        Serial Number: 3650 (0xe42)
    Signature Algorithm: md5WithRSAEncryption
        Issuer: C=US, ST=OH, L=Columbus, O=VikingVPN, OU=MyOrganizationalUnit, CN=VikingVPN CA/name=EasyRSA/emailAddress=me@myhost.mydomain
        Validity
            Not Before: Dec 10 18:04:35 2014 GMT
            Not After : Dec  7 18:04:35 2024 GMT
        Subject: CN=Client1255Cert11945a
        Subject Public Key Info:
            Public Key Algorithm: rsaEncryption
                Public-Key: (4096 bit)
                Modulus:
                    00:aa:74:46:a4:0c:32:7f:75:b8:4a:30:46:2b:27:
                    c0:fa:11:30:a5:bc:4e:1d:c7:b1:79:2e:b8:c1:84:
                    87:46:d5:6f:ba:b5:a3:95:9d:17:17:d7:28:7f:dc:
                    30:17:42:12:55:32:f3:34:90:71:9b:7b:a1:2e:88:
                    79:01:c0:88:f0:ce:65:b3:d5:8b:56:58:51:40:f1:
                    96:d4:b3:f3:a8:8e:d6:7e:7b:19:6c:d3:11:c6:35:
                    a4:11:ec:90:1a:dc:71:4b:9f:db:06:80:06:ba:8a:
                    d8:5e:c6:33:d6:eb:f5:e8:51:70:30:02:1f:f3:9d:
                    aa:c8:9b:f0:e0:dd:63:0e:5c:e6:1a:94:d6:63:79:
                    ae:d9:69:a9:18:6f:b0:c0:bc:f7:a7:09:96:8e:98:
                    8f:f2:28:64:aa:3f:4d:29:8d:45:a5:b6:fa:d8:e6:
                    8d:81:17:12:1f:ba:5e:bf:68:db:eb:3d:b5:6e:a2:
                    a4:cc:a0:c3:cf:5f:4f:90:b7:05:1b:93:db:4f:85:
                    ea:e7:bc:6c:57:c3:4f:e0:db:b1:68:a7:4b:5b:91:
                    fd:c5:1a:e1:8b:08:12:fc:b7:1e:a0:07:4f:ff:d3:
                    16:0f:f0:25:8c:09:8d:ea:19:9a:11:89:b3:0b:91:
                    e3:ff:b0:32:af:06:d7:9b:f5:1d:4f:a5:56:e3:f2:
                    27:73:d4:0a:23:f2:93:19:ff:73:96:69:89:3f:c7:
                    52:55:68:d8:5c:8d:38:3e:70:82:39:3e:e5:14:05:
                    e8:7b:57:f8:74:e1:cd:13:47:13:20:7a:9b:bb:6f:
                    0f:95:03:b6:68:19:b4:3a:fd:07:2d:d7:7a:7d:83:
                    cf:f4:ef:bf:32:dd:4d:f9:79:d5:89:1b:78:8c:b3:
                    31:8a:86:85:55:ef:75:3d:01:48:5a:5f:37:9f:54:
                    14:34:ef:b0:14:ac:7c:ad:ae:3f:cf:d0:6f:bf:f4:
                    5f:f7:4c:f6:09:3a:0a:a7:b9:32:95:41:00:df:24:
                    1c:31:bf:04:91:57:b9:25:69:90:d9:97:0b:d8:bd:
                    ce:8e:4d:d1:38:94:6a:94:fe:6c:ee:77:ad:b5:73:
                    8d:82:6d:3a:77:c9:f4:33:c1:97:00:f4:e8:2f:e5:
                    7a:7d:7a:26:c2:0b:6f:08:fe:ae:7c:77:39:51:06:
                    04:bd:f7:e3:fd:da:4f:71:22:a3:77:7c:12:02:af:
                    b7:22:fc:32:a8:a4:ed:1a:9c:c3:82:ba:b6:e3:64:
                    4c:42:1b:32:2c:a6:90:9b:41:04:95:ad:cd:7f:c7:
                    29:56:cc:b3:df:34:d9:4e:f2:5d:7a:57:2c:e8:0c:
                    44:9b:0c:e6:cf:c3:f6:79:37:d4:96:e3:eb:f7:58:
                    ec:33:2b
                Exponent: 65537 (0x10001)
        X509v3 extensions:
            X509v3 Basic Constraints: 
                CA:FALSE
            Netscape Comment: 
                Easy-RSA Generated Certificate
            X509v3 Subject Key Identifier: 
                C5:F7:BE:65:DF:65:01:3E:62:C0:8C:75:4B:2F:A0:4C:30:34:F9:36
            X509v3 Authority Key Identifier: 
                keyid:12:CD:60:04:D2:A0:80:9E:70:ED:C6:99:B8:7B:2C:C6:52:FD:19:A1
                DirName:/C=US/ST=OH/L=Columbus/O=VikingVPN/OU=MyOrganizationalUnit/CN=VikingVPN CA/name=EasyRSA/emailAddress=me@myhost.mydomain
                serial:CF:35:85:EE:80:BF:2A:3E

            X509v3 Extended Key Usage: 
                TLS Web Client Authentication
            X509v3 Key Usage: 
                Digital Signature
    Signature Algorithm: md5WithRSAEncryption
         9c:13:a0:fa:1c:25:84:e8:68:87:dc:7b:9a:07:96:18:22:90:
         66:ca:30:59:5b:f1:3a:0e:a6:41:41:67:25:25:4e:46:7e:49:
         61:52:b5:7b:7f:db:c1:d1:e0:7a:f4:62:2d:29:d9:3c:c2:6b:
         b7:a5:25:2f:9a:0c:90:40:6d:43:a3:d5:af:e0:47:d4:f4:9a:
         a4:90:d8:9b:0a:d5:0e:f9:f5:62:f0:52:a8:b1:c5:0c:a3:ef:
         39:6f:9b:d2:4e:25:dc:2b:a8:59:38:be:88:ab:35:16:6f:05:
         86:e5:cc:00:2f:29:14:fc:4c:f4:70:d2:f4:5b:ec:2e:03:da:
         7c:1d:2e:5a:26:77:aa:53:7b:8a:02:6f:40:76:58:9c:f8:43:
         7a:c3:11:32:6c:1f:2c:b8:54:1d:76:3c:63:82:09:04:80:47:
         28:df:29:c0:55:65:f7:45:db:f5:99:e9:35:1e:bd:db:d9:92:
         75:65:ef:7b:cd:93:bc:4b:ed:ed:71:cd:ce:8b:03:80:c9:cb:
         33:28:e5:03:52:4e:fd:97:a6:7d:b0:4e:8f:90:83:f8:53:72:
         bb:9a:bc:c3:83:8a:65:0b:3c:57:63:d2:ca:90:20:43:f1:19:
         6a:bf:e6:38:a3:f2:65:c0:5f:d1:5c:14:d9:91:ea:2f:3d:9a:
         87:9e:f4:cb:19:8e:ac:7d:7f:70:72:23:96:b5:f7:78:d9:0a:
         6c:e6:58:18:fa:20:ca:ea:34:63:fe:c3:60:72:96:99:aa:13:
         bf:5a:e8:03:00:2d:c0:c9:2f:b7:99:c8:46:4e:f8:da:23:53:
         30:98:70:24:7f:d6:ea:8b:f5:c2:78:cc:b4:4c:e5:86:db:2e:
         f9:9c:0b:a6:75:27:6e:b0:af:7f:c1:f7:20:d1:47:f2:8c:06:
         8b:0d:7a:d7:4c:a0:d5:62:10:80:33:fe:e7:72:e0:f1:3a:fc:
         6e:39:9b:07:1b:f2:bd:13:b3:1b:3c:90:82:14:0c:23:fa:56:
         a8:48:4b:06:f5:40:40:1a:2e:ed:88:91:32:9c:80:2a:b2:f0:
         f9:35:d0:cc:06:2b:2a:ad:11:f9:ba:48:c2:d6:32:0e:e1:4e:
         ac:cf:3a:a8:4c:fc:4f:12:0b:e9:62:45:cf:79:6b:3c:71:9d:
         10:d4:1b:e1:fb:6d:3d:be:74:a3:af:a2:84:85:5e:e1:1b:02:
         4e:c3:9c:8c:40:38:4e:4e:38:a3:1a:20:f6:25:31:8e:07:8d:
         9d:75:72:87:8a:e6:e6:ba:20:32:4b:cc:31:dd:ca:20:5e:87:
         42:58:69:75:1c:42:12:cf:9f:b5:ec:44:be:6a:7b:f6:37:ba:
         33:8c:c5:e4:b4:4f:d9:d3
-----BEGIN CERTIFICATE-----
MIIGrTCCBJWgAwIBAgICDkIwDQYJKoZIhvcNAQEEBQAwgawxCzAJBgNVBAYTAlVT
MQswCQYDVQQIEwJPSDERMA8GA1UEBxMIQ29sdW1idXMxEjAQBgNVBAoTCVZpa2lu
Z1ZQTjEdMBsGA1UECxMUTXlPcmdhbml6YXRpb25hbFVuaXQxFTATBgNVBAMTDFZp
a2luZ1ZQTiBDQTEQMA4GA1UEKRMHRWFzeVJTQTEhMB8GCSqGSIb3DQEJARYSbWVA
bXlob3N0Lm15ZG9tYWluMB4XDTE0MTIxMDE4MDQzNVoXDTI0MTIwNzE4MDQzNVow
HzEdMBsGA1UEAxMUQ2xpZW50MTI1NUNlcnQxMTk0NWEwggIiMA0GCSqGSIb3DQEB
AQUAA4ICDwAwggIKAoICAQCqdEakDDJ/dbhKMEYrJ8D6ETClvE4dx7F5LrjBhIdG
1W+6taOVnRcX1yh/3DAXQhJVMvM0kHGbe6EuiHkBwIjwzmWz1YtWWFFA8ZbUs/Oo
jtZ+exls0xHGNaQR7JAa3HFLn9sGgAa6ithexjPW6/XoUXAwAh/znarIm/Dg3WMO
XOYalNZjea7ZaakYb7DAvPenCZaOmI/yKGSqP00pjUWltvrY5o2BFxIful6/aNvr
PbVuoqTMoMPPX0+QtwUbk9tPhernvGxXw0/g27Fop0tbkf3FGuGLCBL8tx6gB0//
0xYP8CWMCY3qGZoRibMLkeP/sDKvBteb9R1PpVbj8idz1Aoj8pMZ/3OWaYk/x1JV
aNhcjTg+cII5PuUUBeh7V/h04c0TRxMgepu7bw+VA7ZoGbQ6/Qct13p9g8/0778y
3U35edWJG3iMszGKhoVV73U9AUhaXzefVBQ077AUrHytrj/P0G+/9F/3TPYJOgqn
uTKVQQDfJBwxvwSRV7klaZDZlwvYvc6OTdE4lGqU/mzud621c42CbTp3yfQzwZcA
9Ogv5Xp9eibCC28I/q58dzlRBgS99+P92k9xIqN3fBICr7ci/DKopO0anMOCurbj
ZExCGzIsppCbQQSVrc1/xylWzLPfNNlO8l16VyzoDESbDObPw/Z5N9SW4+v3WOwz
KwIDAQABo4IBYzCCAV8wCQYDVR0TBAIwADAtBglghkgBhvhCAQ0EIBYeRWFzeS1S
U0EgR2VuZXJhdGVkIENlcnRpZmljYXRlMB0GA1UdDgQWBBTF975l32UBPmLAjHVL
L6BMMDT5NjCB4QYDVR0jBIHZMIHWgBQSzWAE0qCAnnDtxpm4eyzGUv0ZoaGBsqSB
rzCBrDELMAkGA1UEBhMCVVMxCzAJBgNVBAgTAk9IMREwDwYDVQQHEwhDb2x1bWJ1
czESMBAGA1UEChMJVmlraW5nVlBOMR0wGwYDVQQLExRNeU9yZ2FuaXphdGlvbmFs
VW5pdDEVMBMGA1UEAxMMVmlraW5nVlBOIENBMRAwDgYDVQQpEwdFYXN5UlNBMSEw
HwYJKoZIhvcNAQkBFhJtZUBteWhvc3QubXlkb21haW6CCQDPNYXugL8qPjATBgNV
HSUEDDAKBggrBgEFBQcDAjALBgNVHQ8EBAMCB4AwDQYJKoZIhvcNAQEEBQADggIB
AJwToPocJYToaIfce5oHlhgikGbKMFlb8ToOpkFBZyUlTkZ+SWFStXt/28HR4Hr0
Yi0p2TzCa7elJS+aDJBAbUOj1a/gR9T0mqSQ2JsK1Q759WLwUqixxQyj7zlvm9JO
JdwrqFk4voirNRZvBYblzAAvKRT8TPRw0vRb7C4D2nwdLlomd6pTe4oCb0B2WJz4
Q3rDETJsHyy4VB12PGOCCQSARyjfKcBVZfdF2/WZ6TUevdvZknVl73vNk7xL7e1x
zc6LA4DJyzMo5QNSTv2Xpn2wTo+Qg/hTcruavMODimULPFdj0sqQIEPxGWq/5jij
8mXAX9FcFNmR6i89moee9MsZjqx9f3ByI5a193jZCmzmWBj6IMrqNGP+w2Bylpmq
E79a6AMALcDJL7eZyEZO+NojUzCYcCR/1uqL9cJ4zLRM5YbbLvmcC6Z1J26wr3/B
9yDRR/KMBosNetdMoNViEIAz/udy4PE6/G45mwcb8r0Tsxs8kIIUDCP6VqhISwb1
QEAaLu2IkTKcgCqy8Pk10MwGKyqtEfm6SMLWMg7hTqzPOqhM/E8SC+liRc95azxx
nRDUG+H7bT2+dKOvooSFXuEbAk7DnIxAOE5OOKMaIPYlMY4HjZ11coeK5ua6IDJL
zDHdyiBeh0JYaXUcQhLPn7XsRL5qe/Y3ujOMxeS0T9nT
-----END CERTIFICATE-----
