Certificate:
    Data:
        Version: 3 (0x2)
        Serial Number: 3652 (0xe44)
    Signature Algorithm: md5WithRSAEncryption
        Issuer: C=US, ST=OH, L=Columbus, O=VikingVPN, OU=MyOrganizationalUnit, CN=VikingVPN CA/name=EasyRSA/emailAddress=me@myhost.mydomain
        Validity
            Not Before: Dec 10 19:44:43 2014 GMT
            Not After : Dec  7 19:44:43 2024 GMT
        Subject: CN=Client782Cert80c7ee
        Subject Public Key Info:
            Public Key Algorithm: rsaEncryption
                Public-Key: (4096 bit)
                Modulus:
                    00:b8:0e:a6:16:31:3d:cf:18:f9:55:61:fa:26:fe:
                    70:75:ae:a2:b8:64:80:f9:3a:07:12:b7:53:72:38:
                    aa:7a:b2:6c:d0:39:bf:5d:b2:8f:9a:8f:86:1a:d3:
                    78:a8:6d:27:1a:48:7d:d9:f3:5d:39:f0:af:39:76:
                    11:1a:2c:77:27:d4:cb:e4:47:9c:c0:b5:c2:d0:59:
                    bb:a2:3b:34:20:a7:6e:ea:fa:12:12:e6:0b:11:6a:
                    48:88:a4:0d:98:12:86:16:72:e0:d2:43:ea:ed:ae:
                    47:25:10:7a:37:8b:b2:3b:d4:6e:b7:d7:d9:21:95:
                    0a:9a:24:54:77:5f:40:69:ef:64:9f:64:7e:d1:13:
                    db:32:9b:ad:43:f2:62:c2:24:e9:f3:db:4f:70:ee:
                    5b:90:a6:1d:8e:a2:58:c0:6d:0e:38:62:6f:40:82:
                    7b:a8:eb:bf:c3:1f:80:e4:ef:fd:f2:cf:6a:ca:be:
                    8b:25:db:46:98:56:9a:5f:66:3c:5e:ba:6c:af:31:
                    8f:16:b3:a1:f1:d8:b5:5f:5b:3f:16:fc:7d:6b:81:
                    cf:86:21:08:e4:6e:11:b1:1d:ae:89:7f:aa:5d:4e:
                    a8:33:49:bb:3c:11:8e:48:3c:9f:03:31:f9:a8:ef:
                    1f:3f:57:c9:7d:0c:8e:45:1b:eb:10:76:c2:25:3a:
                    e4:77:ed:0f:e7:ad:a9:5f:18:79:d0:3f:d5:d4:f8:
                    93:96:08:34:64:b7:5a:9d:cc:19:40:ec:9d:29:7e:
                    4a:99:db:82:94:b4:bc:c2:48:45:42:b8:bc:9b:f9:
                    58:27:f5:11:7f:30:fb:1f:d3:8a:02:8e:ff:65:07:
                    fb:1a:b2:72:80:f9:e4:af:0d:f3:0c:17:77:83:88:
                    62:61:50:b4:d0:f4:7d:cf:39:f2:45:d2:d0:0a:d3:
                    48:36:14:63:6c:93:6b:93:d0:33:94:1e:72:31:f3:
                    27:cf:40:1c:85:3e:ef:f0:b5:72:c9:2a:61:95:4a:
                    1b:12:3e:6d:d6:80:96:4b:76:1a:ef:37:76:07:c9:
                    09:86:36:64:b4:d2:80:db:4c:c2:07:76:d6:2a:6d:
                    bd:bb:f1:48:ee:33:68:a3:c2:b9:64:d3:4d:5b:bf:
                    01:c6:f9:85:1c:63:be:f5:8b:1e:51:77:41:a1:e8:
                    7d:a2:6d:63:48:42:2a:20:60:e5:e8:33:c1:4c:fe:
                    22:5e:7d:22:fe:9c:90:14:47:4b:e1:20:b7:03:4c:
                    f5:8f:c2:4c:b5:ed:19:c1:38:7e:bc:50:1d:a2:95:
                    23:e1:60:39:93:c2:28:5a:6c:b5:fc:97:04:d7:08:
                    9f:14:45:f5:f6:4d:6f:55:b0:5b:27:50:9d:7b:f0:
                    56:42:43
                Exponent: 65537 (0x10001)
        X509v3 extensions:
            X509v3 Basic Constraints: 
                CA:FALSE
            Netscape Comment: 
                Easy-RSA Generated Certificate
            X509v3 Subject Key Identifier: 
                09:EB:FA:2E:B3:39:FB:B9:F4:B2:61:C3:B9:10:1A:47:F6:93:50:BA
            X509v3 Authority Key Identifier: 
                keyid:12:CD:60:04:D2:A0:80:9E:70:ED:C6:99:B8:7B:2C:C6:52:FD:19:A1
                DirName:/C=US/ST=OH/L=Columbus/O=VikingVPN/OU=MyOrganizationalUnit/CN=VikingVPN CA/name=EasyRSA/emailAddress=me@myhost.mydomain
                serial:CF:35:85:EE:80:BF:2A:3E

            X509v3 Extended Key Usage: 
                TLS Web Client Authentication
            X509v3 Key Usage: 
                Digital Signature
    Signature Algorithm: md5WithRSAEncryption
         87:d6:73:00:95:28:37:ea:53:21:42:6d:19:22:33:c6:2f:65:
         e5:6a:04:82:df:d8:e0:28:81:d6:2c:0a:ae:6b:d1:e1:03:32:
         a1:c1:51:d9:0e:a2:0c:90:7d:0e:cc:9d:56:67:32:e1:3d:30:
         aa:7c:8f:14:b4:5f:aa:e4:f5:87:01:cf:26:ff:d5:6d:cd:fd:
         4c:6d:f5:e2:f8:0c:04:67:bb:ee:98:2a:04:83:5d:ef:9e:13:
         c6:87:5c:8c:ce:92:7f:c0:b2:76:ea:dc:52:82:4c:0e:1c:c2:
         fb:89:27:3d:c9:cf:60:a2:fc:6e:58:de:5f:09:2f:99:37:c1:
         76:0e:8b:55:ba:7f:70:6e:65:76:88:10:09:bc:30:d1:a5:c1:
         69:6b:80:cc:fd:4e:d1:83:a9:6a:e9:24:b9:0c:cc:fa:f6:6b:
         27:af:a7:dc:31:ce:88:1c:07:c1:ba:83:83:b5:8c:9c:66:2b:
         fc:6a:0c:9a:a9:26:ee:8a:7f:23:0d:63:c8:b4:de:c2:86:a7:
         b5:e0:ce:3f:97:53:ed:78:ea:c6:ed:b6:be:67:7f:f6:66:4d:
         15:37:c6:83:15:49:55:bf:d2:af:3f:98:d7:1b:ba:13:b9:09:
         68:4b:da:86:0b:f8:a7:5c:68:41:e8:6c:d8:fa:5a:73:81:d7:
         bf:fc:5e:0f:38:1d:7e:f7:21:a0:17:fd:95:d4:f3:81:10:6c:
         b2:4d:7d:e3:0e:db:91:4a:91:18:f7:43:f0:31:d0:87:37:b5:
         2f:85:7f:b7:53:ab:93:b2:27:91:80:34:55:e1:8e:56:25:3c:
         db:e7:17:9a:81:f3:01:84:16:d6:2a:b0:af:fa:ed:75:56:06:
         d8:ce:99:85:97:c5:8d:79:37:9a:6d:0f:41:ff:ab:dc:89:58:
         80:e3:50:16:1b:79:2a:00:ff:9d:77:77:a6:2a:ff:53:de:39:
         06:b0:01:a5:fb:93:33:c6:48:5f:8f:1c:bc:1c:51:ea:54:2d:
         64:42:eb:8a:f0:e5:9e:4e:40:b4:77:3c:48:05:67:c8:92:e6:
         15:cf:da:eb:be:1a:b6:0e:cc:29:8c:aa:86:45:aa:bd:5b:32:
         b9:b2:49:86:1b:2e:5f:10:ea:be:ae:7c:4f:f7:b8:8f:47:ca:
         96:fe:fc:fa:cc:6f:1b:30:c5:b1:8b:c5:e2:0a:81:96:95:44:
         de:f6:95:3f:a4:81:3d:3c:7d:92:f8:62:73:90:24:65:ee:93:
         56:fd:13:e9:69:91:fa:bc:1e:ae:6b:9c:8b:82:2f:9f:f7:71:
         67:5d:98:7f:9c:5f:f2:1b:58:4a:30:9f:ee:a7:fa:d7:dd:de:
         9c:83:89:3a:ce:94:27:10
-----BEGIN CERTIFICATE-----
MIIGrDCCBJSgAwIBAgICDkQwDQYJKoZIhvcNAQEEBQAwgawxCzAJBgNVBAYTAlVT
MQswCQYDVQQIEwJPSDERMA8GA1UEBxMIQ29sdW1idXMxEjAQBgNVBAoTCVZpa2lu
Z1ZQTjEdMBsGA1UECxMUTXlPcmdhbml6YXRpb25hbFVuaXQxFTATBgNVBAMTDFZp
a2luZ1ZQTiBDQTEQMA4GA1UEKRMHRWFzeVJTQTEhMB8GCSqGSIb3DQEJARYSbWVA
bXlob3N0Lm15ZG9tYWluMB4XDTE0MTIxMDE5NDQ0M1oXDTI0MTIwNzE5NDQ0M1ow
HjEcMBoGA1UEAxMTQ2xpZW50NzgyQ2VydDgwYzdlZTCCAiIwDQYJKoZIhvcNAQEB
BQADggIPADCCAgoCggIBALgOphYxPc8Y+VVh+ib+cHWuorhkgPk6BxK3U3I4qnqy
bNA5v12yj5qPhhrTeKhtJxpIfdnzXTnwrzl2ERosdyfUy+RHnMC1wtBZu6I7NCCn
bur6EhLmCxFqSIikDZgShhZy4NJD6u2uRyUQejeLsjvUbrfX2SGVCpokVHdfQGnv
ZJ9kftET2zKbrUPyYsIk6fPbT3DuW5CmHY6iWMBtDjhib0CCe6jrv8MfgOTv/fLP
asq+iyXbRphWml9mPF66bK8xjxazofHYtV9bPxb8fWuBz4YhCORuEbEdrol/ql1O
qDNJuzwRjkg8nwMx+ajvHz9XyX0MjkUb6xB2wiU65HftD+etqV8YedA/1dT4k5YI
NGS3Wp3MGUDsnSl+SpnbgpS0vMJIRUK4vJv5WCf1EX8w+x/TigKO/2UH+xqycoD5
5K8N8wwXd4OIYmFQtND0fc858kXS0ArTSDYUY2yTa5PQM5QecjHzJ89AHIU+7/C1
cskqYZVKGxI+bdaAlkt2Gu83dgfJCYY2ZLTSgNtMwgd21iptvbvxSO4zaKPCuWTT
TVu/Acb5hRxjvvWLHlF3QaHofaJtY0hCKiBg5egzwUz+Il59Iv6ckBRHS+EgtwNM
9Y/CTLXtGcE4frxQHaKVI+FgOZPCKFpstfyXBNcInxRF9fZNb1WwWydQnXvwVkJD
AgMBAAGjggFjMIIBXzAJBgNVHRMEAjAAMC0GCWCGSAGG+EIBDQQgFh5FYXN5LVJT
QSBHZW5lcmF0ZWQgQ2VydGlmaWNhdGUwHQYDVR0OBBYEFAnr+i6zOfu59LJhw7kQ
Gkf2k1C6MIHhBgNVHSMEgdkwgdaAFBLNYATSoICecO3Gmbh7LMZS/RmhoYGypIGv
MIGsMQswCQYDVQQGEwJVUzELMAkGA1UECBMCT0gxETAPBgNVBAcTCENvbHVtYnVz
MRIwEAYDVQQKEwlWaWtpbmdWUE4xHTAbBgNVBAsTFE15T3JnYW5pemF0aW9uYWxV
bml0MRUwEwYDVQQDEwxWaWtpbmdWUE4gQ0ExEDAOBgNVBCkTB0Vhc3lSU0ExITAf
BgkqhkiG9w0BCQEWEm1lQG15aG9zdC5teWRvbWFpboIJAM81he6Avyo+MBMGA1Ud
JQQMMAoGCCsGAQUFBwMCMAsGA1UdDwQEAwIHgDANBgkqhkiG9w0BAQQFAAOCAgEA
h9ZzAJUoN+pTIUJtGSIzxi9l5WoEgt/Y4CiB1iwKrmvR4QMyocFR2Q6iDJB9Dsyd
Vmcy4T0wqnyPFLRfquT1hwHPJv/Vbc39TG314vgMBGe77pgqBINd754TxodcjM6S
f8CydurcUoJMDhzC+4knPcnPYKL8bljeXwkvmTfBdg6LVbp/cG5ldogQCbww0aXB
aWuAzP1O0YOpaukkuQzM+vZrJ6+n3DHOiBwHwbqDg7WMnGYr/GoMmqkm7op/Iw1j
yLTewoanteDOP5dT7Xjqxu22vmd/9mZNFTfGgxVJVb/Srz+Y1xu6E7kJaEvahgv4
p1xoQehs2Ppac4HXv/xeDzgdfvchoBf9ldTzgRBssk194w7bkUqRGPdD8DHQhze1
L4V/t1Ork7InkYA0VeGOViU82+cXmoHzAYQW1iqwr/rtdVYG2M6ZhZfFjXk3mm0P
Qf+r3IlYgONQFht5KgD/nXd3pir/U945BrABpfuTM8ZIX48cvBxR6lQtZELrivDl
nk5AtHc8SAVnyJLmFc/a674atg7MKYyqhkWqvVsyubJJhhsuXxDqvq58T/e4j0fK
lv78+sxvGzDFsYvF4gqBlpVE3vaVP6SBPTx9kvhic5AkZe6TVv0T6WmR+rwermuc
i4Ivn/dxZ12Yf5xf8htYSjCf7qf6193enIOJOs6UJxA=
-----END CERTIFICATE-----
