Certificate:
    Data:
        Version: 3 (0x2)
        Serial Number: 3654 (0xe46)
    Signature Algorithm: md5WithRSAEncryption
        Issuer: C=US, ST=OH, L=Columbus, O=VikingVPN, OU=MyOrganizationalUnit, CN=VikingVPN CA/name=EasyRSA/emailAddress=me@myhost.mydomain
        Validity
            Not Before: Dec 11 02:19:40 2014 GMT
            Not After : Dec  8 02:19:40 2024 GMT
        Subject: CN=Client1257Certa6ea2b
        Subject Public Key Info:
            Public Key Algorithm: rsaEncryption
                Public-Key: (4096 bit)
                Modulus:
                    00:c9:a4:19:a4:9e:f6:61:f9:98:8a:72:41:46:8b:
                    7e:b0:d4:dc:9c:2e:12:71:89:bb:f0:b4:50:f7:0f:
                    ad:9d:57:00:cb:07:ab:5e:6c:2c:03:3c:14:a1:72:
                    c2:c9:fa:3e:2a:2d:02:a3:ec:aa:43:e0:d8:4e:cf:
                    6a:a8:e4:0d:c2:50:cd:de:9c:b5:7c:94:b5:a3:86:
                    f5:75:48:45:4d:b7:5d:3c:62:e7:a3:d7:95:d6:19:
                    b6:d6:02:6f:36:c4:d7:03:5a:8b:e6:f0:ed:5d:49:
                    9e:ae:c9:bc:c9:a9:69:a5:2d:ce:88:42:7b:1f:10:
                    68:69:8e:d2:9b:46:c0:81:9e:8c:89:1f:56:05:82:
                    41:3f:70:02:84:7b:aa:b1:be:57:a1:57:7f:8f:55:
                    4a:6b:ad:fa:c1:06:0f:20:0c:9a:26:54:f9:c2:c7:
                    f6:38:c3:e7:fc:99:62:0d:bd:2a:d3:e1:88:26:9e:
                    74:28:b4:9c:22:de:a8:0f:03:d4:ed:e3:08:9a:9b:
                    4b:4a:e9:03:49:09:2e:52:bf:a3:f8:b0:54:b2:81:
                    09:63:ca:a0:52:81:7b:3c:b8:80:3c:bb:a2:61:1c:
                    4b:68:bf:70:a6:2d:38:76:65:26:50:f7:5e:40:a5:
                    54:7a:ce:aa:13:59:7f:b9:89:a4:24:93:25:77:97:
                    a0:f9:24:33:f1:1a:a0:c6:0a:10:c4:de:12:3a:6a:
                    82:8c:02:16:4e:a5:ed:3a:f7:64:90:c5:ff:40:39:
                    99:29:90:9b:1a:dc:14:42:8c:4d:7b:7c:e9:22:18:
                    35:2e:46:a1:06:c8:9d:91:7d:8c:e7:09:ec:f0:19:
                    36:76:c4:5c:5a:f5:f9:d0:48:92:d5:00:da:18:36:
                    a3:a9:23:1c:28:b9:c5:44:1c:03:9b:86:90:cb:8e:
                    6d:ce:34:38:0c:65:1d:d7:17:da:c8:eb:17:66:86:
                    09:ce:6c:51:2b:73:8f:74:91:2d:f0:4a:f0:f1:00:
                    ec:57:4e:63:73:fd:c4:72:f4:14:c8:bf:50:38:7f:
                    98:1b:0f:69:d0:82:79:09:1c:c0:5b:28:23:dd:02:
                    8a:00:7a:15:92:ed:dd:5c:1c:16:1d:e2:42:f7:97:
                    e8:4a:ce:f4:4e:ca:bd:a0:ce:4b:ee:80:6d:7d:bb:
                    6f:8a:c6:be:59:28:fa:1f:8a:42:f2:a3:98:63:dd:
                    d7:21:76:77:58:68:a8:31:76:10:1c:fd:ef:fc:dd:
                    87:43:14:08:03:29:f9:40:fa:bd:91:64:a8:fa:53:
                    a8:ed:ee:01:51:23:89:d4:7f:c1:71:dc:2f:c9:0f:
                    ab:a9:1e:28:6f:7f:22:74:ed:ef:d3:10:1d:c5:bb:
                    1d:3b:81
                Exponent: 65537 (0x10001)
        X509v3 extensions:
            X509v3 Basic Constraints: 
                CA:FALSE
            Netscape Comment: 
                Easy-RSA Generated Certificate
            X509v3 Subject Key Identifier: 
                68:6C:42:7B:D5:EA:25:CD:D4:A4:7A:33:E1:30:86:68:B5:B2:04:43
            X509v3 Authority Key Identifier: 
                keyid:12:CD:60:04:D2:A0:80:9E:70:ED:C6:99:B8:7B:2C:C6:52:FD:19:A1
                DirName:/C=US/ST=OH/L=Columbus/O=VikingVPN/OU=MyOrganizationalUnit/CN=VikingVPN CA/name=EasyRSA/emailAddress=me@myhost.mydomain
                serial:CF:35:85:EE:80:BF:2A:3E

            X509v3 Extended Key Usage: 
                TLS Web Client Authentication
            X509v3 Key Usage: 
                Digital Signature
    Signature Algorithm: md5WithRSAEncryption
         e4:c7:26:45:6b:d3:7d:89:e6:1b:38:99:a7:9e:5b:f6:92:f4:
         74:23:d9:2f:f0:35:8d:8d:5b:30:e2:6c:c6:c2:b3:72:ff:cc:
         66:aa:9c:60:2f:98:bd:2a:bf:d2:e3:61:34:28:77:e1:ad:06:
         0a:e5:45:6f:89:d5:69:99:ff:e7:33:da:a4:c5:55:34:a7:50:
         13:f1:c6:55:ce:34:c5:78:01:ab:7d:7e:d0:d1:81:59:38:3f:
         6d:98:fc:f4:a7:30:ee:b6:70:09:b2:6e:8b:cc:b0:01:a9:bb:
         39:a6:4a:d9:54:cc:08:08:c8:95:ef:40:a4:88:a0:bd:3b:61:
         59:a2:a9:64:f3:5f:f2:bd:be:df:17:fa:47:72:a3:d1:f3:08:
         76:2a:ea:16:25:94:dd:a6:f4:c8:7e:f8:e1:4b:77:08:f4:2a:
         4b:fd:b8:05:be:f3:b8:10:c4:92:92:a4:9e:18:63:fa:a2:d0:
         4a:00:7e:8c:82:23:7d:55:b5:77:a0:bc:44:9a:e0:0a:2f:df:
         ee:9d:0b:27:fe:f6:03:28:0e:f5:50:ec:f5:aa:00:d5:b0:d9:
         77:08:67:93:aa:8a:a8:2f:fa:8d:b4:23:0b:aa:63:f8:1b:92:
         dc:a8:ab:8f:cd:ea:3f:cf:78:17:6c:7e:09:67:31:88:b9:a7:
         80:b6:49:05:1f:17:60:4a:74:e7:ee:5e:b6:31:66:eb:39:9a:
         5e:f2:39:01:82:68:0f:2a:3e:f7:fa:8a:f3:f5:8a:41:4e:39:
         91:b2:7d:4d:6b:cd:dc:f3:f2:56:fd:2f:f0:f3:ac:50:c9:c1:
         83:0f:02:30:97:57:08:9f:fa:b1:0b:a8:e4:a0:14:e3:c5:38:
         ef:9e:6b:88:07:55:7f:c0:c1:b0:c3:35:d9:9f:38:19:ea:d0:
         ea:78:1b:b5:e6:f4:e7:17:6a:9a:35:15:d4:da:1f:35:3b:3b:
         a1:90:b0:5a:99:20:a9:89:18:22:83:6f:9a:e3:e3:bd:1b:6a:
         16:7a:d7:51:90:6e:bf:9c:62:31:d0:27:4a:c2:e3:a4:da:79:
         66:fd:b6:52:5a:f0:61:c5:e8:d9:88:1d:80:13:63:43:b8:eb:
         90:ce:13:d7:01:d6:81:3b:83:ab:1f:29:2e:8d:a6:64:8d:e6:
         c1:a4:57:56:de:84:f7:b6:45:d8:cb:df:47:77:0a:1e:9a:9e:
         08:97:cb:d2:e0:c2:38:15:d3:9e:fd:9d:26:5d:e9:bf:5f:05:
         8d:74:2b:dc:cb:0e:5d:38:cf:96:8d:68:ef:c5:00:c4:13:b8:
         f9:b0:7e:68:cf:21:58:56:30:69:39:71:aa:25:fb:3c:a5:82:
         d1:f3:9c:b2:a5:c2:b8:96
-----BEGIN CERTIFICATE-----
MIIGrTCCBJWgAwIBAgICDkYwDQYJKoZIhvcNAQEEBQAwgawxCzAJBgNVBAYTAlVT
MQswCQYDVQQIEwJPSDERMA8GA1UEBxMIQ29sdW1idXMxEjAQBgNVBAoTCVZpa2lu
Z1ZQTjEdMBsGA1UECxMUTXlPcmdhbml6YXRpb25hbFVuaXQxFTATBgNVBAMTDFZp
a2luZ1ZQTiBDQTEQMA4GA1UEKRMHRWFzeVJTQTEhMB8GCSqGSIb3DQEJARYSbWVA
bXlob3N0Lm15ZG9tYWluMB4XDTE0MTIxMTAyMTk0MFoXDTI0MTIwODAyMTk0MFow
HzEdMBsGA1UEAxMUQ2xpZW50MTI1N0NlcnRhNmVhMmIwggIiMA0GCSqGSIb3DQEB
AQUAA4ICDwAwggIKAoICAQDJpBmknvZh+ZiKckFGi36w1NycLhJxibvwtFD3D62d
VwDLB6tebCwDPBShcsLJ+j4qLQKj7KpD4NhOz2qo5A3CUM3enLV8lLWjhvV1SEVN
t108Yuej15XWGbbWAm82xNcDWovm8O1dSZ6uybzJqWmlLc6IQnsfEGhpjtKbRsCB
noyJH1YFgkE/cAKEe6qxvlehV3+PVUprrfrBBg8gDJomVPnCx/Y4w+f8mWINvSrT
4YgmnnQotJwi3qgPA9Tt4wiam0tK6QNJCS5Sv6P4sFSygQljyqBSgXs8uIA8u6Jh
HEtov3CmLTh2ZSZQ915ApVR6zqoTWX+5iaQkkyV3l6D5JDPxGqDGChDE3hI6aoKM
AhZOpe0692SQxf9AOZkpkJsa3BRCjE17fOkiGDUuRqEGyJ2RfYznCezwGTZ2xFxa
9fnQSJLVANoYNqOpIxwoucVEHAObhpDLjm3ONDgMZR3XF9rI6xdmhgnObFErc490
kS3wSvDxAOxXTmNz/cRy9BTIv1A4f5gbD2nQgnkJHMBbKCPdAooAehWS7d1cHBYd
4kL3l+hKzvROyr2gzkvugG19u2+Kxr5ZKPofikLyo5hj3dchdndYaKgxdhAc/e/8
3YdDFAgDKflA+r2RZKj6U6jt7gFRI4nUf8Fx3C/JD6upHihvfyJ07e/TEB3Fux07
gQIDAQABo4IBYzCCAV8wCQYDVR0TBAIwADAtBglghkgBhvhCAQ0EIBYeRWFzeS1S
U0EgR2VuZXJhdGVkIENlcnRpZmljYXRlMB0GA1UdDgQWBBRobEJ71eolzdSkejPh
MIZotbIEQzCB4QYDVR0jBIHZMIHWgBQSzWAE0qCAnnDtxpm4eyzGUv0ZoaGBsqSB
rzCBrDELMAkGA1UEBhMCVVMxCzAJBgNVBAgTAk9IMREwDwYDVQQHEwhDb2x1bWJ1
czESMBAGA1UEChMJVmlraW5nVlBOMR0wGwYDVQQLExRNeU9yZ2FuaXphdGlvbmFs
VW5pdDEVMBMGA1UEAxMMVmlraW5nVlBOIENBMRAwDgYDVQQpEwdFYXN5UlNBMSEw
HwYJKoZIhvcNAQkBFhJtZUBteWhvc3QubXlkb21haW6CCQDPNYXugL8qPjATBgNV
HSUEDDAKBggrBgEFBQcDAjALBgNVHQ8EBAMCB4AwDQYJKoZIhvcNAQEEBQADggIB
AOTHJkVr032J5hs4maeeW/aS9HQj2S/wNY2NWzDibMbCs3L/zGaqnGAvmL0qv9Lj
YTQod+GtBgrlRW+J1WmZ/+cz2qTFVTSnUBPxxlXONMV4Aat9ftDRgVk4P22Y/PSn
MO62cAmybovMsAGpuzmmStlUzAgIyJXvQKSIoL07YVmiqWTzX/K9vt8X+kdyo9Hz
CHYq6hYllN2m9Mh++OFLdwj0Kkv9uAW+87gQxJKSpJ4YY/qi0EoAfoyCI31VtXeg
vESa4Aov3+6dCyf+9gMoDvVQ7PWqANWw2XcIZ5Oqiqgv+o20IwuqY/gbktyoq4/N
6j/PeBdsfglnMYi5p4C2SQUfF2BKdOfuXrYxZus5ml7yOQGCaA8qPvf6ivP1ikFO
OZGyfU1rzdzz8lb9L/DzrFDJwYMPAjCXVwif+rELqOSgFOPFOO+ea4gHVX/AwbDD
NdmfOBnq0Op4G7Xm9OcXapo1FdTaHzU7O6GQsFqZIKmJGCKDb5rj470bahZ611GQ
br+cYjHQJ0rC46TaeWb9tlJa8GHF6NmIHYATY0O465DOE9cB1oE7g6sfKS6NpmSN
5sGkV1behPe2RdjL30d3Ch6angiXy9LgwjgV0579nSZd6b9fBY10K9zLDl04z5aN
aO/FAMQTuPmwfmjPIVhWMGk5caol+zylgtHznLKlwriW
-----END CERTIFICATE-----
