Certificate:
    Data:
        Version: 3 (0x2)
        Serial Number: 3664 (0xe50)
    Signature Algorithm: md5WithRSAEncryption
        Issuer: C=US, ST=OH, L=Columbus, O=VikingVPN, OU=MyOrganizationalUnit, CN=VikingVPN CA/name=EasyRSA/emailAddress=me@myhost.mydomain
        Validity
            Not Before: Dec 13 07:05:56 2014 GMT
            Not After : Dec 10 07:05:56 2024 GMT
        Subject: CN=Client1262Cert8d661f
        Subject Public Key Info:
            Public Key Algorithm: rsaEncryption
                Public-Key: (4096 bit)
                Modulus:
                    00:cc:e9:7c:a0:b8:8d:48:f5:06:a1:39:73:35:85:
                    70:f5:9d:8c:bd:64:de:fc:36:5a:3a:6f:72:ed:34:
                    b9:eb:ca:ad:34:b6:e4:ab:e0:4c:ad:d9:b0:16:1f:
                    44:d7:80:10:e5:f4:17:f6:2e:d5:47:1f:33:a8:08:
                    f4:69:85:30:1c:e8:7f:1c:35:37:cb:7a:bb:40:81:
                    59:34:ff:8f:f4:97:00:18:01:ed:e4:6b:4a:a9:6d:
                    02:4a:8e:8e:11:63:0b:93:aa:52:e1:09:4a:5d:65:
                    3f:26:42:09:b3:32:71:3a:f8:b0:05:8d:90:82:be:
                    b5:a7:46:b0:a3:2d:49:aa:d3:71:b3:51:d2:bb:23:
                    3a:0f:71:5d:cb:0e:a3:c8:6e:e9:a7:58:5a:cc:bf:
                    5b:51:dd:f2:a3:5d:55:6b:aa:20:0d:48:b9:34:85:
                    7d:e7:9e:11:d8:0a:94:45:de:c2:43:a9:77:59:19:
                    6d:cd:42:82:54:e8:3c:a5:68:df:ac:0e:bc:0f:4b:
                    fc:48:aa:83:f9:cd:47:91:76:5d:dd:51:5a:9c:57:
                    f2:19:20:00:08:13:29:95:f4:b6:2c:ed:59:db:41:
                    66:a1:4c:c9:5c:fa:e6:f0:16:b8:0c:2b:31:bd:a7:
                    37:fd:45:bc:a5:b0:de:d8:63:fd:5d:1e:3e:eb:b3:
                    74:07:a8:2b:22:de:cc:eb:46:49:03:54:99:f2:0e:
                    b3:d2:66:e0:cd:09:f9:39:d8:9f:02:5d:4a:f1:7f:
                    24:2b:78:8c:15:06:2e:1f:52:c8:84:66:5d:5e:62:
                    7e:ac:c0:22:c4:9a:ea:df:b5:bf:84:d3:cd:42:d6:
                    52:b6:22:48:b8:d6:c8:fd:4c:56:a7:4c:f9:62:24:
                    5c:1b:de:a3:0b:08:14:fb:0d:53:ce:fb:28:55:a2:
                    5b:45:a7:0f:7a:8c:34:da:3d:da:46:d5:e8:ee:fa:
                    f5:66:4a:92:6b:24:59:e9:97:f3:8d:38:c7:b0:cf:
                    62:3a:2e:2f:8a:dd:e2:11:30:a1:c0:4d:27:f2:25:
                    53:3c:75:3f:10:8c:0f:e7:bd:e2:1b:ee:52:f7:f9:
                    9f:b6:65:0e:41:ee:d7:d9:4a:df:8f:37:1f:8c:59:
                    9b:82:00:ae:23:29:12:64:40:68:b2:37:25:4a:e5:
                    36:b6:b3:7e:63:d0:92:84:22:7f:7d:03:6e:f5:5f:
                    ff:e6:e4:ed:f5:e3:07:64:26:01:73:f8:d1:d9:01:
                    4b:74:70:e7:06:2c:c5:79:f6:7c:ad:3d:b1:99:6d:
                    63:5e:70:84:19:91:9a:32:15:df:2f:6c:65:8e:92:
                    5f:97:61:2c:4f:35:61:d4:64:2f:28:9a:97:b7:44:
                    14:da:eb
                Exponent: 65537 (0x10001)
        X509v3 extensions:
            X509v3 Basic Constraints: 
                CA:FALSE
            Netscape Comment: 
                Easy-RSA Generated Certificate
            X509v3 Subject Key Identifier: 
                CA:FD:4B:A5:63:6A:C3:45:9A:18:C9:F2:6A:A4:B7:93:FC:57:45:84
            X509v3 Authority Key Identifier: 
                keyid:12:CD:60:04:D2:A0:80:9E:70:ED:C6:99:B8:7B:2C:C6:52:FD:19:A1
                DirName:/C=US/ST=OH/L=Columbus/O=VikingVPN/OU=MyOrganizationalUnit/CN=VikingVPN CA/name=EasyRSA/emailAddress=me@myhost.mydomain
                serial:CF:35:85:EE:80:BF:2A:3E

            X509v3 Extended Key Usage: 
                TLS Web Client Authentication
            X509v3 Key Usage: 
                Digital Signature
    Signature Algorithm: md5WithRSAEncryption
         6c:ee:b8:dd:e8:20:32:af:99:a7:11:cd:47:03:2b:53:31:7f:
         27:b7:dc:e6:e4:68:60:ba:74:c0:af:67:04:7d:28:e2:bb:0c:
         33:1a:79:1c:8a:a3:d4:22:10:68:f3:a6:d1:b4:ab:35:4a:f3:
         8e:da:86:b0:ae:0d:0a:8c:99:9e:a5:d7:32:ba:b5:c3:6a:47:
         8d:d4:a8:4d:f0:ff:0d:02:03:ab:52:ac:9e:09:8e:bb:75:01:
         bd:55:55:0a:9d:cf:db:ae:48:00:f3:9f:9f:a3:14:2a:c6:fc:
         f5:d1:23:73:9b:77:4a:53:eb:40:5b:15:10:10:f9:fd:63:58:
         ba:34:94:8f:b4:a7:5f:b1:b7:e9:0c:fa:f1:56:24:3d:da:33:
         00:5c:96:9a:e5:2a:7d:6c:89:bd:29:1a:11:99:28:f5:aa:66:
         fa:9c:0c:22:24:aa:ab:34:04:a7:93:79:0b:3c:ed:61:ff:1a:
         1f:76:df:01:ce:f5:25:91:7d:f7:ea:d6:f2:2a:9d:c2:73:b0:
         71:ba:73:2d:b4:fe:44:ff:1d:9a:cb:26:2c:19:9c:5c:95:8d:
         10:a1:8f:2a:07:fc:d3:3e:06:66:ef:f1:b7:b2:dd:fb:d5:68:
         5d:17:df:a0:5d:32:88:1d:01:e3:7e:0c:92:8f:8e:6c:b9:7b:
         be:5c:72:25:9f:41:22:3e:d3:ab:6a:f3:fd:a6:da:c1:32:7c:
         56:bd:b0:84:73:35:51:5d:41:b1:b7:1b:3f:28:5c:b2:93:32:
         bb:41:2d:71:a1:ba:0b:67:ea:af:af:73:25:4b:fd:e3:3a:78:
         8c:4e:80:91:02:f7:74:7a:22:b1:ca:7f:91:95:de:53:42:49:
         c4:bf:41:bd:7f:eb:23:69:b1:52:9c:4c:a3:2e:46:4b:cd:54:
         c1:c2:98:69:de:b0:31:41:49:a7:20:93:88:34:d1:61:bf:0b:
         4f:da:d2:19:55:00:49:b2:a7:3a:a9:35:13:b6:b6:ec:57:98:
         ee:1a:0d:f4:75:15:ff:3c:78:67:2e:93:e9:69:d2:00:64:03:
         b6:9c:b4:ab:02:44:fe:25:af:54:d9:b0:14:3d:7a:84:00:fa:
         c1:ed:27:11:96:03:8c:f6:ca:60:06:32:24:75:22:d8:4e:79:
         9b:cf:35:af:a9:13:76:27:11:5e:04:3a:be:fb:4e:ab:1e:1b:
         68:30:0f:dd:52:dc:77:94:58:0d:c3:ac:16:a7:38:dc:0d:22:
         35:46:e3:89:b6:47:f8:8b:76:39:56:5c:bc:a4:0d:47:63:98:
         6d:10:e9:63:a7:50:b4:b7:d5:8a:8a:5b:84:6b:c2:38:a8:b0:
         91:f2:67:d4:7c:32:ac:02
-----BEGIN CERTIFICATE-----
MIIGrTCCBJWgAwIBAgICDlAwDQYJKoZIhvcNAQEEBQAwgawxCzAJBgNVBAYTAlVT
MQswCQYDVQQIEwJPSDERMA8GA1UEBxMIQ29sdW1idXMxEjAQBgNVBAoTCVZpa2lu
Z1ZQTjEdMBsGA1UECxMUTXlPcmdhbml6YXRpb25hbFVuaXQxFTATBgNVBAMTDFZp
a2luZ1ZQTiBDQTEQMA4GA1UEKRMHRWFzeVJTQTEhMB8GCSqGSIb3DQEJARYSbWVA
bXlob3N0Lm15ZG9tYWluMB4XDTE0MTIxMzA3MDU1NloXDTI0MTIxMDA3MDU1Nlow
HzEdMBsGA1UEAxMUQ2xpZW50MTI2MkNlcnQ4ZDY2MWYwggIiMA0GCSqGSIb3DQEB
AQUAA4ICDwAwggIKAoICAQDM6XyguI1I9QahOXM1hXD1nYy9ZN78Nlo6b3LtNLnr
yq00tuSr4Eyt2bAWH0TXgBDl9Bf2LtVHHzOoCPRphTAc6H8cNTfLertAgVk0/4/0
lwAYAe3ka0qpbQJKjo4RYwuTqlLhCUpdZT8mQgmzMnE6+LAFjZCCvrWnRrCjLUmq
03GzUdK7IzoPcV3LDqPIbumnWFrMv1tR3fKjXVVrqiANSLk0hX3nnhHYCpRF3sJD
qXdZGW3NQoJU6DylaN+sDrwPS/xIqoP5zUeRdl3dUVqcV/IZIAAIEymV9LYs7Vnb
QWahTMlc+ubwFrgMKzG9pzf9RbylsN7YY/1dHj7rs3QHqCsi3szrRkkDVJnyDrPS
ZuDNCfk52J8CXUrxfyQreIwVBi4fUsiEZl1eYn6swCLEmurftb+E081C1lK2Iki4
1sj9TFanTPliJFwb3qMLCBT7DVPO+yhVoltFpw96jDTaPdpG1eju+vVmSpJrJFnp
l/ONOMewz2I6Li+K3eIRMKHATSfyJVM8dT8QjA/nveIb7lL3+Z+2ZQ5B7tfZSt+P
Nx+MWZuCAK4jKRJkQGiyNyVK5Ta2s35j0JKEIn99A271X//m5O314wdkJgFz+NHZ
AUt0cOcGLMV59nytPbGZbWNecIQZkZoyFd8vbGWOkl+XYSxPNWHUZC8ompe3RBTa
6wIDAQABo4IBYzCCAV8wCQYDVR0TBAIwADAtBglghkgBhvhCAQ0EIBYeRWFzeS1S
U0EgR2VuZXJhdGVkIENlcnRpZmljYXRlMB0GA1UdDgQWBBTK/UulY2rDRZoYyfJq
pLeT/FdFhDCB4QYDVR0jBIHZMIHWgBQSzWAE0qCAnnDtxpm4eyzGUv0ZoaGBsqSB
rzCBrDELMAkGA1UEBhMCVVMxCzAJBgNVBAgTAk9IMREwDwYDVQQHEwhDb2x1bWJ1
czESMBAGA1UEChMJVmlraW5nVlBOMR0wGwYDVQQLExRNeU9yZ2FuaXphdGlvbmFs
VW5pdDEVMBMGA1UEAxMMVmlraW5nVlBOIENBMRAwDgYDVQQpEwdFYXN5UlNBMSEw
HwYJKoZIhvcNAQkBFhJtZUBteWhvc3QubXlkb21haW6CCQDPNYXugL8qPjATBgNV
HSUEDDAKBggrBgEFBQcDAjALBgNVHQ8EBAMCB4AwDQYJKoZIhvcNAQEEBQADggIB
AGzuuN3oIDKvmacRzUcDK1Mxfye33ObkaGC6dMCvZwR9KOK7DDMaeRyKo9QiEGjz
ptG0qzVK847ahrCuDQqMmZ6l1zK6tcNqR43UqE3w/w0CA6tSrJ4Jjrt1Ab1VVQqd
z9uuSADzn5+jFCrG/PXRI3Obd0pT60BbFRAQ+f1jWLo0lI+0p1+xt+kM+vFWJD3a
MwBclprlKn1sib0pGhGZKPWqZvqcDCIkqqs0BKeTeQs87WH/Gh923wHO9SWRfffq
1vIqncJzsHG6cy20/kT/HZrLJiwZnFyVjRChjyoH/NM+Bmbv8bey3fvVaF0X36Bd
MogdAeN+DJKPjmy5e75cciWfQSI+06tq8/2m2sEyfFa9sIRzNVFdQbG3Gz8oXLKT
MrtBLXGhugtn6q+vcyVL/eM6eIxOgJEC93R6IrHKf5GV3lNCScS/Qb1/6yNpsVKc
TKMuRkvNVMHCmGnesDFBSacgk4g00WG/C0/a0hlVAEmypzqpNRO2tuxXmO4aDfR1
Ff88eGcuk+lp0gBkA7actKsCRP4lr1TZsBQ9eoQA+sHtJxGWA4z2ymAGMiR1IthO
eZvPNa+pE3YnEV4EOr77TqseG2gwD91S3HeUWA3DrBanONwNIjVG44m2R/iLdjlW
XLykDUdjmG0Q6WOnULS31YqKW4RrwjiosJHyZ9R8MqwC
-----END CERTIFICATE-----
