Certificate:
    Data:
        Version: 3 (0x2)
        Serial Number: 3682 (0xe62)
    Signature Algorithm: md5WithRSAEncryption
        Issuer: C=US, ST=OH, L=Columbus, O=VikingVPN, OU=MyOrganizationalUnit, CN=VikingVPN CA/name=EasyRSA/emailAddress=me@myhost.mydomain
        Validity
            Not Before: Dec 15 18:44:07 2014 GMT
            Not After : Dec 12 18:44:07 2024 GMT
        Subject: CN=Client1271Cert332ac3
        Subject Public Key Info:
            Public Key Algorithm: rsaEncryption
                Public-Key: (4096 bit)
                Modulus:
                    00:bd:87:80:05:79:98:5e:ec:d8:be:60:8e:f0:49:
                    c2:21:fd:97:34:8d:7c:39:b1:ea:f4:7d:6c:48:d1:
                    9a:ad:9b:e5:47:1e:30:ec:50:1a:2d:d7:3f:b8:c4:
                    7f:ee:ee:b6:25:ab:fe:9f:d3:44:d7:88:7c:99:40:
                    83:1f:b2:68:91:3c:81:d7:c1:ea:11:81:ac:75:ea:
                    e4:04:0b:02:80:fc:36:dc:d7:85:07:99:bc:1b:f3:
                    40:5b:dd:0f:d6:2f:8f:79:b1:39:94:96:6b:19:e0:
                    5d:8b:bf:a0:0d:11:c1:1d:c7:8c:67:c1:82:15:48:
                    d3:b3:37:7c:26:31:45:e7:f6:8a:a2:a3:39:34:e5:
                    3d:8f:26:03:f7:e0:9a:14:7e:03:8f:f0:4a:f1:e5:
                    bd:6b:54:00:c4:9d:94:fa:0d:ff:24:46:12:77:22:
                    02:c1:fc:68:f5:af:94:b0:e7:01:84:78:94:b4:7e:
                    16:4a:83:b2:73:ab:3a:1c:b5:58:b8:2a:0b:ec:9f:
                    6e:0e:e4:86:b9:0d:1d:46:e1:92:e7:a3:c3:0a:21:
                    d9:c0:0e:9e:45:46:ac:9c:a9:12:f0:6f:f4:f8:27:
                    6a:b2:b1:70:3f:a0:ca:3b:3b:5d:33:7d:ab:9e:1a:
                    c1:0a:89:a4:f7:9d:0f:93:73:b1:06:b9:76:01:88:
                    e9:3c:30:97:46:99:79:dc:b7:00:55:7d:5d:c6:52:
                    28:35:76:1e:38:7a:58:1b:5e:8b:cf:89:e9:27:39:
                    98:d8:85:7c:70:70:fc:b0:db:30:e6:23:6f:62:52:
                    e1:ac:12:26:77:e4:0a:4e:35:ec:e9:10:eb:3b:d9:
                    d6:6a:9e:72:43:88:f9:82:e1:ec:89:3d:d5:0b:70:
                    90:08:82:37:eb:65:f1:ed:0e:8c:2d:de:e4:8a:d5:
                    10:a8:7b:c0:c2:a9:be:09:30:14:60:18:15:e5:61:
                    24:20:2c:88:09:82:5e:c7:8c:c6:94:10:92:bc:a5:
                    8e:6d:f1:c1:33:9d:1b:1a:07:16:ac:dc:da:45:48:
                    cf:7f:ee:0c:1d:07:bf:89:e0:bb:d7:a0:31:d8:0f:
                    5f:25:d6:83:2d:58:e8:27:fb:12:44:f1:73:1c:fd:
                    84:4f:59:28:3d:ea:6e:14:7d:b6:29:99:46:ca:9f:
                    03:05:4d:4a:0c:e1:29:10:cf:f1:2f:68:25:fe:ce:
                    14:3f:91:85:91:6d:8c:f8:7e:2e:05:a3:f0:e0:bc:
                    99:e2:bf:a5:8e:f3:b8:77:98:3e:9a:db:86:fb:5c:
                    1f:a3:fe:f3:07:d2:68:61:46:51:cc:88:6f:f2:f3:
                    c2:4a:13:65:b9:79:05:a5:e3:c7:dc:b1:5a:c5:54:
                    6f:fe:81
                Exponent: 65537 (0x10001)
        X509v3 extensions:
            X509v3 Basic Constraints: 
                CA:FALSE
            Netscape Comment: 
                Easy-RSA Generated Certificate
            X509v3 Subject Key Identifier: 
                85:05:C0:74:6B:81:06:3D:B3:86:84:F5:CC:D7:E5:5A:79:79:C9:33
            X509v3 Authority Key Identifier: 
                keyid:12:CD:60:04:D2:A0:80:9E:70:ED:C6:99:B8:7B:2C:C6:52:FD:19:A1
                DirName:/C=US/ST=OH/L=Columbus/O=VikingVPN/OU=MyOrganizationalUnit/CN=VikingVPN CA/name=EasyRSA/emailAddress=me@myhost.mydomain
                serial:CF:35:85:EE:80:BF:2A:3E

            X509v3 Extended Key Usage: 
                TLS Web Client Authentication
            X509v3 Key Usage: 
                Digital Signature
    Signature Algorithm: md5WithRSAEncryption
         7a:26:f8:ab:ff:dd:9b:67:3a:e0:76:41:ec:ba:97:28:19:a4:
         53:18:f5:fc:8b:40:af:16:47:63:32:62:0e:e7:8d:2c:ae:a4:
         ec:37:4f:b6:78:01:27:9c:43:c0:d5:d0:19:0d:8d:55:1f:ce:
         a2:89:d7:e2:f9:ca:c9:1a:f0:6e:83:c6:fd:a9:5e:a0:00:9f:
         b6:49:69:12:d4:b0:9a:85:37:ff:ab:6f:ff:80:bd:48:d6:e0:
         cf:de:9b:09:28:65:88:ff:4f:d7:38:70:6f:59:5b:7f:03:ad:
         7c:1b:ac:f6:61:bc:7b:6e:4b:3b:7c:00:e9:f1:1b:14:ec:40:
         3b:27:6a:cb:94:20:ce:4a:d2:50:2d:b2:67:5f:d3:dc:08:56:
         cb:76:49:c3:98:d1:12:1d:51:e9:60:15:09:9b:b9:0d:3c:1e:
         9e:76:6b:38:20:4e:24:3b:80:63:78:60:db:2a:67:76:63:dc:
         06:53:19:84:b1:c3:1a:74:38:5a:bf:a6:1c:94:1e:0e:ea:a7:
         d3:8c:12:3c:ea:4d:2a:75:98:a5:ea:1a:9e:12:ca:fa:de:31:
         e3:78:7b:b6:13:f3:af:74:09:1e:55:df:e6:a3:20:ba:53:39:
         53:86:83:a5:31:43:03:f3:8c:c4:a3:81:50:af:f4:9e:71:5a:
         0a:8d:90:d6:a0:1f:56:ff:f3:0b:46:87:2d:af:16:83:53:d4:
         2f:67:1f:8e:a4:1b:fe:1e:2d:52:bf:f1:04:72:00:14:1e:93:
         d5:7f:65:28:23:6c:f7:31:5c:39:6a:bf:a8:f3:a0:4e:eb:a5:
         36:56:56:3d:f4:73:02:7d:63:40:19:cd:b8:c2:de:f5:74:87:
         18:e7:18:ee:6f:c7:d6:c9:80:45:63:fe:ce:95:3c:66:34:19:
         68:8d:78:3b:22:e7:ea:e7:7e:51:00:a7:36:c0:92:18:a8:20:
         28:1a:19:5b:8c:0f:c0:21:c0:b0:d6:25:65:ca:ee:dc:31:95:
         48:b6:20:43:e6:de:87:51:62:da:2c:b2:94:65:07:80:a7:7b:
         c6:85:78:38:1b:5e:7d:e9:be:4a:66:c0:f1:9c:9f:95:b0:e5:
         0f:15:17:d7:a7:a4:6b:6f:b2:d5:71:49:94:fb:c2:6c:4c:e8:
         a8:86:1b:f9:08:55:97:3a:ef:ab:c5:f8:dd:32:f2:cd:77:c5:
         5f:1f:04:d2:32:ca:83:4e:2b:74:b0:21:af:4b:2a:8a:66:19:
         42:46:b8:57:a4:7e:0b:6a:72:cc:e6:9d:50:87:7b:d5:49:d1:
         37:e0:31:98:91:f2:f4:0f:58:58:62:a5:f9:d5:9a:ee:42:e9:
         dd:d7:fc:80:42:65:6e:fa
-----BEGIN CERTIFICATE-----
MIIGrTCCBJWgAwIBAgICDmIwDQYJKoZIhvcNAQEEBQAwgawxCzAJBgNVBAYTAlVT
MQswCQYDVQQIEwJPSDERMA8GA1UEBxMIQ29sdW1idXMxEjAQBgNVBAoTCVZpa2lu
Z1ZQTjEdMBsGA1UECxMUTXlPcmdhbml6YXRpb25hbFVuaXQxFTATBgNVBAMTDFZp
a2luZ1ZQTiBDQTEQMA4GA1UEKRMHRWFzeVJTQTEhMB8GCSqGSIb3DQEJARYSbWVA
bXlob3N0Lm15ZG9tYWluMB4XDTE0MTIxNTE4NDQwN1oXDTI0MTIxMjE4NDQwN1ow
HzEdMBsGA1UEAxMUQ2xpZW50MTI3MUNlcnQzMzJhYzMwggIiMA0GCSqGSIb3DQEB
AQUAA4ICDwAwggIKAoICAQC9h4AFeZhe7Ni+YI7wScIh/Zc0jXw5ser0fWxI0Zqt
m+VHHjDsUBot1z+4xH/u7rYlq/6f00TXiHyZQIMfsmiRPIHXweoRgax16uQECwKA
/Dbc14UHmbwb80Bb3Q/WL495sTmUlmsZ4F2Lv6ANEcEdx4xnwYIVSNOzN3wmMUXn
9oqiozk05T2PJgP34JoUfgOP8Erx5b1rVADEnZT6Df8kRhJ3IgLB/Gj1r5Sw5wGE
eJS0fhZKg7JzqzoctVi4Kgvsn24O5Ia5DR1G4ZLno8MKIdnADp5FRqycqRLwb/T4
J2qysXA/oMo7O10zfaueGsEKiaT3nQ+Tc7EGuXYBiOk8MJdGmXnctwBVfV3GUig1
dh44elgbXovPieknOZjYhXxwcPyw2zDmI29iUuGsEiZ35ApONezpEOs72dZqnnJD
iPmC4eyJPdULcJAIgjfrZfHtDowt3uSK1RCoe8DCqb4JMBRgGBXlYSQgLIgJgl7H
jMaUEJK8pY5t8cEznRsaBxas3NpFSM9/7gwdB7+J4LvXoDHYD18l1oMtWOgn+xJE
8XMc/YRPWSg96m4UfbYpmUbKnwMFTUoM4SkQz/EvaCX+zhQ/kYWRbYz4fi4Fo/Dg
vJniv6WO87h3mD6a24b7XB+j/vMH0mhhRlHMiG/y88JKE2W5eQWl48fcsVrFVG/+
gQIDAQABo4IBYzCCAV8wCQYDVR0TBAIwADAtBglghkgBhvhCAQ0EIBYeRWFzeS1S
U0EgR2VuZXJhdGVkIENlcnRpZmljYXRlMB0GA1UdDgQWBBSFBcB0a4EGPbOGhPXM
1+VaeXnJMzCB4QYDVR0jBIHZMIHWgBQSzWAE0qCAnnDtxpm4eyzGUv0ZoaGBsqSB
rzCBrDELMAkGA1UEBhMCVVMxCzAJBgNVBAgTAk9IMREwDwYDVQQHEwhDb2x1bWJ1
czESMBAGA1UEChMJVmlraW5nVlBOMR0wGwYDVQQLExRNeU9yZ2FuaXphdGlvbmFs
VW5pdDEVMBMGA1UEAxMMVmlraW5nVlBOIENBMRAwDgYDVQQpEwdFYXN5UlNBMSEw
HwYJKoZIhvcNAQkBFhJtZUBteWhvc3QubXlkb21haW6CCQDPNYXugL8qPjATBgNV
HSUEDDAKBggrBgEFBQcDAjALBgNVHQ8EBAMCB4AwDQYJKoZIhvcNAQEEBQADggIB
AHom+Kv/3ZtnOuB2Qey6lygZpFMY9fyLQK8WR2MyYg7njSyupOw3T7Z4ASecQ8DV
0BkNjVUfzqKJ1+L5yska8G6Dxv2pXqAAn7ZJaRLUsJqFN/+rb/+AvUjW4M/emwko
ZYj/T9c4cG9ZW38DrXwbrPZhvHtuSzt8AOnxGxTsQDsnasuUIM5K0lAtsmdf09wI
Vst2ScOY0RIdUelgFQmbuQ08Hp52azggTiQ7gGN4YNsqZ3Zj3AZTGYSxwxp0OFq/
phyUHg7qp9OMEjzqTSp1mKXqGp4SyvreMeN4e7YT8690CR5V3+ajILpTOVOGg6Ux
QwPzjMSjgVCv9J5xWgqNkNagH1b/8wtGhy2vFoNT1C9nH46kG/4eLVK/8QRyABQe
k9V/ZSgjbPcxXDlqv6jzoE7rpTZWVj30cwJ9Y0AZzbjC3vV0hxjnGO5vx9bJgEVj
/s6VPGY0GWiNeDsi5+rnflEApzbAkhioICgaGVuMD8AhwLDWJWXK7twxlUi2IEPm
3odRYtosspRlB4Cne8aFeDgbXn3pvkpmwPGcn5Ww5Q8VF9enpGtvstVxSZT7wmxM
6KiGG/kIVZc676vF+N0y8s13xV8fBNIyyoNOK3SwIa9LKopmGUJGuFekfgtqcszm
nVCHe9VJ0TfgMZiR8vQPWFhipfnVmu5C6d3X/IBCZW76
-----END CERTIFICATE-----
