Certificate:
    Data:
        Version: 3 (0x2)
        Serial Number: 3694 (0xe6e)
    Signature Algorithm: md5WithRSAEncryption
        Issuer: C=US, ST=OH, L=Columbus, O=VikingVPN, OU=MyOrganizationalUnit, CN=VikingVPN CA/name=EasyRSA/emailAddress=me@myhost.mydomain
        Validity
            Not Before: Dec 16 08:31:52 2014 GMT
            Not After : Dec 13 08:31:52 2024 GMT
        Subject: CN=Client121Cert3a1cc4
        Subject Public Key Info:
            Public Key Algorithm: rsaEncryption
                Public-Key: (4096 bit)
                Modulus:
                    00:c0:3e:90:27:0e:59:9f:cf:7b:29:67:19:00:cb:
                    9b:d3:8f:f4:18:53:37:cf:1c:2f:07:3e:3b:f5:25:
                    57:73:bc:36:3a:b0:80:54:1c:f8:d5:51:38:73:8c:
                    02:b8:32:f0:51:e4:df:00:47:f2:f9:38:f9:17:70:
                    9d:90:5f:a3:74:f3:6c:47:d1:63:15:1a:9d:84:06:
                    86:27:80:5d:5a:23:e8:4c:ad:1c:16:4e:b1:af:5c:
                    af:7d:11:9a:a7:16:bc:3d:50:6e:03:25:b8:5f:8c:
                    b0:06:d3:12:0f:d3:3a:19:0d:a8:47:1c:f2:ee:b0:
                    e6:a7:29:84:a9:68:85:00:e9:79:e8:07:d5:e9:74:
                    21:0b:eb:bb:71:aa:ae:74:db:f3:ed:af:7b:e4:8f:
                    4b:ad:01:a0:7c:cc:d1:27:18:93:29:40:65:68:6b:
                    36:21:2f:40:e6:3f:42:b8:e3:c6:cb:d3:25:c4:44:
                    3c:e2:c7:88:98:29:2c:ee:ee:71:85:3c:7a:7e:df:
                    96:d6:81:62:cf:d0:39:43:20:8b:42:9a:04:4c:0a:
                    f1:14:65:be:be:78:52:89:d8:95:18:b4:66:83:8b:
                    19:66:52:ea:ba:6b:f5:d1:3c:04:09:92:c3:78:d8:
                    2c:3f:09:2a:b5:5a:e0:67:17:90:aa:76:71:53:2a:
                    f9:02:76:0b:9f:46:ce:90:bf:14:37:26:90:40:a1:
                    ea:00:f0:57:c9:7a:c2:af:38:b4:10:3b:4a:68:64:
                    23:e8:78:89:62:25:f9:0b:c2:ee:9a:cf:19:92:63:
                    97:b9:59:ea:57:86:ab:ad:a7:5e:2c:ff:56:e6:10:
                    28:a0:b8:56:0c:a3:ce:ef:2b:96:5f:b2:70:14:dc:
                    08:6d:d9:9e:a1:5c:61:9f:6a:78:24:e9:3b:61:ad:
                    07:c1:66:06:3c:fd:3d:6c:49:84:a3:89:c7:1c:4a:
                    1f:90:9c:dc:29:0c:7e:1d:dc:0c:b8:90:0c:92:e3:
                    42:a5:39:56:15:db:67:43:ae:9b:77:e2:61:96:f6:
                    10:cb:c9:d6:78:38:6c:3a:02:c1:8e:86:5a:ed:84:
                    20:b6:ef:7f:a5:82:1a:44:e4:5f:40:20:3c:dc:67:
                    c8:08:1d:46:7c:d0:8e:5d:8e:f4:61:b6:9c:b1:93:
                    7a:7e:ca:b9:5f:a7:a5:9e:9e:89:72:82:f3:24:09:
                    d8:fc:56:ba:58:35:11:14:78:4a:30:57:d7:82:57:
                    b2:ce:b9:39:aa:62:35:df:f5:05:57:9a:9d:40:2c:
                    6b:31:b9:aa:2a:3e:45:e5:bf:7f:da:38:14:3e:ae:
                    60:a6:b5:8e:86:78:da:91:03:74:db:70:73:c7:02:
                    08:1f:0f
                Exponent: 65537 (0x10001)
        X509v3 extensions:
            X509v3 Basic Constraints: 
                CA:FALSE
            Netscape Comment: 
                Easy-RSA Generated Certificate
            X509v3 Subject Key Identifier: 
                A4:4D:38:72:3B:90:22:45:C6:59:DB:2D:21:A8:CF:51:EC:93:08:F4
            X509v3 Authority Key Identifier: 
                keyid:12:CD:60:04:D2:A0:80:9E:70:ED:C6:99:B8:7B:2C:C6:52:FD:19:A1
                DirName:/C=US/ST=OH/L=Columbus/O=VikingVPN/OU=MyOrganizationalUnit/CN=VikingVPN CA/name=EasyRSA/emailAddress=me@myhost.mydomain
                serial:CF:35:85:EE:80:BF:2A:3E

            X509v3 Extended Key Usage: 
                TLS Web Client Authentication
            X509v3 Key Usage: 
                Digital Signature
    Signature Algorithm: md5WithRSAEncryption
         1f:5e:d2:9b:9c:55:a4:cc:25:c9:2f:58:55:e5:82:7d:c1:3c:
         c2:ed:96:cb:d8:e4:7f:b3:cb:1e:45:e0:1b:a4:b3:63:19:76:
         18:da:7d:34:0d:f2:61:19:08:e1:45:16:da:32:e0:5b:45:4b:
         90:80:56:30:4d:28:e4:e6:b0:81:01:fc:ee:04:88:b1:b4:e9:
         af:11:cd:c2:3a:32:2d:82:7d:63:d0:e0:e3:6d:3e:35:83:92:
         c3:a5:d8:72:fa:e0:30:f7:07:8a:6b:8b:dc:a1:26:77:60:a9:
         d0:cb:78:9c:30:8a:cf:b3:ed:e1:74:98:b2:58:eb:4c:6f:19:
         07:e2:6d:f0:8f:27:86:83:d1:0a:36:5b:f3:f0:cb:f7:60:0f:
         4f:3d:0e:5f:21:29:d1:e6:fc:3d:7e:5e:8c:80:82:1a:2b:3f:
         a3:b6:65:78:d3:d2:2d:69:4d:4d:1a:df:3b:41:f1:2d:77:dc:
         76:28:5d:6f:f9:1c:e4:e2:a0:eb:63:b1:82:b9:36:50:28:77:
         f1:a9:b0:29:13:9a:5f:9c:55:b6:13:53:0a:7a:e5:49:1f:d0:
         48:fe:dc:54:ab:46:87:b3:eb:40:e8:a7:12:6c:4e:47:bb:1b:
         5a:40:00:08:b3:bb:3f:76:bc:91:28:99:67:a9:d7:e2:09:62:
         fd:5f:8e:e5:5a:d3:3f:66:11:0b:0d:6b:93:dc:f2:ea:3e:66:
         f5:9b:65:b6:8f:78:5f:3f:6f:c3:97:47:c6:cc:5e:a5:f0:82:
         c6:83:8b:16:ff:80:89:a4:89:d5:90:61:98:2f:e3:01:50:78:
         89:75:f3:dd:ff:79:3e:61:03:e3:4c:82:80:79:de:80:92:5e:
         9d:09:7c:27:e1:b0:46:c8:d1:d5:6d:81:af:d7:aa:0c:9b:29:
         7c:2a:d4:6b:40:44:b7:34:b1:dd:6c:06:6e:7e:cb:e9:0f:3e:
         a9:dd:cd:46:84:1a:33:68:e8:39:4b:08:6b:2b:b4:e7:ed:59:
         a5:3d:53:77:4b:dd:1c:e4:1b:37:28:dd:7e:84:e1:a5:e7:9c:
         bb:5f:6d:3a:07:29:f2:d1:60:09:fc:bb:19:36:e6:e8:23:3e:
         62:f3:ff:fe:c9:b8:bb:dd:77:d7:24:4f:26:8c:f7:36:33:7b:
         82:dd:1f:16:b3:d7:6d:f5:c4:c8:c4:6c:e1:20:2c:4d:26:3c:
         93:ea:0a:c9:bd:9e:24:9c:11:78:ce:23:b8:c9:07:1e:50:23:
         10:c7:95:98:d9:4d:55:15:48:6e:95:cf:28:ce:33:af:58:c9:
         31:bc:37:2f:de:de:b8:a8:0e:21:af:f0:5e:9f:44:a2:e9:1b:
         bf:78:c2:b4:57:c8:1c:db
-----BEGIN CERTIFICATE-----
MIIGrDCCBJSgAwIBAgICDm4wDQYJKoZIhvcNAQEEBQAwgawxCzAJBgNVBAYTAlVT
MQswCQYDVQQIEwJPSDERMA8GA1UEBxMIQ29sdW1idXMxEjAQBgNVBAoTCVZpa2lu
Z1ZQTjEdMBsGA1UECxMUTXlPcmdhbml6YXRpb25hbFVuaXQxFTATBgNVBAMTDFZp
a2luZ1ZQTiBDQTEQMA4GA1UEKRMHRWFzeVJTQTEhMB8GCSqGSIb3DQEJARYSbWVA
bXlob3N0Lm15ZG9tYWluMB4XDTE0MTIxNjA4MzE1MloXDTI0MTIxMzA4MzE1Mlow
HjEcMBoGA1UEAxMTQ2xpZW50MTIxQ2VydDNhMWNjNDCCAiIwDQYJKoZIhvcNAQEB
BQADggIPADCCAgoCggIBAMA+kCcOWZ/PeylnGQDLm9OP9BhTN88cLwc+O/UlV3O8
NjqwgFQc+NVROHOMArgy8FHk3wBH8vk4+RdwnZBfo3TzbEfRYxUanYQGhieAXVoj
6EytHBZOsa9cr30RmqcWvD1QbgMluF+MsAbTEg/TOhkNqEcc8u6w5qcphKlohQDp
eegH1el0IQvru3GqrnTb8+2ve+SPS60BoHzM0ScYkylAZWhrNiEvQOY/QrjjxsvT
JcREPOLHiJgpLO7ucYU8en7fltaBYs/QOUMgi0KaBEwK8RRlvr54UonYlRi0ZoOL
GWZS6rpr9dE8BAmSw3jYLD8JKrVa4GcXkKp2cVMq+QJ2C59GzpC/FDcmkECh6gDw
V8l6wq84tBA7SmhkI+h4iWIl+QvC7prPGZJjl7lZ6leGq62nXiz/VuYQKKC4Vgyj
zu8rll+ycBTcCG3ZnqFcYZ9qeCTpO2GtB8FmBjz9PWxJhKOJxxxKH5Cc3CkMfh3c
DLiQDJLjQqU5VhXbZ0Oum3fiYZb2EMvJ1ng4bDoCwY6GWu2EILbvf6WCGkTkX0Ag
PNxnyAgdRnzQjl2O9GG2nLGTen7KuV+npZ6eiXKC8yQJ2PxWulg1ERR4SjBX14JX
ss65OapiNd/1BVeanUAsazG5qio+ReW/f9o4FD6uYKa1joZ42pEDdNtwc8cCCB8P
AgMBAAGjggFjMIIBXzAJBgNVHRMEAjAAMC0GCWCGSAGG+EIBDQQgFh5FYXN5LVJT
QSBHZW5lcmF0ZWQgQ2VydGlmaWNhdGUwHQYDVR0OBBYEFKRNOHI7kCJFxlnbLSGo
z1Hskwj0MIHhBgNVHSMEgdkwgdaAFBLNYATSoICecO3Gmbh7LMZS/RmhoYGypIGv
MIGsMQswCQYDVQQGEwJVUzELMAkGA1UECBMCT0gxETAPBgNVBAcTCENvbHVtYnVz
MRIwEAYDVQQKEwlWaWtpbmdWUE4xHTAbBgNVBAsTFE15T3JnYW5pemF0aW9uYWxV
bml0MRUwEwYDVQQDEwxWaWtpbmdWUE4gQ0ExEDAOBgNVBCkTB0Vhc3lSU0ExITAf
BgkqhkiG9w0BCQEWEm1lQG15aG9zdC5teWRvbWFpboIJAM81he6Avyo+MBMGA1Ud
JQQMMAoGCCsGAQUFBwMCMAsGA1UdDwQEAwIHgDANBgkqhkiG9w0BAQQFAAOCAgEA
H17Sm5xVpMwlyS9YVeWCfcE8wu2Wy9jkf7PLHkXgG6SzYxl2GNp9NA3yYRkI4UUW
2jLgW0VLkIBWME0o5OawgQH87gSIsbTprxHNwjoyLYJ9Y9Dg420+NYOSw6XYcvrg
MPcHimuL3KEmd2Cp0Mt4nDCKz7Pt4XSYsljrTG8ZB+Jt8I8nhoPRCjZb8/DL92AP
Tz0OXyEp0eb8PX5ejICCGis/o7ZleNPSLWlNTRrfO0HxLXfcdihdb/kc5OKg62Ox
grk2UCh38amwKROaX5xVthNTCnrlSR/QSP7cVKtGh7PrQOinEmxOR7sbWkAACLO7
P3a8kSiZZ6nX4gli/V+O5VrTP2YRCw1rk9zy6j5m9Ztlto94Xz9vw5dHxsxepfCC
xoOLFv+AiaSJ1ZBhmC/jAVB4iXXz3f95PmED40yCgHnegJJenQl8J+GwRsjR1W2B
r9eqDJspfCrUa0BEtzSx3WwGbn7L6Q8+qd3NRoQaM2joOUsIayu05+1ZpT1Td0vd
HOQbNyjdfoThpeecu19tOgcp8tFgCfy7GTbm6CM+YvP//sm4u9131yRPJoz3NjN7
gt0fFrPXbfXEyMRs4SAsTSY8k+oKyb2eJJwReM4juMkHHlAjEMeVmNlNVRVIbpXP
KM4zr1jJMbw3L97euKgOIa/wXp9Eoukbv3jCtFfIHNs=
-----END CERTIFICATE-----
