Certificate:
    Data:
        Version: 3 (0x2)
        Serial Number: 3706 (0xe7a)
    Signature Algorithm: md5WithRSAEncryption
        Issuer: C=US, ST=OH, L=Columbus, O=VikingVPN, OU=MyOrganizationalUnit, CN=VikingVPN CA/name=EasyRSA/emailAddress=me@myhost.mydomain
        Validity
            Not Before: Dec 16 21:07:07 2014 GMT
            Not After : Dec 13 21:07:07 2024 GMT
        Subject: CN=Client1274Cert27ec33
        Subject Public Key Info:
            Public Key Algorithm: rsaEncryption
                Public-Key: (4096 bit)
                Modulus:
                    00:e1:3b:b2:0e:8d:48:a0:7b:25:66:b7:df:7d:ab:
                    55:bc:a9:10:94:91:58:8d:b7:d6:66:0a:84:6c:78:
                    79:cc:72:6d:15:7c:90:70:67:f6:84:fa:cb:b0:91:
                    48:2a:7a:15:a7:d2:00:5e:2f:2f:a7:96:9c:aa:9c:
                    ee:9f:39:72:c2:31:c0:89:a2:1d:21:47:87:66:7c:
                    6f:ff:a9:5b:a8:2f:d6:b9:fb:37:23:bd:a3:46:d7:
                    35:1f:30:c4:c6:14:b9:d4:a2:d8:78:68:4c:7a:41:
                    e4:7e:3d:f2:e8:b9:93:4e:23:1a:7b:7c:b1:eb:be:
                    ad:6a:84:ab:6d:db:f4:25:30:b9:b6:91:f6:0f:a8:
                    dc:f8:87:46:24:53:9c:33:2b:97:a2:58:c4:ec:cf:
                    00:77:0e:d2:de:4d:33:75:7d:06:52:42:09:88:a8:
                    4f:f3:73:96:5f:2c:45:14:42:92:be:1f:76:2d:5f:
                    87:41:64:05:69:83:8c:0d:8c:80:5c:d0:3c:63:ff:
                    d8:38:1d:77:c8:d3:37:b7:34:90:5d:56:b2:38:70:
                    a5:0b:de:b0:63:1b:a7:29:40:d1:93:60:c8:8f:6b:
                    1a:a0:47:40:11:0a:6f:4e:d2:1a:e0:25:04:d9:1c:
                    2d:ce:ac:66:85:d2:c3:5d:b7:6a:e3:5b:58:d8:0c:
                    be:e9:3d:39:5d:52:2b:11:d3:89:d2:6b:dc:e4:07:
                    df:e4:83:a3:95:24:5b:e0:7b:6c:84:db:b7:f1:af:
                    56:71:8c:4c:37:52:21:f3:e9:fd:b6:b4:b5:1f:62:
                    a9:26:25:ee:04:5a:5e:ab:22:3b:a0:f3:4f:4d:9f:
                    ab:47:95:26:9a:64:74:64:4c:5c:50:88:cf:77:4c:
                    56:fc:21:41:f0:79:03:e8:98:a3:8c:2e:66:c9:d9:
                    e6:60:e4:7b:62:13:47:81:54:09:e5:30:26:44:a6:
                    d3:72:03:5c:16:a9:6f:77:71:72:61:7e:19:70:e2:
                    cb:d2:32:c9:89:a9:9f:0c:d1:fd:5e:82:28:81:4a:
                    30:95:18:46:4d:65:68:ae:ef:2f:93:a8:9e:fe:65:
                    93:8c:f4:f7:54:d3:d9:5e:81:c4:7e:b3:73:c0:31:
                    54:85:4c:1c:fa:b6:a9:c0:b1:6f:03:27:16:08:62:
                    fb:54:5c:fb:d0:dc:65:86:59:59:eb:87:48:b1:9c:
                    93:15:c2:51:96:3e:01:d7:df:a6:cd:7a:16:67:da:
                    55:be:0b:42:86:4f:77:5f:55:d2:4f:12:2e:ca:f8:
                    32:29:92:fe:2d:53:3d:ac:cf:37:42:f6:d4:aa:95:
                    74:2c:45:bd:5a:14:f4:96:15:06:3f:05:cf:c4:37:
                    a4:9d:63
                Exponent: 65537 (0x10001)
        X509v3 extensions:
            X509v3 Basic Constraints: 
                CA:FALSE
            Netscape Comment: 
                Easy-RSA Generated Certificate
            X509v3 Subject Key Identifier: 
                88:88:FA:69:06:A7:64:94:8C:45:23:82:C1:8E:9E:EF:50:7A:81:C8
            X509v3 Authority Key Identifier: 
                keyid:12:CD:60:04:D2:A0:80:9E:70:ED:C6:99:B8:7B:2C:C6:52:FD:19:A1
                DirName:/C=US/ST=OH/L=Columbus/O=VikingVPN/OU=MyOrganizationalUnit/CN=VikingVPN CA/name=EasyRSA/emailAddress=me@myhost.mydomain
                serial:CF:35:85:EE:80:BF:2A:3E

            X509v3 Extended Key Usage: 
                TLS Web Client Authentication
            X509v3 Key Usage: 
                Digital Signature
    Signature Algorithm: md5WithRSAEncryption
         c9:3a:93:9a:1a:cf:6d:04:87:b0:8c:c5:7e:ec:ad:39:2b:1b:
         8e:74:e4:14:b9:3b:fa:2c:1b:29:a1:fd:a3:79:12:3f:e8:b1:
         64:ff:82:5d:e6:33:d6:7d:51:e8:97:6a:42:86:fe:71:a6:4a:
         6e:fe:cb:0e:1a:2d:60:f4:6c:c1:3a:00:f4:a0:af:2b:44:dc:
         11:85:3d:f5:7c:68:06:07:52:11:df:4e:6f:57:c6:91:e9:e5:
         ba:2c:df:2d:24:f7:58:35:4f:cf:44:7c:6f:30:cf:ab:28:c9:
         64:06:63:6d:5c:a7:e8:cd:ba:8b:71:51:06:35:99:58:6e:a6:
         57:e4:f3:77:2d:32:68:10:35:e5:31:79:1e:c7:32:83:2b:8d:
         f4:18:e6:0a:db:1b:e4:da:c1:a0:7d:03:d3:31:d7:24:52:fc:
         de:94:ab:0e:dd:44:38:57:28:f9:c3:8d:5f:14:e8:1e:61:88:
         68:c8:6a:aa:92:75:8e:34:67:3c:f5:42:ae:b9:7a:0f:18:4f:
         0c:db:9b:e5:6e:7c:1f:14:ad:ed:53:45:83:3b:90:e5:44:9c:
         ed:13:c5:b0:14:b0:99:b5:3f:9b:88:a4:16:4c:12:37:f9:63:
         86:c1:2b:13:11:9c:bd:5e:b9:75:20:46:0a:a8:15:b0:29:56:
         9b:d9:e5:9e:36:89:ad:5a:51:73:79:50:10:33:95:99:f3:60:
         d8:8c:52:9a:0d:bf:fa:80:12:be:a2:7a:00:bf:d5:17:ed:fe:
         5c:ff:a8:8f:f4:81:4d:10:cf:c7:be:26:f4:66:c3:56:02:63:
         ca:aa:e0:63:6f:bb:b1:45:1c:5d:99:ba:8d:38:8b:0a:ba:3f:
         24:6a:aa:05:c0:c3:07:27:14:e2:b1:c9:2f:f8:76:86:3c:7d:
         87:4c:38:b4:9a:31:43:9d:17:92:aa:dc:4c:b5:8f:38:bd:cc:
         7e:b7:12:e6:17:92:03:d3:42:c6:84:ab:83:00:44:ae:3e:53:
         aa:b1:51:da:f4:2c:49:a4:ef:c6:04:9a:af:f7:52:e0:7f:6f:
         c5:1b:ef:14:a3:ee:8c:76:3f:40:b0:a9:31:70:60:b9:f3:5d:
         b5:b8:0d:93:3b:3d:ac:d3:d6:f4:72:66:3d:82:75:d5:a8:d4:
         21:e8:89:36:42:b2:e4:1b:3f:c9:0a:36:0a:9c:8a:61:c9:cb:
         3d:23:a4:28:56:8e:36:29:da:a6:fa:75:c4:ea:67:85:fb:16:
         fe:db:eb:eb:a0:08:1f:34:16:55:0c:46:d5:2c:a5:38:6c:20:
         1a:18:2b:02:31:dd:18:5b:35:f5:ef:dc:0f:95:0b:b0:67:30:
         af:3e:2a:eb:bf:a7:b8:ef
-----BEGIN CERTIFICATE-----
MIIGrTCCBJWgAwIBAgICDnowDQYJKoZIhvcNAQEEBQAwgawxCzAJBgNVBAYTAlVT
MQswCQYDVQQIEwJPSDERMA8GA1UEBxMIQ29sdW1idXMxEjAQBgNVBAoTCVZpa2lu
Z1ZQTjEdMBsGA1UECxMUTXlPcmdhbml6YXRpb25hbFVuaXQxFTATBgNVBAMTDFZp
a2luZ1ZQTiBDQTEQMA4GA1UEKRMHRWFzeVJTQTEhMB8GCSqGSIb3DQEJARYSbWVA
bXlob3N0Lm15ZG9tYWluMB4XDTE0MTIxNjIxMDcwN1oXDTI0MTIxMzIxMDcwN1ow
HzEdMBsGA1UEAxMUQ2xpZW50MTI3NENlcnQyN2VjMzMwggIiMA0GCSqGSIb3DQEB
AQUAA4ICDwAwggIKAoICAQDhO7IOjUigeyVmt999q1W8qRCUkViNt9ZmCoRseHnM
cm0VfJBwZ/aE+suwkUgqehWn0gBeLy+nlpyqnO6fOXLCMcCJoh0hR4dmfG//qVuo
L9a5+zcjvaNG1zUfMMTGFLnUoth4aEx6QeR+PfLouZNOIxp7fLHrvq1qhKtt2/Ql
MLm2kfYPqNz4h0YkU5wzK5eiWMTszwB3DtLeTTN1fQZSQgmIqE/zc5ZfLEUUQpK+
H3YtX4dBZAVpg4wNjIBc0Dxj/9g4HXfI0ze3NJBdVrI4cKUL3rBjG6cpQNGTYMiP
axqgR0ARCm9O0hrgJQTZHC3OrGaF0sNdt2rjW1jYDL7pPTldUisR04nSa9zkB9/k
g6OVJFvge2yE27fxr1ZxjEw3UiHz6f22tLUfYqkmJe4EWl6rIjug809Nn6tHlSaa
ZHRkTFxQiM93TFb8IUHweQPomKOMLmbJ2eZg5HtiE0eBVAnlMCZEptNyA1wWqW93
cXJhfhlw4svSMsmJqZ8M0f1egiiBSjCVGEZNZWiu7y+TqJ7+ZZOM9PdU09legcR+
s3PAMVSFTBz6tqnAsW8DJxYIYvtUXPvQ3GWGWVnrh0ixnJMVwlGWPgHX36bNehZn
2lW+C0KGT3dfVdJPEi7K+DIpkv4tUz2szzdC9tSqlXQsRb1aFPSWFQY/Bc/EN6Sd
YwIDAQABo4IBYzCCAV8wCQYDVR0TBAIwADAtBglghkgBhvhCAQ0EIBYeRWFzeS1S
U0EgR2VuZXJhdGVkIENlcnRpZmljYXRlMB0GA1UdDgQWBBSIiPppBqdklIxFI4LB
jp7vUHqByDCB4QYDVR0jBIHZMIHWgBQSzWAE0qCAnnDtxpm4eyzGUv0ZoaGBsqSB
rzCBrDELMAkGA1UEBhMCVVMxCzAJBgNVBAgTAk9IMREwDwYDVQQHEwhDb2x1bWJ1
czESMBAGA1UEChMJVmlraW5nVlBOMR0wGwYDVQQLExRNeU9yZ2FuaXphdGlvbmFs
VW5pdDEVMBMGA1UEAxMMVmlraW5nVlBOIENBMRAwDgYDVQQpEwdFYXN5UlNBMSEw
HwYJKoZIhvcNAQkBFhJtZUBteWhvc3QubXlkb21haW6CCQDPNYXugL8qPjATBgNV
HSUEDDAKBggrBgEFBQcDAjALBgNVHQ8EBAMCB4AwDQYJKoZIhvcNAQEEBQADggIB
AMk6k5oaz20Eh7CMxX7srTkrG4505BS5O/osGymh/aN5Ej/osWT/gl3mM9Z9UeiX
akKG/nGmSm7+yw4aLWD0bME6APSgrytE3BGFPfV8aAYHUhHfTm9XxpHp5bos3y0k
91g1T89EfG8wz6soyWQGY21cp+jNuotxUQY1mVhuplfk83ctMmgQNeUxeR7HMoMr
jfQY5grbG+TawaB9A9Mx1yRS/N6Uqw7dRDhXKPnDjV8U6B5hiGjIaqqSdY40Zzz1
Qq65eg8YTwzbm+VufB8Ure1TRYM7kOVEnO0TxbAUsJm1P5uIpBZMEjf5Y4bBKxMR
nL1euXUgRgqoFbApVpvZ5Z42ia1aUXN5UBAzlZnzYNiMUpoNv/qAEr6iegC/1Rft
/lz/qI/0gU0Qz8e+JvRmw1YCY8qq4GNvu7FFHF2Zuo04iwq6PyRqqgXAwwcnFOKx
yS/4doY8fYdMOLSaMUOdF5Kq3Ey1jzi9zH63EuYXkgPTQsaEq4MARK4+U6qxUdr0
LEmk78YEmq/3UuB/b8Ub7xSj7ox2P0CwqTFwYLnzXbW4DZM7PazT1vRyZj2CddWo
1CHoiTZCsuQbP8kKNgqcimHJyz0jpChWjjYp2qb6dcTqZ4X7Fv7b6+ugCB80FlUM
RtUspThsIBoYKwIx3RhbNfXv3A+VC7BnMK8+Kuu/p7jv
-----END CERTIFICATE-----
