Certificate:
    Data:
        Version: 3 (0x2)
        Serial Number: 3722 (0xe8a)
    Signature Algorithm: md5WithRSAEncryption
        Issuer: C=US, ST=OH, L=Columbus, O=VikingVPN, OU=MyOrganizationalUnit, CN=VikingVPN CA/name=EasyRSA/emailAddress=me@myhost.mydomain
        Validity
            Not Before: Dec 17 23:43:15 2014 GMT
            Not After : Dec 14 23:43:15 2024 GMT
        Subject: CN=Client1247Cert6d216b
        Subject Public Key Info:
            Public Key Algorithm: rsaEncryption
                Public-Key: (4096 bit)
                Modulus:
                    00:9b:d4:0f:a4:77:38:7c:9f:68:94:5d:39:c0:52:
                    8e:09:27:b7:99:da:43:d1:d6:c4:2e:4d:a1:f1:04:
                    b4:15:ee:17:06:8f:b1:a0:b7:43:1c:c6:4c:a6:c7:
                    ab:f3:c8:2c:ce:c0:10:ca:4a:09:49:88:17:35:d7:
                    f9:18:4e:fe:38:06:f0:8d:d8:e7:f2:e5:32:ce:64:
                    15:64:cd:24:a2:b4:52:50:b6:7b:42:e9:7f:1e:48:
                    ab:cc:9a:be:92:ad:45:62:4d:4b:5f:10:69:9f:ed:
                    d4:2d:14:02:ae:f3:d7:a9:2b:ee:2f:47:ea:26:f9:
                    98:22:f4:22:b2:1c:66:34:09:e5:9a:c2:8f:c5:51:
                    a2:d1:a6:1a:4b:0f:fa:a4:16:6c:4c:ac:52:cc:78:
                    bf:45:9e:3f:be:8a:19:69:63:8d:f0:95:ea:50:e3:
                    52:5b:cd:1b:1b:31:df:ad:83:b1:c9:8b:4d:72:31:
                    c0:34:d9:6e:a9:c5:59:32:96:07:b9:05:ef:69:15:
                    45:ff:81:61:3b:aa:fc:1f:8d:b3:c4:d3:5a:99:47:
                    dd:bb:85:08:d9:db:f5:cc:29:de:b3:da:96:cc:dc:
                    eb:d9:e8:f6:73:93:61:58:9c:3d:bb:38:84:c3:c6:
                    05:cf:52:c7:a9:13:b8:26:e3:7c:f8:af:52:5d:d3:
                    47:16:56:9b:73:52:ce:82:9e:2c:ca:90:e8:91:d0:
                    e6:6a:e5:92:61:d6:5c:18:33:ba:45:80:20:aa:aa:
                    b8:b2:75:66:31:fb:38:fb:62:7d:d2:55:69:39:99:
                    d1:92:1f:36:d4:0b:1d:16:4a:41:3a:65:60:73:e1:
                    1f:b5:79:13:de:74:ec:13:60:d3:62:3f:ed:36:ec:
                    97:99:c2:a9:12:32:c6:95:7c:ae:d2:aa:ca:0f:71:
                    27:37:ff:7c:fb:38:3d:22:26:ad:ad:c9:e5:7d:48:
                    b2:c5:14:a5:bb:76:6f:c1:cf:2e:75:d4:20:1f:98:
                    d5:49:39:10:07:24:1c:bc:63:cf:ab:a5:ec:0f:28:
                    37:b5:cb:5d:0a:f4:a9:28:2e:58:84:bf:bd:17:b8:
                    17:95:32:89:a0:8b:38:d0:90:a6:dc:4c:ca:d6:73:
                    ce:f7:69:b5:3c:1b:f9:ee:68:15:54:cb:e1:5d:55:
                    d7:35:6d:cf:8f:cc:a7:54:66:53:be:02:bb:a8:bf:
                    03:37:c9:dd:ee:58:2d:3b:bb:05:39:51:72:81:2d:
                    d4:2e:bc:d3:cd:d2:05:1f:07:27:bf:17:90:bb:e5:
                    a9:c5:a2:37:66:3d:e3:ab:16:07:2c:1d:ff:de:81:
                    9c:53:fa:9a:41:ca:36:3d:a4:fd:f3:d2:2d:d7:34:
                    ea:a6:7f
                Exponent: 65537 (0x10001)
        X509v3 extensions:
            X509v3 Basic Constraints: 
                CA:FALSE
            Netscape Comment: 
                Easy-RSA Generated Certificate
            X509v3 Subject Key Identifier: 
                76:A2:53:4D:F4:7E:0D:86:F1:95:4B:1C:66:68:B3:EB:9E:71:87:2E
            X509v3 Authority Key Identifier: 
                keyid:12:CD:60:04:D2:A0:80:9E:70:ED:C6:99:B8:7B:2C:C6:52:FD:19:A1
                DirName:/C=US/ST=OH/L=Columbus/O=VikingVPN/OU=MyOrganizationalUnit/CN=VikingVPN CA/name=EasyRSA/emailAddress=me@myhost.mydomain
                serial:CF:35:85:EE:80:BF:2A:3E

            X509v3 Extended Key Usage: 
                TLS Web Client Authentication
            X509v3 Key Usage: 
                Digital Signature
    Signature Algorithm: md5WithRSAEncryption
         af:c1:7c:5e:d0:69:12:b2:8c:44:a8:96:4e:31:66:c3:21:42:
         4e:35:c3:d2:0b:97:af:01:fc:e9:2c:28:66:00:a8:7c:7f:b8:
         48:ef:b9:38:c6:ea:15:30:47:6b:42:94:d4:1a:70:b3:29:98:
         60:80:b2:36:44:67:12:15:66:d7:bd:12:e0:ea:e9:55:98:36:
         76:b3:e5:53:29:6f:1d:e0:6d:70:87:3e:08:b7:f9:05:7b:3b:
         9a:8d:fa:bd:bd:0d:f7:5d:b8:ca:8a:76:bb:cf:71:ff:db:a4:
         c8:1b:f3:cb:a1:db:11:0b:87:8d:9f:45:f3:2f:39:2b:46:c6:
         15:8b:6e:b7:13:e7:e2:1e:09:4a:c7:4a:2d:44:4e:9c:61:97:
         a1:bc:56:e9:10:d1:0a:aa:61:75:43:7e:42:7f:ff:fc:3b:a0:
         95:53:53:df:84:5f:b7:d0:9b:39:87:07:7b:63:9e:97:5f:87:
         cb:76:c3:0b:1c:f4:88:8a:db:c7:0c:18:44:c9:ba:73:df:06:
         42:47:b3:66:ee:5a:32:4f:a3:c9:e4:b8:19:3f:2d:78:aa:d4:
         ea:cd:1c:ae:1d:e8:a5:7f:42:f7:1d:dd:b6:b4:05:5b:83:b0:
         be:7a:b7:8f:62:a7:6a:43:16:4a:17:27:6d:d9:c1:21:8f:b1:
         24:98:23:ea:54:ba:3e:d4:03:56:2e:54:7a:4c:16:18:bb:11:
         f3:2f:51:40:93:03:9a:35:3d:66:2d:3c:ce:18:c0:2d:55:ce:
         29:f5:97:4d:ac:54:b2:d7:18:04:de:d5:2b:0e:45:19:a3:22:
         6f:70:08:a7:f0:2d:3e:71:ba:ec:22:f7:58:08:36:30:4a:e1:
         17:18:42:e3:a9:5b:fd:38:df:ba:dc:18:fa:c1:89:6f:d5:03:
         a6:e2:2f:74:38:02:3c:72:2a:7d:8d:2b:33:d0:ca:1b:d9:98:
         5e:99:29:2d:17:3d:d6:48:60:3a:36:bd:7a:16:95:97:bb:50:
         16:08:34:54:5c:dd:51:36:5f:14:4c:c3:47:1d:a9:26:c0:77:
         15:73:1c:4c:dd:47:b9:38:3e:b2:e4:88:35:15:16:39:1d:af:
         2e:17:64:2c:1e:5f:60:8b:77:76:25:d4:98:ff:fc:bd:02:47:
         e5:24:44:2e:0d:fc:34:d8:1e:7d:2f:ed:bb:df:88:82:bd:1e:
         aa:35:11:5f:91:bc:a9:b8:80:d9:a8:28:fd:77:18:26:85:39:
         5b:45:be:f9:67:66:e4:ea:4f:3c:d5:d3:3c:da:35:e4:c2:91:
         41:55:57:75:b9:78:4d:97:0b:97:0d:b4:c4:b3:db:21:a8:56:
         fb:e1:d5:06:1c:6c:7d:9a
-----BEGIN CERTIFICATE-----
MIIGrTCCBJWgAwIBAgICDoowDQYJKoZIhvcNAQEEBQAwgawxCzAJBgNVBAYTAlVT
MQswCQYDVQQIEwJPSDERMA8GA1UEBxMIQ29sdW1idXMxEjAQBgNVBAoTCVZpa2lu
Z1ZQTjEdMBsGA1UECxMUTXlPcmdhbml6YXRpb25hbFVuaXQxFTATBgNVBAMTDFZp
a2luZ1ZQTiBDQTEQMA4GA1UEKRMHRWFzeVJTQTEhMB8GCSqGSIb3DQEJARYSbWVA
bXlob3N0Lm15ZG9tYWluMB4XDTE0MTIxNzIzNDMxNVoXDTI0MTIxNDIzNDMxNVow
HzEdMBsGA1UEAxMUQ2xpZW50MTI0N0NlcnQ2ZDIxNmIwggIiMA0GCSqGSIb3DQEB
AQUAA4ICDwAwggIKAoICAQCb1A+kdzh8n2iUXTnAUo4JJ7eZ2kPR1sQuTaHxBLQV
7hcGj7Ggt0Mcxkymx6vzyCzOwBDKSglJiBc11/kYTv44BvCN2Ofy5TLOZBVkzSSi
tFJQtntC6X8eSKvMmr6SrUViTUtfEGmf7dQtFAKu89epK+4vR+om+Zgi9CKyHGY0
CeWawo/FUaLRphpLD/qkFmxMrFLMeL9Fnj++ihlpY43wlepQ41JbzRsbMd+tg7HJ
i01yMcA02W6pxVkylge5Be9pFUX/gWE7qvwfjbPE01qZR927hQjZ2/XMKd6z2pbM
3OvZ6PZzk2FYnD27OITDxgXPUsepE7gm43z4r1Jd00cWVptzUs6CnizKkOiR0OZq
5ZJh1lwYM7pFgCCqqriydWYx+zj7Yn3SVWk5mdGSHzbUCx0WSkE6ZWBz4R+1eRPe
dOwTYNNiP+027JeZwqkSMsaVfK7SqsoPcSc3/3z7OD0iJq2tyeV9SLLFFKW7dm/B
zy511CAfmNVJORAHJBy8Y8+rpewPKDe1y10K9KkoLliEv70XuBeVMomgizjQkKbc
TMrWc873abU8G/nuaBVUy+FdVdc1bc+PzKdUZlO+AruovwM3yd3uWC07uwU5UXKB
LdQuvNPN0gUfBye/F5C75anFojdmPeOrFgcsHf/egZxT+ppByjY9pP3z0i3XNOqm
fwIDAQABo4IBYzCCAV8wCQYDVR0TBAIwADAtBglghkgBhvhCAQ0EIBYeRWFzeS1S
U0EgR2VuZXJhdGVkIENlcnRpZmljYXRlMB0GA1UdDgQWBBR2olNN9H4NhvGVSxxm
aLPrnnGHLjCB4QYDVR0jBIHZMIHWgBQSzWAE0qCAnnDtxpm4eyzGUv0ZoaGBsqSB
rzCBrDELMAkGA1UEBhMCVVMxCzAJBgNVBAgTAk9IMREwDwYDVQQHEwhDb2x1bWJ1
czESMBAGA1UEChMJVmlraW5nVlBOMR0wGwYDVQQLExRNeU9yZ2FuaXphdGlvbmFs
VW5pdDEVMBMGA1UEAxMMVmlraW5nVlBOIENBMRAwDgYDVQQpEwdFYXN5UlNBMSEw
HwYJKoZIhvcNAQkBFhJtZUBteWhvc3QubXlkb21haW6CCQDPNYXugL8qPjATBgNV
HSUEDDAKBggrBgEFBQcDAjALBgNVHQ8EBAMCB4AwDQYJKoZIhvcNAQEEBQADggIB
AK/BfF7QaRKyjESolk4xZsMhQk41w9ILl68B/OksKGYAqHx/uEjvuTjG6hUwR2tC
lNQacLMpmGCAsjZEZxIVZte9EuDq6VWYNnaz5VMpbx3gbXCHPgi3+QV7O5qN+r29
DfdduMqKdrvPcf/bpMgb88uh2xELh42fRfMvOStGxhWLbrcT5+IeCUrHSi1ETpxh
l6G8VukQ0QqqYXVDfkJ///w7oJVTU9+EX7fQmzmHB3tjnpdfh8t2wwsc9IiK28cM
GETJunPfBkJHs2buWjJPo8nkuBk/LXiq1OrNHK4d6KV/Qvcd3ba0BVuDsL56t49i
p2pDFkoXJ23ZwSGPsSSYI+pUuj7UA1YuVHpMFhi7EfMvUUCTA5o1PWYtPM4YwC1V
zin1l02sVLLXGATe1SsORRmjIm9wCKfwLT5xuuwi91gINjBK4RcYQuOpW/0437rc
GPrBiW/VA6biL3Q4AjxyKn2NKzPQyhvZmF6ZKS0XPdZIYDo2vXoWlZe7UBYINFRc
3VE2XxRMw0cdqSbAdxVzHEzdR7k4PrLkiDUVFjkdry4XZCweX2CLd3Yl1Jj//L0C
R+UkRC4N/DTYHn0v7bvfiIK9Hqo1EV+RvKm4gNmoKP13GCaFOVtFvvlnZuTqTzzV
0zzaNeTCkUFVV3W5eE2XC5cNtMSz2yGoVvvh1QYcbH2a
-----END CERTIFICATE-----
