Certificate:
    Data:
        Version: 3 (0x2)
        Serial Number: 3750 (0xea6)
    Signature Algorithm: md5WithRSAEncryption
        Issuer: C=US, ST=OH, L=Columbus, O=VikingVPN, OU=MyOrganizationalUnit, CN=VikingVPN CA/name=EasyRSA/emailAddress=me@myhost.mydomain
        Validity
            Not Before: Dec 21 08:33:30 2014 GMT
            Not After : Dec 18 08:33:30 2024 GMT
        Subject: CN=Client1288Cert65c924
        Subject Public Key Info:
            Public Key Algorithm: rsaEncryption
                Public-Key: (4096 bit)
                Modulus:
                    00:c6:3c:46:6e:24:a7:f1:d2:f5:04:fd:18:0f:2e:
                    76:42:63:cd:0f:6b:12:9c:da:7b:a6:70:8f:a0:9e:
                    e5:75:11:e0:85:d3:95:bc:cc:f5:fb:6c:a3:24:d9:
                    e7:3c:60:d5:eb:0e:bb:05:77:3a:9c:82:b1:41:65:
                    c8:51:a2:8f:67:aa:b7:a7:af:f7:d1:a0:82:41:05:
                    ab:8c:65:65:17:40:c4:63:42:b5:74:86:8d:9f:7b:
                    24:22:ba:3f:a4:a8:dc:1f:91:03:03:f9:5c:ec:05:
                    b6:c9:88:aa:63:2f:fd:4c:be:af:68:63:36:90:65:
                    28:82:e4:50:77:c4:21:21:c8:ed:b4:8f:7c:33:bc:
                    cb:6d:11:7a:7f:20:ce:16:32:a8:8a:dd:69:7e:7c:
                    38:37:0d:ac:d5:f5:95:5c:da:4e:fc:60:bb:98:ef:
                    d3:d7:13:c9:e2:c7:e8:b5:f5:37:dc:51:34:63:16:
                    1f:b7:03:a2:15:29:3d:b7:26:db:f7:f6:31:c6:4f:
                    63:d6:ec:3e:6d:d9:50:8a:e3:e6:7a:ce:32:52:c9:
                    ed:84:6c:0a:5e:f4:e8:4d:22:db:fc:9d:72:f2:01:
                    dc:59:df:f1:a1:b4:77:97:f1:c6:ae:18:4a:14:95:
                    4a:72:70:b2:3b:87:42:bd:af:0a:fd:31:d2:c9:b4:
                    5f:35:a5:8f:8b:6f:3f:7a:18:da:9b:d6:c7:2f:9c:
                    56:10:d8:3a:bb:87:02:aa:2a:7e:e3:9c:3f:32:d4:
                    d4:81:d8:d4:17:04:b3:68:5c:00:6a:74:97:5c:62:
                    56:20:57:1e:8c:d8:9e:81:44:fb:26:25:d3:30:2f:
                    36:ca:5a:f7:d0:71:70:86:ef:bc:b0:78:ce:f7:9d:
                    d6:c1:a9:7d:9c:6b:5a:b5:dc:25:8d:2b:fb:3b:53:
                    75:17:60:6b:b7:e9:44:88:62:67:51:de:9d:32:aa:
                    f1:6b:86:05:ee:f4:55:da:fb:fd:a5:45:af:71:b1:
                    23:12:6d:ab:f8:ae:a5:92:15:9b:74:de:a2:b4:01:
                    9a:ab:08:3d:f8:32:0e:29:04:7a:3f:9a:66:c5:19:
                    07:0d:9b:85:d5:89:89:6a:e3:0c:d3:83:f7:fa:88:
                    07:6a:1e:f0:27:f0:a3:f1:38:1d:ee:b5:e0:67:8a:
                    40:d3:d8:c7:41:79:fa:4a:18:ed:dd:85:9a:62:7b:
                    0f:9e:43:85:57:f0:a8:d5:57:69:04:51:de:0d:08:
                    6b:37:dd:36:18:4c:e5:9a:6f:0a:41:a9:e1:5e:98:
                    56:2c:12:df:8f:be:ab:7c:8d:45:53:f7:89:6e:78:
                    90:f0:78:dc:cc:5f:9b:a1:54:8e:ea:e3:31:50:47:
                    7c:c7:17
                Exponent: 65537 (0x10001)
        X509v3 extensions:
            X509v3 Basic Constraints: 
                CA:FALSE
            Netscape Comment: 
                Easy-RSA Generated Certificate
            X509v3 Subject Key Identifier: 
                90:AE:10:A8:6E:EA:12:4E:D7:8C:60:8C:AF:42:EB:F5:E8:81:5B:09
            X509v3 Authority Key Identifier: 
                keyid:12:CD:60:04:D2:A0:80:9E:70:ED:C6:99:B8:7B:2C:C6:52:FD:19:A1
                DirName:/C=US/ST=OH/L=Columbus/O=VikingVPN/OU=MyOrganizationalUnit/CN=VikingVPN CA/name=EasyRSA/emailAddress=me@myhost.mydomain
                serial:CF:35:85:EE:80:BF:2A:3E

            X509v3 Extended Key Usage: 
                TLS Web Client Authentication
            X509v3 Key Usage: 
                Digital Signature
    Signature Algorithm: md5WithRSAEncryption
         6b:ea:2c:c5:29:18:f7:5d:52:36:d3:9f:d7:5a:70:48:96:ab:
         8d:6f:ec:4c:43:7e:9c:29:c5:6f:9b:e6:15:94:db:07:c1:34:
         ae:78:8f:cb:9f:72:ef:4d:b7:4c:94:c9:a2:da:3d:17:5e:bd:
         92:30:02:5e:46:6e:37:a9:be:67:52:9e:8d:55:3f:61:87:6d:
         2e:ac:27:50:f0:76:50:7b:0f:2a:33:d9:10:80:e2:93:6a:a4:
         48:5a:72:5c:1c:65:30:e8:b1:56:2d:41:1c:3c:5f:9f:ba:91:
         95:07:37:4b:8c:0f:5e:82:cf:f4:9b:fc:d2:6b:18:c0:6d:82:
         11:d8:56:c8:3d:fd:d6:44:8a:90:3f:65:46:29:7c:18:14:4d:
         46:07:52:c4:3e:91:b1:0c:6d:ee:ad:c5:bd:1d:6a:23:93:2f:
         4d:89:48:3d:01:66:51:b1:30:56:8f:df:4d:63:58:55:fe:84:
         b7:a8:38:ba:3d:04:c9:dc:79:bd:8f:a2:ab:15:6c:80:e6:b9:
         a7:b6:9a:fb:d8:4e:9b:89:8d:8f:a4:c9:cd:e0:82:45:2e:9a:
         25:c7:07:eb:17:82:68:32:53:c7:07:6c:b7:0a:a1:a6:89:61:
         d9:6a:46:b6:89:12:d7:20:65:2b:96:8e:ae:8c:a9:df:6d:ed:
         e9:25:63:8f:51:7b:25:d1:e3:8d:7f:d5:12:15:d1:fd:d8:1c:
         15:f2:18:32:13:4c:5c:9a:64:72:85:fb:58:a1:f2:aa:f5:98:
         76:5e:5d:dc:f3:24:f2:fb:3f:d1:d4:15:72:6a:c1:06:47:fd:
         ae:1f:22:e9:7d:3b:41:93:9a:2f:ba:be:16:6a:dd:94:36:d2:
         76:cf:41:ee:e7:16:56:47:3e:5d:52:5c:bc:d9:03:a2:92:51:
         68:29:db:9a:0d:c5:a7:c1:4b:74:54:c1:7c:6e:ab:59:51:67:
         0e:f8:1b:3d:5b:8b:a6:06:9a:df:a3:76:49:fc:a6:f2:9c:03:
         d8:f9:8f:b1:5a:8b:9b:4c:e5:2a:66:13:84:42:71:91:1b:20:
         1b:74:9b:53:da:c8:b2:7d:0d:ae:51:7b:e8:e2:07:02:6f:1d:
         be:e0:b6:87:52:92:84:38:a0:aa:98:5e:09:e8:57:02:f5:24:
         dd:53:36:b4:b9:44:30:0c:2f:3c:30:f2:b7:6e:68:7c:64:f4:
         d2:2c:8b:46:c2:d6:eb:aa:97:aa:8a:d1:da:ba:1e:48:b7:26:
         38:ff:01:fb:96:0e:cc:cf:41:d1:8f:10:d4:bb:90:bf:46:67:
         11:bd:04:85:22:03:ee:ad:fc:99:4a:2c:58:91:04:df:17:da:
         dc:5d:a1:5a:5c:65:9c:42
-----BEGIN CERTIFICATE-----
MIIGrTCCBJWgAwIBAgICDqYwDQYJKoZIhvcNAQEEBQAwgawxCzAJBgNVBAYTAlVT
MQswCQYDVQQIEwJPSDERMA8GA1UEBxMIQ29sdW1idXMxEjAQBgNVBAoTCVZpa2lu
Z1ZQTjEdMBsGA1UECxMUTXlPcmdhbml6YXRpb25hbFVuaXQxFTATBgNVBAMTDFZp
a2luZ1ZQTiBDQTEQMA4GA1UEKRMHRWFzeVJTQTEhMB8GCSqGSIb3DQEJARYSbWVA
bXlob3N0Lm15ZG9tYWluMB4XDTE0MTIyMTA4MzMzMFoXDTI0MTIxODA4MzMzMFow
HzEdMBsGA1UEAxMUQ2xpZW50MTI4OENlcnQ2NWM5MjQwggIiMA0GCSqGSIb3DQEB
AQUAA4ICDwAwggIKAoICAQDGPEZuJKfx0vUE/RgPLnZCY80PaxKc2numcI+gnuV1
EeCF05W8zPX7bKMk2ec8YNXrDrsFdzqcgrFBZchRoo9nqrenr/fRoIJBBauMZWUX
QMRjQrV0ho2feyQiuj+kqNwfkQMD+VzsBbbJiKpjL/1Mvq9oYzaQZSiC5FB3xCEh
yO20j3wzvMttEXp/IM4WMqiK3Wl+fDg3DazV9ZVc2k78YLuY79PXE8nix+i19Tfc
UTRjFh+3A6IVKT23Jtv39jHGT2PW7D5t2VCK4+Z6zjJSye2EbApe9OhNItv8nXLy
AdxZ3/GhtHeX8cauGEoUlUpycLI7h0K9rwr9MdLJtF81pY+Lbz96GNqb1scvnFYQ
2Dq7hwKqKn7jnD8y1NSB2NQXBLNoXABqdJdcYlYgVx6M2J6BRPsmJdMwLzbKWvfQ
cXCG77yweM73ndbBqX2ca1q13CWNK/s7U3UXYGu36USIYmdR3p0yqvFrhgXu9FXa
+/2lRa9xsSMSbav4rqWSFZt03qK0AZqrCD34Mg4pBHo/mmbFGQcNm4XViYlq4wzT
g/f6iAdqHvAn8KPxOB3uteBnikDT2MdBefpKGO3dhZpiew+eQ4VX8KjVV2kEUd4N
CGs33TYYTOWabwpBqeFemFYsEt+Pvqt8jUVT94lueJDweNzMX5uhVI7q4zFQR3zH
FwIDAQABo4IBYzCCAV8wCQYDVR0TBAIwADAtBglghkgBhvhCAQ0EIBYeRWFzeS1S
U0EgR2VuZXJhdGVkIENlcnRpZmljYXRlMB0GA1UdDgQWBBSQrhCobuoSTteMYIyv
Quv16IFbCTCB4QYDVR0jBIHZMIHWgBQSzWAE0qCAnnDtxpm4eyzGUv0ZoaGBsqSB
rzCBrDELMAkGA1UEBhMCVVMxCzAJBgNVBAgTAk9IMREwDwYDVQQHEwhDb2x1bWJ1
czESMBAGA1UEChMJVmlraW5nVlBOMR0wGwYDVQQLExRNeU9yZ2FuaXphdGlvbmFs
VW5pdDEVMBMGA1UEAxMMVmlraW5nVlBOIENBMRAwDgYDVQQpEwdFYXN5UlNBMSEw
HwYJKoZIhvcNAQkBFhJtZUBteWhvc3QubXlkb21haW6CCQDPNYXugL8qPjATBgNV
HSUEDDAKBggrBgEFBQcDAjALBgNVHQ8EBAMCB4AwDQYJKoZIhvcNAQEEBQADggIB
AGvqLMUpGPddUjbTn9dacEiWq41v7ExDfpwpxW+b5hWU2wfBNK54j8ufcu9Nt0yU
yaLaPRdevZIwAl5GbjepvmdSno1VP2GHbS6sJ1DwdlB7Dyoz2RCA4pNqpEhaclwc
ZTDosVYtQRw8X5+6kZUHN0uMD16Cz/Sb/NJrGMBtghHYVsg9/dZEipA/ZUYpfBgU
TUYHUsQ+kbEMbe6txb0daiOTL02JSD0BZlGxMFaP301jWFX+hLeoOLo9BMnceb2P
oqsVbIDmuae2mvvYTpuJjY+kyc3ggkUumiXHB+sXgmgyU8cHbLcKoaaJYdlqRraJ
EtcgZSuWjq6Mqd9t7eklY49ReyXR441/1RIV0f3YHBXyGDITTFyaZHKF+1ih8qr1
mHZeXdzzJPL7P9HUFXJqwQZH/a4fIul9O0GTmi+6vhZq3ZQ20nbPQe7nFlZHPl1S
XLzZA6KSUWgp25oNxafBS3RUwXxuq1lRZw74Gz1bi6YGmt+jdkn8pvKcA9j5j7Fa
i5tM5SpmE4RCcZEbIBt0m1PayLJ9Da5Re+jiBwJvHb7gtodSkoQ4oKqYXgnoVwL1
JN1TNrS5RDAMLzww8rduaHxk9NIsi0bC1uuql6qK0dq6Hki3Jjj/AfuWDszPQdGP
ENS7kL9GZxG9BIUiA+6t/JlKLFiRBN8X2txdoVpcZZxC
-----END CERTIFICATE-----
