Certificate:
    Data:
        Version: 3 (0x2)
        Serial Number: 3753 (0xea9)
    Signature Algorithm: md5WithRSAEncryption
        Issuer: C=US, ST=OH, L=Columbus, O=VikingVPN, OU=MyOrganizationalUnit, CN=VikingVPN CA/name=EasyRSA/emailAddress=me@myhost.mydomain
        Validity
            Not Before: Dec 21 15:56:08 2014 GMT
            Not After : Dec 18 15:56:08 2024 GMT
        Subject: CN=Client1286Cert5236b5
        Subject Public Key Info:
            Public Key Algorithm: rsaEncryption
                Public-Key: (4096 bit)
                Modulus:
                    00:a8:28:8b:bb:5e:29:9a:94:85:2d:de:2e:61:55:
                    13:8c:e7:96:12:ba:68:c1:eb:33:3a:7d:d3:2c:11:
                    a2:47:77:4a:ba:fb:02:b7:7a:eb:81:2b:08:79:3f:
                    66:2a:f6:00:9d:72:f4:ae:ba:1c:86:a7:9d:40:93:
                    66:93:2d:3d:cb:ac:cf:ab:44:17:14:0b:86:97:29:
                    72:ae:4d:a5:cb:24:df:dd:22:99:4c:33:b1:d4:b5:
                    4f:fd:bc:83:77:88:57:ec:37:09:46:bd:37:23:83:
                    d6:0c:50:28:c7:fb:1d:70:f6:6c:09:01:0b:bb:1d:
                    01:3e:70:0c:76:3a:66:74:f9:0b:75:7a:60:00:63:
                    bd:9e:07:1a:a0:54:9b:81:f7:63:44:03:34:05:f1:
                    48:52:0e:ee:63:74:fb:39:e3:0c:eb:2a:fd:9c:57:
                    58:c8:91:7f:5b:e5:6e:64:e3:09:ec:dc:00:57:d9:
                    a0:ec:f6:54:37:21:4f:30:10:9a:c3:01:11:a2:99:
                    a0:e4:d6:7b:ab:8c:ca:48:c9:85:d0:56:11:24:33:
                    d9:fe:ef:fa:82:cc:11:00:d7:85:97:43:02:7d:45:
                    42:ed:01:33:b6:68:cf:32:86:75:3c:58:73:36:52:
                    c1:a2:95:e8:97:c5:25:6c:03:e2:da:03:be:eb:f6:
                    fe:52:af:34:90:c9:08:df:eb:72:ee:a2:1e:e8:e1:
                    eb:7e:6a:d9:69:3a:7e:86:02:95:27:10:05:96:a7:
                    6b:96:d7:c7:c3:6e:d8:a2:05:08:6d:cd:50:75:48:
                    27:ee:03:3f:13:49:42:01:20:f4:51:c3:d1:c8:59:
                    63:71:b7:a6:ab:62:d8:a2:d1:5d:89:6d:10:ff:3f:
                    fc:4a:fa:e2:e0:9a:09:8d:e8:a5:c6:6c:52:52:ec:
                    68:ef:61:15:4d:18:e7:35:4c:f3:64:f1:d3:6b:00:
                    4d:08:36:63:25:2c:34:2b:69:ac:ca:a0:64:2b:13:
                    47:e8:63:eb:4b:31:5b:b2:2b:af:db:dd:aa:78:7c:
                    67:b1:c6:03:ac:20:87:95:52:73:47:48:97:1c:10:
                    0f:48:96:9b:67:c7:42:24:d4:82:33:b3:f4:b2:48:
                    1a:59:65:71:d9:f6:59:02:68:b3:44:ff:e4:c1:6e:
                    36:c5:6d:6d:11:b1:55:93:df:dc:f9:49:e1:2e:fd:
                    8c:a0:28:3e:3c:9c:fc:85:e9:12:40:81:ce:da:a4:
                    78:1a:48:35:fa:6b:c3:c4:0b:cc:31:f9:87:77:6d:
                    a9:0b:d7:06:5a:ba:d3:52:ea:87:6c:6a:77:69:93:
                    35:72:eb:a6:5b:69:ee:b8:86:4e:bb:5e:e0:6f:1a:
                    a0:32:b7
                Exponent: 65537 (0x10001)
        X509v3 extensions:
            X509v3 Basic Constraints: 
                CA:FALSE
            Netscape Comment: 
                Easy-RSA Generated Certificate
            X509v3 Subject Key Identifier: 
                F1:47:93:3A:01:5C:82:80:BD:E9:1E:EE:9B:8D:B0:F1:EB:D0:1E:84
            X509v3 Authority Key Identifier: 
                keyid:12:CD:60:04:D2:A0:80:9E:70:ED:C6:99:B8:7B:2C:C6:52:FD:19:A1
                DirName:/C=US/ST=OH/L=Columbus/O=VikingVPN/OU=MyOrganizationalUnit/CN=VikingVPN CA/name=EasyRSA/emailAddress=me@myhost.mydomain
                serial:CF:35:85:EE:80:BF:2A:3E

            X509v3 Extended Key Usage: 
                TLS Web Client Authentication
            X509v3 Key Usage: 
                Digital Signature
    Signature Algorithm: md5WithRSAEncryption
         3e:52:96:7d:87:8b:50:ef:07:64:e1:9e:f9:de:0e:d2:c0:83:
         a9:4d:64:59:b3:e8:60:54:72:df:61:96:94:19:c2:e4:90:15:
         93:48:6b:eb:2b:df:c6:3b:14:b8:ce:2d:56:66:a9:22:b7:9c:
         b5:e7:c7:61:fd:9d:04:5f:4b:58:56:16:05:a4:20:0c:99:1a:
         de:4e:a8:93:cd:9d:22:78:c2:b7:69:db:79:a7:64:b2:2b:14:
         e6:8f:d9:2b:15:80:c0:44:8a:d3:8d:3c:e2:b4:83:db:34:5b:
         95:de:4c:cd:39:a7:9c:cb:65:23:e1:8c:22:44:ac:1a:f3:b4:
         b8:01:e9:e0:4e:68:e0:25:f2:53:73:cd:2c:38:65:92:33:d0:
         c9:a8:3e:28:42:f0:d3:29:7a:6c:6b:f1:9a:8a:5a:e0:d1:03:
         e0:0c:00:a0:96:04:44:9c:af:77:6c:ab:f1:6c:37:5f:20:fc:
         63:28:5d:35:13:21:82:cf:a5:c8:fe:af:97:37:e5:f2:86:b1:
         94:d8:58:93:86:af:ae:20:9d:60:c5:77:a4:47:91:41:33:f1:
         6a:c3:22:48:72:14:1c:e1:db:54:da:1a:30:95:ec:94:56:2e:
         95:94:ff:b5:64:51:00:30:1c:00:09:1a:ac:27:a6:c1:b2:70:
         29:61:a5:77:27:d1:9b:44:71:d5:96:ee:1c:53:42:51:02:0d:
         c2:6d:18:74:30:81:5d:ac:8f:21:33:63:06:2d:26:4d:88:5f:
         7a:1e:83:58:90:97:0d:85:7a:85:9a:dd:9a:3f:9c:9a:f8:89:
         c5:89:cb:86:25:80:aa:eb:ef:d1:d5:89:d7:2a:87:6b:f9:61:
         8e:c8:08:05:50:02:37:6a:58:74:10:da:fc:42:e1:f5:00:00:
         4b:b8:e0:c7:fe:1f:a1:c0:31:8a:c2:ef:98:9a:d8:a3:df:76:
         0c:a1:95:83:99:d7:f9:d0:95:f6:37:bd:5e:80:d4:af:a2:4d:
         71:f5:f0:be:36:69:ef:68:48:68:07:b6:cd:61:6b:6c:7c:f6:
         29:cd:f5:78:25:dc:d1:14:c9:c8:e7:ad:3e:94:94:45:99:f9:
         75:af:71:01:3a:d9:19:11:31:b8:ac:4a:9b:3a:43:18:e9:09:
         88:87:af:15:e2:4e:c0:7f:3b:9a:33:3d:2b:dd:e3:4f:41:b8:
         d2:e9:8f:c3:2b:45:00:e5:43:b1:d7:33:c4:37:02:94:d7:28:
         84:57:06:2f:12:b6:ca:e4:8e:fe:4d:2f:6f:df:ce:89:3d:91:
         6a:83:ac:b8:90:01:14:e1:21:98:42:9c:d8:65:df:fd:a7:58:
         41:c3:c3:2f:b2:ad:33:34
-----BEGIN CERTIFICATE-----
MIIGrTCCBJWgAwIBAgICDqkwDQYJKoZIhvcNAQEEBQAwgawxCzAJBgNVBAYTAlVT
MQswCQYDVQQIEwJPSDERMA8GA1UEBxMIQ29sdW1idXMxEjAQBgNVBAoTCVZpa2lu
Z1ZQTjEdMBsGA1UECxMUTXlPcmdhbml6YXRpb25hbFVuaXQxFTATBgNVBAMTDFZp
a2luZ1ZQTiBDQTEQMA4GA1UEKRMHRWFzeVJTQTEhMB8GCSqGSIb3DQEJARYSbWVA
bXlob3N0Lm15ZG9tYWluMB4XDTE0MTIyMTE1NTYwOFoXDTI0MTIxODE1NTYwOFow
HzEdMBsGA1UEAxMUQ2xpZW50MTI4NkNlcnQ1MjM2YjUwggIiMA0GCSqGSIb3DQEB
AQUAA4ICDwAwggIKAoICAQCoKIu7XimalIUt3i5hVROM55YSumjB6zM6fdMsEaJH
d0q6+wK3euuBKwh5P2Yq9gCdcvSuuhyGp51Ak2aTLT3LrM+rRBcUC4aXKXKuTaXL
JN/dIplMM7HUtU/9vIN3iFfsNwlGvTcjg9YMUCjH+x1w9mwJAQu7HQE+cAx2OmZ0
+Qt1emAAY72eBxqgVJuB92NEAzQF8UhSDu5jdPs54wzrKv2cV1jIkX9b5W5k4wns
3ABX2aDs9lQ3IU8wEJrDARGimaDk1nurjMpIyYXQVhEkM9n+7/qCzBEA14WXQwJ9
RULtATO2aM8yhnU8WHM2UsGileiXxSVsA+LaA77r9v5SrzSQyQjf63Luoh7o4et+
atlpOn6GApUnEAWWp2uW18fDbtiiBQhtzVB1SCfuAz8TSUIBIPRRw9HIWWNxt6ar
Ytii0V2JbRD/P/xK+uLgmgmN6KXGbFJS7GjvYRVNGOc1TPNk8dNrAE0INmMlLDQr
aazKoGQrE0foY+tLMVuyK6/b3ap4fGexxgOsIIeVUnNHSJccEA9Ilptnx0Ik1IIz
s/SySBpZZXHZ9lkCaLNE/+TBbjbFbW0RsVWT39z5SeEu/YygKD48nPyF6RJAgc7a
pHgaSDX6a8PEC8wx+Yd3bakL1wZautNS6odsandpkzVy66Zbae64hk67XuBvGqAy
twIDAQABo4IBYzCCAV8wCQYDVR0TBAIwADAtBglghkgBhvhCAQ0EIBYeRWFzeS1S
U0EgR2VuZXJhdGVkIENlcnRpZmljYXRlMB0GA1UdDgQWBBTxR5M6AVyCgL3pHu6b
jbDx69AehDCB4QYDVR0jBIHZMIHWgBQSzWAE0qCAnnDtxpm4eyzGUv0ZoaGBsqSB
rzCBrDELMAkGA1UEBhMCVVMxCzAJBgNVBAgTAk9IMREwDwYDVQQHEwhDb2x1bWJ1
czESMBAGA1UEChMJVmlraW5nVlBOMR0wGwYDVQQLExRNeU9yZ2FuaXphdGlvbmFs
VW5pdDEVMBMGA1UEAxMMVmlraW5nVlBOIENBMRAwDgYDVQQpEwdFYXN5UlNBMSEw
HwYJKoZIhvcNAQkBFhJtZUBteWhvc3QubXlkb21haW6CCQDPNYXugL8qPjATBgNV
HSUEDDAKBggrBgEFBQcDAjALBgNVHQ8EBAMCB4AwDQYJKoZIhvcNAQEEBQADggIB
AD5Sln2Hi1DvB2ThnvneDtLAg6lNZFmz6GBUct9hlpQZwuSQFZNIa+sr38Y7FLjO
LVZmqSK3nLXnx2H9nQRfS1hWFgWkIAyZGt5OqJPNnSJ4wrdp23mnZLIrFOaP2SsV
gMBEitONPOK0g9s0W5XeTM05p5zLZSPhjCJErBrztLgB6eBOaOAl8lNzzSw4ZZIz
0MmoPihC8NMpemxr8ZqKWuDRA+AMAKCWBEScr3dsq/FsN18g/GMoXTUTIYLPpcj+
r5c35fKGsZTYWJOGr64gnWDFd6RHkUEz8WrDIkhyFBzh21TaGjCV7JRWLpWU/7Vk
UQAwHAAJGqwnpsGycClhpXcn0ZtEcdWW7hxTQlECDcJtGHQwgV2sjyEzYwYtJk2I
X3oeg1iQlw2FeoWa3Zo/nJr4icWJy4YlgKrr79HVidcqh2v5YY7ICAVQAjdqWHQQ
2vxC4fUAAEu44Mf+H6HAMYrC75ia2KPfdgyhlYOZ1/nQlfY3vV6A1K+iTXH18L42
ae9oSGgHts1ha2x89inN9Xgl3NEUycjnrT6UlEWZ+XWvcQE62RkRMbisSps6Qxjp
CYiHrxXiTsB/O5ozPSvd409BuNLpj8MrRQDlQ7HXM8Q3ApTXKIRXBi8Stsrkjv5N
L2/fzok9kWqDrLiQARThIZhCnNhl3/2nWEHDwy+yrTM0
-----END CERTIFICATE-----
