Certificate:
    Data:
        Version: 3 (0x2)
        Serial Number: 3764 (0xeb4)
    Signature Algorithm: md5WithRSAEncryption
        Issuer: C=US, ST=OH, L=Columbus, O=VikingVPN, OU=MyOrganizationalUnit, CN=VikingVPN CA/name=EasyRSA/emailAddress=me@myhost.mydomain
        Validity
            Not Before: Dec 22 23:32:26 2014 GMT
            Not After : Dec 19 23:32:26 2024 GMT
        Subject: CN=Client1292Certd10f2a
        Subject Public Key Info:
            Public Key Algorithm: rsaEncryption
                Public-Key: (4096 bit)
                Modulus:
                    00:c1:04:fb:e3:4c:7e:ab:04:e6:0e:dd:9f:d3:c5:
                    60:31:78:80:3b:2e:bf:cc:3a:05:9a:5f:0a:77:29:
                    28:10:e0:c6:5a:e4:55:c0:7d:e1:9b:f5:6c:1b:5a:
                    13:55:e7:3f:82:0d:b6:07:23:82:63:5f:1e:87:fe:
                    38:63:fc:be:18:ba:76:7f:1b:d1:97:03:c6:eb:93:
                    31:2f:a9:75:43:68:d7:68:09:36:51:be:d7:7a:cf:
                    48:ff:55:b7:2b:fa:ce:0e:9c:9c:59:8f:ae:10:6c:
                    2b:5a:09:a0:61:61:f2:fb:a3:d8:44:30:b8:ef:8f:
                    1c:37:99:19:6c:7a:fb:8c:e2:b5:36:1a:25:0b:77:
                    98:e7:4e:9b:0f:1d:e4:59:5b:97:a7:86:bd:89:1d:
                    55:05:97:f1:c0:00:85:e4:ec:98:8d:31:d8:6a:dd:
                    10:e2:5f:aa:1a:46:39:22:75:c2:46:78:c2:7f:f4:
                    23:23:83:94:59:e9:b5:51:00:0c:68:8a:ec:cd:0a:
                    03:fe:05:c0:8c:48:a2:36:15:b2:5b:81:2d:4d:9a:
                    e1:c9:3d:5c:9e:2e:90:a3:e5:6a:1d:47:83:fa:ea:
                    41:d7:43:a9:6e:76:e7:4f:ed:8e:a7:70:0d:a4:00:
                    2f:50:a0:ed:e3:9e:9f:dd:d0:e7:2c:74:02:ff:32:
                    40:18:b4:54:b5:a9:6d:8e:e1:d0:3c:01:6a:47:e8:
                    9e:19:48:37:e9:8f:b5:b5:64:42:2e:9a:24:d2:cd:
                    4f:90:db:ad:c7:ba:38:48:31:7c:f0:a9:03:e2:33:
                    48:c8:a7:79:1e:ee:4c:fd:89:8f:5a:02:ef:a3:fa:
                    ca:8d:de:62:10:06:1f:04:14:48:3b:cc:72:1d:f1:
                    54:c3:d6:e4:a0:0e:51:af:79:4f:4c:fa:2e:8f:99:
                    7f:b1:f3:89:25:66:8f:bf:65:5d:e4:8f:84:cc:d0:
                    c9:16:96:92:e6:3e:fd:34:c7:4b:67:35:f2:8d:95:
                    10:7a:48:da:46:52:0b:d1:2a:37:6a:4c:57:0b:fc:
                    68:8f:66:e3:1d:2a:11:08:d8:e1:e8:93:63:5c:8f:
                    1b:41:87:0b:01:e9:6a:70:00:65:be:4f:35:b3:8f:
                    5d:0d:42:83:b2:aa:5d:7d:07:6f:f1:e1:af:4f:8a:
                    b9:a2:2d:58:39:ad:a1:9e:74:a1:89:83:9e:15:89:
                    e9:33:a2:03:2c:af:6b:73:5c:d8:39:d9:09:da:b0:
                    f7:ca:da:89:da:9f:ca:32:4c:6b:e2:08:16:34:6f:
                    20:b4:ea:ec:ad:29:34:59:41:3d:f1:03:e7:a1:69:
                    e1:b2:a6:ff:ee:11:7e:e2:98:88:99:7c:9f:a5:58:
                    33:f0:2f
                Exponent: 65537 (0x10001)
        X509v3 extensions:
            X509v3 Basic Constraints: 
                CA:FALSE
            Netscape Comment: 
                Easy-RSA Generated Certificate
            X509v3 Subject Key Identifier: 
                FB:9E:68:15:37:18:A4:B2:03:68:7E:D5:75:A6:CE:F4:EB:21:F4:9E
            X509v3 Authority Key Identifier: 
                keyid:12:CD:60:04:D2:A0:80:9E:70:ED:C6:99:B8:7B:2C:C6:52:FD:19:A1
                DirName:/C=US/ST=OH/L=Columbus/O=VikingVPN/OU=MyOrganizationalUnit/CN=VikingVPN CA/name=EasyRSA/emailAddress=me@myhost.mydomain
                serial:CF:35:85:EE:80:BF:2A:3E

            X509v3 Extended Key Usage: 
                TLS Web Client Authentication
            X509v3 Key Usage: 
                Digital Signature
    Signature Algorithm: md5WithRSAEncryption
         73:5d:b1:e8:79:e7:1d:40:17:0e:02:2b:97:12:a4:1b:a0:9b:
         b3:6f:bd:1e:54:26:49:d3:ca:d9:b6:d1:ca:db:fa:cb:1e:80:
         b3:e8:1a:7f:a3:e8:28:d5:ed:b8:13:78:83:d9:0f:09:17:cc:
         e6:b2:b1:c7:ed:db:87:5c:b1:18:89:55:d4:20:14:be:d9:85:
         0e:4d:e6:bc:e3:71:3e:7c:12:22:f9:b6:19:30:82:e9:82:58:
         1d:d9:36:cc:c0:4c:8b:9f:5b:42:a5:cc:95:d0:65:b9:3f:5b:
         bb:ce:7c:eb:c9:16:ef:06:6d:be:7c:70:f4:1d:46:0c:62:24:
         cd:f1:6d:96:1d:c0:89:1b:db:3a:76:27:24:4a:00:87:dd:a6:
         da:5e:f2:32:37:e7:3e:f3:d6:6c:4f:b2:6f:5d:6f:62:52:90:
         f9:20:bc:35:a4:1f:3d:0d:87:8a:cb:48:76:4f:cc:2d:d3:81:
         7b:ba:03:c2:8c:ad:67:8f:e8:81:ed:51:f3:67:0d:c9:4d:09:
         20:b9:55:89:69:8d:cd:28:4c:9b:b3:0c:52:07:b4:0a:66:34:
         10:2a:97:84:f7:6a:57:56:e2:35:f2:88:4e:92:81:1a:1f:97:
         98:3f:5c:9b:27:79:a3:72:8d:4a:ef:70:26:92:c7:ae:c0:a6:
         48:5a:90:1a:8c:63:39:99:b1:9b:41:c2:e6:f5:20:0a:e0:4f:
         03:24:4f:1f:3f:15:e8:f7:9f:08:33:b4:03:1d:df:0a:78:3c:
         a6:c7:f1:27:e8:6f:85:62:fb:07:77:fb:ce:5d:56:03:f9:de:
         e6:66:2e:22:7d:06:60:83:3c:a7:7d:e4:56:72:ef:21:df:da:
         6e:7c:b5:a7:23:ce:a7:16:d3:91:98:3c:79:13:8a:af:92:af:
         5b:3d:fd:f1:29:75:8c:f0:73:c9:8f:46:8f:0b:97:8c:ee:d6:
         79:e7:74:38:da:ce:ff:d2:5c:8c:33:4c:0f:72:0f:46:8a:7e:
         2f:e4:24:66:4f:d5:b4:68:42:33:a2:af:e3:df:28:84:69:b3:
         6d:86:8e:f2:28:ec:2e:f5:87:f6:08:51:4d:9e:1f:0e:7d:b5:
         0b:e8:d1:da:e9:31:0c:7c:bf:3d:53:9d:8e:cd:5d:3a:6b:29:
         3d:a6:73:e1:d8:47:a4:5b:67:04:52:08:9b:97:69:49:1a:4c:
         b8:e6:88:0d:0c:0c:7d:30:fe:ae:ec:45:38:75:e2:b2:50:13:
         bd:b2:ab:9b:1d:90:e0:95:02:89:1c:db:0e:be:eb:33:47:f6:
         f5:7e:96:4d:91:af:e4:a5:2a:9a:0a:ba:07:bf:44:02:d8:aa:
         1d:c9:e3:88:d1:b6:fa:50
-----BEGIN CERTIFICATE-----
MIIGrTCCBJWgAwIBAgICDrQwDQYJKoZIhvcNAQEEBQAwgawxCzAJBgNVBAYTAlVT
MQswCQYDVQQIEwJPSDERMA8GA1UEBxMIQ29sdW1idXMxEjAQBgNVBAoTCVZpa2lu
Z1ZQTjEdMBsGA1UECxMUTXlPcmdhbml6YXRpb25hbFVuaXQxFTATBgNVBAMTDFZp
a2luZ1ZQTiBDQTEQMA4GA1UEKRMHRWFzeVJTQTEhMB8GCSqGSIb3DQEJARYSbWVA
bXlob3N0Lm15ZG9tYWluMB4XDTE0MTIyMjIzMzIyNloXDTI0MTIxOTIzMzIyNlow
HzEdMBsGA1UEAxMUQ2xpZW50MTI5MkNlcnRkMTBmMmEwggIiMA0GCSqGSIb3DQEB
AQUAA4ICDwAwggIKAoICAQDBBPvjTH6rBOYO3Z/TxWAxeIA7Lr/MOgWaXwp3KSgQ
4MZa5FXAfeGb9WwbWhNV5z+CDbYHI4JjXx6H/jhj/L4YunZ/G9GXA8brkzEvqXVD
aNdoCTZRvtd6z0j/Vbcr+s4OnJxZj64QbCtaCaBhYfL7o9hEMLjvjxw3mRlsevuM
4rU2GiULd5jnTpsPHeRZW5enhr2JHVUFl/HAAIXk7JiNMdhq3RDiX6oaRjkidcJG
eMJ/9CMjg5RZ6bVRAAxoiuzNCgP+BcCMSKI2FbJbgS1NmuHJPVyeLpCj5WodR4P6
6kHXQ6lududP7Y6ncA2kAC9QoO3jnp/d0OcsdAL/MkAYtFS1qW2O4dA8AWpH6J4Z
SDfpj7W1ZEIumiTSzU+Q263HujhIMXzwqQPiM0jIp3ke7kz9iY9aAu+j+sqN3mIQ
Bh8EFEg7zHId8VTD1uSgDlGveU9M+i6PmX+x84klZo+/ZV3kj4TM0MkWlpLmPv00
x0tnNfKNlRB6SNpGUgvRKjdqTFcL/GiPZuMdKhEI2OHok2NcjxtBhwsB6WpwAGW+
TzWzj10NQoOyql19B2/x4a9PirmiLVg5raGedKGJg54ViekzogMsr2tzXNg52Qna
sPfK2onan8oyTGviCBY0byC06uytKTRZQT3xA+ehaeGypv/uEX7imIiZfJ+lWDPw
LwIDAQABo4IBYzCCAV8wCQYDVR0TBAIwADAtBglghkgBhvhCAQ0EIBYeRWFzeS1S
U0EgR2VuZXJhdGVkIENlcnRpZmljYXRlMB0GA1UdDgQWBBT7nmgVNxiksgNoftV1
ps706yH0njCB4QYDVR0jBIHZMIHWgBQSzWAE0qCAnnDtxpm4eyzGUv0ZoaGBsqSB
rzCBrDELMAkGA1UEBhMCVVMxCzAJBgNVBAgTAk9IMREwDwYDVQQHEwhDb2x1bWJ1
czESMBAGA1UEChMJVmlraW5nVlBOMR0wGwYDVQQLExRNeU9yZ2FuaXphdGlvbmFs
VW5pdDEVMBMGA1UEAxMMVmlraW5nVlBOIENBMRAwDgYDVQQpEwdFYXN5UlNBMSEw
HwYJKoZIhvcNAQkBFhJtZUBteWhvc3QubXlkb21haW6CCQDPNYXugL8qPjATBgNV
HSUEDDAKBggrBgEFBQcDAjALBgNVHQ8EBAMCB4AwDQYJKoZIhvcNAQEEBQADggIB
AHNdseh55x1AFw4CK5cSpBugm7NvvR5UJknTytm20crb+ssegLPoGn+j6CjV7bgT
eIPZDwkXzOayscft24dcsRiJVdQgFL7ZhQ5N5rzjcT58EiL5thkwgumCWB3ZNszA
TIufW0KlzJXQZbk/W7vOfOvJFu8Gbb58cPQdRgxiJM3xbZYdwIkb2zp2JyRKAIfd
ptpe8jI35z7z1mxPsm9db2JSkPkgvDWkHz0Nh4rLSHZPzC3TgXu6A8KMrWeP6IHt
UfNnDclNCSC5VYlpjc0oTJuzDFIHtApmNBAql4T3aldW4jXyiE6SgRofl5g/XJsn
eaNyjUrvcCaSx67ApkhakBqMYzmZsZtBwub1IArgTwMkTx8/Fej3nwgztAMd3wp4
PKbH8Sfob4Vi+wd3+85dVgP53uZmLiJ9BmCDPKd95FZy7yHf2m58tacjzqcW05GY
PHkTiq+Sr1s9/fEpdYzwc8mPRo8Ll4zu1nnndDjazv/SXIwzTA9yD0aKfi/kJGZP
1bRoQjOir+PfKIRps22GjvIo7C71h/YIUU2eHw59tQvo0drpMQx8vz1TnY7NXTpr
KT2mc+HYR6RbZwRSCJuXaUkaTLjmiA0MDH0w/q7sRTh14rJQE72yq5sdkOCVAokc
2w6+6zNH9vV+lk2Rr+SlKpoKuge/RALYqh3J44jRtvpQ
-----END CERTIFICATE-----
