Certificate:
    Data:
        Version: 3 (0x2)
        Serial Number: 3779 (0xec3)
    Signature Algorithm: md5WithRSAEncryption
        Issuer: C=US, ST=OH, L=Columbus, O=VikingVPN, OU=MyOrganizationalUnit, CN=VikingVPN CA/name=EasyRSA/emailAddress=me@myhost.mydomain
        Validity
            Not Before: Dec 26 08:22:29 2014 GMT
            Not After : Dec 23 08:22:29 2024 GMT
        Subject: CN=Client1299Cert96dc34
        Subject Public Key Info:
            Public Key Algorithm: rsaEncryption
                Public-Key: (4096 bit)
                Modulus:
                    00:9a:75:49:de:a3:01:bb:7a:e8:15:b6:ee:ce:d9:
                    d8:75:92:14:c6:44:73:60:11:0b:11:f8:f2:4f:dd:
                    d4:fa:69:8e:18:7a:52:d8:88:ff:3d:72:a6:e9:6b:
                    85:dd:9c:98:10:3f:31:aa:f8:f4:c6:df:37:47:ee:
                    e0:aa:2f:2a:64:02:a0:5a:22:e4:1a:b1:ac:ef:6f:
                    55:dd:89:c1:77:2a:40:31:43:b4:fb:47:ba:fd:ec:
                    41:90:ad:44:4f:b0:ea:65:ac:8a:ed:25:85:c3:ac:
                    7a:4e:48:f1:25:9b:1d:9c:1f:4b:f4:e9:54:47:e0:
                    a2:5d:57:d8:b7:7f:ee:28:2d:e1:63:90:b6:47:ce:
                    f2:6f:ed:2e:a5:de:20:3f:04:54:cf:ba:c9:c8:23:
                    4a:58:7e:cd:ba:21:94:49:74:69:53:92:89:01:f9:
                    e3:e5:3a:92:ee:0c:45:38:db:ba:e7:9f:74:2e:20:
                    26:77:e0:ca:59:a6:6e:cd:31:09:d7:75:16:78:85:
                    76:29:0c:57:e3:71:66:b5:c8:42:a1:ea:32:55:ee:
                    8e:26:4a:91:d4:8a:0c:a4:45:f0:83:0a:f7:1c:f1:
                    c5:4c:88:66:62:e7:3c:3d:5a:93:ca:cd:30:14:31:
                    f6:3e:f4:7f:4a:c8:4e:1b:3d:39:e7:37:59:dd:22:
                    e5:00:3e:67:de:4b:27:de:7b:99:df:ab:dc:4a:63:
                    66:2c:7e:c4:26:d4:f4:ab:be:d6:72:bd:0b:e0:b4:
                    18:3a:bd:e0:e9:6c:b1:90:5e:a9:0c:0d:12:5e:d5:
                    3a:30:c8:92:96:df:bf:89:79:96:7e:66:49:bd:6d:
                    79:d5:18:39:5f:4b:b5:99:f9:1e:28:2c:6b:76:f8:
                    fa:53:bf:dd:3e:4b:8b:bf:c1:af:7a:54:f0:b5:8b:
                    51:72:1e:e3:39:6b:77:c7:c1:2e:e4:15:90:9d:12:
                    91:eb:d2:f9:98:e0:0f:33:74:8e:be:6d:3f:cc:61:
                    c1:e3:98:d0:48:5f:36:67:eb:2b:e5:16:81:98:a8:
                    3d:5d:ec:b4:28:a9:e8:98:7c:fa:6d:6c:43:af:e1:
                    9e:81:1b:2f:9f:04:ef:56:8f:09:b1:22:13:e0:47:
                    1d:42:43:95:b2:00:96:a9:41:f0:64:bf:aa:7b:d0:
                    b3:c9:9a:60:36:4d:06:0a:52:84:ae:da:e2:5c:36:
                    33:2c:82:e6:38:86:f6:2e:35:7c:e2:d0:88:67:9a:
                    db:cd:c9:6f:f6:78:59:07:7c:20:14:00:6a:03:34:
                    43:f0:7d:a2:88:ef:c1:61:03:e9:6e:ed:b3:ce:61:
                    78:7e:86:f0:e1:51:17:f6:d1:b1:af:86:05:00:6e:
                    33:0b:c3
                Exponent: 65537 (0x10001)
        X509v3 extensions:
            X509v3 Basic Constraints: 
                CA:FALSE
            Netscape Comment: 
                Easy-RSA Generated Certificate
            X509v3 Subject Key Identifier: 
                6C:20:21:2B:B6:26:A4:03:28:10:6F:BA:1E:0D:07:C0:C8:47:18:97
            X509v3 Authority Key Identifier: 
                keyid:12:CD:60:04:D2:A0:80:9E:70:ED:C6:99:B8:7B:2C:C6:52:FD:19:A1
                DirName:/C=US/ST=OH/L=Columbus/O=VikingVPN/OU=MyOrganizationalUnit/CN=VikingVPN CA/name=EasyRSA/emailAddress=me@myhost.mydomain
                serial:CF:35:85:EE:80:BF:2A:3E

            X509v3 Extended Key Usage: 
                TLS Web Client Authentication
            X509v3 Key Usage: 
                Digital Signature
    Signature Algorithm: md5WithRSAEncryption
         e7:19:23:d4:40:11:77:3e:df:43:7d:9c:8b:62:22:55:a4:e5:
         f9:36:04:13:eb:65:f1:64:98:61:b8:5c:5d:db:4a:67:76:2b:
         40:63:88:28:a7:a8:e2:fc:35:6d:12:97:d5:13:53:20:46:71:
         4b:58:3d:f0:dd:46:02:60:8b:25:c3:66:a5:f7:5b:ad:90:32:
         3a:63:1f:a4:78:09:17:44:7d:98:3c:2e:08:cc:aa:af:5b:e4:
         6d:d3:ed:6e:fd:ac:4e:25:29:5e:df:5a:ef:cf:67:0f:1a:b7:
         43:6c:1b:ae:7a:18:1f:09:13:7f:d8:0c:ec:e6:3e:a9:55:55:
         d8:83:d5:69:c7:25:e5:a6:2d:d9:07:8b:74:f6:a1:48:82:14:
         44:ed:2f:53:62:9b:01:10:58:de:a4:f0:e3:91:ce:e4:c4:78:
         be:3a:2b:11:d1:78:14:1e:08:87:3e:03:4e:7c:26:70:e6:a9:
         5a:df:f4:9e:fd:44:dd:96:fd:90:7e:a3:e6:8b:a6:03:be:5e:
         71:35:e2:83:7e:54:4d:4e:53:9a:2d:3b:b1:d3:47:42:26:9d:
         66:34:bf:e7:44:a7:33:39:cf:01:cb:ec:93:2c:6f:04:11:f0:
         bb:f3:bf:1b:46:51:bf:a9:d5:1f:62:6d:4a:0d:26:95:c8:88:
         27:50:d5:c6:49:1c:fe:1c:19:5a:82:eb:ad:4c:92:b0:4a:57:
         7d:8b:49:13:19:20:8b:8f:19:82:2c:dc:87:7e:5f:32:ee:51:
         f9:16:98:81:cc:d7:37:8b:10:ae:bc:5d:af:93:80:41:c1:88:
         b3:45:d4:ad:52:94:76:49:bd:cc:8d:b4:de:1a:43:b7:04:4c:
         3f:57:fd:f0:fe:62:5f:f4:16:31:27:1c:3d:3d:18:e2:06:fc:
         e1:dd:38:37:f8:78:39:4e:77:4a:c3:13:75:61:51:26:cc:9f:
         ff:9d:46:a6:66:64:6c:7c:03:d0:55:da:2e:12:2f:c6:fa:b4:
         db:c7:ec:d0:18:a5:7b:e7:f5:c6:b3:e5:91:9a:31:0c:8a:dd:
         c4:fb:80:a8:cb:81:82:ca:c6:7c:cc:b4:80:1e:13:c0:b8:7b:
         e5:3d:56:18:6b:85:6d:dc:8f:97:87:90:ab:c1:09:11:ce:01:
         db:94:8e:c0:f5:f0:6f:d0:39:21:cd:bc:87:4e:5e:fd:57:43:
         c7:33:c8:23:cd:1c:98:5f:2f:a8:6d:f2:b1:ba:4f:fa:ec:33:
         1a:42:ab:ca:f9:76:84:f1:62:97:f4:96:c8:2f:b1:b5:94:82:
         18:2e:32:35:0f:63:72:55:4f:93:4f:e4:bd:18:7c:fc:d5:34:
         1d:ab:48:10:d4:8d:15:9e
-----BEGIN CERTIFICATE-----
MIIGrTCCBJWgAwIBAgICDsMwDQYJKoZIhvcNAQEEBQAwgawxCzAJBgNVBAYTAlVT
MQswCQYDVQQIEwJPSDERMA8GA1UEBxMIQ29sdW1idXMxEjAQBgNVBAoTCVZpa2lu
Z1ZQTjEdMBsGA1UECxMUTXlPcmdhbml6YXRpb25hbFVuaXQxFTATBgNVBAMTDFZp
a2luZ1ZQTiBDQTEQMA4GA1UEKRMHRWFzeVJTQTEhMB8GCSqGSIb3DQEJARYSbWVA
bXlob3N0Lm15ZG9tYWluMB4XDTE0MTIyNjA4MjIyOVoXDTI0MTIyMzA4MjIyOVow
HzEdMBsGA1UEAxMUQ2xpZW50MTI5OUNlcnQ5NmRjMzQwggIiMA0GCSqGSIb3DQEB
AQUAA4ICDwAwggIKAoICAQCadUneowG7eugVtu7O2dh1khTGRHNgEQsR+PJP3dT6
aY4YelLYiP89cqbpa4XdnJgQPzGq+PTG3zdH7uCqLypkAqBaIuQasazvb1XdicF3
KkAxQ7T7R7r97EGQrURPsOplrIrtJYXDrHpOSPElmx2cH0v06VRH4KJdV9i3f+4o
LeFjkLZHzvJv7S6l3iA/BFTPusnII0pYfs26IZRJdGlTkokB+ePlOpLuDEU427rn
n3QuICZ34MpZpm7NMQnXdRZ4hXYpDFfjcWa1yEKh6jJV7o4mSpHUigykRfCDCvcc
8cVMiGZi5zw9WpPKzTAUMfY+9H9KyE4bPTnnN1ndIuUAPmfeSyfee5nfq9xKY2Ys
fsQm1PSrvtZyvQvgtBg6veDpbLGQXqkMDRJe1TowyJKW37+JeZZ+Zkm9bXnVGDlf
S7WZ+R4oLGt2+PpTv90+S4u/wa96VPC1i1FyHuM5a3fHwS7kFZCdEpHr0vmY4A8z
dI6+bT/MYcHjmNBIXzZn6yvlFoGYqD1d7LQoqeiYfPptbEOv4Z6BGy+fBO9Wjwmx
IhPgRx1CQ5WyAJapQfBkv6p70LPJmmA2TQYKUoSu2uJcNjMsguY4hvYuNXzi0Ihn
mtvNyW/2eFkHfCAUAGoDNEPwfaKI78FhA+lu7bPOYXh+hvDhURf20bGvhgUAbjML
wwIDAQABo4IBYzCCAV8wCQYDVR0TBAIwADAtBglghkgBhvhCAQ0EIBYeRWFzeS1S
U0EgR2VuZXJhdGVkIENlcnRpZmljYXRlMB0GA1UdDgQWBBRsICErtiakAygQb7oe
DQfAyEcYlzCB4QYDVR0jBIHZMIHWgBQSzWAE0qCAnnDtxpm4eyzGUv0ZoaGBsqSB
rzCBrDELMAkGA1UEBhMCVVMxCzAJBgNVBAgTAk9IMREwDwYDVQQHEwhDb2x1bWJ1
czESMBAGA1UEChMJVmlraW5nVlBOMR0wGwYDVQQLExRNeU9yZ2FuaXphdGlvbmFs
VW5pdDEVMBMGA1UEAxMMVmlraW5nVlBOIENBMRAwDgYDVQQpEwdFYXN5UlNBMSEw
HwYJKoZIhvcNAQkBFhJtZUBteWhvc3QubXlkb21haW6CCQDPNYXugL8qPjATBgNV
HSUEDDAKBggrBgEFBQcDAjALBgNVHQ8EBAMCB4AwDQYJKoZIhvcNAQEEBQADggIB
AOcZI9RAEXc+30N9nItiIlWk5fk2BBPrZfFkmGG4XF3bSmd2K0BjiCinqOL8NW0S
l9UTUyBGcUtYPfDdRgJgiyXDZqX3W62QMjpjH6R4CRdEfZg8LgjMqq9b5G3T7W79
rE4lKV7fWu/PZw8at0NsG656GB8JE3/YDOzmPqlVVdiD1WnHJeWmLdkHi3T2oUiC
FETtL1NimwEQWN6k8OORzuTEeL46KxHReBQeCIc+A058JnDmqVrf9J79RN2W/ZB+
o+aLpgO+XnE14oN+VE1OU5otO7HTR0ImnWY0v+dEpzM5zwHL7JMsbwQR8LvzvxtG
Ub+p1R9ibUoNJpXIiCdQ1cZJHP4cGVqC661MkrBKV32LSRMZIIuPGYIs3Id+XzLu
UfkWmIHM1zeLEK68Xa+TgEHBiLNF1K1SlHZJvcyNtN4aQ7cETD9X/fD+Yl/0FjEn
HD09GOIG/OHdODf4eDlOd0rDE3VhUSbMn/+dRqZmZGx8A9BV2i4SL8b6tNvH7NAY
pXvn9caz5ZGaMQyK3cT7gKjLgYLKxnzMtIAeE8C4e+U9VhhrhW3cj5eHkKvBCRHO
AduUjsD18G/QOSHNvIdOXv1XQ8czyCPNHJhfL6ht8rG6T/rsMxpCq8r5doTxYpf0
lsgvsbWUghguMjUPY3JVT5NP5L0YfPzVNB2rSBDUjRWe
-----END CERTIFICATE-----
