Certificate:
    Data:
        Version: 3 (0x2)
        Serial Number: 3794 (0xed2)
    Signature Algorithm: md5WithRSAEncryption
        Issuer: C=US, ST=OH, L=Columbus, O=VikingVPN, OU=MyOrganizationalUnit, CN=VikingVPN CA/name=EasyRSA/emailAddress=me@myhost.mydomain
        Validity
            Not Before: Dec 26 17:53:15 2014 GMT
            Not After : Dec 23 17:53:15 2024 GMT
        Subject: CN=Client399Certbe660d
        Subject Public Key Info:
            Public Key Algorithm: rsaEncryption
                Public-Key: (4096 bit)
                Modulus:
                    00:b0:47:9a:52:4e:b7:44:23:ac:90:1a:c7:58:fc:
                    64:6d:d6:ab:e8:06:1c:26:bd:db:69:e6:c5:12:52:
                    57:ba:35:3f:03:e2:08:c3:ea:b9:82:9e:3e:a0:05:
                    c7:15:9c:e0:b3:00:86:77:88:90:0c:7b:26:04:a2:
                    7c:4b:bf:64:90:fa:a9:36:3e:55:5c:5c:4a:7b:87:
                    eb:c8:41:23:d4:fc:02:cd:10:86:03:b0:54:7f:a8:
                    05:e5:77:9e:be:ec:cd:93:d5:39:a3:63:ed:77:07:
                    47:fb:4d:8b:28:da:f1:95:08:db:1f:0e:5f:1b:50:
                    09:18:23:d9:88:61:51:59:ae:25:26:ca:b7:18:38:
                    c5:10:64:64:3f:b4:06:34:79:90:47:1d:a7:c8:60:
                    92:23:7f:c1:c9:6b:83:75:cf:e0:76:4c:90:8f:91:
                    25:b1:3d:fd:cc:16:07:33:38:8d:b1:ee:20:bc:31:
                    c2:57:7a:00:61:7d:2b:fd:0a:76:fc:be:ab:ff:1f:
                    7b:94:40:09:76:1d:91:71:6a:db:77:67:8b:e4:71:
                    7e:92:4c:d6:f5:03:56:3b:53:57:eb:ec:74:73:0c:
                    6c:d2:a9:b0:4a:d4:77:38:8f:a9:aa:86:69:07:3c:
                    5d:39:40:25:bb:96:df:c0:c8:95:88:2d:dc:c3:39:
                    30:da:54:d4:ab:73:0a:db:5b:9a:3c:77:42:49:7f:
                    91:50:db:b7:14:0d:63:eb:dc:1f:cb:ad:9f:85:05:
                    bc:90:82:f2:23:0a:48:e5:2a:85:f8:1d:78:09:fb:
                    86:87:33:83:6b:53:d1:69:2b:a2:97:02:29:8e:fb:
                    84:62:a1:39:a5:e3:36:f2:56:ef:55:a2:f1:fb:73:
                    3d:65:8c:be:72:ce:77:3f:52:fe:d5:05:31:97:01:
                    60:ba:23:42:85:d5:1e:1b:15:6b:44:dc:1f:90:28:
                    0e:31:3f:83:dd:54:51:84:d9:47:c2:7d:93:5f:1a:
                    44:4c:f7:07:48:c1:48:c9:e6:e8:1e:8e:c9:ea:09:
                    87:ee:09:80:f6:7c:59:ae:5a:dc:70:93:2a:8c:43:
                    86:c6:49:bd:1d:9e:ac:99:4a:23:62:0c:b5:e7:f4:
                    9b:d2:74:be:c7:25:01:66:7c:15:91:ba:ee:76:49:
                    7f:8f:94:72:4e:6d:3a:da:a5:b6:d4:a9:fa:6f:05:
                    ab:92:05:53:ab:f2:22:90:fa:14:2b:7d:7a:6f:c8:
                    4c:db:41:c1:ba:fc:51:54:6f:46:ab:1b:0e:8b:db:
                    2c:24:45:d9:e8:7b:e1:3b:14:86:eb:de:da:56:1a:
                    70:94:04:f6:18:f8:c1:cb:00:91:b7:4a:95:a1:29:
                    b2:31:af
                Exponent: 65537 (0x10001)
        X509v3 extensions:
            X509v3 Basic Constraints: 
                CA:FALSE
            Netscape Comment: 
                Easy-RSA Generated Certificate
            X509v3 Subject Key Identifier: 
                54:90:78:74:D3:73:AE:94:CB:03:1C:02:2F:20:41:08:3F:F9:09:A0
            X509v3 Authority Key Identifier: 
                keyid:12:CD:60:04:D2:A0:80:9E:70:ED:C6:99:B8:7B:2C:C6:52:FD:19:A1
                DirName:/C=US/ST=OH/L=Columbus/O=VikingVPN/OU=MyOrganizationalUnit/CN=VikingVPN CA/name=EasyRSA/emailAddress=me@myhost.mydomain
                serial:CF:35:85:EE:80:BF:2A:3E

            X509v3 Extended Key Usage: 
                TLS Web Client Authentication
            X509v3 Key Usage: 
                Digital Signature
    Signature Algorithm: md5WithRSAEncryption
         61:97:6a:84:a8:47:9c:f5:1e:61:d0:a7:ca:d6:1c:2a:d0:50:
         5e:38:9f:62:6d:15:b9:b3:80:cb:9b:ed:64:cc:3e:d5:3f:74:
         74:d7:c6:92:ec:71:ce:52:92:61:db:8b:68:87:e5:4f:34:3b:
         81:b0:f3:c2:9e:6f:2d:2c:f2:5d:51:c6:37:10:e5:37:66:f1:
         5b:5b:77:a7:4c:05:f7:4b:5d:6e:2c:53:e8:c0:3b:21:89:e4:
         bb:aa:7a:f5:f5:d1:d7:f7:40:42:38:38:dc:47:d4:fd:2b:64:
         b9:1a:35:e1:13:65:b0:53:27:55:0d:89:be:34:53:32:06:e3:
         dd:83:72:08:b5:4b:63:84:03:36:1e:3a:6b:39:12:d5:69:29:
         67:d4:4b:36:cf:76:c1:8f:8c:07:21:49:a0:94:de:58:46:42:
         2f:9c:8c:58:6d:c2:8b:bc:f8:9f:14:3b:0c:a0:7a:39:67:98:
         59:74:81:ed:39:ac:26:b3:23:18:05:20:2f:7c:53:30:33:5e:
         98:e8:b5:0f:7b:9d:de:f5:7a:3d:b1:96:0a:2c:6d:4d:06:a8:
         8b:cb:34:0f:34:0b:f2:6f:0b:f9:c0:30:dc:76:f4:0c:8b:99:
         e4:a6:0b:fe:64:15:8c:3e:7b:18:d3:90:34:60:72:30:17:fa:
         be:ed:b3:79:73:5c:2d:84:5b:9e:a4:ae:18:ed:9e:0e:e8:05:
         89:7a:5c:ba:f5:5a:c2:2f:02:1c:ca:92:10:aa:e2:1b:c0:fa:
         4a:85:e3:0e:ae:5c:f1:1e:44:95:85:20:f9:03:6e:59:29:dc:
         4e:74:09:77:88:4d:2b:8e:7e:9e:3a:62:1a:65:5f:c1:6b:1f:
         65:bb:85:86:0e:84:12:83:7a:6a:19:a2:a4:ff:6c:ae:fe:3a:
         a5:ca:bc:1d:ed:5f:ab:0a:9b:b7:78:83:d5:f2:c9:60:8e:59:
         55:5f:87:ec:f3:f3:75:ce:52:4f:de:15:0c:93:71:66:e8:0c:
         5b:de:e9:ad:ec:79:c6:a6:1c:49:2e:67:b4:cf:ed:bd:89:d1:
         55:19:33:28:09:28:dc:10:a4:dc:0a:37:2b:e3:fd:d8:55:0c:
         a4:02:c9:f6:1c:01:6f:55:f9:4c:a9:a7:98:86:18:cc:a5:04:
         de:1d:8b:eb:d3:36:b4:0a:59:d6:4f:d0:21:0d:c1:d4:28:5b:
         94:f2:b4:4b:e2:ab:d0:b4:b0:ee:b8:65:2e:cc:2a:c0:0a:a6:
         7a:05:0b:40:04:da:02:17:88:01:87:ba:69:0d:13:d7:fc:1e:
         38:ad:d7:cd:a9:0f:fc:6a:72:10:23:1d:10:43:d9:e2:e1:e0:
         d0:d2:c9:9a:2f:01:08:11
-----BEGIN CERTIFICATE-----
MIIGrDCCBJSgAwIBAgICDtIwDQYJKoZIhvcNAQEEBQAwgawxCzAJBgNVBAYTAlVT
MQswCQYDVQQIEwJPSDERMA8GA1UEBxMIQ29sdW1idXMxEjAQBgNVBAoTCVZpa2lu
Z1ZQTjEdMBsGA1UECxMUTXlPcmdhbml6YXRpb25hbFVuaXQxFTATBgNVBAMTDFZp
a2luZ1ZQTiBDQTEQMA4GA1UEKRMHRWFzeVJTQTEhMB8GCSqGSIb3DQEJARYSbWVA
bXlob3N0Lm15ZG9tYWluMB4XDTE0MTIyNjE3NTMxNVoXDTI0MTIyMzE3NTMxNVow
HjEcMBoGA1UEAxMTQ2xpZW50Mzk5Q2VydGJlNjYwZDCCAiIwDQYJKoZIhvcNAQEB
BQADggIPADCCAgoCggIBALBHmlJOt0QjrJAax1j8ZG3Wq+gGHCa922nmxRJSV7o1
PwPiCMPquYKePqAFxxWc4LMAhneIkAx7JgSifEu/ZJD6qTY+VVxcSnuH68hBI9T8
As0QhgOwVH+oBeV3nr7szZPVOaNj7XcHR/tNiyja8ZUI2x8OXxtQCRgj2YhhUVmu
JSbKtxg4xRBkZD+0BjR5kEcdp8hgkiN/wclrg3XP4HZMkI+RJbE9/cwWBzM4jbHu
ILwxwld6AGF9K/0Kdvy+q/8fe5RACXYdkXFq23dni+RxfpJM1vUDVjtTV+vsdHMM
bNKpsErUdziPqaqGaQc8XTlAJbuW38DIlYgt3MM5MNpU1KtzCttbmjx3Qkl/kVDb
txQNY+vcH8utn4UFvJCC8iMKSOUqhfgdeAn7hoczg2tT0WkropcCKY77hGKhOaXj
NvJW71Wi8ftzPWWMvnLOdz9S/tUFMZcBYLojQoXVHhsVa0TcH5AoDjE/g91UUYTZ
R8J9k18aREz3B0jBSMnm6B6OyeoJh+4JgPZ8Wa5a3HCTKoxDhsZJvR2erJlKI2IM
tef0m9J0vsclAWZ8FZG67nZJf4+Uck5tOtqlttSp+m8Fq5IFU6vyIpD6FCt9em/I
TNtBwbr8UVRvRqsbDovbLCRF2eh74TsUhuve2lYacJQE9hj4wcsAkbdKlaEpsjGv
AgMBAAGjggFjMIIBXzAJBgNVHRMEAjAAMC0GCWCGSAGG+EIBDQQgFh5FYXN5LVJT
QSBHZW5lcmF0ZWQgQ2VydGlmaWNhdGUwHQYDVR0OBBYEFFSQeHTTc66UywMcAi8g
QQg/+QmgMIHhBgNVHSMEgdkwgdaAFBLNYATSoICecO3Gmbh7LMZS/RmhoYGypIGv
MIGsMQswCQYDVQQGEwJVUzELMAkGA1UECBMCT0gxETAPBgNVBAcTCENvbHVtYnVz
MRIwEAYDVQQKEwlWaWtpbmdWUE4xHTAbBgNVBAsTFE15T3JnYW5pemF0aW9uYWxV
bml0MRUwEwYDVQQDEwxWaWtpbmdWUE4gQ0ExEDAOBgNVBCkTB0Vhc3lSU0ExITAf
BgkqhkiG9w0BCQEWEm1lQG15aG9zdC5teWRvbWFpboIJAM81he6Avyo+MBMGA1Ud
JQQMMAoGCCsGAQUFBwMCMAsGA1UdDwQEAwIHgDANBgkqhkiG9w0BAQQFAAOCAgEA
YZdqhKhHnPUeYdCnytYcKtBQXjifYm0VubOAy5vtZMw+1T90dNfGkuxxzlKSYduL
aIflTzQ7gbDzwp5vLSzyXVHGNxDlN2bxW1t3p0wF90tdbixT6MA7IYnku6p69fXR
1/dAQjg43EfU/StkuRo14RNlsFMnVQ2JvjRTMgbj3YNyCLVLY4QDNh46azkS1Wkp
Z9RLNs92wY+MByFJoJTeWEZCL5yMWG3Ci7z4nxQ7DKB6OWeYWXSB7TmsJrMjGAUg
L3xTMDNemOi1D3ud3vV6PbGWCixtTQaoi8s0DzQL8m8L+cAw3Hb0DIuZ5KYL/mQV
jD57GNOQNGByMBf6vu2zeXNcLYRbnqSuGO2eDugFiXpcuvVawi8CHMqSEKriG8D6
SoXjDq5c8R5ElYUg+QNuWSncTnQJd4hNK45+njpiGmVfwWsfZbuFhg6EEoN6ahmi
pP9srv46pcq8He1fqwqbt3iD1fLJYI5ZVV+H7PPzdc5ST94VDJNxZugMW97prex5
xqYcSS5ntM/tvYnRVRkzKAko3BCk3Ao3K+P92FUMpALJ9hwBb1X5TKmnmIYYzKUE
3h2L69M2tApZ1k/QIQ3B1ChblPK0S+Kr0LSw7rhlLswqwAqmegULQATaAheIAYe6
aQ0T1/weOK3XzakP/GpyECMdEEPZ4uHg0NLJmi8BCBE=
-----END CERTIFICATE-----
