Certificate:
    Data:
        Version: 3 (0x2)
        Serial Number: 3809 (0xee1)
    Signature Algorithm: md5WithRSAEncryption
        Issuer: C=US, ST=OH, L=Columbus, O=VikingVPN, OU=MyOrganizationalUnit, CN=VikingVPN CA/name=EasyRSA/emailAddress=me@myhost.mydomain
        Validity
            Not Before: Dec 28 22:20:18 2014 GMT
            Not After : Dec 25 22:20:18 2024 GMT
        Subject: CN=Client1306Cert1c873b
        Subject Public Key Info:
            Public Key Algorithm: rsaEncryption
                Public-Key: (4096 bit)
                Modulus:
                    00:9a:36:ee:d3:be:a9:c2:4b:1d:42:6b:7b:d4:b9:
                    f3:a9:f6:d1:bd:62:fe:7a:6c:f6:c3:c4:6b:68:e0:
                    ae:56:a8:ca:21:18:b9:c8:3b:8a:15:25:24:76:d5:
                    50:a4:31:ba:29:7a:78:86:6d:47:f6:ce:ba:4d:ab:
                    70:3d:6e:f2:18:63:82:31:03:48:c9:8d:2a:ba:4e:
                    df:6d:5a:af:a5:fb:13:cc:b5:c3:77:fa:01:93:b4:
                    2b:3b:f4:97:be:ad:cc:9a:8c:68:f6:d1:57:7d:2f:
                    70:9c:64:e9:66:8a:95:2c:da:fd:87:67:09:c3:80:
                    2b:d8:43:7e:74:5f:94:bf:37:9e:63:2b:31:d3:ce:
                    e0:9e:6a:5e:41:f4:b0:d9:53:a1:93:fe:31:52:98:
                    38:6a:88:5d:ab:35:80:a8:7a:a0:95:20:c0:13:e9:
                    d5:1e:47:22:75:f5:99:12:6a:e3:eb:25:c6:fc:8a:
                    8a:74:37:c5:19:6f:d8:c5:ca:59:11:ab:5c:92:fc:
                    2b:9f:1f:2b:01:00:6b:d9:af:dd:a5:32:3a:0a:5e:
                    b0:bd:c4:4b:3c:85:be:c9:a2:c3:87:12:c1:2f:8d:
                    8d:44:d5:78:aa:38:78:e8:b2:f8:62:59:2b:c0:3e:
                    8c:82:e0:35:00:56:dc:e1:28:11:8f:63:2c:62:38:
                    f8:c3:88:99:9b:17:a2:79:2b:b0:aa:79:dc:14:bc:
                    45:63:54:72:8d:86:3a:1d:36:36:8f:6d:ae:51:a3:
                    71:29:1f:b2:7b:19:8e:a9:27:1c:58:46:19:4f:bb:
                    1b:01:36:1e:2e:e1:ee:14:4b:85:39:7f:8b:01:4b:
                    5e:a9:7f:21:1f:89:cf:a0:9e:b5:5a:98:0e:24:3e:
                    87:65:54:1f:78:a0:3b:26:1a:f3:f2:11:35:c3:e1:
                    9b:bd:85:89:01:da:10:59:8e:f4:34:b0:f4:b1:11:
                    44:b5:dc:66:06:bf:13:e1:61:b0:02:9e:aa:35:7e:
                    20:59:11:9c:45:0c:3a:fe:21:81:45:b2:76:c9:f9:
                    9e:12:61:53:ed:4b:39:94:0c:a7:37:f5:5f:c6:bd:
                    53:b3:88:7d:8f:40:72:66:d8:58:11:9a:f8:b8:ae:
                    06:73:98:9f:39:de:78:95:f0:08:eb:36:6e:18:ba:
                    03:56:41:e9:7d:d3:a6:4f:a2:35:71:32:27:68:60:
                    88:2f:d1:fc:ea:e6:e7:72:1e:be:c1:e6:99:99:8e:
                    d0:0a:20:08:f1:26:6f:43:e1:7f:97:6c:32:68:b8:
                    07:b6:ac:b2:98:f3:de:d8:11:07:9b:bb:ed:6c:54:
                    cf:7e:3a:89:38:c1:52:11:fe:5d:28:e1:59:3f:36:
                    be:73:d1
                Exponent: 65537 (0x10001)
        X509v3 extensions:
            X509v3 Basic Constraints: 
                CA:FALSE
            Netscape Comment: 
                Easy-RSA Generated Certificate
            X509v3 Subject Key Identifier: 
                F2:FE:2C:04:34:73:F6:DC:1D:3D:1F:CB:40:53:8A:6C:67:39:F0:EE
            X509v3 Authority Key Identifier: 
                keyid:12:CD:60:04:D2:A0:80:9E:70:ED:C6:99:B8:7B:2C:C6:52:FD:19:A1
                DirName:/C=US/ST=OH/L=Columbus/O=VikingVPN/OU=MyOrganizationalUnit/CN=VikingVPN CA/name=EasyRSA/emailAddress=me@myhost.mydomain
                serial:CF:35:85:EE:80:BF:2A:3E

            X509v3 Extended Key Usage: 
                TLS Web Client Authentication
            X509v3 Key Usage: 
                Digital Signature
    Signature Algorithm: md5WithRSAEncryption
         6e:d9:1a:cd:7c:04:09:f1:5f:04:7a:af:52:80:9a:c5:2e:36:
         f5:be:36:dd:6a:78:39:ec:ca:f2:4c:e2:31:54:b8:71:fc:65:
         7c:11:db:f7:f5:46:32:cd:ad:6f:5d:71:98:2d:80:0d:11:ac:
         fe:6d:fa:c6:55:64:00:bf:85:53:ee:89:47:cb:4e:a3:6c:0d:
         74:60:7c:a0:f3:e2:22:c1:69:2b:c3:b8:28:5c:3e:57:11:33:
         79:17:ec:64:c4:b9:15:27:6b:22:0f:0d:29:a0:8c:71:46:a6:
         68:04:c6:30:23:36:f2:45:32:41:21:07:4c:18:1f:dd:1c:1b:
         e3:7c:8b:b0:21:18:0a:08:36:81:93:15:87:54:71:76:d4:ac:
         8d:de:1a:c4:d8:f5:dd:97:be:11:a4:79:b2:f4:74:56:a8:f7:
         e8:89:59:71:77:69:5d:b1:70:d8:2c:04:e5:aa:97:d6:c2:1a:
         8b:58:21:f0:f4:9b:12:85:c3:3b:b6:37:bd:f3:31:5d:ef:28:
         1d:f5:b5:56:e2:ff:7a:0b:eb:c6:ef:72:c9:bd:dc:ee:ac:95:
         06:74:2a:7e:34:51:fa:20:71:57:1e:92:1b:21:72:98:54:8a:
         cb:5a:22:f4:18:9c:28:3b:a1:d2:68:b2:d5:3c:74:76:b8:8b:
         dd:48:56:38:4d:80:49:b9:8a:c7:4e:d3:d1:4a:34:48:c4:c5:
         bd:b6:06:8f:f7:e0:ac:89:b5:ff:23:87:79:6c:c2:40:dd:08:
         7d:61:48:19:ba:34:2d:3a:44:95:30:83:7f:00:f4:e8:dc:be:
         84:f3:f8:23:ad:17:a4:64:27:71:77:4d:b3:5d:d5:d3:81:95:
         5a:78:e4:d5:b9:60:81:55:5f:cb:fb:df:87:8a:2a:b4:3c:2c:
         88:7d:b6:37:19:8d:f1:3e:9c:0e:b7:4b:3c:76:81:30:43:ef:
         24:3e:39:96:26:54:79:b1:f5:f1:c0:df:98:c2:60:ac:3f:f3:
         ce:5b:8a:88:d0:10:6c:8f:b9:3c:55:2a:f5:c0:f6:07:f3:04:
         1a:ce:dc:14:73:27:aa:a1:1a:13:e1:ec:36:85:9f:1a:29:f2:
         dd:8b:b2:eb:4d:97:ed:b9:c6:e5:ad:f7:80:86:08:6e:ac:da:
         ae:20:b8:86:bc:11:98:69:69:64:1b:c1:0f:55:18:cf:8f:1c:
         a1:76:26:46:c4:e3:af:99:e7:98:69:30:a4:ac:97:a3:25:ef:
         4e:ea:82:99:cd:d7:69:17:c7:88:7d:a4:fc:c4:38:2a:87:36:
         b0:60:fe:57:15:16:a6:42:16:20:a1:24:d6:8a:2b:e0:5a:0a:
         2a:26:d2:8d:ac:3b:ce:ac
-----BEGIN CERTIFICATE-----
MIIGrTCCBJWgAwIBAgICDuEwDQYJKoZIhvcNAQEEBQAwgawxCzAJBgNVBAYTAlVT
MQswCQYDVQQIEwJPSDERMA8GA1UEBxMIQ29sdW1idXMxEjAQBgNVBAoTCVZpa2lu
Z1ZQTjEdMBsGA1UECxMUTXlPcmdhbml6YXRpb25hbFVuaXQxFTATBgNVBAMTDFZp
a2luZ1ZQTiBDQTEQMA4GA1UEKRMHRWFzeVJTQTEhMB8GCSqGSIb3DQEJARYSbWVA
bXlob3N0Lm15ZG9tYWluMB4XDTE0MTIyODIyMjAxOFoXDTI0MTIyNTIyMjAxOFow
HzEdMBsGA1UEAxMUQ2xpZW50MTMwNkNlcnQxYzg3M2IwggIiMA0GCSqGSIb3DQEB
AQUAA4ICDwAwggIKAoICAQCaNu7TvqnCSx1Ca3vUufOp9tG9Yv56bPbDxGto4K5W
qMohGLnIO4oVJSR21VCkMbopeniGbUf2zrpNq3A9bvIYY4IxA0jJjSq6Tt9tWq+l
+xPMtcN3+gGTtCs79Je+rcyajGj20Vd9L3CcZOlmipUs2v2HZwnDgCvYQ350X5S/
N55jKzHTzuCeal5B9LDZU6GT/jFSmDhqiF2rNYCoeqCVIMAT6dUeRyJ19ZkSauPr
Jcb8iop0N8UZb9jFylkRq1yS/CufHysBAGvZr92lMjoKXrC9xEs8hb7JosOHEsEv
jY1E1XiqOHjosvhiWSvAPoyC4DUAVtzhKBGPYyxiOPjDiJmbF6J5K7CqedwUvEVj
VHKNhjodNjaPba5Ro3EpH7J7GY6pJxxYRhlPuxsBNh4u4e4US4U5f4sBS16pfyEf
ic+gnrVamA4kPodlVB94oDsmGvPyETXD4Zu9hYkB2hBZjvQ0sPSxEUS13GYGvxPh
YbACnqo1fiBZEZxFDDr+IYFFsnbJ+Z4SYVPtSzmUDKc39V/GvVOziH2PQHJm2FgR
mvi4rgZzmJ853niV8AjrNm4YugNWQel906ZPojVxMidoYIgv0fzq5udyHr7B5pmZ
jtAKIAjxJm9D4X+XbDJouAe2rLKY897YEQebu+1sVM9+Ook4wVIR/l0o4Vk/Nr5z
0QIDAQABo4IBYzCCAV8wCQYDVR0TBAIwADAtBglghkgBhvhCAQ0EIBYeRWFzeS1S
U0EgR2VuZXJhdGVkIENlcnRpZmljYXRlMB0GA1UdDgQWBBTy/iwENHP23B09H8tA
U4psZznw7jCB4QYDVR0jBIHZMIHWgBQSzWAE0qCAnnDtxpm4eyzGUv0ZoaGBsqSB
rzCBrDELMAkGA1UEBhMCVVMxCzAJBgNVBAgTAk9IMREwDwYDVQQHEwhDb2x1bWJ1
czESMBAGA1UEChMJVmlraW5nVlBOMR0wGwYDVQQLExRNeU9yZ2FuaXphdGlvbmFs
VW5pdDEVMBMGA1UEAxMMVmlraW5nVlBOIENBMRAwDgYDVQQpEwdFYXN5UlNBMSEw
HwYJKoZIhvcNAQkBFhJtZUBteWhvc3QubXlkb21haW6CCQDPNYXugL8qPjATBgNV
HSUEDDAKBggrBgEFBQcDAjALBgNVHQ8EBAMCB4AwDQYJKoZIhvcNAQEEBQADggIB
AG7ZGs18BAnxXwR6r1KAmsUuNvW+Nt1qeDnsyvJM4jFUuHH8ZXwR2/f1RjLNrW9d
cZgtgA0RrP5t+sZVZAC/hVPuiUfLTqNsDXRgfKDz4iLBaSvDuChcPlcRM3kX7GTE
uRUnayIPDSmgjHFGpmgExjAjNvJFMkEhB0wYH90cG+N8i7AhGAoINoGTFYdUcXbU
rI3eGsTY9d2XvhGkebL0dFao9+iJWXF3aV2xcNgsBOWql9bCGotYIfD0mxKFwzu2
N73zMV3vKB31tVbi/3oL68bvcsm93O6slQZ0Kn40UfogcVcekhshcphUistaIvQY
nCg7odJostU8dHa4i91IVjhNgEm5isdO09FKNEjExb22Bo/34KyJtf8jh3lswkDd
CH1hSBm6NC06RJUwg38A9OjcvoTz+COtF6RkJ3F3TbNd1dOBlVp45NW5YIFVX8v7
34eKKrQ8LIh9tjcZjfE+nA63Szx2gTBD7yQ+OZYmVHmx9fHA35jCYKw/885biojQ
EGyPuTxVKvXA9gfzBBrO3BRzJ6qhGhPh7DaFnxop8t2LsutNl+25xuWt94CGCG6s
2q4guIa8EZhpaWQbwQ9VGM+PHKF2JkbE46+Z55hpMKSsl6Ml707qgpnN12kXx4h9
pPzEOCqHNrBg/lcVFqZCFiChJNaKK+BaCiom0o2sO86s
-----END CERTIFICATE-----
