Certificate:
    Data:
        Version: 3 (0x2)
        Serial Number: 3814 (0xee6)
    Signature Algorithm: md5WithRSAEncryption
        Issuer: C=US, ST=OH, L=Columbus, O=VikingVPN, OU=MyOrganizationalUnit, CN=VikingVPN CA/name=EasyRSA/emailAddress=me@myhost.mydomain
        Validity
            Not Before: Dec 29 07:17:57 2014 GMT
            Not After : Dec 26 07:17:57 2024 GMT
        Subject: CN=Client693Cert8be9ab
        Subject Public Key Info:
            Public Key Algorithm: rsaEncryption
                Public-Key: (4096 bit)
                Modulus:
                    00:97:4e:f7:ae:f4:a1:00:55:dd:87:ae:4a:c2:33:
                    53:a5:d8:32:cb:f3:ca:9a:7f:07:bf:34:82:34:f6:
                    c3:53:66:42:4d:67:d5:0e:9d:e3:79:f5:70:5c:20:
                    5d:f4:0e:c0:03:e3:ee:39:b9:30:ad:9d:4e:30:57:
                    43:52:4c:ac:6f:52:33:0b:b8:e6:88:19:fc:25:eb:
                    b6:ee:94:dd:50:d9:4b:a6:39:69:8e:f2:83:3d:1e:
                    54:9a:56:c0:22:12:99:9c:e6:e2:b5:95:30:67:f2:
                    c4:12:0e:23:d8:9e:4c:e2:a0:2e:16:80:17:71:fa:
                    75:ed:8d:f0:98:47:44:8b:04:62:f8:6e:78:cc:65:
                    dc:cb:c2:9c:cb:8f:f0:7d:5e:15:af:62:b7:16:dc:
                    ce:42:5c:61:0b:d8:b3:79:c6:d4:4a:8b:09:8b:14:
                    07:f3:96:4e:7a:13:f1:e7:5a:01:1c:d0:ca:9e:df:
                    76:33:cb:0f:50:14:c5:a9:e1:c7:88:3e:11:19:6c:
                    e0:fc:26:53:8c:08:52:ea:81:dd:69:f2:44:0d:fb:
                    5e:50:5f:ae:70:75:8c:82:ff:00:93:ba:d0:31:d9:
                    2d:23:27:4f:66:0a:87:6f:cb:ea:86:20:04:53:c5:
                    ad:a3:15:be:b8:49:d6:88:e6:8d:41:ed:10:3a:87:
                    74:ce:e0:3f:e6:59:6c:8f:53:4d:25:0d:ab:b3:f8:
                    3e:b4:c0:95:6e:99:72:32:e3:65:81:14:a8:05:6e:
                    fb:12:45:9d:28:fb:a7:dc:05:27:bf:11:39:c6:43:
                    d3:8f:48:60:4d:12:c4:95:72:27:50:c6:30:d6:ce:
                    d3:a1:b0:19:ce:e1:89:ca:e2:ae:a1:db:1b:80:6a:
                    9a:7e:e5:29:25:4f:49:df:9b:cc:61:c1:ce:ce:ec:
                    a1:36:dd:f2:20:23:49:fe:d5:63:81:69:4d:f4:17:
                    ec:c5:53:fd:0b:b4:9a:1f:2c:98:0d:50:f1:37:af:
                    5d:a6:4f:6f:91:7e:24:27:92:43:43:5e:a7:cb:29:
                    3a:f2:96:95:5e:03:71:e9:0b:7b:05:2d:19:84:ae:
                    0d:a7:2c:75:7b:19:30:03:bb:0c:43:98:7c:5c:de:
                    88:7a:bf:04:41:51:d0:50:37:ea:0a:be:96:f4:0f:
                    c0:f6:6a:aa:f9:3c:b0:ef:ab:2e:cf:5e:a4:64:f4:
                    15:8c:f0:5a:d7:b2:f5:71:14:a2:b5:6c:b7:80:48:
                    ee:9a:d7:57:9b:63:89:51:50:b6:68:d1:11:9e:a3:
                    bd:22:0c:ea:cd:31:f2:9d:fe:e8:3a:32:cd:60:84:
                    6c:f7:a5:78:4d:08:54:d6:a2:2c:94:44:c8:18:b5:
                    6f:44:dd
                Exponent: 65537 (0x10001)
        X509v3 extensions:
            X509v3 Basic Constraints: 
                CA:FALSE
            Netscape Comment: 
                Easy-RSA Generated Certificate
            X509v3 Subject Key Identifier: 
                37:65:F0:D7:1F:44:84:26:0C:4A:A8:0D:70:A3:AB:50:BE:8C:E3:C3
            X509v3 Authority Key Identifier: 
                keyid:12:CD:60:04:D2:A0:80:9E:70:ED:C6:99:B8:7B:2C:C6:52:FD:19:A1
                DirName:/C=US/ST=OH/L=Columbus/O=VikingVPN/OU=MyOrganizationalUnit/CN=VikingVPN CA/name=EasyRSA/emailAddress=me@myhost.mydomain
                serial:CF:35:85:EE:80:BF:2A:3E

            X509v3 Extended Key Usage: 
                TLS Web Client Authentication
            X509v3 Key Usage: 
                Digital Signature
    Signature Algorithm: md5WithRSAEncryption
         2b:7b:7c:f7:c3:c0:39:ee:cc:5c:3c:42:5e:42:01:a9:bf:af:
         05:79:07:80:4b:28:76:07:d9:6e:60:2e:98:4e:98:a1:ec:da:
         ea:c4:11:43:74:ef:ce:61:6a:f2:24:4f:be:ca:1c:63:da:a8:
         cd:8c:63:00:bf:86:68:ae:7f:ad:85:92:43:eb:d5:d8:6c:12:
         d7:d3:b4:18:ce:51:94:86:b3:85:4c:d2:e6:69:fe:c2:32:29:
         fb:24:2c:01:9b:bf:67:8c:7f:bb:0b:a4:5c:da:3c:1f:ac:9b:
         d9:9d:bd:fa:de:86:fc:a6:ba:63:fa:87:00:b7:f2:1e:5b:7c:
         71:61:d1:d4:87:01:db:56:b0:73:89:f8:4d:79:d4:56:a2:0e:
         2d:ac:cc:d4:8d:8a:ae:e6:4a:ed:5b:6e:5e:84:50:e8:db:ab:
         3c:e8:c2:78:ca:a1:58:0c:65:84:84:1f:16:3c:b3:d4:ba:0f:
         c4:98:ca:87:3e:39:5c:2b:fd:e3:a5:1b:33:ac:25:b0:e3:9c:
         bb:08:cf:16:cc:2d:2c:d3:89:d5:1d:e0:40:ed:62:dc:96:93:
         60:9a:d0:af:0b:a7:10:78:80:61:d6:77:fc:8d:a9:05:2d:8c:
         05:cf:74:90:17:e6:cd:be:f6:70:fd:a3:fc:b9:68:f4:62:7e:
         58:6a:a5:6c:c7:4d:cc:88:79:94:07:e3:3b:d4:00:21:24:73:
         4a:36:5b:05:cd:e6:bf:da:38:45:62:ce:1e:fd:61:b5:b2:8c:
         13:88:39:35:0a:20:a8:7f:d7:26:10:0b:50:ee:3f:39:4a:38:
         70:05:51:b8:98:a3:c4:6b:be:33:a3:a4:d2:ca:f5:85:a1:d7:
         4b:ea:82:3b:68:4e:78:64:5f:f3:f1:98:f8:00:9c:37:3f:a3:
         4b:d9:36:4f:35:f8:80:b7:25:f5:f7:80:58:18:5a:1b:7c:e3:
         dd:f2:b3:fa:f8:19:72:01:f3:f1:f6:de:f9:46:08:d2:07:df:
         50:30:0c:a7:17:2e:15:85:9f:ca:32:31:81:e6:04:d2:a1:13:
         92:12:8f:77:64:73:46:57:c2:e6:be:89:2e:31:cd:9c:fa:39:
         18:4f:a9:6e:18:28:15:2f:1b:eb:2e:90:1c:f7:a5:a1:87:24:
         17:b3:55:9f:95:af:4f:80:f4:41:f6:10:8f:05:f8:70:4f:f0:
         a0:36:6b:ff:63:76:46:93:27:58:5b:2f:f3:a5:23:2e:33:82:
         4d:f3:28:1c:0a:26:d3:51:51:ac:ef:82:c1:b2:bb:4b:07:53:
         07:14:de:17:a1:b4:14:e8:74:de:01:18:bc:62:3e:2b:40:90:
         c5:d9:76:39:06:fa:7f:64
-----BEGIN CERTIFICATE-----
MIIGrDCCBJSgAwIBAgICDuYwDQYJKoZIhvcNAQEEBQAwgawxCzAJBgNVBAYTAlVT
MQswCQYDVQQIEwJPSDERMA8GA1UEBxMIQ29sdW1idXMxEjAQBgNVBAoTCVZpa2lu
Z1ZQTjEdMBsGA1UECxMUTXlPcmdhbml6YXRpb25hbFVuaXQxFTATBgNVBAMTDFZp
a2luZ1ZQTiBDQTEQMA4GA1UEKRMHRWFzeVJTQTEhMB8GCSqGSIb3DQEJARYSbWVA
bXlob3N0Lm15ZG9tYWluMB4XDTE0MTIyOTA3MTc1N1oXDTI0MTIyNjA3MTc1N1ow
HjEcMBoGA1UEAxMTQ2xpZW50NjkzQ2VydDhiZTlhYjCCAiIwDQYJKoZIhvcNAQEB
BQADggIPADCCAgoCggIBAJdO9670oQBV3YeuSsIzU6XYMsvzypp/B780gjT2w1Nm
Qk1n1Q6d43n1cFwgXfQOwAPj7jm5MK2dTjBXQ1JMrG9SMwu45ogZ/CXrtu6U3VDZ
S6Y5aY7ygz0eVJpWwCISmZzm4rWVMGfyxBIOI9ieTOKgLhaAF3H6de2N8JhHRIsE
YvhueMxl3MvCnMuP8H1eFa9itxbczkJcYQvYs3nG1EqLCYsUB/OWTnoT8edaARzQ
yp7fdjPLD1AUxanhx4g+ERls4PwmU4wIUuqB3WnyRA37XlBfrnB1jIL/AJO60DHZ
LSMnT2YKh2/L6oYgBFPFraMVvrhJ1ojmjUHtEDqHdM7gP+ZZbI9TTSUNq7P4PrTA
lW6ZcjLjZYEUqAVu+xJFnSj7p9wFJ78ROcZD049IYE0SxJVyJ1DGMNbO06GwGc7h
icrirqHbG4Bqmn7lKSVPSd+bzGHBzs7soTbd8iAjSf7VY4FpTfQX7MVT/Qu0mh8s
mA1Q8TevXaZPb5F+JCeSQ0Nep8spOvKWlV4DcekLewUtGYSuDacsdXsZMAO7DEOY
fFzeiHq/BEFR0FA36gq+lvQPwPZqqvk8sO+rLs9epGT0FYzwWtey9XEUorVst4BI
7prXV5tjiVFQtmjREZ6jvSIM6s0x8p3+6DoyzWCEbPeleE0IVNaiLJREyBi1b0Td
AgMBAAGjggFjMIIBXzAJBgNVHRMEAjAAMC0GCWCGSAGG+EIBDQQgFh5FYXN5LVJT
QSBHZW5lcmF0ZWQgQ2VydGlmaWNhdGUwHQYDVR0OBBYEFDdl8NcfRIQmDEqoDXCj
q1C+jOPDMIHhBgNVHSMEgdkwgdaAFBLNYATSoICecO3Gmbh7LMZS/RmhoYGypIGv
MIGsMQswCQYDVQQGEwJVUzELMAkGA1UECBMCT0gxETAPBgNVBAcTCENvbHVtYnVz
MRIwEAYDVQQKEwlWaWtpbmdWUE4xHTAbBgNVBAsTFE15T3JnYW5pemF0aW9uYWxV
bml0MRUwEwYDVQQDEwxWaWtpbmdWUE4gQ0ExEDAOBgNVBCkTB0Vhc3lSU0ExITAf
BgkqhkiG9w0BCQEWEm1lQG15aG9zdC5teWRvbWFpboIJAM81he6Avyo+MBMGA1Ud
JQQMMAoGCCsGAQUFBwMCMAsGA1UdDwQEAwIHgDANBgkqhkiG9w0BAQQFAAOCAgEA
K3t898PAOe7MXDxCXkIBqb+vBXkHgEsodgfZbmAumE6Yoeza6sQRQ3TvzmFq8iRP
vsocY9qozYxjAL+GaK5/rYWSQ+vV2GwS19O0GM5RlIazhUzS5mn+wjIp+yQsAZu/
Z4x/uwukXNo8H6yb2Z29+t6G/Ka6Y/qHALfyHlt8cWHR1IcB21awc4n4TXnUVqIO
LazM1I2KruZK7VtuXoRQ6NurPOjCeMqhWAxlhIQfFjyz1LoPxJjKhz45XCv946Ub
M6wlsOOcuwjPFswtLNOJ1R3gQO1i3JaTYJrQrwunEHiAYdZ3/I2pBS2MBc90kBfm
zb72cP2j/Llo9GJ+WGqlbMdNzIh5lAfjO9QAISRzSjZbBc3mv9o4RWLOHv1htbKM
E4g5NQogqH/XJhALUO4/OUo4cAVRuJijxGu+M6Ok0sr1haHXS+qCO2hOeGRf8/GY
+ACcNz+jS9k2TzX4gLcl9feAWBhaG3zj3fKz+vgZcgHz8fbe+UYI0gffUDAMpxcu
FYWfyjIxgeYE0qETkhKPd2RzRlfC5r6JLjHNnPo5GE+pbhgoFS8b6y6QHPeloYck
F7NVn5WvT4D0QfYQjwX4cE/woDZr/2N2RpMnWFsv86UjLjOCTfMoHAom01FRrO+C
wbK7SwdTBxTeF6G0FOh03gEYvGI+K0CQxdl2OQb6f2Q=
-----END CERTIFICATE-----
