Certificate:
    Data:
        Version: 3 (0x2)
        Serial Number: 3815 (0xee7)
    Signature Algorithm: md5WithRSAEncryption
        Issuer: C=US, ST=OH, L=Columbus, O=VikingVPN, OU=MyOrganizationalUnit, CN=VikingVPN CA/name=EasyRSA/emailAddress=me@myhost.mydomain
        Validity
            Not Before: Dec 29 11:36:32 2014 GMT
            Not After : Dec 26 11:36:32 2024 GMT
        Subject: CN=Client1099Cert6891c6
        Subject Public Key Info:
            Public Key Algorithm: rsaEncryption
                Public-Key: (4096 bit)
                Modulus:
                    00:a8:3a:d1:a4:f4:7d:c4:45:b7:b2:92:cc:39:50:
                    ef:6c:42:00:85:2f:25:84:e4:32:b8:03:b1:fa:d0:
                    5a:2e:ae:ac:26:9f:7f:0f:3f:0a:bc:32:4b:3f:50:
                    ad:56:8e:d6:8f:e4:b2:bf:f5:94:df:e9:d0:63:0d:
                    c8:6a:68:1e:62:73:91:51:3c:2c:86:4b:eb:58:c8:
                    44:a8:77:64:b9:84:8d:6c:c9:eb:7f:37:12:8b:34:
                    6b:9c:0e:0f:90:b5:27:00:dd:a4:7f:94:34:be:d1:
                    c3:39:66:e7:ba:b7:42:b4:13:09:cb:52:20:a9:87:
                    46:98:f1:76:49:f4:c1:7f:ff:44:b1:bb:a3:2f:cb:
                    fc:21:d2:ec:0e:61:0f:11:9b:13:f5:99:74:2d:66:
                    ec:4a:a8:60:c8:70:2d:eb:eb:42:eb:13:3c:ec:5f:
                    5d:53:fe:0b:d2:03:a0:04:8d:d1:20:24:e3:1c:93:
                    69:a6:75:89:16:4c:93:f6:16:44:1a:84:42:6c:3d:
                    a6:89:2c:07:81:7e:ba:1d:1a:54:0b:10:c2:66:bd:
                    8c:51:38:32:2e:29:18:d9:a3:93:d2:82:97:45:90:
                    30:43:64:77:07:76:19:06:5e:d2:a4:33:48:bd:8b:
                    d5:4d:40:22:12:9c:2c:29:f8:b8:13:37:aa:f3:8d:
                    56:1c:86:e9:a6:98:53:ae:10:21:7f:36:f2:6e:67:
                    c7:8f:fd:49:0f:a0:1d:31:57:d2:8c:c6:48:b8:4d:
                    b1:64:0c:a5:2d:36:3a:8c:87:43:1c:78:a2:fd:42:
                    a6:08:51:f1:1a:b9:02:c4:12:e2:34:d6:90:1f:32:
                    ac:52:d5:23:f7:5b:c9:95:ac:b2:8a:cc:c3:a0:68:
                    69:13:b0:8d:66:fc:f1:89:f3:8b:cd:d8:b5:5a:dc:
                    e9:d1:90:1a:84:27:ce:29:f4:26:30:53:a3:c6:81:
                    45:0c:3e:0a:0e:3c:61:47:67:39:a5:97:ea:f9:38:
                    f6:9d:f3:ac:2c:ed:39:d8:75:50:9d:e0:3b:da:8a:
                    59:93:8a:4e:57:c9:e7:5d:9f:70:ae:72:b8:ab:f8:
                    7c:01:3c:97:47:bb:04:ab:8a:1b:7e:7d:ca:ae:b4:
                    3f:db:09:5a:43:d1:ae:7c:31:cf:8d:3c:7a:a8:2f:
                    c0:60:35:5e:8b:93:0e:b1:2f:17:1f:3a:4e:c6:8d:
                    0f:51:ad:c2:b7:d2:ee:ef:2f:5b:95:6d:a3:41:1d:
                    4f:69:2d:ea:2f:aa:f0:63:5b:94:4f:c4:5d:32:8e:
                    27:eb:d7:ab:41:f9:3a:c9:d8:0a:66:ce:85:ea:07:
                    a2:6c:e6:b1:38:3f:d0:07:45:2d:16:47:d6:fe:df:
                    69:a9:53
                Exponent: 65537 (0x10001)
        X509v3 extensions:
            X509v3 Basic Constraints: 
                CA:FALSE
            Netscape Comment: 
                Easy-RSA Generated Certificate
            X509v3 Subject Key Identifier: 
                54:97:84:CD:59:A4:65:5A:78:FA:52:BC:33:2F:B3:53:28:1A:B9:F5
            X509v3 Authority Key Identifier: 
                keyid:12:CD:60:04:D2:A0:80:9E:70:ED:C6:99:B8:7B:2C:C6:52:FD:19:A1
                DirName:/C=US/ST=OH/L=Columbus/O=VikingVPN/OU=MyOrganizationalUnit/CN=VikingVPN CA/name=EasyRSA/emailAddress=me@myhost.mydomain
                serial:CF:35:85:EE:80:BF:2A:3E

            X509v3 Extended Key Usage: 
                TLS Web Client Authentication
            X509v3 Key Usage: 
                Digital Signature
    Signature Algorithm: md5WithRSAEncryption
         3d:b2:af:49:6f:1b:a8:a6:13:19:11:48:0b:ae:00:d5:ff:79:
         8e:cb:d5:1d:3e:ed:4b:72:e6:26:4c:82:7c:32:15:0a:1f:4d:
         91:6f:01:37:dd:5c:51:e8:e5:0a:02:d4:3e:18:a6:9f:2d:9c:
         65:2d:5b:e9:c7:6a:65:76:fe:2d:43:13:51:a5:94:b1:3f:cf:
         12:d8:7b:53:7b:33:68:13:0f:4a:76:09:30:2a:47:73:d8:16:
         ab:53:2c:99:6a:0a:cb:26:e3:39:a1:cf:86:f4:67:6b:1a:7c:
         d4:66:12:83:3a:07:68:7b:a6:5d:0d:a4:47:4b:d2:18:25:c4:
         8d:78:1c:77:8b:1f:4b:85:fd:54:a8:0e:ec:95:78:7d:af:41:
         56:27:01:d0:60:c4:47:e2:87:11:8e:6f:c9:16:2e:e9:a6:0a:
         dd:83:bb:89:e3:bd:e2:d1:03:d2:4b:4c:d6:3c:73:df:08:ed:
         cb:1a:09:94:58:2f:5f:21:09:7b:81:db:79:8f:c2:3a:8a:7e:
         b6:c6:38:d4:37:86:1c:f4:73:22:0b:f9:dc:68:ea:b8:ac:61:
         96:b7:d7:9b:ae:21:c3:f8:7a:a0:33:0f:91:1a:97:f2:63:a0:
         8b:5d:c9:64:ef:0c:36:23:c7:04:06:e3:e5:32:62:de:25:38:
         29:68:68:d4:87:7e:75:dd:57:64:5b:73:89:e5:1f:87:63:41:
         9b:97:24:26:6f:59:95:fe:83:25:ff:aa:3c:1b:23:35:35:6b:
         06:15:f1:47:1a:78:88:10:62:65:d8:49:1b:58:6f:93:7d:34:
         ae:5b:80:29:88:06:ea:cd:49:a4:e2:07:b5:a9:1d:39:ba:84:
         c6:a4:39:fe:51:2f:4d:6c:1b:4a:75:97:93:bc:36:88:28:f5:
         49:3c:01:8f:a0:75:54:85:48:12:e3:6f:16:72:72:76:a8:0e:
         e5:cb:59:d6:6d:8c:70:e1:56:7b:21:89:6d:ee:16:0b:8b:ac:
         80:9a:00:77:f2:0e:73:00:1d:61:5b:c2:3e:e3:0a:1d:3b:12:
         8b:e6:e8:47:0d:a2:6a:de:22:5c:41:1d:11:b8:bb:e0:7f:d5:
         4a:93:c2:6a:b3:b3:46:fa:8c:6f:ff:61:ba:b7:1b:c3:9a:85:
         0e:3e:de:f4:0f:c2:c5:ac:90:95:e8:63:72:83:8d:9e:f4:0b:
         4c:ca:fc:96:fc:aa:9f:07:41:17:4c:e5:80:07:49:0e:54:a7:
         1b:52:92:b4:f6:ea:75:24:cb:c8:d7:6d:88:11:cd:97:7c:d1:
         b2:5d:b9:af:71:6d:85:4f:07:b3:2f:d5:58:0b:3c:4c:58:a1:
         c9:32:c5:be:58:73:51:62
-----BEGIN CERTIFICATE-----
MIIGrTCCBJWgAwIBAgICDucwDQYJKoZIhvcNAQEEBQAwgawxCzAJBgNVBAYTAlVT
MQswCQYDVQQIEwJPSDERMA8GA1UEBxMIQ29sdW1idXMxEjAQBgNVBAoTCVZpa2lu
Z1ZQTjEdMBsGA1UECxMUTXlPcmdhbml6YXRpb25hbFVuaXQxFTATBgNVBAMTDFZp
a2luZ1ZQTiBDQTEQMA4GA1UEKRMHRWFzeVJTQTEhMB8GCSqGSIb3DQEJARYSbWVA
bXlob3N0Lm15ZG9tYWluMB4XDTE0MTIyOTExMzYzMloXDTI0MTIyNjExMzYzMlow
HzEdMBsGA1UEAxMUQ2xpZW50MTA5OUNlcnQ2ODkxYzYwggIiMA0GCSqGSIb3DQEB
AQUAA4ICDwAwggIKAoICAQCoOtGk9H3ERbeyksw5UO9sQgCFLyWE5DK4A7H60Fou
rqwmn38PPwq8Mks/UK1WjtaP5LK/9ZTf6dBjDchqaB5ic5FRPCyGS+tYyESod2S5
hI1syet/NxKLNGucDg+QtScA3aR/lDS+0cM5Zue6t0K0EwnLUiCph0aY8XZJ9MF/
/0Sxu6Mvy/wh0uwOYQ8RmxP1mXQtZuxKqGDIcC3r60LrEzzsX11T/gvSA6AEjdEg
JOMck2mmdYkWTJP2FkQahEJsPaaJLAeBfrodGlQLEMJmvYxRODIuKRjZo5PSgpdF
kDBDZHcHdhkGXtKkM0i9i9VNQCISnCwp+LgTN6rzjVYchummmFOuECF/NvJuZ8eP
/UkPoB0xV9KMxki4TbFkDKUtNjqMh0MceKL9QqYIUfEauQLEEuI01pAfMqxS1SP3
W8mVrLKKzMOgaGkTsI1m/PGJ84vN2LVa3OnRkBqEJ84p9CYwU6PGgUUMPgoOPGFH
Zzmll+r5OPad86ws7TnYdVCd4DvailmTik5Xyeddn3Cucrir+HwBPJdHuwSriht+
fcqutD/bCVpD0a58Mc+NPHqoL8BgNV6Lkw6xLxcfOk7GjQ9RrcK30u7vL1uVbaNB
HU9pLeovqvBjW5RPxF0yjifr16tB+TrJ2ApmzoXqB6Js5rE4P9AHRS0WR9b+32mp
UwIDAQABo4IBYzCCAV8wCQYDVR0TBAIwADAtBglghkgBhvhCAQ0EIBYeRWFzeS1S
U0EgR2VuZXJhdGVkIENlcnRpZmljYXRlMB0GA1UdDgQWBBRUl4TNWaRlWnj6Urwz
L7NTKBq59TCB4QYDVR0jBIHZMIHWgBQSzWAE0qCAnnDtxpm4eyzGUv0ZoaGBsqSB
rzCBrDELMAkGA1UEBhMCVVMxCzAJBgNVBAgTAk9IMREwDwYDVQQHEwhDb2x1bWJ1
czESMBAGA1UEChMJVmlraW5nVlBOMR0wGwYDVQQLExRNeU9yZ2FuaXphdGlvbmFs
VW5pdDEVMBMGA1UEAxMMVmlraW5nVlBOIENBMRAwDgYDVQQpEwdFYXN5UlNBMSEw
HwYJKoZIhvcNAQkBFhJtZUBteWhvc3QubXlkb21haW6CCQDPNYXugL8qPjATBgNV
HSUEDDAKBggrBgEFBQcDAjALBgNVHQ8EBAMCB4AwDQYJKoZIhvcNAQEEBQADggIB
AD2yr0lvG6imExkRSAuuANX/eY7L1R0+7Uty5iZMgnwyFQofTZFvATfdXFHo5QoC
1D4Ypp8tnGUtW+nHamV2/i1DE1GllLE/zxLYe1N7M2gTD0p2CTAqR3PYFqtTLJlq
Cssm4zmhz4b0Z2safNRmEoM6B2h7pl0NpEdL0hglxI14HHeLH0uF/VSoDuyVeH2v
QVYnAdBgxEfihxGOb8kWLummCt2Du4njveLRA9JLTNY8c98I7csaCZRYL18hCXuB
23mPwjqKfrbGONQ3hhz0cyIL+dxo6risYZa315uuIcP4eqAzD5Eal/JjoItdyWTv
DDYjxwQG4+UyYt4lOCloaNSHfnXdV2Rbc4nlH4djQZuXJCZvWZX+gyX/qjwbIzU1
awYV8UcaeIgQYmXYSRtYb5N9NK5bgCmIBurNSaTiB7WpHTm6hMakOf5RL01sG0p1
l5O8Nogo9Uk8AY+gdVSFSBLjbxZycnaoDuXLWdZtjHDhVnshiW3uFguLrICaAHfy
DnMAHWFbwj7jCh07Eovm6EcNomreIlxBHRG4u+B/1UqTwmqzs0b6jG//Ybq3G8Oa
hQ4+3vQPwsWskJXoY3KDjZ70C0zK/Jb8qp8HQRdM5YAHSQ5UpxtSkrT26nUky8jX
bYgRzZd80bJdua9xbYVPB7Mv1VgLPExYockyxb5Yc1Fi
-----END CERTIFICATE-----
