Certificate:
    Data:
        Version: 3 (0x2)
        Serial Number: 3818 (0xeea)
    Signature Algorithm: md5WithRSAEncryption
        Issuer: C=US, ST=OH, L=Columbus, O=VikingVPN, OU=MyOrganizationalUnit, CN=VikingVPN CA/name=EasyRSA/emailAddress=me@myhost.mydomain
        Validity
            Not Before: Dec 29 21:10:35 2014 GMT
            Not After : Dec 26 21:10:35 2024 GMT
        Subject: CN=Client801Certc6cd8c
        Subject Public Key Info:
            Public Key Algorithm: rsaEncryption
                Public-Key: (4096 bit)
                Modulus:
                    00:cf:ed:fd:03:67:ea:cb:f2:27:f8:07:fa:8b:cb:
                    51:79:b3:b2:a0:64:27:11:54:37:86:67:55:a1:44:
                    a9:90:ed:c9:5e:b6:26:74:7d:a3:4f:2d:d5:ab:f4:
                    a7:0c:f7:32:1d:c2:43:60:1c:0b:24:04:71:70:77:
                    d9:71:cb:7e:c2:fc:71:fc:fb:9b:96:d4:3e:0d:76:
                    58:cc:ce:be:c2:e7:f5:35:56:81:e6:69:75:ad:81:
                    b1:b1:fe:a1:5e:bb:c5:b9:19:a1:11:be:b5:79:65:
                    bf:00:8e:0d:7f:b4:78:d7:18:ab:c7:87:36:31:25:
                    66:06:cb:36:63:04:d9:8b:60:b1:2a:30:0e:b3:a6:
                    48:e9:8a:a9:6f:42:87:58:00:3e:98:0d:48:f7:7e:
                    92:8f:82:b6:8c:43:4a:e4:b7:55:0b:ec:35:80:f4:
                    9c:d7:02:55:46:e1:d6:6c:11:36:16:30:81:cf:ae:
                    ca:54:37:72:01:c7:47:2e:28:8f:9d:76:85:12:aa:
                    e8:f5:97:16:d4:85:ed:f4:c9:3c:19:72:8c:2f:49:
                    fc:cf:73:e4:08:89:a4:14:d6:9a:99:33:e0:f9:12:
                    a2:ae:96:96:bd:b7:56:79:76:da:b5:91:c9:1c:d6:
                    b6:75:70:42:aa:b1:dd:f4:ea:e9:77:01:bd:4f:e3:
                    a5:32:4a:a8:67:0a:f4:5b:4a:60:47:11:22:59:e3:
                    26:73:61:43:d3:c6:35:f5:9c:e7:90:0b:d5:fb:cd:
                    4a:d3:ae:65:28:14:ad:3d:7e:4c:2e:fb:ec:80:64:
                    4c:1a:58:31:cd:03:85:16:2f:b4:71:a8:02:44:d4:
                    ce:3a:56:62:22:6a:c3:cb:1c:06:4b:20:64:4e:4d:
                    51:75:ec:ae:ac:fe:fb:08:ce:b0:35:fa:21:c7:f3:
                    b8:01:18:c8:36:b0:5d:bb:95:17:5a:81:4a:0e:ef:
                    40:30:23:51:2b:25:22:8a:e9:8b:04:a6:f0:b5:9b:
                    63:9a:9a:8b:0b:6e:80:93:ae:38:e6:28:69:46:78:
                    2c:fb:d9:58:ef:39:23:d0:c8:3b:7d:9c:08:db:12:
                    38:05:f8:05:45:73:5b:86:c4:dd:20:8d:04:45:df:
                    7e:e9:98:32:4f:09:67:e7:ad:3d:88:e5:7a:36:b8:
                    f8:30:03:6a:b4:62:31:6f:30:2f:14:a7:ee:7f:2c:
                    8a:45:65:41:73:4b:34:63:7a:30:af:40:76:d3:65:
                    43:24:29:34:65:94:46:84:b8:96:b8:d0:b6:f1:a7:
                    e1:48:12:45:7d:02:f0:40:1e:76:65:ed:9d:ae:93:
                    ec:3b:11:19:2b:6b:a6:00:28:54:1b:f7:b9:83:80:
                    6c:59:f5
                Exponent: 65537 (0x10001)
        X509v3 extensions:
            X509v3 Basic Constraints: 
                CA:FALSE
            Netscape Comment: 
                Easy-RSA Generated Certificate
            X509v3 Subject Key Identifier: 
                16:50:6C:DE:90:A0:9B:2D:E9:BC:38:5E:CA:F6:57:0B:A3:D3:E2:76
            X509v3 Authority Key Identifier: 
                keyid:12:CD:60:04:D2:A0:80:9E:70:ED:C6:99:B8:7B:2C:C6:52:FD:19:A1
                DirName:/C=US/ST=OH/L=Columbus/O=VikingVPN/OU=MyOrganizationalUnit/CN=VikingVPN CA/name=EasyRSA/emailAddress=me@myhost.mydomain
                serial:CF:35:85:EE:80:BF:2A:3E

            X509v3 Extended Key Usage: 
                TLS Web Client Authentication
            X509v3 Key Usage: 
                Digital Signature
    Signature Algorithm: md5WithRSAEncryption
         ca:2a:65:ca:1e:1b:a5:06:34:01:71:25:08:1b:73:be:de:ed:
         47:0b:be:c9:23:71:e6:37:8f:e4:aa:05:d8:71:28:68:3a:ca:
         7a:d3:d9:4d:ed:ae:9d:a3:cd:13:0a:f2:3b:3e:bf:4d:e8:8f:
         61:22:b2:d2:94:47:ef:56:1c:1e:c8:b1:40:74:6f:6a:0d:ec:
         cc:3c:f8:62:80:90:f4:85:cc:3c:db:fd:17:b3:c8:29:e0:2c:
         11:ca:53:ac:57:0a:aa:65:af:e7:35:86:2d:3d:1e:2f:73:e9:
         c1:fc:a6:e5:e1:bf:0a:31:76:b7:c8:39:d2:39:88:38:6f:43:
         d2:9d:0f:86:e1:c1:16:b1:40:ae:d7:84:ef:ee:be:32:87:a9:
         d9:e2:c6:e9:48:8a:3e:f9:db:29:e1:97:fc:4c:90:ea:96:b2:
         f0:8e:43:0b:4a:97:1c:f7:34:de:9c:bb:7c:ef:57:3f:09:ee:
         de:89:0a:ca:62:35:93:60:33:ec:83:98:41:79:af:6b:7e:48:
         41:cf:be:43:23:c4:9b:6e:6f:41:d5:59:cb:46:f4:99:a3:87:
         44:0f:0e:b8:a5:5f:55:3d:19:6d:63:e8:5a:20:f6:81:2c:1d:
         3b:07:d8:15:29:4a:69:c1:37:64:e0:a0:1d:87:b6:a5:fd:f7:
         2d:37:0a:d4:3c:10:b3:63:cd:0c:ac:8f:2e:b7:64:69:35:a0:
         06:e4:fd:49:8a:16:5c:47:84:63:f7:6a:5f:ae:66:82:15:04:
         e9:4b:f3:af:61:f4:88:c5:7b:34:93:46:50:07:b8:f6:46:9c:
         be:2a:26:71:4b:84:54:dc:53:e8:da:c9:0f:d1:b5:7a:be:ad:
         0f:fa:26:f5:d2:2a:f6:24:66:84:1f:a8:3e:15:49:30:38:32:
         3d:8c:a1:87:c7:3e:5f:16:55:98:aa:c6:fe:27:b3:e2:d2:bd:
         d6:15:33:2a:84:c2:7d:ff:f1:34:09:1a:bc:17:71:46:5c:cb:
         f1:8e:f4:29:c6:88:51:82:a2:8a:d5:c5:8e:f9:23:46:05:ec:
         fe:fd:d6:90:ee:8d:55:2a:92:a5:62:29:cc:27:1e:a2:92:1e:
         7c:33:ae:ac:8f:5a:e6:99:20:06:fd:a8:e5:e3:26:bd:7b:ed:
         7c:c3:24:05:50:d9:2a:e4:3d:20:f8:97:71:e5:89:1d:b7:e5:
         1d:1f:c6:c6:81:0c:6c:18:12:52:64:93:1b:cf:34:a8:78:b5:
         03:be:2f:59:5c:71:76:eb:75:8b:5b:ca:d9:61:c1:3b:fc:b3:
         d1:b8:a6:2d:a7:ce:11:23:e0:6d:ce:54:ea:33:5f:b6:3c:43:
         76:eb:a1:d8:5d:9f:51:2b
-----BEGIN CERTIFICATE-----
MIIGrDCCBJSgAwIBAgICDuowDQYJKoZIhvcNAQEEBQAwgawxCzAJBgNVBAYTAlVT
MQswCQYDVQQIEwJPSDERMA8GA1UEBxMIQ29sdW1idXMxEjAQBgNVBAoTCVZpa2lu
Z1ZQTjEdMBsGA1UECxMUTXlPcmdhbml6YXRpb25hbFVuaXQxFTATBgNVBAMTDFZp
a2luZ1ZQTiBDQTEQMA4GA1UEKRMHRWFzeVJTQTEhMB8GCSqGSIb3DQEJARYSbWVA
bXlob3N0Lm15ZG9tYWluMB4XDTE0MTIyOTIxMTAzNVoXDTI0MTIyNjIxMTAzNVow
HjEcMBoGA1UEAxMTQ2xpZW50ODAxQ2VydGM2Y2Q4YzCCAiIwDQYJKoZIhvcNAQEB
BQADggIPADCCAgoCggIBAM/t/QNn6svyJ/gH+ovLUXmzsqBkJxFUN4ZnVaFEqZDt
yV62JnR9o08t1av0pwz3Mh3CQ2AcCyQEcXB32XHLfsL8cfz7m5bUPg12WMzOvsLn
9TVWgeZpda2BsbH+oV67xbkZoRG+tXllvwCODX+0eNcYq8eHNjElZgbLNmME2Ytg
sSowDrOmSOmKqW9Ch1gAPpgNSPd+ko+CtoxDSuS3VQvsNYD0nNcCVUbh1mwRNhYw
gc+uylQ3cgHHRy4oj512hRKq6PWXFtSF7fTJPBlyjC9J/M9z5AiJpBTWmpkz4PkS
oq6Wlr23Vnl22rWRyRzWtnVwQqqx3fTq6XcBvU/jpTJKqGcK9FtKYEcRIlnjJnNh
Q9PGNfWc55AL1fvNStOuZSgUrT1+TC777IBkTBpYMc0DhRYvtHGoAkTUzjpWYiJq
w8scBksgZE5NUXXsrqz++wjOsDX6IcfzuAEYyDawXbuVF1qBSg7vQDAjUSslIorp
iwSm8LWbY5qaiwtugJOuOOYoaUZ4LPvZWO85I9DIO32cCNsSOAX4BUVzW4bE3SCN
BEXffumYMk8JZ+etPYjleja4+DADarRiMW8wLxSn7n8sikVlQXNLNGN6MK9AdtNl
QyQpNGWURoS4lrjQtvGn4UgSRX0C8EAedmXtna6T7DsRGStrpgAoVBv3uYOAbFn1
AgMBAAGjggFjMIIBXzAJBgNVHRMEAjAAMC0GCWCGSAGG+EIBDQQgFh5FYXN5LVJT
QSBHZW5lcmF0ZWQgQ2VydGlmaWNhdGUwHQYDVR0OBBYEFBZQbN6QoJst6bw4Xsr2
Vwuj0+J2MIHhBgNVHSMEgdkwgdaAFBLNYATSoICecO3Gmbh7LMZS/RmhoYGypIGv
MIGsMQswCQYDVQQGEwJVUzELMAkGA1UECBMCT0gxETAPBgNVBAcTCENvbHVtYnVz
MRIwEAYDVQQKEwlWaWtpbmdWUE4xHTAbBgNVBAsTFE15T3JnYW5pemF0aW9uYWxV
bml0MRUwEwYDVQQDEwxWaWtpbmdWUE4gQ0ExEDAOBgNVBCkTB0Vhc3lSU0ExITAf
BgkqhkiG9w0BCQEWEm1lQG15aG9zdC5teWRvbWFpboIJAM81he6Avyo+MBMGA1Ud
JQQMMAoGCCsGAQUFBwMCMAsGA1UdDwQEAwIHgDANBgkqhkiG9w0BAQQFAAOCAgEA
yiplyh4bpQY0AXElCBtzvt7tRwu+ySNx5jeP5KoF2HEoaDrKetPZTe2unaPNEwry
Oz6/TeiPYSKy0pRH71YcHsixQHRvag3szDz4YoCQ9IXMPNv9F7PIKeAsEcpTrFcK
qmWv5zWGLT0eL3Ppwfym5eG/CjF2t8g50jmIOG9D0p0PhuHBFrFArteE7+6+Moep
2eLG6UiKPvnbKeGX/EyQ6pay8I5DC0qXHPc03py7fO9XPwnu3okKymI1k2Az7IOY
QXmva35IQc++QyPEm25vQdVZy0b0maOHRA8OuKVfVT0ZbWPoWiD2gSwdOwfYFSlK
acE3ZOCgHYe2pf33LTcK1DwQs2PNDKyPLrdkaTWgBuT9SYoWXEeEY/dqX65mghUE
6Uvzr2H0iMV7NJNGUAe49kacviomcUuEVNxT6NrJD9G1er6tD/om9dIq9iRmhB+o
PhVJMDgyPYyhh8c+XxZVmKrG/iez4tK91hUzKoTCff/xNAkavBdxRlzL8Y70KcaI
UYKiitXFjvkjRgXs/v3WkO6NVSqSpWIpzCceopIefDOurI9a5pkgBv2o5eMmvXvt
fMMkBVDZKuQ9IPiXceWJHbflHR/GxoEMbBgSUmSTG880qHi1A74vWVxxdut1i1vK
2WHBO/yz0bimLafOESPgbc5U6jNftjxDduuh2F2fUSs=
-----END CERTIFICATE-----
