Certificate:
    Data:
        Version: 3 (0x2)
        Serial Number: 3820 (0xeec)
    Signature Algorithm: md5WithRSAEncryption
        Issuer: C=US, ST=OH, L=Columbus, O=VikingVPN, OU=MyOrganizationalUnit, CN=VikingVPN CA/name=EasyRSA/emailAddress=me@myhost.mydomain
        Validity
            Not Before: Dec 29 21:10:41 2014 GMT
            Not After : Dec 26 21:10:41 2024 GMT
        Subject: CN=Client801Cert575f24
        Subject Public Key Info:
            Public Key Algorithm: rsaEncryption
                Public-Key: (4096 bit)
                Modulus:
                    00:c1:96:5e:2b:b5:65:a5:bd:bb:e7:04:30:f9:dc:
                    7b:b1:13:8b:30:34:8b:2a:bb:4d:c1:d4:d6:2e:b6:
                    2b:ca:d7:fa:70:22:0b:75:37:7a:9e:42:47:cf:4d:
                    dc:1b:7b:67:5c:bd:7a:e0:0b:f9:af:f3:59:8e:1f:
                    e1:5e:78:88:0d:99:a4:40:a6:f2:f2:d7:20:88:12:
                    32:85:aa:33:6e:08:0a:6e:6c:7c:4a:9c:69:af:89:
                    31:0c:67:cd:63:bb:a0:84:fe:7b:96:71:f3:90:55:
                    d0:5c:6a:fa:e8:e0:fe:b2:e7:5a:86:bf:18:18:03:
                    58:cc:60:94:98:70:e3:df:65:75:d6:61:d3:da:c9:
                    f6:0c:7f:9f:50:0c:81:51:b6:1d:f5:c5:28:4d:67:
                    ef:38:87:ef:95:d9:60:0d:49:9f:07:84:41:a3:1f:
                    71:b3:d2:64:c9:61:d9:9d:e8:99:44:f3:ec:b5:b5:
                    ac:06:2a:1a:47:e2:6d:ca:4f:95:07:fb:3b:e2:c1:
                    a5:43:80:1e:c5:f0:f8:2c:67:41:2b:0a:3a:3f:e4:
                    fe:a3:4d:3f:68:c6:5f:28:74:76:d2:12:18:08:67:
                    de:13:98:7c:f9:a4:32:64:f8:5b:cd:84:18:0b:69:
                    22:7d:63:e7:23:6e:06:24:c2:fc:17:86:30:15:7e:
                    a3:95:24:ae:2a:c8:01:cb:33:48:2f:06:d4:e0:79:
                    3e:9f:70:5d:3f:66:b7:f2:3f:ee:93:ea:53:40:06:
                    ee:63:4d:48:bb:57:76:1a:75:19:4c:f8:f2:92:73:
                    ba:95:88:b2:dc:92:c0:f6:91:cd:10:bc:b4:10:3e:
                    82:5d:c5:2f:34:01:f0:50:be:ab:45:bf:80:25:3b:
                    f5:84:6b:55:9a:5d:89:8a:25:d8:78:47:a9:47:43:
                    3e:9d:5b:d9:48:b1:a2:b1:d3:d7:19:60:fd:39:d4:
                    6c:38:37:31:7b:8d:26:ec:b1:ca:34:bb:97:77:8d:
                    6e:3d:b4:d9:fb:b5:26:f1:43:e6:7a:51:6b:e2:f7:
                    57:34:f9:d9:fd:dd:c8:a2:43:aa:89:85:20:ec:7b:
                    27:a4:94:90:57:29:fb:c8:a1:d0:e4:28:a2:68:11:
                    6a:6a:19:ca:b8:bc:57:a8:23:0a:e5:ad:c2:74:0a:
                    9d:71:51:44:c7:05:13:87:77:96:36:e2:4e:8c:de:
                    7e:80:50:92:bd:8e:9d:99:3f:2e:9f:a8:2c:47:a1:
                    4a:f2:b9:6f:30:36:ea:a9:42:39:81:c4:bb:ce:e8:
                    fc:3e:6a:3e:b7:ec:d1:bb:8e:7b:76:6a:4a:a9:ca:
                    d8:d7:c3:19:7b:34:c8:f1:7b:b0:fd:6b:fd:04:79:
                    69:3d:b1
                Exponent: 65537 (0x10001)
        X509v3 extensions:
            X509v3 Basic Constraints: 
                CA:FALSE
            Netscape Comment: 
                Easy-RSA Generated Certificate
            X509v3 Subject Key Identifier: 
                FC:DB:07:F2:B6:2E:11:38:77:F6:8C:2F:9A:FD:B7:62:B9:1D:21:4B
            X509v3 Authority Key Identifier: 
                keyid:12:CD:60:04:D2:A0:80:9E:70:ED:C6:99:B8:7B:2C:C6:52:FD:19:A1
                DirName:/C=US/ST=OH/L=Columbus/O=VikingVPN/OU=MyOrganizationalUnit/CN=VikingVPN CA/name=EasyRSA/emailAddress=me@myhost.mydomain
                serial:CF:35:85:EE:80:BF:2A:3E

            X509v3 Extended Key Usage: 
                TLS Web Client Authentication
            X509v3 Key Usage: 
                Digital Signature
    Signature Algorithm: md5WithRSAEncryption
         97:da:71:29:ac:2a:5c:80:2e:71:7c:45:74:23:d3:b0:ae:53:
         ac:cb:6a:ca:3d:0d:e3:c7:03:f3:6f:96:d1:40:13:86:3a:ab:
         b6:ca:c7:5d:0f:c8:78:e1:5b:1c:24:b5:8a:89:6b:b8:76:27:
         fe:cc:1c:ca:cb:79:6d:9f:20:1b:94:4e:6c:46:2d:d8:ee:70:
         fa:bd:fa:59:a6:d5:d0:67:d4:7e:b8:6b:4e:31:76:a1:7f:d6:
         a8:43:ad:09:84:c2:c5:ef:29:e6:fb:ca:db:1c:4b:f5:59:6f:
         ba:16:8e:33:a1:ab:1e:56:83:b1:a8:03:2a:2c:bf:fd:11:43:
         27:5f:59:42:25:9b:4a:a5:5f:11:66:52:8c:c1:f0:9b:1d:26:
         ca:06:8b:4c:f9:a4:45:a9:a2:13:56:23:d6:49:dd:bc:72:42:
         04:f0:11:12:54:dc:78:01:67:22:cb:dd:2f:f4:c6:ff:5a:67:
         a4:a3:48:77:bc:86:4d:84:cc:42:2b:94:e9:0e:ae:f8:e0:b4:
         1d:60:bb:61:0e:45:5e:66:bd:50:4f:a3:3e:74:5a:6f:33:13:
         d4:1f:03:55:6d:bb:5b:8b:eb:d4:76:9e:de:99:e4:e7:dd:6f:
         32:bf:90:ea:f4:a3:5f:08:b4:b4:70:be:ee:8c:d6:0b:11:b3:
         46:76:44:de:b6:3e:d3:a9:7d:a6:b0:73:ea:90:ea:56:d7:4c:
         9e:b5:43:61:8f:7a:d5:2c:2a:e1:6d:ff:1d:5f:7f:7b:38:f5:
         ba:c4:40:1a:20:bf:54:45:38:92:83:4f:56:d3:b2:c6:69:96:
         a3:b9:0a:33:3e:5e:99:a7:51:21:22:a2:07:cf:54:f3:00:53:
         0d:f2:77:b1:e7:3a:56:49:74:c9:98:30:cd:4a:ad:37:b2:b4:
         59:f8:2d:88:5f:ef:e8:ca:dc:53:65:f1:da:41:6a:35:63:08:
         33:c9:ea:59:ce:ed:34:b8:9f:e7:54:93:74:94:88:9c:ce:67:
         3e:a4:46:55:36:d7:3f:ac:8c:3f:f7:24:38:d2:a3:8f:fd:35:
         7b:6a:77:18:62:4a:9d:ce:dc:17:a1:59:6b:7f:53:6d:25:fc:
         b4:ac:57:84:cb:a2:8f:39:46:ae:03:49:84:37:33:21:e2:7a:
         26:3a:8f:dd:62:af:50:48:28:74:b4:9e:57:01:d5:af:c2:70:
         c6:83:5f:5d:51:a6:2d:67:4b:fc:f7:ea:d1:af:60:e9:24:44:
         86:82:61:7a:3e:e1:6f:21:a3:b9:d3:e0:33:b5:55:1b:41:0a:
         fd:e4:22:0e:1f:a5:32:bf:8d:8a:69:d3:bc:84:56:dc:26:d4:
         66:37:22:1a:c2:a5:b6:3c
-----BEGIN CERTIFICATE-----
MIIGrDCCBJSgAwIBAgICDuwwDQYJKoZIhvcNAQEEBQAwgawxCzAJBgNVBAYTAlVT
MQswCQYDVQQIEwJPSDERMA8GA1UEBxMIQ29sdW1idXMxEjAQBgNVBAoTCVZpa2lu
Z1ZQTjEdMBsGA1UECxMUTXlPcmdhbml6YXRpb25hbFVuaXQxFTATBgNVBAMTDFZp
a2luZ1ZQTiBDQTEQMA4GA1UEKRMHRWFzeVJTQTEhMB8GCSqGSIb3DQEJARYSbWVA
bXlob3N0Lm15ZG9tYWluMB4XDTE0MTIyOTIxMTA0MVoXDTI0MTIyNjIxMTA0MVow
HjEcMBoGA1UEAxMTQ2xpZW50ODAxQ2VydDU3NWYyNDCCAiIwDQYJKoZIhvcNAQEB
BQADggIPADCCAgoCggIBAMGWXiu1ZaW9u+cEMPnce7ETizA0iyq7TcHU1i62K8rX
+nAiC3U3ep5CR89N3Bt7Z1y9euAL+a/zWY4f4V54iA2ZpECm8vLXIIgSMoWqM24I
Cm5sfEqcaa+JMQxnzWO7oIT+e5Zx85BV0Fxq+ujg/rLnWoa/GBgDWMxglJhw499l
ddZh09rJ9gx/n1AMgVG2HfXFKE1n7ziH75XZYA1JnweEQaMfcbPSZMlh2Z3omUTz
7LW1rAYqGkfibcpPlQf7O+LBpUOAHsXw+CxnQSsKOj/k/qNNP2jGXyh0dtISGAhn
3hOYfPmkMmT4W82EGAtpIn1j5yNuBiTC/BeGMBV+o5UkrirIAcszSC8G1OB5Pp9w
XT9mt/I/7pPqU0AG7mNNSLtXdhp1GUz48pJzupWIstySwPaRzRC8tBA+gl3FLzQB
8FC+q0W/gCU79YRrVZpdiYol2HhHqUdDPp1b2UixorHT1xlg/TnUbDg3MXuNJuyx
yjS7l3eNbj202fu1JvFD5npRa+L3VzT52f3dyKJDqomFIOx7J6SUkFcp+8ih0OQo
omgRamoZyri8V6gjCuWtwnQKnXFRRMcFE4d3ljbiTozefoBQkr2OnZk/Lp+oLEeh
SvK5bzA26qlCOYHEu87o/D5qPrfs0buOe3ZqSqnK2NfDGXs0yPF7sP1r/QR5aT2x
AgMBAAGjggFjMIIBXzAJBgNVHRMEAjAAMC0GCWCGSAGG+EIBDQQgFh5FYXN5LVJT
QSBHZW5lcmF0ZWQgQ2VydGlmaWNhdGUwHQYDVR0OBBYEFPzbB/K2LhE4d/aML5r9
t2K5HSFLMIHhBgNVHSMEgdkwgdaAFBLNYATSoICecO3Gmbh7LMZS/RmhoYGypIGv
MIGsMQswCQYDVQQGEwJVUzELMAkGA1UECBMCT0gxETAPBgNVBAcTCENvbHVtYnVz
MRIwEAYDVQQKEwlWaWtpbmdWUE4xHTAbBgNVBAsTFE15T3JnYW5pemF0aW9uYWxV
bml0MRUwEwYDVQQDEwxWaWtpbmdWUE4gQ0ExEDAOBgNVBCkTB0Vhc3lSU0ExITAf
BgkqhkiG9w0BCQEWEm1lQG15aG9zdC5teWRvbWFpboIJAM81he6Avyo+MBMGA1Ud
JQQMMAoGCCsGAQUFBwMCMAsGA1UdDwQEAwIHgDANBgkqhkiG9w0BAQQFAAOCAgEA
l9pxKawqXIAucXxFdCPTsK5TrMtqyj0N48cD82+W0UAThjqrtsrHXQ/IeOFbHCS1
iolruHYn/swcyst5bZ8gG5RObEYt2O5w+r36WabV0GfUfrhrTjF2oX/WqEOtCYTC
xe8p5vvK2xxL9VlvuhaOM6GrHlaDsagDKiy//RFDJ19ZQiWbSqVfEWZSjMHwmx0m
ygaLTPmkRamiE1Yj1kndvHJCBPARElTceAFnIsvdL/TG/1pnpKNId7yGTYTMQiuU
6Q6u+OC0HWC7YQ5FXma9UE+jPnRabzMT1B8DVW27W4vr1Hae3pnk591vMr+Q6vSj
Xwi0tHC+7ozWCxGzRnZE3rY+06l9prBz6pDqVtdMnrVDYY961Swq4W3/HV9/ezj1
usRAGiC/VEU4koNPVtOyxmmWo7kKMz5emadRISKiB89U8wBTDfJ3sec6Vkl0yZgw
zUqtN7K0WfgtiF/v6MrcU2Xx2kFqNWMIM8nqWc7tNLif51STdJSInM5nPqRGVTbX
P6yMP/ckONKjj/01e2p3GGJKnc7cF6FZa39TbSX8tKxXhMuijzlGrgNJhDczIeJ6
JjqP3WKvUEgodLSeVwHVr8JwxoNfXVGmLWdL/Pfq0a9g6SREhoJhej7hbyGjudPg
M7VVG0EK/eQiDh+lMr+NimnTvIRW3CbUZjciGsKltjw=
-----END CERTIFICATE-----
