Certificate:
    Data:
        Version: 3 (0x2)
        Serial Number: 3832 (0xef8)
    Signature Algorithm: md5WithRSAEncryption
        Issuer: C=US, ST=OH, L=Columbus, O=VikingVPN, OU=MyOrganizationalUnit, CN=VikingVPN CA/name=EasyRSA/emailAddress=me@myhost.mydomain
        Validity
            Not Before: Dec 29 21:12:45 2014 GMT
            Not After : Dec 26 21:12:45 2024 GMT
        Subject: CN=Client801Cert76c17c
        Subject Public Key Info:
            Public Key Algorithm: rsaEncryption
                Public-Key: (4096 bit)
                Modulus:
                    00:da:ac:99:06:87:34:92:50:17:6c:89:10:e4:8f:
                    54:b7:9d:1e:26:fc:67:2f:f8:9d:01:36:90:98:9c:
                    b6:e3:62:cb:a3:87:cd:34:fc:6e:0a:67:be:00:f6:
                    da:7a:40:4f:57:59:e5:46:3d:9f:47:0d:24:f9:f6:
                    43:75:eb:b7:42:ca:a5:12:45:e1:1a:06:c4:86:ac:
                    4c:ce:39:1c:f7:55:b3:21:25:bc:30:09:de:23:25:
                    db:78:25:67:09:35:77:12:cf:76:3f:bf:39:9c:a0:
                    36:09:bc:6b:53:e9:b7:61:20:be:04:27:6b:c9:32:
                    29:60:40:09:97:ce:ad:51:ab:73:ad:7f:16:62:e0:
                    eb:ef:59:cf:ca:91:e0:de:a6:b4:99:3b:d9:19:ed:
                    0a:f7:60:f9:bb:f3:54:09:9f:a4:51:8f:27:91:7a:
                    73:b7:8a:6a:53:37:1f:d7:93:1f:35:61:ec:5d:0f:
                    45:e1:68:9c:cc:95:4c:c4:11:ce:fe:c4:6c:dc:fb:
                    1d:63:c2:32:7a:7c:16:e9:2b:02:7c:2e:25:33:a5:
                    41:67:97:53:0b:ea:ba:8b:45:4d:15:3c:44:af:88:
                    90:30:91:73:af:8f:bd:60:3a:34:b6:64:46:c5:6f:
                    27:76:3d:05:bc:74:a5:7b:03:c7:f0:78:41:48:8e:
                    fb:af:96:7d:d6:5a:2d:2b:a2:d6:1e:2c:42:29:31:
                    27:59:a5:66:c6:cd:79:b1:0a:df:f0:d9:b5:a0:8f:
                    57:cd:de:9c:e2:03:d1:f1:84:32:63:7f:31:9f:a2:
                    a1:cf:ef:b8:bf:4a:e6:4a:85:49:a6:f1:dd:17:75:
                    0c:9b:1a:f0:f4:46:c0:75:d7:7c:a9:67:67:eb:1d:
                    90:42:f4:02:86:e9:07:a4:77:a5:75:be:53:50:64:
                    52:8b:a1:fb:62:d3:39:66:5f:b4:cb:2e:41:74:f1:
                    49:df:b9:ab:3b:19:d5:f1:92:a4:46:b0:14:26:5e:
                    7a:9c:4e:72:a6:f1:fb:79:6f:9e:e5:2f:a8:0f:f3:
                    09:e1:51:2a:87:ca:fe:0f:90:d9:41:12:0a:43:ea:
                    86:b4:67:d2:5e:e3:78:61:97:a4:a1:16:75:74:24:
                    58:4d:51:70:b1:68:3b:ed:79:c2:71:25:22:f6:bc:
                    50:fe:45:c5:fa:04:51:36:e6:a3:27:0c:f5:07:eb:
                    2e:b8:4b:74:25:de:89:df:27:7a:22:cf:7d:b0:6f:
                    0e:17:85:03:60:50:1c:02:24:30:3a:6d:87:a1:19:
                    06:df:f1:6c:b3:6b:dd:25:b5:14:6d:a6:5a:77:fb:
                    3b:28:39:85:06:e7:f5:6e:ab:1d:2a:47:ff:ca:02:
                    15:a3:7b
                Exponent: 65537 (0x10001)
        X509v3 extensions:
            X509v3 Basic Constraints: 
                CA:FALSE
            Netscape Comment: 
                Easy-RSA Generated Certificate
            X509v3 Subject Key Identifier: 
                44:81:EF:27:4B:99:07:32:A4:6F:3E:F4:ED:5E:05:3D:36:FB:D0:62
            X509v3 Authority Key Identifier: 
                keyid:12:CD:60:04:D2:A0:80:9E:70:ED:C6:99:B8:7B:2C:C6:52:FD:19:A1
                DirName:/C=US/ST=OH/L=Columbus/O=VikingVPN/OU=MyOrganizationalUnit/CN=VikingVPN CA/name=EasyRSA/emailAddress=me@myhost.mydomain
                serial:CF:35:85:EE:80:BF:2A:3E

            X509v3 Extended Key Usage: 
                TLS Web Client Authentication
            X509v3 Key Usage: 
                Digital Signature
    Signature Algorithm: md5WithRSAEncryption
         ab:a2:8d:09:2e:c7:b7:c0:fc:f6:3c:64:76:18:4b:ab:2e:c9:
         71:45:80:a6:d9:55:96:e4:b9:97:1f:dd:a0:62:be:95:00:99:
         e1:d5:8b:ac:d2:a7:5e:47:7c:10:30:08:15:5e:97:a7:6e:02:
         d8:ae:39:c6:a1:77:f5:d0:e5:4c:9b:1b:d0:b2:63:fd:77:85:
         b8:78:21:04:27:81:df:65:c9:01:a3:eb:04:13:84:3c:bc:ca:
         fc:ed:a4:ae:8b:47:44:6b:2c:2a:9d:c1:1c:53:03:79:31:de:
         26:c0:13:8c:93:30:db:91:2a:58:50:a3:87:53:ea:97:32:66:
         dc:c7:ff:48:d7:71:a3:05:a9:ae:13:d5:75:76:27:3b:32:cb:
         fe:26:af:8e:f2:b6:69:be:f2:2e:ad:66:4e:cc:22:a5:ba:c9:
         66:15:52:03:2d:2a:1b:27:eb:63:16:99:5b:84:0a:1a:1e:3e:
         34:0e:53:8f:de:c7:b3:97:02:69:4f:f5:c4:9b:d9:d1:c6:60:
         ac:3d:b1:1c:18:d3:84:4b:9b:09:9e:47:14:44:bc:82:a3:9b:
         3b:85:c6:df:76:24:85:c5:0b:3c:77:f2:80:91:67:cd:f3:d9:
         54:4c:32:c1:b6:c0:ff:21:70:81:89:b4:bc:3e:98:4d:e1:0f:
         ee:87:08:b4:d6:31:48:01:49:b8:78:0a:f2:11:4e:0f:8c:fa:
         3d:95:54:18:c8:36:14:90:ac:7e:b1:44:f5:d9:60:e0:17:05:
         96:b5:b7:ed:15:d1:26:44:c1:ab:66:17:1e:79:eb:13:30:d9:
         62:99:36:bf:de:96:31:ce:e4:fc:ee:61:eb:fd:20:cc:9e:18:
         1a:be:dd:d0:93:46:07:5f:50:19:58:bb:b1:50:31:46:4a:57:
         a0:47:8d:f7:6a:34:ff:9f:58:1a:de:e9:71:21:f4:14:d4:bb:
         1a:7a:7e:17:3e:ce:79:8c:40:49:69:7a:6a:a8:53:47:da:cb:
         c8:ca:8f:be:79:4f:c0:68:35:47:13:63:1d:a4:ff:7c:bd:a2:
         8f:fc:6d:e5:6c:91:c4:05:e4:c0:7d:3f:d7:6d:a2:51:74:87:
         4d:a3:e1:18:6a:35:d0:92:82:74:50:28:70:f7:ab:3c:92:70:
         90:86:c2:e5:b8:12:65:23:8f:dd:8e:a9:07:72:08:03:19:18:
         e2:46:90:19:a9:bd:4b:35:ca:2d:78:6e:73:8f:d3:1e:96:e6:
         ff:a8:1f:a7:05:3b:0d:f5:36:9b:a1:7c:b7:13:6a:71:1c:45:
         10:8f:ef:f7:fb:62:62:2d:f2:24:a2:98:57:68:50:9e:38:8d:
         73:cd:a6:a5:3d:b7:44:d8
-----BEGIN CERTIFICATE-----
MIIGrDCCBJSgAwIBAgICDvgwDQYJKoZIhvcNAQEEBQAwgawxCzAJBgNVBAYTAlVT
MQswCQYDVQQIEwJPSDERMA8GA1UEBxMIQ29sdW1idXMxEjAQBgNVBAoTCVZpa2lu
Z1ZQTjEdMBsGA1UECxMUTXlPcmdhbml6YXRpb25hbFVuaXQxFTATBgNVBAMTDFZp
a2luZ1ZQTiBDQTEQMA4GA1UEKRMHRWFzeVJTQTEhMB8GCSqGSIb3DQEJARYSbWVA
bXlob3N0Lm15ZG9tYWluMB4XDTE0MTIyOTIxMTI0NVoXDTI0MTIyNjIxMTI0NVow
HjEcMBoGA1UEAxMTQ2xpZW50ODAxQ2VydDc2YzE3YzCCAiIwDQYJKoZIhvcNAQEB
BQADggIPADCCAgoCggIBANqsmQaHNJJQF2yJEOSPVLedHib8Zy/4nQE2kJictuNi
y6OHzTT8bgpnvgD22npAT1dZ5UY9n0cNJPn2Q3Xrt0LKpRJF4RoGxIasTM45HPdV
syElvDAJ3iMl23glZwk1dxLPdj+/OZygNgm8a1Ppt2EgvgQna8kyKWBACZfOrVGr
c61/FmLg6+9Zz8qR4N6mtJk72RntCvdg+bvzVAmfpFGPJ5F6c7eKalM3H9eTHzVh
7F0PReFonMyVTMQRzv7EbNz7HWPCMnp8FukrAnwuJTOlQWeXUwvquotFTRU8RK+I
kDCRc6+PvWA6NLZkRsVvJ3Y9Bbx0pXsDx/B4QUiO+6+WfdZaLSui1h4sQikxJ1ml
ZsbNebEK3/DZtaCPV83enOID0fGEMmN/MZ+ioc/vuL9K5kqFSabx3Rd1DJsa8PRG
wHXXfKlnZ+sdkEL0AobpB6R3pXW+U1BkUouh+2LTOWZftMsuQXTxSd+5qzsZ1fGS
pEawFCZeepxOcqbx+3lvnuUvqA/zCeFRKofK/g+Q2UESCkPqhrRn0l7jeGGXpKEW
dXQkWE1RcLFoO+15wnElIva8UP5FxfoEUTbmoycM9QfrLrhLdCXeid8neiLPfbBv
DheFA2BQHAIkMDpth6EZBt/xbLNr3SW1FG2mWnf7Oyg5hQbn9W6rHSpH/8oCFaN7
AgMBAAGjggFjMIIBXzAJBgNVHRMEAjAAMC0GCWCGSAGG+EIBDQQgFh5FYXN5LVJT
QSBHZW5lcmF0ZWQgQ2VydGlmaWNhdGUwHQYDVR0OBBYEFESB7ydLmQcypG8+9O1e
BT02+9BiMIHhBgNVHSMEgdkwgdaAFBLNYATSoICecO3Gmbh7LMZS/RmhoYGypIGv
MIGsMQswCQYDVQQGEwJVUzELMAkGA1UECBMCT0gxETAPBgNVBAcTCENvbHVtYnVz
MRIwEAYDVQQKEwlWaWtpbmdWUE4xHTAbBgNVBAsTFE15T3JnYW5pemF0aW9uYWxV
bml0MRUwEwYDVQQDEwxWaWtpbmdWUE4gQ0ExEDAOBgNVBCkTB0Vhc3lSU0ExITAf
BgkqhkiG9w0BCQEWEm1lQG15aG9zdC5teWRvbWFpboIJAM81he6Avyo+MBMGA1Ud
JQQMMAoGCCsGAQUFBwMCMAsGA1UdDwQEAwIHgDANBgkqhkiG9w0BAQQFAAOCAgEA
q6KNCS7Ht8D89jxkdhhLqy7JcUWAptlVluS5lx/doGK+lQCZ4dWLrNKnXkd8EDAI
FV6Xp24C2K45xqF39dDlTJsb0LJj/XeFuHghBCeB32XJAaPrBBOEPLzK/O2krotH
RGssKp3BHFMDeTHeJsATjJMw25EqWFCjh1PqlzJm3Mf/SNdxowWprhPVdXYnOzLL
/iavjvK2ab7yLq1mTswipbrJZhVSAy0qGyfrYxaZW4QKGh4+NA5Tj97Hs5cCaU/1
xJvZ0cZgrD2xHBjThEubCZ5HFES8gqObO4XG33YkhcULPHfygJFnzfPZVEwywbbA
/yFwgYm0vD6YTeEP7ocItNYxSAFJuHgK8hFOD4z6PZVUGMg2FJCsfrFE9dlg4BcF
lrW37RXRJkTBq2YXHnnrEzDZYpk2v96WMc7k/O5h6/0gzJ4YGr7d0JNGB19QGVi7
sVAxRkpXoEeN92o0/59YGt7pcSH0FNS7Gnp+Fz7OeYxASWl6aqhTR9rLyMqPvnlP
wGg1RxNjHaT/fL2ij/xt5WyRxAXkwH0/122iUXSHTaPhGGo10JKCdFAocPerPJJw
kIbC5bgSZSOP3Y6pB3IIAxkY4kaQGam9SzXKLXhuc4/THpbm/6gfpwU7DfU2m6F8
txNqcRxFEI/v9/tiYi3yJKKYV2hQnjiNc82mpT23RNg=
-----END CERTIFICATE-----
