Certificate:
    Data:
        Version: 3 (0x2)
        Serial Number: 3837 (0xefd)
    Signature Algorithm: md5WithRSAEncryption
        Issuer: C=US, ST=OH, L=Columbus, O=VikingVPN, OU=MyOrganizationalUnit, CN=VikingVPN CA/name=EasyRSA/emailAddress=me@myhost.mydomain
        Validity
            Not Before: Dec 29 21:16:47 2014 GMT
            Not After : Dec 26 21:16:47 2024 GMT
        Subject: CN=Client801Cert28aa4a
        Subject Public Key Info:
            Public Key Algorithm: rsaEncryption
                Public-Key: (4096 bit)
                Modulus:
                    00:db:2f:99:1f:c2:f6:ce:b1:5b:c9:80:53:b2:de:
                    ec:0d:98:2c:89:64:c5:bf:ff:cc:b7:62:be:95:89:
                    49:75:0c:f3:81:99:20:32:43:7b:d4:32:4c:83:66:
                    2c:48:1c:cc:81:86:d9:25:ff:ce:73:bf:ac:5f:13:
                    78:ce:f8:c9:4c:c1:eb:ac:2a:d3:f1:75:ab:24:a3:
                    ef:57:a9:12:fe:4b:49:b8:1d:89:e2:a8:4c:ea:45:
                    ee:06:e0:96:17:fe:d2:e4:bb:74:2b:b5:3f:f5:d1:
                    57:ba:e2:63:1e:5b:b1:12:32:7c:a3:38:87:e0:da:
                    2c:94:bb:2d:1f:95:d5:73:c3:91:e9:ec:bc:1b:e5:
                    95:75:50:6e:59:2d:fd:ef:66:e5:ae:17:a5:24:06:
                    ec:87:fc:af:76:07:9e:c4:51:ad:a4:3a:36:6f:fb:
                    da:7b:c1:61:e9:de:59:9b:c2:56:08:65:f7:5a:3f:
                    3d:04:c8:68:ec:88:4c:18:1b:c1:68:b6:e0:94:cb:
                    60:42:6b:4f:82:e6:2a:01:4c:62:d2:66:29:6c:dd:
                    b3:7d:11:0f:ff:10:ab:9e:37:38:2d:8c:11:2e:3c:
                    31:41:f6:82:9a:81:10:d5:2b:07:bf:9b:bb:6c:d2:
                    e7:53:68:84:59:40:f5:52:23:c1:e4:7c:f1:41:be:
                    fa:48:e8:bd:83:47:c5:0d:cc:10:51:40:c0:9c:e8:
                    42:e5:57:d7:ea:3b:fa:f5:4a:b4:72:d6:c3:35:55:
                    07:c8:d5:e5:8a:22:3e:21:d7:45:27:ee:88:84:99:
                    dc:63:43:cc:ab:02:ce:f6:10:3a:d9:16:46:83:89:
                    c6:a8:f5:4b:15:6e:ff:0d:de:de:03:f8:18:46:13:
                    f9:52:6f:f4:6f:55:88:42:73:f0:50:e4:70:e2:69:
                    8a:80:70:1b:be:1a:b3:08:d3:91:7b:52:8e:e3:1f:
                    4d:88:fb:d7:ff:79:40:06:9a:af:f9:3e:58:b9:2f:
                    69:ce:e0:69:cf:e8:fd:9d:2b:fb:20:6e:0d:22:70:
                    99:d0:d0:19:8e:de:a8:4e:72:18:a9:b1:30:84:12:
                    d0:dc:cd:26:f0:20:39:b8:0e:86:b0:43:a6:02:68:
                    de:26:e3:6a:e8:b8:7c:a1:2f:d1:a6:38:3d:e2:43:
                    2e:7f:8a:0b:a9:ad:80:f7:37:24:3a:1f:b8:4c:ac:
                    fd:37:79:88:34:2a:00:46:ba:a4:a3:f2:f8:2b:75:
                    78:8b:1b:21:41:c4:23:dd:3d:7f:70:03:c0:e2:72:
                    6f:13:2f:4d:b0:cd:76:64:ad:51:ca:dc:a7:70:bd:
                    2f:ba:a9:0c:53:52:4b:61:f9:6b:dc:07:7e:66:7f:
                    16:f3:77
                Exponent: 65537 (0x10001)
        X509v3 extensions:
            X509v3 Basic Constraints: 
                CA:FALSE
            Netscape Comment: 
                Easy-RSA Generated Certificate
            X509v3 Subject Key Identifier: 
                36:40:CC:73:6C:3C:82:6A:C0:71:07:F6:80:88:F3:28:18:03:AD:8C
            X509v3 Authority Key Identifier: 
                keyid:12:CD:60:04:D2:A0:80:9E:70:ED:C6:99:B8:7B:2C:C6:52:FD:19:A1
                DirName:/C=US/ST=OH/L=Columbus/O=VikingVPN/OU=MyOrganizationalUnit/CN=VikingVPN CA/name=EasyRSA/emailAddress=me@myhost.mydomain
                serial:CF:35:85:EE:80:BF:2A:3E

            X509v3 Extended Key Usage: 
                TLS Web Client Authentication
            X509v3 Key Usage: 
                Digital Signature
    Signature Algorithm: md5WithRSAEncryption
         ec:dc:63:03:11:0e:a8:1d:bc:d1:2f:cb:3e:d3:fc:34:d9:85:
         03:b6:92:a2:f9:1f:4d:b5:6d:4c:9b:dd:d3:4e:3f:9d:54:ba:
         46:f3:be:da:84:7b:64:31:78:49:b6:b3:2c:01:95:f3:99:26:
         67:f4:fa:12:ee:c3:88:c4:7a:71:25:8a:83:ea:98:c0:88:99:
         2f:8b:03:0a:54:64:0b:79:80:41:28:d1:7d:0c:34:0b:44:04:
         a9:84:09:7f:ac:4f:24:27:e0:8b:bc:d3:48:17:44:33:03:7d:
         39:06:6f:8f:38:56:43:61:bb:6f:11:a2:d9:af:f2:e2:ef:d5:
         a7:d1:e1:a3:b2:f2:e8:6f:ca:ec:aa:74:c5:cb:b7:30:02:6f:
         ae:90:25:80:c0:a3:4c:27:e4:c1:36:27:5c:bd:78:10:63:00:
         76:f6:ce:33:92:aa:78:47:2f:25:42:8a:02:6f:74:10:b9:7e:
         29:a8:66:b0:da:de:07:83:b6:95:1d:85:c3:ce:8f:0e:ba:29:
         47:6c:bb:d9:7f:00:6f:f1:f9:9b:1e:8d:48:51:77:ab:2d:46:
         3f:2a:fc:96:10:dd:07:06:13:f5:d9:6d:49:3f:6f:df:47:5e:
         d4:e1:b7:79:65:76:66:fd:90:f7:04:50:f8:1e:c1:b3:a2:68:
         f4:4f:03:1b:63:32:e9:48:fb:f7:29:43:3b:42:8a:a7:cf:d0:
         5a:60:0e:8f:69:46:72:8b:e4:1f:26:db:01:47:6f:b8:d9:07:
         b3:a1:a5:b9:5c:31:a6:69:45:58:24:45:dc:76:ca:0e:1d:e6:
         2a:85:b7:33:79:0b:d2:bb:cd:7c:9e:59:20:6b:41:00:7d:7f:
         da:46:6b:8b:e3:6a:e1:64:2d:1e:da:70:0e:0e:25:07:12:aa:
         b9:d8:e3:00:2c:3b:a9:85:14:c0:c6:f8:78:34:45:d4:fe:15:
         c8:10:bf:48:91:46:6a:69:e1:ce:d0:db:3e:b4:b4:b0:ba:d8:
         75:04:36:3c:b1:59:e9:43:67:f9:7b:4b:75:b4:26:da:e4:bd:
         78:e7:10:db:95:c2:5b:b8:58:ba:38:25:9e:cf:38:01:1f:9c:
         84:62:33:af:a5:12:19:29:cb:13:48:34:36:2e:28:bf:3d:41:
         3a:e9:c8:d0:92:c0:dc:7b:7a:ae:47:16:86:89:a6:8a:e7:eb:
         8a:1e:2a:27:75:0f:ae:0b:20:ed:56:39:f3:22:e1:78:41:02:
         d1:d2:97:e4:64:45:a3:1c:d1:1d:78:3c:2e:7d:b2:da:b6:e4:
         b3:4e:15:42:1e:9f:da:93:3f:39:73:3e:25:7f:13:f5:bd:de:
         c9:9b:38:16:58:79:86:e5
-----BEGIN CERTIFICATE-----
MIIGrDCCBJSgAwIBAgICDv0wDQYJKoZIhvcNAQEEBQAwgawxCzAJBgNVBAYTAlVT
MQswCQYDVQQIEwJPSDERMA8GA1UEBxMIQ29sdW1idXMxEjAQBgNVBAoTCVZpa2lu
Z1ZQTjEdMBsGA1UECxMUTXlPcmdhbml6YXRpb25hbFVuaXQxFTATBgNVBAMTDFZp
a2luZ1ZQTiBDQTEQMA4GA1UEKRMHRWFzeVJTQTEhMB8GCSqGSIb3DQEJARYSbWVA
bXlob3N0Lm15ZG9tYWluMB4XDTE0MTIyOTIxMTY0N1oXDTI0MTIyNjIxMTY0N1ow
HjEcMBoGA1UEAxMTQ2xpZW50ODAxQ2VydDI4YWE0YTCCAiIwDQYJKoZIhvcNAQEB
BQADggIPADCCAgoCggIBANsvmR/C9s6xW8mAU7Le7A2YLIlkxb//zLdivpWJSXUM
84GZIDJDe9QyTINmLEgczIGG2SX/znO/rF8TeM74yUzB66wq0/F1qySj71epEv5L
SbgdieKoTOpF7gbglhf+0uS7dCu1P/XRV7riYx5bsRIyfKM4h+DaLJS7LR+V1XPD
kensvBvllXVQblkt/e9m5a4XpSQG7If8r3YHnsRRraQ6Nm/72nvBYeneWZvCVghl
91o/PQTIaOyITBgbwWi24JTLYEJrT4LmKgFMYtJmKWzds30RD/8Qq543OC2MES48
MUH2gpqBENUrB7+bu2zS51NohFlA9VIjweR88UG++kjovYNHxQ3MEFFAwJzoQuVX
1+o7+vVKtHLWwzVVB8jV5YoiPiHXRSfuiISZ3GNDzKsCzvYQOtkWRoOJxqj1SxVu
/w3e3gP4GEYT+VJv9G9ViEJz8FDkcOJpioBwG74aswjTkXtSjuMfTYj71/95QAaa
r/k+WLkvac7gac/o/Z0r+yBuDSJwmdDQGY7eqE5yGKmxMIQS0NzNJvAgObgOhrBD
pgJo3ibjaui4fKEv0aY4PeJDLn+KC6mtgPc3JDofuEys/Td5iDQqAEa6pKPy+Ct1
eIsbIUHEI909f3ADwOJybxMvTbDNdmStUcrcp3C9L7qpDFNSS2H5a9wHfmZ/FvN3
AgMBAAGjggFjMIIBXzAJBgNVHRMEAjAAMC0GCWCGSAGG+EIBDQQgFh5FYXN5LVJT
QSBHZW5lcmF0ZWQgQ2VydGlmaWNhdGUwHQYDVR0OBBYEFDZAzHNsPIJqwHEH9oCI
8ygYA62MMIHhBgNVHSMEgdkwgdaAFBLNYATSoICecO3Gmbh7LMZS/RmhoYGypIGv
MIGsMQswCQYDVQQGEwJVUzELMAkGA1UECBMCT0gxETAPBgNVBAcTCENvbHVtYnVz
MRIwEAYDVQQKEwlWaWtpbmdWUE4xHTAbBgNVBAsTFE15T3JnYW5pemF0aW9uYWxV
bml0MRUwEwYDVQQDEwxWaWtpbmdWUE4gQ0ExEDAOBgNVBCkTB0Vhc3lSU0ExITAf
BgkqhkiG9w0BCQEWEm1lQG15aG9zdC5teWRvbWFpboIJAM81he6Avyo+MBMGA1Ud
JQQMMAoGCCsGAQUFBwMCMAsGA1UdDwQEAwIHgDANBgkqhkiG9w0BAQQFAAOCAgEA
7NxjAxEOqB280S/LPtP8NNmFA7aSovkfTbVtTJvd004/nVS6RvO+2oR7ZDF4Sbaz
LAGV85kmZ/T6Eu7DiMR6cSWKg+qYwIiZL4sDClRkC3mAQSjRfQw0C0QEqYQJf6xP
JCfgi7zTSBdEMwN9OQZvjzhWQ2G7bxGi2a/y4u/Vp9Hho7Ly6G/K7Kp0xcu3MAJv
rpAlgMCjTCfkwTYnXL14EGMAdvbOM5KqeEcvJUKKAm90ELl+KahmsNreB4O2lR2F
w86PDropR2y72X8Ab/H5mx6NSFF3qy1GPyr8lhDdBwYT9dltST9v30de1OG3eWV2
Zv2Q9wRQ+B7Bs6Jo9E8DG2My6Uj79ylDO0KKp8/QWmAOj2lGcovkHybbAUdvuNkH
s6GluVwxpmlFWCRF3HbKDh3mKoW3M3kL0rvNfJ5ZIGtBAH1/2kZri+Nq4WQtHtpw
Dg4lBxKqudjjACw7qYUUwMb4eDRF1P4VyBC/SJFGamnhztDbPrS0sLrYdQQ2PLFZ
6UNn+XtLdbQm2uS9eOcQ25XCW7hYujglns84AR+chGIzr6USGSnLE0g0Ni4ovz1B
OunI0JLA3Ht6rkcWhommiufrih4qJ3UPrgsg7VY58yLheEEC0dKX5GRFoxzRHXg8
Ln2y2rbks04VQh6f2pM/OXM+JX8T9b3eyZs4Flh5huU=
-----END CERTIFICATE-----
