Certificate:
    Data:
        Version: 3 (0x2)
        Serial Number: 3838 (0xefe)
    Signature Algorithm: md5WithRSAEncryption
        Issuer: C=US, ST=OH, L=Columbus, O=VikingVPN, OU=MyOrganizationalUnit, CN=VikingVPN CA/name=EasyRSA/emailAddress=me@myhost.mydomain
        Validity
            Not Before: Dec 29 21:16:54 2014 GMT
            Not After : Dec 26 21:16:54 2024 GMT
        Subject: CN=Client801Cert11d213
        Subject Public Key Info:
            Public Key Algorithm: rsaEncryption
                Public-Key: (4096 bit)
                Modulus:
                    00:da:68:86:df:b9:4f:9f:87:f0:87:0f:1f:f6:12:
                    d7:b0:0c:b1:87:01:7d:6d:09:cc:e6:3b:15:6e:e4:
                    05:42:5b:e5:90:4b:1c:6c:9d:9c:91:60:fb:0e:59:
                    a4:9e:91:41:d9:04:9c:57:5d:ac:fb:d6:d1:1d:c7:
                    b3:b9:31:0d:d9:b4:71:7f:ac:2c:d9:25:bc:75:f7:
                    ee:25:f0:bc:68:53:a9:8c:b2:8f:4f:af:28:da:01:
                    88:6b:12:86:e7:90:b5:6b:e9:e0:61:06:8a:bb:14:
                    0d:96:6f:57:1c:3d:ad:35:8a:ae:f5:42:94:6a:7b:
                    3b:86:88:68:ca:cf:f9:ad:f3:de:32:3d:f7:0e:b5:
                    eb:ed:c8:6c:f3:5f:fd:0f:05:07:95:07:d8:79:5d:
                    a7:1f:30:3f:5a:79:6a:b0:fa:44:6a:d7:d1:07:eb:
                    8a:83:fd:2c:5b:80:62:49:53:d5:73:e1:43:90:d2:
                    c5:f0:e3:e4:3a:35:a0:34:07:79:06:8f:bb:c6:39:
                    5e:fd:28:96:2d:ca:43:e4:d2:a7:c1:48:62:91:54:
                    de:3f:6c:a9:cb:17:3c:8a:49:7d:18:12:86:79:c1:
                    77:cc:42:b0:7e:d9:f6:55:5e:7a:a6:46:eb:a5:3a:
                    68:6d:6c:4d:64:4d:e0:73:6f:e1:06:9c:73:c3:7d:
                    98:ea:45:f5:15:7b:72:ef:49:5b:c8:f5:d3:fc:3b:
                    9f:38:e1:ce:c4:63:4d:df:d9:fc:c5:bb:e5:16:39:
                    c4:3c:a2:1f:90:cd:cb:19:89:e1:e7:a8:80:4c:60:
                    b5:d4:9e:bc:f6:e4:b3:38:06:e5:72:05:8d:49:0c:
                    70:ad:4c:02:ca:85:06:a1:95:3b:6e:1e:76:cf:16:
                    d4:ac:2d:1e:b1:1c:58:09:62:30:3c:39:18:42:87:
                    5a:dc:22:23:df:45:67:23:1d:42:91:11:b2:84:d7:
                    c5:ee:69:49:39:b4:b3:7c:72:fc:16:76:07:aa:26:
                    4a:6f:f6:d7:e1:53:bb:6a:d8:2d:cb:74:97:4a:61:
                    2f:61:71:9c:7a:e1:0b:e6:19:22:42:af:c8:8d:3d:
                    b8:18:0b:5e:fa:c5:f3:de:be:5a:95:13:0b:79:97:
                    68:b2:1c:de:7e:91:b7:66:71:ac:0b:02:61:97:86:
                    16:b9:03:a3:b0:db:fb:04:fe:d6:53:dc:f8:ac:b1:
                    48:9a:8e:ff:11:d7:95:e8:d5:bc:c9:1b:5d:3f:3c:
                    29:9a:ea:51:80:37:fe:be:4a:07:55:54:96:04:97:
                    62:33:62:e7:de:94:a2:6a:4a:fd:67:8d:7c:3e:49:
                    3e:19:e0:0b:6a:93:42:b2:a8:6d:46:2a:06:7e:fd:
                    c9:3a:07
                Exponent: 65537 (0x10001)
        X509v3 extensions:
            X509v3 Basic Constraints: 
                CA:FALSE
            Netscape Comment: 
                Easy-RSA Generated Certificate
            X509v3 Subject Key Identifier: 
                07:56:C4:98:38:24:0C:A5:86:C5:84:E0:AA:EE:87:40:A1:10:BF:3E
            X509v3 Authority Key Identifier: 
                keyid:12:CD:60:04:D2:A0:80:9E:70:ED:C6:99:B8:7B:2C:C6:52:FD:19:A1
                DirName:/C=US/ST=OH/L=Columbus/O=VikingVPN/OU=MyOrganizationalUnit/CN=VikingVPN CA/name=EasyRSA/emailAddress=me@myhost.mydomain
                serial:CF:35:85:EE:80:BF:2A:3E

            X509v3 Extended Key Usage: 
                TLS Web Client Authentication
            X509v3 Key Usage: 
                Digital Signature
    Signature Algorithm: md5WithRSAEncryption
         2a:60:9f:3e:f7:e1:6c:85:50:3a:b3:72:ad:50:9e:1e:5e:e8:
         69:8b:07:08:40:94:34:5e:95:3a:c8:b0:15:0d:96:19:96:69:
         01:c3:6c:90:7c:1f:23:c3:c0:c1:4d:40:c2:27:12:9f:d5:75:
         56:f3:36:89:a6:1a:d7:77:29:99:0a:8a:8b:63:26:c8:fd:6d:
         40:76:8e:59:1a:52:a8:ea:7b:28:53:15:46:53:b5:ef:e7:5d:
         cc:12:75:c6:cf:ed:55:f0:6e:2a:49:80:2e:7f:3e:2b:b1:40:
         b7:b3:46:3c:57:87:a0:86:6c:91:03:d6:02:3a:8e:41:39:30:
         1f:89:fe:25:0c:e7:a9:ee:d5:bc:1b:03:db:38:f7:78:29:45:
         6f:28:db:5e:55:ee:fb:46:43:f5:49:e2:dc:12:ae:4e:b4:fb:
         79:81:89:1c:70:25:61:f7:78:86:bc:f4:99:5e:fc:92:ef:ad:
         50:8a:94:3c:28:89:30:98:9a:95:18:46:d8:ec:36:9a:cb:dc:
         af:1d:10:e5:06:5a:4f:5b:6e:b6:ef:89:1c:02:88:fd:69:65:
         7c:0f:49:72:d7:c9:d7:7e:d9:3b:f3:27:17:c4:17:42:01:a3:
         11:c3:0d:be:0b:e0:2c:ff:3d:d0:ef:b1:84:ff:1f:5a:88:1b:
         0e:62:68:68:6d:d6:40:30:08:35:c1:7b:15:1d:14:fe:0b:24:
         36:dd:d5:d8:e9:74:c1:b9:f7:03:42:ee:35:4f:5c:90:e3:53:
         f9:cf:3a:65:40:19:25:20:6e:c7:fe:06:fc:ed:a1:a6:ac:3e:
         dd:c3:9a:cf:27:86:5d:55:80:b9:a3:ea:06:45:7a:fe:dd:6d:
         51:86:fb:e1:d0:e7:64:3a:fb:b5:9b:f3:4d:07:57:48:bc:2c:
         9b:bb:a2:2f:49:1b:b4:55:37:3f:0a:62:ca:8c:c9:b0:e4:79:
         89:11:6b:7e:27:3f:b0:e9:c4:dd:b0:58:72:ba:ec:23:f8:d3:
         17:52:35:bd:1a:b4:93:8c:64:81:bc:bf:b5:f8:61:a8:72:c1:
         d4:0f:29:86:af:a1:ec:d7:7e:c8:a6:2b:6d:38:18:94:36:9d:
         be:af:07:8b:1d:dc:06:dd:c0:e7:1f:33:6f:94:c1:68:d4:39:
         af:81:77:ca:c6:f3:b0:0a:c9:2b:3d:96:4f:53:f8:02:b0:a9:
         4b:ad:fd:3b:12:bc:86:45:58:55:73:10:d7:a2:ed:5d:39:0e:
         a0:8f:c5:7c:ee:67:5b:1c:da:ad:56:57:77:d6:5b:4a:ce:bb:
         0a:8c:75:70:e1:e8:8c:b2:6a:d6:7a:18:8c:cb:5c:55:29:dc:
         09:fd:20:98:9f:e8:e4:29
-----BEGIN CERTIFICATE-----
MIIGrDCCBJSgAwIBAgICDv4wDQYJKoZIhvcNAQEEBQAwgawxCzAJBgNVBAYTAlVT
MQswCQYDVQQIEwJPSDERMA8GA1UEBxMIQ29sdW1idXMxEjAQBgNVBAoTCVZpa2lu
Z1ZQTjEdMBsGA1UECxMUTXlPcmdhbml6YXRpb25hbFVuaXQxFTATBgNVBAMTDFZp
a2luZ1ZQTiBDQTEQMA4GA1UEKRMHRWFzeVJTQTEhMB8GCSqGSIb3DQEJARYSbWVA
bXlob3N0Lm15ZG9tYWluMB4XDTE0MTIyOTIxMTY1NFoXDTI0MTIyNjIxMTY1NFow
HjEcMBoGA1UEAxMTQ2xpZW50ODAxQ2VydDExZDIxMzCCAiIwDQYJKoZIhvcNAQEB
BQADggIPADCCAgoCggIBANpoht+5T5+H8IcPH/YS17AMsYcBfW0JzOY7FW7kBUJb
5ZBLHGydnJFg+w5ZpJ6RQdkEnFddrPvW0R3Hs7kxDdm0cX+sLNklvHX37iXwvGhT
qYyyj0+vKNoBiGsShueQtWvp4GEGirsUDZZvVxw9rTWKrvVClGp7O4aIaMrP+a3z
3jI99w616+3IbPNf/Q8FB5UH2Hldpx8wP1p5arD6RGrX0QfrioP9LFuAYklT1XPh
Q5DSxfDj5Do1oDQHeQaPu8Y5Xv0oli3KQ+TSp8FIYpFU3j9sqcsXPIpJfRgShnnB
d8xCsH7Z9lVeeqZG66U6aG1sTWRN4HNv4Qacc8N9mOpF9RV7cu9JW8j10/w7nzjh
zsRjTd/Z/MW75RY5xDyiH5DNyxmJ4eeogExgtdSevPbkszgG5XIFjUkMcK1MAsqF
BqGVO24eds8W1KwtHrEcWAliMDw5GEKHWtwiI99FZyMdQpERsoTXxe5pSTm0s3xy
/BZ2B6omSm/21+FTu2rYLct0l0phL2FxnHrhC+YZIkKvyI09uBgLXvrF896+WpUT
C3mXaLIc3n6Rt2ZxrAsCYZeGFrkDo7Db+wT+1lPc+KyxSJqO/xHXlejVvMkbXT88
KZrqUYA3/r5KB1VUlgSXYjNi596UompK/WeNfD5JPhngC2qTQrKobUYqBn79yToH
AgMBAAGjggFjMIIBXzAJBgNVHRMEAjAAMC0GCWCGSAGG+EIBDQQgFh5FYXN5LVJT
QSBHZW5lcmF0ZWQgQ2VydGlmaWNhdGUwHQYDVR0OBBYEFAdWxJg4JAylhsWE4Kru
h0ChEL8+MIHhBgNVHSMEgdkwgdaAFBLNYATSoICecO3Gmbh7LMZS/RmhoYGypIGv
MIGsMQswCQYDVQQGEwJVUzELMAkGA1UECBMCT0gxETAPBgNVBAcTCENvbHVtYnVz
MRIwEAYDVQQKEwlWaWtpbmdWUE4xHTAbBgNVBAsTFE15T3JnYW5pemF0aW9uYWxV
bml0MRUwEwYDVQQDEwxWaWtpbmdWUE4gQ0ExEDAOBgNVBCkTB0Vhc3lSU0ExITAf
BgkqhkiG9w0BCQEWEm1lQG15aG9zdC5teWRvbWFpboIJAM81he6Avyo+MBMGA1Ud
JQQMMAoGCCsGAQUFBwMCMAsGA1UdDwQEAwIHgDANBgkqhkiG9w0BAQQFAAOCAgEA
KmCfPvfhbIVQOrNyrVCeHl7oaYsHCECUNF6VOsiwFQ2WGZZpAcNskHwfI8PAwU1A
wicSn9V1VvM2iaYa13cpmQqKi2MmyP1tQHaOWRpSqOp7KFMVRlO17+ddzBJ1xs/t
VfBuKkmALn8+K7FAt7NGPFeHoIZskQPWAjqOQTkwH4n+JQznqe7VvBsD2zj3eClF
byjbXlXu+0ZD9Uni3BKuTrT7eYGJHHAlYfd4hrz0mV78ku+tUIqUPCiJMJialRhG
2Ow2msvcrx0Q5QZaT1tutu+JHAKI/WllfA9JctfJ137ZO/MnF8QXQgGjEcMNvgvg
LP890O+xhP8fWogbDmJoaG3WQDAINcF7FR0U/gskNt3V2Ol0wbn3A0LuNU9ckONT
+c86ZUAZJSBux/4G/O2hpqw+3cOazyeGXVWAuaPqBkV6/t1tUYb74dDnZDr7tZvz
TQdXSLwsm7uiL0kbtFU3PwpiyozJsOR5iRFrfic/sOnE3bBYcrrsI/jTF1I1vRq0
k4xkgby/tfhhqHLB1A8phq+h7Nd+yKYrbTgYlDadvq8Hix3cBt3A5x8zb5TBaNQ5
r4F3ysbzsArJKz2WT1P4ArCpS639OxK8hkVYVXMQ16LtXTkOoI/FfO5nWxzarVZX
d9ZbSs67Cox1cOHojLJq1noYjMtcVSncCf0gmJ/o5Ck=
-----END CERTIFICATE-----
