Certificate:
    Data:
        Version: 3 (0x2)
        Serial Number: 3853 (0xf0d)
    Signature Algorithm: md5WithRSAEncryption
        Issuer: C=US, ST=OH, L=Columbus, O=VikingVPN, OU=MyOrganizationalUnit, CN=VikingVPN CA/name=EasyRSA/emailAddress=me@myhost.mydomain
        Validity
            Not Before: Dec 29 21:24:03 2014 GMT
            Not After : Dec 26 21:24:03 2024 GMT
        Subject: CN=Client801Certff5099
        Subject Public Key Info:
            Public Key Algorithm: rsaEncryption
                Public-Key: (4096 bit)
                Modulus:
                    00:bb:2a:d5:c1:6b:22:a4:a8:2d:80:a0:0b:a6:66:
                    11:80:f4:38:b2:37:03:1f:9e:d5:0b:a4:fc:c8:40:
                    4b:2f:35:08:74:92:d7:f5:66:f7:b6:6a:c4:ba:31:
                    ff:27:a9:88:81:fe:a5:a3:91:88:99:e0:fd:e2:cf:
                    7a:0a:2e:2c:a4:7b:76:13:57:a7:f5:d6:d2:6c:9f:
                    b0:f4:06:09:72:12:e6:24:b9:ca:4f:d4:74:7a:33:
                    b1:e1:55:53:2d:b0:fc:60:75:35:99:e9:c7:4b:94:
                    24:8f:e4:f3:2d:46:ae:84:b8:0c:fa:bf:10:43:c2:
                    84:d1:c3:5a:c5:76:0a:b3:5c:cb:81:31:06:58:b8:
                    e5:3c:d6:a0:4c:df:0b:9d:08:24:16:1a:5b:83:0e:
                    7c:04:6c:9e:97:ae:f8:b1:1e:9b:e3:30:6e:dd:0a:
                    54:0a:1d:7d:e7:15:df:d7:81:ca:3f:27:24:90:f7:
                    46:53:6b:bf:60:07:f3:e8:f2:b5:2f:89:21:22:eb:
                    09:1d:db:db:d0:c9:7c:97:10:9b:be:94:89:7d:d1:
                    15:a9:53:de:37:cc:f4:72:e9:6a:5a:2c:89:ec:3b:
                    ea:9a:c6:87:30:eb:ad:65:98:2a:15:67:90:51:a0:
                    24:77:0b:23:07:d9:11:9c:d2:4c:1d:fc:a4:2f:77:
                    9d:83:00:9d:ad:01:f7:bc:f4:ea:60:91:a3:48:48:
                    ed:7b:ef:c8:bd:46:4a:e2:9b:9a:69:d2:5c:55:63:
                    3d:6d:21:fd:90:4e:72:c8:a4:fe:99:0c:f3:11:e0:
                    d3:ef:d8:78:ab:98:d5:99:d4:ba:f8:27:af:10:4a:
                    2d:4f:f2:d2:84:ef:56:e5:9b:44:55:a0:0b:a3:56:
                    58:a6:e1:c9:f9:7e:20:3e:ae:d0:a8:16:3a:ea:75:
                    a7:3f:e7:c7:8c:5e:5f:89:4d:f8:95:8b:a7:be:7b:
                    0f:d4:b8:45:24:be:ef:4f:8f:4c:79:d5:24:22:77:
                    cd:16:5b:6a:cf:c1:fe:2b:8b:90:c5:f1:e0:2d:9e:
                    e4:46:f8:2d:13:63:cf:d9:f1:22:91:f5:1f:0d:74:
                    c2:44:4e:04:c7:09:7b:ba:24:37:e7:08:a7:58:0f:
                    1d:c5:18:0c:a0:09:36:08:b9:ae:2f:56:47:fb:04:
                    d4:32:d7:a7:9b:ae:a7:26:a4:69:3c:6b:f2:69:f9:
                    9c:6e:7f:08:8e:c9:f8:47:18:64:b3:e7:d2:df:da:
                    6b:d0:32:a9:54:38:0d:6a:7f:95:c8:6e:66:da:12:
                    03:78:6e:37:a5:7c:21:83:c1:6e:c6:6b:44:b8:cc:
                    62:52:a0:cd:3c:5b:31:95:f9:ed:16:b5:ab:c4:8a:
                    31:9b:0b
                Exponent: 65537 (0x10001)
        X509v3 extensions:
            X509v3 Basic Constraints: 
                CA:FALSE
            Netscape Comment: 
                Easy-RSA Generated Certificate
            X509v3 Subject Key Identifier: 
                35:B5:15:FD:EC:1F:E9:F3:0B:88:FA:E6:D3:8F:08:B8:AC:86:9D:0C
            X509v3 Authority Key Identifier: 
                keyid:12:CD:60:04:D2:A0:80:9E:70:ED:C6:99:B8:7B:2C:C6:52:FD:19:A1
                DirName:/C=US/ST=OH/L=Columbus/O=VikingVPN/OU=MyOrganizationalUnit/CN=VikingVPN CA/name=EasyRSA/emailAddress=me@myhost.mydomain
                serial:CF:35:85:EE:80:BF:2A:3E

            X509v3 Extended Key Usage: 
                TLS Web Client Authentication
            X509v3 Key Usage: 
                Digital Signature
    Signature Algorithm: md5WithRSAEncryption
         60:03:f5:93:3f:a7:8f:60:73:2c:e6:1a:e0:4b:f1:09:e7:73:
         f7:11:29:5f:53:cf:ad:ca:8b:d9:f7:2d:9f:bc:4c:18:63:eb:
         1a:d3:c7:38:69:ff:fa:c0:8b:a5:aa:8d:46:7e:86:6c:b4:78:
         f9:24:8f:97:df:8b:8b:ec:e1:d2:45:4f:d4:24:dc:f0:8e:78:
         25:b3:df:94:a1:9e:98:67:67:18:4d:c5:d4:f3:05:9a:0f:ca:
         79:ab:2a:d7:b5:bb:93:51:92:a9:a4:87:70:a4:c1:52:05:76:
         a1:25:1a:f8:22:94:08:5e:08:06:13:89:3d:c3:cb:f1:f7:a0:
         26:97:a5:f5:12:3a:ad:15:c6:62:f2:34:64:c7:61:78:fc:0d:
         e7:78:57:29:ab:95:f9:a4:6b:6a:70:87:cc:13:74:eb:2c:6e:
         30:56:e2:76:6d:9e:f2:3c:dd:5c:b6:ce:c4:6a:f9:45:6f:97:
         74:c5:95:df:29:ba:a5:7d:91:d0:94:9a:0d:45:72:b4:14:b6:
         5e:cf:c6:d9:7a:99:06:75:b0:07:ad:a0:37:b9:f2:71:e4:8d:
         2d:4b:98:cc:21:56:9f:c6:0f:33:62:04:9a:02:72:57:ad:84:
         bb:00:f4:89:b3:4d:8f:c5:21:7e:2f:84:96:46:8f:63:01:58:
         4f:85:47:34:11:01:39:42:74:77:7e:ef:0b:2f:06:2b:16:a6:
         f2:74:36:60:ad:40:89:75:2b:b5:9d:c5:5b:c9:4b:46:06:2a:
         3b:bd:10:52:be:62:56:97:64:cb:62:d8:92:48:0f:19:cb:d2:
         33:3c:8c:49:6c:d7:4d:2d:a4:2e:0e:80:7f:45:53:b0:70:23:
         fb:df:de:f2:24:8c:8c:a3:32:29:50:d3:9e:15:f4:0a:81:13:
         12:d7:d4:2c:e4:8f:e8:43:d1:eb:b5:18:76:1d:be:0f:fc:61:
         56:b3:cf:a6:c1:a9:0d:0b:2b:66:b8:0f:f0:88:ba:0c:e3:00:
         70:1e:27:34:38:e0:dd:9a:de:02:7a:e0:8b:8e:00:7a:b2:5f:
         5f:bb:cb:f9:f4:c4:91:2a:ef:b1:97:4f:50:e8:ff:46:ff:d8:
         f0:9d:06:84:8b:5d:ad:a6:fb:d7:65:23:b8:e7:09:af:46:78:
         fb:9e:c8:e4:09:0e:31:d9:c6:c8:f7:2a:48:96:ab:f1:6d:3b:
         ff:03:0f:2b:a4:ff:1a:91:25:09:97:bd:51:a8:ee:51:5a:c6:
         05:dd:62:dc:95:e9:32:cb:3a:9d:26:d6:79:60:ba:c3:b3:2a:
         67:d1:20:fe:4c:de:f3:b5:6d:10:5c:52:e3:70:98:d9:6b:1b:
         51:f2:4a:48:a7:d4:6d:b8
-----BEGIN CERTIFICATE-----
MIIGrDCCBJSgAwIBAgICDw0wDQYJKoZIhvcNAQEEBQAwgawxCzAJBgNVBAYTAlVT
MQswCQYDVQQIEwJPSDERMA8GA1UEBxMIQ29sdW1idXMxEjAQBgNVBAoTCVZpa2lu
Z1ZQTjEdMBsGA1UECxMUTXlPcmdhbml6YXRpb25hbFVuaXQxFTATBgNVBAMTDFZp
a2luZ1ZQTiBDQTEQMA4GA1UEKRMHRWFzeVJTQTEhMB8GCSqGSIb3DQEJARYSbWVA
bXlob3N0Lm15ZG9tYWluMB4XDTE0MTIyOTIxMjQwM1oXDTI0MTIyNjIxMjQwM1ow
HjEcMBoGA1UEAxMTQ2xpZW50ODAxQ2VydGZmNTA5OTCCAiIwDQYJKoZIhvcNAQEB
BQADggIPADCCAgoCggIBALsq1cFrIqSoLYCgC6ZmEYD0OLI3Ax+e1Quk/MhASy81
CHSS1/Vm97ZqxLox/yepiIH+paORiJng/eLPegouLKR7dhNXp/XW0myfsPQGCXIS
5iS5yk/UdHozseFVUy2w/GB1NZnpx0uUJI/k8y1GroS4DPq/EEPChNHDWsV2CrNc
y4ExBli45TzWoEzfC50IJBYaW4MOfARsnpeu+LEem+Mwbt0KVAodfecV39eByj8n
JJD3RlNrv2AH8+jytS+JISLrCR3b29DJfJcQm76UiX3RFalT3jfM9HLpalosiew7
6prGhzDrrWWYKhVnkFGgJHcLIwfZEZzSTB38pC93nYMAna0B97z06mCRo0hI7Xvv
yL1GSuKbmmnSXFVjPW0h/ZBOcsik/pkM8xHg0+/YeKuY1ZnUuvgnrxBKLU/y0oTv
VuWbRFWgC6NWWKbhyfl+ID6u0KgWOup1pz/nx4xeX4lN+JWLp757D9S4RSS+70+P
THnVJCJ3zRZbas/B/iuLkMXx4C2e5Eb4LRNjz9nxIpH1Hw10wkROBMcJe7okN+cI
p1gPHcUYDKAJNgi5ri9WR/sE1DLXp5uupyakaTxr8mn5nG5/CI7J+EcYZLPn0t/a
a9AyqVQ4DWp/lchuZtoSA3huN6V8IYPBbsZrRLjMYlKgzTxbMZX57Ra1q8SKMZsL
AgMBAAGjggFjMIIBXzAJBgNVHRMEAjAAMC0GCWCGSAGG+EIBDQQgFh5FYXN5LVJT
QSBHZW5lcmF0ZWQgQ2VydGlmaWNhdGUwHQYDVR0OBBYEFDW1Ff3sH+nzC4j65tOP
CLishp0MMIHhBgNVHSMEgdkwgdaAFBLNYATSoICecO3Gmbh7LMZS/RmhoYGypIGv
MIGsMQswCQYDVQQGEwJVUzELMAkGA1UECBMCT0gxETAPBgNVBAcTCENvbHVtYnVz
MRIwEAYDVQQKEwlWaWtpbmdWUE4xHTAbBgNVBAsTFE15T3JnYW5pemF0aW9uYWxV
bml0MRUwEwYDVQQDEwxWaWtpbmdWUE4gQ0ExEDAOBgNVBCkTB0Vhc3lSU0ExITAf
BgkqhkiG9w0BCQEWEm1lQG15aG9zdC5teWRvbWFpboIJAM81he6Avyo+MBMGA1Ud
JQQMMAoGCCsGAQUFBwMCMAsGA1UdDwQEAwIHgDANBgkqhkiG9w0BAQQFAAOCAgEA
YAP1kz+nj2BzLOYa4EvxCedz9xEpX1PPrcqL2fctn7xMGGPrGtPHOGn/+sCLpaqN
Rn6GbLR4+SSPl9+Li+zh0kVP1CTc8I54JbPflKGemGdnGE3F1PMFmg/Keasq17W7
k1GSqaSHcKTBUgV2oSUa+CKUCF4IBhOJPcPL8fegJpel9RI6rRXGYvI0ZMdhePwN
53hXKauV+aRranCHzBN06yxuMFbidm2e8jzdXLbOxGr5RW+XdMWV3ym6pX2R0JSa
DUVytBS2Xs/G2XqZBnWwB62gN7nyceSNLUuYzCFWn8YPM2IEmgJyV62EuwD0ibNN
j8Uhfi+ElkaPYwFYT4VHNBEBOUJ0d37vCy8GKxam8nQ2YK1AiXUrtZ3FW8lLRgYq
O70QUr5iVpdky2LYkkgPGcvSMzyMSWzXTS2kLg6Af0VTsHAj+9/e8iSMjKMyKVDT
nhX0CoETEtfULOSP6EPR67UYdh2+D/xhVrPPpsGpDQsrZrgP8Ii6DOMAcB4nNDjg
3ZreAnrgi44AerJfX7vL+fTEkSrvsZdPUOj/Rv/Y8J0GhItdrab712UjuOcJr0Z4
+57I5AkOMdnGyPcqSJar8W07/wMPK6T/GpElCZe9UajuUVrGBd1i3JXpMss6nSbW
eWC6w7MqZ9Eg/kze87VtEFxS43CY2WsbUfJKSKfUbbg=
-----END CERTIFICATE-----
