Certificate:
    Data:
        Version: 3 (0x2)
        Serial Number: 3864 (0xf18)
    Signature Algorithm: md5WithRSAEncryption
        Issuer: C=US, ST=OH, L=Columbus, O=VikingVPN, OU=MyOrganizationalUnit, CN=VikingVPN CA/name=EasyRSA/emailAddress=me@myhost.mydomain
        Validity
            Not Before: Dec 29 21:31:13 2014 GMT
            Not After : Dec 26 21:31:13 2024 GMT
        Subject: CN=Client801Certda22ba
        Subject Public Key Info:
            Public Key Algorithm: rsaEncryption
                Public-Key: (4096 bit)
                Modulus:
                    00:d1:a1:bd:89:11:58:95:cf:62:60:78:32:d5:44:
                    5c:2c:7d:3d:0f:ab:a1:6b:ea:af:dc:24:97:ce:eb:
                    30:12:f4:60:74:5e:6c:38:83:50:ca:0b:22:75:d9:
                    6f:1d:88:26:85:9a:09:6e:11:18:0d:46:e5:01:4b:
                    5f:c9:1b:cc:1f:13:7d:23:1a:15:47:55:73:16:7a:
                    05:df:83:16:65:d9:71:b3:33:be:69:a4:2e:60:0c:
                    58:60:d9:63:55:91:50:e8:28:93:3b:6d:60:1b:f4:
                    28:97:6e:12:05:b3:eb:06:98:66:29:7d:cb:f0:24:
                    2a:21:ab:b5:a3:17:c8:a4:dd:e0:00:30:49:4a:ca:
                    fe:03:ef:c5:67:8e:a5:df:26:3c:93:20:2e:62:19:
                    9e:ef:42:ac:ea:02:79:39:1c:fe:3b:0c:75:f9:f8:
                    03:92:4d:08:62:56:6d:66:ea:4d:a9:5a:8a:30:9c:
                    8a:b1:60:ed:84:3a:fe:3e:48:af:79:11:f9:46:6f:
                    40:1c:03:6c:0e:4f:75:69:a2:c1:60:2d:a2:04:68:
                    28:bf:9e:49:1c:46:b7:d3:8f:96:f2:f9:e6:22:05:
                    45:e0:34:6e:fe:aa:d6:8e:5e:a0:52:eb:3e:14:d1:
                    9e:1b:43:a5:91:04:5f:fe:27:3e:89:fa:09:81:b1:
                    4f:f7:b8:18:d4:c7:f4:ef:47:3c:71:90:0c:c5:67:
                    eb:1a:0c:f5:09:a6:1c:b9:da:52:7e:41:1f:db:b7:
                    ac:a9:d1:bb:25:44:3c:9a:98:99:ca:87:97:ad:78:
                    35:a7:79:c9:e2:0b:ad:81:13:55:15:75:a7:fc:ee:
                    2d:03:30:0b:8d:fc:81:d3:25:8f:b2:12:e8:cf:79:
                    d2:20:63:a4:7d:d7:52:3c:9e:da:4a:62:d9:0d:82:
                    4f:1b:2d:08:7e:62:16:8b:dd:39:02:26:8c:a7:93:
                    57:6c:53:e8:69:c6:4a:bf:46:74:8a:31:b5:f3:f1:
                    34:d2:75:9c:d8:3c:0b:26:ce:cd:ab:ec:b1:31:82:
                    d0:3f:7a:d6:ae:1c:d9:83:ab:74:ff:79:de:85:a3:
                    89:14:59:22:fa:cf:39:4c:9e:ab:d2:e8:d7:7c:03:
                    fd:4b:2e:dc:d6:f8:82:c9:d2:32:41:15:f4:20:b7:
                    d9:75:c2:8f:e7:e6:af:d3:9d:db:db:d6:81:e4:cd:
                    b0:79:cd:aa:42:5b:ff:d6:f6:a7:84:c4:c0:5e:b4:
                    ec:5e:7d:a2:fc:f4:6c:1d:97:6b:f6:86:b8:45:ec:
                    93:4b:46:ba:69:2a:20:95:45:67:13:f3:a3:8d:64:
                    64:1b:59:a0:db:ec:ca:3a:1b:bf:d0:00:16:ce:68:
                    f3:9e:f3
                Exponent: 65537 (0x10001)
        X509v3 extensions:
            X509v3 Basic Constraints: 
                CA:FALSE
            Netscape Comment: 
                Easy-RSA Generated Certificate
            X509v3 Subject Key Identifier: 
                B5:68:54:E6:10:8C:86:BC:B9:3B:20:88:AB:8A:30:85:02:95:13:9C
            X509v3 Authority Key Identifier: 
                keyid:12:CD:60:04:D2:A0:80:9E:70:ED:C6:99:B8:7B:2C:C6:52:FD:19:A1
                DirName:/C=US/ST=OH/L=Columbus/O=VikingVPN/OU=MyOrganizationalUnit/CN=VikingVPN CA/name=EasyRSA/emailAddress=me@myhost.mydomain
                serial:CF:35:85:EE:80:BF:2A:3E

            X509v3 Extended Key Usage: 
                TLS Web Client Authentication
            X509v3 Key Usage: 
                Digital Signature
    Signature Algorithm: md5WithRSAEncryption
         af:3f:85:19:e2:48:f7:24:63:43:3b:6a:af:08:e3:80:49:8b:
         b8:b7:fb:a5:97:ff:6f:44:ef:bb:f8:d9:a9:52:15:ae:fc:21:
         c5:2d:3a:21:bf:12:da:dc:b1:31:0e:db:8c:7c:cb:cb:a3:b4:
         46:72:00:d0:c3:2f:e1:56:7a:2d:85:bd:d8:40:9f:ad:e9:ca:
         70:44:b5:44:45:8e:34:eb:25:2c:7b:7b:1d:6c:82:a8:ce:37:
         ba:12:9a:94:c3:c2:ae:60:19:d7:3b:01:0a:77:7d:00:6e:cf:
         14:1d:2f:8f:dc:63:f3:dd:1b:6c:e3:a0:4d:83:ff:95:9d:7c:
         40:e8:35:70:33:22:ca:06:6e:bf:fe:83:b5:e4:b5:d8:23:35:
         66:7c:aa:c7:46:e9:31:53:05:a5:47:a4:2e:08:ee:24:ae:06:
         ab:bd:ea:40:8b:3c:8c:c3:33:16:3c:dc:2b:4a:0f:81:c3:fd:
         67:ae:f9:20:6f:b7:11:90:a7:aa:18:80:86:bd:15:9b:3f:9e:
         ec:32:82:36:e2:48:ee:a9:c8:af:b3:04:0f:7f:d2:e9:a5:94:
         83:f7:e9:ea:5f:39:ef:a0:ae:0c:c0:99:c6:54:d9:d0:66:22:
         8a:4a:a0:bb:2c:1e:89:d1:31:2c:80:47:53:ce:53:5f:38:d5:
         86:34:b7:46:e1:a6:c0:7e:22:17:c4:7e:b7:1f:bd:2a:d4:74:
         3f:5d:f0:f6:48:33:61:88:97:ab:ca:1f:c6:79:d5:69:93:f2:
         b9:e8:23:03:24:ab:23:bd:0e:fe:05:65:88:10:8f:09:e4:9b:
         b3:4b:e1:e7:87:ed:73:5e:9b:86:df:90:66:70:15:da:77:72:
         06:2d:43:5d:9f:3d:7a:9c:d5:df:f6:68:6a:4e:85:d0:56:bf:
         a9:95:db:c7:1c:da:e0:ae:cd:e4:7f:2b:70:be:2e:09:9b:f0:
         34:5f:78:eb:83:aa:7f:cc:82:94:72:45:a5:c9:e1:d1:97:57:
         16:36:84:26:a4:ef:eb:2d:0d:d3:c9:fe:cd:5f:a5:42:d1:cd:
         9a:42:ad:36:ea:dd:fc:bd:47:42:38:0f:10:ad:29:b2:0e:7d:
         48:24:95:b7:fb:75:b8:8c:01:34:2d:c3:6a:ca:8f:35:70:c9:
         81:87:d5:09:c2:7a:73:ac:22:a7:81:b3:80:4b:30:1d:f6:da:
         b5:95:d6:fd:8e:02:8f:4c:8c:67:0b:b7:cf:8b:fc:b9:02:92:
         46:7e:c8:e2:d4:ff:e7:a9:ea:55:e9:dc:98:df:fb:bd:6f:2f:
         55:ea:65:9e:69:ec:13:29:c1:a6:e2:93:8d:f0:d8:4e:62:5a:
         75:66:0b:e4:ac:a4:5e:b1
-----BEGIN CERTIFICATE-----
MIIGrDCCBJSgAwIBAgICDxgwDQYJKoZIhvcNAQEEBQAwgawxCzAJBgNVBAYTAlVT
MQswCQYDVQQIEwJPSDERMA8GA1UEBxMIQ29sdW1idXMxEjAQBgNVBAoTCVZpa2lu
Z1ZQTjEdMBsGA1UECxMUTXlPcmdhbml6YXRpb25hbFVuaXQxFTATBgNVBAMTDFZp
a2luZ1ZQTiBDQTEQMA4GA1UEKRMHRWFzeVJTQTEhMB8GCSqGSIb3DQEJARYSbWVA
bXlob3N0Lm15ZG9tYWluMB4XDTE0MTIyOTIxMzExM1oXDTI0MTIyNjIxMzExM1ow
HjEcMBoGA1UEAxMTQ2xpZW50ODAxQ2VydGRhMjJiYTCCAiIwDQYJKoZIhvcNAQEB
BQADggIPADCCAgoCggIBANGhvYkRWJXPYmB4MtVEXCx9PQ+roWvqr9wkl87rMBL0
YHRebDiDUMoLInXZbx2IJoWaCW4RGA1G5QFLX8kbzB8TfSMaFUdVcxZ6Bd+DFmXZ
cbMzvmmkLmAMWGDZY1WRUOgokzttYBv0KJduEgWz6waYZil9y/AkKiGrtaMXyKTd
4AAwSUrK/gPvxWeOpd8mPJMgLmIZnu9CrOoCeTkc/jsMdfn4A5JNCGJWbWbqTala
ijCcirFg7YQ6/j5Ir3kR+UZvQBwDbA5PdWmiwWAtogRoKL+eSRxGt9OPlvL55iIF
ReA0bv6q1o5eoFLrPhTRnhtDpZEEX/4nPon6CYGxT/e4GNTH9O9HPHGQDMVn6xoM
9QmmHLnaUn5BH9u3rKnRuyVEPJqYmcqHl614Nad5yeILrYETVRV1p/zuLQMwC438
gdMlj7IS6M950iBjpH3XUjye2kpi2Q2CTxstCH5iFovdOQImjKeTV2xT6GnGSr9G
dIoxtfPxNNJ1nNg8CybOzavssTGC0D961q4c2YOrdP953oWjiRRZIvrPOUyeq9Lo
13wD/Usu3Nb4gsnSMkEV9CC32XXCj+fmr9Od29vWgeTNsHnNqkJb/9b2p4TEwF60
7F59ovz0bB2Xa/aGuEXsk0tGumkqIJVFZxPzo41kZBtZoNvsyjobv9AAFs5o857z
AgMBAAGjggFjMIIBXzAJBgNVHRMEAjAAMC0GCWCGSAGG+EIBDQQgFh5FYXN5LVJT
QSBHZW5lcmF0ZWQgQ2VydGlmaWNhdGUwHQYDVR0OBBYEFLVoVOYQjIa8uTsgiKuK
MIUClROcMIHhBgNVHSMEgdkwgdaAFBLNYATSoICecO3Gmbh7LMZS/RmhoYGypIGv
MIGsMQswCQYDVQQGEwJVUzELMAkGA1UECBMCT0gxETAPBgNVBAcTCENvbHVtYnVz
MRIwEAYDVQQKEwlWaWtpbmdWUE4xHTAbBgNVBAsTFE15T3JnYW5pemF0aW9uYWxV
bml0MRUwEwYDVQQDEwxWaWtpbmdWUE4gQ0ExEDAOBgNVBCkTB0Vhc3lSU0ExITAf
BgkqhkiG9w0BCQEWEm1lQG15aG9zdC5teWRvbWFpboIJAM81he6Avyo+MBMGA1Ud
JQQMMAoGCCsGAQUFBwMCMAsGA1UdDwQEAwIHgDANBgkqhkiG9w0BAQQFAAOCAgEA
rz+FGeJI9yRjQztqrwjjgEmLuLf7pZf/b0Tvu/jZqVIVrvwhxS06Ib8S2tyxMQ7b
jHzLy6O0RnIA0MMv4VZ6LYW92ECfrenKcES1REWONOslLHt7HWyCqM43uhKalMPC
rmAZ1zsBCnd9AG7PFB0vj9xj890bbOOgTYP/lZ18QOg1cDMiygZuv/6DteS12CM1
Znyqx0bpMVMFpUekLgjuJK4Gq73qQIs8jMMzFjzcK0oPgcP9Z675IG+3EZCnqhiA
hr0Vmz+e7DKCNuJI7qnIr7MED3/S6aWUg/fp6l8576CuDMCZxlTZ0GYiikqguywe
idExLIBHU85TXzjVhjS3RuGmwH4iF8R+tx+9KtR0P13w9kgzYYiXq8ofxnnVaZPy
uegjAySrI70O/gVliBCPCeSbs0vh54ftc16bht+QZnAV2ndyBi1DXZ89epzV3/Zo
ak6F0Fa/qZXbxxza4K7N5H8rcL4uCZvwNF9464Oqf8yClHJFpcnh0ZdXFjaEJqTv
6y0N08n+zV+lQtHNmkKtNurd/L1HQjgPEK0psg59SCSVt/t1uIwBNC3DasqPNXDJ
gYfVCcJ6c6wip4GzgEswHfbatZXW/Y4Cj0yMZwu3z4v8uQKSRn7I4tT/56nqVenc
mN/7vW8vVeplnmnsEynBpuKTjfDYTmJadWYL5KykXrE=
-----END CERTIFICATE-----
