Certificate:
    Data:
        Version: 3 (0x2)
        Serial Number: 3868 (0xf1c)
    Signature Algorithm: md5WithRSAEncryption
        Issuer: C=US, ST=OH, L=Columbus, O=VikingVPN, OU=MyOrganizationalUnit, CN=VikingVPN CA/name=EasyRSA/emailAddress=me@myhost.mydomain
        Validity
            Not Before: Dec 29 21:32:23 2014 GMT
            Not After : Dec 26 21:32:23 2024 GMT
        Subject: CN=Client801Cert2a32c9
        Subject Public Key Info:
            Public Key Algorithm: rsaEncryption
                Public-Key: (4096 bit)
                Modulus:
                    00:e3:a1:f7:a8:e6:68:9b:15:37:c6:08:37:bf:66:
                    78:b9:a7:22:a3:8a:06:35:a5:b9:ee:27:c8:12:90:
                    57:36:28:4d:3a:f4:6b:e1:e5:75:08:53:4e:de:1c:
                    0a:4c:4f:63:1b:6d:b2:32:bb:c0:6f:77:17:ec:19:
                    ca:8a:43:3d:df:3a:25:7e:99:44:fc:2f:5a:99:e8:
                    8c:5a:4f:5b:46:11:35:ca:4e:30:13:85:1d:d7:9b:
                    0b:cc:9b:c0:3e:80:76:18:45:dd:37:5e:f1:07:79:
                    e0:fa:80:8a:7c:e2:b7:7e:1b:40:8f:37:c5:65:6a:
                    78:98:53:e0:f6:ec:10:8b:a2:0b:2f:3d:8e:19:32:
                    87:ec:ab:ef:24:ff:81:3e:8d:68:b8:27:9f:4d:7b:
                    db:d0:2d:b4:82:e0:93:04:d6:f0:63:50:6f:94:c2:
                    83:b3:89:1f:06:53:78:36:5a:db:cb:d2:14:9f:bb:
                    a6:51:d0:82:c7:6f:cb:6f:3a:12:a6:57:46:a0:20:
                    dd:10:dc:dc:6b:9e:8a:eb:ee:1a:50:ad:4a:d3:0f:
                    e0:71:a5:f2:50:f0:10:b1:1a:11:18:81:e8:c4:1a:
                    ac:8d:db:a4:f1:84:3f:3e:61:90:66:61:de:1c:aa:
                    b4:a0:f1:2f:f4:4a:15:af:50:a9:a1:3e:a1:0e:6b:
                    ec:f1:f8:2a:5a:c8:76:c3:4d:84:a3:67:b5:e9:73:
                    4a:fd:eb:53:ba:9a:a2:25:c1:bb:ce:7b:70:05:a7:
                    d7:3e:6b:cb:3c:9c:42:9e:c8:ee:16:77:52:97:30:
                    7a:0b:39:d7:22:6c:02:35:f8:b6:32:95:50:e9:9e:
                    e9:50:f6:ea:af:90:d1:58:60:2d:77:a8:1a:5a:24:
                    9e:67:32:54:a6:92:30:3e:f4:42:43:9f:8b:24:8d:
                    45:8d:87:43:fd:e6:31:99:62:a1:08:33:90:03:69:
                    48:83:11:ab:02:c4:ac:a7:fd:88:4f:6a:2b:05:20:
                    a6:4a:7d:1d:65:4b:ce:1b:71:38:4f:c6:08:8c:8b:
                    8d:ec:34:d1:17:aa:05:5d:a7:9b:16:2c:3e:37:f5:
                    ee:be:b8:4f:f4:36:b8:b6:20:25:07:b5:ff:9d:67:
                    6a:af:cd:19:05:52:de:1d:36:c9:d3:c0:33:e7:f9:
                    92:bb:e8:f2:37:b1:a3:c2:87:de:63:cc:83:72:6d:
                    07:8f:9e:1f:d7:95:ab:2c:d8:9c:2d:1b:24:47:61:
                    22:d1:99:1c:be:0c:2f:18:fd:aa:73:97:df:7d:d7:
                    41:2c:25:b2:30:22:dd:da:24:04:52:4d:75:46:da:
                    92:aa:42:8d:4f:e2:4a:30:d3:c2:1c:2c:64:81:03:
                    ed:17:c9
                Exponent: 65537 (0x10001)
        X509v3 extensions:
            X509v3 Basic Constraints: 
                CA:FALSE
            Netscape Comment: 
                Easy-RSA Generated Certificate
            X509v3 Subject Key Identifier: 
                F6:17:F7:86:46:27:8E:B4:34:0C:3C:3E:24:FF:62:19:94:A6:39:A2
            X509v3 Authority Key Identifier: 
                keyid:12:CD:60:04:D2:A0:80:9E:70:ED:C6:99:B8:7B:2C:C6:52:FD:19:A1
                DirName:/C=US/ST=OH/L=Columbus/O=VikingVPN/OU=MyOrganizationalUnit/CN=VikingVPN CA/name=EasyRSA/emailAddress=me@myhost.mydomain
                serial:CF:35:85:EE:80:BF:2A:3E

            X509v3 Extended Key Usage: 
                TLS Web Client Authentication
            X509v3 Key Usage: 
                Digital Signature
    Signature Algorithm: md5WithRSAEncryption
         69:62:74:9a:b3:b4:6b:2b:28:a3:98:97:c6:4d:10:c6:5a:c3:
         30:7d:1e:b3:36:90:69:c5:e1:98:69:4e:13:95:94:a7:f6:3d:
         78:a2:ef:8b:07:0d:86:8b:a6:34:4e:36:36:d6:84:ea:1a:4f:
         30:98:a2:97:df:ec:53:1d:e9:56:f3:d1:d5:7f:98:ac:a0:bd:
         21:d7:98:82:83:50:77:57:1d:aa:56:6e:b5:92:04:48:7a:43:
         97:af:b9:d2:e3:d4:cd:59:6c:bb:aa:d0:b3:ea:57:34:a8:30:
         1f:e7:ad:ba:a7:4b:e1:64:a9:27:3f:b8:4f:a8:c9:5b:0b:a3:
         b9:2d:d3:dc:29:4c:2c:54:1a:76:14:83:fd:c5:8d:0f:d6:16:
         00:67:8f:d5:67:a1:3a:fa:6a:17:7f:dd:5e:17:9d:65:17:92:
         c8:3b:15:82:20:45:0e:74:ea:d7:28:15:7b:6e:65:b6:f3:84:
         ba:dc:fd:ec:ae:ba:91:28:60:69:a1:de:33:17:99:ff:38:f3:
         d9:61:10:72:a5:0c:fc:d3:05:a3:51:b5:52:ea:95:65:87:07:
         5c:69:22:4c:27:fb:31:9d:07:53:05:e9:62:85:6a:d1:8e:9c:
         fb:38:45:de:4e:9e:2b:71:7f:e7:6f:da:5c:c9:00:02:38:ed:
         f9:c2:60:d1:b3:16:4b:aa:d7:74:a9:a8:7c:9b:08:b0:bd:8f:
         9a:02:6c:4c:a2:cb:c1:1d:2b:55:e2:ca:ee:a2:db:02:ab:56:
         4c:d5:cf:0b:9e:88:33:be:42:35:fb:7e:fa:1c:03:76:3d:70:
         28:60:03:03:f8:31:d1:3b:86:33:52:4e:19:1e:a8:22:e6:2b:
         2f:9b:42:56:f6:f9:2d:93:5f:9b:f1:af:98:f3:fd:91:6c:c0:
         ec:81:b8:9f:66:99:08:e1:76:cf:9c:30:7e:87:a9:38:56:c9:
         98:da:c7:91:5e:1c:27:f6:3e:50:e7:91:51:f0:c7:f5:f2:8f:
         12:a9:55:fd:9c:4f:2a:fd:07:ca:be:bd:40:f2:e6:24:b4:3c:
         eb:4c:57:7f:de:ff:1e:91:3c:fd:da:b6:19:17:36:c7:aa:76:
         dc:d8:22:10:2f:83:ff:1e:b8:ea:02:f5:dc:02:7c:25:db:2d:
         8b:9b:4c:70:3d:be:38:6d:dc:86:de:27:6c:29:b9:cd:6b:52:
         d8:2e:44:22:10:9b:c6:11:a9:0b:97:7c:a0:81:cb:8e:ea:16:
         1d:ce:4a:fd:f5:de:17:2f:6a:5b:d1:54:6b:82:54:90:0c:c2:
         29:a5:f9:87:59:d6:ba:46:30:48:12:f1:f9:f5:ff:90:32:89:
         81:8f:70:24:16:47:89:a0
-----BEGIN CERTIFICATE-----
MIIGrDCCBJSgAwIBAgICDxwwDQYJKoZIhvcNAQEEBQAwgawxCzAJBgNVBAYTAlVT
MQswCQYDVQQIEwJPSDERMA8GA1UEBxMIQ29sdW1idXMxEjAQBgNVBAoTCVZpa2lu
Z1ZQTjEdMBsGA1UECxMUTXlPcmdhbml6YXRpb25hbFVuaXQxFTATBgNVBAMTDFZp
a2luZ1ZQTiBDQTEQMA4GA1UEKRMHRWFzeVJTQTEhMB8GCSqGSIb3DQEJARYSbWVA
bXlob3N0Lm15ZG9tYWluMB4XDTE0MTIyOTIxMzIyM1oXDTI0MTIyNjIxMzIyM1ow
HjEcMBoGA1UEAxMTQ2xpZW50ODAxQ2VydDJhMzJjOTCCAiIwDQYJKoZIhvcNAQEB
BQADggIPADCCAgoCggIBAOOh96jmaJsVN8YIN79meLmnIqOKBjWlue4nyBKQVzYo
TTr0a+HldQhTTt4cCkxPYxttsjK7wG93F+wZyopDPd86JX6ZRPwvWpnojFpPW0YR
NcpOMBOFHdebC8ybwD6AdhhF3Tde8Qd54PqAinzit34bQI83xWVqeJhT4PbsEIui
Cy89jhkyh+yr7yT/gT6NaLgnn01729AttILgkwTW8GNQb5TCg7OJHwZTeDZa28vS
FJ+7plHQgsdvy286EqZXRqAg3RDc3GueiuvuGlCtStMP4HGl8lDwELEaERiB6MQa
rI3bpPGEPz5hkGZh3hyqtKDxL/RKFa9QqaE+oQ5r7PH4KlrIdsNNhKNntelzSv3r
U7qaoiXBu857cAWn1z5ryzycQp7I7hZ3Upcwegs51yJsAjX4tjKVUOme6VD26q+Q
0VhgLXeoGloknmcyVKaSMD70QkOfiySNRY2HQ/3mMZlioQgzkANpSIMRqwLErKf9
iE9qKwUgpkp9HWVLzhtxOE/GCIyLjew00ReqBV2nmxYsPjf17r64T/Q2uLYgJQe1
/51naq/NGQVS3h02ydPAM+f5krvo8jexo8KH3mPMg3JtB4+eH9eVqyzYnC0bJEdh
ItGZHL4MLxj9qnOX333XQSwlsjAi3dokBFJNdUbakqpCjU/iSjDTwhwsZIED7RfJ
AgMBAAGjggFjMIIBXzAJBgNVHRMEAjAAMC0GCWCGSAGG+EIBDQQgFh5FYXN5LVJT
QSBHZW5lcmF0ZWQgQ2VydGlmaWNhdGUwHQYDVR0OBBYEFPYX94ZGJ460NAw8PiT/
YhmUpjmiMIHhBgNVHSMEgdkwgdaAFBLNYATSoICecO3Gmbh7LMZS/RmhoYGypIGv
MIGsMQswCQYDVQQGEwJVUzELMAkGA1UECBMCT0gxETAPBgNVBAcTCENvbHVtYnVz
MRIwEAYDVQQKEwlWaWtpbmdWUE4xHTAbBgNVBAsTFE15T3JnYW5pemF0aW9uYWxV
bml0MRUwEwYDVQQDEwxWaWtpbmdWUE4gQ0ExEDAOBgNVBCkTB0Vhc3lSU0ExITAf
BgkqhkiG9w0BCQEWEm1lQG15aG9zdC5teWRvbWFpboIJAM81he6Avyo+MBMGA1Ud
JQQMMAoGCCsGAQUFBwMCMAsGA1UdDwQEAwIHgDANBgkqhkiG9w0BAQQFAAOCAgEA
aWJ0mrO0aysoo5iXxk0QxlrDMH0eszaQacXhmGlOE5WUp/Y9eKLviwcNhoumNE42
NtaE6hpPMJiil9/sUx3pVvPR1X+YrKC9IdeYgoNQd1cdqlZutZIESHpDl6+50uPU
zVlsu6rQs+pXNKgwH+etuqdL4WSpJz+4T6jJWwujuS3T3ClMLFQadhSD/cWND9YW
AGeP1WehOvpqF3/dXhedZReSyDsVgiBFDnTq1ygVe25ltvOEutz97K66kShgaaHe
MxeZ/zjz2WEQcqUM/NMFo1G1UuqVZYcHXGkiTCf7MZ0HUwXpYoVq0Y6c+zhF3k6e
K3F/52/aXMkAAjjt+cJg0bMWS6rXdKmofJsIsL2PmgJsTKLLwR0rVeLK7qLbAqtW
TNXPC56IM75CNft++hwDdj1wKGADA/gx0TuGM1JOGR6oIuYrL5tCVvb5LZNfm/Gv
mPP9kWzA7IG4n2aZCOF2z5wwfoepOFbJmNrHkV4cJ/Y+UOeRUfDH9fKPEqlV/ZxP
Kv0Hyr69QPLmJLQ860xXf97/HpE8/dq2GRc2x6p23NgiEC+D/x646gL13AJ8Jdst
i5tMcD2+OG3cht4nbCm5zWtS2C5EIhCbxhGpC5d8oIHLjuoWHc5K/fXeFy9qW9FU
a4JUkAzCKaX5h1nWukYwSBLx+fX/kDKJgY9wJBZHiaA=
-----END CERTIFICATE-----
