Certificate:
    Data:
        Version: 3 (0x2)
        Serial Number: 3914 (0xf4a)
    Signature Algorithm: md5WithRSAEncryption
        Issuer: C=US, ST=OH, L=Columbus, O=VikingVPN, OU=MyOrganizationalUnit, CN=VikingVPN CA/name=EasyRSA/emailAddress=me@myhost.mydomain
        Validity
            Not Before: Dec 30 15:47:19 2014 GMT
            Not After : Dec 27 15:47:19 2024 GMT
        Subject: CN=Client1311Cert9df3de
        Subject Public Key Info:
            Public Key Algorithm: rsaEncryption
                Public-Key: (4096 bit)
                Modulus:
                    00:a0:64:19:7e:07:09:84:41:d2:8c:44:5f:28:97:
                    7b:c5:3e:ab:e2:51:67:3a:16:29:2b:5b:89:ce:e1:
                    c1:4a:56:23:c8:c2:2a:00:57:7a:36:6a:e1:68:51:
                    a9:b0:aa:1f:96:a7:4c:91:8f:33:8a:78:21:c9:dd:
                    9b:5a:65:92:fd:b0:21:3e:ae:d4:3a:67:4c:17:5d:
                    7a:f0:d2:b8:78:57:2b:55:c6:a0:9a:21:f3:16:e6:
                    c3:99:42:a3:ac:11:1b:1e:78:3e:ec:a8:59:2e:37:
                    f4:18:d4:1f:8a:d3:06:b1:65:87:3e:ea:c4:ed:a8:
                    a5:92:6b:ab:59:c2:7f:33:96:ef:c1:05:f9:40:f7:
                    71:36:51:21:df:d3:c0:03:ec:73:41:dd:91:6d:71:
                    fb:ef:e4:2b:47:45:04:43:6a:04:d9:9d:90:1c:9b:
                    7a:14:d8:65:1e:6e:34:ef:70:ee:7f:c8:9b:de:51:
                    5c:7a:37:45:74:a0:54:d9:ff:db:a5:13:e4:2f:84:
                    be:ec:7c:25:8a:9e:ae:57:60:20:72:65:52:a7:07:
                    65:93:f2:08:3a:8e:3c:71:50:68:46:25:2a:2c:ba:
                    ce:33:b3:a6:ba:69:5c:dd:0e:8e:a5:ea:ea:98:4f:
                    53:48:fe:1d:72:d9:48:9a:5d:c0:a8:2c:91:5a:ac:
                    c6:e2:ed:0d:27:f0:1b:15:49:73:38:28:c5:a6:7b:
                    9c:cb:25:ee:c8:50:80:d5:40:39:62:98:0e:b8:4b:
                    7f:f9:82:7a:a3:0d:6b:25:57:17:d3:ae:d7:b0:3f:
                    46:54:ad:84:90:59:ff:88:51:4b:6c:09:e2:d9:8a:
                    2c:8c:78:da:df:5b:ec:a1:47:71:cc:71:97:2d:3a:
                    6b:d9:72:1e:58:20:c3:bf:74:8c:c4:d8:30:26:ae:
                    26:78:20:9c:19:c7:97:3d:fe:e8:8c:cf:5a:c3:4c:
                    cb:83:10:c6:40:15:bb:6a:b5:57:be:32:ec:7d:34:
                    0e:d1:8a:e9:0e:0e:ee:6d:3d:50:5a:41:fe:ae:c2:
                    e4:31:e0:cb:2b:b7:ea:7b:f0:f7:98:f4:57:7e:c5:
                    1c:73:2b:8c:4d:8b:c9:57:79:c6:2f:72:52:02:f0:
                    63:0f:61:8b:b8:32:9d:0c:90:cb:9c:39:1b:5d:6f:
                    72:ef:4e:63:d8:0f:8f:92:fa:28:de:d7:1c:28:0e:
                    32:62:8b:55:ea:ad:37:b9:00:3b:f4:fc:25:4e:4c:
                    32:fb:22:40:6f:b2:58:17:e1:a2:41:c0:28:79:ae:
                    de:d6:3f:f0:a8:73:df:ff:65:8e:b0:b3:66:28:0a:
                    14:8e:8f:15:84:93:b7:9c:16:15:bf:00:71:8e:f0:
                    a6:19:55
                Exponent: 65537 (0x10001)
        X509v3 extensions:
            X509v3 Basic Constraints: 
                CA:FALSE
            Netscape Comment: 
                Easy-RSA Generated Certificate
            X509v3 Subject Key Identifier: 
                E2:3E:FC:4E:5A:1E:D7:D0:69:A1:1E:22:5A:4B:A3:AC:0A:B3:C0:EE
            X509v3 Authority Key Identifier: 
                keyid:12:CD:60:04:D2:A0:80:9E:70:ED:C6:99:B8:7B:2C:C6:52:FD:19:A1
                DirName:/C=US/ST=OH/L=Columbus/O=VikingVPN/OU=MyOrganizationalUnit/CN=VikingVPN CA/name=EasyRSA/emailAddress=me@myhost.mydomain
                serial:CF:35:85:EE:80:BF:2A:3E

            X509v3 Extended Key Usage: 
                TLS Web Client Authentication
            X509v3 Key Usage: 
                Digital Signature
    Signature Algorithm: md5WithRSAEncryption
         59:28:00:7d:93:63:6b:c5:20:8d:51:00:50:4f:2b:ec:50:eb:
         51:c7:99:a7:a9:5d:21:f7:6e:08:38:3a:0c:2b:5e:42:3e:95:
         48:c0:a8:d1:e9:74:2b:ac:5b:5a:15:fd:ba:6c:88:ce:d5:65:
         dd:3d:4b:3c:3e:52:ca:77:bb:21:65:bc:d2:5c:a9:72:64:5e:
         3c:83:23:a8:82:56:e1:e9:ba:70:be:16:fc:f3:79:42:2e:e5:
         8a:86:3d:d7:63:57:0e:40:2d:2a:8a:17:4c:65:1c:cb:d7:63:
         69:0a:7d:31:da:a2:21:ab:6f:b9:86:5c:21:22:9b:78:d5:fc:
         e2:af:c2:2f:db:42:fb:d3:a6:80:a8:8d:7d:ef:38:34:ed:b8:
         b0:89:c8:7f:25:bb:19:34:78:5f:46:34:67:75:b9:ff:83:14:
         ce:c8:8e:62:f4:57:b6:a3:f6:b3:00:f1:a3:e2:fc:1d:c3:a3:
         68:e6:74:d1:25:e2:2a:71:08:36:ea:59:3c:57:66:27:bf:18:
         2c:fc:2c:72:66:43:17:10:9a:da:eb:e9:c9:16:63:78:e5:c8:
         52:ad:02:31:a6:dc:7c:03:34:e7:ac:a3:30:07:ea:b7:57:a3:
         0d:84:e5:04:12:1f:9c:af:20:fb:9c:b5:50:ef:0d:32:20:5f:
         ac:bd:77:79:eb:31:d0:0c:0b:6b:62:b7:7c:42:9a:cf:01:7d:
         b0:3c:46:42:37:85:4f:e7:0e:88:22:ea:9f:70:af:b9:6d:cb:
         74:b5:64:be:df:2e:48:b9:7d:55:64:db:eb:df:d4:6e:46:4a:
         e8:a4:ce:cb:78:65:40:8b:28:0c:17:1b:52:d2:ea:ac:06:e7:
         24:cd:f0:94:8e:ba:bf:3d:9d:7c:f0:95:62:73:e7:b8:f4:5f:
         00:be:dd:6e:7f:54:24:bd:e8:07:5c:33:60:56:fa:32:41:d7:
         6a:0e:0b:9c:b3:4a:20:41:2d:5f:c5:72:73:52:df:e2:27:75:
         85:17:da:a3:ff:2f:d9:7f:e3:38:96:fd:54:a9:a0:ce:4b:b2:
         fb:fd:8d:1f:88:65:ab:00:f6:e8:f0:ea:e4:b3:20:aa:d6:4f:
         d0:4f:2b:82:7a:f5:04:87:56:86:f0:82:f6:ec:fb:99:a1:f4:
         f4:01:0a:0a:f8:38:4a:96:6a:ec:3c:7e:0d:1c:3f:59:28:70:
         97:9e:80:79:d4:8e:23:df:b3:ab:6d:e5:22:33:15:e8:5e:52:
         86:5e:27:53:5c:82:84:3f:19:61:d6:2b:fb:c1:02:01:a2:c0:
         74:8a:ce:5c:21:3b:3c:b0:1c:b0:78:fd:a9:7f:1c:79:f5:ae:
         70:8e:e8:cd:76:3a:78:ed
-----BEGIN CERTIFICATE-----
MIIGrTCCBJWgAwIBAgICD0owDQYJKoZIhvcNAQEEBQAwgawxCzAJBgNVBAYTAlVT
MQswCQYDVQQIEwJPSDERMA8GA1UEBxMIQ29sdW1idXMxEjAQBgNVBAoTCVZpa2lu
Z1ZQTjEdMBsGA1UECxMUTXlPcmdhbml6YXRpb25hbFVuaXQxFTATBgNVBAMTDFZp
a2luZ1ZQTiBDQTEQMA4GA1UEKRMHRWFzeVJTQTEhMB8GCSqGSIb3DQEJARYSbWVA
bXlob3N0Lm15ZG9tYWluMB4XDTE0MTIzMDE1NDcxOVoXDTI0MTIyNzE1NDcxOVow
HzEdMBsGA1UEAxMUQ2xpZW50MTMxMUNlcnQ5ZGYzZGUwggIiMA0GCSqGSIb3DQEB
AQUAA4ICDwAwggIKAoICAQCgZBl+BwmEQdKMRF8ol3vFPqviUWc6FikrW4nO4cFK
ViPIwioAV3o2auFoUamwqh+Wp0yRjzOKeCHJ3ZtaZZL9sCE+rtQ6Z0wXXXrw0rh4
VytVxqCaIfMW5sOZQqOsERseeD7sqFkuN/QY1B+K0waxZYc+6sTtqKWSa6tZwn8z
lu/BBflA93E2USHf08AD7HNB3ZFtcfvv5CtHRQRDagTZnZAcm3oU2GUebjTvcO5/
yJveUVx6N0V0oFTZ/9ulE+QvhL7sfCWKnq5XYCByZVKnB2WT8gg6jjxxUGhGJSos
us4zs6a6aVzdDo6l6uqYT1NI/h1y2UiaXcCoLJFarMbi7Q0n8BsVSXM4KMWme5zL
Je7IUIDVQDlimA64S3/5gnqjDWslVxfTrtewP0ZUrYSQWf+IUUtsCeLZiiyMeNrf
W+yhR3HMcZctOmvZch5YIMO/dIzE2DAmriZ4IJwZx5c9/uiMz1rDTMuDEMZAFbtq
tVe+Mux9NA7RiukODu5tPVBaQf6uwuQx4Msrt+p78PeY9Fd+xRxzK4xNi8lXecYv
clIC8GMPYYu4Mp0MkMucORtdb3LvTmPYD4+S+ije1xwoDjJii1XqrTe5ADv0/CVO
TDL7IkBvslgX4aJBwCh5rt7WP/Coc9//ZY6ws2YoChSOjxWEk7ecFhW/AHGO8KYZ
VQIDAQABo4IBYzCCAV8wCQYDVR0TBAIwADAtBglghkgBhvhCAQ0EIBYeRWFzeS1S
U0EgR2VuZXJhdGVkIENlcnRpZmljYXRlMB0GA1UdDgQWBBTiPvxOWh7X0GmhHiJa
S6OsCrPA7jCB4QYDVR0jBIHZMIHWgBQSzWAE0qCAnnDtxpm4eyzGUv0ZoaGBsqSB
rzCBrDELMAkGA1UEBhMCVVMxCzAJBgNVBAgTAk9IMREwDwYDVQQHEwhDb2x1bWJ1
czESMBAGA1UEChMJVmlraW5nVlBOMR0wGwYDVQQLExRNeU9yZ2FuaXphdGlvbmFs
VW5pdDEVMBMGA1UEAxMMVmlraW5nVlBOIENBMRAwDgYDVQQpEwdFYXN5UlNBMSEw
HwYJKoZIhvcNAQkBFhJtZUBteWhvc3QubXlkb21haW6CCQDPNYXugL8qPjATBgNV
HSUEDDAKBggrBgEFBQcDAjALBgNVHQ8EBAMCB4AwDQYJKoZIhvcNAQEEBQADggIB
AFkoAH2TY2vFII1RAFBPK+xQ61HHmaepXSH3bgg4OgwrXkI+lUjAqNHpdCusW1oV
/bpsiM7VZd09Szw+Usp3uyFlvNJcqXJkXjyDI6iCVuHpunC+FvzzeUIu5YqGPddj
Vw5ALSqKF0xlHMvXY2kKfTHaoiGrb7mGXCEim3jV/OKvwi/bQvvTpoCojX3vODTt
uLCJyH8luxk0eF9GNGd1uf+DFM7IjmL0V7aj9rMA8aPi/B3Do2jmdNEl4ipxCDbq
WTxXZie/GCz8LHJmQxcQmtrr6ckWY3jlyFKtAjGm3HwDNOesozAH6rdXow2E5QQS
H5yvIPuctVDvDTIgX6y9d3nrMdAMC2tit3xCms8BfbA8RkI3hU/nDogi6p9wr7lt
y3S1ZL7fLki5fVVk2+vf1G5GSuikzst4ZUCLKAwXG1LS6qwG5yTN8JSOur89nXzw
lWJz57j0XwC+3W5/VCS96AdcM2BW+jJB12oOC5yzSiBBLV/FcnNS3+IndYUX2qP/
L9l/4ziW/VSpoM5Lsvv9jR+IZasA9ujw6uSzIKrWT9BPK4J69QSHVobwgvbs+5mh
9PQBCgr4OEqWauw8fg0cP1kocJeegHnUjiPfs6tt5SIzFeheUoZeJ1NcgoQ/GWHW
K/vBAgGiwHSKzlwhOzywHLB4/al/HHn1rnCO6M12Onjt
-----END CERTIFICATE-----
