Certificate:
    Data:
        Version: 3 (0x2)
        Serial Number: 3916 (0xf4c)
    Signature Algorithm: md5WithRSAEncryption
        Issuer: C=US, ST=OH, L=Columbus, O=VikingVPN, OU=MyOrganizationalUnit, CN=VikingVPN CA/name=EasyRSA/emailAddress=me@myhost.mydomain
        Validity
            Not Before: Dec 31 00:38:46 2014 GMT
            Not After : Dec 28 00:38:46 2024 GMT
        Subject: CN=Client1272Cert81f321
        Subject Public Key Info:
            Public Key Algorithm: rsaEncryption
                Public-Key: (4096 bit)
                Modulus:
                    00:bc:88:58:8c:5c:d8:38:b9:66:32:78:56:a8:ef:
                    74:fe:d1:7f:af:e7:84:fe:df:27:2b:fd:71:a9:a7:
                    f1:7e:28:34:1e:dd:14:b5:7a:6f:af:52:fc:69:1d:
                    d6:84:2a:9f:e1:73:35:8c:1c:a2:38:c6:30:9f:f7:
                    47:65:8d:4d:e2:a2:e0:0f:18:96:d8:ce:a0:d0:59:
                    12:b3:85:84:86:11:15:39:11:d2:5a:8d:43:f6:d6:
                    5b:cc:9f:02:83:d9:fd:a4:0d:61:f7:1b:f3:26:d5:
                    6b:e5:ee:64:0b:e3:7f:8b:f7:4a:58:56:8f:ae:b2:
                    4b:70:1c:41:d7:9c:1f:d7:37:7f:d8:4a:81:35:d2:
                    13:88:9e:f7:c2:4b:41:17:b4:c9:0b:4a:5c:b8:49:
                    41:a9:12:e3:01:b6:66:c4:b0:b9:88:8b:2a:51:8e:
                    b2:45:76:85:da:83:0f:ad:d2:d0:cc:42:05:89:b5:
                    9e:3f:07:2a:66:e7:83:9e:40:83:3b:03:90:86:62:
                    3d:46:71:a1:e2:65:96:02:be:d9:7f:3d:3f:32:3b:
                    00:2d:0e:af:06:60:8c:26:2e:8a:56:91:ed:7b:bf:
                    2b:c0:cd:ea:25:f0:df:b4:1e:c7:0a:8e:0c:00:f6:
                    89:e1:1a:5b:48:d2:17:68:cb:f0:7f:66:19:3a:59:
                    fd:57:fe:eb:e0:af:de:f2:93:a9:63:42:a1:0e:14:
                    92:c0:dc:68:f5:8b:94:b3:d6:64:5f:aa:58:f0:bb:
                    87:d6:90:e1:e9:f0:5a:5f:a7:49:e6:19:ca:96:7b:
                    6b:42:b1:29:8c:b4:b6:d7:31:9c:b4:c5:a6:92:16:
                    c0:94:1b:7e:58:05:b9:ba:be:c5:a6:ab:af:3e:b1:
                    94:1e:4c:52:86:5c:7e:e7:62:8d:9b:3e:3e:a3:95:
                    89:dc:db:ae:37:96:93:65:52:7c:db:96:c4:fb:01:
                    53:9e:80:83:2a:d3:72:e1:3e:5a:ef:4d:25:fc:3c:
                    48:e6:d6:22:0c:89:56:04:3a:92:68:a5:86:0a:c8:
                    95:61:88:fd:05:7d:e9:9a:e5:d1:ad:3d:5b:46:31:
                    50:4b:5f:dc:01:c4:19:d9:60:73:86:57:e3:f8:82:
                    56:97:c1:27:b3:c9:fc:c3:88:fb:a6:4e:2b:54:12:
                    fd:2f:4e:11:df:92:fd:b8:29:57:f0:5e:31:9e:1d:
                    0b:3d:4d:57:d2:8e:d9:0c:45:2f:20:d4:60:8a:89:
                    96:d3:64:2f:a0:24:89:34:32:a5:66:be:65:80:0b:
                    26:5a:41:f0:7c:5d:1d:0a:a9:9b:80:08:94:00:65:
                    98:6a:98:70:12:76:42:ab:20:31:94:9a:a7:e4:70:
                    a2:f8:cf
                Exponent: 65537 (0x10001)
        X509v3 extensions:
            X509v3 Basic Constraints: 
                CA:FALSE
            Netscape Comment: 
                Easy-RSA Generated Certificate
            X509v3 Subject Key Identifier: 
                52:53:ED:DD:B3:B5:D5:E9:F5:DE:F7:5B:E1:E0:3F:AF:B3:38:FA:E7
            X509v3 Authority Key Identifier: 
                keyid:12:CD:60:04:D2:A0:80:9E:70:ED:C6:99:B8:7B:2C:C6:52:FD:19:A1
                DirName:/C=US/ST=OH/L=Columbus/O=VikingVPN/OU=MyOrganizationalUnit/CN=VikingVPN CA/name=EasyRSA/emailAddress=me@myhost.mydomain
                serial:CF:35:85:EE:80:BF:2A:3E

            X509v3 Extended Key Usage: 
                TLS Web Client Authentication
            X509v3 Key Usage: 
                Digital Signature
    Signature Algorithm: md5WithRSAEncryption
         8d:c7:a2:e0:ab:af:4f:99:d0:52:60:42:b3:84:4f:b2:ee:88:
         84:78:0a:24:49:a3:3e:3e:17:12:3f:dd:b3:d0:00:14:46:3c:
         97:b4:ed:69:98:4d:d4:7e:a7:17:72:1a:a7:ec:12:3d:b6:84:
         35:76:a1:f0:ba:ca:af:26:29:25:2c:df:4e:27:81:42:4e:1d:
         9e:98:51:e2:c5:8f:dd:ba:03:fd:ef:07:9d:87:19:c9:29:39:
         22:1a:c0:e1:34:7b:e4:7f:1b:f4:8b:12:f0:3d:a8:74:77:9f:
         bf:aa:78:8d:0a:55:fa:49:ec:01:71:b8:16:9a:00:39:2f:ef:
         ad:e0:59:31:e2:96:3a:2d:32:36:7a:51:38:25:6e:02:05:e5:
         d6:69:a9:18:c5:82:c8:67:e3:c6:4c:02:06:b1:a6:04:1d:8c:
         f0:7a:a0:ad:6b:8c:9a:84:ab:ad:7d:2b:85:39:6a:82:b7:e8:
         7a:11:66:2f:a9:eb:a1:f1:8a:bf:9f:5d:8b:17:4c:13:5e:15:
         7e:d3:7f:4f:51:a6:48:49:be:d1:2f:d8:b0:03:b8:56:17:37:
         cc:87:72:24:9f:ab:f4:c1:e1:7c:83:3c:c0:e6:2d:6e:53:08:
         3c:f5:fa:ea:b1:ba:53:f8:43:1c:94:33:55:76:f7:cf:ed:1b:
         cc:5f:cc:e7:37:97:21:b6:c2:05:43:cd:c7:21:7a:23:56:c7:
         49:29:8c:5f:ff:9a:3e:b4:b4:b3:91:b6:0b:ca:60:21:53:cd:
         d8:ac:9f:eb:4a:23:29:1b:84:58:87:df:67:42:12:38:9e:46:
         4d:9b:b0:e7:f9:bd:f1:2a:dc:ee:ae:e1:84:5d:47:0b:66:1f:
         59:2e:3d:b6:90:d0:f6:92:4f:34:65:07:13:87:ff:42:d2:5e:
         32:d6:8b:68:83:78:3e:17:64:5e:72:95:72:0c:7c:fd:99:42:
         b6:a7:c8:86:74:a5:5d:11:54:bb:ef:bf:9f:09:43:07:3d:ec:
         bd:b4:4b:c3:67:34:ba:06:2e:f5:a6:b6:68:3d:4e:86:b5:aa:
         67:1e:84:f2:8d:74:63:9a:29:a4:65:fb:38:ce:01:99:52:5b:
         5f:c1:9e:a5:db:04:59:d8:3d:d0:33:1d:d1:27:d7:c4:9b:3a:
         36:eb:ee:2f:63:39:c9:39:2a:a3:2d:e6:aa:b9:38:4b:46:8a:
         af:e0:8b:21:66:1b:56:6f:c1:1b:61:d1:c0:f8:5d:10:65:b2:
         5a:5a:6a:14:a6:b7:7c:4a:76:d7:35:ec:be:ee:60:6d:3c:51:
         a2:94:28:ad:05:b5:cb:45:bd:6a:49:cd:95:f1:5d:bd:f1:c0:
         84:d8:8b:ca:c8:43:e5:88
-----BEGIN CERTIFICATE-----
MIIGrTCCBJWgAwIBAgICD0wwDQYJKoZIhvcNAQEEBQAwgawxCzAJBgNVBAYTAlVT
MQswCQYDVQQIEwJPSDERMA8GA1UEBxMIQ29sdW1idXMxEjAQBgNVBAoTCVZpa2lu
Z1ZQTjEdMBsGA1UECxMUTXlPcmdhbml6YXRpb25hbFVuaXQxFTATBgNVBAMTDFZp
a2luZ1ZQTiBDQTEQMA4GA1UEKRMHRWFzeVJTQTEhMB8GCSqGSIb3DQEJARYSbWVA
bXlob3N0Lm15ZG9tYWluMB4XDTE0MTIzMTAwMzg0NloXDTI0MTIyODAwMzg0Nlow
HzEdMBsGA1UEAxMUQ2xpZW50MTI3MkNlcnQ4MWYzMjEwggIiMA0GCSqGSIb3DQEB
AQUAA4ICDwAwggIKAoICAQC8iFiMXNg4uWYyeFao73T+0X+v54T+3ycr/XGpp/F+
KDQe3RS1em+vUvxpHdaEKp/hczWMHKI4xjCf90dljU3iouAPGJbYzqDQWRKzhYSG
ERU5EdJajUP21lvMnwKD2f2kDWH3G/Mm1Wvl7mQL43+L90pYVo+usktwHEHXnB/X
N3/YSoE10hOInvfCS0EXtMkLSly4SUGpEuMBtmbEsLmIiypRjrJFdoXagw+t0tDM
QgWJtZ4/Bypm54OeQIM7A5CGYj1GcaHiZZYCvtl/PT8yOwAtDq8GYIwmLopWke17
vyvAzeol8N+0HscKjgwA9onhGltI0hdoy/B/Zhk6Wf1X/uvgr97yk6ljQqEOFJLA
3Gj1i5Sz1mRfqljwu4fWkOHp8Fpfp0nmGcqWe2tCsSmMtLbXMZy0xaaSFsCUG35Y
Bbm6vsWmq68+sZQeTFKGXH7nYo2bPj6jlYnc2643lpNlUnzblsT7AVOegIMq03Lh
PlrvTSX8PEjm1iIMiVYEOpJopYYKyJVhiP0Ffema5dGtPVtGMVBLX9wBxBnZYHOG
V+P4glaXwSezyfzDiPumTitUEv0vThHfkv24KVfwXjGeHQs9TVfSjtkMRS8g1GCK
iZbTZC+gJIk0MqVmvmWACyZaQfB8XR0KqZuACJQAZZhqmHASdkKrIDGUmqfkcKL4
zwIDAQABo4IBYzCCAV8wCQYDVR0TBAIwADAtBglghkgBhvhCAQ0EIBYeRWFzeS1S
U0EgR2VuZXJhdGVkIENlcnRpZmljYXRlMB0GA1UdDgQWBBRSU+3ds7XV6fXe91vh
4D+vszj65zCB4QYDVR0jBIHZMIHWgBQSzWAE0qCAnnDtxpm4eyzGUv0ZoaGBsqSB
rzCBrDELMAkGA1UEBhMCVVMxCzAJBgNVBAgTAk9IMREwDwYDVQQHEwhDb2x1bWJ1
czESMBAGA1UEChMJVmlraW5nVlBOMR0wGwYDVQQLExRNeU9yZ2FuaXphdGlvbmFs
VW5pdDEVMBMGA1UEAxMMVmlraW5nVlBOIENBMRAwDgYDVQQpEwdFYXN5UlNBMSEw
HwYJKoZIhvcNAQkBFhJtZUBteWhvc3QubXlkb21haW6CCQDPNYXugL8qPjATBgNV
HSUEDDAKBggrBgEFBQcDAjALBgNVHQ8EBAMCB4AwDQYJKoZIhvcNAQEEBQADggIB
AI3HouCrr0+Z0FJgQrOET7LuiIR4CiRJoz4+FxI/3bPQABRGPJe07WmYTdR+pxdy
GqfsEj22hDV2ofC6yq8mKSUs304ngUJOHZ6YUeLFj926A/3vB52HGckpOSIawOE0
e+R/G/SLEvA9qHR3n7+qeI0KVfpJ7AFxuBaaADkv763gWTHiljotMjZ6UTglbgIF
5dZpqRjFgshn48ZMAgaxpgQdjPB6oK1rjJqEq619K4U5aoK36HoRZi+p66Hxir+f
XYsXTBNeFX7Tf09RpkhJvtEv2LADuFYXN8yHciSfq/TB4XyDPMDmLW5TCDz1+uqx
ulP4QxyUM1V298/tG8xfzOc3lyG2wgVDzccheiNWx0kpjF//mj60tLORtgvKYCFT
zdisn+tKIykbhFiH32dCEjieRk2bsOf5vfEq3O6u4YRdRwtmH1kuPbaQ0PaSTzRl
BxOH/0LSXjLWi2iDeD4XZF5ylXIMfP2ZQranyIZ0pV0RVLvvv58JQwc97L20S8Nn
NLoGLvWmtmg9Toa1qmcehPKNdGOaKaRl+zjOAZlSW1/BnqXbBFnYPdAzHdEn18Sb
Ojbr7i9jOck5KqMt5qq5OEtGiq/giyFmG1ZvwRth0cD4XRBlslpaahSmt3xKdtc1
7L7uYG08UaKUKK0FtctFvWpJzZXxXb3xwITYi8rIQ+WI
-----END CERTIFICATE-----
