Certificate:
    Data:
        Version: 3 (0x2)
        Serial Number: 3963 (0xf7b)
    Signature Algorithm: md5WithRSAEncryption
        Issuer: C=US, ST=OH, L=Columbus, O=VikingVPN, OU=MyOrganizationalUnit, CN=VikingVPN CA/name=EasyRSA/emailAddress=me@myhost.mydomain
        Validity
            Not Before: Jan  2 21:16:15 2015 GMT
            Not After : Dec 30 21:16:15 2024 GMT
        Subject: CN=Client801Cert0ec720
        Subject Public Key Info:
            Public Key Algorithm: rsaEncryption
                Public-Key: (4096 bit)
                Modulus:
                    00:c9:22:6f:7a:5a:df:77:0c:a0:aa:43:b5:4d:95:
                    bf:52:36:8f:3e:0a:85:1c:80:7d:41:4e:71:87:94:
                    ec:58:08:c1:1d:43:53:d8:5b:b3:44:72:49:d0:a0:
                    d1:28:be:4c:82:10:19:0e:fa:0a:4e:4b:64:30:a5:
                    e6:4d:0b:21:8b:b5:06:6a:6f:19:eb:58:68:b1:f8:
                    e0:35:0f:7b:54:23:54:0f:73:86:d7:7a:75:cb:7e:
                    6d:6d:a4:08:c9:c7:67:9b:9b:03:b4:76:81:8a:d0:
                    c3:36:3e:2e:33:db:6a:d8:96:ec:9a:a9:8f:c7:cb:
                    e0:be:85:3a:c8:03:3d:52:5a:92:77:e7:15:ed:de:
                    bd:7a:3f:95:21:6d:da:0f:9d:0d:17:ed:89:e0:67:
                    44:09:59:45:d9:d2:47:22:c7:d9:cc:36:2a:d9:7d:
                    fa:bc:ed:6e:04:2a:d1:a3:c1:46:f6:ae:6d:f8:68:
                    ba:99:c8:d9:6f:e3:ff:b5:e2:49:f2:be:36:75:cf:
                    fc:0a:15:bf:e6:7a:07:cb:e7:14:da:fe:7b:66:ae:
                    cc:1b:1b:fb:15:b2:c0:8b:e5:91:22:fc:02:fa:35:
                    96:8b:18:59:98:ec:af:8e:ef:ff:79:61:95:2d:51:
                    ad:03:3e:f1:30:c4:50:68:fd:51:29:32:a6:87:14:
                    dd:83:f4:19:11:e5:52:e7:b6:fe:b4:38:f5:21:f4:
                    44:89:ae:e7:0d:74:9b:1c:50:79:19:bc:46:a9:ca:
                    07:dc:0e:23:76:a8:49:77:38:ee:ae:2d:1c:08:5c:
                    6b:8b:49:9a:35:6b:2f:24:9c:14:aa:18:bb:ec:04:
                    27:85:ce:be:20:a3:8d:be:fd:66:dd:3d:37:73:af:
                    c6:54:41:76:06:62:99:05:5c:10:48:55:57:b5:d4:
                    1d:d1:7f:6c:d1:cf:9f:10:84:32:22:b9:af:8c:f9:
                    bd:2c:a9:c8:18:ed:3d:a2:95:46:16:a2:fd:31:8d:
                    e6:09:65:0b:3a:9e:0e:75:3b:1f:ea:e6:a5:62:49:
                    ea:02:31:89:e6:44:e0:02:49:58:8b:96:66:29:47:
                    81:48:36:6c:e4:83:57:1c:70:14:7c:9b:07:89:81:
                    c5:92:ad:15:5a:50:20:2b:91:93:39:ee:3d:cd:c7:
                    fe:06:b0:83:6b:53:ff:42:52:15:7b:80:1d:73:38:
                    3c:05:27:82:94:b2:f1:2e:02:74:7e:fd:9b:3b:71:
                    44:18:54:8d:18:80:f8:e7:da:34:e6:ff:a4:37:ae:
                    41:f0:2d:32:30:70:2d:45:43:b3:ea:0c:fb:a5:03:
                    a9:40:2c:d6:81:57:43:31:da:9e:58:c7:18:79:fc:
                    5e:8f:bf
                Exponent: 65537 (0x10001)
        X509v3 extensions:
            X509v3 Basic Constraints: 
                CA:FALSE
            Netscape Comment: 
                Easy-RSA Generated Certificate
            X509v3 Subject Key Identifier: 
                F6:48:DA:86:37:9E:11:BE:44:F6:A6:79:4B:2F:DF:22:79:A4:CC:7F
            X509v3 Authority Key Identifier: 
                keyid:12:CD:60:04:D2:A0:80:9E:70:ED:C6:99:B8:7B:2C:C6:52:FD:19:A1
                DirName:/C=US/ST=OH/L=Columbus/O=VikingVPN/OU=MyOrganizationalUnit/CN=VikingVPN CA/name=EasyRSA/emailAddress=me@myhost.mydomain
                serial:CF:35:85:EE:80:BF:2A:3E

            X509v3 Extended Key Usage: 
                TLS Web Client Authentication
            X509v3 Key Usage: 
                Digital Signature
    Signature Algorithm: md5WithRSAEncryption
         93:86:5d:9c:03:3e:31:cf:93:ad:c6:e4:20:cd:b2:dd:8f:11:
         01:0f:c4:d4:0a:08:54:6c:20:4f:69:10:43:a2:db:60:bb:f3:
         75:1b:f2:ac:a9:1f:f4:07:eb:f4:32:e9:0c:6d:1f:18:bb:53:
         2b:db:2e:1e:ba:ea:4b:dc:0d:df:69:b7:9b:65:2f:93:f8:77:
         f7:6e:a0:3e:2f:29:d7:e4:39:35:82:c2:12:58:e4:b2:7e:10:
         d2:ac:83:bc:8e:ff:c1:99:d6:66:c1:59:9f:53:88:ae:0b:5d:
         67:92:08:82:86:5e:5b:70:f0:cc:30:3c:3e:9c:dd:d9:c7:5d:
         f6:1c:8c:84:1b:cc:a7:9e:01:39:6a:be:97:8c:e8:9a:32:08:
         6d:41:8b:c0:ac:b4:b0:ce:97:97:95:e2:72:3f:35:cf:26:5e:
         2e:03:80:fd:85:1a:a0:c3:5b:7c:af:2b:cb:d6:ca:bf:fd:17:
         85:d8:af:70:4c:e3:2d:51:f9:20:9b:23:78:8a:a8:aa:62:66:
         1b:37:db:04:dc:56:3f:4b:f4:01:28:9c:83:d1:85:c4:ac:b4:
         26:92:63:87:ce:c5:3d:6f:53:44:45:88:95:83:9d:17:88:3e:
         72:f8:4e:32:2b:5a:47:8d:1d:23:82:64:c0:fe:a3:86:72:ac:
         fe:8d:7c:09:cf:c1:0a:77:71:ca:78:84:5f:9c:81:a5:48:d2:
         b0:c7:02:ad:06:d9:a8:f2:f9:03:53:ca:e4:f8:94:7a:83:a8:
         a5:23:51:bf:59:15:b0:3c:eb:d4:bd:cf:e5:c3:8d:ad:67:df:
         42:69:27:4f:74:3d:ac:de:06:45:47:98:39:40:04:4b:10:16:
         03:eb:e0:ed:29:a3:c9:86:4d:76:2e:1c:ef:f2:d2:e1:e8:cc:
         bf:7b:c3:5a:a5:f7:30:e8:6a:9a:36:1f:3e:5e:a7:2b:48:55:
         7c:cf:22:f5:15:42:ff:d5:24:30:e4:7e:8d:39:ca:dd:00:ff:
         ef:a7:59:90:01:50:04:51:ce:d7:89:7f:22:de:bd:13:6a:fb:
         d9:a4:62:7c:8d:41:ca:09:6f:c9:37:e6:0a:75:28:06:50:88:
         39:cd:fa:62:1d:98:f2:f3:5c:4a:8d:1f:11:13:26:cc:26:22:
         da:90:86:04:78:4b:9f:5b:4a:cd:2e:43:bd:03:b9:0b:23:05:
         96:1e:27:b5:c4:99:5b:be:36:61:e1:1f:b6:07:4f:d9:dd:b7:
         5c:60:33:78:5f:5d:d5:1e:49:26:35:e2:f0:de:14:f9:47:09:
         39:dc:99:02:f4:98:e4:7c:89:f7:aa:38:5d:8e:b3:db:1f:4a:
         93:7b:7f:3b:3d:c0:a3:9d
-----BEGIN CERTIFICATE-----
MIIGrDCCBJSgAwIBAgICD3swDQYJKoZIhvcNAQEEBQAwgawxCzAJBgNVBAYTAlVT
MQswCQYDVQQIEwJPSDERMA8GA1UEBxMIQ29sdW1idXMxEjAQBgNVBAoTCVZpa2lu
Z1ZQTjEdMBsGA1UECxMUTXlPcmdhbml6YXRpb25hbFVuaXQxFTATBgNVBAMTDFZp
a2luZ1ZQTiBDQTEQMA4GA1UEKRMHRWFzeVJTQTEhMB8GCSqGSIb3DQEJARYSbWVA
bXlob3N0Lm15ZG9tYWluMB4XDTE1MDEwMjIxMTYxNVoXDTI0MTIzMDIxMTYxNVow
HjEcMBoGA1UEAxMTQ2xpZW50ODAxQ2VydDBlYzcyMDCCAiIwDQYJKoZIhvcNAQEB
BQADggIPADCCAgoCggIBAMkib3pa33cMoKpDtU2Vv1I2jz4KhRyAfUFOcYeU7FgI
wR1DU9hbs0RySdCg0Si+TIIQGQ76Ck5LZDCl5k0LIYu1BmpvGetYaLH44DUPe1Qj
VA9zhtd6dct+bW2kCMnHZ5ubA7R2gYrQwzY+LjPbatiW7Jqpj8fL4L6FOsgDPVJa
knfnFe3evXo/lSFt2g+dDRftieBnRAlZRdnSRyLH2cw2Ktl9+rztbgQq0aPBRvau
bfhoupnI2W/j/7XiSfK+NnXP/AoVv+Z6B8vnFNr+e2auzBsb+xWywIvlkSL8Avo1
losYWZjsr47v/3lhlS1RrQM+8TDEUGj9USkypocU3YP0GRHlUue2/rQ49SH0RImu
5w10mxxQeRm8RqnKB9wOI3aoSXc47q4tHAhca4tJmjVrLyScFKoYu+wEJ4XOviCj
jb79Zt09N3OvxlRBdgZimQVcEEhVV7XUHdF/bNHPnxCEMiK5r4z5vSypyBjtPaKV
Rhai/TGN5gllCzqeDnU7H+rmpWJJ6gIxieZE4AJJWIuWZilHgUg2bOSDVxxwFHyb
B4mBxZKtFVpQICuRkznuPc3H/gawg2tT/0JSFXuAHXM4PAUngpSy8S4CdH79mztx
RBhUjRiA+OfaNOb/pDeuQfAtMjBwLUVDs+oM+6UDqUAs1oFXQzHanljHGHn8Xo+/
AgMBAAGjggFjMIIBXzAJBgNVHRMEAjAAMC0GCWCGSAGG+EIBDQQgFh5FYXN5LVJT
QSBHZW5lcmF0ZWQgQ2VydGlmaWNhdGUwHQYDVR0OBBYEFPZI2oY3nhG+RPameUsv
3yJ5pMx/MIHhBgNVHSMEgdkwgdaAFBLNYATSoICecO3Gmbh7LMZS/RmhoYGypIGv
MIGsMQswCQYDVQQGEwJVUzELMAkGA1UECBMCT0gxETAPBgNVBAcTCENvbHVtYnVz
MRIwEAYDVQQKEwlWaWtpbmdWUE4xHTAbBgNVBAsTFE15T3JnYW5pemF0aW9uYWxV
bml0MRUwEwYDVQQDEwxWaWtpbmdWUE4gQ0ExEDAOBgNVBCkTB0Vhc3lSU0ExITAf
BgkqhkiG9w0BCQEWEm1lQG15aG9zdC5teWRvbWFpboIJAM81he6Avyo+MBMGA1Ud
JQQMMAoGCCsGAQUFBwMCMAsGA1UdDwQEAwIHgDANBgkqhkiG9w0BAQQFAAOCAgEA
k4ZdnAM+Mc+TrcbkIM2y3Y8RAQ/E1AoIVGwgT2kQQ6LbYLvzdRvyrKkf9Afr9DLp
DG0fGLtTK9suHrrqS9wN32m3m2Uvk/h3926gPi8p1+Q5NYLCEljksn4Q0qyDvI7/
wZnWZsFZn1OIrgtdZ5IIgoZeW3DwzDA8Ppzd2cdd9hyMhBvMp54BOWq+l4zomjII
bUGLwKy0sM6Xl5Xicj81zyZeLgOA/YUaoMNbfK8ry9bKv/0XhdivcEzjLVH5IJsj
eIqoqmJmGzfbBNxWP0v0ASicg9GFxKy0JpJjh87FPW9TREWIlYOdF4g+cvhOMita
R40dI4JkwP6jhnKs/o18Cc/BCndxyniEX5yBpUjSsMcCrQbZqPL5A1PK5PiUeoOo
pSNRv1kVsDzr1L3P5cONrWffQmknT3Q9rN4GRUeYOUAESxAWA+vg7SmjyYZNdi4c
7/LS4ejMv3vDWqX3MOhqmjYfPl6nK0hVfM8i9RVC/9UkMOR+jTnK3QD/76dZkAFQ
BFHO14l/It69E2r72aRifI1ByglvyTfmCnUoBlCIOc36Yh2Y8vNcSo0fERMmzCYi
2pCGBHhLn1tKzS5DvQO5CyMFlh4ntcSZW742YeEftgdP2d23XGAzeF9d1R5JJjXi
8N4U+UcJOdyZAvSY5HyJ96o4XY6z2x9Kk3t/Oz3Ao50=
-----END CERTIFICATE-----
