Certificate:
    Data:
        Version: 3 (0x2)
        Serial Number: 3966 (0xf7e)
    Signature Algorithm: md5WithRSAEncryption
        Issuer: C=US, ST=OH, L=Columbus, O=VikingVPN, OU=MyOrganizationalUnit, CN=VikingVPN CA/name=EasyRSA/emailAddress=me@myhost.mydomain
        Validity
            Not Before: Jan  2 21:16:42 2015 GMT
            Not After : Dec 30 21:16:42 2024 GMT
        Subject: CN=Client801Certcf9b26
        Subject Public Key Info:
            Public Key Algorithm: rsaEncryption
                Public-Key: (4096 bit)
                Modulus:
                    00:b5:11:22:b6:63:43:2c:a9:37:a6:1c:62:86:6f:
                    9d:c7:97:66:13:44:68:28:5e:e7:34:69:d0:ea:6e:
                    c0:eb:4a:bc:ed:8b:0b:3a:28:7c:ff:08:31:0b:6c:
                    83:fd:8c:18:65:b5:10:23:dd:db:ea:b1:fe:56:80:
                    24:08:44:5c:6a:6f:48:ca:57:7b:c9:b3:90:df:ff:
                    28:df:07:f9:1f:80:7b:2f:78:22:17:2e:59:67:56:
                    dc:6e:1b:1d:9e:48:8e:f3:72:fb:2c:6b:75:b7:ca:
                    ad:dc:c7:8d:4f:c3:de:cd:97:96:4b:09:e8:5b:b0:
                    47:87:35:e1:db:60:58:a1:7b:57:d6:84:8a:b1:96:
                    20:25:bb:0d:6c:19:51:15:0a:27:2b:5f:0a:c8:be:
                    78:59:0e:9f:8d:38:10:bc:b1:fe:f1:ae:bf:92:6d:
                    7e:9c:04:c8:35:07:55:e3:38:c3:4d:65:0f:18:a5:
                    1e:6f:e4:96:58:c6:29:f3:26:1b:98:77:19:5a:75:
                    6a:c4:05:b1:9a:02:a2:f3:86:d9:ea:59:1a:f8:39:
                    79:21:e6:38:a2:43:9f:65:be:eb:be:a1:53:9e:2e:
                    20:93:61:1c:e8:39:ba:08:e7:db:3e:0c:20:e5:a0:
                    5d:fe:0a:76:d9:7b:f2:a1:7a:be:f6:75:00:1d:93:
                    a3:9c:79:5b:19:c0:c5:fa:ca:08:3e:c6:59:50:03:
                    53:8f:fc:b4:07:72:6a:9a:18:51:b5:7e:a8:28:f6:
                    d0:31:6a:9d:f1:f2:9d:2d:cd:de:8c:f2:9d:fe:33:
                    54:7b:7f:81:28:12:c1:46:b5:0f:cb:d0:8e:0e:aa:
                    15:8f:31:bd:54:82:dc:ac:ef:be:f9:22:3c:0d:70:
                    cd:09:08:9b:88:38:1d:fb:76:11:6d:b5:e5:0e:cc:
                    39:29:b8:6a:30:f4:c2:eb:38:ef:a2:db:12:5a:06:
                    d1:0e:49:88:25:0d:0b:76:74:e2:19:4d:d4:1f:48:
                    3c:68:f1:e2:5e:48:6a:87:13:7b:5e:c2:61:fc:c3:
                    9f:6c:5c:0e:45:4e:d6:38:94:14:b8:ec:7e:e5:60:
                    f8:0e:14:9c:43:7b:4a:bc:12:ca:28:bf:be:b1:5f:
                    67:93:04:d3:28:3a:bb:17:94:64:1e:64:2f:fb:86:
                    97:49:ba:86:5a:8f:46:f2:28:ca:09:f0:1d:c3:de:
                    65:e1:7d:ef:05:1c:08:14:be:fc:5d:f4:50:85:65:
                    0a:8a:b0:5a:59:a1:50:c2:04:58:ef:2c:ff:8f:e9:
                    c0:10:65:5f:12:73:70:ed:79:1f:56:3c:db:ee:29:
                    4a:47:42:c6:0e:f6:49:f9:6a:8b:f8:37:34:79:d0:
                    a0:4b:1f
                Exponent: 65537 (0x10001)
        X509v3 extensions:
            X509v3 Basic Constraints: 
                CA:FALSE
            Netscape Comment: 
                Easy-RSA Generated Certificate
            X509v3 Subject Key Identifier: 
                F9:78:99:1C:59:74:65:23:0C:CD:E6:D8:82:80:A6:19:80:00:B7:3F
            X509v3 Authority Key Identifier: 
                keyid:12:CD:60:04:D2:A0:80:9E:70:ED:C6:99:B8:7B:2C:C6:52:FD:19:A1
                DirName:/C=US/ST=OH/L=Columbus/O=VikingVPN/OU=MyOrganizationalUnit/CN=VikingVPN CA/name=EasyRSA/emailAddress=me@myhost.mydomain
                serial:CF:35:85:EE:80:BF:2A:3E

            X509v3 Extended Key Usage: 
                TLS Web Client Authentication
            X509v3 Key Usage: 
                Digital Signature
    Signature Algorithm: md5WithRSAEncryption
         4f:56:84:9b:09:fe:4e:3f:7d:e7:5c:33:0a:3b:92:50:ca:ed:
         3c:4f:8a:23:b1:94:d0:5f:b5:6e:cd:ce:c4:e6:05:a0:5e:bf:
         98:67:d4:b4:f6:13:96:62:c4:04:b3:0d:69:ba:57:50:d6:93:
         6d:a1:e4:86:12:d9:ed:de:89:40:33:ee:b2:2f:af:fa:f9:b7:
         67:87:b7:51:16:6c:b5:ee:ac:c0:8c:38:b5:81:8f:4d:27:df:
         b8:e7:48:9b:d0:2e:3b:b1:1e:8d:ed:69:b7:b1:aa:90:50:75:
         fd:c0:56:ed:bf:cb:19:13:b4:bd:35:f6:8f:1e:96:a4:9f:7e:
         b8:61:6b:c4:17:7f:db:32:43:10:1c:a8:ae:28:65:83:1f:e4:
         06:47:9d:81:ee:c8:84:73:65:89:c2:4c:ae:43:14:b5:bd:b1:
         ac:a9:56:a4:8a:f3:9f:d6:7d:c2:1c:b0:1f:46:b8:97:89:fa:
         3e:db:bb:ad:b7:1e:df:e0:6a:9a:a3:95:7e:70:5d:17:0c:8d:
         2a:66:1a:f3:86:56:30:db:80:5e:35:33:35:f7:7d:03:00:3b:
         80:dd:42:1b:f3:9d:0d:8a:b9:d7:a0:9c:3e:b3:23:7c:81:b0:
         6f:25:e3:1a:61:d8:10:13:04:be:61:0d:86:52:9c:de:ed:b0:
         6d:0f:c7:84:32:c1:16:63:8e:ee:66:e8:f1:29:fa:17:49:23:
         44:31:14:05:33:8f:73:da:a1:36:df:d3:6c:32:e0:4b:a1:68:
         16:8c:5f:0d:47:9c:8e:22:0a:cb:fc:c4:82:fe:2e:04:af:bd:
         ac:58:99:a7:b8:9f:ff:48:42:8b:b6:c3:c4:72:11:d5:8c:5b:
         fa:68:04:c9:f5:de:f9:19:93:17:49:30:3e:dd:d3:df:25:cc:
         f2:76:03:b0:91:6e:37:15:2f:d2:eb:e0:79:fe:67:ff:f9:6b:
         e2:8c:ac:e5:61:23:d5:86:a6:72:7f:ba:99:8e:91:01:71:72:
         dc:9a:c1:5a:e7:9f:c5:ec:f1:ec:15:c9:1d:a3:60:39:e2:6e:
         a8:59:06:c5:e1:84:d8:06:a4:b6:16:ee:88:06:98:00:83:2c:
         25:67:77:9b:19:c7:97:26:69:5d:90:c3:73:54:d0:a2:a1:37:
         c9:49:74:db:c0:22:d9:89:18:0a:29:23:b7:7e:48:b8:c1:5b:
         7e:20:59:b8:b7:e4:c7:da:d2:bc:e2:35:26:72:e3:87:e1:bb:
         17:08:34:56:3d:d5:41:d1:56:d6:eb:44:19:76:ad:cb:4b:e4:
         0b:03:55:8b:c6:aa:79:e2:f2:65:b8:f2:b3:8a:2f:e4:6b:4b:
         46:b2:e0:7e:1c:22:f7:ab
-----BEGIN CERTIFICATE-----
MIIGrDCCBJSgAwIBAgICD34wDQYJKoZIhvcNAQEEBQAwgawxCzAJBgNVBAYTAlVT
MQswCQYDVQQIEwJPSDERMA8GA1UEBxMIQ29sdW1idXMxEjAQBgNVBAoTCVZpa2lu
Z1ZQTjEdMBsGA1UECxMUTXlPcmdhbml6YXRpb25hbFVuaXQxFTATBgNVBAMTDFZp
a2luZ1ZQTiBDQTEQMA4GA1UEKRMHRWFzeVJTQTEhMB8GCSqGSIb3DQEJARYSbWVA
bXlob3N0Lm15ZG9tYWluMB4XDTE1MDEwMjIxMTY0MloXDTI0MTIzMDIxMTY0Mlow
HjEcMBoGA1UEAxMTQ2xpZW50ODAxQ2VydGNmOWIyNjCCAiIwDQYJKoZIhvcNAQEB
BQADggIPADCCAgoCggIBALURIrZjQyypN6YcYoZvnceXZhNEaChe5zRp0OpuwOtK
vO2LCzoofP8IMQtsg/2MGGW1ECPd2+qx/laAJAhEXGpvSMpXe8mzkN//KN8H+R+A
ey94IhcuWWdW3G4bHZ5IjvNy+yxrdbfKrdzHjU/D3s2XlksJ6FuwR4c14dtgWKF7
V9aEirGWICW7DWwZURUKJytfCsi+eFkOn404ELyx/vGuv5JtfpwEyDUHVeM4w01l
DxilHm/klljGKfMmG5h3GVp1asQFsZoCovOG2epZGvg5eSHmOKJDn2W+676hU54u
IJNhHOg5ugjn2z4MIOWgXf4Kdtl78qF6vvZ1AB2To5x5WxnAxfrKCD7GWVADU4/8
tAdyapoYUbV+qCj20DFqnfHynS3N3ozynf4zVHt/gSgSwUa1D8vQjg6qFY8xvVSC
3KzvvvkiPA1wzQkIm4g4Hft2EW215Q7MOSm4ajD0wus476LbEloG0Q5JiCUNC3Z0
4hlN1B9IPGjx4l5IaocTe17CYfzDn2xcDkVO1jiUFLjsfuVg+A4UnEN7SrwSyii/
vrFfZ5ME0yg6uxeUZB5kL/uGl0m6hlqPRvIoygnwHcPeZeF97wUcCBS+/F30UIVl
CoqwWlmhUMIEWO8s/4/pwBBlXxJzcO15H1Y82+4pSkdCxg72Sflqi/g3NHnQoEsf
AgMBAAGjggFjMIIBXzAJBgNVHRMEAjAAMC0GCWCGSAGG+EIBDQQgFh5FYXN5LVJT
QSBHZW5lcmF0ZWQgQ2VydGlmaWNhdGUwHQYDVR0OBBYEFPl4mRxZdGUjDM3m2IKA
phmAALc/MIHhBgNVHSMEgdkwgdaAFBLNYATSoICecO3Gmbh7LMZS/RmhoYGypIGv
MIGsMQswCQYDVQQGEwJVUzELMAkGA1UECBMCT0gxETAPBgNVBAcTCENvbHVtYnVz
MRIwEAYDVQQKEwlWaWtpbmdWUE4xHTAbBgNVBAsTFE15T3JnYW5pemF0aW9uYWxV
bml0MRUwEwYDVQQDEwxWaWtpbmdWUE4gQ0ExEDAOBgNVBCkTB0Vhc3lSU0ExITAf
BgkqhkiG9w0BCQEWEm1lQG15aG9zdC5teWRvbWFpboIJAM81he6Avyo+MBMGA1Ud
JQQMMAoGCCsGAQUFBwMCMAsGA1UdDwQEAwIHgDANBgkqhkiG9w0BAQQFAAOCAgEA
T1aEmwn+Tj9951wzCjuSUMrtPE+KI7GU0F+1bs3OxOYFoF6/mGfUtPYTlmLEBLMN
abpXUNaTbaHkhhLZ7d6JQDPusi+v+vm3Z4e3URZste6swIw4tYGPTSffuOdIm9Au
O7Eeje1pt7GqkFB1/cBW7b/LGRO0vTX2jx6WpJ9+uGFrxBd/2zJDEByorihlgx/k
Bkedge7IhHNlicJMrkMUtb2xrKlWpIrzn9Z9whywH0a4l4n6Ptu7rbce3+BqmqOV
fnBdFwyNKmYa84ZWMNuAXjUzNfd9AwA7gN1CG/OdDYq516CcPrMjfIGwbyXjGmHY
EBMEvmENhlKc3u2wbQ/HhDLBFmOO7mbo8Sn6F0kjRDEUBTOPc9qhNt/TbDLgS6Fo
FoxfDUecjiIKy/zEgv4uBK+9rFiZp7if/0hCi7bDxHIR1Yxb+mgEyfXe+RmTF0kw
Pt3T3yXM8nYDsJFuNxUv0uvgef5n//lr4oys5WEj1Yamcn+6mY6RAXFy3JrBWuef
xezx7BXJHaNgOeJuqFkGxeGE2AakthbuiAaYAIMsJWd3mxnHlyZpXZDDc1TQoqE3
yUl028Ai2YkYCikjt35IuMFbfiBZuLfkx9rSvOI1JnLjh+G7Fwg0Vj3VQdFW1utE
GXaty0vkCwNVi8aqeeLyZbjys4ov5GtLRrLgfhwi96s=
-----END CERTIFICATE-----
