Certificate:
    Data:
        Version: 3 (0x2)
        Serial Number: 3974 (0xf86)
    Signature Algorithm: md5WithRSAEncryption
        Issuer: C=US, ST=OH, L=Columbus, O=VikingVPN, OU=MyOrganizationalUnit, CN=VikingVPN CA/name=EasyRSA/emailAddress=me@myhost.mydomain
        Validity
            Not Before: Jan  2 21:21:29 2015 GMT
            Not After : Dec 30 21:21:29 2024 GMT
        Subject: CN=Client801Cert7a31c4
        Subject Public Key Info:
            Public Key Algorithm: rsaEncryption
                Public-Key: (4096 bit)
                Modulus:
                    00:d1:b4:77:68:cc:5e:d9:c8:a9:c0:cb:4f:a3:ad:
                    c4:86:34:55:c8:12:11:02:f1:b4:d9:31:a9:b7:35:
                    81:d5:c9:50:7f:bc:ff:2d:5d:e8:0f:fb:9b:ba:93:
                    da:ee:53:8e:50:ea:b1:4c:67:f1:40:da:7f:49:09:
                    f8:c6:33:e9:fc:5a:0d:fd:3b:29:89:5c:fa:02:d0:
                    99:15:1a:07:68:19:19:14:4c:56:d7:d5:14:61:fa:
                    2e:06:da:86:7d:97:cd:40:ac:8a:63:fa:e4:cb:08:
                    14:94:84:e9:1e:f4:d0:31:8b:5e:43:78:ea:35:f7:
                    12:14:57:76:57:17:91:46:42:14:d8:fe:a9:53:09:
                    43:6e:a0:3b:4c:6e:59:db:da:af:fa:66:1d:0c:1a:
                    16:72:20:4b:b7:40:56:69:83:27:3e:7e:be:b8:ff:
                    b2:cd:d9:22:a3:58:ef:07:db:95:7d:3f:17:08:41:
                    ee:cf:b4:68:e2:10:ff:05:08:3d:7f:2f:bb:2a:21:
                    96:ac:bc:db:1f:95:e5:c3:3c:a9:97:1a:d0:96:c0:
                    40:e5:28:64:04:32:b8:5d:00:12:a1:35:4c:d1:73:
                    4d:aa:a6:8c:de:a5:ba:8c:45:f7:b4:3b:77:0f:a9:
                    f4:e0:fd:22:e9:2c:ba:19:e1:2c:0e:f6:83:8b:56:
                    93:2f:db:db:bf:58:dc:59:11:41:c4:5c:f5:9e:73:
                    79:eb:4f:52:58:a1:91:a5:5d:fe:ad:9a:9b:1d:07:
                    47:5d:75:cd:3e:ea:9d:7c:3a:17:5b:e3:d0:e7:85:
                    79:09:71:cd:29:df:44:ec:f4:a1:95:6a:57:fc:e1:
                    04:59:34:d2:a9:38:61:ad:6f:9e:3f:8b:b1:01:75:
                    c7:15:fe:14:4b:6e:ab:6a:ee:a8:86:a8:b6:b1:ec:
                    cd:c1:e7:c2:6a:e0:dc:99:21:10:4e:6d:1b:53:67:
                    8a:11:55:00:9d:95:1b:72:33:0a:2a:ea:8e:b8:5b:
                    d3:39:b8:f0:b5:01:3a:eb:bb:a3:c2:a8:48:b2:64:
                    1f:95:50:8c:cd:ee:e8:f1:4e:49:47:16:b5:a1:0c:
                    8c:f3:23:43:7d:af:1c:5e:bc:bb:0e:ae:61:1c:82:
                    2c:61:2a:d9:bc:da:92:3c:20:89:1c:1f:fd:4d:f6:
                    df:2d:5d:c3:77:21:ae:3f:c9:95:b8:31:e8:ab:a0:
                    09:6a:72:05:07:91:c6:4c:5b:04:36:83:ad:f2:ad:
                    14:67:bf:de:19:62:f4:8b:96:34:e3:fe:28:ad:50:
                    35:8a:1b:7a:58:5a:a3:ec:21:c7:53:0b:c6:11:04:
                    e4:cf:47:fb:44:0f:0d:4a:50:de:4f:80:93:81:36:
                    92:9d:3b
                Exponent: 65537 (0x10001)
        X509v3 extensions:
            X509v3 Basic Constraints: 
                CA:FALSE
            Netscape Comment: 
                Easy-RSA Generated Certificate
            X509v3 Subject Key Identifier: 
                47:AB:B0:32:00:E3:D4:27:81:77:7D:4D:FF:B2:FD:C2:25:D4:F7:62
            X509v3 Authority Key Identifier: 
                keyid:12:CD:60:04:D2:A0:80:9E:70:ED:C6:99:B8:7B:2C:C6:52:FD:19:A1
                DirName:/C=US/ST=OH/L=Columbus/O=VikingVPN/OU=MyOrganizationalUnit/CN=VikingVPN CA/name=EasyRSA/emailAddress=me@myhost.mydomain
                serial:CF:35:85:EE:80:BF:2A:3E

            X509v3 Extended Key Usage: 
                TLS Web Client Authentication
            X509v3 Key Usage: 
                Digital Signature
    Signature Algorithm: md5WithRSAEncryption
         c6:57:04:03:f9:1e:5f:13:a2:30:39:5c:57:1b:b6:52:8e:64:
         33:9b:7b:49:6f:3c:a2:a6:be:ef:e6:8a:6a:a2:12:ca:0e:7a:
         87:e3:99:54:b1:5f:0d:c6:41:88:7d:9e:09:94:f6:a7:bc:21:
         f2:6d:c7:12:19:11:e4:d5:e9:c0:c2:fc:c5:3b:54:1f:44:b9:
         18:4b:5e:3a:7e:ed:3b:35:b9:c0:aa:b3:5e:ad:10:95:7f:88:
         72:0d:6f:b5:56:da:2d:25:83:1d:7c:e9:2f:bf:db:65:cd:d8:
         3d:95:f2:ac:13:02:0d:ce:fe:14:e4:ff:47:ba:cc:b4:e0:ca:
         42:43:69:e8:9a:e0:d6:37:fa:e9:0c:5a:37:f4:43:22:cd:32:
         43:b6:34:98:08:fb:83:9f:85:c8:cf:0d:51:dd:64:06:4e:1c:
         6a:57:58:df:26:4f:fe:db:d7:3a:cf:e6:46:6d:5f:ba:56:78:
         5f:b9:c6:55:18:06:56:bf:ea:1f:87:6d:db:d7:c9:48:b3:2e:
         75:fd:d1:1c:da:02:22:e6:71:8b:91:e3:5e:8e:50:bc:0a:79:
         a9:12:53:df:d1:56:54:74:72:a7:2a:ca:eb:2a:30:67:59:f7:
         cc:30:09:fe:b1:e0:fc:10:42:e3:81:50:16:f9:bb:c8:bc:d3:
         8f:6a:7d:f7:0b:c5:b1:a1:2f:b6:3c:4c:98:d4:26:9c:43:c0:
         f6:32:4d:47:5b:c7:35:18:b0:88:78:50:5f:76:dc:31:02:77:
         b5:7d:5c:f4:ac:ee:04:4a:76:86:2c:3e:85:5f:58:52:e7:6f:
         54:1f:dd:8a:63:33:60:15:2f:0b:bc:ab:61:38:8d:b2:35:52:
         8e:59:3a:5d:47:74:c3:0e:f3:92:46:ec:94:22:56:31:59:70:
         75:23:a5:fc:18:da:2c:62:55:c8:66:30:ca:c8:5a:08:73:42:
         19:f6:60:53:fe:3c:26:3b:4f:72:bf:93:57:74:c8:58:9f:9f:
         c1:4c:97:e3:31:96:d9:72:7e:52:5d:23:84:ab:d4:df:37:79:
         42:23:9f:3f:bd:dd:a3:8f:24:41:f4:78:93:64:27:3c:02:30:
         f9:85:6e:74:4d:67:c0:83:52:89:8e:fa:cc:11:7b:11:aa:a9:
         8c:3b:71:cf:d5:5c:73:2c:aa:98:f8:29:fe:53:f3:9f:35:3d:
         21:96:9d:54:3c:91:79:a9:8a:c8:c4:40:23:08:c9:07:e3:9d:
         c7:b6:d2:e6:c9:e9:2d:5f:45:6c:a7:5f:87:69:51:a1:d3:c3:
         8c:83:5e:4e:e5:9b:74:38:35:4f:a5:db:6a:eb:3f:a3:ae:6a:
         8d:00:fe:82:c6:bf:71:5e
-----BEGIN CERTIFICATE-----
MIIGrDCCBJSgAwIBAgICD4YwDQYJKoZIhvcNAQEEBQAwgawxCzAJBgNVBAYTAlVT
MQswCQYDVQQIEwJPSDERMA8GA1UEBxMIQ29sdW1idXMxEjAQBgNVBAoTCVZpa2lu
Z1ZQTjEdMBsGA1UECxMUTXlPcmdhbml6YXRpb25hbFVuaXQxFTATBgNVBAMTDFZp
a2luZ1ZQTiBDQTEQMA4GA1UEKRMHRWFzeVJTQTEhMB8GCSqGSIb3DQEJARYSbWVA
bXlob3N0Lm15ZG9tYWluMB4XDTE1MDEwMjIxMjEyOVoXDTI0MTIzMDIxMjEyOVow
HjEcMBoGA1UEAxMTQ2xpZW50ODAxQ2VydDdhMzFjNDCCAiIwDQYJKoZIhvcNAQEB
BQADggIPADCCAgoCggIBANG0d2jMXtnIqcDLT6OtxIY0VcgSEQLxtNkxqbc1gdXJ
UH+8/y1d6A/7m7qT2u5TjlDqsUxn8UDaf0kJ+MYz6fxaDf07KYlc+gLQmRUaB2gZ
GRRMVtfVFGH6Lgbahn2XzUCsimP65MsIFJSE6R700DGLXkN46jX3EhRXdlcXkUZC
FNj+qVMJQ26gO0xuWdvar/pmHQwaFnIgS7dAVmmDJz5+vrj/ss3ZIqNY7wfblX0/
FwhB7s+0aOIQ/wUIPX8vuyohlqy82x+V5cM8qZca0JbAQOUoZAQyuF0AEqE1TNFz
TaqmjN6luoxF97Q7dw+p9OD9IuksuhnhLA72g4tWky/b279Y3FkRQcRc9Z5zeetP
UlihkaVd/q2amx0HR111zT7qnXw6F1vj0OeFeQlxzSnfROz0oZVqV/zhBFk00qk4
Ya1vnj+LsQF1xxX+FEtuq2ruqIaotrHszcHnwmrg3JkhEE5tG1NnihFVAJ2VG3Iz
Cirqjrhb0zm48LUBOuu7o8KoSLJkH5VQjM3u6PFOSUcWtaEMjPMjQ32vHF68uw6u
YRyCLGEq2bzakjwgiRwf/U323y1dw3chrj/Jlbgx6KugCWpyBQeRxkxbBDaDrfKt
FGe/3hli9IuWNOP+KK1QNYobelhao+whx1MLxhEE5M9H+0QPDUpQ3k+Ak4E2kp07
AgMBAAGjggFjMIIBXzAJBgNVHRMEAjAAMC0GCWCGSAGG+EIBDQQgFh5FYXN5LVJT
QSBHZW5lcmF0ZWQgQ2VydGlmaWNhdGUwHQYDVR0OBBYEFEersDIA49QngXd9Tf+y
/cIl1PdiMIHhBgNVHSMEgdkwgdaAFBLNYATSoICecO3Gmbh7LMZS/RmhoYGypIGv
MIGsMQswCQYDVQQGEwJVUzELMAkGA1UECBMCT0gxETAPBgNVBAcTCENvbHVtYnVz
MRIwEAYDVQQKEwlWaWtpbmdWUE4xHTAbBgNVBAsTFE15T3JnYW5pemF0aW9uYWxV
bml0MRUwEwYDVQQDEwxWaWtpbmdWUE4gQ0ExEDAOBgNVBCkTB0Vhc3lSU0ExITAf
BgkqhkiG9w0BCQEWEm1lQG15aG9zdC5teWRvbWFpboIJAM81he6Avyo+MBMGA1Ud
JQQMMAoGCCsGAQUFBwMCMAsGA1UdDwQEAwIHgDANBgkqhkiG9w0BAQQFAAOCAgEA
xlcEA/keXxOiMDlcVxu2Uo5kM5t7SW88oqa+7+aKaqISyg56h+OZVLFfDcZBiH2e
CZT2p7wh8m3HEhkR5NXpwML8xTtUH0S5GEteOn7tOzW5wKqzXq0QlX+Icg1vtVba
LSWDHXzpL7/bZc3YPZXyrBMCDc7+FOT/R7rMtODKQkNp6Jrg1jf66QxaN/RDIs0y
Q7Y0mAj7g5+FyM8NUd1kBk4caldY3yZP/tvXOs/mRm1fulZ4X7nGVRgGVr/qH4dt
29fJSLMudf3RHNoCIuZxi5HjXo5QvAp5qRJT39FWVHRypyrK6yowZ1n3zDAJ/rHg
/BBC44FQFvm7yLzTj2p99wvFsaEvtjxMmNQmnEPA9jJNR1vHNRiwiHhQX3bcMQJ3
tX1c9KzuBEp2hiw+hV9YUudvVB/dimMzYBUvC7yrYTiNsjVSjlk6XUd0ww7zkkbs
lCJWMVlwdSOl/BjaLGJVyGYwyshaCHNCGfZgU/48JjtPcr+TV3TIWJ+fwUyX4zGW
2XJ+Ul0jhKvU3zd5QiOfP73do48kQfR4k2QnPAIw+YVudE1nwINSiY76zBF7Eaqp
jDtxz9VccyyqmPgp/lPznzU9IZadVDyReamKyMRAIwjJB+Odx7bS5snpLV9FbKdf
h2lRodPDjINeTuWbdDg1T6Xbaus/o65qjQD+gsa/cV4=
-----END CERTIFICATE-----
