Certificate:
    Data:
        Version: 3 (0x2)
        Serial Number: 3979 (0xf8b)
    Signature Algorithm: md5WithRSAEncryption
        Issuer: C=US, ST=OH, L=Columbus, O=VikingVPN, OU=MyOrganizationalUnit, CN=VikingVPN CA/name=EasyRSA/emailAddress=me@myhost.mydomain
        Validity
            Not Before: Jan  2 22:52:46 2015 GMT
            Not After : Dec 30 22:52:46 2024 GMT
        Subject: CN=Client1325Cert30fde6
        Subject Public Key Info:
            Public Key Algorithm: rsaEncryption
                Public-Key: (4096 bit)
                Modulus:
                    00:b5:75:09:c0:88:8e:82:83:78:c6:80:08:75:7a:
                    62:9c:f6:fa:61:3d:0a:18:62:f8:b6:0e:f4:27:84:
                    9c:b1:0b:62:89:2a:76:d8:d4:06:78:48:27:e7:bd:
                    5b:fe:38:27:42:b6:62:72:b6:f2:32:9a:5e:55:cc:
                    55:5f:2b:eb:9e:58:6c:e1:14:03:eb:4b:de:51:60:
                    b2:22:a2:1e:4f:7e:ea:30:5a:21:03:43:d1:b4:d8:
                    98:03:3f:6b:00:eb:c9:fe:e2:e9:b2:04:36:74:d5:
                    92:43:94:9f:29:cc:8b:6d:66:f7:84:42:30:69:9c:
                    7f:44:dc:35:44:9b:f1:6d:28:e9:dc:fb:ce:30:1e:
                    66:8d:ad:35:71:d8:57:b2:9e:8a:54:07:04:e0:1e:
                    92:d6:57:06:3e:b2:a9:21:aa:f0:f3:c0:ce:47:a5:
                    3a:23:49:c4:35:c5:8b:69:ca:0a:14:0c:93:e6:8f:
                    3d:4e:ac:0d:1d:d5:72:39:9e:c1:7c:d9:67:67:7a:
                    b2:e8:f4:c4:7c:6f:c4:d3:42:c4:17:a5:a3:51:78:
                    f8:a0:8f:be:fe:b2:2a:9e:97:1a:98:a4:3f:c4:fd:
                    86:f8:74:f0:04:32:dd:b2:55:7d:3d:05:e0:39:42:
                    28:23:89:2c:48:ef:cc:f3:22:30:c0:fa:89:2a:02:
                    80:0a:10:d6:13:b5:12:e0:43:f3:ad:c8:54:c6:d3:
                    30:40:b5:2f:92:2d:c6:7e:e5:ad:5f:2e:3b:98:32:
                    29:d6:2e:56:07:c8:cc:20:16:48:1f:0a:5e:7b:ae:
                    2d:3a:a2:4c:ff:d3:28:50:07:7a:75:75:dc:00:21:
                    7e:5e:55:fe:e5:a7:00:35:2e:cd:d3:78:18:8c:dd:
                    53:9d:8c:b1:7d:05:d9:ca:c9:d6:80:4b:60:1c:b7:
                    c5:05:cb:8e:24:9a:aa:ca:a8:1e:a5:ed:75:80:bd:
                    bd:6f:24:89:69:5f:13:2a:bb:c5:27:c5:b1:57:ba:
                    9b:a0:83:71:55:95:1c:46:d7:be:6b:0d:57:8c:a0:
                    68:de:e3:de:2f:9a:20:b3:f4:b4:0e:4a:39:d1:ac:
                    85:96:c5:42:2d:79:ff:92:d9:6e:09:64:ba:15:d5:
                    41:8e:e9:67:13:37:42:b0:08:90:08:2b:54:8f:73:
                    4f:a2:14:51:4c:06:34:58:2e:9f:e5:2b:9b:a9:d2:
                    a1:81:41:45:ae:45:e3:0e:33:e3:0c:ef:b6:96:60:
                    56:e5:76:9e:f1:56:0d:db:d7:30:f3:eb:e7:82:33:
                    4b:46:65:0d:93:33:50:a5:72:b0:73:e2:e7:08:f7:
                    c8:c2:b2:df:e3:d3:d6:b9:4b:91:57:79:9a:f3:2b:
                    7e:66:87
                Exponent: 65537 (0x10001)
        X509v3 extensions:
            X509v3 Basic Constraints: 
                CA:FALSE
            Netscape Comment: 
                Easy-RSA Generated Certificate
            X509v3 Subject Key Identifier: 
                89:BC:25:4E:0A:77:8F:00:F9:C7:C5:EA:3B:3C:41:20:FD:EC:D0:74
            X509v3 Authority Key Identifier: 
                keyid:12:CD:60:04:D2:A0:80:9E:70:ED:C6:99:B8:7B:2C:C6:52:FD:19:A1
                DirName:/C=US/ST=OH/L=Columbus/O=VikingVPN/OU=MyOrganizationalUnit/CN=VikingVPN CA/name=EasyRSA/emailAddress=me@myhost.mydomain
                serial:CF:35:85:EE:80:BF:2A:3E

            X509v3 Extended Key Usage: 
                TLS Web Client Authentication
            X509v3 Key Usage: 
                Digital Signature
    Signature Algorithm: md5WithRSAEncryption
         e4:7b:aa:6e:00:f4:c6:9e:65:6f:3a:82:8d:f2:d7:7f:58:30:
         d2:39:f7:77:16:50:db:b8:a5:ce:b8:7e:ce:83:6a:f1:a1:d6:
         3f:b8:a3:ca:e3:c6:81:ca:52:91:43:52:4b:ee:71:19:ab:f3:
         eb:b1:42:ae:6e:b0:c9:bd:9c:ef:aa:46:3f:55:b5:74:a5:ca:
         44:dc:41:23:ad:b8:ce:dd:d6:d3:22:a1:d8:62:58:97:08:f9:
         e5:ed:ed:2c:33:0c:83:e4:af:e0:28:64:a5:6d:8c:24:43:e6:
         95:f1:d6:b5:16:c2:03:45:3b:c9:87:57:b8:b2:a1:cf:7d:86:
         a4:e9:73:ae:2d:92:d9:19:09:24:03:f6:8c:55:ee:ea:22:fc:
         3c:c1:9d:8d:0b:5c:7c:48:3e:f2:04:29:03:05:f1:4c:73:e3:
         32:e0:86:6e:7c:c8:4f:36:da:c3:f0:ae:bf:21:04:6c:93:b5:
         a0:6f:f0:06:7f:7c:77:2e:77:08:a7:99:35:47:60:96:46:22:
         eb:e9:80:92:e1:38:fb:97:03:54:8b:47:de:5c:de:b0:6f:e8:
         c7:a5:2f:7b:ee:74:49:e8:ca:49:de:12:42:d9:c6:5e:90:d5:
         87:5c:3c:c5:2e:9e:c8:27:13:f0:bc:ad:2a:c9:2b:6f:03:cd:
         7d:79:a5:48:50:70:20:dc:e6:bf:1e:75:83:bc:91:e2:b9:db:
         16:f7:96:17:f3:36:a4:8b:37:6a:a3:dc:44:cc:e5:51:a8:19:
         e8:cd:96:60:c6:71:6e:7e:fb:43:3a:71:9a:c6:f5:c3:1c:20:
         4a:ae:fd:fe:42:af:45:61:99:9a:cc:9f:51:c7:58:31:ac:ec:
         88:21:c2:69:42:d2:93:d1:52:a8:7a:f3:5c:f0:41:62:94:59:
         3c:68:2e:1a:65:12:ef:dc:4a:85:a7:45:75:19:bd:be:67:0f:
         7c:bd:c7:6e:67:09:f2:81:a9:3a:ae:05:cd:38:11:e7:fe:84:
         bb:df:19:df:21:c4:ec:c2:3e:8b:ba:5b:b7:a1:16:78:f0:81:
         d7:40:53:7e:14:e7:e9:cb:1e:6b:66:6e:31:72:49:60:7e:91:
         f7:1c:8e:18:11:35:eb:ec:0f:d2:de:53:69:cb:a5:6e:7b:b7:
         36:f1:33:34:46:aa:fe:51:99:2f:9e:c3:fc:b2:e1:2b:17:4a:
         3c:8b:8a:4e:38:63:a6:23:e1:93:19:10:5c:a0:03:32:69:f0:
         64:8b:98:01:70:81:9a:33:a0:71:e5:a9:ba:33:8b:52:07:30:
         ec:41:08:92:e4:a1:cd:8a:e3:5c:7a:4e:00:e2:aa:61:f5:9b:
         c8:0d:e7:d6:8e:3e:f1:1c
-----BEGIN CERTIFICATE-----
MIIGrTCCBJWgAwIBAgICD4swDQYJKoZIhvcNAQEEBQAwgawxCzAJBgNVBAYTAlVT
MQswCQYDVQQIEwJPSDERMA8GA1UEBxMIQ29sdW1idXMxEjAQBgNVBAoTCVZpa2lu
Z1ZQTjEdMBsGA1UECxMUTXlPcmdhbml6YXRpb25hbFVuaXQxFTATBgNVBAMTDFZp
a2luZ1ZQTiBDQTEQMA4GA1UEKRMHRWFzeVJTQTEhMB8GCSqGSIb3DQEJARYSbWVA
bXlob3N0Lm15ZG9tYWluMB4XDTE1MDEwMjIyNTI0NloXDTI0MTIzMDIyNTI0Nlow
HzEdMBsGA1UEAxMUQ2xpZW50MTMyNUNlcnQzMGZkZTYwggIiMA0GCSqGSIb3DQEB
AQUAA4ICDwAwggIKAoICAQC1dQnAiI6Cg3jGgAh1emKc9vphPQoYYvi2DvQnhJyx
C2KJKnbY1AZ4SCfnvVv+OCdCtmJytvIyml5VzFVfK+ueWGzhFAPrS95RYLIioh5P
fuowWiEDQ9G02JgDP2sA68n+4umyBDZ01ZJDlJ8pzIttZveEQjBpnH9E3DVEm/Ft
KOnc+84wHmaNrTVx2FeynopUBwTgHpLWVwY+sqkhqvDzwM5HpTojScQ1xYtpygoU
DJPmjz1OrA0d1XI5nsF82WdnerLo9MR8b8TTQsQXpaNRePigj77+siqelxqYpD/E
/Yb4dPAEMt2yVX09BeA5QigjiSxI78zzIjDA+okqAoAKENYTtRLgQ/OtyFTG0zBA
tS+SLcZ+5a1fLjuYMinWLlYHyMwgFkgfCl57ri06okz/0yhQB3p1ddwAIX5eVf7l
pwA1Ls3TeBiM3VOdjLF9BdnKydaAS2Act8UFy44kmqrKqB6l7XWAvb1vJIlpXxMq
u8UnxbFXupugg3FVlRxG175rDVeMoGje494vmiCz9LQOSjnRrIWWxUItef+S2W4J
ZLoV1UGO6WcTN0KwCJAIK1SPc0+iFFFMBjRYLp/lK5up0qGBQUWuReMOM+MM77aW
YFbldp7xVg3b1zDz6+eCM0tGZQ2TM1ClcrBz4ucI98jCst/j09a5S5FXeZrzK35m
hwIDAQABo4IBYzCCAV8wCQYDVR0TBAIwADAtBglghkgBhvhCAQ0EIBYeRWFzeS1S
U0EgR2VuZXJhdGVkIENlcnRpZmljYXRlMB0GA1UdDgQWBBSJvCVOCnePAPnHxeo7
PEEg/ezQdDCB4QYDVR0jBIHZMIHWgBQSzWAE0qCAnnDtxpm4eyzGUv0ZoaGBsqSB
rzCBrDELMAkGA1UEBhMCVVMxCzAJBgNVBAgTAk9IMREwDwYDVQQHEwhDb2x1bWJ1
czESMBAGA1UEChMJVmlraW5nVlBOMR0wGwYDVQQLExRNeU9yZ2FuaXphdGlvbmFs
VW5pdDEVMBMGA1UEAxMMVmlraW5nVlBOIENBMRAwDgYDVQQpEwdFYXN5UlNBMSEw
HwYJKoZIhvcNAQkBFhJtZUBteWhvc3QubXlkb21haW6CCQDPNYXugL8qPjATBgNV
HSUEDDAKBggrBgEFBQcDAjALBgNVHQ8EBAMCB4AwDQYJKoZIhvcNAQEEBQADggIB
AOR7qm4A9MaeZW86go3y139YMNI593cWUNu4pc64fs6DavGh1j+4o8rjxoHKUpFD
UkvucRmr8+uxQq5usMm9nO+qRj9VtXSlykTcQSOtuM7d1tMiodhiWJcI+eXt7Swz
DIPkr+AoZKVtjCRD5pXx1rUWwgNFO8mHV7iyoc99hqTpc64tktkZCSQD9oxV7uoi
/DzBnY0LXHxIPvIEKQMF8Uxz4zLghm58yE822sPwrr8hBGyTtaBv8AZ/fHcudwin
mTVHYJZGIuvpgJLhOPuXA1SLR95c3rBv6MelL3vudEnoykneEkLZxl6Q1YdcPMUu
nsgnE/C8rSrJK28DzX15pUhQcCDc5r8edYO8keK52xb3lhfzNqSLN2qj3ETM5VGo
GejNlmDGcW5++0M6cZrG9cMcIEqu/f5Cr0VhmZrMn1HHWDGs7IghwmlC0pPRUqh6
81zwQWKUWTxoLhplEu/cSoWnRXUZvb5nD3y9x25nCfKBqTquBc04Eef+hLvfGd8h
xOzCPou6W7ehFnjwgddAU34U5+nLHmtmbjFySWB+kfccjhgRNevsD9LeU2nLpW57
tzbxMzRGqv5RmS+ew/yy4SsXSjyLik44Y6Yj4ZMZEFygAzJp8GSLmAFwgZozoHHl
qbozi1IHMOxBCJLkoc2K41x6TgDiqmH1m8gN59aOPvEc
-----END CERTIFICATE-----
