Certificate:
    Data:
        Version: 3 (0x2)
        Serial Number: 3989 (0xf95)
    Signature Algorithm: md5WithRSAEncryption
        Issuer: C=US, ST=OH, L=Columbus, O=VikingVPN, OU=MyOrganizationalUnit, CN=VikingVPN CA/name=EasyRSA/emailAddress=me@myhost.mydomain
        Validity
            Not Before: Jan  3 13:25:45 2015 GMT
            Not After : Dec 31 13:25:45 2024 GMT
        Subject: CN=Client801Cert5baaa8
        Subject Public Key Info:
            Public Key Algorithm: rsaEncryption
                Public-Key: (4096 bit)
                Modulus:
                    00:b8:aa:fc:32:66:2a:2f:83:e4:5b:b0:d0:be:9a:
                    d9:fb:7c:8f:b5:a4:5a:08:4a:72:5e:bc:9c:65:11:
                    d7:e3:9b:ee:0e:62:a1:51:e5:33:0c:6c:ce:14:c6:
                    a5:67:53:12:a8:fa:be:69:0a:ec:d3:3c:fb:bd:96:
                    a5:f3:2c:32:ee:de:0b:59:ec:86:f8:40:40:04:d4:
                    9f:89:1e:23:9b:7c:bf:26:a7:54:11:cc:29:76:1e:
                    22:53:b3:5c:c1:da:c4:2f:d1:2c:f7:5e:96:69:16:
                    f9:99:ad:d4:c4:7d:7b:b0:ff:22:b0:46:5b:61:e5:
                    9e:4c:4b:22:84:1b:76:39:71:b1:18:eb:58:bc:b2:
                    a2:d4:68:4e:f7:33:c1:43:be:22:79:75:4f:04:a4:
                    c1:50:ba:fb:fb:8b:90:05:7e:23:c4:18:a6:2c:92:
                    fc:35:5f:17:0c:b0:96:31:19:3e:f4:c0:31:1b:2a:
                    3d:6a:7c:fc:8b:ba:fc:99:e7:3a:ac:e6:61:fb:b8:
                    24:cf:3a:7b:63:0a:39:ad:5a:56:73:72:17:08:40:
                    f8:80:af:21:81:45:d7:7c:f3:75:3a:b2:a1:1e:d1:
                    2f:6d:6d:32:f2:3b:dd:c9:4b:0c:6b:59:d9:97:17:
                    3a:8d:19:80:9a:a4:d4:0f:ac:b1:fa:93:1e:65:ed:
                    56:74:51:80:eb:7c:c1:5a:77:9b:c0:f9:eb:d3:36:
                    03:ee:5a:fa:e6:51:a3:b7:46:58:81:f5:7c:6d:ae:
                    a7:02:26:e5:b3:d2:e9:ae:ee:85:8b:16:f6:ae:3a:
                    c0:17:dc:32:4c:58:b3:ff:53:1c:b9:fd:5b:f2:59:
                    c9:8b:01:72:02:65:5b:27:65:c7:a1:a9:0f:11:b4:
                    08:16:d8:ce:5b:5f:2f:d5:18:da:07:e4:17:fc:76:
                    ea:9c:a6:85:14:a0:84:e7:cb:45:ad:fb:01:62:2f:
                    06:85:d4:ad:cb:da:a9:d2:ab:5b:8e:e3:9e:33:34:
                    96:de:c0:6f:c9:5e:cf:9b:88:fd:53:cf:c5:a0:da:
                    32:f8:4a:43:36:68:c8:83:36:f1:0d:6f:b8:8d:b1:
                    a2:c4:91:b0:53:88:c2:64:c1:f0:e8:5f:96:df:e5:
                    44:7a:c6:fb:33:e5:af:05:12:c7:13:3e:f2:db:84:
                    1f:b4:77:98:90:25:22:52:93:7a:ee:63:a4:78:db:
                    56:b0:3e:3d:66:a9:a3:ba:4b:1e:66:b8:6d:19:0b:
                    b4:9e:c5:fc:dd:f4:b4:b8:40:8c:0e:8c:a4:c7:a4:
                    ee:6e:a8:6f:78:a4:d8:a7:ca:9a:f2:c8:83:c5:85:
                    f4:a8:c7:99:5c:ac:cf:01:50:27:1e:9f:e0:02:45:
                    88:f7:93
                Exponent: 65537 (0x10001)
        X509v3 extensions:
            X509v3 Basic Constraints: 
                CA:FALSE
            Netscape Comment: 
                Easy-RSA Generated Certificate
            X509v3 Subject Key Identifier: 
                4A:0D:85:85:C3:D6:F2:20:AF:42:EB:90:A1:73:6D:5B:48:D1:05:F8
            X509v3 Authority Key Identifier: 
                keyid:12:CD:60:04:D2:A0:80:9E:70:ED:C6:99:B8:7B:2C:C6:52:FD:19:A1
                DirName:/C=US/ST=OH/L=Columbus/O=VikingVPN/OU=MyOrganizationalUnit/CN=VikingVPN CA/name=EasyRSA/emailAddress=me@myhost.mydomain
                serial:CF:35:85:EE:80:BF:2A:3E

            X509v3 Extended Key Usage: 
                TLS Web Client Authentication
            X509v3 Key Usage: 
                Digital Signature
    Signature Algorithm: md5WithRSAEncryption
         42:5a:3d:f5:9b:46:b9:a5:5d:30:e0:20:09:ba:77:63:e4:7d:
         39:2d:16:61:29:bb:16:9d:24:9e:4e:34:eb:e9:f1:ae:ca:d1:
         30:25:b3:0e:2b:82:d9:9d:63:29:99:08:eb:1f:b3:f0:a9:33:
         95:4e:05:54:06:39:07:47:b9:da:42:e8:0d:bb:2a:3f:7f:59:
         a8:e6:ab:bc:3c:0e:da:44:8f:11:3b:64:30:71:55:9f:58:0e:
         54:70:b6:44:ad:b1:79:82:ef:f2:e0:e4:42:ac:97:39:59:2e:
         78:bb:31:ee:57:e4:2b:57:bf:ea:8c:5f:64:3a:4c:51:21:5f:
         16:7d:a0:33:cd:d0:d5:41:54:84:af:93:39:ea:14:84:40:0c:
         82:6e:d3:46:f1:51:2e:f4:f9:4c:d1:b0:ae:05:b3:15:86:04:
         32:78:82:a9:8a:2c:37:a1:4b:11:b1:e0:97:e3:da:ba:33:2c:
         a7:4c:04:32:d3:a8:54:d5:ae:f6:18:0e:fe:d6:12:e4:27:26:
         ff:ca:3c:81:c2:d6:c2:18:25:b4:17:b9:84:f4:32:20:9a:0f:
         64:75:4f:51:a9:1b:94:ec:60:53:bc:90:6b:11:d7:25:16:3c:
         e6:8a:32:0c:bf:7e:1a:78:fb:e3:37:04:09:d0:72:39:fe:38:
         f7:6a:fa:db:96:cd:39:ae:b4:14:eb:64:9b:87:36:12:71:67:
         87:3c:32:54:ed:e6:ad:83:cc:53:24:b4:06:ba:bd:71:42:91:
         68:00:c7:c9:55:b5:5d:89:2b:29:96:80:d5:7c:e6:38:f0:e3:
         f7:fc:f9:1a:29:77:18:4a:e6:8e:54:55:1e:01:83:f2:49:f7:
         11:3e:a1:ea:85:78:d2:b4:d1:b6:d3:b4:d5:46:a4:70:bb:38:
         b6:5d:03:01:79:70:95:0a:f4:14:f8:d3:38:a4:98:52:61:54:
         1c:5a:c2:cb:a3:ba:f0:4a:e5:ca:c3:9b:7a:a2:8f:4b:d3:ae:
         e2:70:25:76:4b:c4:bf:f5:89:94:4a:89:61:0e:b4:99:c5:84:
         98:52:89:a6:c2:9d:ff:43:76:fd:78:8e:d5:64:43:25:87:6c:
         d2:61:4d:d0:99:ac:f7:99:7a:27:22:b7:a7:65:c4:9f:28:31:
         84:98:7c:ac:dd:fd:f7:c0:cb:48:04:ed:de:41:95:95:b4:a4:
         1a:4d:8c:3e:a3:da:c6:fa:3e:f9:59:68:0e:52:8f:c5:19:87:
         1e:e1:bd:76:7a:3e:cd:89:95:57:3a:4f:8c:30:c5:37:55:2c:
         0e:bc:64:56:38:be:1b:49:b4:da:74:cb:2d:87:0f:43:e0:a8:
         5b:3b:5d:a0:12:f1:04:96
-----BEGIN CERTIFICATE-----
MIIGrDCCBJSgAwIBAgICD5UwDQYJKoZIhvcNAQEEBQAwgawxCzAJBgNVBAYTAlVT
MQswCQYDVQQIEwJPSDERMA8GA1UEBxMIQ29sdW1idXMxEjAQBgNVBAoTCVZpa2lu
Z1ZQTjEdMBsGA1UECxMUTXlPcmdhbml6YXRpb25hbFVuaXQxFTATBgNVBAMTDFZp
a2luZ1ZQTiBDQTEQMA4GA1UEKRMHRWFzeVJTQTEhMB8GCSqGSIb3DQEJARYSbWVA
bXlob3N0Lm15ZG9tYWluMB4XDTE1MDEwMzEzMjU0NVoXDTI0MTIzMTEzMjU0NVow
HjEcMBoGA1UEAxMTQ2xpZW50ODAxQ2VydDViYWFhODCCAiIwDQYJKoZIhvcNAQEB
BQADggIPADCCAgoCggIBALiq/DJmKi+D5Fuw0L6a2ft8j7WkWghKcl68nGUR1+Ob
7g5ioVHlMwxszhTGpWdTEqj6vmkK7NM8+72WpfMsMu7eC1nshvhAQATUn4keI5t8
vyanVBHMKXYeIlOzXMHaxC/RLPdelmkW+Zmt1MR9e7D/IrBGW2HlnkxLIoQbdjlx
sRjrWLyyotRoTvczwUO+Inl1TwSkwVC6+/uLkAV+I8QYpiyS/DVfFwywljEZPvTA
MRsqPWp8/Iu6/JnnOqzmYfu4JM86e2MKOa1aVnNyFwhA+ICvIYFF13zzdTqyoR7R
L21tMvI73clLDGtZ2ZcXOo0ZgJqk1A+ssfqTHmXtVnRRgOt8wVp3m8D569M2A+5a
+uZRo7dGWIH1fG2upwIm5bPS6a7uhYsW9q46wBfcMkxYs/9THLn9W/JZyYsBcgJl
Wydlx6GpDxG0CBbYzltfL9UY2gfkF/x26pymhRSghOfLRa37AWIvBoXUrcvaqdKr
W47jnjM0lt7Ab8lez5uI/VPPxaDaMvhKQzZoyIM28Q1vuI2xosSRsFOIwmTB8Ohf
lt/lRHrG+zPlrwUSxxM+8tuEH7R3mJAlIlKTeu5jpHjbVrA+PWapo7pLHma4bRkL
tJ7F/N30tLhAjA6MpMek7m6ob3ik2KfKmvLIg8WF9KjHmVyszwFQJx6f4AJFiPeT
AgMBAAGjggFjMIIBXzAJBgNVHRMEAjAAMC0GCWCGSAGG+EIBDQQgFh5FYXN5LVJT
QSBHZW5lcmF0ZWQgQ2VydGlmaWNhdGUwHQYDVR0OBBYEFEoNhYXD1vIgr0LrkKFz
bVtI0QX4MIHhBgNVHSMEgdkwgdaAFBLNYATSoICecO3Gmbh7LMZS/RmhoYGypIGv
MIGsMQswCQYDVQQGEwJVUzELMAkGA1UECBMCT0gxETAPBgNVBAcTCENvbHVtYnVz
MRIwEAYDVQQKEwlWaWtpbmdWUE4xHTAbBgNVBAsTFE15T3JnYW5pemF0aW9uYWxV
bml0MRUwEwYDVQQDEwxWaWtpbmdWUE4gQ0ExEDAOBgNVBCkTB0Vhc3lSU0ExITAf
BgkqhkiG9w0BCQEWEm1lQG15aG9zdC5teWRvbWFpboIJAM81he6Avyo+MBMGA1Ud
JQQMMAoGCCsGAQUFBwMCMAsGA1UdDwQEAwIHgDANBgkqhkiG9w0BAQQFAAOCAgEA
Qlo99ZtGuaVdMOAgCbp3Y+R9OS0WYSm7Fp0knk406+nxrsrRMCWzDiuC2Z1jKZkI
6x+z8KkzlU4FVAY5B0e52kLoDbsqP39ZqOarvDwO2kSPETtkMHFVn1gOVHC2RK2x
eYLv8uDkQqyXOVkueLsx7lfkK1e/6oxfZDpMUSFfFn2gM83Q1UFUhK+TOeoUhEAM
gm7TRvFRLvT5TNGwrgWzFYYEMniCqYosN6FLEbHgl+PaujMsp0wEMtOoVNWu9hgO
/tYS5Ccm/8o8gcLWwhgltBe5hPQyIJoPZHVPUakblOxgU7yQaxHXJRY85ooyDL9+
Gnj74zcECdByOf4492r625bNOa60FOtkm4c2EnFnhzwyVO3mrYPMUyS0Brq9cUKR
aADHyVW1XYkrKZaA1XzmOPDj9/z5Gil3GErmjlRVHgGD8kn3ET6h6oV40rTRttO0
1UakcLs4tl0DAXlwlQr0FPjTOKSYUmFUHFrCy6O68ErlysObeqKPS9Ou4nAldkvE
v/WJlEqJYQ60mcWEmFKJpsKd/0N2/XiO1WRDJYds0mFN0Jms95l6JyK3p2XEnygx
hJh8rN3998DLSATt3kGVlbSkGk2MPqPaxvo++VloDlKPxRmHHuG9dno+zYmVVzpP
jDDFN1UsDrxkVji+G0m02nTLLYcPQ+CoWztdoBLxBJY=
-----END CERTIFICATE-----
