Certificate:
    Data:
        Version: 3 (0x2)
        Serial Number: 4005 (0xfa5)
    Signature Algorithm: md5WithRSAEncryption
        Issuer: C=US, ST=OH, L=Columbus, O=VikingVPN, OU=MyOrganizationalUnit, CN=VikingVPN CA/name=EasyRSA/emailAddress=me@myhost.mydomain
        Validity
            Not Before: Jan  3 22:52:05 2015 GMT
            Not After : Dec 31 22:52:05 2024 GMT
        Subject: CN=Client1278Cert3ea77b
        Subject Public Key Info:
            Public Key Algorithm: rsaEncryption
                Public-Key: (4096 bit)
                Modulus:
                    00:d9:bc:81:4b:f8:bb:12:25:a1:72:e5:e0:16:53:
                    81:6d:1e:21:17:30:82:de:2d:5f:3c:24:4f:6d:e1:
                    7a:78:2c:2f:3e:de:41:15:bb:8c:eb:9f:82:bf:7d:
                    65:69:47:71:ad:65:3b:57:9b:b3:69:40:1a:3b:67:
                    cd:8c:2a:ba:67:a7:3f:35:c2:2e:f7:c7:6a:83:7a:
                    9a:a7:83:62:d6:48:22:7d:73:ef:c5:95:5c:d9:bf:
                    fd:ec:30:f4:ef:f5:38:f6:5c:7e:f8:73:63:1d:c9:
                    e7:20:31:7f:a7:bd:c1:35:f0:2f:2d:33:53:77:6e:
                    d2:d0:a1:c0:85:13:c4:ae:bb:88:2b:fc:a2:5a:25:
                    08:26:72:c0:be:1a:19:b0:9e:95:10:a1:47:68:a2:
                    ee:4c:0a:5d:86:6e:4f:80:30:6f:a8:34:56:c2:49:
                    1a:59:7f:c2:c1:0c:59:41:40:0d:40:1d:be:f2:d5:
                    0e:5f:5e:6a:ed:88:a0:07:18:b5:20:16:82:58:f3:
                    66:98:3f:73:01:13:d7:04:22:00:52:c4:19:72:23:
                    39:76:31:0a:ae:0a:47:d8:65:ed:8f:12:a9:31:af:
                    e0:44:69:59:82:0f:c4:53:1d:d0:a2:ec:9f:f4:0d:
                    dc:8d:34:11:5f:f7:25:d2:8a:72:7d:71:ba:fc:cf:
                    9e:48:03:8a:5f:b7:85:d8:f9:98:9f:2c:82:9c:7e:
                    ae:c3:9e:9c:da:65:90:40:34:72:2b:19:eb:ee:40:
                    d7:38:f4:ee:ce:98:b1:52:04:d2:9f:34:c9:59:63:
                    04:48:17:95:5e:ea:85:fe:f9:2c:e8:4b:96:a4:06:
                    00:cb:42:25:cd:1b:4b:49:c1:b9:25:bf:34:4e:6a:
                    3a:52:96:34:c1:5e:7d:72:75:9c:f7:7b:0e:46:69:
                    60:f5:22:24:21:98:ea:95:e8:a6:71:da:c7:82:1e:
                    bd:bf:b1:31:f4:68:e2:d7:93:1b:b0:22:67:76:77:
                    97:0d:e5:89:b4:d0:a9:ba:07:6d:7b:cf:97:df:37:
                    4c:07:59:ac:2d:93:e0:d7:12:89:2f:3b:ca:8b:f0:
                    f1:46:40:e0:05:72:ad:d7:19:cd:88:da:15:fc:9b:
                    cf:30:fd:ad:fa:60:6c:2c:83:cf:4e:c8:ba:ca:ad:
                    d0:f0:38:62:97:5e:a7:4f:a9:c4:15:1b:71:5d:01:
                    0f:94:69:d8:b9:9b:96:3a:dd:ae:3b:e4:2d:3b:7d:
                    2f:3e:b0:53:a0:fd:6a:d8:1a:52:50:36:d1:46:eb:
                    a8:ce:1a:b9:21:0d:c2:e0:58:84:49:f9:31:a3:f9:
                    9c:22:3c:2c:4e:48:34:66:6a:55:60:3c:eb:99:2a:
                    ea:a7:4b
                Exponent: 65537 (0x10001)
        X509v3 extensions:
            X509v3 Basic Constraints: 
                CA:FALSE
            Netscape Comment: 
                Easy-RSA Generated Certificate
            X509v3 Subject Key Identifier: 
                59:E7:F1:FD:F0:68:2F:5F:AB:C2:95:07:FC:AE:FB:6C:FD:57:2E:7E
            X509v3 Authority Key Identifier: 
                keyid:12:CD:60:04:D2:A0:80:9E:70:ED:C6:99:B8:7B:2C:C6:52:FD:19:A1
                DirName:/C=US/ST=OH/L=Columbus/O=VikingVPN/OU=MyOrganizationalUnit/CN=VikingVPN CA/name=EasyRSA/emailAddress=me@myhost.mydomain
                serial:CF:35:85:EE:80:BF:2A:3E

            X509v3 Extended Key Usage: 
                TLS Web Client Authentication
            X509v3 Key Usage: 
                Digital Signature
    Signature Algorithm: md5WithRSAEncryption
         3e:7c:dd:6f:cb:21:f8:31:40:3b:cf:f5:e0:a9:4c:4c:72:29:
         b6:97:8c:06:45:6c:ab:cb:27:ab:c5:87:2f:51:d6:95:ba:ea:
         d7:b6:dc:d6:b2:3e:02:3a:5a:05:8a:17:6e:49:5d:32:ef:be:
         7a:70:0f:df:ac:10:e3:8c:3f:2c:07:7c:f3:75:d3:71:52:c8:
         5b:97:a0:ab:44:9f:0c:18:e9:88:ba:b6:e3:41:23:48:8b:45:
         97:49:c1:dc:e8:90:f1:9f:5f:af:e5:d8:3c:98:a2:bb:bd:d9:
         ed:8f:28:9f:20:a4:c2:1b:d1:30:33:a8:aa:82:2e:19:1e:38:
         58:cb:b3:c5:32:6a:c6:96:08:0d:f9:74:3a:d4:fd:52:a2:87:
         b8:a4:95:d5:3c:02:e2:7c:c4:14:6b:b1:a9:42:b5:09:17:9e:
         11:7b:cf:ce:18:39:e3:2b:7d:e2:e2:c9:c8:bd:5f:9b:9e:f2:
         9e:e4:8c:41:c1:3d:db:f4:ca:c4:75:df:b1:ea:16:91:32:54:
         85:35:1b:f5:4d:03:52:40:1e:d5:98:b6:43:3a:17:f4:3d:6a:
         30:7a:72:67:98:a4:c0:11:8e:bf:08:75:67:1f:23:86:8b:fa:
         51:e6:a8:e2:5b:1e:25:70:5a:7a:e9:5a:95:40:f4:91:15:60:
         e4:99:27:83:a8:98:f5:1e:75:ac:d3:3c:0e:78:b2:20:fd:91:
         44:6d:98:ef:70:ef:87:b8:ef:3e:41:3a:c0:62:1b:20:a4:ba:
         35:a1:da:68:a8:ca:db:a2:4b:75:e5:1d:03:a9:cc:37:22:08:
         90:e6:cd:80:89:34:06:9f:4e:6b:dd:e1:c8:80:e1:e6:92:1c:
         69:a2:f9:a0:15:9b:41:d8:9e:7a:79:c8:91:23:6f:53:da:96:
         22:17:ef:07:da:a5:f8:20:54:f6:a7:6d:fd:10:aa:8c:75:e3:
         21:d1:ae:06:c8:23:f8:a0:00:bc:4e:6e:f6:36:aa:d4:c3:2a:
         e9:d2:5a:c0:b8:37:f8:ef:ce:f0:ad:c2:b2:23:01:dc:cd:79:
         5a:15:a9:bd:c6:14:57:97:8c:8e:b3:51:21:d4:96:89:e4:d5:
         59:4e:47:d7:aa:3b:a9:d1:c6:4f:85:f8:68:5b:5b:bb:8f:48:
         af:a8:31:b4:77:14:f2:6e:88:63:a5:70:ed:b5:ff:f1:9f:3e:
         0f:8c:93:5b:78:96:54:4a:b6:04:02:6f:61:0b:ca:73:ac:b1:
         3c:ec:7e:f0:f1:32:3b:b0:f5:5b:5a:dc:38:35:01:7b:52:3d:
         8b:ca:7d:92:b2:50:34:f0:38:8f:35:29:34:e3:c7:73:45:b4:
         31:6a:d6:4f:d3:74:a8:d2
-----BEGIN CERTIFICATE-----
MIIGrTCCBJWgAwIBAgICD6UwDQYJKoZIhvcNAQEEBQAwgawxCzAJBgNVBAYTAlVT
MQswCQYDVQQIEwJPSDERMA8GA1UEBxMIQ29sdW1idXMxEjAQBgNVBAoTCVZpa2lu
Z1ZQTjEdMBsGA1UECxMUTXlPcmdhbml6YXRpb25hbFVuaXQxFTATBgNVBAMTDFZp
a2luZ1ZQTiBDQTEQMA4GA1UEKRMHRWFzeVJTQTEhMB8GCSqGSIb3DQEJARYSbWVA
bXlob3N0Lm15ZG9tYWluMB4XDTE1MDEwMzIyNTIwNVoXDTI0MTIzMTIyNTIwNVow
HzEdMBsGA1UEAxMUQ2xpZW50MTI3OENlcnQzZWE3N2IwggIiMA0GCSqGSIb3DQEB
AQUAA4ICDwAwggIKAoICAQDZvIFL+LsSJaFy5eAWU4FtHiEXMILeLV88JE9t4Xp4
LC8+3kEVu4zrn4K/fWVpR3GtZTtXm7NpQBo7Z82MKrpnpz81wi73x2qDepqng2LW
SCJ9c+/FlVzZv/3sMPTv9Tj2XH74c2MdyecgMX+nvcE18C8tM1N3btLQocCFE8Su
u4gr/KJaJQgmcsC+GhmwnpUQoUdoou5MCl2Gbk+AMG+oNFbCSRpZf8LBDFlBQA1A
Hb7y1Q5fXmrtiKAHGLUgFoJY82aYP3MBE9cEIgBSxBlyIzl2MQquCkfYZe2PEqkx
r+BEaVmCD8RTHdCi7J/0DdyNNBFf9yXSinJ9cbr8z55IA4pft4XY+ZifLIKcfq7D
npzaZZBANHIrGevuQNc49O7OmLFSBNKfNMlZYwRIF5Ve6oX++SzoS5akBgDLQiXN
G0tJwbklvzROajpSljTBXn1ydZz3ew5GaWD1IiQhmOqV6KZx2seCHr2/sTH0aOLX
kxuwImd2d5cN5Ym00Km6B217z5ffN0wHWawtk+DXEokvO8qL8PFGQOAFcq3XGc2I
2hX8m88w/a36YGwsg89OyLrKrdDwOGKXXqdPqcQVG3FdAQ+Uadi5m5Y63a475C07
fS8+sFOg/WrYGlJQNtFG66jOGrkhDcLgWIRJ+TGj+ZwiPCxOSDRmalVgPOuZKuqn
SwIDAQABo4IBYzCCAV8wCQYDVR0TBAIwADAtBglghkgBhvhCAQ0EIBYeRWFzeS1S
U0EgR2VuZXJhdGVkIENlcnRpZmljYXRlMB0GA1UdDgQWBBRZ5/H98GgvX6vClQf8
rvts/VcufjCB4QYDVR0jBIHZMIHWgBQSzWAE0qCAnnDtxpm4eyzGUv0ZoaGBsqSB
rzCBrDELMAkGA1UEBhMCVVMxCzAJBgNVBAgTAk9IMREwDwYDVQQHEwhDb2x1bWJ1
czESMBAGA1UEChMJVmlraW5nVlBOMR0wGwYDVQQLExRNeU9yZ2FuaXphdGlvbmFs
VW5pdDEVMBMGA1UEAxMMVmlraW5nVlBOIENBMRAwDgYDVQQpEwdFYXN5UlNBMSEw
HwYJKoZIhvcNAQkBFhJtZUBteWhvc3QubXlkb21haW6CCQDPNYXugL8qPjATBgNV
HSUEDDAKBggrBgEFBQcDAjALBgNVHQ8EBAMCB4AwDQYJKoZIhvcNAQEEBQADggIB
AD583W/LIfgxQDvP9eCpTExyKbaXjAZFbKvLJ6vFhy9R1pW66te23NayPgI6WgWK
F25JXTLvvnpwD9+sEOOMPywHfPN103FSyFuXoKtEnwwY6Yi6tuNBI0iLRZdJwdzo
kPGfX6/l2DyYoru92e2PKJ8gpMIb0TAzqKqCLhkeOFjLs8UyasaWCA35dDrU/VKi
h7ikldU8AuJ8xBRrsalCtQkXnhF7z84YOeMrfeLiyci9X5ue8p7kjEHBPdv0ysR1
37HqFpEyVIU1G/VNA1JAHtWYtkM6F/Q9ajB6cmeYpMARjr8IdWcfI4aL+lHmqOJb
HiVwWnrpWpVA9JEVYOSZJ4OomPUedazTPA54siD9kURtmO9w74e47z5BOsBiGyCk
ujWh2mioytuiS3XlHQOpzDciCJDmzYCJNAafTmvd4ciA4eaSHGmi+aAVm0HYnnp5
yJEjb1PaliIX7wfapfggVPanbf0Qqox14yHRrgbII/igALxObvY2qtTDKunSWsC4
N/jvzvCtwrIjAdzNeVoVqb3GFFeXjI6zUSHUlonk1VlOR9eqO6nRxk+F+GhbW7uP
SK+oMbR3FPJuiGOlcO21//GfPg+Mk1t4llRKtgQCb2ELynOssTzsfvDxMjuw9Vta
3Dg1AXtSPYvKfZKyUDTwOI81KTTjx3NFtDFq1k/TdKjS
-----END CERTIFICATE-----
