Certificate:
    Data:
        Version: 3 (0x2)
        Serial Number: 4008 (0xfa8)
    Signature Algorithm: md5WithRSAEncryption
        Issuer: C=US, ST=OH, L=Columbus, O=VikingVPN, OU=MyOrganizationalUnit, CN=VikingVPN CA/name=EasyRSA/emailAddress=me@myhost.mydomain
        Validity
            Not Before: Jan  4 17:41:37 2015 GMT
            Not After : Jan  1 17:41:37 2025 GMT
        Subject: CN=Client1332Cert44181d
        Subject Public Key Info:
            Public Key Algorithm: rsaEncryption
                Public-Key: (4096 bit)
                Modulus:
                    00:b2:ae:e0:35:77:62:b2:c3:0f:aa:2d:a5:2b:b4:
                    5f:73:7c:f4:d9:c2:7c:17:1a:56:fa:bf:97:2a:d8:
                    cc:2e:33:d4:91:11:b0:3c:7e:85:dd:85:56:ed:70:
                    3e:e9:32:60:ac:f2:4a:89:04:0c:8d:f1:39:67:db:
                    f2:09:e2:26:e1:4b:f2:c5:c1:2e:6c:1f:79:f9:6e:
                    53:0c:38:74:bc:2b:e1:22:41:ae:55:d0:3f:cf:92:
                    c8:90:23:aa:43:29:f8:bf:aa:82:ca:76:37:97:17:
                    9f:b3:c8:fe:c1:f8:a5:ef:83:09:ec:7d:b4:de:84:
                    b9:8a:59:27:0d:92:ce:57:a4:a3:63:33:62:56:d8:
                    be:ac:50:fa:4d:55:63:09:df:c4:ae:31:10:92:df:
                    35:55:1b:71:8f:dc:3d:11:b7:95:34:de:a5:1e:97:
                    ea:21:c0:aa:32:7d:e2:54:c6:c8:de:00:fc:85:e5:
                    e9:1e:7a:81:4c:c8:6f:d6:39:21:f4:22:49:f5:af:
                    1f:b5:de:a0:94:d7:5b:9e:b0:0b:51:79:1f:cd:ba:
                    98:c3:ab:ee:f1:b6:19:e5:a6:ae:b6:f4:6c:dc:54:
                    53:c0:94:7d:1e:37:24:ba:fa:09:af:51:56:88:47:
                    29:dc:d1:c7:37:7a:c7:d7:89:d0:e3:4e:80:c4:c0:
                    59:ca:2f:69:66:08:a9:ee:5d:3b:13:0e:d6:36:8c:
                    b4:57:54:22:b3:37:f5:7a:2c:0d:9f:18:1c:1f:57:
                    fd:c1:39:9e:95:cb:ca:9e:44:47:df:1f:27:db:75:
                    91:5a:29:ca:df:b5:6a:87:a0:a8:c5:34:bd:0c:ae:
                    0c:8a:1b:e2:fb:67:46:36:3d:e8:6c:e5:0c:e5:25:
                    ed:fe:71:55:af:9d:84:b8:a6:23:0d:d8:24:62:e7:
                    d7:7f:44:99:8d:01:89:85:26:27:4f:ad:a5:3f:07:
                    72:0e:6c:78:6d:e3:cd:1b:96:47:d8:5b:99:2f:35:
                    e8:20:5a:41:50:09:a1:e8:02:d3:59:3c:26:4f:38:
                    df:2c:95:87:ba:df:19:9a:96:21:5a:de:3c:9e:c7:
                    b5:1c:b4:0c:69:b3:b6:f1:fe:61:4e:f9:30:5e:a6:
                    d8:31:44:84:5b:26:10:4e:be:fe:fb:68:6c:bf:ee:
                    d7:28:86:46:19:83:84:d3:a3:36:03:b8:36:4b:9c:
                    9b:d4:52:16:6d:18:e3:b9:5d:ae:e9:fe:57:22:d5:
                    0a:1a:15:87:62:58:f7:31:37:6a:54:1a:d1:55:d2:
                    fb:dd:77:15:67:dd:ca:25:4a:c3:9a:c2:1b:28:49:
                    1b:3d:f3:58:13:e6:b6:ea:b2:58:a0:8c:cd:e7:b2:
                    35:93:f7
                Exponent: 65537 (0x10001)
        X509v3 extensions:
            X509v3 Basic Constraints: 
                CA:FALSE
            Netscape Comment: 
                Easy-RSA Generated Certificate
            X509v3 Subject Key Identifier: 
                23:33:D8:DE:EC:4E:78:79:66:C4:09:9A:51:CB:F3:E0:70:E3:32:E6
            X509v3 Authority Key Identifier: 
                keyid:12:CD:60:04:D2:A0:80:9E:70:ED:C6:99:B8:7B:2C:C6:52:FD:19:A1
                DirName:/C=US/ST=OH/L=Columbus/O=VikingVPN/OU=MyOrganizationalUnit/CN=VikingVPN CA/name=EasyRSA/emailAddress=me@myhost.mydomain
                serial:CF:35:85:EE:80:BF:2A:3E

            X509v3 Extended Key Usage: 
                TLS Web Client Authentication
            X509v3 Key Usage: 
                Digital Signature
    Signature Algorithm: md5WithRSAEncryption
         e5:37:ed:4a:4b:b3:47:51:de:31:d8:c6:15:bd:33:5a:5e:bc:
         5b:6c:b9:b9:46:2d:d6:94:b8:61:b0:21:58:25:2b:1c:10:bb:
         12:93:84:34:35:69:2c:91:3a:4d:a4:99:55:cd:6c:46:fb:ee:
         02:a1:9a:53:3d:8b:6d:1d:19:8e:ae:82:e5:3e:22:bd:78:6d:
         51:ba:43:fa:47:b3:d1:2a:97:cf:e7:db:53:4e:95:3a:35:cd:
         ad:35:08:9b:3a:ab:46:96:7b:6e:bb:00:6c:33:f1:51:ce:21:
         9b:b0:17:f4:88:87:df:e6:39:d1:6e:44:de:3d:c1:07:71:2c:
         37:3b:e9:90:81:ff:48:9d:e7:da:03:c6:23:5e:65:bf:92:1b:
         3d:25:5b:37:ad:f4:8b:b3:67:14:56:1e:3d:97:59:06:52:96:
         68:ab:88:87:50:6e:88:04:ba:5c:f7:9a:a7:69:43:91:9f:83:
         3e:59:54:54:b1:ad:ec:a1:97:78:f6:33:ea:31:8e:8a:91:36:
         3a:f2:b0:fd:6e:93:44:0e:f7:4b:b5:7c:03:4f:34:e4:fd:29:
         aa:54:de:af:d5:9e:ca:64:01:a8:a1:d2:e7:f7:63:df:f9:57:
         73:31:c4:bc:c1:27:68:f2:be:5a:c0:f3:5e:43:7c:ee:bc:f6:
         5d:3a:38:ed:c7:9e:94:1f:57:6f:27:b4:88:7b:51:66:08:98:
         63:2d:05:eb:53:d2:24:76:3d:82:9d:42:c1:92:c2:7a:14:74:
         53:3f:70:60:bd:15:1a:52:4b:0a:40:69:6a:2e:e5:ad:9e:70:
         8b:f3:b7:b8:1b:e4:1e:fb:b1:bc:2e:55:94:6c:5d:77:5f:68:
         89:3f:a1:32:64:84:d6:28:9b:b9:d3:f4:4a:59:37:44:bb:b1:
         88:9c:d6:aa:28:fe:03:c5:3c:bc:03:9d:91:ee:86:fc:ca:b8:
         65:9a:bc:2b:59:1f:db:a8:d9:72:52:5e:f1:8b:2b:b4:18:40:
         bb:cc:36:1c:e3:08:a3:75:15:76:24:35:36:f5:ab:bd:c9:4b:
         46:a2:a5:27:0f:2b:ab:88:f2:1e:dd:43:7f:8e:3c:a8:44:38:
         59:c6:34:16:9c:4d:a8:82:60:2b:ac:60:39:55:a7:c6:7a:30:
         47:77:3c:48:2e:d4:7b:a1:19:cf:5d:4f:49:45:d7:bf:75:a7:
         15:e9:9e:44:58:d2:c3:6a:9e:d6:02:b7:c8:2e:2f:08:62:c0:
         a0:ae:f8:0f:cd:90:96:08:78:58:69:23:20:c2:d6:ec:42:3a:
         ea:d5:d1:85:76:d9:5f:80:21:83:22:50:98:7d:5c:4d:25:2f:
         fb:ce:0a:62:f0:0f:02:9b
-----BEGIN CERTIFICATE-----
MIIGrTCCBJWgAwIBAgICD6gwDQYJKoZIhvcNAQEEBQAwgawxCzAJBgNVBAYTAlVT
MQswCQYDVQQIEwJPSDERMA8GA1UEBxMIQ29sdW1idXMxEjAQBgNVBAoTCVZpa2lu
Z1ZQTjEdMBsGA1UECxMUTXlPcmdhbml6YXRpb25hbFVuaXQxFTATBgNVBAMTDFZp
a2luZ1ZQTiBDQTEQMA4GA1UEKRMHRWFzeVJTQTEhMB8GCSqGSIb3DQEJARYSbWVA
bXlob3N0Lm15ZG9tYWluMB4XDTE1MDEwNDE3NDEzN1oXDTI1MDEwMTE3NDEzN1ow
HzEdMBsGA1UEAxMUQ2xpZW50MTMzMkNlcnQ0NDE4MWQwggIiMA0GCSqGSIb3DQEB
AQUAA4ICDwAwggIKAoICAQCyruA1d2Kyww+qLaUrtF9zfPTZwnwXGlb6v5cq2Mwu
M9SREbA8foXdhVbtcD7pMmCs8kqJBAyN8Tln2/IJ4ibhS/LFwS5sH3n5blMMOHS8
K+EiQa5V0D/PksiQI6pDKfi/qoLKdjeXF5+zyP7B+KXvgwnsfbTehLmKWScNks5X
pKNjM2JW2L6sUPpNVWMJ38SuMRCS3zVVG3GP3D0Rt5U03qUel+ohwKoyfeJUxsje
APyF5ekeeoFMyG/WOSH0Ikn1rx+13qCU11uesAtReR/NupjDq+7xthnlpq629Gzc
VFPAlH0eNyS6+gmvUVaIRync0cc3esfXidDjToDEwFnKL2lmCKnuXTsTDtY2jLRX
VCKzN/V6LA2fGBwfV/3BOZ6Vy8qeREffHyfbdZFaKcrftWqHoKjFNL0MrgyKG+L7
Z0Y2Pehs5QzlJe3+cVWvnYS4piMN2CRi59d/RJmNAYmFJidPraU/B3IObHht480b
lkfYW5kvNeggWkFQCaHoAtNZPCZPON8slYe63xmaliFa3jyex7UctAxps7bx/mFO
+TBeptgxRIRbJhBOvv77aGy/7tcohkYZg4TTozYDuDZLnJvUUhZtGOO5Xa7p/lci
1QoaFYdiWPcxN2pUGtFV0vvddxVn3colSsOawhsoSRs981gT5rbqsligjM3nsjWT
9wIDAQABo4IBYzCCAV8wCQYDVR0TBAIwADAtBglghkgBhvhCAQ0EIBYeRWFzeS1S
U0EgR2VuZXJhdGVkIENlcnRpZmljYXRlMB0GA1UdDgQWBBQjM9je7E54eWbECZpR
y/PgcOMy5jCB4QYDVR0jBIHZMIHWgBQSzWAE0qCAnnDtxpm4eyzGUv0ZoaGBsqSB
rzCBrDELMAkGA1UEBhMCVVMxCzAJBgNVBAgTAk9IMREwDwYDVQQHEwhDb2x1bWJ1
czESMBAGA1UEChMJVmlraW5nVlBOMR0wGwYDVQQLExRNeU9yZ2FuaXphdGlvbmFs
VW5pdDEVMBMGA1UEAxMMVmlraW5nVlBOIENBMRAwDgYDVQQpEwdFYXN5UlNBMSEw
HwYJKoZIhvcNAQkBFhJtZUBteWhvc3QubXlkb21haW6CCQDPNYXugL8qPjATBgNV
HSUEDDAKBggrBgEFBQcDAjALBgNVHQ8EBAMCB4AwDQYJKoZIhvcNAQEEBQADggIB
AOU37UpLs0dR3jHYxhW9M1pevFtsublGLdaUuGGwIVglKxwQuxKThDQ1aSyROk2k
mVXNbEb77gKhmlM9i20dGY6uguU+Ir14bVG6Q/pHs9Eql8/n21NOlTo1za01CJs6
q0aWe267AGwz8VHOIZuwF/SIh9/mOdFuRN49wQdxLDc76ZCB/0id59oDxiNeZb+S
Gz0lWzet9IuzZxRWHj2XWQZSlmiriIdQbogEulz3mqdpQ5Gfgz5ZVFSxreyhl3j2
M+oxjoqRNjrysP1uk0QO90u1fANPNOT9KapU3q/VnspkAaih0uf3Y9/5V3MxxLzB
J2jyvlrA815DfO689l06OO3HnpQfV28ntIh7UWYImGMtBetT0iR2PYKdQsGSwnoU
dFM/cGC9FRpSSwpAaWou5a2ecIvzt7gb5B77sbwuVZRsXXdfaIk/oTJkhNYom7nT
9EpZN0S7sYic1qoo/gPFPLwDnZHuhvzKuGWavCtZH9uo2XJSXvGLK7QYQLvMNhzj
CKN1FXYkNTb1q73JS0aipScPK6uI8h7dQ3+OPKhEOFnGNBacTaiCYCusYDlVp8Z6
MEd3PEgu1HuhGc9dT0lF1791pxXpnkRY0sNqntYCt8guLwhiwKCu+A/NkJYIeFhp
IyDC1uxCOurV0YV22V+AIYMiUJh9XE0lL/vOCmLwDwKb
-----END CERTIFICATE-----
