Certificate:
    Data:
        Version: 3 (0x2)
        Serial Number: 4011 (0xfab)
    Signature Algorithm: md5WithRSAEncryption
        Issuer: C=US, ST=OH, L=Columbus, O=VikingVPN, OU=MyOrganizationalUnit, CN=VikingVPN CA/name=EasyRSA/emailAddress=me@myhost.mydomain
        Validity
            Not Before: Jan  4 23:11:06 2015 GMT
            Not After : Jan  1 23:11:06 2025 GMT
        Subject: CN=Client1334Certdb814c
        Subject Public Key Info:
            Public Key Algorithm: rsaEncryption
                Public-Key: (4096 bit)
                Modulus:
                    00:b2:76:a2:ab:24:a3:42:b9:ca:28:0a:fc:ab:0b:
                    42:d8:dd:04:63:9d:21:92:cb:5c:b6:4d:3a:c7:68:
                    ba:fc:16:55:ee:8e:2a:cf:ce:05:3b:83:4f:07:42:
                    d1:d2:67:72:0a:b5:71:80:d5:64:9c:ca:7a:5a:52:
                    9a:09:08:de:4f:2f:7d:7f:50:17:63:bd:2d:1c:32:
                    ed:46:12:c9:9c:24:46:e2:be:60:44:7c:3c:c6:11:
                    d3:fb:82:fa:48:f4:46:ee:4c:68:01:6a:cb:f3:ad:
                    1c:1e:0d:33:ec:01:b3:10:1a:f6:1b:5a:c4:71:c5:
                    59:28:7e:51:73:95:7a:d7:aa:14:e3:5c:84:7b:95:
                    2c:d7:f2:8d:be:fc:78:91:1b:02:05:95:69:ec:a1:
                    f0:1a:01:1c:50:67:bf:26:9a:6c:41:88:a2:85:1d:
                    ef:a9:bf:a0:5d:67:8e:5e:3c:e2:92:15:f1:ec:7e:
                    b9:2b:e1:2a:44:ca:af:55:f6:08:a7:eb:bb:16:6d:
                    9d:1c:0d:04:ab:60:14:36:e3:be:8f:cf:cc:71:4a:
                    c0:91:87:06:8e:3b:f8:a6:65:42:e8:fb:35:18:50:
                    2c:83:55:a5:fc:02:3a:94:8d:fe:50:1e:41:22:cb:
                    e1:ab:c0:d0:3a:de:e9:cf:2a:c9:67:e5:05:90:58:
                    3a:6c:99:9d:9d:3d:c6:c5:81:e5:58:82:ad:4f:27:
                    05:d0:e6:f1:8e:f8:43:5b:49:42:1b:5c:49:6b:b9:
                    17:9d:f9:97:b6:8e:90:39:9e:72:08:06:1a:ed:74:
                    2d:34:05:0a:bf:1c:16:5c:d8:d4:1c:32:bf:49:8d:
                    05:38:71:fa:83:18:47:ec:68:d7:e3:0d:d0:5d:28:
                    16:ff:6b:f7:be:89:db:93:d2:21:af:bb:b8:bf:5d:
                    3b:7a:ee:fb:14:15:56:f5:67:02:70:aa:4b:b3:35:
                    dd:33:13:48:54:e4:c6:fc:bb:23:31:65:93:39:1d:
                    e9:9a:1c:a9:61:3b:01:1f:07:11:7c:69:d3:83:53:
                    63:7e:69:b3:97:e6:ad:37:7c:27:7d:49:21:3a:65:
                    0b:bc:0b:35:7c:06:40:fa:9a:8c:3b:d7:d3:db:c3:
                    54:10:69:7d:9c:9d:40:83:b1:5d:6f:27:5d:e0:a4:
                    e3:09:de:4e:8d:fa:be:5d:d1:87:17:81:c9:4b:f5:
                    19:c4:25:09:05:a3:0f:38:14:5b:a6:c4:b6:1e:07:
                    96:fd:d2:c1:27:c0:e6:00:ca:61:e0:e4:6e:37:6f:
                    48:a3:21:8c:21:da:61:87:4c:fa:51:ca:e4:19:18:
                    68:9d:f9:8c:98:08:6b:99:3d:0a:96:ab:02:2b:d1:
                    2c:da:03
                Exponent: 65537 (0x10001)
        X509v3 extensions:
            X509v3 Basic Constraints: 
                CA:FALSE
            Netscape Comment: 
                Easy-RSA Generated Certificate
            X509v3 Subject Key Identifier: 
                03:BB:7F:60:1B:61:D3:74:4B:CA:EB:EC:09:C6:D0:C9:AF:6A:92:51
            X509v3 Authority Key Identifier: 
                keyid:12:CD:60:04:D2:A0:80:9E:70:ED:C6:99:B8:7B:2C:C6:52:FD:19:A1
                DirName:/C=US/ST=OH/L=Columbus/O=VikingVPN/OU=MyOrganizationalUnit/CN=VikingVPN CA/name=EasyRSA/emailAddress=me@myhost.mydomain
                serial:CF:35:85:EE:80:BF:2A:3E

            X509v3 Extended Key Usage: 
                TLS Web Client Authentication
            X509v3 Key Usage: 
                Digital Signature
    Signature Algorithm: md5WithRSAEncryption
         15:e2:36:6e:c1:3f:78:59:85:8b:a2:38:7f:77:8d:f6:8a:d7:
         d3:2c:4f:ef:5f:03:e9:b5:7b:24:2f:f7:e9:1b:24:29:91:73:
         3a:f4:37:a3:ec:ff:f6:6f:9b:c3:eb:68:b3:a8:6f:1e:a7:85:
         2c:fa:c8:66:b0:71:ce:d6:3d:bc:d4:eb:07:3a:ff:04:ad:31:
         e7:a5:d0:98:52:dc:fa:ad:02:75:df:55:84:98:7e:38:22:e4:
         0a:65:50:dc:89:29:60:3d:1f:cf:1a:04:be:c5:d4:d0:f1:f2:
         c5:a9:78:bf:6e:25:bb:4e:76:cf:1b:1f:9a:55:a7:81:73:65:
         16:e2:f7:9e:5b:43:aa:35:64:2b:d7:df:bd:e3:40:c4:fb:c9:
         f4:e4:cc:75:b0:6e:fa:ff:1d:bb:3d:bf:3e:1c:d1:2a:eb:67:
         8d:bc:52:ad:7e:2d:6f:9a:29:7d:01:86:15:55:d3:19:af:e5:
         b6:e0:63:b4:64:a3:cb:9e:f5:af:73:a1:d2:39:c1:4b:44:c4:
         4f:ac:84:df:3f:c2:04:c6:b2:ec:b7:25:5f:ba:53:0a:ab:56:
         4c:79:63:1b:1d:eb:f7:c4:e4:22:ee:5c:92:ec:2c:cc:2c:78:
         21:e8:f2:ec:18:a9:e6:a9:2c:5e:72:f8:dc:54:13:3d:66:1a:
         eb:bd:55:62:c6:61:45:e1:8f:15:fc:7c:a1:0d:28:17:f6:df:
         0b:25:12:9b:d0:91:ea:e6:74:a1:f7:2c:9f:2e:08:ef:3e:29:
         ad:aa:b1:62:70:0a:7a:b0:61:c2:9e:fb:2b:10:52:fd:2f:98:
         a3:b3:95:08:3e:60:68:af:80:7d:b7:73:75:ac:40:0a:8c:66:
         e1:79:bf:b5:89:16:b3:42:ea:35:f6:f7:4f:aa:30:e8:94:4d:
         c7:55:23:35:e3:76:49:c3:b0:68:47:22:e3:2a:bb:2a:64:89:
         96:01:d7:39:a3:db:9b:cc:3b:e0:68:ea:09:33:dd:7e:a6:49:
         0a:ae:70:cc:71:e8:0c:97:0c:3c:e7:37:18:ba:01:ac:d9:36:
         b1:72:a4:7c:18:29:8c:f7:ce:68:ba:8a:87:2f:6d:37:89:35:
         13:d5:bf:5d:77:8f:b9:ec:8c:8a:9e:10:27:37:b0:df:ca:12:
         99:4f:da:3c:bb:59:a4:bb:09:1c:14:2a:eb:11:d7:db:d8:a8:
         17:6f:f5:e1:60:5f:64:12:b9:dd:02:88:54:80:74:36:d4:12:
         ed:e0:5a:09:0c:4a:22:ca:e2:e9:fb:09:ca:d8:0d:c7:0f:27:
         00:89:b7:cc:42:8b:4f:f3:fb:65:0d:ab:ab:7b:bd:8d:e2:b4:
         f8:5f:0d:fd:95:14:92:a4
-----BEGIN CERTIFICATE-----
MIIGrTCCBJWgAwIBAgICD6swDQYJKoZIhvcNAQEEBQAwgawxCzAJBgNVBAYTAlVT
MQswCQYDVQQIEwJPSDERMA8GA1UEBxMIQ29sdW1idXMxEjAQBgNVBAoTCVZpa2lu
Z1ZQTjEdMBsGA1UECxMUTXlPcmdhbml6YXRpb25hbFVuaXQxFTATBgNVBAMTDFZp
a2luZ1ZQTiBDQTEQMA4GA1UEKRMHRWFzeVJTQTEhMB8GCSqGSIb3DQEJARYSbWVA
bXlob3N0Lm15ZG9tYWluMB4XDTE1MDEwNDIzMTEwNloXDTI1MDEwMTIzMTEwNlow
HzEdMBsGA1UEAxMUQ2xpZW50MTMzNENlcnRkYjgxNGMwggIiMA0GCSqGSIb3DQEB
AQUAA4ICDwAwggIKAoICAQCydqKrJKNCucooCvyrC0LY3QRjnSGSy1y2TTrHaLr8
FlXujirPzgU7g08HQtHSZ3IKtXGA1WScynpaUpoJCN5PL31/UBdjvS0cMu1GEsmc
JEbivmBEfDzGEdP7gvpI9EbuTGgBasvzrRweDTPsAbMQGvYbWsRxxVkoflFzlXrX
qhTjXIR7lSzX8o2+/HiRGwIFlWnsofAaARxQZ78mmmxBiKKFHe+pv6BdZ45ePOKS
FfHsfrkr4SpEyq9V9gin67sWbZ0cDQSrYBQ2476Pz8xxSsCRhwaOO/imZULo+zUY
UCyDVaX8AjqUjf5QHkEiy+GrwNA63unPKsln5QWQWDpsmZ2dPcbFgeVYgq1PJwXQ
5vGO+ENbSUIbXElruRed+Ze2jpA5nnIIBhrtdC00BQq/HBZc2NQcMr9JjQU4cfqD
GEfsaNfjDdBdKBb/a/e+iduT0iGvu7i/XTt67vsUFVb1ZwJwqkuzNd0zE0hU5Mb8
uyMxZZM5HemaHKlhOwEfBxF8adODU2N+abOX5q03fCd9SSE6ZQu8CzV8BkD6mow7
19Pbw1QQaX2cnUCDsV1vJ13gpOMJ3k6N+r5d0YcXgclL9RnEJQkFow84FFumxLYe
B5b90sEnwOYAymHg5G43b0ijIYwh2mGHTPpRyuQZGGid+YyYCGuZPQqWqwIr0Sza
AwIDAQABo4IBYzCCAV8wCQYDVR0TBAIwADAtBglghkgBhvhCAQ0EIBYeRWFzeS1S
U0EgR2VuZXJhdGVkIENlcnRpZmljYXRlMB0GA1UdDgQWBBQDu39gG2HTdEvK6+wJ
xtDJr2qSUTCB4QYDVR0jBIHZMIHWgBQSzWAE0qCAnnDtxpm4eyzGUv0ZoaGBsqSB
rzCBrDELMAkGA1UEBhMCVVMxCzAJBgNVBAgTAk9IMREwDwYDVQQHEwhDb2x1bWJ1
czESMBAGA1UEChMJVmlraW5nVlBOMR0wGwYDVQQLExRNeU9yZ2FuaXphdGlvbmFs
VW5pdDEVMBMGA1UEAxMMVmlraW5nVlBOIENBMRAwDgYDVQQpEwdFYXN5UlNBMSEw
HwYJKoZIhvcNAQkBFhJtZUBteWhvc3QubXlkb21haW6CCQDPNYXugL8qPjATBgNV
HSUEDDAKBggrBgEFBQcDAjALBgNVHQ8EBAMCB4AwDQYJKoZIhvcNAQEEBQADggIB
ABXiNm7BP3hZhYuiOH93jfaK19MsT+9fA+m1eyQv9+kbJCmRczr0N6Ps//Zvm8Pr
aLOobx6nhSz6yGawcc7WPbzU6wc6/wStMeel0JhS3PqtAnXfVYSYfjgi5AplUNyJ
KWA9H88aBL7F1NDx8sWpeL9uJbtOds8bH5pVp4FzZRbi955bQ6o1ZCvX373jQMT7
yfTkzHWwbvr/Hbs9vz4c0SrrZ428Uq1+LW+aKX0BhhVV0xmv5bbgY7Rko8ue9a9z
odI5wUtExE+shN8/wgTGsuy3JV+6UwqrVkx5Yxsd6/fE5CLuXJLsLMwseCHo8uwY
qeapLF5y+NxUEz1mGuu9VWLGYUXhjxX8fKENKBf23wslEpvQkermdKH3LJ8uCO8+
Ka2qsWJwCnqwYcKe+ysQUv0vmKOzlQg+YGivgH23c3WsQAqMZuF5v7WJFrNC6jX2
90+qMOiUTcdVIzXjdknDsGhHIuMquypkiZYB1zmj25vMO+Bo6gkz3X6mSQqucMxx
6AyXDDznNxi6AazZNrFypHwYKYz3zmi6iocvbTeJNRPVv113j7nsjIqeECc3sN/K
EplP2jy7WaS7CRwUKusR19vYqBdv9eFgX2QSud0CiFSAdDbUEu3gWgkMSiLK4un7
CcrYDccPJwCJt8xCi0/z+2UNq6t7vY3itPhfDf2VFJKk
-----END CERTIFICATE-----
