Certificate:
    Data:
        Version: 3 (0x2)
        Serial Number: 4022 (0xfb6)
    Signature Algorithm: md5WithRSAEncryption
        Issuer: C=US, ST=OH, L=Columbus, O=VikingVPN, OU=MyOrganizationalUnit, CN=VikingVPN CA/name=EasyRSA/emailAddress=me@myhost.mydomain
        Validity
            Not Before: Jan  6 14:38:29 2015 GMT
            Not After : Jan  3 14:38:29 2025 GMT
        Subject: CN=Client884Cert75363b
        Subject Public Key Info:
            Public Key Algorithm: rsaEncryption
                Public-Key: (4096 bit)
                Modulus:
                    00:eb:73:81:92:ed:c3:e5:f0:4c:48:b4:dc:9a:aa:
                    5c:5a:ac:63:0e:3e:12:9c:bd:a6:77:02:df:3c:ce:
                    cc:9b:bf:28:d7:1c:c3:31:78:54:4f:01:b8:11:ef:
                    85:31:e6:7f:a1:5f:63:bb:26:ed:d3:bf:25:61:e9:
                    32:61:48:5f:55:72:87:42:cd:c3:f6:fe:4f:69:d4:
                    9c:f4:45:c8:74:b2:df:41:52:ae:1c:46:8e:01:b2:
                    5b:bd:41:97:30:9e:32:53:9d:64:7a:ff:81:f6:6f:
                    e8:06:9b:1f:e0:6d:b9:9d:10:1a:33:c5:8e:c1:24:
                    0c:6e:94:7e:b9:20:0c:49:b8:89:2d:38:d8:cc:c3:
                    3c:99:a1:66:55:a7:94:90:03:5e:e3:77:c8:8e:c4:
                    64:86:5c:4f:1d:17:b0:4a:29:27:b4:f5:96:a6:39:
                    2f:0e:dd:38:44:09:a4:eb:73:3d:1d:f7:23:d7:00:
                    13:5e:b8:95:64:2e:11:37:f6:17:be:6a:29:e8:52:
                    3f:e4:d0:c0:d8:8b:3f:9b:0c:fe:3a:46:99:f4:01:
                    d9:c1:eb:32:0c:be:37:82:3e:bb:4d:ab:19:c4:0d:
                    37:7c:4c:ed:ca:4f:79:59:3d:e4:8d:9e:72:b8:39:
                    d7:28:00:96:e1:b7:69:0e:2c:05:d4:89:8a:05:00:
                    c7:54:e7:d9:76:6c:dc:13:37:6e:5c:20:33:d4:e7:
                    a0:fc:9d:c7:9f:07:ec:a5:c4:9e:ee:ab:40:18:7e:
                    73:eb:d3:2c:d1:70:f7:9d:1e:81:11:0c:5c:0b:bb:
                    c2:2d:1a:c4:cd:91:7b:8c:26:f3:33:a0:a5:d1:89:
                    4a:e2:a0:9b:b3:62:57:ae:0c:f8:53:16:3c:70:73:
                    b3:66:bc:e6:b2:59:5a:c9:ab:9a:26:7a:44:6b:61:
                    f8:fb:95:28:93:02:89:b1:d2:6a:ea:fa:e3:d4:9b:
                    97:93:32:55:47:fa:ab:c3:4d:16:40:90:94:3a:b8:
                    2a:02:1e:86:2c:31:e4:15:d2:b4:88:0c:5e:c5:bd:
                    15:71:04:b1:ff:43:56:8e:4a:f0:91:25:25:9f:a8:
                    c3:36:e5:84:88:b7:ac:f3:2f:08:42:50:c6:85:4a:
                    f4:6b:48:24:4b:a3:b3:22:88:d2:07:9f:b6:29:9a:
                    d4:38:de:72:07:d2:f7:32:c5:d3:2f:ce:76:a7:fc:
                    72:8e:32:92:29:32:c0:ce:6b:40:14:52:60:5f:f7:
                    00:55:5c:b1:78:f4:72:b1:90:71:8e:55:17:a1:fd:
                    e6:76:3c:47:c4:0a:c8:c3:76:88:83:ed:1e:e2:bf:
                    34:f1:ac:0a:c5:cc:36:48:ac:cf:55:38:90:48:12:
                    b4:0c:69
                Exponent: 65537 (0x10001)
        X509v3 extensions:
            X509v3 Basic Constraints: 
                CA:FALSE
            Netscape Comment: 
                Easy-RSA Generated Certificate
            X509v3 Subject Key Identifier: 
                0F:5C:F4:24:51:79:19:98:26:66:3A:B6:DA:1C:AA:15:B9:F1:7C:11
            X509v3 Authority Key Identifier: 
                keyid:12:CD:60:04:D2:A0:80:9E:70:ED:C6:99:B8:7B:2C:C6:52:FD:19:A1
                DirName:/C=US/ST=OH/L=Columbus/O=VikingVPN/OU=MyOrganizationalUnit/CN=VikingVPN CA/name=EasyRSA/emailAddress=me@myhost.mydomain
                serial:CF:35:85:EE:80:BF:2A:3E

            X509v3 Extended Key Usage: 
                TLS Web Client Authentication
            X509v3 Key Usage: 
                Digital Signature
    Signature Algorithm: md5WithRSAEncryption
         88:3b:58:2b:68:c3:a9:51:de:8c:e2:74:66:5b:3d:a5:d0:25:
         a8:84:9e:1e:2e:8b:ab:86:5e:dd:8f:66:8f:d2:60:05:76:59:
         22:a1:65:6a:e5:1d:5c:aa:14:91:27:58:b4:9b:ea:f6:eb:f7:
         38:ff:62:cc:24:87:04:4b:c0:a2:99:dd:4d:10:96:bd:8e:4c:
         5f:79:c1:c3:20:eb:e2:5c:ea:7b:63:9e:4a:f3:97:2c:18:15:
         38:e1:75:fb:5d:28:ed:b7:87:1b:45:25:01:e4:6c:72:bf:15:
         c5:76:2a:ac:cb:57:c1:bd:76:07:04:b8:51:a2:a4:b6:eb:95:
         82:73:81:2e:37:13:81:2b:32:9e:2c:81:5c:ca:ee:a7:a7:bb:
         90:83:c9:6b:6b:73:3c:5b:84:db:68:5d:da:1a:bd:33:e9:ed:
         78:94:ac:3b:eb:26:be:b2:d8:af:5a:5e:a6:d1:a8:17:b3:0f:
         43:92:20:53:16:75:6e:3a:35:b8:87:27:28:42:ea:85:0f:90:
         ad:85:a3:7a:e1:da:bd:b8:b6:4a:6a:2e:be:1b:98:3d:10:96:
         43:82:22:22:dc:0a:af:9d:d3:84:df:3e:67:ea:af:c4:85:21:
         08:a0:d6:b2:d8:8a:5f:70:f6:89:48:a3:a8:22:57:fa:ce:7e:
         ce:c6:9e:ef:37:6e:e6:2f:ef:cf:13:38:57:6b:5a:dc:9e:c0:
         13:70:78:f8:df:03:25:fc:6b:57:c9:bd:00:08:ac:a7:93:7f:
         43:79:00:17:1e:18:1d:8a:9b:c3:83:22:3e:4e:31:b4:56:90:
         49:65:f1:29:31:80:e6:09:4d:51:de:7b:58:74:6b:4f:40:39:
         8c:71:fb:11:74:8d:1d:50:3d:3a:e1:57:29:56:0e:8f:e3:6f:
         d1:28:25:00:c1:fa:25:b0:c6:9d:11:92:ff:15:2d:f2:7f:1e:
         43:09:05:95:d2:b2:7c:27:0c:b7:9d:ab:a2:a1:89:fb:b2:bb:
         d2:1a:46:ec:d3:42:ee:97:dc:12:8c:02:80:7e:90:df:47:5c:
         7a:1e:ea:62:31:fe:7f:3b:dd:06:55:55:c9:4f:72:de:f8:d3:
         a7:56:92:93:3f:cc:f6:e5:28:c6:93:b0:b9:e8:f2:7a:15:51:
         5d:8c:87:b3:57:10:0b:4b:4e:57:61:0f:8b:96:be:be:2c:8d:
         ae:31:5f:d0:7f:a0:ec:83:49:6c:21:43:d3:11:98:38:28:51:
         2c:18:2a:b6:8e:c7:60:f9:0e:0e:19:0f:de:a6:fc:07:37:fd:
         65:e0:99:17:28:5e:37:10:c6:38:e2:ea:73:b8:d2:d1:a8:1c:
         23:3b:a6:d4:70:db:18:a2
-----BEGIN CERTIFICATE-----
MIIGrDCCBJSgAwIBAgICD7YwDQYJKoZIhvcNAQEEBQAwgawxCzAJBgNVBAYTAlVT
MQswCQYDVQQIEwJPSDERMA8GA1UEBxMIQ29sdW1idXMxEjAQBgNVBAoTCVZpa2lu
Z1ZQTjEdMBsGA1UECxMUTXlPcmdhbml6YXRpb25hbFVuaXQxFTATBgNVBAMTDFZp
a2luZ1ZQTiBDQTEQMA4GA1UEKRMHRWFzeVJTQTEhMB8GCSqGSIb3DQEJARYSbWVA
bXlob3N0Lm15ZG9tYWluMB4XDTE1MDEwNjE0MzgyOVoXDTI1MDEwMzE0MzgyOVow
HjEcMBoGA1UEAxMTQ2xpZW50ODg0Q2VydDc1MzYzYjCCAiIwDQYJKoZIhvcNAQEB
BQADggIPADCCAgoCggIBAOtzgZLtw+XwTEi03JqqXFqsYw4+Epy9pncC3zzOzJu/
KNccwzF4VE8BuBHvhTHmf6FfY7sm7dO/JWHpMmFIX1Vyh0LNw/b+T2nUnPRFyHSy
30FSrhxGjgGyW71BlzCeMlOdZHr/gfZv6AabH+BtuZ0QGjPFjsEkDG6UfrkgDEm4
iS042MzDPJmhZlWnlJADXuN3yI7EZIZcTx0XsEopJ7T1lqY5Lw7dOEQJpOtzPR33
I9cAE164lWQuETf2F75qKehSP+TQwNiLP5sM/jpGmfQB2cHrMgy+N4I+u02rGcQN
N3xM7cpPeVk95I2ecrg51ygAluG3aQ4sBdSJigUAx1Tn2XZs3BM3blwgM9TnoPyd
x58H7KXEnu6rQBh+c+vTLNFw950egREMXAu7wi0axM2Re4wm8zOgpdGJSuKgm7Ni
V64M+FMWPHBzs2a85rJZWsmrmiZ6RGth+PuVKJMCibHSaur649Sbl5MyVUf6q8NN
FkCQlDq4KgIehiwx5BXStIgMXsW9FXEEsf9DVo5K8JElJZ+owzblhIi3rPMvCEJQ
xoVK9GtIJEujsyKI0geftima1DjecgfS9zLF0y/Odqf8co4ykikywM5rQBRSYF/3
AFVcsXj0crGQcY5VF6H95nY8R8QKyMN2iIPtHuK/NPGsCsXMNkisz1U4kEgStAxp
AgMBAAGjggFjMIIBXzAJBgNVHRMEAjAAMC0GCWCGSAGG+EIBDQQgFh5FYXN5LVJT
QSBHZW5lcmF0ZWQgQ2VydGlmaWNhdGUwHQYDVR0OBBYEFA9c9CRReRmYJmY6ttoc
qhW58XwRMIHhBgNVHSMEgdkwgdaAFBLNYATSoICecO3Gmbh7LMZS/RmhoYGypIGv
MIGsMQswCQYDVQQGEwJVUzELMAkGA1UECBMCT0gxETAPBgNVBAcTCENvbHVtYnVz
MRIwEAYDVQQKEwlWaWtpbmdWUE4xHTAbBgNVBAsTFE15T3JnYW5pemF0aW9uYWxV
bml0MRUwEwYDVQQDEwxWaWtpbmdWUE4gQ0ExEDAOBgNVBCkTB0Vhc3lSU0ExITAf
BgkqhkiG9w0BCQEWEm1lQG15aG9zdC5teWRvbWFpboIJAM81he6Avyo+MBMGA1Ud
JQQMMAoGCCsGAQUFBwMCMAsGA1UdDwQEAwIHgDANBgkqhkiG9w0BAQQFAAOCAgEA
iDtYK2jDqVHejOJ0Zls9pdAlqISeHi6Lq4Ze3Y9mj9JgBXZZIqFlauUdXKoUkSdY
tJvq9uv3OP9izCSHBEvAopndTRCWvY5MX3nBwyDr4lzqe2OeSvOXLBgVOOF1+10o
7beHG0UlAeRscr8VxXYqrMtXwb12BwS4UaKktuuVgnOBLjcTgSsyniyBXMrup6e7
kIPJa2tzPFuE22hd2hq9M+nteJSsO+smvrLYr1peptGoF7MPQ5IgUxZ1bjo1uIcn
KELqhQ+QrYWjeuHavbi2SmouvhuYPRCWQ4IiItwKr53ThN8+Z+qvxIUhCKDWstiK
X3D2iUijqCJX+s5+zsae7zdu5i/vzxM4V2ta3J7AE3B4+N8DJfxrV8m9AAisp5N/
Q3kAFx4YHYqbw4MiPk4xtFaQSWXxKTGA5glNUd57WHRrT0A5jHH7EXSNHVA9OuFX
KVYOj+Nv0SglAMH6JbDGnRGS/xUt8n8eQwkFldKyfCcMt52roqGJ+7K70hpG7NNC
7pfcEowCgH6Q30dceh7qYjH+fzvdBlVVyU9y3vjTp1aSkz/M9uUoxpOwuejyehVR
XYyHs1cQC0tOV2EPi5a+viyNrjFf0H+g7INJbCFD0xGYOChRLBgqto7HYPkODhkP
3qb8Bzf9ZeCZFyheNxDGOOLqc7jS0agcIzum1HDbGKI=
-----END CERTIFICATE-----
