Certificate:
    Data:
        Version: 3 (0x2)
        Serial Number: 4023 (0xfb7)
    Signature Algorithm: md5WithRSAEncryption
        Issuer: C=US, ST=OH, L=Columbus, O=VikingVPN, OU=MyOrganizationalUnit, CN=VikingVPN CA/name=EasyRSA/emailAddress=me@myhost.mydomain
        Validity
            Not Before: Jan  6 17:52:48 2015 GMT
            Not After : Jan  3 17:52:48 2025 GMT
        Subject: CN=Client884Cert556f89
        Subject Public Key Info:
            Public Key Algorithm: rsaEncryption
                Public-Key: (4096 bit)
                Modulus:
                    00:c7:7c:ec:cc:4f:38:d1:1a:6c:ee:4c:73:c2:58:
                    18:94:04:bc:53:a8:ae:e3:a9:63:03:fc:21:25:0e:
                    e6:0b:22:d3:86:be:b0:06:05:e4:ef:51:24:95:c1:
                    03:3d:fb:84:71:d6:31:a5:84:75:ac:15:e3:cd:e8:
                    02:6b:e6:ca:f6:37:03:91:b4:a3:64:c3:07:ff:2e:
                    b3:0a:85:6f:5a:5d:5a:f3:39:9c:9a:f7:fb:bd:42:
                    70:8c:f3:de:ba:9c:cd:56:02:e8:72:29:82:76:b3:
                    51:f6:f6:db:be:0b:8f:44:34:91:1a:74:ba:05:11:
                    df:07:9a:13:0d:5b:db:5b:20:1a:80:01:43:99:64:
                    bd:5b:39:27:64:fd:0c:ce:67:9f:fc:bf:64:84:a2:
                    40:f9:74:53:34:3d:19:0e:19:15:13:65:2a:90:4a:
                    1d:15:e5:21:70:16:72:2f:56:fb:e3:b5:b8:35:e4:
                    5b:ca:19:73:88:e2:d4:67:f7:78:8a:88:7b:0b:15:
                    c4:91:da:8c:28:8b:b7:26:fa:07:29:32:ef:12:fe:
                    78:ab:50:e8:52:99:b9:c0:6a:d9:ec:73:ed:41:e0:
                    03:25:85:97:50:d1:fb:ce:66:42:81:48:39:23:c3:
                    06:23:38:29:3c:2b:2c:9e:c8:95:16:5e:9d:3c:25:
                    23:96:e1:23:f1:36:14:08:a4:25:36:c8:81:72:2b:
                    d0:3e:3f:ec:ce:b2:1e:fd:aa:e6:ff:a5:e2:c0:a2:
                    6a:71:0b:7d:78:8a:3e:4b:f8:c9:1f:9c:3c:df:e2:
                    63:00:69:da:41:84:a2:55:5a:1c:cb:a2:9d:0e:82:
                    f6:04:e5:69:b3:55:e0:e2:dd:27:8e:1b:de:f1:42:
                    88:9a:1f:73:88:19:68:cc:fe:ec:c9:36:79:63:ae:
                    95:ab:78:db:44:3c:25:78:29:4c:ea:97:97:e2:1e:
                    a6:41:5d:9f:bc:72:2c:b3:30:3b:6d:bc:a3:5e:a6:
                    7a:57:70:4a:c6:b0:87:69:77:ef:39:32:13:94:ef:
                    15:7d:1b:92:dc:cc:3b:a7:8b:ab:51:29:8e:73:5a:
                    51:99:64:c7:34:cb:bb:7a:14:89:de:af:0f:b2:36:
                    9a:f6:ba:63:8a:d9:fa:92:72:66:d5:30:6d:72:29:
                    28:25:c0:c8:dc:5d:4a:e6:08:18:31:c3:30:19:34:
                    d5:d1:2e:28:ff:a8:89:03:36:73:a7:9a:4c:06:94:
                    5c:79:31:37:b0:f5:1b:5c:36:fe:59:1a:f1:8a:85:
                    aa:f3:4f:61:16:65:36:32:6a:e4:af:ae:ce:cb:9b:
                    08:c6:53:9a:db:f4:fa:cc:4e:0c:85:51:a8:bf:49:
                    f2:ad:bf
                Exponent: 65537 (0x10001)
        X509v3 extensions:
            X509v3 Basic Constraints: 
                CA:FALSE
            Netscape Comment: 
                Easy-RSA Generated Certificate
            X509v3 Subject Key Identifier: 
                08:89:77:86:77:47:AD:B6:3B:2D:EA:8A:1E:42:A9:67:D7:33:1F:84
            X509v3 Authority Key Identifier: 
                keyid:12:CD:60:04:D2:A0:80:9E:70:ED:C6:99:B8:7B:2C:C6:52:FD:19:A1
                DirName:/C=US/ST=OH/L=Columbus/O=VikingVPN/OU=MyOrganizationalUnit/CN=VikingVPN CA/name=EasyRSA/emailAddress=me@myhost.mydomain
                serial:CF:35:85:EE:80:BF:2A:3E

            X509v3 Extended Key Usage: 
                TLS Web Client Authentication
            X509v3 Key Usage: 
                Digital Signature
    Signature Algorithm: md5WithRSAEncryption
         af:18:f4:28:c4:94:bb:3e:38:d3:15:25:a9:34:8f:8f:76:64:
         d5:d6:33:bf:5c:2a:36:13:c4:6f:73:55:bd:80:16:37:ed:02:
         fd:2a:25:97:a2:dd:66:cc:14:da:73:64:e4:d1:60:05:fe:01:
         74:2b:3d:4a:1c:77:29:24:9e:a9:a0:75:cd:6d:7c:e7:60:47:
         e3:e8:d4:6d:8a:51:96:ed:56:4c:dc:af:01:bc:6a:42:36:68:
         8e:d9:ea:6e:d4:74:a3:4f:74:18:7d:4e:2e:81:91:7d:63:df:
         25:bc:e1:71:24:35:43:8a:dd:4e:fe:4b:c2:40:af:87:11:09:
         9f:b9:69:f1:e1:7d:e6:ef:5e:79:a1:a8:2e:15:9e:10:0f:f8:
         23:be:b6:60:a5:20:77:92:c8:6e:2e:90:eb:a4:8a:e8:47:31:
         19:cb:60:2d:69:eb:87:f3:f8:00:6c:f0:8d:d7:4d:d1:8a:45:
         f0:63:05:c3:fc:64:b3:ff:4e:79:37:55:4c:68:f6:64:e6:fd:
         93:f5:a9:9c:bb:a4:c6:81:1d:0e:42:76:b8:88:5f:98:ad:a3:
         09:57:8d:21:09:4b:85:e7:ce:4d:26:02:2e:ff:17:38:bf:ee:
         d3:b2:82:6a:30:ce:03:56:f8:9f:b4:1e:7c:28:54:7b:25:34:
         91:f5:e5:a4:a3:cc:cf:89:b7:b0:95:b0:0b:49:b9:09:0f:b0:
         75:9a:46:3f:4e:dd:21:0d:24:42:49:ee:40:6d:d4:1d:b8:0a:
         ec:7c:88:92:ee:d3:d3:cc:6d:af:1b:28:77:64:86:8e:ca:7b:
         46:4f:2a:db:a9:16:da:4e:03:4d:91:e4:43:d7:a5:28:e1:68:
         16:28:74:5d:8f:97:6b:61:09:96:e5:22:77:cb:9b:22:68:26:
         db:a2:24:de:77:f8:09:08:3d:55:42:d9:bd:57:8e:57:39:1c:
         fb:d6:b0:2c:04:43:e4:04:dc:0a:cd:51:70:4e:54:9b:db:d2:
         39:5c:e5:1b:15:b9:0a:44:d3:48:59:0c:e3:40:15:7a:c6:cb:
         fe:75:22:5c:af:a8:b1:05:10:9f:0f:61:8b:e8:f1:06:f1:49:
         d3:9c:11:54:d1:01:f3:47:81:f3:3f:fa:6b:36:a4:87:e4:a3:
         e2:0d:e7:0a:e4:71:67:62:41:57:70:ed:36:12:fd:f0:a2:19:
         c4:46:0b:9f:12:05:f3:ac:6f:32:34:36:61:4e:6e:b3:79:9c:
         29:df:62:0a:b4:cf:69:a0:01:35:2d:b0:70:74:0d:8f:d9:d3:
         59:1a:29:8a:ec:ce:e3:25:a5:84:c7:a0:86:46:8d:75:f0:a7:
         71:5b:af:6c:a1:db:77:76
-----BEGIN CERTIFICATE-----
MIIGrDCCBJSgAwIBAgICD7cwDQYJKoZIhvcNAQEEBQAwgawxCzAJBgNVBAYTAlVT
MQswCQYDVQQIEwJPSDERMA8GA1UEBxMIQ29sdW1idXMxEjAQBgNVBAoTCVZpa2lu
Z1ZQTjEdMBsGA1UECxMUTXlPcmdhbml6YXRpb25hbFVuaXQxFTATBgNVBAMTDFZp
a2luZ1ZQTiBDQTEQMA4GA1UEKRMHRWFzeVJTQTEhMB8GCSqGSIb3DQEJARYSbWVA
bXlob3N0Lm15ZG9tYWluMB4XDTE1MDEwNjE3NTI0OFoXDTI1MDEwMzE3NTI0OFow
HjEcMBoGA1UEAxMTQ2xpZW50ODg0Q2VydDU1NmY4OTCCAiIwDQYJKoZIhvcNAQEB
BQADggIPADCCAgoCggIBAMd87MxPONEabO5Mc8JYGJQEvFOoruOpYwP8ISUO5gsi
04a+sAYF5O9RJJXBAz37hHHWMaWEdawV483oAmvmyvY3A5G0o2TDB/8uswqFb1pd
WvM5nJr3+71CcIzz3rqczVYC6HIpgnazUfb2274Lj0Q0kRp0ugUR3weaEw1b21sg
GoABQ5lkvVs5J2T9DM5nn/y/ZISiQPl0UzQ9GQ4ZFRNlKpBKHRXlIXAWci9W++O1
uDXkW8oZc4ji1Gf3eIqIewsVxJHajCiLtyb6Byky7xL+eKtQ6FKZucBq2exz7UHg
AyWFl1DR+85mQoFIOSPDBiM4KTwrLJ7IlRZenTwlI5bhI/E2FAikJTbIgXIr0D4/
7M6yHv2q5v+l4sCianELfXiKPkv4yR+cPN/iYwBp2kGEolVaHMuinQ6C9gTlabNV
4OLdJ44b3vFCiJofc4gZaMz+7Mk2eWOulat420Q8JXgpTOqXl+IepkFdn7xyLLMw
O228o16meldwSsawh2l37zkyE5TvFX0bktzMO6eLq1EpjnNaUZlkxzTLu3oUid6v
D7I2mva6Y4rZ+pJyZtUwbXIpKCXAyNxdSuYIGDHDMBk01dEuKP+oiQM2c6eaTAaU
XHkxN7D1G1w2/lka8YqFqvNPYRZlNjJq5K+uzsubCMZTmtv0+sxODIVRqL9J8q2/
AgMBAAGjggFjMIIBXzAJBgNVHRMEAjAAMC0GCWCGSAGG+EIBDQQgFh5FYXN5LVJT
QSBHZW5lcmF0ZWQgQ2VydGlmaWNhdGUwHQYDVR0OBBYEFAiJd4Z3R622Oy3qih5C
qWfXMx+EMIHhBgNVHSMEgdkwgdaAFBLNYATSoICecO3Gmbh7LMZS/RmhoYGypIGv
MIGsMQswCQYDVQQGEwJVUzELMAkGA1UECBMCT0gxETAPBgNVBAcTCENvbHVtYnVz
MRIwEAYDVQQKEwlWaWtpbmdWUE4xHTAbBgNVBAsTFE15T3JnYW5pemF0aW9uYWxV
bml0MRUwEwYDVQQDEwxWaWtpbmdWUE4gQ0ExEDAOBgNVBCkTB0Vhc3lSU0ExITAf
BgkqhkiG9w0BCQEWEm1lQG15aG9zdC5teWRvbWFpboIJAM81he6Avyo+MBMGA1Ud
JQQMMAoGCCsGAQUFBwMCMAsGA1UdDwQEAwIHgDANBgkqhkiG9w0BAQQFAAOCAgEA
rxj0KMSUuz440xUlqTSPj3Zk1dYzv1wqNhPEb3NVvYAWN+0C/Soll6LdZswU2nNk
5NFgBf4BdCs9Shx3KSSeqaB1zW1852BH4+jUbYpRlu1WTNyvAbxqQjZojtnqbtR0
o090GH1OLoGRfWPfJbzhcSQ1Q4rdTv5LwkCvhxEJn7lp8eF95u9eeaGoLhWeEA/4
I762YKUgd5LIbi6Q66SK6EcxGctgLWnrh/P4AGzwjddN0YpF8GMFw/xks/9OeTdV
TGj2ZOb9k/WpnLukxoEdDkJ2uIhfmK2jCVeNIQlLhefOTSYCLv8XOL/u07KCajDO
A1b4n7QefChUeyU0kfXlpKPMz4m3sJWwC0m5CQ+wdZpGP07dIQ0kQknuQG3UHbgK
7HyIku7T08xtrxsod2SGjsp7Rk8q26kW2k4DTZHkQ9elKOFoFih0XY+Xa2EJluUi
d8ubImgm26Ik3nf4CQg9VULZvVeOVzkc+9awLARD5ATcCs1RcE5Um9vSOVzlGxW5
CkTTSFkM40AVesbL/nUiXK+osQUQnw9hi+jxBvFJ05wRVNEB80eB8z/6azakh+Sj
4g3nCuRxZ2JBV3DtNhL98KIZxEYLnxIF86xvMjQ2YU5us3mcKd9iCrTPaaABNS2w
cHQNj9nTWRopiuzO4yWlhMeghkaNdfCncVuvbKHbd3Y=
-----END CERTIFICATE-----
