Certificate:
    Data:
        Version: 3 (0x2)
        Serial Number: 4028 (0xfbc)
    Signature Algorithm: md5WithRSAEncryption
        Issuer: C=US, ST=OH, L=Columbus, O=VikingVPN, OU=MyOrganizationalUnit, CN=VikingVPN CA/name=EasyRSA/emailAddress=me@myhost.mydomain
        Validity
            Not Before: Jan  7 05:06:30 2015 GMT
            Not After : Jan  4 05:06:30 2025 GMT
        Subject: CN=Client802Certaf0c89
        Subject Public Key Info:
            Public Key Algorithm: rsaEncryption
                Public-Key: (4096 bit)
                Modulus:
                    00:fa:c0:7c:6b:09:d2:b9:7b:2f:90:47:b6:90:0f:
                    d8:43:2b:3e:76:58:be:40:46:35:24:e0:2b:01:f6:
                    e2:cb:22:cb:9e:e0:c8:e3:c5:b7:24:25:da:47:82:
                    d6:0e:05:c9:25:ac:c1:53:4b:08:99:b7:9c:54:7f:
                    47:66:38:4a:08:03:20:79:94:12:1c:6c:bf:ae:8f:
                    8d:e5:99:2f:c9:f7:51:c2:66:86:ad:aa:12:c2:f9:
                    d8:35:0c:b0:c9:b4:66:92:ce:59:87:57:99:77:ef:
                    15:87:5e:ad:40:95:04:43:f6:c6:fc:74:4a:0a:7b:
                    2d:cf:c1:58:fc:97:f7:91:12:bf:eb:70:97:e1:93:
                    23:a4:50:66:5b:a4:91:77:98:36:2b:b3:be:5a:f7:
                    25:a6:e3:10:e5:2f:b5:55:76:a3:84:44:ba:da:e8:
                    39:3a:1c:62:ef:05:aa:d1:2f:ba:f4:17:c5:69:33:
                    73:95:ac:05:dd:94:12:ba:c4:3a:95:6a:0a:94:20:
                    53:76:cc:24:52:22:81:fa:5b:6d:04:00:75:4f:22:
                    7e:22:c1:13:c5:40:12:6c:4b:a9:a8:dd:f5:9f:ce:
                    fc:42:a1:b5:f1:26:1f:3c:57:f3:59:f5:b0:2d:87:
                    78:10:a2:6f:c5:c5:73:48:e4:4c:1e:63:17:fc:20:
                    6e:59:48:1c:ff:80:ff:b1:b5:19:6a:27:fc:1f:6c:
                    a0:c6:ab:9a:c9:92:77:e7:dd:61:05:d9:86:ee:33:
                    58:f5:ae:9e:eb:05:d6:78:ba:70:a4:4d:9e:33:1a:
                    8d:92:c0:21:83:53:1b:4b:e9:69:97:88:34:7e:e2:
                    43:70:d9:29:51:d3:d9:ac:98:47:96:fc:ad:43:83:
                    f4:7f:24:3b:d7:2f:2d:ff:c5:82:99:22:8c:93:ae:
                    52:e4:5d:e5:dc:72:2d:d6:4b:a8:2d:04:54:ba:04:
                    30:d6:5c:8c:bd:de:da:40:80:b3:56:ee:7b:a8:f8:
                    f2:1a:95:a2:b2:53:87:51:a9:74:dd:f0:a9:30:58:
                    61:36:0c:f9:62:4e:d9:19:7e:19:ef:7b:b6:d9:af:
                    23:06:f5:36:7b:67:63:ce:9e:d2:7f:df:cc:84:93:
                    a1:51:64:c1:fe:17:b1:f8:c4:ba:f7:05:5b:0e:35:
                    ad:ec:46:a5:72:e3:e9:3e:2e:d4:3d:89:38:8a:17:
                    06:62:e6:ab:01:ca:f3:7f:24:ed:60:f9:8c:42:43:
                    1c:a9:91:83:8b:6d:d3:0e:eb:fa:b5:77:6a:fd:eb:
                    95:39:b6:e1:d7:19:f8:d6:2a:5d:dd:a0:c6:0c:ae:
                    ab:a7:45:5b:6c:ef:32:b8:4e:42:8e:64:3b:d6:87:
                    5f:58:ef
                Exponent: 65537 (0x10001)
        X509v3 extensions:
            X509v3 Basic Constraints: 
                CA:FALSE
            Netscape Comment: 
                Easy-RSA Generated Certificate
            X509v3 Subject Key Identifier: 
                12:36:09:16:8E:AB:DE:AD:B4:55:12:38:C1:0E:FA:99:1D:9A:D9:A0
            X509v3 Authority Key Identifier: 
                keyid:12:CD:60:04:D2:A0:80:9E:70:ED:C6:99:B8:7B:2C:C6:52:FD:19:A1
                DirName:/C=US/ST=OH/L=Columbus/O=VikingVPN/OU=MyOrganizationalUnit/CN=VikingVPN CA/name=EasyRSA/emailAddress=me@myhost.mydomain
                serial:CF:35:85:EE:80:BF:2A:3E

            X509v3 Extended Key Usage: 
                TLS Web Client Authentication
            X509v3 Key Usage: 
                Digital Signature
    Signature Algorithm: md5WithRSAEncryption
         0f:a0:2d:c7:51:ef:e0:17:00:bb:a4:13:c0:fe:58:de:4f:a2:
         7d:65:8a:b0:42:8e:f7:2e:bc:a3:c7:8a:cb:94:02:46:7e:93:
         54:3b:63:73:67:69:73:28:28:01:36:78:85:fa:21:d6:0b:65:
         3a:62:70:e5:fc:06:e7:46:e9:6a:60:c2:74:e0:6c:ad:68:82:
         17:a1:22:27:39:13:f8:e7:ec:a3:77:79:07:10:b4:9f:ad:a0:
         e6:de:70:2e:24:e0:26:a8:a8:40:22:ee:2d:ec:2e:bd:76:a6:
         ba:7a:30:b7:37:f2:0f:fe:05:fa:ac:9c:2f:3b:51:3f:e2:00:
         3b:9b:cf:ce:7f:56:a5:0a:dd:1e:c9:66:e2:4d:78:68:ea:71:
         94:89:8c:22:a4:51:f3:06:66:e5:61:c5:ec:6f:6d:78:bc:e9:
         fa:9f:67:bb:38:48:22:57:9e:76:35:f9:bf:69:15:7d:52:be:
         97:53:52:4a:97:95:41:bf:9c:92:24:bc:58:14:d9:8d:a0:48:
         2d:f4:e0:6f:d7:eb:5f:ec:82:40:9c:58:ac:37:03:ab:0d:c0:
         f0:b5:3b:d9:7e:c0:d0:c8:39:2a:e4:8b:ed:dd:40:f7:78:d6:
         dd:7f:c9:fb:56:10:3b:29:8b:ef:12:06:78:1b:de:28:19:0d:
         8c:d9:59:33:7a:59:e7:15:67:66:e7:78:22:c7:77:66:2a:7b:
         ce:98:bb:13:99:41:98:f4:d4:86:a7:5e:45:1e:7a:0b:58:94:
         2f:db:95:5e:0f:11:05:f2:8c:88:b6:cf:4e:6c:ee:db:1f:95:
         cd:2e:48:80:30:81:92:68:8f:96:73:18:5a:98:cc:0e:d8:78:
         19:70:36:c0:4f:8f:63:44:bb:e4:8f:1f:ad:43:70:d1:25:70:
         e7:73:2c:4e:63:e1:38:cc:3b:77:3a:03:44:7a:4c:7c:ae:0a:
         3b:52:24:f7:d1:21:3d:2d:29:7a:2c:d5:a1:76:ec:af:9d:a4:
         14:46:84:cf:00:d9:d5:cc:6f:30:c0:f8:de:e5:25:bc:2b:f1:
         02:20:12:78:4d:2f:7a:12:65:bc:ba:ae:12:19:f6:af:02:20:
         e6:cd:8e:35:83:69:ca:12:e0:05:b9:a9:b7:91:10:e1:4b:19:
         c1:a1:1b:64:07:37:20:54:62:d5:60:97:a1:20:94:cd:18:c5:
         66:9a:2f:5d:7a:fc:9f:c9:0b:9b:81:33:98:02:39:9b:fc:5d:
         1a:4a:8a:39:f4:96:fa:a4:1d:d7:ba:76:16:e8:c8:14:3a:24:
         c3:eb:20:4f:cc:34:88:13:45:0f:4b:f7:fa:b7:50:99:a7:40:
         81:70:25:cd:e0:92:ab:9e
-----BEGIN CERTIFICATE-----
MIIGrDCCBJSgAwIBAgICD7wwDQYJKoZIhvcNAQEEBQAwgawxCzAJBgNVBAYTAlVT
MQswCQYDVQQIEwJPSDERMA8GA1UEBxMIQ29sdW1idXMxEjAQBgNVBAoTCVZpa2lu
Z1ZQTjEdMBsGA1UECxMUTXlPcmdhbml6YXRpb25hbFVuaXQxFTATBgNVBAMTDFZp
a2luZ1ZQTiBDQTEQMA4GA1UEKRMHRWFzeVJTQTEhMB8GCSqGSIb3DQEJARYSbWVA
bXlob3N0Lm15ZG9tYWluMB4XDTE1MDEwNzA1MDYzMFoXDTI1MDEwNDA1MDYzMFow
HjEcMBoGA1UEAxMTQ2xpZW50ODAyQ2VydGFmMGM4OTCCAiIwDQYJKoZIhvcNAQEB
BQADggIPADCCAgoCggIBAPrAfGsJ0rl7L5BHtpAP2EMrPnZYvkBGNSTgKwH24ssi
y57gyOPFtyQl2keC1g4FySWswVNLCJm3nFR/R2Y4SggDIHmUEhxsv66PjeWZL8n3
UcJmhq2qEsL52DUMsMm0ZpLOWYdXmXfvFYderUCVBEP2xvx0Sgp7Lc/BWPyX95ES
v+twl+GTI6RQZlukkXeYNiuzvlr3JabjEOUvtVV2o4REutroOTocYu8FqtEvuvQX
xWkzc5WsBd2UErrEOpVqCpQgU3bMJFIigfpbbQQAdU8ifiLBE8VAEmxLqajd9Z/O
/EKhtfEmHzxX81n1sC2HeBCib8XFc0jkTB5jF/wgbllIHP+A/7G1GWon/B9soMar
msmSd+fdYQXZhu4zWPWunusF1ni6cKRNnjMajZLAIYNTG0vpaZeINH7iQ3DZKVHT
2ayYR5b8rUOD9H8kO9cvLf/FgpkijJOuUuRd5dxyLdZLqC0EVLoEMNZcjL3e2kCA
s1bue6j48hqVorJTh1GpdN3wqTBYYTYM+WJO2Rl+Ge97ttmvIwb1NntnY86e0n/f
zISToVFkwf4XsfjEuvcFWw41rexGpXLj6T4u1D2JOIoXBmLmqwHK838k7WD5jEJD
HKmRg4tt0w7r+rV3av3rlTm24dcZ+NYqXd2gxgyuq6dFW2zvMrhOQo5kO9aHX1jv
AgMBAAGjggFjMIIBXzAJBgNVHRMEAjAAMC0GCWCGSAGG+EIBDQQgFh5FYXN5LVJT
QSBHZW5lcmF0ZWQgQ2VydGlmaWNhdGUwHQYDVR0OBBYEFBI2CRaOq96ttFUSOMEO
+pkdmtmgMIHhBgNVHSMEgdkwgdaAFBLNYATSoICecO3Gmbh7LMZS/RmhoYGypIGv
MIGsMQswCQYDVQQGEwJVUzELMAkGA1UECBMCT0gxETAPBgNVBAcTCENvbHVtYnVz
MRIwEAYDVQQKEwlWaWtpbmdWUE4xHTAbBgNVBAsTFE15T3JnYW5pemF0aW9uYWxV
bml0MRUwEwYDVQQDEwxWaWtpbmdWUE4gQ0ExEDAOBgNVBCkTB0Vhc3lSU0ExITAf
BgkqhkiG9w0BCQEWEm1lQG15aG9zdC5teWRvbWFpboIJAM81he6Avyo+MBMGA1Ud
JQQMMAoGCCsGAQUFBwMCMAsGA1UdDwQEAwIHgDANBgkqhkiG9w0BAQQFAAOCAgEA
D6Atx1Hv4BcAu6QTwP5Y3k+ifWWKsEKO9y68o8eKy5QCRn6TVDtjc2dpcygoATZ4
hfoh1gtlOmJw5fwG50bpamDCdOBsrWiCF6EiJzkT+Ofso3d5BxC0n62g5t5wLiTg
JqioQCLuLewuvXamunowtzfyD/4F+qycLztRP+IAO5vPzn9WpQrdHslm4k14aOpx
lImMIqRR8wZm5WHF7G9teLzp+p9nuzhIIleedjX5v2kVfVK+l1NSSpeVQb+ckiS8
WBTZjaBILfTgb9frX+yCQJxYrDcDqw3A8LU72X7A0Mg5KuSL7d1A93jW3X/J+1YQ
OymL7xIGeBveKBkNjNlZM3pZ5xVnZud4Isd3Zip7zpi7E5lBmPTUhqdeRR56C1iU
L9uVXg8RBfKMiLbPTmzu2x+VzS5IgDCBkmiPlnMYWpjMDth4GXA2wE+PY0S75I8f
rUNw0SVw53MsTmPhOMw7dzoDRHpMfK4KO1Ik99EhPS0peizVoXbsr52kFEaEzwDZ
1cxvMMD43uUlvCvxAiASeE0vehJlvLquEhn2rwIg5s2ONYNpyhLgBbmpt5EQ4UsZ
waEbZAc3IFRi1WCXoSCUzRjFZpovXXr8n8kLm4EzmAI5m/xdGkqKOfSW+qQd17p2
FujIFDokw+sgT8w0iBNFD0v3+rdQmadAgXAlzeCSq54=
-----END CERTIFICATE-----
