Certificate:
    Data:
        Version: 3 (0x2)
        Serial Number: 4102 (0x1006)
    Signature Algorithm: md5WithRSAEncryption
        Issuer: C=US, ST=OH, L=Columbus, O=VikingVPN, OU=MyOrganizationalUnit, CN=VikingVPN CA/name=EasyRSA/emailAddress=me@myhost.mydomain
        Validity
            Not Before: Jan 13 20:32:46 2015 GMT
            Not After : Jan 10 20:32:46 2025 GMT
        Subject: CN=Client801Cert37a5c7
        Subject Public Key Info:
            Public Key Algorithm: rsaEncryption
                Public-Key: (4096 bit)
                Modulus:
                    00:b0:da:8a:c1:23:ed:14:19:da:d6:a8:6f:37:a3:
                    f2:06:84:ee:48:23:1b:ba:2a:3d:cf:65:7b:57:f2:
                    1f:bd:dc:e8:43:04:20:bc:20:c8:a2:1f:f5:4a:38:
                    23:8c:e1:26:fe:78:5d:15:b2:f9:bd:ce:8d:53:a9:
                    d9:c5:c9:52:65:83:fc:ab:4b:7a:79:ed:f0:e8:26:
                    6f:46:7b:4a:ac:ed:7c:98:5f:60:c9:c7:06:af:53:
                    bd:43:c9:3a:e6:35:5d:a4:bb:2f:e1:a1:02:bf:d9:
                    df:4e:ca:44:bc:67:e5:30:b8:7f:1e:11:72:52:a3:
                    ff:41:42:48:8d:5c:7d:17:3d:ec:18:5b:fe:83:37:
                    72:9f:d8:c1:f6:82:80:ca:b9:be:eb:c0:ab:f4:85:
                    5a:4a:84:6f:54:c0:29:7d:3f:d6:13:27:a2:ac:9e:
                    7c:09:f3:8d:b0:8a:ed:3a:b4:e7:50:c2:a8:43:e1:
                    18:1c:35:88:49:df:0f:13:70:41:8f:28:6c:b7:7b:
                    2a:da:bb:25:7f:58:af:3b:a5:f5:12:15:b2:c3:20:
                    92:e5:9c:33:88:77:17:1d:9e:84:a4:28:ea:42:94:
                    2b:20:e2:54:04:88:37:99:ab:3b:20:29:98:df:8a:
                    b7:11:a8:96:b8:ef:57:ec:8d:9c:9d:0c:dd:3f:3e:
                    ff:52:a9:5a:b9:bb:64:f5:c6:bc:f8:f3:dd:c6:65:
                    39:ef:08:0d:95:0c:6c:91:90:a2:e9:58:56:01:8f:
                    17:bf:4c:63:c2:86:49:dd:b1:91:2c:fe:f5:3b:38:
                    99:3a:3e:4c:0f:01:d4:c0:ca:0b:4f:3b:2d:7a:f8:
                    83:f9:6c:86:f7:e6:63:1c:67:cd:e8:6b:6c:c7:d7:
                    84:89:47:8b:45:4a:69:76:0d:3a:76:53:75:7c:48:
                    92:1d:a2:24:0c:65:ec:dd:81:6c:88:0c:a4:3b:13:
                    69:e2:73:0a:cd:80:d2:0b:47:d2:96:e5:a8:d1:2b:
                    18:f5:f4:24:43:45:67:22:30:a4:e3:f9:df:1b:a3:
                    a0:93:ad:d9:c6:44:31:fb:04:db:8f:2a:28:cb:ca:
                    eb:96:ad:f4:56:dd:e1:97:a9:0c:a0:48:79:9e:df:
                    07:97:83:05:18:cc:b0:c9:95:19:4f:ea:ab:dc:fc:
                    1a:c9:8f:03:10:19:7f:cf:41:c0:74:c6:98:c5:dc:
                    9e:da:d7:42:41:e5:26:1f:84:aa:87:de:72:c8:1f:
                    c7:5c:19:76:c2:f2:c6:1c:12:0b:51:3f:ba:87:a1:
                    62:f1:2c:ae:90:44:f2:09:8e:0c:ff:c7:7d:ce:86:
                    81:96:fc:e7:29:af:53:cc:d8:5b:0f:2b:b4:59:7e:
                    2e:aa:49
                Exponent: 65537 (0x10001)
        X509v3 extensions:
            X509v3 Basic Constraints: 
                CA:FALSE
            Netscape Comment: 
                Easy-RSA Generated Certificate
            X509v3 Subject Key Identifier: 
                25:12:BA:A8:A8:92:05:DE:7A:EC:8D:18:92:47:2C:50:97:77:82:F0
            X509v3 Authority Key Identifier: 
                keyid:12:CD:60:04:D2:A0:80:9E:70:ED:C6:99:B8:7B:2C:C6:52:FD:19:A1
                DirName:/C=US/ST=OH/L=Columbus/O=VikingVPN/OU=MyOrganizationalUnit/CN=VikingVPN CA/name=EasyRSA/emailAddress=me@myhost.mydomain
                serial:CF:35:85:EE:80:BF:2A:3E

            X509v3 Extended Key Usage: 
                TLS Web Client Authentication
            X509v3 Key Usage: 
                Digital Signature
    Signature Algorithm: md5WithRSAEncryption
         eb:39:45:e4:d1:87:db:44:71:66:75:99:12:cb:88:ef:11:f2:
         f2:65:5d:9f:63:91:0d:60:23:c5:fe:0b:d2:bf:3c:ac:28:db:
         92:94:5a:ba:4d:18:a7:89:2d:fd:da:40:f1:63:f4:b0:89:6b:
         e5:0e:44:6f:61:35:96:f5:47:3d:57:12:40:84:ae:43:24:2e:
         37:83:f7:d4:c1:66:d4:14:3b:9e:e0:8a:c8:17:70:dd:df:00:
         a3:1a:f1:90:0a:56:fe:c7:93:e8:87:8d:c6:d8:04:68:7e:23:
         01:1a:0f:57:eb:1d:44:e3:b1:d3:38:3e:38:b2:f8:fa:23:68:
         96:7e:de:4a:d3:10:22:29:24:55:81:aa:fc:43:8a:b2:4a:8f:
         ae:78:ed:df:d3:64:20:24:89:18:fa:c9:f1:dc:1e:1c:1f:91:
         7c:25:9f:3a:fb:7a:db:4c:88:c7:80:b3:a8:ae:95:b2:07:7b:
         ab:9d:95:c0:bb:93:8c:0a:91:92:dc:0a:9c:4a:90:34:6a:b7:
         2d:b4:44:4f:9b:44:77:ce:c3:8f:fd:fd:45:ba:74:46:fa:66:
         3a:f7:66:8a:6a:e6:e8:ad:e6:26:d2:06:1d:16:22:98:ba:8f:
         58:24:14:4f:68:85:25:27:80:18:19:71:2f:33:2b:d8:44:ad:
         10:87:6b:b7:94:17:ed:eb:47:ff:22:58:c8:fe:e6:07:25:90:
         c5:9d:8d:fd:f2:13:84:d7:eb:a3:b8:64:9f:59:f0:ee:5e:39:
         5b:83:4b:39:59:1a:df:15:4a:6d:c6:3f:9c:1f:2d:40:ea:b6:
         30:80:40:5d:a4:48:c2:4b:45:8c:55:72:c0:44:49:37:af:9c:
         cb:37:ec:ab:b5:33:69:19:9c:99:1d:e6:32:1c:08:10:c3:21:
         62:21:e4:61:b2:c7:42:81:12:33:bd:f3:f2:6c:7f:25:ee:08:
         59:b0:f6:39:ac:17:11:11:dd:fa:06:84:9a:f5:42:59:43:f1:
         3a:d7:f3:63:6a:10:62:0b:a6:a7:b0:eb:18:ac:c1:15:96:b2:
         e6:1f:da:5f:6a:58:67:b7:2b:4f:cd:f3:da:dc:24:1c:a7:56:
         ed:06:33:8f:ae:94:37:9a:15:ef:17:86:0a:36:4b:de:a9:51:
         60:b4:69:5a:19:ac:0f:84:61:97:37:ed:d3:f0:17:50:93:51:
         c5:37:e2:00:2d:f8:4b:43:a7:9c:01:9a:1e:bc:04:fc:3e:f2:
         c6:e1:1c:3c:5a:fa:47:4a:24:d7:a1:a1:a8:f3:86:23:7b:36:
         dd:2a:21:98:2c:1c:d2:29:da:18:c2:aa:4c:2e:5e:c4:fb:16:
         6f:34:f5:1e:8b:af:7e:e3
-----BEGIN CERTIFICATE-----
MIIGrDCCBJSgAwIBAgICEAYwDQYJKoZIhvcNAQEEBQAwgawxCzAJBgNVBAYTAlVT
MQswCQYDVQQIEwJPSDERMA8GA1UEBxMIQ29sdW1idXMxEjAQBgNVBAoTCVZpa2lu
Z1ZQTjEdMBsGA1UECxMUTXlPcmdhbml6YXRpb25hbFVuaXQxFTATBgNVBAMTDFZp
a2luZ1ZQTiBDQTEQMA4GA1UEKRMHRWFzeVJTQTEhMB8GCSqGSIb3DQEJARYSbWVA
bXlob3N0Lm15ZG9tYWluMB4XDTE1MDExMzIwMzI0NloXDTI1MDExMDIwMzI0Nlow
HjEcMBoGA1UEAxMTQ2xpZW50ODAxQ2VydDM3YTVjNzCCAiIwDQYJKoZIhvcNAQEB
BQADggIPADCCAgoCggIBALDaisEj7RQZ2taobzej8gaE7kgjG7oqPc9le1fyH73c
6EMEILwgyKIf9Uo4I4zhJv54XRWy+b3OjVOp2cXJUmWD/KtLennt8Ogmb0Z7Sqzt
fJhfYMnHBq9TvUPJOuY1XaS7L+GhAr/Z307KRLxn5TC4fx4RclKj/0FCSI1cfRc9
7Bhb/oM3cp/YwfaCgMq5vuvAq/SFWkqEb1TAKX0/1hMnoqyefAnzjbCK7Tq051DC
qEPhGBw1iEnfDxNwQY8obLd7Ktq7JX9Yrzul9RIVssMgkuWcM4h3Fx2ehKQo6kKU
KyDiVASIN5mrOyApmN+KtxGolrjvV+yNnJ0M3T8+/1KpWrm7ZPXGvPjz3cZlOe8I
DZUMbJGQoulYVgGPF79MY8KGSd2xkSz+9Ts4mTo+TA8B1MDKC087LXr4g/lshvfm
YxxnzehrbMfXhIlHi0VKaXYNOnZTdXxIkh2iJAxl7N2BbIgMpDsTaeJzCs2A0gtH
0pblqNErGPX0JENFZyIwpOP53xujoJOt2cZEMfsE248qKMvK65at9Fbd4ZepDKBI
eZ7fB5eDBRjMsMmVGU/qq9z8GsmPAxAZf89BwHTGmMXcntrXQkHlJh+Eqofecsgf
x1wZdsLyxhwSC1E/uoehYvEsrpBE8gmODP/Hfc6GgZb85ymvU8zYWw8rtFl+LqpJ
AgMBAAGjggFjMIIBXzAJBgNVHRMEAjAAMC0GCWCGSAGG+EIBDQQgFh5FYXN5LVJT
QSBHZW5lcmF0ZWQgQ2VydGlmaWNhdGUwHQYDVR0OBBYEFCUSuqiokgXeeuyNGJJH
LFCXd4LwMIHhBgNVHSMEgdkwgdaAFBLNYATSoICecO3Gmbh7LMZS/RmhoYGypIGv
MIGsMQswCQYDVQQGEwJVUzELMAkGA1UECBMCT0gxETAPBgNVBAcTCENvbHVtYnVz
MRIwEAYDVQQKEwlWaWtpbmdWUE4xHTAbBgNVBAsTFE15T3JnYW5pemF0aW9uYWxV
bml0MRUwEwYDVQQDEwxWaWtpbmdWUE4gQ0ExEDAOBgNVBCkTB0Vhc3lSU0ExITAf
BgkqhkiG9w0BCQEWEm1lQG15aG9zdC5teWRvbWFpboIJAM81he6Avyo+MBMGA1Ud
JQQMMAoGCCsGAQUFBwMCMAsGA1UdDwQEAwIHgDANBgkqhkiG9w0BAQQFAAOCAgEA
6zlF5NGH20RxZnWZEsuI7xHy8mVdn2ORDWAjxf4L0r88rCjbkpRauk0Yp4kt/dpA
8WP0sIlr5Q5Eb2E1lvVHPVcSQISuQyQuN4P31MFm1BQ7nuCKyBdw3d8AoxrxkApW
/seT6IeNxtgEaH4jARoPV+sdROOx0zg+OLL4+iNoln7eStMQIikkVYGq/EOKskqP
rnjt39NkICSJGPrJ8dweHB+RfCWfOvt620yIx4CzqK6Vsgd7q52VwLuTjAqRktwK
nEqQNGq3LbRET5tEd87Dj/39Rbp0RvpmOvdmimrm6K3mJtIGHRYimLqPWCQUT2iF
JSeAGBlxLzMr2EStEIdrt5QX7etH/yJYyP7mByWQxZ2N/fIThNfro7hkn1nw7l45
W4NLOVka3xVKbcY/nB8tQOq2MIBAXaRIwktFjFVywERJN6+cyzfsq7UzaRmcmR3m
MhwIEMMhYiHkYbLHQoESM73z8mx/Je4IWbD2OawXERHd+gaEmvVCWUPxOtfzY2oQ
Ygump7DrGKzBFZay5h/aX2pYZ7crT83z2twkHKdW7QYzj66UN5oV7xeGCjZL3qlR
YLRpWhmsD4Rhlzft0/AXUJNRxTfiAC34S0OnnAGaHrwE/D7yxuEcPFr6R0ok16Gh
qPOGI3s23SohmCwc0inaGMKqTC5exPsWbzT1HouvfuM=
-----END CERTIFICATE-----
