Certificate:
    Data:
        Version: 3 (0x2)
        Serial Number: 4113 (0x1011)
    Signature Algorithm: md5WithRSAEncryption
        Issuer: C=US, ST=OH, L=Columbus, O=VikingVPN, OU=MyOrganizationalUnit, CN=VikingVPN CA/name=EasyRSA/emailAddress=me@myhost.mydomain
        Validity
            Not Before: Jan 13 20:35:12 2015 GMT
            Not After : Jan 10 20:35:12 2025 GMT
        Subject: CN=Client801Certc62a18
        Subject Public Key Info:
            Public Key Algorithm: rsaEncryption
                Public-Key: (4096 bit)
                Modulus:
                    00:a9:b2:62:4f:08:49:06:79:82:8e:9b:83:f4:9d:
                    ba:07:68:6f:22:3c:05:dc:cb:51:b1:94:f8:60:9d:
                    2c:09:d5:73:5d:f5:75:52:04:99:03:3c:ce:7e:f5:
                    e2:71:e0:22:7d:3c:96:bb:40:09:50:5d:7b:7d:21:
                    98:d4:a9:93:91:f5:53:a2:e4:7f:d1:2b:0f:f1:82:
                    11:af:a4:f9:de:0c:47:6a:f3:bb:ff:e6:1e:f9:0f:
                    43:28:1e:d8:71:7e:d5:d1:ec:2c:78:0c:4a:07:2a:
                    70:7d:ab:46:80:2b:3b:de:e6:a0:65:cb:61:25:5c:
                    99:d9:16:42:28:3a:db:a7:c8:ce:ff:33:df:42:a0:
                    0e:fc:7b:93:05:9e:38:43:ba:66:41:77:82:b6:63:
                    b9:03:fb:5b:fa:70:75:e4:c8:93:dc:0c:e9:4d:e4:
                    b3:1d:c3:53:a1:81:10:11:d1:f2:0d:07:e1:7c:11:
                    56:f8:d4:ad:35:63:2e:88:2c:00:dd:10:ee:58:28:
                    9d:af:e9:90:31:b3:c3:20:be:0d:f8:48:49:f6:2b:
                    55:56:9a:1a:1e:60:f0:ff:4c:67:a9:3f:ab:dc:11:
                    c0:f1:05:28:f1:1f:1b:64:d3:eb:2c:68:53:21:4a:
                    7e:c4:3d:86:b7:e3:8c:23:3b:7f:7e:59:ba:2f:b2:
                    b5:e8:77:88:54:4a:26:85:a2:09:52:c7:2c:cd:9c:
                    4a:80:b5:ca:32:0c:0a:39:1c:60:54:90:aa:66:c1:
                    08:30:b9:a9:bb:3f:13:ad:60:ae:34:d1:04:69:d2:
                    79:23:28:c5:b5:ce:29:c1:cb:72:da:45:6b:f3:72:
                    65:3a:c7:86:76:f8:b5:be:3b:de:f1:af:f0:6d:3d:
                    89:b2:d9:97:09:12:64:10:e5:14:06:f2:19:37:12:
                    67:80:9a:d0:55:60:6b:36:88:fa:21:ee:8d:35:d9:
                    a9:5e:29:c4:a9:fd:81:d8:2a:bb:e6:f9:9e:85:92:
                    b3:53:dd:49:6e:1e:18:71:23:f2:41:86:3e:78:a2:
                    f8:64:e0:ad:b1:11:54:b2:d9:2a:d2:34:67:df:98:
                    55:b8:b3:6f:6c:53:08:14:1b:f1:72:d3:f2:78:3f:
                    3d:24:51:5c:ba:1e:11:6b:58:14:53:4c:ea:25:7f:
                    59:80:cb:a3:18:32:f4:d8:7c:96:ce:4b:23:d8:19:
                    2b:18:7e:77:51:87:2a:53:e0:6b:d4:7e:8d:ef:3b:
                    26:4c:e2:d3:3f:70:99:6b:ba:61:d7:14:4f:d2:aa:
                    87:1a:89:70:05:3e:e7:e9:ba:cd:bb:78:83:58:35:
                    13:d0:96:f4:7c:d5:9a:c2:1d:64:90:f4:d2:9a:8a:
                    2b:5d:73
                Exponent: 65537 (0x10001)
        X509v3 extensions:
            X509v3 Basic Constraints: 
                CA:FALSE
            Netscape Comment: 
                Easy-RSA Generated Certificate
            X509v3 Subject Key Identifier: 
                C4:FA:3C:33:BA:0D:A1:EA:A4:AF:59:A2:B1:29:A1:66:22:E2:E9:FB
            X509v3 Authority Key Identifier: 
                keyid:12:CD:60:04:D2:A0:80:9E:70:ED:C6:99:B8:7B:2C:C6:52:FD:19:A1
                DirName:/C=US/ST=OH/L=Columbus/O=VikingVPN/OU=MyOrganizationalUnit/CN=VikingVPN CA/name=EasyRSA/emailAddress=me@myhost.mydomain
                serial:CF:35:85:EE:80:BF:2A:3E

            X509v3 Extended Key Usage: 
                TLS Web Client Authentication
            X509v3 Key Usage: 
                Digital Signature
    Signature Algorithm: md5WithRSAEncryption
         52:ea:8d:4f:27:b3:8a:c3:c9:a0:eb:26:93:a3:c1:a6:6e:0f:
         4d:3e:05:e1:07:1c:f0:84:df:55:8a:15:56:06:a2:78:bf:8a:
         c8:b4:54:fc:39:f1:e3:72:cc:23:66:59:2e:70:93:ab:33:99:
         a1:88:c8:fb:2a:ce:fe:ec:58:8e:7e:8a:fd:5b:a4:11:1a:a8:
         77:22:84:42:10:79:87:99:11:a1:54:a4:6a:b6:87:5a:57:75:
         1b:2d:b7:b3:59:5a:7c:b7:76:5d:b2:9a:78:69:b5:9f:7d:c5:
         10:01:5c:a5:9b:64:de:e1:ba:94:ab:5e:e7:18:65:df:d6:16:
         6d:94:69:7d:ae:c9:2f:6f:e6:da:53:6f:d7:93:0a:d6:b1:39:
         86:4a:16:f7:52:de:8e:25:a5:91:e3:fa:49:41:0b:3f:48:56:
         10:55:ef:5f:78:4a:bb:74:16:00:70:c1:1b:d3:aa:20:15:4c:
         0b:75:33:a0:4a:f7:f7:4d:87:6f:32:10:e0:eb:ab:4d:2e:f5:
         6e:b6:36:ff:6e:6f:8d:fd:2b:e3:f5:4c:6b:48:1a:c9:f7:6b:
         09:53:25:c2:50:99:c1:dc:d0:6c:ac:a8:9c:2b:92:c9:aa:7e:
         fa:00:2d:3c:9d:08:26:a9:ca:6a:9e:72:27:99:41:5b:0c:88:
         54:c4:94:ac:72:d5:4f:ce:47:9e:17:4e:a0:9c:22:47:0f:3a:
         17:af:d6:c6:74:a1:89:12:b4:2c:7c:5e:24:fc:73:02:dc:a2:
         45:b1:1b:c9:60:15:21:54:a6:6e:e3:a7:14:b3:48:21:4f:5b:
         b2:bb:47:a7:ba:93:64:4d:d2:10:12:19:51:14:5a:c2:38:b3:
         73:76:6d:de:23:b8:62:c5:fb:85:8f:bb:00:89:e6:4b:37:3a:
         68:95:b4:de:2a:b6:d6:05:30:e7:59:8b:a0:14:ba:16:23:75:
         37:18:4a:11:dd:aa:be:3e:76:fb:ea:0d:15:3b:90:5e:48:ce:
         c5:aa:d0:b6:57:cf:53:01:be:5f:12:e5:38:60:e8:3a:a6:6c:
         9c:33:cc:b7:fc:f6:01:9b:6a:fc:f2:8e:7f:04:2f:f1:b2:eb:
         cc:98:4d:83:10:c1:73:75:c6:50:6f:6d:65:17:18:62:b6:dc:
         b8:42:12:24:fc:1b:04:55:57:4e:3c:d8:43:31:ed:0c:01:14:
         a9:e9:89:70:f2:9b:b4:71:d5:eb:0f:4a:21:34:a9:de:25:13:
         53:6f:e0:d8:6f:48:61:14:f4:1b:de:dd:d3:32:22:51:75:8b:
         31:ad:8a:84:86:62:c5:bb:f7:bb:e7:4a:0c:8a:0e:60:6e:0e:
         ff:73:01:36:d4:01:d2:25
-----BEGIN CERTIFICATE-----
MIIGrDCCBJSgAwIBAgICEBEwDQYJKoZIhvcNAQEEBQAwgawxCzAJBgNVBAYTAlVT
MQswCQYDVQQIEwJPSDERMA8GA1UEBxMIQ29sdW1idXMxEjAQBgNVBAoTCVZpa2lu
Z1ZQTjEdMBsGA1UECxMUTXlPcmdhbml6YXRpb25hbFVuaXQxFTATBgNVBAMTDFZp
a2luZ1ZQTiBDQTEQMA4GA1UEKRMHRWFzeVJTQTEhMB8GCSqGSIb3DQEJARYSbWVA
bXlob3N0Lm15ZG9tYWluMB4XDTE1MDExMzIwMzUxMloXDTI1MDExMDIwMzUxMlow
HjEcMBoGA1UEAxMTQ2xpZW50ODAxQ2VydGM2MmExODCCAiIwDQYJKoZIhvcNAQEB
BQADggIPADCCAgoCggIBAKmyYk8ISQZ5go6bg/SdugdobyI8BdzLUbGU+GCdLAnV
c131dVIEmQM8zn714nHgIn08lrtACVBde30hmNSpk5H1U6Lkf9ErD/GCEa+k+d4M
R2rzu//mHvkPQyge2HF+1dHsLHgMSgcqcH2rRoArO97moGXLYSVcmdkWQig626fI
zv8z30KgDvx7kwWeOEO6ZkF3grZjuQP7W/pwdeTIk9wM6U3ksx3DU6GBEBHR8g0H
4XwRVvjUrTVjLogsAN0Q7lgona/pkDGzwyC+DfhISfYrVVaaGh5g8P9MZ6k/q9wR
wPEFKPEfG2TT6yxoUyFKfsQ9hrfjjCM7f35Zui+yteh3iFRKJoWiCVLHLM2cSoC1
yjIMCjkcYFSQqmbBCDC5qbs/E61grjTRBGnSeSMoxbXOKcHLctpFa/NyZTrHhnb4
tb473vGv8G09ibLZlwkSZBDlFAbyGTcSZ4Ca0FVgazaI+iHujTXZqV4pxKn9gdgq
u+b5noWSs1PdSW4eGHEj8kGGPnii+GTgrbERVLLZKtI0Z9+YVbizb2xTCBQb8XLT
8ng/PSRRXLoeEWtYFFNM6iV/WYDLoxgy9Nh8ls5LI9gZKxh+d1GHKlPga9R+je87
Jkzi0z9wmWu6YdcUT9KqhxqJcAU+5+m6zbt4g1g1E9CW9HzVmsIdZJD00pqKK11z
AgMBAAGjggFjMIIBXzAJBgNVHRMEAjAAMC0GCWCGSAGG+EIBDQQgFh5FYXN5LVJT
QSBHZW5lcmF0ZWQgQ2VydGlmaWNhdGUwHQYDVR0OBBYEFMT6PDO6DaHqpK9ZorEp
oWYi4un7MIHhBgNVHSMEgdkwgdaAFBLNYATSoICecO3Gmbh7LMZS/RmhoYGypIGv
MIGsMQswCQYDVQQGEwJVUzELMAkGA1UECBMCT0gxETAPBgNVBAcTCENvbHVtYnVz
MRIwEAYDVQQKEwlWaWtpbmdWUE4xHTAbBgNVBAsTFE15T3JnYW5pemF0aW9uYWxV
bml0MRUwEwYDVQQDEwxWaWtpbmdWUE4gQ0ExEDAOBgNVBCkTB0Vhc3lSU0ExITAf
BgkqhkiG9w0BCQEWEm1lQG15aG9zdC5teWRvbWFpboIJAM81he6Avyo+MBMGA1Ud
JQQMMAoGCCsGAQUFBwMCMAsGA1UdDwQEAwIHgDANBgkqhkiG9w0BAQQFAAOCAgEA
UuqNTyezisPJoOsmk6PBpm4PTT4F4Qcc8ITfVYoVVgaieL+KyLRU/Dnx43LMI2ZZ
LnCTqzOZoYjI+yrO/uxYjn6K/VukERqodyKEQhB5h5kRoVSkaraHWld1Gy23s1la
fLd2XbKaeGm1n33FEAFcpZtk3uG6lKte5xhl39YWbZRpfa7JL2/m2lNv15MK1rE5
hkoW91LejiWlkeP6SUELP0hWEFXvX3hKu3QWAHDBG9OqIBVMC3UzoEr3902HbzIQ
4OurTS71brY2/25vjf0r4/VMa0gayfdrCVMlwlCZwdzQbKyonCuSyap++gAtPJ0I
JqnKap5yJ5lBWwyIVMSUrHLVT85HnhdOoJwiRw86F6/WxnShiRK0LHxeJPxzAtyi
RbEbyWAVIVSmbuOnFLNIIU9bsrtHp7qTZE3SEBIZURRawjizc3Zt3iO4YsX7hY+7
AInmSzc6aJW03iq21gUw51mLoBS6FiN1NxhKEd2qvj52++oNFTuQXkjOxarQtlfP
UwG+XxLlOGDoOqZsnDPMt/z2AZtq/PKOfwQv8bLrzJhNgxDBc3XGUG9tZRcYYrbc
uEISJPwbBFVXTjzYQzHtDAEUqemJcPKbtHHV6w9KITSp3iUTU2/g2G9IYRT0G97d
0zIiUXWLMa2KhIZixbv3u+dKDIoOYG4O/3MBNtQB0iU=
-----END CERTIFICATE-----
