Certificate:
    Data:
        Version: 3 (0x2)
        Serial Number: 4127 (0x101f)
    Signature Algorithm: md5WithRSAEncryption
        Issuer: C=US, ST=OH, L=Columbus, O=VikingVPN, OU=MyOrganizationalUnit, CN=VikingVPN CA/name=EasyRSA/emailAddress=me@myhost.mydomain
        Validity
            Not Before: Jan 14 18:58:16 2015 GMT
            Not After : Jan 11 18:58:16 2025 GMT
        Subject: CN=Client522Certcd29d7
        Subject Public Key Info:
            Public Key Algorithm: rsaEncryption
                Public-Key: (4096 bit)
                Modulus:
                    00:a1:0e:a5:89:6e:62:bb:9d:10:85:ae:0e:0d:96:
                    dd:cc:25:b3:b4:0f:bf:49:e6:88:60:d7:c1:fb:07:
                    6f:ca:01:d6:2b:10:34:6c:77:d8:db:ad:16:94:c6:
                    8d:81:34:a7:cd:18:36:d3:17:59:1c:49:20:8a:04:
                    75:fd:26:ea:0d:a3:4b:74:20:b9:e1:d5:1e:04:0d:
                    b3:47:95:1c:e8:9d:51:a9:97:a1:6e:1e:78:54:56:
                    05:7d:1c:37:e8:67:75:6f:32:a1:94:45:e0:12:96:
                    a8:62:a2:10:fe:fd:72:c8:df:77:0a:cf:bd:05:c1:
                    2d:f2:96:1d:0b:ba:f6:26:57:8b:95:0c:71:8d:a0:
                    49:73:73:a3:80:dd:4a:e3:3f:ae:bc:b0:e0:ec:45:
                    bc:b0:f1:2d:33:24:33:eb:f5:92:1b:66:3d:3c:86:
                    11:0b:90:57:3a:56:9f:cf:31:68:09:b7:54:54:d9:
                    08:de:1c:d7:b1:e7:b9:81:13:b2:88:07:d7:e4:7c:
                    12:81:33:e6:a6:27:ee:ac:a2:29:ee:92:0b:45:df:
                    cd:42:c1:75:4b:c0:35:ce:fa:8e:28:11:ab:c4:39:
                    e3:d9:12:54:1d:0b:85:66:a7:e2:54:4e:67:f7:f9:
                    5d:02:18:2c:31:12:0a:17:0e:10:32:48:0c:20:fc:
                    fd:b7:fe:c5:4d:13:02:b3:f9:09:d6:d4:f1:a5:31:
                    f7:ea:ca:b1:28:88:38:a7:78:9f:bf:67:ca:d9:0b:
                    d1:ed:01:fe:27:43:dd:b8:ac:cd:27:c5:f4:0a:17:
                    0d:7c:45:ed:ab:6e:b5:fb:02:65:de:8e:2f:c7:9f:
                    7e:e0:ed:f4:7e:58:76:34:2f:a7:c8:e6:d5:dc:a8:
                    ea:c8:f3:6f:97:b9:f4:ea:66:d8:4b:3d:fe:0f:d6:
                    fd:a3:f8:17:c3:71:07:eb:86:df:9c:0d:5e:c6:bd:
                    9e:58:33:21:d0:4d:b5:d6:9f:e7:e1:49:c5:31:2b:
                    90:80:99:3e:bb:38:c8:76:95:7a:ed:3a:d0:d8:2f:
                    52:9b:04:85:aa:4a:ad:5d:65:e7:0c:26:47:5a:71:
                    90:80:28:31:6d:17:3e:ff:76:bd:7d:f8:b6:0a:a1:
                    20:66:4e:be:08:20:c2:fd:42:28:ac:2d:df:de:5a:
                    3d:56:01:51:56:a5:24:25:7f:6d:d3:12:86:a3:48:
                    25:02:61:d4:ca:a2:01:ad:f4:44:f2:38:17:2e:02:
                    7e:5d:a2:64:3b:a1:4a:0b:44:97:2c:4b:99:50:51:
                    4d:d2:45:51:2e:dc:b2:b6:3c:b8:97:44:7f:04:42:
                    04:42:7d:0c:c1:4c:91:51:fa:72:7d:f9:dd:50:88:
                    cb:4a:c1
                Exponent: 65537 (0x10001)
        X509v3 extensions:
            X509v3 Basic Constraints: 
                CA:FALSE
            Netscape Comment: 
                Easy-RSA Generated Certificate
            X509v3 Subject Key Identifier: 
                08:4F:CB:F6:54:5D:50:15:C8:24:56:54:A1:C1:72:B3:B5:13:04:0E
            X509v3 Authority Key Identifier: 
                keyid:12:CD:60:04:D2:A0:80:9E:70:ED:C6:99:B8:7B:2C:C6:52:FD:19:A1
                DirName:/C=US/ST=OH/L=Columbus/O=VikingVPN/OU=MyOrganizationalUnit/CN=VikingVPN CA/name=EasyRSA/emailAddress=me@myhost.mydomain
                serial:CF:35:85:EE:80:BF:2A:3E

            X509v3 Extended Key Usage: 
                TLS Web Client Authentication
            X509v3 Key Usage: 
                Digital Signature
    Signature Algorithm: md5WithRSAEncryption
         3e:d9:c4:cf:07:ac:ad:80:86:f4:7a:9a:ad:c0:93:e9:b6:34:
         37:f6:26:ff:f4:35:1b:22:62:c8:19:2e:42:56:c7:9e:48:6c:
         04:45:fe:1c:5f:90:4c:64:fa:90:a7:fa:f4:c7:78:0e:51:35:
         8d:d0:ab:f3:25:5c:f9:0a:a2:ec:8a:6e:92:7f:56:7b:e6:94:
         53:9c:78:53:16:4b:1b:15:3d:8d:1c:69:6c:bb:7e:48:7c:6e:
         e4:13:02:c5:98:2d:66:b1:97:75:f2:f3:b8:88:7e:2a:5c:69:
         28:c6:55:44:53:1a:5f:5c:1b:c5:23:ef:98:98:5a:7a:71:e5:
         0b:18:74:e3:b4:73:79:09:19:e0:99:fd:e4:1f:ad:94:67:bc:
         2a:e5:6a:f9:b1:8b:39:4a:e0:be:e3:d7:79:32:ae:fb:2e:bb:
         bd:0b:ff:9c:32:e8:0e:ac:f1:72:4d:2d:a7:d7:5a:01:6e:b2:
         69:be:92:39:00:7b:61:68:45:78:72:75:6c:da:e1:91:01:b0:
         0f:50:73:71:3c:b8:30:f0:e5:74:bc:55:3a:bf:50:5b:a9:16:
         74:82:33:8a:4c:1f:d6:52:36:12:ec:bc:df:e0:2a:42:98:60:
         85:8c:32:d8:f0:45:3c:dc:34:0d:e7:2f:2c:84:91:9b:24:59:
         76:ba:b5:8f:16:49:ca:78:ba:26:1c:08:ff:c7:af:09:01:66:
         57:d5:3d:22:a4:1b:e2:c3:d7:48:c5:ea:1e:dc:a6:dc:e0:ad:
         b5:43:fc:70:35:45:2b:f8:85:b6:d3:0d:b2:8b:c3:3d:23:da:
         75:3b:42:d7:10:d1:10:f6:68:2e:39:d1:56:8a:a9:82:44:16:
         c2:46:88:5a:97:50:e5:73:17:83:fc:75:e4:b0:c9:f9:5c:bf:
         1f:30:5b:af:3d:e1:ce:be:08:ea:d7:ed:b1:38:9f:67:0a:99:
         cf:39:d8:00:bd:3e:22:10:a2:2b:08:6d:5d:96:1c:3b:cc:16:
         bd:b9:db:01:c4:4f:4d:a8:ec:c4:82:6c:0e:af:54:34:87:f3:
         1d:71:71:4b:72:0b:71:b2:06:84:83:04:af:b8:7b:78:36:4f:
         77:a2:63:25:f1:3d:44:cd:49:cb:b7:3b:df:cd:4a:65:1d:98:
         7f:5d:35:40:e9:72:ef:9c:07:8a:78:de:2e:cc:80:a5:9a:58:
         6c:ae:65:dd:19:93:0a:31:49:73:0b:80:e4:f7:5e:70:e7:b1:
         fe:4f:ba:de:4d:76:8f:bf:dd:10:59:a2:05:ae:3b:75:32:0b:
         84:3f:8f:1a:67:da:a4:2e:da:35:8a:de:7a:ff:6b:e3:41:84:
         88:29:ef:f1:c2:8d:8c:41
-----BEGIN CERTIFICATE-----
MIIGrDCCBJSgAwIBAgICEB8wDQYJKoZIhvcNAQEEBQAwgawxCzAJBgNVBAYTAlVT
MQswCQYDVQQIEwJPSDERMA8GA1UEBxMIQ29sdW1idXMxEjAQBgNVBAoTCVZpa2lu
Z1ZQTjEdMBsGA1UECxMUTXlPcmdhbml6YXRpb25hbFVuaXQxFTATBgNVBAMTDFZp
a2luZ1ZQTiBDQTEQMA4GA1UEKRMHRWFzeVJTQTEhMB8GCSqGSIb3DQEJARYSbWVA
bXlob3N0Lm15ZG9tYWluMB4XDTE1MDExNDE4NTgxNloXDTI1MDExMTE4NTgxNlow
HjEcMBoGA1UEAxMTQ2xpZW50NTIyQ2VydGNkMjlkNzCCAiIwDQYJKoZIhvcNAQEB
BQADggIPADCCAgoCggIBAKEOpYluYrudEIWuDg2W3cwls7QPv0nmiGDXwfsHb8oB
1isQNGx32NutFpTGjYE0p80YNtMXWRxJIIoEdf0m6g2jS3QgueHVHgQNs0eVHOid
UamXoW4eeFRWBX0cN+hndW8yoZRF4BKWqGKiEP79csjfdwrPvQXBLfKWHQu69iZX
i5UMcY2gSXNzo4DdSuM/rryw4OxFvLDxLTMkM+v1khtmPTyGEQuQVzpWn88xaAm3
VFTZCN4c17HnuYETsogH1+R8EoEz5qYn7qyiKe6SC0XfzULBdUvANc76jigRq8Q5
49kSVB0LhWan4lROZ/f5XQIYLDESChcOEDJIDCD8/bf+xU0TArP5CdbU8aUx9+rK
sSiIOKd4n79nytkL0e0B/idD3biszSfF9AoXDXxF7atutfsCZd6OL8effuDt9H5Y
djQvp8jm1dyo6sjzb5e59Opm2Es9/g/W/aP4F8NxB+uG35wNXsa9nlgzIdBNtdaf
5+FJxTErkICZPrs4yHaVeu060NgvUpsEhapKrV1l5wwmR1pxkIAoMW0XPv92vX34
tgqhIGZOvgggwv1CKKwt395aPVYBUValJCV/bdMShqNIJQJh1MqiAa30RPI4Fy4C
fl2iZDuhSgtElyxLmVBRTdJFUS7csrY8uJdEfwRCBEJ9DMFMkVH6cn353VCIy0rB
AgMBAAGjggFjMIIBXzAJBgNVHRMEAjAAMC0GCWCGSAGG+EIBDQQgFh5FYXN5LVJT
QSBHZW5lcmF0ZWQgQ2VydGlmaWNhdGUwHQYDVR0OBBYEFAhPy/ZUXVAVyCRWVKHB
crO1EwQOMIHhBgNVHSMEgdkwgdaAFBLNYATSoICecO3Gmbh7LMZS/RmhoYGypIGv
MIGsMQswCQYDVQQGEwJVUzELMAkGA1UECBMCT0gxETAPBgNVBAcTCENvbHVtYnVz
MRIwEAYDVQQKEwlWaWtpbmdWUE4xHTAbBgNVBAsTFE15T3JnYW5pemF0aW9uYWxV
bml0MRUwEwYDVQQDEwxWaWtpbmdWUE4gQ0ExEDAOBgNVBCkTB0Vhc3lSU0ExITAf
BgkqhkiG9w0BCQEWEm1lQG15aG9zdC5teWRvbWFpboIJAM81he6Avyo+MBMGA1Ud
JQQMMAoGCCsGAQUFBwMCMAsGA1UdDwQEAwIHgDANBgkqhkiG9w0BAQQFAAOCAgEA
PtnEzwesrYCG9HqarcCT6bY0N/Ym//Q1GyJiyBkuQlbHnkhsBEX+HF+QTGT6kKf6
9Md4DlE1jdCr8yVc+Qqi7Ipukn9We+aUU5x4UxZLGxU9jRxpbLt+SHxu5BMCxZgt
ZrGXdfLzuIh+KlxpKMZVRFMaX1wbxSPvmJhaenHlCxh047RzeQkZ4Jn95B+tlGe8
KuVq+bGLOUrgvuPXeTKu+y67vQv/nDLoDqzxck0tp9daAW6yab6SOQB7YWhFeHJ1
bNrhkQGwD1BzcTy4MPDldLxVOr9QW6kWdIIzikwf1lI2Euy83+AqQphghYwy2PBF
PNw0DecvLISRmyRZdrq1jxZJyni6JhwI/8evCQFmV9U9IqQb4sPXSMXqHtym3OCt
tUP8cDVFK/iFttMNsovDPSPadTtC1xDREPZoLjnRVoqpgkQWwkaIWpdQ5XMXg/x1
5LDJ+Vy/HzBbrz3hzr4I6tftsTifZwqZzznYAL0+IhCiKwhtXZYcO8wWvbnbAcRP
TajsxIJsDq9UNIfzHXFxS3ILcbIGhIMEr7h7eDZPd6JjJfE9RM1Jy7c7381KZR2Y
f101QOly75wHinjeLsyApZpYbK5l3RmTCjFJcwuA5PdecOex/k+63k12j7/dEFmi
Ba47dTILhD+PGmfapC7aNYreev9r40GEiCnv8cKNjEE=
-----END CERTIFICATE-----
