Certificate:
    Data:
        Version: 3 (0x2)
        Serial Number: 4145 (0x1031)
    Signature Algorithm: md5WithRSAEncryption
        Issuer: C=US, ST=OH, L=Columbus, O=VikingVPN, OU=MyOrganizationalUnit, CN=VikingVPN CA/name=EasyRSA/emailAddress=me@myhost.mydomain
        Validity
            Not Before: Jan 17 02:00:15 2015 GMT
            Not After : Jan 14 02:00:15 2025 GMT
        Subject: CN=Client1367Certae2587
        Subject Public Key Info:
            Public Key Algorithm: rsaEncryption
                Public-Key: (4096 bit)
                Modulus:
                    00:bc:21:2e:12:ff:d5:ca:a0:cf:a6:33:2a:c0:d1:
                    f8:7f:87:28:57:6a:e9:e8:8e:4b:b2:6b:c1:c3:67:
                    01:6b:02:56:a6:59:05:da:27:f1:06:01:82:61:0a:
                    f8:ef:0f:4e:b4:c3:4d:eb:e1:eb:d9:f7:ad:ad:4c:
                    b0:1d:83:02:68:1a:d1:f0:db:33:08:ab:ad:5b:db:
                    b4:f2:24:ab:1c:25:54:80:41:8c:af:62:74:20:bf:
                    4e:59:e6:38:54:8a:45:41:c4:23:a3:7a:00:15:9b:
                    cb:d0:65:8a:34:49:7d:20:f6:17:e0:9c:22:9a:95:
                    bc:43:f1:c0:65:5b:bd:7c:2c:eb:d3:68:3e:ad:6f:
                    b0:03:28:bc:a3:b4:f3:4a:2d:82:05:8c:bb:fa:f2:
                    53:6c:31:2d:fb:1f:61:66:68:40:00:61:dd:f7:11:
                    91:c8:1b:6b:d0:41:fe:19:6e:c6:11:cc:ce:83:a3:
                    2c:0b:69:5a:d8:1d:3e:48:69:ca:0d:2d:4b:ec:c3:
                    6a:48:2f:49:d5:b4:f9:f7:08:3c:2d:f8:9b:f1:88:
                    dc:3b:8c:8f:9e:b0:75:58:41:1d:72:c9:fa:fe:04:
                    b6:aa:32:d9:c1:82:9a:0e:18:d8:cb:97:74:69:a2:
                    52:d4:f8:4b:e0:f5:b4:6c:40:22:07:9c:2a:81:ea:
                    6e:bf:d3:55:0a:95:47:77:a3:ea:1f:6e:b9:43:54:
                    ca:45:50:62:0f:6c:a2:64:4a:1b:af:bd:15:9d:af:
                    74:4c:24:94:16:b6:bb:c8:14:61:7f:3b:53:62:cc:
                    f0:77:a9:03:3e:b3:b6:ab:8c:1e:79:2e:63:2a:91:
                    ad:e2:0f:04:d7:ea:64:e2:48:ce:47:bb:cb:19:6e:
                    67:97:f2:95:48:2d:95:70:28:09:dc:d7:45:50:7e:
                    11:a2:91:67:c0:51:40:07:b9:b5:2d:f3:5e:af:55:
                    e0:92:7a:ba:38:39:3a:8a:fc:49:2d:e4:71:35:26:
                    9d:b2:b0:41:bc:da:4a:22:6c:3f:57:ca:b4:a7:58:
                    c4:ac:f4:8c:51:ef:b9:e0:d5:67:f8:78:86:80:a5:
                    ee:c8:4f:00:48:65:f4:b9:59:8a:d6:65:c3:68:ff:
                    18:5e:25:f6:a0:c3:64:8c:9e:a8:b3:f8:ca:46:af:
                    db:a3:a1:48:12:07:8b:db:4c:23:51:c8:70:87:d1:
                    92:3d:96:2a:13:8b:8d:4b:4a:d3:92:94:2f:b3:6a:
                    a5:d0:64:89:43:d9:96:53:d1:e3:3c:a5:89:2b:a4:
                    3a:46:f2:3a:75:d7:8e:05:7c:2c:9e:8b:c7:8b:7d:
                    a1:e3:2a:f3:39:95:74:ab:d8:8c:91:3c:67:e6:e4:
                    29:63:e9
                Exponent: 65537 (0x10001)
        X509v3 extensions:
            X509v3 Basic Constraints: 
                CA:FALSE
            Netscape Comment: 
                Easy-RSA Generated Certificate
            X509v3 Subject Key Identifier: 
                65:08:19:D7:52:D7:8F:D7:8E:F4:FC:19:2D:06:FD:13:80:ED:D1:39
            X509v3 Authority Key Identifier: 
                keyid:12:CD:60:04:D2:A0:80:9E:70:ED:C6:99:B8:7B:2C:C6:52:FD:19:A1
                DirName:/C=US/ST=OH/L=Columbus/O=VikingVPN/OU=MyOrganizationalUnit/CN=VikingVPN CA/name=EasyRSA/emailAddress=me@myhost.mydomain
                serial:CF:35:85:EE:80:BF:2A:3E

            X509v3 Extended Key Usage: 
                TLS Web Client Authentication
            X509v3 Key Usage: 
                Digital Signature
    Signature Algorithm: md5WithRSAEncryption
         26:61:e0:5f:4a:bf:0f:a7:54:ec:04:68:52:9f:28:bc:02:2e:
         79:07:42:1d:14:b6:76:06:1c:69:ba:c5:f1:bf:73:99:1a:6a:
         0e:66:b5:bc:32:89:73:c6:74:8a:91:5e:2a:85:c1:94:a3:a8:
         06:f3:c4:66:f4:19:30:77:3d:18:6e:00:85:b4:69:8a:33:13:
         37:66:74:e5:ad:18:c2:03:d0:41:4b:00:1b:a0:f2:d3:72:bf:
         ef:63:cd:8b:76:40:bf:3d:81:c6:d0:07:19:1b:a4:90:1c:46:
         36:28:bc:0f:a7:b3:eb:8f:b6:70:e0:b0:2b:cb:f8:b7:75:aa:
         1d:c2:ba:e3:65:3e:61:f0:ff:3f:52:54:dc:0c:d0:76:e8:09:
         6c:a2:c1:95:9b:21:84:02:7f:57:bb:04:db:fe:e4:49:7e:c1:
         27:54:7b:dc:ed:bc:54:49:81:1b:52:ce:0d:cd:e2:63:7a:08:
         7b:44:c5:0b:0f:ca:12:fd:88:cf:10:26:13:06:3b:55:74:0f:
         30:d5:d8:00:6f:48:85:44:a9:58:48:6b:a0:29:82:52:28:1b:
         a3:19:68:3f:9b:97:97:d2:26:88:e7:8e:f6:09:d4:1e:28:ff:
         f3:70:ea:57:5a:92:f0:03:98:64:b8:8d:e0:ff:c9:16:39:f9:
         44:a9:c8:f5:68:f3:06:3e:03:19:9f:68:01:0c:ed:22:bf:3f:
         53:54:34:5c:36:29:1b:27:16:34:58:47:15:e4:3e:99:d3:a2:
         ed:43:87:33:f5:75:41:ab:64:80:6a:87:0e:2d:2f:da:95:00:
         fc:9e:38:29:15:f3:da:c1:9f:90:ff:27:25:bd:98:d4:45:7f:
         62:9d:e9:53:da:72:02:e6:ab:2f:e9:56:b8:3b:05:6f:62:2c:
         af:49:67:5a:9b:81:90:ed:0d:fb:90:66:48:25:f8:4f:4c:31:
         9c:6c:44:f5:0d:16:cd:2f:b1:e6:ed:80:2b:8e:f3:e2:a4:bd:
         e0:4b:21:11:8a:53:24:01:70:39:f6:1f:da:b0:df:df:d4:2f:
         51:72:28:a1:a1:09:d9:37:b4:fa:9b:e8:b2:be:08:6a:2e:df:
         b8:b0:2c:77:69:6c:03:09:39:d7:b7:e3:9d:78:06:45:d7:6c:
         ad:59:2f:67:88:b0:45:38:5c:6d:89:22:e4:24:bc:9c:2b:db:
         f0:21:fc:f8:f7:93:97:2d:aa:23:51:6a:a3:28:1b:eb:bd:30:
         05:bc:b5:88:a1:9a:9c:a4:bb:7f:67:31:92:28:29:e9:90:22:
         57:c6:d2:bf:b4:c1:9c:f6:3b:d3:c6:64:3a:31:15:e7:da:53:
         b8:96:70:6b:06:4e:8f:61
-----BEGIN CERTIFICATE-----
MIIGrTCCBJWgAwIBAgICEDEwDQYJKoZIhvcNAQEEBQAwgawxCzAJBgNVBAYTAlVT
MQswCQYDVQQIEwJPSDERMA8GA1UEBxMIQ29sdW1idXMxEjAQBgNVBAoTCVZpa2lu
Z1ZQTjEdMBsGA1UECxMUTXlPcmdhbml6YXRpb25hbFVuaXQxFTATBgNVBAMTDFZp
a2luZ1ZQTiBDQTEQMA4GA1UEKRMHRWFzeVJTQTEhMB8GCSqGSIb3DQEJARYSbWVA
bXlob3N0Lm15ZG9tYWluMB4XDTE1MDExNzAyMDAxNVoXDTI1MDExNDAyMDAxNVow
HzEdMBsGA1UEAxMUQ2xpZW50MTM2N0NlcnRhZTI1ODcwggIiMA0GCSqGSIb3DQEB
AQUAA4ICDwAwggIKAoICAQC8IS4S/9XKoM+mMyrA0fh/hyhXaunojkuya8HDZwFr
AlamWQXaJ/EGAYJhCvjvD060w03r4evZ962tTLAdgwJoGtHw2zMIq61b27TyJKsc
JVSAQYyvYnQgv05Z5jhUikVBxCOjegAVm8vQZYo0SX0g9hfgnCKalbxD8cBlW718
LOvTaD6tb7ADKLyjtPNKLYIFjLv68lNsMS37H2FmaEAAYd33EZHIG2vQQf4ZbsYR
zM6DoywLaVrYHT5IacoNLUvsw2pIL0nVtPn3CDwt+JvxiNw7jI+esHVYQR1yyfr+
BLaqMtnBgpoOGNjLl3RpolLU+Evg9bRsQCIHnCqB6m6/01UKlUd3o+ofbrlDVMpF
UGIPbKJkShuvvRWdr3RMJJQWtrvIFGF/O1NizPB3qQM+s7arjB55LmMqka3iDwTX
6mTiSM5Hu8sZbmeX8pVILZVwKAnc10VQfhGikWfAUUAHubUt816vVeCSero4OTqK
/Ekt5HE1Jp2ysEG82koibD9XyrSnWMSs9IxR77ng1Wf4eIaApe7ITwBIZfS5WYrW
ZcNo/xheJfagw2SMnqiz+MpGr9ujoUgSB4vbTCNRyHCH0ZI9lioTi41LStOSlC+z
aqXQZIlD2ZZT0eM8pYkrpDpG8jp1144FfCyei8eLfaHjKvM5lXSr2IyRPGfm5Clj
6QIDAQABo4IBYzCCAV8wCQYDVR0TBAIwADAtBglghkgBhvhCAQ0EIBYeRWFzeS1S
U0EgR2VuZXJhdGVkIENlcnRpZmljYXRlMB0GA1UdDgQWBBRlCBnXUteP1470/Bkt
Bv0TgO3ROTCB4QYDVR0jBIHZMIHWgBQSzWAE0qCAnnDtxpm4eyzGUv0ZoaGBsqSB
rzCBrDELMAkGA1UEBhMCVVMxCzAJBgNVBAgTAk9IMREwDwYDVQQHEwhDb2x1bWJ1
czESMBAGA1UEChMJVmlraW5nVlBOMR0wGwYDVQQLExRNeU9yZ2FuaXphdGlvbmFs
VW5pdDEVMBMGA1UEAxMMVmlraW5nVlBOIENBMRAwDgYDVQQpEwdFYXN5UlNBMSEw
HwYJKoZIhvcNAQkBFhJtZUBteWhvc3QubXlkb21haW6CCQDPNYXugL8qPjATBgNV
HSUEDDAKBggrBgEFBQcDAjALBgNVHQ8EBAMCB4AwDQYJKoZIhvcNAQEEBQADggIB
ACZh4F9Kvw+nVOwEaFKfKLwCLnkHQh0UtnYGHGm6xfG/c5kaag5mtbwyiXPGdIqR
XiqFwZSjqAbzxGb0GTB3PRhuAIW0aYozEzdmdOWtGMID0EFLABug8tNyv+9jzYt2
QL89gcbQBxkbpJAcRjYovA+ns+uPtnDgsCvL+Ld1qh3CuuNlPmHw/z9SVNwM0Hbo
CWyiwZWbIYQCf1e7BNv+5El+wSdUe9ztvFRJgRtSzg3N4mN6CHtExQsPyhL9iM8Q
JhMGO1V0DzDV2ABvSIVEqVhIa6ApglIoG6MZaD+bl5fSJojnjvYJ1B4o//Nw6lda
kvADmGS4jeD/yRY5+USpyPVo8wY+AxmfaAEM7SK/P1NUNFw2KRsnFjRYRxXkPpnT
ou1DhzP1dUGrZIBqhw4tL9qVAPyeOCkV89rBn5D/JyW9mNRFf2Kd6VPacgLmqy/p
Vrg7BW9iLK9JZ1qbgZDtDfuQZkgl+E9MMZxsRPUNFs0vsebtgCuO8+KkveBLIRGK
UyQBcDn2H9qw39/UL1FyKKGhCdk3tPqb6LK+CGou37iwLHdpbAMJOde34514BkXX
bK1ZL2eIsEU4XG2JIuQkvJwr2/Ah/Pj3k5ctqiNRaqMoG+u9MAW8tYihmpyku39n
MZIoKemQIlfG0r+0wZz2O9PGZDoxFefaU7iWcGsGTo9h
-----END CERTIFICATE-----
