Certificate:
    Data:
        Version: 3 (0x2)
        Serial Number: 4146 (0x1032)
    Signature Algorithm: md5WithRSAEncryption
        Issuer: C=US, ST=OH, L=Columbus, O=VikingVPN, OU=MyOrganizationalUnit, CN=VikingVPN CA/name=EasyRSA/emailAddress=me@myhost.mydomain
        Validity
            Not Before: Jan 17 03:03:55 2015 GMT
            Not After : Jan 14 03:03:55 2025 GMT
        Subject: CN=Client276Cert434d47
        Subject Public Key Info:
            Public Key Algorithm: rsaEncryption
                Public-Key: (4096 bit)
                Modulus:
                    00:c6:78:de:1e:f9:55:66:4b:3d:c8:09:d5:9e:5a:
                    c8:58:45:57:ba:6e:c7:7d:83:35:62:de:95:87:a8:
                    65:38:25:af:22:69:34:3a:28:3a:91:97:fe:ff:59:
                    fa:be:07:59:8a:a6:00:2c:c4:26:d2:bf:0f:a1:45:
                    81:21:3a:59:0f:26:82:9c:e9:14:aa:9b:12:5e:4c:
                    43:5e:90:2c:a0:76:d6:88:2e:53:bf:a2:dc:4a:05:
                    32:9e:04:5c:16:76:b5:18:7e:9f:ab:19:e4:84:e3:
                    1b:47:3a:ab:ec:05:7c:32:67:e4:9b:0f:9a:a3:8a:
                    c4:a3:c8:ee:9b:df:03:82:b6:98:12:f3:fe:e2:7b:
                    b4:29:85:f1:86:34:33:65:fd:14:f7:53:37:33:a2:
                    7b:18:19:c8:ad:ae:34:e8:89:4a:32:2f:c6:f6:65:
                    09:53:e4:27:0e:38:01:c5:0d:41:0d:e5:35:e1:01:
                    a0:dd:d5:36:c3:ce:15:b7:23:f7:aa:90:94:38:52:
                    e6:a9:d7:42:13:78:5c:db:e8:4f:37:45:ea:1b:4c:
                    c5:e8:1e:a4:cd:0b:3a:42:ae:ad:b7:56:1c:0f:7d:
                    6d:4c:b7:6f:bf:fb:38:71:d7:85:c8:15:17:f7:b9:
                    a6:47:e6:8b:b8:e5:77:27:31:36:16:92:98:58:38:
                    b5:bc:cd:8d:6b:3d:d5:92:fc:fa:63:28:b5:1a:a7:
                    6d:cc:14:77:2d:7e:e7:ec:14:06:fb:6f:85:d7:9f:
                    1e:4a:c4:b5:86:be:30:79:e0:24:4a:4d:74:30:64:
                    7d:41:b2:4b:48:0c:69:b5:3e:a8:94:7b:3a:46:5b:
                    59:0e:0d:d4:e7:b3:fd:80:7c:8a:56:bf:ae:21:c9:
                    f6:17:c4:3a:a3:c6:c1:7e:60:c2:72:01:53:ed:66:
                    95:43:3d:43:37:88:a5:16:06:f1:1f:cb:ae:9f:50:
                    59:63:32:02:8a:10:59:c3:b8:46:44:fe:58:72:fe:
                    ee:bb:15:af:af:82:fc:cc:90:1b:7c:52:37:49:0e:
                    d6:1d:39:d3:bb:a7:42:d1:bf:61:82:51:e4:92:58:
                    a6:06:37:2e:c8:32:af:00:95:2a:c1:1e:44:71:34:
                    d4:36:0e:f9:28:05:cf:cd:b6:f4:f7:c4:04:b7:44:
                    fb:ac:b2:d0:05:ee:4c:e4:5b:06:ce:1d:76:27:15:
                    26:c8:3f:31:8a:4f:eb:9f:28:17:e1:66:02:c3:b5:
                    c6:15:52:d3:08:5a:a8:23:bd:7b:10:f9:84:c2:e4:
                    a7:bf:43:5f:97:57:01:d9:e1:ba:ea:7c:3e:0f:ac:
                    56:b3:4b:3a:e4:73:c4:b2:8f:cb:43:62:db:7b:86:
                    17:67:bf
                Exponent: 65537 (0x10001)
        X509v3 extensions:
            X509v3 Basic Constraints: 
                CA:FALSE
            Netscape Comment: 
                Easy-RSA Generated Certificate
            X509v3 Subject Key Identifier: 
                2F:98:E4:B9:12:5A:11:CB:18:6B:5A:EA:18:50:86:DD:D5:84:E3:EB
            X509v3 Authority Key Identifier: 
                keyid:12:CD:60:04:D2:A0:80:9E:70:ED:C6:99:B8:7B:2C:C6:52:FD:19:A1
                DirName:/C=US/ST=OH/L=Columbus/O=VikingVPN/OU=MyOrganizationalUnit/CN=VikingVPN CA/name=EasyRSA/emailAddress=me@myhost.mydomain
                serial:CF:35:85:EE:80:BF:2A:3E

            X509v3 Extended Key Usage: 
                TLS Web Client Authentication
            X509v3 Key Usage: 
                Digital Signature
    Signature Algorithm: md5WithRSAEncryption
         7e:d7:0c:22:72:80:0b:1f:26:67:40:e0:03:8f:e2:ac:80:db:
         4c:22:ab:3f:b4:6f:a8:a7:cb:96:7e:35:8a:61:cc:0a:b8:02:
         cf:2e:1c:4f:c3:8c:7a:2e:4c:5a:61:9b:bf:a2:57:8c:a5:08:
         70:d1:4e:21:47:a1:57:71:14:f7:5f:8b:40:9d:51:8f:83:b5:
         db:10:af:31:d7:f2:16:a2:12:97:d2:d5:22:f5:32:53:8c:ff:
         ef:eb:62:b3:a3:8d:01:e9:cc:69:03:1c:fe:52:33:0d:fd:f1:
         c2:93:e8:f7:8f:2a:46:e8:d6:0b:f8:61:88:e1:a1:52:db:83:
         2a:23:a7:4e:0f:78:ce:8e:df:9b:f9:27:31:dc:ab:c6:2d:53:
         c8:30:31:be:84:16:e1:c5:69:3e:4c:e2:32:dd:66:48:24:9d:
         36:c4:0a:bc:45:a5:ab:8a:00:56:b4:53:95:c7:15:de:e4:c7:
         64:7f:bf:3b:4b:78:c9:bd:b9:02:6e:b6:3b:a8:2f:f7:89:cd:
         9f:a7:ac:d2:9f:0c:f4:d0:ff:26:73:0a:65:c9:67:ba:1a:b4:
         33:8c:8c:5d:aa:7b:1f:11:c8:78:96:80:98:99:00:7f:4e:55:
         e5:94:a8:4e:13:19:a5:bd:46:4c:0c:1a:12:67:f0:21:ba:3e:
         e8:ed:86:41:50:2d:7f:30:9d:a6:e1:f3:06:f0:ba:ae:f0:f7:
         07:50:b2:04:10:d9:b1:5b:5f:79:30:17:1a:62:88:04:ba:1f:
         3b:10:0c:4f:bc:34:26:0c:f5:70:b0:72:db:4f:09:fc:1d:1f:
         6d:fa:7f:db:1a:a6:2b:3d:84:04:b2:a9:bb:23:21:04:8f:16:
         48:56:fd:cf:7c:37:8b:82:e2:83:b8:5a:39:fa:c2:68:39:f9:
         9d:8a:d3:a7:b4:71:f2:e2:4e:48:31:3b:37:b4:3d:b6:5b:0c:
         77:b9:95:94:0c:28:ea:71:60:9d:79:af:51:5c:08:2c:aa:ed:
         fd:79:78:1c:1d:c0:b4:a7:5a:23:64:19:e9:e3:4a:7e:68:2f:
         e0:64:f3:85:2d:32:49:ed:29:0c:78:74:ab:e1:ee:c4:7d:e1:
         90:e7:b9:e1:6b:04:d0:3b:2c:32:a6:ff:a1:38:8e:98:cb:72:
         7b:27:89:98:02:df:14:76:34:d9:d7:32:6b:d5:10:86:3c:07:
         06:4a:2b:f1:8f:26:e3:e3:a3:73:07:17:85:6b:6b:f8:57:5f:
         c1:96:ec:81:96:24:74:4a:6b:15:27:33:a1:fc:2d:3d:5f:4f:
         e2:b2:33:c4:fe:1b:aa:c9:77:ca:53:2e:60:8f:66:33:d6:af:
         8a:91:bf:df:75:0e:f9:a2
-----BEGIN CERTIFICATE-----
MIIGrDCCBJSgAwIBAgICEDIwDQYJKoZIhvcNAQEEBQAwgawxCzAJBgNVBAYTAlVT
MQswCQYDVQQIEwJPSDERMA8GA1UEBxMIQ29sdW1idXMxEjAQBgNVBAoTCVZpa2lu
Z1ZQTjEdMBsGA1UECxMUTXlPcmdhbml6YXRpb25hbFVuaXQxFTATBgNVBAMTDFZp
a2luZ1ZQTiBDQTEQMA4GA1UEKRMHRWFzeVJTQTEhMB8GCSqGSIb3DQEJARYSbWVA
bXlob3N0Lm15ZG9tYWluMB4XDTE1MDExNzAzMDM1NVoXDTI1MDExNDAzMDM1NVow
HjEcMBoGA1UEAxMTQ2xpZW50Mjc2Q2VydDQzNGQ0NzCCAiIwDQYJKoZIhvcNAQEB
BQADggIPADCCAgoCggIBAMZ43h75VWZLPcgJ1Z5ayFhFV7pux32DNWLelYeoZTgl
ryJpNDooOpGX/v9Z+r4HWYqmACzEJtK/D6FFgSE6WQ8mgpzpFKqbEl5MQ16QLKB2
1oguU7+i3EoFMp4EXBZ2tRh+n6sZ5ITjG0c6q+wFfDJn5JsPmqOKxKPI7pvfA4K2
mBLz/uJ7tCmF8YY0M2X9FPdTNzOiexgZyK2uNOiJSjIvxvZlCVPkJw44AcUNQQ3l
NeEBoN3VNsPOFbcj96qQlDhS5qnXQhN4XNvoTzdF6htMxegepM0LOkKurbdWHA99
bUy3b7/7OHHXhcgVF/e5pkfmi7jldycxNhaSmFg4tbzNjWs91ZL8+mMotRqnbcwU
dy1+5+wUBvtvhdefHkrEtYa+MHngJEpNdDBkfUGyS0gMabU+qJR7OkZbWQ4N1Oez
/YB8ila/riHJ9hfEOqPGwX5gwnIBU+1mlUM9QzeIpRYG8R/Lrp9QWWMyAooQWcO4
RkT+WHL+7rsVr6+C/MyQG3xSN0kO1h0507unQtG/YYJR5JJYpgY3LsgyrwCVKsEe
RHE01DYO+SgFz8229PfEBLdE+6yy0AXuTORbBs4ddicVJsg/MYpP658oF+FmAsO1
xhVS0whaqCO9exD5hMLkp79DX5dXAdnhuup8Pg+sVrNLOuRzxLKPy0Ni23uGF2e/
AgMBAAGjggFjMIIBXzAJBgNVHRMEAjAAMC0GCWCGSAGG+EIBDQQgFh5FYXN5LVJT
QSBHZW5lcmF0ZWQgQ2VydGlmaWNhdGUwHQYDVR0OBBYEFC+Y5LkSWhHLGGta6hhQ
ht3VhOPrMIHhBgNVHSMEgdkwgdaAFBLNYATSoICecO3Gmbh7LMZS/RmhoYGypIGv
MIGsMQswCQYDVQQGEwJVUzELMAkGA1UECBMCT0gxETAPBgNVBAcTCENvbHVtYnVz
MRIwEAYDVQQKEwlWaWtpbmdWUE4xHTAbBgNVBAsTFE15T3JnYW5pemF0aW9uYWxV
bml0MRUwEwYDVQQDEwxWaWtpbmdWUE4gQ0ExEDAOBgNVBCkTB0Vhc3lSU0ExITAf
BgkqhkiG9w0BCQEWEm1lQG15aG9zdC5teWRvbWFpboIJAM81he6Avyo+MBMGA1Ud
JQQMMAoGCCsGAQUFBwMCMAsGA1UdDwQEAwIHgDANBgkqhkiG9w0BAQQFAAOCAgEA
ftcMInKACx8mZ0DgA4/irIDbTCKrP7RvqKfLln41imHMCrgCzy4cT8OMei5MWmGb
v6JXjKUIcNFOIUehV3EU91+LQJ1Rj4O12xCvMdfyFqISl9LVIvUyU4z/7+tis6ON
AenMaQMc/lIzDf3xwpPo948qRujWC/hhiOGhUtuDKiOnTg94zo7fm/knMdyrxi1T
yDAxvoQW4cVpPkziMt1mSCSdNsQKvEWlq4oAVrRTlccV3uTHZH+/O0t4yb25Am62
O6gv94nNn6es0p8M9ND/JnMKZclnuhq0M4yMXap7HxHIeJaAmJkAf05V5ZSoThMZ
pb1GTAwaEmfwIbo+6O2GQVAtfzCdpuHzBvC6rvD3B1CyBBDZsVtfeTAXGmKIBLof
OxAMT7w0Jgz1cLBy208J/B0fbfp/2xqmKz2EBLKpuyMhBI8WSFb9z3w3i4Lig7ha
OfrCaDn5nYrTp7Rx8uJOSDE7N7Q9tlsMd7mVlAwo6nFgnXmvUVwILKrt/Xl4HB3A
tKdaI2QZ6eNKfmgv4GTzhS0ySe0pDHh0q+HuxH3hkOe54WsE0DssMqb/oTiOmMty
eyeJmALfFHY02dcya9UQhjwHBkor8Y8m4+OjcwcXhWtr+FdfwZbsgZYkdEprFScz
ofwtPV9P4rIzxP4bqsl3ylMuYI9mM9avipG/33UO+aI=
-----END CERTIFICATE-----
