Certificate:
    Data:
        Version: 3 (0x2)
        Serial Number: 4163 (0x1043)
    Signature Algorithm: md5WithRSAEncryption
        Issuer: C=US, ST=OH, L=Columbus, O=VikingVPN, OU=MyOrganizationalUnit, CN=VikingVPN CA/name=EasyRSA/emailAddress=me@myhost.mydomain
        Validity
            Not Before: Jan 18 18:22:35 2015 GMT
            Not After : Jan 15 18:22:35 2025 GMT
        Subject: CN=Client431Certddd7d9
        Subject Public Key Info:
            Public Key Algorithm: rsaEncryption
                Public-Key: (4096 bit)
                Modulus:
                    00:f2:6b:9a:49:68:55:30:ed:64:94:ac:4e:ed:03:
                    2e:da:87:be:6e:02:39:e6:48:25:85:96:aa:e8:73:
                    27:8a:d2:d8:bc:b7:29:3a:4e:22:f6:25:7a:71:bb:
                    1e:11:7d:f3:7e:8c:31:5f:ec:ad:dc:2a:8e:07:b4:
                    a3:2a:7a:c2:08:71:3c:84:c5:df:f8:c0:19:d6:af:
                    0d:b4:ad:84:30:c9:a1:30:cb:a2:51:56:a6:0a:1f:
                    c3:f3:84:cf:63:89:23:c5:77:99:80:4e:bf:c3:dd:
                    c4:64:62:f7:ff:34:2f:9e:55:6d:3f:41:1a:ca:8d:
                    99:f1:98:58:f3:9d:c6:9d:0a:14:8c:23:13:20:35:
                    76:0a:9f:4d:c2:ca:50:ed:68:63:03:29:04:63:5a:
                    fc:95:19:42:f6:c7:07:39:21:35:64:72:39:99:25:
                    40:7d:2a:19:aa:9b:2e:29:4a:ed:e6:18:65:10:8c:
                    d0:51:8a:22:c5:72:12:0f:ca:dd:1d:1b:66:53:a0:
                    ff:78:35:78:62:fa:75:7d:41:49:f3:96:6f:62:29:
                    b6:61:ff:c6:b9:fe:07:88:7a:05:4e:90:51:15:7c:
                    9d:84:94:0c:a2:46:bf:fa:a8:bf:b6:b2:8f:a4:ce:
                    9f:8b:5d:ce:74:ed:6e:9b:43:ae:b7:67:0b:5b:6a:
                    ae:19:82:13:5a:81:19:42:33:88:01:4b:44:a8:e6:
                    4f:b3:c7:c3:64:6f:0c:82:0a:ef:9c:88:e9:ed:ff:
                    25:2e:04:54:a1:2a:58:b5:c4:c7:24:98:f7:58:4e:
                    31:89:c2:b1:c0:3a:7a:19:ca:f2:77:f5:92:3d:d1:
                    8e:f2:26:98:54:d6:8d:a8:9e:de:59:6a:69:ed:7a:
                    ad:8a:80:ef:b6:f1:e5:f8:ae:5e:0a:35:9c:99:29:
                    54:9a:ac:63:42:95:aa:dd:f2:55:3a:d9:16:8c:c2:
                    03:c1:45:97:7d:81:cc:64:d3:4b:b4:f1:e9:c3:fd:
                    46:c9:a9:a9:a1:72:1d:d7:f9:3b:27:24:d2:b7:0f:
                    bb:f8:57:37:82:82:d3:8a:32:aa:91:25:3d:0f:90:
                    54:19:13:2b:e3:73:a7:14:ff:9b:22:7d:21:1e:a4:
                    f2:a4:6a:e0:1e:89:bd:c6:ae:f4:7c:e9:68:f6:6b:
                    35:d9:fe:19:6c:30:c9:ab:f9:37:73:b7:d1:17:08:
                    3d:89:fb:70:16:50:a5:7f:5d:ab:f9:37:c6:68:33:
                    fc:86:32:10:aa:62:03:71:7e:ac:2b:4d:18:9f:66:
                    fa:28:8a:c3:77:74:b3:0f:44:02:2b:27:19:95:00:
                    67:28:21:3e:48:66:07:bc:32:0b:f9:96:c0:16:c7:
                    a8:df:cb
                Exponent: 65537 (0x10001)
        X509v3 extensions:
            X509v3 Basic Constraints: 
                CA:FALSE
            Netscape Comment: 
                Easy-RSA Generated Certificate
            X509v3 Subject Key Identifier: 
                BE:A7:C5:6B:6E:78:8B:12:73:6B:09:4C:56:D8:67:F8:DE:B1:3E:E2
            X509v3 Authority Key Identifier: 
                keyid:12:CD:60:04:D2:A0:80:9E:70:ED:C6:99:B8:7B:2C:C6:52:FD:19:A1
                DirName:/C=US/ST=OH/L=Columbus/O=VikingVPN/OU=MyOrganizationalUnit/CN=VikingVPN CA/name=EasyRSA/emailAddress=me@myhost.mydomain
                serial:CF:35:85:EE:80:BF:2A:3E

            X509v3 Extended Key Usage: 
                TLS Web Client Authentication
            X509v3 Key Usage: 
                Digital Signature
    Signature Algorithm: md5WithRSAEncryption
         0a:1f:19:17:43:f4:fc:7b:bc:20:08:64:a0:8c:2f:80:82:a2:
         5f:0d:4c:8c:d2:1b:d1:bc:af:a7:0d:11:6d:a8:02:68:08:82:
         73:a4:36:45:6b:e3:ab:6a:f3:1b:6c:da:a6:5f:6c:33:31:3b:
         05:c5:df:44:e9:c8:0c:f4:0f:4b:30:ea:cf:bb:a8:6f:e2:ce:
         93:20:68:ca:8e:f7:9c:d3:a0:df:1b:a1:31:cc:1c:8a:65:21:
         af:7e:9c:c1:58:cb:40:96:dc:f7:ff:33:b5:0d:d2:5a:ed:4d:
         f9:70:e0:d2:e3:7e:41:11:5c:e3:17:c4:b0:16:02:65:70:57:
         e9:b6:4b:b9:5b:62:48:cd:aa:d2:55:bf:2c:e3:70:e5:ac:53:
         d3:2b:1b:fd:5d:25:d3:09:31:ca:1f:ec:72:a1:c6:5f:bf:5f:
         f1:71:c3:6e:95:a5:d9:b9:7c:4d:c1:78:47:00:d5:ed:21:5b:
         bb:ff:87:9e:f0:38:29:1c:a6:d2:5c:60:58:7c:17:49:b7:c5:
         34:f1:06:8b:ca:36:2b:34:da:57:3c:87:d0:9c:b0:46:f4:0a:
         e5:73:92:97:7c:d2:39:0c:2d:0b:ef:9c:41:e2:b3:97:39:2b:
         69:59:89:bf:ee:33:25:5a:7a:d5:f2:a9:27:2b:77:bc:58:a9:
         c0:8b:96:a2:ec:da:3c:30:cc:bd:74:67:ee:a9:6b:62:13:86:
         77:e8:c7:ab:ce:58:dc:27:92:59:71:08:c2:bd:6f:7b:ea:3d:
         3f:38:d3:3e:a5:92:53:06:fc:6d:22:34:f8:18:e8:3c:57:52:
         2c:66:38:a1:aa:e3:90:0d:82:3b:8c:2b:d1:16:11:31:ec:11:
         97:22:c3:d1:a8:97:f5:81:e1:8b:9f:75:2f:c7:74:e5:3b:6d:
         96:9d:7e:23:1d:b9:49:54:ab:4d:1a:63:cd:5f:95:be:bb:c5:
         68:65:19:ce:86:9b:b7:dd:23:4c:26:f6:65:a5:70:10:a1:2d:
         b6:1b:b0:be:40:4b:64:66:e9:f9:ff:1d:6f:bc:ab:4c:8e:85:
         09:fd:63:75:ef:ef:d5:c1:4a:6d:30:2c:7a:6b:23:cd:53:0e:
         b9:1f:03:35:b4:fc:4e:d7:43:3a:9e:c3:70:96:bd:1f:e2:50:
         37:1b:66:df:69:ed:6c:e7:d4:c9:ee:56:a9:52:83:85:91:b3:
         d4:5d:4f:26:b5:81:08:9d:7e:ac:7a:7c:2b:ae:78:97:1b:43:
         6f:57:22:d9:85:8d:0c:a9:4b:9b:23:2d:96:05:6a:8d:a1:7c:
         55:1a:f6:34:50:9b:8a:68:e7:da:9c:f1:26:7f:2c:cd:fe:21:
         44:7b:a7:3e:86:cf:38:56
-----BEGIN CERTIFICATE-----
MIIGrDCCBJSgAwIBAgICEEMwDQYJKoZIhvcNAQEEBQAwgawxCzAJBgNVBAYTAlVT
MQswCQYDVQQIEwJPSDERMA8GA1UEBxMIQ29sdW1idXMxEjAQBgNVBAoTCVZpa2lu
Z1ZQTjEdMBsGA1UECxMUTXlPcmdhbml6YXRpb25hbFVuaXQxFTATBgNVBAMTDFZp
a2luZ1ZQTiBDQTEQMA4GA1UEKRMHRWFzeVJTQTEhMB8GCSqGSIb3DQEJARYSbWVA
bXlob3N0Lm15ZG9tYWluMB4XDTE1MDExODE4MjIzNVoXDTI1MDExNTE4MjIzNVow
HjEcMBoGA1UEAxMTQ2xpZW50NDMxQ2VydGRkZDdkOTCCAiIwDQYJKoZIhvcNAQEB
BQADggIPADCCAgoCggIBAPJrmkloVTDtZJSsTu0DLtqHvm4COeZIJYWWquhzJ4rS
2Ly3KTpOIvYlenG7HhF9836MMV/srdwqjge0oyp6wghxPITF3/jAGdavDbSthDDJ
oTDLolFWpgofw/OEz2OJI8V3mYBOv8PdxGRi9/80L55VbT9BGsqNmfGYWPOdxp0K
FIwjEyA1dgqfTcLKUO1oYwMpBGNa/JUZQvbHBzkhNWRyOZklQH0qGaqbLilK7eYY
ZRCM0FGKIsVyEg/K3R0bZlOg/3g1eGL6dX1BSfOWb2IptmH/xrn+B4h6BU6QURV8
nYSUDKJGv/qov7ayj6TOn4tdznTtbptDrrdnC1tqrhmCE1qBGUIziAFLRKjmT7PH
w2RvDIIK75yI6e3/JS4EVKEqWLXExySY91hOMYnCscA6ehnK8nf1kj3RjvImmFTW
jaie3llqae16rYqA77bx5fiuXgo1nJkpVJqsY0KVqt3yVTrZFozCA8FFl32BzGTT
S7Tx6cP9RsmpqaFyHdf5Oyck0rcPu/hXN4KC04oyqpElPQ+QVBkTK+NzpxT/myJ9
IR6k8qRq4B6Jvcau9HzpaPZrNdn+GWwwyav5N3O30RcIPYn7cBZQpX9dq/k3xmgz
/IYyEKpiA3F+rCtNGJ9m+iiKw3d0sw9EAisnGZUAZyghPkhmB7wyC/mWwBbHqN/L
AgMBAAGjggFjMIIBXzAJBgNVHRMEAjAAMC0GCWCGSAGG+EIBDQQgFh5FYXN5LVJT
QSBHZW5lcmF0ZWQgQ2VydGlmaWNhdGUwHQYDVR0OBBYEFL6nxWtueIsSc2sJTFbY
Z/jesT7iMIHhBgNVHSMEgdkwgdaAFBLNYATSoICecO3Gmbh7LMZS/RmhoYGypIGv
MIGsMQswCQYDVQQGEwJVUzELMAkGA1UECBMCT0gxETAPBgNVBAcTCENvbHVtYnVz
MRIwEAYDVQQKEwlWaWtpbmdWUE4xHTAbBgNVBAsTFE15T3JnYW5pemF0aW9uYWxV
bml0MRUwEwYDVQQDEwxWaWtpbmdWUE4gQ0ExEDAOBgNVBCkTB0Vhc3lSU0ExITAf
BgkqhkiG9w0BCQEWEm1lQG15aG9zdC5teWRvbWFpboIJAM81he6Avyo+MBMGA1Ud
JQQMMAoGCCsGAQUFBwMCMAsGA1UdDwQEAwIHgDANBgkqhkiG9w0BAQQFAAOCAgEA
Ch8ZF0P0/Hu8IAhkoIwvgIKiXw1MjNIb0byvpw0RbagCaAiCc6Q2RWvjq2rzG2za
pl9sMzE7BcXfROnIDPQPSzDqz7uob+LOkyBoyo73nNOg3xuhMcwcimUhr36cwVjL
QJbc9/8ztQ3SWu1N+XDg0uN+QRFc4xfEsBYCZXBX6bZLuVtiSM2q0lW/LONw5axT
0ysb/V0l0wkxyh/scqHGX79f8XHDbpWl2bl8TcF4RwDV7SFbu/+HnvA4KRym0lxg
WHwXSbfFNPEGi8o2KzTaVzyH0JywRvQK5XOSl3zSOQwtC++cQeKzlzkraVmJv+4z
JVp61fKpJyt3vFipwIuWouzaPDDMvXRn7qlrYhOGd+jHq85Y3CeSWXEIwr1ve+o9
PzjTPqWSUwb8bSI0+BjoPFdSLGY4oarjkA2CO4wr0RYRMewRlyLD0aiX9YHhi591
L8d05Tttlp1+Ix25SVSrTRpjzV+VvrvFaGUZzoabt90jTCb2ZaVwEKEtthuwvkBL
ZGbp+f8db7yrTI6FCf1jde/v1cFKbTAsemsjzVMOuR8DNbT8TtdDOp7DcJa9H+JQ
Nxtm32ntbOfUye5WqVKDhZGz1F1PJrWBCJ1+rHp8K654lxtDb1ci2YWNDKlLmyMt
lgVqjaF8VRr2NFCbimjn2pzxJn8szf4hRHunPobPOFY=
-----END CERTIFICATE-----
