Certificate:
    Data:
        Version: 3 (0x2)
        Serial Number: 4187 (0x105b)
    Signature Algorithm: md5WithRSAEncryption
        Issuer: C=US, ST=OH, L=Columbus, O=VikingVPN, OU=MyOrganizationalUnit, CN=VikingVPN CA/name=EasyRSA/emailAddress=me@myhost.mydomain
        Validity
            Not Before: Jan 19 08:08:04 2015 GMT
            Not After : Jan 16 08:08:04 2025 GMT
        Subject: CN=Client1375Cert2d696f
        Subject Public Key Info:
            Public Key Algorithm: rsaEncryption
                Public-Key: (4096 bit)
                Modulus:
                    00:b7:08:00:36:56:e4:be:e4:1c:98:bd:ef:6c:5b:
                    b6:dd:30:bd:de:ee:f7:61:84:22:32:00:05:02:4b:
                    38:7b:7b:c6:41:41:2c:e5:8e:91:2f:ed:c8:ee:73:
                    b6:4e:5f:6d:3b:fe:4f:c0:7e:7b:5f:a7:7b:1a:38:
                    77:ee:9e:79:ef:0d:1f:36:fc:64:37:83:e7:65:54:
                    f6:f0:ae:50:df:51:20:7a:b2:d5:7f:55:53:4c:b4:
                    cc:49:e9:bd:b2:2a:38:d9:04:fd:06:2a:b3:6e:f2:
                    85:db:c7:26:18:0e:3a:1d:b7:99:67:5f:28:64:b5:
                    df:ab:c2:30:81:2e:28:d6:89:61:c0:13:b3:b9:69:
                    50:b7:bf:a7:61:a3:09:b2:7e:6d:ca:bd:f8:5f:07:
                    ca:4f:6d:08:75:49:cc:f2:0f:1d:e7:25:2b:2d:55:
                    cf:d8:b0:83:05:96:97:08:5d:c7:de:6e:29:d2:c9:
                    41:cc:7a:3b:82:c4:2b:b5:86:62:e3:46:0e:38:c7:
                    1e:5c:de:77:8a:ac:ec:bd:51:5d:56:1a:65:d8:2c:
                    87:4a:5b:dc:93:52:5b:88:dd:56:a7:47:a5:4f:12:
                    00:9d:73:12:0b:10:d6:93:fd:6c:45:fa:63:9c:43:
                    44:c1:85:5d:c5:e7:5f:cc:c3:b9:3a:87:cb:19:2a:
                    9b:95:0d:4f:bc:e7:de:61:2f:61:e8:2c:7e:42:df:
                    42:0c:bc:a1:c3:69:b6:ed:64:12:f2:41:85:62:29:
                    1c:0c:ae:7f:55:95:12:9f:c6:a9:ca:3b:39:21:e4:
                    59:b5:5f:42:00:63:8a:4d:a2:3d:bb:9a:3f:66:fb:
                    8d:3f:5b:82:b7:b9:89:5a:92:b7:f7:b9:a9:61:e8:
                    2a:06:73:a1:4e:3b:42:54:1a:f4:89:e9:1b:5b:fd:
                    4c:a4:cf:8a:43:d4:3d:b7:7b:23:09:ac:5a:4b:ae:
                    86:37:20:d3:a2:2e:84:fd:5e:fb:ab:cf:cb:fc:c1:
                    67:d4:a3:99:89:bc:d6:06:d7:89:75:ed:90:5d:64:
                    ed:18:37:ba:01:cd:73:ca:12:f9:48:3b:b5:a6:55:
                    1a:9c:ab:30:f5:f2:00:4f:ec:43:46:3e:3a:45:7c:
                    d9:a9:63:19:27:af:03:b5:a9:61:f1:bf:85:24:69:
                    37:f1:55:bb:1e:bb:44:68:1b:4b:71:96:90:5f:c5:
                    44:0b:2e:ef:6e:7b:ba:e8:98:81:db:de:8e:53:f0:
                    4d:ef:5d:1b:4f:c9:08:5b:f9:4a:e9:7a:1a:04:58:
                    9b:74:3d:ab:2f:15:9f:87:a2:34:db:77:1a:12:83:
                    c4:cb:6a:01:b4:81:11:e3:1b:a7:3d:94:ee:01:b9:
                    a7:d1:33
                Exponent: 65537 (0x10001)
        X509v3 extensions:
            X509v3 Basic Constraints: 
                CA:FALSE
            Netscape Comment: 
                Easy-RSA Generated Certificate
            X509v3 Subject Key Identifier: 
                99:D4:A3:3A:31:74:39:A8:DF:89:8D:6D:54:0A:EF:3C:17:48:68:F9
            X509v3 Authority Key Identifier: 
                keyid:12:CD:60:04:D2:A0:80:9E:70:ED:C6:99:B8:7B:2C:C6:52:FD:19:A1
                DirName:/C=US/ST=OH/L=Columbus/O=VikingVPN/OU=MyOrganizationalUnit/CN=VikingVPN CA/name=EasyRSA/emailAddress=me@myhost.mydomain
                serial:CF:35:85:EE:80:BF:2A:3E

            X509v3 Extended Key Usage: 
                TLS Web Client Authentication
            X509v3 Key Usage: 
                Digital Signature
    Signature Algorithm: md5WithRSAEncryption
         43:68:5e:f9:c8:f3:7e:e0:55:e5:85:1e:d2:e1:a1:65:4d:f5:
         55:47:8d:11:c0:e0:30:25:42:d1:ba:89:aa:b9:32:ad:17:34:
         c4:ff:19:cc:c0:37:93:2c:91:14:98:5b:33:86:30:45:1f:38:
         e1:8c:13:a8:83:ec:5b:00:36:2c:16:cc:57:e0:e9:f6:09:72:
         57:4b:88:70:42:d2:6d:39:b3:05:6b:67:e7:7d:6e:45:a0:e4:
         03:31:ab:f0:fb:20:7d:d4:e4:9c:08:83:8a:8e:a1:03:b9:6f:
         01:54:56:9d:53:54:2c:c5:67:af:76:36:46:80:93:ca:c8:4e:
         d7:47:13:ae:ae:c0:05:e5:0b:d1:97:b1:f4:a8:15:65:f3:f1:
         f0:6d:6a:c7:79:cf:8a:a8:a3:21:0b:b1:72:80:d4:4d:ec:2e:
         fd:7c:5e:08:ba:95:83:88:fc:ed:98:2b:21:a7:27:7b:3f:f1:
         f5:3b:02:18:46:16:07:d0:a2:17:4b:1c:40:df:6b:75:61:c8:
         1d:37:02:8a:21:ac:1f:de:f4:7c:44:0b:92:ac:9b:b3:6d:d9:
         bb:44:e0:57:b5:d4:53:3f:97:10:36:6b:1a:49:b9:e0:2d:85:
         b6:b8:45:11:bd:2c:e9:69:59:09:91:6f:c7:30:66:d5:2b:c0:
         68:87:cb:09:51:a3:a9:8e:1c:29:c3:00:86:ef:79:0e:cf:c1:
         15:ce:1f:94:5c:90:7c:16:8d:55:6d:04:c2:de:12:2d:3f:89:
         b6:f6:d1:2b:af:99:a9:e3:fd:cf:55:85:46:68:62:53:65:45:
         29:b2:2a:b9:0b:13:f5:12:48:30:13:5d:68:cf:ed:21:f6:a1:
         09:03:a0:65:74:12:32:42:41:06:74:ca:a6:c1:ff:22:76:13:
         29:32:fb:6d:91:31:c5:a8:ed:8b:92:6a:32:4a:4a:47:48:f9:
         12:7e:1e:20:50:15:9f:6b:ec:88:c0:fb:fe:41:a1:43:62:11:
         1d:f6:7c:8f:4b:56:a0:bc:62:93:ee:5d:6b:1c:ea:44:79:cc:
         f0:26:c8:8a:a4:9b:7d:0a:60:54:f3:a4:60:27:97:82:5f:f4:
         00:c2:46:90:29:62:f4:00:0f:bf:a5:21:4d:81:28:d0:e6:e8:
         4b:b7:09:1f:ab:c3:e3:39:8f:e9:fb:30:fe:c2:c2:27:d4:26:
         f9:2a:cb:58:da:65:7d:d2:c5:74:be:3d:8a:99:e6:b4:fd:87:
         d7:c7:c0:d0:6c:c7:6b:66:f6:fd:32:c1:04:5c:6f:ed:64:0d:
         36:63:7d:94:2b:13:de:44:b4:47:ae:66:7c:fa:1a:47:e6:3e:
         2d:cc:7b:75:aa:58:ec:55
-----BEGIN CERTIFICATE-----
MIIGrTCCBJWgAwIBAgICEFswDQYJKoZIhvcNAQEEBQAwgawxCzAJBgNVBAYTAlVT
MQswCQYDVQQIEwJPSDERMA8GA1UEBxMIQ29sdW1idXMxEjAQBgNVBAoTCVZpa2lu
Z1ZQTjEdMBsGA1UECxMUTXlPcmdhbml6YXRpb25hbFVuaXQxFTATBgNVBAMTDFZp
a2luZ1ZQTiBDQTEQMA4GA1UEKRMHRWFzeVJTQTEhMB8GCSqGSIb3DQEJARYSbWVA
bXlob3N0Lm15ZG9tYWluMB4XDTE1MDExOTA4MDgwNFoXDTI1MDExNjA4MDgwNFow
HzEdMBsGA1UEAxMUQ2xpZW50MTM3NUNlcnQyZDY5NmYwggIiMA0GCSqGSIb3DQEB
AQUAA4ICDwAwggIKAoICAQC3CAA2VuS+5ByYve9sW7bdML3e7vdhhCIyAAUCSzh7
e8ZBQSzljpEv7cjuc7ZOX207/k/Afntfp3saOHfunnnvDR82/GQ3g+dlVPbwrlDf
USB6stV/VVNMtMxJ6b2yKjjZBP0GKrNu8oXbxyYYDjodt5lnXyhktd+rwjCBLijW
iWHAE7O5aVC3v6dhowmyfm3KvfhfB8pPbQh1SczyDx3nJSstVc/YsIMFlpcIXcfe
binSyUHMejuCxCu1hmLjRg44xx5c3neKrOy9UV1WGmXYLIdKW9yTUluI3VanR6VP
EgCdcxILENaT/WxF+mOcQ0TBhV3F51/Mw7k6h8sZKpuVDU+8595hL2HoLH5C30IM
vKHDabbtZBLyQYViKRwMrn9VlRKfxqnKOzkh5Fm1X0IAY4pNoj27mj9m+40/W4K3
uYlakrf3ualh6CoGc6FOO0JUGvSJ6Rtb/Uykz4pD1D23eyMJrFpLroY3INOiLoT9
Xvurz8v8wWfUo5mJvNYG14l17ZBdZO0YN7oBzXPKEvlIO7WmVRqcqzD18gBP7ENG
PjpFfNmpYxknrwO1qWHxv4UkaTfxVbseu0RoG0txlpBfxUQLLu9ue7romIHb3o5T
8E3vXRtPyQhb+UrpehoEWJt0PasvFZ+HojTbdxoSg8TLagG0gRHjG6c9lO4BuafR
MwIDAQABo4IBYzCCAV8wCQYDVR0TBAIwADAtBglghkgBhvhCAQ0EIBYeRWFzeS1S
U0EgR2VuZXJhdGVkIENlcnRpZmljYXRlMB0GA1UdDgQWBBSZ1KM6MXQ5qN+JjW1U
Cu88F0ho+TCB4QYDVR0jBIHZMIHWgBQSzWAE0qCAnnDtxpm4eyzGUv0ZoaGBsqSB
rzCBrDELMAkGA1UEBhMCVVMxCzAJBgNVBAgTAk9IMREwDwYDVQQHEwhDb2x1bWJ1
czESMBAGA1UEChMJVmlraW5nVlBOMR0wGwYDVQQLExRNeU9yZ2FuaXphdGlvbmFs
VW5pdDEVMBMGA1UEAxMMVmlraW5nVlBOIENBMRAwDgYDVQQpEwdFYXN5UlNBMSEw
HwYJKoZIhvcNAQkBFhJtZUBteWhvc3QubXlkb21haW6CCQDPNYXugL8qPjATBgNV
HSUEDDAKBggrBgEFBQcDAjALBgNVHQ8EBAMCB4AwDQYJKoZIhvcNAQEEBQADggIB
AENoXvnI837gVeWFHtLhoWVN9VVHjRHA4DAlQtG6iaq5Mq0XNMT/GczAN5MskRSY
WzOGMEUfOOGME6iD7FsANiwWzFfg6fYJcldLiHBC0m05swVrZ+d9bkWg5AMxq/D7
IH3U5JwIg4qOoQO5bwFUVp1TVCzFZ692NkaAk8rITtdHE66uwAXlC9GXsfSoFWXz
8fBtasd5z4qooyELsXKA1E3sLv18Xgi6lYOI/O2YKyGnJ3s/8fU7AhhGFgfQohdL
HEDfa3VhyB03AoohrB/e9HxEC5Ksm7Nt2btE4Fe11FM/lxA2axpJueAthba4RRG9
LOlpWQmRb8cwZtUrwGiHywlRo6mOHCnDAIbveQ7PwRXOH5RckHwWjVVtBMLeEi0/
ibb20Suvmanj/c9VhUZoYlNlRSmyKrkLE/USSDATXWjP7SH2oQkDoGV0EjJCQQZ0
yqbB/yJ2Eyky+22RMcWo7YuSajJKSkdI+RJ+HiBQFZ9r7IjA+/5BoUNiER32fI9L
VqC8YpPuXWsc6kR5zPAmyIqkm30KYFTzpGAnl4Jf9ADCRpApYvQAD7+lIU2BKNDm
6Eu3CR+rw+M5j+n7MP7CwifUJvkqy1jaZX3SxXS+PYqZ5rT9h9fHwNBsx2tm9v0y
wQRcb+1kDTZjfZQrE95EtEeuZnz6GkfmPi3Me3WqWOxV
-----END CERTIFICATE-----
