Certificate:
    Data:
        Version: 3 (0x2)
        Serial Number: 4199 (0x1067)
    Signature Algorithm: md5WithRSAEncryption
        Issuer: C=US, ST=OH, L=Columbus, O=VikingVPN, OU=MyOrganizationalUnit, CN=VikingVPN CA/name=EasyRSA/emailAddress=me@myhost.mydomain
        Validity
            Not Before: Jan 19 11:58:42 2015 GMT
            Not After : Jan 16 11:58:42 2025 GMT
        Subject: CN=Client1364Certf98ba9
        Subject Public Key Info:
            Public Key Algorithm: rsaEncryption
                Public-Key: (4096 bit)
                Modulus:
                    00:a8:f3:f0:e8:37:e4:d8:e0:62:8b:b0:94:cd:9e:
                    ae:2c:b0:bf:ce:e8:bd:62:dd:e1:7c:ba:cb:e4:7e:
                    d1:ec:b0:da:a9:d4:22:79:ab:10:66:fd:37:d0:c6:
                    6c:81:21:7c:f3:84:5b:c8:bb:01:d3:df:44:95:52:
                    82:6b:05:2f:21:81:d1:46:f5:8e:aa:6f:4c:b1:fd:
                    84:31:b0:d5:5c:63:78:97:ed:df:3c:6e:ee:d7:3b:
                    34:65:55:a4:6a:3d:79:6f:de:cc:d9:fa:a7:4d:7a:
                    88:62:59:75:50:76:87:3c:b3:01:27:ca:7b:ec:7d:
                    f6:aa:95:62:1e:34:34:57:bc:fc:ff:3f:48:26:ff:
                    01:a2:0f:8b:9d:da:35:43:4d:34:1b:1c:15:97:0a:
                    f2:8b:29:59:6d:d8:61:01:a4:34:a6:b1:2c:fc:f9:
                    9f:22:51:ae:db:ae:4c:50:48:ff:25:f4:33:99:7d:
                    ff:06:50:dc:ee:be:a9:95:5b:e1:b3:81:99:cc:ee:
                    7b:46:b7:ea:01:5f:92:90:24:f3:a9:99:51:be:77:
                    86:4a:ad:20:06:c6:99:c5:4e:a3:66:96:0b:19:da:
                    e3:e3:19:3c:3d:fb:79:f0:00:21:43:98:09:a1:70:
                    e7:8c:13:3c:ce:28:91:a5:9e:78:67:78:f7:01:82:
                    19:f9:ac:e8:03:95:61:20:df:e8:97:f2:64:6a:fd:
                    7b:f9:fb:46:72:23:db:13:74:dc:fd:cf:7b:86:bb:
                    9a:38:ce:2c:ad:58:c6:a1:06:d8:68:14:f8:4b:e4:
                    09:c9:3e:fb:5b:85:79:02:00:81:12:6e:fc:00:1c:
                    ff:b2:29:e4:59:1b:a0:3d:b1:72:34:85:71:28:c7:
                    94:b6:cd:f7:86:47:59:68:92:ef:37:53:07:4e:05:
                    cf:74:90:67:62:8d:37:53:a3:96:5e:79:d8:45:27:
                    5f:28:8c:7b:04:5f:5c:30:e7:9a:d0:4e:3d:91:1d:
                    bd:7a:ef:e4:52:1b:76:e5:e3:85:d6:8a:93:af:2a:
                    7b:98:6b:e6:3d:36:5a:9d:44:59:b4:1b:6d:93:1c:
                    2c:ff:1a:24:d0:59:11:f7:5a:df:e9:e3:b7:09:b0:
                    7f:ec:3b:64:18:66:3c:fc:cd:22:ce:91:a8:7a:a8:
                    33:0f:7d:4f:4a:df:ca:4e:9c:04:d9:f6:31:bf:ec:
                    38:59:9c:20:d4:cd:39:d0:2e:45:e3:81:61:69:9a:
                    7a:3f:96:63:bc:8a:3d:0d:04:91:16:c5:ca:e2:65:
                    6b:7e:65:17:60:c7:16:1e:89:1c:2d:c8:d4:30:79:
                    aa:45:7b:0f:9b:ef:be:71:d2:bb:14:43:a7:fd:52:
                    5e:4d:23
                Exponent: 65537 (0x10001)
        X509v3 extensions:
            X509v3 Basic Constraints: 
                CA:FALSE
            Netscape Comment: 
                Easy-RSA Generated Certificate
            X509v3 Subject Key Identifier: 
                C1:A6:46:7B:A9:19:02:CC:9A:DE:B5:DB:BB:79:BD:F0:2D:A7:00:A8
            X509v3 Authority Key Identifier: 
                keyid:12:CD:60:04:D2:A0:80:9E:70:ED:C6:99:B8:7B:2C:C6:52:FD:19:A1
                DirName:/C=US/ST=OH/L=Columbus/O=VikingVPN/OU=MyOrganizationalUnit/CN=VikingVPN CA/name=EasyRSA/emailAddress=me@myhost.mydomain
                serial:CF:35:85:EE:80:BF:2A:3E

            X509v3 Extended Key Usage: 
                TLS Web Client Authentication
            X509v3 Key Usage: 
                Digital Signature
    Signature Algorithm: md5WithRSAEncryption
         67:b7:ca:8d:27:65:3f:f9:99:b0:98:90:30:03:39:6c:70:ed:
         ec:be:a9:78:49:83:bb:87:46:29:63:95:34:41:fe:e3:06:65:
         3e:3b:17:9a:7f:67:5a:3e:34:d2:4f:30:b7:cb:bc:b6:5c:ba:
         2c:9d:76:45:b4:51:ff:67:c1:69:38:c0:2f:c2:18:7b:05:e9:
         a2:b6:8e:ff:a8:f3:34:0a:08:68:46:d2:cc:fa:81:4b:d2:1d:
         dd:34:62:58:d9:5e:c2:20:bc:47:0b:16:80:16:d6:72:ef:9a:
         ba:6c:73:38:3f:e6:37:b3:21:4e:ed:3a:e4:0e:0c:fb:5c:15:
         9b:93:98:57:1a:44:b2:83:19:8c:12:8a:5d:3c:5e:15:96:fb:
         52:0d:e0:04:e5:e2:c2:f5:d9:d2:b7:2b:f5:57:af:37:d8:62:
         29:96:c4:74:92:9a:6c:ed:39:7b:82:64:b2:37:58:82:f4:d1:
         19:3a:63:9e:81:47:aa:36:75:74:98:00:f5:f5:a0:b4:ca:ee:
         21:54:74:f4:9a:cd:65:50:05:3b:7e:58:5f:a4:5a:f2:80:fb:
         50:e5:47:a1:8a:ad:d9:93:75:11:67:da:d5:c4:95:21:eb:08:
         d4:1c:4d:64:a7:8f:a3:69:58:a1:2b:9a:66:5a:b7:ad:62:3c:
         9e:a0:f4:31:d0:02:2f:af:5a:39:12:ee:5a:98:9c:d8:47:64:
         a0:b2:a3:36:56:8d:06:6d:46:c3:ef:54:a6:1c:d5:9c:34:d2:
         98:9c:22:15:c7:7d:37:1a:ad:6b:02:8f:5f:87:78:8d:80:db:
         14:3a:fc:e6:28:db:e5:87:05:ea:0d:85:a4:a0:08:5e:06:c0:
         dc:d1:80:a3:cc:c0:a0:fb:da:31:28:50:69:d2:5c:ed:98:5a:
         56:9c:ef:b6:3b:b8:2d:d0:6d:97:a8:c1:aa:e0:0b:ca:a6:de:
         61:28:4f:e3:85:56:af:1f:e2:43:22:04:ab:40:dd:f9:ce:61:
         c1:51:c5:ed:55:d8:61:b1:a5:88:91:e3:76:45:af:45:39:56:
         06:62:9e:f0:77:57:92:df:56:42:e3:fe:dc:61:3c:d2:91:3e:
         be:ab:41:18:3f:64:10:8d:41:a2:8c:a4:f2:61:a1:1d:2c:c1:
         47:ad:f6:8e:be:9d:90:6a:d0:78:72:87:aa:1b:41:da:ec:1e:
         8a:6a:fe:32:9d:fe:84:e1:74:29:e3:85:c6:8d:11:61:69:6a:
         ba:ca:30:fc:75:26:5c:25:4a:6e:34:ab:1a:6c:4d:e3:60:ce:
         47:c8:8d:98:c8:f7:87:22:1d:26:6b:d8:52:44:11:a0:dd:59:
         2b:2c:b0:7f:3c:2b:af:c8
-----BEGIN CERTIFICATE-----
MIIGrTCCBJWgAwIBAgICEGcwDQYJKoZIhvcNAQEEBQAwgawxCzAJBgNVBAYTAlVT
MQswCQYDVQQIEwJPSDERMA8GA1UEBxMIQ29sdW1idXMxEjAQBgNVBAoTCVZpa2lu
Z1ZQTjEdMBsGA1UECxMUTXlPcmdhbml6YXRpb25hbFVuaXQxFTATBgNVBAMTDFZp
a2luZ1ZQTiBDQTEQMA4GA1UEKRMHRWFzeVJTQTEhMB8GCSqGSIb3DQEJARYSbWVA
bXlob3N0Lm15ZG9tYWluMB4XDTE1MDExOTExNTg0MloXDTI1MDExNjExNTg0Mlow
HzEdMBsGA1UEAxMUQ2xpZW50MTM2NENlcnRmOThiYTkwggIiMA0GCSqGSIb3DQEB
AQUAA4ICDwAwggIKAoICAQCo8/DoN+TY4GKLsJTNnq4ssL/O6L1i3eF8usvkftHs
sNqp1CJ5qxBm/TfQxmyBIXzzhFvIuwHT30SVUoJrBS8hgdFG9Y6qb0yx/YQxsNVc
Y3iX7d88bu7XOzRlVaRqPXlv3szZ+qdNeohiWXVQdoc8swEnynvsffaqlWIeNDRX
vPz/P0gm/wGiD4ud2jVDTTQbHBWXCvKLKVlt2GEBpDSmsSz8+Z8iUa7brkxQSP8l
9DOZff8GUNzuvqmVW+GzgZnM7ntGt+oBX5KQJPOpmVG+d4ZKrSAGxpnFTqNmlgsZ
2uPjGTw9+3nwACFDmAmhcOeMEzzOKJGlnnhnePcBghn5rOgDlWEg3+iX8mRq/Xv5
+0ZyI9sTdNz9z3uGu5o4ziytWMahBthoFPhL5AnJPvtbhXkCAIESbvwAHP+yKeRZ
G6A9sXI0hXEox5S2zfeGR1loku83UwdOBc90kGdijTdTo5ZeedhFJ18ojHsEX1ww
55rQTj2RHb167+RSG3bl44XWipOvKnuYa+Y9NlqdRFm0G22THCz/GiTQWRH3Wt/p
47cJsH/sO2QYZjz8zSLOkah6qDMPfU9K38pOnATZ9jG/7DhZnCDUzTnQLkXjgWFp
mno/lmO8ij0NBJEWxcriZWt+ZRdgxxYeiRwtyNQweapFew+b775x0rsUQ6f9Ul5N
IwIDAQABo4IBYzCCAV8wCQYDVR0TBAIwADAtBglghkgBhvhCAQ0EIBYeRWFzeS1S
U0EgR2VuZXJhdGVkIENlcnRpZmljYXRlMB0GA1UdDgQWBBTBpkZ7qRkCzJretdu7
eb3wLacAqDCB4QYDVR0jBIHZMIHWgBQSzWAE0qCAnnDtxpm4eyzGUv0ZoaGBsqSB
rzCBrDELMAkGA1UEBhMCVVMxCzAJBgNVBAgTAk9IMREwDwYDVQQHEwhDb2x1bWJ1
czESMBAGA1UEChMJVmlraW5nVlBOMR0wGwYDVQQLExRNeU9yZ2FuaXphdGlvbmFs
VW5pdDEVMBMGA1UEAxMMVmlraW5nVlBOIENBMRAwDgYDVQQpEwdFYXN5UlNBMSEw
HwYJKoZIhvcNAQkBFhJtZUBteWhvc3QubXlkb21haW6CCQDPNYXugL8qPjATBgNV
HSUEDDAKBggrBgEFBQcDAjALBgNVHQ8EBAMCB4AwDQYJKoZIhvcNAQEEBQADggIB
AGe3yo0nZT/5mbCYkDADOWxw7ey+qXhJg7uHRiljlTRB/uMGZT47F5p/Z1o+NNJP
MLfLvLZcuiyddkW0Uf9nwWk4wC/CGHsF6aK2jv+o8zQKCGhG0sz6gUvSHd00YljZ
XsIgvEcLFoAW1nLvmrpsczg/5jezIU7tOuQODPtcFZuTmFcaRLKDGYwSil08XhWW
+1IN4ATl4sL12dK3K/VXrzfYYimWxHSSmmztOXuCZLI3WIL00Rk6Y56BR6o2dXSY
APX1oLTK7iFUdPSazWVQBTt+WF+kWvKA+1DlR6GKrdmTdRFn2tXElSHrCNQcTWSn
j6NpWKErmmZat61iPJ6g9DHQAi+vWjkS7lqYnNhHZKCyozZWjQZtRsPvVKYc1Zw0
0picIhXHfTcarWsCj1+HeI2A2xQ6/OYo2+WHBeoNhaSgCF4GwNzRgKPMwKD72jEo
UGnSXO2YWlac77Y7uC3QbZeowargC8qm3mEoT+OFVq8f4kMiBKtA3fnOYcFRxe1V
2GGxpYiR43ZFr0U5VgZinvB3V5LfVkLj/txhPNKRPr6rQRg/ZBCNQaKMpPJhoR0s
wUet9o6+nZBq0Hhyh6obQdrsHopq/jKd/oThdCnjhcaNEWFparrKMPx1JlwlSm40
qxpsTeNgzkfIjZjI94ciHSZr2FJEEaDdWSsssH88K6/I
-----END CERTIFICATE-----
