Certificate:
    Data:
        Version: 3 (0x2)
        Serial Number: 4201 (0x1069)
    Signature Algorithm: md5WithRSAEncryption
        Issuer: C=US, ST=OH, L=Columbus, O=VikingVPN, OU=MyOrganizationalUnit, CN=VikingVPN CA/name=EasyRSA/emailAddress=me@myhost.mydomain
        Validity
            Not Before: Jan 19 12:29:42 2015 GMT
            Not After : Jan 16 12:29:42 2025 GMT
        Subject: CN=Client1364Certa426ec
        Subject Public Key Info:
            Public Key Algorithm: rsaEncryption
                Public-Key: (4096 bit)
                Modulus:
                    00:a8:90:71:e6:9a:a3:ec:7c:59:7e:ad:72:6b:9d:
                    a8:64:a0:f8:3c:f6:46:38:84:d8:67:a8:13:a9:5c:
                    3c:46:08:82:51:1e:50:9e:65:61:02:1a:5a:b5:f2:
                    68:3f:d6:04:ee:eb:27:ee:88:94:0b:60:3f:3a:69:
                    da:ef:45:9d:cd:d4:45:f0:27:18:30:9d:31:57:69:
                    43:ea:7a:0a:00:9e:a3:35:40:76:33:98:6b:3c:81:
                    a4:c6:25:be:18:3c:2b:66:50:e4:a1:0e:ec:27:54:
                    c6:f8:17:fd:ef:49:2f:2c:77:25:3b:58:4a:06:ab:
                    ed:1a:5f:cd:ba:30:cc:a6:02:9e:0d:dc:1b:08:dc:
                    57:05:0c:4e:e7:83:cd:90:fb:65:ed:1f:c9:d4:d1:
                    a3:5e:54:f8:13:6c:ab:69:02:71:1e:b0:17:d3:e4:
                    c4:25:a9:fb:9f:f7:49:02:1e:c6:1a:c3:c4:4f:53:
                    1a:44:0c:9a:53:98:78:ec:9a:92:df:9d:96:69:f6:
                    0f:98:77:b1:b5:60:f7:aa:44:fa:f5:1d:bc:d8:a0:
                    4e:86:e5:fd:6a:b4:2c:e8:e1:15:67:e0:d6:6f:5f:
                    e6:1c:c2:09:31:d5:0b:0d:12:87:68:20:9e:e9:89:
                    2b:28:de:22:d9:97:d5:1e:67:7c:d6:90:31:b2:7f:
                    51:0b:6d:1b:f1:17:9b:48:09:81:0a:74:10:64:a0:
                    7f:0c:1d:7b:db:de:12:a9:df:58:72:79:c3:46:05:
                    97:62:f5:ca:94:88:98:60:da:10:c6:1a:2a:75:78:
                    40:ef:e9:ac:af:80:01:36:7a:d7:95:7c:f8:e3:bd:
                    d8:54:06:4e:8b:17:99:64:5a:4c:10:00:dd:eb:5b:
                    9f:0b:df:45:0f:61:3a:f3:ca:f4:00:d2:a1:1d:4f:
                    07:67:ed:32:48:59:4e:e3:d5:49:56:f9:81:0b:cb:
                    55:0f:b8:95:9f:d6:fd:3e:36:1f:de:a4:0c:71:21:
                    0b:9b:c9:09:62:ec:03:db:c0:d3:d7:6f:ae:a7:ac:
                    f6:12:e1:08:b1:1a:c4:0b:ce:35:a0:66:bd:41:ed:
                    d6:36:8b:89:09:3b:8b:91:92:6f:83:b4:85:b2:20:
                    bb:3f:85:4f:6c:cf:02:fc:59:b7:fc:99:6a:7d:81:
                    8b:d4:90:7a:98:a7:67:ff:10:dd:63:90:31:4b:7d:
                    1d:07:6b:11:ee:8d:05:87:c4:cd:3a:be:1b:7a:a4:
                    eb:80:66:9b:b5:59:95:6b:84:24:88:4c:42:57:6c:
                    16:a3:1b:36:e7:2f:74:eb:cc:c0:97:f4:d5:60:8a:
                    95:77:ad:a2:fb:9b:91:3e:43:05:31:61:cf:75:fd:
                    a3:68:f7
                Exponent: 65537 (0x10001)
        X509v3 extensions:
            X509v3 Basic Constraints: 
                CA:FALSE
            Netscape Comment: 
                Easy-RSA Generated Certificate
            X509v3 Subject Key Identifier: 
                82:25:56:E9:35:5A:26:65:61:2F:90:D1:16:4B:D9:B7:59:02:1A:05
            X509v3 Authority Key Identifier: 
                keyid:12:CD:60:04:D2:A0:80:9E:70:ED:C6:99:B8:7B:2C:C6:52:FD:19:A1
                DirName:/C=US/ST=OH/L=Columbus/O=VikingVPN/OU=MyOrganizationalUnit/CN=VikingVPN CA/name=EasyRSA/emailAddress=me@myhost.mydomain
                serial:CF:35:85:EE:80:BF:2A:3E

            X509v3 Extended Key Usage: 
                TLS Web Client Authentication
            X509v3 Key Usage: 
                Digital Signature
    Signature Algorithm: md5WithRSAEncryption
         30:f6:16:ef:98:2b:4f:dd:c2:39:e0:61:b6:57:4c:06:de:d8:
         b2:d0:0b:2a:ad:20:e4:71:fe:40:01:4c:e2:cb:13:e0:09:4c:
         ef:54:f9:28:13:6d:8e:67:2b:a4:e5:80:c6:c6:cd:da:17:67:
         c3:ee:4f:44:36:a4:ba:2a:bd:55:88:dd:05:8d:31:0b:0e:0e:
         2d:32:d8:7f:e7:55:ef:38:be:3f:ca:ea:9a:c2:0b:61:86:d8:
         d5:c5:6d:45:06:e1:d5:78:2a:92:0a:24:4d:8b:12:fd:b4:12:
         cf:97:21:ca:7f:35:55:39:43:d0:c6:0a:fd:32:54:9c:9f:3a:
         9f:df:05:14:6e:b0:a8:02:83:f7:0c:74:60:5e:85:50:cc:f6:
         b9:f4:ef:a1:8f:84:eb:e9:53:a2:3a:c5:ab:c5:13:7b:82:89:
         80:91:7f:cb:87:0f:3a:ab:75:91:1b:3f:c6:32:ad:8e:8a:11:
         4e:ac:30:e7:ae:1a:3f:d0:09:f9:aa:5a:f5:72:e5:5f:08:4c:
         47:c4:ba:5f:74:fd:c3:7d:90:35:b8:a6:64:df:15:25:ab:22:
         f6:8b:ca:0c:f1:1f:80:41:ad:a1:a8:d8:5b:df:75:df:80:63:
         d4:69:a5:81:3c:c1:84:b1:03:e4:fa:39:0f:3f:f9:42:78:c5:
         2e:51:06:4c:e6:ab:49:87:a9:cb:95:69:23:57:91:93:56:98:
         d4:f9:ce:b4:1a:06:8d:70:54:d9:84:d5:43:f1:65:2b:fa:76:
         28:f8:55:c0:6d:8f:1a:d4:e8:ab:99:19:8f:3a:20:d3:cf:08:
         63:8d:40:6a:4f:65:d8:90:0f:17:3e:d7:37:ae:d1:19:64:95:
         ac:16:fa:e9:3f:44:43:5a:67:ac:8f:26:51:6c:83:53:a4:51:
         b6:db:85:d5:c5:d5:9b:08:c8:47:ee:7b:d0:e9:a7:f9:13:3f:
         12:a8:da:f9:82:5d:7f:b3:4a:78:6d:80:8f:54:2f:94:27:65:
         09:c5:2a:5c:26:75:7a:3c:16:88:8b:1b:de:60:d3:84:b1:2b:
         2e:4f:eb:ed:3a:cf:67:5a:be:ae:5c:66:5b:ef:d4:47:9d:3a:
         0e:79:c5:70:6a:04:3e:d2:80:31:7a:37:e8:b6:4f:a5:75:9a:
         71:10:fa:fa:cd:4a:76:5d:d7:22:5c:03:b4:66:de:b2:85:bd:
         2c:eb:dc:06:1d:ef:6d:d2:1e:2b:a3:92:5f:a1:d7:a4:37:75:
         00:cd:bd:7d:0d:5a:37:99:20:07:59:c8:37:bc:70:af:b9:9e:
         59:3e:2d:30:5c:93:44:22:02:62:05:20:13:33:aa:50:77:aa:
         4f:c3:7d:a2:ac:ee:f6:a1
-----BEGIN CERTIFICATE-----
MIIGrTCCBJWgAwIBAgICEGkwDQYJKoZIhvcNAQEEBQAwgawxCzAJBgNVBAYTAlVT
MQswCQYDVQQIEwJPSDERMA8GA1UEBxMIQ29sdW1idXMxEjAQBgNVBAoTCVZpa2lu
Z1ZQTjEdMBsGA1UECxMUTXlPcmdhbml6YXRpb25hbFVuaXQxFTATBgNVBAMTDFZp
a2luZ1ZQTiBDQTEQMA4GA1UEKRMHRWFzeVJTQTEhMB8GCSqGSIb3DQEJARYSbWVA
bXlob3N0Lm15ZG9tYWluMB4XDTE1MDExOTEyMjk0MloXDTI1MDExNjEyMjk0Mlow
HzEdMBsGA1UEAxMUQ2xpZW50MTM2NENlcnRhNDI2ZWMwggIiMA0GCSqGSIb3DQEB
AQUAA4ICDwAwggIKAoICAQCokHHmmqPsfFl+rXJrnahkoPg89kY4hNhnqBOpXDxG
CIJRHlCeZWECGlq18mg/1gTu6yfuiJQLYD86adrvRZ3N1EXwJxgwnTFXaUPqegoA
nqM1QHYzmGs8gaTGJb4YPCtmUOShDuwnVMb4F/3vSS8sdyU7WEoGq+0aX826MMym
Ap4N3BsI3FcFDE7ng82Q+2XtH8nU0aNeVPgTbKtpAnEesBfT5MQlqfuf90kCHsYa
w8RPUxpEDJpTmHjsmpLfnZZp9g+Yd7G1YPeqRPr1HbzYoE6G5f1qtCzo4RVn4NZv
X+Ycwgkx1QsNEodoIJ7piSso3iLZl9UeZ3zWkDGyf1ELbRvxF5tICYEKdBBkoH8M
HXvb3hKp31hyecNGBZdi9cqUiJhg2hDGGip1eEDv6ayvgAE2eteVfPjjvdhUBk6L
F5lkWkwQAN3rW58L30UPYTrzyvQA0qEdTwdn7TJIWU7j1UlW+YELy1UPuJWf1v0+
Nh/epAxxIQubyQli7APbwNPXb66nrPYS4QixGsQLzjWgZr1B7dY2i4kJO4uRkm+D
tIWyILs/hU9szwL8Wbf8mWp9gYvUkHqYp2f/EN1jkDFLfR0HaxHujQWHxM06vht6
pOuAZpu1WZVrhCSITEJXbBajGzbnL3TrzMCX9NVgipV3raL7m5E+QwUxYc91/aNo
9wIDAQABo4IBYzCCAV8wCQYDVR0TBAIwADAtBglghkgBhvhCAQ0EIBYeRWFzeS1S
U0EgR2VuZXJhdGVkIENlcnRpZmljYXRlMB0GA1UdDgQWBBSCJVbpNVomZWEvkNEW
S9m3WQIaBTCB4QYDVR0jBIHZMIHWgBQSzWAE0qCAnnDtxpm4eyzGUv0ZoaGBsqSB
rzCBrDELMAkGA1UEBhMCVVMxCzAJBgNVBAgTAk9IMREwDwYDVQQHEwhDb2x1bWJ1
czESMBAGA1UEChMJVmlraW5nVlBOMR0wGwYDVQQLExRNeU9yZ2FuaXphdGlvbmFs
VW5pdDEVMBMGA1UEAxMMVmlraW5nVlBOIENBMRAwDgYDVQQpEwdFYXN5UlNBMSEw
HwYJKoZIhvcNAQkBFhJtZUBteWhvc3QubXlkb21haW6CCQDPNYXugL8qPjATBgNV
HSUEDDAKBggrBgEFBQcDAjALBgNVHQ8EBAMCB4AwDQYJKoZIhvcNAQEEBQADggIB
ADD2Fu+YK0/dwjngYbZXTAbe2LLQCyqtIORx/kABTOLLE+AJTO9U+SgTbY5nK6Tl
gMbGzdoXZ8PuT0Q2pLoqvVWI3QWNMQsODi0y2H/nVe84vj/K6prCC2GG2NXFbUUG
4dV4KpIKJE2LEv20Es+XIcp/NVU5Q9DGCv0yVJyfOp/fBRRusKgCg/cMdGBehVDM
9rn076GPhOvpU6I6xavFE3uCiYCRf8uHDzqrdZEbP8YyrY6KEU6sMOeuGj/QCfmq
WvVy5V8ITEfEul90/cN9kDW4pmTfFSWrIvaLygzxH4BBraGo2Fvfdd+AY9RppYE8
wYSxA+T6OQ8/+UJ4xS5RBkzmq0mHqcuVaSNXkZNWmNT5zrQaBo1wVNmE1UPxZSv6
dij4VcBtjxrU6KuZGY86INPPCGONQGpPZdiQDxc+1zeu0RlklawW+uk/RENaZ6yP
JlFsg1OkUbbbhdXF1ZsIyEfue9Dpp/kTPxKo2vmCXX+zSnhtgI9UL5QnZQnFKlwm
dXo8FoiLG95g04SxKy5P6+06z2davq5cZlvv1EedOg55xXBqBD7SgDF6N+i2T6V1
mnEQ+vrNSnZd1yJcA7Rm3rKFvSzr3AYd723SHiujkl+h16Q3dQDNvX0NWjeZIAdZ
yDe8cK+5nlk+LTBck0QiAmIFIBMzqlB3qk/DfaKs7vah
-----END CERTIFICATE-----
