Certificate:
    Data:
        Version: 3 (0x2)
        Serial Number: 4215 (0x1077)
    Signature Algorithm: md5WithRSAEncryption
        Issuer: C=US, ST=OH, L=Columbus, O=VikingVPN, OU=MyOrganizationalUnit, CN=VikingVPN CA/name=EasyRSA/emailAddress=me@myhost.mydomain
        Validity
            Not Before: Jan 20 11:32:49 2015 GMT
            Not After : Jan 17 11:32:49 2025 GMT
        Subject: CN=Client1378Cert3da0e4
        Subject Public Key Info:
            Public Key Algorithm: rsaEncryption
                Public-Key: (4096 bit)
                Modulus:
                    00:d7:07:e7:8b:22:90:92:39:f3:56:5d:5a:0b:e7:
                    77:c9:36:0e:ce:b4:45:07:9e:06:4f:1f:e4:55:ba:
                    8f:b1:d5:47:56:71:e5:63:e7:89:ed:04:2d:92:48:
                    09:22:2a:7e:e6:be:69:eb:b0:eb:61:07:29:59:44:
                    2d:a9:ec:9b:55:be:e2:64:10:88:23:77:ac:24:cd:
                    91:6a:3f:fe:a5:64:ef:07:8b:7b:06:1b:77:53:0d:
                    96:1b:03:87:04:75:a7:f5:de:c9:6e:84:81:c7:5b:
                    4b:63:cd:6e:60:92:9a:69:ad:61:00:2c:6c:c1:ee:
                    fa:ac:2c:c3:d3:ee:63:b2:86:b6:f8:1a:c3:cb:e3:
                    f5:ac:c0:57:79:46:6c:e8:d8:a9:55:50:15:44:c6:
                    b6:0a:e8:ae:6b:8e:96:6d:9b:71:a2:c4:0e:ff:b3:
                    c9:2d:4b:47:aa:d5:08:d9:3b:1f:b2:35:b2:ac:67:
                    73:01:d7:da:68:a8:05:cb:27:bb:db:76:5d:5d:bd:
                    5b:a8:0e:60:06:91:08:73:ca:be:10:2f:d2:dd:75:
                    da:6d:67:15:09:3f:cb:30:7b:73:e6:c1:63:fa:ea:
                    9f:48:3f:ab:cf:8b:fb:f6:dc:76:db:ee:50:8c:04:
                    ef:0c:82:63:f2:e0:74:df:80:cf:25:67:b3:47:5f:
                    a5:a5:fd:d2:4f:98:6c:98:a5:9a:4e:5f:2d:26:1a:
                    ab:c8:5c:a3:88:23:1a:08:93:81:b9:43:6c:ee:41:
                    28:aa:fc:56:91:61:62:17:64:0a:00:46:d1:f2:1f:
                    44:60:13:46:b7:54:a6:d7:48:b0:e8:e2:1a:4b:72:
                    3a:c6:7a:45:04:c9:35:c5:af:96:3d:84:63:36:82:
                    b4:33:a6:24:4f:ab:bd:70:65:59:9a:b2:8f:58:2a:
                    71:21:86:68:44:da:65:43:84:f5:74:0b:2c:33:5f:
                    43:7d:3c:ef:d8:b0:b4:12:1a:7e:34:0c:39:4c:b5:
                    2e:1c:e7:51:c4:d2:d8:91:a0:fe:bd:c3:3b:31:92:
                    47:9a:27:07:41:c6:35:5c:c4:23:ee:07:6e:58:c6:
                    56:92:61:68:eb:73:8e:95:f9:2e:f4:a6:8b:66:41:
                    73:b1:f0:c7:f8:2a:63:22:ef:7d:d4:b9:1c:1f:17:
                    90:51:a8:00:8e:c4:6a:50:0e:c7:de:b4:6b:f8:f4:
                    df:15:f8:2b:b2:bd:ed:b1:18:98:07:53:96:61:74:
                    89:d8:59:25:77:f2:30:43:6b:26:fc:86:ab:99:50:
                    1a:8f:4b:f0:ad:a3:94:54:34:aa:a1:11:cf:ed:36:
                    e0:d1:6a:b5:42:bd:6e:84:c7:4e:39:b0:26:23:a6:
                    b3:78:71
                Exponent: 65537 (0x10001)
        X509v3 extensions:
            X509v3 Basic Constraints: 
                CA:FALSE
            Netscape Comment: 
                Easy-RSA Generated Certificate
            X509v3 Subject Key Identifier: 
                72:D1:3B:C0:31:C5:9A:C2:B1:19:06:13:4C:D9:F9:9F:88:88:27:2C
            X509v3 Authority Key Identifier: 
                keyid:12:CD:60:04:D2:A0:80:9E:70:ED:C6:99:B8:7B:2C:C6:52:FD:19:A1
                DirName:/C=US/ST=OH/L=Columbus/O=VikingVPN/OU=MyOrganizationalUnit/CN=VikingVPN CA/name=EasyRSA/emailAddress=me@myhost.mydomain
                serial:CF:35:85:EE:80:BF:2A:3E

            X509v3 Extended Key Usage: 
                TLS Web Client Authentication
            X509v3 Key Usage: 
                Digital Signature
    Signature Algorithm: md5WithRSAEncryption
         bd:88:97:2d:1f:55:6c:07:0e:9e:de:84:af:ca:3b:be:3f:29:
         42:96:8a:fd:0b:f5:fd:0d:7e:81:ff:7a:cd:9e:71:a7:ee:e6:
         14:7d:0b:48:1e:97:6a:e8:a6:86:dd:34:d1:87:b6:a7:13:c2:
         d6:d6:30:a4:94:b8:7c:e5:7f:10:31:97:72:67:2b:f1:a9:e9:
         1b:39:ed:4e:0f:5a:89:b2:35:b4:6e:4d:41:73:8a:c7:e9:0a:
         03:a6:bb:d1:b1:98:3b:b6:da:54:05:15:78:93:ed:85:51:c8:
         77:c8:70:43:50:dc:8a:c8:e6:fd:14:7b:e6:29:55:b3:62:6d:
         9e:c6:fe:d8:f4:31:18:60:25:32:90:22:98:5e:4d:75:ea:bd:
         45:d6:07:98:d7:0d:4c:2f:7a:01:6c:b2:de:d6:71:3f:be:01:
         8f:77:df:96:30:c7:dc:60:0c:ce:19:f3:b1:ea:d1:89:ec:f4:
         8f:b3:b1:72:e2:9b:66:d6:5b:11:fc:d1:d7:53:42:95:b3:d8:
         18:5a:a4:6a:70:18:7e:11:09:d2:5b:b3:5b:9b:55:d1:27:c6:
         11:df:96:30:89:17:ec:66:54:10:08:81:69:1b:57:69:ae:fd:
         dc:a6:82:a2:4d:96:18:20:38:88:ec:37:73:c5:c5:77:a4:5f:
         43:1f:37:f7:4c:d3:7a:37:94:db:5a:79:66:57:47:63:6b:29:
         45:f3:4a:4d:8b:7d:9b:73:c7:64:0a:c6:b7:05:29:08:21:12:
         0c:e4:98:ac:75:e2:54:7c:97:f1:e2:a0:b5:cc:34:81:cc:04:
         27:20:04:9f:e3:c0:e6:00:8d:b0:ad:45:07:c4:a0:d0:0a:67:
         05:57:13:1f:61:d9:f2:3d:96:51:95:68:c9:52:1b:53:fb:24:
         5f:6a:7c:bd:b4:6c:55:82:03:a3:22:52:1d:24:3f:80:2e:ae:
         f6:e4:a6:51:67:97:6a:24:46:4b:a4:98:9c:2b:bf:d0:12:b9:
         38:d2:86:42:bb:66:18:42:83:25:c0:b3:33:8b:3c:cf:97:98:
         98:48:a1:1b:71:f0:38:6f:58:cc:42:81:6e:aa:3e:4b:41:f8:
         8c:1f:67:92:6d:ff:ed:d7:c6:04:e2:99:66:29:85:66:a3:60:
         29:34:2e:5a:a0:40:a8:9b:07:cc:78:74:2a:c6:2a:d3:54:9c:
         a4:5c:e8:fd:c2:db:4d:e4:3e:34:ff:40:c5:47:c9:ec:89:b7:
         4c:be:14:62:ca:b6:40:60:8e:65:00:a5:96:69:67:c3:96:83:
         1b:a6:90:16:f0:2a:ca:ce:4a:e8:7b:a4:c8:54:78:66:0e:f8:
         96:5a:86:81:14:9d:9a:1c
-----BEGIN CERTIFICATE-----
MIIGrTCCBJWgAwIBAgICEHcwDQYJKoZIhvcNAQEEBQAwgawxCzAJBgNVBAYTAlVT
MQswCQYDVQQIEwJPSDERMA8GA1UEBxMIQ29sdW1idXMxEjAQBgNVBAoTCVZpa2lu
Z1ZQTjEdMBsGA1UECxMUTXlPcmdhbml6YXRpb25hbFVuaXQxFTATBgNVBAMTDFZp
a2luZ1ZQTiBDQTEQMA4GA1UEKRMHRWFzeVJTQTEhMB8GCSqGSIb3DQEJARYSbWVA
bXlob3N0Lm15ZG9tYWluMB4XDTE1MDEyMDExMzI0OVoXDTI1MDExNzExMzI0OVow
HzEdMBsGA1UEAxMUQ2xpZW50MTM3OENlcnQzZGEwZTQwggIiMA0GCSqGSIb3DQEB
AQUAA4ICDwAwggIKAoICAQDXB+eLIpCSOfNWXVoL53fJNg7OtEUHngZPH+RVuo+x
1UdWceVj54ntBC2SSAkiKn7mvmnrsOthBylZRC2p7JtVvuJkEIgjd6wkzZFqP/6l
ZO8Hi3sGG3dTDZYbA4cEdaf13sluhIHHW0tjzW5gkppprWEALGzB7vqsLMPT7mOy
hrb4GsPL4/WswFd5Rmzo2KlVUBVExrYK6K5rjpZtm3GixA7/s8ktS0eq1QjZOx+y
NbKsZ3MB19poqAXLJ7vbdl1dvVuoDmAGkQhzyr4QL9LdddptZxUJP8swe3PmwWP6
6p9IP6vPi/v23Hbb7lCMBO8MgmPy4HTfgM8lZ7NHX6Wl/dJPmGyYpZpOXy0mGqvI
XKOIIxoIk4G5Q2zuQSiq/FaRYWIXZAoARtHyH0RgE0a3VKbXSLDo4hpLcjrGekUE
yTXFr5Y9hGM2grQzpiRPq71wZVmaso9YKnEhhmhE2mVDhPV0CywzX0N9PO/YsLQS
Gn40DDlMtS4c51HE0tiRoP69wzsxkkeaJwdBxjVcxCPuB25YxlaSYWjrc46V+S70
potmQXOx8Mf4KmMi733UuRwfF5BRqACOxGpQDsfetGv49N8V+Cuyve2xGJgHU5Zh
dInYWSV38jBDayb8hquZUBqPS/Cto5RUNKqhEc/tNuDRarVCvW6Ex045sCYjprN4
cQIDAQABo4IBYzCCAV8wCQYDVR0TBAIwADAtBglghkgBhvhCAQ0EIBYeRWFzeS1S
U0EgR2VuZXJhdGVkIENlcnRpZmljYXRlMB0GA1UdDgQWBBRy0TvAMcWawrEZBhNM
2fmfiIgnLDCB4QYDVR0jBIHZMIHWgBQSzWAE0qCAnnDtxpm4eyzGUv0ZoaGBsqSB
rzCBrDELMAkGA1UEBhMCVVMxCzAJBgNVBAgTAk9IMREwDwYDVQQHEwhDb2x1bWJ1
czESMBAGA1UEChMJVmlraW5nVlBOMR0wGwYDVQQLExRNeU9yZ2FuaXphdGlvbmFs
VW5pdDEVMBMGA1UEAxMMVmlraW5nVlBOIENBMRAwDgYDVQQpEwdFYXN5UlNBMSEw
HwYJKoZIhvcNAQkBFhJtZUBteWhvc3QubXlkb21haW6CCQDPNYXugL8qPjATBgNV
HSUEDDAKBggrBgEFBQcDAjALBgNVHQ8EBAMCB4AwDQYJKoZIhvcNAQEEBQADggIB
AL2Ily0fVWwHDp7ehK/KO74/KUKWiv0L9f0NfoH/es2ecafu5hR9C0gel2ropobd
NNGHtqcTwtbWMKSUuHzlfxAxl3JnK/Gp6Rs57U4PWomyNbRuTUFzisfpCgOmu9Gx
mDu22lQFFXiT7YVRyHfIcENQ3IrI5v0Ue+YpVbNibZ7G/tj0MRhgJTKQIpheTXXq
vUXWB5jXDUwvegFsst7WcT++AY9335Ywx9xgDM4Z87Hq0Yns9I+zsXLim2bWWxH8
0ddTQpWz2BhapGpwGH4RCdJbs1ubVdEnxhHfljCJF+xmVBAIgWkbV2mu/dymgqJN
lhggOIjsN3PFxXekX0MfN/dM03o3lNtaeWZXR2NrKUXzSk2LfZtzx2QKxrcFKQgh
EgzkmKx14lR8l/HioLXMNIHMBCcgBJ/jwOYAjbCtRQfEoNAKZwVXEx9h2fI9llGV
aMlSG1P7JF9qfL20bFWCA6MiUh0kP4AurvbkplFnl2okRkukmJwrv9ASuTjShkK7
ZhhCgyXAszOLPM+XmJhIoRtx8DhvWMxCgW6qPktB+IwfZ5Jt/+3XxgTimWYphWaj
YCk0LlqgQKibB8x4dCrGKtNUnKRc6P3C203kPjT/QMVHyeyJt0y+FGLKtkBgjmUA
pZZpZ8OWgxumkBbwKsrOSuh7pMhUeGYO+JZahoEUnZoc
-----END CERTIFICATE-----
