Certificate:
    Data:
        Version: 3 (0x2)
        Serial Number: 4233 (0x1089)
    Signature Algorithm: md5WithRSAEncryption
        Issuer: C=US, ST=OH, L=Columbus, O=VikingVPN, OU=MyOrganizationalUnit, CN=VikingVPN CA/name=EasyRSA/emailAddress=me@myhost.mydomain
        Validity
            Not Before: Jan 22 05:24:57 2015 GMT
            Not After : Jan 19 05:24:57 2025 GMT
        Subject: CN=Client1385Cert836b5e
        Subject Public Key Info:
            Public Key Algorithm: rsaEncryption
                Public-Key: (4096 bit)
                Modulus:
                    00:98:d2:ab:59:0b:51:e6:57:9c:23:a6:4b:61:91:
                    7c:62:ca:d4:de:61:01:41:df:93:bc:bf:3f:90:6a:
                    bf:9f:a4:71:a4:f9:1a:d7:2b:a9:51:29:6a:c1:dc:
                    f3:d9:ff:da:5c:bb:02:06:10:68:b9:cf:b9:db:38:
                    53:a6:d1:54:62:b1:6d:40:83:11:7b:f8:30:e2:f2:
                    0b:28:a7:c1:06:7f:67:2b:a6:92:38:53:75:f9:3d:
                    1f:57:9a:41:04:18:4f:98:99:a9:58:92:ca:fe:40:
                    7d:2a:aa:2e:6a:8b:d6:40:6e:ba:39:65:f2:f8:17:
                    3c:bb:87:6c:f3:a8:96:76:97:82:f4:0f:65:15:df:
                    cb:07:5e:e3:95:ea:bb:9b:06:a8:06:77:18:df:62:
                    8a:1e:56:11:19:f6:1f:d2:2f:34:df:6c:01:61:dc:
                    e4:a4:1e:be:33:41:d1:bd:cd:75:bc:91:0f:77:af:
                    04:01:1f:28:d1:48:8d:bb:da:be:48:70:ae:eb:f3:
                    e4:1f:3f:f4:35:33:92:2b:90:e1:74:d1:a6:85:12:
                    a5:2c:6f:09:ff:78:97:e4:a9:7c:e1:f3:87:e3:a4:
                    1f:84:fb:40:22:e9:d8:1c:a4:6f:e9:b1:45:f4:7e:
                    5b:cf:1c:66:49:88:9e:36:72:29:b9:f6:fd:33:ef:
                    de:b6:56:56:6d:54:be:c2:a3:3c:8f:ee:c9:88:6a:
                    a1:45:59:11:23:4b:5a:94:f7:7c:5a:e0:aa:f1:cc:
                    34:8a:37:df:69:da:fb:31:ee:e0:bc:5c:b3:6c:14:
                    a3:e8:32:94:e1:5d:91:dc:af:9b:60:31:2f:69:69:
                    21:7e:40:7c:fd:8f:85:f9:a3:92:69:fc:37:f2:9c:
                    20:9c:96:e6:4c:d4:6c:41:b3:c5:04:75:5b:1e:71:
                    0f:dd:53:57:57:7f:a3:26:bf:89:e8:48:d1:b6:dc:
                    53:7e:38:6c:8c:fa:fb:c7:f0:9c:f9:7e:80:eb:76:
                    55:65:06:4b:21:6b:d7:dd:cb:33:6e:7c:01:0f:54:
                    2a:e2:ef:ce:06:34:73:1e:e9:1e:c1:51:48:96:38:
                    a7:3d:bb:4b:91:aa:49:a1:de:f6:04:66:b9:9d:1f:
                    d9:43:9b:69:56:80:fb:5e:76:ed:c0:17:54:aa:c4:
                    88:0f:58:a2:df:8c:a8:dd:d4:12:73:6c:3d:9a:c9:
                    e2:a9:5d:b5:bb:d8:b4:7e:05:4a:92:c5:8f:e5:7e:
                    81:e3:11:b8:ed:cc:ce:91:2c:38:29:d0:eb:7b:65:
                    28:78:75:2d:f5:ac:30:9d:3e:92:e5:ae:0a:13:82:
                    21:fd:e4:f3:56:7f:33:ec:73:17:20:3d:bf:6e:df:
                    22:98:45
                Exponent: 65537 (0x10001)
        X509v3 extensions:
            X509v3 Basic Constraints: 
                CA:FALSE
            Netscape Comment: 
                Easy-RSA Generated Certificate
            X509v3 Subject Key Identifier: 
                12:D9:7B:B1:25:41:A3:A6:A2:B0:8C:6D:9E:08:2A:30:5D:CC:02:F2
            X509v3 Authority Key Identifier: 
                keyid:12:CD:60:04:D2:A0:80:9E:70:ED:C6:99:B8:7B:2C:C6:52:FD:19:A1
                DirName:/C=US/ST=OH/L=Columbus/O=VikingVPN/OU=MyOrganizationalUnit/CN=VikingVPN CA/name=EasyRSA/emailAddress=me@myhost.mydomain
                serial:CF:35:85:EE:80:BF:2A:3E

            X509v3 Extended Key Usage: 
                TLS Web Client Authentication
            X509v3 Key Usage: 
                Digital Signature
    Signature Algorithm: md5WithRSAEncryption
         c6:34:bf:1d:2f:68:91:83:12:65:1c:e3:2a:8d:1e:dd:9b:8e:
         50:99:f3:cc:71:3d:02:ec:30:b0:d9:81:5b:bb:68:b3:6d:99:
         7e:b4:93:d4:32:10:77:1a:be:2e:0b:4a:33:cc:64:10:d7:bb:
         57:07:48:8b:c7:19:9b:3a:c2:0a:6f:0d:4b:a6:9c:56:5e:2d:
         45:ff:85:9e:bb:cd:bd:5f:fa:82:96:25:17:2a:3b:51:52:11:
         b1:ca:e2:55:44:12:a7:8f:89:07:fa:ee:ab:2f:ff:d7:b0:1d:
         f0:a9:10:60:07:0c:70:8a:08:84:ac:1a:ae:a1:4d:b1:7a:fc:
         77:dd:e6:57:1d:f2:5b:c7:a3:62:f1:3f:7b:cd:95:3b:f6:6c:
         da:d7:41:83:a5:56:61:2f:ab:ac:12:45:28:d8:9d:ee:be:b6:
         0e:e4:a6:bb:89:dd:4e:a0:5e:88:78:38:42:67:00:8d:90:dc:
         27:5b:cd:4e:39:f1:09:05:38:e0:ff:08:c5:4f:b7:d9:85:8d:
         85:d1:38:8b:fe:31:39:13:42:1b:01:8e:e8:3d:c8:17:f3:09:
         fb:de:b2:2c:27:88:c2:bd:f5:a5:79:bd:3b:58:d1:77:54:d3:
         78:50:1d:5d:f8:01:fd:60:f4:7a:44:a7:33:58:5d:ea:73:c8:
         4d:0d:24:3c:fd:fa:8b:13:d6:37:79:bf:f4:b5:7f:14:50:a4:
         ca:9f:3c:30:e2:69:42:e0:56:9d:fe:5e:73:4f:c2:d7:14:a7:
         19:54:ee:b5:ad:53:93:9e:01:c4:71:7a:8b:81:43:58:53:a2:
         b7:ec:50:ad:43:bf:2c:64:84:8e:8a:e2:81:53:25:e0:3b:40:
         5e:7b:50:b9:3b:c4:f0:b5:d4:24:2a:b6:d5:b3:79:e5:09:b1:
         a8:2f:47:76:ac:56:2b:9d:3f:c2:43:06:4d:1c:1c:71:44:98:
         14:c9:4d:b6:eb:ae:2d:57:88:78:18:23:d0:34:c1:36:30:9e:
         a2:c4:b2:79:64:42:23:3e:fa:b7:0e:e8:fa:ff:78:a1:e4:50:
         b5:37:e4:03:e1:df:4d:bc:d4:a3:7f:5b:b6:0c:24:ec:09:58:
         d2:67:84:3d:e6:a4:d2:fd:20:52:c2:4a:c2:4e:83:13:94:16:
         0b:b8:dc:d5:1b:dc:8c:f9:05:6a:a6:a0:82:e7:23:d2:d8:90:
         de:c9:37:b3:5a:a5:6d:1b:33:ab:50:87:9d:b3:94:f6:18:4b:
         a0:e9:2c:b3:cf:57:16:a6:50:fa:39:15:e1:77:74:07:b8:e4:
         68:4d:78:ea:03:d0:e1:2d:af:b9:e4:da:5b:3c:b5:8b:03:67:
         71:17:bf:71:53:a1:b1:83
-----BEGIN CERTIFICATE-----
MIIGrTCCBJWgAwIBAgICEIkwDQYJKoZIhvcNAQEEBQAwgawxCzAJBgNVBAYTAlVT
MQswCQYDVQQIEwJPSDERMA8GA1UEBxMIQ29sdW1idXMxEjAQBgNVBAoTCVZpa2lu
Z1ZQTjEdMBsGA1UECxMUTXlPcmdhbml6YXRpb25hbFVuaXQxFTATBgNVBAMTDFZp
a2luZ1ZQTiBDQTEQMA4GA1UEKRMHRWFzeVJTQTEhMB8GCSqGSIb3DQEJARYSbWVA
bXlob3N0Lm15ZG9tYWluMB4XDTE1MDEyMjA1MjQ1N1oXDTI1MDExOTA1MjQ1N1ow
HzEdMBsGA1UEAxMUQ2xpZW50MTM4NUNlcnQ4MzZiNWUwggIiMA0GCSqGSIb3DQEB
AQUAA4ICDwAwggIKAoICAQCY0qtZC1HmV5wjpkthkXxiytTeYQFB35O8vz+Qar+f
pHGk+RrXK6lRKWrB3PPZ/9pcuwIGEGi5z7nbOFOm0VRisW1AgxF7+DDi8gsop8EG
f2crppI4U3X5PR9XmkEEGE+YmalYksr+QH0qqi5qi9ZAbro5ZfL4Fzy7h2zzqJZ2
l4L0D2UV38sHXuOV6rubBqgGdxjfYooeVhEZ9h/SLzTfbAFh3OSkHr4zQdG9zXW8
kQ93rwQBHyjRSI272r5IcK7r8+QfP/Q1M5IrkOF00aaFEqUsbwn/eJfkqXzh84fj
pB+E+0Ai6dgcpG/psUX0flvPHGZJiJ42cim59v0z7962VlZtVL7CozyP7smIaqFF
WREjS1qU93xa4KrxzDSKN99p2vsx7uC8XLNsFKPoMpThXZHcr5tgMS9paSF+QHz9
j4X5o5Jp/DfynCCcluZM1GxBs8UEdVsecQ/dU1dXf6Mmv4noSNG23FN+OGyM+vvH
8Jz5foDrdlVlBksha9fdyzNufAEPVCri784GNHMe6R7BUUiWOKc9u0uRqkmh3vYE
ZrmdH9lDm2lWgPtedu3AF1SqxIgPWKLfjKjd1BJzbD2ayeKpXbW72LR+BUqSxY/l
foHjEbjtzM6RLDgp0Ot7ZSh4dS31rDCdPpLlrgoTgiH95PNWfzPscxcgPb9u3yKY
RQIDAQABo4IBYzCCAV8wCQYDVR0TBAIwADAtBglghkgBhvhCAQ0EIBYeRWFzeS1S
U0EgR2VuZXJhdGVkIENlcnRpZmljYXRlMB0GA1UdDgQWBBQS2XuxJUGjpqKwjG2e
CCowXcwC8jCB4QYDVR0jBIHZMIHWgBQSzWAE0qCAnnDtxpm4eyzGUv0ZoaGBsqSB
rzCBrDELMAkGA1UEBhMCVVMxCzAJBgNVBAgTAk9IMREwDwYDVQQHEwhDb2x1bWJ1
czESMBAGA1UEChMJVmlraW5nVlBOMR0wGwYDVQQLExRNeU9yZ2FuaXphdGlvbmFs
VW5pdDEVMBMGA1UEAxMMVmlraW5nVlBOIENBMRAwDgYDVQQpEwdFYXN5UlNBMSEw
HwYJKoZIhvcNAQkBFhJtZUBteWhvc3QubXlkb21haW6CCQDPNYXugL8qPjATBgNV
HSUEDDAKBggrBgEFBQcDAjALBgNVHQ8EBAMCB4AwDQYJKoZIhvcNAQEEBQADggIB
AMY0vx0vaJGDEmUc4yqNHt2bjlCZ88xxPQLsMLDZgVu7aLNtmX60k9QyEHcavi4L
SjPMZBDXu1cHSIvHGZs6wgpvDUumnFZeLUX/hZ67zb1f+oKWJRcqO1FSEbHK4lVE
EqePiQf67qsv/9ewHfCpEGAHDHCKCISsGq6hTbF6/Hfd5lcd8lvHo2LxP3vNlTv2
bNrXQYOlVmEvq6wSRSjYne6+tg7kpruJ3U6gXoh4OEJnAI2Q3CdbzU458QkFOOD/
CMVPt9mFjYXROIv+MTkTQhsBjug9yBfzCfvesiwniMK99aV5vTtY0XdU03hQHV34
Af1g9HpEpzNYXepzyE0NJDz9+osT1jd5v/S1fxRQpMqfPDDiaULgVp3+XnNPwtcU
pxlU7rWtU5OeAcRxeouBQ1hTorfsUK1DvyxkhI6K4oFTJeA7QF57ULk7xPC11CQq
ttWzeeUJsagvR3asViudP8JDBk0cHHFEmBTJTbbrri1XiHgYI9A0wTYwnqLEsnlk
QiM++rcO6Pr/eKHkULU35APh30281KN/W7YMJOwJWNJnhD3mpNL9IFLCSsJOgxOU
Fgu43NUb3Iz5BWqmoILnI9LYkN7JN7NapW0bM6tQh52zlPYYS6DpLLPPVxamUPo5
FeF3dAe45GhNeOoD0OEtr7nk2ls8tYsDZ3EXv3FTobGD
-----END CERTIFICATE-----
