Certificate:
    Data:
        Version: 3 (0x2)
        Serial Number: 4235 (0x108b)
    Signature Algorithm: md5WithRSAEncryption
        Issuer: C=US, ST=OH, L=Columbus, O=VikingVPN, OU=MyOrganizationalUnit, CN=VikingVPN CA/name=EasyRSA/emailAddress=me@myhost.mydomain
        Validity
            Not Before: Jan 22 06:49:56 2015 GMT
            Not After : Jan 19 06:49:56 2025 GMT
        Subject: CN=Client1378Cert6efdbd
        Subject Public Key Info:
            Public Key Algorithm: rsaEncryption
                Public-Key: (4096 bit)
                Modulus:
                    00:b7:49:96:56:91:dc:e1:96:7a:03:2e:9e:2c:64:
                    41:92:fb:f7:dc:24:a6:b3:f8:9d:cd:e0:88:59:cd:
                    bd:0d:16:9f:1a:22:7c:2e:88:ae:b6:d9:6b:57:86:
                    c1:19:68:35:f3:da:2c:51:63:22:22:d5:4a:1d:33:
                    e0:7a:f9:14:b5:dd:63:0e:13:b1:80:91:53:b3:54:
                    35:05:17:4b:52:f2:50:78:5e:74:2d:40:99:d5:08:
                    6c:67:87:a2:cb:e7:e2:d6:eb:b8:71:f3:f4:51:5a:
                    68:2d:98:2b:8f:d0:bd:e1:b2:5c:1e:b1:eb:a1:10:
                    e3:7e:8a:9c:8c:d8:9b:d2:5f:bc:59:9e:e8:7e:70:
                    90:6c:64:3e:59:f6:11:5b:4e:ed:a9:5c:a6:f3:d6:
                    b2:93:7e:32:12:5d:a5:68:f4:62:cd:ec:6a:51:b5:
                    ed:25:45:2d:2e:4f:92:ce:86:8d:d2:3c:54:89:4e:
                    34:f6:56:68:ec:ba:f1:cb:a7:9a:1d:cd:52:af:ff:
                    f6:7a:8f:41:dc:30:2f:c8:1a:7d:46:d7:fe:61:b1:
                    ad:ac:b4:d3:8c:37:0c:1f:3f:7e:d4:97:62:73:46:
                    2b:c4:36:7c:3d:ee:c1:e6:94:8a:a3:9e:dc:92:58:
                    05:58:65:df:f0:63:3a:c4:42:be:c6:1a:4b:49:47:
                    36:35:06:5e:df:df:4a:cf:5d:45:1f:bf:4b:3d:b9:
                    7d:4d:39:ac:38:1f:a5:6a:73:b4:bf:45:09:ea:a4:
                    d4:df:da:ae:0e:c5:40:c2:2f:b9:5a:a8:00:07:46:
                    25:43:7d:e6:d0:b7:ad:91:66:95:06:db:a3:c3:c1:
                    5a:e1:36:32:11:8b:36:b2:3f:2c:fa:83:77:7b:de:
                    5b:7a:c0:82:d1:b1:33:e7:70:a2:eb:67:4c:85:cf:
                    a3:13:bc:d7:cb:e4:74:0f:09:eb:9d:4b:14:f6:f5:
                    06:32:61:36:5e:5f:49:6d:42:04:fd:40:c7:b4:f0:
                    e3:82:f2:94:e7:53:73:a1:88:07:d1:30:5c:f4:55:
                    8b:73:c0:e3:a3:ff:c3:31:44:f4:b8:28:72:d9:b6:
                    4c:52:84:4b:65:eb:3a:c8:63:92:d4:b9:e1:cd:e3:
                    ba:6b:c0:b3:ad:4d:d5:04:a7:36:85:2b:d2:6b:d5:
                    3e:ad:ab:a8:5e:4d:9f:e7:41:00:28:9d:63:75:c4:
                    69:cd:53:50:6a:69:71:8d:73:ef:62:66:e3:20:c6:
                    1a:39:14:15:57:fa:78:1a:d3:f0:5d:2b:7f:78:06:
                    73:12:da:17:8c:3b:33:0f:34:fd:2c:33:e7:ff:de:
                    04:2c:4e:a6:4f:21:e0:25:2e:96:e4:63:e7:de:51:
                    86:f0:03
                Exponent: 65537 (0x10001)
        X509v3 extensions:
            X509v3 Basic Constraints: 
                CA:FALSE
            Netscape Comment: 
                Easy-RSA Generated Certificate
            X509v3 Subject Key Identifier: 
                26:08:6A:18:AA:04:03:CE:04:13:DC:F4:AC:BA:FD:F6:27:87:BF:3A
            X509v3 Authority Key Identifier: 
                keyid:12:CD:60:04:D2:A0:80:9E:70:ED:C6:99:B8:7B:2C:C6:52:FD:19:A1
                DirName:/C=US/ST=OH/L=Columbus/O=VikingVPN/OU=MyOrganizationalUnit/CN=VikingVPN CA/name=EasyRSA/emailAddress=me@myhost.mydomain
                serial:CF:35:85:EE:80:BF:2A:3E

            X509v3 Extended Key Usage: 
                TLS Web Client Authentication
            X509v3 Key Usage: 
                Digital Signature
    Signature Algorithm: md5WithRSAEncryption
         58:92:dd:46:69:ff:24:eb:db:fa:92:6c:d5:a9:b2:ce:9e:81:
         e8:ae:3f:3f:8f:c1:8c:4c:ce:0b:1e:06:23:54:4b:68:97:35:
         66:0b:3e:8a:b7:6e:e0:a7:67:18:5e:67:84:7e:e6:1a:75:fa:
         ff:a0:0a:26:5c:44:c1:ce:e5:a0:8d:bc:25:3d:c5:bc:4c:aa:
         8a:6d:89:4b:b4:d6:fa:77:7d:ca:30:28:d7:f0:80:56:55:df:
         e0:9e:7a:37:8d:5a:ed:25:ca:cb:ab:be:f3:7c:c2:d8:1a:e3:
         46:c1:b2:15:e4:22:6d:6a:a8:d8:71:b6:ec:84:48:c1:70:b6:
         40:c8:fb:cd:57:14:f1:fe:48:2f:42:d1:a4:05:5c:6a:97:f2:
         83:43:6f:32:45:0f:6a:29:3f:03:1a:da:a2:a6:bf:52:1a:12:
         f7:17:89:16:b9:9f:5a:d9:f2:89:3e:27:d9:08:09:ad:20:72:
         77:d7:67:a9:ee:2e:74:1e:11:f6:8a:96:6b:82:ab:c0:e6:81:
         a4:84:59:47:f1:4a:ec:86:01:c7:87:48:e9:e5:27:c5:21:85:
         98:e4:1c:6c:5f:59:21:d8:56:2a:fb:70:5a:3f:fb:b6:e0:51:
         b3:db:22:51:9a:69:d7:8c:d7:ef:b5:9f:7e:b1:98:45:6c:5d:
         92:2c:d1:10:dc:11:a6:0e:0c:3e:59:b3:62:ed:8b:48:65:21:
         93:63:77:b0:02:2e:73:f2:82:56:b0:20:7b:b6:c2:78:1f:50:
         59:d5:11:83:44:c3:fa:64:98:2c:50:af:05:08:36:8e:e1:2d:
         a7:f1:a9:6a:4b:f0:d4:e0:1b:8c:72:54:07:55:8a:ea:90:d2:
         e6:e7:56:d0:db:7c:78:44:ed:e7:4d:3d:1a:27:45:3f:66:f1:
         15:6a:e6:78:72:87:d9:2e:7f:0a:16:1a:1b:c2:6b:5d:2c:1a:
         e1:b3:77:cc:5a:39:1c:bb:57:55:71:42:8f:04:2f:37:cf:f8:
         98:70:d0:5f:ce:05:08:00:99:0d:ee:7b:56:82:f9:f3:ad:67:
         60:80:6b:7f:56:98:d3:5e:2f:27:c5:b4:ba:08:dc:25:41:f1:
         f3:8d:95:d1:ad:e5:96:e1:02:04:ab:18:0d:1b:e4:eb:9a:11:
         f3:24:69:69:ac:c0:86:5a:de:dc:b7:32:31:af:c5:52:2c:9f:
         ab:b4:90:35:52:2f:b2:e7:c1:4a:5d:02:a8:61:01:a4:bd:cb:
         4a:25:51:1d:1a:c8:22:ba:c8:be:f4:79:bc:d3:c1:81:7c:98:
         83:29:f5:cd:1a:72:9c:74:f1:5a:e1:99:40:3b:3b:0f:4e:8f:
         9e:2a:5d:a5:1c:10:fe:0c
-----BEGIN CERTIFICATE-----
MIIGrTCCBJWgAwIBAgICEIswDQYJKoZIhvcNAQEEBQAwgawxCzAJBgNVBAYTAlVT
MQswCQYDVQQIEwJPSDERMA8GA1UEBxMIQ29sdW1idXMxEjAQBgNVBAoTCVZpa2lu
Z1ZQTjEdMBsGA1UECxMUTXlPcmdhbml6YXRpb25hbFVuaXQxFTATBgNVBAMTDFZp
a2luZ1ZQTiBDQTEQMA4GA1UEKRMHRWFzeVJTQTEhMB8GCSqGSIb3DQEJARYSbWVA
bXlob3N0Lm15ZG9tYWluMB4XDTE1MDEyMjA2NDk1NloXDTI1MDExOTA2NDk1Nlow
HzEdMBsGA1UEAxMUQ2xpZW50MTM3OENlcnQ2ZWZkYmQwggIiMA0GCSqGSIb3DQEB
AQUAA4ICDwAwggIKAoICAQC3SZZWkdzhlnoDLp4sZEGS+/fcJKaz+J3N4IhZzb0N
Fp8aInwuiK622WtXhsEZaDXz2ixRYyIi1UodM+B6+RS13WMOE7GAkVOzVDUFF0tS
8lB4XnQtQJnVCGxnh6LL5+LW67hx8/RRWmgtmCuP0L3hslweseuhEON+ipyM2JvS
X7xZnuh+cJBsZD5Z9hFbTu2pXKbz1rKTfjISXaVo9GLN7GpRte0lRS0uT5LOho3S
PFSJTjT2VmjsuvHLp5odzVKv//Z6j0HcMC/IGn1G1/5hsa2stNOMNwwfP37Ul2Jz
RivENnw97sHmlIqjntySWAVYZd/wYzrEQr7GGktJRzY1Bl7f30rPXUUfv0s9uX1N
Oaw4H6Vqc7S/RQnqpNTf2q4OxUDCL7laqAAHRiVDfebQt62RZpUG26PDwVrhNjIR
izayPyz6g3d73lt6wILRsTPncKLrZ0yFz6MTvNfL5HQPCeudSxT29QYyYTZeX0lt
QgT9QMe08OOC8pTnU3OhiAfRMFz0VYtzwOOj/8MxRPS4KHLZtkxShEtl6zrIY5LU
ueHN47prwLOtTdUEpzaFK9Jr1T6tq6heTZ/nQQAonWN1xGnNU1BqaXGNc+9iZuMg
xho5FBVX+nga0/BdK394BnMS2heMOzMPNP0sM+f/3gQsTqZPIeAlLpbkY+feUYbw
AwIDAQABo4IBYzCCAV8wCQYDVR0TBAIwADAtBglghkgBhvhCAQ0EIBYeRWFzeS1S
U0EgR2VuZXJhdGVkIENlcnRpZmljYXRlMB0GA1UdDgQWBBQmCGoYqgQDzgQT3PSs
uv32J4e/OjCB4QYDVR0jBIHZMIHWgBQSzWAE0qCAnnDtxpm4eyzGUv0ZoaGBsqSB
rzCBrDELMAkGA1UEBhMCVVMxCzAJBgNVBAgTAk9IMREwDwYDVQQHEwhDb2x1bWJ1
czESMBAGA1UEChMJVmlraW5nVlBOMR0wGwYDVQQLExRNeU9yZ2FuaXphdGlvbmFs
VW5pdDEVMBMGA1UEAxMMVmlraW5nVlBOIENBMRAwDgYDVQQpEwdFYXN5UlNBMSEw
HwYJKoZIhvcNAQkBFhJtZUBteWhvc3QubXlkb21haW6CCQDPNYXugL8qPjATBgNV
HSUEDDAKBggrBgEFBQcDAjALBgNVHQ8EBAMCB4AwDQYJKoZIhvcNAQEEBQADggIB
AFiS3UZp/yTr2/qSbNWpss6egeiuPz+PwYxMzgseBiNUS2iXNWYLPoq3buCnZxhe
Z4R+5hp1+v+gCiZcRMHO5aCNvCU9xbxMqoptiUu01vp3fcowKNfwgFZV3+CeejeN
Wu0lysurvvN8wtga40bBshXkIm1qqNhxtuyESMFwtkDI+81XFPH+SC9C0aQFXGqX
8oNDbzJFD2opPwMa2qKmv1IaEvcXiRa5n1rZ8ok+J9kICa0gcnfXZ6nuLnQeEfaK
lmuCq8DmgaSEWUfxSuyGAceHSOnlJ8UhhZjkHGxfWSHYVir7cFo/+7bgUbPbIlGa
adeM1++1n36xmEVsXZIs0RDcEaYODD5Zs2Lti0hlIZNjd7ACLnPyglawIHu2wngf
UFnVEYNEw/pkmCxQrwUINo7hLafxqWpL8NTgG4xyVAdViuqQ0ubnVtDbfHhE7edN
PRonRT9m8RVq5nhyh9kufwoWGhvCa10sGuGzd8xaORy7V1VxQo8ELzfP+Jhw0F/O
BQgAmQ3ue1aC+fOtZ2CAa39WmNNeLyfFtLoI3CVB8fONldGt5ZbhAgSrGA0b5Oua
EfMkaWmswIZa3ty3MjGvxVIsn6u0kDVSL7LnwUpdAqhhAaS9y0olUR0ayCK6yL70
ebzTwYF8mIMp9c0acpx08VrhmUA7Ow9Oj54qXaUcEP4M
-----END CERTIFICATE-----
