Certificate:
    Data:
        Version: 3 (0x2)
        Serial Number: 4249 (0x1099)
    Signature Algorithm: md5WithRSAEncryption
        Issuer: C=US, ST=OH, L=Columbus, O=VikingVPN, OU=MyOrganizationalUnit, CN=VikingVPN CA/name=EasyRSA/emailAddress=me@myhost.mydomain
        Validity
            Not Before: Jan 23 21:21:10 2015 GMT
            Not After : Jan 20 21:21:10 2025 GMT
        Subject: CN=Client1389Cert36a5ee
        Subject Public Key Info:
            Public Key Algorithm: rsaEncryption
                Public-Key: (4096 bit)
                Modulus:
                    00:c7:82:44:c2:77:da:7b:78:2f:5d:bb:43:c0:5f:
                    0f:c9:ad:6a:df:10:ec:70:eb:2a:ad:9e:a1:94:f8:
                    cb:3d:bc:79:48:49:91:57:bc:33:3c:7e:d7:f4:02:
                    9b:68:9c:0d:76:0f:b2:13:5c:13:87:80:df:20:3e:
                    00:a3:c2:dc:aa:80:82:60:bb:83:aa:60:6e:8f:db:
                    eb:43:44:ef:af:f7:a6:bf:60:ff:4e:83:11:fb:4a:
                    aa:4d:7f:a5:1b:d3:f4:e1:ce:f4:83:92:db:25:9c:
                    56:ba:b9:fd:54:a6:9a:4a:ef:c9:d5:65:a5:3f:d2:
                    41:14:c1:e2:8f:44:ad:24:ef:86:93:35:f4:d6:30:
                    7e:95:0e:94:f3:3e:39:83:c0:85:ab:2a:a3:26:15:
                    75:4a:36:e0:e2:67:a4:cd:14:d8:94:d4:56:00:55:
                    fb:4d:4a:a2:dd:2f:d3:82:f6:60:c0:d9:3f:b7:de:
                    18:8b:c2:76:49:b1:d6:06:24:4b:a7:1b:7c:7c:ba:
                    38:43:f8:d9:44:25:3b:fa:cf:96:c8:9e:1b:0f:86:
                    27:a3:cf:09:b7:b2:9b:d0:52:94:bb:b8:f9:00:8c:
                    01:0d:41:7d:33:5e:31:ff:85:03:c8:37:63:c2:88:
                    da:78:b4:70:e6:a4:49:ad:b8:64:88:71:ea:85:be:
                    84:7a:ee:fa:6d:df:36:e0:48:ee:26:e1:74:75:b5:
                    e2:fa:22:d1:1f:6e:2f:27:f4:89:3d:a7:43:3d:d5:
                    8d:99:b7:67:d8:05:dc:76:f0:e6:37:ee:05:33:51:
                    32:5e:af:bb:93:63:77:b0:19:3f:fd:be:f5:a4:d5:
                    90:33:09:17:23:d1:55:1f:d2:92:0c:80:92:66:46:
                    87:9f:11:d1:40:86:3b:d9:bd:bd:c4:c6:19:b9:b4:
                    6c:b3:e5:c3:ac:07:d2:76:7e:a5:bd:b7:f3:c6:69:
                    72:68:09:a0:92:52:77:e0:41:f5:13:19:fe:01:a7:
                    f3:5d:63:c2:18:ac:68:7d:bf:ef:d8:b6:b9:00:19:
                    78:25:99:40:72:7a:dd:28:7d:78:88:09:fb:7c:40:
                    14:c7:ba:1b:4e:11:25:ff:4c:11:f2:34:e7:24:2a:
                    ca:dd:99:e6:ed:dd:6f:b1:bb:fe:6d:db:b5:3e:eb:
                    90:62:2f:74:58:e7:e1:d9:a0:6c:45:fe:8b:02:76:
                    3a:02:5a:b4:ba:fd:06:aa:93:66:58:b4:5f:2c:9c:
                    a8:52:89:e6:8e:24:e1:d2:ae:ab:b7:be:c0:91:21:
                    d0:55:7e:81:df:fe:c2:dd:c5:98:e4:e4:43:27:2d:
                    91:da:87:94:f7:1d:dd:e9:84:6d:1b:c8:14:ba:9e:
                    f9:85:1b
                Exponent: 65537 (0x10001)
        X509v3 extensions:
            X509v3 Basic Constraints: 
                CA:FALSE
            Netscape Comment: 
                Easy-RSA Generated Certificate
            X509v3 Subject Key Identifier: 
                EE:EB:CD:64:5A:A8:A7:8A:8D:6C:C6:C8:A4:52:86:A9:86:4B:CE:C5
            X509v3 Authority Key Identifier: 
                keyid:12:CD:60:04:D2:A0:80:9E:70:ED:C6:99:B8:7B:2C:C6:52:FD:19:A1
                DirName:/C=US/ST=OH/L=Columbus/O=VikingVPN/OU=MyOrganizationalUnit/CN=VikingVPN CA/name=EasyRSA/emailAddress=me@myhost.mydomain
                serial:CF:35:85:EE:80:BF:2A:3E

            X509v3 Extended Key Usage: 
                TLS Web Client Authentication
            X509v3 Key Usage: 
                Digital Signature
    Signature Algorithm: md5WithRSAEncryption
         05:f0:a5:76:8f:22:90:df:9e:40:50:c3:95:0e:37:bb:20:9d:
         8d:de:70:18:71:f9:6e:83:45:eb:6f:f7:06:07:af:b2:05:97:
         cc:5c:c4:3d:f5:b4:1b:15:ca:65:10:a0:22:f9:bd:56:3e:0e:
         b9:d0:a0:64:35:07:d1:5b:27:cd:16:0c:9f:0b:8e:35:f1:0b:
         92:cb:8a:ff:46:fc:b9:8a:fc:0b:77:5c:91:2b:0a:e0:2c:80:
         83:08:ef:18:5e:7d:fc:b7:19:34:10:6c:f3:25:3a:0d:95:a2:
         34:1f:e2:78:79:bf:e1:76:a6:b9:cb:fe:11:d4:42:5d:63:d0:
         cd:1a:89:5a:ae:a3:fb:e8:2f:50:20:bb:9c:d2:45:1e:78:07:
         37:7b:e0:db:f7:9b:51:c5:68:27:6e:a4:6f:a3:6b:19:65:f9:
         48:0c:21:ef:e3:06:50:3e:50:1d:c7:c7:71:61:26:72:48:ae:
         24:61:cf:c0:f8:1a:aa:66:18:96:72:c5:91:0e:09:3b:79:92:
         ec:39:53:24:fa:1b:30:b9:99:db:cf:68:89:6e:27:03:8a:5d:
         38:08:f8:c8:cc:79:62:ab:1e:3e:2a:9f:41:01:68:70:c6:34:
         c7:61:06:85:6b:7f:0a:9c:97:e6:a4:1c:87:26:ee:cd:3f:f7:
         da:9e:4c:01:75:9f:5b:f6:f0:2d:ff:aa:06:ba:8e:6e:77:89:
         20:1a:b1:15:aa:ef:40:50:35:61:f2:07:23:da:8d:63:7f:73:
         2f:18:f5:a3:8e:66:ce:da:b3:13:bc:d6:70:75:91:1e:c9:49:
         5c:4d:81:eb:47:f9:d7:23:b8:01:e4:58:2d:8c:59:fd:7f:ee:
         17:43:af:7f:f9:22:e8:01:a0:ba:ce:d9:b8:69:85:5c:f2:b6:
         ad:3d:23:e6:61:c0:52:9a:88:7c:76:8b:08:ce:52:60:ad:1b:
         8a:18:3a:5b:30:f4:37:7e:95:8b:3e:4c:22:04:93:2a:3e:58:
         6f:e1:04:99:8b:eb:f5:eb:bd:2b:4a:2d:8f:43:b2:53:d4:4f:
         f3:3e:63:88:c0:aa:f5:8d:3a:70:8a:1b:de:62:d8:c4:15:b8:
         33:17:56:a1:e1:1e:7d:50:a4:69:34:54:ff:db:46:56:95:fe:
         f0:5e:f7:3e:a5:5b:2e:09:37:7d:93:af:83:c5:7e:5d:fb:58:
         cb:27:47:f2:ea:d5:b8:9b:93:cd:4f:e3:3f:c2:75:0f:4b:86:
         30:b2:6d:76:ed:57:83:03:06:17:94:9e:70:43:e7:cd:67:c1:
         61:c1:8a:78:4e:cc:9e:9b:bc:00:a1:e8:64:f2:1c:77:d0:cb:
         35:cb:e9:4c:c6:3e:6f:f2
-----BEGIN CERTIFICATE-----
MIIGrTCCBJWgAwIBAgICEJkwDQYJKoZIhvcNAQEEBQAwgawxCzAJBgNVBAYTAlVT
MQswCQYDVQQIEwJPSDERMA8GA1UEBxMIQ29sdW1idXMxEjAQBgNVBAoTCVZpa2lu
Z1ZQTjEdMBsGA1UECxMUTXlPcmdhbml6YXRpb25hbFVuaXQxFTATBgNVBAMTDFZp
a2luZ1ZQTiBDQTEQMA4GA1UEKRMHRWFzeVJTQTEhMB8GCSqGSIb3DQEJARYSbWVA
bXlob3N0Lm15ZG9tYWluMB4XDTE1MDEyMzIxMjExMFoXDTI1MDEyMDIxMjExMFow
HzEdMBsGA1UEAxMUQ2xpZW50MTM4OUNlcnQzNmE1ZWUwggIiMA0GCSqGSIb3DQEB
AQUAA4ICDwAwggIKAoICAQDHgkTCd9p7eC9du0PAXw/JrWrfEOxw6yqtnqGU+Ms9
vHlISZFXvDM8ftf0AptonA12D7ITXBOHgN8gPgCjwtyqgIJgu4OqYG6P2+tDRO+v
96a/YP9OgxH7SqpNf6Ub0/ThzvSDktslnFa6uf1UpppK78nVZaU/0kEUweKPRK0k
74aTNfTWMH6VDpTzPjmDwIWrKqMmFXVKNuDiZ6TNFNiU1FYAVftNSqLdL9OC9mDA
2T+33hiLwnZJsdYGJEunG3x8ujhD+NlEJTv6z5bInhsPhiejzwm3spvQUpS7uPkA
jAENQX0zXjH/hQPIN2PCiNp4tHDmpEmtuGSIceqFvoR67vpt3zbgSO4m4XR1teL6
ItEfbi8n9Ik9p0M91Y2Zt2fYBdx28OY37gUzUTJer7uTY3ewGT/9vvWk1ZAzCRcj
0VUf0pIMgJJmRoefEdFAhjvZvb3Exhm5tGyz5cOsB9J2fqW9t/PGaXJoCaCSUnfg
QfUTGf4Bp/NdY8IYrGh9v+/YtrkAGXglmUByet0ofXiICft8QBTHuhtOESX/TBHy
NOckKsrdmebt3W+xu/5t27U+65BiL3RY5+HZoGxF/osCdjoCWrS6/Qaqk2ZYtF8s
nKhSieaOJOHSrqu3vsCRIdBVfoHf/sLdxZjk5EMnLZHah5T3Hd3phG0byBS6nvmF
GwIDAQABo4IBYzCCAV8wCQYDVR0TBAIwADAtBglghkgBhvhCAQ0EIBYeRWFzeS1S
U0EgR2VuZXJhdGVkIENlcnRpZmljYXRlMB0GA1UdDgQWBBTu681kWqinio1sxsik
UoaphkvOxTCB4QYDVR0jBIHZMIHWgBQSzWAE0qCAnnDtxpm4eyzGUv0ZoaGBsqSB
rzCBrDELMAkGA1UEBhMCVVMxCzAJBgNVBAgTAk9IMREwDwYDVQQHEwhDb2x1bWJ1
czESMBAGA1UEChMJVmlraW5nVlBOMR0wGwYDVQQLExRNeU9yZ2FuaXphdGlvbmFs
VW5pdDEVMBMGA1UEAxMMVmlraW5nVlBOIENBMRAwDgYDVQQpEwdFYXN5UlNBMSEw
HwYJKoZIhvcNAQkBFhJtZUBteWhvc3QubXlkb21haW6CCQDPNYXugL8qPjATBgNV
HSUEDDAKBggrBgEFBQcDAjALBgNVHQ8EBAMCB4AwDQYJKoZIhvcNAQEEBQADggIB
AAXwpXaPIpDfnkBQw5UON7sgnY3ecBhx+W6DRetv9wYHr7IFl8xcxD31tBsVymUQ
oCL5vVY+DrnQoGQ1B9FbJ80WDJ8LjjXxC5LLiv9G/LmK/At3XJErCuAsgIMI7xhe
ffy3GTQQbPMlOg2VojQf4nh5v+F2prnL/hHUQl1j0M0aiVquo/voL1Agu5zSRR54
Bzd74Nv3m1HFaCdupG+jaxll+UgMIe/jBlA+UB3Hx3FhJnJIriRhz8D4GqpmGJZy
xZEOCTt5kuw5UyT6GzC5mdvPaIluJwOKXTgI+MjMeWKrHj4qn0EBaHDGNMdhBoVr
fwqcl+akHIcm7s0/99qeTAF1n1v28C3/qga6jm53iSAasRWq70BQNWHyByPajWN/
cy8Y9aOOZs7asxO81nB1kR7JSVxNgetH+dcjuAHkWC2MWf1/7hdDr3/5IugBoLrO
2bhphVzytq09I+ZhwFKaiHx2iwjOUmCtG4oYOlsw9Dd+lYs+TCIEkyo+WG/hBJmL
6/XrvStKLY9DslPUT/M+Y4jAqvWNOnCKG95i2MQVuDMXVqHhHn1QpGk0VP/bRlaV
/vBe9z6lWy4JN32Tr4PFfl37WMsnR/Lq1bibk81P4z/CdQ9LhjCybXbtV4MDBheU
nnBD581nwWHBinhOzJ6bvACh6GTyHHfQyzXL6UzGPm/y
-----END CERTIFICATE-----
