Certificate:
    Data:
        Version: 3 (0x2)
        Serial Number: 4254 (0x109e)
    Signature Algorithm: md5WithRSAEncryption
        Issuer: C=US, ST=OH, L=Columbus, O=VikingVPN, OU=MyOrganizationalUnit, CN=VikingVPN CA/name=EasyRSA/emailAddress=me@myhost.mydomain
        Validity
            Not Before: Jan 24 03:20:44 2015 GMT
            Not After : Jan 21 03:20:44 2025 GMT
        Subject: CN=Client1391Certccc416
        Subject Public Key Info:
            Public Key Algorithm: rsaEncryption
                Public-Key: (4096 bit)
                Modulus:
                    00:d0:bf:00:94:bd:7b:15:69:b5:25:6a:2b:29:79:
                    5d:ba:a2:9f:34:0c:8f:41:3d:b6:2d:d8:92:4b:3f:
                    f9:f5:ec:37:b6:94:08:65:71:40:34:56:17:87:fe:
                    8e:56:a6:2a:02:f5:2a:cc:a1:cf:e5:f7:89:5d:16:
                    84:24:03:16:e4:7c:65:12:ba:1e:bb:1e:93:58:ab:
                    5c:27:ef:3e:da:fc:6c:4e:ed:83:1f:97:14:71:7f:
                    33:2b:2d:83:6c:bb:38:25:40:46:3a:a2:01:e3:62:
                    ac:94:6b:71:ed:c0:48:e0:cc:ad:77:f3:aa:4a:9a:
                    09:2a:a5:f2:0e:4a:d7:0b:a4:4d:47:d8:fd:e4:6a:
                    0b:dd:f6:23:1e:0d:da:2c:66:da:85:b2:71:f8:0e:
                    00:3a:cf:61:60:b6:01:09:ca:c1:03:f2:92:8c:4a:
                    5a:4e:67:59:34:5d:09:a2:92:27:fa:1b:7a:74:8f:
                    4c:ab:b9:46:bb:a5:94:00:78:ea:93:03:eb:66:ae:
                    52:58:fc:7a:e7:9a:41:8b:c0:22:78:09:3d:af:72:
                    05:d4:e0:39:f7:2b:b5:b0:cf:b0:c7:af:9e:ac:fe:
                    d1:e2:e0:20:2a:7e:72:16:05:63:b3:f3:bc:0f:9c:
                    7a:04:8f:ea:a9:77:38:97:99:72:b6:c8:5c:b6:6f:
                    74:3d:9e:e7:07:69:56:d9:5c:11:dd:6f:e7:79:67:
                    e9:72:2d:25:26:d4:49:72:47:8c:29:56:33:bd:bc:
                    9b:1c:f3:9c:e7:c1:5b:6e:7b:1c:ce:1e:9f:8a:c4:
                    5b:76:05:8f:ea:67:c5:61:04:59:0d:d0:06:a9:f6:
                    26:7b:5a:18:86:b3:a8:f5:aa:1e:c6:7f:a6:cc:d0:
                    45:37:f5:28:b6:c2:42:cb:37:e8:aa:84:3b:ab:05:
                    2a:02:e2:91:40:91:e5:97:cc:29:19:34:ad:fa:5d:
                    1a:17:6b:64:d4:ee:23:62:f4:fb:67:1b:2f:fb:a7:
                    0f:95:de:e0:fc:00:1a:1e:a3:e4:fe:8f:d7:4b:4c:
                    aa:5d:40:d1:58:b0:26:91:b1:c2:9e:67:62:2f:30:
                    a7:5d:fa:07:b4:53:2d:5a:4a:e8:d0:ba:a3:7f:c0:
                    11:34:13:ac:07:c0:20:de:34:14:c6:20:72:0d:a4:
                    8b:29:ea:54:07:d0:d0:c7:61:45:f9:41:39:ad:33:
                    1c:a1:c7:f3:76:2f:52:81:e9:e9:f8:be:bd:f8:4c:
                    23:c4:ad:2a:39:3d:fe:d8:a1:0b:05:1d:17:3a:c9:
                    0f:33:d7:5d:11:7d:3c:4f:4d:2a:af:7d:8b:bd:8e:
                    93:37:71:0d:7c:b9:9f:57:f0:3c:fc:14:a1:c6:28:
                    1f:a2:1d
                Exponent: 65537 (0x10001)
        X509v3 extensions:
            X509v3 Basic Constraints: 
                CA:FALSE
            Netscape Comment: 
                Easy-RSA Generated Certificate
            X509v3 Subject Key Identifier: 
                02:B1:3D:70:A2:76:6E:95:CA:52:B1:31:AA:30:BC:10:96:C7:00:CC
            X509v3 Authority Key Identifier: 
                keyid:12:CD:60:04:D2:A0:80:9E:70:ED:C6:99:B8:7B:2C:C6:52:FD:19:A1
                DirName:/C=US/ST=OH/L=Columbus/O=VikingVPN/OU=MyOrganizationalUnit/CN=VikingVPN CA/name=EasyRSA/emailAddress=me@myhost.mydomain
                serial:CF:35:85:EE:80:BF:2A:3E

            X509v3 Extended Key Usage: 
                TLS Web Client Authentication
            X509v3 Key Usage: 
                Digital Signature
    Signature Algorithm: md5WithRSAEncryption
         03:58:bb:06:25:29:16:e7:57:a7:72:ad:1a:db:db:43:b7:b2:
         ed:69:a8:7c:36:56:57:92:fb:d3:6e:e6:a8:22:1e:4f:78:78:
         89:b9:0e:f3:9f:fd:b6:ad:4a:e9:90:59:a8:8a:5b:30:ed:61:
         cb:db:1a:71:ef:63:43:68:e1:c2:90:ac:5b:bf:bb:e8:bd:63:
         8f:1a:f1:55:60:c9:ec:18:82:36:28:34:6b:94:f7:ee:56:3b:
         e5:c7:d4:00:7c:1a:cc:d7:43:f2:10:da:09:8a:bc:3a:a3:34:
         79:c0:ea:df:ea:50:ff:3a:e9:cb:5a:9e:90:fb:69:6e:c0:95:
         0c:91:8f:5c:13:cc:25:ff:92:d1:1e:c3:e3:b0:43:16:a9:65:
         8d:52:12:0b:51:28:09:08:f9:af:3d:2e:fb:48:e8:ad:4d:94:
         9d:1d:3f:d1:6b:4b:96:6c:bc:55:cd:80:a9:0a:0f:48:f0:9d:
         2f:6c:f8:f5:2b:c0:1e:76:79:ea:6e:85:79:bf:ce:23:5f:1c:
         59:b1:7f:94:03:fa:73:a9:c1:8f:53:bc:61:65:9d:e3:01:4a:
         91:88:bc:bd:e3:e9:d4:2e:ac:b2:e1:17:11:37:d3:7b:c3:22:
         eb:2f:21:95:d0:b7:b2:d8:49:e9:17:94:44:0d:8a:cc:50:2e:
         7c:35:34:7b:97:a9:88:52:e9:02:8b:25:a0:2b:d6:ec:b8:5d:
         0a:75:47:4d:32:81:ef:6d:15:07:1f:e4:68:bb:54:6e:2c:f3:
         fe:c1:01:6e:a3:07:71:91:ed:28:a8:08:74:1d:40:50:af:56:
         e5:ce:6e:8f:dc:f7:68:cc:3d:f3:b8:af:df:d1:d3:05:59:8c:
         9f:79:f6:2a:fb:fe:ad:ea:eb:f4:20:03:e2:77:98:df:a9:e6:
         cf:5f:a2:76:18:b7:e2:7e:fc:99:87:ef:ec:20:5c:ba:fc:a4:
         54:4a:de:47:a4:4f:d7:53:fa:ca:b8:51:26:51:a5:fd:e7:1d:
         97:58:c7:c9:7d:ec:3a:bb:5b:cf:1c:0a:62:f5:33:d6:68:95:
         e1:ae:8e:77:3a:ab:ce:b3:1d:c5:48:43:36:33:fd:3a:fa:ee:
         0a:aa:ba:66:b2:23:d0:78:19:bf:45:42:b5:6f:1d:cc:9c:8a:
         47:ab:66:e7:cd:b2:b6:4d:47:1f:cf:23:9f:5d:12:d3:ff:0c:
         e7:a6:e1:06:fe:ec:2c:65:78:1a:64:d2:8d:25:77:1b:9b:a5:
         b5:a9:44:e6:cc:96:f9:ce:81:73:a1:d4:59:28:9f:45:fd:de:
         fd:ec:8c:1e:97:30:5b:e5:f5:fe:c4:c7:4d:7b:13:43:67:b5:
         eb:df:7c:0b:b6:48:41:09
-----BEGIN CERTIFICATE-----
MIIGrTCCBJWgAwIBAgICEJ4wDQYJKoZIhvcNAQEEBQAwgawxCzAJBgNVBAYTAlVT
MQswCQYDVQQIEwJPSDERMA8GA1UEBxMIQ29sdW1idXMxEjAQBgNVBAoTCVZpa2lu
Z1ZQTjEdMBsGA1UECxMUTXlPcmdhbml6YXRpb25hbFVuaXQxFTATBgNVBAMTDFZp
a2luZ1ZQTiBDQTEQMA4GA1UEKRMHRWFzeVJTQTEhMB8GCSqGSIb3DQEJARYSbWVA
bXlob3N0Lm15ZG9tYWluMB4XDTE1MDEyNDAzMjA0NFoXDTI1MDEyMTAzMjA0NFow
HzEdMBsGA1UEAxMUQ2xpZW50MTM5MUNlcnRjY2M0MTYwggIiMA0GCSqGSIb3DQEB
AQUAA4ICDwAwggIKAoICAQDQvwCUvXsVabUlaispeV26op80DI9BPbYt2JJLP/n1
7De2lAhlcUA0VheH/o5WpioC9SrMoc/l94ldFoQkAxbkfGUSuh67HpNYq1wn7z7a
/GxO7YMflxRxfzMrLYNsuzglQEY6ogHjYqyUa3HtwEjgzK1386pKmgkqpfIOStcL
pE1H2P3kagvd9iMeDdosZtqFsnH4DgA6z2FgtgEJysED8pKMSlpOZ1k0XQmikif6
G3p0j0yruUa7pZQAeOqTA+tmrlJY/HrnmkGLwCJ4CT2vcgXU4Dn3K7Wwz7DHr56s
/tHi4CAqfnIWBWOz87wPnHoEj+qpdziXmXK2yFy2b3Q9nucHaVbZXBHdb+d5Z+ly
LSUm1ElyR4wpVjO9vJsc85znwVtuexzOHp+KxFt2BY/qZ8VhBFkN0Aap9iZ7WhiG
s6j1qh7Gf6bM0EU39Si2wkLLN+iqhDurBSoC4pFAkeWXzCkZNK36XRoXa2TU7iNi
9PtnGy/7pw+V3uD8ABoeo+T+j9dLTKpdQNFYsCaRscKeZ2IvMKdd+ge0Uy1aSujQ
uqN/wBE0E6wHwCDeNBTGIHINpIsp6lQH0NDHYUX5QTmtMxyhx/N2L1KB6en4vr34
TCPErSo5Pf7YoQsFHRc6yQ8z110RfTxPTSqvfYu9jpM3cQ18uZ9X8Dz8FKHGKB+i
HQIDAQABo4IBYzCCAV8wCQYDVR0TBAIwADAtBglghkgBhvhCAQ0EIBYeRWFzeS1S
U0EgR2VuZXJhdGVkIENlcnRpZmljYXRlMB0GA1UdDgQWBBQCsT1wonZulcpSsTGq
MLwQlscAzDCB4QYDVR0jBIHZMIHWgBQSzWAE0qCAnnDtxpm4eyzGUv0ZoaGBsqSB
rzCBrDELMAkGA1UEBhMCVVMxCzAJBgNVBAgTAk9IMREwDwYDVQQHEwhDb2x1bWJ1
czESMBAGA1UEChMJVmlraW5nVlBOMR0wGwYDVQQLExRNeU9yZ2FuaXphdGlvbmFs
VW5pdDEVMBMGA1UEAxMMVmlraW5nVlBOIENBMRAwDgYDVQQpEwdFYXN5UlNBMSEw
HwYJKoZIhvcNAQkBFhJtZUBteWhvc3QubXlkb21haW6CCQDPNYXugL8qPjATBgNV
HSUEDDAKBggrBgEFBQcDAjALBgNVHQ8EBAMCB4AwDQYJKoZIhvcNAQEEBQADggIB
AANYuwYlKRbnV6dyrRrb20O3su1pqHw2VleS+9Nu5qgiHk94eIm5DvOf/batSumQ
WaiKWzDtYcvbGnHvY0No4cKQrFu/u+i9Y48a8VVgyewYgjYoNGuU9+5WO+XH1AB8
GszXQ/IQ2gmKvDqjNHnA6t/qUP866ctanpD7aW7AlQyRj1wTzCX/ktEew+OwQxap
ZY1SEgtRKAkI+a89LvtI6K1NlJ0dP9FrS5ZsvFXNgKkKD0jwnS9s+PUrwB52eepu
hXm/ziNfHFmxf5QD+nOpwY9TvGFlneMBSpGIvL3j6dQurLLhFxE303vDIusvIZXQ
t7LYSekXlEQNisxQLnw1NHuXqYhS6QKLJaAr1uy4XQp1R00yge9tFQcf5Gi7VG4s
8/7BAW6jB3GR7SioCHQdQFCvVuXObo/c92jMPfO4r9/R0wVZjJ959ir7/q3q6/Qg
A+J3mN+p5s9fonYYt+J+/JmH7+wgXLr8pFRK3kekT9dT+sq4USZRpf3nHZdYx8l9
7Dq7W88cCmL1M9ZoleGujnc6q86zHcVIQzYz/Tr67gqqumayI9B4Gb9FQrVvHcyc
ikerZufNsrZNRx/PI59dEtP/DOem4Qb+7CxleBpk0o0ldxubpbWpRObMlvnOgXOh
1Fkon0X93v3sjB6XMFvl9f7Ex017E0NntevffAu2SEEJ
-----END CERTIFICATE-----
