Certificate:
    Data:
        Version: 3 (0x2)
        Serial Number: 4271 (0x10af)
    Signature Algorithm: md5WithRSAEncryption
        Issuer: C=US, ST=OH, L=Columbus, O=VikingVPN, OU=MyOrganizationalUnit, CN=VikingVPN CA/name=EasyRSA/emailAddress=me@myhost.mydomain
        Validity
            Not Before: Jan 26 02:16:20 2015 GMT
            Not After : Jan 23 02:16:20 2025 GMT
        Subject: CN=Client856Certffe11e
        Subject Public Key Info:
            Public Key Algorithm: rsaEncryption
                Public-Key: (4096 bit)
                Modulus:
                    00:e5:70:cf:63:d9:90:d9:c8:40:7e:37:9c:87:29:
                    aa:d5:db:ce:78:92:d7:28:46:29:9f:2f:e9:27:0f:
                    e6:47:f6:94:88:11:c0:da:8b:74:16:23:21:0a:a8:
                    6d:17:60:d3:28:41:79:c6:cc:6e:95:ab:81:99:be:
                    2f:8a:65:3b:20:6d:8c:5e:ee:54:0b:52:a0:92:60:
                    fe:03:31:02:10:32:fc:f4:a2:57:33:dc:da:97:16:
                    15:5a:a8:b4:d9:91:54:0e:f2:19:99:41:a0:9e:55:
                    31:3d:08:72:71:1a:7d:8c:7b:82:e4:0b:da:a2:fe:
                    20:ed:f5:16:76:bc:7f:aa:d6:cf:f3:8a:e6:48:97:
                    11:d6:89:11:ce:e6:30:2f:8b:ff:a0:9a:4c:cf:9c:
                    82:89:d2:eb:f8:0f:c9:a1:3b:48:ae:a2:73:f6:9e:
                    bc:7f:8f:4a:b8:df:e0:ef:ef:f1:69:50:0c:06:b4:
                    21:dd:1e:02:d5:70:5c:80:1e:20:ac:82:4e:e8:61:
                    7d:45:ce:00:ac:14:9e:10:91:b7:3f:cd:1c:d7:17:
                    10:9b:a8:8b:e5:0c:30:6b:0e:e6:e9:a1:4b:e0:49:
                    cb:33:b7:42:c2:7d:e3:2b:ff:a1:e8:c7:8a:65:62:
                    eb:e7:74:88:eb:69:49:63:1e:c9:66:00:d1:74:1b:
                    46:f4:d7:78:11:88:f6:ec:d1:e9:28:21:a5:e2:8f:
                    dc:c4:44:c7:80:f4:c9:b5:43:d2:1f:82:fd:bd:c1:
                    a5:e9:46:fa:51:ef:21:7a:6c:42:06:eb:55:32:20:
                    b8:31:e6:46:d4:34:ca:05:bb:0e:dd:fa:1d:90:79:
                    eb:8a:23:bd:35:f7:f5:41:0d:54:dc:12:c0:9d:76:
                    ea:8e:24:a1:b0:21:e0:4f:28:40:76:78:63:e9:97:
                    04:56:36:73:15:9d:f2:b2:ee:1d:38:43:ad:64:50:
                    65:7a:4d:58:41:f8:cf:6d:0e:cb:e5:ac:29:56:62:
                    ab:eb:21:9f:96:27:ff:03:a9:44:fe:e4:21:16:7a:
                    e7:48:83:9d:06:cb:47:01:30:2d:f2:8a:b2:ee:97:
                    7e:03:5a:26:65:e3:e8:5a:19:ee:16:2b:8a:01:e2:
                    04:e5:c5:b2:86:78:81:af:97:db:01:4f:25:e8:d9:
                    1b:2a:3f:1c:b7:ed:ba:9e:74:65:7f:03:e7:d1:52:
                    24:96:78:db:76:d7:71:ae:11:1b:33:99:85:61:04:
                    03:47:58:94:c2:37:9c:f5:30:6c:99:b7:81:d5:36:
                    58:1f:91:49:f8:ff:9f:c9:96:e3:a3:e5:86:5c:3b:
                    c0:82:71:c7:f1:87:11:48:d3:07:65:55:fa:c8:0a:
                    8c:3f:43
                Exponent: 65537 (0x10001)
        X509v3 extensions:
            X509v3 Basic Constraints: 
                CA:FALSE
            Netscape Comment: 
                Easy-RSA Generated Certificate
            X509v3 Subject Key Identifier: 
                21:77:25:2F:58:DF:AF:57:A6:04:9F:43:E5:22:8F:90:F7:FB:59:7E
            X509v3 Authority Key Identifier: 
                keyid:12:CD:60:04:D2:A0:80:9E:70:ED:C6:99:B8:7B:2C:C6:52:FD:19:A1
                DirName:/C=US/ST=OH/L=Columbus/O=VikingVPN/OU=MyOrganizationalUnit/CN=VikingVPN CA/name=EasyRSA/emailAddress=me@myhost.mydomain
                serial:CF:35:85:EE:80:BF:2A:3E

            X509v3 Extended Key Usage: 
                TLS Web Client Authentication
            X509v3 Key Usage: 
                Digital Signature
    Signature Algorithm: md5WithRSAEncryption
         56:32:70:09:9c:5f:4c:eb:8f:9e:da:1d:6f:05:0a:13:65:17:
         14:6d:e1:0f:fd:bf:a9:5f:4c:bb:c7:9a:b2:c5:3f:50:01:3a:
         6e:ea:c1:7f:c7:7b:3a:74:c5:af:ef:ed:fa:37:ee:59:6c:d2:
         f5:97:f7:1c:00:0d:04:40:4a:e9:d7:43:95:2a:89:d7:1b:13:
         28:a1:ef:6a:36:d7:1d:10:71:3b:fa:34:69:a7:d2:b3:07:ac:
         66:2d:9e:8e:6f:85:49:6d:dd:70:58:ef:8e:6f:41:98:92:49:
         c2:db:ee:a9:ca:f1:50:a5:1e:2b:ca:64:3c:ef:1a:3b:ef:b8:
         08:73:7a:de:3d:89:1d:8b:e9:c3:a5:c1:cf:04:fb:f0:e9:f1:
         44:3a:fe:bc:0f:1d:31:44:55:c9:b9:04:76:0d:4e:fa:af:81:
         a9:3b:2e:0a:bb:00:89:f3:e5:3b:ce:39:12:da:1c:be:02:1a:
         bd:4e:82:bd:ba:ee:ad:44:c9:64:d1:7a:26:08:6e:6c:b6:61:
         e4:08:a7:5b:cd:d3:82:0a:7b:d6:16:39:c6:be:03:1f:cd:8c:
         f2:5d:16:87:5e:9a:70:d8:70:83:7f:34:24:f0:18:6a:7b:6e:
         e6:9f:24:95:e0:b2:b9:77:a5:4f:da:b4:fc:9f:96:1c:44:0c:
         6b:04:89:57:9e:4c:05:cd:5d:fe:5a:fc:ae:c8:80:71:0b:4f:
         61:43:70:aa:6a:d3:43:d9:51:66:97:13:f5:23:7c:86:e1:f7:
         e2:78:13:48:80:e9:df:9f:d6:65:0e:97:9a:98:c6:4b:14:0f:
         5d:9f:20:04:3c:96:38:a1:e3:01:9e:b3:35:3b:87:d9:62:ef:
         d1:9a:f8:33:21:0d:5a:67:e5:ca:ea:f1:31:be:95:d0:c7:4b:
         d7:d4:3c:13:bd:6e:42:e1:2a:16:e2:e0:ab:6f:e9:1a:01:10:
         dc:19:f9:f0:9f:12:06:d0:bd:12:46:5f:de:fc:49:8a:7f:bc:
         39:c4:99:1b:6f:d3:7e:c4:8c:a6:9f:65:68:83:ea:ef:b6:ef:
         0a:d0:69:4f:fe:b4:3f:0a:cd:d0:f4:17:45:42:38:8e:95:c7:
         d4:40:00:3c:bb:61:a5:1e:9c:08:cf:1f:e9:17:cc:d6:c0:09:
         7d:30:ba:fc:79:bd:14:04:31:28:a1:a8:3b:e3:ee:34:16:f1:
         d1:51:2e:ba:bb:c3:73:a4:8e:07:0c:4c:5f:e4:f5:bc:80:ef:
         e2:31:12:80:22:32:98:44:ff:e7:df:79:83:72:eb:1a:b2:cb:
         e9:34:65:1b:a2:92:75:d8:5f:d0:fd:e2:7b:6d:d6:96:c8:6f:
         49:8e:1c:ff:fb:53:6c:ff
-----BEGIN CERTIFICATE-----
MIIGrDCCBJSgAwIBAgICEK8wDQYJKoZIhvcNAQEEBQAwgawxCzAJBgNVBAYTAlVT
MQswCQYDVQQIEwJPSDERMA8GA1UEBxMIQ29sdW1idXMxEjAQBgNVBAoTCVZpa2lu
Z1ZQTjEdMBsGA1UECxMUTXlPcmdhbml6YXRpb25hbFVuaXQxFTATBgNVBAMTDFZp
a2luZ1ZQTiBDQTEQMA4GA1UEKRMHRWFzeVJTQTEhMB8GCSqGSIb3DQEJARYSbWVA
bXlob3N0Lm15ZG9tYWluMB4XDTE1MDEyNjAyMTYyMFoXDTI1MDEyMzAyMTYyMFow
HjEcMBoGA1UEAxMTQ2xpZW50ODU2Q2VydGZmZTExZTCCAiIwDQYJKoZIhvcNAQEB
BQADggIPADCCAgoCggIBAOVwz2PZkNnIQH43nIcpqtXbzniS1yhGKZ8v6ScP5kf2
lIgRwNqLdBYjIQqobRdg0yhBecbMbpWrgZm+L4plOyBtjF7uVAtSoJJg/gMxAhAy
/PSiVzPc2pcWFVqotNmRVA7yGZlBoJ5VMT0IcnEafYx7guQL2qL+IO31Fna8f6rW
z/OK5kiXEdaJEc7mMC+L/6CaTM+cgonS6/gPyaE7SK6ic/aevH+PSrjf4O/v8WlQ
DAa0Id0eAtVwXIAeIKyCTuhhfUXOAKwUnhCRtz/NHNcXEJuoi+UMMGsO5umhS+BJ
yzO3QsJ94yv/oejHimVi6+d0iOtpSWMeyWYA0XQbRvTXeBGI9uzR6SghpeKP3MRE
x4D0ybVD0h+C/b3BpelG+lHvIXpsQgbrVTIguDHmRtQ0ygW7Dt36HZB564ojvTX3
9UENVNwSwJ126o4kobAh4E8oQHZ4Y+mXBFY2cxWd8rLuHThDrWRQZXpNWEH4z20O
y+WsKVZiq+shn5Yn/wOpRP7kIRZ650iDnQbLRwEwLfKKsu6XfgNaJmXj6FoZ7hYr
igHiBOXFsoZ4ga+X2wFPJejZGyo/HLftup50ZX8D59FSJJZ423bXca4RGzOZhWEE
A0dYlMI3nPUwbJm3gdU2WB+RSfj/n8mW46Plhlw7wIJxx/GHEUjTB2VV+sgKjD9D
AgMBAAGjggFjMIIBXzAJBgNVHRMEAjAAMC0GCWCGSAGG+EIBDQQgFh5FYXN5LVJT
QSBHZW5lcmF0ZWQgQ2VydGlmaWNhdGUwHQYDVR0OBBYEFCF3JS9Y369XpgSfQ+Ui
j5D3+1l+MIHhBgNVHSMEgdkwgdaAFBLNYATSoICecO3Gmbh7LMZS/RmhoYGypIGv
MIGsMQswCQYDVQQGEwJVUzELMAkGA1UECBMCT0gxETAPBgNVBAcTCENvbHVtYnVz
MRIwEAYDVQQKEwlWaWtpbmdWUE4xHTAbBgNVBAsTFE15T3JnYW5pemF0aW9uYWxV
bml0MRUwEwYDVQQDEwxWaWtpbmdWUE4gQ0ExEDAOBgNVBCkTB0Vhc3lSU0ExITAf
BgkqhkiG9w0BCQEWEm1lQG15aG9zdC5teWRvbWFpboIJAM81he6Avyo+MBMGA1Ud
JQQMMAoGCCsGAQUFBwMCMAsGA1UdDwQEAwIHgDANBgkqhkiG9w0BAQQFAAOCAgEA
VjJwCZxfTOuPntodbwUKE2UXFG3hD/2/qV9Mu8eassU/UAE6burBf8d7OnTFr+/t
+jfuWWzS9Zf3HAANBEBK6ddDlSqJ1xsTKKHvajbXHRBxO/o0aafSswesZi2ejm+F
SW3dcFjvjm9BmJJJwtvuqcrxUKUeK8pkPO8aO++4CHN63j2JHYvpw6XBzwT78Onx
RDr+vA8dMURVybkEdg1O+q+BqTsuCrsAifPlO845EtocvgIavU6CvbrurUTJZNF6
JghubLZh5AinW83Tggp71hY5xr4DH82M8l0Wh16acNhwg380JPAYantu5p8kleCy
uXelT9q0/J+WHEQMawSJV55MBc1d/lr8rsiAcQtPYUNwqmrTQ9lRZpcT9SN8huH3
4ngTSIDp35/WZQ6XmpjGSxQPXZ8gBDyWOKHjAZ6zNTuH2WLv0Zr4MyENWmflyurx
Mb6V0MdL19Q8E71uQuEqFuLgq2/pGgEQ3Bn58J8SBtC9EkZf3vxJin+8OcSZG2/T
fsSMpp9laIPq77bvCtBpT/60PwrN0PQXRUI4jpXH1EAAPLthpR6cCM8f6RfM1sAJ
fTC6/Hm9FAQxKKGoO+PuNBbx0VEuurvDc6SOBwxMX+T1vIDv4jESgCIymET/5995
g3LrGrLL6TRlG6KSddhf0P3ie23WlshvSY4c//tTbP8=
-----END CERTIFICATE-----
