Certificate:
    Data:
        Version: 3 (0x2)
        Serial Number: 4295 (0x10c7)
    Signature Algorithm: md5WithRSAEncryption
        Issuer: C=US, ST=OH, L=Columbus, O=VikingVPN, OU=MyOrganizationalUnit, CN=VikingVPN CA/name=EasyRSA/emailAddress=me@myhost.mydomain
        Validity
            Not Before: Jan 26 23:16:27 2015 GMT
            Not After : Jan 23 23:16:27 2025 GMT
        Subject: CN=Client1407Certcaa3d0
        Subject Public Key Info:
            Public Key Algorithm: rsaEncryption
                Public-Key: (4096 bit)
                Modulus:
                    00:bc:c9:fd:89:e4:10:ec:bb:4b:14:bf:4a:f2:28:
                    54:ff:59:30:ae:17:3e:1b:ab:a6:d5:3e:50:64:6d:
                    b3:72:77:f0:a3:3c:f9:0c:7d:e8:e7:31:46:d8:92:
                    c3:31:cf:e9:d8:2b:c1:a1:68:55:45:6a:c9:8c:34:
                    d7:d1:49:89:14:86:7d:4f:34:e6:25:d1:01:82:e0:
                    b4:31:99:4b:3c:1f:8a:55:b4:54:62:bc:8c:b0:07:
                    60:c2:34:be:9f:a5:22:71:5a:f7:42:4c:7a:e9:64:
                    8b:ca:b8:af:27:a1:3e:b8:94:ea:5e:cd:cb:88:c7:
                    ea:ad:a8:3f:de:ab:e4:f8:d8:8b:02:85:3d:d3:94:
                    a7:8d:92:c3:81:75:22:1b:80:c2:e2:09:84:72:b9:
                    77:97:f5:14:8f:fc:33:3e:43:ca:e3:c1:9e:10:27:
                    8b:a6:39:6d:b3:25:c1:8d:ee:4f:b4:bd:75:61:71:
                    23:21:0f:b0:bd:2d:c1:e9:a9:83:49:9d:a4:99:9f:
                    19:9d:11:8b:5b:e5:c9:a0:f0:78:09:86:92:1b:8a:
                    2c:46:58:f0:c9:03:1e:c7:9d:73:f8:da:fa:6d:d1:
                    2e:86:77:f1:b3:a6:b2:60:1b:77:2e:68:7d:78:c6:
                    e1:69:fb:ba:05:ef:97:fe:26:99:09:d4:ce:42:ff:
                    ba:be:96:e8:58:9f:c2:55:cd:34:ed:b9:9b:87:da:
                    22:6e:9a:6e:06:a3:26:07:b4:f4:30:02:d5:a0:4b:
                    fc:16:82:3b:a3:40:04:eb:77:32:49:ec:8b:d4:47:
                    d2:7b:15:f7:93:cd:dc:f8:10:8f:e0:92:39:97:9d:
                    7e:61:94:ca:ec:e8:0b:7d:69:9a:2c:ca:ff:10:19:
                    a0:8c:23:7e:87:6b:ed:88:b4:46:c8:36:a5:4b:3b:
                    f4:44:8e:e2:e1:70:20:01:2e:8d:a6:48:41:02:ce:
                    6f:71:91:1f:21:b8:a4:bf:29:80:f6:e6:22:3d:63:
                    bb:0d:9b:fb:eb:ad:c2:c4:d0:42:4d:81:d9:98:1f:
                    dc:7c:36:5f:92:9e:77:4c:eb:23:9e:47:71:9c:d9:
                    b0:d3:a0:fa:ca:4b:17:ad:3c:c4:ea:de:e3:5f:e9:
                    b3:13:b1:b5:99:ef:3b:c9:61:92:47:33:85:f5:74:
                    b1:8d:d9:ab:fa:4f:fc:89:43:10:a6:59:78:5a:0e:
                    f6:14:11:a8:c2:82:6a:8a:60:98:b2:38:42:01:3f:
                    2f:a1:56:30:b1:8b:b9:f2:30:a6:5e:63:5d:a1:9f:
                    16:53:80:72:aa:01:b3:bd:d4:0c:85:cb:2e:00:19:
                    75:b5:6b:69:68:38:0f:7c:82:5b:f5:03:ee:2f:db:
                    34:d3:f7
                Exponent: 65537 (0x10001)
        X509v3 extensions:
            X509v3 Basic Constraints: 
                CA:FALSE
            Netscape Comment: 
                Easy-RSA Generated Certificate
            X509v3 Subject Key Identifier: 
                B6:DB:0B:55:7B:B5:04:9C:32:2E:62:6E:72:EE:10:26:0F:25:2D:62
            X509v3 Authority Key Identifier: 
                keyid:12:CD:60:04:D2:A0:80:9E:70:ED:C6:99:B8:7B:2C:C6:52:FD:19:A1
                DirName:/C=US/ST=OH/L=Columbus/O=VikingVPN/OU=MyOrganizationalUnit/CN=VikingVPN CA/name=EasyRSA/emailAddress=me@myhost.mydomain
                serial:CF:35:85:EE:80:BF:2A:3E

            X509v3 Extended Key Usage: 
                TLS Web Client Authentication
            X509v3 Key Usage: 
                Digital Signature
    Signature Algorithm: md5WithRSAEncryption
         56:ef:c2:2f:ca:39:ef:ef:b0:d9:69:4b:04:a9:ae:e2:61:76:
         16:ba:05:db:37:4b:28:b4:14:9b:50:8b:24:09:b9:a8:a3:bd:
         c6:0c:53:b4:ee:a4:d9:03:68:1d:3e:aa:09:74:d0:70:24:e7:
         a9:13:aa:78:70:f9:c0:83:01:0c:32:91:18:43:20:2c:a3:6d:
         05:bb:6c:c6:9b:1c:a1:36:55:0d:03:42:1e:60:5a:83:44:27:
         4e:28:38:4f:45:fb:54:ff:8c:7b:39:b8:bd:47:57:f8:be:eb:
         56:f2:21:fb:de:4b:40:c0:4f:cd:3f:de:52:29:90:9a:dc:38:
         06:c2:b8:7b:50:e2:41:bc:d8:a0:12:e4:38:04:ab:f0:da:1d:
         cd:ec:6e:6c:9c:29:f1:84:8d:76:09:71:89:34:74:b7:3b:0f:
         af:41:43:d3:12:c8:ba:6f:e5:6b:23:c0:d4:67:3f:e7:6e:e9:
         5a:3a:8f:d3:c0:4e:d4:49:6e:c9:20:3b:db:62:26:31:90:93:
         d6:0d:e6:6d:47:f8:0d:d8:a9:da:46:9c:5c:1f:0b:42:29:6f:
         23:7f:30:14:e3:9e:f0:b5:0f:59:26:4f:09:b4:02:d7:1d:59:
         ba:2f:e8:23:fb:d0:26:da:c3:97:13:b8:bb:75:95:e4:d3:de:
         a2:de:fb:70:9e:69:de:d3:47:c8:1c:92:99:31:e3:df:a4:95:
         32:2c:a5:d6:b1:80:43:2e:be:7d:1f:09:be:d4:27:cc:11:6e:
         40:10:8c:f0:13:66:91:ec:22:f9:d6:25:01:b8:24:e2:b5:cc:
         93:81:41:8f:c8:23:e1:89:c7:98:d5:bd:22:69:bf:aa:04:11:
         43:81:5e:dd:d2:37:ab:24:f7:59:27:90:41:9e:77:0c:a9:d5:
         60:d2:96:50:c0:90:d6:ee:6f:c0:71:b3:a4:d8:5b:ec:f2:75:
         e0:12:ad:22:ba:56:c4:52:ff:8d:a3:b8:5e:b7:3d:6b:ca:c1:
         69:32:77:3c:8a:2a:da:9a:fb:42:58:d1:da:83:04:c5:37:9e:
         9b:64:a0:76:b1:51:7a:66:39:28:85:4e:dc:c8:dc:a0:a9:b4:
         c3:a7:c9:86:d9:15:f9:c7:54:d7:68:6d:d0:f1:3e:b9:42:5e:
         de:14:c8:4d:61:72:08:0f:65:ba:d5:1c:98:c8:70:2c:b4:98:
         17:dd:f3:0d:78:05:1c:2c:91:c0:06:e9:5e:cb:66:3e:7f:be:
         aa:f7:cf:e1:78:a2:18:bc:2e:ce:65:57:aa:02:4d:34:91:9e:
         23:1c:aa:31:34:98:e8:09:ed:dc:a2:79:e9:a2:0d:a4:b6:54:
         00:89:f9:2b:95:c7:ae:d8
-----BEGIN CERTIFICATE-----
MIIGrTCCBJWgAwIBAgICEMcwDQYJKoZIhvcNAQEEBQAwgawxCzAJBgNVBAYTAlVT
MQswCQYDVQQIEwJPSDERMA8GA1UEBxMIQ29sdW1idXMxEjAQBgNVBAoTCVZpa2lu
Z1ZQTjEdMBsGA1UECxMUTXlPcmdhbml6YXRpb25hbFVuaXQxFTATBgNVBAMTDFZp
a2luZ1ZQTiBDQTEQMA4GA1UEKRMHRWFzeVJTQTEhMB8GCSqGSIb3DQEJARYSbWVA
bXlob3N0Lm15ZG9tYWluMB4XDTE1MDEyNjIzMTYyN1oXDTI1MDEyMzIzMTYyN1ow
HzEdMBsGA1UEAxMUQ2xpZW50MTQwN0NlcnRjYWEzZDAwggIiMA0GCSqGSIb3DQEB
AQUAA4ICDwAwggIKAoICAQC8yf2J5BDsu0sUv0ryKFT/WTCuFz4bq6bVPlBkbbNy
d/CjPPkMfejnMUbYksMxz+nYK8GhaFVFasmMNNfRSYkUhn1PNOYl0QGC4LQxmUs8
H4pVtFRivIywB2DCNL6fpSJxWvdCTHrpZIvKuK8noT64lOpezcuIx+qtqD/eq+T4
2IsChT3TlKeNksOBdSIbgMLiCYRyuXeX9RSP/DM+Q8rjwZ4QJ4umOW2zJcGN7k+0
vXVhcSMhD7C9LcHpqYNJnaSZnxmdEYtb5cmg8HgJhpIbiixGWPDJAx7HnXP42vpt
0S6Gd/GzprJgG3cuaH14xuFp+7oF75f+JpkJ1M5C/7q+luhYn8JVzTTtuZuH2iJu
mm4GoyYHtPQwAtWgS/wWgjujQATrdzJJ7IvUR9J7FfeTzdz4EI/gkjmXnX5hlMrs
6At9aZosyv8QGaCMI36Ha+2ItEbINqVLO/REjuLhcCABLo2mSEECzm9xkR8huKS/
KYD25iI9Y7sNm/vrrcLE0EJNgdmYH9x8Nl+SnndM6yOeR3Gc2bDToPrKSxetPMTq
3uNf6bMTsbWZ7zvJYZJHM4X1dLGN2av6T/yJQxCmWXhaDvYUEajCgmqKYJiyOEIB
Py+hVjCxi7nyMKZeY12hnxZTgHKqAbO91AyFyy4AGXW1a2loOA98glv1A+4v2zTT
9wIDAQABo4IBYzCCAV8wCQYDVR0TBAIwADAtBglghkgBhvhCAQ0EIBYeRWFzeS1S
U0EgR2VuZXJhdGVkIENlcnRpZmljYXRlMB0GA1UdDgQWBBS22wtVe7UEnDIuYm5y
7hAmDyUtYjCB4QYDVR0jBIHZMIHWgBQSzWAE0qCAnnDtxpm4eyzGUv0ZoaGBsqSB
rzCBrDELMAkGA1UEBhMCVVMxCzAJBgNVBAgTAk9IMREwDwYDVQQHEwhDb2x1bWJ1
czESMBAGA1UEChMJVmlraW5nVlBOMR0wGwYDVQQLExRNeU9yZ2FuaXphdGlvbmFs
VW5pdDEVMBMGA1UEAxMMVmlraW5nVlBOIENBMRAwDgYDVQQpEwdFYXN5UlNBMSEw
HwYJKoZIhvcNAQkBFhJtZUBteWhvc3QubXlkb21haW6CCQDPNYXugL8qPjATBgNV
HSUEDDAKBggrBgEFBQcDAjALBgNVHQ8EBAMCB4AwDQYJKoZIhvcNAQEEBQADggIB
AFbvwi/KOe/vsNlpSwSpruJhdha6Bds3Syi0FJtQiyQJuaijvcYMU7TupNkDaB0+
qgl00HAk56kTqnhw+cCDAQwykRhDICyjbQW7bMabHKE2VQ0DQh5gWoNEJ04oOE9F
+1T/jHs5uL1HV/i+61byIfveS0DAT80/3lIpkJrcOAbCuHtQ4kG82KAS5DgEq/Da
Hc3sbmycKfGEjXYJcYk0dLc7D69BQ9MSyLpv5WsjwNRnP+du6Vo6j9PATtRJbskg
O9tiJjGQk9YN5m1H+A3YqdpGnFwfC0IpbyN/MBTjnvC1D1kmTwm0AtcdWbov6CP7
0Cbaw5cTuLt1leTT3qLe+3Cead7TR8gckpkx49+klTIspdaxgEMuvn0fCb7UJ8wR
bkAQjPATZpHsIvnWJQG4JOK1zJOBQY/II+GJx5jVvSJpv6oEEUOBXt3SN6sk91kn
kEGedwyp1WDSllDAkNbub8Bxs6TYW+zydeASrSK6VsRS/42juF63PWvKwWkydzyK
Ktqa+0JY0dqDBMU3nptkoHaxUXpmOSiFTtzI3KCptMOnyYbZFfnHVNdobdDxPrlC
Xt4UyE1hcggPZbrVHJjIcCy0mBfd8w14BRwskcAG6V7LZj5/vqr3z+F4ohi8Ls5l
V6oCTTSRniMcqjE0mOgJ7dyieemiDaS2VACJ+SuVx67Y
-----END CERTIFICATE-----
