Certificate:
    Data:
        Version: 3 (0x2)
        Serial Number: 4297 (0x10c9)
    Signature Algorithm: md5WithRSAEncryption
        Issuer: C=US, ST=OH, L=Columbus, O=VikingVPN, OU=MyOrganizationalUnit, CN=VikingVPN CA/name=EasyRSA/emailAddress=me@myhost.mydomain
        Validity
            Not Before: Jan 27 00:59:38 2015 GMT
            Not After : Jan 24 00:59:38 2025 GMT
        Subject: CN=Client1407Cert6fb7f3
        Subject Public Key Info:
            Public Key Algorithm: rsaEncryption
                Public-Key: (4096 bit)
                Modulus:
                    00:c4:7a:17:a9:80:76:6d:77:d7:cc:51:4e:0e:c1:
                    0e:f0:e4:72:5d:54:d9:90:c0:80:7f:80:4d:a5:fe:
                    f9:a0:19:4a:31:d1:b1:9c:9c:72:ed:09:3d:39:85:
                    d1:6b:15:59:d6:71:b3:de:95:40:75:2a:45:db:e7:
                    2c:47:cd:11:4d:b7:5e:3f:03:13:d1:5b:87:87:9e:
                    1e:6c:94:5e:57:1a:e7:32:20:b3:22:43:fd:f0:ab:
                    53:6f:92:88:fb:6a:4e:10:e9:9d:2d:a8:de:41:ec:
                    ea:bb:bc:41:69:19:23:a9:b7:bb:eb:17:1d:47:70:
                    fe:b0:74:e6:62:0a:bf:9e:44:6c:66:fa:89:37:49:
                    b7:8b:c5:d6:2e:e7:c2:aa:43:12:ca:0c:e9:eb:9a:
                    0c:7b:74:04:66:6f:d7:a5:17:16:8b:c1:83:77:1d:
                    5b:d5:67:6b:08:d6:65:aa:6b:3c:a1:62:5b:0d:c4:
                    0c:3c:be:35:0d:0d:21:0f:4f:7e:ae:04:b3:e2:e0:
                    b4:34:a3:2c:e4:2c:3f:60:3e:1a:cd:a7:45:4d:6f:
                    c5:24:43:ad:b2:ac:6a:0d:fc:dc:29:34:36:89:69:
                    36:b3:c4:47:75:6f:16:46:87:47:56:ba:26:fe:d5:
                    3a:d9:0d:7f:66:71:06:f6:cc:d8:9b:43:b3:2d:8c:
                    29:61:91:08:19:42:39:21:88:23:94:90:4c:a5:f5:
                    67:0f:6c:4b:73:f3:2c:cd:05:26:0f:28:dc:36:6e:
                    25:f1:13:1a:79:09:53:af:da:6f:ad:38:4f:be:71:
                    22:83:44:99:6b:f6:a1:e2:df:76:f1:15:ed:56:81:
                    b4:a7:05:b4:64:4c:b8:b4:38:7a:3e:4d:ef:9b:48:
                    82:56:26:d7:45:04:77:a4:f3:30:84:41:e1:5c:23:
                    96:c3:80:3c:3d:0c:70:e1:92:20:54:71:5e:0d:f6:
                    fc:4e:04:4e:85:08:6a:54:68:c0:91:b2:52:6b:bf:
                    f1:37:a6:82:29:cc:d3:01:36:a3:23:26:b3:bb:45:
                    2e:23:25:4e:4d:9d:e2:14:58:9f:f4:75:3f:17:1d:
                    27:4f:02:2c:13:8a:4f:da:ac:6e:d4:1f:f0:d2:5c:
                    bd:b3:f6:26:c8:a3:d1:90:74:b5:a8:75:32:9a:1c:
                    b6:76:e3:53:83:80:7e:a7:e2:79:6a:c7:eb:35:60:
                    f7:e1:4b:47:2f:c5:c4:2f:c5:59:6a:b8:3d:9b:bc:
                    1a:70:b7:e2:37:f2:a7:fc:3c:ad:c3:e3:5f:49:89:
                    29:e7:3f:86:7c:9c:1d:84:75:a8:9d:c9:93:a4:0b:
                    1f:b0:27:35:93:41:38:b0:8b:27:f7:44:2e:96:33:
                    d3:27:63
                Exponent: 65537 (0x10001)
        X509v3 extensions:
            X509v3 Basic Constraints: 
                CA:FALSE
            Netscape Comment: 
                Easy-RSA Generated Certificate
            X509v3 Subject Key Identifier: 
                C7:50:AE:1E:F4:35:27:31:96:61:F1:ED:A9:CA:60:46:8B:98:84:3A
            X509v3 Authority Key Identifier: 
                keyid:12:CD:60:04:D2:A0:80:9E:70:ED:C6:99:B8:7B:2C:C6:52:FD:19:A1
                DirName:/C=US/ST=OH/L=Columbus/O=VikingVPN/OU=MyOrganizationalUnit/CN=VikingVPN CA/name=EasyRSA/emailAddress=me@myhost.mydomain
                serial:CF:35:85:EE:80:BF:2A:3E

            X509v3 Extended Key Usage: 
                TLS Web Client Authentication
            X509v3 Key Usage: 
                Digital Signature
    Signature Algorithm: md5WithRSAEncryption
         84:13:60:0d:0a:76:2d:fc:34:2d:92:d2:8f:5d:92:33:e1:10:
         b8:b4:cc:59:dd:58:c1:a5:3f:21:29:9d:75:e5:7e:f4:fe:6e:
         38:8c:91:44:cc:c8:69:79:24:6b:1f:0e:88:80:30:80:7d:6c:
         85:b7:99:e5:05:d7:13:4d:8f:33:ba:f5:98:79:98:46:fa:86:
         84:38:31:41:6c:93:24:f8:d0:de:f5:9e:de:2f:f8:ce:67:3d:
         f1:58:2a:db:6f:90:b8:47:dc:e1:c5:b3:d2:31:7b:5c:4e:9e:
         83:ed:cc:05:a4:7a:2d:03:ae:13:de:6f:d1:49:22:0d:fb:30:
         9a:14:93:2f:79:c1:94:21:e2:87:13:5c:89:36:1d:41:45:03:
         47:ff:5e:8c:27:3d:a5:d9:6c:fa:25:e8:73:fb:6f:04:d6:8e:
         a7:c7:1a:46:4d:0e:4c:9d:bd:50:86:93:87:19:3f:97:ba:e2:
         21:b1:d1:01:06:61:e2:a0:95:d9:93:7f:a3:2e:11:86:cf:7a:
         e5:75:d0:3b:fe:c8:9b:ce:33:7c:fe:52:03:e8:cf:6c:0f:0b:
         24:0f:55:69:5e:1f:f2:2f:56:14:bd:00:24:aa:00:57:b1:38:
         b9:60:a1:b7:de:3b:fe:a4:75:82:bc:80:f4:ee:7a:21:ed:a3:
         8d:d4:1e:83:09:05:c4:d6:fc:44:c9:58:ff:f1:86:90:a6:2d:
         4a:b4:c9:e5:70:81:f1:18:70:80:ee:93:2b:1f:a0:e5:8c:a0:
         27:bb:db:1b:55:51:a4:4f:9a:1d:7b:32:44:31:2f:4c:e4:6b:
         ff:fe:f3:13:84:e8:db:ab:98:08:4d:60:75:7f:72:06:ea:50:
         d9:a5:d8:04:72:67:af:81:94:c8:75:16:a0:31:34:3f:84:1b:
         50:94:a5:21:f2:52:2e:2c:fe:57:fa:96:a8:88:82:71:b9:da:
         b2:4e:35:5a:e2:80:03:32:1c:c5:c5:c5:45:15:61:d5:0b:5f:
         4e:39:8c:24:2f:84:4f:db:3b:c1:76:f6:51:f0:69:71:72:b7:
         63:17:ed:99:8b:f9:da:a3:ec:df:18:26:6b:28:52:98:9b:f1:
         02:00:72:d7:20:c5:68:ba:34:b4:7e:ff:c0:73:1e:f9:7e:4d:
         f0:37:c2:00:9a:4d:66:25:36:7d:25:80:4e:e9:3c:75:59:a1:
         71:7d:2d:e3:64:c0:2f:de:80:48:fd:50:dd:d9:a1:2f:5d:c4:
         2a:d8:ee:c5:e1:84:c2:57:8a:c1:a4:13:74:5e:90:20:1e:7f:
         35:94:4b:6e:94:0e:f2:4a:e0:98:77:4c:00:16:91:ba:73:6c:
         0d:9b:84:e6:9e:a0:5b:73
-----BEGIN CERTIFICATE-----
MIIGrTCCBJWgAwIBAgICEMkwDQYJKoZIhvcNAQEEBQAwgawxCzAJBgNVBAYTAlVT
MQswCQYDVQQIEwJPSDERMA8GA1UEBxMIQ29sdW1idXMxEjAQBgNVBAoTCVZpa2lu
Z1ZQTjEdMBsGA1UECxMUTXlPcmdhbml6YXRpb25hbFVuaXQxFTATBgNVBAMTDFZp
a2luZ1ZQTiBDQTEQMA4GA1UEKRMHRWFzeVJTQTEhMB8GCSqGSIb3DQEJARYSbWVA
bXlob3N0Lm15ZG9tYWluMB4XDTE1MDEyNzAwNTkzOFoXDTI1MDEyNDAwNTkzOFow
HzEdMBsGA1UEAxMUQ2xpZW50MTQwN0NlcnQ2ZmI3ZjMwggIiMA0GCSqGSIb3DQEB
AQUAA4ICDwAwggIKAoICAQDEehepgHZtd9fMUU4OwQ7w5HJdVNmQwIB/gE2l/vmg
GUox0bGcnHLtCT05hdFrFVnWcbPelUB1KkXb5yxHzRFNt14/AxPRW4eHnh5slF5X
GucyILMiQ/3wq1Nvkoj7ak4Q6Z0tqN5B7Oq7vEFpGSOpt7vrFx1HcP6wdOZiCr+e
RGxm+ok3SbeLxdYu58KqQxLKDOnrmgx7dARmb9elFxaLwYN3HVvVZ2sI1mWqazyh
YlsNxAw8vjUNDSEPT36uBLPi4LQ0oyzkLD9gPhrNp0VNb8UkQ62yrGoN/NwpNDaJ
aTazxEd1bxZGh0dWuib+1TrZDX9mcQb2zNibQ7MtjClhkQgZQjkhiCOUkEyl9WcP
bEtz8yzNBSYPKNw2biXxExp5CVOv2m+tOE++cSKDRJlr9qHi33bxFe1WgbSnBbRk
TLi0OHo+Te+bSIJWJtdFBHek8zCEQeFcI5bDgDw9DHDhkiBUcV4N9vxOBE6FCGpU
aMCRslJrv/E3poIpzNMBNqMjJrO7RS4jJU5NneIUWJ/0dT8XHSdPAiwTik/arG7U
H/DSXL2z9ibIo9GQdLWodTKaHLZ241ODgH6n4nlqx+s1YPfhS0cvxcQvxVlquD2b
vBpwt+I38qf8PK3D419JiSnnP4Z8nB2EdaidyZOkCx+wJzWTQTiwiyf3RC6WM9Mn
YwIDAQABo4IBYzCCAV8wCQYDVR0TBAIwADAtBglghkgBhvhCAQ0EIBYeRWFzeS1S
U0EgR2VuZXJhdGVkIENlcnRpZmljYXRlMB0GA1UdDgQWBBTHUK4e9DUnMZZh8e2p
ymBGi5iEOjCB4QYDVR0jBIHZMIHWgBQSzWAE0qCAnnDtxpm4eyzGUv0ZoaGBsqSB
rzCBrDELMAkGA1UEBhMCVVMxCzAJBgNVBAgTAk9IMREwDwYDVQQHEwhDb2x1bWJ1
czESMBAGA1UEChMJVmlraW5nVlBOMR0wGwYDVQQLExRNeU9yZ2FuaXphdGlvbmFs
VW5pdDEVMBMGA1UEAxMMVmlraW5nVlBOIENBMRAwDgYDVQQpEwdFYXN5UlNBMSEw
HwYJKoZIhvcNAQkBFhJtZUBteWhvc3QubXlkb21haW6CCQDPNYXugL8qPjATBgNV
HSUEDDAKBggrBgEFBQcDAjALBgNVHQ8EBAMCB4AwDQYJKoZIhvcNAQEEBQADggIB
AIQTYA0Kdi38NC2S0o9dkjPhELi0zFndWMGlPyEpnXXlfvT+bjiMkUTMyGl5JGsf
DoiAMIB9bIW3meUF1xNNjzO69Zh5mEb6hoQ4MUFskyT40N71nt4v+M5nPfFYKttv
kLhH3OHFs9Ixe1xOnoPtzAWkei0DrhPeb9FJIg37MJoUky95wZQh4ocTXIk2HUFF
A0f/XownPaXZbPol6HP7bwTWjqfHGkZNDkydvVCGk4cZP5e64iGx0QEGYeKgldmT
f6MuEYbPeuV10Dv+yJvOM3z+UgPoz2wPCyQPVWleH/IvVhS9ACSqAFexOLlgobfe
O/6kdYK8gPTueiHto43UHoMJBcTW/ETJWP/xhpCmLUq0yeVwgfEYcIDukysfoOWM
oCe72xtVUaRPmh17MkQxL0zka//+8xOE6NurmAhNYHV/cgbqUNml2ARyZ6+BlMh1
FqAxND+EG1CUpSHyUi4s/lf6lqiIgnG52rJONVrigAMyHMXFxUUVYdULX045jCQv
hE/bO8F29lHwaXFyt2MX7ZmL+dqj7N8YJmsoUpib8QIActcgxWi6NLR+/8BzHvl+
TfA3wgCaTWYlNn0lgE7pPHVZoXF9LeNkwC/egEj9UN3ZoS9dxCrY7sXhhMJXisGk
E3RekCAefzWUS26UDvJK4Jh3TAAWkbpzbA2bhOaeoFtz
-----END CERTIFICATE-----
