Certificate:
    Data:
        Version: 3 (0x2)
        Serial Number: 4319 (0x10df)
    Signature Algorithm: md5WithRSAEncryption
        Issuer: C=US, ST=OH, L=Columbus, O=VikingVPN, OU=MyOrganizationalUnit, CN=VikingVPN CA/name=EasyRSA/emailAddress=me@myhost.mydomain
        Validity
            Not Before: Jan 28 22:59:19 2015 GMT
            Not After : Jan 25 22:59:19 2025 GMT
        Subject: CN=Client1410Cert7b8e62
        Subject Public Key Info:
            Public Key Algorithm: rsaEncryption
                Public-Key: (4096 bit)
                Modulus:
                    00:d2:5d:8a:b6:dd:50:c3:ef:94:03:1b:77:bb:55:
                    d3:dd:02:26:0a:75:ac:72:05:8a:28:fc:04:02:c6:
                    df:ac:9a:01:bc:6a:bb:a5:7d:20:c4:b3:ee:47:61:
                    29:f3:00:dd:d4:7a:d8:f8:a7:fe:ea:87:31:93:4d:
                    1d:07:12:6a:eb:cc:05:1a:89:d6:51:a8:34:fa:02:
                    4d:27:50:5a:ed:23:85:6a:5c:25:8e:46:47:a3:78:
                    c8:3c:a1:51:bc:e6:39:54:2c:48:bf:8f:f0:f2:de:
                    0d:e7:f0:a4:fc:6e:a3:72:b4:de:12:d9:2f:83:aa:
                    ae:79:75:55:61:d7:57:f6:66:17:58:ff:fd:3d:03:
                    da:2c:98:a8:ec:1e:d3:5b:6e:47:7e:af:ae:fd:c8:
                    df:ca:5e:0f:41:ab:00:f6:b9:ff:96:e2:15:dd:38:
                    b3:09:de:eb:45:5b:cf:ae:28:43:16:a5:12:61:98:
                    4a:54:d9:ff:08:b3:02:f1:b3:60:0f:62:8b:bf:9b:
                    0b:92:a4:6e:49:7b:ca:2a:0a:b5:b0:54:55:5a:62:
                    b9:d1:2d:60:e0:53:99:49:33:3f:25:9c:67:fc:9b:
                    f9:7f:a0:f9:73:05:88:e6:da:81:c0:e0:1b:d3:8b:
                    4e:a2:19:b5:13:ad:16:7d:0b:86:a1:50:40:c1:4b:
                    c9:cd:0a:85:d4:19:c8:f6:11:46:b4:00:77:e5:e8:
                    3c:ac:02:03:3a:70:a8:c7:0a:2f:61:be:17:31:af:
                    eb:d1:ca:67:58:1f:a7:b7:49:0f:f9:ba:f6:8a:79:
                    e1:6f:c3:f0:6d:3b:94:12:21:74:ba:be:3b:86:2b:
                    c3:b8:a1:2f:c1:f7:d3:74:0d:12:f3:05:8a:4d:1e:
                    22:51:11:f4:aa:eb:3d:0d:84:0c:22:2b:15:58:c7:
                    46:04:c1:99:af:e7:82:94:33:c3:7e:c9:02:5c:38:
                    38:09:4b:9b:48:dc:3f:75:ce:6d:df:56:20:43:49:
                    bb:4d:86:ca:3f:0f:9d:cf:f8:28:54:ad:7f:26:23:
                    9b:0d:ec:d3:5d:a5:a0:e3:f1:e9:4d:45:be:01:ea:
                    a7:b6:23:fe:a8:c1:00:73:bf:0b:76:ba:2d:17:0b:
                    a4:6e:30:9c:89:86:4b:ef:9c:3d:96:4f:37:66:fc:
                    8c:13:47:66:c5:68:dc:0e:34:15:29:4b:f3:93:da:
                    4f:d2:6d:70:5b:a5:fe:96:02:d3:a0:5b:44:f4:97:
                    bc:db:c1:b3:87:18:b4:a0:66:83:87:8f:3f:67:a5:
                    d9:7f:fe:5a:de:f5:8b:c2:0c:71:6a:ca:34:98:53:
                    c3:2e:4f:d6:11:2a:e1:fb:5a:84:da:25:e4:6d:73:
                    7b:eb:41
                Exponent: 65537 (0x10001)
        X509v3 extensions:
            X509v3 Basic Constraints: 
                CA:FALSE
            Netscape Comment: 
                Easy-RSA Generated Certificate
            X509v3 Subject Key Identifier: 
                E3:AB:07:EB:08:EE:72:0D:C9:3F:89:28:AD:7C:43:A2:A5:2A:DA:8B
            X509v3 Authority Key Identifier: 
                keyid:12:CD:60:04:D2:A0:80:9E:70:ED:C6:99:B8:7B:2C:C6:52:FD:19:A1
                DirName:/C=US/ST=OH/L=Columbus/O=VikingVPN/OU=MyOrganizationalUnit/CN=VikingVPN CA/name=EasyRSA/emailAddress=me@myhost.mydomain
                serial:CF:35:85:EE:80:BF:2A:3E

            X509v3 Extended Key Usage: 
                TLS Web Client Authentication
            X509v3 Key Usage: 
                Digital Signature
    Signature Algorithm: md5WithRSAEncryption
         86:f3:03:5d:fa:85:41:14:24:ab:12:99:dd:86:67:cc:82:e7:
         76:e7:1f:bf:71:cf:4a:9c:d9:d9:46:7e:9d:e7:07:6a:ce:ec:
         f5:41:12:ee:f3:e1:d8:38:98:8d:cf:79:02:93:7e:13:67:c8:
         eb:21:04:8a:44:0f:2c:6d:82:ba:f0:0a:1e:dc:37:d0:fc:bf:
         e9:9d:b6:f6:b7:bb:97:44:14:3d:16:30:e1:ef:49:87:ef:7c:
         9c:43:dc:a6:a0:a8:a3:8d:ba:86:f1:d3:a4:e0:79:39:c2:27:
         6e:2f:f1:e4:32:f3:64:45:a4:87:31:24:da:3a:a4:67:fa:8d:
         4c:7d:71:bc:83:e6:50:86:e1:8f:d5:14:9b:26:25:f0:80:b4:
         6b:00:f3:eb:51:bb:87:ed:96:02:f7:d6:63:c8:01:5b:d1:02:
         b6:1d:49:5f:2f:c8:cd:99:f6:af:6a:23:13:fa:35:59:22:a7:
         ad:af:08:2a:a0:0f:26:6a:a3:ab:59:7e:6c:18:95:2b:cf:51:
         a0:67:4f:c0:e4:66:0d:be:7e:57:4e:ed:35:1a:f6:86:91:ac:
         d8:26:e5:55:ca:8e:0f:38:96:d3:05:2e:bc:02:2c:06:96:a4:
         65:b9:77:b1:72:85:88:a6:da:b0:e5:4a:3a:b3:79:6f:bf:a4:
         31:df:5c:cf:b7:05:cc:e5:9b:19:5d:64:c5:f7:68:bb:e1:f2:
         2c:97:f7:08:9a:48:af:74:b0:4b:43:7d:df:74:2e:2a:9e:c9:
         7c:61:9b:56:6e:3b:1a:5b:68:d1:00:2c:11:ad:7b:ce:89:ba:
         50:31:7e:52:db:5c:b1:88:c1:47:ae:a5:90:c0:fe:83:44:dd:
         14:51:b5:9d:20:e5:ba:c1:a1:86:fc:86:41:69:b9:04:e2:c9:
         66:37:ea:f7:c2:48:f5:04:8d:d4:ef:35:2a:e4:95:f9:54:ba:
         e5:2b:58:bb:ee:4d:a5:e8:56:af:b7:e8:8a:26:df:6a:56:6e:
         0d:d9:65:ee:13:9c:ed:0c:f1:e8:dc:7e:90:7e:ed:bf:5d:c2:
         a3:04:e6:dc:b4:17:a6:d9:8d:a5:ea:fc:dc:f9:66:e1:bd:62:
         04:92:07:05:d2:30:ba:9c:0f:0b:0c:20:b8:c4:09:15:17:ac:
         db:57:61:fa:43:4c:10:a4:58:1d:8d:1d:5b:46:80:32:73:9c:
         78:09:ad:89:56:dd:99:84:3e:e5:f8:1f:d4:44:08:63:1b:d5:
         71:ce:7d:02:21:fe:8f:1f:dc:1b:0c:73:19:f4:bc:4a:e0:d8:
         97:9e:48:98:32:e3:76:78:e1:be:16:c3:61:76:94:a1:d9:de:
         0e:74:b7:a4:f5:13:2c:aa
-----BEGIN CERTIFICATE-----
MIIGrTCCBJWgAwIBAgICEN8wDQYJKoZIhvcNAQEEBQAwgawxCzAJBgNVBAYTAlVT
MQswCQYDVQQIEwJPSDERMA8GA1UEBxMIQ29sdW1idXMxEjAQBgNVBAoTCVZpa2lu
Z1ZQTjEdMBsGA1UECxMUTXlPcmdhbml6YXRpb25hbFVuaXQxFTATBgNVBAMTDFZp
a2luZ1ZQTiBDQTEQMA4GA1UEKRMHRWFzeVJTQTEhMB8GCSqGSIb3DQEJARYSbWVA
bXlob3N0Lm15ZG9tYWluMB4XDTE1MDEyODIyNTkxOVoXDTI1MDEyNTIyNTkxOVow
HzEdMBsGA1UEAxMUQ2xpZW50MTQxMENlcnQ3YjhlNjIwggIiMA0GCSqGSIb3DQEB
AQUAA4ICDwAwggIKAoICAQDSXYq23VDD75QDG3e7VdPdAiYKdaxyBYoo/AQCxt+s
mgG8arulfSDEs+5HYSnzAN3Uetj4p/7qhzGTTR0HEmrrzAUaidZRqDT6Ak0nUFrt
I4VqXCWORkejeMg8oVG85jlULEi/j/Dy3g3n8KT8bqNytN4S2S+Dqq55dVVh11f2
ZhdY//09A9osmKjsHtNbbkd+r679yN/KXg9BqwD2uf+W4hXdOLMJ3utFW8+uKEMW
pRJhmEpU2f8IswLxs2APYou/mwuSpG5Je8oqCrWwVFVaYrnRLWDgU5lJMz8lnGf8
m/l/oPlzBYjm2oHA4BvTi06iGbUTrRZ9C4ahUEDBS8nNCoXUGcj2EUa0AHfl6Dys
AgM6cKjHCi9hvhcxr+vRymdYH6e3SQ/5uvaKeeFvw/BtO5QSIXS6vjuGK8O4oS/B
99N0DRLzBYpNHiJREfSq6z0NhAwiKxVYx0YEwZmv54KUM8N+yQJcODgJS5tI3D91
zm3fViBDSbtNhso/D53P+ChUrX8mI5sN7NNdpaDj8elNRb4B6qe2I/6owQBzvwt2
ui0XC6RuMJyJhkvvnD2WTzdm/IwTR2bFaNwONBUpS/OT2k/SbXBbpf6WAtOgW0T0
l7zbwbOHGLSgZoOHjz9npdl//lre9YvCDHFqyjSYU8MuT9YRKuH7WoTaJeRtc3vr
QQIDAQABo4IBYzCCAV8wCQYDVR0TBAIwADAtBglghkgBhvhCAQ0EIBYeRWFzeS1S
U0EgR2VuZXJhdGVkIENlcnRpZmljYXRlMB0GA1UdDgQWBBTjqwfrCO5yDck/iSit
fEOipSraizCB4QYDVR0jBIHZMIHWgBQSzWAE0qCAnnDtxpm4eyzGUv0ZoaGBsqSB
rzCBrDELMAkGA1UEBhMCVVMxCzAJBgNVBAgTAk9IMREwDwYDVQQHEwhDb2x1bWJ1
czESMBAGA1UEChMJVmlraW5nVlBOMR0wGwYDVQQLExRNeU9yZ2FuaXphdGlvbmFs
VW5pdDEVMBMGA1UEAxMMVmlraW5nVlBOIENBMRAwDgYDVQQpEwdFYXN5UlNBMSEw
HwYJKoZIhvcNAQkBFhJtZUBteWhvc3QubXlkb21haW6CCQDPNYXugL8qPjATBgNV
HSUEDDAKBggrBgEFBQcDAjALBgNVHQ8EBAMCB4AwDQYJKoZIhvcNAQEEBQADggIB
AIbzA136hUEUJKsSmd2GZ8yC53bnH79xz0qc2dlGfp3nB2rO7PVBEu7z4dg4mI3P
eQKTfhNnyOshBIpEDyxtgrrwCh7cN9D8v+mdtva3u5dEFD0WMOHvSYfvfJxD3Kag
qKONuobx06TgeTnCJ24v8eQy82RFpIcxJNo6pGf6jUx9cbyD5lCG4Y/VFJsmJfCA
tGsA8+tRu4ftlgL31mPIAVvRArYdSV8vyM2Z9q9qIxP6NVkip62vCCqgDyZqo6tZ
fmwYlSvPUaBnT8DkZg2+fldO7TUa9oaRrNgm5VXKjg84ltMFLrwCLAaWpGW5d7Fy
hYim2rDlSjqzeW+/pDHfXM+3BczlmxldZMX3aLvh8iyX9wiaSK90sEtDfd90Liqe
yXxhm1ZuOxpbaNEALBGte86JulAxflLbXLGIwUeupZDA/oNE3RRRtZ0g5brBoYb8
hkFpuQTiyWY36vfCSPUEjdTvNSrklflUuuUrWLvuTaXoVq+36Iom32pWbg3ZZe4T
nO0M8ejcfpB+7b9dwqME5ty0F6bZjaXq/Nz5ZuG9YgSSBwXSMLqcDwsMILjECRUX
rNtXYfpDTBCkWB2NHVtGgDJznHgJrYlW3ZmEPuX4H9RECGMb1XHOfQIh/o8f3BsM
cxn0vErg2JeeSJgy43Z44b4Ww2F2lKHZ3g50t6T1Eyyq
-----END CERTIFICATE-----
