Certificate:
    Data:
        Version: 3 (0x2)
        Serial Number: 4344 (0x10f8)
    Signature Algorithm: md5WithRSAEncryption
        Issuer: C=US, ST=OH, L=Columbus, O=VikingVPN, OU=MyOrganizationalUnit, CN=VikingVPN CA/name=EasyRSA/emailAddress=me@myhost.mydomain
        Validity
            Not Before: Jan 31 03:36:18 2015 GMT
            Not After : Jan 28 03:36:18 2025 GMT
        Subject: CN=Client1393Certee3b79
        Subject Public Key Info:
            Public Key Algorithm: rsaEncryption
                Public-Key: (4096 bit)
                Modulus:
                    00:a9:d7:f0:a7:04:d0:3c:5e:ef:eb:c5:9b:70:af:
                    df:e5:d7:70:b9:d8:37:1d:4a:cb:85:b0:05:c0:92:
                    73:be:46:f5:eb:a1:17:5f:23:d9:dc:cb:c6:74:88:
                    fa:f5:a3:21:40:00:24:80:6b:d7:c1:42:75:c5:36:
                    b2:62:e5:48:82:db:b7:08:4c:5f:cd:14:9c:86:83:
                    ab:84:d9:5e:fa:86:44:0b:ec:69:e4:f3:df:fc:2e:
                    4e:64:86:ee:bf:c6:4f:2a:76:92:2c:7e:43:d1:c1:
                    46:f0:11:21:9e:bf:7c:f2:4f:46:16:e9:7a:3f:31:
                    b9:2b:2b:00:70:2e:38:0a:5b:1f:17:a0:f4:a6:a1:
                    08:f2:74:1f:09:83:75:98:18:c8:65:0c:69:d4:61:
                    d5:1d:53:a1:9a:cc:54:21:94:ba:45:e7:ec:d0:25:
                    0b:4c:5c:8a:7c:6d:0f:b2:79:46:ab:0f:00:be:40:
                    83:ab:30:ed:dd:4a:65:3d:0b:53:04:b3:67:e0:5e:
                    81:bc:12:cc:d1:57:d1:13:89:c2:18:25:be:a0:8d:
                    84:d4:40:d8:28:ff:dc:a0:19:75:91:ed:a6:fb:94:
                    f9:5b:9a:b1:17:40:a9:c2:4f:52:d5:62:75:27:12:
                    15:6d:0f:44:b9:e8:79:40:94:f5:49:e2:9b:29:f1:
                    23:10:23:78:19:02:a2:ff:ec:6a:40:6d:1d:b2:3f:
                    37:31:dc:fa:f0:49:ec:c4:bd:0f:f3:93:5c:9c:6d:
                    3e:53:f4:13:9d:a0:7f:e1:45:cf:7d:bc:9c:12:25:
                    61:51:88:f9:95:ca:28:4c:b2:f8:05:9d:2c:01:46:
                    69:37:0f:71:12:c3:3d:18:70:6b:5c:03:fa:57:88:
                    dc:94:7c:cc:b7:ed:7b:65:b8:2c:0e:ac:ca:b2:63:
                    43:83:e4:d0:91:57:db:22:b0:95:b1:40:a0:fd:48:
                    1f:fc:eb:75:8e:d7:b8:12:e1:aa:0c:6e:4b:27:0e:
                    c7:1c:5a:98:31:33:d3:ee:95:2b:9f:1d:d4:90:cd:
                    80:7c:a5:52:95:3b:23:98:e4:95:7c:d8:27:54:17:
                    e2:f6:c1:8d:63:d3:62:c1:38:25:21:50:31:95:c3:
                    dd:f6:66:ba:b0:18:4b:0d:71:fc:e0:d0:c7:bb:07:
                    8a:b5:98:27:0b:5a:0c:88:ac:ae:d6:48:97:20:ed:
                    54:06:b7:0b:5d:68:6a:d8:0b:51:b4:6e:14:be:f0:
                    29:47:f5:b2:e3:fc:be:21:87:80:60:42:53:a8:f7:
                    99:ba:5e:99:15:f8:b9:54:5a:7f:64:2f:f8:6b:09:
                    aa:fa:11:2f:ca:31:b4:3e:cc:4a:91:33:2b:03:05:
                    b3:d4:7b
                Exponent: 65537 (0x10001)
        X509v3 extensions:
            X509v3 Basic Constraints: 
                CA:FALSE
            Netscape Comment: 
                Easy-RSA Generated Certificate
            X509v3 Subject Key Identifier: 
                E3:A1:09:7F:31:2F:DB:2B:37:88:9D:59:C4:42:A0:BE:73:E2:AC:3E
            X509v3 Authority Key Identifier: 
                keyid:12:CD:60:04:D2:A0:80:9E:70:ED:C6:99:B8:7B:2C:C6:52:FD:19:A1
                DirName:/C=US/ST=OH/L=Columbus/O=VikingVPN/OU=MyOrganizationalUnit/CN=VikingVPN CA/name=EasyRSA/emailAddress=me@myhost.mydomain
                serial:CF:35:85:EE:80:BF:2A:3E

            X509v3 Extended Key Usage: 
                TLS Web Client Authentication
            X509v3 Key Usage: 
                Digital Signature
    Signature Algorithm: md5WithRSAEncryption
         86:6f:ed:1d:9a:21:98:5e:8f:4a:17:6c:7d:e4:dd:19:0a:39:
         0c:47:95:62:43:d2:83:3d:aa:4c:82:9b:f9:01:58:35:18:d4:
         ea:4e:1e:ff:f7:ad:ca:29:66:37:bb:d2:ae:d1:1d:cb:45:b4:
         04:64:2b:ce:c8:9b:5e:a7:20:43:9c:6f:75:ee:5a:b8:92:8b:
         cd:46:f8:26:ae:5f:e6:5c:56:6d:db:f5:4a:df:3b:7d:17:eb:
         1a:5e:d9:ed:de:44:3a:ce:d8:8f:77:1c:3e:94:07:d3:10:c5:
         de:fb:c4:2f:c5:73:18:4c:f3:29:ec:ae:00:92:2a:86:20:86:
         28:b6:98:4a:f6:86:c7:30:ba:f2:a4:35:20:ee:11:ec:9b:5a:
         35:37:66:40:59:46:6a:c1:a2:c1:e7:b0:05:a0:7a:2b:c3:10:
         70:f8:23:8e:4f:f4:75:47:35:3d:17:78:49:ee:ed:a4:0f:b5:
         f5:6a:15:36:f6:92:4c:34:b4:2a:92:75:e9:53:55:92:28:d3:
         12:4d:08:e6:91:e1:47:77:48:dd:12:b9:14:82:02:be:d0:68:
         e9:49:e2:84:8c:d1:e0:10:bd:8f:b1:83:06:84:6e:ba:74:c6:
         86:99:ec:5b:6d:53:a6:28:4e:4e:e8:3a:d2:f3:9a:76:46:36:
         a7:91:b0:fa:57:fd:28:e7:34:09:75:19:f0:b6:3b:52:a3:0f:
         8a:83:1a:72:b2:6d:25:81:c8:63:cb:5e:e2:c1:fa:a6:20:c8:
         e2:84:19:39:a7:b8:82:1c:f5:e5:4c:d0:73:04:e7:22:bf:aa:
         db:71:c9:73:48:39:7a:36:36:66:e9:55:57:15:11:7d:6d:52:
         61:e2:6a:88:ec:fc:ef:c0:4c:a7:71:53:4a:0f:c8:ff:61:08:
         28:43:37:8f:9c:6b:55:ec:59:56:bb:96:e9:c6:eb:39:2c:8e:
         ff:e6:05:d8:4c:5b:96:8f:c8:93:f8:f4:aa:92:84:82:eb:cc:
         da:42:73:40:68:21:7f:ed:18:78:3a:33:8a:cc:10:c0:d8:f4:
         21:99:ff:3e:bc:c9:16:bc:3e:b9:6e:30:68:19:cf:fe:e8:e8:
         5a:79:31:f4:08:0e:4c:06:42:0c:ea:68:6e:b7:cf:ce:2f:92:
         a5:a9:fe:73:a8:60:40:10:d4:f5:2f:c8:14:b6:7b:e0:f7:ec:
         cb:9e:f6:80:6d:41:3c:e5:17:eb:64:f3:56:8e:f3:56:69:e2:
         92:0c:0d:7b:09:30:59:22:e9:ea:ea:90:d7:c0:16:a1:c1:ff:
         e8:01:3a:6a:af:bf:43:e9:60:5c:84:6c:5c:55:c9:f7:47:7c:
         2b:83:5a:b2:7e:e7:61:8a
-----BEGIN CERTIFICATE-----
MIIGrTCCBJWgAwIBAgICEPgwDQYJKoZIhvcNAQEEBQAwgawxCzAJBgNVBAYTAlVT
MQswCQYDVQQIEwJPSDERMA8GA1UEBxMIQ29sdW1idXMxEjAQBgNVBAoTCVZpa2lu
Z1ZQTjEdMBsGA1UECxMUTXlPcmdhbml6YXRpb25hbFVuaXQxFTATBgNVBAMTDFZp
a2luZ1ZQTiBDQTEQMA4GA1UEKRMHRWFzeVJTQTEhMB8GCSqGSIb3DQEJARYSbWVA
bXlob3N0Lm15ZG9tYWluMB4XDTE1MDEzMTAzMzYxOFoXDTI1MDEyODAzMzYxOFow
HzEdMBsGA1UEAxMUQ2xpZW50MTM5M0NlcnRlZTNiNzkwggIiMA0GCSqGSIb3DQEB
AQUAA4ICDwAwggIKAoICAQCp1/CnBNA8Xu/rxZtwr9/l13C52DcdSsuFsAXAknO+
RvXroRdfI9ncy8Z0iPr1oyFAACSAa9fBQnXFNrJi5UiC27cITF/NFJyGg6uE2V76
hkQL7Gnk89/8Lk5khu6/xk8qdpIsfkPRwUbwESGev3zyT0YW6Xo/MbkrKwBwLjgK
Wx8XoPSmoQjydB8Jg3WYGMhlDGnUYdUdU6GazFQhlLpF5+zQJQtMXIp8bQ+yeUar
DwC+QIOrMO3dSmU9C1MEs2fgXoG8EszRV9ETicIYJb6gjYTUQNgo/9ygGXWR7ab7
lPlbmrEXQKnCT1LVYnUnEhVtD0S56HlAlPVJ4psp8SMQI3gZAqL/7GpAbR2yPzcx
3PrwSezEvQ/zk1ycbT5T9BOdoH/hRc99vJwSJWFRiPmVyihMsvgFnSwBRmk3D3ES
wz0YcGtcA/pXiNyUfMy37XtluCwOrMqyY0OD5NCRV9sisJWxQKD9SB/863WO17gS
4aoMbksnDsccWpgxM9PulSufHdSQzYB8pVKVOyOY5JV82CdUF+L2wY1j02LBOCUh
UDGVw932ZrqwGEsNcfzg0Me7B4q1mCcLWgyIrK7WSJcg7VQGtwtdaGrYC1G0bhS+
8ClH9bLj/L4hh4BgQlOo95m6XpkV+LlUWn9kL/hrCar6ES/KMbQ+zEqRMysDBbPU
ewIDAQABo4IBYzCCAV8wCQYDVR0TBAIwADAtBglghkgBhvhCAQ0EIBYeRWFzeS1S
U0EgR2VuZXJhdGVkIENlcnRpZmljYXRlMB0GA1UdDgQWBBTjoQl/MS/bKzeInVnE
QqC+c+KsPjCB4QYDVR0jBIHZMIHWgBQSzWAE0qCAnnDtxpm4eyzGUv0ZoaGBsqSB
rzCBrDELMAkGA1UEBhMCVVMxCzAJBgNVBAgTAk9IMREwDwYDVQQHEwhDb2x1bWJ1
czESMBAGA1UEChMJVmlraW5nVlBOMR0wGwYDVQQLExRNeU9yZ2FuaXphdGlvbmFs
VW5pdDEVMBMGA1UEAxMMVmlraW5nVlBOIENBMRAwDgYDVQQpEwdFYXN5UlNBMSEw
HwYJKoZIhvcNAQkBFhJtZUBteWhvc3QubXlkb21haW6CCQDPNYXugL8qPjATBgNV
HSUEDDAKBggrBgEFBQcDAjALBgNVHQ8EBAMCB4AwDQYJKoZIhvcNAQEEBQADggIB
AIZv7R2aIZhej0oXbH3k3RkKOQxHlWJD0oM9qkyCm/kBWDUY1OpOHv/3rcopZje7
0q7RHctFtARkK87Im16nIEOcb3XuWriSi81G+CauX+ZcVm3b9UrfO30X6xpe2e3e
RDrO2I93HD6UB9MQxd77xC/FcxhM8ynsrgCSKoYghii2mEr2hscwuvKkNSDuEeyb
WjU3ZkBZRmrBosHnsAWgeivDEHD4I45P9HVHNT0XeEnu7aQPtfVqFTb2kkw0tCqS
delTVZIo0xJNCOaR4Ud3SN0SuRSCAr7QaOlJ4oSM0eAQvY+xgwaEbrp0xoaZ7Ftt
U6YoTk7oOtLzmnZGNqeRsPpX/SjnNAl1GfC2O1KjD4qDGnKybSWByGPLXuLB+qYg
yOKEGTmnuIIc9eVM0HME5yK/qttxyXNIOXo2NmbpVVcVEX1tUmHiaojs/O/ATKdx
U0oPyP9hCChDN4+ca1XsWVa7lunG6zksjv/mBdhMW5aPyJP49KqShILrzNpCc0Bo
IX/tGHg6M4rMEMDY9CGZ/z68yRa8PrluMGgZz/7o6Fp5MfQIDkwGQgzqaG63z84v
kqWp/nOoYEAQ1PUvyBS2e+D37Mue9oBtQTzlF+tk81aO81Zp4pIMDXsJMFki6erq
kNfAFqHB/+gBOmqvv0PpYFyEbFxVyfdHfCuDWrJ+52GK
-----END CERTIFICATE-----
