Certificate:
    Data:
        Version: 3 (0x2)
        Serial Number: 4364 (0x110c)
    Signature Algorithm: md5WithRSAEncryption
        Issuer: C=US, ST=OH, L=Columbus, O=VikingVPN, OU=MyOrganizationalUnit, CN=VikingVPN CA/name=EasyRSA/emailAddress=me@myhost.mydomain
        Validity
            Not Before: Feb  1 19:32:04 2015 GMT
            Not After : Jan 29 19:32:04 2025 GMT
        Subject: CN=Client773Cert2ee910
        Subject Public Key Info:
            Public Key Algorithm: rsaEncryption
                Public-Key: (4096 bit)
                Modulus:
                    00:cc:a0:f9:f5:c6:c2:2c:61:85:f1:dd:a5:31:20:
                    ba:6e:a9:62:81:2e:51:68:5d:2b:91:03:2b:7f:c7:
                    02:55:ed:85:8c:b3:f0:65:ab:b2:f5:56:20:49:e7:
                    3e:30:c1:17:43:a2:3c:62:2f:38:e8:9a:42:77:5d:
                    bb:6c:31:5b:b9:fc:05:c1:5d:c4:76:8a:93:63:c1:
                    c5:3e:13:fd:6e:70:3a:fa:dc:c5:c7:34:56:1c:35:
                    86:92:b0:ea:60:51:32:3e:e0:ad:28:95:26:e3:9a:
                    61:d7:ed:bf:5e:2d:92:1c:35:72:03:c4:58:6f:49:
                    32:07:ab:1f:1e:ea:e3:74:fb:27:38:6f:35:e4:4d:
                    18:c0:96:5c:19:90:b8:58:39:13:04:cb:a3:fe:95:
                    7f:31:7a:ee:f3:28:40:6f:6e:c9:70:3e:d2:9e:a4:
                    9d:50:76:30:2e:b4:51:1d:96:91:b3:99:25:09:5d:
                    8c:4b:58:b7:7e:ca:50:f3:bb:d7:54:47:3e:de:32:
                    ff:51:c8:85:c0:52:ae:e2:7c:62:68:e1:54:f5:97:
                    f6:63:8c:28:ab:99:62:fd:58:51:91:72:af:5f:4f:
                    08:8c:2d:8e:7b:82:b7:56:99:ad:01:fb:a5:3a:4f:
                    30:9e:89:dc:54:be:24:c1:43:5f:98:1c:84:ac:6b:
                    26:01:4c:ab:f3:c0:82:e0:d9:d3:6e:bf:7c:b0:41:
                    dc:33:60:4f:be:b5:de:5c:19:84:78:79:7a:d5:14:
                    ba:76:62:a2:81:b8:ff:51:82:98:ca:ea:6a:07:5a:
                    5b:fe:a8:3c:79:bc:49:b4:7a:c6:af:34:39:46:82:
                    5b:67:35:ee:09:fd:10:dd:e7:f3:34:49:0a:89:8c:
                    b6:32:db:6d:25:1e:37:aa:cc:b7:0f:b4:e6:fe:e3:
                    82:1f:22:46:50:8d:76:ad:00:0f:9e:4e:a8:aa:eb:
                    65:e3:c2:bd:c1:a7:07:2f:1f:b1:e8:7f:2e:9c:d0:
                    a1:63:c0:c5:0c:93:b3:40:78:2a:97:0a:81:43:9b:
                    da:8a:9b:0d:0e:bf:ac:68:e9:18:5e:84:fa:f7:94:
                    70:83:8a:2d:4a:72:cc:ed:30:dc:d9:79:03:79:66:
                    ca:79:9e:5a:ff:cc:3a:5b:44:d4:79:92:e7:b3:b7:
                    02:26:8b:4d:3c:a2:94:20:d4:e5:c4:e6:ae:32:c8:
                    e7:78:8b:74:2b:ad:38:4c:47:b1:f6:b8:3e:3e:31:
                    66:0b:e1:6f:b3:00:49:84:cf:42:b5:1b:74:4e:94:
                    c5:ac:81:7f:5d:0b:2b:d7:e5:db:da:00:32:f3:2f:
                    ba:61:15:49:98:a4:c4:26:7c:a2:3e:91:58:2c:3e:
                    93:23:35
                Exponent: 65537 (0x10001)
        X509v3 extensions:
            X509v3 Basic Constraints: 
                CA:FALSE
            Netscape Comment: 
                Easy-RSA Generated Certificate
            X509v3 Subject Key Identifier: 
                D9:03:60:B3:CE:57:AD:E8:E7:82:B1:91:85:08:25:10:F9:61:5B:6F
            X509v3 Authority Key Identifier: 
                keyid:12:CD:60:04:D2:A0:80:9E:70:ED:C6:99:B8:7B:2C:C6:52:FD:19:A1
                DirName:/C=US/ST=OH/L=Columbus/O=VikingVPN/OU=MyOrganizationalUnit/CN=VikingVPN CA/name=EasyRSA/emailAddress=me@myhost.mydomain
                serial:CF:35:85:EE:80:BF:2A:3E

            X509v3 Extended Key Usage: 
                TLS Web Client Authentication
            X509v3 Key Usage: 
                Digital Signature
    Signature Algorithm: md5WithRSAEncryption
         9b:ad:b3:1b:c7:65:e0:a2:6a:d6:95:9f:27:db:ba:70:7c:4c:
         da:58:51:42:bc:16:51:18:e0:61:29:ec:5b:33:e5:a7:44:76:
         fa:0b:ac:8f:c6:b2:a5:43:f6:3f:d2:8b:6c:57:6c:8b:ea:49:
         33:8b:d5:14:6a:23:d5:d6:96:83:fc:39:2b:55:00:87:15:93:
         f8:47:e9:e6:6e:14:7d:a8:a4:11:57:d3:24:a2:68:cd:5a:bd:
         34:2e:61:ba:57:25:ae:ed:4c:01:7c:2d:31:2f:69:96:df:85:
         90:7b:01:35:87:21:9a:1c:ef:9c:84:67:56:ab:4f:3b:e8:59:
         16:c4:ca:dd:41:12:b5:df:32:a1:63:68:d1:63:ed:66:e0:19:
         f8:e0:aa:a8:57:35:11:b5:85:9b:09:5c:e1:d0:49:53:5e:b0:
         13:90:86:30:b9:a0:b4:a6:14:c1:96:71:a6:85:53:6d:07:34:
         f2:d3:1e:5c:13:4b:85:a4:18:bf:36:55:dc:21:d5:c0:98:5c:
         f7:79:87:05:2d:1e:5a:2a:9c:4d:55:36:1c:9f:5c:eb:1d:37:
         b6:7e:92:e1:1b:a5:26:8a:70:47:85:9c:a2:5b:d5:13:da:9d:
         9b:8c:01:06:cd:d1:85:57:b7:a0:87:30:3a:a9:5a:49:66:6b:
         eb:fc:6d:ee:73:27:a8:3e:61:5a:78:c2:26:56:88:7b:64:b3:
         15:8f:ea:51:6f:b6:d8:4d:e4:e5:50:f0:e1:d8:d9:2f:d8:d5:
         50:07:c0:1e:49:b9:23:07:0a:e0:ec:ff:c4:7b:b3:1c:ee:6e:
         75:0d:2b:96:6c:7a:b5:6b:fe:e8:92:59:cb:e4:b1:f8:d2:ed:
         22:b6:ff:80:59:7d:b3:1a:0e:15:77:ff:a5:a7:0e:9e:15:5b:
         31:27:50:57:bc:4d:5d:09:f8:a9:7f:43:8c:26:14:45:c2:d3:
         94:7f:b6:fd:a5:97:cb:74:d5:21:f4:46:ea:30:5b:e6:dd:3f:
         d8:cb:8b:7e:73:77:4f:14:0b:16:90:a5:ed:b0:ba:99:db:fc:
         dd:fd:af:5f:21:5d:57:bc:d9:6b:eb:c7:71:85:06:4e:62:72:
         8d:14:d6:67:1f:57:e6:70:38:ef:57:aa:4c:ee:87:d5:26:6e:
         ab:dc:e3:da:f1:87:49:e3:16:d5:0c:80:85:e3:47:23:5e:58:
         ab:96:13:93:42:2d:be:c0:a8:2f:00:99:4f:82:8a:76:c1:33:
         98:77:8b:6c:da:9d:1a:6a:48:db:34:7b:cf:c2:3e:bc:b4:2d:
         20:cd:54:a6:84:37:79:9b:68:83:ac:c9:52:57:ee:ca:31:38:
         58:5f:d4:53:70:c0:15:3f
-----BEGIN CERTIFICATE-----
MIIGrDCCBJSgAwIBAgICEQwwDQYJKoZIhvcNAQEEBQAwgawxCzAJBgNVBAYTAlVT
MQswCQYDVQQIEwJPSDERMA8GA1UEBxMIQ29sdW1idXMxEjAQBgNVBAoTCVZpa2lu
Z1ZQTjEdMBsGA1UECxMUTXlPcmdhbml6YXRpb25hbFVuaXQxFTATBgNVBAMTDFZp
a2luZ1ZQTiBDQTEQMA4GA1UEKRMHRWFzeVJTQTEhMB8GCSqGSIb3DQEJARYSbWVA
bXlob3N0Lm15ZG9tYWluMB4XDTE1MDIwMTE5MzIwNFoXDTI1MDEyOTE5MzIwNFow
HjEcMBoGA1UEAxMTQ2xpZW50NzczQ2VydDJlZTkxMDCCAiIwDQYJKoZIhvcNAQEB
BQADggIPADCCAgoCggIBAMyg+fXGwixhhfHdpTEgum6pYoEuUWhdK5EDK3/HAlXt
hYyz8GWrsvVWIEnnPjDBF0OiPGIvOOiaQnddu2wxW7n8BcFdxHaKk2PBxT4T/W5w
Ovrcxcc0Vhw1hpKw6mBRMj7grSiVJuOaYdftv14tkhw1cgPEWG9JMgerHx7q43T7
JzhvNeRNGMCWXBmQuFg5EwTLo/6VfzF67vMoQG9uyXA+0p6knVB2MC60UR2WkbOZ
JQldjEtYt37KUPO711RHPt4y/1HIhcBSruJ8YmjhVPWX9mOMKKuZYv1YUZFyr19P
CIwtjnuCt1aZrQH7pTpPMJ6J3FS+JMFDX5gchKxrJgFMq/PAguDZ026/fLBB3DNg
T7613lwZhHh5etUUunZiooG4/1GCmMrqagdaW/6oPHm8SbR6xq80OUaCW2c17gn9
EN3n8zRJComMtjLbbSUeN6rMtw+05v7jgh8iRlCNdq0AD55OqKrrZePCvcGnBy8f
seh/LpzQoWPAxQyTs0B4KpcKgUOb2oqbDQ6/rGjpGF6E+veUcIOKLUpyzO0w3Nl5
A3lmynmeWv/MOltE1HmS57O3AiaLTTyilCDU5cTmrjLI53iLdCutOExHsfa4Pj4x
Zgvhb7MASYTPQrUbdE6UxayBf10LK9fl29oAMvMvumEVSZikxCZ8oj6RWCw+kyM1
AgMBAAGjggFjMIIBXzAJBgNVHRMEAjAAMC0GCWCGSAGG+EIBDQQgFh5FYXN5LVJT
QSBHZW5lcmF0ZWQgQ2VydGlmaWNhdGUwHQYDVR0OBBYEFNkDYLPOV63o54KxkYUI
JRD5YVtvMIHhBgNVHSMEgdkwgdaAFBLNYATSoICecO3Gmbh7LMZS/RmhoYGypIGv
MIGsMQswCQYDVQQGEwJVUzELMAkGA1UECBMCT0gxETAPBgNVBAcTCENvbHVtYnVz
MRIwEAYDVQQKEwlWaWtpbmdWUE4xHTAbBgNVBAsTFE15T3JnYW5pemF0aW9uYWxV
bml0MRUwEwYDVQQDEwxWaWtpbmdWUE4gQ0ExEDAOBgNVBCkTB0Vhc3lSU0ExITAf
BgkqhkiG9w0BCQEWEm1lQG15aG9zdC5teWRvbWFpboIJAM81he6Avyo+MBMGA1Ud
JQQMMAoGCCsGAQUFBwMCMAsGA1UdDwQEAwIHgDANBgkqhkiG9w0BAQQFAAOCAgEA
m62zG8dl4KJq1pWfJ9u6cHxM2lhRQrwWURjgYSnsWzPlp0R2+gusj8aypUP2P9KL
bFdsi+pJM4vVFGoj1daWg/w5K1UAhxWT+Efp5m4UfaikEVfTJKJozVq9NC5hulcl
ru1MAXwtMS9plt+FkHsBNYchmhzvnIRnVqtPO+hZFsTK3UEStd8yoWNo0WPtZuAZ
+OCqqFc1EbWFmwlc4dBJU16wE5CGMLmgtKYUwZZxpoVTbQc08tMeXBNLhaQYvzZV
3CHVwJhc93mHBS0eWiqcTVU2HJ9c6x03tn6S4RulJopwR4WcolvVE9qdm4wBBs3R
hVe3oIcwOqlaSWZr6/xt7nMnqD5hWnjCJlaIe2SzFY/qUW+22E3k5VDw4djZL9jV
UAfAHkm5IwcK4Oz/xHuzHO5udQ0rlmx6tWv+6JJZy+Sx+NLtIrb/gFl9sxoOFXf/
pacOnhVbMSdQV7xNXQn4qX9DjCYURcLTlH+2/aWXy3TVIfRG6jBb5t0/2MuLfnN3
TxQLFpCl7bC6mdv83f2vXyFdV7zZa+vHcYUGTmJyjRTWZx9X5nA471eqTO6H1SZu
q9zj2vGHSeMW1QyAheNHI15Yq5YTk0ItvsCoLwCZT4KKdsEzmHeLbNqdGmpI2zR7
z8I+vLQtIM1UpoQ3eZtog6zJUlfuyjE4WF/UU3DAFT8=
-----END CERTIFICATE-----
