Certificate:
    Data:
        Version: 3 (0x2)
        Serial Number: 4368 (0x1110)
    Signature Algorithm: md5WithRSAEncryption
        Issuer: C=US, ST=OH, L=Columbus, O=VikingVPN, OU=MyOrganizationalUnit, CN=VikingVPN CA/name=EasyRSA/emailAddress=me@myhost.mydomain
        Validity
            Not Before: Feb  2 15:59:56 2015 GMT
            Not After : Jan 30 15:59:56 2025 GMT
        Subject: CN=Client1422Certa8443d
        Subject Public Key Info:
            Public Key Algorithm: rsaEncryption
                Public-Key: (4096 bit)
                Modulus:
                    00:b5:cf:e4:24:5f:09:6b:68:3a:f1:0d:cf:8c:de:
                    53:e1:63:91:eb:8e:dc:db:75:f4:db:58:95:4a:08:
                    bc:fb:dc:4f:b2:31:26:78:a8:73:01:bb:df:67:ce:
                    6b:ca:bf:38:32:c8:c9:86:8c:d9:ab:d2:d1:0c:b3:
                    fc:b8:86:9c:3e:cd:4f:6f:f5:93:8a:75:33:f8:92:
                    53:06:e4:40:40:1e:c1:a6:b3:94:26:13:c4:3d:0e:
                    95:fd:2e:80:3a:55:2e:a3:88:43:27:d7:09:76:ad:
                    bc:87:1a:91:26:31:79:4b:0d:c8:1f:9c:18:52:69:
                    29:a6:35:e6:51:86:0b:dd:53:fc:eb:e4:ee:6e:78:
                    9b:cc:b4:ba:7c:d6:e1:11:f4:f5:b7:cd:e6:38:af:
                    a5:d6:0d:8e:b9:77:b0:db:3f:b9:cc:0f:9a:f1:8b:
                    37:0d:3b:84:86:61:ea:72:fa:17:c6:80:e9:94:23:
                    05:6d:7e:11:a8:f7:e6:bc:b3:19:a5:85:04:07:8c:
                    3a:a6:49:6f:48:24:32:5b:bb:81:b4:09:1f:42:eb:
                    aa:b8:1e:ce:e3:6e:bf:a0:9e:29:20:49:63:bd:82:
                    a7:e5:2f:f2:be:d1:49:8a:ff:c6:f6:26:dc:95:94:
                    2f:f6:12:73:aa:74:d7:46:d3:eb:8a:91:eb:a1:17:
                    8e:3e:30:98:f3:dd:fc:15:f4:ca:54:4a:5f:47:dd:
                    06:39:f8:45:2a:b1:5c:ba:a6:e5:fb:93:e8:da:94:
                    d4:6f:7e:ce:2b:76:2f:ca:2f:59:84:a2:d8:53:ff:
                    40:74:9f:24:19:13:c4:75:07:6c:da:76:dd:79:92:
                    38:5a:00:fb:3b:46:79:f1:cf:da:41:65:2a:01:ab:
                    74:0b:d5:04:02:80:c9:cf:26:5e:34:7a:61:d8:4f:
                    f3:7d:db:91:49:5f:fe:a3:74:4b:fa:a2:cd:c9:bc:
                    98:8c:c1:b3:46:4e:69:ec:13:d1:e4:0f:95:f2:44:
                    30:52:2b:e2:5c:57:ae:b6:b7:90:f7:e3:61:a2:6a:
                    05:bd:cd:70:25:b2:06:04:12:98:11:0f:39:21:52:
                    3b:2e:2b:86:bd:1a:37:6e:4c:df:09:88:32:9b:9f:
                    d9:c4:3a:38:b6:f8:e9:38:54:14:42:5b:79:48:7a:
                    27:01:ec:ca:39:72:f5:72:17:e8:c9:de:5c:92:cc:
                    09:9e:90:56:85:61:98:59:64:14:bf:42:de:b6:a9:
                    41:de:cc:57:3d:7b:5b:04:ab:94:03:53:e2:1a:62:
                    62:f3:53:dd:ec:37:98:e4:bd:4d:86:c8:16:ea:82:
                    47:68:e9:7d:b8:37:6f:b0:a3:dd:f9:50:e1:fd:39:
                    ca:7a:4b
                Exponent: 65537 (0x10001)
        X509v3 extensions:
            X509v3 Basic Constraints: 
                CA:FALSE
            Netscape Comment: 
                Easy-RSA Generated Certificate
            X509v3 Subject Key Identifier: 
                B1:00:49:A2:8C:18:DB:62:C7:45:E7:EC:38:61:97:6C:A5:A4:93:68
            X509v3 Authority Key Identifier: 
                keyid:12:CD:60:04:D2:A0:80:9E:70:ED:C6:99:B8:7B:2C:C6:52:FD:19:A1
                DirName:/C=US/ST=OH/L=Columbus/O=VikingVPN/OU=MyOrganizationalUnit/CN=VikingVPN CA/name=EasyRSA/emailAddress=me@myhost.mydomain
                serial:CF:35:85:EE:80:BF:2A:3E

            X509v3 Extended Key Usage: 
                TLS Web Client Authentication
            X509v3 Key Usage: 
                Digital Signature
    Signature Algorithm: md5WithRSAEncryption
         72:64:4f:d6:9b:98:a5:68:0b:e8:98:4d:94:2d:e8:b2:a6:79:
         b9:0a:1f:a2:0e:7f:6f:62:af:e8:ee:e9:2d:87:af:a4:4a:a5:
         4f:da:5d:e2:29:25:7e:48:71:d4:c8:41:9b:cc:7c:4f:7a:ea:
         22:e3:5e:4d:5f:00:9c:bb:92:a1:3a:a3:b1:9e:26:7e:4d:59:
         84:39:13:a5:0f:e2:03:ac:2b:f7:54:89:fc:23:b0:70:79:4f:
         95:09:3c:2e:02:20:19:e6:18:01:7a:78:72:f9:e8:6a:f0:8c:
         63:45:10:ce:f7:e2:4e:d3:9e:56:5a:ef:7b:bd:a6:4a:bc:bf:
         78:5d:ce:24:f4:b2:41:12:1b:5d:e7:ca:88:ba:fb:d8:87:72:
         3d:89:90:65:b9:9b:94:15:78:8e:df:1c:5f:fa:7e:27:88:51:
         29:dd:13:32:fe:d3:0d:9b:77:f0:d1:4a:49:3a:4a:ed:3b:c6:
         54:52:7f:c7:83:c5:a5:55:c8:52:6d:7c:c3:f0:ed:59:03:8d:
         55:68:ab:70:63:35:3d:7a:0c:9f:93:f2:e3:df:05:0d:1b:30:
         6a:8e:64:33:4e:91:76:d0:c2:68:22:bb:6c:b2:2d:11:27:91:
         38:58:56:40:5d:4b:fb:72:9b:39:d8:51:44:ae:c9:9b:db:0c:
         4a:c0:21:db:a8:5a:e0:c7:66:33:ad:92:17:fe:3e:c4:e6:21:
         df:2b:2a:bd:a6:87:84:a5:e1:05:9e:71:49:e6:5e:07:e1:57:
         dc:a1:ef:3b:2d:35:f5:5c:d4:8d:0f:42:71:04:d7:92:42:9d:
         3a:a0:fc:31:c1:ac:8f:58:7d:80:cc:5e:2f:b5:54:2c:ab:37:
         92:1b:6f:88:2f:fd:a4:09:57:4c:49:a1:b2:c4:ea:37:5e:31:
         e1:a5:e7:f8:97:2f:ee:7a:05:65:ba:c1:8a:ed:99:c1:62:43:
         e7:9d:91:85:00:db:1a:2a:03:0c:b9:0e:b6:2f:bd:40:52:ca:
         82:dc:53:75:ce:b3:61:81:42:ca:d0:2b:18:b7:3b:59:57:2f:
         87:28:9b:ac:99:89:59:8b:5a:2d:39:1d:a0:47:4d:7b:00:b8:
         19:31:90:b0:f0:a0:48:da:50:de:8f:51:a7:1a:ec:12:28:3b:
         2e:b0:4a:22:f9:9d:c2:80:bc:e8:fc:7a:5b:93:4c:39:dd:6e:
         fb:52:a8:d0:a7:e2:b7:db:a7:44:55:71:4e:5d:d4:29:6a:de:
         8b:49:f6:c8:94:1a:13:0b:84:45:7f:f8:3f:6c:27:15:c6:f5:
         60:82:81:e8:8d:67:37:74:71:4e:c1:f6:44:a2:a6:86:21:89:
         e3:4d:da:59:70:b6:ef:1b
-----BEGIN CERTIFICATE-----
MIIGrTCCBJWgAwIBAgICERAwDQYJKoZIhvcNAQEEBQAwgawxCzAJBgNVBAYTAlVT
MQswCQYDVQQIEwJPSDERMA8GA1UEBxMIQ29sdW1idXMxEjAQBgNVBAoTCVZpa2lu
Z1ZQTjEdMBsGA1UECxMUTXlPcmdhbml6YXRpb25hbFVuaXQxFTATBgNVBAMTDFZp
a2luZ1ZQTiBDQTEQMA4GA1UEKRMHRWFzeVJTQTEhMB8GCSqGSIb3DQEJARYSbWVA
bXlob3N0Lm15ZG9tYWluMB4XDTE1MDIwMjE1NTk1NloXDTI1MDEzMDE1NTk1Nlow
HzEdMBsGA1UEAxMUQ2xpZW50MTQyMkNlcnRhODQ0M2QwggIiMA0GCSqGSIb3DQEB
AQUAA4ICDwAwggIKAoICAQC1z+QkXwlraDrxDc+M3lPhY5HrjtzbdfTbWJVKCLz7
3E+yMSZ4qHMBu99nzmvKvzgyyMmGjNmr0tEMs/y4hpw+zU9v9ZOKdTP4klMG5EBA
HsGms5QmE8Q9DpX9LoA6VS6jiEMn1wl2rbyHGpEmMXlLDcgfnBhSaSmmNeZRhgvd
U/zr5O5ueJvMtLp81uER9PW3zeY4r6XWDY65d7DbP7nMD5rxizcNO4SGYepy+hfG
gOmUIwVtfhGo9+a8sxmlhQQHjDqmSW9IJDJbu4G0CR9C66q4Hs7jbr+gnikgSWO9
gqflL/K+0UmK/8b2JtyVlC/2EnOqdNdG0+uKkeuhF44+MJjz3fwV9MpUSl9H3QY5
+EUqsVy6puX7k+jalNRvfs4rdi/KL1mEothT/0B0nyQZE8R1B2zadt15kjhaAPs7
Rnnxz9pBZSoBq3QL1QQCgMnPJl40emHYT/N925FJX/6jdEv6os3JvJiMwbNGTmns
E9HkD5XyRDBSK+JcV662t5D342GiagW9zXAlsgYEEpgRDzkhUjsuK4a9GjduTN8J
iDKbn9nEOji2+Ok4VBRCW3lIeicB7Mo5cvVyF+jJ3lySzAmekFaFYZhZZBS/Qt62
qUHezFc9e1sEq5QDU+IaYmLzU93sN5jkvU2GyBbqgkdo6X24N2+wo935UOH9Ocp6
SwIDAQABo4IBYzCCAV8wCQYDVR0TBAIwADAtBglghkgBhvhCAQ0EIBYeRWFzeS1S
U0EgR2VuZXJhdGVkIENlcnRpZmljYXRlMB0GA1UdDgQWBBSxAEmijBjbYsdF5+w4
YZdspaSTaDCB4QYDVR0jBIHZMIHWgBQSzWAE0qCAnnDtxpm4eyzGUv0ZoaGBsqSB
rzCBrDELMAkGA1UEBhMCVVMxCzAJBgNVBAgTAk9IMREwDwYDVQQHEwhDb2x1bWJ1
czESMBAGA1UEChMJVmlraW5nVlBOMR0wGwYDVQQLExRNeU9yZ2FuaXphdGlvbmFs
VW5pdDEVMBMGA1UEAxMMVmlraW5nVlBOIENBMRAwDgYDVQQpEwdFYXN5UlNBMSEw
HwYJKoZIhvcNAQkBFhJtZUBteWhvc3QubXlkb21haW6CCQDPNYXugL8qPjATBgNV
HSUEDDAKBggrBgEFBQcDAjALBgNVHQ8EBAMCB4AwDQYJKoZIhvcNAQEEBQADggIB
AHJkT9abmKVoC+iYTZQt6LKmebkKH6IOf29ir+ju6S2Hr6RKpU/aXeIpJX5IcdTI
QZvMfE966iLjXk1fAJy7kqE6o7GeJn5NWYQ5E6UP4gOsK/dUifwjsHB5T5UJPC4C
IBnmGAF6eHL56GrwjGNFEM734k7TnlZa73u9pkq8v3hdziT0skESG13nyoi6+9iH
cj2JkGW5m5QVeI7fHF/6fieIUSndEzL+0w2bd/DRSkk6Su07xlRSf8eDxaVVyFJt
fMPw7VkDjVVoq3BjNT16DJ+T8uPfBQ0bMGqOZDNOkXbQwmgiu2yyLREnkThYVkBd
S/tymznYUUSuyZvbDErAIduoWuDHZjOtkhf+PsTmId8rKr2mh4Sl4QWecUnmXgfh
V9yh7zstNfVc1I0PQnEE15JCnTqg/DHBrI9YfYDMXi+1VCyrN5Ibb4gv/aQJV0xJ
obLE6jdeMeGl5/iXL+56BWW6wYrtmcFiQ+edkYUA2xoqAwy5DrYvvUBSyoLcU3XO
s2GBQsrQKxi3O1lXL4com6yZiVmLWi05HaBHTXsAuBkxkLDwoEjaUN6PUaca7BIo
Oy6wSiL5ncKAvOj8eluTTDndbvtSqNCn4rfbp0RVcU5d1Clq3otJ9siUGhMLhEV/
+D9sJxXG9WCCgeiNZzd0cU7B9kSipoYhieNN2llwtu8b
-----END CERTIFICATE-----
