Certificate:
    Data:
        Version: 3 (0x2)
        Serial Number: 4370 (0x1112)
    Signature Algorithm: md5WithRSAEncryption
        Issuer: C=US, ST=OH, L=Columbus, O=VikingVPN, OU=MyOrganizationalUnit, CN=VikingVPN CA/name=EasyRSA/emailAddress=me@myhost.mydomain
        Validity
            Not Before: Feb  2 21:36:47 2015 GMT
            Not After : Jan 30 21:36:47 2025 GMT
        Subject: CN=Client631Certf59b44
        Subject Public Key Info:
            Public Key Algorithm: rsaEncryption
                Public-Key: (4096 bit)
                Modulus:
                    00:e2:fc:6f:5c:71:0b:6a:9c:86:9c:1f:3b:e3:9f:
                    6a:10:f0:c3:a0:1d:53:f5:c8:81:40:1a:7f:78:87:
                    fa:0c:44:2b:98:7a:e6:02:3d:19:a8:1d:f5:86:f0:
                    5a:1a:ae:89:62:ed:42:33:ff:d6:97:a0:aa:7f:1d:
                    fa:8e:bc:82:f9:6f:d0:e2:1b:a5:9f:b1:45:c5:2e:
                    c6:95:05:c4:1a:a4:66:ce:e3:d0:25:f1:1c:ae:c8:
                    e4:c5:31:96:4d:e9:6d:c3:18:88:2a:8a:97:58:f5:
                    9c:64:20:8e:de:68:43:ff:5b:ce:68:28:0c:77:ba:
                    98:d8:d7:73:1f:5e:83:d4:a1:e9:b9:a7:44:1b:5b:
                    fa:fe:f3:31:94:1d:32:63:88:90:90:38:9e:f7:4a:
                    88:39:34:c7:f1:e0:ac:ea:13:cb:63:d8:6d:f8:cc:
                    11:0d:cf:89:8f:2d:8c:50:8a:0e:45:26:10:d1:04:
                    3d:79:09:68:73:7f:15:0d:47:32:b2:15:1c:1f:07:
                    6c:a1:be:1c:25:07:21:1d:bc:3b:cd:b0:fa:b9:2f:
                    23:bf:38:70:c2:77:c3:71:3a:6e:c9:9e:ba:87:e4:
                    33:8b:72:33:11:d5:1f:8a:95:4a:be:ee:ab:02:22:
                    b2:19:98:92:12:09:39:98:91:44:95:a9:e6:86:f8:
                    4e:84:fc:46:eb:da:8c:6b:e3:d6:54:d7:f1:bc:cc:
                    b4:ed:ba:bb:ff:75:52:00:1e:88:54:fc:7e:51:5b:
                    1d:08:01:1d:a4:67:aa:91:23:73:9d:bf:e0:e8:40:
                    32:81:65:7a:45:de:9e:a3:f7:d9:ab:bc:1a:50:e2:
                    25:5c:08:ef:9c:6a:6b:80:61:a7:f2:ff:8e:b5:76:
                    f4:2c:7c:62:2a:c8:14:30:c6:83:78:6d:8f:b9:51:
                    bb:23:51:7f:6f:25:ed:86:00:68:fe:20:e8:c6:89:
                    ff:8e:ee:a9:25:b6:86:aa:e7:f9:5b:46:54:43:c8:
                    67:ec:28:9c:37:65:e3:31:d1:eb:82:cb:c6:66:bf:
                    99:70:db:d2:96:b0:8b:86:22:43:54:6f:25:9f:38:
                    f0:79:9c:0a:d3:8a:64:f7:4d:fd:9d:73:bb:10:7e:
                    24:54:30:05:70:5b:e2:ca:31:78:e6:a1:b2:48:ac:
                    f9:8e:06:3f:57:90:88:fd:5f:49:16:30:d1:48:f0:
                    94:37:0b:1c:3f:c6:f2:f5:da:2f:70:be:25:f2:55:
                    88:97:5c:b5:90:17:49:b7:0d:38:3e:95:d4:68:0e:
                    15:36:54:26:13:9d:f8:c9:1f:65:7c:eb:57:3d:9d:
                    9d:d8:71:ff:bc:35:53:fb:48:a6:ee:9c:d9:43:48:
                    24:9d:47
                Exponent: 65537 (0x10001)
        X509v3 extensions:
            X509v3 Basic Constraints: 
                CA:FALSE
            Netscape Comment: 
                Easy-RSA Generated Certificate
            X509v3 Subject Key Identifier: 
                FA:FA:B2:CE:EA:C9:2B:81:A9:8D:84:C0:D2:90:EF:FD:75:EA:6B:DD
            X509v3 Authority Key Identifier: 
                keyid:12:CD:60:04:D2:A0:80:9E:70:ED:C6:99:B8:7B:2C:C6:52:FD:19:A1
                DirName:/C=US/ST=OH/L=Columbus/O=VikingVPN/OU=MyOrganizationalUnit/CN=VikingVPN CA/name=EasyRSA/emailAddress=me@myhost.mydomain
                serial:CF:35:85:EE:80:BF:2A:3E

            X509v3 Extended Key Usage: 
                TLS Web Client Authentication
            X509v3 Key Usage: 
                Digital Signature
    Signature Algorithm: md5WithRSAEncryption
         77:63:86:82:a3:d3:dd:74:d6:67:79:1f:fa:69:ec:6e:52:69:
         a5:f5:da:94:ab:fb:2c:3a:de:ef:bc:6d:8e:b3:af:8f:6e:9c:
         65:4d:5e:9d:9f:75:e3:6f:c5:2e:01:f9:65:1c:fe:93:e8:ab:
         16:f6:4d:f2:2c:8a:93:c8:ae:91:46:0c:fd:e4:94:08:1c:2f:
         9a:e2:4a:8b:5a:cd:10:d9:1d:4c:a2:b0:54:af:21:68:7c:12:
         73:5d:88:e4:1e:86:ed:5f:be:0c:d8:af:2b:09:98:0a:a2:40:
         db:cb:0b:56:7c:5c:7e:72:61:d0:c6:b0:53:7c:72:51:f6:d9:
         ae:dc:e0:3e:e0:38:d2:62:fb:83:23:80:a9:05:6b:ce:83:2b:
         5b:ac:61:ab:29:90:2f:64:a7:5b:c7:62:a9:92:10:52:f6:75:
         b4:a8:96:a3:0b:e4:b8:00:c0:f2:71:c7:cc:3b:77:a0:d8:43:
         73:43:46:8f:9d:6b:47:0d:f0:ae:36:b1:bc:84:a0:04:bc:45:
         d4:80:87:10:b7:ca:e2:c9:41:e9:23:a1:aa:98:74:cc:20:a0:
         1d:50:31:fa:62:b3:e3:d2:b9:0e:f8:6e:7f:09:bb:70:31:10:
         f2:4d:af:f9:46:8a:ce:0a:5b:22:f6:9d:8c:db:6f:4c:ea:3d:
         80:96:a4:ed:4a:ce:0c:bb:81:3d:c3:43:ff:32:ad:77:b9:e9:
         af:fb:15:7a:77:45:93:9c:6b:b5:dd:60:78:88:2b:70:97:fc:
         93:d5:1c:01:fc:e0:c7:d3:b9:cd:bc:d9:7a:33:f2:62:29:e1:
         ed:31:83:60:49:23:62:d0:7a:02:0f:76:7f:e8:9a:86:20:e0:
         c4:07:cf:32:78:5d:8f:fd:c3:f2:97:36:d1:1c:c9:27:ad:7c:
         23:7e:1c:cc:e4:f1:49:6f:85:76:85:9b:93:e9:f5:52:e8:c9:
         47:32:50:41:73:b4:fe:42:f1:88:4b:43:c1:54:1d:8a:5f:09:
         63:f6:f1:da:13:74:ba:02:67:42:a5:2f:5d:0e:81:91:52:e1:
         b6:18:45:7d:31:86:66:94:ff:a8:69:51:00:26:7a:a2:fb:3a:
         8d:b1:cd:4c:90:02:09:08:04:c7:78:ee:5f:65:43:9f:43:5b:
         c9:10:1e:50:08:d7:3e:3d:a3:1e:83:5e:db:b6:a0:cc:6f:a5:
         38:67:e4:80:91:e1:06:f7:d1:26:75:54:5e:d5:fd:52:b9:04:
         00:e0:16:66:0c:9e:5d:0f:6b:96:2e:99:de:a6:4b:24:ce:c9:
         64:b1:b7:01:76:a8:42:05:ff:6d:41:ae:13:5f:ec:a2:07:03:
         df:0d:31:42:0b:a6:62:43
-----BEGIN CERTIFICATE-----
MIIGrDCCBJSgAwIBAgICERIwDQYJKoZIhvcNAQEEBQAwgawxCzAJBgNVBAYTAlVT
MQswCQYDVQQIEwJPSDERMA8GA1UEBxMIQ29sdW1idXMxEjAQBgNVBAoTCVZpa2lu
Z1ZQTjEdMBsGA1UECxMUTXlPcmdhbml6YXRpb25hbFVuaXQxFTATBgNVBAMTDFZp
a2luZ1ZQTiBDQTEQMA4GA1UEKRMHRWFzeVJTQTEhMB8GCSqGSIb3DQEJARYSbWVA
bXlob3N0Lm15ZG9tYWluMB4XDTE1MDIwMjIxMzY0N1oXDTI1MDEzMDIxMzY0N1ow
HjEcMBoGA1UEAxMTQ2xpZW50NjMxQ2VydGY1OWI0NDCCAiIwDQYJKoZIhvcNAQEB
BQADggIPADCCAgoCggIBAOL8b1xxC2qchpwfO+OfahDww6AdU/XIgUAaf3iH+gxE
K5h65gI9Gagd9YbwWhquiWLtQjP/1pegqn8d+o68gvlv0OIbpZ+xRcUuxpUFxBqk
Zs7j0CXxHK7I5MUxlk3pbcMYiCqKl1j1nGQgjt5oQ/9bzmgoDHe6mNjXcx9eg9Sh
6bmnRBtb+v7zMZQdMmOIkJA4nvdKiDk0x/HgrOoTy2PYbfjMEQ3PiY8tjFCKDkUm
ENEEPXkJaHN/FQ1HMrIVHB8HbKG+HCUHIR28O82w+rkvI784cMJ3w3E6bsmeuofk
M4tyMxHVH4qVSr7uqwIishmYkhIJOZiRRJWp5ob4ToT8RuvajGvj1lTX8bzMtO26
u/91UgAeiFT8flFbHQgBHaRnqpEjc52/4OhAMoFlekXenqP32au8GlDiJVwI75xq
a4Bhp/L/jrV29Cx8YirIFDDGg3htj7lRuyNRf28l7YYAaP4g6MaJ/47uqSW2hqrn
+VtGVEPIZ+wonDdl4zHR64LLxma/mXDb0pawi4YiQ1RvJZ848HmcCtOKZPdN/Z1z
uxB+JFQwBXBb4soxeOahskis+Y4GP1eQiP1fSRYw0UjwlDcLHD/G8vXaL3C+JfJV
iJdctZAXSbcNOD6V1GgOFTZUJhOd+MkfZXzrVz2dndhx/7w1U/tIpu6c2UNIJJ1H
AgMBAAGjggFjMIIBXzAJBgNVHRMEAjAAMC0GCWCGSAGG+EIBDQQgFh5FYXN5LVJT
QSBHZW5lcmF0ZWQgQ2VydGlmaWNhdGUwHQYDVR0OBBYEFPr6ss7qySuBqY2EwNKQ
7/116mvdMIHhBgNVHSMEgdkwgdaAFBLNYATSoICecO3Gmbh7LMZS/RmhoYGypIGv
MIGsMQswCQYDVQQGEwJVUzELMAkGA1UECBMCT0gxETAPBgNVBAcTCENvbHVtYnVz
MRIwEAYDVQQKEwlWaWtpbmdWUE4xHTAbBgNVBAsTFE15T3JnYW5pemF0aW9uYWxV
bml0MRUwEwYDVQQDEwxWaWtpbmdWUE4gQ0ExEDAOBgNVBCkTB0Vhc3lSU0ExITAf
BgkqhkiG9w0BCQEWEm1lQG15aG9zdC5teWRvbWFpboIJAM81he6Avyo+MBMGA1Ud
JQQMMAoGCCsGAQUFBwMCMAsGA1UdDwQEAwIHgDANBgkqhkiG9w0BAQQFAAOCAgEA
d2OGgqPT3XTWZ3kf+mnsblJppfXalKv7LDre77xtjrOvj26cZU1enZ9142/FLgH5
ZRz+k+irFvZN8iyKk8iukUYM/eSUCBwvmuJKi1rNENkdTKKwVK8haHwSc12I5B6G
7V++DNivKwmYCqJA28sLVnxcfnJh0MawU3xyUfbZrtzgPuA40mL7gyOAqQVrzoMr
W6xhqymQL2SnW8diqZIQUvZ1tKiWowvkuADA8nHHzDt3oNhDc0NGj51rRw3wrjax
vISgBLxF1ICHELfK4slB6SOhqph0zCCgHVAx+mKz49K5Dvhufwm7cDEQ8k2v+UaK
zgpbIvadjNtvTOo9gJak7UrODLuBPcND/zKtd7npr/sVendFk5xrtd1geIgrcJf8
k9UcAfzgx9O5zbzZejPyYinh7TGDYEkjYtB6Ag92f+iahiDgxAfPMnhdj/3D8pc2
0RzJJ618I34czOTxSW+FdoWbk+n1UujJRzJQQXO0/kLxiEtDwVQdil8JY/bx2hN0
ugJnQqUvXQ6BkVLhthhFfTGGZpT/qGlRACZ6ovs6jbHNTJACCQgEx3juX2VDn0Nb
yRAeUAjXPj2jHoNe27agzG+lOGfkgJHhBvfRJnVUXtX9UrkEAOAWZgyeXQ9rli6Z
3qZLJM7JZLG3AXaoQgX/bUGuE1/sogcD3w0xQgumYkM=
-----END CERTIFICATE-----
