Certificate:
    Data:
        Version: 3 (0x2)
        Serial Number: 4373 (0x1115)
    Signature Algorithm: md5WithRSAEncryption
        Issuer: C=US, ST=OH, L=Columbus, O=VikingVPN, OU=MyOrganizationalUnit, CN=VikingVPN CA/name=EasyRSA/emailAddress=me@myhost.mydomain
        Validity
            Not Before: Feb  3 05:42:22 2015 GMT
            Not After : Jan 31 05:42:22 2025 GMT
        Subject: CN=Client1423Cert055622
        Subject Public Key Info:
            Public Key Algorithm: rsaEncryption
                Public-Key: (4096 bit)
                Modulus:
                    00:d7:40:5c:64:12:e8:89:85:c9:7d:22:cb:7b:3b:
                    a7:05:2a:d1:e6:1f:7b:9b:df:0d:81:f1:a4:c1:89:
                    03:8d:7a:d3:2d:05:01:b2:17:6d:6b:9b:de:7e:c3:
                    aa:a5:1e:48:97:65:fd:e4:8d:58:c6:f7:71:b8:3b:
                    49:de:8f:e9:2a:56:11:e2:0c:a0:ff:6e:e2:27:9b:
                    fe:40:14:81:c9:26:e6:15:e9:66:22:1e:08:1a:8c:
                    b7:9a:ca:8c:37:15:ae:4d:12:71:ba:e7:2f:b1:f6:
                    76:17:24:18:35:7c:fb:e2:b6:59:fe:1c:f1:d0:76:
                    68:8d:27:82:af:97:60:ef:87:58:37:43:93:a3:73:
                    46:09:27:65:77:8c:9e:98:70:25:f9:2b:e8:52:4b:
                    21:4e:d6:66:26:2f:e0:8c:69:60:53:c4:05:2a:9c:
                    ae:f0:6c:2c:d7:e0:5a:91:ed:a5:24:14:a3:5b:12:
                    df:d3:a7:66:f0:a4:68:b3:30:9a:34:ed:2d:a1:ae:
                    80:0c:b8:c5:b1:4c:94:a2:78:7d:d9:4c:31:82:91:
                    64:77:34:bb:72:3e:1c:b5:26:62:81:48:97:cf:12:
                    a2:ab:4b:0b:85:95:df:d8:17:5a:cc:14:6e:53:f7:
                    96:bf:6c:f3:0b:7f:83:96:58:d4:7a:2b:80:bb:fb:
                    b4:4b:64:4d:99:19:9d:19:a2:cc:6a:ff:d5:e1:db:
                    87:05:b7:e6:40:50:33:23:2d:df:48:f0:5c:b1:4b:
                    53:64:6e:e7:3c:a5:8e:1a:fc:f0:6e:d3:36:4a:94:
                    4a:e3:46:b7:63:ea:fb:00:b8:5f:d0:9b:5c:22:7e:
                    6e:8d:eb:13:cb:9a:5f:48:3e:21:70:74:83:f1:df:
                    fa:41:83:63:51:57:6f:b8:36:ec:37:a3:0c:47:4a:
                    62:e2:32:01:f7:44:76:50:98:6a:84:49:6a:37:3c:
                    22:4a:dc:2c:dd:64:3d:17:9a:85:03:96:ee:33:0f:
                    49:59:a1:7f:c9:52:8b:42:df:9d:2e:67:b4:e6:82:
                    74:cc:97:e2:6e:54:16:af:0a:1f:43:9d:c5:24:08:
                    ed:fa:ff:6b:35:61:41:04:94:fb:f5:1b:2e:86:e9:
                    e6:63:23:30:f0:62:c7:bb:f5:26:eb:ac:87:33:ea:
                    4d:c2:e8:02:39:7b:c3:d8:a1:30:7f:83:b6:c6:39:
                    b1:f4:01:21:58:2f:a4:90:63:da:41:dd:aa:dc:d0:
                    a7:db:7c:6c:93:30:43:5e:75:48:41:0f:85:69:cd:
                    51:4b:dd:20:00:2e:f7:d4:84:65:99:fc:f0:a9:5d:
                    92:fa:cc:62:1b:bc:51:fc:b0:c7:f3:24:73:20:2b:
                    d5:c7:39
                Exponent: 65537 (0x10001)
        X509v3 extensions:
            X509v3 Basic Constraints: 
                CA:FALSE
            Netscape Comment: 
                Easy-RSA Generated Certificate
            X509v3 Subject Key Identifier: 
                EF:DE:55:BD:97:D8:7F:6F:2E:6D:E8:3B:CE:CB:4E:15:91:8D:87:E2
            X509v3 Authority Key Identifier: 
                keyid:12:CD:60:04:D2:A0:80:9E:70:ED:C6:99:B8:7B:2C:C6:52:FD:19:A1
                DirName:/C=US/ST=OH/L=Columbus/O=VikingVPN/OU=MyOrganizationalUnit/CN=VikingVPN CA/name=EasyRSA/emailAddress=me@myhost.mydomain
                serial:CF:35:85:EE:80:BF:2A:3E

            X509v3 Extended Key Usage: 
                TLS Web Client Authentication
            X509v3 Key Usage: 
                Digital Signature
    Signature Algorithm: md5WithRSAEncryption
         be:ca:d3:a2:18:5a:84:42:87:61:9a:bb:10:d0:bb:d2:3b:3c:
         1b:99:24:f4:a5:e6:af:66:c4:21:c2:58:49:49:73:2d:84:27:
         5d:cc:34:2f:64:df:af:55:3e:53:26:da:d0:1f:23:d0:35:36:
         62:07:29:03:a4:c3:22:44:19:34:50:5c:ba:b7:00:b7:9f:f5:
         56:44:bc:76:89:9d:e8:1f:21:35:d2:15:fc:95:95:53:d5:97:
         58:cb:1a:9a:88:dc:83:5d:71:5e:4d:73:2e:8c:66:63:f8:73:
         f2:59:52:25:78:46:8c:c9:66:fe:98:c9:a3:2b:db:92:ff:5d:
         b1:6e:8e:6c:c2:31:ff:cd:51:28:53:25:d1:14:35:c4:e1:94:
         ba:6e:1c:de:22:27:d8:88:c1:7d:06:48:9a:cd:92:c5:3d:86:
         42:5a:5f:dd:a6:c3:89:1d:fb:b9:3a:c2:9d:ca:0a:27:ce:24:
         48:a1:8e:96:45:2b:69:e7:9a:d1:20:22:47:38:6b:87:43:39:
         44:bf:a6:83:81:ec:1e:13:d6:f7:fd:91:13:13:db:b0:99:f0:
         28:23:a0:b6:de:03:2e:10:a9:77:c9:c5:88:e5:a5:32:c2:27:
         c2:25:40:39:1d:dd:fc:b0:c8:be:05:1e:c9:ae:14:39:57:69:
         dc:11:54:18:40:9b:c7:50:83:b6:54:f3:7a:51:ba:6d:93:e7:
         6d:3e:e3:2e:4e:f5:e6:67:8f:78:22:83:de:c7:de:61:30:f1:
         b1:7d:bc:8e:7f:de:b4:74:10:05:56:6b:d9:49:b1:ec:1a:5e:
         f9:2a:fb:16:73:4e:65:5e:ca:17:27:d6:c3:ec:7c:c9:0e:47:
         21:e4:fe:8a:f9:3e:db:3a:b4:77:7a:12:a2:c1:db:f7:c1:b9:
         c6:9b:9b:33:a4:d1:81:4b:22:75:1f:48:8d:83:fe:17:9f:8c:
         8a:4e:7e:93:c3:9a:15:b4:e3:75:f5:46:e4:c7:8e:e4:bc:2c:
         08:d9:c9:0b:1f:d3:86:64:62:7b:cc:d1:38:1d:6f:e7:5d:c3:
         e0:ec:84:89:25:54:8a:f1:64:0a:46:31:4c:69:d2:20:08:b0:
         79:84:2a:4d:b7:30:a9:69:d2:04:88:04:d6:05:02:6c:aa:33:
         55:f1:d9:f0:7c:3e:33:a0:83:7c:3a:73:24:95:16:44:c0:01:
         78:7a:66:dd:6e:cf:67:c3:28:d6:03:31:94:f0:60:ee:03:64:
         f2:e4:9d:35:ef:f8:ad:03:75:bf:28:74:4c:ba:47:da:74:ea:
         67:46:69:07:54:1e:4d:63:d0:90:b0:30:31:26:9a:a0:46:b8:
         32:b4:54:ff:85:0d:75:cd
-----BEGIN CERTIFICATE-----
MIIGrTCCBJWgAwIBAgICERUwDQYJKoZIhvcNAQEEBQAwgawxCzAJBgNVBAYTAlVT
MQswCQYDVQQIEwJPSDERMA8GA1UEBxMIQ29sdW1idXMxEjAQBgNVBAoTCVZpa2lu
Z1ZQTjEdMBsGA1UECxMUTXlPcmdhbml6YXRpb25hbFVuaXQxFTATBgNVBAMTDFZp
a2luZ1ZQTiBDQTEQMA4GA1UEKRMHRWFzeVJTQTEhMB8GCSqGSIb3DQEJARYSbWVA
bXlob3N0Lm15ZG9tYWluMB4XDTE1MDIwMzA1NDIyMloXDTI1MDEzMTA1NDIyMlow
HzEdMBsGA1UEAxMUQ2xpZW50MTQyM0NlcnQwNTU2MjIwggIiMA0GCSqGSIb3DQEB
AQUAA4ICDwAwggIKAoICAQDXQFxkEuiJhcl9Ist7O6cFKtHmH3ub3w2B8aTBiQON
etMtBQGyF21rm95+w6qlHkiXZf3kjVjG93G4O0nej+kqVhHiDKD/buInm/5AFIHJ
JuYV6WYiHggajLeayow3Fa5NEnG65y+x9nYXJBg1fPvitln+HPHQdmiNJ4Kvl2Dv
h1g3Q5Ojc0YJJ2V3jJ6YcCX5K+hSSyFO1mYmL+CMaWBTxAUqnK7wbCzX4FqR7aUk
FKNbEt/Tp2bwpGizMJo07S2hroAMuMWxTJSieH3ZTDGCkWR3NLtyPhy1JmKBSJfP
EqKrSwuFld/YF1rMFG5T95a/bPMLf4OWWNR6K4C7+7RLZE2ZGZ0Zosxq/9Xh24cF
t+ZAUDMjLd9I8FyxS1Nkbuc8pY4a/PBu0zZKlErjRrdj6vsAuF/Qm1wifm6N6xPL
ml9IPiFwdIPx3/pBg2NRV2+4Nuw3owxHSmLiMgH3RHZQmGqESWo3PCJK3CzdZD0X
moUDlu4zD0lZoX/JUotC350uZ7TmgnTMl+JuVBavCh9DncUkCO36/2s1YUEElPv1
Gy6G6eZjIzDwYse79SbrrIcz6k3C6AI5e8PYoTB/g7bGObH0ASFYL6SQY9pB3arc
0KfbfGyTMENedUhBD4VpzVFL3SAALvfUhGWZ/PCpXZL6zGIbvFH8sMfzJHMgK9XH
OQIDAQABo4IBYzCCAV8wCQYDVR0TBAIwADAtBglghkgBhvhCAQ0EIBYeRWFzeS1S
U0EgR2VuZXJhdGVkIENlcnRpZmljYXRlMB0GA1UdDgQWBBTv3lW9l9h/by5t6DvO
y04VkY2H4jCB4QYDVR0jBIHZMIHWgBQSzWAE0qCAnnDtxpm4eyzGUv0ZoaGBsqSB
rzCBrDELMAkGA1UEBhMCVVMxCzAJBgNVBAgTAk9IMREwDwYDVQQHEwhDb2x1bWJ1
czESMBAGA1UEChMJVmlraW5nVlBOMR0wGwYDVQQLExRNeU9yZ2FuaXphdGlvbmFs
VW5pdDEVMBMGA1UEAxMMVmlraW5nVlBOIENBMRAwDgYDVQQpEwdFYXN5UlNBMSEw
HwYJKoZIhvcNAQkBFhJtZUBteWhvc3QubXlkb21haW6CCQDPNYXugL8qPjATBgNV
HSUEDDAKBggrBgEFBQcDAjALBgNVHQ8EBAMCB4AwDQYJKoZIhvcNAQEEBQADggIB
AL7K06IYWoRCh2GauxDQu9I7PBuZJPSl5q9mxCHCWElJcy2EJ13MNC9k369VPlMm
2tAfI9A1NmIHKQOkwyJEGTRQXLq3ALef9VZEvHaJnegfITXSFfyVlVPVl1jLGpqI
3INdcV5Ncy6MZmP4c/JZUiV4RozJZv6YyaMr25L/XbFujmzCMf/NUShTJdEUNcTh
lLpuHN4iJ9iIwX0GSJrNksU9hkJaX92mw4kd+7k6wp3KCifOJEihjpZFK2nnmtEg
Ikc4a4dDOUS/poOB7B4T1vf9kRMT27CZ8CgjoLbeAy4QqXfJxYjlpTLCJ8IlQDkd
3fywyL4FHsmuFDlXadwRVBhAm8dQg7ZU83pRum2T520+4y5O9eZnj3gig97H3mEw
8bF9vI5/3rR0EAVWa9lJsewaXvkq+xZzTmVeyhcn1sPsfMkORyHk/or5Pts6tHd6
EqLB2/fBucabmzOk0YFLInUfSI2D/hefjIpOfpPDmhW043X1RuTHjuS8LAjZyQsf
04ZkYnvM0Tgdb+ddw+DshIklVIrxZApGMUxp0iAIsHmEKk23MKlp0gSIBNYFAmyq
M1Xx2fB8PjOgg3w6cySVFkTAAXh6Zt1uz2fDKNYDMZTwYO4DZPLknTXv+K0Ddb8o
dEy6R9p06mdGaQdUHk1j0JCwMDEmmqBGuDK0VP+FDXXN
-----END CERTIFICATE-----
