Certificate:
    Data:
        Version: 3 (0x2)
        Serial Number: 4387 (0x1123)
    Signature Algorithm: md5WithRSAEncryption
        Issuer: C=US, ST=OH, L=Columbus, O=VikingVPN, OU=MyOrganizationalUnit, CN=VikingVPN CA/name=EasyRSA/emailAddress=me@myhost.mydomain
        Validity
            Not Before: Feb  5 13:21:29 2015 GMT
            Not After : Feb  2 13:21:29 2025 GMT
        Subject: CN=Client884Certfc4aa0
        Subject Public Key Info:
            Public Key Algorithm: rsaEncryption
                Public-Key: (4096 bit)
                Modulus:
                    00:d3:b7:09:e4:49:fa:cb:c7:6e:a9:c8:12:f6:f9:
                    74:f7:f6:ed:0c:60:01:3a:55:14:24:8b:d6:ca:cf:
                    31:46:38:fc:70:5b:87:94:35:d5:51:9c:84:33:9c:
                    ba:c8:7b:32:82:cd:5f:91:ae:79:1a:a9:d2:1e:90:
                    3f:5e:c5:56:76:67:70:90:86:29:83:c9:47:87:a6:
                    58:fb:80:35:d9:b8:a1:c3:30:5b:a0:4c:e2:f7:81:
                    69:5b:1f:47:18:ef:8d:6a:d6:e4:63:58:6f:b6:12:
                    78:19:7c:6e:b7:7e:6e:31:c1:19:dc:c7:f1:63:9f:
                    b1:ca:1a:16:88:e1:a4:80:58:4c:f8:de:83:31:75:
                    61:d0:1d:95:bf:d6:62:2d:fe:b9:90:f8:fa:08:56:
                    f3:97:53:1d:52:a7:3a:a5:3c:c4:83:22:4c:3a:19:
                    e3:a1:1d:10:ae:df:19:0c:d1:a2:7a:3d:bd:39:78:
                    bb:17:ad:5f:27:e6:94:41:32:0e:77:67:32:51:51:
                    2b:00:fb:ea:26:71:3b:d3:5e:de:75:75:a8:08:ef:
                    cd:ca:71:fd:a0:08:19:e6:00:66:84:f1:b4:ca:1f:
                    e4:61:8a:e9:b4:b0:5c:9a:1b:26:3c:fe:25:68:e4:
                    2a:e7:8f:47:11:26:59:8a:63:dc:08:35:68:e7:be:
                    3e:db:61:86:e5:97:5f:fd:b2:f3:27:b3:b6:c9:28:
                    24:81:69:5a:84:fd:c5:72:73:4c:dc:c7:2b:18:f8:
                    cc:3a:ed:24:0f:b8:3b:58:dd:f5:a8:d5:3c:62:4b:
                    9f:5b:39:ae:78:e7:fb:9a:cf:2d:12:b7:b5:a0:78:
                    c3:07:76:38:23:1a:f4:69:e1:70:29:c1:da:71:73:
                    1c:30:15:e8:80:2c:5d:5b:38:cf:e6:3c:38:e6:41:
                    dc:56:58:14:32:0d:9b:87:fb:0e:69:99:25:0e:8c:
                    c0:d0:fc:17:52:67:36:53:fc:ce:27:6c:39:74:4f:
                    4e:45:ac:5f:ab:d0:52:25:1a:ee:22:67:d5:54:5f:
                    3e:fe:24:c6:af:aa:4e:11:77:4a:56:98:29:de:d1:
                    3f:5e:57:6c:ee:04:0f:51:44:f4:16:f9:a0:be:d0:
                    f3:8e:83:78:be:50:08:43:d8:56:6f:bb:a8:7c:b0:
                    8e:7c:d7:79:a0:99:c6:95:ca:24:14:31:28:5f:d6:
                    3b:73:e8:b5:7c:ba:52:06:af:64:f5:c7:31:61:23:
                    e3:67:18:49:e2:3e:58:a9:e0:89:c8:35:ce:f5:55:
                    53:3c:49:a9:5d:c2:b3:5f:dd:65:2e:9b:b6:ef:ef:
                    75:a6:7e:0c:85:34:6d:bd:7b:7a:88:56:a2:f5:98:
                    c6:75:2b
                Exponent: 65537 (0x10001)
        X509v3 extensions:
            X509v3 Basic Constraints: 
                CA:FALSE
            Netscape Comment: 
                Easy-RSA Generated Certificate
            X509v3 Subject Key Identifier: 
                58:94:22:96:F0:BA:32:41:5C:3E:22:E5:CA:56:45:DF:59:5F:D6:DC
            X509v3 Authority Key Identifier: 
                keyid:12:CD:60:04:D2:A0:80:9E:70:ED:C6:99:B8:7B:2C:C6:52:FD:19:A1
                DirName:/C=US/ST=OH/L=Columbus/O=VikingVPN/OU=MyOrganizationalUnit/CN=VikingVPN CA/name=EasyRSA/emailAddress=me@myhost.mydomain
                serial:CF:35:85:EE:80:BF:2A:3E

            X509v3 Extended Key Usage: 
                TLS Web Client Authentication
            X509v3 Key Usage: 
                Digital Signature
    Signature Algorithm: md5WithRSAEncryption
         16:f2:a0:00:80:d6:4f:7c:24:49:b6:fd:5e:e9:dc:fc:32:b6:
         7d:9c:7d:7e:34:71:86:bc:65:99:f1:4c:a0:b4:58:30:1f:6e:
         72:61:ad:83:08:51:22:57:eb:54:ff:c4:ff:4b:ba:68:98:db:
         dd:46:2b:a8:b3:4e:5e:74:1f:2d:86:d3:3d:3a:4d:3c:5a:90:
         42:f3:00:dd:80:06:bf:d1:41:2e:aa:e7:eb:d8:1f:22:18:75:
         58:6d:6f:77:04:43:06:1f:d4:86:97:fe:fa:3e:6b:ef:66:34:
         28:b8:49:eb:e9:42:a6:b9:7c:9c:f8:b3:2a:d5:fb:fd:86:66:
         c2:e3:77:f5:c8:37:87:02:f3:4d:f3:84:02:27:55:9c:59:cc:
         82:02:be:9c:ca:b1:cb:27:4f:6d:0f:07:a1:cf:95:4e:3b:a4:
         7d:9a:9c:73:2f:4f:7d:f3:86:d6:73:4e:1d:9b:20:9e:00:2f:
         a8:9e:90:39:76:74:de:dc:69:c1:c3:e7:1f:bc:38:e6:21:ec:
         68:72:26:ae:7c:00:4a:73:b9:74:4f:2b:db:bf:28:34:2c:7a:
         62:9a:b6:19:1c:13:8b:23:10:0c:45:71:59:d1:de:cb:2e:2a:
         eb:62:d3:a9:b7:06:dc:21:cf:68:5f:c6:ca:b7:3b:04:a2:34:
         eb:ed:6d:7c:e3:9a:a2:5e:b8:09:9d:e0:15:a6:71:95:c4:49:
         10:3f:b8:79:ac:a8:f3:97:d1:7b:b6:af:5a:89:96:fb:73:4f:
         d4:9f:b3:8d:2a:0e:c0:df:0e:97:2b:1c:f8:d0:00:a8:a1:70:
         96:25:20:72:a8:77:fb:d4:dc:c6:cf:42:f6:49:82:84:ca:18:
         4c:36:05:13:98:2d:55:5c:8d:f3:6d:c4:5b:69:50:51:42:c6:
         06:92:bf:e0:9a:91:58:b1:91:c9:c6:f6:c7:69:06:34:2d:dd:
         71:b0:01:98:aa:5d:45:5d:88:38:8c:e8:4d:49:8a:2d:6e:83:
         06:62:a1:f5:1d:e7:a4:fc:a9:f9:98:61:63:67:79:97:fe:bd:
         c3:f5:19:84:bd:ce:89:a1:7e:61:49:a2:d3:9d:de:4c:1f:83:
         8f:cc:35:43:c2:02:4a:d3:a7:94:76:97:1a:21:f7:af:26:e4:
         0d:3d:40:40:52:e9:b1:2b:6b:3a:63:d1:7e:26:7f:3b:67:bc:
         18:0d:87:ae:d2:6e:3a:76:3a:11:54:f0:5f:9a:47:2f:52:ad:
         36:0c:f9:92:a6:fc:32:f7:a4:7e:fb:b1:0d:4e:1d:77:33:71:
         a7:9a:b1:b2:72:3a:4c:9b:ca:24:67:8a:76:68:44:9d:dc:ef:
         48:91:79:4f:f3:6a:b9:07
-----BEGIN CERTIFICATE-----
MIIGrDCCBJSgAwIBAgICESMwDQYJKoZIhvcNAQEEBQAwgawxCzAJBgNVBAYTAlVT
MQswCQYDVQQIEwJPSDERMA8GA1UEBxMIQ29sdW1idXMxEjAQBgNVBAoTCVZpa2lu
Z1ZQTjEdMBsGA1UECxMUTXlPcmdhbml6YXRpb25hbFVuaXQxFTATBgNVBAMTDFZp
a2luZ1ZQTiBDQTEQMA4GA1UEKRMHRWFzeVJTQTEhMB8GCSqGSIb3DQEJARYSbWVA
bXlob3N0Lm15ZG9tYWluMB4XDTE1MDIwNTEzMjEyOVoXDTI1MDIwMjEzMjEyOVow
HjEcMBoGA1UEAxMTQ2xpZW50ODg0Q2VydGZjNGFhMDCCAiIwDQYJKoZIhvcNAQEB
BQADggIPADCCAgoCggIBANO3CeRJ+svHbqnIEvb5dPf27QxgATpVFCSL1srPMUY4
/HBbh5Q11VGchDOcush7MoLNX5GueRqp0h6QP17FVnZncJCGKYPJR4emWPuANdm4
ocMwW6BM4veBaVsfRxjvjWrW5GNYb7YSeBl8brd+bjHBGdzH8WOfscoaFojhpIBY
TPjegzF1YdAdlb/WYi3+uZD4+ghW85dTHVKnOqU8xIMiTDoZ46EdEK7fGQzRono9
vTl4uxetXyfmlEEyDndnMlFRKwD76iZxO9Ne3nV1qAjvzcpx/aAIGeYAZoTxtMof
5GGK6bSwXJobJjz+JWjkKuePRxEmWYpj3Ag1aOe+PtthhuWXX/2y8yeztskoJIFp
WoT9xXJzTNzHKxj4zDrtJA+4O1jd9ajVPGJLn1s5rnjn+5rPLRK3taB4wwd2OCMa
9GnhcCnB2nFzHDAV6IAsXVs4z+Y8OOZB3FZYFDINm4f7DmmZJQ6MwND8F1JnNlP8
zidsOXRPTkWsX6vQUiUa7iJn1VRfPv4kxq+qThF3SlaYKd7RP15XbO4ED1FE9Bb5
oL7Q846DeL5QCEPYVm+7qHywjnzXeaCZxpXKJBQxKF/WO3PotXy6UgavZPXHMWEj
42cYSeI+WKngicg1zvVVUzxJqV3Cs1/dZS6btu/vdaZ+DIU0bb17eohWovWYxnUr
AgMBAAGjggFjMIIBXzAJBgNVHRMEAjAAMC0GCWCGSAGG+EIBDQQgFh5FYXN5LVJT
QSBHZW5lcmF0ZWQgQ2VydGlmaWNhdGUwHQYDVR0OBBYEFFiUIpbwujJBXD4i5cpW
Rd9ZX9bcMIHhBgNVHSMEgdkwgdaAFBLNYATSoICecO3Gmbh7LMZS/RmhoYGypIGv
MIGsMQswCQYDVQQGEwJVUzELMAkGA1UECBMCT0gxETAPBgNVBAcTCENvbHVtYnVz
MRIwEAYDVQQKEwlWaWtpbmdWUE4xHTAbBgNVBAsTFE15T3JnYW5pemF0aW9uYWxV
bml0MRUwEwYDVQQDEwxWaWtpbmdWUE4gQ0ExEDAOBgNVBCkTB0Vhc3lSU0ExITAf
BgkqhkiG9w0BCQEWEm1lQG15aG9zdC5teWRvbWFpboIJAM81he6Avyo+MBMGA1Ud
JQQMMAoGCCsGAQUFBwMCMAsGA1UdDwQEAwIHgDANBgkqhkiG9w0BAQQFAAOCAgEA
FvKgAIDWT3wkSbb9Xunc/DK2fZx9fjRxhrxlmfFMoLRYMB9ucmGtgwhRIlfrVP/E
/0u6aJjb3UYrqLNOXnQfLYbTPTpNPFqQQvMA3YAGv9FBLqrn69gfIhh1WG1vdwRD
Bh/Uhpf++j5r72Y0KLhJ6+lCprl8nPizKtX7/YZmwuN39cg3hwLzTfOEAidVnFnM
ggK+nMqxyydPbQ8Hoc+VTjukfZqccy9PffOG1nNOHZsgngAvqJ6QOXZ03txpwcPn
H7w45iHsaHImrnwASnO5dE8r278oNCx6Ypq2GRwTiyMQDEVxWdHeyy4q62LTqbcG
3CHPaF/Gyrc7BKI06+1tfOOaol64CZ3gFaZxlcRJED+4eayo85fRe7avWomW+3NP
1J+zjSoOwN8Olysc+NAAqKFwliUgcqh3+9Tcxs9C9kmChMoYTDYFE5gtVVyN823E
W2lQUULGBpK/4JqRWLGRycb2x2kGNC3dcbABmKpdRV2IOIzoTUmKLW6DBmKh9R3n
pPyp+ZhhY2d5l/69w/UZhL3OiaF+YUmi053eTB+Dj8w1Q8ICStOnlHaXGiH3rybk
DT1AQFLpsStrOmPRfiZ/O2e8GA2HrtJuOnY6EVTwX5pHL1KtNgz5kqb8Mvekfvux
DU4ddzNxp5qxsnI6TJvKJGeKdmhEndzvSJF5T/NquQc=
-----END CERTIFICATE-----
