Certificate:
    Data:
        Version: 3 (0x2)
        Serial Number: 4403 (0x1133)
    Signature Algorithm: md5WithRSAEncryption
        Issuer: C=US, ST=OH, L=Columbus, O=VikingVPN, OU=MyOrganizationalUnit, CN=VikingVPN CA/name=EasyRSA/emailAddress=me@myhost.mydomain
        Validity
            Not Before: Feb  6 18:57:19 2015 GMT
            Not After : Feb  3 18:57:19 2025 GMT
        Subject: CN=Client1390Cert3e874c
        Subject Public Key Info:
            Public Key Algorithm: rsaEncryption
                Public-Key: (4096 bit)
                Modulus:
                    00:be:a9:79:5d:4e:37:d5:f4:5f:07:7b:85:ea:ee:
                    bc:8a:cb:0d:a5:ac:ac:2b:92:12:ab:4c:35:fe:0d:
                    40:95:14:58:2e:10:9a:d0:92:7b:36:10:8a:19:a8:
                    f0:2b:5f:c4:b5:53:27:8d:4e:aa:d1:9c:b8:9b:35:
                    dc:ca:78:d9:eb:b8:51:bc:97:f2:05:31:07:71:98:
                    76:93:90:ea:28:1f:3e:63:7a:51:3a:74:65:28:b3:
                    19:93:bd:f9:07:e7:19:c5:ce:4e:63:73:80:94:0e:
                    18:8d:7c:ae:87:16:b5:a2:4f:db:f2:4b:84:af:27:
                    7f:2c:e8:2d:54:c9:54:0c:bb:3c:32:41:a2:23:67:
                    a1:7b:f8:17:94:a3:09:2f:60:7d:1d:94:38:fa:b0:
                    18:ad:4f:83:89:5d:e8:45:31:28:55:ca:07:db:d5:
                    be:ae:6c:19:cf:09:7b:f6:97:5d:48:a1:39:0e:15:
                    9a:e5:97:26:ca:af:36:0e:27:c7:ec:89:1f:8d:4d:
                    ad:66:8d:31:0e:25:b0:c9:82:1a:4f:13:91:d1:6d:
                    24:9c:58:19:41:d9:37:20:d0:23:48:ca:3a:a2:35:
                    d7:bd:cd:ac:a0:9c:ea:44:6d:81:01:3a:47:be:09:
                    3a:ac:f4:9b:50:f3:2a:be:78:f0:51:60:4d:3f:08:
                    02:89:d8:9b:5d:1d:96:89:37:b8:b2:88:ff:5b:e4:
                    7e:c7:c5:53:29:99:0e:a2:f8:28:25:58:69:8d:86:
                    60:7e:e9:06:a5:10:4b:11:6b:96:25:07:2b:10:e5:
                    26:9a:6c:3c:df:7c:1b:e8:17:68:3e:18:5b:83:de:
                    c7:f2:72:59:d8:5d:63:53:0c:eb:29:b1:62:c9:c0:
                    00:f0:b0:05:54:bd:11:a7:72:ca:4c:1a:86:35:e4:
                    aa:e6:bc:0d:57:be:9a:e4:be:b2:d0:58:bd:f7:8f:
                    c8:db:69:32:17:68:8a:cb:4c:17:f2:cb:cd:43:f3:
                    7a:bd:e6:a1:1a:8b:5d:8d:41:f6:7b:cc:ed:04:a0:
                    d2:33:65:e1:8e:f2:d8:22:98:1f:ff:d5:83:8d:0b:
                    25:46:4c:31:cc:0c:a0:ba:50:8f:bf:e4:39:cf:77:
                    78:07:f3:79:f5:ab:70:3d:97:aa:cf:42:7e:c5:62:
                    0f:5b:08:92:b9:8f:65:39:f2:54:2f:6a:f5:eb:bd:
                    c9:a8:14:42:6b:18:d1:a1:8e:f1:90:0a:aa:b7:42:
                    2e:96:56:86:9d:c5:69:92:1f:17:8c:0c:c1:78:57:
                    ff:f0:dd:c2:3d:4a:0d:35:b1:db:d6:8d:18:df:36:
                    0f:78:db:ed:cf:da:89:71:97:11:6b:f5:56:4b:38:
                    ec:06:63
                Exponent: 65537 (0x10001)
        X509v3 extensions:
            X509v3 Basic Constraints: 
                CA:FALSE
            Netscape Comment: 
                Easy-RSA Generated Certificate
            X509v3 Subject Key Identifier: 
                65:C3:21:62:6B:2D:7F:F6:70:9A:36:E4:5D:A9:9E:DF:47:AA:F4:B0
            X509v3 Authority Key Identifier: 
                keyid:12:CD:60:04:D2:A0:80:9E:70:ED:C6:99:B8:7B:2C:C6:52:FD:19:A1
                DirName:/C=US/ST=OH/L=Columbus/O=VikingVPN/OU=MyOrganizationalUnit/CN=VikingVPN CA/name=EasyRSA/emailAddress=me@myhost.mydomain
                serial:CF:35:85:EE:80:BF:2A:3E

            X509v3 Extended Key Usage: 
                TLS Web Client Authentication
            X509v3 Key Usage: 
                Digital Signature
    Signature Algorithm: md5WithRSAEncryption
         59:9b:86:c8:a1:75:dd:7d:55:b8:d2:a8:48:c8:2c:50:ed:d0:
         64:83:0a:bb:fd:ad:de:45:1e:a8:41:d4:cc:84:ec:6c:df:e0:
         54:80:20:07:ee:37:b4:88:77:9d:f2:a4:5f:20:23:2d:0e:30:
         24:6b:ea:09:d7:4e:4e:f1:21:b0:ce:5f:72:9a:f7:a4:e0:e4:
         5d:b7:78:63:c8:bc:71:01:f8:b2:7a:28:72:55:b9:66:b9:36:
         ec:13:bd:fd:e2:5b:c4:4b:e2:32:b2:a9:f4:14:9f:8e:1d:70:
         86:e4:cb:87:e2:bb:e0:8b:af:06:40:83:e8:71:36:8a:1d:21:
         f4:29:23:90:3f:67:51:5c:b8:57:03:72:39:5d:e9:77:8d:05:
         75:80:16:71:a5:39:1e:c2:23:2a:87:ab:b7:38:1e:f7:06:8b:
         99:15:c0:ed:8b:e3:c5:b2:3a:57:60:25:51:52:dd:aa:bf:f9:
         79:24:42:0b:73:1a:3b:47:55:08:8f:93:18:95:8c:a3:c3:07:
         38:29:76:bc:8c:87:08:e3:24:f9:4a:21:55:d3:9f:4f:29:23:
         fb:fe:91:66:6a:68:58:0e:5b:34:6f:ba:2a:16:da:2c:e4:a0:
         cd:0c:08:6b:63:32:8a:04:6b:d8:a6:b9:01:78:19:66:54:2f:
         c8:ab:76:63:5d:b0:16:0d:f4:5b:c4:b4:0e:a7:3f:0b:f0:96:
         ff:b5:e2:00:00:e1:ac:f4:53:c6:3f:aa:9f:af:30:10:34:13:
         cb:8d:86:d7:31:47:67:43:ef:e9:7d:83:b8:04:fb:db:e6:47:
         df:b8:fd:ee:df:da:1a:17:2d:f1:e0:e8:40:fb:40:87:9c:2c:
         64:4c:30:89:54:81:94:0b:5c:83:f5:69:c0:50:d8:3e:0d:7f:
         3d:58:d6:d5:af:09:f4:16:75:1e:93:ba:7b:9a:2a:76:e2:f3:
         03:ec:d6:4f:73:70:3a:a8:42:aa:d6:b9:14:32:67:45:93:06:
         25:b3:92:1c:27:b6:8d:34:ea:b8:ef:37:be:b9:d3:53:7f:fe:
         77:71:87:78:c7:3a:4c:8f:db:38:62:46:2c:d6:cc:c3:2b:48:
         72:02:bf:b3:a2:c5:57:ed:4d:20:9f:80:c1:c2:dc:91:66:85:
         84:db:6a:18:97:39:91:17:2b:ac:06:8b:64:dc:f3:d1:ae:9d:
         a1:b6:b4:d8:57:4d:72:43:b4:02:16:20:c4:a2:73:c4:d0:db:
         ff:1f:ac:f6:d7:5d:53:4c:df:8f:61:b5:62:7d:15:95:58:1b:
         3e:0e:f9:f6:f7:13:d0:c2:6b:51:53:f8:23:fd:7f:97:ba:67:
         33:15:a8:bb:dd:09:4a:a3
-----BEGIN CERTIFICATE-----
MIIGrTCCBJWgAwIBAgICETMwDQYJKoZIhvcNAQEEBQAwgawxCzAJBgNVBAYTAlVT
MQswCQYDVQQIEwJPSDERMA8GA1UEBxMIQ29sdW1idXMxEjAQBgNVBAoTCVZpa2lu
Z1ZQTjEdMBsGA1UECxMUTXlPcmdhbml6YXRpb25hbFVuaXQxFTATBgNVBAMTDFZp
a2luZ1ZQTiBDQTEQMA4GA1UEKRMHRWFzeVJTQTEhMB8GCSqGSIb3DQEJARYSbWVA
bXlob3N0Lm15ZG9tYWluMB4XDTE1MDIwNjE4NTcxOVoXDTI1MDIwMzE4NTcxOVow
HzEdMBsGA1UEAxMUQ2xpZW50MTM5MENlcnQzZTg3NGMwggIiMA0GCSqGSIb3DQEB
AQUAA4ICDwAwggIKAoICAQC+qXldTjfV9F8He4Xq7ryKyw2lrKwrkhKrTDX+DUCV
FFguEJrQkns2EIoZqPArX8S1UyeNTqrRnLibNdzKeNnruFG8l/IFMQdxmHaTkOoo
Hz5jelE6dGUosxmTvfkH5xnFzk5jc4CUDhiNfK6HFrWiT9vyS4SvJ38s6C1UyVQM
uzwyQaIjZ6F7+BeUowkvYH0dlDj6sBitT4OJXehFMShVygfb1b6ubBnPCXv2l11I
oTkOFZrllybKrzYOJ8fsiR+NTa1mjTEOJbDJghpPE5HRbSScWBlB2Tcg0CNIyjqi
Nde9zaygnOpEbYEBOke+CTqs9JtQ8yq+ePBRYE0/CAKJ2JtdHZaJN7iyiP9b5H7H
xVMpmQ6i+CglWGmNhmB+6QalEEsRa5YlBysQ5SaabDzffBvoF2g+GFuD3sfyclnY
XWNTDOspsWLJwADwsAVUvRGncspMGoY15KrmvA1XvprkvrLQWL33j8jbaTIXaIrL
TBfyy81D83q95qEai12NQfZ7zO0EoNIzZeGO8tgimB//1YONCyVGTDHMDKC6UI+/
5DnPd3gH83n1q3A9l6rPQn7FYg9bCJK5j2U58lQvavXrvcmoFEJrGNGhjvGQCqq3
Qi6WVoadxWmSHxeMDMF4V//w3cI9Sg01sdvWjRjfNg942+3P2olxlxFr9VZLOOwG
YwIDAQABo4IBYzCCAV8wCQYDVR0TBAIwADAtBglghkgBhvhCAQ0EIBYeRWFzeS1S
U0EgR2VuZXJhdGVkIENlcnRpZmljYXRlMB0GA1UdDgQWBBRlwyFiay1/9nCaNuRd
qZ7fR6r0sDCB4QYDVR0jBIHZMIHWgBQSzWAE0qCAnnDtxpm4eyzGUv0ZoaGBsqSB
rzCBrDELMAkGA1UEBhMCVVMxCzAJBgNVBAgTAk9IMREwDwYDVQQHEwhDb2x1bWJ1
czESMBAGA1UEChMJVmlraW5nVlBOMR0wGwYDVQQLExRNeU9yZ2FuaXphdGlvbmFs
VW5pdDEVMBMGA1UEAxMMVmlraW5nVlBOIENBMRAwDgYDVQQpEwdFYXN5UlNBMSEw
HwYJKoZIhvcNAQkBFhJtZUBteWhvc3QubXlkb21haW6CCQDPNYXugL8qPjATBgNV
HSUEDDAKBggrBgEFBQcDAjALBgNVHQ8EBAMCB4AwDQYJKoZIhvcNAQEEBQADggIB
AFmbhsihdd19VbjSqEjILFDt0GSDCrv9rd5FHqhB1MyE7Gzf4FSAIAfuN7SId53y
pF8gIy0OMCRr6gnXTk7xIbDOX3Ka96Tg5F23eGPIvHEB+LJ6KHJVuWa5NuwTvf3i
W8RL4jKyqfQUn44dcIbky4fiu+CLrwZAg+hxNoodIfQpI5A/Z1FcuFcDcjld6XeN
BXWAFnGlOR7CIyqHq7c4HvcGi5kVwO2L48WyOldgJVFS3aq/+XkkQgtzGjtHVQiP
kxiVjKPDBzgpdryMhwjjJPlKIVXTn08pI/v+kWZqaFgOWzRvuioW2izkoM0MCGtj
MooEa9imuQF4GWZUL8irdmNdsBYN9FvEtA6nPwvwlv+14gAA4az0U8Y/qp+vMBA0
E8uNhtcxR2dD7+l9g7gE+9vmR9+4/e7f2hoXLfHg6ED7QIecLGRMMIlUgZQLXIP1
acBQ2D4Nfz1Y1tWvCfQWdR6TunuaKnbi8wPs1k9zcDqoQqrWuRQyZ0WTBiWzkhwn
to006rjvN76501N//ndxh3jHOkyP2zhiRizWzMMrSHICv7OixVftTSCfgMHC3JFm
hYTbahiXOZEXK6wGi2Tc89GunaG2tNhXTXJDtAIWIMSic8TQ2/8frPbXXVNM349h
tWJ9FZVYGz4O+fb3E9DCa1FT+CP9f5e6ZzMVqLvdCUqj
-----END CERTIFICATE-----
