Certificate:
    Data:
        Version: 3 (0x2)
        Serial Number: 4422 (0x1146)
    Signature Algorithm: md5WithRSAEncryption
        Issuer: C=US, ST=OH, L=Columbus, O=VikingVPN, OU=MyOrganizationalUnit, CN=VikingVPN CA/name=EasyRSA/emailAddress=me@myhost.mydomain
        Validity
            Not Before: Feb  8 17:32:56 2015 GMT
            Not After : Feb  5 17:32:56 2025 GMT
        Subject: CN=Client1438Cert90ed7c
        Subject Public Key Info:
            Public Key Algorithm: rsaEncryption
                Public-Key: (4096 bit)
                Modulus:
                    00:be:f5:3d:9c:84:3f:20:d2:0a:6e:01:cc:42:a1:
                    e9:20:0f:d6:1f:e4:b8:4a:f7:6d:3c:72:97:5e:f6:
                    cc:0a:ef:10:43:a4:55:c0:65:07:27:c0:1a:8c:82:
                    a3:38:77:d6:c9:7b:66:05:43:86:b7:d8:36:81:13:
                    4d:c7:f3:1c:65:cc:df:44:3b:01:b2:d2:0e:8d:1a:
                    41:d8:33:59:57:81:ea:8a:b4:49:78:40:78:4c:7f:
                    76:22:2b:ac:02:ce:b8:53:ad:6c:24:b9:c0:1f:57:
                    33:58:68:08:f2:85:c9:e6:e4:28:b2:12:3d:1e:13:
                    95:dc:17:bf:e5:d7:28:26:b7:2a:22:ae:c1:15:bb:
                    d7:d4:ca:12:99:7b:13:5a:4c:c2:62:a3:e7:87:2a:
                    38:3e:99:64:2b:49:5b:a8:7c:23:13:30:3b:08:23:
                    0d:d3:98:5b:a3:25:c6:22:c4:5d:93:40:1f:92:01:
                    f5:f2:69:21:cc:cb:0c:1f:06:fd:91:e9:7e:bb:3d:
                    8d:a0:08:e8:b2:a5:f3:6f:1f:c4:76:8f:61:31:70:
                    f5:f0:fb:1e:3c:86:ce:bf:46:28:95:59:6a:04:ca:
                    9a:8f:30:b5:16:2d:fb:9e:f6:7a:23:0e:b3:19:36:
                    ff:10:3c:52:4c:21:c0:09:68:8c:f0:42:6b:8c:06:
                    31:e0:5f:e3:05:60:1b:2f:91:b2:fc:cd:1c:48:7a:
                    00:bd:9d:7e:ab:b4:d5:ef:c8:df:b2:2d:36:1f:ca:
                    17:73:0e:7d:a0:61:1c:3d:15:f6:29:0f:16:99:9d:
                    4b:f7:23:7b:a5:66:7e:2c:1e:06:fe:8b:3f:05:10:
                    cb:6d:15:5f:9a:67:f2:65:23:28:64:dc:43:41:1e:
                    32:d5:4d:bf:5c:3e:8b:2c:b0:98:3d:35:3e:2a:73:
                    a2:72:08:f4:aa:f7:cc:97:82:83:97:e6:5f:27:f6:
                    40:bc:04:60:39:52:e1:db:52:e1:80:3c:b0:8c:eb:
                    18:7b:05:03:78:88:f9:93:f1:fc:5d:1f:6e:41:07:
                    b4:9e:1d:ff:3c:36:ab:73:4e:aa:34:dc:b1:b0:fa:
                    ef:f1:60:07:09:a9:1a:12:42:ec:b8:11:a7:eb:1f:
                    c4:04:51:1c:6e:30:b7:43:f8:52:9e:55:da:83:73:
                    4e:30:a0:59:f5:fe:88:48:b1:04:b9:5b:0c:d6:93:
                    b9:bf:50:19:72:61:b3:0d:98:94:c8:e8:71:67:8f:
                    43:94:bb:45:c8:d8:09:31:1d:f8:70:c8:53:f7:32:
                    d9:53:68:bb:b2:6a:7c:0a:4f:0f:4e:95:51:12:54:
                    bb:83:c3:a9:9c:12:0d:b3:f6:1a:30:71:ab:e5:87:
                    95:fa:77
                Exponent: 65537 (0x10001)
        X509v3 extensions:
            X509v3 Basic Constraints: 
                CA:FALSE
            Netscape Comment: 
                Easy-RSA Generated Certificate
            X509v3 Subject Key Identifier: 
                FD:1D:58:D3:4D:D5:B0:B8:80:71:DD:14:26:D6:87:5B:7C:32:BC:69
            X509v3 Authority Key Identifier: 
                keyid:12:CD:60:04:D2:A0:80:9E:70:ED:C6:99:B8:7B:2C:C6:52:FD:19:A1
                DirName:/C=US/ST=OH/L=Columbus/O=VikingVPN/OU=MyOrganizationalUnit/CN=VikingVPN CA/name=EasyRSA/emailAddress=me@myhost.mydomain
                serial:CF:35:85:EE:80:BF:2A:3E

            X509v3 Extended Key Usage: 
                TLS Web Client Authentication
            X509v3 Key Usage: 
                Digital Signature
    Signature Algorithm: md5WithRSAEncryption
         27:53:f3:94:4e:14:6d:f7:67:43:ce:ca:32:46:84:6f:47:92:
         f0:54:0c:f0:73:df:a6:93:4a:c5:26:9f:3a:8e:71:fe:0f:dd:
         87:c1:b2:17:40:c6:90:22:63:74:95:2a:d5:bf:a6:07:08:53:
         37:b6:cf:62:7c:d0:82:86:b0:0b:5c:a3:57:cf:be:e9:2b:fb:
         56:b2:03:1d:13:8a:63:00:d7:7a:47:70:46:2a:e5:31:3f:2c:
         af:7e:44:cb:0c:a4:68:fd:46:81:bb:87:bc:ee:6c:6d:3f:25:
         b3:f4:e7:dc:41:9d:b1:ca:a8:25:61:fa:bc:b1:20:e5:e9:e4:
         15:94:a4:7c:57:f8:7c:93:ca:11:c4:40:93:30:1a:a8:a8:5a:
         b4:bc:48:19:50:3e:dc:c2:ba:f5:6f:20:a9:9f:8f:5c:a5:c1:
         01:df:1f:56:ea:95:cc:19:10:da:40:cc:9a:f4:73:b8:7d:e3:
         bc:a4:d2:d0:84:e1:83:12:47:b8:5a:d8:6b:ac:32:aa:06:fc:
         6b:9d:27:c7:36:00:9a:b1:4e:2a:57:7d:af:d3:f4:d2:f8:9a:
         37:29:78:b4:98:e0:a3:94:e5:0b:85:4a:a7:e1:48:13:6b:e8:
         00:be:90:bb:c1:d8:f9:3c:b9:e2:20:5f:22:55:71:00:7e:10:
         1f:cf:c1:40:44:72:60:d1:8f:35:0f:f7:e9:9c:af:45:bb:87:
         6e:46:11:44:5f:98:c3:fb:65:82:07:87:66:49:75:9f:31:c1:
         4c:c9:40:54:68:4b:fb:15:24:b0:39:6d:f0:1d:9e:2c:40:1c:
         85:99:fb:cf:07:f8:62:34:57:f7:fe:c5:1c:f8:01:6a:97:40:
         f0:9e:e5:8e:fe:ff:47:03:ad:2f:ad:43:1c:f3:aa:98:d1:b9:
         05:d6:b5:7b:77:d3:c6:a1:4b:68:06:fd:3f:e8:7f:77:0b:01:
         14:3d:47:5a:e4:7d:b2:48:2b:25:94:e7:f5:15:69:e3:7e:11:
         fc:f7:21:d6:09:30:34:f2:48:1a:dd:0a:89:c0:8f:7a:4f:a8:
         76:6c:83:f3:68:05:b8:4b:b3:d1:42:0d:34:33:b2:1d:ce:ff:
         55:ee:a1:4e:c5:22:11:be:d7:b8:9f:66:14:00:d9:57:4c:8e:
         21:52:1d:21:65:bb:1f:e4:3f:a5:07:14:d9:c3:d0:d4:e9:90:
         d7:3a:89:05:f1:2d:ea:83:07:1a:89:8e:03:52:97:45:73:23:
         ff:96:1a:fe:c7:2d:8b:32:ef:3b:1f:bc:7c:47:b9:0a:b5:7c:
         42:36:e4:20:67:14:07:6c:df:fa:d5:58:05:98:7e:20:00:b5:
         bb:2f:a1:86:b7:8c:e5:ab
-----BEGIN CERTIFICATE-----
MIIGrTCCBJWgAwIBAgICEUYwDQYJKoZIhvcNAQEEBQAwgawxCzAJBgNVBAYTAlVT
MQswCQYDVQQIEwJPSDERMA8GA1UEBxMIQ29sdW1idXMxEjAQBgNVBAoTCVZpa2lu
Z1ZQTjEdMBsGA1UECxMUTXlPcmdhbml6YXRpb25hbFVuaXQxFTATBgNVBAMTDFZp
a2luZ1ZQTiBDQTEQMA4GA1UEKRMHRWFzeVJTQTEhMB8GCSqGSIb3DQEJARYSbWVA
bXlob3N0Lm15ZG9tYWluMB4XDTE1MDIwODE3MzI1NloXDTI1MDIwNTE3MzI1Nlow
HzEdMBsGA1UEAxMUQ2xpZW50MTQzOENlcnQ5MGVkN2MwggIiMA0GCSqGSIb3DQEB
AQUAA4ICDwAwggIKAoICAQC+9T2chD8g0gpuAcxCoekgD9Yf5LhK9208cpde9swK
7xBDpFXAZQcnwBqMgqM4d9bJe2YFQ4a32DaBE03H8xxlzN9EOwGy0g6NGkHYM1lX
geqKtEl4QHhMf3YiK6wCzrhTrWwkucAfVzNYaAjyhcnm5CiyEj0eE5XcF7/l1ygm
tyoirsEVu9fUyhKZexNaTMJio+eHKjg+mWQrSVuofCMTMDsIIw3TmFujJcYixF2T
QB+SAfXyaSHMywwfBv2R6X67PY2gCOiypfNvH8R2j2ExcPXw+x48hs6/RiiVWWoE
ypqPMLUWLfue9nojDrMZNv8QPFJMIcAJaIzwQmuMBjHgX+MFYBsvkbL8zRxIegC9
nX6rtNXvyN+yLTYfyhdzDn2gYRw9FfYpDxaZnUv3I3ulZn4sHgb+iz8FEMttFV+a
Z/JlIyhk3ENBHjLVTb9cPosssJg9NT4qc6JyCPSq98yXgoOX5l8n9kC8BGA5UuHb
UuGAPLCM6xh7BQN4iPmT8fxdH25BB7SeHf88NqtzTqo03LGw+u/xYAcJqRoSQuy4
EafrH8QEURxuMLdD+FKeVdqDc04woFn1/ohIsQS5WwzWk7m/UBlyYbMNmJTI6HFn
j0OUu0XI2AkxHfhwyFP3MtlTaLuyanwKTw9OlVESVLuDw6mcEg2z9howcavlh5X6
dwIDAQABo4IBYzCCAV8wCQYDVR0TBAIwADAtBglghkgBhvhCAQ0EIBYeRWFzeS1S
U0EgR2VuZXJhdGVkIENlcnRpZmljYXRlMB0GA1UdDgQWBBT9HVjTTdWwuIBx3RQm
1odbfDK8aTCB4QYDVR0jBIHZMIHWgBQSzWAE0qCAnnDtxpm4eyzGUv0ZoaGBsqSB
rzCBrDELMAkGA1UEBhMCVVMxCzAJBgNVBAgTAk9IMREwDwYDVQQHEwhDb2x1bWJ1
czESMBAGA1UEChMJVmlraW5nVlBOMR0wGwYDVQQLExRNeU9yZ2FuaXphdGlvbmFs
VW5pdDEVMBMGA1UEAxMMVmlraW5nVlBOIENBMRAwDgYDVQQpEwdFYXN5UlNBMSEw
HwYJKoZIhvcNAQkBFhJtZUBteWhvc3QubXlkb21haW6CCQDPNYXugL8qPjATBgNV
HSUEDDAKBggrBgEFBQcDAjALBgNVHQ8EBAMCB4AwDQYJKoZIhvcNAQEEBQADggIB
ACdT85ROFG33Z0POyjJGhG9HkvBUDPBz36aTSsUmnzqOcf4P3YfBshdAxpAiY3SV
KtW/pgcIUze2z2J80IKGsAtco1fPvukr+1ayAx0TimMA13pHcEYq5TE/LK9+RMsM
pGj9RoG7h7zubG0/JbP059xBnbHKqCVh+ryxIOXp5BWUpHxX+HyTyhHEQJMwGqio
WrS8SBlQPtzCuvVvIKmfj1ylwQHfH1bqlcwZENpAzJr0c7h947yk0tCE4YMSR7ha
2GusMqoG/GudJ8c2AJqxTipXfa/T9NL4mjcpeLSY4KOU5QuFSqfhSBNr6AC+kLvB
2Pk8ueIgXyJVcQB+EB/PwUBEcmDRjzUP9+mcr0W7h25GEURfmMP7ZYIHh2ZJdZ8x
wUzJQFRoS/sVJLA5bfAdnixAHIWZ+88H+GI0V/f+xRz4AWqXQPCe5Y7+/0cDrS+t
QxzzqpjRuQXWtXt308ahS2gG/T/of3cLARQ9R1rkfbJIKyWU5/UVaeN+Efz3IdYJ
MDTySBrdConAj3pPqHZsg/NoBbhLs9FCDTQzsh3O/1XuoU7FIhG+17ifZhQA2VdM
jiFSHSFlux/kP6UHFNnD0NTpkNc6iQXxLeqDBxqJjgNSl0VzI/+WGv7HLYsy7zsf
vHxHuQq1fEI25CBnFAds3/rVWAWYfiAAtbsvoYa3jOWr
-----END CERTIFICATE-----
