Certificate:
    Data:
        Version: 3 (0x2)
        Serial Number: 4436 (0x1154)
    Signature Algorithm: md5WithRSAEncryption
        Issuer: C=US, ST=OH, L=Columbus, O=VikingVPN, OU=MyOrganizationalUnit, CN=VikingVPN CA/name=EasyRSA/emailAddress=me@myhost.mydomain
        Validity
            Not Before: Feb 11 13:11:12 2015 GMT
            Not After : Feb  8 13:11:12 2025 GMT
        Subject: CN=Client1172Cert13af6d
        Subject Public Key Info:
            Public Key Algorithm: rsaEncryption
                Public-Key: (4096 bit)
                Modulus:
                    00:ed:25:03:65:a2:6c:25:c3:0f:30:5f:37:40:eb:
                    5f:55:a0:e4:70:68:2f:ce:4d:98:20:44:7d:96:d9:
                    11:38:0b:51:a9:66:2f:76:20:85:06:78:86:e5:6e:
                    15:1d:16:96:f6:c9:a3:5d:ec:eb:8f:04:09:9e:36:
                    f8:77:5e:ba:42:52:f8:23:af:ca:74:1b:a3:e1:99:
                    5a:92:75:ae:9f:62:9d:da:4b:3f:09:2c:e8:7c:ec:
                    0c:85:41:e0:38:ea:21:da:03:4e:7f:dc:30:0b:8a:
                    1b:71:a1:cf:b6:8c:b6:a8:21:23:41:9b:2f:4c:75:
                    98:46:a4:5f:af:88:00:0f:39:aa:7e:81:d8:0d:d8:
                    4f:df:b1:09:6f:35:0e:2f:12:a4:aa:02:1c:cb:7a:
                    4e:a3:b8:9d:ee:00:30:8d:4e:8f:fa:de:6c:74:69:
                    6d:b3:32:dd:71:ea:57:3e:55:be:2a:3f:80:a4:1b:
                    80:4b:55:9c:42:a9:8f:c4:d5:b1:12:07:fc:a9:c8:
                    a9:43:fb:18:8f:c1:a9:76:48:6d:58:ab:db:70:83:
                    9c:0b:63:7c:ba:cb:ed:54:66:c4:ad:20:55:f4:fc:
                    ff:0a:81:7d:ff:47:3a:88:de:f7:ac:b9:5c:4d:b2:
                    86:27:7c:cb:68:e9:5f:7d:1d:f9:92:1d:e1:ad:95:
                    95:74:1e:a5:1e:16:f6:e1:34:51:77:63:75:88:4d:
                    b0:e2:82:c2:2b:61:d2:c9:53:ea:17:f6:c4:20:dc:
                    20:92:17:23:de:95:b3:a9:49:35:2c:22:90:4f:37:
                    d6:9e:d7:94:d0:dd:25:56:92:db:a6:38:6e:ac:dc:
                    19:fc:6f:c4:3a:d9:39:83:eb:45:f3:4a:25:20:1f:
                    08:bb:5f:58:f2:3b:b6:1b:43:81:11:5b:6e:bc:e3:
                    9e:12:4f:87:ed:bb:4a:8a:ac:c0:d3:02:b3:31:70:
                    93:e8:a0:e0:cc:d3:6a:01:ba:3a:71:9d:85:a0:41:
                    e2:9a:14:fe:df:df:ff:37:25:e1:c3:42:87:7b:a2:
                    56:1a:34:0d:e5:27:41:ad:94:4e:a5:90:d1:71:30:
                    c2:59:43:3a:73:1e:1d:be:70:10:9e:29:3c:cd:80:
                    be:e1:08:68:c1:ae:02:74:70:ee:c9:44:80:bc:3a:
                    83:e5:4d:ae:ad:c2:68:42:86:30:df:d0:d5:49:2b:
                    22:58:18:3b:52:11:b8:a0:ec:b7:8a:56:ca:08:94:
                    14:53:3f:69:ce:ee:e0:4f:31:34:8b:aa:a4:3d:2f:
                    07:9a:66:3e:ed:8f:7d:dc:e3:1b:a8:12:5e:9a:b9:
                    49:f0:1f:4f:6f:c5:5f:b8:8a:70:7e:b3:df:fc:06:
                    1f:73:0d
                Exponent: 65537 (0x10001)
        X509v3 extensions:
            X509v3 Basic Constraints: 
                CA:FALSE
            Netscape Comment: 
                Easy-RSA Generated Certificate
            X509v3 Subject Key Identifier: 
                31:D0:FA:3A:1E:F6:35:EC:59:F9:3A:F2:50:AC:79:BA:9F:F9:10:95
            X509v3 Authority Key Identifier: 
                keyid:12:CD:60:04:D2:A0:80:9E:70:ED:C6:99:B8:7B:2C:C6:52:FD:19:A1
                DirName:/C=US/ST=OH/L=Columbus/O=VikingVPN/OU=MyOrganizationalUnit/CN=VikingVPN CA/name=EasyRSA/emailAddress=me@myhost.mydomain
                serial:CF:35:85:EE:80:BF:2A:3E

            X509v3 Extended Key Usage: 
                TLS Web Client Authentication
            X509v3 Key Usage: 
                Digital Signature
    Signature Algorithm: md5WithRSAEncryption
         4b:56:47:b1:eb:5e:b5:65:79:c9:c0:9c:db:0e:06:56:7e:89:
         02:f0:b6:55:e0:58:89:09:16:8d:5f:6a:82:cb:80:56:0d:61:
         bb:55:12:fd:8f:4d:e2:33:84:5d:24:c5:86:9f:90:5a:36:98:
         01:36:3e:cc:5b:76:81:84:93:c3:68:4e:5c:29:01:3d:7e:a4:
         88:13:7d:a4:c6:f2:7a:65:8a:55:86:bf:7b:57:79:66:86:54:
         c5:0f:60:6a:4b:bb:c5:2a:4a:92:6f:e2:41:59:fc:c6:be:ce:
         2f:80:59:fe:b0:36:1c:e1:f5:65:e7:64:78:e5:b5:6a:ff:e9:
         a8:b2:c5:c9:60:89:bf:f0:65:4f:88:f8:7f:9c:ca:6e:6f:da:
         4b:5d:c0:d9:01:ef:a4:41:65:e0:40:3a:b8:d7:32:2a:c9:58:
         15:ea:dd:7f:de:f5:4e:44:8e:f1:96:86:90:f2:79:cb:c4:95:
         00:38:d4:f8:7b:33:86:e3:8d:f8:a3:46:29:ef:41:be:0f:c8:
         9e:15:54:1e:a8:46:43:e6:e8:9d:43:09:7b:13:90:30:f6:71:
         d7:7b:85:d2:e3:64:ea:cc:f2:c5:db:75:e1:77:d0:40:d0:73:
         dd:3d:7f:79:fc:1d:14:9e:d3:aa:bf:1a:41:2e:a1:e3:90:f9:
         37:bf:51:94:41:da:35:29:5b:df:ab:06:6b:ea:0d:5f:15:a5:
         90:28:0e:f0:d2:0a:1c:a9:a1:90:95:d1:7c:9f:de:87:a2:01:
         3f:26:db:03:79:b2:ff:67:aa:6d:cf:67:72:0a:de:8e:14:b4:
         0a:9b:9a:14:99:fc:79:c4:ee:5f:5e:4c:ee:67:32:18:ef:b9:
         66:06:24:24:0d:44:22:71:f1:36:b4:b3:71:65:6e:15:4b:a8:
         59:3f:53:3f:86:67:f4:7e:23:ab:0e:74:9b:30:8b:24:98:81:
         33:df:8d:08:d9:b6:06:50:68:91:31:3e:5a:d0:42:65:38:14:
         32:e8:0b:20:1a:e2:1b:14:0c:49:dc:49:5c:b3:72:d7:ca:35:
         ee:be:dd:7f:b8:9a:4d:b1:0d:e4:99:b7:6d:81:72:03:a2:f7:
         ad:e9:cf:60:d0:fe:9a:0b:08:22:8c:bb:5a:cc:a3:c2:02:ea:
         72:35:32:da:3e:9c:c1:de:b3:67:d2:3c:66:60:99:da:1d:79:
         60:da:2a:a4:fb:03:4a:02:7f:c1:82:e1:c6:3e:64:69:07:f5:
         c5:97:2a:df:db:cb:0f:99:a4:e4:de:4e:d5:ec:46:ff:30:82:
         89:c9:88:07:ad:7d:de:eb:88:9e:cc:3b:a6:ec:5f:7e:16:ea:
         f5:b5:3a:1a:2b:99:58:95
-----BEGIN CERTIFICATE-----
MIIGrTCCBJWgAwIBAgICEVQwDQYJKoZIhvcNAQEEBQAwgawxCzAJBgNVBAYTAlVT
MQswCQYDVQQIEwJPSDERMA8GA1UEBxMIQ29sdW1idXMxEjAQBgNVBAoTCVZpa2lu
Z1ZQTjEdMBsGA1UECxMUTXlPcmdhbml6YXRpb25hbFVuaXQxFTATBgNVBAMTDFZp
a2luZ1ZQTiBDQTEQMA4GA1UEKRMHRWFzeVJTQTEhMB8GCSqGSIb3DQEJARYSbWVA
bXlob3N0Lm15ZG9tYWluMB4XDTE1MDIxMTEzMTExMloXDTI1MDIwODEzMTExMlow
HzEdMBsGA1UEAxMUQ2xpZW50MTE3MkNlcnQxM2FmNmQwggIiMA0GCSqGSIb3DQEB
AQUAA4ICDwAwggIKAoICAQDtJQNlomwlww8wXzdA619VoORwaC/OTZggRH2W2RE4
C1GpZi92IIUGeIblbhUdFpb2yaNd7OuPBAmeNvh3XrpCUvgjr8p0G6PhmVqSda6f
Yp3aSz8JLOh87AyFQeA46iHaA05/3DALihtxoc+2jLaoISNBmy9MdZhGpF+viAAP
Oap+gdgN2E/fsQlvNQ4vEqSqAhzLek6juJ3uADCNTo/63mx0aW2zMt1x6lc+Vb4q
P4CkG4BLVZxCqY/E1bESB/ypyKlD+xiPwal2SG1Yq9twg5wLY3y6y+1UZsStIFX0
/P8KgX3/RzqI3vesuVxNsoYnfMto6V99HfmSHeGtlZV0HqUeFvbhNFF3Y3WITbDi
gsIrYdLJU+oX9sQg3CCSFyPelbOpSTUsIpBPN9ae15TQ3SVWktumOG6s3Bn8b8Q6
2TmD60XzSiUgHwi7X1jyO7YbQ4ERW268454ST4ftu0qKrMDTArMxcJPooODM02oB
ujpxnYWgQeKaFP7f3/83JeHDQod7olYaNA3lJ0GtlE6lkNFxMMJZQzpzHh2+cBCe
KTzNgL7hCGjBrgJ0cO7JRIC8OoPlTa6twmhChjDf0NVJKyJYGDtSEbig7LeKVsoI
lBRTP2nO7uBPMTSLqqQ9LweaZj7tj33c4xuoEl6auUnwH09vxV+4inB+s9/8Bh9z
DQIDAQABo4IBYzCCAV8wCQYDVR0TBAIwADAtBglghkgBhvhCAQ0EIBYeRWFzeS1S
U0EgR2VuZXJhdGVkIENlcnRpZmljYXRlMB0GA1UdDgQWBBQx0Po6HvY17Fn5OvJQ
rHm6n/kQlTCB4QYDVR0jBIHZMIHWgBQSzWAE0qCAnnDtxpm4eyzGUv0ZoaGBsqSB
rzCBrDELMAkGA1UEBhMCVVMxCzAJBgNVBAgTAk9IMREwDwYDVQQHEwhDb2x1bWJ1
czESMBAGA1UEChMJVmlraW5nVlBOMR0wGwYDVQQLExRNeU9yZ2FuaXphdGlvbmFs
VW5pdDEVMBMGA1UEAxMMVmlraW5nVlBOIENBMRAwDgYDVQQpEwdFYXN5UlNBMSEw
HwYJKoZIhvcNAQkBFhJtZUBteWhvc3QubXlkb21haW6CCQDPNYXugL8qPjATBgNV
HSUEDDAKBggrBgEFBQcDAjALBgNVHQ8EBAMCB4AwDQYJKoZIhvcNAQEEBQADggIB
AEtWR7HrXrVlecnAnNsOBlZ+iQLwtlXgWIkJFo1faoLLgFYNYbtVEv2PTeIzhF0k
xYafkFo2mAE2PsxbdoGEk8NoTlwpAT1+pIgTfaTG8nplilWGv3tXeWaGVMUPYGpL
u8UqSpJv4kFZ/Ma+zi+AWf6wNhzh9WXnZHjltWr/6aiyxclgib/wZU+I+H+cym5v
2ktdwNkB76RBZeBAOrjXMirJWBXq3X/e9U5EjvGWhpDyecvElQA41Ph7M4bjjfij
RinvQb4PyJ4VVB6oRkPm6J1DCXsTkDD2cdd7hdLjZOrM8sXbdeF30EDQc909f3n8
HRSe06q/GkEuoeOQ+Te/UZRB2jUpW9+rBmvqDV8VpZAoDvDSChypoZCV0Xyf3oei
AT8m2wN5sv9nqm3PZ3IK3o4UtAqbmhSZ/HnE7l9eTO5nMhjvuWYGJCQNRCJx8Ta0
s3FlbhVLqFk/Uz+GZ/R+I6sOdJswiySYgTPfjQjZtgZQaJExPlrQQmU4FDLoCyAa
4hsUDEncSVyzctfKNe6+3X+4mk2xDeSZt22BcgOi963pz2DQ/poLCCKMu1rMo8IC
6nI1Mto+nMHes2fSPGZgmdodeWDaKqT7A0oCf8GC4cY+ZGkH9cWXKt/byw+ZpOTe
TtXsRv8wgonJiAetfd7riJ7MO6bsX34W6vW1OhormViV
-----END CERTIFICATE-----
