Certificate:
    Data:
        Version: 3 (0x2)
        Serial Number: 4457 (0x1169)
    Signature Algorithm: md5WithRSAEncryption
        Issuer: C=US, ST=OH, L=Columbus, O=VikingVPN, OU=MyOrganizationalUnit, CN=VikingVPN CA/name=EasyRSA/emailAddress=me@myhost.mydomain
        Validity
            Not Before: Feb 14 01:48:23 2015 GMT
            Not After : Feb 11 01:48:23 2025 GMT
        Subject: CN=Client436Cert330389
        Subject Public Key Info:
            Public Key Algorithm: rsaEncryption
                Public-Key: (4096 bit)
                Modulus:
                    00:ef:89:e4:a8:50:29:e7:d7:10:04:7b:ad:4f:f2:
                    3e:c7:5b:53:ed:c8:fc:bf:7c:61:20:16:9c:33:ae:
                    38:3a:df:0a:53:34:0d:aa:fd:e8:cb:ca:68:62:39:
                    56:61:36:f7:92:e3:4f:f3:5a:49:83:23:9e:2e:62:
                    03:41:90:59:16:19:6c:e7:1c:ca:78:91:c6:42:bf:
                    e5:1b:f0:92:6e:67:74:53:aa:aa:e2:9e:87:ca:d9:
                    16:d6:81:a7:11:6c:da:74:d8:75:65:be:d0:26:5e:
                    99:98:56:af:b1:93:54:d8:c1:c1:96:eb:98:35:e3:
                    35:20:7b:76:b4:ba:01:67:ef:a1:6d:d2:f8:03:9c:
                    a3:ca:fe:f3:c7:e1:1c:a4:da:0d:4a:0a:3b:0d:87:
                    0d:9d:c6:53:fd:7f:ce:40:ef:05:53:87:96:fc:2e:
                    7a:3b:46:f1:c7:db:50:34:b1:57:23:c7:07:9b:93:
                    b0:67:93:e6:e0:c5:bd:2f:cc:0f:cf:a6:8b:19:53:
                    2c:1a:c5:5c:34:06:f1:54:21:86:01:8a:01:45:4d:
                    aa:90:3b:2f:fe:e6:ce:6b:55:9e:ca:bc:00:84:21:
                    d3:c6:ce:4f:1c:07:d1:6d:87:7f:e5:e7:0b:ba:5f:
                    a8:b9:b0:b4:ba:7a:d0:dc:c4:2f:21:d4:17:a6:5a:
                    3b:b6:81:2f:d0:c4:65:ce:85:5b:47:a9:4f:52:65:
                    da:6e:49:d6:1e:1d:5c:05:5f:68:4b:c0:23:9b:f2:
                    90:6b:23:2b:4d:b7:78:b2:50:93:d7:e9:cb:95:9c:
                    20:47:5b:55:8f:44:7d:cb:4d:6d:6d:ee:0e:8c:99:
                    11:9e:b7:3b:1e:62:58:dc:eb:21:19:62:fb:f7:46:
                    1c:b6:65:5c:9f:a2:d8:06:04:a2:d9:14:be:78:68:
                    d9:e3:06:c7:a5:e1:66:5c:6d:04:9f:61:52:85:6b:
                    52:b8:ad:f6:0d:ab:3c:1b:34:83:e9:1b:c0:b7:64:
                    04:ec:26:0b:bf:f1:85:a6:2b:70:3e:f4:d8:56:3f:
                    53:ee:9d:22:21:c1:00:84:79:db:20:96:a8:b0:fb:
                    78:af:d9:b7:9a:fd:85:80:08:e6:ee:99:0c:03:af:
                    06:37:37:70:6d:b8:50:55:1a:2b:47:36:d7:87:8f:
                    83:0f:10:96:b7:50:20:f5:bc:b1:ef:70:7e:ed:51:
                    ff:45:ea:c4:3f:90:a5:e9:fb:f8:a9:34:4b:42:7c:
                    3a:cb:de:a6:14:27:fb:38:d3:2f:b3:fd:13:80:d3:
                    e7:48:83:01:5d:c2:87:67:96:9b:80:57:6f:1d:8d:
                    f6:9d:f3:10:bb:62:57:42:21:dd:8d:7f:ce:57:f4:
                    41:87:73
                Exponent: 65537 (0x10001)
        X509v3 extensions:
            X509v3 Basic Constraints: 
                CA:FALSE
            Netscape Comment: 
                Easy-RSA Generated Certificate
            X509v3 Subject Key Identifier: 
                57:33:87:41:5B:7B:E7:4A:C6:7A:12:C0:2D:D2:3B:12:04:ED:17:1A
            X509v3 Authority Key Identifier: 
                keyid:12:CD:60:04:D2:A0:80:9E:70:ED:C6:99:B8:7B:2C:C6:52:FD:19:A1
                DirName:/C=US/ST=OH/L=Columbus/O=VikingVPN/OU=MyOrganizationalUnit/CN=VikingVPN CA/name=EasyRSA/emailAddress=me@myhost.mydomain
                serial:CF:35:85:EE:80:BF:2A:3E

            X509v3 Extended Key Usage: 
                TLS Web Client Authentication
            X509v3 Key Usage: 
                Digital Signature
    Signature Algorithm: md5WithRSAEncryption
         27:72:01:d7:fc:55:6f:54:d0:78:c4:66:94:f1:14:bc:7c:1b:
         cf:ad:1c:8e:23:32:93:a6:c0:ec:d7:4f:fc:ff:13:eb:46:cb:
         60:3d:40:bb:e6:11:a3:61:05:13:14:c5:01:44:cc:a3:f4:36:
         82:ab:68:89:09:3a:f9:d6:00:31:02:c2:fc:8f:44:68:0a:14:
         0a:3a:8e:af:92:72:a0:0a:7c:03:aa:19:c5:05:c7:c9:39:58:
         97:c8:d3:9f:70:80:c2:17:69:a2:f6:3c:ae:2a:2d:d2:7f:43:
         d8:76:db:3c:1e:c9:fe:dc:92:a2:5a:a5:c9:a7:ee:d9:80:12:
         cd:6f:80:24:f3:0e:c4:77:d5:46:66:9d:6a:71:09:03:5c:b1:
         b9:b2:21:2a:17:3f:03:e3:98:d7:c5:5d:7c:83:82:1c:86:3f:
         23:28:7c:61:de:b3:37:ae:ba:57:08:89:5e:9c:7c:59:7c:cf:
         d6:dd:22:84:17:a5:65:1a:bb:6a:52:44:11:b1:75:7d:45:a5:
         ea:c5:59:0a:15:2d:f7:2c:9e:56:d3:bf:5c:f3:cc:69:0a:4a:
         3e:06:73:56:8d:af:f4:08:11:40:6c:93:da:e3:01:7c:7f:69:
         76:72:b3:e0:67:f7:26:a8:9e:67:8b:09:70:bb:2b:32:78:da:
         62:ec:31:34:06:cd:c0:88:74:62:fb:55:56:05:98:01:8f:26:
         48:dc:4f:91:53:1a:e3:3c:06:5d:0d:c2:c7:41:97:55:59:85:
         67:80:2d:58:67:be:ea:61:fb:8c:86:87:85:1f:d7:85:38:0b:
         2f:f0:02:1d:36:bf:0a:6a:b1:62:b2:13:9f:9a:78:c6:1d:6d:
         cf:be:e2:ef:b0:b3:82:82:a1:36:38:6a:3e:6b:f0:66:1e:64:
         1a:c4:39:f2:9f:63:4e:e8:85:72:17:04:8f:15:46:f2:bb:18:
         e5:4c:aa:e6:c4:26:f2:13:70:cd:ab:1f:23:6c:cc:2a:70:b4:
         62:9e:43:71:5d:2d:46:37:5e:22:6f:be:9a:19:73:18:62:25:
         9f:31:2e:cc:76:a8:4e:40:c4:a6:b3:79:9f:dd:09:42:14:7b:
         09:68:a3:6a:2a:09:d5:52:47:0c:21:55:b5:5a:57:cb:07:e7:
         4d:6b:05:5a:11:bb:0c:3f:08:43:14:5e:fe:8b:d8:64:89:a3:
         1d:77:90:da:5c:e4:13:3e:90:56:cc:ae:2c:de:12:eb:67:92:
         d1:25:9f:66:f7:47:71:9a:30:f4:35:2a:61:31:b7:7d:90:c0:
         17:7c:39:bf:c3:34:9a:48:8f:94:15:1f:98:6d:ee:09:76:e7:
         36:b0:ed:81:d5:54:75:68
-----BEGIN CERTIFICATE-----
MIIGrDCCBJSgAwIBAgICEWkwDQYJKoZIhvcNAQEEBQAwgawxCzAJBgNVBAYTAlVT
MQswCQYDVQQIEwJPSDERMA8GA1UEBxMIQ29sdW1idXMxEjAQBgNVBAoTCVZpa2lu
Z1ZQTjEdMBsGA1UECxMUTXlPcmdhbml6YXRpb25hbFVuaXQxFTATBgNVBAMTDFZp
a2luZ1ZQTiBDQTEQMA4GA1UEKRMHRWFzeVJTQTEhMB8GCSqGSIb3DQEJARYSbWVA
bXlob3N0Lm15ZG9tYWluMB4XDTE1MDIxNDAxNDgyM1oXDTI1MDIxMTAxNDgyM1ow
HjEcMBoGA1UEAxMTQ2xpZW50NDM2Q2VydDMzMDM4OTCCAiIwDQYJKoZIhvcNAQEB
BQADggIPADCCAgoCggIBAO+J5KhQKefXEAR7rU/yPsdbU+3I/L98YSAWnDOuODrf
ClM0Dar96MvKaGI5VmE295LjT/NaSYMjni5iA0GQWRYZbOccyniRxkK/5Rvwkm5n
dFOqquKeh8rZFtaBpxFs2nTYdWW+0CZemZhWr7GTVNjBwZbrmDXjNSB7drS6AWfv
oW3S+AOco8r+88fhHKTaDUoKOw2HDZ3GU/1/zkDvBVOHlvwuejtG8cfbUDSxVyPH
B5uTsGeT5uDFvS/MD8+mixlTLBrFXDQG8VQhhgGKAUVNqpA7L/7mzmtVnsq8AIQh
08bOTxwH0W2Hf+XnC7pfqLmwtLp60NzELyHUF6ZaO7aBL9DEZc6FW0epT1Jl2m5J
1h4dXAVfaEvAI5vykGsjK023eLJQk9fpy5WcIEdbVY9EfctNbW3uDoyZEZ63Ox5i
WNzrIRli+/dGHLZlXJ+i2AYEotkUvnho2eMGx6XhZlxtBJ9hUoVrUrit9g2rPBs0
g+kbwLdkBOwmC7/xhaYrcD702FY/U+6dIiHBAIR52yCWqLD7eK/Zt5r9hYAI5u6Z
DAOvBjc3cG24UFUaK0c214ePgw8QlrdQIPW8se9wfu1R/0XqxD+Qpen7+Kk0S0J8
OsvephQn+zjTL7P9E4DT50iDAV3Ch2eWm4BXbx2N9p3zELtiV0Ih3Y1/zlf0QYdz
AgMBAAGjggFjMIIBXzAJBgNVHRMEAjAAMC0GCWCGSAGG+EIBDQQgFh5FYXN5LVJT
QSBHZW5lcmF0ZWQgQ2VydGlmaWNhdGUwHQYDVR0OBBYEFFczh0Fbe+dKxnoSwC3S
OxIE7RcaMIHhBgNVHSMEgdkwgdaAFBLNYATSoICecO3Gmbh7LMZS/RmhoYGypIGv
MIGsMQswCQYDVQQGEwJVUzELMAkGA1UECBMCT0gxETAPBgNVBAcTCENvbHVtYnVz
MRIwEAYDVQQKEwlWaWtpbmdWUE4xHTAbBgNVBAsTFE15T3JnYW5pemF0aW9uYWxV
bml0MRUwEwYDVQQDEwxWaWtpbmdWUE4gQ0ExEDAOBgNVBCkTB0Vhc3lSU0ExITAf
BgkqhkiG9w0BCQEWEm1lQG15aG9zdC5teWRvbWFpboIJAM81he6Avyo+MBMGA1Ud
JQQMMAoGCCsGAQUFBwMCMAsGA1UdDwQEAwIHgDANBgkqhkiG9w0BAQQFAAOCAgEA
J3IB1/xVb1TQeMRmlPEUvHwbz60cjiMyk6bA7NdP/P8T60bLYD1Au+YRo2EFExTF
AUTMo/Q2gqtoiQk6+dYAMQLC/I9EaAoUCjqOr5JyoAp8A6oZxQXHyTlYl8jTn3CA
whdpovY8riot0n9D2HbbPB7J/tySolqlyafu2YASzW+AJPMOxHfVRmadanEJA1yx
ubIhKhc/A+OY18VdfIOCHIY/Iyh8Yd6zN666VwiJXpx8WXzP1t0ihBelZRq7alJE
EbF1fUWl6sVZChUt9yyeVtO/XPPMaQpKPgZzVo2v9AgRQGyT2uMBfH9pdnKz4Gf3
JqieZ4sJcLsrMnjaYuwxNAbNwIh0YvtVVgWYAY8mSNxPkVMa4zwGXQ3Cx0GXVVmF
Z4AtWGe+6mH7jIaHhR/XhTgLL/ACHTa/CmqxYrITn5p4xh1tz77i77CzgoKhNjhq
PmvwZh5kGsQ58p9jTuiFchcEjxVG8rsY5Uyq5sQm8hNwzasfI2zMKnC0Yp5DcV0t
RjdeIm++mhlzGGIlnzEuzHaoTkDEprN5n90JQhR7CWijaioJ1VJHDCFVtVpXywfn
TWsFWhG7DD8IQxRe/ovYZImjHXeQ2lzkEz6QVsyuLN4S62eS0SWfZvdHcZow9DUq
YTG3fZDAF3w5v8M0mkiPlBUfmG3uCXbnNrDtgdVUdWg=
-----END CERTIFICATE-----
