Certificate:
    Data:
        Version: 3 (0x2)
        Serial Number: 4461 (0x116d)
    Signature Algorithm: md5WithRSAEncryption
        Issuer: C=US, ST=OH, L=Columbus, O=VikingVPN, OU=MyOrganizationalUnit, CN=VikingVPN CA/name=EasyRSA/emailAddress=me@myhost.mydomain
        Validity
            Not Before: Feb 14 19:20:01 2015 GMT
            Not After : Feb 11 19:20:01 2025 GMT
        Subject: CN=Client1450Certa09630
        Subject Public Key Info:
            Public Key Algorithm: rsaEncryption
                Public-Key: (4096 bit)
                Modulus:
                    00:9e:4a:da:5a:87:15:06:6f:3a:30:b2:71:6a:b2:
                    c3:32:cf:40:fc:2f:c3:10:35:d1:72:ce:da:61:d9:
                    ae:2d:f3:5d:10:f7:e3:02:da:ce:1b:94:a3:f8:d1:
                    98:7e:c9:f5:06:31:23:a1:8d:02:00:5a:1c:79:0c:
                    88:68:b3:c6:f1:ce:9b:dc:eb:07:f5:db:71:e6:9a:
                    8e:72:36:a0:d0:f3:81:18:44:43:df:56:5f:52:29:
                    d9:2a:82:ae:e8:a9:1f:00:fc:63:4c:2a:41:83:0a:
                    b0:ae:62:11:f1:a6:82:4e:60:c2:66:85:55:e5:db:
                    59:3d:05:c5:30:dd:99:72:13:12:df:7e:a4:26:e9:
                    5f:34:62:85:d4:2a:50:c4:a2:b5:21:a7:87:d4:52:
                    c2:e0:ee:34:58:ce:6b:ec:de:1f:fe:45:87:44:94:
                    84:29:07:55:30:fa:53:95:4a:2a:6d:59:5c:de:8d:
                    e0:e7:68:b0:c6:60:ea:b7:56:e5:c4:88:44:ca:56:
                    b9:c7:47:b8:4c:0d:20:e6:24:16:f9:e5:fe:f8:d1:
                    e4:63:63:91:c5:13:f0:99:6a:58:39:0d:21:1c:5f:
                    7b:af:9b:5c:e7:0e:f7:ef:eb:5e:7f:bc:0a:e9:54:
                    bf:e4:9a:4a:a6:e0:6d:f9:2d:59:32:54:6b:97:a4:
                    18:d7:3b:bf:f6:a5:31:0e:e3:b1:89:cb:ac:0a:7a:
                    bb:38:5c:05:b9:fb:75:17:4d:e2:2d:0e:5a:2f:df:
                    67:35:f3:9e:93:e2:fc:6c:d1:5c:44:57:b8:f5:2c:
                    79:e6:a9:f4:72:09:06:0b:04:1c:bd:83:36:ba:35:
                    87:3e:2e:7e:d4:c1:70:15:9c:07:71:f6:23:aa:b4:
                    b8:9e:27:8e:c8:9a:08:6d:5f:44:36:86:22:b4:c9:
                    af:9c:4b:b2:71:35:d0:c6:14:60:ee:5c:8e:bf:ea:
                    b0:74:ca:a3:d0:21:22:4f:b6:56:19:4b:7d:20:5a:
                    a7:6a:7c:af:58:6f:53:bf:9a:28:5c:fb:2f:ab:c5:
                    e4:c1:bc:99:d7:cf:30:d8:71:61:d4:79:df:71:30:
                    d0:52:cb:60:e1:51:e2:d9:02:c3:a1:96:e8:cf:ed:
                    d8:ea:fb:43:19:66:8a:c1:c7:6c:23:2c:11:f5:50:
                    b1:fb:9a:a4:d4:16:7b:00:73:a4:2d:04:69:42:23:
                    f6:83:d2:e8:df:e0:ac:42:ee:2b:f5:38:1e:d3:0f:
                    bc:36:07:01:01:03:bb:26:1b:47:34:40:95:e6:d0:
                    aa:0b:76:75:d9:e3:4c:1a:04:4d:ff:7d:95:1a:ba:
                    97:78:df:88:bd:fe:d1:e6:21:8d:3a:b8:3e:7f:16:
                    90:42:6b
                Exponent: 65537 (0x10001)
        X509v3 extensions:
            X509v3 Basic Constraints: 
                CA:FALSE
            Netscape Comment: 
                Easy-RSA Generated Certificate
            X509v3 Subject Key Identifier: 
                51:C7:D4:4D:B6:66:50:D5:AB:99:FD:E7:C8:C2:91:07:C8:A7:D5:DC
            X509v3 Authority Key Identifier: 
                keyid:12:CD:60:04:D2:A0:80:9E:70:ED:C6:99:B8:7B:2C:C6:52:FD:19:A1
                DirName:/C=US/ST=OH/L=Columbus/O=VikingVPN/OU=MyOrganizationalUnit/CN=VikingVPN CA/name=EasyRSA/emailAddress=me@myhost.mydomain
                serial:CF:35:85:EE:80:BF:2A:3E

            X509v3 Extended Key Usage: 
                TLS Web Client Authentication
            X509v3 Key Usage: 
                Digital Signature
    Signature Algorithm: md5WithRSAEncryption
         16:18:4a:0b:a3:0d:a7:bb:15:c9:fd:7e:34:a9:cc:8a:aa:06:
         49:04:45:2c:2c:db:72:98:dd:75:74:72:67:3a:3b:49:70:5f:
         68:92:e5:6e:3f:31:ff:14:0a:13:da:b4:08:89:39:fc:d4:9b:
         8b:91:9d:85:23:17:fb:09:ae:aa:05:26:49:48:46:d6:e1:c7:
         b7:dd:9e:b1:03:76:45:7b:75:4c:77:a7:a8:dd:fa:ef:b2:db:
         00:d6:2f:cb:4b:13:e1:14:da:57:be:31:4a:c0:c1:81:61:2e:
         43:a0:48:3d:16:57:63:c5:74:68:1d:13:25:bb:7f:a7:a3:0c:
         52:cd:57:12:3c:cf:3f:26:30:b1:d3:34:fc:a6:0f:3c:43:a7:
         a0:69:9a:10:5e:b6:ba:23:2b:fb:b1:16:42:9a:c1:b3:b3:1d:
         7d:f3:05:71:43:9c:44:e8:02:e9:a9:e5:29:f7:a9:29:d6:b1:
         c1:43:6f:5d:51:42:a2:3c:7e:d2:b4:ff:1b:28:27:d4:18:91:
         ef:83:11:8f:eb:ca:8d:dc:a9:13:92:9e:70:87:00:dd:87:d0:
         90:d3:92:25:0f:de:46:6c:e1:68:00:02:b1:9b:dc:a7:49:9b:
         e4:1e:f9:80:a8:28:88:e6:17:72:5b:5a:18:83:63:b3:21:80:
         5e:a9:85:31:c5:2e:e4:78:b0:56:7f:8d:ef:a5:4e:c2:e8:a8:
         64:d4:2d:17:68:d4:00:af:a6:84:1a:1e:86:06:1c:f4:17:f8:
         af:6a:c2:fb:4b:88:14:fe:d8:05:73:54:79:92:46:9a:c8:7e:
         7e:83:97:96:40:2f:a8:d3:23:ec:11:c6:16:9e:27:cc:ce:67:
         90:3a:df:4b:c6:a8:6c:2e:a9:15:85:4f:3b:5c:d2:75:29:9d:
         2f:6f:d2:7c:2d:29:3a:53:74:a2:8c:7c:11:e2:e6:b9:07:a0:
         52:49:31:87:1c:58:9f:01:43:18:eb:a1:16:6a:c2:15:e9:fe:
         5c:f9:49:6d:c2:3c:b0:d4:fc:6a:df:4f:32:bd:b1:95:8c:45:
         db:87:62:26:89:37:24:62:f2:25:70:ef:e4:f3:32:87:1e:cf:
         71:18:11:2f:82:6f:ce:97:1e:07:c2:89:6f:15:1d:d5:8f:56:
         84:a1:54:93:2b:b4:27:a4:3c:47:54:75:1a:3a:82:ed:7d:93:
         1c:47:47:1b:9a:aa:9c:45:17:89:44:ff:b1:f4:40:c5:74:b6:
         f4:50:ad:9b:73:61:4e:4a:87:12:3f:eb:30:e0:6b:a4:19:67:
         b1:5b:19:65:30:91:f6:f8:af:56:5a:17:32:d0:4d:49:4b:9b:
         2a:66:43:40:5c:cc:1c:8a
-----BEGIN CERTIFICATE-----
MIIGrTCCBJWgAwIBAgICEW0wDQYJKoZIhvcNAQEEBQAwgawxCzAJBgNVBAYTAlVT
MQswCQYDVQQIEwJPSDERMA8GA1UEBxMIQ29sdW1idXMxEjAQBgNVBAoTCVZpa2lu
Z1ZQTjEdMBsGA1UECxMUTXlPcmdhbml6YXRpb25hbFVuaXQxFTATBgNVBAMTDFZp
a2luZ1ZQTiBDQTEQMA4GA1UEKRMHRWFzeVJTQTEhMB8GCSqGSIb3DQEJARYSbWVA
bXlob3N0Lm15ZG9tYWluMB4XDTE1MDIxNDE5MjAwMVoXDTI1MDIxMTE5MjAwMVow
HzEdMBsGA1UEAxMUQ2xpZW50MTQ1MENlcnRhMDk2MzAwggIiMA0GCSqGSIb3DQEB
AQUAA4ICDwAwggIKAoICAQCeStpahxUGbzowsnFqssMyz0D8L8MQNdFyztph2a4t
810Q9+MC2s4blKP40Zh+yfUGMSOhjQIAWhx5DIhos8bxzpvc6wf123Hmmo5yNqDQ
84EYREPfVl9SKdkqgq7oqR8A/GNMKkGDCrCuYhHxpoJOYMJmhVXl21k9BcUw3Zly
ExLffqQm6V80YoXUKlDEorUhp4fUUsLg7jRYzmvs3h/+RYdElIQpB1Uw+lOVSipt
WVzejeDnaLDGYOq3VuXEiETKVrnHR7hMDSDmJBb55f740eRjY5HFE/CZalg5DSEc
X3uvm1znDvfv615/vArpVL/kmkqm4G35LVkyVGuXpBjXO7/2pTEO47GJy6wKers4
XAW5+3UXTeItDlov32c1856T4vxs0VxEV7j1LHnmqfRyCQYLBBy9gza6NYc+Ln7U
wXAVnAdx9iOqtLieJ47ImghtX0Q2hiK0ya+cS7JxNdDGFGDuXI6/6rB0yqPQISJP
tlYZS30gWqdqfK9Yb1O/mihc+y+rxeTBvJnXzzDYcWHUed9xMNBSy2DhUeLZAsOh
lujP7djq+0MZZorBx2wjLBH1ULH7mqTUFnsAc6QtBGlCI/aD0ujf4KxC7iv1OB7T
D7w2BwEBA7smG0c0QJXm0KoLdnXZ40waBE3/fZUaupd434i9/tHmIY06uD5/FpBC
awIDAQABo4IBYzCCAV8wCQYDVR0TBAIwADAtBglghkgBhvhCAQ0EIBYeRWFzeS1S
U0EgR2VuZXJhdGVkIENlcnRpZmljYXRlMB0GA1UdDgQWBBRRx9RNtmZQ1auZ/efI
wpEHyKfV3DCB4QYDVR0jBIHZMIHWgBQSzWAE0qCAnnDtxpm4eyzGUv0ZoaGBsqSB
rzCBrDELMAkGA1UEBhMCVVMxCzAJBgNVBAgTAk9IMREwDwYDVQQHEwhDb2x1bWJ1
czESMBAGA1UEChMJVmlraW5nVlBOMR0wGwYDVQQLExRNeU9yZ2FuaXphdGlvbmFs
VW5pdDEVMBMGA1UEAxMMVmlraW5nVlBOIENBMRAwDgYDVQQpEwdFYXN5UlNBMSEw
HwYJKoZIhvcNAQkBFhJtZUBteWhvc3QubXlkb21haW6CCQDPNYXugL8qPjATBgNV
HSUEDDAKBggrBgEFBQcDAjALBgNVHQ8EBAMCB4AwDQYJKoZIhvcNAQEEBQADggIB
ABYYSgujDae7Fcn9fjSpzIqqBkkERSws23KY3XV0cmc6O0lwX2iS5W4/Mf8UChPa
tAiJOfzUm4uRnYUjF/sJrqoFJklIRtbhx7fdnrEDdkV7dUx3p6jd+u+y2wDWL8tL
E+EU2le+MUrAwYFhLkOgSD0WV2PFdGgdEyW7f6ejDFLNVxI8zz8mMLHTNPymDzxD
p6BpmhBetrojK/uxFkKawbOzHX3zBXFDnEToAump5Sn3qSnWscFDb11RQqI8ftK0
/xsoJ9QYke+DEY/ryo3cqROSnnCHAN2H0JDTkiUP3kZs4WgAArGb3KdJm+Qe+YCo
KIjmF3JbWhiDY7MhgF6phTHFLuR4sFZ/je+lTsLoqGTULRdo1ACvpoQaHoYGHPQX
+K9qwvtLiBT+2AVzVHmSRprIfn6Dl5ZAL6jTI+wRxhaeJ8zOZ5A630vGqGwuqRWF
Tztc0nUpnS9v0nwtKTpTdKKMfBHi5rkHoFJJMYccWJ8BQxjroRZqwhXp/lz5SW3C
PLDU/GrfTzK9sZWMRduHYiaJNyRi8iVw7+TzMocez3EYES+Cb86XHgfCiW8VHdWP
VoShVJMrtCekPEdUdRo6gu19kxxHRxuaqpxFF4lE/7H0QMV0tvRQrZtzYU5KhxI/
6zDga6QZZ7FbGWUwkfb4r1ZaFzLQTUlLmypmQ0BczByK
-----END CERTIFICATE-----
