Certificate:
    Data:
        Version: 3 (0x2)
        Serial Number: 4496 (0x1190)
    Signature Algorithm: md5WithRSAEncryption
        Issuer: C=US, ST=OH, L=Columbus, O=VikingVPN, OU=MyOrganizationalUnit, CN=VikingVPN CA/name=EasyRSA/emailAddress=me@myhost.mydomain
        Validity
            Not Before: Feb 18 16:28:06 2015 GMT
            Not After : Feb 15 16:28:06 2025 GMT
        Subject: CN=Client1249Cert17d72d
        Subject Public Key Info:
            Public Key Algorithm: rsaEncryption
                Public-Key: (4096 bit)
                Modulus:
                    00:bf:84:b6:8c:1e:c5:be:3e:06:86:62:f5:57:64:
                    52:f4:98:3e:48:6f:9e:12:f1:2c:dc:8b:ed:87:6a:
                    a7:8a:53:0b:05:67:93:d0:18:9a:79:17:35:9b:45:
                    9d:12:f6:ee:e1:c5:c2:15:9d:c4:21:65:ca:bc:5f:
                    05:91:31:d2:59:b6:cb:0b:43:7f:65:00:92:aa:cb:
                    8c:0e:8d:1f:2d:3c:3e:28:84:9f:9d:aa:0e:be:1e:
                    cf:ab:65:5a:5b:59:ce:8a:76:41:41:7d:14:8b:11:
                    c5:25:4e:4a:15:25:16:29:93:76:cb:bb:4b:83:c9:
                    8b:62:96:80:56:75:1e:df:df:e9:ad:99:9d:df:eb:
                    56:36:2f:ce:19:9f:ea:76:05:79:82:ab:07:86:4e:
                    f8:58:eb:8d:e6:58:3a:10:98:7c:d8:f0:e0:fe:83:
                    b5:35:6c:af:c0:c0:0c:3f:60:29:0e:03:d2:00:da:
                    4b:0d:58:bd:c9:b5:a8:0f:b1:0b:6f:ed:77:ac:81:
                    29:53:a0:2e:08:ab:26:aa:c1:cf:06:ea:8d:76:65:
                    e6:36:d8:57:80:1d:18:eb:62:9c:d1:23:53:4a:d5:
                    ea:aa:5c:74:d7:98:84:37:1b:20:0d:8d:15:cd:97:
                    b6:95:1f:2a:3c:6a:d4:9a:72:ee:19:a4:f9:c9:63:
                    9c:5a:28:37:2f:a4:59:0e:12:9c:51:13:ab:06:b0:
                    3b:c4:9a:5b:22:d5:0e:83:d2:ea:f2:33:70:0b:fd:
                    fb:50:83:a5:3e:1e:6d:50:0d:49:2e:b6:9a:9f:34:
                    11:6c:b4:4b:9f:7e:c7:72:1d:63:71:de:8a:a9:9c:
                    d4:8e:3d:62:d7:78:92:82:69:98:58:69:25:22:33:
                    80:47:d5:25:9b:6f:22:af:29:6b:5f:e6:8e:93:6d:
                    c4:91:17:60:f4:dc:17:20:90:7c:89:ad:ab:58:36:
                    04:96:4b:35:5a:39:76:d7:bb:1f:a7:c2:03:d9:42:
                    b8:47:ed:6f:7f:09:78:fb:e8:14:f2:17:54:b1:5a:
                    5b:07:f2:fc:46:c5:33:2e:01:de:ce:22:05:58:19:
                    e8:eb:b4:4f:6d:54:1a:a1:f5:d2:85:a4:fe:e5:f9:
                    b6:42:6f:5b:a6:f0:aa:1b:38:ed:c1:46:00:8e:f9:
                    01:6c:2c:83:c7:82:57:f0:82:ca:ec:bb:fa:f4:16:
                    a4:38:64:fe:79:3e:78:82:af:86:b5:14:34:6d:1a:
                    7e:0e:c9:23:32:17:67:2e:9d:21:1d:83:1a:bb:0f:
                    f2:72:d2:4c:32:48:9e:15:eb:ac:5c:cd:49:02:d4:
                    50:57:bd:46:a3:f6:f8:fb:9e:67:ee:2b:df:9b:f2:
                    c2:4f:f7
                Exponent: 65537 (0x10001)
        X509v3 extensions:
            X509v3 Basic Constraints: 
                CA:FALSE
            Netscape Comment: 
                Easy-RSA Generated Certificate
            X509v3 Subject Key Identifier: 
                C1:81:5F:B6:26:76:4F:86:BB:82:38:74:73:94:24:30:68:9C:B8:08
            X509v3 Authority Key Identifier: 
                keyid:12:CD:60:04:D2:A0:80:9E:70:ED:C6:99:B8:7B:2C:C6:52:FD:19:A1
                DirName:/C=US/ST=OH/L=Columbus/O=VikingVPN/OU=MyOrganizationalUnit/CN=VikingVPN CA/name=EasyRSA/emailAddress=me@myhost.mydomain
                serial:CF:35:85:EE:80:BF:2A:3E

            X509v3 Extended Key Usage: 
                TLS Web Client Authentication
            X509v3 Key Usage: 
                Digital Signature
    Signature Algorithm: md5WithRSAEncryption
         7b:7d:df:68:e3:9d:3d:a8:df:d0:49:c2:d3:de:51:5a:66:04:
         73:23:88:42:95:f2:ac:0d:97:ee:20:a0:8f:29:bb:fe:47:31:
         c5:c7:63:74:4a:86:eb:85:da:49:db:c0:16:7c:bf:2f:4a:d7:
         ff:8f:f1:d0:5f:fb:97:f4:3d:3c:d8:8a:ca:55:1b:61:0e:dc:
         c1:dd:ce:c1:b7:14:26:ad:1c:b5:7b:d7:38:ee:bc:99:ea:8a:
         c7:d7:6b:40:41:13:88:53:1f:6a:9e:74:aa:73:db:05:4a:df:
         5a:9c:54:fd:45:89:09:3d:af:8b:c1:18:26:81:68:5c:fa:5c:
         04:80:66:3c:12:96:ab:e5:3d:0e:b3:28:22:c7:05:5c:d5:11:
         73:06:b3:1b:8a:9b:65:7f:4c:29:5f:44:52:07:8b:19:46:3e:
         d4:69:ac:64:49:70:e6:df:c8:63:e6:0a:a7:24:d8:f5:78:b5:
         57:f6:42:dd:23:25:af:8f:e1:83:3c:0b:a6:d7:a4:9f:a1:f0:
         c6:8b:07:26:2f:7d:d1:4e:e5:d2:66:c9:86:8a:ef:df:2c:4a:
         3c:13:c7:9e:f5:11:06:a3:55:c5:31:2e:ac:c7:8d:8f:ee:53:
         dc:65:47:d3:15:6f:d9:0e:d7:57:f1:58:d2:fb:3d:ff:8a:e0:
         55:c9:8a:10:9b:fc:11:a7:68:e3:3f:ec:0e:bf:30:43:05:b2:
         e5:8c:d4:55:61:0f:8f:55:56:12:27:18:66:5e:36:08:15:e8:
         14:6a:2d:3a:8f:37:e8:34:13:3c:18:5b:d2:5f:23:eb:4d:8b:
         c8:32:3a:b2:01:97:c7:b1:32:20:3b:df:b4:9d:78:ab:0d:5c:
         11:61:e3:e9:c1:6c:d5:ee:32:6f:65:48:7a:4f:31:06:1e:e9:
         14:2c:33:2d:3d:3f:b6:5c:5d:ac:33:81:9c:39:b4:46:fc:15:
         2b:a9:f2:91:45:65:e3:d1:6e:60:41:78:d7:7b:0c:3d:10:23:
         ff:99:f9:a5:7e:e4:c8:90:e6:6c:9f:65:30:03:91:3c:3b:a9:
         1a:44:0b:38:7c:8d:95:0a:1f:86:3d:33:4d:eb:a8:1e:27:9c:
         12:0a:88:85:61:cf:9a:fc:65:5c:89:26:71:83:e1:21:8f:79:
         20:13:9b:a2:fd:e5:6d:7a:94:82:73:af:a8:45:b6:bf:23:de:
         db:32:41:c5:bd:05:04:af:d2:8f:ff:46:4e:b5:b6:a5:60:92:
         74:81:43:ca:09:bb:78:db:dd:4a:81:27:5c:5d:33:26:a9:3d:
         b9:1a:74:3b:33:3c:9c:9b:4f:3a:12:05:de:c3:26:a7:cb:f2:
         02:a8:de:e3:66:f2:b7:0b
-----BEGIN CERTIFICATE-----
MIIGrTCCBJWgAwIBAgICEZAwDQYJKoZIhvcNAQEEBQAwgawxCzAJBgNVBAYTAlVT
MQswCQYDVQQIEwJPSDERMA8GA1UEBxMIQ29sdW1idXMxEjAQBgNVBAoTCVZpa2lu
Z1ZQTjEdMBsGA1UECxMUTXlPcmdhbml6YXRpb25hbFVuaXQxFTATBgNVBAMTDFZp
a2luZ1ZQTiBDQTEQMA4GA1UEKRMHRWFzeVJTQTEhMB8GCSqGSIb3DQEJARYSbWVA
bXlob3N0Lm15ZG9tYWluMB4XDTE1MDIxODE2MjgwNloXDTI1MDIxNTE2MjgwNlow
HzEdMBsGA1UEAxMUQ2xpZW50MTI0OUNlcnQxN2Q3MmQwggIiMA0GCSqGSIb3DQEB
AQUAA4ICDwAwggIKAoICAQC/hLaMHsW+PgaGYvVXZFL0mD5Ib54S8Szci+2HaqeK
UwsFZ5PQGJp5FzWbRZ0S9u7hxcIVncQhZcq8XwWRMdJZtssLQ39lAJKqy4wOjR8t
PD4ohJ+dqg6+Hs+rZVpbWc6KdkFBfRSLEcUlTkoVJRYpk3bLu0uDyYtiloBWdR7f
3+mtmZ3f61Y2L84Zn+p2BXmCqweGTvhY643mWDoQmHzY8OD+g7U1bK/AwAw/YCkO
A9IA2ksNWL3JtagPsQtv7XesgSlToC4Iqyaqwc8G6o12ZeY22FeAHRjrYpzRI1NK
1eqqXHTXmIQ3GyANjRXNl7aVHyo8atSacu4ZpPnJY5xaKDcvpFkOEpxRE6sGsDvE
mlsi1Q6D0uryM3AL/ftQg6U+Hm1QDUkutpqfNBFstEuffsdyHWNx3oqpnNSOPWLX
eJKCaZhYaSUiM4BH1SWbbyKvKWtf5o6TbcSRF2D03BcgkHyJratYNgSWSzVaOXbX
ux+nwgPZQrhH7W9/CXj76BTyF1SxWlsH8vxGxTMuAd7OIgVYGejrtE9tVBqh9dKF
pP7l+bZCb1um8KobOO3BRgCO+QFsLIPHglfwgsrsu/r0FqQ4ZP55PniCr4a1FDRt
Gn4OySMyF2cunSEdgxq7D/Jy0kwySJ4V66xczUkC1FBXvUaj9vj7nmfuK9+b8sJP
9wIDAQABo4IBYzCCAV8wCQYDVR0TBAIwADAtBglghkgBhvhCAQ0EIBYeRWFzeS1S
U0EgR2VuZXJhdGVkIENlcnRpZmljYXRlMB0GA1UdDgQWBBTBgV+2JnZPhruCOHRz
lCQwaJy4CDCB4QYDVR0jBIHZMIHWgBQSzWAE0qCAnnDtxpm4eyzGUv0ZoaGBsqSB
rzCBrDELMAkGA1UEBhMCVVMxCzAJBgNVBAgTAk9IMREwDwYDVQQHEwhDb2x1bWJ1
czESMBAGA1UEChMJVmlraW5nVlBOMR0wGwYDVQQLExRNeU9yZ2FuaXphdGlvbmFs
VW5pdDEVMBMGA1UEAxMMVmlraW5nVlBOIENBMRAwDgYDVQQpEwdFYXN5UlNBMSEw
HwYJKoZIhvcNAQkBFhJtZUBteWhvc3QubXlkb21haW6CCQDPNYXugL8qPjATBgNV
HSUEDDAKBggrBgEFBQcDAjALBgNVHQ8EBAMCB4AwDQYJKoZIhvcNAQEEBQADggIB
AHt932jjnT2o39BJwtPeUVpmBHMjiEKV8qwNl+4goI8pu/5HMcXHY3RKhuuF2knb
wBZ8vy9K1/+P8dBf+5f0PTzYispVG2EO3MHdzsG3FCatHLV71zjuvJnqisfXa0BB
E4hTH2qedKpz2wVK31qcVP1FiQk9r4vBGCaBaFz6XASAZjwSlqvlPQ6zKCLHBVzV
EXMGsxuKm2V/TClfRFIHixlGPtRprGRJcObfyGPmCqck2PV4tVf2Qt0jJa+P4YM8
C6bXpJ+h8MaLByYvfdFO5dJmyYaK798sSjwTx571EQajVcUxLqzHjY/uU9xlR9MV
b9kO11fxWNL7Pf+K4FXJihCb/BGnaOM/7A6/MEMFsuWM1FVhD49VVhInGGZeNggV
6BRqLTqPN+g0EzwYW9JfI+tNi8gyOrIBl8exMiA737SdeKsNXBFh4+nBbNXuMm9l
SHpPMQYe6RQsMy09P7ZcXawzgZw5tEb8FSup8pFFZePRbmBBeNd7DD0QI/+Z+aV+
5MiQ5myfZTADkTw7qRpECzh8jZUKH4Y9M03rqB4nnBIKiIVhz5r8ZVyJJnGD4SGP
eSATm6L95W16lIJzr6hFtr8j3tsyQcW9BQSv0o//Rk61tqVgknSBQ8oJu3jb3UqB
J1xdMyapPbkadDszPJybTzoSBd7DJqfL8gKo3uNm8rcL
-----END CERTIFICATE-----
