Certificate:
    Data:
        Version: 3 (0x2)
        Serial Number: 4507 (0x119b)
    Signature Algorithm: md5WithRSAEncryption
        Issuer: C=US, ST=OH, L=Columbus, O=VikingVPN, OU=MyOrganizationalUnit, CN=VikingVPN CA/name=EasyRSA/emailAddress=me@myhost.mydomain
        Validity
            Not Before: Feb 19 07:39:57 2015 GMT
            Not After : Feb 16 07:39:57 2025 GMT
        Subject: CN=Client1462Certca692d
        Subject Public Key Info:
            Public Key Algorithm: rsaEncryption
                Public-Key: (4096 bit)
                Modulus:
                    00:a6:6d:6b:ec:e6:5b:78:8c:d1:82:51:ab:45:36:
                    5d:23:c7:8d:be:c1:7a:6a:ed:e6:92:ca:a9:99:a3:
                    8f:52:07:95:0f:0f:17:46:06:b5:27:45:71:4c:62:
                    92:a8:c5:a3:e5:cb:5f:73:ba:18:ea:0f:1b:c6:cc:
                    da:19:bb:83:a1:2c:9d:62:68:e9:19:1b:1f:c8:dc:
                    08:43:9a:77:16:41:87:17:f5:bf:45:2e:e2:0d:c8:
                    6b:82:cf:db:cc:55:e4:70:28:7d:98:c0:4c:05:30:
                    fe:d1:74:0f:85:cf:20:b9:a9:c3:de:19:30:0c:2d:
                    9d:32:f8:cf:3c:a5:75:8a:63:37:55:4f:63:db:a1:
                    98:f0:f9:86:cb:af:8c:e8:e3:37:16:f3:af:8c:41:
                    d5:0c:54:b7:58:29:26:f9:8b:17:06:10:37:6f:09:
                    a3:53:b0:75:bd:bc:35:8a:19:49:36:03:09:07:6b:
                    f3:51:4e:30:11:b0:02:19:d0:df:02:ad:ff:88:44:
                    01:1d:59:87:f1:da:78:26:f9:03:d5:03:73:87:30:
                    bb:d5:2d:54:03:cf:6a:da:86:00:c6:c8:c7:b3:c0:
                    b0:f8:a9:e5:a3:2c:d7:81:17:60:d3:ce:c7:b9:6c:
                    8a:c1:83:a7:03:02:22:ac:a5:b7:f7:e6:fc:42:02:
                    00:34:d1:38:bf:43:09:be:0c:52:93:fd:93:7a:fd:
                    77:21:bc:57:69:e8:bf:4d:d2:f0:1a:58:dd:a0:8e:
                    c0:4c:5e:69:ef:b1:bf:de:11:e4:ba:52:b4:e2:85:
                    ba:26:37:9c:fe:3e:3e:86:9e:67:e1:20:56:32:9e:
                    49:7a:81:f6:31:b0:44:66:e8:23:82:53:ea:df:4b:
                    8f:0f:9c:56:95:c3:db:0d:fa:27:ee:d6:2d:9f:73:
                    c0:ab:59:06:8c:b6:ff:2c:e5:6b:e1:46:00:1e:5f:
                    7f:ca:e4:68:31:5e:14:c3:3d:d2:d6:b7:85:ea:38:
                    2f:58:b9:0d:e0:c3:fe:3c:a8:60:99:ed:23:f6:6d:
                    91:66:9f:56:f1:c5:54:9c:1a:33:b8:be:1b:c6:88:
                    24:2f:cb:1a:5c:61:9d:2b:16:b7:26:f4:e4:77:20:
                    eb:81:b3:09:18:84:70:2f:13:87:8b:92:02:87:f6:
                    3f:15:f4:08:98:a7:9c:f7:76:3a:57:86:f4:88:da:
                    cc:c2:0e:1d:e4:68:43:a7:b2:0a:01:3b:8d:16:e3:
                    f1:cb:56:a4:86:2b:81:91:6b:e9:c9:03:a9:2e:88:
                    26:6f:d8:18:86:85:01:ff:bf:be:9e:7a:92:97:a8:
                    fe:d1:3b:81:c3:4e:74:85:e8:e9:65:4c:cd:73:e6:
                    a4:a9:71
                Exponent: 65537 (0x10001)
        X509v3 extensions:
            X509v3 Basic Constraints: 
                CA:FALSE
            Netscape Comment: 
                Easy-RSA Generated Certificate
            X509v3 Subject Key Identifier: 
                8F:A0:72:F9:9A:8F:66:27:5E:E4:F7:50:A9:84:3A:80:93:7C:05:26
            X509v3 Authority Key Identifier: 
                keyid:12:CD:60:04:D2:A0:80:9E:70:ED:C6:99:B8:7B:2C:C6:52:FD:19:A1
                DirName:/C=US/ST=OH/L=Columbus/O=VikingVPN/OU=MyOrganizationalUnit/CN=VikingVPN CA/name=EasyRSA/emailAddress=me@myhost.mydomain
                serial:CF:35:85:EE:80:BF:2A:3E

            X509v3 Extended Key Usage: 
                TLS Web Client Authentication
            X509v3 Key Usage: 
                Digital Signature
    Signature Algorithm: md5WithRSAEncryption
         06:47:cf:f2:c9:9a:3c:4c:8a:43:b1:d2:e3:f3:e4:55:82:f7:
         5b:66:6a:d3:58:a5:8a:8a:2c:61:ed:22:73:9f:55:e7:45:49:
         5b:1f:88:fc:be:c1:df:49:81:cd:9b:32:12:1d:25:ee:27:de:
         86:03:7c:58:c8:29:77:26:7c:e5:a2:6a:53:93:11:47:f8:9b:
         65:eb:e8:3a:9b:a6:37:37:09:18:52:20:e1:e8:b2:06:cf:95:
         80:ad:95:f6:97:57:95:e8:fb:dc:fa:eb:5a:f6:83:44:98:e8:
         c0:89:7e:77:27:2d:98:43:9a:09:d2:a4:c7:0d:f4:c7:f2:71:
         9d:ca:71:a9:5c:4a:79:87:f6:58:21:e9:dd:7d:f7:a3:e9:59:
         f4:01:04:06:93:a9:df:4d:4e:c1:11:86:21:f6:ba:45:86:f7:
         d4:73:54:46:43:5f:5b:98:b2:5d:b0:8b:ae:1a:8b:cd:95:bf:
         86:be:4c:57:c2:93:c3:2b:c2:e7:aa:99:20:8e:a6:47:91:b0:
         69:b6:85:e6:8a:d9:0b:55:12:c5:03:79:03:a4:9c:c3:c7:d6:
         23:6b:c4:2d:c5:47:f5:10:6c:08:1b:ec:f4:3c:97:2f:77:43:
         43:61:d9:25:aa:8d:f3:4e:92:f7:14:ee:98:8e:8d:13:67:b8:
         e4:f2:ed:57:33:00:97:fa:ec:9d:fb:58:60:49:1e:e9:48:ac:
         f2:d7:2e:84:2f:d9:99:ce:13:b6:7b:24:5d:8c:00:c7:3d:db:
         3a:4b:f6:ac:39:fe:11:01:50:41:f4:d7:62:ff:37:01:85:38:
         19:64:09:9b:a5:a1:3f:40:08:09:40:e7:fe:2a:08:c6:b8:5a:
         fa:9e:d0:b1:ad:59:e9:8d:77:83:69:50:ba:1f:f3:4a:d9:2e:
         f5:f0:b8:7f:9e:80:0e:85:18:61:d0:77:f8:32:44:d7:0e:03:
         05:9b:3f:08:b7:80:0a:59:a3:22:b1:c9:7e:f7:4d:6a:da:94:
         17:ad:47:a0:ad:8b:24:0d:19:33:9b:f6:eb:79:a7:ab:81:0c:
         d5:20:85:5c:ec:5c:cc:f6:3b:8d:33:8c:6e:90:02:72:cd:c9:
         a6:6b:f5:94:01:85:56:f0:26:d9:ae:51:f0:e7:80:aa:8c:f8:
         74:95:b2:90:b7:c6:f2:59:19:d3:c0:99:bb:b4:a5:38:b0:ee:
         ec:5a:ab:0e:90:d5:d8:f5:eb:d8:f0:c8:45:dc:01:50:f8:50:
         4c:73:e9:9a:cb:c9:90:3f:30:af:ba:14:c7:b6:00:c7:60:7e:
         c5:41:ee:bd:a6:40:8c:74:b5:13:9c:79:e4:cb:e6:78:76:46:
         17:1f:9b:f0:35:a8:28:f4
-----BEGIN CERTIFICATE-----
MIIGrTCCBJWgAwIBAgICEZswDQYJKoZIhvcNAQEEBQAwgawxCzAJBgNVBAYTAlVT
MQswCQYDVQQIEwJPSDERMA8GA1UEBxMIQ29sdW1idXMxEjAQBgNVBAoTCVZpa2lu
Z1ZQTjEdMBsGA1UECxMUTXlPcmdhbml6YXRpb25hbFVuaXQxFTATBgNVBAMTDFZp
a2luZ1ZQTiBDQTEQMA4GA1UEKRMHRWFzeVJTQTEhMB8GCSqGSIb3DQEJARYSbWVA
bXlob3N0Lm15ZG9tYWluMB4XDTE1MDIxOTA3Mzk1N1oXDTI1MDIxNjA3Mzk1N1ow
HzEdMBsGA1UEAxMUQ2xpZW50MTQ2MkNlcnRjYTY5MmQwggIiMA0GCSqGSIb3DQEB
AQUAA4ICDwAwggIKAoICAQCmbWvs5lt4jNGCUatFNl0jx42+wXpq7eaSyqmZo49S
B5UPDxdGBrUnRXFMYpKoxaPly19zuhjqDxvGzNoZu4OhLJ1iaOkZGx/I3AhDmncW
QYcX9b9FLuINyGuCz9vMVeRwKH2YwEwFMP7RdA+FzyC5qcPeGTAMLZ0y+M88pXWK
YzdVT2PboZjw+YbLr4zo4zcW86+MQdUMVLdYKSb5ixcGEDdvCaNTsHW9vDWKGUk2
AwkHa/NRTjARsAIZ0N8Crf+IRAEdWYfx2ngm+QPVA3OHMLvVLVQDz2rahgDGyMez
wLD4qeWjLNeBF2DTzse5bIrBg6cDAiKspbf35vxCAgA00Ti/Qwm+DFKT/ZN6/Xch
vFdp6L9N0vAaWN2gjsBMXmnvsb/eEeS6UrTihbomN5z+Pj6GnmfhIFYynkl6gfYx
sERm6COCU+rfS48PnFaVw9sN+ifu1i2fc8CrWQaMtv8s5WvhRgAeX3/K5GgxXhTD
PdLWt4XqOC9YuQ3gw/48qGCZ7SP2bZFmn1bxxVScGjO4vhvGiCQvyxpcYZ0rFrcm
9OR3IOuBswkYhHAvE4eLkgKH9j8V9AiYp5z3djpXhvSI2szCDh3kaEOnsgoBO40W
4/HLVqSGK4GRa+nJA6kuiCZv2BiGhQH/v76eepKXqP7RO4HDTnSF6OllTM1z5qSp
cQIDAQABo4IBYzCCAV8wCQYDVR0TBAIwADAtBglghkgBhvhCAQ0EIBYeRWFzeS1S
U0EgR2VuZXJhdGVkIENlcnRpZmljYXRlMB0GA1UdDgQWBBSPoHL5mo9mJ17k91Cp
hDqAk3wFJjCB4QYDVR0jBIHZMIHWgBQSzWAE0qCAnnDtxpm4eyzGUv0ZoaGBsqSB
rzCBrDELMAkGA1UEBhMCVVMxCzAJBgNVBAgTAk9IMREwDwYDVQQHEwhDb2x1bWJ1
czESMBAGA1UEChMJVmlraW5nVlBOMR0wGwYDVQQLExRNeU9yZ2FuaXphdGlvbmFs
VW5pdDEVMBMGA1UEAxMMVmlraW5nVlBOIENBMRAwDgYDVQQpEwdFYXN5UlNBMSEw
HwYJKoZIhvcNAQkBFhJtZUBteWhvc3QubXlkb21haW6CCQDPNYXugL8qPjATBgNV
HSUEDDAKBggrBgEFBQcDAjALBgNVHQ8EBAMCB4AwDQYJKoZIhvcNAQEEBQADggIB
AAZHz/LJmjxMikOx0uPz5FWC91tmatNYpYqKLGHtInOfVedFSVsfiPy+wd9Jgc2b
MhIdJe4n3oYDfFjIKXcmfOWialOTEUf4m2Xr6Dqbpjc3CRhSIOHosgbPlYCtlfaX
V5Xo+9z661r2g0SY6MCJfncnLZhDmgnSpMcN9MfycZ3KcalcSnmH9lgh6d1996Pp
WfQBBAaTqd9NTsERhiH2ukWG99RzVEZDX1uYsl2wi64ai82Vv4a+TFfCk8Mrwueq
mSCOpkeRsGm2heaK2QtVEsUDeQOknMPH1iNrxC3FR/UQbAgb7PQ8ly93Q0Nh2SWq
jfNOkvcU7piOjRNnuOTy7VczAJf67J37WGBJHulIrPLXLoQv2ZnOE7Z7JF2MAMc9
2zpL9qw5/hEBUEH012L/NwGFOBlkCZuloT9ACAlA5/4qCMa4Wvqe0LGtWemNd4Np
ULof80rZLvXwuH+egA6FGGHQd/gyRNcOAwWbPwi3gApZoyKxyX73TWralBetR6Ct
iyQNGTOb9ut5p6uBDNUghVzsXMz2O40zjG6QAnLNyaZr9ZQBhVbwJtmuUfDngKqM
+HSVspC3xvJZGdPAmbu0pTiw7uxaqw6Q1dj169jwyEXcAVD4UExz6ZrLyZA/MK+6
FMe2AMdgfsVB7r2mQIx0tROceeTL5nh2Rhcfm/A1qCj0
-----END CERTIFICATE-----
