Certificate:
    Data:
        Version: 3 (0x2)
        Serial Number: 4523 (0x11ab)
    Signature Algorithm: md5WithRSAEncryption
        Issuer: C=US, ST=OH, L=Columbus, O=VikingVPN, OU=MyOrganizationalUnit, CN=VikingVPN CA/name=EasyRSA/emailAddress=me@myhost.mydomain
        Validity
            Not Before: Feb 20 19:58:37 2015 GMT
            Not After : Feb 17 19:58:37 2025 GMT
        Subject: CN=Client1466Certd6b93c
        Subject Public Key Info:
            Public Key Algorithm: rsaEncryption
                Public-Key: (4096 bit)
                Modulus:
                    00:cf:f5:6f:df:6e:10:d3:72:ef:71:36:a9:c5:ad:
                    7d:05:6e:b5:1e:18:67:97:1c:84:75:f5:b7:c9:e3:
                    c5:37:15:71:1b:1e:f1:35:2a:6b:7e:e2:fe:d7:d3:
                    49:5f:d4:47:a6:b0:34:d5:8e:b0:00:29:43:e3:8e:
                    8d:b2:81:22:f3:b7:20:ee:cb:2b:d9:d3:a5:d0:88:
                    df:ca:3b:b8:a6:15:fd:2c:bb:1a:74:c6:54:bb:cc:
                    b3:52:04:bb:71:f6:08:10:8a:d2:e6:27:99:4f:59:
                    ab:97:82:ca:11:70:5c:2d:b6:52:20:69:52:b8:c4:
                    05:30:22:bb:5f:5d:0e:42:ba:65:f5:bf:12:9a:ea:
                    3c:f2:d7:71:0b:c1:1d:c8:70:14:68:a6:f9:0d:fd:
                    7d:50:6c:ac:e5:fa:8d:72:4a:ba:85:94:44:2d:16:
                    9a:1d:57:1a:fe:9c:78:d7:cf:14:0f:f7:4d:fe:46:
                    d1:9e:9c:a5:5a:0e:50:49:bb:df:ce:74:68:a3:bb:
                    9d:d5:11:c4:fa:0b:fc:07:a2:94:27:28:d4:97:ea:
                    e8:cc:1b:f2:6c:20:10:59:3f:1a:49:02:f5:cf:e3:
                    e0:69:8b:b4:cc:72:e6:bd:c8:63:28:b8:2d:9d:ee:
                    28:f4:a9:11:1a:7b:1d:18:bd:be:ec:2c:e0:d9:e3:
                    fe:84:23:8e:90:7f:73:6e:50:65:a5:ff:de:5a:f7:
                    18:42:d4:0a:30:40:a8:69:d3:0e:e7:ee:c2:f2:4b:
                    1e:06:1d:e6:9d:a8:38:d0:46:b9:33:ff:13:05:41:
                    ec:ff:e6:e5:ec:ef:b8:01:4d:73:37:b4:0b:73:eb:
                    18:0a:71:34:b1:60:b9:c0:94:5e:fa:0b:ea:5c:80:
                    30:9b:52:89:a2:3c:18:4d:6a:fc:0e:6a:a8:38:c8:
                    9b:de:fb:b8:d8:ff:47:41:0e:a0:df:a9:0a:ae:5c:
                    97:2b:49:91:2c:e1:35:a1:db:4f:b7:d9:57:57:51:
                    19:0c:41:c4:50:45:c5:25:75:b8:46:c9:6d:0f:2f:
                    c1:be:4f:8f:84:2a:f4:77:49:0a:eb:b7:40:fa:d8:
                    15:6d:d9:7a:ae:5a:80:2c:c3:f0:81:e8:94:96:12:
                    34:ac:0f:c5:f7:c0:b8:38:66:00:20:06:76:42:e0:
                    a7:d8:ea:48:f0:e8:2a:99:07:01:f7:48:a1:00:ce:
                    15:c3:79:8d:56:d6:08:a7:fa:9d:5e:1c:87:5e:d0:
                    81:bc:99:b1:ef:df:0e:71:f5:8b:63:7e:ae:4d:f0:
                    71:57:89:a5:fe:16:24:03:40:43:85:53:6c:13:84:
                    91:84:af:44:44:82:ea:82:9e:12:f8:11:c4:62:9b:
                    27:be:1b
                Exponent: 65537 (0x10001)
        X509v3 extensions:
            X509v3 Basic Constraints: 
                CA:FALSE
            Netscape Comment: 
                Easy-RSA Generated Certificate
            X509v3 Subject Key Identifier: 
                26:D1:F3:0F:A2:17:DE:A7:D1:F6:D8:B8:53:87:D6:76:54:F0:B6:9F
            X509v3 Authority Key Identifier: 
                keyid:12:CD:60:04:D2:A0:80:9E:70:ED:C6:99:B8:7B:2C:C6:52:FD:19:A1
                DirName:/C=US/ST=OH/L=Columbus/O=VikingVPN/OU=MyOrganizationalUnit/CN=VikingVPN CA/name=EasyRSA/emailAddress=me@myhost.mydomain
                serial:CF:35:85:EE:80:BF:2A:3E

            X509v3 Extended Key Usage: 
                TLS Web Client Authentication
            X509v3 Key Usage: 
                Digital Signature
    Signature Algorithm: md5WithRSAEncryption
         ad:a7:65:78:45:5a:57:2a:62:0a:cb:a4:b3:02:ff:81:54:44:
         0e:d3:7e:b0:c3:10:f2:c4:dd:64:e6:28:52:e5:2c:ee:66:fc:
         c2:fa:05:12:e3:4c:d1:ff:dc:be:42:f9:07:1a:01:00:6f:fc:
         d1:d3:65:c5:a1:3d:9f:ba:20:80:b6:cd:e0:09:76:f8:c0:4e:
         89:55:cb:b2:ec:e6:38:0b:a5:5c:9d:3e:24:4a:80:4c:ce:9f:
         c8:bd:b1:d1:95:50:49:67:2c:03:12:5a:24:16:d6:f4:6d:05:
         41:2a:aa:98:22:d1:38:b7:3b:2c:25:af:20:42:1e:3d:53:54:
         12:35:db:15:0d:da:22:a2:72:d9:de:5c:d6:f0:80:f2:6e:c7:
         0e:0d:6d:85:30:6b:c9:75:d5:6b:7c:ac:3f:1f:3e:30:b7:79:
         dd:a3:0b:e1:0d:f9:9a:53:dd:6e:12:3e:91:a5:24:c2:8d:52:
         f9:ee:e0:d3:89:1d:eb:47:7f:17:06:86:96:a4:9f:b6:e6:05:
         85:c2:a6:ca:c4:54:14:06:35:76:13:2d:b1:b2:39:20:91:ed:
         88:1a:03:2e:6d:a1:33:bb:7b:28:23:90:1c:96:e3:74:38:08:
         4f:d3:7c:c2:cc:95:1c:5e:db:8c:83:cf:9d:ee:87:97:f3:85:
         fc:73:be:26:f7:03:29:18:f5:4c:2f:d5:d8:b0:97:95:54:c3:
         f9:c1:a3:3c:f1:34:9e:f3:da:3e:84:a5:69:79:8c:0f:59:0c:
         88:5b:03:d6:eb:10:96:85:8b:39:41:e8:bd:aa:53:7c:a6:3a:
         e0:41:5b:35:16:d2:fd:cc:a8:5b:84:31:5a:1f:b9:70:b6:af:
         29:9d:18:de:d5:d0:bf:b0:d4:cb:62:e6:3b:59:30:98:a7:ed:
         62:28:02:83:da:62:ca:38:66:e3:f7:58:62:00:63:77:98:70:
         fb:b5:3d:49:82:80:12:44:63:20:93:97:de:36:38:0c:8c:a5:
         c0:a7:3b:9f:5c:be:90:6d:4a:b7:00:e2:84:f6:6c:ea:ed:32:
         5a:d7:a6:87:cc:20:8c:77:c9:ec:16:0f:ac:3c:98:b8:0c:9b:
         a7:75:47:5b:ce:e6:9f:a8:44:99:6f:b3:dd:6b:ad:e4:71:88:
         07:d6:6b:6a:1a:2f:41:9d:b0:95:59:a5:97:8f:9d:02:4a:05:
         5b:cb:de:56:6b:3c:c8:8c:61:0d:b0:44:f2:9c:31:f5:db:44:
         e0:d3:5c:40:ed:67:f9:c7:32:58:bf:40:9c:b5:30:58:54:0b:
         2a:3d:0f:62:6e:cb:ce:bf:7e:23:f5:01:0c:16:4e:0f:26:7d:
         ad:e6:6e:47:09:d6:3a:9d
-----BEGIN CERTIFICATE-----
MIIGrTCCBJWgAwIBAgICEaswDQYJKoZIhvcNAQEEBQAwgawxCzAJBgNVBAYTAlVT
MQswCQYDVQQIEwJPSDERMA8GA1UEBxMIQ29sdW1idXMxEjAQBgNVBAoTCVZpa2lu
Z1ZQTjEdMBsGA1UECxMUTXlPcmdhbml6YXRpb25hbFVuaXQxFTATBgNVBAMTDFZp
a2luZ1ZQTiBDQTEQMA4GA1UEKRMHRWFzeVJTQTEhMB8GCSqGSIb3DQEJARYSbWVA
bXlob3N0Lm15ZG9tYWluMB4XDTE1MDIyMDE5NTgzN1oXDTI1MDIxNzE5NTgzN1ow
HzEdMBsGA1UEAxMUQ2xpZW50MTQ2NkNlcnRkNmI5M2MwggIiMA0GCSqGSIb3DQEB
AQUAA4ICDwAwggIKAoICAQDP9W/fbhDTcu9xNqnFrX0FbrUeGGeXHIR19bfJ48U3
FXEbHvE1Kmt+4v7X00lf1EemsDTVjrAAKUPjjo2ygSLztyDuyyvZ06XQiN/KO7im
Ff0suxp0xlS7zLNSBLtx9ggQitLmJ5lPWauXgsoRcFwttlIgaVK4xAUwIrtfXQ5C
umX1vxKa6jzy13ELwR3IcBRopvkN/X1QbKzl+o1ySrqFlEQtFpodVxr+nHjXzxQP
903+RtGenKVaDlBJu9/OdGiju53VEcT6C/wHopQnKNSX6ujMG/JsIBBZPxpJAvXP
4+Bpi7TMcua9yGMouC2d7ij0qREaex0Yvb7sLODZ4/6EI46Qf3NuUGWl/95a9xhC
1AowQKhp0w7n7sLySx4GHeadqDjQRrkz/xMFQez/5uXs77gBTXM3tAtz6xgKcTSx
YLnAlF76C+pcgDCbUomiPBhNavwOaqg4yJve+7jY/0dBDqDfqQquXJcrSZEs4TWh
20+32VdXURkMQcRQRcUldbhGyW0PL8G+T4+EKvR3SQrrt0D62BVt2XquWoAsw/CB
6JSWEjSsD8X3wLg4ZgAgBnZC4KfY6kjw6CqZBwH3SKEAzhXDeY1W1gin+p1eHIde
0IG8mbHv3w5x9Ytjfq5N8HFXiaX+FiQDQEOFU2wThJGEr0REguqCnhL4EcRimye+
GwIDAQABo4IBYzCCAV8wCQYDVR0TBAIwADAtBglghkgBhvhCAQ0EIBYeRWFzeS1S
U0EgR2VuZXJhdGVkIENlcnRpZmljYXRlMB0GA1UdDgQWBBQm0fMPohfep9H22LhT
h9Z2VPC2nzCB4QYDVR0jBIHZMIHWgBQSzWAE0qCAnnDtxpm4eyzGUv0ZoaGBsqSB
rzCBrDELMAkGA1UEBhMCVVMxCzAJBgNVBAgTAk9IMREwDwYDVQQHEwhDb2x1bWJ1
czESMBAGA1UEChMJVmlraW5nVlBOMR0wGwYDVQQLExRNeU9yZ2FuaXphdGlvbmFs
VW5pdDEVMBMGA1UEAxMMVmlraW5nVlBOIENBMRAwDgYDVQQpEwdFYXN5UlNBMSEw
HwYJKoZIhvcNAQkBFhJtZUBteWhvc3QubXlkb21haW6CCQDPNYXugL8qPjATBgNV
HSUEDDAKBggrBgEFBQcDAjALBgNVHQ8EBAMCB4AwDQYJKoZIhvcNAQEEBQADggIB
AK2nZXhFWlcqYgrLpLMC/4FURA7TfrDDEPLE3WTmKFLlLO5m/ML6BRLjTNH/3L5C
+QcaAQBv/NHTZcWhPZ+6IIC2zeAJdvjATolVy7Ls5jgLpVydPiRKgEzOn8i9sdGV
UElnLAMSWiQW1vRtBUEqqpgi0Ti3OywlryBCHj1TVBI12xUN2iKictneXNbwgPJu
xw4NbYUwa8l11Wt8rD8fPjC3ed2jC+EN+ZpT3W4SPpGlJMKNUvnu4NOJHetHfxcG
hpakn7bmBYXCpsrEVBQGNXYTLbGyOSCR7YgaAy5toTO7eygjkByW43Q4CE/TfMLM
lRxe24yDz53uh5fzhfxzvib3AykY9Uwv1diwl5VUw/nBozzxNJ7z2j6EpWl5jA9Z
DIhbA9brEJaFizlB6L2qU3ymOuBBWzUW0v3MqFuEMVofuXC2rymdGN7V0L+w1Mti
5jtZMJin7WIoAoPaYso4ZuP3WGIAY3eYcPu1PUmCgBJEYyCTl942OAyMpcCnO59c
vpBtSrcA4oT2bOrtMlrXpofMIIx3yewWD6w8mLgMm6d1R1vO5p+oRJlvs91rreRx
iAfWa2oaL0GdsJVZpZePnQJKBVvL3lZrPMiMYQ2wRPKcMfXbRODTXEDtZ/nHMli/
QJy1MFhUCyo9D2Juy86/fiP1AQwWTg8mfa3mbkcJ1jqd
-----END CERTIFICATE-----
