Certificate:
    Data:
        Version: 3 (0x2)
        Serial Number: 4541 (0x11bd)
    Signature Algorithm: md5WithRSAEncryption
        Issuer: C=US, ST=OH, L=Columbus, O=VikingVPN, OU=MyOrganizationalUnit, CN=VikingVPN CA/name=EasyRSA/emailAddress=me@myhost.mydomain
        Validity
            Not Before: Feb 22 06:40:43 2015 GMT
            Not After : Feb 19 06:40:43 2025 GMT
        Subject: CN=Client1364Certa3a9d7
        Subject Public Key Info:
            Public Key Algorithm: rsaEncryption
                Public-Key: (4096 bit)
                Modulus:
                    00:a7:d5:ea:4a:22:42:76:1f:75:20:ab:09:13:f7:
                    84:01:b2:99:c7:aa:f8:62:81:f8:fb:f2:74:50:c4:
                    b3:22:d1:73:09:56:1d:5d:a9:8a:e8:5b:31:1b:77:
                    ba:4a:de:b1:c2:72:3f:36:fb:a1:d6:c6:3b:ba:5d:
                    36:cf:fd:db:c4:16:4d:84:cc:d2:09:46:e4:e8:32:
                    5e:52:a6:5e:fc:78:f7:03:a7:80:5a:e3:1f:19:fd:
                    fa:09:2b:98:65:b2:04:f2:a4:d7:5f:b0:97:c9:b6:
                    83:45:5f:93:a1:a2:24:2f:6d:e3:db:65:f5:2d:04:
                    35:23:9e:2a:51:52:53:c4:fe:ef:81:6a:05:63:71:
                    eb:81:fe:2c:4b:21:bd:2c:d6:3e:fc:d0:cb:4f:e2:
                    cd:84:d1:24:ae:5f:fc:ec:a2:80:a9:cf:33:84:c7:
                    4b:23:c4:be:7a:57:00:5e:5c:e2:a1:f1:0b:84:34:
                    28:c0:be:45:a3:76:fc:e6:f4:4d:9e:35:43:09:33:
                    63:23:37:9a:ff:68:f5:11:f5:50:94:5f:f0:26:ce:
                    55:43:86:3f:a5:4d:4b:ad:dd:5d:f4:56:94:6a:ba:
                    f4:ff:78:83:9c:1e:cf:ae:fa:94:2e:f0:87:66:a0:
                    52:8a:df:21:e3:4c:69:4c:c7:95:66:9b:6b:71:1e:
                    2d:d9:ae:34:ec:cc:d5:69:4b:05:f0:e5:7f:7d:4b:
                    3a:c0:33:fd:9b:46:74:42:71:db:59:17:10:b0:f4:
                    08:60:d0:61:2d:59:a0:a3:a9:70:6a:f3:d9:71:30:
                    bb:6e:73:ca:e3:3a:fa:be:cf:04:60:84:c3:76:14:
                    5a:f1:5b:a4:57:a5:48:af:85:2d:81:86:ef:24:a6:
                    29:1a:47:0d:a5:ff:06:7c:74:04:64:ac:03:37:ac:
                    26:0f:c6:51:8e:f4:7e:38:80:e6:30:c0:b4:14:97:
                    35:92:c6:92:0a:ff:b6:cc:ac:e5:cb:37:2e:d1:d0:
                    3a:ac:5e:22:65:df:ba:fd:a6:40:1a:93:5a:5a:39:
                    aa:b8:fe:4a:15:b6:18:40:3b:cd:9e:03:31:07:4f:
                    e2:d8:98:dd:c6:04:4c:7d:dd:b3:2f:f6:b3:28:4f:
                    22:e5:5b:59:74:5d:2e:ff:26:57:6e:6d:06:b3:c4:
                    6b:82:95:94:a5:b5:7e:be:86:1a:4e:67:81:80:48:
                    ed:20:cb:8f:29:6c:13:7f:d8:30:a6:24:c6:d0:2c:
                    90:f3:43:97:83:32:bd:3e:c2:18:23:25:de:56:fc:
                    2e:23:da:15:f9:4b:3a:eb:73:db:71:e6:35:ae:58:
                    49:44:a6:9f:da:78:be:38:7b:39:23:cb:05:5c:25:
                    5f:4e:2b
                Exponent: 65537 (0x10001)
        X509v3 extensions:
            X509v3 Basic Constraints: 
                CA:FALSE
            Netscape Comment: 
                Easy-RSA Generated Certificate
            X509v3 Subject Key Identifier: 
                78:85:AB:0A:58:F4:71:0C:12:74:ED:01:05:49:6C:F7:0C:11:A4:29
            X509v3 Authority Key Identifier: 
                keyid:12:CD:60:04:D2:A0:80:9E:70:ED:C6:99:B8:7B:2C:C6:52:FD:19:A1
                DirName:/C=US/ST=OH/L=Columbus/O=VikingVPN/OU=MyOrganizationalUnit/CN=VikingVPN CA/name=EasyRSA/emailAddress=me@myhost.mydomain
                serial:CF:35:85:EE:80:BF:2A:3E

            X509v3 Extended Key Usage: 
                TLS Web Client Authentication
            X509v3 Key Usage: 
                Digital Signature
    Signature Algorithm: md5WithRSAEncryption
         90:ff:0c:33:17:69:db:6e:49:02:e4:b6:28:4b:e7:90:d7:46:
         08:90:45:c4:76:fa:6a:26:06:24:aa:3b:95:04:dd:b0:55:f3:
         0f:6c:9f:0f:1e:92:fa:f2:d7:fa:29:51:f9:f4:21:c7:d7:3d:
         cf:96:f7:ce:7c:26:26:98:b3:27:41:5e:a0:a5:99:a2:25:c5:
         ba:16:e0:55:fd:94:ba:84:18:91:65:31:c2:35:f7:4d:56:b2:
         63:c5:38:b7:ff:8f:5f:1e:49:71:08:ca:f8:3c:c2:2a:b7:ed:
         d6:8f:6d:2f:f7:49:c9:37:f4:08:45:c5:02:74:fd:9c:a1:5b:
         2a:05:8e:9f:78:72:cd:87:36:fb:ca:6f:a3:22:11:30:74:e6:
         33:9e:41:c8:ca:48:d6:b8:48:e1:79:0f:d5:4e:96:50:d2:be:
         cc:d2:9b:c3:33:db:87:f4:1c:31:71:e2:93:67:49:be:65:57:
         02:86:34:e4:0c:53:b2:6c:83:dd:53:05:b8:c6:79:2c:33:96:
         93:05:49:c4:09:68:90:dd:25:f1:68:60:02:d1:b5:50:a5:2d:
         b8:53:5f:6f:3f:79:0a:38:ba:79:0f:18:01:85:19:bf:92:cb:
         9d:ca:9e:38:62:a8:07:5c:66:05:33:13:b0:48:4f:17:3e:d2:
         ba:30:db:b3:cb:14:25:a8:4f:49:16:45:04:b3:c7:5e:10:24:
         ff:4f:f8:21:9f:f8:9c:d1:bb:b6:16:87:6e:2f:19:a4:f4:71:
         3d:7f:84:ea:94:7f:1f:18:9c:dd:17:22:d3:2f:14:cd:77:ec:
         71:b4:cc:45:6a:09:2b:b2:d4:d1:3a:93:ca:ca:74:e9:02:78:
         de:76:70:8e:2b:2c:da:47:b1:42:a7:08:46:7b:c7:35:1f:49:
         64:8a:79:3f:7a:7f:aa:24:ce:b0:a3:79:5e:13:0a:89:a5:73:
         21:60:70:c4:2b:be:df:16:77:c1:22:f8:6f:f1:b3:df:69:b3:
         a3:05:12:09:c2:29:b1:4b:b7:2e:6c:66:aa:0d:b9:99:39:97:
         0e:83:e7:ad:e5:20:89:bf:e2:79:8f:03:b7:72:11:b3:8c:dc:
         c4:0c:3a:c0:88:6a:d8:fa:80:72:75:d8:7a:14:7f:ba:46:18:
         28:91:08:d3:4e:07:2f:94:5e:ae:7d:39:b0:5c:7a:74:c9:69:
         22:05:90:c8:85:95:e8:11:e2:15:11:b4:7c:2a:fe:7a:d3:05:
         88:8f:70:64:a0:69:f6:5a:aa:1d:8a:da:cf:7b:a6:53:4e:49:
         0d:d7:fc:dc:89:46:23:f6:4d:65:49:a4:f0:71:24:30:ea:91:
         7c:da:70:da:d9:24:fd:70
-----BEGIN CERTIFICATE-----
MIIGrTCCBJWgAwIBAgICEb0wDQYJKoZIhvcNAQEEBQAwgawxCzAJBgNVBAYTAlVT
MQswCQYDVQQIEwJPSDERMA8GA1UEBxMIQ29sdW1idXMxEjAQBgNVBAoTCVZpa2lu
Z1ZQTjEdMBsGA1UECxMUTXlPcmdhbml6YXRpb25hbFVuaXQxFTATBgNVBAMTDFZp
a2luZ1ZQTiBDQTEQMA4GA1UEKRMHRWFzeVJTQTEhMB8GCSqGSIb3DQEJARYSbWVA
bXlob3N0Lm15ZG9tYWluMB4XDTE1MDIyMjA2NDA0M1oXDTI1MDIxOTA2NDA0M1ow
HzEdMBsGA1UEAxMUQ2xpZW50MTM2NENlcnRhM2E5ZDcwggIiMA0GCSqGSIb3DQEB
AQUAA4ICDwAwggIKAoICAQCn1epKIkJ2H3UgqwkT94QBspnHqvhigfj78nRQxLMi
0XMJVh1dqYroWzEbd7pK3rHCcj82+6HWxju6XTbP/dvEFk2EzNIJRuToMl5Spl78
ePcDp4Ba4x8Z/foJK5hlsgTypNdfsJfJtoNFX5OhoiQvbePbZfUtBDUjnipRUlPE
/u+BagVjceuB/ixLIb0s1j780MtP4s2E0SSuX/zsooCpzzOEx0sjxL56VwBeXOKh
8QuENCjAvkWjdvzm9E2eNUMJM2MjN5r/aPUR9VCUX/AmzlVDhj+lTUut3V30VpRq
uvT/eIOcHs+u+pQu8IdmoFKK3yHjTGlMx5Vmm2txHi3ZrjTszNVpSwXw5X99SzrA
M/2bRnRCcdtZFxCw9Ahg0GEtWaCjqXBq89lxMLtuc8rjOvq+zwRghMN2FFrxW6RX
pUivhS2Bhu8kpikaRw2l/wZ8dARkrAM3rCYPxlGO9H44gOYwwLQUlzWSxpIK/7bM
rOXLNy7R0DqsXiJl37r9pkAak1paOaq4/koVthhAO82eAzEHT+LYmN3GBEx93bMv
9rMoTyLlW1l0XS7/JldubQazxGuClZSltX6+hhpOZ4GASO0gy48pbBN/2DCmJMbQ
LJDzQ5eDMr0+whgjJd5W/C4j2hX5Szrrc9tx5jWuWElEpp/aeL44ezkjywVcJV9O
KwIDAQABo4IBYzCCAV8wCQYDVR0TBAIwADAtBglghkgBhvhCAQ0EIBYeRWFzeS1S
U0EgR2VuZXJhdGVkIENlcnRpZmljYXRlMB0GA1UdDgQWBBR4hasKWPRxDBJ07QEF
SWz3DBGkKTCB4QYDVR0jBIHZMIHWgBQSzWAE0qCAnnDtxpm4eyzGUv0ZoaGBsqSB
rzCBrDELMAkGA1UEBhMCVVMxCzAJBgNVBAgTAk9IMREwDwYDVQQHEwhDb2x1bWJ1
czESMBAGA1UEChMJVmlraW5nVlBOMR0wGwYDVQQLExRNeU9yZ2FuaXphdGlvbmFs
VW5pdDEVMBMGA1UEAxMMVmlraW5nVlBOIENBMRAwDgYDVQQpEwdFYXN5UlNBMSEw
HwYJKoZIhvcNAQkBFhJtZUBteWhvc3QubXlkb21haW6CCQDPNYXugL8qPjATBgNV
HSUEDDAKBggrBgEFBQcDAjALBgNVHQ8EBAMCB4AwDQYJKoZIhvcNAQEEBQADggIB
AJD/DDMXadtuSQLktihL55DXRgiQRcR2+momBiSqO5UE3bBV8w9snw8ekvry1/op
Ufn0IcfXPc+W9858JiaYsydBXqClmaIlxboW4FX9lLqEGJFlMcI1901WsmPFOLf/
j18eSXEIyvg8wiq37daPbS/3Sck39AhFxQJ0/ZyhWyoFjp94cs2HNvvKb6MiETB0
5jOeQcjKSNa4SOF5D9VOllDSvszSm8Mz24f0HDFx4pNnSb5lVwKGNOQMU7Jsg91T
BbjGeSwzlpMFScQJaJDdJfFoYALRtVClLbhTX28/eQo4unkPGAGFGb+Sy53Knjhi
qAdcZgUzE7BITxc+0row27PLFCWoT0kWRQSzx14QJP9P+CGf+JzRu7YWh24vGaT0
cT1/hOqUfx8YnN0XItMvFM137HG0zEVqCSuy1NE6k8rKdOkCeN52cI4rLNpHsUKn
CEZ7xzUfSWSKeT96f6okzrCjeV4TComlcyFgcMQrvt8Wd8Ei+G/xs99ps6MFEgnC
KbFLty5sZqoNuZk5lw6D563lIIm/4nmPA7dyEbOM3MQMOsCIatj6gHJ12HoUf7pG
GCiRCNNOBy+UXq59ObBcenTJaSIFkMiFlegR4hURtHwq/nrTBYiPcGSgafZaqh2K
2s97plNOSQ3X/NyJRiP2TWVJpPBxJDDqkXzacNrZJP1w
-----END CERTIFICATE-----
