Certificate:
    Data:
        Version: 3 (0x2)
        Serial Number: 4553 (0x11c9)
    Signature Algorithm: md5WithRSAEncryption
        Issuer: C=US, ST=OH, L=Columbus, O=VikingVPN, OU=MyOrganizationalUnit, CN=VikingVPN CA/name=EasyRSA/emailAddress=me@myhost.mydomain
        Validity
            Not Before: Feb 24 05:25:37 2015 GMT
            Not After : Feb 21 05:25:37 2025 GMT
        Subject: CN=Client1477Certa6be3d
        Subject Public Key Info:
            Public Key Algorithm: rsaEncryption
                Public-Key: (4096 bit)
                Modulus:
                    00:e7:06:60:35:79:05:a2:b3:74:23:1a:2e:93:51:
                    27:b6:65:fc:9f:c8:cd:ff:5f:e5:c8:37:74:bd:4b:
                    86:86:70:37:b0:dd:4f:a6:7e:17:6f:3c:a7:13:80:
                    ec:54:a4:b6:9a:0c:cf:52:98:3a:4a:2a:04:88:71:
                    19:91:b9:cc:40:79:c8:24:d1:e6:ca:6f:56:fc:15:
                    cb:e6:2a:41:11:1e:23:3f:72:39:b6:7d:e6:da:95:
                    11:2f:95:8e:f8:4d:95:68:fb:89:2d:5e:33:ad:e0:
                    1a:f4:1b:86:86:2c:d9:8f:9f:3d:1b:8f:c8:44:b8:
                    7a:85:56:1e:71:f8:c0:8c:b7:9a:a6:24:e7:c0:5f:
                    0d:9d:b6:83:37:67:0f:08:35:b6:19:53:a2:de:26:
                    91:38:d8:59:af:7d:61:c9:ed:90:31:8f:66:f2:0a:
                    40:19:34:8b:31:ac:e5:69:c2:d1:3e:29:85:7b:88:
                    3b:aa:c9:0e:24:0d:53:f9:d6:df:e9:f3:ec:b1:d8:
                    d6:eb:f1:c7:65:85:2a:c7:ac:31:99:ec:9b:f1:9c:
                    04:cf:b2:4a:2a:03:7c:1c:df:eb:60:26:15:a4:ab:
                    61:80:6d:8b:be:31:3f:74:5c:d1:8f:12:c2:9d:3c:
                    82:3b:85:e6:e6:e1:18:8d:21:aa:ae:c6:96:ee:e5:
                    c8:3b:ba:98:8e:fb:b0:6e:cd:b2:7b:80:da:3b:97:
                    39:28:01:da:c2:48:28:f9:fe:6d:98:0c:bd:a0:65:
                    42:c9:00:92:75:2b:63:c7:2c:4b:76:02:fd:3f:44:
                    ee:e6:0a:4f:19:73:0f:09:89:4a:3f:0f:b5:16:77:
                    34:c6:00:e9:6e:ea:1e:4b:32:ea:62:8e:e7:0c:12:
                    9e:2a:99:3b:fe:35:07:11:a7:ed:49:fe:52:0e:52:
                    31:39:79:79:91:8d:a5:b3:8b:46:cf:ad:3e:58:1a:
                    c4:a7:be:0e:e4:18:a9:91:b1:61:90:bc:fa:ec:a0:
                    dc:ac:7b:2e:8e:9b:47:f7:5c:bf:58:95:2c:ca:e9:
                    81:56:46:bb:2c:d8:f3:27:78:62:b5:d5:47:3d:23:
                    3e:35:de:3f:b8:45:1d:22:39:de:6a:d3:7d:9f:d6:
                    31:56:ac:6d:3c:a1:81:5d:bb:3a:9b:d3:2d:cc:f9:
                    82:f5:c4:6f:3a:d7:71:32:60:3a:11:88:59:8e:62:
                    0e:66:4f:da:8c:7d:88:79:d8:0a:8a:0e:ab:02:a3:
                    3c:4e:36:32:ef:10:f0:0e:79:64:be:97:c0:b4:3b:
                    72:e2:4a:54:af:1c:e2:36:b0:28:17:3f:d3:c4:c7:
                    4b:82:57:f6:ba:7e:9b:29:12:17:aa:ca:df:c4:e1:
                    5c:6e:97
                Exponent: 65537 (0x10001)
        X509v3 extensions:
            X509v3 Basic Constraints: 
                CA:FALSE
            Netscape Comment: 
                Easy-RSA Generated Certificate
            X509v3 Subject Key Identifier: 
                D3:24:8A:6E:F6:D2:3F:DC:BF:34:E9:80:5A:85:55:75:E1:73:CC:DF
            X509v3 Authority Key Identifier: 
                keyid:12:CD:60:04:D2:A0:80:9E:70:ED:C6:99:B8:7B:2C:C6:52:FD:19:A1
                DirName:/C=US/ST=OH/L=Columbus/O=VikingVPN/OU=MyOrganizationalUnit/CN=VikingVPN CA/name=EasyRSA/emailAddress=me@myhost.mydomain
                serial:CF:35:85:EE:80:BF:2A:3E

            X509v3 Extended Key Usage: 
                TLS Web Client Authentication
            X509v3 Key Usage: 
                Digital Signature
    Signature Algorithm: md5WithRSAEncryption
         9d:60:b6:58:ba:33:dc:91:5f:ce:a4:00:40:b2:a6:f6:9b:9e:
         ea:a8:12:f0:02:15:c5:e2:a6:47:aa:3d:0b:d4:9a:3d:06:d0:
         d5:69:d9:8b:b2:10:49:65:c4:39:22:60:8e:00:ee:e8:18:65:
         4f:5e:0f:b0:85:45:9f:1e:57:25:45:2c:71:d5:e3:89:0a:b9:
         d1:75:36:db:47:e5:dd:b1:99:ca:98:48:2d:70:22:75:1d:6b:
         17:13:4d:6f:f0:f3:8e:cb:2a:34:84:65:91:9a:3c:32:2b:ef:
         06:32:c4:cd:2a:f1:69:47:fc:f8:34:60:a3:56:79:30:c6:7c:
         1e:d7:ea:f6:62:28:c7:3c:13:ee:bc:61:44:a7:07:b0:1f:c6:
         cc:b6:2b:48:d1:e2:f1:2d:f6:e5:47:ba:27:42:e2:ca:f6:b5:
         2c:90:72:ca:fb:98:dc:35:91:6e:35:01:b3:ff:d8:13:d6:80:
         99:88:ea:2a:31:b7:5b:c1:cd:97:08:81:73:ac:45:1b:d2:25:
         d2:f0:e1:c2:5e:2d:d4:68:98:53:0e:ef:10:0a:4d:c2:a9:35:
         28:05:83:26:2a:7a:e5:a6:77:2a:b1:ac:fa:d4:b5:37:89:f7:
         27:62:44:d1:f2:14:3a:a5:c5:ce:df:77:b5:7d:3a:82:d7:67:
         a3:ad:f8:d9:13:cb:b7:60:e6:96:e4:50:3a:7b:27:90:31:77:
         d9:3c:c7:b4:0f:fc:1e:1f:45:ad:e8:f8:4d:bc:07:f5:1c:cc:
         43:a1:24:e9:dc:6f:d1:74:0d:cc:25:d3:c3:f4:2d:b9:d3:8e:
         9f:86:48:d5:95:5f:d3:a1:ae:40:89:b8:f5:b3:9d:a9:2e:9b:
         1f:cc:8c:96:2c:83:42:a0:ad:82:aa:68:84:45:12:a3:ee:ba:
         e0:e4:dd:c8:85:3d:95:2d:af:b4:8c:f8:1c:73:78:50:59:f4:
         e7:db:6f:3c:bd:d0:eb:8f:6e:8d:20:51:ed:20:b6:7b:c7:f2:
         19:ee:9d:1f:e1:c2:b9:6d:ca:75:2d:61:05:c7:0c:39:b5:c5:
         92:4c:7c:f9:32:a1:01:bd:84:c8:b5:8f:80:e5:c6:37:3d:cd:
         d8:cc:7e:da:bf:2d:04:ec:23:cd:a5:b2:c7:b2:e3:0d:66:7f:
         24:61:a1:cd:3c:e3:09:ea:b0:27:26:3f:f0:67:00:bb:1b:96:
         06:46:79:bd:0a:58:f3:97:60:67:79:2d:46:05:7c:54:a2:a9:
         aa:f9:85:6c:42:b9:06:85:96:7e:b8:62:69:fa:cd:5d:5f:2a:
         05:2d:94:de:eb:09:41:31:54:d9:ff:cd:7b:5b:e6:e4:57:9b:
         6c:4d:ae:02:d7:6b:6c:e6
-----BEGIN CERTIFICATE-----
MIIGrTCCBJWgAwIBAgICEckwDQYJKoZIhvcNAQEEBQAwgawxCzAJBgNVBAYTAlVT
MQswCQYDVQQIEwJPSDERMA8GA1UEBxMIQ29sdW1idXMxEjAQBgNVBAoTCVZpa2lu
Z1ZQTjEdMBsGA1UECxMUTXlPcmdhbml6YXRpb25hbFVuaXQxFTATBgNVBAMTDFZp
a2luZ1ZQTiBDQTEQMA4GA1UEKRMHRWFzeVJTQTEhMB8GCSqGSIb3DQEJARYSbWVA
bXlob3N0Lm15ZG9tYWluMB4XDTE1MDIyNDA1MjUzN1oXDTI1MDIyMTA1MjUzN1ow
HzEdMBsGA1UEAxMUQ2xpZW50MTQ3N0NlcnRhNmJlM2QwggIiMA0GCSqGSIb3DQEB
AQUAA4ICDwAwggIKAoICAQDnBmA1eQWis3QjGi6TUSe2ZfyfyM3/X+XIN3S9S4aG
cDew3U+mfhdvPKcTgOxUpLaaDM9SmDpKKgSIcRmRucxAecgk0ebKb1b8FcvmKkER
HiM/cjm2febalREvlY74TZVo+4ktXjOt4Br0G4aGLNmPnz0bj8hEuHqFVh5x+MCM
t5qmJOfAXw2dtoM3Zw8INbYZU6LeJpE42FmvfWHJ7ZAxj2byCkAZNIsxrOVpwtE+
KYV7iDuqyQ4kDVP51t/p8+yx2Nbr8cdlhSrHrDGZ7JvxnATPskoqA3wc3+tgJhWk
q2GAbYu+MT90XNGPEsKdPII7hebm4RiNIaquxpbu5cg7upiO+7BuzbJ7gNo7lzko
AdrCSCj5/m2YDL2gZULJAJJ1K2PHLEt2Av0/RO7mCk8Zcw8JiUo/D7UWdzTGAOlu
6h5LMupijucMEp4qmTv+NQcRp+1J/lIOUjE5eXmRjaWzi0bPrT5YGsSnvg7kGKmR
sWGQvPrsoNysey6Om0f3XL9YlSzK6YFWRrss2PMneGK11Uc9Iz413j+4RR0iOd5q
032f1jFWrG08oYFduzqb0y3M+YL1xG8613EyYDoRiFmOYg5mT9qMfYh52AqKDqsC
ozxONjLvEPAOeWS+l8C0O3LiSlSvHOI2sCgXP9PEx0uCV/a6fpspEheqyt/E4Vxu
lwIDAQABo4IBYzCCAV8wCQYDVR0TBAIwADAtBglghkgBhvhCAQ0EIBYeRWFzeS1S
U0EgR2VuZXJhdGVkIENlcnRpZmljYXRlMB0GA1UdDgQWBBTTJIpu9tI/3L806YBa
hVV14XPM3zCB4QYDVR0jBIHZMIHWgBQSzWAE0qCAnnDtxpm4eyzGUv0ZoaGBsqSB
rzCBrDELMAkGA1UEBhMCVVMxCzAJBgNVBAgTAk9IMREwDwYDVQQHEwhDb2x1bWJ1
czESMBAGA1UEChMJVmlraW5nVlBOMR0wGwYDVQQLExRNeU9yZ2FuaXphdGlvbmFs
VW5pdDEVMBMGA1UEAxMMVmlraW5nVlBOIENBMRAwDgYDVQQpEwdFYXN5UlNBMSEw
HwYJKoZIhvcNAQkBFhJtZUBteWhvc3QubXlkb21haW6CCQDPNYXugL8qPjATBgNV
HSUEDDAKBggrBgEFBQcDAjALBgNVHQ8EBAMCB4AwDQYJKoZIhvcNAQEEBQADggIB
AJ1gtli6M9yRX86kAECypvabnuqoEvACFcXipkeqPQvUmj0G0NVp2YuyEEllxDki
YI4A7ugYZU9eD7CFRZ8eVyVFLHHV44kKudF1NttH5d2xmcqYSC1wInUdaxcTTW/w
847LKjSEZZGaPDIr7wYyxM0q8WlH/Pg0YKNWeTDGfB7X6vZiKMc8E+68YUSnB7Af
xsy2K0jR4vEt9uVHuidC4sr2tSyQcsr7mNw1kW41AbP/2BPWgJmI6ioxt1vBzZcI
gXOsRRvSJdLw4cJeLdRomFMO7xAKTcKpNSgFgyYqeuWmdyqxrPrUtTeJ9ydiRNHy
FDqlxc7fd7V9OoLXZ6Ot+NkTy7dg5pbkUDp7J5Axd9k8x7QP/B4fRa3o+E28B/Uc
zEOhJOncb9F0Dcwl08P0LbnTjp+GSNWVX9OhrkCJuPWznakumx/MjJYsg0KgrYKq
aIRFEqPuuuDk3ciFPZUtr7SM+BxzeFBZ9Ofbbzy90OuPbo0gUe0gtnvH8hnunR/h
wrltynUtYQXHDDm1xZJMfPkyoQG9hMi1j4Dlxjc9zdjMftq/LQTsI82lssey4w1m
fyRhoc084wnqsCcmP/BnALsblgZGeb0KWPOXYGd5LUYFfFSiqar5hWxCuQaFln64
Ymn6zV1fKgUtlN7rCUExVNn/zXtb5uRXm2xNrgLXa2zm
-----END CERTIFICATE-----
