Certificate:
    Data:
        Version: 3 (0x2)
        Serial Number: 4554 (0x11ca)
    Signature Algorithm: md5WithRSAEncryption
        Issuer: C=US, ST=OH, L=Columbus, O=VikingVPN, OU=MyOrganizationalUnit, CN=VikingVPN CA/name=EasyRSA/emailAddress=me@myhost.mydomain
        Validity
            Not Before: Feb 24 20:14:00 2015 GMT
            Not After : Feb 21 20:14:00 2025 GMT
        Subject: CN=Client851Cert7b8792
        Subject Public Key Info:
            Public Key Algorithm: rsaEncryption
                Public-Key: (4096 bit)
                Modulus:
                    00:b5:f0:60:42:54:5f:16:82:48:1d:20:85:de:d6:
                    7e:91:cb:fb:06:b3:b9:f2:b6:f9:e5:d1:86:31:de:
                    d8:b1:10:d9:c4:d7:9f:69:fa:a2:a4:24:9e:dc:5c:
                    6c:b6:c5:44:12:fc:f9:ea:d9:93:a7:39:e5:3e:87:
                    8e:02:05:cb:3c:70:ce:37:da:cf:84:a3:df:56:8a:
                    7f:ce:db:ee:eb:3c:3f:31:0e:b9:eb:be:5a:e2:a9:
                    7a:72:09:39:7e:bd:96:d6:ee:e4:06:96:b8:24:54:
                    07:90:7e:8d:ca:fb:a6:52:a4:3b:7f:db:cb:e3:31:
                    f9:0a:ed:6e:b4:2d:64:eb:ec:e5:cc:3d:15:5c:5f:
                    f6:76:91:c0:bb:6f:8c:b0:1e:db:ad:64:0a:29:dd:
                    ac:60:3c:2b:4b:b8:6e:3f:03:7c:a4:d5:5e:d1:30:
                    c8:72:35:8e:6e:c9:0f:c5:0e:90:0d:8c:dd:33:74:
                    2e:15:06:79:32:86:16:b8:1b:de:f0:68:38:50:d5:
                    b3:a5:f1:bd:4d:4b:4f:3d:fd:7d:71:48:72:ee:03:
                    04:33:e4:12:a8:f8:19:e5:a1:5b:46:26:a7:75:37:
                    3d:44:fc:83:81:38:6b:39:e2:d0:5c:73:89:08:7d:
                    b4:ee:38:d0:88:66:7d:e9:be:83:88:66:a8:a5:f6:
                    ef:d0:b5:77:db:4d:c0:32:48:81:07:e2:83:10:14:
                    72:9d:b0:95:f7:24:61:71:46:80:ff:0d:8e:3d:f3:
                    fd:ef:2f:d5:18:8b:68:e1:c8:03:95:9e:1d:dd:2a:
                    ab:c4:b9:59:6e:49:69:7c:d4:f0:43:b9:1d:4d:60:
                    1d:89:30:f1:12:5e:82:60:f0:6e:ef:56:27:86:d0:
                    fa:59:63:db:d6:bf:f8:46:c2:ac:d6:11:59:04:f0:
                    d4:b6:25:5e:9f:f4:de:45:16:38:61:dd:e7:9a:f3:
                    99:3c:82:d4:41:c1:12:5d:7b:83:73:1c:4e:7f:16:
                    70:e3:d6:3f:0a:b5:3a:a9:90:49:db:95:ca:90:35:
                    87:67:f8:c5:a7:ee:ad:02:bc:44:a2:9d:48:80:97:
                    22:65:4e:7d:b1:ee:f3:04:7b:6c:c2:5b:50:07:19:
                    d0:af:81:0e:fc:b7:c8:89:9a:45:5a:fd:e3:cb:c0:
                    bc:d8:54:e3:47:ee:c0:e5:48:26:6f:9e:59:43:50:
                    87:37:ad:91:8b:45:28:c8:3a:65:df:8f:4f:62:83:
                    5e:ad:12:a2:0c:56:69:3f:89:8e:c6:9d:11:c0:84:
                    62:ec:3e:55:a7:b8:67:ce:80:6a:7e:1f:d2:df:73:
                    67:a8:73:b6:cd:66:80:8b:57:7a:31:53:9c:59:91:
                    7f:00:2d
                Exponent: 65537 (0x10001)
        X509v3 extensions:
            X509v3 Basic Constraints: 
                CA:FALSE
            Netscape Comment: 
                Easy-RSA Generated Certificate
            X509v3 Subject Key Identifier: 
                51:87:7D:7E:36:2A:2E:06:49:7A:1A:AC:DE:D8:21:8E:B3:56:51:5A
            X509v3 Authority Key Identifier: 
                keyid:12:CD:60:04:D2:A0:80:9E:70:ED:C6:99:B8:7B:2C:C6:52:FD:19:A1
                DirName:/C=US/ST=OH/L=Columbus/O=VikingVPN/OU=MyOrganizationalUnit/CN=VikingVPN CA/name=EasyRSA/emailAddress=me@myhost.mydomain
                serial:CF:35:85:EE:80:BF:2A:3E

            X509v3 Extended Key Usage: 
                TLS Web Client Authentication
            X509v3 Key Usage: 
                Digital Signature
    Signature Algorithm: md5WithRSAEncryption
         0e:57:7b:f2:d3:a5:ff:56:47:ec:06:66:7d:e1:6a:a0:3a:b9:
         e7:ca:00:71:8c:6e:eb:d9:12:0f:b7:68:75:d3:f5:00:1c:d8:
         d9:0c:22:73:d4:d7:7a:81:1b:01:6e:ac:0d:05:19:52:5c:7b:
         b2:60:89:da:88:88:54:ae:f4:f8:95:ef:2c:a9:eb:f2:40:cf:
         4c:54:3a:f8:f3:01:e4:cc:81:73:70:bd:03:9b:ed:28:f4:19:
         a8:50:6d:4c:ff:f1:c0:68:65:3d:88:8d:32:3d:d1:a3:01:f4:
         16:c4:0d:48:89:69:36:5e:e0:3f:16:cb:e9:cf:af:bd:b5:fa:
         25:0f:b8:5e:8c:7f:22:67:84:e5:86:e3:3c:cd:8d:70:96:4c:
         da:70:b8:d1:27:ab:70:73:52:a5:e9:8f:e4:67:6a:a9:98:5e:
         74:cc:a8:c0:22:ea:10:cc:9c:cf:db:10:64:7a:c8:20:4b:47:
         62:b5:d2:c7:ee:cd:e1:87:b5:86:3d:28:5c:3d:0f:9b:b7:2a:
         c1:e8:14:88:05:15:fe:f1:6e:ef:9a:d2:d6:2f:f9:0d:05:94:
         c2:ae:97:99:e6:1d:1b:ef:1a:72:f9:c9:0d:e8:50:a1:69:8d:
         c6:d9:1a:8d:34:f1:3a:3a:58:0f:aa:c5:c1:f3:6f:2c:ba:95:
         d0:a2:65:f3:73:57:04:4e:6f:b0:43:48:60:b5:9b:aa:85:ae:
         22:d5:53:86:06:07:85:a7:a5:66:dc:64:78:a3:a9:40:dc:ba:
         11:8d:b9:5f:8f:f4:1a:ad:86:f6:b8:85:44:f7:2e:ab:a2:be:
         2a:cb:4e:5c:a1:09:96:df:59:45:6b:99:44:e3:6e:d9:c6:e8:
         ac:c8:de:e2:57:6f:42:d4:54:21:3e:58:f1:d4:85:e8:47:4f:
         b9:e3:0e:e3:6b:1a:6e:b2:fc:4e:61:74:75:a9:40:47:e9:cb:
         d5:97:44:71:de:ac:e8:f8:ed:e4:25:8b:e6:e3:c2:dd:fd:31:
         ca:ed:fc:3b:c0:76:7a:27:a8:3e:1d:ba:b1:16:79:8c:1d:2f:
         33:51:98:6f:de:63:c0:9f:0c:81:e9:89:89:66:10:47:07:b4:
         0a:95:66:0a:04:24:07:fb:aa:d7:53:76:4c:cb:8c:0c:4f:7d:
         1d:1d:6a:ee:db:1a:5f:40:ad:68:95:4e:a7:18:1c:d7:8c:d9:
         85:1e:d8:be:38:cf:a8:14:b9:95:e0:4d:f7:d1:fa:64:d5:28:
         82:a3:e4:7e:1f:aa:86:a6:04:d2:08:55:22:7e:03:9e:d9:77:
         f9:4d:1a:38:40:6e:15:99:54:94:ed:9c:18:4a:eb:71:ea:45:
         a9:b4:96:28:aa:d6:cc:3f
-----BEGIN CERTIFICATE-----
MIIGrDCCBJSgAwIBAgICEcowDQYJKoZIhvcNAQEEBQAwgawxCzAJBgNVBAYTAlVT
MQswCQYDVQQIEwJPSDERMA8GA1UEBxMIQ29sdW1idXMxEjAQBgNVBAoTCVZpa2lu
Z1ZQTjEdMBsGA1UECxMUTXlPcmdhbml6YXRpb25hbFVuaXQxFTATBgNVBAMTDFZp
a2luZ1ZQTiBDQTEQMA4GA1UEKRMHRWFzeVJTQTEhMB8GCSqGSIb3DQEJARYSbWVA
bXlob3N0Lm15ZG9tYWluMB4XDTE1MDIyNDIwMTQwMFoXDTI1MDIyMTIwMTQwMFow
HjEcMBoGA1UEAxMTQ2xpZW50ODUxQ2VydDdiODc5MjCCAiIwDQYJKoZIhvcNAQEB
BQADggIPADCCAgoCggIBALXwYEJUXxaCSB0ghd7WfpHL+wazufK2+eXRhjHe2LEQ
2cTXn2n6oqQkntxcbLbFRBL8+erZk6c55T6HjgIFyzxwzjfaz4Sj31aKf87b7us8
PzEOueu+WuKpenIJOX69ltbu5AaWuCRUB5B+jcr7plKkO3/by+Mx+QrtbrQtZOvs
5cw9FVxf9naRwLtvjLAe261kCindrGA8K0u4bj8DfKTVXtEwyHI1jm7JD8UOkA2M
3TN0LhUGeTKGFrgb3vBoOFDVs6XxvU1LTz39fXFIcu4DBDPkEqj4GeWhW0Ymp3U3
PUT8g4E4azni0FxziQh9tO440Ihmfem+g4hmqKX279C1d9tNwDJIgQfigxAUcp2w
lfckYXFGgP8Njj3z/e8v1RiLaOHIA5WeHd0qq8S5WW5JaXzU8EO5HU1gHYkw8RJe
gmDwbu9WJ4bQ+llj29a/+EbCrNYRWQTw1LYlXp/03kUWOGHd55rzmTyC1EHBEl17
g3McTn8WcOPWPwq1OqmQSduVypA1h2f4xafurQK8RKKdSICXImVOfbHu8wR7bMJb
UAcZ0K+BDvy3yImaRVr948vAvNhU40fuwOVIJm+eWUNQhzetkYtFKMg6Zd+PT2KD
Xq0SogxWaT+JjsadEcCEYuw+Vae4Z86Aan4f0t9zZ6hzts1mgItXejFTnFmRfwAt
AgMBAAGjggFjMIIBXzAJBgNVHRMEAjAAMC0GCWCGSAGG+EIBDQQgFh5FYXN5LVJT
QSBHZW5lcmF0ZWQgQ2VydGlmaWNhdGUwHQYDVR0OBBYEFFGHfX42Ki4GSXoarN7Y
IY6zVlFaMIHhBgNVHSMEgdkwgdaAFBLNYATSoICecO3Gmbh7LMZS/RmhoYGypIGv
MIGsMQswCQYDVQQGEwJVUzELMAkGA1UECBMCT0gxETAPBgNVBAcTCENvbHVtYnVz
MRIwEAYDVQQKEwlWaWtpbmdWUE4xHTAbBgNVBAsTFE15T3JnYW5pemF0aW9uYWxV
bml0MRUwEwYDVQQDEwxWaWtpbmdWUE4gQ0ExEDAOBgNVBCkTB0Vhc3lSU0ExITAf
BgkqhkiG9w0BCQEWEm1lQG15aG9zdC5teWRvbWFpboIJAM81he6Avyo+MBMGA1Ud
JQQMMAoGCCsGAQUFBwMCMAsGA1UdDwQEAwIHgDANBgkqhkiG9w0BAQQFAAOCAgEA
Dld78tOl/1ZH7AZmfeFqoDq558oAcYxu69kSD7doddP1ABzY2Qwic9TXeoEbAW6s
DQUZUlx7smCJ2oiIVK70+JXvLKnr8kDPTFQ6+PMB5MyBc3C9A5vtKPQZqFBtTP/x
wGhlPYiNMj3RowH0FsQNSIlpNl7gPxbL6c+vvbX6JQ+4Xox/ImeE5YbjPM2NcJZM
2nC40SercHNSpemP5GdqqZhedMyowCLqEMycz9sQZHrIIEtHYrXSx+7N4Ye1hj0o
XD0Pm7cqwegUiAUV/vFu75rS1i/5DQWUwq6XmeYdG+8acvnJDehQoWmNxtkajTTx
OjpYD6rFwfNvLLqV0KJl83NXBE5vsENIYLWbqoWuItVThgYHhaelZtxkeKOpQNy6
EY25X4/0Gq2G9riFRPcuq6K+KstOXKEJlt9ZRWuZRONu2cborMje4ldvQtRUIT5Y
8dSF6EdPueMO42sabrL8TmF0dalAR+nL1ZdEcd6s6Pjt5CWL5uPC3f0xyu38O8B2
eieoPh26sRZ5jB0vM1GYb95jwJ8MgemJiWYQRwe0CpVmCgQkB/uq11N2TMuMDE99
HR1q7tsaX0CtaJVOpxgc14zZhR7YvjjPqBS5leBN99H6ZNUogqPkfh+qhqYE0ghV
In4Dntl3+U0aOEBuFZlUlO2cGErrcepFqbSWKKrWzD8=
-----END CERTIFICATE-----
