Certificate:
    Data:
        Version: 3 (0x2)
        Serial Number: 4565 (0x11d5)
    Signature Algorithm: md5WithRSAEncryption
        Issuer: C=US, ST=OH, L=Columbus, O=VikingVPN, OU=MyOrganizationalUnit, CN=VikingVPN CA/name=EasyRSA/emailAddress=me@myhost.mydomain
        Validity
            Not Before: Feb 25 22:54:32 2015 GMT
            Not After : Feb 22 22:54:32 2025 GMT
        Subject: CN=Client1481Certb1cd61
        Subject Public Key Info:
            Public Key Algorithm: rsaEncryption
                Public-Key: (4096 bit)
                Modulus:
                    00:c0:b1:9f:8d:f4:24:07:24:0c:8f:12:92:57:b1:
                    f6:1a:96:a4:4e:bd:24:71:6c:3f:3d:e4:a4:8f:b8:
                    fb:5e:c2:a5:e0:09:b1:68:2d:c9:9b:ad:fe:33:5a:
                    96:d4:32:f7:7f:a2:e6:41:61:3d:b3:f6:6a:f5:5b:
                    e8:a5:35:7b:fb:b4:58:3f:9f:c6:f8:ea:8c:a9:14:
                    ab:57:a2:eb:02:53:c5:07:c4:43:ff:46:16:3f:5b:
                    43:29:d9:20:cc:cb:76:46:38:51:2a:6e:fc:27:f7:
                    ae:4b:3a:6f:aa:1b:e0:cc:2d:c0:2b:35:40:e5:84:
                    8a:e9:f2:f5:54:29:4c:ff:f0:7f:42:aa:6c:4b:18:
                    35:a8:b2:fc:90:99:48:18:6c:af:74:1b:4a:96:a5:
                    51:e2:d9:df:7b:4c:f8:24:b6:ba:ef:08:22:df:15:
                    7b:e2:dc:ad:2f:90:b7:1a:ab:61:51:77:5a:32:19:
                    16:d3:e8:74:ba:2b:93:e5:ad:1b:59:3e:04:4e:ee:
                    06:ce:dd:b0:a6:e3:1a:d3:7b:eb:72:f1:f2:30:c5:
                    d3:6d:72:d1:52:e6:d8:58:da:d9:a0:c3:b7:63:05:
                    bc:28:30:44:62:71:7a:f6:33:fd:66:41:e4:1d:da:
                    a2:f6:d2:f0:9b:10:59:25:ce:1f:ff:08:7b:68:f7:
                    6d:e8:4b:48:f7:4b:a2:33:55:6a:cc:f7:fc:d3:70:
                    7e:cd:d0:2c:66:c7:2c:90:29:51:cd:94:7d:10:3a:
                    fd:c4:51:a5:c2:5b:dd:93:d7:e1:67:2e:3f:e5:be:
                    e5:99:4a:5b:4a:cc:49:a5:59:06:55:7b:1c:50:b5:
                    75:07:e3:bb:b6:ff:62:32:43:d5:53:43:6c:13:da:
                    b5:6b:8b:60:15:77:13:f9:9f:f8:f1:06:4d:ca:24:
                    af:32:42:0b:cc:11:73:25:9a:4d:a0:80:41:56:c7:
                    9f:5e:0d:f9:39:3a:1a:14:03:fe:9e:5d:17:45:35:
                    0f:1f:2f:bd:ba:98:6e:04:b3:4f:1e:b8:2a:d5:d4:
                    f9:75:b1:5a:06:2d:a9:92:5b:fd:8f:0d:e3:44:82:
                    60:43:e3:75:ba:1f:7f:14:d4:8b:06:4b:9a:b1:f4:
                    bd:f8:eb:23:68:4a:67:50:74:46:24:5e:a3:fd:f8:
                    59:92:65:df:05:95:75:9d:ab:bb:03:d0:39:01:1e:
                    9e:6d:38:4f:b7:82:d1:7e:6b:15:90:63:0a:99:6e:
                    70:da:b1:cc:40:0b:f9:45:ef:a0:cf:f7:a6:b1:f8:
                    3b:43:ba:d2:38:90:71:0f:40:5e:cd:7e:25:a0:98:
                    a1:fd:1a:3b:cc:9f:30:ab:ac:e3:11:9d:65:5c:f5:
                    0e:cb:b3
                Exponent: 65537 (0x10001)
        X509v3 extensions:
            X509v3 Basic Constraints: 
                CA:FALSE
            Netscape Comment: 
                Easy-RSA Generated Certificate
            X509v3 Subject Key Identifier: 
                4C:57:30:16:66:58:2E:48:3A:3A:18:5E:42:50:14:8C:F6:7B:A2:60
            X509v3 Authority Key Identifier: 
                keyid:12:CD:60:04:D2:A0:80:9E:70:ED:C6:99:B8:7B:2C:C6:52:FD:19:A1
                DirName:/C=US/ST=OH/L=Columbus/O=VikingVPN/OU=MyOrganizationalUnit/CN=VikingVPN CA/name=EasyRSA/emailAddress=me@myhost.mydomain
                serial:CF:35:85:EE:80:BF:2A:3E

            X509v3 Extended Key Usage: 
                TLS Web Client Authentication
            X509v3 Key Usage: 
                Digital Signature
    Signature Algorithm: md5WithRSAEncryption
         4b:81:c4:8f:90:ac:10:ff:5c:80:aa:32:4a:e0:30:2d:59:33:
         d3:1c:cf:d6:67:6d:22:f1:0e:ca:d1:1e:51:df:b8:64:9a:1e:
         b1:98:4d:38:de:04:86:6d:92:e5:27:ad:b7:b0:8e:d8:cd:e2:
         d6:55:6d:07:77:39:24:f1:34:c7:4c:1c:95:87:e5:82:1c:d5:
         38:91:f1:35:39:79:7b:14:36:34:ba:df:7b:37:5d:34:01:8c:
         a0:a2:05:7b:ab:12:fd:be:4e:0a:d2:be:32:a4:26:f6:eb:82:
         25:bb:45:aa:65:20:76:ad:18:fb:06:65:9e:40:b8:af:a3:4f:
         3b:f8:7e:f9:25:9f:c6:a6:9c:27:76:82:45:a1:b8:2a:c5:fe:
         fc:06:62:46:f6:92:e8:85:d8:08:d8:c4:52:d6:f2:9d:33:8e:
         fa:fb:40:02:4b:1a:58:12:79:b7:49:ee:0d:c9:bd:ec:be:1d:
         50:81:91:1a:9c:cf:76:ed:cf:d5:1c:cf:a7:e5:b2:9e:76:b1:
         eb:41:4c:b6:49:c2:cd:77:50:71:50:5b:d1:29:cc:56:35:d6:
         0a:bc:13:54:2e:17:71:cb:2f:05:b9:f0:dd:4a:15:72:c0:b0:
         8c:35:66:cf:86:05:1f:6d:be:0a:bb:a2:62:5c:86:d2:35:56:
         11:20:b8:0b:9a:96:a2:f8:3f:49:59:ee:55:81:f4:6c:51:e1:
         d9:cf:4e:a6:2f:1e:03:db:0b:a2:91:90:57:1b:52:37:36:8a:
         d7:a5:cd:97:08:ca:6a:c0:bb:09:02:db:fe:9c:1e:af:84:eb:
         c0:33:23:8a:8f:99:a5:31:43:ec:51:49:3f:54:1c:f3:1d:5e:
         e5:eb:28:b0:c4:11:e7:5a:9d:46:57:bf:f1:cf:04:86:8f:3b:
         02:92:69:c3:10:15:98:de:11:02:5c:f4:e4:1e:38:c8:11:df:
         08:60:ba:3a:5a:e3:95:ff:4f:7d:79:1a:60:d1:9e:68:e0:0a:
         18:74:7e:45:3d:4c:b3:a5:fd:11:68:94:0b:ee:66:c0:f1:ef:
         32:13:b5:3b:7f:ac:dc:a8:b7:2b:25:5f:05:10:49:1e:b2:a8:
         98:fd:c7:ae:5a:75:9c:3c:31:69:19:fd:fb:58:e5:16:f7:0c:
         8e:4f:1b:3e:d5:50:87:f6:0d:7c:35:83:c0:fb:cc:79:b7:8e:
         0e:76:43:c9:29:31:3a:8a:67:be:b5:e8:ee:fe:65:2c:90:cf:
         ac:33:e5:69:eb:11:e4:79:9a:6d:60:fa:3e:5a:28:c1:d8:46:
         8c:e0:9c:69:d7:bf:02:63:c0:98:44:5c:dc:5d:7d:34:1e:a2:
         ab:50:7d:c7:49:81:ab:5d
-----BEGIN CERTIFICATE-----
MIIGrTCCBJWgAwIBAgICEdUwDQYJKoZIhvcNAQEEBQAwgawxCzAJBgNVBAYTAlVT
MQswCQYDVQQIEwJPSDERMA8GA1UEBxMIQ29sdW1idXMxEjAQBgNVBAoTCVZpa2lu
Z1ZQTjEdMBsGA1UECxMUTXlPcmdhbml6YXRpb25hbFVuaXQxFTATBgNVBAMTDFZp
a2luZ1ZQTiBDQTEQMA4GA1UEKRMHRWFzeVJTQTEhMB8GCSqGSIb3DQEJARYSbWVA
bXlob3N0Lm15ZG9tYWluMB4XDTE1MDIyNTIyNTQzMloXDTI1MDIyMjIyNTQzMlow
HzEdMBsGA1UEAxMUQ2xpZW50MTQ4MUNlcnRiMWNkNjEwggIiMA0GCSqGSIb3DQEB
AQUAA4ICDwAwggIKAoICAQDAsZ+N9CQHJAyPEpJXsfYalqROvSRxbD895KSPuPte
wqXgCbFoLcmbrf4zWpbUMvd/ouZBYT2z9mr1W+ilNXv7tFg/n8b46oypFKtXousC
U8UHxEP/RhY/W0Mp2SDMy3ZGOFEqbvwn965LOm+qG+DMLcArNUDlhIrp8vVUKUz/
8H9CqmxLGDWosvyQmUgYbK90G0qWpVHi2d97TPgktrrvCCLfFXvi3K0vkLcaq2FR
d1oyGRbT6HS6K5PlrRtZPgRO7gbO3bCm4xrTe+ty8fIwxdNtctFS5thY2tmgw7dj
BbwoMERicXr2M/1mQeQd2qL20vCbEFklzh//CHto923oS0j3S6IzVWrM9/zTcH7N
0CxmxyyQKVHNlH0QOv3EUaXCW92T1+FnLj/lvuWZSltKzEmlWQZVexxQtXUH47u2
/2IyQ9VTQ2wT2rVri2AVdxP5n/jxBk3KJK8yQgvMEXMlmk2ggEFWx59eDfk5OhoU
A/6eXRdFNQ8fL726mG4Es08euCrV1Pl1sVoGLamSW/2PDeNEgmBD43W6H38U1IsG
S5qx9L346yNoSmdQdEYkXqP9+FmSZd8FlXWdq7sD0DkBHp5tOE+3gtF+axWQYwqZ
bnDascxAC/lF76DP96ax+DtDutI4kHEPQF7NfiWgmKH9GjvMnzCrrOMRnWVc9Q7L
swIDAQABo4IBYzCCAV8wCQYDVR0TBAIwADAtBglghkgBhvhCAQ0EIBYeRWFzeS1S
U0EgR2VuZXJhdGVkIENlcnRpZmljYXRlMB0GA1UdDgQWBBRMVzAWZlguSDo6GF5C
UBSM9nuiYDCB4QYDVR0jBIHZMIHWgBQSzWAE0qCAnnDtxpm4eyzGUv0ZoaGBsqSB
rzCBrDELMAkGA1UEBhMCVVMxCzAJBgNVBAgTAk9IMREwDwYDVQQHEwhDb2x1bWJ1
czESMBAGA1UEChMJVmlraW5nVlBOMR0wGwYDVQQLExRNeU9yZ2FuaXphdGlvbmFs
VW5pdDEVMBMGA1UEAxMMVmlraW5nVlBOIENBMRAwDgYDVQQpEwdFYXN5UlNBMSEw
HwYJKoZIhvcNAQkBFhJtZUBteWhvc3QubXlkb21haW6CCQDPNYXugL8qPjATBgNV
HSUEDDAKBggrBgEFBQcDAjALBgNVHQ8EBAMCB4AwDQYJKoZIhvcNAQEEBQADggIB
AEuBxI+QrBD/XICqMkrgMC1ZM9Mcz9ZnbSLxDsrRHlHfuGSaHrGYTTjeBIZtkuUn
rbewjtjN4tZVbQd3OSTxNMdMHJWH5YIc1TiR8TU5eXsUNjS633s3XTQBjKCiBXur
Ev2+TgrSvjKkJvbrgiW7RaplIHatGPsGZZ5AuK+jTzv4fvkln8amnCd2gkWhuCrF
/vwGYkb2kuiF2AjYxFLW8p0zjvr7QAJLGlgSebdJ7g3Jvey+HVCBkRqcz3btz9Uc
z6flsp52setBTLZJws13UHFQW9EpzFY11gq8E1QuF3HLLwW58N1KFXLAsIw1Zs+G
BR9tvgq7omJchtI1VhEguAualqL4P0lZ7lWB9GxR4dnPTqYvHgPbC6KRkFcbUjc2
itelzZcIymrAuwkC2/6cHq+E68AzI4qPmaUxQ+xRST9UHPMdXuXrKLDEEedanUZX
v/HPBIaPOwKSacMQFZjeEQJc9OQeOMgR3whgujpa45X/T315GmDRnmjgChh0fkU9
TLOl/RFolAvuZsDx7zITtTt/rNyotyslXwUQSR6yqJj9x65adZw8MWkZ/ftY5Rb3
DI5PGz7VUIf2DXw1g8D7zHm3jg52Q8kpMTqKZ7616O7+ZSyQz6wz5WnrEeR5mm1g
+j5aKMHYRozgnGnXvwJjwJhEXNxdfTQeoqtQfcdJgatd
-----END CERTIFICATE-----
