Certificate:
    Data:
        Version: 3 (0x2)
        Serial Number: 4566 (0x11d6)
    Signature Algorithm: md5WithRSAEncryption
        Issuer: C=US, ST=OH, L=Columbus, O=VikingVPN, OU=MyOrganizationalUnit, CN=VikingVPN CA/name=EasyRSA/emailAddress=me@myhost.mydomain
        Validity
            Not Before: Feb 25 22:54:54 2015 GMT
            Not After : Feb 22 22:54:54 2025 GMT
        Subject: CN=Client1483Cert741e1d
        Subject Public Key Info:
            Public Key Algorithm: rsaEncryption
                Public-Key: (4096 bit)
                Modulus:
                    00:cc:53:56:25:fc:ec:5a:40:37:fe:f5:97:54:ed:
                    16:43:25:64:cb:2a:75:1b:8f:bd:ef:6a:78:94:01:
                    91:ce:b3:04:58:53:9a:fa:29:7a:67:70:37:48:48:
                    50:6b:dd:73:69:4a:79:79:25:b8:f1:3f:af:77:16:
                    86:6c:a1:82:cf:6e:82:e4:2a:74:c1:58:c2:28:16:
                    a3:e9:6f:0c:6e:ba:cd:46:91:09:b9:f3:53:c0:75:
                    c8:a6:63:c7:f1:d6:b1:2b:cc:22:63:20:35:c8:cf:
                    37:a6:45:b5:91:be:dc:b7:7c:d4:14:75:a0:6a:89:
                    ee:1c:0a:10:20:36:c1:d9:90:63:56:4c:4e:e6:18:
                    8a:f5:bb:30:43:bc:17:1a:d5:29:a1:6c:e9:c7:6d:
                    90:6f:0a:31:7e:38:f8:18:4b:68:16:b7:72:b2:7e:
                    46:05:9c:ae:49:2c:df:4b:95:ef:65:62:cb:b1:64:
                    ed:96:05:bf:c5:1a:d6:8b:56:2a:a8:57:0c:1d:70:
                    1e:a4:98:d7:29:08:12:3d:ed:23:00:1e:ba:83:35:
                    b6:7a:e3:4b:7d:e0:60:f9:9e:06:70:9f:6b:b0:d5:
                    85:3e:b8:cb:49:f3:09:d4:15:a9:e3:7d:66:38:e8:
                    d3:52:58:fb:41:4a:b0:35:a7:5a:76:90:61:02:77:
                    12:87:0a:32:84:b3:63:44:1d:eb:f6:b3:28:9c:5f:
                    33:33:b3:9c:c6:0d:97:eb:3f:28:a6:ab:78:73:23:
                    22:71:b3:07:bb:ad:bd:ea:ef:ae:74:b7:2a:f3:c8:
                    7f:ea:c2:e9:0d:8f:d2:c4:03:68:b8:a7:c6:1e:26:
                    d5:b2:db:ab:d2:5a:aa:97:4c:cf:bd:35:34:b8:25:
                    96:e3:ae:94:06:e7:35:71:63:bd:25:11:25:ea:23:
                    dc:e5:e5:94:db:6f:fa:83:48:a4:c3:45:82:ea:75:
                    54:d0:0c:b0:ea:f8:78:f0:69:e4:37:23:64:46:11:
                    a7:93:6d:1c:d8:ce:2f:78:cd:d6:21:94:8e:ff:18:
                    75:eb:29:c7:47:95:0e:0c:c8:d4:97:7c:27:16:6f:
                    25:5d:4e:b1:82:91:c8:f8:ab:80:ad:ba:2f:d4:4f:
                    68:53:cd:02:36:08:08:68:fe:13:42:8c:42:02:bd:
                    80:d4:63:00:3c:48:a8:cd:87:00:2d:12:4e:e3:41:
                    33:6c:7e:60:3f:b9:88:08:8c:4d:f2:16:0b:78:80:
                    d5:64:0e:4e:c0:b1:6e:f9:1e:2c:1a:0c:17:46:81:
                    08:97:a9:02:e1:ff:0a:99:07:c2:3f:be:07:e8:c0:
                    57:24:a4:24:61:0f:d8:bc:13:a4:6b:37:08:c1:22:
                    2b:bd:73
                Exponent: 65537 (0x10001)
        X509v3 extensions:
            X509v3 Basic Constraints: 
                CA:FALSE
            Netscape Comment: 
                Easy-RSA Generated Certificate
            X509v3 Subject Key Identifier: 
                C3:11:4A:B6:5D:56:78:37:04:67:1C:18:A2:71:45:C4:2D:C0:D1:8C
            X509v3 Authority Key Identifier: 
                keyid:12:CD:60:04:D2:A0:80:9E:70:ED:C6:99:B8:7B:2C:C6:52:FD:19:A1
                DirName:/C=US/ST=OH/L=Columbus/O=VikingVPN/OU=MyOrganizationalUnit/CN=VikingVPN CA/name=EasyRSA/emailAddress=me@myhost.mydomain
                serial:CF:35:85:EE:80:BF:2A:3E

            X509v3 Extended Key Usage: 
                TLS Web Client Authentication
            X509v3 Key Usage: 
                Digital Signature
    Signature Algorithm: md5WithRSAEncryption
         72:b4:a6:8d:57:48:e2:bf:bf:8e:f3:a9:ed:c7:c0:8f:a0:3b:
         2e:ae:d3:8b:de:04:05:61:b4:2f:79:90:46:e2:81:e4:fd:a7:
         4f:cd:47:4e:4e:f5:e7:2b:61:d7:b4:66:34:6e:ed:50:1b:a8:
         1d:e6:f1:ec:95:fe:e2:b9:4f:43:3e:53:4c:0d:b5:fd:08:68:
         e9:1e:f3:47:68:9f:d5:f2:f6:32:73:6c:9a:0d:57:37:2c:f2:
         d6:2a:38:33:5c:14:9e:e3:0e:5d:a0:18:47:dd:88:fe:b4:82:
         02:9d:cf:84:06:40:ed:34:6f:81:bb:0e:63:11:2e:0d:32:1a:
         fd:26:dd:d2:53:ce:31:59:a8:c4:ca:56:30:7f:9f:61:f1:a7:
         83:c9:1a:6f:38:60:32:5a:32:20:22:af:45:ae:e3:cc:53:58:
         1c:ee:0c:05:21:28:a2:64:9e:6d:be:9c:9e:e7:5e:0a:dd:8c:
         1d:39:af:49:8b:1e:9d:37:c1:3f:e5:86:13:6e:c1:02:c4:23:
         63:02:ce:1b:7a:0a:2a:f2:0d:06:bc:e8:79:f3:51:cd:1e:64:
         6c:96:c4:0a:4c:6c:ff:aa:c9:10:55:68:7f:6f:cd:57:45:02:
         ff:3d:1e:fa:a5:f8:01:b6:bf:aa:bf:82:cf:1e:bc:50:6b:cd:
         f2:f3:b0:57:b6:4c:95:65:7e:3c:34:02:08:b4:4c:bb:16:81:
         4d:32:39:c6:92:62:a3:74:a8:d1:9d:43:b3:fc:1e:0f:db:1f:
         a3:31:d6:18:0b:f7:71:43:f7:4c:d9:1e:8c:e7:6c:76:bb:76:
         1c:05:63:98:2b:df:4e:e6:fe:28:e2:76:7e:b8:dd:d3:35:3d:
         d1:73:e2:35:e4:c7:58:a0:e7:78:e4:74:c6:f5:c5:5d:62:d9:
         de:01:b0:09:aa:94:3f:8a:b5:f9:32:0f:3b:ea:48:06:74:48:
         4b:6a:59:58:6e:05:61:c2:86:4f:fc:db:fb:34:13:13:d6:c2:
         91:f8:2f:08:c9:30:ee:13:fd:ef:8d:19:3f:cb:55:57:f5:a6:
         33:aa:0d:94:6b:ba:0e:37:1d:6f:58:85:2b:94:15:0c:d1:34:
         76:c1:04:98:db:dc:ed:73:10:f4:b9:cd:4b:61:66:cd:12:6a:
         f9:6a:ab:ef:f7:de:32:cf:a9:76:88:62:6b:09:f7:d9:54:34:
         67:dd:99:bd:a5:f5:59:2d:4f:24:77:c9:fd:51:97:28:74:00:
         bc:4e:e1:b4:5a:d0:ea:42:d9:d1:34:73:b9:8b:3f:eb:e2:57:
         1a:f3:1d:28:62:df:03:ba:9d:d4:82:70:52:37:35:4b:0a:4e:
         85:0c:9f:e2:33:21:09:b8
-----BEGIN CERTIFICATE-----
MIIGrTCCBJWgAwIBAgICEdYwDQYJKoZIhvcNAQEEBQAwgawxCzAJBgNVBAYTAlVT
MQswCQYDVQQIEwJPSDERMA8GA1UEBxMIQ29sdW1idXMxEjAQBgNVBAoTCVZpa2lu
Z1ZQTjEdMBsGA1UECxMUTXlPcmdhbml6YXRpb25hbFVuaXQxFTATBgNVBAMTDFZp
a2luZ1ZQTiBDQTEQMA4GA1UEKRMHRWFzeVJTQTEhMB8GCSqGSIb3DQEJARYSbWVA
bXlob3N0Lm15ZG9tYWluMB4XDTE1MDIyNTIyNTQ1NFoXDTI1MDIyMjIyNTQ1NFow
HzEdMBsGA1UEAxMUQ2xpZW50MTQ4M0NlcnQ3NDFlMWQwggIiMA0GCSqGSIb3DQEB
AQUAA4ICDwAwggIKAoICAQDMU1Yl/OxaQDf+9ZdU7RZDJWTLKnUbj73vaniUAZHO
swRYU5r6KXpncDdISFBr3XNpSnl5JbjxP693FoZsoYLPboLkKnTBWMIoFqPpbwxu
us1GkQm581PAdcimY8fx1rErzCJjIDXIzzemRbWRvty3fNQUdaBqie4cChAgNsHZ
kGNWTE7mGIr1uzBDvBca1SmhbOnHbZBvCjF+OPgYS2gWt3KyfkYFnK5JLN9Lle9l
YsuxZO2WBb/FGtaLViqoVwwdcB6kmNcpCBI97SMAHrqDNbZ640t94GD5ngZwn2uw
1YU+uMtJ8wnUFanjfWY46NNSWPtBSrA1p1p2kGECdxKHCjKEs2NEHev2syicXzMz
s5zGDZfrPyimq3hzIyJxswe7rb3q7650tyrzyH/qwukNj9LEA2i4p8YeJtWy26vS
WqqXTM+9NTS4JZbjrpQG5zVxY70lESXqI9zl5ZTbb/qDSKTDRYLqdVTQDLDq+Hjw
aeQ3I2RGEaeTbRzYzi94zdYhlI7/GHXrKcdHlQ4MyNSXfCcWbyVdTrGCkcj4q4Ct
ui/UT2hTzQI2CAho/hNCjEICvYDUYwA8SKjNhwAtEk7jQTNsfmA/uYgIjE3yFgt4
gNVkDk7AsW75HiwaDBdGgQiXqQLh/wqZB8I/vgfowFckpCRhD9i8E6RrNwjBIiu9
cwIDAQABo4IBYzCCAV8wCQYDVR0TBAIwADAtBglghkgBhvhCAQ0EIBYeRWFzeS1S
U0EgR2VuZXJhdGVkIENlcnRpZmljYXRlMB0GA1UdDgQWBBTDEUq2XVZ4NwRnHBii
cUXELcDRjDCB4QYDVR0jBIHZMIHWgBQSzWAE0qCAnnDtxpm4eyzGUv0ZoaGBsqSB
rzCBrDELMAkGA1UEBhMCVVMxCzAJBgNVBAgTAk9IMREwDwYDVQQHEwhDb2x1bWJ1
czESMBAGA1UEChMJVmlraW5nVlBOMR0wGwYDVQQLExRNeU9yZ2FuaXphdGlvbmFs
VW5pdDEVMBMGA1UEAxMMVmlraW5nVlBOIENBMRAwDgYDVQQpEwdFYXN5UlNBMSEw
HwYJKoZIhvcNAQkBFhJtZUBteWhvc3QubXlkb21haW6CCQDPNYXugL8qPjATBgNV
HSUEDDAKBggrBgEFBQcDAjALBgNVHQ8EBAMCB4AwDQYJKoZIhvcNAQEEBQADggIB
AHK0po1XSOK/v47zqe3HwI+gOy6u04veBAVhtC95kEbigeT9p0/NR05O9ecrYde0
ZjRu7VAbqB3m8eyV/uK5T0M+U0wNtf0IaOke80don9Xy9jJzbJoNVzcs8tYqODNc
FJ7jDl2gGEfdiP60ggKdz4QGQO00b4G7DmMRLg0yGv0m3dJTzjFZqMTKVjB/n2Hx
p4PJGm84YDJaMiAir0Wu48xTWBzuDAUhKKJknm2+nJ7nXgrdjB05r0mLHp03wT/l
hhNuwQLEI2MCzht6CiryDQa86HnzUc0eZGyWxApMbP+qyRBVaH9vzVdFAv89Hvql
+AG2v6q/gs8evFBrzfLzsFe2TJVlfjw0Agi0TLsWgU0yOcaSYqN0qNGdQ7P8Hg/b
H6Mx1hgL93FD90zZHoznbHa7dhwFY5gr307m/ijidn643dM1PdFz4jXkx1ig53jk
dMb1xV1i2d4BsAmqlD+KtfkyDzvqSAZ0SEtqWVhuBWHChk/82/s0ExPWwpH4LwjJ
MO4T/e+NGT/LVVf1pjOqDZRrug43HW9YhSuUFQzRNHbBBJjb3O1zEPS5zUthZs0S
avlqq+/33jLPqXaIYmsJ99lUNGfdmb2l9VktTyR3yf1Rlyh0ALxO4bRa0OpC2dE0
c7mLP+viVxrzHShi3wO6ndSCcFI3NUsKToUMn+IzIQm4
-----END CERTIFICATE-----
