Certificate:
    Data:
        Version: 3 (0x2)
        Serial Number: 4567 (0x11d7)
    Signature Algorithm: md5WithRSAEncryption
        Issuer: C=US, ST=OH, L=Columbus, O=VikingVPN, OU=MyOrganizationalUnit, CN=VikingVPN CA/name=EasyRSA/emailAddress=me@myhost.mydomain
        Validity
            Not Before: Feb 25 23:18:55 2015 GMT
            Not After : Feb 22 23:18:55 2025 GMT
        Subject: CN=Client1481Cert12cae0
        Subject Public Key Info:
            Public Key Algorithm: rsaEncryption
                Public-Key: (4096 bit)
                Modulus:
                    00:f2:11:cf:d3:48:14:d4:61:f0:c5:91:4d:76:66:
                    df:a0:5c:1f:22:1e:bc:76:af:85:d5:27:11:77:c0:
                    64:36:00:9d:cc:78:65:d6:81:92:5f:cc:b7:66:db:
                    96:b7:d3:91:92:54:cf:a2:07:a2:1a:61:d1:c4:fe:
                    da:11:41:8b:ad:77:e3:96:a9:6c:15:d5:05:72:7b:
                    e5:6a:0d:70:51:f5:0b:0f:33:29:30:3e:49:7c:52:
                    16:33:e9:3a:55:27:97:af:01:61:5c:86:0a:ac:8d:
                    93:7e:45:b5:0f:85:0a:63:f8:9e:1b:84:44:cb:9b:
                    79:a3:37:24:90:fc:c7:81:55:35:d8:61:3f:b7:b7:
                    14:58:83:26:05:4d:34:b9:9e:d4:fb:ef:e0:da:a8:
                    ed:da:e1:ef:95:9c:4f:63:bd:f4:f0:88:f1:2e:44:
                    21:3d:1d:2c:e8:71:99:38:fc:b8:1f:20:68:25:8e:
                    e8:f1:60:40:60:e5:d4:cb:59:18:aa:57:1f:80:93:
                    eb:83:ae:88:b2:fd:01:76:98:f5:d4:26:41:7d:05:
                    30:17:14:12:74:eb:40:45:51:d3:fa:c0:af:46:f0:
                    8d:db:4c:be:b2:f7:c6:50:2f:89:11:5a:c0:68:d3:
                    9b:d0:99:b2:47:fe:4e:ad:e0:e4:ce:60:21:1c:41:
                    5f:d5:52:05:4d:71:66:c9:71:c4:43:f4:c9:8a:6e:
                    ee:da:7b:50:af:cb:05:58:58:44:de:2e:50:0f:fb:
                    64:ca:c5:3c:65:3a:5f:5e:49:97:c1:cd:da:fc:74:
                    75:c9:22:3c:87:12:e9:5a:05:9d:ee:81:80:d7:52:
                    27:f7:ef:19:82:d8:74:fd:ac:53:c8:0f:87:eb:ac:
                    33:9f:af:bf:19:c9:bd:01:95:b6:53:e9:78:61:f8:
                    d4:a9:dc:4a:01:a1:a5:29:97:e5:94:a4:94:a1:f3:
                    00:c5:8b:1c:fd:ff:14:7a:5b:4f:68:2f:05:10:ce:
                    f1:cf:bc:5e:7d:66:c5:98:93:c9:05:4a:dd:17:6f:
                    3c:04:56:c5:e9:7f:3b:40:77:68:b5:40:17:95:65:
                    03:fe:bf:2c:1f:ea:85:67:21:02:a0:f1:0f:62:20:
                    15:66:79:70:61:84:f9:8e:e4:23:ab:cc:75:1f:de:
                    32:c5:c6:2d:49:d3:7d:d3:24:fe:45:cb:e3:24:c3:
                    e0:fb:ea:5c:19:ac:3d:06:33:70:4c:54:ef:fe:37:
                    92:0c:3c:b0:97:e6:b6:50:19:15:56:3a:d2:07:c6:
                    38:05:4c:6e:ea:1a:ce:6c:be:21:e2:68:a1:92:59:
                    01:44:a3:0d:7a:5a:86:45:4b:26:b3:f6:a2:5a:75:
                    de:46:31
                Exponent: 65537 (0x10001)
        X509v3 extensions:
            X509v3 Basic Constraints: 
                CA:FALSE
            Netscape Comment: 
                Easy-RSA Generated Certificate
            X509v3 Subject Key Identifier: 
                C2:CF:73:72:61:3B:33:2F:D6:2D:90:A3:89:41:15:CC:49:D5:C0:BD
            X509v3 Authority Key Identifier: 
                keyid:12:CD:60:04:D2:A0:80:9E:70:ED:C6:99:B8:7B:2C:C6:52:FD:19:A1
                DirName:/C=US/ST=OH/L=Columbus/O=VikingVPN/OU=MyOrganizationalUnit/CN=VikingVPN CA/name=EasyRSA/emailAddress=me@myhost.mydomain
                serial:CF:35:85:EE:80:BF:2A:3E

            X509v3 Extended Key Usage: 
                TLS Web Client Authentication
            X509v3 Key Usage: 
                Digital Signature
    Signature Algorithm: md5WithRSAEncryption
         0d:ee:4e:da:86:20:db:b0:f2:ff:d2:07:c3:82:9f:12:3f:88:
         35:7f:f3:6c:2d:bb:5b:d9:74:d3:65:96:3c:10:31:37:55:ae:
         2f:4f:43:98:37:00:32:0d:2f:b4:55:9d:c5:63:c3:07:c8:c7:
         e8:7e:a9:d6:c6:42:3e:c2:ec:17:cc:5d:46:1f:e0:3c:1f:4a:
         6d:20:2e:27:ed:43:e5:24:5b:fb:93:c2:ca:3e:ea:90:df:7b:
         3f:ef:6e:d3:9d:4b:2e:f6:d7:5a:5b:cf:96:52:5d:24:91:9a:
         50:9b:cd:81:9b:6b:e4:f7:10:a0:c8:ad:41:09:37:61:92:aa:
         11:07:ce:b7:88:1d:11:9f:81:a6:b2:8e:da:57:31:03:30:6b:
         f1:ca:14:41:fc:2e:5d:47:92:ac:d4:54:7b:22:9b:03:e6:93:
         1e:18:af:9a:26:7f:85:06:af:09:cb:df:2b:b5:26:4a:59:a6:
         56:0c:ab:6a:9e:65:93:02:fd:8f:43:16:78:1f:12:fa:27:a0:
         2b:1b:96:cd:eb:b5:07:6d:06:54:c0:f0:2d:f5:52:65:d4:66:
         47:f2:da:7a:2d:68:71:7e:fb:30:a0:19:b3:a5:57:e6:25:09:
         df:ac:ec:00:73:63:b3:8a:59:ca:f4:62:f5:e6:ef:59:3f:70:
         9b:df:12:84:ba:88:cf:7f:aa:15:bc:6a:b2:41:8a:2f:3b:d9:
         6c:b7:9f:91:90:9f:2c:62:d5:1b:28:a7:4a:4d:e4:0e:8f:c1:
         2a:f9:19:54:f3:25:21:50:12:76:c7:1f:4c:30:36:58:6d:43:
         5c:8a:26:85:ba:83:60:18:ea:e3:36:a7:92:17:7a:03:55:54:
         05:2e:f5:ba:85:e0:5b:1f:44:8e:00:89:be:d1:49:63:81:3c:
         a3:42:fb:be:2a:52:09:de:f9:c7:e6:3c:60:64:e2:08:31:2c:
         80:37:14:06:62:25:78:f8:dc:68:09:41:e6:1f:65:2e:7e:ac:
         55:fc:56:1f:cc:e5:e0:44:50:c6:41:99:74:9c:e9:eb:91:3e:
         e0:91:5e:06:15:49:d9:00:f5:dc:7c:0a:71:33:5c:21:e9:6f:
         90:84:b4:85:43:9c:e1:c7:de:60:23:2a:df:b8:16:a0:f7:f0:
         ef:c0:53:25:06:31:0c:87:5c:7a:a7:6e:8f:21:06:8b:0e:63:
         7a:07:92:de:aa:21:4f:67:9f:7e:5b:68:3c:b4:ac:7f:f0:2e:
         e0:45:8f:4f:e2:96:7b:63:b2:6a:58:14:d5:68:80:3e:4c:5d:
         52:7c:43:76:5f:76:a4:de:dc:46:0e:8e:b3:0a:12:c3:7d:9e:
         0a:db:df:35:49:6b:15:46
-----BEGIN CERTIFICATE-----
MIIGrTCCBJWgAwIBAgICEdcwDQYJKoZIhvcNAQEEBQAwgawxCzAJBgNVBAYTAlVT
MQswCQYDVQQIEwJPSDERMA8GA1UEBxMIQ29sdW1idXMxEjAQBgNVBAoTCVZpa2lu
Z1ZQTjEdMBsGA1UECxMUTXlPcmdhbml6YXRpb25hbFVuaXQxFTATBgNVBAMTDFZp
a2luZ1ZQTiBDQTEQMA4GA1UEKRMHRWFzeVJTQTEhMB8GCSqGSIb3DQEJARYSbWVA
bXlob3N0Lm15ZG9tYWluMB4XDTE1MDIyNTIzMTg1NVoXDTI1MDIyMjIzMTg1NVow
HzEdMBsGA1UEAxMUQ2xpZW50MTQ4MUNlcnQxMmNhZTAwggIiMA0GCSqGSIb3DQEB
AQUAA4ICDwAwggIKAoICAQDyEc/TSBTUYfDFkU12Zt+gXB8iHrx2r4XVJxF3wGQ2
AJ3MeGXWgZJfzLdm25a305GSVM+iB6IaYdHE/toRQYutd+OWqWwV1QVye+VqDXBR
9QsPMykwPkl8UhYz6TpVJ5evAWFchgqsjZN+RbUPhQpj+J4bhETLm3mjNySQ/MeB
VTXYYT+3txRYgyYFTTS5ntT77+DaqO3a4e+VnE9jvfTwiPEuRCE9HSzocZk4/Lgf
IGgljujxYEBg5dTLWRiqVx+Ak+uDroiy/QF2mPXUJkF9BTAXFBJ060BFUdP6wK9G
8I3bTL6y98ZQL4kRWsBo05vQmbJH/k6t4OTOYCEcQV/VUgVNcWbJccRD9MmKbu7a
e1CvywVYWETeLlAP+2TKxTxlOl9eSZfBzdr8dHXJIjyHEulaBZ3ugYDXUif37xmC
2HT9rFPID4frrDOfr78Zyb0BlbZT6Xhh+NSp3EoBoaUpl+WUpJSh8wDFixz9/xR6
W09oLwUQzvHPvF59ZsWYk8kFSt0XbzwEVsXpfztAd2i1QBeVZQP+vywf6oVnIQKg
8Q9iIBVmeXBhhPmO5COrzHUf3jLFxi1J033TJP5Fy+Mkw+D76lwZrD0GM3BMVO/+
N5IMPLCX5rZQGRVWOtIHxjgFTG7qGs5sviHiaKGSWQFEow16WoZFSyaz9qJadd5G
MQIDAQABo4IBYzCCAV8wCQYDVR0TBAIwADAtBglghkgBhvhCAQ0EIBYeRWFzeS1S
U0EgR2VuZXJhdGVkIENlcnRpZmljYXRlMB0GA1UdDgQWBBTCz3NyYTszL9YtkKOJ
QRXMSdXAvTCB4QYDVR0jBIHZMIHWgBQSzWAE0qCAnnDtxpm4eyzGUv0ZoaGBsqSB
rzCBrDELMAkGA1UEBhMCVVMxCzAJBgNVBAgTAk9IMREwDwYDVQQHEwhDb2x1bWJ1
czESMBAGA1UEChMJVmlraW5nVlBOMR0wGwYDVQQLExRNeU9yZ2FuaXphdGlvbmFs
VW5pdDEVMBMGA1UEAxMMVmlraW5nVlBOIENBMRAwDgYDVQQpEwdFYXN5UlNBMSEw
HwYJKoZIhvcNAQkBFhJtZUBteWhvc3QubXlkb21haW6CCQDPNYXugL8qPjATBgNV
HSUEDDAKBggrBgEFBQcDAjALBgNVHQ8EBAMCB4AwDQYJKoZIhvcNAQEEBQADggIB
AA3uTtqGINuw8v/SB8OCnxI/iDV/82wtu1vZdNNlljwQMTdVri9PQ5g3ADINL7RV
ncVjwwfIx+h+qdbGQj7C7BfMXUYf4DwfSm0gLiftQ+UkW/uTwso+6pDfez/vbtOd
Sy7211pbz5ZSXSSRmlCbzYGba+T3EKDIrUEJN2GSqhEHzreIHRGfgaayjtpXMQMw
a/HKFEH8Ll1HkqzUVHsimwPmkx4Yr5omf4UGrwnL3yu1JkpZplYMq2qeZZMC/Y9D
FngfEvonoCsbls3rtQdtBlTA8C31UmXUZkfy2notaHF++zCgGbOlV+YlCd+s7ABz
Y7OKWcr0YvXm71k/cJvfEoS6iM9/qhW8arJBii872Wy3n5GQnyxi1Rsop0pN5A6P
wSr5GVTzJSFQEnbHH0wwNlhtQ1yKJoW6g2AY6uM2p5IXegNVVAUu9bqF4FsfRI4A
ib7RSWOBPKNC+74qUgne+cfmPGBk4ggxLIA3FAZiJXj43GgJQeYfZS5+rFX8Vh/M
5eBEUMZBmXSc6euRPuCRXgYVSdkA9dx8CnEzXCHpb5CEtIVDnOHH3mAjKt+4FqD3
8O/AUyUGMQyHXHqnbo8hBosOY3oHkt6qIU9nn35baDy0rH/wLuBFj0/ilntjsmpY
FNVogD5MXVJ8Q3ZfdqTe3EYOjrMKEsN9ngrb3zVJaxVG
-----END CERTIFICATE-----
