Certificate:
    Data:
        Version: 3 (0x2)
        Serial Number: 4581 (0x11e5)
    Signature Algorithm: md5WithRSAEncryption
        Issuer: C=US, ST=OH, L=Columbus, O=VikingVPN, OU=MyOrganizationalUnit, CN=VikingVPN CA/name=EasyRSA/emailAddress=me@myhost.mydomain
        Validity
            Not Before: Feb 27 09:57:56 2015 GMT
            Not After : Feb 24 09:57:56 2025 GMT
        Subject: CN=Client1488Certbbfde4
        Subject Public Key Info:
            Public Key Algorithm: rsaEncryption
                Public-Key: (4096 bit)
                Modulus:
                    00:af:a4:33:d9:75:b3:6f:a8:db:3b:80:d9:85:df:
                    08:89:1e:a5:7e:85:23:34:a5:01:19:6d:78:0d:b9:
                    6d:d1:31:be:81:a4:9d:dc:f1:ab:eb:87:c7:e3:10:
                    8b:6d:44:c5:f7:4b:09:6d:8b:62:b1:13:19:e3:6c:
                    9d:6f:e4:04:f1:fe:68:94:d7:0b:99:b6:c7:98:f2:
                    fe:0c:4f:d1:1b:69:7c:6b:91:3c:05:00:5c:49:10:
                    38:9e:f2:be:29:b6:40:19:e7:e1:4d:18:4a:af:88:
                    ca:1c:3b:b6:db:9a:86:34:8b:f0:5e:00:f5:6d:e9:
                    b0:ec:f6:cb:03:0f:aa:2e:c2:d3:86:0a:61:95:7b:
                    a2:5f:e8:30:f4:e5:c4:0d:bc:ef:93:96:a9:ef:16:
                    bf:73:d6:3a:28:33:6e:a1:c6:9c:90:ac:33:0a:af:
                    72:ef:b5:ed:f2:fe:2e:c3:92:23:fd:db:c2:f0:7b:
                    bd:e9:f5:5c:42:20:9a:c8:69:7f:09:0c:09:b9:a4:
                    10:31:8f:e9:86:90:ed:7d:aa:c2:8b:78:02:17:3f:
                    e1:c0:4e:dc:0c:58:df:52:cc:11:f4:62:3f:79:a3:
                    0a:77:af:06:e6:f8:c1:82:52:16:b7:93:bd:59:43:
                    64:5d:81:17:bd:5d:8f:19:7d:9a:03:72:56:23:28:
                    1a:ab:58:0b:7c:19:94:28:f7:0d:d4:3c:cc:57:24:
                    66:87:33:89:05:b8:9a:ba:f5:c4:e7:93:20:7c:f3:
                    7d:30:74:fc:95:72:f6:1c:75:49:41:ba:9b:2c:28:
                    de:49:15:08:3e:66:79:b2:c1:24:4f:26:3a:53:c0:
                    32:35:21:33:19:e3:ed:c2:6e:d0:c5:4a:7c:6f:7b:
                    8c:6c:51:f7:97:e2:60:25:21:b3:f8:f5:92:39:0a:
                    07:69:57:72:46:a9:78:e4:c6:34:49:b4:c6:35:53:
                    53:db:8a:df:e0:1f:cc:0a:0a:50:f2:67:62:c6:36:
                    a8:d4:27:75:40:d1:18:c5:29:69:54:47:36:fe:7c:
                    6c:ee:8e:85:00:93:49:2b:a9:d4:9a:c7:c1:11:2e:
                    a2:c6:20:0b:e9:97:0d:a3:5c:21:1c:3a:c6:3a:5e:
                    d5:44:ca:52:1e:28:2d:63:ba:ee:e9:b9:08:ea:d1:
                    00:45:72:65:90:d6:1a:09:b5:92:df:7b:23:e0:cd:
                    27:70:9b:2c:16:f7:87:34:0e:b2:34:aa:33:70:5e:
                    53:22:30:9c:40:86:df:7a:a5:e2:9e:49:f9:3c:48:
                    7b:9a:c9:27:4b:ae:5e:d4:37:21:95:7a:da:bb:11:
                    76:02:80:4d:d7:37:6c:3d:92:ec:3f:8f:08:e2:55:
                    ef:dc:75
                Exponent: 65537 (0x10001)
        X509v3 extensions:
            X509v3 Basic Constraints: 
                CA:FALSE
            Netscape Comment: 
                Easy-RSA Generated Certificate
            X509v3 Subject Key Identifier: 
                27:39:F7:37:C4:8C:58:3D:C8:C1:3E:F8:66:96:62:AB:FC:02:19:26
            X509v3 Authority Key Identifier: 
                keyid:12:CD:60:04:D2:A0:80:9E:70:ED:C6:99:B8:7B:2C:C6:52:FD:19:A1
                DirName:/C=US/ST=OH/L=Columbus/O=VikingVPN/OU=MyOrganizationalUnit/CN=VikingVPN CA/name=EasyRSA/emailAddress=me@myhost.mydomain
                serial:CF:35:85:EE:80:BF:2A:3E

            X509v3 Extended Key Usage: 
                TLS Web Client Authentication
            X509v3 Key Usage: 
                Digital Signature
    Signature Algorithm: md5WithRSAEncryption
         9f:73:10:1e:43:5b:1b:b9:91:a3:75:42:5e:22:88:e5:16:3b:
         0a:91:66:9d:7b:6b:5a:59:b4:26:d4:19:cc:c7:bb:62:6d:67:
         60:fb:1e:3a:5c:1c:6d:6a:da:96:ef:3d:60:84:5f:31:03:e5:
         f9:8f:20:fa:64:29:4c:50:11:e0:40:26:05:a7:ab:08:c1:d0:
         e5:76:b0:f1:1f:b7:bc:c2:71:f5:af:c7:67:f4:90:7e:4e:c8:
         d4:8a:5a:1f:31:3f:44:7e:4c:62:c3:0d:3e:e6:c1:93:c1:f4:
         ba:79:31:d7:33:a0:c5:15:56:aa:57:b3:99:f9:0e:4d:08:89:
         41:b6:9f:5b:b7:37:ca:c4:2a:7d:50:c9:06:6a:eb:b6:e8:8b:
         96:c6:d1:65:2c:21:87:57:81:90:98:9e:c0:b3:32:45:c8:84:
         94:bb:2f:7f:d8:46:43:cc:99:9e:ce:fb:1d:76:65:93:c8:58:
         76:71:4a:cd:3c:d5:60:d0:c2:91:c4:bc:cd:f6:9c:b1:d9:cb:
         f8:b8:b5:a4:30:f9:19:6b:df:1d:75:6c:42:8d:35:3b:39:8e:
         69:94:ab:0a:cd:f9:1d:f4:b4:ac:2c:aa:25:ca:fb:9f:d4:e2:
         8d:7b:12:ee:0d:13:47:cd:26:82:4f:64:8d:a6:de:99:5c:ea:
         e3:89:67:fc:13:42:67:71:3e:85:9b:85:fb:44:c0:af:b6:61:
         e3:f9:00:a1:26:0a:72:a8:43:dc:e2:0f:5d:6b:68:d8:12:76:
         1c:08:d6:f9:9d:d5:63:99:61:30:22:ca:d1:d3:97:66:96:69:
         7c:fa:e7:c0:19:9c:da:aa:ea:55:c8:d8:de:d6:38:59:14:90:
         ea:02:fc:62:ab:e8:98:a7:47:ba:1f:ce:11:a3:7a:fc:ac:31:
         33:a7:5e:9d:a5:83:1e:f8:51:9e:83:93:75:4e:07:55:77:fd:
         42:8d:00:0b:68:7e:51:85:61:07:e7:d7:d4:51:94:4c:51:a5:
         bb:99:4a:9f:5a:5f:80:ae:f6:46:ab:40:98:8c:ff:0e:60:d6:
         f9:44:e6:fe:ff:5b:89:ac:8c:eb:de:09:5a:3f:c3:6d:86:80:
         40:27:ab:d8:e7:60:10:a4:f9:d2:2e:86:8f:e8:21:df:7e:ee:
         4b:8f:ea:ac:21:55:08:fe:e7:f1:90:11:41:81:73:5f:3a:c3:
         36:18:08:e8:1f:38:f4:a1:c2:3f:2a:9d:39:05:f1:d4:49:f1:
         87:05:ff:1f:36:05:f0:84:6d:50:69:51:de:7b:15:48:0a:c0:
         fe:e4:4b:af:54:e5:fc:2c:8b:09:bc:26:f4:e2:14:e5:00:de:
         c1:87:f1:64:7e:a7:82:a4
-----BEGIN CERTIFICATE-----
MIIGrTCCBJWgAwIBAgICEeUwDQYJKoZIhvcNAQEEBQAwgawxCzAJBgNVBAYTAlVT
MQswCQYDVQQIEwJPSDERMA8GA1UEBxMIQ29sdW1idXMxEjAQBgNVBAoTCVZpa2lu
Z1ZQTjEdMBsGA1UECxMUTXlPcmdhbml6YXRpb25hbFVuaXQxFTATBgNVBAMTDFZp
a2luZ1ZQTiBDQTEQMA4GA1UEKRMHRWFzeVJTQTEhMB8GCSqGSIb3DQEJARYSbWVA
bXlob3N0Lm15ZG9tYWluMB4XDTE1MDIyNzA5NTc1NloXDTI1MDIyNDA5NTc1Nlow
HzEdMBsGA1UEAxMUQ2xpZW50MTQ4OENlcnRiYmZkZTQwggIiMA0GCSqGSIb3DQEB
AQUAA4ICDwAwggIKAoICAQCvpDPZdbNvqNs7gNmF3wiJHqV+hSM0pQEZbXgNuW3R
Mb6BpJ3c8avrh8fjEIttRMX3Swlti2KxExnjbJ1v5ATx/miU1wuZtseY8v4MT9Eb
aXxrkTwFAFxJEDie8r4ptkAZ5+FNGEqviMocO7bbmoY0i/BeAPVt6bDs9ssDD6ou
wtOGCmGVe6Jf6DD05cQNvO+TlqnvFr9z1jooM26hxpyQrDMKr3Lvte3y/i7DkiP9
28Lwe73p9VxCIJrIaX8JDAm5pBAxj+mGkO19qsKLeAIXP+HATtwMWN9SzBH0Yj95
owp3rwbm+MGCUha3k71ZQ2RdgRe9XY8ZfZoDclYjKBqrWAt8GZQo9w3UPMxXJGaH
M4kFuJq69cTnkyB8830wdPyVcvYcdUlBupssKN5JFQg+ZnmywSRPJjpTwDI1ITMZ
4+3CbtDFSnxve4xsUfeX4mAlIbP49ZI5CgdpV3JGqXjkxjRJtMY1U1Pbit/gH8wK
ClDyZ2LGNqjUJ3VA0RjFKWlURzb+fGzujoUAk0krqdSax8ERLqLGIAvplw2jXCEc
OsY6XtVEylIeKC1juu7puQjq0QBFcmWQ1hoJtZLfeyPgzSdwmywW94c0DrI0qjNw
XlMiMJxAht96peKeSfk8SHuaySdLrl7UNyGVetq7EXYCgE3XN2w9kuw/jwjiVe/c
dQIDAQABo4IBYzCCAV8wCQYDVR0TBAIwADAtBglghkgBhvhCAQ0EIBYeRWFzeS1S
U0EgR2VuZXJhdGVkIENlcnRpZmljYXRlMB0GA1UdDgQWBBQnOfc3xIxYPcjBPvhm
lmKr/AIZJjCB4QYDVR0jBIHZMIHWgBQSzWAE0qCAnnDtxpm4eyzGUv0ZoaGBsqSB
rzCBrDELMAkGA1UEBhMCVVMxCzAJBgNVBAgTAk9IMREwDwYDVQQHEwhDb2x1bWJ1
czESMBAGA1UEChMJVmlraW5nVlBOMR0wGwYDVQQLExRNeU9yZ2FuaXphdGlvbmFs
VW5pdDEVMBMGA1UEAxMMVmlraW5nVlBOIENBMRAwDgYDVQQpEwdFYXN5UlNBMSEw
HwYJKoZIhvcNAQkBFhJtZUBteWhvc3QubXlkb21haW6CCQDPNYXugL8qPjATBgNV
HSUEDDAKBggrBgEFBQcDAjALBgNVHQ8EBAMCB4AwDQYJKoZIhvcNAQEEBQADggIB
AJ9zEB5DWxu5kaN1Ql4iiOUWOwqRZp17a1pZtCbUGczHu2JtZ2D7HjpcHG1q2pbv
PWCEXzED5fmPIPpkKUxQEeBAJgWnqwjB0OV2sPEft7zCcfWvx2f0kH5OyNSKWh8x
P0R+TGLDDT7mwZPB9Lp5MdczoMUVVqpXs5n5Dk0IiUG2n1u3N8rEKn1QyQZq67bo
i5bG0WUsIYdXgZCYnsCzMkXIhJS7L3/YRkPMmZ7O+x12ZZPIWHZxSs081WDQwpHE
vM32nLHZy/i4taQw+Rlr3x11bEKNNTs5jmmUqwrN+R30tKwsqiXK+5/U4o17Eu4N
E0fNJoJPZI2m3plc6uOJZ/wTQmdxPoWbhftEwK+2YeP5AKEmCnKoQ9ziD11raNgS
dhwI1vmd1WOZYTAiytHTl2aWaXz658AZnNqq6lXI2N7WOFkUkOoC/GKr6JinR7of
zhGjevysMTOnXp2lgx74UZ6Dk3VOB1V3/UKNAAtoflGFYQfn19RRlExRpbuZSp9a
X4Cu9karQJiM/w5g1vlE5v7/W4msjOveCVo/w22GgEAnq9jnYBCk+dIuho/oId9+
7kuP6qwhVQj+5/GQEUGBc186wzYYCOgfOPShwj8qnTkF8dRJ8YcF/x82BfCEbVBp
Ud57FUgKwP7kS69U5fwsiwm8JvTiFOUA3sGH8WR+p4Kk
-----END CERTIFICATE-----
