Certificate:
    Data:
        Version: 3 (0x2)
        Serial Number: 4591 (0x11ef)
    Signature Algorithm: md5WithRSAEncryption
        Issuer: C=US, ST=OH, L=Columbus, O=VikingVPN, OU=MyOrganizationalUnit, CN=VikingVPN CA/name=EasyRSA/emailAddress=me@myhost.mydomain
        Validity
            Not Before: Feb 27 23:16:18 2015 GMT
            Not After : Feb 24 23:16:18 2025 GMT
        Subject: CN=Client1489Certb1cca2
        Subject Public Key Info:
            Public Key Algorithm: rsaEncryption
                Public-Key: (4096 bit)
                Modulus:
                    00:c0:90:03:c8:cd:33:a5:6b:a4:94:9e:17:9d:d7:
                    83:bc:8a:b8:30:19:df:4a:0d:dd:87:30:a3:a2:20:
                    43:62:11:f1:01:3d:d9:df:ff:27:93:19:30:43:20:
                    65:c1:11:d9:2c:ff:f6:0b:b0:b5:57:a3:35:d1:47:
                    fb:08:3e:33:64:92:1b:8c:77:5f:98:b5:0a:7e:b1:
                    2a:65:63:46:fe:92:59:50:08:f5:10:49:3c:7e:d2:
                    1b:33:0b:3c:e7:fe:22:47:b6:4d:58:bb:bd:5a:d9:
                    82:b6:54:10:a7:07:35:71:9e:6a:2a:a2:df:dc:ce:
                    df:76:14:3a:c5:22:31:e5:3a:76:8c:30:5b:94:46:
                    5a:90:c1:f4:fa:55:13:cc:1c:4e:fa:6b:ae:5e:87:
                    e0:5c:30:cf:22:62:17:0c:0b:d7:99:09:c6:3a:8a:
                    56:cd:da:87:06:63:81:52:b5:ea:02:36:f2:c0:62:
                    5e:41:1d:25:ea:23:3a:0e:65:cf:8f:bf:dd:a2:14:
                    4b:1a:c4:3a:97:f1:24:f7:32:bd:17:43:ce:02:6a:
                    57:7e:c5:85:15:08:4d:4a:4c:f9:e0:13:d1:67:bf:
                    12:7d:56:fd:31:86:5d:ea:05:c1:c0:db:54:a4:f5:
                    ad:91:96:db:9d:d9:45:da:af:8a:1e:1f:3d:1a:8d:
                    5b:1e:32:2b:5a:73:ad:81:34:b9:cf:80:61:c2:a9:
                    e0:81:20:a5:56:95:b9:ad:09:7d:4e:24:12:34:5c:
                    9a:45:89:45:ce:5c:d1:14:eb:2b:d6:58:44:99:ac:
                    ed:f7:e1:28:af:34:ab:47:ee:eb:1e:d5:c7:c6:e8:
                    1b:4a:be:b3:6f:40:65:03:43:6e:7c:7f:a9:28:b8:
                    80:6d:73:5b:ab:eb:4c:b4:3b:bb:e5:5b:dc:03:e1:
                    ca:2c:ad:30:5e:d0:5f:c9:95:c0:4c:94:e9:cc:d5:
                    30:21:42:ee:e5:19:03:44:c1:bc:63:38:e4:3b:f9:
                    80:6a:47:cb:ad:40:aa:dc:fb:ad:0b:1e:8e:b7:91:
                    c4:a7:f9:77:4c:f0:6a:f6:8e:22:25:ca:8c:3b:28:
                    ff:4b:1e:1c:3a:8c:14:f6:dc:49:0c:f0:f0:44:e1:
                    5c:a8:0f:eb:ad:c4:45:a7:8c:a4:46:2b:23:97:de:
                    35:a7:f7:ba:16:37:c0:82:65:95:2c:95:bc:1b:a7:
                    ba:45:c2:39:37:4d:d8:30:d9:fb:e8:ed:0e:fd:4a:
                    5a:73:d2:74:da:ee:85:a6:fd:7c:eb:d0:23:d8:16:
                    10:8b:9e:74:23:41:39:31:ce:18:95:6f:6d:fb:70:
                    64:97:f2:cb:14:e6:99:cc:73:93:73:82:72:58:5f:
                    85:b5:b9
                Exponent: 65537 (0x10001)
        X509v3 extensions:
            X509v3 Basic Constraints: 
                CA:FALSE
            Netscape Comment: 
                Easy-RSA Generated Certificate
            X509v3 Subject Key Identifier: 
                6C:C6:06:A7:69:E0:23:11:84:39:A2:8C:41:E5:22:81:C7:DA:3F:91
            X509v3 Authority Key Identifier: 
                keyid:12:CD:60:04:D2:A0:80:9E:70:ED:C6:99:B8:7B:2C:C6:52:FD:19:A1
                DirName:/C=US/ST=OH/L=Columbus/O=VikingVPN/OU=MyOrganizationalUnit/CN=VikingVPN CA/name=EasyRSA/emailAddress=me@myhost.mydomain
                serial:CF:35:85:EE:80:BF:2A:3E

            X509v3 Extended Key Usage: 
                TLS Web Client Authentication
            X509v3 Key Usage: 
                Digital Signature
    Signature Algorithm: md5WithRSAEncryption
         42:a4:4f:90:ae:93:1a:b8:45:07:8d:2f:61:df:b2:bd:4c:22:
         dc:7d:c1:29:86:21:0f:c1:48:fa:c5:43:bf:9d:c3:33:5b:b1:
         e6:af:0d:6d:62:b7:90:07:26:07:3a:56:76:64:48:93:c6:ff:
         88:f2:26:e7:94:ef:84:79:b1:b9:d3:b8:41:57:2a:17:04:a0:
         5d:7c:31:49:47:16:f8:61:2b:02:8b:3f:d4:6f:0c:11:d6:1d:
         f3:b5:ca:06:28:45:06:76:3f:d2:02:d6:95:c0:45:0f:1e:d6:
         9c:9e:76:d2:22:9a:c7:30:a3:b4:82:4b:9e:c0:f2:b6:77:f5:
         5d:48:65:54:1f:8f:46:2b:d7:7e:5b:49:9d:a2:6c:1d:7d:25:
         ed:01:b3:c9:e1:30:a3:ee:87:48:dd:fe:59:9d:5d:57:1b:95:
         d6:9d:7b:5a:d5:8d:fe:07:fb:fa:12:26:9a:b2:26:71:f3:f3:
         cc:fb:73:4e:52:01:13:52:49:95:b0:c0:db:98:91:a7:bc:e6:
         03:5d:f5:1f:36:7f:a2:95:90:04:d3:47:e0:04:e4:8c:2f:85:
         68:cc:e8:65:6e:e0:87:89:1a:0b:d4:ee:b5:81:04:be:4a:4e:
         c9:88:08:73:3b:a8:9d:9e:df:4c:55:55:3d:82:03:3a:10:fa:
         30:d1:ad:f4:dc:17:3d:05:5e:2b:46:0e:f9:3e:b2:06:21:08:
         a5:03:57:45:cd:2c:7b:83:0e:af:e4:7f:3c:b5:52:15:ba:e5:
         c5:eb:9a:c6:0c:2e:84:8c:2c:46:b7:30:93:29:f1:ee:fa:b2:
         96:57:dc:3e:af:93:72:71:65:4c:ca:2e:3b:8e:4c:59:06:2e:
         12:1c:7c:92:56:3e:36:ad:53:15:b3:06:1b:62:e2:93:db:44:
         f5:a2:b3:b1:76:8f:ce:41:61:0d:8c:2d:c9:b0:03:17:dc:87:
         af:61:33:08:a5:54:92:d1:a3:e3:1e:71:5b:b1:df:38:fe:9a:
         db:43:d0:75:28:1c:28:99:bb:0e:27:a4:cc:9c:54:d7:57:4f:
         1a:17:5a:d2:d3:2e:ed:60:bd:fd:54:dc:5a:05:67:2c:c6:07:
         4e:8b:7a:93:89:5d:f7:e9:e5:43:f7:31:50:16:f3:1f:7c:d5:
         b6:0a:60:36:2d:b7:42:d3:56:9e:f8:f6:69:9d:0e:76:c6:28:
         d2:7f:a4:42:a7:b5:3d:bb:fb:fb:8c:bc:d4:a8:af:30:c7:d7:
         46:aa:11:cc:83:4a:ac:f1:6e:fb:b0:68:6e:ae:8e:1b:f5:60:
         93:5b:0f:75:53:75:85:cf:75:88:34:c6:3d:f9:34:33:66:f5:
         02:02:ba:73:0c:5f:28:40
-----BEGIN CERTIFICATE-----
MIIGrTCCBJWgAwIBAgICEe8wDQYJKoZIhvcNAQEEBQAwgawxCzAJBgNVBAYTAlVT
MQswCQYDVQQIEwJPSDERMA8GA1UEBxMIQ29sdW1idXMxEjAQBgNVBAoTCVZpa2lu
Z1ZQTjEdMBsGA1UECxMUTXlPcmdhbml6YXRpb25hbFVuaXQxFTATBgNVBAMTDFZp
a2luZ1ZQTiBDQTEQMA4GA1UEKRMHRWFzeVJTQTEhMB8GCSqGSIb3DQEJARYSbWVA
bXlob3N0Lm15ZG9tYWluMB4XDTE1MDIyNzIzMTYxOFoXDTI1MDIyNDIzMTYxOFow
HzEdMBsGA1UEAxMUQ2xpZW50MTQ4OUNlcnRiMWNjYTIwggIiMA0GCSqGSIb3DQEB
AQUAA4ICDwAwggIKAoICAQDAkAPIzTOla6SUnhed14O8irgwGd9KDd2HMKOiIENi
EfEBPdnf/yeTGTBDIGXBEdks//YLsLVXozXRR/sIPjNkkhuMd1+YtQp+sSplY0b+
kllQCPUQSTx+0hszCzzn/iJHtk1Yu71a2YK2VBCnBzVxnmoqot/czt92FDrFIjHl
OnaMMFuURlqQwfT6VRPMHE76a65eh+BcMM8iYhcMC9eZCcY6ilbN2ocGY4FSteoC
NvLAYl5BHSXqIzoOZc+Pv92iFEsaxDqX8ST3Mr0XQ84Cald+xYUVCE1KTPngE9Fn
vxJ9Vv0xhl3qBcHA21Sk9a2Rltud2UXar4oeHz0ajVseMitac62BNLnPgGHCqeCB
IKVWlbmtCX1OJBI0XJpFiUXOXNEU6yvWWESZrO334SivNKtH7use1cfG6BtKvrNv
QGUDQ258f6kouIBtc1ur60y0O7vlW9wD4cosrTBe0F/JlcBMlOnM1TAhQu7lGQNE
wbxjOOQ7+YBqR8utQKrc+60LHo63kcSn+XdM8Gr2jiIlyow7KP9LHhw6jBT23EkM
8PBE4VyoD+utxEWnjKRGKyOX3jWn97oWN8CCZZUslbwbp7pFwjk3Tdgw2fvo7Q79
Slpz0nTa7oWm/Xzr0CPYFhCLnnQjQTkxzhiVb237cGSX8ssU5pnMc5NzgnJYX4W1
uQIDAQABo4IBYzCCAV8wCQYDVR0TBAIwADAtBglghkgBhvhCAQ0EIBYeRWFzeS1S
U0EgR2VuZXJhdGVkIENlcnRpZmljYXRlMB0GA1UdDgQWBBRsxganaeAjEYQ5ooxB
5SKBx9o/kTCB4QYDVR0jBIHZMIHWgBQSzWAE0qCAnnDtxpm4eyzGUv0ZoaGBsqSB
rzCBrDELMAkGA1UEBhMCVVMxCzAJBgNVBAgTAk9IMREwDwYDVQQHEwhDb2x1bWJ1
czESMBAGA1UEChMJVmlraW5nVlBOMR0wGwYDVQQLExRNeU9yZ2FuaXphdGlvbmFs
VW5pdDEVMBMGA1UEAxMMVmlraW5nVlBOIENBMRAwDgYDVQQpEwdFYXN5UlNBMSEw
HwYJKoZIhvcNAQkBFhJtZUBteWhvc3QubXlkb21haW6CCQDPNYXugL8qPjATBgNV
HSUEDDAKBggrBgEFBQcDAjALBgNVHQ8EBAMCB4AwDQYJKoZIhvcNAQEEBQADggIB
AEKkT5Cukxq4RQeNL2Hfsr1MItx9wSmGIQ/BSPrFQ7+dwzNbseavDW1it5AHJgc6
VnZkSJPG/4jyJueU74R5sbnTuEFXKhcEoF18MUlHFvhhKwKLP9RvDBHWHfO1ygYo
RQZ2P9IC1pXARQ8e1pyedtIimscwo7SCS57A8rZ39V1IZVQfj0Yr135bSZ2ibB19
Je0Bs8nhMKPuh0jd/lmdXVcbldade1rVjf4H+/oSJpqyJnHz88z7c05SARNSSZWw
wNuYkae85gNd9R82f6KVkATTR+AE5IwvhWjM6GVu4IeJGgvU7rWBBL5KTsmICHM7
qJ2e30xVVT2CAzoQ+jDRrfTcFz0FXitGDvk+sgYhCKUDV0XNLHuDDq/kfzy1UhW6
5cXrmsYMLoSMLEa3MJMp8e76spZX3D6vk3JxZUzKLjuOTFkGLhIcfJJWPjatUxWz
Bhti4pPbRPWis7F2j85BYQ2MLcmwAxfch69hMwilVJLRo+MecVux3zj+mttD0HUo
HCiZuw4npMycVNdXTxoXWtLTLu1gvf1U3FoFZyzGB06LepOJXffp5UP3MVAW8x98
1bYKYDYtt0LTVp749mmdDnbGKNJ/pEKntT27+/uMvNSorzDH10aqEcyDSqzxbvuw
aG6ujhv1YJNbD3VTdYXPdYg0xj35NDNm9QICunMMXyhA
-----END CERTIFICATE-----
