Certificate:
    Data:
        Version: 3 (0x2)
        Serial Number: 4614 (0x1206)
    Signature Algorithm: md5WithRSAEncryption
        Issuer: C=US, ST=OH, L=Columbus, O=VikingVPN, OU=MyOrganizationalUnit, CN=VikingVPN CA/name=EasyRSA/emailAddress=me@myhost.mydomain
        Validity
            Not Before: Feb 28 21:15:20 2015 GMT
            Not After : Feb 25 21:15:20 2025 GMT
        Subject: CN=Client1495Certb7e895
        Subject Public Key Info:
            Public Key Algorithm: rsaEncryption
                Public-Key: (4096 bit)
                Modulus:
                    00:e0:b8:30:c4:f0:f9:33:d1:fc:59:91:b6:dd:9e:
                    99:58:35:7f:11:b3:a8:5d:6d:dd:2d:20:c2:73:b3:
                    c0:d3:2e:d4:95:81:62:67:03:f6:75:f3:2c:82:dd:
                    fd:2d:ad:e2:f3:fb:93:67:8b:4d:f7:90:12:24:e7:
                    31:96:36:d5:3a:eb:c1:f6:22:5c:5f:50:46:15:cc:
                    06:c1:ae:fe:60:42:03:36:8f:cc:20:e4:dd:b6:17:
                    05:b0:ed:09:76:b8:ae:5c:56:2f:1e:64:d1:b4:9e:
                    44:d7:c9:f3:6e:bb:ba:7a:75:43:0e:b5:51:69:5b:
                    dd:0e:a5:2a:8b:da:5c:c6:55:d0:84:03:88:32:8b:
                    3a:c0:a5:b6:77:6f:0f:11:58:2a:2a:00:eb:de:17:
                    7c:22:1e:77:1f:29:dd:07:a7:3c:68:88:e1:c0:40:
                    94:4b:ae:a4:9b:9e:03:23:86:11:f4:84:b9:55:25:
                    51:b9:67:66:2e:ed:0b:3f:f8:9e:bb:36:d6:68:d7:
                    a0:f4:87:5b:9b:d2:85:e4:12:87:a3:43:ad:9f:5d:
                    ba:9b:28:fa:9a:76:3d:c7:f8:c4:58:07:a6:d9:81:
                    9c:42:a1:b8:8b:69:7b:9a:90:b5:b3:79:3a:99:5b:
                    17:ba:ee:5f:fa:f8:45:58:08:3d:37:de:d3:fe:47:
                    1d:2e:80:4b:0c:04:b6:1e:3c:22:a1:a5:f2:8e:e8:
                    08:a6:bf:42:4f:06:bf:72:f0:00:5a:e2:4a:09:06:
                    31:e1:b4:e1:b6:73:6e:f5:cb:55:46:61:82:0b:1b:
                    e3:83:8a:dd:90:34:ac:78:fd:ae:86:71:5c:83:5f:
                    4d:f0:09:3a:dd:df:54:90:35:91:6e:63:c2:33:9a:
                    68:13:95:e2:63:cd:b5:eb:d3:4f:b2:0b:25:c7:93:
                    08:71:c7:fa:12:d9:00:62:18:ea:06:15:c5:50:a0:
                    3a:ec:6f:fc:b1:a1:62:9c:78:1b:ad:d5:18:30:19:
                    d3:66:8a:54:98:f3:31:7b:b9:e8:1e:ee:27:25:92:
                    7d:a8:53:90:fe:8f:99:9d:09:73:fc:b2:ee:ec:d8:
                    cc:73:ae:b2:27:f5:51:ac:fb:ef:2e:15:70:ee:2c:
                    ab:e8:a6:a1:81:e0:9f:24:d7:91:be:54:6f:59:b5:
                    73:e9:a9:6f:ef:93:68:9e:6c:b6:6d:35:79:f9:d8:
                    b1:25:34:63:58:0c:d4:09:53:84:ae:88:68:13:ef:
                    51:f1:64:2a:83:94:c6:00:e3:b0:41:dd:82:dc:66:
                    9b:16:bc:84:c4:8b:c5:17:c2:e6:72:c8:68:2c:cf:
                    c5:d3:b5:18:b5:b8:c1:56:c2:49:c4:7a:a7:b1:dc:
                    f8:f8:37
                Exponent: 65537 (0x10001)
        X509v3 extensions:
            X509v3 Basic Constraints: 
                CA:FALSE
            Netscape Comment: 
                Easy-RSA Generated Certificate
            X509v3 Subject Key Identifier: 
                F5:FD:C3:4F:01:A3:83:1C:90:AC:64:CF:DC:D4:24:84:23:B2:58:09
            X509v3 Authority Key Identifier: 
                keyid:12:CD:60:04:D2:A0:80:9E:70:ED:C6:99:B8:7B:2C:C6:52:FD:19:A1
                DirName:/C=US/ST=OH/L=Columbus/O=VikingVPN/OU=MyOrganizationalUnit/CN=VikingVPN CA/name=EasyRSA/emailAddress=me@myhost.mydomain
                serial:CF:35:85:EE:80:BF:2A:3E

            X509v3 Extended Key Usage: 
                TLS Web Client Authentication
            X509v3 Key Usage: 
                Digital Signature
    Signature Algorithm: md5WithRSAEncryption
         41:2d:f3:8b:64:f8:1d:85:96:72:d2:ea:85:a7:c2:2a:f7:70:
         24:ae:ea:d3:08:51:48:c9:19:64:49:c2:a5:b0:1a:ab:4b:1f:
         19:48:2c:f1:4c:6c:a0:98:0c:10:63:d3:74:79:56:3e:66:82:
         99:95:17:24:82:22:0c:1f:6e:25:12:a1:05:43:86:a6:d0:aa:
         35:c8:73:05:43:ee:74:62:48:52:f6:4b:0f:cb:f3:12:7b:16:
         a7:4e:a3:27:16:90:d6:7d:69:2b:a1:5d:0a:a9:e5:1d:e1:fa:
         4e:c2:82:29:42:18:41:3a:5e:9d:f5:64:61:26:33:98:fe:fe:
         6e:49:d0:e8:41:c8:77:62:a1:ee:a0:cb:70:c4:d6:f4:91:5f:
         47:37:37:ea:78:08:e4:3f:50:2d:a8:67:81:0b:5f:ed:b9:6c:
         df:a8:0e:cf:35:92:fc:81:00:b4:4b:4c:5e:56:93:87:b6:20:
         ba:d9:29:08:d8:55:95:ca:f9:1a:72:05:b7:53:83:05:5d:7f:
         8e:1a:91:a7:26:72:ce:e9:fa:a8:ee:e5:c7:9d:91:b9:93:9a:
         b5:15:f3:e2:c4:00:95:6e:ba:86:fd:5f:1f:d8:08:77:3e:cf:
         f4:49:16:69:a1:59:d7:38:96:98:f5:d6:14:10:f1:02:f2:6c:
         4c:b3:ad:08:c1:cc:48:17:b8:09:9b:06:cc:e1:44:72:e3:48:
         99:ca:63:ee:b5:92:82:93:80:1f:fc:ea:ef:6f:6b:e9:9c:69:
         d7:f0:0b:91:c6:c7:3b:a2:7d:c2:5c:45:ff:9b:b7:2b:4f:9a:
         dc:7d:6c:7a:6f:31:4c:22:4f:9f:c9:2a:39:87:ff:de:b4:fa:
         cc:02:57:29:78:e6:c5:1b:7d:7f:aa:ed:ea:15:44:85:bb:e2:
         80:c9:06:b0:0d:dc:ec:47:74:4b:94:d6:d0:ae:21:d1:1e:93:
         e8:d9:64:82:5e:44:cc:33:b5:5f:59:b0:1d:a8:c2:46:5e:b6:
         a9:45:eb:3a:c9:ba:31:ce:97:ce:27:8d:67:8c:30:c9:ca:f5:
         ff:84:a4:7f:64:6d:74:b6:6b:f4:4d:43:d1:23:0b:11:c5:28:
         31:0f:e9:93:12:45:b0:1a:ed:11:b0:d0:d1:88:23:4e:40:57:
         83:c9:6f:4a:af:8d:3a:10:e4:93:b0:44:b6:ed:83:16:41:ab:
         92:34:92:74:cc:43:35:44:c0:60:42:76:a1:42:61:11:9b:2a:
         25:fc:3a:b7:33:07:c1:fd:0f:79:fd:88:09:8c:03:9d:2f:c7:
         8b:e7:da:98:ec:0b:e6:56:4a:cc:aa:16:27:83:b8:ab:e4:13:
         3d:5b:7b:a5:03:49:af:e4
-----BEGIN CERTIFICATE-----
MIIGrTCCBJWgAwIBAgICEgYwDQYJKoZIhvcNAQEEBQAwgawxCzAJBgNVBAYTAlVT
MQswCQYDVQQIEwJPSDERMA8GA1UEBxMIQ29sdW1idXMxEjAQBgNVBAoTCVZpa2lu
Z1ZQTjEdMBsGA1UECxMUTXlPcmdhbml6YXRpb25hbFVuaXQxFTATBgNVBAMTDFZp
a2luZ1ZQTiBDQTEQMA4GA1UEKRMHRWFzeVJTQTEhMB8GCSqGSIb3DQEJARYSbWVA
bXlob3N0Lm15ZG9tYWluMB4XDTE1MDIyODIxMTUyMFoXDTI1MDIyNTIxMTUyMFow
HzEdMBsGA1UEAxMUQ2xpZW50MTQ5NUNlcnRiN2U4OTUwggIiMA0GCSqGSIb3DQEB
AQUAA4ICDwAwggIKAoICAQDguDDE8Pkz0fxZkbbdnplYNX8Rs6hdbd0tIMJzs8DT
LtSVgWJnA/Z18yyC3f0treLz+5Nni033kBIk5zGWNtU668H2IlxfUEYVzAbBrv5g
QgM2j8wg5N22FwWw7Ql2uK5cVi8eZNG0nkTXyfNuu7p6dUMOtVFpW90OpSqL2lzG
VdCEA4gyizrApbZ3bw8RWCoqAOveF3wiHncfKd0HpzxoiOHAQJRLrqSbngMjhhH0
hLlVJVG5Z2Yu7Qs/+J67NtZo16D0h1ub0oXkEoejQ62fXbqbKPqadj3H+MRYB6bZ
gZxCobiLaXuakLWzeTqZWxe67l/6+EVYCD033tP+Rx0ugEsMBLYePCKhpfKO6Aim
v0JPBr9y8ABa4koJBjHhtOG2c271y1VGYYILG+ODit2QNKx4/a6GcVyDX03wCTrd
31SQNZFuY8IzmmgTleJjzbXr00+yCyXHkwhxx/oS2QBiGOoGFcVQoDrsb/yxoWKc
eBut1RgwGdNmilSY8zF7uege7iclkn2oU5D+j5mdCXP8su7s2MxzrrIn9VGs++8u
FXDuLKvopqGB4J8k15G+VG9ZtXPpqW/vk2iebLZtNXn52LElNGNYDNQJU4SuiGgT
71HxZCqDlMYA47BB3YLcZpsWvITEi8UXwuZyyGgsz8XTtRi1uMFWwknEeqex3Pj4
NwIDAQABo4IBYzCCAV8wCQYDVR0TBAIwADAtBglghkgBhvhCAQ0EIBYeRWFzeS1S
U0EgR2VuZXJhdGVkIENlcnRpZmljYXRlMB0GA1UdDgQWBBT1/cNPAaODHJCsZM/c
1CSEI7JYCTCB4QYDVR0jBIHZMIHWgBQSzWAE0qCAnnDtxpm4eyzGUv0ZoaGBsqSB
rzCBrDELMAkGA1UEBhMCVVMxCzAJBgNVBAgTAk9IMREwDwYDVQQHEwhDb2x1bWJ1
czESMBAGA1UEChMJVmlraW5nVlBOMR0wGwYDVQQLExRNeU9yZ2FuaXphdGlvbmFs
VW5pdDEVMBMGA1UEAxMMVmlraW5nVlBOIENBMRAwDgYDVQQpEwdFYXN5UlNBMSEw
HwYJKoZIhvcNAQkBFhJtZUBteWhvc3QubXlkb21haW6CCQDPNYXugL8qPjATBgNV
HSUEDDAKBggrBgEFBQcDAjALBgNVHQ8EBAMCB4AwDQYJKoZIhvcNAQEEBQADggIB
AEEt84tk+B2FlnLS6oWnwir3cCSu6tMIUUjJGWRJwqWwGqtLHxlILPFMbKCYDBBj
03R5Vj5mgpmVFySCIgwfbiUSoQVDhqbQqjXIcwVD7nRiSFL2Sw/L8xJ7FqdOoycW
kNZ9aSuhXQqp5R3h+k7CgilCGEE6Xp31ZGEmM5j+/m5J0OhByHdioe6gy3DE1vSR
X0c3N+p4COQ/UC2oZ4ELX+25bN+oDs81kvyBALRLTF5Wk4e2ILrZKQjYVZXK+Rpy
BbdTgwVdf44akacmcs7p+qju5cedkbmTmrUV8+LEAJVuuob9Xx/YCHc+z/RJFmmh
Wdc4lpj11hQQ8QLybEyzrQjBzEgXuAmbBszhRHLjSJnKY+61koKTgB/86u9va+mc
adfwC5HGxzuifcJcRf+btytPmtx9bHpvMUwiT5/JKjmH/960+swCVyl45sUbfX+q
7eoVRIW74oDJBrAN3OxHdEuU1tCuIdEek+jZZIJeRMwztV9ZsB2owkZetqlF6zrJ
ujHOl84njWeMMMnK9f+EpH9kbXS2a/RNQ9EjCxHFKDEP6ZMSRbAa7RGw0NGII05A
V4PJb0qvjToQ5JOwRLbtgxZBq5I0knTMQzVEwGBCdqFCYRGbKiX8OrczB8H9D3n9
iAmMA50vx4vn2pjsC+ZWSsyqFieDuKvkEz1be6UDSa/k
-----END CERTIFICATE-----
