Certificate:
    Data:
        Version: 3 (0x2)
        Serial Number: 4638 (0x121e)
    Signature Algorithm: md5WithRSAEncryption
        Issuer: C=US, ST=OH, L=Columbus, O=VikingVPN, OU=MyOrganizationalUnit, CN=VikingVPN CA/name=EasyRSA/emailAddress=me@myhost.mydomain
        Validity
            Not Before: Mar  2 21:08:07 2015 GMT
            Not After : Feb 27 21:08:07 2025 GMT
        Subject: CN=Client1505Cert396f8f
        Subject Public Key Info:
            Public Key Algorithm: rsaEncryption
                Public-Key: (4096 bit)
                Modulus:
                    00:cf:6b:53:4e:b8:6b:3a:8f:1e:18:1a:b9:88:2a:
                    c4:91:57:0c:98:d4:41:97:54:6b:09:0a:7f:f5:f7:
                    12:27:11:3e:29:66:87:c8:34:43:f8:e9:39:79:53:
                    04:9b:a3:ca:db:e9:12:52:d3:73:ca:11:39:b7:a2:
                    00:ae:33:2e:fa:f7:a2:33:be:96:21:4e:14:b5:bd:
                    7e:41:71:af:5a:5e:7e:91:3e:43:49:df:04:31:5b:
                    62:fe:d0:e6:07:dc:50:d1:dc:a1:c5:67:4c:1f:ac:
                    20:61:15:c5:c8:3a:68:96:62:86:76:a5:c8:ec:31:
                    98:88:f1:98:0e:7c:cf:25:f0:29:75:95:3c:58:bc:
                    9a:22:59:56:6d:6c:e9:06:6d:d0:98:c2:16:5b:67:
                    47:86:e3:9c:6d:1f:ce:cb:38:4f:74:6f:ae:6f:13:
                    45:31:6a:cd:ca:bb:23:db:94:d7:c5:bc:16:9e:ab:
                    8a:3d:53:b9:bb:b4:1c:74:a5:38:cc:32:56:50:34:
                    17:ba:28:f8:13:0f:e2:df:ab:9a:56:6b:18:33:8a:
                    8f:2b:13:52:da:3d:d6:0e:25:74:40:1c:5e:be:37:
                    e0:78:32:e7:e1:a8:3b:22:af:3e:61:18:1c:d5:ac:
                    3d:a4:c1:0d:15:7f:7e:5c:99:a6:f6:a8:57:a4:54:
                    b2:25:45:40:25:2d:be:c1:bb:6c:5e:0b:ae:1d:da:
                    d4:31:40:1d:78:20:8e:81:3c:3c:38:e2:38:46:a3:
                    3e:e4:cf:64:1c:7b:76:c5:a8:05:88:b3:c1:a0:f6:
                    66:42:c6:68:c7:6d:c7:9b:82:78:a9:1c:c2:f3:ae:
                    eb:06:f9:c5:97:e3:dc:52:bf:e6:ca:08:b3:4f:68:
                    16:cb:30:9a:85:13:9c:ac:04:52:11:9a:2f:08:43:
                    55:6f:9d:59:78:a5:71:e3:af:0b:57:fb:db:2a:76:
                    82:9f:aa:e9:e0:c7:17:72:21:f5:d0:be:6c:21:22:
                    d7:4e:59:70:a1:ca:30:98:12:05:a2:fe:43:2f:f9:
                    69:27:09:1d:a3:18:9a:6d:1c:1f:5c:b4:52:77:3c:
                    7a:79:a4:23:14:a0:86:19:e0:8b:7e:6e:0e:64:08:
                    8d:a1:b9:9d:61:fc:f9:44:14:37:a6:b7:1f:3a:13:
                    eb:6f:53:e2:6b:f3:95:8b:8d:4a:c3:2a:73:86:1c:
                    d8:51:e2:2e:0f:a0:86:2b:87:1f:30:20:8e:d5:dc:
                    d6:55:7a:4b:90:63:0e:01:55:ff:a0:ff:00:36:2e:
                    62:94:b8:f6:b1:26:c2:bc:65:3d:68:4b:02:0a:61:
                    1c:53:56:be:1a:a5:66:f8:c3:3b:dc:b5:ca:50:72:
                    fb:7a:37
                Exponent: 65537 (0x10001)
        X509v3 extensions:
            X509v3 Basic Constraints: 
                CA:FALSE
            Netscape Comment: 
                Easy-RSA Generated Certificate
            X509v3 Subject Key Identifier: 
                F7:60:F7:B8:9B:9D:C8:B6:46:A2:66:1E:7B:C2:09:13:79:AE:DE:E7
            X509v3 Authority Key Identifier: 
                keyid:12:CD:60:04:D2:A0:80:9E:70:ED:C6:99:B8:7B:2C:C6:52:FD:19:A1
                DirName:/C=US/ST=OH/L=Columbus/O=VikingVPN/OU=MyOrganizationalUnit/CN=VikingVPN CA/name=EasyRSA/emailAddress=me@myhost.mydomain
                serial:CF:35:85:EE:80:BF:2A:3E

            X509v3 Extended Key Usage: 
                TLS Web Client Authentication
            X509v3 Key Usage: 
                Digital Signature
    Signature Algorithm: md5WithRSAEncryption
         b3:b6:99:ec:4b:5e:34:f8:c9:dc:f8:df:4a:52:96:f3:c2:05:
         8e:85:d4:75:45:80:3e:70:f0:d1:4b:02:93:1c:9d:e1:19:e9:
         17:f3:0a:5c:8c:71:a5:5d:64:cc:3d:4e:49:20:0e:14:41:a1:
         b2:2d:7f:3d:a0:40:fc:2c:ce:76:86:80:51:e8:73:c0:a2:08:
         bd:ff:c0:26:99:91:cb:c2:80:0a:31:50:8d:89:4f:a3:cc:ea:
         ad:33:25:88:81:6d:b6:e3:e5:f6:39:9c:08:6c:69:20:50:4d:
         d6:0d:db:92:e3:b9:08:09:b3:8f:c9:94:13:d7:f9:1e:4d:af:
         5e:ab:91:18:40:df:e2:4a:cb:b0:34:0e:c4:88:7a:3f:49:8e:
         cd:1d:72:6b:e9:92:c2:ee:ec:94:e1:b4:94:83:32:31:13:f6:
         cd:21:7b:18:4a:46:b9:a7:59:b1:08:ed:92:c0:85:09:55:a8:
         e1:be:17:3b:c7:fe:f0:c8:6f:f7:d3:4b:0e:37:3c:1f:7c:88:
         25:3b:76:91:f3:0f:1e:a4:b6:63:ab:30:dc:76:be:68:87:80:
         50:74:04:18:c3:ce:b0:d8:07:91:4c:6b:01:3a:90:6d:60:58:
         93:af:cb:89:03:bd:39:d6:27:b9:e4:6c:76:71:7a:49:6b:04:
         f8:24:8d:c4:3c:df:f4:ba:8d:f0:2b:30:85:61:3d:88:2f:63:
         36:6d:55:a9:37:35:2a:fc:9a:02:4b:3c:8b:93:cd:ee:2d:a5:
         0a:34:37:1c:bc:27:3c:13:5e:da:4d:c5:90:70:f5:35:c0:6a:
         13:a1:cf:f3:6e:5f:a0:33:b4:49:3f:d4:fa:ff:6d:48:28:de:
         af:8c:32:8e:df:36:78:c7:c1:e3:0c:7d:15:33:db:c9:f5:ca:
         17:ed:8d:7a:d1:53:9d:08:31:2e:d8:dd:b5:21:e0:9f:c0:f7:
         eb:f0:75:35:92:df:c8:47:23:f3:8a:46:14:af:dd:3d:4a:5e:
         d8:f7:0c:2e:ae:24:3f:63:d8:71:53:8b:d2:07:5e:96:cf:ba:
         7c:19:d0:73:c2:da:fb:72:a5:a3:95:43:3c:26:2d:16:b0:72:
         07:5f:44:db:c9:7f:c6:10:5a:3a:e7:f3:49:3e:66:db:e3:a0:
         0a:2f:c5:1b:bf:8b:4d:f3:4f:ae:bb:db:cc:c1:e7:a1:62:7b:
         23:06:05:30:db:6b:38:f7:03:f6:50:44:f4:0e:7f:d9:b8:53:
         91:7c:27:93:9e:df:c3:04:20:05:69:8f:c8:ef:a8:85:3e:17:
         d2:e0:33:31:7a:42:d8:dc:96:cc:2f:46:fa:f0:1d:f1:53:73:
         4a:2f:06:53:44:ca:2d:a6
-----BEGIN CERTIFICATE-----
MIIGrTCCBJWgAwIBAgICEh4wDQYJKoZIhvcNAQEEBQAwgawxCzAJBgNVBAYTAlVT
MQswCQYDVQQIEwJPSDERMA8GA1UEBxMIQ29sdW1idXMxEjAQBgNVBAoTCVZpa2lu
Z1ZQTjEdMBsGA1UECxMUTXlPcmdhbml6YXRpb25hbFVuaXQxFTATBgNVBAMTDFZp
a2luZ1ZQTiBDQTEQMA4GA1UEKRMHRWFzeVJTQTEhMB8GCSqGSIb3DQEJARYSbWVA
bXlob3N0Lm15ZG9tYWluMB4XDTE1MDMwMjIxMDgwN1oXDTI1MDIyNzIxMDgwN1ow
HzEdMBsGA1UEAxMUQ2xpZW50MTUwNUNlcnQzOTZmOGYwggIiMA0GCSqGSIb3DQEB
AQUAA4ICDwAwggIKAoICAQDPa1NOuGs6jx4YGrmIKsSRVwyY1EGXVGsJCn/19xIn
ET4pZofINEP46Tl5UwSbo8rb6RJS03PKETm3ogCuMy7696IzvpYhThS1vX5Bca9a
Xn6RPkNJ3wQxW2L+0OYH3FDR3KHFZ0wfrCBhFcXIOmiWYoZ2pcjsMZiI8ZgOfM8l
8Cl1lTxYvJoiWVZtbOkGbdCYwhZbZ0eG45xtH87LOE90b65vE0Uxas3KuyPblNfF
vBaeq4o9U7m7tBx0pTjMMlZQNBe6KPgTD+Lfq5pWaxgzio8rE1LaPdYOJXRAHF6+
N+B4MufhqDsirz5hGBzVrD2kwQ0Vf35cmab2qFekVLIlRUAlLb7Bu2xeC64d2tQx
QB14II6BPDw44jhGoz7kz2Qce3bFqAWIs8Gg9mZCxmjHbcebgnipHMLzrusG+cWX
49xSv+bKCLNPaBbLMJqFE5ysBFIRmi8IQ1VvnVl4pXHjrwtX+9sqdoKfqungxxdy
IfXQvmwhItdOWXChyjCYEgWi/kMv+WknCR2jGJptHB9ctFJ3PHp5pCMUoIYZ4It+
bg5kCI2huZ1h/PlEFDemtx86E+tvU+Jr85WLjUrDKnOGHNhR4i4PoIYrhx8wII7V
3NZVekuQYw4BVf+g/wA2LmKUuPaxJsK8ZT1oSwIKYRxTVr4apWb4wzvctcpQcvt6
NwIDAQABo4IBYzCCAV8wCQYDVR0TBAIwADAtBglghkgBhvhCAQ0EIBYeRWFzeS1S
U0EgR2VuZXJhdGVkIENlcnRpZmljYXRlMB0GA1UdDgQWBBT3YPe4m53ItkaiZh57
wgkTea7e5zCB4QYDVR0jBIHZMIHWgBQSzWAE0qCAnnDtxpm4eyzGUv0ZoaGBsqSB
rzCBrDELMAkGA1UEBhMCVVMxCzAJBgNVBAgTAk9IMREwDwYDVQQHEwhDb2x1bWJ1
czESMBAGA1UEChMJVmlraW5nVlBOMR0wGwYDVQQLExRNeU9yZ2FuaXphdGlvbmFs
VW5pdDEVMBMGA1UEAxMMVmlraW5nVlBOIENBMRAwDgYDVQQpEwdFYXN5UlNBMSEw
HwYJKoZIhvcNAQkBFhJtZUBteWhvc3QubXlkb21haW6CCQDPNYXugL8qPjATBgNV
HSUEDDAKBggrBgEFBQcDAjALBgNVHQ8EBAMCB4AwDQYJKoZIhvcNAQEEBQADggIB
ALO2mexLXjT4ydz430pSlvPCBY6F1HVFgD5w8NFLApMcneEZ6RfzClyMcaVdZMw9
TkkgDhRBobItfz2gQPwsznaGgFHoc8CiCL3/wCaZkcvCgAoxUI2JT6PM6q0zJYiB
bbbj5fY5nAhsaSBQTdYN25LjuQgJs4/JlBPX+R5Nr16rkRhA3+JKy7A0DsSIej9J
js0dcmvpksLu7JThtJSDMjET9s0hexhKRrmnWbEI7ZLAhQlVqOG+FzvH/vDIb/fT
Sw43PB98iCU7dpHzDx6ktmOrMNx2vmiHgFB0BBjDzrDYB5FMawE6kG1gWJOvy4kD
vTnWJ7nkbHZxeklrBPgkjcQ83/S6jfArMIVhPYgvYzZtVak3NSr8mgJLPIuTze4t
pQo0Nxy8JzwTXtpNxZBw9TXAahOhz/NuX6AztEk/1Pr/bUgo3q+MMo7fNnjHweMM
fRUz28n1yhftjXrRU50IMS7Y3bUh4J/A9+vwdTWS38hHI/OKRhSv3T1KXtj3DC6u
JD9j2HFTi9IHXpbPunwZ0HPC2vtypaOVQzwmLRawcgdfRNvJf8YQWjrn80k+Ztvj
oAovxRu/i03zT66728zB56FieyMGBTDbazj3A/ZQRPQOf9m4U5F8J5Oe38MEIAVp
j8jvqIU+F9LgMzF6QtjclswvRvrwHfFTc0ovBlNEyi2m
-----END CERTIFICATE-----
