Certificate:
    Data:
        Version: 3 (0x2)
        Serial Number: 4649 (0x1229)
    Signature Algorithm: md5WithRSAEncryption
        Issuer: C=US, ST=OH, L=Columbus, O=VikingVPN, OU=MyOrganizationalUnit, CN=VikingVPN CA/name=EasyRSA/emailAddress=me@myhost.mydomain
        Validity
            Not Before: Mar  4 08:42:25 2015 GMT
            Not After : Mar  1 08:42:25 2025 GMT
        Subject: CN=Client1513Certa49ece
        Subject Public Key Info:
            Public Key Algorithm: rsaEncryption
                Public-Key: (4096 bit)
                Modulus:
                    00:99:2e:82:dc:4b:e2:27:25:fd:86:9d:e0:55:26:
                    14:ff:68:81:63:22:3c:67:60:af:d9:79:06:7c:e2:
                    70:78:4d:ec:95:2f:f6:e6:f8:6c:a4:f0:f1:a6:85:
                    ce:2a:9b:bd:09:f4:d0:89:24:13:95:e5:b7:55:58:
                    9a:34:d3:67:3d:65:70:b2:e8:a7:f8:fa:de:38:5b:
                    f7:37:8e:79:99:cd:67:bb:3d:ef:08:86:ad:30:84:
                    1a:3f:dc:95:cc:54:f7:3b:83:73:3d:26:14:b3:e7:
                    9e:63:40:b3:03:1d:3d:52:28:2f:1b:2b:bb:16:62:
                    b2:a2:5d:44:e8:c3:ac:50:44:df:de:59:ba:4f:3f:
                    50:83:0f:11:75:98:93:ac:bc:c2:d4:4e:71:14:0c:
                    9b:40:bc:0e:ea:43:73:2a:32:26:01:d8:ec:8b:45:
                    b5:70:f4:22:d4:5f:13:f1:f9:9e:be:f3:c6:2c:f7:
                    ab:c3:4f:78:83:29:a8:5c:1d:87:e8:c9:36:da:82:
                    0d:2a:76:30:da:1e:27:4d:0a:7b:61:31:c5:fc:d8:
                    ec:f4:5a:2e:58:03:56:9f:c6:22:cf:06:dc:e3:bd:
                    fd:28:76:1d:cc:31:31:06:ad:e0:44:e6:27:18:ab:
                    5e:75:f8:af:cc:ae:e3:29:ff:7f:ed:9a:f4:24:b0:
                    bf:ca:fe:b0:f3:34:89:25:1e:f1:13:33:9a:b9:45:
                    c5:21:21:36:4f:d9:b7:c0:c6:cb:61:20:21:76:4b:
                    5a:ca:72:12:53:9e:1b:0b:57:45:d0:3e:f6:bc:5c:
                    91:cc:1b:83:89:7e:68:28:f5:86:73:55:16:e2:d4:
                    04:a2:87:b9:8a:39:52:ad:93:bc:f3:47:26:ca:f6:
                    d6:e4:23:84:a0:81:22:91:16:23:ef:a8:29:b4:d1:
                    fa:2c:30:38:7a:1e:7e:1b:56:81:d0:6f:b7:df:83:
                    a3:1c:da:8f:e3:a8:d9:97:70:02:1d:ec:ea:c7:e8:
                    02:b1:82:43:ef:fa:36:41:3a:41:ae:ae:5d:e1:dd:
                    41:5b:c5:ca:7b:56:bd:1c:fc:7e:1d:d9:63:df:59:
                    30:9c:86:2c:9c:c1:cf:d9:50:8c:d1:11:99:d5:b0:
                    0f:e0:db:d8:51:f8:86:30:5e:78:d4:26:d3:f5:a4:
                    53:3a:97:aa:e7:0c:30:7b:ab:79:3b:cd:aa:fa:d3:
                    36:0b:ea:7d:7f:96:ba:04:6d:d8:ef:0b:e0:76:34:
                    27:17:d9:46:c9:97:65:1f:ef:2c:58:e1:28:93:03:
                    ec:32:f8:6e:f8:5b:5b:05:14:00:76:aa:63:8e:1d:
                    7f:53:32:84:60:ec:52:8e:61:db:8b:90:55:c1:36:
                    02:bc:2f
                Exponent: 65537 (0x10001)
        X509v3 extensions:
            X509v3 Basic Constraints: 
                CA:FALSE
            Netscape Comment: 
                Easy-RSA Generated Certificate
            X509v3 Subject Key Identifier: 
                4A:CB:C1:BC:1E:70:AB:7E:D9:04:2B:C8:39:FB:12:5C:1F:82:33:BD
            X509v3 Authority Key Identifier: 
                keyid:12:CD:60:04:D2:A0:80:9E:70:ED:C6:99:B8:7B:2C:C6:52:FD:19:A1
                DirName:/C=US/ST=OH/L=Columbus/O=VikingVPN/OU=MyOrganizationalUnit/CN=VikingVPN CA/name=EasyRSA/emailAddress=me@myhost.mydomain
                serial:CF:35:85:EE:80:BF:2A:3E

            X509v3 Extended Key Usage: 
                TLS Web Client Authentication
            X509v3 Key Usage: 
                Digital Signature
    Signature Algorithm: md5WithRSAEncryption
         a0:26:ab:c6:30:8c:82:84:1b:46:37:5f:89:20:10:91:be:78:
         2f:da:95:48:db:47:e9:46:d7:2b:82:12:0b:95:3f:a0:a9:84:
         7a:f5:7b:b1:e1:76:42:7f:bf:be:08:6b:5f:87:1d:f7:75:ff:
         2f:90:67:05:61:c5:65:2c:4e:af:f4:b9:31:9e:e7:e9:44:f5:
         b9:5e:31:f4:31:b6:60:d9:5f:43:f7:af:c1:23:d4:10:7e:0d:
         e6:18:94:8e:68:7d:b6:5b:3b:7a:c4:6e:71:a6:6c:89:05:55:
         45:e6:7c:6e:d6:18:08:35:38:77:4b:06:72:96:29:9d:96:ee:
         cb:e4:b0:95:da:df:b1:94:08:8f:2c:cf:79:e6:4b:12:6a:c4:
         9f:83:3f:54:a4:9c:47:66:88:fc:d7:8c:de:0c:60:66:82:d6:
         39:5c:c2:bf:b5:66:8a:d7:c1:d5:c0:77:66:87:6c:a9:00:54:
         35:4b:3c:ad:b2:0c:41:67:fc:41:6f:53:b7:e6:79:5f:04:8d:
         53:29:7d:11:c3:09:a7:e2:ad:e3:8b:c7:89:f1:c4:ff:eb:cc:
         63:01:88:3d:82:11:69:ee:cb:4d:e2:86:c1:d6:5a:89:60:91:
         6f:8c:5f:78:69:9d:3f:56:74:32:08:00:76:f4:60:69:af:ec:
         ff:dc:6d:99:00:01:2c:12:2a:d9:f1:37:4a:6b:ef:09:f7:01:
         54:d9:d6:fd:16:d1:ff:36:62:8f:0c:69:6d:54:12:31:37:f2:
         e2:0d:65:4b:09:56:c9:4d:0b:23:80:02:db:61:7c:91:7e:dd:
         15:25:6f:42:53:6f:0f:81:08:97:8b:4e:5b:05:77:b3:03:85:
         b2:ec:b7:cf:ed:06:df:42:c0:c7:bd:96:28:ed:de:cc:9a:76:
         b7:76:50:d5:64:7d:20:85:8c:c8:32:fd:d4:45:45:ed:ba:85:
         ae:4b:97:8f:f7:b6:ed:a9:6b:c8:2b:4a:85:7a:12:6e:bc:3a:
         db:72:5b:0a:bd:b5:6f:dc:43:7d:41:a2:13:93:29:f8:ec:42:
         2e:94:e2:ee:2d:1d:8b:34:30:b0:93:1f:b1:a4:f5:a7:0d:04:
         8c:21:8a:5e:2a:10:20:de:12:f2:f2:31:28:6d:83:34:ef:f3:
         da:78:53:0c:f7:29:d5:98:21:90:a0:54:16:15:18:ad:08:13:
         e3:b7:d4:ee:c2:b4:b6:2c:44:88:06:36:a8:18:9f:9d:a9:2f:
         aa:9b:26:9c:45:99:f5:6d:bd:ed:c0:55:02:0b:4f:74:e0:72:
         2d:9d:e1:67:59:ff:89:1e:9b:d8:f6:38:60:5c:f3:ec:7c:66:
         16:8e:4e:03:47:ff:d4:c7
-----BEGIN CERTIFICATE-----
MIIGrTCCBJWgAwIBAgICEikwDQYJKoZIhvcNAQEEBQAwgawxCzAJBgNVBAYTAlVT
MQswCQYDVQQIEwJPSDERMA8GA1UEBxMIQ29sdW1idXMxEjAQBgNVBAoTCVZpa2lu
Z1ZQTjEdMBsGA1UECxMUTXlPcmdhbml6YXRpb25hbFVuaXQxFTATBgNVBAMTDFZp
a2luZ1ZQTiBDQTEQMA4GA1UEKRMHRWFzeVJTQTEhMB8GCSqGSIb3DQEJARYSbWVA
bXlob3N0Lm15ZG9tYWluMB4XDTE1MDMwNDA4NDIyNVoXDTI1MDMwMTA4NDIyNVow
HzEdMBsGA1UEAxMUQ2xpZW50MTUxM0NlcnRhNDllY2UwggIiMA0GCSqGSIb3DQEB
AQUAA4ICDwAwggIKAoICAQCZLoLcS+InJf2GneBVJhT/aIFjIjxnYK/ZeQZ84nB4
TeyVL/bm+Gyk8PGmhc4qm70J9NCJJBOV5bdVWJo002c9ZXCy6Kf4+t44W/c3jnmZ
zWe7Pe8Ihq0whBo/3JXMVPc7g3M9JhSz555jQLMDHT1SKC8bK7sWYrKiXUTow6xQ
RN/eWbpPP1CDDxF1mJOsvMLUTnEUDJtAvA7qQ3MqMiYB2OyLRbVw9CLUXxPx+Z6+
88Ys96vDT3iDKahcHYfoyTbagg0qdjDaHidNCnthMcX82Oz0Wi5YA1afxiLPBtzj
vf0odh3MMTEGreBE5icYq151+K/MruMp/3/tmvQksL/K/rDzNIklHvETM5q5RcUh
ITZP2bfAxsthICF2S1rKchJTnhsLV0XQPva8XJHMG4OJfmgo9YZzVRbi1ASih7mK
OVKtk7zzRybK9tbkI4SggSKRFiPvqCm00fosMDh6Hn4bVoHQb7ffg6Mc2o/jqNmX
cAId7OrH6AKxgkPv+jZBOkGurl3h3UFbxcp7Vr0c/H4d2WPfWTCchiycwc/ZUIzR
EZnVsA/g29hR+IYwXnjUJtP1pFM6l6rnDDB7q3k7zar60zYL6n1/lroEbdjvC+B2
NCcX2UbJl2Uf7yxY4SiTA+wy+G74W1sFFAB2qmOOHX9TMoRg7FKOYduLkFXBNgK8
LwIDAQABo4IBYzCCAV8wCQYDVR0TBAIwADAtBglghkgBhvhCAQ0EIBYeRWFzeS1S
U0EgR2VuZXJhdGVkIENlcnRpZmljYXRlMB0GA1UdDgQWBBRKy8G8HnCrftkEK8g5
+xJcH4IzvTCB4QYDVR0jBIHZMIHWgBQSzWAE0qCAnnDtxpm4eyzGUv0ZoaGBsqSB
rzCBrDELMAkGA1UEBhMCVVMxCzAJBgNVBAgTAk9IMREwDwYDVQQHEwhDb2x1bWJ1
czESMBAGA1UEChMJVmlraW5nVlBOMR0wGwYDVQQLExRNeU9yZ2FuaXphdGlvbmFs
VW5pdDEVMBMGA1UEAxMMVmlraW5nVlBOIENBMRAwDgYDVQQpEwdFYXN5UlNBMSEw
HwYJKoZIhvcNAQkBFhJtZUBteWhvc3QubXlkb21haW6CCQDPNYXugL8qPjATBgNV
HSUEDDAKBggrBgEFBQcDAjALBgNVHQ8EBAMCB4AwDQYJKoZIhvcNAQEEBQADggIB
AKAmq8YwjIKEG0Y3X4kgEJG+eC/alUjbR+lG1yuCEguVP6CphHr1e7HhdkJ/v74I
a1+HHfd1/y+QZwVhxWUsTq/0uTGe5+lE9bleMfQxtmDZX0P3r8Ej1BB+DeYYlI5o
fbZbO3rEbnGmbIkFVUXmfG7WGAg1OHdLBnKWKZ2W7svksJXa37GUCI8sz3nmSxJq
xJ+DP1SknEdmiPzXjN4MYGaC1jlcwr+1ZorXwdXAd2aHbKkAVDVLPK2yDEFn/EFv
U7fmeV8EjVMpfRHDCafireOLx4nxxP/rzGMBiD2CEWnuy03ihsHWWolgkW+MX3hp
nT9WdDIIAHb0YGmv7P/cbZkAASwSKtnxN0pr7wn3AVTZ1v0W0f82Yo8MaW1UEjE3
8uINZUsJVslNCyOAAtthfJF+3RUlb0JTbw+BCJeLTlsFd7MDhbLst8/tBt9CwMe9
lijt3syadrd2UNVkfSCFjMgy/dRFRe26ha5Ll4/3tu2pa8grSoV6Em68OttyWwq9
tW/cQ31BohOTKfjsQi6U4u4tHYs0MLCTH7Gk9acNBIwhil4qECDeEvLyMShtgzTv
89p4Uwz3KdWYIZCgVBYVGK0IE+O31O7CtLYsRIgGNqgYn52pL6qbJpxFmfVtve3A
VQILT3Tgci2d4WdZ/4kem9j2OGBc8+x8ZhaOTgNH/9TH
-----END CERTIFICATE-----
