Certificate:
    Data:
        Version: 3 (0x2)
        Serial Number: 4679 (0x1247)
    Signature Algorithm: md5WithRSAEncryption
        Issuer: C=US, ST=OH, L=Columbus, O=VikingVPN, OU=MyOrganizationalUnit, CN=VikingVPN CA/name=EasyRSA/emailAddress=me@myhost.mydomain
        Validity
            Not Before: Mar  7 17:37:51 2015 GMT
            Not After : Mar  4 17:37:51 2025 GMT
        Subject: CN=Client1524Certc43b04
        Subject Public Key Info:
            Public Key Algorithm: rsaEncryption
                Public-Key: (4096 bit)
                Modulus:
                    00:bb:a1:aa:74:11:eb:4d:a7:a5:f2:51:f4:0f:57:
                    36:7a:2d:04:7d:dd:93:1b:78:76:1c:3a:5b:e7:ed:
                    60:a0:01:12:20:c0:a9:a6:f8:d0:20:58:96:bb:88:
                    ac:2d:52:c7:af:97:43:29:09:89:2a:8d:94:33:63:
                    f7:bc:d4:c2:e3:17:6d:4c:dd:0b:9f:c4:e5:2c:66:
                    3c:03:ca:91:d0:7b:0b:53:27:b6:b6:f3:bf:d0:17:
                    b5:60:21:90:ad:a7:62:4b:b5:df:ea:8b:4c:ab:03:
                    d9:d0:0a:9b:d9:ad:25:16:f3:19:46:c0:f0:a8:13:
                    fb:e7:a2:b6:d7:9e:30:95:5c:c9:c7:99:4c:66:9b:
                    c1:9f:7d:51:51:24:c7:19:6a:89:e7:5d:76:89:4d:
                    a7:37:1a:74:96:18:bf:b3:55:ef:50:79:fa:48:bb:
                    62:f9:11:f8:70:d8:5f:37:3f:5c:7e:6e:02:4b:39:
                    92:1c:65:a4:6e:51:70:03:8e:7b:cf:7b:c2:2b:0a:
                    a7:29:e6:31:94:dd:23:29:9c:90:63:4f:2f:96:f2:
                    66:58:c6:31:c6:a9:79:a8:3b:2d:5e:a5:ea:4c:0e:
                    f4:7e:3a:69:79:5e:77:7e:9e:32:21:de:c7:86:1b:
                    35:97:80:f5:fb:ee:e5:de:ef:9a:5a:32:ec:d1:1f:
                    db:85:19:43:45:20:70:98:5c:54:82:68:89:d8:53:
                    26:40:c6:b6:58:65:0d:2a:78:bb:d5:10:08:49:1a:
                    58:9b:ef:91:da:05:b5:b7:7b:77:bd:e1:da:14:ba:
                    4c:32:08:16:53:8b:86:c6:86:8f:10:81:93:3a:7a:
                    47:35:8b:61:7f:33:34:dd:a3:85:43:7a:f4:29:40:
                    45:24:b4:3c:b5:a5:62:8c:2c:00:80:06:71:14:53:
                    56:20:1a:fd:31:10:db:68:40:46:f6:b8:70:7c:1a:
                    cb:40:4c:7f:a5:94:b9:94:8b:f0:97:b8:a5:2a:9b:
                    e9:29:af:af:29:45:08:c5:e0:e4:0f:7c:cf:54:14:
                    8c:ae:6d:be:57:a5:af:c0:22:cb:a8:5f:81:ac:b7:
                    28:bf:ce:33:bb:b8:1e:28:ab:94:a5:20:c6:ad:f3:
                    be:09:56:1e:60:f5:8d:c4:a8:ba:e6:fa:bc:a8:0b:
                    67:09:e4:69:dd:96:9b:42:3f:9e:48:04:bc:9b:ff:
                    6c:96:00:8c:10:91:c5:ec:71:11:d0:ff:71:06:a3:
                    9e:03:a4:90:f0:60:fe:53:44:9c:29:53:3e:bd:fa:
                    22:77:d3:0e:e4:c5:6c:23:43:76:ee:fc:f1:29:e6:
                    98:5e:d9:0e:8a:d3:02:04:53:84:8d:4b:bc:ee:2e:
                    da:cf:4b
                Exponent: 65537 (0x10001)
        X509v3 extensions:
            X509v3 Basic Constraints: 
                CA:FALSE
            Netscape Comment: 
                Easy-RSA Generated Certificate
            X509v3 Subject Key Identifier: 
                94:A5:F6:B0:5D:39:17:93:79:05:66:57:67:83:F8:FE:7C:A2:BA:74
            X509v3 Authority Key Identifier: 
                keyid:12:CD:60:04:D2:A0:80:9E:70:ED:C6:99:B8:7B:2C:C6:52:FD:19:A1
                DirName:/C=US/ST=OH/L=Columbus/O=VikingVPN/OU=MyOrganizationalUnit/CN=VikingVPN CA/name=EasyRSA/emailAddress=me@myhost.mydomain
                serial:CF:35:85:EE:80:BF:2A:3E

            X509v3 Extended Key Usage: 
                TLS Web Client Authentication
            X509v3 Key Usage: 
                Digital Signature
    Signature Algorithm: md5WithRSAEncryption
         3f:e7:b6:1b:7f:c9:21:58:4f:57:8e:4f:2c:97:44:f2:b9:02:
         a5:3b:57:98:ff:8d:33:11:f1:9c:d5:cd:13:9b:51:9e:ff:ea:
         7a:e5:01:62:2d:fc:9d:d5:37:75:4f:f0:74:ce:97:e8:bc:d9:
         46:83:95:e9:f4:4c:e3:5d:85:31:5f:5c:17:95:0d:8c:77:f2:
         37:21:fe:46:3d:45:96:2b:67:5c:01:66:b9:d1:8e:f4:a7:91:
         51:3a:26:15:bd:36:2d:b1:55:66:90:06:97:b6:06:45:b5:6b:
         0f:d5:4c:4d:79:bc:61:37:44:76:c0:df:1c:e4:8a:e3:68:0e:
         57:fd:6d:ba:f1:78:bc:ff:10:5c:c3:b0:3e:e6:d5:cb:6e:e8:
         d2:cb:a2:6c:97:61:55:74:d6:22:23:8d:fb:ec:91:18:8e:bb:
         4f:05:84:71:a2:59:cf:73:cc:4b:b9:56:96:c2:98:e4:e8:94:
         fe:9f:85:32:06:b9:d1:d9:aa:81:e7:a9:a1:97:4c:24:76:29:
         4d:fc:68:a6:29:21:de:1e:17:7c:06:cc:3d:0c:c1:24:84:20:
         d9:97:7c:28:13:67:4b:8e:96:b3:2f:be:c0:e1:f6:03:60:ef:
         45:be:a3:2a:50:32:fd:c7:42:47:e2:3c:80:87:08:ad:a3:88:
         16:10:23:c4:b4:92:6f:35:86:c0:12:32:ce:85:09:fc:b7:8f:
         d1:85:5a:35:d1:93:7e:54:fd:8f:e2:ad:26:c4:af:5e:55:87:
         b9:fb:cc:e3:d7:14:85:11:79:62:d8:d7:39:0a:5d:63:d9:f0:
         20:ef:8e:a4:4c:81:e0:eb:74:16:fc:bf:cc:bf:0b:5a:ae:39:
         ac:7a:b5:1f:9b:48:d1:ea:f9:21:aa:7f:4a:a2:fa:18:33:78:
         d1:30:df:58:26:3c:9b:4f:ca:46:49:5a:8f:69:00:7c:36:06:
         97:0b:df:bb:77:68:46:c1:fc:c3:7b:dd:e3:5d:cb:42:9e:1c:
         ee:bc:e6:94:e1:ef:93:51:c6:c4:dc:97:56:62:db:2a:b7:46:
         18:08:ad:e3:bf:5d:c5:76:d6:33:09:90:d9:38:b3:03:1e:a8:
         69:40:7f:84:91:68:b6:8d:fa:74:b7:ce:42:cf:3c:b2:ba:51:
         bd:e7:25:4c:ad:84:72:2c:b5:1f:ad:1f:3e:5f:08:e5:7e:52:
         59:81:db:c5:58:c0:79:ef:08:4a:d0:bc:cc:ce:2e:a8:ce:50:
         65:5a:e4:94:03:bb:8c:dd:71:c0:fa:ef:cb:ce:53:e1:52:d7:
         6a:6d:0d:88:c1:1c:7f:e3:2d:42:2b:5e:bf:a2:79:5e:ea:65:
         42:d0:02:ae:5d:28:53:2e
-----BEGIN CERTIFICATE-----
MIIGrTCCBJWgAwIBAgICEkcwDQYJKoZIhvcNAQEEBQAwgawxCzAJBgNVBAYTAlVT
MQswCQYDVQQIEwJPSDERMA8GA1UEBxMIQ29sdW1idXMxEjAQBgNVBAoTCVZpa2lu
Z1ZQTjEdMBsGA1UECxMUTXlPcmdhbml6YXRpb25hbFVuaXQxFTATBgNVBAMTDFZp
a2luZ1ZQTiBDQTEQMA4GA1UEKRMHRWFzeVJTQTEhMB8GCSqGSIb3DQEJARYSbWVA
bXlob3N0Lm15ZG9tYWluMB4XDTE1MDMwNzE3Mzc1MVoXDTI1MDMwNDE3Mzc1MVow
HzEdMBsGA1UEAxMUQ2xpZW50MTUyNENlcnRjNDNiMDQwggIiMA0GCSqGSIb3DQEB
AQUAA4ICDwAwggIKAoICAQC7oap0EetNp6XyUfQPVzZ6LQR93ZMbeHYcOlvn7WCg
ARIgwKmm+NAgWJa7iKwtUsevl0MpCYkqjZQzY/e81MLjF21M3QufxOUsZjwDypHQ
ewtTJ7a287/QF7VgIZCtp2JLtd/qi0yrA9nQCpvZrSUW8xlGwPCoE/vnorbXnjCV
XMnHmUxmm8GffVFRJMcZaonnXXaJTac3GnSWGL+zVe9QefpIu2L5Efhw2F83P1x+
bgJLOZIcZaRuUXADjnvPe8IrCqcp5jGU3SMpnJBjTy+W8mZYxjHGqXmoOy1epepM
DvR+Oml5Xnd+njIh3seGGzWXgPX77uXe75paMuzRH9uFGUNFIHCYXFSCaInYUyZA
xrZYZQ0qeLvVEAhJGlib75HaBbW3e3e94doUukwyCBZTi4bGho8QgZM6ekc1i2F/
MzTdo4VDevQpQEUktDy1pWKMLACABnEUU1YgGv0xENtoQEb2uHB8GstATH+llLmU
i/CXuKUqm+kpr68pRQjF4OQPfM9UFIyubb5Xpa/AIsuoX4Gstyi/zjO7uB4oq5Sl
IMat874JVh5g9Y3EqLrm+ryoC2cJ5GndlptCP55IBLyb/2yWAIwQkcXscRHQ/3EG
o54DpJDwYP5TRJwpUz69+iJ30w7kxWwjQ3bu/PEp5phe2Q6K0wIEU4SNS7zuLtrP
SwIDAQABo4IBYzCCAV8wCQYDVR0TBAIwADAtBglghkgBhvhCAQ0EIBYeRWFzeS1S
U0EgR2VuZXJhdGVkIENlcnRpZmljYXRlMB0GA1UdDgQWBBSUpfawXTkXk3kFZldn
g/j+fKK6dDCB4QYDVR0jBIHZMIHWgBQSzWAE0qCAnnDtxpm4eyzGUv0ZoaGBsqSB
rzCBrDELMAkGA1UEBhMCVVMxCzAJBgNVBAgTAk9IMREwDwYDVQQHEwhDb2x1bWJ1
czESMBAGA1UEChMJVmlraW5nVlBOMR0wGwYDVQQLExRNeU9yZ2FuaXphdGlvbmFs
VW5pdDEVMBMGA1UEAxMMVmlraW5nVlBOIENBMRAwDgYDVQQpEwdFYXN5UlNBMSEw
HwYJKoZIhvcNAQkBFhJtZUBteWhvc3QubXlkb21haW6CCQDPNYXugL8qPjATBgNV
HSUEDDAKBggrBgEFBQcDAjALBgNVHQ8EBAMCB4AwDQYJKoZIhvcNAQEEBQADggIB
AD/ntht/ySFYT1eOTyyXRPK5AqU7V5j/jTMR8ZzVzRObUZ7/6nrlAWIt/J3VN3VP
8HTOl+i82UaDlen0TONdhTFfXBeVDYx38jch/kY9RZYrZ1wBZrnRjvSnkVE6JhW9
Ni2xVWaQBpe2BkW1aw/VTE15vGE3RHbA3xzkiuNoDlf9bbrxeLz/EFzDsD7m1ctu
6NLLomyXYVV01iIjjfvskRiOu08FhHGiWc9zzEu5VpbCmOTolP6fhTIGudHZqoHn
qaGXTCR2KU38aKYpId4eF3wGzD0MwSSEINmXfCgTZ0uOlrMvvsDh9gNg70W+oypQ
Mv3HQkfiPICHCK2jiBYQI8S0km81hsASMs6FCfy3j9GFWjXRk35U/Y/irSbEr15V
h7n7zOPXFIUReWLY1zkKXWPZ8CDvjqRMgeDrdBb8v8y/C1quOax6tR+bSNHq+SGq
f0qi+hgzeNEw31gmPJtPykZJWo9pAHw2BpcL37t3aEbB/MN73eNdy0KeHO685pTh
75NRxsTcl1Zi2yq3RhgIreO/XcV21jMJkNk4swMeqGlAf4SRaLaN+nS3zkLPPLK6
Ub3nJUythHIstR+tHz5fCOV+UlmB28VYwHnvCErQvMzOLqjOUGVa5JQDu4zdccD6
78vOU+FS12ptDYjBHH/jLUIrXr+ieV7qZULQAq5dKFMu
-----END CERTIFICATE-----
