Certificate:
    Data:
        Version: 3 (0x2)
        Serial Number: 4684 (0x124c)
    Signature Algorithm: md5WithRSAEncryption
        Issuer: C=US, ST=OH, L=Columbus, O=VikingVPN, OU=MyOrganizationalUnit, CN=VikingVPN CA/name=EasyRSA/emailAddress=me@myhost.mydomain
        Validity
            Not Before: Mar  8 00:24:44 2015 GMT
            Not After : Mar  5 00:24:44 2025 GMT
        Subject: CN=Client834Cert5da810
        Subject Public Key Info:
            Public Key Algorithm: rsaEncryption
                Public-Key: (4096 bit)
                Modulus:
                    00:b8:aa:37:f4:fa:95:cb:30:56:85:af:ff:ca:19:
                    c0:63:34:fb:49:71:69:07:d1:73:3d:cf:be:fc:fd:
                    b2:5f:9e:18:5b:29:03:8f:e3:70:9c:cb:1c:0b:22:
                    b6:08:7b:cd:5f:5b:55:b2:84:e0:fd:a1:60:6c:12:
                    ea:6a:c1:dc:cd:8b:d1:2b:08:22:13:e2:7f:e1:a6:
                    ff:46:0b:d5:0a:e0:f8:f9:d4:7a:f9:e7:ed:fa:cc:
                    fa:ab:ff:38:80:ed:fc:d4:f7:20:b6:32:67:d7:ea:
                    32:d4:38:25:e5:da:a6:df:64:30:73:d1:2b:2a:28:
                    dc:19:28:75:06:25:a7:31:f9:e5:42:01:d4:fc:54:
                    54:b3:a0:76:64:4d:ec:c9:5b:72:3b:3f:df:0f:2a:
                    90:79:0e:53:9e:a3:77:40:14:93:0e:5f:a7:fb:46:
                    70:f5:18:e8:48:65:8e:20:f3:15:f3:64:fb:63:d8:
                    58:63:26:09:2b:e7:18:79:b7:16:2a:99:73:ca:7b:
                    3a:c8:93:2c:93:08:e9:c9:fe:04:ae:f1:a4:ed:0b:
                    ef:f6:6f:28:fe:24:a6:f5:63:d4:d8:ba:8f:dd:cd:
                    80:d4:f5:3b:70:53:8c:02:ed:c7:fc:40:f9:4b:21:
                    d1:2f:f2:5e:99:c4:09:a6:04:c2:61:93:54:b2:0e:
                    ad:0f:2d:c7:65:83:f7:17:14:ac:50:af:b6:aa:29:
                    49:b0:08:61:78:70:48:90:23:a4:2a:a2:b0:86:aa:
                    d0:59:29:b3:37:97:4b:ea:61:dd:d1:46:c9:3b:be:
                    c6:b5:f6:42:f9:e8:70:f0:ff:2a:08:75:d9:c9:36:
                    15:7b:bf:87:58:0e:26:55:65:3d:26:e9:b5:f7:7c:
                    43:6a:b7:a3:c9:2a:f3:ba:1c:d2:c3:e3:41:95:2f:
                    b5:7e:20:ab:19:66:0c:8f:9e:13:bb:4a:d3:cd:0e:
                    94:58:59:d0:a4:fe:48:46:32:52:45:35:b7:00:9b:
                    37:5a:f7:e3:a5:06:e9:f7:5d:fa:e4:5d:10:82:5f:
                    51:db:bc:0c:02:b8:0c:70:5a:a8:99:12:c8:e8:7a:
                    84:f4:c7:ba:73:1d:0e:0f:ad:9e:9e:54:e8:d2:15:
                    c0:2a:40:6e:91:35:74:ad:d3:85:a8:ef:2b:1e:df:
                    f9:be:b4:5d:60:49:30:51:74:e3:97:bd:74:53:3d:
                    b1:91:4c:57:ef:8f:7b:66:80:f8:a9:1b:37:5c:f5:
                    d6:32:67:cf:d3:f3:4e:e7:f7:f0:d7:5f:dd:43:a0:
                    d6:e9:59:82:fa:ac:66:54:d1:bc:df:78:78:77:75:
                    f9:84:7e:e9:34:b4:88:6b:08:20:47:ae:b7:82:d6:
                    90:53:71
                Exponent: 65537 (0x10001)
        X509v3 extensions:
            X509v3 Basic Constraints: 
                CA:FALSE
            Netscape Comment: 
                Easy-RSA Generated Certificate
            X509v3 Subject Key Identifier: 
                59:12:A9:43:80:0D:9E:19:BE:D8:B7:18:2E:5F:9B:AD:26:28:C7:A9
            X509v3 Authority Key Identifier: 
                keyid:12:CD:60:04:D2:A0:80:9E:70:ED:C6:99:B8:7B:2C:C6:52:FD:19:A1
                DirName:/C=US/ST=OH/L=Columbus/O=VikingVPN/OU=MyOrganizationalUnit/CN=VikingVPN CA/name=EasyRSA/emailAddress=me@myhost.mydomain
                serial:CF:35:85:EE:80:BF:2A:3E

            X509v3 Extended Key Usage: 
                TLS Web Client Authentication
            X509v3 Key Usage: 
                Digital Signature
    Signature Algorithm: md5WithRSAEncryption
         b8:e6:f3:8b:4d:34:16:b2:db:ea:dc:1e:c8:62:24:be:ac:b6:
         40:80:71:cf:99:bf:66:8e:34:5a:0f:51:34:93:d6:dd:41:c0:
         42:a4:e5:77:bf:78:24:80:5a:b2:21:5c:52:bc:8b:31:21:8d:
         e9:ee:b2:76:67:40:ba:99:4a:e0:bd:5d:33:9f:b7:2f:87:cc:
         2e:56:7e:8c:ab:a1:65:9b:4d:55:c0:64:34:89:2b:c2:83:04:
         6e:51:41:13:f6:a7:08:7e:5a:89:9e:b5:9f:14:32:c6:9c:26:
         f7:79:19:c2:9d:a7:5d:f4:4c:ea:88:07:c5:35:05:ca:8d:d1:
         d4:e4:c1:80:92:f6:5b:96:1a:ec:98:33:f7:ae:67:ec:69:b5:
         d2:a6:78:b5:d6:1a:b3:7b:52:d6:f1:ba:00:80:74:22:3e:e7:
         2a:5f:86:0f:7a:f7:c8:a1:ad:0a:20:6c:41:d9:a4:79:7d:e7:
         0b:7a:cc:19:a4:41:67:71:94:48:06:cb:a9:2d:e2:bb:cf:9d:
         0d:27:57:35:5a:90:bf:c7:98:d9:ff:a9:2b:de:a0:c6:c2:52:
         fe:40:a2:65:9e:72:87:11:00:a6:91:06:ea:fd:ce:76:92:a5:
         28:f6:7c:5e:d8:db:4c:fc:cb:79:b1:e1:da:3c:10:02:ca:28:
         a2:f8:a9:a9:59:2a:06:f9:8b:45:5b:e3:b3:ac:05:91:7e:d7:
         cc:d2:33:a6:75:76:4b:f9:d2:86:b2:01:b7:9c:44:be:b6:43:
         9d:f1:69:a0:8c:8d:57:dc:16:56:6b:50:4d:ba:1f:f1:b4:66:
         5e:67:e4:c8:e0:d9:65:53:a8:19:28:5e:99:b5:63:ed:1c:f3:
         a6:44:6b:32:0c:b1:a5:78:f9:95:c1:c6:b4:26:85:7f:05:f8:
         d4:ba:9d:dd:5f:2d:cb:da:90:b8:7e:81:f6:ce:54:3f:82:f6:
         83:05:f7:68:c4:25:6c:0d:49:09:13:de:00:8b:0e:1f:c0:f2:
         13:98:f3:b9:c3:10:c2:27:71:fb:c4:c3:f4:1e:4a:8f:b1:86:
         3a:d6:44:b0:07:56:4f:30:43:19:22:5d:ee:ef:2c:64:b4:6f:
         cb:20:86:93:fd:bc:96:69:1a:af:7c:7c:9b:76:a0:ce:07:a3:
         d5:56:65:a1:23:73:6b:ab:13:b0:d1:09:6c:87:35:ce:38:6a:
         2d:65:4f:a7:2d:4b:f2:2e:c9:8a:ae:03:aa:7e:1b:29:51:0b:
         34:64:6f:b3:a7:67:bc:33:40:0e:36:20:a7:43:69:fe:53:48:
         b9:50:d6:18:d8:a8:8c:02:ae:4f:99:a5:90:90:d6:37:ba:ab:
         4f:8c:5e:08:d6:62:df:87
-----BEGIN CERTIFICATE-----
MIIGrDCCBJSgAwIBAgICEkwwDQYJKoZIhvcNAQEEBQAwgawxCzAJBgNVBAYTAlVT
MQswCQYDVQQIEwJPSDERMA8GA1UEBxMIQ29sdW1idXMxEjAQBgNVBAoTCVZpa2lu
Z1ZQTjEdMBsGA1UECxMUTXlPcmdhbml6YXRpb25hbFVuaXQxFTATBgNVBAMTDFZp
a2luZ1ZQTiBDQTEQMA4GA1UEKRMHRWFzeVJTQTEhMB8GCSqGSIb3DQEJARYSbWVA
bXlob3N0Lm15ZG9tYWluMB4XDTE1MDMwODAwMjQ0NFoXDTI1MDMwNTAwMjQ0NFow
HjEcMBoGA1UEAxMTQ2xpZW50ODM0Q2VydDVkYTgxMDCCAiIwDQYJKoZIhvcNAQEB
BQADggIPADCCAgoCggIBALiqN/T6lcswVoWv/8oZwGM0+0lxaQfRcz3Pvvz9sl+e
GFspA4/jcJzLHAsitgh7zV9bVbKE4P2hYGwS6mrB3M2L0SsIIhPif+Gm/0YL1Qrg
+PnUevnn7frM+qv/OIDt/NT3ILYyZ9fqMtQ4JeXapt9kMHPRKyoo3BkodQYlpzH5
5UIB1PxUVLOgdmRN7Mlbcjs/3w8qkHkOU56jd0AUkw5fp/tGcPUY6EhljiDzFfNk
+2PYWGMmCSvnGHm3FiqZc8p7OsiTLJMI6cn+BK7xpO0L7/ZvKP4kpvVj1Ni6j93N
gNT1O3BTjALtx/xA+Ush0S/yXpnECaYEwmGTVLIOrQ8tx2WD9xcUrFCvtqopSbAI
YXhwSJAjpCqisIaq0FkpszeXS+ph3dFGyTu+xrX2QvnocPD/Kgh12ck2FXu/h1gO
JlVlPSbptfd8Q2q3o8kq87oc0sPjQZUvtX4gqxlmDI+eE7tK080OlFhZ0KT+SEYy
UkU1twCbN1r346UG6fdd+uRdEIJfUdu8DAK4DHBaqJkSyOh6hPTHunMdDg+tnp5U
6NIVwCpAbpE1dK3ThajvKx7f+b60XWBJMFF045e9dFM9sZFMV++Pe2aA+KkbN1z1
1jJnz9PzTuf38Ndf3UOg1ulZgvqsZlTRvN94eHd1+YR+6TS0iGsIIEeut4LWkFNx
AgMBAAGjggFjMIIBXzAJBgNVHRMEAjAAMC0GCWCGSAGG+EIBDQQgFh5FYXN5LVJT
QSBHZW5lcmF0ZWQgQ2VydGlmaWNhdGUwHQYDVR0OBBYEFFkSqUOADZ4Zvti3GC5f
m60mKMepMIHhBgNVHSMEgdkwgdaAFBLNYATSoICecO3Gmbh7LMZS/RmhoYGypIGv
MIGsMQswCQYDVQQGEwJVUzELMAkGA1UECBMCT0gxETAPBgNVBAcTCENvbHVtYnVz
MRIwEAYDVQQKEwlWaWtpbmdWUE4xHTAbBgNVBAsTFE15T3JnYW5pemF0aW9uYWxV
bml0MRUwEwYDVQQDEwxWaWtpbmdWUE4gQ0ExEDAOBgNVBCkTB0Vhc3lSU0ExITAf
BgkqhkiG9w0BCQEWEm1lQG15aG9zdC5teWRvbWFpboIJAM81he6Avyo+MBMGA1Ud
JQQMMAoGCCsGAQUFBwMCMAsGA1UdDwQEAwIHgDANBgkqhkiG9w0BAQQFAAOCAgEA
uObzi000FrLb6tweyGIkvqy2QIBxz5m/Zo40Wg9RNJPW3UHAQqTld794JIBasiFc
UryLMSGN6e6ydmdAuplK4L1dM5+3L4fMLlZ+jKuhZZtNVcBkNIkrwoMEblFBE/an
CH5aiZ61nxQyxpwm93kZwp2nXfRM6ogHxTUFyo3R1OTBgJL2W5Ya7Jgz965n7Gm1
0qZ4tdYas3tS1vG6AIB0Ij7nKl+GD3r3yKGtCiBsQdmkeX3nC3rMGaRBZ3GUSAbL
qS3iu8+dDSdXNVqQv8eY2f+pK96gxsJS/kCiZZ5yhxEAppEG6v3OdpKlKPZ8Xtjb
TPzLebHh2jwQAsooovipqVkqBvmLRVvjs6wFkX7XzNIzpnV2S/nShrIBt5xEvrZD
nfFpoIyNV9wWVmtQTbof8bRmXmfkyODZZVOoGShembVj7RzzpkRrMgyxpXj5lcHG
tCaFfwX41Lqd3V8ty9qQuH6B9s5UP4L2gwX3aMQlbA1JCRPeAIsOH8DyE5jzucMQ
widx+8TD9B5Kj7GGOtZEsAdWTzBDGSJd7u8sZLRvyyCGk/28lmkar3x8m3agzgej
1VZloSNza6sTsNEJbIc1zjhqLWVPpy1L8i7Jiq4Dqn4bKVELNGRvs6dnvDNADjYg
p0Np/lNIuVDWGNiojAKuT5mlkJDWN7qrT4xeCNZi34c=
-----END CERTIFICATE-----
