Certificate:
    Data:
        Version: 3 (0x2)
        Serial Number: 4689 (0x1251)
    Signature Algorithm: md5WithRSAEncryption
        Issuer: C=US, ST=OH, L=Columbus, O=VikingVPN, OU=MyOrganizationalUnit, CN=VikingVPN CA/name=EasyRSA/emailAddress=me@myhost.mydomain
        Validity
            Not Before: Mar  8 07:07:09 2015 GMT
            Not After : Mar  5 07:07:09 2025 GMT
        Subject: CN=Client1527Certb0356c
        Subject Public Key Info:
            Public Key Algorithm: rsaEncryption
                Public-Key: (4096 bit)
                Modulus:
                    00:cb:fc:38:87:22:dd:19:72:6d:49:2d:99:b4:fe:
                    a9:7c:6e:e6:44:98:d1:29:eb:ea:19:fb:bd:ae:0e:
                    99:a6:c2:6c:98:68:be:cf:67:c0:c3:91:a3:c8:c8:
                    ee:01:7f:b2:6e:9c:38:10:dc:92:ff:23:65:05:43:
                    7b:2a:2e:f4:d5:bd:4b:ae:90:20:c3:25:9d:b1:c0:
                    f2:8a:dd:ba:6e:1b:c4:53:b6:e0:89:25:b7:1d:87:
                    31:2a:ff:1a:25:ad:c9:38:ff:fd:c8:6f:5e:d1:71:
                    94:16:a1:47:5d:92:da:fa:56:c4:9d:b5:f4:f5:20:
                    54:92:2f:9b:68:67:9e:b5:48:70:24:89:f6:b6:95:
                    c4:0f:96:83:71:70:b2:d4:c2:35:5b:f8:bd:da:34:
                    f3:5b:53:e8:83:88:e8:fb:ee:a0:40:39:4b:86:8a:
                    2f:2b:ab:71:0d:ed:64:e2:ec:04:8a:29:d4:28:b0:
                    cf:c8:af:fa:6a:e2:48:11:90:e7:36:3c:a7:3f:9a:
                    65:d8:b0:00:e2:2c:41:20:f3:fb:97:1c:a4:7b:85:
                    e4:32:c1:9d:89:95:36:7f:9b:9c:8d:5d:95:fa:3d:
                    8a:fc:f4:6a:17:3e:c8:1b:78:e6:31:14:68:45:79:
                    a5:14:df:91:d6:bd:42:8f:b5:df:77:d8:e5:23:eb:
                    6e:a6:f2:24:7c:d2:db:8b:9e:e4:94:34:73:9b:16:
                    13:55:e8:b9:2c:1c:f3:b7:15:e4:89:63:52:de:b3:
                    31:e5:be:96:73:d3:cf:18:8e:ca:e6:c1:88:78:e1:
                    7b:6a:a3:02:3f:2c:d2:ab:66:31:ba:25:e9:b4:eb:
                    fb:e7:19:4d:6e:65:88:9f:c7:d8:db:65:8d:82:c7:
                    2c:e6:b2:39:23:e3:cd:9b:0e:aa:10:02:10:54:47:
                    42:f2:56:81:53:c6:bc:77:1a:93:b6:b2:3e:8e:d7:
                    fe:97:ff:7c:cc:3f:2e:8a:07:2b:b9:6a:a5:92:69:
                    73:f2:eb:f2:f5:e6:c6:88:13:60:e7:6d:0a:1f:6c:
                    8c:b7:fe:9e:67:93:ae:5f:1b:dc:36:1f:bd:52:6a:
                    a5:01:4c:0f:e3:4b:78:ec:b9:95:98:b3:b4:dc:ad:
                    38:e2:1f:71:15:a7:12:12:9b:78:60:58:ce:e0:d7:
                    d1:1a:0d:d5:70:e4:08:24:5b:d2:d1:07:13:63:3e:
                    7f:98:b9:82:69:9c:77:7a:56:2a:f2:dc:e9:19:d5:
                    ef:5b:53:e6:33:10:ec:9a:2a:7a:e5:4c:f3:cb:8a:
                    37:b4:fc:c7:60:2b:2e:1c:ae:74:11:c7:a0:9c:5e:
                    cb:57:96:a0:f2:09:30:b0:4b:32:1c:6a:58:cf:ea:
                    10:80:4f
                Exponent: 65537 (0x10001)
        X509v3 extensions:
            X509v3 Basic Constraints: 
                CA:FALSE
            Netscape Comment: 
                Easy-RSA Generated Certificate
            X509v3 Subject Key Identifier: 
                08:3C:E0:A2:C9:8A:AC:51:E0:DD:43:71:8E:D4:BB:41:32:1C:59:E3
            X509v3 Authority Key Identifier: 
                keyid:12:CD:60:04:D2:A0:80:9E:70:ED:C6:99:B8:7B:2C:C6:52:FD:19:A1
                DirName:/C=US/ST=OH/L=Columbus/O=VikingVPN/OU=MyOrganizationalUnit/CN=VikingVPN CA/name=EasyRSA/emailAddress=me@myhost.mydomain
                serial:CF:35:85:EE:80:BF:2A:3E

            X509v3 Extended Key Usage: 
                TLS Web Client Authentication
            X509v3 Key Usage: 
                Digital Signature
    Signature Algorithm: md5WithRSAEncryption
         b2:14:fa:35:e7:40:12:a5:6e:81:ee:97:6b:c3:b6:00:51:08:
         92:a8:5b:f2:85:b4:35:dd:d1:3c:43:c2:f0:45:e4:a3:d1:99:
         fd:fb:39:f5:3b:db:e9:0c:10:cf:84:32:94:7e:98:c4:17:d4:
         92:8d:0e:34:1f:1d:a2:e8:3b:fd:4c:ee:30:76:f8:21:1e:04:
         d5:c1:f8:05:03:82:b3:2d:2f:30:f1:91:8c:19:03:ca:1c:35:
         0f:de:0d:85:1b:00:bf:30:76:28:8c:95:91:f3:e3:04:1c:28:
         70:a7:69:0f:c8:de:ee:25:6c:71:d2:7f:b9:a3:e2:11:85:88:
         a3:e8:93:b5:80:31:1d:b1:fa:c8:c3:a4:51:0c:55:ea:da:75:
         53:8b:06:ea:6f:38:b0:11:16:b1:76:7a:6d:1b:aa:6f:85:49:
         b7:20:7d:c2:47:ab:7f:d5:57:aa:30:e2:f5:8d:a2:86:63:c8:
         e1:d6:9e:87:33:8e:25:2a:fe:23:10:04:c0:52:f8:f0:3d:a8:
         20:ac:a5:0e:b0:7a:a5:e4:db:5e:f7:c7:69:c7:0b:8e:c3:86:
         57:26:05:fc:d5:a9:bd:7c:49:c7:85:2c:8d:91:b7:5f:7c:e9:
         86:4a:18:13:53:d3:30:50:4c:cb:9c:69:9d:b9:d3:ee:e9:8d:
         d6:24:c9:e0:e1:57:fe:e6:22:60:4b:ec:c9:e0:9c:7b:09:14:
         9a:5f:1b:97:3b:c0:7a:32:1e:74:68:91:ef:82:5a:23:e4:86:
         14:ef:30:e5:29:ee:b1:b2:1d:b5:25:7a:f7:56:83:5c:35:50:
         bb:2a:4f:0e:e4:a3:13:e2:6a:ee:cf:51:a1:16:55:cb:8c:30:
         1c:a3:fc:24:c2:dc:b2:45:22:47:f4:a7:f4:6d:bd:de:84:cd:
         68:22:49:6e:f9:e6:69:4f:92:d2:99:62:0c:66:d9:5a:17:a9:
         28:c9:32:e0:5d:0b:9e:27:55:67:78:53:c6:39:11:8d:74:f5:
         6f:fa:11:86:a1:6b:5e:0b:ee:19:fb:ac:de:31:84:d6:3c:b5:
         a4:75:30:cc:68:9b:c5:92:cb:79:0e:12:e0:4b:c4:5f:7f:60:
         67:37:cb:b9:5e:47:2a:35:17:54:8c:0b:8f:0c:05:51:0c:3a:
         04:a7:e7:f6:96:b1:ec:2e:00:a5:4a:f4:50:e6:e6:1f:27:41:
         40:59:fd:da:ca:53:f7:d1:d2:93:2a:2f:60:89:08:2a:45:c8:
         5d:47:ba:cd:53:43:0f:c2:7b:41:75:b4:2b:ee:eb:d7:85:06:
         f9:bf:78:89:95:4d:27:2d:f3:64:52:f1:24:98:8b:1f:f3:e9:
         a7:22:d3:13:9f:88:a9:fc
-----BEGIN CERTIFICATE-----
MIIGrTCCBJWgAwIBAgICElEwDQYJKoZIhvcNAQEEBQAwgawxCzAJBgNVBAYTAlVT
MQswCQYDVQQIEwJPSDERMA8GA1UEBxMIQ29sdW1idXMxEjAQBgNVBAoTCVZpa2lu
Z1ZQTjEdMBsGA1UECxMUTXlPcmdhbml6YXRpb25hbFVuaXQxFTATBgNVBAMTDFZp
a2luZ1ZQTiBDQTEQMA4GA1UEKRMHRWFzeVJTQTEhMB8GCSqGSIb3DQEJARYSbWVA
bXlob3N0Lm15ZG9tYWluMB4XDTE1MDMwODA3MDcwOVoXDTI1MDMwNTA3MDcwOVow
HzEdMBsGA1UEAxMUQ2xpZW50MTUyN0NlcnRiMDM1NmMwggIiMA0GCSqGSIb3DQEB
AQUAA4ICDwAwggIKAoICAQDL/DiHIt0Zcm1JLZm0/ql8buZEmNEp6+oZ+72uDpmm
wmyYaL7PZ8DDkaPIyO4Bf7JunDgQ3JL/I2UFQ3sqLvTVvUuukCDDJZ2xwPKK3bpu
G8RTtuCJJbcdhzEq/xolrck4//3Ib17RcZQWoUddktr6VsSdtfT1IFSSL5toZ561
SHAkifa2lcQPloNxcLLUwjVb+L3aNPNbU+iDiOj77qBAOUuGii8rq3EN7WTi7ASK
KdQosM/Ir/pq4kgRkOc2PKc/mmXYsADiLEEg8/uXHKR7heQywZ2JlTZ/m5yNXZX6
PYr89GoXPsgbeOYxFGhFeaUU35HWvUKPtd932OUj626m8iR80tuLnuSUNHObFhNV
6LksHPO3FeSJY1LeszHlvpZz088YjsrmwYh44XtqowI/LNKrZjG6Jem06/vnGU1u
ZYifx9jbZY2Cxyzmsjkj482bDqoQAhBUR0LyVoFTxrx3GpO2sj6O1/6X/3zMPy6K
Byu5aqWSaXPy6/L15saIE2DnbQofbIy3/p5nk65fG9w2H71SaqUBTA/jS3jsuZWY
s7TcrTjiH3EVpxISm3hgWM7g19EaDdVw5AgkW9LRBxNjPn+YuYJpnHd6Viry3OkZ
1e9bU+YzEOyaKnrlTPPLije0/MdgKy4crnQRx6CcXstXlqDyCTCwSzIcaljP6hCA
TwIDAQABo4IBYzCCAV8wCQYDVR0TBAIwADAtBglghkgBhvhCAQ0EIBYeRWFzeS1S
U0EgR2VuZXJhdGVkIENlcnRpZmljYXRlMB0GA1UdDgQWBBQIPOCiyYqsUeDdQ3GO
1LtBMhxZ4zCB4QYDVR0jBIHZMIHWgBQSzWAE0qCAnnDtxpm4eyzGUv0ZoaGBsqSB
rzCBrDELMAkGA1UEBhMCVVMxCzAJBgNVBAgTAk9IMREwDwYDVQQHEwhDb2x1bWJ1
czESMBAGA1UEChMJVmlraW5nVlBOMR0wGwYDVQQLExRNeU9yZ2FuaXphdGlvbmFs
VW5pdDEVMBMGA1UEAxMMVmlraW5nVlBOIENBMRAwDgYDVQQpEwdFYXN5UlNBMSEw
HwYJKoZIhvcNAQkBFhJtZUBteWhvc3QubXlkb21haW6CCQDPNYXugL8qPjATBgNV
HSUEDDAKBggrBgEFBQcDAjALBgNVHQ8EBAMCB4AwDQYJKoZIhvcNAQEEBQADggIB
ALIU+jXnQBKlboHul2vDtgBRCJKoW/KFtDXd0TxDwvBF5KPRmf37OfU72+kMEM+E
MpR+mMQX1JKNDjQfHaLoO/1M7jB2+CEeBNXB+AUDgrMtLzDxkYwZA8ocNQ/eDYUb
AL8wdiiMlZHz4wQcKHCnaQ/I3u4lbHHSf7mj4hGFiKPok7WAMR2x+sjDpFEMVera
dVOLBupvOLARFrF2em0bqm+FSbcgfcJHq3/VV6ow4vWNooZjyOHWnoczjiUq/iMQ
BMBS+PA9qCCspQ6weqXk2173x2nHC47DhlcmBfzVqb18SceFLI2Rt1986YZKGBNT
0zBQTMucaZ250+7pjdYkyeDhV/7mImBL7MngnHsJFJpfG5c7wHoyHnRoke+CWiPk
hhTvMOUp7rGyHbUlevdWg1w1ULsqTw7koxPiau7PUaEWVcuMMByj/CTC3LJFIkf0
p/Rtvd6EzWgiSW755mlPktKZYgxm2VoXqSjJMuBdC54nVWd4U8Y5EY109W/6EYah
a14L7hn7rN4xhNY8taR1MMxom8WSy3kOEuBLxF9/YGc3y7leRyo1F1SMC48MBVEM
OgSn5/aWsewuAKVK9FDm5h8nQUBZ/drKU/fR0pMqL2CJCCpFyF1Hus1TQw/Ce0F1
tCvu69eFBvm/eImVTSct82RS8SSYix/z6aci0xOfiKn8
-----END CERTIFICATE-----
