Certificate:
    Data:
        Version: 3 (0x2)
        Serial Number: 4691 (0x1253)
    Signature Algorithm: md5WithRSAEncryption
        Issuer: C=US, ST=OH, L=Columbus, O=VikingVPN, OU=MyOrganizationalUnit, CN=VikingVPN CA/name=EasyRSA/emailAddress=me@myhost.mydomain
        Validity
            Not Before: Mar  8 13:04:33 2015 GMT
            Not After : Mar  5 13:04:33 2025 GMT
        Subject: CN=Client1528Cert613d16
        Subject Public Key Info:
            Public Key Algorithm: rsaEncryption
                Public-Key: (4096 bit)
                Modulus:
                    00:ef:3d:1b:4d:46:d4:60:48:d2:e1:88:39:b7:d0:
                    f0:2b:ed:35:48:39:35:5d:a1:44:3b:22:88:e7:74:
                    45:79:f6:98:7b:c9:36:d1:9f:40:db:ed:b5:4c:22:
                    85:4a:4d:f9:50:70:e7:6d:e5:3b:42:de:b3:7a:a4:
                    59:9e:43:e3:58:14:df:48:2d:36:40:0d:f6:f6:d4:
                    ce:d7:4c:25:e1:98:b6:a1:50:d2:6c:1d:e2:3d:c2:
                    32:8b:21:f3:31:b0:3d:02:9f:53:2d:5d:9f:2b:21:
                    1b:e9:06:08:24:f6:c7:d0:31:94:89:7c:19:d2:65:
                    65:6a:6e:33:8c:d1:25:2c:c4:83:a3:9e:9e:b6:01:
                    5c:c1:b6:49:db:d7:18:d4:a5:ba:7b:f7:20:78:34:
                    e8:93:75:51:27:ea:47:e3:31:ad:a0:57:2c:75:77:
                    38:00:fb:f2:d8:35:8b:db:42:c4:0b:16:32:80:b2:
                    b5:3f:25:18:47:62:ef:d0:71:9d:91:ae:ce:8f:4f:
                    1f:85:09:f5:79:da:56:c0:f6:30:4b:81:14:e9:8c:
                    36:2c:42:50:d8:c2:87:d9:2c:f9:28:4b:22:64:dc:
                    23:34:55:d7:1a:be:2e:5b:ac:32:5a:f7:6c:f0:13:
                    bc:77:be:e6:9b:7b:e1:b0:be:f8:14:09:50:e1:28:
                    41:c6:73:de:08:17:fa:82:d6:7b:0a:ed:78:e5:87:
                    47:44:8f:79:73:c6:20:74:28:1d:31:dc:fd:3e:aa:
                    03:c6:1a:60:1c:0e:87:2b:18:eb:1a:21:fb:3b:f0:
                    64:ba:a2:53:aa:16:4a:96:c5:66:42:51:f5:9a:8b:
                    32:97:69:a6:5a:2a:e6:69:7c:e5:6e:65:e8:08:46:
                    5f:4f:be:63:c9:8c:ce:74:00:42:26:78:d1:eb:c0:
                    13:25:0e:b7:eb:3d:5d:50:1e:b7:5c:74:20:3d:75:
                    80:90:c4:ac:0a:42:bf:66:0f:72:1d:0f:83:2d:b5:
                    06:5c:1f:33:cd:be:55:ab:44:98:25:eb:b6:c2:01:
                    ad:5a:4e:4b:2c:aa:cf:0b:be:c6:e9:48:aa:b5:32:
                    34:8d:f4:ac:8c:ca:52:84:16:72:17:45:e0:ae:9e:
                    7b:c1:30:b8:bd:d3:14:ac:03:94:64:50:fd:7c:36:
                    3f:30:09:44:1a:d1:29:27:e2:02:21:64:e0:a9:c1:
                    d5:83:21:de:c9:30:02:8e:f1:5b:de:c6:5d:8e:07:
                    a2:62:30:b7:4a:2a:d4:02:c0:aa:61:4a:5b:6b:93:
                    e2:3f:57:db:77:24:5e:94:cf:0d:49:9d:37:22:1a:
                    3e:ad:ca:dd:19:04:8b:c6:95:77:49:0b:39:ec:2d:
                    71:5a:3f
                Exponent: 65537 (0x10001)
        X509v3 extensions:
            X509v3 Basic Constraints: 
                CA:FALSE
            Netscape Comment: 
                Easy-RSA Generated Certificate
            X509v3 Subject Key Identifier: 
                42:E6:AC:4B:E6:12:CF:72:20:A4:54:E1:41:64:8D:CE:B2:05:47:25
            X509v3 Authority Key Identifier: 
                keyid:12:CD:60:04:D2:A0:80:9E:70:ED:C6:99:B8:7B:2C:C6:52:FD:19:A1
                DirName:/C=US/ST=OH/L=Columbus/O=VikingVPN/OU=MyOrganizationalUnit/CN=VikingVPN CA/name=EasyRSA/emailAddress=me@myhost.mydomain
                serial:CF:35:85:EE:80:BF:2A:3E

            X509v3 Extended Key Usage: 
                TLS Web Client Authentication
            X509v3 Key Usage: 
                Digital Signature
    Signature Algorithm: md5WithRSAEncryption
         9c:37:27:7e:00:3e:5f:d0:c5:cc:28:80:6e:b4:c9:ef:f5:6f:
         aa:c3:bf:27:e9:6d:b7:6c:80:bc:f2:65:8e:c8:e7:88:b8:48:
         dc:b6:a8:75:7f:11:69:d3:38:6b:94:fc:9e:6a:3d:b9:8d:ee:
         19:3b:e2:46:93:ff:f2:0f:b3:21:0a:de:af:14:db:c5:97:8e:
         bd:88:6b:f9:c7:04:dc:fb:96:2c:29:1e:5a:38:ec:fe:6d:13:
         39:bc:70:4d:e5:81:8a:78:56:35:df:62:2b:4a:98:cf:f4:70:
         50:3f:9a:53:9e:41:51:9c:93:44:7d:71:b9:4a:f3:ce:6a:bf:
         fc:a4:a0:e3:82:bd:47:cf:9a:6b:29:f6:b7:4f:a5:53:12:d9:
         a6:3c:ce:75:d6:4b:71:19:f0:ab:30:2c:a0:2b:ab:20:aa:5e:
         11:85:e7:1c:96:36:04:22:69:3b:a1:46:74:d0:95:4a:3a:83:
         7c:03:80:be:b9:50:4c:51:4d:bc:1a:20:59:93:7a:f3:88:d0:
         32:99:d7:1b:27:c3:c5:fb:d4:c1:79:53:d6:ab:b3:7b:ee:d3:
         26:ff:0c:a1:31:16:f2:9d:db:b8:f5:36:e1:af:a7:36:5b:7c:
         82:e9:8c:61:1c:5b:32:c5:2f:6e:71:bc:15:02:56:63:87:8f:
         e2:f8:bf:cc:b7:45:0c:db:07:6e:53:a9:1a:7b:fc:8e:10:6a:
         fe:9a:21:10:24:08:a7:f7:a0:2c:b0:95:7f:4c:df:9e:d5:f2:
         3b:fd:3a:4a:85:a5:d0:29:9b:80:c2:60:30:bd:27:a4:00:88:
         e7:bb:69:d1:dd:f7:0f:fd:93:35:46:4c:3c:59:05:d1:3f:9f:
         a7:32:a2:51:75:0f:69:fb:bc:84:a4:b2:cf:fc:03:c0:6a:f3:
         4b:c0:d5:92:b6:36:2f:c1:03:9d:9d:11:f2:f5:a8:1e:77:ec:
         31:f5:88:60:71:ec:9f:1f:1b:1c:f6:85:ba:33:0a:59:ff:94:
         08:23:bc:f2:12:a4:62:ac:56:04:15:07:36:d7:6b:f8:96:35:
         6a:16:0a:05:8e:27:d8:2a:24:55:54:f8:28:95:2b:df:a8:a3:
         f4:72:75:01:04:5a:ec:0c:0d:c8:33:f6:64:4b:04:09:a0:c2:
         d2:21:15:4b:5a:54:55:9f:3a:89:dc:ae:db:98:70:ad:8d:11:
         f0:a3:54:97:d5:07:86:59:ee:3a:50:11:4c:50:15:74:8c:b3:
         45:f3:88:41:9c:5c:e6:71:5e:b0:4a:8b:22:11:62:5e:cf:06:
         ab:d1:ed:90:4f:6b:eb:b4:34:80:37:49:79:b8:16:21:8d:72:
         6b:3f:48:da:46:2c:92:08
-----BEGIN CERTIFICATE-----
MIIGrTCCBJWgAwIBAgICElMwDQYJKoZIhvcNAQEEBQAwgawxCzAJBgNVBAYTAlVT
MQswCQYDVQQIEwJPSDERMA8GA1UEBxMIQ29sdW1idXMxEjAQBgNVBAoTCVZpa2lu
Z1ZQTjEdMBsGA1UECxMUTXlPcmdhbml6YXRpb25hbFVuaXQxFTATBgNVBAMTDFZp
a2luZ1ZQTiBDQTEQMA4GA1UEKRMHRWFzeVJTQTEhMB8GCSqGSIb3DQEJARYSbWVA
bXlob3N0Lm15ZG9tYWluMB4XDTE1MDMwODEzMDQzM1oXDTI1MDMwNTEzMDQzM1ow
HzEdMBsGA1UEAxMUQ2xpZW50MTUyOENlcnQ2MTNkMTYwggIiMA0GCSqGSIb3DQEB
AQUAA4ICDwAwggIKAoICAQDvPRtNRtRgSNLhiDm30PAr7TVIOTVdoUQ7IojndEV5
9ph7yTbRn0Db7bVMIoVKTflQcOdt5TtC3rN6pFmeQ+NYFN9ILTZADfb21M7XTCXh
mLahUNJsHeI9wjKLIfMxsD0Cn1MtXZ8rIRvpBggk9sfQMZSJfBnSZWVqbjOM0SUs
xIOjnp62AVzBtknb1xjUpbp79yB4NOiTdVEn6kfjMa2gVyx1dzgA+/LYNYvbQsQL
FjKAsrU/JRhHYu/QcZ2Rrs6PTx+FCfV52lbA9jBLgRTpjDYsQlDYwofZLPkoSyJk
3CM0Vdcavi5brDJa92zwE7x3vuabe+GwvvgUCVDhKEHGc94IF/qC1nsK7Xjlh0dE
j3lzxiB0KB0x3P0+qgPGGmAcDocrGOsaIfs78GS6olOqFkqWxWZCUfWaizKXaaZa
KuZpfOVuZegIRl9PvmPJjM50AEImeNHrwBMlDrfrPV1QHrdcdCA9dYCQxKwKQr9m
D3IdD4MttQZcHzPNvlWrRJgl67bCAa1aTkssqs8LvsbpSKq1MjSN9KyMylKEFnIX
ReCunnvBMLi90xSsA5RkUP18Nj8wCUQa0Skn4gIhZOCpwdWDId7JMAKO8Vvexl2O
B6JiMLdKKtQCwKphSltrk+I/V9t3JF6Uzw1JnTciGj6tyt0ZBIvGlXdJCznsLXFa
PwIDAQABo4IBYzCCAV8wCQYDVR0TBAIwADAtBglghkgBhvhCAQ0EIBYeRWFzeS1S
U0EgR2VuZXJhdGVkIENlcnRpZmljYXRlMB0GA1UdDgQWBBRC5qxL5hLPciCkVOFB
ZI3OsgVHJTCB4QYDVR0jBIHZMIHWgBQSzWAE0qCAnnDtxpm4eyzGUv0ZoaGBsqSB
rzCBrDELMAkGA1UEBhMCVVMxCzAJBgNVBAgTAk9IMREwDwYDVQQHEwhDb2x1bWJ1
czESMBAGA1UEChMJVmlraW5nVlBOMR0wGwYDVQQLExRNeU9yZ2FuaXphdGlvbmFs
VW5pdDEVMBMGA1UEAxMMVmlraW5nVlBOIENBMRAwDgYDVQQpEwdFYXN5UlNBMSEw
HwYJKoZIhvcNAQkBFhJtZUBteWhvc3QubXlkb21haW6CCQDPNYXugL8qPjATBgNV
HSUEDDAKBggrBgEFBQcDAjALBgNVHQ8EBAMCB4AwDQYJKoZIhvcNAQEEBQADggIB
AJw3J34APl/QxcwogG60ye/1b6rDvyfpbbdsgLzyZY7I54i4SNy2qHV/EWnTOGuU
/J5qPbmN7hk74kaT//IPsyEK3q8U28WXjr2Ia/nHBNz7liwpHlo47P5tEzm8cE3l
gYp4VjXfYitKmM/0cFA/mlOeQVGck0R9cblK885qv/ykoOOCvUfPmmsp9rdPpVMS
2aY8znXWS3EZ8KswLKArqyCqXhGF5xyWNgQiaTuhRnTQlUo6g3wDgL65UExRTbwa
IFmTevOI0DKZ1xsnw8X71MF5U9ars3vu0yb/DKExFvKd27j1NuGvpzZbfILpjGEc
WzLFL25xvBUCVmOHj+L4v8y3RQzbB25TqRp7/I4Qav6aIRAkCKf3oCywlX9M357V
8jv9OkqFpdApm4DCYDC9J6QAiOe7adHd9w/9kzVGTDxZBdE/n6cyolF1D2n7vISk
ss/8A8Bq80vA1ZK2Ni/BA52dEfL1qB537DH1iGBx7J8fGxz2hbozCln/lAgjvPIS
pGKsVgQVBzbXa/iWNWoWCgWOJ9gqJFVU+CiVK9+oo/RydQEEWuwMDcgz9mRLBAmg
wtIhFUtaVFWfOoncrtuYcK2NEfCjVJfVB4ZZ7jpQEUxQFXSMs0XziEGcXOZxXrBK
iyIRYl7PBqvR7ZBPa+u0NIA3SXm4FiGNcms/SNpGLJII
-----END CERTIFICATE-----
