Certificate:
    Data:
        Version: 3 (0x2)
        Serial Number: 4693 (0x1255)
    Signature Algorithm: md5WithRSAEncryption
        Issuer: C=US, ST=OH, L=Columbus, O=VikingVPN, OU=MyOrganizationalUnit, CN=VikingVPN CA/name=EasyRSA/emailAddress=me@myhost.mydomain
        Validity
            Not Before: Mar  8 13:28:55 2015 GMT
            Not After : Mar  5 13:28:55 2025 GMT
        Subject: CN=Client991Cert40f4c6
        Subject Public Key Info:
            Public Key Algorithm: rsaEncryption
                Public-Key: (4096 bit)
                Modulus:
                    00:d0:c6:de:9c:7a:e4:2d:5f:19:6a:be:84:36:4a:
                    da:0c:7b:cd:6a:c8:44:8a:2e:eb:16:7e:6c:1d:20:
                    ec:d6:9d:bb:87:9d:b1:71:82:63:ab:23:36:f0:97:
                    5f:dc:06:5a:41:0f:50:8b:39:74:00:8b:af:4d:41:
                    20:74:5a:a9:fd:51:fa:1c:5b:d8:b7:9e:75:2f:e2:
                    65:59:66:de:19:c1:03:2f:02:d1:90:5b:69:db:67:
                    7b:8d:e9:8e:8c:a7:73:e3:fd:d8:56:33:3f:7b:59:
                    92:94:f8:8b:83:ab:00:d7:2d:a7:2d:44:9e:11:b9:
                    17:43:df:ad:1d:0c:76:1d:ed:ed:22:de:41:a9:0b:
                    e4:da:09:b6:9b:1e:83:26:81:42:37:19:8d:9b:49:
                    a1:c1:3c:22:56:8b:f1:0e:d1:a6:3a:3f:96:95:ff:
                    df:02:00:fd:2e:61:44:a5:48:7e:32:67:9a:af:df:
                    d1:e7:e0:a7:b5:78:8d:dd:e8:9d:15:29:27:47:d0:
                    60:67:9f:2a:d5:92:bf:bf:0a:74:a8:9b:82:c6:4d:
                    b9:55:1a:5f:bd:21:de:56:64:ac:f5:23:1e:0e:4f:
                    32:92:df:e0:0d:90:6b:62:e7:c1:66:5e:90:ff:6d:
                    c4:a6:ee:4f:06:b9:df:aa:e1:6c:13:c9:d5:2a:9c:
                    c9:9d:c2:6d:8e:95:db:73:66:95:46:7f:61:fa:b4:
                    82:fb:2c:29:ec:53:5c:4b:2d:29:e7:b9:46:d2:84:
                    fa:6c:b2:5d:7d:14:1c:1e:f3:a7:1a:c7:14:4a:63:
                    81:8e:0d:7c:0b:f1:fb:c2:67:75:37:51:80:ab:e2:
                    1f:86:1d:a2:07:30:42:9e:91:56:0d:3d:66:6c:0f:
                    e2:33:5c:e2:d2:3f:86:44:d7:44:28:46:da:ca:3c:
                    1f:de:a5:3a:8b:91:2a:78:74:a5:54:9c:4a:e1:77:
                    fb:df:41:08:24:a7:21:a5:49:9b:77:16:9d:17:3e:
                    92:21:8e:6f:a3:3d:08:0b:62:ab:fd:e3:70:56:4b:
                    8d:84:58:41:bd:8d:5e:32:c2:33:2d:f5:f6:ed:41:
                    a6:3b:a3:be:c8:e9:b3:cf:e7:e1:6d:c2:ed:09:8b:
                    59:a2:ec:da:a8:01:de:cf:22:8f:ee:24:9c:46:8a:
                    da:8e:40:3d:ab:a9:76:01:99:e1:c3:3b:ba:c7:46:
                    a9:c3:75:40:40:42:1a:8f:dc:d4:7e:dd:64:70:f9:
                    26:23:54:9f:af:c9:54:8f:41:d6:29:43:c3:57:e5:
                    35:98:ef:3b:a5:4a:31:7e:98:f1:3e:ef:2d:61:e6:
                    99:ae:89:ec:6d:ce:be:68:c5:10:32:ec:ab:aa:8f:
                    cd:30:75
                Exponent: 65537 (0x10001)
        X509v3 extensions:
            X509v3 Basic Constraints: 
                CA:FALSE
            Netscape Comment: 
                Easy-RSA Generated Certificate
            X509v3 Subject Key Identifier: 
                27:E8:83:58:D6:31:F0:3E:23:F4:40:92:CC:50:53:8C:83:71:C2:63
            X509v3 Authority Key Identifier: 
                keyid:12:CD:60:04:D2:A0:80:9E:70:ED:C6:99:B8:7B:2C:C6:52:FD:19:A1
                DirName:/C=US/ST=OH/L=Columbus/O=VikingVPN/OU=MyOrganizationalUnit/CN=VikingVPN CA/name=EasyRSA/emailAddress=me@myhost.mydomain
                serial:CF:35:85:EE:80:BF:2A:3E

            X509v3 Extended Key Usage: 
                TLS Web Client Authentication
            X509v3 Key Usage: 
                Digital Signature
    Signature Algorithm: md5WithRSAEncryption
         26:27:37:24:8c:cf:05:07:be:c2:ba:a4:e6:db:9a:69:e8:7e:
         3f:9a:a9:19:c0:c4:4c:92:38:3a:91:c8:17:0f:3f:01:48:92:
         e3:0c:f1:05:2c:81:bd:91:01:18:f8:53:05:3b:0b:f3:fd:02:
         07:30:3f:6b:da:68:49:03:cf:48:f5:a9:be:02:0b:0e:96:13:
         92:1d:61:2d:f3:71:bf:97:ca:bc:cd:2e:bc:9f:ce:6d:25:01:
         22:07:e8:e5:22:ad:c4:e5:34:80:18:ed:e9:b1:2b:a2:05:ab:
         bb:eb:3c:3e:a6:78:62:44:19:9e:22:af:35:28:49:59:67:8c:
         aa:0c:a9:87:6f:d6:05:ce:e1:c7:79:a7:88:d7:82:c8:07:18:
         43:a8:31:34:2e:95:3e:d7:df:20:e0:60:74:ed:b9:51:7d:05:
         43:07:38:27:c8:91:17:08:44:46:0c:89:45:8a:d6:43:6a:f9:
         9e:e5:51:e6:07:79:c5:f4:be:37:60:b6:80:21:e7:61:cc:12:
         3f:15:a0:ed:e1:ab:f7:f7:5d:19:b2:04:2a:6b:88:2d:0c:36:
         b9:00:a8:37:10:8a:18:5a:4c:12:5c:a7:80:df:6a:96:96:b9:
         ed:9d:d3:11:52:4d:6a:a3:dc:d2:d5:c1:c9:88:40:18:16:f4:
         40:c3:f3:cb:a2:a5:37:1e:79:4f:28:44:35:71:da:c5:0f:67:
         66:bc:65:79:e0:3d:72:51:c5:ba:a3:8d:3a:d7:8b:b0:28:41:
         f8:68:f1:f4:4f:03:ed:c5:a7:32:a0:ef:99:14:e6:4e:f6:89:
         d3:58:6b:c1:f4:e4:82:b9:1e:0b:80:1d:3f:1c:02:da:21:87:
         e4:72:d1:75:a1:65:27:ff:79:93:aa:97:ee:47:03:fb:29:34:
         2f:bb:4a:58:0b:fa:3c:5e:5c:ae:63:29:eb:39:3f:87:54:1c:
         a2:30:ee:19:91:d3:4f:06:e3:13:92:e2:24:94:50:63:30:d9:
         10:b2:b1:93:6d:12:ad:38:c9:f9:80:d6:4b:4a:5a:c6:fc:9b:
         ab:3b:4f:af:06:58:63:1b:9b:1e:c6:7a:44:d0:a9:30:5e:54:
         d6:15:f5:f8:1a:75:e4:84:e4:52:7b:38:af:60:31:49:4f:99:
         87:8d:d0:9c:a4:40:40:a2:6a:fd:7d:38:09:6e:62:e7:2a:f4:
         a4:b1:af:f9:4e:a5:f3:d9:e7:0f:b7:28:63:62:eb:a6:89:2c:
         a7:31:04:8d:52:64:7d:d2:2e:98:bf:95:8b:96:72:76:c9:57:
         5d:30:ad:8a:81:0c:23:87:43:14:51:23:4e:4c:2a:4a:f8:cc:
         0a:a4:83:6e:47:f7:9c:f7
-----BEGIN CERTIFICATE-----
MIIGrDCCBJSgAwIBAgICElUwDQYJKoZIhvcNAQEEBQAwgawxCzAJBgNVBAYTAlVT
MQswCQYDVQQIEwJPSDERMA8GA1UEBxMIQ29sdW1idXMxEjAQBgNVBAoTCVZpa2lu
Z1ZQTjEdMBsGA1UECxMUTXlPcmdhbml6YXRpb25hbFVuaXQxFTATBgNVBAMTDFZp
a2luZ1ZQTiBDQTEQMA4GA1UEKRMHRWFzeVJTQTEhMB8GCSqGSIb3DQEJARYSbWVA
bXlob3N0Lm15ZG9tYWluMB4XDTE1MDMwODEzMjg1NVoXDTI1MDMwNTEzMjg1NVow
HjEcMBoGA1UEAxMTQ2xpZW50OTkxQ2VydDQwZjRjNjCCAiIwDQYJKoZIhvcNAQEB
BQADggIPADCCAgoCggIBANDG3px65C1fGWq+hDZK2gx7zWrIRIou6xZ+bB0g7Nad
u4edsXGCY6sjNvCXX9wGWkEPUIs5dACLr01BIHRaqf1R+hxb2LeedS/iZVlm3hnB
Ay8C0ZBbadtne43pjoync+P92FYzP3tZkpT4i4OrANctpy1EnhG5F0PfrR0Mdh3t
7SLeQakL5NoJtpsegyaBQjcZjZtJocE8IlaL8Q7Rpjo/lpX/3wIA/S5hRKVIfjJn
mq/f0efgp7V4jd3onRUpJ0fQYGefKtWSv78KdKibgsZNuVUaX70h3lZkrPUjHg5P
MpLf4A2Qa2LnwWZekP9txKbuTwa536rhbBPJ1SqcyZ3CbY6V23NmlUZ/Yfq0gvss
KexTXEstKee5RtKE+myyXX0UHB7zpxrHFEpjgY4NfAvx+8JndTdRgKviH4Ydogcw
Qp6RVg09ZmwP4jNc4tI/hkTXRChG2so8H96lOouRKnh0pVScSuF3+99BCCSnIaVJ
m3cWnRc+kiGOb6M9CAtiq/3jcFZLjYRYQb2NXjLCMy319u1Bpjujvsjps8/n4W3C
7QmLWaLs2qgB3s8ij+4knEaK2o5APaupdgGZ4cM7usdGqcN1QEBCGo/c1H7dZHD5
JiNUn6/JVI9B1ilDw1flNZjvO6VKMX6Y8T7vLWHmma6J7G3OvmjFEDLsq6qPzTB1
AgMBAAGjggFjMIIBXzAJBgNVHRMEAjAAMC0GCWCGSAGG+EIBDQQgFh5FYXN5LVJT
QSBHZW5lcmF0ZWQgQ2VydGlmaWNhdGUwHQYDVR0OBBYEFCfog1jWMfA+I/RAksxQ
U4yDccJjMIHhBgNVHSMEgdkwgdaAFBLNYATSoICecO3Gmbh7LMZS/RmhoYGypIGv
MIGsMQswCQYDVQQGEwJVUzELMAkGA1UECBMCT0gxETAPBgNVBAcTCENvbHVtYnVz
MRIwEAYDVQQKEwlWaWtpbmdWUE4xHTAbBgNVBAsTFE15T3JnYW5pemF0aW9uYWxV
bml0MRUwEwYDVQQDEwxWaWtpbmdWUE4gQ0ExEDAOBgNVBCkTB0Vhc3lSU0ExITAf
BgkqhkiG9w0BCQEWEm1lQG15aG9zdC5teWRvbWFpboIJAM81he6Avyo+MBMGA1Ud
JQQMMAoGCCsGAQUFBwMCMAsGA1UdDwQEAwIHgDANBgkqhkiG9w0BAQQFAAOCAgEA
Jic3JIzPBQe+wrqk5tuaaeh+P5qpGcDETJI4OpHIFw8/AUiS4wzxBSyBvZEBGPhT
BTsL8/0CBzA/a9poSQPPSPWpvgILDpYTkh1hLfNxv5fKvM0uvJ/ObSUBIgfo5SKt
xOU0gBjt6bErogWru+s8PqZ4YkQZniKvNShJWWeMqgyph2/WBc7hx3mniNeCyAcY
Q6gxNC6VPtffIOBgdO25UX0FQwc4J8iRFwhERgyJRYrWQ2r5nuVR5gd5xfS+N2C2
gCHnYcwSPxWg7eGr9/ddGbIEKmuILQw2uQCoNxCKGFpMElyngN9qlpa57Z3TEVJN
aqPc0tXByYhAGBb0QMPzy6KlNx55TyhENXHaxQ9nZrxleeA9clHFuqONOteLsChB
+Gjx9E8D7cWnMqDvmRTmTvaJ01hrwfTkgrkeC4AdPxwC2iGH5HLRdaFlJ/95k6qX
7kcD+yk0L7tKWAv6PF5crmMp6zk/h1QcojDuGZHTTwbjE5LiJJRQYzDZELKxk20S
rTjJ+YDWS0paxvybqztPrwZYYxubHsZ6RNCpMF5U1hX1+Bp15ITkUns4r2AxSU+Z
h43QnKRAQKJq/X04CW5i5yr0pLGv+U6l89nnD7coY2LrpokspzEEjVJkfdIumL+V
i5ZydslXXTCtioEMI4dDFFEjTkwqSvjMCqSDbkf3nPc=
-----END CERTIFICATE-----
