Certificate:
    Data:
        Version: 3 (0x2)
        Serial Number: 4695 (0x1257)
    Signature Algorithm: md5WithRSAEncryption
        Issuer: C=US, ST=OH, L=Columbus, O=VikingVPN, OU=MyOrganizationalUnit, CN=VikingVPN CA/name=EasyRSA/emailAddress=me@myhost.mydomain
        Validity
            Not Before: Mar  8 13:54:36 2015 GMT
            Not After : Mar  5 13:54:36 2025 GMT
        Subject: CN=Client1529Cert5d89c4
        Subject Public Key Info:
            Public Key Algorithm: rsaEncryption
                Public-Key: (4096 bit)
                Modulus:
                    00:97:9a:66:7b:9d:ba:bb:c0:f3:00:0b:3f:fb:33:
                    ce:e4:57:62:a7:ad:45:07:81:87:95:35:ca:a5:36:
                    3e:8c:58:ca:ca:61:31:06:2f:5a:8f:12:06:2b:ae:
                    36:c6:e9:9e:1e:23:d5:22:99:93:07:ce:21:c5:f1:
                    e2:c7:71:f6:3a:ac:67:e9:ed:2a:dc:42:8f:28:eb:
                    ff:60:ac:c7:70:a5:08:2e:80:d5:a1:1d:bd:34:76:
                    ed:ae:94:44:ed:7b:24:4f:9a:ea:f8:f3:7d:f4:d8:
                    ca:c9:27:ee:eb:fe:b6:14:1d:61:61:27:92:f1:8b:
                    ff:b2:6e:db:d1:2e:91:7d:4e:5b:bd:54:b8:b2:e5:
                    ea:ff:19:82:8e:89:ce:67:d6:13:07:68:94:06:69:
                    14:33:56:4e:64:1d:f0:e9:b7:67:22:e5:31:f3:c9:
                    b9:47:b5:9e:94:40:f1:4b:d5:e8:8b:ea:9f:35:e5:
                    eb:89:16:74:3e:f1:05:25:09:88:5a:59:3d:19:2f:
                    dd:19:82:36:c4:54:1f:69:0f:4c:96:8e:2c:47:18:
                    ac:b1:b5:2c:cc:d5:b3:1b:36:b0:db:d6:a2:49:f2:
                    04:27:dc:53:d6:0e:0b:54:95:b2:7c:33:ca:f7:23:
                    e0:d2:9b:f4:df:76:8f:5e:8e:76:03:ae:07:bb:19:
                    bb:4e:51:5a:b2:84:59:23:98:85:5f:8a:bb:3d:81:
                    c0:b1:21:fe:b1:ab:41:d8:b4:e2:3a:62:0c:44:04:
                    fd:e4:77:4e:30:75:bd:c0:f7:1c:fd:40:de:ba:86:
                    00:d8:fe:37:1f:a8:50:82:e8:f1:aa:bf:2a:f8:20:
                    1f:34:87:5e:24:67:55:30:67:3f:aa:87:fd:53:56:
                    e1:89:e1:df:d6:1e:98:10:35:f5:53:d8:cf:58:c2:
                    c9:4b:3f:21:17:13:13:58:57:36:cf:d2:b1:20:3a:
                    ee:b8:1b:85:ab:f4:76:2b:6e:44:3e:aa:00:41:f2:
                    7c:3a:f6:23:35:fb:92:6e:8e:7d:43:58:e8:c2:e2:
                    87:09:65:c4:d3:5c:da:1a:11:a8:29:13:18:9e:b7:
                    9f:57:b6:7e:45:03:49:5d:ba:f1:b5:81:2e:0a:63:
                    88:65:b5:50:f8:55:3b:77:8d:c8:58:6a:38:61:19:
                    db:77:8f:de:c9:16:87:8e:c2:29:6b:98:0d:46:11:
                    97:dd:54:6a:3b:ee:d8:99:74:cb:05:16:4e:de:d0:
                    8c:d4:74:82:a4:fe:32:40:dd:79:79:e6:9c:33:59:
                    af:c7:36:63:db:af:24:f4:e8:a6:57:83:54:58:e4:
                    e2:7c:d6:2c:a7:71:e6:cf:14:e5:75:ee:0b:a9:b8:
                    09:2f:9f
                Exponent: 65537 (0x10001)
        X509v3 extensions:
            X509v3 Basic Constraints: 
                CA:FALSE
            Netscape Comment: 
                Easy-RSA Generated Certificate
            X509v3 Subject Key Identifier: 
                D7:A6:1C:71:2F:40:6C:5B:B2:BE:B8:94:4F:0E:82:F2:B0:F5:EB:84
            X509v3 Authority Key Identifier: 
                keyid:12:CD:60:04:D2:A0:80:9E:70:ED:C6:99:B8:7B:2C:C6:52:FD:19:A1
                DirName:/C=US/ST=OH/L=Columbus/O=VikingVPN/OU=MyOrganizationalUnit/CN=VikingVPN CA/name=EasyRSA/emailAddress=me@myhost.mydomain
                serial:CF:35:85:EE:80:BF:2A:3E

            X509v3 Extended Key Usage: 
                TLS Web Client Authentication
            X509v3 Key Usage: 
                Digital Signature
    Signature Algorithm: md5WithRSAEncryption
         ed:89:90:a9:a5:14:5a:6f:b9:b0:ba:ad:d4:8c:fc:7b:60:d1:
         f4:e9:5c:d5:fe:dd:a8:01:6d:76:2e:5f:1f:3c:d4:c8:b5:40:
         13:cd:6d:55:a3:3d:71:b7:23:aa:cf:3c:38:a3:9c:1a:b5:00:
         86:53:35:e0:94:17:a0:06:bd:92:0d:f8:cb:bf:94:52:10:b3:
         34:1e:00:2a:be:0c:15:5b:aa:e2:55:19:ee:d1:9f:37:84:97:
         a3:02:28:4b:4c:46:6b:e1:f1:a6:b1:9e:6e:d7:02:da:2f:26:
         9b:89:3b:42:e8:a7:3f:98:34:84:f6:ed:68:35:03:da:78:54:
         5a:ba:ea:9a:1d:7d:c1:9a:98:17:16:d4:e0:53:8d:e8:0b:e5:
         db:86:28:88:8e:40:92:e2:5e:71:e3:57:ca:09:50:ce:e4:ef:
         00:86:a8:c2:f0:22:02:4a:fd:05:2e:87:49:ce:39:4e:bd:29:
         c0:9c:5a:c7:9e:a1:bb:66:83:d4:c9:d3:09:0f:9d:87:15:c6:
         b9:b9:33:fd:29:eb:c9:c1:0e:06:bd:54:a8:9f:eb:ca:44:44:
         70:e4:64:5a:4f:a6:c7:fe:5e:b1:b1:10:e7:a2:48:04:7b:eb:
         cd:0c:89:2a:7a:dc:3b:94:b8:dc:9f:64:20:53:8f:f9:af:2d:
         3f:7b:64:10:ac:45:47:10:47:12:06:85:a8:ea:41:bb:00:45:
         14:f9:eb:90:4a:b1:4f:ce:39:78:ab:bb:87:a3:ea:74:12:dc:
         1e:40:95:03:2e:0e:ac:59:61:eb:09:12:f3:2b:2c:29:41:fa:
         10:80:33:ab:9f:a0:57:d1:5e:8b:08:0f:73:49:55:e3:ea:7c:
         3c:ca:00:e5:a0:27:b4:c3:92:8d:2e:5e:dc:3c:fd:5d:f4:11:
         fa:d7:2c:69:65:bb:80:c0:6c:34:cd:05:e2:57:a4:0d:9a:89:
         b0:f3:62:12:ff:18:ae:a7:63:5b:32:03:2b:97:54:86:bf:f8:
         e4:20:aa:1f:a7:3b:cd:8f:bc:cf:57:0d:96:15:82:14:94:2b:
         10:90:7c:13:1a:ac:ad:ec:98:ad:80:aa:c3:ab:18:77:08:02:
         c4:01:3a:f2:42:4a:89:7d:5f:27:ae:44:c5:9f:67:5b:2d:79:
         23:8d:4c:ba:b0:a9:9b:25:26:4e:24:51:ba:36:9e:07:bb:29:
         d7:91:f4:d9:37:c0:37:5d:3a:8c:50:6e:57:4a:66:53:c0:20:
         6c:1a:ea:23:e1:86:e3:dc:7c:24:6c:0f:f1:80:5c:50:9e:9d:
         3b:1e:65:8a:f4:48:24:0d:fe:7f:ea:04:df:f4:5e:b4:69:7c:
         ab:96:8a:da:bc:98:4c:64
-----BEGIN CERTIFICATE-----
MIIGrTCCBJWgAwIBAgICElcwDQYJKoZIhvcNAQEEBQAwgawxCzAJBgNVBAYTAlVT
MQswCQYDVQQIEwJPSDERMA8GA1UEBxMIQ29sdW1idXMxEjAQBgNVBAoTCVZpa2lu
Z1ZQTjEdMBsGA1UECxMUTXlPcmdhbml6YXRpb25hbFVuaXQxFTATBgNVBAMTDFZp
a2luZ1ZQTiBDQTEQMA4GA1UEKRMHRWFzeVJTQTEhMB8GCSqGSIb3DQEJARYSbWVA
bXlob3N0Lm15ZG9tYWluMB4XDTE1MDMwODEzNTQzNloXDTI1MDMwNTEzNTQzNlow
HzEdMBsGA1UEAxMUQ2xpZW50MTUyOUNlcnQ1ZDg5YzQwggIiMA0GCSqGSIb3DQEB
AQUAA4ICDwAwggIKAoICAQCXmmZ7nbq7wPMACz/7M87kV2KnrUUHgYeVNcqlNj6M
WMrKYTEGL1qPEgYrrjbG6Z4eI9UimZMHziHF8eLHcfY6rGfp7SrcQo8o6/9grMdw
pQgugNWhHb00du2ulETteyRPmur483302MrJJ+7r/rYUHWFhJ5Lxi/+ybtvRLpF9
Tlu9VLiy5er/GYKOic5n1hMHaJQGaRQzVk5kHfDpt2ci5THzyblHtZ6UQPFL1eiL
6p815euJFnQ+8QUlCYhaWT0ZL90ZgjbEVB9pD0yWjixHGKyxtSzM1bMbNrDb1qJJ
8gQn3FPWDgtUlbJ8M8r3I+DSm/Tfdo9ejnYDrge7GbtOUVqyhFkjmIVfirs9gcCx
If6xq0HYtOI6YgxEBP3kd04wdb3A9xz9QN66hgDY/jcfqFCC6PGqvyr4IB80h14k
Z1UwZz+qh/1TVuGJ4d/WHpgQNfVT2M9YwslLPyEXExNYVzbP0rEgOu64G4Wr9HYr
bkQ+qgBB8nw69iM1+5Jujn1DWOjC4ocJZcTTXNoaEagpExiet59Xtn5FA0lduvG1
gS4KY4hltVD4VTt3jchYajhhGdt3j97JFoeOwilrmA1GEZfdVGo77tiZdMsFFk7e
0IzUdIKk/jJA3Xl55pwzWa/HNmPbryT06KZXg1RY5OJ81iyncebPFOV17gupuAkv
nwIDAQABo4IBYzCCAV8wCQYDVR0TBAIwADAtBglghkgBhvhCAQ0EIBYeRWFzeS1S
U0EgR2VuZXJhdGVkIENlcnRpZmljYXRlMB0GA1UdDgQWBBTXphxxL0BsW7K+uJRP
DoLysPXrhDCB4QYDVR0jBIHZMIHWgBQSzWAE0qCAnnDtxpm4eyzGUv0ZoaGBsqSB
rzCBrDELMAkGA1UEBhMCVVMxCzAJBgNVBAgTAk9IMREwDwYDVQQHEwhDb2x1bWJ1
czESMBAGA1UEChMJVmlraW5nVlBOMR0wGwYDVQQLExRNeU9yZ2FuaXphdGlvbmFs
VW5pdDEVMBMGA1UEAxMMVmlraW5nVlBOIENBMRAwDgYDVQQpEwdFYXN5UlNBMSEw
HwYJKoZIhvcNAQkBFhJtZUBteWhvc3QubXlkb21haW6CCQDPNYXugL8qPjATBgNV
HSUEDDAKBggrBgEFBQcDAjALBgNVHQ8EBAMCB4AwDQYJKoZIhvcNAQEEBQADggIB
AO2JkKmlFFpvubC6rdSM/Htg0fTpXNX+3agBbXYuXx881Mi1QBPNbVWjPXG3I6rP
PDijnBq1AIZTNeCUF6AGvZIN+Mu/lFIQszQeACq+DBVbquJVGe7RnzeEl6MCKEtM
Rmvh8aaxnm7XAtovJpuJO0Lopz+YNIT27Wg1A9p4VFq66podfcGamBcW1OBTjegL
5duGKIiOQJLiXnHjV8oJUM7k7wCGqMLwIgJK/QUuh0nOOU69KcCcWseeobtmg9TJ
0wkPnYcVxrm5M/0p68nBDga9VKif68pERHDkZFpPpsf+XrGxEOeiSAR7680MiSp6
3DuUuNyfZCBTj/mvLT97ZBCsRUcQRxIGhajqQbsARRT565BKsU/OOXiru4ej6nQS
3B5AlQMuDqxZYesJEvMrLClB+hCAM6ufoFfRXosID3NJVePqfDzKAOWgJ7TDko0u
Xtw8/V30EfrXLGllu4DAbDTNBeJXpA2aibDzYhL/GK6nY1syAyuXVIa/+OQgqh+n
O82PvM9XDZYVghSUKxCQfBMarK3smK2AqsOrGHcIAsQBOvJCSol9XyeuRMWfZ1st
eSONTLqwqZslJk4kUbo2nge7KdeR9Nk3wDddOoxQbldKZlPAIGwa6iPhhuPcfCRs
D/GAXFCenTseZYr0SCQN/n/qBN/0XrRpfKuWitq8mExk
-----END CERTIFICATE-----
