Certificate:
    Data:
        Version: 3 (0x2)
        Serial Number: 4707 (0x1263)
    Signature Algorithm: md5WithRSAEncryption
        Issuer: C=US, ST=OH, L=Columbus, O=VikingVPN, OU=MyOrganizationalUnit, CN=VikingVPN CA/name=EasyRSA/emailAddress=me@myhost.mydomain
        Validity
            Not Before: Mar  9 14:36:18 2015 GMT
            Not After : Mar  6 14:36:18 2025 GMT
        Subject: CN=Client1355Certe52f2c
        Subject Public Key Info:
            Public Key Algorithm: rsaEncryption
                Public-Key: (4096 bit)
                Modulus:
                    00:db:89:c8:24:33:45:85:85:d3:2f:fd:d9:af:fb:
                    c3:bd:43:fa:cc:bb:ac:25:20:13:41:e0:2f:fa:2d:
                    ee:53:be:a3:0c:b7:1a:c5:30:f5:7d:57:36:c0:8e:
                    0e:cd:d8:22:b9:8f:35:4e:a4:53:27:57:30:25:7d:
                    97:c7:b2:e9:e7:10:96:dd:8b:a5:d0:4e:df:16:0e:
                    6e:e8:67:4f:37:25:03:c7:40:76:09:a2:a4:57:81:
                    33:75:37:04:2a:d3:78:16:2e:56:28:11:43:35:0b:
                    f7:64:70:d1:e5:1b:93:62:3d:53:d1:75:07:9a:45:
                    80:6e:27:c0:4a:39:77:29:80:73:18:8a:43:34:0a:
                    9b:d1:6a:e1:d7:86:3e:df:ef:bf:f5:07:ac:19:01:
                    1c:d0:64:09:d6:12:66:9b:1b:45:da:8e:08:09:60:
                    d6:a4:ae:cf:83:c6:65:62:73:67:1e:54:81:67:e1:
                    ce:b5:6e:1b:8d:61:cb:81:95:83:d7:f0:fb:a3:0a:
                    15:b0:02:7a:cd:d0:d4:cc:48:50:44:92:25:11:b1:
                    b3:77:25:17:bb:6a:60:08:9f:04:af:f5:fd:1b:97:
                    0e:35:a0:04:5c:44:a9:01:24:14:8d:63:b3:6a:2d:
                    f0:cc:99:43:06:e0:b1:9f:36:60:11:47:eb:89:f2:
                    b8:9c:94:cf:d8:7a:33:b0:5c:c7:5e:7b:f8:e6:ea:
                    27:b2:90:3d:12:40:82:98:62:bf:dc:d3:5d:1b:a8:
                    ee:ee:f8:5a:d9:b4:f5:ee:fb:e5:b4:12:4b:12:83:
                    9b:a3:20:cc:70:9e:92:b8:dd:1a:c8:82:28:a0:b1:
                    38:9e:7f:9b:9b:6a:12:6d:7d:c4:3e:27:e7:cf:a6:
                    52:a3:39:36:5b:d5:94:e0:18:59:0e:e5:4c:d2:b0:
                    ec:92:66:24:1f:e8:30:70:55:05:09:ab:63:d4:cd:
                    16:1a:3c:cc:0a:b2:34:ff:bd:a7:73:24:83:52:57:
                    08:4a:c0:98:cd:0a:2a:e6:9e:20:71:3d:f1:b3:8e:
                    95:52:31:01:f9:bf:cc:1c:27:fc:4a:b2:f3:0b:10:
                    14:b3:09:57:03:d5:68:8d:fe:b3:b9:70:e0:c8:e7:
                    8a:c7:cc:d5:26:b9:73:be:2e:42:74:6c:69:62:83:
                    e0:7e:0e:11:f8:ad:ef:5b:a0:7e:65:90:99:18:94:
                    7c:19:26:f8:61:c1:5d:f5:1c:eb:88:a1:08:0f:1e:
                    4f:df:29:28:fa:a4:45:df:c4:9e:63:6f:c1:35:de:
                    83:8b:68:58:4f:d3:3f:44:8d:ff:02:fd:f7:9a:aa:
                    5c:c1:94:8c:2d:63:6f:f7:25:17:fd:29:e8:29:ca:
                    a6:2b:5d
                Exponent: 65537 (0x10001)
        X509v3 extensions:
            X509v3 Basic Constraints: 
                CA:FALSE
            Netscape Comment: 
                Easy-RSA Generated Certificate
            X509v3 Subject Key Identifier: 
                8E:17:B8:32:77:A2:F4:AA:42:B6:F5:34:6F:E5:18:5A:8C:F3:68:E7
            X509v3 Authority Key Identifier: 
                keyid:12:CD:60:04:D2:A0:80:9E:70:ED:C6:99:B8:7B:2C:C6:52:FD:19:A1
                DirName:/C=US/ST=OH/L=Columbus/O=VikingVPN/OU=MyOrganizationalUnit/CN=VikingVPN CA/name=EasyRSA/emailAddress=me@myhost.mydomain
                serial:CF:35:85:EE:80:BF:2A:3E

            X509v3 Extended Key Usage: 
                TLS Web Client Authentication
            X509v3 Key Usage: 
                Digital Signature
    Signature Algorithm: md5WithRSAEncryption
         1b:f6:2d:f4:ee:a2:0e:b5:ba:89:bc:b5:d7:ce:1c:26:17:fd:
         ac:33:99:e6:64:0e:c6:2f:65:d6:92:9c:5d:6c:4c:d3:75:d1:
         dd:d3:72:7e:09:94:10:95:fd:3d:63:99:66:ef:7f:26:db:b8:
         18:67:5a:58:42:31:57:03:ab:58:a9:c8:ec:6d:e4:06:7a:87:
         14:eb:03:bf:b3:3f:f8:90:3c:32:1c:9b:14:b7:31:cd:19:16:
         c1:c2:6d:93:3d:86:5e:c7:92:9e:ec:a3:41:7a:89:13:66:83:
         d2:0e:bb:a9:1a:c9:fc:39:a8:9a:0d:6d:22:54:43:3b:9c:5a:
         bb:15:df:6c:2a:18:b1:67:66:ad:7e:b8:52:27:6a:34:ad:3a:
         82:b4:1b:08:69:66:6f:c6:56:8c:04:77:63:00:ab:83:71:cc:
         99:31:f1:64:95:ee:2f:5d:6e:2f:8d:d1:fd:2e:da:16:68:d8:
         29:69:b4:0b:43:1b:6c:f6:51:73:bf:b5:b6:ad:17:f7:39:92:
         2c:49:14:42:3d:80:b9:4d:08:58:d9:38:0c:63:b3:c1:11:29:
         14:b6:76:9a:ab:2a:4b:bd:13:f0:99:d1:2e:eb:43:64:85:5c:
         b2:dc:cc:d8:d8:08:1e:d0:d9:2b:cb:6e:1a:2e:f6:16:5b:0c:
         c4:6c:22:a7:31:26:15:b4:60:17:7f:8f:71:20:95:a1:be:94:
         36:08:7b:20:36:19:28:06:1e:22:63:d2:3f:49:a9:97:6d:13:
         6c:62:4d:75:c2:00:77:61:ed:1a:9a:aa:bb:ae:10:6d:8a:aa:
         0d:04:3b:67:28:a2:ed:b8:fe:2e:2d:bf:e9:1c:67:07:c4:87:
         ac:dd:d5:f5:10:0f:ca:a4:d1:60:62:f3:a2:ca:f2:9c:b0:39:
         1f:73:6e:80:4e:58:9d:df:78:3a:a3:e3:2a:e4:65:05:3a:08:
         86:d8:49:63:c7:4b:94:32:16:6e:64:65:28:80:cd:07:c2:ea:
         96:6b:f1:a1:f5:dd:9b:70:4a:e7:38:cc:4b:77:fc:f0:93:1e:
         83:12:4a:f5:c2:c2:90:4f:dc:20:02:48:0c:45:a7:c7:39:1c:
         5b:53:e3:6f:aa:7f:a4:d1:dd:3d:89:7a:95:72:de:a2:34:13:
         42:aa:a8:6e:3c:ec:96:01:e6:df:ad:79:f1:35:96:e8:9d:7b:
         db:9f:ad:ef:7a:05:e9:2d:ca:13:e9:ac:be:cf:0b:a4:52:f9:
         27:ae:09:da:13:df:ff:0f:7e:f0:16:db:29:16:ec:47:0a:fb:
         d8:72:7f:54:92:85:84:a3:7c:d2:61:dc:02:1c:07:97:c3:33:
         f5:56:cb:6d:9e:00:2a:5e
-----BEGIN CERTIFICATE-----
MIIGrTCCBJWgAwIBAgICEmMwDQYJKoZIhvcNAQEEBQAwgawxCzAJBgNVBAYTAlVT
MQswCQYDVQQIEwJPSDERMA8GA1UEBxMIQ29sdW1idXMxEjAQBgNVBAoTCVZpa2lu
Z1ZQTjEdMBsGA1UECxMUTXlPcmdhbml6YXRpb25hbFVuaXQxFTATBgNVBAMTDFZp
a2luZ1ZQTiBDQTEQMA4GA1UEKRMHRWFzeVJTQTEhMB8GCSqGSIb3DQEJARYSbWVA
bXlob3N0Lm15ZG9tYWluMB4XDTE1MDMwOTE0MzYxOFoXDTI1MDMwNjE0MzYxOFow
HzEdMBsGA1UEAxMUQ2xpZW50MTM1NUNlcnRlNTJmMmMwggIiMA0GCSqGSIb3DQEB
AQUAA4ICDwAwggIKAoICAQDbicgkM0WFhdMv/dmv+8O9Q/rMu6wlIBNB4C/6Le5T
vqMMtxrFMPV9VzbAjg7N2CK5jzVOpFMnVzAlfZfHsunnEJbdi6XQTt8WDm7oZ083
JQPHQHYJoqRXgTN1NwQq03gWLlYoEUM1C/dkcNHlG5NiPVPRdQeaRYBuJ8BKOXcp
gHMYikM0CpvRauHXhj7f77/1B6wZARzQZAnWEmabG0XajggJYNakrs+DxmVic2ce
VIFn4c61bhuNYcuBlYPX8PujChWwAnrN0NTMSFBEkiURsbN3JRe7amAInwSv9f0b
lw41oARcRKkBJBSNY7NqLfDMmUMG4LGfNmARR+uJ8riclM/YejOwXMdee/jm6iey
kD0SQIKYYr/c010bqO7u+FrZtPXu++W0EksSg5ujIMxwnpK43RrIgiigsTief5ub
ahJtfcQ+J+fPplKjOTZb1ZTgGFkO5UzSsOySZiQf6DBwVQUJq2PUzRYaPMwKsjT/
vadzJINSVwhKwJjNCirmniBxPfGzjpVSMQH5v8wcJ/xKsvMLEBSzCVcD1WiN/rO5
cODI54rHzNUmuXO+LkJ0bGlig+B+DhH4re9boH5lkJkYlHwZJvhhwV31HOuIoQgP
Hk/fKSj6pEXfxJ5jb8E13oOLaFhP0z9Ejf8C/feaqlzBlIwtY2/3JRf9KegpyqYr
XQIDAQABo4IBYzCCAV8wCQYDVR0TBAIwADAtBglghkgBhvhCAQ0EIBYeRWFzeS1S
U0EgR2VuZXJhdGVkIENlcnRpZmljYXRlMB0GA1UdDgQWBBSOF7gyd6L0qkK29TRv
5RhajPNo5zCB4QYDVR0jBIHZMIHWgBQSzWAE0qCAnnDtxpm4eyzGUv0ZoaGBsqSB
rzCBrDELMAkGA1UEBhMCVVMxCzAJBgNVBAgTAk9IMREwDwYDVQQHEwhDb2x1bWJ1
czESMBAGA1UEChMJVmlraW5nVlBOMR0wGwYDVQQLExRNeU9yZ2FuaXphdGlvbmFs
VW5pdDEVMBMGA1UEAxMMVmlraW5nVlBOIENBMRAwDgYDVQQpEwdFYXN5UlNBMSEw
HwYJKoZIhvcNAQkBFhJtZUBteWhvc3QubXlkb21haW6CCQDPNYXugL8qPjATBgNV
HSUEDDAKBggrBgEFBQcDAjALBgNVHQ8EBAMCB4AwDQYJKoZIhvcNAQEEBQADggIB
ABv2LfTuog61uom8tdfOHCYX/awzmeZkDsYvZdaSnF1sTNN10d3Tcn4JlBCV/T1j
mWbvfybbuBhnWlhCMVcDq1ipyOxt5AZ6hxTrA7+zP/iQPDIcmxS3Mc0ZFsHCbZM9
hl7Hkp7so0F6iRNmg9IOu6kayfw5qJoNbSJUQzucWrsV32wqGLFnZq1+uFInajSt
OoK0GwhpZm/GVowEd2MAq4NxzJkx8WSV7i9dbi+N0f0u2hZo2ClptAtDG2z2UXO/
tbatF/c5kixJFEI9gLlNCFjZOAxjs8ERKRS2dpqrKku9E/CZ0S7rQ2SFXLLczNjY
CB7Q2SvLbhou9hZbDMRsIqcxJhW0YBd/j3EglaG+lDYIeyA2GSgGHiJj0j9JqZdt
E2xiTXXCAHdh7RqaqruuEG2Kqg0EO2coou24/i4tv+kcZwfEh6zd1fUQD8qk0WBi
86LK8pywOR9zboBOWJ3feDqj4yrkZQU6CIbYSWPHS5QyFm5kZSiAzQfC6pZr8aH1
3ZtwSuc4zEt3/PCTHoMSSvXCwpBP3CACSAxFp8c5HFtT42+qf6TR3T2JepVy3qI0
E0KqqG487JYB5t+tefE1luide9ufre96BektyhPprL7PC6RS+SeuCdoT3/8PfvAW
2ykW7EcK+9hyf1SShYSjfNJh3AIcB5fDM/VWy22eACpe
-----END CERTIFICATE-----
