Certificate:
    Data:
        Version: 3 (0x2)
        Serial Number: 4721 (0x1271)
    Signature Algorithm: md5WithRSAEncryption
        Issuer: C=US, ST=OH, L=Columbus, O=VikingVPN, OU=MyOrganizationalUnit, CN=VikingVPN CA/name=EasyRSA/emailAddress=me@myhost.mydomain
        Validity
            Not Before: Mar 12 22:32:04 2015 GMT
            Not After : Mar  9 22:32:04 2025 GMT
        Subject: CN=Client607Cert273aef
        Subject Public Key Info:
            Public Key Algorithm: rsaEncryption
                Public-Key: (4096 bit)
                Modulus:
                    00:c4:bf:2e:08:ac:54:7d:7a:19:3f:e6:98:a4:be:
                    c9:9d:52:f2:f8:12:52:36:65:cd:a6:9e:1d:bb:42:
                    00:49:ab:5a:b7:0a:08:67:f7:7d:fe:96:9f:d7:2e:
                    56:4a:44:41:97:be:ab:b2:ea:81:ea:19:92:50:45:
                    16:8e:d6:6e:e3:31:64:b2:c2:4a:11:89:2d:c5:cc:
                    de:36:88:a4:48:2a:8d:82:fc:cd:f1:e1:e3:dd:6e:
                    cc:23:a1:80:9f:e3:6d:4a:02:68:80:a7:e7:d1:16:
                    1f:b0:76:c1:cf:a7:18:5d:51:a4:6d:92:dd:f6:0d:
                    b8:64:2f:18:9a:ab:ac:f6:a2:8a:55:98:c3:63:d8:
                    66:e2:a6:d3:d6:db:02:83:9c:97:76:5b:1b:ae:72:
                    1f:18:ce:df:7c:8e:15:61:05:95:b7:cc:3f:0f:c5:
                    b4:22:1d:eb:8e:cf:53:ea:41:6c:48:6d:58:9d:81:
                    fe:69:cd:46:bb:b1:2c:6b:e6:c0:c7:62:77:01:09:
                    91:27:3a:9d:ee:8e:41:e1:95:71:7f:17:70:d3:d8:
                    e0:30:e4:a6:8b:cd:cb:90:b0:5b:7a:fe:13:e2:73:
                    89:e6:ef:0c:22:51:55:df:c8:f1:e0:8d:16:71:81:
                    9d:1f:49:02:02:90:39:a2:bb:cd:59:76:0d:e4:73:
                    8d:52:75:ed:74:50:e0:01:f5:8e:17:04:6a:03:84:
                    a8:84:fb:0e:48:d1:99:17:50:b6:dd:07:e4:56:bb:
                    ef:0e:bd:7a:9d:b2:3e:65:5e:be:fa:7b:ca:18:51:
                    5b:b5:1b:45:e1:73:d5:72:e7:4f:f9:6a:a6:57:32:
                    ba:9a:99:84:08:0c:87:0f:14:75:97:92:bf:67:c6:
                    62:0b:28:f7:45:9a:fb:8f:d1:ca:98:e2:43:00:50:
                    e4:37:da:f1:bf:e8:7f:8b:eb:e6:2b:3c:e8:69:b6:
                    be:ad:a0:54:3a:c4:15:28:db:89:47:a9:f1:37:6b:
                    36:7f:5d:3b:94:24:4a:76:61:c1:26:b9:8e:13:00:
                    da:b4:ef:0f:2a:f5:88:fd:ae:17:b5:f1:37:59:e2:
                    7f:71:ae:e3:c6:9d:9c:7c:4e:a2:7f:de:ef:15:75:
                    77:88:5c:b9:c8:9b:f1:39:4b:46:d1:d7:7f:62:a2:
                    4a:9a:f9:31:bc:8c:fb:fd:f6:06:9f:ea:26:45:b3:
                    c8:a7:ce:6a:63:3c:50:bd:e8:48:14:02:c6:a5:61:
                    33:8d:5f:06:09:fe:29:b2:56:cd:22:d9:0a:56:46:
                    ac:36:96:2a:ba:8c:3e:ba:74:63:4f:13:ca:c1:8e:
                    54:b3:1e:bc:a4:51:f9:e4:59:3e:de:17:d8:c9:de:
                    2f:39:e9
                Exponent: 65537 (0x10001)
        X509v3 extensions:
            X509v3 Basic Constraints: 
                CA:FALSE
            Netscape Comment: 
                Easy-RSA Generated Certificate
            X509v3 Subject Key Identifier: 
                A6:28:4E:E8:C9:57:DC:05:E8:B8:A4:8D:C8:C3:1A:81:62:23:05:D8
            X509v3 Authority Key Identifier: 
                keyid:12:CD:60:04:D2:A0:80:9E:70:ED:C6:99:B8:7B:2C:C6:52:FD:19:A1
                DirName:/C=US/ST=OH/L=Columbus/O=VikingVPN/OU=MyOrganizationalUnit/CN=VikingVPN CA/name=EasyRSA/emailAddress=me@myhost.mydomain
                serial:CF:35:85:EE:80:BF:2A:3E

            X509v3 Extended Key Usage: 
                TLS Web Client Authentication
            X509v3 Key Usage: 
                Digital Signature
    Signature Algorithm: md5WithRSAEncryption
         d5:86:39:60:9c:71:94:82:30:2b:01:28:f7:eb:db:23:35:e5:
         bc:97:88:9d:c2:7a:9a:39:00:64:06:ae:c4:bc:87:0d:b4:35:
         9d:14:90:f9:58:12:9a:84:61:50:4a:92:f7:e1:07:27:de:5d:
         46:6d:76:d0:dd:1a:3a:2f:b7:05:04:7f:de:61:6e:83:12:df:
         98:9b:51:19:8c:b6:6c:3d:1d:9a:62:e2:7a:04:a7:54:cb:85:
         b1:ea:3d:c6:1a:a3:2c:1d:ea:0a:3d:09:de:a7:a6:12:41:6f:
         41:21:97:1f:11:8e:3a:32:d7:1f:ff:10:fe:32:99:f3:8c:da:
         17:34:4a:0e:53:0e:21:6e:11:bf:d3:dc:c9:74:80:96:18:36:
         4e:13:f9:e3:56:fe:2c:38:55:66:a2:bc:c1:62:63:30:81:5b:
         78:69:e3:9a:29:00:2a:a5:94:0a:95:5e:fc:db:82:76:54:e0:
         ce:9c:d3:ea:53:f5:68:17:22:5d:85:17:de:80:12:c9:ae:a4:
         28:c7:7d:68:39:fb:f7:66:74:8c:f8:90:ea:80:ab:fe:62:0c:
         6c:9a:d8:2f:22:93:5c:d6:4f:c0:27:f4:2b:4a:cf:0f:c3:f3:
         d0:b5:08:c9:ff:51:0b:e8:a3:41:00:d2:54:d6:ba:d5:76:d3:
         e9:dd:00:8e:b6:58:ab:f9:e9:e1:db:df:92:57:37:32:8a:d2:
         7e:96:9a:d8:d3:f2:46:7d:87:b6:4a:c1:a5:bb:ad:ba:07:3a:
         36:65:9d:33:dc:84:5f:1d:63:62:c0:4e:8c:91:19:14:c5:38:
         af:37:87:45:ff:c8:51:6c:92:81:ac:c0:33:a3:34:79:b0:cb:
         51:b1:38:c2:2c:8c:6d:a1:73:b2:4a:f9:67:7e:5a:ff:de:37:
         e8:e0:2b:44:b5:3f:e7:7a:fb:f8:21:0d:b6:a3:46:f7:98:1b:
         de:92:42:66:1f:6c:83:28:5d:01:44:c3:a5:87:59:15:fb:ed:
         65:fd:da:46:34:fa:14:d0:07:46:04:4a:32:e2:b3:05:d5:bd:
         3d:4a:cc:07:1d:46:7e:a0:27:92:4c:75:9a:a1:bb:fa:ce:0d:
         5c:32:34:7e:f7:92:f6:ab:ea:e3:34:46:09:fa:23:02:db:65:
         38:6e:13:f2:cc:f8:29:45:ab:85:30:f8:34:92:46:e3:87:9c:
         97:b4:f7:37:6d:5b:85:0e:e9:c0:97:1a:0c:68:13:d4:bf:39:
         e0:7c:dd:ab:43:39:2d:f7:c9:31:66:dd:e8:ab:94:df:3d:93:
         ca:f6:5b:13:2c:f2:57:6d:b4:8d:95:64:c5:02:fa:ab:77:38:
         fe:f7:ed:dc:86:a5:8c:6b
-----BEGIN CERTIFICATE-----
MIIGrDCCBJSgAwIBAgICEnEwDQYJKoZIhvcNAQEEBQAwgawxCzAJBgNVBAYTAlVT
MQswCQYDVQQIEwJPSDERMA8GA1UEBxMIQ29sdW1idXMxEjAQBgNVBAoTCVZpa2lu
Z1ZQTjEdMBsGA1UECxMUTXlPcmdhbml6YXRpb25hbFVuaXQxFTATBgNVBAMTDFZp
a2luZ1ZQTiBDQTEQMA4GA1UEKRMHRWFzeVJTQTEhMB8GCSqGSIb3DQEJARYSbWVA
bXlob3N0Lm15ZG9tYWluMB4XDTE1MDMxMjIyMzIwNFoXDTI1MDMwOTIyMzIwNFow
HjEcMBoGA1UEAxMTQ2xpZW50NjA3Q2VydDI3M2FlZjCCAiIwDQYJKoZIhvcNAQEB
BQADggIPADCCAgoCggIBAMS/LgisVH16GT/mmKS+yZ1S8vgSUjZlzaaeHbtCAEmr
WrcKCGf3ff6Wn9cuVkpEQZe+q7LqgeoZklBFFo7WbuMxZLLCShGJLcXM3jaIpEgq
jYL8zfHh491uzCOhgJ/jbUoCaICn59EWH7B2wc+nGF1RpG2S3fYNuGQvGJqrrPai
ilWYw2PYZuKm09bbAoOcl3ZbG65yHxjO33yOFWEFlbfMPw/FtCId647PU+pBbEht
WJ2B/mnNRruxLGvmwMdidwEJkSc6ne6OQeGVcX8XcNPY4DDkpovNy5CwW3r+E+Jz
iebvDCJRVd/I8eCNFnGBnR9JAgKQOaK7zVl2DeRzjVJ17XRQ4AH1jhcEagOEqIT7
DkjRmRdQtt0H5Fa77w69ep2yPmVevvp7yhhRW7UbReFz1XLnT/lqplcyupqZhAgM
hw8UdZeSv2fGYgso90Wa+4/RypjiQwBQ5Dfa8b/of4vr5is86Gm2vq2gVDrEFSjb
iUep8TdrNn9dO5QkSnZhwSa5jhMA2rTvDyr1iP2uF7XxN1nif3Gu48adnHxOon/e
7xV1d4hcucib8TlLRtHXf2KiSpr5MbyM+/32Bp/qJkWzyKfOamM8UL3oSBQCxqVh
M41fBgn+KbJWzSLZClZGrDaWKrqMPrp0Y08TysGOVLMevKRR+eRZPt4X2MneLznp
AgMBAAGjggFjMIIBXzAJBgNVHRMEAjAAMC0GCWCGSAGG+EIBDQQgFh5FYXN5LVJT
QSBHZW5lcmF0ZWQgQ2VydGlmaWNhdGUwHQYDVR0OBBYEFKYoTujJV9wF6LikjcjD
GoFiIwXYMIHhBgNVHSMEgdkwgdaAFBLNYATSoICecO3Gmbh7LMZS/RmhoYGypIGv
MIGsMQswCQYDVQQGEwJVUzELMAkGA1UECBMCT0gxETAPBgNVBAcTCENvbHVtYnVz
MRIwEAYDVQQKEwlWaWtpbmdWUE4xHTAbBgNVBAsTFE15T3JnYW5pemF0aW9uYWxV
bml0MRUwEwYDVQQDEwxWaWtpbmdWUE4gQ0ExEDAOBgNVBCkTB0Vhc3lSU0ExITAf
BgkqhkiG9w0BCQEWEm1lQG15aG9zdC5teWRvbWFpboIJAM81he6Avyo+MBMGA1Ud
JQQMMAoGCCsGAQUFBwMCMAsGA1UdDwQEAwIHgDANBgkqhkiG9w0BAQQFAAOCAgEA
1YY5YJxxlIIwKwEo9+vbIzXlvJeIncJ6mjkAZAauxLyHDbQ1nRSQ+VgSmoRhUEqS
9+EHJ95dRm120N0aOi+3BQR/3mFugxLfmJtRGYy2bD0dmmLiegSnVMuFseo9xhqj
LB3qCj0J3qemEkFvQSGXHxGOOjLXH/8Q/jKZ84zaFzRKDlMOIW4Rv9PcyXSAlhg2
ThP541b+LDhVZqK8wWJjMIFbeGnjmikAKqWUCpVe/NuCdlTgzpzT6lP1aBciXYUX
3oASya6kKMd9aDn792Z0jPiQ6oCr/mIMbJrYLyKTXNZPwCf0K0rPD8Pz0LUIyf9R
C+ijQQDSVNa61XbT6d0AjrZYq/np4dvfklc3MorSfpaa2NPyRn2HtkrBpbutugc6
NmWdM9yEXx1jYsBOjJEZFMU4rzeHRf/IUWySgazAM6M0ebDLUbE4wiyMbaFzskr5
Z35a/9436OArRLU/53r7+CENtqNG95gb3pJCZh9sgyhdAUTDpYdZFfvtZf3aRjT6
FNAHRgRKMuKzBdW9PUrMBx1GfqAnkkx1mqG7+s4NXDI0fveS9qvq4zRGCfojAttl
OG4T8sz4KUWrhTD4NJJG44ecl7T3N21bhQ7pwJcaDGgT1L854Hzdq0M5LffJMWbd
6KuU3z2TyvZbEyzyV220jZVkxQL6q3c4/vft3IaljGs=
-----END CERTIFICATE-----
