Certificate:
    Data:
        Version: 3 (0x2)
        Serial Number: 4790 (0x12b6)
    Signature Algorithm: md5WithRSAEncryption
        Issuer: C=US, ST=OH, L=Columbus, O=VikingVPN, OU=MyOrganizationalUnit, CN=VikingVPN CA/name=EasyRSA/emailAddress=me@myhost.mydomain
        Validity
            Not Before: Mar 23 14:59:39 2015 GMT
            Not After : Mar 20 14:59:39 2025 GMT
        Subject: CN=Client1556Cert281c44
        Subject Public Key Info:
            Public Key Algorithm: rsaEncryption
                Public-Key: (4096 bit)
                Modulus:
                    00:d6:46:01:c3:65:b8:68:b7:fa:62:9d:a7:10:25:
                    75:67:bb:cc:cb:a0:d8:da:ac:0e:01:18:26:f3:a0:
                    ee:e3:36:a0:ed:2f:3a:bb:b7:5b:e1:b5:ce:6e:62:
                    2d:82:ed:f9:30:af:99:4b:ca:94:4d:f1:b2:3d:f4:
                    d7:e0:64:b8:13:e0:e8:40:7b:52:4b:81:22:8b:4a:
                    58:db:43:a2:2d:f0:48:63:87:21:aa:77:1f:59:f8:
                    74:b7:b5:c5:30:99:c5:bf:7f:e0:18:c4:3e:0a:57:
                    78:56:1e:f7:e9:ba:fa:d7:d9:c1:a6:26:ed:44:b4:
                    8c:89:32:16:3c:82:e9:9c:52:0e:af:e3:19:d5:06:
                    e4:7e:7e:b0:0e:c3:8d:33:3f:6b:85:c5:07:20:08:
                    67:6a:86:d1:8e:f4:80:a0:c6:ae:51:6c:92:a7:78:
                    87:3f:ea:7f:c1:2b:dd:68:dd:13:4e:39:06:a8:52:
                    6c:b3:aa:e3:f7:e4:a0:48:d1:79:61:31:4a:d6:40:
                    d9:68:3e:90:30:61:bb:e7:55:32:59:6a:5e:69:5c:
                    1b:e3:d4:a1:53:7d:46:03:a1:39:67:c7:d4:5b:97:
                    f0:1b:a7:e6:46:8c:1f:5b:fa:55:99:92:e5:0f:cc:
                    49:af:78:7b:af:65:b2:b9:60:c6:9a:f9:94:c9:4e:
                    a3:04:86:0f:2f:bd:2a:f1:8f:35:c4:98:be:7b:cc:
                    3f:a7:a2:49:3e:f4:d9:49:8e:58:6f:31:97:1e:8d:
                    20:95:ce:b2:0d:06:56:c6:b3:5f:c3:d6:e3:e4:e1:
                    5f:20:0d:91:ca:8d:41:88:2e:27:b6:7e:50:6d:78:
                    1f:02:8f:6f:2d:e4:17:c8:a0:7d:4e:4f:af:f1:01:
                    bf:05:56:59:a4:f8:e9:43:ec:93:1e:66:f0:fb:73:
                    e1:bb:17:5b:fc:a7:36:c1:7f:bb:ca:54:5b:cc:6e:
                    cf:62:5c:bd:79:7d:0d:b6:8b:5f:be:98:c1:b7:d2:
                    8d:a6:0b:4e:b0:fe:b4:43:46:39:05:ac:17:14:21:
                    03:af:0b:17:33:8a:cf:1f:3f:33:6d:80:12:d8:dd:
                    01:37:1a:ee:ec:f1:36:bf:e0:f5:44:18:fb:4c:a1:
                    cb:56:2e:be:95:f1:dc:ff:df:45:de:12:66:d4:da:
                    53:79:3e:6c:96:ca:f0:95:3d:f5:41:6f:6f:3e:a9:
                    96:ab:ae:1e:a4:f7:be:be:9d:0a:43:47:39:95:0a:
                    4d:37:a6:5c:ed:79:17:c4:6f:c7:d4:45:03:06:22:
                    c2:ba:e8:0d:cf:59:2c:27:6a:34:dc:d0:80:2e:1c:
                    3e:f0:c3:90:f4:97:8c:33:40:b1:ec:02:8c:ec:38:
                    be:7f:f9
                Exponent: 65537 (0x10001)
        X509v3 extensions:
            X509v3 Basic Constraints: 
                CA:FALSE
            Netscape Comment: 
                Easy-RSA Generated Certificate
            X509v3 Subject Key Identifier: 
                AC:42:AD:46:2C:99:ED:3F:31:3C:1D:C5:EF:2F:2C:D0:93:FB:44:23
            X509v3 Authority Key Identifier: 
                keyid:12:CD:60:04:D2:A0:80:9E:70:ED:C6:99:B8:7B:2C:C6:52:FD:19:A1
                DirName:/C=US/ST=OH/L=Columbus/O=VikingVPN/OU=MyOrganizationalUnit/CN=VikingVPN CA/name=EasyRSA/emailAddress=me@myhost.mydomain
                serial:CF:35:85:EE:80:BF:2A:3E

            X509v3 Extended Key Usage: 
                TLS Web Client Authentication
            X509v3 Key Usage: 
                Digital Signature
    Signature Algorithm: md5WithRSAEncryption
         c1:95:c5:16:91:cb:9b:41:e7:c6:2f:b8:e0:05:1a:22:f7:ca:
         56:6f:7c:25:a3:0b:c5:78:a0:93:14:33:6b:69:aa:ad:70:1a:
         95:53:1d:12:19:ef:5e:f2:f6:56:84:34:12:76:c6:2b:ce:d7:
         0c:00:51:fe:dd:f2:d2:da:f6:19:a7:9c:35:c6:6c:6a:65:a7:
         1e:ab:0b:12:da:85:de:a2:89:c7:eb:3b:cb:e7:a9:f6:4f:76:
         c3:bb:b3:67:8b:be:3f:29:60:73:68:5c:c9:6d:6c:b3:2f:66:
         fa:cd:71:ce:0f:79:be:ab:fe:d1:84:e5:8c:12:ae:18:5a:f5:
         1d:a5:3b:2f:65:1e:45:45:47:d1:18:4c:5e:e3:c6:f9:54:f4:
         0d:57:b4:b5:ec:58:01:a9:58:c9:32:ff:20:8c:67:31:53:51:
         d5:a4:90:94:1a:30:2b:b5:4e:44:61:da:93:ec:7b:74:5d:f7:
         fa:8c:65:75:dd:35:1b:ad:ea:39:0e:a5:da:70:76:66:d3:68:
         c7:2e:e1:9f:2b:60:0a:af:cb:bb:fa:a0:35:e5:85:d3:d6:f2:
         e1:73:a6:ee:5c:a8:c0:14:33:e7:0e:24:1e:f2:f0:7c:3c:e1:
         e6:e8:f3:49:b5:23:76:d5:b8:9e:a1:6f:fd:c8:e8:7a:9d:ed:
         ac:12:d6:e3:ec:cd:83:84:09:48:2a:72:ae:c1:fe:04:ac:7a:
         66:25:28:6a:44:ac:28:5b:0a:44:c7:8f:59:da:02:ca:e7:77:
         2e:29:5a:a7:84:84:6e:6b:02:28:8d:2d:df:64:75:2d:5e:c7:
         12:a7:e6:f7:da:61:b6:70:32:88:03:b0:5b:13:02:58:00:fd:
         56:3d:ed:df:f1:58:1e:ad:08:75:99:16:5e:ac:2c:a7:30:94:
         55:5c:23:4b:44:9b:67:63:6a:db:2a:46:cc:07:5b:85:8a:35:
         fa:d3:5f:53:4c:e8:7a:39:63:56:0e:a9:dd:d4:9e:09:1d:0b:
         14:9e:6a:c3:cd:8c:02:e4:e4:71:54:c0:b2:0b:f0:c6:1e:13:
         5e:fc:bb:6a:1a:c8:11:84:88:88:9c:21:71:dc:db:36:00:e5:
         d9:ef:71:3b:b9:82:a8:c6:92:79:03:4f:80:4e:2a:07:80:30:
         c5:24:00:79:33:5f:87:37:00:3a:89:9e:32:19:2f:68:e1:82:
         91:32:b2:d5:26:f5:22:74:f8:f6:a3:2b:25:28:ef:86:92:38:
         4f:04:8a:4c:38:59:2b:63:f9:98:43:b3:da:71:1d:52:88:74:
         bd:0a:d6:c2:b4:d3:b0:14:01:ba:c8:f9:91:99:bb:f6:1a:57:
         4d:20:4e:6f:65:53:05:d3
-----BEGIN CERTIFICATE-----
MIIGrTCCBJWgAwIBAgICErYwDQYJKoZIhvcNAQEEBQAwgawxCzAJBgNVBAYTAlVT
MQswCQYDVQQIEwJPSDERMA8GA1UEBxMIQ29sdW1idXMxEjAQBgNVBAoTCVZpa2lu
Z1ZQTjEdMBsGA1UECxMUTXlPcmdhbml6YXRpb25hbFVuaXQxFTATBgNVBAMTDFZp
a2luZ1ZQTiBDQTEQMA4GA1UEKRMHRWFzeVJTQTEhMB8GCSqGSIb3DQEJARYSbWVA
bXlob3N0Lm15ZG9tYWluMB4XDTE1MDMyMzE0NTkzOVoXDTI1MDMyMDE0NTkzOVow
HzEdMBsGA1UEAxMUQ2xpZW50MTU1NkNlcnQyODFjNDQwggIiMA0GCSqGSIb3DQEB
AQUAA4ICDwAwggIKAoICAQDWRgHDZbhot/pinacQJXVnu8zLoNjarA4BGCbzoO7j
NqDtLzq7t1vhtc5uYi2C7fkwr5lLypRN8bI99NfgZLgT4OhAe1JLgSKLSljbQ6It
8EhjhyGqdx9Z+HS3tcUwmcW/f+AYxD4KV3hWHvfpuvrX2cGmJu1EtIyJMhY8gumc
Ug6v4xnVBuR+frAOw40zP2uFxQcgCGdqhtGO9ICgxq5RbJKneIc/6n/BK91o3RNO
OQaoUmyzquP35KBI0XlhMUrWQNloPpAwYbvnVTJZal5pXBvj1KFTfUYDoTlnx9Rb
l/Abp+ZGjB9b+lWZkuUPzEmveHuvZbK5YMaa+ZTJTqMEhg8vvSrxjzXEmL57zD+n
okk+9NlJjlhvMZcejSCVzrINBlbGs1/D1uPk4V8gDZHKjUGILie2flBteB8Cj28t
5BfIoH1OT6/xAb8FVlmk+OlD7JMeZvD7c+G7F1v8pzbBf7vKVFvMbs9iXL15fQ22
i1++mMG30o2mC06w/rRDRjkFrBcUIQOvCxczis8fPzNtgBLY3QE3Gu7s8Ta/4PVE
GPtMoctWLr6V8dz/30XeEmbU2lN5PmyWyvCVPfVBb28+qZarrh6k976+nQpDRzmV
Ck03plzteRfEb8fURQMGIsK66A3PWSwnajTc0IAuHD7ww5D0l4wzQLHsAozsOL5/
+QIDAQABo4IBYzCCAV8wCQYDVR0TBAIwADAtBglghkgBhvhCAQ0EIBYeRWFzeS1S
U0EgR2VuZXJhdGVkIENlcnRpZmljYXRlMB0GA1UdDgQWBBSsQq1GLJntPzE8HcXv
LyzQk/tEIzCB4QYDVR0jBIHZMIHWgBQSzWAE0qCAnnDtxpm4eyzGUv0ZoaGBsqSB
rzCBrDELMAkGA1UEBhMCVVMxCzAJBgNVBAgTAk9IMREwDwYDVQQHEwhDb2x1bWJ1
czESMBAGA1UEChMJVmlraW5nVlBOMR0wGwYDVQQLExRNeU9yZ2FuaXphdGlvbmFs
VW5pdDEVMBMGA1UEAxMMVmlraW5nVlBOIENBMRAwDgYDVQQpEwdFYXN5UlNBMSEw
HwYJKoZIhvcNAQkBFhJtZUBteWhvc3QubXlkb21haW6CCQDPNYXugL8qPjATBgNV
HSUEDDAKBggrBgEFBQcDAjALBgNVHQ8EBAMCB4AwDQYJKoZIhvcNAQEEBQADggIB
AMGVxRaRy5tB58YvuOAFGiL3ylZvfCWjC8V4oJMUM2tpqq1wGpVTHRIZ717y9laE
NBJ2xivO1wwAUf7d8tLa9hmnnDXGbGplpx6rCxLahd6iicfrO8vnqfZPdsO7s2eL
vj8pYHNoXMltbLMvZvrNcc4Peb6r/tGE5YwSrhha9R2lOy9lHkVFR9EYTF7jxvlU
9A1XtLXsWAGpWMky/yCMZzFTUdWkkJQaMCu1TkRh2pPse3Rd9/qMZXXdNRut6jkO
pdpwdmbTaMcu4Z8rYAqvy7v6oDXlhdPW8uFzpu5cqMAUM+cOJB7y8Hw84ebo80m1
I3bVuJ6hb/3I6Hqd7awS1uPszYOECUgqcq7B/gSsemYlKGpErChbCkTHj1naAsrn
dy4pWqeEhG5rAiiNLd9kdS1exxKn5vfaYbZwMogDsFsTAlgA/VY97d/xWB6tCHWZ
Fl6sLKcwlFVcI0tEm2djatsqRswHW4WKNfrTX1NM6Ho5Y1YOqd3UngkdCxSeasPN
jALk5HFUwLIL8MYeE178u2oayBGEiIicIXHc2zYA5dnvcTu5gqjGknkDT4BOKgeA
MMUkAHkzX4c3ADqJnjIZL2jhgpEystUm9SJ0+PajKyUo74aSOE8Eikw4WStj+ZhD
s9pxHVKIdL0K1sK007AUAbrI+ZGZu/YaV00gTm9lUwXT
-----END CERTIFICATE-----
