Certificate:
    Data:
        Version: 3 (0x2)
        Serial Number: 4816 (0x12d0)
    Signature Algorithm: md5WithRSAEncryption
        Issuer: C=US, ST=OH, L=Columbus, O=VikingVPN, OU=MyOrganizationalUnit, CN=VikingVPN CA/name=EasyRSA/emailAddress=me@myhost.mydomain
        Validity
            Not Before: Mar 26 13:03:38 2015 GMT
            Not After : Mar 23 13:03:38 2025 GMT
        Subject: CN=Client1566Cert3bdebf
        Subject Public Key Info:
            Public Key Algorithm: rsaEncryption
                Public-Key: (4096 bit)
                Modulus:
                    00:cc:87:16:62:6b:a3:71:5e:0f:df:9d:7f:fd:55:
                    ff:98:f4:23:bd:30:b9:48:97:9a:06:77:84:b2:2a:
                    28:45:9b:1d:cb:c0:b1:99:62:2f:9b:70:8e:20:ff:
                    6a:45:5e:7e:be:f6:eb:9c:12:02:c9:0b:32:5f:7a:
                    67:96:9c:c9:d4:fb:1f:e9:51:15:9d:ae:45:c1:b4:
                    25:1c:c7:ff:b3:83:d9:a9:40:c0:ae:01:26:a4:ba:
                    ce:9c:1b:18:37:ed:83:3c:55:f6:d9:7c:59:71:c4:
                    75:c6:5b:b9:be:46:f4:c6:2b:34:e6:10:93:e7:c2:
                    89:85:82:57:b8:d1:2e:98:3f:6f:ef:2b:cc:10:18:
                    69:a8:c0:6f:ef:c8:b1:12:8a:48:0a:d7:90:8a:1b:
                    a9:88:65:2d:90:0a:2b:5c:ed:4c:c4:ec:4e:c6:82:
                    7a:7e:e4:d1:e2:be:4f:7b:e3:3b:16:2f:1f:79:36:
                    74:cf:df:2c:35:ad:d8:83:36:d0:23:59:f6:81:34:
                    26:e7:a9:48:0c:e3:55:eb:87:ca:72:73:e0:b6:86:
                    d3:18:d3:ba:00:e5:32:a4:e5:77:56:c6:0f:b8:d8:
                    73:a4:6b:df:7a:7e:cf:47:18:70:38:82:64:80:9f:
                    d2:47:56:eb:2d:c5:7c:67:f9:4d:cf:14:08:9f:8e:
                    48:1a:e9:c6:89:cc:6f:4e:7f:50:12:be:7b:f3:50:
                    ce:09:35:a7:2e:66:2b:51:05:99:3a:43:65:db:ee:
                    5b:85:01:17:b3:7c:b0:16:ba:70:5f:48:41:a9:c9:
                    94:00:9c:2b:ae:e9:82:8a:b0:24:d7:1c:aa:78:92:
                    94:d8:8f:61:8a:3d:c4:68:6f:21:b3:65:35:31:a0:
                    97:d1:4a:a0:0d:37:ad:68:51:91:b5:79:b1:96:84:
                    d0:5b:73:bf:a5:23:53:55:c4:d4:fe:a4:9b:05:08:
                    42:96:fe:b5:1d:80:c8:1b:32:94:dc:af:d6:12:16:
                    22:f3:ec:ca:c2:09:e0:08:c2:ed:ba:e5:08:30:a1:
                    c2:dd:33:82:1f:e7:61:40:5b:36:a0:2d:03:e8:0f:
                    0d:df:24:4c:1f:a3:00:33:4f:b3:4f:e0:eb:cf:cf:
                    9d:48:2a:1c:f9:8e:83:76:00:10:86:ce:d4:40:aa:
                    9e:54:31:7b:b8:5a:cc:a4:f0:cf:bf:58:52:2f:49:
                    e1:e6:8f:3d:51:35:6c:2c:49:2b:46:f9:5f:83:d0:
                    0e:1b:64:0f:7d:ae:76:b6:b5:85:dc:fa:27:59:a7:
                    53:d1:5d:fc:41:07:3a:3f:2a:10:5a:5d:83:75:ba:
                    41:e1:19:1f:72:a9:30:f0:92:fd:ec:8b:7e:33:f3:
                    f5:a0:e9
                Exponent: 65537 (0x10001)
        X509v3 extensions:
            X509v3 Basic Constraints: 
                CA:FALSE
            Netscape Comment: 
                Easy-RSA Generated Certificate
            X509v3 Subject Key Identifier: 
                46:BA:E8:E5:94:85:60:D1:59:5C:52:57:11:35:C6:FF:2D:4A:54:3E
            X509v3 Authority Key Identifier: 
                keyid:12:CD:60:04:D2:A0:80:9E:70:ED:C6:99:B8:7B:2C:C6:52:FD:19:A1
                DirName:/C=US/ST=OH/L=Columbus/O=VikingVPN/OU=MyOrganizationalUnit/CN=VikingVPN CA/name=EasyRSA/emailAddress=me@myhost.mydomain
                serial:CF:35:85:EE:80:BF:2A:3E

            X509v3 Extended Key Usage: 
                TLS Web Client Authentication
            X509v3 Key Usage: 
                Digital Signature
    Signature Algorithm: md5WithRSAEncryption
         ed:27:c2:8e:a5:d0:70:38:c6:8c:8e:79:90:c7:6a:c7:c8:00:
         41:01:39:4e:6e:8a:09:77:47:74:3c:54:00:fb:36:08:6c:ec:
         43:8e:70:14:b5:be:fd:32:90:64:3d:f2:20:0c:9a:36:bf:4f:
         64:c5:6d:e4:cc:b9:62:19:26:b3:0c:9f:08:27:f1:e0:97:f4:
         f5:33:60:ed:94:e1:24:72:72:c1:98:10:b5:a0:c1:44:95:38:
         f5:c0:1d:ec:51:3e:bc:93:27:4f:91:a8:80:ff:f9:90:c6:d7:
         62:41:ca:a5:33:a4:43:04:79:b7:96:bf:53:39:08:90:da:27:
         d5:17:dc:aa:51:cf:c1:f1:89:d1:94:8e:de:c7:ba:c5:b2:29:
         67:e2:79:c0:23:2e:20:41:51:30:30:60:2e:71:eb:9f:87:43:
         2a:90:31:38:00:78:82:d3:84:7d:6f:b9:01:44:91:eb:58:2b:
         43:3b:21:76:61:16:0e:f8:be:16:3a:73:47:92:0d:36:ba:c5:
         13:05:c4:d8:63:e9:46:2e:db:18:54:ad:b1:9b:c5:14:6b:a7:
         47:32:46:80:31:0e:3e:20:ff:cb:70:73:c3:bb:73:02:b2:0a:
         e5:23:73:d4:53:c0:74:e6:38:20:c8:ee:19:49:ad:13:70:81:
         5f:c2:5f:45:90:4d:8d:7a:52:da:4d:af:25:58:e7:97:82:a1:
         8e:37:ad:fd:22:ba:42:32:0e:38:98:83:36:e0:2b:e0:75:4c:
         75:f8:c1:bf:23:ff:ea:34:9b:34:ec:14:b3:b4:f2:41:73:c3:
         10:41:29:b9:41:95:e9:f0:02:27:fb:97:a1:e9:d4:29:e9:d5:
         56:8c:cc:b7:8f:45:3f:4f:39:35:15:07:36:08:1b:a6:58:b7:
         e4:9f:3a:92:41:e8:81:f2:f1:78:18:c7:09:0e:56:99:15:30:
         e9:54:53:e4:74:e9:94:fb:4b:28:54:d3:18:7a:d1:cb:92:ec:
         f2:74:f5:a5:f6:9e:2d:9a:c1:ba:54:92:29:4a:86:95:b5:0e:
         19:57:b7:02:1f:56:dd:40:f3:3a:9e:f5:e1:ac:fd:68:d2:1c:
         1c:7f:09:22:da:59:6c:8a:76:bf:55:9a:8d:fb:8a:2f:6f:81:
         26:93:68:ea:1c:89:f8:89:a2:59:24:c6:86:bd:23:2c:fc:c5:
         24:9d:e5:bc:d0:e0:07:d4:ce:49:6c:c6:38:4c:80:e9:bd:1a:
         16:8a:4d:8d:ac:4c:5d:d5:51:fb:a6:7c:a4:90:82:e4:c3:31:
         23:f6:a9:27:49:10:07:4c:6a:16:5e:73:d4:f5:74:0e:46:05:
         b4:b8:c5:0a:d1:86:aa:0f
-----BEGIN CERTIFICATE-----
MIIGrTCCBJWgAwIBAgICEtAwDQYJKoZIhvcNAQEEBQAwgawxCzAJBgNVBAYTAlVT
MQswCQYDVQQIEwJPSDERMA8GA1UEBxMIQ29sdW1idXMxEjAQBgNVBAoTCVZpa2lu
Z1ZQTjEdMBsGA1UECxMUTXlPcmdhbml6YXRpb25hbFVuaXQxFTATBgNVBAMTDFZp
a2luZ1ZQTiBDQTEQMA4GA1UEKRMHRWFzeVJTQTEhMB8GCSqGSIb3DQEJARYSbWVA
bXlob3N0Lm15ZG9tYWluMB4XDTE1MDMyNjEzMDMzOFoXDTI1MDMyMzEzMDMzOFow
HzEdMBsGA1UEAxMUQ2xpZW50MTU2NkNlcnQzYmRlYmYwggIiMA0GCSqGSIb3DQEB
AQUAA4ICDwAwggIKAoICAQDMhxZia6NxXg/fnX/9Vf+Y9CO9MLlIl5oGd4SyKihF
mx3LwLGZYi+bcI4g/2pFXn6+9uucEgLJCzJfemeWnMnU+x/pURWdrkXBtCUcx/+z
g9mpQMCuASakus6cGxg37YM8VfbZfFlxxHXGW7m+RvTGKzTmEJPnwomFgle40S6Y
P2/vK8wQGGmowG/vyLESikgK15CKG6mIZS2QCitc7UzE7E7Ggnp+5NHivk974zsW
Lx95NnTP3yw1rdiDNtAjWfaBNCbnqUgM41Xrh8pyc+C2htMY07oA5TKk5XdWxg+4
2HOka996fs9HGHA4gmSAn9JHVustxXxn+U3PFAifjkga6caJzG9Of1ASvnvzUM4J
NacuZitRBZk6Q2Xb7luFARezfLAWunBfSEGpyZQAnCuu6YKKsCTXHKp4kpTYj2GK
PcRobyGzZTUxoJfRSqANN61oUZG1ebGWhNBbc7+lI1NVxNT+pJsFCEKW/rUdgMgb
MpTcr9YSFiLz7MrCCeAIwu265QgwocLdM4If52FAWzagLQPoDw3fJEwfowAzT7NP
4OvPz51IKhz5joN2ABCGztRAqp5UMXu4Wsyk8M+/WFIvSeHmjz1RNWwsSStG+V+D
0A4bZA99rna2tYXc+idZp1PRXfxBBzo/KhBaXYN1ukHhGR9yqTDwkv3si34z8/Wg
6QIDAQABo4IBYzCCAV8wCQYDVR0TBAIwADAtBglghkgBhvhCAQ0EIBYeRWFzeS1S
U0EgR2VuZXJhdGVkIENlcnRpZmljYXRlMB0GA1UdDgQWBBRGuujllIVg0VlcUlcR
Ncb/LUpUPjCB4QYDVR0jBIHZMIHWgBQSzWAE0qCAnnDtxpm4eyzGUv0ZoaGBsqSB
rzCBrDELMAkGA1UEBhMCVVMxCzAJBgNVBAgTAk9IMREwDwYDVQQHEwhDb2x1bWJ1
czESMBAGA1UEChMJVmlraW5nVlBOMR0wGwYDVQQLExRNeU9yZ2FuaXphdGlvbmFs
VW5pdDEVMBMGA1UEAxMMVmlraW5nVlBOIENBMRAwDgYDVQQpEwdFYXN5UlNBMSEw
HwYJKoZIhvcNAQkBFhJtZUBteWhvc3QubXlkb21haW6CCQDPNYXugL8qPjATBgNV
HSUEDDAKBggrBgEFBQcDAjALBgNVHQ8EBAMCB4AwDQYJKoZIhvcNAQEEBQADggIB
AO0nwo6l0HA4xoyOeZDHasfIAEEBOU5uigl3R3Q8VAD7Nghs7EOOcBS1vv0ykGQ9
8iAMmja/T2TFbeTMuWIZJrMMnwgn8eCX9PUzYO2U4SRycsGYELWgwUSVOPXAHexR
PryTJ0+RqID/+ZDG12JByqUzpEMEebeWv1M5CJDaJ9UX3KpRz8HxidGUjt7HusWy
KWfiecAjLiBBUTAwYC5x65+HQyqQMTgAeILThH1vuQFEketYK0M7IXZhFg74vhY6
c0eSDTa6xRMFxNhj6UYu2xhUrbGbxRRrp0cyRoAxDj4g/8twc8O7cwKyCuUjc9RT
wHTmOCDI7hlJrRNwgV/CX0WQTY16UtpNryVY55eCoY43rf0iukIyDjiYgzbgK+B1
THX4wb8j/+o0mzTsFLO08kFzwxBBKblBlenwAif7l6Hp1Cnp1VaMzLePRT9POTUV
BzYIG6ZYt+SfOpJB6IHy8XgYxwkOVpkVMOlUU+R06ZT7SyhU0xh60cuS7PJ09aX2
ni2awbpUkilKhpW1DhlXtwIfVt1A8zqe9eGs/WjSHBx/CSLaWWyKdr9Vmo37ii9v
gSaTaOocifiJolkkxoa9Iyz8xSSd5bzQ4AfUzklsxjhMgOm9GhaKTY2sTF3VUfum
fKSQguTDMSP2qSdJEAdMahZec9T1dA5GBbS4xQrRhqoP
-----END CERTIFICATE-----
