Certificate:
    Data:
        Version: 3 (0x2)
        Serial Number: 4834 (0x12e2)
    Signature Algorithm: md5WithRSAEncryption
        Issuer: C=US, ST=OH, L=Columbus, O=VikingVPN, OU=MyOrganizationalUnit, CN=VikingVPN CA/name=EasyRSA/emailAddress=me@myhost.mydomain
        Validity
            Not Before: Mar 28 10:50:21 2015 GMT
            Not After : Mar 25 10:50:21 2025 GMT
        Subject: CN=Client1572Certca48ff
        Subject Public Key Info:
            Public Key Algorithm: rsaEncryption
                Public-Key: (4096 bit)
                Modulus:
                    00:a8:ed:4f:f4:07:10:43:47:19:ee:3d:47:a6:e3:
                    79:37:1c:14:9b:31:f9:32:9c:09:1b:49:a2:65:dd:
                    ad:90:92:7c:cc:aa:ee:29:75:99:55:24:53:6c:00:
                    c6:a6:c7:c5:30:77:c9:34:a7:fa:50:9e:68:b5:f9:
                    f3:10:23:fd:08:f8:41:2f:41:2c:ae:55:b8:2b:9c:
                    4a:14:2e:0c:29:55:5d:90:0a:cc:3d:6d:30:50:98:
                    f4:26:78:99:81:1e:da:23:89:c6:d5:24:78:f2:34:
                    a0:56:00:ee:cf:ce:79:e4:49:5d:d9:9b:7c:93:89:
                    2a:ed:35:08:9d:ae:1e:97:99:85:79:a1:87:ef:a6:
                    d2:23:27:39:39:c1:f6:61:bf:d6:fa:e5:73:1c:7b:
                    fe:3e:d2:33:8e:b4:39:26:ad:f1:22:93:39:11:8b:
                    2a:31:c6:a1:65:71:e5:27:0e:d3:fe:35:bf:9c:ec:
                    d8:a3:09:b4:a3:1b:f8:ea:ee:4b:70:09:32:44:b6:
                    1e:e9:33:e2:5d:d2:d1:71:cf:91:99:02:48:2a:cc:
                    0e:a5:cb:44:ac:d8:dd:17:fe:1d:d4:84:42:00:8d:
                    96:20:03:cd:f0:d0:7b:67:86:5b:9d:45:30:02:06:
                    b5:46:fd:10:e8:34:b9:60:dd:32:77:31:73:e2:7e:
                    07:f2:e9:89:d1:32:c3:92:f6:a7:8d:33:c5:bc:23:
                    39:c3:76:17:c6:e7:63:88:a1:4b:d5:61:1f:11:43:
                    c6:a9:75:9e:8e:e5:b2:00:bc:99:12:13:3c:af:42:
                    7d:db:4f:e6:29:4e:d8:5d:d6:92:49:aa:58:14:3c:
                    bc:7b:7f:d0:37:22:1f:77:f8:e6:f2:ee:1f:60:22:
                    12:83:f9:95:01:45:14:15:d2:c9:db:ba:64:40:21:
                    3f:02:82:78:61:be:3e:31:4c:c9:bf:a1:6f:a6:a7:
                    32:9b:c7:4a:45:09:80:83:a8:69:ef:c9:bb:5d:09:
                    65:24:e8:d1:88:79:6f:69:20:02:a7:65:6c:2b:70:
                    17:30:44:0e:e8:72:e1:d1:f4:f6:84:6c:6a:bd:b1:
                    41:e2:ed:12:3e:89:d9:38:10:5f:36:aa:e4:23:7c:
                    2e:67:6d:7f:f4:ce:3a:45:0d:94:6f:7f:39:46:5d:
                    7a:c5:50:fd:d9:1b:b0:e4:51:d1:71:a2:7f:74:c0:
                    f2:fe:c2:a9:5e:41:76:6b:71:b3:e2:a2:9c:ef:91:
                    dd:11:1c:89:df:a0:4e:8f:9e:b2:cb:89:4d:43:6f:
                    07:8e:00:5f:f2:1e:ee:29:37:29:77:4e:52:09:b5:
                    3d:d2:51:79:c6:80:19:3b:f9:7d:a6:ac:aa:40:61:
                    76:d0:77
                Exponent: 65537 (0x10001)
        X509v3 extensions:
            X509v3 Basic Constraints: 
                CA:FALSE
            Netscape Comment: 
                Easy-RSA Generated Certificate
            X509v3 Subject Key Identifier: 
                DF:1D:F3:39:C5:B6:B4:42:69:E5:DE:63:06:4E:6F:FF:2A:8A:9A:8F
            X509v3 Authority Key Identifier: 
                keyid:12:CD:60:04:D2:A0:80:9E:70:ED:C6:99:B8:7B:2C:C6:52:FD:19:A1
                DirName:/C=US/ST=OH/L=Columbus/O=VikingVPN/OU=MyOrganizationalUnit/CN=VikingVPN CA/name=EasyRSA/emailAddress=me@myhost.mydomain
                serial:CF:35:85:EE:80:BF:2A:3E

            X509v3 Extended Key Usage: 
                TLS Web Client Authentication
            X509v3 Key Usage: 
                Digital Signature
    Signature Algorithm: md5WithRSAEncryption
         6b:54:81:26:17:0c:f3:42:bd:4c:14:49:5b:f9:87:05:43:06:
         e6:74:02:e1:12:9d:a4:2c:23:24:1d:fa:e1:93:c7:83:76:7c:
         d7:4b:28:60:84:be:00:95:71:d4:80:61:66:55:5a:bb:0d:07:
         3a:0a:58:45:d6:cd:6c:05:f3:18:2c:04:c7:b5:cc:a9:8d:94:
         5d:ee:c8:74:fd:f4:ef:51:5e:5f:4c:ea:78:13:66:79:43:bd:
         0b:2f:5f:8e:ba:f6:97:bf:78:50:2f:c3:52:3f:cf:fa:43:fd:
         3f:5a:79:11:0e:6e:f7:e8:56:dc:f3:b6:ae:cd:a8:24:a5:63:
         82:6c:f1:91:2d:5d:a5:82:4b:77:8f:97:79:1d:40:ca:ec:1b:
         3b:a0:39:84:91:36:8f:d2:87:7e:80:98:a8:88:bc:42:b8:0d:
         38:7b:75:d0:84:0b:ce:e5:36:82:38:7a:0c:01:b2:fb:f2:2e:
         01:9f:0c:9b:78:b2:b5:fa:cc:c2:94:9e:b4:40:41:6f:d7:d6:
         22:da:3f:52:e2:81:f4:1c:aa:7a:d7:56:f7:34:29:76:82:97:
         ce:23:8d:cd:07:ef:ef:5b:b0:ef:1d:f9:ad:22:c8:72:5a:38:
         f2:3b:ab:19:e0:eb:d3:91:f0:e0:5d:77:db:ea:5f:d9:4c:fa:
         f8:0b:cf:ee:64:29:64:69:47:32:ab:09:30:07:36:03:16:3e:
         de:aa:6f:57:1c:9b:07:8a:58:bb:f6:43:34:76:b6:b7:db:7c:
         b8:8f:18:ae:50:24:96:92:42:98:25:2d:10:83:ae:94:34:29:
         f8:9f:a6:dd:be:28:20:89:bb:80:be:5b:dd:45:c1:f3:1c:cf:
         17:86:4d:09:6d:99:f9:47:67:65:54:c6:88:a9:0a:cc:31:d4:
         32:1b:49:8c:3d:24:4d:20:a6:c0:11:f9:bc:8a:1c:e3:94:f3:
         7e:f2:bf:92:11:19:62:4e:0b:0b:c0:d6:ef:8d:4d:e1:1b:47:
         1b:7c:60:d1:06:8e:59:75:82:17:33:5c:f8:9d:84:d0:c0:a9:
         fb:2f:25:43:f4:c1:71:20:40:28:dc:9a:4a:3f:c4:4d:56:6d:
         7c:75:41:a6:17:6d:e7:a5:43:65:d3:b1:3e:55:b9:8f:b3:5d:
         b4:fa:b7:cf:45:b7:44:0f:00:d8:b8:2d:cc:63:6d:37:16:3a:
         2c:95:2d:2a:5c:87:3b:1b:c4:19:59:c2:f5:6f:02:62:a5:e3:
         9d:d8:6b:11:54:dc:45:e4:c7:ba:fd:b8:8a:a4:21:ab:88:d3:
         18:b5:e9:7d:5c:ca:a0:47:5c:f2:ca:2c:9e:31:ce:e3:bb:0d:
         77:da:62:bd:22:49:18:96
-----BEGIN CERTIFICATE-----
MIIGrTCCBJWgAwIBAgICEuIwDQYJKoZIhvcNAQEEBQAwgawxCzAJBgNVBAYTAlVT
MQswCQYDVQQIEwJPSDERMA8GA1UEBxMIQ29sdW1idXMxEjAQBgNVBAoTCVZpa2lu
Z1ZQTjEdMBsGA1UECxMUTXlPcmdhbml6YXRpb25hbFVuaXQxFTATBgNVBAMTDFZp
a2luZ1ZQTiBDQTEQMA4GA1UEKRMHRWFzeVJTQTEhMB8GCSqGSIb3DQEJARYSbWVA
bXlob3N0Lm15ZG9tYWluMB4XDTE1MDMyODEwNTAyMVoXDTI1MDMyNTEwNTAyMVow
HzEdMBsGA1UEAxMUQ2xpZW50MTU3MkNlcnRjYTQ4ZmYwggIiMA0GCSqGSIb3DQEB
AQUAA4ICDwAwggIKAoICAQCo7U/0BxBDRxnuPUem43k3HBSbMfkynAkbSaJl3a2Q
knzMqu4pdZlVJFNsAMamx8Uwd8k0p/pQnmi1+fMQI/0I+EEvQSyuVbgrnEoULgwp
VV2QCsw9bTBQmPQmeJmBHtojicbVJHjyNKBWAO7PznnkSV3Zm3yTiSrtNQidrh6X
mYV5oYfvptIjJzk5wfZhv9b65XMce/4+0jOOtDkmrfEikzkRiyoxxqFlceUnDtP+
Nb+c7NijCbSjG/jq7ktwCTJEth7pM+Jd0tFxz5GZAkgqzA6ly0Ss2N0X/h3UhEIA
jZYgA83w0HtnhludRTACBrVG/RDoNLlg3TJ3MXPifgfy6YnRMsOS9qeNM8W8IznD
dhfG52OIoUvVYR8RQ8apdZ6O5bIAvJkSEzyvQn3bT+YpTthd1pJJqlgUPLx7f9A3
Ih93+Oby7h9gIhKD+ZUBRRQV0snbumRAIT8Cgnhhvj4xTMm/oW+mpzKbx0pFCYCD
qGnvybtdCWUk6NGIeW9pIAKnZWwrcBcwRA7ocuHR9PaEbGq9sUHi7RI+idk4EF82
quQjfC5nbX/0zjpFDZRvfzlGXXrFUP3ZG7DkUdFxon90wPL+wqleQXZrcbPiopzv
kd0RHInfoE6PnrLLiU1DbweOAF/yHu4pNyl3TlIJtT3SUXnGgBk7+X2mrKpAYXbQ
dwIDAQABo4IBYzCCAV8wCQYDVR0TBAIwADAtBglghkgBhvhCAQ0EIBYeRWFzeS1S
U0EgR2VuZXJhdGVkIENlcnRpZmljYXRlMB0GA1UdDgQWBBTfHfM5xba0Qmnl3mMG
Tm//KoqajzCB4QYDVR0jBIHZMIHWgBQSzWAE0qCAnnDtxpm4eyzGUv0ZoaGBsqSB
rzCBrDELMAkGA1UEBhMCVVMxCzAJBgNVBAgTAk9IMREwDwYDVQQHEwhDb2x1bWJ1
czESMBAGA1UEChMJVmlraW5nVlBOMR0wGwYDVQQLExRNeU9yZ2FuaXphdGlvbmFs
VW5pdDEVMBMGA1UEAxMMVmlraW5nVlBOIENBMRAwDgYDVQQpEwdFYXN5UlNBMSEw
HwYJKoZIhvcNAQkBFhJtZUBteWhvc3QubXlkb21haW6CCQDPNYXugL8qPjATBgNV
HSUEDDAKBggrBgEFBQcDAjALBgNVHQ8EBAMCB4AwDQYJKoZIhvcNAQEEBQADggIB
AGtUgSYXDPNCvUwUSVv5hwVDBuZ0AuESnaQsIyQd+uGTx4N2fNdLKGCEvgCVcdSA
YWZVWrsNBzoKWEXWzWwF8xgsBMe1zKmNlF3uyHT99O9RXl9M6ngTZnlDvQsvX466
9pe/eFAvw1I/z/pD/T9aeREObvfoVtzztq7NqCSlY4Js8ZEtXaWCS3ePl3kdQMrs
GzugOYSRNo/Sh36AmKiIvEK4DTh7ddCEC87lNoI4egwBsvvyLgGfDJt4srX6zMKU
nrRAQW/X1iLaP1LigfQcqnrXVvc0KXaCl84jjc0H7+9bsO8d+a0iyHJaOPI7qxng
69OR8OBdd9vqX9lM+vgLz+5kKWRpRzKrCTAHNgMWPt6qb1ccmweKWLv2QzR2trfb
fLiPGK5QJJaSQpglLRCDrpQ0Kfifpt2+KCCJu4C+W91FwfMczxeGTQltmflHZ2VU
xoipCswx1DIbSYw9JE0gpsAR+byKHOOU837yv5IRGWJOCwvA1u+NTeEbRxt8YNEG
jll1ghczXPidhNDAqfsvJUP0wXEgQCjcmko/xE1WbXx1QaYXbeelQ2XTsT5VuY+z
XbT6t89Ft0QPANi4LcxjbTcWOiyVLSpchzsbxBlZwvVvAmKl453YaxFU3EXkx7r9
uIqkIauI0xi16X1cyqBHXPLKLJ4xzuO7DXfaYr0iSRiW
-----END CERTIFICATE-----
