Certificate:
    Data:
        Version: 3 (0x2)
        Serial Number: 4851 (0x12f3)
    Signature Algorithm: md5WithRSAEncryption
        Issuer: C=US, ST=OH, L=Columbus, O=VikingVPN, OU=MyOrganizationalUnit, CN=VikingVPN CA/name=EasyRSA/emailAddress=me@myhost.mydomain
        Validity
            Not Before: Mar 31 08:05:08 2015 GMT
            Not After : Mar 28 08:05:08 2025 GMT
        Subject: CN=Client971Certbbf881
        Subject Public Key Info:
            Public Key Algorithm: rsaEncryption
                Public-Key: (4096 bit)
                Modulus:
                    00:b9:15:20:f7:5e:2d:48:d8:10:2d:83:bd:b7:d3:
                    53:5b:b4:1c:65:9d:7c:fc:e5:7a:a8:1e:94:fd:5d:
                    89:04:b0:02:26:2d:7d:c5:cf:a0:f9:47:ed:0d:8e:
                    c2:fa:af:5d:eb:57:c1:f1:f7:fc:8d:e8:11:f4:5e:
                    2a:ad:62:e2:de:8a:43:a5:0f:44:f5:40:9a:44:79:
                    66:9a:37:e4:33:d2:c6:e1:be:48:80:78:59:4e:73:
                    14:40:d0:0d:01:bf:ca:e5:e3:cf:83:2e:bd:c0:c7:
                    08:cb:55:21:37:e3:b7:3f:16:7a:4f:33:74:20:be:
                    84:89:f7:71:0c:50:1d:62:00:bd:f1:fe:8f:02:5f:
                    bc:2d:fa:a5:2d:9a:a9:0a:79:96:3d:3a:5b:51:d2:
                    d0:8d:6d:44:6e:ec:fb:6d:ea:a8:f8:29:5e:7c:56:
                    7a:8c:9f:d4:96:7a:c7:18:5d:50:5d:2f:ec:66:68:
                    f2:a3:5e:1f:ef:c8:6d:cc:de:7a:0e:b8:50:ac:97:
                    06:ba:33:40:32:3f:5e:74:63:3b:a5:8a:51:00:b7:
                    b6:a2:0b:04:38:e6:9c:bc:55:dd:d6:74:31:3e:8d:
                    de:b4:8e:86:e5:47:c5:06:cf:50:a4:f6:02:86:73:
                    06:bb:6f:82:d9:28:2c:5c:29:64:5e:6d:49:6d:fc:
                    19:dc:62:6a:b7:c8:0d:18:07:d2:be:d7:97:08:94:
                    af:ce:d0:be:23:26:ce:0f:08:17:89:8b:f7:fc:94:
                    6f:a7:31:3a:73:de:59:c8:f4:31:4a:a2:13:73:37:
                    49:13:7b:71:be:ef:8f:f7:d5:13:e1:47:ea:b9:05:
                    88:e1:26:5b:93:4b:32:0c:a5:78:39:6e:61:ea:de:
                    48:8b:b3:e1:1e:a9:da:53:87:cf:7e:fe:c1:45:f8:
                    5d:15:2a:00:a5:00:b4:d7:80:52:a6:08:cb:ab:ef:
                    82:8f:11:6f:93:2a:e5:34:62:80:cd:79:00:0b:60:
                    42:1c:d5:08:c4:da:d1:3e:df:9c:92:f2:0a:d4:b3:
                    36:52:d5:ce:08:02:d3:56:20:15:62:25:31:24:03:
                    2c:da:72:21:52:c3:93:7c:1b:1e:7b:97:ce:88:28:
                    9a:68:f8:8c:42:42:75:59:7e:27:27:75:01:aa:fa:
                    8a:0c:13:de:95:67:ae:c9:55:36:d4:2c:12:89:92:
                    28:07:c0:1d:8c:c7:2b:be:06:ee:7f:e5:05:1d:31:
                    a1:40:d8:76:e4:0a:69:a5:bb:7e:7c:f7:fe:a1:cf:
                    d4:a9:ea:69:ca:e1:8b:dd:83:2a:2b:13:d8:39:c7:
                    92:03:ba:94:46:5c:5c:e2:f6:63:5f:85:2c:ea:04:
                    7f:ef:15
                Exponent: 65537 (0x10001)
        X509v3 extensions:
            X509v3 Basic Constraints: 
                CA:FALSE
            Netscape Comment: 
                Easy-RSA Generated Certificate
            X509v3 Subject Key Identifier: 
                8E:E7:AD:C3:72:D5:21:73:83:9E:86:85:2E:AB:8E:4D:2B:B7:75:9A
            X509v3 Authority Key Identifier: 
                keyid:12:CD:60:04:D2:A0:80:9E:70:ED:C6:99:B8:7B:2C:C6:52:FD:19:A1
                DirName:/C=US/ST=OH/L=Columbus/O=VikingVPN/OU=MyOrganizationalUnit/CN=VikingVPN CA/name=EasyRSA/emailAddress=me@myhost.mydomain
                serial:CF:35:85:EE:80:BF:2A:3E

            X509v3 Extended Key Usage: 
                TLS Web Client Authentication
            X509v3 Key Usage: 
                Digital Signature
    Signature Algorithm: md5WithRSAEncryption
         89:7b:d3:5f:0f:7d:95:34:97:38:ff:18:e1:cb:bd:0d:0e:28:
         73:26:fa:0f:17:c7:0f:ae:bd:7e:0d:c9:0d:fd:e3:1d:2b:6e:
         83:f9:26:8d:b3:be:dd:3e:63:49:80:59:86:e5:32:3c:90:7e:
         8e:d7:38:21:23:ab:89:35:c1:87:b5:71:15:d8:17:a7:5b:2e:
         8a:85:0a:31:26:85:9e:d8:e6:64:a2:b6:79:8d:d5:22:d4:68:
         31:1f:d1:ac:c6:83:e1:de:87:fc:76:4e:60:53:e2:1e:3a:e7:
         33:29:a0:df:22:fe:ad:9b:61:91:be:b1:5d:d5:ec:75:42:62:
         58:bd:9a:98:b9:ec:60:7f:42:5a:a2:11:ae:28:6b:05:5a:13:
         cf:52:41:dc:31:1d:ac:1f:76:17:9a:e3:38:1c:61:4a:29:c4:
         0b:bd:b5:b2:db:74:dc:55:46:ed:b9:f9:87:a5:fb:c7:10:f5:
         a8:87:f1:8c:93:f5:d9:76:01:9a:b5:c4:97:c0:ee:9d:7e:1f:
         89:5f:f7:19:ec:49:fa:6b:32:49:2f:2f:d7:16:56:91:d1:34:
         1c:f7:26:96:b7:41:c4:55:28:03:ea:8b:78:32:ff:15:97:5d:
         d1:b9:2c:2c:fb:6e:87:b5:05:30:ea:c4:52:df:bf:4f:20:8b:
         2a:f7:27:27:3c:69:20:45:f4:72:13:c1:5f:1f:01:ee:f4:48:
         fd:89:6a:b3:09:2a:c3:45:61:33:05:88:69:12:3c:c6:d3:e2:
         4f:9f:0e:39:a1:61:c2:e3:84:ad:00:ab:29:51:40:79:d9:cd:
         35:f9:05:4f:78:48:21:b1:e4:d8:aa:62:e3:4d:c4:53:6f:23:
         50:7c:db:ae:4f:e4:2f:83:79:84:bb:0a:d9:2f:f1:41:5c:39:
         a0:a3:49:ed:ff:40:b3:0f:a8:8f:46:c4:59:8f:df:7f:fc:f9:
         4a:e4:2f:24:c0:a1:a4:40:5f:08:9f:d9:fd:f0:19:43:2b:85:
         e9:72:30:41:1e:ae:cd:e9:62:68:2d:77:6c:fc:cb:bf:ce:fb:
         bc:4c:9f:6d:89:02:74:32:f8:bf:67:89:31:b3:aa:5c:a8:f9:
         ef:e7:5c:01:0d:a3:15:5c:c1:1e:f6:19:54:9b:a8:23:69:46:
         8e:ea:85:a9:35:91:8d:82:8e:a9:30:8e:d4:02:7a:31:31:fd:
         e2:59:3f:fd:19:f4:7a:32:36:64:82:15:ce:05:34:fb:e7:da:
         2b:68:6f:0e:15:e4:c2:c3:b4:39:2b:6c:e0:c3:b5:24:c0:49:
         c7:16:59:41:a5:6b:96:a3:42:69:c1:d8:54:e2:84:ba:3f:82:
         00:e3:82:27:7e:4d:9f:b7
-----BEGIN CERTIFICATE-----
MIIGrDCCBJSgAwIBAgICEvMwDQYJKoZIhvcNAQEEBQAwgawxCzAJBgNVBAYTAlVT
MQswCQYDVQQIEwJPSDERMA8GA1UEBxMIQ29sdW1idXMxEjAQBgNVBAoTCVZpa2lu
Z1ZQTjEdMBsGA1UECxMUTXlPcmdhbml6YXRpb25hbFVuaXQxFTATBgNVBAMTDFZp
a2luZ1ZQTiBDQTEQMA4GA1UEKRMHRWFzeVJTQTEhMB8GCSqGSIb3DQEJARYSbWVA
bXlob3N0Lm15ZG9tYWluMB4XDTE1MDMzMTA4MDUwOFoXDTI1MDMyODA4MDUwOFow
HjEcMBoGA1UEAxMTQ2xpZW50OTcxQ2VydGJiZjg4MTCCAiIwDQYJKoZIhvcNAQEB
BQADggIPADCCAgoCggIBALkVIPdeLUjYEC2DvbfTU1u0HGWdfPzleqgelP1diQSw
AiYtfcXPoPlH7Q2OwvqvXetXwfH3/I3oEfReKq1i4t6KQ6UPRPVAmkR5Zpo35DPS
xuG+SIB4WU5zFEDQDQG/yuXjz4MuvcDHCMtVITfjtz8Wek8zdCC+hIn3cQxQHWIA
vfH+jwJfvC36pS2aqQp5lj06W1HS0I1tRG7s+23qqPgpXnxWeoyf1JZ6xxhdUF0v
7GZo8qNeH+/Ibczeeg64UKyXBrozQDI/XnRjO6WKUQC3tqILBDjmnLxV3dZ0MT6N
3rSOhuVHxQbPUKT2AoZzBrtvgtkoLFwpZF5tSW38GdxiarfIDRgH0r7XlwiUr87Q
viMmzg8IF4mL9/yUb6cxOnPeWcj0MUqiE3M3SRN7cb7vj/fVE+FH6rkFiOEmW5NL
MgyleDluYereSIuz4R6p2lOHz37+wUX4XRUqAKUAtNeAUqYIy6vvgo8Rb5Mq5TRi
gM15AAtgQhzVCMTa0T7fnJLyCtSzNlLVzggC01YgFWIlMSQDLNpyIVLDk3wbHnuX
zogommj4jEJCdVl+Jyd1Aar6igwT3pVnrslVNtQsEomSKAfAHYzHK74G7n/lBR0x
oUDYduQKaaW7fnz3/qHP1Knqacrhi92DKisT2DnHkgO6lEZcXOL2Y1+FLOoEf+8V
AgMBAAGjggFjMIIBXzAJBgNVHRMEAjAAMC0GCWCGSAGG+EIBDQQgFh5FYXN5LVJT
QSBHZW5lcmF0ZWQgQ2VydGlmaWNhdGUwHQYDVR0OBBYEFI7nrcNy1SFzg56GhS6r
jk0rt3WaMIHhBgNVHSMEgdkwgdaAFBLNYATSoICecO3Gmbh7LMZS/RmhoYGypIGv
MIGsMQswCQYDVQQGEwJVUzELMAkGA1UECBMCT0gxETAPBgNVBAcTCENvbHVtYnVz
MRIwEAYDVQQKEwlWaWtpbmdWUE4xHTAbBgNVBAsTFE15T3JnYW5pemF0aW9uYWxV
bml0MRUwEwYDVQQDEwxWaWtpbmdWUE4gQ0ExEDAOBgNVBCkTB0Vhc3lSU0ExITAf
BgkqhkiG9w0BCQEWEm1lQG15aG9zdC5teWRvbWFpboIJAM81he6Avyo+MBMGA1Ud
JQQMMAoGCCsGAQUFBwMCMAsGA1UdDwQEAwIHgDANBgkqhkiG9w0BAQQFAAOCAgEA
iXvTXw99lTSXOP8Y4cu9DQ4ocyb6DxfHD669fg3JDf3jHStug/kmjbO+3T5jSYBZ
huUyPJB+jtc4ISOriTXBh7VxFdgXp1suioUKMSaFntjmZKK2eY3VItRoMR/RrMaD
4d6H/HZOYFPiHjrnMymg3yL+rZthkb6xXdXsdUJiWL2amLnsYH9CWqIRrihrBVoT
z1JB3DEdrB92F5rjOBxhSinEC721stt03FVG7bn5h6X7xxD1qIfxjJP12XYBmrXE
l8DunX4fiV/3GexJ+msySS8v1xZWkdE0HPcmlrdBxFUoA+qLeDL/FZdd0bksLPtu
h7UFMOrEUt+/TyCLKvcnJzxpIEX0chPBXx8B7vRI/Ylqswkqw0VhMwWIaRI8xtPi
T58OOaFhwuOErQCrKVFAednNNfkFT3hIIbHk2Kpi403EU28jUHzbrk/kL4N5hLsK
2S/xQVw5oKNJ7f9Asw+oj0bEWY/ff/z5SuQvJMChpEBfCJ/Z/fAZQyuF6XIwQR6u
zeliaC13bPzLv877vEyfbYkCdDL4v2eJMbOqXKj57+dcAQ2jFVzBHvYZVJuoI2lG
juqFqTWRjYKOqTCO1AJ6MTH94lk//Rn0ejI2ZIIVzgU0++faK2hvDhXkwsO0OSts
4MO1JMBJxxZZQaVrlqNCacHYVOKEuj+CAOOCJ35Nn7c=
-----END CERTIFICATE-----
