Certificate:
    Data:
        Version: 3 (0x2)
        Serial Number: 4878 (0x130e)
    Signature Algorithm: md5WithRSAEncryption
        Issuer: C=US, ST=OH, L=Columbus, O=VikingVPN, OU=MyOrganizationalUnit, CN=VikingVPN CA/name=EasyRSA/emailAddress=me@myhost.mydomain
        Validity
            Not Before: Apr  3 17:40:43 2015 GMT
            Not After : Mar 31 17:40:43 2025 GMT
        Subject: CN=Client1588Certc30bfc
        Subject Public Key Info:
            Public Key Algorithm: rsaEncryption
                Public-Key: (4096 bit)
                Modulus:
                    00:e7:02:99:7c:43:36:a7:2f:9e:32:fd:4c:21:53:
                    df:3e:06:f6:c8:39:d7:81:74:7b:27:dc:91:0f:b2:
                    53:9d:7a:62:c4:e1:e8:21:f6:66:6c:a2:54:ce:c3:
                    40:3b:34:c4:e0:bb:7e:3b:9e:69:d1:c7:e5:ca:5f:
                    3e:fb:96:58:d2:09:0c:bd:7a:20:61:03:6e:e7:61:
                    a8:d1:6d:e2:91:16:50:da:5f:47:1e:34:dd:5b:9c:
                    2e:16:6d:cc:5f:b4:cd:c2:c6:4c:fd:db:80:fc:8b:
                    0f:a0:af:db:08:f0:f2:27:f3:40:2b:91:76:45:ff:
                    20:b8:46:ca:e2:47:3c:bb:7c:19:ec:04:86:2a:8b:
                    58:7f:12:2f:c1:ea:f4:6f:ba:c8:02:c9:e2:fe:3f:
                    01:b2:31:0b:23:8a:56:df:1d:39:d5:29:f9:e5:f1:
                    fc:32:fa:c0:6e:44:08:fc:3f:0d:68:56:c8:f3:9e:
                    c5:95:4c:c6:e3:b8:3e:4d:e5:c3:a0:1d:5e:09:1d:
                    a0:2b:4f:ef:2a:16:de:7d:75:b3:e1:ae:79:98:ad:
                    90:4b:ee:d8:f8:45:2c:5c:48:87:d7:fd:d0:ee:79:
                    6d:13:f6:02:73:8b:11:04:10:f0:c2:a0:2e:19:02:
                    46:f8:6d:32:a1:04:b8:16:35:3f:45:db:3a:d1:30:
                    94:6a:8a:7d:62:75:b9:22:72:0e:3e:66:86:ad:7c:
                    69:a0:00:1b:6c:aa:e7:ac:43:a6:9d:41:6b:0e:73:
                    35:e0:2d:a8:72:27:6d:7c:ef:64:55:86:e3:1b:a8:
                    af:fe:80:78:68:c7:03:2c:ee:1a:46:00:4a:d8:95:
                    92:16:9b:50:e1:03:86:5c:44:15:bf:2e:16:62:e1:
                    31:2c:90:00:69:23:69:9b:7f:88:9c:4d:53:59:43:
                    7b:0f:ab:63:2f:d1:d4:d2:be:6e:39:06:6c:2b:0e:
                    d4:25:20:28:05:11:98:fc:aa:e4:6d:a6:d7:15:9c:
                    77:88:4e:fb:32:e5:d2:4e:fd:4a:fd:60:4f:32:6b:
                    0c:5c:5b:12:06:ca:c3:fe:50:f8:c8:7c:01:c9:2e:
                    cd:1b:3d:0f:fd:af:4e:9b:a3:24:02:4d:73:8c:54:
                    c8:1b:88:21:ce:dc:f3:9b:30:fb:dc:51:25:80:9a:
                    f2:6f:73:33:10:83:0b:e8:ef:6a:b9:13:56:70:71:
                    65:1c:b1:c9:2c:5d:49:b6:aa:97:64:37:08:b1:6d:
                    79:dd:63:36:25:cb:f7:92:de:81:5d:e3:d0:06:44:
                    f5:9b:1e:34:b4:15:d4:12:2b:ba:90:50:0f:52:8e:
                    90:64:d8:88:4e:43:7d:58:e2:05:ea:35:80:4c:a6:
                    24:89:9d
                Exponent: 65537 (0x10001)
        X509v3 extensions:
            X509v3 Basic Constraints: 
                CA:FALSE
            Netscape Comment: 
                Easy-RSA Generated Certificate
            X509v3 Subject Key Identifier: 
                35:3B:29:7E:B9:41:DB:78:08:2F:F4:90:52:F4:C4:4C:E6:6F:E2:A1
            X509v3 Authority Key Identifier: 
                keyid:12:CD:60:04:D2:A0:80:9E:70:ED:C6:99:B8:7B:2C:C6:52:FD:19:A1
                DirName:/C=US/ST=OH/L=Columbus/O=VikingVPN/OU=MyOrganizationalUnit/CN=VikingVPN CA/name=EasyRSA/emailAddress=me@myhost.mydomain
                serial:CF:35:85:EE:80:BF:2A:3E

            X509v3 Extended Key Usage: 
                TLS Web Client Authentication
            X509v3 Key Usage: 
                Digital Signature
    Signature Algorithm: md5WithRSAEncryption
         97:53:4b:cc:78:7b:03:d9:ac:9d:67:2e:c3:db:20:d5:c3:17:
         51:6a:b9:13:66:93:c4:c5:98:07:4c:48:c0:6e:10:bc:82:f5:
         d5:d7:9c:c9:ee:29:d1:92:35:50:c2:7e:ec:d2:59:ec:e0:b3:
         37:7b:db:8b:fb:87:4b:db:25:ba:cf:77:fc:3d:61:f4:e5:8e:
         44:b3:06:a8:d9:a9:d3:9f:a7:41:65:a6:ea:1f:ce:cf:19:0b:
         93:e5:b6:99:bc:bd:4f:0f:3c:95:4f:e7:d9:33:c1:f6:4b:1a:
         b6:77:c2:38:7a:b4:10:9d:13:b7:cf:2c:db:f9:20:2d:c7:d6:
         15:7a:86:c8:c9:5e:f0:d0:45:fc:34:0c:ad:8c:bc:6b:50:24:
         9d:08:96:34:46:e1:4b:7a:a5:f8:6c:01:1b:26:d1:f1:54:04:
         c0:28:e1:de:17:fb:85:13:16:b3:e6:bb:f5:cd:99:cf:cf:23:
         08:26:a5:a0:c5:d0:b9:69:29:7a:03:e1:e2:01:27:e2:3a:98:
         43:06:f9:bb:b7:0a:02:fc:fc:ef:2b:2a:f8:44:0d:e4:a5:88:
         1c:54:23:2b:b1:54:01:06:64:04:cd:42:89:90:65:bd:8f:34:
         d6:f3:9a:a4:88:fc:1e:57:11:49:1f:2e:41:03:52:c3:60:19:
         4e:bb:e7:f0:35:ec:0d:9b:ce:cd:62:b5:56:e4:62:32:4d:48:
         df:8f:1c:73:f7:f4:ff:9e:1d:ae:4f:6f:51:bd:1b:61:34:a9:
         4c:ed:ab:2d:a3:ff:53:99:4c:06:2a:8b:48:a4:d5:9c:7b:b4:
         1f:7d:f8:99:da:93:c5:e4:13:7c:fc:f8:54:ad:8f:da:1b:1f:
         99:02:76:a2:28:ca:6a:f9:41:ba:ce:d7:00:26:90:13:59:71:
         f2:61:5a:4b:78:76:30:d9:fd:5c:1c:cc:ed:35:40:21:43:4f:
         fa:28:6a:1f:24:be:6b:ca:bf:5d:4f:39:2b:0f:0d:46:0e:be:
         24:e8:a1:bf:a0:b2:b2:36:ae:53:a7:a8:68:ad:2e:53:a8:e8:
         89:01:97:2c:3f:c9:9f:fa:72:40:e2:d4:98:60:94:7a:7b:f9:
         55:f8:11:39:39:c1:1a:8c:17:aa:14:7d:cd:2f:32:af:15:92:
         fd:f6:42:8d:b2:df:d0:ce:1c:76:c8:aa:75:16:08:c5:e4:36:
         fa:bd:5e:f5:e2:e8:a6:a6:2d:5d:8a:73:be:22:2f:3e:54:a0:
         b2:f5:25:e8:4d:e4:a5:3d:b3:ce:89:13:26:09:d2:ad:e6:a7:
         ae:e8:04:9f:5f:da:6a:0d:be:d7:b7:82:d4:10:26:09:05:30:
         1c:97:36:92:9b:65:a6:bb
-----BEGIN CERTIFICATE-----
MIIGrTCCBJWgAwIBAgICEw4wDQYJKoZIhvcNAQEEBQAwgawxCzAJBgNVBAYTAlVT
MQswCQYDVQQIEwJPSDERMA8GA1UEBxMIQ29sdW1idXMxEjAQBgNVBAoTCVZpa2lu
Z1ZQTjEdMBsGA1UECxMUTXlPcmdhbml6YXRpb25hbFVuaXQxFTATBgNVBAMTDFZp
a2luZ1ZQTiBDQTEQMA4GA1UEKRMHRWFzeVJTQTEhMB8GCSqGSIb3DQEJARYSbWVA
bXlob3N0Lm15ZG9tYWluMB4XDTE1MDQwMzE3NDA0M1oXDTI1MDMzMTE3NDA0M1ow
HzEdMBsGA1UEAxMUQ2xpZW50MTU4OENlcnRjMzBiZmMwggIiMA0GCSqGSIb3DQEB
AQUAA4ICDwAwggIKAoICAQDnApl8QzanL54y/UwhU98+BvbIOdeBdHsn3JEPslOd
emLE4egh9mZsolTOw0A7NMTgu347nmnRx+XKXz77lljSCQy9eiBhA27nYajRbeKR
FlDaX0ceNN1bnC4WbcxftM3Cxkz924D8iw+gr9sI8PIn80ArkXZF/yC4RsriRzy7
fBnsBIYqi1h/Ei/B6vRvusgCyeL+PwGyMQsjilbfHTnVKfnl8fwy+sBuRAj8Pw1o
VsjznsWVTMbjuD5N5cOgHV4JHaArT+8qFt59dbPhrnmYrZBL7tj4RSxcSIfX/dDu
eW0T9gJzixEEEPDCoC4ZAkb4bTKhBLgWNT9F2zrRMJRqin1idbkicg4+ZoatfGmg
ABtsquesQ6adQWsOczXgLahyJ21872RVhuMbqK/+gHhoxwMs7hpGAErYlZIWm1Dh
A4ZcRBW/LhZi4TEskABpI2mbf4icTVNZQ3sPq2Mv0dTSvm45BmwrDtQlICgFEZj8
quRtptcVnHeITvsy5dJO/Ur9YE8yawxcWxIGysP+UPjIfAHJLs0bPQ/9r06boyQC
TXOMVMgbiCHO3PObMPvcUSWAmvJvczMQgwvo72q5E1ZwcWUcscksXUm2qpdkNwix
bXndYzYly/eS3oFd49AGRPWbHjS0FdQSK7qQUA9SjpBk2IhOQ31Y4gXqNYBMpiSJ
nQIDAQABo4IBYzCCAV8wCQYDVR0TBAIwADAtBglghkgBhvhCAQ0EIBYeRWFzeS1S
U0EgR2VuZXJhdGVkIENlcnRpZmljYXRlMB0GA1UdDgQWBBQ1Oyl+uUHbeAgv9JBS
9MRM5m/ioTCB4QYDVR0jBIHZMIHWgBQSzWAE0qCAnnDtxpm4eyzGUv0ZoaGBsqSB
rzCBrDELMAkGA1UEBhMCVVMxCzAJBgNVBAgTAk9IMREwDwYDVQQHEwhDb2x1bWJ1
czESMBAGA1UEChMJVmlraW5nVlBOMR0wGwYDVQQLExRNeU9yZ2FuaXphdGlvbmFs
VW5pdDEVMBMGA1UEAxMMVmlraW5nVlBOIENBMRAwDgYDVQQpEwdFYXN5UlNBMSEw
HwYJKoZIhvcNAQkBFhJtZUBteWhvc3QubXlkb21haW6CCQDPNYXugL8qPjATBgNV
HSUEDDAKBggrBgEFBQcDAjALBgNVHQ8EBAMCB4AwDQYJKoZIhvcNAQEEBQADggIB
AJdTS8x4ewPZrJ1nLsPbINXDF1FquRNmk8TFmAdMSMBuELyC9dXXnMnuKdGSNVDC
fuzSWezgszd724v7h0vbJbrPd/w9YfTljkSzBqjZqdOfp0Flpuofzs8ZC5Pltpm8
vU8PPJVP59kzwfZLGrZ3wjh6tBCdE7fPLNv5IC3H1hV6hsjJXvDQRfw0DK2MvGtQ
JJ0IljRG4Ut6pfhsARsm0fFUBMAo4d4X+4UTFrPmu/XNmc/PIwgmpaDF0LlpKXoD
4eIBJ+I6mEMG+bu3CgL8/O8rKvhEDeSliBxUIyuxVAEGZATNQomQZb2PNNbzmqSI
/B5XEUkfLkEDUsNgGU675/A17A2bzs1itVbkYjJNSN+PHHP39P+eHa5Pb1G9G2E0
qUztqy2j/1OZTAYqi0ik1Zx7tB99+Jnak8XkE3z8+FStj9obH5kCdqIoymr5QbrO
1wAmkBNZcfJhWkt4djDZ/VwczO01QCFDT/ooah8kvmvKv11POSsPDUYOviToob+g
srI2rlOnqGitLlOo6IkBlyw/yZ/6ckDi1JhglHp7+VX4ETk5wRqMF6oUfc0vMq8V
kv32Qo2y39DOHHbIqnUWCMXkNvq9XvXi6KamLV2Kc74iLz5UoLL1JehN5KU9s86J
EyYJ0q3mp67oBJ9f2moNvte3gtQQJgkFMByXNpKbZaa7
-----END CERTIFICATE-----
