Certificate:
    Data:
        Version: 3 (0x2)
        Serial Number: 4880 (0x1310)
    Signature Algorithm: md5WithRSAEncryption
        Issuer: C=US, ST=OH, L=Columbus, O=VikingVPN, OU=MyOrganizationalUnit, CN=VikingVPN CA/name=EasyRSA/emailAddress=me@myhost.mydomain
        Validity
            Not Before: Apr  3 17:41:44 2015 GMT
            Not After : Mar 31 17:41:44 2025 GMT
        Subject: CN=Client1588Cert441b09
        Subject Public Key Info:
            Public Key Algorithm: rsaEncryption
                Public-Key: (4096 bit)
                Modulus:
                    00:a3:04:c9:5c:e9:7d:03:ed:2e:7d:0f:a7:47:45:
                    d0:a2:57:ae:ee:13:ea:b7:9f:b1:1a:0d:c2:ea:75:
                    cb:15:35:62:4e:f4:ed:4a:1d:53:3d:ca:71:56:e2:
                    4e:62:56:0b:da:0b:f8:3b:b4:88:10:11:c8:0a:17:
                    b5:65:19:11:01:65:a1:8e:08:07:c5:cf:da:b5:cd:
                    73:27:8c:6a:3c:19:9e:e9:0f:82:c1:c2:9f:1d:af:
                    29:a4:c5:d9:c8:57:53:d4:3a:0d:92:5c:a0:b8:e2:
                    bd:d4:e5:a4:4d:21:f7:78:6b:89:43:e4:cd:c6:e7:
                    82:46:2e:99:28:01:88:73:87:5e:f4:05:a5:49:cb:
                    4d:b3:8d:54:43:1f:72:a9:90:71:a0:0f:91:d6:cd:
                    02:da:4e:55:e1:89:f8:c2:8b:6c:d4:be:af:a8:b2:
                    0a:70:26:e0:02:c8:98:cf:bb:89:6b:d0:ba:b4:da:
                    7f:77:e0:14:13:2b:18:8f:bf:43:6b:2c:91:b1:29:
                    06:56:84:16:8c:16:be:4d:30:6b:6f:e4:b4:7c:c4:
                    57:bc:d3:8e:d5:19:b7:bd:bf:5c:a4:7a:15:7b:4f:
                    9c:a4:e3:7d:99:2c:7e:42:5a:20:ad:25:64:ee:c8:
                    40:e1:f0:14:9d:2b:1b:8d:ea:18:31:fc:49:b0:ea:
                    31:0e:e4:c4:c9:d1:ae:5f:0b:64:72:c2:95:00:e6:
                    e1:7b:9f:3f:20:07:d8:12:cd:c7:d7:b7:9a:fa:3a:
                    88:9e:58:7a:0e:64:7a:e8:d5:9c:15:9d:14:90:d1:
                    57:59:f8:98:92:ed:8e:00:76:cb:73:f5:af:2c:3e:
                    94:04:bd:8d:8f:f8:e4:e2:3f:2d:af:05:9e:52:70:
                    22:66:7e:22:5b:71:fc:ab:34:cf:a8:04:1b:ce:64:
                    7a:29:70:d2:da:c8:18:69:38:72:2f:30:2e:39:8d:
                    43:f7:c4:f9:38:69:67:c3:7c:30:e3:e3:cc:9a:a8:
                    f6:ad:b3:82:18:36:af:21:c1:0d:1f:40:37:ec:bb:
                    7f:87:c0:d7:75:c7:81:dd:fc:c9:90:f2:95:9b:71:
                    98:32:b5:4c:7d:d6:f6:d2:c8:0c:e8:26:2b:2e:74:
                    35:32:91:09:ba:37:62:45:52:8f:87:d5:e9:3f:e9:
                    ee:00:42:79:df:66:41:7a:c1:70:31:a3:bb:5b:4e:
                    91:60:2d:4c:b6:12:64:eb:d2:49:3e:06:7d:77:76:
                    c8:34:6b:b6:44:e4:e9:78:8c:38:1e:54:a3:80:cb:
                    bd:ce:04:ab:31:55:d4:3b:ac:57:85:c9:54:78:7c:
                    5e:bb:81:77:fa:2c:f5:03:f4:af:ab:b9:d4:64:1b:
                    6b:fd:9b
                Exponent: 65537 (0x10001)
        X509v3 extensions:
            X509v3 Basic Constraints: 
                CA:FALSE
            Netscape Comment: 
                Easy-RSA Generated Certificate
            X509v3 Subject Key Identifier: 
                63:3D:DC:2A:2E:8E:27:DB:11:E9:27:72:C8:F2:3D:C3:28:58:3A:E1
            X509v3 Authority Key Identifier: 
                keyid:12:CD:60:04:D2:A0:80:9E:70:ED:C6:99:B8:7B:2C:C6:52:FD:19:A1
                DirName:/C=US/ST=OH/L=Columbus/O=VikingVPN/OU=MyOrganizationalUnit/CN=VikingVPN CA/name=EasyRSA/emailAddress=me@myhost.mydomain
                serial:CF:35:85:EE:80:BF:2A:3E

            X509v3 Extended Key Usage: 
                TLS Web Client Authentication
            X509v3 Key Usage: 
                Digital Signature
    Signature Algorithm: md5WithRSAEncryption
         9a:ce:5d:b8:40:f0:f8:c9:e1:b4:91:60:7f:35:29:e9:14:06:
         81:3d:ee:3b:85:99:ed:82:c2:f6:b1:06:ed:e8:45:a4:e0:63:
         99:8a:48:61:47:49:54:72:08:d6:17:75:c4:6d:18:c6:8c:09:
         87:a8:23:15:f4:fa:ee:20:b0:d0:cb:55:da:ab:c5:84:89:08:
         01:a3:1d:02:ce:b7:e4:f9:15:88:0b:a9:dd:45:dd:53:37:2c:
         a0:78:07:18:c2:6e:84:e0:52:3f:7f:4f:72:93:50:d0:5c:e7:
         e0:b6:d8:88:0a:7c:0b:bd:00:da:4b:55:3a:2e:f6:29:6a:2d:
         f6:6a:6d:83:53:79:0c:3a:43:3a:f3:d2:5c:be:ec:4d:19:5a:
         24:ec:e9:73:d1:1d:dc:ae:f2:85:64:25:77:42:b3:13:de:5a:
         2f:59:0f:f1:6c:d0:e7:80:7b:a4:1d:da:7e:2c:92:fe:0c:ee:
         79:94:71:0b:55:7c:91:17:20:1b:c8:da:07:bf:97:6f:e0:8d:
         db:5d:a1:8c:34:70:d8:02:f5:65:02:23:2f:ba:2c:6e:13:a8:
         c9:2b:c0:96:9c:6e:93:00:61:db:0a:ac:50:2f:26:a4:03:a8:
         2b:0e:fa:b2:64:20:cc:82:28:ae:f2:d6:c9:40:8b:2a:30:8e:
         e7:04:12:86:62:7b:bc:8a:b0:0d:23:e7:73:76:ba:20:f0:de:
         84:a8:01:d2:c9:76:59:2b:38:a1:2d:6c:c2:f0:c8:6e:42:1e:
         f7:3d:b7:3f:06:a5:bb:9c:45:1e:59:a3:1e:4c:a3:74:f7:d7:
         1b:99:8e:1f:16:92:49:ea:32:22:c0:88:1f:60:ec:72:18:d6:
         92:71:e2:fd:a3:b9:20:f6:2c:c3:57:90:f5:01:5a:fb:1f:32:
         3e:d6:4a:9b:87:29:e6:16:55:0f:2a:db:73:92:39:18:59:10:
         a9:b5:a1:b1:ee:61:bb:dc:98:ee:3b:14:88:38:73:19:a1:69:
         9e:a5:02:e7:a5:27:b7:49:0c:15:4d:13:fa:23:6e:73:7c:0e:
         3c:5d:8d:61:e1:04:eb:4e:71:11:00:64:7e:fe:4d:09:bd:70:
         7b:90:11:d3:ba:1a:53:4a:25:7a:1b:a0:b1:12:b2:8f:08:1b:
         b2:3a:1b:bb:b7:6a:1d:f0:a7:11:af:1e:6a:d3:a1:75:54:fe:
         99:b8:53:46:51:5c:08:94:b8:5d:50:fb:69:80:01:c2:a7:3b:
         34:f7:1c:e1:07:68:08:6c:57:7a:95:05:e6:b6:ab:2d:18:bc:
         14:17:63:8d:bb:f8:45:57:06:80:2c:9d:17:96:f3:71:ae:45:
         72:92:c7:65:d3:2f:6c:9c
-----BEGIN CERTIFICATE-----
MIIGrTCCBJWgAwIBAgICExAwDQYJKoZIhvcNAQEEBQAwgawxCzAJBgNVBAYTAlVT
MQswCQYDVQQIEwJPSDERMA8GA1UEBxMIQ29sdW1idXMxEjAQBgNVBAoTCVZpa2lu
Z1ZQTjEdMBsGA1UECxMUTXlPcmdhbml6YXRpb25hbFVuaXQxFTATBgNVBAMTDFZp
a2luZ1ZQTiBDQTEQMA4GA1UEKRMHRWFzeVJTQTEhMB8GCSqGSIb3DQEJARYSbWVA
bXlob3N0Lm15ZG9tYWluMB4XDTE1MDQwMzE3NDE0NFoXDTI1MDMzMTE3NDE0NFow
HzEdMBsGA1UEAxMUQ2xpZW50MTU4OENlcnQ0NDFiMDkwggIiMA0GCSqGSIb3DQEB
AQUAA4ICDwAwggIKAoICAQCjBMlc6X0D7S59D6dHRdCiV67uE+q3n7EaDcLqdcsV
NWJO9O1KHVM9ynFW4k5iVgvaC/g7tIgQEcgKF7VlGREBZaGOCAfFz9q1zXMnjGo8
GZ7pD4LBwp8drymkxdnIV1PUOg2SXKC44r3U5aRNIfd4a4lD5M3G54JGLpkoAYhz
h170BaVJy02zjVRDH3KpkHGgD5HWzQLaTlXhifjCi2zUvq+osgpwJuACyJjPu4lr
0Lq02n934BQTKxiPv0NrLJGxKQZWhBaMFr5NMGtv5LR8xFe8047VGbe9v1ykehV7
T5yk432ZLH5CWiCtJWTuyEDh8BSdKxuN6hgx/Emw6jEO5MTJ0a5fC2RywpUA5uF7
nz8gB9gSzcfXt5r6OoieWHoOZHro1ZwVnRSQ0VdZ+JiS7Y4Adstz9a8sPpQEvY2P
+OTiPy2vBZ5ScCJmfiJbcfyrNM+oBBvOZHopcNLayBhpOHIvMC45jUP3xPk4aWfD
fDDj48yaqPats4IYNq8hwQ0fQDfsu3+HwNd1x4Hd/MmQ8pWbcZgytUx91vbSyAzo
JisudDUykQm6N2JFUo+H1ek/6e4AQnnfZkF6wXAxo7tbTpFgLUy2EmTr0kk+Bn13
dsg0a7ZE5Ol4jDgeVKOAy73OBKsxVdQ7rFeFyVR4fF67gXf6LPUD9K+rudRkG2v9
mwIDAQABo4IBYzCCAV8wCQYDVR0TBAIwADAtBglghkgBhvhCAQ0EIBYeRWFzeS1S
U0EgR2VuZXJhdGVkIENlcnRpZmljYXRlMB0GA1UdDgQWBBRjPdwqLo4n2xHpJ3LI
8j3DKFg64TCB4QYDVR0jBIHZMIHWgBQSzWAE0qCAnnDtxpm4eyzGUv0ZoaGBsqSB
rzCBrDELMAkGA1UEBhMCVVMxCzAJBgNVBAgTAk9IMREwDwYDVQQHEwhDb2x1bWJ1
czESMBAGA1UEChMJVmlraW5nVlBOMR0wGwYDVQQLExRNeU9yZ2FuaXphdGlvbmFs
VW5pdDEVMBMGA1UEAxMMVmlraW5nVlBOIENBMRAwDgYDVQQpEwdFYXN5UlNBMSEw
HwYJKoZIhvcNAQkBFhJtZUBteWhvc3QubXlkb21haW6CCQDPNYXugL8qPjATBgNV
HSUEDDAKBggrBgEFBQcDAjALBgNVHQ8EBAMCB4AwDQYJKoZIhvcNAQEEBQADggIB
AJrOXbhA8PjJ4bSRYH81KekUBoE97juFme2CwvaxBu3oRaTgY5mKSGFHSVRyCNYX
dcRtGMaMCYeoIxX0+u4gsNDLVdqrxYSJCAGjHQLOt+T5FYgLqd1F3VM3LKB4BxjC
boTgUj9/T3KTUNBc5+C22IgKfAu9ANpLVTou9ilqLfZqbYNTeQw6Qzrz0ly+7E0Z
WiTs6XPRHdyu8oVkJXdCsxPeWi9ZD/Fs0OeAe6Qd2n4skv4M7nmUcQtVfJEXIBvI
2ge/l2/gjdtdoYw0cNgC9WUCIy+6LG4TqMkrwJacbpMAYdsKrFAvJqQDqCsO+rJk
IMyCKK7y1slAiyowjucEEoZie7yKsA0j53N2uiDw3oSoAdLJdlkrOKEtbMLwyG5C
Hvc9tz8GpbucRR5Zox5Mo3T31xuZjh8WkknqMiLAiB9g7HIY1pJx4v2juSD2LMNX
kPUBWvsfMj7WSpuHKeYWVQ8q23OSORhZEKm1obHuYbvcmO47FIg4cxmhaZ6lAuel
J7dJDBVNE/ojbnN8DjxdjWHhBOtOcREAZH7+TQm9cHuQEdO6GlNKJXoboLESso8I
G7I6G7u3ah3wpxGvHmrToXVU/pm4U0ZRXAiUuF1Q+2mAAcKnOzT3HOEHaAhsV3qV
Bea2qy0YvBQXY427+EVXBoAsnReW83GuRXKSx2XTL2yc
-----END CERTIFICATE-----
