Certificate:
    Data:
        Version: 3 (0x2)
        Serial Number: 4888 (0x1318)
    Signature Algorithm: md5WithRSAEncryption
        Issuer: C=US, ST=OH, L=Columbus, O=VikingVPN, OU=MyOrganizationalUnit, CN=VikingVPN CA/name=EasyRSA/emailAddress=me@myhost.mydomain
        Validity
            Not Before: Apr  5 06:29:36 2015 GMT
            Not After : Apr  2 06:29:36 2025 GMT
        Subject: CN=Client1594Cert61ee8f
        Subject Public Key Info:
            Public Key Algorithm: rsaEncryption
                Public-Key: (4096 bit)
                Modulus:
                    00:a7:8d:cb:9e:d4:44:58:45:c5:ae:dc:58:3f:91:
                    44:04:57:9e:1a:7f:7b:80:5d:48:f8:8c:7e:8a:d8:
                    1e:37:d6:44:ba:5b:ab:73:d8:5a:59:66:c9:f9:09:
                    bd:a9:6d:31:4e:55:b9:da:70:cb:8a:53:50:ee:5b:
                    eb:d8:18:89:96:d1:01:73:d6:7e:a9:1f:90:33:69:
                    20:03:ca:85:7c:b9:8a:fe:d4:57:bf:56:83:40:fb:
                    b9:57:c5:c2:36:e7:38:df:09:06:ad:98:14:be:23:
                    8b:e5:cf:ad:99:c3:d7:f6:9c:f5:08:b2:74:0e:00:
                    2e:9b:d9:2d:06:f0:50:96:b5:f0:d8:22:ae:a6:5a:
                    5e:c9:49:77:df:d9:11:4a:e7:49:97:fd:b5:9a:e8:
                    17:25:ec:58:74:f1:8c:f6:79:21:94:5e:f4:54:38:
                    d5:66:06:d8:85:9f:04:9a:70:79:3e:a2:4b:94:66:
                    07:93:47:cf:cc:e6:1b:c2:b1:dc:e8:c6:35:fa:3b:
                    9b:82:8d:73:73:2f:0a:07:af:82:a8:62:3c:32:f0:
                    b4:96:ec:81:e0:26:85:a8:cb:88:3f:85:10:c1:b1:
                    17:76:bb:d4:be:02:11:3d:4f:0e:4b:c7:1e:46:ee:
                    73:5f:b7:eb:1b:45:4d:15:9b:a1:34:f9:84:bf:5b:
                    a3:87:f0:12:f2:82:2f:ca:bb:32:57:4e:65:9e:ba:
                    07:63:eb:66:5d:ff:70:38:31:6b:a1:c6:1a:42:a3:
                    aa:8c:ed:9d:61:8a:72:03:78:7b:8d:ef:b8:d5:68:
                    3b:4a:32:1b:a7:15:85:f0:ec:fe:71:77:9a:57:f6:
                    c8:38:25:4c:3a:86:c0:09:78:14:71:bb:f2:8b:e7:
                    cd:d2:94:29:10:ba:2d:9e:fb:1f:06:f1:a3:19:d7:
                    d4:e5:f8:fe:31:a2:36:2c:d2:e9:38:40:0b:05:cc:
                    07:d6:f6:dc:dc:7e:3c:7b:50:0a:7a:91:47:6f:6d:
                    ea:bf:2b:9a:9e:b0:ef:7e:d7:fb:77:89:2c:46:45:
                    27:0e:b4:e1:e4:2f:b1:b1:82:5f:fd:5f:8c:73:fb:
                    80:03:1f:99:73:89:de:8f:c2:ac:09:c6:39:a2:8b:
                    fa:61:b5:71:2c:37:d9:1b:de:b9:7e:a9:97:f0:19:
                    59:0a:58:67:a4:10:5b:a3:0e:4f:2f:05:2b:da:0a:
                    ff:f6:db:77:e2:a6:cd:6d:63:79:7a:35:ca:b1:c8:
                    31:d0:87:0a:22:38:37:a1:22:28:59:d1:f6:f9:b0:
                    90:a3:2e:57:97:44:31:15:d6:12:dd:a2:92:e1:aa:
                    4f:7c:75:35:df:2b:23:c8:10:b9:08:40:16:1e:06:
                    c0:9b:39
                Exponent: 65537 (0x10001)
        X509v3 extensions:
            X509v3 Basic Constraints: 
                CA:FALSE
            Netscape Comment: 
                Easy-RSA Generated Certificate
            X509v3 Subject Key Identifier: 
                30:45:89:B7:D3:76:16:75:48:D2:6B:DD:A1:7E:85:82:07:36:79:C1
            X509v3 Authority Key Identifier: 
                keyid:12:CD:60:04:D2:A0:80:9E:70:ED:C6:99:B8:7B:2C:C6:52:FD:19:A1
                DirName:/C=US/ST=OH/L=Columbus/O=VikingVPN/OU=MyOrganizationalUnit/CN=VikingVPN CA/name=EasyRSA/emailAddress=me@myhost.mydomain
                serial:CF:35:85:EE:80:BF:2A:3E

            X509v3 Extended Key Usage: 
                TLS Web Client Authentication
            X509v3 Key Usage: 
                Digital Signature
    Signature Algorithm: md5WithRSAEncryption
         41:ae:4a:fa:00:9d:3d:22:f9:4a:8c:3a:a8:a6:5d:e9:e6:89:
         40:f7:aa:3f:01:5c:bb:d9:3e:66:5a:f2:aa:64:58:cc:e0:a2:
         f8:bb:cd:34:18:b8:71:a0:55:b3:e1:9e:2c:de:46:5e:09:86:
         4b:ad:2e:9a:80:83:ff:f6:23:83:6e:63:eb:68:35:63:1a:d0:
         d9:95:57:c1:41:0f:54:d9:51:4a:e0:ec:ee:f1:8b:2a:78:e9:
         c6:36:88:e7:40:cb:52:fb:df:99:7d:ce:6a:82:c3:cf:2a:bd:
         07:9b:a3:48:40:9f:7e:8e:65:f1:fd:c8:ab:81:22:12:ef:da:
         23:0b:63:e2:7d:51:01:15:5a:8a:be:f9:7f:40:fc:f3:ec:d1:
         3c:96:91:c4:57:c1:31:d4:5a:86:e6:15:84:ee:ab:95:fc:6f:
         15:9b:8e:9c:72:97:82:3b:70:b1:6d:a7:5d:65:5c:b9:89:e2:
         40:06:7c:b6:2d:db:97:f7:54:ad:dd:8b:06:fd:1b:d1:19:ab:
         7e:d0:fa:b6:df:0e:a5:2d:b1:1c:f2:3e:d1:1f:cd:cd:29:db:
         a4:b8:f4:f0:8b:66:1b:da:a8:14:1a:75:09:3f:15:a7:30:b4:
         08:96:31:70:76:83:97:d1:4c:39:7b:b9:36:5d:9d:3e:19:1e:
         9c:e1:f8:f7:51:59:42:92:d9:11:bc:ef:22:38:68:58:23:4c:
         a8:5d:9d:6e:09:93:52:c0:68:76:a0:38:b1:d8:9b:cf:4c:c1:
         28:8b:33:da:58:f6:76:61:fd:81:b0:35:0a:72:cb:a2:11:a9:
         e2:25:df:77:63:4c:e1:a0:38:56:e7:b4:c9:c2:bd:a1:e4:74:
         ec:d5:2f:43:2b:1a:54:1f:b6:7d:c2:12:fc:7a:72:54:d6:e1:
         62:62:db:42:7b:a0:3d:c4:7d:11:81:8a:9c:3d:08:68:c3:e0:
         d5:42:e2:d3:74:b7:e0:e5:6d:8f:70:97:ef:9e:5e:e7:0a:ea:
         dc:5b:82:54:be:4c:a4:df:15:3c:42:9d:28:60:e9:2b:cf:12:
         ee:6c:c8:6c:0f:ec:40:a3:44:f4:3c:a7:3d:2f:b5:04:91:43:
         a3:78:43:52:90:bd:76:90:3b:7c:bd:6f:56:92:b6:b8:7f:6e:
         a1:d6:9e:83:72:ab:34:f8:60:93:01:0f:83:2c:2a:83:d2:ac:
         1d:6e:c5:73:8d:df:55:58:a0:03:17:94:0a:8d:64:81:c3:b7:
         c2:c7:d1:0c:e4:ec:2f:ad:f1:3e:70:e0:58:37:75:33:26:78:
         be:3a:bf:a5:f2:8d:50:a7:bd:ab:5b:73:7f:d0:7c:aa:1c:b9:
         e7:bd:c3:85:f8:8c:3e:7e
-----BEGIN CERTIFICATE-----
MIIGrTCCBJWgAwIBAgICExgwDQYJKoZIhvcNAQEEBQAwgawxCzAJBgNVBAYTAlVT
MQswCQYDVQQIEwJPSDERMA8GA1UEBxMIQ29sdW1idXMxEjAQBgNVBAoTCVZpa2lu
Z1ZQTjEdMBsGA1UECxMUTXlPcmdhbml6YXRpb25hbFVuaXQxFTATBgNVBAMTDFZp
a2luZ1ZQTiBDQTEQMA4GA1UEKRMHRWFzeVJTQTEhMB8GCSqGSIb3DQEJARYSbWVA
bXlob3N0Lm15ZG9tYWluMB4XDTE1MDQwNTA2MjkzNloXDTI1MDQwMjA2MjkzNlow
HzEdMBsGA1UEAxMUQ2xpZW50MTU5NENlcnQ2MWVlOGYwggIiMA0GCSqGSIb3DQEB
AQUAA4ICDwAwggIKAoICAQCnjcue1ERYRcWu3Fg/kUQEV54af3uAXUj4jH6K2B43
1kS6W6tz2FpZZsn5Cb2pbTFOVbnacMuKU1DuW+vYGImW0QFz1n6pH5AzaSADyoV8
uYr+1Fe/VoNA+7lXxcI25zjfCQatmBS+I4vlz62Zw9f2nPUIsnQOAC6b2S0G8FCW
tfDYIq6mWl7JSXff2RFK50mX/bWa6Bcl7Fh08Yz2eSGUXvRUONVmBtiFnwSacHk+
okuUZgeTR8/M5hvCsdzoxjX6O5uCjXNzLwoHr4KoYjwy8LSW7IHgJoWoy4g/hRDB
sRd2u9S+AhE9Tw5Lxx5G7nNft+sbRU0Vm6E0+YS/W6OH8BLygi/KuzJXTmWeugdj
62Zd/3A4MWuhxhpCo6qM7Z1hinIDeHuN77jVaDtKMhunFYXw7P5xd5pX9sg4JUw6
hsAJeBRxu/KL583SlCkQui2e+x8G8aMZ19Tl+P4xojYs0uk4QAsFzAfW9tzcfjx7
UAp6kUdvbeq/K5qesO9+1/t3iSxGRScOtOHkL7Gxgl/9X4xz+4ADH5lzid6PwqwJ
xjmii/phtXEsN9kb3rl+qZfwGVkKWGekEFujDk8vBSvaCv/223fips1tY3l6Ncqx
yDHQhwoiODehIihZ0fb5sJCjLleXRDEV1hLdopLhqk98dTXfKyPIELkIQBYeBsCb
OQIDAQABo4IBYzCCAV8wCQYDVR0TBAIwADAtBglghkgBhvhCAQ0EIBYeRWFzeS1S
U0EgR2VuZXJhdGVkIENlcnRpZmljYXRlMB0GA1UdDgQWBBQwRYm303YWdUjSa92h
foWCBzZ5wTCB4QYDVR0jBIHZMIHWgBQSzWAE0qCAnnDtxpm4eyzGUv0ZoaGBsqSB
rzCBrDELMAkGA1UEBhMCVVMxCzAJBgNVBAgTAk9IMREwDwYDVQQHEwhDb2x1bWJ1
czESMBAGA1UEChMJVmlraW5nVlBOMR0wGwYDVQQLExRNeU9yZ2FuaXphdGlvbmFs
VW5pdDEVMBMGA1UEAxMMVmlraW5nVlBOIENBMRAwDgYDVQQpEwdFYXN5UlNBMSEw
HwYJKoZIhvcNAQkBFhJtZUBteWhvc3QubXlkb21haW6CCQDPNYXugL8qPjATBgNV
HSUEDDAKBggrBgEFBQcDAjALBgNVHQ8EBAMCB4AwDQYJKoZIhvcNAQEEBQADggIB
AEGuSvoAnT0i+UqMOqimXenmiUD3qj8BXLvZPmZa8qpkWMzgovi7zTQYuHGgVbPh
nizeRl4JhkutLpqAg//2I4NuY+toNWMa0NmVV8FBD1TZUUrg7O7xiyp46cY2iOdA
y1L735l9zmqCw88qvQebo0hAn36OZfH9yKuBIhLv2iMLY+J9UQEVWoq++X9A/PPs
0TyWkcRXwTHUWobmFYTuq5X8bxWbjpxyl4I7cLFtp11lXLmJ4kAGfLYt25f3VK3d
iwb9G9EZq37Q+rbfDqUtsRzyPtEfzc0p26S49PCLZhvaqBQadQk/FacwtAiWMXB2
g5fRTDl7uTZdnT4ZHpzh+PdRWUKS2RG87yI4aFgjTKhdnW4Jk1LAaHagOLHYm89M
wSiLM9pY9nZh/YGwNQpyy6IRqeIl33djTOGgOFbntMnCvaHkdOzVL0MrGlQftn3C
Evx6clTW4WJi20J7oD3EfRGBipw9CGjD4NVC4tN0t+DlbY9wl++eXucK6txbglS+
TKTfFTxCnShg6SvPEu5syGwP7ECjRPQ8pz0vtQSRQ6N4Q1KQvXaQO3y9b1aStrh/
bqHWnoNyqzT4YJMBD4MsKoPSrB1uxXON31VYoAMXlAqNZIHDt8LH0Qzk7C+t8T5w
4Fg3dTMmeL46v6XyjVCnvatbc3/QfKocuee9w4X4jD5+
-----END CERTIFICATE-----
