Certificate:
    Data:
        Version: 3 (0x2)
        Serial Number: 4889 (0x1319)
    Signature Algorithm: md5WithRSAEncryption
        Issuer: C=US, ST=OH, L=Columbus, O=VikingVPN, OU=MyOrganizationalUnit, CN=VikingVPN CA/name=EasyRSA/emailAddress=me@myhost.mydomain
        Validity
            Not Before: Apr  5 17:31:29 2015 GMT
            Not After : Apr  2 17:31:29 2025 GMT
        Subject: CN=Client1595Cert13e67a
        Subject Public Key Info:
            Public Key Algorithm: rsaEncryption
                Public-Key: (4096 bit)
                Modulus:
                    00:d6:cd:ad:e2:f8:22:c2:5d:69:b3:b2:3b:39:32:
                    80:69:ba:b7:36:04:ed:05:17:c8:63:ab:1c:be:c6:
                    d7:42:3e:b3:1b:7a:c8:9e:fc:c5:63:ab:f1:03:23:
                    44:2b:a6:f5:98:0b:55:09:c3:9d:f3:3c:d2:6d:f5:
                    c2:ed:6c:4f:83:59:99:8d:21:15:7f:fb:de:4a:c9:
                    04:f4:60:c4:5e:67:47:da:00:12:42:d5:7f:cb:6f:
                    bd:15:f6:19:d1:dd:96:92:be:55:46:fa:37:3b:d1:
                    e9:17:dd:b6:82:85:65:8f:60:54:c5:74:06:ba:82:
                    a4:c7:f3:9f:10:82:af:08:64:44:15:7f:21:ce:78:
                    08:e6:99:65:f0:a0:25:50:af:a8:9d:53:e6:3a:b4:
                    65:a0:1e:1d:27:9b:e6:e6:9c:09:76:7e:af:7a:5c:
                    64:78:2d:5a:f7:f0:2c:25:fa:eb:7c:8c:0b:67:a4:
                    60:db:c9:cd:e6:45:cb:98:b8:51:0c:29:23:95:c5:
                    b4:6c:6e:5e:49:77:48:d3:87:98:f8:8f:89:aa:8f:
                    1f:4a:4d:70:da:5e:55:96:cb:a1:26:1f:b7:c5:cd:
                    59:70:8a:5a:0e:38:93:09:d7:85:96:ce:21:f4:67:
                    8c:bf:52:3f:1c:e9:4c:b5:9d:1c:d6:45:8f:c2:8c:
                    8a:db:be:a7:fa:4d:6e:dc:71:4e:56:59:85:8d:7c:
                    01:2e:ca:d1:02:a9:ea:8b:78:45:e7:ea:ca:04:d8:
                    88:42:47:56:df:ef:ee:17:82:e2:e4:20:ae:42:af:
                    b9:af:f9:8d:8c:c7:67:1d:8f:93:b5:58:55:ec:70:
                    7b:07:8d:35:21:38:92:80:0d:32:fe:f8:7d:f0:0e:
                    a0:a3:29:db:07:d6:04:1f:3f:99:09:16:ac:d3:dc:
                    e9:86:55:74:e7:aa:f0:58:9c:2e:29:7a:7d:a2:72:
                    0b:4e:44:12:21:65:59:2b:25:e6:6d:7a:44:59:07:
                    2d:99:33:cf:f5:bd:e4:96:f8:00:d2:64:bf:6c:6f:
                    b5:f5:c5:f8:c4:24:d9:32:99:21:a2:df:9e:47:f1:
                    31:89:75:21:ba:65:12:45:6b:43:f7:0e:ca:2c:70:
                    8b:25:c4:3b:43:7d:12:3a:ac:e8:92:db:dc:f4:ea:
                    af:0a:d7:4b:1f:2e:a7:45:1f:43:0e:5d:de:1f:f5:
                    8a:2d:1b:17:06:70:f0:69:b1:4f:4a:28:43:f7:c2:
                    1d:47:25:7f:b3:e9:71:69:1d:31:50:6d:3c:2e:bb:
                    5f:b5:ed:4a:c4:db:98:ce:98:29:4a:0b:4f:16:eb:
                    5e:3c:2b:03:eb:3d:f0:29:6c:ee:d2:10:88:46:26:
                    32:07:23
                Exponent: 65537 (0x10001)
        X509v3 extensions:
            X509v3 Basic Constraints: 
                CA:FALSE
            Netscape Comment: 
                Easy-RSA Generated Certificate
            X509v3 Subject Key Identifier: 
                B6:2E:55:9C:B6:69:E1:6F:37:10:3B:18:27:6A:8F:70:69:A7:E0:7F
            X509v3 Authority Key Identifier: 
                keyid:12:CD:60:04:D2:A0:80:9E:70:ED:C6:99:B8:7B:2C:C6:52:FD:19:A1
                DirName:/C=US/ST=OH/L=Columbus/O=VikingVPN/OU=MyOrganizationalUnit/CN=VikingVPN CA/name=EasyRSA/emailAddress=me@myhost.mydomain
                serial:CF:35:85:EE:80:BF:2A:3E

            X509v3 Extended Key Usage: 
                TLS Web Client Authentication
            X509v3 Key Usage: 
                Digital Signature
    Signature Algorithm: md5WithRSAEncryption
         43:c5:f7:1d:aa:58:98:a0:6c:16:68:0e:7d:37:2e:c5:41:73:
         75:e7:24:3e:85:82:f3:cc:c7:25:fa:61:db:09:a5:c4:aa:35:
         31:e3:02:a0:46:d5:41:8b:44:75:1c:69:4b:c2:ef:85:0a:5c:
         9d:82:1e:ed:1c:04:a0:d1:6e:a9:e7:28:0c:bb:d7:f2:a8:f0:
         72:9d:7e:75:a9:05:60:b5:fb:87:4b:44:76:2a:f9:c5:72:5f:
         72:49:96:41:c8:83:e6:73:69:54:e1:f8:93:3d:45:3f:51:27:
         5a:58:44:3d:02:4b:21:e3:31:40:5c:9c:86:be:59:34:5c:a9:
         01:58:01:dd:5a:10:f6:65:6a:be:cb:ce:a0:05:fc:00:0d:b1:
         9a:73:50:d8:1b:47:3e:c2:09:a6:32:cc:71:39:84:d1:33:ba:
         fc:56:df:81:93:23:a5:0c:a2:ba:86:36:6a:61:09:67:34:57:
         53:9c:71:f8:cc:2e:7e:09:ee:71:d4:c0:b0:b8:59:85:a1:b8:
         40:48:fb:15:ea:3c:37:0c:ff:0d:c2:27:13:17:ff:6d:5c:f9:
         21:b5:7c:14:41:c2:0a:9e:2f:30:05:39:c5:58:74:fe:14:ab:
         28:77:43:d3:8f:23:9f:8b:f8:a1:a8:62:e3:82:fd:07:8e:28:
         c3:6b:f0:ce:91:52:ad:ec:24:09:1a:5c:84:c0:0a:16:64:2d:
         e3:50:17:e2:3c:61:ed:2d:3c:0a:da:15:36:ce:d4:9d:d3:dc:
         c8:c3:24:8c:b5:b7:1b:4d:0d:08:81:57:fd:2c:b3:aa:d9:d8:
         a3:3c:d7:5a:1b:b9:71:8e:9a:07:7c:d3:0c:0a:ff:6c:09:09:
         66:43:36:44:d4:58:2a:f9:be:5c:6d:92:c2:5a:19:24:1c:43:
         88:f3:86:98:56:35:05:ae:c2:d7:92:92:23:b1:82:01:c3:01:
         87:4e:10:96:ef:81:fd:f2:56:84:a2:49:a2:7c:1b:a5:82:f3:
         81:88:04:b8:b3:62:88:20:d5:0e:55:3d:52:9e:41:51:59:1c:
         a7:96:d8:b4:1b:44:58:7f:bd:ad:e7:89:53:aa:13:c2:12:c5:
         bf:9f:60:36:2b:ea:5b:5d:6a:62:84:c2:e1:99:8f:7b:1f:38:
         1e:72:e9:b7:ed:a4:d6:6b:6a:7d:2e:84:43:bc:dd:a8:fa:0b:
         26:c7:a9:b0:24:62:44:60:85:60:b8:35:20:53:b9:70:2b:bf:
         13:6a:56:a2:0b:21:f4:8d:60:16:4c:ea:1b:73:69:7f:21:8c:
         86:9d:dc:6b:bc:d2:88:ea:60:0f:fc:c2:a0:72:1d:f4:c9:b6:
         93:34:6f:cc:f8:ae:14:ac
-----BEGIN CERTIFICATE-----
MIIGrTCCBJWgAwIBAgICExkwDQYJKoZIhvcNAQEEBQAwgawxCzAJBgNVBAYTAlVT
MQswCQYDVQQIEwJPSDERMA8GA1UEBxMIQ29sdW1idXMxEjAQBgNVBAoTCVZpa2lu
Z1ZQTjEdMBsGA1UECxMUTXlPcmdhbml6YXRpb25hbFVuaXQxFTATBgNVBAMTDFZp
a2luZ1ZQTiBDQTEQMA4GA1UEKRMHRWFzeVJTQTEhMB8GCSqGSIb3DQEJARYSbWVA
bXlob3N0Lm15ZG9tYWluMB4XDTE1MDQwNTE3MzEyOVoXDTI1MDQwMjE3MzEyOVow
HzEdMBsGA1UEAxMUQ2xpZW50MTU5NUNlcnQxM2U2N2EwggIiMA0GCSqGSIb3DQEB
AQUAA4ICDwAwggIKAoICAQDWza3i+CLCXWmzsjs5MoBpurc2BO0FF8hjqxy+xtdC
PrMbesie/MVjq/EDI0QrpvWYC1UJw53zPNJt9cLtbE+DWZmNIRV/+95KyQT0YMRe
Z0faABJC1X/Lb70V9hnR3ZaSvlVG+jc70ekX3baChWWPYFTFdAa6gqTH858Qgq8I
ZEQVfyHOeAjmmWXwoCVQr6idU+Y6tGWgHh0nm+bmnAl2fq96XGR4LVr38Cwl+ut8
jAtnpGDbyc3mRcuYuFEMKSOVxbRsbl5Jd0jTh5j4j4mqjx9KTXDaXlWWy6EmH7fF
zVlwiloOOJMJ14WWziH0Z4y/Uj8c6Uy1nRzWRY/CjIrbvqf6TW7ccU5WWYWNfAEu
ytECqeqLeEXn6soE2IhCR1bf7+4XguLkIK5Cr7mv+Y2Mx2cdj5O1WFXscHsHjTUh
OJKADTL++H3wDqCjKdsH1gQfP5kJFqzT3OmGVXTnqvBYnC4pen2icgtORBIhZVkr
JeZtekRZBy2ZM8/1veSW+ADSZL9sb7X1xfjEJNkymSGi355H8TGJdSG6ZRJFa0P3
DsoscIslxDtDfRI6rOiS29z06q8K10sfLqdFH0MOXd4f9YotGxcGcPBpsU9KKEP3
wh1HJX+z6XFpHTFQbTwuu1+17UrE25jOmClKC08W6148KwPrPfApbO7SEIhGJjIH
IwIDAQABo4IBYzCCAV8wCQYDVR0TBAIwADAtBglghkgBhvhCAQ0EIBYeRWFzeS1S
U0EgR2VuZXJhdGVkIENlcnRpZmljYXRlMB0GA1UdDgQWBBS2LlWctmnhbzcQOxgn
ao9waafgfzCB4QYDVR0jBIHZMIHWgBQSzWAE0qCAnnDtxpm4eyzGUv0ZoaGBsqSB
rzCBrDELMAkGA1UEBhMCVVMxCzAJBgNVBAgTAk9IMREwDwYDVQQHEwhDb2x1bWJ1
czESMBAGA1UEChMJVmlraW5nVlBOMR0wGwYDVQQLExRNeU9yZ2FuaXphdGlvbmFs
VW5pdDEVMBMGA1UEAxMMVmlraW5nVlBOIENBMRAwDgYDVQQpEwdFYXN5UlNBMSEw
HwYJKoZIhvcNAQkBFhJtZUBteWhvc3QubXlkb21haW6CCQDPNYXugL8qPjATBgNV
HSUEDDAKBggrBgEFBQcDAjALBgNVHQ8EBAMCB4AwDQYJKoZIhvcNAQEEBQADggIB
AEPF9x2qWJigbBZoDn03LsVBc3XnJD6FgvPMxyX6YdsJpcSqNTHjAqBG1UGLRHUc
aUvC74UKXJ2CHu0cBKDRbqnnKAy71/Ko8HKdfnWpBWC1+4dLRHYq+cVyX3JJlkHI
g+ZzaVTh+JM9RT9RJ1pYRD0CSyHjMUBcnIa+WTRcqQFYAd1aEPZlar7LzqAF/AAN
sZpzUNgbRz7CCaYyzHE5hNEzuvxW34GTI6UMorqGNmphCWc0V1OccfjMLn4J7nHU
wLC4WYWhuEBI+xXqPDcM/w3CJxMX/21c+SG1fBRBwgqeLzAFOcVYdP4Uqyh3Q9OP
I5+L+KGoYuOC/QeOKMNr8M6RUq3sJAkaXITAChZkLeNQF+I8Ye0tPAraFTbO1J3T
3MjDJIy1txtNDQiBV/0ss6rZ2KM811obuXGOmgd80wwK/2wJCWZDNkTUWCr5vlxt
ksJaGSQcQ4jzhphWNQWuwteSkiOxggHDAYdOEJbvgf3yVoSiSaJ8G6WC84GIBLiz
Yogg1Q5VPVKeQVFZHKeW2LQbRFh/va3niVOqE8ISxb+fYDYr6ltdamKEwuGZj3sf
OB5y6bftpNZran0uhEO83aj6CybHqbAkYkRghWC4NSBTuXArvxNqVqILIfSNYBZM
6htzaX8hjIad3Gu80ojqYA/8wqByHfTJtpM0b8z4rhSs
-----END CERTIFICATE-----
