Certificate:
    Data:
        Version: 3 (0x2)
        Serial Number: 4895 (0x131f)
    Signature Algorithm: md5WithRSAEncryption
        Issuer: C=US, ST=OH, L=Columbus, O=VikingVPN, OU=MyOrganizationalUnit, CN=VikingVPN CA/name=EasyRSA/emailAddress=me@myhost.mydomain
        Validity
            Not Before: Apr  6 05:52:56 2015 GMT
            Not After : Apr  3 05:52:56 2025 GMT
        Subject: CN=Client1364Cert7d5651
        Subject Public Key Info:
            Public Key Algorithm: rsaEncryption
                Public-Key: (4096 bit)
                Modulus:
                    00:d3:36:83:25:0c:db:7f:e6:4b:c9:b0:38:6f:a4:
                    77:73:2d:b9:62:31:8b:0c:9f:77:89:15:7c:c9:92:
                    7c:f2:d0:a3:be:98:b4:7b:11:de:10:98:64:72:2c:
                    cc:7c:ca:f8:0c:4b:01:e0:62:85:38:be:d9:32:03:
                    40:35:4b:c8:08:1d:ff:e8:17:3c:be:32:78:4c:8e:
                    26:97:ae:d5:68:d3:8f:1f:2a:8b:5e:cb:30:a6:0f:
                    00:b2:40:66:5c:32:26:50:9c:07:5f:42:e6:0f:1f:
                    87:b7:a7:56:95:5c:62:89:9a:6a:92:c2:31:75:49:
                    7f:99:78:55:ba:e4:83:2a:3a:64:a5:97:33:6a:8a:
                    21:7b:b5:de:ec:a1:1e:e9:57:ae:06:82:19:60:54:
                    6d:81:26:3d:e9:78:bd:a5:1b:6a:10:55:aa:04:db:
                    95:1e:ad:aa:f6:83:cd:0e:c0:8f:51:d9:d2:18:81:
                    6a:e8:ad:b7:01:83:33:ef:ce:b4:25:a6:f9:f8:3a:
                    64:44:e3:83:f2:29:2c:0a:9c:16:3e:64:ab:6e:fb:
                    85:14:50:4f:03:48:b1:df:6f:93:56:53:3c:90:85:
                    3b:a3:de:59:fc:60:13:34:c7:f1:18:75:4e:c0:37:
                    61:be:94:95:9b:4b:28:1b:72:e1:da:3e:a8:31:a7:
                    e7:b3:0e:f6:01:e6:04:d5:29:c7:a1:68:90:cd:80:
                    ec:9b:8e:1d:fa:68:c5:3f:f9:b7:20:c9:ad:6b:05:
                    e6:96:a7:1d:d5:a4:f1:9e:bd:f9:ad:74:6e:68:91:
                    cf:a2:f2:a7:aa:fb:09:f8:da:78:8b:04:7a:4a:42:
                    f0:80:a2:c6:db:dc:a1:69:d1:58:86:46:cd:48:3b:
                    c4:38:f6:df:d0:3d:89:7a:43:b3:3c:4a:52:06:cf:
                    4d:47:46:80:c2:f3:bc:0d:b1:59:05:31:92:65:0d:
                    4c:7a:a0:98:c4:2b:83:90:08:3c:81:86:d7:87:63:
                    e9:71:05:70:cc:54:1c:0f:b3:5e:76:0d:66:b2:39:
                    2d:cb:03:75:43:29:f2:69:61:5c:2c:b8:94:45:7e:
                    dd:e2:69:fe:b9:c5:7c:67:ac:3e:9d:17:d5:57:e2:
                    7c:5d:47:e2:01:26:82:16:68:2c:df:ba:d2:6c:d1:
                    e4:93:ff:80:75:dc:8c:b6:ed:44:64:b5:b0:e5:c3:
                    c9:2f:b9:4b:fc:e5:3e:ad:fa:42:c5:f1:4c:3e:bb:
                    ac:18:7a:b0:97:4d:c4:2d:a6:25:c0:ec:7d:6d:5d:
                    18:9b:da:c2:4d:f6:55:50:4c:da:80:a9:a8:d9:ad:
                    5b:3f:d3:ec:81:9e:6c:6a:9b:c2:cc:1a:2f:84:cf:
                    81:27:8b
                Exponent: 65537 (0x10001)
        X509v3 extensions:
            X509v3 Basic Constraints: 
                CA:FALSE
            Netscape Comment: 
                Easy-RSA Generated Certificate
            X509v3 Subject Key Identifier: 
                A6:AA:B9:1C:B1:3B:63:3C:2B:E7:DD:62:68:FA:17:61:99:A5:73:A5
            X509v3 Authority Key Identifier: 
                keyid:12:CD:60:04:D2:A0:80:9E:70:ED:C6:99:B8:7B:2C:C6:52:FD:19:A1
                DirName:/C=US/ST=OH/L=Columbus/O=VikingVPN/OU=MyOrganizationalUnit/CN=VikingVPN CA/name=EasyRSA/emailAddress=me@myhost.mydomain
                serial:CF:35:85:EE:80:BF:2A:3E

            X509v3 Extended Key Usage: 
                TLS Web Client Authentication
            X509v3 Key Usage: 
                Digital Signature
    Signature Algorithm: md5WithRSAEncryption
         ea:af:d9:36:cd:a3:30:09:f6:f8:94:d0:d5:c0:6a:d9:3f:e1:
         f6:ec:7c:4f:98:aa:e0:78:62:76:ce:8d:2b:7c:9a:32:21:33:
         e6:03:e5:d2:c7:4b:b5:08:47:e9:ee:f7:b0:aa:d1:71:ed:40:
         85:0f:8d:fc:0d:84:a5:1b:70:58:59:4c:9b:12:5f:f0:f4:55:
         02:6d:15:06:25:75:b9:6b:d6:a0:f6:67:4d:87:c1:16:15:4d:
         56:e3:45:c1:87:6f:fb:6a:dc:a1:29:ed:39:7e:6f:63:1d:b5:
         15:01:09:20:a4:53:eb:07:56:1e:d6:64:37:57:e2:ff:4b:b5:
         7d:ff:7d:5b:92:cb:6b:b4:ab:47:3c:d1:9b:3a:f6:81:8a:46:
         fd:b9:81:d0:37:bc:b2:7b:43:54:ce:1d:76:27:7a:75:d6:cb:
         08:2a:83:f3:40:6f:78:db:98:04:5f:3b:7c:70:01:e4:da:57:
         b8:c8:c2:b4:dc:92:60:87:94:aa:54:f1:e6:c8:a6:3a:0f:93:
         8c:bb:aa:ae:b0:78:a9:1e:5b:16:db:15:4d:08:9c:7d:52:ce:
         14:a7:82:98:6e:33:f6:50:c6:36:d4:43:d8:da:f3:d2:ba:49:
         63:d8:25:02:04:70:a7:96:a2:5c:df:85:03:b0:8b:9d:5e:df:
         15:d4:b3:58:35:9c:03:ef:69:96:15:93:55:2a:59:73:a6:fa:
         30:3e:fb:18:b8:fc:ea:54:fd:00:b7:61:62:30:51:55:d2:41:
         96:1a:2c:55:47:9d:16:a8:f5:25:bc:e3:09:ac:f1:7c:23:64:
         1b:e5:4e:22:3e:a3:5d:dd:3c:ff:66:54:b5:4f:11:51:5e:2c:
         04:cf:03:82:54:21:c9:6f:2b:9f:97:58:7b:4f:ec:ca:47:76:
         d0:4d:b4:47:13:80:a1:54:13:b4:2a:46:10:51:c2:24:b5:a0:
         e3:73:c3:c1:d0:32:5a:36:91:ef:df:23:78:59:ff:7f:f0:00:
         eb:ba:6f:2f:8c:a8:e6:d6:58:fd:b1:b4:96:a9:11:2e:70:d6:
         d8:93:d0:04:f0:50:b3:bf:89:0b:9a:ba:ab:3e:73:c2:a8:6b:
         af:72:1e:5a:93:f7:8e:fb:d4:14:70:86:17:a6:45:97:5c:a7:
         65:b5:b1:b3:ba:51:20:2c:f5:53:a0:be:9a:37:24:a9:b7:03:
         f6:39:1d:7d:37:c0:8b:e7:0d:f5:07:3e:88:fb:1b:c9:0c:ba:
         85:ee:b3:97:e3:da:f3:0c:72:b8:9e:ad:c9:63:f1:dc:7a:aa:
         85:a1:97:56:b1:8a:5c:98:2c:35:c5:09:7b:b5:ff:22:41:af:
         b2:0e:b0:eb:7d:6d:bc:5b
-----BEGIN CERTIFICATE-----
MIIGrTCCBJWgAwIBAgICEx8wDQYJKoZIhvcNAQEEBQAwgawxCzAJBgNVBAYTAlVT
MQswCQYDVQQIEwJPSDERMA8GA1UEBxMIQ29sdW1idXMxEjAQBgNVBAoTCVZpa2lu
Z1ZQTjEdMBsGA1UECxMUTXlPcmdhbml6YXRpb25hbFVuaXQxFTATBgNVBAMTDFZp
a2luZ1ZQTiBDQTEQMA4GA1UEKRMHRWFzeVJTQTEhMB8GCSqGSIb3DQEJARYSbWVA
bXlob3N0Lm15ZG9tYWluMB4XDTE1MDQwNjA1NTI1NloXDTI1MDQwMzA1NTI1Nlow
HzEdMBsGA1UEAxMUQ2xpZW50MTM2NENlcnQ3ZDU2NTEwggIiMA0GCSqGSIb3DQEB
AQUAA4ICDwAwggIKAoICAQDTNoMlDNt/5kvJsDhvpHdzLbliMYsMn3eJFXzJknzy
0KO+mLR7Ed4QmGRyLMx8yvgMSwHgYoU4vtkyA0A1S8gIHf/oFzy+MnhMjiaXrtVo
048fKoteyzCmDwCyQGZcMiZQnAdfQuYPH4e3p1aVXGKJmmqSwjF1SX+ZeFW65IMq
OmSllzNqiiF7td7soR7pV64GghlgVG2BJj3peL2lG2oQVaoE25Uerar2g80OwI9R
2dIYgWrorbcBgzPvzrQlpvn4OmRE44PyKSwKnBY+ZKtu+4UUUE8DSLHfb5NWUzyQ
hTuj3ln8YBM0x/EYdU7AN2G+lJWbSygbcuHaPqgxp+ezDvYB5gTVKcehaJDNgOyb
jh36aMU/+bcgya1rBeaWpx3VpPGevfmtdG5okc+i8qeq+wn42niLBHpKQvCAosbb
3KFp0ViGRs1IO8Q49t/QPYl6Q7M8SlIGz01HRoDC87wNsVkFMZJlDUx6oJjEK4OQ
CDyBhteHY+lxBXDMVBwPs152DWayOS3LA3VDKfJpYVwsuJRFft3iaf65xXxnrD6d
F9VX4nxdR+IBJoIWaCzfutJs0eST/4B13Iy27URktbDlw8kvuUv85T6t+kLF8Uw+
u6wYerCXTcQtpiXA7H1tXRib2sJN9lVQTNqAqajZrVs/0+yBnmxqm8LMGi+Ez4En
iwIDAQABo4IBYzCCAV8wCQYDVR0TBAIwADAtBglghkgBhvhCAQ0EIBYeRWFzeS1S
U0EgR2VuZXJhdGVkIENlcnRpZmljYXRlMB0GA1UdDgQWBBSmqrkcsTtjPCvn3WJo
+hdhmaVzpTCB4QYDVR0jBIHZMIHWgBQSzWAE0qCAnnDtxpm4eyzGUv0ZoaGBsqSB
rzCBrDELMAkGA1UEBhMCVVMxCzAJBgNVBAgTAk9IMREwDwYDVQQHEwhDb2x1bWJ1
czESMBAGA1UEChMJVmlraW5nVlBOMR0wGwYDVQQLExRNeU9yZ2FuaXphdGlvbmFs
VW5pdDEVMBMGA1UEAxMMVmlraW5nVlBOIENBMRAwDgYDVQQpEwdFYXN5UlNBMSEw
HwYJKoZIhvcNAQkBFhJtZUBteWhvc3QubXlkb21haW6CCQDPNYXugL8qPjATBgNV
HSUEDDAKBggrBgEFBQcDAjALBgNVHQ8EBAMCB4AwDQYJKoZIhvcNAQEEBQADggIB
AOqv2TbNozAJ9viU0NXAatk/4fbsfE+YquB4YnbOjSt8mjIhM+YD5dLHS7UIR+nu
97Cq0XHtQIUPjfwNhKUbcFhZTJsSX/D0VQJtFQYldblr1qD2Z02HwRYVTVbjRcGH
b/tq3KEp7Tl+b2MdtRUBCSCkU+sHVh7WZDdX4v9LtX3/fVuSy2u0q0c80Zs69oGK
Rv25gdA3vLJ7Q1TOHXYnenXWywgqg/NAb3jbmARfO3xwAeTaV7jIwrTckmCHlKpU
8ebIpjoPk4y7qq6weKkeWxbbFU0InH1SzhSngphuM/ZQxjbUQ9ja89K6SWPYJQIE
cKeWolzfhQOwi51e3xXUs1g1nAPvaZYVk1UqWXOm+jA++xi4/OpU/QC3YWIwUVXS
QZYaLFVHnRao9SW84wms8XwjZBvlTiI+o13dPP9mVLVPEVFeLATPA4JUIclvK5+X
WHtP7MpHdtBNtEcTgKFUE7QqRhBRwiS1oONzw8HQMlo2ke/fI3hZ/3/wAOu6by+M
qObWWP2xtJapES5w1tiT0ATwULO/iQuauqs+c8Koa69yHlqT94771BRwhhemRZdc
p2W1sbO6USAs9VOgvpo3JKm3A/Y5HX03wIvnDfUHPoj7G8kMuoXus5fj2vMMcrie
rclj8dx6qoWhl1axilyYLDXFCXu1/yJBr7IOsOt9bbxb
-----END CERTIFICATE-----
