Certificate:
    Data:
        Version: 3 (0x2)
        Serial Number: 4898 (0x1322)
    Signature Algorithm: md5WithRSAEncryption
        Issuer: C=US, ST=OH, L=Columbus, O=VikingVPN, OU=MyOrganizationalUnit, CN=VikingVPN CA/name=EasyRSA/emailAddress=me@myhost.mydomain
        Validity
            Not Before: Apr  6 15:09:23 2015 GMT
            Not After : Apr  3 15:09:23 2025 GMT
        Subject: CN=Client543Certceb9ad
        Subject Public Key Info:
            Public Key Algorithm: rsaEncryption
                Public-Key: (4096 bit)
                Modulus:
                    00:c3:03:fb:c1:fa:78:65:e3:1a:b3:75:a2:38:13:
                    78:54:af:d3:e5:5d:ed:2d:a8:59:d3:d1:3c:3f:fd:
                    fe:ad:70:1f:81:cf:48:49:cb:ee:7a:b0:4f:1d:b4:
                    84:f2:56:af:ad:67:c1:03:77:9e:93:3d:20:9b:50:
                    47:62:df:14:d9:1e:a8:9e:8e:17:00:d0:53:0d:91:
                    7b:35:aa:5b:95:89:ab:0b:a6:90:20:a4:c2:40:7e:
                    fb:09:b5:82:68:17:06:6e:0c:ba:21:3a:bd:7a:cf:
                    f8:93:96:bb:42:2b:f9:f4:ec:ec:64:49:01:c1:f4:
                    52:2e:ac:24:67:65:d4:26:eb:8f:71:0d:06:b7:30:
                    5e:81:b1:4a:71:b5:ed:7f:81:14:96:91:33:ed:80:
                    7d:2f:81:83:5f:4f:60:ef:41:73:e9:46:56:d6:d5:
                    48:f8:b6:c8:87:61:1e:0e:e6:6d:4b:9f:64:93:db:
                    b7:88:0e:0c:98:d8:8d:4e:9e:12:1f:73:85:21:42:
                    fa:4a:fc:07:79:1d:17:4e:97:ce:f8:66:0a:44:67:
                    ad:2b:cf:88:85:3e:89:01:67:67:34:21:52:39:60:
                    14:04:73:f5:04:9e:f7:9a:da:bd:ec:9b:cc:5b:06:
                    f3:69:d4:7f:5c:f8:a9:e0:da:2c:6f:b6:ac:90:93:
                    1c:60:7a:56:0a:bd:72:3d:f6:b5:c0:25:8f:6d:9c:
                    ed:29:c8:70:6f:da:5f:f2:c0:38:2d:e6:0b:b4:ab:
                    e4:95:e0:01:e5:11:3c:53:61:38:01:a6:59:4a:62:
                    83:b1:f4:bc:a2:b0:ac:a3:1a:d0:b3:6b:78:2f:78:
                    0c:6a:9c:6a:00:65:75:e2:eb:00:58:7d:c2:e3:79:
                    21:df:3d:a0:fd:3d:a4:8a:09:0e:ef:c8:48:a2:41:
                    32:52:23:eb:2c:a6:7f:2a:77:3e:92:d1:54:60:e6:
                    a1:f0:1f:6f:e9:35:74:c8:e8:7a:99:cf:d4:96:d6:
                    f4:67:41:0b:25:84:6a:84:2e:c2:95:aa:cc:e8:9a:
                    b1:ca:14:b6:e5:cf:b1:9c:02:3d:4d:59:ed:6e:39:
                    48:f6:3b:ed:a3:0e:ff:61:80:68:fd:0c:4c:a9:c8:
                    2f:43:b0:c0:d2:b1:81:90:b6:b2:cb:0f:24:e5:65:
                    0a:6f:35:71:bd:9c:2f:3a:7f:64:c9:7a:a7:98:e5:
                    07:ca:19:90:e4:e0:3e:dc:38:a2:e8:7d:fb:d8:80:
                    b9:9e:7b:09:e4:39:9b:d8:ed:83:10:96:93:0e:55:
                    14:73:9c:dc:20:67:8d:55:80:85:f3:a8:76:c9:ab:
                    8b:2b:87:ff:4a:91:c4:f5:06:9e:c2:41:85:51:7e:
                    4e:40:79
                Exponent: 65537 (0x10001)
        X509v3 extensions:
            X509v3 Basic Constraints: 
                CA:FALSE
            Netscape Comment: 
                Easy-RSA Generated Certificate
            X509v3 Subject Key Identifier: 
                25:34:3E:43:0D:C6:BA:1D:63:2D:C8:28:0D:BD:31:47:7A:F1:6E:59
            X509v3 Authority Key Identifier: 
                keyid:12:CD:60:04:D2:A0:80:9E:70:ED:C6:99:B8:7B:2C:C6:52:FD:19:A1
                DirName:/C=US/ST=OH/L=Columbus/O=VikingVPN/OU=MyOrganizationalUnit/CN=VikingVPN CA/name=EasyRSA/emailAddress=me@myhost.mydomain
                serial:CF:35:85:EE:80:BF:2A:3E

            X509v3 Extended Key Usage: 
                TLS Web Client Authentication
            X509v3 Key Usage: 
                Digital Signature
    Signature Algorithm: md5WithRSAEncryption
         82:fd:0f:94:ae:2e:51:e5:b3:43:3d:79:66:5a:47:fd:3c:44:
         4c:44:c2:ef:8e:1a:18:a5:6d:eb:60:da:b5:65:49:46:34:7f:
         0f:1d:5a:c3:7c:ba:a0:2c:40:96:27:0d:fb:30:59:44:1c:d9:
         00:e4:56:43:90:ad:9e:8c:c1:33:6b:81:de:24:d5:63:37:5e:
         b2:1f:15:51:e1:e5:b6:e0:9b:7e:01:93:d8:83:b6:7b:41:2d:
         e9:6e:bf:e7:16:1d:77:84:36:df:2f:ec:c5:b1:82:ff:53:93:
         64:f5:f1:b3:89:55:46:95:f0:53:35:1e:28:9b:4e:c3:c8:81:
         93:aa:f2:64:a4:c4:25:b9:4d:36:97:c2:3b:8b:e2:a7:8c:de:
         f3:a9:90:24:b0:98:95:ec:78:92:e6:0d:77:bb:97:de:50:9c:
         aa:68:df:ba:eb:9c:5a:0a:c1:d1:e1:06:92:b2:cf:f0:58:8a:
         0b:90:09:9a:fd:4c:1f:63:ba:be:da:70:02:e3:dc:a2:86:2d:
         58:16:50:ae:5d:fa:e2:93:d2:da:fa:ee:3d:2d:5b:9f:a5:ea:
         a6:9b:bb:7e:c0:10:e0:ef:03:fb:a0:20:dd:14:0f:5a:84:29:
         3d:39:2a:e4:f9:17:c5:2f:78:bf:45:53:19:86:2a:dd:a5:db:
         7e:36:ee:79:ea:f3:f8:62:42:dd:60:6d:91:36:93:97:42:93:
         fb:af:f4:58:65:aa:09:48:1f:a2:68:20:b6:17:63:8a:25:97:
         dc:75:dc:6a:42:0e:1b:ef:01:8c:6c:ea:63:8b:b2:75:d0:01:
         68:fd:b5:ce:89:7a:03:43:f0:e2:98:18:fd:d0:43:4f:14:12:
         d6:c5:c7:d6:8d:f3:14:e8:5a:ed:fa:93:b3:09:44:45:e4:d0:
         b3:c4:d5:7e:10:24:f9:d7:2a:86:a8:15:7f:39:bc:c1:53:d4:
         26:c3:47:02:b9:b1:62:aa:e5:e6:d8:79:20:e8:6f:33:97:9a:
         42:52:cf:49:93:64:5f:c0:b7:5a:9a:1c:cb:e6:4f:9a:dc:80:
         90:f9:a6:8b:57:35:fc:39:be:b2:3f:67:a5:f3:75:37:8e:df:
         cb:f3:2b:d7:c5:cb:c2:9b:b5:95:7e:c9:d5:3d:d3:c0:e4:16:
         22:94:2c:aa:cc:b6:e7:29:85:fe:00:81:b1:89:f2:62:ab:6c:
         ba:87:15:ae:fc:d8:b6:39:d1:44:99:17:c6:8c:8a:db:ec:34:
         91:80:c0:5b:16:5d:d7:df:a9:97:b4:62:ce:d4:68:a0:6f:db:
         fc:9d:10:82:47:61:19:67:4c:88:4b:ba:20:24:50:99:3e:bd:
         68:b4:3f:40:73:46:d8:91
-----BEGIN CERTIFICATE-----
MIIGrDCCBJSgAwIBAgICEyIwDQYJKoZIhvcNAQEEBQAwgawxCzAJBgNVBAYTAlVT
MQswCQYDVQQIEwJPSDERMA8GA1UEBxMIQ29sdW1idXMxEjAQBgNVBAoTCVZpa2lu
Z1ZQTjEdMBsGA1UECxMUTXlPcmdhbml6YXRpb25hbFVuaXQxFTATBgNVBAMTDFZp
a2luZ1ZQTiBDQTEQMA4GA1UEKRMHRWFzeVJTQTEhMB8GCSqGSIb3DQEJARYSbWVA
bXlob3N0Lm15ZG9tYWluMB4XDTE1MDQwNjE1MDkyM1oXDTI1MDQwMzE1MDkyM1ow
HjEcMBoGA1UEAxMTQ2xpZW50NTQzQ2VydGNlYjlhZDCCAiIwDQYJKoZIhvcNAQEB
BQADggIPADCCAgoCggIBAMMD+8H6eGXjGrN1ojgTeFSv0+Vd7S2oWdPRPD/9/q1w
H4HPSEnL7nqwTx20hPJWr61nwQN3npM9IJtQR2LfFNkeqJ6OFwDQUw2RezWqW5WJ
qwumkCCkwkB++wm1gmgXBm4MuiE6vXrP+JOWu0Ir+fTs7GRJAcH0Ui6sJGdl1Cbr
j3ENBrcwXoGxSnG17X+BFJaRM+2AfS+Bg19PYO9Bc+lGVtbVSPi2yIdhHg7mbUuf
ZJPbt4gODJjYjU6eEh9zhSFC+kr8B3kdF06XzvhmCkRnrSvPiIU+iQFnZzQhUjlg
FARz9QSe95raveybzFsG82nUf1z4qeDaLG+2rJCTHGB6Vgq9cj32tcAlj22c7SnI
cG/aX/LAOC3mC7Sr5JXgAeURPFNhOAGmWUpig7H0vKKwrKMa0LNreC94DGqcagBl
deLrAFh9wuN5Id89oP09pIoJDu/ISKJBMlIj6yymfyp3PpLRVGDmofAfb+k1dMjo
epnP1JbW9GdBCyWEaoQuwpWqzOiascoUtuXPsZwCPU1Z7W45SPY77aMO/2GAaP0M
TKnIL0OwwNKxgZC2sssPJOVlCm81cb2cLzp/ZMl6p5jlB8oZkOTgPtw4ouh9+9iA
uZ57CeQ5m9jtgxCWkw5VFHOc3CBnjVWAhfOodsmriyuH/0qRxPUGnsJBhVF+TkB5
AgMBAAGjggFjMIIBXzAJBgNVHRMEAjAAMC0GCWCGSAGG+EIBDQQgFh5FYXN5LVJT
QSBHZW5lcmF0ZWQgQ2VydGlmaWNhdGUwHQYDVR0OBBYEFCU0PkMNxrodYy3IKA29
MUd68W5ZMIHhBgNVHSMEgdkwgdaAFBLNYATSoICecO3Gmbh7LMZS/RmhoYGypIGv
MIGsMQswCQYDVQQGEwJVUzELMAkGA1UECBMCT0gxETAPBgNVBAcTCENvbHVtYnVz
MRIwEAYDVQQKEwlWaWtpbmdWUE4xHTAbBgNVBAsTFE15T3JnYW5pemF0aW9uYWxV
bml0MRUwEwYDVQQDEwxWaWtpbmdWUE4gQ0ExEDAOBgNVBCkTB0Vhc3lSU0ExITAf
BgkqhkiG9w0BCQEWEm1lQG15aG9zdC5teWRvbWFpboIJAM81he6Avyo+MBMGA1Ud
JQQMMAoGCCsGAQUFBwMCMAsGA1UdDwQEAwIHgDANBgkqhkiG9w0BAQQFAAOCAgEA
gv0PlK4uUeWzQz15ZlpH/TxETETC744aGKVt62DatWVJRjR/Dx1aw3y6oCxAlicN
+zBZRBzZAORWQ5CtnozBM2uB3iTVYzdesh8VUeHltuCbfgGT2IO2e0Et6W6/5xYd
d4Q23y/sxbGC/1OTZPXxs4lVRpXwUzUeKJtOw8iBk6ryZKTEJblNNpfCO4vip4ze
86mQJLCYlex4kuYNd7uX3lCcqmjfuuucWgrB0eEGkrLP8FiKC5AJmv1MH2O6vtpw
AuPcooYtWBZQrl364pPS2vruPS1bn6Xqppu7fsAQ4O8D+6Ag3RQPWoQpPTkq5PkX
xS94v0VTGYYq3aXbfjbueerz+GJC3WBtkTaTl0KT+6/0WGWqCUgfomggthdjiiWX
3HXcakIOG+8BjGzqY4uyddABaP21zol6A0Pw4pgY/dBDTxQS1sXH1o3zFOha7fqT
swlEReTQs8TVfhAk+dcqhqgVfzm8wVPUJsNHArmxYqrl5th5IOhvM5eaQlLPSZNk
X8C3Wpocy+ZPmtyAkPmmi1c1/Dm+sj9npfN1N47fy/Mr18XLwpu1lX7J1T3TwOQW
IpQsqsy25ymF/gCBsYnyYqtsuocVrvzYtjnRRJkXxoyK2+w0kYDAWxZd19+pl7Ri
ztRooG/b/J0QgkdhGWdMiEu6ICRQmT69aLQ/QHNG2JE=
-----END CERTIFICATE-----
