Certificate:
    Data:
        Version: 3 (0x2)
        Serial Number: 4939 (0x134b)
    Signature Algorithm: md5WithRSAEncryption
        Issuer: C=US, ST=OH, L=Columbus, O=VikingVPN, OU=MyOrganizationalUnit, CN=VikingVPN CA/name=EasyRSA/emailAddress=me@myhost.mydomain
        Validity
            Not Before: Apr 11 08:19:31 2015 GMT
            Not After : Apr  8 08:19:31 2025 GMT
        Subject: CN=Client1607Certd0d701
        Subject Public Key Info:
            Public Key Algorithm: rsaEncryption
                Public-Key: (4096 bit)
                Modulus:
                    00:d3:7c:77:de:2e:ea:17:1e:ec:54:e0:4f:d0:fe:
                    a3:d9:14:b8:9d:2f:de:ff:0c:30:9c:a4:2f:3d:dd:
                    a4:c5:70:8f:0e:66:e4:0c:dc:f2:e6:9c:e2:66:47:
                    9d:03:33:78:57:2c:3f:d4:01:85:55:27:48:0c:b8:
                    47:20:8f:72:8c:1d:5e:d2:be:57:be:fc:69:a4:1e:
                    e0:c6:26:11:c8:90:38:c7:7e:ca:2a:75:40:45:f3:
                    12:9c:90:46:8e:d5:f4:8c:09:9d:e5:4a:dd:4b:c2:
                    33:4d:78:35:c3:e3:30:36:d6:1c:5f:a0:e3:5e:2b:
                    d3:6f:e9:ec:f2:2b:1f:a0:ef:c6:ae:42:d0:1b:18:
                    b2:c1:0c:84:59:49:cd:62:7a:41:d5:7e:1e:a0:82:
                    ad:74:ff:c2:fa:fa:51:05:ac:bb:77:d3:81:a3:d8:
                    a8:35:fc:d5:c7:59:9d:44:01:c1:2f:48:0d:dd:24:
                    1d:c9:a6:b2:be:66:e4:75:9e:0d:7a:d6:a5:ca:69:
                    bd:43:bf:5c:62:0c:cb:40:aa:30:33:a7:0a:5b:35:
                    85:db:34:a4:d7:6c:05:fc:31:89:58:da:a5:e2:33:
                    63:02:4f:30:f7:5d:5a:98:20:87:8d:3b:3e:c7:44:
                    25:47:68:a0:56:3d:a5:ba:87:5d:b4:26:98:9e:cf:
                    5b:5f:15:f5:d2:76:bc:63:88:39:0d:42:5c:34:ab:
                    bb:bd:b7:e2:e7:cc:2f:9f:c4:a7:a0:9a:25:7b:5d:
                    d0:a6:38:95:e9:9a:17:2b:bc:4b:6d:77:db:46:62:
                    fc:0b:bd:02:23:c9:17:02:ec:3a:d8:9a:3e:bf:e9:
                    35:ef:a3:8e:10:f0:d9:39:e9:e4:44:a9:5e:7d:15:
                    90:5d:aa:9d:e5:cf:7e:48:75:67:05:ce:7d:7d:11:
                    14:a0:66:0f:03:21:24:59:a4:b4:c8:eb:f8:d7:fd:
                    27:23:a7:0e:78:49:d1:51:ea:bb:ab:38:23:63:22:
                    39:54:fc:90:76:52:c5:d0:a3:3a:bd:08:81:ee:0c:
                    61:39:88:8f:3b:b6:4e:c5:5d:43:6a:ea:1e:da:3d:
                    47:ab:1e:91:b3:08:de:49:05:49:3e:be:40:f5:40:
                    95:1a:70:21:ec:53:79:4a:9a:53:5f:c5:bf:ca:94:
                    a7:5d:b0:15:31:ee:a9:b0:1e:8a:53:22:27:7e:ca:
                    c1:50:67:f5:ef:37:6d:39:3e:82:2f:01:33:46:aa:
                    c5:49:5c:48:a3:ac:65:56:26:b0:6b:d8:84:b7:a9:
                    43:87:7c:ff:a3:e9:c0:b7:41:e7:c0:21:eb:fa:d2:
                    c8:35:16:49:4e:dd:29:ce:7e:e6:20:7f:00:3d:7a:
                    19:c3:ef
                Exponent: 65537 (0x10001)
        X509v3 extensions:
            X509v3 Basic Constraints: 
                CA:FALSE
            Netscape Comment: 
                Easy-RSA Generated Certificate
            X509v3 Subject Key Identifier: 
                25:0F:A3:C0:77:51:80:0F:40:01:0B:6F:44:52:C7:EF:7D:70:EE:0B
            X509v3 Authority Key Identifier: 
                keyid:12:CD:60:04:D2:A0:80:9E:70:ED:C6:99:B8:7B:2C:C6:52:FD:19:A1
                DirName:/C=US/ST=OH/L=Columbus/O=VikingVPN/OU=MyOrganizationalUnit/CN=VikingVPN CA/name=EasyRSA/emailAddress=me@myhost.mydomain
                serial:CF:35:85:EE:80:BF:2A:3E

            X509v3 Extended Key Usage: 
                TLS Web Client Authentication
            X509v3 Key Usage: 
                Digital Signature
    Signature Algorithm: md5WithRSAEncryption
         57:5a:c2:e6:4b:9e:55:08:72:c0:48:a8:f2:12:25:ba:e9:59:
         3e:81:b9:48:3b:21:d9:eb:e6:3c:71:d2:12:b9:1f:1d:e7:b4:
         dd:48:38:6c:83:08:43:e7:f6:81:cf:b8:e6:d5:e3:32:68:ce:
         f0:d4:13:f1:82:50:10:e6:d6:dc:99:d6:49:73:f3:68:21:d3:
         a8:31:b6:71:86:b9:6a:38:45:37:69:49:9c:f7:49:64:9c:52:
         35:6f:4f:b3:d1:85:f8:4b:6e:33:8a:e9:e3:d1:dc:01:c3:fe:
         e7:e6:36:91:ac:4e:f7:98:62:18:4c:6d:b6:8b:0c:49:38:21:
         5a:24:f1:7a:bd:ac:53:bc:ec:7d:ea:60:8b:40:32:b6:d2:64:
         fe:f6:7f:2e:73:2b:07:47:a9:a1:1e:f6:12:b7:e6:18:cb:d6:
         1b:38:e5:ec:65:e5:c8:ac:96:e8:08:b5:d7:9c:0b:0f:70:5f:
         0b:8f:2d:5c:e5:d4:7c:e6:b6:35:d4:09:4d:02:dd:1a:81:27:
         4b:ed:07:1e:99:81:82:8f:00:4f:bf:fd:65:f5:b6:77:3a:61:
         22:ce:c3:30:25:36:d8:84:50:73:d2:af:32:1c:a3:60:a6:4e:
         a9:7b:b7:1b:f6:b4:b4:81:f8:5f:48:5a:30:5d:81:c1:4f:56:
         14:16:a7:80:31:71:5c:5a:82:a7:35:85:4d:9d:a1:e1:b5:4c:
         82:25:1d:60:bc:2d:a8:a5:f3:d9:01:a4:32:76:3b:1a:50:66:
         28:2f:7f:ce:5d:b6:d2:03:72:67:45:b1:ba:d8:36:7e:50:44:
         3a:f0:c2:c9:d2:a6:b9:cd:fe:5e:6f:46:63:ae:13:e7:30:28:
         98:67:e4:fe:5b:fc:9a:f5:b2:b7:f3:37:10:ee:4e:73:66:4f:
         ad:35:af:f8:0f:40:ff:41:f0:7c:42:df:85:0a:a7:e0:70:f9:
         1c:0a:17:1f:24:48:59:9a:14:da:b5:3f:a9:07:72:93:e4:af:
         55:20:d9:16:51:5e:95:cc:40:83:a1:96:af:f6:17:14:ba:87:
         aa:d0:1d:5a:1f:eb:8c:da:ff:07:69:0c:a1:78:eb:43:a0:a4:
         9f:03:a8:46:41:7e:16:27:06:f1:d4:84:96:40:bf:bf:22:db:
         4a:ca:c8:3d:76:de:eb:9d:0b:78:c8:dd:aa:d2:1e:a4:a2:90:
         78:86:c4:69:eb:31:69:fa:38:4a:15:72:25:56:76:7b:ae:22:
         b0:3d:ca:4f:63:85:2b:0a:ed:bf:e8:56:2a:43:98:84:86:72:
         90:e2:b5:8d:39:a3:a5:d4:fd:88:31:f1:60:0e:9a:6a:4a:16:
         6b:19:f4:da:8e:13:9d:33
-----BEGIN CERTIFICATE-----
MIIGrTCCBJWgAwIBAgICE0swDQYJKoZIhvcNAQEEBQAwgawxCzAJBgNVBAYTAlVT
MQswCQYDVQQIEwJPSDERMA8GA1UEBxMIQ29sdW1idXMxEjAQBgNVBAoTCVZpa2lu
Z1ZQTjEdMBsGA1UECxMUTXlPcmdhbml6YXRpb25hbFVuaXQxFTATBgNVBAMTDFZp
a2luZ1ZQTiBDQTEQMA4GA1UEKRMHRWFzeVJTQTEhMB8GCSqGSIb3DQEJARYSbWVA
bXlob3N0Lm15ZG9tYWluMB4XDTE1MDQxMTA4MTkzMVoXDTI1MDQwODA4MTkzMVow
HzEdMBsGA1UEAxMUQ2xpZW50MTYwN0NlcnRkMGQ3MDEwggIiMA0GCSqGSIb3DQEB
AQUAA4ICDwAwggIKAoICAQDTfHfeLuoXHuxU4E/Q/qPZFLidL97/DDCcpC893aTF
cI8OZuQM3PLmnOJmR50DM3hXLD/UAYVVJ0gMuEcgj3KMHV7Svle+/GmkHuDGJhHI
kDjHfsoqdUBF8xKckEaO1fSMCZ3lSt1LwjNNeDXD4zA21hxfoONeK9Nv6ezyKx+g
78auQtAbGLLBDIRZSc1iekHVfh6ggq10/8L6+lEFrLt304Gj2Kg1/NXHWZ1EAcEv
SA3dJB3JprK+ZuR1ng161qXKab1Dv1xiDMtAqjAzpwpbNYXbNKTXbAX8MYlY2qXi
M2MCTzD3XVqYIIeNOz7HRCVHaKBWPaW6h120Jpiez1tfFfXSdrxjiDkNQlw0q7u9
t+LnzC+fxKegmiV7XdCmOJXpmhcrvEttd9tGYvwLvQIjyRcC7DrYmj6/6TXvo44Q
8Nk56eREqV59FZBdqp3lz35IdWcFzn19ERSgZg8DISRZpLTI6/jX/Scjpw54SdFR
6rurOCNjIjlU/JB2UsXQozq9CIHuDGE5iI87tk7FXUNq6h7aPUerHpGzCN5JBUk+
vkD1QJUacCHsU3lKmlNfxb/KlKddsBUx7qmwHopTIid+ysFQZ/XvN205PoIvATNG
qsVJXEijrGVWJrBr2IS3qUOHfP+j6cC3QefAIev60sg1FklO3SnOfuYgfwA9ehnD
7wIDAQABo4IBYzCCAV8wCQYDVR0TBAIwADAtBglghkgBhvhCAQ0EIBYeRWFzeS1S
U0EgR2VuZXJhdGVkIENlcnRpZmljYXRlMB0GA1UdDgQWBBQlD6PAd1GAD0ABC29E
UsfvfXDuCzCB4QYDVR0jBIHZMIHWgBQSzWAE0qCAnnDtxpm4eyzGUv0ZoaGBsqSB
rzCBrDELMAkGA1UEBhMCVVMxCzAJBgNVBAgTAk9IMREwDwYDVQQHEwhDb2x1bWJ1
czESMBAGA1UEChMJVmlraW5nVlBOMR0wGwYDVQQLExRNeU9yZ2FuaXphdGlvbmFs
VW5pdDEVMBMGA1UEAxMMVmlraW5nVlBOIENBMRAwDgYDVQQpEwdFYXN5UlNBMSEw
HwYJKoZIhvcNAQkBFhJtZUBteWhvc3QubXlkb21haW6CCQDPNYXugL8qPjATBgNV
HSUEDDAKBggrBgEFBQcDAjALBgNVHQ8EBAMCB4AwDQYJKoZIhvcNAQEEBQADggIB
AFdawuZLnlUIcsBIqPISJbrpWT6BuUg7Idnr5jxx0hK5Hx3ntN1IOGyDCEPn9oHP
uObV4zJozvDUE/GCUBDm1tyZ1klz82gh06gxtnGGuWo4RTdpSZz3SWScUjVvT7PR
hfhLbjOK6ePR3AHD/ufmNpGsTveYYhhMbbaLDEk4IVok8Xq9rFO87H3qYItAMrbS
ZP72fy5zKwdHqaEe9hK35hjL1hs45exl5cislugItdecCw9wXwuPLVzl1HzmtjXU
CU0C3RqBJ0vtBx6ZgYKPAE+//WX1tnc6YSLOwzAlNtiEUHPSrzIco2CmTql7txv2
tLSB+F9IWjBdgcFPVhQWp4AxcVxagqc1hU2doeG1TIIlHWC8Lail89kBpDJ2OxpQ
Zigvf85dttIDcmdFsbrYNn5QRDrwwsnSprnN/l5vRmOuE+cwKJhn5P5b/Jr1srfz
NxDuTnNmT601r/gPQP9B8HxC34UKp+Bw+RwKFx8kSFmaFNq1P6kHcpPkr1Ug2RZR
XpXMQIOhlq/2FxS6h6rQHVof64za/wdpDKF460OgpJ8DqEZBfhYnBvHUhJZAv78i
20rKyD123uudC3jI3arSHqSikHiGxGnrMWn6OEoVciVWdnuuIrA9yk9jhSsK7b/o
VipDmISGcpDitY05o6XU/Ygx8WAOmmpKFmsZ9NqOE50z
-----END CERTIFICATE-----
