Certificate:
    Data:
        Version: 3 (0x2)
        Serial Number: 4954 (0x135a)
    Signature Algorithm: md5WithRSAEncryption
        Issuer: C=US, ST=OH, L=Columbus, O=VikingVPN, OU=MyOrganizationalUnit, CN=VikingVPN CA/name=EasyRSA/emailAddress=me@myhost.mydomain
        Validity
            Not Before: Apr 13 14:32:44 2015 GMT
            Not After : Apr 10 14:32:44 2025 GMT
        Subject: CN=Client1616Cert7c8af2
        Subject Public Key Info:
            Public Key Algorithm: rsaEncryption
                Public-Key: (4096 bit)
                Modulus:
                    00:f1:c0:fb:82:5e:8e:f3:e1:9f:96:d4:eb:39:8f:
                    65:91:9b:f7:b1:68:26:99:fe:7d:33:ee:cf:c7:e3:
                    fd:2e:d4:48:05:fa:ef:17:e7:c4:fb:04:b1:f6:24:
                    2e:11:0a:c3:5e:e5:9e:40:44:1d:e6:01:e2:87:04:
                    b0:27:e0:a7:da:e3:07:f6:03:88:94:8c:0e:e5:87:
                    60:28:99:0c:e0:79:7f:cd:19:a7:f8:3b:33:16:05:
                    8d:cb:9b:d2:f3:87:db:69:38:df:f5:db:fe:db:ab:
                    0d:71:a3:13:bb:a2:63:5e:38:e9:16:98:ba:79:79:
                    13:fe:a6:77:f8:e0:64:b0:95:e2:8a:19:e8:08:86:
                    99:4d:cc:49:c0:8c:b7:8f:19:ed:d4:09:2f:60:c4:
                    06:f4:8e:0b:29:62:6f:31:31:0c:08:3a:57:b9:51:
                    c2:8c:08:c0:63:91:75:4e:47:b3:84:fe:d7:5d:2f:
                    a4:12:66:72:65:e0:4c:6c:0a:30:3c:a5:54:ff:43:
                    95:05:d2:b5:39:98:3d:d4:2e:c9:1c:99:02:05:d8:
                    0a:4f:f0:76:68:ff:8e:2b:1a:f4:88:9b:dd:1a:30:
                    5f:63:3b:33:6e:43:06:9e:6a:08:15:2f:c7:30:80:
                    67:cb:5a:26:a6:d9:39:f9:18:9c:64:8e:db:48:c3:
                    d2:1e:58:e1:f8:b6:33:98:a2:57:fb:44:4f:ba:67:
                    89:73:c0:45:32:cd:fb:57:18:da:f2:04:dc:59:09:
                    2e:3c:e4:73:10:c6:f6:a2:b1:f6:ca:1d:f9:2e:cc:
                    40:98:e6:07:94:d7:2e:c7:e0:0e:ec:44:58:82:17:
                    81:7c:ae:41:28:92:4f:17:a1:77:da:d5:78:67:62:
                    c2:f1:20:df:05:f6:f4:62:de:bf:e6:09:5a:24:59:
                    fb:32:3c:c4:2f:27:90:bf:c3:f0:e0:b9:31:b3:91:
                    68:d3:b8:63:4d:33:7b:8a:c1:c3:4f:cc:19:8d:73:
                    c6:64:f0:fd:62:a2:1c:22:86:39:f9:60:de:e6:10:
                    a2:30:97:b8:94:e6:87:b6:64:ce:75:16:70:81:f8:
                    f1:99:77:c9:05:b8:f9:16:b8:bc:4a:15:5e:fa:89:
                    27:37:f9:bb:3e:d3:54:86:65:3c:cb:04:1f:17:8a:
                    28:fd:c7:e6:e7:ca:97:2a:01:f0:20:bd:a2:9a:fb:
                    ee:b8:09:91:12:47:cd:de:f9:87:8d:5b:03:31:c0:
                    f5:24:f6:4f:29:ba:9a:61:e6:09:13:71:ca:43:6e:
                    58:c9:23:d8:17:2a:f4:11:68:1e:31:de:83:8d:82:
                    83:d3:7f:23:88:8a:46:b2:c9:21:37:2d:2c:3c:99:
                    8b:33:1b
                Exponent: 65537 (0x10001)
        X509v3 extensions:
            X509v3 Basic Constraints: 
                CA:FALSE
            Netscape Comment: 
                Easy-RSA Generated Certificate
            X509v3 Subject Key Identifier: 
                70:06:4B:51:A7:C2:3C:FB:06:07:D6:6F:0D:1E:37:AC:A8:87:CE:C0
            X509v3 Authority Key Identifier: 
                keyid:12:CD:60:04:D2:A0:80:9E:70:ED:C6:99:B8:7B:2C:C6:52:FD:19:A1
                DirName:/C=US/ST=OH/L=Columbus/O=VikingVPN/OU=MyOrganizationalUnit/CN=VikingVPN CA/name=EasyRSA/emailAddress=me@myhost.mydomain
                serial:CF:35:85:EE:80:BF:2A:3E

            X509v3 Extended Key Usage: 
                TLS Web Client Authentication
            X509v3 Key Usage: 
                Digital Signature
    Signature Algorithm: md5WithRSAEncryption
         8f:bf:71:28:d0:50:25:b5:45:97:f0:cb:7b:04:8a:47:51:c6:
         db:2d:0e:96:c6:89:83:c8:90:a0:e4:af:40:9b:03:a3:b9:0a:
         bc:a4:d7:56:10:1e:79:01:f3:ba:83:14:48:66:db:25:39:2c:
         32:3d:6c:d7:cc:cb:85:ce:62:5f:4b:81:f3:30:c9:05:fb:2e:
         d8:c7:05:38:2a:54:a7:e7:c6:cf:51:1c:c9:d1:0e:b5:a5:5a:
         4c:91:5c:9d:80:d3:84:72:e6:08:9a:0e:1a:9f:ce:00:b6:79:
         3b:fa:63:e1:dc:53:19:38:a9:eb:8a:64:00:2f:8e:81:b7:fb:
         e8:20:6c:4e:83:fe:8f:e5:61:87:33:f3:86:3c:13:89:1d:8e:
         05:04:75:83:87:8f:ad:5e:e2:53:85:1e:78:92:8a:22:9c:40:
         b8:3a:b1:1b:84:c2:87:e0:5f:7a:04:c9:33:61:7b:31:1d:1d:
         4a:b0:86:5a:49:1c:c0:2d:33:3c:c0:7a:3d:ee:1e:30:18:64:
         af:d5:f3:3d:55:b5:39:44:73:cf:82:65:5a:f8:1e:e4:d9:fc:
         20:e6:0b:c3:2a:55:3a:2e:95:01:ea:e9:6a:fb:71:10:96:d9:
         00:3b:db:92:69:e2:af:2c:35:54:e7:67:24:99:69:aa:34:65:
         bc:b7:cb:75:01:c1:a3:92:33:aa:63:23:d5:48:6c:f7:86:e4:
         c6:b1:63:30:95:0d:6b:f9:f0:fe:64:a1:e1:11:bb:14:19:1f:
         0f:99:01:7b:a4:1b:f6:fa:d6:e3:0a:94:76:5d:35:c8:86:bd:
         4e:87:9b:ce:3b:07:9c:23:14:b1:ad:65:cf:41:5f:91:09:1c:
         f6:38:41:be:7e:41:be:d6:73:13:d2:5d:dd:da:31:00:41:78:
         a1:1c:6b:14:66:2d:c4:f6:57:9b:86:ec:57:44:80:95:0f:c8:
         e2:61:cd:6f:fc:71:49:0a:33:4e:73:12:7d:90:b7:bd:58:0e:
         ca:0f:6f:62:cf:66:69:58:a3:f9:c0:ae:06:53:2d:22:4c:64:
         e8:82:22:46:93:c0:4f:81:d8:41:1e:35:09:f0:cf:a1:0c:db:
         26:8e:6c:58:d2:0a:75:db:aa:8f:20:39:68:6e:d7:c8:6d:e5:
         57:b7:43:39:f8:ac:da:f5:24:11:56:86:28:cc:81:4b:55:e9:
         77:f3:00:1e:a5:b4:0f:72:5a:59:61:b3:2a:31:a3:fb:f9:ea:
         64:98:4d:a4:2c:31:c0:f8:f1:ea:5f:a5:0a:40:d0:18:62:7c:
         a2:a5:d3:f2:17:b7:6c:b5:78:13:1b:3b:b2:51:eb:ea:56:ed:
         c8:8c:8e:c1:a2:20:4f:a0
-----BEGIN CERTIFICATE-----
MIIGrTCCBJWgAwIBAgICE1owDQYJKoZIhvcNAQEEBQAwgawxCzAJBgNVBAYTAlVT
MQswCQYDVQQIEwJPSDERMA8GA1UEBxMIQ29sdW1idXMxEjAQBgNVBAoTCVZpa2lu
Z1ZQTjEdMBsGA1UECxMUTXlPcmdhbml6YXRpb25hbFVuaXQxFTATBgNVBAMTDFZp
a2luZ1ZQTiBDQTEQMA4GA1UEKRMHRWFzeVJTQTEhMB8GCSqGSIb3DQEJARYSbWVA
bXlob3N0Lm15ZG9tYWluMB4XDTE1MDQxMzE0MzI0NFoXDTI1MDQxMDE0MzI0NFow
HzEdMBsGA1UEAxMUQ2xpZW50MTYxNkNlcnQ3YzhhZjIwggIiMA0GCSqGSIb3DQEB
AQUAA4ICDwAwggIKAoICAQDxwPuCXo7z4Z+W1Os5j2WRm/exaCaZ/n0z7s/H4/0u
1EgF+u8X58T7BLH2JC4RCsNe5Z5ARB3mAeKHBLAn4Kfa4wf2A4iUjA7lh2AomQzg
eX/NGaf4OzMWBY3Lm9Lzh9tpON/12/7bqw1xoxO7omNeOOkWmLp5eRP+pnf44GSw
leKKGegIhplNzEnAjLePGe3UCS9gxAb0jgspYm8xMQwIOle5UcKMCMBjkXVOR7OE
/tddL6QSZnJl4ExsCjA8pVT/Q5UF0rU5mD3ULskcmQIF2ApP8HZo/44rGvSIm90a
MF9jOzNuQwaeaggVL8cwgGfLWiam2Tn5GJxkjttIw9IeWOH4tjOYolf7RE+6Z4lz
wEUyzftXGNryBNxZCS485HMQxvaisfbKHfkuzECY5geU1y7H4A7sRFiCF4F8rkEo
kk8XoXfa1XhnYsLxIN8F9vRi3r/mCVokWfsyPMQvJ5C/w/DguTGzkWjTuGNNM3uK
wcNPzBmNc8Zk8P1iohwihjn5YN7mEKIwl7iU5oe2ZM51FnCB+PGZd8kFuPkWuLxK
FV76iSc3+bs+01SGZTzLBB8Xiij9x+bnypcqAfAgvaKa++64CZESR83e+YeNWwMx
wPUk9k8pupph5gkTccpDbljJI9gXKvQRaB4x3oONgoPTfyOIikayySE3LSw8mYsz
GwIDAQABo4IBYzCCAV8wCQYDVR0TBAIwADAtBglghkgBhvhCAQ0EIBYeRWFzeS1S
U0EgR2VuZXJhdGVkIENlcnRpZmljYXRlMB0GA1UdDgQWBBRwBktRp8I8+wYH1m8N
HjesqIfOwDCB4QYDVR0jBIHZMIHWgBQSzWAE0qCAnnDtxpm4eyzGUv0ZoaGBsqSB
rzCBrDELMAkGA1UEBhMCVVMxCzAJBgNVBAgTAk9IMREwDwYDVQQHEwhDb2x1bWJ1
czESMBAGA1UEChMJVmlraW5nVlBOMR0wGwYDVQQLExRNeU9yZ2FuaXphdGlvbmFs
VW5pdDEVMBMGA1UEAxMMVmlraW5nVlBOIENBMRAwDgYDVQQpEwdFYXN5UlNBMSEw
HwYJKoZIhvcNAQkBFhJtZUBteWhvc3QubXlkb21haW6CCQDPNYXugL8qPjATBgNV
HSUEDDAKBggrBgEFBQcDAjALBgNVHQ8EBAMCB4AwDQYJKoZIhvcNAQEEBQADggIB
AI+/cSjQUCW1RZfwy3sEikdRxtstDpbGiYPIkKDkr0CbA6O5Cryk11YQHnkB87qD
FEhm2yU5LDI9bNfMy4XOYl9LgfMwyQX7LtjHBTgqVKfnxs9RHMnRDrWlWkyRXJ2A
04Ry5giaDhqfzgC2eTv6Y+HcUxk4qeuKZAAvjoG3++ggbE6D/o/lYYcz84Y8E4kd
jgUEdYOHj61e4lOFHniSiiKcQLg6sRuEwofgX3oEyTNhezEdHUqwhlpJHMAtMzzA
ej3uHjAYZK/V8z1VtTlEc8+CZVr4HuTZ/CDmC8MqVToulQHq6Wr7cRCW2QA725Jp
4q8sNVTnZySZaao0Zby3y3UBwaOSM6pjI9VIbPeG5MaxYzCVDWv58P5koeERuxQZ
Hw+ZAXukG/b61uMKlHZdNciGvU6Hm847B5wjFLGtZc9BX5EJHPY4Qb5+Qb7WcxPS
Xd3aMQBBeKEcaxRmLcT2V5uG7FdEgJUPyOJhzW/8cUkKM05zEn2Qt71YDsoPb2LP
ZmlYo/nArgZTLSJMZOiCIkaTwE+B2EEeNQnwz6EM2yaObFjSCnXbqo8gOWhu18ht
5Ve3Qzn4rNr1JBFWhijMgUtV6XfzAB6ltA9yWllhsyoxo/v56mSYTaQsMcD48epf
pQpA0BhifKKl0/IXt2y1eBMbO7JR6+pW7ciMjsGiIE+g
-----END CERTIFICATE-----
