Certificate:
    Data:
        Version: 3 (0x2)
        Serial Number: 4964 (0x1364)
    Signature Algorithm: md5WithRSAEncryption
        Issuer: C=US, ST=OH, L=Columbus, O=VikingVPN, OU=MyOrganizationalUnit, CN=VikingVPN CA/name=EasyRSA/emailAddress=me@myhost.mydomain
        Validity
            Not Before: Apr 14 20:17:23 2015 GMT
            Not After : Apr 11 20:17:23 2025 GMT
        Subject: CN=Client1616Cert49d0cd
        Subject Public Key Info:
            Public Key Algorithm: rsaEncryption
                Public-Key: (4096 bit)
                Modulus:
                    00:b0:f5:2f:fb:02:bd:8c:d0:4f:0f:61:da:ee:1a:
                    7c:29:2c:75:20:e9:14:32:82:4b:53:1c:01:ec:e4:
                    e4:50:fc:d3:8b:10:07:68:26:de:fc:3c:b6:54:d3:
                    43:23:e3:51:82:93:63:cf:1c:63:dd:34:d3:a6:c4:
                    75:71:47:c7:f3:a9:76:a3:e3:cb:a0:d4:cf:90:1f:
                    5b:8d:84:a3:c2:b4:42:b1:bd:e0:e5:22:91:7d:b0:
                    ba:30:95:7d:69:e1:8b:59:eb:7e:51:b3:40:d0:91:
                    2c:e8:6a:58:97:14:24:cf:a4:d6:95:28:01:ad:01:
                    38:19:de:7b:e3:10:ac:c9:5c:bd:7e:94:98:a5:e1:
                    e9:e1:f2:33:6c:d4:79:f8:ce:5b:a2:81:c7:7c:da:
                    75:eb:fe:f2:7a:c8:e4:34:ff:c9:a9:8d:00:76:36:
                    ec:3a:70:a1:17:0e:36:67:92:7f:ec:d5:ec:2e:c6:
                    32:aa:45:76:3c:34:43:e0:f1:ad:97:80:db:66:68:
                    f1:1e:fb:c1:5b:02:f6:4f:51:42:ff:02:33:ba:ed:
                    99:35:84:a7:17:3a:b2:cf:60:72:f9:25:11:a7:c2:
                    eb:0d:82:a2:77:f0:23:d7:76:17:e8:30:40:6c:89:
                    7b:a6:0d:2d:81:6b:82:e8:14:f9:66:8a:a5:95:8d:
                    0a:66:f1:7b:ec:17:4e:8b:a3:18:a0:7f:a1:3a:81:
                    a4:20:9b:8e:7a:55:16:2c:c2:0c:f9:e2:cb:df:77:
                    ba:9f:90:f6:68:eb:21:d1:df:ab:08:b5:18:a5:1f:
                    9f:8a:f7:55:08:ae:53:90:cd:30:b4:cb:ca:ad:1c:
                    99:49:d3:4e:5d:75:2d:13:6d:5a:e1:04:b0:4e:7f:
                    b2:bf:f0:03:8a:d8:70:05:08:97:d9:e6:48:d3:12:
                    a0:ec:9d:be:0c:41:fe:17:c7:48:8a:57:e9:57:34:
                    08:1a:8f:d9:6e:58:ed:07:70:fd:61:20:33:fd:8b:
                    fc:b3:b0:be:74:d5:20:d1:c2:b3:0e:10:04:10:08:
                    d2:37:40:85:91:0c:30:79:18:da:75:a5:ec:d5:b4:
                    d4:bb:cc:50:89:c6:72:8b:45:d6:4b:c1:07:67:fe:
                    2f:e1:a2:6a:ae:d6:ec:b0:a0:56:96:0d:3a:72:58:
                    b5:ae:74:db:e2:ef:8c:a3:5d:4f:2a:3a:6a:01:7a:
                    fe:4a:b6:8b:86:f5:eb:90:d7:f2:03:3d:d4:9d:ef:
                    e5:99:f5:7f:be:b8:44:e2:07:9f:4f:45:ff:87:5d:
                    4a:63:e9:79:3f:64:40:97:ff:fa:3e:b6:3e:ac:49:
                    49:b6:cb:07:da:13:ae:07:a3:9b:3d:ff:7d:b5:89:
                    f6:43:45
                Exponent: 65537 (0x10001)
        X509v3 extensions:
            X509v3 Basic Constraints: 
                CA:FALSE
            Netscape Comment: 
                Easy-RSA Generated Certificate
            X509v3 Subject Key Identifier: 
                FC:B4:B3:D1:AE:82:55:2C:09:5A:5D:D5:74:70:5D:C6:98:6A:74:24
            X509v3 Authority Key Identifier: 
                keyid:12:CD:60:04:D2:A0:80:9E:70:ED:C6:99:B8:7B:2C:C6:52:FD:19:A1
                DirName:/C=US/ST=OH/L=Columbus/O=VikingVPN/OU=MyOrganizationalUnit/CN=VikingVPN CA/name=EasyRSA/emailAddress=me@myhost.mydomain
                serial:CF:35:85:EE:80:BF:2A:3E

            X509v3 Extended Key Usage: 
                TLS Web Client Authentication
            X509v3 Key Usage: 
                Digital Signature
    Signature Algorithm: md5WithRSAEncryption
         a8:67:13:a8:b0:5a:9d:7a:1c:d3:81:b6:89:e3:1e:94:8d:1d:
         cf:5b:e0:19:a7:ba:1e:6d:31:d3:f7:75:8b:6c:ce:ec:76:5c:
         58:2a:2d:79:d3:27:e4:99:d9:d1:75:4b:90:8d:88:47:fd:24:
         31:02:35:f7:d8:b8:fc:ba:1c:b5:96:d4:67:df:e3:c1:b7:84:
         09:ad:61:72:f4:5f:9b:31:e1:60:57:3d:26:75:33:f4:27:2d:
         4d:cd:26:f9:60:42:55:aa:09:0f:64:0b:05:9a:59:b1:8e:08:
         29:1a:1b:a6:9e:21:c9:53:7c:7b:79:a5:c2:51:d7:4e:b6:0f:
         ba:df:c8:80:f3:3e:e4:8f:db:5c:c0:4d:b3:38:2a:70:fc:99:
         7b:0f:b5:58:c7:3d:d4:13:60:3b:02:4e:98:aa:06:8c:df:48:
         89:1b:f7:77:4f:63:17:fb:ac:8b:c5:d2:c5:91:83:7b:f7:5e:
         18:4d:9f:e2:42:89:88:38:d1:89:fa:e2:1c:e8:05:5b:85:2f:
         d0:1f:93:9b:73:af:23:c7:12:f1:9e:44:b9:6f:8f:45:f5:05:
         5c:5e:51:28:7a:91:79:d7:3b:77:45:97:8e:e3:68:19:bd:84:
         c0:dd:fd:9d:be:c0:44:dd:bf:06:dc:94:a7:f4:4b:4b:6c:cb:
         70:ef:45:3f:f0:25:b4:f6:b4:21:72:68:e1:03:15:37:0e:e3:
         e9:fb:76:4b:86:a6:fa:9b:3b:57:3a:32:eb:9d:cd:17:ab:be:
         d4:af:42:00:80:13:37:7f:c2:36:3b:eb:98:0a:72:6c:50:bf:
         57:28:d6:4c:fb:fc:d8:ed:6f:c4:83:0c:d6:db:41:b1:d2:95:
         ee:6c:53:e8:8a:87:d6:4b:6b:47:2c:32:58:ee:b2:52:15:ba:
         aa:e5:b8:2a:3d:c0:17:e0:cd:04:70:4d:f8:7e:97:c2:59:c0:
         3f:ae:91:24:dc:55:e3:09:ce:d6:b9:01:d7:de:be:81:c1:08:
         a1:f7:e2:e9:96:7c:49:25:0c:d8:b0:03:93:1b:8b:6b:e9:39:
         9e:4c:da:ac:2e:88:64:73:db:d9:ea:d5:c8:4e:82:a2:77:c9:
         98:5b:ce:49:83:24:6b:92:c5:6a:99:b0:10:78:02:46:96:18:
         a4:c5:ef:08:ee:65:1e:3f:60:12:8b:86:a7:f1:fd:b1:73:02:
         d0:87:88:19:95:e3:ec:76:e9:9c:45:9d:22:7c:48:02:23:f3:
         5d:f3:3e:67:c8:d5:43:4b:99:60:03:51:69:69:f7:7e:66:d5:
         4b:5b:7e:ac:e1:c6:7b:46:fe:91:70:66:90:d1:f2:06:86:d9:
         06:ef:26:70:20:e2:d4:7a
-----BEGIN CERTIFICATE-----
MIIGrTCCBJWgAwIBAgICE2QwDQYJKoZIhvcNAQEEBQAwgawxCzAJBgNVBAYTAlVT
MQswCQYDVQQIEwJPSDERMA8GA1UEBxMIQ29sdW1idXMxEjAQBgNVBAoTCVZpa2lu
Z1ZQTjEdMBsGA1UECxMUTXlPcmdhbml6YXRpb25hbFVuaXQxFTATBgNVBAMTDFZp
a2luZ1ZQTiBDQTEQMA4GA1UEKRMHRWFzeVJTQTEhMB8GCSqGSIb3DQEJARYSbWVA
bXlob3N0Lm15ZG9tYWluMB4XDTE1MDQxNDIwMTcyM1oXDTI1MDQxMTIwMTcyM1ow
HzEdMBsGA1UEAxMUQ2xpZW50MTYxNkNlcnQ0OWQwY2QwggIiMA0GCSqGSIb3DQEB
AQUAA4ICDwAwggIKAoICAQCw9S/7Ar2M0E8PYdruGnwpLHUg6RQygktTHAHs5ORQ
/NOLEAdoJt78PLZU00Mj41GCk2PPHGPdNNOmxHVxR8fzqXaj48ug1M+QH1uNhKPC
tEKxveDlIpF9sLowlX1p4YtZ635Rs0DQkSzoaliXFCTPpNaVKAGtATgZ3nvjEKzJ
XL1+lJil4enh8jNs1Hn4zluigcd82nXr/vJ6yOQ0/8mpjQB2Nuw6cKEXDjZnkn/s
1ewuxjKqRXY8NEPg8a2XgNtmaPEe+8FbAvZPUUL/AjO67Zk1hKcXOrLPYHL5JRGn
wusNgqJ38CPXdhfoMEBsiXumDS2Ba4LoFPlmiqWVjQpm8XvsF06Loxigf6E6gaQg
m456VRYswgz54svfd7qfkPZo6yHR36sItRilH5+K91UIrlOQzTC0y8qtHJlJ005d
dS0TbVrhBLBOf7K/8AOK2HAFCJfZ5kjTEqDsnb4MQf4Xx0iKV+lXNAgaj9luWO0H
cP1hIDP9i/yzsL501SDRwrMOEAQQCNI3QIWRDDB5GNp1pezVtNS7zFCJxnKLRdZL
wQdn/i/homqu1uywoFaWDTpyWLWudNvi74yjXU8qOmoBev5KtouG9euQ1/IDPdSd
7+WZ9X++uETiB59PRf+HXUpj6Xk/ZECX//o+tj6sSUm2ywfaE64Ho5s9/321ifZD
RQIDAQABo4IBYzCCAV8wCQYDVR0TBAIwADAtBglghkgBhvhCAQ0EIBYeRWFzeS1S
U0EgR2VuZXJhdGVkIENlcnRpZmljYXRlMB0GA1UdDgQWBBT8tLPRroJVLAlaXdV0
cF3GmGp0JDCB4QYDVR0jBIHZMIHWgBQSzWAE0qCAnnDtxpm4eyzGUv0ZoaGBsqSB
rzCBrDELMAkGA1UEBhMCVVMxCzAJBgNVBAgTAk9IMREwDwYDVQQHEwhDb2x1bWJ1
czESMBAGA1UEChMJVmlraW5nVlBOMR0wGwYDVQQLExRNeU9yZ2FuaXphdGlvbmFs
VW5pdDEVMBMGA1UEAxMMVmlraW5nVlBOIENBMRAwDgYDVQQpEwdFYXN5UlNBMSEw
HwYJKoZIhvcNAQkBFhJtZUBteWhvc3QubXlkb21haW6CCQDPNYXugL8qPjATBgNV
HSUEDDAKBggrBgEFBQcDAjALBgNVHQ8EBAMCB4AwDQYJKoZIhvcNAQEEBQADggIB
AKhnE6iwWp16HNOBtonjHpSNHc9b4Bmnuh5tMdP3dYtszux2XFgqLXnTJ+SZ2dF1
S5CNiEf9JDECNffYuPy6HLWW1Gff48G3hAmtYXL0X5sx4WBXPSZ1M/QnLU3NJvlg
QlWqCQ9kCwWaWbGOCCkaG6aeIclTfHt5pcJR1062D7rfyIDzPuSP21zATbM4KnD8
mXsPtVjHPdQTYDsCTpiqBozfSIkb93dPYxf7rIvF0sWRg3v3XhhNn+JCiYg40Yn6
4hzoBVuFL9Afk5tzryPHEvGeRLlvj0X1BVxeUSh6kXnXO3dFl47jaBm9hMDd/Z2+
wETdvwbclKf0S0tsy3DvRT/wJbT2tCFyaOEDFTcO4+n7dkuGpvqbO1c6MuudzRer
vtSvQgCAEzd/wjY765gKcmxQv1co1kz7/Njtb8SDDNbbQbHSle5sU+iKh9ZLa0cs
MljuslIVuqrluCo9wBfgzQRwTfh+l8JZwD+ukSTcVeMJzta5AdfevoHBCKH34umW
fEklDNiwA5Mbi2vpOZ5M2qwuiGRz29nq1chOgqJ3yZhbzkmDJGuSxWqZsBB4AkaW
GKTF7wjuZR4/YBKLhqfx/bFzAtCHiBmV4+x26ZxFnSJ8SAIj813zPmfI1UNLmWAD
UWlp935m1UtbfqzhxntG/pFwZpDR8gaG2QbvJnAg4tR6
-----END CERTIFICATE-----
