Certificate:
    Data:
        Version: 3 (0x2)
        Serial Number: 4985 (0x1379)
    Signature Algorithm: md5WithRSAEncryption
        Issuer: C=US, ST=OH, L=Columbus, O=VikingVPN, OU=MyOrganizationalUnit, CN=VikingVPN CA/name=EasyRSA/emailAddress=me@myhost.mydomain
        Validity
            Not Before: Apr 17 01:25:25 2015 GMT
            Not After : Apr 14 01:25:25 2025 GMT
        Subject: CN=Client486Certcaff17
        Subject Public Key Info:
            Public Key Algorithm: rsaEncryption
                Public-Key: (4096 bit)
                Modulus:
                    00:95:ea:df:b6:e2:65:bb:e7:0e:72:8d:18:97:a0:
                    20:24:7c:16:1d:ba:3c:79:a7:b5:99:cd:0c:9d:6d:
                    aa:ab:75:ec:f8:3b:e1:25:62:ff:1b:a1:8a:1d:a6:
                    ac:22:b3:73:5b:df:05:cd:c3:5a:af:ee:44:a5:a4:
                    ed:b5:82:50:66:9c:7f:3c:10:b4:a0:4f:76:e1:3f:
                    28:3a:2a:4e:5e:eb:e1:c6:67:59:df:18:7f:36:bd:
                    2c:6f:68:55:f2:97:3a:fd:55:08:5b:88:07:f1:28:
                    b7:a4:99:92:3b:82:4b:f6:c7:bd:2a:68:8a:ab:00:
                    5d:e7:2b:47:34:36:2b:48:29:cb:be:ea:2c:0f:11:
                    e1:2e:4d:82:f0:8e:6c:68:f9:d3:8a:d1:04:f1:30:
                    70:7d:93:ca:19:e3:93:8f:f8:cf:95:c7:7e:68:26:
                    d2:25:91:8e:78:35:ed:0e:44:a3:a8:0d:4d:21:ba:
                    94:3d:64:47:08:b3:da:b4:e8:86:79:66:b1:bf:78:
                    75:d5:31:58:e5:1c:80:d2:a9:f2:1c:a5:60:ba:1d:
                    e9:78:df:10:9c:4e:fa:ad:49:02:6c:d9:e4:60:7e:
                    0e:dd:9d:d8:9e:35:32:8f:cc:24:06:2f:59:87:21:
                    8a:b0:ff:52:87:e2:df:13:b5:3c:85:f5:e7:9e:84:
                    12:c7:c3:ec:69:c7:d8:44:cc:86:f2:ed:63:40:8b:
                    96:c6:6b:e6:05:a5:b1:e3:d3:86:36:b8:c8:f5:3a:
                    01:31:e9:1e:7c:94:66:24:4b:7d:d1:00:92:8f:44:
                    d0:3e:bb:1d:30:96:f6:32:d3:69:95:5c:6a:95:e1:
                    8c:0b:6a:69:89:ae:77:c5:4f:b9:05:72:8a:4f:81:
                    42:17:91:89:ae:b9:54:ff:9f:0b:38:05:0c:a4:b4:
                    96:2d:4f:dc:f8:e2:f5:0b:14:ad:8f:87:e6:b4:e0:
                    3d:67:30:e7:37:b5:b7:d0:09:89:af:f7:de:73:50:
                    67:89:a5:64:76:8c:41:70:b1:fb:8a:68:f9:2f:4f:
                    35:7b:34:21:32:42:16:c7:39:78:bd:c9:a0:f4:01:
                    1d:0e:4f:2a:bb:cb:d5:d4:f7:b6:ec:b3:8f:8f:e8:
                    0f:cb:17:29:c9:1c:67:a5:5a:2d:e6:c3:b9:b4:4f:
                    d6:90:62:93:50:0f:64:5e:61:62:81:d6:f0:29:27:
                    c4:df:fc:fa:1c:bb:54:23:7f:8b:b6:ad:53:09:18:
                    00:19:69:cb:d4:5c:d1:42:96:45:8b:b4:ea:87:15:
                    1a:60:7f:8f:7e:26:fd:41:a2:25:3e:fa:e5:f5:12:
                    7b:31:d3:83:a4:81:dc:34:59:fe:82:75:29:1f:05:
                    3f:48:d3
                Exponent: 65537 (0x10001)
        X509v3 extensions:
            X509v3 Basic Constraints: 
                CA:FALSE
            Netscape Comment: 
                Easy-RSA Generated Certificate
            X509v3 Subject Key Identifier: 
                CE:2C:D0:20:57:A6:64:73:35:44:2C:01:10:89:03:C4:8E:15:80:51
            X509v3 Authority Key Identifier: 
                keyid:12:CD:60:04:D2:A0:80:9E:70:ED:C6:99:B8:7B:2C:C6:52:FD:19:A1
                DirName:/C=US/ST=OH/L=Columbus/O=VikingVPN/OU=MyOrganizationalUnit/CN=VikingVPN CA/name=EasyRSA/emailAddress=me@myhost.mydomain
                serial:CF:35:85:EE:80:BF:2A:3E

            X509v3 Extended Key Usage: 
                TLS Web Client Authentication
            X509v3 Key Usage: 
                Digital Signature
    Signature Algorithm: md5WithRSAEncryption
         8f:5d:3e:c7:1a:08:da:30:03:5d:45:9a:88:76:36:3f:67:c7:
         e9:79:c9:40:10:9a:58:53:09:b9:b5:81:70:b7:a4:f9:30:bf:
         ab:38:ca:56:38:2a:84:6f:dc:b4:87:f8:91:94:df:fa:fa:57:
         be:1d:c9:53:ca:96:57:55:7d:c0:19:78:17:93:4d:6a:e7:15:
         ab:0a:93:a9:32:38:41:0f:d4:c8:a4:28:10:aa:66:fc:54:f6:
         f1:fe:72:43:26:f4:84:94:c1:07:78:61:df:65:5e:8b:85:cf:
         c8:3b:80:18:5a:af:e3:7f:2a:aa:04:92:e7:01:26:6f:8d:f4:
         c5:fa:97:84:8a:79:d1:cd:a4:03:63:09:1c:0d:98:8a:d0:a7:
         6b:19:7a:be:87:cd:0c:33:72:87:4f:0e:80:ee:99:9f:fa:03:
         f2:3e:b2:3e:d3:fa:0a:05:9d:26:7b:cf:3e:f5:94:06:4e:b8:
         e6:53:33:d9:c4:32:0c:22:7f:14:d5:a0:72:c5:2c:01:89:0f:
         9a:f8:a0:8d:90:d1:56:b3:21:71:99:a1:c7:4f:cd:b6:99:ed:
         50:72:22:fb:f7:51:99:70:f8:a1:47:2e:46:49:dc:af:98:d0:
         cd:df:bc:8f:68:39:65:4d:fe:70:84:7b:2f:93:3b:79:ee:d6:
         e5:f5:ff:2f:fb:4a:20:5a:d2:e7:c2:37:1e:92:e7:e7:2c:a7:
         48:12:69:9f:c8:b3:26:69:86:32:e0:9d:29:46:de:e4:90:db:
         7d:0b:38:96:16:4c:db:8b:e2:13:8e:b0:c6:f1:c8:b4:69:1d:
         77:4c:83:30:ed:3d:9e:f7:e2:b5:2e:50:91:1f:d3:14:ad:cc:
         52:ce:3c:f1:67:f7:6c:a2:05:da:7a:c1:0d:05:0f:bc:02:37:
         23:dc:f3:84:a0:93:5f:fe:1e:92:74:c9:c1:2e:ed:49:45:d9:
         af:83:7d:61:af:ae:24:4c:df:c0:c6:09:b2:2b:79:e8:db:da:
         83:05:6b:a5:78:f0:b8:bf:47:95:2b:7b:fe:a5:94:4a:b4:b1:
         1f:5c:dd:1a:12:cc:4a:53:c2:77:90:7b:54:ea:42:de:b7:0a:
         de:a4:72:3d:98:11:49:fc:ca:2f:15:a5:f0:54:f0:53:a0:7a:
         8a:6d:9f:70:16:a7:8b:5e:9c:55:59:58:9c:45:5f:11:b6:3d:
         79:4d:e0:1e:28:f4:4d:4e:80:77:52:e5:cd:18:f0:e8:bb:b6:
         e6:65:b1:68:50:dc:b6:28:3a:62:8f:b3:b0:a4:23:c1:c7:ec:
         c4:8e:74:19:01:1e:0e:05:c6:70:a2:4c:6e:da:89:86:d8:8f:
         ae:9c:4a:df:72:7b:f8:d0
-----BEGIN CERTIFICATE-----
MIIGrDCCBJSgAwIBAgICE3kwDQYJKoZIhvcNAQEEBQAwgawxCzAJBgNVBAYTAlVT
MQswCQYDVQQIEwJPSDERMA8GA1UEBxMIQ29sdW1idXMxEjAQBgNVBAoTCVZpa2lu
Z1ZQTjEdMBsGA1UECxMUTXlPcmdhbml6YXRpb25hbFVuaXQxFTATBgNVBAMTDFZp
a2luZ1ZQTiBDQTEQMA4GA1UEKRMHRWFzeVJTQTEhMB8GCSqGSIb3DQEJARYSbWVA
bXlob3N0Lm15ZG9tYWluMB4XDTE1MDQxNzAxMjUyNVoXDTI1MDQxNDAxMjUyNVow
HjEcMBoGA1UEAxMTQ2xpZW50NDg2Q2VydGNhZmYxNzCCAiIwDQYJKoZIhvcNAQEB
BQADggIPADCCAgoCggIBAJXq37biZbvnDnKNGJegICR8Fh26PHmntZnNDJ1tqqt1
7Pg74SVi/xuhih2mrCKzc1vfBc3DWq/uRKWk7bWCUGacfzwQtKBPduE/KDoqTl7r
4cZnWd8Yfza9LG9oVfKXOv1VCFuIB/Eot6SZkjuCS/bHvSpoiqsAXecrRzQ2K0gp
y77qLA8R4S5NgvCObGj504rRBPEwcH2Tyhnjk4/4z5XHfmgm0iWRjng17Q5Eo6gN
TSG6lD1kRwiz2rTohnlmsb94ddUxWOUcgNKp8hylYLod6XjfEJxO+q1JAmzZ5GB+
Dt2d2J41Mo/MJAYvWYchirD/Uofi3xO1PIX1556EEsfD7GnH2ETMhvLtY0CLlsZr
5gWlsePThja4yPU6ATHpHnyUZiRLfdEAko9E0D67HTCW9jLTaZVcapXhjAtqaYmu
d8VPuQVyik+BQheRia65VP+fCzgFDKS0li1P3Pji9QsUrY+H5rTgPWcw5ze1t9AJ
ia/33nNQZ4mlZHaMQXCx+4po+S9PNXs0ITJCFsc5eL3JoPQBHQ5PKrvL1dT3tuyz
j4/oD8sXKckcZ6VaLebDubRP1pBik1APZF5hYoHW8CknxN/8+hy7VCN/i7atUwkY
ABlpy9Rc0UKWRYu06ocVGmB/j34m/UGiJT765fUSezHTg6SB3DRZ/oJ1KR8FP0jT
AgMBAAGjggFjMIIBXzAJBgNVHRMEAjAAMC0GCWCGSAGG+EIBDQQgFh5FYXN5LVJT
QSBHZW5lcmF0ZWQgQ2VydGlmaWNhdGUwHQYDVR0OBBYEFM4s0CBXpmRzNUQsARCJ
A8SOFYBRMIHhBgNVHSMEgdkwgdaAFBLNYATSoICecO3Gmbh7LMZS/RmhoYGypIGv
MIGsMQswCQYDVQQGEwJVUzELMAkGA1UECBMCT0gxETAPBgNVBAcTCENvbHVtYnVz
MRIwEAYDVQQKEwlWaWtpbmdWUE4xHTAbBgNVBAsTFE15T3JnYW5pemF0aW9uYWxV
bml0MRUwEwYDVQQDEwxWaWtpbmdWUE4gQ0ExEDAOBgNVBCkTB0Vhc3lSU0ExITAf
BgkqhkiG9w0BCQEWEm1lQG15aG9zdC5teWRvbWFpboIJAM81he6Avyo+MBMGA1Ud
JQQMMAoGCCsGAQUFBwMCMAsGA1UdDwQEAwIHgDANBgkqhkiG9w0BAQQFAAOCAgEA
j10+xxoI2jADXUWaiHY2P2fH6XnJQBCaWFMJubWBcLek+TC/qzjKVjgqhG/ctIf4
kZTf+vpXvh3JU8qWV1V9wBl4F5NNaucVqwqTqTI4QQ/UyKQoEKpm/FT28f5yQyb0
hJTBB3hh32Vei4XPyDuAGFqv438qqgSS5wEmb430xfqXhIp50c2kA2MJHA2YitCn
axl6vofNDDNyh08OgO6Zn/oD8j6yPtP6CgWdJnvPPvWUBk645lMz2cQyDCJ/FNWg
csUsAYkPmvigjZDRVrMhcZmhx0/NtpntUHIi+/dRmXD4oUcuRkncr5jQzd+8j2g5
ZU3+cIR7L5M7ee7W5fX/L/tKIFrS58I3HpLn5yynSBJpn8izJmmGMuCdKUbe5JDb
fQs4lhZM24viE46wxvHItGkdd0yDMO09nvfitS5QkR/TFK3MUs488Wf3bKIF2nrB
DQUPvAI3I9zzhKCTX/4eknTJwS7tSUXZr4N9Ya+uJEzfwMYJsit56NvagwVrpXjw
uL9HlSt7/qWUSrSxH1zdGhLMSlPCd5B7VOpC3rcK3qRyPZgRSfzKLxWl8FTwU6B6
im2fcBani16cVVlYnEVfEbY9eU3gHij0TU6Ad1LlzRjw6Lu25mWxaFDctig6Yo+z
sKQjwcfsxI50GQEeDgXGcKJMbtqJhtiPrpxK33J7+NA=
-----END CERTIFICATE-----
