Certificate:
    Data:
        Version: 3 (0x2)
        Serial Number: 4998 (0x1386)
    Signature Algorithm: md5WithRSAEncryption
        Issuer: C=US, ST=OH, L=Columbus, O=VikingVPN, OU=MyOrganizationalUnit, CN=VikingVPN CA/name=EasyRSA/emailAddress=me@myhost.mydomain
        Validity
            Not Before: Apr 19 16:54:34 2015 GMT
            Not After : Apr 16 16:54:34 2025 GMT
        Subject: CN=Client719Cert33eb56
        Subject Public Key Info:
            Public Key Algorithm: rsaEncryption
                Public-Key: (4096 bit)
                Modulus:
                    00:ba:fa:a7:24:29:38:c2:73:16:01:c2:ea:a1:d8:
                    3b:ea:4b:a7:0b:0f:50:5a:a2:c9:58:39:9b:cd:d1:
                    a5:b3:24:fd:40:5b:b1:86:11:43:23:31:9b:ce:3c:
                    05:52:30:15:3f:02:e6:a5:34:da:dd:d5:4f:de:b3:
                    1f:c6:14:2a:42:40:51:74:1d:6d:83:79:fd:81:c0:
                    47:61:c2:2d:03:75:37:7a:a3:2e:27:01:b6:9e:74:
                    bd:be:f5:65:49:55:49:89:eb:7d:b6:a4:86:aa:a4:
                    79:4b:6c:aa:eb:99:54:80:ce:77:8f:7d:4a:91:8a:
                    99:af:6a:09:b4:8f:db:d2:1e:c5:93:97:79:f4:3b:
                    ea:84:88:20:d6:21:96:2f:c7:56:0c:6b:42:09:4d:
                    d9:9c:57:04:f4:78:ef:da:88:33:c1:92:5d:4f:c5:
                    ab:2f:50:bf:9c:b0:6c:66:6c:10:87:99:61:87:42:
                    b7:86:c5:18:f9:c0:09:b4:32:c6:f4:19:42:9f:f7:
                    2c:2b:4e:54:84:ae:5c:89:2a:ce:b3:34:84:cf:02:
                    6b:bb:7b:f2:3f:50:44:e0:2e:b0:37:4d:34:22:96:
                    90:e4:8d:aa:cf:5e:29:0a:ed:5d:9c:82:91:31:25:
                    3c:2a:b5:b4:b6:e5:db:b8:7c:c9:77:6e:f5:dd:2b:
                    3a:ae:22:88:93:7b:b7:ef:d9:1a:d3:6b:a5:36:fd:
                    d1:30:79:0a:38:86:48:d5:0b:a9:66:b4:f1:96:bc:
                    ff:5f:be:8a:aa:d3:75:14:31:c3:83:f1:2b:9d:25:
                    98:54:fe:34:c6:38:df:96:4e:0d:0f:53:fb:24:8d:
                    de:e5:95:28:50:f7:51:d4:e2:ea:cc:ac:61:ce:a0:
                    e3:8f:00:5b:b3:51:24:33:65:d7:e6:38:42:ef:4c:
                    d1:6a:ff:cf:b6:7a:16:65:44:e5:5e:34:31:68:bf:
                    60:a4:6b:4e:a6:6a:20:9b:eb:c9:0d:08:7d:8f:fa:
                    cd:0c:05:70:b0:c8:d8:e1:ee:12:1a:77:58:5d:2e:
                    ea:a9:40:ee:ec:9d:75:b6:ed:df:23:59:b6:71:c6:
                    6b:ac:74:50:d1:39:34:4a:49:15:da:cb:8d:8e:7e:
                    e5:bc:7e:cf:ac:bd:39:fd:13:56:9c:6a:ad:3e:f9:
                    92:7e:95:bb:51:0c:a7:d2:a0:95:ff:4b:aa:bd:83:
                    9f:96:ca:e6:7c:a8:1f:bf:54:4b:ed:ca:f1:33:db:
                    90:1a:1a:ce:ba:f3:1c:b8:cd:06:66:84:0a:58:e9:
                    f3:28:02:93:d4:69:33:44:c6:a7:e6:ac:83:c7:b7:
                    ed:c4:73:14:cc:74:98:18:e6:87:62:e5:bd:51:53:
                    3b:37:6f
                Exponent: 65537 (0x10001)
        X509v3 extensions:
            X509v3 Basic Constraints: 
                CA:FALSE
            Netscape Comment: 
                Easy-RSA Generated Certificate
            X509v3 Subject Key Identifier: 
                74:01:9A:5B:F6:08:13:64:78:FA:BD:5C:8F:AC:40:6E:1A:D0:FA:1F
            X509v3 Authority Key Identifier: 
                keyid:12:CD:60:04:D2:A0:80:9E:70:ED:C6:99:B8:7B:2C:C6:52:FD:19:A1
                DirName:/C=US/ST=OH/L=Columbus/O=VikingVPN/OU=MyOrganizationalUnit/CN=VikingVPN CA/name=EasyRSA/emailAddress=me@myhost.mydomain
                serial:CF:35:85:EE:80:BF:2A:3E

            X509v3 Extended Key Usage: 
                TLS Web Client Authentication
            X509v3 Key Usage: 
                Digital Signature
    Signature Algorithm: md5WithRSAEncryption
         dc:9b:e9:2c:ee:5e:9b:dd:a8:61:09:c1:87:0f:10:39:c9:97:
         21:e1:d1:20:67:86:68:e9:ae:16:20:3b:07:10:89:11:fc:a9:
         c1:cb:6a:b8:5d:fa:f3:89:ab:28:e4:e5:99:85:5a:06:76:b3:
         1d:94:51:30:c5:ae:66:a6:1f:f3:83:f4:cd:f6:40:3f:3f:49:
         ca:9b:67:c8:83:84:16:00:da:c4:0d:e9:6c:0d:54:24:71:87:
         25:04:4b:0c:cb:23:00:ee:06:cb:16:8a:c2:aa:97:0a:ac:f3:
         0e:1f:fa:de:b6:6b:6a:f9:b6:05:d4:56:b8:0a:d1:b5:2c:ef:
         b7:01:52:db:cf:d8:35:68:22:88:59:06:e1:4f:c6:39:05:56:
         40:5c:c2:e1:42:2d:1d:c7:0f:b3:9b:f6:82:65:09:8f:09:47:
         0e:cb:17:18:b3:ad:e9:b5:f6:0f:68:db:32:82:56:d2:2e:2d:
         81:9f:ff:44:33:9d:18:05:f8:da:30:db:d4:d1:e5:81:65:e8:
         7e:57:e0:dd:3e:48:e7:e4:e0:fb:25:2f:e6:99:3c:5d:d2:6d:
         76:95:c5:fc:d4:68:18:53:1a:3e:01:81:23:cd:d7:e5:0e:e3:
         3e:90:4e:d8:a9:70:15:7a:97:d7:24:37:35:02:aa:52:cb:fa:
         63:9b:04:d4:36:11:e4:3e:f2:c6:f2:f7:b1:3b:54:a0:1f:e5:
         76:42:85:19:6e:b6:14:b5:ca:b6:d7:03:0a:ef:5f:6d:67:f0:
         f2:26:55:b1:f4:c2:c5:3b:f3:ed:a0:6c:b2:96:d2:59:95:b3:
         65:a6:8c:b0:52:cf:d1:15:21:bd:a7:70:82:2a:0d:5d:31:82:
         f9:03:1e:ce:2d:0d:d8:75:d2:28:26:03:13:f3:c5:05:12:56:
         2b:64:64:c6:61:48:6b:e9:97:6c:5d:93:d0:da:43:25:83:26:
         bc:88:02:9b:60:0a:42:d0:98:78:01:c2:2b:9c:61:21:d5:6c:
         2b:c2:31:41:6b:38:62:93:8b:c9:9e:9c:d3:64:f8:b4:4c:17:
         c2:51:86:9d:0b:3c:cb:02:9f:d3:c2:50:c2:a5:03:b2:bd:06:
         a0:df:96:f4:1e:1e:ef:43:6d:08:e8:68:fe:62:3d:a3:55:83:
         43:45:69:fc:66:4d:df:cd:80:c7:26:24:d2:e4:99:fd:2c:dd:
         b8:0d:ed:48:68:e1:ec:45:d9:42:dd:30:16:07:0a:49:27:a5:
         ea:83:d2:fc:21:c9:fe:5f:91:56:fc:72:1d:01:51:0f:c9:1b:
         b6:03:9d:40:1f:29:a1:6b:64:a2:4e:f1:b7:a9:b8:93:86:d4:
         af:e0:d8:c3:c7:4f:91:08
-----BEGIN CERTIFICATE-----
MIIGrDCCBJSgAwIBAgICE4YwDQYJKoZIhvcNAQEEBQAwgawxCzAJBgNVBAYTAlVT
MQswCQYDVQQIEwJPSDERMA8GA1UEBxMIQ29sdW1idXMxEjAQBgNVBAoTCVZpa2lu
Z1ZQTjEdMBsGA1UECxMUTXlPcmdhbml6YXRpb25hbFVuaXQxFTATBgNVBAMTDFZp
a2luZ1ZQTiBDQTEQMA4GA1UEKRMHRWFzeVJTQTEhMB8GCSqGSIb3DQEJARYSbWVA
bXlob3N0Lm15ZG9tYWluMB4XDTE1MDQxOTE2NTQzNFoXDTI1MDQxNjE2NTQzNFow
HjEcMBoGA1UEAxMTQ2xpZW50NzE5Q2VydDMzZWI1NjCCAiIwDQYJKoZIhvcNAQEB
BQADggIPADCCAgoCggIBALr6pyQpOMJzFgHC6qHYO+pLpwsPUFqiyVg5m83RpbMk
/UBbsYYRQyMxm848BVIwFT8C5qU02t3VT96zH8YUKkJAUXQdbYN5/YHAR2HCLQN1
N3qjLicBtp50vb71ZUlVSYnrfbakhqqkeUtsquuZVIDOd499SpGKma9qCbSP29Ie
xZOXefQ76oSIINYhli/HVgxrQglN2ZxXBPR479qIM8GSXU/Fqy9Qv5ywbGZsEIeZ
YYdCt4bFGPnACbQyxvQZQp/3LCtOVISuXIkqzrM0hM8Ca7t78j9QROAusDdNNCKW
kOSNqs9eKQrtXZyCkTElPCq1tLbl27h8yXdu9d0rOq4iiJN7t+/ZGtNrpTb90TB5
CjiGSNULqWa08Za8/1++iqrTdRQxw4PxK50lmFT+NMY435ZODQ9T+ySN3uWVKFD3
UdTi6sysYc6g448AW7NRJDNl1+Y4Qu9M0Wr/z7Z6FmVE5V40MWi/YKRrTqZqIJvr
yQ0IfY/6zQwFcLDI2OHuEhp3WF0u6qlA7uyddbbt3yNZtnHGa6x0UNE5NEpJFdrL
jY5+5bx+z6y9Of0TVpxqrT75kn6Vu1EMp9Kglf9Lqr2Dn5bK5nyoH79US+3K8TPb
kBoazrrzHLjNBmaECljp8ygCk9RpM0TGp+asg8e37cRzFMx0mBjmh2LlvVFTOzdv
AgMBAAGjggFjMIIBXzAJBgNVHRMEAjAAMC0GCWCGSAGG+EIBDQQgFh5FYXN5LVJT
QSBHZW5lcmF0ZWQgQ2VydGlmaWNhdGUwHQYDVR0OBBYEFHQBmlv2CBNkePq9XI+s
QG4a0PofMIHhBgNVHSMEgdkwgdaAFBLNYATSoICecO3Gmbh7LMZS/RmhoYGypIGv
MIGsMQswCQYDVQQGEwJVUzELMAkGA1UECBMCT0gxETAPBgNVBAcTCENvbHVtYnVz
MRIwEAYDVQQKEwlWaWtpbmdWUE4xHTAbBgNVBAsTFE15T3JnYW5pemF0aW9uYWxV
bml0MRUwEwYDVQQDEwxWaWtpbmdWUE4gQ0ExEDAOBgNVBCkTB0Vhc3lSU0ExITAf
BgkqhkiG9w0BCQEWEm1lQG15aG9zdC5teWRvbWFpboIJAM81he6Avyo+MBMGA1Ud
JQQMMAoGCCsGAQUFBwMCMAsGA1UdDwQEAwIHgDANBgkqhkiG9w0BAQQFAAOCAgEA
3JvpLO5em92oYQnBhw8QOcmXIeHRIGeGaOmuFiA7BxCJEfypwctquF3684mrKOTl
mYVaBnazHZRRMMWuZqYf84P0zfZAPz9JyptnyIOEFgDaxA3pbA1UJHGHJQRLDMsj
AO4GyxaKwqqXCqzzDh/63rZravm2BdRWuArRtSzvtwFS28/YNWgiiFkG4U/GOQVW
QFzC4UItHccPs5v2gmUJjwlHDssXGLOt6bX2D2jbMoJW0i4tgZ//RDOdGAX42jDb
1NHlgWXoflfg3T5I5+Tg+yUv5pk8XdJtdpXF/NRoGFMaPgGBI83X5Q7jPpBO2Klw
FXqX1yQ3NQKqUsv6Y5sE1DYR5D7yxvL3sTtUoB/ldkKFGW62FLXKttcDCu9fbWfw
8iZVsfTCxTvz7aBsspbSWZWzZaaMsFLP0RUhvadwgioNXTGC+QMezi0N2HXSKCYD
E/PFBRJWK2RkxmFIa+mXbF2T0NpDJYMmvIgCm2AKQtCYeAHCK5xhIdVsK8IxQWs4
YpOLyZ6c02T4tEwXwlGGnQs8ywKf08JQwqUDsr0GoN+W9B4e70NtCOho/mI9o1WD
Q0Vp/GZN382AxyYk0uSZ/SzduA3tSGjh7EXZQt0wFgcKSSel6oPS/CHJ/l+RVvxy
HQFRD8kbtgOdQB8poWtkok7xt6m4k4bUr+DYw8dPkQg=
-----END CERTIFICATE-----
