Certificate:
    Data:
        Version: 3 (0x2)
        Serial Number: 5008 (0x1390)
    Signature Algorithm: md5WithRSAEncryption
        Issuer: C=US, ST=OH, L=Columbus, O=VikingVPN, OU=MyOrganizationalUnit, CN=VikingVPN CA/name=EasyRSA/emailAddress=me@myhost.mydomain
        Validity
            Not Before: Apr 21 02:33:47 2015 GMT
            Not After : Apr 18 02:33:47 2025 GMT
        Subject: CN=Client1632Certb61f49
        Subject Public Key Info:
            Public Key Algorithm: rsaEncryption
                Public-Key: (4096 bit)
                Modulus:
                    00:b2:ff:13:52:7a:c7:b9:a3:a0:d2:f4:fe:a2:4f:
                    ad:c7:ef:74:cc:b5:51:ca:d5:1a:b2:21:ec:2c:a4:
                    da:9c:13:32:f0:b5:43:e9:34:2c:81:ee:ad:35:9c:
                    b6:20:c5:8a:04:4d:7f:f7:f8:5d:ea:30:e8:09:10:
                    9f:e5:33:5e:a3:0f:86:01:a9:91:d1:af:2b:cf:6e:
                    b1:61:4a:bd:1f:d7:ae:39:0f:8f:0c:28:ca:dd:ea:
                    cf:6b:1f:e9:c3:0d:e6:db:aa:4e:7e:b7:55:be:4d:
                    b5:93:70:2b:d6:9f:4c:fa:26:5a:c0:6a:9a:e5:9b:
                    73:61:f5:29:7e:a3:1d:ae:89:e9:8c:8c:8f:41:b6:
                    7c:e7:f7:d3:90:7a:f5:42:7a:d0:a5:05:4f:bc:a5:
                    67:e7:bd:6b:9a:27:78:31:d7:dc:8d:42:f1:02:86:
                    3d:e7:72:21:7e:5e:a1:ca:65:11:dd:23:7d:5a:47:
                    63:45:d3:a7:ca:02:a4:71:0f:34:a9:f2:24:21:89:
                    32:6f:cf:ad:7a:df:63:25:78:9e:9c:84:d7:a6:b9:
                    3a:91:31:82:37:ad:7b:81:5a:e2:fa:76:76:00:1d:
                    9b:12:ae:e0:dc:b2:8e:a3:6b:dc:2d:29:a1:d2:a2:
                    67:ad:f3:c3:ce:a6:0b:29:0b:73:75:bc:da:f8:85:
                    7c:78:e8:cd:f3:1a:ef:38:f2:30:32:cc:ae:7b:b7:
                    74:25:05:62:6d:81:b9:d9:50:ef:69:4c:92:b7:54:
                    0c:7a:03:24:6b:e0:88:8d:eb:28:71:d9:ea:2c:f1:
                    76:5a:e8:cb:fa:e1:bb:ee:e2:f0:8c:0a:21:c2:16:
                    a1:a6:3d:f7:e4:66:eb:40:35:5b:aa:f0:be:79:96:
                    a3:fd:96:e8:61:11:f6:04:69:1b:0d:eb:b9:1f:54:
                    09:08:44:6c:b7:36:3e:bd:6a:02:6f:39:95:33:36:
                    68:3a:32:e5:9d:49:1f:f6:f6:16:a4:d2:f1:63:a6:
                    d8:06:c0:e2:7e:bf:59:7f:ca:34:a8:84:44:29:11:
                    1f:b9:ed:ba:fc:3e:11:ce:a1:9f:d0:b1:dc:fe:17:
                    fb:28:90:0e:bf:81:a6:31:63:5f:25:ea:6e:91:40:
                    77:bc:e3:77:c5:14:bb:1e:28:56:24:ce:1c:07:24:
                    64:22:6a:5c:41:3f:23:d1:c2:bf:82:44:3c:53:4d:
                    ac:c8:c6:f2:59:c4:68:4c:59:a0:e2:95:24:77:4e:
                    cf:bb:de:ce:73:8d:16:1a:f7:5f:1f:ce:28:cf:ce:
                    d5:74:1f:77:d9:3f:3a:c9:d2:51:99:45:30:1b:51:
                    65:15:c2:d3:18:fb:c9:9a:5a:97:4b:16:a7:a1:21:
                    45:ee:f5
                Exponent: 65537 (0x10001)
        X509v3 extensions:
            X509v3 Basic Constraints: 
                CA:FALSE
            Netscape Comment: 
                Easy-RSA Generated Certificate
            X509v3 Subject Key Identifier: 
                B2:FE:98:C3:63:B2:43:A4:D7:92:54:F7:EC:8B:B8:99:F0:4E:E8:75
            X509v3 Authority Key Identifier: 
                keyid:12:CD:60:04:D2:A0:80:9E:70:ED:C6:99:B8:7B:2C:C6:52:FD:19:A1
                DirName:/C=US/ST=OH/L=Columbus/O=VikingVPN/OU=MyOrganizationalUnit/CN=VikingVPN CA/name=EasyRSA/emailAddress=me@myhost.mydomain
                serial:CF:35:85:EE:80:BF:2A:3E

            X509v3 Extended Key Usage: 
                TLS Web Client Authentication
            X509v3 Key Usage: 
                Digital Signature
    Signature Algorithm: md5WithRSAEncryption
         90:b9:72:62:be:ce:97:c5:95:b7:99:ed:68:e8:eb:9d:6a:f2:
         bc:35:8c:9f:bf:34:d9:61:21:01:d9:1e:af:1d:b2:a9:5a:50:
         e9:07:fc:5d:a0:60:0a:2f:61:a0:a6:a2:12:cd:de:dd:2d:22:
         36:ae:84:fe:08:7d:00:09:ff:04:43:be:e7:a8:a3:47:87:ce:
         49:92:5a:d4:ac:b5:75:54:d4:d2:1d:ea:95:03:05:e6:93:e0:
         a4:c8:cf:e0:c0:5c:ac:ef:6d:8f:f4:a8:20:cd:37:5b:15:75:
         14:9f:de:de:9f:ba:a7:6e:59:9e:10:33:8f:40:4f:3d:2c:57:
         f2:d4:c6:c5:16:f6:20:db:7f:de:94:18:44:82:61:ba:67:ba:
         79:95:84:d1:5b:1d:ec:18:6e:99:3e:fb:d1:bf:a6:0c:2a:a2:
         c3:60:f2:f1:52:35:78:b1:06:f3:af:0b:8f:d8:d8:95:59:d4:
         47:2b:fc:48:61:c1:87:d9:2f:ed:ac:b9:7f:ac:cc:f1:3c:46:
         51:d8:78:b0:e3:d0:80:d2:95:af:3a:54:45:34:be:94:b4:32:
         b1:88:9b:2b:db:f3:88:f2:73:70:ec:a6:ed:41:14:ec:b2:20:
         4b:e7:67:81:d7:cb:55:55:40:e0:21:7d:3c:2f:f6:b1:59:2c:
         70:5d:c3:95:d9:aa:11:d3:d2:3a:32:eb:3a:44:ae:8b:22:f8:
         58:72:4a:76:e0:31:95:5f:1a:29:e7:6d:82:d9:91:e5:78:7c:
         47:1d:62:49:92:4c:41:18:e9:ff:37:58:79:c0:15:c7:1e:45:
         cd:5b:e0:ea:dd:9e:b0:96:61:e2:88:3e:35:c3:02:48:ff:17:
         f2:e8:dd:7f:03:a9:19:d7:85:c3:8f:f3:74:7c:94:61:b8:a3:
         90:af:7d:70:f4:8d:dd:cc:57:0e:0e:69:4f:97:b1:c2:51:d2:
         3f:d6:12:33:4b:7b:8d:1b:ab:e5:50:c5:59:4f:8b:0e:fb:7a:
         b8:12:f9:f2:cd:84:8d:f0:93:bd:80:7a:0e:b8:0f:fa:fe:45:
         5e:fc:3a:fb:2d:ea:9a:01:2e:56:84:60:1f:10:a8:4a:59:c7:
         da:3f:d3:44:97:62:83:21:7a:25:fd:73:c9:a2:06:68:32:85:
         7f:2e:1d:ab:ce:1f:9a:0b:32:4f:bf:90:6b:da:78:61:3b:1d:
         ac:cd:9a:48:bd:b6:62:26:1e:b2:55:40:f8:2d:d4:92:39:f1:
         e9:4b:53:99:b5:05:96:ae:c5:b3:80:b3:fe:7b:c0:14:c2:5e:
         49:45:7e:50:9e:b2:7f:07:8d:97:e3:79:47:7a:bc:43:f8:90:
         82:ab:1d:89:ba:79:91:f4
-----BEGIN CERTIFICATE-----
MIIGrTCCBJWgAwIBAgICE5AwDQYJKoZIhvcNAQEEBQAwgawxCzAJBgNVBAYTAlVT
MQswCQYDVQQIEwJPSDERMA8GA1UEBxMIQ29sdW1idXMxEjAQBgNVBAoTCVZpa2lu
Z1ZQTjEdMBsGA1UECxMUTXlPcmdhbml6YXRpb25hbFVuaXQxFTATBgNVBAMTDFZp
a2luZ1ZQTiBDQTEQMA4GA1UEKRMHRWFzeVJTQTEhMB8GCSqGSIb3DQEJARYSbWVA
bXlob3N0Lm15ZG9tYWluMB4XDTE1MDQyMTAyMzM0N1oXDTI1MDQxODAyMzM0N1ow
HzEdMBsGA1UEAxMUQ2xpZW50MTYzMkNlcnRiNjFmNDkwggIiMA0GCSqGSIb3DQEB
AQUAA4ICDwAwggIKAoICAQCy/xNSese5o6DS9P6iT63H73TMtVHK1RqyIewspNqc
EzLwtUPpNCyB7q01nLYgxYoETX/3+F3qMOgJEJ/lM16jD4YBqZHRryvPbrFhSr0f
1645D48MKMrd6s9rH+nDDebbqk5+t1W+TbWTcCvWn0z6JlrAaprlm3Nh9Sl+ox2u
iemMjI9Btnzn99OQevVCetClBU+8pWfnvWuaJ3gx19yNQvEChj3nciF+XqHKZRHd
I31aR2NF06fKAqRxDzSp8iQhiTJvz61632MleJ6chNemuTqRMYI3rXuBWuL6dnYA
HZsSruDcso6ja9wtKaHSomet88POpgspC3N1vNr4hXx46M3zGu848jAyzK57t3Ql
BWJtgbnZUO9pTJK3VAx6AyRr4IiN6yhx2eos8XZa6Mv64bvu4vCMCiHCFqGmPffk
ZutANVuq8L55lqP9luhhEfYEaRsN67kfVAkIRGy3Nj69agJvOZUzNmg6MuWdSR/2
9hak0vFjptgGwOJ+v1l/yjSohEQpER+57br8PhHOoZ/Qsdz+F/sokA6/gaYxY18l
6m6RQHe843fFFLseKFYkzhwHJGQialxBPyPRwr+CRDxTTazIxvJZxGhMWaDilSR3
Ts+73s5zjRYa918fzijPztV0H3fZPzrJ0lGZRTAbUWUVwtMY+8maWpdLFqehIUXu
9QIDAQABo4IBYzCCAV8wCQYDVR0TBAIwADAtBglghkgBhvhCAQ0EIBYeRWFzeS1S
U0EgR2VuZXJhdGVkIENlcnRpZmljYXRlMB0GA1UdDgQWBBSy/pjDY7JDpNeSVPfs
i7iZ8E7odTCB4QYDVR0jBIHZMIHWgBQSzWAE0qCAnnDtxpm4eyzGUv0ZoaGBsqSB
rzCBrDELMAkGA1UEBhMCVVMxCzAJBgNVBAgTAk9IMREwDwYDVQQHEwhDb2x1bWJ1
czESMBAGA1UEChMJVmlraW5nVlBOMR0wGwYDVQQLExRNeU9yZ2FuaXphdGlvbmFs
VW5pdDEVMBMGA1UEAxMMVmlraW5nVlBOIENBMRAwDgYDVQQpEwdFYXN5UlNBMSEw
HwYJKoZIhvcNAQkBFhJtZUBteWhvc3QubXlkb21haW6CCQDPNYXugL8qPjATBgNV
HSUEDDAKBggrBgEFBQcDAjALBgNVHQ8EBAMCB4AwDQYJKoZIhvcNAQEEBQADggIB
AJC5cmK+zpfFlbeZ7Wjo651q8rw1jJ+/NNlhIQHZHq8dsqlaUOkH/F2gYAovYaCm
ohLN3t0tIjauhP4IfQAJ/wRDvueoo0eHzkmSWtSstXVU1NId6pUDBeaT4KTIz+DA
XKzvbY/0qCDNN1sVdRSf3t6fuqduWZ4QM49ATz0sV/LUxsUW9iDbf96UGESCYbpn
unmVhNFbHewYbpk++9G/pgwqosNg8vFSNXixBvOvC4/Y2JVZ1Ecr/EhhwYfZL+2s
uX+szPE8RlHYeLDj0IDSla86VEU0vpS0MrGImyvb84jyc3Dspu1BFOyyIEvnZ4HX
y1VVQOAhfTwv9rFZLHBdw5XZqhHT0joy6zpErosi+FhySnbgMZVfGinnbYLZkeV4
fEcdYkmSTEEY6f83WHnAFcceRc1b4OrdnrCWYeKIPjXDAkj/F/Lo3X8DqRnXhcOP
83R8lGG4o5CvfXD0jd3MVw4OaU+XscJR0j/WEjNLe40bq+VQxVlPiw77ergS+fLN
hI3wk72Aeg64D/r+RV78Ovst6poBLlaEYB8QqEpZx9o/00SXYoMheiX9c8miBmgy
hX8uHavOH5oLMk+/kGvaeGE7HazNmki9tmImHrJVQPgt1JI58elLU5m1BZauxbOA
s/57wBTCXklFflCesn8HjZfjeUd6vEP4kIKrHYm6eZH0
-----END CERTIFICATE-----
