Certificate:
    Data:
        Version: 3 (0x2)
        Serial Number: 5011 (0x1393)
    Signature Algorithm: md5WithRSAEncryption
        Issuer: C=US, ST=OH, L=Columbus, O=VikingVPN, OU=MyOrganizationalUnit, CN=VikingVPN CA/name=EasyRSA/emailAddress=me@myhost.mydomain
        Validity
            Not Before: Apr 21 03:31:15 2015 GMT
            Not After : Apr 18 03:31:15 2025 GMT
        Subject: CN=Client1632Cert0b7993
        Subject Public Key Info:
            Public Key Algorithm: rsaEncryption
                Public-Key: (4096 bit)
                Modulus:
                    00:ad:79:f3:5e:13:58:7c:b5:9e:cc:c7:97:9f:f0:
                    2b:14:0b:bd:40:77:87:c4:d6:30:9e:c4:92:1a:fc:
                    2d:6e:5f:3d:f8:11:71:3d:fc:ab:de:e6:38:72:f1:
                    24:0e:9d:41:ac:a4:e6:4f:9d:17:81:84:d0:25:70:
                    df:34:39:82:96:9b:ef:83:f4:cc:00:b8:5b:fe:ce:
                    1c:cb:54:b5:02:64:07:b4:ee:12:94:3e:20:5b:00:
                    4d:b9:fa:a2:cc:f4:a3:b7:0c:8e:43:ce:05:9b:92:
                    33:2d:1d:e2:63:7c:25:ee:3f:35:8f:3e:6c:de:14:
                    31:39:db:d3:ff:da:3e:0e:f6:ad:0e:61:f4:81:c7:
                    9e:c3:7d:6f:b8:1e:2b:6a:86:4c:a3:70:5a:11:f1:
                    69:34:fa:31:55:80:b9:d6:88:e3:15:f5:ac:65:6b:
                    b8:32:22:4c:6e:27:00:ea:31:32:88:9f:80:5e:f3:
                    3b:db:29:79:66:e5:0c:ed:eb:ef:d0:5a:44:9b:62:
                    44:95:a8:9c:61:e0:e1:c6:d6:38:d3:8e:a0:d3:bd:
                    49:e0:d3:b5:4d:3c:b7:04:e7:dc:a9:87:6e:b9:13:
                    8c:13:e7:5c:49:6c:f0:16:2a:33:7e:d4:66:47:49:
                    e3:9f:51:b2:c2:7f:e9:f0:1a:5a:2e:24:23:fd:2e:
                    26:72:77:39:cb:23:5d:f3:55:ab:5a:68:ec:99:f8:
                    1c:55:de:fb:12:a7:44:2b:62:2b:cb:3c:3f:28:8a:
                    ad:59:eb:8c:27:94:b1:e9:44:10:2f:66:4b:cf:81:
                    86:c6:8e:27:01:da:69:63:ea:23:93:84:29:5d:7c:
                    aa:f2:56:25:76:60:dd:09:70:0f:2b:5d:a5:ea:ce:
                    7b:f9:46:6e:9c:4b:56:15:f9:d0:6e:f7:3c:2d:bb:
                    64:47:4e:97:30:dd:14:de:64:21:91:e4:d6:24:3e:
                    cd:51:c6:bb:79:39:66:18:be:66:31:b6:f2:c2:ae:
                    f4:96:1e:a9:29:74:a0:f3:06:96:55:2e:21:01:bb:
                    83:8e:b5:1d:4e:10:40:54:fb:a8:39:63:90:e9:c9:
                    02:90:6b:a9:9d:10:fe:e8:77:cb:d8:d3:bb:c0:97:
                    64:1c:58:b2:50:ca:96:00:70:f0:b7:cc:d7:2a:d8:
                    3b:2e:c8:6f:e2:fe:84:2b:a8:7e:67:58:52:2f:71:
                    cd:ac:b4:06:34:42:b0:cc:a3:76:26:32:1b:97:da:
                    8e:b6:54:71:c2:61:8a:56:4e:03:dc:7b:73:81:3d:
                    0e:e6:21:5a:d2:c0:56:a8:3e:49:cb:e6:5e:d7:55:
                    b1:a2:ae:21:56:73:dd:63:d6:78:20:fc:da:39:34:
                    b9:c8:e5
                Exponent: 65537 (0x10001)
        X509v3 extensions:
            X509v3 Basic Constraints: 
                CA:FALSE
            Netscape Comment: 
                Easy-RSA Generated Certificate
            X509v3 Subject Key Identifier: 
                F3:88:EA:66:FE:C0:C5:48:64:EA:DA:89:E8:74:86:70:F3:8D:04:54
            X509v3 Authority Key Identifier: 
                keyid:12:CD:60:04:D2:A0:80:9E:70:ED:C6:99:B8:7B:2C:C6:52:FD:19:A1
                DirName:/C=US/ST=OH/L=Columbus/O=VikingVPN/OU=MyOrganizationalUnit/CN=VikingVPN CA/name=EasyRSA/emailAddress=me@myhost.mydomain
                serial:CF:35:85:EE:80:BF:2A:3E

            X509v3 Extended Key Usage: 
                TLS Web Client Authentication
            X509v3 Key Usage: 
                Digital Signature
    Signature Algorithm: md5WithRSAEncryption
         30:1a:ec:6e:0f:e0:08:95:9c:84:22:b2:70:9b:af:d2:27:2b:
         28:05:ff:a3:5a:87:bd:2d:60:b2:91:29:cc:5a:d1:c4:a1:2d:
         5e:e0:b1:c8:17:4a:a8:73:68:25:0f:bd:76:32:97:8c:de:2b:
         14:ee:c5:d5:2c:18:06:dc:a3:82:93:a8:8a:97:ab:b3:50:c2:
         3c:d4:11:54:65:bf:7e:be:58:94:e8:ae:14:b2:9b:69:ea:d0:
         36:e6:96:de:87:c1:ed:f4:ee:7d:f3:fa:17:c1:ee:63:64:af:
         63:40:1a:f6:3d:db:dd:21:28:ed:68:73:43:43:ca:95:bf:d9:
         99:4a:ea:97:7a:84:b7:40:65:a6:8b:a9:5e:b6:72:b3:8f:e5:
         aa:d5:82:50:96:90:e3:27:1d:93:18:38:27:d9:2f:f7:8d:1d:
         68:3c:aa:19:f4:d4:f1:1b:ef:37:4d:05:64:4b:a9:45:1b:16:
         39:38:fa:9d:e4:ea:1c:8c:b9:6e:de:af:be:c7:f8:30:8f:3e:
         da:7d:72:5b:e7:14:f4:e4:09:16:32:ef:90:5e:ad:29:a5:88:
         b3:90:b6:b1:bd:fe:73:24:d7:22:e5:9d:c0:e2:32:32:c3:97:
         c0:ec:24:28:d7:c2:b0:33:13:1b:0b:64:fe:69:d4:66:5c:7e:
         60:3e:39:b7:b3:b5:35:06:7f:b6:4f:15:9b:d1:42:44:17:d6:
         ac:f4:8b:dd:c5:dc:4d:d9:a5:56:b1:b1:9e:52:2e:f2:47:fb:
         8c:51:94:4d:23:33:c9:76:5e:ed:1b:80:3c:75:e9:51:ea:2e:
         01:df:ea:64:20:ec:9e:ee:22:f9:1b:f9:15:63:9b:38:47:71:
         c5:72:39:b7:b6:fa:0e:fe:90:78:1c:85:e3:a1:9b:e5:b6:98:
         cf:39:be:2d:aa:55:aa:7d:24:e6:43:be:25:91:2e:8a:5c:6e:
         7f:be:79:9b:ae:01:9c:32:8f:9a:56:3c:c8:c8:1b:4e:3d:6a:
         52:d0:12:79:ac:0e:d0:a8:14:8a:d0:a3:e0:d4:c5:5c:7a:58:
         85:11:e7:c1:f2:f3:7f:75:db:1a:6e:cd:de:3a:c1:eb:2c:d6:
         3c:e8:d5:a9:99:51:22:01:60:bb:28:71:1a:b3:cf:39:ab:98:
         16:00:78:53:7f:43:90:08:f8:98:95:77:71:7a:31:bb:04:14:
         1f:24:a6:68:78:88:b8:c2:d3:a7:1f:29:24:3e:06:d0:69:0a:
         30:33:f5:8e:8b:a2:fd:31:c9:93:45:44:b8:7b:5c:08:c0:c6:
         19:4a:26:fa:af:2b:e1:2c:d5:db:a0:68:b9:28:56:38:74:4d:
         0c:c8:b8:13:b6:b8:c5:72
-----BEGIN CERTIFICATE-----
MIIGrTCCBJWgAwIBAgICE5MwDQYJKoZIhvcNAQEEBQAwgawxCzAJBgNVBAYTAlVT
MQswCQYDVQQIEwJPSDERMA8GA1UEBxMIQ29sdW1idXMxEjAQBgNVBAoTCVZpa2lu
Z1ZQTjEdMBsGA1UECxMUTXlPcmdhbml6YXRpb25hbFVuaXQxFTATBgNVBAMTDFZp
a2luZ1ZQTiBDQTEQMA4GA1UEKRMHRWFzeVJTQTEhMB8GCSqGSIb3DQEJARYSbWVA
bXlob3N0Lm15ZG9tYWluMB4XDTE1MDQyMTAzMzExNVoXDTI1MDQxODAzMzExNVow
HzEdMBsGA1UEAxMUQ2xpZW50MTYzMkNlcnQwYjc5OTMwggIiMA0GCSqGSIb3DQEB
AQUAA4ICDwAwggIKAoICAQCtefNeE1h8tZ7Mx5ef8CsUC71Ad4fE1jCexJIa/C1u
Xz34EXE9/Kve5jhy8SQOnUGspOZPnReBhNAlcN80OYKWm++D9MwAuFv+zhzLVLUC
ZAe07hKUPiBbAE25+qLM9KO3DI5DzgWbkjMtHeJjfCXuPzWPPmzeFDE529P/2j4O
9q0OYfSBx57DfW+4HitqhkyjcFoR8Wk0+jFVgLnWiOMV9axla7gyIkxuJwDqMTKI
n4Be8zvbKXlm5Qzt6+/QWkSbYkSVqJxh4OHG1jjTjqDTvUng07VNPLcE59yph265
E4wT51xJbPAWKjN+1GZHSeOfUbLCf+nwGlouJCP9LiZydznLI13zVataaOyZ+BxV
3vsSp0QrYivLPD8oiq1Z64wnlLHpRBAvZkvPgYbGjicB2mlj6iOThCldfKryViV2
YN0JcA8rXaXqznv5Rm6cS1YV+dBu9zwtu2RHTpcw3RTeZCGR5NYkPs1Rxrt5OWYY
vmYxtvLCrvSWHqkpdKDzBpZVLiEBu4OOtR1OEEBU+6g5Y5DpyQKQa6mdEP7od8vY
07vAl2QcWLJQypYAcPC3zNcq2DsuyG/i/oQrqH5nWFIvcc2stAY0QrDMo3YmMhuX
2o62VHHCYYpWTgPce3OBPQ7mIVrSwFaoPknL5l7XVbGiriFWc91j1ngg/No5NLnI
5QIDAQABo4IBYzCCAV8wCQYDVR0TBAIwADAtBglghkgBhvhCAQ0EIBYeRWFzeS1S
U0EgR2VuZXJhdGVkIENlcnRpZmljYXRlMB0GA1UdDgQWBBTziOpm/sDFSGTq2ono
dIZw840EVDCB4QYDVR0jBIHZMIHWgBQSzWAE0qCAnnDtxpm4eyzGUv0ZoaGBsqSB
rzCBrDELMAkGA1UEBhMCVVMxCzAJBgNVBAgTAk9IMREwDwYDVQQHEwhDb2x1bWJ1
czESMBAGA1UEChMJVmlraW5nVlBOMR0wGwYDVQQLExRNeU9yZ2FuaXphdGlvbmFs
VW5pdDEVMBMGA1UEAxMMVmlraW5nVlBOIENBMRAwDgYDVQQpEwdFYXN5UlNBMSEw
HwYJKoZIhvcNAQkBFhJtZUBteWhvc3QubXlkb21haW6CCQDPNYXugL8qPjATBgNV
HSUEDDAKBggrBgEFBQcDAjALBgNVHQ8EBAMCB4AwDQYJKoZIhvcNAQEEBQADggIB
ADAa7G4P4AiVnIQisnCbr9InKygF/6Nah70tYLKRKcxa0cShLV7gscgXSqhzaCUP
vXYyl4zeKxTuxdUsGAbco4KTqIqXq7NQwjzUEVRlv36+WJTorhSym2nq0Dbmlt6H
we307n3z+hfB7mNkr2NAGvY9290hKO1oc0NDypW/2ZlK6pd6hLdAZaaLqV62crOP
5arVglCWkOMnHZMYOCfZL/eNHWg8qhn01PEb7zdNBWRLqUUbFjk4+p3k6hyMuW7e
r77H+DCPPtp9clvnFPTkCRYy75BerSmliLOQtrG9/nMk1yLlncDiMjLDl8DsJCjX
wrAzExsLZP5p1GZcfmA+ObeztTUGf7ZPFZvRQkQX1qz0i93F3E3ZpVaxsZ5SLvJH
+4xRlE0jM8l2Xu0bgDx16VHqLgHf6mQg7J7uIvkb+RVjmzhHccVyObe2+g7+kHgc
heOhm+W2mM85vi2qVap9JOZDviWRLopcbn++eZuuAZwyj5pWPMjIG049alLQEnms
DtCoFIrQo+DUxVx6WIUR58Hy83912xpuzd46wess1jzo1amZUSIBYLsocRqzzzmr
mBYAeFN/Q5AI+JiVd3F6MbsEFB8kpmh4iLjC06cfKSQ+BtBpCjAz9Y6Lov0xyZNF
RLh7XAjAxhlKJvqvK+Es1dugaLkoVjh0TQzIuBO2uMVy
-----END CERTIFICATE-----
