Certificate:
    Data:
        Version: 3 (0x2)
        Serial Number: 5014 (0x1396)
    Signature Algorithm: md5WithRSAEncryption
        Issuer: C=US, ST=OH, L=Columbus, O=VikingVPN, OU=MyOrganizationalUnit, CN=VikingVPN CA/name=EasyRSA/emailAddress=me@myhost.mydomain
        Validity
            Not Before: Apr 21 03:38:59 2015 GMT
            Not After : Apr 18 03:38:59 2025 GMT
        Subject: CN=Client1632Cert0f1856
        Subject Public Key Info:
            Public Key Algorithm: rsaEncryption
                Public-Key: (4096 bit)
                Modulus:
                    00:96:f4:69:9b:cb:60:ef:5d:8e:62:cb:8f:7d:71:
                    b8:ba:14:95:f4:72:76:4f:02:44:28:80:26:00:bb:
                    1b:60:9b:38:9d:37:a5:08:4c:70:3a:0e:68:4e:72:
                    bd:6d:2a:f8:32:a7:7c:48:66:68:26:29:23:b1:d0:
                    65:c0:6f:7f:f2:9c:a0:52:00:2c:c9:be:52:3b:f8:
                    27:48:bb:08:01:b8:19:27:18:6e:0c:be:ac:81:57:
                    76:4c:38:8e:0f:2b:35:a2:7d:47:9f:74:1e:98:da:
                    1c:d4:1b:f3:fa:25:97:97:2d:d0:4c:5c:0c:02:7b:
                    5e:f1:c0:dd:18:92:dc:28:43:ae:f9:42:72:02:99:
                    64:f5:b2:f0:4b:f2:0d:ca:ae:04:6b:28:0a:4d:68:
                    c4:7e:ab:77:9a:a1:28:d6:9a:16:f8:b0:88:4b:78:
                    52:0a:63:57:97:e3:e3:77:20:b9:b3:c4:16:ce:50:
                    e5:53:25:42:0a:fd:50:54:0d:12:bf:e9:48:85:5b:
                    68:ac:29:f9:54:c4:74:58:d2:71:db:b8:70:ff:aa:
                    1e:d2:fa:cc:96:66:50:20:95:22:44:a8:2d:58:9e:
                    0f:18:95:cc:9c:5b:20:81:3e:35:7e:c2:39:97:82:
                    9f:65:a1:df:14:4f:58:b9:47:8d:4e:69:0e:18:2a:
                    2c:15:79:43:38:c8:0f:5d:6e:8f:99:31:26:d3:0d:
                    e0:d6:80:38:a5:8a:39:6b:f8:9a:56:24:65:8c:f6:
                    3d:d8:cf:a1:56:03:8b:aa:21:b6:d7:2a:d9:36:5a:
                    7e:8c:65:42:86:1e:18:19:30:65:54:18:91:70:62:
                    cb:3b:ca:d8:70:9e:67:71:80:d6:53:23:2b:70:c2:
                    36:e3:a5:30:66:b0:68:bb:23:36:35:ad:1d:15:77:
                    81:9f:9b:0e:e7:d5:63:66:57:aa:d7:91:22:43:71:
                    d2:0c:5f:88:3b:0d:a6:27:ee:ac:c0:38:32:7b:23:
                    5f:bc:fa:93:a3:a9:ca:b6:df:83:a3:0b:51:91:9f:
                    f9:ef:f1:12:43:82:2d:9a:36:5a:45:cb:a2:87:df:
                    34:52:06:fa:06:a0:09:9e:91:f6:9a:ee:1c:ee:a0:
                    d0:b4:57:72:d1:89:70:d1:e9:c1:90:46:dd:7e:5c:
                    62:8e:da:12:f4:25:1d:8d:21:36:59:83:be:b5:94:
                    cb:88:a7:c9:41:ce:78:1b:64:af:b3:f1:5d:27:8b:
                    f1:da:fc:71:c4:5f:b0:f5:89:c4:92:14:23:c9:a4:
                    66:a9:7e:64:bc:a1:c7:8f:1e:21:88:97:38:e7:72:
                    5e:56:08:8b:c0:ab:59:07:e8:3f:37:ac:1e:d0:0f:
                    d2:88:07
                Exponent: 65537 (0x10001)
        X509v3 extensions:
            X509v3 Basic Constraints: 
                CA:FALSE
            Netscape Comment: 
                Easy-RSA Generated Certificate
            X509v3 Subject Key Identifier: 
                42:B4:0E:BE:65:A0:BA:59:1A:BC:56:C9:29:29:1F:25:CA:56:78:97
            X509v3 Authority Key Identifier: 
                keyid:12:CD:60:04:D2:A0:80:9E:70:ED:C6:99:B8:7B:2C:C6:52:FD:19:A1
                DirName:/C=US/ST=OH/L=Columbus/O=VikingVPN/OU=MyOrganizationalUnit/CN=VikingVPN CA/name=EasyRSA/emailAddress=me@myhost.mydomain
                serial:CF:35:85:EE:80:BF:2A:3E

            X509v3 Extended Key Usage: 
                TLS Web Client Authentication
            X509v3 Key Usage: 
                Digital Signature
    Signature Algorithm: md5WithRSAEncryption
         ab:45:bd:e5:ec:ea:05:4c:3f:7e:9f:e6:6b:f9:6e:b6:96:1b:
         e5:0e:24:9a:fa:54:19:3f:34:5a:a8:70:27:cd:be:84:4f:62:
         ab:77:e1:f5:f9:87:68:97:12:df:a2:40:5d:c7:ff:88:c0:44:
         82:c9:00:4e:02:8f:79:12:f4:ab:44:95:9f:32:96:db:b8:e7:
         65:93:a2:f8:4f:07:ee:44:5b:2d:ae:80:fd:70:4c:f3:89:07:
         13:79:8a:aa:98:5b:04:db:24:09:0d:32:76:ff:42:8b:2b:37:
         76:73:8f:9f:6b:b7:a9:67:8a:df:9f:22:7a:0f:85:64:3e:81:
         58:20:3a:aa:88:df:27:4b:e2:83:33:ff:7f:8c:5f:c3:97:8f:
         ee:c3:b0:10:4e:40:4f:16:3b:0a:bc:e4:f1:a0:0c:a8:42:b5:
         3f:0c:d4:c1:93:9e:38:d4:48:9f:f9:73:00:3b:83:cf:19:9a:
         d0:ce:7a:0f:72:3d:28:4c:42:f4:9a:74:d6:b8:73:7d:ce:d3:
         5d:93:0c:da:18:ff:7d:ee:d5:ba:cb:66:81:d3:92:c1:67:73:
         fa:0a:fa:3b:03:86:44:1e:13:1a:41:43:49:48:d5:f0:96:88:
         32:c8:ae:1c:c1:85:69:e1:38:51:1a:d4:66:65:be:61:f6:0b:
         8c:f4:56:2e:62:6e:ca:81:ba:3b:44:a9:4a:6e:40:f9:aa:11:
         0f:d2:7c:85:89:9c:67:57:a7:e2:c8:3c:3d:dd:39:30:88:28:
         70:5c:4f:60:ab:c5:81:78:20:bb:dc:98:2f:7e:9a:ad:f9:90:
         93:2d:1d:80:4c:0f:25:d5:fd:8e:6b:60:19:a2:8e:46:14:04:
         e3:3a:d3:83:bc:15:3c:28:f6:30:39:f0:fb:a9:27:d4:e2:a4:
         aa:ca:9e:2a:b9:96:4f:ad:a5:ef:fd:3d:ec:3d:38:32:94:45:
         72:a2:81:67:4b:c2:b3:ec:ff:32:26:27:6a:66:db:f7:71:20:
         43:5a:53:19:f3:1f:71:a9:21:96:2f:f7:e8:8c:45:2f:96:d8:
         19:2a:38:88:27:95:b5:68:11:df:9f:83:bc:7a:f7:f0:4d:0c:
         ed:be:f7:e0:77:2a:af:c8:4a:c5:88:f7:b9:42:21:9a:25:95:
         e7:19:fd:fd:fb:85:cc:31:57:45:ee:d1:9f:cd:1c:5b:54:26:
         cb:95:f8:12:1d:0f:e1:14:b8:06:b3:f2:64:bc:fe:19:31:2b:
         b3:5e:73:09:bc:50:f8:9a:f6:e4:57:8d:be:ac:fc:6d:4c:3f:
         0d:0f:8e:d1:ff:45:4e:39:2f:2e:04:b1:0c:aa:28:54:45:64:
         ce:d8:75:51:98:dd:2f:66
-----BEGIN CERTIFICATE-----
MIIGrTCCBJWgAwIBAgICE5YwDQYJKoZIhvcNAQEEBQAwgawxCzAJBgNVBAYTAlVT
MQswCQYDVQQIEwJPSDERMA8GA1UEBxMIQ29sdW1idXMxEjAQBgNVBAoTCVZpa2lu
Z1ZQTjEdMBsGA1UECxMUTXlPcmdhbml6YXRpb25hbFVuaXQxFTATBgNVBAMTDFZp
a2luZ1ZQTiBDQTEQMA4GA1UEKRMHRWFzeVJTQTEhMB8GCSqGSIb3DQEJARYSbWVA
bXlob3N0Lm15ZG9tYWluMB4XDTE1MDQyMTAzMzg1OVoXDTI1MDQxODAzMzg1OVow
HzEdMBsGA1UEAxMUQ2xpZW50MTYzMkNlcnQwZjE4NTYwggIiMA0GCSqGSIb3DQEB
AQUAA4ICDwAwggIKAoICAQCW9Gmby2DvXY5iy499cbi6FJX0cnZPAkQogCYAuxtg
mzidN6UITHA6DmhOcr1tKvgyp3xIZmgmKSOx0GXAb3/ynKBSACzJvlI7+CdIuwgB
uBknGG4MvqyBV3ZMOI4PKzWifUefdB6Y2hzUG/P6JZeXLdBMXAwCe17xwN0Yktwo
Q675QnICmWT1svBL8g3KrgRrKApNaMR+q3eaoSjWmhb4sIhLeFIKY1eX4+N3ILmz
xBbOUOVTJUIK/VBUDRK/6UiFW2isKflUxHRY0nHbuHD/qh7S+syWZlAglSJEqC1Y
ng8YlcycWyCBPjV+wjmXgp9lod8UT1i5R41OaQ4YKiwVeUM4yA9dbo+ZMSbTDeDW
gDilijlr+JpWJGWM9j3Yz6FWA4uqIbbXKtk2Wn6MZUKGHhgZMGVUGJFwYss7ythw
nmdxgNZTIytwwjbjpTBmsGi7IzY1rR0Vd4Gfmw7n1WNmV6rXkSJDcdIMX4g7DaYn
7qzAODJ7I1+8+pOjqcq234OjC1GRn/nv8RJDgi2aNlpFy6KH3zRSBvoGoAmekfaa
7hzuoNC0V3LRiXDR6cGQRt1+XGKO2hL0JR2NITZZg761lMuIp8lBzngbZK+z8V0n
i/Ha/HHEX7D1icSSFCPJpGapfmS8ocePHiGIlzjncl5WCIvAq1kH6D83rB7QD9KI
BwIDAQABo4IBYzCCAV8wCQYDVR0TBAIwADAtBglghkgBhvhCAQ0EIBYeRWFzeS1S
U0EgR2VuZXJhdGVkIENlcnRpZmljYXRlMB0GA1UdDgQWBBRCtA6+ZaC6WRq8Vskp
KR8lylZ4lzCB4QYDVR0jBIHZMIHWgBQSzWAE0qCAnnDtxpm4eyzGUv0ZoaGBsqSB
rzCBrDELMAkGA1UEBhMCVVMxCzAJBgNVBAgTAk9IMREwDwYDVQQHEwhDb2x1bWJ1
czESMBAGA1UEChMJVmlraW5nVlBOMR0wGwYDVQQLExRNeU9yZ2FuaXphdGlvbmFs
VW5pdDEVMBMGA1UEAxMMVmlraW5nVlBOIENBMRAwDgYDVQQpEwdFYXN5UlNBMSEw
HwYJKoZIhvcNAQkBFhJtZUBteWhvc3QubXlkb21haW6CCQDPNYXugL8qPjATBgNV
HSUEDDAKBggrBgEFBQcDAjALBgNVHQ8EBAMCB4AwDQYJKoZIhvcNAQEEBQADggIB
AKtFveXs6gVMP36f5mv5braWG+UOJJr6VBk/NFqocCfNvoRPYqt34fX5h2iXEt+i
QF3H/4jARILJAE4Cj3kS9KtElZ8yltu452WTovhPB+5EWy2ugP1wTPOJBxN5iqqY
WwTbJAkNMnb/QosrN3Zzj59rt6lnit+fInoPhWQ+gVggOqqI3ydL4oMz/3+MX8OX
j+7DsBBOQE8WOwq85PGgDKhCtT8M1MGTnjjUSJ/5cwA7g88ZmtDOeg9yPShMQvSa
dNa4c33O012TDNoY/33u1brLZoHTksFnc/oK+jsDhkQeExpBQ0lI1fCWiDLIrhzB
hWnhOFEa1GZlvmH2C4z0Vi5ibsqBujtEqUpuQPmqEQ/SfIWJnGdXp+LIPD3dOTCI
KHBcT2CrxYF4ILvcmC9+mq35kJMtHYBMDyXV/Y5rYBmijkYUBOM604O8FTwo9jA5
8PupJ9TipKrKniq5lk+tpe/9Pew9ODKURXKigWdLwrPs/zImJ2pm2/dxIENaUxnz
H3GpIZYv9+iMRS+W2BkqOIgnlbVoEd+fg7x69/BNDO2+9+B3Kq/ISsWI97lCIZol
lecZ/f37hcwxV0Xu0Z/NHFtUJsuV+BIdD+EUuAaz8mS8/hkxK7Necwm8UPia9uRX
jb6s/G1MPw0PjtH/RU45Ly4EsQyqKFRFZM7YdVGY3S9m
-----END CERTIFICATE-----
