Certificate:
    Data:
        Version: 3 (0x2)
        Serial Number: 5019 (0x139b)
    Signature Algorithm: md5WithRSAEncryption
        Issuer: C=US, ST=OH, L=Columbus, O=VikingVPN, OU=MyOrganizationalUnit, CN=VikingVPN CA/name=EasyRSA/emailAddress=me@myhost.mydomain
        Validity
            Not Before: Apr 21 11:34:40 2015 GMT
            Not After : Apr 18 11:34:40 2025 GMT
        Subject: CN=Client1620Cert6fc17f
        Subject Public Key Info:
            Public Key Algorithm: rsaEncryption
                Public-Key: (4096 bit)
                Modulus:
                    00:a0:6b:a3:cc:59:cd:b2:da:4c:01:10:7f:13:8f:
                    59:05:4b:21:99:84:6f:81:1b:46:e0:93:8c:53:85:
                    5c:7c:03:a0:60:d0:da:b7:f9:64:dd:a8:27:46:81:
                    78:da:89:e4:f2:05:de:d5:ea:d4:3c:08:db:e7:b4:
                    f1:e6:7e:0f:2f:b7:ef:94:4f:08:c9:83:76:29:3c:
                    c9:e5:0c:23:b4:09:7f:7f:05:0b:b7:7c:ea:58:e6:
                    c1:e0:05:c4:c9:97:0b:e1:bf:d8:bb:87:84:5c:ee:
                    ea:27:be:04:dc:57:e2:63:ef:82:0e:ff:1e:4d:16:
                    57:18:0d:4d:97:73:22:68:9f:e6:8a:42:11:f5:9d:
                    45:f9:62:74:29:15:4f:2d:81:03:5c:5c:3e:fd:d3:
                    57:79:af:bb:89:5c:57:7d:ee:b1:f6:df:31:75:6d:
                    e2:06:52:58:bc:6d:73:26:27:ff:4b:26:56:c9:de:
                    69:4f:b6:7a:7d:34:4e:10:06:ea:3c:e2:24:8e:9f:
                    c7:56:ee:d8:b2:25:e7:b4:4a:a1:47:1c:c2:5a:3d:
                    a3:5d:13:7b:cd:69:19:df:76:a0:09:b3:d1:0e:37:
                    06:d9:44:11:8f:9f:4d:9a:04:73:06:27:a5:f7:73:
                    0f:20:a4:cd:a1:50:cd:b0:d9:66:f9:16:41:6b:6f:
                    90:40:6d:be:ce:c3:a0:37:20:71:92:42:43:62:f7:
                    94:ec:47:96:fc:7d:7c:74:e3:3b:00:fe:70:e8:83:
                    36:5d:9c:a8:51:b5:93:7d:0b:87:f9:dc:ee:07:0f:
                    a3:6f:80:40:0d:9c:50:6e:ca:93:70:cb:3a:5a:e4:
                    08:f5:69:56:78:b6:e2:49:e8:1e:64:c4:9f:0f:f8:
                    cc:f1:88:c6:f3:b6:58:2b:65:49:67:9c:fd:0e:af:
                    c6:9b:e5:ee:f1:d3:e3:7e:75:57:a0:e0:0e:c0:cf:
                    3b:37:7a:c1:2e:f6:a4:df:d7:02:a4:ea:44:05:e6:
                    86:8e:74:d2:4d:a5:5d:92:69:16:2a:ba:63:f1:72:
                    74:be:53:ab:fa:06:06:11:18:d0:07:e3:41:19:02:
                    bc:ab:df:d7:23:6f:d2:54:a3:81:61:b3:fa:7e:f4:
                    e3:e9:c0:e0:e0:c3:b8:bd:2e:62:fe:73:11:bd:c4:
                    5f:a1:d6:4b:87:75:93:3f:b8:4c:62:78:b4:8c:15:
                    59:03:81:76:f7:52:ac:ea:0d:13:93:4e:9d:76:e6:
                    ab:fb:b5:91:c7:ea:78:e9:33:72:70:df:5f:47:08:
                    9a:e6:8a:6a:89:5a:8c:0d:51:3c:bc:c3:57:09:20:
                    32:51:6a:3e:be:da:30:e7:28:14:5a:c8:fa:89:ee:
                    55:aa:4b
                Exponent: 65537 (0x10001)
        X509v3 extensions:
            X509v3 Basic Constraints: 
                CA:FALSE
            Netscape Comment: 
                Easy-RSA Generated Certificate
            X509v3 Subject Key Identifier: 
                B8:FD:66:36:C1:82:31:24:B4:01:F0:69:9B:30:31:FC:21:81:41:8C
            X509v3 Authority Key Identifier: 
                keyid:12:CD:60:04:D2:A0:80:9E:70:ED:C6:99:B8:7B:2C:C6:52:FD:19:A1
                DirName:/C=US/ST=OH/L=Columbus/O=VikingVPN/OU=MyOrganizationalUnit/CN=VikingVPN CA/name=EasyRSA/emailAddress=me@myhost.mydomain
                serial:CF:35:85:EE:80:BF:2A:3E

            X509v3 Extended Key Usage: 
                TLS Web Client Authentication
            X509v3 Key Usage: 
                Digital Signature
    Signature Algorithm: md5WithRSAEncryption
         0d:2e:90:a7:9d:b4:82:eb:05:c8:2c:64:51:d8:b0:86:96:20:
         61:04:30:3c:94:ae:ed:ee:79:df:b2:43:d0:cb:72:c6:75:24:
         15:18:c9:71:f6:ea:68:b4:35:43:b4:38:26:e5:05:9c:64:2f:
         95:a1:f9:81:31:50:19:9b:2f:d7:ee:a2:cd:26:da:08:0d:57:
         1a:b7:bb:58:1c:34:cb:3e:e2:0d:ae:da:7c:2d:b5:17:cc:54:
         4c:f2:82:ce:a6:ff:35:d9:44:8b:e9:5e:a4:fe:ec:da:b3:18:
         b8:99:53:09:f9:d5:d3:da:3d:ac:f7:f5:cd:74:d7:1b:5d:a4:
         bd:63:95:bb:1e:ec:b3:c0:41:e4:33:11:0d:ec:d0:81:a3:6d:
         7e:19:42:9c:a0:38:d9:fa:d7:f1:35:52:89:86:44:7a:02:99:
         fd:54:d1:a0:39:aa:a8:81:b6:b4:67:39:71:db:9b:2e:4b:65:
         c8:d2:f8:ea:9f:9b:1a:3d:62:32:b4:bb:8e:b2:58:20:07:45:
         7c:69:94:03:72:4c:df:1c:fc:bc:5b:70:23:58:2b:e9:5e:58:
         e4:83:c2:aa:9a:d7:77:e4:e3:1d:da:a6:d4:15:ef:ad:5f:f2:
         99:30:a2:6f:a2:ab:03:73:cc:44:a9:d7:3e:23:ad:3b:84:33:
         e8:45:87:1c:b9:1e:21:34:23:66:6c:7b:b7:31:c0:e5:a3:f3:
         2c:49:ad:62:e4:2f:a8:30:cf:b3:56:2c:58:3d:83:25:42:89:
         56:0b:05:fe:06:96:95:f9:38:5c:9d:14:b5:4a:c3:19:8b:59:
         3c:de:24:a9:83:e2:dd:8f:85:62:75:a7:e0:4d:59:6e:2d:17:
         5a:d9:a4:d1:0d:b6:e9:83:5c:e3:8d:f4:a6:af:5b:b8:8b:33:
         28:2d:c9:22:6a:7e:6f:1d:03:6a:b5:0a:b1:56:05:f2:13:18:
         76:5c:49:e8:93:51:b9:22:ea:16:9c:7b:b1:86:39:e8:a6:5f:
         64:dd:24:a3:7e:d5:31:40:8b:f3:73:60:49:6c:cf:03:27:a1:
         d3:7f:c2:f7:82:8a:9f:a0:30:83:82:33:10:c8:3d:19:53:88:
         46:37:ca:5a:27:d9:a0:4e:4d:2e:e4:9e:61:2a:65:8d:4f:a4:
         30:5a:46:00:11:5a:b2:99:c4:83:65:75:39:41:d4:85:eb:df:
         e8:37:3e:e7:90:c2:f6:ed:9c:6d:89:f6:a1:ca:57:2e:16:4c:
         a4:c4:aa:dd:0a:d9:33:92:79:5d:19:8c:57:19:b1:38:a6:e2:
         22:cd:38:02:00:c7:92:6c:1f:35:dd:5a:15:9e:4d:01:cb:6f:
         f4:79:9d:38:59:04:39:c2
-----BEGIN CERTIFICATE-----
MIIGrTCCBJWgAwIBAgICE5swDQYJKoZIhvcNAQEEBQAwgawxCzAJBgNVBAYTAlVT
MQswCQYDVQQIEwJPSDERMA8GA1UEBxMIQ29sdW1idXMxEjAQBgNVBAoTCVZpa2lu
Z1ZQTjEdMBsGA1UECxMUTXlPcmdhbml6YXRpb25hbFVuaXQxFTATBgNVBAMTDFZp
a2luZ1ZQTiBDQTEQMA4GA1UEKRMHRWFzeVJTQTEhMB8GCSqGSIb3DQEJARYSbWVA
bXlob3N0Lm15ZG9tYWluMB4XDTE1MDQyMTExMzQ0MFoXDTI1MDQxODExMzQ0MFow
HzEdMBsGA1UEAxMUQ2xpZW50MTYyMENlcnQ2ZmMxN2YwggIiMA0GCSqGSIb3DQEB
AQUAA4ICDwAwggIKAoICAQCga6PMWc2y2kwBEH8Tj1kFSyGZhG+BG0bgk4xThVx8
A6Bg0Nq3+WTdqCdGgXjaieTyBd7V6tQ8CNvntPHmfg8vt++UTwjJg3YpPMnlDCO0
CX9/BQu3fOpY5sHgBcTJlwvhv9i7h4Rc7uonvgTcV+Jj74IO/x5NFlcYDU2XcyJo
n+aKQhH1nUX5YnQpFU8tgQNcXD7901d5r7uJXFd97rH23zF1beIGUli8bXMmJ/9L
JlbJ3mlPtnp9NE4QBuo84iSOn8dW7tiyJee0SqFHHMJaPaNdE3vNaRnfdqAJs9EO
NwbZRBGPn02aBHMGJ6X3cw8gpM2hUM2w2Wb5FkFrb5BAbb7Ow6A3IHGSQkNi95Ts
R5b8fXx04zsA/nDogzZdnKhRtZN9C4f53O4HD6NvgEANnFBuypNwyzpa5Aj1aVZ4
tuJJ6B5kxJ8P+MzxiMbztlgrZUlnnP0Or8ab5e7x0+N+dVeg4A7Azzs3esEu9qTf
1wKk6kQF5oaOdNJNpV2SaRYqumPxcnS+U6v6BgYRGNAH40EZAryr39cjb9JUo4Fh
s/p+9OPpwODgw7i9LmL+cxG9xF+h1kuHdZM/uExieLSMFVkDgXb3UqzqDROTTp12
5qv7tZHH6njpM3Jw319HCJrmimqJWowNUTy8w1cJIDJRaj6+2jDnKBRayPqJ7lWq
SwIDAQABo4IBYzCCAV8wCQYDVR0TBAIwADAtBglghkgBhvhCAQ0EIBYeRWFzeS1S
U0EgR2VuZXJhdGVkIENlcnRpZmljYXRlMB0GA1UdDgQWBBS4/WY2wYIxJLQB8Gmb
MDH8IYFBjDCB4QYDVR0jBIHZMIHWgBQSzWAE0qCAnnDtxpm4eyzGUv0ZoaGBsqSB
rzCBrDELMAkGA1UEBhMCVVMxCzAJBgNVBAgTAk9IMREwDwYDVQQHEwhDb2x1bWJ1
czESMBAGA1UEChMJVmlraW5nVlBOMR0wGwYDVQQLExRNeU9yZ2FuaXphdGlvbmFs
VW5pdDEVMBMGA1UEAxMMVmlraW5nVlBOIENBMRAwDgYDVQQpEwdFYXN5UlNBMSEw
HwYJKoZIhvcNAQkBFhJtZUBteWhvc3QubXlkb21haW6CCQDPNYXugL8qPjATBgNV
HSUEDDAKBggrBgEFBQcDAjALBgNVHQ8EBAMCB4AwDQYJKoZIhvcNAQEEBQADggIB
AA0ukKedtILrBcgsZFHYsIaWIGEEMDyUru3ued+yQ9DLcsZ1JBUYyXH26mi0NUO0
OCblBZxkL5Wh+YExUBmbL9fuos0m2ggNVxq3u1gcNMs+4g2u2nwttRfMVEzygs6m
/zXZRIvpXqT+7NqzGLiZUwn51dPaPaz39c101xtdpL1jlbse7LPAQeQzEQ3s0IGj
bX4ZQpygONn61/E1UomGRHoCmf1U0aA5qqiBtrRnOXHbmy5LZcjS+Oqfmxo9YjK0
u46yWCAHRXxplANyTN8c/LxbcCNYK+leWOSDwqqa13fk4x3aptQV761f8pkwom+i
qwNzzESp1z4jrTuEM+hFhxy5HiE0I2Zse7cxwOWj8yxJrWLkL6gwz7NWLFg9gyVC
iVYLBf4GlpX5OFydFLVKwxmLWTzeJKmD4t2PhWJ1p+BNWW4tF1rZpNENtumDXOON
9KavW7iLMygtySJqfm8dA2q1CrFWBfITGHZcSeiTUbki6hace7GGOeimX2TdJKN+
1TFAi/NzYElszwMnodN/wveCip+gMIOCMxDIPRlTiEY3ylon2aBOTS7knmEqZY1P
pDBaRgARWrKZxINldTlB1IXr3+g3PueQwvbtnG2J9qHKVy4WTKTEqt0K2TOSeV0Z
jFcZsTim4iLNOAIAx5JsHzXdWhWeTQHLb/R5nThZBDnC
-----END CERTIFICATE-----
