Certificate:
    Data:
        Version: 3 (0x2)
        Serial Number: 5047 (0x13b7)
    Signature Algorithm: md5WithRSAEncryption
        Issuer: C=US, ST=OH, L=Columbus, O=VikingVPN, OU=MyOrganizationalUnit, CN=VikingVPN CA/name=EasyRSA/emailAddress=me@myhost.mydomain
        Validity
            Not Before: Apr 21 12:21:54 2015 GMT
            Not After : Apr 18 12:21:54 2025 GMT
        Subject: CN=Client1620Cert71e97a
        Subject Public Key Info:
            Public Key Algorithm: rsaEncryption
                Public-Key: (4096 bit)
                Modulus:
                    00:c7:b6:1c:3d:47:d8:cd:30:ca:22:e9:ec:43:e5:
                    5b:90:85:b2:e2:a3:ed:39:f6:c3:12:a0:0e:4b:d2:
                    4f:d1:bd:92:c5:9d:c4:99:0d:23:7d:33:03:f5:59:
                    09:b6:09:36:94:73:82:8e:02:50:1b:d1:f9:cf:47:
                    c2:02:42:d7:5d:2d:ba:39:6f:e5:ff:dc:a3:05:56:
                    1e:d4:32:52:97:70:ca:fc:df:f1:33:8f:86:6f:3b:
                    e2:72:9d:4b:bb:99:f0:fc:48:a3:74:60:9a:0f:14:
                    3e:30:2f:c3:58:14:99:73:97:f9:94:38:df:51:75:
                    1b:b7:d3:10:f0:72:f3:a8:9a:40:0c:30:15:da:d5:
                    52:20:9a:7b:55:63:9a:80:cc:78:c2:70:1d:ab:e8:
                    14:f8:b8:a1:3e:ec:10:6d:d6:af:bf:45:8c:34:16:
                    61:4d:eb:41:f6:ac:7e:a9:4e:03:32:e9:7b:9b:28:
                    79:a9:74:f9:59:c0:f7:54:36:31:9d:a3:e1:8c:6a:
                    6d:08:53:92:89:31:0c:b3:78:8d:63:db:48:44:c0:
                    fa:cc:d9:48:7e:4e:03:7d:cd:e0:78:6a:47:fd:38:
                    d6:60:b0:8a:69:b3:2d:12:ba:05:ac:3e:64:9c:1f:
                    63:2b:81:0f:29:8e:94:07:3e:12:00:35:a1:f4:b1:
                    c5:10:be:26:49:ff:31:0f:6a:c1:1a:eb:ce:41:da:
                    0d:de:58:fb:14:f9:f2:cd:cf:8d:55:83:be:2d:19:
                    10:16:f2:52:41:65:95:0f:6e:21:98:7d:ee:85:1e:
                    87:dd:ae:5a:80:01:53:bd:59:ea:b4:5b:da:c6:61:
                    93:4f:00:55:2b:c6:17:11:08:4a:e9:dc:ca:a4:7a:
                    82:cd:46:4d:43:f6:37:69:53:51:4b:75:07:7c:11:
                    10:42:42:57:3c:6c:7e:52:b9:6c:a0:dc:9b:fa:27:
                    06:67:ce:38:1c:ba:f2:17:6b:c6:60:32:02:ba:b4:
                    41:28:7e:e8:aa:42:12:2a:ed:36:b3:d5:8c:cf:12:
                    80:3f:6b:d1:ba:ac:9c:44:16:58:f0:be:36:bc:98:
                    5f:98:af:a9:48:dd:8c:2e:79:fa:7e:54:19:04:d8:
                    a1:dd:c6:7d:f8:27:16:6a:1a:90:bb:26:94:e2:00:
                    94:b9:0c:b3:c6:b6:e5:0a:32:f2:7f:f7:55:30:e6:
                    b5:a0:df:b2:7c:82:3e:cd:f5:19:79:83:08:39:f7:
                    ab:13:65:90:2b:21:6e:cb:0a:5b:bf:a2:72:58:59:
                    54:ec:95:7e:92:64:04:b6:1d:f2:cf:8e:d2:8b:33:
                    9a:73:e2:0f:56:b8:67:94:c5:f6:4b:d1:11:53:cf:
                    db:73:d9
                Exponent: 65537 (0x10001)
        X509v3 extensions:
            X509v3 Basic Constraints: 
                CA:FALSE
            Netscape Comment: 
                Easy-RSA Generated Certificate
            X509v3 Subject Key Identifier: 
                00:BF:D2:CC:AB:49:07:E8:F9:77:56:AD:7F:8F:F9:A5:7E:0D:3F:A8
            X509v3 Authority Key Identifier: 
                keyid:12:CD:60:04:D2:A0:80:9E:70:ED:C6:99:B8:7B:2C:C6:52:FD:19:A1
                DirName:/C=US/ST=OH/L=Columbus/O=VikingVPN/OU=MyOrganizationalUnit/CN=VikingVPN CA/name=EasyRSA/emailAddress=me@myhost.mydomain
                serial:CF:35:85:EE:80:BF:2A:3E

            X509v3 Extended Key Usage: 
                TLS Web Client Authentication
            X509v3 Key Usage: 
                Digital Signature
    Signature Algorithm: md5WithRSAEncryption
         b7:60:d8:f3:cf:32:08:ce:f0:af:0f:d3:db:b6:41:30:17:51:
         e4:0b:fa:41:57:d1:28:b8:00:0b:d9:1b:60:4a:0b:5a:89:dd:
         94:13:c7:a0:eb:2e:68:c5:08:86:86:cf:80:48:04:70:27:9c:
         dd:fc:9c:9f:b8:f2:03:f2:a7:d5:e6:3f:67:9a:9b:6c:2c:76:
         72:04:63:92:67:7f:d2:89:13:bd:2d:d3:f7:99:c9:14:3d:d2:
         dd:b0:cf:2b:89:36:20:76:5c:07:1b:80:97:11:b6:9f:6d:c2:
         45:b4:9e:24:0d:f6:37:d0:3c:92:75:f6:1e:53:b4:4e:a6:45:
         47:76:aa:c3:c3:f2:d2:bc:06:e3:5e:b2:83:4c:97:d1:af:01:
         b7:b2:da:06:fb:5e:ed:dd:1b:b3:9e:70:85:8f:b4:50:11:9c:
         37:5d:b3:e0:09:fb:0c:1b:5a:44:07:fe:b6:aa:a3:da:62:9b:
         fc:3f:cf:b4:7b:96:49:27:0f:36:a3:32:fd:87:f0:25:2b:a3:
         d2:eb:4f:a0:58:77:9d:1d:64:cf:f1:93:59:f1:bf:a2:72:1e:
         0e:e3:5a:ac:b8:71:81:c9:e1:c1:5b:c8:a7:82:27:aa:eb:21:
         93:4f:41:cd:13:7e:54:e5:e5:0c:10:5f:76:85:8f:62:30:34:
         c2:c5:a1:84:e5:e0:51:09:9b:27:db:6f:67:74:03:7d:a9:7f:
         02:9b:0a:7c:76:25:a8:f2:32:ba:62:a9:c5:1c:78:59:bf:5f:
         8c:e0:79:fb:4b:c9:60:63:47:34:60:d9:db:74:96:39:fc:df:
         bb:2c:1f:b7:61:fb:cc:81:f8:63:f1:3f:c0:a8:a7:7f:ca:10:
         2b:08:4f:f3:19:a3:db:3f:dd:fe:41:32:87:e6:41:9d:2e:b5:
         f3:08:55:ab:53:60:c9:01:3a:52:71:0b:d2:51:74:a9:de:43:
         99:6a:66:f4:c3:96:a0:de:7b:3f:25:e2:31:24:cc:16:4b:57:
         4d:97:ca:30:e1:36:6e:69:ce:2c:2c:4e:49:2e:96:be:e3:a0:
         d3:24:db:5b:86:9f:39:bf:71:36:57:d3:fa:d4:84:a4:a0:08:
         ba:11:db:54:39:78:b3:24:8e:ed:9f:e9:22:dc:b7:af:2f:78:
         0f:eb:d0:92:63:19:3e:dd:20:58:e4:14:9b:12:fe:c4:eb:96:
         6d:85:5f:13:17:fa:be:00:37:4a:52:13:53:41:c1:b3:45:82:
         ec:9e:80:23:b9:41:e5:26:ed:5c:47:a2:09:cd:fd:89:78:50:
         54:fa:af:6f:09:e3:57:e1:41:16:1d:17:6d:af:bf:3d:5a:29:
         86:9b:8f:e1:e2:38:1e:b0
-----BEGIN CERTIFICATE-----
MIIGrTCCBJWgAwIBAgICE7cwDQYJKoZIhvcNAQEEBQAwgawxCzAJBgNVBAYTAlVT
MQswCQYDVQQIEwJPSDERMA8GA1UEBxMIQ29sdW1idXMxEjAQBgNVBAoTCVZpa2lu
Z1ZQTjEdMBsGA1UECxMUTXlPcmdhbml6YXRpb25hbFVuaXQxFTATBgNVBAMTDFZp
a2luZ1ZQTiBDQTEQMA4GA1UEKRMHRWFzeVJTQTEhMB8GCSqGSIb3DQEJARYSbWVA
bXlob3N0Lm15ZG9tYWluMB4XDTE1MDQyMTEyMjE1NFoXDTI1MDQxODEyMjE1NFow
HzEdMBsGA1UEAxMUQ2xpZW50MTYyMENlcnQ3MWU5N2EwggIiMA0GCSqGSIb3DQEB
AQUAA4ICDwAwggIKAoICAQDHthw9R9jNMMoi6exD5VuQhbLio+059sMSoA5L0k/R
vZLFncSZDSN9MwP1WQm2CTaUc4KOAlAb0fnPR8ICQtddLbo5b+X/3KMFVh7UMlKX
cMr83/Ezj4ZvO+JynUu7mfD8SKN0YJoPFD4wL8NYFJlzl/mUON9RdRu30xDwcvOo
mkAMMBXa1VIgmntVY5qAzHjCcB2r6BT4uKE+7BBt1q+/RYw0FmFN60H2rH6pTgMy
6XubKHmpdPlZwPdUNjGdo+GMam0IU5KJMQyzeI1j20hEwPrM2Uh+TgN9zeB4akf9
ONZgsIppsy0SugWsPmScH2MrgQ8pjpQHPhIANaH0scUQviZJ/zEPasEa685B2g3e
WPsU+fLNz41Vg74tGRAW8lJBZZUPbiGYfe6FHofdrlqAAVO9Weq0W9rGYZNPAFUr
xhcRCErp3MqkeoLNRk1D9jdpU1FLdQd8ERBCQlc8bH5SuWyg3Jv6JwZnzjgcuvIX
a8ZgMgK6tEEofuiqQhIq7Taz1YzPEoA/a9G6rJxEFljwvja8mF+Yr6lI3Ywuefp+
VBkE2KHdxn34JxZqGpC7JpTiAJS5DLPGtuUKMvJ/91Uw5rWg37J8gj7N9Rl5gwg5
96sTZZArIW7LClu/onJYWVTslX6SZAS2HfLPjtKLM5pz4g9WuGeUxfZL0RFTz9tz
2QIDAQABo4IBYzCCAV8wCQYDVR0TBAIwADAtBglghkgBhvhCAQ0EIBYeRWFzeS1S
U0EgR2VuZXJhdGVkIENlcnRpZmljYXRlMB0GA1UdDgQWBBQAv9LMq0kH6Pl3Vq1/
j/mlfg0/qDCB4QYDVR0jBIHZMIHWgBQSzWAE0qCAnnDtxpm4eyzGUv0ZoaGBsqSB
rzCBrDELMAkGA1UEBhMCVVMxCzAJBgNVBAgTAk9IMREwDwYDVQQHEwhDb2x1bWJ1
czESMBAGA1UEChMJVmlraW5nVlBOMR0wGwYDVQQLExRNeU9yZ2FuaXphdGlvbmFs
VW5pdDEVMBMGA1UEAxMMVmlraW5nVlBOIENBMRAwDgYDVQQpEwdFYXN5UlNBMSEw
HwYJKoZIhvcNAQkBFhJtZUBteWhvc3QubXlkb21haW6CCQDPNYXugL8qPjATBgNV
HSUEDDAKBggrBgEFBQcDAjALBgNVHQ8EBAMCB4AwDQYJKoZIhvcNAQEEBQADggIB
ALdg2PPPMgjO8K8P09u2QTAXUeQL+kFX0Si4AAvZG2BKC1qJ3ZQTx6DrLmjFCIaG
z4BIBHAnnN38nJ+48gPyp9XmP2eam2wsdnIEY5Jnf9KJE70t0/eZyRQ90t2wzyuJ
NiB2XAcbgJcRtp9twkW0niQN9jfQPJJ19h5TtE6mRUd2qsPD8tK8BuNesoNMl9Gv
Abey2gb7Xu3dG7OecIWPtFARnDdds+AJ+wwbWkQH/raqo9pim/w/z7R7lkknDzaj
Mv2H8CUro9LrT6BYd50dZM/xk1nxv6JyHg7jWqy4cYHJ4cFbyKeCJ6rrIZNPQc0T
flTl5QwQX3aFj2IwNMLFoYTl4FEJmyfbb2d0A32pfwKbCnx2JajyMrpiqcUceFm/
X4zgeftLyWBjRzRg2dt0ljn837ssH7dh+8yB+GPxP8Cop3/KECsIT/MZo9s/3f5B
MofmQZ0utfMIVatTYMkBOlJxC9JRdKneQ5lqZvTDlqDeez8l4jEkzBZLV02XyjDh
Nm5pziwsTkkulr7joNMk21uGnzm/cTZX0/rUhKSgCLoR21Q5eLMkju2f6SLct68v
eA/r0JJjGT7dIFjkFJsS/sTrlm2FXxMX+r4AN0pSE1NBwbNFguyegCO5QeUm7VxH
ognN/Yl4UFT6r28J41fhQRYdF22vvz1aKYabj+HiOB6w
-----END CERTIFICATE-----
