Certificate:
    Data:
        Version: 3 (0x2)
        Serial Number: 5048 (0x13b8)
    Signature Algorithm: md5WithRSAEncryption
        Issuer: C=US, ST=OH, L=Columbus, O=VikingVPN, OU=MyOrganizationalUnit, CN=VikingVPN CA/name=EasyRSA/emailAddress=me@myhost.mydomain
        Validity
            Not Before: Apr 21 12:50:31 2015 GMT
            Not After : Apr 18 12:50:31 2025 GMT
        Subject: CN=Client1620Cert8690d3
        Subject Public Key Info:
            Public Key Algorithm: rsaEncryption
                Public-Key: (4096 bit)
                Modulus:
                    00:a2:50:c7:42:a9:47:7f:1d:fd:1a:6a:cc:3e:09:
                    b6:69:39:2d:3a:43:4a:7d:d7:35:4a:ad:df:9c:17:
                    61:8b:32:bd:75:c4:20:b9:a8:ab:12:7a:2b:67:e5:
                    cf:d7:dc:4a:fa:88:3e:90:a0:ed:cc:26:db:2b:0c:
                    43:c3:ec:5c:19:b4:66:b9:60:a3:e6:1c:ed:54:22:
                    2f:2d:7a:1e:2c:f4:bf:e5:21:79:6b:23:85:1f:78:
                    54:0b:be:73:ee:7a:0c:bd:6d:7e:c7:ab:9b:ed:b2:
                    d6:fc:e8:ab:57:5b:90:40:01:96:aa:bf:57:7a:ae:
                    fa:0e:39:88:c7:e4:a6:d0:72:b1:8e:b0:16:10:7c:
                    5e:45:3a:7b:56:b7:b5:0c:f9:e1:60:04:00:f3:2a:
                    72:05:71:2f:3c:e4:47:79:73:25:11:df:58:8d:1e:
                    4a:5e:3b:80:0c:8b:41:80:60:aa:6d:45:e4:24:13:
                    4c:19:b9:ba:44:04:31:52:77:48:f6:71:01:b9:d3:
                    12:a4:9e:70:05:57:b5:c6:92:5b:59:ea:b0:35:44:
                    c2:d0:d0:e9:4c:86:b0:2d:ce:50:0f:f1:13:0d:30:
                    c0:b9:73:b5:cc:98:08:cf:96:95:07:60:ee:e1:67:
                    c1:ce:ee:d0:e9:f1:7a:56:50:7c:2d:d7:a4:f7:66:
                    c4:56:df:ce:43:51:e2:8d:33:b3:27:78:cd:0c:6b:
                    fd:2b:ce:3f:98:a9:01:ec:61:c9:19:75:79:5a:a9:
                    b9:6e:6f:c2:e8:d0:e4:cd:f9:98:8b:f2:ba:17:d8:
                    78:e9:8c:4d:9d:d9:5d:45:75:2f:71:47:a9:09:42:
                    6f:a5:22:bc:03:ae:b8:b4:db:a7:ac:09:f1:a8:1f:
                    9e:7e:ea:35:e9:82:8f:79:4e:55:66:77:f8:bc:67:
                    df:cf:c1:d1:0c:ff:ee:a7:71:10:e9:40:ec:0e:f6:
                    66:da:21:4b:92:ec:e1:26:68:98:ea:b8:08:51:25:
                    e1:64:a8:69:8e:02:6e:88:3c:2e:a9:dd:24:de:c7:
                    55:7e:f1:9c:15:a9:19:a4:0e:2b:49:ba:fb:08:a4:
                    cc:65:1b:f1:95:b6:1b:70:a4:24:7b:02:61:b8:4a:
                    ce:e1:a4:6c:89:ac:e7:30:68:86:f6:6c:79:44:5c:
                    21:24:d6:60:d2:33:8f:ac:d2:56:cb:84:da:36:f6:
                    ae:f8:46:ac:da:1e:e4:f8:41:b3:88:af:87:33:70:
                    9c:33:e7:ef:02:0f:57:5c:30:98:14:c9:06:7e:55:
                    21:4d:5b:d5:94:fe:ab:ee:b9:64:fd:8b:63:e7:4a:
                    bb:c1:10:9d:f3:dc:29:3e:55:db:ef:3e:bb:27:c9:
                    ec:a9:65
                Exponent: 65537 (0x10001)
        X509v3 extensions:
            X509v3 Basic Constraints: 
                CA:FALSE
            Netscape Comment: 
                Easy-RSA Generated Certificate
            X509v3 Subject Key Identifier: 
                9D:3C:0A:9B:57:77:A8:8C:B1:59:E8:EE:93:0D:6B:AE:F7:0D:F4:8A
            X509v3 Authority Key Identifier: 
                keyid:12:CD:60:04:D2:A0:80:9E:70:ED:C6:99:B8:7B:2C:C6:52:FD:19:A1
                DirName:/C=US/ST=OH/L=Columbus/O=VikingVPN/OU=MyOrganizationalUnit/CN=VikingVPN CA/name=EasyRSA/emailAddress=me@myhost.mydomain
                serial:CF:35:85:EE:80:BF:2A:3E

            X509v3 Extended Key Usage: 
                TLS Web Client Authentication
            X509v3 Key Usage: 
                Digital Signature
    Signature Algorithm: md5WithRSAEncryption
         c9:fe:b2:b6:b0:ed:4d:87:b1:cf:63:58:f9:3b:58:0a:fc:7d:
         da:de:f8:04:97:f8:96:63:aa:09:5a:88:c9:fa:b3:d9:f5:29:
         fc:58:f6:bb:82:11:48:1e:39:54:66:7b:11:dd:5b:f0:81:4d:
         27:aa:3c:ba:9f:4b:18:cb:e6:8c:a7:c7:b9:c3:07:7a:d7:2f:
         d5:50:bf:0e:72:8b:0b:ef:e6:82:0c:cb:5f:8f:17:c7:85:46:
         d0:a8:6e:d6:4f:2c:6f:47:3c:77:c1:a6:87:0a:5c:bd:c3:d6:
         d2:d0:af:e6:d5:5f:96:dc:fe:86:74:a4:f4:e2:f2:b7:1b:b9:
         e0:04:c8:33:24:95:5b:d5:27:26:c9:52:38:59:6a:8c:2c:66:
         6c:2c:5c:6f:9a:b8:c5:1a:64:90:87:f1:51:36:23:d2:d0:06:
         c7:0d:9c:b2:1a:a9:ca:fe:42:7d:c3:58:ec:af:e5:2c:b0:1c:
         a0:6b:37:d1:7a:8c:5e:76:d1:9d:3e:66:38:04:57:14:07:2a:
         43:9f:2a:db:6b:1d:81:f7:c1:2a:32:07:48:e3:20:8e:a8:ee:
         69:b5:99:37:05:4e:cc:ab:d8:23:a2:e6:75:f7:d0:a9:d0:49:
         ec:1c:48:a5:74:61:80:8c:5e:d7:9a:42:3c:9b:d2:ba:ab:01:
         bf:9f:84:65:71:92:d1:4a:da:78:7e:0b:ce:01:d6:a2:2e:16:
         98:03:72:8f:ee:1d:39:95:39:e4:5e:4a:16:b1:32:eb:e0:0a:
         20:a6:44:6a:ff:62:74:78:d4:bf:df:44:70:34:16:ea:05:9b:
         44:3e:1b:c5:eb:4a:46:58:58:10:0c:c1:38:a5:71:71:5d:06:
         af:34:91:f8:c9:42:58:0d:dc:e5:d2:8e:d5:47:bd:24:32:52:
         99:ed:9d:7d:94:ae:04:a1:4f:91:03:68:63:1f:80:c3:73:71:
         fc:6d:1f:a9:a8:21:09:4b:b1:14:1d:8e:d7:c4:cc:bd:bb:1f:
         38:6b:34:f2:8b:d9:a8:83:9b:cd:d1:d0:95:fe:d5:28:91:3e:
         34:c7:60:4f:a2:4b:72:37:9b:6f:2c:7f:70:03:1a:8c:d5:9f:
         fd:37:72:a6:a3:c4:a5:34:e8:d8:32:1b:76:00:26:ed:80:8c:
         a5:a4:2a:28:f0:b2:d7:40:62:5f:e6:ae:3f:3e:47:cb:68:0f:
         a9:92:d8:f9:b6:b5:54:8c:9b:c5:75:73:83:98:82:f0:7e:4e:
         32:71:20:55:30:9a:ef:98:8b:fb:b8:32:6c:ba:98:9c:7c:9d:
         c8:37:44:b1:79:a7:f2:e3:be:e7:3e:f8:de:12:16:9c:68:95:
         e2:d8:05:87:89:3d:e4:8a
-----BEGIN CERTIFICATE-----
MIIGrTCCBJWgAwIBAgICE7gwDQYJKoZIhvcNAQEEBQAwgawxCzAJBgNVBAYTAlVT
MQswCQYDVQQIEwJPSDERMA8GA1UEBxMIQ29sdW1idXMxEjAQBgNVBAoTCVZpa2lu
Z1ZQTjEdMBsGA1UECxMUTXlPcmdhbml6YXRpb25hbFVuaXQxFTATBgNVBAMTDFZp
a2luZ1ZQTiBDQTEQMA4GA1UEKRMHRWFzeVJTQTEhMB8GCSqGSIb3DQEJARYSbWVA
bXlob3N0Lm15ZG9tYWluMB4XDTE1MDQyMTEyNTAzMVoXDTI1MDQxODEyNTAzMVow
HzEdMBsGA1UEAxMUQ2xpZW50MTYyMENlcnQ4NjkwZDMwggIiMA0GCSqGSIb3DQEB
AQUAA4ICDwAwggIKAoICAQCiUMdCqUd/Hf0aasw+CbZpOS06Q0p91zVKrd+cF2GL
Mr11xCC5qKsSeitn5c/X3Er6iD6QoO3MJtsrDEPD7FwZtGa5YKPmHO1UIi8teh4s
9L/lIXlrI4UfeFQLvnPuegy9bX7Hq5vtstb86KtXW5BAAZaqv1d6rvoOOYjH5KbQ
crGOsBYQfF5FOntWt7UM+eFgBADzKnIFcS885Ed5cyUR31iNHkpeO4AMi0GAYKpt
ReQkE0wZubpEBDFSd0j2cQG50xKknnAFV7XGkltZ6rA1RMLQ0OlMhrAtzlAP8RMN
MMC5c7XMmAjPlpUHYO7hZ8HO7tDp8XpWUHwt16T3ZsRW385DUeKNM7MneM0Ma/0r
zj+YqQHsYckZdXlaqblub8Lo0OTN+ZiL8roX2HjpjE2d2V1FdS9xR6kJQm+lIrwD
rri026esCfGoH55+6jXpgo95TlVmd/i8Z9/PwdEM/+6ncRDpQOwO9mbaIUuS7OEm
aJjquAhRJeFkqGmOAm6IPC6p3STex1V+8ZwVqRmkDitJuvsIpMxlG/GVthtwpCR7
AmG4Ss7hpGyJrOcwaIb2bHlEXCEk1mDSM4+s0lbLhNo29q74RqzaHuT4QbOIr4cz
cJwz5+8CD1dcMJgUyQZ+VSFNW9WU/qvuuWT9i2PnSrvBEJ3z3Ck+VdvvPrsnyeyp
ZQIDAQABo4IBYzCCAV8wCQYDVR0TBAIwADAtBglghkgBhvhCAQ0EIBYeRWFzeS1S
U0EgR2VuZXJhdGVkIENlcnRpZmljYXRlMB0GA1UdDgQWBBSdPAqbV3eojLFZ6O6T
DWuu9w30ijCB4QYDVR0jBIHZMIHWgBQSzWAE0qCAnnDtxpm4eyzGUv0ZoaGBsqSB
rzCBrDELMAkGA1UEBhMCVVMxCzAJBgNVBAgTAk9IMREwDwYDVQQHEwhDb2x1bWJ1
czESMBAGA1UEChMJVmlraW5nVlBOMR0wGwYDVQQLExRNeU9yZ2FuaXphdGlvbmFs
VW5pdDEVMBMGA1UEAxMMVmlraW5nVlBOIENBMRAwDgYDVQQpEwdFYXN5UlNBMSEw
HwYJKoZIhvcNAQkBFhJtZUBteWhvc3QubXlkb21haW6CCQDPNYXugL8qPjATBgNV
HSUEDDAKBggrBgEFBQcDAjALBgNVHQ8EBAMCB4AwDQYJKoZIhvcNAQEEBQADggIB
AMn+sraw7U2Hsc9jWPk7WAr8fdre+ASX+JZjqglaiMn6s9n1KfxY9ruCEUgeOVRm
exHdW/CBTSeqPLqfSxjL5oynx7nDB3rXL9VQvw5yiwvv5oIMy1+PF8eFRtCobtZP
LG9HPHfBpocKXL3D1tLQr+bVX5bc/oZ0pPTi8rcbueAEyDMklVvVJybJUjhZaows
ZmwsXG+auMUaZJCH8VE2I9LQBscNnLIaqcr+Qn3DWOyv5SywHKBrN9F6jF520Z0+
ZjgEVxQHKkOfKttrHYH3wSoyB0jjII6o7mm1mTcFTsyr2COi5nX30KnQSewcSKV0
YYCMXteaQjyb0rqrAb+fhGVxktFK2nh+C84B1qIuFpgDco/uHTmVOeReShaxMuvg
CiCmRGr/YnR41L/fRHA0FuoFm0Q+G8XrSkZYWBAMwTilcXFdBq80kfjJQlgN3OXS
jtVHvSQyUpntnX2UrgShT5EDaGMfgMNzcfxtH6moIQlLsRQdjtfEzL27HzhrNPKL
2aiDm83R0JX+1SiRPjTHYE+iS3I3m28sf3ADGozVn/03cqajxKU06NgyG3YAJu2A
jKWkKijwstdAYl/mrj8+R8toD6mS2Pm2tVSMm8V1c4OYgvB+TjJxIFUwmu+Yi/u4
Mmy6mJx8ncg3RLF5p/Ljvuc++N4SFpxoleLYBYeJPeSK
-----END CERTIFICATE-----
