Certificate:
    Data:
        Version: 3 (0x2)
        Serial Number: 5064 (0x13c8)
    Signature Algorithm: md5WithRSAEncryption
        Issuer: C=US, ST=OH, L=Columbus, O=VikingVPN, OU=MyOrganizationalUnit, CN=VikingVPN CA/name=EasyRSA/emailAddress=me@myhost.mydomain
        Validity
            Not Before: Apr 24 06:10:15 2015 GMT
            Not After : Apr 21 06:10:15 2025 GMT
        Subject: CN=Client1635Cert482377
        Subject Public Key Info:
            Public Key Algorithm: rsaEncryption
                Public-Key: (4096 bit)
                Modulus:
                    00:b3:aa:a5:d5:4f:8e:b7:fd:22:f0:6c:13:c1:35:
                    1e:31:61:72:28:0c:d0:00:4d:ba:e0:69:67:0d:71:
                    38:06:55:fe:ad:b0:1c:d2:3e:57:43:d5:91:07:55:
                    a4:9a:a9:04:c0:c9:ee:50:7e:70:af:82:a5:08:65:
                    02:3f:2b:85:c4:c8:2b:98:44:ce:51:ac:ca:4c:e6:
                    da:c5:3d:93:b5:7b:c6:e0:d5:29:fb:2e:da:0e:2a:
                    69:c1:df:13:00:5c:65:c4:52:ce:80:c3:8e:80:43:
                    87:ab:4b:58:a2:87:af:e0:4a:90:d4:30:b2:7c:44:
                    86:42:0d:16:81:65:92:11:9a:24:15:29:b1:1c:f4:
                    50:4b:0d:95:6e:97:3c:8c:52:95:b8:18:54:0f:32:
                    41:5b:7c:d4:a5:28:cf:2c:df:31:c2:9c:c7:14:27:
                    88:34:4a:58:48:3a:38:ea:eb:46:74:1d:30:90:28:
                    c6:20:d4:d6:fb:2a:e0:2b:86:cd:b4:51:4b:84:a2:
                    06:98:97:a9:4f:69:88:eb:ab:80:f6:3d:c1:1e:3c:
                    29:f9:42:a8:ce:97:ec:a9:92:df:9d:5a:45:a6:3c:
                    d3:c4:b8:38:7e:79:a2:cf:b9:f4:67:81:6b:c0:c0:
                    a9:a0:81:c1:21:5f:b0:75:da:5c:bf:1a:74:e4:07:
                    09:e8:0a:3f:ff:e6:05:ae:ec:be:4d:f9:31:60:6c:
                    8d:32:6d:61:9a:10:c9:63:fb:80:74:ef:4a:53:8d:
                    b9:3b:1e:34:17:92:21:4d:58:d1:f5:2b:35:f7:a7:
                    77:84:44:b1:ba:bb:db:cc:97:c0:c2:8d:e1:a9:08:
                    6f:4a:36:dd:27:c8:b6:eb:2c:56:14:b6:72:3b:d8:
                    97:bd:32:55:8e:e8:3c:cc:ac:a7:69:dd:f6:04:b3:
                    99:8c:9c:5c:26:af:28:67:32:d9:95:19:44:10:25:
                    18:ad:06:db:69:45:e0:9e:c9:32:e1:b3:dc:0f:15:
                    8d:5d:ac:6b:cc:9d:01:5f:70:3b:c9:c1:dc:95:7b:
                    47:d9:14:86:65:a8:d3:1b:42:63:00:9d:7e:b3:8f:
                    3f:86:f2:0c:8d:19:bd:82:51:fe:87:ce:3c:62:60:
                    3b:6f:77:cb:4a:63:e8:5a:8c:21:5c:a7:65:55:a2:
                    b5:bd:cd:a3:42:b9:c9:31:91:81:67:1c:74:3f:1b:
                    01:f4:7b:bc:94:bb:ca:a8:54:79:31:98:8a:c8:c4:
                    0d:4a:28:64:67:21:6c:ec:d5:fa:c7:6e:1f:da:a3:
                    8f:3c:44:d9:0d:fd:aa:74:05:eb:27:eb:ab:99:5b:
                    49:59:8f:68:f8:84:f2:94:aa:4d:9c:4c:12:5f:86:
                    e9:15:51
                Exponent: 65537 (0x10001)
        X509v3 extensions:
            X509v3 Basic Constraints: 
                CA:FALSE
            Netscape Comment: 
                Easy-RSA Generated Certificate
            X509v3 Subject Key Identifier: 
                85:AF:51:4A:8E:77:7D:AE:29:A5:C1:59:BB:92:80:85:20:D3:54:02
            X509v3 Authority Key Identifier: 
                keyid:12:CD:60:04:D2:A0:80:9E:70:ED:C6:99:B8:7B:2C:C6:52:FD:19:A1
                DirName:/C=US/ST=OH/L=Columbus/O=VikingVPN/OU=MyOrganizationalUnit/CN=VikingVPN CA/name=EasyRSA/emailAddress=me@myhost.mydomain
                serial:CF:35:85:EE:80:BF:2A:3E

            X509v3 Extended Key Usage: 
                TLS Web Client Authentication
            X509v3 Key Usage: 
                Digital Signature
    Signature Algorithm: md5WithRSAEncryption
         75:35:27:5e:cc:73:80:4f:9a:12:b9:05:d7:60:d6:f1:96:8b:
         84:cb:f5:ff:8c:6c:48:ea:8c:b8:8b:a6:28:0e:75:fd:43:3b:
         62:3a:7f:3d:fe:09:43:7f:c1:ff:74:2a:1b:f6:7e:0c:26:e5:
         e0:0d:3a:b0:38:b6:a4:70:cd:9f:d3:a1:d1:1e:a8:34:3d:db:
         b5:c9:9b:57:ca:70:ee:70:46:cc:42:2c:d5:88:3d:8a:f9:8f:
         cc:6a:5e:19:b1:df:fd:d8:e1:68:05:f3:34:b5:03:1d:e4:ac:
         41:53:b6:e2:52:7b:6c:b0:95:43:f6:7e:4a:5b:0e:68:4d:60:
         ca:81:ee:93:a4:7e:ce:0e:9e:b4:3e:bc:1e:60:bf:ea:ca:da:
         a6:0f:9d:f3:ca:6a:f0:01:48:75:5b:f0:eb:69:76:b9:2e:f0:
         25:40:6d:c5:9a:08:dd:64:9e:33:90:23:15:8a:b9:b7:97:4b:
         3e:4c:56:5c:95:ae:1d:b1:10:d5:38:aa:07:0d:d0:3c:81:b3:
         73:fe:e0:ae:6a:d5:61:b3:23:a0:a0:c5:50:a9:dd:bb:3d:30:
         92:85:d4:aa:b9:98:a6:e5:cf:a1:da:1a:7c:40:02:b4:18:02:
         ec:af:c5:f5:3d:e0:bd:50:90:cf:0f:b0:1c:8f:d8:2c:45:10:
         e7:a0:4b:68:1f:67:b6:3c:df:b5:a3:39:ce:53:39:37:c4:05:
         e8:63:87:4b:90:50:22:98:f4:02:7f:79:76:89:1e:42:03:96:
         4f:13:55:68:81:16:c6:e8:66:f9:1a:21:40:cc:20:f6:18:e8:
         0e:4d:50:43:d3:a4:3d:4c:10:9c:cc:14:7e:97:c9:f3:40:ef:
         12:05:61:5b:23:ec:83:75:de:c9:55:9e:cc:2b:70:a3:17:39:
         f8:ff:b3:af:be:56:7d:29:a1:e0:ce:28:4c:b8:de:fb:98:74:
         d2:cc:ea:97:79:8a:4c:d5:cf:40:ec:ef:ce:6e:87:89:85:9d:
         39:05:fc:2b:cc:c6:09:c4:4b:e2:09:ad:cd:3b:6a:f5:5a:25:
         d1:f8:c3:51:38:4a:c7:ab:8a:d9:6c:8a:81:63:b4:15:61:d4:
         58:b6:b6:1b:82:f4:4c:d8:71:76:1c:a9:e7:f6:6e:3e:3f:a6:
         fa:17:2d:94:fc:3f:32:91:1a:df:4d:a8:3e:b4:17:1a:ff:74:
         7d:d2:b9:5f:60:4a:b6:36:1c:64:d4:f4:ea:85:10:e7:54:ee:
         1a:9b:46:0c:33:2c:ed:a6:06:b4:b1:4d:6b:66:95:e2:ed:2d:
         ff:d3:af:ee:f4:a3:d5:8c:65:75:99:28:35:bb:76:fd:ed:74:
         29:7f:8b:0d:fc:ac:c7:72
-----BEGIN CERTIFICATE-----
MIIGrTCCBJWgAwIBAgICE8gwDQYJKoZIhvcNAQEEBQAwgawxCzAJBgNVBAYTAlVT
MQswCQYDVQQIEwJPSDERMA8GA1UEBxMIQ29sdW1idXMxEjAQBgNVBAoTCVZpa2lu
Z1ZQTjEdMBsGA1UECxMUTXlPcmdhbml6YXRpb25hbFVuaXQxFTATBgNVBAMTDFZp
a2luZ1ZQTiBDQTEQMA4GA1UEKRMHRWFzeVJTQTEhMB8GCSqGSIb3DQEJARYSbWVA
bXlob3N0Lm15ZG9tYWluMB4XDTE1MDQyNDA2MTAxNVoXDTI1MDQyMTA2MTAxNVow
HzEdMBsGA1UEAxMUQ2xpZW50MTYzNUNlcnQ0ODIzNzcwggIiMA0GCSqGSIb3DQEB
AQUAA4ICDwAwggIKAoICAQCzqqXVT463/SLwbBPBNR4xYXIoDNAATbrgaWcNcTgG
Vf6tsBzSPldD1ZEHVaSaqQTAye5QfnCvgqUIZQI/K4XEyCuYRM5RrMpM5trFPZO1
e8bg1Sn7LtoOKmnB3xMAXGXEUs6Aw46AQ4erS1iih6/gSpDUMLJ8RIZCDRaBZZIR
miQVKbEc9FBLDZVulzyMUpW4GFQPMkFbfNSlKM8s3zHCnMcUJ4g0SlhIOjjq60Z0
HTCQKMYg1Nb7KuArhs20UUuEogaYl6lPaYjrq4D2PcEePCn5QqjOl+ypkt+dWkWm
PNPEuDh+eaLPufRngWvAwKmggcEhX7B12ly/GnTkBwnoCj//5gWu7L5N+TFgbI0y
bWGaEMlj+4B070pTjbk7HjQXkiFNWNH1KzX3p3eERLG6u9vMl8DCjeGpCG9KNt0n
yLbrLFYUtnI72Je9MlWO6DzMrKdp3fYEs5mMnFwmryhnMtmVGUQQJRitBttpReCe
yTLhs9wPFY1drGvMnQFfcDvJwdyVe0fZFIZlqNMbQmMAnX6zjz+G8gyNGb2CUf6H
zjxiYDtvd8tKY+hajCFcp2VVorW9zaNCuckxkYFnHHQ/GwH0e7yUu8qoVHkxmIrI
xA1KKGRnIWzs1frHbh/ao488RNkN/ap0Besn66uZW0lZj2j4hPKUqk2cTBJfhukV
UQIDAQABo4IBYzCCAV8wCQYDVR0TBAIwADAtBglghkgBhvhCAQ0EIBYeRWFzeS1S
U0EgR2VuZXJhdGVkIENlcnRpZmljYXRlMB0GA1UdDgQWBBSFr1FKjnd9rimlwVm7
koCFINNUAjCB4QYDVR0jBIHZMIHWgBQSzWAE0qCAnnDtxpm4eyzGUv0ZoaGBsqSB
rzCBrDELMAkGA1UEBhMCVVMxCzAJBgNVBAgTAk9IMREwDwYDVQQHEwhDb2x1bWJ1
czESMBAGA1UEChMJVmlraW5nVlBOMR0wGwYDVQQLExRNeU9yZ2FuaXphdGlvbmFs
VW5pdDEVMBMGA1UEAxMMVmlraW5nVlBOIENBMRAwDgYDVQQpEwdFYXN5UlNBMSEw
HwYJKoZIhvcNAQkBFhJtZUBteWhvc3QubXlkb21haW6CCQDPNYXugL8qPjATBgNV
HSUEDDAKBggrBgEFBQcDAjALBgNVHQ8EBAMCB4AwDQYJKoZIhvcNAQEEBQADggIB
AHU1J17Mc4BPmhK5Bddg1vGWi4TL9f+MbEjqjLiLpigOdf1DO2I6fz3+CUN/wf90
Khv2fgwm5eANOrA4tqRwzZ/TodEeqDQ927XJm1fKcO5wRsxCLNWIPYr5j8xqXhmx
3/3Y4WgF8zS1Ax3krEFTtuJSe2ywlUP2fkpbDmhNYMqB7pOkfs4OnrQ+vB5gv+rK
2qYPnfPKavABSHVb8Otpdrku8CVAbcWaCN1knjOQIxWKubeXSz5MVlyVrh2xENU4
qgcN0DyBs3P+4K5q1WGzI6CgxVCp3bs9MJKF1Kq5mKblz6HaGnxAArQYAuyvxfU9
4L1QkM8PsByP2CxFEOegS2gfZ7Y837WjOc5TOTfEBehjh0uQUCKY9AJ/eXaJHkID
lk8TVWiBFsboZvkaIUDMIPYY6A5NUEPTpD1MEJzMFH6XyfNA7xIFYVsj7IN13slV
nswrcKMXOfj/s6++Vn0poeDOKEy43vuYdNLM6pd5ikzVz0Ds785uh4mFnTkF/CvM
xgnES+IJrc07avVaJdH4w1E4SseritlsioFjtBVh1Fi2thuC9EzYcXYcqef2bj4/
pvoXLZT8PzKRGt9NqD60Fxr/dH3SuV9gSrY2HGTU9OqFEOdU7hqbRgwzLO2mBrSx
TWtmleLtLf/Tr+70o9WMZXWZKDW7dv3tdCl/iw38rMdy
-----END CERTIFICATE-----
