Certificate:
    Data:
        Version: 3 (0x2)
        Serial Number: 5073 (0x13d1)
    Signature Algorithm: md5WithRSAEncryption
        Issuer: C=US, ST=OH, L=Columbus, O=VikingVPN, OU=MyOrganizationalUnit, CN=VikingVPN CA/name=EasyRSA/emailAddress=me@myhost.mydomain
        Validity
            Not Before: Apr 24 12:03:59 2015 GMT
            Not After : Apr 21 12:03:59 2025 GMT
        Subject: CN=Client1638Cert11ba38
        Subject Public Key Info:
            Public Key Algorithm: rsaEncryption
                Public-Key: (4096 bit)
                Modulus:
                    00:ba:8f:05:cb:ac:24:0f:e9:c1:72:37:01:fe:86:
                    cf:36:c9:92:d6:8f:5c:7c:c7:e6:7d:ca:c8:6e:e7:
                    88:5a:a8:9a:47:21:73:91:08:fe:b4:8e:2a:a7:d8:
                    b7:9f:ef:6b:58:5c:43:37:09:ef:29:61:e8:69:10:
                    b6:dd:dd:20:06:19:40:6d:43:27:9c:70:5a:3d:72:
                    24:c6:27:eb:09:65:ad:db:8a:d3:7a:e1:d7:d8:a4:
                    dd:01:ec:47:c4:80:b5:de:cc:b7:70:ea:91:6a:87:
                    25:4b:bf:8b:35:51:c5:c6:3b:45:ed:dc:be:75:a1:
                    e1:4d:59:75:95:ed:53:3f:e9:b3:ee:0b:20:21:6f:
                    d5:dc:9e:c5:6b:60:f3:29:10:24:82:6c:bf:39:14:
                    61:99:cd:1c:d6:19:4a:99:3f:8a:76:28:58:dc:bd:
                    23:02:73:9f:56:e5:ab:da:98:a7:25:df:50:b1:59:
                    ef:e9:c7:f4:eb:10:9e:6d:a9:97:bf:4a:b6:e8:19:
                    51:f3:8d:c8:15:93:8c:61:83:9e:0a:7e:72:76:18:
                    a8:a8:e1:4c:04:dc:8f:38:41:05:4f:17:2c:b4:e8:
                    47:3b:20:87:6d:19:45:b9:09:44:af:83:f0:7a:9e:
                    b6:ad:35:f4:f0:93:31:15:08:d0:fc:9d:c4:dc:46:
                    5f:b0:4b:dd:2c:c5:70:de:0e:7c:99:dc:b1:ff:06:
                    94:03:1c:2f:89:a2:a4:5d:00:63:86:db:c7:ad:8f:
                    ec:52:29:5f:be:ba:2f:fe:31:93:8e:63:cd:a3:58:
                    d3:42:9a:84:39:a9:b2:5f:bf:b0:20:59:d8:09:a0:
                    af:e9:7e:f5:aa:e1:5b:b6:0a:90:a8:85:07:c0:08:
                    a8:12:6d:19:7d:34:7b:16:d8:95:d8:10:c0:fd:f6:
                    fd:ea:65:7c:2d:7b:86:fc:de:96:e7:7a:6f:c9:74:
                    72:45:2c:92:13:98:73:fd:59:e6:12:2e:e1:1c:06:
                    3e:73:e2:7a:88:af:b6:55:fa:b5:12:d5:a9:38:88:
                    21:82:1b:bb:72:e2:db:49:3f:e7:51:75:2e:c8:6c:
                    7d:52:65:0b:c4:d6:83:5f:77:5a:88:7e:be:65:af:
                    9d:86:6a:1f:d3:ea:e7:e5:96:0b:52:29:c0:7f:1c:
                    be:13:32:e2:67:70:2e:b3:78:d6:b2:73:53:0e:1b:
                    aa:d8:22:15:f0:2a:9e:ce:f0:c3:64:92:d7:cb:e9:
                    af:fe:2f:38:5a:ee:0f:49:78:db:eb:8d:db:f6:59:
                    2e:9e:5a:f6:fa:fd:8f:ad:0a:9b:c4:d4:68:7a:be:
                    b5:73:00:bb:39:60:81:88:3f:cf:df:d4:d3:07:2a:
                    68:2d:ad
                Exponent: 65537 (0x10001)
        X509v3 extensions:
            X509v3 Basic Constraints: 
                CA:FALSE
            Netscape Comment: 
                Easy-RSA Generated Certificate
            X509v3 Subject Key Identifier: 
                B6:6E:1E:E6:B9:B2:AF:7C:E4:B8:61:FD:39:48:41:49:5E:1B:5B:EA
            X509v3 Authority Key Identifier: 
                keyid:12:CD:60:04:D2:A0:80:9E:70:ED:C6:99:B8:7B:2C:C6:52:FD:19:A1
                DirName:/C=US/ST=OH/L=Columbus/O=VikingVPN/OU=MyOrganizationalUnit/CN=VikingVPN CA/name=EasyRSA/emailAddress=me@myhost.mydomain
                serial:CF:35:85:EE:80:BF:2A:3E

            X509v3 Extended Key Usage: 
                TLS Web Client Authentication
            X509v3 Key Usage: 
                Digital Signature
    Signature Algorithm: md5WithRSAEncryption
         c7:4c:c0:a3:ca:be:97:28:38:4b:5d:09:aa:fc:1b:8a:bd:4a:
         59:7a:bf:35:55:3a:74:4c:90:34:ca:b8:b0:2f:c1:36:d0:8c:
         c8:05:98:f9:e7:0f:8b:11:1e:8a:9c:4e:08:db:5b:43:d1:eb:
         ee:07:8f:38:6a:2d:ef:aa:87:1a:73:9f:9e:ed:b0:8f:e5:73:
         cf:02:f2:89:06:57:84:29:1c:cf:cb:44:8e:92:92:5b:3b:fe:
         24:7f:bf:9d:3f:7f:12:a3:16:45:00:60:0a:5b:9e:05:e8:a7:
         66:fb:81:d7:85:54:b8:72:52:e2:b6:fa:e7:41:0f:fd:48:c5:
         46:02:83:db:9a:1b:a8:59:73:de:f9:bd:ce:18:fe:df:e5:fd:
         3b:62:73:32:83:79:e1:0c:74:b1:8b:88:22:d7:d9:fe:99:16:
         32:48:b4:85:c1:63:93:9a:b5:bf:0e:aa:d0:0e:8f:fc:d9:54:
         54:3c:ad:51:a0:58:69:bd:f5:b2:dc:60:7c:d9:b7:ba:17:3d:
         8b:3b:14:53:db:2f:28:b2:b8:e7:30:d4:9f:30:49:49:34:1c:
         90:26:9f:30:56:37:4b:55:bd:8f:5e:86:aa:fa:ca:f4:ac:ba:
         c2:4a:b9:5b:e0:34:01:60:98:f7:4c:98:c2:98:2d:b2:a5:51:
         e2:94:fb:12:5d:00:ab:18:12:73:cc:74:ef:b7:aa:bc:f8:18:
         da:6f:0f:39:e5:1e:a4:89:6e:5a:05:14:83:4c:01:2f:35:aa:
         2b:f6:e7:ee:67:f3:26:8c:88:8c:83:86:04:63:cc:aa:1f:d8:
         a7:10:e1:d3:fa:52:2f:73:9a:b2:3a:09:4f:ea:65:64:45:45:
         4e:fe:74:48:47:fa:a5:99:ce:29:3e:91:b0:a4:23:d8:f5:94:
         a6:52:52:89:2e:ca:74:ab:ff:09:dd:cf:1a:19:a6:a9:17:91:
         89:5c:70:ec:58:f7:b6:56:73:cf:ba:a4:97:cb:d6:7c:29:2c:
         a4:61:3e:f5:d2:d3:59:07:5d:03:5e:01:17:24:9b:ba:44:d4:
         55:e0:63:70:a5:c7:25:b7:8c:bc:29:ba:83:32:99:11:71:5c:
         e6:00:ef:29:6f:04:40:00:95:f7:ca:ff:cb:0b:7b:a5:5a:26:
         b5:0f:04:ec:3d:64:9c:b2:be:dd:ca:04:b1:aa:28:d3:8f:ba:
         3c:1c:2b:1f:ad:01:5d:54:4b:ee:c5:88:0c:58:91:e4:ba:60:
         f6:e6:9f:bd:73:68:cf:05:20:1d:54:3c:37:ea:8e:5c:b7:8d:
         e3:3c:ac:13:e8:21:ac:22:9e:d2:8b:78:dc:76:5a:2c:9b:8d:
         cd:26:32:e0:ca:d9:84:d6
-----BEGIN CERTIFICATE-----
MIIGrTCCBJWgAwIBAgICE9EwDQYJKoZIhvcNAQEEBQAwgawxCzAJBgNVBAYTAlVT
MQswCQYDVQQIEwJPSDERMA8GA1UEBxMIQ29sdW1idXMxEjAQBgNVBAoTCVZpa2lu
Z1ZQTjEdMBsGA1UECxMUTXlPcmdhbml6YXRpb25hbFVuaXQxFTATBgNVBAMTDFZp
a2luZ1ZQTiBDQTEQMA4GA1UEKRMHRWFzeVJTQTEhMB8GCSqGSIb3DQEJARYSbWVA
bXlob3N0Lm15ZG9tYWluMB4XDTE1MDQyNDEyMDM1OVoXDTI1MDQyMTEyMDM1OVow
HzEdMBsGA1UEAxMUQ2xpZW50MTYzOENlcnQxMWJhMzgwggIiMA0GCSqGSIb3DQEB
AQUAA4ICDwAwggIKAoICAQC6jwXLrCQP6cFyNwH+hs82yZLWj1x8x+Z9yshu54ha
qJpHIXORCP60jiqn2Lef72tYXEM3Ce8pYehpELbd3SAGGUBtQyeccFo9ciTGJ+sJ
Za3bitN64dfYpN0B7EfEgLXezLdw6pFqhyVLv4s1UcXGO0Xt3L51oeFNWXWV7VM/
6bPuCyAhb9XcnsVrYPMpECSCbL85FGGZzRzWGUqZP4p2KFjcvSMCc59W5avamKcl
31CxWe/px/TrEJ5tqZe/SrboGVHzjcgVk4xhg54KfnJ2GKio4UwE3I84QQVPFyy0
6Ec7IIdtGUW5CUSvg/B6nratNfTwkzEVCND8ncTcRl+wS90sxXDeDnyZ3LH/BpQD
HC+JoqRdAGOG28etj+xSKV++ui/+MZOOY82jWNNCmoQ5qbJfv7AgWdgJoK/pfvWq
4Vu2CpCohQfACKgSbRl9NHsW2JXYEMD99v3qZXwte4b83pbnem/JdHJFLJITmHP9
WeYSLuEcBj5z4nqIr7ZV+rUS1ak4iCGCG7ty4ttJP+dRdS7IbH1SZQvE1oNfd1qI
fr5lr52Gah/T6ufllgtSKcB/HL4TMuJncC6zeNayc1MOG6rYIhXwKp7O8MNkktfL
6a/+Lzha7g9JeNvrjdv2WS6eWvb6/Y+tCpvE1Gh6vrVzALs5YIGIP8/f1NMHKmgt
rQIDAQABo4IBYzCCAV8wCQYDVR0TBAIwADAtBglghkgBhvhCAQ0EIBYeRWFzeS1S
U0EgR2VuZXJhdGVkIENlcnRpZmljYXRlMB0GA1UdDgQWBBS2bh7mubKvfOS4Yf05
SEFJXhtb6jCB4QYDVR0jBIHZMIHWgBQSzWAE0qCAnnDtxpm4eyzGUv0ZoaGBsqSB
rzCBrDELMAkGA1UEBhMCVVMxCzAJBgNVBAgTAk9IMREwDwYDVQQHEwhDb2x1bWJ1
czESMBAGA1UEChMJVmlraW5nVlBOMR0wGwYDVQQLExRNeU9yZ2FuaXphdGlvbmFs
VW5pdDEVMBMGA1UEAxMMVmlraW5nVlBOIENBMRAwDgYDVQQpEwdFYXN5UlNBMSEw
HwYJKoZIhvcNAQkBFhJtZUBteWhvc3QubXlkb21haW6CCQDPNYXugL8qPjATBgNV
HSUEDDAKBggrBgEFBQcDAjALBgNVHQ8EBAMCB4AwDQYJKoZIhvcNAQEEBQADggIB
AMdMwKPKvpcoOEtdCar8G4q9Sll6vzVVOnRMkDTKuLAvwTbQjMgFmPnnD4sRHoqc
TgjbW0PR6+4HjzhqLe+qhxpzn57tsI/lc88C8okGV4QpHM/LRI6Skls7/iR/v50/
fxKjFkUAYApbngXop2b7gdeFVLhyUuK2+udBD/1IxUYCg9uaG6hZc975vc4Y/t/l
/TticzKDeeEMdLGLiCLX2f6ZFjJItIXBY5Oatb8OqtAOj/zZVFQ8rVGgWGm99bLc
YHzZt7oXPYs7FFPbLyiyuOcw1J8wSUk0HJAmnzBWN0tVvY9ehqr6yvSsusJKuVvg
NAFgmPdMmMKYLbKlUeKU+xJdAKsYEnPMdO+3qrz4GNpvDznlHqSJbloFFINMAS81
qiv25+5n8yaMiIyDhgRjzKof2KcQ4dP6Ui9zmrI6CU/qZWRFRU7+dEhH+qWZzik+
kbCkI9j1lKZSUokuynSr/wndzxoZpqkXkYlccOxY97ZWc8+6pJfL1nwpLKRhPvXS
01kHXQNeARckm7pE1FXgY3ClxyW3jLwpuoMymRFxXOYA7ylvBEAAlffK/8sLe6Va
JrUPBOw9ZJyyvt3KBLGqKNOPujwcKx+tAV1US+7FiAxYkeS6YPbmn71zaM8FIB1U
PDfqjly3jeM8rBPoIawintKLeNx2Wiybjc0mMuDK2YTW
-----END CERTIFICATE-----
