Certificate:
    Data:
        Version: 3 (0x2)
        Serial Number: 5141 (0x1415)
    Signature Algorithm: md5WithRSAEncryption
        Issuer: C=US, ST=OH, L=Columbus, O=VikingVPN, OU=MyOrganizationalUnit, CN=VikingVPN CA/name=EasyRSA/emailAddress=me@myhost.mydomain
        Validity
            Not Before: May  3 21:26:58 2015 GMT
            Not After : Apr 30 21:26:58 2025 GMT
        Subject: CN=Client1653Cert50a470
        Subject Public Key Info:
            Public Key Algorithm: rsaEncryption
                Public-Key: (4096 bit)
                Modulus:
                    00:d3:02:c8:cb:de:96:28:67:64:ce:e9:c8:30:13:
                    a4:c0:ac:03:e8:11:f2:ca:ef:1f:17:7d:0f:12:2b:
                    d9:b4:44:95:cc:7a:8b:1a:d2:24:1a:98:9f:e1:23:
                    42:ef:64:e4:af:fa:37:48:1e:18:9f:13:08:ff:03:
                    36:5c:cf:98:7a:64:4f:d1:8c:96:4d:d8:a6:00:5f:
                    b3:d2:2d:1a:1e:b5:ed:ef:37:92:ec:81:73:1d:0d:
                    68:7d:4c:07:c8:a7:34:28:01:0c:cb:4b:08:76:4c:
                    53:64:2b:38:75:e5:7b:1b:fe:59:4a:64:bd:3c:9e:
                    ab:60:80:79:dd:b2:50:94:b4:74:f2:e1:d6:db:45:
                    17:62:b7:b1:b6:a6:e6:8d:fa:b4:fc:6b:1c:68:0d:
                    4b:b4:6a:a4:2f:e4:6c:08:bf:b9:af:39:25:4d:d1:
                    da:b6:d6:24:08:e9:2b:91:c4:e3:ba:0a:d7:c4:09:
                    7a:43:cd:00:72:e8:53:1c:58:67:ba:1a:72:56:88:
                    2d:61:3b:ce:2a:7c:b9:a1:e6:a5:90:df:ee:d1:31:
                    d5:32:f0:fd:70:2b:a1:fd:b7:c6:1f:e8:73:9b:e8:
                    33:0e:48:ba:0a:11:4d:f9:05:d2:d2:56:ad:e2:11:
                    a3:e5:eb:e9:d4:bb:7c:9a:9f:ec:8b:fb:fc:01:d6:
                    30:d3:fe:ed:72:79:46:9e:0d:cf:9c:a8:b1:25:ee:
                    02:77:56:7d:9c:11:68:ef:ca:80:28:f6:a5:09:d5:
                    1e:9a:e1:b6:a8:38:a2:ce:1d:89:20:66:fb:26:d4:
                    ea:f7:8c:e8:5e:d3:90:a7:5d:ec:ed:2e:99:82:e4:
                    de:56:6a:0d:99:22:ab:20:d2:ff:e7:30:cf:9e:89:
                    28:e6:41:42:52:5f:de:ee:12:e6:75:71:49:df:96:
                    73:5b:e2:90:9f:2b:8e:94:58:a3:d4:6d:22:24:ec:
                    37:76:c9:57:e4:3c:5c:e4:9f:44:4d:a6:56:6a:f4:
                    f2:dc:50:1e:75:63:58:7c:33:44:8a:77:6c:ff:72:
                    1a:1e:ac:32:70:8a:fb:f6:62:54:26:7b:69:63:1f:
                    f8:6a:5e:67:ee:61:85:b3:7a:a0:47:b7:8e:eb:ed:
                    29:b2:17:ca:0a:93:4c:d0:ff:e4:5e:8c:6d:9c:09:
                    89:06:1e:60:c8:2b:c5:8a:05:77:f8:7b:2e:78:d9:
                    c5:49:4b:e9:65:04:ac:5c:03:95:11:34:5d:d3:48:
                    25:55:65:79:9c:a3:a4:28:7e:c3:95:b7:3f:07:5b:
                    e9:74:87:ca:a8:9b:0a:09:44:ca:f4:16:1c:a5:c8:
                    3d:2b:61:a6:36:66:ee:fd:c8:6e:a6:aa:82:3b:ca:
                    32:14:0d
                Exponent: 65537 (0x10001)
        X509v3 extensions:
            X509v3 Basic Constraints: 
                CA:FALSE
            Netscape Comment: 
                Easy-RSA Generated Certificate
            X509v3 Subject Key Identifier: 
                68:3C:03:EE:0E:D9:7B:16:A5:6A:1E:4A:90:95:8F:4D:C7:0C:C7:B7
            X509v3 Authority Key Identifier: 
                keyid:12:CD:60:04:D2:A0:80:9E:70:ED:C6:99:B8:7B:2C:C6:52:FD:19:A1
                DirName:/C=US/ST=OH/L=Columbus/O=VikingVPN/OU=MyOrganizationalUnit/CN=VikingVPN CA/name=EasyRSA/emailAddress=me@myhost.mydomain
                serial:CF:35:85:EE:80:BF:2A:3E

            X509v3 Extended Key Usage: 
                TLS Web Client Authentication
            X509v3 Key Usage: 
                Digital Signature
    Signature Algorithm: md5WithRSAEncryption
         a2:30:d5:4c:1c:24:54:a1:11:43:49:8c:81:8c:8e:d0:22:a8:
         dd:3e:64:c0:b4:71:91:ff:d5:d5:02:4d:9f:e1:b4:15:97:51:
         89:3e:76:58:42:b8:66:8b:6e:dc:45:8f:0e:8b:67:67:21:f8:
         79:d6:bc:c3:0a:04:ed:f5:b6:ab:be:f5:a8:13:d0:36:a0:d9:
         e2:df:84:84:3e:3b:e7:1e:30:05:90:38:25:a9:74:e6:2c:9d:
         4c:70:b6:54:34:3f:b6:8a:17:04:18:8e:85:bf:48:e3:20:a4:
         ce:1e:0b:91:68:49:c9:00:bc:30:ee:28:b3:75:51:8c:6d:83:
         29:60:1f:a4:54:24:9f:a5:93:19:dd:8f:34:16:fe:95:3c:41:
         5e:62:4b:48:af:a1:01:01:c1:b5:76:a7:9b:c4:1a:f3:be:c8:
         d0:44:84:29:e3:61:8d:bc:50:5a:65:42:4d:a4:07:68:61:2c:
         20:01:45:49:00:6b:29:8b:f2:ca:d6:16:a4:b1:4e:3b:e3:f0:
         47:af:d7:3d:a3:37:33:cd:39:0c:e5:9f:b1:3e:06:ab:1a:2b:
         23:12:ad:cc:75:e0:80:cf:e5:6a:ed:d7:c3:f9:21:8f:f9:a6:
         a5:ba:46:e3:a8:6d:73:40:25:e6:46:07:68:14:b4:19:db:cc:
         be:2c:8f:c7:ce:6a:d6:71:47:68:d8:e7:51:c2:bb:d5:b9:1d:
         37:bc:67:cf:1f:77:d9:c1:19:25:c7:aa:de:66:1d:00:f9:63:
         cb:06:97:76:70:89:52:5d:bc:96:ed:71:d2:11:52:49:20:ca:
         fe:5d:8b:95:9f:53:ce:58:16:28:e6:72:af:50:32:0f:54:3c:
         03:4e:fb:b3:aa:65:6e:5c:d1:aa:f7:44:f8:64:ca:55:0e:83:
         a9:47:90:1a:96:88:62:7b:c7:10:99:96:d0:7b:cc:4f:0a:56:
         10:56:cf:64:a3:58:c1:51:e4:49:0d:4e:6e:a9:a8:08:54:07:
         28:35:c0:a1:6e:0c:56:e6:83:79:d5:ee:2c:96:bf:da:b9:59:
         5a:e0:d1:6e:59:d6:21:37:17:17:77:3d:ae:02:d5:c9:1b:df:
         42:33:85:d4:64:a1:b6:60:d5:35:c4:cb:a4:96:7c:c2:f9:f5:
         09:a5:58:ed:89:09:fe:f0:a7:08:ef:42:87:a0:1a:12:12:de:
         9c:3b:2a:64:e2:e6:8a:91:d9:0a:85:b9:8a:47:87:83:e1:a8:
         57:89:66:34:3d:96:8f:74:dd:9f:ec:3a:09:cf:6e:bc:51:f5:
         5e:63:e9:a7:9b:c4:28:35:85:d0:e9:c9:b7:4e:3a:85:1f:c5:
         c1:f6:07:19:a5:76:64:8f
-----BEGIN CERTIFICATE-----
MIIGrTCCBJWgAwIBAgICFBUwDQYJKoZIhvcNAQEEBQAwgawxCzAJBgNVBAYTAlVT
MQswCQYDVQQIEwJPSDERMA8GA1UEBxMIQ29sdW1idXMxEjAQBgNVBAoTCVZpa2lu
Z1ZQTjEdMBsGA1UECxMUTXlPcmdhbml6YXRpb25hbFVuaXQxFTATBgNVBAMTDFZp
a2luZ1ZQTiBDQTEQMA4GA1UEKRMHRWFzeVJTQTEhMB8GCSqGSIb3DQEJARYSbWVA
bXlob3N0Lm15ZG9tYWluMB4XDTE1MDUwMzIxMjY1OFoXDTI1MDQzMDIxMjY1OFow
HzEdMBsGA1UEAxMUQ2xpZW50MTY1M0NlcnQ1MGE0NzAwggIiMA0GCSqGSIb3DQEB
AQUAA4ICDwAwggIKAoICAQDTAsjL3pYoZ2TO6cgwE6TArAPoEfLK7x8XfQ8SK9m0
RJXMeosa0iQamJ/hI0LvZOSv+jdIHhifEwj/AzZcz5h6ZE/RjJZN2KYAX7PSLRoe
te3vN5LsgXMdDWh9TAfIpzQoAQzLSwh2TFNkKzh15Xsb/llKZL08nqtggHndslCU
tHTy4dbbRRdit7G2puaN+rT8axxoDUu0aqQv5GwIv7mvOSVN0dq21iQI6SuRxOO6
CtfECXpDzQBy6FMcWGe6GnJWiC1hO84qfLmh5qWQ3+7RMdUy8P1wK6H9t8Yf6HOb
6DMOSLoKEU35BdLSVq3iEaPl6+nUu3yan+yL+/wB1jDT/u1yeUaeDc+cqLEl7gJ3
Vn2cEWjvyoAo9qUJ1R6a4baoOKLOHYkgZvsm1Or3jOhe05CnXeztLpmC5N5Wag2Z
Iqsg0v/nMM+eiSjmQUJSX97uEuZ1cUnflnNb4pCfK46UWKPUbSIk7Dd2yVfkPFzk
n0RNplZq9PLcUB51Y1h8M0SKd2z/choerDJwivv2YlQme2ljH/hqXmfuYYWzeqBH
t47r7SmyF8oKk0zQ/+RejG2cCYkGHmDIK8WKBXf4ey542cVJS+llBKxcA5URNF3T
SCVVZXmco6QofsOVtz8HW+l0h8qomwoJRMr0FhylyD0rYaY2Zu79yG6mqoI7yjIU
DQIDAQABo4IBYzCCAV8wCQYDVR0TBAIwADAtBglghkgBhvhCAQ0EIBYeRWFzeS1S
U0EgR2VuZXJhdGVkIENlcnRpZmljYXRlMB0GA1UdDgQWBBRoPAPuDtl7FqVqHkqQ
lY9NxwzHtzCB4QYDVR0jBIHZMIHWgBQSzWAE0qCAnnDtxpm4eyzGUv0ZoaGBsqSB
rzCBrDELMAkGA1UEBhMCVVMxCzAJBgNVBAgTAk9IMREwDwYDVQQHEwhDb2x1bWJ1
czESMBAGA1UEChMJVmlraW5nVlBOMR0wGwYDVQQLExRNeU9yZ2FuaXphdGlvbmFs
VW5pdDEVMBMGA1UEAxMMVmlraW5nVlBOIENBMRAwDgYDVQQpEwdFYXN5UlNBMSEw
HwYJKoZIhvcNAQkBFhJtZUBteWhvc3QubXlkb21haW6CCQDPNYXugL8qPjATBgNV
HSUEDDAKBggrBgEFBQcDAjALBgNVHQ8EBAMCB4AwDQYJKoZIhvcNAQEEBQADggIB
AKIw1UwcJFShEUNJjIGMjtAiqN0+ZMC0cZH/1dUCTZ/htBWXUYk+dlhCuGaLbtxF
jw6LZ2ch+HnWvMMKBO31tqu+9agT0Dag2eLfhIQ+O+ceMAWQOCWpdOYsnUxwtlQ0
P7aKFwQYjoW/SOMgpM4eC5FoSckAvDDuKLN1UYxtgylgH6RUJJ+lkxndjzQW/pU8
QV5iS0ivoQEBwbV2p5vEGvO+yNBEhCnjYY28UFplQk2kB2hhLCABRUkAaymL8srW
FqSxTjvj8Eev1z2jNzPNOQzln7E+BqsaKyMSrcx14IDP5Wrt18P5IY/5pqW6RuOo
bXNAJeZGB2gUtBnbzL4sj8fOatZxR2jY51HCu9W5HTe8Z88fd9nBGSXHqt5mHQD5
Y8sGl3ZwiVJdvJbtcdIRUkkgyv5di5WfU85YFijmcq9QMg9UPANO+7OqZW5c0ar3
RPhkylUOg6lHkBqWiGJ7xxCZltB7zE8KVhBWz2SjWMFR5EkNTm6pqAhUByg1wKFu
DFbmg3nV7iyWv9q5WVrg0W5Z1iE3Fxd3Pa4C1ckb30IzhdRkobZg1TXEy6SWfML5
9QmlWO2JCf7wpwjvQoegGhIS3pw7KmTi5oqR2QqFuYpHh4PhqFeJZjQ9lo903Z/s
OgnPbrxR9V5j6aebxCg1hdDpybdOOoUfxcH2BxmldmSP
-----END CERTIFICATE-----
