Certificate:
    Data:
        Version: 3 (0x2)
        Serial Number: 5159 (0x1427)
    Signature Algorithm: md5WithRSAEncryption
        Issuer: C=US, ST=OH, L=Columbus, O=VikingVPN, OU=MyOrganizationalUnit, CN=VikingVPN CA/name=EasyRSA/emailAddress=me@myhost.mydomain
        Validity
            Not Before: May  4 23:41:47 2015 GMT
            Not After : May  1 23:41:47 2025 GMT
        Subject: CN=Client1643Certfc603a
        Subject Public Key Info:
            Public Key Algorithm: rsaEncryption
                Public-Key: (4096 bit)
                Modulus:
                    00:ef:51:7a:a6:a6:91:a3:f9:d4:ed:61:89:30:3e:
                    b0:0d:f0:e3:ad:91:83:99:e2:01:fe:5a:2e:18:0b:
                    9b:4c:87:d5:fa:64:a5:09:2b:dc:14:31:75:f3:3d:
                    ce:a6:28:a2:30:e4:eb:7f:c8:13:10:f3:09:ef:cf:
                    fb:35:48:9d:01:dc:d9:8e:61:27:00:51:4d:21:2b:
                    0f:59:05:ac:67:31:ee:cc:d8:bc:24:12:84:2a:fd:
                    a6:a4:81:e9:91:21:6d:40:ec:7d:a5:b0:87:3d:ba:
                    e0:c6:fb:7b:c2:ad:0b:be:53:54:de:e7:4d:05:f9:
                    44:27:24:75:59:52:20:f2:3f:80:53:81:6e:89:fd:
                    c1:0f:08:e1:df:fe:a1:07:bd:4e:67:aa:74:9f:fc:
                    38:26:f4:38:c4:06:1b:6a:b6:85:0b:dd:57:b0:59:
                    7f:90:b7:96:51:23:1e:06:fd:92:70:0d:94:0b:a3:
                    ea:e3:29:fe:6c:33:72:26:3d:08:a1:74:b9:00:d0:
                    23:c0:94:19:9d:10:84:68:49:81:82:05:8d:24:2b:
                    8c:4e:c6:eb:59:cb:c6:3f:67:52:a8:d4:7a:89:c8:
                    15:40:ce:1f:36:68:ee:e0:ff:8e:16:9a:39:aa:dc:
                    37:0f:bb:f3:a1:05:01:14:80:3b:b5:0b:27:5c:9c:
                    a3:44:b4:fe:61:8d:93:ce:98:6f:39:e7:38:13:35:
                    81:85:6d:9e:da:e8:02:3e:17:de:f1:28:e6:cb:87:
                    4e:26:73:3e:23:3a:22:97:58:ff:81:46:0e:04:08:
                    1f:3d:0b:cf:7c:1a:d8:5e:8d:91:76:fa:28:81:4d:
                    f0:19:b3:32:b0:aa:4b:8b:23:64:a5:12:32:2e:8b:
                    73:37:36:05:4c:b3:2e:87:d4:b3:45:2b:e5:06:a3:
                    22:62:3d:bd:bf:36:0f:97:f4:b6:6f:59:53:0c:74:
                    f8:9c:91:47:33:4d:e5:8d:9d:91:4a:e7:7f:73:81:
                    94:ea:ae:4b:29:e8:4f:32:84:1d:33:85:94:d2:fe:
                    ab:35:8e:6f:d8:f1:d7:25:83:25:92:63:cc:85:a7:
                    5f:1d:2f:57:5b:a5:ff:07:6d:11:ae:35:b3:64:c0:
                    f0:b3:8e:a0:9f:94:f1:f7:8a:9e:80:fc:d8:03:48:
                    e7:f0:bf:11:40:6f:98:f6:ad:1a:8f:5f:99:85:f5:
                    00:4c:b4:b1:24:23:9a:20:0e:db:bc:0f:64:b9:e7:
                    14:aa:cc:e8:6c:14:81:5b:af:10:67:7e:0b:e9:f5:
                    5f:db:74:65:04:77:11:14:69:77:c6:5d:84:c8:66:
                    59:a3:dc:56:f1:7c:ef:21:0d:af:5c:b4:a2:10:69:
                    82:fd:27
                Exponent: 65537 (0x10001)
        X509v3 extensions:
            X509v3 Basic Constraints: 
                CA:FALSE
            Netscape Comment: 
                Easy-RSA Generated Certificate
            X509v3 Subject Key Identifier: 
                DD:0E:64:3D:43:AA:CF:0F:01:61:16:4B:0D:FC:54:D8:60:06:EA:48
            X509v3 Authority Key Identifier: 
                keyid:12:CD:60:04:D2:A0:80:9E:70:ED:C6:99:B8:7B:2C:C6:52:FD:19:A1
                DirName:/C=US/ST=OH/L=Columbus/O=VikingVPN/OU=MyOrganizationalUnit/CN=VikingVPN CA/name=EasyRSA/emailAddress=me@myhost.mydomain
                serial:CF:35:85:EE:80:BF:2A:3E

            X509v3 Extended Key Usage: 
                TLS Web Client Authentication
            X509v3 Key Usage: 
                Digital Signature
    Signature Algorithm: md5WithRSAEncryption
         81:68:37:a2:e0:d7:af:1c:35:84:49:42:2b:3a:a9:f5:7b:65:
         02:3c:e2:0d:97:08:8c:98:1e:0d:5c:ab:4e:36:4c:4f:58:e2:
         9f:3f:eb:f3:7d:9e:77:db:07:58:3b:98:c3:c7:ca:f4:ce:26:
         81:93:35:bc:fb:92:6a:30:22:a4:1a:42:53:2f:c7:3a:06:67:
         25:25:1f:df:f2:0c:53:69:19:05:58:62:2d:67:cc:95:a2:85:
         65:e0:6f:73:a7:cd:e4:fa:78:69:eb:a9:a2:d1:93:8f:ec:01:
         8c:83:aa:82:b8:9c:ca:32:bf:b2:be:51:cb:0d:f8:95:75:69:
         4d:bc:4f:ca:85:15:61:1d:66:ca:73:90:19:ac:22:8d:c8:84:
         bd:8e:09:ac:07:cb:ca:25:14:e1:6c:cd:3a:84:a9:31:55:6a:
         3f:7e:5c:be:e9:8d:8d:84:e8:98:01:af:f6:e3:88:04:7b:53:
         77:d6:68:f5:1c:5d:3a:12:39:c6:d0:9c:51:72:f3:0b:a0:63:
         bf:35:0a:9a:56:75:12:f4:8b:99:2c:ce:42:55:8a:eb:3a:cc:
         00:16:8e:c1:78:f1:03:3f:e3:32:80:09:54:a9:09:be:4d:bb:
         de:d0:ba:bb:9c:99:a8:fd:69:af:d4:25:d9:34:45:31:31:45:
         61:f9:4d:06:5a:35:63:f1:31:ac:80:18:61:5a:8c:44:1a:fe:
         cd:65:39:c9:1c:0b:49:ea:69:fc:d9:9e:74:2f:a2:fc:f8:93:
         bc:78:08:b6:73:0d:dd:7d:43:82:a0:d9:83:1d:e3:3d:14:30:
         57:86:97:f7:f3:ab:6d:3c:e5:12:44:9e:80:64:f4:48:3a:c6:
         42:c8:85:b3:85:5d:ab:48:ec:5d:34:89:af:89:3a:63:38:86:
         dd:ad:93:87:de:0c:33:43:ad:bd:76:bb:bc:55:b4:0c:57:9b:
         3c:5e:32:3c:01:17:ec:30:4c:67:4e:a9:bd:c5:9a:69:04:3c:
         aa:4b:81:ef:ae:60:44:a6:6b:fd:27:d5:8f:0d:d2:03:35:31:
         84:68:ee:c7:8c:ff:44:4b:c6:cd:7b:6e:e7:4e:3b:7c:42:85:
         5c:83:03:20:f5:71:b9:8a:3b:22:96:56:d2:d4:39:7b:99:90:
         e7:00:a4:72:75:ab:a4:62:57:e1:f6:3f:c0:46:f2:de:d8:7e:
         fe:43:a4:71:b9:2f:d8:00:94:a9:b0:c6:64:18:8b:c7:d4:8c:
         23:2d:3c:44:44:8e:80:3e:a7:8c:4b:00:27:3f:94:9c:94:e4:
         0f:3a:aa:b0:16:18:58:a4:ff:ea:92:93:65:3c:68:9f:01:b9:
         f0:94:33:a7:d2:3e:09:f0
-----BEGIN CERTIFICATE-----
MIIGrTCCBJWgAwIBAgICFCcwDQYJKoZIhvcNAQEEBQAwgawxCzAJBgNVBAYTAlVT
MQswCQYDVQQIEwJPSDERMA8GA1UEBxMIQ29sdW1idXMxEjAQBgNVBAoTCVZpa2lu
Z1ZQTjEdMBsGA1UECxMUTXlPcmdhbml6YXRpb25hbFVuaXQxFTATBgNVBAMTDFZp
a2luZ1ZQTiBDQTEQMA4GA1UEKRMHRWFzeVJTQTEhMB8GCSqGSIb3DQEJARYSbWVA
bXlob3N0Lm15ZG9tYWluMB4XDTE1MDUwNDIzNDE0N1oXDTI1MDUwMTIzNDE0N1ow
HzEdMBsGA1UEAxMUQ2xpZW50MTY0M0NlcnRmYzYwM2EwggIiMA0GCSqGSIb3DQEB
AQUAA4ICDwAwggIKAoICAQDvUXqmppGj+dTtYYkwPrAN8OOtkYOZ4gH+Wi4YC5tM
h9X6ZKUJK9wUMXXzPc6mKKIw5Ot/yBMQ8wnvz/s1SJ0B3NmOYScAUU0hKw9ZBaxn
Me7M2LwkEoQq/aakgemRIW1A7H2lsIc9uuDG+3vCrQu+U1Te500F+UQnJHVZUiDy
P4BTgW6J/cEPCOHf/qEHvU5nqnSf/Dgm9DjEBhtqtoUL3VewWX+Qt5ZRIx4G/ZJw
DZQLo+rjKf5sM3ImPQihdLkA0CPAlBmdEIRoSYGCBY0kK4xOxutZy8Y/Z1Ko1HqJ
yBVAzh82aO7g/44Wmjmq3DcPu/OhBQEUgDu1CydcnKNEtP5hjZPOmG855zgTNYGF
bZ7a6AI+F97xKObLh04mcz4jOiKXWP+BRg4ECB89C898GthejZF2+iiBTfAZszKw
qkuLI2SlEjIui3M3NgVMsy6H1LNFK+UGoyJiPb2/Ng+X9LZvWVMMdPickUczTeWN
nZFK539zgZTqrksp6E8yhB0zhZTS/qs1jm/Y8dclgyWSY8yFp18dL1dbpf8HbRGu
NbNkwPCzjqCflPH3ip6A/NgDSOfwvxFAb5j2rRqPX5mF9QBMtLEkI5ogDtu8D2S5
5xSqzOhsFIFbrxBnfgvp9V/bdGUEdxEUaXfGXYTIZlmj3FbxfO8hDa9ctKIQaYL9
JwIDAQABo4IBYzCCAV8wCQYDVR0TBAIwADAtBglghkgBhvhCAQ0EIBYeRWFzeS1S
U0EgR2VuZXJhdGVkIENlcnRpZmljYXRlMB0GA1UdDgQWBBTdDmQ9Q6rPDwFhFksN
/FTYYAbqSDCB4QYDVR0jBIHZMIHWgBQSzWAE0qCAnnDtxpm4eyzGUv0ZoaGBsqSB
rzCBrDELMAkGA1UEBhMCVVMxCzAJBgNVBAgTAk9IMREwDwYDVQQHEwhDb2x1bWJ1
czESMBAGA1UEChMJVmlraW5nVlBOMR0wGwYDVQQLExRNeU9yZ2FuaXphdGlvbmFs
VW5pdDEVMBMGA1UEAxMMVmlraW5nVlBOIENBMRAwDgYDVQQpEwdFYXN5UlNBMSEw
HwYJKoZIhvcNAQkBFhJtZUBteWhvc3QubXlkb21haW6CCQDPNYXugL8qPjATBgNV
HSUEDDAKBggrBgEFBQcDAjALBgNVHQ8EBAMCB4AwDQYJKoZIhvcNAQEEBQADggIB
AIFoN6Lg168cNYRJQis6qfV7ZQI84g2XCIyYHg1cq042TE9Y4p8/6/N9nnfbB1g7
mMPHyvTOJoGTNbz7kmowIqQaQlMvxzoGZyUlH9/yDFNpGQVYYi1nzJWihWXgb3On
zeT6eGnrqaLRk4/sAYyDqoK4nMoyv7K+UcsN+JV1aU28T8qFFWEdZspzkBmsIo3I
hL2OCawHy8olFOFszTqEqTFVaj9+XL7pjY2E6JgBr/bjiAR7U3fWaPUcXToSOcbQ
nFFy8wugY781CppWdRL0i5kszkJVius6zAAWjsF48QM/4zKACVSpCb5Nu97Quruc
maj9aa/UJdk0RTExRWH5TQZaNWPxMayAGGFajEQa/s1lOckcC0nqafzZnnQvovz4
k7x4CLZzDd19Q4Kg2YMd4z0UMFeGl/fzq2085RJEnoBk9Eg6xkLIhbOFXatI7F00
ia+JOmM4ht2tk4feDDNDrb12u7xVtAxXmzxeMjwBF+wwTGdOqb3FmmkEPKpLge+u
YESma/0n1Y8N0gM1MYRo7seM/0RLxs17budOO3xChVyDAyD1cbmKOyKWVtLUOXuZ
kOcApHJ1q6RiV+H2P8BG8t7Yfv5DpHG5L9gAlKmwxmQYi8fUjCMtPEREjoA+p4xL
ACc/lJyU5A86qrAWGFik/+qSk2U8aJ8BufCUM6fSPgnw
-----END CERTIFICATE-----
