Certificate:
    Data:
        Version: 3 (0x2)
        Serial Number: 5170 (0x1432)
    Signature Algorithm: md5WithRSAEncryption
        Issuer: C=US, ST=OH, L=Columbus, O=VikingVPN, OU=MyOrganizationalUnit, CN=VikingVPN CA/name=EasyRSA/emailAddress=me@myhost.mydomain
        Validity
            Not Before: May  6 17:50:11 2015 GMT
            Not After : May  3 17:50:11 2025 GMT
        Subject: CN=Client1389Cert315a09
        Subject Public Key Info:
            Public Key Algorithm: rsaEncryption
                Public-Key: (4096 bit)
                Modulus:
                    00:e3:cd:e9:3e:99:ff:6e:c5:ee:6f:ea:0a:98:65:
                    95:bc:fc:84:8d:28:84:74:53:ad:4c:f9:89:39:f1:
                    f5:08:96:50:69:19:4b:ef:fe:39:df:9c:6f:6c:15:
                    3d:69:14:6a:50:41:a4:f9:7e:0f:9e:0e:82:55:f2:
                    e8:bf:cd:86:bc:30:b1:cf:9e:54:11:46:3b:66:33:
                    af:94:96:04:73:25:16:0d:e3:ee:76:86:75:48:dc:
                    27:28:f3:59:0d:ed:93:bf:a9:3f:ff:60:72:7a:7f:
                    93:ab:3d:60:aa:4a:2e:12:e5:9a:40:b0:71:b1:ce:
                    2f:d5:fa:35:1b:ad:8b:67:00:3d:b3:9a:dd:1d:c9:
                    ec:b8:e4:d3:a5:a8:5c:5d:2a:1f:04:e8:64:74:18:
                    59:a2:d6:dc:a3:ce:78:19:3c:51:ee:da:6a:b3:3c:
                    dc:c7:7e:42:2c:84:4e:05:0b:c1:5f:c8:a2:61:6d:
                    f5:ca:c8:40:7d:36:32:d9:06:fd:88:52:f0:a6:06:
                    6e:e4:de:5e:e2:8a:ba:9a:a3:7b:fa:e7:0f:fa:b2:
                    e6:06:54:0f:05:b3:e8:cb:93:dc:4e:2c:a2:0b:ac:
                    30:82:bd:53:3b:56:4a:23:cc:54:73:bf:67:bf:6c:
                    ff:d4:16:34:c9:0a:8c:46:0c:57:56:0b:7f:9a:90:
                    8c:5c:45:87:9c:11:a3:6b:e5:a7:24:54:92:56:f1:
                    49:2a:57:9f:b8:0c:2f:16:8a:c0:01:69:7f:10:18:
                    16:78:87:75:8f:ad:95:16:89:04:81:53:d1:86:f5:
                    1b:6d:e4:54:5b:56:e9:5f:76:93:73:f0:36:99:84:
                    df:34:f0:0a:d6:ff:01:1d:b9:2b:6e:7f:32:ca:15:
                    ae:58:3d:dd:a6:88:20:91:13:d9:52:0a:ee:4c:96:
                    df:23:8b:27:a6:1e:87:34:a4:ff:b2:21:b0:b4:3a:
                    54:b7:38:b4:93:74:14:f2:13:bd:c4:c2:c6:2f:76:
                    fe:66:50:03:7c:e8:93:8e:a2:a3:f4:c2:e9:04:7d:
                    68:d2:e3:e0:b3:0a:a0:c9:80:55:59:b6:ef:90:6c:
                    20:4a:36:b4:58:22:a9:87:de:f6:cf:ab:bb:03:c7:
                    ae:d3:59:24:0b:ec:20:f4:81:2c:07:7b:1a:77:20:
                    40:6e:a3:62:d3:c1:b5:6f:6b:13:32:dc:32:be:c8:
                    ba:dd:48:85:2b:c4:02:18:19:bc:0e:f4:1c:fb:26:
                    15:b0:4c:3d:6f:c3:65:91:c0:5e:43:02:f9:11:a3:
                    84:ed:b5:79:01:35:78:f4:da:e5:84:5b:18:2c:1c:
                    f7:d4:15:4e:1d:f6:56:b1:e2:b9:79:a0:89:7a:1b:
                    ed:1f:f7
                Exponent: 65537 (0x10001)
        X509v3 extensions:
            X509v3 Basic Constraints: 
                CA:FALSE
            Netscape Comment: 
                Easy-RSA Generated Certificate
            X509v3 Subject Key Identifier: 
                C6:E3:9D:65:DC:09:D7:D7:44:BC:C8:9A:ED:AB:E6:72:E3:52:DF:8E
            X509v3 Authority Key Identifier: 
                keyid:12:CD:60:04:D2:A0:80:9E:70:ED:C6:99:B8:7B:2C:C6:52:FD:19:A1
                DirName:/C=US/ST=OH/L=Columbus/O=VikingVPN/OU=MyOrganizationalUnit/CN=VikingVPN CA/name=EasyRSA/emailAddress=me@myhost.mydomain
                serial:CF:35:85:EE:80:BF:2A:3E

            X509v3 Extended Key Usage: 
                TLS Web Client Authentication
            X509v3 Key Usage: 
                Digital Signature
    Signature Algorithm: md5WithRSAEncryption
         d7:59:21:81:5b:58:ef:6e:e2:23:84:d9:f5:1e:ab:5a:0f:50:
         77:21:de:cf:fb:93:9f:23:41:a6:36:b2:05:69:11:6d:4a:7b:
         b1:42:1a:77:71:94:e0:f8:aa:bd:76:96:ef:1d:22:73:05:ab:
         10:90:10:aa:09:fe:22:41:9d:72:e2:98:1a:3a:07:3c:7c:10:
         b6:7e:c9:27:20:72:f6:09:62:06:04:26:a1:d1:71:68:af:2a:
         c4:f0:4b:01:0c:45:87:0d:09:86:6e:6b:06:af:89:2b:27:1d:
         16:c4:4a:0d:5c:1c:70:45:0f:a8:a5:71:f7:09:ae:eb:be:e6:
         53:64:97:d6:0b:2a:17:fa:98:29:95:fe:86:cd:15:e2:48:8c:
         6b:ce:87:16:0b:3d:16:dc:03:c1:b6:bb:d7:26:3a:ef:33:30:
         01:4d:2b:96:72:49:38:0c:2e:59:15:94:66:b8:89:c5:5d:e9:
         a9:8b:ac:18:42:9c:52:bd:50:eb:1b:6f:1f:f8:67:33:15:7e:
         de:dd:8d:fa:2f:15:9d:ee:a0:24:7d:8d:3a:3c:36:8e:78:92:
         27:12:58:86:b7:0e:e7:98:80:45:72:59:40:80:2d:a5:0f:5b:
         02:06:84:b7:67:1f:e7:16:46:51:6c:ee:14:2a:c6:0a:a3:72:
         70:d3:f6:01:da:d1:53:45:5a:2e:11:e3:17:25:d3:0e:9d:6c:
         ea:a6:a4:4b:02:34:af:b2:b5:23:e5:61:19:e3:12:4e:40:13:
         fb:e3:09:d7:60:86:fe:b8:39:60:4d:65:31:41:01:6b:f5:44:
         ef:ab:90:67:af:c0:27:b0:6b:53:35:04:c3:5b:17:41:cb:d5:
         74:c2:9c:c3:79:b7:e1:b2:df:f0:91:93:ff:10:2d:86:86:eb:
         27:0f:37:a2:b6:32:24:ae:3c:39:3d:b9:9f:b7:66:c0:90:3a:
         e9:97:e5:02:fc:6c:8a:20:d7:b5:c7:93:fb:6a:32:bb:c3:cd:
         21:44:88:e0:23:3d:4b:88:fe:1b:74:e2:c2:87:18:39:d4:42:
         81:ac:46:9a:cf:e0:a9:83:74:11:4d:74:f9:06:b3:68:be:3e:
         8b:a1:10:2a:99:ec:99:87:e5:75:46:bd:3c:51:41:33:7b:4c:
         34:51:b6:4c:9a:2e:89:cf:75:41:67:bb:40:a7:bc:04:bc:2c:
         c1:65:2d:42:6d:2c:9f:18:1e:69:1d:d1:55:73:cc:ff:c7:d8:
         b2:fb:47:50:bb:00:c4:6b:b7:0d:db:2d:c9:93:d5:6a:46:45:
         93:c0:06:df:9d:55:c0:56:fd:04:0e:be:08:ac:24:cc:0f:fb:
         40:d2:10:76:11:b1:a4:f7
-----BEGIN CERTIFICATE-----
MIIGrTCCBJWgAwIBAgICFDIwDQYJKoZIhvcNAQEEBQAwgawxCzAJBgNVBAYTAlVT
MQswCQYDVQQIEwJPSDERMA8GA1UEBxMIQ29sdW1idXMxEjAQBgNVBAoTCVZpa2lu
Z1ZQTjEdMBsGA1UECxMUTXlPcmdhbml6YXRpb25hbFVuaXQxFTATBgNVBAMTDFZp
a2luZ1ZQTiBDQTEQMA4GA1UEKRMHRWFzeVJTQTEhMB8GCSqGSIb3DQEJARYSbWVA
bXlob3N0Lm15ZG9tYWluMB4XDTE1MDUwNjE3NTAxMVoXDTI1MDUwMzE3NTAxMVow
HzEdMBsGA1UEAxMUQ2xpZW50MTM4OUNlcnQzMTVhMDkwggIiMA0GCSqGSIb3DQEB
AQUAA4ICDwAwggIKAoICAQDjzek+mf9uxe5v6gqYZZW8/ISNKIR0U61M+Yk58fUI
llBpGUvv/jnfnG9sFT1pFGpQQaT5fg+eDoJV8ui/zYa8MLHPnlQRRjtmM6+UlgRz
JRYN4+52hnVI3Cco81kN7ZO/qT//YHJ6f5OrPWCqSi4S5ZpAsHGxzi/V+jUbrYtn
AD2zmt0dyey45NOlqFxdKh8E6GR0GFmi1tyjzngZPFHu2mqzPNzHfkIshE4FC8Ff
yKJhbfXKyEB9NjLZBv2IUvCmBm7k3l7iirqao3v65w/6suYGVA8Fs+jLk9xOLKIL
rDCCvVM7VkojzFRzv2e/bP/UFjTJCoxGDFdWC3+akIxcRYecEaNr5ackVJJW8Ukq
V5+4DC8WisABaX8QGBZ4h3WPrZUWiQSBU9GG9Rtt5FRbVulfdpNz8DaZhN808ArW
/wEduStufzLKFa5YPd2miCCRE9lSCu5Mlt8jiyemHoc0pP+yIbC0OlS3OLSTdBTy
E73EwsYvdv5mUAN86JOOoqP0wukEfWjS4+CzCqDJgFVZtu+QbCBKNrRYIqmH3vbP
q7sDx67TWSQL7CD0gSwHexp3IEBuo2LTwbVvaxMy3DK+yLrdSIUrxAIYGbwO9Bz7
JhWwTD1vw2WRwF5DAvkRo4TttXkBNXj02uWEWxgsHPfUFU4d9lax4rl5oIl6G+0f
9wIDAQABo4IBYzCCAV8wCQYDVR0TBAIwADAtBglghkgBhvhCAQ0EIBYeRWFzeS1S
U0EgR2VuZXJhdGVkIENlcnRpZmljYXRlMB0GA1UdDgQWBBTG451l3AnX10S8yJrt
q+Zy41LfjjCB4QYDVR0jBIHZMIHWgBQSzWAE0qCAnnDtxpm4eyzGUv0ZoaGBsqSB
rzCBrDELMAkGA1UEBhMCVVMxCzAJBgNVBAgTAk9IMREwDwYDVQQHEwhDb2x1bWJ1
czESMBAGA1UEChMJVmlraW5nVlBOMR0wGwYDVQQLExRNeU9yZ2FuaXphdGlvbmFs
VW5pdDEVMBMGA1UEAxMMVmlraW5nVlBOIENBMRAwDgYDVQQpEwdFYXN5UlNBMSEw
HwYJKoZIhvcNAQkBFhJtZUBteWhvc3QubXlkb21haW6CCQDPNYXugL8qPjATBgNV
HSUEDDAKBggrBgEFBQcDAjALBgNVHQ8EBAMCB4AwDQYJKoZIhvcNAQEEBQADggIB
ANdZIYFbWO9u4iOE2fUeq1oPUHch3s/7k58jQaY2sgVpEW1Ke7FCGndxlOD4qr12
lu8dInMFqxCQEKoJ/iJBnXLimBo6Bzx8ELZ+yScgcvYJYgYEJqHRcWivKsTwSwEM
RYcNCYZuawaviSsnHRbESg1cHHBFD6ilcfcJruu+5lNkl9YLKhf6mCmV/obNFeJI
jGvOhxYLPRbcA8G2u9cmOu8zMAFNK5ZySTgMLlkVlGa4icVd6amLrBhCnFK9UOsb
bx/4ZzMVft7djfovFZ3uoCR9jTo8No54kicSWIa3DueYgEVyWUCALaUPWwIGhLdn
H+cWRlFs7hQqxgqjcnDT9gHa0VNFWi4R4xcl0w6dbOqmpEsCNK+ytSPlYRnjEk5A
E/vjCddghv64OWBNZTFBAWv1RO+rkGevwCewa1M1BMNbF0HL1XTCnMN5t+Gy3/CR
k/8QLYaG6ycPN6K2MiSuPDk9uZ+3ZsCQOumX5QL8bIog17XHk/tqMrvDzSFEiOAj
PUuI/ht04sKHGDnUQoGsRprP4KmDdBFNdPkGs2i+PouhECqZ7JmH5XVGvTxRQTN7
TDRRtkyaLonPdUFnu0CnvAS8LMFlLUJtLJ8YHmkd0VVzzP/H2LL7R1C7AMRrtw3b
LcmT1WpGRZPABt+dVcBW/QQOvgisJMwP+0DSEHYRsaT3
-----END CERTIFICATE-----
