Certificate:
    Data:
        Version: 3 (0x2)
        Serial Number: 5192 (0x1448)
    Signature Algorithm: md5WithRSAEncryption
        Issuer: C=US, ST=OH, L=Columbus, O=VikingVPN, OU=MyOrganizationalUnit, CN=VikingVPN CA/name=EasyRSA/emailAddress=me@myhost.mydomain
        Validity
            Not Before: May  9 01:29:27 2015 GMT
            Not After : May  6 01:29:27 2025 GMT
        Subject: CN=Client650Certae3cff
        Subject Public Key Info:
            Public Key Algorithm: rsaEncryption
                Public-Key: (4096 bit)
                Modulus:
                    00:ed:b7:c5:aa:37:89:4c:a0:65:cb:06:d3:f7:0a:
                    8d:c6:4d:3d:17:a2:eb:1a:26:fd:f2:a1:34:67:59:
                    d0:6f:14:38:30:9f:fd:35:80:cd:58:e2:af:0a:a6:
                    ea:ca:0c:8b:d2:a9:3a:1a:25:f0:60:b6:19:cc:92:
                    cb:82:c5:ef:44:77:0d:06:a1:26:9a:c9:37:cd:18:
                    b4:03:90:0e:82:8d:09:1c:d1:81:4e:81:62:1d:b8:
                    49:03:3c:08:17:35:9d:e9:de:bd:58:d6:29:0d:0f:
                    69:23:c2:41:f3:d1:99:df:5a:6a:69:0e:75:13:ab:
                    e2:8d:47:1e:ec:58:51:0f:d4:66:c4:5f:b0:d6:b4:
                    12:c4:f8:e9:8d:b7:6c:25:7d:bd:b7:7d:d5:de:90:
                    99:79:44:be:0c:58:74:ed:46:93:5a:82:05:eb:db:
                    22:72:04:f2:35:84:1c:02:57:78:76:41:ad:fe:a7:
                    ed:3d:04:d4:1b:9b:27:99:f1:b8:ff:a5:51:ec:5c:
                    91:c9:c1:26:7c:4f:6e:e3:ad:63:40:29:d7:ba:26:
                    02:9d:10:51:76:db:04:01:47:15:8b:ea:d2:97:ce:
                    02:89:d8:9e:f2:0f:d5:3d:43:00:d1:1e:fb:01:42:
                    79:20:7a:8e:8b:79:71:55:4c:50:1c:f6:5a:83:be:
                    ff:7b:3d:1e:80:ab:d3:24:1c:23:17:ff:e8:d0:ee:
                    63:c0:65:63:06:83:ea:93:e0:c8:fd:13:86:41:53:
                    8d:97:0f:e0:cd:99:31:b2:b2:34:10:5b:45:4c:18:
                    cf:5c:09:d3:a1:a6:7a:98:aa:7c:76:87:bd:26:16:
                    b1:57:3e:77:7f:48:02:6e:5e:1a:af:a9:69:f0:9e:
                    d6:8c:85:a2:58:b7:f0:71:91:e3:86:2f:4c:ee:4e:
                    a5:fc:e7:d9:ae:a2:c2:69:29:c3:d5:f3:95:0d:04:
                    04:fe:c8:43:c3:13:d7:b1:b6:08:7f:e4:78:7f:bf:
                    cf:7d:05:54:84:b7:b3:11:30:b3:4d:17:ea:2d:2f:
                    93:34:1c:de:3a:28:04:e2:68:5d:95:28:da:4c:b2:
                    c1:1f:7b:3d:fd:b2:25:c7:5d:14:9c:a7:ad:65:79:
                    46:22:79:63:8f:85:09:2b:9a:e7:79:13:b6:b7:88:
                    c9:70:7d:7b:e6:65:0e:de:de:8d:c9:27:84:44:c2:
                    6e:29:3f:31:96:aa:dd:86:0a:be:ad:88:a3:d2:45:
                    4d:4f:01:c5:19:15:d4:36:fd:bf:2d:69:b3:fc:91:
                    25:dd:e9:df:ac:39:00:6e:fe:a0:47:2b:f5:5e:59:
                    9f:14:66:55:71:e2:65:e7:86:7a:b6:a8:22:74:44:
                    ae:10:4b
                Exponent: 65537 (0x10001)
        X509v3 extensions:
            X509v3 Basic Constraints: 
                CA:FALSE
            Netscape Comment: 
                Easy-RSA Generated Certificate
            X509v3 Subject Key Identifier: 
                D5:7B:09:BD:B0:04:F6:0F:43:86:54:51:6F:C4:6A:3B:4E:EA:F2:D4
            X509v3 Authority Key Identifier: 
                keyid:12:CD:60:04:D2:A0:80:9E:70:ED:C6:99:B8:7B:2C:C6:52:FD:19:A1
                DirName:/C=US/ST=OH/L=Columbus/O=VikingVPN/OU=MyOrganizationalUnit/CN=VikingVPN CA/name=EasyRSA/emailAddress=me@myhost.mydomain
                serial:CF:35:85:EE:80:BF:2A:3E

            X509v3 Extended Key Usage: 
                TLS Web Client Authentication
            X509v3 Key Usage: 
                Digital Signature
    Signature Algorithm: md5WithRSAEncryption
         b0:9e:89:7d:17:83:b7:b2:29:ca:45:02:4c:d6:29:f2:9c:09:
         b1:3b:09:ee:7a:25:64:2d:f7:c5:64:3d:74:b8:6a:07:5a:d4:
         32:3d:c8:d9:f0:45:78:27:b2:33:f6:2f:b9:3d:94:15:1a:54:
         2d:29:04:52:b7:d2:e0:b6:8d:8b:9a:14:06:42:b7:90:7c:b8:
         19:d0:6c:7d:50:aa:cd:bf:47:2c:c4:37:81:17:40:e5:d0:a2:
         d9:4d:3b:4d:c7:f9:15:49:41:51:2a:71:d2:84:86:09:c8:94:
         21:bf:cf:10:5d:28:65:7d:68:d7:5a:98:e0:6c:26:21:da:0b:
         a3:89:f2:04:9a:40:e7:68:71:88:3b:a3:de:49:f3:69:3c:6c:
         3a:c4:05:72:16:13:1b:62:c2:49:b2:bf:0f:21:35:57:af:b3:
         a7:36:ff:6b:a5:e1:33:6f:51:d2:d9:5c:0b:c4:70:00:fc:d0:
         50:b1:fb:cc:0f:bd:86:71:74:fe:af:e0:b1:df:06:6a:dd:46:
         8c:a3:4d:cf:cf:85:3a:4d:06:bf:7a:34:4c:e3:39:8e:53:5a:
         4e:26:d4:5c:3a:07:fc:e9:e1:d8:9e:02:06:03:74:26:96:3e:
         f9:b9:4e:1e:da:d2:9c:a6:29:62:a3:a4:90:65:90:ca:bd:98:
         91:4e:35:30:73:90:92:d2:9a:fd:6e:c5:f7:74:a6:86:d6:79:
         33:0e:78:7d:4c:cf:3f:65:b1:3a:88:da:af:06:1f:45:5f:22:
         d5:2c:c7:ad:8d:dc:1e:38:0e:94:39:b8:d2:32:79:48:5d:38:
         7e:c5:7c:43:bb:9d:e6:49:f1:bd:35:c8:43:57:58:3d:d6:35:
         dd:31:bf:42:e1:ad:64:0b:a1:14:00:fe:02:20:e2:19:2f:4c:
         32:4e:fb:d0:25:b1:c0:65:f1:a5:d0:4a:d3:9d:b0:69:c3:ba:
         47:eb:6d:a1:8a:d7:0c:e0:0c:c5:64:e3:16:66:ee:af:e9:58:
         1e:70:3b:c7:17:33:ca:77:d9:eb:52:e6:c2:a3:d2:bd:0d:00:
         f8:bd:6c:bc:bd:8b:79:6e:ca:50:a0:68:0c:0c:bc:af:79:12:
         c4:06:8c:dc:3d:f4:6a:fb:02:c3:9c:b1:7e:ff:d1:94:be:c4:
         3b:a4:31:f5:ce:7f:db:0c:d4:f4:91:97:31:9f:28:5f:6a:32:
         b8:fe:34:22:81:61:ee:b0:ed:52:55:41:f3:39:23:4c:bf:1d:
         86:3a:ca:9b:65:c4:1a:6f:1c:de:cb:5b:81:f6:4a:4f:f0:72:
         20:19:da:93:23:9c:97:7c:f1:bc:25:15:28:a8:7d:d9:8d:35:
         e0:05:ab:3a:fd:f4:a8:d6
-----BEGIN CERTIFICATE-----
MIIGrDCCBJSgAwIBAgICFEgwDQYJKoZIhvcNAQEEBQAwgawxCzAJBgNVBAYTAlVT
MQswCQYDVQQIEwJPSDERMA8GA1UEBxMIQ29sdW1idXMxEjAQBgNVBAoTCVZpa2lu
Z1ZQTjEdMBsGA1UECxMUTXlPcmdhbml6YXRpb25hbFVuaXQxFTATBgNVBAMTDFZp
a2luZ1ZQTiBDQTEQMA4GA1UEKRMHRWFzeVJTQTEhMB8GCSqGSIb3DQEJARYSbWVA
bXlob3N0Lm15ZG9tYWluMB4XDTE1MDUwOTAxMjkyN1oXDTI1MDUwNjAxMjkyN1ow
HjEcMBoGA1UEAxMTQ2xpZW50NjUwQ2VydGFlM2NmZjCCAiIwDQYJKoZIhvcNAQEB
BQADggIPADCCAgoCggIBAO23xao3iUygZcsG0/cKjcZNPRei6xom/fKhNGdZ0G8U
ODCf/TWAzVjirwqm6soMi9KpOhol8GC2GcySy4LF70R3DQahJprJN80YtAOQDoKN
CRzRgU6BYh24SQM8CBc1nenevVjWKQ0PaSPCQfPRmd9aamkOdROr4o1HHuxYUQ/U
ZsRfsNa0EsT46Y23bCV9vbd91d6QmXlEvgxYdO1Gk1qCBevbInIE8jWEHAJXeHZB
rf6n7T0E1BubJ5nxuP+lUexckcnBJnxPbuOtY0Ap17omAp0QUXbbBAFHFYvq0pfO
AonYnvIP1T1DANEe+wFCeSB6jot5cVVMUBz2WoO+/3s9HoCr0yQcIxf/6NDuY8Bl
YwaD6pPgyP0ThkFTjZcP4M2ZMbKyNBBbRUwYz1wJ06GmepiqfHaHvSYWsVc+d39I
Am5eGq+pafCe1oyFoli38HGR44YvTO5Opfzn2a6iwmkpw9XzlQ0EBP7IQ8MT17G2
CH/keH+/z30FVIS3sxEws00X6i0vkzQc3jooBOJoXZUo2kyywR97Pf2yJcddFJyn
rWV5RiJ5Y4+FCSua53kTtreIyXB9e+ZlDt7ejcknhETCbik/MZaq3YYKvq2Io9JF
TU8BxRkV1Db9vy1ps/yRJd3p36w5AG7+oEcr9V5ZnxRmVXHiZeeGeraoInRErhBL
AgMBAAGjggFjMIIBXzAJBgNVHRMEAjAAMC0GCWCGSAGG+EIBDQQgFh5FYXN5LVJT
QSBHZW5lcmF0ZWQgQ2VydGlmaWNhdGUwHQYDVR0OBBYEFNV7Cb2wBPYPQ4ZUUW/E
ajtO6vLUMIHhBgNVHSMEgdkwgdaAFBLNYATSoICecO3Gmbh7LMZS/RmhoYGypIGv
MIGsMQswCQYDVQQGEwJVUzELMAkGA1UECBMCT0gxETAPBgNVBAcTCENvbHVtYnVz
MRIwEAYDVQQKEwlWaWtpbmdWUE4xHTAbBgNVBAsTFE15T3JnYW5pemF0aW9uYWxV
bml0MRUwEwYDVQQDEwxWaWtpbmdWUE4gQ0ExEDAOBgNVBCkTB0Vhc3lSU0ExITAf
BgkqhkiG9w0BCQEWEm1lQG15aG9zdC5teWRvbWFpboIJAM81he6Avyo+MBMGA1Ud
JQQMMAoGCCsGAQUFBwMCMAsGA1UdDwQEAwIHgDANBgkqhkiG9w0BAQQFAAOCAgEA
sJ6JfReDt7IpykUCTNYp8pwJsTsJ7nolZC33xWQ9dLhqB1rUMj3I2fBFeCeyM/Yv
uT2UFRpULSkEUrfS4LaNi5oUBkK3kHy4GdBsfVCqzb9HLMQ3gRdA5dCi2U07Tcf5
FUlBUSpx0oSGCciUIb/PEF0oZX1o11qY4GwmIdoLo4nyBJpA52hxiDuj3knzaTxs
OsQFchYTG2LCSbK/DyE1V6+zpzb/a6XhM29R0tlcC8RwAPzQULH7zA+9hnF0/q/g
sd8Gat1GjKNNz8+FOk0Gv3o0TOM5jlNaTibUXDoH/Onh2J4CBgN0JpY++blOHtrS
nKYpYqOkkGWQyr2YkU41MHOQktKa/W7F93SmhtZ5Mw54fUzPP2WxOojarwYfRV8i
1SzHrY3cHjgOlDm40jJ5SF04fsV8Q7ud5knxvTXIQ1dYPdY13TG/QuGtZAuhFAD+
AiDiGS9MMk770CWxwGXxpdBK052wacO6R+ttoYrXDOAMxWTjFmbur+lYHnA7xxcz
ynfZ61LmwqPSvQ0A+L1svL2LeW7KUKBoDAy8r3kSxAaM3D30avsCw5yxfv/RlL7E
O6Qx9c5/2wzU9JGXMZ8oX2oyuP40IoFh7rDtUlVB8zkjTL8dhjrKm2XEGm8c3stb
gfZKT/ByIBnakyOcl3zxvCUVKKh92Y014AWrOv30qNY=
-----END CERTIFICATE-----
