Certificate:
    Data:
        Version: 3 (0x2)
        Serial Number: 5217 (0x1461)
    Signature Algorithm: md5WithRSAEncryption
        Issuer: C=US, ST=OH, L=Columbus, O=VikingVPN, OU=MyOrganizationalUnit, CN=VikingVPN CA/name=EasyRSA/emailAddress=me@myhost.mydomain
        Validity
            Not Before: May 11 18:33:31 2015 GMT
            Not After : May  8 18:33:31 2025 GMT
        Subject: CN=Client897Cert4783f9
        Subject Public Key Info:
            Public Key Algorithm: rsaEncryption
                Public-Key: (4096 bit)
                Modulus:
                    00:f6:bd:c5:b0:8b:9b:d7:87:42:9b:a1:04:70:3a:
                    ef:24:94:51:5a:1a:95:ba:bc:ef:69:6a:40:3b:e8:
                    97:fe:96:94:51:72:1c:c6:24:1a:1e:a7:25:12:e2:
                    7e:9d:ea:69:37:51:f1:10:74:de:d3:e1:25:ff:06:
                    db:9d:03:c2:b6:8c:c6:40:db:6d:6d:9c:8c:2f:5b:
                    bd:00:e0:9e:38:f1:1e:7b:b1:08:8c:7b:71:81:58:
                    73:db:a6:0a:a7:84:b0:df:67:13:01:5d:3c:d9:a2:
                    d5:1c:8f:65:a5:3c:cd:0d:cb:29:f1:3e:c3:52:d7:
                    71:5a:f0:12:b7:3b:c5:c3:81:b4:dd:f1:2f:3f:3c:
                    e1:25:23:9a:90:94:1a:90:96:ea:03:39:33:62:e9:
                    33:6e:ad:63:aa:b2:c9:67:a9:9b:1b:c5:5e:64:fa:
                    49:11:21:5c:dc:df:6d:ab:76:85:47:7a:e9:0a:ec:
                    94:b1:1e:e3:8f:33:a6:a2:d1:d9:b1:83:84:15:b6:
                    b6:0d:47:e1:5b:9c:eb:69:d5:aa:e1:9f:b5:aa:bb:
                    8d:e7:ee:bd:25:4d:25:80:9c:63:60:2c:31:57:1c:
                    9a:e9:bc:23:fd:92:88:44:07:05:5a:4a:ce:b8:e9:
                    42:86:34:7c:c0:90:ce:37:6d:81:98:db:49:09:b8:
                    e1:8c:61:08:b8:2d:ce:c8:63:16:7d:70:d3:52:85:
                    e8:37:9d:61:a2:9b:5a:ef:51:58:a4:c5:9d:8e:28:
                    7a:4c:4c:46:b2:b0:08:3a:eb:68:cd:4d:df:49:c3:
                    29:04:a6:c4:50:2a:a1:7d:d9:99:fd:0a:28:10:df:
                    2e:2b:1d:a7:29:5e:b1:6f:f1:23:a7:61:62:8d:af:
                    90:47:a4:ef:c8:31:8c:18:65:95:ef:38:05:46:3f:
                    fc:01:a8:f5:cd:88:8c:40:2a:68:cf:ce:d5:5f:64:
                    24:fb:4a:1f:4a:4b:d8:5c:a0:8a:fd:6e:76:c8:b9:
                    97:5d:a7:ca:8a:d6:45:0c:fb:72:b9:7d:87:32:47:
                    e0:bd:a1:28:3c:ea:da:4f:cd:1d:ed:f6:db:9d:4d:
                    4c:ca:9c:70:01:e4:fa:42:b1:fc:25:df:97:d2:4b:
                    38:c3:37:19:8d:3b:87:71:21:9d:ba:3e:60:fa:90:
                    a0:23:5f:70:a7:ea:35:eb:72:ff:05:c4:3a:c4:d3:
                    da:92:cb:09:d7:e6:65:fa:73:1f:6e:1a:fe:9f:08:
                    18:53:df:32:e5:39:cb:c1:84:aa:22:35:1f:e5:e3:
                    6f:5f:8d:63:59:3d:7f:33:77:67:64:3d:9a:83:6d:
                    2a:c3:97:94:32:27:cb:ac:58:9f:d0:96:29:c5:d3:
                    7c:fb:0d
                Exponent: 65537 (0x10001)
        X509v3 extensions:
            X509v3 Basic Constraints: 
                CA:FALSE
            Netscape Comment: 
                Easy-RSA Generated Certificate
            X509v3 Subject Key Identifier: 
                70:C2:8B:BB:92:74:D0:B9:AC:33:B2:3D:B5:06:90:8B:31:F2:55:1A
            X509v3 Authority Key Identifier: 
                keyid:12:CD:60:04:D2:A0:80:9E:70:ED:C6:99:B8:7B:2C:C6:52:FD:19:A1
                DirName:/C=US/ST=OH/L=Columbus/O=VikingVPN/OU=MyOrganizationalUnit/CN=VikingVPN CA/name=EasyRSA/emailAddress=me@myhost.mydomain
                serial:CF:35:85:EE:80:BF:2A:3E

            X509v3 Extended Key Usage: 
                TLS Web Client Authentication
            X509v3 Key Usage: 
                Digital Signature
    Signature Algorithm: md5WithRSAEncryption
         81:84:53:50:75:91:81:fe:41:fa:c5:c8:5a:49:1b:2a:69:74:
         c3:59:34:cd:7e:00:8d:42:a3:36:c2:42:fe:d0:56:5f:07:e7:
         6f:23:d0:e1:a7:4c:62:17:dc:fa:c4:da:fa:18:12:c3:d9:af:
         22:75:5b:e5:4f:19:bf:a5:42:7d:ff:d4:e4:22:d3:f5:43:3b:
         ab:31:bc:84:0b:d5:4f:c3:18:5b:a2:93:51:1d:a6:89:d5:68:
         8f:50:6b:04:9e:4e:e9:a4:e3:13:1e:d8:27:1e:18:96:c2:d2:
         dd:7a:00:8e:44:a2:ad:4c:63:15:7a:1c:17:f4:41:e5:60:10:
         1d:5b:79:9d:aa:e0:4a:db:37:a1:bf:92:28:28:b7:c1:ee:48:
         54:d6:ed:f7:82:6c:d5:84:b6:71:87:7d:ed:96:08:2f:72:91:
         30:8f:72:10:09:ff:3b:9c:e5:70:ee:1d:43:fb:ca:d5:0c:b2:
         0c:d7:d2:0b:a9:12:06:de:c0:91:5b:c0:10:f5:8f:6c:5a:c1:
         c0:ab:ad:c6:5c:18:21:1e:be:8f:b5:a3:9c:30:ff:1c:2a:7a:
         0a:d2:ea:82:6a:a3:cc:fd:8d:5b:59:27:ef:b0:a2:51:53:a8:
         f1:1b:a1:b8:18:e5:bd:12:7d:77:68:05:54:0c:1d:d7:f6:6a:
         5b:a5:37:d6:51:2c:06:d0:d1:ca:af:6c:1c:c2:39:eb:e2:56:
         7b:7a:6f:2b:74:2f:09:63:a3:49:52:7f:ea:df:59:34:19:c0:
         1f:7d:bf:2a:8a:fb:13:28:dd:ed:23:f2:31:8b:ef:51:1f:02:
         36:72:a2:f8:92:43:08:28:37:a1:4d:15:8e:07:bd:10:25:58:
         9d:d0:bf:c8:15:cb:c5:e7:df:f2:34:61:3d:33:f3:40:35:17:
         98:a5:c6:cc:ce:ef:60:b8:0d:d8:a4:4d:a3:7e:49:44:d5:a2:
         77:9d:cd:ce:20:63:a5:d5:ae:a7:78:3b:80:5b:d6:2e:63:c2:
         0f:8c:77:2d:af:3c:b8:09:78:40:b4:6b:2f:65:ab:80:4f:e7:
         64:ec:65:fa:46:47:97:85:9d:56:d6:f6:6a:c8:ff:fe:fb:16:
         26:94:f5:dc:df:5d:33:4c:e3:35:c7:ba:9f:f8:dc:3e:fa:24:
         ba:76:d6:6d:af:e7:4c:35:1f:dd:fc:d4:b0:eb:22:f5:64:78:
         84:08:e3:69:a5:53:49:2b:88:26:eb:33:7d:3c:25:cd:ae:35:
         67:70:8d:60:32:a7:7f:a8:5f:26:2e:2d:38:47:c7:33:a6:4e:
         ac:e1:5e:2b:76:21:56:a2:da:e1:b5:b5:1d:a5:dd:da:8a:ff:
         0b:e3:4b:a1:c8:d7:90:24
-----BEGIN CERTIFICATE-----
MIIGrDCCBJSgAwIBAgICFGEwDQYJKoZIhvcNAQEEBQAwgawxCzAJBgNVBAYTAlVT
MQswCQYDVQQIEwJPSDERMA8GA1UEBxMIQ29sdW1idXMxEjAQBgNVBAoTCVZpa2lu
Z1ZQTjEdMBsGA1UECxMUTXlPcmdhbml6YXRpb25hbFVuaXQxFTATBgNVBAMTDFZp
a2luZ1ZQTiBDQTEQMA4GA1UEKRMHRWFzeVJTQTEhMB8GCSqGSIb3DQEJARYSbWVA
bXlob3N0Lm15ZG9tYWluMB4XDTE1MDUxMTE4MzMzMVoXDTI1MDUwODE4MzMzMVow
HjEcMBoGA1UEAxMTQ2xpZW50ODk3Q2VydDQ3ODNmOTCCAiIwDQYJKoZIhvcNAQEB
BQADggIPADCCAgoCggIBAPa9xbCLm9eHQpuhBHA67ySUUVoalbq872lqQDvol/6W
lFFyHMYkGh6nJRLifp3qaTdR8RB03tPhJf8G250DwraMxkDbbW2cjC9bvQDgnjjx
HnuxCIx7cYFYc9umCqeEsN9nEwFdPNmi1RyPZaU8zQ3LKfE+w1LXcVrwErc7xcOB
tN3xLz884SUjmpCUGpCW6gM5M2LpM26tY6qyyWepmxvFXmT6SREhXNzfbat2hUd6
6QrslLEe448zpqLR2bGDhBW2tg1H4Vuc62nVquGftaq7jefuvSVNJYCcY2AsMVcc
mum8I/2SiEQHBVpKzrjpQoY0fMCQzjdtgZjbSQm44YxhCLgtzshjFn1w01KF6Ded
YaKbWu9RWKTFnY4oekxMRrKwCDrraM1N30nDKQSmxFAqoX3Zmf0KKBDfLisdpyle
sW/xI6dhYo2vkEek78gxjBhlle84BUY//AGo9c2IjEAqaM/O1V9kJPtKH0pL2Fyg
iv1udsi5l12nyorWRQz7crl9hzJH4L2hKDzq2k/NHe32251NTMqccAHk+kKx/CXf
l9JLOMM3GY07h3Ehnbo+YPqQoCNfcKfqNety/wXEOsTT2pLLCdfmZfpzH24a/p8I
GFPfMuU5y8GEqiI1H+Xjb1+NY1k9fzN3Z2Q9moNtKsOXlDIny6xYn9CWKcXTfPsN
AgMBAAGjggFjMIIBXzAJBgNVHRMEAjAAMC0GCWCGSAGG+EIBDQQgFh5FYXN5LVJT
QSBHZW5lcmF0ZWQgQ2VydGlmaWNhdGUwHQYDVR0OBBYEFHDCi7uSdNC5rDOyPbUG
kIsx8lUaMIHhBgNVHSMEgdkwgdaAFBLNYATSoICecO3Gmbh7LMZS/RmhoYGypIGv
MIGsMQswCQYDVQQGEwJVUzELMAkGA1UECBMCT0gxETAPBgNVBAcTCENvbHVtYnVz
MRIwEAYDVQQKEwlWaWtpbmdWUE4xHTAbBgNVBAsTFE15T3JnYW5pemF0aW9uYWxV
bml0MRUwEwYDVQQDEwxWaWtpbmdWUE4gQ0ExEDAOBgNVBCkTB0Vhc3lSU0ExITAf
BgkqhkiG9w0BCQEWEm1lQG15aG9zdC5teWRvbWFpboIJAM81he6Avyo+MBMGA1Ud
JQQMMAoGCCsGAQUFBwMCMAsGA1UdDwQEAwIHgDANBgkqhkiG9w0BAQQFAAOCAgEA
gYRTUHWRgf5B+sXIWkkbKml0w1k0zX4AjUKjNsJC/tBWXwfnbyPQ4adMYhfc+sTa
+hgSw9mvInVb5U8Zv6VCff/U5CLT9UM7qzG8hAvVT8MYW6KTUR2midVoj1BrBJ5O
6aTjEx7YJx4YlsLS3XoAjkSirUxjFXocF/RB5WAQHVt5nargSts3ob+SKCi3we5I
VNbt94Js1YS2cYd97ZYIL3KRMI9yEAn/O5zlcO4dQ/vK1QyyDNfSC6kSBt7AkVvA
EPWPbFrBwKutxlwYIR6+j7WjnDD/HCp6CtLqgmqjzP2NW1kn77CiUVOo8RuhuBjl
vRJ9d2gFVAwd1/ZqW6U31lEsBtDRyq9sHMI56+JWe3pvK3QvCWOjSVJ/6t9ZNBnA
H32/Kor7Eyjd7SPyMYvvUR8CNnKi+JJDCCg3oU0Vjge9ECVYndC/yBXLxeff8jRh
PTPzQDUXmKXGzM7vYLgN2KRNo35JRNWid53NziBjpdWup3g7gFvWLmPCD4x3La88
uAl4QLRrL2WrgE/nZOxl+kZHl4WdVtb2asj//vsWJpT13N9dM0zjNce6n/jcPvok
unbWba/nTDUf3fzUsOsi9WR4hAjjaaVTSSuIJuszfTwlza41Z3CNYDKnf6hfJi4t
OEfHM6ZOrOFeK3YhVqLa4bW1HaXd2or/C+NLocjXkCQ=
-----END CERTIFICATE-----
