Certificate:
    Data:
        Version: 3 (0x2)
        Serial Number: 5223 (0x1467)
    Signature Algorithm: md5WithRSAEncryption
        Issuer: C=US, ST=OH, L=Columbus, O=VikingVPN, OU=MyOrganizationalUnit, CN=VikingVPN CA/name=EasyRSA/emailAddress=me@myhost.mydomain
        Validity
            Not Before: May 12 03:16:18 2015 GMT
            Not After : May  9 03:16:18 2025 GMT
        Subject: CN=Client1674Certe1ed08
        Subject Public Key Info:
            Public Key Algorithm: rsaEncryption
                Public-Key: (4096 bit)
                Modulus:
                    00:aa:44:69:ec:64:ea:1b:17:37:11:8c:41:26:1c:
                    74:d4:1e:d2:41:0f:2e:d8:8e:4c:98:17:b2:d5:ea:
                    04:94:6c:c9:87:ed:61:c4:43:7c:e5:c7:37:2d:19:
                    4c:5d:74:df:24:b1:25:8f:f6:97:3a:45:0e:44:3c:
                    40:74:0c:2a:0d:49:5d:44:7b:ec:31:2c:aa:8f:41:
                    e0:f3:26:9f:27:45:7e:27:55:15:9f:20:2b:db:01:
                    16:d1:52:c0:02:50:47:ab:a3:38:1f:b6:45:78:14:
                    a4:47:7c:bb:5f:e2:1c:77:68:63:c6:12:00:77:b2:
                    e4:ad:3e:f5:d7:c6:8a:b1:e9:19:e7:91:df:9d:fa:
                    0e:f9:9d:60:a6:c6:3e:73:f5:d8:1b:46:1d:58:bd:
                    30:55:92:2a:57:9b:e0:b5:24:df:e0:82:8c:c7:47:
                    92:bb:19:15:dd:92:1a:74:1d:78:6b:ab:1e:1d:f9:
                    d7:54:e1:23:49:c3:60:f0:b0:4c:f7:77:3c:44:64:
                    d1:2a:64:f1:83:ea:5b:a0:f5:58:5f:65:86:48:e8:
                    a2:22:ea:dc:db:e3:03:3f:36:a0:63:9f:70:aa:e2:
                    7c:f1:8b:af:ac:35:2e:80:5e:89:8e:5d:6a:69:34:
                    e2:d6:4d:f6:9b:dd:ee:53:21:ff:40:88:68:ed:8f:
                    0d:24:a9:6b:78:26:3e:0c:a6:7d:1b:0d:c7:df:44:
                    b7:dd:7d:ba:06:41:b9:a4:d4:8b:d4:3a:ef:a2:cf:
                    f5:89:47:df:e2:0f:26:8d:aa:77:e4:f0:7c:bd:e3:
                    5d:09:ee:ea:15:d6:cd:2b:ad:16:f8:cf:76:97:89:
                    26:20:1b:4e:b6:d4:12:ee:8b:05:2a:a9:4b:66:08:
                    21:bd:cd:3e:94:11:82:f9:84:20:8e:c5:07:b5:ad:
                    02:de:43:a6:ac:16:4b:58:33:e1:ff:f5:db:b7:a6:
                    ee:a6:1d:b3:cf:1f:4f:02:3d:ba:4e:d0:05:4d:e1:
                    21:bc:7c:51:9d:0f:33:2b:11:b8:6b:e1:6f:a5:22:
                    dc:c1:67:96:2d:00:66:68:27:2d:73:0b:d8:97:63:
                    5e:9b:b2:83:51:32:d0:4d:3e:30:b2:25:4b:5b:3c:
                    16:5c:65:82:c5:09:c1:8b:ee:e8:c2:97:96:5d:5f:
                    d0:e6:b5:25:1a:65:78:98:46:59:0b:71:2d:4f:ad:
                    21:f9:da:5e:a5:af:c0:7f:ba:fe:e9:e3:97:b6:c5:
                    8c:4c:52:c8:3f:98:e6:9a:ad:11:4f:da:c4:eb:dc:
                    39:47:07:d7:fd:50:63:49:ae:f4:f0:ed:95:e4:89:
                    71:21:52:75:31:c2:ae:92:2c:1d:72:f2:18:7e:6f:
                    80:0e:2b
                Exponent: 65537 (0x10001)
        X509v3 extensions:
            X509v3 Basic Constraints: 
                CA:FALSE
            Netscape Comment: 
                Easy-RSA Generated Certificate
            X509v3 Subject Key Identifier: 
                2B:A3:31:8F:0F:67:76:DC:12:04:BD:D7:D7:AA:2A:88:F2:B4:33:15
            X509v3 Authority Key Identifier: 
                keyid:12:CD:60:04:D2:A0:80:9E:70:ED:C6:99:B8:7B:2C:C6:52:FD:19:A1
                DirName:/C=US/ST=OH/L=Columbus/O=VikingVPN/OU=MyOrganizationalUnit/CN=VikingVPN CA/name=EasyRSA/emailAddress=me@myhost.mydomain
                serial:CF:35:85:EE:80:BF:2A:3E

            X509v3 Extended Key Usage: 
                TLS Web Client Authentication
            X509v3 Key Usage: 
                Digital Signature
    Signature Algorithm: md5WithRSAEncryption
         29:ec:40:27:f7:76:e2:a7:02:ce:d1:00:07:fa:36:6a:95:53:
         55:91:19:38:3d:a6:d7:59:a4:c5:9f:30:f8:0a:06:81:08:a7:
         bd:38:9d:99:02:18:84:a9:bd:1d:4a:e6:9e:27:aa:a9:15:35:
         2a:53:a9:b9:63:cd:98:c6:17:e6:6a:52:9b:fa:b0:25:77:c7:
         c5:c6:23:a7:3b:00:07:bc:f5:2b:45:e1:0f:e9:c0:15:84:fc:
         3b:59:79:39:92:2a:18:01:3a:9c:b0:96:77:54:31:0a:50:f8:
         f4:e1:ad:c9:03:9a:7f:cb:30:06:c7:28:7b:cb:f9:d2:4d:14:
         ab:fb:ca:fb:de:0f:a9:fc:a8:f2:5d:d1:17:df:c3:d8:12:19:
         ab:25:40:51:ef:a3:4e:d5:f3:93:12:6c:b7:58:67:05:1a:15:
         15:ea:38:08:8b:13:68:e8:63:49:b8:d5:8c:01:23:af:51:13:
         09:d9:8b:52:e9:67:db:ba:e7:c1:1d:fd:ac:98:d4:8a:60:d3:
         eb:f7:7c:78:3d:7b:79:65:4b:97:c0:7e:0c:97:7a:0d:f9:ee:
         89:ac:e3:24:a1:11:85:c8:e8:26:ce:e1:f7:9a:ca:ef:39:07:
         db:6c:16:f9:ac:4c:2f:30:21:28:54:78:1b:18:aa:c8:e2:ce:
         6f:14:41:8c:61:da:89:41:1a:c0:7f:6c:48:9b:b9:fe:ed:c8:
         4f:a4:91:a7:7f:d3:ff:f5:32:43:e3:3a:89:74:03:7e:6c:e1:
         37:4c:c6:86:ca:74:ae:b4:be:ad:9c:6b:87:d8:f9:df:69:78:
         da:0e:a3:92:9b:55:41:3d:e4:59:ba:3f:dc:97:40:2c:78:9c:
         cc:47:d6:70:f5:2e:d7:ef:69:2d:1b:0a:99:11:a6:d9:3f:dc:
         1a:26:30:83:a3:71:fd:6c:2d:0a:64:5f:ad:3a:f0:19:ba:1f:
         ed:77:2c:56:4c:25:cd:6b:51:e0:93:01:8e:7d:59:db:72:72:
         7a:99:9f:2b:eb:74:7a:d3:79:13:86:cf:82:99:0e:52:72:ad:
         f6:68:e0:6e:a1:df:cb:81:10:cf:fb:46:90:83:28:2f:e4:43:
         a9:1b:f4:65:6e:40:a3:aa:11:62:f5:48:ab:c4:56:00:6f:b4:
         55:ac:3c:14:41:81:2f:48:55:eb:1d:44:f6:0b:45:5e:44:c0:
         1a:ad:b9:89:e8:02:c5:0c:08:dc:db:da:2b:0b:09:6a:fb:40:
         b4:fc:0a:fc:ec:53:ab:84:47:5b:eb:62:8d:77:1d:a7:4b:17:
         37:10:ad:e8:6d:d5:ea:8d:93:18:c1:58:89:77:16:2f:7c:10:
         78:70:82:84:a2:f1:47:a4
-----BEGIN CERTIFICATE-----
MIIGrTCCBJWgAwIBAgICFGcwDQYJKoZIhvcNAQEEBQAwgawxCzAJBgNVBAYTAlVT
MQswCQYDVQQIEwJPSDERMA8GA1UEBxMIQ29sdW1idXMxEjAQBgNVBAoTCVZpa2lu
Z1ZQTjEdMBsGA1UECxMUTXlPcmdhbml6YXRpb25hbFVuaXQxFTATBgNVBAMTDFZp
a2luZ1ZQTiBDQTEQMA4GA1UEKRMHRWFzeVJTQTEhMB8GCSqGSIb3DQEJARYSbWVA
bXlob3N0Lm15ZG9tYWluMB4XDTE1MDUxMjAzMTYxOFoXDTI1MDUwOTAzMTYxOFow
HzEdMBsGA1UEAxMUQ2xpZW50MTY3NENlcnRlMWVkMDgwggIiMA0GCSqGSIb3DQEB
AQUAA4ICDwAwggIKAoICAQCqRGnsZOobFzcRjEEmHHTUHtJBDy7YjkyYF7LV6gSU
bMmH7WHEQ3zlxzctGUxddN8ksSWP9pc6RQ5EPEB0DCoNSV1Ee+wxLKqPQeDzJp8n
RX4nVRWfICvbARbRUsACUEerozgftkV4FKRHfLtf4hx3aGPGEgB3suStPvXXxoqx
6Rnnkd+d+g75nWCmxj5z9dgbRh1YvTBVkipXm+C1JN/ggozHR5K7GRXdkhp0HXhr
qx4d+ddU4SNJw2DwsEz3dzxEZNEqZPGD6lug9VhfZYZI6KIi6tzb4wM/NqBjn3Cq
4nzxi6+sNS6AXomOXWppNOLWTfab3e5TIf9AiGjtjw0kqWt4Jj4Mpn0bDcffRLfd
fboGQbmk1IvUOu+iz/WJR9/iDyaNqnfk8Hy9410J7uoV1s0rrRb4z3aXiSYgG062
1BLuiwUqqUtmCCG9zT6UEYL5hCCOxQe1rQLeQ6asFktYM+H/9du3pu6mHbPPH08C
PbpO0AVN4SG8fFGdDzMrEbhr4W+lItzBZ5YtAGZoJy1zC9iXY16bsoNRMtBNPjCy
JUtbPBZcZYLFCcGL7ujCl5ZdX9DmtSUaZXiYRlkLcS1PrSH52l6lr8B/uv7p45e2
xYxMUsg/mOaarRFP2sTr3DlHB9f9UGNJrvTw7ZXkiXEhUnUxwq6SLB1y8hh+b4AO
KwIDAQABo4IBYzCCAV8wCQYDVR0TBAIwADAtBglghkgBhvhCAQ0EIBYeRWFzeS1S
U0EgR2VuZXJhdGVkIENlcnRpZmljYXRlMB0GA1UdDgQWBBQrozGPD2d23BIEvdfX
qiqI8rQzFTCB4QYDVR0jBIHZMIHWgBQSzWAE0qCAnnDtxpm4eyzGUv0ZoaGBsqSB
rzCBrDELMAkGA1UEBhMCVVMxCzAJBgNVBAgTAk9IMREwDwYDVQQHEwhDb2x1bWJ1
czESMBAGA1UEChMJVmlraW5nVlBOMR0wGwYDVQQLExRNeU9yZ2FuaXphdGlvbmFs
VW5pdDEVMBMGA1UEAxMMVmlraW5nVlBOIENBMRAwDgYDVQQpEwdFYXN5UlNBMSEw
HwYJKoZIhvcNAQkBFhJtZUBteWhvc3QubXlkb21haW6CCQDPNYXugL8qPjATBgNV
HSUEDDAKBggrBgEFBQcDAjALBgNVHQ8EBAMCB4AwDQYJKoZIhvcNAQEEBQADggIB
ACnsQCf3duKnAs7RAAf6NmqVU1WRGTg9ptdZpMWfMPgKBoEIp704nZkCGISpvR1K
5p4nqqkVNSpTqbljzZjGF+ZqUpv6sCV3x8XGI6c7AAe89StF4Q/pwBWE/DtZeTmS
KhgBOpywlndUMQpQ+PThrckDmn/LMAbHKHvL+dJNFKv7yvveD6n8qPJd0Rffw9gS
GaslQFHvo07V85MSbLdYZwUaFRXqOAiLE2joY0m41YwBI69REwnZi1LpZ9u658Ed
/ayY1Ipg0+v3fHg9e3llS5fAfgyXeg357oms4yShEYXI6CbO4feayu85B9tsFvms
TC8wIShUeBsYqsjizm8UQYxh2olBGsB/bEibuf7tyE+kkad/0//1MkPjOol0A35s
4TdMxobKdK60vq2ca4fY+d9peNoOo5KbVUE95Fm6P9yXQCx4nMxH1nD1LtfvaS0b
CpkRptk/3BomMIOjcf1sLQpkX6068Bm6H+13LFZMJc1rUeCTAY59WdtycnqZnyvr
dHrTeROGz4KZDlJyrfZo4G6h38uBEM/7RpCDKC/kQ6kb9GVuQKOqEWL1SKvEVgBv
tFWsPBRBgS9IVesdRPYLRV5EwBqtuYnoAsUMCNzb2isLCWr7QLT8CvzsU6uER1vr
Yo13HadLFzcQreht1eqNkxjBWIl3Fi98EHhwgoSi8Uek
-----END CERTIFICATE-----
