Certificate:
    Data:
        Version: 3 (0x2)
        Serial Number: 5226 (0x146a)
    Signature Algorithm: md5WithRSAEncryption
        Issuer: C=US, ST=OH, L=Columbus, O=VikingVPN, OU=MyOrganizationalUnit, CN=VikingVPN CA/name=EasyRSA/emailAddress=me@myhost.mydomain
        Validity
            Not Before: May 12 06:44:35 2015 GMT
            Not After : May  9 06:44:35 2025 GMT
        Subject: CN=Client1675Certd38d99
        Subject Public Key Info:
            Public Key Algorithm: rsaEncryption
                Public-Key: (4096 bit)
                Modulus:
                    00:e2:12:8d:75:e2:c7:ad:a2:c2:be:7b:2b:18:81:
                    c0:69:1e:d6:3e:de:17:03:e4:67:3c:ad:29:db:30:
                    23:fd:86:43:23:09:0c:dc:d1:14:cf:d8:45:fb:9d:
                    65:e6:1d:d6:3f:fe:94:4f:14:72:b1:5a:46:3a:9f:
                    f6:b4:60:1d:ac:69:36:ea:79:7b:08:f0:d3:39:29:
                    76:9e:b9:65:79:6d:23:6d:ee:fd:71:73:ca:a8:36:
                    65:48:a2:76:62:52:b0:f8:b7:4a:85:54:26:9f:72:
                    40:9f:e7:e7:9d:29:5c:13:c4:50:62:ab:06:ef:23:
                    15:94:36:66:35:ee:29:f9:e1:16:9f:d3:55:5c:3e:
                    5f:d6:8f:11:77:1b:d2:3d:f9:e4:21:7a:0e:b7:5c:
                    a6:98:e2:48:f4:64:ed:f7:86:bc:64:58:ab:16:89:
                    a7:3c:a8:68:97:4d:8c:22:8c:b3:b9:85:3f:f6:61:
                    e2:6e:62:0b:82:09:42:79:06:d7:07:80:f3:72:e7:
                    4b:00:9e:f6:31:67:c4:b2:d7:7f:ad:74:1d:d8:6a:
                    3c:14:b2:02:d8:5c:1b:18:8d:13:ed:c0:06:a0:0c:
                    e1:39:d1:74:eb:84:d7:e2:9d:aa:e4:99:b9:75:77:
                    55:ec:cc:b9:f5:68:ff:d0:fc:b4:9e:f0:3f:fb:76:
                    84:e2:7f:4c:21:b8:69:9a:f3:d5:8d:fb:ec:d5:38:
                    7a:8d:fd:42:ec:c3:b4:e2:c3:04:59:99:2d:78:57:
                    0e:bc:a5:e4:37:47:3b:3c:83:f9:97:d8:0a:aa:67:
                    54:cf:75:34:77:70:a9:c0:36:be:6c:43:a7:73:98:
                    5a:f4:3f:13:ab:c3:9b:e5:8e:b1:6e:fc:d0:4a:43:
                    69:32:59:0f:ed:53:d1:dc:69:c5:60:84:b9:7e:3f:
                    e3:3f:1d:da:3c:e6:2b:92:51:9f:aa:60:e7:b2:a1:
                    9d:5f:98:aa:19:9a:8a:53:e0:94:48:43:b7:69:0e:
                    76:ea:2b:ae:e6:5c:76:67:60:0b:2e:57:6f:be:77:
                    c1:89:4e:d5:e9:2a:18:ed:bd:ae:04:1c:1c:27:90:
                    50:e2:75:11:77:d2:bb:91:33:60:e2:97:88:a0:2e:
                    51:3e:cd:74:2b:b1:74:c8:17:6d:65:52:cb:f3:f5:
                    95:53:36:54:03:7c:0d:9a:62:1d:23:39:8a:57:0f:
                    a9:3f:03:66:e9:2d:1c:96:fc:b5:bb:37:a6:d9:f6:
                    68:21:6e:47:bb:bc:a5:3c:dd:d8:da:08:85:16:3c:
                    c3:f9:65:c6:a1:c4:c5:89:19:e0:dc:39:f6:5d:a7:
                    c7:df:51:50:1f:74:71:25:a7:5b:05:73:36:b7:0e:
                    e5:8f:eb
                Exponent: 65537 (0x10001)
        X509v3 extensions:
            X509v3 Basic Constraints: 
                CA:FALSE
            Netscape Comment: 
                Easy-RSA Generated Certificate
            X509v3 Subject Key Identifier: 
                DE:C4:A6:C7:E0:D6:1B:4F:44:2F:E9:42:C7:47:C8:85:DE:C7:8F:B4
            X509v3 Authority Key Identifier: 
                keyid:12:CD:60:04:D2:A0:80:9E:70:ED:C6:99:B8:7B:2C:C6:52:FD:19:A1
                DirName:/C=US/ST=OH/L=Columbus/O=VikingVPN/OU=MyOrganizationalUnit/CN=VikingVPN CA/name=EasyRSA/emailAddress=me@myhost.mydomain
                serial:CF:35:85:EE:80:BF:2A:3E

            X509v3 Extended Key Usage: 
                TLS Web Client Authentication
            X509v3 Key Usage: 
                Digital Signature
    Signature Algorithm: md5WithRSAEncryption
         9f:b7:dd:7c:a5:ac:2a:92:fa:23:b6:f3:1a:6c:35:1d:d4:a1:
         a5:d4:78:5e:bb:f7:54:35:41:e3:7d:6b:70:dc:0d:6f:4b:91:
         6f:51:4f:63:dc:07:e9:fb:43:ad:d6:cc:93:89:d6:df:17:dd:
         bd:c1:b9:fc:26:c5:c0:f6:05:2f:09:35:7c:5f:be:64:c2:17:
         6f:70:c0:88:f7:ed:cb:ba:8e:5b:1c:14:df:5a:b1:37:c1:37:
         80:4f:d9:fe:43:b1:02:88:58:77:92:7c:37:82:9f:8b:24:fa:
         03:e2:cc:86:de:5b:1f:e5:d8:3c:eb:57:da:ba:73:30:22:07:
         73:57:84:0b:da:da:f2:f1:e8:91:bf:83:d1:f1:96:dd:a0:88:
         3a:b9:ea:26:b9:3a:63:7d:60:ad:1e:70:aa:42:18:db:28:5b:
         8a:4b:c4:7d:b0:e3:e4:76:9b:15:f5:fe:a9:eb:1e:d4:50:5e:
         99:7e:c4:a2:74:c4:57:22:85:6b:a8:dd:c8:50:68:39:9a:fb:
         3c:0a:82:8a:5e:70:1a:1a:60:f4:61:a1:29:6a:09:3f:59:4c:
         1a:f9:af:12:09:f1:30:1d:91:7d:c3:82:ed:3d:77:2a:83:c5:
         20:a0:d4:3c:4a:e9:60:62:01:36:d1:a2:a8:eb:59:d8:07:4e:
         b0:a2:16:ff:ec:5f:d6:23:60:ad:4b:54:c3:48:eb:40:af:9c:
         a7:82:49:19:85:2b:4a:4e:f0:c0:36:0c:31:bf:0d:b8:47:91:
         ff:e3:c8:c5:89:1e:72:e7:99:d7:56:ae:61:08:45:6a:b2:3f:
         4b:13:a8:4a:f7:9f:ec:25:0f:91:25:40:20:b8:43:d8:f6:a8:
         24:3b:68:f4:99:06:9c:3d:34:82:0f:e7:65:9f:11:12:4d:9a:
         4f:c1:14:38:94:27:c2:8c:32:50:d4:87:8b:e7:8b:7e:c2:30:
         f5:0d:b4:6f:de:f7:67:91:62:a0:46:9f:96:2d:5d:50:76:5b:
         61:7e:5d:9f:d2:b7:70:95:8d:2b:b1:74:0b:ed:df:70:06:29:
         d8:f0:c6:c1:19:06:89:4b:d6:4a:ec:b1:4f:98:61:d8:b3:c9:
         ac:a8:36:6d:17:17:6c:28:5a:16:e6:cf:23:51:ae:64:1d:81:
         ef:74:29:92:8e:1a:d5:9c:74:f5:f1:9a:f4:c9:d3:4e:c1:22:
         a4:55:21:bc:20:57:a4:0f:88:9d:6d:cf:6e:9e:02:bd:54:0e:
         06:c9:0b:68:86:51:81:72:e5:ec:5c:91:4a:79:be:3d:f3:fa:
         0b:c1:36:a8:77:65:62:15:c8:cc:57:58:11:7c:38:1f:46:d7:
         78:5d:32:a0:8b:d5:fe:dd
-----BEGIN CERTIFICATE-----
MIIGrTCCBJWgAwIBAgICFGowDQYJKoZIhvcNAQEEBQAwgawxCzAJBgNVBAYTAlVT
MQswCQYDVQQIEwJPSDERMA8GA1UEBxMIQ29sdW1idXMxEjAQBgNVBAoTCVZpa2lu
Z1ZQTjEdMBsGA1UECxMUTXlPcmdhbml6YXRpb25hbFVuaXQxFTATBgNVBAMTDFZp
a2luZ1ZQTiBDQTEQMA4GA1UEKRMHRWFzeVJTQTEhMB8GCSqGSIb3DQEJARYSbWVA
bXlob3N0Lm15ZG9tYWluMB4XDTE1MDUxMjA2NDQzNVoXDTI1MDUwOTA2NDQzNVow
HzEdMBsGA1UEAxMUQ2xpZW50MTY3NUNlcnRkMzhkOTkwggIiMA0GCSqGSIb3DQEB
AQUAA4ICDwAwggIKAoICAQDiEo114setosK+eysYgcBpHtY+3hcD5Gc8rSnbMCP9
hkMjCQzc0RTP2EX7nWXmHdY//pRPFHKxWkY6n/a0YB2saTbqeXsI8NM5KXaeuWV5
bSNt7v1xc8qoNmVIonZiUrD4t0qFVCafckCf5+edKVwTxFBiqwbvIxWUNmY17in5
4Raf01VcPl/WjxF3G9I9+eQheg63XKaY4kj0ZO33hrxkWKsWiac8qGiXTYwijLO5
hT/2YeJuYguCCUJ5BtcHgPNy50sAnvYxZ8Sy13+tdB3YajwUsgLYXBsYjRPtwAag
DOE50XTrhNfinarkmbl1d1XszLn1aP/Q/LSe8D/7doTif0whuGma89WN++zVOHqN
/ULsw7TiwwRZmS14Vw68peQ3Rzs8g/mX2AqqZ1TPdTR3cKnANr5sQ6dzmFr0PxOr
w5vljrFu/NBKQ2kyWQ/tU9HcacVghLl+P+M/Hdo85iuSUZ+qYOeyoZ1fmKoZmopT
4JRIQ7dpDnbqK67mXHZnYAsuV2++d8GJTtXpKhjtva4EHBwnkFDidRF30ruRM2Di
l4igLlE+zXQrsXTIF21lUsvz9ZVTNlQDfA2aYh0jOYpXD6k/A2bpLRyW/LW7N6bZ
9mghbke7vKU83djaCIUWPMP5ZcahxMWJGeDcOfZdp8ffUVAfdHElp1sFcza3DuWP
6wIDAQABo4IBYzCCAV8wCQYDVR0TBAIwADAtBglghkgBhvhCAQ0EIBYeRWFzeS1S
U0EgR2VuZXJhdGVkIENlcnRpZmljYXRlMB0GA1UdDgQWBBTexKbH4NYbT0Qv6ULH
R8iF3sePtDCB4QYDVR0jBIHZMIHWgBQSzWAE0qCAnnDtxpm4eyzGUv0ZoaGBsqSB
rzCBrDELMAkGA1UEBhMCVVMxCzAJBgNVBAgTAk9IMREwDwYDVQQHEwhDb2x1bWJ1
czESMBAGA1UEChMJVmlraW5nVlBOMR0wGwYDVQQLExRNeU9yZ2FuaXphdGlvbmFs
VW5pdDEVMBMGA1UEAxMMVmlraW5nVlBOIENBMRAwDgYDVQQpEwdFYXN5UlNBMSEw
HwYJKoZIhvcNAQkBFhJtZUBteWhvc3QubXlkb21haW6CCQDPNYXugL8qPjATBgNV
HSUEDDAKBggrBgEFBQcDAjALBgNVHQ8EBAMCB4AwDQYJKoZIhvcNAQEEBQADggIB
AJ+33XylrCqS+iO28xpsNR3UoaXUeF6791Q1QeN9a3DcDW9LkW9RT2PcB+n7Q63W
zJOJ1t8X3b3BufwmxcD2BS8JNXxfvmTCF29wwIj37cu6jlscFN9asTfBN4BP2f5D
sQKIWHeSfDeCn4sk+gPizIbeWx/l2DzrV9q6czAiB3NXhAva2vLx6JG/g9Hxlt2g
iDq56ia5OmN9YK0ecKpCGNsoW4pLxH2w4+R2mxX1/qnrHtRQXpl+xKJ0xFcihWuo
3chQaDma+zwKgopecBoaYPRhoSlqCT9ZTBr5rxIJ8TAdkX3Dgu09dyqDxSCg1DxK
6WBiATbRoqjrWdgHTrCiFv/sX9YjYK1LVMNI60CvnKeCSRmFK0pO8MA2DDG/DbhH
kf/jyMWJHnLnmddWrmEIRWqyP0sTqEr3n+wlD5ElQCC4Q9j2qCQ7aPSZBpw9NIIP
52WfERJNmk/BFDiUJ8KMMlDUh4vni37CMPUNtG/e92eRYqBGn5YtXVB2W2F+XZ/S
t3CVjSuxdAvt33AGKdjwxsEZBolL1krssU+YYdizyayoNm0XF2woWhbmzyNRrmQd
ge90KZKOGtWcdPXxmvTJ007BIqRVIbwgV6QPiJ1tz26eAr1UDgbJC2iGUYFy5exc
kUp5vj3z+gvBNqh3ZWIVyMxXWBF8OB9G13hdMqCL1f7d
-----END CERTIFICATE-----
