Certificate:
    Data:
        Version: 3 (0x2)
        Serial Number: 5261 (0x148d)
    Signature Algorithm: md5WithRSAEncryption
        Issuer: C=US, ST=OH, L=Columbus, O=VikingVPN, OU=MyOrganizationalUnit, CN=VikingVPN CA/name=EasyRSA/emailAddress=me@myhost.mydomain
        Validity
            Not Before: May 13 10:58:14 2015 GMT
            Not After : May 10 10:58:14 2025 GMT
        Subject: CN=Client556Cert1e202d
        Subject Public Key Info:
            Public Key Algorithm: rsaEncryption
                Public-Key: (4096 bit)
                Modulus:
                    00:d5:85:22:91:aa:41:e0:a6:83:9f:85:f4:00:6b:
                    e0:80:04:57:8b:4c:b5:b9:5f:84:b7:d8:45:18:7e:
                    ab:1c:aa:31:36:4b:d4:25:04:9f:a6:0d:e3:dd:d8:
                    7c:93:9d:62:86:78:ec:af:7b:aa:8d:fc:92:16:21:
                    70:90:82:a7:24:6c:50:0a:6e:97:9f:27:1a:ec:03:
                    f0:8f:fe:23:30:e5:a4:72:54:d7:20:2e:2e:3f:7a:
                    df:24:18:92:9a:9c:47:d2:5b:fa:68:26:3f:0f:b9:
                    93:40:e1:52:63:1e:87:95:2b:c7:a8:05:ee:d3:e1:
                    94:c6:82:55:68:97:d8:3d:30:13:8f:0d:02:ad:e6:
                    10:23:c3:35:d0:a3:33:57:fd:0e:6a:86:9a:bd:95:
                    b4:33:e0:a7:b7:56:c2:cb:ba:85:72:a8:42:f4:c1:
                    e5:46:f4:bc:71:58:5c:8b:f9:46:48:54:27:fc:0a:
                    3d:f7:23:31:77:92:3a:a3:8e:d6:3f:ac:4d:14:f6:
                    6d:ee:4c:1a:0f:8a:36:d0:e5:f4:28:c6:93:c3:af:
                    a1:7a:4d:af:de:ca:ee:96:d8:ad:c1:89:1e:fb:62:
                    57:15:14:9d:51:80:e2:50:14:37:85:e3:31:c3:e5:
                    be:44:98:c9:56:75:62:5b:8f:53:f5:56:a5:21:af:
                    5b:0e:1a:bd:df:52:a0:77:28:38:33:53:d1:3e:72:
                    ea:fb:6f:3e:76:9c:50:a4:32:c1:49:8a:42:f3:66:
                    8c:2d:6b:ca:3a:23:a5:a1:7b:96:87:6a:4d:be:7c:
                    b2:7d:63:c1:af:ea:d0:76:f0:d7:ec:da:79:2f:1a:
                    d6:63:d7:eb:27:af:80:3d:e7:5c:ca:5b:12:4e:31:
                    e6:83:26:a3:a2:e5:3c:83:7d:e5:db:f5:10:59:b8:
                    86:29:c2:12:3d:a7:1c:23:f3:ae:a9:33:09:43:13:
                    7a:64:6a:43:e2:a4:04:ec:46:31:5c:3f:f8:a5:78:
                    00:1c:f5:29:b0:fd:ce:af:c6:ae:00:16:94:c5:54:
                    a3:f0:3f:db:f8:b5:41:19:fb:87:ee:84:bf:43:8e:
                    d9:43:d9:be:e7:e5:38:b4:a3:7b:16:d6:94:67:e4:
                    ca:c2:38:fa:6c:72:07:e2:3d:54:97:ef:d5:1c:8e:
                    70:b2:6d:3b:03:6d:26:45:33:ef:78:6d:a5:29:7b:
                    d6:c8:59:00:81:bb:5e:1c:11:c7:8f:f9:05:36:98:
                    23:15:f5:bb:d0:e3:07:5b:96:47:34:14:fd:96:4f:
                    5e:0c:34:5f:47:f0:5c:4e:92:2d:06:56:2d:37:32:
                    23:47:e7:01:a9:d6:b6:4d:31:5a:1a:4a:3f:cc:d2:
                    d7:b7:d1
                Exponent: 65537 (0x10001)
        X509v3 extensions:
            X509v3 Basic Constraints: 
                CA:FALSE
            Netscape Comment: 
                Easy-RSA Generated Certificate
            X509v3 Subject Key Identifier: 
                4C:AE:A7:C6:E9:41:18:76:94:52:87:01:B2:28:67:29:84:FF:84:F4
            X509v3 Authority Key Identifier: 
                keyid:12:CD:60:04:D2:A0:80:9E:70:ED:C6:99:B8:7B:2C:C6:52:FD:19:A1
                DirName:/C=US/ST=OH/L=Columbus/O=VikingVPN/OU=MyOrganizationalUnit/CN=VikingVPN CA/name=EasyRSA/emailAddress=me@myhost.mydomain
                serial:CF:35:85:EE:80:BF:2A:3E

            X509v3 Extended Key Usage: 
                TLS Web Client Authentication
            X509v3 Key Usage: 
                Digital Signature
    Signature Algorithm: md5WithRSAEncryption
         18:a4:77:26:d7:58:42:ab:56:b1:9b:1b:a8:53:1f:8e:f3:b0:
         43:6f:ec:e7:3f:09:25:76:e8:a4:d2:97:fe:cd:dc:a5:56:5a:
         cd:9c:91:ad:2a:5d:d8:ac:3b:12:ea:02:3d:0a:af:a0:c6:5b:
         24:f7:f7:3d:76:c1:51:09:a5:4c:a6:bc:6c:93:6c:53:5f:33:
         64:f8:e9:c1:fb:e4:d6:4a:79:b0:10:70:a4:76:dc:69:cd:92:
         0e:b6:c8:83:72:36:ee:4f:59:f2:b2:cc:f4:c8:b0:10:ca:cc:
         33:d7:d0:66:e8:ad:4f:0e:18:f5:fd:7f:46:bc:63:f8:fd:87:
         fc:9a:4d:9f:f0:84:9c:53:14:1e:a2:fa:ce:53:e8:61:02:64:
         d9:15:36:e8:0d:10:2b:89:61:b7:fc:ac:73:03:93:35:de:0d:
         d0:00:bc:1c:ea:bb:c6:9a:cd:83:b7:b9:0d:97:ee:fa:46:a8:
         5b:1d:18:80:12:ec:c6:f0:57:c3:21:6d:03:fd:1e:da:a3:55:
         dc:17:b5:00:d2:95:96:fb:e0:92:67:18:48:ed:96:5c:25:85:
         1f:d7:f2:97:7d:ca:fe:31:d0:02:cc:aa:05:66:e0:1c:34:bb:
         90:6f:d0:ae:e8:8b:e8:4a:16:98:54:3d:27:fd:e0:40:2e:3f:
         b2:3d:d6:be:5c:66:12:ad:f3:cc:41:91:62:93:c4:92:6e:58:
         a3:d2:80:9c:49:c4:8b:a4:08:62:52:f5:81:62:db:ea:05:f0:
         de:43:15:a0:bd:ae:14:bb:99:4e:c4:4c:f4:9d:5d:b1:e2:8d:
         f2:24:55:c7:09:05:8c:c5:a7:6c:42:b5:cc:30:07:f5:5d:50:
         88:c6:b2:fd:57:d9:13:8c:52:ea:4b:43:68:0a:86:dc:f7:e4:
         03:97:f8:61:2a:a5:49:e4:a4:e5:4b:74:46:81:00:17:56:f7:
         72:bb:95:bc:a8:80:52:01:aa:cc:35:dc:f9:19:32:0c:8a:8e:
         a1:c3:a5:72:f7:ba:97:69:12:16:12:d7:16:64:e4:d1:27:8a:
         a1:a9:d5:b5:1c:ee:0f:66:78:9a:42:78:aa:8b:15:f7:13:b8:
         9b:cb:76:1a:15:79:93:a3:ba:55:39:15:e4:33:69:d0:6e:a1:
         1a:da:ea:1c:61:f5:05:dd:ef:a9:20:ee:8f:f8:00:bb:85:22:
         1d:8c:1a:40:eb:9a:89:e0:6a:a6:e5:1f:94:68:91:24:12:09:
         0a:50:ec:88:f9:6b:ff:70:95:70:9a:49:3c:88:77:09:e4:ce:
         f7:2b:54:6d:ab:42:62:07:93:64:1b:be:fc:ea:a9:62:76:90:
         8a:47:01:40:9d:c3:2e:7f
-----BEGIN CERTIFICATE-----
MIIGrDCCBJSgAwIBAgICFI0wDQYJKoZIhvcNAQEEBQAwgawxCzAJBgNVBAYTAlVT
MQswCQYDVQQIEwJPSDERMA8GA1UEBxMIQ29sdW1idXMxEjAQBgNVBAoTCVZpa2lu
Z1ZQTjEdMBsGA1UECxMUTXlPcmdhbml6YXRpb25hbFVuaXQxFTATBgNVBAMTDFZp
a2luZ1ZQTiBDQTEQMA4GA1UEKRMHRWFzeVJTQTEhMB8GCSqGSIb3DQEJARYSbWVA
bXlob3N0Lm15ZG9tYWluMB4XDTE1MDUxMzEwNTgxNFoXDTI1MDUxMDEwNTgxNFow
HjEcMBoGA1UEAxMTQ2xpZW50NTU2Q2VydDFlMjAyZDCCAiIwDQYJKoZIhvcNAQEB
BQADggIPADCCAgoCggIBANWFIpGqQeCmg5+F9ABr4IAEV4tMtblfhLfYRRh+qxyq
MTZL1CUEn6YN493YfJOdYoZ47K97qo38khYhcJCCpyRsUApul58nGuwD8I/+IzDl
pHJU1yAuLj963yQYkpqcR9Jb+mgmPw+5k0DhUmMeh5Urx6gF7tPhlMaCVWiX2D0w
E48NAq3mECPDNdCjM1f9DmqGmr2VtDPgp7dWwsu6hXKoQvTB5Ub0vHFYXIv5RkhU
J/wKPfcjMXeSOqOO1j+sTRT2be5MGg+KNtDl9CjGk8OvoXpNr97K7pbYrcGJHvti
VxUUnVGA4lAUN4XjMcPlvkSYyVZ1YluPU/VWpSGvWw4avd9SoHcoODNT0T5y6vtv
PnacUKQywUmKQvNmjC1ryjojpaF7lodqTb58sn1jwa/q0Hbw1+zaeS8a1mPX6yev
gD3nXMpbEk4x5oMmo6LlPIN95dv1EFm4hinCEj2nHCPzrqkzCUMTemRqQ+KkBOxG
MVw/+KV4ABz1KbD9zq/GrgAWlMVUo/A/2/i1QRn7h+6Ev0OO2UPZvuflOLSjexbW
lGfkysI4+mxyB+I9VJfv1RyOcLJtOwNtJkUz73htpSl71shZAIG7XhwRx4/5BTaY
IxX1u9DjB1uWRzQU/ZZPXgw0X0fwXE6SLQZWLTcyI0fnAanWtk0xWhpKP8zS17fR
AgMBAAGjggFjMIIBXzAJBgNVHRMEAjAAMC0GCWCGSAGG+EIBDQQgFh5FYXN5LVJT
QSBHZW5lcmF0ZWQgQ2VydGlmaWNhdGUwHQYDVR0OBBYEFEyup8bpQRh2lFKHAbIo
ZymE/4T0MIHhBgNVHSMEgdkwgdaAFBLNYATSoICecO3Gmbh7LMZS/RmhoYGypIGv
MIGsMQswCQYDVQQGEwJVUzELMAkGA1UECBMCT0gxETAPBgNVBAcTCENvbHVtYnVz
MRIwEAYDVQQKEwlWaWtpbmdWUE4xHTAbBgNVBAsTFE15T3JnYW5pemF0aW9uYWxV
bml0MRUwEwYDVQQDEwxWaWtpbmdWUE4gQ0ExEDAOBgNVBCkTB0Vhc3lSU0ExITAf
BgkqhkiG9w0BCQEWEm1lQG15aG9zdC5teWRvbWFpboIJAM81he6Avyo+MBMGA1Ud
JQQMMAoGCCsGAQUFBwMCMAsGA1UdDwQEAwIHgDANBgkqhkiG9w0BAQQFAAOCAgEA
GKR3JtdYQqtWsZsbqFMfjvOwQ2/s5z8JJXbopNKX/s3cpVZazZyRrSpd2Kw7EuoC
PQqvoMZbJPf3PXbBUQmlTKa8bJNsU18zZPjpwfvk1kp5sBBwpHbcac2SDrbIg3I2
7k9Z8rLM9MiwEMrMM9fQZuitTw4Y9f1/Rrxj+P2H/JpNn/CEnFMUHqL6zlPoYQJk
2RU26A0QK4lht/yscwOTNd4N0AC8HOq7xprNg7e5DZfu+kaoWx0YgBLsxvBXwyFt
A/0e2qNV3Be1ANKVlvvgkmcYSO2WXCWFH9fyl33K/jHQAsyqBWbgHDS7kG/QruiL
6EoWmFQ9J/3gQC4/sj3WvlxmEq3zzEGRYpPEkm5Yo9KAnEnEi6QIYlL1gWLb6gXw
3kMVoL2uFLuZTsRM9J1dseKN8iRVxwkFjMWnbEK1zDAH9V1QiMay/VfZE4xS6ktD
aAqG3PfkA5f4YSqlSeSk5Ut0RoEAF1b3cruVvKiAUgGqzDXc+RkyDIqOocOlcve6
l2kSFhLXFmTk0SeKoanVtRzuD2Z4mkJ4qosV9xO4m8t2GhV5k6O6VTkV5DNp0G6h
GtrqHGH1Bd3vqSDuj/gAu4UiHYwaQOuaieBqpuUflGiRJBIJClDsiPlr/3CVcJpJ
PIh3CeTO9ytUbatCYgeTZBu+/OqpYnaQikcBQJ3DLn8=
-----END CERTIFICATE-----
