Certificate:
    Data:
        Version: 3 (0x2)
        Serial Number: 5262 (0x148e)
    Signature Algorithm: md5WithRSAEncryption
        Issuer: C=US, ST=OH, L=Columbus, O=VikingVPN, OU=MyOrganizationalUnit, CN=VikingVPN CA/name=EasyRSA/emailAddress=me@myhost.mydomain
        Validity
            Not Before: May 13 14:06:13 2015 GMT
            Not After : May 10 14:06:13 2025 GMT
        Subject: CN=Client1680Certce5a83
        Subject Public Key Info:
            Public Key Algorithm: rsaEncryption
                Public-Key: (4096 bit)
                Modulus:
                    00:c0:e1:2f:2f:4e:9e:79:8f:2e:51:0c:69:7e:6f:
                    e1:2a:ef:1b:09:c9:04:2c:8f:ce:59:b6:ca:dd:6b:
                    1a:7d:8f:be:39:f3:52:1d:af:a0:f1:48:18:6d:9f:
                    65:3a:ed:7b:75:b1:b4:12:cb:80:ba:99:5b:c8:c4:
                    e4:3d:6d:5d:43:9f:6e:00:b6:fe:1a:6d:8b:29:33:
                    06:73:79:b4:8b:54:0e:03:37:d5:4c:37:a0:ad:98:
                    45:0a:a7:be:5a:b5:0b:d3:73:bf:99:cc:a8:ab:f2:
                    d6:39:a7:6c:d8:21:49:1e:fc:95:41:d8:04:04:23:
                    fe:e2:93:c0:49:ee:78:62:3e:74:bb:62:40:9d:a1:
                    d4:fd:3a:cb:9d:f5:a1:2a:cd:24:3b:0b:b0:6d:c7:
                    6d:de:f8:2c:cf:b5:95:12:0f:9b:ed:11:01:f7:44:
                    52:da:aa:a6:12:79:91:b9:36:e3:cb:1c:ca:8a:ec:
                    96:6d:7d:4f:b3:c3:be:64:2c:bd:df:ae:d9:26:b9:
                    3a:b2:d1:e1:19:4e:40:b4:3c:f6:ff:6f:b2:28:db:
                    0d:68:8d:24:24:63:7e:5d:87:23:69:e5:95:b4:10:
                    de:b8:93:48:fc:ff:05:04:99:2f:7e:c7:56:0d:51:
                    27:6f:00:82:1c:d7:06:f1:22:72:30:6e:bf:b4:8b:
                    17:d2:87:ee:5d:eb:64:f3:cf:ec:17:fd:b7:ef:66:
                    c2:c1:a9:27:19:a7:c3:bb:c7:8b:90:a9:50:09:fe:
                    c2:07:da:23:d6:2b:b4:48:14:60:5e:17:bd:0e:12:
                    e8:e4:5a:64:1d:de:13:a5:86:2f:98:28:43:10:c6:
                    8d:b7:11:15:b2:f9:2c:5e:a8:9b:14:c2:c0:e0:af:
                    df:e2:8d:e8:c2:c9:56:6a:bf:42:3b:41:09:18:34:
                    47:a6:e4:af:d8:ac:f9:69:3c:dd:ff:98:bf:c3:84:
                    fe:8d:9f:71:97:8a:46:19:b5:ba:0c:f5:c1:82:0c:
                    f5:e6:9d:f5:5e:e3:66:5c:9c:a8:7d:17:06:ac:fe:
                    0f:1a:07:f2:9e:02:50:1b:4c:dc:92:8a:26:fa:9e:
                    c9:ef:64:f4:fe:4d:93:57:5a:ef:3b:76:53:d1:29:
                    b0:5e:1b:73:c3:d4:7c:b6:ac:9f:ac:82:a5:88:85:
                    83:3f:61:ec:a8:f5:3a:8a:4d:ba:ec:81:b6:17:3c:
                    4e:b2:b6:0b:fc:be:4e:52:9f:88:fd:b8:0f:6d:90:
                    8d:a3:b4:97:e0:b0:8c:8a:39:d0:a2:bd:87:6e:32:
                    0d:d6:b0:09:1c:51:e8:8b:be:df:f3:98:f9:68:a1:
                    9e:e1:ce:58:14:34:7b:4a:4f:78:29:3c:bf:33:cc:
                    ef:2f:b9
                Exponent: 65537 (0x10001)
        X509v3 extensions:
            X509v3 Basic Constraints: 
                CA:FALSE
            Netscape Comment: 
                Easy-RSA Generated Certificate
            X509v3 Subject Key Identifier: 
                7C:6A:F6:B5:2A:B5:15:78:37:F4:4C:78:ED:7D:39:8B:97:8E:24:AE
            X509v3 Authority Key Identifier: 
                keyid:12:CD:60:04:D2:A0:80:9E:70:ED:C6:99:B8:7B:2C:C6:52:FD:19:A1
                DirName:/C=US/ST=OH/L=Columbus/O=VikingVPN/OU=MyOrganizationalUnit/CN=VikingVPN CA/name=EasyRSA/emailAddress=me@myhost.mydomain
                serial:CF:35:85:EE:80:BF:2A:3E

            X509v3 Extended Key Usage: 
                TLS Web Client Authentication
            X509v3 Key Usage: 
                Digital Signature
    Signature Algorithm: md5WithRSAEncryption
         67:90:fc:36:04:e1:09:fd:b2:4d:18:20:8b:f8:52:b6:18:f5:
         20:3a:12:54:65:1f:72:c3:d2:9d:9c:77:ca:c5:72:59:4e:de:
         2f:af:ea:9c:d8:c5:92:02:f5:54:f8:b6:2b:d5:84:fb:d5:ad:
         95:03:ef:29:c0:af:ca:18:8d:36:2a:a7:c4:e8:33:be:a5:68:
         8c:3b:87:f1:fc:74:56:7c:1d:8b:a0:75:57:84:dd:37:db:49:
         5b:8e:3a:73:a0:1d:11:c6:d8:62:10:ac:1c:7e:34:ea:e7:50:
         c4:15:28:3a:08:1f:19:ae:f7:ec:9f:c3:dc:27:c9:63:da:c1:
         44:37:59:28:11:be:d6:1b:30:92:9b:5c:ff:a1:55:6e:04:fe:
         73:bb:4f:d4:3a:5d:d1:3b:e8:e0:06:8f:11:a5:90:68:e0:0a:
         1d:d0:90:6d:c4:f7:08:1e:9b:21:5c:24:42:cc:15:54:3a:c4:
         ff:8a:bf:9f:4b:e6:dd:c5:0d:6a:7a:2a:5e:f1:50:3e:54:94:
         13:e5:d2:4b:b0:e3:a7:9d:e4:b8:20:ac:b9:cb:5c:8e:54:c8:
         f4:37:49:fc:63:d7:fe:7c:73:ee:41:43:b6:14:bb:64:3d:89:
         c3:3b:f4:49:7d:51:4e:5e:4c:f8:e3:37:7b:5a:ca:18:45:58:
         05:08:c3:3b:93:b9:c9:88:80:36:7b:da:50:c0:48:91:82:ec:
         a0:0a:10:67:05:cb:6b:2b:5f:36:3e:e5:b2:b2:ca:d9:a7:56:
         e8:d8:c0:2e:d4:a3:78:0a:64:92:7c:ab:f2:b7:16:1a:e1:93:
         04:a3:63:00:eb:c5:78:9a:47:2c:e4:7f:c8:56:51:14:ae:6d:
         fb:e3:bb:e1:a5:f5:b2:1f:66:e1:88:68:4b:01:b0:39:d7:2a:
         44:82:bc:73:b7:71:3e:39:4d:f9:d4:4c:ec:eb:fe:50:2e:5f:
         58:3f:ef:5e:95:99:22:71:3a:0b:28:ba:49:cd:08:23:4c:47:
         02:4b:2c:91:4e:10:68:3a:9e:f6:6d:66:3e:5c:dc:d4:5a:b9:
         a5:09:34:10:1b:70:31:04:b0:23:d5:43:94:58:98:e3:a1:df:
         d8:a7:de:65:23:8c:9f:2c:30:49:12:9d:6e:76:44:91:49:9b:
         19:7e:55:38:a4:4d:e0:e1:59:8b:04:4d:e9:97:be:ab:04:99:
         85:01:9f:d0:49:19:30:fb:09:e4:56:ce:03:7e:3b:80:8d:00:
         06:dd:39:5b:de:71:82:b6:00:c8:fb:cc:70:f3:cf:41:4d:97:
         5f:e2:e2:e4:11:c6:a6:b9:3f:80:ec:2d:ce:97:3d:73:13:ba:
         ba:52:24:5a:86:50:7f:4c
-----BEGIN CERTIFICATE-----
MIIGrTCCBJWgAwIBAgICFI4wDQYJKoZIhvcNAQEEBQAwgawxCzAJBgNVBAYTAlVT
MQswCQYDVQQIEwJPSDERMA8GA1UEBxMIQ29sdW1idXMxEjAQBgNVBAoTCVZpa2lu
Z1ZQTjEdMBsGA1UECxMUTXlPcmdhbml6YXRpb25hbFVuaXQxFTATBgNVBAMTDFZp
a2luZ1ZQTiBDQTEQMA4GA1UEKRMHRWFzeVJTQTEhMB8GCSqGSIb3DQEJARYSbWVA
bXlob3N0Lm15ZG9tYWluMB4XDTE1MDUxMzE0MDYxM1oXDTI1MDUxMDE0MDYxM1ow
HzEdMBsGA1UEAxMUQ2xpZW50MTY4MENlcnRjZTVhODMwggIiMA0GCSqGSIb3DQEB
AQUAA4ICDwAwggIKAoICAQDA4S8vTp55jy5RDGl+b+Eq7xsJyQQsj85Ztsrdaxp9
j74581Idr6DxSBhtn2U67Xt1sbQSy4C6mVvIxOQ9bV1Dn24Atv4abYspMwZzebSL
VA4DN9VMN6CtmEUKp75atQvTc7+ZzKir8tY5p2zYIUke/JVB2AQEI/7ik8BJ7nhi
PnS7YkCdodT9Osud9aEqzSQ7C7Btx23e+CzPtZUSD5vtEQH3RFLaqqYSeZG5NuPL
HMqK7JZtfU+zw75kLL3frtkmuTqy0eEZTkC0PPb/b7Io2w1ojSQkY35dhyNp5ZW0
EN64k0j8/wUEmS9+x1YNUSdvAIIc1wbxInIwbr+0ixfSh+5d62Tzz+wX/bfvZsLB
qScZp8O7x4uQqVAJ/sIH2iPWK7RIFGBeF70OEujkWmQd3hOlhi+YKEMQxo23ERWy
+SxeqJsUwsDgr9/ijejCyVZqv0I7QQkYNEem5K/YrPlpPN3/mL/DhP6Nn3GXikYZ
tboM9cGCDPXmnfVe42ZcnKh9Fwas/g8aB/KeAlAbTNySiib6nsnvZPT+TZNXWu87
dlPRKbBeG3PD1Hy2rJ+sgqWIhYM/Yeyo9TqKTbrsgbYXPE6ytgv8vk5Sn4j9uA9t
kI2jtJfgsIyKOdCivYduMg3WsAkcUeiLvt/zmPlooZ7hzlgUNHtKT3gpPL8zzO8v
uQIDAQABo4IBYzCCAV8wCQYDVR0TBAIwADAtBglghkgBhvhCAQ0EIBYeRWFzeS1S
U0EgR2VuZXJhdGVkIENlcnRpZmljYXRlMB0GA1UdDgQWBBR8ava1KrUVeDf0THjt
fTmLl44krjCB4QYDVR0jBIHZMIHWgBQSzWAE0qCAnnDtxpm4eyzGUv0ZoaGBsqSB
rzCBrDELMAkGA1UEBhMCVVMxCzAJBgNVBAgTAk9IMREwDwYDVQQHEwhDb2x1bWJ1
czESMBAGA1UEChMJVmlraW5nVlBOMR0wGwYDVQQLExRNeU9yZ2FuaXphdGlvbmFs
VW5pdDEVMBMGA1UEAxMMVmlraW5nVlBOIENBMRAwDgYDVQQpEwdFYXN5UlNBMSEw
HwYJKoZIhvcNAQkBFhJtZUBteWhvc3QubXlkb21haW6CCQDPNYXugL8qPjATBgNV
HSUEDDAKBggrBgEFBQcDAjALBgNVHQ8EBAMCB4AwDQYJKoZIhvcNAQEEBQADggIB
AGeQ/DYE4Qn9sk0YIIv4UrYY9SA6ElRlH3LD0p2cd8rFcllO3i+v6pzYxZIC9VT4
tivVhPvVrZUD7ynAr8oYjTYqp8ToM76laIw7h/H8dFZ8HYugdVeE3TfbSVuOOnOg
HRHG2GIQrBx+NOrnUMQVKDoIHxmu9+yfw9wnyWPawUQ3WSgRvtYbMJKbXP+hVW4E
/nO7T9Q6XdE76OAGjxGlkGjgCh3QkG3E9wgemyFcJELMFVQ6xP+Kv59L5t3FDWp6
Kl7xUD5UlBPl0kuw46ed5LggrLnLXI5UyPQ3Sfxj1/58c+5BQ7YUu2Q9icM79El9
UU5eTPjjN3tayhhFWAUIwzuTucmIgDZ72lDASJGC7KAKEGcFy2srXzY+5bKyytmn
VujYwC7Uo3gKZJJ8q/K3FhrhkwSjYwDrxXiaRyzkf8hWURSubfvju+Gl9bIfZuGI
aEsBsDnXKkSCvHO3cT45TfnUTOzr/lAuX1g/716VmSJxOgsouknNCCNMRwJLLJFO
EGg6nvZtZj5c3NRauaUJNBAbcDEEsCPVQ5RYmOOh39in3mUjjJ8sMEkSnW52RJFJ
mxl+VTikTeDhWYsETemXvqsEmYUBn9BJGTD7CeRWzgN+O4CNAAbdOVvecYK2AMj7
zHDzz0FNl1/i4uQRxqa5P4DsLc6XPXMTurpSJFqGUH9M
-----END CERTIFICATE-----
