Certificate:
    Data:
        Version: 3 (0x2)
        Serial Number: 5272 (0x1498)
    Signature Algorithm: md5WithRSAEncryption
        Issuer: C=US, ST=OH, L=Columbus, O=VikingVPN, OU=MyOrganizationalUnit, CN=VikingVPN CA/name=EasyRSA/emailAddress=me@myhost.mydomain
        Validity
            Not Before: May 14 01:15:57 2015 GMT
            Not After : May 11 01:15:57 2025 GMT
        Subject: CN=Client1682Certbdda62
        Subject Public Key Info:
            Public Key Algorithm: rsaEncryption
                Public-Key: (4096 bit)
                Modulus:
                    00:c0:d4:d1:a6:c9:c1:d0:5e:8d:49:5e:9a:a8:81:
                    ec:2c:d2:ad:9f:55:97:e4:c0:0d:58:b6:e4:a0:d1:
                    db:b0:c9:2e:07:d5:85:fe:0b:e2:66:20:ee:1f:32:
                    3c:4f:9c:c6:4d:5e:d7:bd:c7:3f:9f:c5:52:a7:5e:
                    13:80:1c:77:2f:4e:a1:b2:57:e1:69:d4:73:2b:2b:
                    a0:19:bd:33:62:4c:69:ef:06:57:20:37:f2:18:28:
                    f9:ad:e0:94:e7:1e:6c:8a:33:b1:71:b5:4f:00:3c:
                    c2:e9:8f:27:5f:64:bf:5b:a6:a8:bb:64:dd:bf:d2:
                    b3:54:2a:df:55:eb:6f:aa:af:2a:ff:0d:19:f6:1e:
                    37:0b:8e:6d:ad:9d:5c:71:0e:a0:91:48:7e:b8:67:
                    c6:44:d9:1c:04:1b:49:c0:63:5f:8f:a4:8f:61:ab:
                    8b:af:5c:6e:2a:6e:a0:b7:e0:0d:99:fb:81:14:10:
                    62:19:2b:25:dc:9a:2f:ab:37:c3:ca:84:d4:32:e0:
                    95:74:df:4c:7d:b2:0c:dd:88:67:03:11:0f:43:cc:
                    5b:a8:8e:49:d0:19:e9:65:fd:cc:19:b9:80:4a:da:
                    a4:ef:ac:ce:06:b1:58:3b:9a:da:e5:1d:d9:0c:1e:
                    31:e2:d1:95:e5:1e:3a:50:5b:0d:57:7d:f9:10:6d:
                    e8:66:49:04:d0:0b:62:78:52:86:c1:2d:43:6d:f4:
                    34:e8:6e:de:8d:27:f4:88:59:41:48:f4:50:bd:ef:
                    59:58:60:fe:1d:af:5e:a0:c0:ba:f6:4b:bf:83:ba:
                    99:e8:23:6c:58:bb:9b:16:3d:ed:12:c2:3e:da:7b:
                    b0:7e:e4:34:d6:7c:05:d9:bb:2e:ab:cb:60:1e:f0:
                    df:45:be:a9:02:15:cb:3b:e9:c8:a6:82:38:80:b5:
                    cc:a1:be:f5:5b:52:52:52:f8:65:75:69:3c:74:70:
                    02:02:bc:ef:9b:5c:47:5a:65:29:f1:c0:71:f8:c3:
                    bf:1d:5f:65:79:d8:9d:00:18:9c:28:2f:58:0b:6f:
                    67:df:40:02:44:9f:e7:87:9b:2d:2e:90:88:87:f6:
                    97:bd:7c:d4:dc:40:38:d6:a1:29:9d:a9:5a:a1:9a:
                    ee:af:05:16:1d:ee:30:11:ef:4a:82:c6:47:a2:88:
                    8a:ba:cd:ec:08:bf:d6:af:22:07:08:2c:b0:dd:c3:
                    d4:e6:9e:67:e7:8a:d9:3f:2f:b6:2e:4c:fa:dd:98:
                    60:61:4c:72:c6:9c:d1:7f:6e:40:94:1d:b1:9b:59:
                    c5:af:50:60:aa:09:1c:a9:9b:c5:d9:4d:47:cb:af:
                    6d:9d:27:f5:19:25:22:f6:d7:9c:fe:1c:6d:05:a2:
                    cc:85:67
                Exponent: 65537 (0x10001)
        X509v3 extensions:
            X509v3 Basic Constraints: 
                CA:FALSE
            Netscape Comment: 
                Easy-RSA Generated Certificate
            X509v3 Subject Key Identifier: 
                63:F0:F9:E9:39:C3:3B:80:BE:A2:0D:FD:96:37:AB:BF:BF:07:81:9F
            X509v3 Authority Key Identifier: 
                keyid:12:CD:60:04:D2:A0:80:9E:70:ED:C6:99:B8:7B:2C:C6:52:FD:19:A1
                DirName:/C=US/ST=OH/L=Columbus/O=VikingVPN/OU=MyOrganizationalUnit/CN=VikingVPN CA/name=EasyRSA/emailAddress=me@myhost.mydomain
                serial:CF:35:85:EE:80:BF:2A:3E

            X509v3 Extended Key Usage: 
                TLS Web Client Authentication
            X509v3 Key Usage: 
                Digital Signature
    Signature Algorithm: md5WithRSAEncryption
         2a:a2:ba:e3:83:f5:5f:75:b0:d8:e9:47:b4:8a:06:a3:36:80:
         07:de:59:5f:6d:56:18:27:bf:8a:d7:3e:fa:07:24:4e:7c:68:
         dd:fe:10:db:4c:72:e4:94:bb:f5:2a:a0:0b:5e:aa:e8:dc:d9:
         4a:df:d4:3d:ae:ac:8a:95:00:25:98:de:e3:0b:5e:8d:f2:1c:
         d1:13:91:4d:57:a1:14:ea:75:a5:36:7c:fd:c9:3f:12:50:d7:
         d6:5a:75:73:e5:a6:7c:4b:8a:a8:a6:56:b9:d7:f1:9f:1e:00:
         65:4b:b8:d8:09:c8:a7:b6:05:e7:e5:60:3f:22:b2:13:8a:38:
         1c:61:1c:24:4b:fc:3a:4c:a2:dd:73:dd:2d:93:7d:5c:47:c9:
         13:b5:01:8f:d0:a7:40:09:f0:2f:e9:0f:bf:42:44:cd:dc:b0:
         2a:6d:9b:99:88:ef:82:17:21:c0:56:86:43:00:d4:6e:e8:33:
         07:b0:6e:dc:ca:ff:c9:04:e1:8b:49:25:87:97:4d:5e:fe:c4:
         a5:e7:48:a2:49:c0:3f:a8:6a:29:29:09:3a:ae:d9:ba:50:58:
         5e:7f:fc:70:21:0f:b0:b8:50:36:f2:15:71:eb:db:51:ea:88:
         d7:d2:ce:cb:94:0e:34:1a:f5:4e:9c:15:6e:10:82:50:c3:63:
         11:3c:38:11:43:62:8d:43:0e:3b:24:81:5d:67:5f:ea:ed:41:
         45:1a:79:df:f7:ce:88:cf:65:97:3f:3e:fb:7a:3f:63:61:cd:
         3c:45:c3:00:02:1b:3a:da:69:a6:18:6c:5f:74:15:24:0a:f8:
         1f:65:69:02:6e:cc:b4:15:36:da:c7:52:d8:ea:ad:6d:bb:0e:
         26:50:11:cf:7a:18:98:72:18:18:e5:46:9b:fd:76:a3:7a:19:
         c4:e7:95:82:35:fd:01:fa:56:b1:40:10:69:c8:8f:b8:14:e2:
         fb:16:21:58:38:84:49:98:d2:cb:6f:75:ad:f9:7d:50:5c:ec:
         71:2f:27:70:e9:a7:83:6f:80:64:af:ec:31:7c:ac:56:2e:55:
         8a:08:29:6f:d8:a4:3b:0b:f5:ea:0d:92:39:84:63:70:e0:35:
         4a:db:34:29:54:51:0a:19:09:6b:bd:4f:fa:3c:12:a5:0c:1c:
         78:bd:9f:90:79:08:f7:33:7e:36:b2:68:d3:9c:1c:80:cf:3b:
         15:93:27:95:fe:8e:da:74:f0:f0:27:28:fc:ae:ae:34:c0:3b:
         50:fe:1a:8f:a9:b2:10:fc:3f:4d:2f:3a:70:c5:4a:c2:df:70:
         ff:a4:60:37:01:32:f7:94:a1:aa:22:65:77:bf:49:ca:f3:35:
         88:61:58:1f:5e:90:b2:e0
-----BEGIN CERTIFICATE-----
MIIGrTCCBJWgAwIBAgICFJgwDQYJKoZIhvcNAQEEBQAwgawxCzAJBgNVBAYTAlVT
MQswCQYDVQQIEwJPSDERMA8GA1UEBxMIQ29sdW1idXMxEjAQBgNVBAoTCVZpa2lu
Z1ZQTjEdMBsGA1UECxMUTXlPcmdhbml6YXRpb25hbFVuaXQxFTATBgNVBAMTDFZp
a2luZ1ZQTiBDQTEQMA4GA1UEKRMHRWFzeVJTQTEhMB8GCSqGSIb3DQEJARYSbWVA
bXlob3N0Lm15ZG9tYWluMB4XDTE1MDUxNDAxMTU1N1oXDTI1MDUxMTAxMTU1N1ow
HzEdMBsGA1UEAxMUQ2xpZW50MTY4MkNlcnRiZGRhNjIwggIiMA0GCSqGSIb3DQEB
AQUAA4ICDwAwggIKAoICAQDA1NGmycHQXo1JXpqogews0q2fVZfkwA1YtuSg0duw
yS4H1YX+C+JmIO4fMjxPnMZNXte9xz+fxVKnXhOAHHcvTqGyV+Fp1HMrK6AZvTNi
TGnvBlcgN/IYKPmt4JTnHmyKM7FxtU8APMLpjydfZL9bpqi7ZN2/0rNUKt9V62+q
ryr/DRn2HjcLjm2tnVxxDqCRSH64Z8ZE2RwEG0nAY1+PpI9hq4uvXG4qbqC34A2Z
+4EUEGIZKyXcmi+rN8PKhNQy4JV030x9sgzdiGcDEQ9DzFuojknQGell/cwZuYBK
2qTvrM4GsVg7mtrlHdkMHjHi0ZXlHjpQWw1XffkQbehmSQTQC2J4UobBLUNt9DTo
bt6NJ/SIWUFI9FC971lYYP4dr16gwLr2S7+DupnoI2xYu5sWPe0Swj7ae7B+5DTW
fAXZuy6ry2Ae8N9FvqkCFcs76cimgjiAtcyhvvVbUlJS+GV1aTx0cAICvO+bXEda
ZSnxwHH4w78dX2V52J0AGJwoL1gLb2ffQAJEn+eHmy0ukIiH9pe9fNTcQDjWoSmd
qVqhmu6vBRYd7jAR70qCxkeiiIq6zewIv9avIgcILLDdw9Tmnmfnitk/L7YuTPrd
mGBhTHLGnNF/bkCUHbGbWcWvUGCqCRypm8XZTUfLr22dJ/UZJSL215z+HG0FosyF
ZwIDAQABo4IBYzCCAV8wCQYDVR0TBAIwADAtBglghkgBhvhCAQ0EIBYeRWFzeS1S
U0EgR2VuZXJhdGVkIENlcnRpZmljYXRlMB0GA1UdDgQWBBRj8PnpOcM7gL6iDf2W
N6u/vweBnzCB4QYDVR0jBIHZMIHWgBQSzWAE0qCAnnDtxpm4eyzGUv0ZoaGBsqSB
rzCBrDELMAkGA1UEBhMCVVMxCzAJBgNVBAgTAk9IMREwDwYDVQQHEwhDb2x1bWJ1
czESMBAGA1UEChMJVmlraW5nVlBOMR0wGwYDVQQLExRNeU9yZ2FuaXphdGlvbmFs
VW5pdDEVMBMGA1UEAxMMVmlraW5nVlBOIENBMRAwDgYDVQQpEwdFYXN5UlNBMSEw
HwYJKoZIhvcNAQkBFhJtZUBteWhvc3QubXlkb21haW6CCQDPNYXugL8qPjATBgNV
HSUEDDAKBggrBgEFBQcDAjALBgNVHQ8EBAMCB4AwDQYJKoZIhvcNAQEEBQADggIB
ACqiuuOD9V91sNjpR7SKBqM2gAfeWV9tVhgnv4rXPvoHJE58aN3+ENtMcuSUu/Uq
oAtequjc2Urf1D2urIqVACWY3uMLXo3yHNETkU1XoRTqdaU2fP3JPxJQ19ZadXPl
pnxLiqimVrnX8Z8eAGVLuNgJyKe2BeflYD8ishOKOBxhHCRL/DpMot1z3S2TfVxH
yRO1AY/Qp0AJ8C/pD79CRM3csCptm5mI74IXIcBWhkMA1G7oMwewbtzK/8kE4YtJ
JYeXTV7+xKXnSKJJwD+oaikpCTqu2bpQWF5//HAhD7C4UDbyFXHr21HqiNfSzsuU
DjQa9U6cFW4QglDDYxE8OBFDYo1DDjskgV1nX+rtQUUaed/3zojPZZc/Pvt6P2Nh
zTxFwwACGzraaaYYbF90FSQK+B9laQJuzLQVNtrHUtjqrW27DiZQEc96GJhyGBjl
Rpv9dqN6GcTnlYI1/QH6VrFAEGnIj7gU4vsWIVg4hEmY0stvda35fVBc7HEvJ3Dp
p4NvgGSv7DF8rFYuVYoIKW/YpDsL9eoNkjmEY3DgNUrbNClUUQoZCWu9T/o8EqUM
HHi9n5B5CPczfjayaNOcHIDPOxWTJ5X+jtp08PAnKPyurjTAO1D+Go+pshD8P00v
OnDFSsLfcP+kYDcBMveUoaoiZXe/ScrzNYhhWB9ekLLg
-----END CERTIFICATE-----
