Certificate:
    Data:
        Version: 3 (0x2)
        Serial Number: 5280 (0x14a0)
    Signature Algorithm: md5WithRSAEncryption
        Issuer: C=US, ST=OH, L=Columbus, O=VikingVPN, OU=MyOrganizationalUnit, CN=VikingVPN CA/name=EasyRSA/emailAddress=me@myhost.mydomain
        Validity
            Not Before: May 14 12:51:14 2015 GMT
            Not After : May 11 12:51:14 2025 GMT
        Subject: CN=Client1662Cert0fc24a
        Subject Public Key Info:
            Public Key Algorithm: rsaEncryption
                Public-Key: (4096 bit)
                Modulus:
                    00:c0:5b:c3:41:6b:16:2f:6a:2e:97:5d:c4:f9:06:
                    40:3d:2f:f7:27:6c:27:7c:13:df:5a:2b:65:b6:ff:
                    97:3a:53:d4:d1:02:3c:9c:ae:59:7b:40:c7:52:d7:
                    2a:89:74:fc:f4:2c:c7:a9:73:7f:f9:e8:93:95:a8:
                    b7:84:be:51:c4:fe:e7:68:98:85:81:5c:59:19:e5:
                    0f:f8:4d:69:b6:96:68:1e:c8:95:80:1c:67:d2:42:
                    aa:1e:e2:a7:2a:e0:8a:54:5c:f0:03:b5:7b:50:20:
                    dc:28:77:1c:2b:d0:39:2e:5d:aa:ff:f5:a2:5e:67:
                    aa:6a:2d:5e:89:82:79:5d:84:eb:e2:95:06:02:c2:
                    31:97:71:cc:66:7b:09:ff:2f:55:d0:34:ee:da:2f:
                    ca:5b:d6:fd:7f:d1:6f:4e:f4:06:3a:2c:2c:69:cf:
                    73:8d:6a:e0:e6:f8:5a:2e:27:15:fb:fe:65:76:6b:
                    7e:21:91:ab:fe:39:84:b7:34:fc:40:88:f3:a7:98:
                    4d:0c:aa:b4:85:94:f3:95:cd:1e:a3:f3:ea:83:30:
                    3f:2a:29:e9:9d:a2:7f:56:7c:2d:58:d0:cb:3a:aa:
                    0a:73:09:14:ca:a2:6c:4d:30:de:fa:4d:cb:0d:d2:
                    cd:fc:b5:30:07:b8:b5:b9:e9:a5:a9:4b:95:e5:6c:
                    68:b5:0e:1b:8e:e8:43:ee:ec:ed:bf:bd:2b:25:81:
                    55:30:68:cf:c6:2a:94:7c:bd:a4:0f:02:3a:4a:5d:
                    b4:15:00:a6:d2:b1:41:47:8a:08:66:43:fb:9c:ca:
                    2a:4a:9b:42:c2:f1:89:d4:2f:db:5b:7d:3b:2e:db:
                    59:b4:02:22:01:6c:1f:43:c9:0b:4e:0b:c6:59:fb:
                    9d:12:b8:a8:8d:be:60:58:cb:95:3d:99:e4:07:15:
                    19:16:ec:c9:54:74:17:7c:4b:51:3d:ba:7d:80:de:
                    5c:94:cb:a2:16:e6:06:9b:f7:6d:31:48:e0:cb:68:
                    f9:98:e4:5f:62:2b:f7:3f:bd:5b:eb:6f:ad:b1:c0:
                    7f:ae:ff:50:6d:03:42:ca:b0:bb:3b:a8:5b:a6:5a:
                    88:b5:40:62:ec:90:46:fb:08:5c:54:a3:7c:7c:8c:
                    00:cf:c2:77:53:a4:41:2d:4f:57:1b:ba:ef:1c:8f:
                    2e:ee:d2:3e:ea:43:16:9c:36:24:a2:cd:1e:37:3d:
                    1c:6f:b5:35:74:2f:8f:7e:cd:25:8d:f4:8d:ad:b6:
                    79:76:80:ac:8b:24:21:f4:5d:e6:da:40:55:0e:65:
                    d7:50:2e:3d:9c:65:1f:0e:59:dd:b4:5b:73:9c:48:
                    75:df:38:52:9b:41:17:cb:84:b8:eb:02:a2:d9:cd:
                    b4:23:43
                Exponent: 65537 (0x10001)
        X509v3 extensions:
            X509v3 Basic Constraints: 
                CA:FALSE
            Netscape Comment: 
                Easy-RSA Generated Certificate
            X509v3 Subject Key Identifier: 
                0A:22:C6:FE:67:29:11:0A:4D:EA:AA:CF:D5:94:FB:DA:33:23:DF:76
            X509v3 Authority Key Identifier: 
                keyid:12:CD:60:04:D2:A0:80:9E:70:ED:C6:99:B8:7B:2C:C6:52:FD:19:A1
                DirName:/C=US/ST=OH/L=Columbus/O=VikingVPN/OU=MyOrganizationalUnit/CN=VikingVPN CA/name=EasyRSA/emailAddress=me@myhost.mydomain
                serial:CF:35:85:EE:80:BF:2A:3E

            X509v3 Extended Key Usage: 
                TLS Web Client Authentication
            X509v3 Key Usage: 
                Digital Signature
    Signature Algorithm: md5WithRSAEncryption
         16:02:b7:5c:ab:d0:df:03:35:b2:df:e3:0f:d4:db:f9:49:14:
         3d:96:21:92:45:53:bb:7d:f3:ba:a7:c3:45:96:1d:a1:64:06:
         75:e9:22:8f:2e:1e:7e:ad:67:95:b3:73:70:ee:2a:b4:ae:22:
         13:49:b4:ea:75:4d:e8:56:a1:71:68:9b:8c:a9:0e:0a:29:84:
         75:56:6b:64:43:49:5a:67:21:23:16:1a:7b:ed:a4:95:e7:90:
         73:0f:ca:ce:bb:eb:92:f1:79:22:b4:b5:5f:bc:b9:82:21:55:
         19:db:44:45:4b:fa:67:77:e8:bc:99:43:3f:c8:c3:16:24:ff:
         b1:fc:fd:d3:db:ed:46:bd:d5:c1:b1:23:e6:e3:68:2d:50:13:
         fd:69:65:18:fe:99:ba:9d:b1:63:53:50:50:92:b0:5f:ac:58:
         ae:8d:00:62:93:cf:a6:cc:75:75:06:32:0f:c9:6d:06:7c:b9:
         81:f5:c9:81:42:c1:86:7d:54:9a:fe:be:be:3d:20:f4:6c:7a:
         c5:87:8a:51:da:68:0d:8e:8e:cd:bc:ea:37:6b:7c:0d:71:07:
         5a:a1:05:c1:e6:fa:7e:1d:27:6f:30:92:4f:56:07:25:07:c6:
         ee:8a:fc:2f:c8:ac:a0:b1:68:24:64:ce:1c:82:b5:1a:14:16:
         14:74:b9:3a:8b:3b:db:9e:80:80:af:9c:01:e7:ce:66:98:6d:
         ea:07:38:f0:b9:c9:9a:05:34:07:3c:f2:00:df:54:1c:63:e9:
         f6:99:e2:5f:7b:ca:d4:97:d0:9f:10:0e:45:32:53:1c:16:ee:
         20:56:cf:d9:ce:bc:f7:5a:bf:aa:ce:e5:ec:cd:15:68:69:31:
         68:92:1e:9f:93:9f:2c:34:2c:d7:8b:79:be:b1:80:c5:e9:41:
         ff:40:13:eb:83:cf:28:9f:b4:f5:80:74:54:2c:a3:a2:46:5c:
         e2:84:3d:8d:e0:73:a9:50:dc:1b:20:93:fc:0a:b0:e8:2c:3b:
         b3:47:df:33:07:fa:1c:05:b5:12:1f:bb:5e:70:5d:fb:1c:64:
         9e:f8:9e:e0:97:da:2c:67:fe:13:8c:96:2a:a7:94:2f:60:ee:
         a3:8b:b8:f2:12:cf:58:05:0b:64:e8:9f:bb:ab:2b:28:f5:9d:
         88:58:63:c7:90:45:f4:ea:af:5e:45:ee:c6:40:bd:49:7e:57:
         7e:0b:6d:85:17:b6:c6:c7:26:87:d0:2e:f8:cc:68:c5:57:36:
         35:4c:c6:4c:ed:16:05:15:c4:ce:3e:ca:c0:58:7b:27:f1:a0:
         a2:2b:df:ac:e9:46:54:a3:bc:89:ac:6e:b7:24:6c:48:4a:66:
         0d:78:2c:aa:54:0b:52:5a
-----BEGIN CERTIFICATE-----
MIIGrTCCBJWgAwIBAgICFKAwDQYJKoZIhvcNAQEEBQAwgawxCzAJBgNVBAYTAlVT
MQswCQYDVQQIEwJPSDERMA8GA1UEBxMIQ29sdW1idXMxEjAQBgNVBAoTCVZpa2lu
Z1ZQTjEdMBsGA1UECxMUTXlPcmdhbml6YXRpb25hbFVuaXQxFTATBgNVBAMTDFZp
a2luZ1ZQTiBDQTEQMA4GA1UEKRMHRWFzeVJTQTEhMB8GCSqGSIb3DQEJARYSbWVA
bXlob3N0Lm15ZG9tYWluMB4XDTE1MDUxNDEyNTExNFoXDTI1MDUxMTEyNTExNFow
HzEdMBsGA1UEAxMUQ2xpZW50MTY2MkNlcnQwZmMyNGEwggIiMA0GCSqGSIb3DQEB
AQUAA4ICDwAwggIKAoICAQDAW8NBaxYvai6XXcT5BkA9L/cnbCd8E99aK2W2/5c6
U9TRAjycrll7QMdS1yqJdPz0LMepc3/56JOVqLeEvlHE/udomIWBXFkZ5Q/4TWm2
lmgeyJWAHGfSQqoe4qcq4IpUXPADtXtQINwodxwr0DkuXar/9aJeZ6pqLV6Jgnld
hOvilQYCwjGXccxmewn/L1XQNO7aL8pb1v1/0W9O9AY6LCxpz3ONauDm+FouJxX7
/mV2a34hkav+OYS3NPxAiPOnmE0MqrSFlPOVzR6j8+qDMD8qKemdon9WfC1Y0Ms6
qgpzCRTKomxNMN76TcsN0s38tTAHuLW56aWpS5XlbGi1DhuO6EPu7O2/vSslgVUw
aM/GKpR8vaQPAjpKXbQVAKbSsUFHighmQ/ucyipKm0LC8YnUL9tbfTsu21m0AiIB
bB9DyQtOC8ZZ+50SuKiNvmBYy5U9meQHFRkW7MlUdBd8S1E9un2A3lyUy6IW5gab
920xSODLaPmY5F9iK/c/vVvrb62xwH+u/1BtA0LKsLs7qFumWoi1QGLskEb7CFxU
o3x8jADPwndTpEEtT1cbuu8cjy7u0j7qQxacNiSizR43PRxvtTV0L49+zSWN9I2t
tnl2gKyLJCH0XebaQFUOZddQLj2cZR8OWd20W3OcSHXfOFKbQRfLhLjrAqLZzbQj
QwIDAQABo4IBYzCCAV8wCQYDVR0TBAIwADAtBglghkgBhvhCAQ0EIBYeRWFzeS1S
U0EgR2VuZXJhdGVkIENlcnRpZmljYXRlMB0GA1UdDgQWBBQKIsb+ZykRCk3qqs/V
lPvaMyPfdjCB4QYDVR0jBIHZMIHWgBQSzWAE0qCAnnDtxpm4eyzGUv0ZoaGBsqSB
rzCBrDELMAkGA1UEBhMCVVMxCzAJBgNVBAgTAk9IMREwDwYDVQQHEwhDb2x1bWJ1
czESMBAGA1UEChMJVmlraW5nVlBOMR0wGwYDVQQLExRNeU9yZ2FuaXphdGlvbmFs
VW5pdDEVMBMGA1UEAxMMVmlraW5nVlBOIENBMRAwDgYDVQQpEwdFYXN5UlNBMSEw
HwYJKoZIhvcNAQkBFhJtZUBteWhvc3QubXlkb21haW6CCQDPNYXugL8qPjATBgNV
HSUEDDAKBggrBgEFBQcDAjALBgNVHQ8EBAMCB4AwDQYJKoZIhvcNAQEEBQADggIB
ABYCt1yr0N8DNbLf4w/U2/lJFD2WIZJFU7t987qnw0WWHaFkBnXpIo8uHn6tZ5Wz
c3DuKrSuIhNJtOp1TehWoXFom4ypDgophHVWa2RDSVpnISMWGnvtpJXnkHMPys67
65LxeSK0tV+8uYIhVRnbREVL+md36LyZQz/IwxYk/7H8/dPb7Ua91cGxI+bjaC1Q
E/1pZRj+mbqdsWNTUFCSsF+sWK6NAGKTz6bMdXUGMg/JbQZ8uYH1yYFCwYZ9VJr+
vr49IPRsesWHilHaaA2Ojs286jdrfA1xB1qhBcHm+n4dJ28wkk9WByUHxu6K/C/I
rKCxaCRkzhyCtRoUFhR0uTqLO9uegICvnAHnzmaYbeoHOPC5yZoFNAc88gDfVBxj
6faZ4l97ytSX0J8QDkUyUxwW7iBWz9nOvPdav6rO5ezNFWhpMWiSHp+Tnyw0LNeL
eb6xgMXpQf9AE+uDzyiftPWAdFQso6JGXOKEPY3gc6lQ3Bsgk/wKsOgsO7NH3zMH
+hwFtRIfu15wXfscZJ74nuCX2ixn/hOMliqnlC9g7qOLuPISz1gFC2Ton7urKyj1
nYhYY8eQRfTqr15F7sZAvUl+V34LbYUXtsbHJofQLvjMaMVXNjVMxkztFgUVxM4+
ysBYeyfxoKIr36zpRlSjvImsbrckbEhKZg14LKpUC1Ja
-----END CERTIFICATE-----
