Certificate:
    Data:
        Version: 3 (0x2)
        Serial Number: 5284 (0x14a4)
    Signature Algorithm: md5WithRSAEncryption
        Issuer: C=US, ST=OH, L=Columbus, O=VikingVPN, OU=MyOrganizationalUnit, CN=VikingVPN CA/name=EasyRSA/emailAddress=me@myhost.mydomain
        Validity
            Not Before: May 14 23:04:29 2015 GMT
            Not After : May 11 23:04:29 2025 GMT
        Subject: CN=Client486Cert6a90f7
        Subject Public Key Info:
            Public Key Algorithm: rsaEncryption
                Public-Key: (4096 bit)
                Modulus:
                    00:dc:a1:64:c8:6c:22:44:b6:6a:68:c1:1d:15:e2:
                    0a:11:2e:a1:42:27:4a:02:c2:2a:58:ce:87:eb:81:
                    f9:bf:ba:07:6f:fd:2a:3b:77:2e:08:75:9c:be:ba:
                    02:c2:d7:c6:9d:51:f9:00:b4:e3:99:f2:8d:4f:89:
                    6c:72:f3:35:6f:e5:3c:00:67:71:de:40:a7:fc:99:
                    8c:bc:7a:8f:5d:fc:cb:ef:0c:4b:21:a0:8e:d8:d7:
                    5a:76:04:7f:2b:13:73:72:9e:dc:05:12:39:ee:c7:
                    2c:85:a8:d1:8f:4e:7d:22:9c:50:46:ed:b1:fb:24:
                    02:32:07:4a:a7:50:25:32:7a:40:78:88:63:be:4a:
                    e2:23:d5:fe:12:8c:73:91:94:a1:ce:45:76:36:67:
                    e8:ce:b7:ce:5c:6e:4d:26:bf:b7:f1:2a:23:3f:0f:
                    a4:36:4e:ae:d5:5d:ca:94:c5:82:71:94:59:f0:d1:
                    f5:ce:ad:af:18:93:76:cd:6a:bb:da:cb:7f:98:d4:
                    5e:77:ed:95:a0:cf:e8:a8:cb:b3:3a:00:a7:4b:2b:
                    3a:8b:c3:f4:76:6f:c8:c2:00:44:6e:23:cc:14:d0:
                    41:3e:10:92:8a:df:d0:f9:85:de:11:be:26:87:8e:
                    86:90:72:ec:0a:13:09:df:b3:6a:2e:66:e5:a2:f2:
                    49:2b:fe:71:15:f1:01:a7:f4:89:c3:2b:7d:d6:c4:
                    a4:7d:d3:65:51:97:4f:a3:01:37:43:cb:bc:a7:3b:
                    eb:52:5e:54:fb:9b:13:1a:0a:1c:52:d9:3f:70:f2:
                    b9:a1:88:9e:ea:59:ba:93:15:2d:85:cc:96:b6:61:
                    7d:41:6c:c9:63:73:47:de:17:9a:2d:9a:09:17:6d:
                    b8:7d:4e:44:69:32:af:87:be:dd:e5:22:0d:ea:31:
                    88:a9:cc:0b:40:dc:80:5c:a8:6e:88:22:32:ee:e8:
                    1e:8b:71:ce:e9:26:b6:c8:9e:60:6b:55:67:d6:ba:
                    12:53:aa:fa:d5:54:46:18:34:ae:55:b7:b0:a6:b1:
                    22:db:ad:db:1a:b5:b1:74:a8:08:3b:f2:24:16:25:
                    4f:e8:63:96:8d:06:1a:34:f6:a5:7c:77:b9:cd:f9:
                    6f:0e:69:b5:d5:2d:6d:86:c0:0f:e1:91:65:c4:5f:
                    f5:9f:43:6e:83:de:04:5e:69:7b:69:cc:5b:cb:57:
                    6f:01:2c:ee:9f:4d:7a:4c:16:3b:79:ac:0c:96:2e:
                    25:95:e9:1d:39:fb:fd:6b:64:8a:c5:bc:99:a7:82:
                    2c:c8:b9:e0:e0:93:39:de:97:76:dd:88:36:8e:f8:
                    2b:9d:82:fe:10:71:5f:c3:18:77:1a:ec:d3:e3:6e:
                    54:fd:67
                Exponent: 65537 (0x10001)
        X509v3 extensions:
            X509v3 Basic Constraints: 
                CA:FALSE
            Netscape Comment: 
                Easy-RSA Generated Certificate
            X509v3 Subject Key Identifier: 
                F8:1D:6F:9A:11:82:A1:10:00:50:E0:CE:F1:A3:5E:38:7E:0F:58:06
            X509v3 Authority Key Identifier: 
                keyid:12:CD:60:04:D2:A0:80:9E:70:ED:C6:99:B8:7B:2C:C6:52:FD:19:A1
                DirName:/C=US/ST=OH/L=Columbus/O=VikingVPN/OU=MyOrganizationalUnit/CN=VikingVPN CA/name=EasyRSA/emailAddress=me@myhost.mydomain
                serial:CF:35:85:EE:80:BF:2A:3E

            X509v3 Extended Key Usage: 
                TLS Web Client Authentication
            X509v3 Key Usage: 
                Digital Signature
    Signature Algorithm: md5WithRSAEncryption
         1d:4d:a9:6d:0e:34:e6:af:7b:78:7e:3b:c7:b4:8d:b6:34:4b:
         6a:b1:c6:5c:b8:59:a1:05:ea:9d:e4:84:a2:12:18:3a:10:e9:
         4d:63:78:09:5d:43:b5:1f:04:82:92:e3:84:31:95:4f:41:df:
         1d:cd:97:57:3f:16:82:de:11:f1:a8:8e:0b:c6:fb:5c:6d:58:
         76:3e:ff:13:ca:53:f9:76:8d:3f:68:d0:2a:9c:54:77:e3:5b:
         ec:1b:3d:79:ea:73:48:e7:36:0e:d7:ab:2c:4f:80:d4:09:71:
         7e:85:8f:8e:5c:c7:c9:80:0d:4c:a1:83:55:16:b2:a7:a1:f9:
         59:5e:b4:69:dd:7c:26:79:ff:95:2b:3d:94:c9:1e:a2:75:b5:
         36:77:69:0f:aa:0d:40:49:34:61:53:6b:95:96:5e:08:a2:4f:
         86:b9:eb:17:7d:13:c7:ce:62:f5:76:bd:17:6a:eb:64:bc:d6:
         13:31:91:e6:86:6e:a6:4c:98:cd:89:80:38:bd:93:42:b6:b8:
         4d:2d:4b:64:a7:47:16:50:3c:66:3e:ee:9a:2a:79:fe:32:4d:
         f6:46:d6:23:d2:17:54:01:79:5f:d8:96:f4:38:0e:ec:d0:6f:
         9c:38:9b:4e:3e:6a:a4:96:e5:92:6e:ec:36:cd:2e:e4:c8:c4:
         d7:e3:b1:09:f0:55:90:7b:c9:b1:3b:83:37:99:cd:0a:10:c8:
         9d:65:a2:73:46:00:80:aa:8c:ee:67:a5:e6:ed:17:16:6c:59:
         c3:32:12:4f:93:32:3f:34:52:03:c0:8e:4f:ca:e8:1e:5e:ed:
         e7:17:83:3e:a5:36:be:df:e9:e7:d6:29:04:65:50:e2:58:51:
         d7:bd:2e:61:a8:a9:ec:ee:98:25:35:e0:c3:ba:b8:71:c9:8c:
         e3:db:00:b5:a1:0d:64:8f:ac:28:28:0b:35:25:0c:57:1d:30:
         ca:12:78:81:b0:5e:96:b5:4c:83:a5:31:65:b2:b0:7a:08:7d:
         a5:e4:ba:22:23:43:0b:9b:ae:f9:dd:01:d9:71:44:14:43:c7:
         29:d6:01:6e:b4:83:a4:58:28:2c:43:10:ba:3b:45:3d:9f:64:
         05:83:82:8b:84:4e:31:4e:50:29:b5:4a:12:a4:c1:0d:a0:fe:
         5b:54:01:83:c6:0d:4e:08:52:1b:07:53:04:12:90:7b:77:14:
         64:79:66:cd:e8:6e:d8:98:15:6c:a6:06:96:ed:3d:c3:e5:28:
         f8:33:fc:3b:2c:41:02:bf:f8:7d:70:35:74:44:ed:b3:99:cc:
         36:3b:2f:10:5f:9b:37:68:09:c4:1f:97:d9:a7:f2:03:ec:df:
         55:4c:89:ac:42:1e:4b:a0
-----BEGIN CERTIFICATE-----
MIIGrDCCBJSgAwIBAgICFKQwDQYJKoZIhvcNAQEEBQAwgawxCzAJBgNVBAYTAlVT
MQswCQYDVQQIEwJPSDERMA8GA1UEBxMIQ29sdW1idXMxEjAQBgNVBAoTCVZpa2lu
Z1ZQTjEdMBsGA1UECxMUTXlPcmdhbml6YXRpb25hbFVuaXQxFTATBgNVBAMTDFZp
a2luZ1ZQTiBDQTEQMA4GA1UEKRMHRWFzeVJTQTEhMB8GCSqGSIb3DQEJARYSbWVA
bXlob3N0Lm15ZG9tYWluMB4XDTE1MDUxNDIzMDQyOVoXDTI1MDUxMTIzMDQyOVow
HjEcMBoGA1UEAxMTQ2xpZW50NDg2Q2VydDZhOTBmNzCCAiIwDQYJKoZIhvcNAQEB
BQADggIPADCCAgoCggIBANyhZMhsIkS2amjBHRXiChEuoUInSgLCKljOh+uB+b+6
B2/9Kjt3Lgh1nL66AsLXxp1R+QC045nyjU+JbHLzNW/lPABncd5Ap/yZjLx6j138
y+8MSyGgjtjXWnYEfysTc3Ke3AUSOe7HLIWo0Y9OfSKcUEbtsfskAjIHSqdQJTJ6
QHiIY75K4iPV/hKMc5GUoc5FdjZn6M63zlxuTSa/t/EqIz8PpDZOrtVdypTFgnGU
WfDR9c6trxiTds1qu9rLf5jUXnftlaDP6KjLszoAp0srOovD9HZvyMIARG4jzBTQ
QT4Qkorf0PmF3hG+JoeOhpBy7AoTCd+zai5m5aLySSv+cRXxAaf0icMrfdbEpH3T
ZVGXT6MBN0PLvKc761JeVPubExoKHFLZP3DyuaGInupZupMVLYXMlrZhfUFsyWNz
R94Xmi2aCRdtuH1ORGkyr4e+3eUiDeoxiKnMC0DcgFyobogiMu7oHotxzukmtsie
YGtVZ9a6ElOq+tVURhg0rlW3sKaxItut2xq1sXSoCDvyJBYlT+hjlo0GGjT2pXx3
uc35bw5ptdUtbYbAD+GRZcRf9Z9DboPeBF5pe2nMW8tXbwEs7p9NekwWO3msDJYu
JZXpHTn7/WtkisW8maeCLMi54OCTOd6Xdt2INo74K52C/hBxX8MYdxrs0+NuVP1n
AgMBAAGjggFjMIIBXzAJBgNVHRMEAjAAMC0GCWCGSAGG+EIBDQQgFh5FYXN5LVJT
QSBHZW5lcmF0ZWQgQ2VydGlmaWNhdGUwHQYDVR0OBBYEFPgdb5oRgqEQAFDgzvGj
Xjh+D1gGMIHhBgNVHSMEgdkwgdaAFBLNYATSoICecO3Gmbh7LMZS/RmhoYGypIGv
MIGsMQswCQYDVQQGEwJVUzELMAkGA1UECBMCT0gxETAPBgNVBAcTCENvbHVtYnVz
MRIwEAYDVQQKEwlWaWtpbmdWUE4xHTAbBgNVBAsTFE15T3JnYW5pemF0aW9uYWxV
bml0MRUwEwYDVQQDEwxWaWtpbmdWUE4gQ0ExEDAOBgNVBCkTB0Vhc3lSU0ExITAf
BgkqhkiG9w0BCQEWEm1lQG15aG9zdC5teWRvbWFpboIJAM81he6Avyo+MBMGA1Ud
JQQMMAoGCCsGAQUFBwMCMAsGA1UdDwQEAwIHgDANBgkqhkiG9w0BAQQFAAOCAgEA
HU2pbQ405q97eH47x7SNtjRLarHGXLhZoQXqneSEohIYOhDpTWN4CV1DtR8EgpLj
hDGVT0HfHc2XVz8Wgt4R8aiOC8b7XG1Ydj7/E8pT+XaNP2jQKpxUd+Nb7Bs9eepz
SOc2DterLE+A1AlxfoWPjlzHyYANTKGDVRayp6H5WV60ad18Jnn/lSs9lMkeonW1
NndpD6oNQEk0YVNrlZZeCKJPhrnrF30Tx85i9Xa9F2rrZLzWEzGR5oZupkyYzYmA
OL2TQra4TS1LZKdHFlA8Zj7umip5/jJN9kbWI9IXVAF5X9iW9DgO7NBvnDibTj5q
pJblkm7sNs0u5MjE1+OxCfBVkHvJsTuDN5nNChDInWWic0YAgKqM7mel5u0XFmxZ
wzIST5MyPzRSA8COT8roHl7t5xeDPqU2vt/p59YpBGVQ4lhR170uYaip7O6YJTXg
w7q4ccmM49sAtaENZI+sKCgLNSUMVx0wyhJ4gbBelrVMg6UxZbKwegh9peS6IiND
C5uu+d0B2XFEFEPHKdYBbrSDpFgoLEMQujtFPZ9kBYOCi4ROMU5QKbVKEqTBDaD+
W1QBg8YNTghSGwdTBBKQe3cUZHlmzehu2JgVbKYGlu09w+Uo+DP8OyxBAr/4fXA1
dETts5nMNjsvEF+bN2gJxB+X2afyA+zfVUyJrEIeS6A=
-----END CERTIFICATE-----
