Certificate:
    Data:
        Version: 3 (0x2)
        Serial Number: 5292 (0x14ac)
    Signature Algorithm: md5WithRSAEncryption
        Issuer: C=US, ST=OH, L=Columbus, O=VikingVPN, OU=MyOrganizationalUnit, CN=VikingVPN CA/name=EasyRSA/emailAddress=me@myhost.mydomain
        Validity
            Not Before: May 15 16:40:47 2015 GMT
            Not After : May 12 16:40:47 2025 GMT
        Subject: CN=Client1672Cert612490
        Subject Public Key Info:
            Public Key Algorithm: rsaEncryption
                Public-Key: (4096 bit)
                Modulus:
                    00:be:58:6d:2e:94:e6:5e:67:a7:65:22:3c:66:af:
                    2c:68:96:86:ef:f8:1e:21:b9:c1:86:d7:ef:df:68:
                    32:bd:d0:56:b7:f2:3d:71:2b:e5:3c:33:ce:63:f8:
                    a8:dc:82:4a:75:81:ae:83:52:3a:76:c8:ff:3b:35:
                    cf:44:68:df:eb:77:51:96:e8:03:65:8b:5d:65:35:
                    40:73:e2:70:cc:91:99:ee:bb:6b:fb:50:a8:d7:b0:
                    93:db:68:a4:cb:8d:1d:92:71:2b:cc:f4:dd:d0:63:
                    2e:b9:d7:91:dc:13:99:a6:be:4e:43:bb:7e:46:c2:
                    0f:3d:1e:6b:0f:56:ae:81:2d:06:c1:9d:26:8f:bb:
                    7f:14:39:72:03:8d:11:f7:af:f7:b5:58:54:4d:b9:
                    8e:b1:a0:2b:5b:f1:83:4b:a1:e9:72:f0:e1:12:b3:
                    06:79:94:cd:2d:eb:68:50:a7:ee:0e:31:9a:99:72:
                    47:90:19:10:6f:cd:52:ff:c8:51:c3:26:42:7a:b6:
                    fc:ae:ab:41:98:90:a9:17:22:e2:8a:52:65:de:0d:
                    df:f3:2a:25:37:15:cd:80:2b:c4:c0:6a:f1:97:69:
                    d7:14:46:40:1b:ef:db:88:52:01:c4:6d:06:ac:c8:
                    7c:72:99:35:a9:13:c1:86:e2:17:b3:60:2b:2e:0a:
                    5e:25:48:ad:b8:f3:46:f4:39:f7:9e:c4:f2:11:f9:
                    d2:d4:b4:92:b2:04:5e:ad:4d:f6:e3:44:c6:c6:61:
                    48:42:6f:c2:cd:4e:78:25:f8:9c:d3:b9:1e:cb:35:
                    02:40:69:f7:a3:da:ff:8a:ce:1f:ed:0d:39:4b:d5:
                    1a:36:47:2f:f0:13:52:1c:26:56:c8:58:8e:7b:2c:
                    4f:4d:61:e7:33:67:a7:20:31:9f:7b:6b:4f:97:87:
                    1e:ce:13:2a:16:2f:4e:0c:85:b7:11:9f:b9:96:b5:
                    93:56:e0:b8:a5:b5:29:ba:c3:fe:e6:1f:a5:b8:d1:
                    e4:4c:81:b4:c6:53:36:e5:d6:85:2a:27:50:55:06:
                    8a:89:c6:96:6f:f2:8c:13:1a:36:1f:48:a6:d3:94:
                    e4:c5:85:8a:a4:07:67:c5:34:bf:1e:f6:16:53:45:
                    2d:35:d1:b1:ca:97:8d:cb:2f:c0:9f:f5:e8:b8:b9:
                    4e:78:b8:25:39:62:1d:01:23:cd:3d:0e:33:dd:17:
                    11:9b:b8:0d:4a:6b:76:dd:ee:31:5e:60:34:eb:42:
                    0c:4d:78:e4:d6:8b:6a:18:16:d6:ab:98:fe:d3:5e:
                    61:98:8b:88:20:ce:96:52:44:59:13:e5:78:d9:20:
                    06:68:0e:91:cd:fd:a1:b6:e4:bf:4c:cb:43:3c:81:
                    8f:c7:85
                Exponent: 65537 (0x10001)
        X509v3 extensions:
            X509v3 Basic Constraints: 
                CA:FALSE
            Netscape Comment: 
                Easy-RSA Generated Certificate
            X509v3 Subject Key Identifier: 
                2F:CD:76:A6:DF:58:AE:48:AA:08:A6:61:C7:34:F7:29:0D:8E:B5:E1
            X509v3 Authority Key Identifier: 
                keyid:12:CD:60:04:D2:A0:80:9E:70:ED:C6:99:B8:7B:2C:C6:52:FD:19:A1
                DirName:/C=US/ST=OH/L=Columbus/O=VikingVPN/OU=MyOrganizationalUnit/CN=VikingVPN CA/name=EasyRSA/emailAddress=me@myhost.mydomain
                serial:CF:35:85:EE:80:BF:2A:3E

            X509v3 Extended Key Usage: 
                TLS Web Client Authentication
            X509v3 Key Usage: 
                Digital Signature
    Signature Algorithm: md5WithRSAEncryption
         86:46:4f:90:94:e5:8c:b6:a1:88:2f:07:4f:4c:18:6c:07:e8:
         d4:72:ed:b4:35:2c:45:1e:67:b7:a5:45:79:44:20:50:fb:e6:
         a8:dd:4c:2a:2e:a7:88:91:80:eb:72:60:c9:b4:26:6e:f2:42:
         a6:2c:e0:22:6e:0c:84:94:ea:b9:96:2c:99:24:fc:8e:8b:65:
         5f:26:61:37:9c:a6:38:7e:c7:9a:46:e2:58:48:41:96:84:8c:
         8a:e6:ec:47:ec:6c:37:94:1d:eb:8b:11:b3:97:5a:69:1e:ee:
         4a:33:a5:f9:e5:bc:79:eb:7a:21:6c:e1:9b:a7:76:3d:89:64:
         78:f0:b8:1b:3c:44:de:71:b5:c3:fe:48:d6:83:11:7e:96:6c:
         7d:49:d6:51:31:b5:8e:71:8d:d1:2e:e0:56:b2:20:7b:9b:5e:
         71:6b:eb:91:be:b9:e3:c3:e0:69:ce:75:5f:28:48:00:8f:80:
         b7:94:76:d1:65:62:e2:ab:e2:45:42:8e:6b:8e:5f:95:71:1f:
         06:76:f6:c1:4e:b3:8e:58:27:ab:e7:03:15:19:12:54:15:13:
         c5:95:97:68:4e:77:e7:c4:83:24:37:0b:9b:01:84:4f:d5:cc:
         96:d6:b3:cf:e0:dd:45:d4:dc:f3:cd:5f:f5:9f:eb:de:59:6e:
         5d:46:84:dd:e9:ef:02:25:3f:00:8d:e2:2b:ab:e4:4a:00:f9:
         aa:5f:c0:9f:66:66:67:08:4f:4b:06:56:b1:18:8b:c9:dd:e1:
         e2:84:d1:10:4b:06:3c:73:2b:e5:85:dc:e5:23:c5:bd:c5:62:
         ea:51:02:f3:ed:84:41:28:54:22:79:72:b5:2f:2e:4e:1c:2c:
         5c:19:58:b8:bd:e8:4b:d9:a8:97:d1:59:ca:59:1d:84:43:56:
         4c:db:66:ba:04:f7:5e:10:3b:53:2b:a4:da:c3:9a:aa:48:1d:
         b2:9f:c9:bf:3f:b1:e0:c7:67:69:cb:39:41:97:a4:6f:e5:fc:
         29:11:ca:ba:9f:73:64:ee:b7:34:c8:91:ff:f2:d4:90:79:3c:
         16:1e:57:87:e6:87:0c:7f:14:ba:29:1e:85:cd:ca:54:84:06:
         2e:fa:2a:1a:8a:9c:29:a0:9f:42:32:69:2a:ba:42:b4:72:09:
         cc:26:e8:52:22:ce:4c:00:49:9f:9d:c3:51:8a:fb:9f:9d:6f:
         93:65:e5:c6:f2:93:98:9f:2d:bc:c3:73:28:aa:52:35:30:14:
         44:29:90:e7:09:6e:e3:5d:2b:15:86:5d:02:5e:7e:6a:fe:9a:
         2d:5a:67:5c:d4:6d:eb:33:4b:80:23:3f:a2:38:7a:69:1b:42:
         c3:3b:d2:3a:83:23:86:48
-----BEGIN CERTIFICATE-----
MIIGrTCCBJWgAwIBAgICFKwwDQYJKoZIhvcNAQEEBQAwgawxCzAJBgNVBAYTAlVT
MQswCQYDVQQIEwJPSDERMA8GA1UEBxMIQ29sdW1idXMxEjAQBgNVBAoTCVZpa2lu
Z1ZQTjEdMBsGA1UECxMUTXlPcmdhbml6YXRpb25hbFVuaXQxFTATBgNVBAMTDFZp
a2luZ1ZQTiBDQTEQMA4GA1UEKRMHRWFzeVJTQTEhMB8GCSqGSIb3DQEJARYSbWVA
bXlob3N0Lm15ZG9tYWluMB4XDTE1MDUxNTE2NDA0N1oXDTI1MDUxMjE2NDA0N1ow
HzEdMBsGA1UEAxMUQ2xpZW50MTY3MkNlcnQ2MTI0OTAwggIiMA0GCSqGSIb3DQEB
AQUAA4ICDwAwggIKAoICAQC+WG0ulOZeZ6dlIjxmryxolobv+B4hucGG1+/faDK9
0Fa38j1xK+U8M85j+Kjcgkp1ga6DUjp2yP87Nc9EaN/rd1GW6ANli11lNUBz4nDM
kZnuu2v7UKjXsJPbaKTLjR2ScSvM9N3QYy6515HcE5mmvk5Du35Gwg89HmsPVq6B
LQbBnSaPu38UOXIDjRH3r/e1WFRNuY6xoCtb8YNLoely8OESswZ5lM0t62hQp+4O
MZqZckeQGRBvzVL/yFHDJkJ6tvyuq0GYkKkXIuKKUmXeDd/zKiU3Fc2AK8TAavGX
adcURkAb79uIUgHEbQasyHxymTWpE8GG4hezYCsuCl4lSK2480b0OfeexPIR+dLU
tJKyBF6tTfbjRMbGYUhCb8LNTngl+JzTuR7LNQJAafej2v+Kzh/tDTlL1Ro2Ry/w
E1IcJlbIWI57LE9NYeczZ6cgMZ97a0+Xhx7OEyoWL04MhbcRn7mWtZNW4LiltSm6
w/7mH6W40eRMgbTGUzbl1oUqJ1BVBoqJxpZv8owTGjYfSKbTlOTFhYqkB2fFNL8e
9hZTRS010bHKl43LL8Cf9ei4uU54uCU5Yh0BI809DjPdFxGbuA1Ka3bd7jFeYDTr
QgxNeOTWi2oYFtarmP7TXmGYi4ggzpZSRFkT5XjZIAZoDpHN/aG25L9My0M8gY/H
hQIDAQABo4IBYzCCAV8wCQYDVR0TBAIwADAtBglghkgBhvhCAQ0EIBYeRWFzeS1S
U0EgR2VuZXJhdGVkIENlcnRpZmljYXRlMB0GA1UdDgQWBBQvzXam31iuSKoIpmHH
NPcpDY614TCB4QYDVR0jBIHZMIHWgBQSzWAE0qCAnnDtxpm4eyzGUv0ZoaGBsqSB
rzCBrDELMAkGA1UEBhMCVVMxCzAJBgNVBAgTAk9IMREwDwYDVQQHEwhDb2x1bWJ1
czESMBAGA1UEChMJVmlraW5nVlBOMR0wGwYDVQQLExRNeU9yZ2FuaXphdGlvbmFs
VW5pdDEVMBMGA1UEAxMMVmlraW5nVlBOIENBMRAwDgYDVQQpEwdFYXN5UlNBMSEw
HwYJKoZIhvcNAQkBFhJtZUBteWhvc3QubXlkb21haW6CCQDPNYXugL8qPjATBgNV
HSUEDDAKBggrBgEFBQcDAjALBgNVHQ8EBAMCB4AwDQYJKoZIhvcNAQEEBQADggIB
AIZGT5CU5Yy2oYgvB09MGGwH6NRy7bQ1LEUeZ7elRXlEIFD75qjdTCoup4iRgOty
YMm0Jm7yQqYs4CJuDISU6rmWLJkk/I6LZV8mYTecpjh+x5pG4lhIQZaEjIrm7Efs
bDeUHeuLEbOXWmke7kozpfnlvHnreiFs4Zundj2JZHjwuBs8RN5xtcP+SNaDEX6W
bH1J1lExtY5xjdEu4FayIHubXnFr65G+uePD4GnOdV8oSACPgLeUdtFlYuKr4kVC
jmuOX5VxHwZ29sFOs45YJ6vnAxUZElQVE8WVl2hOd+fEgyQ3C5sBhE/VzJbWs8/g
3UXU3PPNX/Wf695Zbl1GhN3p7wIlPwCN4iur5EoA+apfwJ9mZmcIT0sGVrEYi8nd
4eKE0RBLBjxzK+WF3OUjxb3FYupRAvPthEEoVCJ5crUvLk4cLFwZWLi96EvZqJfR
WcpZHYRDVkzbZroE914QO1MrpNrDmqpIHbKfyb8/seDHZ2nLOUGXpG/l/CkRyrqf
c2TutzTIkf/y1JB5PBYeV4fmhwx/FLopHoXNylSEBi76KhqKnCmgn0IyaSq6QrRy
Ccwm6FIizkwASZ+dw1GK+5+db5Nl5cbyk5ifLbzDcyiqUjUwFEQpkOcJbuNdKxWG
XQJefmr+mi1aZ1zUbeszS4AjP6I4emkbQsM70jqDI4ZI
-----END CERTIFICATE-----
