Certificate:
    Data:
        Version: 3 (0x2)
        Serial Number: 5304 (0x14b8)
    Signature Algorithm: md5WithRSAEncryption
        Issuer: C=US, ST=OH, L=Columbus, O=VikingVPN, OU=MyOrganizationalUnit, CN=VikingVPN CA/name=EasyRSA/emailAddress=me@myhost.mydomain
        Validity
            Not Before: May 16 16:36:17 2015 GMT
            Not After : May 13 16:36:17 2025 GMT
        Subject: CN=Client1690Cert9b3884
        Subject Public Key Info:
            Public Key Algorithm: rsaEncryption
                Public-Key: (4096 bit)
                Modulus:
                    00:95:ce:48:82:27:cb:6e:fa:a2:3f:83:ce:d1:f1:
                    11:df:a6:b1:32:24:f7:26:82:4b:1b:6f:d9:67:66:
                    e0:44:54:0e:bb:c7:7b:83:71:80:67:d6:78:c2:0e:
                    59:01:c4:cb:8f:68:fe:7b:e8:9e:e4:f7:fb:e5:bc:
                    6c:7b:6c:80:f7:aa:d2:cb:b4:d5:df:58:67:2b:3b:
                    2a:8e:c5:1c:64:c1:45:e6:4d:27:74:e6:4d:ba:bf:
                    d4:15:51:5c:b8:0f:2e:8a:01:5d:86:a1:8c:b5:7a:
                    3d:a5:8e:45:56:f1:59:bf:8f:7e:c2:14:8a:af:50:
                    aa:6c:a2:7e:5e:80:e8:57:64:07:b6:7f:1d:e6:1a:
                    81:d4:dd:da:2c:5a:fb:a8:78:dd:f2:72:e1:70:4f:
                    83:77:a5:36:db:f6:ac:ff:07:11:35:a1:5a:6f:c0:
                    6e:1b:1c:71:c8:c4:52:ae:67:1b:ea:80:76:75:ce:
                    d8:7e:c8:6b:03:63:e7:16:5d:9d:e1:c6:1b:25:2a:
                    63:01:fa:19:6c:9b:29:91:4d:ac:3a:89:e8:d0:11:
                    db:da:87:cb:6e:da:e8:1c:41:1e:b4:cf:e6:82:fe:
                    9b:2f:62:a8:20:73:f0:7a:ad:26:9b:db:02:61:65:
                    75:7f:75:e7:42:9e:18:ba:3d:ab:b2:ec:93:a1:80:
                    3e:cd:0a:46:63:1f:bf:55:f5:2c:dd:c5:3c:3e:54:
                    39:00:99:00:98:7c:9d:08:28:c4:9d:67:4e:f8:12:
                    45:84:a6:3e:23:81:85:7b:c2:77:09:d3:12:4b:42:
                    81:c7:e1:16:e7:fa:28:ec:f9:c3:b2:53:b5:84:2a:
                    9e:e6:39:c5:46:31:41:6e:ba:c8:b6:b1:09:52:ad:
                    1d:f9:a5:a8:f3:23:90:64:32:2f:07:b6:95:af:e4:
                    c1:e7:c8:f6:ec:f5:ae:ff:8a:71:7b:08:b6:1d:45:
                    d1:93:54:c1:bf:2d:be:8a:cb:cc:5f:1c:7a:be:8d:
                    f2:35:86:28:cc:3c:32:63:70:39:fa:bd:69:44:be:
                    af:59:9a:71:97:36:83:ff:de:bd:0a:7f:75:16:15:
                    f8:28:f4:64:b9:8c:f9:5e:35:c3:bc:13:51:95:99:
                    93:66:50:65:02:fc:97:ce:a3:4f:99:28:df:8c:5f:
                    35:93:05:23:9d:d7:bb:97:5a:b9:c3:ef:df:4a:16:
                    bf:6c:25:58:da:e8:aa:7a:32:af:62:d1:ac:62:38:
                    a4:a9:a2:1b:f3:0f:a7:c4:3b:f3:66:f3:22:62:18:
                    78:3f:8b:7b:c1:d5:63:bc:67:2f:6b:36:40:ba:cc:
                    bf:4e:9d:9d:0c:16:0c:e6:88:4c:cb:fa:ee:51:cc:
                    a9:f7:1b
                Exponent: 65537 (0x10001)
        X509v3 extensions:
            X509v3 Basic Constraints: 
                CA:FALSE
            Netscape Comment: 
                Easy-RSA Generated Certificate
            X509v3 Subject Key Identifier: 
                A5:E7:8C:B8:E0:24:59:3C:0E:94:29:4F:9B:34:18:16:C4:69:0C:B7
            X509v3 Authority Key Identifier: 
                keyid:12:CD:60:04:D2:A0:80:9E:70:ED:C6:99:B8:7B:2C:C6:52:FD:19:A1
                DirName:/C=US/ST=OH/L=Columbus/O=VikingVPN/OU=MyOrganizationalUnit/CN=VikingVPN CA/name=EasyRSA/emailAddress=me@myhost.mydomain
                serial:CF:35:85:EE:80:BF:2A:3E

            X509v3 Extended Key Usage: 
                TLS Web Client Authentication
            X509v3 Key Usage: 
                Digital Signature
    Signature Algorithm: md5WithRSAEncryption
         aa:e5:21:e2:a8:a0:8c:f9:bf:3a:54:d3:82:69:66:19:1e:48:
         51:53:59:49:88:fe:af:6b:77:00:a9:e1:54:a4:88:83:9d:67:
         97:83:2a:db:2e:29:d4:f8:19:2c:2b:40:a5:6c:f1:f1:2f:3e:
         4e:eb:5a:f7:b5:22:15:3b:3e:98:73:f8:64:fa:a6:85:7d:a0:
         14:60:6d:c7:4f:c6:dc:c1:d3:b6:62:68:c6:d8:a0:a1:c9:64:
         e9:e5:fd:43:8c:a0:a1:67:ef:9a:b3:de:1f:18:64:dd:cd:0a:
         2d:46:f5:7d:47:ad:ef:d4:80:a1:37:b4:f1:ee:38:60:12:89:
         b9:32:e4:5a:1a:cc:bb:ac:b8:c8:a8:a4:d7:21:a9:53:20:fc:
         96:cb:61:a7:32:84:f3:21:59:3e:42:c4:2d:66:db:d1:7a:91:
         f3:95:65:63:bb:83:fd:81:5a:52:41:18:77:10:25:79:ad:21:
         58:ef:d2:98:a7:29:04:0d:21:09:94:00:b2:b7:7c:44:1a:62:
         95:b5:1b:28:0a:74:35:8a:38:f4:8c:24:8a:94:95:02:29:fb:
         c4:0c:d4:0d:a9:af:b6:6e:1c:1d:37:12:e2:6d:a5:26:43:dd:
         1d:7c:0a:87:e9:2a:39:7e:19:12:d1:8e:5c:f8:fa:9f:ba:d4:
         ba:a5:2b:d8:e5:3c:61:ef:19:10:c7:d9:9d:14:39:6d:b4:03:
         e6:e2:ba:fa:e0:b4:aa:83:96:d7:de:6c:41:55:fe:7d:b8:31:
         3f:72:5e:c9:48:3e:4d:51:9a:03:f9:1a:57:b7:1d:89:9f:7c:
         bc:ce:ce:56:a5:58:f7:f6:57:f2:db:cc:64:be:40:51:fa:e6:
         2e:39:d0:04:a7:08:d5:b4:0b:88:e1:c4:54:8c:be:7e:c9:df:
         3f:c5:f7:4e:7d:69:17:a0:52:10:0f:80:6a:f5:77:45:72:88:
         20:d3:b0:5b:53:a3:62:e6:6e:cd:44:f6:2c:83:b3:00:5c:3b:
         b3:fe:e4:9f:26:72:0a:bb:44:ae:62:bc:c4:ee:23:14:dc:37:
         f7:7a:e6:24:3f:15:66:c2:8b:f4:04:22:be:8c:99:8b:5a:4c:
         3e:95:33:5b:30:9d:55:31:1f:c8:78:ed:1e:40:60:5f:32:9d:
         71:10:86:c4:9f:06:82:e8:21:dc:64:53:84:a7:ef:19:42:c7:
         dd:cf:b3:df:e9:99:54:38:cc:e1:a2:cf:9a:38:3b:c8:1d:21:
         0f:e9:e3:cd:ed:e5:33:1f:ed:4c:e9:df:4c:a2:10:f6:1e:6e:
         59:0b:0e:c2:f7:76:60:92:59:7b:59:5c:10:22:9e:04:e8:b3:
         d2:b1:8e:87:f4:19:75:5e
-----BEGIN CERTIFICATE-----
MIIGrTCCBJWgAwIBAgICFLgwDQYJKoZIhvcNAQEEBQAwgawxCzAJBgNVBAYTAlVT
MQswCQYDVQQIEwJPSDERMA8GA1UEBxMIQ29sdW1idXMxEjAQBgNVBAoTCVZpa2lu
Z1ZQTjEdMBsGA1UECxMUTXlPcmdhbml6YXRpb25hbFVuaXQxFTATBgNVBAMTDFZp
a2luZ1ZQTiBDQTEQMA4GA1UEKRMHRWFzeVJTQTEhMB8GCSqGSIb3DQEJARYSbWVA
bXlob3N0Lm15ZG9tYWluMB4XDTE1MDUxNjE2MzYxN1oXDTI1MDUxMzE2MzYxN1ow
HzEdMBsGA1UEAxMUQ2xpZW50MTY5MENlcnQ5YjM4ODQwggIiMA0GCSqGSIb3DQEB
AQUAA4ICDwAwggIKAoICAQCVzkiCJ8tu+qI/g87R8RHfprEyJPcmgksbb9lnZuBE
VA67x3uDcYBn1njCDlkBxMuPaP576J7k9/vlvGx7bID3qtLLtNXfWGcrOyqOxRxk
wUXmTSd05k26v9QVUVy4Dy6KAV2GoYy1ej2ljkVW8Vm/j37CFIqvUKpson5egOhX
ZAe2fx3mGoHU3dosWvuoeN3ycuFwT4N3pTbb9qz/BxE1oVpvwG4bHHHIxFKuZxvq
gHZ1zth+yGsDY+cWXZ3hxhslKmMB+hlsmymRTaw6iejQEdvah8tu2ugcQR60z+aC
/psvYqggc/B6rSab2wJhZXV/dedCnhi6Pauy7JOhgD7NCkZjH79V9SzdxTw+VDkA
mQCYfJ0IKMSdZ074EkWEpj4jgYV7wncJ0xJLQoHH4Rbn+ijs+cOyU7WEKp7mOcVG
MUFuusi2sQlSrR35pajzI5BkMi8HtpWv5MHnyPbs9a7/inF7CLYdRdGTVMG/Lb6K
y8xfHHq+jfI1hijMPDJjcDn6vWlEvq9ZmnGXNoP/3r0Kf3UWFfgo9GS5jPleNcO8
E1GVmZNmUGUC/JfOo0+ZKN+MXzWTBSOd17uXWrnD799KFr9sJVja6Kp6Mq9i0axi
OKSpohvzD6fEO/Nm8yJiGHg/i3vB1WO8Zy9rNkC6zL9OnZ0MFgzmiEzL+u5RzKn3
GwIDAQABo4IBYzCCAV8wCQYDVR0TBAIwADAtBglghkgBhvhCAQ0EIBYeRWFzeS1S
U0EgR2VuZXJhdGVkIENlcnRpZmljYXRlMB0GA1UdDgQWBBSl54y44CRZPA6UKU+b
NBgWxGkMtzCB4QYDVR0jBIHZMIHWgBQSzWAE0qCAnnDtxpm4eyzGUv0ZoaGBsqSB
rzCBrDELMAkGA1UEBhMCVVMxCzAJBgNVBAgTAk9IMREwDwYDVQQHEwhDb2x1bWJ1
czESMBAGA1UEChMJVmlraW5nVlBOMR0wGwYDVQQLExRNeU9yZ2FuaXphdGlvbmFs
VW5pdDEVMBMGA1UEAxMMVmlraW5nVlBOIENBMRAwDgYDVQQpEwdFYXN5UlNBMSEw
HwYJKoZIhvcNAQkBFhJtZUBteWhvc3QubXlkb21haW6CCQDPNYXugL8qPjATBgNV
HSUEDDAKBggrBgEFBQcDAjALBgNVHQ8EBAMCB4AwDQYJKoZIhvcNAQEEBQADggIB
AKrlIeKooIz5vzpU04JpZhkeSFFTWUmI/q9rdwCp4VSkiIOdZ5eDKtsuKdT4GSwr
QKVs8fEvPk7rWve1IhU7Pphz+GT6poV9oBRgbcdPxtzB07ZiaMbYoKHJZOnl/UOM
oKFn75qz3h8YZN3NCi1G9X1Hre/UgKE3tPHuOGASibky5FoazLusuMiopNchqVMg
/JbLYacyhPMhWT5CxC1m29F6kfOVZWO7g/2BWlJBGHcQJXmtIVjv0pinKQQNIQmU
ALK3fEQaYpW1GygKdDWKOPSMJIqUlQIp+8QM1A2pr7ZuHB03EuJtpSZD3R18Cofp
Kjl+GRLRjlz4+p+61LqlK9jlPGHvGRDH2Z0UOW20A+biuvrgtKqDltfebEFV/n24
MT9yXslIPk1RmgP5Gle3HYmffLzOzlalWPf2V/LbzGS+QFH65i450ASnCNW0C4jh
xFSMvn7J3z/F9059aRegUhAPgGr1d0VyiCDTsFtTo2Lmbs1E9iyDswBcO7P+5J8m
cgq7RK5ivMTuIxTcN/d65iQ/FWbCi/QEIr6MmYtaTD6VM1swnVUxH8h47R5AYF8y
nXEQhsSfBoLoIdxkU4Sn7xlCx93Ps9/pmVQ4zOGiz5o4O8gdIQ/p483t5TMf7Uzp
30yiEPYeblkLDsL3dmCSWXtZXBAingTos9Kxjof0GXVe
-----END CERTIFICATE-----
