Certificate:
    Data:
        Version: 3 (0x2)
        Serial Number: 5333 (0x14d5)
    Signature Algorithm: md5WithRSAEncryption
        Issuer: C=US, ST=OH, L=Columbus, O=VikingVPN, OU=MyOrganizationalUnit, CN=VikingVPN CA/name=EasyRSA/emailAddress=me@myhost.mydomain
        Validity
            Not Before: May 19 11:01:28 2015 GMT
            Not After : May 16 11:01:28 2025 GMT
        Subject: CN=Client1702Cert907a19
        Subject Public Key Info:
            Public Key Algorithm: rsaEncryption
                Public-Key: (4096 bit)
                Modulus:
                    00:a4:45:31:05:c9:86:fd:80:8a:9f:a2:15:72:47:
                    bb:1a:64:46:1f:09:0e:23:37:2d:1f:e0:c6:cc:77:
                    db:da:6f:ce:f4:fe:b1:de:87:23:e8:35:d2:3b:22:
                    e7:cf:5b:44:cc:d9:be:7a:41:f9:54:a0:7c:90:a3:
                    80:91:14:aa:f7:bd:79:89:3c:e2:3c:7b:14:68:9e:
                    0e:b1:7b:da:68:b5:49:d5:a2:34:4a:e7:1c:30:8d:
                    88:ff:0b:f1:44:e2:7e:95:6e:59:b9:24:57:78:47:
                    a8:74:13:87:08:e6:4b:da:9a:20:e1:90:42:ad:6b:
                    7a:cb:8b:6e:26:54:94:2d:2c:2b:1d:13:15:3f:14:
                    b0:58:b1:6e:7d:21:af:5c:24:12:92:46:e6:62:0d:
                    16:e9:f4:92:de:1b:a3:4d:73:45:6c:16:da:28:ba:
                    41:9e:b8:ae:e0:10:1e:8a:4f:6e:04:2a:6e:f1:2d:
                    39:23:6e:25:e2:7b:5b:5e:4e:7f:81:f5:43:f0:b4:
                    82:aa:60:50:a4:69:fd:aa:a1:78:59:a6:2c:19:6a:
                    fe:4f:47:79:c7:61:ac:22:c6:d3:14:68:23:e3:02:
                    16:3e:5c:7a:4b:f1:ad:da:95:ad:bf:7d:0c:10:06:
                    9b:2d:18:71:b2:db:d9:96:1d:27:ba:a5:b7:d7:dd:
                    23:18:46:3b:5a:cb:b2:27:06:79:77:9c:74:dd:e8:
                    3a:35:1d:4b:d9:35:e7:c5:85:6f:0e:6d:5e:63:f1:
                    46:7d:91:27:55:f8:ae:0e:06:22:d3:d2:ce:ec:6a:
                    9e:28:83:b4:7b:9a:fe:f0:cc:84:61:dd:33:d9:ea:
                    71:9e:9d:19:df:8d:95:19:a0:0b:09:d3:3b:54:b0:
                    0f:6f:a6:71:a1:2e:7c:48:0f:ef:7b:4d:27:33:c2:
                    b9:a8:07:6b:39:a6:f2:a9:04:28:83:39:24:b6:70:
                    f0:4b:ff:8e:4e:e2:c5:06:f9:af:5b:2b:95:f8:34:
                    bb:86:40:23:f1:5c:13:35:b5:e3:06:a9:02:64:cb:
                    08:d9:03:10:9c:57:55:55:aa:4d:f5:37:d7:83:79:
                    bc:69:3f:e6:3b:4d:93:f2:d0:ed:1d:e8:b5:71:8c:
                    10:e3:bb:2d:e0:6a:7b:c4:98:24:ab:6d:93:16:b2:
                    dd:17:b6:f4:03:5f:70:e7:55:0d:bb:4a:62:ae:15:
                    5b:d5:c7:ac:bb:d0:0b:27:43:ea:f4:0e:10:bd:6d:
                    3d:58:ac:72:37:e5:f7:bb:c4:88:fd:ea:a1:ec:46:
                    36:68:93:68:bd:f8:15:00:cc:cc:60:84:22:86:6e:
                    0c:b5:18:03:fc:e6:d6:da:07:51:d2:cd:64:32:bc:
                    30:fd:07
                Exponent: 65537 (0x10001)
        X509v3 extensions:
            X509v3 Basic Constraints: 
                CA:FALSE
            Netscape Comment: 
                Easy-RSA Generated Certificate
            X509v3 Subject Key Identifier: 
                A6:13:66:37:71:CA:35:C0:8A:19:3E:C4:67:C8:41:B9:3D:25:EC:FD
            X509v3 Authority Key Identifier: 
                keyid:12:CD:60:04:D2:A0:80:9E:70:ED:C6:99:B8:7B:2C:C6:52:FD:19:A1
                DirName:/C=US/ST=OH/L=Columbus/O=VikingVPN/OU=MyOrganizationalUnit/CN=VikingVPN CA/name=EasyRSA/emailAddress=me@myhost.mydomain
                serial:CF:35:85:EE:80:BF:2A:3E

            X509v3 Extended Key Usage: 
                TLS Web Client Authentication
            X509v3 Key Usage: 
                Digital Signature
    Signature Algorithm: md5WithRSAEncryption
         da:3d:fe:63:08:43:12:15:48:5d:d7:ff:a1:23:45:4f:f4:2f:
         ab:62:f8:31:ab:35:01:57:ae:27:68:ca:64:87:64:a1:fc:76:
         17:7d:8a:47:c4:11:b4:87:0c:00:57:29:1b:d5:4d:57:af:bc:
         a7:c0:ca:b4:c3:d8:30:0a:88:46:d9:99:42:b3:cc:08:95:fb:
         14:14:2d:f8:1c:bc:c8:ac:44:4a:37:f9:a0:1a:6e:56:74:f6:
         45:28:cb:b5:06:79:18:44:a4:ee:e1:01:8e:14:cf:f7:f9:4d:
         91:92:a3:2a:ad:e1:35:be:34:55:54:83:80:a0:e1:13:3e:ce:
         c4:2b:f7:72:fc:43:f5:e2:6d:e9:9d:7d:6f:52:7e:d4:fa:c7:
         10:d3:84:7d:c3:c0:88:12:83:98:ab:2c:e6:f4:a0:41:86:52:
         2b:ec:c0:f5:d0:1f:57:22:f4:89:05:93:29:f9:09:da:04:3e:
         3b:ae:35:18:ba:b6:8e:b5:fc:4b:ee:67:42:fb:c1:f7:8b:96:
         da:20:03:b6:66:7a:e7:e5:fa:fb:4a:65:f2:58:ee:f9:12:52:
         57:b0:1d:17:80:56:28:9b:fb:71:8d:d7:09:ef:27:54:38:16:
         67:cc:11:30:d4:25:15:eb:bf:7c:f6:0e:88:f2:89:50:4b:7d:
         91:bc:a3:08:f4:7e:b0:25:a8:91:33:25:21:7d:e9:5d:77:2c:
         3a:62:ea:7c:ad:d0:cc:2f:03:fb:08:1e:e5:aa:28:fd:9e:3b:
         b0:31:9e:d5:49:12:81:cb:09:3e:7b:8f:0a:d3:d8:15:ec:17:
         b2:9e:cd:e8:89:5e:89:76:a3:54:a1:ee:da:cf:a2:16:6d:27:
         e2:37:1c:a6:d9:33:b4:fc:83:e2:17:b6:06:4b:5e:b3:77:ec:
         4f:42:4e:52:f4:84:00:68:c1:36:ac:38:02:9c:21:b1:40:25:
         ce:43:cf:44:a1:ee:21:2f:d8:69:03:ab:17:29:5a:99:0d:40:
         69:a7:43:ea:48:d9:d0:63:61:ad:c6:da:1e:e9:6b:b9:78:a5:
         fc:54:a8:2d:61:9c:81:5d:39:bd:c3:59:b4:16:7f:68:c7:13:
         69:41:39:94:29:05:54:1e:c6:59:99:75:b1:da:20:a3:ce:6f:
         25:d7:93:9c:eb:af:38:0a:cc:c3:87:70:7f:30:3f:6e:b4:7a:
         66:c7:d9:0c:92:b5:16:48:4b:65:fd:cb:6d:7c:e9:a2:48:4b:
         d0:97:04:5f:92:9b:93:bd:cf:e4:08:79:f8:13:ba:f8:60:43:
         2a:77:38:fc:72:4a:32:64:ff:a3:7c:3e:41:51:0c:e5:23:c5:
         89:ef:f9:2f:49:df:d1:2d
-----BEGIN CERTIFICATE-----
MIIGrTCCBJWgAwIBAgICFNUwDQYJKoZIhvcNAQEEBQAwgawxCzAJBgNVBAYTAlVT
MQswCQYDVQQIEwJPSDERMA8GA1UEBxMIQ29sdW1idXMxEjAQBgNVBAoTCVZpa2lu
Z1ZQTjEdMBsGA1UECxMUTXlPcmdhbml6YXRpb25hbFVuaXQxFTATBgNVBAMTDFZp
a2luZ1ZQTiBDQTEQMA4GA1UEKRMHRWFzeVJTQTEhMB8GCSqGSIb3DQEJARYSbWVA
bXlob3N0Lm15ZG9tYWluMB4XDTE1MDUxOTExMDEyOFoXDTI1MDUxNjExMDEyOFow
HzEdMBsGA1UEAxMUQ2xpZW50MTcwMkNlcnQ5MDdhMTkwggIiMA0GCSqGSIb3DQEB
AQUAA4ICDwAwggIKAoICAQCkRTEFyYb9gIqfohVyR7saZEYfCQ4jNy0f4MbMd9va
b870/rHehyPoNdI7IufPW0TM2b56QflUoHyQo4CRFKr3vXmJPOI8exRong6xe9po
tUnVojRK5xwwjYj/C/FE4n6Vblm5JFd4R6h0E4cI5kvamiDhkEKta3rLi24mVJQt
LCsdExU/FLBYsW59Ia9cJBKSRuZiDRbp9JLeG6NNc0VsFtooukGeuK7gEB6KT24E
Km7xLTkjbiXie1teTn+B9UPwtIKqYFCkaf2qoXhZpiwZav5PR3nHYawixtMUaCPj
AhY+XHpL8a3ala2/fQwQBpstGHGy29mWHSe6pbfX3SMYRjtay7InBnl3nHTd6Do1
HUvZNefFhW8ObV5j8UZ9kSdV+K4OBiLT0s7sap4og7R7mv7wzIRh3TPZ6nGenRnf
jZUZoAsJ0ztUsA9vpnGhLnxID+97TSczwrmoB2s5pvKpBCiDOSS2cPBL/45O4sUG
+a9bK5X4NLuGQCPxXBM1teMGqQJkywjZAxCcV1VVqk31N9eDebxpP+Y7TZPy0O0d
6LVxjBDjuy3ganvEmCSrbZMWst0XtvQDX3DnVQ27SmKuFVvVx6y70AsnQ+r0DhC9
bT1YrHI35fe7xIj96qHsRjZok2i9+BUAzMxghCKGbgy1GAP85tbaB1HSzWQyvDD9
BwIDAQABo4IBYzCCAV8wCQYDVR0TBAIwADAtBglghkgBhvhCAQ0EIBYeRWFzeS1S
U0EgR2VuZXJhdGVkIENlcnRpZmljYXRlMB0GA1UdDgQWBBSmE2Y3cco1wIoZPsRn
yEG5PSXs/TCB4QYDVR0jBIHZMIHWgBQSzWAE0qCAnnDtxpm4eyzGUv0ZoaGBsqSB
rzCBrDELMAkGA1UEBhMCVVMxCzAJBgNVBAgTAk9IMREwDwYDVQQHEwhDb2x1bWJ1
czESMBAGA1UEChMJVmlraW5nVlBOMR0wGwYDVQQLExRNeU9yZ2FuaXphdGlvbmFs
VW5pdDEVMBMGA1UEAxMMVmlraW5nVlBOIENBMRAwDgYDVQQpEwdFYXN5UlNBMSEw
HwYJKoZIhvcNAQkBFhJtZUBteWhvc3QubXlkb21haW6CCQDPNYXugL8qPjATBgNV
HSUEDDAKBggrBgEFBQcDAjALBgNVHQ8EBAMCB4AwDQYJKoZIhvcNAQEEBQADggIB
ANo9/mMIQxIVSF3X/6EjRU/0L6ti+DGrNQFXridoymSHZKH8dhd9ikfEEbSHDABX
KRvVTVevvKfAyrTD2DAKiEbZmUKzzAiV+xQULfgcvMisREo3+aAablZ09kUoy7UG
eRhEpO7hAY4Uz/f5TZGSoyqt4TW+NFVUg4Cg4RM+zsQr93L8Q/XibemdfW9SftT6
xxDThH3DwIgSg5irLOb0oEGGUivswPXQH1ci9IkFkyn5CdoEPjuuNRi6to61/Evu
Z0L7wfeLltogA7Zmeufl+vtKZfJY7vkSUlewHReAViib+3GN1wnvJ1Q4FmfMETDU
JRXrv3z2DojyiVBLfZG8owj0frAlqJEzJSF96V13LDpi6nyt0MwvA/sIHuWqKP2e
O7AxntVJEoHLCT57jwrT2BXsF7KezeiJXol2o1Sh7trPohZtJ+I3HKbZM7T8g+IX
tgZLXrN37E9CTlL0hABowTasOAKcIbFAJc5Dz0Sh7iEv2GkDqxcpWpkNQGmnQ+pI
2dBjYa3G2h7pa7l4pfxUqC1hnIFdOb3DWbQWf2jHE2lBOZQpBVQexlmZdbHaIKPO
byXXk5zrrzgKzMOHcH8wP260embH2QyStRZIS2X9y2186aJIS9CXBF+Sm5O9z+QI
efgTuvhgQyp3OPxySjJk/6N8PkFRDOUjxYnv+S9J39Et
-----END CERTIFICATE-----
