Certificate:
    Data:
        Version: 3 (0x2)
        Serial Number: 5336 (0x14d8)
    Signature Algorithm: md5WithRSAEncryption
        Issuer: C=US, ST=OH, L=Columbus, O=VikingVPN, OU=MyOrganizationalUnit, CN=VikingVPN CA/name=EasyRSA/emailAddress=me@myhost.mydomain
        Validity
            Not Before: May 19 14:12:13 2015 GMT
            Not After : May 16 14:12:13 2025 GMT
        Subject: CN=Client1702Cert1d4bab
        Subject Public Key Info:
            Public Key Algorithm: rsaEncryption
                Public-Key: (4096 bit)
                Modulus:
                    00:d7:09:63:b6:ff:22:a8:22:a1:13:b9:d5:97:b8:
                    15:3d:00:eb:47:eb:a1:40:11:48:bc:6b:e7:89:f6:
                    b1:f6:18:9c:66:48:c5:d9:8f:69:5a:66:e6:e1:bc:
                    05:76:56:d0:8a:0c:85:10:c1:cc:9e:5d:99:1d:b8:
                    ab:4c:82:63:70:4f:81:dd:db:f7:52:3d:5d:5e:0a:
                    48:af:76:79:27:a9:df:2b:85:cd:4a:22:f5:f2:e0:
                    05:dc:62:99:c3:13:da:1b:6d:ef:bb:ab:f1:d1:c4:
                    68:0b:c6:35:b4:1e:95:51:84:cf:11:a9:eb:68:2f:
                    89:da:12:bf:06:3c:09:3d:f6:8e:68:c0:fc:64:da:
                    72:81:66:a3:29:a8:fb:96:50:d1:09:a3:0a:e2:df:
                    ea:ba:dd:91:bb:4a:3e:8e:f3:a7:e8:80:95:15:c6:
                    3e:e9:e7:e3:cf:f2:f3:28:77:cd:ed:df:80:18:5c:
                    c0:83:36:c0:01:60:1e:90:e2:d5:d6:0c:5d:24:e2:
                    d0:0a:39:d0:70:f3:54:a7:ea:0e:e3:6f:10:98:6d:
                    38:df:cf:6f:68:c1:5a:42:bc:74:15:12:ac:a8:3f:
                    03:5e:90:cf:29:66:7d:4f:38:0d:d6:f5:c9:fb:f6:
                    32:ff:2a:0a:f9:a9:a3:70:0b:91:12:57:dc:b5:f8:
                    d9:b3:63:d0:7a:a2:01:70:dc:06:c1:b7:c8:65:23:
                    9c:2c:16:be:ca:b6:95:62:69:5a:76:4d:75:db:3c:
                    94:a1:3c:5c:a0:7b:52:0a:43:50:4f:f3:c9:70:de:
                    41:1c:0e:e6:8c:02:12:e3:76:28:1d:3e:05:4e:00:
                    68:de:dd:71:22:c6:c4:ad:5d:c6:e4:a5:44:75:5f:
                    10:c0:2e:2a:f8:fe:c7:a4:58:04:64:ae:1e:14:36:
                    63:ad:3e:7d:47:5b:28:10:c0:fe:4a:03:26:f5:01:
                    84:fe:cd:76:ff:2c:8c:ef:1a:df:33:64:53:8f:76:
                    4e:49:bf:6e:05:5d:7c:e4:18:a9:0e:e3:87:ef:07:
                    48:8e:a9:92:a9:72:59:65:9b:54:5e:82:fa:51:29:
                    a3:db:65:58:a5:0c:c5:cd:0d:e2:f7:b9:5b:57:5a:
                    bb:fa:a2:90:5c:85:fe:14:37:cb:c7:a9:0f:80:2c:
                    af:8f:75:16:e7:3c:f4:d7:8d:ba:c5:74:7a:dc:ed:
                    32:49:a6:47:c9:57:2b:31:fc:6a:78:69:aa:ca:e8:
                    8a:50:01:a4:0e:2c:b4:47:3d:4a:0c:77:76:02:07:
                    93:18:f4:da:a8:81:00:db:c3:c8:0d:28:a0:f4:17:
                    a5:78:2a:7d:34:36:b5:f4:6c:49:49:f4:ce:da:eb:
                    42:2e:55
                Exponent: 65537 (0x10001)
        X509v3 extensions:
            X509v3 Basic Constraints: 
                CA:FALSE
            Netscape Comment: 
                Easy-RSA Generated Certificate
            X509v3 Subject Key Identifier: 
                C7:B3:68:9B:2A:1A:61:0B:CD:7A:82:DC:1D:5B:AF:F7:37:7D:0A:37
            X509v3 Authority Key Identifier: 
                keyid:12:CD:60:04:D2:A0:80:9E:70:ED:C6:99:B8:7B:2C:C6:52:FD:19:A1
                DirName:/C=US/ST=OH/L=Columbus/O=VikingVPN/OU=MyOrganizationalUnit/CN=VikingVPN CA/name=EasyRSA/emailAddress=me@myhost.mydomain
                serial:CF:35:85:EE:80:BF:2A:3E

            X509v3 Extended Key Usage: 
                TLS Web Client Authentication
            X509v3 Key Usage: 
                Digital Signature
    Signature Algorithm: md5WithRSAEncryption
         a3:71:7a:97:15:c2:fa:7e:74:9b:1b:92:7d:31:db:bf:ba:73:
         b4:f0:09:d9:67:86:82:6d:9d:30:89:bf:cc:46:3f:35:3e:e4:
         83:05:50:e1:f7:bc:4c:d1:0c:77:b4:ee:fa:35:a0:22:68:ee:
         09:97:ff:7a:e1:84:f6:e8:f8:b0:6d:95:ec:c0:90:21:1d:92:
         36:25:21:40:ba:5b:3b:a2:64:cc:cd:a7:5f:e5:30:0f:f8:26:
         4c:e9:6d:ca:1e:cb:fd:63:f2:80:b3:09:4e:e1:7b:c0:b5:dc:
         92:a2:70:cb:5e:7f:2f:e3:ea:4f:65:b0:ea:05:e7:08:26:04:
         42:2b:b4:14:e8:bb:8a:1e:f5:ce:34:e0:d3:93:0b:23:c3:e7:
         cc:7a:74:8a:aa:58:21:17:95:90:21:67:44:ba:0c:54:17:09:
         09:3f:0a:a6:29:af:9d:ed:cb:be:e4:00:fb:c0:0d:ec:d8:7c:
         09:03:c9:5a:f7:1b:48:b1:39:3a:13:29:45:19:86:b0:8f:09:
         8f:48:0f:c2:85:b2:6d:bc:5b:37:88:2e:1c:da:ec:c2:cb:62:
         a7:18:50:10:e9:f9:7c:3b:4c:b1:61:0d:69:98:49:82:12:8e:
         1c:a7:49:85:32:35:c3:e2:f5:f6:d9:67:38:9f:5f:d3:c8:18:
         75:fb:cf:11:88:77:42:33:56:48:be:59:72:75:f7:d1:6f:a6:
         c5:1a:75:e2:33:b8:a4:af:81:fb:c7:7d:55:9e:b0:81:cb:0b:
         29:26:1d:6e:cf:0c:19:ac:8e:77:12:00:3c:bb:f2:c8:3b:e6:
         4f:3b:fd:e7:7c:fe:cb:96:2d:10:58:02:cb:c5:7c:2a:39:81:
         6e:f4:ef:d8:e1:bc:ed:79:30:b1:8f:e5:8f:83:bb:91:9c:8e:
         fd:01:ef:03:81:b1:3a:a0:3b:78:29:a8:48:9a:48:c1:d0:3d:
         94:58:43:31:c0:ba:74:dd:5c:14:b5:e4:90:c8:4f:40:07:2b:
         6e:4b:f9:f3:35:35:b5:20:d5:50:24:4a:97:e2:58:79:63:99:
         c9:db:b7:70:9b:a4:34:9d:87:56:9c:91:e2:d1:c2:05:c5:8a:
         7e:c7:94:fc:db:f3:2e:5a:8e:b8:e4:4b:bc:69:cc:4d:2b:af:
         60:b0:e8:3b:ab:2c:7c:cb:47:6e:8e:bf:49:12:56:47:12:c9:
         30:b3:7d:65:72:f2:79:1d:1a:92:f8:e9:cf:e1:1b:78:c5:52:
         5f:4f:2b:35:5b:bc:77:e5:08:a8:db:50:97:f3:ce:16:97:4a:
         07:c8:f3:0c:2e:4e:a6:05:6e:05:5d:4a:c4:c9:2f:50:b9:0e:
         90:f6:f7:df:b9:c5:c9:05
-----BEGIN CERTIFICATE-----
MIIGrTCCBJWgAwIBAgICFNgwDQYJKoZIhvcNAQEEBQAwgawxCzAJBgNVBAYTAlVT
MQswCQYDVQQIEwJPSDERMA8GA1UEBxMIQ29sdW1idXMxEjAQBgNVBAoTCVZpa2lu
Z1ZQTjEdMBsGA1UECxMUTXlPcmdhbml6YXRpb25hbFVuaXQxFTATBgNVBAMTDFZp
a2luZ1ZQTiBDQTEQMA4GA1UEKRMHRWFzeVJTQTEhMB8GCSqGSIb3DQEJARYSbWVA
bXlob3N0Lm15ZG9tYWluMB4XDTE1MDUxOTE0MTIxM1oXDTI1MDUxNjE0MTIxM1ow
HzEdMBsGA1UEAxMUQ2xpZW50MTcwMkNlcnQxZDRiYWIwggIiMA0GCSqGSIb3DQEB
AQUAA4ICDwAwggIKAoICAQDXCWO2/yKoIqETudWXuBU9AOtH66FAEUi8a+eJ9rH2
GJxmSMXZj2laZubhvAV2VtCKDIUQwcyeXZkduKtMgmNwT4Hd2/dSPV1eCkivdnkn
qd8rhc1KIvXy4AXcYpnDE9obbe+7q/HRxGgLxjW0HpVRhM8RqetoL4naEr8GPAk9
9o5owPxk2nKBZqMpqPuWUNEJowri3+q63ZG7Sj6O86fogJUVxj7p5+PP8vMod83t
34AYXMCDNsABYB6Q4tXWDF0k4tAKOdBw81Sn6g7jbxCYbTjfz29owVpCvHQVEqyo
PwNekM8pZn1POA3W9cn79jL/Kgr5qaNwC5ESV9y1+NmzY9B6ogFw3AbBt8hlI5ws
Fr7KtpViaVp2TXXbPJShPFyge1IKQ1BP88lw3kEcDuaMAhLjdigdPgVOAGje3XEi
xsStXcbkpUR1XxDALir4/sekWARkrh4UNmOtPn1HWygQwP5KAyb1AYT+zXb/LIzv
Gt8zZFOPdk5Jv24FXXzkGKkO44fvB0iOqZKpclllm1RegvpRKaPbZVilDMXNDeL3
uVtXWrv6opBchf4UN8vHqQ+ALK+PdRbnPPTXjbrFdHrc7TJJpkfJVysx/Gp4aarK
6IpQAaQOLLRHPUoMd3YCB5MY9NqogQDbw8gNKKD0F6V4Kn00NrX0bElJ9M7a60Iu
VQIDAQABo4IBYzCCAV8wCQYDVR0TBAIwADAtBglghkgBhvhCAQ0EIBYeRWFzeS1S
U0EgR2VuZXJhdGVkIENlcnRpZmljYXRlMB0GA1UdDgQWBBTHs2ibKhphC816gtwd
W6/3N30KNzCB4QYDVR0jBIHZMIHWgBQSzWAE0qCAnnDtxpm4eyzGUv0ZoaGBsqSB
rzCBrDELMAkGA1UEBhMCVVMxCzAJBgNVBAgTAk9IMREwDwYDVQQHEwhDb2x1bWJ1
czESMBAGA1UEChMJVmlraW5nVlBOMR0wGwYDVQQLExRNeU9yZ2FuaXphdGlvbmFs
VW5pdDEVMBMGA1UEAxMMVmlraW5nVlBOIENBMRAwDgYDVQQpEwdFYXN5UlNBMSEw
HwYJKoZIhvcNAQkBFhJtZUBteWhvc3QubXlkb21haW6CCQDPNYXugL8qPjATBgNV
HSUEDDAKBggrBgEFBQcDAjALBgNVHQ8EBAMCB4AwDQYJKoZIhvcNAQEEBQADggIB
AKNxepcVwvp+dJsbkn0x27+6c7TwCdlnhoJtnTCJv8xGPzU+5IMFUOH3vEzRDHe0
7vo1oCJo7gmX/3rhhPbo+LBtlezAkCEdkjYlIUC6WzuiZMzNp1/lMA/4Jkzpbcoe
y/1j8oCzCU7he8C13JKicMtefy/j6k9lsOoF5wgmBEIrtBTou4oe9c404NOTCyPD
58x6dIqqWCEXlZAhZ0S6DFQXCQk/CqYpr53ty77kAPvADezYfAkDyVr3G0ixOToT
KUUZhrCPCY9ID8KFsm28WzeILhza7MLLYqcYUBDp+Xw7TLFhDWmYSYISjhynSYUy
NcPi9fbZZzifX9PIGHX7zxGId0IzVki+WXJ199FvpsUadeIzuKSvgfvHfVWesIHL
CykmHW7PDBmsjncSADy78sg75k87/ed8/suWLRBYAsvFfCo5gW7079jhvO15MLGP
5Y+Du5Gcjv0B7wOBsTqgO3gpqEiaSMHQPZRYQzHAunTdXBS15JDIT0AHK25L+fM1
NbUg1VAkSpfiWHljmcnbt3CbpDSdh1ackeLRwgXFin7HlPzb8y5ajrjkS7xpzE0r
r2Cw6DurLHzLR26Ov0kSVkcSyTCzfWVy8nkdGpL46c/hG3jFUl9PKzVbvHflCKjb
UJfzzhaXSgfI8wwuTqYFbgVdSsTJL1C5DpD299+5xckF
-----END CERTIFICATE-----
