Certificate:
    Data:
        Version: 3 (0x2)
        Serial Number: 5337 (0x14d9)
    Signature Algorithm: md5WithRSAEncryption
        Issuer: C=US, ST=OH, L=Columbus, O=VikingVPN, OU=MyOrganizationalUnit, CN=VikingVPN CA/name=EasyRSA/emailAddress=me@myhost.mydomain
        Validity
            Not Before: May 19 14:31:37 2015 GMT
            Not After : May 16 14:31:37 2025 GMT
        Subject: CN=Client133Cert050b00
        Subject Public Key Info:
            Public Key Algorithm: rsaEncryption
                Public-Key: (4096 bit)
                Modulus:
                    00:a4:62:a9:5f:82:a2:2a:11:59:c5:ca:45:02:a7:
                    03:f3:83:04:3b:8e:70:da:7a:f2:ff:12:44:07:3e:
                    24:bb:e9:89:25:49:86:f6:e1:12:07:92:55:62:62:
                    69:8f:f0:2a:bb:4b:80:58:ce:8c:b2:91:73:53:f5:
                    c0:79:dd:e2:1f:8d:41:08:db:a3:da:cf:c4:1d:cf:
                    b2:c9:f0:6f:a9:fe:27:0a:20:32:b4:b4:b0:77:d4:
                    48:c4:2d:ff:fe:df:60:09:96:0b:17:7f:36:33:81:
                    52:79:ed:f7:be:64:e6:3e:e1:38:8f:b9:9d:78:23:
                    2e:7b:39:df:d0:11:d8:05:5a:33:34:8e:12:19:48:
                    d1:aa:27:af:2d:74:f8:e3:8f:bd:66:10:e4:df:62:
                    37:a6:c6:ea:af:04:b8:26:da:a7:4c:b6:f5:80:11:
                    be:9f:dc:53:a2:e4:23:42:56:04:5f:c3:d2:0a:0b:
                    02:d3:8c:26:f6:09:d6:4a:4f:e4:ea:a0:15:b4:31:
                    f1:0f:33:0c:56:22:88:fb:1f:c4:30:0f:2b:8d:42:
                    af:ee:b1:79:36:ce:27:7e:a5:b5:49:90:52:3a:dd:
                    0e:0a:58:d2:f6:5c:ac:8d:fb:22:32:65:25:af:06:
                    61:e3:b9:93:b3:83:93:dc:78:64:be:27:b3:62:a2:
                    66:8a:ff:a4:42:da:85:4e:b8:2f:7c:7b:bb:88:73:
                    dd:bc:72:7f:d2:71:a5:d6:b2:c3:bb:90:dc:ca:bf:
                    00:78:8a:0e:6f:d7:22:f3:5c:fd:ad:06:a1:93:c2:
                    fe:6f:0f:a4:60:73:2b:b5:63:ff:3c:9b:0a:bd:f8:
                    f5:0c:2d:da:3a:c5:b3:be:22:f9:0c:c0:61:8c:8d:
                    c9:45:a1:5f:58:85:36:a8:b9:3a:98:64:43:b8:c1:
                    40:ba:eb:32:18:49:d4:b4:a4:e8:0e:c8:ef:6b:8c:
                    7d:b1:b2:d3:fc:0c:cd:15:bb:8c:d2:2c:69:24:d7:
                    16:b1:65:74:cd:ee:fb:3b:d8:b2:08:dc:44:17:02:
                    3a:b8:df:ee:53:69:60:e5:03:17:f2:ca:94:be:b4:
                    bb:f4:09:76:42:b5:0f:2f:71:39:32:3e:73:43:d2:
                    83:89:3d:38:f5:d4:65:d7:eb:5e:48:75:d6:4e:c3:
                    52:54:ec:60:bf:87:23:01:49:92:de:44:a8:de:0a:
                    de:a7:ba:20:94:e9:3e:da:41:07:97:95:48:76:64:
                    2f:8b:ed:e5:8c:c5:bc:5a:88:f8:47:36:37:fc:e6:
                    f7:e6:85:ce:bd:b6:93:d5:2d:39:55:9b:b1:7a:e2:
                    13:e3:cc:a9:dd:cb:3e:fd:7e:f9:9f:b4:dc:8b:b6:
                    18:b0:8d
                Exponent: 65537 (0x10001)
        X509v3 extensions:
            X509v3 Basic Constraints: 
                CA:FALSE
            Netscape Comment: 
                Easy-RSA Generated Certificate
            X509v3 Subject Key Identifier: 
                F8:A7:58:77:1D:A4:66:E0:19:31:66:24:84:2D:25:38:1D:FE:79:CF
            X509v3 Authority Key Identifier: 
                keyid:12:CD:60:04:D2:A0:80:9E:70:ED:C6:99:B8:7B:2C:C6:52:FD:19:A1
                DirName:/C=US/ST=OH/L=Columbus/O=VikingVPN/OU=MyOrganizationalUnit/CN=VikingVPN CA/name=EasyRSA/emailAddress=me@myhost.mydomain
                serial:CF:35:85:EE:80:BF:2A:3E

            X509v3 Extended Key Usage: 
                TLS Web Client Authentication
            X509v3 Key Usage: 
                Digital Signature
    Signature Algorithm: md5WithRSAEncryption
         a9:b0:4a:67:bf:c7:fc:ab:99:fb:e5:f0:dd:d1:ce:13:b2:4f:
         6e:18:b7:5f:2e:fe:18:d7:99:5a:d4:de:48:9b:3a:71:aa:1a:
         46:44:0d:32:7d:66:58:2d:b6:54:8d:e3:fb:7e:33:25:5b:0b:
         56:40:35:cd:90:6a:d0:35:e6:e1:d9:9c:e9:26:5a:ea:5b:00:
         58:52:17:ae:89:23:76:f1:ee:e9:fe:f9:58:0e:77:3a:22:d7:
         85:f5:7e:cf:cb:10:f4:a3:da:4d:a2:04:fd:12:c6:14:7c:5a:
         ea:3c:37:c0:6c:0c:68:14:f7:51:cf:6d:c9:77:d4:d6:cd:65:
         c7:41:23:01:3a:10:cc:f3:b4:77:cf:f7:9c:30:e2:32:a4:ce:
         78:ab:32:af:0a:c3:01:b7:cb:ad:41:ec:32:28:b4:70:06:fc:
         e9:dd:87:f7:53:b4:64:16:34:da:80:62:09:e5:36:f6:e0:79:
         98:18:6a:ea:f5:c0:22:c6:80:cc:d4:f8:7a:0f:31:40:15:a6:
         5b:1c:27:c6:52:a0:b7:41:c4:49:75:b2:d3:fd:41:ef:de:de:
         c6:01:a8:88:36:cf:22:a6:b2:8b:19:09:44:de:e7:0f:f4:0a:
         4a:a2:03:ce:17:73:3a:28:cf:44:12:d6:ae:2b:e1:15:03:d3:
         96:62:1a:f9:da:35:fc:e7:d2:65:e5:64:75:b3:37:43:a3:98:
         92:7f:23:99:18:94:90:12:18:af:74:7b:51:34:47:ee:47:a6:
         0c:f4:90:40:1d:62:68:8e:06:d1:df:76:e4:9c:73:72:c0:df:
         7e:10:96:a7:cb:75:57:59:03:91:ce:4a:ad:0c:50:78:81:78:
         fa:3d:19:1e:f7:c0:dd:19:2d:11:6a:f1:94:f8:4d:f7:69:22:
         a9:1d:f4:ad:c7:fe:3f:4b:b8:35:8e:ca:da:81:07:17:6e:39:
         ad:0a:32:0e:1a:1b:4f:d4:8f:ad:dc:54:d9:bd:aa:3d:ef:ef:
         39:9c:95:46:46:d9:af:5f:a3:ff:c3:2c:9f:db:04:73:ad:58:
         52:ae:e1:71:a4:57:a1:35:cc:b4:46:9d:c1:29:96:ed:29:a7:
         2c:75:37:68:16:93:24:1f:dd:a6:35:fe:a5:54:4e:ee:dd:2e:
         70:d1:33:a7:e5:0b:d8:b7:e4:2a:4f:78:65:66:d0:cf:68:b7:
         3c:5c:ba:e1:1f:a8:a6:7a:85:d6:6a:c5:47:1d:8c:3e:5e:2e:
         f0:37:36:3b:50:a5:e7:d4:51:5b:ba:9c:ed:a4:86:c5:5d:26:
         d4:78:55:54:60:9f:bd:03:f7:6e:c5:b9:8c:3e:79:37:06:2b:
         87:6f:1f:28:2e:2b:19:ea
-----BEGIN CERTIFICATE-----
MIIGrDCCBJSgAwIBAgICFNkwDQYJKoZIhvcNAQEEBQAwgawxCzAJBgNVBAYTAlVT
MQswCQYDVQQIEwJPSDERMA8GA1UEBxMIQ29sdW1idXMxEjAQBgNVBAoTCVZpa2lu
Z1ZQTjEdMBsGA1UECxMUTXlPcmdhbml6YXRpb25hbFVuaXQxFTATBgNVBAMTDFZp
a2luZ1ZQTiBDQTEQMA4GA1UEKRMHRWFzeVJTQTEhMB8GCSqGSIb3DQEJARYSbWVA
bXlob3N0Lm15ZG9tYWluMB4XDTE1MDUxOTE0MzEzN1oXDTI1MDUxNjE0MzEzN1ow
HjEcMBoGA1UEAxMTQ2xpZW50MTMzQ2VydDA1MGIwMDCCAiIwDQYJKoZIhvcNAQEB
BQADggIPADCCAgoCggIBAKRiqV+CoioRWcXKRQKnA/ODBDuOcNp68v8SRAc+JLvp
iSVJhvbhEgeSVWJiaY/wKrtLgFjOjLKRc1P1wHnd4h+NQQjbo9rPxB3Pssnwb6n+
JwogMrS0sHfUSMQt//7fYAmWCxd/NjOBUnnt975k5j7hOI+5nXgjLns539AR2AVa
MzSOEhlI0aonry10+OOPvWYQ5N9iN6bG6q8EuCbap0y29YARvp/cU6LkI0JWBF/D
0goLAtOMJvYJ1kpP5OqgFbQx8Q8zDFYiiPsfxDAPK41Cr+6xeTbOJ36ltUmQUjrd
DgpY0vZcrI37IjJlJa8GYeO5k7ODk9x4ZL4ns2KiZor/pELahU64L3x7u4hz3bxy
f9Jxpdayw7uQ3Mq/AHiKDm/XIvNc/a0GoZPC/m8PpGBzK7Vj/zybCr349Qwt2jrF
s74i+QzAYYyNyUWhX1iFNqi5OphkQ7jBQLrrMhhJ1LSk6A7I72uMfbGy0/wMzRW7
jNIsaSTXFrFldM3u+zvYsgjcRBcCOrjf7lNpYOUDF/LKlL60u/QJdkK1Dy9xOTI+
c0PSg4k9OPXUZdfrXkh11k7DUlTsYL+HIwFJkt5EqN4K3qe6IJTpPtpBB5eVSHZk
L4vt5YzFvFqI+Ec2N/zm9+aFzr22k9UtOVWbsXriE+PMqd3LPv1++Z+03Iu2GLCN
AgMBAAGjggFjMIIBXzAJBgNVHRMEAjAAMC0GCWCGSAGG+EIBDQQgFh5FYXN5LVJT
QSBHZW5lcmF0ZWQgQ2VydGlmaWNhdGUwHQYDVR0OBBYEFPinWHcdpGbgGTFmJIQt
JTgd/nnPMIHhBgNVHSMEgdkwgdaAFBLNYATSoICecO3Gmbh7LMZS/RmhoYGypIGv
MIGsMQswCQYDVQQGEwJVUzELMAkGA1UECBMCT0gxETAPBgNVBAcTCENvbHVtYnVz
MRIwEAYDVQQKEwlWaWtpbmdWUE4xHTAbBgNVBAsTFE15T3JnYW5pemF0aW9uYWxV
bml0MRUwEwYDVQQDEwxWaWtpbmdWUE4gQ0ExEDAOBgNVBCkTB0Vhc3lSU0ExITAf
BgkqhkiG9w0BCQEWEm1lQG15aG9zdC5teWRvbWFpboIJAM81he6Avyo+MBMGA1Ud
JQQMMAoGCCsGAQUFBwMCMAsGA1UdDwQEAwIHgDANBgkqhkiG9w0BAQQFAAOCAgEA
qbBKZ7/H/KuZ++Xw3dHOE7JPbhi3Xy7+GNeZWtTeSJs6caoaRkQNMn1mWC22VI3j
+34zJVsLVkA1zZBq0DXm4dmc6SZa6lsAWFIXrokjdvHu6f75WA53OiLXhfV+z8sQ
9KPaTaIE/RLGFHxa6jw3wGwMaBT3Uc9tyXfU1s1lx0EjAToQzPO0d8/3nDDiMqTO
eKsyrwrDAbfLrUHsMii0cAb86d2H91O0ZBY02oBiCeU29uB5mBhq6vXAIsaAzNT4
eg8xQBWmWxwnxlKgt0HESXWy0/1B797exgGoiDbPIqayixkJRN7nD/QKSqIDzhdz
OijPRBLWrivhFQPTlmIa+do1/OfSZeVkdbM3Q6OYkn8jmRiUkBIYr3R7UTRH7kem
DPSQQB1iaI4G0d925JxzcsDffhCWp8t1V1kDkc5KrQxQeIF4+j0ZHvfA3RktEWrx
lPhN92kiqR30rcf+P0u4NY7K2oEHF245rQoyDhobT9SPrdxU2b2qPe/vOZyVRkbZ
r1+j/8Msn9sEc61YUq7hcaRXoTXMtEadwSmW7SmnLHU3aBaTJB/dpjX+pVRO7t0u
cNEzp+UL2LfkKk94ZWbQz2i3PFy64R+opnqF1mrFRx2MPl4u8Dc2O1Cl59RRW7qc
7aSGxV0m1HhVVGCfvQP3bsW5jD55NwYrh28fKC4rGeo=
-----END CERTIFICATE-----
