Certificate:
    Data:
        Version: 3 (0x2)
        Serial Number: 5355 (0x14eb)
    Signature Algorithm: md5WithRSAEncryption
        Issuer: C=US, ST=OH, L=Columbus, O=VikingVPN, OU=MyOrganizationalUnit, CN=VikingVPN CA/name=EasyRSA/emailAddress=me@myhost.mydomain
        Validity
            Not Before: May 21 21:47:19 2015 GMT
            Not After : May 18 21:47:19 2025 GMT
        Subject: CN=Client1672Certcf32a8
        Subject Public Key Info:
            Public Key Algorithm: rsaEncryption
                Public-Key: (4096 bit)
                Modulus:
                    00:d5:6a:1b:61:4b:5c:f6:89:65:25:86:cf:3a:8b:
                    b8:93:19:72:a3:68:82:5b:8d:be:13:84:24:d3:3e:
                    03:69:17:74:e0:7f:9f:ba:d2:2b:10:36:17:03:2e:
                    b7:7b:88:f3:92:e8:37:b7:8f:8c:78:9c:d6:7e:a7:
                    f6:ee:a0:8f:1b:61:a4:83:9f:ec:77:2a:49:51:35:
                    ea:41:7a:48:a4:69:d3:85:93:b8:76:ca:7f:eb:26:
                    b4:46:5c:f5:66:7b:25:b9:8d:96:38:f4:91:5b:d8:
                    3e:9b:ba:3d:9c:22:f8:d8:11:b1:31:a1:ec:03:06:
                    85:fe:10:81:c3:99:70:f7:62:6d:cd:90:6a:1f:5c:
                    af:28:a6:11:c9:b3:9b:33:5f:c3:8a:8f:40:73:8b:
                    9d:b3:4f:c7:18:4d:00:0b:00:58:52:d8:1f:56:97:
                    b8:ef:77:60:65:e3:d6:00:04:4b:08:8c:7d:f9:11:
                    72:5f:76:ab:11:bf:2d:0e:2f:b6:d8:f2:28:f3:9e:
                    68:4d:20:d3:97:d7:8e:11:de:33:4b:c0:27:6b:34:
                    ee:13:39:58:8f:6a:ce:6b:28:7a:04:73:5d:ae:8d:
                    d5:f7:69:83:e7:4c:7a:1b:a7:9f:e4:0e:13:91:a2:
                    38:86:c6:33:86:89:74:b6:c2:69:b3:ea:92:de:ae:
                    ab:12:89:06:4f:a9:32:f1:d6:c7:bd:d2:86:c1:7f:
                    f3:3b:92:3c:86:9e:51:cf:ee:5b:d7:76:ec:c0:a9:
                    87:79:ec:2d:33:c5:82:a6:8d:75:80:11:6e:1f:1d:
                    cb:9f:6b:63:cd:d8:c2:c7:d4:16:08:49:d4:89:29:
                    b0:45:e8:16:0c:da:33:b3:f5:93:85:1d:c6:11:6c:
                    32:44:a2:2a:d3:77:5a:82:8e:55:8a:31:98:5e:fc:
                    71:00:c1:7c:4d:e6:3f:e7:d9:e7:31:3d:d9:eb:c9:
                    5c:10:79:fb:45:28:88:8c:65:02:e5:54:0a:d9:ac:
                    ec:32:e2:b8:b8:5f:08:23:29:9c:a3:fc:98:0e:70:
                    2a:6b:fb:02:78:97:f4:45:03:cf:f0:8b:a1:41:2c:
                    2a:c6:9a:1d:50:37:94:a1:68:3d:c8:9c:98:6d:9a:
                    53:b1:44:65:cd:3f:c8:cc:57:de:40:64:67:f0:b7:
                    8d:0a:86:86:2f:f2:99:bd:06:16:d7:ce:6a:75:60:
                    9c:fb:e7:97:3e:2b:71:42:7a:fe:8e:d8:be:7c:04:
                    bf:b6:29:7e:41:4d:91:99:62:99:62:e1:53:6b:b6:
                    b1:10:19:05:0f:26:5a:5b:56:ea:6a:6d:c2:cf:03:
                    4c:65:26:77:f6:fe:2e:ff:86:a4:eb:29:af:37:a7:
                    8d:bb:3f
                Exponent: 65537 (0x10001)
        X509v3 extensions:
            X509v3 Basic Constraints: 
                CA:FALSE
            Netscape Comment: 
                Easy-RSA Generated Certificate
            X509v3 Subject Key Identifier: 
                49:39:65:D8:F8:5C:20:7F:0E:1F:5A:D7:0F:96:1A:6E:4D:C2:FB:60
            X509v3 Authority Key Identifier: 
                keyid:12:CD:60:04:D2:A0:80:9E:70:ED:C6:99:B8:7B:2C:C6:52:FD:19:A1
                DirName:/C=US/ST=OH/L=Columbus/O=VikingVPN/OU=MyOrganizationalUnit/CN=VikingVPN CA/name=EasyRSA/emailAddress=me@myhost.mydomain
                serial:CF:35:85:EE:80:BF:2A:3E

            X509v3 Extended Key Usage: 
                TLS Web Client Authentication
            X509v3 Key Usage: 
                Digital Signature
    Signature Algorithm: md5WithRSAEncryption
         cc:75:6a:44:53:ed:ce:e4:3c:ef:76:39:4c:24:9f:55:de:99:
         8a:92:6c:90:cb:23:b7:0c:45:83:02:ed:90:91:01:3f:98:90:
         79:70:75:16:2d:77:3d:be:1d:2f:ab:f0:74:9e:6e:e1:7c:99:
         90:b7:fb:8f:f0:71:fe:54:7f:a2:a3:66:34:4d:2b:45:07:65:
         34:dd:28:14:c2:7b:11:3b:d5:f8:4e:8d:78:95:ab:17:4f:70:
         0f:8c:5c:b0:eb:63:44:bf:df:51:86:5a:10:9d:7f:5e:0f:15:
         f8:33:e5:5e:7d:13:9c:97:87:f2:47:e3:6f:2b:66:0b:08:a8:
         aa:59:a7:e9:bb:41:3e:dc:d4:65:ca:4a:ca:5a:18:b1:29:8f:
         b9:a5:29:95:07:07:a9:f0:a9:5e:c8:e3:0f:b4:62:8e:de:f3:
         47:ae:57:2f:e9:78:e5:da:88:8a:db:3f:2e:02:53:b2:f4:ef:
         36:68:03:1c:35:50:15:0f:1d:11:80:28:cd:cc:9e:87:05:99:
         06:43:b1:f1:a6:e9:63:22:08:7e:c1:4e:56:1a:1f:c3:26:5a:
         0a:36:59:91:99:90:25:8d:3e:25:e1:30:50:e1:da:6e:22:3c:
         de:72:4d:99:61:7a:ed:5a:27:61:ac:61:38:21:d0:4f:49:78:
         bd:3d:3e:06:c5:79:3a:e3:71:5f:92:bc:38:73:e0:3a:99:6b:
         57:db:22:5a:bb:d1:03:ca:fc:d8:63:c3:52:95:ee:6e:42:ee:
         72:3b:ba:ca:c1:f2:1b:ab:4d:9d:73:89:ca:7c:03:88:33:ff:
         3c:30:10:dc:01:08:5c:4b:33:68:d3:c7:d4:53:12:50:fe:7c:
         95:b3:63:6c:ef:3b:44:07:5d:8e:71:3c:61:84:d4:f4:01:d2:
         0d:4f:3a:74:6a:03:f0:51:2b:66:50:ef:a4:a8:30:81:49:c1:
         2e:b1:64:1d:b1:c9:e3:28:c2:77:c4:99:93:02:43:36:63:90:
         c2:dc:d3:6e:63:d6:ee:d7:50:42:85:c3:dd:d0:16:14:bf:96:
         f4:b3:81:b6:de:38:5a:34:33:c6:8c:c8:d7:33:b0:7e:54:af:
         52:3e:35:41:40:73:3e:21:06:99:79:3f:f0:bd:e6:0f:27:37:
         fe:bf:83:d6:ac:27:67:9c:44:b7:bf:43:64:0c:66:89:a1:a6:
         39:fb:96:56:6c:71:82:d6:63:ca:1c:27:80:4b:78:a0:3b:00:
         70:20:30:6f:a2:ba:04:12:00:22:0d:9e:fd:87:d9:06:c4:26:
         56:d2:a4:46:7e:3d:5e:40:00:b0:5d:0e:85:74:ee:06:a6:8b:
         cb:cc:cc:2f:29:5f:ff:ca
-----BEGIN CERTIFICATE-----
MIIGrTCCBJWgAwIBAgICFOswDQYJKoZIhvcNAQEEBQAwgawxCzAJBgNVBAYTAlVT
MQswCQYDVQQIEwJPSDERMA8GA1UEBxMIQ29sdW1idXMxEjAQBgNVBAoTCVZpa2lu
Z1ZQTjEdMBsGA1UECxMUTXlPcmdhbml6YXRpb25hbFVuaXQxFTATBgNVBAMTDFZp
a2luZ1ZQTiBDQTEQMA4GA1UEKRMHRWFzeVJTQTEhMB8GCSqGSIb3DQEJARYSbWVA
bXlob3N0Lm15ZG9tYWluMB4XDTE1MDUyMTIxNDcxOVoXDTI1MDUxODIxNDcxOVow
HzEdMBsGA1UEAxMUQ2xpZW50MTY3MkNlcnRjZjMyYTgwggIiMA0GCSqGSIb3DQEB
AQUAA4ICDwAwggIKAoICAQDVahthS1z2iWUlhs86i7iTGXKjaIJbjb4ThCTTPgNp
F3Tgf5+60isQNhcDLrd7iPOS6De3j4x4nNZ+p/buoI8bYaSDn+x3KklRNepBekik
adOFk7h2yn/rJrRGXPVmeyW5jZY49JFb2D6buj2cIvjYEbExoewDBoX+EIHDmXD3
Ym3NkGofXK8ophHJs5szX8OKj0Bzi52zT8cYTQALAFhS2B9Wl7jvd2Bl49YABEsI
jH35EXJfdqsRvy0OL7bY8ijznmhNINOX144R3jNLwCdrNO4TOViPas5rKHoEc12u
jdX3aYPnTHobp5/kDhORojiGxjOGiXS2wmmz6pLerqsSiQZPqTLx1se90obBf/M7
kjyGnlHP7lvXduzAqYd57C0zxYKmjXWAEW4fHcufa2PN2MLH1BYISdSJKbBF6BYM
2jOz9ZOFHcYRbDJEoirTd1qCjlWKMZhe/HEAwXxN5j/n2ecxPdnryVwQeftFKIiM
ZQLlVArZrOwy4ri4XwgjKZyj/JgOcCpr+wJ4l/RFA8/wi6FBLCrGmh1QN5ShaD3I
nJhtmlOxRGXNP8jMV95AZGfwt40KhoYv8pm9BhbXzmp1YJz755c+K3FCev6O2L58
BL+2KX5BTZGZYpli4VNrtrEQGQUPJlpbVupqbcLPA0xlJnf2/i7/hqTrKa83p427
PwIDAQABo4IBYzCCAV8wCQYDVR0TBAIwADAtBglghkgBhvhCAQ0EIBYeRWFzeS1S
U0EgR2VuZXJhdGVkIENlcnRpZmljYXRlMB0GA1UdDgQWBBRJOWXY+Fwgfw4fWtcP
lhpuTcL7YDCB4QYDVR0jBIHZMIHWgBQSzWAE0qCAnnDtxpm4eyzGUv0ZoaGBsqSB
rzCBrDELMAkGA1UEBhMCVVMxCzAJBgNVBAgTAk9IMREwDwYDVQQHEwhDb2x1bWJ1
czESMBAGA1UEChMJVmlraW5nVlBOMR0wGwYDVQQLExRNeU9yZ2FuaXphdGlvbmFs
VW5pdDEVMBMGA1UEAxMMVmlraW5nVlBOIENBMRAwDgYDVQQpEwdFYXN5UlNBMSEw
HwYJKoZIhvcNAQkBFhJtZUBteWhvc3QubXlkb21haW6CCQDPNYXugL8qPjATBgNV
HSUEDDAKBggrBgEFBQcDAjALBgNVHQ8EBAMCB4AwDQYJKoZIhvcNAQEEBQADggIB
AMx1akRT7c7kPO92OUwkn1XemYqSbJDLI7cMRYMC7ZCRAT+YkHlwdRYtdz2+HS+r
8HSebuF8mZC3+4/wcf5Uf6KjZjRNK0UHZTTdKBTCexE71fhOjXiVqxdPcA+MXLDr
Y0S/31GGWhCdf14PFfgz5V59E5yXh/JH428rZgsIqKpZp+m7QT7c1GXKSspaGLEp
j7mlKZUHB6nwqV7I4w+0Yo7e80euVy/peOXaiIrbPy4CU7L07zZoAxw1UBUPHRGA
KM3MnocFmQZDsfGm6WMiCH7BTlYaH8MmWgo2WZGZkCWNPiXhMFDh2m4iPN5yTZlh
eu1aJ2GsYTgh0E9JeL09PgbFeTrjcV+SvDhz4DqZa1fbIlq70QPK/Nhjw1KV7m5C
7nI7usrB8hurTZ1zicp8A4gz/zwwENwBCFxLM2jTx9RTElD+fJWzY2zvO0QHXY5x
PGGE1PQB0g1POnRqA/BRK2ZQ76SoMIFJwS6xZB2xyeMownfEmZMCQzZjkMLc025j
1u7XUEKFw93QFhS/lvSzgbbeOFo0M8aMyNczsH5Ur1I+NUFAcz4hBpl5P/C95g8n
N/6/g9asJ2ecRLe/Q2QMZomhpjn7llZscYLWY8ocJ4BLeKA7AHAgMG+iugQSACIN
nv2H2QbEJlbSpEZ+PV5AALBdDoV07gami8vMzC8pX//K
-----END CERTIFICATE-----
