Certificate:
    Data:
        Version: 3 (0x2)
        Serial Number: 5387 (0x150b)
    Signature Algorithm: md5WithRSAEncryption
        Issuer: C=US, ST=OH, L=Columbus, O=VikingVPN, OU=MyOrganizationalUnit, CN=VikingVPN CA/name=EasyRSA/emailAddress=me@myhost.mydomain
        Validity
            Not Before: May 26 05:31:02 2015 GMT
            Not After : May 23 05:31:02 2025 GMT
        Subject: CN=Client1520Cert51a79d
        Subject Public Key Info:
            Public Key Algorithm: rsaEncryption
                Public-Key: (4096 bit)
                Modulus:
                    00:b4:95:06:3f:73:4c:be:db:d1:6e:f0:89:5f:f8:
                    3c:83:d9:ee:78:09:2a:ff:82:5e:10:97:d5:30:f1:
                    ed:3f:45:81:95:fa:cf:5a:5f:a9:59:45:46:bf:fb:
                    a7:58:3e:d9:cd:03:bc:4d:10:38:11:c9:a6:4b:60:
                    99:5d:95:6c:89:cb:c2:56:15:97:88:8b:33:2e:54:
                    56:9b:9e:44:3d:4e:fe:57:e5:b8:8f:54:05:fe:f0:
                    8d:27:4d:f7:4b:29:a2:85:3c:75:5c:a2:ef:1e:bb:
                    ec:d5:72:9e:93:99:08:eb:6b:80:9e:8e:e7:d8:48:
                    ff:3e:65:a5:e8:51:a3:e7:56:96:34:aa:62:1f:ff:
                    8e:82:58:c8:9d:51:cd:16:a0:78:fb:12:68:f8:8d:
                    ee:0e:dd:89:dd:d4:20:3b:2e:9c:a9:cc:81:a6:45:
                    61:90:32:e4:63:e8:09:4e:d8:9d:89:0a:78:eb:dc:
                    dd:91:73:2a:d3:24:4c:36:86:85:1f:6e:d2:85:af:
                    c6:1c:65:55:d8:4a:40:07:08:5e:13:45:97:e2:77:
                    c3:d2:73:c9:e6:f7:5b:91:a4:f3:8c:9d:50:39:19:
                    ac:fd:5b:0f:3c:85:86:f4:0a:2f:ba:72:3b:91:35:
                    84:9a:82:65:ad:73:4f:80:e3:84:a9:71:93:b8:06:
                    4d:0b:eb:bb:44:cb:b0:7a:e3:a5:f2:f3:69:67:96:
                    ae:08:0a:5f:77:c2:d4:5c:a6:c6:c9:38:fb:03:7d:
                    d4:dc:2a:b6:fa:c2:39:69:d9:e3:2d:5c:cb:85:e9:
                    35:59:16:2e:a2:2f:87:d7:31:48:8f:c2:f8:09:55:
                    02:13:db:06:10:a7:5e:e8:7e:dc:16:c8:17:4e:d2:
                    e9:97:9f:2e:40:05:f2:61:de:e7:e1:d8:40:db:aa:
                    60:6a:4d:7d:24:d3:a1:90:1c:58:cd:6b:37:a8:76:
                    5f:3a:a5:41:b7:f5:ec:60:5f:34:e4:f8:38:b6:65:
                    2d:ce:37:3c:9c:53:f9:8d:1f:b5:57:c3:2c:c4:f3:
                    bc:9a:c2:99:24:17:79:d1:b6:f6:55:1e:c4:bc:ab:
                    bf:6d:91:da:ec:57:0f:51:2a:73:4e:91:ac:3e:d4:
                    3f:ca:3a:95:7b:27:6f:1b:e2:1f:23:79:d5:3d:4e:
                    ec:fa:60:a1:11:f7:34:42:50:3b:a2:dd:cc:de:4e:
                    4a:7b:e6:be:02:72:11:c5:da:3d:68:e8:b4:9d:84:
                    90:84:a2:7b:90:fd:3f:7a:08:3e:00:90:ee:fd:81:
                    81:b0:13:0c:02:33:26:7a:03:df:a9:19:59:a0:32:
                    81:d8:66:98:04:16:1a:78:ca:fc:7d:6d:f8:e8:9a:
                    3c:54:15
                Exponent: 65537 (0x10001)
        X509v3 extensions:
            X509v3 Basic Constraints: 
                CA:FALSE
            Netscape Comment: 
                Easy-RSA Generated Certificate
            X509v3 Subject Key Identifier: 
                A5:0A:A5:1D:6E:7E:92:03:6C:C3:0E:FA:A7:FD:54:4A:80:00:78:FB
            X509v3 Authority Key Identifier: 
                keyid:12:CD:60:04:D2:A0:80:9E:70:ED:C6:99:B8:7B:2C:C6:52:FD:19:A1
                DirName:/C=US/ST=OH/L=Columbus/O=VikingVPN/OU=MyOrganizationalUnit/CN=VikingVPN CA/name=EasyRSA/emailAddress=me@myhost.mydomain
                serial:CF:35:85:EE:80:BF:2A:3E

            X509v3 Extended Key Usage: 
                TLS Web Client Authentication
            X509v3 Key Usage: 
                Digital Signature
    Signature Algorithm: md5WithRSAEncryption
         2c:3d:11:51:48:a1:b4:f6:cc:be:e1:c9:7e:55:38:50:48:f5:
         64:c5:f9:a6:60:37:df:6a:4b:5a:c7:48:f9:0e:c0:30:6f:b8:
         9f:bb:22:24:33:27:11:35:a0:15:cf:66:02:eb:c0:ed:d3:35:
         82:e7:bf:9f:cd:87:22:07:61:e3:f2:a2:01:0f:a4:16:a7:5a:
         f4:b4:19:c5:7d:88:48:44:8e:8f:73:7e:42:f7:a5:2c:01:2f:
         dc:6e:e0:d7:15:9e:78:f3:41:b2:51:c9:22:9d:d9:4f:41:86:
         a8:88:e3:37:ad:f5:87:9a:a1:27:ab:4a:f2:72:41:1d:05:ad:
         ad:89:94:a6:0e:dc:de:e0:ca:32:c3:f9:86:04:0d:4d:4d:3d:
         39:ce:af:6f:ca:53:7a:6b:e7:98:eb:2a:d9:93:e8:22:49:09:
         7c:7f:da:16:0e:01:89:d1:a3:83:8e:0c:3a:69:ed:cc:49:45:
         bb:88:00:82:88:74:a6:35:6c:df:e4:21:86:5d:17:9d:73:86:
         40:1f:69:74:09:e6:f1:8a:aa:83:d6:38:cf:42:7f:f0:4d:02:
         b0:5f:e5:4c:f0:d7:f3:f1:d5:35:47:24:36:10:70:5f:f0:4d:
         88:5f:a7:e5:b5:67:bf:d7:80:8d:95:d1:e8:00:df:18:b4:b3:
         0c:78:65:fd:2b:bf:b4:58:89:26:f7:5b:d1:53:fa:74:2b:24:
         1f:87:10:20:82:49:7f:50:d7:c3:4c:62:5d:43:52:31:a8:13:
         5d:aa:14:c4:13:53:5f:f7:12:f4:a4:92:92:1b:3b:f6:68:4e:
         c4:52:42:12:52:05:b7:4b:08:13:2c:a9:b1:60:e4:0c:84:d0:
         83:f2:a4:16:43:64:0c:a6:70:5c:b1:4d:be:2b:ff:99:d1:29:
         be:28:7f:67:5a:7a:3c:df:d4:e6:ee:6e:7b:06:a5:a2:31:f4:
         80:4f:b0:42:ad:1b:1d:87:f8:b6:98:c1:3f:ac:57:11:0a:eb:
         4f:35:4b:22:97:87:a8:bd:61:56:4d:36:d9:02:59:5a:95:86:
         1a:66:2e:04:ff:ac:2e:cf:bd:d1:c1:12:6e:49:3c:2b:ff:86:
         6b:a6:c9:af:26:ef:b0:db:4b:d6:3e:44:dd:2d:06:c6:8a:64:
         84:61:01:1e:58:46:e8:fe:21:ed:94:a9:a9:a8:4f:1e:95:ac:
         60:7f:1d:61:ca:00:b4:26:65:2d:c4:75:07:6b:74:c3:0c:15:
         cd:75:3f:80:51:3f:f4:e0:d6:37:1a:3c:19:95:02:2a:47:3a:
         3d:8a:46:5c:ec:78:c3:98:a1:e4:c4:58:37:ea:55:7a:02:ae:
         89:38:b8:79:92:6b:16:32
-----BEGIN CERTIFICATE-----
MIIGrTCCBJWgAwIBAgICFQswDQYJKoZIhvcNAQEEBQAwgawxCzAJBgNVBAYTAlVT
MQswCQYDVQQIEwJPSDERMA8GA1UEBxMIQ29sdW1idXMxEjAQBgNVBAoTCVZpa2lu
Z1ZQTjEdMBsGA1UECxMUTXlPcmdhbml6YXRpb25hbFVuaXQxFTATBgNVBAMTDFZp
a2luZ1ZQTiBDQTEQMA4GA1UEKRMHRWFzeVJTQTEhMB8GCSqGSIb3DQEJARYSbWVA
bXlob3N0Lm15ZG9tYWluMB4XDTE1MDUyNjA1MzEwMloXDTI1MDUyMzA1MzEwMlow
HzEdMBsGA1UEAxMUQ2xpZW50MTUyMENlcnQ1MWE3OWQwggIiMA0GCSqGSIb3DQEB
AQUAA4ICDwAwggIKAoICAQC0lQY/c0y+29Fu8Ilf+DyD2e54CSr/gl4Ql9Uw8e0/
RYGV+s9aX6lZRUa/+6dYPtnNA7xNEDgRyaZLYJldlWyJy8JWFZeIizMuVFabnkQ9
Tv5X5biPVAX+8I0nTfdLKaKFPHVcou8eu+zVcp6TmQjra4CejufYSP8+ZaXoUaPn
VpY0qmIf/46CWMidUc0WoHj7Emj4je4O3Ynd1CA7LpypzIGmRWGQMuRj6AlO2J2J
Cnjr3N2RcyrTJEw2hoUfbtKFr8YcZVXYSkAHCF4TRZfid8PSc8nm91uRpPOMnVA5
Gaz9Ww88hYb0Ci+6cjuRNYSagmWtc0+A44SpcZO4Bk0L67tEy7B646Xy82lnlq4I
Cl93wtRcpsbJOPsDfdTcKrb6wjlp2eMtXMuF6TVZFi6iL4fXMUiPwvgJVQIT2wYQ
p17oftwWyBdO0umXny5ABfJh3ufh2EDbqmBqTX0k06GQHFjNazeodl86pUG39exg
XzTk+Di2ZS3ONzycU/mNH7VXwyzE87yawpkkF3nRtvZVHsS8q79tkdrsVw9RKnNO
kaw+1D/KOpV7J28b4h8jedU9Tuz6YKER9zRCUDui3czeTkp75r4CchHF2j1o6LSd
hJCEonuQ/T96CD4AkO79gYGwEwwCMyZ6A9+pGVmgMoHYZpgEFhp4yvx9bfjomjxU
FQIDAQABo4IBYzCCAV8wCQYDVR0TBAIwADAtBglghkgBhvhCAQ0EIBYeRWFzeS1S
U0EgR2VuZXJhdGVkIENlcnRpZmljYXRlMB0GA1UdDgQWBBSlCqUdbn6SA2zDDvqn
/VRKgAB4+zCB4QYDVR0jBIHZMIHWgBQSzWAE0qCAnnDtxpm4eyzGUv0ZoaGBsqSB
rzCBrDELMAkGA1UEBhMCVVMxCzAJBgNVBAgTAk9IMREwDwYDVQQHEwhDb2x1bWJ1
czESMBAGA1UEChMJVmlraW5nVlBOMR0wGwYDVQQLExRNeU9yZ2FuaXphdGlvbmFs
VW5pdDEVMBMGA1UEAxMMVmlraW5nVlBOIENBMRAwDgYDVQQpEwdFYXN5UlNBMSEw
HwYJKoZIhvcNAQkBFhJtZUBteWhvc3QubXlkb21haW6CCQDPNYXugL8qPjATBgNV
HSUEDDAKBggrBgEFBQcDAjALBgNVHQ8EBAMCB4AwDQYJKoZIhvcNAQEEBQADggIB
ACw9EVFIobT2zL7hyX5VOFBI9WTF+aZgN99qS1rHSPkOwDBvuJ+7IiQzJxE1oBXP
ZgLrwO3TNYLnv5/NhyIHYePyogEPpBanWvS0GcV9iEhEjo9zfkL3pSwBL9xu4NcV
nnjzQbJRySKd2U9BhqiI4zet9YeaoSerSvJyQR0Fra2JlKYO3N7gyjLD+YYEDU1N
PTnOr2/KU3pr55jrKtmT6CJJCXx/2hYOAYnRo4OODDpp7cxJRbuIAIKIdKY1bN/k
IYZdF51zhkAfaXQJ5vGKqoPWOM9Cf/BNArBf5Uzw1/Px1TVHJDYQcF/wTYhfp+W1
Z7/XgI2V0egA3xi0swx4Zf0rv7RYiSb3W9FT+nQrJB+HECCCSX9Q18NMYl1DUjGo
E12qFMQTU1/3EvSkkpIbO/ZoTsRSQhJSBbdLCBMsqbFg5AyE0IPypBZDZAymcFyx
Tb4r/5nRKb4of2daejzf1ObubnsGpaIx9IBPsEKtGx2H+LaYwT+sVxEK6081SyKX
h6i9YVZNNtkCWVqVhhpmLgT/rC7PvdHBEm5JPCv/hmumya8m77DbS9Y+RN0tBsaK
ZIRhAR5YRuj+Ie2UqamoTx6VrGB/HWHKALQmZS3EdQdrdMMMFc11P4BRP/Tg1jca
PBmVAipHOj2KRlzseMOYoeTEWDfqVXoCrok4uHmSaxYy
-----END CERTIFICATE-----
