Certificate:
    Data:
        Version: 3 (0x2)
        Serial Number: 5394 (0x1512)
    Signature Algorithm: md5WithRSAEncryption
        Issuer: C=US, ST=OH, L=Columbus, O=VikingVPN, OU=MyOrganizationalUnit, CN=VikingVPN CA/name=EasyRSA/emailAddress=me@myhost.mydomain
        Validity
            Not Before: May 26 21:57:59 2015 GMT
            Not After : May 23 21:57:59 2025 GMT
        Subject: CN=Client1653Cert57d09c
        Subject Public Key Info:
            Public Key Algorithm: rsaEncryption
                Public-Key: (4096 bit)
                Modulus:
                    00:bb:5b:8a:b6:be:f8:bf:6a:09:8b:b2:ba:2b:9f:
                    63:6c:92:a9:63:84:ed:c7:aa:f7:bb:23:dc:5a:f6:
                    74:af:74:5c:93:29:af:aa:82:92:03:e4:c1:2d:f3:
                    0d:4d:34:76:77:cb:04:c0:06:38:d5:ec:ba:82:10:
                    69:0e:20:66:fc:4f:0f:aa:90:10:c7:14:78:fa:57:
                    26:d2:7c:e6:31:53:d7:41:ad:32:28:50:bd:2d:c4:
                    35:d6:56:6d:32:22:fd:ba:4e:5a:96:e1:3b:7b:8c:
                    c3:f7:da:fc:e4:15:08:92:ed:8f:84:b5:77:31:b5:
                    35:5a:63:59:be:d1:9f:bb:57:4e:80:4a:10:24:31:
                    71:40:ac:21:fc:71:a2:ae:a5:b0:3f:1b:d1:5b:52:
                    c1:d8:83:5a:85:c7:5b:75:13:fa:00:db:37:e9:6f:
                    0e:be:19:45:c3:b9:f6:bf:09:fe:db:fb:1e:f6:9b:
                    44:27:fb:48:c6:eb:2a:f6:98:80:71:75:e7:91:7b:
                    70:46:43:75:e7:72:6b:9f:94:b1:c2:bd:d4:19:82:
                    ae:19:7d:c2:dc:c5:b9:48:6e:60:f7:38:e9:89:d2:
                    bb:7d:f8:ab:ed:97:da:65:af:85:9a:ce:94:fd:81:
                    6e:4b:7e:d3:26:1d:7d:48:14:55:f7:c1:88:83:bb:
                    69:44:32:7f:a9:db:48:e8:3e:d3:e9:d8:6a:f3:cd:
                    ed:bb:48:0f:d3:5e:c5:ee:f0:06:6c:1c:43:ba:22:
                    55:78:c4:12:86:f8:fe:b8:55:a7:0b:95:f1:a6:5e:
                    fd:67:5f:00:32:36:07:5d:05:cd:6b:a9:18:57:80:
                    04:4d:b2:32:f0:f1:fd:94:2b:f1:a2:79:a2:2f:8d:
                    38:b3:9f:6b:89:a7:6c:aa:be:13:f6:aa:03:ed:50:
                    31:88:36:d3:5a:f4:73:ac:5e:a9:6e:ef:96:25:de:
                    14:fa:cf:8b:cd:41:05:f2:dc:6b:d4:68:7a:b8:7b:
                    0f:de:54:c1:58:2a:0d:e5:f6:c2:11:62:7c:1b:b2:
                    7e:7e:b5:c9:0c:ea:96:f3:26:72:7d:48:c1:10:67:
                    4a:3d:d6:03:fe:07:a7:5d:d8:64:ee:1a:c6:a8:d1:
                    32:57:9e:e4:7b:71:1a:9d:2c:92:b0:75:27:20:55:
                    02:64:fc:0b:a1:9e:a4:79:27:8d:14:2f:25:2f:f4:
                    73:26:28:2b:34:d2:ee:f2:d4:16:04:09:20:ba:c2:
                    27:1f:55:36:f0:60:4b:c2:67:93:b0:91:ab:37:29:
                    a0:0d:0c:0c:95:3b:e6:9b:2b:73:ed:69:55:1a:6b:
                    31:24:e1:2d:e8:9c:a9:32:6d:ea:07:3e:32:37:9e:
                    34:0a:9f
                Exponent: 65537 (0x10001)
        X509v3 extensions:
            X509v3 Basic Constraints: 
                CA:FALSE
            Netscape Comment: 
                Easy-RSA Generated Certificate
            X509v3 Subject Key Identifier: 
                DF:63:AA:18:3A:30:02:7A:25:11:99:9C:9D:B4:75:FA:27:37:A1:36
            X509v3 Authority Key Identifier: 
                keyid:12:CD:60:04:D2:A0:80:9E:70:ED:C6:99:B8:7B:2C:C6:52:FD:19:A1
                DirName:/C=US/ST=OH/L=Columbus/O=VikingVPN/OU=MyOrganizationalUnit/CN=VikingVPN CA/name=EasyRSA/emailAddress=me@myhost.mydomain
                serial:CF:35:85:EE:80:BF:2A:3E

            X509v3 Extended Key Usage: 
                TLS Web Client Authentication
            X509v3 Key Usage: 
                Digital Signature
    Signature Algorithm: md5WithRSAEncryption
         ee:09:d0:08:5d:48:4a:0d:40:f8:e4:82:80:fc:b9:ba:cc:35:
         68:53:cb:ec:8f:ba:be:e9:03:08:a9:ea:3e:3f:44:26:ae:ec:
         3d:5c:d8:ce:fb:37:7b:d2:62:1c:68:4f:cd:98:91:71:3f:e0:
         8b:19:6a:57:fc:2c:13:d9:89:66:6b:5f:18:40:0a:71:91:a0:
         15:0e:cc:61:02:07:a5:11:8d:9c:de:f3:75:1e:8b:91:43:15:
         ff:11:61:91:38:b9:49:48:08:a2:9d:e5:6c:87:fe:a6:b3:85:
         28:ef:4f:f1:ea:3b:52:7d:b0:4d:5b:eb:9d:42:6e:f0:20:e9:
         e7:b5:0b:cc:77:85:f8:68:dd:5e:21:09:aa:1c:0e:d9:f0:93:
         92:60:29:ed:b0:bc:9b:ce:96:62:ed:68:d4:0f:7c:c2:31:9f:
         72:b7:7a:96:1f:9b:63:e9:34:3a:e9:99:8b:9b:a5:a8:ab:9b:
         dd:00:06:62:87:ee:09:47:ac:5a:5b:83:c7:35:96:00:b7:e5:
         09:40:2a:3c:7a:64:9c:bf:71:50:91:fb:c9:85:2a:87:98:11:
         29:52:90:4e:89:69:1d:9c:c7:d0:5e:3a:68:18:1a:cd:96:c0:
         a6:01:d0:9c:b6:c3:13:69:e9:60:9a:44:13:6a:91:b6:fb:17:
         96:a7:8d:27:3e:34:2e:80:33:cc:99:da:39:db:e5:2c:dd:92:
         7f:82:3d:1e:cf:88:cc:4b:ef:f2:95:50:ee:d8:d3:f2:6e:f3:
         8b:1c:ad:83:18:d1:23:4a:d3:91:b8:c0:62:fe:8c:29:39:dd:
         0f:39:46:05:e3:80:a7:0f:00:49:25:08:8a:42:4c:78:5d:55:
         32:52:76:ba:90:99:39:13:60:64:90:e3:c8:c5:46:84:78:39:
         5e:6d:31:fa:6d:e1:4e:6d:bf:fd:74:3b:3f:53:ed:82:29:6d:
         c9:e3:7d:9c:54:4e:aa:61:b4:da:bf:6a:b4:50:94:b5:42:ba:
         e8:de:e9:15:f7:2d:de:13:fb:88:91:45:2f:1e:1b:53:a3:be:
         f1:d4:33:69:92:dc:f8:58:69:99:30:fa:09:6f:4b:c4:86:bc:
         76:b8:b7:cf:87:24:b0:72:3d:8e:10:f1:6b:9f:83:bc:42:53:
         8d:95:54:34:7d:dd:95:50:8e:9d:56:fc:89:9b:89:ff:42:8e:
         f8:2a:61:97:4c:f7:8a:b3:27:b7:a0:8f:b8:57:85:ea:b2:04:
         8b:34:50:da:1d:e2:34:75:c4:5b:57:b7:19:7d:84:e1:a8:2e:
         26:8f:af:2d:d6:f4:f0:dc:f5:97:a6:8e:06:9e:47:53:b7:cd:
         80:0c:21:7d:42:b3:05:5b
-----BEGIN CERTIFICATE-----
MIIGrTCCBJWgAwIBAgICFRIwDQYJKoZIhvcNAQEEBQAwgawxCzAJBgNVBAYTAlVT
MQswCQYDVQQIEwJPSDERMA8GA1UEBxMIQ29sdW1idXMxEjAQBgNVBAoTCVZpa2lu
Z1ZQTjEdMBsGA1UECxMUTXlPcmdhbml6YXRpb25hbFVuaXQxFTATBgNVBAMTDFZp
a2luZ1ZQTiBDQTEQMA4GA1UEKRMHRWFzeVJTQTEhMB8GCSqGSIb3DQEJARYSbWVA
bXlob3N0Lm15ZG9tYWluMB4XDTE1MDUyNjIxNTc1OVoXDTI1MDUyMzIxNTc1OVow
HzEdMBsGA1UEAxMUQ2xpZW50MTY1M0NlcnQ1N2QwOWMwggIiMA0GCSqGSIb3DQEB
AQUAA4ICDwAwggIKAoICAQC7W4q2vvi/agmLsrorn2NskqljhO3Hqve7I9xa9nSv
dFyTKa+qgpID5MEt8w1NNHZ3ywTABjjV7LqCEGkOIGb8Tw+qkBDHFHj6VybSfOYx
U9dBrTIoUL0txDXWVm0yIv26TlqW4Tt7jMP32vzkFQiS7Y+EtXcxtTVaY1m+0Z+7
V06AShAkMXFArCH8caKupbA/G9FbUsHYg1qFx1t1E/oA2zfpbw6+GUXDufa/Cf7b
+x72m0Qn+0jG6yr2mIBxdeeRe3BGQ3XncmuflLHCvdQZgq4ZfcLcxblIbmD3OOmJ
0rt9+Kvtl9plr4WazpT9gW5LftMmHX1IFFX3wYiDu2lEMn+p20joPtPp2Grzze27
SA/TXsXu8AZsHEO6IlV4xBKG+P64VacLlfGmXv1nXwAyNgddBc1rqRhXgARNsjLw
8f2UK/GieaIvjTizn2uJp2yqvhP2qgPtUDGINtNa9HOsXqlu75Yl3hT6z4vNQQXy
3GvUaHq4ew/eVMFYKg3l9sIRYnwbsn5+tckM6pbzJnJ9SMEQZ0o91gP+B6dd2GTu
Gsao0TJXnuR7cRqdLJKwdScgVQJk/AuhnqR5J40ULyUv9HMmKCs00u7y1BYECSC6
wicfVTbwYEvCZ5Owkas3KaANDAyVO+abK3PtaVUaazEk4S3onKkybeoHPjI3njQK
nwIDAQABo4IBYzCCAV8wCQYDVR0TBAIwADAtBglghkgBhvhCAQ0EIBYeRWFzeS1S
U0EgR2VuZXJhdGVkIENlcnRpZmljYXRlMB0GA1UdDgQWBBTfY6oYOjACeiURmZyd
tHX6JzehNjCB4QYDVR0jBIHZMIHWgBQSzWAE0qCAnnDtxpm4eyzGUv0ZoaGBsqSB
rzCBrDELMAkGA1UEBhMCVVMxCzAJBgNVBAgTAk9IMREwDwYDVQQHEwhDb2x1bWJ1
czESMBAGA1UEChMJVmlraW5nVlBOMR0wGwYDVQQLExRNeU9yZ2FuaXphdGlvbmFs
VW5pdDEVMBMGA1UEAxMMVmlraW5nVlBOIENBMRAwDgYDVQQpEwdFYXN5UlNBMSEw
HwYJKoZIhvcNAQkBFhJtZUBteWhvc3QubXlkb21haW6CCQDPNYXugL8qPjATBgNV
HSUEDDAKBggrBgEFBQcDAjALBgNVHQ8EBAMCB4AwDQYJKoZIhvcNAQEEBQADggIB
AO4J0AhdSEoNQPjkgoD8ubrMNWhTy+yPur7pAwip6j4/RCau7D1c2M77N3vSYhxo
T82YkXE/4IsZalf8LBPZiWZrXxhACnGRoBUOzGECB6URjZze83Uei5FDFf8RYZE4
uUlICKKd5WyH/qazhSjvT/HqO1J9sE1b651CbvAg6ee1C8x3hfho3V4hCaocDtnw
k5JgKe2wvJvOlmLtaNQPfMIxn3K3epYfm2PpNDrpmYubpairm90ABmKH7glHrFpb
g8c1lgC35QlAKjx6ZJy/cVCR+8mFKoeYESlSkE6JaR2cx9BeOmgYGs2WwKYB0Jy2
wxNp6WCaRBNqkbb7F5anjSc+NC6AM8yZ2jnb5Szdkn+CPR7PiMxL7/KVUO7Y0/Ju
84scrYMY0SNK05G4wGL+jCk53Q85RgXjgKcPAEklCIpCTHhdVTJSdrqQmTkTYGSQ
48jFRoR4OV5tMfpt4U5tv/10Oz9T7YIpbcnjfZxUTqphtNq/arRQlLVCuuje6RX3
Ld4T+4iRRS8eG1OjvvHUM2mS3PhYaZkw+glvS8SGvHa4t8+HJLByPY4Q8Wufg7xC
U42VVDR93ZVQjp1W/Imbif9CjvgqYZdM94qzJ7egj7hXheqyBIs0UNod4jR1xFtX
txl9hOGoLiaPry3W9PDc9ZemjgaeR1O3zYAMIX1CswVb
-----END CERTIFICATE-----
