Certificate:
    Data:
        Version: 3 (0x2)
        Serial Number: 5416 (0x1528)
    Signature Algorithm: md5WithRSAEncryption
        Issuer: C=US, ST=OH, L=Columbus, O=VikingVPN, OU=MyOrganizationalUnit, CN=VikingVPN CA/name=EasyRSA/emailAddress=me@myhost.mydomain
        Validity
            Not Before: May 28 14:48:24 2015 GMT
            Not After : May 25 14:48:24 2025 GMT
        Subject: CN=Client1722Cert227a13
        Subject Public Key Info:
            Public Key Algorithm: rsaEncryption
                Public-Key: (4096 bit)
                Modulus:
                    00:b2:36:49:42:54:d6:b0:1c:7b:24:e4:94:6e:ac:
                    c1:0c:75:50:9e:1c:4c:19:43:bb:91:90:04:c4:32:
                    51:b8:c6:60:57:32:17:28:ac:da:4b:c5:ea:78:e3:
                    0e:de:f7:d0:da:c4:94:73:51:62:c4:a8:93:a4:7e:
                    b1:98:1f:21:a4:ed:69:94:38:18:7d:78:e6:e8:ce:
                    2c:60:a8:29:da:01:77:46:7c:5c:96:73:49:32:ed:
                    7f:b2:c0:44:05:1e:9f:94:f4:0a:18:66:c5:20:91:
                    46:5c:ca:8d:e3:97:9b:07:ce:38:b8:82:bd:e7:01:
                    b9:8e:8d:61:78:b7:cc:83:e7:1e:cf:64:01:3e:94:
                    75:a6:5d:63:c4:f5:ae:7e:14:8d:b3:16:2b:63:32:
                    3e:dc:5b:cf:9d:a7:ee:77:11:11:62:a7:66:ac:45:
                    4a:bc:98:dc:91:be:d9:2b:be:54:0b:1d:07:ca:1c:
                    96:c5:87:d0:bf:4f:6c:8e:c0:7b:b4:d0:da:0d:84:
                    5a:05:9c:c0:c8:7e:1e:97:fe:17:a6:1e:74:fb:67:
                    43:f4:45:e0:4c:8d:80:c2:c0:82:f9:e6:c6:36:f1:
                    cf:89:4d:93:4c:75:7f:ee:f7:03:bd:ac:0d:1c:dd:
                    72:ee:6a:9b:dc:3c:db:d9:a1:f7:91:8c:55:c7:a9:
                    77:b2:02:dd:e4:55:5e:97:28:83:bf:23:cc:d5:d6:
                    18:a2:e3:5e:52:ed:90:44:00:58:9c:a8:a8:2d:e1:
                    29:f1:ff:ca:a6:02:96:f5:c0:8d:ee:32:20:1c:46:
                    1a:27:3e:ca:6d:7d:81:c1:a1:a7:22:56:96:92:de:
                    6d:09:72:0a:3d:c8:65:90:85:12:01:30:c5:f4:1e:
                    74:cb:f5:cf:9b:b8:1c:a8:3e:aa:f4:7b:38:26:01:
                    83:a8:c1:20:12:ef:67:97:a7:38:c1:1b:10:5d:ea:
                    9c:e1:e5:84:ee:b9:d1:d6:77:90:66:16:5a:df:5b:
                    e5:e0:e7:da:aa:4c:7d:a3:0c:1c:4e:a5:65:c3:0c:
                    18:14:a8:6d:8f:f5:ed:e3:9c:5b:d2:2b:76:ef:99:
                    c7:bd:66:ec:aa:7b:ca:a1:cc:5c:52:ad:5a:b6:05:
                    aa:59:38:e1:60:fe:da:7d:45:24:f0:b5:49:8c:34:
                    d3:df:2a:3a:5a:1a:5a:4d:72:85:4e:e6:da:c3:b6:
                    6a:36:1e:e0:c3:8d:ee:f5:84:6c:67:06:67:6e:84:
                    59:57:43:e4:09:f2:b2:9d:d8:af:44:95:7a:b2:11:
                    83:4c:c7:31:38:27:49:52:c7:d4:e4:1f:35:d1:4c:
                    71:f3:1e:73:71:bd:5c:47:3a:37:8e:b9:0b:7e:e4:
                    d7:1c:73
                Exponent: 65537 (0x10001)
        X509v3 extensions:
            X509v3 Basic Constraints: 
                CA:FALSE
            Netscape Comment: 
                Easy-RSA Generated Certificate
            X509v3 Subject Key Identifier: 
                AB:A9:29:CF:26:A7:64:FE:F2:C9:A3:A7:EF:1A:28:EC:D2:BE:0A:7B
            X509v3 Authority Key Identifier: 
                keyid:12:CD:60:04:D2:A0:80:9E:70:ED:C6:99:B8:7B:2C:C6:52:FD:19:A1
                DirName:/C=US/ST=OH/L=Columbus/O=VikingVPN/OU=MyOrganizationalUnit/CN=VikingVPN CA/name=EasyRSA/emailAddress=me@myhost.mydomain
                serial:CF:35:85:EE:80:BF:2A:3E

            X509v3 Extended Key Usage: 
                TLS Web Client Authentication
            X509v3 Key Usage: 
                Digital Signature
    Signature Algorithm: md5WithRSAEncryption
         7c:3a:b5:19:5d:f5:d0:b5:16:1e:32:d9:b0:32:34:70:79:16:
         e9:83:02:11:63:9e:cb:2a:ed:e8:21:a5:3a:d2:ec:d6:8a:ca:
         52:1b:35:d5:3d:57:9a:95:a0:1f:e2:24:7c:b2:12:f6:46:ec:
         98:06:65:a9:76:cb:33:69:e3:dc:be:18:9d:29:cc:b5:7f:74:
         c6:eb:95:db:4e:35:4b:be:23:0f:e2:78:a3:9d:f2:da:3b:50:
         25:af:77:73:4c:2e:9b:7f:2f:50:c8:79:60:a5:45:d2:be:8d:
         25:1c:d2:4c:c2:f9:df:04:4d:60:d9:b7:89:8b:70:e7:c3:36:
         39:36:75:a3:55:f2:6c:24:03:65:80:57:b7:a6:db:f0:b6:30:
         bd:b7:fe:75:ae:b9:fe:8a:bf:25:62:e9:c2:f6:a5:9d:aa:40:
         46:e5:84:49:78:de:88:a7:00:42:d3:48:4b:a9:7f:7e:8c:b8:
         66:d7:4a:ed:43:d2:27:4c:31:94:e2:8c:d0:86:ba:e6:27:3b:
         78:10:2b:8f:d9:fb:77:b6:0b:bb:20:ff:46:80:05:c9:50:6f:
         ac:13:32:7c:e4:7a:2a:72:66:40:63:ea:2f:63:92:cd:b2:6e:
         f2:26:b9:2a:de:fb:49:1d:f8:60:90:9b:a2:4d:69:08:af:97:
         c6:71:6e:20:bb:92:69:b1:76:aa:86:af:8b:f0:97:49:79:65:
         e8:25:b4:8d:83:e3:19:6c:88:13:43:11:75:83:6f:8d:e4:4b:
         7d:eb:78:1e:e6:7e:a0:40:bd:24:e3:55:0e:ab:50:b5:2a:da:
         ef:75:4c:3c:e5:f7:c4:06:e8:6e:9f:18:39:62:8d:49:42:26:
         30:34:69:9b:f1:cd:89:fb:11:e7:7d:3e:b2:bd:1c:7f:2f:d9:
         1a:43:90:2f:9a:bb:14:2c:2c:30:f2:d3:11:c9:65:f3:82:6b:
         51:64:0a:59:80:71:06:8f:9f:75:3a:d5:67:9b:93:4e:ad:e9:
         5e:c6:b6:6e:51:77:b7:8d:2d:f9:2b:d2:60:31:85:40:a2:d2:
         2d:99:1a:6f:37:03:d7:66:c3:c2:a2:e2:bc:1c:f8:29:a6:12:
         65:ac:20:16:d7:5b:ca:91:9e:f0:13:f3:9b:c0:59:80:03:b8:
         59:cd:e6:40:ae:b7:93:c7:d3:8c:3b:27:16:fd:fd:44:55:c1:
         88:13:6f:76:6d:87:2f:de:9a:f1:04:38:6f:a2:b1:cb:2e:8d:
         30:a3:5e:8a:1d:97:0b:d6:03:01:7b:f4:6d:a9:ea:44:f3:d0:
         f1:e3:11:a9:42:a0:bd:c8:7d:40:04:52:dd:6f:bd:47:ec:db:
         da:57:31:39:6d:ec:82:23
-----BEGIN CERTIFICATE-----
MIIGrTCCBJWgAwIBAgICFSgwDQYJKoZIhvcNAQEEBQAwgawxCzAJBgNVBAYTAlVT
MQswCQYDVQQIEwJPSDERMA8GA1UEBxMIQ29sdW1idXMxEjAQBgNVBAoTCVZpa2lu
Z1ZQTjEdMBsGA1UECxMUTXlPcmdhbml6YXRpb25hbFVuaXQxFTATBgNVBAMTDFZp
a2luZ1ZQTiBDQTEQMA4GA1UEKRMHRWFzeVJTQTEhMB8GCSqGSIb3DQEJARYSbWVA
bXlob3N0Lm15ZG9tYWluMB4XDTE1MDUyODE0NDgyNFoXDTI1MDUyNTE0NDgyNFow
HzEdMBsGA1UEAxMUQ2xpZW50MTcyMkNlcnQyMjdhMTMwggIiMA0GCSqGSIb3DQEB
AQUAA4ICDwAwggIKAoICAQCyNklCVNawHHsk5JRurMEMdVCeHEwZQ7uRkATEMlG4
xmBXMhcorNpLxep44w7e99DaxJRzUWLEqJOkfrGYHyGk7WmUOBh9eObozixgqCna
AXdGfFyWc0ky7X+ywEQFHp+U9AoYZsUgkUZcyo3jl5sHzji4gr3nAbmOjWF4t8yD
5x7PZAE+lHWmXWPE9a5+FI2zFitjMj7cW8+dp+53ERFip2asRUq8mNyRvtkrvlQL
HQfKHJbFh9C/T2yOwHu00NoNhFoFnMDIfh6X/hemHnT7Z0P0ReBMjYDCwIL55sY2
8c+JTZNMdX/u9wO9rA0c3XLuapvcPNvZofeRjFXHqXeyAt3kVV6XKIO/I8zV1hii
415S7ZBEAFicqKgt4Snx/8qmApb1wI3uMiAcRhonPsptfYHBoaciVpaS3m0Jcgo9
yGWQhRIBMMX0HnTL9c+buByoPqr0ezgmAYOowSAS72eXpzjBGxBd6pzh5YTuudHW
d5BmFlrfW+Xg59qqTH2jDBxOpWXDDBgUqG2P9e3jnFvSK3bvmce9Zuyqe8qhzFxS
rVq2BapZOOFg/tp9RSTwtUmMNNPfKjpaGlpNcoVO5trDtmo2HuDDje71hGxnBmdu
hFlXQ+QJ8rKd2K9ElXqyEYNMxzE4J0lSx9TkHzXRTHHzHnNxvVxHOjeOuQt+5Ncc
cwIDAQABo4IBYzCCAV8wCQYDVR0TBAIwADAtBglghkgBhvhCAQ0EIBYeRWFzeS1S
U0EgR2VuZXJhdGVkIENlcnRpZmljYXRlMB0GA1UdDgQWBBSrqSnPJqdk/vLJo6fv
Gijs0r4KezCB4QYDVR0jBIHZMIHWgBQSzWAE0qCAnnDtxpm4eyzGUv0ZoaGBsqSB
rzCBrDELMAkGA1UEBhMCVVMxCzAJBgNVBAgTAk9IMREwDwYDVQQHEwhDb2x1bWJ1
czESMBAGA1UEChMJVmlraW5nVlBOMR0wGwYDVQQLExRNeU9yZ2FuaXphdGlvbmFs
VW5pdDEVMBMGA1UEAxMMVmlraW5nVlBOIENBMRAwDgYDVQQpEwdFYXN5UlNBMSEw
HwYJKoZIhvcNAQkBFhJtZUBteWhvc3QubXlkb21haW6CCQDPNYXugL8qPjATBgNV
HSUEDDAKBggrBgEFBQcDAjALBgNVHQ8EBAMCB4AwDQYJKoZIhvcNAQEEBQADggIB
AHw6tRld9dC1Fh4y2bAyNHB5FumDAhFjnssq7eghpTrS7NaKylIbNdU9V5qVoB/i
JHyyEvZG7JgGZal2yzNp49y+GJ0pzLV/dMbrldtONUu+Iw/ieKOd8to7UCWvd3NM
Lpt/L1DIeWClRdK+jSUc0kzC+d8ETWDZt4mLcOfDNjk2daNV8mwkA2WAV7em2/C2
ML23/nWuuf6KvyVi6cL2pZ2qQEblhEl43oinAELTSEupf36MuGbXSu1D0idMMZTi
jNCGuuYnO3gQK4/Z+3e2C7sg/0aABclQb6wTMnzkeipyZkBj6i9jks2ybvImuSre
+0kd+GCQm6JNaQivl8ZxbiC7kmmxdqqGr4vwl0l5ZegltI2D4xlsiBNDEXWDb43k
S33reB7mfqBAvSTjVQ6rULUq2u91TDzl98QG6G6fGDlijUlCJjA0aZvxzYn7Eed9
PrK9HH8v2RpDkC+auxQsLDDy0xHJZfOCa1FkClmAcQaPn3U61Webk06t6V7Gtm5R
d7eNLfkr0mAxhUCi0i2ZGm83A9dmw8Ki4rwc+CmmEmWsIBbXW8qRnvAT85vAWYAD
uFnN5kCut5PH04w7Jxb9/URVwYgTb3Zthy/emvEEOG+iscsujTCjXoodlwvWAwF7
9G2p6kTz0PHjEalCoL3IfUAEUt1vvUfs29pXMTlt7IIj
-----END CERTIFICATE-----
