Certificate:
    Data:
        Version: 3 (0x2)
        Serial Number: 5420 (0x152c)
    Signature Algorithm: md5WithRSAEncryption
        Issuer: C=US, ST=OH, L=Columbus, O=VikingVPN, OU=MyOrganizationalUnit, CN=VikingVPN CA/name=EasyRSA/emailAddress=me@myhost.mydomain
        Validity
            Not Before: May 28 18:35:21 2015 GMT
            Not After : May 25 18:35:21 2025 GMT
        Subject: CN=Client1703Certe42359
        Subject Public Key Info:
            Public Key Algorithm: rsaEncryption
                Public-Key: (4096 bit)
                Modulus:
                    00:b0:fe:c2:ff:07:9a:eb:72:65:1c:c9:9a:c7:1b:
                    56:25:a2:e1:69:3f:f7:7a:aa:2c:a8:a8:eb:86:32:
                    ec:88:62:5d:86:2a:0d:1b:e2:ea:e3:ff:53:5c:95:
                    6b:a0:57:8a:0e:90:26:f1:47:8d:d8:d1:82:50:fa:
                    62:5b:ab:59:30:26:f0:86:1f:46:4f:a1:db:3f:b2:
                    d9:62:7e:24:7b:89:be:3f:f7:23:ab:b7:17:92:db:
                    18:93:8e:65:f5:da:40:be:54:28:84:1d:c5:64:4b:
                    29:94:e5:d0:16:92:a7:87:c9:f8:9f:68:32:18:d0:
                    10:34:39:46:d3:2f:40:c1:a8:89:82:98:63:12:1e:
                    db:b5:83:0a:2f:d8:01:9a:3d:f8:b6:47:39:c8:4d:
                    e8:c3:98:5c:e3:a9:97:e6:e2:2a:c7:ce:1e:86:9a:
                    25:88:71:f6:a4:81:0a:3c:de:1e:34:43:a8:12:68:
                    9d:0d:de:4a:a5:20:e4:17:ff:3b:05:6c:20:41:4d:
                    a6:89:b0:76:9c:04:dc:e6:cf:2f:c1:ad:2f:95:94:
                    26:64:d3:f0:d3:3e:68:2b:8e:ae:c9:82:e4:9e:1f:
                    4b:3a:2c:1e:ae:9d:2e:c5:fc:5a:b3:70:5d:df:d3:
                    76:2e:30:bc:ab:37:5c:4e:b4:0f:40:4c:0a:fb:f2:
                    0b:ac:dd:79:88:eb:0f:95:ac:3a:ed:c4:6e:48:b3:
                    84:73:1a:89:6e:c7:86:ad:95:db:e3:ae:b7:f8:8f:
                    b1:f0:ae:7a:07:ff:dd:c3:2b:6b:4a:22:fd:bf:41:
                    1c:6c:48:89:78:ae:78:78:8e:ed:d9:8d:8d:3b:5e:
                    c4:ae:1a:46:e2:0f:45:e3:17:a1:cb:01:a2:98:30:
                    0a:6c:8a:56:b3:7b:67:5a:34:dd:c6:9f:89:67:df:
                    24:5d:ba:55:f9:f4:3e:99:d7:ce:26:90:0e:4d:0e:
                    30:69:c8:9a:c2:2f:86:81:68:52:33:a0:f3:b6:21:
                    e6:59:e0:4d:c4:65:0b:30:a5:55:e2:93:94:8f:b6:
                    17:ca:bc:0e:f6:46:7f:32:13:2e:69:bf:97:0e:93:
                    da:06:a6:2d:25:09:13:3b:ec:a1:d3:19:0e:e9:4b:
                    76:bc:43:98:02:34:be:07:12:9e:c2:0e:89:c4:0f:
                    99:54:3b:48:04:9b:14:1a:21:ba:ba:3f:36:3e:96:
                    39:a2:3d:73:94:c6:8c:f3:c3:b3:04:78:af:7c:c8:
                    83:52:46:bc:9c:7d:05:2e:bf:e0:f1:e6:dc:6f:da:
                    f8:ff:19:2b:31:b3:6d:dd:99:b3:bf:1f:93:a1:93:
                    ff:7b:2a:ef:ed:1b:d5:d1:c2:9a:a8:72:75:76:5a:
                    cf:fa:97
                Exponent: 65537 (0x10001)
        X509v3 extensions:
            X509v3 Basic Constraints: 
                CA:FALSE
            Netscape Comment: 
                Easy-RSA Generated Certificate
            X509v3 Subject Key Identifier: 
                DA:F3:3A:EF:42:B6:C8:D1:AC:B9:84:F9:4A:3C:D6:1C:4A:0A:C0:2A
            X509v3 Authority Key Identifier: 
                keyid:12:CD:60:04:D2:A0:80:9E:70:ED:C6:99:B8:7B:2C:C6:52:FD:19:A1
                DirName:/C=US/ST=OH/L=Columbus/O=VikingVPN/OU=MyOrganizationalUnit/CN=VikingVPN CA/name=EasyRSA/emailAddress=me@myhost.mydomain
                serial:CF:35:85:EE:80:BF:2A:3E

            X509v3 Extended Key Usage: 
                TLS Web Client Authentication
            X509v3 Key Usage: 
                Digital Signature
    Signature Algorithm: md5WithRSAEncryption
         09:bd:68:ad:c3:ec:bc:b6:bc:8e:ca:57:d6:ce:f3:16:23:32:
         f5:ac:66:54:fe:e5:0a:b5:bb:18:6b:b3:88:43:64:e3:2c:dd:
         4b:3a:d6:de:5d:d4:38:c2:6e:d9:1f:c7:42:5d:3c:fb:0d:61:
         e4:0f:28:6e:40:2d:10:35:75:d8:52:73:d8:0b:dc:10:7e:46:
         eb:27:6d:14:b7:5f:fa:0e:0f:3d:57:b2:9b:6b:3e:7c:0d:a2:
         d3:37:ac:1f:2b:70:de:6d:c2:6a:91:6f:e3:b6:3d:f3:2f:2d:
         d5:e8:4a:2c:57:cd:e5:d4:b3:0d:43:90:dc:25:52:95:8a:a6:
         ab:ed:16:1e:7d:c1:cf:f1:d1:05:5f:95:16:26:e7:d3:ee:49:
         ed:32:db:7e:27:6b:66:6b:d5:50:31:cc:e7:f4:0c:4a:cb:98:
         06:00:bd:df:3f:36:e4:8e:22:b3:63:f3:14:1e:2a:f8:22:19:
         89:1f:1f:aa:99:1d:4e:79:d4:89:08:7c:de:6a:26:d8:50:42:
         6c:9d:6c:d8:85:dc:cd:b3:19:c3:14:9a:4f:a4:cd:21:99:b9:
         07:aa:58:43:52:3e:81:af:97:55:c5:e5:f8:26:67:40:e9:f8:
         3a:e2:fb:0e:61:93:0e:bd:0f:dc:26:ab:bb:6f:4b:6f:b6:7e:
         8c:97:af:b3:cd:41:48:6a:a0:0a:ad:30:b0:46:d2:96:4d:22:
         75:0f:b3:36:d8:33:16:29:82:dc:24:51:c4:97:ff:1e:7b:ac:
         81:c7:ea:6c:b6:8b:99:55:0a:7e:f7:bb:0b:63:a3:07:ca:1a:
         cf:cc:47:70:a2:0b:4c:d2:0a:ff:ad:73:c0:77:1a:5b:0d:59:
         ce:b4:8c:7d:40:2f:0f:08:a0:95:00:ae:a6:c9:57:1b:75:50:
         77:12:04:62:86:3f:1d:0a:29:d1:68:69:be:d0:f9:13:6d:7c:
         d4:1e:37:95:63:6e:f0:41:37:74:86:bd:8b:8e:85:b1:d9:03:
         31:ff:b0:78:31:e3:cc:66:70:18:6e:5e:e9:06:a5:ca:e9:da:
         9c:36:0d:a8:81:29:77:67:96:3d:a6:ff:34:8b:21:47:ec:42:
         c6:f6:48:1f:d5:ae:9b:a5:ef:4c:b1:3d:90:d5:14:47:1e:14:
         b9:d0:ad:91:58:ac:13:2f:d5:2a:26:30:21:5f:ac:84:ee:92:
         3f:89:cd:97:09:37:38:bd:50:04:02:a6:f2:70:a6:fe:6c:95:
         e4:e7:9f:fe:05:f4:20:7d:6e:b5:36:d0:10:70:b5:bb:fa:ab:
         2a:59:a9:bc:85:8a:4e:e1:bb:6d:85:ea:19:9f:8c:3a:a1:4f:
         fc:17:8f:f2:e0:01:54:79
-----BEGIN CERTIFICATE-----
MIIGrTCCBJWgAwIBAgICFSwwDQYJKoZIhvcNAQEEBQAwgawxCzAJBgNVBAYTAlVT
MQswCQYDVQQIEwJPSDERMA8GA1UEBxMIQ29sdW1idXMxEjAQBgNVBAoTCVZpa2lu
Z1ZQTjEdMBsGA1UECxMUTXlPcmdhbml6YXRpb25hbFVuaXQxFTATBgNVBAMTDFZp
a2luZ1ZQTiBDQTEQMA4GA1UEKRMHRWFzeVJTQTEhMB8GCSqGSIb3DQEJARYSbWVA
bXlob3N0Lm15ZG9tYWluMB4XDTE1MDUyODE4MzUyMVoXDTI1MDUyNTE4MzUyMVow
HzEdMBsGA1UEAxMUQ2xpZW50MTcwM0NlcnRlNDIzNTkwggIiMA0GCSqGSIb3DQEB
AQUAA4ICDwAwggIKAoICAQCw/sL/B5rrcmUcyZrHG1YlouFpP/d6qiyoqOuGMuyI
Yl2GKg0b4urj/1NclWugV4oOkCbxR43Y0YJQ+mJbq1kwJvCGH0ZPods/stlifiR7
ib4/9yOrtxeS2xiTjmX12kC+VCiEHcVkSymU5dAWkqeHyfifaDIY0BA0OUbTL0DB
qImCmGMSHtu1gwov2AGaPfi2RznITejDmFzjqZfm4irHzh6GmiWIcfakgQo83h40
Q6gSaJ0N3kqlIOQX/zsFbCBBTaaJsHacBNzmzy/BrS+VlCZk0/DTPmgrjq7JguSe
H0s6LB6unS7F/FqzcF3f03YuMLyrN1xOtA9ATAr78gus3XmI6w+VrDrtxG5Is4Rz
Golux4atldvjrrf4j7HwrnoH/93DK2tKIv2/QRxsSIl4rnh4ju3ZjY07XsSuGkbi
D0XjF6HLAaKYMApsilaze2daNN3Gn4ln3yRdulX59D6Z184mkA5NDjBpyJrCL4aB
aFIzoPO2IeZZ4E3EZQswpVXik5SPthfKvA72Rn8yEy5pv5cOk9oGpi0lCRM77KHT
GQ7pS3a8Q5gCNL4HEp7CDonED5lUO0gEmxQaIbq6PzY+ljmiPXOUxozzw7MEeK98
yINSRrycfQUuv+Dx5txv2vj/GSsxs23dmbO/H5Ohk/97Ku/tG9XRwpqocnV2Ws/6
lwIDAQABo4IBYzCCAV8wCQYDVR0TBAIwADAtBglghkgBhvhCAQ0EIBYeRWFzeS1S
U0EgR2VuZXJhdGVkIENlcnRpZmljYXRlMB0GA1UdDgQWBBTa8zrvQrbI0ay5hPlK
PNYcSgrAKjCB4QYDVR0jBIHZMIHWgBQSzWAE0qCAnnDtxpm4eyzGUv0ZoaGBsqSB
rzCBrDELMAkGA1UEBhMCVVMxCzAJBgNVBAgTAk9IMREwDwYDVQQHEwhDb2x1bWJ1
czESMBAGA1UEChMJVmlraW5nVlBOMR0wGwYDVQQLExRNeU9yZ2FuaXphdGlvbmFs
VW5pdDEVMBMGA1UEAxMMVmlraW5nVlBOIENBMRAwDgYDVQQpEwdFYXN5UlNBMSEw
HwYJKoZIhvcNAQkBFhJtZUBteWhvc3QubXlkb21haW6CCQDPNYXugL8qPjATBgNV
HSUEDDAKBggrBgEFBQcDAjALBgNVHQ8EBAMCB4AwDQYJKoZIhvcNAQEEBQADggIB
AAm9aK3D7Ly2vI7KV9bO8xYjMvWsZlT+5Qq1uxhrs4hDZOMs3Us61t5d1DjCbtkf
x0JdPPsNYeQPKG5ALRA1ddhSc9gL3BB+RusnbRS3X/oODz1XsptrPnwNotM3rB8r
cN5twmqRb+O2PfMvLdXoSixXzeXUsw1DkNwlUpWKpqvtFh59wc/x0QVflRYm59Pu
Se0y234na2Zr1VAxzOf0DErLmAYAvd8/NuSOIrNj8xQeKvgiGYkfH6qZHU551IkI
fN5qJthQQmydbNiF3M2zGcMUmk+kzSGZuQeqWENSPoGvl1XF5fgmZ0Dp+Dri+w5h
kw69D9wmq7tvS2+2foyXr7PNQUhqoAqtMLBG0pZNInUPszbYMxYpgtwkUcSX/x57
rIHH6my2i5lVCn73uwtjowfKGs/MR3CiC0zSCv+tc8B3GlsNWc60jH1ALw8IoJUA
rqbJVxt1UHcSBGKGPx0KKdFoab7Q+RNtfNQeN5VjbvBBN3SGvYuOhbHZAzH/sHgx
48xmcBhuXukGpcrp2pw2DaiBKXdnlj2m/zSLIUfsQsb2SB/Vrpul70yxPZDVFEce
FLnQrZFYrBMv1SomMCFfrITukj+JzZcJNzi9UAQCpvJwpv5sleTnn/4F9CB9brU2
0BBwtbv6qypZqbyFik7hu22F6hmfjDqhT/wXj/LgAVR5
-----END CERTIFICATE-----
