Certificate:
    Data:
        Version: 3 (0x2)
        Serial Number: 5489 (0x1571)
    Signature Algorithm: md5WithRSAEncryption
        Issuer: C=US, ST=OH, L=Columbus, O=VikingVPN, OU=MyOrganizationalUnit, CN=VikingVPN CA/name=EasyRSA/emailAddress=me@myhost.mydomain
        Validity
            Not Before: Jun  6 00:43:50 2015 GMT
            Not After : Jun  3 00:43:50 2025 GMT
        Subject: CN=Client1740Cert16ddee
        Subject Public Key Info:
            Public Key Algorithm: rsaEncryption
                Public-Key: (4096 bit)
                Modulus:
                    00:b9:82:64:16:80:41:b2:ff:d6:3d:9a:b7:b0:ad:
                    af:a3:1c:40:8f:91:a1:26:6c:4e:c1:9e:a3:36:90:
                    23:d8:30:d3:bc:6d:50:03:a4:42:c2:d4:45:83:af:
                    1a:11:f5:9d:d5:be:e5:ea:9d:34:ce:3a:9a:7d:c4:
                    7e:76:44:96:b7:c6:55:0a:3b:bc:00:a1:8f:a6:27:
                    c4:47:20:8f:02:0f:7f:9f:64:bf:f5:46:ea:d7:b0:
                    49:a6:ac:5a:b2:63:ab:b0:ac:18:06:d9:7e:34:f8:
                    40:a1:54:98:b5:3b:53:63:a3:3c:14:b9:a4:1b:79:
                    d8:41:cf:0c:89:5b:b6:07:b6:1a:82:f9:cb:7a:10:
                    d7:7f:d6:99:49:ea:f8:6a:29:14:e3:81:fa:f0:e8:
                    fe:8d:0e:8a:11:9b:34:8e:e6:db:0e:d9:9d:38:b7:
                    52:ee:b7:59:94:94:88:8d:d7:4b:d0:f2:a8:47:0b:
                    33:e9:ab:65:97:c2:24:43:a5:43:62:19:b5:df:cb:
                    dd:66:67:c5:2b:56:c0:cd:23:65:fd:68:f3:88:9b:
                    cd:e1:83:9b:91:da:98:81:7e:10:85:e8:34:bc:fa:
                    4d:f8:81:c6:3b:78:fe:9d:e3:c0:41:dd:7c:27:a1:
                    46:7e:bf:ac:5f:05:5c:5c:70:29:f5:a0:7c:84:33:
                    ae:80:d4:b0:00:94:ec:10:f0:5e:e6:40:5d:f6:c9:
                    58:91:3f:dc:b6:c1:23:c1:ca:23:fb:86:ef:6e:28:
                    c5:74:f9:97:cd:6d:6c:55:49:e7:cd:03:aa:77:22:
                    6a:5a:76:0f:ca:60:4f:0e:a6:7c:b4:d1:d4:37:0d:
                    c9:b3:3f:75:23:7d:f0:9b:70:25:2c:4c:97:f6:28:
                    3e:b3:1c:a4:b5:ad:61:c3:74:3a:a5:77:2e:2f:ed:
                    0f:b6:40:a8:79:13:d2:6a:1e:cc:f7:fe:0b:c2:78:
                    89:f4:42:96:cd:51:29:15:1f:fc:5d:44:be:c4:93:
                    5c:29:f9:b8:fb:19:ba:5f:02:72:94:ea:9a:ad:c6:
                    9e:00:ff:87:cc:88:81:6f:13:b9:b9:92:b7:fc:e8:
                    07:b4:0d:19:bd:27:6a:bb:47:c0:78:d9:77:f5:3f:
                    ed:19:7c:2d:5a:0c:02:a1:f4:0d:72:a2:f8:61:e3:
                    06:63:98:96:0d:9f:53:bf:f4:dd:51:f9:38:b6:6d:
                    99:18:19:97:1a:b5:0c:c9:36:58:36:c6:60:bd:3c:
                    43:78:03:31:fe:d2:4b:c0:17:e7:7c:b1:6d:4f:9a:
                    9e:1c:e8:64:b0:3a:5b:61:91:9e:53:70:f3:05:3e:
                    96:7e:ea:8d:76:5e:f5:27:fd:3e:a5:29:2b:08:dc:
                    5d:92:ef
                Exponent: 65537 (0x10001)
        X509v3 extensions:
            X509v3 Basic Constraints: 
                CA:FALSE
            Netscape Comment: 
                Easy-RSA Generated Certificate
            X509v3 Subject Key Identifier: 
                B5:F3:04:6D:03:E6:B3:D1:FF:32:5C:DA:C6:BB:AA:E4:77:A1:3F:50
            X509v3 Authority Key Identifier: 
                keyid:12:CD:60:04:D2:A0:80:9E:70:ED:C6:99:B8:7B:2C:C6:52:FD:19:A1
                DirName:/C=US/ST=OH/L=Columbus/O=VikingVPN/OU=MyOrganizationalUnit/CN=VikingVPN CA/name=EasyRSA/emailAddress=me@myhost.mydomain
                serial:CF:35:85:EE:80:BF:2A:3E

            X509v3 Extended Key Usage: 
                TLS Web Client Authentication
            X509v3 Key Usage: 
                Digital Signature
    Signature Algorithm: md5WithRSAEncryption
         8c:62:cc:d6:54:c9:62:2a:21:46:4a:9d:cf:4f:93:26:b1:d8:
         59:d8:e6:e3:ac:78:4d:46:55:b2:50:88:7d:85:95:38:4f:10:
         01:97:1b:d9:a9:3f:f5:3d:e1:c8:71:6a:1c:b0:95:90:b6:13:
         47:23:d8:b4:64:c9:41:9d:ac:4e:00:29:9b:a3:bd:79:c0:ae:
         4e:6f:02:77:1b:53:2f:c0:a7:32:7f:f4:58:05:5f:cd:de:54:
         b7:c9:f6:23:45:1c:17:99:94:6a:71:86:a0:fb:5d:85:0f:76:
         0c:a3:4d:a1:b4:3e:c1:92:23:2e:7e:82:34:f7:85:32:a4:41:
         66:23:44:f0:0f:04:fd:02:74:32:7d:e6:0f:f1:ab:14:93:76:
         15:ee:d4:56:30:de:95:a5:66:cf:ab:c3:79:37:b8:86:6a:e1:
         d2:19:23:26:ba:7d:61:92:df:86:7b:3d:e8:08:19:91:e4:ef:
         42:4a:4b:c2:2c:5e:bb:c1:8f:55:9c:83:2b:09:a4:5f:cb:bc:
         24:4a:a4:ee:cc:ff:7f:b2:ab:d9:f2:a9:f9:18:14:ac:c3:13:
         42:cf:26:1b:cf:c4:c5:86:17:72:92:8a:54:9c:9d:91:a6:a6:
         72:e6:29:c2:f5:35:7e:38:6d:20:e5:e7:dc:fe:e6:1e:cd:e3:
         8e:6e:35:8b:01:5b:ae:f2:c3:1d:2a:69:37:79:df:70:4f:1f:
         66:ae:e6:a2:21:c7:ab:8c:bb:11:6d:dd:e3:06:25:d3:e3:8b:
         33:a2:8f:38:ff:85:bb:c7:33:0c:b8:5a:37:53:f3:06:ea:6f:
         96:ba:39:d5:10:54:c8:e7:1b:de:25:31:fd:df:32:67:ff:0c:
         53:fa:50:31:91:9e:14:c1:46:ac:8c:54:d2:87:9a:ef:f0:de:
         27:cd:2a:c4:88:13:bc:d0:7b:41:7b:ab:87:c4:29:79:3c:8c:
         f6:31:1d:84:c1:42:53:2f:e9:ae:b1:9a:dd:92:f4:c2:f8:f6:
         5b:49:05:83:4d:c7:7c:b1:40:f1:87:72:29:b2:c7:a7:df:e4:
         59:db:0e:e4:b9:e4:36:69:7d:1d:a7:c8:d2:d0:60:9e:4d:3a:
         d9:5a:b0:d0:6c:02:04:06:3a:c1:0e:ad:dd:4f:51:cb:2d:d7:
         2c:64:c7:ed:0a:88:7f:c7:c2:fc:1d:cb:72:f3:56:54:10:23:
         0e:e4:f2:62:48:fc:28:2b:a9:96:48:03:7a:24:e4:76:c2:c9:
         56:66:d3:81:0f:c9:4b:f9:c3:25:14:a8:85:be:8f:2e:b2:a7:
         df:45:34:31:d9:1b:d4:f0:0e:de:0c:c5:7e:f7:7e:12:d6:e9:
         27:1c:19:43:f9:ca:2f:c7
-----BEGIN CERTIFICATE-----
MIIGrTCCBJWgAwIBAgICFXEwDQYJKoZIhvcNAQEEBQAwgawxCzAJBgNVBAYTAlVT
MQswCQYDVQQIEwJPSDERMA8GA1UEBxMIQ29sdW1idXMxEjAQBgNVBAoTCVZpa2lu
Z1ZQTjEdMBsGA1UECxMUTXlPcmdhbml6YXRpb25hbFVuaXQxFTATBgNVBAMTDFZp
a2luZ1ZQTiBDQTEQMA4GA1UEKRMHRWFzeVJTQTEhMB8GCSqGSIb3DQEJARYSbWVA
bXlob3N0Lm15ZG9tYWluMB4XDTE1MDYwNjAwNDM1MFoXDTI1MDYwMzAwNDM1MFow
HzEdMBsGA1UEAxMUQ2xpZW50MTc0MENlcnQxNmRkZWUwggIiMA0GCSqGSIb3DQEB
AQUAA4ICDwAwggIKAoICAQC5gmQWgEGy/9Y9mrewra+jHECPkaEmbE7BnqM2kCPY
MNO8bVADpELC1EWDrxoR9Z3VvuXqnTTOOpp9xH52RJa3xlUKO7wAoY+mJ8RHII8C
D3+fZL/1RurXsEmmrFqyY6uwrBgG2X40+EChVJi1O1NjozwUuaQbedhBzwyJW7YH
thqC+ct6ENd/1plJ6vhqKRTjgfrw6P6NDooRmzSO5tsO2Z04t1Lut1mUlIiN10vQ
8qhHCzPpq2WXwiRDpUNiGbXfy91mZ8UrVsDNI2X9aPOIm83hg5uR2piBfhCF6DS8
+k34gcY7eP6d48BB3XwnoUZ+v6xfBVxccCn1oHyEM66A1LAAlOwQ8F7mQF32yViR
P9y2wSPByiP7hu9uKMV0+ZfNbWxVSefNA6p3Impadg/KYE8Opny00dQ3DcmzP3Uj
ffCbcCUsTJf2KD6zHKS1rWHDdDqldy4v7Q+2QKh5E9JqHsz3/gvCeIn0QpbNUSkV
H/xdRL7Ek1wp+bj7GbpfAnKU6pqtxp4A/4fMiIFvE7m5krf86Ae0DRm9J2q7R8B4
2Xf1P+0ZfC1aDAKh9A1yovhh4wZjmJYNn1O/9N1R+Ti2bZkYGZcatQzJNlg2xmC9
PEN4AzH+0kvAF+d8sW1Pmp4c6GSwOlthkZ5TcPMFPpZ+6o12XvUn/T6lKSsI3F2S
7wIDAQABo4IBYzCCAV8wCQYDVR0TBAIwADAtBglghkgBhvhCAQ0EIBYeRWFzeS1S
U0EgR2VuZXJhdGVkIENlcnRpZmljYXRlMB0GA1UdDgQWBBS18wRtA+az0f8yXNrG
u6rkd6E/UDCB4QYDVR0jBIHZMIHWgBQSzWAE0qCAnnDtxpm4eyzGUv0ZoaGBsqSB
rzCBrDELMAkGA1UEBhMCVVMxCzAJBgNVBAgTAk9IMREwDwYDVQQHEwhDb2x1bWJ1
czESMBAGA1UEChMJVmlraW5nVlBOMR0wGwYDVQQLExRNeU9yZ2FuaXphdGlvbmFs
VW5pdDEVMBMGA1UEAxMMVmlraW5nVlBOIENBMRAwDgYDVQQpEwdFYXN5UlNBMSEw
HwYJKoZIhvcNAQkBFhJtZUBteWhvc3QubXlkb21haW6CCQDPNYXugL8qPjATBgNV
HSUEDDAKBggrBgEFBQcDAjALBgNVHQ8EBAMCB4AwDQYJKoZIhvcNAQEEBQADggIB
AIxizNZUyWIqIUZKnc9Pkyax2FnY5uOseE1GVbJQiH2FlThPEAGXG9mpP/U94chx
ahywlZC2E0cj2LRkyUGdrE4AKZujvXnArk5vAncbUy/ApzJ/9FgFX83eVLfJ9iNF
HBeZlGpxhqD7XYUPdgyjTaG0PsGSIy5+gjT3hTKkQWYjRPAPBP0CdDJ95g/xqxST
dhXu1FYw3pWlZs+rw3k3uIZq4dIZIya6fWGS34Z7PegIGZHk70JKS8IsXrvBj1Wc
gysJpF/LvCRKpO7M/3+yq9nyqfkYFKzDE0LPJhvPxMWGF3KSilScnZGmpnLmKcL1
NX44bSDl59z+5h7N445uNYsBW67ywx0qaTd533BPH2au5qIhx6uMuxFt3eMGJdPj
izOijzj/hbvHMwy4WjdT8wbqb5a6OdUQVMjnG94lMf3fMmf/DFP6UDGRnhTBRqyM
VNKHmu/w3ifNKsSIE7zQe0F7q4fEKXk8jPYxHYTBQlMv6a6xmt2S9ML49ltJBYNN
x3yxQPGHcimyx6ff5FnbDuS55DZpfR2nyNLQYJ5NOtlasNBsAgQGOsEOrd1PUcst
1yxkx+0KiH/Hwvwdy3LzVlQQIw7k8mJI/CgrqZZIA3ok5HbCyVZm04EPyUv5wyUU
qIW+jy6yp99FNDHZG9TwDt4MxX73fhLW6SccGUP5yi/H
-----END CERTIFICATE-----
