Certificate:
    Data:
        Version: 3 (0x2)
        Serial Number: 5508 (0x1584)
    Signature Algorithm: md5WithRSAEncryption
        Issuer: C=US, ST=OH, L=Columbus, O=VikingVPN, OU=MyOrganizationalUnit, CN=VikingVPN CA/name=EasyRSA/emailAddress=me@myhost.mydomain
        Validity
            Not Before: Jun  7 17:54:15 2015 GMT
            Not After : Jun  4 17:54:15 2025 GMT
        Subject: CN=Client1364Cert35913e
        Subject Public Key Info:
            Public Key Algorithm: rsaEncryption
                Public-Key: (4096 bit)
                Modulus:
                    00:b8:b0:5a:b3:f8:e2:c4:88:09:47:d3:12:2d:71:
                    73:b4:f0:12:2f:75:91:65:1e:98:bc:14:1d:fe:f2:
                    c5:a0:4b:96:e1:c3:51:c4:34:e8:55:f1:79:fd:b6:
                    94:35:aa:98:66:97:58:f6:59:47:a0:6f:71:f0:14:
                    e1:e0:a1:c0:3b:18:46:34:2f:09:f8:8d:f9:d6:a9:
                    78:fe:bd:0c:08:fe:5e:19:86:2f:98:2c:57:64:57:
                    3d:98:63:93:8b:38:29:29:ac:b6:7f:51:bf:9f:da:
                    71:c1:a7:6b:51:4c:0b:29:38:fd:0a:ca:58:ab:d3:
                    93:fe:0f:af:e0:f9:2e:f0:c3:8c:09:4f:88:e6:ab:
                    8d:5a:27:94:61:8e:43:bf:e5:ca:65:88:ec:f1:7c:
                    eb:f7:95:5a:aa:60:aa:28:65:6d:4c:f8:08:5e:5d:
                    4e:c9:20:f5:22:94:7a:4d:a6:6c:6e:30:c2:de:a7:
                    69:fa:ee:3b:5b:f2:94:a0:f6:e4:22:ea:2c:d4:58:
                    29:17:a2:88:d4:f1:3d:03:dd:03:33:de:ba:bb:b0:
                    ba:bd:99:9a:e7:44:35:43:7f:34:f0:96:5a:cc:e1:
                    e5:4c:84:31:4a:a0:a2:4a:5f:be:71:02:97:41:e4:
                    8e:5b:08:da:b9:44:56:f5:89:d4:a2:82:9c:41:49:
                    f6:16:c3:8f:fc:72:c8:a8:a0:79:9f:88:e9:b2:58:
                    de:59:ed:bc:63:f3:4f:37:58:53:83:5e:62:36:af:
                    e8:9d:72:5b:de:bd:82:27:0e:81:d5:06:36:65:29:
                    8c:4a:10:c6:cd:f8:8c:15:c7:6a:36:f9:d3:6a:1b:
                    5c:b9:9e:ec:2a:82:bf:58:f4:1c:93:99:0e:02:33:
                    e1:a7:d0:b6:6c:48:37:6f:c1:8b:dd:54:8d:49:6a:
                    94:b5:9c:69:89:59:8d:fa:31:b7:42:7e:66:e3:01:
                    fa:5b:eb:b4:b6:c1:d2:e8:24:30:3d:38:09:84:0f:
                    7f:23:06:98:b5:30:48:6f:2a:96:86:93:11:4b:a1:
                    f3:d7:50:d6:4b:f6:7c:c5:dd:dd:44:bd:68:ce:f3:
                    c3:e1:c3:66:58:70:3f:0d:ae:bc:b7:29:78:fc:37:
                    ce:f4:f0:d4:d5:be:2e:a6:0f:8d:aa:50:22:c1:51:
                    80:60:89:74:f4:89:9f:6c:a7:79:51:e5:10:20:46:
                    6f:9a:fb:b1:8f:71:e4:1f:b6:67:7d:57:fc:db:1f:
                    4e:54:f3:d3:3a:e0:93:47:2a:73:dd:68:57:b2:a7:
                    e0:de:46:71:8d:36:ea:b0:50:ee:d9:43:7a:5c:bb:
                    cc:71:8b:c1:61:6b:60:ca:6c:03:81:99:9a:99:b6:
                    b1:58:f1
                Exponent: 65537 (0x10001)
        X509v3 extensions:
            X509v3 Basic Constraints: 
                CA:FALSE
            Netscape Comment: 
                Easy-RSA Generated Certificate
            X509v3 Subject Key Identifier: 
                35:DA:9A:98:EF:B5:91:E6:1D:27:14:F2:87:13:6E:DE:24:7B:46:1B
            X509v3 Authority Key Identifier: 
                keyid:12:CD:60:04:D2:A0:80:9E:70:ED:C6:99:B8:7B:2C:C6:52:FD:19:A1
                DirName:/C=US/ST=OH/L=Columbus/O=VikingVPN/OU=MyOrganizationalUnit/CN=VikingVPN CA/name=EasyRSA/emailAddress=me@myhost.mydomain
                serial:CF:35:85:EE:80:BF:2A:3E

            X509v3 Extended Key Usage: 
                TLS Web Client Authentication
            X509v3 Key Usage: 
                Digital Signature
    Signature Algorithm: md5WithRSAEncryption
         2d:76:ac:76:43:49:69:4f:d0:ba:17:88:56:ee:1d:ac:0a:23:
         d6:5b:03:ec:e0:d5:0f:84:66:bc:6f:15:f4:e5:cb:4e:08:ec:
         e5:11:9c:c3:b9:3e:da:e5:50:f3:c7:55:5b:3a:19:a8:62:a8:
         17:cf:ba:4d:e4:3a:d8:40:92:c6:b8:94:fd:c1:27:71:8d:ff:
         ce:a7:c5:f5:37:35:7b:f5:f9:d9:f8:ba:50:c6:da:7a:83:ef:
         c3:dc:4a:95:03:a0:62:5f:07:eb:49:d4:08:0a:8a:cd:02:8b:
         40:48:0f:e3:a1:32:63:22:79:e3:f1:55:33:ca:05:02:82:07:
         c0:2d:6b:65:ff:e8:97:e5:03:7b:a3:09:01:a9:0d:10:ab:51:
         c7:82:cc:f5:ec:7f:45:77:59:dd:80:05:3f:d5:f5:ec:07:66:
         8e:f6:0c:3c:19:e3:4f:1e:1b:22:81:f5:25:dd:fb:8a:79:4b:
         ed:5a:33:b4:02:1a:0f:fa:ce:ce:f1:cb:6b:78:cf:9f:e2:1b:
         ca:7f:4f:6b:5f:f0:63:74:56:51:c6:3d:f3:ff:ec:4f:9c:82:
         04:a2:0c:0c:52:b6:3c:8b:db:80:87:e6:23:80:cb:ad:5e:c1:
         e8:b3:4e:4f:a6:dd:1b:8b:47:71:fc:57:80:ee:50:a0:d5:dc:
         57:8c:7e:0b:63:af:41:c2:00:06:c2:c0:0f:74:ae:c3:97:62:
         21:19:f2:11:d1:a8:45:ae:3d:cc:62:6e:84:fb:ac:f6:98:10:
         0c:06:16:e9:de:a9:dd:59:69:08:ad:ee:c8:9e:00:d1:b3:37:
         13:90:43:50:3c:3e:11:18:4d:18:e7:ee:bc:8d:ae:4b:d5:c9:
         50:0a:60:5b:da:9b:ff:62:0c:7f:78:49:1c:6a:a1:02:5f:89:
         ce:67:52:a5:55:81:61:d1:81:ed:fc:6b:6c:6f:e5:84:fa:4f:
         24:77:89:de:ee:93:75:61:c6:d1:48:6a:72:82:b4:5a:81:f5:
         8d:2b:4a:16:fe:83:73:18:b6:77:41:34:31:54:b5:24:74:67:
         0a:0d:5c:3f:6a:cd:2d:a0:56:69:29:3a:7b:39:32:a5:2a:53:
         24:b4:49:d8:7d:27:54:54:c0:c4:35:bc:97:6c:09:73:e9:3f:
         86:a8:e5:aa:bd:7c:5f:4f:d5:b6:bc:10:35:71:09:e1:ad:ce:
         b0:d4:6a:2c:6b:b5:b1:05:20:76:68:61:e7:e2:8c:84:8f:b5:
         9d:96:53:2f:17:e5:5c:17:05:b4:f9:02:39:ba:2c:e0:bd:e3:
         37:6f:2a:a2:bb:54:39:b2:45:22:3d:cf:01:b1:15:05:b3:10:
         a0:71:e5:d9:b5:64:05:93
-----BEGIN CERTIFICATE-----
MIIGrTCCBJWgAwIBAgICFYQwDQYJKoZIhvcNAQEEBQAwgawxCzAJBgNVBAYTAlVT
MQswCQYDVQQIEwJPSDERMA8GA1UEBxMIQ29sdW1idXMxEjAQBgNVBAoTCVZpa2lu
Z1ZQTjEdMBsGA1UECxMUTXlPcmdhbml6YXRpb25hbFVuaXQxFTATBgNVBAMTDFZp
a2luZ1ZQTiBDQTEQMA4GA1UEKRMHRWFzeVJTQTEhMB8GCSqGSIb3DQEJARYSbWVA
bXlob3N0Lm15ZG9tYWluMB4XDTE1MDYwNzE3NTQxNVoXDTI1MDYwNDE3NTQxNVow
HzEdMBsGA1UEAxMUQ2xpZW50MTM2NENlcnQzNTkxM2UwggIiMA0GCSqGSIb3DQEB
AQUAA4ICDwAwggIKAoICAQC4sFqz+OLEiAlH0xItcXO08BIvdZFlHpi8FB3+8sWg
S5bhw1HENOhV8Xn9tpQ1qphml1j2WUegb3HwFOHgocA7GEY0Lwn4jfnWqXj+vQwI
/l4Zhi+YLFdkVz2YY5OLOCkprLZ/Ub+f2nHBp2tRTAspOP0Kylir05P+D6/g+S7w
w4wJT4jmq41aJ5RhjkO/5cpliOzxfOv3lVqqYKooZW1M+AheXU7JIPUilHpNpmxu
MMLep2n67jtb8pSg9uQi6izUWCkXoojU8T0D3QMz3rq7sLq9mZrnRDVDfzTwllrM
4eVMhDFKoKJKX75xApdB5I5bCNq5RFb1idSigpxBSfYWw4/8csiooHmfiOmyWN5Z
7bxj8083WFODXmI2r+idclvevYInDoHVBjZlKYxKEMbN+IwVx2o2+dNqG1y5nuwq
gr9Y9ByTmQ4CM+Gn0LZsSDdvwYvdVI1JapS1nGmJWY36MbdCfmbjAfpb67S2wdLo
JDA9OAmED38jBpi1MEhvKpaGkxFLofPXUNZL9nzF3d1EvWjO88Phw2ZYcD8Nrry3
KXj8N8708NTVvi6mD42qUCLBUYBgiXT0iZ9sp3lR5RAgRm+a+7GPceQftmd9V/zb
H05U89M64JNHKnPdaFeyp+DeRnGNNuqwUO7ZQ3pcu8xxi8Fha2DKbAOBmZqZtrFY
8QIDAQABo4IBYzCCAV8wCQYDVR0TBAIwADAtBglghkgBhvhCAQ0EIBYeRWFzeS1S
U0EgR2VuZXJhdGVkIENlcnRpZmljYXRlMB0GA1UdDgQWBBQ12pqY77WR5h0nFPKH
E27eJHtGGzCB4QYDVR0jBIHZMIHWgBQSzWAE0qCAnnDtxpm4eyzGUv0ZoaGBsqSB
rzCBrDELMAkGA1UEBhMCVVMxCzAJBgNVBAgTAk9IMREwDwYDVQQHEwhDb2x1bWJ1
czESMBAGA1UEChMJVmlraW5nVlBOMR0wGwYDVQQLExRNeU9yZ2FuaXphdGlvbmFs
VW5pdDEVMBMGA1UEAxMMVmlraW5nVlBOIENBMRAwDgYDVQQpEwdFYXN5UlNBMSEw
HwYJKoZIhvcNAQkBFhJtZUBteWhvc3QubXlkb21haW6CCQDPNYXugL8qPjATBgNV
HSUEDDAKBggrBgEFBQcDAjALBgNVHQ8EBAMCB4AwDQYJKoZIhvcNAQEEBQADggIB
AC12rHZDSWlP0LoXiFbuHawKI9ZbA+zg1Q+EZrxvFfTly04I7OURnMO5PtrlUPPH
VVs6GahiqBfPuk3kOthAksa4lP3BJ3GN/86nxfU3NXv1+dn4ulDG2nqD78PcSpUD
oGJfB+tJ1AgKis0Ci0BID+OhMmMieePxVTPKBQKCB8Ata2X/6JflA3ujCQGpDRCr
UceCzPXsf0V3Wd2ABT/V9ewHZo72DDwZ408eGyKB9SXd+4p5S+1aM7QCGg/6zs7x
y2t4z5/iG8p/T2tf8GN0VlHGPfP/7E+cggSiDAxStjyL24CH5iOAy61eweizTk+m
3RuLR3H8V4DuUKDV3FeMfgtjr0HCAAbCwA90rsOXYiEZ8hHRqEWuPcxiboT7rPaY
EAwGFuneqd1ZaQit7sieANGzNxOQQ1A8PhEYTRjn7ryNrkvVyVAKYFvam/9iDH94
SRxqoQJfic5nUqVVgWHRge38a2xv5YT6TyR3id7uk3VhxtFIanKCtFqB9Y0rShb+
g3MYtndBNDFUtSR0ZwoNXD9qzS2gVmkpOns5MqUqUyS0Sdh9J1RUwMQ1vJdsCXPp
P4ao5aq9fF9P1ba8EDVxCeGtzrDUaixrtbEFIHZoYefijISPtZ2WUy8X5VwXBbT5
Ajm6LOC94zdvKqK7VDmyRSI9zwGxFQWzEKBx5dm1ZAWT
-----END CERTIFICATE-----
