Certificate:
    Data:
        Version: 3 (0x2)
        Serial Number: 5515 (0x158b)
    Signature Algorithm: md5WithRSAEncryption
        Issuer: C=US, ST=OH, L=Columbus, O=VikingVPN, OU=MyOrganizationalUnit, CN=VikingVPN CA/name=EasyRSA/emailAddress=me@myhost.mydomain
        Validity
            Not Before: Jun  9 10:29:24 2015 GMT
            Not After : Jun  6 10:29:24 2025 GMT
        Subject: CN=Client1619Cert7f2e31
        Subject Public Key Info:
            Public Key Algorithm: rsaEncryption
                Public-Key: (4096 bit)
                Modulus:
                    00:cd:4f:9c:5f:b2:4a:03:a8:01:0b:d7:15:6e:26:
                    6e:6f:60:2b:70:4d:2f:72:3d:bd:7e:5f:0a:07:80:
                    4a:0d:7f:39:18:23:2f:38:ab:70:20:b6:63:a9:52:
                    ed:42:24:6d:c6:3f:79:c0:81:89:44:5c:44:5e:ce:
                    10:78:0e:28:01:01:fc:f2:44:ee:1a:62:9a:1d:29:
                    7b:0a:94:ca:73:52:a0:49:ca:ad:fb:fe:73:3c:3a:
                    1f:84:78:2c:f4:e9:7f:74:e4:bf:c7:c3:b2:2d:57:
                    0a:76:53:91:14:7f:74:44:a2:62:ec:39:fd:3d:43:
                    d2:71:39:39:31:dd:3a:13:a0:94:72:cc:73:51:04:
                    b8:c0:33:c1:71:5c:72:d9:10:68:a6:c2:13:92:60:
                    8d:0f:43:48:95:03:8e:52:06:ac:4a:7f:e6:0c:e4:
                    18:d5:c0:65:79:50:0c:5c:eb:8f:5b:ae:05:ef:0d:
                    53:a7:d3:bc:b9:62:3a:ff:e3:e1:ff:9a:df:11:4a:
                    d1:45:a9:71:53:e4:ce:fc:66:32:76:ea:3f:96:b5:
                    91:ab:9c:f9:9e:83:d0:9e:67:dd:ed:1c:35:7d:61:
                    0b:07:e7:11:03:b1:56:04:8f:7b:74:c0:eb:35:49:
                    04:12:a2:13:1d:f8:72:7c:f6:50:0e:54:88:f5:cc:
                    11:b8:4c:5c:b4:c0:3c:50:14:e4:b2:04:ab:21:38:
                    63:c6:de:50:61:e0:04:8d:0b:af:39:6a:6d:a1:01:
                    64:93:79:cc:6d:7f:fb:c7:f7:94:97:f1:33:a0:dd:
                    7e:07:7b:59:99:a5:d7:a3:84:76:31:2e:8c:1d:3a:
                    2c:fb:62:37:38:7e:10:aa:7f:b5:5d:b0:5b:4d:59:
                    99:60:a6:3f:18:d4:12:72:70:35:38:da:a6:91:da:
                    91:e3:8b:60:9d:b5:cd:2b:5c:77:61:ec:ac:57:10:
                    66:08:68:ce:e6:eb:df:98:f8:00:8e:75:97:20:90:
                    c8:a5:96:0c:e2:d0:f5:db:93:bc:e5:35:35:61:f9:
                    d0:df:d7:ac:2a:04:e5:61:c7:8f:3c:d3:c6:c6:6c:
                    b0:8b:1f:48:d2:30:40:ec:b8:27:8a:c5:29:6a:5c:
                    2c:0d:f3:e8:5e:54:c2:03:43:2b:a8:69:eb:65:ac:
                    2c:20:8d:19:9f:9e:cd:85:63:69:30:d2:6b:61:9f:
                    fe:2e:db:eb:df:f8:95:e9:78:85:66:04:14:eb:13:
                    9d:59:ec:02:62:ef:a0:4b:7a:b2:ea:15:5e:16:12:
                    cc:d6:5f:6a:30:01:7b:52:66:f7:63:54:44:8e:3d:
                    81:99:9b:6f:61:56:89:b1:c4:8d:58:d2:63:1b:2b:
                    c5:ae:05
                Exponent: 65537 (0x10001)
        X509v3 extensions:
            X509v3 Basic Constraints: 
                CA:FALSE
            Netscape Comment: 
                Easy-RSA Generated Certificate
            X509v3 Subject Key Identifier: 
                50:05:C2:10:5E:33:F7:B4:A7:A0:E3:03:04:3F:05:6D:50:88:38:A0
            X509v3 Authority Key Identifier: 
                keyid:12:CD:60:04:D2:A0:80:9E:70:ED:C6:99:B8:7B:2C:C6:52:FD:19:A1
                DirName:/C=US/ST=OH/L=Columbus/O=VikingVPN/OU=MyOrganizationalUnit/CN=VikingVPN CA/name=EasyRSA/emailAddress=me@myhost.mydomain
                serial:CF:35:85:EE:80:BF:2A:3E

            X509v3 Extended Key Usage: 
                TLS Web Client Authentication
            X509v3 Key Usage: 
                Digital Signature
    Signature Algorithm: md5WithRSAEncryption
         ec:5b:e1:d2:0c:a9:3c:34:61:9c:b1:c2:85:49:b8:47:2c:dd:
         1c:f7:ec:02:a5:6e:97:f6:d3:a6:3e:68:d4:c6:55:79:39:dc:
         73:0e:2a:10:cb:44:ab:3f:42:21:99:65:ef:58:6c:94:bf:71:
         77:ab:75:ac:dc:1c:3d:66:9d:81:01:51:8a:0e:c9:fb:e0:1c:
         f8:82:7b:6c:43:32:35:a5:e0:9a:16:a0:8d:1c:0c:f1:49:66:
         be:3c:aa:ed:cf:02:49:82:be:01:fa:a4:f3:7e:6f:70:0b:9f:
         63:33:8b:58:34:89:5b:87:f5:ba:00:5c:62:7a:09:0a:b1:43:
         24:3c:1f:0e:ac:64:61:59:ae:ae:b9:08:a6:01:ee:f9:03:bd:
         d7:54:a2:41:04:77:9a:66:81:b2:86:52:02:d9:f8:3e:d3:75:
         2f:4a:ee:21:c6:e4:9a:fb:c1:e5:d9:6c:54:13:dd:08:58:c1:
         bb:d0:51:42:32:ff:a0:5c:9e:b9:61:79:11:b4:26:f6:c5:97:
         f4:29:06:9c:90:df:8f:9c:af:9c:41:7f:20:fe:11:fb:c9:cf:
         66:02:00:cc:de:95:62:56:4c:80:9e:ed:4d:82:80:04:64:17:
         0a:29:f8:b7:3f:3b:cc:09:41:7e:63:3b:1d:ec:db:d1:e7:c2:
         7f:78:bc:22:87:d9:e1:97:6b:72:39:5a:9e:31:e1:ab:a2:32:
         97:cd:35:64:7b:ec:5d:8a:34:17:0a:70:6a:97:f5:e8:89:da:
         96:52:45:21:df:51:3b:1f:b9:cb:95:04:ac:4a:94:c1:0e:b5:
         dd:4c:f9:97:a5:3e:88:f6:5e:f9:22:3b:c7:50:54:62:80:d4:
         57:9d:dd:b7:9a:57:2a:49:f8:6d:be:0e:0e:56:8a:de:c0:44:
         5d:ab:2a:59:d7:1d:17:49:9a:a3:cf:57:89:a7:ee:4f:74:15:
         b3:17:13:b0:32:57:c5:3e:24:76:9f:c0:3c:3d:5f:16:fc:c9:
         3f:6e:d1:d0:ae:11:1e:3e:e8:ca:4d:5e:c0:26:fe:48:14:f0:
         08:91:1d:2d:e0:76:a5:f5:0c:e9:60:b6:5e:f7:07:5c:18:c0:
         f1:4a:f6:31:30:60:0f:fc:b3:0a:cb:14:6f:4c:6e:01:23:25:
         5c:b4:45:35:24:76:d1:70:56:6b:05:99:94:a6:e8:86:9e:5d:
         0d:7d:c1:e5:54:b0:70:db:1d:5e:69:9b:1d:f2:fc:a0:b6:1a:
         8b:da:ef:fd:e8:63:28:37:4c:e3:a2:cd:69:21:e7:1e:02:26:
         97:f8:6d:09:34:cd:1d:a6:1e:b0:b8:d6:18:cc:e4:9a:e1:17:
         ec:97:cb:48:bb:2c:f5:53
-----BEGIN CERTIFICATE-----
MIIGrTCCBJWgAwIBAgICFYswDQYJKoZIhvcNAQEEBQAwgawxCzAJBgNVBAYTAlVT
MQswCQYDVQQIEwJPSDERMA8GA1UEBxMIQ29sdW1idXMxEjAQBgNVBAoTCVZpa2lu
Z1ZQTjEdMBsGA1UECxMUTXlPcmdhbml6YXRpb25hbFVuaXQxFTATBgNVBAMTDFZp
a2luZ1ZQTiBDQTEQMA4GA1UEKRMHRWFzeVJTQTEhMB8GCSqGSIb3DQEJARYSbWVA
bXlob3N0Lm15ZG9tYWluMB4XDTE1MDYwOTEwMjkyNFoXDTI1MDYwNjEwMjkyNFow
HzEdMBsGA1UEAxMUQ2xpZW50MTYxOUNlcnQ3ZjJlMzEwggIiMA0GCSqGSIb3DQEB
AQUAA4ICDwAwggIKAoICAQDNT5xfskoDqAEL1xVuJm5vYCtwTS9yPb1+XwoHgEoN
fzkYIy84q3AgtmOpUu1CJG3GP3nAgYlEXERezhB4DigBAfzyRO4aYpodKXsKlMpz
UqBJyq37/nM8Oh+EeCz06X905L/Hw7ItVwp2U5EUf3REomLsOf09Q9JxOTkx3ToT
oJRyzHNRBLjAM8FxXHLZEGimwhOSYI0PQ0iVA45SBqxKf+YM5BjVwGV5UAxc649b
rgXvDVOn07y5Yjr/4+H/mt8RStFFqXFT5M78ZjJ26j+WtZGrnPmeg9CeZ93tHDV9
YQsH5xEDsVYEj3t0wOs1SQQSohMd+HJ89lAOVIj1zBG4TFy0wDxQFOSyBKshOGPG
3lBh4ASNC685am2hAWSTecxtf/vH95SX8TOg3X4He1mZpdejhHYxLowdOiz7Yjc4
fhCqf7VdsFtNWZlgpj8Y1BJycDU42qaR2pHji2Cdtc0rXHdh7KxXEGYIaM7m69+Y
+ACOdZcgkMillgzi0PXbk7zlNTVh+dDf16wqBOVhx48808bGbLCLH0jSMEDsuCeK
xSlqXCwN8+heVMIDQyuoaetlrCwgjRmfns2FY2kw0mthn/4u2+vf+JXpeIVmBBTr
E51Z7AJi76BLerLqFV4WEszWX2owAXtSZvdjVESOPYGZm29hVomxxI1Y0mMbK8Wu
BQIDAQABo4IBYzCCAV8wCQYDVR0TBAIwADAtBglghkgBhvhCAQ0EIBYeRWFzeS1S
U0EgR2VuZXJhdGVkIENlcnRpZmljYXRlMB0GA1UdDgQWBBRQBcIQXjP3tKeg4wME
PwVtUIg4oDCB4QYDVR0jBIHZMIHWgBQSzWAE0qCAnnDtxpm4eyzGUv0ZoaGBsqSB
rzCBrDELMAkGA1UEBhMCVVMxCzAJBgNVBAgTAk9IMREwDwYDVQQHEwhDb2x1bWJ1
czESMBAGA1UEChMJVmlraW5nVlBOMR0wGwYDVQQLExRNeU9yZ2FuaXphdGlvbmFs
VW5pdDEVMBMGA1UEAxMMVmlraW5nVlBOIENBMRAwDgYDVQQpEwdFYXN5UlNBMSEw
HwYJKoZIhvcNAQkBFhJtZUBteWhvc3QubXlkb21haW6CCQDPNYXugL8qPjATBgNV
HSUEDDAKBggrBgEFBQcDAjALBgNVHQ8EBAMCB4AwDQYJKoZIhvcNAQEEBQADggIB
AOxb4dIMqTw0YZyxwoVJuEcs3Rz37AKlbpf206Y+aNTGVXk53HMOKhDLRKs/QiGZ
Ze9YbJS/cXerdazcHD1mnYEBUYoOyfvgHPiCe2xDMjWl4JoWoI0cDPFJZr48qu3P
AkmCvgH6pPN+b3ALn2Mzi1g0iVuH9boAXGJ6CQqxQyQ8Hw6sZGFZrq65CKYB7vkD
vddUokEEd5pmgbKGUgLZ+D7TdS9K7iHG5Jr7weXZbFQT3QhYwbvQUUIy/6Bcnrlh
eRG0JvbFl/QpBpyQ34+cr5xBfyD+EfvJz2YCAMzelWJWTICe7U2CgARkFwop+Lc/
O8wJQX5jOx3s29Hnwn94vCKH2eGXa3I5Wp4x4auiMpfNNWR77F2KNBcKcGqX9eiJ
2pZSRSHfUTsfucuVBKxKlMEOtd1M+ZelPoj2XvkiO8dQVGKA1Fed3beaVypJ+G2+
Dg5Wit7ARF2rKlnXHRdJmqPPV4mn7k90FbMXE7AyV8U+JHafwDw9Xxb8yT9u0dCu
ER4+6MpNXsAm/kgU8AiRHS3gdqX1DOlgtl73B1wYwPFK9jEwYA/8swrLFG9MbgEj
JVy0RTUkdtFwVmsFmZSm6IaeXQ19weVUsHDbHV5pmx3y/KC2Gova7/3oYyg3TOOi
zWkh5x4CJpf4bQk0zR2mHrC41hjM5JrhF+yXy0i7LPVT
-----END CERTIFICATE-----
