Certificate:
    Data:
        Version: 3 (0x2)
        Serial Number: 5516 (0x158c)
    Signature Algorithm: md5WithRSAEncryption
        Issuer: C=US, ST=OH, L=Columbus, O=VikingVPN, OU=MyOrganizationalUnit, CN=VikingVPN CA/name=EasyRSA/emailAddress=me@myhost.mydomain
        Validity
            Not Before: Jun  9 10:44:13 2015 GMT
            Not After : Jun  6 10:44:13 2025 GMT
        Subject: CN=Client1747Cert13ae4e
        Subject Public Key Info:
            Public Key Algorithm: rsaEncryption
                Public-Key: (4096 bit)
                Modulus:
                    00:a5:10:48:ab:37:da:1f:24:d3:dc:58:d8:86:28:
                    c8:16:c3:75:c1:1f:8e:f9:57:95:8f:bb:7b:aa:9d:
                    80:07:63:98:1e:c3:da:17:d6:68:5f:28:15:23:76:
                    78:89:dd:91:82:0e:90:8e:19:29:66:19:cb:23:c4:
                    f2:af:86:25:2b:10:88:e9:ce:ec:57:eb:94:7c:b4:
                    78:c6:58:6c:49:d8:72:77:52:47:85:38:0a:8c:b4:
                    d9:b5:7f:69:d0:c9:cd:8f:8f:93:1b:a6:4b:27:f7:
                    c4:cb:2d:e6:27:68:be:93:64:dd:cf:1b:8e:0f:d0:
                    3c:a8:fd:3f:5e:71:dd:1b:21:7b:bc:65:a7:f1:67:
                    d9:90:a9:7b:29:10:91:3d:ed:2b:a2:df:94:27:24:
                    ca:7f:77:07:ff:ec:cb:3e:f8:e0:29:fe:3a:41:d6:
                    c1:73:1c:2f:55:70:15:cf:6c:7a:c9:73:f0:ca:1d:
                    df:0b:25:8f:41:3c:fa:59:76:b7:41:ed:a1:64:7d:
                    a5:b2:bc:0d:32:53:0c:bd:89:bd:15:62:a1:fa:61:
                    2e:5b:d8:bc:12:8b:de:cd:70:db:57:53:8b:f5:0e:
                    a8:ea:57:29:15:ad:06:72:05:a5:28:8e:39:d8:a0:
                    84:11:ca:57:c1:0e:cb:e3:5f:4e:04:b4:83:f5:d2:
                    35:43:7d:a3:ac:13:92:20:1f:ca:99:af:36:1c:27:
                    20:43:a3:b0:89:15:db:1e:d2:92:c5:1e:09:f1:a8:
                    ad:8a:72:0c:d3:0a:22:1f:e7:1f:ea:5b:38:dd:0c:
                    c2:d1:0d:3a:8a:34:84:49:c7:0b:f0:ff:c6:b7:cb:
                    fe:39:56:e2:c4:9b:03:8a:40:a6:6a:9e:3c:be:f5:
                    04:43:33:e5:4e:4f:07:19:95:17:14:06:aa:34:b6:
                    8b:02:d9:9a:fa:04:91:6f:87:57:b9:30:26:99:a5:
                    d8:3d:60:41:e6:e9:8a:bc:ac:54:34:fc:de:ed:70:
                    10:56:0b:6a:4d:5a:cf:3d:42:3c:ea:f7:e8:ca:9e:
                    50:5d:8f:e9:90:f0:37:fe:b3:9e:9f:d5:2b:9c:f8:
                    0e:00:f7:c8:69:b5:ad:92:bf:3a:9c:37:c9:0f:13:
                    91:74:81:a2:44:b4:36:f1:6f:9f:a4:8f:58:b7:95:
                    2f:42:5c:e9:7d:ba:59:12:9c:af:61:60:e3:0c:d1:
                    7f:7c:03:96:bd:87:34:5c:99:3d:fb:56:26:83:85:
                    88:88:13:2b:bf:4e:e2:47:1c:67:a6:e5:de:8e:2c:
                    1d:47:13:0f:0d:b5:2b:f3:ba:61:9b:3c:5b:fd:18:
                    7f:d1:b9:70:a9:b8:d0:ed:23:1e:80:7b:41:d0:89:
                    4c:17:01
                Exponent: 65537 (0x10001)
        X509v3 extensions:
            X509v3 Basic Constraints: 
                CA:FALSE
            Netscape Comment: 
                Easy-RSA Generated Certificate
            X509v3 Subject Key Identifier: 
                B6:19:2F:80:E0:50:FF:1C:09:54:B1:FC:6D:FF:5E:43:F0:42:EB:43
            X509v3 Authority Key Identifier: 
                keyid:12:CD:60:04:D2:A0:80:9E:70:ED:C6:99:B8:7B:2C:C6:52:FD:19:A1
                DirName:/C=US/ST=OH/L=Columbus/O=VikingVPN/OU=MyOrganizationalUnit/CN=VikingVPN CA/name=EasyRSA/emailAddress=me@myhost.mydomain
                serial:CF:35:85:EE:80:BF:2A:3E

            X509v3 Extended Key Usage: 
                TLS Web Client Authentication
            X509v3 Key Usage: 
                Digital Signature
    Signature Algorithm: md5WithRSAEncryption
         3b:8d:17:1e:a3:61:de:e1:b7:fe:93:e8:fd:9e:62:6f:e6:4e:
         b9:68:a5:0c:bb:38:22:6d:89:77:06:ec:3c:f2:ec:74:e0:16:
         b7:ad:a6:c8:2e:51:bd:42:03:ad:b1:6d:5d:fe:ec:53:28:49:
         7b:a7:ed:04:7b:d2:62:5a:ae:aa:35:29:90:b6:e6:99:2e:32:
         4e:77:67:30:cd:6e:e9:fc:9d:1e:0b:be:af:ba:1a:9a:03:fd:
         30:ac:6e:a9:77:76:74:2b:3c:a3:98:92:d8:53:a3:51:30:0d:
         4e:93:63:98:78:2e:2d:8c:4f:f9:9f:8c:82:11:62:85:21:f2:
         c0:fe:12:9b:44:5e:0c:33:85:d3:ee:47:0d:74:cf:27:63:2f:
         66:bc:3f:c8:1e:56:8e:ec:f3:c5:4c:89:98:f9:11:39:3b:ef:
         3a:59:77:5f:42:59:1b:2d:21:b0:1a:4f:57:6b:dd:fb:4e:cb:
         88:92:26:a7:49:a4:5d:7d:06:0a:44:96:67:cb:46:b7:ee:f0:
         a2:55:14:f9:6f:f5:3e:39:59:b7:42:e6:8d:b6:ab:58:72:7a:
         6f:c2:3a:6c:09:ce:15:ec:90:0b:4f:08:e5:5a:57:d4:3f:9e:
         c2:12:54:d4:90:21:e2:eb:62:c6:ef:f1:dc:45:de:40:0e:68:
         78:35:89:b6:07:37:06:15:83:d3:ac:a4:06:56:e2:8f:bd:62:
         07:d7:58:49:b8:69:fc:a1:54:a2:84:a7:93:55:ce:4d:ea:3e:
         bb:02:37:9a:6e:42:83:7b:26:8c:13:5b:25:30:ee:03:bf:75:
         72:04:e1:2e:a5:8b:69:55:c0:24:5b:48:1c:48:c0:18:d7:23:
         26:32:63:d9:7f:cd:6a:0d:35:76:1a:e2:ad:c7:04:84:26:10:
         b4:b8:61:de:c1:e8:14:0a:15:67:73:84:17:46:bc:26:82:e9:
         84:95:e0:85:55:26:32:fc:26:2c:6a:4a:ad:a6:97:62:37:14:
         08:9c:59:ec:25:bb:67:4a:ab:05:c3:d3:e4:43:98:54:c4:1f:
         a8:16:d3:88:25:ef:aa:56:e1:97:ef:4d:c8:aa:1c:0e:2c:0d:
         28:69:31:b3:e4:52:47:51:cb:ac:4e:74:5f:84:6e:06:c5:51:
         80:22:81:ff:81:da:db:40:81:0f:12:31:82:8b:f2:fe:82:a5:
         04:cc:fa:8b:7a:2b:f8:96:4e:9a:07:57:f0:cc:c5:8a:31:5b:
         9e:5f:ea:be:43:14:c9:a8:43:5d:b8:89:9b:67:ef:1a:c0:9c:
         e3:d5:0f:af:4a:8a:5d:63:da:cf:eb:dc:fe:8e:61:46:25:bb:
         02:a1:6e:15:4e:0f:eb:ad
-----BEGIN CERTIFICATE-----
MIIGrTCCBJWgAwIBAgICFYwwDQYJKoZIhvcNAQEEBQAwgawxCzAJBgNVBAYTAlVT
MQswCQYDVQQIEwJPSDERMA8GA1UEBxMIQ29sdW1idXMxEjAQBgNVBAoTCVZpa2lu
Z1ZQTjEdMBsGA1UECxMUTXlPcmdhbml6YXRpb25hbFVuaXQxFTATBgNVBAMTDFZp
a2luZ1ZQTiBDQTEQMA4GA1UEKRMHRWFzeVJTQTEhMB8GCSqGSIb3DQEJARYSbWVA
bXlob3N0Lm15ZG9tYWluMB4XDTE1MDYwOTEwNDQxM1oXDTI1MDYwNjEwNDQxM1ow
HzEdMBsGA1UEAxMUQ2xpZW50MTc0N0NlcnQxM2FlNGUwggIiMA0GCSqGSIb3DQEB
AQUAA4ICDwAwggIKAoICAQClEEirN9ofJNPcWNiGKMgWw3XBH475V5WPu3uqnYAH
Y5gew9oX1mhfKBUjdniJ3ZGCDpCOGSlmGcsjxPKvhiUrEIjpzuxX65R8tHjGWGxJ
2HJ3UkeFOAqMtNm1f2nQyc2Pj5Mbpksn98TLLeYnaL6TZN3PG44P0Dyo/T9ecd0b
IXu8ZafxZ9mQqXspEJE97Sui35QnJMp/dwf/7Ms++OAp/jpB1sFzHC9VcBXPbHrJ
c/DKHd8LJY9BPPpZdrdB7aFkfaWyvA0yUwy9ib0VYqH6YS5b2LwSi97NcNtXU4v1
DqjqVykVrQZyBaUojjnYoIQRylfBDsvjX04EtIP10jVDfaOsE5IgH8qZrzYcJyBD
o7CJFdse0pLFHgnxqK2KcgzTCiIf5x/qWzjdDMLRDTqKNIRJxwvw/8a3y/45VuLE
mwOKQKZqnjy+9QRDM+VOTwcZlRcUBqo0tosC2Zr6BJFvh1e5MCaZpdg9YEHm6Yq8
rFQ0/N7tcBBWC2pNWs89Qjzq9+jKnlBdj+mQ8Df+s56f1Suc+A4A98hpta2Svzqc
N8kPE5F0gaJEtDbxb5+kj1i3lS9CXOl9ulkSnK9hYOMM0X98A5a9hzRcmT37ViaD
hYiIEyu/TuJHHGem5d6OLB1HEw8NtSvzumGbPFv9GH/RuXCpuNDtIx6Ae0HQiUwX
AQIDAQABo4IBYzCCAV8wCQYDVR0TBAIwADAtBglghkgBhvhCAQ0EIBYeRWFzeS1S
U0EgR2VuZXJhdGVkIENlcnRpZmljYXRlMB0GA1UdDgQWBBS2GS+A4FD/HAlUsfxt
/15D8ELrQzCB4QYDVR0jBIHZMIHWgBQSzWAE0qCAnnDtxpm4eyzGUv0ZoaGBsqSB
rzCBrDELMAkGA1UEBhMCVVMxCzAJBgNVBAgTAk9IMREwDwYDVQQHEwhDb2x1bWJ1
czESMBAGA1UEChMJVmlraW5nVlBOMR0wGwYDVQQLExRNeU9yZ2FuaXphdGlvbmFs
VW5pdDEVMBMGA1UEAxMMVmlraW5nVlBOIENBMRAwDgYDVQQpEwdFYXN5UlNBMSEw
HwYJKoZIhvcNAQkBFhJtZUBteWhvc3QubXlkb21haW6CCQDPNYXugL8qPjATBgNV
HSUEDDAKBggrBgEFBQcDAjALBgNVHQ8EBAMCB4AwDQYJKoZIhvcNAQEEBQADggIB
ADuNFx6jYd7ht/6T6P2eYm/mTrlopQy7OCJtiXcG7Dzy7HTgFretpsguUb1CA62x
bV3+7FMoSXun7QR70mJarqo1KZC25pkuMk53ZzDNbun8nR4Lvq+6GpoD/TCsbql3
dnQrPKOYkthTo1EwDU6TY5h4Li2MT/mfjIIRYoUh8sD+EptEXgwzhdPuRw10zydj
L2a8P8geVo7s88VMiZj5ETk77zpZd19CWRstIbAaT1dr3ftOy4iSJqdJpF19BgpE
lmfLRrfu8KJVFPlv9T45WbdC5o22q1hyem/COmwJzhXskAtPCOVaV9Q/nsISVNSQ
IeLrYsbv8dxF3kAOaHg1ibYHNwYVg9OspAZW4o+9YgfXWEm4afyhVKKEp5NVzk3q
PrsCN5puQoN7JowTWyUw7gO/dXIE4S6li2lVwCRbSBxIwBjXIyYyY9l/zWoNNXYa
4q3HBIQmELS4Yd7B6BQKFWdzhBdGvCaC6YSV4IVVJjL8JixqSq2ml2I3FAicWewl
u2dKqwXD0+RDmFTEH6gW04gl76pW4ZfvTciqHA4sDShpMbPkUkdRy6xOdF+EbgbF
UYAigf+B2ttAgQ8SMYKL8v6CpQTM+ot6K/iWTpoHV/DMxYoxW55f6r5DFMmoQ124
iZtn7xrAnOPVD69Kil1j2s/r3P6OYUYluwKhbhVOD+ut
-----END CERTIFICATE-----
