Certificate:
    Data:
        Version: 3 (0x2)
        Serial Number: 5549 (0x15ad)
    Signature Algorithm: md5WithRSAEncryption
        Issuer: C=US, ST=OH, L=Columbus, O=VikingVPN, OU=MyOrganizationalUnit, CN=VikingVPN CA/name=EasyRSA/emailAddress=me@myhost.mydomain
        Validity
            Not Before: Jun 15 05:26:03 2015 GMT
            Not After : Jun 12 05:26:03 2025 GMT
        Subject: CN=Client1760Cert0b52dc
        Subject Public Key Info:
            Public Key Algorithm: rsaEncryption
                Public-Key: (4096 bit)
                Modulus:
                    00:d3:ee:e9:13:fd:f7:79:89:66:b0:6c:a8:f9:f8:
                    3f:9f:1a:01:a1:35:37:9a:f2:a0:74:af:97:8c:d7:
                    9a:3f:28:e6:90:8c:a7:b7:dc:5d:b5:08:2d:62:2c:
                    41:c8:fb:a0:e4:77:3f:32:79:de:13:f4:54:32:c9:
                    85:eb:53:be:22:d4:c3:33:36:04:12:fe:c6:0b:14:
                    a5:74:40:8f:fc:83:ac:0c:78:87:82:ec:8d:40:52:
                    86:90:cc:57:15:86:7f:f6:80:31:bc:8d:d8:df:3a:
                    31:7e:1d:46:97:72:21:ee:cf:77:43:7c:65:b3:b1:
                    a6:39:ab:a6:ce:a4:b3:7e:e1:df:c6:83:1e:d2:b6:
                    d0:61:01:74:22:e2:07:90:f3:01:da:f8:4c:8a:f2:
                    1a:3f:38:10:77:77:c2:b1:c2:4e:5a:cd:f9:9d:d0:
                    f8:00:a2:84:d0:77:0f:d7:e9:6d:fb:bb:18:18:07:
                    b8:52:ba:a0:94:1a:4a:bd:6a:06:13:0d:42:f8:3b:
                    80:08:03:1e:84:50:ca:48:f9:23:cf:a8:7a:4c:40:
                    80:03:53:94:02:30:cc:b1:4f:f9:00:d7:ef:0d:90:
                    84:f4:2a:e6:1b:c2:6e:87:04:44:21:e5:2a:f7:e8:
                    35:04:9d:58:8b:e8:6b:5e:c8:3f:93:93:29:d7:1f:
                    0c:bc:68:77:f7:3a:c6:49:91:4e:a4:08:40:f2:03:
                    9d:2f:d0:de:b3:33:06:f0:1e:5e:04:c3:4b:0e:54:
                    15:f2:4b:b8:9e:f3:2a:c7:45:4f:ce:4b:21:92:a7:
                    d1:c0:c5:42:26:ff:ca:b9:81:1e:dd:16:14:f1:45:
                    ad:40:f6:02:ed:aa:50:51:dc:cc:eb:84:18:f5:8c:
                    67:41:57:a2:f8:2d:d3:4e:bb:e3:e5:d6:39:a1:7c:
                    35:3c:a7:61:1f:c1:b4:ac:c7:46:d0:e1:59:c3:c6:
                    ee:fe:21:43:82:2e:07:65:17:e2:1f:21:ed:51:6b:
                    d2:48:89:68:b3:8a:5b:1c:a7:bb:05:49:47:3a:72:
                    30:02:e6:5b:3b:d4:cc:9f:40:eb:da:59:8f:86:af:
                    9c:ad:8d:a3:b5:a3:44:8b:48:02:a0:2e:fe:ac:93:
                    d7:6a:fc:26:f1:76:34:d5:c9:5f:91:96:72:96:4f:
                    f7:dc:f1:7d:88:9a:d1:4f:41:a8:56:6e:e2:45:93:
                    1b:07:88:b8:05:c5:94:37:78:d5:70:ec:91:3f:e6:
                    b8:1e:1e:07:1f:8b:80:de:ff:29:d8:07:99:67:10:
                    3d:24:be:83:a8:be:17:cd:a4:69:43:f2:fb:fe:a0:
                    c5:fd:1f:5d:40:4c:ea:4f:f3:b1:d5:37:e8:5f:46:
                    c4:88:49
                Exponent: 65537 (0x10001)
        X509v3 extensions:
            X509v3 Basic Constraints: 
                CA:FALSE
            Netscape Comment: 
                Easy-RSA Generated Certificate
            X509v3 Subject Key Identifier: 
                88:40:D8:72:11:3B:57:1E:4E:6C:50:44:5B:06:40:54:DC:B2:AA:F2
            X509v3 Authority Key Identifier: 
                keyid:12:CD:60:04:D2:A0:80:9E:70:ED:C6:99:B8:7B:2C:C6:52:FD:19:A1
                DirName:/C=US/ST=OH/L=Columbus/O=VikingVPN/OU=MyOrganizationalUnit/CN=VikingVPN CA/name=EasyRSA/emailAddress=me@myhost.mydomain
                serial:CF:35:85:EE:80:BF:2A:3E

            X509v3 Extended Key Usage: 
                TLS Web Client Authentication
            X509v3 Key Usage: 
                Digital Signature
    Signature Algorithm: md5WithRSAEncryption
         4b:e5:02:93:a5:04:25:cd:85:06:1b:88:6c:2d:e4:01:17:49:
         ac:87:0f:9d:7d:33:3d:12:4b:30:8d:53:89:7b:61:3b:ac:19:
         f9:1e:6b:1a:29:cf:0e:83:3b:30:22:d2:16:97:03:ab:66:6f:
         b1:69:17:30:02:10:32:0d:bd:5d:de:a0:f4:e0:b4:e3:38:19:
         e1:4a:ec:d2:a1:9c:24:0a:9e:b0:5a:39:bb:04:d1:93:97:5f:
         2b:23:83:97:41:ad:fc:68:b3:f5:fc:1f:6e:2f:a9:dd:0c:93:
         2a:12:6d:32:11:46:7f:2b:b9:1c:06:ff:51:b1:6b:e2:0e:c7:
         5d:16:b8:58:c9:1f:95:cf:ba:67:a8:a6:41:16:6f:ee:1d:5f:
         ff:e4:2c:a8:e8:9e:32:15:b5:73:cb:29:6e:92:ce:47:c4:32:
         5a:4a:81:09:09:dd:eb:ef:82:89:5f:1f:fe:65:e6:63:f8:7a:
         46:3e:09:3a:8f:b0:c0:9e:bb:78:4d:b4:40:f4:ea:80:35:c3:
         80:01:87:ff:18:98:36:ed:2b:79:d6:a4:50:fc:bc:da:7a:35:
         db:b6:f9:09:ac:4c:14:3a:da:2e:9c:1b:93:96:66:76:d2:15:
         35:90:c4:aa:df:7d:31:b6:c3:9d:7a:be:9c:fb:f4:3f:4c:c1:
         eb:bc:a4:ab:c7:8c:1d:fb:98:a4:bd:6c:42:d3:aa:e3:bc:65:
         da:03:20:0c:cc:d9:f6:cc:0d:21:73:0c:30:8e:8e:63:15:22:
         51:e2:20:4b:48:3b:67:ed:3b:2b:2a:e4:90:b5:52:66:c3:62:
         3b:6c:67:74:98:9e:05:b4:76:a3:6c:cc:63:d2:11:5e:13:a8:
         11:bd:ce:52:74:37:b4:e6:8d:58:08:d0:9d:5e:31:8d:64:93:
         37:6e:5f:eb:d2:2e:e7:53:00:b4:0d:97:a0:90:18:79:ec:9a:
         a4:95:90:f5:07:a4:e7:e6:42:8d:b3:d1:5a:a1:1f:5f:06:31:
         46:61:cd:7c:20:7c:06:65:c3:5e:00:c4:e5:50:91:da:3c:c4:
         8c:0b:88:2e:9e:81:34:a2:03:ae:eb:83:47:ce:18:37:73:83:
         45:dc:07:17:3f:8f:ae:a8:ad:22:da:26:87:b1:35:f6:a9:47:
         01:61:cf:e2:7c:64:d7:6f:ee:86:bf:8e:d2:9f:6e:b6:b0:a2:
         36:e5:4a:29:38:78:7e:76:49:85:86:97:2e:72:51:4d:57:41:
         d5:63:ee:20:5d:8b:fd:77:ee:eb:39:46:a2:e3:35:18:15:97:
         32:c4:31:3a:6e:24:07:6e:2f:c1:25:c4:a3:db:1a:c6:d8:ee:
         6d:aa:eb:f5:2a:97:82:34
-----BEGIN CERTIFICATE-----
MIIGrTCCBJWgAwIBAgICFa0wDQYJKoZIhvcNAQEEBQAwgawxCzAJBgNVBAYTAlVT
MQswCQYDVQQIEwJPSDERMA8GA1UEBxMIQ29sdW1idXMxEjAQBgNVBAoTCVZpa2lu
Z1ZQTjEdMBsGA1UECxMUTXlPcmdhbml6YXRpb25hbFVuaXQxFTATBgNVBAMTDFZp
a2luZ1ZQTiBDQTEQMA4GA1UEKRMHRWFzeVJTQTEhMB8GCSqGSIb3DQEJARYSbWVA
bXlob3N0Lm15ZG9tYWluMB4XDTE1MDYxNTA1MjYwM1oXDTI1MDYxMjA1MjYwM1ow
HzEdMBsGA1UEAxMUQ2xpZW50MTc2MENlcnQwYjUyZGMwggIiMA0GCSqGSIb3DQEB
AQUAA4ICDwAwggIKAoICAQDT7ukT/fd5iWawbKj5+D+fGgGhNTea8qB0r5eM15o/
KOaQjKe33F21CC1iLEHI+6Dkdz8yed4T9FQyyYXrU74i1MMzNgQS/sYLFKV0QI/8
g6wMeIeC7I1AUoaQzFcVhn/2gDG8jdjfOjF+HUaXciHuz3dDfGWzsaY5q6bOpLN+
4d/Ggx7SttBhAXQi4geQ8wHa+EyK8ho/OBB3d8Kxwk5azfmd0PgAooTQdw/X6W37
uxgYB7hSuqCUGkq9agYTDUL4O4AIAx6EUMpI+SPPqHpMQIADU5QCMMyxT/kA1+8N
kIT0KuYbwm6HBEQh5Sr36DUEnViL6GteyD+TkynXHwy8aHf3OsZJkU6kCEDyA50v
0N6zMwbwHl4Ew0sOVBXyS7ie8yrHRU/OSyGSp9HAxUIm/8q5gR7dFhTxRa1A9gLt
qlBR3MzrhBj1jGdBV6L4LdNOu+Pl1jmhfDU8p2EfwbSsx0bQ4VnDxu7+IUOCLgdl
F+IfIe1Ra9JIiWizilscp7sFSUc6cjAC5ls71MyfQOvaWY+Gr5ytjaO1o0SLSAKg
Lv6sk9dq/CbxdjTVyV+RlnKWT/fc8X2ImtFPQahWbuJFkxsHiLgFxZQ3eNVw7JE/
5rgeHgcfi4De/ynYB5lnED0kvoOovhfNpGlD8vv+oMX9H11ATOpP87HVN+hfRsSI
SQIDAQABo4IBYzCCAV8wCQYDVR0TBAIwADAtBglghkgBhvhCAQ0EIBYeRWFzeS1S
U0EgR2VuZXJhdGVkIENlcnRpZmljYXRlMB0GA1UdDgQWBBSIQNhyETtXHk5sUERb
BkBU3LKq8jCB4QYDVR0jBIHZMIHWgBQSzWAE0qCAnnDtxpm4eyzGUv0ZoaGBsqSB
rzCBrDELMAkGA1UEBhMCVVMxCzAJBgNVBAgTAk9IMREwDwYDVQQHEwhDb2x1bWJ1
czESMBAGA1UEChMJVmlraW5nVlBOMR0wGwYDVQQLExRNeU9yZ2FuaXphdGlvbmFs
VW5pdDEVMBMGA1UEAxMMVmlraW5nVlBOIENBMRAwDgYDVQQpEwdFYXN5UlNBMSEw
HwYJKoZIhvcNAQkBFhJtZUBteWhvc3QubXlkb21haW6CCQDPNYXugL8qPjATBgNV
HSUEDDAKBggrBgEFBQcDAjALBgNVHQ8EBAMCB4AwDQYJKoZIhvcNAQEEBQADggIB
AEvlApOlBCXNhQYbiGwt5AEXSayHD519Mz0SSzCNU4l7YTusGfkeaxopzw6DOzAi
0haXA6tmb7FpFzACEDINvV3eoPTgtOM4GeFK7NKhnCQKnrBaObsE0ZOXXysjg5dB
rfxos/X8H24vqd0MkyoSbTIRRn8ruRwG/1Gxa+IOx10WuFjJH5XPumeopkEWb+4d
X//kLKjonjIVtXPLKW6SzkfEMlpKgQkJ3evvgolfH/5l5mP4ekY+CTqPsMCeu3hN
tED06oA1w4ABh/8YmDbtK3nWpFD8vNp6Ndu2+QmsTBQ62i6cG5OWZnbSFTWQxKrf
fTG2w516vpz79D9Mweu8pKvHjB37mKS9bELTquO8ZdoDIAzM2fbMDSFzDDCOjmMV
IlHiIEtIO2ftOysq5JC1UmbDYjtsZ3SYngW0dqNszGPSEV4TqBG9zlJ0N7TmjVgI
0J1eMY1kkzduX+vSLudTALQNl6CQGHnsmqSVkPUHpOfmQo2z0VqhH18GMUZhzXwg
fAZlw14AxOVQkdo8xIwLiC6egTSiA67rg0fOGDdzg0XcBxc/j66orSLaJoexNfap
RwFhz+J8ZNdv7oa/jtKfbrawojblSik4eH52SYWGly5yUU1XQdVj7iBdi/137us5
RqLjNRgVlzLEMTpuJAduL8ElxKPbGsbY7m2q6/Uql4I0
-----END CERTIFICATE-----
