Certificate:
    Data:
        Version: 3 (0x2)
        Serial Number: 5555 (0x15b3)
    Signature Algorithm: md5WithRSAEncryption
        Issuer: C=US, ST=OH, L=Columbus, O=VikingVPN, OU=MyOrganizationalUnit, CN=VikingVPN CA/name=EasyRSA/emailAddress=me@myhost.mydomain
        Validity
            Not Before: Jun 15 06:38:30 2015 GMT
            Not After : Jun 12 06:38:30 2025 GMT
        Subject: CN=Client1753Cert012647
        Subject Public Key Info:
            Public Key Algorithm: rsaEncryption
                Public-Key: (4096 bit)
                Modulus:
                    00:c6:35:b4:1e:f3:56:fb:3c:e0:08:22:f7:bf:3c:
                    43:51:e1:7a:0b:7b:e2:9a:e3:e6:ab:5c:89:ec:ce:
                    17:4e:85:d3:18:de:c2:c7:a4:00:f9:90:0e:a6:dd:
                    f6:2e:7c:a2:45:c6:62:41:a5:b7:b2:a1:c4:8b:bc:
                    dc:4d:da:7b:c6:25:1f:05:43:29:a3:1e:2e:06:c1:
                    d2:61:c4:8d:6b:15:e9:24:79:8c:a8:46:a9:52:86:
                    e0:1a:92:83:36:08:8d:8c:92:fd:ea:29:90:9c:8b:
                    f8:14:e6:a4:99:1f:c1:fb:8c:11:d5:82:c5:30:56:
                    43:d3:ac:3f:9a:13:0d:58:0f:b4:24:23:5f:e8:26:
                    9a:92:a7:a9:1b:c1:a4:3f:cd:2b:45:5d:c0:63:b0:
                    c5:b6:e3:ed:e1:4e:79:9f:4e:ca:01:03:b6:3f:42:
                    56:bd:8c:e4:06:80:fa:73:3b:cf:4f:8b:4e:8e:30:
                    41:e5:f8:60:37:8e:06:65:63:4f:6d:83:a7:08:e7:
                    93:53:1f:8c:32:f6:7e:de:2d:a5:03:5e:1b:b0:46:
                    ee:8a:ec:57:cc:1a:fa:9c:60:2c:c0:61:3d:50:a8:
                    40:e7:0e:ac:51:f6:c7:db:b8:d2:ee:ec:45:11:ef:
                    79:02:9b:f5:54:b6:63:21:14:e8:54:7c:7d:95:c8:
                    ca:1e:27:bf:3d:8c:62:63:b2:e8:01:7f:08:eb:7a:
                    74:6a:a2:1e:77:05:6a:2c:a9:ba:e0:ff:02:7f:f7:
                    eb:f6:e0:18:3a:9c:82:bd:48:b4:91:18:58:41:23:
                    92:5b:bb:28:14:53:bc:2e:a2:ba:87:c9:12:dc:77:
                    84:15:f6:0b:d0:aa:fe:60:3d:6f:ec:19:43:ef:7a:
                    10:11:b3:9a:93:1d:2b:b3:eb:fc:8e:07:72:3d:57:
                    79:76:47:2e:01:78:81:00:84:cb:e2:a7:7e:8f:e3:
                    08:a0:fb:a2:8b:bc:64:7b:ef:bc:ba:40:0a:32:eb:
                    24:2f:8b:81:ba:f7:5a:55:4e:b2:dd:03:71:d3:e9:
                    88:42:f3:f2:fc:28:b6:0a:7c:75:8d:2c:3e:f0:69:
                    3c:48:36:75:95:be:5b:67:2b:48:b6:56:95:41:f8:
                    97:65:70:3a:7d:46:5e:12:fd:cf:1a:b9:74:03:19:
                    66:72:92:b3:60:06:0b:6f:cb:b0:94:f2:9b:df:7e:
                    4d:07:44:8e:7e:d7:b7:69:d2:48:f1:97:cd:e2:fa:
                    2e:82:ca:72:04:4f:4d:b1:9e:ae:67:14:ff:f5:c6:
                    01:f7:fe:6f:ee:9e:ad:28:7c:3f:d1:ef:2c:e0:d1:
                    88:a0:ec:af:47:7f:de:39:7c:a4:f2:bf:66:2f:1a:
                    b7:99:fd
                Exponent: 65537 (0x10001)
        X509v3 extensions:
            X509v3 Basic Constraints: 
                CA:FALSE
            Netscape Comment: 
                Easy-RSA Generated Certificate
            X509v3 Subject Key Identifier: 
                FB:11:F1:DD:31:0A:A9:D4:13:48:AA:AA:3B:BF:FD:5B:CF:C7:57:6B
            X509v3 Authority Key Identifier: 
                keyid:12:CD:60:04:D2:A0:80:9E:70:ED:C6:99:B8:7B:2C:C6:52:FD:19:A1
                DirName:/C=US/ST=OH/L=Columbus/O=VikingVPN/OU=MyOrganizationalUnit/CN=VikingVPN CA/name=EasyRSA/emailAddress=me@myhost.mydomain
                serial:CF:35:85:EE:80:BF:2A:3E

            X509v3 Extended Key Usage: 
                TLS Web Client Authentication
            X509v3 Key Usage: 
                Digital Signature
    Signature Algorithm: md5WithRSAEncryption
         58:20:48:9d:bc:96:ab:ff:96:bc:11:f8:f6:4c:48:8e:fa:f7:
         25:27:3f:91:30:c4:d0:d1:ab:89:b2:28:ad:2a:44:26:8a:13:
         4a:27:6d:77:8a:4b:39:9c:68:a6:c1:5d:80:ce:26:ae:26:ef:
         7f:e7:d0:5c:94:80:55:e4:1b:ba:5e:61:5d:1a:b8:cc:37:36:
         fe:29:ef:c3:20:90:13:c9:c5:ed:e7:67:de:20:f5:fb:f6:ff:
         14:ab:97:12:7c:7f:26:55:7f:87:0d:36:3d:fe:46:6f:c9:33:
         8a:cf:67:a6:2a:90:e9:48:37:a8:a7:71:48:a2:b0:64:ea:f6:
         88:4b:51:fb:85:d6:56:fa:8e:a7:5b:59:2f:78:73:9f:6a:1c:
         cc:df:f4:9f:78:2d:75:21:05:1d:20:f4:aa:60:1c:22:c2:ff:
         aa:14:b0:ec:93:8b:28:05:72:6d:37:1d:82:e7:51:bd:48:d7:
         9b:14:53:9b:6e:62:1a:85:4b:48:5a:4e:58:90:be:79:0d:32:
         46:a5:74:78:74:7d:97:1a:8d:7e:a9:8d:d0:4d:18:ca:c4:7e:
         48:e7:21:7c:a7:dc:8e:f2:29:d7:05:26:1a:50:b7:09:18:1b:
         b5:a6:a4:1c:5d:22:32:6e:79:6e:80:1e:c6:db:16:76:20:03:
         4d:49:27:94:46:ec:f5:60:67:c3:f4:91:86:b3:eb:0a:70:07:
         08:ce:fa:80:5d:25:94:e0:5e:98:c5:88:7d:18:de:73:46:d3:
         36:03:d8:9a:fc:06:29:4d:2a:ae:1c:a2:f0:7f:f2:eb:00:94:
         75:ea:70:06:bf:6c:e9:b5:cf:13:32:f3:8e:c7:35:c3:ea:82:
         8a:42:ff:ae:9d:4f:47:be:5c:80:26:4f:42:0d:c6:07:da:17:
         6b:6a:a1:b9:2f:42:6f:f0:95:97:2d:d3:f3:e5:e7:7a:bc:dd:
         79:58:d0:47:32:19:c7:0d:3e:69:fa:64:1b:a4:6b:68:9a:a8:
         18:0b:b3:39:77:c2:16:2c:5d:c3:cf:30:e6:50:d9:2c:08:a5:
         e5:e7:bc:d7:86:07:b9:20:3c:e4:4d:31:fc:c8:ea:f4:4d:1a:
         ef:13:c6:6e:6c:a2:49:31:5a:55:76:e7:c8:2c:15:bc:32:5a:
         6c:56:34:d5:94:d8:a4:fe:69:36:d5:e5:f2:83:de:9b:0d:ef:
         be:62:09:df:fa:f9:4b:20:21:d6:bc:15:c5:d9:7d:6d:e5:1a:
         a1:65:30:7e:c4:09:5c:81:e7:5d:a4:5b:0a:26:7e:96:bb:4e:
         2c:4f:84:bb:22:7b:dd:b1:67:43:0e:64:e8:f3:84:49:ea:32:
         f9:7a:5e:71:79:27:65:dc
-----BEGIN CERTIFICATE-----
MIIGrTCCBJWgAwIBAgICFbMwDQYJKoZIhvcNAQEEBQAwgawxCzAJBgNVBAYTAlVT
MQswCQYDVQQIEwJPSDERMA8GA1UEBxMIQ29sdW1idXMxEjAQBgNVBAoTCVZpa2lu
Z1ZQTjEdMBsGA1UECxMUTXlPcmdhbml6YXRpb25hbFVuaXQxFTATBgNVBAMTDFZp
a2luZ1ZQTiBDQTEQMA4GA1UEKRMHRWFzeVJTQTEhMB8GCSqGSIb3DQEJARYSbWVA
bXlob3N0Lm15ZG9tYWluMB4XDTE1MDYxNTA2MzgzMFoXDTI1MDYxMjA2MzgzMFow
HzEdMBsGA1UEAxMUQ2xpZW50MTc1M0NlcnQwMTI2NDcwggIiMA0GCSqGSIb3DQEB
AQUAA4ICDwAwggIKAoICAQDGNbQe81b7POAIIve/PENR4XoLe+Ka4+arXInszhdO
hdMY3sLHpAD5kA6m3fYufKJFxmJBpbeyocSLvNxN2nvGJR8FQymjHi4GwdJhxI1r
FekkeYyoRqlShuAakoM2CI2Mkv3qKZCci/gU5qSZH8H7jBHVgsUwVkPTrD+aEw1Y
D7QkI1/oJpqSp6kbwaQ/zStFXcBjsMW24+3hTnmfTsoBA7Y/Qla9jOQGgPpzO89P
i06OMEHl+GA3jgZlY09tg6cI55NTH4wy9n7eLaUDXhuwRu6K7FfMGvqcYCzAYT1Q
qEDnDqxR9sfbuNLu7EUR73kCm/VUtmMhFOhUfH2VyMoeJ789jGJjsugBfwjrenRq
oh53BWosqbrg/wJ/9+v24Bg6nIK9SLSRGFhBI5JbuygUU7wuorqHyRLcd4QV9gvQ
qv5gPW/sGUPvehARs5qTHSuz6/yOB3I9V3l2Ry4BeIEAhMvip36P4wig+6KLvGR7
77y6QAoy6yQvi4G691pVTrLdA3HT6YhC8/L8KLYKfHWNLD7waTxINnWVvltnK0i2
VpVB+JdlcDp9Rl4S/c8auXQDGWZykrNgBgtvy7CU8pvffk0HRI5+17dp0kjxl83i
+i6CynIET02xnq5nFP/1xgH3/m/unq0ofD/R7yzg0Yig7K9Hf945fKTyv2YvGreZ
/QIDAQABo4IBYzCCAV8wCQYDVR0TBAIwADAtBglghkgBhvhCAQ0EIBYeRWFzeS1S
U0EgR2VuZXJhdGVkIENlcnRpZmljYXRlMB0GA1UdDgQWBBT7EfHdMQqp1BNIqqo7
v/1bz8dXazCB4QYDVR0jBIHZMIHWgBQSzWAE0qCAnnDtxpm4eyzGUv0ZoaGBsqSB
rzCBrDELMAkGA1UEBhMCVVMxCzAJBgNVBAgTAk9IMREwDwYDVQQHEwhDb2x1bWJ1
czESMBAGA1UEChMJVmlraW5nVlBOMR0wGwYDVQQLExRNeU9yZ2FuaXphdGlvbmFs
VW5pdDEVMBMGA1UEAxMMVmlraW5nVlBOIENBMRAwDgYDVQQpEwdFYXN5UlNBMSEw
HwYJKoZIhvcNAQkBFhJtZUBteWhvc3QubXlkb21haW6CCQDPNYXugL8qPjATBgNV
HSUEDDAKBggrBgEFBQcDAjALBgNVHQ8EBAMCB4AwDQYJKoZIhvcNAQEEBQADggIB
AFggSJ28lqv/lrwR+PZMSI769yUnP5EwxNDRq4myKK0qRCaKE0onbXeKSzmcaKbB
XYDOJq4m73/n0FyUgFXkG7peYV0auMw3Nv4p78MgkBPJxe3nZ94g9fv2/xSrlxJ8
fyZVf4cNNj3+Rm/JM4rPZ6YqkOlIN6incUiisGTq9ohLUfuF1lb6jqdbWS94c59q
HMzf9J94LXUhBR0g9KpgHCLC/6oUsOyTiygFcm03HYLnUb1I15sUU5tuYhqFS0ha
TliQvnkNMkaldHh0fZcajX6pjdBNGMrEfkjnIXyn3I7yKdcFJhpQtwkYG7WmpBxd
IjJueW6AHsbbFnYgA01JJ5RG7PVgZ8P0kYaz6wpwBwjO+oBdJZTgXpjFiH0Y3nNG
0zYD2Jr8BilNKq4covB/8usAlHXqcAa/bOm1zxMy847HNcPqgopC/66dT0e+XIAm
T0INxgfaF2tqobkvQm/wlZct0/Pl53q83XlY0EcyGccNPmn6ZBuka2iaqBgLszl3
whYsXcPPMOZQ2SwIpeXnvNeGB7kgPORNMfzI6vRNGu8Txm5sokkxWlV258gsFbwy
WmxWNNWU2KT+aTbV5fKD3psN775iCd/6+UsgIda8FcXZfW3lGqFlMH7ECVyB512k
Wwomfpa7TixPhLsie92xZ0MOZOjzhEnqMvl6XnF5J2Xc
-----END CERTIFICATE-----
