Certificate:
    Data:
        Version: 3 (0x2)
        Serial Number: 5573 (0x15c5)
    Signature Algorithm: md5WithRSAEncryption
        Issuer: C=US, ST=OH, L=Columbus, O=VikingVPN, OU=MyOrganizationalUnit, CN=VikingVPN CA/name=EasyRSA/emailAddress=me@myhost.mydomain
        Validity
            Not Before: Jun 17 09:22:38 2015 GMT
            Not After : Jun 14 09:22:38 2025 GMT
        Subject: CN=Client1767Cert20e830
        Subject Public Key Info:
            Public Key Algorithm: rsaEncryption
                Public-Key: (4096 bit)
                Modulus:
                    00:d0:f3:e2:3e:b8:26:ec:06:07:87:23:a4:10:52:
                    3a:5a:92:cd:b2:28:77:3f:4b:71:1d:77:21:f5:6b:
                    ca:16:22:e2:1e:3e:78:21:c2:dc:8e:88:93:60:be:
                    9e:84:83:c7:9c:9b:d9:71:60:e7:39:25:d3:52:11:
                    8c:30:47:5a:c1:be:ec:0a:92:30:88:94:37:17:e7:
                    30:07:83:72:1f:f5:57:94:a0:1e:14:b1:52:b4:dd:
                    34:41:b5:25:44:90:42:18:d1:76:9d:1e:44:8c:cf:
                    dd:10:a9:b2:46:09:e7:0b:bd:10:8d:d1:f6:0a:e7:
                    0a:01:c4:9d:f5:d0:48:35:0d:a4:6c:7a:7f:73:e7:
                    e8:53:56:8a:c3:47:b6:12:fe:73:6a:bd:3a:a9:51:
                    5c:0d:eb:d5:de:a2:0e:4d:b4:ab:af:c2:da:09:7f:
                    71:d2:d0:ee:ea:c6:40:6e:eb:4c:83:c3:55:b1:1a:
                    11:a9:e3:56:c3:fc:6b:03:12:7c:5c:47:e6:bd:2b:
                    35:94:b4:cd:fc:78:a8:75:d0:ca:28:6b:a9:da:af:
                    d3:e3:8c:da:87:d2:7a:1f:32:39:9c:cd:e9:96:20:
                    5d:a4:3d:42:73:0c:e9:e2:99:5b:15:6f:51:67:e8:
                    ab:10:72:bc:b9:6b:82:d2:72:4e:cf:a1:e6:04:e4:
                    a4:aa:df:1a:cf:7f:69:20:08:af:39:30:04:c6:2d:
                    8e:2e:a0:c4:b4:ec:53:1e:d3:f3:84:a1:71:f5:2e:
                    71:c3:81:8a:62:2b:75:04:49:b1:21:9b:fb:2f:6a:
                    20:42:4c:9e:63:bb:f5:5c:39:10:12:7b:2e:f8:93:
                    b2:1c:2f:16:a6:ec:46:e3:13:92:02:a1:ce:8c:9d:
                    b9:43:6f:94:2a:0f:fe:00:4f:26:b2:50:45:fe:2b:
                    7b:8c:e4:19:ef:23:9f:da:dd:a2:0c:10:33:18:e4:
                    3b:86:3b:c8:af:b8:7a:12:50:f6:ec:37:66:9e:5f:
                    4b:a0:f5:18:7b:ad:ea:09:3c:27:cb:90:a8:91:e7:
                    b4:19:89:ff:99:b3:fd:a3:2a:ab:94:bc:25:f5:1d:
                    15:a8:71:0f:d7:c7:9c:11:e3:9e:30:3e:29:bf:5b:
                    1f:01:21:44:09:e8:e3:1d:be:ba:72:19:2b:64:35:
                    41:7b:a7:c8:d5:42:7d:91:32:4c:87:47:e8:86:04:
                    db:41:9c:75:10:48:13:8a:10:80:71:d3:49:11:2f:
                    8e:f7:e0:7f:91:20:fd:bd:91:80:ab:c9:5a:13:f1:
                    2c:32:44:b0:2f:e3:fd:37:82:28:af:b2:4c:54:b6:
                    ad:d3:1f:39:a7:85:8b:7f:61:df:5f:e1:40:ff:bb:
                    06:cf:21
                Exponent: 65537 (0x10001)
        X509v3 extensions:
            X509v3 Basic Constraints: 
                CA:FALSE
            Netscape Comment: 
                Easy-RSA Generated Certificate
            X509v3 Subject Key Identifier: 
                E2:68:13:09:67:DF:09:00:96:65:11:7B:29:79:81:0C:C5:30:12:A8
            X509v3 Authority Key Identifier: 
                keyid:12:CD:60:04:D2:A0:80:9E:70:ED:C6:99:B8:7B:2C:C6:52:FD:19:A1
                DirName:/C=US/ST=OH/L=Columbus/O=VikingVPN/OU=MyOrganizationalUnit/CN=VikingVPN CA/name=EasyRSA/emailAddress=me@myhost.mydomain
                serial:CF:35:85:EE:80:BF:2A:3E

            X509v3 Extended Key Usage: 
                TLS Web Client Authentication
            X509v3 Key Usage: 
                Digital Signature
    Signature Algorithm: md5WithRSAEncryption
         e9:14:e3:03:a7:09:ec:5c:93:3e:d9:85:f5:2f:c9:19:c5:2b:
         b2:70:c6:6e:49:53:a3:6f:fe:4b:9f:ef:04:40:5a:a4:e9:39:
         a8:52:fd:d4:d4:c8:0a:ad:05:63:85:21:30:69:ee:e2:a3:5d:
         c7:6b:47:82:a0:0a:4d:40:a7:86:c8:a6:ee:bd:01:30:67:0d:
         6d:68:f0:45:97:a4:76:da:7c:54:c2:6f:bf:e8:d4:bf:b5:88:
         22:db:7a:d8:51:d0:1e:02:5f:34:04:f0:58:de:ac:44:37:d3:
         b5:9b:75:b5:56:25:f9:36:76:84:84:fd:f5:68:75:fd:9b:46:
         11:3f:2e:31:2a:05:d4:b6:91:a1:78:19:3f:a8:8c:01:f0:b6:
         b8:33:c3:ff:c8:1a:5b:f3:d5:5e:95:df:dc:1c:b6:49:19:06:
         20:23:f3:38:62:8d:54:4c:96:8c:1a:80:92:b6:d2:4d:0a:74:
         37:1a:0b:25:58:a9:06:dc:fc:02:fe:b4:0d:ce:49:32:c6:5c:
         91:ee:7e:e8:6b:4d:02:ce:4c:9d:dc:a3:53:37:0f:d2:35:03:
         4d:8d:34:ae:6c:e1:55:14:dd:cd:55:26:19:62:72:7c:8c:e5:
         f0:46:2c:0f:0b:eb:4e:44:74:72:07:16:87:d9:5a:68:97:01:
         f3:b8:da:a9:b1:b7:9d:b4:c7:cf:8e:6d:7d:47:fb:30:10:c4:
         a7:3d:86:94:0e:3a:bc:99:1a:83:32:91:c5:c5:9d:b2:16:76:
         59:be:e5:6c:60:f8:49:62:35:cc:3b:48:8e:31:b6:7e:e8:0d:
         5e:9b:3a:88:08:cb:27:07:27:37:26:de:f6:29:26:e6:37:9c:
         41:04:2d:1a:2e:87:87:e0:6f:02:2f:9c:60:a6:db:a3:73:43:
         62:dc:52:3f:29:f2:10:66:b2:9b:77:48:bb:93:14:6b:fe:2f:
         34:41:92:bf:d4:7a:41:8a:75:5e:8b:85:c6:a8:8c:b0:94:af:
         ea:ad:92:10:39:02:41:e5:9f:da:c9:3a:76:e6:53:72:e7:50:
         43:2c:50:ad:6a:1e:2b:c3:c9:61:d6:6d:d7:ec:9c:f3:38:f8:
         11:61:63:ef:67:02:67:7f:93:90:7b:a8:31:36:13:bd:b2:85:
         39:72:80:79:01:60:63:54:a7:c1:47:fe:c1:90:32:7e:3e:86:
         43:ba:1d:76:90:9b:a4:cd:60:eb:d2:9b:03:6f:ca:52:2f:51:
         76:f6:55:50:34:ce:1e:6c:42:db:77:d2:84:f2:17:76:f6:8b:
         b4:cf:b8:a4:0f:9f:16:9f:5b:4c:4c:db:cb:10:f1:e8:fe:e3:
         c8:8a:fe:8a:0c:b1:e0:3d
-----BEGIN CERTIFICATE-----
MIIGrTCCBJWgAwIBAgICFcUwDQYJKoZIhvcNAQEEBQAwgawxCzAJBgNVBAYTAlVT
MQswCQYDVQQIEwJPSDERMA8GA1UEBxMIQ29sdW1idXMxEjAQBgNVBAoTCVZpa2lu
Z1ZQTjEdMBsGA1UECxMUTXlPcmdhbml6YXRpb25hbFVuaXQxFTATBgNVBAMTDFZp
a2luZ1ZQTiBDQTEQMA4GA1UEKRMHRWFzeVJTQTEhMB8GCSqGSIb3DQEJARYSbWVA
bXlob3N0Lm15ZG9tYWluMB4XDTE1MDYxNzA5MjIzOFoXDTI1MDYxNDA5MjIzOFow
HzEdMBsGA1UEAxMUQ2xpZW50MTc2N0NlcnQyMGU4MzAwggIiMA0GCSqGSIb3DQEB
AQUAA4ICDwAwggIKAoICAQDQ8+I+uCbsBgeHI6QQUjpaks2yKHc/S3EddyH1a8oW
IuIePnghwtyOiJNgvp6Eg8ecm9lxYOc5JdNSEYwwR1rBvuwKkjCIlDcX5zAHg3If
9VeUoB4UsVK03TRBtSVEkEIY0XadHkSMz90QqbJGCecLvRCN0fYK5woBxJ310Eg1
DaRsen9z5+hTVorDR7YS/nNqvTqpUVwN69Xeog5NtKuvwtoJf3HS0O7qxkBu60yD
w1WxGhGp41bD/GsDEnxcR+a9KzWUtM38eKh10Mooa6nar9PjjNqH0nofMjmczemW
IF2kPUJzDOnimVsVb1Fn6KsQcry5a4LSck7PoeYE5KSq3xrPf2kgCK85MATGLY4u
oMS07FMe0/OEoXH1LnHDgYpiK3UESbEhm/svaiBCTJ5ju/VcORASey74k7IcLxam
7EbjE5ICoc6MnblDb5QqD/4ATyayUEX+K3uM5BnvI5/a3aIMEDMY5DuGO8ivuHoS
UPbsN2aeX0ug9Rh7reoJPCfLkKiR57QZif+Zs/2jKquUvCX1HRWocQ/Xx5wR454w
Pim/Wx8BIUQJ6OMdvrpyGStkNUF7p8jVQn2RMkyHR+iGBNtBnHUQSBOKEIBx00kR
L4734H+RIP29kYCryVoT8SwyRLAv4/03giivskxUtq3THzmnhYt/Yd9f4UD/uwbP
IQIDAQABo4IBYzCCAV8wCQYDVR0TBAIwADAtBglghkgBhvhCAQ0EIBYeRWFzeS1S
U0EgR2VuZXJhdGVkIENlcnRpZmljYXRlMB0GA1UdDgQWBBTiaBMJZ98JAJZlEXsp
eYEMxTASqDCB4QYDVR0jBIHZMIHWgBQSzWAE0qCAnnDtxpm4eyzGUv0ZoaGBsqSB
rzCBrDELMAkGA1UEBhMCVVMxCzAJBgNVBAgTAk9IMREwDwYDVQQHEwhDb2x1bWJ1
czESMBAGA1UEChMJVmlraW5nVlBOMR0wGwYDVQQLExRNeU9yZ2FuaXphdGlvbmFs
VW5pdDEVMBMGA1UEAxMMVmlraW5nVlBOIENBMRAwDgYDVQQpEwdFYXN5UlNBMSEw
HwYJKoZIhvcNAQkBFhJtZUBteWhvc3QubXlkb21haW6CCQDPNYXugL8qPjATBgNV
HSUEDDAKBggrBgEFBQcDAjALBgNVHQ8EBAMCB4AwDQYJKoZIhvcNAQEEBQADggIB
AOkU4wOnCexckz7ZhfUvyRnFK7Jwxm5JU6Nv/kuf7wRAWqTpOahS/dTUyAqtBWOF
ITBp7uKjXcdrR4KgCk1Ap4bIpu69ATBnDW1o8EWXpHbafFTCb7/o1L+1iCLbethR
0B4CXzQE8FjerEQ307WbdbVWJfk2doSE/fVodf2bRhE/LjEqBdS2kaF4GT+ojAHw
trgzw//IGlvz1V6V39wctkkZBiAj8zhijVRMlowagJK20k0KdDcaCyVYqQbc/AL+
tA3OSTLGXJHufuhrTQLOTJ3co1M3D9I1A02NNK5s4VUU3c1VJhlicnyM5fBGLA8L
605EdHIHFofZWmiXAfO42qmxt520x8+ObX1H+zAQxKc9hpQOOryZGoMykcXFnbIW
dlm+5Wxg+EliNcw7SI4xtn7oDV6bOogIyycHJzcm3vYpJuY3nEEELRouh4fgbwIv
nGCm26NzQ2LcUj8p8hBmspt3SLuTFGv+LzRBkr/UekGKdV6LhcaojLCUr+qtkhA5
AkHln9rJOnbmU3LnUEMsUK1qHivDyWHWbdfsnPM4+BFhY+9nAmd/k5B7qDE2E72y
hTlygHkBYGNUp8FH/sGQMn4+hkO6HXaQm6TNYOvSmwNvylIvUXb2VVA0zh5sQtt3
0oTyF3b2i7TPuKQPnxafW0xM28sQ8ej+48iK/ooMseA9
-----END CERTIFICATE-----
