Certificate:
    Data:
        Version: 3 (0x2)
        Serial Number: 5574 (0x15c6)
    Signature Algorithm: md5WithRSAEncryption
        Issuer: C=US, ST=OH, L=Columbus, O=VikingVPN, OU=MyOrganizationalUnit, CN=VikingVPN CA/name=EasyRSA/emailAddress=me@myhost.mydomain
        Validity
            Not Before: Jun 17 09:27:27 2015 GMT
            Not After : Jun 14 09:27:27 2025 GMT
        Subject: CN=Client1767Cert37425b
        Subject Public Key Info:
            Public Key Algorithm: rsaEncryption
                Public-Key: (4096 bit)
                Modulus:
                    00:a5:e2:d4:cf:e2:ab:6e:49:2f:ab:9f:40:ea:7e:
                    cc:ff:c5:56:e0:71:5a:7f:64:75:68:98:d1:d6:a2:
                    b6:f9:99:3d:bb:c4:b2:8a:6e:cb:75:00:ff:85:a9:
                    1b:8f:00:00:97:4e:da:80:4c:86:79:94:52:84:d9:
                    41:05:16:fa:3f:ed:64:26:32:d2:04:c0:50:0b:7c:
                    30:f6:f5:f5:fd:1e:1c:3a:5a:80:78:bb:f7:06:90:
                    8b:4a:bf:0e:4a:fe:f4:a1:5b:aa:d3:e3:db:ea:15:
                    2e:fa:92:42:4b:54:ae:a7:3f:ee:a9:e4:c7:01:e4:
                    8d:12:72:8a:ae:17:6a:1c:7b:c1:62:d4:c5:27:cc:
                    9f:cc:64:a3:ac:23:87:1d:35:1e:06:2b:e8:d8:f8:
                    e7:5e:74:12:62:6a:a0:69:31:f0:dd:84:33:e1:86:
                    06:0f:16:fd:df:f4:65:67:7e:96:9c:ff:bf:fd:50:
                    85:2e:5e:57:63:8f:4e:5f:74:6f:a7:42:83:4d:0a:
                    fb:91:2f:f9:5d:df:56:dd:05:11:a1:ac:53:9a:37:
                    2a:d9:7f:ae:f9:47:61:b0:d0:52:7f:51:54:ec:33:
                    bd:a8:9f:87:e1:9e:be:36:3a:93:73:0c:bd:90:f3:
                    7b:83:f8:e9:08:78:84:e9:e5:9d:57:a9:4a:d4:4c:
                    b9:3f:d9:bd:0a:2f:ba:1b:8d:9f:d9:f1:b7:51:90:
                    58:67:62:be:04:d9:47:fb:3e:cc:00:c8:6e:b5:5e:
                    a6:31:f1:02:c4:ba:c2:6a:2e:f0:23:ff:d1:0d:ed:
                    b7:8b:28:ec:8f:7c:d6:39:b7:8f:06:6e:56:f0:84:
                    51:c0:e3:28:04:6b:cf:19:c8:d7:6d:53:2f:43:46:
                    8f:46:d9:3a:7c:f2:51:89:1a:64:40:2a:76:12:01:
                    10:62:6b:1c:e6:52:ad:f1:aa:4b:d8:0f:2a:e7:3d:
                    52:ec:93:10:1f:1e:21:75:e8:88:f8:59:40:47:59:
                    5f:30:6d:32:3e:36:32:fb:c7:2c:c7:d8:7f:34:3c:
                    9a:24:5d:d0:df:64:e7:9c:42:a1:2f:4b:8d:a3:0c:
                    41:c6:77:fd:24:82:30:79:b2:f9:be:ca:96:f2:19:
                    6c:c3:5c:24:29:c6:a8:70:3e:cb:62:d4:69:ba:d3:
                    36:44:d3:ae:39:1e:de:bd:bf:91:29:46:b8:12:40:
                    18:b7:f7:b4:89:cc:44:c4:a9:d7:5e:d2:b5:a7:6b:
                    f5:eb:b1:00:85:cc:81:cc:6e:b7:bf:09:fd:be:68:
                    e2:82:a3:33:fc:7f:a6:fb:b6:1e:49:71:47:68:19:
                    00:9a:04:4b:e0:f3:47:f3:c8:65:99:b7:db:99:93:
                    39:1c:13
                Exponent: 65537 (0x10001)
        X509v3 extensions:
            X509v3 Basic Constraints: 
                CA:FALSE
            Netscape Comment: 
                Easy-RSA Generated Certificate
            X509v3 Subject Key Identifier: 
                AD:AF:41:7F:DE:08:BA:B2:14:62:67:94:FF:6E:DD:ED:6C:EE:35:9E
            X509v3 Authority Key Identifier: 
                keyid:12:CD:60:04:D2:A0:80:9E:70:ED:C6:99:B8:7B:2C:C6:52:FD:19:A1
                DirName:/C=US/ST=OH/L=Columbus/O=VikingVPN/OU=MyOrganizationalUnit/CN=VikingVPN CA/name=EasyRSA/emailAddress=me@myhost.mydomain
                serial:CF:35:85:EE:80:BF:2A:3E

            X509v3 Extended Key Usage: 
                TLS Web Client Authentication
            X509v3 Key Usage: 
                Digital Signature
    Signature Algorithm: md5WithRSAEncryption
         de:cd:eb:69:de:f0:ed:69:16:ef:10:40:af:29:63:9b:e1:cf:
         a5:d4:f6:1f:c6:b8:37:d4:03:fa:87:70:42:33:f4:67:7b:16:
         45:95:f8:b6:db:e6:6c:59:60:92:85:05:2a:38:05:46:c2:29:
         e5:f9:a5:0d:2f:b4:62:3c:2f:c0:89:36:03:f3:b0:0a:94:f5:
         6c:ec:88:13:07:79:38:e1:7a:b7:67:85:63:8b:61:88:b9:36:
         28:75:a1:9f:bc:49:3b:dd:8c:a6:e8:e0:1b:89:7a:27:4d:72:
         26:ef:9c:e9:14:61:3b:73:fd:80:a5:e8:e7:36:74:c9:0b:04:
         37:37:d6:be:e8:77:d1:d3:cd:83:99:0e:2b:4b:de:f7:86:0b:
         a2:07:7e:33:19:e0:15:02:f1:f7:2a:39:42:11:81:02:ed:3e:
         c0:da:ee:49:9a:09:c8:34:ca:ee:5d:f3:08:79:4d:07:d6:18:
         1f:f8:ed:87:1d:f9:5e:41:af:7c:1e:f0:b0:51:40:97:98:c8:
         47:53:36:7f:00:02:8f:f8:64:88:18:e4:86:31:9f:bb:13:48:
         bb:c6:d5:c9:a2:ba:f3:a2:74:f9:76:04:48:f7:da:ea:90:96:
         92:53:1f:5e:32:32:e9:6a:3a:d6:cd:f4:21:7c:b9:dc:74:45:
         64:93:62:af:a1:98:c8:c5:29:4c:bf:fb:9c:c0:cb:26:20:2d:
         19:a7:38:0b:4a:f9:2f:6c:0d:5a:f6:1d:1f:07:f2:78:10:6d:
         42:c7:6a:b8:84:1b:50:53:66:e9:de:8d:18:1f:65:f2:f7:cb:
         ef:11:96:1c:78:db:ec:75:d7:60:68:08:ad:9d:06:d8:f1:7a:
         12:cb:d0:1c:bf:4b:69:21:bb:e7:ab:86:3d:41:83:3c:34:93:
         c9:de:92:64:32:1a:7b:01:82:1e:78:90:97:cd:76:2e:57:16:
         3a:62:2e:af:3c:8c:ec:ad:1a:ca:fc:83:d7:48:8c:a9:9a:e4:
         90:22:95:ee:0b:97:25:45:17:f1:a6:a5:c2:22:b0:95:e0:67:
         09:47:5d:7a:b8:0a:49:5c:7f:9b:27:e3:7b:1a:64:16:dd:07:
         6d:9b:0a:a2:00:22:cc:ba:66:f1:7b:5c:d3:d8:03:8a:7e:b3:
         c1:88:dd:37:60:a6:69:49:81:c1:58:75:48:01:5d:0a:a2:7b:
         1f:97:6b:81:42:57:d2:2d:c5:0d:ea:2c:7b:4e:c0:e4:17:71:
         52:fe:99:40:e0:89:e8:86:20:41:4a:26:1c:31:d8:77:e4:44:
         4f:64:ed:f4:21:bf:88:57:c9:93:b7:e8:ec:f5:f5:f4:67:39:
         9a:5c:f2:4f:e4:49:4a:10
-----BEGIN CERTIFICATE-----
MIIGrTCCBJWgAwIBAgICFcYwDQYJKoZIhvcNAQEEBQAwgawxCzAJBgNVBAYTAlVT
MQswCQYDVQQIEwJPSDERMA8GA1UEBxMIQ29sdW1idXMxEjAQBgNVBAoTCVZpa2lu
Z1ZQTjEdMBsGA1UECxMUTXlPcmdhbml6YXRpb25hbFVuaXQxFTATBgNVBAMTDFZp
a2luZ1ZQTiBDQTEQMA4GA1UEKRMHRWFzeVJTQTEhMB8GCSqGSIb3DQEJARYSbWVA
bXlob3N0Lm15ZG9tYWluMB4XDTE1MDYxNzA5MjcyN1oXDTI1MDYxNDA5MjcyN1ow
HzEdMBsGA1UEAxMUQ2xpZW50MTc2N0NlcnQzNzQyNWIwggIiMA0GCSqGSIb3DQEB
AQUAA4ICDwAwggIKAoICAQCl4tTP4qtuSS+rn0Dqfsz/xVbgcVp/ZHVomNHWorb5
mT27xLKKbst1AP+FqRuPAACXTtqATIZ5lFKE2UEFFvo/7WQmMtIEwFALfDD29fX9
Hhw6WoB4u/cGkItKvw5K/vShW6rT49vqFS76kkJLVK6nP+6p5McB5I0ScoquF2oc
e8Fi1MUnzJ/MZKOsI4cdNR4GK+jY+OdedBJiaqBpMfDdhDPhhgYPFv3f9GVnfpac
/7/9UIUuXldjj05fdG+nQoNNCvuRL/ld31bdBRGhrFOaNyrZf675R2Gw0FJ/UVTs
M72on4fhnr42OpNzDL2Q83uD+OkIeITp5Z1XqUrUTLk/2b0KL7objZ/Z8bdRkFhn
Yr4E2Uf7PswAyG61XqYx8QLEusJqLvAj/9EN7beLKOyPfNY5t48GblbwhFHA4ygE
a88ZyNdtUy9DRo9G2Tp88lGJGmRAKnYSARBiaxzmUq3xqkvYDyrnPVLskxAfHiF1
6Ij4WUBHWV8wbTI+NjL7xyzH2H80PJokXdDfZOecQqEvS42jDEHGd/0kgjB5svm+
ypbyGWzDXCQpxqhwPsti1Gm60zZE0645Ht69v5EpRrgSQBi397SJzETEqdde0rWn
a/XrsQCFzIHMbre/Cf2+aOKCozP8f6b7th5JcUdoGQCaBEvg80fzyGWZt9uZkzkc
EwIDAQABo4IBYzCCAV8wCQYDVR0TBAIwADAtBglghkgBhvhCAQ0EIBYeRWFzeS1S
U0EgR2VuZXJhdGVkIENlcnRpZmljYXRlMB0GA1UdDgQWBBStr0F/3gi6shRiZ5T/
bt3tbO41njCB4QYDVR0jBIHZMIHWgBQSzWAE0qCAnnDtxpm4eyzGUv0ZoaGBsqSB
rzCBrDELMAkGA1UEBhMCVVMxCzAJBgNVBAgTAk9IMREwDwYDVQQHEwhDb2x1bWJ1
czESMBAGA1UEChMJVmlraW5nVlBOMR0wGwYDVQQLExRNeU9yZ2FuaXphdGlvbmFs
VW5pdDEVMBMGA1UEAxMMVmlraW5nVlBOIENBMRAwDgYDVQQpEwdFYXN5UlNBMSEw
HwYJKoZIhvcNAQkBFhJtZUBteWhvc3QubXlkb21haW6CCQDPNYXugL8qPjATBgNV
HSUEDDAKBggrBgEFBQcDAjALBgNVHQ8EBAMCB4AwDQYJKoZIhvcNAQEEBQADggIB
AN7N62ne8O1pFu8QQK8pY5vhz6XU9h/GuDfUA/qHcEIz9Gd7FkWV+Lbb5mxZYJKF
BSo4BUbCKeX5pQ0vtGI8L8CJNgPzsAqU9WzsiBMHeTjherdnhWOLYYi5Nih1oZ+8
STvdjKbo4BuJeidNcibvnOkUYTtz/YCl6Oc2dMkLBDc31r7od9HTzYOZDitL3veG
C6IHfjMZ4BUC8fcqOUIRgQLtPsDa7kmaCcg0yu5d8wh5TQfWGB/47Ycd+V5Br3we
8LBRQJeYyEdTNn8AAo/4ZIgY5IYxn7sTSLvG1cmiuvOidPl2BEj32uqQlpJTH14y
MulqOtbN9CF8udx0RWSTYq+hmMjFKUy/+5zAyyYgLRmnOAtK+S9sDVr2HR8H8ngQ
bULHariEG1BTZunejRgfZfL3y+8Rlhx42+x112BoCK2dBtjxehLL0By/S2khu+er
hj1Bgzw0k8nekmQyGnsBgh54kJfNdi5XFjpiLq88jOytGsr8g9dIjKma5JAile4L
lyVFF/GmpcIisJXgZwlHXXq4Cklcf5sn43saZBbdB22bCqIAIsy6ZvF7XNPYA4p+
s8GI3TdgpmlJgcFYdUgBXQqiex+Xa4FCV9ItxQ3qLHtOwOQXcVL+mUDgieiGIEFK
Jhwx2HfkRE9k7fQhv4hXyZO36Oz19fRnOZpc8k/kSUoQ
-----END CERTIFICATE-----
