Certificate:
    Data:
        Version: 3 (0x2)
        Serial Number: 5577 (0x15c9)
    Signature Algorithm: md5WithRSAEncryption
        Issuer: C=US, ST=OH, L=Columbus, O=VikingVPN, OU=MyOrganizationalUnit, CN=VikingVPN CA/name=EasyRSA/emailAddress=me@myhost.mydomain
        Validity
            Not Before: Jun 17 21:54:12 2015 GMT
            Not After : Jun 14 21:54:12 2025 GMT
        Subject: CN=Client1769Certa97ac8
        Subject Public Key Info:
            Public Key Algorithm: rsaEncryption
                Public-Key: (4096 bit)
                Modulus:
                    00:f3:66:d5:95:2d:36:46:87:d2:ea:04:d7:28:78:
                    f1:29:79:53:6e:e0:02:59:ed:f4:d6:39:7e:8a:cb:
                    f2:11:e5:96:6e:c9:fe:91:62:b0:91:a0:a2:00:9e:
                    2e:e3:6c:ba:44:cf:0f:f0:68:c8:7e:35:a0:65:21:
                    7b:dc:df:c9:29:ba:0b:30:07:b9:a6:16:46:f4:1b:
                    ad:ec:30:ae:ab:20:02:0d:fa:73:5b:29:00:aa:7b:
                    68:f5:ca:63:69:98:ed:75:af:76:8e:b1:7d:fb:03:
                    5e:b2:61:1d:d6:fc:59:97:2a:43:5b:ab:25:43:0c:
                    f8:f1:c4:be:72:e1:67:f7:68:6d:ed:a8:ce:61:cd:
                    0a:a2:73:00:1b:80:dc:92:c5:b3:d6:7d:b9:76:89:
                    a8:de:11:18:a1:d5:1a:b5:ac:3f:17:d5:a2:3c:d8:
                    c0:04:37:b5:f8:b3:79:54:8a:2c:41:1e:6a:27:6b:
                    d7:64:26:de:6c:25:fb:7d:3d:fa:db:d4:06:77:b9:
                    f1:0a:02:cf:44:cb:1c:1e:6e:fa:71:da:13:2a:7b:
                    65:09:6d:8f:a4:fb:ce:e0:b9:ed:3f:ac:97:11:a2:
                    fa:6f:9c:4a:11:1f:b9:85:18:2b:09:7d:c3:e9:5f:
                    f8:a4:f6:91:ab:88:ee:9d:90:b4:d2:14:56:8d:93:
                    00:cd:45:db:5e:1e:24:90:e6:a0:fc:c9:9b:3c:ba:
                    52:87:bc:b4:ac:13:d6:9b:61:2e:89:ac:95:3b:23:
                    d8:6b:0a:c1:bd:dd:78:38:bf:ad:70:de:f0:4b:70:
                    05:e3:bc:83:83:c8:29:2e:5b:40:10:16:68:21:27:
                    f9:e1:5d:1c:91:e2:e3:26:ad:43:be:8e:7a:3e:17:
                    2a:ee:18:b4:8f:8a:a9:42:63:53:8e:f9:5a:6f:57:
                    db:96:25:09:ed:0c:e4:ca:18:64:4c:e5:c1:c4:d8:
                    18:77:49:7a:18:f2:b1:1f:c4:36:1e:a9:44:d3:96:
                    0e:85:ec:17:0f:80:3c:ce:0d:22:11:cc:75:a4:f2:
                    93:56:23:5f:e9:da:c9:46:4a:f8:25:fe:57:e6:36:
                    2b:f9:ad:d3:91:ca:68:6b:cf:cd:fa:e1:56:f2:ba:
                    58:a2:c4:e4:1c:c8:b2:c4:14:7f:5d:40:35:7e:5d:
                    ec:5e:c7:d6:44:1e:8b:46:62:05:27:bc:ec:93:b7:
                    91:58:17:d3:7e:b9:c7:26:b1:8a:36:e3:ea:a1:8b:
                    e0:80:66:60:b6:14:2e:54:94:48:a2:16:16:7a:a8:
                    82:cf:35:f8:9e:90:36:78:da:1b:21:52:92:5e:37:
                    d2:df:3c:b9:41:ef:d7:93:c5:07:e1:c1:e6:e0:09:
                    70:43:05
                Exponent: 65537 (0x10001)
        X509v3 extensions:
            X509v3 Basic Constraints: 
                CA:FALSE
            Netscape Comment: 
                Easy-RSA Generated Certificate
            X509v3 Subject Key Identifier: 
                65:73:2D:C2:7D:1D:92:47:5C:3C:4B:C3:F3:09:B3:6B:A9:12:57:FF
            X509v3 Authority Key Identifier: 
                keyid:12:CD:60:04:D2:A0:80:9E:70:ED:C6:99:B8:7B:2C:C6:52:FD:19:A1
                DirName:/C=US/ST=OH/L=Columbus/O=VikingVPN/OU=MyOrganizationalUnit/CN=VikingVPN CA/name=EasyRSA/emailAddress=me@myhost.mydomain
                serial:CF:35:85:EE:80:BF:2A:3E

            X509v3 Extended Key Usage: 
                TLS Web Client Authentication
            X509v3 Key Usage: 
                Digital Signature
    Signature Algorithm: md5WithRSAEncryption
         a1:c9:d3:d7:e6:f7:fe:c8:76:12:6c:a0:d7:b4:8f:bc:dc:d1:
         63:aa:cb:cf:36:e3:f5:02:a7:08:42:8e:79:e3:0c:ac:38:f8:
         0a:39:d3:cc:b6:f6:72:72:32:bd:21:f2:f3:74:de:ba:e3:0e:
         a6:77:65:e6:b2:67:6f:4e:c9:91:2b:66:bb:6a:ed:30:0e:52:
         8c:9f:d3:a9:42:72:1d:de:34:af:a4:a4:5a:bc:2b:af:a1:a5:
         55:5f:ed:75:c2:25:ab:ed:2e:6d:2d:06:89:1f:e5:ff:16:56:
         15:cb:2b:7a:5d:ba:9d:4d:b5:64:ad:9c:72:6f:c2:fc:4d:56:
         f3:d5:bc:91:c8:68:8d:b8:d5:a1:eb:9e:57:2d:96:50:95:25:
         de:42:d8:e1:d9:66:92:1a:8c:5e:36:6b:e1:e0:b9:4f:4b:46:
         91:5e:e0:9f:d6:5b:7c:14:5a:d8:2a:c6:bd:4b:b2:76:2e:11:
         04:ab:6d:fe:64:d8:c8:04:db:20:dc:e1:96:cd:b0:b1:82:46:
         ab:0b:1e:c2:a8:6a:f4:72:96:e8:b6:8c:f8:f3:1a:94:d4:31:
         a4:cd:39:ca:b2:0c:fe:55:6a:52:3d:f2:65:a2:c2:aa:97:62:
         d9:74:86:35:b9:d7:dc:89:30:9b:e9:f2:76:33:f2:40:28:62:
         b6:cb:35:ea:d3:e2:18:38:44:b7:04:bd:61:e3:fc:cc:c6:a3:
         61:01:aa:8b:55:f8:12:88:41:8c:4e:68:9a:30:03:c1:10:8c:
         73:c4:a6:ed:ec:7a:f1:00:38:bf:d4:0f:c5:ad:73:b5:27:a7:
         6a:84:25:b8:af:79:aa:d6:fb:21:7d:ed:ae:a6:95:4b:be:72:
         a5:96:16:9e:cf:bc:21:5c:a6:ee:6d:8d:9f:06:7b:b4:d9:97:
         b7:c6:ed:6b:fb:bd:e9:44:99:2d:a3:8c:ec:b7:ff:80:b2:6c:
         e1:38:99:2f:f9:ec:74:32:7b:40:8e:b6:63:4f:6e:5a:3f:bc:
         de:62:03:0c:67:1f:aa:f8:ff:4f:9c:27:86:9f:49:5b:ea:62:
         47:63:48:08:ad:c9:88:a4:6a:aa:d4:fa:30:7b:b3:2a:ad:63:
         9a:46:81:33:0c:fe:cb:cb:49:a1:63:3f:85:72:fe:6f:9d:a9:
         40:64:8b:1d:71:5f:44:43:a8:c3:8c:88:cf:00:1e:c2:e0:63:
         e4:fc:32:30:35:fd:3d:49:c3:7e:a1:66:ab:fb:ba:0d:90:68:
         db:7e:c6:03:a7:74:2c:26:35:91:ba:c3:ad:91:5e:b5:0d:7d:
         4e:92:28:cf:81:5b:54:2d:d7:8c:c7:95:25:27:42:4a:c6:20:
         ea:fc:8e:f3:5d:76:b9:5a
-----BEGIN CERTIFICATE-----
MIIGrTCCBJWgAwIBAgICFckwDQYJKoZIhvcNAQEEBQAwgawxCzAJBgNVBAYTAlVT
MQswCQYDVQQIEwJPSDERMA8GA1UEBxMIQ29sdW1idXMxEjAQBgNVBAoTCVZpa2lu
Z1ZQTjEdMBsGA1UECxMUTXlPcmdhbml6YXRpb25hbFVuaXQxFTATBgNVBAMTDFZp
a2luZ1ZQTiBDQTEQMA4GA1UEKRMHRWFzeVJTQTEhMB8GCSqGSIb3DQEJARYSbWVA
bXlob3N0Lm15ZG9tYWluMB4XDTE1MDYxNzIxNTQxMloXDTI1MDYxNDIxNTQxMlow
HzEdMBsGA1UEAxMUQ2xpZW50MTc2OUNlcnRhOTdhYzgwggIiMA0GCSqGSIb3DQEB
AQUAA4ICDwAwggIKAoICAQDzZtWVLTZGh9LqBNcoePEpeVNu4AJZ7fTWOX6Ky/IR
5ZZuyf6RYrCRoKIAni7jbLpEzw/waMh+NaBlIXvc38kpugswB7mmFkb0G63sMK6r
IAIN+nNbKQCqe2j1ymNpmO11r3aOsX37A16yYR3W/FmXKkNbqyVDDPjxxL5y4Wf3
aG3tqM5hzQqicwAbgNySxbPWfbl2iajeERih1Rq1rD8X1aI82MAEN7X4s3lUiixB
Hmona9dkJt5sJft9Pfrb1AZ3ufEKAs9Eyxwebvpx2hMqe2UJbY+k+87gue0/rJcR
ovpvnEoRH7mFGCsJfcPpX/ik9pGriO6dkLTSFFaNkwDNRdteHiSQ5qD8yZs8ulKH
vLSsE9abYS6JrJU7I9hrCsG93Xg4v61w3vBLcAXjvIODyCkuW0AQFmghJ/nhXRyR
4uMmrUO+jno+FyruGLSPiqlCY1OO+VpvV9uWJQntDOTKGGRM5cHE2Bh3SXoY8rEf
xDYeqUTTlg6F7BcPgDzODSIRzHWk8pNWI1/p2slGSvgl/lfmNiv5rdORymhrz836
4VbyuliixOQcyLLEFH9dQDV+Xexex9ZEHotGYgUnvOyTt5FYF9N+uccmsYo24+qh
i+CAZmC2FC5UlEiiFhZ6qILPNfiekDZ42hshUpJeN9LfPLlB79eTxQfhwebgCXBD
BQIDAQABo4IBYzCCAV8wCQYDVR0TBAIwADAtBglghkgBhvhCAQ0EIBYeRWFzeS1S
U0EgR2VuZXJhdGVkIENlcnRpZmljYXRlMB0GA1UdDgQWBBRlcy3CfR2SR1w8S8Pz
CbNrqRJX/zCB4QYDVR0jBIHZMIHWgBQSzWAE0qCAnnDtxpm4eyzGUv0ZoaGBsqSB
rzCBrDELMAkGA1UEBhMCVVMxCzAJBgNVBAgTAk9IMREwDwYDVQQHEwhDb2x1bWJ1
czESMBAGA1UEChMJVmlraW5nVlBOMR0wGwYDVQQLExRNeU9yZ2FuaXphdGlvbmFs
VW5pdDEVMBMGA1UEAxMMVmlraW5nVlBOIENBMRAwDgYDVQQpEwdFYXN5UlNBMSEw
HwYJKoZIhvcNAQkBFhJtZUBteWhvc3QubXlkb21haW6CCQDPNYXugL8qPjATBgNV
HSUEDDAKBggrBgEFBQcDAjALBgNVHQ8EBAMCB4AwDQYJKoZIhvcNAQEEBQADggIB
AKHJ09fm9/7IdhJsoNe0j7zc0WOqy8824/UCpwhCjnnjDKw4+Ao508y29nJyMr0h
8vN03rrjDqZ3ZeayZ29OyZErZrtq7TAOUoyf06lCch3eNK+kpFq8K6+hpVVf7XXC
JavtLm0tBokf5f8WVhXLK3pdup1NtWStnHJvwvxNVvPVvJHIaI241aHrnlctllCV
Jd5C2OHZZpIajF42a+HguU9LRpFe4J/WW3wUWtgqxr1LsnYuEQSrbf5k2MgE2yDc
4ZbNsLGCRqsLHsKoavRylui2jPjzGpTUMaTNOcqyDP5ValI98mWiwqqXYtl0hjW5
19yJMJvp8nYz8kAoYrbLNerT4hg4RLcEvWHj/MzGo2EBqotV+BKIQYxOaJowA8EQ
jHPEpu3sevEAOL/UD8Wtc7Unp2qEJbivearW+yF97a6mlUu+cqWWFp7PvCFcpu5t
jZ8Ge7TZl7fG7Wv7velEmS2jjOy3/4CybOE4mS/57HQye0COtmNPblo/vN5iAwxn
H6r4/0+cJ4afSVvqYkdjSAityYikaqrU+jB7syqtY5pGgTMM/svLSaFjP4Vy/m+d
qUBkix1xX0RDqMOMiM8AHsLgY+T8MjA1/T1Jw36hZqv7ug2QaNt+xgOndCwmNZG6
w62RXrUNfU6SKM+BW1Qt14zHlSUnQkrGIOr8jvNddrla
-----END CERTIFICATE-----
