Certificate:
    Data:
        Version: 3 (0x2)
        Serial Number: 5619 (0x15f3)
    Signature Algorithm: md5WithRSAEncryption
        Issuer: C=US, ST=OH, L=Columbus, O=VikingVPN, OU=MyOrganizationalUnit, CN=VikingVPN CA/name=EasyRSA/emailAddress=me@myhost.mydomain
        Validity
            Not Before: Jun 23 12:35:12 2015 GMT
            Not After : Jun 20 12:35:12 2025 GMT
        Subject: CN=Client955Cert9bd174
        Subject Public Key Info:
            Public Key Algorithm: rsaEncryption
                Public-Key: (4096 bit)
                Modulus:
                    00:bd:a7:e5:74:82:49:ca:c7:22:c1:9b:9e:61:1a:
                    d6:64:14:9e:66:85:d3:c3:5d:d6:a6:ff:43:99:45:
                    e3:bb:43:ce:47:6a:41:8e:8c:f7:4d:e8:88:b6:74:
                    10:bd:4c:eb:8a:52:2c:73:a6:e3:cd:c7:d3:28:a6:
                    f5:68:a1:0d:69:3a:f3:ff:13:09:cd:98:37:74:a8:
                    70:45:5d:a1:de:da:ce:82:00:ff:c6:07:19:46:c1:
                    a1:d5:59:67:a2:89:d7:f8:4e:db:ba:50:79:7a:4f:
                    af:58:9e:a8:14:b7:1a:85:37:a6:e3:4c:93:f0:07:
                    4d:bc:fc:6e:8c:8a:32:17:44:bb:8d:47:13:e6:db:
                    7e:14:62:5a:ec:b6:29:f9:91:a2:45:9b:62:12:f7:
                    80:cc:c3:bb:60:bc:51:ab:ff:ce:94:a7:7b:e7:60:
                    1c:de:18:3d:33:f1:8d:4d:27:a1:5a:48:eb:59:27:
                    e3:40:67:e9:85:07:02:1f:3d:6f:27:a0:5e:ff:71:
                    90:c2:ad:90:65:02:2f:22:7b:c4:f3:5a:e3:9f:de:
                    ae:34:b8:1a:db:ba:cc:d8:7f:e1:5f:96:5c:4e:2c:
                    83:b2:d8:bb:08:79:50:6f:96:33:83:67:57:20:c3:
                    59:ce:90:c8:8d:50:e2:ab:91:04:11:2c:6e:c9:13:
                    60:ca:5b:61:3f:46:16:c2:03:32:f2:1a:b9:f6:1a:
                    af:a3:71:00:5f:a2:dd:06:bc:64:2e:18:2b:aa:2a:
                    be:8d:99:55:e7:e7:50:26:4c:89:1b:d3:e6:38:d2:
                    6b:8e:9c:74:db:91:21:c1:3a:6e:52:4e:76:88:9b:
                    02:96:fa:04:bb:1f:c4:18:45:e4:f3:10:f6:c6:e0:
                    67:7e:b6:65:a7:44:a1:ca:5d:fb:b1:dc:b8:91:49:
                    fa:9c:2b:2d:84:93:01:5e:68:85:f8:02:05:90:3d:
                    07:50:e0:9e:4d:c7:2d:df:a7:77:d8:4b:5c:25:2b:
                    57:2a:fc:07:0e:eb:a6:11:e1:54:39:ac:59:d1:3d:
                    36:63:36:64:6a:16:75:27:44:ca:0b:af:c9:2c:45:
                    34:52:c1:33:f1:45:8c:33:d7:92:2e:ef:9c:49:b5:
                    56:8b:bb:f9:69:29:7c:1f:62:c6:09:61:1a:90:2e:
                    7f:8d:52:3a:c6:86:9f:75:2b:59:94:92:b2:c5:1b:
                    27:34:a9:8e:c6:58:50:6f:2c:d2:4b:c9:a8:32:b9:
                    b0:8d:e1:4f:4c:91:92:cc:c5:61:16:9b:23:93:c0:
                    81:67:cc:04:27:2b:dd:e1:a0:bb:4c:16:93:7f:1c:
                    39:29:b4:4d:af:05:a0:e3:cf:8d:8a:0e:33:91:81:
                    80:2d:ad
                Exponent: 65537 (0x10001)
        X509v3 extensions:
            X509v3 Basic Constraints: 
                CA:FALSE
            Netscape Comment: 
                Easy-RSA Generated Certificate
            X509v3 Subject Key Identifier: 
                20:63:F2:9F:5C:DF:FB:1C:56:64:3C:10:98:22:27:23:8D:91:EB:D9
            X509v3 Authority Key Identifier: 
                keyid:12:CD:60:04:D2:A0:80:9E:70:ED:C6:99:B8:7B:2C:C6:52:FD:19:A1
                DirName:/C=US/ST=OH/L=Columbus/O=VikingVPN/OU=MyOrganizationalUnit/CN=VikingVPN CA/name=EasyRSA/emailAddress=me@myhost.mydomain
                serial:CF:35:85:EE:80:BF:2A:3E

            X509v3 Extended Key Usage: 
                TLS Web Client Authentication
            X509v3 Key Usage: 
                Digital Signature
    Signature Algorithm: md5WithRSAEncryption
         7d:6f:e9:77:f2:98:eb:87:53:81:db:b4:f5:ee:ca:da:c0:ea:
         e1:32:76:27:e0:f4:93:83:12:d1:43:04:8f:76:0a:3b:eb:55:
         ad:d3:f9:21:1e:39:e8:af:15:26:54:dd:ed:57:0f:7f:66:8f:
         28:26:c9:89:92:1b:a8:3d:89:12:74:2e:58:8f:7b:5b:00:cd:
         48:c0:63:5c:a0:63:ee:2b:66:3b:52:fe:e8:23:d8:40:df:a4:
         1c:e3:a2:e1:20:2c:16:f0:8d:52:9b:5b:03:c3:81:38:b5:59:
         18:23:04:9a:28:55:92:78:f3:0d:bd:4a:01:b3:ea:6e:55:26:
         40:dc:c2:41:cb:a3:77:fa:4b:eb:01:60:98:17:e3:08:0b:42:
         b9:43:27:f1:86:f0:ca:79:f7:ba:76:82:e6:14:5c:dd:56:8b:
         6f:9f:2e:e0:07:da:18:77:4d:5c:b4:4f:64:7d:2f:4d:b9:af:
         8e:2b:db:23:3e:4d:6a:a8:19:92:be:84:56:7b:90:4f:1f:f4:
         ff:78:f4:d6:d9:60:f1:d3:be:e2:69:59:50:c6:e7:63:93:ed:
         5a:4f:ca:4e:e9:52:d1:0e:a7:7f:d5:6f:e1:5f:36:e7:41:08:
         41:b5:5b:22:39:09:83:22:54:c5:b6:43:7d:77:f9:c0:9e:18:
         5b:2d:c5:03:be:c7:f1:77:35:f8:2e:64:9e:2d:74:12:44:d6:
         24:27:57:8d:d2:8f:6a:7b:c6:66:78:a4:58:44:aa:2d:56:23:
         38:99:3f:6f:ed:ae:67:43:af:37:9f:83:87:6a:c8:d8:4f:bb:
         19:6b:ed:66:08:07:47:f6:fa:e3:fc:da:83:ad:a7:36:cd:72:
         83:2a:9f:7a:17:52:70:a7:17:fa:35:41:87:a5:e0:5c:4c:69:
         cf:fe:ec:25:1f:7d:5f:13:b6:ba:d9:3f:be:0c:20:9b:9d:57:
         86:b6:99:b8:8e:85:85:a8:70:f4:e2:4e:df:4e:37:e5:1e:8f:
         cf:07:ab:39:8b:ae:22:3e:f3:5f:59:6f:4e:91:98:45:aa:c1:
         c3:af:0a:75:b3:14:86:be:46:5d:15:de:68:18:bb:16:bd:ae:
         4e:ae:1b:9b:52:a0:66:6f:53:09:c6:d1:0d:9c:da:69:49:43:
         c1:26:43:d5:f1:44:d8:94:89:ef:bd:9e:c8:37:66:aa:f4:63:
         29:3c:e7:e2:6e:8a:26:24:21:3b:f0:c8:89:85:9e:b8:5d:1f:
         a9:23:d8:65:e2:8a:a6:73:fd:8b:14:5c:fa:26:6b:d3:76:37:
         28:70:03:7a:9b:36:dd:74:b4:cb:9c:86:c7:8e:02:f6:ee:6d:
         f3:87:a7:68:38:e2:06:81
-----BEGIN CERTIFICATE-----
MIIGrDCCBJSgAwIBAgICFfMwDQYJKoZIhvcNAQEEBQAwgawxCzAJBgNVBAYTAlVT
MQswCQYDVQQIEwJPSDERMA8GA1UEBxMIQ29sdW1idXMxEjAQBgNVBAoTCVZpa2lu
Z1ZQTjEdMBsGA1UECxMUTXlPcmdhbml6YXRpb25hbFVuaXQxFTATBgNVBAMTDFZp
a2luZ1ZQTiBDQTEQMA4GA1UEKRMHRWFzeVJTQTEhMB8GCSqGSIb3DQEJARYSbWVA
bXlob3N0Lm15ZG9tYWluMB4XDTE1MDYyMzEyMzUxMloXDTI1MDYyMDEyMzUxMlow
HjEcMBoGA1UEAxMTQ2xpZW50OTU1Q2VydDliZDE3NDCCAiIwDQYJKoZIhvcNAQEB
BQADggIPADCCAgoCggIBAL2n5XSCScrHIsGbnmEa1mQUnmaF08Nd1qb/Q5lF47tD
zkdqQY6M903oiLZ0EL1M64pSLHOm483H0yim9WihDWk68/8TCc2YN3SocEVdod7a
zoIA/8YHGUbBodVZZ6KJ1/hO27pQeXpPr1ieqBS3GoU3puNMk/AHTbz8boyKMhdE
u41HE+bbfhRiWuy2KfmRokWbYhL3gMzDu2C8Uav/zpSne+dgHN4YPTPxjU0noVpI
61kn40Bn6YUHAh89byegXv9xkMKtkGUCLyJ7xPNa45/erjS4Gtu6zNh/4V+WXE4s
g7LYuwh5UG+WM4NnVyDDWc6QyI1Q4quRBBEsbskTYMpbYT9GFsIDMvIaufYar6Nx
AF+i3Qa8ZC4YK6oqvo2ZVefnUCZMiRvT5jjSa46cdNuRIcE6blJOdoibApb6BLsf
xBhF5PMQ9sbgZ362ZadEocpd+7HcuJFJ+pwrLYSTAV5ohfgCBZA9B1Dgnk3HLd+n
d9hLXCUrVyr8Bw7rphHhVDmsWdE9NmM2ZGoWdSdEyguvySxFNFLBM/FFjDPXki7v
nEm1Vou7+WkpfB9ixglhGpAuf41SOsaGn3UrWZSSssUbJzSpjsZYUG8s0kvJqDK5
sI3hT0yRkszFYRabI5PAgWfMBCcr3eGgu0wWk38cOSm0Ta8FoOPPjYoOM5GBgC2t
AgMBAAGjggFjMIIBXzAJBgNVHRMEAjAAMC0GCWCGSAGG+EIBDQQgFh5FYXN5LVJT
QSBHZW5lcmF0ZWQgQ2VydGlmaWNhdGUwHQYDVR0OBBYEFCBj8p9c3/scVmQ8EJgi
JyONkevZMIHhBgNVHSMEgdkwgdaAFBLNYATSoICecO3Gmbh7LMZS/RmhoYGypIGv
MIGsMQswCQYDVQQGEwJVUzELMAkGA1UECBMCT0gxETAPBgNVBAcTCENvbHVtYnVz
MRIwEAYDVQQKEwlWaWtpbmdWUE4xHTAbBgNVBAsTFE15T3JnYW5pemF0aW9uYWxV
bml0MRUwEwYDVQQDEwxWaWtpbmdWUE4gQ0ExEDAOBgNVBCkTB0Vhc3lSU0ExITAf
BgkqhkiG9w0BCQEWEm1lQG15aG9zdC5teWRvbWFpboIJAM81he6Avyo+MBMGA1Ud
JQQMMAoGCCsGAQUFBwMCMAsGA1UdDwQEAwIHgDANBgkqhkiG9w0BAQQFAAOCAgEA
fW/pd/KY64dTgdu09e7K2sDq4TJ2J+D0k4MS0UMEj3YKO+tVrdP5IR456K8VJlTd
7VcPf2aPKCbJiZIbqD2JEnQuWI97WwDNSMBjXKBj7itmO1L+6CPYQN+kHOOi4SAs
FvCNUptbA8OBOLVZGCMEmihVknjzDb1KAbPqblUmQNzCQcujd/pL6wFgmBfjCAtC
uUMn8Ybwynn3unaC5hRc3VaLb58u4AfaGHdNXLRPZH0vTbmvjivbIz5NaqgZkr6E
VnuQTx/0/3j01tlg8dO+4mlZUMbnY5PtWk/KTulS0Q6nf9Vv4V8250EIQbVbIjkJ
gyJUxbZDfXf5wJ4YWy3FA77H8Xc1+C5kni10EkTWJCdXjdKPanvGZnikWESqLVYj
OJk/b+2uZ0OvN5+Dh2rI2E+7GWvtZggHR/b64/zag62nNs1ygyqfehdScKcX+jVB
h6XgXExpz/7sJR99XxO2utk/vgwgm51XhraZuI6Fhahw9OJO30435R6PzwerOYuu
Ij7zX1lvTpGYRarBw68KdbMUhr5GXRXeaBi7Fr2uTq4bm1KgZm9TCcbRDZzaaUlD
wSZD1fFE2JSJ772eyDdmqvRjKTzn4m6KJiQhO/DIiYWeuF0fqSPYZeKKpnP9ixRc
+iZr03Y3KHADeps23XS0y5yGx44C9u5t84enaDjiBoE=
-----END CERTIFICATE-----
