Certificate:
    Data:
        Version: 3 (0x2)
        Serial Number: 22 (0x16)
    Signature Algorithm: md5WithRSAEncryption
        Issuer: C=US, ST=OH, L=Columbus, O=VikingVPN, OU=MyOrganizationalUnit, CN=VikingVPN CA/name=EasyRSA/emailAddress=me@myhost.mydomain
        Validity
            Not Before: Jul 21 15:17:34 2013 GMT
            Not After : Jul 19 15:17:34 2023 GMT
        Subject: CN=Client1Cert508eaa
        Subject Public Key Info:
            Public Key Algorithm: rsaEncryption
                Public-Key: (4096 bit)
                Modulus:
                    00:e7:33:3c:d7:70:f4:7f:d3:31:39:5a:87:fd:40:
                    ed:be:0e:13:d1:a3:9f:00:7b:4b:66:06:5a:a6:e1:
                    21:d2:86:60:ea:03:14:3d:22:4c:02:8b:bf:f1:f1:
                    e4:e4:ab:c4:cd:85:05:47:8d:af:90:bf:4c:7b:cf:
                    74:15:94:c8:78:8b:25:a8:81:fd:3c:0e:d7:d3:ec:
                    c3:4e:2a:4a:25:c9:b5:7b:6a:12:4e:50:e6:87:47:
                    82:0b:1f:12:de:e0:32:99:63:2d:72:1a:f3:f0:7e:
                    a6:dd:56:2b:10:de:02:8b:82:28:12:79:d3:44:f1:
                    6f:ad:71:8d:fd:b1:2d:eb:66:a3:76:43:63:4b:a6:
                    06:80:76:87:4a:ad:2c:2d:3a:4e:90:ec:19:73:be:
                    e2:88:d7:7c:12:07:87:9f:fc:56:7a:dc:19:e0:35:
                    b8:70:43:25:30:00:84:98:e9:9a:da:5b:eb:0b:59:
                    b8:fb:ee:9b:b8:9a:0b:6c:c2:5b:80:ce:1e:85:ad:
                    5e:78:3e:42:f5:cf:56:30:b4:26:2b:f9:af:13:d7:
                    24:98:09:1d:55:aa:db:82:83:de:89:2c:f4:79:6d:
                    e4:d6:8b:0b:7a:91:41:48:5c:65:b0:8c:22:70:fc:
                    33:84:19:71:4a:69:9d:01:3c:b1:26:08:c7:5f:e0:
                    c5:c9:bc:8f:29:87:9c:4f:d1:28:90:1c:54:91:49:
                    89:cf:85:8e:28:7c:31:e9:4d:bd:1c:7e:00:c3:a3:
                    3e:7b:e1:bf:b0:8e:fc:7e:21:34:b9:61:73:3b:84:
                    37:a8:04:2e:a9:61:50:70:e5:7c:4f:34:13:2d:14:
                    cb:08:99:02:a0:bd:01:57:1d:f5:1b:22:b5:29:46:
                    c0:30:da:a5:2e:0c:6f:4b:c1:d8:f2:c2:16:b9:16:
                    e6:92:a3:a6:bf:4c:1a:34:62:a0:06:b1:00:2b:be:
                    47:2e:0b:a3:43:29:8f:34:98:0c:0e:d1:ff:cf:68:
                    c4:a0:ac:3c:ec:28:8d:6d:7a:60:f9:43:a5:6a:a3:
                    b9:b6:56:48:1a:72:5c:62:de:99:5b:2b:2a:77:b2:
                    fc:72:6d:e8:21:b6:1d:ea:aa:6f:ab:b6:f0:69:21:
                    1a:6f:75:7b:35:e4:b6:2e:c0:fd:24:01:50:b3:e4:
                    66:5e:64:96:d6:4d:13:e7:1b:0c:92:01:e8:57:ab:
                    83:32:cf:d0:56:59:ac:e4:2e:e4:ad:46:a5:8f:7c:
                    28:7f:24:f2:69:87:c8:87:51:7a:35:99:14:a2:73:
                    be:bb:45:14:ac:a1:89:2e:62:ee:4f:a9:ad:3c:e4:
                    c1:5d:18:9a:34:fc:1b:0f:ba:db:e8:86:1b:5e:74:
                    33:fd:4b
                Exponent: 65537 (0x10001)
        X509v3 extensions:
            X509v3 Basic Constraints: 
                CA:FALSE
            Netscape Comment: 
                Easy-RSA Generated Certificate
            X509v3 Subject Key Identifier: 
                B4:C0:B6:C2:63:8F:6A:C4:22:2F:EE:56:02:05:10:6C:EF:A5:0C:40
            X509v3 Authority Key Identifier: 
                keyid:12:CD:60:04:D2:A0:80:9E:70:ED:C6:99:B8:7B:2C:C6:52:FD:19:A1
                DirName:/C=US/ST=OH/L=Columbus/O=VikingVPN/OU=MyOrganizationalUnit/CN=VikingVPN CA/name=EasyRSA/emailAddress=me@myhost.mydomain
                serial:CF:35:85:EE:80:BF:2A:3E

            X509v3 Extended Key Usage: 
                TLS Web Client Authentication
            X509v3 Key Usage: 
                Digital Signature
    Signature Algorithm: md5WithRSAEncryption
         7a:3e:60:ae:e0:a0:a5:2a:98:20:d4:2b:0e:38:33:40:d2:8c:
         af:1e:50:c0:8c:a8:46:c0:4c:87:28:f1:d0:7b:5c:fe:eb:47:
         bf:d2:dc:3e:e9:72:45:69:b1:4b:37:c2:2f:4c:b9:2b:b2:f5:
         43:fa:5b:59:09:57:08:d4:75:83:56:a9:7c:79:f4:cf:ad:95:
         a1:68:a8:15:1d:f6:a8:cc:2b:23:4b:11:68:50:8d:40:cd:0c:
         9c:50:9b:6d:7d:27:98:5c:26:64:ad:99:85:72:76:b7:71:20:
         14:a0:60:9c:17:64:0d:17:a8:e0:6c:41:7b:5c:2a:6c:d8:d7:
         a6:c1:95:71:1a:3c:bf:45:69:61:0f:f0:fa:9f:51:f2:ee:4f:
         4a:74:fa:e3:d0:5b:28:54:21:c3:56:c4:08:98:23:f6:e5:72:
         4b:f5:6f:0f:4c:1c:7c:dd:1f:2d:bd:39:44:d3:88:20:34:9b:
         2d:5d:4a:05:09:12:1e:6d:72:93:98:87:6b:58:9d:e1:41:47:
         ed:8a:10:04:18:23:bb:08:0c:f8:22:e7:55:e0:13:32:92:96:
         1f:f1:62:a8:8c:67:a2:8c:ad:f7:b5:b6:89:5b:b4:2b:3c:81:
         7f:d4:88:b3:41:b4:ae:70:2f:53:66:ea:33:0c:15:1e:e4:ab:
         ca:94:a9:2e:27:a2:ec:bb:47:0c:ce:19:a7:9e:6d:f8:5a:b5:
         01:77:11:22:0b:98:8f:40:fd:25:5f:91:7f:1f:74:aa:da:7d:
         7a:41:54:20:fd:6d:21:57:74:bd:e8:57:c8:03:91:45:8e:37:
         c9:aa:1b:be:fd:a1:2a:c1:ca:4b:36:03:a0:d1:d6:63:4c:a7:
         37:e4:27:c1:fd:d4:fa:e8:7e:63:27:1b:e7:55:3d:d9:ef:ac:
         13:cd:63:a5:69:85:7b:6c:eb:b9:d2:6d:52:1e:00:57:24:bb:
         a9:0e:68:4b:9d:4b:e4:31:7f:29:b7:d3:eb:59:96:12:db:6a:
         38:e8:53:32:e1:c6:f5:91:8b:4c:22:ea:4d:d4:91:7f:49:80:
         3d:ab:9e:2f:ce:78:82:40:67:a1:6b:6a:a4:9f:9d:ee:ad:b2:
         09:be:77:ef:db:4c:79:05:00:b1:ca:a1:03:48:ac:e4:39:f0:
         1a:13:62:af:fc:74:25:d5:f5:fd:33:56:e4:ff:93:51:d1:4e:
         30:1f:e1:ab:9a:08:76:47:c4:73:e9:c2:02:bc:0e:1b:0e:49:
         b6:ce:7d:a2:a3:78:72:8f:95:06:c7:86:21:67:3a:48:37:62:
         49:eb:2f:b4:7a:9d:4b:dc:b9:c7:62:ff:fd:9c:96:11:c0:7d:
         0b:e2:08:d6:fc:bd:6d:8c
-----BEGIN CERTIFICATE-----
MIIGqTCCBJGgAwIBAgIBFjANBgkqhkiG9w0BAQQFADCBrDELMAkGA1UEBhMCVVMx
CzAJBgNVBAgTAk9IMREwDwYDVQQHEwhDb2x1bWJ1czESMBAGA1UEChMJVmlraW5n
VlBOMR0wGwYDVQQLExRNeU9yZ2FuaXphdGlvbmFsVW5pdDEVMBMGA1UEAxMMVmlr
aW5nVlBOIENBMRAwDgYDVQQpEwdFYXN5UlNBMSEwHwYJKoZIhvcNAQkBFhJtZUBt
eWhvc3QubXlkb21haW4wHhcNMTMwNzIxMTUxNzM0WhcNMjMwNzE5MTUxNzM0WjAc
MRowGAYDVQQDExFDbGllbnQxQ2VydDUwOGVhYTCCAiIwDQYJKoZIhvcNAQEBBQAD
ggIPADCCAgoCggIBAOczPNdw9H/TMTlah/1A7b4OE9GjnwB7S2YGWqbhIdKGYOoD
FD0iTAKLv/Hx5OSrxM2FBUeNr5C/THvPdBWUyHiLJaiB/TwO19Psw04qSiXJtXtq
Ek5Q5odHggsfEt7gMpljLXIa8/B+pt1WKxDeAouCKBJ500Txb61xjf2xLetmo3ZD
Y0umBoB2h0qtLC06TpDsGXO+4ojXfBIHh5/8VnrcGeA1uHBDJTAAhJjpmtpb6wtZ
uPvum7iaC2zCW4DOHoWtXng+QvXPVjC0Jiv5rxPXJJgJHVWq24KD3oks9Hlt5NaL
C3qRQUhcZbCMInD8M4QZcUppnQE8sSYIx1/gxcm8jymHnE/RKJAcVJFJic+Fjih8
MelNvRx+AMOjPnvhv7CO/H4hNLlhczuEN6gELqlhUHDlfE80Ey0UywiZAqC9AVcd
9RsitSlGwDDapS4Mb0vB2PLCFrkW5pKjpr9MGjRioAaxACu+Ry4Lo0MpjzSYDA7R
/89oxKCsPOwojW16YPlDpWqjubZWSBpyXGLemVsrKney/HJt6CG2Heqqb6u28Gkh
Gm91ezXkti7A/SQBULPkZl5kltZNE+cbDJIB6FergzLP0FZZrOQu5K1GpY98KH8k
8mmHyIdRejWZFKJzvrtFFKyhiS5i7k+prTzkwV0YmjT8Gw+62+iGG150M/1LAgMB
AAGjggFjMIIBXzAJBgNVHRMEAjAAMC0GCWCGSAGG+EIBDQQgFh5FYXN5LVJTQSBH
ZW5lcmF0ZWQgQ2VydGlmaWNhdGUwHQYDVR0OBBYEFLTAtsJjj2rEIi/uVgIFEGzv
pQxAMIHhBgNVHSMEgdkwgdaAFBLNYATSoICecO3Gmbh7LMZS/RmhoYGypIGvMIGs
MQswCQYDVQQGEwJVUzELMAkGA1UECBMCT0gxETAPBgNVBAcTCENvbHVtYnVzMRIw
EAYDVQQKEwlWaWtpbmdWUE4xHTAbBgNVBAsTFE15T3JnYW5pemF0aW9uYWxVbml0
MRUwEwYDVQQDEwxWaWtpbmdWUE4gQ0ExEDAOBgNVBCkTB0Vhc3lSU0ExITAfBgkq
hkiG9w0BCQEWEm1lQG15aG9zdC5teWRvbWFpboIJAM81he6Avyo+MBMGA1UdJQQM
MAoGCCsGAQUFBwMCMAsGA1UdDwQEAwIHgDANBgkqhkiG9w0BAQQFAAOCAgEAej5g
ruCgpSqYINQrDjgzQNKMrx5QwIyoRsBMhyjx0Htc/utHv9LcPulyRWmxSzfCL0y5
K7L1Q/pbWQlXCNR1g1apfHn0z62VoWioFR32qMwrI0sRaFCNQM0MnFCbbX0nmFwm
ZK2ZhXJ2t3EgFKBgnBdkDReo4GxBe1wqbNjXpsGVcRo8v0VpYQ/w+p9R8u5PSnT6
49BbKFQhw1bECJgj9uVyS/VvD0wcfN0fLb05RNOIIDSbLV1KBQkSHm1yk5iHa1id
4UFH7YoQBBgjuwgM+CLnVeATMpKWH/FiqIxnooyt97W2iVu0KzyBf9SIs0G0rnAv
U2bqMwwVHuSrypSpLiei7LtHDM4Zp55t+Fq1AXcRIguYj0D9JV+Rfx90qtp9ekFU
IP1tIVd0vehXyAORRY43yaobvv2hKsHKSzYDoNHWY0ynN+Qnwf3U+uh+Yycb51U9
2e+sE81jpWmFe2zrudJtUh4AVyS7qQ5oS51L5DF/KbfT61mWEttqOOhTMuHG9ZGL
TCLqTdSRf0mAPaueL854gkBnoWtqpJ+d7q2yCb5379tMeQUAscqhA0is5DnwGhNi
r/x0JdX1/TNW5P+TUdFOMB/hq5oIdkfEc+nCArwOGw5Jts59oqN4co+VBseGIWc6
SDdiSesvtHqdS9y5x2L//ZyWEcB9C+II1vy9bYw=
-----END CERTIFICATE-----
