Certificate:
    Data:
        Version: 3 (0x2)
        Serial Number: 5640 (0x1608)
    Signature Algorithm: md5WithRSAEncryption
        Issuer: C=US, ST=OH, L=Columbus, O=VikingVPN, OU=MyOrganizationalUnit, CN=VikingVPN CA/name=EasyRSA/emailAddress=me@myhost.mydomain
        Validity
            Not Before: Jun 26 20:23:49 2015 GMT
            Not After : Jun 23 20:23:49 2025 GMT
        Subject: CN=Client136Cert59d531
        Subject Public Key Info:
            Public Key Algorithm: rsaEncryption
                Public-Key: (4096 bit)
                Modulus:
                    00:df:d3:e9:fa:78:50:15:bd:b6:71:dd:fa:0e:3c:
                    63:c3:b7:5c:31:4e:c5:9a:83:1e:5a:fb:f8:da:ce:
                    ef:46:fd:f5:7e:a4:98:c6:e9:4a:a3:e1:a3:e9:8c:
                    f7:3b:45:a2:22:a6:14:09:c4:f1:cc:89:72:a2:05:
                    a8:26:41:d3:fe:2b:9c:f0:2a:17:d8:44:2a:94:b6:
                    3e:b6:9e:91:c1:56:b2:8c:4f:da:5b:f6:1b:1c:96:
                    28:a0:26:ff:2c:75:54:a2:7c:5f:5c:c0:ec:da:52:
                    6a:f0:0c:49:d4:a9:a5:9e:5b:75:66:1d:2e:24:f5:
                    3f:3b:7e:48:ab:be:9c:03:99:57:e9:42:69:5d:a9:
                    f3:18:4c:0d:2b:6c:5e:7c:76:67:b3:c7:f4:3b:28:
                    ad:bd:3a:5b:9b:b0:fe:01:ac:fb:a8:9e:80:15:20:
                    9d:de:cf:e6:a5:8c:c8:c4:62:4c:72:8c:2e:3d:2b:
                    09:3f:0e:11:35:92:78:0c:14:0b:06:08:fc:f0:95:
                    94:c7:bf:9c:7c:d0:8d:5a:7c:9f:e5:9d:4c:cf:7a:
                    76:c5:9a:ff:60:fb:b8:8f:5b:d8:2a:62:db:9e:e1:
                    03:56:93:45:bc:09:45:8a:05:4b:63:19:32:64:07:
                    0f:a8:41:7f:07:d2:bb:c4:68:ca:ee:7a:1f:6a:bf:
                    74:3b:77:65:c3:3b:c0:2b:8e:7e:48:97:f5:9e:68:
                    0c:8e:08:4f:79:ae:ce:0c:99:36:13:15:d0:8b:ff:
                    c1:71:ee:78:c5:6f:15:7e:a6:24:67:0c:cd:56:4b:
                    a4:06:d5:84:c2:3d:44:c0:65:34:7b:8f:68:76:62:
                    c7:4e:db:2f:68:75:85:2e:ec:04:85:2d:26:5a:7c:
                    b2:92:3d:e6:5b:8d:cd:77:d5:81:e4:73:ff:63:e7:
                    a2:dd:a9:92:ea:cc:5c:41:4d:f5:4c:15:2d:5f:7b:
                    94:63:b4:d2:01:03:b6:3d:08:38:eb:3c:00:32:00:
                    db:30:da:4c:ea:1a:35:4a:3f:07:bd:66:64:6c:a9:
                    2b:38:a3:dd:fd:3a:0e:bf:dc:7d:39:c6:e1:4f:b6:
                    99:80:9d:f4:d1:ab:83:61:7e:64:72:2e:ef:d6:df:
                    23:96:e2:b3:65:e7:5d:9d:86:73:4b:3c:08:07:e0:
                    f6:b3:ee:ae:f2:26:3e:68:ce:82:ef:d8:21:d0:3d:
                    51:d2:34:04:99:91:11:aa:6a:0e:7a:5c:38:e9:79:
                    e8:11:34:75:fe:fc:7e:68:7d:5b:8f:d1:24:68:65:
                    a9:9e:ed:0d:09:74:dd:11:bd:00:47:36:26:54:fd:
                    d8:38:3e:9b:ef:b7:e1:f2:bb:9b:04:5c:7b:84:29:
                    aa:c2:91
                Exponent: 65537 (0x10001)
        X509v3 extensions:
            X509v3 Basic Constraints: 
                CA:FALSE
            Netscape Comment: 
                Easy-RSA Generated Certificate
            X509v3 Subject Key Identifier: 
                4D:E1:D6:3B:EF:EE:84:A8:B2:AB:5C:F7:FD:A3:DB:01:19:B2:78:D8
            X509v3 Authority Key Identifier: 
                keyid:12:CD:60:04:D2:A0:80:9E:70:ED:C6:99:B8:7B:2C:C6:52:FD:19:A1
                DirName:/C=US/ST=OH/L=Columbus/O=VikingVPN/OU=MyOrganizationalUnit/CN=VikingVPN CA/name=EasyRSA/emailAddress=me@myhost.mydomain
                serial:CF:35:85:EE:80:BF:2A:3E

            X509v3 Extended Key Usage: 
                TLS Web Client Authentication
            X509v3 Key Usage: 
                Digital Signature
    Signature Algorithm: md5WithRSAEncryption
         1b:03:61:37:d3:30:85:5e:68:88:8f:5b:eb:7f:54:da:98:0c:
         30:bf:04:41:d5:79:c0:bb:d8:b0:6d:d1:c7:09:64:d6:33:24:
         d6:a5:ab:81:3b:a5:bf:bf:25:2f:6b:b0:32:4e:da:27:1d:37:
         6c:bf:78:f7:fc:88:a8:96:fa:50:40:45:de:55:ec:cb:7f:5d:
         a7:83:d9:11:09:fc:b8:1e:58:61:90:1d:12:56:f7:72:86:5c:
         5e:8d:de:60:f6:84:c8:d8:50:5c:04:b4:42:23:c1:ff:71:fb:
         60:97:d9:3c:fc:44:f6:1b:82:f7:3f:23:82:04:32:52:b4:9c:
         f3:5d:bb:2a:c4:16:f9:f6:f3:15:47:a8:c5:69:84:22:e6:cc:
         6e:9f:69:0b:3b:6b:ea:69:06:db:20:95:de:7e:19:29:3f:32:
         91:e5:64:d2:5b:3e:02:f3:83:d5:68:80:50:52:6f:5d:f2:89:
         20:a0:c7:97:d2:c3:74:33:26:b9:33:1c:4b:3c:b1:26:2f:7f:
         0e:9c:94:7c:13:06:d0:f2:ee:f7:ec:3e:37:39:56:41:f1:08:
         52:86:7a:7f:59:dd:aa:ec:04:34:97:8b:c1:67:a3:f3:a8:09:
         79:d6:d5:31:2a:6d:cd:a2:2d:0c:34:d7:82:72:c4:59:2d:02:
         82:40:d0:7f:4d:f4:ea:8d:c6:1e:26:be:18:4c:9a:b9:0b:bf:
         20:7d:b5:54:d8:25:18:b5:e3:47:28:d3:64:08:d3:c4:47:fd:
         9f:53:c4:a5:62:59:a7:ed:8f:5d:91:ef:7a:0f:a9:b1:c4:8e:
         fe:69:c1:d3:03:7b:35:ba:53:b8:af:bb:58:f6:65:ed:40:37:
         9d:c1:42:54:e6:4f:8c:6a:f1:9e:74:55:5d:64:96:e9:80:48:
         98:ab:60:80:66:13:00:de:e0:b0:52:e5:e6:0c:6c:e3:ff:ab:
         9b:2d:d8:7e:48:10:ba:6a:d9:93:65:7c:4a:6a:82:03:6c:04:
         0e:42:2e:27:ff:31:7c:12:61:7b:90:f0:52:63:99:78:10:75:
         18:82:32:58:48:05:c0:f6:74:6c:bc:67:2e:3f:9e:5b:20:8e:
         a7:32:c9:d3:91:fb:05:5f:9b:45:75:df:fd:0f:74:17:e0:5f:
         17:98:a1:15:9b:20:c4:da:65:e9:99:74:5d:85:f6:23:09:36:
         96:4f:4e:49:ed:b8:ac:96:42:f4:a5:c5:23:d8:2c:69:94:73:
         f8:e7:c2:88:84:e8:61:2a:ec:81:e3:3c:b5:71:58:87:0a:f0:
         d9:1c:ba:ad:1a:3b:bd:a5:78:f1:44:3b:fa:e6:c5:7b:27:0e:
         e9:a2:e9:2b:bf:92:5c:fe
-----BEGIN CERTIFICATE-----
MIIGrDCCBJSgAwIBAgICFggwDQYJKoZIhvcNAQEEBQAwgawxCzAJBgNVBAYTAlVT
MQswCQYDVQQIEwJPSDERMA8GA1UEBxMIQ29sdW1idXMxEjAQBgNVBAoTCVZpa2lu
Z1ZQTjEdMBsGA1UECxMUTXlPcmdhbml6YXRpb25hbFVuaXQxFTATBgNVBAMTDFZp
a2luZ1ZQTiBDQTEQMA4GA1UEKRMHRWFzeVJTQTEhMB8GCSqGSIb3DQEJARYSbWVA
bXlob3N0Lm15ZG9tYWluMB4XDTE1MDYyNjIwMjM0OVoXDTI1MDYyMzIwMjM0OVow
HjEcMBoGA1UEAxMTQ2xpZW50MTM2Q2VydDU5ZDUzMTCCAiIwDQYJKoZIhvcNAQEB
BQADggIPADCCAgoCggIBAN/T6fp4UBW9tnHd+g48Y8O3XDFOxZqDHlr7+NrO70b9
9X6kmMbpSqPho+mM9ztFoiKmFAnE8cyJcqIFqCZB0/4rnPAqF9hEKpS2PraekcFW
soxP2lv2GxyWKKAm/yx1VKJ8X1zA7NpSavAMSdSppZ5bdWYdLiT1Pzt+SKu+nAOZ
V+lCaV2p8xhMDStsXnx2Z7PH9Dsorb06W5uw/gGs+6iegBUgnd7P5qWMyMRiTHKM
Lj0rCT8OETWSeAwUCwYI/PCVlMe/nHzQjVp8n+WdTM96dsWa/2D7uI9b2Cpi257h
A1aTRbwJRYoFS2MZMmQHD6hBfwfSu8Royu56H2q/dDt3ZcM7wCuOfkiX9Z5oDI4I
T3muzgyZNhMV0Iv/wXHueMVvFX6mJGcMzVZLpAbVhMI9RMBlNHuPaHZix07bL2h1
hS7sBIUtJlp8spI95luNzXfVgeRz/2Pnot2pkurMXEFN9UwVLV97lGO00gEDtj0I
OOs8ADIA2zDaTOoaNUo/B71mZGypKzij3f06Dr/cfTnG4U+2mYCd9NGrg2F+ZHIu
79bfI5bis2XnXZ2Gc0s8CAfg9rPurvImPmjOgu/YIdA9UdI0BJmREapqDnpcOOl5
6BE0df78fmh9W4/RJGhlqZ7tDQl03RG9AEc2JlT92Dg+m++34fK7mwRce4QpqsKR
AgMBAAGjggFjMIIBXzAJBgNVHRMEAjAAMC0GCWCGSAGG+EIBDQQgFh5FYXN5LVJT
QSBHZW5lcmF0ZWQgQ2VydGlmaWNhdGUwHQYDVR0OBBYEFE3h1jvv7oSosqtc9/2j
2wEZsnjYMIHhBgNVHSMEgdkwgdaAFBLNYATSoICecO3Gmbh7LMZS/RmhoYGypIGv
MIGsMQswCQYDVQQGEwJVUzELMAkGA1UECBMCT0gxETAPBgNVBAcTCENvbHVtYnVz
MRIwEAYDVQQKEwlWaWtpbmdWUE4xHTAbBgNVBAsTFE15T3JnYW5pemF0aW9uYWxV
bml0MRUwEwYDVQQDEwxWaWtpbmdWUE4gQ0ExEDAOBgNVBCkTB0Vhc3lSU0ExITAf
BgkqhkiG9w0BCQEWEm1lQG15aG9zdC5teWRvbWFpboIJAM81he6Avyo+MBMGA1Ud
JQQMMAoGCCsGAQUFBwMCMAsGA1UdDwQEAwIHgDANBgkqhkiG9w0BAQQFAAOCAgEA
GwNhN9MwhV5oiI9b639U2pgMML8EQdV5wLvYsG3Rxwlk1jMk1qWrgTulv78lL2uw
Mk7aJx03bL949/yIqJb6UEBF3lXsy39dp4PZEQn8uB5YYZAdElb3coZcXo3eYPaE
yNhQXAS0QiPB/3H7YJfZPPxE9huC9z8jggQyUrSc8127KsQW+fbzFUeoxWmEIubM
bp9pCztr6mkG2yCV3n4ZKT8ykeVk0ls+AvOD1WiAUFJvXfKJIKDHl9LDdDMmuTMc
SzyxJi9/DpyUfBMG0PLu9+w+NzlWQfEIUoZ6f1ndquwENJeLwWej86gJedbVMSpt
zaItDDTXgnLEWS0CgkDQf0306o3GHia+GEyauQu/IH21VNglGLXjRyjTZAjTxEf9
n1PEpWJZp+2PXZHveg+pscSO/mnB0wN7NbpTuK+7WPZl7UA3ncFCVOZPjGrxnnRV
XWSW6YBImKtggGYTAN7gsFLl5gxs4/+rmy3YfkgQumrZk2V8SmqCA2wEDkIuJ/8x
fBJhe5DwUmOZeBB1GIIyWEgFwPZ0bLxnLj+eWyCOpzLJ05H7BV+bRXXf/Q90F+Bf
F5ihFZsgxNpl6Zl0XYX2Iwk2lk9OSe24rJZC9KXFI9gsaZRz+OfCiIToYSrsgeM8
tXFYhwrw2Ry6rRo7vaV48UQ7+ubFeycO6aLpK7+SXP4=
-----END CERTIFICATE-----
