Certificate:
    Data:
        Version: 3 (0x2)
        Serial Number: 5645 (0x160d)
    Signature Algorithm: md5WithRSAEncryption
        Issuer: C=US, ST=OH, L=Columbus, O=VikingVPN, OU=MyOrganizationalUnit, CN=VikingVPN CA/name=EasyRSA/emailAddress=me@myhost.mydomain
        Validity
            Not Before: Jun 27 03:01:02 2015 GMT
            Not After : Jun 24 03:01:02 2025 GMT
        Subject: CN=Client1795Certa7761e
        Subject Public Key Info:
            Public Key Algorithm: rsaEncryption
                Public-Key: (4096 bit)
                Modulus:
                    00:e2:30:b2:12:b4:8c:07:5a:6a:5d:79:2f:f2:c5:
                    22:fd:00:bc:6a:c8:98:b2:d4:e7:ab:28:02:47:0a:
                    37:1a:11:8b:13:da:b3:85:65:02:e9:4c:0d:7e:48:
                    9a:9e:27:9d:54:59:4c:6e:84:23:71:88:aa:bb:e6:
                    81:a5:f1:be:9f:54:6f:a6:7d:b9:85:21:bd:bd:8e:
                    04:b6:33:7f:01:4f:9f:c7:0d:a6:e0:c1:34:08:ea:
                    ea:17:f1:8e:f7:ca:88:30:8c:7f:6e:ff:f3:68:08:
                    5a:88:f4:26:c4:f8:6c:54:a1:7e:46:bb:19:95:22:
                    23:eb:56:6f:85:96:69:60:36:94:8f:4e:20:44:fe:
                    57:db:ae:9e:19:43:e2:d7:f8:ae:81:f2:b5:ae:90:
                    8b:83:85:5d:91:33:db:35:b2:d3:b1:6d:95:98:0b:
                    9f:bb:75:15:e9:25:3e:0f:c3:8d:54:eb:be:c6:d0:
                    3c:2b:b4:d8:71:78:7d:ed:8b:db:95:37:a7:ab:9b:
                    95:59:f6:d0:ab:56:41:c7:a1:df:ee:27:ad:9f:f6:
                    88:67:e4:55:53:8f:82:16:35:79:85:ff:ea:65:36:
                    97:73:37:82:be:31:a9:2f:43:f7:ef:9f:3a:f0:ef:
                    1a:27:65:a5:ae:70:51:5b:34:23:76:8f:4b:15:93:
                    17:12:35:f8:58:c3:11:81:c6:da:a4:69:37:11:e4:
                    f5:a0:3a:73:45:fb:87:ea:25:ab:d9:ce:65:02:2f:
                    85:0d:d0:f8:aa:98:38:cd:25:c5:2c:89:6c:9d:36:
                    5c:90:cf:2f:77:60:ed:fc:6f:fe:64:3a:23:f1:4c:
                    b7:2d:e4:47:42:5d:b6:9f:b8:b6:db:73:d5:20:43:
                    ec:06:82:22:61:02:78:46:d4:6f:c8:bf:19:56:45:
                    b3:48:45:8b:e9:62:23:41:94:20:3c:a2:eb:a2:f0:
                    09:19:6f:42:7b:f9:be:0a:7c:96:44:39:2f:60:6d:
                    3c:5a:fc:9b:d5:ae:6a:e8:70:c2:5b:ed:78:ce:35:
                    a0:b8:ab:3e:58:ea:3d:11:9f:56:ed:dd:58:b3:72:
                    11:65:4c:9f:21:f1:10:c9:36:06:6b:7d:a0:e5:d7:
                    cd:55:67:db:5f:1b:fc:70:f4:35:a1:f7:53:a6:87:
                    74:19:5a:b3:3f:d8:32:f7:af:25:26:8b:63:3a:e0:
                    e9:e4:a2:34:2c:36:1a:1b:4f:c7:e1:95:19:0b:77:
                    2a:a9:7d:58:fc:b0:70:07:2a:0c:0e:9d:59:e9:c0:
                    ce:9d:b6:7e:39:0c:e3:88:86:8a:55:a8:bc:fe:d6:
                    50:d7:46:49:2b:ce:ab:8d:0d:b4:e0:1d:5b:94:83:
                    59:54:75
                Exponent: 65537 (0x10001)
        X509v3 extensions:
            X509v3 Basic Constraints: 
                CA:FALSE
            Netscape Comment: 
                Easy-RSA Generated Certificate
            X509v3 Subject Key Identifier: 
                EB:35:90:01:DF:18:65:4F:F2:7E:36:FD:91:71:DB:00:22:B7:31:92
            X509v3 Authority Key Identifier: 
                keyid:12:CD:60:04:D2:A0:80:9E:70:ED:C6:99:B8:7B:2C:C6:52:FD:19:A1
                DirName:/C=US/ST=OH/L=Columbus/O=VikingVPN/OU=MyOrganizationalUnit/CN=VikingVPN CA/name=EasyRSA/emailAddress=me@myhost.mydomain
                serial:CF:35:85:EE:80:BF:2A:3E

            X509v3 Extended Key Usage: 
                TLS Web Client Authentication
            X509v3 Key Usage: 
                Digital Signature
    Signature Algorithm: md5WithRSAEncryption
         e8:91:3c:b4:fb:91:1c:e0:ae:4d:58:7a:90:c0:a8:bd:96:c0:
         f7:ec:ea:f2:34:59:98:81:c4:67:07:45:61:34:93:85:42:17:
         77:2b:df:ed:6d:1b:56:26:61:e9:41:9d:64:7f:45:93:ef:a1:
         ee:17:19:aa:d5:14:e6:a9:fc:b3:f7:0e:01:bc:61:e1:5c:00:
         aa:ee:d9:f0:de:a3:02:28:d9:a7:56:43:56:f7:de:a7:eb:95:
         b2:6e:9a:a9:2a:25:b5:d9:a5:f4:66:2d:f0:c5:03:89:96:d8:
         8c:f3:09:e2:5a:ee:04:c9:95:15:fe:6f:84:1d:62:22:b7:4d:
         da:3a:3f:95:61:bb:e8:d8:74:75:cb:bf:66:8b:a4:84:57:c9:
         3d:a6:43:12:f4:6c:0c:e4:b1:8a:19:68:52:61:48:43:25:bb:
         eb:03:30:a3:9b:02:b6:dc:0a:3b:72:65:90:aa:59:44:02:35:
         fc:85:2a:8e:60:8f:61:2e:4f:4a:37:c7:55:b4:5c:81:48:d8:
         a9:9e:84:44:ea:7a:03:fa:07:e9:cd:03:73:86:bf:7e:d0:6a:
         4c:34:0a:5f:60:9d:4e:9c:84:e0:7e:eb:d4:c7:f1:fd:67:04:
         78:a3:cd:e4:fa:48:a9:37:ef:34:cd:75:5e:ae:82:40:8b:ac:
         ad:0f:14:fe:23:e4:57:5a:8b:da:e7:39:1e:43:17:b4:7b:2a:
         ef:b0:3a:01:20:85:55:08:a1:96:27:07:81:f4:6a:f2:04:37:
         b2:55:0b:79:06:39:88:47:ab:5c:dc:b2:62:b5:e7:72:1e:3a:
         b8:86:4a:d9:3f:dd:48:49:f4:6c:bf:fc:c9:4b:1b:14:91:a8:
         97:cc:f5:66:59:33:b5:70:0c:0b:b1:32:a5:93:e5:51:c8:4a:
         b5:d0:90:3e:39:73:ed:77:47:e6:84:47:ae:fc:0e:05:c1:7b:
         a3:9d:c8:e4:6f:23:1b:54:ef:cf:c3:cc:a2:b6:cd:4b:15:77:
         4b:cf:1c:3c:68:7e:25:bb:00:16:47:1a:e2:4a:28:be:9c:23:
         61:14:8e:76:a8:ea:75:7c:9f:36:8e:41:99:7d:7d:8a:bb:d8:
         13:22:e6:e1:a3:cd:ac:1a:96:b7:bd:e8:7d:bb:b5:fc:6d:e9:
         a0:f6:b2:21:b1:e3:0e:1d:d1:11:b2:c6:e8:21:01:c8:d9:aa:
         ef:52:a2:be:53:26:35:e1:1c:e7:58:f7:94:39:e2:e5:7b:ad:
         cb:71:68:2c:ec:1d:d8:20:10:dd:e7:74:1d:a4:7f:a0:d0:d8:
         77:cf:ba:56:10:9a:0b:35:c6:56:8e:d9:e0:e8:ac:00:60:64:
         b5:b5:d9:ad:5f:67:11:b6
-----BEGIN CERTIFICATE-----
MIIGrTCCBJWgAwIBAgICFg0wDQYJKoZIhvcNAQEEBQAwgawxCzAJBgNVBAYTAlVT
MQswCQYDVQQIEwJPSDERMA8GA1UEBxMIQ29sdW1idXMxEjAQBgNVBAoTCVZpa2lu
Z1ZQTjEdMBsGA1UECxMUTXlPcmdhbml6YXRpb25hbFVuaXQxFTATBgNVBAMTDFZp
a2luZ1ZQTiBDQTEQMA4GA1UEKRMHRWFzeVJTQTEhMB8GCSqGSIb3DQEJARYSbWVA
bXlob3N0Lm15ZG9tYWluMB4XDTE1MDYyNzAzMDEwMloXDTI1MDYyNDAzMDEwMlow
HzEdMBsGA1UEAxMUQ2xpZW50MTc5NUNlcnRhNzc2MWUwggIiMA0GCSqGSIb3DQEB
AQUAA4ICDwAwggIKAoICAQDiMLIStIwHWmpdeS/yxSL9ALxqyJiy1OerKAJHCjca
EYsT2rOFZQLpTA1+SJqeJ51UWUxuhCNxiKq75oGl8b6fVG+mfbmFIb29jgS2M38B
T5/HDabgwTQI6uoX8Y73yogwjH9u//NoCFqI9CbE+GxUoX5GuxmVIiPrVm+Flmlg
NpSPTiBE/lfbrp4ZQ+LX+K6B8rWukIuDhV2RM9s1stOxbZWYC5+7dRXpJT4Pw41U
677G0DwrtNhxeH3ti9uVN6erm5VZ9tCrVkHHod/uJ62f9ohn5FVTj4IWNXmF/+pl
NpdzN4K+MakvQ/fvnzrw7xonZaWucFFbNCN2j0sVkxcSNfhYwxGBxtqkaTcR5PWg
OnNF+4fqJavZzmUCL4UN0PiqmDjNJcUsiWydNlyQzy93YO38b/5kOiPxTLct5EdC
XbafuLbbc9UgQ+wGgiJhAnhG1G/IvxlWRbNIRYvpYiNBlCA8ouui8AkZb0J7+b4K
fJZEOS9gbTxa/JvVrmrocMJb7XjONaC4qz5Y6j0Rn1bt3VizchFlTJ8h8RDJNgZr
faDl181VZ9tfG/xw9DWh91Omh3QZWrM/2DL3ryUmi2M64OnkojQsNhobT8fhlRkL
dyqpfVj8sHAHKgwOnVnpwM6dtn45DOOIhopVqLz+1lDXRkkrzquNDbTgHVuUg1lU
dQIDAQABo4IBYzCCAV8wCQYDVR0TBAIwADAtBglghkgBhvhCAQ0EIBYeRWFzeS1S
U0EgR2VuZXJhdGVkIENlcnRpZmljYXRlMB0GA1UdDgQWBBTrNZAB3xhlT/J+Nv2R
cdsAIrcxkjCB4QYDVR0jBIHZMIHWgBQSzWAE0qCAnnDtxpm4eyzGUv0ZoaGBsqSB
rzCBrDELMAkGA1UEBhMCVVMxCzAJBgNVBAgTAk9IMREwDwYDVQQHEwhDb2x1bWJ1
czESMBAGA1UEChMJVmlraW5nVlBOMR0wGwYDVQQLExRNeU9yZ2FuaXphdGlvbmFs
VW5pdDEVMBMGA1UEAxMMVmlraW5nVlBOIENBMRAwDgYDVQQpEwdFYXN5UlNBMSEw
HwYJKoZIhvcNAQkBFhJtZUBteWhvc3QubXlkb21haW6CCQDPNYXugL8qPjATBgNV
HSUEDDAKBggrBgEFBQcDAjALBgNVHQ8EBAMCB4AwDQYJKoZIhvcNAQEEBQADggIB
AOiRPLT7kRzgrk1YepDAqL2WwPfs6vI0WZiBxGcHRWE0k4VCF3cr3+1tG1YmYelB
nWR/RZPvoe4XGarVFOap/LP3DgG8YeFcAKru2fDeowIo2adWQ1b33qfrlbJumqkq
JbXZpfRmLfDFA4mW2IzzCeJa7gTJlRX+b4QdYiK3Tdo6P5Vhu+jYdHXLv2aLpIRX
yT2mQxL0bAzksYoZaFJhSEMlu+sDMKObArbcCjtyZZCqWUQCNfyFKo5gj2EuT0o3
x1W0XIFI2KmehETqegP6B+nNA3OGv37Qakw0Cl9gnU6chOB+69TH8f1nBHijzeT6
SKk37zTNdV6ugkCLrK0PFP4j5Fdai9rnOR5DF7R7Ku+wOgEghVUIoZYnB4H0avIE
N7JVC3kGOYhHq1zcsmK153IeOriGStk/3UhJ9Gy//MlLGxSRqJfM9WZZM7VwDAux
MqWT5VHISrXQkD45c+13R+aER678DgXBe6OdyORvIxtU78/DzKK2zUsVd0vPHDxo
fiW7ABZHGuJKKL6cI2EUjnao6nV8nzaOQZl9fYq72BMi5uGjzawalre96H27tfxt
6aD2siGx4w4d0RGyxughAcjZqu9Sor5TJjXhHOdY95Q54uV7rctxaCzsHdggEN3n
dB2kf6DQ2HfPulYQmgs1xlaO2eDorABgZLW12a1fZxG2
-----END CERTIFICATE-----
