Certificate:
    Data:
        Version: 3 (0x2)
        Serial Number: 5661 (0x161d)
    Signature Algorithm: md5WithRSAEncryption
        Issuer: C=US, ST=OH, L=Columbus, O=VikingVPN, OU=MyOrganizationalUnit, CN=VikingVPN CA/name=EasyRSA/emailAddress=me@myhost.mydomain
        Validity
            Not Before: Jun 30 10:01:27 2015 GMT
            Not After : Jun 27 10:01:27 2025 GMT
        Subject: CN=Client1197Cert4cc6ad
        Subject Public Key Info:
            Public Key Algorithm: rsaEncryption
                Public-Key: (4096 bit)
                Modulus:
                    00:e1:79:d8:94:37:6f:d0:00:55:96:c0:07:f5:24:
                    33:b3:c0:77:cd:67:a2:14:1a:39:f3:1c:db:6e:06:
                    63:bd:2f:e2:e6:56:7e:1f:44:a5:d9:7f:b5:f5:65:
                    09:b0:a6:ff:a5:cc:eb:bf:ae:b9:7c:ff:3a:c9:00:
                    57:98:95:24:f7:14:f6:7f:8b:83:e3:18:6e:0d:8e:
                    6f:71:0a:62:e7:b8:38:16:54:a6:52:1a:76:e4:9d:
                    f8:13:fe:b6:46:7d:96:8f:43:3b:be:ed:36:5b:d7:
                    23:f4:ef:f7:37:8f:69:dc:c4:19:b1:f0:55:ea:ac:
                    8f:5b:48:07:2d:90:1e:48:59:cc:9c:f4:36:ba:7a:
                    fb:b4:b5:a1:16:37:02:9d:02:11:75:c1:89:0c:f6:
                    e8:21:09:ae:9d:f8:4d:55:d2:43:41:85:6e:6d:3b:
                    6b:3e:1c:72:91:9c:44:3b:be:38:26:4f:fc:24:fd:
                    9a:48:09:86:0a:40:b8:83:85:dc:1c:57:37:be:fc:
                    8e:8c:b0:5e:d0:2a:4f:4f:b0:b5:de:4d:47:48:4e:
                    76:bd:fe:e0:1f:f3:fe:ad:ef:a9:eb:19:3f:35:02:
                    fb:48:88:ec:24:f0:db:d2:a2:bc:94:38:3e:a3:f3:
                    67:8f:aa:0a:f2:1d:34:bc:43:68:c5:e2:2d:5e:91:
                    c6:5d:1f:39:d3:60:bf:0a:06:6e:ca:86:eb:86:91:
                    ae:b8:5c:29:7a:5c:0c:d2:31:eb:cf:97:49:8f:86:
                    5a:13:cf:77:25:31:58:f8:9d:e9:5f:81:cc:88:57:
                    75:7e:de:8c:b9:f0:54:49:7f:81:59:eb:3c:12:7a:
                    35:09:4b:51:e5:82:2a:09:bc:32:1c:69:54:8f:d7:
                    3b:8a:8b:e7:d1:50:6b:22:9c:89:03:a4:85:dc:25:
                    90:30:c1:32:11:7f:c9:e3:14:11:a6:34:a4:ab:b5:
                    18:1e:a1:d8:a4:3d:6a:a7:31:aa:af:5e:09:5f:4b:
                    c6:16:84:85:01:52:82:42:65:ce:f1:cb:36:b7:0c:
                    26:5e:e2:28:8f:71:74:8b:15:8e:41:83:b6:82:b1:
                    af:78:e1:de:50:2c:84:ca:77:35:34:30:a2:d8:90:
                    08:b7:f0:41:8f:cb:e1:f4:a7:37:20:15:77:af:01:
                    5f:b9:27:fe:c2:f2:16:43:3a:91:48:00:99:b0:53:
                    2b:e4:20:8a:a6:9a:8c:b5:67:2d:26:9a:41:85:74:
                    45:bf:af:5e:b3:b8:a0:09:d0:df:a7:ab:ed:3b:69:
                    05:70:53:7e:29:f1:da:80:eb:df:54:13:64:cb:18:
                    cb:02:15:6d:41:d3:68:ec:56:7d:6d:50:1f:d5:67:
                    8e:eb:d5
                Exponent: 65537 (0x10001)
        X509v3 extensions:
            X509v3 Basic Constraints: 
                CA:FALSE
            Netscape Comment: 
                Easy-RSA Generated Certificate
            X509v3 Subject Key Identifier: 
                A7:33:BF:25:B4:A5:BC:7A:FF:E1:24:35:E8:7D:47:EB:8C:D9:4F:96
            X509v3 Authority Key Identifier: 
                keyid:12:CD:60:04:D2:A0:80:9E:70:ED:C6:99:B8:7B:2C:C6:52:FD:19:A1
                DirName:/C=US/ST=OH/L=Columbus/O=VikingVPN/OU=MyOrganizationalUnit/CN=VikingVPN CA/name=EasyRSA/emailAddress=me@myhost.mydomain
                serial:CF:35:85:EE:80:BF:2A:3E

            X509v3 Extended Key Usage: 
                TLS Web Client Authentication
            X509v3 Key Usage: 
                Digital Signature
    Signature Algorithm: md5WithRSAEncryption
         47:dc:75:51:3f:b0:27:e8:51:03:79:e0:fd:6c:44:8d:56:40:
         11:c2:07:49:ee:96:d7:c2:36:d8:58:8b:af:b4:66:9a:cc:40:
         22:0e:08:6a:a7:66:93:df:44:a0:e4:fa:b1:cd:60:d0:f6:51:
         a1:e5:f1:7f:91:a4:dd:74:9d:5d:a1:d6:35:6a:0e:4b:97:de:
         81:cc:fe:2c:07:e3:35:c7:e3:90:5e:0d:dc:86:cf:09:44:3c:
         86:1f:ad:92:6b:60:91:d6:40:7e:7a:ff:d5:d3:80:a7:4c:f4:
         84:06:0c:74:72:32:70:11:57:0f:bc:a3:ab:fc:29:78:2b:cc:
         fb:c1:bf:92:d6:aa:4a:a8:5d:e7:4c:df:80:d8:0b:13:e3:fb:
         07:8b:ff:31:18:c0:e3:98:de:d2:c9:2e:66:e4:bc:65:45:7c:
         55:29:bf:9a:50:66:77:60:f2:04:67:6a:84:ac:a7:cc:ea:bd:
         82:22:cc:5d:8d:11:08:39:8d:52:41:90:f7:b1:3d:82:6d:6b:
         92:46:19:3f:4a:3e:39:d6:45:99:57:21:94:5a:ce:ad:ef:6c:
         13:7c:60:20:81:e8:24:ff:78:03:4c:06:41:54:e2:17:35:7f:
         05:11:c4:52:13:13:1d:09:be:df:46:ae:7a:a2:55:af:0f:c2:
         df:78:8a:d2:71:07:c8:66:cc:46:b6:82:80:34:f4:4a:94:42:
         bf:67:dc:f7:ba:47:66:94:c8:c4:b5:25:6e:9a:19:7f:3b:a0:
         4f:d1:15:2e:e6:1e:4b:fe:62:01:44:8f:a3:d8:54:3e:37:1b:
         f0:c7:53:ec:39:47:21:dc:28:0d:5e:c8:f7:e5:c2:8e:b5:c8:
         c5:13:a2:d8:97:4a:b9:c8:3b:20:d5:b9:60:31:70:52:15:35:
         bb:c1:d2:d3:bb:d1:6b:d6:39:70:c0:6d:2a:b9:80:87:b6:e9:
         03:45:6b:03:f0:07:d7:97:b4:b0:12:aa:b9:56:b9:88:d3:46:
         24:ae:bf:d6:ef:75:30:c3:56:b9:2c:3e:f6:4b:14:2d:de:7f:
         ab:9a:45:b0:79:c0:bc:62:fd:2c:62:24:c4:5b:e8:0f:9d:52:
         81:c9:73:32:26:69:af:55:69:5b:b3:bd:bb:22:d1:75:03:b7:
         0a:2e:93:30:17:74:b8:91:50:31:d2:4d:7b:1f:4f:b3:2b:1b:
         a2:17:eb:fd:6b:1e:ec:5c:c8:8c:4b:46:18:18:0f:c5:6a:63:
         8d:0a:4d:70:86:d4:57:a3:3f:7e:96:1b:19:fa:bf:9b:8b:4b:
         89:49:1d:8b:81:03:a8:d2:db:f9:e7:11:9c:c3:dc:31:75:c0:
         a0:ba:b2:ba:cd:7b:7b:83
-----BEGIN CERTIFICATE-----
MIIGrTCCBJWgAwIBAgICFh0wDQYJKoZIhvcNAQEEBQAwgawxCzAJBgNVBAYTAlVT
MQswCQYDVQQIEwJPSDERMA8GA1UEBxMIQ29sdW1idXMxEjAQBgNVBAoTCVZpa2lu
Z1ZQTjEdMBsGA1UECxMUTXlPcmdhbml6YXRpb25hbFVuaXQxFTATBgNVBAMTDFZp
a2luZ1ZQTiBDQTEQMA4GA1UEKRMHRWFzeVJTQTEhMB8GCSqGSIb3DQEJARYSbWVA
bXlob3N0Lm15ZG9tYWluMB4XDTE1MDYzMDEwMDEyN1oXDTI1MDYyNzEwMDEyN1ow
HzEdMBsGA1UEAxMUQ2xpZW50MTE5N0NlcnQ0Y2M2YWQwggIiMA0GCSqGSIb3DQEB
AQUAA4ICDwAwggIKAoICAQDhediUN2/QAFWWwAf1JDOzwHfNZ6IUGjnzHNtuBmO9
L+LmVn4fRKXZf7X1ZQmwpv+lzOu/rrl8/zrJAFeYlST3FPZ/i4PjGG4Njm9xCmLn
uDgWVKZSGnbknfgT/rZGfZaPQzu+7TZb1yP07/c3j2ncxBmx8FXqrI9bSActkB5I
Wcyc9Da6evu0taEWNwKdAhF1wYkM9ughCa6d+E1V0kNBhW5tO2s+HHKRnEQ7vjgm
T/wk/ZpICYYKQLiDhdwcVze+/I6MsF7QKk9PsLXeTUdITna9/uAf8/6t76nrGT81
AvtIiOwk8NvSoryUOD6j82ePqgryHTS8Q2jF4i1ekcZdHznTYL8KBm7KhuuGka64
XCl6XAzSMevPl0mPhloTz3clMVj4nelfgcyIV3V+3oy58FRJf4FZ6zwSejUJS1Hl
gioJvDIcaVSP1zuKi+fRUGsinIkDpIXcJZAwwTIRf8njFBGmNKSrtRgeodikPWqn
MaqvXglfS8YWhIUBUoJCZc7xyza3DCZe4iiPcXSLFY5Bg7aCsa944d5QLITKdzU0
MKLYkAi38EGPy+H0pzcgFXevAV+5J/7C8hZDOpFIAJmwUyvkIIqmmoy1Zy0mmkGF
dEW/r16zuKAJ0N+nq+07aQVwU34p8dqA699UE2TLGMsCFW1B02jsVn1tUB/VZ47r
1QIDAQABo4IBYzCCAV8wCQYDVR0TBAIwADAtBglghkgBhvhCAQ0EIBYeRWFzeS1S
U0EgR2VuZXJhdGVkIENlcnRpZmljYXRlMB0GA1UdDgQWBBSnM78ltKW8ev/hJDXo
fUfrjNlPljCB4QYDVR0jBIHZMIHWgBQSzWAE0qCAnnDtxpm4eyzGUv0ZoaGBsqSB
rzCBrDELMAkGA1UEBhMCVVMxCzAJBgNVBAgTAk9IMREwDwYDVQQHEwhDb2x1bWJ1
czESMBAGA1UEChMJVmlraW5nVlBOMR0wGwYDVQQLExRNeU9yZ2FuaXphdGlvbmFs
VW5pdDEVMBMGA1UEAxMMVmlraW5nVlBOIENBMRAwDgYDVQQpEwdFYXN5UlNBMSEw
HwYJKoZIhvcNAQkBFhJtZUBteWhvc3QubXlkb21haW6CCQDPNYXugL8qPjATBgNV
HSUEDDAKBggrBgEFBQcDAjALBgNVHQ8EBAMCB4AwDQYJKoZIhvcNAQEEBQADggIB
AEfcdVE/sCfoUQN54P1sRI1WQBHCB0nultfCNthYi6+0ZprMQCIOCGqnZpPfRKDk
+rHNYND2UaHl8X+RpN10nV2h1jVqDkuX3oHM/iwH4zXH45BeDdyGzwlEPIYfrZJr
YJHWQH56/9XTgKdM9IQGDHRyMnARVw+8o6v8KXgrzPvBv5LWqkqoXedM34DYCxPj
+weL/zEYwOOY3tLJLmbkvGVFfFUpv5pQZndg8gRnaoSsp8zqvYIizF2NEQg5jVJB
kPexPYJta5JGGT9KPjnWRZlXIZRazq3vbBN8YCCB6CT/eANMBkFU4hc1fwURxFIT
Ex0Jvt9GrnqiVa8Pwt94itJxB8hmzEa2goA09EqUQr9n3Pe6R2aUyMS1JW6aGX87
oE/RFS7mHkv+YgFEj6PYVD43G/DHU+w5RyHcKA1eyPflwo61yMUTotiXSrnIOyDV
uWAxcFIVNbvB0tO70WvWOXDAbSq5gIe26QNFawPwB9eXtLASqrlWuYjTRiSuv9bv
dTDDVrksPvZLFC3ef6uaRbB5wLxi/SxiJMRb6A+dUoHJczImaa9VaVuzvbsi0XUD
twoukzAXdLiRUDHSTXsfT7MrG6IX6/1rHuxcyIxLRhgYD8VqY40KTXCG1FejP36W
Gxn6v5uLS4lJHYuBA6jS2/nnEZzD3DF1wKC6srrNe3uD
-----END CERTIFICATE-----
