Certificate:
    Data:
        Version: 3 (0x2)
        Serial Number: 5665 (0x1621)
    Signature Algorithm: md5WithRSAEncryption
        Issuer: C=US, ST=OH, L=Columbus, O=VikingVPN, OU=MyOrganizationalUnit, CN=VikingVPN CA/name=EasyRSA/emailAddress=me@myhost.mydomain
        Validity
            Not Before: Jul  1 00:00:31 2015 GMT
            Not After : Jun 28 00:00:31 2025 GMT
        Subject: CN=Client1799Cert95f8b5
        Subject Public Key Info:
            Public Key Algorithm: rsaEncryption
                Public-Key: (4096 bit)
                Modulus:
                    00:91:42:e2:aa:cd:22:41:06:bf:d4:4f:1e:32:4b:
                    40:02:cf:2b:b7:40:32:9c:eb:49:c4:b6:15:14:3b:
                    ab:19:39:4a:89:3a:b8:17:55:85:0a:27:0e:ab:8b:
                    0a:09:a2:96:ff:cb:bb:d9:00:e8:83:27:7a:22:85:
                    e6:98:68:08:b5:d0:6c:59:7f:1a:b5:11:6e:d4:e4:
                    70:82:dd:2a:1e:95:8c:82:98:db:b5:27:57:ec:c7:
                    f2:a6:a5:ca:e6:c1:e2:45:74:25:db:82:2f:46:b0:
                    06:e1:f4:04:ae:81:c0:05:52:73:1c:cd:6a:f5:4d:
                    7a:70:7c:04:4a:16:e7:76:73:91:c7:5f:1e:fa:ae:
                    66:33:f6:1a:8a:d1:27:53:a1:8e:4a:0d:af:55:c6:
                    1d:d0:7b:dc:6b:f8:44:cc:6c:1b:a4:68:b1:14:76:
                    ae:b6:65:a0:d4:70:6f:ba:09:ad:04:ea:d0:8c:9d:
                    5e:dc:62:6d:60:08:e5:2a:16:96:89:5b:7c:16:06:
                    22:22:6f:b8:e9:0c:0e:e6:f2:44:fc:f9:c1:5c:d6:
                    aa:f8:a9:1c:59:b4:06:0c:e7:79:69:0e:f0:fe:9f:
                    49:4c:2b:4e:3f:50:d0:33:83:09:86:d2:e5:18:6d:
                    bc:1e:36:65:88:36:37:f4:a8:b5:27:39:8b:46:11:
                    97:62:8d:f9:69:7f:37:07:4a:3f:00:5f:db:68:55:
                    cb:ab:2d:c3:12:ef:9a:ef:c4:75:15:2c:e5:4a:5f:
                    ac:be:e0:ed:0f:d9:16:27:9f:f9:6f:cc:72:48:da:
                    fd:ad:67:5f:f5:f2:7d:ea:82:0b:ab:2a:b6:c5:61:
                    b3:72:7c:03:a4:00:eb:2b:a7:62:82:07:ef:e0:22:
                    1e:3d:fd:03:be:78:70:ce:6e:a9:00:e9:4a:e8:b4:
                    a0:2a:b6:bc:5e:36:5b:96:58:3f:da:1d:60:93:8c:
                    4c:b5:7b:01:7d:5b:1c:ee:c0:42:f5:64:c8:58:31:
                    0c:92:1b:6f:6b:25:6f:5f:68:f5:35:75:75:b4:b4:
                    7c:8f:20:87:f1:66:7d:d7:02:f7:b6:af:57:c5:70:
                    c4:58:8e:23:6d:f1:c1:88:fc:e4:f5:87:23:02:24:
                    30:74:97:86:10:f5:f1:9e:b3:b4:24:79:c0:14:90:
                    bb:53:51:ad:e1:70:df:6f:55:49:c3:3f:80:2b:bb:
                    80:0c:95:8a:7e:18:bf:47:e1:dd:5e:bc:fd:33:f9:
                    d9:80:58:cf:62:59:69:19:b4:08:99:63:c8:ad:10:
                    f1:08:62:54:94:fa:b5:9e:8c:a1:83:3f:98:e5:2b:
                    14:56:92:d7:94:80:22:af:12:db:69:49:83:7a:e6:
                    cf:2e:53
                Exponent: 65537 (0x10001)
        X509v3 extensions:
            X509v3 Basic Constraints: 
                CA:FALSE
            Netscape Comment: 
                Easy-RSA Generated Certificate
            X509v3 Subject Key Identifier: 
                30:F9:F2:0E:93:05:E4:7B:F2:DF:FA:67:EA:42:F4:68:66:3C:F6:73
            X509v3 Authority Key Identifier: 
                keyid:12:CD:60:04:D2:A0:80:9E:70:ED:C6:99:B8:7B:2C:C6:52:FD:19:A1
                DirName:/C=US/ST=OH/L=Columbus/O=VikingVPN/OU=MyOrganizationalUnit/CN=VikingVPN CA/name=EasyRSA/emailAddress=me@myhost.mydomain
                serial:CF:35:85:EE:80:BF:2A:3E

            X509v3 Extended Key Usage: 
                TLS Web Client Authentication
            X509v3 Key Usage: 
                Digital Signature
    Signature Algorithm: md5WithRSAEncryption
         38:af:ff:33:33:15:ac:ca:59:08:8b:86:47:1d:8b:b7:b9:20:
         97:0b:6f:4c:fc:fe:54:1e:63:82:8b:36:7a:8c:62:bf:32:fb:
         29:98:3b:ea:00:2c:4c:40:bb:5a:71:b2:77:fd:19:77:0d:d7:
         31:2b:9e:41:55:e6:d3:38:48:78:46:15:05:df:bf:30:3b:d1:
         fa:7f:30:27:e0:32:3f:ba:f4:04:27:34:16:de:18:b5:3a:85:
         b6:06:8b:f6:71:c9:ec:f7:ed:45:4d:7a:1e:ee:ae:a2:70:50:
         df:84:c8:4e:1f:cc:af:4a:b7:9e:81:1d:3f:4b:d9:f9:a4:4e:
         1d:3f:0a:ab:72:63:71:27:f2:a0:e5:f3:d4:31:1a:76:43:b7:
         89:1f:2b:6f:c8:fc:c7:e5:3e:38:b2:27:86:88:97:a6:d9:29:
         8d:cd:fb:8d:db:74:e0:00:35:2e:34:0a:f3:58:1f:ce:3c:22:
         1e:c5:97:f6:5b:75:1b:71:74:b8:d1:3e:63:58:f7:df:ac:cb:
         64:c7:92:06:21:64:d9:18:df:2b:a6:2a:45:72:a5:09:9d:81:
         b0:79:51:db:0b:df:a2:d3:17:e4:e6:e1:64:ce:ef:52:93:62:
         79:81:5c:bf:86:30:f7:59:8e:cf:22:38:81:36:75:48:8b:40:
         4b:68:29:84:00:79:a2:4c:4e:eb:9d:5d:d7:24:e9:82:42:cf:
         c8:00:01:0c:dd:f8:a7:f6:9e:2d:a6:67:66:11:cb:af:69:d5:
         57:b3:39:8b:09:6a:ff:9c:ab:32:74:cb:e9:69:2e:83:9e:63:
         ff:35:f0:41:93:74:8c:86:cd:aa:de:f8:cc:2a:f2:f7:75:28:
         c1:1a:c5:8e:7b:87:1d:ce:54:79:e0:52:c1:a5:64:5d:ed:99:
         11:92:4f:9c:a8:58:97:a6:67:89:21:46:4c:a3:fa:6e:67:3e:
         96:ee:24:2c:aa:86:bf:98:a2:03:e6:60:69:cc:6d:1e:8e:59:
         0d:70:fa:5a:64:42:43:7c:94:6a:8b:7d:c8:00:61:50:05:e8:
         5b:50:d8:c0:65:27:57:10:8f:44:9e:ce:e8:a5:eb:ff:df:db:
         bf:a7:4a:3f:0f:ed:68:6e:46:23:7a:2c:b9:e4:46:e9:cc:98:
         3a:2a:8a:c9:d3:80:ae:ed:29:53:7c:90:5f:6a:d2:3a:77:f3:
         e2:19:1a:41:2f:74:c3:d8:c0:cd:fa:08:1e:4b:0a:69:97:52:
         31:c0:47:d6:32:7d:e0:be:d6:8d:c2:db:07:f5:ee:02:67:6f:
         7c:a5:95:cd:c1:bd:f4:d2:00:15:68:5f:c0:69:e1:e2:b2:e4:
         cf:e1:38:01:a9:e7:f2:eb
-----BEGIN CERTIFICATE-----
MIIGrTCCBJWgAwIBAgICFiEwDQYJKoZIhvcNAQEEBQAwgawxCzAJBgNVBAYTAlVT
MQswCQYDVQQIEwJPSDERMA8GA1UEBxMIQ29sdW1idXMxEjAQBgNVBAoTCVZpa2lu
Z1ZQTjEdMBsGA1UECxMUTXlPcmdhbml6YXRpb25hbFVuaXQxFTATBgNVBAMTDFZp
a2luZ1ZQTiBDQTEQMA4GA1UEKRMHRWFzeVJTQTEhMB8GCSqGSIb3DQEJARYSbWVA
bXlob3N0Lm15ZG9tYWluMB4XDTE1MDcwMTAwMDAzMVoXDTI1MDYyODAwMDAzMVow
HzEdMBsGA1UEAxMUQ2xpZW50MTc5OUNlcnQ5NWY4YjUwggIiMA0GCSqGSIb3DQEB
AQUAA4ICDwAwggIKAoICAQCRQuKqzSJBBr/UTx4yS0ACzyu3QDKc60nEthUUO6sZ
OUqJOrgXVYUKJw6riwoJopb/y7vZAOiDJ3oiheaYaAi10GxZfxq1EW7U5HCC3Soe
lYyCmNu1J1fsx/KmpcrmweJFdCXbgi9GsAbh9ASugcAFUnMczWr1TXpwfARKFud2
c5HHXx76rmYz9hqK0SdToY5KDa9Vxh3Qe9xr+ETMbBukaLEUdq62ZaDUcG+6Ca0E
6tCMnV7cYm1gCOUqFpaJW3wWBiIib7jpDA7m8kT8+cFc1qr4qRxZtAYM53lpDvD+
n0lMK04/UNAzgwmG0uUYbbweNmWINjf0qLUnOYtGEZdijflpfzcHSj8AX9toVcur
LcMS75rvxHUVLOVKX6y+4O0P2RYnn/lvzHJI2v2tZ1/18n3qggurKrbFYbNyfAOk
AOsrp2KCB+/gIh49/QO+eHDObqkA6UrotKAqtrxeNluWWD/aHWCTjEy1ewF9Wxzu
wEL1ZMhYMQySG29rJW9faPU1dXW0tHyPIIfxZn3XAve2r1fFcMRYjiNt8cGI/OT1
hyMCJDB0l4YQ9fGes7QkecAUkLtTUa3hcN9vVUnDP4Aru4AMlYp+GL9H4d1evP0z
+dmAWM9iWWkZtAiZY8itEPEIYlSU+rWejKGDP5jlKxRWkteUgCKvEttpSYN65s8u
UwIDAQABo4IBYzCCAV8wCQYDVR0TBAIwADAtBglghkgBhvhCAQ0EIBYeRWFzeS1S
U0EgR2VuZXJhdGVkIENlcnRpZmljYXRlMB0GA1UdDgQWBBQw+fIOkwXke/Lf+mfq
QvRoZjz2czCB4QYDVR0jBIHZMIHWgBQSzWAE0qCAnnDtxpm4eyzGUv0ZoaGBsqSB
rzCBrDELMAkGA1UEBhMCVVMxCzAJBgNVBAgTAk9IMREwDwYDVQQHEwhDb2x1bWJ1
czESMBAGA1UEChMJVmlraW5nVlBOMR0wGwYDVQQLExRNeU9yZ2FuaXphdGlvbmFs
VW5pdDEVMBMGA1UEAxMMVmlraW5nVlBOIENBMRAwDgYDVQQpEwdFYXN5UlNBMSEw
HwYJKoZIhvcNAQkBFhJtZUBteWhvc3QubXlkb21haW6CCQDPNYXugL8qPjATBgNV
HSUEDDAKBggrBgEFBQcDAjALBgNVHQ8EBAMCB4AwDQYJKoZIhvcNAQEEBQADggIB
ADiv/zMzFazKWQiLhkcdi7e5IJcLb0z8/lQeY4KLNnqMYr8y+ymYO+oALExAu1px
snf9GXcN1zErnkFV5tM4SHhGFQXfvzA70fp/MCfgMj+69AQnNBbeGLU6hbYGi/Zx
yez37UVNeh7urqJwUN+EyE4fzK9Kt56BHT9L2fmkTh0/CqtyY3En8qDl89QxGnZD
t4kfK2/I/MflPjiyJ4aIl6bZKY3N+43bdOAANS40CvNYH848Ih7Fl/ZbdRtxdLjR
PmNY99+sy2THkgYhZNkY3yumKkVypQmdgbB5UdsL36LTF+Tm4WTO71KTYnmBXL+G
MPdZjs8iOIE2dUiLQEtoKYQAeaJMTuudXdck6YJCz8gAAQzd+Kf2ni2mZ2YRy69p
1VezOYsJav+cqzJ0y+lpLoOeY/818EGTdIyGzare+Mwq8vd1KMEaxY57hx3OVHng
UsGlZF3tmRGST5yoWJemZ4khRkyj+m5nPpbuJCyqhr+YogPmYGnMbR6OWQ1w+lpk
QkN8lGqLfcgAYVAF6FtQ2MBlJ1cQj0Sezuil6//f27+nSj8P7WhuRiN6LLnkRunM
mDoqisnTgK7tKVN8kF9q0jp38+IZGkEvdMPYwM36CB5LCmmXUjHAR9YyfeC+1o3C
2wf17gJnb3yllc3BvfTSABVoX8Bp4eKy5M/hOAGp5/Lr
-----END CERTIFICATE-----
