Certificate:
    Data:
        Version: 3 (0x2)
        Serial Number: 5691 (0x163b)
    Signature Algorithm: md5WithRSAEncryption
        Issuer: C=US, ST=OH, L=Columbus, O=VikingVPN, OU=MyOrganizationalUnit, CN=VikingVPN CA/name=EasyRSA/emailAddress=me@myhost.mydomain
        Validity
            Not Before: Jul  3 19:03:12 2015 GMT
            Not After : Jun 30 19:03:12 2025 GMT
        Subject: CN=Client1807Certdf12f6
        Subject Public Key Info:
            Public Key Algorithm: rsaEncryption
                Public-Key: (4096 bit)
                Modulus:
                    00:c5:a6:b8:27:22:4a:48:4b:15:70:bb:eb:c5:3e:
                    6c:f6:53:6a:06:aa:ac:3d:b8:0d:ea:cd:13:af:2f:
                    ad:21:20:80:8d:4d:34:1c:d1:fe:75:35:90:86:7c:
                    38:fa:5d:e5:97:bb:a1:66:ff:f6:06:f5:3e:f1:ed:
                    c2:8b:c7:8f:34:d2:02:d5:26:09:a4:ca:97:b6:70:
                    6b:9a:e6:90:03:de:f9:55:05:86:5c:04:eb:76:4b:
                    e0:18:98:3a:bf:7a:01:31:1b:02:3d:f8:e6:4c:60:
                    27:96:82:98:80:a6:41:4e:e6:d4:ad:ea:3c:ae:4d:
                    09:db:b2:6f:3d:8e:fc:84:84:c6:27:1d:f0:84:25:
                    f4:22:ab:f2:4f:69:fa:a8:1f:3d:3c:ee:e4:1b:ab:
                    6c:7c:4d:55:83:d2:cf:03:a3:9b:86:73:8e:36:ae:
                    d1:fb:60:66:b9:36:17:54:62:1f:12:dd:85:ff:d1:
                    83:fa:5e:7f:be:7f:f5:9c:1b:fb:f2:ff:26:27:de:
                    87:e8:c7:86:ba:86:1b:f6:5b:22:e2:58:76:a6:c9:
                    44:1c:ac:c3:67:96:0e:5f:62:bb:42:92:20:86:46:
                    34:8e:00:f8:5b:0f:3e:d6:99:ab:53:e9:61:bc:0b:
                    33:0d:de:60:9c:05:5a:70:35:7d:b5:ae:09:fd:13:
                    48:a0:f4:cc:d0:81:2a:4a:74:27:da:87:71:5d:c1:
                    b8:c2:b2:2f:4f:ac:ad:9d:a5:5b:cb:ee:df:2b:a5:
                    f7:56:f5:eb:55:93:72:37:47:23:4d:51:f9:ed:5f:
                    56:55:a7:e1:6e:bc:45:bc:89:83:1a:17:80:6b:68:
                    84:e9:db:b6:fa:e2:61:fc:8b:ba:38:d9:ec:4c:58:
                    40:ba:c0:53:4c:8f:04:e7:2a:79:ed:7c:91:31:5e:
                    6b:4c:73:80:8d:49:b9:3f:a7:68:2d:b6:2c:db:16:
                    6b:c8:65:9c:6e:21:7b:27:89:41:b2:01:d8:31:49:
                    b6:f2:9a:ed:84:47:cb:6a:4f:73:b0:be:8a:5b:23:
                    55:69:e8:03:61:d4:59:00:c2:e6:f8:10:98:a2:a6:
                    53:2a:9e:07:61:c1:05:0d:f4:c0:d9:a1:e5:a0:a8:
                    d9:57:50:6a:e6:21:c7:c6:2c:32:fd:8e:3d:e5:e5:
                    fb:22:22:12:b9:32:ab:95:80:53:e7:86:b7:9f:68:
                    47:d1:12:0f:ca:af:92:91:f2:79:cc:51:ac:f9:04:
                    2a:17:7f:53:16:21:6a:7b:2b:34:16:0e:06:0b:75:
                    28:8b:f2:26:54:1f:52:00:88:9c:d1:ad:77:a0:55:
                    f9:34:1e:e6:74:94:4e:11:2a:37:78:2c:bc:3b:d3:
                    ca:2b:6d
                Exponent: 65537 (0x10001)
        X509v3 extensions:
            X509v3 Basic Constraints: 
                CA:FALSE
            Netscape Comment: 
                Easy-RSA Generated Certificate
            X509v3 Subject Key Identifier: 
                E4:C8:5D:79:F1:91:64:5D:79:D6:4A:9F:C3:AE:B0:D0:B7:A2:3A:97
            X509v3 Authority Key Identifier: 
                keyid:12:CD:60:04:D2:A0:80:9E:70:ED:C6:99:B8:7B:2C:C6:52:FD:19:A1
                DirName:/C=US/ST=OH/L=Columbus/O=VikingVPN/OU=MyOrganizationalUnit/CN=VikingVPN CA/name=EasyRSA/emailAddress=me@myhost.mydomain
                serial:CF:35:85:EE:80:BF:2A:3E

            X509v3 Extended Key Usage: 
                TLS Web Client Authentication
            X509v3 Key Usage: 
                Digital Signature
    Signature Algorithm: md5WithRSAEncryption
         9d:c9:e8:0f:10:70:2a:9f:7b:34:d5:00:5e:a1:2a:97:cc:c7:
         32:69:4e:f9:fb:ea:2d:6b:d3:14:41:aa:ba:1e:4a:83:87:52:
         32:c5:70:b4:62:0e:13:9e:03:65:5c:68:83:0c:7b:d7:c5:30:
         43:d0:47:e2:04:35:46:be:27:a0:2b:d6:90:c2:32:d9:5c:c2:
         9a:75:72:0e:d9:77:62:6c:5c:ac:bc:d6:a9:46:56:77:07:4f:
         f6:18:0d:0d:af:e4:de:58:ec:63:4f:cf:4c:55:76:e1:d6:be:
         e6:69:99:33:6c:65:01:bd:8f:93:7d:d7:32:c2:8a:ac:2c:34:
         81:f1:a1:d7:10:93:8c:fd:ad:90:f9:c3:c3:21:ff:21:18:57:
         cb:ce:bd:a2:3c:8d:d1:37:dd:24:c6:5f:89:e4:6c:5b:20:04:
         0f:82:a7:18:b3:0d:db:e2:13:e3:f0:8b:5b:b6:c0:ae:5f:71:
         01:53:4d:67:58:d7:71:25:d7:b3:f6:55:c4:b7:c9:5f:81:a2:
         57:12:c9:70:b1:85:a8:71:bc:49:91:90:03:02:45:82:32:76:
         93:f6:e4:99:fc:17:86:5d:3a:27:4b:ff:eb:c7:f7:e3:83:4c:
         c0:35:f0:20:4c:5d:a9:14:3f:aa:3a:af:46:5c:ef:dc:af:e3:
         1f:c4:ff:6e:bd:0f:5f:b0:47:f6:07:d1:a8:2c:5b:da:de:b9:
         5e:46:81:95:c4:a8:d1:13:83:b3:c1:7c:b1:d1:1e:af:87:40:
         20:1e:f5:a3:a6:6b:21:74:e3:9e:20:bf:db:7b:fd:61:2f:93:
         9e:d0:4d:1a:30:a6:a3:9a:ec:8b:e6:1d:fc:ef:e6:60:a0:79:
         a3:d2:f5:b0:e3:11:ec:c0:7d:30:fe:c1:9c:6d:4e:b2:62:0a:
         ce:ff:f6:87:95:12:c9:86:2c:18:00:1f:2f:b4:d4:9f:45:1b:
         85:7d:74:07:fc:31:66:a8:88:98:74:6d:18:8a:b8:b4:2f:a0:
         c4:4e:bb:04:8e:ef:06:71:f8:87:67:f4:84:98:56:36:4d:c7:
         b7:f1:cd:b2:f1:60:5b:d1:eb:5f:03:75:cd:4f:4a:3b:e6:4a:
         64:50:04:1c:c4:56:3f:e6:92:01:6e:38:39:ca:d0:3a:ea:24:
         39:aa:eb:3b:a5:1e:18:4b:46:43:e8:16:67:34:e4:91:4b:fd:
         f0:df:24:d8:16:44:21:24:57:a6:29:9b:6c:3f:63:53:7f:82:
         73:4e:fc:a1:53:18:e8:1b:e2:10:a7:36:46:6e:41:38:c3:57:
         87:7f:3a:98:15:6f:e1:87:bf:c5:83:f8:f9:7b:83:63:1a:f2:
         96:d8:85:59:bd:b3:2b:74
-----BEGIN CERTIFICATE-----
MIIGrTCCBJWgAwIBAgICFjswDQYJKoZIhvcNAQEEBQAwgawxCzAJBgNVBAYTAlVT
MQswCQYDVQQIEwJPSDERMA8GA1UEBxMIQ29sdW1idXMxEjAQBgNVBAoTCVZpa2lu
Z1ZQTjEdMBsGA1UECxMUTXlPcmdhbml6YXRpb25hbFVuaXQxFTATBgNVBAMTDFZp
a2luZ1ZQTiBDQTEQMA4GA1UEKRMHRWFzeVJTQTEhMB8GCSqGSIb3DQEJARYSbWVA
bXlob3N0Lm15ZG9tYWluMB4XDTE1MDcwMzE5MDMxMloXDTI1MDYzMDE5MDMxMlow
HzEdMBsGA1UEAxMUQ2xpZW50MTgwN0NlcnRkZjEyZjYwggIiMA0GCSqGSIb3DQEB
AQUAA4ICDwAwggIKAoICAQDFprgnIkpISxVwu+vFPmz2U2oGqqw9uA3qzROvL60h
IICNTTQc0f51NZCGfDj6XeWXu6Fm//YG9T7x7cKLx4800gLVJgmkype2cGua5pAD
3vlVBYZcBOt2S+AYmDq/egExGwI9+OZMYCeWgpiApkFO5tSt6jyuTQnbsm89jvyE
hMYnHfCEJfQiq/JPafqoHz087uQbq2x8TVWD0s8Do5uGc442rtH7YGa5NhdUYh8S
3YX/0YP6Xn++f/WcG/vy/yYn3ofox4a6hhv2WyLiWHamyUQcrMNnlg5fYrtCkiCG
RjSOAPhbDz7WmatT6WG8CzMN3mCcBVpwNX21rgn9E0ig9MzQgSpKdCfah3FdwbjC
si9PrK2dpVvL7t8rpfdW9etVk3I3RyNNUfntX1ZVp+FuvEW8iYMaF4BraITp27b6
4mH8i7o42exMWEC6wFNMjwTnKnntfJExXmtMc4CNSbk/p2gttizbFmvIZZxuIXsn
iUGyAdgxSbbymu2ER8tqT3OwvopbI1Vp6ANh1FkAwub4EJiiplMqngdhwQUN9MDZ
oeWgqNlXUGrmIcfGLDL9jj3l5fsiIhK5MquVgFPnhrefaEfREg/Kr5KR8nnMUaz5
BCoXf1MWIWp7KzQWDgYLdSiL8iZUH1IAiJzRrXegVfk0HuZ0lE4RKjd4LLw708or
bQIDAQABo4IBYzCCAV8wCQYDVR0TBAIwADAtBglghkgBhvhCAQ0EIBYeRWFzeS1S
U0EgR2VuZXJhdGVkIENlcnRpZmljYXRlMB0GA1UdDgQWBBTkyF158ZFkXXnWSp/D
rrDQt6I6lzCB4QYDVR0jBIHZMIHWgBQSzWAE0qCAnnDtxpm4eyzGUv0ZoaGBsqSB
rzCBrDELMAkGA1UEBhMCVVMxCzAJBgNVBAgTAk9IMREwDwYDVQQHEwhDb2x1bWJ1
czESMBAGA1UEChMJVmlraW5nVlBOMR0wGwYDVQQLExRNeU9yZ2FuaXphdGlvbmFs
VW5pdDEVMBMGA1UEAxMMVmlraW5nVlBOIENBMRAwDgYDVQQpEwdFYXN5UlNBMSEw
HwYJKoZIhvcNAQkBFhJtZUBteWhvc3QubXlkb21haW6CCQDPNYXugL8qPjATBgNV
HSUEDDAKBggrBgEFBQcDAjALBgNVHQ8EBAMCB4AwDQYJKoZIhvcNAQEEBQADggIB
AJ3J6A8QcCqfezTVAF6hKpfMxzJpTvn76i1r0xRBqroeSoOHUjLFcLRiDhOeA2Vc
aIMMe9fFMEPQR+IENUa+J6Ar1pDCMtlcwpp1cg7Zd2JsXKy81qlGVncHT/YYDQ2v
5N5Y7GNPz0xVduHWvuZpmTNsZQG9j5N91zLCiqwsNIHxodcQk4z9rZD5w8Mh/yEY
V8vOvaI8jdE33STGX4nkbFsgBA+CpxizDdviE+Pwi1u2wK5fcQFTTWdY13El17P2
VcS3yV+BolcSyXCxhahxvEmRkAMCRYIydpP25Jn8F4ZdOidL/+vH9+ODTMA18CBM
XakUP6o6r0Zc79yv4x/E/269D1+wR/YH0agsW9reuV5GgZXEqNETg7PBfLHRHq+H
QCAe9aOmayF0454gv9t7/WEvk57QTRowpqOa7IvmHfzv5mCgeaPS9bDjEezAfTD+
wZxtTrJiCs7/9oeVEsmGLBgAHy+01J9FG4V9dAf8MWaoiJh0bRiKuLQvoMROuwSO
7wZx+Idn9ISYVjZNx7fxzbLxYFvR618Ddc1PSjvmSmRQBBzEVj/mkgFuODnK0Drq
JDmq6zulHhhLRkPoFmc05JFL/fDfJNgWRCEkV6Ypm2w/Y1N/gnNO/KFTGOgb4hCn
NkZuQTjDV4d/OpgVb+GHv8WD+Pl7g2Ma8pbYhVm9syt0
-----END CERTIFICATE-----
