Certificate:
    Data:
        Version: 3 (0x2)
        Serial Number: 5704 (0x1648)
    Signature Algorithm: md5WithRSAEncryption
        Issuer: C=US, ST=OH, L=Columbus, O=VikingVPN, OU=MyOrganizationalUnit, CN=VikingVPN CA/name=EasyRSA/emailAddress=me@myhost.mydomain
        Validity
            Not Before: Jul  5 00:21:54 2015 GMT
            Not After : Jul  2 00:21:54 2025 GMT
        Subject: CN=Client1701Cert3ce0e5
        Subject Public Key Info:
            Public Key Algorithm: rsaEncryption
                Public-Key: (4096 bit)
                Modulus:
                    00:9e:37:40:8a:27:2f:2f:1a:19:98:0c:e9:50:14:
                    6c:eb:f7:b8:3a:20:7c:b5:5f:3d:34:44:0f:a1:13:
                    83:d8:6c:75:91:d6:12:cd:dd:b7:a2:30:77:b4:65:
                    a1:d2:17:aa:ae:a5:bb:95:9d:fe:21:4b:29:90:f2:
                    3f:94:a5:1e:30:f7:a7:7b:29:70:01:a7:6f:71:1c:
                    c6:a8:ee:4b:25:9d:95:6a:91:e3:4a:bf:7b:4c:32:
                    d4:43:73:f8:e4:3b:f3:e9:0d:4b:76:51:f4:11:43:
                    b7:3d:64:2e:ab:77:75:c2:83:40:63:77:c1:00:a7:
                    46:0b:2d:73:80:71:a7:fb:fa:fa:0c:08:5d:04:36:
                    c0:67:84:64:1f:7a:9b:f1:9f:a6:8f:57:e7:20:48:
                    ed:28:c6:bb:27:bb:49:65:c8:db:01:d1:9b:4a:0c:
                    a4:a7:11:8c:04:a7:9b:26:c3:04:90:f1:3f:1e:6e:
                    78:31:49:3c:a3:1e:b9:f4:6a:17:9a:d4:be:82:19:
                    b9:6a:a3:95:64:f6:2b:f9:55:39:65:63:35:27:4b:
                    9b:12:51:d0:d1:64:75:3b:59:be:23:4c:c6:3e:64:
                    fe:b1:c8:a0:fd:5a:be:3a:08:6e:3f:bf:ad:c5:52:
                    92:3c:81:d4:60:26:1d:e0:4b:1c:23:6a:ce:ae:be:
                    e3:44:af:6b:68:4a:c5:9f:fd:1e:e0:f4:8b:71:74:
                    23:bd:dd:e3:46:78:0b:63:7f:90:47:9b:24:85:f9:
                    38:26:59:8e:eb:a4:95:ba:4f:72:f8:3e:3b:be:b1:
                    c4:0b:02:d5:a8:2f:40:31:80:94:db:2f:eb:64:0c:
                    f7:96:7a:34:dd:17:61:0c:2d:ef:9c:df:02:90:c0:
                    89:9e:21:e8:48:36:1d:cd:c2:2b:51:de:d5:d2:a2:
                    6f:7b:25:f4:7c:2f:29:4a:04:ff:37:13:fd:a7:72:
                    b1:d8:f2:5a:92:c2:56:cb:74:3c:ae:30:36:e2:5d:
                    4e:1f:df:9c:f5:2f:21:4c:91:d2:31:b0:32:8f:8d:
                    60:4e:6b:5e:f2:22:cf:cc:70:d0:4a:02:27:6a:82:
                    71:6d:c5:b9:3b:47:dc:93:5d:75:35:61:b0:72:f3:
                    5b:45:32:54:94:f8:d3:d7:ca:29:20:b0:23:49:a6:
                    f3:31:37:ee:f4:38:4e:6e:7a:43:61:75:a1:bd:e3:
                    cc:35:f6:80:58:9c:da:de:d6:cb:1d:c3:58:65:a3:
                    fc:60:a8:19:20:7d:70:16:fd:00:d2:9d:d0:8d:f9:
                    d9:17:83:fb:40:fb:31:0f:87:b1:4d:6b:69:d5:6c:
                    96:34:08:36:75:1b:08:67:04:1d:f0:3f:24:99:e5:
                    56:7e:99
                Exponent: 65537 (0x10001)
        X509v3 extensions:
            X509v3 Basic Constraints: 
                CA:FALSE
            Netscape Comment: 
                Easy-RSA Generated Certificate
            X509v3 Subject Key Identifier: 
                96:B9:A5:1F:6C:78:AE:35:17:BB:80:7A:CB:D9:5F:7F:B0:AD:F2:33
            X509v3 Authority Key Identifier: 
                keyid:12:CD:60:04:D2:A0:80:9E:70:ED:C6:99:B8:7B:2C:C6:52:FD:19:A1
                DirName:/C=US/ST=OH/L=Columbus/O=VikingVPN/OU=MyOrganizationalUnit/CN=VikingVPN CA/name=EasyRSA/emailAddress=me@myhost.mydomain
                serial:CF:35:85:EE:80:BF:2A:3E

            X509v3 Extended Key Usage: 
                TLS Web Client Authentication
            X509v3 Key Usage: 
                Digital Signature
    Signature Algorithm: md5WithRSAEncryption
         c9:6d:a2:1e:6f:bd:f8:a7:d8:a9:17:e5:61:35:ce:4d:6d:0c:
         e7:78:d6:5a:5f:b1:c6:b3:ef:b1:65:53:35:a1:71:75:84:43:
         a0:13:5a:04:4c:e6:35:9b:ca:28:07:08:bd:a7:f3:db:94:70:
         65:e1:41:b7:bd:0b:41:69:ce:93:e7:63:cc:b8:2f:e1:1f:ef:
         bc:df:24:b5:80:a3:df:84:a5:b3:ae:1f:55:d3:dd:8c:4a:4f:
         47:b0:98:2c:d6:d2:82:6b:6d:e4:89:15:00:11:b0:d4:78:23:
         e6:a3:0d:75:dd:94:33:e4:08:3f:ef:8b:11:4a:52:03:1d:ae:
         7a:fd:04:c0:4d:af:1c:87:26:4b:94:99:1c:5b:d7:a1:03:6f:
         bb:31:c8:dc:5e:79:62:cf:37:81:b3:55:e1:1c:7f:22:f5:70:
         32:9c:e2:54:e1:f8:22:63:af:2c:ff:ff:31:33:f2:ba:d4:7e:
         4e:1a:37:eb:64:d5:71:14:e3:3f:80:a5:dd:fc:cb:6d:f0:a5:
         5f:00:32:1e:72:d6:96:6d:cf:ba:06:12:68:e0:85:4b:6a:6d:
         eb:33:9b:d9:ea:63:c7:e4:4b:05:57:6d:51:79:25:67:7c:11:
         96:1c:35:fe:8c:98:07:98:72:79:2e:e2:25:22:e3:80:ec:17:
         52:ae:8e:64:54:6f:c3:63:57:df:04:be:c8:d6:4a:05:1b:64:
         bd:65:9a:d4:6d:9b:0d:15:d2:19:58:d1:2b:ad:c4:72:fc:ac:
         09:22:f0:c9:10:75:99:12:28:a1:03:35:18:3b:99:a9:e7:ac:
         16:51:b0:c2:cc:9d:cf:6e:d3:66:2a:ba:8e:45:ce:c6:08:c3:
         06:6f:08:6b:77:67:7e:0f:86:19:18:9e:75:bb:e6:30:35:c1:
         4b:95:ac:81:83:aa:32:82:07:03:07:2a:58:19:05:8c:5a:95:
         a7:00:ec:34:0d:8b:45:19:35:12:00:8a:1a:17:d4:f8:c8:96:
         44:2a:46:38:5f:93:e3:b8:82:bb:c7:91:ba:43:83:75:ef:ba:
         f6:82:45:ac:dd:92:bf:3c:57:5c:04:aa:ab:b6:ec:f0:8e:ca:
         a6:7c:bf:8d:5a:14:dc:a4:89:f9:04:5d:ca:f4:57:6d:b3:cc:
         15:4f:dd:ad:e6:c1:21:b3:73:f4:39:62:ef:ff:a5:a1:73:c2:
         72:2f:00:73:c4:e6:0e:30:df:f7:93:20:d5:3d:56:5c:5f:92:
         54:5d:a9:3d:6a:e3:c7:f4:c7:de:40:3c:b2:ba:72:b9:90:fc:
         da:25:3e:ef:22:61:fe:dc:a5:b1:f5:86:2e:66:13:16:a8:fe:
         27:c7:f6:d3:e8:01:af:fb
-----BEGIN CERTIFICATE-----
MIIGrTCCBJWgAwIBAgICFkgwDQYJKoZIhvcNAQEEBQAwgawxCzAJBgNVBAYTAlVT
MQswCQYDVQQIEwJPSDERMA8GA1UEBxMIQ29sdW1idXMxEjAQBgNVBAoTCVZpa2lu
Z1ZQTjEdMBsGA1UECxMUTXlPcmdhbml6YXRpb25hbFVuaXQxFTATBgNVBAMTDFZp
a2luZ1ZQTiBDQTEQMA4GA1UEKRMHRWFzeVJTQTEhMB8GCSqGSIb3DQEJARYSbWVA
bXlob3N0Lm15ZG9tYWluMB4XDTE1MDcwNTAwMjE1NFoXDTI1MDcwMjAwMjE1NFow
HzEdMBsGA1UEAxMUQ2xpZW50MTcwMUNlcnQzY2UwZTUwggIiMA0GCSqGSIb3DQEB
AQUAA4ICDwAwggIKAoICAQCeN0CKJy8vGhmYDOlQFGzr97g6IHy1Xz00RA+hE4PY
bHWR1hLN3beiMHe0ZaHSF6qupbuVnf4hSymQ8j+UpR4w96d7KXABp29xHMao7ksl
nZVqkeNKv3tMMtRDc/jkO/PpDUt2UfQRQ7c9ZC6rd3XCg0Bjd8EAp0YLLXOAcaf7
+voMCF0ENsBnhGQfepvxn6aPV+cgSO0oxrsnu0llyNsB0ZtKDKSnEYwEp5smwwSQ
8T8ebngxSTyjHrn0ahea1L6CGblqo5Vk9iv5VTllYzUnS5sSUdDRZHU7Wb4jTMY+
ZP6xyKD9Wr46CG4/v63FUpI8gdRgJh3gSxwjas6uvuNEr2toSsWf/R7g9ItxdCO9
3eNGeAtjf5BHmySF+TgmWY7rpJW6T3L4Pju+scQLAtWoL0AxgJTbL+tkDPeWejTd
F2EMLe+c3wKQwImeIehINh3NwitR3tXSom97JfR8LylKBP83E/2ncrHY8lqSwlbL
dDyuMDbiXU4f35z1LyFMkdIxsDKPjWBOa17yIs/McNBKAidqgnFtxbk7R9yTXXU1
YbBy81tFMlSU+NPXyikgsCNJpvMxN+70OE5uekNhdaG948w19oBYnNre1ssdw1hl
o/xgqBkgfXAW/QDSndCN+dkXg/tA+zEPh7FNa2nVbJY0CDZ1GwhnBB3wPySZ5VZ+
mQIDAQABo4IBYzCCAV8wCQYDVR0TBAIwADAtBglghkgBhvhCAQ0EIBYeRWFzeS1S
U0EgR2VuZXJhdGVkIENlcnRpZmljYXRlMB0GA1UdDgQWBBSWuaUfbHiuNRe7gHrL
2V9/sK3yMzCB4QYDVR0jBIHZMIHWgBQSzWAE0qCAnnDtxpm4eyzGUv0ZoaGBsqSB
rzCBrDELMAkGA1UEBhMCVVMxCzAJBgNVBAgTAk9IMREwDwYDVQQHEwhDb2x1bWJ1
czESMBAGA1UEChMJVmlraW5nVlBOMR0wGwYDVQQLExRNeU9yZ2FuaXphdGlvbmFs
VW5pdDEVMBMGA1UEAxMMVmlraW5nVlBOIENBMRAwDgYDVQQpEwdFYXN5UlNBMSEw
HwYJKoZIhvcNAQkBFhJtZUBteWhvc3QubXlkb21haW6CCQDPNYXugL8qPjATBgNV
HSUEDDAKBggrBgEFBQcDAjALBgNVHQ8EBAMCB4AwDQYJKoZIhvcNAQEEBQADggIB
AMltoh5vvfin2KkX5WE1zk1tDOd41lpfscaz77FlUzWhcXWEQ6ATWgRM5jWbyigH
CL2n89uUcGXhQbe9C0FpzpPnY8y4L+Ef77zfJLWAo9+EpbOuH1XT3YxKT0ewmCzW
0oJrbeSJFQARsNR4I+ajDXXdlDPkCD/vixFKUgMdrnr9BMBNrxyHJkuUmRxb16ED
b7sxyNxeeWLPN4GzVeEcfyL1cDKc4lTh+CJjryz//zEz8rrUfk4aN+tk1XEU4z+A
pd38y23wpV8AMh5y1pZtz7oGEmjghUtqbeszm9nqY8fkSwVXbVF5JWd8EZYcNf6M
mAeYcnku4iUi44DsF1KujmRUb8NjV98EvsjWSgUbZL1lmtRtmw0V0hlY0SutxHL8
rAki8MkQdZkSKKEDNRg7mannrBZRsMLMnc9u02Yquo5FzsYIwwZvCGt3Z34PhhkY
nnW75jA1wUuVrIGDqjKCBwMHKlgZBYxalacA7DQNi0UZNRIAihoX1PjIlkQqRjhf
k+O4grvHkbpDg3XvuvaCRazdkr88V1wEqqu27PCOyqZ8v41aFNykifkEXcr0V22z
zBVP3a3mwSGzc/Q5Yu//paFzwnIvAHPE5g4w3/eTINU9VlxfklRdqT1q48f0x95A
PLK6crmQ/NolPu8iYf7cpbH1hi5mExao/ifH9tPoAa/7
-----END CERTIFICATE-----
