Certificate:
    Data:
        Version: 3 (0x2)
        Serial Number: 5740 (0x166c)
    Signature Algorithm: md5WithRSAEncryption
        Issuer: C=US, ST=OH, L=Columbus, O=VikingVPN, OU=MyOrganizationalUnit, CN=VikingVPN CA/name=EasyRSA/emailAddress=me@myhost.mydomain
        Validity
            Not Before: Jul  8 17:10:36 2015 GMT
            Not After : Jul  5 17:10:36 2025 GMT
        Subject: CN=Client1820Certf1ff6e
        Subject Public Key Info:
            Public Key Algorithm: rsaEncryption
                Public-Key: (4096 bit)
                Modulus:
                    00:ca:dc:85:29:a7:82:77:6b:b2:c0:1f:0e:a4:e9:
                    e0:7f:a2:7e:ae:d4:7a:8d:92:d6:64:10:29:92:b8:
                    d9:69:82:ef:0f:78:47:24:97:0a:1b:d8:77:05:5f:
                    a8:7e:40:22:a8:d0:22:70:d8:45:f0:4d:27:97:93:
                    0c:5d:bc:07:fa:a1:cd:6c:83:a7:7b:3f:3e:d6:91:
                    cd:aa:12:ec:5b:27:5a:24:c0:3b:3e:3d:54:0a:19:
                    66:2f:9f:84:7a:83:16:94:5f:d3:6b:a6:88:7c:34:
                    15:eb:b9:4e:83:7f:e2:b6:13:4e:00:26:a5:64:3b:
                    06:70:7d:29:33:cc:c7:6a:76:96:dd:10:cc:cb:b5:
                    24:8b:68:ed:5d:34:5e:3c:43:0e:f4:41:ad:07:ea:
                    59:e3:58:21:6a:5f:84:64:6d:ec:3e:92:6b:81:e0:
                    21:c8:b6:9e:0c:27:73:cc:74:98:f0:5f:2c:5b:09:
                    ba:e7:0b:4f:77:27:b2:87:85:b3:da:d2:de:16:c5:
                    0b:22:be:a7:83:6d:1b:35:2a:fa:63:f1:78:85:7b:
                    3a:4c:e8:d3:e1:a9:1d:3c:80:15:1e:45:eb:23:05:
                    75:7d:5c:cf:32:dc:11:2b:9c:5c:58:3a:a4:91:73:
                    b0:a4:1a:fc:d5:5e:fc:9e:20:f5:93:77:3a:c1:e4:
                    36:2a:3c:e4:67:2c:d4:53:19:74:97:0b:fb:b6:b3:
                    9d:ad:c6:81:5a:9a:69:bd:28:a3:05:fa:f8:88:9c:
                    1b:83:eb:ec:8b:2b:a1:66:22:a6:8c:65:06:0a:ba:
                    ee:df:88:03:72:a0:3e:1f:83:9a:8e:7f:22:34:c8:
                    b3:5a:43:a1:34:fd:f2:21:4b:83:49:b0:b8:7b:dd:
                    d9:60:ac:cb:c7:de:7f:7f:2b:74:7d:ef:2b:88:f9:
                    36:e6:a0:19:85:93:d5:9a:e0:a0:00:66:ec:7b:ce:
                    c1:8f:5c:8e:0f:51:74:53:5f:fb:df:d9:a0:3b:4e:
                    8d:c9:14:e9:d6:12:d4:3f:f3:f6:f0:c1:3b:bc:b0:
                    91:2c:0d:1e:6c:f3:9d:e7:33:47:7c:e3:dd:a9:3f:
                    53:58:c3:1c:7c:cf:e9:5d:16:d4:91:5d:fc:2a:83:
                    1a:7d:71:d5:a7:7d:74:70:69:2d:1b:d4:c7:2e:be:
                    a7:a8:5e:bd:6b:cd:8b:d6:82:42:e3:dd:76:34:ec:
                    8d:f2:9a:78:42:cd:5f:cc:32:eb:14:ca:38:92:7e:
                    91:f6:42:39:89:f7:bb:16:bb:d5:d2:e6:fa:2c:b4:
                    c0:b9:7b:17:cc:00:a4:94:e4:86:11:ef:0e:6f:c8:
                    68:c1:db:b5:20:42:fe:5c:96:b8:c7:71:b4:53:ea:
                    e8:17:53
                Exponent: 65537 (0x10001)
        X509v3 extensions:
            X509v3 Basic Constraints: 
                CA:FALSE
            Netscape Comment: 
                Easy-RSA Generated Certificate
            X509v3 Subject Key Identifier: 
                50:71:B0:BA:2B:84:05:18:C3:79:6C:53:E0:93:A8:92:06:49:40:D0
            X509v3 Authority Key Identifier: 
                keyid:12:CD:60:04:D2:A0:80:9E:70:ED:C6:99:B8:7B:2C:C6:52:FD:19:A1
                DirName:/C=US/ST=OH/L=Columbus/O=VikingVPN/OU=MyOrganizationalUnit/CN=VikingVPN CA/name=EasyRSA/emailAddress=me@myhost.mydomain
                serial:CF:35:85:EE:80:BF:2A:3E

            X509v3 Extended Key Usage: 
                TLS Web Client Authentication
            X509v3 Key Usage: 
                Digital Signature
    Signature Algorithm: md5WithRSAEncryption
         73:a3:bc:ed:79:77:f6:2d:66:cd:57:fa:38:0b:d9:09:da:15:
         11:31:3a:40:19:c5:8e:4d:75:7f:b8:2a:a9:0b:f5:ba:ff:1a:
         1d:fc:95:ad:5d:9c:f5:6e:7c:a2:0b:9b:15:74:b1:1e:65:7b:
         bf:25:9d:c3:04:5a:7a:67:f0:93:94:19:dd:66:a5:71:9d:b3:
         9f:ef:7d:76:3a:1a:30:23:c8:54:a1:23:c0:0d:5f:aa:33:75:
         db:38:92:94:77:cf:f4:6c:5f:ab:a3:f6:b1:ca:f6:78:bd:d2:
         76:b9:d9:ab:f5:f3:5b:26:97:c5:a7:c0:04:0e:29:90:62:34:
         12:fd:c9:c5:a0:1d:67:82:3e:dd:a3:bc:8a:6a:57:90:8f:f6:
         a3:20:02:fa:41:c7:bc:2b:2e:f9:ed:b8:bd:86:6e:df:2b:82:
         dd:ae:1d:e1:45:2c:15:7e:d9:a6:49:35:8a:01:8d:59:b6:34:
         fd:f6:ea:ea:fa:bd:f3:35:39:3b:14:2e:f6:88:2a:e0:50:ea:
         20:06:c2:33:19:63:f7:3e:5d:0c:08:ec:be:04:42:7c:c8:09:
         64:3b:13:e0:72:8e:76:ff:66:23:3b:d8:c2:82:31:8e:43:99:
         29:71:5f:a1:c4:68:92:e3:da:a6:8d:69:a4:9b:a4:c2:e0:6d:
         6e:3b:2f:5b:05:27:db:60:8f:75:1b:f3:5c:f7:c2:8e:b2:28:
         6c:93:d8:32:5b:9e:29:e6:ce:aa:2e:d8:52:74:a5:99:f8:07:
         ad:ee:bc:5b:dc:7a:4b:c3:bf:ce:a1:db:25:f2:d4:77:47:77:
         b9:ee:55:f7:85:31:e5:69:73:66:ec:b0:25:d7:ab:29:4d:13:
         1c:f5:da:20:84:0f:e3:06:15:37:3f:4a:aa:eb:50:ed:47:64:
         45:ab:d8:2f:51:cc:a6:ce:86:5d:31:03:7b:ad:84:07:8d:02:
         35:24:5a:fc:f5:84:78:04:20:37:82:85:f4:34:2d:2b:58:ee:
         64:44:71:35:06:4a:ef:52:d4:69:36:e6:17:07:06:43:aa:54:
         f4:01:97:85:1c:61:31:b2:07:04:fe:03:75:83:a2:10:23:ab:
         c5:ab:96:3f:a1:f9:33:56:a2:31:e3:cc:76:23:e3:de:61:a2:
         83:46:2a:29:81:17:11:5b:7a:ce:2b:fc:01:36:68:72:4b:85:
         7e:8a:f5:ae:eb:04:5c:35:98:05:64:76:a6:3e:a8:6a:91:d6:
         f0:20:f7:a9:e7:ac:9c:5e:e4:e8:73:60:4b:6e:06:14:f0:40:
         37:f2:aa:ee:50:b5:02:3f:92:27:df:e6:82:f4:57:8e:99:9a:
         3b:dd:48:de:f7:ba:2c:7c
-----BEGIN CERTIFICATE-----
MIIGrTCCBJWgAwIBAgICFmwwDQYJKoZIhvcNAQEEBQAwgawxCzAJBgNVBAYTAlVT
MQswCQYDVQQIEwJPSDERMA8GA1UEBxMIQ29sdW1idXMxEjAQBgNVBAoTCVZpa2lu
Z1ZQTjEdMBsGA1UECxMUTXlPcmdhbml6YXRpb25hbFVuaXQxFTATBgNVBAMTDFZp
a2luZ1ZQTiBDQTEQMA4GA1UEKRMHRWFzeVJTQTEhMB8GCSqGSIb3DQEJARYSbWVA
bXlob3N0Lm15ZG9tYWluMB4XDTE1MDcwODE3MTAzNloXDTI1MDcwNTE3MTAzNlow
HzEdMBsGA1UEAxMUQ2xpZW50MTgyMENlcnRmMWZmNmUwggIiMA0GCSqGSIb3DQEB
AQUAA4ICDwAwggIKAoICAQDK3IUpp4J3a7LAHw6k6eB/on6u1HqNktZkECmSuNlp
gu8PeEcklwob2HcFX6h+QCKo0CJw2EXwTSeXkwxdvAf6oc1sg6d7Pz7Wkc2qEuxb
J1okwDs+PVQKGWYvn4R6gxaUX9Nrpoh8NBXruU6Df+K2E04AJqVkOwZwfSkzzMdq
dpbdEMzLtSSLaO1dNF48Qw70Qa0H6lnjWCFqX4Rkbew+kmuB4CHItp4MJ3PMdJjw
XyxbCbrnC093J7KHhbPa0t4WxQsivqeDbRs1Kvpj8XiFezpM6NPhqR08gBUeResj
BXV9XM8y3BErnFxYOqSRc7CkGvzVXvyeIPWTdzrB5DYqPORnLNRTGXSXC/u2s52t
xoFammm9KKMF+viInBuD6+yLK6FmIqaMZQYKuu7fiANyoD4fg5qOfyI0yLNaQ6E0
/fIhS4NJsLh73dlgrMvH3n9/K3R97yuI+TbmoBmFk9Wa4KAAZux7zsGPXI4PUXRT
X/vf2aA7To3JFOnWEtQ/8/bwwTu8sJEsDR5s853nM0d8492pP1NYwxx8z+ldFtSR
Xfwqgxp9cdWnfXRwaS0b1McuvqeoXr1rzYvWgkLj3XY07I3ymnhCzV/MMusUyjiS
fpH2QjmJ97sWu9XS5vostMC5exfMAKSU5IYR7w5vyGjB27UgQv5clrjHcbRT6ugX
UwIDAQABo4IBYzCCAV8wCQYDVR0TBAIwADAtBglghkgBhvhCAQ0EIBYeRWFzeS1S
U0EgR2VuZXJhdGVkIENlcnRpZmljYXRlMB0GA1UdDgQWBBRQcbC6K4QFGMN5bFPg
k6iSBklA0DCB4QYDVR0jBIHZMIHWgBQSzWAE0qCAnnDtxpm4eyzGUv0ZoaGBsqSB
rzCBrDELMAkGA1UEBhMCVVMxCzAJBgNVBAgTAk9IMREwDwYDVQQHEwhDb2x1bWJ1
czESMBAGA1UEChMJVmlraW5nVlBOMR0wGwYDVQQLExRNeU9yZ2FuaXphdGlvbmFs
VW5pdDEVMBMGA1UEAxMMVmlraW5nVlBOIENBMRAwDgYDVQQpEwdFYXN5UlNBMSEw
HwYJKoZIhvcNAQkBFhJtZUBteWhvc3QubXlkb21haW6CCQDPNYXugL8qPjATBgNV
HSUEDDAKBggrBgEFBQcDAjALBgNVHQ8EBAMCB4AwDQYJKoZIhvcNAQEEBQADggIB
AHOjvO15d/YtZs1X+jgL2QnaFRExOkAZxY5NdX+4KqkL9br/Gh38la1dnPVufKIL
mxV0sR5le78lncMEWnpn8JOUGd1mpXGds5/vfXY6GjAjyFShI8ANX6ozdds4kpR3
z/RsX6uj9rHK9ni90na52av181sml8WnwAQOKZBiNBL9ycWgHWeCPt2jvIpqV5CP
9qMgAvpBx7wrLvntuL2Gbt8rgt2uHeFFLBV+2aZJNYoBjVm2NP326ur6vfM1OTsU
LvaIKuBQ6iAGwjMZY/c+XQwI7L4EQnzICWQ7E+Byjnb/ZiM72MKCMY5DmSlxX6HE
aJLj2qaNaaSbpMLgbW47L1sFJ9tgj3Ub81z3wo6yKGyT2DJbninmzqou2FJ0pZn4
B63uvFvcekvDv86h2yXy1HdHd7nuVfeFMeVpc2bssCXXqylNExz12iCED+MGFTc/
SqrrUO1HZEWr2C9RzKbOhl0xA3uthAeNAjUkWvz1hHgEIDeChfQ0LStY7mREcTUG
Su9S1Gk25hcHBkOqVPQBl4UcYTGyBwT+A3WDohAjq8Wrlj+h+TNWojHjzHYj495h
ooNGKimBFxFbes4r/AE2aHJLhX6K9a7rBFw1mAVkdqY+qGqR1vAg96nnrJxe5Ohz
YEtuBhTwQDfyqu5QtQI/kiff5oL0V46ZmjvdSN73uix8
-----END CERTIFICATE-----
