Certificate:
    Data:
        Version: 3 (0x2)
        Serial Number: 5742 (0x166e)
    Signature Algorithm: md5WithRSAEncryption
        Issuer: C=US, ST=OH, L=Columbus, O=VikingVPN, OU=MyOrganizationalUnit, CN=VikingVPN CA/name=EasyRSA/emailAddress=me@myhost.mydomain
        Validity
            Not Before: Jul  9 00:48:19 2015 GMT
            Not After : Jul  6 00:48:19 2025 GMT
        Subject: CN=Client1821Cert6e3397
        Subject Public Key Info:
            Public Key Algorithm: rsaEncryption
                Public-Key: (4096 bit)
                Modulus:
                    00:b3:4a:98:19:e4:58:61:a1:a5:7b:71:ba:08:62:
                    7f:c0:fd:12:5e:81:94:46:fa:4e:68:bd:5c:aa:d1:
                    fd:aa:75:f6:45:54:da:2d:28:6c:85:d5:e3:be:fd:
                    96:bc:87:40:d5:21:98:39:55:d4:e9:1d:41:90:02:
                    45:a5:e5:40:bc:e4:43:e2:00:d3:22:e5:3e:8b:c9:
                    76:3d:9d:53:22:70:91:88:ba:95:c4:23:86:a0:1f:
                    6d:1b:17:26:2a:16:de:47:59:41:73:bb:63:31:58:
                    98:4c:76:2f:e1:5b:89:80:0c:f7:0f:e2:ba:30:e5:
                    25:53:6d:76:9f:65:19:2c:ff:da:cc:a2:6a:24:70:
                    40:84:47:ef:da:eb:27:07:b0:ab:c4:72:02:74:d5:
                    81:30:bf:b7:51:18:72:21:c2:02:d3:02:9a:ed:21:
                    7c:db:de:70:66:50:65:77:e1:aa:e3:3c:74:36:80:
                    7b:be:79:a8:00:d5:cf:a6:e2:23:af:25:00:6c:ff:
                    1f:56:df:54:ce:d4:80:34:2a:32:58:53:fd:43:b2:
                    5f:66:31:92:82:ed:74:ca:de:b2:de:6b:25:cf:5f:
                    b4:43:ee:2f:26:74:d5:39:0f:a6:4e:d7:06:a4:8a:
                    3e:4d:dd:27:28:e2:4e:54:a3:55:5a:77:b0:0e:61:
                    5e:a0:8c:b7:c0:89:c8:f8:3b:1b:55:c1:c9:3f:c8:
                    9d:5b:09:9c:7c:75:0c:00:72:8b:7c:8f:fe:b5:a8:
                    1c:86:ec:ab:e2:24:38:4b:ac:5d:93:67:38:cc:be:
                    d1:46:6f:3f:56:48:64:d9:52:93:4f:a2:21:7f:f5:
                    fb:c8:be:a2:88:a3:d1:93:61:42:96:51:d8:13:a1:
                    b5:c9:a2:57:62:de:b8:9a:d2:c8:22:91:ad:7a:f8:
                    20:41:05:64:a7:fc:0a:29:c7:1f:3c:20:1a:58:64:
                    18:4f:fd:5f:6b:3f:41:ec:51:52:9b:44:dd:05:4e:
                    50:31:d5:8b:f3:3b:a9:cf:35:02:38:b5:61:d9:a7:
                    54:b3:1d:14:e9:d7:f1:26:c2:b3:40:da:0b:12:e0:
                    0b:5c:9f:a2:52:83:8a:f7:ab:2b:c1:83:0a:7d:ed:
                    dc:0c:a9:2b:72:c9:60:3a:ae:35:93:af:bd:b5:13:
                    09:6b:67:81:fa:c5:90:f0:db:c7:17:08:97:b0:0f:
                    20:ba:9f:1b:88:f6:ee:f3:20:74:9b:64:47:b5:fa:
                    6a:65:fa:08:7c:c1:14:ac:c4:c8:66:6a:06:7c:60:
                    09:f5:a1:6e:95:67:61:4d:54:29:71:cf:6c:2d:7a:
                    4d:d4:41:e0:a0:0b:61:e1:10:71:ba:e9:20:ac:f7:
                    b9:22:33
                Exponent: 65537 (0x10001)
        X509v3 extensions:
            X509v3 Basic Constraints: 
                CA:FALSE
            Netscape Comment: 
                Easy-RSA Generated Certificate
            X509v3 Subject Key Identifier: 
                E2:47:83:A7:D1:27:37:FA:0B:91:C0:F3:99:11:4B:DB:39:4E:41:9E
            X509v3 Authority Key Identifier: 
                keyid:12:CD:60:04:D2:A0:80:9E:70:ED:C6:99:B8:7B:2C:C6:52:FD:19:A1
                DirName:/C=US/ST=OH/L=Columbus/O=VikingVPN/OU=MyOrganizationalUnit/CN=VikingVPN CA/name=EasyRSA/emailAddress=me@myhost.mydomain
                serial:CF:35:85:EE:80:BF:2A:3E

            X509v3 Extended Key Usage: 
                TLS Web Client Authentication
            X509v3 Key Usage: 
                Digital Signature
    Signature Algorithm: md5WithRSAEncryption
         aa:bb:5f:28:f7:74:b1:38:7f:7f:33:01:65:35:fe:e1:ef:87:
         29:19:f6:4c:ca:f8:dc:a5:e4:3e:4c:54:77:98:d2:12:66:2d:
         bd:fe:75:15:ad:da:c9:a9:56:e1:a5:31:1a:b5:86:64:be:92:
         cb:18:5f:37:b0:d0:af:8f:22:5e:e6:25:8f:e0:4f:54:67:02:
         5c:f5:66:7e:f4:a6:75:0b:09:85:24:51:87:b1:6e:f0:a0:0f:
         87:40:30:1f:74:d3:4d:f9:03:38:f7:82:c6:d1:47:41:cc:e9:
         5d:ab:91:8b:45:81:b7:76:7a:50:c5:63:13:97:6b:05:65:63:
         5a:5a:73:64:d1:33:d2:35:78:32:07:6d:62:74:2a:42:6c:c7:
         b0:9d:ea:1a:2a:1a:fa:e8:da:c6:3e:40:11:c2:17:33:f2:38:
         0e:81:b7:18:b0:8b:8d:2a:e3:70:5a:51:99:15:82:01:36:2d:
         7d:24:76:89:8e:91:36:e0:68:5c:10:30:58:4f:d5:a5:68:05:
         b4:a3:c5:fd:93:9f:02:5a:f9:b5:d5:28:58:3a:1d:1e:59:1f:
         af:74:26:f0:32:6d:0a:b6:96:57:27:3e:ed:dd:d8:41:27:f1:
         27:b1:8a:c2:ef:95:03:be:5a:f0:a9:7e:35:59:ad:8e:3b:ae:
         bf:0d:a0:a3:31:0e:b8:99:e4:42:8c:02:ca:8e:6b:8b:96:c4:
         70:44:41:62:f3:15:6d:2f:08:83:8b:34:7b:33:58:f9:59:21:
         08:60:93:f9:c4:22:7b:57:a8:68:e9:1c:5c:ef:5a:b5:4c:4a:
         ca:b4:97:d8:1d:4a:87:10:af:7f:1e:1a:e4:fd:6a:2a:2f:a5:
         dd:6e:56:94:d4:6c:9c:62:b5:fb:90:e4:ce:0d:29:ab:8f:84:
         6a:9d:c1:8f:5e:62:bb:9b:fc:cf:70:d0:fb:5f:f4:e4:76:73:
         89:ca:81:6c:07:86:d6:61:44:09:98:10:75:1a:ad:d2:ce:d8:
         c3:fa:da:2e:0f:19:92:cc:aa:d9:68:8e:3d:fd:6d:03:d0:fe:
         5b:14:4b:e3:2f:97:5d:07:2b:71:b7:42:85:63:89:3e:75:40:
         ec:0d:77:d5:77:52:09:a0:ef:6f:f2:59:e4:24:a2:da:b7:16:
         5e:cf:cb:6c:de:a7:58:7b:c9:6e:82:89:eb:d3:d0:1a:99:d7:
         a7:27:04:ae:6a:41:04:b6:98:e5:27:4b:f5:96:13:7e:ed:98:
         0b:37:08:c2:9b:88:0e:13:5d:fc:83:7b:96:94:bd:ca:28:84:
         fa:58:fc:5a:e4:03:70:7a:83:9c:49:95:da:87:cb:b1:e8:f0:
         5c:fe:c4:1d:7c:54:a5:ec
-----BEGIN CERTIFICATE-----
MIIGrTCCBJWgAwIBAgICFm4wDQYJKoZIhvcNAQEEBQAwgawxCzAJBgNVBAYTAlVT
MQswCQYDVQQIEwJPSDERMA8GA1UEBxMIQ29sdW1idXMxEjAQBgNVBAoTCVZpa2lu
Z1ZQTjEdMBsGA1UECxMUTXlPcmdhbml6YXRpb25hbFVuaXQxFTATBgNVBAMTDFZp
a2luZ1ZQTiBDQTEQMA4GA1UEKRMHRWFzeVJTQTEhMB8GCSqGSIb3DQEJARYSbWVA
bXlob3N0Lm15ZG9tYWluMB4XDTE1MDcwOTAwNDgxOVoXDTI1MDcwNjAwNDgxOVow
HzEdMBsGA1UEAxMUQ2xpZW50MTgyMUNlcnQ2ZTMzOTcwggIiMA0GCSqGSIb3DQEB
AQUAA4ICDwAwggIKAoICAQCzSpgZ5FhhoaV7cboIYn/A/RJegZRG+k5ovVyq0f2q
dfZFVNotKGyF1eO+/Za8h0DVIZg5VdTpHUGQAkWl5UC85EPiANMi5T6LyXY9nVMi
cJGIupXEI4agH20bFyYqFt5HWUFzu2MxWJhMdi/hW4mADPcP4row5SVTbXafZRks
/9rMomokcECER+/a6ycHsKvEcgJ01YEwv7dRGHIhwgLTAprtIXzb3nBmUGV34arj
PHQ2gHu+eagA1c+m4iOvJQBs/x9W31TO1IA0KjJYU/1Dsl9mMZKC7XTK3rLeayXP
X7RD7i8mdNU5D6ZO1wakij5N3Sco4k5Uo1Vad7AOYV6gjLfAicj4OxtVwck/yJ1b
CZx8dQwAcot8j/61qByG7KviJDhLrF2TZzjMvtFGbz9WSGTZUpNPoiF/9fvIvqKI
o9GTYUKWUdgTobXJoldi3ria0sgika16+CBBBWSn/Aopxx88IBpYZBhP/V9rP0Hs
UVKbRN0FTlAx1YvzO6nPNQI4tWHZp1SzHRTp1/EmwrNA2gsS4Atcn6JSg4r3qyvB
gwp97dwMqStyyWA6rjWTr721EwlrZ4H6xZDw28cXCJewDyC6nxuI9u7zIHSbZEe1
+mpl+gh8wRSsxMhmagZ8YAn1oW6VZ2FNVClxz2wtek3UQeCgC2HhEHG66SCs97ki
MwIDAQABo4IBYzCCAV8wCQYDVR0TBAIwADAtBglghkgBhvhCAQ0EIBYeRWFzeS1S
U0EgR2VuZXJhdGVkIENlcnRpZmljYXRlMB0GA1UdDgQWBBTiR4On0Sc3+guRwPOZ
EUvbOU5BnjCB4QYDVR0jBIHZMIHWgBQSzWAE0qCAnnDtxpm4eyzGUv0ZoaGBsqSB
rzCBrDELMAkGA1UEBhMCVVMxCzAJBgNVBAgTAk9IMREwDwYDVQQHEwhDb2x1bWJ1
czESMBAGA1UEChMJVmlraW5nVlBOMR0wGwYDVQQLExRNeU9yZ2FuaXphdGlvbmFs
VW5pdDEVMBMGA1UEAxMMVmlraW5nVlBOIENBMRAwDgYDVQQpEwdFYXN5UlNBMSEw
HwYJKoZIhvcNAQkBFhJtZUBteWhvc3QubXlkb21haW6CCQDPNYXugL8qPjATBgNV
HSUEDDAKBggrBgEFBQcDAjALBgNVHQ8EBAMCB4AwDQYJKoZIhvcNAQEEBQADggIB
AKq7Xyj3dLE4f38zAWU1/uHvhykZ9kzK+Nyl5D5MVHeY0hJmLb3+dRWt2smpVuGl
MRq1hmS+kssYXzew0K+PIl7mJY/gT1RnAlz1Zn70pnULCYUkUYexbvCgD4dAMB90
0035Azj3gsbRR0HM6V2rkYtFgbd2elDFYxOXawVlY1pac2TRM9I1eDIHbWJ0KkJs
x7Cd6hoqGvro2sY+QBHCFzPyOA6Btxiwi40q43BaUZkVggE2LX0kdomOkTbgaFwQ
MFhP1aVoBbSjxf2TnwJa+bXVKFg6HR5ZH690JvAybQq2llcnPu3d2EEn8SexisLv
lQO+WvCpfjVZrY47rr8NoKMxDriZ5EKMAsqOa4uWxHBEQWLzFW0vCIOLNHszWPlZ
IQhgk/nEIntXqGjpHFzvWrVMSsq0l9gdSocQr38eGuT9aiovpd1uVpTUbJxitfuQ
5M4NKauPhGqdwY9eYrub/M9w0Ptf9OR2c4nKgWwHhtZhRAmYEHUardLO2MP62i4P
GZLMqtlojj39bQPQ/lsUS+Mvl10HK3G3QoVjiT51QOwNd9V3Ugmg72/yWeQkotq3
Fl7Py2zep1h7yW6CievT0BqZ16cnBK5qQQS2mOUnS/WWE37tmAs3CMKbiA4TXfyD
e5aUvcoohPpY/FrkA3B6g5xJldqHy7Ho8Fz+xB18VKXs
-----END CERTIFICATE-----
