Certificate:
    Data:
        Version: 3 (0x2)
        Serial Number: 5783 (0x1697)
    Signature Algorithm: md5WithRSAEncryption
        Issuer: C=US, ST=OH, L=Columbus, O=VikingVPN, OU=MyOrganizationalUnit, CN=VikingVPN CA/name=EasyRSA/emailAddress=me@myhost.mydomain
        Validity
            Not Before: Jul 11 23:21:38 2015 GMT
            Not After : Jul  8 23:21:38 2025 GMT
        Subject: CN=Client1585Cert404a70
        Subject Public Key Info:
            Public Key Algorithm: rsaEncryption
                Public-Key: (4096 bit)
                Modulus:
                    00:9b:64:86:5d:c9:96:0e:59:19:b9:41:4e:66:fd:
                    5c:21:18:f6:8d:a6:c7:94:12:97:6e:17:a1:14:71:
                    05:63:82:f9:c7:5c:25:11:0a:4e:02:74:0f:bd:bc:
                    2f:27:31:16:00:52:39:db:26:44:0e:d4:87:c6:20:
                    9d:6a:27:07:3b:db:0b:e0:d6:ad:fc:cb:1a:de:89:
                    eb:68:61:81:29:65:b5:f7:7a:35:f7:d9:c4:db:e0:
                    03:1f:c1:32:de:c9:23:0b:55:e6:09:93:60:d4:1f:
                    9b:07:85:62:65:04:f8:db:41:64:fc:b3:0c:ab:99:
                    6f:62:b2:c6:82:62:4b:c2:03:37:28:f2:ef:62:fe:
                    5d:a2:61:1f:29:a3:db:97:8b:e0:b7:8c:29:ce:0f:
                    1a:be:4b:f1:d4:7d:72:63:19:96:a1:05:89:25:e4:
                    8f:03:e5:21:19:b6:5c:b2:19:59:f8:27:e0:4b:f7:
                    ce:a6:ae:fb:71:4b:2a:c7:2b:8a:e8:99:c5:8a:18:
                    43:1a:62:f6:50:57:19:e7:d2:ba:9b:80:d9:1d:ad:
                    df:17:79:90:d2:72:0b:d1:0d:78:b2:26:5d:f8:9e:
                    a8:43:6e:38:ec:d2:a7:05:85:36:be:cf:db:a5:ad:
                    1c:b1:a4:e3:d1:63:d3:9f:52:bb:51:7d:7f:41:fe:
                    25:d2:db:4f:ef:15:f0:f5:39:16:f2:e0:c5:43:2d:
                    82:1e:be:ed:a2:0a:d8:a2:5b:c0:71:f0:26:42:12:
                    04:25:fa:49:f4:56:8c:81:6f:53:f1:0c:60:40:93:
                    64:8c:d9:96:de:8a:36:3a:38:1a:63:e8:2d:2e:f6:
                    59:b1:f7:80:37:83:c3:bb:ec:ef:5c:a1:e1:c8:4c:
                    85:21:68:a6:23:b5:69:1a:b7:f0:d0:9c:ea:14:cd:
                    44:83:b4:b3:d4:18:41:d1:00:3a:b8:ce:a8:b2:da:
                    cb:ec:6d:3f:7a:aa:7e:1c:8c:83:15:b5:93:19:80:
                    97:68:40:8d:bd:ee:a3:ba:67:b1:65:d1:ee:3e:80:
                    31:86:5c:bb:0d:bd:8d:55:4d:4d:6a:13:e8:61:69:
                    4e:32:19:f7:53:ed:de:d1:84:e0:22:0b:84:61:90:
                    5e:03:8b:37:02:ae:23:59:5b:03:de:25:52:5c:73:
                    8f:8d:77:d9:dd:9c:3a:24:0d:0c:8f:d3:50:f7:5e:
                    56:e0:99:6a:4c:97:51:a5:c5:89:08:f3:e6:2d:52:
                    d4:a7:02:9d:27:2c:c8:55:57:a8:fd:ce:9e:d2:e6:
                    1e:27:bb:c0:e3:f7:27:80:20:2d:eb:b9:1c:b4:e2:
                    d4:41:15:be:12:95:43:af:7c:01:69:d4:b5:33:32:
                    d0:fa:df
                Exponent: 65537 (0x10001)
        X509v3 extensions:
            X509v3 Basic Constraints: 
                CA:FALSE
            Netscape Comment: 
                Easy-RSA Generated Certificate
            X509v3 Subject Key Identifier: 
                84:7C:56:14:49:2C:08:9D:7A:8F:CB:60:63:34:7C:98:1A:FF:D9:DF
            X509v3 Authority Key Identifier: 
                keyid:12:CD:60:04:D2:A0:80:9E:70:ED:C6:99:B8:7B:2C:C6:52:FD:19:A1
                DirName:/C=US/ST=OH/L=Columbus/O=VikingVPN/OU=MyOrganizationalUnit/CN=VikingVPN CA/name=EasyRSA/emailAddress=me@myhost.mydomain
                serial:CF:35:85:EE:80:BF:2A:3E

            X509v3 Extended Key Usage: 
                TLS Web Client Authentication
            X509v3 Key Usage: 
                Digital Signature
    Signature Algorithm: md5WithRSAEncryption
         8f:00:d8:6c:cc:6a:34:c4:4a:f2:20:4e:45:45:dd:51:d4:10:
         cd:b3:ce:10:cf:1e:76:f8:5b:3e:b8:d0:00:01:df:7f:bc:f7:
         6a:d6:f5:f2:60:82:a2:66:03:ff:14:29:34:f5:95:61:9e:58:
         f9:2c:65:78:61:57:82:e8:b5:69:bd:4b:4e:85:1e:de:bd:c8:
         7b:e9:11:d7:bf:e9:24:b8:6b:aa:77:31:c8:7e:29:78:bd:d4:
         2f:d7:27:12:18:58:5e:e0:f9:09:23:dd:5c:c9:35:cd:82:31:
         61:45:1d:40:7a:6d:6e:e6:44:3e:bd:2c:00:4f:d7:d7:db:7c:
         97:64:cd:e7:7b:da:b1:75:ff:47:07:3b:48:c8:26:ce:60:27:
         45:a7:3f:6f:3f:99:d2:fe:8d:1d:11:d7:22:58:e6:f5:94:a0:
         21:96:d6:1a:ad:57:f3:83:fe:13:55:eb:d4:97:0b:52:e7:29:
         a0:18:3e:5b:c1:63:82:99:ff:a8:e7:d6:ae:99:e3:d8:9c:6c:
         64:f2:20:1c:eb:9a:49:79:c7:af:6c:7f:3e:a0:0a:a3:fb:c9:
         fe:4b:d5:84:df:89:be:fe:50:3f:9d:aa:49:18:78:c1:b1:30:
         61:bd:f0:35:46:95:26:52:29:21:74:f5:e4:cc:bc:79:2a:ab:
         a0:e6:8e:55:c1:b9:db:d2:20:b2:42:b9:00:97:f0:5e:23:58:
         81:0c:79:a6:91:25:7d:2d:f5:f6:70:6e:37:8d:d4:cb:8e:e0:
         5f:2e:2d:9f:75:bd:8e:76:b6:d7:a5:2d:a6:ee:68:1a:59:1c:
         67:d4:9e:ca:ac:09:c1:64:f4:c4:27:29:33:ed:11:d7:a7:b1:
         cf:0f:c3:bc:69:6a:ef:2c:78:95:8f:1e:95:d5:be:28:15:05:
         5f:df:71:67:6e:f6:27:8f:17:7e:2e:dc:08:c3:44:f5:dd:e9:
         69:ac:30:36:ca:79:32:d6:33:f8:be:c3:c8:5b:13:8f:c8:6e:
         f4:c4:66:c4:c9:7e:b8:55:80:6c:47:34:e0:0f:19:ca:2a:5f:
         a9:19:53:96:d0:07:27:3b:1c:55:10:73:e8:6e:64:75:87:0c:
         cf:d5:71:d9:e1:1f:95:69:5f:26:4c:2b:0f:d7:d8:10:c7:ff:
         7c:f3:96:84:79:4c:3b:5c:89:f4:78:6f:25:c4:9c:86:bd:d6:
         a5:05:38:2b:ed:f6:9a:92:2c:63:4a:ca:63:d2:3c:46:53:14:
         b4:03:d0:86:92:88:92:c1:23:2f:96:34:d2:fb:4e:9b:c8:50:
         05:e2:cf:04:79:60:45:f0:20:49:7c:63:dd:1b:f0:12:0a:d4:
         74:2a:b0:81:ea:12:99:27
-----BEGIN CERTIFICATE-----
MIIGrTCCBJWgAwIBAgICFpcwDQYJKoZIhvcNAQEEBQAwgawxCzAJBgNVBAYTAlVT
MQswCQYDVQQIEwJPSDERMA8GA1UEBxMIQ29sdW1idXMxEjAQBgNVBAoTCVZpa2lu
Z1ZQTjEdMBsGA1UECxMUTXlPcmdhbml6YXRpb25hbFVuaXQxFTATBgNVBAMTDFZp
a2luZ1ZQTiBDQTEQMA4GA1UEKRMHRWFzeVJTQTEhMB8GCSqGSIb3DQEJARYSbWVA
bXlob3N0Lm15ZG9tYWluMB4XDTE1MDcxMTIzMjEzOFoXDTI1MDcwODIzMjEzOFow
HzEdMBsGA1UEAxMUQ2xpZW50MTU4NUNlcnQ0MDRhNzAwggIiMA0GCSqGSIb3DQEB
AQUAA4ICDwAwggIKAoICAQCbZIZdyZYOWRm5QU5m/VwhGPaNpseUEpduF6EUcQVj
gvnHXCURCk4CdA+9vC8nMRYAUjnbJkQO1IfGIJ1qJwc72wvg1q38yxreietoYYEp
ZbX3ejX32cTb4AMfwTLeySMLVeYJk2DUH5sHhWJlBPjbQWT8swyrmW9issaCYkvC
Azco8u9i/l2iYR8po9uXi+C3jCnODxq+S/HUfXJjGZahBYkl5I8D5SEZtlyyGVn4
J+BL986mrvtxSyrHK4romcWKGEMaYvZQVxnn0rqbgNkdrd8XeZDScgvRDXiyJl34
nqhDbjjs0qcFhTa+z9ulrRyxpOPRY9OfUrtRfX9B/iXS20/vFfD1ORby4MVDLYIe
vu2iCtiiW8Bx8CZCEgQl+kn0VoyBb1PxDGBAk2SM2ZbeijY6OBpj6C0u9lmx94A3
g8O77O9coeHITIUhaKYjtWkat/DQnOoUzUSDtLPUGEHRADq4zqiy2svsbT96qn4c
jIMVtZMZgJdoQI297qO6Z7Fl0e4+gDGGXLsNvY1VTU1qE+hhaU4yGfdT7d7RhOAi
C4RhkF4DizcCriNZWwPeJVJcc4+Nd9ndnDokDQyP01D3XlbgmWpMl1GlxYkI8+Yt
UtSnAp0nLMhVV6j9zp7S5h4nu8Dj9yeAIC3ruRy04tRBFb4SlUOvfAFp1LUzMtD6
3wIDAQABo4IBYzCCAV8wCQYDVR0TBAIwADAtBglghkgBhvhCAQ0EIBYeRWFzeS1S
U0EgR2VuZXJhdGVkIENlcnRpZmljYXRlMB0GA1UdDgQWBBSEfFYUSSwInXqPy2Bj
NHyYGv/Z3zCB4QYDVR0jBIHZMIHWgBQSzWAE0qCAnnDtxpm4eyzGUv0ZoaGBsqSB
rzCBrDELMAkGA1UEBhMCVVMxCzAJBgNVBAgTAk9IMREwDwYDVQQHEwhDb2x1bWJ1
czESMBAGA1UEChMJVmlraW5nVlBOMR0wGwYDVQQLExRNeU9yZ2FuaXphdGlvbmFs
VW5pdDEVMBMGA1UEAxMMVmlraW5nVlBOIENBMRAwDgYDVQQpEwdFYXN5UlNBMSEw
HwYJKoZIhvcNAQkBFhJtZUBteWhvc3QubXlkb21haW6CCQDPNYXugL8qPjATBgNV
HSUEDDAKBggrBgEFBQcDAjALBgNVHQ8EBAMCB4AwDQYJKoZIhvcNAQEEBQADggIB
AI8A2GzMajTESvIgTkVF3VHUEM2zzhDPHnb4Wz640AAB33+892rW9fJggqJmA/8U
KTT1lWGeWPksZXhhV4LotWm9S06FHt69yHvpEde/6SS4a6p3Mch+KXi91C/XJxIY
WF7g+Qkj3VzJNc2CMWFFHUB6bW7mRD69LABP19fbfJdkzed72rF1/0cHO0jIJs5g
J0WnP28/mdL+jR0R1yJY5vWUoCGW1hqtV/OD/hNV69SXC1LnKaAYPlvBY4KZ/6jn
1q6Z49icbGTyIBzrmkl5x69sfz6gCqP7yf5L1YTfib7+UD+dqkkYeMGxMGG98DVG
lSZSKSF09eTMvHkqq6DmjlXBudvSILJCuQCX8F4jWIEMeaaRJX0t9fZwbjeN1MuO
4F8uLZ91vY52ttelLabuaBpZHGfUnsqsCcFk9MQnKTPtEdensc8Pw7xpau8seJWP
HpXVvigVBV/fcWdu9iePF34u3AjDRPXd6WmsMDbKeTLWM/i+w8hbE4/IbvTEZsTJ
frhVgGxHNOAPGcoqX6kZU5bQByc7HFUQc+huZHWHDM/VcdnhH5VpXyZMKw/X2BDH
/3zzloR5TDtcifR4byXEnIa91qUFOCvt9pqSLGNKymPSPEZTFLQD0IaSiJLBIy+W
NNL7TpvIUAXizwR5YEXwIEl8Y90b8BIK1HQqsIHqEpkn
-----END CERTIFICATE-----
