Certificate:
    Data:
        Version: 3 (0x2)
        Serial Number: 5793 (0x16a1)
    Signature Algorithm: md5WithRSAEncryption
        Issuer: C=US, ST=OH, L=Columbus, O=VikingVPN, OU=MyOrganizationalUnit, CN=VikingVPN CA/name=EasyRSA/emailAddress=me@myhost.mydomain
        Validity
            Not Before: Jul 13 03:39:08 2015 GMT
            Not After : Jul 10 03:39:08 2025 GMT
        Subject: CN=Client1618Cert4e0e48
        Subject Public Key Info:
            Public Key Algorithm: rsaEncryption
                Public-Key: (4096 bit)
                Modulus:
                    00:dc:29:64:c8:ed:3c:07:0b:7c:b9:79:cf:04:f2:
                    8b:ea:9a:6d:0d:28:46:47:05:c8:b7:20:d9:63:6f:
                    bb:79:ce:48:04:92:df:97:0d:e0:c0:1a:b5:04:df:
                    2a:86:50:19:65:1f:e7:0f:98:95:63:01:c4:c8:80:
                    01:d4:2e:b8:28:27:97:36:c9:a7:0b:42:57:07:0e:
                    e2:0f:f7:38:77:bd:76:15:ec:16:61:f5:a3:f3:04:
                    9d:d7:f0:4a:8c:f8:e8:b9:f0:39:78:f4:b3:f9:9b:
                    19:5b:58:b1:44:dc:94:63:0e:de:7a:c1:d4:b7:a4:
                    db:a3:cd:8f:74:fa:b8:92:41:ba:49:60:b1:ad:75:
                    3d:f1:47:d7:d4:f1:56:87:47:2b:86:bf:d7:9b:b4:
                    4e:b8:e5:9e:fb:dc:8f:94:d7:a0:41:f0:ce:79:96:
                    d2:fd:fc:05:fd:bd:61:72:03:71:59:6d:ab:4d:67:
                    17:e4:ef:3f:a5:1d:63:bc:08:8f:f9:e5:7c:4b:a3:
                    c3:90:7c:65:f0:9a:7c:8c:86:8c:a5:b3:7b:fd:b9:
                    3c:67:99:7c:33:43:47:3e:7a:df:31:56:75:bf:e5:
                    a0:eb:d6:0e:6b:b9:be:c7:6b:00:43:c3:fc:59:74:
                    1f:53:4c:76:c9:24:5d:2f:c9:84:54:74:2f:0f:6d:
                    5d:78:19:ee:ca:c6:c3:ff:b1:05:e0:e0:0b:5d:28:
                    55:8c:01:da:34:27:21:9c:76:51:80:4e:d3:a0:99:
                    0e:61:45:fb:3b:a8:79:20:8b:72:ac:f8:d7:4e:4e:
                    97:7d:d7:3c:0b:15:a7:52:ad:d0:a4:72:7b:43:d9:
                    ab:b1:6e:54:90:93:2b:c5:04:26:dd:11:06:d1:96:
                    5f:71:4c:ab:26:4f:c0:c6:17:c9:5e:44:7e:2e:2f:
                    f4:c3:94:3c:5e:5d:49:c9:a8:6b:6a:12:52:d9:df:
                    c5:31:0e:8a:0c:0a:64:cc:e2:33:68:c5:91:80:48:
                    11:2d:37:4b:5c:75:88:88:4c:fa:d7:47:9b:85:e6:
                    dd:d7:32:01:67:07:1f:09:cd:d2:13:de:2a:47:0c:
                    a0:a7:64:82:fc:ad:bd:1e:85:3e:c6:31:f0:fb:6c:
                    68:e6:95:00:fe:36:05:9b:ad:14:6d:61:34:c8:1f:
                    b9:15:1c:ba:9d:9a:8e:84:04:58:92:89:b1:2b:37:
                    10:5d:f0:e8:8c:7a:4d:61:7e:73:d3:fb:8c:96:db:
                    f9:8a:1f:f4:89:64:51:aa:db:ec:83:58:3b:22:fe:
                    37:c8:ba:a8:c0:98:14:78:47:99:8f:27:15:3c:a2:
                    fe:72:d1:16:db:5d:e9:4e:a4:d3:7b:36:0b:91:4c:
                    4c:57:3b
                Exponent: 65537 (0x10001)
        X509v3 extensions:
            X509v3 Basic Constraints: 
                CA:FALSE
            Netscape Comment: 
                Easy-RSA Generated Certificate
            X509v3 Subject Key Identifier: 
                37:95:52:B7:2F:96:EB:FD:89:FF:37:A1:CD:28:BA:C8:60:5E:0A:2E
            X509v3 Authority Key Identifier: 
                keyid:12:CD:60:04:D2:A0:80:9E:70:ED:C6:99:B8:7B:2C:C6:52:FD:19:A1
                DirName:/C=US/ST=OH/L=Columbus/O=VikingVPN/OU=MyOrganizationalUnit/CN=VikingVPN CA/name=EasyRSA/emailAddress=me@myhost.mydomain
                serial:CF:35:85:EE:80:BF:2A:3E

            X509v3 Extended Key Usage: 
                TLS Web Client Authentication
            X509v3 Key Usage: 
                Digital Signature
    Signature Algorithm: md5WithRSAEncryption
         a8:7e:08:b3:3a:f5:30:f6:81:5e:9e:66:53:ba:e8:82:fa:2d:
         02:c9:f8:2f:7c:9d:48:7a:1c:6d:96:a5:f0:80:10:09:01:da:
         79:7b:0e:fa:6c:f3:38:3f:05:0c:cc:bd:76:9e:e1:8a:8d:bd:
         38:76:43:85:06:37:4c:f5:05:63:ec:7c:b0:fa:d2:a3:5b:17:
         28:7b:da:6b:4b:f4:83:bd:54:20:c6:86:09:f6:87:ea:a3:2d:
         b6:3b:b0:54:5e:f6:9c:a7:2f:ab:b2:88:bd:ab:52:27:5d:5a:
         84:13:49:95:d2:ec:19:3f:97:d7:2a:a2:a7:50:b6:b9:74:59:
         80:e4:a8:cb:10:55:bb:c1:40:18:6a:13:e2:ca:17:1a:56:fa:
         78:f6:05:f1:91:ee:5b:d3:d7:f6:8c:82:35:ef:b2:22:1f:f3:
         b3:93:7a:d0:dd:3e:11:f5:b4:db:d3:84:84:64:a8:2f:ac:47:
         ef:c3:6c:e8:30:93:9b:74:8c:00:41:10:36:31:18:f2:65:b5:
         4c:32:1d:9e:b2:b9:96:cb:40:71:6e:79:1b:05:3b:41:98:2a:
         fb:55:6c:77:f0:c0:0d:9f:54:29:5c:97:59:03:10:46:dc:fb:
         49:3d:e1:e2:74:51:63:da:de:92:da:96:41:e9:61:6a:93:e6:
         b4:4d:b2:70:bd:25:d9:a9:70:59:6a:b3:74:64:2b:d0:93:ae:
         06:18:b7:7c:21:f4:d1:d8:ee:5d:e0:a3:e4:e9:58:ea:4f:47:
         8f:09:96:a0:55:d5:a7:16:14:ce:f7:b5:fd:08:ba:37:8e:89:
         54:8c:0a:49:3d:09:3d:ec:b6:d2:fa:69:18:02:25:ef:51:cf:
         82:ab:af:8a:40:4d:e0:b2:3c:6b:ca:b7:cd:b4:0f:80:cf:54:
         14:ef:8e:95:11:d9:00:f3:33:b8:7b:f5:fa:66:dc:53:bb:91:
         56:04:3a:b9:24:76:21:c5:37:52:58:bf:6e:49:73:8b:5f:47:
         2c:05:e3:60:7d:47:b5:81:fc:a1:b2:80:bb:44:31:b5:c5:cd:
         4d:6f:08:b7:67:84:c1:b1:06:a7:77:f7:60:43:f9:b1:5a:38:
         77:d2:98:c5:3b:2f:ad:8d:6d:9c:e4:da:02:02:60:2f:6c:38:
         e1:e3:50:76:30:9c:90:88:eb:b2:d4:ea:74:20:cc:f5:e3:02:
         12:17:4b:c6:a5:f8:ae:da:d5:c0:bf:af:68:a7:4f:02:c2:e1:
         80:b0:d2:47:56:35:6b:53:be:e0:6d:1f:f8:4e:93:cb:e9:8e:
         70:20:04:44:86:5b:a9:4d:2f:0e:63:19:29:3c:de:fa:0a:03:
         5a:e3:2d:98:1e:e6:56:79
-----BEGIN CERTIFICATE-----
MIIGrTCCBJWgAwIBAgICFqEwDQYJKoZIhvcNAQEEBQAwgawxCzAJBgNVBAYTAlVT
MQswCQYDVQQIEwJPSDERMA8GA1UEBxMIQ29sdW1idXMxEjAQBgNVBAoTCVZpa2lu
Z1ZQTjEdMBsGA1UECxMUTXlPcmdhbml6YXRpb25hbFVuaXQxFTATBgNVBAMTDFZp
a2luZ1ZQTiBDQTEQMA4GA1UEKRMHRWFzeVJTQTEhMB8GCSqGSIb3DQEJARYSbWVA
bXlob3N0Lm15ZG9tYWluMB4XDTE1MDcxMzAzMzkwOFoXDTI1MDcxMDAzMzkwOFow
HzEdMBsGA1UEAxMUQ2xpZW50MTYxOENlcnQ0ZTBlNDgwggIiMA0GCSqGSIb3DQEB
AQUAA4ICDwAwggIKAoICAQDcKWTI7TwHC3y5ec8E8ovqmm0NKEZHBci3INljb7t5
zkgEkt+XDeDAGrUE3yqGUBllH+cPmJVjAcTIgAHULrgoJ5c2yacLQlcHDuIP9zh3
vXYV7BZh9aPzBJ3X8EqM+Oi58Dl49LP5mxlbWLFE3JRjDt56wdS3pNujzY90+riS
QbpJYLGtdT3xR9fU8VaHRyuGv9ebtE645Z773I+U16BB8M55ltL9/AX9vWFyA3FZ
batNZxfk7z+lHWO8CI/55XxLo8OQfGXwmnyMhoyls3v9uTxnmXwzQ0c+et8xVnW/
5aDr1g5rub7HawBDw/xZdB9TTHbJJF0vyYRUdC8PbV14Ge7KxsP/sQXg4AtdKFWM
Ado0JyGcdlGATtOgmQ5hRfs7qHkgi3Ks+NdOTpd91zwLFadSrdCkcntD2auxblSQ
kyvFBCbdEQbRll9xTKsmT8DGF8leRH4uL/TDlDxeXUnJqGtqElLZ38UxDooMCmTM
4jNoxZGASBEtN0tcdYiITPrXR5uF5t3XMgFnBx8JzdIT3ipHDKCnZIL8rb0ehT7G
MfD7bGjmlQD+NgWbrRRtYTTIH7kVHLqdmo6EBFiSibErNxBd8OiMek1hfnPT+4yW
2/mKH/SJZFGq2+yDWDsi/jfIuqjAmBR4R5mPJxU8ov5y0RbbXelOpNN7NguRTExX
OwIDAQABo4IBYzCCAV8wCQYDVR0TBAIwADAtBglghkgBhvhCAQ0EIBYeRWFzeS1S
U0EgR2VuZXJhdGVkIENlcnRpZmljYXRlMB0GA1UdDgQWBBQ3lVK3L5br/Yn/N6HN
KLrIYF4KLjCB4QYDVR0jBIHZMIHWgBQSzWAE0qCAnnDtxpm4eyzGUv0ZoaGBsqSB
rzCBrDELMAkGA1UEBhMCVVMxCzAJBgNVBAgTAk9IMREwDwYDVQQHEwhDb2x1bWJ1
czESMBAGA1UEChMJVmlraW5nVlBOMR0wGwYDVQQLExRNeU9yZ2FuaXphdGlvbmFs
VW5pdDEVMBMGA1UEAxMMVmlraW5nVlBOIENBMRAwDgYDVQQpEwdFYXN5UlNBMSEw
HwYJKoZIhvcNAQkBFhJtZUBteWhvc3QubXlkb21haW6CCQDPNYXugL8qPjATBgNV
HSUEDDAKBggrBgEFBQcDAjALBgNVHQ8EBAMCB4AwDQYJKoZIhvcNAQEEBQADggIB
AKh+CLM69TD2gV6eZlO66IL6LQLJ+C98nUh6HG2WpfCAEAkB2nl7Dvps8zg/BQzM
vXae4YqNvTh2Q4UGN0z1BWPsfLD60qNbFyh72mtL9IO9VCDGhgn2h+qjLbY7sFRe
9pynL6uyiL2rUiddWoQTSZXS7Bk/l9cqoqdQtrl0WYDkqMsQVbvBQBhqE+LKFxpW
+nj2BfGR7lvT1/aMgjXvsiIf87OTetDdPhH1tNvThIRkqC+sR+/DbOgwk5t0jABB
EDYxGPJltUwyHZ6yuZbLQHFueRsFO0GYKvtVbHfwwA2fVClcl1kDEEbc+0k94eJ0
UWPa3pLalkHpYWqT5rRNsnC9JdmpcFlqs3RkK9CTrgYYt3wh9NHY7l3go+TpWOpP
R48JlqBV1acWFM73tf0IujeOiVSMCkk9CT3sttL6aRgCJe9Rz4Krr4pATeCyPGvK
t820D4DPVBTvjpUR2QDzM7h79fpm3FO7kVYEOrkkdiHFN1JYv25Jc4tfRywF42B9
R7WB/KGygLtEMbXFzU1vCLdnhMGxBqd392BD+bFaOHfSmMU7L62NbZzk2gICYC9s
OOHjUHYwnJCI67LU6nQgzPXjAhIXS8al+K7a1cC/r2inTwLC4YCw0kdWNWtTvuBt
H/hOk8vpjnAgBESGW6lNLw5jGSk83voKA1rjLZge5lZ5
-----END CERTIFICATE-----
