Certificate:
    Data:
        Version: 3 (0x2)
        Serial Number: 5795 (0x16a3)
    Signature Algorithm: md5WithRSAEncryption
        Issuer: C=US, ST=OH, L=Columbus, O=VikingVPN, OU=MyOrganizationalUnit, CN=VikingVPN CA/name=EasyRSA/emailAddress=me@myhost.mydomain
        Validity
            Not Before: Jul 13 19:29:38 2015 GMT
            Not After : Jul 10 19:29:38 2025 GMT
        Subject: CN=Client431Certadb871
        Subject Public Key Info:
            Public Key Algorithm: rsaEncryption
                Public-Key: (4096 bit)
                Modulus:
                    00:ad:16:e8:07:e0:bf:c9:a5:dc:92:a5:2e:77:84:
                    34:ad:f6:3e:db:79:00:7e:d4:bb:8f:3e:3c:ab:1d:
                    19:d4:7b:f1:e6:7c:f7:e8:f8:96:75:a6:62:bd:56:
                    c0:73:e2:34:21:95:ff:91:24:13:6e:33:74:6a:15:
                    a2:62:6d:3e:61:78:8a:16:4a:fe:76:43:bb:53:bd:
                    ad:48:d0:fc:66:09:f5:64:8c:df:69:da:1d:df:06:
                    83:84:7d:8a:26:26:f5:6c:81:6e:76:65:7b:f4:37:
                    97:24:1a:65:73:ea:fc:c9:73:bf:4f:d3:29:3d:66:
                    e3:2b:ec:5d:8c:9d:60:07:96:e5:94:67:df:10:0a:
                    8d:0f:74:7a:7a:ba:cd:dc:89:b9:4b:ee:19:a3:10:
                    f3:92:22:55:b1:35:1c:4f:f9:09:3a:08:db:72:c4:
                    34:24:b7:ff:96:87:ba:c0:e8:1a:40:08:93:a8:d7:
                    a1:92:f5:66:df:cf:58:a3:30:95:64:6b:2c:df:4d:
                    7a:39:7b:c0:b5:95:fd:e9:78:d8:0f:1c:2f:08:13:
                    5f:32:2a:26:c9:26:a8:67:8c:45:68:a0:ad:93:04:
                    7b:66:2d:20:4d:cb:ba:5b:df:c8:04:60:93:3e:61:
                    b1:2d:9a:67:63:25:28:36:4b:83:8d:d1:eb:6a:95:
                    8e:67:36:37:24:39:98:f6:61:a0:ec:3f:12:7c:7a:
                    69:99:10:2e:80:21:f9:49:31:68:83:d2:e7:95:22:
                    5f:e0:28:ed:14:32:d0:61:00:54:4f:cf:5c:98:6c:
                    fc:e9:d4:4a:83:20:fb:4e:59:00:2a:c6:68:75:ac:
                    34:46:59:71:fe:8b:a6:7e:c4:bc:c4:c7:21:42:42:
                    35:de:89:ba:2f:16:a3:f2:59:15:00:5a:1d:e6:23:
                    c7:31:45:18:4d:47:1a:e2:65:b2:9a:78:fb:49:fd:
                    91:40:6b:e8:81:6d:41:f9:a8:20:ee:fc:d1:5e:b7:
                    43:a1:0e:2b:a0:0b:7b:77:eb:ec:bb:50:00:32:3b:
                    10:99:e3:97:a1:ba:4e:29:00:df:8c:d5:0b:ca:dc:
                    34:08:e0:7f:f4:e0:31:93:c1:6d:70:f4:b2:d7:b1:
                    31:0f:68:32:cc:a1:d4:a0:23:ef:3b:29:48:8c:d2:
                    03:8d:a7:bc:37:e6:9c:33:6c:e6:2f:f0:db:05:89:
                    ed:1c:79:31:aa:b7:7e:8d:f8:82:72:1e:b1:10:6e:
                    c5:4c:3f:e4:a8:1a:27:8c:22:79:a2:da:d7:20:49:
                    6f:54:23:82:ca:40:d2:2f:fd:91:c8:5f:a4:85:e6:
                    07:02:13:0e:44:12:20:8f:e0:f7:a1:e3:44:d8:86:
                    25:e9:d9
                Exponent: 65537 (0x10001)
        X509v3 extensions:
            X509v3 Basic Constraints: 
                CA:FALSE
            Netscape Comment: 
                Easy-RSA Generated Certificate
            X509v3 Subject Key Identifier: 
                73:36:A5:88:7A:EC:6F:74:3A:0E:FC:08:E0:EF:C1:5D:78:19:7E:07
            X509v3 Authority Key Identifier: 
                keyid:12:CD:60:04:D2:A0:80:9E:70:ED:C6:99:B8:7B:2C:C6:52:FD:19:A1
                DirName:/C=US/ST=OH/L=Columbus/O=VikingVPN/OU=MyOrganizationalUnit/CN=VikingVPN CA/name=EasyRSA/emailAddress=me@myhost.mydomain
                serial:CF:35:85:EE:80:BF:2A:3E

            X509v3 Extended Key Usage: 
                TLS Web Client Authentication
            X509v3 Key Usage: 
                Digital Signature
    Signature Algorithm: md5WithRSAEncryption
         dc:9c:95:3a:99:56:7f:14:bb:ea:a7:b5:ad:65:a2:51:0e:c1:
         61:03:b9:18:2e:f6:56:c3:53:b5:b4:33:29:94:40:96:c7:3f:
         82:96:14:c2:4c:0f:88:b5:32:23:52:d7:d3:f1:5d:18:71:39:
         4c:14:9b:7f:cd:43:4a:96:e3:55:42:21:1c:81:51:24:d2:f5:
         08:7b:bd:9d:e3:94:37:97:f5:d7:fe:04:d3:7f:c2:5c:bd:87:
         70:cd:a8:73:6b:55:38:c3:1f:84:71:50:98:14:fc:73:1c:d9:
         55:b1:ab:bf:d3:55:47:8d:db:36:80:8e:7b:ca:29:de:c4:3b:
         70:3b:a4:d2:f8:b7:d5:19:30:38:26:1b:a0:ba:9a:86:fe:6a:
         12:62:7f:b4:84:7b:76:ec:8b:02:30:88:18:8f:81:e0:3d:aa:
         e6:28:c8:41:82:f8:28:4b:ad:60:4a:cf:20:6f:b6:f2:e6:ad:
         b6:a0:60:11:a2:7b:51:78:88:f0:16:8a:21:d6:b7:be:3b:b8:
         0e:44:16:21:cf:57:5e:b8:7e:de:e0:5e:51:c3:f8:1e:c9:42:
         56:95:11:ba:31:53:a0:b8:9a:44:2f:c6:03:85:8f:8f:f8:b0:
         0a:d1:6b:c4:75:a9:14:fc:c9:fa:ad:23:6d:a1:42:3a:70:af:
         f0:fc:9c:28:9f:dd:16:f9:c7:82:eb:3e:0e:a0:08:a7:ab:a7:
         fe:19:16:65:88:2f:ae:bb:06:6c:1a:a8:3a:8f:a8:e0:2c:aa:
         33:29:b9:d0:4c:62:00:76:db:7f:10:ee:1b:19:ca:fa:f6:36:
         96:f5:78:01:4d:7f:43:04:99:69:b9:e1:44:a0:05:c6:5f:77:
         21:f0:7c:67:92:3b:fb:fd:f1:22:2c:b8:12:64:6e:60:13:e9:
         00:2e:33:1b:c3:00:ef:13:0d:97:29:38:1d:ef:83:c1:03:ae:
         2c:59:e2:83:05:b9:fd:32:ca:34:47:54:e9:c5:df:9c:01:01:
         39:9d:3b:80:5b:93:c7:8d:50:c3:d4:28:d4:96:e3:4a:58:69:
         8e:31:fe:9a:3e:f3:81:8b:f1:23:01:89:88:29:6e:fb:5e:a7:
         75:98:ac:22:98:f5:9b:e7:5e:1c:ef:34:4d:cb:18:d6:09:b9:
         ad:bf:cb:bc:62:0f:64:a1:92:a2:44:95:14:4e:cc:53:84:0c:
         1e:9d:92:c3:27:7e:2c:0c:5e:91:43:a3:bc:b0:b0:25:cf:d0:
         67:e0:f6:b3:01:1d:64:e3:61:77:61:2b:76:5e:ab:a4:ff:7a:
         0b:4a:8a:e4:7d:b0:74:1b:8d:b1:96:5f:e6:97:10:ea:eb:89:
         cb:45:19:fd:8e:fb:e9:d8
-----BEGIN CERTIFICATE-----
MIIGrDCCBJSgAwIBAgICFqMwDQYJKoZIhvcNAQEEBQAwgawxCzAJBgNVBAYTAlVT
MQswCQYDVQQIEwJPSDERMA8GA1UEBxMIQ29sdW1idXMxEjAQBgNVBAoTCVZpa2lu
Z1ZQTjEdMBsGA1UECxMUTXlPcmdhbml6YXRpb25hbFVuaXQxFTATBgNVBAMTDFZp
a2luZ1ZQTiBDQTEQMA4GA1UEKRMHRWFzeVJTQTEhMB8GCSqGSIb3DQEJARYSbWVA
bXlob3N0Lm15ZG9tYWluMB4XDTE1MDcxMzE5MjkzOFoXDTI1MDcxMDE5MjkzOFow
HjEcMBoGA1UEAxMTQ2xpZW50NDMxQ2VydGFkYjg3MTCCAiIwDQYJKoZIhvcNAQEB
BQADggIPADCCAgoCggIBAK0W6Afgv8ml3JKlLneENK32Ptt5AH7Uu48+PKsdGdR7
8eZ89+j4lnWmYr1WwHPiNCGV/5EkE24zdGoVomJtPmF4ihZK/nZDu1O9rUjQ/GYJ
9WSM32naHd8Gg4R9iiYm9WyBbnZle/Q3lyQaZXPq/Mlzv0/TKT1m4yvsXYydYAeW
5ZRn3xAKjQ90enq6zdyJuUvuGaMQ85IiVbE1HE/5CToI23LENCS3/5aHusDoGkAI
k6jXoZL1Zt/PWKMwlWRrLN9Nejl7wLWV/el42A8cLwgTXzIqJskmqGeMRWigrZME
e2YtIE3LulvfyARgkz5hsS2aZ2MlKDZLg43R62qVjmc2NyQ5mPZhoOw/Enx6aZkQ
LoAh+UkxaIPS55UiX+Ao7RQy0GEAVE/PXJhs/OnUSoMg+05ZACrGaHWsNEZZcf6L
pn7EvMTHIUJCNd6Jui8Wo/JZFQBaHeYjxzFFGE1HGuJlspp4+0n9kUBr6IFtQfmo
IO780V63Q6EOK6ALe3fr7LtQADI7EJnjl6G6TikA34zVC8rcNAjgf/TgMZPBbXD0
stexMQ9oMsyh1KAj7zspSIzSA42nvDfmnDNs5i/w2wWJ7Rx5Maq3fo34gnIesRBu
xUw/5KgaJ4wieaLa1yBJb1QjgspA0i/9kchfpIXmBwITDkQSII/g96HjRNiGJenZ
AgMBAAGjggFjMIIBXzAJBgNVHRMEAjAAMC0GCWCGSAGG+EIBDQQgFh5FYXN5LVJT
QSBHZW5lcmF0ZWQgQ2VydGlmaWNhdGUwHQYDVR0OBBYEFHM2pYh67G90Og78CODv
wV14GX4HMIHhBgNVHSMEgdkwgdaAFBLNYATSoICecO3Gmbh7LMZS/RmhoYGypIGv
MIGsMQswCQYDVQQGEwJVUzELMAkGA1UECBMCT0gxETAPBgNVBAcTCENvbHVtYnVz
MRIwEAYDVQQKEwlWaWtpbmdWUE4xHTAbBgNVBAsTFE15T3JnYW5pemF0aW9uYWxV
bml0MRUwEwYDVQQDEwxWaWtpbmdWUE4gQ0ExEDAOBgNVBCkTB0Vhc3lSU0ExITAf
BgkqhkiG9w0BCQEWEm1lQG15aG9zdC5teWRvbWFpboIJAM81he6Avyo+MBMGA1Ud
JQQMMAoGCCsGAQUFBwMCMAsGA1UdDwQEAwIHgDANBgkqhkiG9w0BAQQFAAOCAgEA
3JyVOplWfxS76qe1rWWiUQ7BYQO5GC72VsNTtbQzKZRAlsc/gpYUwkwPiLUyI1LX
0/FdGHE5TBSbf81DSpbjVUIhHIFRJNL1CHu9neOUN5f11/4E03/CXL2HcM2oc2tV
OMMfhHFQmBT8cxzZVbGrv9NVR43bNoCOe8op3sQ7cDuk0vi31RkwOCYboLqahv5q
EmJ/tIR7duyLAjCIGI+B4D2q5ijIQYL4KEutYErPIG+28uattqBgEaJ7UXiI8BaK
Ida3vju4DkQWIc9XXrh+3uBeUcP4HslCVpURujFToLiaRC/GA4WPj/iwCtFrxHWp
FPzJ+q0jbaFCOnCv8PycKJ/dFvnHgus+DqAIp6un/hkWZYgvrrsGbBqoOo+o4Cyq
Mym50ExiAHbbfxDuGxnK+vY2lvV4AU1/QwSZabnhRKAFxl93IfB8Z5I7+/3xIiy4
EmRuYBPpAC4zG8MA7xMNlyk4He+DwQOuLFnigwW5/TLKNEdU6cXfnAEBOZ07gFuT
x41Qw9Qo1JbjSlhpjjH+mj7zgYvxIwGJiClu+16ndZisIpj1m+deHO80TcsY1gm5
rb/LvGIPZKGSokSVFE7MU4QMHp2Swyd+LAxekUOjvLCwJc/QZ+D2swEdZONhd2Er
dl6rpP96C0qK5H2wdBuNsZZf5pcQ6uuJy0UZ/Y776dg=
-----END CERTIFICATE-----
