Certificate:
    Data:
        Version: 3 (0x2)
        Serial Number: 5801 (0x16a9)
    Signature Algorithm: md5WithRSAEncryption
        Issuer: C=US, ST=OH, L=Columbus, O=VikingVPN, OU=MyOrganizationalUnit, CN=VikingVPN CA/name=EasyRSA/emailAddress=me@myhost.mydomain
        Validity
            Not Before: Jul 15 21:11:56 2015 GMT
            Not After : Jul 12 21:11:56 2025 GMT
        Subject: CN=Client3Cert7f0fe0
        Subject Public Key Info:
            Public Key Algorithm: rsaEncryption
                Public-Key: (4096 bit)
                Modulus:
                    00:b0:d4:72:c3:e0:03:91:4d:8f:7f:57:86:30:d7:
                    5f:5a:e3:d6:d1:91:da:cf:de:63:37:c0:f7:18:61:
                    13:1b:08:fd:8b:10:df:5f:13:23:96:99:c4:1e:c7:
                    c5:de:f8:c3:60:09:6d:32:87:c0:98:a7:b6:39:57:
                    f8:c5:52:ca:c5:84:15:e3:f4:3a:11:ed:65:38:70:
                    58:53:5a:54:7c:bf:51:b9:14:02:96:ba:a2:d6:3c:
                    0f:e3:13:69:50:b2:5c:5a:92:cb:b9:18:49:e3:c6:
                    bd:0a:87:21:07:38:6f:53:26:a2:0c:77:89:6d:41:
                    ea:0e:14:b5:47:87:e8:9d:cb:a0:32:cd:be:dd:a0:
                    b3:68:1c:a9:93:ee:21:4d:fd:15:ef:38:4a:92:3f:
                    06:5d:b7:4a:41:ca:31:0b:10:63:c1:50:a8:be:39:
                    b0:a6:c8:94:1f:14:86:41:67:8e:8c:a7:c0:a4:3c:
                    94:a0:7e:f3:e5:96:ae:d4:7b:48:2d:37:da:4c:db:
                    85:bf:f0:93:eb:d8:77:64:68:e7:b0:0a:74:b4:aa:
                    b2:b2:31:45:43:eb:e7:34:7b:74:90:33:6a:89:a1:
                    fa:b2:37:c6:0d:9c:15:9e:11:23:85:1e:94:c6:d6:
                    8d:c0:21:45:3d:f1:3a:39:0c:6d:5a:34:41:e2:0a:
                    82:df:c0:81:8b:76:42:77:ae:2d:2b:6b:ad:aa:55:
                    01:53:79:77:4a:40:6a:75:e7:93:48:c0:5c:46:3f:
                    61:76:14:74:10:8c:9b:90:03:1e:4c:8d:07:6e:d2:
                    87:17:d4:55:03:88:a9:a0:65:e1:20:c0:51:cc:a4:
                    7f:03:96:76:5a:de:39:0c:9d:db:32:b9:b0:57:d1:
                    ac:0f:c5:74:21:22:89:c4:5c:21:fe:c7:1f:7d:dc:
                    75:c4:5a:29:76:23:a6:a5:33:c4:88:f8:b3:f3:fc:
                    31:81:5a:86:66:dc:d8:c1:b9:c3:a0:96:e8:af:ee:
                    9d:2e:7f:d5:21:16:36:5e:16:a6:bb:00:44:02:f4:
                    13:d9:31:dc:f3:56:38:74:84:6d:db:78:0c:ce:4a:
                    c5:da:7d:4c:64:16:88:63:69:ce:58:50:ff:89:01:
                    6c:6d:55:b2:92:d7:f3:56:32:ce:43:78:e2:88:d3:
                    0d:a5:0d:94:0d:b6:8f:a6:0d:75:45:9d:c9:66:21:
                    b3:a9:c8:ab:0a:5d:8f:4a:d7:28:cf:75:5f:55:a6:
                    17:bb:8f:d1:a6:a6:c1:af:70:76:f8:8f:7f:4f:5f:
                    a5:28:aa:c4:03:d7:b2:86:0d:d7:90:1f:b4:8b:e7:
                    ab:7a:67:4d:2e:2f:aa:9c:61:43:5f:d2:f9:6c:93:
                    2d:4b:a7
                Exponent: 65537 (0x10001)
        X509v3 extensions:
            X509v3 Basic Constraints: 
                CA:FALSE
            Netscape Comment: 
                Easy-RSA Generated Certificate
            X509v3 Subject Key Identifier: 
                71:F9:1C:2D:FC:E0:04:E0:1B:37:02:D1:15:E5:60:9E:D4:D9:17:A6
            X509v3 Authority Key Identifier: 
                keyid:12:CD:60:04:D2:A0:80:9E:70:ED:C6:99:B8:7B:2C:C6:52:FD:19:A1
                DirName:/C=US/ST=OH/L=Columbus/O=VikingVPN/OU=MyOrganizationalUnit/CN=VikingVPN CA/name=EasyRSA/emailAddress=me@myhost.mydomain
                serial:CF:35:85:EE:80:BF:2A:3E

            X509v3 Extended Key Usage: 
                TLS Web Client Authentication
            X509v3 Key Usage: 
                Digital Signature
    Signature Algorithm: md5WithRSAEncryption
         50:a2:09:b6:10:e4:ff:be:b5:be:1e:f5:c7:54:66:78:fc:89:
         51:dd:56:97:72:5a:83:aa:06:ad:8d:4b:5d:be:52:8f:6f:5d:
         b5:91:49:e9:12:53:62:f6:57:89:89:27:b4:1e:1b:8b:d8:24:
         92:2b:af:42:99:1e:02:52:22:7b:4a:ec:61:7b:0b:12:99:15:
         39:ac:b3:f8:71:42:f5:fa:16:61:2a:fd:64:f4:79:4a:e1:47:
         93:73:21:74:1d:fa:6c:e7:9b:23:f8:cb:c1:36:d0:64:49:24:
         be:57:14:42:29:fb:42:74:05:63:40:3d:48:0b:f2:a1:fe:57:
         7d:84:80:c9:47:4f:f1:fd:3f:ca:d7:9f:9a:f5:2d:43:79:82:
         ce:ab:04:49:f2:41:37:22:70:21:98:56:58:cd:7d:c0:ed:90:
         42:56:ec:0f:56:b6:11:8d:e7:5c:3c:8b:56:5c:55:ed:cd:e5:
         7d:f9:4a:3a:38:af:32:05:54:ec:da:f8:88:cc:3b:9c:82:6b:
         61:d2:0f:76:ab:1d:17:92:d9:f9:9c:48:58:59:cc:a4:bb:73:
         37:0e:a5:ac:a2:93:01:06:25:f8:08:73:fc:80:a3:98:d8:72:
         5f:0d:e8:12:a2:24:8e:e9:59:73:dc:40:0d:02:15:b2:cf:86:
         bd:4a:fe:62:e9:3a:ee:95:11:bd:b9:8c:34:9d:f3:89:d4:6c:
         6a:ee:59:60:e9:50:8c:16:65:c8:4e:74:e9:82:ac:91:f0:6b:
         23:16:36:22:0a:58:db:22:55:f3:25:89:b9:63:42:e6:36:1f:
         5e:f3:c1:cc:c9:ff:39:fd:6c:03:21:4a:47:76:8e:c1:c2:2a:
         da:d7:7f:a7:13:8a:32:58:bd:d5:82:ce:88:82:46:66:81:10:
         55:73:91:32:47:b5:6e:7e:4c:94:13:2a:84:01:af:55:07:f9:
         5d:ab:4f:66:a3:ff:e8:1c:07:f2:c3:47:41:45:d9:5e:b4:2f:
         9c:a3:86:35:a2:30:74:97:15:a7:04:b4:2a:2b:96:35:c9:ef:
         6a:8d:6b:7f:c0:16:81:31:8b:71:75:f5:d6:b9:9e:64:41:a7:
         08:0f:e2:0f:73:69:e8:73:53:8b:08:c8:36:4f:14:5f:4e:47:
         9f:ec:e0:41:34:a2:fd:52:5c:06:ed:82:b8:5d:f0:c6:b6:90:
         89:4c:80:ec:57:96:14:2b:f8:e6:c2:fc:81:e5:07:c1:10:fb:
         95:67:a1:69:72:ab:14:26:3f:86:ef:30:61:af:4f:19:e9:2e:
         5d:58:89:8a:d9:3a:31:95:b0:6d:a2:16:5a:66:8d:8c:d7:46:
         e0:20:cf:41:e6:76:70:b9
-----BEGIN CERTIFICATE-----
MIIGqjCCBJKgAwIBAgICFqkwDQYJKoZIhvcNAQEEBQAwgawxCzAJBgNVBAYTAlVT
MQswCQYDVQQIEwJPSDERMA8GA1UEBxMIQ29sdW1idXMxEjAQBgNVBAoTCVZpa2lu
Z1ZQTjEdMBsGA1UECxMUTXlPcmdhbml6YXRpb25hbFVuaXQxFTATBgNVBAMTDFZp
a2luZ1ZQTiBDQTEQMA4GA1UEKRMHRWFzeVJTQTEhMB8GCSqGSIb3DQEJARYSbWVA
bXlob3N0Lm15ZG9tYWluMB4XDTE1MDcxNTIxMTE1NloXDTI1MDcxMjIxMTE1Nlow
HDEaMBgGA1UEAxMRQ2xpZW50M0NlcnQ3ZjBmZTAwggIiMA0GCSqGSIb3DQEBAQUA
A4ICDwAwggIKAoICAQCw1HLD4AORTY9/V4Yw119a49bRkdrP3mM3wPcYYRMbCP2L
EN9fEyOWmcQex8Xe+MNgCW0yh8CYp7Y5V/jFUsrFhBXj9DoR7WU4cFhTWlR8v1G5
FAKWuqLWPA/jE2lQslxaksu5GEnjxr0KhyEHOG9TJqIMd4ltQeoOFLVHh+idy6Ay
zb7doLNoHKmT7iFN/RXvOEqSPwZdt0pByjELEGPBUKi+ObCmyJQfFIZBZ46Mp8Ck
PJSgfvPllq7Ue0gtN9pM24W/8JPr2HdkaOewCnS0qrKyMUVD6+c0e3SQM2qJofqy
N8YNnBWeESOFHpTG1o3AIUU98To5DG1aNEHiCoLfwIGLdkJ3ri0ra62qVQFTeXdK
QGp155NIwFxGP2F2FHQQjJuQAx5MjQdu0ocX1FUDiKmgZeEgwFHMpH8DlnZa3jkM
ndsyubBX0awPxXQhIonEXCH+xx993HXEWil2I6alM8SI+LPz/DGBWoZm3NjBucOg
luiv7p0uf9UhFjZeFqa7AEQC9BPZMdzzVjh0hG3beAzOSsXafUxkFohjac5YUP+J
AWxtVbKS1/NWMs5DeOKI0w2lDZQNto+mDXVFnclmIbOpyKsKXY9K1yjPdV9Vphe7
j9GmpsGvcHb4j39PX6UoqsQD17KGDdeQH7SL56t6Z00uL6qcYUNf0vlsky1LpwID
AQABo4IBYzCCAV8wCQYDVR0TBAIwADAtBglghkgBhvhCAQ0EIBYeRWFzeS1SU0Eg
R2VuZXJhdGVkIENlcnRpZmljYXRlMB0GA1UdDgQWBBRx+Rwt/OAE4Bs3AtEV5WCe
1NkXpjCB4QYDVR0jBIHZMIHWgBQSzWAE0qCAnnDtxpm4eyzGUv0ZoaGBsqSBrzCB
rDELMAkGA1UEBhMCVVMxCzAJBgNVBAgTAk9IMREwDwYDVQQHEwhDb2x1bWJ1czES
MBAGA1UEChMJVmlraW5nVlBOMR0wGwYDVQQLExRNeU9yZ2FuaXphdGlvbmFsVW5p
dDEVMBMGA1UEAxMMVmlraW5nVlBOIENBMRAwDgYDVQQpEwdFYXN5UlNBMSEwHwYJ
KoZIhvcNAQkBFhJtZUBteWhvc3QubXlkb21haW6CCQDPNYXugL8qPjATBgNVHSUE
DDAKBggrBgEFBQcDAjALBgNVHQ8EBAMCB4AwDQYJKoZIhvcNAQEEBQADggIBAFCi
CbYQ5P++tb4e9cdUZnj8iVHdVpdyWoOqBq2NS12+Uo9vXbWRSekSU2L2V4mJJ7Qe
G4vYJJIrr0KZHgJSIntK7GF7CxKZFTmss/hxQvX6FmEq/WT0eUrhR5NzIXQd+mzn
myP4y8E20GRJJL5XFEIp+0J0BWNAPUgL8qH+V32EgMlHT/H9P8rXn5r1LUN5gs6r
BEnyQTcicCGYVljNfcDtkEJW7A9WthGN51w8i1ZcVe3N5X35Sjo4rzIFVOza+IjM
O5yCa2HSD3arHReS2fmcSFhZzKS7czcOpayikwEGJfgIc/yAo5jYcl8N6BKiJI7p
WXPcQA0CFbLPhr1K/mLpOu6VEb25jDSd84nUbGruWWDpUIwWZchOdOmCrJHwayMW
NiIKWNsiVfMlibljQuY2H17zwczJ/zn9bAMhSkd2jsHCKtrXf6cTijJYvdWCzoiC
RmaBEFVzkTJHtW5+TJQTKoQBr1UH+V2rT2aj/+gcB/LDR0FF2V60L5yjhjWiMHSX
FacEtCorljXJ72qNa3/AFoExi3F19da5nmRBpwgP4g9zaehzU4sIyDZPFF9OR5/s
4EE0ov1SXAbtgrhd8Ma2kIlMgOxXlhQr+ObC/IHlB8EQ+5VnoWlyqxQmP4bvMGGv
TxnpLl1YiYrZOjGVsG2iFlpmjYzXRuAgz0HmdnC5
-----END CERTIFICATE-----
