Certificate:
    Data:
        Version: 3 (0x2)
        Serial Number: 5810 (0x16b2)
    Signature Algorithm: md5WithRSAEncryption
        Issuer: C=US, ST=OH, L=Columbus, O=VikingVPN, OU=MyOrganizationalUnit, CN=VikingVPN CA/name=EasyRSA/emailAddress=me@myhost.mydomain
        Validity
            Not Before: Jul 16 12:47:43 2015 GMT
            Not After : Jul 13 12:47:43 2025 GMT
        Subject: CN=Client1835Cert6e9b12
        Subject Public Key Info:
            Public Key Algorithm: rsaEncryption
                Public-Key: (4096 bit)
                Modulus:
                    00:b3:a2:79:a0:d9:22:17:95:52:e8:2b:47:fe:d4:
                    50:48:f4:ec:28:41:ce:0d:c7:08:64:c0:42:7c:7d:
                    c5:48:36:9f:18:83:59:2a:e1:96:a5:0c:3e:90:ae:
                    a3:4a:55:7c:38:0e:98:89:45:6a:cb:d5:2d:e6:6b:
                    eb:93:c6:cc:ea:62:8c:04:7f:c6:d0:12:37:1f:e2:
                    7b:05:c4:43:b5:ac:ca:e4:4c:a3:68:3b:cb:b0:9a:
                    09:03:ef:1a:fc:a7:94:09:fa:61:61:13:51:6e:04:
                    0d:05:bb:8c:3f:3e:76:df:0f:a9:84:79:7c:0e:f1:
                    42:4c:e9:3a:f5:0d:ee:29:53:04:4b:cf:06:f6:c1:
                    7e:e3:69:ce:4e:d5:d2:25:de:a6:98:16:f7:35:7d:
                    be:16:53:e8:cf:82:9d:60:32:29:bd:18:95:af:a5:
                    a2:21:07:f5:3c:f5:24:66:43:c6:bc:a4:88:25:94:
                    21:04:af:6c:3c:d7:30:4d:13:61:35:7b:63:86:d3:
                    40:e6:3a:4e:bd:8d:2d:a7:a2:0b:7e:3d:3f:77:a8:
                    16:78:a9:61:84:a9:1a:f5:f8:91:0c:74:f0:26:b3:
                    c6:48:85:f8:55:8c:4f:ec:43:8b:02:b2:5a:11:e4:
                    04:d9:02:73:4d:05:03:a9:22:41:f5:57:09:c3:53:
                    20:96:32:56:b0:78:3c:66:28:9d:3e:7c:5d:96:1b:
                    c9:8e:2d:ff:1c:0c:f0:f4:8c:03:66:f4:52:60:2d:
                    04:29:e7:9d:23:99:7f:f9:1e:34:bc:c9:64:e1:d3:
                    12:1a:61:14:4d:f6:36:dd:eb:20:3c:7b:36:3d:e8:
                    e3:9f:72:9e:2c:76:f3:fb:a5:6a:a0:f4:8d:f6:4d:
                    c3:d8:e5:dd:c1:41:7e:01:2d:32:ea:4e:12:6d:f0:
                    3b:e2:a6:3c:24:f0:35:d4:8d:5d:62:2a:fa:d8:64:
                    5b:c3:09:a6:ce:c3:bb:1f:7e:4f:e6:b0:8d:6f:34:
                    06:df:dd:28:ab:0e:f9:ba:a6:22:5b:ad:bb:39:b9:
                    d4:4a:e6:40:a8:02:92:2d:a4:d6:d5:3f:58:46:99:
                    e3:69:0d:a1:46:0a:ad:bf:c0:01:c8:f4:44:23:90:
                    81:70:9a:64:0e:37:2b:8a:8e:74:36:01:22:74:9a:
                    fa:9b:ea:ba:3f:f5:82:ef:37:6d:4a:a4:d4:e2:0c:
                    9e:e3:2e:c9:1b:05:af:b0:b3:c7:fe:d4:02:f4:03:
                    66:1e:8d:b8:64:29:23:cf:ff:9f:04:9a:79:35:69:
                    5e:83:33:24:db:fa:9b:7c:90:5c:04:10:91:a4:d0:
                    fd:4d:86:46:ab:29:29:4b:d9:33:38:2b:f8:eb:e3:
                    96:c5:d9
                Exponent: 65537 (0x10001)
        X509v3 extensions:
            X509v3 Basic Constraints: 
                CA:FALSE
            Netscape Comment: 
                Easy-RSA Generated Certificate
            X509v3 Subject Key Identifier: 
                B0:2B:02:85:19:F6:29:DB:C5:CF:CB:AC:46:46:F5:91:28:5E:68:06
            X509v3 Authority Key Identifier: 
                keyid:12:CD:60:04:D2:A0:80:9E:70:ED:C6:99:B8:7B:2C:C6:52:FD:19:A1
                DirName:/C=US/ST=OH/L=Columbus/O=VikingVPN/OU=MyOrganizationalUnit/CN=VikingVPN CA/name=EasyRSA/emailAddress=me@myhost.mydomain
                serial:CF:35:85:EE:80:BF:2A:3E

            X509v3 Extended Key Usage: 
                TLS Web Client Authentication
            X509v3 Key Usage: 
                Digital Signature
    Signature Algorithm: md5WithRSAEncryption
         44:53:eb:25:bd:29:59:8d:b1:5f:17:2d:50:d2:ef:b2:7b:6a:
         ce:63:ba:a5:67:da:ec:ad:2f:0c:5b:ef:34:d9:11:58:f1:bf:
         d9:7f:24:63:34:38:4e:f6:8e:8d:d6:8c:d4:7f:f4:e7:49:c3:
         8d:54:fa:1e:85:06:b3:42:a1:5d:08:be:c8:7d:04:9e:f6:78:
         32:70:c8:a2:56:f2:ab:bd:f8:38:b0:ae:16:54:d7:87:a5:c9:
         be:f9:6f:69:19:7e:f4:04:23:d8:c3:2b:42:17:04:fb:60:9b:
         fa:f1:a3:88:36:4f:8c:ae:6c:b8:65:f5:0e:87:8e:eb:a5:e2:
         03:69:83:8b:c7:77:5c:f8:3e:4d:96:3e:ce:95:6e:19:6b:ca:
         30:da:64:5e:ec:48:2c:20:b8:1b:98:fd:12:f7:7e:d0:42:5b:
         a1:65:69:b5:a6:e2:23:79:8a:85:9c:f2:ec:6c:5b:5f:89:7f:
         27:3e:b1:bc:8c:7b:a7:dc:a9:1d:03:a9:87:23:fc:65:c7:15:
         29:d0:bc:df:28:99:68:cf:ff:82:db:b0:0e:0a:e2:d1:f5:5a:
         61:ad:c5:55:32:b9:29:ac:c3:4e:84:bb:b0:0b:d7:28:3f:bc:
         2e:25:09:4f:cf:1f:92:31:1f:a0:9a:e3:a0:b5:cf:a2:14:cf:
         61:dd:6b:14:9f:ed:bc:0c:cc:5b:aa:dc:a8:07:1e:94:26:74:
         8b:9a:e4:32:ed:13:82:32:33:bd:f9:ea:a1:3a:a9:af:a6:be:
         6b:25:bc:a3:c5:36:fd:bb:d7:3e:ab:ee:3c:f7:7a:4d:c1:aa:
         57:bf:0f:42:42:6b:18:9a:98:1c:23:c4:9b:ec:54:ce:06:19:
         ff:e1:f2:5d:30:b7:74:9e:40:2a:a2:56:8c:f0:b1:d3:d2:d4:
         49:ed:56:b7:73:32:d2:66:03:47:65:1e:92:70:c1:19:55:63:
         9c:68:14:25:e2:10:91:8d:55:ad:86:43:c3:e4:34:13:47:39:
         15:26:8a:2c:9c:a7:6d:01:8f:52:0f:e6:e0:4c:ca:33:5e:ca:
         5e:57:fc:ba:54:af:91:4d:f6:d4:0c:4e:8a:8c:06:cc:36:8e:
         47:6c:da:d9:49:3f:7f:f8:61:57:df:c5:75:cc:7a:1c:42:34:
         15:bd:1e:d7:f8:bd:93:b4:ef:12:c7:5d:61:b6:df:47:28:3e:
         a2:e8:d8:c2:5b:9e:30:c8:49:21:e4:2f:2d:13:68:48:3d:98:
         fa:55:55:f4:e9:3e:fd:88:73:bc:e9:10:bd:aa:04:1a:a9:c7:
         1f:1d:51:f8:a4:99:ec:f4:51:d4:2e:6a:ac:4a:60:02:8a:fc:
         9e:72:17:78:52:f5:d5:71
-----BEGIN CERTIFICATE-----
MIIGrTCCBJWgAwIBAgICFrIwDQYJKoZIhvcNAQEEBQAwgawxCzAJBgNVBAYTAlVT
MQswCQYDVQQIEwJPSDERMA8GA1UEBxMIQ29sdW1idXMxEjAQBgNVBAoTCVZpa2lu
Z1ZQTjEdMBsGA1UECxMUTXlPcmdhbml6YXRpb25hbFVuaXQxFTATBgNVBAMTDFZp
a2luZ1ZQTiBDQTEQMA4GA1UEKRMHRWFzeVJTQTEhMB8GCSqGSIb3DQEJARYSbWVA
bXlob3N0Lm15ZG9tYWluMB4XDTE1MDcxNjEyNDc0M1oXDTI1MDcxMzEyNDc0M1ow
HzEdMBsGA1UEAxMUQ2xpZW50MTgzNUNlcnQ2ZTliMTIwggIiMA0GCSqGSIb3DQEB
AQUAA4ICDwAwggIKAoICAQCzonmg2SIXlVLoK0f+1FBI9OwoQc4NxwhkwEJ8fcVI
Np8Yg1kq4ZalDD6QrqNKVXw4DpiJRWrL1S3ma+uTxszqYowEf8bQEjcf4nsFxEO1
rMrkTKNoO8uwmgkD7xr8p5QJ+mFhE1FuBA0Fu4w/PnbfD6mEeXwO8UJM6Tr1De4p
UwRLzwb2wX7jac5O1dIl3qaYFvc1fb4WU+jPgp1gMim9GJWvpaIhB/U89SRmQ8a8
pIgllCEEr2w81zBNE2E1e2OG00DmOk69jS2nogt+PT93qBZ4qWGEqRr1+JEMdPAm
s8ZIhfhVjE/sQ4sCsloR5ATZAnNNBQOpIkH1VwnDUyCWMlaweDxmKJ0+fF2WG8mO
Lf8cDPD0jANm9FJgLQQp550jmX/5HjS8yWTh0xIaYRRN9jbd6yA8ezY96OOfcp4s
dvP7pWqg9I32TcPY5d3BQX4BLTLqThJt8Dvipjwk8DXUjV1iKvrYZFvDCabOw7sf
fk/msI1vNAbf3SirDvm6piJbrbs5udRK5kCoApItpNbVP1hGmeNpDaFGCq2/wAHI
9EQjkIFwmmQONyuKjnQ2ASJ0mvqb6ro/9YLvN21KpNTiDJ7jLskbBa+ws8f+1AL0
A2YejbhkKSPP/58Emnk1aV6DMyTb+pt8kFwEEJGk0P1NhkarKSlL2TM4K/jr45bF
2QIDAQABo4IBYzCCAV8wCQYDVR0TBAIwADAtBglghkgBhvhCAQ0EIBYeRWFzeS1S
U0EgR2VuZXJhdGVkIENlcnRpZmljYXRlMB0GA1UdDgQWBBSwKwKFGfYp28XPy6xG
RvWRKF5oBjCB4QYDVR0jBIHZMIHWgBQSzWAE0qCAnnDtxpm4eyzGUv0ZoaGBsqSB
rzCBrDELMAkGA1UEBhMCVVMxCzAJBgNVBAgTAk9IMREwDwYDVQQHEwhDb2x1bWJ1
czESMBAGA1UEChMJVmlraW5nVlBOMR0wGwYDVQQLExRNeU9yZ2FuaXphdGlvbmFs
VW5pdDEVMBMGA1UEAxMMVmlraW5nVlBOIENBMRAwDgYDVQQpEwdFYXN5UlNBMSEw
HwYJKoZIhvcNAQkBFhJtZUBteWhvc3QubXlkb21haW6CCQDPNYXugL8qPjATBgNV
HSUEDDAKBggrBgEFBQcDAjALBgNVHQ8EBAMCB4AwDQYJKoZIhvcNAQEEBQADggIB
AERT6yW9KVmNsV8XLVDS77J7as5juqVn2uytLwxb7zTZEVjxv9l/JGM0OE72jo3W
jNR/9OdJw41U+h6FBrNCoV0Ivsh9BJ72eDJwyKJW8qu9+DiwrhZU14elyb75b2kZ
fvQEI9jDK0IXBPtgm/rxo4g2T4yubLhl9Q6Hjuul4gNpg4vHd1z4Pk2WPs6Vbhlr
yjDaZF7sSCwguBuY/RL3ftBCW6FlabWm4iN5ioWc8uxsW1+Jfyc+sbyMe6fcqR0D
qYcj/GXHFSnQvN8omWjP/4LbsA4K4tH1WmGtxVUyuSmsw06Eu7AL1yg/vC4lCU/P
H5IxH6Ca46C1z6IUz2HdaxSf7bwMzFuq3KgHHpQmdIua5DLtE4IyM7356qE6qa+m
vmslvKPFNv271z6r7jz3ek3Bqle/D0JCaxiamBwjxJvsVM4GGf/h8l0wt3SeQCqi
VozwsdPS1EntVrdzMtJmA0dlHpJwwRlVY5xoFCXiEJGNVa2GQ8PkNBNHORUmiiyc
p20Bj1IP5uBMyjNeyl5X/LpUr5FN9tQMToqMBsw2jkds2tlJP3/4YVffxXXMehxC
NBW9Htf4vZO07xLHXWG230coPqLo2MJbnjDISSHkLy0TaEg9mPpVVfTpPv2Ic7zp
EL2qBBqpxx8dUfikmez0UdQuaqxKYAKK/J5yF3hS9dVx
-----END CERTIFICATE-----
