Certificate:
    Data:
        Version: 3 (0x2)
        Serial Number: 5885 (0x16fd)
    Signature Algorithm: md5WithRSAEncryption
        Issuer: C=US, ST=OH, L=Columbus, O=VikingVPN, OU=MyOrganizationalUnit, CN=VikingVPN CA/name=EasyRSA/emailAddress=me@myhost.mydomain
        Validity
            Not Before: Jul 21 05:16:53 2015 GMT
            Not After : Jul 18 05:16:53 2025 GMT
        Subject: CN=Client1452Cert1aa16c
        Subject Public Key Info:
            Public Key Algorithm: rsaEncryption
                Public-Key: (4096 bit)
                Modulus:
                    00:c3:6e:98:00:df:7d:9e:d9:6f:82:49:58:94:f9:
                    23:1c:86:df:ba:44:5a:ef:99:75:29:1f:5d:6c:8b:
                    71:de:8c:77:7b:ff:7f:a8:ea:c6:72:8e:7a:84:d4:
                    f9:dd:8f:44:8e:a7:1e:08:98:0a:6c:93:f5:0f:46:
                    ec:f1:d7:6d:6a:e7:c5:f5:84:fd:46:94:d9:87:24:
                    31:b0:d0:da:4d:54:57:60:ac:c8:05:70:65:af:e6:
                    4d:c6:e7:b5:fb:25:6a:19:7c:f5:53:1e:c4:3c:23:
                    94:34:d1:77:25:54:0d:e9:ba:18:eb:4c:48:67:e3:
                    72:67:f5:a0:13:7a:21:9d:14:4b:71:3c:b6:69:5d:
                    f5:94:55:b3:fc:2c:cb:4f:cc:6c:22:0a:3c:98:ce:
                    c2:f7:22:fb:cc:90:74:dc:49:52:c9:e4:fc:92:a8:
                    a5:64:25:6c:ed:b8:ff:3f:a2:0d:39:3c:35:4c:33:
                    1b:04:39:db:cb:0e:9c:7f:ad:0d:4c:88:78:bc:b4:
                    d9:4e:81:53:04:f6:cf:d5:f8:ce:e2:63:61:63:41:
                    a9:25:85:9d:ee:c4:c9:53:8f:3b:3b:6e:d8:7d:6f:
                    56:86:d8:c7:4b:4a:21:ec:1a:66:6d:b4:76:d4:d0:
                    8c:5a:ea:f8:c6:4d:59:1e:9d:e5:80:3f:44:63:dc:
                    cf:c5:6e:04:0a:3f:c4:56:93:bf:21:1e:8f:73:0e:
                    76:4b:53:36:ba:c5:44:4d:32:5f:21:13:22:28:e3:
                    eb:09:92:ab:7c:9f:42:87:10:12:7c:94:42:d3:92:
                    3f:6b:cc:bd:d2:4b:ca:60:20:4e:25:d5:60:ad:2f:
                    b7:ac:2d:b9:f8:4c:c1:61:6a:61:bb:6a:9e:0d:32:
                    5b:84:19:ac:64:91:47:4c:f8:90:35:cb:94:c7:a0:
                    c0:8b:b6:4a:8f:29:8e:a7:49:62:a5:a5:cd:cc:c3:
                    70:a4:d1:6a:bf:0a:59:f2:a8:fd:df:e8:32:06:6c:
                    50:c1:01:37:6b:a8:74:6d:b5:13:21:a7:7e:ba:a2:
                    89:06:4c:20:43:b3:3a:6a:55:1c:ec:83:60:c3:37:
                    31:cb:d8:07:32:37:8e:a7:be:64:01:8e:20:18:c9:
                    09:48:fe:01:b5:85:30:ff:ce:c4:70:26:98:cb:39:
                    bc:9e:b4:82:80:98:25:79:7f:d2:f8:87:62:24:29:
                    9e:5f:03:25:a8:cd:aa:6c:20:24:5f:29:b0:4f:b1:
                    c2:30:4f:71:97:2e:35:29:66:4c:1f:15:f1:4a:18:
                    3d:19:06:52:b9:cc:74:89:5b:2c:45:b3:9e:5a:89:
                    48:2a:dd:07:6f:2f:d8:d5:60:0e:24:1a:97:02:8a:
                    04:e0:23
                Exponent: 65537 (0x10001)
        X509v3 extensions:
            X509v3 Basic Constraints: 
                CA:FALSE
            Netscape Comment: 
                Easy-RSA Generated Certificate
            X509v3 Subject Key Identifier: 
                74:BD:8A:86:CA:05:55:B9:3E:E8:53:81:C7:F4:60:9A:A1:F6:80:C4
            X509v3 Authority Key Identifier: 
                keyid:12:CD:60:04:D2:A0:80:9E:70:ED:C6:99:B8:7B:2C:C6:52:FD:19:A1
                DirName:/C=US/ST=OH/L=Columbus/O=VikingVPN/OU=MyOrganizationalUnit/CN=VikingVPN CA/name=EasyRSA/emailAddress=me@myhost.mydomain
                serial:CF:35:85:EE:80:BF:2A:3E

            X509v3 Extended Key Usage: 
                TLS Web Client Authentication
            X509v3 Key Usage: 
                Digital Signature
    Signature Algorithm: md5WithRSAEncryption
         52:38:f9:0b:65:a0:f0:c6:09:fe:31:69:d0:b4:3b:9e:08:ba:
         6c:90:24:60:c0:45:84:1f:7c:83:d8:8d:17:32:d5:ac:75:1f:
         64:5e:8b:83:ba:b1:e6:82:00:59:13:75:e0:95:d1:8b:14:fc:
         94:27:e4:cf:4b:5f:28:74:9d:8f:00:55:40:c8:35:3b:4c:03:
         e9:0c:68:50:46:2c:0d:ca:a6:56:93:46:f1:3f:95:45:6f:cf:
         ea:f0:14:84:bc:08:18:cc:fd:cc:83:34:b7:4c:59:a1:eb:b8:
         d1:b6:9b:e1:5d:9f:4b:99:3e:c2:bf:c7:6b:d5:dd:de:13:c0:
         28:2f:34:ab:6e:aa:64:f3:4d:7f:1c:37:f4:85:4e:56:ea:42:
         b7:32:2b:3a:09:da:f6:bf:b7:99:6e:18:9f:3b:b2:b6:e4:60:
         d7:b5:d6:26:78:ed:5b:e4:04:84:08:4d:37:56:b3:6b:d4:2e:
         0a:2a:1c:05:7e:f1:75:0b:46:ab:dc:dd:4a:fa:11:06:c4:78:
         62:89:04:39:3b:0d:71:4c:11:d9:a0:65:9d:7f:44:7b:62:16:
         98:17:ff:96:6a:2c:08:2a:36:b0:e8:97:78:18:ce:2e:d9:8f:
         af:8d:84:43:d2:ad:a5:a3:72:30:39:aa:99:60:fb:73:19:0e:
         31:3b:d6:e1:f4:65:da:16:24:2a:3f:91:65:44:01:68:94:a8:
         45:10:d9:0c:d8:c2:a3:e9:81:a6:2f:9a:0f:3b:09:d9:3b:64:
         c7:8e:ef:31:f2:41:ce:e8:e5:af:f9:0c:3b:8e:94:17:f8:43:
         37:3d:13:d7:7e:48:12:a7:f2:53:69:84:92:3a:c0:88:e8:46:
         4c:aa:2c:83:aa:e5:ae:74:5f:41:38:bf:2a:ef:7f:76:fd:51:
         8a:20:88:2c:19:09:f5:77:50:c9:ad:da:1a:cd:4a:96:63:06:
         5a:26:9d:9a:f3:68:39:1b:88:a2:93:f1:5b:ac:d7:4d:76:35:
         0d:8e:b0:b4:30:a2:54:7f:62:5b:1b:5a:a8:66:a5:49:0b:a6:
         79:26:ac:da:83:5e:89:5c:a4:3e:82:14:07:20:51:f9:5f:19:
         64:76:f1:7d:20:a7:31:83:c4:c9:0b:54:6c:28:a4:6d:e3:61:
         8e:bb:26:fa:d7:e8:00:8d:94:92:7f:50:be:30:1f:2a:9f:a6:
         28:f0:d5:25:52:b4:b4:cf:52:99:a0:a0:22:b8:c3:ce:10:78:
         92:82:9f:df:43:7b:75:f3:37:1d:04:05:cb:00:75:d1:7c:fd:
         45:c1:de:84:56:38:5e:ca:71:2e:63:e7:d3:c7:80:28:4f:cf:
         c1:8e:94:5e:57:8e:b7:a0
-----BEGIN CERTIFICATE-----
MIIGrTCCBJWgAwIBAgICFv0wDQYJKoZIhvcNAQEEBQAwgawxCzAJBgNVBAYTAlVT
MQswCQYDVQQIEwJPSDERMA8GA1UEBxMIQ29sdW1idXMxEjAQBgNVBAoTCVZpa2lu
Z1ZQTjEdMBsGA1UECxMUTXlPcmdhbml6YXRpb25hbFVuaXQxFTATBgNVBAMTDFZp
a2luZ1ZQTiBDQTEQMA4GA1UEKRMHRWFzeVJTQTEhMB8GCSqGSIb3DQEJARYSbWVA
bXlob3N0Lm15ZG9tYWluMB4XDTE1MDcyMTA1MTY1M1oXDTI1MDcxODA1MTY1M1ow
HzEdMBsGA1UEAxMUQ2xpZW50MTQ1MkNlcnQxYWExNmMwggIiMA0GCSqGSIb3DQEB
AQUAA4ICDwAwggIKAoICAQDDbpgA332e2W+CSViU+SMcht+6RFrvmXUpH11si3He
jHd7/3+o6sZyjnqE1Pndj0SOpx4ImApsk/UPRuzx121q58X1hP1GlNmHJDGw0NpN
VFdgrMgFcGWv5k3G57X7JWoZfPVTHsQ8I5Q00XclVA3puhjrTEhn43Jn9aATeiGd
FEtxPLZpXfWUVbP8LMtPzGwiCjyYzsL3IvvMkHTcSVLJ5PySqKVkJWztuP8/og05
PDVMMxsEOdvLDpx/rQ1MiHi8tNlOgVME9s/V+M7iY2FjQaklhZ3uxMlTjzs7bth9
b1aG2MdLSiHsGmZttHbU0Ixa6vjGTVkeneWAP0Rj3M/FbgQKP8RWk78hHo9zDnZL
Uza6xURNMl8hEyIo4+sJkqt8n0KHEBJ8lELTkj9rzL3SS8pgIE4l1WCtL7esLbn4
TMFhamG7ap4NMluEGaxkkUdM+JA1y5THoMCLtkqPKY6nSWKlpc3Mw3Ck0Wq/Clny
qP3f6DIGbFDBATdrqHRttRMhp366ookGTCBDszpqVRzsg2DDNzHL2AcyN46nvmQB
jiAYyQlI/gG1hTD/zsRwJpjLObyetIKAmCV5f9L4h2IkKZ5fAyWozapsICRfKbBP
scIwT3GXLjUpZkwfFfFKGD0ZBlK5zHSJWyxFs55aiUgq3QdvL9jVYA4kGpcCigTg
IwIDAQABo4IBYzCCAV8wCQYDVR0TBAIwADAtBglghkgBhvhCAQ0EIBYeRWFzeS1S
U0EgR2VuZXJhdGVkIENlcnRpZmljYXRlMB0GA1UdDgQWBBR0vYqGygVVuT7oU4HH
9GCaofaAxDCB4QYDVR0jBIHZMIHWgBQSzWAE0qCAnnDtxpm4eyzGUv0ZoaGBsqSB
rzCBrDELMAkGA1UEBhMCVVMxCzAJBgNVBAgTAk9IMREwDwYDVQQHEwhDb2x1bWJ1
czESMBAGA1UEChMJVmlraW5nVlBOMR0wGwYDVQQLExRNeU9yZ2FuaXphdGlvbmFs
VW5pdDEVMBMGA1UEAxMMVmlraW5nVlBOIENBMRAwDgYDVQQpEwdFYXN5UlNBMSEw
HwYJKoZIhvcNAQkBFhJtZUBteWhvc3QubXlkb21haW6CCQDPNYXugL8qPjATBgNV
HSUEDDAKBggrBgEFBQcDAjALBgNVHQ8EBAMCB4AwDQYJKoZIhvcNAQEEBQADggIB
AFI4+QtloPDGCf4xadC0O54IumyQJGDARYQffIPYjRcy1ax1H2Rei4O6seaCAFkT
deCV0YsU/JQn5M9LXyh0nY8AVUDINTtMA+kMaFBGLA3KplaTRvE/lUVvz+rwFIS8
CBjM/cyDNLdMWaHruNG2m+Fdn0uZPsK/x2vV3d4TwCgvNKtuqmTzTX8cN/SFTlbq
QrcyKzoJ2va/t5luGJ87srbkYNe11iZ47VvkBIQITTdWs2vULgoqHAV+8XULRqvc
3Ur6EQbEeGKJBDk7DXFMEdmgZZ1/RHtiFpgX/5ZqLAgqNrDol3gYzi7Zj6+NhEPS
raWjcjA5qplg+3MZDjE71uH0ZdoWJCo/kWVEAWiUqEUQ2QzYwqPpgaYvmg87Cdk7
ZMeO7zHyQc7o5a/5DDuOlBf4Qzc9E9d+SBKn8lNphJI6wIjoRkyqLIOq5a50X0E4
vyrvf3b9UYogiCwZCfV3UMmt2hrNSpZjBlomnZrzaDkbiKKT8Vus1012NQ2OsLQw
olR/YlsbWqhmpUkLpnkmrNqDXolcpD6CFAcgUflfGWR28X0gpzGDxMkLVGwopG3j
YY67JvrX6ACNlJJ/UL4wHyqfpijw1SVStLTPUpmgoCK4w84QeJKCn99De3XzNx0E
BcsAddF8/UXB3oRWOF7KcS5j59PHgChPz8GOlF5Xjreg
-----END CERTIFICATE-----
