Certificate:
    Data:
        Version: 3 (0x2)
        Serial Number: 5886 (0x16fe)
    Signature Algorithm: md5WithRSAEncryption
        Issuer: C=US, ST=OH, L=Columbus, O=VikingVPN, OU=MyOrganizationalUnit, CN=VikingVPN CA/name=EasyRSA/emailAddress=me@myhost.mydomain
        Validity
            Not Before: Jul 21 10:58:09 2015 GMT
            Not After : Jul 18 10:58:09 2025 GMT
        Subject: CN=Client1851Certce74d5
        Subject Public Key Info:
            Public Key Algorithm: rsaEncryption
                Public-Key: (4096 bit)
                Modulus:
                    00:b0:7e:21:a9:73:c3:d5:a6:af:67:41:00:31:8e:
                    ac:15:96:ae:0d:a8:f9:d4:16:31:e0:68:b3:a8:ec:
                    9a:b7:a5:01:2c:10:6c:3b:cb:c6:d5:e7:4f:d9:57:
                    20:b3:9b:79:0a:72:87:7b:6b:23:4c:8c:71:8c:82:
                    a5:c5:a7:aa:35:fe:b2:31:65:53:c3:d8:61:33:2d:
                    5a:d2:ad:57:54:4f:5b:49:14:5b:de:9f:b3:15:e4:
                    51:ce:74:b5:c4:75:42:2a:bf:27:f6:09:1b:5f:1b:
                    01:bb:5a:83:4e:c3:69:aa:5a:12:0b:bb:b0:73:df:
                    c8:6a:6e:bf:69:e3:43:28:0f:d9:49:0d:2e:63:04:
                    86:fd:b5:a6:04:bd:d2:ce:d9:b4:d4:be:36:b3:f2:
                    6b:f7:0b:a1:34:a3:6c:cb:e7:f3:05:5b:90:1c:46:
                    aa:0b:63:1b:ae:ca:48:3e:32:0a:dc:d3:06:14:48:
                    96:4b:0f:53:8b:c0:3f:ca:b9:9d:21:92:2e:cc:3c:
                    91:8c:89:f0:2f:9d:1d:20:32:2e:45:f6:5f:55:df:
                    9b:7e:b1:2e:b7:00:f8:f1:7c:2d:55:92:fb:a3:36:
                    ec:f6:54:35:cf:07:08:18:10:22:71:bf:77:eb:8e:
                    95:9b:90:f0:bf:8c:b4:be:ba:7e:75:b8:a1:65:c7:
                    07:cc:a1:a9:2e:62:3b:b5:79:24:a8:e2:37:da:d1:
                    34:64:cf:94:5f:68:5c:15:26:39:d9:8f:58:8b:7c:
                    ba:58:67:c7:9e:a1:ef:fa:76:23:77:d7:80:92:e7:
                    a6:37:7c:62:f0:5a:db:2e:2f:93:19:d6:2f:2a:ad:
                    fb:4b:ae:18:35:6c:0d:25:9f:d4:79:a5:d4:a1:7e:
                    19:7f:b0:1b:42:a4:45:72:1b:e4:16:60:db:8a:16:
                    0f:41:92:43:97:99:38:c0:84:3b:d3:f5:75:a3:08:
                    91:17:fb:8c:ff:c1:5b:a8:2d:a7:03:27:ae:6d:d7:
                    c7:ff:ef:bc:c1:26:9b:29:a8:4a:66:af:bc:c0:9a:
                    8e:b1:fd:2e:55:de:0d:82:c6:9e:28:3e:4d:06:18:
                    3d:db:a1:fc:58:0e:98:44:5d:3d:c2:86:49:6b:c2:
                    d9:dd:10:d9:0a:7b:14:7b:b4:c5:74:fa:18:ca:89:
                    b7:c6:bd:a6:07:34:f9:14:4c:9d:2d:e8:98:dd:19:
                    0a:30:5c:f5:19:ee:88:ca:a1:17:d6:32:47:b6:2e:
                    5a:02:b3:a5:3b:bc:de:a4:97:b3:c1:64:9e:a6:25:
                    fd:2c:41:8f:e6:2f:79:40:a1:ce:8e:19:21:37:f6:
                    31:d8:fa:f4:85:b0:e7:5e:e5:e8:00:91:a2:11:be:
                    fc:8a:b9
                Exponent: 65537 (0x10001)
        X509v3 extensions:
            X509v3 Basic Constraints: 
                CA:FALSE
            Netscape Comment: 
                Easy-RSA Generated Certificate
            X509v3 Subject Key Identifier: 
                41:C1:C3:A3:38:98:E0:D9:4C:D7:D2:B8:10:54:71:FD:B0:7C:0C:2C
            X509v3 Authority Key Identifier: 
                keyid:12:CD:60:04:D2:A0:80:9E:70:ED:C6:99:B8:7B:2C:C6:52:FD:19:A1
                DirName:/C=US/ST=OH/L=Columbus/O=VikingVPN/OU=MyOrganizationalUnit/CN=VikingVPN CA/name=EasyRSA/emailAddress=me@myhost.mydomain
                serial:CF:35:85:EE:80:BF:2A:3E

            X509v3 Extended Key Usage: 
                TLS Web Client Authentication
            X509v3 Key Usage: 
                Digital Signature
    Signature Algorithm: md5WithRSAEncryption
         c5:91:cb:0e:d3:dc:6c:e4:cd:bb:9a:88:0b:34:0b:d7:84:e3:
         6e:49:1d:50:52:dc:e5:0d:c7:72:42:57:fa:16:09:39:f8:57:
         b5:85:92:d1:c4:5c:57:95:4a:95:a7:58:38:1a:a0:82:bf:0e:
         4d:53:c3:4d:cd:11:c1:16:4f:6c:53:e3:ef:dc:d4:4b:78:bb:
         4d:6f:40:bd:42:c0:b1:8f:48:5d:14:8d:bc:44:12:bc:3d:3c:
         9c:79:24:89:14:90:84:61:f8:13:c4:f4:c6:29:55:e9:ec:35:
         80:9f:33:15:a3:eb:8e:c4:3a:03:02:c2:b8:51:6a:d0:02:45:
         df:d4:a7:d3:1e:97:ac:17:2d:86:75:8e:7e:47:0d:6d:b9:96:
         08:b7:56:be:2a:25:68:2d:86:90:67:28:42:7f:1d:b8:3a:b8:
         43:b5:50:74:f6:1d:bb:f5:81:3a:9c:62:f7:60:8e:52:bc:b9:
         c1:a5:50:f6:a2:51:ff:50:13:be:18:a4:2a:41:1e:57:5c:c6:
         f3:83:6b:07:6e:c0:99:58:b4:1e:63:8b:f5:64:36:6c:ae:15:
         8a:5b:f9:d6:f4:80:5d:40:d5:84:c8:53:71:57:66:fa:4c:64:
         60:b5:f8:9f:9d:17:d0:b2:b3:f4:5f:12:18:0c:5b:48:1d:e2:
         b9:3c:11:78:60:b6:f7:11:7b:c8:06:67:af:4a:54:ba:a0:0b:
         86:08:98:c8:ee:65:58:7c:0f:91:bf:94:68:d3:a0:4e:e3:6f:
         bc:9f:28:2f:64:2b:de:98:29:a4:44:00:b4:b3:13:f0:9d:5a:
         79:38:ee:e3:a3:71:46:c5:88:2f:80:20:74:2a:49:62:4a:1b:
         19:6b:ce:90:c6:d9:40:02:f9:40:24:bc:02:91:de:1a:7f:7c:
         5b:ff:04:81:d0:0c:ff:e2:3b:18:35:3b:9a:a8:59:04:db:d3:
         1f:29:1e:e9:19:70:f6:f0:dc:2d:05:63:5a:42:0b:e3:cb:2a:
         5e:93:ed:c2:e6:a4:8a:65:00:99:6c:2d:8b:55:1a:bb:b1:38:
         b3:98:d2:dc:19:36:f6:f9:05:d7:1c:43:88:6b:ed:d2:c5:05:
         fb:ac:db:9f:05:e4:5b:79:25:63:fd:1c:79:d8:47:b0:c1:e9:
         53:35:4e:51:10:32:cd:31:fb:d8:6f:ac:2e:6b:37:26:69:c4:
         26:48:65:3a:6b:52:85:bd:69:a5:47:de:24:db:a4:85:0d:b2:
         5e:84:df:3c:b4:21:5d:77:4a:77:8b:53:7b:eb:48:76:db:31:
         af:a3:7c:ae:d2:e5:56:42:43:f3:7e:33:a6:4b:30:08:b1:f7:
         6e:76:8d:a9:27:9f:96:f3
-----BEGIN CERTIFICATE-----
MIIGrTCCBJWgAwIBAgICFv4wDQYJKoZIhvcNAQEEBQAwgawxCzAJBgNVBAYTAlVT
MQswCQYDVQQIEwJPSDERMA8GA1UEBxMIQ29sdW1idXMxEjAQBgNVBAoTCVZpa2lu
Z1ZQTjEdMBsGA1UECxMUTXlPcmdhbml6YXRpb25hbFVuaXQxFTATBgNVBAMTDFZp
a2luZ1ZQTiBDQTEQMA4GA1UEKRMHRWFzeVJTQTEhMB8GCSqGSIb3DQEJARYSbWVA
bXlob3N0Lm15ZG9tYWluMB4XDTE1MDcyMTEwNTgwOVoXDTI1MDcxODEwNTgwOVow
HzEdMBsGA1UEAxMUQ2xpZW50MTg1MUNlcnRjZTc0ZDUwggIiMA0GCSqGSIb3DQEB
AQUAA4ICDwAwggIKAoICAQCwfiGpc8PVpq9nQQAxjqwVlq4NqPnUFjHgaLOo7Jq3
pQEsEGw7y8bV50/ZVyCzm3kKcod7ayNMjHGMgqXFp6o1/rIxZVPD2GEzLVrSrVdU
T1tJFFven7MV5FHOdLXEdUIqvyf2CRtfGwG7WoNOw2mqWhILu7Bz38hqbr9p40Mo
D9lJDS5jBIb9taYEvdLO2bTUvjaz8mv3C6E0o2zL5/MFW5AcRqoLYxuuykg+Mgrc
0wYUSJZLD1OLwD/KuZ0hki7MPJGMifAvnR0gMi5F9l9V35t+sS63APjxfC1Vkvuj
Nuz2VDXPBwgYECJxv3frjpWbkPC/jLS+un51uKFlxwfMoakuYju1eSSo4jfa0TRk
z5RfaFwVJjnZj1iLfLpYZ8eeoe/6diN314CS56Y3fGLwWtsuL5MZ1i8qrftLrhg1
bA0ln9R5pdShfhl/sBtCpEVyG+QWYNuKFg9BkkOXmTjAhDvT9XWjCJEX+4z/wVuo
LacDJ65t18f/77zBJpspqEpmr7zAmo6x/S5V3g2Cxp4oPk0GGD3bofxYDphEXT3C
hklrwtndENkKexR7tMV0+hjKibfGvaYHNPkUTJ0t6JjdGQowXPUZ7ojKoRfWMke2
LloCs6U7vN6kl7PBZJ6mJf0sQY/mL3lAoc6OGSE39jHY+vSFsOde5egAkaIRvvyK
uQIDAQABo4IBYzCCAV8wCQYDVR0TBAIwADAtBglghkgBhvhCAQ0EIBYeRWFzeS1S
U0EgR2VuZXJhdGVkIENlcnRpZmljYXRlMB0GA1UdDgQWBBRBwcOjOJjg2UzX0rgQ
VHH9sHwMLDCB4QYDVR0jBIHZMIHWgBQSzWAE0qCAnnDtxpm4eyzGUv0ZoaGBsqSB
rzCBrDELMAkGA1UEBhMCVVMxCzAJBgNVBAgTAk9IMREwDwYDVQQHEwhDb2x1bWJ1
czESMBAGA1UEChMJVmlraW5nVlBOMR0wGwYDVQQLExRNeU9yZ2FuaXphdGlvbmFs
VW5pdDEVMBMGA1UEAxMMVmlraW5nVlBOIENBMRAwDgYDVQQpEwdFYXN5UlNBMSEw
HwYJKoZIhvcNAQkBFhJtZUBteWhvc3QubXlkb21haW6CCQDPNYXugL8qPjATBgNV
HSUEDDAKBggrBgEFBQcDAjALBgNVHQ8EBAMCB4AwDQYJKoZIhvcNAQEEBQADggIB
AMWRyw7T3GzkzbuaiAs0C9eE425JHVBS3OUNx3JCV/oWCTn4V7WFktHEXFeVSpWn
WDgaoIK/Dk1Tw03NEcEWT2xT4+/c1Et4u01vQL1CwLGPSF0UjbxEErw9PJx5JIkU
kIRh+BPE9MYpVensNYCfMxWj647EOgMCwrhRatACRd/Up9Mel6wXLYZ1jn5HDW25
lgi3Vr4qJWgthpBnKEJ/Hbg6uEO1UHT2Hbv1gTqcYvdgjlK8ucGlUPaiUf9QE74Y
pCpBHldcxvODawduwJlYtB5ji/VkNmyuFYpb+db0gF1A1YTIU3FXZvpMZGC1+J+d
F9Cys/RfEhgMW0gd4rk8EXhgtvcRe8gGZ69KVLqgC4YImMjuZVh8D5G/lGjToE7j
b7yfKC9kK96YKaREALSzE/CdWnk47uOjcUbFiC+AIHQqSWJKGxlrzpDG2UAC+UAk
vAKR3hp/fFv/BIHQDP/iOxg1O5qoWQTb0x8pHukZcPbw3C0FY1pCC+PLKl6T7cLm
pIplAJlsLYtVGruxOLOY0twZNvb5BdccQ4hr7dLFBfus258F5Ft5JWP9HHnYR7DB
6VM1TlEQMs0x+9hvrC5rNyZpxCZIZTprUoW9aaVH3iTbpIUNsl6E3zy0IV13SneL
U3vrSHbbMa+jfK7S5VZCQ/N+M6ZLMAix9252jaknn5bz
-----END CERTIFICATE-----
