Certificate:
    Data:
        Version: 3 (0x2)
        Serial Number: 5891 (0x1703)
    Signature Algorithm: md5WithRSAEncryption
        Issuer: C=US, ST=OH, L=Columbus, O=VikingVPN, OU=MyOrganizationalUnit, CN=VikingVPN CA/name=EasyRSA/emailAddress=me@myhost.mydomain
        Validity
            Not Before: Jul 22 05:06:53 2015 GMT
            Not After : Jul 19 05:06:53 2025 GMT
        Subject: CN=Client1815Cert27fa13
        Subject Public Key Info:
            Public Key Algorithm: rsaEncryption
                Public-Key: (4096 bit)
                Modulus:
                    00:c4:e3:e1:c8:30:56:67:4b:33:02:cb:bc:b8:85:
                    ee:32:0b:fe:23:34:ca:3c:e4:d2:ed:f1:c9:50:4e:
                    22:85:75:6d:e0:16:0d:48:9c:0b:1d:5b:36:bf:c4:
                    ab:19:17:b0:21:c4:79:ee:40:c6:07:37:78:88:39:
                    52:ab:f5:a8:1c:aa:77:d2:19:bc:79:75:68:bc:fc:
                    66:ef:39:66:63:e9:61:17:ac:44:18:fb:e5:3b:91:
                    c9:3c:00:24:4e:ae:2a:f6:a0:b1:37:36:e6:f6:e5:
                    ac:d0:c2:07:52:e8:2f:19:e5:5d:bb:16:e2:3b:71:
                    77:21:fb:f4:ab:67:3c:34:5a:21:ad:ee:7e:b9:a7:
                    f7:f4:5b:c6:b4:ff:eb:9f:07:f7:83:3d:62:c0:26:
                    0b:86:97:a1:86:9e:72:80:8e:44:7e:47:cb:b9:1d:
                    18:75:96:60:2d:ab:da:60:c7:6f:13:20:b6:5a:86:
                    8c:d4:e8:ca:17:75:dd:35:f9:04:30:4b:49:32:43:
                    52:74:8c:e2:07:1e:1f:c6:75:1a:77:77:2f:01:74:
                    8e:36:cd:8d:6d:9d:37:6a:26:4c:fc:e6:4e:84:57:
                    70:bd:19:37:27:61:dc:96:ee:35:4a:7b:8f:e4:72:
                    34:6a:c4:9e:e7:31:df:52:a9:ae:e0:22:53:cf:17:
                    8e:ea:1d:e9:f2:9b:21:fb:88:a7:af:b9:4a:25:d2:
                    07:6a:37:0b:ec:b7:6f:22:eb:7f:43:93:49:45:7c:
                    a6:24:62:8c:bd:e2:78:a2:cc:f8:20:a7:ab:b3:87:
                    cf:57:b5:11:6b:56:d0:bd:6e:b3:12:0c:2a:ed:eb:
                    f9:79:72:fa:ad:c6:7d:92:60:f3:84:5e:61:61:a0:
                    1f:1a:62:65:d9:2d:4d:5d:70:74:a1:3b:a1:86:46:
                    ca:d9:b9:4f:f1:bd:8f:7b:6e:bc:40:b6:03:b9:00:
                    e3:c7:3f:a4:0c:1b:7c:84:4c:00:89:12:7d:fb:25:
                    46:1f:e7:6c:f7:7d:b6:fc:77:da:46:cc:ef:74:d1:
                    66:35:bd:a8:28:c4:92:e3:1b:43:6b:ec:55:05:3f:
                    c3:54:18:58:3b:dd:64:c4:89:8d:f2:75:68:0f:ac:
                    7d:55:02:db:e5:0a:0e:63:cd:ff:b8:95:84:90:f0:
                    a5:09:d1:00:c1:83:30:bc:4e:94:f6:c1:81:66:c4:
                    8b:74:10:e7:f0:0b:8f:9b:57:3c:f4:5b:a5:ce:a7:
                    2b:72:3f:6e:90:3a:43:28:ae:c7:f9:75:8e:ed:03:
                    d4:c9:6c:17:1b:b0:ba:c2:b6:69:c2:99:e3:74:aa:
                    5d:86:ba:cb:a3:ab:ca:b5:85:7b:bb:3e:56:4a:0c:
                    f5:dc:43
                Exponent: 65537 (0x10001)
        X509v3 extensions:
            X509v3 Basic Constraints: 
                CA:FALSE
            Netscape Comment: 
                Easy-RSA Generated Certificate
            X509v3 Subject Key Identifier: 
                88:19:6C:B4:B4:BC:7A:B0:31:BA:A7:2A:37:EB:1D:C1:EC:63:71:9F
            X509v3 Authority Key Identifier: 
                keyid:12:CD:60:04:D2:A0:80:9E:70:ED:C6:99:B8:7B:2C:C6:52:FD:19:A1
                DirName:/C=US/ST=OH/L=Columbus/O=VikingVPN/OU=MyOrganizationalUnit/CN=VikingVPN CA/name=EasyRSA/emailAddress=me@myhost.mydomain
                serial:CF:35:85:EE:80:BF:2A:3E

            X509v3 Extended Key Usage: 
                TLS Web Client Authentication
            X509v3 Key Usage: 
                Digital Signature
    Signature Algorithm: md5WithRSAEncryption
         77:c7:0c:03:ba:d1:ec:b6:40:da:6d:05:03:8c:6d:9e:43:62:
         db:44:70:41:36:76:f5:33:23:76:d2:0b:4b:98:32:e8:de:91:
         98:b3:2b:1d:00:f9:93:a8:b4:b9:09:78:59:e1:b3:92:f6:bd:
         a6:55:db:26:54:90:5d:b8:2e:93:48:a7:b5:ca:c1:67:af:ba:
         30:5b:04:34:4c:a1:d7:93:e1:e3:cd:07:69:d3:11:48:65:02:
         69:6c:50:33:f0:3a:1b:2e:fa:05:20:48:35:9d:87:5f:45:92:
         11:c4:6c:87:d6:40:44:3c:0d:3c:74:08:17:ef:86:73:8e:a4:
         97:6d:39:b7:1d:d3:78:70:b5:e4:e5:38:59:cc:fe:5a:2f:67:
         ab:ae:dd:ab:c4:33:b4:dc:2d:cc:92:f3:32:1d:e3:ff:1f:22:
         f3:2a:7d:ac:c3:9f:4f:bd:71:0a:ce:77:5c:ab:4e:54:02:94:
         97:9e:6a:fb:bc:5f:7b:10:59:e0:2a:58:e7:d9:9a:71:fd:3c:
         7a:c1:48:27:bf:8b:a0:98:c3:59:3b:53:5c:e9:fa:e7:2d:d3:
         47:22:ee:aa:cc:64:3f:d0:9a:f3:78:00:8e:b5:0d:9d:ab:40:
         27:52:8b:91:c9:0e:cb:ef:17:6b:af:f1:bb:ed:af:b0:d4:00:
         29:39:12:14:bc:18:67:3b:5f:f9:96:2e:cb:43:9c:5c:a5:a1:
         d3:64:bc:4c:8b:d5:76:9b:05:b1:de:f4:3f:ee:1d:e2:a9:b0:
         cf:20:04:df:b8:4b:6e:f3:97:73:51:68:53:01:4c:c1:a0:19:
         be:95:04:8f:91:8d:3b:4a:d1:6e:5c:21:93:20:9d:9b:1b:d9:
         fa:98:00:19:c8:3a:99:43:83:74:4a:0a:f0:82:8f:64:16:4f:
         21:ad:c1:0d:40:e5:e8:86:42:ec:07:8b:05:cc:7d:0c:da:cc:
         3b:9d:9c:b7:1e:b8:4e:82:cd:53:a5:ee:9b:16:9d:e4:04:09:
         ec:f6:b7:84:90:00:62:5f:9c:b9:a9:c1:85:60:b2:b3:9e:2e:
         46:9b:9b:19:5e:08:3c:3c:9d:cf:6c:17:39:43:af:f8:58:ed:
         c7:93:c4:24:a4:61:a1:ea:f1:65:68:af:e2:d3:cb:a6:b3:f2:
         df:30:4a:a1:82:bd:15:18:f0:c5:c1:7e:ef:94:e7:31:9b:65:
         12:06:bc:52:7a:bd:f2:62:24:e3:f2:93:be:73:d0:58:9e:12:
         fd:a3:3e:1b:3b:9a:6c:0a:34:71:1a:98:f9:77:5b:9c:ff:5f:
         02:44:80:dd:2e:e2:51:9b:0e:a0:3c:af:cb:93:ac:89:63:22:
         20:e9:80:0e:a5:f8:43:45
-----BEGIN CERTIFICATE-----
MIIGrTCCBJWgAwIBAgICFwMwDQYJKoZIhvcNAQEEBQAwgawxCzAJBgNVBAYTAlVT
MQswCQYDVQQIEwJPSDERMA8GA1UEBxMIQ29sdW1idXMxEjAQBgNVBAoTCVZpa2lu
Z1ZQTjEdMBsGA1UECxMUTXlPcmdhbml6YXRpb25hbFVuaXQxFTATBgNVBAMTDFZp
a2luZ1ZQTiBDQTEQMA4GA1UEKRMHRWFzeVJTQTEhMB8GCSqGSIb3DQEJARYSbWVA
bXlob3N0Lm15ZG9tYWluMB4XDTE1MDcyMjA1MDY1M1oXDTI1MDcxOTA1MDY1M1ow
HzEdMBsGA1UEAxMUQ2xpZW50MTgxNUNlcnQyN2ZhMTMwggIiMA0GCSqGSIb3DQEB
AQUAA4ICDwAwggIKAoICAQDE4+HIMFZnSzMCy7y4he4yC/4jNMo85NLt8clQTiKF
dW3gFg1InAsdWza/xKsZF7AhxHnuQMYHN3iIOVKr9agcqnfSGbx5dWi8/GbvOWZj
6WEXrEQY++U7kck8ACROrir2oLE3Nub25azQwgdS6C8Z5V27FuI7cXch+/SrZzw0
WiGt7n65p/f0W8a0/+ufB/eDPWLAJguGl6GGnnKAjkR+R8u5HRh1lmAtq9pgx28T
ILZahozU6MoXdd01+QQwS0kyQ1J0jOIHHh/GdRp3dy8BdI42zY1tnTdqJkz85k6E
V3C9GTcnYdyW7jVKe4/kcjRqxJ7nMd9Sqa7gIlPPF47qHenymyH7iKevuUol0gdq
Nwvst28i639Dk0lFfKYkYoy94niizPggp6uzh89XtRFrVtC9brMSDCrt6/l5cvqt
xn2SYPOEXmFhoB8aYmXZLU1dcHShO6GGRsrZuU/xvY97brxAtgO5AOPHP6QMG3yE
TACJEn37JUYf52z3fbb8d9pGzO900WY1vagoxJLjG0Nr7FUFP8NUGFg73WTEiY3y
dWgPrH1VAtvlCg5jzf+4lYSQ8KUJ0QDBgzC8TpT2wYFmxIt0EOfwC4+bVzz0W6XO
pytyP26QOkMorsf5dY7tA9TJbBcbsLrCtmnCmeN0ql2Gusujq8q1hXu7PlZKDPXc
QwIDAQABo4IBYzCCAV8wCQYDVR0TBAIwADAtBglghkgBhvhCAQ0EIBYeRWFzeS1S
U0EgR2VuZXJhdGVkIENlcnRpZmljYXRlMB0GA1UdDgQWBBSIGWy0tLx6sDG6pyo3
6x3B7GNxnzCB4QYDVR0jBIHZMIHWgBQSzWAE0qCAnnDtxpm4eyzGUv0ZoaGBsqSB
rzCBrDELMAkGA1UEBhMCVVMxCzAJBgNVBAgTAk9IMREwDwYDVQQHEwhDb2x1bWJ1
czESMBAGA1UEChMJVmlraW5nVlBOMR0wGwYDVQQLExRNeU9yZ2FuaXphdGlvbmFs
VW5pdDEVMBMGA1UEAxMMVmlraW5nVlBOIENBMRAwDgYDVQQpEwdFYXN5UlNBMSEw
HwYJKoZIhvcNAQkBFhJtZUBteWhvc3QubXlkb21haW6CCQDPNYXugL8qPjATBgNV
HSUEDDAKBggrBgEFBQcDAjALBgNVHQ8EBAMCB4AwDQYJKoZIhvcNAQEEBQADggIB
AHfHDAO60ey2QNptBQOMbZ5DYttEcEE2dvUzI3bSC0uYMujekZizKx0A+ZOotLkJ
eFnhs5L2vaZV2yZUkF24LpNIp7XKwWevujBbBDRModeT4ePNB2nTEUhlAmlsUDPw
Ohsu+gUgSDWdh19FkhHEbIfWQEQ8DTx0CBfvhnOOpJdtObcd03hwteTlOFnM/lov
Z6uu3avEM7TcLcyS8zId4/8fIvMqfazDn0+9cQrOd1yrTlQClJeeavu8X3sQWeAq
WOfZmnH9PHrBSCe/i6CYw1k7U1zp+uct00ci7qrMZD/QmvN4AI61DZ2rQCdSi5HJ
DsvvF2uv8bvtr7DUACk5EhS8GGc7X/mWLstDnFylodNkvEyL1XabBbHe9D/uHeKp
sM8gBN+4S27zl3NRaFMBTMGgGb6VBI+RjTtK0W5cIZMgnZsb2fqYABnIOplDg3RK
CvCCj2QWTyGtwQ1A5eiGQuwHiwXMfQzazDudnLceuE6CzVOl7psWneQECez2t4SQ
AGJfnLmpwYVgsrOeLkabmxleCDw8nc9sFzlDr/hY7ceTxCSkYaHq8WVor+LTy6az
8t8wSqGCvRUY8MXBfu+U5zGbZRIGvFJ6vfJiJOPyk75z0FieEv2jPhs7mmwKNHEa
mPl3W5z/XwJEgN0u4lGbDqA8r8uTrIljIiDpgA6l+ENF
-----END CERTIFICATE-----
