Certificate:
    Data:
        Version: 3 (0x2)
        Serial Number: 5904 (0x1710)
    Signature Algorithm: md5WithRSAEncryption
        Issuer: C=US, ST=OH, L=Columbus, O=VikingVPN, OU=MyOrganizationalUnit, CN=VikingVPN CA/name=EasyRSA/emailAddress=me@myhost.mydomain
        Validity
            Not Before: Jul 23 18:59:59 2015 GMT
            Not After : Jul 20 18:59:59 2025 GMT
        Subject: CN=Client1834Cert9a0e69
        Subject Public Key Info:
            Public Key Algorithm: rsaEncryption
                Public-Key: (4096 bit)
                Modulus:
                    00:ab:49:46:1d:cc:5b:9e:84:ea:f0:8f:ea:7d:bc:
                    8d:3e:cf:2a:0e:a7:92:f8:83:13:c0:e7:26:7e:14:
                    52:a0:1e:2b:9e:f9:54:d4:ec:ae:b2:4f:72:40:fe:
                    66:c2:d5:d7:89:ec:0e:1a:36:f7:db:9c:58:fe:b5:
                    88:c8:aa:72:cd:b3:9b:e9:86:cd:9d:3a:bf:fd:ca:
                    45:06:ee:3b:01:dd:dd:ba:81:15:8b:98:be:ce:8b:
                    b4:70:a4:60:45:03:03:90:dd:e5:65:8e:e8:3a:6d:
                    50:b2:be:95:fa:de:f9:80:7e:9a:17:d0:8b:8d:a9:
                    46:fc:5a:af:39:be:5f:42:5d:f4:4f:b3:9e:5c:c9:
                    cd:53:ba:99:35:d9:f6:a1:d7:9a:b9:d5:35:c8:74:
                    36:2b:fe:7c:64:27:6b:59:0a:6a:c4:bb:1a:c8:35:
                    63:c9:e7:33:51:3d:ed:dd:70:a1:88:8f:6f:a9:cc:
                    30:1a:10:c9:a7:9a:e7:03:46:eb:c0:42:2f:da:c9:
                    13:f2:50:50:a3:5b:b9:ed:d8:a8:a9:45:63:d4:68:
                    65:42:00:a2:22:b1:9a:e3:c2:2e:66:6e:64:ae:94:
                    bf:45:e4:ff:cd:99:5d:29:ec:3c:0a:79:b2:0b:b0:
                    84:b1:52:db:2e:e5:0d:40:96:ca:a1:2d:3c:a7:4f:
                    3c:12:e6:57:b2:37:1e:95:50:98:d9:49:aa:ef:6b:
                    f3:ac:0e:0a:cf:5d:c6:9a:42:7d:be:d4:c6:85:ad:
                    f4:3f:c2:e2:2d:20:16:ca:9d:4a:ee:ab:12:1c:52:
                    74:d4:ca:fd:70:f2:5e:a9:e7:84:99:14:58:d2:18:
                    a2:01:3c:de:bc:a9:25:ca:01:16:74:9a:bd:94:15:
                    8c:37:2e:53:20:e8:06:7d:ce:fc:4b:b9:1b:0e:a3:
                    4c:5e:05:07:92:27:85:2d:46:fa:74:6f:72:5e:0b:
                    c0:24:37:4f:b4:ef:13:a6:bd:d9:1c:ad:cf:96:d2:
                    22:de:cb:8f:f5:7d:14:15:ac:a4:d3:81:3f:3c:07:
                    f2:8d:48:dc:97:70:0d:9c:e0:fd:42:00:aa:ca:bb:
                    2c:7a:8f:77:ee:e3:fa:a3:11:2a:7a:c9:ed:09:c7:
                    7c:92:ad:7b:19:d3:95:6e:ad:98:fa:f1:4f:f5:2c:
                    22:32:e7:81:71:62:2c:f3:2e:13:88:78:71:81:e9:
                    2b:99:d2:a1:3d:c2:f3:29:2a:7e:7d:1a:dd:f2:7d:
                    07:05:ba:4b:e0:a4:d7:b7:eb:20:fd:9b:08:59:57:
                    f2:a4:4e:ce:6f:b7:c4:ab:34:f7:50:ae:17:92:66:
                    cd:09:b4:6f:b8:93:54:1c:89:81:19:78:44:03:df:
                    b1:74:37
                Exponent: 65537 (0x10001)
        X509v3 extensions:
            X509v3 Basic Constraints: 
                CA:FALSE
            Netscape Comment: 
                Easy-RSA Generated Certificate
            X509v3 Subject Key Identifier: 
                C6:D9:9C:25:53:00:48:4B:87:96:6C:C0:52:8F:8D:1C:77:F5:8D:93
            X509v3 Authority Key Identifier: 
                keyid:12:CD:60:04:D2:A0:80:9E:70:ED:C6:99:B8:7B:2C:C6:52:FD:19:A1
                DirName:/C=US/ST=OH/L=Columbus/O=VikingVPN/OU=MyOrganizationalUnit/CN=VikingVPN CA/name=EasyRSA/emailAddress=me@myhost.mydomain
                serial:CF:35:85:EE:80:BF:2A:3E

            X509v3 Extended Key Usage: 
                TLS Web Client Authentication
            X509v3 Key Usage: 
                Digital Signature
    Signature Algorithm: md5WithRSAEncryption
         51:c5:dc:5f:0c:20:b3:f0:da:04:ae:40:4f:83:84:73:d6:2e:
         93:16:04:2f:70:66:6b:b1:5e:35:5c:35:6b:b3:a9:8a:bc:f9:
         1b:0f:df:67:8a:08:8e:cc:c4:23:a4:8a:42:62:53:2e:40:73:
         3e:b3:d6:2a:ff:58:98:c3:6b:af:df:23:bc:00:61:95:35:d5:
         17:d5:14:0d:e5:6b:8b:2a:c6:a7:8b:cd:b5:12:f5:02:e1:a0:
         1a:2c:65:98:0b:51:a2:f4:c5:39:e6:d3:55:7d:bb:90:3f:d8:
         3c:73:85:2a:66:00:ac:c9:59:eb:90:1d:b0:86:e2:db:e1:d3:
         b7:e6:b8:cd:22:ad:ae:93:82:b7:50:3d:a6:51:a0:b3:47:4b:
         08:2f:7b:79:0e:c9:4c:11:98:69:95:6a:65:30:7b:7c:81:87:
         87:72:78:b9:ff:5b:b1:52:58:51:03:9e:fd:02:f4:e4:e5:92:
         90:ff:65:84:f1:97:35:f5:31:0c:ac:2a:bf:b2:69:ae:72:69:
         ab:17:72:0b:1a:2b:d9:9c:42:f0:1f:c7:f8:f3:78:f9:bc:30:
         d1:c8:9e:af:a3:b7:43:21:db:11:f7:12:5b:39:fd:62:d3:8e:
         46:9a:cf:68:e5:30:4a:c6:2f:27:1a:24:c8:c2:b3:52:75:30:
         7c:6e:f7:87:d0:97:7c:9c:4d:a9:06:67:57:71:df:64:3e:59:
         67:89:ed:8e:a9:fc:20:dc:f4:41:90:f7:04:28:48:8e:11:5a:
         84:27:a6:7b:90:95:cb:f3:70:83:55:ae:b5:4e:e8:b2:50:52:
         ad:03:98:68:c2:d6:90:44:aa:65:60:2f:5a:c7:cf:eb:50:54:
         ec:a1:33:af:c0:6c:e1:1b:af:2d:57:79:84:96:29:0f:d2:cc:
         6c:5d:72:87:42:47:c6:96:7c:06:e3:80:66:28:0f:8f:c1:70:
         0e:60:36:90:d2:3b:b2:0a:24:37:c3:03:44:43:c8:eb:a9:71:
         ca:d7:32:eb:fb:30:a8:a3:65:c4:33:0b:b6:c3:55:cd:da:2d:
         13:30:7b:64:c1:ae:41:6d:e7:33:91:4e:3a:0d:db:b8:38:2c:
         08:06:34:70:70:4f:0e:ea:79:f7:fe:a5:ec:57:10:b7:2b:2e:
         cb:3b:65:e8:e5:74:fa:9b:24:e9:3d:32:86:4c:81:1b:eb:e5:
         22:2d:5f:d8:72:f9:9a:db:43:1b:de:f4:d9:80:e8:4c:0a:6e:
         cf:93:64:a3:e7:d7:53:5a:16:3e:8b:e7:70:3e:70:31:7c:49:
         bd:95:0e:d0:b9:10:f2:a5:b5:32:66:f3:5f:71:5f:b2:2e:7f:
         d5:fe:73:da:31:67:c8:89
-----BEGIN CERTIFICATE-----
MIIGrTCCBJWgAwIBAgICFxAwDQYJKoZIhvcNAQEEBQAwgawxCzAJBgNVBAYTAlVT
MQswCQYDVQQIEwJPSDERMA8GA1UEBxMIQ29sdW1idXMxEjAQBgNVBAoTCVZpa2lu
Z1ZQTjEdMBsGA1UECxMUTXlPcmdhbml6YXRpb25hbFVuaXQxFTATBgNVBAMTDFZp
a2luZ1ZQTiBDQTEQMA4GA1UEKRMHRWFzeVJTQTEhMB8GCSqGSIb3DQEJARYSbWVA
bXlob3N0Lm15ZG9tYWluMB4XDTE1MDcyMzE4NTk1OVoXDTI1MDcyMDE4NTk1OVow
HzEdMBsGA1UEAxMUQ2xpZW50MTgzNENlcnQ5YTBlNjkwggIiMA0GCSqGSIb3DQEB
AQUAA4ICDwAwggIKAoICAQCrSUYdzFuehOrwj+p9vI0+zyoOp5L4gxPA5yZ+FFKg
Hiue+VTU7K6yT3JA/mbC1deJ7A4aNvfbnFj+tYjIqnLNs5vphs2dOr/9ykUG7jsB
3d26gRWLmL7Oi7RwpGBFAwOQ3eVljug6bVCyvpX63vmAfpoX0IuNqUb8Wq85vl9C
XfRPs55cyc1Tupk12fah15q51TXIdDYr/nxkJ2tZCmrEuxrINWPJ5zNRPe3dcKGI
j2+pzDAaEMmnmucDRuvAQi/ayRPyUFCjW7nt2KipRWPUaGVCAKIisZrjwi5mbmSu
lL9F5P/NmV0p7DwKebILsISxUtsu5Q1AlsqhLTynTzwS5leyNx6VUJjZSarva/Os
DgrPXcaaQn2+1MaFrfQ/wuItIBbKnUruqxIcUnTUyv1w8l6p54SZFFjSGKIBPN68
qSXKARZ0mr2UFYw3LlMg6AZ9zvxLuRsOo0xeBQeSJ4UtRvp0b3JeC8AkN0+07xOm
vdkcrc+W0iLey4/1fRQVrKTTgT88B/KNSNyXcA2c4P1CAKrKuyx6j3fu4/qjESp6
ye0Jx3ySrXsZ05VurZj68U/1LCIy54FxYizzLhOIeHGB6SuZ0qE9wvMpKn59Gt3y
fQcFukvgpNe36yD9mwhZV/KkTs5vt8SrNPdQrheSZs0JtG+4k1QciYEZeEQD37F0
NwIDAQABo4IBYzCCAV8wCQYDVR0TBAIwADAtBglghkgBhvhCAQ0EIBYeRWFzeS1S
U0EgR2VuZXJhdGVkIENlcnRpZmljYXRlMB0GA1UdDgQWBBTG2ZwlUwBIS4eWbMBS
j40cd/WNkzCB4QYDVR0jBIHZMIHWgBQSzWAE0qCAnnDtxpm4eyzGUv0ZoaGBsqSB
rzCBrDELMAkGA1UEBhMCVVMxCzAJBgNVBAgTAk9IMREwDwYDVQQHEwhDb2x1bWJ1
czESMBAGA1UEChMJVmlraW5nVlBOMR0wGwYDVQQLExRNeU9yZ2FuaXphdGlvbmFs
VW5pdDEVMBMGA1UEAxMMVmlraW5nVlBOIENBMRAwDgYDVQQpEwdFYXN5UlNBMSEw
HwYJKoZIhvcNAQkBFhJtZUBteWhvc3QubXlkb21haW6CCQDPNYXugL8qPjATBgNV
HSUEDDAKBggrBgEFBQcDAjALBgNVHQ8EBAMCB4AwDQYJKoZIhvcNAQEEBQADggIB
AFHF3F8MILPw2gSuQE+DhHPWLpMWBC9wZmuxXjVcNWuzqYq8+RsP32eKCI7MxCOk
ikJiUy5Acz6z1ir/WJjDa6/fI7wAYZU11RfVFA3la4sqxqeLzbUS9QLhoBosZZgL
UaL0xTnm01V9u5A/2DxzhSpmAKzJWeuQHbCG4tvh07fmuM0ira6TgrdQPaZRoLNH
Swgve3kOyUwRmGmVamUwe3yBh4dyeLn/W7FSWFEDnv0C9OTlkpD/ZYTxlzX1MQys
Kr+yaa5yaasXcgsaK9mcQvAfx/jzePm8MNHInq+jt0Mh2xH3Els5/WLTjkaaz2jl
MErGLycaJMjCs1J1MHxu94fQl3ycTakGZ1dx32Q+WWeJ7Y6p/CDc9EGQ9wQoSI4R
WoQnpnuQlcvzcINVrrVO6LJQUq0DmGjC1pBEqmVgL1rHz+tQVOyhM6/AbOEbry1X
eYSWKQ/SzGxdcodCR8aWfAbjgGYoD4/BcA5gNpDSO7IKJDfDA0RDyOupccrXMuv7
MKijZcQzC7bDVc3aLRMwe2TBrkFt5zORTjoN27g4LAgGNHBwTw7qeff+pexXELcr
Lss7ZejldPqbJOk9MoZMgRvr5SItX9hy+ZrbQxve9NmA6EwKbs+TZKPn11NaFj6L
53A+cDF8Sb2VDtC5EPKltTJm819xX7Iuf9X+c9oxZ8iJ
-----END CERTIFICATE-----
