Certificate:
    Data:
        Version: 3 (0x2)
        Serial Number: 5912 (0x1718)
    Signature Algorithm: md5WithRSAEncryption
        Issuer: C=US, ST=OH, L=Columbus, O=VikingVPN, OU=MyOrganizationalUnit, CN=VikingVPN CA/name=EasyRSA/emailAddress=me@myhost.mydomain
        Validity
            Not Before: Jul 24 19:14:02 2015 GMT
            Not After : Jul 21 19:14:02 2025 GMT
        Subject: CN=Client1852Cert2bb253
        Subject Public Key Info:
            Public Key Algorithm: rsaEncryption
                Public-Key: (4096 bit)
                Modulus:
                    00:b4:1b:4c:f7:9e:4f:a8:95:5d:2e:a2:c9:3c:3c:
                    56:fc:9c:4c:9f:09:4c:6f:2c:fd:91:3d:79:a0:92:
                    7f:a9:6e:a3:31:dc:55:ff:cf:8b:b8:46:0f:d9:1b:
                    bd:21:71:bd:66:46:bf:bc:ce:2d:59:05:a4:49:ef:
                    67:a1:fa:5a:27:e6:70:03:c5:90:cc:2d:74:4a:8c:
                    da:26:01:1a:34:4f:f8:27:fa:06:a7:66:c6:f7:a9:
                    57:3c:bb:ea:93:47:09:0e:1b:64:f9:40:a5:fe:7b:
                    1b:76:33:04:79:3c:41:47:aa:1f:bc:f8:43:fa:66:
                    8f:7f:f3:b7:f6:44:bd:2f:1e:8b:97:86:4f:09:e2:
                    53:e4:a2:fc:a8:95:e3:6e:af:29:03:2f:a2:af:86:
                    fa:bd:b9:b6:9d:0b:61:25:45:6f:33:ea:e9:8a:1c:
                    ff:e0:e3:7c:f7:00:d2:78:a4:20:59:b1:74:ea:01:
                    92:91:18:2b:fe:dc:d5:3f:5a:80:f2:3a:ab:81:b0:
                    8e:6b:4d:5e:c8:48:38:07:d6:6a:6d:ef:9d:fe:51:
                    9a:b9:9c:9b:21:de:48:f5:28:16:c7:b3:b7:4b:7d:
                    91:1d:0f:91:77:18:69:71:0f:b8:e1:06:84:19:e1:
                    e2:a2:0d:d6:e4:5c:0b:6f:9f:4f:bb:84:ec:c2:d2:
                    4b:56:9a:d5:ca:a5:14:29:07:a1:bd:07:2a:a1:17:
                    a7:8b:56:c5:9d:b1:56:3f:69:eb:bd:5a:b0:7b:2a:
                    89:fe:c4:af:22:09:7e:3c:c1:5a:81:d4:3f:6b:51:
                    e7:97:1b:d3:cf:fc:a9:b8:47:bc:a4:01:b2:d5:4f:
                    c3:ec:00:43:cb:4a:5a:e9:d2:fe:13:53:e5:dd:53:
                    b3:fd:22:18:0f:15:bc:22:72:53:71:da:7e:c7:c5:
                    96:f8:4b:cb:b5:7c:1e:db:e4:b5:da:99:27:d7:8d:
                    49:e5:23:84:38:5d:79:33:9f:1e:41:0e:fe:64:e9:
                    79:87:57:98:6d:b6:4d:f3:2a:3a:e1:29:93:23:09:
                    98:ce:e1:74:b2:82:d0:20:f3:7b:f6:d4:80:d5:85:
                    2f:46:58:d8:ad:54:fc:38:9b:c3:43:6e:05:1c:8c:
                    4b:de:14:87:18:98:c0:47:2d:d1:92:ad:ce:1c:ea:
                    69:30:57:00:ad:e5:b1:34:8e:5a:59:e3:05:50:43:
                    27:4e:7e:1d:5e:2b:17:2f:53:e8:cb:6b:ca:4b:54:
                    7a:6e:4e:1a:f9:37:b4:0c:92:77:ff:ff:74:77:e1:
                    02:ab:d1:16:df:0e:98:c4:32:7c:90:7e:9b:90:74:
                    67:ce:35:d0:01:b1:9a:ea:15:2d:0e:46:ce:8b:c4:
                    c6:66:7b
                Exponent: 65537 (0x10001)
        X509v3 extensions:
            X509v3 Basic Constraints: 
                CA:FALSE
            Netscape Comment: 
                Easy-RSA Generated Certificate
            X509v3 Subject Key Identifier: 
                3D:98:AA:5F:AE:64:AE:C1:7A:0F:5A:45:F2:CF:CA:B4:0B:8E:6A:29
            X509v3 Authority Key Identifier: 
                keyid:12:CD:60:04:D2:A0:80:9E:70:ED:C6:99:B8:7B:2C:C6:52:FD:19:A1
                DirName:/C=US/ST=OH/L=Columbus/O=VikingVPN/OU=MyOrganizationalUnit/CN=VikingVPN CA/name=EasyRSA/emailAddress=me@myhost.mydomain
                serial:CF:35:85:EE:80:BF:2A:3E

            X509v3 Extended Key Usage: 
                TLS Web Client Authentication
            X509v3 Key Usage: 
                Digital Signature
    Signature Algorithm: md5WithRSAEncryption
         2d:35:41:4a:1e:1e:1f:6f:68:3f:49:d1:f5:d9:db:fc:67:5c:
         55:2c:e6:a1:2e:59:40:df:e5:f6:c9:eb:05:34:c9:78:0e:43:
         c5:dd:be:a5:93:74:a5:c4:7e:87:28:ec:b8:7c:a9:a7:19:49:
         a1:3b:16:5c:ec:9c:80:d4:c3:c6:17:82:09:65:37:29:90:c2:
         36:2d:a4:7d:0a:9c:9c:38:ec:cf:06:04:48:59:83:64:59:eb:
         e0:01:01:d2:12:db:e5:57:56:36:8c:61:6f:86:10:f0:3e:2a:
         89:e5:c8:a3:0b:34:4b:9e:d7:60:83:ee:79:d8:13:14:f5:ed:
         9a:30:f4:a4:23:81:33:25:6a:1e:56:3a:f8:f8:f1:e3:99:d8:
         a2:e8:7a:00:da:f5:fb:ac:c4:a0:39:81:5b:08:39:ca:d3:3a:
         fa:17:3d:86:c1:8e:f0:91:6f:39:08:8d:e4:e2:c8:91:6e:e1:
         8a:66:36:9c:0a:ff:e5:f3:c8:8a:de:a7:d1:80:fa:2e:df:06:
         77:93:93:39:3f:c3:48:7d:e9:c7:8a:75:40:1e:f3:1c:95:a0:
         da:d8:f4:64:c7:29:44:f9:b3:46:e4:4d:7d:06:25:4f:31:3c:
         64:0e:e3:6f:36:af:aa:76:08:c8:f4:de:b3:8d:53:34:b4:aa:
         ed:85:31:27:bb:aa:b0:60:8f:89:48:ae:88:93:ce:df:9f:9f:
         5e:52:e3:95:78:93:b5:96:51:78:1c:63:5e:20:33:9e:5b:5f:
         aa:bb:7f:5f:f4:dc:01:96:56:71:22:bf:54:30:82:2f:1f:47:
         2e:59:34:e3:38:67:6f:ce:0a:cb:e9:90:c2:3d:21:25:e3:5c:
         18:66:97:d4:f0:4d:5f:dc:3f:ea:e5:37:a4:5e:06:9b:3d:32:
         4b:11:ac:a3:40:16:d4:73:4b:58:6a:31:a4:2a:6c:67:d9:99:
         43:d4:6c:64:5b:97:69:80:49:38:65:d6:4f:eb:09:ac:b7:bc:
         64:3b:c6:83:6a:d7:85:da:42:2d:12:66:91:cb:57:59:df:d8:
         e4:93:3f:b0:9a:31:da:27:e6:c4:26:03:77:43:2d:88:c7:e4:
         12:27:23:95:5e:be:2b:ff:71:fb:94:f6:e8:cb:ba:8d:05:4b:
         ee:ca:02:f0:aa:b5:4b:92:fb:53:3f:67:88:06:62:9b:9a:a1:
         cc:33:24:95:a4:4e:f2:5b:6f:0a:50:7d:91:ba:cb:56:fb:f8:
         28:c2:d9:ee:65:45:86:16:6c:bd:e7:b4:0d:0a:44:fa:5a:93:
         55:1f:a1:d9:5c:7c:ec:9f:02:3f:ca:73:28:10:4e:83:93:5d:
         c2:55:7b:1e:82:ff:dd:c0
-----BEGIN CERTIFICATE-----
MIIGrTCCBJWgAwIBAgICFxgwDQYJKoZIhvcNAQEEBQAwgawxCzAJBgNVBAYTAlVT
MQswCQYDVQQIEwJPSDERMA8GA1UEBxMIQ29sdW1idXMxEjAQBgNVBAoTCVZpa2lu
Z1ZQTjEdMBsGA1UECxMUTXlPcmdhbml6YXRpb25hbFVuaXQxFTATBgNVBAMTDFZp
a2luZ1ZQTiBDQTEQMA4GA1UEKRMHRWFzeVJTQTEhMB8GCSqGSIb3DQEJARYSbWVA
bXlob3N0Lm15ZG9tYWluMB4XDTE1MDcyNDE5MTQwMloXDTI1MDcyMTE5MTQwMlow
HzEdMBsGA1UEAxMUQ2xpZW50MTg1MkNlcnQyYmIyNTMwggIiMA0GCSqGSIb3DQEB
AQUAA4ICDwAwggIKAoICAQC0G0z3nk+olV0uosk8PFb8nEyfCUxvLP2RPXmgkn+p
bqMx3FX/z4u4Rg/ZG70hcb1mRr+8zi1ZBaRJ72eh+lon5nADxZDMLXRKjNomARo0
T/gn+ganZsb3qVc8u+qTRwkOG2T5QKX+ext2MwR5PEFHqh+8+EP6Zo9/87f2RL0v
HouXhk8J4lPkovyoleNurykDL6Kvhvq9ubadC2ElRW8z6umKHP/g43z3ANJ4pCBZ
sXTqAZKRGCv+3NU/WoDyOquBsI5rTV7ISDgH1mpt753+UZq5nJsh3kj1KBbHs7dL
fZEdD5F3GGlxD7jhBoQZ4eKiDdbkXAtvn0+7hOzC0ktWmtXKpRQpB6G9ByqhF6eL
VsWdsVY/aeu9WrB7Kon+xK8iCX48wVqB1D9rUeeXG9PP/Km4R7ykAbLVT8PsAEPL
Slrp0v4TU+XdU7P9IhgPFbwiclNx2n7HxZb4S8u1fB7b5LXamSfXjUnlI4Q4XXkz
nx5BDv5k6XmHV5httk3zKjrhKZMjCZjO4XSygtAg83v21IDVhS9GWNitVPw4m8ND
bgUcjEveFIcYmMBHLdGSrc4c6mkwVwCt5bE0jlpZ4wVQQydOfh1eKxcvU+jLa8pL
VHpuThr5N7QMknf//3R34QKr0RbfDpjEMnyQfpuQdGfONdABsZrqFS0ORs6LxMZm
ewIDAQABo4IBYzCCAV8wCQYDVR0TBAIwADAtBglghkgBhvhCAQ0EIBYeRWFzeS1S
U0EgR2VuZXJhdGVkIENlcnRpZmljYXRlMB0GA1UdDgQWBBQ9mKpfrmSuwXoPWkXy
z8q0C45qKTCB4QYDVR0jBIHZMIHWgBQSzWAE0qCAnnDtxpm4eyzGUv0ZoaGBsqSB
rzCBrDELMAkGA1UEBhMCVVMxCzAJBgNVBAgTAk9IMREwDwYDVQQHEwhDb2x1bWJ1
czESMBAGA1UEChMJVmlraW5nVlBOMR0wGwYDVQQLExRNeU9yZ2FuaXphdGlvbmFs
VW5pdDEVMBMGA1UEAxMMVmlraW5nVlBOIENBMRAwDgYDVQQpEwdFYXN5UlNBMSEw
HwYJKoZIhvcNAQkBFhJtZUBteWhvc3QubXlkb21haW6CCQDPNYXugL8qPjATBgNV
HSUEDDAKBggrBgEFBQcDAjALBgNVHQ8EBAMCB4AwDQYJKoZIhvcNAQEEBQADggIB
AC01QUoeHh9vaD9J0fXZ2/xnXFUs5qEuWUDf5fbJ6wU0yXgOQ8XdvqWTdKXEfoco
7Lh8qacZSaE7FlzsnIDUw8YXggllNymQwjYtpH0KnJw47M8GBEhZg2RZ6+ABAdIS
2+VXVjaMYW+GEPA+KonlyKMLNEue12CD7nnYExT17Zow9KQjgTMlah5WOvj48eOZ
2KLoegDa9fusxKA5gVsIOcrTOvoXPYbBjvCRbzkIjeTiyJFu4YpmNpwK/+XzyIre
p9GA+i7fBneTkzk/w0h96ceKdUAe8xyVoNrY9GTHKUT5s0bkTX0GJU8xPGQO4282
r6p2CMj03rONUzS0qu2FMSe7qrBgj4lIroiTzt+fn15S45V4k7WWUXgcY14gM55b
X6q7f1/03AGWVnEiv1Qwgi8fRy5ZNOM4Z2/OCsvpkMI9ISXjXBhml9TwTV/cP+rl
N6ReBps9MksRrKNAFtRzS1hqMaQqbGfZmUPUbGRbl2mASThl1k/rCay3vGQ7xoNq
14XaQi0SZpHLV1nf2OSTP7CaMdon5sQmA3dDLYjH5BInI5Veviv/cfuU9ujLuo0F
S+7KAvCqtUuS+1M/Z4gGYpuaocwzJJWkTvJbbwpQfZG6y1b7+CjC2e5lRYYWbL3n
tA0KRPpak1UfodlcfOyfAj/KcygQToOTXcJVex6C/93A
-----END CERTIFICATE-----
