Certificate:
    Data:
        Version: 3 (0x2)
        Serial Number: 5963 (0x174b)
    Signature Algorithm: md5WithRSAEncryption
        Issuer: C=US, ST=OH, L=Columbus, O=VikingVPN, OU=MyOrganizationalUnit, CN=VikingVPN CA/name=EasyRSA/emailAddress=me@myhost.mydomain
        Validity
            Not Before: Aug  3 15:05:51 2015 GMT
            Not After : Jul 31 15:05:51 2025 GMT
        Subject: CN=Client1803Certbb963a
        Subject Public Key Info:
            Public Key Algorithm: rsaEncryption
                Public-Key: (4096 bit)
                Modulus:
                    00:c3:b3:27:e5:a9:a1:30:f3:f0:33:24:e4:34:1d:
                    ec:29:5f:65:93:19:47:09:0e:62:51:bf:70:96:d2:
                    23:45:c5:cf:ed:c3:69:c6:52:eb:ac:ee:a9:02:27:
                    6b:5f:43:a6:ec:6f:49:e3:bb:37:34:fb:e8:61:7c:
                    88:00:32:2c:8d:df:16:d9:6f:40:dd:b1:b5:0d:30:
                    43:82:e7:bf:7a:b9:b7:d4:cd:d8:85:f0:ed:7b:e6:
                    d6:c3:fb:3f:f6:14:ff:04:fb:8e:5b:49:8a:75:c9:
                    a6:57:e2:62:f2:ab:26:15:6b:a3:10:15:42:50:66:
                    d4:8f:e5:d3:0e:10:49:7c:68:33:92:6a:f2:e9:d8:
                    b3:fe:18:60:3f:39:13:a0:91:c6:c2:7b:72:cf:9f:
                    be:2f:ef:46:e6:3e:55:c2:4d:e3:44:39:d9:b7:74:
                    5e:ac:46:c4:ea:f1:ce:a8:12:eb:c4:4e:54:8a:71:
                    06:ef:44:60:4b:67:a9:21:5a:82:a7:f4:94:d3:4d:
                    b5:cc:99:ee:a4:5c:57:19:3b:eb:73:33:dd:dc:b5:
                    31:ff:8a:7f:2f:89:8e:a4:46:67:ba:c2:a6:0e:72:
                    49:29:a1:bc:3f:ae:30:9a:be:26:5a:5e:81:f7:9e:
                    60:67:73:53:f6:ca:26:06:4b:61:f6:aa:79:14:18:
                    7f:d1:98:e4:8b:8c:cd:1f:88:70:ad:04:b0:01:0b:
                    0d:4a:b3:62:02:77:1a:6c:01:97:24:7d:da:86:ec:
                    46:f9:74:97:11:e6:5b:7b:bc:c6:02:87:5d:21:73:
                    87:5d:f1:0b:53:29:33:9a:0c:89:9c:6e:4a:ba:61:
                    03:18:8b:7b:12:e3:44:1a:c2:4b:cb:be:83:c8:fe:
                    f2:d5:85:a3:3e:db:f4:ad:60:6d:87:10:11:f2:fb:
                    5e:75:78:55:c3:84:d3:64:5c:8e:12:43:f3:ff:21:
                    fd:8d:71:c8:34:18:2a:ee:e6:76:c2:5d:1b:1a:91:
                    8f:37:3a:69:33:27:17:24:66:65:b1:ba:6a:58:2c:
                    fc:b8:fa:29:e1:64:0c:a3:c3:db:f0:02:13:43:90:
                    e8:53:5d:21:6e:1c:fd:cf:59:39:de:4c:e5:c2:3a:
                    0b:73:3a:0f:fe:f7:61:bf:7f:40:5f:b0:96:0a:50:
                    de:e1:14:a4:cb:c5:c5:bb:82:da:25:a1:6b:3e:53:
                    61:85:46:c1:e8:bd:3f:ef:4f:0a:f6:be:e6:32:49:
                    b7:87:5e:0a:85:0c:da:43:a4:4d:a4:f4:09:16:7f:
                    84:a5:d8:0a:a1:cb:26:e6:af:37:3a:19:28:b7:9b:
                    5e:71:23:c9:1e:a2:9d:84:a7:2c:23:6d:af:5c:40:
                    ee:fe:89
                Exponent: 65537 (0x10001)
        X509v3 extensions:
            X509v3 Basic Constraints: 
                CA:FALSE
            Netscape Comment: 
                Easy-RSA Generated Certificate
            X509v3 Subject Key Identifier: 
                90:14:BA:11:75:A8:20:09:2B:F7:F9:C5:1D:5C:84:DC:D0:CC:95:CB
            X509v3 Authority Key Identifier: 
                keyid:12:CD:60:04:D2:A0:80:9E:70:ED:C6:99:B8:7B:2C:C6:52:FD:19:A1
                DirName:/C=US/ST=OH/L=Columbus/O=VikingVPN/OU=MyOrganizationalUnit/CN=VikingVPN CA/name=EasyRSA/emailAddress=me@myhost.mydomain
                serial:CF:35:85:EE:80:BF:2A:3E

            X509v3 Extended Key Usage: 
                TLS Web Client Authentication
            X509v3 Key Usage: 
                Digital Signature
    Signature Algorithm: md5WithRSAEncryption
         64:88:37:99:7a:e2:b7:33:31:2c:e9:50:0b:2a:ad:17:61:1b:
         6f:e0:f4:a0:c5:8a:dd:c6:7f:aa:90:1c:bd:7e:10:15:7c:35:
         3a:5e:6b:d2:20:84:69:08:1b:27:1d:46:14:8a:38:ea:17:39:
         11:7a:b3:07:6e:3d:0c:6b:b5:2a:21:be:0f:13:ff:e8:7f:9d:
         6f:a7:e3:c7:ab:7b:5f:b2:f6:db:16:2c:85:ca:20:5d:9c:a4:
         ec:97:07:ea:a2:c7:88:6b:d7:19:2b:f1:d8:7f:13:05:08:7c:
         0a:9f:25:0f:fc:8a:5f:33:4e:f0:4e:d9:c6:63:74:a0:c3:32:
         05:b9:60:eb:d3:95:0d:37:ba:a2:23:0c:23:92:ed:fa:85:e4:
         05:82:8d:42:3c:13:82:eb:6e:59:67:82:94:66:f7:3f:48:87:
         db:91:e0:b5:a7:c6:dc:45:e1:5f:f0:74:44:b1:ba:9e:e5:2d:
         47:e5:c8:d3:6d:00:6e:a2:a7:aa:0d:8b:20:61:ba:7f:75:cd:
         fd:5a:a7:3e:f0:77:91:e0:4c:43:3f:66:b4:81:4b:a0:a0:4c:
         50:59:96:3e:76:88:3c:8c:1a:46:00:1e:74:23:21:f1:94:9b:
         71:b4:7d:8e:cd:f8:d1:7e:fa:bf:45:b1:ef:86:1e:64:dd:f5:
         52:d9:a1:02:de:05:d4:ab:cc:d3:12:4f:69:15:63:b2:c5:c4:
         c2:29:67:18:7f:b7:0a:3d:d6:2b:69:09:15:00:83:1d:6c:b6:
         a7:14:8b:ab:fa:49:72:95:69:2e:08:00:bf:e2:71:93:a9:0c:
         2a:9d:da:8d:4f:82:5d:23:49:63:f0:35:7a:49:00:5a:0b:f8:
         ab:3c:60:62:d8:4e:2e:80:00:60:1c:7d:d3:66:f6:35:c0:ac:
         58:2b:68:82:a5:20:6c:fb:6e:80:f8:2e:13:0c:15:5b:ee:be:
         89:fa:40:61:fd:ec:4c:01:d5:78:ea:ba:f8:dc:79:c3:3b:b7:
         85:0f:af:f4:32:a8:0f:eb:58:24:e4:86:27:f7:20:0c:e6:ed:
         f1:50:5f:95:7c:83:17:63:72:65:6d:25:e8:21:6c:09:ce:e4:
         55:d4:b5:a0:17:05:06:36:6c:71:31:39:48:4d:54:12:07:13:
         4e:48:c5:c9:2a:6a:06:d2:12:7b:cd:da:ed:92:06:94:28:c2:
         4d:23:9a:6f:e6:c3:cf:56:ca:ae:0b:bc:2f:9d:20:fa:c8:9a:
         89:ca:58:73:a1:50:60:3c:fa:90:08:be:ad:da:db:99:a9:98:
         96:4b:29:95:0e:4f:e3:eb:51:c6:1d:56:e8:b6:b8:97:12:83:
         c9:a7:cd:79:78:0a:04:8b
-----BEGIN CERTIFICATE-----
MIIGrTCCBJWgAwIBAgICF0swDQYJKoZIhvcNAQEEBQAwgawxCzAJBgNVBAYTAlVT
MQswCQYDVQQIEwJPSDERMA8GA1UEBxMIQ29sdW1idXMxEjAQBgNVBAoTCVZpa2lu
Z1ZQTjEdMBsGA1UECxMUTXlPcmdhbml6YXRpb25hbFVuaXQxFTATBgNVBAMTDFZp
a2luZ1ZQTiBDQTEQMA4GA1UEKRMHRWFzeVJTQTEhMB8GCSqGSIb3DQEJARYSbWVA
bXlob3N0Lm15ZG9tYWluMB4XDTE1MDgwMzE1MDU1MVoXDTI1MDczMTE1MDU1MVow
HzEdMBsGA1UEAxMUQ2xpZW50MTgwM0NlcnRiYjk2M2EwggIiMA0GCSqGSIb3DQEB
AQUAA4ICDwAwggIKAoICAQDDsyflqaEw8/AzJOQ0HewpX2WTGUcJDmJRv3CW0iNF
xc/tw2nGUuus7qkCJ2tfQ6bsb0njuzc0++hhfIgAMiyN3xbZb0DdsbUNMEOC5796
ubfUzdiF8O175tbD+z/2FP8E+45bSYp1yaZX4mLyqyYVa6MQFUJQZtSP5dMOEEl8
aDOSavLp2LP+GGA/OROgkcbCe3LPn74v70bmPlXCTeNEOdm3dF6sRsTq8c6oEuvE
TlSKcQbvRGBLZ6khWoKn9JTTTbXMme6kXFcZO+tzM93ctTH/in8viY6kRme6wqYO
ckkpobw/rjCaviZaXoH3nmBnc1P2yiYGS2H2qnkUGH/RmOSLjM0fiHCtBLABCw1K
s2ICdxpsAZckfdqG7Eb5dJcR5lt7vMYCh10hc4dd8QtTKTOaDImcbkq6YQMYi3sS
40QawkvLvoPI/vLVhaM+2/StYG2HEBHy+151eFXDhNNkXI4SQ/P/If2Nccg0GCru
5nbCXRsakY83OmkzJxckZmWxumpYLPy4+inhZAyjw9vwAhNDkOhTXSFuHP3PWTne
TOXCOgtzOg/+92G/f0BfsJYKUN7hFKTLxcW7gtoloWs+U2GFRsHovT/vTwr2vuYy
SbeHXgqFDNpDpE2k9AkWf4Sl2Aqhyybmrzc6GSi3m15xI8keop2Epywjba9cQO7+
iQIDAQABo4IBYzCCAV8wCQYDVR0TBAIwADAtBglghkgBhvhCAQ0EIBYeRWFzeS1S
U0EgR2VuZXJhdGVkIENlcnRpZmljYXRlMB0GA1UdDgQWBBSQFLoRdaggCSv3+cUd
XITc0MyVyzCB4QYDVR0jBIHZMIHWgBQSzWAE0qCAnnDtxpm4eyzGUv0ZoaGBsqSB
rzCBrDELMAkGA1UEBhMCVVMxCzAJBgNVBAgTAk9IMREwDwYDVQQHEwhDb2x1bWJ1
czESMBAGA1UEChMJVmlraW5nVlBOMR0wGwYDVQQLExRNeU9yZ2FuaXphdGlvbmFs
VW5pdDEVMBMGA1UEAxMMVmlraW5nVlBOIENBMRAwDgYDVQQpEwdFYXN5UlNBMSEw
HwYJKoZIhvcNAQkBFhJtZUBteWhvc3QubXlkb21haW6CCQDPNYXugL8qPjATBgNV
HSUEDDAKBggrBgEFBQcDAjALBgNVHQ8EBAMCB4AwDQYJKoZIhvcNAQEEBQADggIB
AGSIN5l64rczMSzpUAsqrRdhG2/g9KDFit3Gf6qQHL1+EBV8NTpea9IghGkIGycd
RhSKOOoXORF6swduPQxrtSohvg8T/+h/nW+n48ere1+y9tsWLIXKIF2cpOyXB+qi
x4hr1xkr8dh/EwUIfAqfJQ/8il8zTvBO2cZjdKDDMgW5YOvTlQ03uqIjDCOS7fqF
5AWCjUI8E4LrbllngpRm9z9Ih9uR4LWnxtxF4V/wdESxup7lLUflyNNtAG6ip6oN
iyBhun91zf1apz7wd5HgTEM/ZrSBS6CgTFBZlj52iDyMGkYAHnQjIfGUm3G0fY7N
+NF++r9Fse+GHmTd9VLZoQLeBdSrzNMST2kVY7LFxMIpZxh/two91itpCRUAgx1s
tqcUi6v6SXKVaS4IAL/icZOpDCqd2o1Pgl0jSWPwNXpJAFoL+Ks8YGLYTi6AAGAc
fdNm9jXArFgraIKlIGz7boD4LhMMFVvuvon6QGH97EwB1XjquvjcecM7t4UPr/Qy
qA/rWCTkhif3IAzm7fFQX5V8gxdjcmVtJeghbAnO5FXUtaAXBQY2bHExOUhNVBIH
E05IxckqagbSEnvN2u2SBpQowk0jmm/mw89Wyq4LvC+dIPrImonKWHOhUGA8+pAI
vq3a25mpmJZLKZUOT+PrUcYdVui2uJcSg8mnzXl4CgSL
-----END CERTIFICATE-----
