Certificate:
    Data:
        Version: 3 (0x2)
        Serial Number: 6005 (0x1775)
    Signature Algorithm: md5WithRSAEncryption
        Issuer: C=US, ST=OH, L=Columbus, O=VikingVPN, OU=MyOrganizationalUnit, CN=VikingVPN CA/name=EasyRSA/emailAddress=me@myhost.mydomain
        Validity
            Not Before: Aug  4 21:35:29 2015 GMT
            Not After : Aug  1 21:35:29 2025 GMT
        Subject: CN=Client1711Cert87e391
        Subject Public Key Info:
            Public Key Algorithm: rsaEncryption
                Public-Key: (4096 bit)
                Modulus:
                    00:d8:5f:ad:cc:f1:ca:16:d2:1d:cc:7d:28:41:b7:
                    c7:08:55:53:07:28:7d:0d:1b:4d:54:0d:72:45:fc:
                    7e:fd:9c:d8:f1:8a:bb:aa:52:a5:de:3d:02:6c:f3:
                    44:f7:25:1d:74:db:45:fd:24:5c:9f:89:1d:14:ad:
                    8f:e6:80:b7:ed:fc:73:f3:07:86:ef:66:b2:4a:18:
                    c7:07:37:e1:0a:bb:25:dd:03:11:3f:fc:dd:1e:68:
                    87:d7:86:a6:d3:a6:34:bc:83:3d:20:d3:f8:6f:ca:
                    83:7c:36:f9:78:4c:3c:41:ee:88:fa:40:12:6e:cc:
                    f0:8c:1c:d4:b3:e3:fd:8a:e3:20:15:36:54:c9:ee:
                    8b:f2:b5:8a:da:84:7f:91:1d:7a:5d:07:f2:17:5a:
                    66:2e:5b:b3:2c:72:1d:c4:25:5d:2b:46:31:5f:c7:
                    40:e1:a5:8a:b8:ce:31:d0:6a:62:ec:5c:9f:60:32:
                    be:bd:5f:22:71:f5:89:07:48:94:f2:85:b9:ca:fb:
                    38:2c:ca:83:32:f9:a1:35:76:de:bc:0f:fd:64:54:
                    f7:b4:67:08:eb:ac:09:d9:b4:fe:0f:4f:a8:17:84:
                    2a:1a:3c:49:7e:07:05:8d:ef:40:62:23:01:7f:11:
                    41:d0:bd:42:d9:36:62:6e:38:a4:93:18:4e:eb:75:
                    55:9f:cb:93:f9:cd:c1:4b:55:eb:cb:02:84:d7:14:
                    0e:b7:42:86:67:70:98:20:82:30:7c:c6:2b:d7:3a:
                    d3:80:7a:98:43:43:4a:ab:01:4e:9c:a8:bb:da:bc:
                    42:93:9a:a9:13:9a:5e:54:57:b8:dd:f2:68:69:56:
                    89:e4:e8:f8:3f:a0:14:60:28:3c:2d:cd:70:9e:9e:
                    3b:53:05:b4:20:c6:05:b0:e2:b2:80:b6:99:7a:7a:
                    d7:5c:fe:c2:5b:92:a3:7e:bc:0c:dd:d2:05:9c:90:
                    f3:69:cd:01:6c:00:dd:91:d3:d6:44:d6:a5:44:53:
                    c8:64:6c:5e:cd:44:c1:be:fd:c0:30:50:02:72:18:
                    36:3e:61:f6:7f:d9:f9:f4:33:59:19:ff:e0:0a:97:
                    eb:aa:e0:5b:1f:37:5f:c9:0d:57:a2:9e:1b:e4:ba:
                    9d:28:ab:86:2c:b2:56:f3:4d:3c:6a:ba:a2:cc:1e:
                    d1:8a:cd:47:c0:3c:c6:1c:82:54:46:d0:f8:6c:d4:
                    b1:fe:41:67:4c:b8:53:c2:3c:5e:0f:64:7b:62:93:
                    8f:5b:a3:0d:7d:83:76:7b:4b:85:f3:a7:12:52:df:
                    4b:0f:ce:69:5d:da:95:7b:d0:26:1a:b5:55:1d:a8:
                    ce:28:ba:eb:6d:77:0e:85:28:80:99:9d:48:a3:1e:
                    37:f7:ab
                Exponent: 65537 (0x10001)
        X509v3 extensions:
            X509v3 Basic Constraints: 
                CA:FALSE
            Netscape Comment: 
                Easy-RSA Generated Certificate
            X509v3 Subject Key Identifier: 
                B6:CB:19:6A:7F:9F:00:97:82:A2:98:3B:A7:A2:CB:CD:94:6F:1B:83
            X509v3 Authority Key Identifier: 
                keyid:12:CD:60:04:D2:A0:80:9E:70:ED:C6:99:B8:7B:2C:C6:52:FD:19:A1
                DirName:/C=US/ST=OH/L=Columbus/O=VikingVPN/OU=MyOrganizationalUnit/CN=VikingVPN CA/name=EasyRSA/emailAddress=me@myhost.mydomain
                serial:CF:35:85:EE:80:BF:2A:3E

            X509v3 Extended Key Usage: 
                TLS Web Client Authentication
            X509v3 Key Usage: 
                Digital Signature
    Signature Algorithm: md5WithRSAEncryption
         bc:d4:57:2f:af:1b:d4:97:40:b9:f9:48:fe:88:fd:43:20:e1:
         24:d0:8e:42:01:03:10:de:d1:57:77:49:af:8c:bc:e6:66:ef:
         3c:b3:71:60:5b:9e:92:0e:71:d1:43:21:f1:ea:af:41:ff:cf:
         d6:0d:cb:a5:49:5a:f7:76:b8:7e:9d:7e:c4:19:2f:f1:82:11:
         e7:62:ef:44:ac:56:17:e5:86:ae:a5:2b:b5:93:33:b8:de:e0:
         ee:44:14:51:f2:0f:a6:35:e9:a0:6b:15:de:79:d1:5a:06:1a:
         2e:2f:91:7f:35:42:c9:24:53:8c:8d:df:2c:b3:0a:cf:59:79:
         20:3e:39:49:f5:67:86:3d:fb:cd:18:64:31:43:ec:17:15:31:
         13:ae:c3:1b:6f:61:55:4f:7c:52:90:d3:0e:3c:fc:6b:73:06:
         27:1c:be:85:8a:b1:37:51:08:5b:e4:36:5c:18:73:82:fb:9d:
         90:a2:87:7b:cf:27:dc:4f:de:27:12:0f:0f:88:58:1e:c6:4b:
         10:af:74:0d:9a:93:1d:a4:08:29:93:d9:15:4a:c4:6b:f8:c1:
         32:19:3a:7c:cd:45:50:5f:3e:b1:07:ca:e1:3e:7e:3a:46:36:
         fd:53:a2:f0:d0:14:01:8c:06:77:69:22:15:8c:3d:d9:3e:ac:
         c2:44:72:4c:20:c9:91:57:25:41:79:f1:e9:29:10:c5:25:7b:
         09:e5:65:b3:71:9c:02:49:24:bc:30:6e:d0:3b:88:f1:e4:2d:
         45:20:f9:47:b7:12:4f:74:fb:ff:d6:80:fa:b9:ff:50:e9:3c:
         d5:58:f3:d9:51:df:cf:88:a9:51:df:1a:89:a5:66:eb:47:9f:
         8d:31:06:9b:39:dc:88:91:c1:c0:f3:ab:0e:63:f4:12:22:8a:
         fd:a9:20:f3:c6:dc:fa:c5:60:75:e4:3c:4d:d3:df:df:59:da:
         be:d6:18:ca:3d:00:9d:3c:78:8e:e7:c9:fa:29:79:f9:4a:8e:
         78:1f:7f:45:bb:91:4e:6b:0d:78:de:56:07:0d:64:12:80:38:
         46:59:2f:d1:f3:8d:55:ba:5f:c9:14:5b:60:a2:2d:e7:38:34:
         c0:74:af:83:d7:88:24:a4:1a:88:7c:13:1c:00:b6:21:5d:d9:
         2d:93:45:c4:a0:45:af:c2:da:e2:32:3b:0c:4a:ca:6e:fa:51:
         8a:a9:ec:77:b1:6d:1e:5b:ec:ba:6a:13:e0:a0:5c:91:92:98:
         be:d2:b3:5c:9b:43:2a:11:a7:d6:99:5f:a0:f5:bc:34:72:01:
         a9:28:ff:73:fb:37:8d:73:9a:6e:78:30:6f:06:cc:3c:1f:25:
         df:56:e4:0e:4a:cd:59:2e
-----BEGIN CERTIFICATE-----
MIIGrTCCBJWgAwIBAgICF3UwDQYJKoZIhvcNAQEEBQAwgawxCzAJBgNVBAYTAlVT
MQswCQYDVQQIEwJPSDERMA8GA1UEBxMIQ29sdW1idXMxEjAQBgNVBAoTCVZpa2lu
Z1ZQTjEdMBsGA1UECxMUTXlPcmdhbml6YXRpb25hbFVuaXQxFTATBgNVBAMTDFZp
a2luZ1ZQTiBDQTEQMA4GA1UEKRMHRWFzeVJTQTEhMB8GCSqGSIb3DQEJARYSbWVA
bXlob3N0Lm15ZG9tYWluMB4XDTE1MDgwNDIxMzUyOVoXDTI1MDgwMTIxMzUyOVow
HzEdMBsGA1UEAxMUQ2xpZW50MTcxMUNlcnQ4N2UzOTEwggIiMA0GCSqGSIb3DQEB
AQUAA4ICDwAwggIKAoICAQDYX63M8coW0h3MfShBt8cIVVMHKH0NG01UDXJF/H79
nNjxiruqUqXePQJs80T3JR1020X9JFyfiR0UrY/mgLft/HPzB4bvZrJKGMcHN+EK
uyXdAxE//N0eaIfXhqbTpjS8gz0g0/hvyoN8Nvl4TDxB7oj6QBJuzPCMHNSz4/2K
4yAVNlTJ7ovytYrahH+RHXpdB/IXWmYuW7Msch3EJV0rRjFfx0DhpYq4zjHQamLs
XJ9gMr69XyJx9YkHSJTyhbnK+zgsyoMy+aE1dt68D/1kVPe0ZwjrrAnZtP4PT6gX
hCoaPEl+BwWN70BiIwF/EUHQvULZNmJuOKSTGE7rdVWfy5P5zcFLVevLAoTXFA63
QoZncJgggjB8xivXOtOAephDQ0qrAU6cqLvavEKTmqkTml5UV7jd8mhpVonk6Pg/
oBRgKDwtzXCenjtTBbQgxgWw4rKAtpl6etdc/sJbkqN+vAzd0gWckPNpzQFsAN2R
09ZE1qVEU8hkbF7NRMG+/cAwUAJyGDY+YfZ/2fn0M1kZ/+AKl+uq4FsfN1/JDVei
nhvkup0oq4YsslbzTTxquqLMHtGKzUfAPMYcglRG0Phs1LH+QWdMuFPCPF4PZHti
k49bow19g3Z7S4XzpxJS30sPzmld2pV70CYatVUdqM4ouuttdw6FKICZnUijHjf3
qwIDAQABo4IBYzCCAV8wCQYDVR0TBAIwADAtBglghkgBhvhCAQ0EIBYeRWFzeS1S
U0EgR2VuZXJhdGVkIENlcnRpZmljYXRlMB0GA1UdDgQWBBS2yxlqf58Al4KimDun
osvNlG8bgzCB4QYDVR0jBIHZMIHWgBQSzWAE0qCAnnDtxpm4eyzGUv0ZoaGBsqSB
rzCBrDELMAkGA1UEBhMCVVMxCzAJBgNVBAgTAk9IMREwDwYDVQQHEwhDb2x1bWJ1
czESMBAGA1UEChMJVmlraW5nVlBOMR0wGwYDVQQLExRNeU9yZ2FuaXphdGlvbmFs
VW5pdDEVMBMGA1UEAxMMVmlraW5nVlBOIENBMRAwDgYDVQQpEwdFYXN5UlNBMSEw
HwYJKoZIhvcNAQkBFhJtZUBteWhvc3QubXlkb21haW6CCQDPNYXugL8qPjATBgNV
HSUEDDAKBggrBgEFBQcDAjALBgNVHQ8EBAMCB4AwDQYJKoZIhvcNAQEEBQADggIB
ALzUVy+vG9SXQLn5SP6I/UMg4STQjkIBAxDe0Vd3Sa+MvOZm7zyzcWBbnpIOcdFD
IfHqr0H/z9YNy6VJWvd2uH6dfsQZL/GCEedi70SsVhflhq6lK7WTM7je4O5EFFHy
D6Y16aBrFd550VoGGi4vkX81QskkU4yN3yyzCs9ZeSA+OUn1Z4Y9+80YZDFD7BcV
MROuwxtvYVVPfFKQ0w48/GtzBiccvoWKsTdRCFvkNlwYc4L7nZCih3vPJ9xP3icS
Dw+IWB7GSxCvdA2akx2kCCmT2RVKxGv4wTIZOnzNRVBfPrEHyuE+fjpGNv1TovDQ
FAGMBndpIhWMPdk+rMJEckwgyZFXJUF58ekpEMUlewnlZbNxnAJJJLwwbtA7iPHk
LUUg+Ue3Ek90+//WgPq5/1DpPNVY89lR38+IqVHfGomlZutHn40xBps53IiRwcDz
qw5j9BIiiv2pIPPG3PrFYHXkPE3T399Z2r7WGMo9AJ08eI7nyfopeflKjngff0W7
kU5rDXjeVgcNZBKAOEZZL9HzjVW6X8kUW2CiLec4NMB0r4PXiCSkGoh8ExwAtiFd
2S2TRcSgRa/C2uIyOwxKym76UYqp7HexbR5b7LpqE+CgXJGSmL7Ss1ybQyoRp9aZ
X6D1vDRyAako/3P7N41zmm54MG8GzDwfJd9W5A5KzVku
-----END CERTIFICATE-----
