Certificate:
    Data:
        Version: 3 (0x2)
        Serial Number: 6023 (0x1787)
    Signature Algorithm: md5WithRSAEncryption
        Issuer: C=US, ST=OH, L=Columbus, O=VikingVPN, OU=MyOrganizationalUnit, CN=VikingVPN CA/name=EasyRSA/emailAddress=me@myhost.mydomain
        Validity
            Not Before: Aug  8 03:44:50 2015 GMT
            Not After : Aug  5 03:44:50 2025 GMT
        Subject: CN=Client1881Cert9d5d88
        Subject Public Key Info:
            Public Key Algorithm: rsaEncryption
                Public-Key: (4096 bit)
                Modulus:
                    00:b5:b1:b1:46:a1:f6:82:c7:f3:27:da:38:e1:e7:
                    ae:36:61:ab:c1:0e:5b:3a:df:db:33:a7:85:83:ee:
                    bb:24:f0:9b:4c:d2:0b:22:e2:eb:d2:d6:ea:43:c3:
                    91:43:90:d2:c7:b3:cc:b9:2f:f1:11:7a:4f:7a:d2:
                    a8:15:d5:e9:a5:84:25:e9:41:3b:5f:a7:81:b0:8a:
                    f0:9e:76:a4:60:79:39:88:61:d5:9a:db:85:1a:f1:
                    20:e8:7b:a2:71:91:8c:31:c7:a3:20:a3:9f:10:16:
                    5c:87:07:dd:1b:f7:f5:1c:5a:00:68:2c:1c:52:f6:
                    a7:c3:ca:7c:ab:e2:c1:c5:a9:e3:78:18:3d:0f:0b:
                    c8:20:c3:fb:29:c8:1a:82:bf:81:d6:1a:15:7c:0d:
                    c6:23:d9:79:a3:14:5c:c6:a6:ac:f2:36:07:f0:57:
                    e3:0d:a3:fa:8e:e4:50:13:cb:33:13:06:ab:d0:00:
                    88:d5:00:11:13:3a:1e:15:6d:9e:62:43:f4:d0:36:
                    a9:58:62:e5:01:4a:b8:11:43:e6:1d:1f:4a:8a:39:
                    df:f3:70:0d:18:0c:d1:d5:4f:58:72:59:50:37:6c:
                    f1:95:1f:f0:d4:23:31:4c:bb:e9:79:8a:75:16:a4:
                    57:ef:50:c3:15:f5:a9:ad:4f:18:3e:aa:d6:f9:82:
                    9c:b0:36:33:f8:75:3b:38:0c:1e:e1:e8:54:ab:60:
                    a9:80:d2:2d:80:b9:3c:c5:9f:99:46:a8:f5:4c:4f:
                    6f:cc:86:4d:0f:72:1f:f6:91:6f:34:b5:72:09:32:
                    8b:40:2a:bd:72:a7:dd:22:63:e4:03:41:44:f4:a9:
                    cf:d4:d8:88:a8:3b:5c:f9:88:49:e2:f6:2e:06:78:
                    9d:2f:54:4b:ad:70:6d:2a:c4:4e:85:e9:42:81:47:
                    0b:99:94:8d:c1:b0:e8:4c:43:db:c4:96:0c:fb:5b:
                    b5:a5:f3:35:da:e1:74:3a:99:3b:5b:24:29:f7:9d:
                    8d:59:92:52:85:b8:6d:15:36:cf:1f:6b:79:1f:cb:
                    a6:b5:c8:da:c9:91:96:be:45:7f:ed:61:69:8a:dd:
                    19:a0:ee:29:20:c2:df:39:67:66:78:a9:b4:ae:73:
                    a2:44:d0:e2:f4:65:d6:8b:87:56:2e:57:23:e1:a4:
                    8d:67:29:ff:cd:c5:05:0d:6f:7e:a7:0e:7f:13:d0:
                    c0:32:a8:2c:ab:45:3e:95:a7:82:db:07:b7:da:86:
                    49:ed:9b:63:0c:36:31:5a:8c:fc:1b:40:c1:04:86:
                    09:f4:02:df:81:b7:bd:ad:49:e4:68:ec:02:39:97:
                    11:5d:f5:e1:9a:d0:03:89:8f:ff:7b:ac:e7:26:a2:
                    d2:12:3f
                Exponent: 65537 (0x10001)
        X509v3 extensions:
            X509v3 Basic Constraints: 
                CA:FALSE
            Netscape Comment: 
                Easy-RSA Generated Certificate
            X509v3 Subject Key Identifier: 
                93:45:93:38:52:26:EF:D2:95:F9:30:8D:35:3F:4B:72:EF:15:50:1D
            X509v3 Authority Key Identifier: 
                keyid:12:CD:60:04:D2:A0:80:9E:70:ED:C6:99:B8:7B:2C:C6:52:FD:19:A1
                DirName:/C=US/ST=OH/L=Columbus/O=VikingVPN/OU=MyOrganizationalUnit/CN=VikingVPN CA/name=EasyRSA/emailAddress=me@myhost.mydomain
                serial:CF:35:85:EE:80:BF:2A:3E

            X509v3 Extended Key Usage: 
                TLS Web Client Authentication
            X509v3 Key Usage: 
                Digital Signature
    Signature Algorithm: md5WithRSAEncryption
         8d:55:6c:47:06:9e:85:7a:26:e6:3a:5f:04:97:88:87:75:e9:
         a1:fb:c7:ab:70:6d:14:9e:3a:ba:42:64:3f:0e:38:da:b5:e4:
         aa:12:2b:d2:58:59:2c:c8:19:a6:41:ee:00:44:37:62:ab:66:
         2a:34:27:98:27:7e:e2:aa:84:9e:54:80:a2:f2:65:03:d1:21:
         c1:ce:60:77:6a:d8:34:4c:2a:77:9f:62:65:0e:4f:52:07:8a:
         dd:82:ad:9f:73:0c:3d:61:46:cd:23:45:7b:eb:19:56:25:ea:
         b2:bb:2d:ed:7c:2b:46:77:c9:01:2f:b4:85:a5:fe:df:a9:7b:
         40:35:6c:ed:f2:3b:f0:a7:8d:be:4c:74:ba:1e:37:6a:2e:fc:
         f9:3d:4f:61:21:43:03:aa:f1:4d:35:0c:4c:8b:83:59:3c:8a:
         7c:72:ae:4f:27:09:1e:6a:66:73:eb:73:7f:43:8f:d2:54:14:
         8e:41:88:02:0b:29:5e:d8:2f:2a:9e:76:80:5b:7d:6b:7c:f8:
         dd:b1:12:32:fa:46:88:69:e8:2c:d3:53:a5:ca:fe:b3:e5:82:
         af:89:ec:a3:20:b3:e6:33:84:50:db:4b:2f:f7:a8:21:8d:44:
         eb:fd:bd:3e:c0:76:ab:37:9a:59:5e:11:bd:6c:6f:6c:24:1a:
         e2:92:7e:cc:0e:f1:16:91:0c:1b:45:e9:d8:c2:c5:0f:f9:36:
         8e:fa:39:f9:7a:a5:61:04:3a:fc:2e:f1:95:c4:77:6a:fe:d9:
         4f:dd:60:7a:f9:27:f6:67:8f:3c:0d:79:81:c8:46:67:d6:8c:
         c2:bc:04:61:19:f3:6a:3c:c1:4d:ef:30:03:78:3c:b2:a0:98:
         da:92:9a:63:4f:eb:38:a8:b5:e7:88:20:59:75:95:42:9f:3c:
         4d:0a:1f:6c:16:b6:ba:29:4b:f9:8e:95:89:9b:70:3b:db:29:
         cd:80:24:b6:c5:c1:95:85:7d:aa:53:79:c3:13:e3:ee:8c:c0:
         41:0e:78:c2:b1:76:53:b6:84:e0:33:9b:f2:0a:ec:95:ac:bb:
         cd:b2:a1:56:23:7b:6d:59:ac:10:27:81:16:69:66:1f:bd:1f:
         4e:73:93:e0:ec:81:1b:63:07:b1:b1:df:f8:64:8f:7b:09:cb:
         dc:a3:4e:ed:ad:05:0a:4d:e5:42:ce:43:4d:9e:9d:1e:6d:d9:
         c4:4a:62:29:e5:93:73:3d:43:fd:e6:4e:25:f1:1b:97:9b:b0:
         83:97:1e:0c:5b:be:1d:29:48:bf:68:02:de:13:0d:cf:d6:a2:
         79:65:b2:63:ca:6c:43:be:fc:fa:ad:a4:62:32:8a:83:ea:96:
         4b:fb:36:a7:b6:4b:b1:96
-----BEGIN CERTIFICATE-----
MIIGrTCCBJWgAwIBAgICF4cwDQYJKoZIhvcNAQEEBQAwgawxCzAJBgNVBAYTAlVT
MQswCQYDVQQIEwJPSDERMA8GA1UEBxMIQ29sdW1idXMxEjAQBgNVBAoTCVZpa2lu
Z1ZQTjEdMBsGA1UECxMUTXlPcmdhbml6YXRpb25hbFVuaXQxFTATBgNVBAMTDFZp
a2luZ1ZQTiBDQTEQMA4GA1UEKRMHRWFzeVJTQTEhMB8GCSqGSIb3DQEJARYSbWVA
bXlob3N0Lm15ZG9tYWluMB4XDTE1MDgwODAzNDQ1MFoXDTI1MDgwNTAzNDQ1MFow
HzEdMBsGA1UEAxMUQ2xpZW50MTg4MUNlcnQ5ZDVkODgwggIiMA0GCSqGSIb3DQEB
AQUAA4ICDwAwggIKAoICAQC1sbFGofaCx/Mn2jjh5642YavBDls639szp4WD7rsk
8JtM0gsi4uvS1upDw5FDkNLHs8y5L/ERek960qgV1emlhCXpQTtfp4GwivCedqRg
eTmIYdWa24Ua8SDoe6JxkYwxx6Mgo58QFlyHB90b9/UcWgBoLBxS9qfDynyr4sHF
qeN4GD0PC8ggw/spyBqCv4HWGhV8DcYj2XmjFFzGpqzyNgfwV+MNo/qO5FATyzMT
BqvQAIjVABETOh4VbZ5iQ/TQNqlYYuUBSrgRQ+YdH0qKOd/zcA0YDNHVT1hyWVA3
bPGVH/DUIzFMu+l5inUWpFfvUMMV9amtTxg+qtb5gpywNjP4dTs4DB7h6FSrYKmA
0i2AuTzFn5lGqPVMT2/Mhk0Pch/2kW80tXIJMotAKr1yp90iY+QDQUT0qc/U2Iio
O1z5iEni9i4GeJ0vVEutcG0qxE6F6UKBRwuZlI3BsOhMQ9vElgz7W7Wl8zXa4XQ6
mTtbJCn3nY1ZklKFuG0VNs8fa3kfy6a1yNrJkZa+RX/tYWmK3Rmg7ikgwt85Z2Z4
qbSuc6JE0OL0ZdaLh1YuVyPhpI1nKf/NxQUNb36nDn8T0MAyqCyrRT6Vp4LbB7fa
hkntm2MMNjFajPwbQMEEhgn0At+Bt72tSeRo7AI5lxFd9eGa0AOJj/97rOcmotIS
PwIDAQABo4IBYzCCAV8wCQYDVR0TBAIwADAtBglghkgBhvhCAQ0EIBYeRWFzeS1S
U0EgR2VuZXJhdGVkIENlcnRpZmljYXRlMB0GA1UdDgQWBBSTRZM4Uibv0pX5MI01
P0ty7xVQHTCB4QYDVR0jBIHZMIHWgBQSzWAE0qCAnnDtxpm4eyzGUv0ZoaGBsqSB
rzCBrDELMAkGA1UEBhMCVVMxCzAJBgNVBAgTAk9IMREwDwYDVQQHEwhDb2x1bWJ1
czESMBAGA1UEChMJVmlraW5nVlBOMR0wGwYDVQQLExRNeU9yZ2FuaXphdGlvbmFs
VW5pdDEVMBMGA1UEAxMMVmlraW5nVlBOIENBMRAwDgYDVQQpEwdFYXN5UlNBMSEw
HwYJKoZIhvcNAQkBFhJtZUBteWhvc3QubXlkb21haW6CCQDPNYXugL8qPjATBgNV
HSUEDDAKBggrBgEFBQcDAjALBgNVHQ8EBAMCB4AwDQYJKoZIhvcNAQEEBQADggIB
AI1VbEcGnoV6JuY6XwSXiId16aH7x6twbRSeOrpCZD8OONq15KoSK9JYWSzIGaZB
7gBEN2KrZio0J5gnfuKqhJ5UgKLyZQPRIcHOYHdq2DRMKnefYmUOT1IHit2CrZ9z
DD1hRs0jRXvrGVYl6rK7Le18K0Z3yQEvtIWl/t+pe0A1bO3yO/Cnjb5MdLoeN2ou
/Pk9T2EhQwOq8U01DEyLg1k8inxyrk8nCR5qZnPrc39Dj9JUFI5BiAILKV7YLyqe
doBbfWt8+N2xEjL6Rohp6CzTU6XK/rPlgq+J7KMgs+YzhFDbSy/3qCGNROv9vT7A
dqs3mlleEb1sb2wkGuKSfswO8RaRDBtF6djCxQ/5No76Ofl6pWEEOvwu8ZXEd2r+
2U/dYHr5J/ZnjzwNeYHIRmfWjMK8BGEZ82o8wU3vMAN4PLKgmNqSmmNP6zioteeI
IFl1lUKfPE0KH2wWtropS/mOlYmbcDvbKc2AJLbFwZWFfapTecMT4+6MwEEOeMKx
dlO2hOAzm/IK7JWsu82yoVYje21ZrBAngRZpZh+9H05zk+DsgRtjB7Gx3/hkj3sJ
y9yjTu2tBQpN5ULOQ02enR5t2cRKYinlk3M9Q/3mTiXxG5ebsIOXHgxbvh0pSL9o
At4TDc/WonllsmPKbEO+/PqtpGIyioPqlkv7Nqe2S7GW
-----END CERTIFICATE-----
