Certificate:
    Data:
        Version: 3 (0x2)
        Serial Number: 6035 (0x1793)
    Signature Algorithm: md5WithRSAEncryption
        Issuer: C=US, ST=OH, L=Columbus, O=VikingVPN, OU=MyOrganizationalUnit, CN=VikingVPN CA/name=EasyRSA/emailAddress=me@myhost.mydomain
        Validity
            Not Before: Aug  9 23:10:41 2015 GMT
            Not After : Aug  6 23:10:41 2025 GMT
        Subject: CN=Client879Cert1e3dae
        Subject Public Key Info:
            Public Key Algorithm: rsaEncryption
                Public-Key: (4096 bit)
                Modulus:
                    00:e7:2d:02:f3:38:78:13:c4:ee:6e:8b:dd:36:e5:
                    5f:09:1f:b2:35:90:5e:7d:6c:36:b0:c4:55:5f:db:
                    79:49:f2:b2:3c:73:c3:99:d6:23:f3:2f:aa:78:be:
                    38:9a:74:db:d3:d8:68:c3:ad:a0:ec:fd:e6:85:15:
                    a0:d5:1f:ca:ee:08:b2:52:ed:d0:f3:cf:a3:01:9e:
                    8d:ac:9f:70:66:41:fd:07:69:36:61:ff:66:99:67:
                    e6:d6:64:93:f3:8c:9b:9e:73:d7:3d:7b:ee:ce:a4:
                    e6:4a:0e:05:31:5b:dc:23:93:9b:83:4a:50:eb:4b:
                    c8:00:a4:c2:f2:31:52:73:02:39:94:54:e3:c1:e8:
                    14:4a:99:6e:ee:e0:02:0c:8a:cc:43:58:3f:cf:6b:
                    94:85:1f:55:39:60:14:4a:d2:49:2c:db:a2:e9:f6:
                    40:20:58:dd:ef:66:7c:48:83:3c:73:76:34:98:02:
                    f7:6f:d7:a5:d2:1f:45:e8:05:52:f6:b3:70:60:1c:
                    0b:10:01:68:51:d7:67:cb:85:2b:a1:61:27:67:35:
                    de:e6:a6:6f:d5:0b:f6:f0:82:15:0e:a8:1d:d8:0a:
                    f8:54:60:eb:90:16:cd:fa:e8:d7:57:23:07:cc:4a:
                    91:9d:b1:0d:36:1e:85:b7:98:63:81:9b:2d:42:91:
                    99:f2:ef:38:88:b1:c6:34:18:a3:83:69:97:65:0d:
                    d8:73:1c:dd:d9:99:27:9e:92:23:33:74:23:03:4f:
                    83:f2:ed:bf:9f:76:4a:00:43:10:0d:a1:11:23:e0:
                    48:f2:60:fe:e8:e3:3d:7a:8d:89:ae:5f:0b:55:de:
                    dc:de:10:f7:ef:fc:2f:e5:a1:ba:4a:47:3a:1c:67:
                    96:05:77:c5:87:09:cc:27:9c:a8:4e:e9:eb:ee:41:
                    12:db:e9:d6:9a:96:65:a1:57:cd:e9:79:97:f8:ee:
                    e7:ad:53:49:66:45:3e:f2:3a:82:aa:b1:df:cb:3a:
                    69:9d:36:c2:d8:2a:ff:9c:75:2a:f4:25:29:f7:af:
                    c8:fc:b5:ba:52:c6:be:67:ec:23:43:9f:51:85:db:
                    e7:49:30:6e:76:d7:0f:3d:36:31:bf:a4:28:df:aa:
                    b2:1c:21:3b:17:fe:3f:02:84:ae:33:c4:64:e1:16:
                    08:a2:e2:75:a8:04:0f:fd:2a:ed:e5:5b:f6:f0:f2:
                    b1:50:ad:66:82:ff:3b:a6:61:10:d7:46:59:a6:56:
                    31:18:a6:6e:4f:ca:53:8e:75:a9:54:7a:3e:be:4e:
                    31:8e:66:c8:08:d3:13:ba:02:f8:47:2e:f0:e8:d1:
                    99:04:c3:39:82:84:49:58:30:1b:d2:46:ac:de:fa:
                    e2:04:f9
                Exponent: 65537 (0x10001)
        X509v3 extensions:
            X509v3 Basic Constraints: 
                CA:FALSE
            Netscape Comment: 
                Easy-RSA Generated Certificate
            X509v3 Subject Key Identifier: 
                22:BE:B9:02:EE:1E:6F:C0:64:FE:57:0F:E3:23:46:5E:00:23:FB:1B
            X509v3 Authority Key Identifier: 
                keyid:12:CD:60:04:D2:A0:80:9E:70:ED:C6:99:B8:7B:2C:C6:52:FD:19:A1
                DirName:/C=US/ST=OH/L=Columbus/O=VikingVPN/OU=MyOrganizationalUnit/CN=VikingVPN CA/name=EasyRSA/emailAddress=me@myhost.mydomain
                serial:CF:35:85:EE:80:BF:2A:3E

            X509v3 Extended Key Usage: 
                TLS Web Client Authentication
            X509v3 Key Usage: 
                Digital Signature
    Signature Algorithm: md5WithRSAEncryption
         0b:7d:0a:54:05:a8:3f:09:65:8e:8f:53:56:09:53:45:7f:d8:
         96:63:bd:26:54:00:d2:3b:56:40:e9:38:2b:12:d0:96:8e:15:
         a7:bd:00:9f:f4:17:13:04:e0:a7:c9:d7:98:cf:a9:78:08:62:
         be:44:89:d6:35:1f:cc:8f:a5:19:e0:a6:9a:8e:66:4d:85:03:
         39:f7:f7:b8:cd:bf:36:69:35:f5:67:84:c6:72:45:b0:d8:5f:
         51:c5:2e:e1:0d:56:18:74:cc:70:c6:8c:1d:83:a7:ec:62:71:
         1b:c9:87:1a:5e:b3:9e:9e:a5:49:d9:47:68:1a:ab:17:0a:6a:
         3d:2b:aa:67:c6:7f:1a:9d:50:cc:3a:23:6d:e6:ad:9c:ba:da:
         b6:d8:9f:0c:22:d5:95:dd:1a:93:97:99:d6:9a:9f:12:1d:60:
         09:8b:2a:72:32:48:9c:cb:40:67:b5:0d:06:f8:2b:c8:a5:f7:
         0e:81:c3:eb:35:65:4f:bb:71:00:5e:8a:e5:5b:93:06:93:55:
         85:dc:78:fb:2f:31:cc:b8:21:21:64:da:5d:24:ed:e9:76:49:
         f5:2f:a5:c9:44:e4:85:02:85:3e:d5:cc:a6:0e:79:dd:cc:a3:
         26:52:39:34:de:2f:c6:58:3a:16:ee:3a:49:e6:8a:50:57:93:
         0f:c2:8a:5c:35:8a:51:0a:f6:a3:46:1a:1a:c3:28:0e:48:6d:
         ee:fb:19:4a:ea:57:d2:78:da:20:eb:bb:b0:ab:1d:4a:fd:df:
         f6:17:04:09:3f:1e:15:7e:e3:5e:58:9e:5e:71:42:7b:41:b7:
         44:26:ba:04:10:60:87:34:56:d6:ba:ab:e6:40:66:af:63:ae:
         b3:f3:19:1e:a1:b6:ac:83:e3:97:23:bf:07:ab:14:f1:53:4e:
         79:9c:8c:14:0b:39:ff:1b:59:72:45:a7:5e:80:aa:a5:b0:a0:
         55:3e:1a:81:95:1d:73:5a:fc:49:02:16:f2:d0:62:a6:61:64:
         8d:81:16:18:44:2c:67:81:43:d7:94:62:54:4e:9e:4c:63:de:
         19:96:3b:fe:14:e1:fb:84:db:fd:c4:6c:5f:32:9d:65:85:5d:
         7f:06:8a:ee:3d:31:92:83:be:c3:3b:ce:0d:64:fc:8a:80:a4:
         3a:47:8b:24:01:f0:b7:7f:42:32:65:b0:7c:dd:f6:8f:31:26:
         87:1d:39:90:62:f8:03:07:fb:01:69:12:b5:4d:e5:d4:1e:ce:
         1e:2f:33:3c:87:59:d4:86:12:f8:f3:fe:6b:f4:fa:f2:3c:bd:
         db:4b:44:94:b2:85:64:57:ca:e7:c4:20:ea:0e:dd:7d:61:17:
         16:b2:30:5a:99:78:a6:1b
-----BEGIN CERTIFICATE-----
MIIGrDCCBJSgAwIBAgICF5MwDQYJKoZIhvcNAQEEBQAwgawxCzAJBgNVBAYTAlVT
MQswCQYDVQQIEwJPSDERMA8GA1UEBxMIQ29sdW1idXMxEjAQBgNVBAoTCVZpa2lu
Z1ZQTjEdMBsGA1UECxMUTXlPcmdhbml6YXRpb25hbFVuaXQxFTATBgNVBAMTDFZp
a2luZ1ZQTiBDQTEQMA4GA1UEKRMHRWFzeVJTQTEhMB8GCSqGSIb3DQEJARYSbWVA
bXlob3N0Lm15ZG9tYWluMB4XDTE1MDgwOTIzMTA0MVoXDTI1MDgwNjIzMTA0MVow
HjEcMBoGA1UEAxMTQ2xpZW50ODc5Q2VydDFlM2RhZTCCAiIwDQYJKoZIhvcNAQEB
BQADggIPADCCAgoCggIBAOctAvM4eBPE7m6L3TblXwkfsjWQXn1sNrDEVV/beUny
sjxzw5nWI/Mvqni+OJp029PYaMOtoOz95oUVoNUfyu4IslLt0PPPowGejayfcGZB
/QdpNmH/Zpln5tZkk/OMm55z1z177s6k5koOBTFb3COTm4NKUOtLyACkwvIxUnMC
OZRU48HoFEqZbu7gAgyKzENYP89rlIUfVTlgFErSSSzboun2QCBY3e9mfEiDPHN2
NJgC92/XpdIfRegFUvazcGAcCxABaFHXZ8uFK6FhJ2c13uamb9UL9vCCFQ6oHdgK
+FRg65AWzfro11cjB8xKkZ2xDTYehbeYY4GbLUKRmfLvOIixxjQYo4Npl2UN2HMc
3dmZJ56SIzN0IwNPg/Ltv592SgBDEA2hESPgSPJg/ujjPXqNia5fC1Xe3N4Q9+/8
L+WhukpHOhxnlgV3xYcJzCecqE7p6+5BEtvp1pqWZaFXzel5l/ju561TSWZFPvI6
gqqx38s6aZ02wtgq/5x1KvQlKfevyPy1ulLGvmfsI0OfUYXb50kwbnbXDz02Mb+k
KN+qshwhOxf+PwKErjPEZOEWCKLidagED/0q7eVb9vDysVCtZoL/O6ZhENdGWaZW
MRimbk/KU451qVR6Pr5OMY5myAjTE7oC+Ecu8OjRmQTDOYKESVgwG9JGrN764gT5
AgMBAAGjggFjMIIBXzAJBgNVHRMEAjAAMC0GCWCGSAGG+EIBDQQgFh5FYXN5LVJT
QSBHZW5lcmF0ZWQgQ2VydGlmaWNhdGUwHQYDVR0OBBYEFCK+uQLuHm/AZP5XD+Mj
Rl4AI/sbMIHhBgNVHSMEgdkwgdaAFBLNYATSoICecO3Gmbh7LMZS/RmhoYGypIGv
MIGsMQswCQYDVQQGEwJVUzELMAkGA1UECBMCT0gxETAPBgNVBAcTCENvbHVtYnVz
MRIwEAYDVQQKEwlWaWtpbmdWUE4xHTAbBgNVBAsTFE15T3JnYW5pemF0aW9uYWxV
bml0MRUwEwYDVQQDEwxWaWtpbmdWUE4gQ0ExEDAOBgNVBCkTB0Vhc3lSU0ExITAf
BgkqhkiG9w0BCQEWEm1lQG15aG9zdC5teWRvbWFpboIJAM81he6Avyo+MBMGA1Ud
JQQMMAoGCCsGAQUFBwMCMAsGA1UdDwQEAwIHgDANBgkqhkiG9w0BAQQFAAOCAgEA
C30KVAWoPwlljo9TVglTRX/YlmO9JlQA0jtWQOk4KxLQlo4Vp70An/QXEwTgp8nX
mM+peAhivkSJ1jUfzI+lGeCmmo5mTYUDOff3uM2/Nmk19WeExnJFsNhfUcUu4Q1W
GHTMcMaMHYOn7GJxG8mHGl6znp6lSdlHaBqrFwpqPSuqZ8Z/Gp1QzDojbeatnLra
ttifDCLVld0ak5eZ1pqfEh1gCYsqcjJInMtAZ7UNBvgryKX3DoHD6zVlT7txAF6K
5VuTBpNVhdx4+y8xzLghIWTaXSTt6XZJ9S+lyUTkhQKFPtXMpg553cyjJlI5NN4v
xlg6Fu46SeaKUFeTD8KKXDWKUQr2o0YaGsMoDkht7vsZSupX0njaIOu7sKsdSv3f
9hcECT8eFX7jXlieXnFCe0G3RCa6BBBghzRW1rqr5kBmr2Ous/MZHqG2rIPjlyO/
B6sU8VNOeZyMFAs5/xtZckWnXoCqpbCgVT4agZUdc1r8SQIW8tBipmFkjYEWGEQs
Z4FD15RiVE6eTGPeGZY7/hTh+4Tb/cRsXzKdZYVdfwaK7j0xkoO+wzvODWT8ioCk
OkeLJAHwt39CMmWwfN32jzEmhx05kGL4Awf7AWkStU3l1B7OHi8zPIdZ1IYS+PP+
a/T68jy920tElLKFZFfK58Qg6g7dfWEXFrIwWpl4phs=
-----END CERTIFICATE-----
