Certificate:
    Data:
        Version: 3 (0x2)
        Serial Number: 6040 (0x1798)
    Signature Algorithm: md5WithRSAEncryption
        Issuer: C=US, ST=OH, L=Columbus, O=VikingVPN, OU=MyOrganizationalUnit, CN=VikingVPN CA/name=EasyRSA/emailAddress=me@myhost.mydomain
        Validity
            Not Before: Aug 10 11:30:54 2015 GMT
            Not After : Aug  7 11:30:54 2025 GMT
        Subject: CN=Client1889Cert1637d8
        Subject Public Key Info:
            Public Key Algorithm: rsaEncryption
                Public-Key: (4096 bit)
                Modulus:
                    00:a2:73:ab:9c:f6:ec:26:02:bb:51:f9:a8:29:dc:
                    12:1d:e6:00:2a:9a:e8:12:5b:11:ce:35:68:2c:75:
                    28:3f:57:46:70:db:33:0b:9c:a5:8c:ba:32:34:40:
                    68:de:1a:a1:0d:dc:6f:4e:11:cf:b9:bf:80:f5:7e:
                    bd:10:9d:d7:ef:70:b8:72:f1:16:b9:54:f8:cf:41:
                    46:e1:2a:59:0e:7f:e4:b9:2f:0a:89:dd:69:f4:d9:
                    0b:e0:4a:89:db:86:92:1f:81:ba:2b:b6:65:25:65:
                    e5:f1:93:85:de:10:fa:28:b4:a2:b3:a4:d1:b4:f4:
                    fb:f4:75:2b:80:87:0f:52:0c:5d:09:92:2a:3c:a0:
                    e6:d6:3f:37:23:6e:04:58:88:e8:27:fb:52:e1:23:
                    cc:6e:38:9b:fa:85:b6:9c:c2:39:23:18:fd:ca:fa:
                    64:fc:45:cd:6f:a8:63:d3:38:db:3f:bc:cb:b9:94:
                    a5:a9:1d:ed:2f:f0:fe:e2:3f:99:65:cf:f5:35:7d:
                    dc:9f:b8:db:f0:d3:76:c2:a1:53:e1:d3:10:9d:5d:
                    7b:cd:60:b1:67:bf:8e:14:8f:98:cc:f1:7f:70:7e:
                    3b:84:05:a0:c7:74:07:3f:98:de:45:90:ea:93:52:
                    87:f2:83:01:d6:7a:4e:37:fe:60:0b:a6:3f:af:89:
                    25:32:d3:97:0f:82:87:f5:97:59:34:5f:e4:7b:81:
                    5d:94:c4:7c:de:56:18:93:5a:b0:98:b9:13:5e:be:
                    db:4d:d1:57:22:66:1f:e7:c9:4b:2f:2b:95:64:94:
                    65:5f:6e:a4:90:fa:73:20:d4:2b:af:ed:b0:0c:48:
                    b1:6f:b2:b6:96:d7:ec:eb:d5:0f:bc:12:87:ec:d6:
                    59:50:2d:70:a7:99:04:48:d2:b3:c1:86:41:96:37:
                    b5:3d:3f:9a:13:74:2f:44:44:17:38:b1:71:aa:e8:
                    a0:8b:66:47:52:d5:9d:58:23:ac:c5:f3:01:59:3a:
                    cc:40:a7:e3:b3:70:79:4d:59:05:9f:bb:2c:b7:85:
                    67:7b:ef:3f:af:4a:72:81:88:32:1e:c3:b7:9a:6c:
                    7e:d9:85:69:c3:b6:7c:1d:87:4c:89:d3:55:22:38:
                    46:f3:86:4c:68:25:5e:f8:3f:41:02:7a:34:c7:15:
                    50:5d:d7:81:ed:16:a5:02:86:4a:1c:65:ba:4e:15:
                    4c:22:d6:3a:12:9e:f1:8e:7d:1c:74:22:33:17:9e:
                    b5:19:32:36:58:e1:4e:11:68:97:f4:22:2f:40:61:
                    b9:bc:a5:bc:e8:2e:90:07:47:43:7c:df:f3:d3:b5:
                    34:b9:ea:f2:cd:41:df:8e:c8:a4:c0:ce:33:e8:16:
                    c3:12:e9
                Exponent: 65537 (0x10001)
        X509v3 extensions:
            X509v3 Basic Constraints: 
                CA:FALSE
            Netscape Comment: 
                Easy-RSA Generated Certificate
            X509v3 Subject Key Identifier: 
                CE:AD:47:5B:4F:35:47:BB:14:7C:48:0B:33:00:50:CA:A7:89:CF:D9
            X509v3 Authority Key Identifier: 
                keyid:12:CD:60:04:D2:A0:80:9E:70:ED:C6:99:B8:7B:2C:C6:52:FD:19:A1
                DirName:/C=US/ST=OH/L=Columbus/O=VikingVPN/OU=MyOrganizationalUnit/CN=VikingVPN CA/name=EasyRSA/emailAddress=me@myhost.mydomain
                serial:CF:35:85:EE:80:BF:2A:3E

            X509v3 Extended Key Usage: 
                TLS Web Client Authentication
            X509v3 Key Usage: 
                Digital Signature
    Signature Algorithm: md5WithRSAEncryption
         32:24:9e:6b:56:e7:80:c0:e6:d1:2b:d9:3d:cf:5b:c4:10:69:
         a9:a9:61:2d:5d:6d:23:77:64:9a:a8:f2:de:f0:1a:1d:d7:e8:
         a7:dd:93:6e:20:ed:b3:0b:fd:b3:74:a4:bb:56:66:dc:52:63:
         0f:4c:da:a9:f4:16:53:52:42:1c:9d:6c:26:73:35:3b:ca:91:
         29:be:1d:96:b0:6a:e1:58:73:a1:c0:7c:da:c2:0d:9b:7e:34:
         24:0f:ad:ba:ca:59:b6:37:18:d1:5d:b5:4e:82:64:67:c4:ee:
         d9:7d:17:0a:0c:24:93:a9:f4:33:cf:5c:5d:31:3c:7a:6c:aa:
         ed:d3:f1:3d:78:34:e1:e0:31:5b:c1:e3:e5:1d:03:45:cc:e0:
         84:7a:f9:eb:b8:0f:32:c7:b2:eb:a9:14:51:1f:fd:3d:5c:f9:
         f2:19:b8:e5:20:8c:85:f4:c9:7f:bf:c2:36:74:79:a7:3e:fc:
         5e:50:90:c2:fc:c0:00:bd:ea:3f:50:56:a5:91:36:88:02:44:
         ce:77:b1:d2:45:e7:83:89:ad:d8:71:0f:b4:32:74:fd:80:10:
         6e:f9:ce:a1:99:bb:7d:74:ac:cf:85:5f:ef:1b:30:fd:eb:3a:
         38:c3:f6:c7:62:80:18:ce:f5:a9:c8:8b:2e:c0:6e:f9:2b:8b:
         ed:17:cd:0f:69:be:69:56:db:9d:ce:4e:ec:4c:90:ca:e9:58:
         d4:ae:bc:cd:35:5e:0e:b2:e0:b9:e4:ad:f9:1d:33:32:1e:5b:
         3e:ce:3c:06:71:7f:8c:4c:d1:ca:ff:38:76:56:87:b9:c7:4a:
         35:82:81:10:60:e2:34:eb:8c:b5:39:18:a7:c4:73:09:fc:35:
         83:a1:fa:6b:2f:49:96:27:04:0b:76:2e:87:0c:c8:dc:6d:92:
         5a:8c:1c:af:86:19:0e:6c:3e:4b:1c:1b:9c:b4:c2:1c:6d:d8:
         09:bb:20:6a:b6:33:fd:6f:c6:7a:0a:4a:23:76:27:29:6b:6f:
         c7:ee:e7:86:49:0f:01:d8:95:07:88:55:44:05:16:0a:b3:3e:
         cf:79:1a:f9:2e:dd:3a:f0:b6:ab:e5:43:40:49:de:ff:42:71:
         e8:b1:31:88:a2:f7:4d:c0:f9:fc:b2:31:ef:ce:42:44:97:0f:
         a5:34:ab:cd:22:9e:10:d5:f7:be:64:48:31:f5:47:7b:8f:63:
         95:e5:de:d6:29:f5:c9:2d:30:8a:08:0d:8f:a8:6f:c2:79:0d:
         65:e0:5c:9a:80:d6:ca:83:b9:e4:a7:bf:99:11:29:47:00:17:
         83:3c:32:2b:79:6a:80:dc:5d:08:28:71:f2:57:ca:61:9f:cd:
         41:26:bc:50:1b:8a:79:b3
-----BEGIN CERTIFICATE-----
MIIGrTCCBJWgAwIBAgICF5gwDQYJKoZIhvcNAQEEBQAwgawxCzAJBgNVBAYTAlVT
MQswCQYDVQQIEwJPSDERMA8GA1UEBxMIQ29sdW1idXMxEjAQBgNVBAoTCVZpa2lu
Z1ZQTjEdMBsGA1UECxMUTXlPcmdhbml6YXRpb25hbFVuaXQxFTATBgNVBAMTDFZp
a2luZ1ZQTiBDQTEQMA4GA1UEKRMHRWFzeVJTQTEhMB8GCSqGSIb3DQEJARYSbWVA
bXlob3N0Lm15ZG9tYWluMB4XDTE1MDgxMDExMzA1NFoXDTI1MDgwNzExMzA1NFow
HzEdMBsGA1UEAxMUQ2xpZW50MTg4OUNlcnQxNjM3ZDgwggIiMA0GCSqGSIb3DQEB
AQUAA4ICDwAwggIKAoICAQCic6uc9uwmArtR+agp3BId5gAqmugSWxHONWgsdSg/
V0Zw2zMLnKWMujI0QGjeGqEN3G9OEc+5v4D1fr0QndfvcLhy8Ra5VPjPQUbhKlkO
f+S5LwqJ3Wn02QvgSonbhpIfgbortmUlZeXxk4XeEPootKKzpNG09Pv0dSuAhw9S
DF0Jkio8oObWPzcjbgRYiOgn+1LhI8xuOJv6hbacwjkjGP3K+mT8Rc1vqGPTONs/
vMu5lKWpHe0v8P7iP5llz/U1fdyfuNvw03bCoVPh0xCdXXvNYLFnv44Uj5jM8X9w
fjuEBaDHdAc/mN5FkOqTUofygwHWek43/mALpj+viSUy05cPgof1l1k0X+R7gV2U
xHzeVhiTWrCYuRNevttN0VciZh/nyUsvK5VklGVfbqSQ+nMg1Cuv7bAMSLFvsraW
1+zr1Q+8Eofs1llQLXCnmQRI0rPBhkGWN7U9P5oTdC9ERBc4sXGq6KCLZkdS1Z1Y
I6zF8wFZOsxAp+OzcHlNWQWfuyy3hWd77z+vSnKBiDIew7eabH7ZhWnDtnwdh0yJ
01UiOEbzhkxoJV74P0ECejTHFVBd14HtFqUChkocZbpOFUwi1joSnvGOfRx0IjMX
nrUZMjZY4U4RaJf0Ii9AYbm8pbzoLpAHR0N83/PTtTS56vLNQd+OyKTAzjPoFsMS
6QIDAQABo4IBYzCCAV8wCQYDVR0TBAIwADAtBglghkgBhvhCAQ0EIBYeRWFzeS1S
U0EgR2VuZXJhdGVkIENlcnRpZmljYXRlMB0GA1UdDgQWBBTOrUdbTzVHuxR8SAsz
AFDKp4nP2TCB4QYDVR0jBIHZMIHWgBQSzWAE0qCAnnDtxpm4eyzGUv0ZoaGBsqSB
rzCBrDELMAkGA1UEBhMCVVMxCzAJBgNVBAgTAk9IMREwDwYDVQQHEwhDb2x1bWJ1
czESMBAGA1UEChMJVmlraW5nVlBOMR0wGwYDVQQLExRNeU9yZ2FuaXphdGlvbmFs
VW5pdDEVMBMGA1UEAxMMVmlraW5nVlBOIENBMRAwDgYDVQQpEwdFYXN5UlNBMSEw
HwYJKoZIhvcNAQkBFhJtZUBteWhvc3QubXlkb21haW6CCQDPNYXugL8qPjATBgNV
HSUEDDAKBggrBgEFBQcDAjALBgNVHQ8EBAMCB4AwDQYJKoZIhvcNAQEEBQADggIB
ADIknmtW54DA5tEr2T3PW8QQaampYS1dbSN3ZJqo8t7wGh3X6Kfdk24g7bML/bN0
pLtWZtxSYw9M2qn0FlNSQhydbCZzNTvKkSm+HZawauFYc6HAfNrCDZt+NCQPrbrK
WbY3GNFdtU6CZGfE7tl9FwoMJJOp9DPPXF0xPHpsqu3T8T14NOHgMVvB4+UdA0XM
4IR6+eu4DzLHsuupFFEf/T1c+fIZuOUgjIX0yX+/wjZ0eac+/F5QkML8wAC96j9Q
VqWRNogCRM53sdJF54OJrdhxD7QydP2AEG75zqGZu310rM+FX+8bMP3rOjjD9sdi
gBjO9anIiy7Abvkri+0XzQ9pvmlW253OTuxMkMrpWNSuvM01Xg6y4LnkrfkdMzIe
Wz7OPAZxf4xM0cr/OHZWh7nHSjWCgRBg4jTrjLU5GKfEcwn8NYOh+msvSZYnBAt2
LocMyNxtklqMHK+GGQ5sPkscG5y0whxt2Am7IGq2M/1vxnoKSiN2Jylrb8fu54ZJ
DwHYlQeIVUQFFgqzPs95Gvku3TrwtqvlQ0BJ3v9CceixMYii903A+fyyMe/OQkSX
D6U0q80inhDV975kSDH1R3uPY5Xl3tYp9cktMIoIDY+ob8J5DWXgXJqA1sqDueSn
v5kRKUcAF4M8Mit5aoDcXQgocfJXymGfzUEmvFAbinmz
-----END CERTIFICATE-----
