Certificate:
    Data:
        Version: 3 (0x2)
        Serial Number: 6047 (0x179f)
    Signature Algorithm: md5WithRSAEncryption
        Issuer: C=US, ST=OH, L=Columbus, O=VikingVPN, OU=MyOrganizationalUnit, CN=VikingVPN CA/name=EasyRSA/emailAddress=me@myhost.mydomain
        Validity
            Not Before: Aug 10 11:42:53 2015 GMT
            Not After : Aug  7 11:42:53 2025 GMT
        Subject: CN=Client1889Certef96e2
        Subject Public Key Info:
            Public Key Algorithm: rsaEncryption
                Public-Key: (4096 bit)
                Modulus:
                    00:9c:60:64:77:18:b7:5b:78:4e:cc:63:6f:b7:87:
                    c5:ff:9c:50:34:0d:ee:7e:e0:8f:f3:43:9c:ae:a4:
                    ed:00:66:49:ea:6c:ff:ea:7f:8c:e6:95:63:e2:00:
                    15:e8:4f:5d:01:6c:5b:48:11:32:11:63:b3:3c:2d:
                    1d:3d:33:a1:df:ec:b1:b2:20:64:69:73:45:5b:96:
                    b7:a3:a1:41:f5:0b:13:3c:07:4b:27:0d:3d:13:00:
                    b1:fb:de:6a:0b:6f:d2:80:a6:2d:69:b3:b1:73:d0:
                    e8:45:79:fd:4d:a0:40:76:2e:aa:51:d7:65:10:de:
                    7f:ec:c9:71:bc:99:bc:7b:02:41:5e:eb:45:bb:6c:
                    bf:16:68:aa:80:5e:d4:d6:4b:e6:8d:4d:c0:de:4f:
                    9a:75:88:07:23:2f:78:88:ec:30:8f:f2:3e:c0:d6:
                    9c:4c:ea:97:c5:c4:48:2e:f0:3a:b1:9d:d9:54:19:
                    a9:6a:ad:48:8c:fb:19:5e:32:da:60:10:7c:2e:49:
                    41:fd:11:bb:5e:0f:53:1e:d0:c0:93:33:06:36:33:
                    c6:3b:99:59:58:8f:96:66:fb:b6:e0:66:4c:04:70:
                    8d:c3:c2:9d:74:bf:97:3b:4e:10:50:a7:63:f9:27:
                    bf:f9:e7:28:24:22:0e:97:cf:f8:3f:fe:bd:a9:b3:
                    6a:67:05:4f:3c:8d:fe:55:69:f6:5e:6a:e8:82:6e:
                    66:2a:17:ad:46:5b:44:92:da:bf:5f:39:46:f3:c3:
                    f1:bd:80:10:2c:92:0b:f6:a8:b5:c4:5e:2d:bc:e1:
                    06:3b:ad:c3:83:14:33:70:5b:bd:f9:f6:91:6f:d5:
                    60:21:7a:37:e3:b5:db:0d:3b:00:69:08:19:a5:ac:
                    ce:90:01:c7:d6:49:0b:db:79:11:b6:4d:37:53:48:
                    ad:06:c6:ef:44:21:28:db:0d:2c:b7:7c:6d:4e:94:
                    1a:eb:f3:6f:16:24:d4:84:d2:34:7e:a8:c3:e6:3e:
                    2d:e4:20:32:28:0c:8b:b7:ae:0e:b6:d1:65:49:e0:
                    13:ac:7e:ef:e5:79:8b:57:89:3d:1f:57:61:e9:72:
                    be:e7:87:d7:8e:f1:fd:67:47:d3:b3:d3:ec:de:7b:
                    18:6c:e7:b0:19:28:64:cd:38:cf:d5:be:41:29:f1:
                    9d:13:ae:ed:e5:4e:ad:87:71:ed:36:c8:dc:f4:66:
                    b5:0e:63:c4:cb:06:e7:b2:4d:c2:15:c5:f5:aa:fe:
                    4f:63:bb:8a:e1:73:c3:de:17:95:7b:ee:55:71:a1:
                    40:e1:10:3c:d9:f4:04:6a:99:14:44:93:a4:aa:57:
                    6c:fd:8e:cc:d7:c2:b9:fc:d1:47:e8:10:52:53:fe:
                    1b:46:93
                Exponent: 65537 (0x10001)
        X509v3 extensions:
            X509v3 Basic Constraints: 
                CA:FALSE
            Netscape Comment: 
                Easy-RSA Generated Certificate
            X509v3 Subject Key Identifier: 
                EA:0E:00:E7:DC:25:39:58:9D:BC:70:91:65:7B:FF:9F:98:57:8B:51
            X509v3 Authority Key Identifier: 
                keyid:12:CD:60:04:D2:A0:80:9E:70:ED:C6:99:B8:7B:2C:C6:52:FD:19:A1
                DirName:/C=US/ST=OH/L=Columbus/O=VikingVPN/OU=MyOrganizationalUnit/CN=VikingVPN CA/name=EasyRSA/emailAddress=me@myhost.mydomain
                serial:CF:35:85:EE:80:BF:2A:3E

            X509v3 Extended Key Usage: 
                TLS Web Client Authentication
            X509v3 Key Usage: 
                Digital Signature
    Signature Algorithm: md5WithRSAEncryption
         a6:49:59:d7:0a:6f:f2:24:35:63:46:a6:60:39:30:a4:a6:e0:
         e4:37:0c:a6:0a:19:9f:ce:c2:ff:bb:0f:c8:62:4d:c5:0d:3f:
         30:43:2a:83:e6:db:ef:77:45:65:b1:a3:bc:d5:1b:8b:64:78:
         84:13:72:68:74:3a:0b:a2:60:bc:9b:f8:49:5c:f0:21:1a:91:
         6b:eb:a0:57:13:77:2c:5b:96:98:e7:57:99:4e:e3:ad:cd:26:
         d6:a7:e8:5f:7d:b0:f3:1f:7c:c7:08:30:d2:33:8a:d9:cf:21:
         77:d2:11:18:42:01:69:a0:16:8c:e2:f7:4b:bb:c9:f7:fc:ee:
         86:76:f3:88:13:d9:32:94:31:75:83:28:2c:15:99:06:b6:d2:
         e1:7f:af:5b:72:33:11:72:05:6d:01:f0:f2:e6:17:9c:fa:03:
         0b:27:3c:f2:2e:c7:f9:3b:f3:56:71:c1:92:f3:d3:42:b4:ae:
         13:70:8c:01:c4:e5:ec:01:56:25:5b:c1:c3:c7:f3:a3:a9:7b:
         71:a5:20:db:3b:f5:78:9f:42:f7:43:f2:5d:32:2b:3c:85:ec:
         5f:d4:81:32:d0:7c:44:a7:8a:fe:52:89:a3:1e:a1:db:cd:36:
         5e:1f:91:4e:76:aa:a7:e5:fb:13:90:b8:80:7c:49:4c:d3:25:
         c4:4c:69:87:ab:f7:2b:57:56:a2:01:cf:5e:6c:de:da:26:32:
         2a:12:2e:17:ba:59:54:ca:ad:65:52:f2:34:5a:a2:22:7e:3e:
         c5:59:44:2d:65:62:9d:34:c8:1c:30:35:f0:e5:72:b9:fc:66:
         67:73:f0:8f:d6:ba:36:1e:2b:81:13:47:5f:1e:1e:de:0f:dd:
         ed:45:cd:35:b3:f0:fb:1c:85:d6:63:ac:f5:8b:7e:c8:21:98:
         d3:25:8a:d6:ed:45:5c:84:55:75:6d:c0:44:bc:89:93:9e:c7:
         08:ba:e5:10:17:e2:54:d0:46:fe:47:85:a4:34:67:4e:22:72:
         3a:62:35:22:f5:12:e4:75:39:8e:e3:92:11:cc:52:8b:32:4e:
         44:59:b6:2f:6f:27:7a:9d:fb:9b:f4:2f:bc:1e:20:9a:0d:33:
         28:df:38:12:78:3c:6b:3c:26:da:d4:9e:6a:3e:97:a3:ba:64:
         ac:6a:66:65:e2:71:ab:22:82:60:89:ab:00:2b:d7:0a:37:4f:
         31:08:af:31:08:23:45:ce:0e:cb:80:a1:ab:97:6e:51:a9:84:
         8b:8e:eb:5e:99:1a:1f:64:96:29:53:05:90:83:80:af:ed:37:
         d9:03:4b:74:59:16:1a:76:e2:3e:6d:7b:c9:c0:3d:48:a7:94:
         0b:11:e5:9c:32:1c:f3:72
-----BEGIN CERTIFICATE-----
MIIGrTCCBJWgAwIBAgICF58wDQYJKoZIhvcNAQEEBQAwgawxCzAJBgNVBAYTAlVT
MQswCQYDVQQIEwJPSDERMA8GA1UEBxMIQ29sdW1idXMxEjAQBgNVBAoTCVZpa2lu
Z1ZQTjEdMBsGA1UECxMUTXlPcmdhbml6YXRpb25hbFVuaXQxFTATBgNVBAMTDFZp
a2luZ1ZQTiBDQTEQMA4GA1UEKRMHRWFzeVJTQTEhMB8GCSqGSIb3DQEJARYSbWVA
bXlob3N0Lm15ZG9tYWluMB4XDTE1MDgxMDExNDI1M1oXDTI1MDgwNzExNDI1M1ow
HzEdMBsGA1UEAxMUQ2xpZW50MTg4OUNlcnRlZjk2ZTIwggIiMA0GCSqGSIb3DQEB
AQUAA4ICDwAwggIKAoICAQCcYGR3GLdbeE7MY2+3h8X/nFA0De5+4I/zQ5yupO0A
ZknqbP/qf4zmlWPiABXoT10BbFtIETIRY7M8LR09M6Hf7LGyIGRpc0VblrejoUH1
CxM8B0snDT0TALH73moLb9KApi1ps7Fz0OhFef1NoEB2LqpR12UQ3n/syXG8mbx7
AkFe60W7bL8WaKqAXtTWS+aNTcDeT5p1iAcjL3iI7DCP8j7A1pxM6pfFxEgu8Dqx
ndlUGalqrUiM+xleMtpgEHwuSUH9EbteD1Me0MCTMwY2M8Y7mVlYj5Zm+7bgZkwE
cI3Dwp10v5c7ThBQp2P5J7/55ygkIg6Xz/g//r2ps2pnBU88jf5VafZeauiCbmYq
F61GW0SS2r9fOUbzw/G9gBAskgv2qLXEXi284QY7rcODFDNwW7359pFv1WAhejfj
tdsNOwBpCBmlrM6QAcfWSQvbeRG2TTdTSK0Gxu9EISjbDSy3fG1OlBrr828WJNSE
0jR+qMPmPi3kIDIoDIu3rg620WVJ4BOsfu/leYtXiT0fV2Hpcr7nh9eO8f1nR9Oz
0+zeexhs57AZKGTNOM/VvkEp8Z0Tru3lTq2Hce02yNz0ZrUOY8TLBueyTcIVxfWq
/k9ju4rhc8PeF5V77lVxoUDhEDzZ9ARqmRREk6SqV2z9jszXwrn80UfoEFJT/htG
kwIDAQABo4IBYzCCAV8wCQYDVR0TBAIwADAtBglghkgBhvhCAQ0EIBYeRWFzeS1S
U0EgR2VuZXJhdGVkIENlcnRpZmljYXRlMB0GA1UdDgQWBBTqDgDn3CU5WJ28cJFl
e/+fmFeLUTCB4QYDVR0jBIHZMIHWgBQSzWAE0qCAnnDtxpm4eyzGUv0ZoaGBsqSB
rzCBrDELMAkGA1UEBhMCVVMxCzAJBgNVBAgTAk9IMREwDwYDVQQHEwhDb2x1bWJ1
czESMBAGA1UEChMJVmlraW5nVlBOMR0wGwYDVQQLExRNeU9yZ2FuaXphdGlvbmFs
VW5pdDEVMBMGA1UEAxMMVmlraW5nVlBOIENBMRAwDgYDVQQpEwdFYXN5UlNBMSEw
HwYJKoZIhvcNAQkBFhJtZUBteWhvc3QubXlkb21haW6CCQDPNYXugL8qPjATBgNV
HSUEDDAKBggrBgEFBQcDAjALBgNVHQ8EBAMCB4AwDQYJKoZIhvcNAQEEBQADggIB
AKZJWdcKb/IkNWNGpmA5MKSm4OQ3DKYKGZ/Owv+7D8hiTcUNPzBDKoPm2+93RWWx
o7zVG4tkeIQTcmh0OguiYLyb+Elc8CEakWvroFcTdyxblpjnV5lO463NJtan6F99
sPMffMcIMNIzitnPIXfSERhCAWmgFozi90u7yff87oZ284gT2TKUMXWDKCwVmQa2
0uF/r1tyMxFyBW0B8PLmF5z6AwsnPPIux/k781ZxwZLz00K0rhNwjAHE5ewBViVb
wcPH86Ope3GlINs79XifQvdD8l0yKzyF7F/UgTLQfESniv5SiaMeodvNNl4fkU52
qqfl+xOQuIB8SUzTJcRMaYer9ytXVqIBz15s3tomMioSLhe6WVTKrWVS8jRaoiJ+
PsVZRC1lYp00yBwwNfDlcrn8Zmdz8I/WujYeK4ETR18eHt4P3e1FzTWz8PschdZj
rPWLfsghmNMlitbtRVyEVXVtwES8iZOexwi65RAX4lTQRv5HhaQ0Z04icjpiNSL1
EuR1OY7jkhHMUosyTkRZti9vJ3qd+5v0L7weIJoNMyjfOBJ4PGs8JtrUnmo+l6O6
ZKxqZmXicasigmCJqwAr1wo3TzEIrzEII0XODsuAoauXblGphIuO616ZGh9klilT
BZCDgK/tN9kDS3RZFhp24j5te8nAPUinlAsR5ZwyHPNy
-----END CERTIFICATE-----
