Certificate:
    Data:
        Version: 3 (0x2)
        Serial Number: 6054 (0x17a6)
    Signature Algorithm: md5WithRSAEncryption
        Issuer: C=US, ST=OH, L=Columbus, O=VikingVPN, OU=MyOrganizationalUnit, CN=VikingVPN CA/name=EasyRSA/emailAddress=me@myhost.mydomain
        Validity
            Not Before: Aug 10 18:21:25 2015 GMT
            Not After : Aug  7 18:21:25 2025 GMT
        Subject: CN=Client1890Cert93f553
        Subject Public Key Info:
            Public Key Algorithm: rsaEncryption
                Public-Key: (4096 bit)
                Modulus:
                    00:c0:ad:34:17:2d:2d:02:84:25:02:d1:76:10:e2:
                    4d:26:e0:77:b5:20:cc:f4:ca:b1:d5:fa:2d:c4:5d:
                    05:99:4c:0f:89:30:04:35:9c:6e:31:4a:3c:e3:7e:
                    5f:0c:1a:f6:9b:b9:7d:e9:54:a7:5c:10:8e:0e:69:
                    0b:a4:ce:2f:49:95:03:d8:2c:c0:95:f5:dd:d8:e1:
                    48:1c:1c:92:2e:64:0a:8b:13:5f:52:1c:59:88:6a:
                    ca:38:18:d8:5b:b2:52:e4:b3:fa:55:15:0a:29:a9:
                    42:4e:3e:b0:ad:09:82:0d:d4:31:69:81:4c:8f:51:
                    58:ab:9f:52:93:ea:67:4b:83:79:a9:ad:2d:1c:1e:
                    aa:d9:34:13:57:70:4a:b0:2a:59:a3:51:60:87:c5:
                    11:8f:2f:2f:12:52:fd:b2:53:1d:6d:a8:de:b2:dd:
                    b3:9e:7a:80:35:a5:a3:40:6b:37:12:da:a2:a6:65:
                    97:b0:06:34:c1:06:cc:06:c3:e3:f1:67:c0:12:a5:
                    0e:a4:15:bc:30:24:1d:74:00:4e:32:9b:0b:a4:2d:
                    9f:01:25:ac:6c:28:d3:71:94:d1:f0:49:36:cf:0b:
                    ba:32:98:6a:2e:3d:d2:d6:b7:e5:cb:5e:30:cb:dc:
                    99:47:ee:4e:cb:1d:01:a2:ad:eb:0f:ef:c9:ae:47:
                    42:1e:75:81:06:9b:b7:f0:13:ee:84:a6:10:35:93:
                    27:2d:96:d5:3a:ef:72:4c:2a:81:b1:7b:07:52:38:
                    e0:3e:f6:fb:cb:c2:93:c9:8d:94:d1:7c:52:dd:72:
                    0c:4c:16:75:5f:c2:fd:75:df:06:17:ec:c7:d4:55:
                    e5:d2:25:c2:d2:76:10:18:e7:0c:38:1f:65:74:30:
                    33:b8:4a:d9:c4:1c:82:1b:44:25:6b:42:33:db:48:
                    35:bc:8b:8a:69:5b:0c:ca:16:13:17:f0:a8:54:4c:
                    77:ba:e0:a7:37:d1:85:91:bd:8c:d5:52:48:9d:be:
                    b2:96:87:d9:6c:ce:5c:ea:71:5f:75:54:6c:8d:2f:
                    7a:aa:4a:6d:d5:91:be:39:f0:f1:83:5f:e0:c0:fc:
                    23:1a:fc:b1:09:3a:ca:37:cd:cd:9b:1a:cd:50:41:
                    2a:ca:86:4b:d4:c0:86:06:a4:3d:22:82:9e:71:4d:
                    e0:b8:44:3b:e1:9f:ba:26:b1:63:47:49:35:1e:34:
                    28:31:16:ae:cc:13:17:17:12:dc:97:3d:f0:2a:c3:
                    61:db:60:62:25:f9:54:08:27:28:05:3c:6c:1f:4d:
                    cd:51:ed:e4:88:57:48:b7:06:7d:04:9a:bd:c7:4d:
                    e3:2c:5c:f3:fb:60:13:0d:dc:cc:3a:2b:ed:ca:a4:
                    bd:94:7b
                Exponent: 65537 (0x10001)
        X509v3 extensions:
            X509v3 Basic Constraints: 
                CA:FALSE
            Netscape Comment: 
                Easy-RSA Generated Certificate
            X509v3 Subject Key Identifier: 
                BF:F8:E4:36:3E:B7:6B:73:FE:38:F6:79:1C:0F:27:0A:20:54:DC:8D
            X509v3 Authority Key Identifier: 
                keyid:12:CD:60:04:D2:A0:80:9E:70:ED:C6:99:B8:7B:2C:C6:52:FD:19:A1
                DirName:/C=US/ST=OH/L=Columbus/O=VikingVPN/OU=MyOrganizationalUnit/CN=VikingVPN CA/name=EasyRSA/emailAddress=me@myhost.mydomain
                serial:CF:35:85:EE:80:BF:2A:3E

            X509v3 Extended Key Usage: 
                TLS Web Client Authentication
            X509v3 Key Usage: 
                Digital Signature
    Signature Algorithm: md5WithRSAEncryption
         31:57:e9:76:98:30:df:20:6a:f4:ac:f7:c3:ed:2d:23:4b:67:
         74:ba:c1:2a:70:1b:b7:25:eb:ef:58:26:45:04:9f:83:19:b6:
         df:a8:95:3f:de:f2:97:d4:4d:2a:46:05:c9:e1:84:2c:b2:fb:
         91:b6:f0:e1:1a:95:84:e5:8d:f2:75:fa:d8:e1:db:ed:21:1d:
         b0:9e:fb:35:5a:0c:eb:55:03:3f:84:37:dc:d3:ec:11:60:25:
         e0:a0:85:76:87:5a:ea:cc:d1:2a:0e:5b:06:ed:81:ac:49:36:
         85:97:af:2b:46:b1:49:e6:77:b3:c3:e1:27:0a:43:6a:05:30:
         7f:d4:a0:a4:d3:e4:2c:95:4b:e7:b5:64:ff:3d:a0:8b:4b:bd:
         b4:c0:49:69:5f:dd:f2:4c:ad:17:2c:dd:62:c5:aa:28:05:8c:
         9e:63:ed:a4:65:e0:d8:cb:10:9c:36:51:f2:a4:45:f4:7c:cd:
         90:39:78:d3:65:b5:f6:55:4b:0c:05:fa:36:46:0a:cc:25:5e:
         33:fb:39:df:a0:88:ea:ad:c7:65:f6:b6:23:7b:d5:d7:e1:d7:
         45:d7:b4:ba:ac:03:8d:96:a2:42:ef:d9:05:dc:ae:69:0c:5f:
         ef:4f:ef:3b:26:c4:78:62:3c:d7:cf:cf:a1:57:67:ae:5a:f9:
         d2:1b:3b:a2:1e:37:77:39:ff:01:19:a9:3d:fa:45:bf:71:69:
         f2:1b:2c:c4:fe:f9:70:58:ea:83:f8:d3:1a:50:b2:c8:9e:a9:
         ec:6f:ba:00:8a:2c:73:86:ca:63:72:f9:b2:6d:1f:3c:ce:1f:
         10:c6:65:87:f1:3b:85:4b:6c:9b:69:bf:7e:f8:2d:f0:71:48:
         57:c4:65:f4:e2:c8:91:7b:4e:3a:e0:d0:d7:ed:94:72:23:fc:
         db:ba:b1:55:80:af:69:3f:c2:27:0f:6e:a8:9e:d7:f9:1a:b2:
         d9:c2:bf:e6:0b:5d:4a:74:5e:9d:09:b4:77:e3:b9:4b:d0:86:
         dd:33:a4:de:ec:99:ff:69:f7:c8:3b:77:46:30:4f:85:2c:ac:
         e7:25:69:26:39:49:04:82:00:ce:da:2a:45:95:8d:e0:b9:44:
         0e:da:81:23:13:42:23:ac:fc:e4:c8:83:68:62:8e:50:1f:aa:
         e6:1a:6f:f7:fe:e5:9a:2d:c1:b2:39:a1:09:26:26:65:df:e9:
         02:a5:fa:aa:72:fa:cc:c3:b2:3e:99:7a:62:8d:af:4c:34:6f:
         c3:0c:67:8f:ed:77:3b:be:6e:e2:6e:75:00:5b:04:00:c9:e5:
         20:79:03:ae:cf:44:1c:fd:42:2b:fc:51:f8:13:d4:42:53:72:
         12:a2:c4:f9:6b:39:dd:d5
-----BEGIN CERTIFICATE-----
MIIGrTCCBJWgAwIBAgICF6YwDQYJKoZIhvcNAQEEBQAwgawxCzAJBgNVBAYTAlVT
MQswCQYDVQQIEwJPSDERMA8GA1UEBxMIQ29sdW1idXMxEjAQBgNVBAoTCVZpa2lu
Z1ZQTjEdMBsGA1UECxMUTXlPcmdhbml6YXRpb25hbFVuaXQxFTATBgNVBAMTDFZp
a2luZ1ZQTiBDQTEQMA4GA1UEKRMHRWFzeVJTQTEhMB8GCSqGSIb3DQEJARYSbWVA
bXlob3N0Lm15ZG9tYWluMB4XDTE1MDgxMDE4MjEyNVoXDTI1MDgwNzE4MjEyNVow
HzEdMBsGA1UEAxMUQ2xpZW50MTg5MENlcnQ5M2Y1NTMwggIiMA0GCSqGSIb3DQEB
AQUAA4ICDwAwggIKAoICAQDArTQXLS0ChCUC0XYQ4k0m4He1IMz0yrHV+i3EXQWZ
TA+JMAQ1nG4xSjzjfl8MGvabuX3pVKdcEI4OaQukzi9JlQPYLMCV9d3Y4UgcHJIu
ZAqLE19SHFmIaso4GNhbslLks/pVFQopqUJOPrCtCYIN1DFpgUyPUVirn1KT6mdL
g3mprS0cHqrZNBNXcEqwKlmjUWCHxRGPLy8SUv2yUx1tqN6y3bOeeoA1paNAazcS
2qKmZZewBjTBBswGw+PxZ8ASpQ6kFbwwJB10AE4ymwukLZ8BJaxsKNNxlNHwSTbP
C7oymGouPdLWt+XLXjDL3JlH7k7LHQGiresP78muR0IedYEGm7fwE+6EphA1kyct
ltU673JMKoGxewdSOOA+9vvLwpPJjZTRfFLdcgxMFnVfwv113wYX7MfUVeXSJcLS
dhAY5ww4H2V0MDO4StnEHIIbRCVrQjPbSDW8i4ppWwzKFhMX8KhUTHe64Kc30YWR
vYzVUkidvrKWh9lszlzqcV91VGyNL3qqSm3Vkb458PGDX+DA/CMa/LEJOso3zc2b
Gs1QQSrKhkvUwIYGpD0igp5xTeC4RDvhn7omsWNHSTUeNCgxFq7MExcXEtyXPfAq
w2HbYGIl+VQIJygFPGwfTc1R7eSIV0i3Bn0Emr3HTeMsXPP7YBMN3Mw6K+3KpL2U
ewIDAQABo4IBYzCCAV8wCQYDVR0TBAIwADAtBglghkgBhvhCAQ0EIBYeRWFzeS1S
U0EgR2VuZXJhdGVkIENlcnRpZmljYXRlMB0GA1UdDgQWBBS/+OQ2Prdrc/449nkc
DycKIFTcjTCB4QYDVR0jBIHZMIHWgBQSzWAE0qCAnnDtxpm4eyzGUv0ZoaGBsqSB
rzCBrDELMAkGA1UEBhMCVVMxCzAJBgNVBAgTAk9IMREwDwYDVQQHEwhDb2x1bWJ1
czESMBAGA1UEChMJVmlraW5nVlBOMR0wGwYDVQQLExRNeU9yZ2FuaXphdGlvbmFs
VW5pdDEVMBMGA1UEAxMMVmlraW5nVlBOIENBMRAwDgYDVQQpEwdFYXN5UlNBMSEw
HwYJKoZIhvcNAQkBFhJtZUBteWhvc3QubXlkb21haW6CCQDPNYXugL8qPjATBgNV
HSUEDDAKBggrBgEFBQcDAjALBgNVHQ8EBAMCB4AwDQYJKoZIhvcNAQEEBQADggIB
ADFX6XaYMN8gavSs98PtLSNLZ3S6wSpwG7cl6+9YJkUEn4MZtt+olT/e8pfUTSpG
BcnhhCyy+5G28OEalYTljfJ1+tjh2+0hHbCe+zVaDOtVAz+EN9zT7BFgJeCghXaH
WurM0SoOWwbtgaxJNoWXrytGsUnmd7PD4ScKQ2oFMH/UoKTT5CyVS+e1ZP89oItL
vbTASWlf3fJMrRcs3WLFqigFjJ5j7aRl4NjLEJw2UfKkRfR8zZA5eNNltfZVSwwF
+jZGCswlXjP7Od+giOqtx2X2tiN71dfh10XXtLqsA42WokLv2QXcrmkMX+9P7zsm
xHhiPNfPz6FXZ65a+dIbO6IeN3c5/wEZqT36Rb9xafIbLMT++XBY6oP40xpQssie
qexvugCKLHOGymNy+bJtHzzOHxDGZYfxO4VLbJtpv374LfBxSFfEZfTiyJF7Tjrg
0NftlHIj/Nu6sVWAr2k/wicPbqie1/kastnCv+YLXUp0Xp0JtHfjuUvQht0zpN7s
mf9p98g7d0YwT4UsrOclaSY5SQSCAM7aKkWVjeC5RA7agSMTQiOs/OTIg2hijlAf
quYab/f+5ZotwbI5oQkmJmXf6QKl+qpy+szDsj6ZemKNr0w0b8MMZ4/tdzu+buJu
dQBbBADJ5SB5A67PRBz9Qiv8UfgT1EJTchKixPlrOd3V
-----END CERTIFICATE-----
