Certificate:
    Data:
        Version: 3 (0x2)
        Serial Number: 6066 (0x17b2)
    Signature Algorithm: md5WithRSAEncryption
        Issuer: C=US, ST=OH, L=Columbus, O=VikingVPN, OU=MyOrganizationalUnit, CN=VikingVPN CA/name=EasyRSA/emailAddress=me@myhost.mydomain
        Validity
            Not Before: Aug 12 21:25:21 2015 GMT
            Not After : Aug  9 21:25:21 2025 GMT
        Subject: CN=Client1578Cert91cd81
        Subject Public Key Info:
            Public Key Algorithm: rsaEncryption
                Public-Key: (4096 bit)
                Modulus:
                    00:d2:6c:66:01:6b:af:c3:5b:33:c5:70:04:72:ec:
                    54:3d:cb:ac:ac:f8:bf:69:4f:4c:a8:19:e4:01:6e:
                    61:d4:31:2f:aa:8a:d8:90:4b:cb:85:fc:15:3f:49:
                    b6:40:a7:78:d3:d5:f4:eb:be:ca:ae:4e:1a:4a:06:
                    ba:08:1a:81:a0:f1:53:98:63:29:f2:c8:53:e7:e7:
                    59:cc:d7:61:88:8f:77:2b:cb:83:e6:43:01:c7:d6:
                    2c:4a:a4:88:dc:c7:59:d7:82:51:1e:9c:f1:5f:f5:
                    26:a3:65:c7:4b:45:2b:dd:42:af:aa:86:d3:8c:a9:
                    a7:ff:62:da:ba:e4:01:0f:71:3b:74:f0:70:f7:c5:
                    c9:ac:87:22:1d:7c:d6:1e:f9:77:18:76:5b:33:9e:
                    43:02:bb:66:8c:f4:bb:55:1d:fb:56:e8:14:67:8d:
                    fa:93:fb:39:89:ca:ad:d5:6f:0e:10:fd:4f:fe:47:
                    92:d4:dc:67:cb:03:60:aa:e6:ec:98:4a:39:1d:87:
                    f7:6d:b0:a0:fb:e4:c9:bf:37:93:ce:5f:87:5b:0a:
                    81:1b:bf:96:e5:fb:ca:6e:74:84:d5:9d:48:9e:3c:
                    48:c2:3b:e9:cd:81:e6:70:12:ac:84:b3:ce:a7:f4:
                    c0:ae:9f:30:3c:fb:d4:7e:4f:b4:76:60:72:00:c8:
                    a7:79:b5:d6:07:52:bf:95:12:a7:04:e4:48:37:5c:
                    47:d1:b7:53:d8:52:97:d0:f0:78:31:2a:fd:6f:ea:
                    31:0d:85:d3:05:b5:2a:22:37:a5:23:11:83:d4:4e:
                    fb:2f:08:6a:c1:3b:f8:f3:31:4d:ad:28:54:15:79:
                    58:f3:c7:bb:40:3e:ea:99:bc:48:62:eb:fd:8f:fb:
                    59:69:22:a0:eb:a6:f4:46:0f:e3:e0:f5:ea:4e:8f:
                    bc:30:73:5f:de:62:54:7c:b8:5e:53:44:d9:12:ed:
                    86:3e:fc:a4:f2:e1:a9:94:a9:04:04:65:7c:fd:33:
                    69:3f:c8:4f:30:c4:e3:2e:67:f0:9b:d7:b5:0d:b9:
                    84:ee:d6:c9:bf:7f:ce:22:5f:df:c2:8f:76:bf:60:
                    07:54:ad:85:c6:d7:77:ac:ec:0f:73:e1:33:c5:93:
                    4d:0f:82:2d:22:c4:10:75:cb:0b:29:23:eb:6f:ad:
                    89:ac:68:83:de:b7:4a:bc:ab:c4:06:ea:e7:96:de:
                    96:d4:b9:b3:6e:79:87:63:1b:4c:2b:5e:79:82:6a:
                    8d:40:3f:17:21:c7:59:16:1c:49:4f:67:53:fd:0a:
                    33:1a:ca:a0:9a:08:b2:7a:c5:20:f1:37:40:22:53:
                    15:19:d1:90:7f:de:06:9b:13:de:5c:9b:cc:46:be:
                    04:19:63
                Exponent: 65537 (0x10001)
        X509v3 extensions:
            X509v3 Basic Constraints: 
                CA:FALSE
            Netscape Comment: 
                Easy-RSA Generated Certificate
            X509v3 Subject Key Identifier: 
                D5:CB:A2:DF:F2:02:5E:7D:F0:EB:C4:F6:CA:D9:3D:1E:58:87:5A:64
            X509v3 Authority Key Identifier: 
                keyid:12:CD:60:04:D2:A0:80:9E:70:ED:C6:99:B8:7B:2C:C6:52:FD:19:A1
                DirName:/C=US/ST=OH/L=Columbus/O=VikingVPN/OU=MyOrganizationalUnit/CN=VikingVPN CA/name=EasyRSA/emailAddress=me@myhost.mydomain
                serial:CF:35:85:EE:80:BF:2A:3E

            X509v3 Extended Key Usage: 
                TLS Web Client Authentication
            X509v3 Key Usage: 
                Digital Signature
    Signature Algorithm: md5WithRSAEncryption
         15:8b:e7:59:8e:53:66:b2:ff:58:de:33:1c:ed:21:37:cb:a0:
         05:9d:a4:47:e1:9f:f1:16:cf:16:20:c7:e2:9d:49:09:b9:3c:
         9e:50:7d:c7:e4:4d:ed:73:f8:04:7a:66:78:8a:99:2c:e3:9a:
         2a:86:fc:a6:3b:70:50:72:51:e5:49:ba:88:3a:17:d1:81:53:
         3a:41:6d:74:bc:3e:75:cc:49:3f:6c:f3:6f:b3:af:63:34:11:
         ba:94:2e:6e:14:b7:eb:d9:1e:fa:d5:e8:18:53:d1:52:00:45:
         ac:df:67:86:b1:36:4d:a3:31:8f:79:c5:b6:8e:5a:60:22:83:
         4a:60:ef:02:c5:5d:82:48:0e:e9:7d:c2:99:63:1a:0e:53:36:
         5d:9a:a1:5a:7e:de:9b:ec:da:48:fa:3d:96:34:3e:bb:b7:37:
         03:a5:a0:19:5d:92:cb:54:fe:36:30:79:2e:5a:b0:d4:d7:a1:
         a0:a0:0f:21:16:4c:ee:55:4b:67:cc:b4:6f:fc:86:be:f0:66:
         55:4c:f9:9a:05:80:4e:5f:b6:34:53:85:fe:47:62:32:27:b7:
         83:77:be:3c:1b:82:50:da:04:80:bf:32:c3:87:70:08:9e:c1:
         fd:50:95:84:70:8c:2e:ba:7c:9c:5b:76:64:8f:43:c8:e1:99:
         5d:0a:78:ac:5f:f0:32:f3:dc:34:72:18:f8:a5:2b:0e:71:ba:
         c7:e4:32:cd:8c:c6:e1:7b:2c:f4:5d:6c:23:25:c3:85:d5:89:
         64:2f:81:ec:8a:10:27:ef:1b:b9:e7:ce:61:f3:26:d9:60:46:
         7e:2c:28:b4:94:54:81:b6:7d:16:dd:f2:7f:df:bb:ad:77:65:
         bc:ff:d3:77:b5:37:f5:9f:d3:24:53:e6:85:68:95:35:bc:5c:
         aa:c7:d6:11:73:a1:00:be:83:d0:ee:a7:58:0c:80:c6:de:c2:
         72:81:d1:a3:56:72:38:74:96:0d:15:e1:03:5d:d6:88:05:84:
         2e:d6:9f:7d:ce:f6:41:65:97:66:3f:4f:8e:21:18:b9:a6:ef:
         d4:1d:8c:d6:38:66:4d:b6:8e:7a:d3:4c:a4:2e:98:7d:94:74:
         1e:eb:4d:6c:4d:c9:3b:8f:db:a1:6c:2b:de:a2:57:3b:79:c5:
         a7:54:7a:af:18:33:7f:9e:03:8a:5f:88:41:ed:c8:d1:2e:6b:
         10:5c:e7:c0:89:e8:84:82:08:3f:7a:73:65:3f:f8:95:85:89:
         4a:b2:bd:27:aa:2a:df:d8:3f:6b:4e:3d:4a:1c:8b:73:c5:74:
         f3:4a:df:c9:51:ba:0e:69:51:61:2f:f3:8d:6e:dc:bf:df:6d:
         b4:06:3d:ea:2e:68:e2:87
-----BEGIN CERTIFICATE-----
MIIGrTCCBJWgAwIBAgICF7IwDQYJKoZIhvcNAQEEBQAwgawxCzAJBgNVBAYTAlVT
MQswCQYDVQQIEwJPSDERMA8GA1UEBxMIQ29sdW1idXMxEjAQBgNVBAoTCVZpa2lu
Z1ZQTjEdMBsGA1UECxMUTXlPcmdhbml6YXRpb25hbFVuaXQxFTATBgNVBAMTDFZp
a2luZ1ZQTiBDQTEQMA4GA1UEKRMHRWFzeVJTQTEhMB8GCSqGSIb3DQEJARYSbWVA
bXlob3N0Lm15ZG9tYWluMB4XDTE1MDgxMjIxMjUyMVoXDTI1MDgwOTIxMjUyMVow
HzEdMBsGA1UEAxMUQ2xpZW50MTU3OENlcnQ5MWNkODEwggIiMA0GCSqGSIb3DQEB
AQUAA4ICDwAwggIKAoICAQDSbGYBa6/DWzPFcARy7FQ9y6ys+L9pT0yoGeQBbmHU
MS+qitiQS8uF/BU/SbZAp3jT1fTrvsquThpKBroIGoGg8VOYYynyyFPn51nM12GI
j3cry4PmQwHH1ixKpIjcx1nXglEenPFf9SajZcdLRSvdQq+qhtOMqaf/Ytq65AEP
cTt08HD3xcmshyIdfNYe+XcYdlsznkMCu2aM9LtVHftW6BRnjfqT+zmJyq3Vbw4Q
/U/+R5LU3GfLA2Cq5uyYSjkdh/dtsKD75Mm/N5POX4dbCoEbv5bl+8pudITVnUie
PEjCO+nNgeZwEqyEs86n9MCunzA8+9R+T7R2YHIAyKd5tdYHUr+VEqcE5Eg3XEfR
t1PYUpfQ8HgxKv1v6jENhdMFtSoiN6UjEYPUTvsvCGrBO/jzMU2tKFQVeVjzx7tA
PuqZvEhi6/2P+1lpIqDrpvRGD+Pg9epOj7wwc1/eYlR8uF5TRNkS7YY+/KTy4amU
qQQEZXz9M2k/yE8wxOMuZ/Cb17UNuYTu1sm/f84iX9/Cj3a/YAdUrYXG13es7A9z
4TPFk00Pgi0ixBB1ywspI+tvrYmsaIPet0q8q8QG6ueW3pbUubNueYdjG0wrXnmC
ao1APxchx1kWHElPZ1P9CjMayqCaCLJ6xSDxN0AiUxUZ0ZB/3gabE95cm8xGvgQZ
YwIDAQABo4IBYzCCAV8wCQYDVR0TBAIwADAtBglghkgBhvhCAQ0EIBYeRWFzeS1S
U0EgR2VuZXJhdGVkIENlcnRpZmljYXRlMB0GA1UdDgQWBBTVy6Lf8gJeffDrxPbK
2T0eWIdaZDCB4QYDVR0jBIHZMIHWgBQSzWAE0qCAnnDtxpm4eyzGUv0ZoaGBsqSB
rzCBrDELMAkGA1UEBhMCVVMxCzAJBgNVBAgTAk9IMREwDwYDVQQHEwhDb2x1bWJ1
czESMBAGA1UEChMJVmlraW5nVlBOMR0wGwYDVQQLExRNeU9yZ2FuaXphdGlvbmFs
VW5pdDEVMBMGA1UEAxMMVmlraW5nVlBOIENBMRAwDgYDVQQpEwdFYXN5UlNBMSEw
HwYJKoZIhvcNAQkBFhJtZUBteWhvc3QubXlkb21haW6CCQDPNYXugL8qPjATBgNV
HSUEDDAKBggrBgEFBQcDAjALBgNVHQ8EBAMCB4AwDQYJKoZIhvcNAQEEBQADggIB
ABWL51mOU2ay/1jeMxztITfLoAWdpEfhn/EWzxYgx+KdSQm5PJ5QfcfkTe1z+AR6
ZniKmSzjmiqG/KY7cFByUeVJuog6F9GBUzpBbXS8PnXMST9s82+zr2M0EbqULm4U
t+vZHvrV6BhT0VIARazfZ4axNk2jMY95xbaOWmAig0pg7wLFXYJIDul9wpljGg5T
Nl2aoVp+3pvs2kj6PZY0Pru3NwOloBldkstU/jYweS5asNTXoaCgDyEWTO5VS2fM
tG/8hr7wZlVM+ZoFgE5ftjRThf5HYjInt4N3vjwbglDaBIC/MsOHcAiewf1QlYRw
jC66fJxbdmSPQ8jhmV0KeKxf8DLz3DRyGPilKw5xusfkMs2MxuF7LPRdbCMlw4XV
iWQvgeyKECfvG7nnzmHzJtlgRn4sKLSUVIG2fRbd8n/fu613Zbz/03e1N/Wf0yRT
5oVolTW8XKrH1hFzoQC+g9Dup1gMgMbewnKB0aNWcjh0lg0V4QNd1ogFhC7Wn33O
9kFll2Y/T44hGLmm79QdjNY4Zk22jnrTTKQumH2UdB7rTWxNyTuP26FsK96iVzt5
xadUeq8YM3+eA4pfiEHtyNEuaxBc58CJ6ISCCD96c2U/+JWFiUqyvSeqKt/YP2tO
PUoci3PFdPNK38lRug5pUWEv841u3L/fbbQGPeouaOKH
-----END CERTIFICATE-----
