Certificate:
    Data:
        Version: 3 (0x2)
        Serial Number: 6073 (0x17b9)
    Signature Algorithm: md5WithRSAEncryption
        Issuer: C=US, ST=OH, L=Columbus, O=VikingVPN, OU=MyOrganizationalUnit, CN=VikingVPN CA/name=EasyRSA/emailAddress=me@myhost.mydomain
        Validity
            Not Before: Aug 15 05:44:27 2015 GMT
            Not After : Aug 12 05:44:27 2025 GMT
        Subject: CN=Client605Certae0e14
        Subject Public Key Info:
            Public Key Algorithm: rsaEncryption
                Public-Key: (4096 bit)
                Modulus:
                    00:df:c7:0a:72:e8:ee:ac:4e:48:2e:73:bc:b5:8c:
                    e8:4e:d1:cd:55:81:01:e3:ba:92:9c:3a:81:5c:d9:
                    e0:83:51:02:38:77:77:1a:0f:e0:e5:75:d5:ad:c4:
                    a2:6a:22:0c:14:42:8a:25:ba:14:4b:c1:aa:e1:fd:
                    dd:e1:7c:55:f3:33:66:51:d6:1c:0c:24:0b:d8:d3:
                    9c:de:a6:4e:e6:a1:6b:53:8b:90:f7:65:b9:c1:15:
                    00:b5:37:4a:84:25:b8:35:37:82:39:29:b4:0f:34:
                    90:54:8c:27:d3:a8:fc:d3:68:c3:4e:ae:b0:20:9c:
                    a1:a8:51:d2:3b:18:c2:28:dc:6c:e2:ae:90:13:24:
                    c0:70:b6:9f:81:f6:32:1a:0a:69:d9:7c:e6:0c:63:
                    63:69:6f:c7:bd:07:e3:d5:16:ca:87:a6:d9:98:5a:
                    3a:41:20:35:7e:fb:e1:39:8f:67:5f:81:22:24:e0:
                    19:21:9e:14:6c:cb:d9:12:f8:f8:16:e6:f0:7c:c2:
                    c4:20:72:54:d7:a0:f4:9e:c2:a5:f8:0d:d3:40:0a:
                    a9:ef:3e:55:8a:de:31:19:b1:3c:2a:be:89:77:59:
                    d8:c5:d2:65:d6:93:20:93:d7:5a:f1:73:f6:46:7f:
                    c9:fc:7d:6e:61:37:32:ad:09:77:37:4c:8c:49:f6:
                    a1:8a:9d:d0:94:d8:54:02:6e:87:a3:60:c5:8c:a9:
                    a4:e2:f1:e0:77:da:59:21:20:d5:b7:24:ff:4b:92:
                    ae:39:63:92:13:0e:75:d1:62:73:87:83:1a:9d:ae:
                    e6:98:a3:32:8c:96:33:37:da:72:6d:5c:f5:b4:15:
                    45:86:4b:97:90:f8:d7:00:ca:ba:c7:ab:80:ab:e1:
                    59:19:38:7e:95:f9:42:87:db:e7:6c:5e:5d:03:ae:
                    0c:3e:7a:38:c4:41:a3:e7:5c:4a:9b:8e:65:5c:80:
                    a6:f9:d6:6e:9c:4f:a4:a1:4e:d3:5e:77:ac:05:0c:
                    e2:8b:47:bb:d1:df:f8:ff:8f:47:79:e3:79:84:98:
                    bd:32:07:78:c0:3a:07:9c:d6:f7:7b:8e:ee:b9:83:
                    6a:59:b5:2f:b5:ab:79:48:cc:b2:31:3f:e9:34:00:
                    ef:ef:f6:86:27:9b:4f:e5:45:0d:2f:f4:3d:0a:12:
                    1b:bc:5e:34:3d:dd:0d:85:d0:26:67:fe:a3:f3:e3:
                    6d:b2:ee:4c:e7:be:1b:b8:00:ce:fc:06:49:05:05:
                    22:34:f9:52:da:15:00:67:23:95:5d:26:d0:67:81:
                    0c:fd:7e:c2:24:fb:9d:d1:45:39:69:a6:ef:73:fd:
                    93:7f:a5:07:9e:75:39:09:28:b4:b4:d9:39:a1:ce:
                    1d:a2:71
                Exponent: 65537 (0x10001)
        X509v3 extensions:
            X509v3 Basic Constraints: 
                CA:FALSE
            Netscape Comment: 
                Easy-RSA Generated Certificate
            X509v3 Subject Key Identifier: 
                1B:09:3F:AB:F5:DF:7D:1B:8C:28:5B:83:BA:32:E0:E7:ED:8F:65:D5
            X509v3 Authority Key Identifier: 
                keyid:12:CD:60:04:D2:A0:80:9E:70:ED:C6:99:B8:7B:2C:C6:52:FD:19:A1
                DirName:/C=US/ST=OH/L=Columbus/O=VikingVPN/OU=MyOrganizationalUnit/CN=VikingVPN CA/name=EasyRSA/emailAddress=me@myhost.mydomain
                serial:CF:35:85:EE:80:BF:2A:3E

            X509v3 Extended Key Usage: 
                TLS Web Client Authentication
            X509v3 Key Usage: 
                Digital Signature
    Signature Algorithm: md5WithRSAEncryption
         53:ae:8e:04:ae:89:fb:3c:ac:9d:c3:05:8d:8d:b1:aa:3e:48:
         f5:5d:a4:10:a8:41:75:ca:3d:04:d6:fc:a8:be:63:31:54:70:
         f7:62:42:53:50:e2:87:d2:dc:06:61:9c:0d:ab:75:10:15:ae:
         1d:93:54:b6:14:3e:b4:c6:56:30:79:29:97:2b:f2:46:25:b0:
         a2:ab:f7:04:2b:d8:67:2f:4f:ba:69:34:8a:df:c4:02:fe:05:
         f6:83:bd:51:f6:dc:d2:39:ec:08:55:36:59:94:e4:2c:5b:61:
         7e:95:1c:d0:9d:ce:5c:e7:25:2a:6c:c0:39:3f:42:c3:8e:3b:
         25:0d:9d:d5:74:41:50:df:d4:cb:82:18:21:14:3c:a7:13:f0:
         5b:3a:5a:20:83:52:90:5a:f8:89:38:df:57:3b:ac:61:c5:93:
         87:20:85:84:59:27:db:5d:c8:5a:52:ce:56:5e:23:95:d6:18:
         d3:4b:2e:eb:4d:e5:af:a1:9e:0d:4c:6d:e5:ba:1a:1a:da:92:
         67:da:1d:ba:2d:9b:9d:5c:5a:4c:07:99:a9:ea:c3:c4:11:ad:
         33:8b:81:8b:84:4c:6c:8d:b2:7f:ff:a0:27:78:fc:b3:f8:d1:
         b4:ed:94:f9:a8:24:bc:75:a0:59:ea:e5:ae:7f:c2:d7:02:cf:
         ea:aa:87:85:74:dc:8e:1a:2c:d4:72:a6:8c:c0:58:0b:76:06:
         7b:4c:96:33:75:06:a8:f6:7b:9a:30:29:60:ca:65:c7:c8:37:
         a4:b2:8d:d7:50:53:6a:1e:13:f2:c0:b0:51:53:c5:7d:03:e7:
         d6:00:76:d7:23:85:ae:1f:01:dd:68:46:8c:96:8d:ce:a0:ae:
         8f:fd:e5:20:e9:5c:ee:e0:81:7e:92:7e:28:01:ef:4f:be:1e:
         7a:06:61:96:17:31:2e:d0:b2:9a:7b:46:82:2e:42:86:59:1b:
         c1:58:39:1d:f6:08:b0:86:b6:9e:ae:ef:91:a2:29:7f:f8:11:
         4a:ba:8d:65:80:ce:fb:82:18:35:17:9a:5a:52:77:3c:99:9d:
         5d:00:cb:fe:20:84:a9:69:d0:67:33:1a:36:1a:e2:6a:0a:84:
         7e:85:1a:09:c1:cf:f7:32:39:93:ba:35:d0:db:cc:a7:4a:07:
         00:a1:0a:1f:e3:3d:ed:c3:ae:6f:dd:f9:7d:57:10:40:f2:de:
         1f:a9:f4:a2:8e:eb:ff:fc:90:0c:23:a5:67:0c:ab:f8:cf:e2:
         04:8c:a4:01:21:aa:4f:89:c6:6b:6b:29:ff:10:9a:34:a6:64:
         71:5f:fa:27:3d:dd:c9:2e:80:a7:5e:2e:d6:fc:55:17:3a:72:
         e4:90:ea:92:36:80:dc:66
-----BEGIN CERTIFICATE-----
MIIGrDCCBJSgAwIBAgICF7kwDQYJKoZIhvcNAQEEBQAwgawxCzAJBgNVBAYTAlVT
MQswCQYDVQQIEwJPSDERMA8GA1UEBxMIQ29sdW1idXMxEjAQBgNVBAoTCVZpa2lu
Z1ZQTjEdMBsGA1UECxMUTXlPcmdhbml6YXRpb25hbFVuaXQxFTATBgNVBAMTDFZp
a2luZ1ZQTiBDQTEQMA4GA1UEKRMHRWFzeVJTQTEhMB8GCSqGSIb3DQEJARYSbWVA
bXlob3N0Lm15ZG9tYWluMB4XDTE1MDgxNTA1NDQyN1oXDTI1MDgxMjA1NDQyN1ow
HjEcMBoGA1UEAxMTQ2xpZW50NjA1Q2VydGFlMGUxNDCCAiIwDQYJKoZIhvcNAQEB
BQADggIPADCCAgoCggIBAN/HCnLo7qxOSC5zvLWM6E7RzVWBAeO6kpw6gVzZ4INR
Ajh3dxoP4OV11a3EomoiDBRCiiW6FEvBquH93eF8VfMzZlHWHAwkC9jTnN6mTuah
a1OLkPdlucEVALU3SoQluDU3gjkptA80kFSMJ9Oo/NNow06usCCcoahR0jsYwijc
bOKukBMkwHC2n4H2MhoKadl85gxjY2lvx70H49UWyoem2ZhaOkEgNX774TmPZ1+B
IiTgGSGeFGzL2RL4+Bbm8HzCxCByVNeg9J7CpfgN00AKqe8+VYreMRmxPCq+iXdZ
2MXSZdaTIJPXWvFz9kZ/yfx9bmE3Mq0JdzdMjEn2oYqd0JTYVAJuh6NgxYyppOLx
4HfaWSEg1bck/0uSrjljkhMOddFic4eDGp2u5pijMoyWMzfacm1c9bQVRYZLl5D4
1wDKusergKvhWRk4fpX5Qofb52xeXQOuDD56OMRBo+dcSpuOZVyApvnWbpxPpKFO
0153rAUM4otHu9Hf+P+PR3njeYSYvTIHeMA6B5zW93uO7rmDalm1L7WreUjMsjE/
6TQA7+/2hiebT+VFDS/0PQoSG7xeND3dDYXQJmf+o/PjbbLuTOe+G7gAzvwGSQUF
IjT5UtoVAGcjlV0m0GeBDP1+wiT7ndFFOWmm73P9k3+lB551OQkotLTZOaHOHaJx
AgMBAAGjggFjMIIBXzAJBgNVHRMEAjAAMC0GCWCGSAGG+EIBDQQgFh5FYXN5LVJT
QSBHZW5lcmF0ZWQgQ2VydGlmaWNhdGUwHQYDVR0OBBYEFBsJP6v1330bjChbg7oy
4Oftj2XVMIHhBgNVHSMEgdkwgdaAFBLNYATSoICecO3Gmbh7LMZS/RmhoYGypIGv
MIGsMQswCQYDVQQGEwJVUzELMAkGA1UECBMCT0gxETAPBgNVBAcTCENvbHVtYnVz
MRIwEAYDVQQKEwlWaWtpbmdWUE4xHTAbBgNVBAsTFE15T3JnYW5pemF0aW9uYWxV
bml0MRUwEwYDVQQDEwxWaWtpbmdWUE4gQ0ExEDAOBgNVBCkTB0Vhc3lSU0ExITAf
BgkqhkiG9w0BCQEWEm1lQG15aG9zdC5teWRvbWFpboIJAM81he6Avyo+MBMGA1Ud
JQQMMAoGCCsGAQUFBwMCMAsGA1UdDwQEAwIHgDANBgkqhkiG9w0BAQQFAAOCAgEA
U66OBK6J+zysncMFjY2xqj5I9V2kEKhBdco9BNb8qL5jMVRw92JCU1Dih9LcBmGc
Dat1EBWuHZNUthQ+tMZWMHkplyvyRiWwoqv3BCvYZy9Pumk0it/EAv4F9oO9Ufbc
0jnsCFU2WZTkLFthfpUc0J3OXOclKmzAOT9Cw447JQ2d1XRBUN/Uy4IYIRQ8pxPw
WzpaIINSkFr4iTjfVzusYcWThyCFhFkn213IWlLOVl4jldYY00su603lr6GeDUxt
5boaGtqSZ9odui2bnVxaTAeZqerDxBGtM4uBi4RMbI2yf/+gJ3j8s/jRtO2U+agk
vHWgWerlrn/C1wLP6qqHhXTcjhos1HKmjMBYC3YGe0yWM3UGqPZ7mjApYMplx8g3
pLKN11BTah4T8sCwUVPFfQPn1gB21yOFrh8B3WhGjJaNzqCuj/3lIOlc7uCBfpJ+
KAHvT74eegZhlhcxLtCymntGgi5ChlkbwVg5HfYIsIa2nq7vkaIpf/gRSrqNZYDO
+4IYNReaWlJ3PJmdXQDL/iCEqWnQZzMaNhriagqEfoUaCcHP9zI5k7o10NvMp0oH
AKEKH+M97cOub935fVcQQPLeH6n0oo7r//yQDCOlZwyr+M/iBIykASGqT4nGa2sp
/xCaNKZkcV/6Jz3dyS6Ap14u1vxVFzpy5JDqkjaA3GY=
-----END CERTIFICATE-----
