Certificate:
    Data:
        Version: 3 (0x2)
        Serial Number: 6081 (0x17c1)
    Signature Algorithm: md5WithRSAEncryption
        Issuer: C=US, ST=OH, L=Columbus, O=VikingVPN, OU=MyOrganizationalUnit, CN=VikingVPN CA/name=EasyRSA/emailAddress=me@myhost.mydomain
        Validity
            Not Before: Aug 18 22:32:04 2015 GMT
            Not After : Aug 15 22:32:04 2025 GMT
        Subject: CN=Client338Cert120cc0
        Subject Public Key Info:
            Public Key Algorithm: rsaEncryption
                Public-Key: (4096 bit)
                Modulus:
                    00:b9:99:33:9f:9f:61:93:76:79:0a:39:20:5e:3b:
                    76:a7:ae:62:23:e1:51:aa:8b:43:69:8d:a5:c3:08:
                    28:cc:13:b3:99:54:bd:2c:3c:bf:98:29:97:bf:b7:
                    f0:10:89:06:36:ee:4a:29:fa:56:58:5b:c5:55:2f:
                    26:4d:af:99:1f:aa:a3:40:1e:de:b4:c4:7d:0f:cb:
                    a5:5f:fb:04:05:9f:51:8e:14:92:62:ea:80:04:d6:
                    da:e4:38:35:71:1f:0a:22:a0:d2:27:09:1e:9e:36:
                    d6:ac:fd:77:9d:02:90:1d:59:87:1c:56:6d:12:e3:
                    1d:03:fb:d7:2f:ba:cd:08:b7:60:a3:ae:09:e9:e4:
                    a5:53:e2:5d:fc:b9:e4:e9:59:82:4d:09:11:a5:39:
                    bb:c4:ff:fe:ed:47:86:11:40:ca:11:70:7b:5f:7f:
                    b4:40:79:4b:48:d9:96:a8:9e:a2:d9:c9:f4:36:2d:
                    0d:95:14:01:9b:52:b6:31:8e:df:c5:4a:86:13:f5:
                    46:85:56:26:dd:08:a2:6f:10:c5:49:01:69:5b:f8:
                    5b:8f:45:0a:32:4e:de:e3:b4:31:39:ba:71:66:77:
                    89:25:77:69:68:0e:02:d5:07:3c:58:a3:e3:c2:53:
                    4b:60:b0:f3:b4:ff:06:73:45:12:2b:dc:cf:96:da:
                    42:d9:8a:a7:07:9a:30:4a:14:44:e7:35:29:f9:83:
                    f0:a9:89:f7:4e:32:f6:af:cd:e0:31:02:53:85:29:
                    05:68:29:1b:5b:df:48:f2:30:e5:26:0b:d7:13:e3:
                    db:cd:b2:48:11:a2:02:04:59:47:cc:45:99:42:69:
                    6b:ed:64:70:ae:50:ed:f5:9c:31:cf:5c:03:49:ca:
                    24:3f:35:f9:2e:39:61:dc:b9:3c:a6:3b:d3:7b:72:
                    3f:78:69:9f:ed:bf:29:ad:0b:84:03:9a:d5:b9:14:
                    e1:0c:d6:0c:35:cb:80:4e:9f:df:01:e5:51:2b:11:
                    a7:dd:57:43:3e:c7:8d:a5:1a:22:8c:73:1e:13:a1:
                    59:cc:bb:94:66:d0:7c:f9:fd:96:ce:06:45:65:07:
                    ff:18:83:8e:61:ba:e6:55:a9:40:fb:28:9c:47:a7:
                    f8:88:52:57:31:2f:73:99:9b:2f:b1:7c:b0:41:2f:
                    b3:c5:28:db:56:5b:02:08:b9:21:06:3d:32:ca:fe:
                    06:d5:43:a9:3d:b5:9f:29:f3:bb:39:c2:08:87:5f:
                    24:aa:b5:2f:ac:35:4b:7c:11:ac:7a:04:d6:70:bf:
                    f3:9d:5f:23:e5:3b:73:04:79:02:67:ef:da:43:21:
                    64:31:11:f8:c4:df:7f:fc:c9:9d:4c:a1:41:a2:2d:
                    dd:6b:51
                Exponent: 65537 (0x10001)
        X509v3 extensions:
            X509v3 Basic Constraints: 
                CA:FALSE
            Netscape Comment: 
                Easy-RSA Generated Certificate
            X509v3 Subject Key Identifier: 
                43:F9:E3:D6:50:AA:3D:6A:EF:DA:3A:A1:F5:1A:0C:F9:F0:46:9B:B0
            X509v3 Authority Key Identifier: 
                keyid:12:CD:60:04:D2:A0:80:9E:70:ED:C6:99:B8:7B:2C:C6:52:FD:19:A1
                DirName:/C=US/ST=OH/L=Columbus/O=VikingVPN/OU=MyOrganizationalUnit/CN=VikingVPN CA/name=EasyRSA/emailAddress=me@myhost.mydomain
                serial:CF:35:85:EE:80:BF:2A:3E

            X509v3 Extended Key Usage: 
                TLS Web Client Authentication
            X509v3 Key Usage: 
                Digital Signature
    Signature Algorithm: md5WithRSAEncryption
         cc:1f:1c:99:2c:de:cf:11:d6:40:46:b1:69:38:ac:ee:25:01:
         40:10:49:1d:58:11:53:b6:45:da:e3:74:9f:9b:9f:70:93:3f:
         8c:7d:09:66:f5:d7:8b:a0:c6:d1:46:3b:71:7c:2e:6a:aa:43:
         4a:d2:be:78:9b:4d:8e:0f:b3:1e:47:a1:d5:8f:9f:bd:42:6b:
         57:0a:82:40:07:27:03:d0:f4:63:fe:50:03:6b:07:8f:d5:1b:
         c8:fc:2d:40:99:ce:02:12:c7:41:3c:39:4d:7c:fe:b7:31:d9:
         92:cd:25:06:35:96:cd:76:50:26:2b:81:2c:0f:d6:50:f0:49:
         85:da:c5:8b:84:b1:0b:9f:d8:fa:ef:41:21:9c:9e:4c:fd:62:
         43:bd:e6:94:be:7a:2b:8a:87:25:8d:30:d9:0a:ba:da:14:2c:
         91:36:c0:e4:a9:52:19:0b:60:80:33:a2:09:60:d6:72:d3:01:
         49:9a:0c:05:75:28:e4:7a:8a:78:bb:c2:22:39:28:eb:7a:38:
         ad:69:ff:55:ee:f6:06:d7:95:2e:02:2c:ae:d2:39:54:40:b1:
         08:fd:c6:fc:43:7e:44:3e:7f:d6:63:ad:d7:0c:cc:24:68:97:
         6a:3b:d1:c0:96:af:a1:02:03:aa:c2:24:49:2b:c5:3b:cd:b0:
         57:08:77:ac:ca:ba:ce:b4:91:72:c5:15:64:03:bf:3d:c5:23:
         27:3a:a0:59:21:a5:74:f2:cd:72:91:88:d7:d9:4f:78:72:10:
         d5:71:bb:fd:aa:05:90:7a:aa:90:ec:7f:28:5e:bf:a7:54:13:
         c5:c4:f2:b1:e0:dd:b4:79:20:3c:48:26:5e:cc:6c:01:e9:e8:
         9b:dd:ed:0d:58:bd:14:03:b7:a0:df:b3:f5:e7:91:7b:1c:7a:
         97:2d:3d:e2:81:4f:dc:da:86:2d:30:ab:46:50:63:fb:31:14:
         5c:88:82:11:ef:e4:5d:a9:db:2d:94:5f:05:11:24:32:ca:45:
         7c:0f:8b:d9:6f:db:9d:2d:3e:a3:b4:5b:90:8f:34:95:79:f9:
         4f:e6:58:f7:9f:1e:35:a5:7f:14:94:6a:78:fe:c9:38:ba:06:
         0d:31:eb:c1:d4:97:fe:44:c1:91:ec:3b:96:99:cb:19:09:1d:
         4d:32:7d:1e:67:4b:57:a1:48:41:4c:0a:a1:03:5f:a3:f0:10:
         27:db:2d:16:64:11:ac:74:4b:be:f1:a5:a3:11:d5:c8:a1:f9:
         03:c5:03:1f:49:33:50:df:e2:bf:62:5a:88:47:e9:d2:31:d0:
         cb:da:97:83:32:33:aa:4a:3a:b0:5c:aa:d4:4b:2c:64:11:0d:
         c7:f3:89:c3:d4:70:9d:ce
-----BEGIN CERTIFICATE-----
MIIGrDCCBJSgAwIBAgICF8EwDQYJKoZIhvcNAQEEBQAwgawxCzAJBgNVBAYTAlVT
MQswCQYDVQQIEwJPSDERMA8GA1UEBxMIQ29sdW1idXMxEjAQBgNVBAoTCVZpa2lu
Z1ZQTjEdMBsGA1UECxMUTXlPcmdhbml6YXRpb25hbFVuaXQxFTATBgNVBAMTDFZp
a2luZ1ZQTiBDQTEQMA4GA1UEKRMHRWFzeVJTQTEhMB8GCSqGSIb3DQEJARYSbWVA
bXlob3N0Lm15ZG9tYWluMB4XDTE1MDgxODIyMzIwNFoXDTI1MDgxNTIyMzIwNFow
HjEcMBoGA1UEAxMTQ2xpZW50MzM4Q2VydDEyMGNjMDCCAiIwDQYJKoZIhvcNAQEB
BQADggIPADCCAgoCggIBALmZM5+fYZN2eQo5IF47dqeuYiPhUaqLQ2mNpcMIKMwT
s5lUvSw8v5gpl7+38BCJBjbuSin6VlhbxVUvJk2vmR+qo0Ae3rTEfQ/LpV/7BAWf
UY4UkmLqgATW2uQ4NXEfCiKg0icJHp421qz9d50CkB1ZhxxWbRLjHQP71y+6zQi3
YKOuCenkpVPiXfy55OlZgk0JEaU5u8T//u1HhhFAyhFwe19/tEB5S0jZlqieotnJ
9DYtDZUUAZtStjGO38VKhhP1RoVWJt0Iom8QxUkBaVv4W49FCjJO3uO0MTm6cWZ3
iSV3aWgOAtUHPFij48JTS2Cw87T/BnNFEivcz5baQtmKpweaMEoUROc1KfmD8KmJ
904y9q/N4DECU4UpBWgpG1vfSPIw5SYL1xPj282ySBGiAgRZR8xFmUJpa+1kcK5Q
7fWcMc9cA0nKJD81+S45Ydy5PKY703tyP3hpn+2/Ka0LhAOa1bkU4QzWDDXLgE6f
3wHlUSsRp91XQz7HjaUaIoxzHhOhWcy7lGbQfPn9ls4GRWUH/xiDjmG65lWpQPso
nEen+IhSVzEvc5mbL7F8sEEvs8Uo21ZbAgi5IQY9Msr+BtVDqT21nynzuznCCIdf
JKq1L6w1S3wRrHoE1nC/851fI+U7cwR5Amfv2kMhZDER+MTff/zJnUyhQaIt3WtR
AgMBAAGjggFjMIIBXzAJBgNVHRMEAjAAMC0GCWCGSAGG+EIBDQQgFh5FYXN5LVJT
QSBHZW5lcmF0ZWQgQ2VydGlmaWNhdGUwHQYDVR0OBBYEFEP549ZQqj1q79o6ofUa
DPnwRpuwMIHhBgNVHSMEgdkwgdaAFBLNYATSoICecO3Gmbh7LMZS/RmhoYGypIGv
MIGsMQswCQYDVQQGEwJVUzELMAkGA1UECBMCT0gxETAPBgNVBAcTCENvbHVtYnVz
MRIwEAYDVQQKEwlWaWtpbmdWUE4xHTAbBgNVBAsTFE15T3JnYW5pemF0aW9uYWxV
bml0MRUwEwYDVQQDEwxWaWtpbmdWUE4gQ0ExEDAOBgNVBCkTB0Vhc3lSU0ExITAf
BgkqhkiG9w0BCQEWEm1lQG15aG9zdC5teWRvbWFpboIJAM81he6Avyo+MBMGA1Ud
JQQMMAoGCCsGAQUFBwMCMAsGA1UdDwQEAwIHgDANBgkqhkiG9w0BAQQFAAOCAgEA
zB8cmSzezxHWQEaxaTis7iUBQBBJHVgRU7ZF2uN0n5ufcJM/jH0JZvXXi6DG0UY7
cXwuaqpDStK+eJtNjg+zHkeh1Y+fvUJrVwqCQAcnA9D0Y/5QA2sHj9UbyPwtQJnO
AhLHQTw5TXz+tzHZks0lBjWWzXZQJiuBLA/WUPBJhdrFi4SxC5/Y+u9BIZyeTP1i
Q73mlL56K4qHJY0w2Qq62hQskTbA5KlSGQtggDOiCWDWctMBSZoMBXUo5HqKeLvC
Ijko63o4rWn/Ve72BteVLgIsrtI5VECxCP3G/EN+RD5/1mOt1wzMJGiXajvRwJav
oQIDqsIkSSvFO82wVwh3rMq6zrSRcsUVZAO/PcUjJzqgWSGldPLNcpGI19lPeHIQ
1XG7/aoFkHqqkOx/KF6/p1QTxcTyseDdtHkgPEgmXsxsAenom93tDVi9FAO3oN+z
9eeRexx6ly094oFP3NqGLTCrRlBj+zEUXIiCEe/kXanbLZRfBREkMspFfA+L2W/b
nS0+o7RbkI80lXn5T+ZY958eNaV/FJRqeP7JOLoGDTHrwdSX/kTBkew7lpnLGQkd
TTJ9HmdLV6FIQUwKoQNfo/AQJ9stFmQRrHRLvvGloxHVyKH5A8UDH0kzUN/iv2Ja
iEfp0jHQy9qXgzIzqko6sFyq1EssZBENx/OJw9Rwnc4=
-----END CERTIFICATE-----
