Certificate:
    Data:
        Version: 3 (0x2)
        Serial Number: 6099 (0x17d3)
    Signature Algorithm: md5WithRSAEncryption
        Issuer: C=US, ST=OH, L=Columbus, O=VikingVPN, OU=MyOrganizationalUnit, CN=VikingVPN CA/name=EasyRSA/emailAddress=me@myhost.mydomain
        Validity
            Not Before: Aug 20 20:51:13 2015 GMT
            Not After : Aug 17 20:51:13 2025 GMT
        Subject: CN=Client1836Certd9887e
        Subject Public Key Info:
            Public Key Algorithm: rsaEncryption
                Public-Key: (4096 bit)
                Modulus:
                    00:a9:f5:8c:b3:54:26:48:71:cf:67:11:cb:a4:5f:
                    ee:3c:b5:00:d2:21:23:7b:7c:b0:b5:c8:30:49:6d:
                    21:44:14:0c:97:44:68:89:83:92:83:30:d0:a4:d2:
                    2d:49:bf:3b:2b:cf:14:e1:2e:06:1e:c0:97:f1:18:
                    2b:67:43:c8:e7:cf:3d:2b:e6:ea:0e:23:bf:d8:ab:
                    b9:f1:fb:16:23:87:08:97:43:d2:56:0b:49:a3:cf:
                    70:00:05:51:a5:57:a4:0e:ee:e2:54:91:f6:5b:96:
                    3e:a7:93:1f:31:e8:b9:4d:86:be:16:79:4d:99:b6:
                    fc:56:da:9a:d6:4f:8c:6e:48:d2:ce:b6:dd:30:26:
                    43:c0:5f:1d:88:17:32:6e:35:ae:e2:aa:c3:4b:81:
                    8b:04:12:99:f1:ac:d9:42:35:55:58:1f:ed:ca:8c:
                    b0:d7:89:f8:9b:48:f3:28:be:74:85:29:41:89:81:
                    24:23:b1:8d:70:79:8a:47:14:52:c8:75:00:3e:25:
                    4d:d9:f1:74:41:88:26:aa:31:6d:30:45:84:a6:1d:
                    3b:db:19:c6:8a:ce:fa:5c:e5:b8:6c:ae:48:31:9c:
                    69:dc:ce:65:21:50:12:11:b3:bb:6c:9e:5b:51:e6:
                    55:00:fb:58:02:33:73:a6:99:c8:42:c9:ba:12:e6:
                    44:e9:e7:08:a8:22:08:38:03:46:c9:0c:bc:db:2e:
                    dd:b2:05:40:b9:25:04:32:2c:ee:c9:dd:f6:00:89:
                    6e:3f:50:2f:07:b8:e7:77:0f:83:fb:76:7c:80:5e:
                    f0:66:f7:5a:d0:aa:64:f3:d2:40:6f:e7:a1:c4:d7:
                    f5:c7:f0:b3:07:dc:1f:82:c2:64:62:c0:93:8c:e8:
                    e3:7a:69:06:1b:84:05:80:59:cf:34:ee:f3:90:90:
                    a3:29:df:d4:4f:64:62:a0:25:b3:77:98:20:c5:1e:
                    ac:08:33:45:71:e2:35:85:c8:aa:eb:eb:b8:ae:af:
                    02:f4:c9:ef:ae:44:a2:b8:43:51:ef:cf:cb:65:af:
                    a4:da:16:0e:23:ae:e6:79:57:a5:7b:a5:d4:13:85:
                    25:e1:6b:7c:a6:aa:a0:32:0d:9b:36:a5:64:ea:cf:
                    94:76:69:54:3e:57:24:c5:e6:7d:90:ef:8f:85:8c:
                    cd:ab:db:ed:7f:19:90:5d:42:5a:98:63:29:9c:2f:
                    01:63:a4:7f:d4:2c:66:e6:62:6e:a1:03:78:a7:4d:
                    b2:9c:99:33:73:41:33:ea:2a:3b:46:63:c9:72:49:
                    31:b5:25:5a:9c:e8:bd:b5:c8:e9:7d:6b:5c:b2:82:
                    19:bc:73:36:00:cf:c3:c5:16:fa:3d:9c:78:8b:de:
                    ba:0b:7d
                Exponent: 65537 (0x10001)
        X509v3 extensions:
            X509v3 Basic Constraints: 
                CA:FALSE
            Netscape Comment: 
                Easy-RSA Generated Certificate
            X509v3 Subject Key Identifier: 
                98:23:2C:22:CD:D9:B6:1D:0C:D6:69:C0:27:FD:6F:EB:04:F3:C4:3E
            X509v3 Authority Key Identifier: 
                keyid:12:CD:60:04:D2:A0:80:9E:70:ED:C6:99:B8:7B:2C:C6:52:FD:19:A1
                DirName:/C=US/ST=OH/L=Columbus/O=VikingVPN/OU=MyOrganizationalUnit/CN=VikingVPN CA/name=EasyRSA/emailAddress=me@myhost.mydomain
                serial:CF:35:85:EE:80:BF:2A:3E

            X509v3 Extended Key Usage: 
                TLS Web Client Authentication
            X509v3 Key Usage: 
                Digital Signature
    Signature Algorithm: md5WithRSAEncryption
         ad:65:ba:b1:69:b7:2d:16:ff:7a:9f:a6:be:40:bf:2e:2c:d9:
         c4:31:9e:c4:a5:e6:64:3d:ff:32:ed:be:f0:6c:df:72:fb:3f:
         59:99:4b:b1:aa:6a:fd:59:4f:30:21:4e:f8:6f:98:56:0b:c9:
         d9:1c:81:06:e7:97:62:33:7f:e7:9b:19:5f:31:61:ee:fa:33:
         b7:9c:83:e5:ea:84:d0:f3:15:2b:1b:c3:d6:0a:56:3a:89:5a:
         c4:1f:62:63:de:b5:d2:8e:f3:c3:82:97:37:af:cd:5c:61:39:
         ea:68:a2:47:28:d4:b9:4b:51:84:27:3b:e0:f7:a9:a8:f5:7c:
         83:8c:ff:80:8f:03:5b:2d:be:b2:49:9d:bd:5c:c1:1c:91:cb:
         af:63:cd:21:93:6e:0b:4f:0f:22:74:18:38:bd:e6:40:b0:eb:
         7a:15:9e:38:23:91:0b:fb:00:b3:c6:b1:68:b8:73:12:79:c5:
         ea:21:e7:f5:2c:d0:2b:d6:aa:dc:d4:ec:27:64:2d:9c:a1:13:
         a1:07:8e:a8:67:a6:0e:ed:99:b9:99:26:7a:ac:01:8f:ae:9b:
         d5:81:40:7d:c4:13:53:a3:ce:30:b6:ab:9b:9e:63:5f:b2:f4:
         6a:61:52:cd:a6:3f:f1:eb:0e:e0:21:14:88:ad:8b:2f:a8:d9:
         c6:02:9b:8f:fe:75:ed:ea:4a:f5:b6:9c:4d:e9:e8:c5:d5:1b:
         fb:2d:0c:af:b0:31:b9:46:8f:16:15:fd:6e:34:bf:11:15:0a:
         85:3f:b4:ff:05:93:2f:d1:31:e9:78:c1:b0:05:27:fc:18:28:
         02:a3:37:b5:81:a4:aa:31:4f:3c:5d:84:6d:36:72:f1:7a:73:
         20:43:f6:f4:1b:cb:c4:a0:ca:13:4d:97:1d:32:46:29:d3:4b:
         4f:3a:11:45:70:ce:e8:e8:ee:dc:f4:8c:f1:1d:b8:44:72:08:
         ef:33:20:07:a3:79:0d:b4:b8:cb:78:28:05:8f:4e:f8:65:6a:
         2e:53:37:9f:fe:48:dd:44:d4:b5:28:8b:5b:87:b8:b8:67:b7:
         64:8d:74:e1:e3:49:fb:43:e0:38:db:d2:10:2e:bb:f2:ee:cb:
         0b:97:cb:aa:d9:ea:99:21:1b:d4:f8:2a:ed:f9:56:06:e9:ab:
         be:c2:0a:a1:27:a7:e3:c6:ee:cc:e5:7c:0e:dc:a2:19:fd:05:
         96:9b:e0:0c:74:fe:ff:f9:03:4f:3a:78:4c:53:24:69:60:57:
         f0:04:a3:88:90:f9:fa:a3:17:b8:51:93:ed:3d:0d:31:2b:45:
         ae:b8:87:b3:2c:23:36:a5:5b:bf:74:0e:7d:f1:ea:63:35:af:
         f7:b8:70:8b:96:19:5a:07
-----BEGIN CERTIFICATE-----
MIIGrTCCBJWgAwIBAgICF9MwDQYJKoZIhvcNAQEEBQAwgawxCzAJBgNVBAYTAlVT
MQswCQYDVQQIEwJPSDERMA8GA1UEBxMIQ29sdW1idXMxEjAQBgNVBAoTCVZpa2lu
Z1ZQTjEdMBsGA1UECxMUTXlPcmdhbml6YXRpb25hbFVuaXQxFTATBgNVBAMTDFZp
a2luZ1ZQTiBDQTEQMA4GA1UEKRMHRWFzeVJTQTEhMB8GCSqGSIb3DQEJARYSbWVA
bXlob3N0Lm15ZG9tYWluMB4XDTE1MDgyMDIwNTExM1oXDTI1MDgxNzIwNTExM1ow
HzEdMBsGA1UEAxMUQ2xpZW50MTgzNkNlcnRkOTg4N2UwggIiMA0GCSqGSIb3DQEB
AQUAA4ICDwAwggIKAoICAQCp9YyzVCZIcc9nEcukX+48tQDSISN7fLC1yDBJbSFE
FAyXRGiJg5KDMNCk0i1JvzsrzxThLgYewJfxGCtnQ8jnzz0r5uoOI7/Yq7nx+xYj
hwiXQ9JWC0mjz3AABVGlV6QO7uJUkfZblj6nkx8x6LlNhr4WeU2ZtvxW2prWT4xu
SNLOtt0wJkPAXx2IFzJuNa7iqsNLgYsEEpnxrNlCNVVYH+3KjLDXifibSPMovnSF
KUGJgSQjsY1weYpHFFLIdQA+JU3Z8XRBiCaqMW0wRYSmHTvbGcaKzvpc5bhsrkgx
nGnczmUhUBIRs7tsnltR5lUA+1gCM3OmmchCyboS5kTp5wioIgg4A0bJDLzbLt2y
BUC5JQQyLO7J3fYAiW4/UC8HuOd3D4P7dnyAXvBm91rQqmTz0kBv56HE1/XH8LMH
3B+CwmRiwJOM6ON6aQYbhAWAWc807vOQkKMp39RPZGKgJbN3mCDFHqwIM0Vx4jWF
yKrr67iurwL0ye+uRKK4Q1Hvz8tlr6TaFg4jruZ5V6V7pdQThSXha3ymqqAyDZs2
pWTqz5R2aVQ+VyTF5n2Q74+FjM2r2+1/GZBdQlqYYymcLwFjpH/ULGbmYm6hA3in
TbKcmTNzQTPqKjtGY8lySTG1JVqc6L21yOl9a1yyghm8czYAz8PFFvo9nHiL3roL
fQIDAQABo4IBYzCCAV8wCQYDVR0TBAIwADAtBglghkgBhvhCAQ0EIBYeRWFzeS1S
U0EgR2VuZXJhdGVkIENlcnRpZmljYXRlMB0GA1UdDgQWBBSYIywizdm2HQzWacAn
/W/rBPPEPjCB4QYDVR0jBIHZMIHWgBQSzWAE0qCAnnDtxpm4eyzGUv0ZoaGBsqSB
rzCBrDELMAkGA1UEBhMCVVMxCzAJBgNVBAgTAk9IMREwDwYDVQQHEwhDb2x1bWJ1
czESMBAGA1UEChMJVmlraW5nVlBOMR0wGwYDVQQLExRNeU9yZ2FuaXphdGlvbmFs
VW5pdDEVMBMGA1UEAxMMVmlraW5nVlBOIENBMRAwDgYDVQQpEwdFYXN5UlNBMSEw
HwYJKoZIhvcNAQkBFhJtZUBteWhvc3QubXlkb21haW6CCQDPNYXugL8qPjATBgNV
HSUEDDAKBggrBgEFBQcDAjALBgNVHQ8EBAMCB4AwDQYJKoZIhvcNAQEEBQADggIB
AK1lurFpty0W/3qfpr5Avy4s2cQxnsSl5mQ9/zLtvvBs33L7P1mZS7Gqav1ZTzAh
TvhvmFYLydkcgQbnl2Izf+ebGV8xYe76M7ecg+XqhNDzFSsbw9YKVjqJWsQfYmPe
tdKO88OClzevzVxhOepookco1LlLUYQnO+D3qaj1fIOM/4CPA1stvrJJnb1cwRyR
y69jzSGTbgtPDyJ0GDi95kCw63oVnjgjkQv7ALPGsWi4cxJ5xeoh5/Us0CvWqtzU
7CdkLZyhE6EHjqhnpg7tmbmZJnqsAY+um9WBQH3EE1OjzjC2q5ueY1+y9GphUs2m
P/HrDuAhFIitiy+o2cYCm4/+de3qSvW2nE3p6MXVG/stDK+wMblGjxYV/W40vxEV
CoU/tP8Fky/RMel4wbAFJ/wYKAKjN7WBpKoxTzxdhG02cvF6cyBD9vQby8SgyhNN
lx0yRinTS086EUVwzujo7tz0jPEduERyCO8zIAejeQ20uMt4KAWPTvhlai5TN5/+
SN1E1LUoi1uHuLhnt2SNdOHjSftD4Djb0hAuu/LuywuXy6rZ6pkhG9T4Ku35Vgbp
q77CCqEnp+PG7szlfA7cohn9BZab4Ax0/v/5A086eExTJGlgV/AEo4iQ+fqjF7hR
k+09DTErRa64h7MsIzalW790Dn3x6mM1r/e4cIuWGVoH
-----END CERTIFICATE-----
