Certificate:
    Data:
        Version: 3 (0x2)
        Serial Number: 6111 (0x17df)
    Signature Algorithm: md5WithRSAEncryption
        Issuer: C=US, ST=OH, L=Columbus, O=VikingVPN, OU=MyOrganizationalUnit, CN=VikingVPN CA/name=EasyRSA/emailAddress=me@myhost.mydomain
        Validity
            Not Before: Aug 22 01:19:37 2015 GMT
            Not After : Aug 19 01:19:37 2025 GMT
        Subject: CN=Client1837Cert50ef6b
        Subject Public Key Info:
            Public Key Algorithm: rsaEncryption
                Public-Key: (4096 bit)
                Modulus:
                    00:fb:6d:29:85:10:15:ed:a1:45:75:7e:3a:c2:93:
                    72:42:4f:ba:88:06:56:ca:d8:5f:2c:68:cf:f8:74:
                    c5:97:f2:c6:53:72:97:ba:05:c9:9e:e9:23:92:bf:
                    72:c7:fc:d7:5f:21:6f:b1:a1:07:1e:8c:9d:50:da:
                    2f:63:85:8f:84:1d:e8:8c:34:46:6f:39:9e:31:bd:
                    46:ae:13:87:97:0a:b0:db:54:3f:0a:1c:e0:c7:34:
                    6d:12:71:bd:ef:f7:58:6b:49:bc:1c:d6:b4:7f:6f:
                    b4:28:db:2f:5c:00:b8:64:91:27:21:60:47:1d:fa:
                    9d:7d:16:ae:0e:4a:50:ad:e9:db:2f:12:4f:ad:cb:
                    da:64:eb:50:81:08:bd:d0:5c:b2:80:25:66:51:1a:
                    01:50:77:f3:8a:18:b1:29:02:5e:02:e1:0f:0c:26:
                    85:e7:ec:26:69:3f:4e:7e:eb:54:37:4c:b2:47:ad:
                    9f:e3:e9:f5:3d:9d:a1:55:16:82:5f:89:d1:52:0d:
                    cf:4b:26:1d:fd:de:4d:d1:4f:2f:90:91:99:ab:4a:
                    a9:1e:e6:10:a2:47:43:b0:c2:8b:a7:79:15:4f:a5:
                    c6:55:7a:34:21:c6:e7:3c:60:89:2e:59:9e:9c:93:
                    49:4a:19:04:f8:0f:18:a1:2f:cc:bb:2b:79:46:56:
                    da:37:68:5c:46:2f:c2:65:c8:dd:d4:9d:d8:5b:c1:
                    57:9d:78:e7:76:c3:0a:2d:cd:7c:4d:e1:c2:73:5a:
                    69:c4:53:27:ba:da:eb:e3:e1:32:54:5a:4c:71:a0:
                    5b:ec:54:9a:fa:ac:5d:37:46:96:04:ae:25:ef:17:
                    eb:04:7a:a4:1f:c5:54:2e:ad:d6:2e:99:29:d0:ff:
                    da:db:ad:9e:9c:1f:37:a1:50:8a:c3:35:f8:15:d5:
                    4a:2a:46:02:4c:ff:f4:55:4b:45:ac:fb:0e:fc:ce:
                    47:de:69:d5:ef:ed:1b:c2:5c:a1:ce:d1:c3:08:71:
                    09:4c:84:57:41:a3:52:22:3e:1d:f4:9d:80:60:a6:
                    e4:40:da:2c:d6:85:59:7e:97:41:4c:1e:4f:40:3d:
                    43:d2:0f:9e:1f:0c:a4:12:d4:b0:d1:da:30:da:a5:
                    91:b6:e6:93:b8:38:a7:47:e5:cc:55:0a:47:b4:62:
                    1a:29:c1:9b:a7:50:71:80:1c:8d:34:33:af:93:de:
                    a5:b9:62:a9:b3:2f:2b:8c:0d:97:b2:07:87:ef:db:
                    0b:a8:59:7b:fb:0c:ee:3a:be:74:f2:11:7c:21:21:
                    8e:fb:4b:16:38:65:30:6a:ee:81:75:5f:f1:9b:d0:
                    03:bb:38:44:df:36:bd:e6:0f:82:6d:6d:b5:51:a2:
                    11:2c:c5
                Exponent: 65537 (0x10001)
        X509v3 extensions:
            X509v3 Basic Constraints: 
                CA:FALSE
            Netscape Comment: 
                Easy-RSA Generated Certificate
            X509v3 Subject Key Identifier: 
                A3:99:C1:FD:FF:71:EC:64:37:20:DD:A9:D1:CC:46:4B:71:42:A5:77
            X509v3 Authority Key Identifier: 
                keyid:12:CD:60:04:D2:A0:80:9E:70:ED:C6:99:B8:7B:2C:C6:52:FD:19:A1
                DirName:/C=US/ST=OH/L=Columbus/O=VikingVPN/OU=MyOrganizationalUnit/CN=VikingVPN CA/name=EasyRSA/emailAddress=me@myhost.mydomain
                serial:CF:35:85:EE:80:BF:2A:3E

            X509v3 Extended Key Usage: 
                TLS Web Client Authentication
            X509v3 Key Usage: 
                Digital Signature
    Signature Algorithm: md5WithRSAEncryption
         16:8c:c9:24:75:75:60:be:ca:5f:f0:2c:4d:50:36:dd:f6:20:
         13:0f:e7:16:bc:ca:19:ac:00:88:13:e8:02:fa:84:0d:b7:ce:
         ca:22:8a:d3:83:b0:52:d7:cc:dd:8d:8c:67:7e:77:fa:2d:f8:
         ad:ae:a1:61:a1:ce:90:a6:d3:e1:ba:e4:38:01:c6:5e:df:9a:
         a0:1b:ac:27:e8:8d:2f:ce:26:eb:cb:4c:5f:1f:63:3d:77:73:
         16:87:17:f6:00:28:c2:97:0c:18:57:e6:4c:88:f1:56:21:c0:
         5d:ae:80:de:b8:c7:65:44:5b:81:d3:cc:75:a2:da:62:2c:fd:
         53:ac:fe:ab:05:c6:95:69:8e:ba:b8:5c:92:4a:11:1b:70:4b:
         ca:85:b3:92:be:86:7f:7c:9c:cd:e8:a5:2d:b3:19:9b:45:6a:
         c9:e1:8e:96:5b:04:95:3b:98:6e:39:5d:b6:6b:86:2a:09:9a:
         0b:a0:0d:96:7b:52:f3:82:69:05:77:d9:c0:fa:79:f3:fa:90:
         54:32:4f:b3:09:b7:ae:c1:24:df:86:df:f9:eb:01:d5:bd:3c:
         f3:8a:77:23:af:85:db:0e:35:76:d6:95:97:42:1f:3a:ac:a5:
         8c:25:54:72:f9:64:6d:14:7c:cd:49:84:17:83:15:b5:a4:21:
         62:e5:a0:c6:a9:88:08:ba:d9:31:db:0f:d9:05:2c:c7:e4:9a:
         2a:22:90:9d:12:8a:49:0f:cd:80:77:7c:73:79:a4:f3:e1:f3:
         66:53:a7:50:2a:a5:90:95:da:b3:67:7d:ed:05:8a:ca:1f:3d:
         2c:b6:09:85:73:fa:f8:fa:d9:06:fa:bc:7a:b3:5e:7e:5c:22:
         e0:a2:83:f3:5c:ca:c1:fc:36:3a:ae:be:e9:d1:69:63:b1:27:
         78:ce:ad:99:05:bc:75:06:4b:fd:1c:1b:08:fd:c6:b6:fe:8e:
         64:25:f6:62:f8:7f:97:de:d3:7f:db:1f:dc:c5:1e:d3:58:5c:
         a7:bc:10:10:d0:c8:c3:dd:d2:88:ae:67:23:55:b9:d9:e8:f7:
         1e:9b:d6:4d:28:b3:ce:d6:c1:60:14:19:6a:70:09:21:86:ac:
         7c:0a:c4:da:84:a2:b6:85:6a:1d:dc:5e:d3:4a:b0:29:cd:2f:
         10:5f:5e:6a:b3:75:25:0e:34:59:01:7f:df:6c:e0:9f:10:8d:
         d0:0e:50:66:83:13:97:3c:23:60:1e:2d:80:68:a3:83:d6:c9:
         fd:86:b3:ee:ad:c9:d3:13:60:f3:d1:ba:bf:ce:bc:d9:47:80:
         ea:a4:bc:69:b2:02:35:62:27:ea:4b:24:f0:bc:f5:43:94:fe:
         3c:bd:9b:ae:66:d9:b5:00
-----BEGIN CERTIFICATE-----
MIIGrTCCBJWgAwIBAgICF98wDQYJKoZIhvcNAQEEBQAwgawxCzAJBgNVBAYTAlVT
MQswCQYDVQQIEwJPSDERMA8GA1UEBxMIQ29sdW1idXMxEjAQBgNVBAoTCVZpa2lu
Z1ZQTjEdMBsGA1UECxMUTXlPcmdhbml6YXRpb25hbFVuaXQxFTATBgNVBAMTDFZp
a2luZ1ZQTiBDQTEQMA4GA1UEKRMHRWFzeVJTQTEhMB8GCSqGSIb3DQEJARYSbWVA
bXlob3N0Lm15ZG9tYWluMB4XDTE1MDgyMjAxMTkzN1oXDTI1MDgxOTAxMTkzN1ow
HzEdMBsGA1UEAxMUQ2xpZW50MTgzN0NlcnQ1MGVmNmIwggIiMA0GCSqGSIb3DQEB
AQUAA4ICDwAwggIKAoICAQD7bSmFEBXtoUV1fjrCk3JCT7qIBlbK2F8saM/4dMWX
8sZTcpe6Bcme6SOSv3LH/NdfIW+xoQcejJ1Q2i9jhY+EHeiMNEZvOZ4xvUauE4eX
CrDbVD8KHODHNG0Scb3v91hrSbwc1rR/b7Qo2y9cALhkkSchYEcd+p19Fq4OSlCt
6dsvEk+ty9pk61CBCL3QXLKAJWZRGgFQd/OKGLEpAl4C4Q8MJoXn7CZpP05+61Q3
TLJHrZ/j6fU9naFVFoJfidFSDc9LJh393k3RTy+QkZmrSqke5hCiR0OwwouneRVP
pcZVejQhxuc8YIkuWZ6ck0lKGQT4DxihL8y7K3lGVto3aFxGL8JlyN3UndhbwVed
eOd2wwotzXxN4cJzWmnEUye62uvj4TJUWkxxoFvsVJr6rF03RpYEriXvF+sEeqQf
xVQurdYumSnQ/9rbrZ6cHzehUIrDNfgV1UoqRgJM//RVS0Ws+w78zkfeadXv7RvC
XKHO0cMIcQlMhFdBo1IiPh30nYBgpuRA2izWhVl+l0FMHk9APUPSD54fDKQS1LDR
2jDapZG25pO4OKdH5cxVCke0YhopwZunUHGAHI00M6+T3qW5YqmzLyuMDZeyB4fv
2wuoWXv7DO46vnTyEXwhIY77SxY4ZTBq7oF1X/Gb0AO7OETfNr3mD4JtbbVRohEs
xQIDAQABo4IBYzCCAV8wCQYDVR0TBAIwADAtBglghkgBhvhCAQ0EIBYeRWFzeS1S
U0EgR2VuZXJhdGVkIENlcnRpZmljYXRlMB0GA1UdDgQWBBSjmcH9/3HsZDcg3anR
zEZLcUKldzCB4QYDVR0jBIHZMIHWgBQSzWAE0qCAnnDtxpm4eyzGUv0ZoaGBsqSB
rzCBrDELMAkGA1UEBhMCVVMxCzAJBgNVBAgTAk9IMREwDwYDVQQHEwhDb2x1bWJ1
czESMBAGA1UEChMJVmlraW5nVlBOMR0wGwYDVQQLExRNeU9yZ2FuaXphdGlvbmFs
VW5pdDEVMBMGA1UEAxMMVmlraW5nVlBOIENBMRAwDgYDVQQpEwdFYXN5UlNBMSEw
HwYJKoZIhvcNAQkBFhJtZUBteWhvc3QubXlkb21haW6CCQDPNYXugL8qPjATBgNV
HSUEDDAKBggrBgEFBQcDAjALBgNVHQ8EBAMCB4AwDQYJKoZIhvcNAQEEBQADggIB
ABaMySR1dWC+yl/wLE1QNt32IBMP5xa8yhmsAIgT6AL6hA23zsoiitODsFLXzN2N
jGd+d/ot+K2uoWGhzpCm0+G65DgBxl7fmqAbrCfojS/OJuvLTF8fYz13cxaHF/YA
KMKXDBhX5kyI8VYhwF2ugN64x2VEW4HTzHWi2mIs/VOs/qsFxpVpjrq4XJJKERtw
S8qFs5K+hn98nM3opS2zGZtFasnhjpZbBJU7mG45XbZrhioJmgugDZZ7UvOCaQV3
2cD6efP6kFQyT7MJt67BJN+G3/nrAdW9PPOKdyOvhdsONXbWlZdCHzqspYwlVHL5
ZG0UfM1JhBeDFbWkIWLloMapiAi62THbD9kFLMfkmioikJ0SikkPzYB3fHN5pPPh
82ZTp1AqpZCV2rNnfe0FisofPSy2CYVz+vj62Qb6vHqzXn5cIuCig/NcysH8Njqu
vunRaWOxJ3jOrZkFvHUGS/0cGwj9xrb+jmQl9mL4f5fe03/bH9zFHtNYXKe8EBDQ
yMPd0oiuZyNVudno9x6b1k0os87WwWAUGWpwCSGGrHwKxNqEoraFah3cXtNKsCnN
LxBfXmqzdSUONFkBf99s4J8QjdAOUGaDE5c8I2AeLYBoo4PWyf2Gs+6tydMTYPPR
ur/OvNlHgOqkvGmyAjViJ+pLJPC89UOU/jy9m65m2bUA
-----END CERTIFICATE-----
