Certificate:
    Data:
        Version: 3 (0x2)
        Serial Number: 6113 (0x17e1)
    Signature Algorithm: md5WithRSAEncryption
        Issuer: C=US, ST=OH, L=Columbus, O=VikingVPN, OU=MyOrganizationalUnit, CN=VikingVPN CA/name=EasyRSA/emailAddress=me@myhost.mydomain
        Validity
            Not Before: Aug 22 01:47:56 2015 GMT
            Not After : Aug 19 01:47:56 2025 GMT
        Subject: CN=Client1827Cert14ddd7
        Subject Public Key Info:
            Public Key Algorithm: rsaEncryption
                Public-Key: (4096 bit)
                Modulus:
                    00:a9:53:23:18:4d:c5:aa:9b:f9:3c:f2:32:9a:35:
                    cd:78:6a:50:6d:99:d8:42:b3:86:02:48:a2:11:b6:
                    e7:30:64:c4:46:cd:1e:0d:96:b2:0a:1b:9c:25:04:
                    35:ec:4b:36:21:87:aa:eb:c8:9a:78:3e:0a:99:7f:
                    fd:a8:ae:57:b6:e7:c9:4f:e1:c9:22:3f:5e:d2:a7:
                    cf:0a:8b:f9:e9:35:a3:fe:c8:02:4f:5e:bc:e4:a8:
                    49:5f:33:b8:c8:36:53:0b:c4:f7:86:4e:25:e8:e4:
                    cd:35:72:ac:02:97:dd:3d:8b:33:b4:2f:7a:20:7c:
                    5d:d1:b0:b5:5f:a4:94:29:0f:f1:58:f8:02:65:44:
                    8d:4b:3d:bd:86:a7:d9:6c:48:e1:70:8f:38:ca:98:
                    a6:46:c4:6a:08:99:f5:45:69:07:44:32:56:c1:b7:
                    21:3f:ed:97:6b:be:62:5e:a6:da:69:15:06:39:42:
                    01:4a:bf:d6:de:01:f0:ed:c1:55:c2:98:e4:cb:ff:
                    5b:3d:d6:a2:d8:60:df:29:af:4e:70:50:e5:18:06:
                    4f:08:ad:ec:f0:19:32:1f:8c:f7:a8:66:33:44:11:
                    c0:22:95:88:26:ed:09:24:f6:30:fe:95:c2:75:dc:
                    65:07:af:85:4b:3d:77:e9:a3:45:4d:40:dc:c0:49:
                    44:e6:1a:65:0e:76:03:66:d2:f6:17:20:37:90:34:
                    a7:e3:8c:8e:7d:de:4a:d4:5f:ff:10:ee:e4:70:d6:
                    1c:65:71:90:fe:f9:ed:4d:eb:50:5c:ea:75:43:7a:
                    8e:d3:19:41:26:8d:db:e2:af:fd:20:de:e9:6d:32:
                    3f:b4:4d:d5:07:85:ec:dd:9f:b6:59:77:ce:84:a3:
                    8a:ad:a8:3e:5c:49:3a:16:3e:14:c0:4b:47:d8:96:
                    fb:80:24:ab:1c:7f:56:1e:d3:e7:bf:78:ca:a1:7c:
                    43:9c:41:3b:d7:b7:61:3e:0b:3f:91:ec:10:0a:3f:
                    08:14:95:90:f3:81:e7:01:1d:4e:c3:2d:d1:df:c1:
                    be:86:f6:9f:ff:47:5d:dc:83:09:7a:2f:2b:ec:e5:
                    37:0f:ca:30:fc:9a:85:aa:fb:d7:ec:9d:14:34:07:
                    a1:5c:7c:9c:94:42:10:c1:32:0f:fd:28:5a:bb:68:
                    4f:3d:2b:da:2d:1c:59:5e:9b:68:3a:16:f3:94:82:
                    a2:f2:b8:b3:39:39:a6:06:89:67:88:02:d3:d6:39:
                    4f:1e:ec:d1:7b:17:9f:24:ed:69:0a:af:68:1d:d2:
                    58:57:4a:b6:c2:46:4f:73:f3:2f:fc:43:3f:58:a8:
                    c3:9b:34:7d:13:81:84:90:01:48:76:35:a1:28:bc:
                    46:a9:2b
                Exponent: 65537 (0x10001)
        X509v3 extensions:
            X509v3 Basic Constraints: 
                CA:FALSE
            Netscape Comment: 
                Easy-RSA Generated Certificate
            X509v3 Subject Key Identifier: 
                24:25:2F:68:4B:46:F2:84:3F:2A:17:A9:FD:AB:AF:2B:0C:36:2A:10
            X509v3 Authority Key Identifier: 
                keyid:12:CD:60:04:D2:A0:80:9E:70:ED:C6:99:B8:7B:2C:C6:52:FD:19:A1
                DirName:/C=US/ST=OH/L=Columbus/O=VikingVPN/OU=MyOrganizationalUnit/CN=VikingVPN CA/name=EasyRSA/emailAddress=me@myhost.mydomain
                serial:CF:35:85:EE:80:BF:2A:3E

            X509v3 Extended Key Usage: 
                TLS Web Client Authentication
            X509v3 Key Usage: 
                Digital Signature
    Signature Algorithm: md5WithRSAEncryption
         6c:7b:21:be:9d:c0:14:35:8e:4c:28:b4:f3:fa:84:0d:f8:07:
         6e:7c:69:05:f7:75:e0:2a:e3:43:5d:da:68:56:16:cd:ba:25:
         2a:f0:0c:1f:b5:77:a8:b5:39:c2:55:d0:52:ae:f2:79:69:95:
         89:f2:3f:e9:a9:ba:61:b0:54:5b:48:21:ca:97:29:dd:53:55:
         ff:a6:80:85:7d:fa:9f:d1:ae:6e:f1:0a:96:b5:8a:7a:66:89:
         70:fd:23:97:e9:0a:16:d1:4d:b5:49:8a:2f:71:26:2b:ee:27:
         44:e8:8d:8f:c2:e7:c6:65:bf:2f:8b:9c:3e:a1:bf:d0:6b:17:
         8b:51:bf:89:c0:10:a8:65:43:ca:d6:5f:61:a0:c6:85:e7:0e:
         23:25:4a:53:a2:40:b8:11:9d:cd:5d:ea:64:53:6d:67:49:02:
         0a:0a:a2:2e:81:f5:87:50:aa:71:df:66:eb:e5:4e:4e:14:c5:
         1c:9d:44:08:9c:e4:5c:34:eb:75:bb:07:18:4c:f6:cf:5d:36:
         c5:99:16:0b:52:f0:49:b4:8c:ac:1c:71:7f:30:e6:a9:d4:d0:
         20:ca:16:44:6d:b0:18:9a:a2:86:43:47:af:ad:e2:a1:61:4f:
         8a:e8:40:7c:63:7a:b9:03:31:c6:75:55:4f:88:96:42:7d:c8:
         80:1c:33:56:60:58:37:4b:d0:7a:09:9b:2d:24:a5:94:b8:b3:
         48:2d:28:86:51:99:77:ac:1e:78:56:62:45:e4:49:c5:7a:3c:
         f2:70:2c:44:73:fd:14:e0:a9:4e:40:eb:fb:77:bf:db:84:6e:
         7d:13:29:82:54:81:4b:f4:88:61:3e:d1:1f:a5:7d:7d:04:d6:
         20:6f:cf:0f:ff:d1:20:49:88:5d:6f:4f:2c:ad:f1:d9:21:9c:
         21:02:56:bd:a8:fa:0c:3d:2d:84:43:5e:6e:74:27:12:0b:2a:
         e6:35:0e:29:9c:72:d5:ad:11:b1:c2:eb:3f:b3:c2:53:2f:49:
         27:2c:08:6c:a0:38:cf:14:45:72:f2:69:50:bb:e1:6f:fc:1f:
         b2:e6:25:2e:02:ab:4e:39:1d:eb:dd:b4:f5:e2:43:31:01:b1:
         cf:66:16:e0:1e:d7:e4:76:0a:3c:1d:1a:15:91:e9:f1:3b:0f:
         9d:98:04:09:0a:21:69:0b:5d:ff:15:b5:42:2e:f2:29:07:c5:
         8a:e0:83:e8:e7:4d:39:30:8f:84:60:af:d3:e2:99:5f:0d:35:
         fa:65:99:ae:90:c8:e9:a9:3a:bb:70:f8:38:ce:6e:4b:6e:ab:
         e4:98:f3:bf:d7:be:7d:79:de:1b:a2:a4:51:17:79:48:ef:88:
         38:64:9d:30:05:37:8f:d0
-----BEGIN CERTIFICATE-----
MIIGrTCCBJWgAwIBAgICF+EwDQYJKoZIhvcNAQEEBQAwgawxCzAJBgNVBAYTAlVT
MQswCQYDVQQIEwJPSDERMA8GA1UEBxMIQ29sdW1idXMxEjAQBgNVBAoTCVZpa2lu
Z1ZQTjEdMBsGA1UECxMUTXlPcmdhbml6YXRpb25hbFVuaXQxFTATBgNVBAMTDFZp
a2luZ1ZQTiBDQTEQMA4GA1UEKRMHRWFzeVJTQTEhMB8GCSqGSIb3DQEJARYSbWVA
bXlob3N0Lm15ZG9tYWluMB4XDTE1MDgyMjAxNDc1NloXDTI1MDgxOTAxNDc1Nlow
HzEdMBsGA1UEAxMUQ2xpZW50MTgyN0NlcnQxNGRkZDcwggIiMA0GCSqGSIb3DQEB
AQUAA4ICDwAwggIKAoICAQCpUyMYTcWqm/k88jKaNc14alBtmdhCs4YCSKIRtucw
ZMRGzR4NlrIKG5wlBDXsSzYhh6rryJp4PgqZf/2orle258lP4ckiP17Sp88Ki/np
NaP+yAJPXrzkqElfM7jINlMLxPeGTiXo5M01cqwCl909izO0L3ogfF3RsLVfpJQp
D/FY+AJlRI1LPb2Gp9lsSOFwjzjKmKZGxGoImfVFaQdEMlbBtyE/7ZdrvmJeptpp
FQY5QgFKv9beAfDtwVXCmOTL/1s91qLYYN8pr05wUOUYBk8IrezwGTIfjPeoZjNE
EcAilYgm7Qkk9jD+lcJ13GUHr4VLPXfpo0VNQNzASUTmGmUOdgNm0vYXIDeQNKfj
jI593krUX/8Q7uRw1hxlcZD++e1N61Bc6nVDeo7TGUEmjdvir/0g3ultMj+0TdUH
hezdn7ZZd86Eo4qtqD5cSToWPhTAS0fYlvuAJKscf1Ye0+e/eMqhfEOcQTvXt2E+
Cz+R7BAKPwgUlZDzgecBHU7DLdHfwb6G9p//R13cgwl6Lyvs5TcPyjD8moWq+9fs
nRQ0B6FcfJyUQhDBMg/9KFq7aE89K9otHFlem2g6FvOUgqLyuLM5OaYGiWeIAtPW
OU8e7NF7F58k7WkKr2gd0lhXSrbCRk9z8y/8Qz9YqMObNH0TgYSQAUh2NaEovEap
KwIDAQABo4IBYzCCAV8wCQYDVR0TBAIwADAtBglghkgBhvhCAQ0EIBYeRWFzeS1S
U0EgR2VuZXJhdGVkIENlcnRpZmljYXRlMB0GA1UdDgQWBBQkJS9oS0byhD8qF6n9
q68rDDYqEDCB4QYDVR0jBIHZMIHWgBQSzWAE0qCAnnDtxpm4eyzGUv0ZoaGBsqSB
rzCBrDELMAkGA1UEBhMCVVMxCzAJBgNVBAgTAk9IMREwDwYDVQQHEwhDb2x1bWJ1
czESMBAGA1UEChMJVmlraW5nVlBOMR0wGwYDVQQLExRNeU9yZ2FuaXphdGlvbmFs
VW5pdDEVMBMGA1UEAxMMVmlraW5nVlBOIENBMRAwDgYDVQQpEwdFYXN5UlNBMSEw
HwYJKoZIhvcNAQkBFhJtZUBteWhvc3QubXlkb21haW6CCQDPNYXugL8qPjATBgNV
HSUEDDAKBggrBgEFBQcDAjALBgNVHQ8EBAMCB4AwDQYJKoZIhvcNAQEEBQADggIB
AGx7Ib6dwBQ1jkwotPP6hA34B258aQX3deAq40Nd2mhWFs26JSrwDB+1d6i1OcJV
0FKu8nlplYnyP+mpumGwVFtIIcqXKd1TVf+mgIV9+p/Rrm7xCpa1inpmiXD9I5fp
ChbRTbVJii9xJivuJ0TojY/C58Zlvy+LnD6hv9BrF4tRv4nAEKhlQ8rWX2GgxoXn
DiMlSlOiQLgRnc1d6mRTbWdJAgoKoi6B9YdQqnHfZuvlTk4UxRydRAic5Fw063W7
BxhM9s9dNsWZFgtS8Em0jKwccX8w5qnU0CDKFkRtsBiaooZDR6+t4qFhT4roQHxj
erkDMcZ1VU+IlkJ9yIAcM1ZgWDdL0HoJmy0kpZS4s0gtKIZRmXesHnhWYkXkScV6
PPJwLERz/RTgqU5A6/t3v9uEbn0TKYJUgUv0iGE+0R+lfX0E1iBvzw//0SBJiF1v
Tyyt8dkhnCECVr2o+gw9LYRDXm50JxILKuY1DimcctWtEbHC6z+zwlMvSScsCGyg
OM8URXLyaVC74W/8H7LmJS4Cq045HevdtPXiQzEBsc9mFuAe1+R2CjwdGhWR6fE7
D52YBAkKIWkLXf8VtUIu8ikHxYrgg+jnTTkwj4Rgr9PimV8NNfplma6QyOmpOrtw
+DjObktuq+SY87/Xvn153huipFEXeUjviDhknTAFN4/Q
-----END CERTIFICATE-----
