Certificate:
    Data:
        Version: 3 (0x2)
        Serial Number: 6117 (0x17e5)
    Signature Algorithm: md5WithRSAEncryption
        Issuer: C=US, ST=OH, L=Columbus, O=VikingVPN, OU=MyOrganizationalUnit, CN=VikingVPN CA/name=EasyRSA/emailAddress=me@myhost.mydomain
        Validity
            Not Before: Aug 22 17:11:04 2015 GMT
            Not After : Aug 19 17:11:04 2025 GMT
        Subject: CN=Client1917Certea2507
        Subject Public Key Info:
            Public Key Algorithm: rsaEncryption
                Public-Key: (4096 bit)
                Modulus:
                    00:bc:34:25:3c:94:39:83:83:e8:e2:26:94:43:df:
                    09:01:e4:32:d4:76:18:0d:6c:2d:fc:d4:e7:62:04:
                    7c:15:46:3c:77:fe:b5:b6:8f:4e:4f:5a:a3:be:35:
                    15:5a:c1:cd:16:e3:01:66:85:c2:7f:83:56:bb:c9:
                    e7:6d:57:70:cf:eb:88:1d:8e:9a:a7:03:52:1d:f5:
                    3f:0e:b8:fa:6d:5f:84:b0:e4:ef:79:ce:cb:92:5b:
                    f1:fa:4e:88:17:a6:b6:64:b3:a8:4f:32:cd:2d:c8:
                    38:9e:f1:40:d7:37:df:9c:f2:65:76:2c:95:55:05:
                    64:31:97:34:b4:cc:6a:50:ab:cd:66:03:04:45:91:
                    17:89:75:1a:19:d4:f0:d7:7e:06:76:3a:9e:a9:e2:
                    d9:99:03:28:76:db:76:c0:b7:4f:66:69:bc:93:0f:
                    2b:85:18:a5:9a:4e:90:fd:5a:f1:b1:58:b1:f7:8b:
                    81:d0:84:f2:69:94:9c:23:11:ea:6f:55:c2:1b:14:
                    ea:c8:83:ef:64:c3:3b:79:ef:8f:12:92:e6:66:05:
                    b6:d7:a9:09:b5:db:4e:86:2d:61:0f:12:b2:43:e5:
                    40:d6:69:b5:48:e0:89:ea:73:e7:cf:d7:22:2f:99:
                    62:67:dd:87:2d:37:9b:cb:26:3b:1e:33:71:f4:c5:
                    c1:da:79:9d:d9:cc:48:9d:4c:3a:f6:3b:a8:a9:ef:
                    e2:fa:0c:51:44:98:25:3b:5b:cc:27:98:27:4f:84:
                    11:2f:47:8f:8e:70:28:c6:e9:1a:5b:61:be:6b:8b:
                    3a:f0:23:13:4e:7b:8e:13:22:0a:b7:32:56:17:86:
                    33:0e:1c:10:37:22:3c:2f:aa:7b:d4:07:37:55:aa:
                    7b:5f:db:c8:54:d8:0c:9c:31:08:59:cc:1b:f0:08:
                    c5:82:44:2b:7a:c8:7b:4b:c9:90:5e:f8:29:e8:df:
                    d4:25:62:5f:dc:aa:70:84:f1:12:fa:76:16:29:a9:
                    26:93:4a:a0:c8:6e:aa:7c:0d:37:09:26:af:42:80:
                    c9:95:1d:21:f5:f7:66:83:00:a2:f6:cb:18:fc:ba:
                    1a:3b:6c:cb:68:3a:0d:1f:18:de:bd:90:d4:0d:35:
                    98:28:f5:92:81:c9:71:9a:b8:89:22:c5:70:95:3d:
                    7d:4c:ed:d2:07:77:10:b4:87:0f:46:b4:97:7e:cd:
                    88:32:c0:33:c5:fd:45:a0:0c:7a:ae:8c:a5:6d:26:
                    3a:25:65:9c:93:5d:df:8c:f0:9a:ed:d6:a2:de:29:
                    6c:1f:ff:3c:bb:2b:87:ec:aa:b6:f0:1e:3b:bc:6e:
                    fa:eb:a4:fd:92:1b:a1:88:a7:bb:87:81:85:5e:e0:
                    5b:c0:41
                Exponent: 65537 (0x10001)
        X509v3 extensions:
            X509v3 Basic Constraints: 
                CA:FALSE
            Netscape Comment: 
                Easy-RSA Generated Certificate
            X509v3 Subject Key Identifier: 
                1D:96:E9:D3:1F:B2:00:86:63:53:9F:68:29:80:42:3E:FF:3F:CB:E9
            X509v3 Authority Key Identifier: 
                keyid:12:CD:60:04:D2:A0:80:9E:70:ED:C6:99:B8:7B:2C:C6:52:FD:19:A1
                DirName:/C=US/ST=OH/L=Columbus/O=VikingVPN/OU=MyOrganizationalUnit/CN=VikingVPN CA/name=EasyRSA/emailAddress=me@myhost.mydomain
                serial:CF:35:85:EE:80:BF:2A:3E

            X509v3 Extended Key Usage: 
                TLS Web Client Authentication
            X509v3 Key Usage: 
                Digital Signature
    Signature Algorithm: md5WithRSAEncryption
         32:06:6b:7e:ce:13:0a:65:73:02:7f:05:82:21:fe:58:4e:d4:
         a5:e8:5c:ed:a5:5f:7d:0f:64:6d:37:61:4f:8b:57:e5:35:f4:
         53:a3:6f:31:91:92:45:d1:19:9d:cc:eb:7a:29:cc:56:bd:47:
         f9:ab:ca:b7:66:a0:bf:29:ce:a7:8e:3e:4b:48:39:31:86:a8:
         0d:ea:6f:69:17:f6:1e:15:8c:3d:a8:6d:82:67:e6:5a:a5:82:
         8c:2f:89:a5:13:0a:1d:ef:0e:48:86:94:78:41:19:0a:c5:5c:
         34:00:5d:9b:ff:fe:0d:3d:d9:af:50:0d:d2:9c:ff:3c:0d:70:
         c5:08:e7:1e:a7:fd:57:27:25:b4:bc:4a:3b:62:5a:52:04:54:
         df:65:92:9a:1f:69:5e:97:24:31:4c:86:f9:04:8e:77:da:cd:
         95:b2:dc:be:2c:48:f4:ce:7e:d6:fc:20:09:a5:fc:3c:6f:33:
         62:1c:85:81:08:c4:ed:76:d5:c3:0e:03:ff:3f:3f:cc:17:ed:
         56:00:20:12:99:2b:52:07:e9:ed:9a:3f:b1:dc:ac:1b:9c:40:
         37:e8:df:3b:89:91:2e:3f:04:b0:56:a3:2a:cf:c6:e5:96:32:
         ad:9d:a9:16:10:d4:98:2c:d9:37:a1:51:75:d3:4a:97:30:67:
         b2:2d:1b:e2:87:68:66:89:be:42:1a:cd:87:ba:c6:c8:6f:ad:
         27:05:63:d9:c6:a2:d3:f3:05:c2:3e:1c:61:a0:8c:71:93:2d:
         27:ae:03:1b:da:4c:26:58:e4:cd:3a:75:27:cc:ff:1a:27:34:
         37:e0:bc:d6:d0:a4:74:e8:39:26:2d:e8:2a:01:07:7c:7c:7b:
         fa:c2:7c:dc:2e:6b:4e:1a:76:fb:4a:c6:d2:2c:f2:9b:a7:4d:
         a6:6c:79:31:2f:48:87:d3:c3:c5:12:30:c1:75:24:c6:88:71:
         28:22:9c:e0:9c:76:25:b8:c6:da:cb:29:ba:12:29:d1:59:d7:
         65:1a:06:19:ab:3c:aa:11:38:1c:be:28:72:86:d5:7e:50:7d:
         d7:19:bd:8e:f1:31:2d:41:90:99:c0:91:e5:8e:33:d1:8c:ab:
         b1:e2:3c:eb:a8:6d:9f:a4:01:a9:18:17:35:62:1d:2c:01:be:
         88:3e:6e:2a:3f:98:39:95:ab:df:56:96:07:3f:d9:d2:3d:41:
         14:06:da:b0:25:56:78:6e:64:bf:f2:9d:41:b9:ad:db:ea:bf:
         96:87:23:28:5d:a6:0d:d2:a6:d9:39:c6:be:d4:71:71:64:a1:
         c7:a8:4a:52:86:af:fc:e0:55:6d:80:a0:4f:98:d4:f7:b4:76:
         69:e6:99:c4:4c:54:81:9f
-----BEGIN CERTIFICATE-----
MIIGrTCCBJWgAwIBAgICF+UwDQYJKoZIhvcNAQEEBQAwgawxCzAJBgNVBAYTAlVT
MQswCQYDVQQIEwJPSDERMA8GA1UEBxMIQ29sdW1idXMxEjAQBgNVBAoTCVZpa2lu
Z1ZQTjEdMBsGA1UECxMUTXlPcmdhbml6YXRpb25hbFVuaXQxFTATBgNVBAMTDFZp
a2luZ1ZQTiBDQTEQMA4GA1UEKRMHRWFzeVJTQTEhMB8GCSqGSIb3DQEJARYSbWVA
bXlob3N0Lm15ZG9tYWluMB4XDTE1MDgyMjE3MTEwNFoXDTI1MDgxOTE3MTEwNFow
HzEdMBsGA1UEAxMUQ2xpZW50MTkxN0NlcnRlYTI1MDcwggIiMA0GCSqGSIb3DQEB
AQUAA4ICDwAwggIKAoICAQC8NCU8lDmDg+jiJpRD3wkB5DLUdhgNbC381OdiBHwV
Rjx3/rW2j05PWqO+NRVawc0W4wFmhcJ/g1a7yedtV3DP64gdjpqnA1Id9T8OuPpt
X4Sw5O95zsuSW/H6TogXprZks6hPMs0tyDie8UDXN9+c8mV2LJVVBWQxlzS0zGpQ
q81mAwRFkReJdRoZ1PDXfgZ2Op6p4tmZAyh223bAt09mabyTDyuFGKWaTpD9WvGx
WLH3i4HQhPJplJwjEepvVcIbFOrIg+9kwzt5748SkuZmBbbXqQm1206GLWEPErJD
5UDWabVI4Inqc+fP1yIvmWJn3YctN5vLJjseM3H0xcHaeZ3ZzEidTDr2O6ip7+L6
DFFEmCU7W8wnmCdPhBEvR4+OcCjG6RpbYb5rizrwIxNOe44TIgq3MlYXhjMOHBA3
IjwvqnvUBzdVqntf28hU2AycMQhZzBvwCMWCRCt6yHtLyZBe+Cno39QlYl/cqnCE
8RL6dhYpqSaTSqDIbqp8DTcJJq9CgMmVHSH192aDAKL2yxj8uho7bMtoOg0fGN69
kNQNNZgo9ZKByXGauIkixXCVPX1M7dIHdxC0hw9GtJd+zYgywDPF/UWgDHqujKVt
JjolZZyTXd+M8Jrt1qLeKWwf/zy7K4fsqrbwHju8bvrrpP2SG6GIp7uHgYVe4FvA
QQIDAQABo4IBYzCCAV8wCQYDVR0TBAIwADAtBglghkgBhvhCAQ0EIBYeRWFzeS1S
U0EgR2VuZXJhdGVkIENlcnRpZmljYXRlMB0GA1UdDgQWBBQdlunTH7IAhmNTn2gp
gEI+/z/L6TCB4QYDVR0jBIHZMIHWgBQSzWAE0qCAnnDtxpm4eyzGUv0ZoaGBsqSB
rzCBrDELMAkGA1UEBhMCVVMxCzAJBgNVBAgTAk9IMREwDwYDVQQHEwhDb2x1bWJ1
czESMBAGA1UEChMJVmlraW5nVlBOMR0wGwYDVQQLExRNeU9yZ2FuaXphdGlvbmFs
VW5pdDEVMBMGA1UEAxMMVmlraW5nVlBOIENBMRAwDgYDVQQpEwdFYXN5UlNBMSEw
HwYJKoZIhvcNAQkBFhJtZUBteWhvc3QubXlkb21haW6CCQDPNYXugL8qPjATBgNV
HSUEDDAKBggrBgEFBQcDAjALBgNVHQ8EBAMCB4AwDQYJKoZIhvcNAQEEBQADggIB
ADIGa37OEwplcwJ/BYIh/lhO1KXoXO2lX30PZG03YU+LV+U19FOjbzGRkkXRGZ3M
63opzFa9R/mryrdmoL8pzqeOPktIOTGGqA3qb2kX9h4VjD2obYJn5lqlgowviaUT
Ch3vDkiGlHhBGQrFXDQAXZv//g092a9QDdKc/zwNcMUI5x6n/VcnJbS8SjtiWlIE
VN9lkpofaV6XJDFMhvkEjnfazZWy3L4sSPTOftb8IAml/DxvM2IchYEIxO121cMO
A/8/P8wX7VYAIBKZK1IH6e2aP7HcrBucQDfo3zuJkS4/BLBWoyrPxuWWMq2dqRYQ
1Jgs2TehUXXTSpcwZ7ItG+KHaGaJvkIazYe6xshvrScFY9nGotPzBcI+HGGgjHGT
LSeuAxvaTCZY5M06dSfM/xonNDfgvNbQpHToOSYt6CoBB3x8e/rCfNwua04advtK
xtIs8punTaZseTEvSIfTw8USMMF1JMaIcSginOCcdiW4xtrLKboSKdFZ12UaBhmr
PKoROBy+KHKG1X5QfdcZvY7xMS1BkJnAkeWOM9GMq7HiPOuobZ+kAakYFzViHSwB
vog+bio/mDmVq99Wlgc/2dI9QRQG2rAlVnhuZL/ynUG5rdvqv5aHIyhdpg3Sptk5
xr7UcXFkoceoSlKGr/zgVW2AoE+Y1Pe0dmnmmcRMVIGf
-----END CERTIFICATE-----
