Certificate:
    Data:
        Version: 3 (0x2)
        Serial Number: 6125 (0x17ed)
    Signature Algorithm: md5WithRSAEncryption
        Issuer: C=US, ST=OH, L=Columbus, O=VikingVPN, OU=MyOrganizationalUnit, CN=VikingVPN CA/name=EasyRSA/emailAddress=me@myhost.mydomain
        Validity
            Not Before: Aug 24 04:43:50 2015 GMT
            Not After : Aug 21 04:43:50 2025 GMT
        Subject: CN=Client1364Certca23ed
        Subject Public Key Info:
            Public Key Algorithm: rsaEncryption
                Public-Key: (4096 bit)
                Modulus:
                    00:cc:2f:97:11:d5:a7:b5:6c:e5:db:ec:db:2c:bc:
                    1c:b4:5f:33:cd:79:34:ad:29:e6:9d:45:db:f0:33:
                    cf:11:d9:b0:dc:14:50:b5:93:d1:fa:25:98:4a:7a:
                    2e:27:9d:a7:ee:93:b8:46:5e:b4:55:a9:a8:8c:7a:
                    66:70:62:f0:80:52:62:b1:bb:0f:ad:e4:8d:e8:b2:
                    64:d4:8f:f6:cf:f5:36:5e:8e:b2:e0:28:6e:e4:66:
                    1b:bf:d1:08:4a:d7:7b:cd:46:f4:f5:99:2c:75:4b:
                    bb:8b:85:9e:b7:dd:73:21:a9:86:d7:62:c3:45:e5:
                    c7:f8:57:61:41:e3:7a:ab:b5:b5:f9:db:d4:76:78:
                    d8:67:4d:2c:78:9e:90:74:a9:ef:64:71:2d:4e:86:
                    f3:61:4a:ee:e7:26:52:dc:c7:57:75:ec:6b:25:25:
                    db:be:4f:44:e5:26:3d:a8:7d:3b:df:e6:7b:c0:05:
                    8a:d1:ba:39:59:ca:1f:df:c3:5d:33:28:dc:86:7e:
                    db:1e:e4:54:7e:b4:1a:47:19:5b:04:cf:fa:a1:3b:
                    6d:aa:63:d5:2d:7b:1c:15:7e:5b:da:dd:2a:0f:67:
                    9a:ee:57:55:dd:16:25:16:56:cd:fe:8b:f4:ce:b1:
                    c2:4d:04:46:cc:27:a8:0a:3a:5e:a9:89:ed:91:4f:
                    fe:c1:4b:c2:99:c3:9f:b1:dc:e1:cf:f2:04:16:2f:
                    68:20:3f:ef:22:0e:00:01:b3:a9:bf:86:04:26:a7:
                    61:61:40:06:16:8f:df:b6:ed:48:98:cc:9e:44:24:
                    31:ef:53:af:07:6b:b3:f3:37:ea:8a:bd:0b:5f:f6:
                    f7:ca:9d:98:50:a5:19:dd:a3:99:64:79:8b:87:9b:
                    a8:ce:94:c9:91:aa:e7:b2:3d:75:9b:3c:fb:25:b4:
                    4e:10:d5:1c:09:21:8a:ea:89:7d:a8:2a:27:e6:07:
                    88:c9:d9:06:c8:82:20:fa:46:75:2e:9e:4f:6a:61:
                    06:89:6a:be:1d:9c:e1:3a:a1:af:4d:56:63:34:ba:
                    c9:a2:00:ef:94:57:76:38:b2:90:91:b2:4e:c8:30:
                    df:c1:5f:0e:69:39:4a:16:3e:b8:d7:26:4c:b5:e2:
                    3f:c9:11:54:84:62:11:85:11:b9:59:8c:cd:87:7e:
                    86:b9:3b:dd:6c:79:cc:37:16:90:6e:97:ec:4d:48:
                    35:62:12:d2:02:07:e9:2c:d4:30:f4:dd:83:18:5d:
                    35:a5:ee:4e:e8:ea:68:4d:e8:ee:31:de:90:49:23:
                    16:2e:9a:22:58:3f:f0:65:2a:25:40:ce:a9:7a:f7:
                    4d:8a:2f:0f:db:cb:a9:e3:13:f8:ce:2d:2c:61:ae:
                    a9:6f:bd
                Exponent: 65537 (0x10001)
        X509v3 extensions:
            X509v3 Basic Constraints: 
                CA:FALSE
            Netscape Comment: 
                Easy-RSA Generated Certificate
            X509v3 Subject Key Identifier: 
                14:B3:52:31:F9:D7:D3:01:97:2C:62:26:97:4B:76:03:55:25:B9:44
            X509v3 Authority Key Identifier: 
                keyid:12:CD:60:04:D2:A0:80:9E:70:ED:C6:99:B8:7B:2C:C6:52:FD:19:A1
                DirName:/C=US/ST=OH/L=Columbus/O=VikingVPN/OU=MyOrganizationalUnit/CN=VikingVPN CA/name=EasyRSA/emailAddress=me@myhost.mydomain
                serial:CF:35:85:EE:80:BF:2A:3E

            X509v3 Extended Key Usage: 
                TLS Web Client Authentication
            X509v3 Key Usage: 
                Digital Signature
    Signature Algorithm: md5WithRSAEncryption
         5c:ad:fb:05:93:29:ad:8a:45:29:5b:b3:73:cb:3a:30:8b:a7:
         86:67:75:09:43:8b:7e:15:73:bd:7f:63:14:1c:cb:bd:17:07:
         7e:44:1d:bd:55:c5:88:29:42:e2:e1:71:7a:2e:60:c4:74:26:
         b4:00:bd:9a:a4:c9:73:3a:70:63:df:e9:79:a6:43:f3:46:85:
         6b:f9:12:9f:0c:a6:14:41:8e:8d:12:6d:89:73:95:7a:b9:7b:
         d5:91:bd:53:93:ac:ec:07:13:bf:71:e8:ef:3c:10:91:04:80:
         f0:7a:42:bc:77:3c:ad:eb:ed:c9:88:c0:5d:66:04:9b:d0:85:
         45:ed:35:e4:f9:52:7b:80:a2:72:4f:8f:3e:81:0e:38:33:02:
         98:a2:24:f2:ac:07:c7:3f:7d:dd:60:72:3c:d7:73:d1:8d:9a:
         1c:2b:da:16:37:36:16:b6:52:50:bd:c1:3e:89:a0:29:2f:11:
         83:d3:1d:29:91:48:9f:1e:bc:af:af:6a:7c:e3:11:23:05:79:
         c8:fa:63:a2:f0:f4:da:c4:29:eb:c0:46:01:e8:df:cc:60:ec:
         bd:2d:bf:f1:20:1a:99:25:41:75:97:68:0a:58:55:3f:70:e5:
         34:72:80:37:5c:b7:a9:6e:5d:d8:f5:dc:9c:28:b0:e8:c5:eb:
         29:21:e9:52:cd:e5:ec:55:56:2f:d7:9f:9e:7a:f3:22:ca:ac:
         e8:63:96:f0:7d:50:67:7b:09:d3:7b:11:69:0a:b9:a0:c1:c7:
         41:b9:51:99:e0:74:48:7f:d5:bb:6e:e4:71:73:a9:f3:f9:ae:
         40:8a:36:5a:82:89:d9:d0:d2:e6:2e:fa:9a:de:82:b3:6d:b0:
         da:1b:d8:15:a2:c1:3e:f7:f8:60:15:42:c8:1b:d7:c0:16:ec:
         83:b3:ff:e5:44:79:c8:a9:81:1b:37:51:85:8e:c2:d3:fc:d9:
         8b:ae:2b:7c:5b:eb:84:75:2f:03:64:c9:de:c3:4f:16:16:33:
         0a:5d:b8:1e:16:d3:65:9a:6b:4e:01:91:fb:ad:82:2d:7f:e3:
         fb:55:d1:29:fd:2c:27:80:c7:78:35:f9:9c:85:d7:f7:ac:e8:
         61:c1:12:26:58:20:dd:54:2a:80:d8:46:11:9c:0b:60:37:c9:
         f2:87:88:8a:0b:03:55:65:e1:d4:a8:10:7f:77:ad:be:e2:cc:
         a0:f8:25:03:ff:18:90:d6:e3:95:4f:11:96:cd:4a:69:0b:cf:
         83:dc:d1:cc:65:34:e6:6d:b2:69:a6:be:5a:1c:d1:d1:a7:0b:
         24:a6:df:7e:c6:2f:84:ba:77:49:a9:2c:a2:62:e5:e4:89:e1:
         08:ac:67:e9:3b:4b:d8:02
-----BEGIN CERTIFICATE-----
MIIGrTCCBJWgAwIBAgICF+0wDQYJKoZIhvcNAQEEBQAwgawxCzAJBgNVBAYTAlVT
MQswCQYDVQQIEwJPSDERMA8GA1UEBxMIQ29sdW1idXMxEjAQBgNVBAoTCVZpa2lu
Z1ZQTjEdMBsGA1UECxMUTXlPcmdhbml6YXRpb25hbFVuaXQxFTATBgNVBAMTDFZp
a2luZ1ZQTiBDQTEQMA4GA1UEKRMHRWFzeVJTQTEhMB8GCSqGSIb3DQEJARYSbWVA
bXlob3N0Lm15ZG9tYWluMB4XDTE1MDgyNDA0NDM1MFoXDTI1MDgyMTA0NDM1MFow
HzEdMBsGA1UEAxMUQ2xpZW50MTM2NENlcnRjYTIzZWQwggIiMA0GCSqGSIb3DQEB
AQUAA4ICDwAwggIKAoICAQDML5cR1ae1bOXb7NssvBy0XzPNeTStKeadRdvwM88R
2bDcFFC1k9H6JZhKei4nnafuk7hGXrRVqaiMemZwYvCAUmKxuw+t5I3osmTUj/bP
9TZejrLgKG7kZhu/0QhK13vNRvT1mSx1S7uLhZ633XMhqYbXYsNF5cf4V2FB43qr
tbX529R2eNhnTSx4npB0qe9kcS1OhvNhSu7nJlLcx1d17GslJdu+T0TlJj2ofTvf
5nvABYrRujlZyh/fw10zKNyGftse5FR+tBpHGVsEz/qhO22qY9UtexwVflva3SoP
Z5ruV1XdFiUWVs3+i/TOscJNBEbMJ6gKOl6pie2RT/7BS8KZw5+x3OHP8gQWL2gg
P+8iDgABs6m/hgQmp2FhQAYWj9+27UiYzJ5EJDHvU68Ha7PzN+qKvQtf9vfKnZhQ
pRndo5lkeYuHm6jOlMmRqueyPXWbPPsltE4Q1RwJIYrqiX2oKifmB4jJ2QbIgiD6
RnUunk9qYQaJar4dnOE6oa9NVmM0usmiAO+UV3Y4spCRsk7IMN/BXw5pOUoWPrjX
Jky14j/JEVSEYhGFEblZjM2Hfoa5O91secw3FpBul+xNSDViEtICB+ks1DD03YMY
XTWl7k7o6mhN6O4x3pBJIxYumiJYP/BlKiVAzql6902KLw/by6njE/jOLSxhrqlv
vQIDAQABo4IBYzCCAV8wCQYDVR0TBAIwADAtBglghkgBhvhCAQ0EIBYeRWFzeS1S
U0EgR2VuZXJhdGVkIENlcnRpZmljYXRlMB0GA1UdDgQWBBQUs1Ix+dfTAZcsYiaX
S3YDVSW5RDCB4QYDVR0jBIHZMIHWgBQSzWAE0qCAnnDtxpm4eyzGUv0ZoaGBsqSB
rzCBrDELMAkGA1UEBhMCVVMxCzAJBgNVBAgTAk9IMREwDwYDVQQHEwhDb2x1bWJ1
czESMBAGA1UEChMJVmlraW5nVlBOMR0wGwYDVQQLExRNeU9yZ2FuaXphdGlvbmFs
VW5pdDEVMBMGA1UEAxMMVmlraW5nVlBOIENBMRAwDgYDVQQpEwdFYXN5UlNBMSEw
HwYJKoZIhvcNAQkBFhJtZUBteWhvc3QubXlkb21haW6CCQDPNYXugL8qPjATBgNV
HSUEDDAKBggrBgEFBQcDAjALBgNVHQ8EBAMCB4AwDQYJKoZIhvcNAQEEBQADggIB
AFyt+wWTKa2KRSlbs3PLOjCLp4ZndQlDi34Vc71/YxQcy70XB35EHb1VxYgpQuLh
cXouYMR0JrQAvZqkyXM6cGPf6XmmQ/NGhWv5Ep8MphRBjo0SbYlzlXq5e9WRvVOT
rOwHE79x6O88EJEEgPB6Qrx3PK3r7cmIwF1mBJvQhUXtNeT5UnuAonJPjz6BDjgz
ApiiJPKsB8c/fd1gcjzXc9GNmhwr2hY3Nha2UlC9wT6JoCkvEYPTHSmRSJ8evK+v
anzjESMFecj6Y6Lw9NrEKevARgHo38xg7L0tv/EgGpklQXWXaApYVT9w5TRygDdc
t6luXdj13JwosOjF6ykh6VLN5exVVi/Xn5568yLKrOhjlvB9UGd7CdN7EWkKuaDB
x0G5UZngdEh/1btu5HFzqfP5rkCKNlqCidnQ0uYu+pregrNtsNob2BWiwT73+GAV
Qsgb18AW7IOz/+VEecipgRs3UYWOwtP82YuuK3xb64R1LwNkyd7DTxYWMwpduB4W
02Waa04Bkfutgi1/4/tV0Sn9LCeAx3g1+ZyF1/es6GHBEiZYIN1UKoDYRhGcC2A3
yfKHiIoLA1Vl4dSoEH93rb7izKD4JQP/GJDW45VPEZbNSmkLz4Pc0cxlNOZtsmmm
vloc0dGnCySm337GL4S6d0mpLKJi5eSJ4QisZ+k7S9gC
-----END CERTIFICATE-----
