Certificate:
    Data:
        Version: 3 (0x2)
        Serial Number: 6176 (0x1820)
    Signature Algorithm: md5WithRSAEncryption
        Issuer: C=US, ST=OH, L=Columbus, O=VikingVPN, OU=MyOrganizationalUnit, CN=VikingVPN CA/name=EasyRSA/emailAddress=me@myhost.mydomain
        Validity
            Not Before: Aug 29 21:06:02 2015 GMT
            Not After : Aug 26 21:06:02 2025 GMT
        Subject: CN=Client1934Cert241622
        Subject Public Key Info:
            Public Key Algorithm: rsaEncryption
                Public-Key: (4096 bit)
                Modulus:
                    00:e1:03:4e:ad:dd:c0:3d:59:6e:50:74:06:f2:60:
                    3e:5b:12:13:65:7d:dc:98:9e:d5:eb:f4:ec:ec:e8:
                    e6:b6:f5:1d:12:ef:24:9b:b2:4d:0e:63:6d:a6:f3:
                    e1:71:78:12:1b:cc:27:8c:a8:4c:84:d0:04:05:ce:
                    37:bc:2e:58:a5:6f:0d:c2:9c:ac:3f:17:9a:87:75:
                    01:2f:b8:32:65:a1:1f:b6:74:06:22:e7:ad:43:c6:
                    ec:3f:14:92:a3:94:38:9f:81:1d:0c:40:e1:90:cf:
                    9e:7d:f9:57:68:2b:1d:b9:ec:90:22:d0:e0:ea:ef:
                    7b:ec:88:e2:f6:f8:64:b5:32:72:44:8d:2b:f4:8d:
                    05:93:e6:38:f0:69:79:1c:81:f6:07:49:4c:70:3d:
                    d2:0a:3f:cf:14:20:d2:f3:ec:db:98:01:eb:15:29:
                    64:c6:53:e4:31:b3:d2:b7:32:62:23:ae:06:94:54:
                    7a:e4:51:a0:ec:b4:f7:0b:fe:0c:b5:96:e6:8a:80:
                    78:48:1d:62:39:44:25:09:7d:16:2d:16:5f:d1:e4:
                    36:e3:a1:dc:cc:a2:3a:ca:87:30:6d:fb:6e:ac:9c:
                    de:3a:2b:2b:9c:ac:3e:f2:4a:af:ff:f1:8d:ce:66:
                    cc:a2:1d:50:46:90:02:d7:8d:a3:f0:76:a4:62:f1:
                    87:c8:58:c7:1f:48:d4:4d:6a:ca:0e:16:37:d0:41:
                    f1:d0:86:e8:08:5e:b8:e3:95:29:f7:9b:52:cb:bf:
                    f3:a3:f2:cf:8d:15:34:f4:d2:2e:40:a8:2d:76:23:
                    c6:e6:1e:78:55:f9:ff:49:e4:a5:7b:f3:3f:14:9f:
                    cd:21:a4:42:0b:85:12:32:e2:11:29:e5:70:df:a7:
                    21:2b:1f:23:38:29:a8:e8:84:51:33:f9:5f:3c:52:
                    f2:96:4b:54:c3:88:de:f0:fb:d3:22:56:ac:1f:e7:
                    40:c9:2c:95:a5:98:e3:0b:3e:ac:2b:3e:cb:ac:0e:
                    47:7a:19:4d:82:ad:73:14:9a:1f:fb:b2:23:fa:e2:
                    f7:74:83:e6:a9:53:31:e4:a4:f6:e4:63:90:d3:2a:
                    3e:be:e6:b6:61:c3:f4:b6:b8:d3:b4:39:0e:c3:fb:
                    b0:8c:78:41:1c:23:d9:ed:d0:e7:26:26:b3:97:89:
                    46:e4:31:4c:0c:a3:b7:44:5d:a8:a0:f4:41:c8:98:
                    24:4f:5e:0f:27:d1:ac:f5:35:92:ef:d0:d4:42:14:
                    55:5e:77:c3:f1:4a:5e:32:72:e6:12:d6:7a:8d:a9:
                    58:94:02:76:72:6c:16:6c:9b:c3:46:b5:60:ba:cf:
                    13:a8:c7:4e:a8:7b:e1:3f:3a:78:4c:bc:1d:6e:7d:
                    ed:8b:a1
                Exponent: 65537 (0x10001)
        X509v3 extensions:
            X509v3 Basic Constraints: 
                CA:FALSE
            Netscape Comment: 
                Easy-RSA Generated Certificate
            X509v3 Subject Key Identifier: 
                3D:39:71:48:98:09:90:C5:44:87:A4:DF:2A:F4:37:AE:FB:05:F8:D3
            X509v3 Authority Key Identifier: 
                keyid:12:CD:60:04:D2:A0:80:9E:70:ED:C6:99:B8:7B:2C:C6:52:FD:19:A1
                DirName:/C=US/ST=OH/L=Columbus/O=VikingVPN/OU=MyOrganizationalUnit/CN=VikingVPN CA/name=EasyRSA/emailAddress=me@myhost.mydomain
                serial:CF:35:85:EE:80:BF:2A:3E

            X509v3 Extended Key Usage: 
                TLS Web Client Authentication
            X509v3 Key Usage: 
                Digital Signature
    Signature Algorithm: md5WithRSAEncryption
         28:6f:c5:11:bd:75:c9:5e:9e:35:0a:6d:d8:d5:78:7f:b9:eb:
         08:50:91:54:ba:d6:b5:92:e4:50:02:1e:16:77:2a:b1:21:b8:
         e9:5e:a3:07:e5:51:87:c5:dc:3b:1c:e6:b8:85:e5:cd:29:0a:
         d1:5b:74:8a:4d:5a:52:c8:07:3c:c1:15:de:1a:5d:de:eb:20:
         f1:a9:17:58:1c:76:78:02:f7:1f:c8:5a:25:43:9f:99:e7:af:
         9d:8e:7d:f4:10:f3:24:a9:5e:6e:6b:04:8e:fd:be:a1:94:18:
         ef:c7:76:d5:87:a0:4c:48:8a:4a:6b:a6:38:9b:cd:5c:41:ee:
         a8:cf:60:a0:27:7f:f9:7d:6a:05:81:6f:c8:da:de:a0:74:3b:
         de:28:f3:17:36:7d:82:fa:12:c4:6b:51:20:48:57:d6:cf:04:
         59:dc:1d:2f:50:43:ba:3b:62:ee:5d:ee:0e:5b:aa:cd:bd:16:
         58:12:91:99:de:31:41:40:01:63:4c:da:b7:22:ef:bb:4d:81:
         d3:68:93:04:23:ee:d8:45:8b:a6:34:86:b2:84:e9:05:e9:bc:
         ef:49:3f:d0:85:ce:1d:fc:40:f2:84:7b:27:69:e1:f9:d6:5b:
         27:39:0d:56:49:0c:52:82:81:6c:8a:c6:ca:46:88:13:1c:5d:
         9b:c2:92:b4:2b:e5:98:80:c6:2c:a1:e9:6d:ef:a2:f1:e2:de:
         59:2d:00:7d:0a:bc:fa:9f:d4:85:3d:a0:dd:11:12:04:15:cb:
         b6:4a:de:f4:9c:61:22:93:6f:ba:61:9c:8e:34:f7:1b:f3:06:
         a5:fa:7b:b5:ce:d3:c0:1c:46:90:af:46:e5:ff:88:37:dd:99:
         43:a7:f8:1a:7a:71:a6:7b:52:b9:09:cb:e9:04:28:2f:34:24:
         24:bd:d3:62:9d:52:ba:6b:93:f9:8c:85:96:da:87:62:7b:5a:
         64:ef:fd:54:f0:84:ae:d1:e5:93:9d:ef:26:9a:75:2f:18:d8:
         00:e0:8c:56:d2:d7:1a:a5:13:e2:26:e3:bd:be:45:65:ac:1f:
         fa:47:bc:9b:af:1f:08:73:93:20:5f:52:af:94:70:95:f6:e5:
         2c:ba:7d:87:5f:07:d4:84:bd:f6:d3:46:16:d3:19:c1:ce:de:
         f1:4b:41:87:0f:9f:70:9d:cf:1e:07:8d:0d:00:06:17:d9:da:
         f3:83:de:af:df:03:41:37:ba:77:59:82:c4:07:f8:72:7e:0f:
         8e:68:00:64:99:0a:39:f2:b3:e4:f6:58:15:0a:31:41:e0:65:
         06:27:e8:73:0d:da:1c:fc:bd:9e:65:52:4c:71:75:6f:ad:7d:
         0d:2c:a0:2b:4f:f6:7b:b2
-----BEGIN CERTIFICATE-----
MIIGrTCCBJWgAwIBAgICGCAwDQYJKoZIhvcNAQEEBQAwgawxCzAJBgNVBAYTAlVT
MQswCQYDVQQIEwJPSDERMA8GA1UEBxMIQ29sdW1idXMxEjAQBgNVBAoTCVZpa2lu
Z1ZQTjEdMBsGA1UECxMUTXlPcmdhbml6YXRpb25hbFVuaXQxFTATBgNVBAMTDFZp
a2luZ1ZQTiBDQTEQMA4GA1UEKRMHRWFzeVJTQTEhMB8GCSqGSIb3DQEJARYSbWVA
bXlob3N0Lm15ZG9tYWluMB4XDTE1MDgyOTIxMDYwMloXDTI1MDgyNjIxMDYwMlow
HzEdMBsGA1UEAxMUQ2xpZW50MTkzNENlcnQyNDE2MjIwggIiMA0GCSqGSIb3DQEB
AQUAA4ICDwAwggIKAoICAQDhA06t3cA9WW5QdAbyYD5bEhNlfdyYntXr9Ozs6Oa2
9R0S7ySbsk0OY22m8+FxeBIbzCeMqEyE0AQFzje8Llilbw3CnKw/F5qHdQEvuDJl
oR+2dAYi561Dxuw/FJKjlDifgR0MQOGQz559+VdoKx257JAi0ODq73vsiOL2+GS1
MnJEjSv0jQWT5jjwaXkcgfYHSUxwPdIKP88UINLz7NuYAesVKWTGU+Qxs9K3MmIj
rgaUVHrkUaDstPcL/gy1luaKgHhIHWI5RCUJfRYtFl/R5DbjodzMojrKhzBt+26s
nN46KyucrD7ySq//8Y3OZsyiHVBGkALXjaPwdqRi8YfIWMcfSNRNasoOFjfQQfHQ
hugIXrjjlSn3m1LLv/Oj8s+NFTT00i5AqC12I8bmHnhV+f9J5KV78z8Un80hpEIL
hRIy4hEp5XDfpyErHyM4KajohFEz+V88UvKWS1TDiN7w+9MiVqwf50DJLJWlmOML
PqwrPsusDkd6GU2CrXMUmh/7siP64vd0g+apUzHkpPbkY5DTKj6+5rZhw/S2uNO0
OQ7D+7CMeEEcI9nt0OcmJrOXiUbkMUwMo7dEXaig9EHImCRPXg8n0az1NZLv0NRC
FFVed8PxSl4ycuYS1nqNqViUAnZybBZsm8NGtWC6zxOox06oe+E/OnhMvB1ufe2L
oQIDAQABo4IBYzCCAV8wCQYDVR0TBAIwADAtBglghkgBhvhCAQ0EIBYeRWFzeS1S
U0EgR2VuZXJhdGVkIENlcnRpZmljYXRlMB0GA1UdDgQWBBQ9OXFImAmQxUSHpN8q
9Deu+wX40zCB4QYDVR0jBIHZMIHWgBQSzWAE0qCAnnDtxpm4eyzGUv0ZoaGBsqSB
rzCBrDELMAkGA1UEBhMCVVMxCzAJBgNVBAgTAk9IMREwDwYDVQQHEwhDb2x1bWJ1
czESMBAGA1UEChMJVmlraW5nVlBOMR0wGwYDVQQLExRNeU9yZ2FuaXphdGlvbmFs
VW5pdDEVMBMGA1UEAxMMVmlraW5nVlBOIENBMRAwDgYDVQQpEwdFYXN5UlNBMSEw
HwYJKoZIhvcNAQkBFhJtZUBteWhvc3QubXlkb21haW6CCQDPNYXugL8qPjATBgNV
HSUEDDAKBggrBgEFBQcDAjALBgNVHQ8EBAMCB4AwDQYJKoZIhvcNAQEEBQADggIB
AChvxRG9dclenjUKbdjVeH+56whQkVS61rWS5FACHhZ3KrEhuOleowflUYfF3Dsc
5riF5c0pCtFbdIpNWlLIBzzBFd4aXd7rIPGpF1gcdngC9x/IWiVDn5nnr52OffQQ
8ySpXm5rBI79vqGUGO/HdtWHoExIikprpjibzVxB7qjPYKAnf/l9agWBb8ja3qB0
O94o8xc2fYL6EsRrUSBIV9bPBFncHS9QQ7o7Yu5d7g5bqs29FlgSkZneMUFAAWNM
2rci77tNgdNokwQj7thFi6Y0hrKE6QXpvO9JP9CFzh38QPKEeydp4fnWWyc5DVZJ
DFKCgWyKxspGiBMcXZvCkrQr5ZiAxiyh6W3vovHi3lktAH0KvPqf1IU9oN0REgQV
y7ZK3vScYSKTb7phnI409xvzBqX6e7XO08AcRpCvRuX/iDfdmUOn+Bp6caZ7UrkJ
y+kEKC80JCS902KdUrprk/mMhZbah2J7WmTv/VTwhK7R5ZOd7yaadS8Y2ADgjFbS
1xqlE+Im472+RWWsH/pHvJuvHwhzkyBfUq+UcJX25Sy6fYdfB9SEvfbTRhbTGcHO
3vFLQYcPn3Cdzx4HjQ0ABhfZ2vOD3q/fA0E3undZgsQH+HJ+D45oAGSZCjnys+T2
WBUKMUHgZQYn6HMN2hz8vZ5lUkxxdW+tfQ0soCtP9nuy
-----END CERTIFICATE-----
