Certificate:
    Data:
        Version: 3 (0x2)
        Serial Number: 6180 (0x1824)
    Signature Algorithm: md5WithRSAEncryption
        Issuer: C=US, ST=OH, L=Columbus, O=VikingVPN, OU=MyOrganizationalUnit, CN=VikingVPN CA/name=EasyRSA/emailAddress=me@myhost.mydomain
        Validity
            Not Before: Aug 31 01:39:39 2015 GMT
            Not After : Aug 28 01:39:39 2025 GMT
        Subject: CN=Client1936Cert09a79d
        Subject Public Key Info:
            Public Key Algorithm: rsaEncryption
                Public-Key: (4096 bit)
                Modulus:
                    00:c3:55:d4:29:68:94:bc:ba:ea:dd:50:1b:99:e1:
                    32:b3:c1:73:f8:1a:d1:01:94:43:1e:69:4d:81:35:
                    22:94:c0:a6:9d:85:75:32:14:b3:34:19:58:96:03:
                    e7:60:dd:ac:37:31:03:fe:8c:70:8f:c4:02:01:df:
                    7c:49:65:9e:3c:5a:e9:06:f0:ce:05:09:d9:b2:32:
                    2d:2b:d8:15:40:fc:47:75:bf:e1:48:e2:21:9f:fb:
                    ea:5b:6c:ab:71:21:fd:b1:b6:00:5d:25:7f:1e:6d:
                    a5:a3:9c:52:f7:fe:7c:24:34:17:44:eb:ed:25:fe:
                    74:d1:5f:2f:3a:c6:77:8b:93:65:58:fd:f8:05:03:
                    3b:ed:a7:72:5f:a0:6a:2f:12:90:e2:f9:ad:46:6f:
                    63:98:f6:0a:22:25:0a:2a:77:3d:78:eb:50:9c:07:
                    4c:b7:82:25:59:26:ae:84:7d:3e:e4:0c:1e:83:b9:
                    64:a1:7a:37:f3:b3:45:59:88:75:e9:b1:83:96:35:
                    32:2b:22:c2:af:9a:18:e1:86:c5:83:8b:8c:41:48:
                    0c:d3:ef:53:e4:e3:28:08:6d:d9:31:f0:ca:0a:91:
                    d7:17:30:56:75:6b:b8:cd:eb:28:35:25:98:1c:f7:
                    b1:f0:ff:cf:ec:00:22:85:e3:7a:4b:fc:93:01:db:
                    57:5c:87:0b:01:7f:bc:8f:9d:92:1a:e4:3b:9a:7e:
                    ef:0f:42:f2:c3:cb:d4:ef:52:c5:b5:5e:eb:f3:4e:
                    62:87:74:7d:1b:a4:84:30:74:04:a6:1e:22:12:39:
                    a8:68:3d:75:58:45:dc:da:d6:6e:c1:27:3e:f6:d6:
                    cc:64:13:40:ea:aa:8f:56:f7:e3:c3:1c:e3:ea:1a:
                    40:42:71:b3:a6:ed:b7:37:95:e8:4a:2a:0d:24:ce:
                    44:64:a2:39:9d:09:70:f9:89:8d:d3:25:8e:7b:00:
                    5b:72:51:68:b7:76:22:8f:15:43:d0:ca:2c:3f:a0:
                    0a:78:e3:98:53:5c:19:9c:a2:d7:d0:3d:f7:2c:3b:
                    c6:50:0b:61:f0:8c:bd:33:fc:ef:99:3d:22:8f:60:
                    e4:40:09:51:92:33:8f:2c:53:3d:16:1e:d0:8e:1b:
                    e0:7c:97:68:22:a5:69:e0:8b:6d:20:24:03:56:5d:
                    ca:ff:d8:5f:f6:1b:d6:45:cc:15:45:46:7b:91:4d:
                    3c:93:72:c2:1a:43:d2:84:62:e7:71:1f:ed:36:e5:
                    f9:09:91:6c:30:5a:df:83:b3:38:64:63:69:34:7e:
                    21:69:b6:f1:79:5a:21:9d:02:93:b4:fe:b6:fa:da:
                    e1:fd:29:96:05:cb:b2:0a:b0:f9:96:7f:e3:70:d1:
                    8d:0c:6b
                Exponent: 65537 (0x10001)
        X509v3 extensions:
            X509v3 Basic Constraints: 
                CA:FALSE
            Netscape Comment: 
                Easy-RSA Generated Certificate
            X509v3 Subject Key Identifier: 
                66:12:49:BE:85:E9:F5:19:30:95:06:96:20:72:1F:AE:07:3E:81:5B
            X509v3 Authority Key Identifier: 
                keyid:12:CD:60:04:D2:A0:80:9E:70:ED:C6:99:B8:7B:2C:C6:52:FD:19:A1
                DirName:/C=US/ST=OH/L=Columbus/O=VikingVPN/OU=MyOrganizationalUnit/CN=VikingVPN CA/name=EasyRSA/emailAddress=me@myhost.mydomain
                serial:CF:35:85:EE:80:BF:2A:3E

            X509v3 Extended Key Usage: 
                TLS Web Client Authentication
            X509v3 Key Usage: 
                Digital Signature
    Signature Algorithm: md5WithRSAEncryption
         3e:b8:46:5c:1d:36:1b:c3:9c:c2:1c:11:b7:72:79:6d:6e:15:
         12:83:ab:c4:89:d7:c4:bf:20:d6:da:cd:bf:1d:cb:f1:ee:20:
         56:7a:e6:d4:19:8e:7b:86:4c:6b:6e:a5:6a:3b:d1:36:c2:3e:
         e5:06:34:f9:6c:80:b8:33:ac:e2:36:d2:39:97:e6:3a:80:d0:
         0d:d6:37:7f:ac:fe:ca:43:5f:85:b5:66:76:d2:1e:91:f5:22:
         1a:d7:31:c9:24:e2:0e:68:4c:81:22:be:7d:71:8a:67:eb:f9:
         34:b7:7f:d5:d1:7f:7f:ca:9e:78:61:15:88:7e:d5:bb:55:eb:
         bc:00:20:1e:3d:9d:90:49:4c:25:12:05:9e:7c:c3:0b:c6:94:
         24:a9:8b:a7:d3:78:29:c7:49:a4:4d:7e:41:f5:c2:42:6f:da:
         d8:58:10:fd:30:34:93:67:5b:77:1e:bd:f7:27:1b:d7:52:32:
         5a:cb:46:45:f9:ee:71:a4:ff:54:26:67:56:f8:1a:f8:70:3c:
         4b:9d:9e:e4:a1:9f:ce:88:63:aa:a8:68:0d:a7:a1:66:cb:8f:
         c7:90:5f:77:70:77:a3:61:9a:10:b2:5e:2e:45:d9:09:eb:9b:
         a6:a9:23:b9:ff:0e:ae:81:57:25:86:15:66:f6:c0:8d:0f:fb:
         db:4a:78:64:cb:46:47:ba:28:ea:79:5f:c1:c5:5e:9a:e3:3b:
         2e:23:ff:bf:f6:63:87:4b:fd:78:86:64:16:ac:5c:ae:54:51:
         85:68:e3:b7:c6:f5:99:df:bd:64:ee:28:d0:fd:3f:c1:c4:d6:
         2c:93:5b:bf:74:0d:19:d1:0a:b3:88:11:c2:cc:73:6a:a5:6a:
         2f:d2:18:d7:f1:d2:e8:c0:83:3b:6f:55:ab:37:17:6f:41:01:
         8c:f1:03:30:78:4e:2a:55:06:0e:2f:9d:26:86:4a:2f:22:9e:
         f0:9e:8f:ba:95:8a:f7:a5:ae:b2:7e:00:5c:4c:63:37:b1:aa:
         9b:bc:ba:62:5f:f9:1b:7e:b0:13:f9:43:50:97:ec:70:dd:92:
         6b:e1:57:88:b8:ac:ba:ec:c4:93:05:f1:6d:95:5e:c9:f5:4b:
         34:ce:f2:b1:64:b3:b0:08:06:e8:8c:0a:0b:bc:43:70:00:d5:
         3e:c8:b2:50:23:34:6c:69:68:87:f7:bf:4b:38:f4:09:83:f7:
         69:33:d8:de:6d:3d:a6:28:88:88:bd:64:6b:45:39:d2:69:05:
         f5:9e:18:d3:57:85:4a:3b:2c:07:e4:3c:2b:50:49:a3:06:9a:
         62:79:6e:fb:08:5d:f4:d5:82:43:58:1d:51:a0:e2:e5:d7:a1:
         15:bb:76:3f:0e:0b:a4:a9
-----BEGIN CERTIFICATE-----
MIIGrTCCBJWgAwIBAgICGCQwDQYJKoZIhvcNAQEEBQAwgawxCzAJBgNVBAYTAlVT
MQswCQYDVQQIEwJPSDERMA8GA1UEBxMIQ29sdW1idXMxEjAQBgNVBAoTCVZpa2lu
Z1ZQTjEdMBsGA1UECxMUTXlPcmdhbml6YXRpb25hbFVuaXQxFTATBgNVBAMTDFZp
a2luZ1ZQTiBDQTEQMA4GA1UEKRMHRWFzeVJTQTEhMB8GCSqGSIb3DQEJARYSbWVA
bXlob3N0Lm15ZG9tYWluMB4XDTE1MDgzMTAxMzkzOVoXDTI1MDgyODAxMzkzOVow
HzEdMBsGA1UEAxMUQ2xpZW50MTkzNkNlcnQwOWE3OWQwggIiMA0GCSqGSIb3DQEB
AQUAA4ICDwAwggIKAoICAQDDVdQpaJS8uurdUBuZ4TKzwXP4GtEBlEMeaU2BNSKU
wKadhXUyFLM0GViWA+dg3aw3MQP+jHCPxAIB33xJZZ48WukG8M4FCdmyMi0r2BVA
/Ed1v+FI4iGf++pbbKtxIf2xtgBdJX8ebaWjnFL3/nwkNBdE6+0l/nTRXy86xneL
k2VY/fgFAzvtp3JfoGovEpDi+a1Gb2OY9goiJQoqdz1461CcB0y3giVZJq6EfT7k
DB6DuWShejfzs0VZiHXpsYOWNTIrIsKvmhjhhsWDi4xBSAzT71Pk4ygIbdkx8MoK
kdcXMFZ1a7jN6yg1JZgc97Hw/8/sACKF43pL/JMB21dchwsBf7yPnZIa5Duafu8P
QvLDy9TvUsW1XuvzTmKHdH0bpIQwdASmHiISOahoPXVYRdza1m7BJz721sxkE0Dq
qo9W9+PDHOPqGkBCcbOm7bc3lehKKg0kzkRkojmdCXD5iY3TJY57AFtyUWi3diKP
FUPQyiw/oAp445hTXBmcotfQPfcsO8ZQC2HwjL0z/O+ZPSKPYORACVGSM48sUz0W
HtCOG+B8l2gipWngi20gJANWXcr/2F/2G9ZFzBVFRnuRTTyTcsIaQ9KEYudxH+02
5fkJkWwwWt+DszhkY2k0fiFptvF5WiGdApO0/rb62uH9KZYFy7IKsPmWf+Nw0Y0M
awIDAQABo4IBYzCCAV8wCQYDVR0TBAIwADAtBglghkgBhvhCAQ0EIBYeRWFzeS1S
U0EgR2VuZXJhdGVkIENlcnRpZmljYXRlMB0GA1UdDgQWBBRmEkm+hen1GTCVBpYg
ch+uBz6BWzCB4QYDVR0jBIHZMIHWgBQSzWAE0qCAnnDtxpm4eyzGUv0ZoaGBsqSB
rzCBrDELMAkGA1UEBhMCVVMxCzAJBgNVBAgTAk9IMREwDwYDVQQHEwhDb2x1bWJ1
czESMBAGA1UEChMJVmlraW5nVlBOMR0wGwYDVQQLExRNeU9yZ2FuaXphdGlvbmFs
VW5pdDEVMBMGA1UEAxMMVmlraW5nVlBOIENBMRAwDgYDVQQpEwdFYXN5UlNBMSEw
HwYJKoZIhvcNAQkBFhJtZUBteWhvc3QubXlkb21haW6CCQDPNYXugL8qPjATBgNV
HSUEDDAKBggrBgEFBQcDAjALBgNVHQ8EBAMCB4AwDQYJKoZIhvcNAQEEBQADggIB
AD64RlwdNhvDnMIcEbdyeW1uFRKDq8SJ18S/INbazb8dy/HuIFZ65tQZjnuGTGtu
pWo70TbCPuUGNPlsgLgzrOI20jmX5jqA0A3WN3+s/spDX4W1ZnbSHpH1IhrXMckk
4g5oTIEivn1ximfr+TS3f9XRf3/KnnhhFYh+1btV67wAIB49nZBJTCUSBZ58wwvG
lCSpi6fTeCnHSaRNfkH1wkJv2thYEP0wNJNnW3cevfcnG9dSMlrLRkX57nGk/1Qm
Z1b4GvhwPEudnuShn86IY6qoaA2noWbLj8eQX3dwd6NhmhCyXi5F2Qnrm6apI7n/
Dq6BVyWGFWb2wI0P+9tKeGTLRke6KOp5X8HFXprjOy4j/7/2Y4dL/XiGZBasXK5U
UYVo47fG9ZnfvWTuKND9P8HE1iyTW790DRnRCrOIEcLMc2qlai/SGNfx0ujAgztv
Vas3F29BAYzxAzB4TipVBg4vnSaGSi8invCej7qVivelrrJ+AFxMYzexqpu8umJf
+Rt+sBP5Q1CX7HDdkmvhV4i4rLrsxJMF8W2VXsn1SzTO8rFks7AIBuiMCgu8Q3AA
1T7IslAjNGxpaIf3v0s49AmD92kz2N5tPaYoiIi9ZGtFOdJpBfWeGNNXhUo7LAfk
PCtQSaMGmmJ5bvsIXfTVgkNYHVGg4uXXoRW7dj8OC6Sp
-----END CERTIFICATE-----
