Certificate:
    Data:
        Version: 3 (0x2)
        Serial Number: 6195 (0x1833)
    Signature Algorithm: md5WithRSAEncryption
        Issuer: C=US, ST=OH, L=Columbus, O=VikingVPN, OU=MyOrganizationalUnit, CN=VikingVPN CA/name=EasyRSA/emailAddress=me@myhost.mydomain
        Validity
            Not Before: Sep  3 10:37:00 2015 GMT
            Not After : Aug 31 10:37:00 2025 GMT
        Subject: CN=Client1945Certfb1c87
        Subject Public Key Info:
            Public Key Algorithm: rsaEncryption
                Public-Key: (4096 bit)
                Modulus:
                    00:c6:e9:65:d1:ac:ff:aa:78:36:67:f6:68:d9:5f:
                    06:93:65:8e:5d:11:59:a3:08:0c:72:ce:bf:12:56:
                    39:a6:c5:44:6a:fa:f2:f0:9d:f2:62:c7:e9:db:fc:
                    23:8b:cc:40:0d:a8:04:5c:4a:ed:08:43:c3:3a:56:
                    c7:01:2c:ce:0d:8b:25:0f:4f:73:82:ee:99:5c:2e:
                    c2:22:e1:84:d3:e7:c4:1f:ef:6c:4e:32:b0:42:86:
                    7e:3a:e4:60:c6:e1:5e:cd:fd:b9:1a:6f:c2:12:86:
                    f9:d8:73:e1:ea:32:b1:fc:b1:79:3f:f7:cb:74:4a:
                    02:b3:2a:fd:d1:06:ab:35:f3:a6:6f:89:f0:db:11:
                    04:3a:5d:b0:0c:72:82:89:e4:ed:78:64:df:43:73:
                    92:d3:9f:68:19:0b:ed:ad:96:62:fe:e6:dc:d4:f4:
                    fe:af:1b:cd:84:37:d5:c7:b6:a1:46:64:6f:ce:04:
                    13:2b:0d:47:ed:5a:36:54:3d:5f:f5:e3:be:38:63:
                    75:66:a1:b8:c1:dc:7e:66:3e:cd:24:9d:5b:b0:60:
                    44:c8:c3:f1:63:f3:99:92:23:4b:60:e1:96:ae:54:
                    9d:c3:b9:c3:49:53:14:39:92:fd:11:f2:0f:22:5d:
                    aa:73:b4:65:23:32:05:cc:61:93:6e:dd:f4:52:2e:
                    8e:66:ee:1a:f7:67:ca:40:7f:e2:8f:6e:ad:80:21:
                    0d:7c:43:d7:96:b1:16:2b:52:15:48:de:bf:56:f1:
                    f2:f4:1a:37:43:1d:bc:d9:da:2a:3c:b7:8e:0f:48:
                    0e:fc:60:4f:50:24:eb:05:42:b6:28:a2:78:5c:4d:
                    5b:89:33:71:e9:c8:91:3a:30:fa:bc:da:5d:b6:1e:
                    04:26:ad:28:a9:43:18:12:fa:0f:41:34:82:9e:6c:
                    74:f6:c3:8b:62:f1:ca:43:ae:64:71:ae:c3:cd:84:
                    c6:af:3e:5f:f8:57:2d:40:36:17:6a:74:da:2d:c4:
                    99:8d:b5:57:df:85:a4:65:8b:84:df:55:6a:73:1e:
                    aa:18:b1:26:1b:4b:cf:7d:e3:2b:ed:eb:87:f9:ef:
                    8a:a9:87:ca:93:11:f7:2e:4b:da:0d:e9:c9:38:79:
                    cf:f0:bf:13:49:13:04:a7:a9:87:36:70:1a:c9:30:
                    ae:b7:bc:95:96:2a:04:a3:cc:62:0b:b3:34:93:b7:
                    ba:12:c8:8f:e3:33:58:ca:b3:17:28:5c:fb:6a:f6:
                    1f:54:db:a5:3c:24:90:32:63:d8:4d:4d:53:9b:84:
                    39:82:2f:fb:75:ec:e0:34:50:4b:a6:d4:51:29:77:
                    b0:95:0b:95:51:0b:af:86:79:f6:0c:52:1a:f8:c2:
                    e0:38:89
                Exponent: 65537 (0x10001)
        X509v3 extensions:
            X509v3 Basic Constraints: 
                CA:FALSE
            Netscape Comment: 
                Easy-RSA Generated Certificate
            X509v3 Subject Key Identifier: 
                00:0F:83:73:EB:1E:55:E7:9A:4C:A4:71:93:19:6D:9B:C3:3E:13:E5
            X509v3 Authority Key Identifier: 
                keyid:12:CD:60:04:D2:A0:80:9E:70:ED:C6:99:B8:7B:2C:C6:52:FD:19:A1
                DirName:/C=US/ST=OH/L=Columbus/O=VikingVPN/OU=MyOrganizationalUnit/CN=VikingVPN CA/name=EasyRSA/emailAddress=me@myhost.mydomain
                serial:CF:35:85:EE:80:BF:2A:3E

            X509v3 Extended Key Usage: 
                TLS Web Client Authentication
            X509v3 Key Usage: 
                Digital Signature
    Signature Algorithm: md5WithRSAEncryption
         6b:70:4e:b6:a2:32:15:bf:81:05:6f:4a:bd:52:4f:00:d8:ee:
         5f:06:0c:dc:a7:78:dd:68:1d:2a:49:8b:f5:01:0f:a9:57:97:
         e0:18:95:08:71:ef:ab:5d:be:a5:fc:c8:b5:8b:33:d6:c8:98:
         15:4d:e4:2f:b2:3c:7a:77:a6:6f:92:e3:5b:00:64:1d:72:fb:
         35:c4:8e:ce:d0:95:fb:31:80:02:87:54:97:99:63:7a:53:86:
         95:ce:71:4b:31:3e:84:81:ef:9f:61:74:34:73:48:38:08:52:
         3b:c6:ad:d0:44:b2:a9:42:9f:78:22:1d:e0:42:a5:a1:82:f0:
         bc:ec:6b:b4:cc:8c:a9:1f:65:d7:83:6a:f9:8c:6f:44:57:33:
         72:e3:d2:82:90:94:39:75:11:18:a7:78:17:05:29:b7:2b:7f:
         1d:be:ff:98:dd:6c:d7:28:14:a3:c4:8f:51:a1:01:37:23:94:
         85:23:af:3d:77:1b:cb:9f:a3:14:87:87:83:5a:83:75:62:36:
         39:bd:e3:16:f6:ee:ed:d8:0d:7e:55:64:cd:8f:44:82:4b:14:
         1f:42:7e:e3:c2:cc:fa:86:47:5c:e7:fd:e2:67:6d:42:33:78:
         a5:87:50:da:50:c8:1d:44:b0:0d:b4:7b:6b:ad:0a:16:e3:38:
         fa:b6:f0:96:3b:8c:6f:4a:97:89:16:13:fb:c3:5c:65:a6:3a:
         b8:92:c1:a7:99:62:8d:ee:e6:bd:e9:f4:48:5d:70:6e:e6:b2:
         75:36:79:4a:d4:2b:75:c1:0a:14:d5:16:7a:82:ed:31:35:c8:
         35:46:92:3c:e5:39:e4:94:cc:8d:0e:87:a7:59:4f:e2:05:fb:
         1c:2c:17:60:9d:0d:fa:83:47:ef:3d:e2:21:c2:a3:6e:dd:3f:
         d0:9e:16:40:c0:56:a0:07:e8:ad:2b:4f:40:32:0c:b8:56:f0:
         78:78:f4:61:16:4e:4f:7c:e4:7b:f6:67:81:1e:21:e8:a6:aa:
         87:9a:fe:f7:87:b1:b9:84:4c:38:dc:31:4a:a4:51:40:31:72:
         45:66:e7:ed:18:9d:88:a4:89:32:58:5a:d1:b8:4b:6d:6d:d9:
         cc:fc:44:e1:f0:a4:6f:81:cc:67:a9:40:04:c9:54:e2:20:c0:
         f3:25:7d:ac:4f:2c:86:5d:a4:89:98:68:4a:df:cc:4c:9f:d6:
         9d:ca:21:85:8e:df:d7:7a:99:0e:73:0e:87:79:bc:2f:9b:b5:
         32:96:32:79:84:65:90:00:f6:88:22:9d:5f:2a:43:95:a0:90:
         97:4a:ff:9e:3b:11:e1:d6:f8:3f:6d:eb:7a:e5:7b:6b:8d:97:
         51:b2:87:bd:52:89:a8:55
-----BEGIN CERTIFICATE-----
MIIGrTCCBJWgAwIBAgICGDMwDQYJKoZIhvcNAQEEBQAwgawxCzAJBgNVBAYTAlVT
MQswCQYDVQQIEwJPSDERMA8GA1UEBxMIQ29sdW1idXMxEjAQBgNVBAoTCVZpa2lu
Z1ZQTjEdMBsGA1UECxMUTXlPcmdhbml6YXRpb25hbFVuaXQxFTATBgNVBAMTDFZp
a2luZ1ZQTiBDQTEQMA4GA1UEKRMHRWFzeVJTQTEhMB8GCSqGSIb3DQEJARYSbWVA
bXlob3N0Lm15ZG9tYWluMB4XDTE1MDkwMzEwMzcwMFoXDTI1MDgzMTEwMzcwMFow
HzEdMBsGA1UEAxMUQ2xpZW50MTk0NUNlcnRmYjFjODcwggIiMA0GCSqGSIb3DQEB
AQUAA4ICDwAwggIKAoICAQDG6WXRrP+qeDZn9mjZXwaTZY5dEVmjCAxyzr8SVjmm
xURq+vLwnfJix+nb/COLzEANqARcSu0IQ8M6VscBLM4NiyUPT3OC7plcLsIi4YTT
58Qf72xOMrBChn465GDG4V7N/bkab8IShvnYc+HqMrH8sXk/98t0SgKzKv3RBqs1
86ZvifDbEQQ6XbAMcoKJ5O14ZN9Dc5LTn2gZC+2tlmL+5tzU9P6vG82EN9XHtqFG
ZG/OBBMrDUftWjZUPV/14744Y3VmobjB3H5mPs0knVuwYETIw/Fj85mSI0tg4Zau
VJ3DucNJUxQ5kv0R8g8iXapztGUjMgXMYZNu3fRSLo5m7hr3Z8pAf+KPbq2AIQ18
Q9eWsRYrUhVI3r9W8fL0GjdDHbzZ2io8t44PSA78YE9QJOsFQrYoonhcTVuJM3Hp
yJE6MPq82l22HgQmrSipQxgS+g9BNIKebHT2w4ti8cpDrmRxrsPNhMavPl/4Vy1A
NhdqdNotxJmNtVffhaRli4TfVWpzHqoYsSYbS8994yvt64f574qph8qTEfcuS9oN
6ck4ec/wvxNJEwSnqYc2cBrJMK63vJWWKgSjzGILszSTt7oSyI/jM1jKsxcoXPtq
9h9U26U8JJAyY9hNTVObhDmCL/t17OA0UEum1FEpd7CVC5VRC6+GefYMUhr4wuA4
iQIDAQABo4IBYzCCAV8wCQYDVR0TBAIwADAtBglghkgBhvhCAQ0EIBYeRWFzeS1S
U0EgR2VuZXJhdGVkIENlcnRpZmljYXRlMB0GA1UdDgQWBBQAD4Nz6x5V55pMpHGT
GW2bwz4T5TCB4QYDVR0jBIHZMIHWgBQSzWAE0qCAnnDtxpm4eyzGUv0ZoaGBsqSB
rzCBrDELMAkGA1UEBhMCVVMxCzAJBgNVBAgTAk9IMREwDwYDVQQHEwhDb2x1bWJ1
czESMBAGA1UEChMJVmlraW5nVlBOMR0wGwYDVQQLExRNeU9yZ2FuaXphdGlvbmFs
VW5pdDEVMBMGA1UEAxMMVmlraW5nVlBOIENBMRAwDgYDVQQpEwdFYXN5UlNBMSEw
HwYJKoZIhvcNAQkBFhJtZUBteWhvc3QubXlkb21haW6CCQDPNYXugL8qPjATBgNV
HSUEDDAKBggrBgEFBQcDAjALBgNVHQ8EBAMCB4AwDQYJKoZIhvcNAQEEBQADggIB
AGtwTraiMhW/gQVvSr1STwDY7l8GDNyneN1oHSpJi/UBD6lXl+AYlQhx76tdvqX8
yLWLM9bImBVN5C+yPHp3pm+S41sAZB1y+zXEjs7QlfsxgAKHVJeZY3pThpXOcUsx
PoSB759hdDRzSDgIUjvGrdBEsqlCn3giHeBCpaGC8Lzsa7TMjKkfZdeDavmMb0RX
M3Lj0oKQlDl1ERineBcFKbcrfx2+/5jdbNcoFKPEj1GhATcjlIUjrz13G8ufoxSH
h4Nag3ViNjm94xb27u3YDX5VZM2PRIJLFB9CfuPCzPqGR1zn/eJnbUIzeKWHUNpQ
yB1EsA20e2utChbjOPq28JY7jG9Kl4kWE/vDXGWmOriSwaeZYo3u5r3p9EhdcG7m
snU2eUrUK3XBChTVFnqC7TE1yDVGkjzlOeSUzI0Oh6dZT+IF+xwsF2CdDfqDR+89
4iHCo27dP9CeFkDAVqAH6K0rT0AyDLhW8Hh49GEWTk985Hv2Z4EeIeimqoea/veH
sbmETDjcMUqkUUAxckVm5+0YnYikiTJYWtG4S21t2cz8ROHwpG+BzGepQATJVOIg
wPMlfaxPLIZdpImYaErfzEyf1p3KIYWO39d6mQ5zDod5vC+btTKWMnmEZZAA9ogi
nV8qQ5WgkJdK/547EeHW+D9t63rle2uNl1Gyh71SiahV
-----END CERTIFICATE-----
