Certificate:
    Data:
        Version: 3 (0x2)
        Serial Number: 6201 (0x1839)
    Signature Algorithm: md5WithRSAEncryption
        Issuer: C=US, ST=OH, L=Columbus, O=VikingVPN, OU=MyOrganizationalUnit, CN=VikingVPN CA/name=EasyRSA/emailAddress=me@myhost.mydomain
        Validity
            Not Before: Sep  4 04:06:47 2015 GMT
            Not After : Sep  1 04:06:47 2025 GMT
        Subject: CN=Client1948Cert1219a8
        Subject Public Key Info:
            Public Key Algorithm: rsaEncryption
                Public-Key: (4096 bit)
                Modulus:
                    00:c9:2b:c4:e5:f4:fe:79:c0:3a:f4:da:64:86:98:
                    62:da:1b:29:ae:fa:fd:ad:00:43:eb:46:31:b8:3a:
                    16:89:32:6f:ac:89:d1:58:69:09:17:af:38:2c:67:
                    a6:9e:9b:67:bd:53:cf:72:c7:48:d1:5d:67:62:b1:
                    06:a5:3d:35:2b:a9:09:00:cb:1c:3e:cd:5c:5a:cb:
                    80:c6:ad:da:e0:15:04:49:c4:ca:73:11:81:4e:11:
                    9a:ad:94:e8:ac:52:33:e9:30:92:b0:2d:db:59:a1:
                    c2:fb:f2:c1:46:6d:34:1c:fc:bd:47:30:d2:94:49:
                    e3:11:2f:c1:87:7b:e9:cb:88:64:92:54:c6:fc:0d:
                    b2:6a:60:63:87:ba:3c:f0:13:44:dc:ec:64:7d:2d:
                    a7:79:ac:47:cb:d6:52:5a:73:d3:57:bb:3e:8c:18:
                    6b:58:95:49:98:7b:a3:d5:8d:ff:fd:30:f2:9c:84:
                    b8:13:1f:38:a9:5e:43:21:83:2b:c9:65:94:5d:22:
                    4d:15:1c:82:5f:84:77:43:aa:df:54:05:20:8e:62:
                    40:41:b4:93:84:aa:a5:43:4d:01:4f:8d:56:25:08:
                    1b:1b:56:79:a7:70:5a:c8:b3:2c:16:2d:e4:e8:93:
                    06:8f:51:72:ed:2c:92:2c:24:e1:a0:68:2c:27:5b:
                    d0:21:06:bd:8f:89:40:b7:a2:13:41:5f:1e:9e:2d:
                    90:71:61:a4:20:1c:40:79:4f:db:3a:12:90:77:e8:
                    ed:93:ea:4e:1c:a8:f5:12:1d:b4:a9:2a:ba:bb:a6:
                    24:c5:41:7d:35:26:76:7c:43:b3:cd:3f:ec:38:9a:
                    47:22:5d:b1:e1:0c:b8:32:d9:0b:01:cb:78:e6:e0:
                    3b:6d:a0:4b:a8:54:7f:d2:76:9a:af:fe:67:1d:a8:
                    1c:6e:6b:a0:3d:75:cb:c4:f7:c5:33:90:7d:30:0b:
                    d9:3b:61:cc:91:6e:f1:f6:f1:c3:f8:ed:60:6e:23:
                    b1:4f:2f:6f:f0:63:25:1b:11:55:90:03:bd:de:1a:
                    7d:7f:9f:d2:ae:cf:81:0e:4c:66:1d:1b:0f:d1:f7:
                    58:53:82:b2:91:a6:35:b3:e9:c8:b5:9b:86:1f:54:
                    f2:ad:a7:6c:b4:4e:79:53:58:a3:31:d6:31:5d:3b:
                    01:03:92:e3:37:8c:8c:29:93:df:1c:b4:47:c5:d2:
                    19:0b:15:5d:cc:a7:cc:bd:94:58:dc:61:78:40:f2:
                    97:6d:ab:af:d2:ab:fb:b3:53:bc:13:35:7a:18:cc:
                    9c:89:9b:12:bd:d5:4d:3a:f5:2d:d1:09:c5:c6:87:
                    f2:f2:e9:1d:a8:80:5a:6e:07:54:94:be:25:f9:16:
                    b7:c8:7d
                Exponent: 65537 (0x10001)
        X509v3 extensions:
            X509v3 Basic Constraints: 
                CA:FALSE
            Netscape Comment: 
                Easy-RSA Generated Certificate
            X509v3 Subject Key Identifier: 
                06:C0:71:EE:7F:2B:24:1F:FC:A7:1D:80:C6:D3:5C:B2:A3:1C:D5:8A
            X509v3 Authority Key Identifier: 
                keyid:12:CD:60:04:D2:A0:80:9E:70:ED:C6:99:B8:7B:2C:C6:52:FD:19:A1
                DirName:/C=US/ST=OH/L=Columbus/O=VikingVPN/OU=MyOrganizationalUnit/CN=VikingVPN CA/name=EasyRSA/emailAddress=me@myhost.mydomain
                serial:CF:35:85:EE:80:BF:2A:3E

            X509v3 Extended Key Usage: 
                TLS Web Client Authentication
            X509v3 Key Usage: 
                Digital Signature
    Signature Algorithm: md5WithRSAEncryption
         57:d0:d3:81:02:22:3b:e4:10:ba:1a:9d:dc:9a:8a:f0:53:eb:
         ce:8a:42:3f:d6:e1:f1:c9:8a:da:8f:99:c8:84:ad:d8:b2:2f:
         ec:a2:ad:71:00:bd:e4:24:31:16:7d:0c:63:1a:f0:23:4f:cf:
         43:71:93:19:ea:28:7c:5c:f5:ab:2c:e5:48:39:35:f1:99:6e:
         fc:15:67:cf:8d:29:f9:57:27:3a:61:18:00:a9:a2:59:99:d5:
         44:71:57:a7:55:06:2d:27:35:3c:ab:ee:21:66:6b:86:06:6a:
         47:4e:71:12:79:6c:b5:c0:7c:61:1d:31:7d:91:95:36:f4:44:
         6a:b8:33:22:6e:7c:ee:95:93:bd:59:b3:05:fa:f6:63:47:28:
         d4:c1:ef:27:0a:1e:de:ad:d2:04:18:c7:dd:0f:7d:b6:ab:08:
         fb:59:d2:df:ec:75:64:d0:06:b2:09:49:76:7e:3d:e1:13:f1:
         31:75:1e:66:08:61:53:5a:93:40:0e:c8:1a:ed:f3:68:40:a0:
         fc:57:19:85:9d:0c:72:72:e0:da:2c:a2:ab:eb:ba:5b:2f:80:
         80:31:f7:98:d4:d0:bb:4f:48:21:6f:59:c6:57:65:30:d3:98:
         ad:a7:25:4d:11:fb:15:68:92:16:9d:b1:04:60:75:df:1c:4e:
         81:d1:00:ce:05:bd:0d:55:31:bf:3c:c9:f4:6e:59:7d:87:b9:
         c4:18:b4:d3:12:ba:1e:01:39:b1:77:88:dc:31:b5:6b:03:55:
         75:7f:05:ec:37:fa:76:52:19:5d:7d:c7:b3:54:bc:07:1b:7b:
         fb:9d:b6:0b:78:1b:0c:4f:5b:e7:d5:5a:f6:08:68:6c:1c:2f:
         87:56:8f:26:29:8f:c9:87:de:38:5e:fc:27:63:f1:4e:92:52:
         13:df:f3:93:a9:ee:da:df:47:d9:fe:1f:0f:8a:98:f5:c6:ad:
         4e:ec:d5:b8:a2:ca:40:f3:7a:d4:23:9e:c0:ff:69:be:d0:ec:
         e1:b0:e1:9f:3c:ff:e2:85:76:a0:b3:c8:79:bb:2b:cf:0b:f1:
         c3:13:6d:f6:81:5c:27:b6:bf:ed:59:af:30:8c:da:92:ff:7a:
         65:0f:df:61:b4:ef:cd:65:24:f8:f0:bd:40:af:c4:6e:83:3b:
         38:5c:6f:d8:c9:8a:c3:25:44:84:06:dd:f1:2d:be:7c:1f:ba:
         2a:fa:27:4f:cd:58:2c:e9:88:d3:c1:76:07:2a:17:4e:41:d2:
         21:8a:74:a9:09:6b:46:0e:fe:c4:ee:7c:ea:00:6e:70:87:03:
         83:72:6f:89:6b:df:8a:4b:67:b1:c7:e5:2d:1a:74:70:fc:5f:
         25:1d:e1:94:23:1b:1c:09
-----BEGIN CERTIFICATE-----
MIIGrTCCBJWgAwIBAgICGDkwDQYJKoZIhvcNAQEEBQAwgawxCzAJBgNVBAYTAlVT
MQswCQYDVQQIEwJPSDERMA8GA1UEBxMIQ29sdW1idXMxEjAQBgNVBAoTCVZpa2lu
Z1ZQTjEdMBsGA1UECxMUTXlPcmdhbml6YXRpb25hbFVuaXQxFTATBgNVBAMTDFZp
a2luZ1ZQTiBDQTEQMA4GA1UEKRMHRWFzeVJTQTEhMB8GCSqGSIb3DQEJARYSbWVA
bXlob3N0Lm15ZG9tYWluMB4XDTE1MDkwNDA0MDY0N1oXDTI1MDkwMTA0MDY0N1ow
HzEdMBsGA1UEAxMUQ2xpZW50MTk0OENlcnQxMjE5YTgwggIiMA0GCSqGSIb3DQEB
AQUAA4ICDwAwggIKAoICAQDJK8Tl9P55wDr02mSGmGLaGymu+v2tAEPrRjG4OhaJ
Mm+sidFYaQkXrzgsZ6aem2e9U89yx0jRXWdisQalPTUrqQkAyxw+zVxay4DGrdrg
FQRJxMpzEYFOEZqtlOisUjPpMJKwLdtZocL78sFGbTQc/L1HMNKUSeMRL8GHe+nL
iGSSVMb8DbJqYGOHujzwE0Tc7GR9Lad5rEfL1lJac9NXuz6MGGtYlUmYe6PVjf/9
MPKchLgTHzipXkMhgyvJZZRdIk0VHIJfhHdDqt9UBSCOYkBBtJOEqqVDTQFPjVYl
CBsbVnmncFrIsywWLeTokwaPUXLtLJIsJOGgaCwnW9AhBr2PiUC3ohNBXx6eLZBx
YaQgHEB5T9s6EpB36O2T6k4cqPUSHbSpKrq7piTFQX01JnZ8Q7PNP+w4mkciXbHh
DLgy2QsBy3jm4DttoEuoVH/Sdpqv/mcdqBxua6A9dcvE98UzkH0wC9k7YcyRbvH2
8cP47WBuI7FPL2/wYyUbEVWQA73eGn1/n9Kuz4EOTGYdGw/R91hTgrKRpjWz6ci1
m4YfVPKtp2y0TnlTWKMx1jFdOwEDkuM3jIwpk98ctEfF0hkLFV3Mp8y9lFjcYXhA
8pdtq6/Sq/uzU7wTNXoYzJyJmxK91U069S3RCcXGh/Ly6R2ogFpuB1SUviX5FrfI
fQIDAQABo4IBYzCCAV8wCQYDVR0TBAIwADAtBglghkgBhvhCAQ0EIBYeRWFzeS1S
U0EgR2VuZXJhdGVkIENlcnRpZmljYXRlMB0GA1UdDgQWBBQGwHHufyskH/ynHYDG
01yyoxzVijCB4QYDVR0jBIHZMIHWgBQSzWAE0qCAnnDtxpm4eyzGUv0ZoaGBsqSB
rzCBrDELMAkGA1UEBhMCVVMxCzAJBgNVBAgTAk9IMREwDwYDVQQHEwhDb2x1bWJ1
czESMBAGA1UEChMJVmlraW5nVlBOMR0wGwYDVQQLExRNeU9yZ2FuaXphdGlvbmFs
VW5pdDEVMBMGA1UEAxMMVmlraW5nVlBOIENBMRAwDgYDVQQpEwdFYXN5UlNBMSEw
HwYJKoZIhvcNAQkBFhJtZUBteWhvc3QubXlkb21haW6CCQDPNYXugL8qPjATBgNV
HSUEDDAKBggrBgEFBQcDAjALBgNVHQ8EBAMCB4AwDQYJKoZIhvcNAQEEBQADggIB
AFfQ04ECIjvkELoandyaivBT686KQj/W4fHJitqPmciErdiyL+yirXEAveQkMRZ9
DGMa8CNPz0NxkxnqKHxc9ass5Ug5NfGZbvwVZ8+NKflXJzphGACpolmZ1URxV6dV
Bi0nNTyr7iFma4YGakdOcRJ5bLXAfGEdMX2RlTb0RGq4MyJufO6Vk71ZswX69mNH
KNTB7ycKHt6t0gQYx90PfbarCPtZ0t/sdWTQBrIJSXZ+PeET8TF1HmYIYVNak0AO
yBrt82hAoPxXGYWdDHJy4NosoqvrulsvgIAx95jU0LtPSCFvWcZXZTDTmK2nJU0R
+xVokhadsQRgdd8cToHRAM4FvQ1VMb88yfRuWX2HucQYtNMSuh4BObF3iNwxtWsD
VXV/Bew3+nZSGV19x7NUvAcbe/udtgt4GwxPW+fVWvYIaGwcL4dWjyYpj8mH3jhe
/Cdj8U6SUhPf85Op7trfR9n+Hw+KmPXGrU7s1biiykDzetQjnsD/ab7Q7OGw4Z88
/+KFdqCzyHm7K88L8cMTbfaBXCe2v+1ZrzCM2pL/emUP32G0781lJPjwvUCvxG6D
Ozhcb9jJisMlRIQG3fEtvnwfuir6J0/NWCzpiNPBdgcqF05B0iGKdKkJa0YO/sTu
fOoAbnCHA4Nyb4lr34pLZ7HH5S0adHD8XyUd4ZQjGxwJ
-----END CERTIFICATE-----
