Certificate:
    Data:
        Version: 3 (0x2)
        Serial Number: 6213 (0x1845)
    Signature Algorithm: md5WithRSAEncryption
        Issuer: C=US, ST=OH, L=Columbus, O=VikingVPN, OU=MyOrganizationalUnit, CN=VikingVPN CA/name=EasyRSA/emailAddress=me@myhost.mydomain
        Validity
            Not Before: Sep  6 04:15:14 2015 GMT
            Not After : Sep  3 04:15:14 2025 GMT
        Subject: CN=Client1913Cert79e8b5
        Subject Public Key Info:
            Public Key Algorithm: rsaEncryption
                Public-Key: (4096 bit)
                Modulus:
                    00:a5:5e:87:75:62:f7:71:18:81:23:16:36:0d:3d:
                    eb:8c:20:11:f9:76:6d:de:59:9c:99:f1:9c:60:32:
                    51:78:f6:0d:f7:97:9c:24:70:fb:17:c0:ed:2e:36:
                    02:3d:3f:5e:95:12:7f:08:54:a8:1e:d2:f5:d4:22:
                    e8:61:7f:56:79:9c:40:39:38:f3:5f:04:76:0d:50:
                    81:90:c4:31:50:85:5b:30:68:3d:78:78:dd:d3:e3:
                    4c:66:3f:0a:9b:4d:00:9b:a8:72:36:59:1b:ca:a3:
                    99:64:3e:85:cd:b0:8e:c1:50:65:5c:2e:9a:3b:25:
                    d6:f6:e8:59:11:cf:0c:55:29:b3:2f:0d:82:cb:fc:
                    54:a7:ac:ac:f8:86:5c:fd:f0:b5:7c:3e:80:e8:da:
                    9f:e9:e9:f0:29:c8:da:3d:f5:77:bf:21:e4:9b:7f:
                    ae:02:32:2f:0e:c2:6a:96:05:cb:e7:f5:eb:64:22:
                    da:ba:49:cf:bd:53:ea:27:1f:4f:c6:b1:2b:13:d2:
                    33:c8:a8:4b:66:00:6a:cd:2d:29:f9:7c:91:90:fc:
                    be:4b:63:4d:94:f5:c1:de:10:01:99:49:06:22:2d:
                    b1:4f:c5:78:ea:e6:d4:26:99:79:88:11:ad:3b:28:
                    ec:17:7e:83:15:27:94:7e:5a:d1:d2:0f:9d:c8:ac:
                    38:46:c6:94:22:38:ff:ae:20:71:4c:d5:f4:10:48:
                    c2:2c:6a:3d:22:56:2a:7b:14:f1:d7:1f:35:d6:11:
                    0d:6a:97:be:99:eb:b4:82:df:3c:17:a4:de:65:25:
                    47:98:ea:4a:d1:57:a2:e0:1e:f5:3e:08:c9:74:43:
                    49:ed:aa:1f:67:da:21:c6:6d:85:aa:94:5f:6d:79:
                    13:4d:69:e1:95:59:39:d5:45:c1:d9:00:7d:0d:89:
                    9b:c8:ff:95:08:ec:bc:76:28:5d:4f:a1:f5:79:4c:
                    5d:0f:b1:c0:e4:64:ac:43:d7:e1:eb:35:54:4b:b5:
                    4a:48:77:cb:49:1b:f5:dc:89:de:b1:97:38:d2:60:
                    39:4f:1d:2f:05:80:e8:dc:b4:d3:50:ff:c6:97:2c:
                    24:46:3f:d0:51:f6:db:35:a1:f6:e2:b1:df:d0:c2:
                    06:72:a0:8d:97:df:e6:bd:bb:95:26:20:90:ed:33:
                    93:a1:d6:78:f7:0f:3b:8a:20:c5:cf:a1:a6:65:12:
                    e4:18:cd:4b:e0:b5:6d:e4:c4:e5:72:97:4d:8e:dc:
                    9f:6e:3d:9a:1e:a0:4e:be:82:53:1e:0f:6c:9d:57:
                    e6:65:3e:f5:be:60:ee:83:f1:ed:c6:64:85:79:51:
                    b1:68:d2:a0:32:d8:e6:4d:ee:1e:4e:94:9b:b2:3f:
                    eb:94:a1
                Exponent: 65537 (0x10001)
        X509v3 extensions:
            X509v3 Basic Constraints: 
                CA:FALSE
            Netscape Comment: 
                Easy-RSA Generated Certificate
            X509v3 Subject Key Identifier: 
                62:CD:61:BA:E6:86:37:C5:96:1D:CF:0B:98:1B:F8:E7:99:72:D5:B0
            X509v3 Authority Key Identifier: 
                keyid:12:CD:60:04:D2:A0:80:9E:70:ED:C6:99:B8:7B:2C:C6:52:FD:19:A1
                DirName:/C=US/ST=OH/L=Columbus/O=VikingVPN/OU=MyOrganizationalUnit/CN=VikingVPN CA/name=EasyRSA/emailAddress=me@myhost.mydomain
                serial:CF:35:85:EE:80:BF:2A:3E

            X509v3 Extended Key Usage: 
                TLS Web Client Authentication
            X509v3 Key Usage: 
                Digital Signature
    Signature Algorithm: md5WithRSAEncryption
         11:22:cb:17:6a:62:e9:59:2c:24:01:0e:6c:74:92:55:da:75:
         44:ce:8d:e2:e5:69:34:bd:44:7f:38:6c:d7:a7:34:3e:54:b6:
         dd:36:d8:6b:ca:db:37:0f:04:0c:51:00:6d:07:d6:92:45:a9:
         99:8b:3b:01:8c:b0:85:6e:f6:6d:1c:f4:6e:72:be:0c:38:0c:
         ae:0a:44:a2:df:d4:9e:01:a0:90:b6:05:7c:e3:fd:76:f4:bd:
         4f:a2:00:4f:68:3c:fa:e8:1c:97:a4:45:25:25:60:fd:7c:60:
         ba:d9:20:d1:35:3c:a8:50:bb:14:ea:a6:f9:b6:94:b4:8c:21:
         18:13:56:2f:bb:02:9b:df:f4:82:03:ec:bd:73:7d:34:12:bc:
         f9:90:14:b5:d5:61:9c:f4:f9:91:0f:b0:59:5a:a3:42:74:ec:
         da:37:a0:d3:99:55:a1:66:8f:31:fa:c1:cc:43:14:66:f0:93:
         a7:b9:f7:9c:1f:5c:31:07:d0:68:1e:5a:cd:23:c9:a8:93:43:
         63:d6:2a:cb:20:06:17:95:62:66:0d:29:0c:da:aa:4b:1e:64:
         66:bb:8d:89:ce:fe:df:d3:6c:00:81:55:70:07:e1:0c:05:eb:
         5e:96:4b:34:b7:6c:be:76:07:29:a0:d1:bd:84:85:b9:3b:52:
         38:da:10:23:ec:a8:02:dd:69:c2:7a:be:4b:5f:bb:a9:2c:71:
         1f:bd:d9:20:a9:dd:bc:41:01:d4:3d:d8:2b:dc:85:3d:83:2c:
         01:51:0d:cc:49:49:1c:2d:36:4c:01:7c:9e:4d:6d:89:7b:07:
         08:01:7f:a0:9e:e2:39:62:46:58:48:dc:e5:92:23:d0:5f:8b:
         d9:66:cb:c1:76:42:f6:38:67:87:34:44:5e:41:a9:2e:c4:65:
         89:61:2f:9b:63:3e:b2:42:45:22:4f:b0:51:82:75:5e:34:93:
         c4:63:7f:9b:da:5f:23:16:01:b0:f5:ec:f3:be:5d:0c:02:18:
         7b:5d:27:99:f6:56:32:ef:7b:17:86:73:40:04:88:d8:f7:08:
         c1:fb:d0:fd:fe:03:ff:75:00:e8:12:a1:b9:47:55:d0:4d:7e:
         44:9d:12:d2:84:ad:47:26:74:a7:f9:9b:39:f9:08:bc:38:fc:
         86:23:bf:2d:23:55:63:56:3d:6d:d1:5a:e1:1c:ef:fc:41:9e:
         6f:41:b1:c0:7e:6d:63:e6:66:95:93:a0:cc:49:02:17:ae:67:
         62:61:fb:3c:da:73:db:18:2e:6d:23:64:3f:a7:fb:1d:30:7e:
         c0:2d:98:75:a8:6f:4b:66:a7:ad:2f:da:0d:0b:05:c0:c4:44:
         d2:a7:7f:55:54:19:09:09
-----BEGIN CERTIFICATE-----
MIIGrTCCBJWgAwIBAgICGEUwDQYJKoZIhvcNAQEEBQAwgawxCzAJBgNVBAYTAlVT
MQswCQYDVQQIEwJPSDERMA8GA1UEBxMIQ29sdW1idXMxEjAQBgNVBAoTCVZpa2lu
Z1ZQTjEdMBsGA1UECxMUTXlPcmdhbml6YXRpb25hbFVuaXQxFTATBgNVBAMTDFZp
a2luZ1ZQTiBDQTEQMA4GA1UEKRMHRWFzeVJTQTEhMB8GCSqGSIb3DQEJARYSbWVA
bXlob3N0Lm15ZG9tYWluMB4XDTE1MDkwNjA0MTUxNFoXDTI1MDkwMzA0MTUxNFow
HzEdMBsGA1UEAxMUQ2xpZW50MTkxM0NlcnQ3OWU4YjUwggIiMA0GCSqGSIb3DQEB
AQUAA4ICDwAwggIKAoICAQClXod1YvdxGIEjFjYNPeuMIBH5dm3eWZyZ8ZxgMlF4
9g33l5wkcPsXwO0uNgI9P16VEn8IVKge0vXUIuhhf1Z5nEA5OPNfBHYNUIGQxDFQ
hVswaD14eN3T40xmPwqbTQCbqHI2WRvKo5lkPoXNsI7BUGVcLpo7Jdb26FkRzwxV
KbMvDYLL/FSnrKz4hlz98LV8PoDo2p/p6fApyNo99Xe/IeSbf64CMi8OwmqWBcvn
9etkItq6Sc+9U+onH0/GsSsT0jPIqEtmAGrNLSn5fJGQ/L5LY02U9cHeEAGZSQYi
LbFPxXjq5tQmmXmIEa07KOwXfoMVJ5R+WtHSD53IrDhGxpQiOP+uIHFM1fQQSMIs
aj0iVip7FPHXHzXWEQ1ql76Z67SC3zwXpN5lJUeY6krRV6LgHvU+CMl0Q0ntqh9n
2iHGbYWqlF9teRNNaeGVWTnVRcHZAH0NiZvI/5UI7Lx2KF1PofV5TF0PscDkZKxD
1+HrNVRLtUpId8tJG/Xcid6xlzjSYDlPHS8FgOjctNNQ/8aXLCRGP9BR9ts1ofbi
sd/QwgZyoI2X3+a9u5UmIJDtM5Oh1nj3DzuKIMXPoaZlEuQYzUvgtW3kxOVyl02O
3J9uPZoeoE6+glMeD2ydV+ZlPvW+YO6D8e3GZIV5UbFo0qAy2OZN7h5OlJuyP+uU
oQIDAQABo4IBYzCCAV8wCQYDVR0TBAIwADAtBglghkgBhvhCAQ0EIBYeRWFzeS1S
U0EgR2VuZXJhdGVkIENlcnRpZmljYXRlMB0GA1UdDgQWBBRizWG65oY3xZYdzwuY
G/jnmXLVsDCB4QYDVR0jBIHZMIHWgBQSzWAE0qCAnnDtxpm4eyzGUv0ZoaGBsqSB
rzCBrDELMAkGA1UEBhMCVVMxCzAJBgNVBAgTAk9IMREwDwYDVQQHEwhDb2x1bWJ1
czESMBAGA1UEChMJVmlraW5nVlBOMR0wGwYDVQQLExRNeU9yZ2FuaXphdGlvbmFs
VW5pdDEVMBMGA1UEAxMMVmlraW5nVlBOIENBMRAwDgYDVQQpEwdFYXN5UlNBMSEw
HwYJKoZIhvcNAQkBFhJtZUBteWhvc3QubXlkb21haW6CCQDPNYXugL8qPjATBgNV
HSUEDDAKBggrBgEFBQcDAjALBgNVHQ8EBAMCB4AwDQYJKoZIhvcNAQEEBQADggIB
ABEiyxdqYulZLCQBDmx0klXadUTOjeLlaTS9RH84bNenND5Utt022GvK2zcPBAxR
AG0H1pJFqZmLOwGMsIVu9m0c9G5yvgw4DK4KRKLf1J4BoJC2BXzj/Xb0vU+iAE9o
PProHJekRSUlYP18YLrZINE1PKhQuxTqpvm2lLSMIRgTVi+7Apvf9IID7L1zfTQS
vPmQFLXVYZz0+ZEPsFlao0J07No3oNOZVaFmjzH6wcxDFGbwk6e595wfXDEH0Gge
Ws0jyaiTQ2PWKssgBheVYmYNKQzaqkseZGa7jYnO/t/TbACBVXAH4QwF616WSzS3
bL52Bymg0b2Ehbk7UjjaECPsqALdacJ6vktfu6kscR+92SCp3bxBAdQ92CvchT2D
LAFRDcxJSRwtNkwBfJ5NbYl7BwgBf6Ce4jliRlhI3OWSI9Bfi9lmy8F2QvY4Z4c0
RF5BqS7EZYlhL5tjPrJCRSJPsFGCdV40k8Rjf5vaXyMWAbD17PO+XQwCGHtdJ5n2
VjLvexeGc0AEiNj3CMH70P3+A/91AOgSoblHVdBNfkSdEtKErUcmdKf5mzn5CLw4
/IYjvy0jVWNWPW3RWuEc7/xBnm9BscB+bWPmZpWToMxJAheuZ2Jh+zzac9sYLm0j
ZD+n+x0wfsAtmHWob0tmp60v2g0LBcDERNKnf1VUGQkJ
-----END CERTIFICATE-----
