Certificate:
    Data:
        Version: 3 (0x2)
        Serial Number: 6221 (0x184d)
    Signature Algorithm: md5WithRSAEncryption
        Issuer: C=US, ST=OH, L=Columbus, O=VikingVPN, OU=MyOrganizationalUnit, CN=VikingVPN CA/name=EasyRSA/emailAddress=me@myhost.mydomain
        Validity
            Not Before: Sep  6 18:28:37 2015 GMT
            Not After : Sep  3 18:28:37 2025 GMT
        Subject: CN=Client1895Certcd446d
        Subject Public Key Info:
            Public Key Algorithm: rsaEncryption
                Public-Key: (4096 bit)
                Modulus:
                    00:e7:88:08:36:3f:e5:4e:37:9b:d1:7d:ea:d2:f9:
                    f4:5b:32:2b:e5:3c:55:6a:65:8d:ff:99:0d:6e:72:
                    fa:f2:e0:36:b1:9b:67:45:1b:62:b4:ef:1c:df:21:
                    94:c2:ea:ba:e2:4c:2b:8b:b4:05:7a:41:37:77:98:
                    71:59:c0:a9:c1:29:3a:bf:be:e6:6f:7f:b6:3e:fd:
                    92:90:e7:89:3a:dd:ae:ec:fc:a1:c0:d7:73:9b:71:
                    4d:77:6b:3d:26:ad:e1:14:8b:22:6d:5d:dd:10:1c:
                    16:31:31:15:03:5b:8f:a1:45:8e:c2:68:48:b5:b0:
                    70:52:3e:ad:60:0e:f9:01:e8:e9:70:15:7d:c7:9c:
                    11:88:9f:4e:1e:2e:05:ea:8a:be:6f:d8:7d:64:81:
                    ce:ad:58:2d:0d:3b:2b:bf:65:90:62:be:f7:09:6a:
                    5f:9b:12:36:fc:8d:52:0f:f5:b9:9d:0f:82:1d:9c:
                    82:3a:60:66:8b:16:b2:a1:5e:0d:2a:a1:71:3a:a5:
                    f9:6e:20:e3:8b:69:6a:e3:78:97:4a:f1:f9:da:30:
                    2d:9b:ba:02:b6:95:a9:56:51:f8:47:b7:53:b4:23:
                    1f:dc:bb:9c:a4:31:7a:a5:06:dd:db:4e:6a:39:4f:
                    43:c8:52:81:59:54:8a:7d:27:6a:49:ec:e0:d1:44:
                    40:04:d5:1a:77:e5:48:78:fe:7a:ef:61:cd:c4:27:
                    99:61:ca:c3:21:8e:2b:0a:42:37:68:e2:a5:d0:67:
                    95:04:f2:66:0d:53:50:5a:f7:a9:2d:db:70:44:82:
                    66:4f:f6:43:af:a1:48:e7:1d:b6:84:4b:a3:d8:e4:
                    f8:7e:cb:85:86:90:9b:0d:40:8e:fc:36:e8:8b:e2:
                    bc:f7:c0:cf:0c:a3:8b:6a:9e:45:c2:e0:40:f0:e7:
                    99:e6:c7:01:07:10:20:6f:2c:6e:2c:d0:3e:db:91:
                    92:b0:73:95:2d:a7:d2:13:5d:27:6c:43:ba:b1:b3:
                    cb:51:c7:74:aa:2c:fc:f1:9f:61:65:37:1a:3d:9f:
                    3d:74:6d:98:4e:ab:4a:9e:db:9d:d2:1d:88:81:4d:
                    ce:fa:5d:c4:3f:d7:6b:b3:39:0f:a6:89:78:39:ff:
                    32:b8:95:5a:d8:ac:0e:bd:76:63:7c:74:bd:8c:9b:
                    6a:7c:5c:36:cb:81:1d:da:e1:40:e1:cf:10:77:29:
                    ba:4d:5f:8c:c1:0d:b1:8c:b4:b1:75:15:6f:f4:48:
                    29:18:a6:e9:2a:f8:20:ba:2b:f8:85:4a:fb:4e:91:
                    c2:16:0d:25:91:d3:e4:54:70:95:8c:5e:ef:75:f1:
                    d4:d5:e9:a4:bc:1f:3c:68:4b:0d:4b:63:77:25:71:
                    a0:14:89
                Exponent: 65537 (0x10001)
        X509v3 extensions:
            X509v3 Basic Constraints: 
                CA:FALSE
            Netscape Comment: 
                Easy-RSA Generated Certificate
            X509v3 Subject Key Identifier: 
                71:00:7D:D6:F1:9C:C6:8E:42:05:E6:57:71:02:A4:9B:2D:A8:45:5F
            X509v3 Authority Key Identifier: 
                keyid:12:CD:60:04:D2:A0:80:9E:70:ED:C6:99:B8:7B:2C:C6:52:FD:19:A1
                DirName:/C=US/ST=OH/L=Columbus/O=VikingVPN/OU=MyOrganizationalUnit/CN=VikingVPN CA/name=EasyRSA/emailAddress=me@myhost.mydomain
                serial:CF:35:85:EE:80:BF:2A:3E

            X509v3 Extended Key Usage: 
                TLS Web Client Authentication
            X509v3 Key Usage: 
                Digital Signature
    Signature Algorithm: md5WithRSAEncryption
         c7:50:05:e9:49:55:62:17:b5:08:66:52:cb:13:41:7c:45:93:
         8a:66:95:ab:5a:e8:b2:e7:d2:11:e6:e0:c6:02:15:23:29:8f:
         d3:05:81:c9:4d:71:59:c9:e7:e4:a5:2f:e2:7a:fd:2c:49:55:
         23:e6:20:dc:e9:63:37:cc:cc:ff:5e:c5:7f:c4:de:6d:39:5c:
         79:8b:8c:6b:c0:43:df:e8:5a:74:1f:fa:7c:ac:53:16:79:6c:
         59:73:77:38:02:58:dc:a8:cf:c8:48:d2:f6:cb:b2:b8:ee:03:
         fb:a7:2f:45:31:91:b6:72:88:d9:a2:c0:71:20:aa:44:99:62:
         ec:78:9c:43:23:c4:b7:ee:13:0e:72:68:c6:f4:e0:f9:29:c9:
         30:34:95:77:19:79:d6:d1:61:06:7f:1f:65:0f:1d:7a:6d:42:
         cf:07:a5:c0:a1:8a:cc:16:cd:7b:88:b9:85:3c:99:f2:95:2a:
         8e:6a:68:0e:0a:8d:94:0f:99:87:ee:79:37:90:47:29:27:11:
         eb:70:eb:8f:42:21:b9:31:93:7a:60:1b:5b:7a:13:b1:e9:58:
         e5:2a:3b:2c:44:f7:f7:e6:c3:e7:90:cc:5e:d6:ad:55:da:ed:
         1f:d3:d7:76:db:2a:3a:2f:b0:12:6d:a3:2b:32:a6:51:ec:98:
         86:62:a9:ce:56:ad:2d:02:53:81:1c:0a:04:af:ed:96:b7:e9:
         f1:5b:a0:51:86:14:b8:bb:bc:a5:e5:2d:a9:33:62:f8:c0:30:
         43:81:60:17:2c:ef:2f:d7:d5:fd:39:c4:4f:5c:f7:5d:ad:b9:
         49:df:a3:3e:49:e6:5b:57:08:23:f5:d3:c0:d2:12:47:4d:97:
         60:f3:cc:db:04:c9:a6:17:c0:9f:de:74:da:f5:dc:ba:ef:2b:
         96:03:c0:53:da:17:43:38:c6:c9:ec:7f:6c:8d:f1:c7:fc:3e:
         89:0d:3e:47:8d:19:cf:cd:6f:e5:5c:b4:2a:ca:d6:1f:11:f7:
         bd:2e:7d:66:e1:77:6e:2f:17:95:1d:4a:d1:68:bb:ba:d7:91:
         f0:df:76:e8:e3:93:2a:c2:3f:f1:a2:0a:52:32:3b:3a:27:d5:
         fa:2d:c0:d5:b1:21:4b:f7:94:c9:73:ea:dc:55:fa:0d:4d:de:
         6c:98:22:c1:2f:ac:ca:55:47:de:b9:0d:b5:cb:f3:b6:1e:b1:
         83:88:c9:18:de:95:97:f9:f0:44:f2:26:05:5b:6f:ba:6a:ac:
         37:d4:50:74:52:ab:4d:cf:21:eb:c4:ed:db:74:2a:f9:bf:c5:
         40:fd:c5:75:f3:e2:5f:c2:3a:6d:46:75:83:4b:cf:27:41:61:
         32:bb:41:49:9a:0f:9d:91
-----BEGIN CERTIFICATE-----
MIIGrTCCBJWgAwIBAgICGE0wDQYJKoZIhvcNAQEEBQAwgawxCzAJBgNVBAYTAlVT
MQswCQYDVQQIEwJPSDERMA8GA1UEBxMIQ29sdW1idXMxEjAQBgNVBAoTCVZpa2lu
Z1ZQTjEdMBsGA1UECxMUTXlPcmdhbml6YXRpb25hbFVuaXQxFTATBgNVBAMTDFZp
a2luZ1ZQTiBDQTEQMA4GA1UEKRMHRWFzeVJTQTEhMB8GCSqGSIb3DQEJARYSbWVA
bXlob3N0Lm15ZG9tYWluMB4XDTE1MDkwNjE4MjgzN1oXDTI1MDkwMzE4MjgzN1ow
HzEdMBsGA1UEAxMUQ2xpZW50MTg5NUNlcnRjZDQ0NmQwggIiMA0GCSqGSIb3DQEB
AQUAA4ICDwAwggIKAoICAQDniAg2P+VON5vRferS+fRbMivlPFVqZY3/mQ1ucvry
4Daxm2dFG2K07xzfIZTC6rriTCuLtAV6QTd3mHFZwKnBKTq/vuZvf7Y+/ZKQ54k6
3a7s/KHA13ObcU13az0mreEUiyJtXd0QHBYxMRUDW4+hRY7CaEi1sHBSPq1gDvkB
6OlwFX3HnBGIn04eLgXqir5v2H1kgc6tWC0NOyu/ZZBivvcJal+bEjb8jVIP9bmd
D4IdnII6YGaLFrKhXg0qoXE6pfluIOOLaWrjeJdK8fnaMC2bugK2lalWUfhHt1O0
Ix/cu5ykMXqlBt3bTmo5T0PIUoFZVIp9J2pJ7ODRREAE1Rp35Uh4/nrvYc3EJ5lh
ysMhjisKQjdo4qXQZ5UE8mYNU1Ba96kt23BEgmZP9kOvoUjnHbaES6PY5Ph+y4WG
kJsNQI78NuiL4rz3wM8Mo4tqnkXC4EDw55nmxwEHECBvLG4s0D7bkZKwc5Utp9IT
XSdsQ7qxs8tRx3SqLPzxn2FlNxo9nz10bZhOq0qe253SHYiBTc76XcQ/12uzOQ+m
iXg5/zK4lVrYrA69dmN8dL2Mm2p8XDbLgR3a4UDhzxB3KbpNX4zBDbGMtLF1FW/0
SCkYpukq+CC6K/iFSvtOkcIWDSWR0+RUcJWMXu918dTV6aS8HzxoSw1LY3clcaAU
iQIDAQABo4IBYzCCAV8wCQYDVR0TBAIwADAtBglghkgBhvhCAQ0EIBYeRWFzeS1S
U0EgR2VuZXJhdGVkIENlcnRpZmljYXRlMB0GA1UdDgQWBBRxAH3W8ZzGjkIF5ldx
AqSbLahFXzCB4QYDVR0jBIHZMIHWgBQSzWAE0qCAnnDtxpm4eyzGUv0ZoaGBsqSB
rzCBrDELMAkGA1UEBhMCVVMxCzAJBgNVBAgTAk9IMREwDwYDVQQHEwhDb2x1bWJ1
czESMBAGA1UEChMJVmlraW5nVlBOMR0wGwYDVQQLExRNeU9yZ2FuaXphdGlvbmFs
VW5pdDEVMBMGA1UEAxMMVmlraW5nVlBOIENBMRAwDgYDVQQpEwdFYXN5UlNBMSEw
HwYJKoZIhvcNAQkBFhJtZUBteWhvc3QubXlkb21haW6CCQDPNYXugL8qPjATBgNV
HSUEDDAKBggrBgEFBQcDAjALBgNVHQ8EBAMCB4AwDQYJKoZIhvcNAQEEBQADggIB
AMdQBelJVWIXtQhmUssTQXxFk4pmlata6LLn0hHm4MYCFSMpj9MFgclNcVnJ5+Sl
L+J6/SxJVSPmINzpYzfMzP9exX/E3m05XHmLjGvAQ9/oWnQf+nysUxZ5bFlzdzgC
WNyoz8hI0vbLsrjuA/unL0UxkbZyiNmiwHEgqkSZYux4nEMjxLfuEw5yaMb04Pkp
yTA0lXcZedbRYQZ/H2UPHXptQs8HpcChiswWzXuIuYU8mfKVKo5qaA4KjZQPmYfu
eTeQRyknEetw649CIbkxk3pgG1t6E7HpWOUqOyxE9/fmw+eQzF7WrVXa7R/T13bb
KjovsBJtoysyplHsmIZiqc5WrS0CU4EcCgSv7Za36fFboFGGFLi7vKXlLakzYvjA
MEOBYBcs7y/X1f05xE9c912tuUnfoz5J5ltXCCP108DSEkdNl2DzzNsEyaYXwJ/e
dNr13LrvK5YDwFPaF0M4xsnsf2yN8cf8PokNPkeNGc/Nb+VctCrK1h8R970ufWbh
d24vF5UdStFou7rXkfDfdujjkyrCP/GiClIyOzon1fotwNWxIUv3lMlz6txV+g1N
3myYIsEvrMpVR965DbXL87YesYOIyRjelZf58ETyJgVbb7pqrDfUUHRSq03PIevE
7dt0Kvm/xUD9xXXz4l/COm1GdYNLzydBYTK7QUmaD52R
-----END CERTIFICATE-----
