Certificate:
    Data:
        Version: 3 (0x2)
        Serial Number: 6230 (0x1856)
    Signature Algorithm: md5WithRSAEncryption
        Issuer: C=US, ST=OH, L=Columbus, O=VikingVPN, OU=MyOrganizationalUnit, CN=VikingVPN CA/name=EasyRSA/emailAddress=me@myhost.mydomain
        Validity
            Not Before: Sep  7 22:33:43 2015 GMT
            Not After : Sep  4 22:33:43 2025 GMT
        Subject: CN=Client1943Cert0ec5b1
        Subject Public Key Info:
            Public Key Algorithm: rsaEncryption
                Public-Key: (4096 bit)
                Modulus:
                    00:b9:c5:a4:28:68:94:43:d6:1a:3b:45:c1:fb:94:
                    ce:46:2c:76:36:f8:67:dd:11:d2:99:79:c6:07:b0:
                    52:75:20:26:4f:b4:a3:48:d0:c9:ef:03:16:d5:e5:
                    d8:56:65:b7:91:60:84:3b:df:ec:45:b1:70:50:1f:
                    42:c4:d9:c0:df:84:89:9f:23:84:d5:33:3c:73:2e:
                    22:71:e1:1d:0e:e8:35:89:4a:fb:de:52:6d:f5:06:
                    99:4b:79:1d:fa:b4:f7:05:a6:90:af:dd:dc:23:df:
                    c7:3c:f5:21:ee:6e:33:1c:7a:a1:be:e7:0f:6b:0d:
                    99:5e:c5:e6:60:ca:77:84:8c:eb:18:65:94:58:e0:
                    df:01:67:96:b8:6f:2d:4d:9d:2e:02:5f:0c:62:91:
                    bc:31:cc:4c:6e:36:6c:aa:5e:fd:0e:24:f0:87:ad:
                    b6:52:cf:97:66:e4:7a:b4:42:8b:cc:7d:28:70:f5:
                    14:5f:1a:57:72:4b:b2:7b:b7:dd:a7:63:36:19:5f:
                    61:1f:d6:1c:6b:3c:e9:c7:04:39:df:db:15:68:56:
                    5c:b1:dc:e0:2b:62:1a:99:e7:0e:e0:ae:b6:96:ad:
                    1b:d2:2f:6f:64:ef:93:44:6b:d7:8b:ec:79:57:6e:
                    19:ea:93:d9:6a:2b:d8:0b:f2:21:ce:92:22:da:36:
                    2f:8b:8a:e1:3d:f8:ab:bc:db:64:47:c0:9c:49:d1:
                    fe:27:9c:0b:c0:3f:2f:33:57:44:31:bb:17:99:76:
                    a2:07:4b:c1:46:66:65:84:15:56:5c:12:28:59:6e:
                    01:0c:65:c7:38:6b:fd:53:7a:3d:1c:8e:05:44:35:
                    68:ae:ee:4d:69:25:9b:ed:36:7d:34:82:e4:de:64:
                    c5:20:ed:bb:ed:e1:72:e9:e1:dd:93:f7:92:d0:7b:
                    fc:f7:bc:7a:d0:e5:85:9f:c0:72:ec:21:80:7a:15:
                    76:d3:ff:1b:04:75:45:68:28:46:e0:48:05:fc:ae:
                    84:95:65:f9:98:06:c9:2e:69:0f:c6:4e:8d:2b:2f:
                    98:94:05:49:82:54:f2:c7:4b:d0:0f:b9:1f:7f:01:
                    36:fd:e8:0e:b9:db:0c:62:19:9a:4a:06:92:e6:90:
                    2d:4d:e1:d5:82:ec:55:53:5f:8e:0e:45:2a:9c:1b:
                    44:77:c9:4a:86:92:10:14:f0:5c:0d:f6:b7:df:c3:
                    b7:63:55:20:a4:34:ba:36:3f:97:d4:76:c5:3d:21:
                    b7:fa:73:d7:b3:56:94:92:c1:7a:b5:98:6e:15:24:
                    66:59:13:72:a7:ae:c8:27:d4:07:c1:41:70:ed:b2:
                    21:8e:22:04:dd:49:4b:4c:6e:a4:15:0d:00:cd:56:
                    b8:8d:2f
                Exponent: 65537 (0x10001)
        X509v3 extensions:
            X509v3 Basic Constraints: 
                CA:FALSE
            Netscape Comment: 
                Easy-RSA Generated Certificate
            X509v3 Subject Key Identifier: 
                C3:FE:08:26:E4:CB:05:0F:D9:1C:31:B0:8E:6B:3A:7A:03:5A:DB:B2
            X509v3 Authority Key Identifier: 
                keyid:12:CD:60:04:D2:A0:80:9E:70:ED:C6:99:B8:7B:2C:C6:52:FD:19:A1
                DirName:/C=US/ST=OH/L=Columbus/O=VikingVPN/OU=MyOrganizationalUnit/CN=VikingVPN CA/name=EasyRSA/emailAddress=me@myhost.mydomain
                serial:CF:35:85:EE:80:BF:2A:3E

            X509v3 Extended Key Usage: 
                TLS Web Client Authentication
            X509v3 Key Usage: 
                Digital Signature
    Signature Algorithm: md5WithRSAEncryption
         8f:42:d2:ad:eb:f6:25:9d:27:33:af:a9:ab:30:54:89:40:21:
         56:2d:46:d8:1f:42:ab:ab:b1:1f:37:e3:c5:53:73:3f:3c:64:
         7f:9f:47:fe:47:78:76:96:96:98:96:1c:1d:fe:46:83:6d:cb:
         6c:a7:ed:39:16:90:13:c2:7a:b4:14:e7:9e:51:0c:e2:31:f6:
         94:6a:5e:02:cb:d4:a9:57:8f:bf:04:cf:77:09:c8:a7:f8:0a:
         59:ff:a7:06:7a:fd:72:e5:65:48:4f:09:1b:9a:2c:89:bd:bc:
         d4:4c:b2:9f:10:a8:46:2a:ba:ee:2e:97:e2:a0:ac:8a:88:2a:
         ef:1c:d3:00:bc:60:3f:ee:5b:18:0e:1f:52:f5:6a:2c:70:99:
         32:97:56:b6:c8:07:90:61:f3:1b:62:e9:3f:d2:45:0e:d0:aa:
         4c:4d:df:b6:b7:80:62:a9:ef:89:25:75:5f:46:28:59:18:46:
         3c:8e:00:8a:c7:c4:7f:56:4c:13:4a:e6:28:c2:b5:9b:a7:e5:
         1e:23:2e:42:bc:d0:a2:76:6c:03:10:32:50:82:7f:a3:1c:c3:
         58:f7:c7:4f:7d:ac:3b:12:74:96:52:c4:17:05:aa:36:00:88:
         40:2c:d2:1e:c1:8c:29:27:89:5e:c1:d2:35:b4:1c:e3:27:e6:
         26:11:6d:95:38:8c:b6:61:1c:60:5c:0b:61:d2:2a:6a:fd:43:
         99:3d:fe:c4:b6:6d:30:d8:29:80:fe:52:39:33:79:6e:47:ee:
         b8:d3:c9:8a:71:37:97:39:2b:a3:62:9b:76:06:f5:4f:35:6c:
         f0:35:98:e8:86:fb:37:57:c0:85:e0:b5:1d:4a:46:e9:0b:e5:
         78:f6:aa:7a:db:8f:01:c5:13:40:83:4a:5a:38:0d:e6:05:db:
         97:ba:d7:64:85:01:be:a9:4e:75:c4:4a:34:a3:e9:7a:76:c5:
         59:fc:1d:a2:1e:fe:58:48:a3:d9:e1:df:c9:0d:d5:3d:92:9f:
         d4:8f:78:b6:e8:82:25:e9:d4:2a:3e:28:8e:d7:a0:d2:07:88:
         38:11:0e:2c:68:23:1a:79:f5:46:10:3d:fe:be:57:8c:6e:ed:
         e9:dc:eb:fc:99:24:c5:dd:f1:cb:12:0c:dc:1c:6c:63:43:5f:
         14:6b:b0:6c:79:a2:d1:df:83:b6:c3:c7:24:a6:74:4a:a3:24:
         ff:ef:b3:e2:48:21:e5:62:a9:cc:65:dd:4b:07:51:15:b3:1f:
         dc:30:11:bf:8c:b9:16:19:5b:b0:01:ec:d0:cc:d4:32:ea:10:
         7c:d2:96:58:55:c8:59:c2:9e:4f:0e:7c:41:66:1d:00:1a:83:
         b1:22:cd:ca:72:4c:05:b5
-----BEGIN CERTIFICATE-----
MIIGrTCCBJWgAwIBAgICGFYwDQYJKoZIhvcNAQEEBQAwgawxCzAJBgNVBAYTAlVT
MQswCQYDVQQIEwJPSDERMA8GA1UEBxMIQ29sdW1idXMxEjAQBgNVBAoTCVZpa2lu
Z1ZQTjEdMBsGA1UECxMUTXlPcmdhbml6YXRpb25hbFVuaXQxFTATBgNVBAMTDFZp
a2luZ1ZQTiBDQTEQMA4GA1UEKRMHRWFzeVJTQTEhMB8GCSqGSIb3DQEJARYSbWVA
bXlob3N0Lm15ZG9tYWluMB4XDTE1MDkwNzIyMzM0M1oXDTI1MDkwNDIyMzM0M1ow
HzEdMBsGA1UEAxMUQ2xpZW50MTk0M0NlcnQwZWM1YjEwggIiMA0GCSqGSIb3DQEB
AQUAA4ICDwAwggIKAoICAQC5xaQoaJRD1ho7RcH7lM5GLHY2+GfdEdKZecYHsFJ1
ICZPtKNI0MnvAxbV5dhWZbeRYIQ73+xFsXBQH0LE2cDfhImfI4TVMzxzLiJx4R0O
6DWJSvveUm31BplLeR36tPcFppCv3dwj38c89SHubjMceqG+5w9rDZlexeZgyneE
jOsYZZRY4N8BZ5a4by1NnS4CXwxikbwxzExuNmyqXv0OJPCHrbZSz5dm5Hq0QovM
fShw9RRfGldyS7J7t92nYzYZX2Ef1hxrPOnHBDnf2xVoVlyx3OArYhqZ5w7grraW
rRvSL29k75NEa9eL7HlXbhnqk9lqK9gL8iHOkiLaNi+LiuE9+Ku822RHwJxJ0f4n
nAvAPy8zV0QxuxeZdqIHS8FGZmWEFVZcEihZbgEMZcc4a/1Tej0cjgVENWiu7k1p
JZvtNn00guTeZMUg7bvt4XLp4d2T95LQe/z3vHrQ5YWfwHLsIYB6FXbT/xsEdUVo
KEbgSAX8roSVZfmYBskuaQ/GTo0rL5iUBUmCVPLHS9APuR9/ATb96A652wxiGZpK
BpLmkC1N4dWC7FVTX44ORSqcG0R3yUqGkhAU8FwN9rffw7djVSCkNLo2P5fUdsU9
Ibf6c9ezVpSSwXq1mG4VJGZZE3Knrsgn1AfBQXDtsiGOIgTdSUtMbqQVDQDNVriN
LwIDAQABo4IBYzCCAV8wCQYDVR0TBAIwADAtBglghkgBhvhCAQ0EIBYeRWFzeS1S
U0EgR2VuZXJhdGVkIENlcnRpZmljYXRlMB0GA1UdDgQWBBTD/ggm5MsFD9kcMbCO
azp6A1rbsjCB4QYDVR0jBIHZMIHWgBQSzWAE0qCAnnDtxpm4eyzGUv0ZoaGBsqSB
rzCBrDELMAkGA1UEBhMCVVMxCzAJBgNVBAgTAk9IMREwDwYDVQQHEwhDb2x1bWJ1
czESMBAGA1UEChMJVmlraW5nVlBOMR0wGwYDVQQLExRNeU9yZ2FuaXphdGlvbmFs
VW5pdDEVMBMGA1UEAxMMVmlraW5nVlBOIENBMRAwDgYDVQQpEwdFYXN5UlNBMSEw
HwYJKoZIhvcNAQkBFhJtZUBteWhvc3QubXlkb21haW6CCQDPNYXugL8qPjATBgNV
HSUEDDAKBggrBgEFBQcDAjALBgNVHQ8EBAMCB4AwDQYJKoZIhvcNAQEEBQADggIB
AI9C0q3r9iWdJzOvqaswVIlAIVYtRtgfQqursR8348VTcz88ZH+fR/5HeHaWlpiW
HB3+RoNty2yn7TkWkBPCerQU555RDOIx9pRqXgLL1KlXj78Ez3cJyKf4Cln/pwZ6
/XLlZUhPCRuaLIm9vNRMsp8QqEYquu4ul+KgrIqIKu8c0wC8YD/uWxgOH1L1aixw
mTKXVrbIB5Bh8xti6T/SRQ7QqkxN37a3gGKp74kldV9GKFkYRjyOAIrHxH9WTBNK
5ijCtZun5R4jLkK80KJ2bAMQMlCCf6Mcw1j3x099rDsSdJZSxBcFqjYAiEAs0h7B
jCkniV7B0jW0HOMn5iYRbZU4jLZhHGBcC2HSKmr9Q5k9/sS2bTDYKYD+UjkzeW5H
7rjTyYpxN5c5K6Nim3YG9U81bPA1mOiG+zdXwIXgtR1KRukL5Xj2qnrbjwHFE0CD
Slo4DeYF25e612SFAb6pTnXESjSj6Xp2xVn8HaIe/lhIo9nh38kN1T2Sn9SPeLbo
giXp1Co+KI7XoNIHiDgRDixoIxp59UYQPf6+V4xu7enc6/yZJMXd8csSDNwcbGND
XxRrsGx5otHfg7bDxySmdEqjJP/vs+JIIeViqcxl3UsHURWzH9wwEb+MuRYZW7AB
7NDM1DLqEHzSllhVyFnCnk8OfEFmHQAag7EizcpyTAW1
-----END CERTIFICATE-----
