Certificate:
    Data:
        Version: 3 (0x2)
        Serial Number: 6235 (0x185b)
    Signature Algorithm: md5WithRSAEncryption
        Issuer: C=US, ST=OH, L=Columbus, O=VikingVPN, OU=MyOrganizationalUnit, CN=VikingVPN CA/name=EasyRSA/emailAddress=me@myhost.mydomain
        Validity
            Not Before: Sep  8 04:01:42 2015 GMT
            Not After : Sep  5 04:01:42 2025 GMT
        Subject: CN=Client1953Cert312509
        Subject Public Key Info:
            Public Key Algorithm: rsaEncryption
                Public-Key: (4096 bit)
                Modulus:
                    00:d4:9e:17:fd:84:ff:10:45:e7:ba:50:bf:33:2e:
                    df:02:da:c9:3f:62:4b:eb:dd:e0:65:3f:20:e3:4b:
                    74:1f:07:06:e4:5a:ef:bc:73:0d:42:61:d3:ee:13:
                    b5:b0:a2:d7:b7:5d:7f:80:3c:90:3a:cd:84:e2:78:
                    78:04:1b:92:73:49:c9:dd:8e:78:e3:7d:26:ea:1c:
                    1a:fa:b4:f4:20:fa:2a:fa:85:82:8f:75:da:56:17:
                    6f:1a:2f:f5:1d:f4:8e:77:a3:2d:55:93:37:09:dc:
                    4b:f7:f5:6a:9c:21:7a:05:57:4b:1d:12:25:a2:ad:
                    ae:fb:1a:28:9a:c0:5e:cf:e1:87:af:11:8d:78:36:
                    ab:77:10:85:1a:27:50:4a:09:e4:31:19:c6:c2:72:
                    c2:76:12:cb:17:af:13:cd:e0:d8:32:41:81:a7:f5:
                    8c:00:90:c5:7a:2a:de:d6:a3:c8:86:af:1e:b5:32:
                    31:56:ad:ca:04:b2:00:ac:84:31:f4:3d:47:74:d1:
                    c7:41:01:59:10:9c:22:cc:29:17:e0:13:44:80:37:
                    34:28:38:25:c6:86:96:1e:d1:cc:35:aa:01:ab:34:
                    ce:01:fa:67:29:d4:c4:e2:d8:0c:f5:da:8e:8d:59:
                    ac:2a:e8:8d:a6:1c:f9:29:45:a6:c4:96:c3:be:a2:
                    1d:3b:e2:9e:da:0e:a3:24:22:22:0a:55:58:60:c7:
                    ab:e7:2d:0c:84:2d:f4:87:21:2d:60:be:ed:34:a8:
                    e0:01:fc:dd:96:e0:1f:b0:d4:ab:15:e5:b3:cd:2f:
                    d8:97:d9:72:cc:38:46:3a:85:f5:36:ca:0a:ee:83:
                    ad:65:88:51:32:e5:17:63:cf:48:a4:c8:44:41:ce:
                    44:1c:5f:0d:88:14:ba:a8:55:ad:99:2b:60:0c:10:
                    27:34:f8:d8:17:f9:af:98:30:c0:52:ba:48:4f:61:
                    61:50:13:17:e4:80:4e:eb:ba:8c:17:0e:0b:45:78:
                    79:64:f6:bf:01:5c:0c:9c:9c:70:5e:0c:cc:b8:51:
                    cd:e7:23:32:60:7d:db:47:d3:b4:77:9f:1c:f1:26:
                    9f:4f:be:a8:33:b5:f6:52:2d:54:37:3a:82:f8:e5:
                    96:2c:f6:c6:83:6d:78:e4:28:ee:7a:e1:8f:89:ad:
                    0a:60:b4:ba:46:66:35:a9:83:da:95:64:da:f8:eb:
                    40:a8:d9:90:4b:2b:f0:8f:1b:70:aa:c7:69:8a:f5:
                    3e:cb:df:78:3c:e9:7a:49:92:eb:bd:33:59:00:5e:
                    1b:fa:0f:88:62:73:90:98:5b:ca:a2:0c:1a:cd:79:
                    91:fd:29:6a:a1:92:6c:70:d3:92:0d:df:d9:82:01:
                    3e:e0:41
                Exponent: 65537 (0x10001)
        X509v3 extensions:
            X509v3 Basic Constraints: 
                CA:FALSE
            Netscape Comment: 
                Easy-RSA Generated Certificate
            X509v3 Subject Key Identifier: 
                03:F7:1B:3A:9C:2D:65:94:D4:F4:31:96:E5:E2:44:4E:EE:ED:FE:09
            X509v3 Authority Key Identifier: 
                keyid:12:CD:60:04:D2:A0:80:9E:70:ED:C6:99:B8:7B:2C:C6:52:FD:19:A1
                DirName:/C=US/ST=OH/L=Columbus/O=VikingVPN/OU=MyOrganizationalUnit/CN=VikingVPN CA/name=EasyRSA/emailAddress=me@myhost.mydomain
                serial:CF:35:85:EE:80:BF:2A:3E

            X509v3 Extended Key Usage: 
                TLS Web Client Authentication
            X509v3 Key Usage: 
                Digital Signature
    Signature Algorithm: md5WithRSAEncryption
         46:ae:2a:5d:e3:f5:50:e9:b6:27:5c:e9:eb:50:2f:cb:29:85:
         16:c4:82:84:7b:bc:b3:da:5a:e4:7d:e0:2a:69:82:18:dc:63:
         33:41:86:7d:b5:7e:bd:09:68:43:f0:19:46:d3:64:c1:8f:a4:
         38:64:73:0a:cf:c0:da:e4:1c:ec:5d:a3:b2:5e:b8:0c:01:89:
         ae:2b:db:b3:6a:15:a1:61:53:bd:83:42:02:3c:7e:35:08:ff:
         2f:84:d2:02:3e:40:c5:f4:38:31:2c:a9:61:e1:88:f0:61:70:
         32:c2:48:be:0b:61:2d:c8:ef:1d:e2:da:cc:78:33:71:68:be:
         c6:a4:46:c2:16:e6:7d:2f:c1:50:b5:7a:46:f0:09:e5:f8:73:
         7d:91:da:7c:c4:fc:2f:70:60:80:56:80:96:14:0e:e6:c0:d0:
         26:ca:fa:59:3f:59:0f:44:ec:14:0d:81:c1:6e:7d:f5:4f:86:
         13:ae:58:e6:e0:9a:34:b3:57:a2:59:8e:fe:dd:84:35:bc:17:
         83:73:00:4c:b6:2a:68:14:bc:9b:73:05:9a:71:a7:89:5f:5c:
         f6:d1:a9:8b:6a:4a:ab:3c:03:3b:59:c9:f0:d1:b7:40:a3:21:
         ea:35:94:43:09:91:83:90:5d:f6:1f:58:c5:67:f7:63:a3:af:
         8f:bd:f3:89:2b:36:12:da:2e:38:91:ab:c1:46:e7:60:b7:44:
         9a:25:e8:4f:b1:e7:d3:62:ad:9e:01:48:5e:6b:0b:0e:7e:4a:
         51:fc:4d:4a:b5:e5:bb:8c:a9:f8:f5:1a:3f:2a:bd:55:72:25:
         3c:83:17:d5:08:d3:50:62:58:7a:b6:66:0f:27:6a:da:04:a4:
         fc:b9:57:b6:79:ac:a9:f8:b5:70:a0:62:b3:02:20:c5:a7:ec:
         4d:47:dd:84:87:43:74:3f:a2:8c:c0:30:09:7b:13:4b:1d:bc:
         9b:31:21:66:1a:50:37:ab:da:05:c3:c6:32:74:7d:41:c9:36:
         4f:b6:a8:fb:72:11:e0:8a:f7:1d:2e:7d:41:b4:71:2d:d0:5f:
         94:62:74:12:5e:97:90:45:5f:91:41:50:f8:df:89:6d:bf:ff:
         45:01:38:b7:63:1f:07:e5:4e:8a:c4:89:99:3d:01:1f:26:51:
         6d:c1:b5:ae:32:77:96:8c:d9:fc:9b:f9:d7:bb:f4:a7:81:c8:
         7a:16:c7:35:f9:ca:21:42:94:9e:96:f7:c7:91:98:5d:73:18:
         e7:84:1e:a5:b2:40:46:28:d2:39:f9:81:5d:73:f7:a0:c6:33:
         fd:a1:52:b5:8d:7c:2a:a7:d4:d4:59:ad:99:cd:cb:d2:74:d5:
         33:49:59:0b:e9:f5:5e:c8
-----BEGIN CERTIFICATE-----
MIIGrTCCBJWgAwIBAgICGFswDQYJKoZIhvcNAQEEBQAwgawxCzAJBgNVBAYTAlVT
MQswCQYDVQQIEwJPSDERMA8GA1UEBxMIQ29sdW1idXMxEjAQBgNVBAoTCVZpa2lu
Z1ZQTjEdMBsGA1UECxMUTXlPcmdhbml6YXRpb25hbFVuaXQxFTATBgNVBAMTDFZp
a2luZ1ZQTiBDQTEQMA4GA1UEKRMHRWFzeVJTQTEhMB8GCSqGSIb3DQEJARYSbWVA
bXlob3N0Lm15ZG9tYWluMB4XDTE1MDkwODA0MDE0MloXDTI1MDkwNTA0MDE0Mlow
HzEdMBsGA1UEAxMUQ2xpZW50MTk1M0NlcnQzMTI1MDkwggIiMA0GCSqGSIb3DQEB
AQUAA4ICDwAwggIKAoICAQDUnhf9hP8QRee6UL8zLt8C2sk/Ykvr3eBlPyDjS3Qf
BwbkWu+8cw1CYdPuE7Wwote3XX+APJA6zYTieHgEG5JzScndjnjjfSbqHBr6tPQg
+ir6hYKPddpWF28aL/Ud9I53oy1VkzcJ3Ev39WqcIXoFV0sdEiWira77GiiawF7P
4YevEY14Nqt3EIUaJ1BKCeQxGcbCcsJ2EssXrxPN4NgyQYGn9YwAkMV6Kt7Wo8iG
rx61MjFWrcoEsgCshDH0PUd00cdBAVkQnCLMKRfgE0SANzQoOCXGhpYe0cw1qgGr
NM4B+mcp1MTi2Az12o6NWawq6I2mHPkpRabElsO+oh074p7aDqMkIiIKVVhgx6vn
LQyELfSHIS1gvu00qOAB/N2W4B+w1KsV5bPNL9iX2XLMOEY6hfU2ygrug61liFEy
5Rdjz0ikyERBzkQcXw2IFLqoVa2ZK2AMECc0+NgX+a+YMMBSukhPYWFQExfkgE7r
uowXDgtFeHlk9r8BXAycnHBeDMy4Uc3nIzJgfdtH07R3nxzxJp9PvqgztfZSLVQ3
OoL45ZYs9saDbXjkKO564Y+JrQpgtLpGZjWpg9qVZNr460Co2ZBLK/CPG3Cqx2mK
9T7L33g86XpJkuu9M1kAXhv6D4hic5CYW8qiDBrNeZH9KWqhkmxw05IN39mCAT7g
QQIDAQABo4IBYzCCAV8wCQYDVR0TBAIwADAtBglghkgBhvhCAQ0EIBYeRWFzeS1S
U0EgR2VuZXJhdGVkIENlcnRpZmljYXRlMB0GA1UdDgQWBBQD9xs6nC1llNT0MZbl
4kRO7u3+CTCB4QYDVR0jBIHZMIHWgBQSzWAE0qCAnnDtxpm4eyzGUv0ZoaGBsqSB
rzCBrDELMAkGA1UEBhMCVVMxCzAJBgNVBAgTAk9IMREwDwYDVQQHEwhDb2x1bWJ1
czESMBAGA1UEChMJVmlraW5nVlBOMR0wGwYDVQQLExRNeU9yZ2FuaXphdGlvbmFs
VW5pdDEVMBMGA1UEAxMMVmlraW5nVlBOIENBMRAwDgYDVQQpEwdFYXN5UlNBMSEw
HwYJKoZIhvcNAQkBFhJtZUBteWhvc3QubXlkb21haW6CCQDPNYXugL8qPjATBgNV
HSUEDDAKBggrBgEFBQcDAjALBgNVHQ8EBAMCB4AwDQYJKoZIhvcNAQEEBQADggIB
AEauKl3j9VDptidc6etQL8sphRbEgoR7vLPaWuR94CppghjcYzNBhn21fr0JaEPw
GUbTZMGPpDhkcwrPwNrkHOxdo7JeuAwBia4r27NqFaFhU72DQgI8fjUI/y+E0gI+
QMX0ODEsqWHhiPBhcDLCSL4LYS3I7x3i2sx4M3FovsakRsIW5n0vwVC1ekbwCeX4
c32R2nzE/C9wYIBWgJYUDubA0CbK+lk/WQ9E7BQNgcFuffVPhhOuWObgmjSzV6JZ
jv7dhDW8F4NzAEy2KmgUvJtzBZpxp4lfXPbRqYtqSqs8AztZyfDRt0CjIeo1lEMJ
kYOQXfYfWMVn92Ojr4+984krNhLaLjiRq8FG52C3RJol6E+x59NirZ4BSF5rCw5+
SlH8TUq15buMqfj1Gj8qvVVyJTyDF9UI01BiWHq2Zg8natoEpPy5V7Z5rKn4tXCg
YrMCIMWn7E1H3YSHQ3Q/oozAMAl7E0sdvJsxIWYaUDer2gXDxjJ0fUHJNk+2qPty
EeCK9x0ufUG0cS3QX5RidBJel5BFX5FBUPjfiW2//0UBOLdjHwflTorEiZk9AR8m
UW3Bta4yd5aM2fyb+de79KeByHoWxzX5yiFClJ6W98eRmF1zGOeEHqWyQEYo0jn5
gV1z96DGM/2hUrWNfCqn1NRZrZnNy9J01TNJWQvp9V7I
-----END CERTIFICATE-----
