Certificate:
    Data:
        Version: 3 (0x2)
        Serial Number: 6243 (0x1863)
    Signature Algorithm: md5WithRSAEncryption
        Issuer: C=US, ST=OH, L=Columbus, O=VikingVPN, OU=MyOrganizationalUnit, CN=VikingVPN CA/name=EasyRSA/emailAddress=me@myhost.mydomain
        Validity
            Not Before: Sep 10 01:57:57 2015 GMT
            Not After : Sep  7 01:57:57 2025 GMT
        Subject: CN=Client1364Cert5b649e
        Subject Public Key Info:
            Public Key Algorithm: rsaEncryption
                Public-Key: (4096 bit)
                Modulus:
                    00:d8:bc:54:b2:86:86:86:1b:f0:9c:b0:fa:b0:f7:
                    48:77:13:76:0e:15:f3:81:71:fe:44:22:d9:da:d2:
                    c7:0d:4c:5e:d2:01:05:ad:9b:99:93:28:45:f2:5e:
                    a6:bd:00:1c:c2:8c:23:5c:f5:b8:aa:b2:04:88:9e:
                    97:ea:e4:65:a2:96:84:89:ea:30:b7:5b:e2:67:27:
                    84:6a:db:3b:d8:43:da:f7:73:20:79:06:d1:c0:ef:
                    a5:e4:34:7a:f3:4b:26:60:46:ed:79:28:dc:62:f9:
                    fc:b5:75:b9:a0:3e:8c:8a:19:8f:42:6e:a1:0c:6f:
                    e2:c5:26:1b:0e:e1:d4:75:aa:08:c8:70:1f:ed:f9:
                    15:4f:49:a5:a3:be:5f:6a:82:1b:7a:54:5d:80:78:
                    2b:82:0f:f3:07:34:d3:a2:98:e8:23:61:08:4f:09:
                    85:10:82:76:e8:78:92:5a:fe:22:56:09:10:08:39:
                    8c:79:11:0b:ec:f5:8e:65:dd:e0:c1:9a:36:61:e6:
                    c0:7d:b3:cd:31:37:89:84:28:c0:b8:90:46:d7:1a:
                    05:aa:12:10:9d:48:ac:1f:2a:f7:67:17:a7:ef:8a:
                    79:8f:7a:73:40:21:30:03:c4:8e:2c:d7:05:d1:72:
                    ca:b3:3a:2f:24:d7:a6:2a:9f:a9:3f:8a:86:c2:90:
                    62:89:ef:ad:3e:62:7e:55:4f:b8:7d:f4:16:13:62:
                    a3:a9:b2:28:c1:01:77:99:97:6e:0d:81:f9:6e:24:
                    7b:77:d6:e5:fa:b9:ad:32:80:96:08:46:12:9f:38:
                    a3:fa:5b:3f:bd:ea:24:b8:4f:66:59:e9:00:28:5b:
                    49:4b:42:56:90:3f:df:2b:74:4a:e6:75:42:34:b0:
                    32:0d:72:47:9c:44:e5:14:8e:29:a2:bc:48:9b:5c:
                    a7:a1:e3:0c:6b:4e:0f:6c:fc:8e:e9:83:86:a2:fc:
                    7b:99:0d:c8:91:70:d6:3e:b7:9e:b8:8b:3b:a2:3d:
                    1c:4f:c8:d4:14:2c:7d:46:fa:95:34:01:18:cf:40:
                    3d:19:35:b3:71:32:94:6c:f0:0f:a3:89:fc:d8:ae:
                    66:da:5e:ea:82:ff:ab:6a:f1:74:65:dc:25:ce:6e:
                    fe:62:12:d6:15:3f:ee:22:34:3f:58:79:71:6a:07:
                    46:60:fa:50:97:b0:47:d5:52:a2:52:95:ef:0a:70:
                    76:65:04:b7:14:c7:e0:51:48:be:86:b8:24:9c:2e:
                    80:76:9d:ff:be:7b:5f:6c:2b:74:e2:04:e7:c1:9b:
                    e8:f6:ff:e8:1d:40:3a:91:8c:87:56:d1:b6:e9:93:
                    64:3e:1e:e2:ea:ce:0b:0c:ce:31:9d:5f:ab:05:25:
                    52:91:b1
                Exponent: 65537 (0x10001)
        X509v3 extensions:
            X509v3 Basic Constraints: 
                CA:FALSE
            Netscape Comment: 
                Easy-RSA Generated Certificate
            X509v3 Subject Key Identifier: 
                DE:F1:21:57:67:80:9C:5E:DD:CE:EB:CC:F7:25:2A:E4:38:3A:4D:69
            X509v3 Authority Key Identifier: 
                keyid:12:CD:60:04:D2:A0:80:9E:70:ED:C6:99:B8:7B:2C:C6:52:FD:19:A1
                DirName:/C=US/ST=OH/L=Columbus/O=VikingVPN/OU=MyOrganizationalUnit/CN=VikingVPN CA/name=EasyRSA/emailAddress=me@myhost.mydomain
                serial:CF:35:85:EE:80:BF:2A:3E

            X509v3 Extended Key Usage: 
                TLS Web Client Authentication
            X509v3 Key Usage: 
                Digital Signature
    Signature Algorithm: md5WithRSAEncryption
         8b:7e:64:62:d1:83:dd:46:d0:67:e5:17:bd:98:7a:7e:a8:66:
         f1:82:0f:f1:67:a5:59:a8:8e:27:58:63:43:a7:38:85:d9:64:
         4e:16:e9:49:f0:c8:04:ef:68:43:e1:2b:8d:7f:9d:71:b8:80:
         e7:a4:f8:59:de:45:e1:8e:7b:23:e6:50:78:49:85:a6:66:e0:
         a4:18:a6:2b:82:23:14:34:fc:0a:07:3c:8c:44:7d:2b:fa:fd:
         bb:fb:50:1e:e9:1c:a5:16:d9:43:a3:8e:d1:3f:8f:c2:73:da:
         ff:f2:38:f6:b1:30:4f:f7:22:ef:96:8f:35:85:0a:b8:6a:e9:
         81:0f:dc:5c:0a:8d:af:e9:26:f0:fe:8c:92:20:fd:77:8f:bb:
         89:05:64:eb:41:b9:e6:7f:80:df:dc:0d:0d:1e:f0:fd:43:7a:
         05:82:57:3f:d0:9a:17:fe:ef:0a:d2:da:6b:ca:3e:98:f5:62:
         71:6d:98:7a:eb:36:be:38:65:af:15:a9:29:42:2d:be:3a:52:
         bc:83:2d:55:ee:f7:6f:3f:b8:a6:ba:4b:2f:b8:2e:e5:68:b1:
         3c:40:0b:36:86:e5:5b:c0:80:c8:bb:6b:3e:c4:88:34:f0:6f:
         20:95:5c:2b:df:6e:a1:d4:e1:a6:c6:0d:6b:fb:9f:3e:57:34:
         f0:a5:0d:d2:c7:45:06:b5:af:28:03:67:a4:51:59:e8:db:7c:
         8f:23:71:bd:59:b9:84:55:34:9f:18:0b:e2:98:01:98:35:93:
         00:dd:05:20:a5:af:9d:8a:14:fc:76:57:33:b7:f3:f7:b5:95:
         c5:06:fe:d1:52:33:4d:fc:ed:a5:10:3a:33:6b:c1:f0:93:1d:
         99:f4:5d:01:60:7a:d6:b4:a8:e7:97:25:d6:06:37:4c:00:43:
         d3:26:59:fc:ea:43:98:a4:ed:61:4c:d2:94:da:ba:82:00:d1:
         2c:1b:c1:e2:78:1b:0e:e0:ff:58:81:90:70:27:83:85:8f:1f:
         0f:69:15:37:1f:f4:6b:dd:c9:c1:05:52:b4:8b:96:f9:68:63:
         a6:61:41:6a:8e:d7:92:0c:7d:08:87:7d:dd:0f:c1:da:65:c0:
         6b:11:25:a2:c0:b0:d5:38:cb:09:55:62:b8:4c:bc:26:d2:7d:
         2e:d1:f5:2f:6d:c7:8a:a6:35:1b:c5:67:ac:69:ce:dc:35:d9:
         76:8b:e4:2d:86:1f:50:31:4f:fa:48:6f:1f:8a:b0:65:10:57:
         3c:80:b4:7f:07:0b:71:c1:82:e4:fe:62:d1:cb:4d:f7:e8:38:
         d0:40:df:18:60:c7:bc:a0:01:10:bd:d0:4f:ca:c8:b6:d9:ce:
         a9:d4:69:67:46:20:d9:e0
-----BEGIN CERTIFICATE-----
MIIGrTCCBJWgAwIBAgICGGMwDQYJKoZIhvcNAQEEBQAwgawxCzAJBgNVBAYTAlVT
MQswCQYDVQQIEwJPSDERMA8GA1UEBxMIQ29sdW1idXMxEjAQBgNVBAoTCVZpa2lu
Z1ZQTjEdMBsGA1UECxMUTXlPcmdhbml6YXRpb25hbFVuaXQxFTATBgNVBAMTDFZp
a2luZ1ZQTiBDQTEQMA4GA1UEKRMHRWFzeVJTQTEhMB8GCSqGSIb3DQEJARYSbWVA
bXlob3N0Lm15ZG9tYWluMB4XDTE1MDkxMDAxNTc1N1oXDTI1MDkwNzAxNTc1N1ow
HzEdMBsGA1UEAxMUQ2xpZW50MTM2NENlcnQ1YjY0OWUwggIiMA0GCSqGSIb3DQEB
AQUAA4ICDwAwggIKAoICAQDYvFSyhoaGG/CcsPqw90h3E3YOFfOBcf5EItna0scN
TF7SAQWtm5mTKEXyXqa9ABzCjCNc9biqsgSInpfq5GWiloSJ6jC3W+JnJ4Rq2zvY
Q9r3cyB5BtHA76XkNHrzSyZgRu15KNxi+fy1dbmgPoyKGY9CbqEMb+LFJhsO4dR1
qgjIcB/t+RVPSaWjvl9qght6VF2AeCuCD/MHNNOimOgjYQhPCYUQgnboeJJa/iJW
CRAIOYx5EQvs9Y5l3eDBmjZh5sB9s80xN4mEKMC4kEbXGgWqEhCdSKwfKvdnF6fv
inmPenNAITADxI4s1wXRcsqzOi8k16Yqn6k/iobCkGKJ760+Yn5VT7h99BYTYqOp
sijBAXeZl24NgfluJHt31uX6ua0ygJYIRhKfOKP6Wz+96iS4T2ZZ6QAoW0lLQlaQ
P98rdErmdUI0sDINckecROUUjimivEibXKeh4wxrTg9s/I7pg4ai/HuZDciRcNY+
t564izuiPRxPyNQULH1G+pU0ARjPQD0ZNbNxMpRs8A+jifzYrmbaXuqC/6tq8XRl
3CXObv5iEtYVP+4iND9YeXFqB0Zg+lCXsEfVUqJSle8KcHZlBLcUx+BRSL6GuCSc
LoB2nf++e19sK3TiBOfBm+j2/+gdQDqRjIdW0bbpk2Q+HuLqzgsMzjGdX6sFJVKR
sQIDAQABo4IBYzCCAV8wCQYDVR0TBAIwADAtBglghkgBhvhCAQ0EIBYeRWFzeS1S
U0EgR2VuZXJhdGVkIENlcnRpZmljYXRlMB0GA1UdDgQWBBTe8SFXZ4CcXt3O68z3
JSrkODpNaTCB4QYDVR0jBIHZMIHWgBQSzWAE0qCAnnDtxpm4eyzGUv0ZoaGBsqSB
rzCBrDELMAkGA1UEBhMCVVMxCzAJBgNVBAgTAk9IMREwDwYDVQQHEwhDb2x1bWJ1
czESMBAGA1UEChMJVmlraW5nVlBOMR0wGwYDVQQLExRNeU9yZ2FuaXphdGlvbmFs
VW5pdDEVMBMGA1UEAxMMVmlraW5nVlBOIENBMRAwDgYDVQQpEwdFYXN5UlNBMSEw
HwYJKoZIhvcNAQkBFhJtZUBteWhvc3QubXlkb21haW6CCQDPNYXugL8qPjATBgNV
HSUEDDAKBggrBgEFBQcDAjALBgNVHQ8EBAMCB4AwDQYJKoZIhvcNAQEEBQADggIB
AIt+ZGLRg91G0GflF72Yen6oZvGCD/FnpVmojidYY0OnOIXZZE4W6UnwyATvaEPh
K41/nXG4gOek+FneReGOeyPmUHhJhaZm4KQYpiuCIxQ0/AoHPIxEfSv6/bv7UB7p
HKUW2UOjjtE/j8Jz2v/yOPaxME/3Iu+WjzWFCrhq6YEP3FwKja/pJvD+jJIg/XeP
u4kFZOtBueZ/gN/cDQ0e8P1DegWCVz/Qmhf+7wrS2mvKPpj1YnFtmHrrNr44Za8V
qSlCLb46UryDLVXu928/uKa6Sy+4LuVosTxACzaG5VvAgMi7az7EiDTwbyCVXCvf
bqHU4abGDWv7nz5XNPClDdLHRQa1rygDZ6RRWejbfI8jcb1ZuYRVNJ8YC+KYAZg1
kwDdBSClr52KFPx2VzO38/e1lcUG/tFSM0387aUQOjNrwfCTHZn0XQFgeta0qOeX
JdYGN0wAQ9MmWfzqQ5ik7WFM0pTauoIA0SwbweJ4Gw7g/1iBkHAng4WPHw9pFTcf
9GvdycEFUrSLlvloY6ZhQWqO15IMfQiHfd0PwdplwGsRJaLAsNU4ywlVYrhMvCbS
fS7R9S9tx4qmNRvFZ6xpztw12XaL5C2GH1AxT/pIbx+KsGUQVzyAtH8HC3HBguT+
YtHLTffoONBA3xhgx7ygARC90E/KyLbZzqnUaWdGINng
-----END CERTIFICATE-----
