Certificate:
    Data:
        Version: 3 (0x2)
        Serial Number: 6247 (0x1867)
    Signature Algorithm: md5WithRSAEncryption
        Issuer: C=US, ST=OH, L=Columbus, O=VikingVPN, OU=MyOrganizationalUnit, CN=VikingVPN CA/name=EasyRSA/emailAddress=me@myhost.mydomain
        Validity
            Not Before: Sep 10 19:49:11 2015 GMT
            Not After : Sep  7 19:49:11 2025 GMT
        Subject: CN=Client1955Cert3cea71
        Subject Public Key Info:
            Public Key Algorithm: rsaEncryption
                Public-Key: (4096 bit)
                Modulus:
                    00:a1:01:3e:7a:89:74:cb:c5:ca:78:98:e1:1b:2e:
                    5a:cb:6c:1f:75:79:07:ec:6c:e3:4d:f0:5d:ab:5b:
                    26:92:95:f0:17:ec:c4:69:d8:34:bb:44:f3:0b:29:
                    76:ac:02:ee:c8:0f:d0:3f:42:22:3b:b0:a4:d7:2e:
                    c4:2a:25:f2:a4:8d:0d:a7:38:ce:c3:10:72:13:9b:
                    ec:91:35:01:93:cd:3c:08:f1:9d:fc:5f:c2:ae:6b:
                    8a:87:02:67:4e:74:a8:d5:74:ce:f8:3a:10:8c:67:
                    4f:cc:19:db:14:5b:47:0c:73:17:97:04:e9:e7:da:
                    57:ef:e1:d7:21:e2:9b:49:15:bd:8f:cb:21:21:37:
                    e6:c1:6b:39:76:16:2f:c2:f6:bf:1d:aa:d6:6b:c7:
                    ef:92:36:ff:d3:c0:51:d0:7a:51:89:f3:3a:58:69:
                    cd:ca:5d:42:44:da:4b:47:55:57:62:f8:a7:5c:c0:
                    a3:c5:53:9b:cd:60:d8:c4:85:14:0f:84:bf:ba:d3:
                    db:7b:1b:3f:60:96:47:0b:5a:d2:08:de:3f:ee:c3:
                    70:64:16:0c:ab:79:d2:87:b8:f2:a1:60:61:f2:8d:
                    55:26:d8:c7:0f:8c:a4:89:96:2a:c8:be:45:58:88:
                    f1:1a:3f:0a:68:10:e8:a8:f0:5d:f8:fb:9d:7f:2e:
                    76:90:08:a5:1f:7a:8b:1a:45:53:9c:73:d1:04:a4:
                    7d:d8:1e:f9:24:94:53:57:48:08:2a:68:8f:47:0c:
                    2f:9d:a5:39:3c:35:0b:4b:ca:30:9d:1b:23:f4:4f:
                    9f:b2:b2:c0:fc:2a:d3:b3:97:0f:0b:50:90:7a:ab:
                    72:33:62:82:1c:f7:89:5e:ed:50:bd:a2:eb:c5:ee:
                    8d:4a:1a:9c:03:b3:c1:3f:47:9f:f3:a2:7e:5d:58:
                    5c:73:82:95:ba:81:39:29:fd:d3:2c:9b:a1:ec:9c:
                    90:18:4d:e5:9c:d2:b3:1e:e0:af:12:11:d6:3a:43:
                    e4:37:24:db:91:f8:ac:18:0e:18:49:b2:2c:fd:81:
                    16:cc:85:02:79:7c:c1:83:59:b6:4b:77:4c:58:3a:
                    c5:8f:0b:d8:15:ef:98:b0:56:2d:a1:88:fb:74:6a:
                    c5:cd:33:27:19:a8:42:f1:89:6c:4e:98:5f:38:a8:
                    fa:94:4f:40:cb:9b:d5:85:d4:7c:6b:61:27:26:9b:
                    51:35:2e:09:0f:62:ab:06:1f:3f:b9:12:33:88:48:
                    e5:9b:2a:7e:0c:6c:26:7b:a4:83:69:ea:5c:e4:b2:
                    1d:c8:9c:e8:cc:0f:a9:70:a3:6f:f3:f3:80:95:02:
                    99:83:a4:d9:84:e1:a1:8c:19:05:58:e3:89:75:75:
                    dd:70:b5
                Exponent: 65537 (0x10001)
        X509v3 extensions:
            X509v3 Basic Constraints: 
                CA:FALSE
            Netscape Comment: 
                Easy-RSA Generated Certificate
            X509v3 Subject Key Identifier: 
                97:2E:78:80:B1:08:45:16:70:1B:80:5B:0C:AD:27:B8:DC:87:D4:B2
            X509v3 Authority Key Identifier: 
                keyid:12:CD:60:04:D2:A0:80:9E:70:ED:C6:99:B8:7B:2C:C6:52:FD:19:A1
                DirName:/C=US/ST=OH/L=Columbus/O=VikingVPN/OU=MyOrganizationalUnit/CN=VikingVPN CA/name=EasyRSA/emailAddress=me@myhost.mydomain
                serial:CF:35:85:EE:80:BF:2A:3E

            X509v3 Extended Key Usage: 
                TLS Web Client Authentication
            X509v3 Key Usage: 
                Digital Signature
    Signature Algorithm: md5WithRSAEncryption
         c4:df:cd:91:b8:d0:cb:79:04:b1:8d:e2:7d:3e:47:46:bf:b4:
         c7:85:ec:c6:69:ba:cc:c7:00:9e:f2:5e:4d:38:59:9f:77:e5:
         d1:48:70:4c:c5:44:04:67:9e:01:85:19:c7:e5:c0:9c:c2:3d:
         4c:c2:73:5b:14:66:d9:76:4c:84:dc:b4:b4:38:0c:ff:0a:26:
         03:6e:0e:11:45:3a:13:f8:c1:d2:2f:2b:20:ac:07:11:1e:08:
         89:8c:e3:3e:6e:f5:a7:7d:fe:32:35:90:3d:42:6f:31:db:9f:
         1d:1d:ed:8e:c5:3d:43:fa:fb:0f:70:41:9a:d2:2a:83:23:b7:
         17:5c:0d:9e:ad:b0:6d:53:4f:a1:c0:88:65:5b:72:11:eb:16:
         cc:1e:2a:61:c3:92:1a:a0:26:3c:f3:6c:27:07:9c:aa:b5:6c:
         aa:7e:f6:eb:9a:f0:a2:5d:8f:96:45:d5:50:c3:85:6c:ff:24:
         db:6a:23:a4:b6:41:2c:ea:4e:c3:13:95:a4:95:ed:8e:65:4b:
         50:d4:92:b7:e0:ac:94:13:f8:06:58:ba:dc:ba:70:ae:14:33:
         6e:bb:9b:b1:4f:3d:60:d3:3c:87:15:17:ee:07:e5:39:b7:22:
         e5:40:6c:9d:94:3e:89:8f:fd:9f:3c:8c:aa:ac:2f:25:90:1e:
         92:af:38:f1:58:e0:1f:79:a0:1e:b8:38:4d:b2:a9:1e:69:85:
         b0:47:24:3d:b2:4d:6a:ff:af:77:5e:11:ee:d7:2a:1f:c1:f5:
         a0:8b:a7:7b:90:b5:61:62:5e:cf:27:78:69:ba:7d:9f:cc:e4:
         ba:60:ca:4a:0f:93:90:cf:55:6a:7a:47:5d:7b:1f:a7:8d:d1:
         71:45:3d:43:58:97:b5:7a:6e:0e:f0:c5:b3:ab:f6:9a:ce:e9:
         c2:07:56:0f:8c:96:c2:2c:26:d2:4a:a1:c8:a4:d0:65:bc:61:
         79:4c:a1:08:0e:cd:27:31:05:68:86:03:8d:39:b9:ce:96:0e:
         94:62:f1:d1:c1:58:2e:50:2c:07:a4:ce:98:2c:44:13:cb:98:
         48:58:5b:40:2f:5a:7a:d1:8f:e9:e4:61:f9:ff:39:05:d7:6e:
         d0:b8:56:e1:20:a5:77:0f:5d:71:28:44:21:7b:51:52:76:1b:
         7e:18:e1:c0:19:ce:6e:f0:f1:a7:a1:db:d0:57:78:07:47:2d:
         e5:b1:17:1d:1f:8e:4a:6a:ac:70:65:89:5e:91:28:fd:78:b4:
         14:23:bc:59:47:18:b0:63:b5:23:7a:60:14:8b:9f:61:2c:6c:
         a2:f8:33:de:31:30:5b:4d:5b:52:f2:83:3a:98:9a:01:e7:ce:
         27:ad:b4:39:f2:f0:f5:c8
-----BEGIN CERTIFICATE-----
MIIGrTCCBJWgAwIBAgICGGcwDQYJKoZIhvcNAQEEBQAwgawxCzAJBgNVBAYTAlVT
MQswCQYDVQQIEwJPSDERMA8GA1UEBxMIQ29sdW1idXMxEjAQBgNVBAoTCVZpa2lu
Z1ZQTjEdMBsGA1UECxMUTXlPcmdhbml6YXRpb25hbFVuaXQxFTATBgNVBAMTDFZp
a2luZ1ZQTiBDQTEQMA4GA1UEKRMHRWFzeVJTQTEhMB8GCSqGSIb3DQEJARYSbWVA
bXlob3N0Lm15ZG9tYWluMB4XDTE1MDkxMDE5NDkxMVoXDTI1MDkwNzE5NDkxMVow
HzEdMBsGA1UEAxMUQ2xpZW50MTk1NUNlcnQzY2VhNzEwggIiMA0GCSqGSIb3DQEB
AQUAA4ICDwAwggIKAoICAQChAT56iXTLxcp4mOEbLlrLbB91eQfsbONN8F2rWyaS
lfAX7MRp2DS7RPMLKXasAu7ID9A/QiI7sKTXLsQqJfKkjQ2nOM7DEHITm+yRNQGT
zTwI8Z38X8Kua4qHAmdOdKjVdM74OhCMZ0/MGdsUW0cMcxeXBOnn2lfv4dch4ptJ
Fb2PyyEhN+bBazl2Fi/C9r8dqtZrx++SNv/TwFHQelGJ8zpYac3KXUJE2ktHVVdi
+KdcwKPFU5vNYNjEhRQPhL+609t7Gz9glkcLWtII3j/uw3BkFgyredKHuPKhYGHy
jVUm2McPjKSJlirIvkVYiPEaPwpoEOio8F34+51/LnaQCKUfeosaRVOcc9EEpH3Y
HvkklFNXSAgqaI9HDC+dpTk8NQtLyjCdGyP0T5+yssD8KtOzlw8LUJB6q3IzYoIc
94le7VC9ouvF7o1KGpwDs8E/R5/zon5dWFxzgpW6gTkp/dMsm6HsnJAYTeWc0rMe
4K8SEdY6Q+Q3JNuR+KwYDhhJsiz9gRbMhQJ5fMGDWbZLd0xYOsWPC9gV75iwVi2h
iPt0asXNMycZqELxiWxOmF84qPqUT0DLm9WF1HxrYScmm1E1LgkPYqsGHz+5EjOI
SOWbKn4MbCZ7pINp6lzksh3InOjMD6lwo2/z84CVApmDpNmE4aGMGQVY44l1dd1w
tQIDAQABo4IBYzCCAV8wCQYDVR0TBAIwADAtBglghkgBhvhCAQ0EIBYeRWFzeS1S
U0EgR2VuZXJhdGVkIENlcnRpZmljYXRlMB0GA1UdDgQWBBSXLniAsQhFFnAbgFsM
rSe43IfUsjCB4QYDVR0jBIHZMIHWgBQSzWAE0qCAnnDtxpm4eyzGUv0ZoaGBsqSB
rzCBrDELMAkGA1UEBhMCVVMxCzAJBgNVBAgTAk9IMREwDwYDVQQHEwhDb2x1bWJ1
czESMBAGA1UEChMJVmlraW5nVlBOMR0wGwYDVQQLExRNeU9yZ2FuaXphdGlvbmFs
VW5pdDEVMBMGA1UEAxMMVmlraW5nVlBOIENBMRAwDgYDVQQpEwdFYXN5UlNBMSEw
HwYJKoZIhvcNAQkBFhJtZUBteWhvc3QubXlkb21haW6CCQDPNYXugL8qPjATBgNV
HSUEDDAKBggrBgEFBQcDAjALBgNVHQ8EBAMCB4AwDQYJKoZIhvcNAQEEBQADggIB
AMTfzZG40Mt5BLGN4n0+R0a/tMeF7MZpuszHAJ7yXk04WZ935dFIcEzFRARnngGF
GcflwJzCPUzCc1sUZtl2TITctLQ4DP8KJgNuDhFFOhP4wdIvKyCsBxEeCImM4z5u
9ad9/jI1kD1CbzHbnx0d7Y7FPUP6+w9wQZrSKoMjtxdcDZ6tsG1TT6HAiGVbchHr
FsweKmHDkhqgJjzzbCcHnKq1bKp+9uua8KJdj5ZF1VDDhWz/JNtqI6S2QSzqTsMT
laSV7Y5lS1DUkrfgrJQT+AZYuty6cK4UM267m7FPPWDTPIcVF+4H5Tm3IuVAbJ2U
PomP/Z88jKqsLyWQHpKvOPFY4B95oB64OE2yqR5phbBHJD2yTWr/r3deEe7XKh/B
9aCLp3uQtWFiXs8neGm6fZ/M5LpgykoPk5DPVWp6R117H6eN0XFFPUNYl7V6bg7w
xbOr9prO6cIHVg+MlsIsJtJKocik0GW8YXlMoQgOzScxBWiGA405uc6WDpRi8dHB
WC5QLAekzpgsRBPLmEhYW0AvWnrRj+nkYfn/OQXXbtC4VuEgpXcPXXEoRCF7UVJ2
G34Y4cAZzm7w8aeh29BXeAdHLeWxFx0fjkpqrHBliV6RKP14tBQjvFlHGLBjtSN6
YBSLn2EsbKL4M94xMFtNW1LygzqYmgHnziettDny8PXI
-----END CERTIFICATE-----
