Certificate:
    Data:
        Version: 3 (0x2)
        Serial Number: 6250 (0x186a)
    Signature Algorithm: md5WithRSAEncryption
        Issuer: C=US, ST=OH, L=Columbus, O=VikingVPN, OU=MyOrganizationalUnit, CN=VikingVPN CA/name=EasyRSA/emailAddress=me@myhost.mydomain
        Validity
            Not Before: Sep 12 02:52:30 2015 GMT
            Not After : Sep  9 02:52:30 2025 GMT
        Subject: CN=Client1364Certda7af8
        Subject Public Key Info:
            Public Key Algorithm: rsaEncryption
                Public-Key: (4096 bit)
                Modulus:
                    00:ae:d0:c2:b2:6d:f5:2d:c8:6c:1d:71:78:05:02:
                    f4:88:0d:21:4f:e5:5b:fc:f1:8c:f0:57:db:9c:a8:
                    c9:ed:bf:7a:9c:83:df:34:06:57:03:7b:ae:17:e9:
                    c6:6a:38:53:61:9b:da:27:d1:83:10:dd:d7:05:0d:
                    02:c1:02:68:e0:a8:5c:4e:d3:ed:d3:f4:12:59:d1:
                    a2:5f:ba:6c:74:1f:f5:b3:e0:89:cb:d4:17:cc:1f:
                    ac:df:b9:86:71:45:15:79:4c:0a:a5:44:f2:79:c7:
                    d5:97:85:5d:c1:e4:f9:ad:3b:70:ee:13:8e:96:4c:
                    53:0d:e0:f3:97:ab:65:9b:94:15:18:af:59:22:9b:
                    d5:81:94:95:d8:da:74:55:9f:be:04:e7:dc:a2:0d:
                    4b:c9:d1:7c:9b:2f:3a:64:7d:2d:eb:6f:78:1d:60:
                    15:86:11:c5:80:ba:76:0f:82:ce:64:28:54:f7:45:
                    a5:cf:19:24:14:72:0b:8c:d8:86:23:96:86:aa:fe:
                    65:dc:6c:78:0f:51:8b:e2:8d:6a:d5:b5:fe:c3:95:
                    22:49:8c:fc:53:83:2a:e2:a5:14:01:3e:8f:7a:5b:
                    de:b3:4d:82:d0:e2:42:84:1c:be:aa:b9:74:43:9b:
                    92:d9:e2:9e:3d:5e:fe:bd:54:15:ef:51:6e:79:6f:
                    09:34:b1:73:be:77:f1:32:fd:83:01:32:1e:46:da:
                    69:26:2b:f9:90:7f:ba:ed:ea:f1:bf:4d:04:7e:23:
                    af:19:f9:a2:7a:58:b0:df:d4:c9:fa:36:a0:0e:3a:
                    0b:a2:e6:b8:75:18:d2:f4:cd:57:3a:c9:36:eb:94:
                    c4:28:c1:f8:24:46:4d:8e:75:64:af:fb:fa:be:fc:
                    ba:3d:8c:2c:4e:e1:de:5a:77:ca:ad:47:2e:30:9f:
                    1a:66:93:99:dc:0f:80:05:19:37:b6:25:fe:c7:60:
                    86:d7:9d:49:4d:e3:74:04:e9:1c:b8:b2:72:11:7c:
                    30:ff:56:4c:97:3b:40:1f:ca:a7:c2:cf:10:b0:ea:
                    8b:73:5f:85:db:48:fa:67:49:16:e3:37:b7:3c:b9:
                    b8:e5:d2:4d:99:ca:e5:40:e4:b1:70:ba:96:74:66:
                    9a:1b:52:b2:e2:5d:64:55:48:58:36:8e:fa:19:28:
                    ec:d2:9b:44:6d:46:18:92:75:71:aa:a9:ae:7b:31:
                    88:c6:36:f5:2f:5f:a3:a1:cd:80:00:25:e4:26:c3:
                    26:5e:2e:1e:b5:ab:ae:8e:72:15:1b:4b:5f:13:c8:
                    12:c4:54:36:79:2b:27:72:eb:9c:71:4f:1d:e4:46:
                    c0:e1:4d:7b:6e:18:c3:21:3b:c8:ee:0a:11:a0:30:
                    99:32:a5
                Exponent: 65537 (0x10001)
        X509v3 extensions:
            X509v3 Basic Constraints: 
                CA:FALSE
            Netscape Comment: 
                Easy-RSA Generated Certificate
            X509v3 Subject Key Identifier: 
                77:05:0D:0D:92:42:6C:98:48:EB:16:CF:12:05:EE:7A:92:0E:8A:C1
            X509v3 Authority Key Identifier: 
                keyid:12:CD:60:04:D2:A0:80:9E:70:ED:C6:99:B8:7B:2C:C6:52:FD:19:A1
                DirName:/C=US/ST=OH/L=Columbus/O=VikingVPN/OU=MyOrganizationalUnit/CN=VikingVPN CA/name=EasyRSA/emailAddress=me@myhost.mydomain
                serial:CF:35:85:EE:80:BF:2A:3E

            X509v3 Extended Key Usage: 
                TLS Web Client Authentication
            X509v3 Key Usage: 
                Digital Signature
    Signature Algorithm: md5WithRSAEncryption
         14:c5:eb:c0:06:95:f0:42:cd:7d:c7:94:9f:c4:2a:d3:db:ac:
         c9:a2:ec:5e:c6:0b:a7:2f:e2:c3:ae:67:75:00:43:64:a8:89:
         2c:e0:82:91:58:e7:7a:6c:76:ea:06:a9:7c:8a:9d:0b:7b:25:
         ec:b7:0e:d3:4b:28:22:f6:b2:fd:75:6d:60:19:01:10:54:e6:
         9d:da:70:1c:79:4a:b2:be:c4:f2:5b:f8:cc:f7:51:f3:88:96:
         40:bd:6e:54:45:da:42:f5:ae:a2:27:66:d3:32:31:6e:50:ed:
         67:f6:fc:54:78:1a:b0:7e:69:59:f9:c2:b6:4f:3b:d0:b6:7f:
         93:e9:e0:61:5a:0c:02:83:67:d1:80:1a:32:6b:7d:03:d5:0e:
         75:de:b8:d5:c7:e2:fb:e4:20:5d:ac:e1:b6:8b:2e:a8:64:85:
         cc:f8:c7:0d:0b:c0:af:c2:1c:17:31:54:b6:1d:b4:90:69:1c:
         2d:13:b4:8f:94:53:b3:af:8c:9d:f6:0c:7a:6c:5c:aa:83:8d:
         23:8a:6d:69:c3:05:88:31:eb:ac:3f:07:7d:65:b9:c4:99:1a:
         e3:1f:f7:d9:eb:6e:89:d0:86:4f:25:53:41:e6:df:8d:f6:4e:
         a6:50:8e:68:6f:c1:06:17:67:0a:22:5b:b2:23:18:fb:c7:0c:
         a8:a1:53:88:ff:5a:bc:b1:14:f1:96:55:c9:ed:e1:35:b2:80:
         0d:a0:6b:0f:57:8e:35:ba:e1:dc:46:f1:26:ee:03:db:1e:54:
         cc:b0:65:e2:f3:7c:82:05:0c:6e:b2:35:ed:95:f2:75:5e:26:
         7c:db:9f:57:bb:34:42:26:c0:0d:66:dc:8f:a1:d8:89:c0:80:
         c9:be:67:df:48:10:9f:66:60:3e:d6:92:32:0f:1a:ac:a6:b0:
         fa:8d:66:05:e3:b1:76:9b:2f:93:73:95:85:b6:c0:62:8f:f6:
         d8:70:26:79:b1:34:75:0b:03:4a:82:a6:2f:38:b7:34:09:3f:
         82:7a:b9:a8:b7:47:ee:39:71:93:d4:4f:fb:e5:40:78:cf:1d:
         8c:d7:cc:60:cd:63:e8:28:8d:f9:7d:47:ae:47:74:ea:71:8b:
         00:cd:21:07:01:93:ea:fd:90:46:16:b1:d1:27:29:9b:14:48:
         92:40:1f:fd:f0:10:a4:7e:3a:60:f2:40:c2:0e:c1:d7:84:57:
         b8:b2:0c:f8:f3:39:1b:6d:ad:ce:ea:d0:d0:2f:52:5b:7f:e1:
         15:a0:61:e6:71:d8:f3:30:2c:58:f8:19:8e:a4:cb:7d:16:5b:
         25:1c:02:41:48:0c:3e:e7:7e:76:cb:d6:1d:40:3e:c8:2c:c6:
         28:99:04:7a:00:b8:85:f3
-----BEGIN CERTIFICATE-----
MIIGrTCCBJWgAwIBAgICGGowDQYJKoZIhvcNAQEEBQAwgawxCzAJBgNVBAYTAlVT
MQswCQYDVQQIEwJPSDERMA8GA1UEBxMIQ29sdW1idXMxEjAQBgNVBAoTCVZpa2lu
Z1ZQTjEdMBsGA1UECxMUTXlPcmdhbml6YXRpb25hbFVuaXQxFTATBgNVBAMTDFZp
a2luZ1ZQTiBDQTEQMA4GA1UEKRMHRWFzeVJTQTEhMB8GCSqGSIb3DQEJARYSbWVA
bXlob3N0Lm15ZG9tYWluMB4XDTE1MDkxMjAyNTIzMFoXDTI1MDkwOTAyNTIzMFow
HzEdMBsGA1UEAxMUQ2xpZW50MTM2NENlcnRkYTdhZjgwggIiMA0GCSqGSIb3DQEB
AQUAA4ICDwAwggIKAoICAQCu0MKybfUtyGwdcXgFAvSIDSFP5Vv88YzwV9ucqMnt
v3qcg980BlcDe64X6cZqOFNhm9on0YMQ3dcFDQLBAmjgqFxO0+3T9BJZ0aJfumx0
H/Wz4InL1BfMH6zfuYZxRRV5TAqlRPJ5x9WXhV3B5PmtO3DuE46WTFMN4POXq2Wb
lBUYr1kim9WBlJXY2nRVn74E59yiDUvJ0XybLzpkfS3rb3gdYBWGEcWAunYPgs5k
KFT3RaXPGSQUcguM2IYjloaq/mXcbHgPUYvijWrVtf7DlSJJjPxTgyripRQBPo96
W96zTYLQ4kKEHL6quXRDm5LZ4p49Xv69VBXvUW55bwk0sXO+d/Ey/YMBMh5G2mkm
K/mQf7rt6vG/TQR+I68Z+aJ6WLDf1Mn6NqAOOgui5rh1GNL0zVc6yTbrlMQowfgk
Rk2OdWSv+/q+/Lo9jCxO4d5ad8qtRy4wnxpmk5ncD4AFGTe2Jf7HYIbXnUlN43QE
6Ry4snIRfDD/VkyXO0AfyqfCzxCw6otzX4XbSPpnSRbjN7c8ubjl0k2ZyuVA5LFw
upZ0ZpobUrLiXWRVSFg2jvoZKOzSm0RtRhiSdXGqqa57MYjGNvUvX6OhzYAAJeQm
wyZeLh61q66OchUbS18TyBLEVDZ5Kydy65xxTx3kRsDhTXtuGMMhO8juChGgMJky
pQIDAQABo4IBYzCCAV8wCQYDVR0TBAIwADAtBglghkgBhvhCAQ0EIBYeRWFzeS1S
U0EgR2VuZXJhdGVkIENlcnRpZmljYXRlMB0GA1UdDgQWBBR3BQ0NkkJsmEjrFs8S
Be56kg6KwTCB4QYDVR0jBIHZMIHWgBQSzWAE0qCAnnDtxpm4eyzGUv0ZoaGBsqSB
rzCBrDELMAkGA1UEBhMCVVMxCzAJBgNVBAgTAk9IMREwDwYDVQQHEwhDb2x1bWJ1
czESMBAGA1UEChMJVmlraW5nVlBOMR0wGwYDVQQLExRNeU9yZ2FuaXphdGlvbmFs
VW5pdDEVMBMGA1UEAxMMVmlraW5nVlBOIENBMRAwDgYDVQQpEwdFYXN5UlNBMSEw
HwYJKoZIhvcNAQkBFhJtZUBteWhvc3QubXlkb21haW6CCQDPNYXugL8qPjATBgNV
HSUEDDAKBggrBgEFBQcDAjALBgNVHQ8EBAMCB4AwDQYJKoZIhvcNAQEEBQADggIB
ABTF68AGlfBCzX3HlJ/EKtPbrMmi7F7GC6cv4sOuZ3UAQ2SoiSzggpFY53psduoG
qXyKnQt7Jey3DtNLKCL2sv11bWAZARBU5p3acBx5SrK+xPJb+Mz3UfOIlkC9blRF
2kL1rqInZtMyMW5Q7Wf2/FR4GrB+aVn5wrZPO9C2f5Pp4GFaDAKDZ9GAGjJrfQPV
DnXeuNXH4vvkIF2s4baLLqhkhcz4xw0LwK/CHBcxVLYdtJBpHC0TtI+UU7OvjJ32
DHpsXKqDjSOKbWnDBYgx66w/B31lucSZGuMf99nrbonQhk8lU0Hm3432TqZQjmhv
wQYXZwoiW7IjGPvHDKihU4j/WryxFPGWVcnt4TWygA2gaw9XjjW64dxG8SbuA9se
VMywZeLzfIIFDG6yNe2V8nVeJnzbn1e7NEImwA1m3I+h2InAgMm+Z99IEJ9mYD7W
kjIPGqymsPqNZgXjsXabL5NzlYW2wGKP9thwJnmxNHULA0qCpi84tzQJP4J6uai3
R+45cZPUT/vlQHjPHYzXzGDNY+gojfl9R65HdOpxiwDNIQcBk+r9kEYWsdEnKZsU
SJJAH/3wEKR+OmDyQMIOwdeEV7iyDPjzORttrc7q0NAvUlt/4RWgYeZx2PMwLFj4
GY6ky30WWyUcAkFIDD7nfnbL1h1APsgsxiiZBHoAuIXz
-----END CERTIFICATE-----
