Certificate:
    Data:
        Version: 3 (0x2)
        Serial Number: 6269 (0x187d)
    Signature Algorithm: md5WithRSAEncryption
        Issuer: C=US, ST=OH, L=Columbus, O=VikingVPN, OU=MyOrganizationalUnit, CN=VikingVPN CA/name=EasyRSA/emailAddress=me@myhost.mydomain
        Validity
            Not Before: Sep 14 04:46:05 2015 GMT
            Not After : Sep 11 04:46:05 2025 GMT
        Subject: CN=Client199Cert17d3af
        Subject Public Key Info:
            Public Key Algorithm: rsaEncryption
                Public-Key: (4096 bit)
                Modulus:
                    00:b6:61:43:03:35:7a:7f:78:ed:9e:22:70:83:5e:
                    78:3b:c2:81:9b:92:b8:4f:cf:28:9e:4e:c1:24:f3:
                    3f:79:e5:48:06:d8:99:b4:bb:4d:f8:dc:45:e2:80:
                    6c:23:eb:d8:c7:48:99:d0:4b:36:ca:a4:d2:fb:1f:
                    63:6a:f6:25:95:43:ac:60:1f:bc:1b:79:d2:af:96:
                    1f:1c:c2:70:81:70:97:e8:bf:dc:89:c9:32:3b:09:
                    9f:a9:1f:53:10:b3:08:64:09:e8:1b:46:fd:06:4c:
                    37:cb:33:13:e2:64:f1:04:75:9f:22:43:00:2e:6b:
                    36:40:c8:c3:a0:07:80:93:c2:d0:82:71:6a:d2:bf:
                    ea:ed:8e:6b:d3:84:8f:cb:4c:da:17:3d:18:dd:bd:
                    90:dc:17:16:bc:41:c7:30:b9:24:29:2f:41:e7:f7:
                    15:89:e1:28:46:d2:d7:98:e5:6c:9f:3a:ba:85:70:
                    1f:29:ee:5c:fa:8c:1f:0a:3a:95:4e:46:e0:1d:18:
                    d4:6d:09:97:d7:c3:f8:65:8b:09:b4:21:81:78:74:
                    cc:de:3f:d1:5b:ae:36:5d:8b:08:79:50:48:19:5a:
                    39:b3:88:f5:7b:3f:9b:bd:09:3e:48:2c:a2:5c:f7:
                    6a:78:46:21:d8:cd:6d:a6:cc:44:24:7a:e4:78:e9:
                    18:dc:21:41:a5:fa:02:2e:05:2c:f7:c5:31:ef:05:
                    ec:5c:cf:74:4b:da:e6:6e:15:46:11:be:13:72:76:
                    ad:48:72:f5:6a:c6:e4:2e:e0:e0:77:a9:86:b6:ed:
                    c5:cf:c5:e1:66:70:36:ee:82:4b:a5:fb:18:7c:5c:
                    0c:5d:d5:19:29:eb:82:5d:a8:7b:5b:d7:af:e2:71:
                    5b:7e:39:cd:42:67:45:88:9a:40:31:71:6c:9d:18:
                    4d:99:9e:0d:97:bc:b2:88:8e:59:a7:03:34:a0:bb:
                    16:8c:88:2c:1a:a0:18:10:ad:31:f7:a4:6c:db:bb:
                    4d:d0:e4:36:38:ba:b2:ce:01:9c:c1:37:e5:95:9a:
                    aa:dc:ab:1e:aa:2a:c9:31:d4:32:d7:d8:6a:83:ea:
                    e1:21:d7:90:25:a8:5a:56:a0:d4:ee:78:2c:50:29:
                    20:5d:65:69:df:12:db:17:59:af:11:71:5d:6a:b2:
                    56:f6:84:8c:7d:8b:4b:03:52:30:b1:2b:00:d2:67:
                    eb:c4:89:84:dc:fd:bf:1b:2b:a7:4f:6a:ab:9d:9a:
                    1b:d8:73:14:bf:7a:0f:9a:3f:a6:93:00:05:5c:6f:
                    59:07:ec:c3:cb:58:21:ce:09:be:25:dc:b4:de:8c:
                    83:2e:0a:e6:02:6d:28:62:23:f6:da:42:25:5b:c6:
                    97:0e:e3
                Exponent: 65537 (0x10001)
        X509v3 extensions:
            X509v3 Basic Constraints: 
                CA:FALSE
            Netscape Comment: 
                Easy-RSA Generated Certificate
            X509v3 Subject Key Identifier: 
                C2:D3:54:33:3F:0E:E5:5A:6A:0B:85:B4:CE:CB:A7:AD:62:E3:B3:07
            X509v3 Authority Key Identifier: 
                keyid:12:CD:60:04:D2:A0:80:9E:70:ED:C6:99:B8:7B:2C:C6:52:FD:19:A1
                DirName:/C=US/ST=OH/L=Columbus/O=VikingVPN/OU=MyOrganizationalUnit/CN=VikingVPN CA/name=EasyRSA/emailAddress=me@myhost.mydomain
                serial:CF:35:85:EE:80:BF:2A:3E

            X509v3 Extended Key Usage: 
                TLS Web Client Authentication
            X509v3 Key Usage: 
                Digital Signature
    Signature Algorithm: md5WithRSAEncryption
         89:98:a5:6f:7f:a8:99:25:91:a5:cd:4d:f6:7f:a4:3e:05:c3:
         a1:60:dd:d9:ce:0a:49:29:5a:74:9d:58:a1:82:cf:75:78:13:
         d6:00:5f:93:a9:68:ff:d7:b7:93:32:59:2d:df:c8:df:70:27:
         20:da:0d:1d:a0:ae:ae:46:b9:df:6d:32:13:93:5e:1b:42:fb:
         44:3f:45:71:d5:b3:ec:9f:73:02:93:6f:29:d9:16:19:5e:b9:
         28:98:8c:6e:d9:09:dc:a9:4a:b2:da:41:45:0d:5d:01:6c:2e:
         6c:e0:16:19:84:c1:a1:7e:9e:d9:a7:3b:ca:9e:53:25:f8:c6:
         bf:fe:1b:cc:1b:11:3e:f2:60:d7:d2:bf:f6:c5:fd:a6:8a:1e:
         18:19:93:37:fa:34:66:27:57:dd:75:c5:d2:40:8e:51:60:15:
         72:d1:ea:4a:c5:0c:22:20:f0:70:ab:49:0b:07:4b:dc:cf:33:
         70:ad:68:0b:0d:d6:34:ff:9e:42:f0:b0:00:28:8d:ff:5e:ad:
         e7:1e:f0:58:06:67:87:de:2d:f2:59:4f:4f:60:a9:5d:e6:be:
         81:c1:f3:46:20:59:8e:87:6c:d2:83:5a:25:77:4a:f3:86:3e:
         7a:f9:46:2e:f7:0b:a7:fa:10:33:b5:c2:1b:3c:58:82:5f:10:
         92:14:1b:d5:3f:30:f2:86:12:78:e9:4d:e0:30:d5:fd:d0:ed:
         1b:af:32:07:7f:46:12:05:cb:56:f8:b2:81:e1:20:07:c9:d0:
         ca:08:bd:ac:cc:25:7b:79:47:5a:72:fd:57:37:29:62:1a:42:
         b8:06:35:92:88:6f:40:1f:2b:6e:76:45:b1:9a:a1:45:21:27:
         8a:ca:7a:45:a1:a2:6a:3f:7c:64:8e:e8:48:71:ec:66:9f:39:
         f7:bb:84:b2:e9:79:e4:06:56:f8:38:ff:2f:75:65:f0:2a:17:
         24:29:17:7e:92:97:7f:8b:17:29:90:3e:88:b6:5a:07:c9:cd:
         33:c4:3e:9e:f1:d6:f7:cb:41:fe:38:66:4a:e1:50:fd:22:7e:
         86:dc:90:19:4c:47:80:5f:ae:86:fe:1b:61:0d:94:62:c3:61:
         2e:77:b9:2d:43:21:da:09:3d:c5:c8:87:5c:bb:b2:81:34:83:
         5a:10:ce:8c:01:6f:6a:09:82:f7:61:c8:db:77:21:e8:12:3c:
         bb:de:b9:6a:22:60:67:f2:46:c9:36:22:b3:b2:52:57:ed:42:
         82:e1:29:68:6c:a4:4e:ab:2c:7d:16:c5:a7:a1:eb:e4:a4:05:
         26:74:0a:5f:c5:9e:94:2d:ad:66:74:70:df:44:65:39:69:47:
         d5:17:17:f0:06:da:68:9d
-----BEGIN CERTIFICATE-----
MIIGrDCCBJSgAwIBAgICGH0wDQYJKoZIhvcNAQEEBQAwgawxCzAJBgNVBAYTAlVT
MQswCQYDVQQIEwJPSDERMA8GA1UEBxMIQ29sdW1idXMxEjAQBgNVBAoTCVZpa2lu
Z1ZQTjEdMBsGA1UECxMUTXlPcmdhbml6YXRpb25hbFVuaXQxFTATBgNVBAMTDFZp
a2luZ1ZQTiBDQTEQMA4GA1UEKRMHRWFzeVJTQTEhMB8GCSqGSIb3DQEJARYSbWVA
bXlob3N0Lm15ZG9tYWluMB4XDTE1MDkxNDA0NDYwNVoXDTI1MDkxMTA0NDYwNVow
HjEcMBoGA1UEAxMTQ2xpZW50MTk5Q2VydDE3ZDNhZjCCAiIwDQYJKoZIhvcNAQEB
BQADggIPADCCAgoCggIBALZhQwM1en947Z4icINeeDvCgZuSuE/PKJ5OwSTzP3nl
SAbYmbS7TfjcReKAbCPr2MdImdBLNsqk0vsfY2r2JZVDrGAfvBt50q+WHxzCcIFw
l+i/3InJMjsJn6kfUxCzCGQJ6BtG/QZMN8szE+Jk8QR1nyJDAC5rNkDIw6AHgJPC
0IJxatK/6u2Oa9OEj8tM2hc9GN29kNwXFrxBxzC5JCkvQef3FYnhKEbS15jlbJ86
uoVwHynuXPqMHwo6lU5G4B0Y1G0Jl9fD+GWLCbQhgXh0zN4/0VuuNl2LCHlQSBla
ObOI9Xs/m70JPkgsolz3anhGIdjNbabMRCR65HjpGNwhQaX6Ai4FLPfFMe8F7FzP
dEva5m4VRhG+E3J2rUhy9WrG5C7g4Hephrbtxc/F4WZwNu6CS6X7GHxcDF3VGSnr
gl2oe1vXr+JxW345zUJnRYiaQDFxbJ0YTZmeDZe8soiOWacDNKC7FoyILBqgGBCt
MfekbNu7TdDkNji6ss4BnME35ZWaqtyrHqoqyTHUMtfYaoPq4SHXkCWoWlag1O54
LFApIF1lad8S2xdZrxFxXWqyVvaEjH2LSwNSMLErANJn68SJhNz9vxsrp09qq52a
G9hzFL96D5o/ppMABVxvWQfsw8tYIc4JviXctN6Mgy4K5gJtKGIj9tpCJVvGlw7j
AgMBAAGjggFjMIIBXzAJBgNVHRMEAjAAMC0GCWCGSAGG+EIBDQQgFh5FYXN5LVJT
QSBHZW5lcmF0ZWQgQ2VydGlmaWNhdGUwHQYDVR0OBBYEFMLTVDM/DuVaaguFtM7L
p61i47MHMIHhBgNVHSMEgdkwgdaAFBLNYATSoICecO3Gmbh7LMZS/RmhoYGypIGv
MIGsMQswCQYDVQQGEwJVUzELMAkGA1UECBMCT0gxETAPBgNVBAcTCENvbHVtYnVz
MRIwEAYDVQQKEwlWaWtpbmdWUE4xHTAbBgNVBAsTFE15T3JnYW5pemF0aW9uYWxV
bml0MRUwEwYDVQQDEwxWaWtpbmdWUE4gQ0ExEDAOBgNVBCkTB0Vhc3lSU0ExITAf
BgkqhkiG9w0BCQEWEm1lQG15aG9zdC5teWRvbWFpboIJAM81he6Avyo+MBMGA1Ud
JQQMMAoGCCsGAQUFBwMCMAsGA1UdDwQEAwIHgDANBgkqhkiG9w0BAQQFAAOCAgEA
iZilb3+omSWRpc1N9n+kPgXDoWDd2c4KSSladJ1YoYLPdXgT1gBfk6lo/9e3kzJZ
Ld/I33AnINoNHaCurka5320yE5NeG0L7RD9FcdWz7J9zApNvKdkWGV65KJiMbtkJ
3KlKstpBRQ1dAWwubOAWGYTBoX6e2ac7yp5TJfjGv/4bzBsRPvJg19K/9sX9pooe
GBmTN/o0ZidX3XXF0kCOUWAVctHqSsUMIiDwcKtJCwdL3M8zcK1oCw3WNP+eQvCw
ACiN/16t5x7wWAZnh94t8llPT2CpXea+gcHzRiBZjods0oNaJXdK84Y+evlGLvcL
p/oQM7XCGzxYgl8QkhQb1T8w8oYSeOlN4DDV/dDtG68yB39GEgXLVviygeEgB8nQ
ygi9rMwle3lHWnL9VzcpYhpCuAY1kohvQB8rbnZFsZqhRSEnisp6RaGiaj98ZI7o
SHHsZp8597uEsul55AZW+Dj/L3Vl8CoXJCkXfpKXf4sXKZA+iLZaB8nNM8Q+nvHW
98tB/jhmSuFQ/SJ+htyQGUxHgF+uhv4bYQ2UYsNhLne5LUMh2gk9xciHXLuygTSD
WhDOjAFvagmC92HI23ch6BI8u965aiJgZ/JGyTYis7JSV+1CguEpaGykTqssfRbF
p6Hr5KQFJnQKX8WelC2tZnRw30RlOWlH1RcX8AbaaJ0=
-----END CERTIFICATE-----
