Certificate:
    Data:
        Version: 3 (0x2)
        Serial Number: 6274 (0x1882)
    Signature Algorithm: md5WithRSAEncryption
        Issuer: C=US, ST=OH, L=Columbus, O=VikingVPN, OU=MyOrganizationalUnit, CN=VikingVPN CA/name=EasyRSA/emailAddress=me@myhost.mydomain
        Validity
            Not Before: Sep 14 05:04:29 2015 GMT
            Not After : Sep 11 05:04:29 2025 GMT
        Subject: CN=Client199Cert086577
        Subject Public Key Info:
            Public Key Algorithm: rsaEncryption
                Public-Key: (4096 bit)
                Modulus:
                    00:b5:5b:b6:f1:5a:bc:18:96:e6:97:73:92:10:59:
                    9d:a8:c6:1a:8e:91:de:42:7a:76:34:c0:de:9b:0e:
                    82:22:fe:6e:ee:79:c7:fc:46:83:66:41:33:7e:63:
                    ba:96:19:17:bc:0a:80:97:ae:f9:0c:3c:52:bf:b3:
                    d1:29:93:9c:b3:4a:2e:24:66:20:fd:19:f3:50:ba:
                    59:62:07:94:9c:36:64:0e:f6:8c:07:c0:ce:8d:52:
                    4d:97:c9:5b:7b:3a:1e:e7:69:bb:cd:49:fb:fe:e3:
                    44:ee:7a:3e:10:54:a3:56:10:5d:0b:a2:05:23:ff:
                    37:b1:1f:80:55:9a:7f:1d:67:51:78:06:30:d1:81:
                    7d:34:d3:35:6c:68:73:a2:ce:63:ad:a4:4d:b2:48:
                    52:b2:77:49:ea:41:42:aa:84:cc:16:d4:c9:0d:bf:
                    74:d6:d0:53:bc:cc:2e:7a:88:13:95:05:2c:fe:fc:
                    41:c6:73:1f:ab:92:23:2f:a1:d5:95:06:a5:fe:3c:
                    b8:47:22:c3:6f:c4:90:7d:73:21:a4:da:98:8f:c3:
                    9f:33:51:a0:57:b0:4a:52:d1:94:75:c1:99:36:a6:
                    b7:14:c8:a1:ed:30:63:e5:be:b4:40:3a:d3:0a:0d:
                    e9:f7:a2:12:33:73:6e:8d:82:fb:de:3c:f8:77:6e:
                    3b:4a:e1:c4:98:d3:e7:ff:bf:9b:07:8d:5f:71:90:
                    ef:7f:17:0e:67:d7:ef:31:ef:19:0d:d1:6b:fe:8c:
                    5b:fa:cd:22:f4:78:b7:6b:9c:19:48:73:28:d0:c8:
                    46:f3:09:8c:a8:c8:23:b0:18:8d:be:f7:a9:18:c0:
                    44:16:6e:26:9a:a7:68:36:1f:1f:81:27:0b:f7:7e:
                    1c:a2:f7:06:1d:be:9f:b9:9c:40:c9:60:47:66:66:
                    70:7b:0d:d9:01:14:58:78:64:8d:ea:e0:34:c1:23:
                    db:e9:66:fe:bd:7b:40:79:08:6b:ac:ef:bc:ec:16:
                    83:4e:19:f4:4e:4f:1d:6a:ac:7d:d2:fc:fe:21:4a:
                    ee:57:9b:ec:68:fb:dd:55:c7:3d:f1:2d:ae:9b:49:
                    95:aa:c3:65:80:70:dc:47:6f:e1:dd:b1:69:2e:05:
                    35:10:cb:4e:1f:d1:68:a9:5c:82:42:c1:fb:4e:a0:
                    24:e1:f4:bc:0e:92:64:e4:bf:f9:6b:ca:b7:60:b8:
                    3f:21:fb:fd:cd:9d:f3:2d:c0:d7:ad:16:56:e9:f7:
                    61:ea:4b:2b:88:97:ea:00:20:71:3f:eb:2c:c1:fb:
                    80:c4:dc:c9:35:41:f0:ed:25:f1:41:59:89:f9:22:
                    b7:53:3c:a2:05:59:67:cf:4c:1f:ce:95:ba:6f:da:
                    90:41:5f
                Exponent: 65537 (0x10001)
        X509v3 extensions:
            X509v3 Basic Constraints: 
                CA:FALSE
            Netscape Comment: 
                Easy-RSA Generated Certificate
            X509v3 Subject Key Identifier: 
                BD:A8:26:9B:60:09:A8:37:56:84:9B:FF:31:7A:1B:C9:ED:12:A0:4E
            X509v3 Authority Key Identifier: 
                keyid:12:CD:60:04:D2:A0:80:9E:70:ED:C6:99:B8:7B:2C:C6:52:FD:19:A1
                DirName:/C=US/ST=OH/L=Columbus/O=VikingVPN/OU=MyOrganizationalUnit/CN=VikingVPN CA/name=EasyRSA/emailAddress=me@myhost.mydomain
                serial:CF:35:85:EE:80:BF:2A:3E

            X509v3 Extended Key Usage: 
                TLS Web Client Authentication
            X509v3 Key Usage: 
                Digital Signature
    Signature Algorithm: md5WithRSAEncryption
         2b:4e:a7:74:a3:65:f3:e7:45:8b:fb:c5:32:1a:58:cd:28:af:
         92:71:94:dc:16:21:dd:fa:36:df:21:b8:d5:68:87:03:c5:70:
         e5:22:db:f4:06:6d:09:99:23:63:fd:ad:b0:08:c8:00:1e:d1:
         e2:6c:f9:81:d7:07:e6:bc:b0:c3:6c:b2:cb:45:13:ec:82:96:
         58:f3:0b:a0:be:e6:0c:a1:aa:0b:bc:d3:de:6c:90:f2:83:e7:
         0d:05:51:6c:1b:d2:aa:f1:06:7a:cc:30:53:21:5c:8a:39:86:
         7c:f0:d5:a8:de:b0:7d:20:73:f7:95:94:22:6f:40:09:34:f3:
         76:7d:3b:7f:b7:5c:52:68:9f:c7:75:be:ee:ea:f4:b0:5f:bd:
         a3:7a:ed:b4:7a:1c:b2:e1:f0:b1:b9:c0:32:e8:5a:01:0d:ed:
         65:c8:8b:bb:01:02:71:f2:cb:45:a3:69:8b:22:4b:18:3a:7e:
         3c:7f:04:a2:c0:b9:70:d3:7a:b9:d9:8a:d4:50:ff:47:ac:ec:
         cd:53:6a:6e:d9:a6:7f:c5:19:a9:35:ae:82:d6:00:62:03:73:
         7b:d4:f6:c0:cd:69:8f:4d:f8:1a:5a:26:77:b4:44:86:f1:f4:
         9e:4d:72:8b:70:72:b2:54:d6:be:35:f2:1e:87:fb:9b:7e:d9:
         98:60:14:34:12:43:ef:1a:77:e8:0b:5c:37:db:09:6f:bb:54:
         ad:b0:c5:d1:b2:7d:4c:4a:7f:b2:26:d1:69:41:72:a0:a6:c2:
         59:f9:42:27:12:58:93:dc:e8:15:5b:33:05:cb:1c:51:31:4b:
         6d:bf:10:c7:df:64:3c:68:cc:82:38:06:c4:5d:00:87:bd:9c:
         50:58:a0:7a:22:86:2d:28:34:8d:09:5b:2d:43:66:66:db:e9:
         2a:ae:2b:41:36:f2:9d:55:be:da:3b:5c:36:d4:42:38:34:12:
         06:5a:5f:7d:4b:ee:fe:6a:ab:d0:d7:dd:b4:3f:cf:cf:24:f1:
         a2:40:c5:eb:3e:23:1c:35:df:e0:3c:33:1d:b7:8f:c8:db:23:
         94:53:dd:f4:d8:d7:b3:77:26:02:1c:69:68:91:e8:b7:40:86:
         14:55:ca:26:6e:66:d2:92:73:2b:9a:74:29:7a:91:d9:74:26:
         48:ac:09:12:c5:93:70:fd:a2:23:f5:e8:07:11:ab:21:a4:ed:
         5c:92:bf:97:f7:6a:b7:bf:2c:87:fe:4a:86:c7:7e:15:6f:47:
         b5:6e:b5:16:9e:51:37:46:d0:f4:61:59:fd:43:cf:6d:70:2e:
         9c:23:95:e7:6f:0f:47:46:b2:12:86:35:b5:06:5d:13:f8:55:
         75:78:29:21:99:9d:07:1b
-----BEGIN CERTIFICATE-----
MIIGrDCCBJSgAwIBAgICGIIwDQYJKoZIhvcNAQEEBQAwgawxCzAJBgNVBAYTAlVT
MQswCQYDVQQIEwJPSDERMA8GA1UEBxMIQ29sdW1idXMxEjAQBgNVBAoTCVZpa2lu
Z1ZQTjEdMBsGA1UECxMUTXlPcmdhbml6YXRpb25hbFVuaXQxFTATBgNVBAMTDFZp
a2luZ1ZQTiBDQTEQMA4GA1UEKRMHRWFzeVJTQTEhMB8GCSqGSIb3DQEJARYSbWVA
bXlob3N0Lm15ZG9tYWluMB4XDTE1MDkxNDA1MDQyOVoXDTI1MDkxMTA1MDQyOVow
HjEcMBoGA1UEAxMTQ2xpZW50MTk5Q2VydDA4NjU3NzCCAiIwDQYJKoZIhvcNAQEB
BQADggIPADCCAgoCggIBALVbtvFavBiW5pdzkhBZnajGGo6R3kJ6djTA3psOgiL+
bu55x/xGg2ZBM35jupYZF7wKgJeu+Qw8Ur+z0SmTnLNKLiRmIP0Z81C6WWIHlJw2
ZA72jAfAzo1STZfJW3s6Hudpu81J+/7jRO56PhBUo1YQXQuiBSP/N7EfgFWafx1n
UXgGMNGBfTTTNWxoc6LOY62kTbJIUrJ3SepBQqqEzBbUyQ2/dNbQU7zMLnqIE5UF
LP78QcZzH6uSIy+h1ZUGpf48uEciw2/EkH1zIaTamI/DnzNRoFewSlLRlHXBmTam
txTIoe0wY+W+tEA60woN6feiEjNzbo2C+948+HduO0rhxJjT5/+/mweNX3GQ738X
DmfX7zHvGQ3Ra/6MW/rNIvR4t2ucGUhzKNDIRvMJjKjII7AYjb73qRjARBZuJpqn
aDYfH4EnC/d+HKL3Bh2+n7mcQMlgR2ZmcHsN2QEUWHhkjergNMEj2+lm/r17QHkI
a6zvvOwWg04Z9E5PHWqsfdL8/iFK7leb7Gj73VXHPfEtrptJlarDZYBw3Edv4d2x
aS4FNRDLTh/RaKlcgkLB+06gJOH0vA6SZOS/+WvKt2C4PyH7/c2d8y3A160WVun3
YepLK4iX6gAgcT/rLMH7gMTcyTVB8O0l8UFZifkit1M8ogVZZ89MH86Vum/akEFf
AgMBAAGjggFjMIIBXzAJBgNVHRMEAjAAMC0GCWCGSAGG+EIBDQQgFh5FYXN5LVJT
QSBHZW5lcmF0ZWQgQ2VydGlmaWNhdGUwHQYDVR0OBBYEFL2oJptgCag3VoSb/zF6
G8ntEqBOMIHhBgNVHSMEgdkwgdaAFBLNYATSoICecO3Gmbh7LMZS/RmhoYGypIGv
MIGsMQswCQYDVQQGEwJVUzELMAkGA1UECBMCT0gxETAPBgNVBAcTCENvbHVtYnVz
MRIwEAYDVQQKEwlWaWtpbmdWUE4xHTAbBgNVBAsTFE15T3JnYW5pemF0aW9uYWxV
bml0MRUwEwYDVQQDEwxWaWtpbmdWUE4gQ0ExEDAOBgNVBCkTB0Vhc3lSU0ExITAf
BgkqhkiG9w0BCQEWEm1lQG15aG9zdC5teWRvbWFpboIJAM81he6Avyo+MBMGA1Ud
JQQMMAoGCCsGAQUFBwMCMAsGA1UdDwQEAwIHgDANBgkqhkiG9w0BAQQFAAOCAgEA
K06ndKNl8+dFi/vFMhpYzSivknGU3BYh3fo23yG41WiHA8Vw5SLb9AZtCZkjY/2t
sAjIAB7R4mz5gdcH5ryww2yyy0UT7IKWWPMLoL7mDKGqC7zT3myQ8oPnDQVRbBvS
qvEGeswwUyFcijmGfPDVqN6wfSBz95WUIm9ACTTzdn07f7dcUmifx3W+7ur0sF+9
o3rttHocsuHwsbnAMuhaAQ3tZciLuwECcfLLRaNpiyJLGDp+PH8EosC5cNN6udmK
1FD/R6zszVNqbtmmf8UZqTWugtYAYgNze9T2wM1pj034Glomd7REhvH0nk1yi3By
slTWvjXyHof7m37ZmGAUNBJD7xp36AtcN9sJb7tUrbDF0bJ9TEp/sibRaUFyoKbC
WflCJxJYk9zoFVszBcscUTFLbb8Qx99kPGjMgjgGxF0Ah72cUFigeiKGLSg0jQlb
LUNmZtvpKq4rQTbynVW+2jtcNtRCODQSBlpffUvu/mqr0NfdtD/PzyTxokDF6z4j
HDXf4DwzHbePyNsjlFPd9NjXs3cmAhxpaJHot0CGFFXKJm5m0pJzK5p0KXqR2XQm
SKwJEsWTcP2iI/XoBxGrIaTtXJK/l/dqt78sh/5Khsd+FW9HtW61Fp5RN0bQ9GFZ
/UPPbXAunCOV528PR0ayEoY1tQZdE/hVdXgpIZmdBxs=
-----END CERTIFICATE-----
