Certificate:
    Data:
        Version: 3 (0x2)
        Serial Number: 6301 (0x189d)
    Signature Algorithm: md5WithRSAEncryption
        Issuer: C=US, ST=OH, L=Columbus, O=VikingVPN, OU=MyOrganizationalUnit, CN=VikingVPN CA/name=EasyRSA/emailAddress=me@myhost.mydomain
        Validity
            Not Before: Sep 19 04:35:39 2015 GMT
            Not After : Sep 16 04:35:39 2025 GMT
        Subject: CN=Client1723Cert54e1b8
        Subject Public Key Info:
            Public Key Algorithm: rsaEncryption
                Public-Key: (4096 bit)
                Modulus:
                    00:d9:c6:a8:24:bc:a8:3b:d8:52:7d:ca:5a:cc:78:
                    c2:7c:38:30:0e:33:eb:b3:b2:ca:32:45:5b:33:c4:
                    7d:18:db:e3:c3:d2:05:8c:0d:8a:a5:50:5b:35:a3:
                    44:3e:43:1b:9e:50:33:72:38:d3:be:2b:ba:70:5a:
                    f4:e6:6e:72:42:b3:8e:b5:14:12:d4:90:a1:33:11:
                    61:a3:fe:11:b8:9a:bb:61:e7:e3:e7:c5:7f:0a:de:
                    7c:d4:97:11:bd:a9:6e:81:31:e4:24:44:7f:12:c8:
                    57:be:24:10:33:ba:8c:c2:2b:a7:10:75:4d:51:57:
                    ff:dd:5d:ca:ec:93:99:8b:17:42:eb:62:93:8f:47:
                    26:8b:e8:1f:b4:30:76:50:76:c3:3d:4e:de:d3:f4:
                    64:a8:6e:d5:16:b1:26:f2:41:85:ca:ad:7f:a3:eb:
                    ea:00:14:26:4d:91:bb:de:b5:a8:3b:9c:5d:c3:da:
                    52:0e:e9:29:9b:39:5b:ce:53:18:1d:07:21:4b:2e:
                    57:81:be:78:fb:aa:70:01:16:c8:59:e4:54:67:71:
                    d6:60:27:a5:fb:eb:0d:d8:3f:bc:c0:8e:f6:99:0a:
                    7e:85:b6:e8:2e:54:b8:8a:81:67:bb:14:09:25:5b:
                    33:9b:0d:93:d4:da:1d:be:f6:1d:ea:c9:42:59:62:
                    99:b2:da:c8:5e:08:37:63:30:46:83:ee:78:16:22:
                    31:60:c2:18:e1:36:2f:4b:45:a6:c3:bd:94:d4:35:
                    e4:96:ba:a8:73:e7:d5:a6:49:39:19:85:8f:c9:77:
                    63:e6:d9:f8:1f:b1:6e:4a:bf:59:fe:93:5b:0d:41:
                    61:5e:e3:b9:c0:45:7a:1f:fb:e9:3c:b8:8c:cc:99:
                    f4:80:9e:98:bc:bd:fa:6d:ca:e9:2a:aa:d2:f2:ae:
                    47:e9:b3:68:cf:49:a9:9b:29:01:bb:a5:6c:27:16:
                    0b:73:2c:cc:c4:f4:72:e7:a9:bb:f1:25:07:86:6e:
                    89:8d:21:3c:7a:8d:02:9c:ad:f8:b4:38:80:d8:ef:
                    1a:33:f8:bc:33:61:db:3c:49:42:0d:93:9f:f1:da:
                    9c:85:52:d5:b8:ea:e3:40:40:d1:d9:d8:3e:0e:f0:
                    4f:71:e8:94:10:6e:9d:70:f1:18:dd:ce:a7:12:32:
                    cb:c3:fe:33:10:80:91:0d:66:8f:d4:53:ae:d2:fa:
                    a9:07:e5:a0:f7:2b:09:41:47:c3:29:6d:1d:74:45:
                    56:ff:c0:02:fb:90:27:6c:6a:a1:c8:c3:a7:6e:0e:
                    a3:d8:dd:2a:84:98:6b:1c:36:a3:83:62:05:13:91:
                    01:8f:90:02:f9:be:a7:d1:86:8a:8c:4d:e1:33:1f:
                    3c:0c:7d
                Exponent: 65537 (0x10001)
        X509v3 extensions:
            X509v3 Basic Constraints: 
                CA:FALSE
            Netscape Comment: 
                Easy-RSA Generated Certificate
            X509v3 Subject Key Identifier: 
                61:C7:2D:B0:FB:D5:B0:48:C8:45:D5:E8:FD:3B:95:CC:5C:F9:25:F8
            X509v3 Authority Key Identifier: 
                keyid:12:CD:60:04:D2:A0:80:9E:70:ED:C6:99:B8:7B:2C:C6:52:FD:19:A1
                DirName:/C=US/ST=OH/L=Columbus/O=VikingVPN/OU=MyOrganizationalUnit/CN=VikingVPN CA/name=EasyRSA/emailAddress=me@myhost.mydomain
                serial:CF:35:85:EE:80:BF:2A:3E

            X509v3 Extended Key Usage: 
                TLS Web Client Authentication
            X509v3 Key Usage: 
                Digital Signature
    Signature Algorithm: md5WithRSAEncryption
         54:bc:f6:11:3c:b6:09:3d:0c:a8:48:3b:23:6e:98:05:2f:bc:
         e3:20:69:53:20:b5:90:97:90:64:45:4d:a8:32:ab:4e:f2:e4:
         d7:b2:07:af:35:3a:46:2c:01:0f:96:2f:32:f4:0e:f5:c0:c2:
         a4:3c:8a:df:2c:da:2f:71:49:01:ad:20:54:c9:a8:5d:ef:3f:
         be:82:65:ea:c4:ec:fa:f1:b7:0b:26:5a:e1:23:60:15:8f:53:
         b8:76:14:d3:f8:a0:b6:bf:45:8f:e4:84:7e:f3:a4:4b:12:d2:
         00:e2:d8:81:4e:68:58:ac:92:6e:db:5f:93:aa:da:e0:87:99:
         46:f3:e5:0f:15:d8:84:bc:c2:81:a6:25:2c:22:e9:0a:09:5d:
         d0:8d:c4:c9:f1:19:ee:a5:f4:c2:b6:9c:c1:aa:7f:81:a7:3b:
         3b:41:3b:e8:3a:31:7e:88:2b:6d:9e:23:36:d1:f6:8f:b0:02:
         9b:ab:68:85:4e:a5:54:ac:fe:93:4c:09:51:d2:8a:7b:e6:48:
         06:5f:ce:9c:0e:d3:9b:ce:eb:55:e0:1c:47:ce:28:1d:4b:9e:
         37:70:ee:4d:4b:16:98:fd:4c:bf:69:1e:5d:5a:00:1d:cf:47:
         69:4a:57:55:2c:62:9a:1b:5a:84:7a:83:9b:fa:13:98:5d:fc:
         c9:b5:67:a4:d3:e5:71:d8:b1:83:84:69:b0:aa:c4:e7:54:69:
         19:82:9b:e8:f4:da:12:bb:3a:39:2b:2d:77:a8:18:a3:38:b2:
         15:08:a5:0a:29:66:8e:3e:04:a3:2a:b6:89:41:1e:08:29:2a:
         22:37:9b:91:4e:d3:4b:d9:0b:d3:59:fd:8e:89:0a:f1:2a:60:
         5a:c9:5e:7e:56:3e:df:f7:d9:9d:97:5d:cd:73:14:5b:52:63:
         47:b0:fe:db:62:13:b3:c9:8f:4a:a8:aa:00:54:49:4d:f5:07:
         de:c1:e5:7d:14:b4:0f:2f:00:4c:cb:17:fc:d5:eb:2e:58:65:
         b9:dc:2c:08:d3:0b:94:e6:d0:3a:fe:87:d9:04:d5:4a:dd:7a:
         a4:72:1c:cf:04:89:6c:a6:1b:c6:ee:e5:da:20:8f:1d:21:62:
         c4:c2:92:fb:9c:08:2a:c2:0d:42:0c:3a:0e:29:3d:1e:91:8f:
         6b:7a:55:7a:4f:f7:f0:a1:60:b9:c5:19:c5:97:ff:87:96:c6:
         91:69:e9:51:6f:d4:b3:a0:94:71:a3:8a:1a:37:5e:0e:0b:58:
         d4:38:c5:64:de:38:e8:5a:cc:b7:50:b6:26:6f:c5:fc:e6:31:
         16:83:94:58:48:2d:b0:af:7b:42:37:55:e2:98:69:99:dd:76:
         4b:ca:32:03:a3:1e:04:eb
-----BEGIN CERTIFICATE-----
MIIGrTCCBJWgAwIBAgICGJ0wDQYJKoZIhvcNAQEEBQAwgawxCzAJBgNVBAYTAlVT
MQswCQYDVQQIEwJPSDERMA8GA1UEBxMIQ29sdW1idXMxEjAQBgNVBAoTCVZpa2lu
Z1ZQTjEdMBsGA1UECxMUTXlPcmdhbml6YXRpb25hbFVuaXQxFTATBgNVBAMTDFZp
a2luZ1ZQTiBDQTEQMA4GA1UEKRMHRWFzeVJTQTEhMB8GCSqGSIb3DQEJARYSbWVA
bXlob3N0Lm15ZG9tYWluMB4XDTE1MDkxOTA0MzUzOVoXDTI1MDkxNjA0MzUzOVow
HzEdMBsGA1UEAxMUQ2xpZW50MTcyM0NlcnQ1NGUxYjgwggIiMA0GCSqGSIb3DQEB
AQUAA4ICDwAwggIKAoICAQDZxqgkvKg72FJ9ylrMeMJ8ODAOM+uzssoyRVszxH0Y
2+PD0gWMDYqlUFs1o0Q+QxueUDNyONO+K7pwWvTmbnJCs461FBLUkKEzEWGj/hG4
mrth5+PnxX8K3nzUlxG9qW6BMeQkRH8SyFe+JBAzuozCK6cQdU1RV//dXcrsk5mL
F0LrYpOPRyaL6B+0MHZQdsM9Tt7T9GSobtUWsSbyQYXKrX+j6+oAFCZNkbvetag7
nF3D2lIO6SmbOVvOUxgdByFLLleBvnj7qnABFshZ5FRncdZgJ6X76w3YP7zAjvaZ
Cn6FtuguVLiKgWe7FAklWzObDZPU2h2+9h3qyUJZYpmy2sheCDdjMEaD7ngWIjFg
whjhNi9LRabDvZTUNeSWuqhz59WmSTkZhY/Jd2Pm2fgfsW5Kv1n+k1sNQWFe47nA
RXof++k8uIzMmfSAnpi8vfptyukqqtLyrkfps2jPSambKQG7pWwnFgtzLMzE9HLn
qbvxJQeGbomNITx6jQKcrfi0OIDY7xoz+LwzYds8SUINk5/x2pyFUtW46uNAQNHZ
2D4O8E9x6JQQbp1w8RjdzqcSMsvD/jMQgJENZo/UU67S+qkH5aD3KwlBR8MpbR10
RVb/wAL7kCdsaqHIw6duDqPY3SqEmGscNqODYgUTkQGPkAL5vqfRhoqMTeEzHzwM
fQIDAQABo4IBYzCCAV8wCQYDVR0TBAIwADAtBglghkgBhvhCAQ0EIBYeRWFzeS1S
U0EgR2VuZXJhdGVkIENlcnRpZmljYXRlMB0GA1UdDgQWBBRhxy2w+9WwSMhF1ej9
O5XMXPkl+DCB4QYDVR0jBIHZMIHWgBQSzWAE0qCAnnDtxpm4eyzGUv0ZoaGBsqSB
rzCBrDELMAkGA1UEBhMCVVMxCzAJBgNVBAgTAk9IMREwDwYDVQQHEwhDb2x1bWJ1
czESMBAGA1UEChMJVmlraW5nVlBOMR0wGwYDVQQLExRNeU9yZ2FuaXphdGlvbmFs
VW5pdDEVMBMGA1UEAxMMVmlraW5nVlBOIENBMRAwDgYDVQQpEwdFYXN5UlNBMSEw
HwYJKoZIhvcNAQkBFhJtZUBteWhvc3QubXlkb21haW6CCQDPNYXugL8qPjATBgNV
HSUEDDAKBggrBgEFBQcDAjALBgNVHQ8EBAMCB4AwDQYJKoZIhvcNAQEEBQADggIB
AFS89hE8tgk9DKhIOyNumAUvvOMgaVMgtZCXkGRFTagyq07y5NeyB681OkYsAQ+W
LzL0DvXAwqQ8it8s2i9xSQGtIFTJqF3vP76CZerE7PrxtwsmWuEjYBWPU7h2FNP4
oLa/RY/khH7zpEsS0gDi2IFOaFiskm7bX5Oq2uCHmUbz5Q8V2IS8woGmJSwi6QoJ
XdCNxMnxGe6l9MK2nMGqf4GnOztBO+g6MX6IK22eIzbR9o+wApuraIVOpVSs/pNM
CVHSinvmSAZfzpwO05vO61XgHEfOKB1Lnjdw7k1LFpj9TL9pHl1aAB3PR2lKV1Us
YpobWoR6g5v6E5hd/Mm1Z6TT5XHYsYOEabCqxOdUaRmCm+j02hK7OjkrLXeoGKM4
shUIpQopZo4+BKMqtolBHggpKiI3m5FO00vZC9NZ/Y6JCvEqYFrJXn5WPt/32Z2X
Xc1zFFtSY0ew/ttiE7PJj0qoqgBUSU31B97B5X0UtA8vAEzLF/zV6y5YZbncLAjT
C5Tm0Dr+h9kE1UrdeqRyHM8EiWymG8bu5dogjx0hYsTCkvucCCrCDUIMOg4pPR6R
j2t6VXpP9/ChYLnFGcWX/4eWxpFp6VFv1LOglHGjiho3Xg4LWNQ4xWTeOOhazLdQ
tiZvxfzmMRaDlFhILbCve0I3VeKYaZnddkvKMgOjHgTr
-----END CERTIFICATE-----
