Certificate:
    Data:
        Version: 3 (0x2)
        Serial Number: 6327 (0x18b7)
    Signature Algorithm: md5WithRSAEncryption
        Issuer: C=US, ST=OH, L=Columbus, O=VikingVPN, OU=MyOrganizationalUnit, CN=VikingVPN CA/name=EasyRSA/emailAddress=me@myhost.mydomain
        Validity
            Not Before: Sep 21 05:22:59 2015 GMT
            Not After : Sep 18 05:22:59 2025 GMT
        Subject: CN=Client1364Certf0cf8d
        Subject Public Key Info:
            Public Key Algorithm: rsaEncryption
                Public-Key: (4096 bit)
                Modulus:
                    00:bd:0c:e1:d3:08:a0:45:3f:11:a2:82:89:7e:78:
                    b7:f5:ad:6f:be:ef:1b:e5:79:f2:f8:0a:51:e5:23:
                    a5:af:89:24:58:df:01:93:d9:e5:82:2b:41:13:46:
                    d9:de:a0:4b:e0:e7:6d:cc:b0:0f:3c:e4:e2:cb:6f:
                    eb:6a:43:ef:04:86:6f:8f:9a:15:26:cf:03:e6:c6:
                    c1:83:b8:62:bd:04:43:5f:4b:93:e4:3a:f0:23:83:
                    12:b7:17:2d:d5:07:a9:a7:7f:d5:db:b3:50:02:2f:
                    8f:0c:e7:55:2a:8a:4c:e1:f3:77:d9:5a:57:74:a9:
                    5a:49:4f:19:8c:b1:b2:7a:0f:d8:25:28:49:8f:3f:
                    c1:81:40:68:52:41:2f:22:02:8c:40:52:82:91:6a:
                    15:f2:bf:15:e3:32:b3:50:ea:77:c8:ab:92:d5:15:
                    eb:4e:b8:78:a8:e7:8a:3f:b7:5e:c1:ca:17:85:14:
                    2a:48:f6:af:76:4c:cb:b5:3a:3b:f1:3d:29:b3:4d:
                    fb:5a:1d:fd:00:74:bf:0a:be:51:73:98:5d:92:65:
                    e4:d6:f1:d9:cb:12:25:c4:b5:72:69:ee:15:b8:45:
                    78:5b:8d:bd:f6:8f:40:ef:5f:fa:e9:02:53:db:6f:
                    37:23:fd:d6:34:ce:29:b5:63:b5:e1:91:42:4a:99:
                    f2:8e:60:41:f9:3b:f6:81:24:a4:ce:2e:d8:98:04:
                    79:2d:c0:78:5d:38:24:db:9c:b6:59:8c:e5:9a:c1:
                    d0:47:44:96:a7:e2:41:35:ae:f7:e4:33:a7:0f:fa:
                    c5:46:d0:f9:f1:db:36:58:97:8c:74:a1:ea:df:da:
                    6f:31:6d:e4:1a:dd:8c:72:1d:54:8b:86:8e:3e:69:
                    7a:92:c6:30:3a:ed:f6:2d:e1:21:2b:c9:b6:1e:c6:
                    a7:5e:de:c0:fe:28:bb:3a:a5:f7:8e:cf:4e:d3:42:
                    37:93:27:82:ba:03:b3:a0:3c:c9:53:19:f6:42:00:
                    b5:c4:4f:31:c5:da:11:62:92:12:05:52:f2:6a:e6:
                    8d:6f:72:9c:f7:62:d3:33:40:11:2e:d0:11:95:57:
                    b2:29:32:a0:0f:e6:32:6c:0f:13:95:b9:e5:32:2b:
                    37:9e:1f:df:ba:dc:19:3f:69:d5:55:e2:90:b9:09:
                    d2:6b:86:dc:0a:f4:54:ac:b4:42:a4:7b:9d:17:40:
                    6e:ea:3e:44:38:3c:4b:a5:94:ac:08:9d:76:4a:90:
                    07:0f:28:db:2b:24:e6:a2:1c:e0:8d:1b:1b:44:6d:
                    da:00:14:53:96:6d:1b:da:cd:11:1f:89:45:2b:bb:
                    29:d6:86:d3:20:50:06:57:76:2f:1b:52:0c:aa:4c:
                    45:32:ed
                Exponent: 65537 (0x10001)
        X509v3 extensions:
            X509v3 Basic Constraints: 
                CA:FALSE
            Netscape Comment: 
                Easy-RSA Generated Certificate
            X509v3 Subject Key Identifier: 
                C2:9E:79:E8:70:6A:AE:20:E5:96:BE:A1:58:CB:E6:1E:18:66:1D:F7
            X509v3 Authority Key Identifier: 
                keyid:12:CD:60:04:D2:A0:80:9E:70:ED:C6:99:B8:7B:2C:C6:52:FD:19:A1
                DirName:/C=US/ST=OH/L=Columbus/O=VikingVPN/OU=MyOrganizationalUnit/CN=VikingVPN CA/name=EasyRSA/emailAddress=me@myhost.mydomain
                serial:CF:35:85:EE:80:BF:2A:3E

            X509v3 Extended Key Usage: 
                TLS Web Client Authentication
            X509v3 Key Usage: 
                Digital Signature
    Signature Algorithm: md5WithRSAEncryption
         8c:45:c1:35:6d:6a:52:a0:09:f3:47:ef:76:dc:27:71:a5:33:
         02:4a:12:e3:70:95:8b:9e:1e:13:c4:6c:92:9f:51:4c:71:c9:
         3f:b2:ad:fc:e8:e9:14:65:d4:67:e3:41:d1:dc:84:c2:4c:b3:
         c7:c9:21:bb:2e:d4:f7:ac:55:1c:9a:5a:bc:1f:ca:a0:5c:6e:
         bf:e7:46:67:ed:02:b4:09:e3:ac:da:85:f6:50:d7:37:92:d8:
         9a:35:b9:87:5f:8c:d6:4b:8d:be:2d:e7:6b:42:a6:64:5c:ad:
         69:31:7d:7e:74:98:90:c9:bc:c8:0d:6b:c5:17:18:0a:ec:ca:
         da:47:dd:7f:f4:3b:e2:38:91:fa:3c:14:0f:a0:2b:18:3f:7a:
         76:53:9c:b8:e1:0a:91:66:7b:80:c5:9a:5e:59:21:ab:11:b2:
         0a:c8:c4:4e:98:82:44:a9:1e:19:80:8c:b7:ec:02:13:56:f3:
         bb:1c:2d:98:b3:3b:5c:7b:7c:67:ec:52:d4:69:09:e3:1b:98:
         9c:b2:7a:66:77:46:c2:ec:7d:21:98:42:42:c6:0c:2a:cb:8d:
         8f:42:54:95:7d:65:6a:2c:e7:db:7b:a0:1a:42:d1:20:6d:b0:
         b1:13:7d:a4:31:e3:19:02:b8:bc:94:95:b4:f3:5b:ba:c3:60:
         2b:34:4b:ed:6c:18:0d:86:c4:69:a1:ff:d1:90:a3:b9:3f:b8:
         eb:f3:72:da:6e:c7:b3:93:d9:6e:d8:d2:0f:86:29:e2:df:41:
         cf:49:ca:36:d2:b2:76:8e:65:21:9e:ae:8c:14:ca:f8:91:60:
         ad:9e:72:ba:00:b9:d8:3b:87:5f:99:e2:98:62:5c:87:d4:eb:
         96:2f:bb:6e:ae:82:42:af:b9:91:0e:24:eb:74:86:60:9e:47:
         ef:54:22:d2:ec:8c:88:50:76:e9:e6:35:7a:6c:48:09:cc:8d:
         e9:4b:ea:13:c5:89:89:13:55:7e:e5:92:af:a9:55:19:49:7d:
         8b:3e:3e:f5:44:bc:e5:65:37:a7:1c:75:ea:ca:34:45:e1:1d:
         af:4b:88:dc:37:19:4a:de:1c:09:d0:32:6c:c5:5e:a6:25:3d:
         5c:e0:2f:d2:e6:ca:b2:be:75:b8:68:0c:c5:59:a6:5c:0a:95:
         13:0b:76:de:d2:9e:0a:92:8d:96:11:2c:3e:6b:1f:70:2d:b5:
         7b:85:52:b9:a8:be:ec:11:6e:ee:78:27:59:fc:78:b6:d2:88:
         10:06:9e:d1:d0:62:c9:48:47:b9:8d:68:eb:89:da:49:dc:96:
         d8:8e:7e:a2:a9:70:a7:24:38:9f:91:4a:b3:fe:60:36:8d:ca:
         a1:59:67:44:5d:b6:4b:77
-----BEGIN CERTIFICATE-----
MIIGrTCCBJWgAwIBAgICGLcwDQYJKoZIhvcNAQEEBQAwgawxCzAJBgNVBAYTAlVT
MQswCQYDVQQIEwJPSDERMA8GA1UEBxMIQ29sdW1idXMxEjAQBgNVBAoTCVZpa2lu
Z1ZQTjEdMBsGA1UECxMUTXlPcmdhbml6YXRpb25hbFVuaXQxFTATBgNVBAMTDFZp
a2luZ1ZQTiBDQTEQMA4GA1UEKRMHRWFzeVJTQTEhMB8GCSqGSIb3DQEJARYSbWVA
bXlob3N0Lm15ZG9tYWluMB4XDTE1MDkyMTA1MjI1OVoXDTI1MDkxODA1MjI1OVow
HzEdMBsGA1UEAxMUQ2xpZW50MTM2NENlcnRmMGNmOGQwggIiMA0GCSqGSIb3DQEB
AQUAA4ICDwAwggIKAoICAQC9DOHTCKBFPxGigol+eLf1rW++7xvlefL4ClHlI6Wv
iSRY3wGT2eWCK0ETRtneoEvg523MsA885OLLb+tqQ+8Ehm+PmhUmzwPmxsGDuGK9
BENfS5PkOvAjgxK3Fy3VB6mnf9Xbs1ACL48M51Uqikzh83fZWld0qVpJTxmMsbJ6
D9glKEmPP8GBQGhSQS8iAoxAUoKRahXyvxXjMrNQ6nfIq5LVFetOuHio54o/t17B
yheFFCpI9q92TMu1OjvxPSmzTftaHf0AdL8KvlFzmF2SZeTW8dnLEiXEtXJp7hW4
RXhbjb32j0DvX/rpAlPbbzcj/dY0zim1Y7XhkUJKmfKOYEH5O/aBJKTOLtiYBHkt
wHhdOCTbnLZZjOWawdBHRJan4kE1rvfkM6cP+sVG0Pnx2zZYl4x0oerf2m8xbeQa
3YxyHVSLho4+aXqSxjA67fYt4SErybYexqde3sD+KLs6pfeOz07TQjeTJ4K6A7Og
PMlTGfZCALXETzHF2hFikhIFUvJq5o1vcpz3YtMzQBEu0BGVV7IpMqAP5jJsDxOV
ueUyKzeeH9+63Bk/adVV4pC5CdJrhtwK9FSstEKke50XQG7qPkQ4PEullKwInXZK
kAcPKNsrJOaiHOCNGxtEbdoAFFOWbRvazREfiUUruynWhtMgUAZXdi8bUgyqTEUy
7QIDAQABo4IBYzCCAV8wCQYDVR0TBAIwADAtBglghkgBhvhCAQ0EIBYeRWFzeS1S
U0EgR2VuZXJhdGVkIENlcnRpZmljYXRlMB0GA1UdDgQWBBTCnnnocGquIOWWvqFY
y+YeGGYd9zCB4QYDVR0jBIHZMIHWgBQSzWAE0qCAnnDtxpm4eyzGUv0ZoaGBsqSB
rzCBrDELMAkGA1UEBhMCVVMxCzAJBgNVBAgTAk9IMREwDwYDVQQHEwhDb2x1bWJ1
czESMBAGA1UEChMJVmlraW5nVlBOMR0wGwYDVQQLExRNeU9yZ2FuaXphdGlvbmFs
VW5pdDEVMBMGA1UEAxMMVmlraW5nVlBOIENBMRAwDgYDVQQpEwdFYXN5UlNBMSEw
HwYJKoZIhvcNAQkBFhJtZUBteWhvc3QubXlkb21haW6CCQDPNYXugL8qPjATBgNV
HSUEDDAKBggrBgEFBQcDAjALBgNVHQ8EBAMCB4AwDQYJKoZIhvcNAQEEBQADggIB
AIxFwTVtalKgCfNH73bcJ3GlMwJKEuNwlYueHhPEbJKfUUxxyT+yrfzo6RRl1Gfj
QdHchMJMs8fJIbsu1PesVRyaWrwfyqBcbr/nRmftArQJ46zahfZQ1zeS2Jo1uYdf
jNZLjb4t52tCpmRcrWkxfX50mJDJvMgNa8UXGArsytpH3X/0O+I4kfo8FA+gKxg/
enZTnLjhCpFme4DFml5ZIasRsgrIxE6YgkSpHhmAjLfsAhNW87scLZizO1x7fGfs
UtRpCeMbmJyyemZ3RsLsfSGYQkLGDCrLjY9CVJV9ZWos59t7oBpC0SBtsLETfaQx
4xkCuLyUlbTzW7rDYCs0S+1sGA2GxGmh/9GQo7k/uOvzctpux7OT2W7Y0g+GKeLf
Qc9JyjbSsnaOZSGerowUyviRYK2ecroAudg7h1+Z4phiXIfU65Yvu26ugkKvuZEO
JOt0hmCeR+9UItLsjIhQdunmNXpsSAnMjelL6hPFiYkTVX7lkq+pVRlJfYs+PvVE
vOVlN6ccderKNEXhHa9LiNw3GUreHAnQMmzFXqYlPVzgL9LmyrK+dbhoDMVZplwK
lRMLdt7SngqSjZYRLD5rH3AttXuFUrmovuwRbu54J1n8eLbSiBAGntHQYslIR7mN
aOuJ2kncltiOfqKpcKckOJ+RSrP+YDaNyqFZZ0Rdtkt3
-----END CERTIFICATE-----
