Certificate:
    Data:
        Version: 3 (0x2)
        Serial Number: 6328 (0x18b8)
    Signature Algorithm: md5WithRSAEncryption
        Issuer: C=US, ST=OH, L=Columbus, O=VikingVPN, OU=MyOrganizationalUnit, CN=VikingVPN CA/name=EasyRSA/emailAddress=me@myhost.mydomain
        Validity
            Not Before: Sep 21 09:07:59 2015 GMT
            Not After : Sep 18 09:07:59 2025 GMT
        Subject: CN=Client1827Cert5ae55b
        Subject Public Key Info:
            Public Key Algorithm: rsaEncryption
                Public-Key: (4096 bit)
                Modulus:
                    00:a2:bb:1a:98:74:13:b9:85:b6:9e:67:8a:8e:8a:
                    e2:31:b9:59:ba:a1:5e:c6:1d:19:6b:d0:87:42:c1:
                    1b:81:e1:8f:11:51:5c:8c:8e:8f:21:e6:35:6e:39:
                    ba:74:93:5d:bf:50:dd:a3:6d:5d:8d:44:e4:71:3c:
                    b7:dc:8d:81:dc:52:0f:3e:2c:c2:6b:f8:f5:8a:63:
                    e7:85:ee:13:89:c6:7d:58:58:08:f7:09:2c:8e:c0:
                    43:0d:5b:0b:71:25:3e:9f:4a:9f:91:3e:e8:b6:ce:
                    bd:cd:0f:53:8d:60:70:57:b1:ee:4c:a5:b3:1c:b9:
                    b4:63:7a:87:fb:92:8a:46:5b:45:68:f3:1e:9d:a5:
                    c5:b6:38:aa:95:61:80:2a:c3:c0:2b:10:d2:16:04:
                    57:2d:54:a2:68:1b:aa:9e:54:8b:bb:6c:50:c0:46:
                    dd:57:20:58:ed:7c:d1:97:da:f6:32:8a:00:ce:bb:
                    f8:b9:9d:6d:40:48:62:5a:a5:31:50:e8:fb:56:24:
                    da:cf:89:94:37:60:d7:a9:90:ef:55:39:6e:95:12:
                    53:c8:6b:d8:44:e2:11:09:fd:be:25:df:5b:a6:ac:
                    48:55:44:2f:92:f6:7f:61:47:79:c0:85:c5:f2:15:
                    aa:eb:e4:e5:44:bc:6c:2f:ac:c5:9a:b0:8a:5f:ab:
                    17:be:06:66:0f:e8:63:ae:07:de:a1:c6:7d:4c:2d:
                    33:40:88:ad:d9:b2:39:49:7e:83:ba:4d:44:bb:c2:
                    4f:4c:17:dd:d3:54:0a:09:a2:2e:23:7a:79:7c:72:
                    cb:54:be:ac:9e:a6:ec:b4:57:cf:0f:cc:58:9f:48:
                    ae:0a:cb:6e:fb:03:f1:19:8c:24:27:9c:00:40:c1:
                    6d:ce:e7:bd:ad:e5:f7:f2:4d:2f:51:e5:5f:c0:ac:
                    8c:d9:ad:85:ab:16:ec:be:8d:3e:e2:ed:0a:89:90:
                    5b:c6:56:e4:2b:e9:65:7e:f2:9a:39:29:95:97:a7:
                    45:7f:56:e5:1e:29:1b:82:37:5c:ee:92:01:8d:3c:
                    40:17:cd:37:d7:77:da:cc:eb:4f:11:92:07:d6:8d:
                    07:86:1a:d7:11:4f:53:1b:cd:7a:b8:1e:1a:2b:e0:
                    18:59:f9:d6:f7:a4:9b:af:b9:ab:df:06:a5:7f:0b:
                    57:b2:4c:c1:49:12:3a:8c:aa:34:ef:c0:56:c3:27:
                    64:fa:0d:06:64:66:a7:ff:cb:d7:57:77:ab:4a:75:
                    87:88:8e:6e:71:50:57:92:dd:0a:db:45:2a:f8:84:
                    f5:25:6a:d4:39:19:21:20:48:2a:d3:2f:84:1b:32:
                    b4:8a:ac:1e:93:66:9b:cd:ee:be:e7:43:48:52:48:
                    64:a1:89
                Exponent: 65537 (0x10001)
        X509v3 extensions:
            X509v3 Basic Constraints: 
                CA:FALSE
            Netscape Comment: 
                Easy-RSA Generated Certificate
            X509v3 Subject Key Identifier: 
                C8:04:1F:54:A2:ED:A3:7B:FE:CF:4F:FF:92:9A:82:A3:8A:AB:1D:B6
            X509v3 Authority Key Identifier: 
                keyid:12:CD:60:04:D2:A0:80:9E:70:ED:C6:99:B8:7B:2C:C6:52:FD:19:A1
                DirName:/C=US/ST=OH/L=Columbus/O=VikingVPN/OU=MyOrganizationalUnit/CN=VikingVPN CA/name=EasyRSA/emailAddress=me@myhost.mydomain
                serial:CF:35:85:EE:80:BF:2A:3E

            X509v3 Extended Key Usage: 
                TLS Web Client Authentication
            X509v3 Key Usage: 
                Digital Signature
    Signature Algorithm: md5WithRSAEncryption
         0f:0e:84:32:6a:9e:a7:1d:09:45:c8:ee:a5:a3:f5:ea:37:3f:
         20:59:79:ff:2f:a9:6b:ab:46:f0:b9:43:80:ca:cc:e6:c3:c9:
         af:50:41:0f:35:e6:3f:09:8c:a4:e7:75:45:60:04:fb:03:78:
         b9:ee:d7:98:93:88:08:cf:4e:cc:22:09:bb:0f:a7:38:b5:c9:
         a6:95:1e:f4:d5:8c:0d:9f:f8:e0:8d:26:cf:ac:ae:2b:a1:94:
         26:4b:42:2e:89:d7:19:bc:a2:0c:78:2f:c6:46:90:2b:60:df:
         10:ae:16:8d:6f:f0:0c:46:cf:ed:d5:96:80:54:b5:bc:66:fd:
         17:c0:7d:ec:f4:a4:c4:de:d0:0b:93:be:35:9e:2b:35:8c:31:
         cd:df:09:5d:78:5b:a7:41:c6:e9:17:c1:e0:36:a2:6e:7d:8d:
         39:06:95:0c:0b:ef:49:fd:72:d7:40:d0:5d:a7:e0:2e:c9:18:
         8f:ec:04:a0:08:69:32:c2:78:3d:1a:4d:6a:5f:95:34:c2:75:
         ca:2b:60:c4:3c:dd:0c:13:03:db:9a:59:81:34:7e:22:09:3b:
         44:f9:36:c8:fa:ab:76:99:61:5a:27:c8:62:26:e4:28:05:2a:
         b1:4a:c6:7a:46:82:fc:9a:ac:c2:25:41:2f:ec:df:6d:9c:bc:
         32:f0:7a:52:29:53:a4:8c:b7:fb:3b:43:4a:81:30:bd:30:5c:
         07:2d:df:b0:59:23:23:81:2f:d3:11:84:e5:bc:a3:a0:1a:0a:
         ec:09:74:45:76:b8:be:17:4c:c5:b4:39:89:22:73:2e:76:75:
         52:e2:f0:7a:8d:d2:cb:3c:25:81:4d:8d:54:f8:f1:68:ff:56:
         58:4f:be:33:0b:25:6f:46:4e:41:9d:f8:c1:54:d3:91:06:f5:
         54:ae:bc:a7:86:c0:7d:76:03:09:38:70:b9:b2:33:9c:b3:c6:
         ea:63:dd:dc:70:6b:7e:0f:1a:66:df:4f:62:c8:0d:b4:ad:52:
         05:78:12:d9:17:86:4e:63:73:0c:06:c2:78:23:bf:11:2f:d7:
         4f:25:e9:6b:c0:ca:00:65:4b:eb:03:37:38:5a:28:48:85:4b:
         1f:60:cd:8e:d0:48:39:3c:80:c7:62:42:92:c8:57:89:f5:39:
         de:7a:3e:fa:73:4c:80:83:33:d3:ed:a8:8f:50:73:18:51:09:
         91:1c:00:4b:a5:3c:91:fe:07:76:1f:21:43:dd:64:6f:30:60:
         dd:44:7e:f2:60:bd:ea:12:c9:b3:91:b6:7a:1a:15:5f:24:58:
         23:c7:82:59:8f:fd:37:47:26:fe:b1:ba:f6:51:38:9b:6b:a9:
         0c:7d:5c:c7:32:90:d9:87
-----BEGIN CERTIFICATE-----
MIIGrTCCBJWgAwIBAgICGLgwDQYJKoZIhvcNAQEEBQAwgawxCzAJBgNVBAYTAlVT
MQswCQYDVQQIEwJPSDERMA8GA1UEBxMIQ29sdW1idXMxEjAQBgNVBAoTCVZpa2lu
Z1ZQTjEdMBsGA1UECxMUTXlPcmdhbml6YXRpb25hbFVuaXQxFTATBgNVBAMTDFZp
a2luZ1ZQTiBDQTEQMA4GA1UEKRMHRWFzeVJTQTEhMB8GCSqGSIb3DQEJARYSbWVA
bXlob3N0Lm15ZG9tYWluMB4XDTE1MDkyMTA5MDc1OVoXDTI1MDkxODA5MDc1OVow
HzEdMBsGA1UEAxMUQ2xpZW50MTgyN0NlcnQ1YWU1NWIwggIiMA0GCSqGSIb3DQEB
AQUAA4ICDwAwggIKAoICAQCiuxqYdBO5hbaeZ4qOiuIxuVm6oV7GHRlr0IdCwRuB
4Y8RUVyMjo8h5jVuObp0k12/UN2jbV2NRORxPLfcjYHcUg8+LMJr+PWKY+eF7hOJ
xn1YWAj3CSyOwEMNWwtxJT6fSp+RPui2zr3ND1ONYHBXse5MpbMcubRjeof7kopG
W0Vo8x6dpcW2OKqVYYAqw8ArENIWBFctVKJoG6qeVIu7bFDARt1XIFjtfNGX2vYy
igDOu/i5nW1ASGJapTFQ6PtWJNrPiZQ3YNepkO9VOW6VElPIa9hE4hEJ/b4l31um
rEhVRC+S9n9hR3nAhcXyFarr5OVEvGwvrMWasIpfqxe+BmYP6GOuB96hxn1MLTNA
iK3ZsjlJfoO6TUS7wk9MF93TVAoJoi4jenl8cstUvqyepuy0V88PzFifSK4Ky277
A/EZjCQnnABAwW3O572t5ffyTS9R5V/ArIzZrYWrFuy+jT7i7QqJkFvGVuQr6WV+
8po5KZWXp0V/VuUeKRuCN1zukgGNPEAXzTfXd9rM608RkgfWjQeGGtcRT1MbzXq4
Hhor4BhZ+db3pJuvuavfBqV/C1eyTMFJEjqMqjTvwFbDJ2T6DQZkZqf/y9dXd6tK
dYeIjm5xUFeS3QrbRSr4hPUlatQ5GSEgSCrTL4QbMrSKrB6TZpvN7r7nQ0hSSGSh
iQIDAQABo4IBYzCCAV8wCQYDVR0TBAIwADAtBglghkgBhvhCAQ0EIBYeRWFzeS1S
U0EgR2VuZXJhdGVkIENlcnRpZmljYXRlMB0GA1UdDgQWBBTIBB9Uou2je/7PT/+S
moKjiqsdtjCB4QYDVR0jBIHZMIHWgBQSzWAE0qCAnnDtxpm4eyzGUv0ZoaGBsqSB
rzCBrDELMAkGA1UEBhMCVVMxCzAJBgNVBAgTAk9IMREwDwYDVQQHEwhDb2x1bWJ1
czESMBAGA1UEChMJVmlraW5nVlBOMR0wGwYDVQQLExRNeU9yZ2FuaXphdGlvbmFs
VW5pdDEVMBMGA1UEAxMMVmlraW5nVlBOIENBMRAwDgYDVQQpEwdFYXN5UlNBMSEw
HwYJKoZIhvcNAQkBFhJtZUBteWhvc3QubXlkb21haW6CCQDPNYXugL8qPjATBgNV
HSUEDDAKBggrBgEFBQcDAjALBgNVHQ8EBAMCB4AwDQYJKoZIhvcNAQEEBQADggIB
AA8OhDJqnqcdCUXI7qWj9eo3PyBZef8vqWurRvC5Q4DKzObDya9QQQ815j8JjKTn
dUVgBPsDeLnu15iTiAjPTswiCbsPpzi1yaaVHvTVjA2f+OCNJs+sriuhlCZLQi6J
1xm8ogx4L8ZGkCtg3xCuFo1v8AxGz+3VloBUtbxm/RfAfez0pMTe0AuTvjWeKzWM
Mc3fCV14W6dBxukXweA2om59jTkGlQwL70n9ctdA0F2n4C7JGI/sBKAIaTLCeD0a
TWpflTTCdcorYMQ83QwTA9uaWYE0fiIJO0T5Nsj6q3aZYVonyGIm5CgFKrFKxnpG
gvyarMIlQS/s322cvDLwelIpU6SMt/s7Q0qBML0wXAct37BZIyOBL9MRhOW8o6Aa
CuwJdEV2uL4XTMW0OYkicy52dVLi8HqN0ss8JYFNjVT48Wj/VlhPvjMLJW9GTkGd
+MFU05EG9VSuvKeGwH12Awk4cLmyM5yzxupj3dxwa34PGmbfT2LIDbStUgV4EtkX
hk5jcwwGwngjvxEv108l6WvAygBlS+sDNzhaKEiFSx9gzY7QSDk8gMdiQpLIV4n1
Od56PvpzTICDM9PtqI9QcxhRCZEcAEulPJH+B3YfIUPdZG8wYN1EfvJgveoSybOR
tnoaFV8kWCPHglmP/TdHJv6xuvZROJtrqQx9XMcykNmH
-----END CERTIFICATE-----
