Certificate:
    Data:
        Version: 3 (0x2)
        Serial Number: 6332 (0x18bc)
    Signature Algorithm: md5WithRSAEncryption
        Issuer: C=US, ST=OH, L=Columbus, O=VikingVPN, OU=MyOrganizationalUnit, CN=VikingVPN CA/name=EasyRSA/emailAddress=me@myhost.mydomain
        Validity
            Not Before: Sep 22 02:19:33 2015 GMT
            Not After : Sep 19 02:19:33 2025 GMT
        Subject: CN=Client1711Cert0b987d
        Subject Public Key Info:
            Public Key Algorithm: rsaEncryption
                Public-Key: (4096 bit)
                Modulus:
                    00:d8:9a:03:f5:ee:b7:10:4a:6e:a7:b4:82:04:56:
                    d1:d6:5f:ba:15:1d:f3:04:f4:85:9e:2b:23:b0:19:
                    6e:de:53:e6:c2:e7:48:b7:95:66:dc:6d:af:49:23:
                    fe:c1:4b:6f:0a:bb:63:64:e8:b4:1b:ca:37:79:c1:
                    fb:5f:5a:03:12:75:e7:f7:e3:2a:64:61:97:c7:de:
                    7e:94:71:dc:7c:95:df:a9:9d:46:23:8b:a8:83:ba:
                    b5:22:5e:72:f2:0c:7c:63:31:7f:f9:87:41:5a:9e:
                    7c:56:5e:7c:3e:ce:f3:8a:92:08:0c:13:65:20:bb:
                    a7:05:5c:79:88:a9:98:40:7f:85:4d:4c:e9:1c:ad:
                    7f:23:6c:d3:68:81:3c:a8:b3:ae:ed:24:82:2d:94:
                    18:66:ca:93:93:07:22:9f:4d:2f:6a:ab:74:2d:6e:
                    74:ad:c5:a7:af:73:03:d3:6b:2a:09:b0:10:a0:59:
                    28:7c:ec:44:94:5a:bb:0b:a2:32:30:7f:d0:dc:7b:
                    55:9f:28:fd:e9:7a:8f:01:6b:c4:44:a9:04:37:14:
                    93:52:fa:11:1b:73:f0:cd:b4:2e:9a:24:b1:4f:55:
                    dc:da:d2:a7:e7:a8:68:3a:5e:90:0d:bb:ea:1b:05:
                    33:6a:fa:66:cc:6f:31:99:58:95:fa:d3:b4:3c:aa:
                    d6:54:85:82:40:d9:e1:16:92:22:d8:20:d8:d4:06:
                    1c:b5:3b:b9:55:b9:4b:b9:14:1f:e2:f7:fc:2e:8d:
                    39:99:3c:c0:fc:35:00:4b:3f:ed:3f:d5:e3:e5:17:
                    b7:db:e1:c5:fe:12:ea:e2:26:a1:1f:c3:db:37:11:
                    d5:fc:90:2b:94:59:c1:98:a9:d0:82:a6:56:16:a9:
                    28:17:12:0b:c8:fc:42:0f:29:d6:0f:35:96:67:9d:
                    0d:d7:f2:19:45:6a:d1:cf:1d:7f:9c:52:f2:1a:43:
                    e7:e1:9f:01:61:d4:23:ba:e1:26:b0:2d:ce:86:27:
                    b4:b1:b7:92:7f:d5:a6:76:d8:9c:d1:99:e1:05:42:
                    c9:cf:7d:2f:ea:c3:f2:c0:34:5a:b6:cb:a8:a7:52:
                    1c:7b:e7:3d:1a:a2:4c:2f:4c:8b:7c:37:92:db:e0:
                    69:29:e0:65:94:6e:89:0a:36:e8:62:86:13:77:2d:
                    30:3c:a7:38:cf:65:83:ff:0c:60:21:9c:34:2b:ab:
                    60:59:33:32:37:c6:11:b9:ec:2a:8b:f2:d7:42:98:
                    ac:2e:17:b2:7c:ed:f4:42:c7:30:8c:84:ff:5a:c8:
                    be:b2:74:51:55:ba:63:81:80:65:d5:42:04:35:92:
                    2a:0d:34:ca:18:b3:8b:2b:bf:06:f2:42:c3:8a:67:
                    36:38:c7
                Exponent: 65537 (0x10001)
        X509v3 extensions:
            X509v3 Basic Constraints: 
                CA:FALSE
            Netscape Comment: 
                Easy-RSA Generated Certificate
            X509v3 Subject Key Identifier: 
                6F:E2:B9:A0:E4:8A:BB:C8:7F:5B:E3:C9:CE:00:A2:7A:27:22:5C:24
            X509v3 Authority Key Identifier: 
                keyid:12:CD:60:04:D2:A0:80:9E:70:ED:C6:99:B8:7B:2C:C6:52:FD:19:A1
                DirName:/C=US/ST=OH/L=Columbus/O=VikingVPN/OU=MyOrganizationalUnit/CN=VikingVPN CA/name=EasyRSA/emailAddress=me@myhost.mydomain
                serial:CF:35:85:EE:80:BF:2A:3E

            X509v3 Extended Key Usage: 
                TLS Web Client Authentication
            X509v3 Key Usage: 
                Digital Signature
    Signature Algorithm: md5WithRSAEncryption
         24:9e:b4:c0:73:ca:8e:67:77:e2:16:66:87:1d:4e:9d:dd:ea:
         43:ce:f1:76:56:1d:0e:4d:e7:f9:1b:8f:a1:6c:1f:fb:00:1d:
         38:ac:df:93:14:10:0e:e2:63:9e:66:8c:95:a5:4f:d3:b1:a1:
         56:7b:ba:e7:8d:14:b9:05:99:f6:ad:ae:e9:7b:84:f6:04:0e:
         c7:df:ae:ae:2c:f5:fa:05:06:7d:55:f3:7e:a1:7c:8d:bb:bb:
         b0:b1:80:26:f3:3d:ed:3a:34:37:98:56:66:d7:f1:04:b2:3b:
         2c:bf:31:0d:13:c7:90:3f:c0:fe:74:da:fa:5e:d2:10:91:4c:
         0b:49:b8:c8:6c:1d:68:4b:b3:56:a0:d3:df:de:28:f4:99:e7:
         8e:b3:f0:cf:34:7b:5c:48:33:c7:76:f3:20:25:de:1d:f9:18:
         d9:e4:99:f4:55:d1:79:bd:ce:86:ba:5a:d9:88:e0:cb:c6:4f:
         c0:ff:2b:69:1d:0d:88:bf:d1:98:0f:24:f1:cf:47:71:e7:83:
         f6:33:85:be:13:38:64:03:d1:91:6d:40:e9:db:e8:1a:e2:da:
         80:30:5a:31:5d:86:e3:f0:a7:91:8f:8d:2a:23:ac:ca:f7:c4:
         43:04:bf:a9:75:cc:80:de:d0:77:48:31:46:fc:b0:36:b2:74:
         7c:cf:e9:bf:72:29:8d:34:28:fe:6e:80:c9:c8:f5:33:bc:5e:
         b3:67:23:51:b1:8c:e6:03:40:76:d9:ef:bb:d2:36:13:b6:b4:
         fe:59:52:d3:46:6d:f2:71:60:44:e5:d0:97:be:d6:a7:71:ea:
         08:b1:ad:5f:21:32:b5:9c:4c:68:f3:b1:b2:3e:a1:fa:98:74:
         08:3f:bd:c5:65:1e:d8:cd:54:0a:8d:2b:22:3f:e2:a5:f3:62:
         55:92:b0:b4:73:3d:64:6c:24:cb:61:21:33:2e:ef:e4:1b:39:
         c1:7e:8e:ef:db:ce:d3:a3:e2:7d:db:ab:58:f7:fa:e9:82:7d:
         f9:68:ef:27:f5:46:56:a1:bf:dc:c6:86:f9:e5:3a:18:9d:41:
         c4:5d:05:86:2f:23:35:f5:63:6d:bb:c9:35:be:a8:70:f5:3f:
         f3:15:04:d3:23:ec:ea:eb:5e:4a:28:32:2a:30:0a:ba:43:8d:
         1e:be:b1:99:95:bb:d3:8e:5b:c0:f7:fa:c8:d3:b4:6f:2e:c8:
         5d:02:6b:c7:aa:e5:05:b1:38:9e:ad:dd:43:73:d4:eb:17:57:
         56:36:4d:e3:fd:c9:8e:a7:d2:c6:d3:51:0b:8e:79:0a:30:9a:
         ad:e3:2b:f0:60:c0:a8:6b:82:de:8e:59:58:be:68:d6:59:5d:
         df:89:40:92:2f:f5:3c:54
-----BEGIN CERTIFICATE-----
MIIGrTCCBJWgAwIBAgICGLwwDQYJKoZIhvcNAQEEBQAwgawxCzAJBgNVBAYTAlVT
MQswCQYDVQQIEwJPSDERMA8GA1UEBxMIQ29sdW1idXMxEjAQBgNVBAoTCVZpa2lu
Z1ZQTjEdMBsGA1UECxMUTXlPcmdhbml6YXRpb25hbFVuaXQxFTATBgNVBAMTDFZp
a2luZ1ZQTiBDQTEQMA4GA1UEKRMHRWFzeVJTQTEhMB8GCSqGSIb3DQEJARYSbWVA
bXlob3N0Lm15ZG9tYWluMB4XDTE1MDkyMjAyMTkzM1oXDTI1MDkxOTAyMTkzM1ow
HzEdMBsGA1UEAxMUQ2xpZW50MTcxMUNlcnQwYjk4N2QwggIiMA0GCSqGSIb3DQEB
AQUAA4ICDwAwggIKAoICAQDYmgP17rcQSm6ntIIEVtHWX7oVHfME9IWeKyOwGW7e
U+bC50i3lWbcba9JI/7BS28Ku2Nk6LQbyjd5wftfWgMSdef34ypkYZfH3n6Ucdx8
ld+pnUYji6iDurUiXnLyDHxjMX/5h0FannxWXnw+zvOKkggME2Ugu6cFXHmIqZhA
f4VNTOkcrX8jbNNogTyos67tJIItlBhmypOTByKfTS9qq3QtbnStxaevcwPTayoJ
sBCgWSh87ESUWrsLojIwf9Dce1WfKP3peo8Ba8REqQQ3FJNS+hEbc/DNtC6aJLFP
Vdza0qfnqGg6XpANu+obBTNq+mbMbzGZWJX607Q8qtZUhYJA2eEWkiLYINjUBhy1
O7lVuUu5FB/i9/wujTmZPMD8NQBLP+0/1ePlF7fb4cX+EuriJqEfw9s3EdX8kCuU
WcGYqdCCplYWqSgXEgvI/EIPKdYPNZZnnQ3X8hlFatHPHX+cUvIaQ+fhnwFh1CO6
4SawLc6GJ7Sxt5J/1aZ22JzRmeEFQsnPfS/qw/LANFq2y6inUhx75z0aokwvTIt8
N5Lb4Gkp4GWUbokKNuhihhN3LTA8pzjPZYP/DGAhnDQrq2BZMzI3xhG57CqL8tdC
mKwuF7J87fRCxzCMhP9ayL6ydFFVumOBgGXVQgQ1kioNNMoYs4srvwbyQsOKZzY4
xwIDAQABo4IBYzCCAV8wCQYDVR0TBAIwADAtBglghkgBhvhCAQ0EIBYeRWFzeS1S
U0EgR2VuZXJhdGVkIENlcnRpZmljYXRlMB0GA1UdDgQWBBRv4rmg5Iq7yH9b48nO
AKJ6JyJcJDCB4QYDVR0jBIHZMIHWgBQSzWAE0qCAnnDtxpm4eyzGUv0ZoaGBsqSB
rzCBrDELMAkGA1UEBhMCVVMxCzAJBgNVBAgTAk9IMREwDwYDVQQHEwhDb2x1bWJ1
czESMBAGA1UEChMJVmlraW5nVlBOMR0wGwYDVQQLExRNeU9yZ2FuaXphdGlvbmFs
VW5pdDEVMBMGA1UEAxMMVmlraW5nVlBOIENBMRAwDgYDVQQpEwdFYXN5UlNBMSEw
HwYJKoZIhvcNAQkBFhJtZUBteWhvc3QubXlkb21haW6CCQDPNYXugL8qPjATBgNV
HSUEDDAKBggrBgEFBQcDAjALBgNVHQ8EBAMCB4AwDQYJKoZIhvcNAQEEBQADggIB
ACSetMBzyo5nd+IWZocdTp3d6kPO8XZWHQ5N5/kbj6FsH/sAHTis35MUEA7iY55m
jJWlT9OxoVZ7uueNFLkFmfatrul7hPYEDsffrq4s9foFBn1V836hfI27u7CxgCbz
Pe06NDeYVmbX8QSyOyy/MQ0Tx5A/wP502vpe0hCRTAtJuMhsHWhLs1ag09/eKPSZ
546z8M80e1xIM8d28yAl3h35GNnkmfRV0Xm9zoa6WtmI4MvGT8D/K2kdDYi/0ZgP
JPHPR3Hng/Yzhb4TOGQD0ZFtQOnb6Bri2oAwWjFdhuPwp5GPjSojrMr3xEMEv6l1
zIDe0HdIMUb8sDaydHzP6b9yKY00KP5ugMnI9TO8XrNnI1GxjOYDQHbZ77vSNhO2
tP5ZUtNGbfJxYETl0Je+1qdx6gixrV8hMrWcTGjzsbI+ofqYdAg/vcVlHtjNVAqN
KyI/4qXzYlWSsLRzPWRsJMthITMu7+QbOcF+ju/bztOj4n3bq1j3+umCfflo7yf1
Rlahv9zGhvnlOhidQcRdBYYvIzX1Y227yTW+qHD1P/MVBNMj7OrrXkooMiowCrpD
jR6+sZmVu9OOW8D3+sjTtG8uyF0Ca8eq5QWxOJ6t3UNz1OsXV1Y2TeP9yY6n0sbT
UQuOeQowmq3jK/BgwKhrgt6OWVi+aNZZXd+JQJIv9TxU
-----END CERTIFICATE-----
