Certificate:
    Data:
        Version: 3 (0x2)
        Serial Number: 6340 (0x18c4)
    Signature Algorithm: md5WithRSAEncryption
        Issuer: C=US, ST=OH, L=Columbus, O=VikingVPN, OU=MyOrganizationalUnit, CN=VikingVPN CA/name=EasyRSA/emailAddress=me@myhost.mydomain
        Validity
            Not Before: Sep 23 18:22:39 2015 GMT
            Not After : Sep 20 18:22:39 2025 GMT
        Subject: CN=Client1970Cert00505d
        Subject Public Key Info:
            Public Key Algorithm: rsaEncryption
                Public-Key: (4096 bit)
                Modulus:
                    00:ed:09:5a:ca:0d:a4:22:9c:54:52:89:25:57:01:
                    3a:d7:1c:58:73:1f:c9:86:72:cf:22:61:9f:88:ef:
                    e0:9a:1e:6c:21:5f:4e:b5:a4:18:69:f8:ee:36:aa:
                    e4:e3:5d:25:58:28:5f:e0:33:6d:59:d9:f0:8a:d4:
                    76:9d:64:d7:e2:f5:9c:d4:61:db:5b:6a:fd:c0:78:
                    30:66:06:45:81:33:4b:dc:10:c0:5a:ea:05:51:a3:
                    56:08:02:c0:df:22:86:3c:31:74:28:55:f8:b4:78:
                    08:85:d2:2b:cf:b7:a7:7b:b0:1b:3c:0c:74:ed:ee:
                    3b:08:8b:81:c8:9f:8a:dc:f0:a1:f7:97:88:a5:c9:
                    f1:df:a6:88:7e:dc:5d:b3:1d:f3:94:a0:c4:bb:41:
                    78:9b:62:35:e1:7d:a3:d7:28:17:80:19:49:82:46:
                    db:81:d4:4f:65:85:07:e7:98:6a:89:68:e5:24:f2:
                    d4:a4:d3:a6:51:65:f9:f9:36:64:07:d8:18:07:84:
                    7b:3b:76:4a:43:98:f4:83:7f:c1:87:78:69:c9:7f:
                    ba:9c:a9:42:04:5d:87:98:8b:ad:d7:68:93:0d:0b:
                    95:d6:66:6a:86:e2:f0:80:b7:f5:52:d8:f7:8e:b8:
                    43:4c:b1:cb:9a:60:c3:5e:72:41:13:b8:06:9f:c6:
                    76:1e:6f:30:4f:37:76:6e:01:28:bb:21:bb:a4:08:
                    14:ce:d7:58:0e:bd:57:4d:02:d3:88:98:ad:0a:49:
                    b5:80:4a:fe:7f:02:8b:ce:16:84:02:84:97:4d:13:
                    1e:c8:17:62:44:5e:af:35:a8:8c:7e:a8:a4:c3:48:
                    09:6e:dd:6f:e5:97:c5:f0:a9:15:17:3e:53:2e:f2:
                    19:50:cf:54:01:95:bd:18:39:d4:02:72:3e:e1:f1:
                    ff:5f:c8:10:1e:17:65:3e:4d:b1:c0:79:22:d4:d7:
                    e9:6d:3b:d5:90:65:2c:4c:aa:ab:a0:c0:3f:09:b6:
                    09:1f:a8:39:66:0d:2e:62:1c:ba:b8:91:bd:2f:33:
                    4d:0c:01:dc:f6:4f:2d:60:66:ba:6b:9f:fb:de:96:
                    9b:cc:a3:74:ee:b4:8c:56:b1:35:cd:d2:37:c8:d2:
                    12:b3:30:2c:d6:c6:2a:e0:74:69:fd:fa:d2:c7:6b:
                    aa:1a:c2:04:45:62:ad:b8:90:f6:05:56:fe:0f:51:
                    0e:7c:f2:67:3e:35:39:09:9d:05:3c:9d:91:0b:0b:
                    38:e0:fb:7a:15:59:80:74:44:a3:94:fa:7a:77:f3:
                    e8:cd:cc:fa:58:28:fb:d8:14:f9:a1:88:17:fd:2f:
                    28:86:b3:d3:7d:37:87:91:52:6d:ad:b9:d1:10:e1:
                    02:5c:67
                Exponent: 65537 (0x10001)
        X509v3 extensions:
            X509v3 Basic Constraints: 
                CA:FALSE
            Netscape Comment: 
                Easy-RSA Generated Certificate
            X509v3 Subject Key Identifier: 
                D5:CB:D0:EE:8A:61:AD:D8:92:C0:3E:46:8D:6C:A5:F1:E6:B6:A9:84
            X509v3 Authority Key Identifier: 
                keyid:12:CD:60:04:D2:A0:80:9E:70:ED:C6:99:B8:7B:2C:C6:52:FD:19:A1
                DirName:/C=US/ST=OH/L=Columbus/O=VikingVPN/OU=MyOrganizationalUnit/CN=VikingVPN CA/name=EasyRSA/emailAddress=me@myhost.mydomain
                serial:CF:35:85:EE:80:BF:2A:3E

            X509v3 Extended Key Usage: 
                TLS Web Client Authentication
            X509v3 Key Usage: 
                Digital Signature
    Signature Algorithm: md5WithRSAEncryption
         3a:82:b6:59:46:6d:e5:89:7a:f5:b3:ee:31:ca:5b:3f:84:ee:
         eb:1a:a6:72:f9:6f:74:6b:2b:c1:4e:82:de:bf:1a:40:21:f1:
         7f:fc:56:2f:b5:25:bf:07:ce:5e:5d:83:7a:0d:45:cb:5c:f8:
         1d:69:00:68:19:4b:05:96:72:dc:a6:cc:63:d4:08:71:cc:9e:
         01:ca:be:1a:20:20:1f:88:bd:cb:58:ad:81:2b:65:c4:7e:bc:
         a3:6d:6b:dc:dd:15:3d:98:64:ad:17:29:a5:b3:3a:72:ab:a6:
         fc:5c:34:d4:51:4c:b6:6e:17:47:16:d2:62:c3:1b:22:f2:4d:
         a3:de:dd:12:ae:2a:00:f7:6d:02:a9:22:1a:f0:63:72:cd:7e:
         9f:26:ae:5b:f9:60:7b:7d:f1:09:bf:b9:95:29:31:4c:6a:cd:
         8b:b7:07:17:5a:c1:ce:3a:ac:8e:03:7e:ba:f8:f3:86:61:36:
         16:d4:82:38:17:13:30:0f:12:12:be:d7:23:5a:7e:9c:7e:63:
         0d:0d:76:3c:df:47:f7:16:78:fd:37:3a:90:3e:75:86:88:56:
         ec:02:43:be:84:c5:19:85:09:dc:c1:58:3d:b9:a3:0f:0c:cf:
         f0:d3:5d:21:e7:0f:fa:6d:01:9a:45:27:bf:bc:45:2e:44:19:
         5c:ad:67:95:0a:f1:0e:94:8a:8b:33:a8:82:93:ff:7d:59:e9:
         33:7e:ed:fd:e8:0c:11:c8:cc:88:8a:6a:27:de:83:08:bb:7b:
         54:c2:92:5b:8d:91:f3:35:ac:b7:eb:fe:c2:f2:24:69:68:1b:
         17:4c:e3:61:a6:fe:dc:36:91:e8:7c:42:ab:83:87:8f:44:0d:
         8b:51:18:5e:9a:62:d9:fb:3a:e5:a8:78:41:a7:94:7d:07:a5:
         be:69:a9:fd:95:43:04:28:a3:8c:fc:53:a5:34:e0:13:e8:89:
         ee:74:34:85:00:b7:8c:90:fc:75:ec:ca:9e:94:fc:c3:aa:be:
         42:47:d8:8a:f0:8e:60:7f:20:a2:ef:1c:54:80:a7:aa:01:80:
         26:cf:9e:69:89:35:f0:3b:3f:92:af:f9:97:e5:52:58:60:95:
         f1:48:95:5c:d4:f6:1c:87:75:12:79:35:73:19:cb:ef:e6:3d:
         7a:91:a7:b5:fe:d5:30:49:d1:c8:e2:e6:df:b1:03:aa:f2:1d:
         5d:b3:7b:ef:91:5b:93:e4:d2:5c:7d:ec:83:cb:df:a1:0a:1c:
         ae:9e:4f:c2:4c:73:8c:6a:df:af:66:72:d0:a6:b4:5c:8c:bf:
         61:5a:99:ef:aa:bd:2b:c1:0a:90:37:ff:70:df:7b:39:42:5c:
         bc:61:e2:c0:ca:04:e7:c8
-----BEGIN CERTIFICATE-----
MIIGrTCCBJWgAwIBAgICGMQwDQYJKoZIhvcNAQEEBQAwgawxCzAJBgNVBAYTAlVT
MQswCQYDVQQIEwJPSDERMA8GA1UEBxMIQ29sdW1idXMxEjAQBgNVBAoTCVZpa2lu
Z1ZQTjEdMBsGA1UECxMUTXlPcmdhbml6YXRpb25hbFVuaXQxFTATBgNVBAMTDFZp
a2luZ1ZQTiBDQTEQMA4GA1UEKRMHRWFzeVJTQTEhMB8GCSqGSIb3DQEJARYSbWVA
bXlob3N0Lm15ZG9tYWluMB4XDTE1MDkyMzE4MjIzOVoXDTI1MDkyMDE4MjIzOVow
HzEdMBsGA1UEAxMUQ2xpZW50MTk3MENlcnQwMDUwNWQwggIiMA0GCSqGSIb3DQEB
AQUAA4ICDwAwggIKAoICAQDtCVrKDaQinFRSiSVXATrXHFhzH8mGcs8iYZ+I7+Ca
HmwhX061pBhp+O42quTjXSVYKF/gM21Z2fCK1HadZNfi9ZzUYdtbav3AeDBmBkWB
M0vcEMBa6gVRo1YIAsDfIoY8MXQoVfi0eAiF0ivPt6d7sBs8DHTt7jsIi4HIn4rc
8KH3l4ilyfHfpoh+3F2zHfOUoMS7QXibYjXhfaPXKBeAGUmCRtuB1E9lhQfnmGqJ
aOUk8tSk06ZRZfn5NmQH2BgHhHs7dkpDmPSDf8GHeGnJf7qcqUIEXYeYi63XaJMN
C5XWZmqG4vCAt/VS2PeOuENMscuaYMNeckETuAafxnYebzBPN3ZuASi7IbukCBTO
11gOvVdNAtOImK0KSbWASv5/AovOFoQChJdNEx7IF2JEXq81qIx+qKTDSAlu3W/l
l8XwqRUXPlMu8hlQz1QBlb0YOdQCcj7h8f9fyBAeF2U+TbHAeSLU1+ltO9WQZSxM
qqugwD8JtgkfqDlmDS5iHLq4kb0vM00MAdz2Ty1gZrprn/velpvMo3TutIxWsTXN
0jfI0hKzMCzWxirgdGn9+tLHa6oawgRFYq24kPYFVv4PUQ588mc+NTkJnQU8nZEL
Czjg+3oVWYB0RKOU+np38+jNzPpYKPvYFPmhiBf9LyiGs9N9N4eRUm2tudEQ4QJc
ZwIDAQABo4IBYzCCAV8wCQYDVR0TBAIwADAtBglghkgBhvhCAQ0EIBYeRWFzeS1S
U0EgR2VuZXJhdGVkIENlcnRpZmljYXRlMB0GA1UdDgQWBBTVy9DuimGt2JLAPkaN
bKXx5raphDCB4QYDVR0jBIHZMIHWgBQSzWAE0qCAnnDtxpm4eyzGUv0ZoaGBsqSB
rzCBrDELMAkGA1UEBhMCVVMxCzAJBgNVBAgTAk9IMREwDwYDVQQHEwhDb2x1bWJ1
czESMBAGA1UEChMJVmlraW5nVlBOMR0wGwYDVQQLExRNeU9yZ2FuaXphdGlvbmFs
VW5pdDEVMBMGA1UEAxMMVmlraW5nVlBOIENBMRAwDgYDVQQpEwdFYXN5UlNBMSEw
HwYJKoZIhvcNAQkBFhJtZUBteWhvc3QubXlkb21haW6CCQDPNYXugL8qPjATBgNV
HSUEDDAKBggrBgEFBQcDAjALBgNVHQ8EBAMCB4AwDQYJKoZIhvcNAQEEBQADggIB
ADqCtllGbeWJevWz7jHKWz+E7usapnL5b3RrK8FOgt6/GkAh8X/8Vi+1Jb8Hzl5d
g3oNRctc+B1pAGgZSwWWctymzGPUCHHMngHKvhogIB+IvctYrYErZcR+vKNta9zd
FT2YZK0XKaWzOnKrpvxcNNRRTLZuF0cW0mLDGyLyTaPe3RKuKgD3bQKpIhrwY3LN
fp8mrlv5YHt98Qm/uZUpMUxqzYu3Bxdawc46rI4Dfrr484ZhNhbUgjgXEzAPEhK+
1yNafpx+Yw0NdjzfR/cWeP03OpA+dYaIVuwCQ76ExRmFCdzBWD25ow8Mz/DTXSHn
D/ptAZpFJ7+8RS5EGVytZ5UK8Q6UioszqIKT/31Z6TN+7f3oDBHIzIiKaifegwi7
e1TCkluNkfM1rLfr/sLyJGloGxdM42Gm/tw2keh8QquDh49EDYtRGF6aYtn7OuWo
eEGnlH0Hpb5pqf2VQwQoo4z8U6U04BPoie50NIUAt4yQ/HXsyp6U/MOqvkJH2Irw
jmB/IKLvHFSAp6oBgCbPnmmJNfA7P5Kv+ZflUlhglfFIlVzU9hyHdRJ5NXMZy+/m
PXqRp7X+1TBJ0cji5t+xA6ryHV2ze++RW5Pk0lx97IPL36EKHK6eT8JMc4xq369m
ctCmtFyMv2Fame+qvSvBCpA3/3DfezlCXLxh4sDKBOfI
-----END CERTIFICATE-----
