Certificate:
    Data:
        Version: 3 (0x2)
        Serial Number: 6343 (0x18c7)
    Signature Algorithm: md5WithRSAEncryption
        Issuer: C=US, ST=OH, L=Columbus, O=VikingVPN, OU=MyOrganizationalUnit, CN=VikingVPN CA/name=EasyRSA/emailAddress=me@myhost.mydomain
        Validity
            Not Before: Sep 24 16:14:14 2015 GMT
            Not After : Sep 21 16:14:14 2025 GMT
        Subject: CN=Client973Certcc6a15
        Subject Public Key Info:
            Public Key Algorithm: rsaEncryption
                Public-Key: (4096 bit)
                Modulus:
                    00:a9:bc:17:7c:39:53:5c:14:6c:72:a8:b5:52:05:
                    e3:35:9b:de:fe:b5:e7:da:0b:bd:e3:a7:e8:35:b4:
                    01:22:81:91:0c:16:82:16:15:87:b1:f0:b8:e8:fe:
                    cf:81:00:c0:6d:6f:53:79:7f:45:9b:da:73:f9:07:
                    32:ba:a1:4e:c9:62:e8:b3:4f:d5:64:2c:49:85:f9:
                    27:1f:f4:79:9d:b7:e8:c9:25:71:7a:20:7e:ce:4a:
                    fa:e2:43:60:c3:3d:22:0e:ad:21:e7:b8:d4:f2:73:
                    81:2a:df:c0:7a:a4:16:0e:b6:14:ef:e5:67:14:5d:
                    80:fa:77:14:5e:44:a9:1a:00:7c:26:56:5d:45:99:
                    ee:b8:70:14:8a:ac:e4:dc:cc:08:16:9a:68:c1:52:
                    ae:b0:13:3b:6b:6f:00:4e:44:ab:5b:fa:90:33:79:
                    8c:b5:cc:05:c9:19:7d:1f:74:4a:c9:2d:b5:22:2f:
                    75:40:09:11:60:35:1e:84:d4:5a:c5:27:ac:30:1e:
                    3f:d4:17:a0:d3:d4:6d:a2:f2:78:51:c4:46:76:30:
                    c7:00:7b:03:f8:88:86:2e:41:e0:d5:b1:0f:79:bc:
                    25:8a:ae:93:5b:78:40:0c:92:ea:8d:d6:59:e1:f0:
                    ea:8c:02:bf:ae:6a:6f:f0:7e:a7:0c:e6:44:df:a8:
                    e3:e0:99:2c:6b:58:67:77:5f:55:b0:d3:8a:51:9b:
                    98:d5:bd:e1:fc:a6:0f:08:5f:ab:f6:ad:4f:72:b2:
                    f4:e4:33:b8:9f:a5:3d:a1:f9:c4:11:a2:71:d3:ba:
                    0e:5e:a5:e3:0a:dd:da:c8:a2:60:ed:9c:02:5b:0f:
                    ea:bc:44:91:4e:a5:56:d1:b3:e8:b9:58:52:10:51:
                    7a:0e:67:50:be:d4:ac:c3:61:f5:36:0e:9f:c2:ad:
                    6b:fa:aa:68:aa:f7:21:7d:ef:3e:a3:52:a2:93:b4:
                    ee:10:f1:b5:8b:92:b9:36:45:1a:69:11:58:13:a6:
                    ff:94:7d:b0:b5:d0:42:56:94:80:09:6d:8c:76:26:
                    c7:d3:c8:a0:9f:ea:f8:d0:c9:c7:14:e2:2c:d8:b3:
                    94:ca:ad:cc:fa:68:fe:96:6f:e2:8e:0e:20:de:b3:
                    ee:3b:11:6c:7c:d8:86:b7:5e:d9:24:31:38:8f:f2:
                    e7:53:1f:e7:3d:56:23:6d:bc:92:29:87:2a:2e:6e:
                    6a:0d:33:91:39:44:dc:b2:9b:6e:a6:85:0e:8a:9a:
                    a7:0d:7e:38:ed:4d:d1:ba:10:3c:70:e6:dd:f9:53:
                    9b:c8:62:5c:ef:d8:73:3f:2d:5e:4b:e0:46:33:ca:
                    d8:87:62:e1:69:c9:bc:53:59:90:0e:9a:26:56:11:
                    22:0e:7b
                Exponent: 65537 (0x10001)
        X509v3 extensions:
            X509v3 Basic Constraints: 
                CA:FALSE
            Netscape Comment: 
                Easy-RSA Generated Certificate
            X509v3 Subject Key Identifier: 
                F7:26:A5:08:0C:4C:54:43:03:F7:32:3F:25:BD:6C:D0:5D:39:58:DF
            X509v3 Authority Key Identifier: 
                keyid:12:CD:60:04:D2:A0:80:9E:70:ED:C6:99:B8:7B:2C:C6:52:FD:19:A1
                DirName:/C=US/ST=OH/L=Columbus/O=VikingVPN/OU=MyOrganizationalUnit/CN=VikingVPN CA/name=EasyRSA/emailAddress=me@myhost.mydomain
                serial:CF:35:85:EE:80:BF:2A:3E

            X509v3 Extended Key Usage: 
                TLS Web Client Authentication
            X509v3 Key Usage: 
                Digital Signature
    Signature Algorithm: md5WithRSAEncryption
         2a:7c:37:fe:98:48:77:4d:82:93:e6:a0:66:0d:a4:08:3c:c5:
         81:87:b5:e9:97:cc:c6:6f:83:18:cd:60:2b:3f:1c:18:d7:77:
         a9:df:52:a0:13:ca:fb:0f:ee:9e:00:5d:ce:17:21:86:e0:12:
         11:54:7f:c4:74:b3:2f:c4:82:61:b3:9b:7b:6a:ba:48:f9:7c:
         49:ec:f2:4f:dc:34:60:3a:24:ac:e6:f1:9f:af:0a:60:b1:1e:
         9a:1c:ef:86:8b:8b:a5:18:ba:c5:91:40:61:07:6d:b6:42:ac:
         dc:fc:80:4b:04:9e:aa:27:5a:65:9a:35:72:fe:d4:d8:0c:00:
         89:76:05:ff:ea:f0:89:c2:b5:67:7b:a2:a0:a3:36:4d:bf:82:
         95:88:44:1e:54:42:51:31:7b:23:c1:95:3c:a5:60:23:22:32:
         ec:6c:89:b1:64:0c:ce:6a:be:14:ce:cd:48:fb:d2:d6:27:ac:
         52:08:6a:94:95:16:ba:65:ab:9d:cc:f9:fa:e3:21:d5:5b:76:
         5c:e2:e3:4f:99:45:ad:b4:3a:7a:22:6a:f3:94:69:3b:ef:4f:
         16:b5:e7:b2:8d:4e:c3:2e:ce:09:e1:57:5c:9a:22:20:c9:f8:
         1a:2f:38:82:d5:ed:02:e6:19:73:ca:6b:50:fe:0d:99:b8:d5:
         62:03:44:0e:72:59:c4:a6:d6:42:e6:d1:26:c7:27:f6:d2:8a:
         cb:8a:41:5c:85:1f:4e:63:6b:ff:31:87:92:11:2e:85:d7:6d:
         53:0b:14:79:1c:0e:04:e6:47:53:22:03:74:40:c4:b7:56:8b:
         f8:77:38:ae:3f:b1:36:01:65:26:ff:6d:1f:26:15:ff:6e:7a:
         6c:0d:ac:7c:00:53:09:1c:3c:be:6b:9d:b2:6b:9c:e1:cd:a9:
         b6:00:c9:89:91:bf:63:02:69:c9:3c:87:fa:b2:dd:34:75:ce:
         f2:60:d0:a6:22:51:a1:f3:e0:b7:64:2a:e4:a2:13:2b:5f:4a:
         f0:c5:0b:85:b1:de:d3:78:d6:1c:79:57:9f:28:2c:94:71:12:
         32:c6:49:a4:dd:82:ff:eb:c2:87:23:eb:c6:39:39:36:77:df:
         cb:b3:df:09:e5:33:f4:08:b9:48:3e:1c:e1:2f:6a:d3:5c:22:
         64:7a:f3:70:6c:4c:dd:c4:b1:d5:d5:df:00:c5:da:19:ed:fe:
         d4:ba:53:20:c2:15:27:5d:21:27:c4:05:bf:3b:1a:a7:d8:4c:
         3b:fd:c4:4d:3c:3a:40:29:a6:0d:90:04:d8:96:8a:be:66:fc:
         89:b6:4e:f4:fb:3f:c6:05:de:28:0b:fe:01:a2:31:d5:90:c9:
         fc:c7:db:5c:2d:78:9a:11
-----BEGIN CERTIFICATE-----
MIIGrDCCBJSgAwIBAgICGMcwDQYJKoZIhvcNAQEEBQAwgawxCzAJBgNVBAYTAlVT
MQswCQYDVQQIEwJPSDERMA8GA1UEBxMIQ29sdW1idXMxEjAQBgNVBAoTCVZpa2lu
Z1ZQTjEdMBsGA1UECxMUTXlPcmdhbml6YXRpb25hbFVuaXQxFTATBgNVBAMTDFZp
a2luZ1ZQTiBDQTEQMA4GA1UEKRMHRWFzeVJTQTEhMB8GCSqGSIb3DQEJARYSbWVA
bXlob3N0Lm15ZG9tYWluMB4XDTE1MDkyNDE2MTQxNFoXDTI1MDkyMTE2MTQxNFow
HjEcMBoGA1UEAxMTQ2xpZW50OTczQ2VydGNjNmExNTCCAiIwDQYJKoZIhvcNAQEB
BQADggIPADCCAgoCggIBAKm8F3w5U1wUbHKotVIF4zWb3v6159oLveOn6DW0ASKB
kQwWghYVh7HwuOj+z4EAwG1vU3l/RZvac/kHMrqhTsli6LNP1WQsSYX5Jx/0eZ23
6MklcXogfs5K+uJDYMM9Ig6tIee41PJzgSrfwHqkFg62FO/lZxRdgPp3FF5EqRoA
fCZWXUWZ7rhwFIqs5NzMCBaaaMFSrrATO2tvAE5Eq1v6kDN5jLXMBckZfR90Sskt
tSIvdUAJEWA1HoTUWsUnrDAeP9QXoNPUbaLyeFHERnYwxwB7A/iIhi5B4NWxD3m8
JYquk1t4QAyS6o3WWeHw6owCv65qb/B+pwzmRN+o4+CZLGtYZ3dfVbDTilGbmNW9
4fymDwhfq/atT3Ky9OQzuJ+lPaH5xBGicdO6Dl6l4wrd2siiYO2cAlsP6rxEkU6l
VtGz6LlYUhBReg5nUL7UrMNh9TYOn8Kta/qqaKr3IX3vPqNSopO07hDxtYuSuTZF
GmkRWBOm/5R9sLXQQlaUgAltjHYmx9PIoJ/q+NDJxxTiLNizlMqtzPpo/pZv4o4O
IN6z7jsRbHzYhrde2SQxOI/y51Mf5z1WI228kimHKi5uag0zkTlE3LKbbqaFDoqa
pw1+OO1N0boQPHDm3flTm8hiXO/Ycz8tXkvgRjPK2Idi4WnJvFNZkA6aJlYRIg57
AgMBAAGjggFjMIIBXzAJBgNVHRMEAjAAMC0GCWCGSAGG+EIBDQQgFh5FYXN5LVJT
QSBHZW5lcmF0ZWQgQ2VydGlmaWNhdGUwHQYDVR0OBBYEFPcmpQgMTFRDA/cyPyW9
bNBdOVjfMIHhBgNVHSMEgdkwgdaAFBLNYATSoICecO3Gmbh7LMZS/RmhoYGypIGv
MIGsMQswCQYDVQQGEwJVUzELMAkGA1UECBMCT0gxETAPBgNVBAcTCENvbHVtYnVz
MRIwEAYDVQQKEwlWaWtpbmdWUE4xHTAbBgNVBAsTFE15T3JnYW5pemF0aW9uYWxV
bml0MRUwEwYDVQQDEwxWaWtpbmdWUE4gQ0ExEDAOBgNVBCkTB0Vhc3lSU0ExITAf
BgkqhkiG9w0BCQEWEm1lQG15aG9zdC5teWRvbWFpboIJAM81he6Avyo+MBMGA1Ud
JQQMMAoGCCsGAQUFBwMCMAsGA1UdDwQEAwIHgDANBgkqhkiG9w0BAQQFAAOCAgEA
Knw3/phId02Ck+agZg2kCDzFgYe16ZfMxm+DGM1gKz8cGNd3qd9SoBPK+w/ungBd
zhchhuASEVR/xHSzL8SCYbObe2q6SPl8SezyT9w0YDokrObxn68KYLEemhzvhouL
pRi6xZFAYQdttkKs3PyASwSeqidaZZo1cv7U2AwAiXYF/+rwicK1Z3uioKM2Tb+C
lYhEHlRCUTF7I8GVPKVgIyIy7GyJsWQMzmq+FM7NSPvS1iesUghqlJUWumWrncz5
+uMh1Vt2XOLjT5lFrbQ6eiJq85RpO+9PFrXnso1Owy7OCeFXXJoiIMn4Gi84gtXt
AuYZc8prUP4NmbjVYgNEDnJZxKbWQubRJscn9tKKy4pBXIUfTmNr/zGHkhEuhddt
UwsUeRwOBOZHUyIDdEDEt1aL+Hc4rj+xNgFlJv9tHyYV/256bA2sfABTCRw8vmud
smuc4c2ptgDJiZG/YwJpyTyH+rLdNHXO8mDQpiJRofPgt2Qq5KITK19K8MULhbHe
03jWHHlXnygslHESMsZJpN2C/+vChyPrxjk5Nnffy7PfCeUz9Ai5SD4c4S9q01wi
ZHrzcGxM3cSx1dXfAMXaGe3+1LpTIMIVJ10hJ8QFvzsap9hMO/3ETTw6QCmmDZAE
2JaKvmb8ibZO9Ps/xgXeKAv+AaIx1ZDJ/MfbXC14mhE=
-----END CERTIFICATE-----
