Certificate:
    Data:
        Version: 3 (0x2)
        Serial Number: 6345 (0x18c9)
    Signature Algorithm: md5WithRSAEncryption
        Issuer: C=US, ST=OH, L=Columbus, O=VikingVPN, OU=MyOrganizationalUnit, CN=VikingVPN CA/name=EasyRSA/emailAddress=me@myhost.mydomain
        Validity
            Not Before: Sep 24 20:09:34 2015 GMT
            Not After : Sep 21 20:09:34 2025 GMT
        Subject: CN=Client1972Cert8b4361
        Subject Public Key Info:
            Public Key Algorithm: rsaEncryption
                Public-Key: (4096 bit)
                Modulus:
                    00:a9:f7:7c:a3:3d:86:ab:f2:09:f1:99:09:55:00:
                    26:4a:e1:4e:b6:ed:01:f2:19:51:c7:2a:7f:dd:71:
                    07:ac:0f:d9:34:f1:cf:50:db:b1:44:49:7d:a7:16:
                    a9:13:50:cb:6c:bf:7c:50:10:fe:a4:06:38:cd:b4:
                    d3:ed:1c:c1:1a:27:ad:b1:f9:78:84:fb:f1:42:e6:
                    c2:bb:ad:84:ef:61:ae:63:b4:9e:2c:eb:b8:d9:42:
                    1f:6a:62:d3:ee:81:da:26:4d:11:d9:93:03:56:02:
                    2b:52:1b:90:52:0c:c0:f4:32:7e:d5:8c:be:08:4f:
                    df:2a:ff:53:dd:7f:0a:86:8e:36:f5:69:b6:c8:d4:
                    39:1e:c4:3e:1b:22:f7:a2:87:b3:4e:b8:14:fe:9b:
                    fd:b6:a3:44:18:d2:66:11:b8:40:97:ee:ab:54:8b:
                    2a:ae:6e:83:df:56:b6:51:b0:17:cd:41:a1:d5:db:
                    e9:2f:5a:60:c8:b5:26:30:ef:b6:9c:0f:ec:30:2c:
                    a6:60:b5:61:36:a3:f4:33:b7:ca:07:32:b9:15:be:
                    4c:a3:08:67:f9:79:ae:ac:4d:62:71:f0:25:b0:31:
                    86:22:62:88:f1:aa:57:df:dc:e8:f1:b1:7e:06:dd:
                    8d:e8:3b:d9:40:74:75:09:dc:45:42:87:3f:fb:9a:
                    8d:6d:ea:f6:d2:6e:e1:33:a2:2f:e1:4f:1a:50:3c:
                    23:75:64:f4:e0:72:8f:92:5b:60:e9:46:e4:a2:cb:
                    e9:cc:eb:aa:59:45:b4:ec:d2:2d:3c:24:31:63:d1:
                    f7:b2:63:95:b9:4e:83:f0:1e:7b:e2:c9:3e:0a:f4:
                    7a:27:7a:78:24:14:44:d8:06:52:b4:a8:5c:84:7c:
                    3a:54:cf:36:44:2b:8f:af:e8:67:c3:0b:14:b8:c8:
                    56:7b:9b:c4:32:85:b9:2b:44:02:e0:50:72:43:10:
                    d6:95:95:5f:cb:fd:94:59:2d:03:95:ab:14:c2:a4:
                    8e:c6:d3:d4:42:af:07:e3:6d:74:16:0e:24:b5:60:
                    00:49:ff:a4:de:15:5e:0f:95:5b:bb:88:05:82:05:
                    e3:59:33:86:13:13:29:ca:5c:34:83:4b:84:08:66:
                    9e:39:3b:4b:ba:a1:37:62:c3:7f:61:50:17:aa:72:
                    61:7d:84:64:9d:d5:d9:c2:0b:d5:d0:be:d5:38:83:
                    25:c1:e5:71:7b:25:50:1a:72:30:88:85:cf:da:bb:
                    03:1b:4f:32:d5:a4:3e:fd:66:f3:b6:dd:d6:fa:0b:
                    14:f6:b9:ef:12:2c:93:7a:2a:6d:14:5c:80:fb:81:
                    5f:b1:6c:53:ae:32:c2:f5:0b:d8:45:50:9a:36:1e:
                    f6:eb:4d
                Exponent: 65537 (0x10001)
        X509v3 extensions:
            X509v3 Basic Constraints: 
                CA:FALSE
            Netscape Comment: 
                Easy-RSA Generated Certificate
            X509v3 Subject Key Identifier: 
                E3:08:73:19:94:05:24:E8:03:47:0E:15:33:3C:C1:6E:DC:EE:45:B1
            X509v3 Authority Key Identifier: 
                keyid:12:CD:60:04:D2:A0:80:9E:70:ED:C6:99:B8:7B:2C:C6:52:FD:19:A1
                DirName:/C=US/ST=OH/L=Columbus/O=VikingVPN/OU=MyOrganizationalUnit/CN=VikingVPN CA/name=EasyRSA/emailAddress=me@myhost.mydomain
                serial:CF:35:85:EE:80:BF:2A:3E

            X509v3 Extended Key Usage: 
                TLS Web Client Authentication
            X509v3 Key Usage: 
                Digital Signature
    Signature Algorithm: md5WithRSAEncryption
         bf:fe:4f:3c:ba:1a:a3:0a:62:28:f5:4d:75:43:28:4c:fe:4f:
         ca:b2:b6:7c:e9:c9:57:9b:ff:7a:72:cb:d7:27:e2:d3:3c:18:
         13:42:34:42:2a:c9:75:0f:89:69:f5:7d:34:bb:b1:a3:db:a5:
         ae:f6:2e:02:65:f7:b8:18:36:f4:69:e3:2b:a1:21:2e:08:91:
         4b:4e:13:b6:cc:0b:b1:f7:be:99:9d:0e:dc:91:c0:06:d3:15:
         09:7a:8b:c0:ed:8c:4f:fd:11:69:99:b8:c6:2b:11:74:c1:2d:
         37:9d:42:c3:dc:f7:46:77:52:a3:bb:b6:96:df:4b:37:b8:91:
         4d:7f:2c:f3:c7:9c:6e:5e:8a:8e:76:82:78:ba:a5:01:18:ec:
         eb:45:b3:6a:d6:e0:b3:15:bd:01:59:ae:ce:d2:29:2e:0b:ce:
         c6:5d:e6:ab:96:ce:a4:87:1c:95:c0:3a:dc:12:89:84:2a:76:
         4e:0e:a8:21:74:a8:cf:71:27:d8:ea:63:17:63:3e:e6:8f:60:
         3c:3b:99:46:e5:7f:8f:55:68:01:fc:19:e2:aa:2b:8b:ad:01:
         28:01:75:4d:01:73:3a:ad:80:c6:ed:36:1f:23:9d:4c:23:51:
         4c:0e:a0:80:99:6f:47:6b:b6:cb:b0:80:b4:05:11:2d:82:c4:
         f5:1d:9b:fd:a6:25:5d:0f:88:5b:29:b9:3e:31:73:28:a6:18:
         97:92:4e:ec:26:77:68:b9:25:2a:af:cc:2a:a5:37:1c:4c:96:
         2e:9f:fd:04:b8:05:7b:8c:dd:e8:56:9d:66:e0:28:7e:6c:ab:
         0e:bc:28:b2:3a:6e:46:9c:27:8b:19:8e:9f:78:b9:08:03:45:
         4e:a4:a2:cf:60:c9:03:73:7b:93:4d:a3:42:26:03:24:70:0b:
         4c:55:77:4e:f5:26:78:a5:2e:59:a9:6c:23:ed:3b:29:3c:03:
         6c:cb:76:34:25:d9:6b:9e:cd:76:5f:3f:17:43:63:a7:33:8a:
         cf:7a:e0:bd:0c:99:79:b3:d2:50:ab:71:db:ac:e3:cd:f5:03:
         c9:df:22:23:b4:c9:25:3c:5a:7d:5e:11:4c:18:fb:9f:fc:21:
         c6:37:a6:0c:26:20:7b:36:18:67:53:ca:1b:2c:15:69:cc:f4:
         3f:c1:62:65:ea:06:9e:8f:6c:1a:dd:41:38:10:f8:00:9d:98:
         69:a0:0d:ae:1b:2c:1b:74:35:ae:64:71:2b:aa:6f:19:9e:5b:
         33:f7:cc:f3:9b:e9:52:0b:d7:13:a2:9b:ad:c2:b8:5e:a5:99:
         99:16:1d:5d:88:81:78:5e:6b:ce:a7:86:ba:30:70:4b:6f:07:
         cb:47:e7:22:a1:f1:36:6c
-----BEGIN CERTIFICATE-----
MIIGrTCCBJWgAwIBAgICGMkwDQYJKoZIhvcNAQEEBQAwgawxCzAJBgNVBAYTAlVT
MQswCQYDVQQIEwJPSDERMA8GA1UEBxMIQ29sdW1idXMxEjAQBgNVBAoTCVZpa2lu
Z1ZQTjEdMBsGA1UECxMUTXlPcmdhbml6YXRpb25hbFVuaXQxFTATBgNVBAMTDFZp
a2luZ1ZQTiBDQTEQMA4GA1UEKRMHRWFzeVJTQTEhMB8GCSqGSIb3DQEJARYSbWVA
bXlob3N0Lm15ZG9tYWluMB4XDTE1MDkyNDIwMDkzNFoXDTI1MDkyMTIwMDkzNFow
HzEdMBsGA1UEAxMUQ2xpZW50MTk3MkNlcnQ4YjQzNjEwggIiMA0GCSqGSIb3DQEB
AQUAA4ICDwAwggIKAoICAQCp93yjPYar8gnxmQlVACZK4U627QHyGVHHKn/dcQes
D9k08c9Q27FESX2nFqkTUMtsv3xQEP6kBjjNtNPtHMEaJ62x+XiE+/FC5sK7rYTv
Ya5jtJ4s67jZQh9qYtPugdomTRHZkwNWAitSG5BSDMD0Mn7VjL4IT98q/1PdfwqG
jjb1abbI1DkexD4bIveih7NOuBT+m/22o0QY0mYRuECX7qtUiyquboPfVrZRsBfN
QaHV2+kvWmDItSYw77acD+wwLKZgtWE2o/Qzt8oHMrkVvkyjCGf5ea6sTWJx8CWw
MYYiYojxqlff3OjxsX4G3Y3oO9lAdHUJ3EVChz/7mo1t6vbSbuEzoi/hTxpQPCN1
ZPTgco+SW2DpRuSiy+nM66pZRbTs0i08JDFj0feyY5W5ToPwHnviyT4K9Honengk
FETYBlK0qFyEfDpUzzZEK4+v6GfDCxS4yFZ7m8QyhbkrRALgUHJDENaVlV/L/ZRZ
LQOVqxTCpI7G09RCrwfjbXQWDiS1YABJ/6TeFV4PlVu7iAWCBeNZM4YTEynKXDSD
S4QIZp45O0u6oTdiw39hUBeqcmF9hGSd1dnCC9XQvtU4gyXB5XF7JVAacjCIhc/a
uwMbTzLVpD79ZvO23db6CxT2ue8SLJN6Km0UXID7gV+xbFOuMsL1C9hFUJo2Hvbr
TQIDAQABo4IBYzCCAV8wCQYDVR0TBAIwADAtBglghkgBhvhCAQ0EIBYeRWFzeS1S
U0EgR2VuZXJhdGVkIENlcnRpZmljYXRlMB0GA1UdDgQWBBTjCHMZlAUk6ANHDhUz
PMFu3O5FsTCB4QYDVR0jBIHZMIHWgBQSzWAE0qCAnnDtxpm4eyzGUv0ZoaGBsqSB
rzCBrDELMAkGA1UEBhMCVVMxCzAJBgNVBAgTAk9IMREwDwYDVQQHEwhDb2x1bWJ1
czESMBAGA1UEChMJVmlraW5nVlBOMR0wGwYDVQQLExRNeU9yZ2FuaXphdGlvbmFs
VW5pdDEVMBMGA1UEAxMMVmlraW5nVlBOIENBMRAwDgYDVQQpEwdFYXN5UlNBMSEw
HwYJKoZIhvcNAQkBFhJtZUBteWhvc3QubXlkb21haW6CCQDPNYXugL8qPjATBgNV
HSUEDDAKBggrBgEFBQcDAjALBgNVHQ8EBAMCB4AwDQYJKoZIhvcNAQEEBQADggIB
AL/+Tzy6GqMKYij1TXVDKEz+T8qytnzpyVeb/3pyy9cn4tM8GBNCNEIqyXUPiWn1
fTS7saPbpa72LgJl97gYNvRp4yuhIS4IkUtOE7bMC7H3vpmdDtyRwAbTFQl6i8Dt
jE/9EWmZuMYrEXTBLTedQsPc90Z3UqO7tpbfSze4kU1/LPPHnG5eio52gni6pQEY
7OtFs2rW4LMVvQFZrs7SKS4LzsZd5quWzqSHHJXAOtwSiYQqdk4OqCF0qM9xJ9jq
YxdjPuaPYDw7mUblf49VaAH8GeKqK4utASgBdU0BczqtgMbtNh8jnUwjUUwOoICZ
b0drtsuwgLQFES2CxPUdm/2mJV0PiFspuT4xcyimGJeSTuwmd2i5JSqvzCqlNxxM
li6f/QS4BXuM3ehWnWbgKH5sqw68KLI6bkacJ4sZjp94uQgDRU6kos9gyQNze5NN
o0ImAyRwC0xVd071JnilLlmpbCPtOyk8A2zLdjQl2WuezXZfPxdDY6czis964L0M
mXmz0lCrcdus4831A8nfIiO0ySU8Wn1eEUwY+5/8IcY3pgwmIHs2GGdTyhssFWnM
9D/BYmXqBp6PbBrdQTgQ+ACdmGmgDa4bLBt0Na5kcSuqbxmeWzP3zPOb6VIL1xOi
m63CuF6lmZkWHV2IgXhea86nhrowcEtvB8tH5yKh8TZs
-----END CERTIFICATE-----
