Certificate:
    Data:
        Version: 3 (0x2)
        Serial Number: 6346 (0x18ca)
    Signature Algorithm: md5WithRSAEncryption
        Issuer: C=US, ST=OH, L=Columbus, O=VikingVPN, OU=MyOrganizationalUnit, CN=VikingVPN CA/name=EasyRSA/emailAddress=me@myhost.mydomain
        Validity
            Not Before: Sep 24 23:12:36 2015 GMT
            Not After : Sep 21 23:12:36 2025 GMT
        Subject: CN=Client1971Cert480621
        Subject Public Key Info:
            Public Key Algorithm: rsaEncryption
                Public-Key: (4096 bit)
                Modulus:
                    00:d9:71:fb:ae:9c:ff:58:a0:61:09:37:1c:5a:06:
                    7b:25:bb:a2:e1:be:ca:11:13:41:e4:c8:1a:6d:80:
                    b8:21:ad:a8:4a:5c:3d:d6:68:51:86:1e:18:46:bf:
                    87:18:f4:68:df:f2:b9:5b:64:58:4b:17:84:e4:e0:
                    27:72:1b:d2:2a:23:0b:bc:c9:06:cf:d8:e7:99:e4:
                    33:b0:d5:50:15:9e:a3:35:73:88:5a:62:ea:0a:d0:
                    70:80:70:7f:21:e9:4b:e2:6a:3e:c5:c1:62:2b:e4:
                    08:a7:9b:43:e0:01:12:76:77:40:09:93:c9:79:cd:
                    d9:02:5c:be:2d:65:9e:36:74:a0:6f:0d:f3:9e:7a:
                    01:43:9c:d2:b6:05:48:01:20:9d:79:04:cf:23:74:
                    58:98:32:17:17:8d:6b:1c:90:2a:c1:b2:dd:7b:4e:
                    4d:91:c9:cf:a1:e6:90:31:10:92:be:d4:a6:fa:91:
                    42:f9:be:1d:5b:26:35:0c:04:2f:b3:10:8c:c8:91:
                    23:25:03:f4:60:e5:dc:89:62:9b:83:76:5f:25:aa:
                    8b:81:f3:62:ac:96:bb:a9:09:27:6a:e3:b3:46:a2:
                    09:f8:19:03:9c:9d:4d:d5:bc:54:ff:d3:3b:aa:3b:
                    d7:70:5f:f7:cc:9b:ee:70:cd:ed:77:2d:f2:95:5b:
                    d3:d2:50:93:ae:75:2c:3b:02:db:36:00:43:e1:4e:
                    fa:f4:a8:2c:ff:22:1a:c7:20:8c:90:ef:20:53:17:
                    e0:90:68:bd:a1:35:03:ec:db:7d:0e:f7:b0:5e:73:
                    d8:52:53:d9:99:d1:f6:8f:20:8a:fb:07:04:18:71:
                    89:14:52:26:cd:28:e2:f2:13:f0:15:e8:36:ef:93:
                    56:13:26:6e:ce:2f:77:77:45:83:49:6b:8e:c6:15:
                    5c:e9:36:0a:16:c5:b1:83:31:f9:9b:5c:a2:a5:a8:
                    3a:8c:de:87:7a:85:6e:5b:10:54:54:f4:4f:26:e1:
                    42:fa:dc:f4:48:ce:25:6a:a0:56:3d:c2:0c:f5:24:
                    b8:0f:74:36:e5:6a:e7:18:60:0f:13:78:f5:9d:ee:
                    fc:9f:43:21:7e:ad:0a:1a:6e:dc:60:44:dc:30:b9:
                    70:72:30:30:49:c5:67:fe:5c:dc:60:9f:8b:f2:8a:
                    e3:f3:6a:b8:60:1c:bf:b9:b6:8c:1a:5c:72:4b:a5:
                    8a:d0:26:38:02:8c:1f:1e:54:38:bb:ab:b2:af:cc:
                    ed:51:ee:cc:dc:2c:65:28:65:0b:6c:a1:6f:27:82:
                    2d:6b:30:4e:63:59:1e:8d:ba:df:d6:8d:1b:4e:63:
                    42:02:29:29:7a:f8:02:ff:4b:c6:7b:7d:81:c7:f5:
                    3d:b1:95
                Exponent: 65537 (0x10001)
        X509v3 extensions:
            X509v3 Basic Constraints: 
                CA:FALSE
            Netscape Comment: 
                Easy-RSA Generated Certificate
            X509v3 Subject Key Identifier: 
                79:7C:D2:63:8C:8A:31:FE:47:E3:39:52:82:F4:55:D3:05:5F:5F:22
            X509v3 Authority Key Identifier: 
                keyid:12:CD:60:04:D2:A0:80:9E:70:ED:C6:99:B8:7B:2C:C6:52:FD:19:A1
                DirName:/C=US/ST=OH/L=Columbus/O=VikingVPN/OU=MyOrganizationalUnit/CN=VikingVPN CA/name=EasyRSA/emailAddress=me@myhost.mydomain
                serial:CF:35:85:EE:80:BF:2A:3E

            X509v3 Extended Key Usage: 
                TLS Web Client Authentication
            X509v3 Key Usage: 
                Digital Signature
    Signature Algorithm: md5WithRSAEncryption
         51:42:1f:b1:57:73:65:60:f9:43:51:bf:72:ca:83:75:12:8c:
         31:f0:bf:6e:d2:94:46:b9:b9:41:91:d1:6a:37:d8:28:d1:60:
         c0:4d:8f:a8:cc:b6:74:68:26:13:c0:e6:82:41:c0:0f:05:08:
         6c:17:81:35:cf:92:a6:cd:ab:f0:7d:69:f8:6b:01:d0:19:5f:
         8d:a1:d0:65:87:4f:6e:bd:9f:ca:92:a0:9a:f2:37:e0:ec:50:
         e5:a6:e6:3a:a6:e1:08:b6:fc:47:4b:79:9b:eb:49:e8:52:72:
         16:9f:71:31:16:fa:06:ca:23:4f:28:1b:a5:f7:f5:e0:81:63:
         80:49:3d:62:00:ae:fc:51:3c:da:41:48:9d:c9:01:e5:83:e6:
         17:a6:d1:17:75:f3:80:da:6c:77:e9:2c:ee:ab:5b:e6:d1:df:
         c6:c4:28:96:6c:9e:a8:24:37:9b:04:c8:f9:2a:bc:ea:eb:7c:
         f6:d1:e1:84:1b:32:c4:3e:0a:cc:ec:e2:d4:18:7c:a2:d7:6d:
         ec:a9:ea:a9:ca:96:5f:14:d6:20:c8:2b:ce:43:8e:a0:6d:cb:
         a9:62:01:e6:8a:f7:c6:cd:91:e5:a2:a4:6d:82:5f:0b:ff:98:
         ea:4c:97:a4:73:c0:a6:f9:45:5a:1a:02:8f:e7:45:ea:78:e9:
         8f:92:9a:4f:8f:32:6b:51:82:49:ea:3d:d5:6d:31:b5:01:fe:
         21:51:a8:7f:a7:f7:af:76:cf:af:73:03:c9:5b:b9:e6:e1:e9:
         ff:ae:c4:4a:24:8d:17:9c:b4:6b:ca:38:ea:d6:37:0a:99:c7:
         40:42:f0:05:37:ac:c9:a5:65:cc:9b:bb:0e:5e:46:6b:53:c9:
         c2:32:e9:18:67:14:54:9b:6b:7a:b7:7e:c8:50:c7:b6:6f:62:
         0e:4b:88:99:2a:32:84:91:5b:38:21:db:ed:ca:e7:97:db:99:
         06:86:63:27:7f:b4:27:3d:7b:67:ce:c2:5a:9e:52:f9:f5:9a:
         be:2c:62:77:58:94:65:a6:5e:82:fb:f0:63:34:eb:f2:eb:4d:
         9b:df:80:28:7a:6c:48:5b:5d:1d:30:60:df:69:80:3f:c5:76:
         f1:32:23:06:dd:fa:bf:ec:01:63:a5:94:a1:99:e9:97:95:a9:
         1b:50:65:5a:c5:65:2c:cd:c2:a9:60:47:96:9f:d8:6e:2f:09:
         a1:f5:b4:7c:ef:62:36:20:45:9e:66:91:b6:95:b8:17:12:0a:
         3e:4c:72:02:f3:06:87:49:1d:0e:9a:b1:45:8e:b8:22:57:70:
         f5:07:1d:db:66:4c:c0:5a:d2:76:e2:d2:9d:ec:54:45:1d:d6:
         1b:7d:17:3f:06:49:79:af
-----BEGIN CERTIFICATE-----
MIIGrTCCBJWgAwIBAgICGMowDQYJKoZIhvcNAQEEBQAwgawxCzAJBgNVBAYTAlVT
MQswCQYDVQQIEwJPSDERMA8GA1UEBxMIQ29sdW1idXMxEjAQBgNVBAoTCVZpa2lu
Z1ZQTjEdMBsGA1UECxMUTXlPcmdhbml6YXRpb25hbFVuaXQxFTATBgNVBAMTDFZp
a2luZ1ZQTiBDQTEQMA4GA1UEKRMHRWFzeVJTQTEhMB8GCSqGSIb3DQEJARYSbWVA
bXlob3N0Lm15ZG9tYWluMB4XDTE1MDkyNDIzMTIzNloXDTI1MDkyMTIzMTIzNlow
HzEdMBsGA1UEAxMUQ2xpZW50MTk3MUNlcnQ0ODA2MjEwggIiMA0GCSqGSIb3DQEB
AQUAA4ICDwAwggIKAoICAQDZcfuunP9YoGEJNxxaBnslu6LhvsoRE0HkyBptgLgh
rahKXD3WaFGGHhhGv4cY9Gjf8rlbZFhLF4Tk4CdyG9IqIwu8yQbP2OeZ5DOw1VAV
nqM1c4haYuoK0HCAcH8h6Uviaj7FwWIr5Ainm0PgARJ2d0AJk8l5zdkCXL4tZZ42
dKBvDfOeegFDnNK2BUgBIJ15BM8jdFiYMhcXjWsckCrBst17Tk2Ryc+h5pAxEJK+
1Kb6kUL5vh1bJjUMBC+zEIzIkSMlA/Rg5dyJYpuDdl8lqouB82KslrupCSdq47NG
ogn4GQOcnU3VvFT/0zuqO9dwX/fMm+5wze13LfKVW9PSUJOudSw7Ats2AEPhTvr0
qCz/IhrHIIyQ7yBTF+CQaL2hNQPs230O97Bec9hSU9mZ0faPIIr7BwQYcYkUUibN
KOLyE/AV6Dbvk1YTJm7OL3d3RYNJa47GFVzpNgoWxbGDMfmbXKKlqDqM3od6hW5b
EFRU9E8m4UL63PRIziVqoFY9wgz1JLgPdDblaucYYA8TePWd7vyfQyF+rQoabtxg
RNwwuXByMDBJxWf+XNxgn4vyiuPzarhgHL+5towaXHJLpYrQJjgCjB8eVDi7q7Kv
zO1R7szcLGUoZQtsoW8ngi1rME5jWR6Nut/WjRtOY0ICKSl6+AL/S8Z7fYHH9T2x
lQIDAQABo4IBYzCCAV8wCQYDVR0TBAIwADAtBglghkgBhvhCAQ0EIBYeRWFzeS1S
U0EgR2VuZXJhdGVkIENlcnRpZmljYXRlMB0GA1UdDgQWBBR5fNJjjIox/kfjOVKC
9FXTBV9fIjCB4QYDVR0jBIHZMIHWgBQSzWAE0qCAnnDtxpm4eyzGUv0ZoaGBsqSB
rzCBrDELMAkGA1UEBhMCVVMxCzAJBgNVBAgTAk9IMREwDwYDVQQHEwhDb2x1bWJ1
czESMBAGA1UEChMJVmlraW5nVlBOMR0wGwYDVQQLExRNeU9yZ2FuaXphdGlvbmFs
VW5pdDEVMBMGA1UEAxMMVmlraW5nVlBOIENBMRAwDgYDVQQpEwdFYXN5UlNBMSEw
HwYJKoZIhvcNAQkBFhJtZUBteWhvc3QubXlkb21haW6CCQDPNYXugL8qPjATBgNV
HSUEDDAKBggrBgEFBQcDAjALBgNVHQ8EBAMCB4AwDQYJKoZIhvcNAQEEBQADggIB
AFFCH7FXc2Vg+UNRv3LKg3USjDHwv27SlEa5uUGR0Wo32CjRYMBNj6jMtnRoJhPA
5oJBwA8FCGwXgTXPkqbNq/B9afhrAdAZX42h0GWHT269n8qSoJryN+DsUOWm5jqm
4Qi2/EdLeZvrSehSchafcTEW+gbKI08oG6X39eCBY4BJPWIArvxRPNpBSJ3JAeWD
5hem0Rd184DabHfpLO6rW+bR38bEKJZsnqgkN5sEyPkqvOrrfPbR4YQbMsQ+Cszs
4tQYfKLXbeyp6qnKll8U1iDIK85DjqBty6liAeaK98bNkeWipG2CXwv/mOpMl6Rz
wKb5RVoaAo/nRep46Y+Smk+PMmtRgknqPdVtMbUB/iFRqH+n9692z69zA8lbuebh
6f+uxEokjRectGvKOOrWNwqZx0BC8AU3rMmlZcybuw5eRmtTycIy6RhnFFSba3q3
fshQx7ZvYg5LiJkqMoSRWzgh2+3K55fbmQaGYyd/tCc9e2fOwlqeUvn1mr4sYndY
lGWmXoL78GM06/LrTZvfgCh6bEhbXR0wYN9pgD/FdvEyIwbd+r/sAWOllKGZ6ZeV
qRtQZVrFZSzNwqlgR5af2G4vCaH1tHzvYjYgRZ5mkbaVuBcSCj5McgLzBodJHQ6a
sUWOuCJXcPUHHdtmTMBa0nbi0p3sVEUd1ht9Fz8GSXmv
-----END CERTIFICATE-----
