Certificate:
    Data:
        Version: 3 (0x2)
        Serial Number: 6369 (0x18e1)
    Signature Algorithm: md5WithRSAEncryption
        Issuer: C=US, ST=OH, L=Columbus, O=VikingVPN, OU=MyOrganizationalUnit, CN=VikingVPN CA/name=EasyRSA/emailAddress=me@myhost.mydomain
        Validity
            Not Before: Oct  1 04:13:09 2015 GMT
            Not After : Sep 28 04:13:09 2025 GMT
        Subject: CN=Client1980Cert2a8a7a
        Subject Public Key Info:
            Public Key Algorithm: rsaEncryption
                Public-Key: (4096 bit)
                Modulus:
                    00:cc:8b:5c:47:65:8d:1e:76:c9:63:9a:dc:9e:53:
                    0f:ec:f6:4a:41:bf:8c:b6:77:99:80:05:3c:95:25:
                    cf:39:d7:f1:f6:56:90:1d:8c:bb:59:2e:1b:c3:56:
                    2a:6f:5a:1e:08:49:69:ca:31:54:5d:3d:ab:e5:12:
                    d2:9a:1a:b3:a4:88:94:d8:44:06:d6:62:32:9a:17:
                    10:30:ec:e0:e6:32:7f:91:2f:39:1e:92:43:6a:41:
                    04:ce:fb:58:9b:0e:9d:1d:0e:89:93:8f:39:ec:6b:
                    a9:45:db:e3:13:32:af:e0:b4:62:88:4b:05:31:d5:
                    43:db:ea:7d:7d:b3:d8:83:c1:13:1a:d2:de:6c:f1:
                    f5:3d:1b:b2:e3:95:ea:72:52:ea:47:bd:2c:e5:d1:
                    99:96:19:f7:4b:51:86:01:4d:bc:66:5e:2b:a7:60:
                    a1:dc:32:f2:9a:7c:c9:57:d2:82:9c:07:c5:37:e4:
                    ee:af:35:16:12:ad:21:06:bb:a6:24:ef:66:21:d2:
                    dd:c7:3a:f8:90:df:b4:85:6b:74:6b:f2:6c:14:6d:
                    4c:07:a6:36:ed:a3:74:34:77:b7:30:a3:b4:a4:06:
                    01:fd:8e:86:d6:22:c1:64:07:c8:2c:7d:f0:20:5d:
                    32:fd:3a:6a:72:63:48:f1:33:71:59:78:c2:28:4e:
                    2e:36:9f:14:21:fc:ea:06:d1:e4:de:ff:a3:87:5e:
                    e5:67:4c:46:48:93:6a:d0:21:71:7f:5a:f0:81:da:
                    2f:85:62:e2:04:b7:57:26:15:3e:12:bf:33:c9:93:
                    23:0c:85:79:9e:94:29:f3:72:1c:fe:44:73:34:d7:
                    d0:b3:82:0c:4e:bd:07:b7:33:38:84:da:84:8c:1b:
                    09:94:85:f7:15:e9:dc:7b:8f:d6:64:83:4b:3f:0c:
                    4c:15:5d:39:74:5c:e2:2d:40:b0:18:eb:17:10:a0:
                    83:cd:b7:37:d2:63:9e:23:28:1c:01:eb:86:7d:4e:
                    f2:0f:89:4d:4d:c1:d6:2d:63:95:03:07:ee:48:df:
                    e8:bd:94:04:52:86:d1:4f:28:c0:70:3d:ac:e9:d3:
                    02:88:cc:0a:2b:ac:ba:5b:ca:19:7c:28:48:9b:2e:
                    37:17:56:55:a4:a6:da:72:ec:4d:d9:a2:3d:5b:98:
                    3c:93:22:d9:b6:cc:c3:5d:d7:47:5b:1d:89:46:04:
                    65:42:6c:7d:5a:4d:8a:7c:aa:65:f8:9f:be:eb:d9:
                    7d:e7:0f:5a:ff:d2:d0:cb:fa:e2:88:9f:3f:fc:12:
                    da:92:d9:5a:83:9f:d5:05:4f:86:32:d2:f7:91:9d:
                    d3:ad:aa:33:1e:a4:82:e9:ff:39:ba:21:7c:c1:7c:
                    73:c4:f7
                Exponent: 65537 (0x10001)
        X509v3 extensions:
            X509v3 Basic Constraints: 
                CA:FALSE
            Netscape Comment: 
                Easy-RSA Generated Certificate
            X509v3 Subject Key Identifier: 
                DC:85:C1:69:1C:F1:51:48:BF:4F:9A:AA:06:07:5A:EC:B1:14:C5:55
            X509v3 Authority Key Identifier: 
                keyid:12:CD:60:04:D2:A0:80:9E:70:ED:C6:99:B8:7B:2C:C6:52:FD:19:A1
                DirName:/C=US/ST=OH/L=Columbus/O=VikingVPN/OU=MyOrganizationalUnit/CN=VikingVPN CA/name=EasyRSA/emailAddress=me@myhost.mydomain
                serial:CF:35:85:EE:80:BF:2A:3E

            X509v3 Extended Key Usage: 
                TLS Web Client Authentication
            X509v3 Key Usage: 
                Digital Signature
    Signature Algorithm: md5WithRSAEncryption
         ed:f3:df:9d:27:b2:7a:26:4f:f0:de:95:c4:22:36:b7:2b:7a:
         ed:78:4b:b8:b6:2d:a7:3b:31:13:43:14:d5:2d:f4:4b:ee:95:
         da:ed:58:4f:be:cb:26:5a:1b:14:80:5d:54:05:b3:db:8a:2d:
         98:d7:0d:e2:d1:54:1e:7c:c2:ad:df:5f:87:22:41:3a:5d:12:
         06:13:19:ab:7d:97:07:cc:49:f9:01:bf:49:d6:f4:98:f8:74:
         73:f7:a0:38:1e:00:bb:42:10:f3:f9:84:40:e4:0b:e3:1c:7e:
         fb:c8:b6:3d:52:32:72:46:27:2a:31:0c:0f:e5:c1:ad:56:18:
         1b:70:19:c4:29:5c:cf:08:34:aa:ce:bd:be:98:aa:06:d4:ed:
         60:9c:ca:d5:7b:91:01:dc:2f:64:16:e3:6d:cc:64:a9:bc:bd:
         fd:cb:54:ab:ef:5e:9a:72:e3:b4:02:2a:eb:fa:87:7c:53:57:
         ff:f4:ce:99:65:b0:9e:02:60:fa:8c:58:46:4b:f6:43:ac:41:
         1f:ae:33:70:7e:23:43:ab:52:87:d2:31:d3:56:83:ba:b7:32:
         16:67:fa:11:d6:f4:37:48:09:9c:58:06:9f:31:4b:32:c6:86:
         87:c2:01:c8:2e:ad:6c:8e:5c:c5:8f:ba:07:19:e2:11:fb:6a:
         61:81:a5:e3:7b:5f:58:6e:50:c1:e9:b8:b2:a5:57:3a:cb:ca:
         1d:19:cb:77:46:90:cf:4c:58:48:a8:dd:50:ed:2f:4a:50:d1:
         6b:49:75:9e:60:2e:f9:25:5f:35:46:a3:97:97:55:c5:dc:0c:
         11:0b:49:bc:24:7f:bf:a7:d5:d1:cc:6f:f3:fc:11:1a:40:10:
         5c:04:c4:8f:b2:f0:3d:19:f4:70:e0:de:c0:e7:c6:87:c0:9a:
         d5:d9:cd:7c:f1:a2:ff:e8:3d:0e:ba:14:22:bd:8e:73:6f:42:
         66:dd:b3:8d:02:1b:2c:fe:e1:a1:cb:45:36:4d:bc:1a:50:23:
         6f:b9:d0:1c:f2:13:f7:31:ce:ed:21:01:46:d6:85:f9:4e:0e:
         56:72:65:7d:04:db:fc:95:01:05:1f:9d:d1:8b:04:13:a0:78:
         db:d7:f9:8b:17:80:12:de:38:15:bf:45:66:d1:23:89:13:ab:
         9f:40:eb:0c:39:90:2c:10:7b:f1:ad:66:ac:bc:bb:0e:a9:2c:
         78:be:62:b0:c6:fe:e8:ab:52:5f:0c:23:3f:e8:3c:59:ea:9c:
         b1:98:cd:e4:0f:cc:fd:73:b1:ab:cb:a1:c1:63:cc:9d:ac:94:
         75:e2:3f:9c:35:2f:70:35:f7:31:53:8c:23:dc:e3:b5:10:6c:
         bb:e2:2a:01:e9:d2:c3:e8
-----BEGIN CERTIFICATE-----
MIIGrTCCBJWgAwIBAgICGOEwDQYJKoZIhvcNAQEEBQAwgawxCzAJBgNVBAYTAlVT
MQswCQYDVQQIEwJPSDERMA8GA1UEBxMIQ29sdW1idXMxEjAQBgNVBAoTCVZpa2lu
Z1ZQTjEdMBsGA1UECxMUTXlPcmdhbml6YXRpb25hbFVuaXQxFTATBgNVBAMTDFZp
a2luZ1ZQTiBDQTEQMA4GA1UEKRMHRWFzeVJTQTEhMB8GCSqGSIb3DQEJARYSbWVA
bXlob3N0Lm15ZG9tYWluMB4XDTE1MTAwMTA0MTMwOVoXDTI1MDkyODA0MTMwOVow
HzEdMBsGA1UEAxMUQ2xpZW50MTk4MENlcnQyYThhN2EwggIiMA0GCSqGSIb3DQEB
AQUAA4ICDwAwggIKAoICAQDMi1xHZY0edsljmtyeUw/s9kpBv4y2d5mABTyVJc85
1/H2VpAdjLtZLhvDVipvWh4ISWnKMVRdPavlEtKaGrOkiJTYRAbWYjKaFxAw7ODm
Mn+RLzkekkNqQQTO+1ibDp0dDomTjznsa6lF2+MTMq/gtGKISwUx1UPb6n19s9iD
wRMa0t5s8fU9G7LjlepyUupHvSzl0ZmWGfdLUYYBTbxmXiunYKHcMvKafMlX0oKc
B8U35O6vNRYSrSEGu6Yk72Yh0t3HOviQ37SFa3Rr8mwUbUwHpjbto3Q0d7cwo7Sk
BgH9jobWIsFkB8gsffAgXTL9OmpyY0jxM3FZeMIoTi42nxQh/OoG0eTe/6OHXuVn
TEZIk2rQIXF/WvCB2i+FYuIEt1cmFT4SvzPJkyMMhXmelCnzchz+RHM019CzggxO
vQe3MziE2oSMGwmUhfcV6dx7j9Zkg0s/DEwVXTl0XOItQLAY6xcQoIPNtzfSY54j
KBwB64Z9TvIPiU1NwdYtY5UDB+5I3+i9lARShtFPKMBwPazp0wKIzAorrLpbyhl8
KEibLjcXVlWkptpy7E3Zoj1bmDyTItm2zMNd10dbHYlGBGVCbH1aTYp8qmX4n77r
2X3nD1r/0tDL+uKInz/8EtqS2VqDn9UFT4Yy0veRndOtqjMepILp/zm6IXzBfHPE
9wIDAQABo4IBYzCCAV8wCQYDVR0TBAIwADAtBglghkgBhvhCAQ0EIBYeRWFzeS1S
U0EgR2VuZXJhdGVkIENlcnRpZmljYXRlMB0GA1UdDgQWBBTchcFpHPFRSL9PmqoG
B1rssRTFVTCB4QYDVR0jBIHZMIHWgBQSzWAE0qCAnnDtxpm4eyzGUv0ZoaGBsqSB
rzCBrDELMAkGA1UEBhMCVVMxCzAJBgNVBAgTAk9IMREwDwYDVQQHEwhDb2x1bWJ1
czESMBAGA1UEChMJVmlraW5nVlBOMR0wGwYDVQQLExRNeU9yZ2FuaXphdGlvbmFs
VW5pdDEVMBMGA1UEAxMMVmlraW5nVlBOIENBMRAwDgYDVQQpEwdFYXN5UlNBMSEw
HwYJKoZIhvcNAQkBFhJtZUBteWhvc3QubXlkb21haW6CCQDPNYXugL8qPjATBgNV
HSUEDDAKBggrBgEFBQcDAjALBgNVHQ8EBAMCB4AwDQYJKoZIhvcNAQEEBQADggIB
AO3z350nsnomT/DelcQiNrcreu14S7i2Lac7MRNDFNUt9EvuldrtWE++yyZaGxSA
XVQFs9uKLZjXDeLRVB58wq3fX4ciQTpdEgYTGat9lwfMSfkBv0nW9Jj4dHP3oDge
ALtCEPP5hEDkC+McfvvItj1SMnJGJyoxDA/lwa1WGBtwGcQpXM8INKrOvb6YqgbU
7WCcytV7kQHcL2QW423MZKm8vf3LVKvvXppy47QCKuv6h3xTV//0zpllsJ4CYPqM
WEZL9kOsQR+uM3B+I0OrUofSMdNWg7q3MhZn+hHW9DdICZxYBp8xSzLGhofCAcgu
rWyOXMWPugcZ4hH7amGBpeN7X1huUMHpuLKlVzrLyh0Zy3dGkM9MWEio3VDtL0pQ
0WtJdZ5gLvklXzVGo5eXVcXcDBELSbwkf7+n1dHMb/P8ERpAEFwExI+y8D0Z9HDg
3sDnxofAmtXZzXzxov/oPQ66FCK9jnNvQmbds40CGyz+4aHLRTZNvBpQI2+50Bzy
E/cxzu0hAUbWhflODlZyZX0E2/yVAQUfndGLBBOgeNvX+YsXgBLeOBW/RWbRI4kT
q59A6ww5kCwQe/GtZqy8uw6pLHi+YrDG/uirUl8MIz/oPFnqnLGYzeQPzP1zsavL
ocFjzJ2slHXiP5w1L3A19zFTjCPc47UQbLviKgHp0sPo
-----END CERTIFICATE-----
