Certificate:
    Data:
        Version: 3 (0x2)
        Serial Number: 6381 (0x18ed)
    Signature Algorithm: md5WithRSAEncryption
        Issuer: C=US, ST=OH, L=Columbus, O=VikingVPN, OU=MyOrganizationalUnit, CN=VikingVPN CA/name=EasyRSA/emailAddress=me@myhost.mydomain
        Validity
            Not Before: Oct  3 14:17:52 2015 GMT
            Not After : Sep 30 14:17:52 2025 GMT
        Subject: CN=Client1984Cert3abd6d
        Subject Public Key Info:
            Public Key Algorithm: rsaEncryption
                Public-Key: (4096 bit)
                Modulus:
                    00:f3:77:33:56:8d:10:1b:a4:dc:ff:f5:04:be:15:
                    62:09:5e:25:4f:e8:6b:a0:92:f9:e8:06:12:eb:fb:
                    cb:6b:d7:6b:50:f4:11:b9:5a:cd:7e:94:f2:e6:ef:
                    41:9d:d4:d2:51:1c:d6:af:fe:48:05:d1:14:5b:2b:
                    28:55:03:69:b0:9a:a8:2c:47:24:d5:8d:6c:cb:b9:
                    91:7b:9d:51:aa:b9:06:7d:0a:0f:1e:8c:7b:be:87:
                    5c:71:e2:91:40:cd:c9:c2:ce:38:a7:8d:da:ea:f4:
                    e1:db:f5:82:e6:71:32:e5:bd:f6:5f:3d:83:bc:c3:
                    e8:cc:fb:79:f6:95:f4:a2:94:1f:06:5d:23:db:5d:
                    99:81:74:6c:fb:e6:bc:ef:49:ad:34:f7:8c:4c:5c:
                    22:cd:ee:85:21:eb:22:4b:95:ec:d5:8b:76:82:17:
                    06:bd:2f:06:8f:39:bc:c2:1d:4d:99:3b:2e:79:aa:
                    28:b5:6d:24:49:dd:fd:8e:61:2f:b7:94:76:78:9c:
                    43:62:88:16:c7:7d:55:a6:71:6b:6e:43:b8:84:8f:
                    c4:17:80:db:69:27:0e:e7:9b:d6:46:df:55:80:4b:
                    11:9e:50:6f:83:82:10:d3:8b:c6:0c:6f:36:83:33:
                    eb:3d:73:f2:4b:2e:cf:57:f7:0c:e7:20:9a:e5:a9:
                    06:71:ed:d1:fc:17:cd:85:af:3f:ce:b8:0d:65:e1:
                    61:a9:05:f6:5b:ef:b7:41:c2:8f:cd:4e:ba:22:24:
                    90:83:f4:ae:f9:fc:c9:15:c8:2e:02:e5:a5:13:53:
                    44:d0:64:2d:de:f7:75:65:9d:69:af:80:f3:42:65:
                    e1:80:7c:c9:2c:46:23:d8:27:d4:f7:4d:4c:57:42:
                    6a:92:dd:aa:85:5b:2d:d7:f4:f5:75:f5:7a:b3:c4:
                    8a:9e:d6:5e:7e:e0:cb:f7:87:e4:cf:36:00:99:e3:
                    51:5f:3f:eb:a8:a8:8a:75:e5:84:e0:c1:3e:8d:98:
                    e0:c1:8f:64:37:6a:a9:9a:1a:6d:97:77:dd:a3:06:
                    61:c9:fa:4d:fd:3b:52:ee:66:d1:17:d5:a1:57:ac:
                    e3:81:64:f9:60:48:1e:59:63:58:25:56:1f:e8:b0:
                    4d:83:cd:4b:7f:9d:8b:18:d6:46:18:db:b1:2a:1c:
                    ba:a6:63:9e:20:2b:f4:5a:a8:4b:0c:06:36:cd:47:
                    e7:26:0c:8a:a8:90:a1:0e:c5:da:3a:eb:4a:a8:44:
                    28:9a:ab:15:30:57:88:89:de:33:31:e3:d0:95:46:
                    3b:5b:9e:94:1b:fb:e0:9b:cd:fa:0a:7a:aa:00:d4:
                    d7:c8:7a:1e:73:e3:96:41:18:7f:71:6e:40:15:59:
                    de:ad:23
                Exponent: 65537 (0x10001)
        X509v3 extensions:
            X509v3 Basic Constraints: 
                CA:FALSE
            Netscape Comment: 
                Easy-RSA Generated Certificate
            X509v3 Subject Key Identifier: 
                BB:99:56:4D:A3:63:A6:47:0D:BD:63:4E:53:80:C4:7D:21:46:C2:D2
            X509v3 Authority Key Identifier: 
                keyid:12:CD:60:04:D2:A0:80:9E:70:ED:C6:99:B8:7B:2C:C6:52:FD:19:A1
                DirName:/C=US/ST=OH/L=Columbus/O=VikingVPN/OU=MyOrganizationalUnit/CN=VikingVPN CA/name=EasyRSA/emailAddress=me@myhost.mydomain
                serial:CF:35:85:EE:80:BF:2A:3E

            X509v3 Extended Key Usage: 
                TLS Web Client Authentication
            X509v3 Key Usage: 
                Digital Signature
    Signature Algorithm: md5WithRSAEncryption
         c4:33:2f:6b:92:36:77:d6:11:e0:8a:4a:cd:6e:7e:7f:68:d7:
         3a:40:2e:da:c5:4f:1e:24:bf:97:90:c0:a6:42:ad:60:1b:3d:
         54:af:31:2a:68:b6:0e:04:e2:36:25:72:8e:57:4d:d1:b8:0b:
         3e:b2:cb:63:e2:9a:12:9b:30:be:3d:24:79:63:49:e3:30:e3:
         91:ee:16:8a:e2:8e:4f:79:d1:72:6e:ac:84:fa:73:68:e6:be:
         c1:0c:9c:db:00:24:99:e1:7d:62:38:11:fd:0c:5c:9a:d2:d1:
         92:c0:0e:10:a2:a3:49:8c:59:27:68:7e:9e:71:81:16:54:97:
         f2:d0:0a:68:09:ee:8d:8d:f1:08:c6:a6:7f:37:69:95:71:05:
         ce:4c:5c:47:75:c6:30:1c:18:01:f4:74:91:5e:6a:3c:f5:87:
         a6:e2:c1:bf:a5:db:c5:c1:2b:91:f1:c8:be:39:66:00:40:d4:
         3b:36:88:8c:be:ec:74:08:c2:05:ef:03:62:9d:18:5b:fe:c1:
         91:c1:65:26:b0:8f:a5:ac:77:ab:a3:58:1f:26:d8:68:31:13:
         10:7c:4f:28:5f:53:dd:fd:68:72:5b:91:17:4b:0a:e4:10:f5:
         f7:76:ec:45:a6:26:15:90:84:7a:38:1a:28:39:bc:f7:58:92:
         9b:64:d5:aa:7b:01:7d:12:a1:18:c5:5b:ee:aa:ed:9c:71:4c:
         4e:c8:8e:9f:c3:b8:d0:ea:aa:84:0a:37:51:f0:e7:56:6a:fe:
         48:4e:34:f9:04:21:49:9c:31:e2:1e:2f:fe:8f:ff:0a:17:4a:
         44:1d:5d:52:3e:63:63:39:43:ce:14:81:64:21:db:49:4d:20:
         54:5e:af:b3:5c:17:2c:b1:46:ca:da:a0:58:e4:8e:ad:f0:51:
         38:de:fd:2f:7a:84:0f:7d:2a:b0:e3:9e:56:02:20:80:5a:c7:
         bc:25:84:3f:0c:3e:20:27:cc:b1:76:11:80:3c:a3:60:06:59:
         b3:62:46:3a:ae:95:8b:d5:66:05:72:ae:80:4c:fe:79:6a:cc:
         14:19:5a:bc:34:02:3e:8f:6e:0a:71:0e:1c:ce:80:23:18:cc:
         78:c6:74:4f:e3:7a:75:91:49:54:e9:e3:ba:a2:45:8c:b4:8d:
         ab:dc:65:e1:fd:41:53:ff:f6:9a:e9:7f:e4:09:53:4e:c0:83:
         57:ef:d4:0f:e9:fd:a8:d6:a7:e6:f6:01:3a:f0:e3:51:22:e2:
         c3:c6:5f:7b:72:56:7e:37:e0:74:6a:4d:ee:66:4a:2b:fd:2d:
         3e:48:d3:da:1e:82:e3:b1:56:b9:de:ed:2e:45:cd:d7:4a:63:
         39:12:b7:ef:b8:2a:68:f1
-----BEGIN CERTIFICATE-----
MIIGrTCCBJWgAwIBAgICGO0wDQYJKoZIhvcNAQEEBQAwgawxCzAJBgNVBAYTAlVT
MQswCQYDVQQIEwJPSDERMA8GA1UEBxMIQ29sdW1idXMxEjAQBgNVBAoTCVZpa2lu
Z1ZQTjEdMBsGA1UECxMUTXlPcmdhbml6YXRpb25hbFVuaXQxFTATBgNVBAMTDFZp
a2luZ1ZQTiBDQTEQMA4GA1UEKRMHRWFzeVJTQTEhMB8GCSqGSIb3DQEJARYSbWVA
bXlob3N0Lm15ZG9tYWluMB4XDTE1MTAwMzE0MTc1MloXDTI1MDkzMDE0MTc1Mlow
HzEdMBsGA1UEAxMUQ2xpZW50MTk4NENlcnQzYWJkNmQwggIiMA0GCSqGSIb3DQEB
AQUAA4ICDwAwggIKAoICAQDzdzNWjRAbpNz/9QS+FWIJXiVP6GugkvnoBhLr+8tr
12tQ9BG5Ws1+lPLm70Gd1NJRHNav/kgF0RRbKyhVA2mwmqgsRyTVjWzLuZF7nVGq
uQZ9Cg8ejHu+h1xx4pFAzcnCzjinjdrq9OHb9YLmcTLlvfZfPYO8w+jM+3n2lfSi
lB8GXSPbXZmBdGz75rzvSa0094xMXCLN7oUh6yJLlezVi3aCFwa9LwaPObzCHU2Z
Oy55qii1bSRJ3f2OYS+3lHZ4nENiiBbHfVWmcWtuQ7iEj8QXgNtpJw7nm9ZG31WA
SxGeUG+DghDTi8YMbzaDM+s9c/JLLs9X9wznIJrlqQZx7dH8F82Frz/OuA1l4WGp
BfZb77dBwo/NTroiJJCD9K75/MkVyC4C5aUTU0TQZC3e93VlnWmvgPNCZeGAfMks
RiPYJ9T3TUxXQmqS3aqFWy3X9PV19XqzxIqe1l5+4Mv3h+TPNgCZ41FfP+uoqIp1
5YTgwT6NmODBj2Q3aqmaGm2Xd92jBmHJ+k39O1LuZtEX1aFXrOOBZPlgSB5ZY1gl
Vh/osE2DzUt/nYsY1kYY27EqHLqmY54gK/RaqEsMBjbNR+cmDIqokKEOxdo660qo
RCiaqxUwV4iJ3jMx49CVRjtbnpQb++CbzfoKeqoA1NfIeh5z45ZBGH9xbkAVWd6t
IwIDAQABo4IBYzCCAV8wCQYDVR0TBAIwADAtBglghkgBhvhCAQ0EIBYeRWFzeS1S
U0EgR2VuZXJhdGVkIENlcnRpZmljYXRlMB0GA1UdDgQWBBS7mVZNo2OmRw29Y05T
gMR9IUbC0jCB4QYDVR0jBIHZMIHWgBQSzWAE0qCAnnDtxpm4eyzGUv0ZoaGBsqSB
rzCBrDELMAkGA1UEBhMCVVMxCzAJBgNVBAgTAk9IMREwDwYDVQQHEwhDb2x1bWJ1
czESMBAGA1UEChMJVmlraW5nVlBOMR0wGwYDVQQLExRNeU9yZ2FuaXphdGlvbmFs
VW5pdDEVMBMGA1UEAxMMVmlraW5nVlBOIENBMRAwDgYDVQQpEwdFYXN5UlNBMSEw
HwYJKoZIhvcNAQkBFhJtZUBteWhvc3QubXlkb21haW6CCQDPNYXugL8qPjATBgNV
HSUEDDAKBggrBgEFBQcDAjALBgNVHQ8EBAMCB4AwDQYJKoZIhvcNAQEEBQADggIB
AMQzL2uSNnfWEeCKSs1ufn9o1zpALtrFTx4kv5eQwKZCrWAbPVSvMSpotg4E4jYl
co5XTdG4Cz6yy2PimhKbML49JHljSeMw45HuForijk950XJurIT6c2jmvsEMnNsA
JJnhfWI4Ef0MXJrS0ZLADhCio0mMWSdofp5xgRZUl/LQCmgJ7o2N8QjGpn83aZVx
Bc5MXEd1xjAcGAH0dJFeajz1h6biwb+l28XBK5HxyL45ZgBA1Ds2iIy+7HQIwgXv
A2KdGFv+wZHBZSawj6Wsd6ujWB8m2GgxExB8TyhfU939aHJbkRdLCuQQ9fd27EWm
JhWQhHo4Gig5vPdYkptk1ap7AX0SoRjFW+6q7ZxxTE7Ijp/DuNDqqoQKN1Hw51Zq
/khONPkEIUmcMeIeL/6P/woXSkQdXVI+Y2M5Q84UgWQh20lNIFRer7NcFyyxRsra
oFjkjq3wUTje/S96hA99KrDjnlYCIIBax7wlhD8MPiAnzLF2EYA8o2AGWbNiRjqu
lYvVZgVyroBM/nlqzBQZWrw0Aj6PbgpxDhzOgCMYzHjGdE/jenWRSVTp47qiRYy0
javcZeH9QVP/9prpf+QJU07Ag1fv1A/p/ajWp+b2ATrw41Ei4sPGX3tyVn434HRq
Te5mSiv9LT5I09oeguOxVrne7S5FzddKYzkSt++4Kmjx
-----END CERTIFICATE-----
