Certificate:
    Data:
        Version: 3 (0x2)
        Serial Number: 6385 (0x18f1)
    Signature Algorithm: md5WithRSAEncryption
        Issuer: C=US, ST=OH, L=Columbus, O=VikingVPN, OU=MyOrganizationalUnit, CN=VikingVPN CA/name=EasyRSA/emailAddress=me@myhost.mydomain
        Validity
            Not Before: Oct  4 01:05:38 2015 GMT
            Not After : Oct  1 01:05:38 2025 GMT
        Subject: CN=Client1919Cert9466db
        Subject Public Key Info:
            Public Key Algorithm: rsaEncryption
                Public-Key: (4096 bit)
                Modulus:
                    00:97:b4:c3:0c:67:91:82:aa:14:fe:88:f0:c9:2e:
                    8e:0e:72:51:11:28:2c:64:2f:f7:0b:50:79:9d:92:
                    03:e6:e9:12:54:ba:4d:66:d0:12:73:45:d1:c2:85:
                    08:1e:21:de:9e:d5:58:b0:f8:8d:87:14:e3:6c:f6:
                    6d:53:ca:fc:d4:92:19:59:e4:62:f8:43:a4:2a:7d:
                    9b:11:ca:a6:a9:ad:99:43:4b:ac:35:5c:61:b9:48:
                    d7:c8:81:29:5a:8d:8c:ac:be:46:f6:fd:11:67:db:
                    54:6b:ef:2b:97:02:b6:57:0e:10:94:48:ab:9b:37:
                    9a:0b:e1:64:01:5c:35:4b:e2:17:ed:5e:4b:72:28:
                    e9:64:cc:48:41:47:84:f3:e9:6e:2d:c8:d1:b4:af:
                    19:49:89:77:76:34:77:00:f6:7c:bc:79:a5:83:cd:
                    cb:50:0c:4d:0f:c0:85:b5:27:f2:65:92:81:94:35:
                    54:79:bf:f5:da:30:d6:7e:d6:15:f0:b6:96:8e:a3:
                    eb:66:c8:db:ef:68:90:b3:20:37:ad:9e:1f:94:80:
                    31:c7:c2:df:95:39:2c:95:6a:eb:61:d1:e4:ff:21:
                    0c:4c:09:6e:d8:5e:09:63:ed:f4:89:91:5b:a7:c2:
                    69:6b:80:5e:05:4f:87:0f:0f:61:63:80:46:c6:31:
                    23:0b:fa:fd:f8:48:86:39:18:b5:81:b3:b8:e1:9a:
                    3e:5f:2c:92:09:4c:38:af:6b:6b:ab:43:45:0b:b6:
                    70:11:23:2b:f5:58:3e:a8:61:67:98:64:17:5d:1c:
                    48:5f:65:75:2f:46:de:65:b3:6a:45:16:07:77:bb:
                    78:a6:7f:cf:fc:ed:90:a4:10:8c:0a:09:94:48:67:
                    cb:60:ee:7a:1f:d9:dd:ce:65:d6:1d:0b:7c:67:33:
                    51:7f:f6:27:7f:2a:4d:86:58:9b:5a:bc:59:6a:d7:
                    b1:0e:cb:ab:83:89:04:2a:4c:6b:80:b0:a3:03:5a:
                    00:12:2d:71:34:ec:d2:75:cb:73:0f:b4:34:c4:67:
                    fe:ee:7c:f9:ab:87:45:0d:3a:02:60:17:02:87:04:
                    f2:82:26:bd:5b:50:1a:9e:42:e2:b5:08:68:02:e5:
                    4a:56:94:09:bf:56:ba:b4:e3:40:c5:b7:5f:02:b2:
                    e4:cc:2a:9f:ab:31:c2:04:de:c4:e7:d9:c4:b5:a8:
                    fb:7c:d7:ea:0c:51:f3:c7:c0:e3:0e:4e:3e:df:b3:
                    3c:cd:31:f7:e1:f2:f2:8b:7a:a0:88:25:f0:c1:36:
                    c2:97:63:23:ff:7b:d4:0b:f7:54:39:a6:e3:ea:ef:
                    38:33:77:a0:ef:e0:95:ae:35:f0:7f:59:2c:5b:3c:
                    43:e4:6f
                Exponent: 65537 (0x10001)
        X509v3 extensions:
            X509v3 Basic Constraints: 
                CA:FALSE
            Netscape Comment: 
                Easy-RSA Generated Certificate
            X509v3 Subject Key Identifier: 
                C4:EB:F9:F7:61:B5:92:E6:BD:EE:65:B9:34:B2:14:07:16:47:4C:A4
            X509v3 Authority Key Identifier: 
                keyid:12:CD:60:04:D2:A0:80:9E:70:ED:C6:99:B8:7B:2C:C6:52:FD:19:A1
                DirName:/C=US/ST=OH/L=Columbus/O=VikingVPN/OU=MyOrganizationalUnit/CN=VikingVPN CA/name=EasyRSA/emailAddress=me@myhost.mydomain
                serial:CF:35:85:EE:80:BF:2A:3E

            X509v3 Extended Key Usage: 
                TLS Web Client Authentication
            X509v3 Key Usage: 
                Digital Signature
    Signature Algorithm: md5WithRSAEncryption
         3d:10:ad:70:78:ff:76:b6:3c:bf:f2:5e:97:e8:23:26:dd:e4:
         35:a3:bb:ae:eb:78:1e:e2:5f:dd:c8:bf:95:cc:cc:d0:53:21:
         c3:5b:62:68:b1:24:03:59:2c:48:e4:92:d4:f3:01:21:d9:b5:
         ac:53:28:74:c3:c6:29:27:f1:1b:4c:06:0a:2f:28:a4:bc:e2:
         9b:83:14:cb:8b:26:4a:29:2a:04:28:07:2d:c9:d7:88:de:74:
         fa:1b:57:50:63:5f:7b:2c:3b:79:36:99:69:05:e6:06:fb:00:
         c0:85:f7:06:20:de:31:86:66:a9:a6:a5:ad:4a:67:66:44:81:
         13:23:90:7a:74:b3:e5:71:ee:83:66:4a:73:4b:ac:ca:4d:68:
         cb:94:59:26:76:ee:7a:00:8f:6b:b0:2e:bb:a7:24:80:4c:83:
         74:f2:88:9b:03:51:c0:bf:42:19:11:ac:7d:e7:8b:26:a2:b9:
         18:32:c1:e2:13:18:06:6b:24:c8:3d:40:93:3d:99:69:97:8c:
         75:21:d3:79:b5:ba:e7:a0:49:9f:1e:46:4c:1c:19:e9:cc:38:
         47:9b:40:28:bf:e6:e4:76:01:3a:cf:86:85:6f:80:65:5a:48:
         4a:6c:61:29:e7:6d:b4:5d:82:f7:05:8b:fc:f9:55:0e:17:c2:
         7f:7f:bf:a1:ca:1d:9b:66:b8:bf:93:e8:0b:65:79:4d:d0:23:
         1f:f4:54:17:8b:69:16:94:47:9e:f2:48:22:63:d0:c0:d4:53:
         5e:6d:c6:7d:6b:b1:f5:54:5e:39:80:fa:84:0b:39:cf:3b:f9:
         2e:25:fd:b5:32:09:74:a9:3c:7e:6f:4f:39:28:96:f4:b2:7e:
         29:12:a1:9c:be:a4:74:26:d8:37:c7:60:33:46:4e:ff:c3:ba:
         dd:c7:f9:52:bb:8d:56:22:d4:84:a0:63:e1:3a:ff:31:7d:16:
         66:67:b7:f6:f2:39:09:e8:76:36:bf:c3:84:c8:e5:c9:4c:a6:
         c5:e0:fc:0b:a5:1b:96:24:1f:26:05:98:a1:88:d5:94:d7:f2:
         74:d4:6b:d1:b0:3a:94:3f:ac:96:7d:e0:b6:56:5a:db:fb:92:
         77:f3:bc:54:77:66:35:09:c5:a8:e2:a6:27:00:7e:90:83:42:
         a0:aa:08:7a:eb:c7:9d:84:02:a1:cb:15:5a:9b:bb:c8:ac:1c:
         35:f8:4f:50:2a:ed:e5:d2:c2:e2:bc:40:e0:cb:85:58:05:d9:
         d6:8a:5f:6e:66:e4:a5:a7:b8:05:b9:77:c4:eb:e8:52:e3:bb:
         7c:80:e8:29:c6:e7:b9:0c:26:e5:5e:1e:a4:15:ed:e9:0e:61:
         9e:8c:77:3a:69:95:79:5d
-----BEGIN CERTIFICATE-----
MIIGrTCCBJWgAwIBAgICGPEwDQYJKoZIhvcNAQEEBQAwgawxCzAJBgNVBAYTAlVT
MQswCQYDVQQIEwJPSDERMA8GA1UEBxMIQ29sdW1idXMxEjAQBgNVBAoTCVZpa2lu
Z1ZQTjEdMBsGA1UECxMUTXlPcmdhbml6YXRpb25hbFVuaXQxFTATBgNVBAMTDFZp
a2luZ1ZQTiBDQTEQMA4GA1UEKRMHRWFzeVJTQTEhMB8GCSqGSIb3DQEJARYSbWVA
bXlob3N0Lm15ZG9tYWluMB4XDTE1MTAwNDAxMDUzOFoXDTI1MTAwMTAxMDUzOFow
HzEdMBsGA1UEAxMUQ2xpZW50MTkxOUNlcnQ5NDY2ZGIwggIiMA0GCSqGSIb3DQEB
AQUAA4ICDwAwggIKAoICAQCXtMMMZ5GCqhT+iPDJLo4OclERKCxkL/cLUHmdkgPm
6RJUuk1m0BJzRdHChQgeId6e1Viw+I2HFONs9m1TyvzUkhlZ5GL4Q6QqfZsRyqap
rZlDS6w1XGG5SNfIgSlajYysvkb2/RFn21Rr7yuXArZXDhCUSKubN5oL4WQBXDVL
4hftXktyKOlkzEhBR4Tz6W4tyNG0rxlJiXd2NHcA9ny8eaWDzctQDE0PwIW1J/Jl
koGUNVR5v/XaMNZ+1hXwtpaOo+tmyNvvaJCzIDetnh+UgDHHwt+VOSyVauth0eT/
IQxMCW7YXglj7fSJkVunwmlrgF4FT4cPD2FjgEbGMSML+v34SIY5GLWBs7jhmj5f
LJIJTDiva2urQ0ULtnARIyv1WD6oYWeYZBddHEhfZXUvRt5ls2pFFgd3u3imf8/8
7ZCkEIwKCZRIZ8tg7nof2d3OZdYdC3xnM1F/9id/Kk2GWJtavFlq17EOy6uDiQQq
TGuAsKMDWgASLXE07NJ1y3MPtDTEZ/7ufPmrh0UNOgJgFwKHBPKCJr1bUBqeQuK1
CGgC5UpWlAm/Vrq040DFt18CsuTMKp+rMcIE3sTn2cS1qPt81+oMUfPHwOMOTj7f
szzNMffh8vKLeqCIJfDBNsKXYyP/e9QL91Q5puPq7zgzd6Dv4JWuNfB/WSxbPEPk
bwIDAQABo4IBYzCCAV8wCQYDVR0TBAIwADAtBglghkgBhvhCAQ0EIBYeRWFzeS1S
U0EgR2VuZXJhdGVkIENlcnRpZmljYXRlMB0GA1UdDgQWBBTE6/n3YbWS5r3uZbk0
shQHFkdMpDCB4QYDVR0jBIHZMIHWgBQSzWAE0qCAnnDtxpm4eyzGUv0ZoaGBsqSB
rzCBrDELMAkGA1UEBhMCVVMxCzAJBgNVBAgTAk9IMREwDwYDVQQHEwhDb2x1bWJ1
czESMBAGA1UEChMJVmlraW5nVlBOMR0wGwYDVQQLExRNeU9yZ2FuaXphdGlvbmFs
VW5pdDEVMBMGA1UEAxMMVmlraW5nVlBOIENBMRAwDgYDVQQpEwdFYXN5UlNBMSEw
HwYJKoZIhvcNAQkBFhJtZUBteWhvc3QubXlkb21haW6CCQDPNYXugL8qPjATBgNV
HSUEDDAKBggrBgEFBQcDAjALBgNVHQ8EBAMCB4AwDQYJKoZIhvcNAQEEBQADggIB
AD0QrXB4/3a2PL/yXpfoIybd5DWju67reB7iX93Iv5XMzNBTIcNbYmixJANZLEjk
ktTzASHZtaxTKHTDxikn8RtMBgovKKS84puDFMuLJkopKgQoBy3J14jedPobV1Bj
X3ssO3k2mWkF5gb7AMCF9wYg3jGGZqmmpa1KZ2ZEgRMjkHp0s+Vx7oNmSnNLrMpN
aMuUWSZ27noAj2uwLrunJIBMg3TyiJsDUcC/QhkRrH3niyaiuRgyweITGAZrJMg9
QJM9mWmXjHUh03m1uuegSZ8eRkwcGenMOEebQCi/5uR2ATrPhoVvgGVaSEpsYSnn
bbRdgvcFi/z5VQ4Xwn9/v6HKHZtmuL+T6AtleU3QIx/0VBeLaRaUR57ySCJj0MDU
U15txn1rsfVUXjmA+oQLOc87+S4l/bUyCXSpPH5vTzkolvSyfikSoZy+pHQm2DfH
YDNGTv/Dut3H+VK7jVYi1ISgY+E6/zF9FmZnt/byOQnodja/w4TI5clMpsXg/Aul
G5YkHyYFmKGI1ZTX8nTUa9GwOpQ/rJZ94LZWWtv7knfzvFR3ZjUJxajipicAfpCD
QqCqCHrrx52EAqHLFVqbu8isHDX4T1Aq7eXSwuK8QODLhVgF2daKX25m5KWnuAW5
d8Tr6FLju3yA6CnG57kMJuVeHqQV7ekOYZ6MdzpplXld
-----END CERTIFICATE-----
