Certificate:
    Data:
        Version: 3 (0x2)
        Serial Number: 6397 (0x18fd)
    Signature Algorithm: md5WithRSAEncryption
        Issuer: C=US, ST=OH, L=Columbus, O=VikingVPN, OU=MyOrganizationalUnit, CN=VikingVPN CA/name=EasyRSA/emailAddress=me@myhost.mydomain
        Validity
            Not Before: Oct  5 22:55:57 2015 GMT
            Not After : Oct  2 22:55:57 2025 GMT
        Subject: CN=Client1664Cert847d32
        Subject Public Key Info:
            Public Key Algorithm: rsaEncryption
                Public-Key: (4096 bit)
                Modulus:
                    00:d8:fd:be:92:97:46:31:e0:05:a5:a4:59:ea:9b:
                    d0:d0:a1:16:f9:4a:92:35:f6:86:de:57:c9:94:ae:
                    54:39:5a:ac:70:4f:04:de:b3:9b:58:3d:bc:98:4d:
                    28:8e:d6:bf:f6:5d:be:09:ff:cd:54:e8:a9:2e:33:
                    9a:c9:11:38:f6:42:85:07:b6:33:27:f6:b4:ba:10:
                    b5:81:af:1d:5a:76:f4:88:46:d7:86:89:01:ee:a2:
                    a5:0c:7d:ec:e6:30:bf:4a:2c:07:4d:f0:cb:ab:7e:
                    b3:d2:0c:1c:18:c6:ba:d4:2e:ba:02:69:ef:36:76:
                    81:a8:ce:98:77:6a:03:55:fd:8e:90:c6:e5:bf:99:
                    ba:76:dd:ad:72:30:bc:9a:c0:4e:f4:5c:06:0d:52:
                    d9:f4:0d:cf:4d:fc:dd:14:c0:9b:ad:5b:b7:be:42:
                    8b:b0:bf:ae:86:cd:ce:a8:aa:ed:07:a2:76:48:89:
                    3b:dc:0b:27:39:24:73:a6:4b:12:26:f6:27:6d:61:
                    c7:05:98:27:c3:59:1e:60:1b:17:27:57:63:32:83:
                    b5:d2:cf:32:64:44:a7:3b:5e:c7:9a:a0:26:f2:02:
                    9f:89:5c:6c:e7:5f:c9:cb:5e:0c:8f:45:63:2a:49:
                    eb:19:75:e9:7f:9a:9b:76:a0:9c:ec:ad:80:74:b7:
                    2c:11:c3:f1:9b:2a:c4:87:31:1d:e5:b2:a6:1c:ff:
                    46:91:92:1e:1f:e8:1a:25:31:56:44:22:31:df:50:
                    b0:d5:a5:7d:f8:8e:6a:fe:5e:35:f3:f7:82:89:d4:
                    fd:87:44:09:16:8b:e5:99:42:54:ad:a8:da:51:63:
                    57:2f:8e:be:65:fc:0b:57:69:d9:14:f8:82:b2:86:
                    4c:2d:85:18:3b:7f:a8:e1:7c:d5:c3:fb:ff:ad:cc:
                    27:b0:59:ff:2c:db:8a:1e:41:3b:31:22:22:a1:4d:
                    7b:eb:49:ba:0b:5d:32:72:0d:3a:93:b3:3f:db:9f:
                    f2:49:c1:90:d5:87:ab:45:b4:6b:94:11:24:87:17:
                    e2:68:51:68:96:b0:36:bb:b3:45:68:d0:95:7d:29:
                    5d:72:a4:55:82:c2:8d:19:60:11:73:18:0b:cd:73:
                    2a:2b:82:80:86:75:09:5f:fb:fc:1f:a8:e4:65:6a:
                    0d:ae:d8:cb:d2:25:d2:82:42:09:f1:00:87:43:4a:
                    b4:63:2a:5c:ca:2e:c0:d0:b5:be:c1:9a:bc:e9:7f:
                    7b:25:db:6c:18:31:6c:74:cf:a3:a0:7b:86:7a:46:
                    fc:81:d1:14:a7:fe:35:47:64:2d:06:3e:48:89:3b:
                    01:45:8b:75:93:4c:2f:b4:2a:2b:9d:99:85:be:5c:
                    08:c1:3f
                Exponent: 65537 (0x10001)
        X509v3 extensions:
            X509v3 Basic Constraints: 
                CA:FALSE
            Netscape Comment: 
                Easy-RSA Generated Certificate
            X509v3 Subject Key Identifier: 
                49:66:13:F2:AF:40:88:C2:5F:02:6B:BF:74:41:DC:F9:F9:96:BD:63
            X509v3 Authority Key Identifier: 
                keyid:12:CD:60:04:D2:A0:80:9E:70:ED:C6:99:B8:7B:2C:C6:52:FD:19:A1
                DirName:/C=US/ST=OH/L=Columbus/O=VikingVPN/OU=MyOrganizationalUnit/CN=VikingVPN CA/name=EasyRSA/emailAddress=me@myhost.mydomain
                serial:CF:35:85:EE:80:BF:2A:3E

            X509v3 Extended Key Usage: 
                TLS Web Client Authentication
            X509v3 Key Usage: 
                Digital Signature
    Signature Algorithm: md5WithRSAEncryption
         52:f9:6e:72:4d:19:94:93:99:17:64:b6:a1:03:88:92:d1:91:
         5f:a8:ad:20:07:96:a9:bb:d7:c7:78:c1:db:77:bb:e2:ad:6e:
         bc:d7:b2:9b:f0:37:ae:d9:e9:e1:f4:0a:1f:6d:a5:71:30:fa:
         47:0d:5c:9e:d4:cf:c7:8a:1a:43:51:bc:5c:8f:55:99:fb:f1:
         5d:c9:dc:81:97:c2:a4:71:8d:d8:fe:79:2d:ca:d0:29:93:b5:
         af:f3:fa:54:57:13:81:1b:3d:de:34:ca:0d:fd:9e:82:9a:09:
         9e:92:ad:02:0d:76:fc:35:f3:19:d5:dc:90:51:89:24:f8:d6:
         a7:9b:cf:ea:c2:6a:b9:77:51:4c:b3:e0:38:a9:3f:9f:5d:42:
         1e:80:a3:cd:e9:80:05:60:68:28:06:1e:78:bd:a2:c6:a9:f5:
         82:9e:99:ac:03:ef:58:a3:a0:d4:88:50:d3:3b:d8:b3:8f:e4:
         52:00:8c:64:97:55:9c:a0:91:28:43:e0:d0:92:8c:bf:95:e5:
         45:32:c7:16:89:85:c9:8f:68:84:91:77:78:6d:16:45:2c:a8:
         36:9f:82:54:70:a6:b9:2a:8d:6f:63:ad:a0:af:3d:f8:99:f9:
         20:68:3b:26:51:90:c3:11:b0:a1:6f:25:ad:69:66:9a:8d:06:
         cd:26:4c:a2:55:9c:0a:83:3c:57:21:b4:27:af:83:7c:94:bb:
         75:3f:54:37:c2:7e:4c:aa:b1:df:5e:03:be:f5:d6:f7:18:59:
         80:fe:6e:fd:41:4d:0f:a1:2e:26:eb:a6:b8:29:2a:3d:1d:ec:
         cf:04:dd:fc:a3:76:bb:ec:6f:62:60:38:2c:fc:61:41:78:3f:
         9b:14:bb:45:81:c7:8e:c7:2f:81:1f:d3:39:91:32:8e:c2:1f:
         77:c4:aa:5b:97:b6:52:6b:11:ea:4c:8c:c2:29:f1:63:a8:c0:
         65:3a:bb:74:84:bd:e5:c6:9a:e3:af:37:98:37:bc:d1:95:0f:
         4b:8d:2a:0d:4b:ea:0e:2c:2a:86:ee:06:5c:d8:75:3e:6b:73:
         b4:c6:de:51:42:b2:b9:f3:86:fc:a3:f3:bd:a0:7b:51:67:b8:
         ef:81:4e:41:d4:b1:0a:78:f8:a2:ef:91:94:1e:39:39:8c:db:
         b5:3b:49:52:fa:4a:36:ca:7e:48:c0:da:f7:a3:3c:10:a6:fd:
         3d:04:dc:3c:77:f0:c1:49:92:64:ac:50:8c:77:0c:ed:97:b8:
         f8:7e:d8:d5:72:97:26:4c:eb:87:7c:b7:15:72:27:a4:3b:14:
         ae:a0:5a:1d:2a:80:c1:f0:aa:8d:6a:54:d0:e9:32:ae:80:55:
         5a:29:06:24:8f:6b:98:2f
-----BEGIN CERTIFICATE-----
MIIGrTCCBJWgAwIBAgICGP0wDQYJKoZIhvcNAQEEBQAwgawxCzAJBgNVBAYTAlVT
MQswCQYDVQQIEwJPSDERMA8GA1UEBxMIQ29sdW1idXMxEjAQBgNVBAoTCVZpa2lu
Z1ZQTjEdMBsGA1UECxMUTXlPcmdhbml6YXRpb25hbFVuaXQxFTATBgNVBAMTDFZp
a2luZ1ZQTiBDQTEQMA4GA1UEKRMHRWFzeVJTQTEhMB8GCSqGSIb3DQEJARYSbWVA
bXlob3N0Lm15ZG9tYWluMB4XDTE1MTAwNTIyNTU1N1oXDTI1MTAwMjIyNTU1N1ow
HzEdMBsGA1UEAxMUQ2xpZW50MTY2NENlcnQ4NDdkMzIwggIiMA0GCSqGSIb3DQEB
AQUAA4ICDwAwggIKAoICAQDY/b6Sl0Yx4AWlpFnqm9DQoRb5SpI19obeV8mUrlQ5
WqxwTwTes5tYPbyYTSiO1r/2Xb4J/81U6KkuM5rJETj2QoUHtjMn9rS6ELWBrx1a
dvSIRteGiQHuoqUMfezmML9KLAdN8MurfrPSDBwYxrrULroCae82doGozph3agNV
/Y6QxuW/mbp23a1yMLyawE70XAYNUtn0Dc9N/N0UwJutW7e+Qouwv66Gzc6oqu0H
onZIiTvcCyc5JHOmSxIm9idtYccFmCfDWR5gGxcnV2Myg7XSzzJkRKc7XseaoCby
Ap+JXGznX8nLXgyPRWMqSesZdel/mpt2oJzsrYB0tywRw/GbKsSHMR3lsqYc/0aR
kh4f6BolMVZEIjHfULDVpX34jmr+XjXz94KJ1P2HRAkWi+WZQlStqNpRY1cvjr5l
/AtXadkU+IKyhkwthRg7f6jhfNXD+/+tzCewWf8s24oeQTsxIiKhTXvrSboLXTJy
DTqTsz/bn/JJwZDVh6tFtGuUESSHF+JoUWiWsDa7s0Vo0JV9KV1ypFWCwo0ZYBFz
GAvNcyorgoCGdQlf+/wfqORlag2u2MvSJdKCQgnxAIdDSrRjKlzKLsDQtb7Bmrzp
f3sl22wYMWx0z6Oge4Z6RvyB0RSn/jVHZC0GPkiJOwFFi3WTTC+0KiudmYW+XAjB
PwIDAQABo4IBYzCCAV8wCQYDVR0TBAIwADAtBglghkgBhvhCAQ0EIBYeRWFzeS1S
U0EgR2VuZXJhdGVkIENlcnRpZmljYXRlMB0GA1UdDgQWBBRJZhPyr0CIwl8Ca790
Qdz5+Za9YzCB4QYDVR0jBIHZMIHWgBQSzWAE0qCAnnDtxpm4eyzGUv0ZoaGBsqSB
rzCBrDELMAkGA1UEBhMCVVMxCzAJBgNVBAgTAk9IMREwDwYDVQQHEwhDb2x1bWJ1
czESMBAGA1UEChMJVmlraW5nVlBOMR0wGwYDVQQLExRNeU9yZ2FuaXphdGlvbmFs
VW5pdDEVMBMGA1UEAxMMVmlraW5nVlBOIENBMRAwDgYDVQQpEwdFYXN5UlNBMSEw
HwYJKoZIhvcNAQkBFhJtZUBteWhvc3QubXlkb21haW6CCQDPNYXugL8qPjATBgNV
HSUEDDAKBggrBgEFBQcDAjALBgNVHQ8EBAMCB4AwDQYJKoZIhvcNAQEEBQADggIB
AFL5bnJNGZSTmRdktqEDiJLRkV+orSAHlqm718d4wdt3u+KtbrzXspvwN67Z6eH0
Ch9tpXEw+kcNXJ7Uz8eKGkNRvFyPVZn78V3J3IGXwqRxjdj+eS3K0CmTta/z+lRX
E4EbPd40yg39noKaCZ6SrQINdvw18xnV3JBRiST41qebz+rCarl3UUyz4DipP59d
Qh6Ao83pgAVgaCgGHni9osap9YKemawD71ijoNSIUNM72LOP5FIAjGSXVZygkShD
4NCSjL+V5UUyxxaJhcmPaISRd3htFkUsqDafglRwprkqjW9jraCvPfiZ+SBoOyZR
kMMRsKFvJa1pZpqNBs0mTKJVnAqDPFchtCevg3yUu3U/VDfCfkyqsd9eA7711vcY
WYD+bv1BTQ+hLibrprgpKj0d7M8E3fyjdrvsb2JgOCz8YUF4P5sUu0WBx47HL4Ef
0zmRMo7CH3fEqluXtlJrEepMjMIp8WOowGU6u3SEveXGmuOvN5g3vNGVD0uNKg1L
6g4sKobuBlzYdT5rc7TG3lFCsrnzhvyj872ge1FnuO+BTkHUsQp4+KLvkZQeOTmM
27U7SVL6SjbKfkjA2vejPBCm/T0E3Dx38MFJkmSsUIx3DO2XuPh+2NVylyZM64d8
txVyJ6Q7FK6gWh0qgMHwqo1qVNDpMq6AVVopBiSPa5gv
-----END CERTIFICATE-----
