Certificate:
    Data:
        Version: 3 (0x2)
        Serial Number: 6401 (0x1901)
    Signature Algorithm: md5WithRSAEncryption
        Issuer: C=US, ST=OH, L=Columbus, O=VikingVPN, OU=MyOrganizationalUnit, CN=VikingVPN CA/name=EasyRSA/emailAddress=me@myhost.mydomain
        Validity
            Not Before: Oct  6 01:34:13 2015 GMT
            Not After : Oct  3 01:34:13 2025 GMT
        Subject: CN=Client1827Certa419f2
        Subject Public Key Info:
            Public Key Algorithm: rsaEncryption
                Public-Key: (4096 bit)
                Modulus:
                    00:e6:fc:c7:44:56:89:44:a3:87:42:d4:32:73:15:
                    1c:4d:11:6b:81:96:aa:65:00:6b:5c:f7:ff:4d:18:
                    6a:5c:6e:4c:af:f0:16:e4:c2:4a:6d:c3:ae:bf:c9:
                    1d:01:6d:a4:4b:a3:1b:ff:de:66:0e:d3:10:9b:93:
                    50:f7:08:ac:c1:59:91:db:ff:2d:91:05:1d:2c:18:
                    7b:8a:1e:be:21:6b:39:1c:41:ae:70:2e:96:f0:da:
                    31:18:13:52:f7:12:b9:58:4e:5a:d9:b3:ee:e8:1d:
                    5d:77:a5:72:a3:07:ed:a9:15:f4:83:73:a4:a5:1f:
                    61:be:9e:79:89:f9:7a:4b:91:2d:18:f9:e7:82:51:
                    3f:37:6c:d4:b3:d9:3c:10:d6:fe:61:f0:08:d3:0c:
                    c0:e0:41:ff:11:36:23:c0:30:63:78:bf:c3:01:ac:
                    b0:2d:6c:a4:7f:b1:2c:2b:a1:38:94:dd:f1:4d:22:
                    af:60:cd:b8:19:01:31:c7:71:29:6a:4c:18:7a:15:
                    02:ff:0d:b3:30:c5:52:43:07:c4:d4:22:f8:15:67:
                    ad:81:b5:8c:1d:99:46:01:b0:d7:b6:36:31:df:58:
                    c5:ce:4d:04:db:00:97:a1:67:1c:95:67:06:75:51:
                    1a:61:96:f8:5a:e2:c6:2a:0a:63:8e:d0:78:cf:cf:
                    13:eb:ce:19:68:c4:35:33:06:86:8d:93:26:24:10:
                    5c:38:84:42:f9:2c:24:d2:a1:4b:32:ec:fa:9e:df:
                    7d:51:72:4e:22:12:e9:ca:77:1d:c3:33:a0:67:53:
                    db:b0:fe:4b:ad:79:14:3f:db:ca:c3:38:dc:92:e4:
                    4c:20:d3:e4:bc:1e:3b:10:85:2d:b4:c3:9e:a6:ee:
                    91:a4:09:31:8e:18:cd:54:07:79:6f:28:6b:b2:19:
                    0f:0e:39:c2:5d:5a:11:ea:f9:8f:2e:3e:ed:2d:f4:
                    3e:f0:aa:38:f2:dd:18:77:98:65:ff:ac:e1:37:13:
                    63:e6:18:c7:6a:23:eb:b4:f1:d9:0a:5f:c2:f2:3b:
                    2d:5a:13:6c:81:3e:a1:74:73:d7:a3:68:a8:2d:a0:
                    b0:92:ff:6e:be:74:6c:33:c9:ba:fe:d0:ea:83:d7:
                    b3:77:96:99:54:cf:83:41:6d:93:13:18:8e:25:a4:
                    88:5b:47:bf:7e:83:02:cd:00:b7:67:f1:50:3f:3f:
                    ad:76:52:42:b6:61:00:f8:ce:c8:5f:94:1e:78:2a:
                    a1:2f:18:90:17:a1:07:82:bd:f4:68:f6:22:d6:30:
                    1d:04:fe:7a:82:36:1d:19:8e:86:33:3c:f7:94:80:
                    3f:5d:00:78:8e:ce:e4:86:9c:4a:7b:75:07:74:01:
                    8e:a3:cb
                Exponent: 65537 (0x10001)
        X509v3 extensions:
            X509v3 Basic Constraints: 
                CA:FALSE
            Netscape Comment: 
                Easy-RSA Generated Certificate
            X509v3 Subject Key Identifier: 
                89:6F:0F:7F:32:48:59:97:E6:A3:27:9A:0C:8A:05:40:5E:A8:90:13
            X509v3 Authority Key Identifier: 
                keyid:12:CD:60:04:D2:A0:80:9E:70:ED:C6:99:B8:7B:2C:C6:52:FD:19:A1
                DirName:/C=US/ST=OH/L=Columbus/O=VikingVPN/OU=MyOrganizationalUnit/CN=VikingVPN CA/name=EasyRSA/emailAddress=me@myhost.mydomain
                serial:CF:35:85:EE:80:BF:2A:3E

            X509v3 Extended Key Usage: 
                TLS Web Client Authentication
            X509v3 Key Usage: 
                Digital Signature
    Signature Algorithm: md5WithRSAEncryption
         d0:ed:5e:3c:ad:a1:83:77:63:63:be:0f:1b:19:9b:95:69:c6:
         27:37:17:c1:b7:f4:7e:c8:76:30:65:7a:19:a6:c7:3f:db:4a:
         73:c9:1c:a7:ea:81:9f:3a:b2:60:9e:7e:5e:e4:04:37:2b:34:
         13:b2:d7:18:35:81:c2:0d:5e:43:aa:75:c9:8f:66:8a:30:78:
         93:6d:49:5e:db:12:b1:4f:47:b7:53:29:7a:be:50:90:cf:2e:
         6a:5a:7a:37:68:7a:8f:17:74:80:bf:f3:ab:84:ea:63:89:90:
         f1:64:e4:a6:1c:57:b4:84:69:9b:2f:bc:2e:42:da:74:0c:92:
         10:1a:55:06:dc:aa:bb:ec:64:45:3e:87:f7:11:2b:df:4f:1a:
         14:ea:07:f5:9d:e1:aa:fb:53:9f:62:19:98:33:52:5e:93:11:
         d4:eb:1d:71:59:df:ae:4b:3a:f4:8b:05:50:ef:90:ec:e5:38:
         3f:62:e8:b1:d9:2d:31:84:59:69:4a:9c:bc:71:59:22:08:bb:
         89:c2:6f:89:aa:c6:cb:b9:3f:52:60:ea:f4:b7:b9:11:d9:c2:
         41:16:20:83:0b:25:a2:e8:2e:4f:6e:af:5e:36:bd:a7:03:ab:
         1a:95:01:b4:9a:3c:60:e9:62:76:cf:75:a6:e1:9b:56:ce:a4:
         63:60:45:69:5b:71:f4:61:7a:b5:2a:50:2b:ea:87:3d:fb:4a:
         be:a8:c1:4f:2d:2f:5c:b3:e8:b0:47:b3:7f:07:4b:a4:a5:14:
         e0:32:09:71:aa:b6:de:6e:c6:a6:bb:63:21:3e:ff:d1:bb:1a:
         a3:e7:50:85:83:2a:bc:5c:e4:b3:49:6c:5b:62:c7:0e:d1:e5:
         d0:3b:28:b9:57:1f:79:a9:46:49:20:e4:3f:ff:3b:a7:5c:50:
         ef:88:6e:67:3f:2e:f2:77:3d:c7:71:26:66:12:cd:06:ab:76:
         af:5e:36:a6:c2:21:6c:91:26:71:14:34:5c:36:73:dc:91:d9:
         0d:ce:97:c6:5a:ed:4e:70:1d:83:46:db:25:b3:bb:3b:41:b6:
         b8:0d:a0:ab:b1:99:15:2e:4a:bb:43:47:40:0a:e7:9e:b6:a4:
         eb:cc:60:bd:7b:71:a6:7d:cb:cd:45:13:7d:9d:70:4d:17:5f:
         2b:47:51:80:14:29:48:52:92:bf:64:93:1e:ed:c5:8c:36:48:
         a7:ea:94:35:10:3b:bd:91:36:ee:22:30:30:7a:f8:df:00:57:
         0d:3f:9f:f3:2b:b7:1f:9d:e8:32:74:56:40:3c:ae:cb:c3:cd:
         9b:71:4e:a4:cc:e6:51:36:f0:9f:88:50:9d:57:b0:fd:1a:b0:
         e0:cd:84:16:39:de:69:23
-----BEGIN CERTIFICATE-----
MIIGrTCCBJWgAwIBAgICGQEwDQYJKoZIhvcNAQEEBQAwgawxCzAJBgNVBAYTAlVT
MQswCQYDVQQIEwJPSDERMA8GA1UEBxMIQ29sdW1idXMxEjAQBgNVBAoTCVZpa2lu
Z1ZQTjEdMBsGA1UECxMUTXlPcmdhbml6YXRpb25hbFVuaXQxFTATBgNVBAMTDFZp
a2luZ1ZQTiBDQTEQMA4GA1UEKRMHRWFzeVJTQTEhMB8GCSqGSIb3DQEJARYSbWVA
bXlob3N0Lm15ZG9tYWluMB4XDTE1MTAwNjAxMzQxM1oXDTI1MTAwMzAxMzQxM1ow
HzEdMBsGA1UEAxMUQ2xpZW50MTgyN0NlcnRhNDE5ZjIwggIiMA0GCSqGSIb3DQEB
AQUAA4ICDwAwggIKAoICAQDm/MdEVolEo4dC1DJzFRxNEWuBlqplAGtc9/9NGGpc
bkyv8Bbkwkptw66/yR0BbaRLoxv/3mYO0xCbk1D3CKzBWZHb/y2RBR0sGHuKHr4h
azkcQa5wLpbw2jEYE1L3ErlYTlrZs+7oHV13pXKjB+2pFfSDc6SlH2G+nnmJ+XpL
kS0Y+eeCUT83bNSz2TwQ1v5h8AjTDMDgQf8RNiPAMGN4v8MBrLAtbKR/sSwroTiU
3fFNIq9gzbgZATHHcSlqTBh6FQL/DbMwxVJDB8TUIvgVZ62BtYwdmUYBsNe2NjHf
WMXOTQTbAJehZxyVZwZ1URphlvha4sYqCmOO0HjPzxPrzhloxDUzBoaNkyYkEFw4
hEL5LCTSoUsy7Pqe331Rck4iEunKdx3DM6BnU9uw/kuteRQ/28rDONyS5Ewg0+S8
HjsQhS20w56m7pGkCTGOGM1UB3lvKGuyGQ8OOcJdWhHq+Y8uPu0t9D7wqjjy3Rh3
mGX/rOE3E2PmGMdqI+u08dkKX8LyOy1aE2yBPqF0c9ejaKgtoLCS/26+dGwzybr+
0OqD17N3lplUz4NBbZMTGI4lpIhbR79+gwLNALdn8VA/P612UkK2YQD4zshflB54
KqEvGJAXoQeCvfRo9iLWMB0E/nqCNh0ZjoYzPPeUgD9dAHiOzuSGnEp7dQd0AY6j
ywIDAQABo4IBYzCCAV8wCQYDVR0TBAIwADAtBglghkgBhvhCAQ0EIBYeRWFzeS1S
U0EgR2VuZXJhdGVkIENlcnRpZmljYXRlMB0GA1UdDgQWBBSJbw9/MkhZl+ajJ5oM
igVAXqiQEzCB4QYDVR0jBIHZMIHWgBQSzWAE0qCAnnDtxpm4eyzGUv0ZoaGBsqSB
rzCBrDELMAkGA1UEBhMCVVMxCzAJBgNVBAgTAk9IMREwDwYDVQQHEwhDb2x1bWJ1
czESMBAGA1UEChMJVmlraW5nVlBOMR0wGwYDVQQLExRNeU9yZ2FuaXphdGlvbmFs
VW5pdDEVMBMGA1UEAxMMVmlraW5nVlBOIENBMRAwDgYDVQQpEwdFYXN5UlNBMSEw
HwYJKoZIhvcNAQkBFhJtZUBteWhvc3QubXlkb21haW6CCQDPNYXugL8qPjATBgNV
HSUEDDAKBggrBgEFBQcDAjALBgNVHQ8EBAMCB4AwDQYJKoZIhvcNAQEEBQADggIB
ANDtXjytoYN3Y2O+DxsZm5Vpxic3F8G39H7IdjBlehmmxz/bSnPJHKfqgZ86smCe
fl7kBDcrNBOy1xg1gcINXkOqdcmPZooweJNtSV7bErFPR7dTKXq+UJDPLmpaejdo
eo8XdIC/86uE6mOJkPFk5KYcV7SEaZsvvC5C2nQMkhAaVQbcqrvsZEU+h/cRK99P
GhTqB/Wd4ar7U59iGZgzUl6TEdTrHXFZ365LOvSLBVDvkOzlOD9i6LHZLTGEWWlK
nLxxWSIIu4nCb4mqxsu5P1Jg6vS3uRHZwkEWIIMLJaLoLk9ur142vacDqxqVAbSa
PGDpYnbPdabhm1bOpGNgRWlbcfRherUqUCvqhz37Sr6owU8tL1yz6LBHs38HS6Sl
FOAyCXGqtt5uxqa7YyE+/9G7GqPnUIWDKrxc5LNJbFtixw7R5dA7KLlXH3mpRkkg
5D//O6dcUO+Ibmc/LvJ3PcdxJmYSzQardq9eNqbCIWyRJnEUNFw2c9yR2Q3Ol8Za
7U5wHYNG2yWzuztBtrgNoKuxmRUuSrtDR0AK5562pOvMYL17caZ9y81FE32dcE0X
XytHUYAUKUhSkr9kkx7txYw2SKfqlDUQO72RNu4iMDB6+N8AVw0/n/Mrtx+d6DJ0
VkA8rsvDzZtxTqTM5lE28J+IUJ1XsP0asODNhBY53mkj
-----END CERTIFICATE-----
