Certificate:
    Data:
        Version: 3 (0x2)
        Serial Number: 6405 (0x1905)
    Signature Algorithm: md5WithRSAEncryption
        Issuer: C=US, ST=OH, L=Columbus, O=VikingVPN, OU=MyOrganizationalUnit, CN=VikingVPN CA/name=EasyRSA/emailAddress=me@myhost.mydomain
        Validity
            Not Before: Oct  6 10:44:28 2015 GMT
            Not After : Oct  3 10:44:28 2025 GMT
        Subject: CN=Client1820Cert40092a
        Subject Public Key Info:
            Public Key Algorithm: rsaEncryption
                Public-Key: (4096 bit)
                Modulus:
                    00:9f:bf:c0:6a:10:32:ab:33:c4:47:8c:c4:4f:4e:
                    10:7d:ff:aa:3a:8f:00:94:2e:bc:4f:b7:ff:a0:dc:
                    fa:35:2a:87:a4:f0:8b:98:4d:d8:48:da:bb:02:b1:
                    6c:75:c5:a8:94:b1:28:46:e4:70:b3:c9:72:b7:f8:
                    57:02:41:d7:1d:ff:91:2e:8b:97:8e:bc:d3:5a:ef:
                    9f:0f:34:5f:41:44:7d:23:55:bd:4b:d4:1f:06:19:
                    bf:d1:9c:14:fc:ab:02:11:be:22:4c:9e:a9:4e:1e:
                    04:2c:13:64:16:13:e6:ad:cf:dc:46:0b:fe:10:61:
                    f1:ff:65:47:bd:fe:86:24:72:67:f7:f9:f7:b6:a3:
                    70:b1:39:08:b8:de:45:af:69:48:77:62:da:10:1f:
                    7d:5f:82:23:7a:4b:63:fb:64:8d:4d:9f:bf:9f:d2:
                    63:1a:10:c3:05:de:e9:ec:80:39:30:44:da:ea:af:
                    67:14:e5:8f:b3:83:de:bf:c5:48:10:d7:b6:32:20:
                    d1:03:e3:a6:a8:ad:0b:62:b5:ef:0c:d2:ee:0d:56:
                    f2:56:1e:02:06:79:7e:91:d8:2a:2f:f6:cc:ce:06:
                    9b:6e:6b:6c:32:8c:0e:06:0d:9f:10:44:93:cf:29:
                    3e:97:96:23:a7:47:4d:ce:fc:15:6e:97:e8:2d:51:
                    d1:89:23:aa:bc:85:64:23:8d:46:e0:d2:9c:17:16:
                    04:22:2d:bc:35:c1:a4:4f:fd:b1:f7:be:e8:d4:cb:
                    ad:3c:31:c6:02:01:ce:35:6b:b3:be:f7:db:8d:f1:
                    c9:e3:5a:e3:25:94:42:89:5d:b7:c2:21:7a:bf:f4:
                    46:97:f2:c7:fa:db:98:45:ce:35:d1:e7:2d:28:49:
                    72:a0:4d:81:7a:b8:a5:96:6f:68:2d:1c:a9:5a:c4:
                    89:cb:a6:f6:8e:ae:9d:0b:c6:62:3b:b4:8d:4c:9a:
                    b4:e4:25:66:d3:05:db:44:18:f7:c1:47:06:ce:81:
                    c7:21:96:c2:cd:e6:26:4a:bb:c8:4d:47:13:09:3a:
                    05:e1:7a:b4:d7:b9:8b:2a:fa:36:2f:76:3c:52:52:
                    aa:da:69:a8:bf:ad:76:e7:04:a5:33:6a:ff:5f:59:
                    26:fd:10:72:c7:d9:75:3f:54:25:5f:cf:42:4d:a6:
                    dc:74:d2:8a:e2:5a:75:24:46:98:df:15:f6:7c:bd:
                    41:b6:9c:04:7c:fe:b0:58:b8:81:a5:c5:cb:2d:39:
                    63:70:b6:64:a7:97:98:b0:66:37:e4:9f:95:75:62:
                    7c:2c:0a:f4:94:5a:b7:14:f7:4d:71:72:bb:bd:74:
                    11:f0:a5:b1:e9:6e:11:e8:e4:ef:d0:1c:19:60:77:
                    f0:c8:dd
                Exponent: 65537 (0x10001)
        X509v3 extensions:
            X509v3 Basic Constraints: 
                CA:FALSE
            Netscape Comment: 
                Easy-RSA Generated Certificate
            X509v3 Subject Key Identifier: 
                8D:37:B7:DA:00:E0:87:76:AB:AD:2B:C3:14:AE:A0:02:3C:64:8A:A1
            X509v3 Authority Key Identifier: 
                keyid:12:CD:60:04:D2:A0:80:9E:70:ED:C6:99:B8:7B:2C:C6:52:FD:19:A1
                DirName:/C=US/ST=OH/L=Columbus/O=VikingVPN/OU=MyOrganizationalUnit/CN=VikingVPN CA/name=EasyRSA/emailAddress=me@myhost.mydomain
                serial:CF:35:85:EE:80:BF:2A:3E

            X509v3 Extended Key Usage: 
                TLS Web Client Authentication
            X509v3 Key Usage: 
                Digital Signature
    Signature Algorithm: md5WithRSAEncryption
         66:7c:84:37:c5:ce:e7:80:4b:af:f1:31:82:c3:78:50:ec:59:
         ee:60:75:77:cc:9c:a5:9a:c6:e0:38:58:de:09:0f:58:66:39:
         f9:79:bb:0f:d6:bf:95:42:84:e6:4a:a0:70:6d:db:6e:60:65:
         a5:51:93:c8:b4:f8:65:bf:d2:4e:af:d4:82:01:7f:58:3c:35:
         48:a1:93:89:4e:0b:ce:10:3b:8a:9d:9c:49:c3:d2:3f:98:e8:
         ad:dc:06:4f:e2:b9:54:f0:ae:83:60:4b:8b:b8:e7:1b:a9:53:
         86:7e:f3:2f:19:41:af:7d:45:b4:78:5d:e9:fa:5b:5e:e7:41:
         7d:d0:f1:41:a8:6b:fb:0d:4d:70:33:4c:b8:b3:d9:f1:1f:25:
         4e:bd:63:ba:4f:b4:0b:28:57:a9:8f:ae:ce:17:a7:be:27:e4:
         15:55:c4:a1:bf:fe:99:c9:b5:d4:b6:4d:db:21:55:4e:0a:11:
         e1:36:b1:0a:99:17:b7:96:69:41:2e:da:25:6c:30:9c:b0:7d:
         95:a2:95:5d:ee:e3:65:de:01:b6:ed:aa:25:a7:ea:6e:9b:f3:
         bc:3f:4b:15:81:e5:69:d6:03:55:57:a5:25:b8:a1:cf:13:18:
         57:7c:b1:a0:af:2b:7c:3f:e5:a8:9d:63:0a:03:56:48:f9:a0:
         81:b7:9b:e6:ac:17:61:72:74:2f:b9:d5:31:ae:5e:11:c1:8f:
         d5:b6:1f:bc:28:f6:4c:ea:cb:31:73:a0:72:9e:64:f1:82:32:
         36:a2:0a:e7:1a:95:b4:55:33:d2:c4:71:23:e9:97:4b:8f:52:
         50:75:4b:a0:77:b3:98:22:69:f3:92:64:b7:2f:42:9c:9b:8a:
         1f:00:d2:2b:42:ce:46:0c:a2:e0:8f:48:6e:57:6a:70:72:c6:
         bf:c1:c8:65:1b:42:c0:a2:75:d7:94:3a:b7:7a:7e:79:db:8d:
         6c:76:dd:bd:1b:96:a4:24:34:50:d7:16:d0:c2:36:35:37:6a:
         df:c5:25:3a:b1:45:b1:5d:c8:41:c8:93:79:33:f2:f3:83:d9:
         d0:75:a7:45:05:67:63:c3:3e:5b:b9:fa:d4:d0:ef:d6:76:d0:
         f8:fc:73:73:f7:2d:04:82:d6:d2:dc:25:35:c4:c5:72:43:f5:
         90:eb:ce:22:5f:1e:16:ac:bb:f2:6a:ac:8f:97:e1:f9:9a:c7:
         61:1c:a3:67:c6:0b:14:91:2c:0a:28:ec:59:7c:46:7d:d0:d6:
         4a:67:29:3c:b7:df:a4:7c:60:da:30:cf:a6:a2:59:04:3c:86:
         e8:fd:ee:14:ca:f4:99:9a:75:65:b4:4a:3d:d3:36:d2:17:69:
         98:61:03:17:4a:09:cc:69
-----BEGIN CERTIFICATE-----
MIIGrTCCBJWgAwIBAgICGQUwDQYJKoZIhvcNAQEEBQAwgawxCzAJBgNVBAYTAlVT
MQswCQYDVQQIEwJPSDERMA8GA1UEBxMIQ29sdW1idXMxEjAQBgNVBAoTCVZpa2lu
Z1ZQTjEdMBsGA1UECxMUTXlPcmdhbml6YXRpb25hbFVuaXQxFTATBgNVBAMTDFZp
a2luZ1ZQTiBDQTEQMA4GA1UEKRMHRWFzeVJTQTEhMB8GCSqGSIb3DQEJARYSbWVA
bXlob3N0Lm15ZG9tYWluMB4XDTE1MTAwNjEwNDQyOFoXDTI1MTAwMzEwNDQyOFow
HzEdMBsGA1UEAxMUQ2xpZW50MTgyMENlcnQ0MDA5MmEwggIiMA0GCSqGSIb3DQEB
AQUAA4ICDwAwggIKAoICAQCfv8BqEDKrM8RHjMRPThB9/6o6jwCULrxPt/+g3Po1
Koek8IuYTdhI2rsCsWx1xaiUsShG5HCzyXK3+FcCQdcd/5Eui5eOvNNa758PNF9B
RH0jVb1L1B8GGb/RnBT8qwIRviJMnqlOHgQsE2QWE+atz9xGC/4QYfH/ZUe9/oYk
cmf3+fe2o3CxOQi43kWvaUh3YtoQH31fgiN6S2P7ZI1Nn7+f0mMaEMMF3unsgDkw
RNrqr2cU5Y+zg96/xUgQ17YyINED46aorQtite8M0u4NVvJWHgIGeX6R2Cov9szO
Bptua2wyjA4GDZ8QRJPPKT6XliOnR03O/BVul+gtUdGJI6q8hWQjjUbg0pwXFgQi
Lbw1waRP/bH3vujUy608McYCAc41a7O+99uN8cnjWuMllEKJXbfCIXq/9EaX8sf6
25hFzjXR5y0oSXKgTYF6uKWWb2gtHKlaxInLpvaOrp0LxmI7tI1MmrTkJWbTBdtE
GPfBRwbOgcchlsLN5iZKu8hNRxMJOgXherTXuYsq+jYvdjxSUqraaai/rXbnBKUz
av9fWSb9EHLH2XU/VCVfz0JNptx00oriWnUkRpjfFfZ8vUG2nAR8/rBYuIGlxcst
OWNwtmSnl5iwZjfkn5V1YnwsCvSUWrcU901xcru9dBHwpbHpbhHo5O/QHBlgd/DI
3QIDAQABo4IBYzCCAV8wCQYDVR0TBAIwADAtBglghkgBhvhCAQ0EIBYeRWFzeS1S
U0EgR2VuZXJhdGVkIENlcnRpZmljYXRlMB0GA1UdDgQWBBSNN7faAOCHdqutK8MU
rqACPGSKoTCB4QYDVR0jBIHZMIHWgBQSzWAE0qCAnnDtxpm4eyzGUv0ZoaGBsqSB
rzCBrDELMAkGA1UEBhMCVVMxCzAJBgNVBAgTAk9IMREwDwYDVQQHEwhDb2x1bWJ1
czESMBAGA1UEChMJVmlraW5nVlBOMR0wGwYDVQQLExRNeU9yZ2FuaXphdGlvbmFs
VW5pdDEVMBMGA1UEAxMMVmlraW5nVlBOIENBMRAwDgYDVQQpEwdFYXN5UlNBMSEw
HwYJKoZIhvcNAQkBFhJtZUBteWhvc3QubXlkb21haW6CCQDPNYXugL8qPjATBgNV
HSUEDDAKBggrBgEFBQcDAjALBgNVHQ8EBAMCB4AwDQYJKoZIhvcNAQEEBQADggIB
AGZ8hDfFzueAS6/xMYLDeFDsWe5gdXfMnKWaxuA4WN4JD1hmOfl5uw/Wv5VChOZK
oHBt225gZaVRk8i0+GW/0k6v1IIBf1g8NUihk4lOC84QO4qdnEnD0j+Y6K3cBk/i
uVTwroNgS4u45xupU4Z+8y8ZQa99RbR4Xen6W17nQX3Q8UGoa/sNTXAzTLiz2fEf
JU69Y7pPtAsoV6mPrs4Xp74n5BVVxKG//pnJtdS2TdshVU4KEeE2sQqZF7eWaUEu
2iVsMJywfZWilV3u42XeAbbtqiWn6m6b87w/SxWB5WnWA1VXpSW4oc8TGFd8saCv
K3w/5aidYwoDVkj5oIG3m+asF2FydC+51TGuXhHBj9W2H7wo9kzqyzFzoHKeZPGC
MjaiCucalbRVM9LEcSPpl0uPUlB1S6B3s5giafOSZLcvQpybih8A0itCzkYMouCP
SG5XanByxr/ByGUbQsCiddeUOrd6fnnbjWx23b0blqQkNFDXFtDCNjU3at/FJTqx
RbFdyEHIk3kz8vOD2dB1p0UFZ2PDPlu5+tTQ79Z20Pj8c3P3LQSC1tLcJTXExXJD
9ZDrziJfHhasu/JqrI+X4fmax2Eco2fGCxSRLAoo7Fl8Rn3Q1kpnKTy336R8YNow
z6aiWQQ8huj97hTK9JmadWW0Sj3TNtIXaZhhAxdKCcxp
-----END CERTIFICATE-----
