Certificate:
    Data:
        Version: 3 (0x2)
        Serial Number: 6416 (0x1910)
    Signature Algorithm: md5WithRSAEncryption
        Issuer: C=US, ST=OH, L=Columbus, O=VikingVPN, OU=MyOrganizationalUnit, CN=VikingVPN CA/name=EasyRSA/emailAddress=me@myhost.mydomain
        Validity
            Not Before: Oct  7 22:38:28 2015 GMT
            Not After : Oct  4 22:38:28 2025 GMT
        Subject: CN=Client1990Certc2dc61
        Subject Public Key Info:
            Public Key Algorithm: rsaEncryption
                Public-Key: (4096 bit)
                Modulus:
                    00:a3:13:af:07:98:2b:84:2e:fd:d6:5f:73:0e:30:
                    0f:b1:b1:e6:ad:ac:06:c1:ab:ce:6c:32:7d:69:49:
                    c8:23:44:c3:7f:14:f1:1f:49:a4:fa:9a:60:3d:dd:
                    7b:fd:88:ee:c9:99:de:f6:43:ae:24:e0:30:6b:60:
                    84:bb:7b:1c:38:05:08:f0:95:3c:78:51:e7:23:91:
                    42:9d:19:38:f6:76:16:df:76:83:bb:fd:b5:64:42:
                    9a:ba:44:31:1b:87:6a:86:04:91:0d:39:01:c1:af:
                    69:11:c5:49:cd:c5:44:01:f8:e0:5f:02:07:e8:51:
                    a0:3d:59:1f:48:2f:d4:e6:bd:ed:fd:f0:a1:7e:84:
                    f7:ac:26:dd:ab:f5:dd:7c:d5:7b:0f:d1:18:c2:85:
                    88:5b:b1:d1:38:0e:e7:8d:ec:78:91:7c:c1:af:5e:
                    b3:32:48:04:da:ae:e5:7f:b9:9a:9d:eb:c7:17:ee:
                    a4:8f:1d:d3:62:46:1c:88:9f:c6:3f:74:9c:89:a2:
                    62:f8:ef:33:0d:5e:90:91:b6:05:37:92:f5:f0:c8:
                    92:cc:c6:18:13:8b:22:26:3f:0f:db:d7:ff:b0:3d:
                    20:fa:ff:76:4a:5f:c1:7f:f4:2c:df:79:59:59:5b:
                    d1:d4:6a:21:cd:cb:d4:ef:7d:49:a8:ca:4c:a7:d7:
                    58:44:38:0c:75:b4:6a:23:f8:9e:13:4f:ab:0a:ea:
                    c2:7c:8c:08:f8:9a:0a:ce:a7:f3:93:cb:fa:3a:7b:
                    76:76:5e:48:e9:55:25:e0:cb:06:a6:e2:c7:45:a9:
                    19:a7:11:8b:44:cf:7d:eb:d8:86:16:1a:73:d0:be:
                    83:a8:7e:44:63:04:38:16:3e:92:80:63:51:42:78:
                    49:de:c9:d5:ba:17:07:bb:2d:72:5b:eb:83:7f:d2:
                    6b:11:05:a8:7a:be:a3:c6:c0:a6:d0:75:79:c2:ee:
                    d8:1d:0d:dd:c0:97:76:ec:e6:cf:cd:bd:8e:17:83:
                    0d:a7:fb:fe:ca:2a:77:2d:36:e4:b8:42:7a:05:79:
                    a3:d8:e0:3b:01:61:a4:42:32:6c:9f:bc:4d:65:98:
                    b1:4f:7c:19:08:e0:d5:f2:e0:dd:f6:2f:0c:7f:34:
                    d9:f5:c4:62:7a:96:51:61:2d:af:e6:a6:02:34:ed:
                    9b:88:21:af:42:ef:8f:82:94:54:c0:72:8f:19:38:
                    59:ae:c7:d8:1d:d4:a5:24:1e:20:11:e8:15:02:a0:
                    58:45:02:11:1b:11:2e:45:ff:a1:b8:52:99:a8:60:
                    09:34:81:31:17:32:a7:07:1c:cd:3a:d2:e1:17:73:
                    58:67:df:10:a7:f8:f1:b9:60:02:7d:59:33:7d:1b:
                    05:9f:2f
                Exponent: 65537 (0x10001)
        X509v3 extensions:
            X509v3 Basic Constraints: 
                CA:FALSE
            Netscape Comment: 
                Easy-RSA Generated Certificate
            X509v3 Subject Key Identifier: 
                6B:F6:37:8F:B4:A1:FA:13:8B:84:58:E6:8D:B0:3D:D9:51:94:44:16
            X509v3 Authority Key Identifier: 
                keyid:12:CD:60:04:D2:A0:80:9E:70:ED:C6:99:B8:7B:2C:C6:52:FD:19:A1
                DirName:/C=US/ST=OH/L=Columbus/O=VikingVPN/OU=MyOrganizationalUnit/CN=VikingVPN CA/name=EasyRSA/emailAddress=me@myhost.mydomain
                serial:CF:35:85:EE:80:BF:2A:3E

            X509v3 Extended Key Usage: 
                TLS Web Client Authentication
            X509v3 Key Usage: 
                Digital Signature
    Signature Algorithm: md5WithRSAEncryption
         3d:c9:9c:ff:81:2f:79:75:3f:02:50:4c:8c:fa:63:60:fa:e7:
         72:48:8b:b4:01:80:f2:d9:8b:c6:b4:18:e3:23:7a:84:f7:eb:
         1b:8c:77:3d:4a:9b:1e:42:46:e4:e7:00:e8:de:d1:9d:8b:5f:
         57:51:8c:16:a4:7a:c1:0e:08:1c:6c:da:32:fa:18:05:aa:b3:
         ab:db:69:2d:85:ae:3b:44:7b:8a:33:a8:87:5d:c9:f4:79:b0:
         e8:3b:73:c5:8b:d0:46:bf:d7:70:1b:15:cc:c1:f6:51:f8:9d:
         17:9b:9a:f5:42:e2:92:21:7b:c1:53:e0:33:0c:7c:25:86:91:
         60:05:f1:16:a8:c2:a0:12:21:4e:3b:4d:ed:81:9b:f6:ee:c1:
         77:ef:c4:c3:11:da:fb:97:19:fb:d1:00:ed:cb:23:3f:70:a9:
         40:09:3d:5c:19:a1:0a:9f:6b:05:06:3c:ff:29:14:8b:95:a2:
         54:5e:1e:e3:7d:28:19:b5:54:ca:da:92:43:46:7b:1b:17:1f:
         e5:a0:99:42:45:d6:47:6d:8d:a1:72:64:38:0a:64:0f:06:67:
         d1:75:01:0d:21:c2:5b:6d:83:fc:ba:39:17:38:70:a2:f9:6e:
         09:26:9d:9b:f0:2b:2c:13:12:07:a3:2f:92:98:d5:e4:31:bb:
         f5:51:1f:77:ff:b2:9b:10:26:f9:d6:1d:45:3b:d2:d4:b2:42:
         f1:4c:40:6d:7d:27:76:dd:8f:78:9f:58:bd:52:d7:e2:fc:b9:
         01:dd:fb:e3:6e:2c:12:db:25:db:b2:44:3b:bf:2b:13:d6:bb:
         98:8e:a0:5a:0c:47:2f:74:df:49:2b:e2:4d:e7:f2:06:1c:65:
         77:7d:b1:01:e9:57:1b:48:29:ba:6a:d9:f1:57:6c:eb:85:9b:
         b7:59:e9:bc:00:4e:82:72:26:d3:9c:5c:af:a9:ad:8a:59:d6:
         65:9d:cb:8d:d0:68:a8:f5:87:e6:df:e7:2c:a9:f0:95:8e:d2:
         fa:eb:1a:47:62:55:89:58:33:77:96:58:4e:0e:81:d1:45:86:
         7d:e4:62:52:ab:a8:4d:9e:e7:34:15:61:8e:c6:c6:7f:55:7a:
         fe:54:f4:35:7b:f8:e4:11:ae:6a:2a:cf:fc:a9:28:2a:5b:11:
         16:aa:57:9f:32:a5:10:fc:92:11:14:7b:06:ac:17:8b:fd:22:
         e2:c7:b0:e8:9b:cf:2c:8d:c2:c7:99:02:eb:87:c5:c4:6f:f8:
         20:fc:6c:62:69:f4:8f:a8:64:5b:c0:7f:cd:90:dc:3d:22:71:
         8f:25:bb:3c:c8:60:56:e7:4f:dc:29:4e:31:21:14:1d:c7:a1:
         7c:f3:17:88:90:61:c4:ab
-----BEGIN CERTIFICATE-----
MIIGrTCCBJWgAwIBAgICGRAwDQYJKoZIhvcNAQEEBQAwgawxCzAJBgNVBAYTAlVT
MQswCQYDVQQIEwJPSDERMA8GA1UEBxMIQ29sdW1idXMxEjAQBgNVBAoTCVZpa2lu
Z1ZQTjEdMBsGA1UECxMUTXlPcmdhbml6YXRpb25hbFVuaXQxFTATBgNVBAMTDFZp
a2luZ1ZQTiBDQTEQMA4GA1UEKRMHRWFzeVJTQTEhMB8GCSqGSIb3DQEJARYSbWVA
bXlob3N0Lm15ZG9tYWluMB4XDTE1MTAwNzIyMzgyOFoXDTI1MTAwNDIyMzgyOFow
HzEdMBsGA1UEAxMUQ2xpZW50MTk5MENlcnRjMmRjNjEwggIiMA0GCSqGSIb3DQEB
AQUAA4ICDwAwggIKAoICAQCjE68HmCuELv3WX3MOMA+xseatrAbBq85sMn1pScgj
RMN/FPEfSaT6mmA93Xv9iO7Jmd72Q64k4DBrYIS7exw4BQjwlTx4UecjkUKdGTj2
dhbfdoO7/bVkQpq6RDEbh2qGBJENOQHBr2kRxUnNxUQB+OBfAgfoUaA9WR9IL9Tm
ve398KF+hPesJt2r9d181XsP0RjChYhbsdE4DueN7HiRfMGvXrMySATaruV/uZqd
68cX7qSPHdNiRhyIn8Y/dJyJomL47zMNXpCRtgU3kvXwyJLMxhgTiyImPw/b1/+w
PSD6/3ZKX8F/9CzfeVlZW9HUaiHNy9TvfUmoykyn11hEOAx1tGoj+J4TT6sK6sJ8
jAj4mgrOp/OTy/o6e3Z2XkjpVSXgywam4sdFqRmnEYtEz33r2IYWGnPQvoOofkRj
BDgWPpKAY1FCeEneydW6Fwe7LXJb64N/0msRBah6vqPGwKbQdXnC7tgdDd3Al3bs
5s/NvY4Xgw2n+/7KKnctNuS4QnoFeaPY4DsBYaRCMmyfvE1lmLFPfBkI4NXy4N32
Lwx/NNn1xGJ6llFhLa/mpgI07ZuIIa9C74+ClFTAco8ZOFmux9gd1KUkHiAR6BUC
oFhFAhEbES5F/6G4UpmoYAk0gTEXMqcHHM060uEXc1hn3xCn+PG5YAJ9WTN9GwWf
LwIDAQABo4IBYzCCAV8wCQYDVR0TBAIwADAtBglghkgBhvhCAQ0EIBYeRWFzeS1S
U0EgR2VuZXJhdGVkIENlcnRpZmljYXRlMB0GA1UdDgQWBBRr9jePtKH6E4uEWOaN
sD3ZUZREFjCB4QYDVR0jBIHZMIHWgBQSzWAE0qCAnnDtxpm4eyzGUv0ZoaGBsqSB
rzCBrDELMAkGA1UEBhMCVVMxCzAJBgNVBAgTAk9IMREwDwYDVQQHEwhDb2x1bWJ1
czESMBAGA1UEChMJVmlraW5nVlBOMR0wGwYDVQQLExRNeU9yZ2FuaXphdGlvbmFs
VW5pdDEVMBMGA1UEAxMMVmlraW5nVlBOIENBMRAwDgYDVQQpEwdFYXN5UlNBMSEw
HwYJKoZIhvcNAQkBFhJtZUBteWhvc3QubXlkb21haW6CCQDPNYXugL8qPjATBgNV
HSUEDDAKBggrBgEFBQcDAjALBgNVHQ8EBAMCB4AwDQYJKoZIhvcNAQEEBQADggIB
AD3JnP+BL3l1PwJQTIz6Y2D653JIi7QBgPLZi8a0GOMjeoT36xuMdz1Kmx5CRuTn
AOje0Z2LX1dRjBakesEOCBxs2jL6GAWqs6vbaS2FrjtEe4ozqIddyfR5sOg7c8WL
0Ea/13AbFczB9lH4nRebmvVC4pIhe8FT4DMMfCWGkWAF8RaowqASIU47Te2Bm/bu
wXfvxMMR2vuXGfvRAO3LIz9wqUAJPVwZoQqfawUGPP8pFIuVolReHuN9KBm1VMra
kkNGexsXH+WgmUJF1kdtjaFyZDgKZA8GZ9F1AQ0hwlttg/y6ORc4cKL5bgkmnZvw
KywTEgejL5KY1eQxu/VRH3f/spsQJvnWHUU70tSyQvFMQG19J3bdj3ifWL1S1+L8
uQHd++NuLBLbJduyRDu/KxPWu5iOoFoMRy9030kr4k3n8gYcZXd9sQHpVxtIKbpq
2fFXbOuFm7dZ6bwAToJyJtOcXK+prYpZ1mWdy43QaKj1h+bf5yyp8JWO0vrrGkdi
VYlYM3eWWE4OgdFFhn3kYlKrqE2e5zQVYY7Gxn9Vev5U9DV7+OQRrmoqz/ypKCpb
ERaqV58ypRD8khEUewasF4v9IuLHsOibzyyNwseZAuuHxcRv+CD8bGJp9I+oZFvA
f82Q3D0icY8luzzIYFbnT9wpTjEhFB3HoXzzF4iQYcSr
-----END CERTIFICATE-----
