Certificate:
    Data:
        Version: 3 (0x2)
        Serial Number: 6426 (0x191a)
    Signature Algorithm: md5WithRSAEncryption
        Issuer: C=US, ST=OH, L=Columbus, O=VikingVPN, OU=MyOrganizationalUnit, CN=VikingVPN CA/name=EasyRSA/emailAddress=me@myhost.mydomain
        Validity
            Not Before: Oct  9 00:53:47 2015 GMT
            Not After : Oct  6 00:53:47 2025 GMT
        Subject: CN=Client1990Cert4aa5ca
        Subject Public Key Info:
            Public Key Algorithm: rsaEncryption
                Public-Key: (4096 bit)
                Modulus:
                    00:c1:3b:a6:35:84:8f:6d:93:34:21:ae:b8:96:6e:
                    ab:78:eb:90:14:57:d9:d0:95:63:c2:4a:9d:77:39:
                    3a:5e:5f:51:54:ca:49:b4:8c:8b:65:2a:a7:5e:ca:
                    50:5f:dc:de:ca:56:c5:8c:bd:c7:f7:6c:af:93:94:
                    20:59:33:5e:af:38:63:c8:e5:9d:31:6c:8f:4c:40:
                    e9:5f:07:4b:30:f5:9b:7a:1d:1b:51:e7:eb:c2:1a:
                    d1:80:e5:55:e6:0d:a0:2b:c1:97:39:12:d1:f0:0c:
                    dd:a0:2e:7a:26:62:9b:03:11:cb:53:d2:c4:10:52:
                    fb:d6:b2:c7:9b:d0:ec:49:eb:82:c9:32:6b:f4:53:
                    de:d2:c2:df:cd:64:13:e4:a7:05:45:c8:5f:58:b4:
                    31:36:e9:ad:e0:2c:ae:db:65:2f:2a:f4:34:63:65:
                    7a:43:1a:10:bb:5f:81:a4:6a:7b:a7:cb:ad:ef:0f:
                    30:b1:b3:53:5d:dc:2e:df:68:47:c5:a3:4a:cc:d4:
                    14:b0:75:d3:47:cc:c2:d2:62:f4:0b:f6:d3:58:95:
                    70:b0:d1:57:27:69:6c:db:fd:99:fc:88:c0:97:9f:
                    f9:81:dc:be:81:fb:b4:38:36:d4:34:cc:47:98:76:
                    19:22:13:e7:de:91:01:1e:63:f6:f1:b3:eb:bf:3b:
                    a4:78:0a:36:af:79:53:01:03:a0:7b:15:58:b7:cf:
                    ba:da:23:4a:95:91:d1:12:88:a2:41:e2:8a:c6:ca:
                    a4:cc:02:1e:56:d9:89:0b:95:31:ff:ff:84:41:8a:
                    36:c1:7b:8d:95:b7:a5:a0:d5:15:c7:f2:b9:14:e3:
                    c8:12:83:ce:40:8c:84:58:bb:48:1c:a6:82:ee:d1:
                    ed:54:5e:db:73:14:e5:88:b6:f3:ee:b9:59:8c:8a:
                    8f:31:36:0f:62:dc:28:f4:c6:b1:6a:38:be:d5:ce:
                    b4:ad:b4:eb:16:1c:38:19:cb:76:c4:c0:0f:c0:c6:
                    8a:35:6f:cc:de:51:9a:3a:f8:21:44:ee:b6:c2:50:
                    c4:3e:18:78:3d:5c:0b:98:65:ce:7d:9d:af:90:d5:
                    cf:fe:d0:68:ef:0f:d6:d0:ae:a4:9d:f6:8f:89:ae:
                    98:49:eb:93:31:ec:a0:f5:b3:f6:30:86:8c:b0:33:
                    72:88:7b:46:aa:e8:ac:c7:df:84:c2:43:68:43:41:
                    65:db:96:c8:19:b1:05:18:08:46:8c:19:c8:6f:3c:
                    58:aa:35:50:af:38:44:43:24:44:52:f0:9f:75:e1:
                    cb:78:53:a9:7f:50:65:84:20:e3:2b:e1:cb:7b:8f:
                    1d:a6:00:f3:56:f2:fd:6d:4e:3a:f7:9a:d4:b2:08:
                    32:ab:d9
                Exponent: 65537 (0x10001)
        X509v3 extensions:
            X509v3 Basic Constraints: 
                CA:FALSE
            Netscape Comment: 
                Easy-RSA Generated Certificate
            X509v3 Subject Key Identifier: 
                18:E2:06:1B:9F:92:A8:27:60:0C:C4:57:46:5B:7F:86:10:F7:FA:F0
            X509v3 Authority Key Identifier: 
                keyid:12:CD:60:04:D2:A0:80:9E:70:ED:C6:99:B8:7B:2C:C6:52:FD:19:A1
                DirName:/C=US/ST=OH/L=Columbus/O=VikingVPN/OU=MyOrganizationalUnit/CN=VikingVPN CA/name=EasyRSA/emailAddress=me@myhost.mydomain
                serial:CF:35:85:EE:80:BF:2A:3E

            X509v3 Extended Key Usage: 
                TLS Web Client Authentication
            X509v3 Key Usage: 
                Digital Signature
    Signature Algorithm: md5WithRSAEncryption
         38:2a:3f:55:89:07:f2:03:2e:92:9b:f0:b7:f6:60:9e:9d:13:
         5e:51:d1:8c:f0:4d:73:2f:3a:15:17:01:03:4a:52:c4:0b:1f:
         5e:1a:b9:34:49:8c:84:97:a1:83:c2:75:aa:31:fa:0b:66:d9:
         d1:df:0d:a6:b5:a2:6b:51:29:01:a8:7d:38:2f:9d:4f:5c:b2:
         0a:e9:4d:57:c6:2f:49:07:cf:95:36:23:14:d2:87:cc:e2:f3:
         b7:a2:bc:1a:cc:82:63:86:87:f2:35:92:36:c4:53:4f:9f:49:
         83:af:36:81:cb:a5:13:c0:48:41:d6:86:2e:62:ed:95:23:a5:
         21:31:8e:ee:73:4c:8f:26:60:70:af:7d:fa:be:5e:b7:37:6e:
         2c:a3:8a:f7:d7:c4:b7:89:73:f1:84:a7:d1:47:cd:a7:dd:79:
         b4:ed:c5:4f:28:69:a6:95:e4:b8:8e:fc:0e:68:48:ad:a7:25:
         59:8e:13:26:07:03:04:dc:e6:d3:ed:16:da:1e:eb:ac:6b:9e:
         ea:ae:f1:00:60:dd:1b:48:9b:c8:e6:36:73:d4:41:23:76:0c:
         07:23:3a:c3:51:99:e6:72:3d:1b:2c:9b:4b:6a:51:56:e3:a9:
         ed:0f:ce:1f:6f:6d:11:48:62:c1:68:b2:5a:5f:bd:a1:1a:70:
         e2:50:fb:b5:93:ce:6b:48:88:a3:fb:6c:f0:86:ff:7e:3c:91:
         6d:c5:35:15:a6:d6:af:dd:60:fc:47:a8:ae:a8:41:97:d2:dc:
         33:9e:4e:66:b6:fa:c3:ce:39:d2:fe:50:28:3c:0a:7f:f5:52:
         7c:58:60:4e:34:80:3f:1a:e3:13:49:1e:2e:3e:68:c4:d6:47:
         3e:4b:e8:f1:00:ad:99:ce:3e:ca:df:41:58:47:36:dd:d3:81:
         ac:5c:7b:6f:ce:62:40:aa:41:26:e5:04:3a:94:74:fe:89:6e:
         2e:52:33:1f:1f:67:f8:ea:06:85:93:fe:f0:27:eb:63:f8:8c:
         d4:b9:27:06:95:47:71:0c:25:4b:50:7a:d1:90:5e:fa:a9:32:
         aa:24:f9:95:77:e2:3b:05:5d:cf:fc:47:ee:a0:ad:ff:d5:c7:
         f5:0e:9c:49:db:07:4e:9f:60:4b:e9:e8:47:06:56:26:2e:08:
         76:95:38:a7:86:8c:2d:48:91:3f:c0:ad:2b:1a:8a:23:87:4f:
         f3:25:1c:31:d1:e5:7b:7c:8f:d9:97:44:ad:8a:15:41:c7:3b:
         e7:23:60:a9:66:dc:7a:25:d2:b4:74:d4:01:74:40:0d:b1:c6:
         1c:60:15:f2:cb:4b:1c:5b:d0:60:b9:cc:f6:3a:c8:26:54:c2:
         ff:d1:f6:e8:65:31:ad:06
-----BEGIN CERTIFICATE-----
MIIGrTCCBJWgAwIBAgICGRowDQYJKoZIhvcNAQEEBQAwgawxCzAJBgNVBAYTAlVT
MQswCQYDVQQIEwJPSDERMA8GA1UEBxMIQ29sdW1idXMxEjAQBgNVBAoTCVZpa2lu
Z1ZQTjEdMBsGA1UECxMUTXlPcmdhbml6YXRpb25hbFVuaXQxFTATBgNVBAMTDFZp
a2luZ1ZQTiBDQTEQMA4GA1UEKRMHRWFzeVJTQTEhMB8GCSqGSIb3DQEJARYSbWVA
bXlob3N0Lm15ZG9tYWluMB4XDTE1MTAwOTAwNTM0N1oXDTI1MTAwNjAwNTM0N1ow
HzEdMBsGA1UEAxMUQ2xpZW50MTk5MENlcnQ0YWE1Y2EwggIiMA0GCSqGSIb3DQEB
AQUAA4ICDwAwggIKAoICAQDBO6Y1hI9tkzQhrriWbqt465AUV9nQlWPCSp13OTpe
X1FUykm0jItlKqdeylBf3N7KVsWMvcf3bK+TlCBZM16vOGPI5Z0xbI9MQOlfB0sw
9Zt6HRtR5+vCGtGA5VXmDaArwZc5EtHwDN2gLnomYpsDEctT0sQQUvvWsseb0OxJ
64LJMmv0U97Swt/NZBPkpwVFyF9YtDE26a3gLK7bZS8q9DRjZXpDGhC7X4Gkanun
y63vDzCxs1Nd3C7faEfFo0rM1BSwddNHzMLSYvQL9tNYlXCw0VcnaWzb/Zn8iMCX
n/mB3L6B+7Q4NtQ0zEeYdhkiE+fekQEeY/bxs+u/O6R4CjaveVMBA6B7FVi3z7ra
I0qVkdESiKJB4orGyqTMAh5W2YkLlTH//4RBijbBe42Vt6Wg1RXH8rkU48gSg85A
jIRYu0gcpoLu0e1UXttzFOWItvPuuVmMio8xNg9i3Cj0xrFqOL7VzrSttOsWHDgZ
y3bEwA/Axoo1b8zeUZo6+CFE7rbCUMQ+GHg9XAuYZc59na+Q1c/+0GjvD9bQrqSd
9o+JrphJ65Mx7KD1s/YwhoywM3KIe0aq6KzH34TCQ2hDQWXblsgZsQUYCEaMGchv
PFiqNVCvOERDJERS8J914ct4U6l/UGWEIOMr4ct7jx2mAPNW8v1tTjr3mtSyCDKr
2QIDAQABo4IBYzCCAV8wCQYDVR0TBAIwADAtBglghkgBhvhCAQ0EIBYeRWFzeS1S
U0EgR2VuZXJhdGVkIENlcnRpZmljYXRlMB0GA1UdDgQWBBQY4gYbn5KoJ2AMxFdG
W3+GEPf68DCB4QYDVR0jBIHZMIHWgBQSzWAE0qCAnnDtxpm4eyzGUv0ZoaGBsqSB
rzCBrDELMAkGA1UEBhMCVVMxCzAJBgNVBAgTAk9IMREwDwYDVQQHEwhDb2x1bWJ1
czESMBAGA1UEChMJVmlraW5nVlBOMR0wGwYDVQQLExRNeU9yZ2FuaXphdGlvbmFs
VW5pdDEVMBMGA1UEAxMMVmlraW5nVlBOIENBMRAwDgYDVQQpEwdFYXN5UlNBMSEw
HwYJKoZIhvcNAQkBFhJtZUBteWhvc3QubXlkb21haW6CCQDPNYXugL8qPjATBgNV
HSUEDDAKBggrBgEFBQcDAjALBgNVHQ8EBAMCB4AwDQYJKoZIhvcNAQEEBQADggIB
ADgqP1WJB/IDLpKb8Lf2YJ6dE15R0YzwTXMvOhUXAQNKUsQLH14auTRJjISXoYPC
daox+gtm2dHfDaa1omtRKQGofTgvnU9csgrpTVfGL0kHz5U2IxTSh8zi87eivBrM
gmOGh/I1kjbEU0+fSYOvNoHLpRPASEHWhi5i7ZUjpSExju5zTI8mYHCvffq+Xrc3
biyjivfXxLeJc/GEp9FHzafdebTtxU8oaaaV5LiO/A5oSK2nJVmOEyYHAwTc5tPt
Ftoe66xrnuqu8QBg3RtIm8jmNnPUQSN2DAcjOsNRmeZyPRssm0tqUVbjqe0Pzh9v
bRFIYsFoslpfvaEacOJQ+7WTzmtIiKP7bPCG/348kW3FNRWm1q/dYPxHqK6oQZfS
3DOeTma2+sPOOdL+UCg8Cn/1UnxYYE40gD8a4xNJHi4+aMTWRz5L6PEArZnOPsrf
QVhHNt3Tgaxce2/OYkCqQSblBDqUdP6Jbi5SMx8fZ/jqBoWT/vAn62P4jNS5JwaV
R3EMJUtQetGQXvqpMqok+ZV34jsFXc/8R+6grf/Vx/UOnEnbB06fYEvp6EcGViYu
CHaVOKeGjC1IkT/ArSsaiiOHT/MlHDHR5Xt8j9mXRK2KFUHHO+cjYKlm3Hol0rR0
1AF0QA2xxhxgFfLLSxxb0GC5zPY6yCZUwv/R9uhlMa0G
-----END CERTIFICATE-----
