Certificate:
    Data:
        Version: 3 (0x2)
        Serial Number: 6432 (0x1920)
    Signature Algorithm: md5WithRSAEncryption
        Issuer: C=US, ST=OH, L=Columbus, O=VikingVPN, OU=MyOrganizationalUnit, CN=VikingVPN CA/name=EasyRSA/emailAddress=me@myhost.mydomain
        Validity
            Not Before: Oct 11 10:35:07 2015 GMT
            Not After : Oct  8 10:35:07 2025 GMT
        Subject: CN=Client1364Certd76ad2
        Subject Public Key Info:
            Public Key Algorithm: rsaEncryption
                Public-Key: (4096 bit)
                Modulus:
                    00:f0:e2:5e:6d:67:e1:df:2a:c4:61:33:cf:85:65:
                    31:9e:f3:f2:ad:21:d5:e1:2a:58:20:45:6d:a1:e1:
                    c9:56:5e:ec:6a:c0:38:d7:c6:80:1e:fc:d9:6d:e1:
                    81:7c:8d:b5:6e:a1:a0:e2:8c:8d:dd:b4:0a:0d:ab:
                    db:db:49:4a:96:09:e4:8c:3b:e4:32:10:c7:3d:0f:
                    4b:26:b0:b4:40:c9:c7:ef:99:c6:0d:11:7a:7a:b0:
                    a0:58:65:47:c0:ae:50:b8:dd:80:f3:d6:71:12:23:
                    1e:e9:27:2a:cd:f8:a7:09:a7:89:2f:a8:4d:df:49:
                    ad:c8:36:0c:df:7a:50:13:70:d4:95:e1:4a:96:81:
                    73:00:ee:d6:e3:49:4b:2a:07:71:12:60:03:cf:46:
                    a5:9f:d4:4a:fa:06:8a:01:06:de:65:14:f4:01:f1:
                    6d:04:57:73:e2:1e:f4:ed:16:4f:9f:57:0a:70:b1:
                    53:07:03:f0:f4:86:e1:5c:0e:67:4f:b6:f5:ed:0f:
                    31:75:bc:3e:ee:6d:80:9e:d5:98:c2:9f:9e:7c:00:
                    f7:a5:ea:24:12:d9:d2:c4:a4:c0:5b:18:55:0c:3c:
                    11:67:8e:1b:16:3e:af:fe:67:9c:45:f8:5b:ea:31:
                    e4:7c:f7:ca:fd:d0:3e:01:16:f8:6f:21:85:74:e2:
                    4e:61:57:9a:ea:b2:30:2f:5b:89:04:2f:c4:46:88:
                    88:fc:9d:b5:49:31:51:49:f0:d6:e7:4a:a0:d5:b0:
                    e1:6f:eb:7b:47:76:36:1c:44:b3:ef:ad:65:0e:b6:
                    d7:34:bc:52:ea:d3:ea:6a:58:8a:97:29:8f:e6:b8:
                    e7:1d:3b:5d:69:75:57:3a:79:59:c8:0a:66:ff:c3:
                    b9:1d:9a:e1:63:e9:5b:db:81:0e:4c:e0:7b:dc:a2:
                    6e:d8:e3:86:0b:f1:3e:bb:35:20:12:3d:2a:87:dc:
                    ae:56:c2:22:b9:d9:c9:9d:ea:b7:5a:ef:71:8a:b1:
                    85:86:c0:f9:77:f5:18:58:ad:80:a8:6b:2d:86:29:
                    64:f8:dd:f7:55:21:14:df:be:5c:61:d5:82:69:20:
                    96:b1:fd:c8:30:3b:65:67:ac:b2:c5:81:aa:21:76:
                    3b:95:57:90:34:3f:2f:48:fd:19:24:0e:b5:56:49:
                    76:d3:95:72:f8:7a:31:a6:3d:d9:e9:20:48:f3:e3:
                    bb:6f:0b:ac:ad:a6:8a:2d:c2:1a:3f:16:7c:88:4d:
                    02:8e:4c:4b:cb:ad:f9:ad:c6:10:ca:2f:39:15:ed:
                    ca:22:d9:77:41:b6:21:04:eb:5d:89:58:a4:0d:2a:
                    3f:1a:31:07:1e:5e:4c:b3:32:29:dc:61:71:31:f7:
                    cd:93:75
                Exponent: 65537 (0x10001)
        X509v3 extensions:
            X509v3 Basic Constraints: 
                CA:FALSE
            Netscape Comment: 
                Easy-RSA Generated Certificate
            X509v3 Subject Key Identifier: 
                73:7C:DA:A5:17:EA:57:F8:CF:A1:E9:0E:9C:D6:47:FF:00:BD:31:45
            X509v3 Authority Key Identifier: 
                keyid:12:CD:60:04:D2:A0:80:9E:70:ED:C6:99:B8:7B:2C:C6:52:FD:19:A1
                DirName:/C=US/ST=OH/L=Columbus/O=VikingVPN/OU=MyOrganizationalUnit/CN=VikingVPN CA/name=EasyRSA/emailAddress=me@myhost.mydomain
                serial:CF:35:85:EE:80:BF:2A:3E

            X509v3 Extended Key Usage: 
                TLS Web Client Authentication
            X509v3 Key Usage: 
                Digital Signature
    Signature Algorithm: md5WithRSAEncryption
         03:40:38:fa:b0:41:0c:e5:0a:b6:c4:e4:64:95:5a:0f:27:bb:
         53:58:23:a3:3a:50:b6:42:41:21:66:e4:6f:f3:58:91:07:6e:
         01:99:0d:d6:4c:46:a9:94:b0:15:00:f8:92:16:48:7a:8d:b1:
         ca:b4:7b:79:c3:bd:2b:90:26:7c:3b:f6:1f:e1:5c:53:12:e1:
         19:52:84:51:37:cd:f0:a2:27:cb:bd:bb:53:64:b4:84:41:7c:
         9b:5e:d9:19:fb:94:29:9d:6a:e2:56:cf:c1:68:d8:38:d0:19:
         c1:39:05:85:5f:35:bd:17:35:08:9c:bc:2a:17:b9:b9:11:24:
         e3:29:5f:87:0d:b3:d5:49:20:4e:c5:66:12:22:d6:09:90:5d:
         20:ad:9f:43:d8:52:25:71:7a:0c:ca:ff:38:18:51:eb:40:a1:
         eb:5d:25:28:9e:bd:a0:4d:d4:71:31:9a:0b:00:0f:68:cb:51:
         f6:1c:51:aa:10:ff:8d:b6:57:a2:5f:71:6f:a7:8b:33:86:b2:
         75:8b:d9:17:d6:49:2e:50:1d:53:b5:07:03:06:85:ef:c5:29:
         86:55:b7:09:b4:fe:61:2b:71:10:0f:19:69:25:3b:c0:43:a0:
         68:65:ea:e3:17:c8:fb:b0:5c:a1:08:6c:bd:d2:82:52:93:c4:
         9a:a7:ca:cd:33:2b:72:1f:2f:f9:1d:77:f5:f0:91:68:24:29:
         d7:0f:c6:bc:fa:68:8c:17:b7:a8:02:25:3c:a6:c7:cc:18:6b:
         b4:e9:6b:5d:ce:31:1b:10:b9:07:0f:3b:7a:05:b4:f4:68:e9:
         71:e3:2d:64:74:e3:e0:2e:c5:bf:51:c6:16:b1:77:ad:25:cd:
         d3:1e:7d:01:53:c0:94:16:6f:85:79:d7:b8:34:b1:72:24:ff:
         e1:8b:de:27:b0:96:db:ed:c6:73:e2:f8:83:13:0d:b1:a2:4d:
         4b:f6:c9:7a:40:59:1a:f3:0b:de:e6:65:8a:ba:f8:20:2a:da:
         55:0d:48:a6:ff:8a:3e:5b:e4:ef:87:07:a4:26:e0:b6:90:8c:
         5c:c7:5b:90:48:87:42:79:46:c6:de:6e:32:5b:37:49:74:94:
         e3:a2:23:67:e2:5f:04:c5:1b:74:16:ed:92:53:87:78:6d:43:
         a9:07:12:d4:25:60:01:4d:30:24:b4:d9:90:52:9f:70:c3:61:
         7b:09:0c:14:11:5a:f5:42:27:0f:71:50:d1:8c:37:76:d5:65:
         f6:b7:90:11:8e:cd:1c:7c:14:7e:fa:1d:91:8f:0b:6a:8f:9a:
         cd:c8:31:99:02:6a:45:92:27:ab:81:82:96:dc:9d:10:e7:a8:
         e3:d3:cf:da:a1:e1:51:91
-----BEGIN CERTIFICATE-----
MIIGrTCCBJWgAwIBAgICGSAwDQYJKoZIhvcNAQEEBQAwgawxCzAJBgNVBAYTAlVT
MQswCQYDVQQIEwJPSDERMA8GA1UEBxMIQ29sdW1idXMxEjAQBgNVBAoTCVZpa2lu
Z1ZQTjEdMBsGA1UECxMUTXlPcmdhbml6YXRpb25hbFVuaXQxFTATBgNVBAMTDFZp
a2luZ1ZQTiBDQTEQMA4GA1UEKRMHRWFzeVJTQTEhMB8GCSqGSIb3DQEJARYSbWVA
bXlob3N0Lm15ZG9tYWluMB4XDTE1MTAxMTEwMzUwN1oXDTI1MTAwODEwMzUwN1ow
HzEdMBsGA1UEAxMUQ2xpZW50MTM2NENlcnRkNzZhZDIwggIiMA0GCSqGSIb3DQEB
AQUAA4ICDwAwggIKAoICAQDw4l5tZ+HfKsRhM8+FZTGe8/KtIdXhKlggRW2h4clW
XuxqwDjXxoAe/Nlt4YF8jbVuoaDijI3dtAoNq9vbSUqWCeSMO+QyEMc9D0smsLRA
ycfvmcYNEXp6sKBYZUfArlC43YDz1nESIx7pJyrN+KcJp4kvqE3fSa3INgzfelAT
cNSV4UqWgXMA7tbjSUsqB3ESYAPPRqWf1Er6BooBBt5lFPQB8W0EV3PiHvTtFk+f
VwpwsVMHA/D0huFcDmdPtvXtDzF1vD7ubYCe1ZjCn558APel6iQS2dLEpMBbGFUM
PBFnjhsWPq/+Z5xF+FvqMeR898r90D4BFvhvIYV04k5hV5rqsjAvW4kEL8RGiIj8
nbVJMVFJ8NbnSqDVsOFv63tHdjYcRLPvrWUOttc0vFLq0+pqWIqXKY/muOcdO11p
dVc6eVnICmb/w7kdmuFj6VvbgQ5M4Hvcom7Y44YL8T67NSASPSqH3K5WwiK52cmd
6rda73GKsYWGwPl39RhYrYCoay2GKWT43fdVIRTfvlxh1YJpIJax/cgwO2VnrLLF
gaohdjuVV5A0Py9I/RkkDrVWSXbTlXL4ejGmPdnpIEjz47tvC6ytpootwho/FnyI
TQKOTEvLrfmtxhDKLzkV7coi2XdBtiEE612JWKQNKj8aMQceXkyzMincYXEx982T
dQIDAQABo4IBYzCCAV8wCQYDVR0TBAIwADAtBglghkgBhvhCAQ0EIBYeRWFzeS1S
U0EgR2VuZXJhdGVkIENlcnRpZmljYXRlMB0GA1UdDgQWBBRzfNqlF+pX+M+h6Q6c
1kf/AL0xRTCB4QYDVR0jBIHZMIHWgBQSzWAE0qCAnnDtxpm4eyzGUv0ZoaGBsqSB
rzCBrDELMAkGA1UEBhMCVVMxCzAJBgNVBAgTAk9IMREwDwYDVQQHEwhDb2x1bWJ1
czESMBAGA1UEChMJVmlraW5nVlBOMR0wGwYDVQQLExRNeU9yZ2FuaXphdGlvbmFs
VW5pdDEVMBMGA1UEAxMMVmlraW5nVlBOIENBMRAwDgYDVQQpEwdFYXN5UlNBMSEw
HwYJKoZIhvcNAQkBFhJtZUBteWhvc3QubXlkb21haW6CCQDPNYXugL8qPjATBgNV
HSUEDDAKBggrBgEFBQcDAjALBgNVHQ8EBAMCB4AwDQYJKoZIhvcNAQEEBQADggIB
AANAOPqwQQzlCrbE5GSVWg8nu1NYI6M6ULZCQSFm5G/zWJEHbgGZDdZMRqmUsBUA
+JIWSHqNscq0e3nDvSuQJnw79h/hXFMS4RlShFE3zfCiJ8u9u1NktIRBfJte2Rn7
lCmdauJWz8Fo2DjQGcE5BYVfNb0XNQicvCoXubkRJOMpX4cNs9VJIE7FZhIi1gmQ
XSCtn0PYUiVxegzK/zgYUetAoetdJSievaBN1HExmgsAD2jLUfYcUaoQ/422V6Jf
cW+nizOGsnWL2RfWSS5QHVO1BwMGhe/FKYZVtwm0/mErcRAPGWklO8BDoGhl6uMX
yPuwXKEIbL3SglKTxJqnys0zK3IfL/kdd/XwkWgkKdcPxrz6aIwXt6gCJTymx8wY
a7Tpa13OMRsQuQcPO3oFtPRo6XHjLWR04+Auxb9Rxhaxd60lzdMefQFTwJQWb4V5
17g0sXIk/+GL3iewltvtxnPi+IMTDbGiTUv2yXpAWRrzC97mZYq6+CAq2lUNSKb/
ij5b5O+HB6Qm4LaQjFzHW5BIh0J5RsbebjJbN0l0lOOiI2fiXwTFG3QW7ZJTh3ht
Q6kHEtQlYAFNMCS02ZBSn3DDYXsJDBQRWvVCJw9xUNGMN3bVZfa3kBGOzRx8FH76
HZGPC2qPms3IMZkCakWSJ6uBgpbcnRDnqOPTz9qh4VGR
-----END CERTIFICATE-----
