Certificate:
    Data:
        Version: 3 (0x2)
        Serial Number: 6445 (0x192d)
    Signature Algorithm: md5WithRSAEncryption
        Issuer: C=US, ST=OH, L=Columbus, O=VikingVPN, OU=MyOrganizationalUnit, CN=VikingVPN CA/name=EasyRSA/emailAddress=me@myhost.mydomain
        Validity
            Not Before: Oct 13 01:01:33 2015 GMT
            Not After : Oct 10 01:01:33 2025 GMT
        Subject: CN=Client1999Cert391cca
        Subject Public Key Info:
            Public Key Algorithm: rsaEncryption
                Public-Key: (4096 bit)
                Modulus:
                    00:af:15:e6:a9:9e:f2:77:fe:b4:5e:7b:e5:78:72:
                    b0:17:63:1d:34:ec:ec:1e:f6:42:bb:f6:37:67:c2:
                    99:92:93:17:96:29:92:3d:09:84:12:32:90:92:07:
                    76:51:d3:1c:63:01:16:41:d0:6c:a8:48:ba:41:a2:
                    6d:c7:ff:16:e0:66:41:8f:8c:0b:00:b4:05:7a:7f:
                    dc:aa:c3:9b:40:3b:6b:1c:6c:77:4f:73:26:ed:95:
                    b3:3f:85:68:15:86:d7:83:01:fc:fd:b3:c8:a8:e2:
                    b9:51:ce:7c:48:5e:e9:31:c9:a4:0a:f6:e1:ed:b0:
                    bc:1f:6a:ca:59:40:3f:eb:83:7a:f8:d6:eb:27:c7:
                    11:ba:5d:d5:af:5e:55:85:c0:2b:d7:29:59:bd:2e:
                    1f:55:d1:47:4f:20:68:1f:7c:b7:f1:33:2f:03:24:
                    19:c7:7a:84:e0:19:73:c9:0d:06:e3:c6:fe:b1:55:
                    8a:31:30:58:9d:6c:45:21:a5:3e:6b:8f:88:7a:09:
                    1d:c9:fe:95:1e:dd:7b:1e:df:d9:a0:0e:5e:94:fe:
                    68:f5:77:6b:3c:4b:15:a1:27:3b:85:2b:4c:03:70:
                    fc:57:13:59:63:f1:c6:17:44:43:47:66:6c:47:13:
                    b3:c6:c9:94:bd:f1:8b:35:98:bf:d1:10:44:61:cf:
                    d3:fb:e7:f9:c7:d6:dc:5c:7c:3e:0a:18:ca:99:07:
                    89:d1:9e:5b:6d:68:0e:ca:e3:e5:9b:25:0d:c1:b1:
                    49:a6:12:79:70:8d:55:a0:8f:c3:bc:06:45:fd:b5:
                    cb:f9:a0:29:71:d2:ac:3f:6b:bc:8f:e8:b0:bb:13:
                    2a:61:e4:d4:2b:59:f3:79:8d:ee:57:03:95:d9:9d:
                    16:df:89:fe:29:ff:36:3a:2e:6c:98:7d:63:86:c4:
                    6b:56:65:d0:58:17:a1:11:2a:42:da:fc:8e:64:86:
                    24:f5:30:0e:96:aa:55:7d:2d:66:0f:fc:7c:00:30:
                    c3:24:ab:55:d2:60:db:b1:d3:4e:bd:7e:be:d6:68:
                    c5:eb:0a:24:d2:5c:ef:60:c5:70:ef:e4:4c:94:c6:
                    ea:10:15:9a:f4:eb:aa:a3:71:13:db:b6:0c:94:0c:
                    c9:12:74:f4:9f:ea:61:22:e9:d9:ac:e1:89:d3:7f:
                    d9:c3:e7:c3:cd:fc:76:ef:dd:c7:bb:52:47:54:a3:
                    29:e6:e3:f7:0c:2b:88:e7:44:66:79:c8:74:34:e2:
                    5b:f9:4d:f3:a3:c4:fa:ef:58:27:e2:2c:46:d5:23:
                    6e:76:95:08:68:05:68:66:93:28:0d:b5:d5:c5:5d:
                    67:16:8a:94:64:41:23:d5:1b:03:4e:f3:ce:f1:60:
                    1c:12:4d
                Exponent: 65537 (0x10001)
        X509v3 extensions:
            X509v3 Basic Constraints: 
                CA:FALSE
            Netscape Comment: 
                Easy-RSA Generated Certificate
            X509v3 Subject Key Identifier: 
                57:74:FB:F2:84:67:DC:FB:BB:3F:C7:FE:4A:F5:DB:15:A5:B0:AA:BE
            X509v3 Authority Key Identifier: 
                keyid:12:CD:60:04:D2:A0:80:9E:70:ED:C6:99:B8:7B:2C:C6:52:FD:19:A1
                DirName:/C=US/ST=OH/L=Columbus/O=VikingVPN/OU=MyOrganizationalUnit/CN=VikingVPN CA/name=EasyRSA/emailAddress=me@myhost.mydomain
                serial:CF:35:85:EE:80:BF:2A:3E

            X509v3 Extended Key Usage: 
                TLS Web Client Authentication
            X509v3 Key Usage: 
                Digital Signature
    Signature Algorithm: md5WithRSAEncryption
         81:5a:e7:b7:3d:03:34:0e:13:18:bf:00:63:35:ec:46:83:1d:
         f4:e7:e2:6b:fb:89:ce:da:bd:90:30:ed:69:eb:7a:3b:4e:65:
         ec:2e:15:64:90:85:02:1c:d4:84:6a:d1:73:cd:9e:03:30:63:
         56:de:0c:d4:31:1f:a9:b5:3e:bd:ed:95:7e:28:f0:84:49:a3:
         43:37:7d:a7:9e:a1:17:6a:1c:e7:31:e5:1e:5a:64:19:44:23:
         ac:67:bf:ae:a6:f1:82:3c:58:5d:c5:d7:96:f3:71:28:61:5f:
         8b:ba:48:92:93:3e:1a:79:4f:31:dc:97:d6:5f:f7:a3:f8:76:
         f0:06:d5:67:53:73:5e:ad:66:58:5d:44:14:55:f4:75:7f:45:
         75:2f:31:8b:31:9e:ef:40:b9:b3:6e:3a:10:e9:00:bf:4b:70:
         70:7b:bc:eb:d1:34:78:59:ae:6e:3f:80:92:48:b1:23:17:38:
         a5:0e:70:ad:aa:af:39:44:79:b4:d8:9e:48:e8:46:1b:56:a1:
         5d:82:f8:34:49:44:28:29:36:53:6b:55:28:e7:5e:25:f1:23:
         0e:b6:49:ae:59:d4:3c:c1:19:ef:70:71:46:82:28:90:0f:90:
         3a:9e:9b:11:35:32:da:43:95:9d:53:8a:3a:e5:b0:c1:ec:c7:
         c3:30:ca:87:a9:81:77:d9:bf:e8:0b:59:3f:47:02:15:01:b9:
         0e:89:18:b8:ee:87:b1:0d:fb:4a:f9:81:56:9d:e7:ff:f5:00:
         d6:7f:4d:33:3a:ed:3f:5d:d4:a5:d7:24:84:f8:f8:3a:3b:ba:
         2e:65:d4:39:8d:a9:d8:32:2b:94:7a:1c:2d:2e:23:16:f6:2b:
         9c:5c:a8:6e:6b:6b:6d:d5:a2:c9:d5:49:e5:eb:c0:13:e9:2e:
         41:9e:38:d1:ae:d6:48:e2:9a:ea:ae:ed:48:cd:65:a3:09:68:
         c7:c4:c1:1f:5c:62:83:24:aa:98:e8:d8:e4:0f:95:17:49:d8:
         ee:69:5c:9b:ac:48:e9:05:1e:d8:dd:3e:0d:08:80:ca:19:dc:
         cc:1f:8e:07:be:87:37:2d:f5:98:5b:db:0f:35:ef:b8:57:53:
         1f:ff:a6:5d:ad:d9:2f:ff:6c:5f:77:23:9f:65:21:56:13:5c:
         ee:95:f7:df:a2:7c:5e:95:cc:d4:37:f5:74:30:01:9b:ee:33:
         20:cd:fe:af:2b:cb:a6:b7:eb:af:16:cc:c7:ea:aa:9e:19:8f:
         56:38:ea:c2:e2:6c:98:48:18:36:27:75:df:0c:6d:78:ec:66:
         ce:bb:76:8e:ff:7c:8a:90:9e:9d:44:19:04:de:64:9c:51:a9:
         16:d5:f0:4f:3c:fe:09:65
-----BEGIN CERTIFICATE-----
MIIGrTCCBJWgAwIBAgICGS0wDQYJKoZIhvcNAQEEBQAwgawxCzAJBgNVBAYTAlVT
MQswCQYDVQQIEwJPSDERMA8GA1UEBxMIQ29sdW1idXMxEjAQBgNVBAoTCVZpa2lu
Z1ZQTjEdMBsGA1UECxMUTXlPcmdhbml6YXRpb25hbFVuaXQxFTATBgNVBAMTDFZp
a2luZ1ZQTiBDQTEQMA4GA1UEKRMHRWFzeVJTQTEhMB8GCSqGSIb3DQEJARYSbWVA
bXlob3N0Lm15ZG9tYWluMB4XDTE1MTAxMzAxMDEzM1oXDTI1MTAxMDAxMDEzM1ow
HzEdMBsGA1UEAxMUQ2xpZW50MTk5OUNlcnQzOTFjY2EwggIiMA0GCSqGSIb3DQEB
AQUAA4ICDwAwggIKAoICAQCvFeapnvJ3/rRee+V4crAXYx007Owe9kK79jdnwpmS
kxeWKZI9CYQSMpCSB3ZR0xxjARZB0GyoSLpBom3H/xbgZkGPjAsAtAV6f9yqw5tA
O2scbHdPcybtlbM/hWgVhteDAfz9s8io4rlRznxIXukxyaQK9uHtsLwfaspZQD/r
g3r41usnxxG6XdWvXlWFwCvXKVm9Lh9V0UdPIGgffLfxMy8DJBnHeoTgGXPJDQbj
xv6xVYoxMFidbEUhpT5rj4h6CR3J/pUe3Xse39mgDl6U/mj1d2s8SxWhJzuFK0wD
cPxXE1lj8cYXRENHZmxHE7PGyZS98Ys1mL/REERhz9P75/nH1txcfD4KGMqZB4nR
nlttaA7K4+WbJQ3BsUmmEnlwjVWgj8O8BkX9tcv5oClx0qw/a7yP6LC7Eyph5NQr
WfN5je5XA5XZnRbfif4p/zY6LmyYfWOGxGtWZdBYF6ERKkLa/I5khiT1MA6WqlV9
LWYP/HwAMMMkq1XSYNux0069fr7WaMXrCiTSXO9gxXDv5EyUxuoQFZr066qjcRPb
tgyUDMkSdPSf6mEi6dms4YnTf9nD58PN/Hbv3ce7UkdUoynm4/cMK4jnRGZ5yHQ0
4lv5TfOjxPrvWCfiLEbVI252lQhoBWhmkygNtdXFXWcWipRkQSPVGwNO887xYBwS
TQIDAQABo4IBYzCCAV8wCQYDVR0TBAIwADAtBglghkgBhvhCAQ0EIBYeRWFzeS1S
U0EgR2VuZXJhdGVkIENlcnRpZmljYXRlMB0GA1UdDgQWBBRXdPvyhGfc+7s/x/5K
9dsVpbCqvjCB4QYDVR0jBIHZMIHWgBQSzWAE0qCAnnDtxpm4eyzGUv0ZoaGBsqSB
rzCBrDELMAkGA1UEBhMCVVMxCzAJBgNVBAgTAk9IMREwDwYDVQQHEwhDb2x1bWJ1
czESMBAGA1UEChMJVmlraW5nVlBOMR0wGwYDVQQLExRNeU9yZ2FuaXphdGlvbmFs
VW5pdDEVMBMGA1UEAxMMVmlraW5nVlBOIENBMRAwDgYDVQQpEwdFYXN5UlNBMSEw
HwYJKoZIhvcNAQkBFhJtZUBteWhvc3QubXlkb21haW6CCQDPNYXugL8qPjATBgNV
HSUEDDAKBggrBgEFBQcDAjALBgNVHQ8EBAMCB4AwDQYJKoZIhvcNAQEEBQADggIB
AIFa57c9AzQOExi/AGM17EaDHfTn4mv7ic7avZAw7WnrejtOZewuFWSQhQIc1IRq
0XPNngMwY1beDNQxH6m1Pr3tlX4o8IRJo0M3faeeoRdqHOcx5R5aZBlEI6xnv66m
8YI8WF3F15bzcShhX4u6SJKTPhp5TzHcl9Zf96P4dvAG1WdTc16tZlhdRBRV9HV/
RXUvMYsxnu9AubNuOhDpAL9LcHB7vOvRNHhZrm4/gJJIsSMXOKUOcK2qrzlEebTY
nkjoRhtWoV2C+DRJRCgpNlNrVSjnXiXxIw62Sa5Z1DzBGe9wcUaCKJAPkDqemxE1
MtpDlZ1TijrlsMHsx8MwyoepgXfZv+gLWT9HAhUBuQ6JGLjuh7EN+0r5gVad5//1
ANZ/TTM67T9d1KXXJIT4+Do7ui5l1DmNqdgyK5R6HC0uIxb2K5xcqG5ra23VosnV
SeXrwBPpLkGeONGu1kjimuqu7UjNZaMJaMfEwR9cYoMkqpjo2OQPlRdJ2O5pXJus
SOkFHtjdPg0IgMoZ3Mwfjge+hzct9Zhb2w8177hXUx//pl2t2S//bF93I59lIVYT
XO6V99+ifF6VzNQ39XQwAZvuMyDN/q8ry6a3668WzMfqqp4Zj1Y46sLibJhIGDYn
dd8MbXjsZs67do7/fIqQnp1EGQTeZJxRqRbV8E88/gll
-----END CERTIFICATE-----
