Certificate:
    Data:
        Version: 3 (0x2)
        Serial Number: 6450 (0x1932)
    Signature Algorithm: md5WithRSAEncryption
        Issuer: C=US, ST=OH, L=Columbus, O=VikingVPN, OU=MyOrganizationalUnit, CN=VikingVPN CA/name=EasyRSA/emailAddress=me@myhost.mydomain
        Validity
            Not Before: Oct 13 01:09:35 2015 GMT
            Not After : Oct 10 01:09:35 2025 GMT
        Subject: CN=Client1999Cert6624d6
        Subject Public Key Info:
            Public Key Algorithm: rsaEncryption
                Public-Key: (4096 bit)
                Modulus:
                    00:dc:e5:72:a5:1c:1d:a3:32:af:ad:cf:0f:a5:54:
                    fe:9f:ca:89:ac:ad:b0:c5:e4:ca:b2:f9:67:86:eb:
                    6d:5c:5b:c9:f9:f1:92:d8:49:4c:ba:c5:0c:61:43:
                    3b:0b:84:e0:ff:75:8d:be:f5:41:91:aa:1d:d6:ec:
                    2c:85:7f:5a:8c:21:6f:de:52:a6:5a:b8:c7:6d:7a:
                    e0:96:70:17:1a:71:81:8f:bc:49:fa:49:6d:d1:fd:
                    be:3e:1b:c0:b1:f1:0b:fa:af:b5:0c:bf:14:63:84:
                    8d:51:50:11:81:1b:76:fb:fa:f1:e9:64:e5:ab:bd:
                    9f:34:a7:45:57:dc:d8:32:7c:06:7b:19:08:e4:59:
                    35:c3:a1:2f:1c:82:29:0a:58:41:a8:60:ab:cd:0e:
                    e9:9b:af:7f:e9:3d:f9:8e:b4:2c:a4:9f:28:4d:4f:
                    7f:f1:db:ac:0c:40:d4:7d:b7:76:9a:18:06:8a:a0:
                    c2:4b:0d:0e:5f:36:c4:4c:6c:26:e5:59:fd:24:bd:
                    35:36:49:af:d3:6a:7e:fe:8d:ef:59:61:ff:26:45:
                    b8:42:96:19:7e:e0:1e:56:1e:81:d3:f4:4e:bf:98:
                    48:eb:ca:72:80:8b:7c:ce:d3:c5:ab:35:3b:b8:77:
                    4d:fc:e3:da:99:63:2d:4f:c1:5a:9f:33:f0:62:a9:
                    f2:b2:4a:0b:17:a7:65:ff:08:9c:06:47:6c:b1:d2:
                    80:ef:0e:f5:96:78:5b:6f:4b:f9:70:21:06:9c:b0:
                    96:a2:2a:84:fb:f7:96:4d:d1:a6:d7:be:0f:22:c8:
                    bb:a9:26:8d:92:49:ab:7e:36:d7:f6:49:2e:49:86:
                    8d:1e:3f:c5:3b:89:45:8d:09:5c:09:2a:50:78:56:
                    5f:ed:b9:e7:49:a7:b9:25:b3:08:98:77:53:dd:31:
                    2a:be:67:f7:10:ea:ef:f9:d6:8d:0b:c6:12:79:8d:
                    3d:02:06:73:cc:09:07:40:b1:14:61:fe:e3:fa:10:
                    6c:7d:b3:0c:12:4f:60:8c:9d:64:74:65:0a:21:bb:
                    16:43:ea:20:cc:d6:61:ec:35:17:bb:3a:a0:0e:e9:
                    03:51:ec:7d:04:ce:33:1a:1e:41:d1:c2:0f:d5:75:
                    c2:6c:11:5b:a2:07:09:36:db:21:a2:8e:ec:9e:80:
                    11:77:32:ec:5b:20:b0:ea:c2:52:eb:2a:08:3c:99:
                    6e:86:dc:21:aa:36:fd:d9:89:4d:34:01:2b:66:0a:
                    1c:6d:32:9c:e5:53:b5:b9:c4:b3:ef:72:7e:2a:24:
                    fc:d5:e8:9d:f5:45:8c:50:13:72:8a:49:d8:02:f0:
                    d7:0c:43:77:ee:a7:d8:8f:90:47:47:68:ba:4f:ef:
                    b5:13:c5
                Exponent: 65537 (0x10001)
        X509v3 extensions:
            X509v3 Basic Constraints: 
                CA:FALSE
            Netscape Comment: 
                Easy-RSA Generated Certificate
            X509v3 Subject Key Identifier: 
                FB:90:C8:A7:65:68:C1:FB:BB:04:9A:AC:A0:11:54:C0:00:45:FF:A9
            X509v3 Authority Key Identifier: 
                keyid:12:CD:60:04:D2:A0:80:9E:70:ED:C6:99:B8:7B:2C:C6:52:FD:19:A1
                DirName:/C=US/ST=OH/L=Columbus/O=VikingVPN/OU=MyOrganizationalUnit/CN=VikingVPN CA/name=EasyRSA/emailAddress=me@myhost.mydomain
                serial:CF:35:85:EE:80:BF:2A:3E

            X509v3 Extended Key Usage: 
                TLS Web Client Authentication
            X509v3 Key Usage: 
                Digital Signature
    Signature Algorithm: md5WithRSAEncryption
         b9:c4:0a:65:c9:02:d2:74:53:3f:74:51:f6:88:94:72:b9:5a:
         a9:12:fd:aa:68:d1:77:f2:02:ec:37:81:8f:20:1e:f8:fd:fd:
         8b:cc:cc:96:e8:b7:03:8d:51:4f:76:5e:8d:7e:f2:5e:d2:dc:
         c9:30:81:a2:e7:74:7d:38:71:74:85:36:2f:66:c7:67:c0:e8:
         ab:ed:cc:6e:d8:6f:95:7c:1f:7e:c3:84:0c:84:85:3e:64:e0:
         ae:ee:3a:7e:e2:5f:21:2f:23:a0:83:32:3e:5d:9d:80:22:5d:
         41:0c:be:39:58:e2:99:87:07:9f:9b:1c:6e:a5:e1:f2:44:d3:
         5d:35:17:c2:8e:e6:c7:51:12:1e:16:c1:ef:c4:90:f4:a0:3f:
         b7:92:9e:65:c2:d5:f0:90:c0:29:09:5b:05:f8:d4:d0:4f:5f:
         f1:59:4c:61:5f:77:fb:3e:91:b5:cb:b9:78:6e:9a:a2:2b:7a:
         f0:01:91:ee:4c:df:29:0e:36:d6:da:e0:44:4f:9b:28:32:79:
         58:2d:9f:81:66:87:9c:86:86:64:61:c1:e4:c4:39:4f:66:1b:
         6e:d5:43:da:22:33:b0:51:ed:54:b2:c3:d0:67:e1:ab:aa:63:
         2f:7f:d3:ea:38:20:b0:ca:12:9c:5f:f0:70:c5:08:15:9d:9c:
         e4:90:2d:22:64:a5:12:fd:62:48:6f:cb:d0:4a:1b:56:c4:9b:
         d1:0d:64:1e:69:88:4c:d3:1d:66:03:7f:b2:91:e5:43:19:6b:
         02:0f:ef:22:56:76:d9:0a:e5:4f:ee:86:68:2e:54:38:5e:cb:
         96:fe:14:4a:36:50:55:39:15:e6:0e:37:e8:14:cc:17:0b:92:
         7f:32:5a:24:df:a8:35:9f:c3:1f:21:3e:c1:72:d4:98:6d:7e:
         d4:e9:f4:1d:6b:a7:9c:d4:08:e6:e5:62:01:79:22:29:65:e0:
         85:de:8d:90:29:e5:1e:50:85:4a:97:b2:cc:91:6d:38:83:71:
         34:1a:fe:e1:5b:50:3c:5b:8e:97:49:f6:31:cf:7f:d4:1e:87:
         f0:b1:9a:5c:85:cd:71:fa:4c:62:5d:f0:4e:3a:39:63:ec:80:
         b5:c5:93:0e:34:c3:6d:e4:da:5c:0b:3f:e7:5c:4c:7a:e6:a2:
         f5:27:1a:1c:f9:0c:16:a6:28:ab:af:c5:bb:81:24:1f:2c:31:
         72:bb:f4:5a:9b:32:94:67:ee:80:40:2c:29:26:a2:86:63:3a:
         5e:06:80:8e:e1:f8:d2:c8:1c:d5:f3:54:d1:c9:20:f3:a4:83:
         03:fe:47:1b:16:64:64:6f:3f:2f:b5:cd:50:ec:11:3d:36:13:
         16:7d:54:65:4c:8b:32:10
-----BEGIN CERTIFICATE-----
MIIGrTCCBJWgAwIBAgICGTIwDQYJKoZIhvcNAQEEBQAwgawxCzAJBgNVBAYTAlVT
MQswCQYDVQQIEwJPSDERMA8GA1UEBxMIQ29sdW1idXMxEjAQBgNVBAoTCVZpa2lu
Z1ZQTjEdMBsGA1UECxMUTXlPcmdhbml6YXRpb25hbFVuaXQxFTATBgNVBAMTDFZp
a2luZ1ZQTiBDQTEQMA4GA1UEKRMHRWFzeVJTQTEhMB8GCSqGSIb3DQEJARYSbWVA
bXlob3N0Lm15ZG9tYWluMB4XDTE1MTAxMzAxMDkzNVoXDTI1MTAxMDAxMDkzNVow
HzEdMBsGA1UEAxMUQ2xpZW50MTk5OUNlcnQ2NjI0ZDYwggIiMA0GCSqGSIb3DQEB
AQUAA4ICDwAwggIKAoICAQDc5XKlHB2jMq+tzw+lVP6fyomsrbDF5Mqy+WeG621c
W8n58ZLYSUy6xQxhQzsLhOD/dY2+9UGRqh3W7CyFf1qMIW/eUqZauMdteuCWcBca
cYGPvEn6SW3R/b4+G8Cx8Qv6r7UMvxRjhI1RUBGBG3b7+vHpZOWrvZ80p0VX3Ngy
fAZ7GQjkWTXDoS8cgikKWEGoYKvNDumbr3/pPfmOtCyknyhNT3/x26wMQNR9t3aa
GAaKoMJLDQ5fNsRMbCblWf0kvTU2Sa/Tan7+je9ZYf8mRbhClhl+4B5WHoHT9E6/
mEjrynKAi3zO08WrNTu4d03849qZYy1PwVqfM/BiqfKySgsXp2X/CJwGR2yx0oDv
DvWWeFtvS/lwIQacsJaiKoT795ZN0abXvg8iyLupJo2SSat+Ntf2SS5Jho0eP8U7
iUWNCVwJKlB4Vl/tuedJp7klswiYd1PdMSq+Z/cQ6u/51o0LxhJ5jT0CBnPMCQdA
sRRh/uP6EGx9swwST2CMnWR0ZQohuxZD6iDM1mHsNRe7OqAO6QNR7H0EzjMaHkHR
wg/VdcJsEVuiBwk22yGijuyegBF3MuxbILDqwlLrKgg8mW6G3CGqNv3ZiU00AStm
ChxtMpzlU7W5xLPvcn4qJPzV6J31RYxQE3KKSdgC8NcMQ3fup9iPkEdHaLpP77UT
xQIDAQABo4IBYzCCAV8wCQYDVR0TBAIwADAtBglghkgBhvhCAQ0EIBYeRWFzeS1S
U0EgR2VuZXJhdGVkIENlcnRpZmljYXRlMB0GA1UdDgQWBBT7kMinZWjB+7sEmqyg
EVTAAEX/qTCB4QYDVR0jBIHZMIHWgBQSzWAE0qCAnnDtxpm4eyzGUv0ZoaGBsqSB
rzCBrDELMAkGA1UEBhMCVVMxCzAJBgNVBAgTAk9IMREwDwYDVQQHEwhDb2x1bWJ1
czESMBAGA1UEChMJVmlraW5nVlBOMR0wGwYDVQQLExRNeU9yZ2FuaXphdGlvbmFs
VW5pdDEVMBMGA1UEAxMMVmlraW5nVlBOIENBMRAwDgYDVQQpEwdFYXN5UlNBMSEw
HwYJKoZIhvcNAQkBFhJtZUBteWhvc3QubXlkb21haW6CCQDPNYXugL8qPjATBgNV
HSUEDDAKBggrBgEFBQcDAjALBgNVHQ8EBAMCB4AwDQYJKoZIhvcNAQEEBQADggIB
ALnECmXJAtJ0Uz90UfaIlHK5WqkS/apo0XfyAuw3gY8gHvj9/YvMzJbotwONUU92
Xo1+8l7S3MkwgaLndH04cXSFNi9mx2fA6KvtzG7Yb5V8H37DhAyEhT5k4K7uOn7i
XyEvI6CDMj5dnYAiXUEMvjlY4pmHB5+bHG6l4fJE0101F8KO5sdREh4Wwe/EkPSg
P7eSnmXC1fCQwCkJWwX41NBPX/FZTGFfd/s+kbXLuXhumqIrevABke5M3ykONtba
4ERPmygyeVgtn4Fmh5yGhmRhweTEOU9mG27VQ9oiM7BR7VSyw9Bn4auqYy9/0+o4
ILDKEpxf8HDFCBWdnOSQLSJkpRL9Ykhvy9BKG1bEm9ENZB5piEzTHWYDf7KR5UMZ
awIP7yJWdtkK5U/uhmguVDhey5b+FEo2UFU5FeYON+gUzBcLkn8yWiTfqDWfwx8h
PsFy1JhtftTp9B1rp5zUCOblYgF5Iill4IXejZAp5R5QhUqXssyRbTiDcTQa/uFb
UDxbjpdJ9jHPf9Qeh/CxmlyFzXH6TGJd8E46OWPsgLXFkw40w23k2lwLP+dcTHrm
ovUnGhz5DBamKKuvxbuBJB8sMXK79FqbMpRn7oBALCkmooZjOl4GgI7h+NLIHNXz
VNHJIPOkgwP+RxsWZGRvPy+1zVDsET02ExZ9VGVMizIQ
-----END CERTIFICATE-----
