Certificate:
    Data:
        Version: 3 (0x2)
        Serial Number: 6451 (0x1933)
    Signature Algorithm: md5WithRSAEncryption
        Issuer: C=US, ST=OH, L=Columbus, O=VikingVPN, OU=MyOrganizationalUnit, CN=VikingVPN CA/name=EasyRSA/emailAddress=me@myhost.mydomain
        Validity
            Not Before: Oct 13 01:32:20 2015 GMT
            Not After : Oct 10 01:32:20 2025 GMT
        Subject: CN=Client1999Certaaa72e
        Subject Public Key Info:
            Public Key Algorithm: rsaEncryption
                Public-Key: (4096 bit)
                Modulus:
                    00:ab:dd:ca:94:61:47:91:85:c6:c5:6c:89:a4:df:
                    32:f9:cf:47:04:a3:be:56:23:d7:86:fc:66:28:14:
                    55:d8:26:8d:60:5f:70:bb:22:3c:7c:ba:15:94:d8:
                    d1:8d:8b:f8:64:d9:1c:e8:5a:d2:47:e2:d1:f0:74:
                    21:bd:4f:62:a6:4e:88:4f:2b:cd:6d:47:68:40:f8:
                    f8:af:4c:6c:a7:40:7b:7f:38:e1:87:d9:ab:4b:4a:
                    54:c0:3c:a7:5c:06:4f:14:fd:e1:17:e3:de:68:10:
                    39:7a:d9:ca:1c:08:79:9f:b6:fd:b1:64:47:ba:46:
                    cd:c1:1d:18:21:d5:be:9b:33:f6:ea:3f:df:88:2a:
                    41:ca:a5:47:31:13:e0:74:1c:f2:6a:12:e0:6a:52:
                    79:fe:59:b2:5a:ef:87:6c:41:d8:ab:6c:16:62:65:
                    5a:4d:f7:75:e3:5c:92:d2:5f:82:5c:59:d9:0a:d9:
                    a8:2f:b7:9a:ab:38:34:d7:ea:ad:e5:01:f3:a9:39:
                    20:c6:00:bb:b4:0a:3a:26:0e:a1:64:85:fb:9a:23:
                    1b:51:c6:a8:fe:75:c9:01:42:c7:00:1e:5a:f4:0e:
                    55:37:8c:34:e0:cc:27:9f:75:93:70:50:b6:11:5d:
                    f2:2b:3b:4c:93:fb:83:33:50:10:c2:c6:bf:0d:6a:
                    ee:b3:1a:6c:80:d9:10:c9:95:65:3d:c5:9d:19:2e:
                    e4:e6:05:39:34:9d:74:bf:80:c9:9a:0c:bc:d6:5b:
                    8f:3a:9d:81:98:b7:cd:9a:21:15:2c:f9:fc:0d:3d:
                    34:f7:df:90:b2:c4:83:62:03:5e:54:5a:fe:42:99:
                    bc:c7:b4:59:23:58:39:91:ae:b0:a1:16:a0:ef:76:
                    fb:df:cc:34:0d:fd:e8:17:d4:c0:90:4c:25:fe:ce:
                    76:4c:ae:ce:fb:73:4f:ed:f6:a5:77:14:4d:ed:94:
                    a8:84:96:ab:4e:37:06:be:d3:0c:ed:58:9a:63:fb:
                    5e:dd:ca:63:f6:ab:2a:81:d9:3c:50:a3:f9:7b:90:
                    15:37:0a:66:f8:db:6e:d4:ea:91:b1:82:c1:90:79:
                    ff:8f:46:9a:16:e2:0c:cc:7f:3e:eb:c9:a9:f3:56:
                    85:94:d0:23:16:9d:9a:c4:2e:15:ef:44:bf:01:cc:
                    ad:c6:9f:71:55:73:69:5f:1d:b5:61:89:48:1c:e4:
                    fe:68:99:bc:7e:9f:19:b8:65:05:99:12:e5:5b:e0:
                    62:8f:8b:20:50:f3:56:e2:6f:74:1b:12:60:bf:83:
                    46:91:4b:89:c2:d6:aa:e8:32:8e:de:7d:46:9c:30:
                    c8:bb:4f:64:76:8d:66:25:11:1b:70:a5:04:84:5f:
                    17:0b:c7
                Exponent: 65537 (0x10001)
        X509v3 extensions:
            X509v3 Basic Constraints: 
                CA:FALSE
            Netscape Comment: 
                Easy-RSA Generated Certificate
            X509v3 Subject Key Identifier: 
                C0:DD:2E:D2:61:B8:CE:BB:DF:0A:B9:0F:DC:8D:60:65:0C:88:FC:5C
            X509v3 Authority Key Identifier: 
                keyid:12:CD:60:04:D2:A0:80:9E:70:ED:C6:99:B8:7B:2C:C6:52:FD:19:A1
                DirName:/C=US/ST=OH/L=Columbus/O=VikingVPN/OU=MyOrganizationalUnit/CN=VikingVPN CA/name=EasyRSA/emailAddress=me@myhost.mydomain
                serial:CF:35:85:EE:80:BF:2A:3E

            X509v3 Extended Key Usage: 
                TLS Web Client Authentication
            X509v3 Key Usage: 
                Digital Signature
    Signature Algorithm: md5WithRSAEncryption
         2c:ad:01:19:44:fb:46:8b:49:7c:21:e9:bd:7f:44:09:1e:f9:
         b7:19:18:f9:af:d2:2d:2b:e7:38:53:b6:93:4a:ac:6a:d7:b7:
         5c:01:49:13:e1:85:98:90:f7:4e:94:7a:a4:17:46:3c:3b:0f:
         00:8e:90:86:9d:1f:f8:92:0d:e8:ec:d0:88:6c:d1:1b:0a:5e:
         f7:2c:32:a8:f8:3a:c2:f0:6c:a2:a9:35:d1:bf:26:ad:59:11:
         42:80:1a:90:c8:99:72:34:39:65:df:ed:2f:98:7d:c7:c4:ea:
         2a:e4:47:f9:75:74:0a:3a:06:09:21:6a:df:a8:78:7c:e1:3f:
         6d:66:ee:1c:63:8c:13:ae:69:58:96:69:e7:af:3f:fc:a2:8f:
         d5:8b:7f:2d:72:a6:86:6e:d4:48:e3:3d:82:3b:5c:63:fe:ee:
         c9:cc:b4:cd:c3:08:02:62:2c:1b:22:41:37:b3:ef:19:a1:f0:
         77:aa:b1:81:95:a0:10:3e:8a:c8:87:9b:8b:d4:b1:d1:c5:7f:
         99:35:08:06:7a:bb:ae:53:58:34:be:6b:52:b6:ab:05:8f:ac:
         22:5e:41:76:70:a9:21:73:69:47:40:86:11:90:19:dd:53:b3:
         ab:82:54:a2:fa:f2:1b:f9:74:ca:eb:e2:3c:a1:9d:d7:f5:a6:
         ae:88:22:76:b6:4a:a4:ee:11:50:50:37:3b:cb:1c:66:02:d9:
         16:63:68:63:9c:97:0a:bc:64:1c:16:0c:46:0d:9d:13:3f:e9:
         d1:9c:39:4e:71:d8:7a:22:51:41:a5:3e:0a:23:65:4e:e5:db:
         ed:ae:26:ca:51:07:ef:fe:01:5d:33:12:d8:91:6f:36:10:8b:
         61:69:64:e0:e9:fe:38:42:cd:4a:32:1e:de:58:51:83:3f:af:
         45:f4:6e:4e:de:39:7c:c1:85:ca:32:d5:3b:67:60:49:a3:d0:
         e3:e3:7a:59:06:52:19:1c:6a:ff:b7:a6:94:0b:c9:07:e9:3c:
         29:f5:35:7f:9c:09:d6:25:e4:42:6a:88:de:9e:a7:1b:16:9a:
         6d:ac:77:d2:f9:0f:12:f6:03:12:e2:f8:e2:c4:5b:dd:4d:0c:
         4a:22:51:6a:5c:a9:6d:2c:e0:32:13:bd:dd:11:b8:ee:7a:8b:
         f0:2d:72:e6:26:36:de:ed:ea:0d:13:a1:46:57:51:1d:83:de:
         12:8b:5d:d7:73:5d:54:b0:9d:4c:47:b5:ba:f2:c3:44:bc:71:
         b0:2e:98:50:c4:c0:1b:af:6c:a5:71:f5:78:30:40:b9:4b:38:
         42:07:14:a1:53:fe:8a:32:f1:98:9e:ae:ed:1c:4f:ec:6f:98:
         f3:54:fa:09:8f:99:40:0a
-----BEGIN CERTIFICATE-----
MIIGrTCCBJWgAwIBAgICGTMwDQYJKoZIhvcNAQEEBQAwgawxCzAJBgNVBAYTAlVT
MQswCQYDVQQIEwJPSDERMA8GA1UEBxMIQ29sdW1idXMxEjAQBgNVBAoTCVZpa2lu
Z1ZQTjEdMBsGA1UECxMUTXlPcmdhbml6YXRpb25hbFVuaXQxFTATBgNVBAMTDFZp
a2luZ1ZQTiBDQTEQMA4GA1UEKRMHRWFzeVJTQTEhMB8GCSqGSIb3DQEJARYSbWVA
bXlob3N0Lm15ZG9tYWluMB4XDTE1MTAxMzAxMzIyMFoXDTI1MTAxMDAxMzIyMFow
HzEdMBsGA1UEAxMUQ2xpZW50MTk5OUNlcnRhYWE3MmUwggIiMA0GCSqGSIb3DQEB
AQUAA4ICDwAwggIKAoICAQCr3cqUYUeRhcbFbImk3zL5z0cEo75WI9eG/GYoFFXY
Jo1gX3C7Ijx8uhWU2NGNi/hk2RzoWtJH4tHwdCG9T2KmTohPK81tR2hA+PivTGyn
QHt/OOGH2atLSlTAPKdcBk8U/eEX495oEDl62cocCHmftv2xZEe6Rs3BHRgh1b6b
M/bqP9+IKkHKpUcxE+B0HPJqEuBqUnn+WbJa74dsQdirbBZiZVpN93XjXJLSX4Jc
WdkK2agvt5qrODTX6q3lAfOpOSDGALu0CjomDqFkhfuaIxtRxqj+dckBQscAHlr0
DlU3jDTgzCefdZNwULYRXfIrO0yT+4MzUBDCxr8Nau6zGmyA2RDJlWU9xZ0ZLuTm
BTk0nXS/gMmaDLzWW486nYGYt82aIRUs+fwNPTT335CyxINiA15UWv5CmbzHtFkj
WDmRrrChFqDvdvvfzDQN/egX1MCQTCX+znZMrs77c0/t9qV3FE3tlKiElqtONwa+
0wztWJpj+17dymP2qyqB2TxQo/l7kBU3Cmb4227U6pGxgsGQef+PRpoW4gzMfz7r
yanzVoWU0CMWnZrELhXvRL8BzK3Gn3FVc2lfHbVhiUgc5P5ombx+nxm4ZQWZEuVb
4GKPiyBQ81bib3QbEmC/g0aRS4nC1qroMo7efUacMMi7T2R2jWYlERtwpQSEXxcL
xwIDAQABo4IBYzCCAV8wCQYDVR0TBAIwADAtBglghkgBhvhCAQ0EIBYeRWFzeS1S
U0EgR2VuZXJhdGVkIENlcnRpZmljYXRlMB0GA1UdDgQWBBTA3S7SYbjOu98KuQ/c
jWBlDIj8XDCB4QYDVR0jBIHZMIHWgBQSzWAE0qCAnnDtxpm4eyzGUv0ZoaGBsqSB
rzCBrDELMAkGA1UEBhMCVVMxCzAJBgNVBAgTAk9IMREwDwYDVQQHEwhDb2x1bWJ1
czESMBAGA1UEChMJVmlraW5nVlBOMR0wGwYDVQQLExRNeU9yZ2FuaXphdGlvbmFs
VW5pdDEVMBMGA1UEAxMMVmlraW5nVlBOIENBMRAwDgYDVQQpEwdFYXN5UlNBMSEw
HwYJKoZIhvcNAQkBFhJtZUBteWhvc3QubXlkb21haW6CCQDPNYXugL8qPjATBgNV
HSUEDDAKBggrBgEFBQcDAjALBgNVHQ8EBAMCB4AwDQYJKoZIhvcNAQEEBQADggIB
ACytARlE+0aLSXwh6b1/RAke+bcZGPmv0i0r5zhTtpNKrGrXt1wBSRPhhZiQ906U
eqQXRjw7DwCOkIadH/iSDejs0Ihs0RsKXvcsMqj4OsLwbKKpNdG/Jq1ZEUKAGpDI
mXI0OWXf7S+YfcfE6irkR/l1dAo6Bgkhat+oeHzhP21m7hxjjBOuaViWaeevP/yi
j9WLfy1ypoZu1EjjPYI7XGP+7snMtM3DCAJiLBsiQTez7xmh8HeqsYGVoBA+isiH
m4vUsdHFf5k1CAZ6u65TWDS+a1K2qwWPrCJeQXZwqSFzaUdAhhGQGd1Ts6uCVKL6
8hv5dMrr4jyhndf1pq6IIna2SqTuEVBQNzvLHGYC2RZjaGOclwq8ZBwWDEYNnRM/
6dGcOU5x2HoiUUGlPgojZU7l2+2uJspRB+/+AV0zEtiRbzYQi2FpZODp/jhCzUoy
Ht5YUYM/r0X0bk7eOXzBhcoy1TtnYEmj0OPjelkGUhkcav+3ppQLyQfpPCn1NX+c
CdYl5EJqiN6epxsWmm2sd9L5DxL2AxLi+OLEW91NDEoiUWpcqW0s4DITvd0RuO56
i/AtcuYmNt7t6g0ToUZXUR2D3hKLXddzXVSwnUxHtbryw0S8cbAumFDEwBuvbKVx
9XgwQLlLOEIHFKFT/ooy8Zieru0cT+xvmPNU+gmPmUAK
-----END CERTIFICATE-----
