Certificate:
    Data:
        Version: 3 (0x2)
        Serial Number: 6474 (0x194a)
    Signature Algorithm: md5WithRSAEncryption
        Issuer: C=US, ST=OH, L=Columbus, O=VikingVPN, OU=MyOrganizationalUnit, CN=VikingVPN CA/name=EasyRSA/emailAddress=me@myhost.mydomain
        Validity
            Not Before: Oct 15 15:56:23 2015 GMT
            Not After : Oct 12 15:56:23 2025 GMT
        Subject: CN=Client2003Cert73a3c9
        Subject Public Key Info:
            Public Key Algorithm: rsaEncryption
                Public-Key: (4096 bit)
                Modulus:
                    00:bb:8d:d1:a1:84:c7:56:70:80:96:9f:ff:1a:d1:
                    b9:5a:69:b9:31:bb:49:20:6b:38:09:16:1b:55:62:
                    84:29:59:33:17:9d:65:5b:62:96:6c:e4:35:92:b0:
                    bb:6a:cb:c4:6f:f2:9f:3f:2e:f7:c3:42:db:0c:46:
                    e5:2e:db:75:d5:ac:45:8a:f1:0b:84:37:25:82:a1:
                    47:7f:a4:0f:4a:59:1c:51:ee:d2:47:de:a0:ff:c7:
                    d8:7f:aa:90:f7:1a:97:86:78:1a:b1:68:0f:96:ab:
                    16:f4:12:f7:45:1f:88:f4:13:0a:b4:ae:81:3d:f3:
                    24:eb:68:e8:6e:13:80:13:bc:1c:79:bc:ab:09:a2:
                    34:60:4a:c9:f7:fe:c3:98:02:42:39:72:00:0e:44:
                    35:95:92:23:db:78:2c:66:db:be:84:14:0d:43:c5:
                    20:31:ae:7e:82:6b:8f:0e:d4:30:34:22:0a:95:1f:
                    65:f3:a4:dd:3f:d8:28:f4:df:f4:97:35:29:c6:38:
                    ef:2f:53:6f:d6:bd:46:57:26:80:08:c9:63:7d:23:
                    0c:b0:c5:f2:93:85:8e:35:35:07:c6:d3:82:a4:36:
                    3e:b0:42:ba:7d:12:af:9f:ed:92:e8:1b:df:02:41:
                    67:b8:f0:26:9f:b7:9c:9b:5c:69:7b:c3:c0:bf:97:
                    ff:2a:d1:de:52:35:fe:94:18:84:26:d3:14:c5:61:
                    71:d3:d9:dc:f2:0f:59:19:8d:aa:83:01:61:74:6d:
                    cb:b0:59:22:41:6b:07:a1:b1:22:40:e7:89:c4:12:
                    0e:e3:52:6b:20:b4:5c:83:54:9e:02:93:51:3c:b5:
                    3b:00:7e:27:77:1e:4e:05:ac:70:a6:5a:6b:83:9b:
                    c8:e7:f6:91:a1:b2:1a:19:73:1c:2f:27:fd:e8:4d:
                    d5:a1:33:c6:8b:8f:3b:24:87:90:a5:a7:8b:89:23:
                    e9:ae:4b:a9:74:bc:da:7b:8d:49:db:6a:b8:80:f6:
                    c2:a6:82:f5:5d:90:01:d2:14:4a:3e:3f:e0:1d:f3:
                    90:8b:00:f9:ae:e3:ed:0c:1a:52:41:9f:69:15:c5:
                    cb:87:a1:ee:12:cb:11:9c:b2:2d:02:80:11:40:ca:
                    b7:9d:8a:3f:28:0b:07:ba:db:c0:66:d4:4d:3d:1e:
                    98:85:54:e6:1f:ab:24:76:f1:50:7d:0b:2d:74:6f:
                    5f:2c:31:47:10:35:a6:ad:19:20:5e:f9:bd:16:59:
                    74:d1:14:73:d8:1c:61:61:0a:73:75:f4:91:a9:56:
                    67:9c:81:a3:c2:6d:55:a8:00:3a:7d:8b:c2:45:88:
                    30:b7:fb:b0:d2:e9:cf:7d:b7:68:d6:65:6b:42:fd:
                    85:ce:21
                Exponent: 65537 (0x10001)
        X509v3 extensions:
            X509v3 Basic Constraints: 
                CA:FALSE
            Netscape Comment: 
                Easy-RSA Generated Certificate
            X509v3 Subject Key Identifier: 
                1D:40:25:5B:83:F0:69:DA:D1:F6:7F:65:56:11:9F:97:42:FB:66:2D
            X509v3 Authority Key Identifier: 
                keyid:12:CD:60:04:D2:A0:80:9E:70:ED:C6:99:B8:7B:2C:C6:52:FD:19:A1
                DirName:/C=US/ST=OH/L=Columbus/O=VikingVPN/OU=MyOrganizationalUnit/CN=VikingVPN CA/name=EasyRSA/emailAddress=me@myhost.mydomain
                serial:CF:35:85:EE:80:BF:2A:3E

            X509v3 Extended Key Usage: 
                TLS Web Client Authentication
            X509v3 Key Usage: 
                Digital Signature
    Signature Algorithm: md5WithRSAEncryption
         21:f6:8e:7f:06:59:cf:59:e5:43:60:b6:96:fe:38:97:ff:34:
         6b:b9:91:f2:03:3a:2c:23:ae:a5:76:d4:9a:f0:d5:87:23:48:
         80:76:9e:ab:41:c0:97:44:58:ee:76:cb:9a:83:eb:0d:8c:03:
         93:33:00:a5:eb:17:69:e5:6d:a5:ba:75:2e:c6:3e:4c:61:af:
         cc:6d:8b:2a:81:0b:db:02:2c:30:52:26:fd:30:de:50:76:a6:
         2a:69:85:74:a3:17:27:15:da:fb:08:d8:71:0d:a0:bf:7d:03:
         31:ff:26:98:fd:4d:4e:be:1b:f8:6a:e9:49:96:68:3c:5a:fb:
         27:59:d2:fd:15:98:ea:ce:de:15:21:a0:70:87:3b:03:b3:22:
         3a:b5:32:03:03:7e:e9:6b:35:09:d7:62:f1:96:de:03:97:4e:
         54:2a:4e:d1:a9:1a:46:f3:6f:9f:46:9d:22:07:cf:b9:f9:df:
         58:fe:c5:f7:d5:17:6d:07:24:fc:d6:0d:e0:bf:c8:07:7b:4d:
         72:9c:26:92:3a:d0:a6:fe:5f:dd:25:6e:51:71:b6:ab:f4:8d:
         15:ae:94:b9:8b:78:40:cb:34:bb:91:63:e3:1a:21:fc:75:55:
         0b:65:d2:37:78:ac:c6:32:d5:64:ed:12:ac:2d:a3:ad:cb:09:
         32:8c:87:2b:c9:04:3f:f9:6e:9b:f1:0d:2a:c6:0b:68:14:eb:
         b0:88:14:d4:4f:21:e0:85:a8:e0:3e:f1:87:87:cc:41:7c:09:
         06:3c:e6:8c:f5:58:7b:6b:46:5d:43:2b:03:c5:19:68:f1:3d:
         5f:b3:5b:f3:e8:c3:a3:65:2d:92:d1:07:d4:32:f1:8a:62:a5:
         5c:34:d0:49:b4:96:54:2d:e7:52:1f:0e:a9:1c:9c:f6:61:20:
         46:35:78:e6:56:6c:ad:ff:b8:23:81:03:ed:c3:db:34:e9:2c:
         dd:d7:83:3b:39:09:75:f1:d2:4e:35:ef:8b:cf:94:e1:a1:cb:
         02:05:da:b4:c4:5f:45:58:c1:38:bb:66:c7:52:39:61:36:cc:
         b8:0a:1e:83:a2:fd:ae:f1:2d:94:e0:49:ef:8d:0f:e3:79:dc:
         b4:12:e9:df:03:48:8c:c3:04:95:df:f9:1d:e2:9d:71:d7:ab:
         3e:04:84:6b:ff:83:cd:34:99:85:bc:aa:9d:ce:ae:f3:ee:57:
         5e:b1:43:84:ef:73:f5:e1:50:bb:f9:dd:25:db:79:79:9e:ef:
         e3:60:0b:ff:03:bc:87:94:82:80:b6:ff:eb:f9:60:a9:68:cd:
         35:3a:72:e8:1c:8a:ce:bb:a3:c8:30:2b:92:8e:b7:88:59:79:
         9a:25:4f:c5:ca:c5:f9:bb
-----BEGIN CERTIFICATE-----
MIIGrTCCBJWgAwIBAgICGUowDQYJKoZIhvcNAQEEBQAwgawxCzAJBgNVBAYTAlVT
MQswCQYDVQQIEwJPSDERMA8GA1UEBxMIQ29sdW1idXMxEjAQBgNVBAoTCVZpa2lu
Z1ZQTjEdMBsGA1UECxMUTXlPcmdhbml6YXRpb25hbFVuaXQxFTATBgNVBAMTDFZp
a2luZ1ZQTiBDQTEQMA4GA1UEKRMHRWFzeVJTQTEhMB8GCSqGSIb3DQEJARYSbWVA
bXlob3N0Lm15ZG9tYWluMB4XDTE1MTAxNTE1NTYyM1oXDTI1MTAxMjE1NTYyM1ow
HzEdMBsGA1UEAxMUQ2xpZW50MjAwM0NlcnQ3M2EzYzkwggIiMA0GCSqGSIb3DQEB
AQUAA4ICDwAwggIKAoICAQC7jdGhhMdWcICWn/8a0blaabkxu0kgazgJFhtVYoQp
WTMXnWVbYpZs5DWSsLtqy8Rv8p8/LvfDQtsMRuUu23XVrEWK8QuENyWCoUd/pA9K
WRxR7tJH3qD/x9h/qpD3GpeGeBqxaA+Wqxb0EvdFH4j0Ewq0roE98yTraOhuE4AT
vBx5vKsJojRgSsn3/sOYAkI5cgAORDWVkiPbeCxm276EFA1DxSAxrn6Ca48O1DA0
IgqVH2XzpN0/2Cj03/SXNSnGOO8vU2/WvUZXJoAIyWN9IwywxfKThY41NQfG04Kk
Nj6wQrp9Eq+f7ZLoG98CQWe48Caft5ybXGl7w8C/l/8q0d5SNf6UGIQm0xTFYXHT
2dzyD1kZjaqDAWF0bcuwWSJBawehsSJA54nEEg7jUmsgtFyDVJ4Ck1E8tTsAfid3
Hk4FrHCmWmuDm8jn9pGhshoZcxwvJ/3oTdWhM8aLjzskh5Clp4uJI+muS6l0vNp7
jUnbariA9sKmgvVdkAHSFEo+P+Ad85CLAPmu4+0MGlJBn2kVxcuHoe4SyxGcsi0C
gBFAyredij8oCwe628Bm1E09HpiFVOYfqyR28VB9Cy10b18sMUcQNaatGSBe+b0W
WXTRFHPYHGFhCnN19JGpVmecgaPCbVWoADp9i8JFiDC3+7DS6c99t2jWZWtC/YXO
IQIDAQABo4IBYzCCAV8wCQYDVR0TBAIwADAtBglghkgBhvhCAQ0EIBYeRWFzeS1S
U0EgR2VuZXJhdGVkIENlcnRpZmljYXRlMB0GA1UdDgQWBBQdQCVbg/Bp2tH2f2VW
EZ+XQvtmLTCB4QYDVR0jBIHZMIHWgBQSzWAE0qCAnnDtxpm4eyzGUv0ZoaGBsqSB
rzCBrDELMAkGA1UEBhMCVVMxCzAJBgNVBAgTAk9IMREwDwYDVQQHEwhDb2x1bWJ1
czESMBAGA1UEChMJVmlraW5nVlBOMR0wGwYDVQQLExRNeU9yZ2FuaXphdGlvbmFs
VW5pdDEVMBMGA1UEAxMMVmlraW5nVlBOIENBMRAwDgYDVQQpEwdFYXN5UlNBMSEw
HwYJKoZIhvcNAQkBFhJtZUBteWhvc3QubXlkb21haW6CCQDPNYXugL8qPjATBgNV
HSUEDDAKBggrBgEFBQcDAjALBgNVHQ8EBAMCB4AwDQYJKoZIhvcNAQEEBQADggIB
ACH2jn8GWc9Z5UNgtpb+OJf/NGu5kfIDOiwjrqV21Jrw1YcjSIB2nqtBwJdEWO52
y5qD6w2MA5MzAKXrF2nlbaW6dS7GPkxhr8xtiyqBC9sCLDBSJv0w3lB2pipphXSj
FycV2vsI2HENoL99AzH/Jpj9TU6+G/hq6UmWaDxa+ydZ0v0VmOrO3hUhoHCHOwOz
Ijq1MgMDfulrNQnXYvGW3gOXTlQqTtGpGkbzb59GnSIHz7n531j+xffVF20HJPzW
DeC/yAd7TXKcJpI60Kb+X90lblFxtqv0jRWulLmLeEDLNLuRY+MaIfx1VQtl0jd4
rMYy1WTtEqwto63LCTKMhyvJBD/5bpvxDSrGC2gU67CIFNRPIeCFqOA+8YeHzEF8
CQY85oz1WHtrRl1DKwPFGWjxPV+zW/Pow6NlLZLRB9Qy8YpipVw00Em0llQt51If
DqkcnPZhIEY1eOZWbK3/uCOBA+3D2zTpLN3Xgzs5CXXx0k4174vPlOGhywIF2rTE
X0VYwTi7ZsdSOWE2zLgKHoOi/a7xLZTgSe+ND+N53LQS6d8DSIzDBJXf+R3inXHX
qz4EhGv/g800mYW8qp3OrvPuV16xQ4Tvc/XhULv53SXbeXme7+NgC/8DvIeUgoC2
/+v5YKlozTU6cugcis67o8gwK5KOt4hZeZolT8XKxfm7
-----END CERTIFICATE-----
