Certificate:
    Data:
        Version: 3 (0x2)
        Serial Number: 6479 (0x194f)
    Signature Algorithm: md5WithRSAEncryption
        Issuer: C=US, ST=OH, L=Columbus, O=VikingVPN, OU=MyOrganizationalUnit, CN=VikingVPN CA/name=EasyRSA/emailAddress=me@myhost.mydomain
        Validity
            Not Before: Oct 17 03:18:49 2015 GMT
            Not After : Oct 14 03:18:49 2025 GMT
        Subject: CN=Client2005Certb6b4fd
        Subject Public Key Info:
            Public Key Algorithm: rsaEncryption
                Public-Key: (4096 bit)
                Modulus:
                    00:e4:15:da:23:08:a4:cc:49:4c:88:47:a9:f2:14:
                    fb:99:6a:82:e9:cf:33:38:5d:10:6d:54:bc:cf:01:
                    94:9d:bc:34:56:bb:85:20:2b:6c:d0:50:ae:3d:70:
                    c3:86:55:5c:2c:4f:8e:58:02:16:e8:cd:be:e4:a8:
                    5c:fc:29:59:48:81:6b:00:53:f0:65:28:89:c2:7d:
                    57:ac:89:62:a1:c6:e0:56:14:05:9c:f9:1c:d3:23:
                    19:40:05:50:35:4d:c1:5d:28:78:09:69:88:1a:48:
                    15:a8:30:6d:8e:b9:0a:e2:02:56:bb:ae:17:50:30:
                    76:46:ab:1b:f9:05:97:41:00:fe:98:0b:fc:aa:23:
                    80:58:23:75:af:8c:0b:7e:d6:52:4f:86:1f:91:ef:
                    3a:3c:7a:09:13:87:62:5b:23:47:3c:85:44:6f:29:
                    55:c3:f0:62:d9:84:a1:37:48:be:95:b4:be:f8:5a:
                    ae:d6:a1:67:40:fc:b5:ba:6d:a1:4d:f8:97:c5:91:
                    92:76:4a:d6:7b:51:97:2c:f6:18:c7:51:f3:36:5b:
                    30:84:d4:23:cd:c1:bc:ab:7c:2e:1d:5b:59:58:56:
                    fe:ef:fc:79:ef:11:92:0e:96:23:13:04:d7:43:2b:
                    a6:c8:5e:c0:cb:c4:9c:b2:22:2d:f6:20:0d:dc:7c:
                    44:fc:b8:45:4d:f9:46:45:d4:7f:dd:a2:36:42:4d:
                    38:b6:77:06:eb:82:18:bb:73:d5:93:3b:ba:49:8f:
                    fc:c2:80:79:9f:a6:18:7c:e6:9b:bd:ce:18:6d:2b:
                    27:5b:69:44:6c:e6:d7:a8:7d:39:a7:33:db:af:7e:
                    1e:7b:3f:c6:ca:75:ba:36:f6:51:82:ab:ed:12:a4:
                    ea:f7:1a:f4:8f:11:8e:fe:5e:4c:7b:b8:10:4e:60:
                    f3:24:08:f6:94:d5:d8:a3:ba:aa:25:c1:bd:be:a4:
                    db:5a:32:e6:3c:75:ed:a1:9c:c7:02:0a:52:a1:c9:
                    d2:d7:e9:85:67:eb:da:32:f0:66:2c:6b:00:25:fa:
                    ac:95:ef:ba:ec:0a:6e:4e:e3:cd:a0:ea:b0:1d:cb:
                    23:73:ad:7d:22:5b:e1:da:10:4c:2b:b0:24:33:db:
                    52:6b:4b:36:89:b1:95:dd:06:ab:18:95:96:09:5e:
                    32:b2:1c:7d:43:0a:6a:23:82:3e:f9:0b:97:11:02:
                    49:07:a9:43:08:07:24:6a:4e:ea:dc:10:bc:f2:da:
                    5d:0c:37:df:59:65:30:d4:c5:44:20:a2:a0:07:7a:
                    24:34:cd:cd:78:87:b7:14:44:5c:53:30:a6:72:f6:
                    7d:2e:26:93:c6:73:1c:c9:84:a4:9f:39:66:f0:f3:
                    d7:d5:0d
                Exponent: 65537 (0x10001)
        X509v3 extensions:
            X509v3 Basic Constraints: 
                CA:FALSE
            Netscape Comment: 
                Easy-RSA Generated Certificate
            X509v3 Subject Key Identifier: 
                DC:B1:B1:D6:9B:98:A3:D1:05:19:EB:83:B2:8E:C7:1B:1C:25:89:C6
            X509v3 Authority Key Identifier: 
                keyid:12:CD:60:04:D2:A0:80:9E:70:ED:C6:99:B8:7B:2C:C6:52:FD:19:A1
                DirName:/C=US/ST=OH/L=Columbus/O=VikingVPN/OU=MyOrganizationalUnit/CN=VikingVPN CA/name=EasyRSA/emailAddress=me@myhost.mydomain
                serial:CF:35:85:EE:80:BF:2A:3E

            X509v3 Extended Key Usage: 
                TLS Web Client Authentication
            X509v3 Key Usage: 
                Digital Signature
    Signature Algorithm: md5WithRSAEncryption
         04:fe:9c:b1:50:d3:b6:94:f7:ae:22:11:47:fd:19:5a:7c:46:
         c2:1e:32:b5:ae:6c:ef:47:d2:dd:7c:13:37:54:48:85:a8:58:
         18:94:4b:93:db:38:87:cf:ce:c3:bf:7f:29:62:16:4b:fa:26:
         12:6c:de:e4:2a:25:10:24:16:12:d5:c3:14:6c:2c:50:f4:04:
         1b:65:db:ff:bf:8e:12:7f:34:ce:74:25:53:39:ba:29:cf:90:
         a1:c8:5d:d1:c2:dc:73:9c:69:ee:2b:fe:5a:11:1b:a3:a7:54:
         5f:c8:2f:f0:b6:b5:4b:11:6c:f8:70:ac:d4:54:f3:a3:ef:59:
         99:36:c8:ca:55:c8:67:2f:fb:b8:a9:d4:2e:3c:ca:ee:1b:db:
         dd:69:c7:65:a0:8e:ff:f9:8a:3a:d7:07:f1:bd:96:56:58:c5:
         2b:63:f1:02:9c:e8:e8:e7:b0:92:c0:e8:50:75:37:70:5b:ce:
         09:e2:78:cc:50:94:b1:3d:ac:c9:a9:25:f0:62:99:21:1c:98:
         49:d1:fe:30:bf:04:76:28:91:9c:b8:6b:65:49:f6:e7:d7:c7:
         0c:80:8a:9a:61:32:0a:77:f6:ba:40:69:21:91:7d:67:a1:cc:
         d0:1f:6d:6b:a1:eb:5a:0a:37:46:34:5b:79:8a:bc:e4:b2:74:
         9e:15:41:62:7b:1c:e8:df:fa:5f:bf:7f:9b:39:c4:2e:32:80:
         2a:ec:58:77:64:7b:2f:37:c3:ef:54:00:f0:f8:92:07:29:5e:
         1a:33:56:05:83:3a:12:3e:b5:32:d3:ab:1b:c7:97:1d:31:2d:
         31:77:85:26:5e:e6:a5:73:0a:f0:6e:54:ec:bf:47:cd:c2:63:
         d7:2e:d9:41:91:28:99:22:5a:87:70:85:dd:10:f3:50:95:44:
         0d:14:06:cc:7d:fa:e2:cf:bd:07:22:42:37:a2:27:2f:04:92:
         9a:5b:4f:55:46:82:07:66:49:47:e8:2f:8d:d1:ef:b5:46:d7:
         86:85:3e:7e:bc:08:ae:69:26:c5:3c:95:bc:97:c9:0f:db:c5:
         64:cf:6f:77:db:18:15:27:c9:fe:86:e1:5e:e1:84:4e:b6:20:
         b5:71:91:56:17:68:24:40:8e:21:e4:9a:5d:01:d9:02:40:ee:
         ea:fa:df:97:90:56:71:f0:f7:1b:3c:bb:28:ce:8c:b7:d0:43:
         49:f9:67:11:8d:7b:74:2d:31:e6:2a:79:1c:ef:ed:0e:e7:35:
         af:0d:07:cd:f8:a5:db:77:68:08:e8:44:22:26:3d:e3:03:fb:
         52:69:64:30:47:4c:31:95:92:ce:e0:44:3d:a0:60:cf:42:8d:
         df:4f:c3:89:72:ae:ee:7a
-----BEGIN CERTIFICATE-----
MIIGrTCCBJWgAwIBAgICGU8wDQYJKoZIhvcNAQEEBQAwgawxCzAJBgNVBAYTAlVT
MQswCQYDVQQIEwJPSDERMA8GA1UEBxMIQ29sdW1idXMxEjAQBgNVBAoTCVZpa2lu
Z1ZQTjEdMBsGA1UECxMUTXlPcmdhbml6YXRpb25hbFVuaXQxFTATBgNVBAMTDFZp
a2luZ1ZQTiBDQTEQMA4GA1UEKRMHRWFzeVJTQTEhMB8GCSqGSIb3DQEJARYSbWVA
bXlob3N0Lm15ZG9tYWluMB4XDTE1MTAxNzAzMTg0OVoXDTI1MTAxNDAzMTg0OVow
HzEdMBsGA1UEAxMUQ2xpZW50MjAwNUNlcnRiNmI0ZmQwggIiMA0GCSqGSIb3DQEB
AQUAA4ICDwAwggIKAoICAQDkFdojCKTMSUyIR6nyFPuZaoLpzzM4XRBtVLzPAZSd
vDRWu4UgK2zQUK49cMOGVVwsT45YAhbozb7kqFz8KVlIgWsAU/BlKInCfVesiWKh
xuBWFAWc+RzTIxlABVA1TcFdKHgJaYgaSBWoMG2OuQriAla7rhdQMHZGqxv5BZdB
AP6YC/yqI4BYI3WvjAt+1lJPhh+R7zo8egkTh2JbI0c8hURvKVXD8GLZhKE3SL6V
tL74Wq7WoWdA/LW6baFN+JfFkZJ2StZ7UZcs9hjHUfM2WzCE1CPNwbyrfC4dW1lY
Vv7v/HnvEZIOliMTBNdDK6bIXsDLxJyyIi32IA3cfET8uEVN+UZF1H/dojZCTTi2
dwbrghi7c9WTO7pJj/zCgHmfphh85pu9zhhtKydbaURs5teofTmnM9uvfh57P8bK
dbo29lGCq+0SpOr3GvSPEY7+Xkx7uBBOYPMkCPaU1dijuqolwb2+pNtaMuY8de2h
nMcCClKhydLX6YVn69oy8GYsawAl+qyV77rsCm5O482g6rAdyyNzrX0iW+HaEEwr
sCQz21JrSzaJsZXdBqsYlZYJXjKyHH1DCmojgj75C5cRAkkHqUMIByRqTurcELzy
2l0MN99ZZTDUxUQgoqAHeiQ0zc14h7cURFxTMKZy9n0uJpPGcxzJhKSfOWbw89fV
DQIDAQABo4IBYzCCAV8wCQYDVR0TBAIwADAtBglghkgBhvhCAQ0EIBYeRWFzeS1S
U0EgR2VuZXJhdGVkIENlcnRpZmljYXRlMB0GA1UdDgQWBBTcsbHWm5ij0QUZ64Oy
jscbHCWJxjCB4QYDVR0jBIHZMIHWgBQSzWAE0qCAnnDtxpm4eyzGUv0ZoaGBsqSB
rzCBrDELMAkGA1UEBhMCVVMxCzAJBgNVBAgTAk9IMREwDwYDVQQHEwhDb2x1bWJ1
czESMBAGA1UEChMJVmlraW5nVlBOMR0wGwYDVQQLExRNeU9yZ2FuaXphdGlvbmFs
VW5pdDEVMBMGA1UEAxMMVmlraW5nVlBOIENBMRAwDgYDVQQpEwdFYXN5UlNBMSEw
HwYJKoZIhvcNAQkBFhJtZUBteWhvc3QubXlkb21haW6CCQDPNYXugL8qPjATBgNV
HSUEDDAKBggrBgEFBQcDAjALBgNVHQ8EBAMCB4AwDQYJKoZIhvcNAQEEBQADggIB
AAT+nLFQ07aU964iEUf9GVp8RsIeMrWubO9H0t18EzdUSIWoWBiUS5PbOIfPzsO/
fyliFkv6JhJs3uQqJRAkFhLVwxRsLFD0BBtl2/+/jhJ/NM50JVM5uinPkKHIXdHC
3HOcae4r/loRG6OnVF/IL/C2tUsRbPhwrNRU86PvWZk2yMpVyGcv+7ip1C48yu4b
291px2Wgjv/5ijrXB/G9llZYxStj8QKc6OjnsJLA6FB1N3BbzgnieMxQlLE9rMmp
JfBimSEcmEnR/jC/BHYokZy4a2VJ9ufXxwyAipphMgp39rpAaSGRfWehzNAfbWuh
61oKN0Y0W3mKvOSydJ4VQWJ7HOjf+l+/f5s5xC4ygCrsWHdkey83w+9UAPD4kgcp
XhozVgWDOhI+tTLTqxvHlx0xLTF3hSZe5qVzCvBuVOy/R83CY9cu2UGRKJkiWodw
hd0Q81CVRA0UBsx9+uLPvQciQjeiJy8EkppbT1VGggdmSUfoL43R77VG14aFPn68
CK5pJsU8lbyXyQ/bxWTPb3fbGBUnyf6G4V7hhE62ILVxkVYXaCRAjiHkml0B2QJA
7ur635eQVnHw9xs8uyjOjLfQQ0n5ZxGNe3QtMeYqeRzv7Q7nNa8NB834pdt3aAjo
RCImPeMD+1JpZDBHTDGVks7gRD2gYM9Cjd9Pw4lyru56
-----END CERTIFICATE-----
