Certificate:
    Data:
        Version: 3 (0x2)
        Serial Number: 6488 (0x1958)
    Signature Algorithm: md5WithRSAEncryption
        Issuer: C=US, ST=OH, L=Columbus, O=VikingVPN, OU=MyOrganizationalUnit, CN=VikingVPN CA/name=EasyRSA/emailAddress=me@myhost.mydomain
        Validity
            Not Before: Oct 18 16:59:04 2015 GMT
            Not After : Oct 15 16:59:04 2025 GMT
        Subject: CN=Client1857Cert808fc5
        Subject Public Key Info:
            Public Key Algorithm: rsaEncryption
                Public-Key: (4096 bit)
                Modulus:
                    00:cc:92:44:8a:b9:b4:42:5c:8f:87:aa:6d:f5:fd:
                    d9:3c:55:17:59:a0:6e:4e:ca:ee:e9:c4:c3:d7:ac:
                    b7:9e:11:df:9d:0f:e3:5d:81:2c:f3:be:6d:c9:80:
                    e3:4c:fe:98:d3:4a:94:fa:65:49:2d:87:ab:ea:a9:
                    92:76:fc:47:28:ac:d7:f2:6b:5b:d4:01:86:9b:3b:
                    e6:26:c3:14:b7:8f:19:3c:d9:07:08:1a:7b:f4:60:
                    ef:9d:7d:b3:ce:50:ac:67:72:a7:2b:87:47:66:ec:
                    8b:9e:b8:85:97:f0:0d:32:de:cf:97:a6:fd:5d:c6:
                    2f:ec:0d:da:ee:cb:d4:0c:3c:5d:9a:8d:4b:d9:ac:
                    72:52:62:37:02:ef:69:27:22:0b:08:4a:d9:20:77:
                    01:1f:75:cf:bf:be:68:7f:1f:a1:a5:4b:26:ac:a2:
                    5a:f1:2d:5b:d3:05:3f:be:2b:39:f9:40:95:86:4e:
                    8d:d4:14:95:cd:f2:93:ef:5f:46:20:81:e6:eb:ef:
                    06:77:43:40:56:f4:59:39:9c:62:42:64:3a:cd:de:
                    58:b6:d8:38:63:06:3f:ea:6c:85:e4:ba:c5:d7:2f:
                    dd:5e:77:10:71:d8:68:20:e4:bd:6c:8c:a1:7c:e8:
                    f7:ec:fa:64:8b:15:ba:53:c6:40:3e:76:77:df:aa:
                    27:cd:76:34:9c:86:97:99:bc:d7:92:06:51:dd:7e:
                    a5:b9:7d:87:5a:6c:05:52:09:10:63:3f:a5:c6:83:
                    7f:81:0e:ee:79:ab:cf:fb:eb:56:4a:1e:26:cb:a8:
                    98:4d:e9:cc:85:94:5d:30:85:c1:04:2e:fe:41:c8:
                    b7:73:2e:03:fd:ba:aa:77:33:5a:c7:09:80:fc:95:
                    35:46:e0:43:9c:b6:3d:48:08:e6:22:c0:c2:4e:7e:
                    23:7f:b2:44:1f:48:05:c7:85:44:e4:d8:a8:e2:3e:
                    32:09:dd:57:8b:b5:30:d8:a3:c6:55:31:0d:e9:cd:
                    bc:10:a9:4f:60:d1:82:a1:f9:60:02:62:77:89:1e:
                    5c:93:b6:18:83:ed:1d:53:bf:85:17:e3:04:d8:1f:
                    e1:39:0d:6c:3a:f7:d9:e6:65:7c:2f:ad:77:09:a7:
                    bb:0e:23:db:8e:11:81:01:63:02:f5:96:3b:92:e9:
                    f3:22:40:85:2b:9f:5a:c4:4c:fb:f1:c6:dd:44:99:
                    a3:d3:43:71:70:bd:87:42:03:d9:b1:c4:f2:3a:41:
                    0b:28:26:6b:16:f5:13:da:9a:ab:07:e0:1e:5c:5a:
                    70:93:11:95:ce:1a:fb:bd:ba:4d:8f:ca:cc:5e:43:
                    3f:82:88:b9:f3:c4:ed:2c:63:44:c7:98:e6:cb:e9:
                    06:0a:c3
                Exponent: 65537 (0x10001)
        X509v3 extensions:
            X509v3 Basic Constraints: 
                CA:FALSE
            Netscape Comment: 
                Easy-RSA Generated Certificate
            X509v3 Subject Key Identifier: 
                87:D4:D3:78:54:1E:A1:F6:9E:64:E9:B5:C6:06:16:8A:B1:C4:46:E7
            X509v3 Authority Key Identifier: 
                keyid:12:CD:60:04:D2:A0:80:9E:70:ED:C6:99:B8:7B:2C:C6:52:FD:19:A1
                DirName:/C=US/ST=OH/L=Columbus/O=VikingVPN/OU=MyOrganizationalUnit/CN=VikingVPN CA/name=EasyRSA/emailAddress=me@myhost.mydomain
                serial:CF:35:85:EE:80:BF:2A:3E

            X509v3 Extended Key Usage: 
                TLS Web Client Authentication
            X509v3 Key Usage: 
                Digital Signature
    Signature Algorithm: md5WithRSAEncryption
         0d:fa:50:e0:23:82:51:04:bb:0e:2b:bf:ee:6b:d8:0c:a2:ce:
         f0:42:60:4f:54:24:35:dd:1f:c8:c2:b1:66:64:0a:0e:53:06:
         c8:3e:4c:13:cf:e5:fe:01:2f:0e:22:56:5b:fc:4f:03:1c:3f:
         84:ca:ec:7d:a6:fe:dc:e1:a5:25:10:ee:52:81:9d:6c:06:52:
         84:c3:be:20:ad:d3:87:27:ce:de:42:a4:97:45:41:ac:b0:44:
         99:df:dc:af:8b:fb:a3:1d:eb:8c:5f:15:04:97:cd:7f:60:27:
         80:d8:a4:f1:ac:1d:d6:67:cc:1f:46:ca:1a:47:a5:3b:42:33:
         9e:80:63:5f:b9:ae:19:ec:78:c1:b3:e2:c1:e8:10:55:38:80:
         34:d0:4a:f5:2d:04:08:f6:5d:1d:f1:15:04:ea:bd:92:65:42:
         74:50:89:f5:38:c2:11:c1:b9:ab:56:a9:62:46:67:85:c2:a2:
         8c:f1:16:c5:cb:0d:aa:81:2c:7f:ab:94:c4:33:15:fe:6c:ad:
         4c:4b:eb:41:37:f2:d4:2f:2a:65:90:69:30:a1:8a:c0:6b:fd:
         30:13:c6:58:3d:43:a8:f1:15:d1:96:3d:db:b5:c1:83:26:09:
         a9:b9:19:8a:20:df:67:ee:92:08:10:e4:e7:bf:45:16:7e:e5:
         16:c8:93:21:c8:50:7d:cc:29:13:00:35:d4:11:21:e0:3c:59:
         3c:b4:ff:9e:45:08:15:48:0d:eb:ae:d4:c9:eb:7b:1e:a8:c5:
         ba:0b:29:dd:f9:63:39:b1:ee:dc:08:24:ba:73:62:76:41:da:
         32:52:c4:64:97:69:5e:e4:b8:20:a7:30:66:23:af:06:30:3a:
         fa:26:2a:6b:92:0f:b9:a7:7d:2c:8c:ce:ec:b5:81:c8:59:9b:
         eb:e7:3e:b1:47:ca:d3:34:3c:ca:4e:a3:e7:82:79:82:6c:b8:
         ba:a1:66:a0:bc:16:0a:8d:6c:99:a6:eb:a5:01:96:29:c3:65:
         5e:5e:d9:96:26:77:fa:0c:ac:d6:cd:c7:fb:4f:03:2a:86:b3:
         4f:b2:a4:48:42:5b:fe:a2:87:bc:d5:71:fa:95:45:18:29:21:
         83:54:50:9f:05:5c:8a:d6:52:17:13:cf:5c:ad:5d:dd:10:e7:
         1d:5b:1f:5f:a4:0a:ea:43:0d:84:e2:7a:40:fe:f0:f4:dd:0b:
         9d:5c:16:73:79:30:2a:88:ae:0a:e7:8b:6a:ed:93:07:39:14:
         23:5f:9a:13:c4:79:97:19:6c:61:52:42:25:1f:f7:1d:fc:3b:
         bb:68:be:75:5f:60:8a:ce:99:43:bc:7b:c5:04:8d:ed:18:11:
         d2:51:89:47:d3:ff:b1:3d
-----BEGIN CERTIFICATE-----
MIIGrTCCBJWgAwIBAgICGVgwDQYJKoZIhvcNAQEEBQAwgawxCzAJBgNVBAYTAlVT
MQswCQYDVQQIEwJPSDERMA8GA1UEBxMIQ29sdW1idXMxEjAQBgNVBAoTCVZpa2lu
Z1ZQTjEdMBsGA1UECxMUTXlPcmdhbml6YXRpb25hbFVuaXQxFTATBgNVBAMTDFZp
a2luZ1ZQTiBDQTEQMA4GA1UEKRMHRWFzeVJTQTEhMB8GCSqGSIb3DQEJARYSbWVA
bXlob3N0Lm15ZG9tYWluMB4XDTE1MTAxODE2NTkwNFoXDTI1MTAxNTE2NTkwNFow
HzEdMBsGA1UEAxMUQ2xpZW50MTg1N0NlcnQ4MDhmYzUwggIiMA0GCSqGSIb3DQEB
AQUAA4ICDwAwggIKAoICAQDMkkSKubRCXI+Hqm31/dk8VRdZoG5Oyu7pxMPXrLee
Ed+dD+NdgSzzvm3JgONM/pjTSpT6ZUkth6vqqZJ2/EcorNfya1vUAYabO+YmwxS3
jxk82QcIGnv0YO+dfbPOUKxncqcrh0dm7IueuIWX8A0y3s+Xpv1dxi/sDdruy9QM
PF2ajUvZrHJSYjcC72knIgsIStkgdwEfdc+/vmh/H6GlSyasolrxLVvTBT++Kzn5
QJWGTo3UFJXN8pPvX0Yggebr7wZ3Q0BW9Fk5nGJCZDrN3li22DhjBj/qbIXkusXX
L91edxBx2Ggg5L1sjKF86Pfs+mSLFbpTxkA+dnffqifNdjSchpeZvNeSBlHdfqW5
fYdabAVSCRBjP6XGg3+BDu55q8/761ZKHibLqJhN6cyFlF0whcEELv5ByLdzLgP9
uqp3M1rHCYD8lTVG4EOctj1ICOYiwMJOfiN/skQfSAXHhUTk2KjiPjIJ3VeLtTDY
o8ZVMQ3pzbwQqU9g0YKh+WACYneJHlyTthiD7R1Tv4UX4wTYH+E5DWw699nmZXwv
rXcJp7sOI9uOEYEBYwL1ljuS6fMiQIUrn1rETPvxxt1EmaPTQ3FwvYdCA9mxxPI6
QQsoJmsW9RPamqsH4B5cWnCTEZXOGvu9uk2PysxeQz+CiLnzxO0sY0THmObL6QYK
wwIDAQABo4IBYzCCAV8wCQYDVR0TBAIwADAtBglghkgBhvhCAQ0EIBYeRWFzeS1S
U0EgR2VuZXJhdGVkIENlcnRpZmljYXRlMB0GA1UdDgQWBBSH1NN4VB6h9p5k6bXG
BhaKscRG5zCB4QYDVR0jBIHZMIHWgBQSzWAE0qCAnnDtxpm4eyzGUv0ZoaGBsqSB
rzCBrDELMAkGA1UEBhMCVVMxCzAJBgNVBAgTAk9IMREwDwYDVQQHEwhDb2x1bWJ1
czESMBAGA1UEChMJVmlraW5nVlBOMR0wGwYDVQQLExRNeU9yZ2FuaXphdGlvbmFs
VW5pdDEVMBMGA1UEAxMMVmlraW5nVlBOIENBMRAwDgYDVQQpEwdFYXN5UlNBMSEw
HwYJKoZIhvcNAQkBFhJtZUBteWhvc3QubXlkb21haW6CCQDPNYXugL8qPjATBgNV
HSUEDDAKBggrBgEFBQcDAjALBgNVHQ8EBAMCB4AwDQYJKoZIhvcNAQEEBQADggIB
AA36UOAjglEEuw4rv+5r2AyizvBCYE9UJDXdH8jCsWZkCg5TBsg+TBPP5f4BLw4i
Vlv8TwMcP4TK7H2m/tzhpSUQ7lKBnWwGUoTDviCt04cnzt5CpJdFQaywRJnf3K+L
+6Md64xfFQSXzX9gJ4DYpPGsHdZnzB9GyhpHpTtCM56AY1+5rhnseMGz4sHoEFU4
gDTQSvUtBAj2XR3xFQTqvZJlQnRQifU4whHBuatWqWJGZ4XCoozxFsXLDaqBLH+r
lMQzFf5srUxL60E38tQvKmWQaTChisBr/TATxlg9Q6jxFdGWPdu1wYMmCam5GYog
32fukggQ5Oe/RRZ+5RbIkyHIUH3MKRMANdQRIeA8WTy0/55FCBVIDeuu1Mnrex6o
xboLKd35Yzmx7twIJLpzYnZB2jJSxGSXaV7kuCCnMGYjrwYwOvomKmuSD7mnfSyM
zuy1gchZm+vnPrFHytM0PMpOo+eCeYJsuLqhZqC8FgqNbJmm66UBlinDZV5e2ZYm
d/oMrNbNx/tPAyqGs0+ypEhCW/6ih7zVcfqVRRgpIYNUUJ8FXIrWUhcTz1ytXd0Q
5x1bH1+kCupDDYTiekD+8PTdC51cFnN5MCqIrgrni2rtkwc5FCNfmhPEeZcZbGFS
QiUf9x38O7tovnVfYIrOmUO8e8UEje0YEdJRiUfT/7E9
-----END CERTIFICATE-----
