Certificate:
    Data:
        Version: 3 (0x2)
        Serial Number: 6515 (0x1973)
    Signature Algorithm: md5WithRSAEncryption
        Issuer: C=US, ST=OH, L=Columbus, O=VikingVPN, OU=MyOrganizationalUnit, CN=VikingVPN CA/name=EasyRSA/emailAddress=me@myhost.mydomain
        Validity
            Not Before: Oct 20 09:00:13 2015 GMT
            Not After : Oct 17 09:00:13 2025 GMT
        Subject: CN=Client2008Cert52d9e1
        Subject Public Key Info:
            Public Key Algorithm: rsaEncryption
                Public-Key: (4096 bit)
                Modulus:
                    00:9c:41:48:e5:ca:bc:72:b1:f5:2a:f4:d5:70:be:
                    d1:c2:e1:33:2e:61:89:3b:db:48:ee:7d:44:80:4b:
                    79:41:02:99:79:d3:64:7f:5c:a4:5d:e3:d1:e7:c0:
                    97:41:36:73:d5:30:bc:2c:98:f0:43:62:81:5a:db:
                    80:68:30:b7:4f:be:b0:33:fa:72:9d:6f:34:46:ae:
                    49:d2:7a:3f:71:dc:e3:3a:30:09:df:84:37:2e:71:
                    c7:cd:86:31:a8:9a:ef:b3:14:c5:90:d7:cc:98:fc:
                    02:19:28:3d:17:c6:33:ae:32:2f:34:07:e9:d4:9e:
                    da:84:b6:1b:77:07:f8:25:92:f9:3f:a5:54:5a:49:
                    bf:9e:a1:38:66:aa:6b:5f:12:da:e1:5e:69:6d:54:
                    8d:4e:71:97:c0:da:75:ce:43:64:43:d7:7c:ce:23:
                    c8:ad:05:96:9b:7a:20:7e:a8:0d:92:59:aa:49:71:
                    b8:fd:82:f7:65:30:c9:58:f1:8a:02:29:81:a2:2b:
                    20:14:74:d3:49:7d:ab:4f:b0:e0:9f:58:6a:27:8e:
                    fd:64:a6:d5:64:c4:98:6a:63:15:7c:89:ef:1f:50:
                    8f:0a:ae:dd:7f:a8:d3:24:87:8b:c8:d6:26:cc:24:
                    24:c0:14:09:e1:c1:1d:cb:d8:4f:5c:09:4b:1f:c3:
                    0d:e7:11:b2:0e:11:f4:bb:1e:23:ca:b0:b6:f7:35:
                    96:42:43:20:bc:7e:02:6b:53:29:32:99:d8:9e:61:
                    cd:8d:e9:ed:94:e7:50:46:b7:c3:1e:42:6f:2b:1e:
                    2b:17:ae:06:50:f0:b3:d7:4b:c5:05:62:61:be:b2:
                    46:0e:3b:98:37:f5:12:82:a3:37:45:d4:20:19:dd:
                    8e:f9:d3:87:d1:b2:94:35:ac:c5:4a:9f:1e:2f:89:
                    a5:3d:0b:73:7b:11:3a:86:b2:b4:06:bd:56:ce:f9:
                    a6:7d:46:e7:eb:2a:85:00:48:b8:29:31:f3:ea:ce:
                    f2:c5:36:3f:ea:0e:83:f9:aa:2e:e5:54:e0:c9:4d:
                    8e:5d:c4:93:9c:c2:be:7f:50:e7:da:43:7b:36:ba:
                    71:89:b9:6b:81:95:89:ab:e8:46:5e:0e:a0:a6:8a:
                    52:85:c1:1e:3d:ce:17:6b:53:59:66:36:01:6b:8b:
                    6d:76:1b:cb:0e:a6:44:a4:9f:26:55:02:ff:6a:eb:
                    ea:79:d1:82:8d:e9:60:32:b9:15:b4:ab:6f:17:c5:
                    f1:e9:07:b0:d2:d8:81:17:ff:39:70:a0:30:ff:b1:
                    e6:01:32:29:20:19:0b:da:e4:0a:a1:0a:fe:18:d7:
                    5c:f3:91:bb:0e:71:d1:f0:cb:99:25:66:26:48:5c:
                    56:62:63
                Exponent: 65537 (0x10001)
        X509v3 extensions:
            X509v3 Basic Constraints: 
                CA:FALSE
            Netscape Comment: 
                Easy-RSA Generated Certificate
            X509v3 Subject Key Identifier: 
                79:53:9D:48:8D:B4:14:2F:8D:A2:89:B3:0A:E0:1B:ED:F1:80:9E:8A
            X509v3 Authority Key Identifier: 
                keyid:12:CD:60:04:D2:A0:80:9E:70:ED:C6:99:B8:7B:2C:C6:52:FD:19:A1
                DirName:/C=US/ST=OH/L=Columbus/O=VikingVPN/OU=MyOrganizationalUnit/CN=VikingVPN CA/name=EasyRSA/emailAddress=me@myhost.mydomain
                serial:CF:35:85:EE:80:BF:2A:3E

            X509v3 Extended Key Usage: 
                TLS Web Client Authentication
            X509v3 Key Usage: 
                Digital Signature
    Signature Algorithm: md5WithRSAEncryption
         87:ed:3f:5d:11:f2:10:f5:85:d6:87:19:8a:72:13:96:66:d9:
         aa:df:b4:50:b1:06:2f:94:bd:59:ea:7a:79:52:a1:42:1b:25:
         8e:6a:59:d7:1d:55:a5:b9:ba:2f:f7:53:05:66:68:c7:cd:91:
         37:b3:3b:ac:96:00:0c:11:91:00:4e:db:23:c4:de:df:72:b2:
         6b:bf:a6:bd:5c:f9:34:87:3d:1c:65:57:dd:b8:31:a7:46:20:
         5c:e9:7d:40:07:c8:63:c3:c8:3e:4b:f0:fc:4e:b4:5d:72:94:
         da:12:f2:9e:b9:ea:48:d7:2c:4d:7f:7a:17:1c:17:f7:e1:52:
         ba:54:22:0b:2b:88:be:43:5d:55:6e:08:74:d1:88:43:16:3f:
         8e:2f:82:b2:d3:13:51:fb:d6:2b:45:1a:da:0d:e3:6d:aa:11:
         2d:5e:6c:bd:66:2b:e4:72:56:1c:80:d2:6c:99:a9:78:00:90:
         08:89:47:00:b8:2e:99:7a:06:2c:61:20:b6:28:f1:83:d5:3f:
         37:2d:83:4a:e0:cc:71:7f:1e:b6:3a:ae:ea:ca:82:81:b1:36:
         dc:52:99:6c:43:ad:46:2e:e4:35:91:47:9a:d9:27:dd:ac:c4:
         ea:92:bc:97:bf:20:38:b7:b8:fd:de:2f:a9:60:e6:ce:fc:6f:
         d0:d4:64:75:43:1e:18:c7:ec:59:db:72:17:04:8c:e6:32:70:
         71:7b:03:1f:84:00:ec:82:88:df:84:f1:5a:94:c7:1b:e0:2f:
         10:c8:7c:91:f9:ae:60:2d:74:ea:c9:04:0f:72:fd:36:c3:47:
         73:6f:5e:79:9f:00:5c:9a:1e:32:3b:60:0b:b4:59:4f:1c:b2:
         dc:b3:2a:e9:d3:21:2d:03:9b:63:2c:e1:40:21:ad:8f:ea:0d:
         94:4c:45:e8:0f:a2:4e:b0:c4:35:10:0f:c9:ad:d1:2a:41:81:
         14:b2:a3:bb:46:6c:9b:cf:4b:56:f6:38:4e:61:8c:72:95:a7:
         67:f2:5d:b8:d0:ce:7d:03:f7:72:5b:b7:e2:a1:98:14:c5:46:
         43:07:0e:be:28:a8:b7:82:85:f2:33:39:57:b6:96:90:85:2a:
         1a:ca:7a:fb:76:0b:b2:4b:7f:c6:19:89:87:f9:2f:19:fd:fc:
         78:ff:7d:07:12:dd:47:72:dd:8f:d2:ad:d6:76:a0:e6:3f:79:
         7d:95:8d:5e:08:e0:bc:55:32:6d:85:68:f2:29:60:5f:14:3a:
         f0:ab:90:49:33:ed:b0:20:bd:1b:c6:ef:54:a4:b9:b1:5b:15:
         75:43:58:60:5c:4a:12:f9:b1:ea:05:0f:26:a9:7b:f8:55:6d:
         d1:77:60:84:63:10:4a:08
-----BEGIN CERTIFICATE-----
MIIGrTCCBJWgAwIBAgICGXMwDQYJKoZIhvcNAQEEBQAwgawxCzAJBgNVBAYTAlVT
MQswCQYDVQQIEwJPSDERMA8GA1UEBxMIQ29sdW1idXMxEjAQBgNVBAoTCVZpa2lu
Z1ZQTjEdMBsGA1UECxMUTXlPcmdhbml6YXRpb25hbFVuaXQxFTATBgNVBAMTDFZp
a2luZ1ZQTiBDQTEQMA4GA1UEKRMHRWFzeVJTQTEhMB8GCSqGSIb3DQEJARYSbWVA
bXlob3N0Lm15ZG9tYWluMB4XDTE1MTAyMDA5MDAxM1oXDTI1MTAxNzA5MDAxM1ow
HzEdMBsGA1UEAxMUQ2xpZW50MjAwOENlcnQ1MmQ5ZTEwggIiMA0GCSqGSIb3DQEB
AQUAA4ICDwAwggIKAoICAQCcQUjlyrxysfUq9NVwvtHC4TMuYYk720jufUSAS3lB
Apl502R/XKRd49HnwJdBNnPVMLwsmPBDYoFa24BoMLdPvrAz+nKdbzRGrknSej9x
3OM6MAnfhDcuccfNhjGomu+zFMWQ18yY/AIZKD0XxjOuMi80B+nUntqEtht3B/gl
kvk/pVRaSb+eoThmqmtfEtrhXmltVI1OcZfA2nXOQ2RD13zOI8itBZabeiB+qA2S
WapJcbj9gvdlMMlY8YoCKYGiKyAUdNNJfatPsOCfWGonjv1kptVkxJhqYxV8ie8f
UI8Krt1/qNMkh4vI1ibMJCTAFAnhwR3L2E9cCUsfww3nEbIOEfS7HiPKsLb3NZZC
QyC8fgJrUykymdieYc2N6e2U51BGt8MeQm8rHisXrgZQ8LPXS8UFYmG+skYOO5g3
9RKCozdF1CAZ3Y7504fRspQ1rMVKnx4viaU9C3N7ETqGsrQGvVbO+aZ9RufrKoUA
SLgpMfPqzvLFNj/qDoP5qi7lVODJTY5dxJOcwr5/UOfaQ3s2unGJuWuBlYmr6EZe
DqCmilKFwR49zhdrU1lmNgFri212G8sOpkSknyZVAv9q6+p50YKN6WAyuRW0q28X
xfHpB7DS2IEX/zlwoDD/seYBMikgGQva5AqhCv4Y11zzkbsOcdHwy5klZiZIXFZi
YwIDAQABo4IBYzCCAV8wCQYDVR0TBAIwADAtBglghkgBhvhCAQ0EIBYeRWFzeS1S
U0EgR2VuZXJhdGVkIENlcnRpZmljYXRlMB0GA1UdDgQWBBR5U51IjbQUL42iibMK
4Bvt8YCeijCB4QYDVR0jBIHZMIHWgBQSzWAE0qCAnnDtxpm4eyzGUv0ZoaGBsqSB
rzCBrDELMAkGA1UEBhMCVVMxCzAJBgNVBAgTAk9IMREwDwYDVQQHEwhDb2x1bWJ1
czESMBAGA1UEChMJVmlraW5nVlBOMR0wGwYDVQQLExRNeU9yZ2FuaXphdGlvbmFs
VW5pdDEVMBMGA1UEAxMMVmlraW5nVlBOIENBMRAwDgYDVQQpEwdFYXN5UlNBMSEw
HwYJKoZIhvcNAQkBFhJtZUBteWhvc3QubXlkb21haW6CCQDPNYXugL8qPjATBgNV
HSUEDDAKBggrBgEFBQcDAjALBgNVHQ8EBAMCB4AwDQYJKoZIhvcNAQEEBQADggIB
AIftP10R8hD1hdaHGYpyE5Zm2arftFCxBi+UvVnqenlSoUIbJY5qWdcdVaW5ui/3
UwVmaMfNkTezO6yWAAwRkQBO2yPE3t9ysmu/pr1c+TSHPRxlV924MadGIFzpfUAH
yGPDyD5L8PxOtF1ylNoS8p656kjXLE1/ehccF/fhUrpUIgsriL5DXVVuCHTRiEMW
P44vgrLTE1H71itFGtoN422qES1ebL1mK+RyVhyA0myZqXgAkAiJRwC4Lpl6Bixh
ILYo8YPVPzctg0rgzHF/HrY6rurKgoGxNtxSmWxDrUYu5DWRR5rZJ92sxOqSvJe/
IDi3uP3eL6lg5s78b9DUZHVDHhjH7FnbchcEjOYycHF7Ax+EAOyCiN+E8VqUxxvg
LxDIfJH5rmAtdOrJBA9y/TbDR3NvXnmfAFyaHjI7YAu0WU8cstyzKunTIS0Dm2Ms
4UAhrY/qDZRMRegPok6wxDUQD8mt0SpBgRSyo7tGbJvPS1b2OE5hjHKVp2fyXbjQ
zn0D93Jbt+KhmBTFRkMHDr4oqLeChfIzOVe2lpCFKhrKevt2C7JLf8YZiYf5Lxn9
/Hj/fQcS3Udy3Y/SrdZ2oOY/eX2VjV4I4LxVMm2FaPIpYF8UOvCrkEkz7bAgvRvG
71SkubFbFXVDWGBcShL5seoFDyape/hVbdF3YIRjEEoI
-----END CERTIFICATE-----
