Certificate:
    Data:
        Version: 3 (0x2)
        Serial Number: 6522 (0x197a)
    Signature Algorithm: md5WithRSAEncryption
        Issuer: C=US, ST=OH, L=Columbus, O=VikingVPN, OU=MyOrganizationalUnit, CN=VikingVPN CA/name=EasyRSA/emailAddress=me@myhost.mydomain
        Validity
            Not Before: Oct 21 05:44:21 2015 GMT
            Not After : Oct 18 05:44:21 2025 GMT
        Subject: CN=Client1802Certde3ae8
        Subject Public Key Info:
            Public Key Algorithm: rsaEncryption
                Public-Key: (4096 bit)
                Modulus:
                    00:a5:02:20:0a:63:38:49:80:89:59:81:fa:87:4f:
                    73:16:d1:5f:47:b0:bf:fb:d7:b8:bc:91:61:70:1e:
                    4d:09:a3:8e:74:5d:08:a3:f6:c2:44:83:20:97:a5:
                    ff:d5:d7:ea:30:a6:59:37:24:b6:e9:84:ba:e4:8d:
                    02:0b:f4:cc:1e:22:c2:f7:b8:da:8a:03:bb:85:7f:
                    03:b4:19:f6:64:8c:a2:67:06:a5:03:2c:20:b0:aa:
                    b9:6f:4a:9d:b5:67:f0:cf:09:88:75:58:15:97:8c:
                    50:bc:c6:c3:7b:35:08:b3:2d:e3:bc:f6:46:19:61:
                    32:7f:1d:f8:7e:51:67:d2:69:db:7e:a7:fe:71:c8:
                    dd:41:d9:80:c9:68:11:15:88:99:ff:4f:c2:c8:60:
                    ba:4b:bd:e5:10:ae:80:b7:f8:e5:21:31:31:ef:7a:
                    e9:ee:44:0e:05:3b:56:fd:98:46:cc:cd:fe:53:3f:
                    db:48:47:d5:2d:f2:36:8a:f2:ea:83:8b:ae:5d:c6:
                    a6:23:df:52:44:74:88:bb:e9:4e:29:54:b0:41:1e:
                    a1:d2:d9:5b:a6:91:8e:14:e6:9c:d4:09:a1:00:33:
                    73:7f:29:92:6a:c1:56:54:4a:ed:8f:3b:1c:5f:26:
                    39:eb:81:ad:e7:47:77:9f:eb:af:75:f9:d6:3a:53:
                    2a:78:5e:c4:1f:1c:b5:91:f4:6d:56:99:fd:69:14:
                    37:e4:80:4b:f7:42:65:f6:84:8c:bf:95:00:60:f9:
                    9d:25:4c:cd:68:56:b4:9c:a3:6f:3b:30:b2:5c:f0:
                    ce:f5:89:82:91:9e:1a:c1:2e:ff:30:8b:7c:4f:4f:
                    d0:70:d9:99:32:8c:6c:5d:9e:55:4a:72:aa:fb:8f:
                    a9:5a:da:e7:75:af:2a:16:b0:7d:40:d0:1e:6d:cd:
                    c1:33:4c:1b:b6:a2:ab:5b:29:ac:e5:65:a7:9a:d4:
                    8b:3a:33:48:44:27:80:46:6c:cc:4c:a7:b5:b7:d5:
                    14:2d:43:7d:48:5a:87:db:ee:df:87:36:2b:cd:ee:
                    98:a7:25:c1:94:d6:cc:3e:c4:81:c6:95:c0:8c:81:
                    d8:4a:ae:5e:49:73:5b:62:c6:59:ea:b7:ff:2c:9e:
                    97:67:c1:22:4a:ea:5f:97:72:50:50:2a:c5:51:dd:
                    99:1f:b3:30:9d:eb:7b:e3:76:c7:f2:a6:a1:83:8a:
                    67:bf:2f:94:3d:71:c3:57:a4:b8:3c:95:75:43:3d:
                    77:e0:78:60:72:5e:13:99:3e:a3:2f:5b:01:d5:e6:
                    5a:05:dd:df:b9:4a:f2:9a:e1:72:b9:1d:4c:ef:09:
                    50:4b:cc:51:dd:92:89:ef:39:a1:cf:28:8c:d4:90:
                    c7:47:67
                Exponent: 65537 (0x10001)
        X509v3 extensions:
            X509v3 Basic Constraints: 
                CA:FALSE
            Netscape Comment: 
                Easy-RSA Generated Certificate
            X509v3 Subject Key Identifier: 
                5E:7E:47:7C:C0:DB:92:97:DC:5B:F0:21:BF:6E:73:17:DE:24:28:31
            X509v3 Authority Key Identifier: 
                keyid:12:CD:60:04:D2:A0:80:9E:70:ED:C6:99:B8:7B:2C:C6:52:FD:19:A1
                DirName:/C=US/ST=OH/L=Columbus/O=VikingVPN/OU=MyOrganizationalUnit/CN=VikingVPN CA/name=EasyRSA/emailAddress=me@myhost.mydomain
                serial:CF:35:85:EE:80:BF:2A:3E

            X509v3 Extended Key Usage: 
                TLS Web Client Authentication
            X509v3 Key Usage: 
                Digital Signature
    Signature Algorithm: md5WithRSAEncryption
         a4:d2:c4:90:36:2e:66:1a:9e:3a:ed:ea:ef:28:ef:d6:2f:aa:
         b4:ab:98:4b:7d:0a:76:86:6f:9f:b5:cf:27:66:ca:83:0a:24:
         16:1f:8c:dd:d3:45:83:98:14:5d:96:56:b9:9e:e3:b5:96:48:
         39:9e:4e:b4:41:5f:f0:b5:27:44:97:f2:20:70:a2:bd:88:0e:
         61:d5:97:57:34:c9:e2:2f:dc:a9:11:9b:66:a1:7e:1a:d7:23:
         e1:d6:04:a3:a7:79:66:5b:41:d2:2a:c9:dc:52:e0:11:2b:62:
         42:7f:6c:0b:fe:d6:fa:96:6f:f9:54:17:a8:21:db:98:de:2c:
         75:60:07:0c:06:36:62:f4:d0:68:7b:b3:1f:e6:38:ea:f2:f5:
         d9:3f:92:4a:33:3a:47:3d:61:47:af:a3:b3:3f:74:6c:bb:7c:
         0c:d9:97:21:c8:de:d7:9e:72:71:c0:de:37:01:80:46:f5:66:
         d1:bd:2d:af:03:7a:6b:2b:4f:56:1f:a5:37:c9:2d:87:94:7b:
         5d:ef:94:a1:23:83:f1:54:87:80:12:4f:ea:ba:30:ee:98:5a:
         5f:f3:4f:4a:da:fa:1b:0d:11:d6:57:e4:79:a5:5b:d2:0d:b0:
         c6:9f:da:a0:d6:d6:d8:3b:f1:5d:a2:99:af:6d:01:35:d8:68:
         70:2f:27:be:15:d5:57:bf:f4:2f:4a:f0:1c:13:8b:da:a4:65:
         18:b3:fe:66:aa:10:60:fa:28:87:fd:35:ef:57:81:4f:d0:cf:
         7f:85:fe:86:22:d1:46:a4:11:d5:01:1a:1e:34:8d:d3:dd:e3:
         6e:c5:1c:c1:03:c0:14:7d:ad:85:30:42:54:7c:ea:d6:1b:4f:
         b2:bc:20:a0:ff:94:3b:98:2a:15:99:a5:61:b1:73:ad:c6:72:
         15:dd:ec:09:7f:2f:62:a8:cc:8b:6a:92:f7:13:e1:14:a6:0f:
         3c:d1:25:50:9b:2f:0b:0e:35:08:a3:dc:c1:3e:bc:56:82:13:
         a6:53:2e:4e:3d:63:b3:eb:54:cc:e8:9e:0d:a9:fa:be:ba:9a:
         95:8c:41:a9:fa:29:cc:0d:c4:fc:9f:b8:04:95:9d:82:19:b8:
         0c:57:ad:52:9b:8a:a8:a5:79:30:71:a1:be:89:b1:3f:23:68:
         ee:9d:5d:82:c7:05:b5:cb:62:3c:98:cb:7f:07:ae:8f:e3:33:
         45:1b:89:4a:34:da:76:e5:5e:9f:e7:d7:66:8f:6f:a3:60:2c:
         1f:b1:1e:fd:bc:f6:9b:28:7a:78:5f:bd:df:fd:88:61:e3:72:
         e4:41:55:e1:09:74:73:a3:b2:6f:62:ae:6f:31:7d:3a:74:97:
         96:00:e8:fd:e4:3e:68:e1
-----BEGIN CERTIFICATE-----
MIIGrTCCBJWgAwIBAgICGXowDQYJKoZIhvcNAQEEBQAwgawxCzAJBgNVBAYTAlVT
MQswCQYDVQQIEwJPSDERMA8GA1UEBxMIQ29sdW1idXMxEjAQBgNVBAoTCVZpa2lu
Z1ZQTjEdMBsGA1UECxMUTXlPcmdhbml6YXRpb25hbFVuaXQxFTATBgNVBAMTDFZp
a2luZ1ZQTiBDQTEQMA4GA1UEKRMHRWFzeVJTQTEhMB8GCSqGSIb3DQEJARYSbWVA
bXlob3N0Lm15ZG9tYWluMB4XDTE1MTAyMTA1NDQyMVoXDTI1MTAxODA1NDQyMVow
HzEdMBsGA1UEAxMUQ2xpZW50MTgwMkNlcnRkZTNhZTgwggIiMA0GCSqGSIb3DQEB
AQUAA4ICDwAwggIKAoICAQClAiAKYzhJgIlZgfqHT3MW0V9HsL/717i8kWFwHk0J
o450XQij9sJEgyCXpf/V1+owplk3JLbphLrkjQIL9MweIsL3uNqKA7uFfwO0GfZk
jKJnBqUDLCCwqrlvSp21Z/DPCYh1WBWXjFC8xsN7NQizLeO89kYZYTJ/Hfh+UWfS
adt+p/5xyN1B2YDJaBEViJn/T8LIYLpLveUQroC3+OUhMTHveunuRA4FO1b9mEbM
zf5TP9tIR9Ut8jaK8uqDi65dxqYj31JEdIi76U4pVLBBHqHS2VumkY4U5pzUCaEA
M3N/KZJqwVZUSu2POxxfJjnrga3nR3ef6691+dY6Uyp4XsQfHLWR9G1Wmf1pFDfk
gEv3QmX2hIy/lQBg+Z0lTM1oVrSco287MLJc8M71iYKRnhrBLv8wi3xPT9Bw2Zky
jGxdnlVKcqr7j6la2ud1ryoWsH1A0B5tzcEzTBu2oqtbKazlZaea1Is6M0hEJ4BG
bMxMp7W31RQtQ31IWofb7t+HNivN7pinJcGU1sw+xIHGlcCMgdhKrl5Jc1tixlnq
t/8snpdnwSJK6l+XclBQKsVR3ZkfszCd63vjdsfypqGDime/L5Q9ccNXpLg8lXVD
PXfgeGByXhOZPqMvWwHV5loF3d+5SvKa4XK5HUzvCVBLzFHdkonvOaHPKIzUkMdH
ZwIDAQABo4IBYzCCAV8wCQYDVR0TBAIwADAtBglghkgBhvhCAQ0EIBYeRWFzeS1S
U0EgR2VuZXJhdGVkIENlcnRpZmljYXRlMB0GA1UdDgQWBBRefkd8wNuSl9xb8CG/
bnMX3iQoMTCB4QYDVR0jBIHZMIHWgBQSzWAE0qCAnnDtxpm4eyzGUv0ZoaGBsqSB
rzCBrDELMAkGA1UEBhMCVVMxCzAJBgNVBAgTAk9IMREwDwYDVQQHEwhDb2x1bWJ1
czESMBAGA1UEChMJVmlraW5nVlBOMR0wGwYDVQQLExRNeU9yZ2FuaXphdGlvbmFs
VW5pdDEVMBMGA1UEAxMMVmlraW5nVlBOIENBMRAwDgYDVQQpEwdFYXN5UlNBMSEw
HwYJKoZIhvcNAQkBFhJtZUBteWhvc3QubXlkb21haW6CCQDPNYXugL8qPjATBgNV
HSUEDDAKBggrBgEFBQcDAjALBgNVHQ8EBAMCB4AwDQYJKoZIhvcNAQEEBQADggIB
AKTSxJA2LmYanjrt6u8o79YvqrSrmEt9CnaGb5+1zydmyoMKJBYfjN3TRYOYFF2W
Vrme47WWSDmeTrRBX/C1J0SX8iBwor2IDmHVl1c0yeIv3KkRm2ahfhrXI+HWBKOn
eWZbQdIqydxS4BErYkJ/bAv+1vqWb/lUF6gh25jeLHVgBwwGNmL00Gh7sx/mOOry
9dk/kkozOkc9YUevo7M/dGy7fAzZlyHI3teecnHA3jcBgEb1ZtG9La8DemsrT1Yf
pTfJLYeUe13vlKEjg/FUh4AST+q6MO6YWl/zT0ra+hsNEdZX5HmlW9INsMaf2qDW
1tg78V2ima9tATXYaHAvJ74V1Ve/9C9K8BwTi9qkZRiz/maqEGD6KIf9Ne9XgU/Q
z3+F/oYi0UakEdUBGh40jdPd427FHMEDwBR9rYUwQlR86tYbT7K8IKD/lDuYKhWZ
pWGxc63GchXd7Al/L2KozItqkvcT4RSmDzzRJVCbLwsONQij3ME+vFaCE6ZTLk49
Y7PrVMzong2p+r66mpWMQan6KcwNxPyfuASVnYIZuAxXrVKbiqileTBxob6JsT8j
aO6dXYLHBbXLYjyYy38Hro/jM0UbiUo02nblXp/n12aPb6NgLB+xHv289psoenhf
vd/9iGHjcuRBVeEJdHOjsm9irm8xfTp0l5YA6P3kPmjh
-----END CERTIFICATE-----
