Certificate:
    Data:
        Version: 3 (0x2)
        Serial Number: 6533 (0x1985)
    Signature Algorithm: md5WithRSAEncryption
        Issuer: C=US, ST=OH, L=Columbus, O=VikingVPN, OU=MyOrganizationalUnit, CN=VikingVPN CA/name=EasyRSA/emailAddress=me@myhost.mydomain
        Validity
            Not Before: Oct 21 14:04:24 2015 GMT
            Not After : Oct 18 14:04:24 2025 GMT
        Subject: CN=Client2011Cert512435
        Subject Public Key Info:
            Public Key Algorithm: rsaEncryption
                Public-Key: (4096 bit)
                Modulus:
                    00:c7:24:61:38:fd:e8:f2:f3:58:6b:cf:60:16:da:
                    2b:2e:4e:10:f9:2f:cd:e2:c1:7f:b1:0d:7b:6e:d7:
                    bb:39:8c:08:05:e3:e3:f5:6c:fb:f8:d3:87:5d:76:
                    18:63:15:63:b7:b6:63:98:ee:98:b7:1d:0d:d8:04:
                    9d:a1:08:df:c6:ad:31:3e:6a:b4:1d:ed:d7:5e:1e:
                    6a:e2:ac:6d:44:f1:75:78:cc:3d:ae:cf:d3:fe:d1:
                    50:f7:9c:ff:34:20:8a:d3:c3:ac:4e:af:98:b4:12:
                    bb:11:f9:39:7b:f6:5b:04:59:07:a3:6b:d0:e7:49:
                    aa:42:b1:d5:b1:39:cd:6d:b9:53:7e:c7:ef:d4:af:
                    7f:86:13:01:13:b6:f9:fa:c5:53:7e:00:ae:53:1f:
                    ea:09:0a:f1:7f:8d:5f:20:cb:bc:aa:60:33:0d:bb:
                    31:d5:28:9b:fe:80:eb:a0:08:4a:f4:5a:72:3d:71:
                    86:12:6c:33:0d:5a:0a:8c:3a:74:76:bf:82:b2:59:
                    f5:20:92:83:03:7f:83:90:a3:0f:b8:5b:80:17:f4:
                    fb:b5:78:7d:c3:09:31:ed:ef:d9:cf:01:5a:c2:e2:
                    99:8a:e8:2a:0a:b6:dc:02:79:59:9d:7f:65:3b:23:
                    7e:97:62:b4:db:b2:b3:0f:3d:30:15:d9:6b:21:81:
                    e2:e2:a0:0e:cd:e9:cc:be:f6:33:e9:74:69:c9:cb:
                    8d:34:96:66:d2:31:0f:de:15:2b:af:e2:cb:eb:c3:
                    4f:0d:0f:ea:43:8c:7a:5e:bb:cc:30:03:13:94:90:
                    38:ea:ef:b7:1f:c8:b1:a7:f4:ef:a3:0b:01:e0:6f:
                    b8:b9:8b:4b:28:6d:6f:77:38:e8:d5:47:2f:bb:5c:
                    dc:b0:1d:cf:0e:20:5c:8e:d5:a0:e5:db:9c:24:06:
                    88:cf:54:d9:14:3c:08:b0:d9:0f:01:ad:78:9d:bf:
                    65:f7:a5:11:73:6f:9b:0a:96:c8:d0:be:7b:f3:2a:
                    13:0b:b7:ad:37:d6:9f:61:9e:03:52:df:51:b3:9a:
                    5c:b9:8e:41:33:ec:1e:af:d9:f4:b2:15:de:4c:fd:
                    06:f1:d9:bf:9e:97:65:93:3e:54:f8:8e:6e:56:e1:
                    21:aa:6d:7d:63:bc:f2:18:d4:8b:36:27:62:bf:0f:
                    38:ee:73:cb:f3:92:32:3f:95:c9:93:70:d1:37:4d:
                    8f:86:e3:e9:31:83:b2:d4:cf:35:29:07:37:9a:a7:
                    1e:b1:43:c8:7d:fa:45:2e:57:3f:99:1a:36:ab:13:
                    3c:c5:6a:60:28:98:1f:d1:a6:b9:dd:e8:10:15:f8:
                    1f:02:b9:6e:e7:00:5a:ad:f8:4c:1b:7c:e5:79:ee:
                    5a:f4:e5
                Exponent: 65537 (0x10001)
        X509v3 extensions:
            X509v3 Basic Constraints: 
                CA:FALSE
            Netscape Comment: 
                Easy-RSA Generated Certificate
            X509v3 Subject Key Identifier: 
                88:C6:84:37:78:4C:FE:BF:62:0E:DF:E1:70:EF:42:6D:B7:34:87:CA
            X509v3 Authority Key Identifier: 
                keyid:12:CD:60:04:D2:A0:80:9E:70:ED:C6:99:B8:7B:2C:C6:52:FD:19:A1
                DirName:/C=US/ST=OH/L=Columbus/O=VikingVPN/OU=MyOrganizationalUnit/CN=VikingVPN CA/name=EasyRSA/emailAddress=me@myhost.mydomain
                serial:CF:35:85:EE:80:BF:2A:3E

            X509v3 Extended Key Usage: 
                TLS Web Client Authentication
            X509v3 Key Usage: 
                Digital Signature
    Signature Algorithm: md5WithRSAEncryption
         8c:2c:5b:cb:c4:3b:34:cc:db:37:7b:0d:ff:c7:fa:c7:a9:c6:
         25:0f:0b:15:bc:23:f4:87:91:3b:49:bc:8e:7e:33:f1:36:a9:
         49:dc:ff:c8:87:b5:10:9d:42:ac:00:fa:40:b1:3a:6d:06:48:
         1d:dd:8a:16:4f:52:e9:1f:ef:c3:ba:3c:9f:44:44:d5:e4:ca:
         54:0b:26:57:51:39:21:d3:98:3c:a2:d8:c8:19:31:af:08:9d:
         0a:c7:da:c7:cd:f2:e0:3b:0d:a4:fc:21:1c:0a:13:a9:aa:b7:
         89:9d:f0:1e:11:4a:ca:84:65:35:54:4f:36:20:99:b5:da:b7:
         75:39:3e:4d:6c:2f:57:53:5c:4f:a4:41:75:b5:30:d3:e2:7c:
         53:3e:cc:3f:4d:2f:f9:c3:53:06:b4:a9:1d:32:7f:5d:96:73:
         a0:6f:2c:31:54:8a:95:57:6a:f7:ee:48:b0:ff:05:ac:96:e7:
         ec:64:b6:8d:09:9e:32:06:30:59:57:65:e4:70:e9:75:57:6e:
         40:92:db:11:73:3e:01:a9:3a:c8:cc:db:e1:4b:84:ab:9d:f8:
         80:27:c3:0c:1a:36:0f:39:56:0f:cf:b6:ee:85:02:ee:bf:7b:
         3a:8a:dc:0c:00:f6:81:4c:c7:dc:a2:ae:96:52:7b:70:61:18:
         da:ba:60:b4:b5:6c:e6:2b:75:33:2a:1c:8f:1f:d3:7f:9b:fa:
         aa:f7:fa:8b:bb:04:81:92:0b:59:19:3f:b1:7c:ed:62:e7:3a:
         e1:04:e7:4d:11:02:82:91:cc:3e:e9:87:51:2f:d7:23:fb:24:
         f6:04:d1:85:07:b8:e3:68:f1:81:b4:0b:e7:bd:19:c0:77:1c:
         2b:59:63:49:19:ad:9a:0d:38:34:0e:37:86:58:e3:9a:9e:cd:
         80:e6:b1:51:bc:9b:24:98:bd:03:d6:54:44:00:b2:d8:73:9a:
         a8:08:c8:20:2b:92:a9:1a:c7:79:94:5c:18:56:51:73:33:6a:
         1b:97:d5:d5:5c:fd:76:49:19:2a:4f:11:38:25:22:78:3b:9a:
         d9:c6:27:c3:0e:64:59:36:ae:75:39:6e:11:dc:93:33:0a:21:
         55:23:c8:e6:bf:04:06:0e:1e:3a:b5:14:69:25:5b:52:9f:4d:
         1f:4a:5e:bb:20:23:f4:5c:b0:3d:2c:dc:86:90:3f:bf:02:16:
         95:de:8f:03:fb:09:ca:51:6f:5b:df:ef:58:66:55:29:fb:a4:
         d6:32:46:8d:46:ad:01:9e:96:3f:70:58:90:87:06:07:3b:ce:
         92:28:5c:7c:84:95:a6:61:b1:02:db:e8:3f:04:f2:01:0a:f5:
         8d:8b:d9:dc:e9:52:cb:96
-----BEGIN CERTIFICATE-----
MIIGrTCCBJWgAwIBAgICGYUwDQYJKoZIhvcNAQEEBQAwgawxCzAJBgNVBAYTAlVT
MQswCQYDVQQIEwJPSDERMA8GA1UEBxMIQ29sdW1idXMxEjAQBgNVBAoTCVZpa2lu
Z1ZQTjEdMBsGA1UECxMUTXlPcmdhbml6YXRpb25hbFVuaXQxFTATBgNVBAMTDFZp
a2luZ1ZQTiBDQTEQMA4GA1UEKRMHRWFzeVJTQTEhMB8GCSqGSIb3DQEJARYSbWVA
bXlob3N0Lm15ZG9tYWluMB4XDTE1MTAyMTE0MDQyNFoXDTI1MTAxODE0MDQyNFow
HzEdMBsGA1UEAxMUQ2xpZW50MjAxMUNlcnQ1MTI0MzUwggIiMA0GCSqGSIb3DQEB
AQUAA4ICDwAwggIKAoICAQDHJGE4/ejy81hrz2AW2isuThD5L83iwX+xDXtu17s5
jAgF4+P1bPv404dddhhjFWO3tmOY7pi3HQ3YBJ2hCN/GrTE+arQd7ddeHmrirG1E
8XV4zD2uz9P+0VD3nP80IIrTw6xOr5i0ErsR+Tl79lsEWQeja9DnSapCsdWxOc1t
uVN+x+/Ur3+GEwETtvn6xVN+AK5TH+oJCvF/jV8gy7yqYDMNuzHVKJv+gOugCEr0
WnI9cYYSbDMNWgqMOnR2v4KyWfUgkoMDf4OQow+4W4AX9Pu1eH3DCTHt79nPAVrC
4pmK6CoKttwCeVmdf2U7I36XYrTbsrMPPTAV2WshgeLioA7N6cy+9jPpdGnJy400
lmbSMQ/eFSuv4svrw08ND+pDjHpeu8wwAxOUkDjq77cfyLGn9O+jCwHgb7i5i0so
bW93OOjVRy+7XNywHc8OIFyO1aDl25wkBojPVNkUPAiw2Q8BrXidv2X3pRFzb5sK
lsjQvnvzKhMLt6031p9hngNS31Gzmly5jkEz7B6v2fSyFd5M/Qbx2b+el2WTPlT4
jm5W4SGqbX1jvPIY1Is2J2K/Dzjuc8vzkjI/lcmTcNE3TY+G4+kxg7LUzzUpBzea
px6xQ8h9+kUuVz+ZGjarEzzFamAomB/Rprnd6BAV+B8CuW7nAFqt+EwbfOV57lr0
5QIDAQABo4IBYzCCAV8wCQYDVR0TBAIwADAtBglghkgBhvhCAQ0EIBYeRWFzeS1S
U0EgR2VuZXJhdGVkIENlcnRpZmljYXRlMB0GA1UdDgQWBBSIxoQ3eEz+v2IO3+Fw
70JttzSHyjCB4QYDVR0jBIHZMIHWgBQSzWAE0qCAnnDtxpm4eyzGUv0ZoaGBsqSB
rzCBrDELMAkGA1UEBhMCVVMxCzAJBgNVBAgTAk9IMREwDwYDVQQHEwhDb2x1bWJ1
czESMBAGA1UEChMJVmlraW5nVlBOMR0wGwYDVQQLExRNeU9yZ2FuaXphdGlvbmFs
VW5pdDEVMBMGA1UEAxMMVmlraW5nVlBOIENBMRAwDgYDVQQpEwdFYXN5UlNBMSEw
HwYJKoZIhvcNAQkBFhJtZUBteWhvc3QubXlkb21haW6CCQDPNYXugL8qPjATBgNV
HSUEDDAKBggrBgEFBQcDAjALBgNVHQ8EBAMCB4AwDQYJKoZIhvcNAQEEBQADggIB
AIwsW8vEOzTM2zd7Df/H+sepxiUPCxW8I/SHkTtJvI5+M/E2qUnc/8iHtRCdQqwA
+kCxOm0GSB3dihZPUukf78O6PJ9ERNXkylQLJldROSHTmDyi2MgZMa8InQrH2sfN
8uA7DaT8IRwKE6mqt4md8B4RSsqEZTVUTzYgmbXat3U5Pk1sL1dTXE+kQXW1MNPi
fFM+zD9NL/nDUwa0qR0yf12Wc6BvLDFUipVXavfuSLD/BayW5+xkto0JnjIGMFlX
ZeRw6XVXbkCS2xFzPgGpOsjM2+FLhKud+IAnwwwaNg85Vg/Ptu6FAu6/ezqK3AwA
9oFMx9yirpZSe3BhGNq6YLS1bOYrdTMqHI8f03+b+qr3+ou7BIGSC1kZP7F87WLn
OuEE500RAoKRzD7ph1Ev1yP7JPYE0YUHuONo8YG0C+e9GcB3HCtZY0kZrZoNODQO
N4ZY45qezYDmsVG8mySYvQPWVEQAsthzmqgIyCArkqkax3mUXBhWUXMzahuX1dVc
/XZJGSpPETglIng7mtnGJ8MOZFk2rnU5bhHckzMKIVUjyOa/BAYOHjq1FGklW1Kf
TR9KXrsgI/RcsD0s3IaQP78CFpXejwP7CcpRb1vf71hmVSn7pNYyRo1GrQGelj9w
WJCHBgc7zpIoXHyElaZhsQLb6D8E8gEK9Y2L2dzpUsuW
-----END CERTIFICATE-----
