Certificate:
    Data:
        Version: 3 (0x2)
        Serial Number: 6557 (0x199d)
    Signature Algorithm: md5WithRSAEncryption
        Issuer: C=US, ST=OH, L=Columbus, O=VikingVPN, OU=MyOrganizationalUnit, CN=VikingVPN CA/name=EasyRSA/emailAddress=me@myhost.mydomain
        Validity
            Not Before: Oct 26 04:46:42 2015 GMT
            Not After : Oct 23 04:46:42 2025 GMT
        Subject: CN=Client2022Cert0edfa3
        Subject Public Key Info:
            Public Key Algorithm: rsaEncryption
                Public-Key: (4096 bit)
                Modulus:
                    00:f0:77:03:6a:bc:2a:0c:c0:f9:fc:2b:69:5a:26:
                    07:1b:8b:d5:5a:86:e0:f6:33:c8:4a:b7:1a:f1:2b:
                    45:b6:38:75:3f:f8:97:4f:d9:a4:68:91:a2:3d:0c:
                    05:47:d8:02:c3:ea:c2:01:51:e7:84:e2:54:e7:84:
                    c7:45:d9:00:35:45:65:4a:92:a8:dd:d1:e2:fd:b7:
                    86:e6:f1:99:3e:26:b2:1d:fa:82:87:17:6f:74:0e:
                    69:b1:9e:3e:b2:4a:b1:d0:c6:3c:74:00:f4:37:4f:
                    58:95:52:d1:b0:48:20:7a:03:7d:c6:08:d3:82:48:
                    27:07:af:f2:6b:37:fe:a7:5f:4c:01:a6:a7:07:a7:
                    6d:6a:4d:c4:5b:ae:ae:f9:fd:d6:f6:05:3f:aa:26:
                    56:59:d9:f6:f0:ab:37:13:e8:38:f9:f6:47:63:4a:
                    cc:f4:8a:21:66:87:a4:d4:01:92:38:36:e9:d3:08:
                    5d:f2:99:25:bb:7c:4a:48:95:38:4f:22:34:88:c5:
                    2b:4c:24:53:18:2d:d3:df:27:19:94:dd:69:cb:82:
                    41:a4:6f:02:5b:a4:86:be:e9:22:2e:03:a1:01:db:
                    4b:4f:3d:50:4c:0f:d0:78:4b:6a:83:c0:b2:0c:32:
                    90:1c:bd:cc:f8:90:36:89:9d:7f:ca:d1:26:df:51:
                    66:97:de:c3:f9:43:ba:d4:3e:07:aa:13:d7:28:db:
                    e2:11:5a:07:83:e3:34:9a:e9:59:5b:84:86:17:41:
                    85:83:a6:c0:49:cd:57:55:1b:a9:bb:bd:57:25:63:
                    31:1d:51:81:fa:52:cb:b8:ff:4c:2f:a3:35:38:17:
                    36:01:67:44:69:08:eb:44:e0:03:9e:4e:e4:8f:f7:
                    d3:90:a0:d9:49:0f:5f:93:55:cc:c7:42:15:bf:a9:
                    08:c8:6d:18:f6:1e:91:0a:d1:0a:37:a1:d8:1d:63:
                    ea:03:68:16:01:83:56:11:43:f1:4e:c2:71:4b:86:
                    5e:cb:71:6f:de:a5:ec:b4:0c:69:5c:18:df:88:6f:
                    18:9c:79:f3:17:72:00:39:22:c9:72:28:ef:51:4d:
                    3d:03:5e:18:f7:dd:de:31:a6:82:4a:9d:68:db:de:
                    38:60:5d:55:33:84:f6:20:f9:1e:d1:13:70:b0:d5:
                    49:96:50:50:bf:8c:a7:3b:e4:dd:93:b6:34:e5:dd:
                    db:e8:cc:68:5d:34:06:8c:c9:11:ac:d2:2f:fa:e1:
                    3c:65:17:55:ba:76:64:ca:aa:57:2e:56:b4:6b:38:
                    37:10:3f:04:11:1b:75:f4:47:14:dd:50:21:dc:89:
                    5a:e1:25:47:6f:5c:1f:bf:38:a0:54:da:49:db:36:
                    70:3d:13
                Exponent: 65537 (0x10001)
        X509v3 extensions:
            X509v3 Basic Constraints: 
                CA:FALSE
            Netscape Comment: 
                Easy-RSA Generated Certificate
            X509v3 Subject Key Identifier: 
                8B:5B:80:A5:97:8D:51:16:E3:ED:28:E9:A1:6B:4F:56:49:13:93:00
            X509v3 Authority Key Identifier: 
                keyid:12:CD:60:04:D2:A0:80:9E:70:ED:C6:99:B8:7B:2C:C6:52:FD:19:A1
                DirName:/C=US/ST=OH/L=Columbus/O=VikingVPN/OU=MyOrganizationalUnit/CN=VikingVPN CA/name=EasyRSA/emailAddress=me@myhost.mydomain
                serial:CF:35:85:EE:80:BF:2A:3E

            X509v3 Extended Key Usage: 
                TLS Web Client Authentication
            X509v3 Key Usage: 
                Digital Signature
    Signature Algorithm: md5WithRSAEncryption
         74:0c:b5:41:a3:2a:9b:cd:6c:9d:f6:03:86:f5:ec:30:c6:cd:
         b7:61:dc:43:e4:a0:69:d4:16:3e:e1:d9:af:21:32:7e:3f:50:
         15:da:88:00:15:13:a4:56:d5:f4:58:f6:db:a4:08:79:0a:9f:
         b7:85:53:0e:49:25:d5:15:a9:6b:c7:96:1a:d2:1e:41:aa:1e:
         26:b3:99:e7:8e:9b:00:22:72:7d:2d:31:56:6f:1a:2a:9e:aa:
         3d:57:0a:04:0b:86:d2:21:f6:47:7f:a3:f7:25:f5:76:8d:c3:
         7c:f8:80:8e:ac:c5:de:e4:eb:0f:53:4f:69:d7:78:49:40:38:
         36:02:bc:14:da:14:72:78:fe:91:8d:51:62:c5:ea:2c:d4:d1:
         fb:d1:ad:59:10:bc:69:a0:52:f4:8c:63:6d:71:e8:d0:61:55:
         1c:9d:95:94:fd:06:1e:5d:fb:0d:8d:7e:88:7f:1d:b1:54:7b:
         bf:cd:34:55:9d:3f:49:f4:93:7c:66:07:9b:de:00:85:02:21:
         d4:54:57:80:6e:37:3d:73:d3:1e:05:d7:61:c8:16:18:3a:db:
         d2:23:c9:40:b2:61:05:af:79:3c:17:42:a0:86:f0:8a:de:a3:
         f4:86:42:70:c7:c4:0e:18:35:8d:81:6b:52:ac:a4:5b:b4:2c:
         46:77:bd:2e:f0:7e:86:ad:83:e2:59:1e:e3:f8:e7:21:02:00:
         21:f2:dc:0d:42:cf:94:8e:60:52:de:99:06:96:2f:0d:7f:d7:
         9e:0f:da:b3:82:24:13:14:0c:b0:b7:b7:22:3e:a4:6d:80:25:
         52:54:28:2f:42:f2:c6:89:6c:30:5b:e5:e7:9f:99:20:89:12:
         34:2b:5d:18:ca:13:0e:05:f0:f5:ff:38:db:18:f6:83:ab:8a:
         ce:e5:5c:ab:7d:95:fa:66:28:c6:b6:51:46:e1:21:65:7c:7a:
         d6:83:cd:0f:4a:34:12:bc:c8:30:1b:f1:bc:db:9a:04:51:47:
         50:87:d4:14:bd:25:3e:85:53:91:4a:7a:d4:ec:da:af:37:4e:
         f9:5f:27:85:c5:c4:af:53:a7:7e:83:e4:15:7c:0e:ef:c9:dd:
         b5:48:6c:2b:1a:d3:04:d3:7f:cb:33:a3:7e:bd:bf:ab:ee:30:
         a1:f5:ce:37:60:80:cb:1f:9b:46:14:eb:6b:e9:25:30:a7:7b:
         a8:79:d0:11:e4:8c:18:7f:e1:01:2a:6b:b9:cd:df:6f:71:d2:
         c2:80:77:89:b0:b0:7b:6d:88:3d:c3:ca:42:b8:e2:af:d8:41:
         45:5a:99:b7:85:8c:da:02:d3:d8:9e:5f:7b:30:3e:bf:33:f7:
         f6:9f:ff:ff:05:75:0a:c7
-----BEGIN CERTIFICATE-----
MIIGrTCCBJWgAwIBAgICGZ0wDQYJKoZIhvcNAQEEBQAwgawxCzAJBgNVBAYTAlVT
MQswCQYDVQQIEwJPSDERMA8GA1UEBxMIQ29sdW1idXMxEjAQBgNVBAoTCVZpa2lu
Z1ZQTjEdMBsGA1UECxMUTXlPcmdhbml6YXRpb25hbFVuaXQxFTATBgNVBAMTDFZp
a2luZ1ZQTiBDQTEQMA4GA1UEKRMHRWFzeVJTQTEhMB8GCSqGSIb3DQEJARYSbWVA
bXlob3N0Lm15ZG9tYWluMB4XDTE1MTAyNjA0NDY0MloXDTI1MTAyMzA0NDY0Mlow
HzEdMBsGA1UEAxMUQ2xpZW50MjAyMkNlcnQwZWRmYTMwggIiMA0GCSqGSIb3DQEB
AQUAA4ICDwAwggIKAoICAQDwdwNqvCoMwPn8K2laJgcbi9VahuD2M8hKtxrxK0W2
OHU/+JdP2aRokaI9DAVH2ALD6sIBUeeE4lTnhMdF2QA1RWVKkqjd0eL9t4bm8Zk+
JrId+oKHF290Dmmxnj6ySrHQxjx0APQ3T1iVUtGwSCB6A33GCNOCSCcHr/JrN/6n
X0wBpqcHp21qTcRbrq75/db2BT+qJlZZ2fbwqzcT6Dj59kdjSsz0iiFmh6TUAZI4
NunTCF3ymSW7fEpIlThPIjSIxStMJFMYLdPfJxmU3WnLgkGkbwJbpIa+6SIuA6EB
20tPPVBMD9B4S2qDwLIMMpAcvcz4kDaJnX/K0SbfUWaX3sP5Q7rUPgeqE9co2+IR
WgeD4zSa6VlbhIYXQYWDpsBJzVdVG6m7vVclYzEdUYH6Usu4/0wvozU4FzYBZ0Rp
COtE4AOeTuSP99OQoNlJD1+TVczHQhW/qQjIbRj2HpEK0Qo3odgdY+oDaBYBg1YR
Q/FOwnFLhl7LcW/epey0DGlcGN+IbxicefMXcgA5IslyKO9RTT0DXhj33d4xpoJK
nWjb3jhgXVUzhPYg+R7RE3Cw1UmWUFC/jKc75N2TtjTl3dvozGhdNAaMyRGs0i/6
4TxlF1W6dmTKqlcuVrRrODcQPwQRG3X0RxTdUCHciVrhJUdvXB+/OKBU2knbNnA9
EwIDAQABo4IBYzCCAV8wCQYDVR0TBAIwADAtBglghkgBhvhCAQ0EIBYeRWFzeS1S
U0EgR2VuZXJhdGVkIENlcnRpZmljYXRlMB0GA1UdDgQWBBSLW4Cll41RFuPtKOmh
a09WSROTADCB4QYDVR0jBIHZMIHWgBQSzWAE0qCAnnDtxpm4eyzGUv0ZoaGBsqSB
rzCBrDELMAkGA1UEBhMCVVMxCzAJBgNVBAgTAk9IMREwDwYDVQQHEwhDb2x1bWJ1
czESMBAGA1UEChMJVmlraW5nVlBOMR0wGwYDVQQLExRNeU9yZ2FuaXphdGlvbmFs
VW5pdDEVMBMGA1UEAxMMVmlraW5nVlBOIENBMRAwDgYDVQQpEwdFYXN5UlNBMSEw
HwYJKoZIhvcNAQkBFhJtZUBteWhvc3QubXlkb21haW6CCQDPNYXugL8qPjATBgNV
HSUEDDAKBggrBgEFBQcDAjALBgNVHQ8EBAMCB4AwDQYJKoZIhvcNAQEEBQADggIB
AHQMtUGjKpvNbJ32A4b17DDGzbdh3EPkoGnUFj7h2a8hMn4/UBXaiAAVE6RW1fRY
9tukCHkKn7eFUw5JJdUVqWvHlhrSHkGqHiazmeeOmwAicn0tMVZvGiqeqj1XCgQL
htIh9kd/o/cl9XaNw3z4gI6sxd7k6w9TT2nXeElAODYCvBTaFHJ4/pGNUWLF6izU
0fvRrVkQvGmgUvSMY21x6NBhVRydlZT9Bh5d+w2Nfoh/HbFUe7/NNFWdP0n0k3xm
B5veAIUCIdRUV4BuNz1z0x4F12HIFhg629IjyUCyYQWveTwXQqCG8Ireo/SGQnDH
xA4YNY2Ba1KspFu0LEZ3vS7wfoatg+JZHuP45yECACHy3A1Cz5SOYFLemQaWLw1/
154P2rOCJBMUDLC3tyI+pG2AJVJUKC9C8saJbDBb5eefmSCJEjQrXRjKEw4F8PX/
ONsY9oOris7lXKt9lfpmKMa2UUbhIWV8etaDzQ9KNBK8yDAb8bzbmgRRR1CH1BS9
JT6FU5FKetTs2q83TvlfJ4XFxK9Tp36D5BV8Du/J3bVIbCsa0wTTf8szo369v6vu
MKH1zjdggMsfm0YU62vpJTCne6h50BHkjBh/4QEqa7nN329x0sKAd4mwsHttiD3D
ykK44q/YQUVambeFjNoC09ieX3swPr8z9/af//8FdQrH
-----END CERTIFICATE-----
