Certificate:
    Data:
        Version: 3 (0x2)
        Serial Number: 6558 (0x199e)
    Signature Algorithm: md5WithRSAEncryption
        Issuer: C=US, ST=OH, L=Columbus, O=VikingVPN, OU=MyOrganizationalUnit, CN=VikingVPN CA/name=EasyRSA/emailAddress=me@myhost.mydomain
        Validity
            Not Before: Oct 26 04:57:18 2015 GMT
            Not After : Oct 23 04:57:18 2025 GMT
        Subject: CN=Client2022Cert11f300
        Subject Public Key Info:
            Public Key Algorithm: rsaEncryption
                Public-Key: (4096 bit)
                Modulus:
                    00:ec:b9:45:02:4c:60:ec:e7:7c:87:dd:e1:7b:52:
                    05:03:2c:fa:ff:77:c9:9c:85:af:54:1c:be:fe:c7:
                    21:b2:fb:26:87:a9:1a:38:29:33:c8:6c:93:19:90:
                    d8:9d:21:7a:64:f9:c3:22:f5:0a:11:35:84:f3:a0:
                    7b:97:a2:b8:7b:f0:b6:5c:26:ec:4c:d0:26:93:85:
                    12:55:16:e2:d5:df:71:54:d4:a1:7e:fa:cc:43:66:
                    10:07:f0:ee:25:ca:10:fb:7e:b0:bb:d3:56:57:7b:
                    c9:c5:a8:fb:c3:1b:e0:3d:3c:32:a3:9c:7f:52:58:
                    4c:f5:6e:08:4f:65:14:ef:96:17:2a:f9:7d:57:02:
                    b1:49:4d:7d:10:24:eb:26:c2:47:4e:c9:9a:a4:b6:
                    dc:53:a6:c5:1f:92:7d:cf:f2:c0:c4:15:b3:8a:80:
                    f4:e0:68:c0:25:6c:75:4d:cf:4b:fc:67:76:be:f8:
                    91:19:0b:74:35:28:fc:86:59:53:ec:70:0c:d6:7a:
                    da:ee:17:d1:c4:03:6b:b8:d2:0b:bd:2a:88:f6:8b:
                    98:b2:33:29:63:f2:2a:97:e1:95:76:1b:7b:ea:cb:
                    94:f1:61:17:1d:55:bf:ee:f8:b4:3d:c7:a9:96:f5:
                    5d:a3:9e:80:60:2f:56:a8:0e:a2:91:3e:11:94:94:
                    36:a2:aa:cf:a6:6c:39:db:c4:f4:c7:f6:33:50:6b:
                    b8:93:83:a4:5f:a8:a8:5f:5e:5f:86:5e:2b:74:56:
                    00:70:ba:49:b4:ff:7a:ee:86:3c:86:8e:da:b8:b3:
                    b0:52:f6:bc:c3:8c:4d:69:e3:17:ae:4f:e0:56:d0:
                    d2:75:f0:a2:22:83:c2:ab:73:52:db:23:1f:3b:00:
                    e1:42:7e:6d:c8:22:19:0f:21:49:0d:17:74:01:2b:
                    46:22:c1:d0:60:31:9a:f4:e3:bf:47:75:34:dd:55:
                    66:01:c3:f7:7a:35:f7:99:a0:58:dd:d5:fe:b5:b5:
                    b7:90:0f:db:ce:a0:8b:3b:50:5f:cb:15:8e:9d:0f:
                    4e:53:81:1b:29:41:dc:39:89:53:c2:11:b0:2c:48:
                    5f:23:b7:ce:bf:6b:a5:7e:d5:07:37:d5:d4:d5:b7:
                    4b:b7:e5:7f:52:24:c8:45:4c:74:8e:74:f5:18:67:
                    c3:d8:d4:fb:c2:a5:2d:71:3d:5a:ed:9e:88:75:8a:
                    17:e1:52:b8:51:da:46:bc:e5:74:31:39:32:44:a7:
                    83:0b:21:56:8d:98:36:c0:e5:c4:ac:f8:90:83:a0:
                    c9:be:b5:52:33:38:15:3e:36:bd:e9:d1:f5:2d:a7:
                    74:4b:72:0e:29:3a:47:46:3f:f9:b1:e3:26:10:90:
                    88:bf:3d
                Exponent: 65537 (0x10001)
        X509v3 extensions:
            X509v3 Basic Constraints: 
                CA:FALSE
            Netscape Comment: 
                Easy-RSA Generated Certificate
            X509v3 Subject Key Identifier: 
                A4:40:01:63:A9:87:7D:80:A5:B3:FB:E2:07:B1:FB:76:15:03:38:52
            X509v3 Authority Key Identifier: 
                keyid:12:CD:60:04:D2:A0:80:9E:70:ED:C6:99:B8:7B:2C:C6:52:FD:19:A1
                DirName:/C=US/ST=OH/L=Columbus/O=VikingVPN/OU=MyOrganizationalUnit/CN=VikingVPN CA/name=EasyRSA/emailAddress=me@myhost.mydomain
                serial:CF:35:85:EE:80:BF:2A:3E

            X509v3 Extended Key Usage: 
                TLS Web Client Authentication
            X509v3 Key Usage: 
                Digital Signature
    Signature Algorithm: md5WithRSAEncryption
         88:be:7a:a7:f5:8b:bb:c4:33:98:c1:cc:47:fd:6f:a4:7a:da:
         48:e8:fc:39:48:bc:b4:43:d0:a5:22:3c:97:42:a3:ab:f2:63:
         ec:96:67:fe:1e:8c:64:ae:b2:e3:c3:22:42:90:b9:50:42:c7:
         c5:1f:a0:e4:3e:d8:8b:1d:dd:15:77:ca:4d:a8:32:09:86:7f:
         19:f4:9c:af:9e:9e:21:f2:7b:fb:15:1a:8e:d0:aa:d3:71:19:
         13:4a:db:71:0a:aa:0f:a4:31:ed:e2:ca:2c:50:bb:2b:b7:df:
         55:9f:16:ff:ab:e3:32:fc:be:66:9f:02:14:c9:d6:c0:3b:29:
         72:86:a7:06:b8:47:31:4b:cf:24:4c:71:c9:2d:49:d8:d4:3e:
         37:91:f1:ed:e3:0e:7e:35:d4:12:eb:75:0d:4d:88:1a:fe:ac:
         b0:d5:f3:08:25:0b:ce:62:e6:85:07:16:11:d2:0c:5e:01:7f:
         d4:d6:33:5e:c1:dc:8d:a5:b6:b6:0b:2c:d8:d2:7b:0c:02:81:
         04:2a:ce:a5:b5:6e:d1:ae:ca:36:e2:a8:65:e9:c4:e8:f9:6e:
         78:a0:e4:93:d8:cd:3a:42:65:b5:fe:fe:0b:a7:76:a2:84:5c:
         2e:a6:69:fa:04:1a:b6:6d:63:65:fe:b1:86:47:c7:a7:c9:12:
         f4:46:ff:95:6f:cb:ca:25:cc:46:1e:a9:94:1e:c6:fa:ad:3b:
         90:ba:48:2f:af:1d:5d:07:85:5f:14:57:1a:00:72:06:2c:b2:
         ee:00:b5:0c:f5:cd:33:87:37:ff:e6:55:14:b2:ed:ff:20:9c:
         93:0e:9e:3e:e7:04:6f:6a:f7:ea:42:a0:c3:09:01:e2:ea:d5:
         c1:11:b5:1f:93:69:ee:cf:17:46:93:9b:3f:eb:1d:df:51:53:
         62:e3:0a:62:6a:08:98:d1:aa:63:4a:fc:00:d0:4d:31:cf:fb:
         29:62:cd:16:b8:9b:08:fe:a5:b7:fc:05:1b:b1:15:d1:93:bb:
         72:40:82:96:5e:73:b4:1b:0f:9c:e4:c6:e7:f3:00:1e:e6:fa:
         2b:c0:7d:cd:e5:22:d6:84:d3:8b:64:6a:dd:58:c3:ac:0c:24:
         fd:83:7f:87:7b:72:21:88:ec:f8:4e:fb:0a:57:53:ab:78:e2:
         56:8e:e3:72:fd:b8:9d:42:21:9a:16:ad:0e:8a:da:f5:65:de:
         1a:8e:0f:e4:47:f6:5b:60:a1:4b:66:50:de:be:28:5d:85:4f:
         51:03:2d:2d:63:06:3d:e2:d6:6b:76:af:08:a3:b8:db:5b:ab:
         ae:7b:dc:0a:43:de:ba:96:4d:c2:23:75:9b:52:17:5e:fd:96:
         ea:9b:08:04:ea:78:e1:63
-----BEGIN CERTIFICATE-----
MIIGrTCCBJWgAwIBAgICGZ4wDQYJKoZIhvcNAQEEBQAwgawxCzAJBgNVBAYTAlVT
MQswCQYDVQQIEwJPSDERMA8GA1UEBxMIQ29sdW1idXMxEjAQBgNVBAoTCVZpa2lu
Z1ZQTjEdMBsGA1UECxMUTXlPcmdhbml6YXRpb25hbFVuaXQxFTATBgNVBAMTDFZp
a2luZ1ZQTiBDQTEQMA4GA1UEKRMHRWFzeVJTQTEhMB8GCSqGSIb3DQEJARYSbWVA
bXlob3N0Lm15ZG9tYWluMB4XDTE1MTAyNjA0NTcxOFoXDTI1MTAyMzA0NTcxOFow
HzEdMBsGA1UEAxMUQ2xpZW50MjAyMkNlcnQxMWYzMDAwggIiMA0GCSqGSIb3DQEB
AQUAA4ICDwAwggIKAoICAQDsuUUCTGDs53yH3eF7UgUDLPr/d8mcha9UHL7+xyGy
+yaHqRo4KTPIbJMZkNidIXpk+cMi9QoRNYTzoHuXorh78LZcJuxM0CaThRJVFuLV
33FU1KF++sxDZhAH8O4lyhD7frC701ZXe8nFqPvDG+A9PDKjnH9SWEz1bghPZRTv
lhcq+X1XArFJTX0QJOsmwkdOyZqkttxTpsUfkn3P8sDEFbOKgPTgaMAlbHVNz0v8
Z3a++JEZC3Q1KPyGWVPscAzWetruF9HEA2u40gu9Koj2i5iyMylj8iqX4ZV2G3vq
y5TxYRcdVb/u+LQ9x6mW9V2jnoBgL1aoDqKRPhGUlDaiqs+mbDnbxPTH9jNQa7iT
g6RfqKhfXl+GXit0VgBwukm0/3ruhjyGjtq4s7BS9rzDjE1p4xeuT+BW0NJ18KIi
g8Krc1LbIx87AOFCfm3IIhkPIUkNF3QBK0YiwdBgMZr0479HdTTdVWYBw/d6NfeZ
oFjd1f61tbeQD9vOoIs7UF/LFY6dD05TgRspQdw5iVPCEbAsSF8jt86/a6V+1Qc3
1dTVt0u35X9SJMhFTHSOdPUYZ8PY1PvCpS1xPVrtnoh1ihfhUrhR2ka85XQxOTJE
p4MLIVaNmDbA5cSs+JCDoMm+tVIzOBU+Nr3p0fUtp3RLcg4pOkdGP/mx4yYQkIi/
PQIDAQABo4IBYzCCAV8wCQYDVR0TBAIwADAtBglghkgBhvhCAQ0EIBYeRWFzeS1S
U0EgR2VuZXJhdGVkIENlcnRpZmljYXRlMB0GA1UdDgQWBBSkQAFjqYd9gKWz++IH
sft2FQM4UjCB4QYDVR0jBIHZMIHWgBQSzWAE0qCAnnDtxpm4eyzGUv0ZoaGBsqSB
rzCBrDELMAkGA1UEBhMCVVMxCzAJBgNVBAgTAk9IMREwDwYDVQQHEwhDb2x1bWJ1
czESMBAGA1UEChMJVmlraW5nVlBOMR0wGwYDVQQLExRNeU9yZ2FuaXphdGlvbmFs
VW5pdDEVMBMGA1UEAxMMVmlraW5nVlBOIENBMRAwDgYDVQQpEwdFYXN5UlNBMSEw
HwYJKoZIhvcNAQkBFhJtZUBteWhvc3QubXlkb21haW6CCQDPNYXugL8qPjATBgNV
HSUEDDAKBggrBgEFBQcDAjALBgNVHQ8EBAMCB4AwDQYJKoZIhvcNAQEEBQADggIB
AIi+eqf1i7vEM5jBzEf9b6R62kjo/DlIvLRD0KUiPJdCo6vyY+yWZ/4ejGSusuPD
IkKQuVBCx8UfoOQ+2Isd3RV3yk2oMgmGfxn0nK+eniHye/sVGo7QqtNxGRNK23EK
qg+kMe3iyixQuyu331WfFv+r4zL8vmafAhTJ1sA7KXKGpwa4RzFLzyRMccktSdjU
PjeR8e3jDn411BLrdQ1NiBr+rLDV8wglC85i5oUHFhHSDF4Bf9TWM17B3I2ltrYL
LNjSewwCgQQqzqW1btGuyjbiqGXpxOj5bnig5JPYzTpCZbX+/gundqKEXC6mafoE
GrZtY2X+sYZHx6fJEvRG/5Vvy8olzEYeqZQexvqtO5C6SC+vHV0HhV8UVxoAcgYs
su4AtQz1zTOHN//mVRSy7f8gnJMOnj7nBG9q9+pCoMMJAeLq1cERtR+Tae7PF0aT
mz/rHd9RU2LjCmJqCJjRqmNK/ADQTTHP+ylizRa4mwj+pbf8BRuxFdGTu3JAgpZe
c7QbD5zkxufzAB7m+ivAfc3lItaE04tkat1Yw6wMJP2Df4d7ciGI7PhO+wpXU6t4
4laO43L9uJ1CIZoWrQ6K2vVl3hqOD+RH9ltgoUtmUN6+KF2FT1EDLS1jBj3i1mt2
rwijuNtbq6573ApD3rqWTcIjdZtSF179luqbCATqeOFj
-----END CERTIFICATE-----
