Certificate:
    Data:
        Version: 3 (0x2)
        Serial Number: 6567 (0x19a7)
    Signature Algorithm: md5WithRSAEncryption
        Issuer: C=US, ST=OH, L=Columbus, O=VikingVPN, OU=MyOrganizationalUnit, CN=VikingVPN CA/name=EasyRSA/emailAddress=me@myhost.mydomain
        Validity
            Not Before: Oct 28 02:38:10 2015 GMT
            Not After : Oct 25 02:38:10 2025 GMT
        Subject: CN=Client2026Cert97aa8c
        Subject Public Key Info:
            Public Key Algorithm: rsaEncryption
                Public-Key: (4096 bit)
                Modulus:
                    00:ac:15:ee:d0:37:bd:e4:4b:25:db:52:fc:8c:5c:
                    b3:a8:0b:e0:e2:2e:c6:fe:4a:1c:53:44:4f:95:cc:
                    a3:54:85:75:78:65:73:4c:29:d2:ff:59:0d:a7:13:
                    8b:c0:f4:c9:c6:17:1c:c2:0c:d5:af:58:34:cf:02:
                    72:32:a4:25:21:e0:74:3e:30:fb:41:fe:20:b5:db:
                    5c:00:38:68:1d:79:2e:bc:af:07:44:fb:b1:d5:22:
                    d8:27:81:c7:0e:9b:19:d3:a4:fc:fb:ce:77:98:26:
                    38:0e:3f:d5:5c:12:86:12:f6:58:48:b4:34:93:a0:
                    e0:d0:52:fd:11:a3:41:8b:4c:36:7c:d9:b0:bf:8a:
                    98:97:20:68:01:07:d4:f7:32:8a:fb:e8:06:c9:3e:
                    ba:40:3b:51:59:21:fd:ce:c5:80:ca:4e:9a:ad:83:
                    e3:1e:f8:49:ea:55:42:66:b9:47:ba:d4:1e:b3:da:
                    4a:98:5a:6c:b4:80:55:bd:6c:51:c8:0c:40:b1:d1:
                    99:62:4e:01:8e:6b:78:2e:85:66:01:38:5f:56:0d:
                    70:9e:ab:30:59:57:6a:e8:c9:13:ea:f2:f6:17:cd:
                    c4:38:a4:af:0a:ff:c3:ab:0f:9c:ff:27:95:d1:ad:
                    24:78:3a:0b:d9:68:fb:45:ac:c9:d9:6b:2d:39:c1:
                    ff:85:28:65:1b:0f:4e:22:49:95:80:ca:f5:5b:6d:
                    a4:16:b1:26:fb:f1:bc:d8:59:f3:35:93:cc:e3:62:
                    fc:6c:e7:3b:24:5b:22:2e:8c:97:4b:0b:20:ce:d5:
                    75:8d:e5:96:1c:54:f0:16:e4:07:52:36:82:8b:22:
                    a8:d6:78:52:5e:0c:02:f7:9e:70:c6:e7:5c:59:a3:
                    3e:df:21:92:9c:8a:1a:1f:97:94:85:ae:af:e6:90:
                    60:5c:4c:03:60:29:26:47:ac:2e:d7:66:47:64:02:
                    50:05:09:1c:45:84:e4:c4:43:c2:fd:71:d5:8f:a6:
                    c2:f6:6f:c3:4c:ae:ef:24:43:40:a5:be:c7:38:5c:
                    3d:28:b2:8b:a6:f7:b7:90:3f:a6:18:6b:3d:68:fd:
                    42:75:85:4e:50:11:7b:d3:11:40:2a:28:c4:1d:dd:
                    2f:3a:00:e7:e3:3e:51:5e:cb:89:1c:1d:13:c5:e5:
                    d8:50:75:f7:85:76:bb:27:31:b1:92:14:d5:a6:c7:
                    c9:04:67:93:3c:73:50:3b:1a:14:a5:e8:64:0c:db:
                    34:51:ca:62:e2:fe:51:e7:48:44:70:f3:6e:e1:5e:
                    d1:a8:70:4b:e1:f1:2c:3c:c7:eb:c6:20:b5:0b:fe:
                    b9:eb:fe:04:38:5b:90:77:a2:b8:28:b5:ec:a4:25:
                    41:c8:a9
                Exponent: 65537 (0x10001)
        X509v3 extensions:
            X509v3 Basic Constraints: 
                CA:FALSE
            Netscape Comment: 
                Easy-RSA Generated Certificate
            X509v3 Subject Key Identifier: 
                87:95:EA:1C:91:72:F2:62:DF:7E:27:86:A3:3F:AB:9A:29:B0:85:C7
            X509v3 Authority Key Identifier: 
                keyid:12:CD:60:04:D2:A0:80:9E:70:ED:C6:99:B8:7B:2C:C6:52:FD:19:A1
                DirName:/C=US/ST=OH/L=Columbus/O=VikingVPN/OU=MyOrganizationalUnit/CN=VikingVPN CA/name=EasyRSA/emailAddress=me@myhost.mydomain
                serial:CF:35:85:EE:80:BF:2A:3E

            X509v3 Extended Key Usage: 
                TLS Web Client Authentication
            X509v3 Key Usage: 
                Digital Signature
    Signature Algorithm: md5WithRSAEncryption
         05:c4:e8:a4:49:05:42:72:e7:7e:b5:60:85:d1:95:60:04:5c:
         ba:2f:63:2a:12:d6:10:4f:75:18:bd:c3:86:e5:48:18:a8:08:
         93:d1:74:3a:a0:2a:b9:3b:22:a1:d8:78:23:34:e5:b0:fc:46:
         32:07:f1:b2:2d:0d:f4:fc:32:35:61:90:d9:72:15:e3:59:85:
         15:e7:10:ea:d6:66:f8:71:20:69:65:14:9b:6d:e5:9a:01:66:
         6e:71:c2:c9:4e:5b:04:c2:86:de:61:e5:ca:7b:ab:4f:42:22:
         1e:96:ab:80:d1:68:a4:51:e2:76:f7:95:6e:7b:cd:94:82:7c:
         51:90:26:7c:07:d5:42:ac:c2:4b:c0:d6:c9:09:af:7b:7f:68:
         be:0f:20:95:93:68:27:3c:44:34:98:5b:13:3d:b9:fa:71:67:
         33:89:4a:83:28:2e:a4:49:06:9c:48:12:68:a1:86:02:b2:be:
         5b:c1:5b:3c:88:a2:bc:09:fb:a0:85:ce:21:1e:1f:5e:f7:14:
         51:26:6e:e9:5b:03:99:2c:d5:79:a4:71:7b:a5:f1:c8:06:5c:
         7a:4f:82:1e:b1:40:bc:3d:41:1b:ee:a8:6d:26:40:a5:0a:59:
         89:3b:9b:96:66:b1:42:66:91:3c:a4:2f:d9:51:5b:ff:49:91:
         de:78:19:0e:d0:9c:0a:a8:56:de:5a:32:94:d0:07:5b:58:a2:
         d7:13:72:9d:54:d1:f8:04:2c:8c:db:3c:b4:4f:28:d3:b4:70:
         1c:65:53:88:c1:0d:6b:e6:11:e7:84:f5:60:f8:79:8f:7d:67:
         f3:3b:29:41:34:54:50:91:ea:a7:4d:07:ac:1d:3d:a6:15:84:
         a9:51:ba:52:7e:24:72:59:6f:9b:30:36:c6:ca:7e:42:b3:31:
         b9:09:54:89:d0:56:d2:e3:3d:46:c7:f4:3e:9c:9f:af:53:d5:
         ff:af:c3:6b:73:bd:52:73:8d:56:7f:ba:9a:da:b3:13:a3:e6:
         da:46:63:85:ac:aa:57:15:2c:ca:b0:2b:03:59:28:01:f6:38:
         20:19:d7:b0:26:aa:64:b4:00:e4:bb:46:79:e9:68:80:ef:6d:
         f2:00:f5:b3:ca:5c:42:c0:2e:e4:76:51:75:6f:ca:8e:fd:ac:
         53:06:a5:51:f7:89:b6:1e:2e:c6:58:6e:46:15:66:5d:7c:83:
         67:cc:79:81:4a:d2:11:af:01:86:a3:75:60:1d:37:d9:87:51:
         60:eb:2b:ed:2e:3b:3c:ce:d6:ea:b3:6c:ca:c3:ee:4d:87:62:
         27:ca:90:ef:85:d8:b1:3d:20:bd:8b:d0:6a:7f:1a:d2:91:73:
         e9:56:af:2a:6b:af:a9:86
-----BEGIN CERTIFICATE-----
MIIGrTCCBJWgAwIBAgICGacwDQYJKoZIhvcNAQEEBQAwgawxCzAJBgNVBAYTAlVT
MQswCQYDVQQIEwJPSDERMA8GA1UEBxMIQ29sdW1idXMxEjAQBgNVBAoTCVZpa2lu
Z1ZQTjEdMBsGA1UECxMUTXlPcmdhbml6YXRpb25hbFVuaXQxFTATBgNVBAMTDFZp
a2luZ1ZQTiBDQTEQMA4GA1UEKRMHRWFzeVJTQTEhMB8GCSqGSIb3DQEJARYSbWVA
bXlob3N0Lm15ZG9tYWluMB4XDTE1MTAyODAyMzgxMFoXDTI1MTAyNTAyMzgxMFow
HzEdMBsGA1UEAxMUQ2xpZW50MjAyNkNlcnQ5N2FhOGMwggIiMA0GCSqGSIb3DQEB
AQUAA4ICDwAwggIKAoICAQCsFe7QN73kSyXbUvyMXLOoC+DiLsb+ShxTRE+VzKNU
hXV4ZXNMKdL/WQ2nE4vA9MnGFxzCDNWvWDTPAnIypCUh4HQ+MPtB/iC121wAOGgd
eS68rwdE+7HVItgngccOmxnTpPz7zneYJjgOP9VcEoYS9lhItDSToODQUv0Ro0GL
TDZ82bC/ipiXIGgBB9T3Mor76AbJPrpAO1FZIf3OxYDKTpqtg+Me+EnqVUJmuUe6
1B6z2kqYWmy0gFW9bFHIDECx0ZliTgGOa3guhWYBOF9WDXCeqzBZV2royRPq8vYX
zcQ4pK8K/8OrD5z/J5XRrSR4OgvZaPtFrMnZay05wf+FKGUbD04iSZWAyvVbbaQW
sSb78bzYWfM1k8zjYvxs5zskWyIujJdLCyDO1XWN5ZYcVPAW5AdSNoKLIqjWeFJe
DAL3nnDG51xZoz7fIZKcihofl5SFrq/mkGBcTANgKSZHrC7XZkdkAlAFCRxFhOTE
Q8L9cdWPpsL2b8NMru8kQ0Clvsc4XD0osoum97eQP6YYaz1o/UJ1hU5QEXvTEUAq
KMQd3S86AOfjPlFey4kcHRPF5dhQdfeFdrsnMbGSFNWmx8kEZ5M8c1A7GhSl6GQM
2zRRymLi/lHnSERw827hXtGocEvh8Sw8x+vGILUL/rnr/gQ4W5B3orgoteykJUHI
qQIDAQABo4IBYzCCAV8wCQYDVR0TBAIwADAtBglghkgBhvhCAQ0EIBYeRWFzeS1S
U0EgR2VuZXJhdGVkIENlcnRpZmljYXRlMB0GA1UdDgQWBBSHleockXLyYt9+J4aj
P6uaKbCFxzCB4QYDVR0jBIHZMIHWgBQSzWAE0qCAnnDtxpm4eyzGUv0ZoaGBsqSB
rzCBrDELMAkGA1UEBhMCVVMxCzAJBgNVBAgTAk9IMREwDwYDVQQHEwhDb2x1bWJ1
czESMBAGA1UEChMJVmlraW5nVlBOMR0wGwYDVQQLExRNeU9yZ2FuaXphdGlvbmFs
VW5pdDEVMBMGA1UEAxMMVmlraW5nVlBOIENBMRAwDgYDVQQpEwdFYXN5UlNBMSEw
HwYJKoZIhvcNAQkBFhJtZUBteWhvc3QubXlkb21haW6CCQDPNYXugL8qPjATBgNV
HSUEDDAKBggrBgEFBQcDAjALBgNVHQ8EBAMCB4AwDQYJKoZIhvcNAQEEBQADggIB
AAXE6KRJBUJy5361YIXRlWAEXLovYyoS1hBPdRi9w4blSBioCJPRdDqgKrk7IqHY
eCM05bD8RjIH8bItDfT8MjVhkNlyFeNZhRXnEOrWZvhxIGllFJtt5ZoBZm5xwslO
WwTCht5h5cp7q09CIh6Wq4DRaKRR4nb3lW57zZSCfFGQJnwH1UKswkvA1skJr3t/
aL4PIJWTaCc8RDSYWxM9ufpxZzOJSoMoLqRJBpxIEmihhgKyvlvBWzyIorwJ+6CF
ziEeH173FFEmbulbA5ks1XmkcXul8cgGXHpPgh6xQLw9QRvuqG0mQKUKWYk7m5Zm
sUJmkTykL9lRW/9Jkd54GQ7QnAqoVt5aMpTQB1tYotcTcp1U0fgELIzbPLRPKNO0
cBxlU4jBDWvmEeeE9WD4eY99Z/M7KUE0VFCR6qdNB6wdPaYVhKlRulJ+JHJZb5sw
NsbKfkKzMbkJVInQVtLjPUbH9D6cn69T1f+vw2tzvVJzjVZ/uprasxOj5tpGY4Ws
qlcVLMqwKwNZKAH2OCAZ17AmqmS0AOS7RnnpaIDvbfIA9bPKXELALuR2UXVvyo79
rFMGpVH3ibYeLsZYbkYVZl18g2fMeYFK0hGvAYajdWAdN9mHUWDrK+0uOzzO1uqz
bMrD7k2HYifKkO+F2LE9IL2L0Gp/GtKRc+lWryprr6mG
-----END CERTIFICATE-----
