Certificate:
    Data:
        Version: 3 (0x2)
        Serial Number: 6569 (0x19a9)
    Signature Algorithm: md5WithRSAEncryption
        Issuer: C=US, ST=OH, L=Columbus, O=VikingVPN, OU=MyOrganizationalUnit, CN=VikingVPN CA/name=EasyRSA/emailAddress=me@myhost.mydomain
        Validity
            Not Before: Oct 28 02:42:52 2015 GMT
            Not After : Oct 25 02:42:52 2025 GMT
        Subject: CN=Client2026Cert9dc290
        Subject Public Key Info:
            Public Key Algorithm: rsaEncryption
                Public-Key: (4096 bit)
                Modulus:
                    00:dd:32:b7:ad:7d:d4:cb:d1:02:89:32:62:82:c7:
                    aa:6f:d5:00:16:16:eb:31:52:20:35:0e:54:dc:55:
                    07:a2:2b:66:c4:c3:46:c3:be:f1:84:0c:eb:02:f0:
                    d5:72:74:24:21:fb:c3:d9:52:5d:f8:9a:22:d0:df:
                    61:fe:f8:47:a6:a2:3b:f9:f6:a7:cc:ab:3d:76:e3:
                    a4:75:1f:c6:a2:a8:ba:46:24:b1:5e:c2:3d:20:ba:
                    14:cf:b4:df:4e:c5:ec:7c:51:68:d4:da:3d:24:68:
                    5f:9b:25:f2:c7:ac:40:5d:ac:97:1c:f4:ee:bc:bf:
                    f5:6b:43:7a:52:66:bc:c0:24:75:ee:cc:1f:a7:da:
                    88:27:4c:7b:9d:4a:30:3f:c5:1c:67:74:2b:87:a7:
                    92:5e:97:f8:1e:ff:b2:ba:71:41:49:cf:2d:fe:51:
                    a9:2f:8b:f9:0e:da:d2:80:83:8e:d7:63:59:0b:c6:
                    17:6f:71:41:8e:5d:40:fb:58:23:c5:b4:80:36:15:
                    eb:d7:40:8c:fa:16:f4:c9:27:58:56:31:b4:46:57:
                    c0:fa:70:d7:9d:ec:4a:9f:b7:29:d9:6d:bd:4b:0b:
                    70:ce:8f:2f:2a:b0:ef:22:cd:3b:b0:7b:ff:34:54:
                    f1:c9:94:7d:28:13:78:5e:fb:35:db:57:75:5d:bf:
                    2a:d5:20:20:b9:36:f7:59:db:8b:1b:73:db:ac:ad:
                    1d:50:25:26:73:72:30:65:72:f9:1a:65:5a:9e:fa:
                    a7:50:c0:c1:39:6d:cc:db:3c:85:3a:a5:5a:d9:ce:
                    71:ac:7c:f7:1b:54:dc:fc:50:51:a6:41:ab:ef:75:
                    7c:4e:92:9c:61:f5:69:78:06:14:7c:d1:0f:7f:a2:
                    d0:af:70:99:69:98:b9:bc:e4:af:48:a5:06:06:a7:
                    91:ad:e0:06:ec:a7:45:73:cf:5f:a8:6e:07:13:ad:
                    45:55:13:df:9d:bb:32:98:8c:5b:f0:35:14:74:37:
                    af:16:cb:3f:b4:4a:fc:ac:22:7c:e7:00:1e:27:a0:
                    3a:39:e2:36:cd:4d:a3:2b:83:5e:54:7c:a4:30:96:
                    7c:bd:97:0e:ec:19:31:05:16:9e:37:36:20:d0:ea:
                    de:79:98:7f:c5:db:72:d8:45:1c:90:7e:5c:a4:13:
                    82:82:64:c7:a5:31:47:5f:86:fb:20:44:f7:a0:4d:
                    95:d5:52:fe:7b:a3:5e:1f:6a:7a:95:77:a5:65:19:
                    cd:7d:bc:99:22:9f:da:38:e3:42:5d:50:ac:cb:51:
                    8b:77:ff:48:3a:59:93:93:ae:45:7a:1c:0f:77:cb:
                    bb:ff:56:c0:2a:9b:2d:0a:1e:d5:79:70:cc:6e:ed:
                    91:8a:f1
                Exponent: 65537 (0x10001)
        X509v3 extensions:
            X509v3 Basic Constraints: 
                CA:FALSE
            Netscape Comment: 
                Easy-RSA Generated Certificate
            X509v3 Subject Key Identifier: 
                18:B6:9D:79:29:64:89:27:C7:17:C1:E6:C9:37:A3:CC:09:52:B8:3E
            X509v3 Authority Key Identifier: 
                keyid:12:CD:60:04:D2:A0:80:9E:70:ED:C6:99:B8:7B:2C:C6:52:FD:19:A1
                DirName:/C=US/ST=OH/L=Columbus/O=VikingVPN/OU=MyOrganizationalUnit/CN=VikingVPN CA/name=EasyRSA/emailAddress=me@myhost.mydomain
                serial:CF:35:85:EE:80:BF:2A:3E

            X509v3 Extended Key Usage: 
                TLS Web Client Authentication
            X509v3 Key Usage: 
                Digital Signature
    Signature Algorithm: md5WithRSAEncryption
         81:ac:8b:1a:24:5b:76:dc:e7:95:39:3a:bd:6a:70:55:f7:76:
         63:b2:8c:9e:7e:7b:b3:50:58:21:c8:ea:53:6b:71:f0:b1:a6:
         83:19:15:71:6c:df:52:7b:93:73:3b:ec:ef:ff:e2:3f:d7:3b:
         08:64:9d:17:4b:0a:a0:71:f8:4e:4d:af:bb:05:29:b4:24:a0:
         a6:98:4f:2c:8c:91:cf:08:f1:da:83:ed:40:80:ed:da:88:5a:
         ae:ee:94:36:00:bf:d6:57:ee:32:57:90:fb:6c:6c:de:7a:5d:
         5f:d3:84:ac:0c:50:43:1c:3a:76:ed:75:a3:08:a5:f5:ba:c2:
         04:1a:e2:5f:b9:d2:f1:c6:ac:7c:a1:87:b6:27:cd:68:37:5b:
         ce:ff:c5:7b:0c:79:e2:f5:8b:3c:b3:ce:38:23:cc:0a:c6:ab:
         dd:3d:7c:5e:4c:76:83:cd:a4:be:7d:fb:48:db:30:74:dd:d3:
         cc:68:d7:b1:09:66:8b:85:56:89:f6:f0:3e:67:47:5c:60:5a:
         ff:1e:54:49:35:f3:74:4e:dd:60:ca:6f:cf:1b:2f:f4:bd:28:
         82:e2:79:51:80:6d:e4:2a:d2:a7:6b:48:62:dd:ac:23:27:8c:
         9a:2d:70:a9:cf:7c:7c:b8:8e:04:d2:eb:ff:3d:51:a6:47:2a:
         de:48:f8:d9:7a:c1:f5:f5:2b:c3:ad:9a:4c:59:b2:2d:30:6c:
         07:b2:9a:de:d5:43:72:25:ba:00:6d:eb:c1:8c:50:01:25:90:
         9a:e2:3b:94:36:b3:96:71:d1:aa:54:e0:18:c1:75:a7:98:82:
         3c:67:01:d4:cd:f4:2b:03:e2:88:24:33:a4:72:03:9b:d6:0a:
         b6:fb:0a:b9:8c:63:9a:9a:d0:ae:19:d2:dd:5d:30:03:34:74:
         9c:13:db:49:7f:2c:9b:39:6a:2e:7d:75:c4:e4:40:7f:25:34:
         95:1d:c8:c6:70:ce:65:ff:c3:f1:21:26:29:d5:69:3c:78:b1:
         95:2d:eb:e0:3e:b1:88:fa:30:54:5d:57:66:fe:75:1b:2a:56:
         95:9a:ca:d8:06:d0:9f:6e:2f:e6:57:2b:05:4f:e2:16:7e:f6:
         5e:f6:37:1d:ed:1a:70:90:fb:a5:0b:d1:be:d7:36:be:59:9e:
         01:a9:5b:70:0d:0c:be:ea:2a:64:c6:d4:ce:f2:d5:03:cc:3e:
         86:e2:fb:25:12:63:e2:36:69:65:b7:0d:95:ca:d5:e4:32:a2:
         b4:99:de:26:33:14:b0:bf:4f:6b:5e:41:7e:2e:87:3a:87:62:
         d1:4f:63:a1:57:b2:d7:75:45:25:a4:0c:d8:ee:7d:e9:70:79:
         4f:5d:6a:57:35:90:f0:04
-----BEGIN CERTIFICATE-----
MIIGrTCCBJWgAwIBAgICGakwDQYJKoZIhvcNAQEEBQAwgawxCzAJBgNVBAYTAlVT
MQswCQYDVQQIEwJPSDERMA8GA1UEBxMIQ29sdW1idXMxEjAQBgNVBAoTCVZpa2lu
Z1ZQTjEdMBsGA1UECxMUTXlPcmdhbml6YXRpb25hbFVuaXQxFTATBgNVBAMTDFZp
a2luZ1ZQTiBDQTEQMA4GA1UEKRMHRWFzeVJTQTEhMB8GCSqGSIb3DQEJARYSbWVA
bXlob3N0Lm15ZG9tYWluMB4XDTE1MTAyODAyNDI1MloXDTI1MTAyNTAyNDI1Mlow
HzEdMBsGA1UEAxMUQ2xpZW50MjAyNkNlcnQ5ZGMyOTAwggIiMA0GCSqGSIb3DQEB
AQUAA4ICDwAwggIKAoICAQDdMretfdTL0QKJMmKCx6pv1QAWFusxUiA1DlTcVQei
K2bEw0bDvvGEDOsC8NVydCQh+8PZUl34miLQ32H++Eemojv59qfMqz1246R1H8ai
qLpGJLFewj0guhTPtN9Oxex8UWjU2j0kaF+bJfLHrEBdrJcc9O68v/VrQ3pSZrzA
JHXuzB+n2ognTHudSjA/xRxndCuHp5Jel/ge/7K6cUFJzy3+Uakvi/kO2tKAg47X
Y1kLxhdvcUGOXUD7WCPFtIA2FevXQIz6FvTJJ1hWMbRGV8D6cNed7EqftynZbb1L
C3DOjy8qsO8izTuwe/80VPHJlH0oE3he+zXbV3VdvyrVICC5NvdZ24sbc9usrR1Q
JSZzcjBlcvkaZVqe+qdQwME5bczbPIU6pVrZznGsfPcbVNz8UFGmQavvdXxOkpxh
9Wl4BhR80Q9/otCvcJlpmLm85K9IpQYGp5Gt4Absp0Vzz1+obgcTrUVVE9+duzKY
jFvwNRR0N68Wyz+0SvysInznAB4noDo54jbNTaMrg15UfKQwlny9lw7sGTEFFp43
NiDQ6t55mH/F23LYRRyQflykE4KCZMelMUdfhvsgRPegTZXVUv57o14fanqVd6Vl
Gc19vJkin9o440JdUKzLUYt3/0g6WZOTrkV6HA93y7v/VsAqmy0KHtV5cMxu7ZGK
8QIDAQABo4IBYzCCAV8wCQYDVR0TBAIwADAtBglghkgBhvhCAQ0EIBYeRWFzeS1S
U0EgR2VuZXJhdGVkIENlcnRpZmljYXRlMB0GA1UdDgQWBBQYtp15KWSJJ8cXwebJ
N6PMCVK4PjCB4QYDVR0jBIHZMIHWgBQSzWAE0qCAnnDtxpm4eyzGUv0ZoaGBsqSB
rzCBrDELMAkGA1UEBhMCVVMxCzAJBgNVBAgTAk9IMREwDwYDVQQHEwhDb2x1bWJ1
czESMBAGA1UEChMJVmlraW5nVlBOMR0wGwYDVQQLExRNeU9yZ2FuaXphdGlvbmFs
VW5pdDEVMBMGA1UEAxMMVmlraW5nVlBOIENBMRAwDgYDVQQpEwdFYXN5UlNBMSEw
HwYJKoZIhvcNAQkBFhJtZUBteWhvc3QubXlkb21haW6CCQDPNYXugL8qPjATBgNV
HSUEDDAKBggrBgEFBQcDAjALBgNVHQ8EBAMCB4AwDQYJKoZIhvcNAQEEBQADggIB
AIGsixokW3bc55U5Or1qcFX3dmOyjJ5+e7NQWCHI6lNrcfCxpoMZFXFs31J7k3M7
7O//4j/XOwhknRdLCqBx+E5Nr7sFKbQkoKaYTyyMkc8I8dqD7UCA7dqIWq7ulDYA
v9ZX7jJXkPtsbN56XV/ThKwMUEMcOnbtdaMIpfW6wgQa4l+50vHGrHyhh7YnzWg3
W87/xXsMeeL1izyzzjgjzArGq909fF5MdoPNpL59+0jbMHTd08xo17EJZouFVon2
8D5nR1xgWv8eVEk183RO3WDKb88bL/S9KILieVGAbeQq0qdrSGLdrCMnjJotcKnP
fHy4jgTS6/89UaZHKt5I+Nl6wfX1K8OtmkxZsi0wbAeymt7VQ3IlugBt68GMUAEl
kJriO5Q2s5Zx0apU4BjBdaeYgjxnAdTN9CsD4ogkM6RyA5vWCrb7CrmMY5qa0K4Z
0t1dMAM0dJwT20l/LJs5ai59dcTkQH8lNJUdyMZwzmX/w/EhJinVaTx4sZUt6+A+
sYj6MFRdV2b+dRsqVpWaytgG0J9uL+ZXKwVP4hZ+9l72Nx3tGnCQ+6UL0b7XNr5Z
ngGpW3ANDL7qKmTG1M7y1QPMPobi+yUSY+I2aWW3DZXK1eQyorSZ3iYzFLC/T2te
QX4uhzqHYtFPY6FXstd1RSWkDNjufelweU9dalc1kPAE
-----END CERTIFICATE-----
