Certificate:
    Data:
        Version: 3 (0x2)
        Serial Number: 6570 (0x19aa)
    Signature Algorithm: md5WithRSAEncryption
        Issuer: C=US, ST=OH, L=Columbus, O=VikingVPN, OU=MyOrganizationalUnit, CN=VikingVPN CA/name=EasyRSA/emailAddress=me@myhost.mydomain
        Validity
            Not Before: Oct 28 02:56:45 2015 GMT
            Not After : Oct 25 02:56:45 2025 GMT
        Subject: CN=Client2026Certb74851
        Subject Public Key Info:
            Public Key Algorithm: rsaEncryption
                Public-Key: (4096 bit)
                Modulus:
                    00:c6:f3:99:8b:1b:a7:cc:3a:7f:9c:f9:ff:d5:ec:
                    cb:f9:c1:84:b4:57:13:ed:93:3d:9f:12:23:9e:08:
                    0a:3e:73:8b:46:e6:f2:23:e5:17:65:bb:9e:db:c1:
                    10:ec:8b:85:08:7f:3a:22:4d:90:8f:5a:4f:49:01:
                    93:cb:24:49:16:72:05:0a:a1:ff:80:11:f0:4c:d9:
                    5f:1e:be:f9:d8:09:f3:54:57:e4:9c:ee:c9:54:8c:
                    0e:c2:89:2c:b2:25:f5:e6:6e:79:b6:74:49:96:aa:
                    f3:dd:48:89:6c:4a:91:a3:95:04:08:9f:aa:ad:fc:
                    8b:bc:a6:e9:dc:b0:57:66:0f:47:ed:3e:c7:7e:28:
                    aa:45:5b:96:6e:f0:7d:a7:c8:9c:bc:31:89:fb:fb:
                    3c:82:b0:b3:53:4a:e9:af:f1:34:6d:59:63:2e:d0:
                    78:5f:84:75:fe:81:e5:f5:03:e4:3a:06:68:ee:98:
                    dd:15:82:d5:ce:dc:d4:c8:15:40:bc:02:bb:87:fb:
                    dc:23:0f:c8:fb:33:a9:87:cc:8f:ff:7c:a4:23:a9:
                    cc:42:01:c2:48:a6:a7:9b:73:fb:b1:06:5c:f2:72:
                    00:6b:51:f0:9c:7e:79:f1:05:15:5d:a2:2d:d7:ba:
                    48:f0:e1:b7:cc:85:4b:fc:1d:88:1c:65:24:76:7c:
                    72:2f:60:ec:63:ca:28:66:50:1d:d9:8f:fa:d9:b4:
                    9b:b3:ff:54:02:a2:9c:0e:bc:3b:eb:1e:a0:52:62:
                    d7:92:11:f7:4c:8a:70:04:3a:3e:8f:be:e7:26:8d:
                    f7:65:76:f1:6c:10:7a:4a:53:e2:e1:9d:40:b6:0e:
                    70:86:8f:2e:ac:e7:34:26:00:69:f8:0a:88:de:92:
                    de:32:2f:9b:46:2b:c3:63:8a:c4:da:cd:79:70:e8:
                    fe:d1:c6:cd:f6:bb:91:5f:9b:2d:e1:8f:91:0e:d4:
                    0c:ca:9e:6a:f0:24:da:c2:e4:4a:3c:93:f4:7a:71:
                    5c:83:99:51:07:dd:d1:03:fd:08:f8:d0:7e:0a:3a:
                    da:67:8e:06:1f:e5:41:94:0d:15:78:b9:ef:35:1f:
                    4b:c8:73:dc:0f:6c:66:63:62:2c:1e:35:17:ec:da:
                    c3:21:ab:02:f8:98:a4:da:57:cb:d7:22:61:5a:0f:
                    10:f6:55:d0:ec:db:09:2a:3d:0a:1a:e3:fd:27:8a:
                    8e:b0:8d:86:23:64:b5:7c:e4:1f:57:00:93:fa:71:
                    1e:b5:2c:6f:52:31:54:68:5c:ac:82:46:89:be:f3:
                    d3:2d:39:01:be:6e:10:90:27:89:ca:5b:6a:b6:27:
                    ef:a9:ab:db:47:e3:55:87:19:18:c2:77:db:0b:cb:
                    91:53:41
                Exponent: 65537 (0x10001)
        X509v3 extensions:
            X509v3 Basic Constraints: 
                CA:FALSE
            Netscape Comment: 
                Easy-RSA Generated Certificate
            X509v3 Subject Key Identifier: 
                DB:72:19:D1:5F:54:93:A2:C5:E1:FD:17:BD:5B:E0:0D:7D:7E:30:F2
            X509v3 Authority Key Identifier: 
                keyid:12:CD:60:04:D2:A0:80:9E:70:ED:C6:99:B8:7B:2C:C6:52:FD:19:A1
                DirName:/C=US/ST=OH/L=Columbus/O=VikingVPN/OU=MyOrganizationalUnit/CN=VikingVPN CA/name=EasyRSA/emailAddress=me@myhost.mydomain
                serial:CF:35:85:EE:80:BF:2A:3E

            X509v3 Extended Key Usage: 
                TLS Web Client Authentication
            X509v3 Key Usage: 
                Digital Signature
    Signature Algorithm: md5WithRSAEncryption
         b4:50:25:33:78:35:28:5e:7b:77:87:88:a8:6b:64:9e:c1:3f:
         16:c6:c8:98:8d:28:4f:f4:46:64:72:c2:85:16:66:42:dd:44:
         23:0e:52:1c:61:91:1b:47:f4:19:8c:87:4b:df:49:59:c7:57:
         09:96:8f:77:94:2e:46:4d:c3:b0:13:53:20:ac:66:57:6a:ac:
         6f:8d:e3:71:21:e7:f4:90:b8:50:26:5f:59:82:4a:05:2c:f5:
         de:d5:cf:75:02:a5:5b:81:83:2d:fb:13:f7:be:3c:98:50:7d:
         ae:38:94:65:51:4d:78:6c:a6:29:1d:91:1c:bb:b0:9f:3a:cf:
         8d:71:40:49:8e:18:50:a0:ee:5f:a6:72:73:fc:5e:d2:99:0b:
         61:52:3f:44:2d:a1:01:95:d3:8e:6a:27:5a:7d:4b:77:d3:4f:
         c7:9b:03:e9:3d:10:bc:a7:32:ce:4a:41:29:cb:4c:83:3b:83:
         9e:26:53:41:f4:33:0a:3c:27:50:a6:3a:d9:61:ba:fd:1c:bc:
         cf:a1:f7:c5:05:1f:f7:6a:70:d8:ed:6e:e9:bd:09:14:b8:8b:
         57:1a:41:9d:24:ee:ee:ba:30:f2:54:06:e2:a8:40:43:2f:ff:
         21:61:da:a2:da:5a:32:55:d4:d2:1b:00:41:76:d5:9a:d9:9e:
         9d:93:4b:34:a0:41:fc:06:66:99:4c:4a:75:3c:48:5a:0a:40:
         ba:42:2a:3e:43:c8:2b:98:d6:73:1b:58:88:e6:67:fe:fd:e1:
         45:bd:03:99:5e:59:99:6b:19:5d:81:9e:1b:a6:9b:03:07:81:
         7f:a8:d1:08:a3:ce:6e:95:38:3d:6b:95:9b:0d:37:e3:4d:c9:
         71:79:f7:5a:f1:e6:4b:d5:ab:a2:76:0c:5b:27:c5:ae:f5:37:
         14:55:0a:e5:9f:eb:9a:df:3a:6c:33:ef:35:ea:ab:56:78:ab:
         96:72:d1:f4:10:4e:46:88:e1:28:bd:78:cd:84:02:03:89:75:
         dd:a8:f0:01:3c:64:e7:9b:f2:92:48:3e:a2:aa:d5:12:cb:e1:
         b4:7d:c7:5d:e3:79:17:76:d6:ff:b2:9a:4e:a8:6f:bb:73:b8:
         eb:fb:1f:46:db:e9:68:da:fa:66:34:b0:e3:7b:1f:be:c9:4d:
         54:e2:6b:d2:90:3d:e8:bb:bf:3d:8d:6c:68:0c:26:47:7e:62:
         1a:92:7d:ac:ab:0f:5e:77:3d:63:cf:4a:9c:88:4b:3a:a6:3b:
         b3:58:a3:a0:b1:c6:f1:f4:de:d1:f9:94:c2:41:e0:47:62:96:
         86:c9:9a:78:7f:7a:9b:22:76:ba:bd:2c:9a:76:19:db:7c:8f:
         fc:fb:2b:72:2b:12:84:0f
-----BEGIN CERTIFICATE-----
MIIGrTCCBJWgAwIBAgICGaowDQYJKoZIhvcNAQEEBQAwgawxCzAJBgNVBAYTAlVT
MQswCQYDVQQIEwJPSDERMA8GA1UEBxMIQ29sdW1idXMxEjAQBgNVBAoTCVZpa2lu
Z1ZQTjEdMBsGA1UECxMUTXlPcmdhbml6YXRpb25hbFVuaXQxFTATBgNVBAMTDFZp
a2luZ1ZQTiBDQTEQMA4GA1UEKRMHRWFzeVJTQTEhMB8GCSqGSIb3DQEJARYSbWVA
bXlob3N0Lm15ZG9tYWluMB4XDTE1MTAyODAyNTY0NVoXDTI1MTAyNTAyNTY0NVow
HzEdMBsGA1UEAxMUQ2xpZW50MjAyNkNlcnRiNzQ4NTEwggIiMA0GCSqGSIb3DQEB
AQUAA4ICDwAwggIKAoICAQDG85mLG6fMOn+c+f/V7Mv5wYS0VxPtkz2fEiOeCAo+
c4tG5vIj5Rdlu57bwRDsi4UIfzoiTZCPWk9JAZPLJEkWcgUKof+AEfBM2V8evvnY
CfNUV+Sc7slUjA7CiSyyJfXmbnm2dEmWqvPdSIlsSpGjlQQIn6qt/Iu8puncsFdm
D0ftPsd+KKpFW5Zu8H2nyJy8MYn7+zyCsLNTSumv8TRtWWMu0HhfhHX+geX1A+Q6
BmjumN0VgtXO3NTIFUC8AruH+9wjD8j7M6mHzI//fKQjqcxCAcJIpqebc/uxBlzy
cgBrUfCcfnnxBRVdoi3Xukjw4bfMhUv8HYgcZSR2fHIvYOxjyihmUB3Zj/rZtJuz
/1QCopwOvDvrHqBSYteSEfdMinAEOj6PvucmjfdldvFsEHpKU+LhnUC2DnCGjy6s
5zQmAGn4Cojekt4yL5tGK8NjisTazXlw6P7Rxs32u5Ffmy3hj5EO1AzKnmrwJNrC
5Eo8k/R6cVyDmVEH3dED/Qj40H4KOtpnjgYf5UGUDRV4ue81H0vIc9wPbGZjYiwe
NRfs2sMhqwL4mKTaV8vXImFaDxD2VdDs2wkqPQoa4/0nio6wjYYjZLV85B9XAJP6
cR61LG9SMVRoXKyCRom+89MtOQG+bhCQJ4nKW2q2J++pq9tH41WHGRjCd9sLy5FT
QQIDAQABo4IBYzCCAV8wCQYDVR0TBAIwADAtBglghkgBhvhCAQ0EIBYeRWFzeS1S
U0EgR2VuZXJhdGVkIENlcnRpZmljYXRlMB0GA1UdDgQWBBTbchnRX1STosXh/Re9
W+ANfX4w8jCB4QYDVR0jBIHZMIHWgBQSzWAE0qCAnnDtxpm4eyzGUv0ZoaGBsqSB
rzCBrDELMAkGA1UEBhMCVVMxCzAJBgNVBAgTAk9IMREwDwYDVQQHEwhDb2x1bWJ1
czESMBAGA1UEChMJVmlraW5nVlBOMR0wGwYDVQQLExRNeU9yZ2FuaXphdGlvbmFs
VW5pdDEVMBMGA1UEAxMMVmlraW5nVlBOIENBMRAwDgYDVQQpEwdFYXN5UlNBMSEw
HwYJKoZIhvcNAQkBFhJtZUBteWhvc3QubXlkb21haW6CCQDPNYXugL8qPjATBgNV
HSUEDDAKBggrBgEFBQcDAjALBgNVHQ8EBAMCB4AwDQYJKoZIhvcNAQEEBQADggIB
ALRQJTN4NShee3eHiKhrZJ7BPxbGyJiNKE/0RmRywoUWZkLdRCMOUhxhkRtH9BmM
h0vfSVnHVwmWj3eULkZNw7ATUyCsZldqrG+N43Eh5/SQuFAmX1mCSgUs9d7Vz3UC
pVuBgy37E/e+PJhQfa44lGVRTXhspikdkRy7sJ86z41xQEmOGFCg7l+mcnP8XtKZ
C2FSP0QtoQGV045qJ1p9S3fTT8ebA+k9ELynMs5KQSnLTIM7g54mU0H0Mwo8J1Cm
Otlhuv0cvM+h98UFH/dqcNjtbum9CRS4i1caQZ0k7u66MPJUBuKoQEMv/yFh2qLa
WjJV1NIbAEF21ZrZnp2TSzSgQfwGZplMSnU8SFoKQLpCKj5DyCuY1nMbWIjmZ/79
4UW9A5leWZlrGV2BnhummwMHgX+o0Qijzm6VOD1rlZsNN+NNyXF591rx5kvVq6J2
DFsnxa71NxRVCuWf65rfOmwz7zXqq1Z4q5Zy0fQQTkaI4Si9eM2EAgOJdd2o8AE8
ZOeb8pJIPqKq1RLL4bR9x13jeRd21v+ymk6ob7tzuOv7H0bb6Wja+mY0sON7H77J
TVTia9KQPei7vz2NbGgMJkd+YhqSfayrD153PWPPSpyISzqmO7NYo6CxxvH03tH5
lMJB4EdilobJmnh/epsidrq9LJp2Gdt8j/z7K3IrEoQP
-----END CERTIFICATE-----
