Certificate:
    Data:
        Version: 3 (0x2)
        Serial Number: 6655 (0x19ff)
    Signature Algorithm: md5WithRSAEncryption
        Issuer: C=US, ST=OH, L=Columbus, O=VikingVPN, OU=MyOrganizationalUnit, CN=VikingVPN CA/name=EasyRSA/emailAddress=me@myhost.mydomain
        Validity
            Not Before: Nov  7 21:36:17 2015 GMT
            Not After : Nov  4 21:36:17 2025 GMT
        Subject: CN=Client1592Certa99eed
        Subject Public Key Info:
            Public Key Algorithm: rsaEncryption
                Public-Key: (4096 bit)
                Modulus:
                    00:b9:a7:ba:9d:46:9a:18:9b:9e:40:bc:28:05:68:
                    50:56:5a:03:8f:3d:19:fb:2f:94:97:be:39:d6:8b:
                    8f:cb:26:c5:99:15:aa:9e:87:b5:83:90:37:1d:b9:
                    90:e4:f0:52:e8:53:0a:8a:ff:40:3b:4f:a2:25:24:
                    4e:15:7d:47:45:e3:2a:44:bc:4c:2b:0d:39:fd:a2:
                    49:e4:33:86:42:72:a3:ad:80:82:2b:62:2a:8b:34:
                    48:54:44:d5:41:b5:a7:3c:ab:04:ee:08:7a:68:2b:
                    f1:d4:9d:af:b4:21:45:c9:70:01:35:98:34:60:7e:
                    05:c5:52:ef:ac:3f:ff:84:87:da:22:fb:ac:47:ee:
                    4f:58:2d:b4:1a:66:a4:f3:2a:eb:7f:d5:69:33:70:
                    37:e6:25:62:4e:dc:b1:a8:17:98:f8:a5:ec:43:b9:
                    12:25:c7:c6:39:92:76:95:24:84:5f:df:3f:98:db:
                    61:8b:3f:f7:5b:bc:e1:6e:ca:91:11:d9:c4:0b:1d:
                    f6:bc:aa:5f:1e:36:9a:8d:ac:25:d1:21:4d:ac:a8:
                    52:02:2a:f1:89:fb:4a:4d:e2:4c:38:ac:05:a9:a9:
                    3d:23:29:be:25:54:9a:21:ef:0f:67:55:28:ae:6c:
                    f7:f5:c4:eb:f7:3a:dd:54:74:11:0e:f4:09:7d:97:
                    0c:10:e1:0c:d3:ae:90:eb:ca:d3:30:e5:e7:78:a3:
                    76:97:42:89:ab:49:e7:d1:3c:aa:3b:b8:de:2b:4b:
                    2b:1c:4d:be:65:88:86:21:f1:01:6a:57:73:97:30:
                    76:27:5e:32:b5:b2:7b:e2:aa:10:11:0d:6b:e3:68:
                    60:c5:16:c6:d1:a9:38:a7:0f:55:f1:78:6d:78:ee:
                    5d:1b:65:de:15:1f:e0:54:bd:b5:a7:93:59:51:03:
                    8f:9a:f7:f1:a4:0d:7e:3f:a1:b5:e8:c6:34:ea:c8:
                    b8:8d:06:6f:67:d8:cf:fd:f4:b9:49:ee:f3:a3:5f:
                    a7:6b:81:82:00:5f:7a:55:93:c5:9b:3a:cc:78:fa:
                    a1:f8:0b:9f:e8:90:fb:8a:55:9f:a7:2c:ad:99:9b:
                    dd:5e:4c:32:03:4b:37:e1:27:2e:02:3f:a6:1f:98:
                    47:9b:a7:5b:e0:a8:d6:81:fb:ad:cd:1b:e9:83:34:
                    23:d4:00:1b:5c:a8:a3:58:10:1e:c1:a8:ef:a8:04:
                    27:85:e6:c7:e1:9d:52:b1:32:05:24:88:de:9e:73:
                    89:d6:3c:4b:07:ef:ce:f4:fb:23:ea:d7:fc:88:8f:
                    0e:bf:20:d3:a5:18:92:d8:71:f2:d1:40:c2:8d:0a:
                    ac:99:fe:9d:b8:56:4c:63:2d:ee:1a:0f:fc:a5:39:
                    b7:f7:e7
                Exponent: 65537 (0x10001)
        X509v3 extensions:
            X509v3 Basic Constraints: 
                CA:FALSE
            Netscape Comment: 
                Easy-RSA Generated Certificate
            X509v3 Subject Key Identifier: 
                61:02:08:B5:80:89:D4:EF:C6:4F:49:E3:C2:B7:92:A4:11:34:CA:D5
            X509v3 Authority Key Identifier: 
                keyid:12:CD:60:04:D2:A0:80:9E:70:ED:C6:99:B8:7B:2C:C6:52:FD:19:A1
                DirName:/C=US/ST=OH/L=Columbus/O=VikingVPN/OU=MyOrganizationalUnit/CN=VikingVPN CA/name=EasyRSA/emailAddress=me@myhost.mydomain
                serial:CF:35:85:EE:80:BF:2A:3E

            X509v3 Extended Key Usage: 
                TLS Web Client Authentication
            X509v3 Key Usage: 
                Digital Signature
    Signature Algorithm: md5WithRSAEncryption
         56:af:b6:7b:87:86:82:4f:84:6a:61:2e:7b:29:41:05:9b:7a:
         db:33:cb:51:fe:9d:ba:b0:33:e6:29:de:7d:af:cb:d6:c4:cc:
         d8:f4:15:44:e1:6b:e6:5a:a8:95:ff:6a:b8:f8:bf:ad:1c:ba:
         2b:31:aa:d6:16:e3:b8:0a:0c:75:ed:51:05:8e:4d:59:50:b5:
         e0:e0:b8:04:30:37:cc:83:6d:9e:34:b4:86:31:18:aa:6c:9d:
         2b:90:94:d3:93:a5:cb:cf:bb:26:b0:9c:7f:c0:85:eb:47:ea:
         5e:ef:5a:73:16:3d:01:14:ea:33:d2:aa:3c:fe:a0:d8:e9:3c:
         be:ea:ae:e7:c9:c4:8e:12:66:4d:59:ab:fa:7b:4c:d3:fb:8d:
         a7:4f:74:67:45:58:04:ed:74:ca:71:b1:3f:c9:b0:f6:b4:a8:
         96:e0:2f:72:5a:ef:b6:06:50:74:ab:91:c3:5b:94:e1:bc:24:
         21:10:67:f0:97:53:fe:ce:62:00:41:a1:11:33:c3:be:a0:e1:
         52:82:54:83:49:0a:cb:04:5a:6f:e7:2b:26:bd:ad:59:6b:ed:
         e7:f9:a5:6e:6b:61:6d:75:da:d6:3d:50:f1:47:f1:59:b4:bc:
         87:47:64:d0:a1:e0:f2:7b:4e:88:5a:8e:93:95:10:bf:db:0b:
         63:66:86:24:8b:48:70:8c:48:63:5f:95:b4:eb:68:98:f7:27:
         3f:75:83:df:88:57:22:5a:f2:ea:07:cd:5a:f8:a0:88:e3:c2:
         8a:2d:2c:fb:91:dc:36:90:35:92:4d:70:cc:7f:e1:36:83:64:
         6f:e6:4e:a4:b0:1b:4e:5b:81:89:f7:b3:11:59:73:5f:76:a7:
         4c:32:f7:d0:82:10:2e:9f:6a:a6:7b:a9:1c:a7:37:e5:ba:b8:
         77:76:47:3d:87:ca:47:1b:2b:61:2e:dc:c4:bb:f8:74:5c:f0:
         8c:77:09:76:0f:a4:da:a7:33:56:74:6f:57:0c:16:82:84:4b:
         5c:0d:9d:76:6a:6d:a4:c5:16:27:bc:6d:6b:50:cb:04:ea:f8:
         46:67:d9:58:7f:9f:77:52:00:75:82:86:5b:08:20:df:41:1d:
         65:d2:11:1c:74:c5:0c:28:5e:37:56:90:6f:7e:76:5a:81:73:
         92:12:ad:55:02:dd:61:2e:40:11:63:fc:62:c2:8c:7a:00:c3:
         9f:2a:15:5a:3b:70:48:af:1d:90:99:c6:9c:8d:11:31:8e:0d:
         2c:26:e5:f2:16:27:a7:da:a5:04:d1:04:2c:72:c5:ba:aa:c4:
         70:a2:60:22:48:8b:4f:66:dc:97:ea:b5:bb:ea:cb:70:df:7f:
         ce:fa:69:1d:36:41:b4:70
-----BEGIN CERTIFICATE-----
MIIGrTCCBJWgAwIBAgICGf8wDQYJKoZIhvcNAQEEBQAwgawxCzAJBgNVBAYTAlVT
MQswCQYDVQQIEwJPSDERMA8GA1UEBxMIQ29sdW1idXMxEjAQBgNVBAoTCVZpa2lu
Z1ZQTjEdMBsGA1UECxMUTXlPcmdhbml6YXRpb25hbFVuaXQxFTATBgNVBAMTDFZp
a2luZ1ZQTiBDQTEQMA4GA1UEKRMHRWFzeVJTQTEhMB8GCSqGSIb3DQEJARYSbWVA
bXlob3N0Lm15ZG9tYWluMB4XDTE1MTEwNzIxMzYxN1oXDTI1MTEwNDIxMzYxN1ow
HzEdMBsGA1UEAxMUQ2xpZW50MTU5MkNlcnRhOTllZWQwggIiMA0GCSqGSIb3DQEB
AQUAA4ICDwAwggIKAoICAQC5p7qdRpoYm55AvCgFaFBWWgOPPRn7L5SXvjnWi4/L
JsWZFaqeh7WDkDcduZDk8FLoUwqK/0A7T6IlJE4VfUdF4ypEvEwrDTn9oknkM4ZC
cqOtgIIrYiqLNEhURNVBtac8qwTuCHpoK/HUna+0IUXJcAE1mDRgfgXFUu+sP/+E
h9oi+6xH7k9YLbQaZqTzKut/1WkzcDfmJWJO3LGoF5j4pexDuRIlx8Y5knaVJIRf
3z+Y22GLP/dbvOFuypER2cQLHfa8ql8eNpqNrCXRIU2sqFICKvGJ+0pN4kw4rAWp
qT0jKb4lVJoh7w9nVSiubPf1xOv3Ot1UdBEO9Al9lwwQ4QzTrpDrytMw5ed4o3aX
QomrSefRPKo7uN4rSyscTb5liIYh8QFqV3OXMHYnXjK1snviqhARDWvjaGDFFsbR
qTinD1XxeG147l0bZd4VH+BUvbWnk1lRA4+a9/GkDX4/obXoxjTqyLiNBm9n2M/9
9LlJ7vOjX6drgYIAX3pVk8WbOsx4+qH4C5/okPuKVZ+nLK2Zm91eTDIDSzfhJy4C
P6YfmEebp1vgqNaB+63NG+mDNCPUABtcqKNYEB7BqO+oBCeF5sfhnVKxMgUkiN6e
c4nWPEsH7870+yPq1/yIjw6/INOlGJLYcfLRQMKNCqyZ/p24VkxjLe4aD/ylObf3
5wIDAQABo4IBYzCCAV8wCQYDVR0TBAIwADAtBglghkgBhvhCAQ0EIBYeRWFzeS1S
U0EgR2VuZXJhdGVkIENlcnRpZmljYXRlMB0GA1UdDgQWBBRhAgi1gInU78ZPSePC
t5KkETTK1TCB4QYDVR0jBIHZMIHWgBQSzWAE0qCAnnDtxpm4eyzGUv0ZoaGBsqSB
rzCBrDELMAkGA1UEBhMCVVMxCzAJBgNVBAgTAk9IMREwDwYDVQQHEwhDb2x1bWJ1
czESMBAGA1UEChMJVmlraW5nVlBOMR0wGwYDVQQLExRNeU9yZ2FuaXphdGlvbmFs
VW5pdDEVMBMGA1UEAxMMVmlraW5nVlBOIENBMRAwDgYDVQQpEwdFYXN5UlNBMSEw
HwYJKoZIhvcNAQkBFhJtZUBteWhvc3QubXlkb21haW6CCQDPNYXugL8qPjATBgNV
HSUEDDAKBggrBgEFBQcDAjALBgNVHQ8EBAMCB4AwDQYJKoZIhvcNAQEEBQADggIB
AFavtnuHhoJPhGphLnspQQWbetszy1H+nbqwM+Yp3n2vy9bEzNj0FUTha+ZaqJX/
arj4v60cuisxqtYW47gKDHXtUQWOTVlQteDguAQwN8yDbZ40tIYxGKpsnSuQlNOT
pcvPuyawnH/AhetH6l7vWnMWPQEU6jPSqjz+oNjpPL7qrufJxI4SZk1Zq/p7TNP7
jadPdGdFWATtdMpxsT/JsPa0qJbgL3Ja77YGUHSrkcNblOG8JCEQZ/CXU/7OYgBB
oREzw76g4VKCVINJCssEWm/nKya9rVlr7ef5pW5rYW112tY9UPFH8Vm0vIdHZNCh
4PJ7TohajpOVEL/bC2NmhiSLSHCMSGNflbTraJj3Jz91g9+IVyJa8uoHzVr4oIjj
wootLPuR3DaQNZJNcMx/4TaDZG/mTqSwG05bgYn3sxFZc192p0wy99CCEC6faqZ7
qRynN+W6uHd2Rz2HykcbK2Eu3MS7+HRc8Ix3CXYPpNqnM1Z0b1cMFoKES1wNnXZq
baTFFie8bWtQywTq+EZn2Vh/n3dSAHWChlsIIN9BHWXSERx0xQwoXjdWkG9+dlqB
c5ISrVUC3WEuQBFj/GLCjHoAw58qFVo7cEivHZCZxpyNETGODSwm5fIWJ6fapQTR
BCxyxbqqxHCiYCJIi09m3Jfqtbvqy3Dff876aR02QbRw
-----END CERTIFICATE-----
