Certificate:
    Data:
        Version: 3 (0x2)
        Serial Number: 6670 (0x1a0e)
    Signature Algorithm: md5WithRSAEncryption
        Issuer: C=US, ST=OH, L=Columbus, O=VikingVPN, OU=MyOrganizationalUnit, CN=VikingVPN CA/name=EasyRSA/emailAddress=me@myhost.mydomain
        Validity
            Not Before: Nov  9 22:11:38 2015 GMT
            Not After : Nov  6 22:11:38 2025 GMT
        Subject: CN=Client1176Certbd731d
        Subject Public Key Info:
            Public Key Algorithm: rsaEncryption
                Public-Key: (4096 bit)
                Modulus:
                    00:d1:a6:dd:a7:de:22:1b:14:fb:97:78:a6:a7:89:
                    4c:2b:ac:e0:1c:a8:5e:6f:bc:a5:aa:c9:e9:30:5a:
                    2c:14:99:25:40:53:0c:e6:f4:bc:01:a7:91:b4:e8:
                    d0:61:4e:a0:f2:50:bc:7d:16:df:2b:ad:15:0d:6f:
                    06:1f:2b:0f:da:1d:04:a6:22:d2:5e:43:f9:e0:78:
                    27:c6:f9:69:c5:3e:c9:24:b6:9c:8a:60:d2:cd:b9:
                    4c:6c:84:f5:48:47:97:b1:d5:31:41:f4:9a:d5:ba:
                    d7:12:48:72:34:0a:37:94:2e:7c:10:8f:55:b7:f3:
                    2c:a7:c0:10:c4:23:4a:16:eb:e4:cb:18:6b:c9:21:
                    79:e6:f1:7a:41:e6:46:5f:4b:12:c5:38:b1:99:ee:
                    13:6a:cd:18:04:30:b3:bd:da:2b:21:8c:bf:49:3e:
                    08:41:c0:b6:58:1d:20:78:8c:d3:01:06:14:e1:ec:
                    3f:24:a2:d1:f8:6d:d0:e5:45:11:4a:6f:bf:a9:c6:
                    58:80:6d:6f:84:76:11:76:26:0f:7e:22:bf:85:50:
                    41:18:da:24:40:65:dd:45:69:ff:a0:8f:ad:bd:2e:
                    8e:a3:88:f1:c4:f4:3e:f8:e5:4d:17:86:99:23:6d:
                    ac:c3:ef:19:7c:39:0a:49:47:e5:56:c2:30:ba:4b:
                    84:5a:b1:10:80:68:8c:e5:6f:72:3b:d7:0c:0a:3b:
                    c0:39:10:73:5e:bb:f7:05:eb:e7:57:56:61:e0:28:
                    e1:41:4d:13:1f:6a:7b:f3:1c:65:ef:29:1c:3c:31:
                    f9:10:93:5e:bb:b5:a6:51:a3:16:c1:fc:a1:fd:5a:
                    7d:fb:c6:78:40:df:fa:9a:fa:cf:7e:08:62:d2:9b:
                    ba:21:c9:af:04:4e:26:23:19:13:62:71:37:d5:83:
                    de:70:58:41:3c:25:fd:8a:21:53:98:4f:8e:c2:c6:
                    25:f6:ff:16:05:e4:b1:f8:a5:0b:c0:92:d2:07:6e:
                    a8:66:f6:d9:6d:84:7d:b7:d9:a0:97:bc:a3:d0:56:
                    86:27:81:8e:95:dc:67:f5:02:fc:11:9f:08:1f:14:
                    35:60:bf:42:d5:84:2f:e8:3c:14:d6:d2:4b:95:14:
                    c4:96:e6:8a:24:48:c4:19:fb:8a:a4:84:b8:56:76:
                    9a:8d:7d:33:05:17:b7:d7:a3:fc:67:52:48:37:a3:
                    b0:9a:a0:b7:da:2b:36:6d:7a:ca:58:8d:ad:eb:a0:
                    df:c5:61:d3:08:6c:8e:d2:0d:65:45:7a:f4:cc:6c:
                    f0:bf:a6:0f:e2:0d:37:7b:37:57:8d:98:4e:d6:70:
                    82:b2:be:97:2c:28:a1:56:fe:eb:a9:1a:3a:14:02:
                    41:39:77
                Exponent: 65537 (0x10001)
        X509v3 extensions:
            X509v3 Basic Constraints: 
                CA:FALSE
            Netscape Comment: 
                Easy-RSA Generated Certificate
            X509v3 Subject Key Identifier: 
                10:01:BC:3D:C9:82:B8:56:14:B0:A9:6F:84:4D:F5:2D:D5:D4:C9:F9
            X509v3 Authority Key Identifier: 
                keyid:12:CD:60:04:D2:A0:80:9E:70:ED:C6:99:B8:7B:2C:C6:52:FD:19:A1
                DirName:/C=US/ST=OH/L=Columbus/O=VikingVPN/OU=MyOrganizationalUnit/CN=VikingVPN CA/name=EasyRSA/emailAddress=me@myhost.mydomain
                serial:CF:35:85:EE:80:BF:2A:3E

            X509v3 Extended Key Usage: 
                TLS Web Client Authentication
            X509v3 Key Usage: 
                Digital Signature
    Signature Algorithm: md5WithRSAEncryption
         6c:54:3d:ec:c3:77:86:96:92:ae:e9:58:1a:5b:22:88:d8:cf:
         f5:1a:ca:53:32:7a:67:a1:e1:ee:78:d6:9d:75:d8:96:b7:d8:
         0b:e3:1a:2a:8a:6b:43:89:26:03:da:a6:d1:08:a1:da:fa:03:
         80:2c:ba:b2:56:b1:15:66:d7:e8:d2:78:31:8c:51:e0:1f:a8:
         c8:61:fd:7c:e7:e8:08:f9:fe:99:0c:07:96:28:59:d7:2c:fe:
         31:ce:c2:e7:93:03:e0:77:68:51:a7:05:d1:07:e2:98:aa:0b:
         bf:2b:79:1e:a7:7f:0c:0f:9d:38:59:d9:f6:3e:d7:67:9a:f4:
         9d:48:67:26:8d:06:71:b1:e4:50:68:07:1c:61:09:61:7c:9b:
         eb:11:04:38:bd:10:08:1c:87:34:f3:ae:e6:f5:64:3f:31:2f:
         68:5b:4e:76:9f:be:17:77:95:0b:66:4d:5d:04:0a:15:c3:7f:
         13:46:de:e1:e6:10:72:f8:a3:8b:39:5d:9c:e4:d6:3d:64:fa:
         77:05:5c:9d:9a:4b:18:d7:ac:15:d4:0d:09:75:54:9c:b9:84:
         f7:0d:5a:2c:29:e5:ae:7d:5b:65:2a:19:ae:c6:bb:ed:06:2c:
         a9:14:5e:19:9b:86:9f:88:9a:80:5f:75:fd:a3:1f:90:7d:50:
         7f:2a:4d:e1:70:9e:4e:1e:52:1a:f5:12:26:ed:46:2d:83:a0:
         bb:46:8d:75:52:31:75:fb:81:f1:9a:a4:ce:fd:8a:43:bc:46:
         7d:12:f6:47:0e:5b:62:d7:eb:de:53:dc:75:30:66:cb:fd:ba:
         9a:f3:fa:cb:86:bb:42:1b:0f:4e:34:f8:74:72:42:cc:2f:43:
         87:f0:66:b2:8b:3c:ee:c3:d5:52:9e:7a:ae:15:5f:a9:04:06:
         e1:8c:56:80:2e:ca:c5:db:fd:08:00:90:74:4f:3f:7b:07:12:
         1a:9e:2f:b6:53:89:c5:05:c8:81:44:3c:52:fd:72:34:79:b3:
         df:33:37:a4:85:49:4c:90:8b:90:5b:88:c3:3f:61:60:a8:46:
         4e:cb:28:8b:aa:b8:87:52:01:9a:25:57:5e:0c:a6:57:4e:ef:
         d2:3e:3c:7b:9b:50:04:3f:f9:d6:71:95:80:2f:0a:ec:91:53:
         ac:9e:5a:8f:82:0f:52:13:6a:45:72:ad:68:f3:2e:fc:5f:cf:
         15:60:db:08:d5:86:3d:6f:a1:7f:b8:92:9d:07:21:f8:d4:4e:
         24:1c:31:75:21:56:f7:89:84:85:cf:84:39:69:8b:b4:fd:09:
         9c:71:fb:19:f6:ba:28:31:2c:1f:a8:2f:52:3c:83:9a:8d:0b:
         80:cc:31:a5:e7:6c:29:3c
-----BEGIN CERTIFICATE-----
MIIGrTCCBJWgAwIBAgICGg4wDQYJKoZIhvcNAQEEBQAwgawxCzAJBgNVBAYTAlVT
MQswCQYDVQQIEwJPSDERMA8GA1UEBxMIQ29sdW1idXMxEjAQBgNVBAoTCVZpa2lu
Z1ZQTjEdMBsGA1UECxMUTXlPcmdhbml6YXRpb25hbFVuaXQxFTATBgNVBAMTDFZp
a2luZ1ZQTiBDQTEQMA4GA1UEKRMHRWFzeVJTQTEhMB8GCSqGSIb3DQEJARYSbWVA
bXlob3N0Lm15ZG9tYWluMB4XDTE1MTEwOTIyMTEzOFoXDTI1MTEwNjIyMTEzOFow
HzEdMBsGA1UEAxMUQ2xpZW50MTE3NkNlcnRiZDczMWQwggIiMA0GCSqGSIb3DQEB
AQUAA4ICDwAwggIKAoICAQDRpt2n3iIbFPuXeKaniUwrrOAcqF5vvKWqyekwWiwU
mSVAUwzm9LwBp5G06NBhTqDyULx9Ft8rrRUNbwYfKw/aHQSmItJeQ/ngeCfG+WnF
PskktpyKYNLNuUxshPVIR5ex1TFB9JrVutcSSHI0CjeULnwQj1W38yynwBDEI0oW
6+TLGGvJIXnm8XpB5kZfSxLFOLGZ7hNqzRgEMLO92ishjL9JPghBwLZYHSB4jNMB
BhTh7D8kotH4bdDlRRFKb7+pxliAbW+EdhF2Jg9+Ir+FUEEY2iRAZd1Faf+gj629
Lo6jiPHE9D745U0XhpkjbazD7xl8OQpJR+VWwjC6S4RasRCAaIzlb3I71wwKO8A5
EHNeu/cF6+dXVmHgKOFBTRMfanvzHGXvKRw8MfkQk167taZRoxbB/KH9Wn37xnhA
3/qa+s9+CGLSm7ohya8ETiYjGRNicTfVg95wWEE8Jf2KIVOYT47CxiX2/xYF5LH4
pQvAktIHbqhm9tlthH232aCXvKPQVoYngY6V3Gf1AvwRnwgfFDVgv0LVhC/oPBTW
0kuVFMSW5ookSMQZ+4qkhLhWdpqNfTMFF7fXo/xnUkg3o7CaoLfaKzZtespYja3r
oN/FYdMIbI7SDWVFevTMbPC/pg/iDTd7N1eNmE7WcIKyvpcsKKFW/uupGjoUAkE5
dwIDAQABo4IBYzCCAV8wCQYDVR0TBAIwADAtBglghkgBhvhCAQ0EIBYeRWFzeS1S
U0EgR2VuZXJhdGVkIENlcnRpZmljYXRlMB0GA1UdDgQWBBQQAbw9yYK4VhSwqW+E
TfUt1dTJ+TCB4QYDVR0jBIHZMIHWgBQSzWAE0qCAnnDtxpm4eyzGUv0ZoaGBsqSB
rzCBrDELMAkGA1UEBhMCVVMxCzAJBgNVBAgTAk9IMREwDwYDVQQHEwhDb2x1bWJ1
czESMBAGA1UEChMJVmlraW5nVlBOMR0wGwYDVQQLExRNeU9yZ2FuaXphdGlvbmFs
VW5pdDEVMBMGA1UEAxMMVmlraW5nVlBOIENBMRAwDgYDVQQpEwdFYXN5UlNBMSEw
HwYJKoZIhvcNAQkBFhJtZUBteWhvc3QubXlkb21haW6CCQDPNYXugL8qPjATBgNV
HSUEDDAKBggrBgEFBQcDAjALBgNVHQ8EBAMCB4AwDQYJKoZIhvcNAQEEBQADggIB
AGxUPezDd4aWkq7pWBpbIojYz/UaylMyemeh4e541p112Ja32AvjGiqKa0OJJgPa
ptEIodr6A4AsurJWsRVm1+jSeDGMUeAfqMhh/Xzn6Aj5/pkMB5YoWdcs/jHOwueT
A+B3aFGnBdEH4piqC78reR6nfwwPnThZ2fY+12ea9J1IZyaNBnGx5FBoBxxhCWF8
m+sRBDi9EAgchzTzrub1ZD8xL2hbTnafvhd3lQtmTV0EChXDfxNG3uHmEHL4o4s5
XZzk1j1k+ncFXJ2aSxjXrBXUDQl1VJy5hPcNWiwp5a59W2UqGa7Gu+0GLKkUXhmb
hp+ImoBfdf2jH5B9UH8qTeFwnk4eUhr1EibtRi2DoLtGjXVSMXX7gfGapM79ikO8
Rn0S9kcOW2LX695T3HUwZsv9uprz+suGu0IbD040+HRyQswvQ4fwZrKLPO7D1VKe
eq4VX6kEBuGMVoAuysXb/QgAkHRPP3sHEhqeL7ZTicUFyIFEPFL9cjR5s98zN6SF
SUyQi5BbiMM/YWCoRk7LKIuquIdSAZolV14MpldO79I+PHubUAQ/+dZxlYAvCuyR
U6yeWo+CD1ITakVyrWjzLvxfzxVg2wjVhj1voX+4kp0HIfjUTiQcMXUhVveJhIXP
hDlpi7T9CZxx+xn2uigxLB+oL1I8g5qNC4DMMaXnbCk8
-----END CERTIFICATE-----
