Certificate:
    Data:
        Version: 3 (0x2)
        Serial Number: 6708 (0x1a34)
    Signature Algorithm: md5WithRSAEncryption
        Issuer: C=US, ST=OH, L=Columbus, O=VikingVPN, OU=MyOrganizationalUnit, CN=VikingVPN CA/name=EasyRSA/emailAddress=me@myhost.mydomain
        Validity
            Not Before: Nov 18 06:29:33 2015 GMT
            Not After : Nov 15 06:29:33 2025 GMT
        Subject: CN=Client2060Cert09b59a
        Subject Public Key Info:
            Public Key Algorithm: rsaEncryption
                Public-Key: (4096 bit)
                Modulus:
                    00:c5:64:c6:0c:c2:42:a3:23:82:52:68:e7:9a:13:
                    8f:12:9e:29:4a:4f:68:ed:8c:3a:a8:0e:b2:64:4d:
                    86:13:fe:40:f4:a7:90:36:ba:19:8a:f7:3e:0d:25:
                    f7:56:27:d5:a5:64:e2:21:d9:9b:64:1a:86:2c:78:
                    da:9e:8d:00:d2:29:70:03:ae:11:3e:c6:90:25:cf:
                    3a:33:53:0b:97:fe:8c:50:3d:4b:0f:a8:de:e1:0c:
                    a9:61:61:fd:c9:25:04:0b:09:46:67:ac:75:42:24:
                    d4:9e:69:bd:04:2a:14:de:2a:6d:48:44:56:03:e2:
                    bd:57:27:fa:d5:fb:4c:4e:fd:a5:dc:1d:2e:83:62:
                    24:30:35:4e:8b:13:2f:ca:6c:db:70:50:d9:96:ba:
                    9f:10:24:1a:8b:04:92:67:72:2c:ae:91:62:57:fc:
                    ae:62:a1:c9:5a:4f:f8:af:59:87:f7:28:96:6f:a0:
                    c6:15:84:2c:8f:d2:af:4e:f1:ac:33:61:29:94:44:
                    1d:8b:8b:48:90:82:d3:8b:02:3a:9a:9d:11:40:da:
                    65:7b:46:16:d3:7e:90:7b:6e:43:35:08:9a:69:31:
                    b9:ff:99:49:9d:bd:9a:3a:ae:4b:a8:6d:03:41:f0:
                    17:da:d4:c7:5e:cc:2b:09:fe:2b:e6:4e:98:44:f2:
                    0a:be:80:0b:63:2f:35:f1:bb:16:29:4c:dd:21:98:
                    e4:d6:e8:b0:b1:41:35:c9:47:13:ec:47:7c:e8:b0:
                    26:5a:d2:eb:ff:18:0f:69:be:fd:6c:9c:4b:b3:77:
                    1d:4e:70:70:94:12:36:2f:4a:04:cf:ba:dd:dd:f7:
                    15:99:ed:8b:13:55:30:23:d7:43:56:f9:6f:54:34:
                    ac:3e:29:9a:2d:f9:82:de:d0:00:48:fa:37:2e:6c:
                    26:2d:97:e2:02:49:f4:27:c9:29:88:f5:6c:7f:b0:
                    ac:67:c3:1a:68:f1:34:9a:ec:1c:30:e5:75:b3:f0:
                    ca:1a:19:c2:91:3a:2d:72:77:20:94:85:47:07:2f:
                    a0:1d:50:4f:b6:1f:b2:a2:50:4b:aa:cb:c3:9a:9b:
                    9a:af:e9:80:91:c9:a9:e8:4f:e1:15:07:0d:50:88:
                    54:8e:8e:1c:5a:b4:8d:84:f7:1a:9d:6a:6a:ec:60:
                    29:19:bb:19:fe:a4:f1:22:9a:9d:c7:c5:38:53:a2:
                    ee:e8:64:14:58:1c:a5:71:18:f5:b5:7b:5e:3e:c6:
                    38:cf:43:b9:62:c4:06:86:5e:4a:4b:95:0c:c2:fe:
                    2b:db:dd:58:eb:69:01:a6:6b:91:2c:68:72:6c:03:
                    8d:e3:aa:3d:60:e6:c6:93:52:94:90:6d:78:f1:71:
                    4b:6d:a9
                Exponent: 65537 (0x10001)
        X509v3 extensions:
            X509v3 Basic Constraints: 
                CA:FALSE
            Netscape Comment: 
                Easy-RSA Generated Certificate
            X509v3 Subject Key Identifier: 
                51:53:74:D7:68:2C:94:77:8F:E4:B7:2D:F2:D1:CE:E3:1B:9A:83:1E
            X509v3 Authority Key Identifier: 
                keyid:12:CD:60:04:D2:A0:80:9E:70:ED:C6:99:B8:7B:2C:C6:52:FD:19:A1
                DirName:/C=US/ST=OH/L=Columbus/O=VikingVPN/OU=MyOrganizationalUnit/CN=VikingVPN CA/name=EasyRSA/emailAddress=me@myhost.mydomain
                serial:CF:35:85:EE:80:BF:2A:3E

            X509v3 Extended Key Usage: 
                TLS Web Client Authentication
            X509v3 Key Usage: 
                Digital Signature
    Signature Algorithm: md5WithRSAEncryption
         5c:f5:e1:21:51:54:ae:ad:87:74:8a:32:9b:e2:1e:51:26:39:
         be:17:49:83:a2:9e:90:a7:56:9a:c0:ee:51:1a:43:d7:33:f4:
         f3:e6:f9:ab:db:61:c6:d6:d9:c5:76:1d:11:c0:b6:9d:ac:9a:
         46:eb:9f:08:bd:0d:52:98:fd:37:42:51:9f:5f:4e:3f:54:2a:
         17:3c:5b:b3:7c:ea:ec:cc:2c:b6:21:ff:c1:5b:19:ba:88:63:
         53:74:57:aa:ac:1e:97:9f:99:07:71:67:13:3a:f2:2d:df:4b:
         08:15:6b:d1:ba:f0:c0:e2:21:b6:91:1c:62:e8:3a:3f:3f:f5:
         62:32:bb:d8:42:20:2b:0a:ba:80:11:37:95:af:e0:a0:d2:31:
         50:e6:5a:4e:70:63:cb:83:fc:7a:95:f2:9c:05:71:3a:79:e5:
         eb:5b:25:8b:d2:5e:b6:df:13:0e:5f:ca:c8:50:b0:39:fc:b8:
         81:0c:47:7e:04:99:93:d9:ff:ed:57:49:3f:d2:c4:a4:81:8c:
         43:6c:3b:90:ea:b5:76:eb:a5:19:1c:30:3a:ed:c2:0f:9b:8f:
         11:7e:c2:cf:f9:a3:23:48:90:92:3d:9a:f7:91:09:5d:af:8e:
         ff:da:42:9a:d5:ec:67:e4:1e:01:26:cd:ee:bc:61:b3:9d:1d:
         67:fe:6c:44:e4:33:21:1f:1c:35:8b:96:e1:3b:c1:49:d5:41:
         3f:36:79:b0:6e:79:7a:5b:0f:9d:45:43:f3:b0:ec:ac:d4:79:
         d2:26:16:53:7d:9c:50:b0:75:3f:43:43:f0:96:b7:5f:c1:19:
         15:3e:25:45:3d:e7:7b:72:24:52:3e:e5:2b:92:a9:82:16:f8:
         db:72:1d:d5:06:a5:4e:ba:47:8b:da:5b:1e:a9:04:6a:eb:6c:
         22:20:fa:50:bd:d1:ec:b5:ea:b9:92:d3:a9:4f:31:54:5a:9f:
         c9:28:a7:49:20:12:d1:7b:45:2e:7a:53:40:d4:2d:a6:83:55:
         12:0e:74:d7:62:b3:e8:5c:1a:dd:1b:cf:f2:47:e6:4d:5d:3b:
         98:e7:9f:01:6f:9d:57:22:e6:a1:f7:b0:30:cd:b2:26:ea:fa:
         4c:79:5e:e5:31:b5:7e:31:e6:7b:19:37:3b:82:f8:97:1f:51:
         8a:ea:76:87:02:3a:3a:9b:9b:1c:25:f8:c2:bd:90:d7:a0:cf:
         d2:e9:b8:89:36:b9:75:2d:40:93:ca:e9:00:63:96:60:b0:5a:
         fb:a3:6f:64:cd:1d:4a:18:b5:b9:2d:ec:ed:58:5f:90:0a:41:
         81:fe:15:97:13:28:1c:5e:70:6e:a5:de:f2:53:5c:7e:b3:36:
         46:f7:0d:b4:c5:3d:8f:74
-----BEGIN CERTIFICATE-----
MIIGrTCCBJWgAwIBAgICGjQwDQYJKoZIhvcNAQEEBQAwgawxCzAJBgNVBAYTAlVT
MQswCQYDVQQIEwJPSDERMA8GA1UEBxMIQ29sdW1idXMxEjAQBgNVBAoTCVZpa2lu
Z1ZQTjEdMBsGA1UECxMUTXlPcmdhbml6YXRpb25hbFVuaXQxFTATBgNVBAMTDFZp
a2luZ1ZQTiBDQTEQMA4GA1UEKRMHRWFzeVJTQTEhMB8GCSqGSIb3DQEJARYSbWVA
bXlob3N0Lm15ZG9tYWluMB4XDTE1MTExODA2MjkzM1oXDTI1MTExNTA2MjkzM1ow
HzEdMBsGA1UEAxMUQ2xpZW50MjA2MENlcnQwOWI1OWEwggIiMA0GCSqGSIb3DQEB
AQUAA4ICDwAwggIKAoICAQDFZMYMwkKjI4JSaOeaE48SnilKT2jtjDqoDrJkTYYT
/kD0p5A2uhmK9z4NJfdWJ9WlZOIh2ZtkGoYseNqejQDSKXADrhE+xpAlzzozUwuX
/oxQPUsPqN7hDKlhYf3JJQQLCUZnrHVCJNSeab0EKhTeKm1IRFYD4r1XJ/rV+0xO
/aXcHS6DYiQwNU6LEy/KbNtwUNmWup8QJBqLBJJnciyukWJX/K5ioclaT/ivWYf3
KJZvoMYVhCyP0q9O8awzYSmURB2Li0iQgtOLAjqanRFA2mV7RhbTfpB7bkM1CJpp
Mbn/mUmdvZo6rkuobQNB8Bfa1MdezCsJ/ivmTphE8gq+gAtjLzXxuxYpTN0hmOTW
6LCxQTXJRxPsR3zosCZa0uv/GA9pvv1snEuzdx1OcHCUEjYvSgTPut3d9xWZ7YsT
VTAj10NW+W9UNKw+KZot+YLe0ABI+jcubCYtl+ICSfQnySmI9Wx/sKxnwxpo8TSa
7Bww5XWz8MoaGcKROi1ydyCUhUcHL6AdUE+2H7KiUEuqy8Oam5qv6YCRyanoT+EV
Bw1QiFSOjhxatI2E9xqdamrsYCkZuxn+pPEimp3HxThTou7oZBRYHKVxGPW1e14+
xjjPQ7lixAaGXkpLlQzC/ivb3VjraQGma5EsaHJsA43jqj1g5saTUpSQbXjxcUtt
qQIDAQABo4IBYzCCAV8wCQYDVR0TBAIwADAtBglghkgBhvhCAQ0EIBYeRWFzeS1S
U0EgR2VuZXJhdGVkIENlcnRpZmljYXRlMB0GA1UdDgQWBBRRU3TXaCyUd4/kty3y
0c7jG5qDHjCB4QYDVR0jBIHZMIHWgBQSzWAE0qCAnnDtxpm4eyzGUv0ZoaGBsqSB
rzCBrDELMAkGA1UEBhMCVVMxCzAJBgNVBAgTAk9IMREwDwYDVQQHEwhDb2x1bWJ1
czESMBAGA1UEChMJVmlraW5nVlBOMR0wGwYDVQQLExRNeU9yZ2FuaXphdGlvbmFs
VW5pdDEVMBMGA1UEAxMMVmlraW5nVlBOIENBMRAwDgYDVQQpEwdFYXN5UlNBMSEw
HwYJKoZIhvcNAQkBFhJtZUBteWhvc3QubXlkb21haW6CCQDPNYXugL8qPjATBgNV
HSUEDDAKBggrBgEFBQcDAjALBgNVHQ8EBAMCB4AwDQYJKoZIhvcNAQEEBQADggIB
AFz14SFRVK6th3SKMpviHlEmOb4XSYOinpCnVprA7lEaQ9cz9PPm+avbYcbW2cV2
HRHAtp2smkbrnwi9DVKY/TdCUZ9fTj9UKhc8W7N86uzMLLYh/8FbGbqIY1N0V6qs
HpefmQdxZxM68i3fSwgVa9G68MDiIbaRHGLoOj8/9WIyu9hCICsKuoARN5Wv4KDS
MVDmWk5wY8uD/HqV8pwFcTp55etbJYvSXrbfEw5fyshQsDn8uIEMR34EmZPZ/+1X
ST/SxKSBjENsO5DqtXbrpRkcMDrtwg+bjxF+ws/5oyNIkJI9mveRCV2vjv/aQprV
7GfkHgEmze68YbOdHWf+bETkMyEfHDWLluE7wUnVQT82ebBueXpbD51FQ/Ow7KzU
edImFlN9nFCwdT9DQ/CWt1/BGRU+JUU953tyJFI+5SuSqYIW+NtyHdUGpU66R4va
Wx6pBGrrbCIg+lC90ey16rmS06lPMVRan8kop0kgEtF7RS56U0DULaaDVRIOdNdi
s+hcGt0bz/JH5k1dO5jnnwFvnVci5qH3sDDNsibq+kx5XuUxtX4x5nsZNzuC+Jcf
UYrqdocCOjqbmxwl+MK9kNegz9LpuIk2uXUtQJPK6QBjlmCwWvujb2TNHUoYtbkt
7O1YX5AKQYH+FZcTKBxecG6l3vJTXH6zNkb3DbTFPY90
-----END CERTIFICATE-----
