Certificate:
    Data:
        Version: 3 (0x2)
        Serial Number: 6722 (0x1a42)
    Signature Algorithm: md5WithRSAEncryption
        Issuer: C=US, ST=OH, L=Columbus, O=VikingVPN, OU=MyOrganizationalUnit, CN=VikingVPN CA/name=EasyRSA/emailAddress=me@myhost.mydomain
        Validity
            Not Before: Nov 21 10:07:30 2015 GMT
            Not After : Nov 18 10:07:30 2025 GMT
        Subject: CN=Client2000Cert9acef3
        Subject Public Key Info:
            Public Key Algorithm: rsaEncryption
                Public-Key: (4096 bit)
                Modulus:
                    00:d4:f9:55:28:86:39:e7:b7:e2:a8:27:e7:35:37:
                    67:9a:de:55:f1:fa:7e:d0:00:f4:1e:e9:e6:ce:31:
                    87:74:b5:62:86:be:f8:ef:2a:be:56:bc:a4:c2:03:
                    40:f7:2e:2d:98:48:90:3a:b3:8a:73:26:16:c7:97:
                    7f:2e:9c:92:93:ee:00:f2:67:90:5a:94:a6:d4:f4:
                    7a:0a:53:59:f2:f3:ad:10:48:1d:aa:5e:bc:1e:d6:
                    8f:2a:09:4e:9e:08:4f:c9:92:91:df:9c:65:d1:d4:
                    57:86:3a:c8:da:ea:96:01:3d:dc:30:45:87:0c:48:
                    2b:a0:e0:ed:da:6b:ff:a1:60:b1:87:be:1a:29:63:
                    69:a1:27:de:ac:59:6f:a8:75:d3:1b:c9:2d:77:9a:
                    b2:fc:e8:15:91:a7:45:18:18:7a:d4:66:a0:00:cb:
                    72:a4:3f:6a:24:ce:c1:af:16:b6:77:23:fd:06:24:
                    33:11:b0:17:5f:91:e8:87:ad:c1:da:55:50:d1:87:
                    d1:fb:85:02:10:b2:77:b3:f9:96:df:75:2c:e4:5a:
                    90:1a:24:f5:b8:4d:e0:30:85:ec:f1:e4:19:3a:bb:
                    fb:97:09:8c:21:28:c0:35:be:46:2b:78:2d:4b:81:
                    75:c3:f1:f2:7d:c0:73:7c:a7:9b:e9:6a:b6:97:82:
                    93:00:af:0c:ac:89:90:4b:cd:1d:ff:17:d2:d6:00:
                    ef:90:a7:39:b9:50:20:b6:83:34:be:1f:c6:a2:d7:
                    e4:2e:49:fc:44:43:eb:81:2d:97:44:7e:fa:a4:55:
                    ab:0a:50:16:c7:ab:af:48:10:4e:7f:37:58:2e:1e:
                    08:ec:0d:3f:db:15:7d:c8:9a:0d:05:fd:30:14:df:
                    8d:0e:2c:4c:00:c4:f6:ba:12:11:eb:10:c6:43:fb:
                    3c:98:4f:d8:87:ab:c7:5a:7e:d0:db:da:ce:d1:85:
                    4a:a9:57:00:94:3a:f1:bd:de:7b:68:cd:68:2f:0e:
                    27:a2:8c:21:7a:80:34:30:8a:ef:10:f6:a6:d6:33:
                    28:05:00:27:73:47:ac:bb:85:0c:8e:70:64:35:eb:
                    98:4a:57:de:37:2a:c9:81:39:ab:a2:c7:1f:30:12:
                    99:05:e5:24:d7:fd:89:92:3a:1c:05:c4:88:a2:f1:
                    55:3d:88:70:da:4c:1d:73:2b:ce:6d:8d:7e:cf:d0:
                    79:cb:4b:e8:37:f6:25:bb:77:3a:7d:bf:ed:93:ee:
                    9e:2a:3b:c3:31:b3:72:65:91:cf:9d:a3:17:3a:09:
                    54:fd:3d:a7:4f:a1:22:fc:8e:73:46:bc:d5:ef:de:
                    a6:a6:ff:a9:b4:35:ed:0f:1a:a9:2b:e4:13:2c:2b:
                    fd:e0:41
                Exponent: 65537 (0x10001)
        X509v3 extensions:
            X509v3 Basic Constraints: 
                CA:FALSE
            Netscape Comment: 
                Easy-RSA Generated Certificate
            X509v3 Subject Key Identifier: 
                43:54:0F:39:CC:3F:7A:23:8C:45:0F:7F:D1:E0:3D:7E:D6:F9:EA:70
            X509v3 Authority Key Identifier: 
                keyid:12:CD:60:04:D2:A0:80:9E:70:ED:C6:99:B8:7B:2C:C6:52:FD:19:A1
                DirName:/C=US/ST=OH/L=Columbus/O=VikingVPN/OU=MyOrganizationalUnit/CN=VikingVPN CA/name=EasyRSA/emailAddress=me@myhost.mydomain
                serial:CF:35:85:EE:80:BF:2A:3E

            X509v3 Extended Key Usage: 
                TLS Web Client Authentication
            X509v3 Key Usage: 
                Digital Signature
    Signature Algorithm: md5WithRSAEncryption
         b7:d0:7b:3d:a4:4f:d0:5a:a9:0b:8d:dd:c8:a5:30:da:8e:e7:
         8e:1b:a0:6a:9c:c6:61:df:1e:81:03:25:50:bb:5c:c1:b2:73:
         72:ef:6e:e6:2a:ab:c2:ab:3c:c5:31:02:54:7d:28:71:32:fd:
         c1:d7:3e:23:a5:b1:fa:40:33:8b:0b:c0:7c:14:3b:26:83:2a:
         18:f9:8b:ad:6b:08:04:91:4f:c9:fd:91:59:05:b6:ee:35:02:
         6f:5a:84:67:76:cb:45:dd:f8:d3:c6:81:5c:a4:02:4f:dd:dc:
         53:6e:73:f6:42:a7:21:30:ee:85:87:12:8b:fe:03:ad:22:77:
         e7:93:71:1b:6b:76:10:1a:1c:bb:1a:01:b5:51:e1:f8:83:7a:
         25:c6:61:27:34:ca:7d:9f:f5:ef:d8:8d:d0:d1:36:07:80:74:
         29:15:5c:41:7d:b2:2f:4b:34:3e:f7:fd:f9:ef:7d:f7:68:27:
         b9:c0:60:ea:ee:ad:fe:15:5b:40:a4:81:51:61:13:28:05:a9:
         a2:da:17:7c:1b:de:c1:08:22:9c:62:51:75:22:e4:1e:d1:16:
         d8:24:ff:bf:81:17:af:65:34:24:fa:ac:6a:14:58:48:bc:14:
         8c:bf:7f:ec:b5:37:48:5b:8e:79:73:61:8f:f9:56:66:5d:6a:
         42:fd:7b:72:a8:8f:22:6d:51:df:e0:41:fb:d5:33:2f:f7:f6:
         84:b5:ce:c2:b2:0c:ee:71:1e:a9:2f:f5:fd:92:07:32:94:69:
         b8:e8:db:eb:b6:2c:ff:b7:d9:5e:85:5e:fe:be:6e:aa:10:f1:
         76:32:ee:d1:45:83:5a:bf:c1:0d:60:1f:a2:70:45:aa:90:bf:
         f2:e8:c5:73:db:c4:b9:31:cf:62:0e:3a:a9:ca:e2:33:54:6a:
         a8:cf:c7:f1:20:4b:2b:c4:00:b4:68:e9:f7:6e:f9:ab:fa:52:
         ea:3c:3e:c4:9a:c1:cd:77:8b:24:5c:a3:cc:76:16:17:fa:ed:
         d6:7d:fe:77:62:5c:7f:c4:f8:1f:7f:1e:80:35:29:f8:e2:ef:
         c9:6a:96:a0:68:9a:b7:2b:53:78:2d:d0:ed:9d:98:be:e8:fa:
         af:c5:1c:78:5e:67:80:99:1c:b5:36:da:5c:43:7a:1f:cc:d0:
         80:73:41:56:c8:eb:26:6f:6f:41:aa:85:8f:86:47:48:2f:15:
         97:93:25:91:63:c8:b9:f6:6c:8a:aa:49:3b:2c:4e:82:2e:f2:
         73:e2:0c:cc:5c:35:78:13:1c:53:82:e0:ac:43:ca:18:8e:47:
         4d:bc:4a:63:cf:bf:6f:65:db:d1:59:0c:6c:fa:82:3a:39:ac:
         f9:8e:ee:9e:a4:b1:40:e6
-----BEGIN CERTIFICATE-----
MIIGrTCCBJWgAwIBAgICGkIwDQYJKoZIhvcNAQEEBQAwgawxCzAJBgNVBAYTAlVT
MQswCQYDVQQIEwJPSDERMA8GA1UEBxMIQ29sdW1idXMxEjAQBgNVBAoTCVZpa2lu
Z1ZQTjEdMBsGA1UECxMUTXlPcmdhbml6YXRpb25hbFVuaXQxFTATBgNVBAMTDFZp
a2luZ1ZQTiBDQTEQMA4GA1UEKRMHRWFzeVJTQTEhMB8GCSqGSIb3DQEJARYSbWVA
bXlob3N0Lm15ZG9tYWluMB4XDTE1MTEyMTEwMDczMFoXDTI1MTExODEwMDczMFow
HzEdMBsGA1UEAxMUQ2xpZW50MjAwMENlcnQ5YWNlZjMwggIiMA0GCSqGSIb3DQEB
AQUAA4ICDwAwggIKAoICAQDU+VUohjnnt+KoJ+c1N2ea3lXx+n7QAPQe6ebOMYd0
tWKGvvjvKr5WvKTCA0D3Li2YSJA6s4pzJhbHl38unJKT7gDyZ5BalKbU9HoKU1ny
860QSB2qXrwe1o8qCU6eCE/JkpHfnGXR1FeGOsja6pYBPdwwRYcMSCug4O3aa/+h
YLGHvhopY2mhJ96sWW+oddMbyS13mrL86BWRp0UYGHrUZqAAy3KkP2okzsGvFrZ3
I/0GJDMRsBdfkeiHrcHaVVDRh9H7hQIQsnez+ZbfdSzkWpAaJPW4TeAwhezx5Bk6
u/uXCYwhKMA1vkYreC1LgXXD8fJ9wHN8p5vparaXgpMArwysiZBLzR3/F9LWAO+Q
pzm5UCC2gzS+H8ai1+QuSfxEQ+uBLZdEfvqkVasKUBbHq69IEE5/N1guHgjsDT/b
FX3Img0F/TAU340OLEwAxPa6EhHrEMZD+zyYT9iHq8daftDb2s7RhUqpVwCUOvG9
3ntozWgvDieijCF6gDQwiu8Q9qbWMygFACdzR6y7hQyOcGQ165hKV943KsmBOaui
xx8wEpkF5STX/YmSOhwFxIii8VU9iHDaTB1zK85tjX7P0HnLS+g39iW7dzp9v+2T
7p4qO8Mxs3Jlkc+doxc6CVT9PadPoSL8jnNGvNXv3qam/6m0Ne0PGqkr5BMsK/3g
QQIDAQABo4IBYzCCAV8wCQYDVR0TBAIwADAtBglghkgBhvhCAQ0EIBYeRWFzeS1S
U0EgR2VuZXJhdGVkIENlcnRpZmljYXRlMB0GA1UdDgQWBBRDVA85zD96I4xFD3/R
4D1+1vnqcDCB4QYDVR0jBIHZMIHWgBQSzWAE0qCAnnDtxpm4eyzGUv0ZoaGBsqSB
rzCBrDELMAkGA1UEBhMCVVMxCzAJBgNVBAgTAk9IMREwDwYDVQQHEwhDb2x1bWJ1
czESMBAGA1UEChMJVmlraW5nVlBOMR0wGwYDVQQLExRNeU9yZ2FuaXphdGlvbmFs
VW5pdDEVMBMGA1UEAxMMVmlraW5nVlBOIENBMRAwDgYDVQQpEwdFYXN5UlNBMSEw
HwYJKoZIhvcNAQkBFhJtZUBteWhvc3QubXlkb21haW6CCQDPNYXugL8qPjATBgNV
HSUEDDAKBggrBgEFBQcDAjALBgNVHQ8EBAMCB4AwDQYJKoZIhvcNAQEEBQADggIB
ALfQez2kT9BaqQuN3cilMNqO544boGqcxmHfHoEDJVC7XMGyc3LvbuYqq8KrPMUx
AlR9KHEy/cHXPiOlsfpAM4sLwHwUOyaDKhj5i61rCASRT8n9kVkFtu41Am9ahGd2
y0Xd+NPGgVykAk/d3FNuc/ZCpyEw7oWHEov+A60id+eTcRtrdhAaHLsaAbVR4fiD
eiXGYSc0yn2f9e/YjdDRNgeAdCkVXEF9si9LND73/fnvffdoJ7nAYOrurf4VW0Ck
gVFhEygFqaLaF3wb3sEIIpxiUXUi5B7RFtgk/7+BF69lNCT6rGoUWEi8FIy/f+y1
N0hbjnlzYY/5VmZdakL9e3KojyJtUd/gQfvVMy/39oS1zsKyDO5xHqkv9f2SBzKU
abjo2+u2LP+32V6FXv6+bqoQ8XYy7tFFg1q/wQ1gH6JwRaqQv/LoxXPbxLkxz2IO
OqnK4jNUaqjPx/EgSyvEALRo6fdu+av6Uuo8PsSawc13iyRco8x2Fhf67dZ9/ndi
XH/E+B9/HoA1Kfji78lqlqBomrcrU3gt0O2dmL7o+q/FHHheZ4CZHLU22lxDeh/M
0IBzQVbI6yZvb0GqhY+GR0gvFZeTJZFjyLn2bIqqSTssToIu8nPiDMxcNXgTHFOC
4KxDyhiOR028SmPPv29l29FZDGz6gjo5rPmO7p6ksUDm
-----END CERTIFICATE-----
