Certificate:
    Data:
        Version: 3 (0x2)
        Serial Number: 6724 (0x1a44)
    Signature Algorithm: md5WithRSAEncryption
        Issuer: C=US, ST=OH, L=Columbus, O=VikingVPN, OU=MyOrganizationalUnit, CN=VikingVPN CA/name=EasyRSA/emailAddress=me@myhost.mydomain
        Validity
            Not Before: Nov 21 20:04:03 2015 GMT
            Not After : Nov 18 20:04:03 2025 GMT
        Subject: CN=Client1364Certac7732
        Subject Public Key Info:
            Public Key Algorithm: rsaEncryption
                Public-Key: (4096 bit)
                Modulus:
                    00:a8:8c:be:db:86:43:da:a4:52:ff:b5:d2:56:a7:
                    87:dd:76:d7:28:95:56:74:9c:40:19:7e:cc:27:2b:
                    60:6e:dc:44:44:5c:58:47:b6:87:c8:28:ac:96:bf:
                    dc:83:68:e9:a3:51:7d:9f:90:a1:9c:f2:25:e0:ed:
                    84:bc:c4:da:6a:18:fc:39:c7:eb:01:28:a7:c7:33:
                    6d:eb:f6:90:43:70:9b:db:ce:2a:a0:bc:49:79:cd:
                    bc:9f:8b:08:8b:28:e3:1c:d9:33:95:68:9a:68:2f:
                    b3:08:09:5b:d3:90:b2:d6:78:79:6f:2f:c2:ee:a7:
                    86:a1:72:86:31:02:7c:92:6f:52:a0:8e:4e:a1:5e:
                    a5:d4:a6:65:c1:37:dc:e4:1c:0b:4f:76:a8:8b:1c:
                    ad:57:ba:9f:39:9a:74:ab:34:15:5a:a4:55:5b:be:
                    fc:65:26:15:38:17:71:40:ef:62:ac:46:1e:60:99:
                    dd:7b:b7:6c:f9:c8:4d:99:f8:6a:1b:8c:1e:98:95:
                    4c:95:ac:c6:f8:f1:8c:45:c8:3c:b0:82:fd:77:46:
                    c2:ce:e0:1b:0f:8f:1d:07:8c:97:a5:a3:34:7c:12:
                    b4:5c:c1:dc:42:c3:aa:52:7b:79:82:d2:1c:41:dc:
                    a3:83:21:00:89:86:86:22:2e:14:19:ca:38:87:a5:
                    89:49:a9:61:39:f2:0e:5a:fc:a4:ad:9f:80:20:6b:
                    b2:28:2e:ea:a9:4b:e4:a4:a9:84:8a:08:d7:bb:61:
                    0e:42:9e:41:51:24:9c:6d:c5:19:21:94:0b:d7:c9:
                    5f:9f:79:c7:f2:e3:85:41:9f:8c:02:25:13:83:4c:
                    63:77:0b:ce:be:b8:65:68:3c:1d:94:7e:db:82:7d:
                    e1:9f:76:5d:c1:ec:88:76:85:a7:22:ec:f5:b9:ab:
                    24:d9:90:21:ef:c0:39:e4:2a:be:34:d8:aa:a7:e5:
                    26:51:68:30:39:bf:f0:09:00:34:49:7a:67:b2:b3:
                    71:c6:c5:cc:8f:a7:fb:97:66:01:a0:ad:fb:d7:39:
                    31:df:98:9a:26:f2:e4:8a:7c:81:a5:bc:f9:c0:e7:
                    b4:f1:18:74:d4:bf:6d:2a:fe:9b:47:23:aa:51:b9:
                    dc:2e:d6:45:b2:d6:9a:64:c0:9b:7a:8f:92:a4:bc:
                    b9:b5:56:dc:74:a6:0f:28:81:79:5f:21:0f:6e:3e:
                    d5:f4:c6:66:9b:26:cf:db:da:d8:7a:ba:e5:05:04:
                    e0:1f:5a:7e:a0:48:a9:8b:5b:13:1c:65:32:01:cf:
                    a1:d2:94:05:a2:85:3c:39:39:f4:27:14:c8:09:6a:
                    b4:11:87:21:0d:62:1c:af:1c:3c:74:25:2d:17:3a:
                    63:65:cb
                Exponent: 65537 (0x10001)
        X509v3 extensions:
            X509v3 Basic Constraints: 
                CA:FALSE
            Netscape Comment: 
                Easy-RSA Generated Certificate
            X509v3 Subject Key Identifier: 
                1B:A7:E9:8E:E2:46:6B:C4:E2:B3:17:B7:9B:B2:A3:E4:FB:80:4C:28
            X509v3 Authority Key Identifier: 
                keyid:12:CD:60:04:D2:A0:80:9E:70:ED:C6:99:B8:7B:2C:C6:52:FD:19:A1
                DirName:/C=US/ST=OH/L=Columbus/O=VikingVPN/OU=MyOrganizationalUnit/CN=VikingVPN CA/name=EasyRSA/emailAddress=me@myhost.mydomain
                serial:CF:35:85:EE:80:BF:2A:3E

            X509v3 Extended Key Usage: 
                TLS Web Client Authentication
            X509v3 Key Usage: 
                Digital Signature
    Signature Algorithm: md5WithRSAEncryption
         d2:3c:26:a9:f5:c2:0f:d4:14:95:88:f9:39:a5:f3:b6:c2:09:
         1e:d7:fa:da:31:a9:96:b4:b7:6e:a6:63:25:46:30:27:32:69:
         57:c3:c8:42:60:f3:e3:5e:18:c5:11:4d:cd:1f:68:54:93:3a:
         28:5c:a2:29:05:33:35:b8:a2:43:e1:a8:69:22:27:9c:09:55:
         c2:7a:3b:f4:b4:fb:d8:b7:86:42:c6:c3:3f:ca:b7:62:f1:1e:
         7b:02:7e:42:d9:0c:c8:88:b4:fa:3e:5c:01:fb:a6:78:50:9c:
         7d:4b:a4:a1:7f:af:f6:f0:27:93:06:dc:1e:97:97:c3:e5:c6:
         41:d0:9d:a0:6f:3a:6f:88:56:26:ba:48:d9:88:b3:ee:a1:23:
         6f:f7:69:38:dd:aa:30:22:e3:92:b2:92:f1:01:9e:3a:73:8b:
         ba:50:17:86:3a:c6:81:d3:0e:b8:f6:bd:7c:2f:d2:2f:f0:3d:
         a9:80:83:a4:1c:06:d8:8d:cd:6b:69:20:33:77:8b:75:e7:c0:
         86:8d:fb:48:d9:70:1a:65:d6:d8:79:05:32:bd:10:e3:45:8e:
         00:17:4f:ad:47:0c:06:06:03:3c:c3:89:a8:45:be:96:7f:dd:
         0f:ac:29:af:e3:1a:65:b7:23:d0:65:22:e4:dc:a5:b5:a3:b9:
         3b:cf:72:68:ad:af:1d:29:c8:85:78:c4:4e:b0:dd:e2:e2:9a:
         fd:24:7a:32:fa:90:1f:48:ec:ea:9d:df:3e:a4:de:2f:7f:62:
         dd:c5:19:9e:0f:f3:91:6a:db:28:8d:c3:20:78:cb:df:a1:63:
         aa:62:16:24:f3:c8:a4:28:50:ad:19:2e:74:68:5c:4c:d4:14:
         e9:09:55:0c:ce:29:70:54:42:27:08:23:63:87:2e:7f:f5:50:
         c0:ac:9e:ed:28:ba:93:0a:6a:57:66:25:1c:7a:f7:76:a5:b4:
         e0:b2:a5:f3:81:97:08:98:b8:0f:2b:fa:93:20:0a:7f:9b:9f:
         9f:17:ae:56:6b:ff:8f:2c:42:5e:44:ea:c0:65:a6:82:30:03:
         5f:d6:4d:87:13:ef:fc:ff:49:08:14:67:b7:90:74:3d:ed:f0:
         a1:40:c1:89:23:d3:e5:ce:bb:9b:90:b0:b2:10:55:3c:90:38:
         50:84:e9:dd:0b:e6:cb:a9:6f:19:e4:89:68:55:27:64:1f:2f:
         df:82:e8:3d:22:c5:c9:97:7e:52:5f:4d:8a:ce:f9:e7:5a:6e:
         d4:43:4c:e6:e7:11:f9:fd:4f:6b:da:b9:cf:4e:fe:44:e2:8c:
         19:aa:42:ac:3a:15:6e:03:b5:b9:4f:bc:93:b5:a2:59:6c:eb:
         bf:6e:67:26:fe:bf:38:a1
-----BEGIN CERTIFICATE-----
MIIGrTCCBJWgAwIBAgICGkQwDQYJKoZIhvcNAQEEBQAwgawxCzAJBgNVBAYTAlVT
MQswCQYDVQQIEwJPSDERMA8GA1UEBxMIQ29sdW1idXMxEjAQBgNVBAoTCVZpa2lu
Z1ZQTjEdMBsGA1UECxMUTXlPcmdhbml6YXRpb25hbFVuaXQxFTATBgNVBAMTDFZp
a2luZ1ZQTiBDQTEQMA4GA1UEKRMHRWFzeVJTQTEhMB8GCSqGSIb3DQEJARYSbWVA
bXlob3N0Lm15ZG9tYWluMB4XDTE1MTEyMTIwMDQwM1oXDTI1MTExODIwMDQwM1ow
HzEdMBsGA1UEAxMUQ2xpZW50MTM2NENlcnRhYzc3MzIwggIiMA0GCSqGSIb3DQEB
AQUAA4ICDwAwggIKAoICAQCojL7bhkPapFL/tdJWp4fddtcolVZ0nEAZfswnK2Bu
3EREXFhHtofIKKyWv9yDaOmjUX2fkKGc8iXg7YS8xNpqGPw5x+sBKKfHM23r9pBD
cJvbziqgvEl5zbyfiwiLKOMc2TOVaJpoL7MICVvTkLLWeHlvL8Lup4ahcoYxAnyS
b1Kgjk6hXqXUpmXBN9zkHAtPdqiLHK1Xup85mnSrNBVapFVbvvxlJhU4F3FA72Ks
Rh5gmd17t2z5yE2Z+GobjB6YlUyVrMb48YxFyDywgv13RsLO4BsPjx0HjJelozR8
ErRcwdxCw6pSe3mC0hxB3KODIQCJhoYiLhQZyjiHpYlJqWE58g5a/KStn4Aga7Io
LuqpS+SkqYSKCNe7YQ5CnkFRJJxtxRkhlAvXyV+fecfy44VBn4wCJRODTGN3C86+
uGVoPB2UftuCfeGfdl3B7Ih2haci7PW5qyTZkCHvwDnkKr402Kqn5SZRaDA5v/AJ
ADRJemeys3HGxcyPp/uXZgGgrfvXOTHfmJom8uSKfIGlvPnA57TxGHTUv20q/ptH
I6pRudwu1kWy1ppkwJt6j5KkvLm1Vtx0pg8ogXlfIQ9uPtX0xmabJs/b2th6uuUF
BOAfWn6gSKmLWxMcZTIBz6HSlAWihTw5OfQnFMgJarQRhyENYhyvHDx0JS0XOmNl
ywIDAQABo4IBYzCCAV8wCQYDVR0TBAIwADAtBglghkgBhvhCAQ0EIBYeRWFzeS1S
U0EgR2VuZXJhdGVkIENlcnRpZmljYXRlMB0GA1UdDgQWBBQbp+mO4kZrxOKzF7eb
sqPk+4BMKDCB4QYDVR0jBIHZMIHWgBQSzWAE0qCAnnDtxpm4eyzGUv0ZoaGBsqSB
rzCBrDELMAkGA1UEBhMCVVMxCzAJBgNVBAgTAk9IMREwDwYDVQQHEwhDb2x1bWJ1
czESMBAGA1UEChMJVmlraW5nVlBOMR0wGwYDVQQLExRNeU9yZ2FuaXphdGlvbmFs
VW5pdDEVMBMGA1UEAxMMVmlraW5nVlBOIENBMRAwDgYDVQQpEwdFYXN5UlNBMSEw
HwYJKoZIhvcNAQkBFhJtZUBteWhvc3QubXlkb21haW6CCQDPNYXugL8qPjATBgNV
HSUEDDAKBggrBgEFBQcDAjALBgNVHQ8EBAMCB4AwDQYJKoZIhvcNAQEEBQADggIB
ANI8Jqn1wg/UFJWI+Tml87bCCR7X+toxqZa0t26mYyVGMCcyaVfDyEJg8+NeGMUR
Tc0faFSTOihcoikFMzW4okPhqGkiJ5wJVcJ6O/S0+9i3hkLGwz/Kt2LxHnsCfkLZ
DMiItPo+XAH7pnhQnH1LpKF/r/bwJ5MG3B6Xl8PlxkHQnaBvOm+IVia6SNmIs+6h
I2/3aTjdqjAi45KykvEBnjpzi7pQF4Y6xoHTDrj2vXwv0i/wPamAg6QcBtiNzWtp
IDN3i3XnwIaN+0jZcBpl1th5BTK9EONFjgAXT61HDAYGAzzDiahFvpZ/3Q+sKa/j
GmW3I9BlIuTcpbWjuTvPcmitrx0pyIV4xE6w3eLimv0kejL6kB9I7Oqd3z6k3i9/
Yt3FGZ4P85Fq2yiNwyB4y9+hY6piFiTzyKQoUK0ZLnRoXEzUFOkJVQzOKXBUQicI
I2OHLn/1UMCsnu0oupMKaldmJRx693altOCypfOBlwiYuA8r+pMgCn+bn58XrlZr
/48sQl5E6sBlpoIwA1/WTYcT7/z/SQgUZ7eQdD3t8KFAwYkj0+XOu5uQsLIQVTyQ
OFCE6d0L5supbxnkiWhVJ2QfL9+C6D0ixcmXflJfTYrO+edabtRDTObnEfn9T2va
uc9O/kTijBmqQqw6FW4DtblPvJO1olls679uZyb+vzih
-----END CERTIFICATE-----
