Certificate:
    Data:
        Version: 3 (0x2)
        Serial Number: 6726 (0x1a46)
    Signature Algorithm: md5WithRSAEncryption
        Issuer: C=US, ST=OH, L=Columbus, O=VikingVPN, OU=MyOrganizationalUnit, CN=VikingVPN CA/name=EasyRSA/emailAddress=me@myhost.mydomain
        Validity
            Not Before: Nov 21 23:45:03 2015 GMT
            Not After : Nov 18 23:45:03 2025 GMT
        Subject: CN=Client1820Cert437b5a
        Subject Public Key Info:
            Public Key Algorithm: rsaEncryption
                Public-Key: (4096 bit)
                Modulus:
                    00:da:80:a0:bc:cc:08:36:7d:f9:99:48:a8:c3:61:
                    28:ec:89:e6:00:a2:08:82:d1:f4:f3:d7:ef:eb:0b:
                    ea:00:40:62:6f:26:53:84:bd:31:2d:9a:0b:d7:9b:
                    7b:79:fe:14:60:51:6b:b9:ea:d1:2d:6e:44:25:86:
                    62:c1:65:82:ac:a3:d7:7a:58:3c:45:02:f3:79:05:
                    e7:47:2c:a5:9d:33:ad:87:83:0a:5d:05:de:59:19:
                    8d:c4:ce:0c:7e:01:dd:7f:cc:ed:d9:c4:af:9c:4d:
                    57:b5:7d:cc:68:ac:b8:5f:77:b5:3c:95:1e:a1:c4:
                    a2:e3:5b:23:7b:e9:ab:5b:1f:95:d4:39:0c:af:1e:
                    21:6d:fa:50:57:6d:62:2a:2b:ae:52:80:2a:1b:62:
                    8a:fd:43:31:a6:fa:ef:fd:d9:6a:df:76:4b:69:48:
                    3d:94:45:ee:b7:df:bc:5f:37:fe:e9:6d:b8:55:b6:
                    66:eb:8c:96:11:c4:c7:1c:31:53:c8:2d:4a:07:5e:
                    a7:ac:b1:80:99:45:07:26:91:ed:55:2e:88:5c:c4:
                    fe:60:a4:a5:78:91:ec:33:c1:55:af:e0:63:ea:c5:
                    1a:d3:6b:f0:8e:b9:28:22:df:89:97:6a:3b:47:27:
                    50:43:83:6d:d5:1b:4c:3a:9a:a9:1a:ae:16:eb:6f:
                    00:e5:bf:6b:12:ac:ef:61:e5:9e:7d:a1:48:5c:17:
                    a6:4f:75:48:17:b2:da:6b:83:ff:d4:bc:21:70:1b:
                    1e:e3:6d:68:da:31:53:cd:d4:27:cd:25:73:62:57:
                    a8:b2:c8:20:bc:e4:f1:1c:e2:1d:4a:39:d4:e0:c1:
                    4c:b2:4e:e9:ac:f5:2f:02:95:47:65:af:78:bd:34:
                    61:b5:e5:a2:27:90:74:a1:5d:69:2f:48:03:fe:b5:
                    06:8c:a9:1c:10:98:7a:17:6c:f7:37:4c:1e:4e:35:
                    8a:ad:8e:36:b0:62:d3:e8:a7:84:25:55:8f:55:0d:
                    9b:83:3e:d0:49:47:30:1b:bb:ae:01:98:f0:bb:7e:
                    c4:08:f3:15:5b:5f:d5:bd:05:7b:67:e1:68:24:f2:
                    89:7f:fb:e0:ea:3b:f4:3f:9a:0e:28:00:06:2e:3f:
                    0c:0d:6f:c0:b0:8e:61:82:20:35:eb:18:e3:02:09:
                    2d:3f:53:a9:4c:fc:99:9e:b0:c7:39:1d:9c:44:84:
                    3e:7b:f9:34:c4:1d:37:c1:f3:be:55:07:20:d5:b9:
                    e6:84:50:b0:80:d6:a4:6d:50:98:d6:00:68:f0:83:
                    8b:92:aa:a1:fe:a0:ab:31:f4:a7:bf:6c:dd:50:95:
                    69:cd:d4:50:05:78:79:dc:17:24:b3:94:5c:ea:c6:
                    27:1f:c7
                Exponent: 65537 (0x10001)
        X509v3 extensions:
            X509v3 Basic Constraints: 
                CA:FALSE
            Netscape Comment: 
                Easy-RSA Generated Certificate
            X509v3 Subject Key Identifier: 
                54:36:09:50:3C:15:4E:F6:BC:41:08:BF:02:D0:6E:BA:54:69:E8:3E
            X509v3 Authority Key Identifier: 
                keyid:12:CD:60:04:D2:A0:80:9E:70:ED:C6:99:B8:7B:2C:C6:52:FD:19:A1
                DirName:/C=US/ST=OH/L=Columbus/O=VikingVPN/OU=MyOrganizationalUnit/CN=VikingVPN CA/name=EasyRSA/emailAddress=me@myhost.mydomain
                serial:CF:35:85:EE:80:BF:2A:3E

            X509v3 Extended Key Usage: 
                TLS Web Client Authentication
            X509v3 Key Usage: 
                Digital Signature
    Signature Algorithm: md5WithRSAEncryption
         54:07:09:07:dd:26:c4:53:6e:7a:0a:b1:87:f2:47:ce:77:55:
         81:75:66:69:e6:db:bf:36:f0:9c:f5:07:fb:33:11:52:00:8f:
         e7:91:41:b2:c7:ae:cc:13:06:d0:9d:a5:0d:c7:a5:ae:97:4d:
         79:6d:ff:da:4b:c1:e2:1e:bc:0b:fa:13:74:b4:22:10:bc:ef:
         07:a8:d1:7c:42:43:cd:98:90:3f:21:88:14:df:31:08:69:ef:
         b3:c3:52:2a:9c:61:50:98:3e:a4:fa:26:3b:21:02:b6:89:c5:
         e1:53:f6:5e:21:17:c6:bf:e5:5b:79:5b:b6:24:fd:c9:70:87:
         ef:4d:c3:4c:a6:0c:3d:f8:cb:3c:65:82:1f:4d:c7:b7:0e:44:
         98:db:51:3e:de:c1:fd:1d:e1:37:31:d8:0e:7e:73:72:96:a4:
         d6:14:df:33:46:3e:c3:c3:32:e3:0c:44:51:e4:a7:8f:da:cc:
         45:0f:b6:ae:21:dc:30:d0:59:6e:c9:09:75:4a:e1:b2:e7:b4:
         79:46:66:9f:cd:9e:61:57:58:e0:1d:54:1f:10:6a:59:c3:21:
         92:27:3f:42:c6:12:c8:c9:b7:12:2e:02:22:49:84:d1:2c:1a:
         53:1a:2f:63:1d:4c:8d:ce:85:c7:06:58:43:8c:c5:5b:88:3d:
         c7:97:2e:33:19:a1:a9:83:47:f9:f4:7a:16:e0:83:bf:e1:68:
         be:ac:b1:4a:ee:b1:b7:e5:cb:d0:b3:76:11:5e:c5:94:a2:b2:
         b2:c3:03:d1:ae:b8:e3:5f:5f:d6:5f:09:74:75:7a:78:1c:36:
         7b:ae:33:e2:cf:02:14:86:81:6d:83:c4:60:b9:37:0e:a4:d3:
         7b:8d:cc:44:e5:cb:af:2a:0d:d1:0f:f2:f6:df:6b:82:17:9c:
         06:34:c3:a5:be:10:05:1b:76:05:5b:a1:f6:cb:0e:8d:0f:b8:
         8d:02:4b:ca:fc:11:24:3a:21:78:98:7f:c5:8f:08:b6:39:df:
         d0:da:1a:a8:06:62:15:c6:f8:0b:4f:83:dd:55:14:80:92:0c:
         cd:c4:81:54:0e:1e:56:95:8c:37:b1:8d:0e:d1:a9:5c:b6:e8:
         3d:9b:8d:83:ea:c3:fc:1e:bc:02:f9:8f:f9:09:0f:67:26:ac:
         3b:07:eb:21:c5:f2:64:0a:d2:00:60:6d:3a:89:ba:f6:82:db:
         05:3a:be:46:9a:c7:af:77:6d:b5:37:e5:11:83:3d:31:f0:02:
         2b:df:7f:7d:67:1a:2e:a6:45:fb:9b:aa:58:d1:7c:12:b0:d1:
         56:f1:10:e3:74:ba:bd:7b:cc:2f:1b:20:68:20:d2:e5:9d:da:
         47:1f:1a:56:aa:22:49:62
-----BEGIN CERTIFICATE-----
MIIGrTCCBJWgAwIBAgICGkYwDQYJKoZIhvcNAQEEBQAwgawxCzAJBgNVBAYTAlVT
MQswCQYDVQQIEwJPSDERMA8GA1UEBxMIQ29sdW1idXMxEjAQBgNVBAoTCVZpa2lu
Z1ZQTjEdMBsGA1UECxMUTXlPcmdhbml6YXRpb25hbFVuaXQxFTATBgNVBAMTDFZp
a2luZ1ZQTiBDQTEQMA4GA1UEKRMHRWFzeVJTQTEhMB8GCSqGSIb3DQEJARYSbWVA
bXlob3N0Lm15ZG9tYWluMB4XDTE1MTEyMTIzNDUwM1oXDTI1MTExODIzNDUwM1ow
HzEdMBsGA1UEAxMUQ2xpZW50MTgyMENlcnQ0MzdiNWEwggIiMA0GCSqGSIb3DQEB
AQUAA4ICDwAwggIKAoICAQDagKC8zAg2ffmZSKjDYSjsieYAogiC0fTz1+/rC+oA
QGJvJlOEvTEtmgvXm3t5/hRgUWu56tEtbkQlhmLBZYKso9d6WDxFAvN5BedHLKWd
M62HgwpdBd5ZGY3Ezgx+Ad1/zO3ZxK+cTVe1fcxorLhfd7U8lR6hxKLjWyN76atb
H5XUOQyvHiFt+lBXbWIqK65SgCobYor9QzGm+u/92WrfdktpSD2URe6337xfN/7p
bbhVtmbrjJYRxMccMVPILUoHXqessYCZRQcmke1VLohcxP5gpKV4kewzwVWv4GPq
xRrTa/COuSgi34mXajtHJ1BDg23VG0w6mqkarhbrbwDlv2sSrO9h5Z59oUhcF6ZP
dUgXstprg//UvCFwGx7jbWjaMVPN1CfNJXNiV6iyyCC85PEc4h1KOdTgwUyyTums
9S8ClUdlr3i9NGG15aInkHShXWkvSAP+tQaMqRwQmHoXbPc3TB5ONYqtjjawYtPo
p4QlVY9VDZuDPtBJRzAbu64BmPC7fsQI8xVbX9W9BXtn4Wgk8ol/++DqO/Q/mg4o
AAYuPwwNb8CwjmGCIDXrGOMCCS0/U6lM/JmesMc5HZxEhD57+TTEHTfB875VByDV
ueaEULCA1qRtUJjWAGjwg4uSqqH+oKsx9Ke/bN1QlWnN1FAFeHncFySzlFzqxicf
xwIDAQABo4IBYzCCAV8wCQYDVR0TBAIwADAtBglghkgBhvhCAQ0EIBYeRWFzeS1S
U0EgR2VuZXJhdGVkIENlcnRpZmljYXRlMB0GA1UdDgQWBBRUNglQPBVO9rxBCL8C
0G66VGnoPjCB4QYDVR0jBIHZMIHWgBQSzWAE0qCAnnDtxpm4eyzGUv0ZoaGBsqSB
rzCBrDELMAkGA1UEBhMCVVMxCzAJBgNVBAgTAk9IMREwDwYDVQQHEwhDb2x1bWJ1
czESMBAGA1UEChMJVmlraW5nVlBOMR0wGwYDVQQLExRNeU9yZ2FuaXphdGlvbmFs
VW5pdDEVMBMGA1UEAxMMVmlraW5nVlBOIENBMRAwDgYDVQQpEwdFYXN5UlNBMSEw
HwYJKoZIhvcNAQkBFhJtZUBteWhvc3QubXlkb21haW6CCQDPNYXugL8qPjATBgNV
HSUEDDAKBggrBgEFBQcDAjALBgNVHQ8EBAMCB4AwDQYJKoZIhvcNAQEEBQADggIB
AFQHCQfdJsRTbnoKsYfyR853VYF1Zmnm27828Jz1B/szEVIAj+eRQbLHrswTBtCd
pQ3Hpa6XTXlt/9pLweIevAv6E3S0IhC87weo0XxCQ82YkD8hiBTfMQhp77PDUiqc
YVCYPqT6JjshAraJxeFT9l4hF8a/5Vt5W7Yk/clwh+9Nw0ymDD34yzxlgh9Nx7cO
RJjbUT7ewf0d4Tcx2A5+c3KWpNYU3zNGPsPDMuMMRFHkp4/azEUPtq4h3DDQWW7J
CXVK4bLntHlGZp/NnmFXWOAdVB8QalnDIZInP0LGEsjJtxIuAiJJhNEsGlMaL2Md
TI3OhccGWEOMxVuIPceXLjMZoamDR/n0ehbgg7/haL6ssUrusbfly9CzdhFexZSi
srLDA9GuuONfX9ZfCXR1engcNnuuM+LPAhSGgW2DxGC5Nw6k03uNzETly68qDdEP
8vbfa4IXnAY0w6W+EAUbdgVbofbLDo0PuI0CS8r8ESQ6IXiYf8WPCLY539DaGqgG
YhXG+AtPg91VFICSDM3EgVQOHlaVjDexjQ7RqVy26D2bjYPqw/wevAL5j/kJD2cm
rDsH6yHF8mQK0gBgbTqJuvaC2wU6vkaax693bbU35RGDPTHwAivff31nGi6mRfub
qljRfBKw0VbxEON0ur17zC8bIGgg0uWd2kcfGlaqIkli
-----END CERTIFICATE-----
