Certificate:
    Data:
        Version: 3 (0x2)
        Serial Number: 6742 (0x1a56)
    Signature Algorithm: md5WithRSAEncryption
        Issuer: C=US, ST=OH, L=Columbus, O=VikingVPN, OU=MyOrganizationalUnit, CN=VikingVPN CA/name=EasyRSA/emailAddress=me@myhost.mydomain
        Validity
            Not Before: Nov 25 07:11:02 2015 GMT
            Not After : Nov 22 07:11:02 2025 GMT
        Subject: CN=Client1675Cert098d18
        Subject Public Key Info:
            Public Key Algorithm: rsaEncryption
                Public-Key: (4096 bit)
                Modulus:
                    00:af:3e:6f:36:40:b1:65:6c:a3:5f:73:e4:ac:7f:
                    dd:4c:2c:6c:f6:0c:39:d5:46:e2:c9:af:a3:cd:12:
                    4d:34:28:63:03:74:b4:09:5d:dd:5e:57:12:cc:06:
                    e5:0a:91:3c:35:d1:0e:65:8a:80:40:ee:c0:1e:ad:
                    74:9f:34:68:e7:80:a5:71:d6:db:6d:74:68:8c:85:
                    d6:fb:da:ab:ba:f3:7a:3f:1e:4c:e8:00:f7:69:27:
                    6d:c3:eb:66:53:a9:eb:9f:e0:63:44:95:5f:1f:e1:
                    57:d9:0f:27:34:a8:bc:69:74:72:b4:0a:7a:11:14:
                    0e:13:16:28:c9:ae:74:e1:ab:fd:4d:5c:ea:1f:61:
                    05:a4:13:70:c8:13:aa:7d:74:91:e2:60:09:d2:96:
                    a2:f7:6e:14:e3:15:3b:12:23:62:48:29:c3:96:f0:
                    83:f0:a0:1a:a5:d2:ab:6e:1d:56:b3:54:82:e0:a0:
                    48:cc:83:7d:5e:80:88:e9:11:ab:f1:dd:b0:f9:79:
                    29:b6:1f:5e:fa:22:01:43:92:c6:68:da:a8:14:de:
                    70:13:4a:37:8c:0e:7d:ce:af:a3:6f:07:68:64:a1:
                    7b:6b:f7:74:51:49:cb:38:59:fe:de:14:01:fa:f7:
                    51:91:04:46:3f:29:6b:70:f2:50:bf:50:7c:dd:65:
                    71:b8:8c:a0:f8:ee:be:85:86:0b:29:5f:ab:87:72:
                    8e:ea:e2:d2:51:55:81:93:dc:8f:e8:f0:40:4a:9b:
                    04:8f:a5:1c:6e:3f:85:2b:0e:c3:c1:32:c5:71:62:
                    71:b4:db:b3:ef:2f:6c:91:f1:48:e0:58:60:05:9b:
                    6c:97:41:4f:65:59:73:90:8f:1f:36:55:57:c8:53:
                    20:f2:c7:8b:90:51:92:c8:33:8e:b2:6e:7d:df:3b:
                    ac:8c:2b:0e:07:5b:a1:38:28:2d:55:ec:6b:3c:40:
                    d3:f9:82:58:d0:a8:97:37:b2:11:d3:68:8a:00:fa:
                    d2:90:5b:d0:10:a8:7e:4b:ca:fe:59:fb:8c:ab:ed:
                    64:26:58:c0:7f:2c:bb:7d:07:e6:d1:8b:ca:31:a4:
                    53:da:26:b1:b7:36:07:df:15:96:5a:01:59:98:55:
                    44:52:81:9c:04:7e:3c:af:5f:a6:85:d8:28:9b:80:
                    3a:da:74:4f:58:89:3b:6e:9b:e7:cb:38:88:0d:4b:
                    5a:4a:2a:c7:15:46:52:41:85:7f:65:a1:45:48:5a:
                    0b:09:fe:f4:90:86:f4:6b:b9:78:8c:be:17:bc:40:
                    c7:43:6e:c9:23:54:df:88:37:c5:89:0e:f2:36:ba:
                    8c:6d:28:57:02:56:68:9c:1a:98:3d:1d:a6:18:fc:
                    2a:8c:ff
                Exponent: 65537 (0x10001)
        X509v3 extensions:
            X509v3 Basic Constraints: 
                CA:FALSE
            Netscape Comment: 
                Easy-RSA Generated Certificate
            X509v3 Subject Key Identifier: 
                18:9B:81:29:F8:BF:82:B5:6D:32:3C:CC:46:10:36:20:81:AF:4F:D7
            X509v3 Authority Key Identifier: 
                keyid:12:CD:60:04:D2:A0:80:9E:70:ED:C6:99:B8:7B:2C:C6:52:FD:19:A1
                DirName:/C=US/ST=OH/L=Columbus/O=VikingVPN/OU=MyOrganizationalUnit/CN=VikingVPN CA/name=EasyRSA/emailAddress=me@myhost.mydomain
                serial:CF:35:85:EE:80:BF:2A:3E

            X509v3 Extended Key Usage: 
                TLS Web Client Authentication
            X509v3 Key Usage: 
                Digital Signature
    Signature Algorithm: md5WithRSAEncryption
         a5:fe:69:02:77:30:23:40:d0:7c:e3:64:b9:00:44:b5:3e:86:
         67:32:3d:d7:b8:23:54:32:ea:34:27:f2:c4:a8:28:46:f8:16:
         a7:11:a6:e7:53:70:b8:1b:23:58:d6:0e:47:50:6e:7d:89:3c:
         53:17:b1:8c:0c:ad:a6:87:49:f0:24:27:3f:ee:9a:0d:50:b0:
         34:58:a0:29:dd:08:a1:b3:6d:16:45:c3:8a:0b:f9:6b:01:3f:
         f7:36:e6:d1:4c:2a:d0:76:ee:83:d0:e3:01:00:00:37:29:11:
         64:b7:3f:12:03:ef:80:d2:b1:16:0e:35:11:cb:eb:24:d5:d4:
         d1:54:f9:f6:c8:e1:32:32:50:da:52:e8:70:91:0b:53:05:c5:
         45:6e:0b:2e:91:ed:df:b8:be:94:fa:26:21:2a:dc:e3:be:23:
         31:51:26:95:bb:7a:4e:52:55:c0:8b:93:a1:09:01:da:5a:4b:
         8d:9f:21:63:32:02:50:0f:a6:f7:29:f5:13:8f:b6:18:be:f4:
         90:6a:78:a8:7b:16:00:59:ca:ed:fb:39:74:47:c7:e5:42:ae:
         3e:ff:f4:7e:fd:28:66:c1:41:57:b6:41:16:1c:5e:94:c4:d8:
         01:e3:c7:85:26:2f:c3:5e:51:26:9e:1d:51:ff:31:9f:de:ff:
         67:d7:48:ed:4a:69:cd:11:16:dd:0b:86:50:2a:75:cc:4d:e7:
         74:29:1f:0b:40:f5:47:f0:63:b0:4b:4a:37:d7:69:58:f4:fa:
         2f:6a:e5:89:f1:02:3f:55:f7:ef:4c:fe:2a:74:cb:32:b5:1e:
         0e:dd:ad:d2:40:a8:08:64:9c:6d:28:08:2c:95:ad:1c:65:78:
         b9:f0:00:3b:f7:6f:73:a4:59:27:dc:da:40:c0:40:41:d1:ca:
         e9:b7:a4:d9:05:c7:c7:97:13:48:48:80:81:13:f1:b5:5c:8a:
         1d:3b:78:4c:49:c8:dd:06:7a:d9:e3:28:b0:69:33:a8:7e:cb:
         fc:81:15:29:f8:3e:a5:0f:b8:b2:8f:eb:a2:69:65:93:23:ff:
         f4:00:64:7d:9a:5b:32:e6:46:8f:9e:82:da:73:83:e6:b1:84:
         ba:45:6c:98:f9:d4:f6:93:f8:d6:ec:b9:fe:32:12:be:c7:7a:
         2c:11:e2:5f:91:f0:00:2e:13:ac:62:54:82:f0:6a:91:95:f5:
         d5:7c:c3:c3:66:b1:ab:8f:ef:e2:5e:56:0f:66:b1:d6:ba:9d:
         1d:ad:6a:47:15:7e:f2:58:ed:92:03:fb:3b:39:8b:88:07:94:
         ea:46:d5:ff:56:2f:b4:62:03:b4:7c:e8:46:67:96:c3:57:38:
         b9:74:48:da:8a:fc:59:42
-----BEGIN CERTIFICATE-----
MIIGrTCCBJWgAwIBAgICGlYwDQYJKoZIhvcNAQEEBQAwgawxCzAJBgNVBAYTAlVT
MQswCQYDVQQIEwJPSDERMA8GA1UEBxMIQ29sdW1idXMxEjAQBgNVBAoTCVZpa2lu
Z1ZQTjEdMBsGA1UECxMUTXlPcmdhbml6YXRpb25hbFVuaXQxFTATBgNVBAMTDFZp
a2luZ1ZQTiBDQTEQMA4GA1UEKRMHRWFzeVJTQTEhMB8GCSqGSIb3DQEJARYSbWVA
bXlob3N0Lm15ZG9tYWluMB4XDTE1MTEyNTA3MTEwMloXDTI1MTEyMjA3MTEwMlow
HzEdMBsGA1UEAxMUQ2xpZW50MTY3NUNlcnQwOThkMTgwggIiMA0GCSqGSIb3DQEB
AQUAA4ICDwAwggIKAoICAQCvPm82QLFlbKNfc+Ssf91MLGz2DDnVRuLJr6PNEk00
KGMDdLQJXd1eVxLMBuUKkTw10Q5lioBA7sAerXSfNGjngKVx1tttdGiMhdb72qu6
83o/HkzoAPdpJ23D62ZTqeuf4GNElV8f4VfZDyc0qLxpdHK0CnoRFA4TFijJrnTh
q/1NXOofYQWkE3DIE6p9dJHiYAnSlqL3bhTjFTsSI2JIKcOW8IPwoBql0qtuHVaz
VILgoEjMg31egIjpEavx3bD5eSm2H176IgFDksZo2qgU3nATSjeMDn3Or6NvB2hk
oXtr93RRScs4Wf7eFAH691GRBEY/KWtw8lC/UHzdZXG4jKD47r6FhgspX6uHco7q
4tJRVYGT3I/o8EBKmwSPpRxuP4UrDsPBMsVxYnG027PvL2yR8UjgWGAFm2yXQU9l
WXOQjx82VVfIUyDyx4uQUZLIM46ybn3fO6yMKw4HW6E4KC1V7Gs8QNP5gljQqJc3
shHTaIoA+tKQW9AQqH5Lyv5Z+4yr7WQmWMB/LLt9B+bRi8oxpFPaJrG3NgffFZZa
AVmYVURSgZwEfjyvX6aF2CibgDradE9YiTtum+fLOIgNS1pKKscVRlJBhX9loUVI
WgsJ/vSQhvRruXiMvhe8QMdDbskjVN+IN8WJDvI2uoxtKFcCVmicGpg9HaYY/CqM
/wIDAQABo4IBYzCCAV8wCQYDVR0TBAIwADAtBglghkgBhvhCAQ0EIBYeRWFzeS1S
U0EgR2VuZXJhdGVkIENlcnRpZmljYXRlMB0GA1UdDgQWBBQYm4Ep+L+CtW0yPMxG
EDYgga9P1zCB4QYDVR0jBIHZMIHWgBQSzWAE0qCAnnDtxpm4eyzGUv0ZoaGBsqSB
rzCBrDELMAkGA1UEBhMCVVMxCzAJBgNVBAgTAk9IMREwDwYDVQQHEwhDb2x1bWJ1
czESMBAGA1UEChMJVmlraW5nVlBOMR0wGwYDVQQLExRNeU9yZ2FuaXphdGlvbmFs
VW5pdDEVMBMGA1UEAxMMVmlraW5nVlBOIENBMRAwDgYDVQQpEwdFYXN5UlNBMSEw
HwYJKoZIhvcNAQkBFhJtZUBteWhvc3QubXlkb21haW6CCQDPNYXugL8qPjATBgNV
HSUEDDAKBggrBgEFBQcDAjALBgNVHQ8EBAMCB4AwDQYJKoZIhvcNAQEEBQADggIB
AKX+aQJ3MCNA0HzjZLkARLU+hmcyPde4I1Qy6jQn8sSoKEb4FqcRpudTcLgbI1jW
DkdQbn2JPFMXsYwMraaHSfAkJz/umg1QsDRYoCndCKGzbRZFw4oL+WsBP/c25tFM
KtB27oPQ4wEAADcpEWS3PxID74DSsRYONRHL6yTV1NFU+fbI4TIyUNpS6HCRC1MF
xUVuCy6R7d+4vpT6JiEq3OO+IzFRJpW7ek5SVcCLk6EJAdpaS42fIWMyAlAPpvcp
9ROPthi+9JBqeKh7FgBZyu37OXRHx+VCrj7/9H79KGbBQVe2QRYcXpTE2AHjx4Um
L8NeUSaeHVH/MZ/e/2fXSO1Kac0RFt0LhlAqdcxN53QpHwtA9UfwY7BLSjfXaVj0
+i9q5YnxAj9V9+9M/ip0yzK1Hg7drdJAqAhknG0oCCyVrRxleLnwADv3b3OkWSfc
2kDAQEHRyum3pNkFx8eXE0hIgIET8bVcih07eExJyN0GetnjKLBpM6h+y/yBFSn4
PqUPuLKP66JpZZMj//QAZH2aWzLmRo+egtpzg+axhLpFbJj51PaT+Nbsuf4yEr7H
eiwR4l+R8AAuE6xiVILwapGV9dV8w8NmsauP7+JeVg9msda6nR2takcVfvJY7ZID
+zs5i4gHlOpG1f9WL7RiA7R86EZnlsNXOLl0SNqK/FlC
-----END CERTIFICATE-----
