Certificate:
    Data:
        Version: 3 (0x2)
        Serial Number: 6747 (0x1a5b)
    Signature Algorithm: md5WithRSAEncryption
        Issuer: C=US, ST=OH, L=Columbus, O=VikingVPN, OU=MyOrganizationalUnit, CN=VikingVPN CA/name=EasyRSA/emailAddress=me@myhost.mydomain
        Validity
            Not Before: Nov 25 19:55:56 2015 GMT
            Not After : Nov 22 19:55:56 2025 GMT
        Subject: CN=Client2019Certda48ce
        Subject Public Key Info:
            Public Key Algorithm: rsaEncryption
                Public-Key: (4096 bit)
                Modulus:
                    00:b5:75:b7:4b:86:57:dc:19:3c:b7:0f:59:78:ee:
                    e8:81:e9:b5:8f:6b:d1:24:a6:9e:03:95:60:e8:ef:
                    99:53:23:72:59:45:8a:4a:6c:3e:1b:e3:00:37:ac:
                    6f:2c:c8:e3:2f:ec:d2:14:f1:84:b6:bf:ff:a0:de:
                    4e:a9:dc:d7:50:25:40:01:e5:5e:46:c8:64:cf:28:
                    1c:89:f0:0d:9f:44:42:b6:9d:05:5c:11:f8:a4:c0:
                    9b:3d:5b:ad:c9:97:78:c9:6b:61:4d:55:f6:6e:1b:
                    55:92:7b:6e:53:ed:e0:d3:cf:ce:1d:8b:bc:45:fb:
                    2a:c1:ea:fa:24:45:a3:95:e7:cd:87:12:62:57:e4:
                    24:59:b6:09:be:70:7d:17:5d:39:49:ce:25:bc:4a:
                    74:d4:36:25:7e:50:a1:f8:35:31:3c:86:d1:a3:cf:
                    f7:50:16:d0:25:c9:a1:1d:c6:a2:e6:f9:77:9c:2a:
                    b0:8c:2a:39:c2:dd:e4:d2:30:07:e1:3c:61:c4:0a:
                    51:6e:ab:b7:63:66:c0:86:83:5c:3e:34:52:43:7d:
                    17:09:43:31:1b:7e:bb:01:cb:0f:0d:e6:66:92:64:
                    37:d6:4e:e8:81:97:4a:6f:38:2e:35:77:59:0b:18:
                    de:a6:e3:fb:ac:e5:29:bf:5a:41:b8:c0:4f:1a:5a:
                    8e:32:13:9b:89:05:57:58:b8:01:63:7a:1b:7d:ef:
                    13:11:69:70:d1:b0:bc:bc:ba:d2:a1:19:23:8b:c2:
                    b1:3d:fb:fb:d6:2f:5e:21:9e:7d:0b:75:ec:a0:4c:
                    cd:bd:fd:ba:96:93:69:5d:1b:18:8b:1c:2f:21:83:
                    3c:71:51:bd:ef:73:74:4d:39:cd:7d:52:de:ae:3a:
                    96:ae:1a:bf:9d:36:32:8d:ee:3b:48:19:c9:73:f8:
                    c3:ac:36:c4:ac:c8:c9:bd:9b:de:74:2a:3f:1a:cc:
                    ba:84:e9:39:3a:65:23:55:ee:29:d1:f5:f3:70:f5:
                    d5:04:81:f0:32:0e:56:75:82:9f:b8:b7:72:08:78:
                    49:0d:39:b1:39:82:77:02:6a:7d:30:cc:d7:2b:91:
                    42:22:7b:51:14:62:a7:5d:04:43:ff:6a:b7:10:1e:
                    f7:85:bc:1d:a3:f1:fa:e8:c4:2f:3b:b1:8b:d6:29:
                    e6:f6:bf:49:00:8d:7d:6c:f2:64:07:34:b6:40:a0:
                    b3:5a:ef:f4:05:ae:07:39:5c:f8:96:72:53:2a:13:
                    6b:0e:f5:98:4e:93:45:5d:38:54:65:5f:5e:58:f5:
                    da:5c:a4:93:ae:38:77:df:4e:4e:ef:b4:be:5b:c7:
                    89:bc:2c:34:db:5c:4d:86:94:66:00:38:c4:e6:e1:
                    b9:18:37
                Exponent: 65537 (0x10001)
        X509v3 extensions:
            X509v3 Basic Constraints: 
                CA:FALSE
            Netscape Comment: 
                Easy-RSA Generated Certificate
            X509v3 Subject Key Identifier: 
                14:04:A2:44:58:9E:73:05:78:AD:19:9D:5C:1C:38:23:C8:65:CF:C3
            X509v3 Authority Key Identifier: 
                keyid:12:CD:60:04:D2:A0:80:9E:70:ED:C6:99:B8:7B:2C:C6:52:FD:19:A1
                DirName:/C=US/ST=OH/L=Columbus/O=VikingVPN/OU=MyOrganizationalUnit/CN=VikingVPN CA/name=EasyRSA/emailAddress=me@myhost.mydomain
                serial:CF:35:85:EE:80:BF:2A:3E

            X509v3 Extended Key Usage: 
                TLS Web Client Authentication
            X509v3 Key Usage: 
                Digital Signature
    Signature Algorithm: md5WithRSAEncryption
         d9:b8:95:af:a4:85:e0:3c:55:85:62:02:d8:4a:10:26:d4:d1:
         bb:b2:44:87:f1:a4:77:fb:fa:9c:f7:29:85:19:15:80:4d:f5:
         88:da:4b:1e:4f:2b:86:39:55:bd:0c:33:e8:d0:f4:95:46:2d:
         90:8e:ce:d8:6d:23:15:c4:01:72:de:e0:10:6b:58:e7:e9:20:
         ae:92:71:e7:b7:f3:2f:7f:9d:24:61:6e:43:22:d2:38:ed:f7:
         9c:9c:92:74:9e:9f:61:64:d5:49:6f:fa:9f:17:f8:54:43:53:
         cb:01:fd:33:f2:7b:aa:a8:c4:be:aa:12:84:9c:39:54:f5:29:
         a6:ed:e2:93:47:9a:f2:04:86:ec:c3:89:48:92:07:77:69:ff:
         11:20:c2:6c:0f:79:69:95:99:2e:e8:83:3d:a4:00:b6:a4:e8:
         0f:4e:62:2e:52:5a:90:fe:57:37:78:2d:d6:d8:7e:19:0e:75:
         da:b7:0b:a6:71:84:c8:20:df:8d:86:3b:2f:a0:e5:19:32:82:
         20:ee:cc:b8:55:eb:87:6b:c3:0f:05:f6:a4:ed:4a:83:35:a8:
         9e:d3:f8:af:99:8a:01:dd:7d:de:3e:c6:c3:f5:c1:94:c3:3d:
         fa:64:3b:16:6a:2a:df:cc:24:d3:02:8b:30:d6:8d:a0:35:f5:
         40:77:85:6f:83:59:7d:ca:41:b2:4f:5a:1a:36:86:81:ef:10:
         6f:03:69:24:27:4f:eb:f5:55:49:42:87:7b:8a:a7:26:cb:ca:
         72:19:55:48:fa:86:a8:a1:92:cd:03:20:be:22:29:5e:87:e2:
         bb:bf:cb:78:e9:7a:26:d7:45:09:94:2e:65:6a:92:87:f4:85:
         71:b4:b5:47:b6:db:89:f7:48:4b:45:20:45:1a:03:fa:1d:28:
         20:a3:80:59:63:42:61:d5:ec:d3:95:e4:cc:c5:98:98:c0:9a:
         71:a0:53:55:de:b5:fd:c6:e9:24:8c:77:70:f7:0b:9b:68:d1:
         33:59:1b:43:60:8e:09:73:78:f0:7f:7c:f1:88:0f:fd:67:88:
         ee:0f:2f:ca:83:00:dc:b6:fc:f2:ed:08:cd:d8:e7:d3:80:cf:
         34:b0:ca:77:59:33:fc:a0:5c:16:53:18:57:e5:c1:81:33:2f:
         66:30:00:fe:5d:1e:56:27:7a:38:40:e4:ff:5f:5b:02:68:14:
         2c:e1:4c:ea:77:b9:89:fc:96:6d:ba:b6:b2:ce:93:7c:33:72:
         03:0d:9a:07:60:78:32:1a:61:2e:96:d3:bf:2c:b9:d7:ff:11:
         b4:eb:9d:fb:04:bf:4c:6e:8b:1a:83:0c:4e:20:fc:6f:c5:95:
         9c:0f:62:e1:15:cc:d2:fa
-----BEGIN CERTIFICATE-----
MIIGrTCCBJWgAwIBAgICGlswDQYJKoZIhvcNAQEEBQAwgawxCzAJBgNVBAYTAlVT
MQswCQYDVQQIEwJPSDERMA8GA1UEBxMIQ29sdW1idXMxEjAQBgNVBAoTCVZpa2lu
Z1ZQTjEdMBsGA1UECxMUTXlPcmdhbml6YXRpb25hbFVuaXQxFTATBgNVBAMTDFZp
a2luZ1ZQTiBDQTEQMA4GA1UEKRMHRWFzeVJTQTEhMB8GCSqGSIb3DQEJARYSbWVA
bXlob3N0Lm15ZG9tYWluMB4XDTE1MTEyNTE5NTU1NloXDTI1MTEyMjE5NTU1Nlow
HzEdMBsGA1UEAxMUQ2xpZW50MjAxOUNlcnRkYTQ4Y2UwggIiMA0GCSqGSIb3DQEB
AQUAA4ICDwAwggIKAoICAQC1dbdLhlfcGTy3D1l47uiB6bWPa9Ekpp4DlWDo75lT
I3JZRYpKbD4b4wA3rG8syOMv7NIU8YS2v/+g3k6p3NdQJUAB5V5GyGTPKByJ8A2f
REK2nQVcEfikwJs9W63Jl3jJa2FNVfZuG1WSe25T7eDTz84di7xF+yrB6vokRaOV
582HEmJX5CRZtgm+cH0XXTlJziW8SnTUNiV+UKH4NTE8htGjz/dQFtAlyaEdxqLm
+XecKrCMKjnC3eTSMAfhPGHEClFuq7djZsCGg1w+NFJDfRcJQzEbfrsByw8N5maS
ZDfWTuiBl0pvOC41d1kLGN6m4/us5Sm/WkG4wE8aWo4yE5uJBVdYuAFjeht97xMR
aXDRsLy8utKhGSOLwrE9+/vWL14hnn0LdeygTM29/bqWk2ldGxiLHC8hgzxxUb3v
c3RNOc19Ut6uOpauGr+dNjKN7jtIGclz+MOsNsSsyMm9m950Kj8azLqE6Tk6ZSNV
7inR9fNw9dUEgfAyDlZ1gp+4t3IIeEkNObE5gncCan0wzNcrkUIie1EUYqddBEP/
arcQHveFvB2j8froxC87sYvWKeb2v0kAjX1s8mQHNLZAoLNa7/QFrgc5XPiWclMq
E2sO9ZhOk0VdOFRlX15Y9dpcpJOuOHffTk7vtL5bx4m8LDTbXE2GlGYAOMTm4bkY
NwIDAQABo4IBYzCCAV8wCQYDVR0TBAIwADAtBglghkgBhvhCAQ0EIBYeRWFzeS1S
U0EgR2VuZXJhdGVkIENlcnRpZmljYXRlMB0GA1UdDgQWBBQUBKJEWJ5zBXitGZ1c
HDgjyGXPwzCB4QYDVR0jBIHZMIHWgBQSzWAE0qCAnnDtxpm4eyzGUv0ZoaGBsqSB
rzCBrDELMAkGA1UEBhMCVVMxCzAJBgNVBAgTAk9IMREwDwYDVQQHEwhDb2x1bWJ1
czESMBAGA1UEChMJVmlraW5nVlBOMR0wGwYDVQQLExRNeU9yZ2FuaXphdGlvbmFs
VW5pdDEVMBMGA1UEAxMMVmlraW5nVlBOIENBMRAwDgYDVQQpEwdFYXN5UlNBMSEw
HwYJKoZIhvcNAQkBFhJtZUBteWhvc3QubXlkb21haW6CCQDPNYXugL8qPjATBgNV
HSUEDDAKBggrBgEFBQcDAjALBgNVHQ8EBAMCB4AwDQYJKoZIhvcNAQEEBQADggIB
ANm4la+kheA8VYViAthKECbU0buyRIfxpHf7+pz3KYUZFYBN9YjaSx5PK4Y5Vb0M
M+jQ9JVGLZCOzthtIxXEAXLe4BBrWOfpIK6Scee38y9/nSRhbkMi0jjt95ycknSe
n2Fk1Ulv+p8X+FRDU8sB/TPye6qoxL6qEoScOVT1Kabt4pNHmvIEhuzDiUiSB3dp
/xEgwmwPeWmVmS7ogz2kALak6A9OYi5SWpD+Vzd4LdbYfhkOddq3C6ZxhMgg342G
Oy+g5RkygiDuzLhV64drww8F9qTtSoM1qJ7T+K+ZigHdfd4+xsP1wZTDPfpkOxZq
Kt/MJNMCizDWjaA19UB3hW+DWX3KQbJPWho2hoHvEG8DaSQnT+v1VUlCh3uKpybL
ynIZVUj6hqihks0DIL4iKV6H4ru/y3jpeibXRQmULmVqkof0hXG0tUe224n3SEtF
IEUaA/odKCCjgFljQmHV7NOV5MzFmJjAmnGgU1Xetf3G6SSMd3D3C5to0TNZG0Ng
jglzePB/fPGID/1niO4PL8qDANy2/PLtCM3Y59OAzzSwyndZM/ygXBZTGFflwYEz
L2YwAP5dHlYnejhA5P9fWwJoFCzhTOp3uYn8lm26trLOk3wzcgMNmgdgeDIaYS6W
078sudf/EbTrnfsEv0xuixqDDE4g/G/FlZwPYuEVzNL6
-----END CERTIFICATE-----
