Certificate:
    Data:
        Version: 3 (0x2)
        Serial Number: 6794 (0x1a8a)
    Signature Algorithm: md5WithRSAEncryption
        Issuer: C=US, ST=OH, L=Columbus, O=VikingVPN, OU=MyOrganizationalUnit, CN=VikingVPN CA/name=EasyRSA/emailAddress=me@myhost.mydomain
        Validity
            Not Before: Nov 28 03:07:30 2015 GMT
            Not After : Nov 25 03:07:30 2025 GMT
        Subject: CN=Client2077Certdafc97
        Subject Public Key Info:
            Public Key Algorithm: rsaEncryption
                Public-Key: (4096 bit)
                Modulus:
                    00:c7:47:a9:3f:4c:5f:00:2a:4b:08:12:9a:88:cf:
                    e6:5f:e0:28:98:64:86:19:39:97:f2:33:df:42:87:
                    08:62:a5:e1:30:9f:10:52:f7:d0:49:54:c8:cd:b6:
                    74:9f:c3:26:a5:ba:c6:9f:9b:9b:6d:2f:8c:7e:5e:
                    7c:ac:f5:6c:8c:dc:97:37:b5:ad:cf:5a:6c:8d:79:
                    22:79:c3:23:f4:85:47:49:bb:fb:3e:02:05:53:60:
                    9d:ae:5a:10:9c:a0:13:44:69:c2:04:af:26:05:35:
                    d7:e5:9f:13:1f:96:77:b5:99:17:3f:dc:26:52:32:
                    1c:b4:0b:6a:5c:81:4e:66:80:2f:41:62:15:f2:7a:
                    2b:64:99:4a:85:06:93:fa:44:20:37:9b:be:a2:c7:
                    cf:bd:8f:6b:be:3b:e5:1c:4f:13:71:33:75:52:9d:
                    51:56:8c:7e:32:9e:21:49:22:62:fb:eb:7c:e9:40:
                    a7:de:08:77:41:2c:82:1c:a3:33:4b:45:08:01:79:
                    a4:7a:6d:49:79:ec:ef:74:3b:7b:4a:df:f8:8a:17:
                    2f:76:3f:6b:32:bc:10:23:e9:5b:6b:17:0f:7c:4a:
                    72:9a:e9:ce:a6:e3:a1:9f:85:69:42:13:66:aa:28:
                    01:4e:31:1a:a6:8a:d3:7e:85:b2:08:10:66:b1:e9:
                    05:2b:b4:73:b5:87:35:a3:1d:af:19:08:20:46:85:
                    06:14:95:10:fe:06:c6:45:41:b2:7b:b9:a6:fd:0f:
                    e4:f4:00:e8:fb:7c:8e:f1:3c:dc:3b:a0:28:90:8d:
                    56:fe:51:36:ef:02:06:98:75:5d:35:db:8b:45:a2:
                    28:7b:fc:41:7f:c2:4b:43:50:a8:38:55:41:77:9f:
                    94:73:97:5f:f4:88:a2:00:fb:fa:4f:a1:2c:65:e9:
                    ff:39:76:06:b9:61:9d:a2:59:66:ac:08:65:b9:35:
                    00:0e:5d:76:ad:b2:65:b3:71:70:bb:16:bc:e1:5e:
                    8d:6e:f1:26:1c:a2:11:e1:ab:66:8e:f1:ad:18:01:
                    c7:1b:23:0f:24:78:f9:b8:59:34:e6:f7:67:92:89:
                    8c:41:34:b8:0a:34:ae:fd:37:33:d4:6a:f3:6c:c6:
                    67:4b:09:59:15:79:04:02:43:b4:79:ca:df:36:d8:
                    88:ab:86:97:17:d8:5d:58:39:88:9e:b4:23:9d:c6:
                    14:c8:fd:eb:d7:71:d1:28:14:6b:64:40:0e:ce:36:
                    71:d2:a5:0f:6b:92:cc:2f:e3:4b:a4:e9:70:0f:be:
                    7d:bb:4d:7f:b0:79:cd:32:b6:57:fe:e8:4e:a8:88:
                    67:84:e4:51:4e:c5:58:24:bd:30:3f:54:8d:fc:86:
                    52:ef:b5
                Exponent: 65537 (0x10001)
        X509v3 extensions:
            X509v3 Basic Constraints: 
                CA:FALSE
            Netscape Comment: 
                Easy-RSA Generated Certificate
            X509v3 Subject Key Identifier: 
                BF:6D:1F:58:1B:4B:36:78:75:93:9A:98:14:A9:94:D7:34:DF:7A:B3
            X509v3 Authority Key Identifier: 
                keyid:12:CD:60:04:D2:A0:80:9E:70:ED:C6:99:B8:7B:2C:C6:52:FD:19:A1
                DirName:/C=US/ST=OH/L=Columbus/O=VikingVPN/OU=MyOrganizationalUnit/CN=VikingVPN CA/name=EasyRSA/emailAddress=me@myhost.mydomain
                serial:CF:35:85:EE:80:BF:2A:3E

            X509v3 Extended Key Usage: 
                TLS Web Client Authentication
            X509v3 Key Usage: 
                Digital Signature
    Signature Algorithm: md5WithRSAEncryption
         e5:9d:fc:77:9f:9e:d9:2e:11:5a:3a:21:83:0f:23:ba:4d:9c:
         22:21:8b:1d:86:fb:89:f8:03:ea:e5:97:e5:04:92:35:3c:90:
         90:86:a1:0e:68:8d:c4:d5:25:d1:05:4f:55:5a:0e:f6:dd:a1:
         d1:e7:9b:ce:d3:ca:64:37:b8:4e:9f:6c:00:d7:bf:2c:b5:0f:
         48:5c:13:bf:14:87:65:8f:b7:1f:fb:7d:a6:7e:88:c0:fc:7c:
         75:af:60:87:16:49:06:3b:c5:c0:b2:9e:67:f1:3b:84:f0:3b:
         70:ad:e5:d8:cb:82:0b:43:71:76:66:64:bb:7d:a5:18:4e:b8:
         b1:c3:1c:3d:44:d6:fa:a8:91:6a:05:a4:e3:3d:ea:7f:df:56:
         a7:1d:73:2e:0a:82:67:5e:b4:63:7f:c2:9e:c3:19:bd:db:89:
         25:71:61:a5:1d:c5:36:19:12:e3:e4:d5:95:d8:06:77:b5:27:
         42:28:11:7a:9a:8a:a9:df:78:5c:b9:a4:3c:5d:8d:07:22:e4:
         f0:df:45:42:76:7b:53:b4:a2:71:1a:4a:ec:cb:a0:0a:0f:17:
         70:e7:00:d8:54:9a:4c:9e:a8:56:4f:e7:d8:b3:70:60:17:f0:
         79:dc:3f:1d:9d:2a:94:20:3b:3a:c6:67:a7:aa:e9:d3:57:b4:
         1d:13:21:65:a7:10:cd:23:4f:b3:e0:c8:4c:4b:dd:27:2b:e0:
         6e:4e:64:78:e2:52:6c:66:9a:a6:d8:70:a6:53:9a:5d:ce:7c:
         df:36:d5:70:77:a9:17:dc:cd:5f:df:bb:15:af:a5:b8:97:af:
         08:e5:c5:76:92:c4:b4:e3:84:f1:63:7d:8f:3d:3b:0e:33:e9:
         23:6b:a9:f4:11:68:64:54:ff:ad:9d:a6:6c:18:4d:40:5a:1b:
         28:2f:bc:70:f1:81:cf:f4:65:3f:f9:06:4a:7e:30:d7:db:b8:
         60:e9:37:22:3a:42:df:16:ca:f5:e4:d4:cc:a7:88:54:d6:68:
         f7:f5:89:ea:95:05:ed:ee:9a:af:fc:7c:f6:f5:ea:19:14:d4:
         fc:70:79:41:45:d0:24:de:b4:64:b2:15:e3:1e:93:8b:b6:fe:
         9a:2b:56:c9:69:bd:90:41:35:67:67:4f:c2:c8:d3:ab:54:b6:
         56:d8:bd:b7:77:3f:51:57:9f:da:8a:e9:59:1e:48:29:20:fd:
         6d:16:19:70:3f:49:22:30:c7:88:b6:1f:d0:16:93:38:6b:95:
         7e:68:d1:6a:8b:df:b9:7e:11:84:c7:c8:d0:68:53:f9:f2:80:
         3c:a3:a0:a2:9f:80:ce:fc:67:4c:92:20:43:2a:17:15:ce:6e:
         ba:81:f2:7e:6e:5a:22:01
-----BEGIN CERTIFICATE-----
MIIGrTCCBJWgAwIBAgICGoowDQYJKoZIhvcNAQEEBQAwgawxCzAJBgNVBAYTAlVT
MQswCQYDVQQIEwJPSDERMA8GA1UEBxMIQ29sdW1idXMxEjAQBgNVBAoTCVZpa2lu
Z1ZQTjEdMBsGA1UECxMUTXlPcmdhbml6YXRpb25hbFVuaXQxFTATBgNVBAMTDFZp
a2luZ1ZQTiBDQTEQMA4GA1UEKRMHRWFzeVJTQTEhMB8GCSqGSIb3DQEJARYSbWVA
bXlob3N0Lm15ZG9tYWluMB4XDTE1MTEyODAzMDczMFoXDTI1MTEyNTAzMDczMFow
HzEdMBsGA1UEAxMUQ2xpZW50MjA3N0NlcnRkYWZjOTcwggIiMA0GCSqGSIb3DQEB
AQUAA4ICDwAwggIKAoICAQDHR6k/TF8AKksIEpqIz+Zf4CiYZIYZOZfyM99Chwhi
peEwnxBS99BJVMjNtnSfwyalusafm5ttL4x+Xnys9WyM3Jc3ta3PWmyNeSJ5wyP0
hUdJu/s+AgVTYJ2uWhCcoBNEacIEryYFNdflnxMflne1mRc/3CZSMhy0C2pcgU5m
gC9BYhXyeitkmUqFBpP6RCA3m76ix8+9j2u+O+UcTxNxM3VSnVFWjH4yniFJImL7
63zpQKfeCHdBLIIcozNLRQgBeaR6bUl57O90O3tK3/iKFy92P2syvBAj6VtrFw98
SnKa6c6m46GfhWlCE2aqKAFOMRqmitN+hbIIEGax6QUrtHO1hzWjHa8ZCCBGhQYU
lRD+BsZFQbJ7uab9D+T0AOj7fI7xPNw7oCiQjVb+UTbvAgaYdV0124tFoih7/EF/
wktDUKg4VUF3n5Rzl1/0iKIA+/pPoSxl6f85dga5YZ2iWWasCGW5NQAOXXatsmWz
cXC7FrzhXo1u8SYcohHhq2aO8a0YAccbIw8kePm4WTTm92eSiYxBNLgKNK79NzPU
avNsxmdLCVkVeQQCQ7R5yt822IirhpcX2F1YOYietCOdxhTI/evXcdEoFGtkQA7O
NnHSpQ9rkswv40uk6XAPvn27TX+wec0ytlf+6E6oiGeE5FFOxVgkvTA/VI38hlLv
tQIDAQABo4IBYzCCAV8wCQYDVR0TBAIwADAtBglghkgBhvhCAQ0EIBYeRWFzeS1S
U0EgR2VuZXJhdGVkIENlcnRpZmljYXRlMB0GA1UdDgQWBBS/bR9YG0s2eHWTmpgU
qZTXNN96szCB4QYDVR0jBIHZMIHWgBQSzWAE0qCAnnDtxpm4eyzGUv0ZoaGBsqSB
rzCBrDELMAkGA1UEBhMCVVMxCzAJBgNVBAgTAk9IMREwDwYDVQQHEwhDb2x1bWJ1
czESMBAGA1UEChMJVmlraW5nVlBOMR0wGwYDVQQLExRNeU9yZ2FuaXphdGlvbmFs
VW5pdDEVMBMGA1UEAxMMVmlraW5nVlBOIENBMRAwDgYDVQQpEwdFYXN5UlNBMSEw
HwYJKoZIhvcNAQkBFhJtZUBteWhvc3QubXlkb21haW6CCQDPNYXugL8qPjATBgNV
HSUEDDAKBggrBgEFBQcDAjALBgNVHQ8EBAMCB4AwDQYJKoZIhvcNAQEEBQADggIB
AOWd/HefntkuEVo6IYMPI7pNnCIhix2G+4n4A+rll+UEkjU8kJCGoQ5ojcTVJdEF
T1VaDvbdodHnm87TymQ3uE6fbADXvyy1D0hcE78Uh2WPtx/7faZ+iMD8fHWvYIcW
SQY7xcCynmfxO4TwO3Ct5djLggtDcXZmZLt9pRhOuLHDHD1E1vqokWoFpOM96n/f
Vqcdcy4KgmdetGN/wp7DGb3biSVxYaUdxTYZEuPk1ZXYBne1J0IoEXqaiqnfeFy5
pDxdjQci5PDfRUJ2e1O0onEaSuzLoAoPF3DnANhUmkyeqFZP59izcGAX8HncPx2d
KpQgOzrGZ6eq6dNXtB0TIWWnEM0jT7PgyExL3Scr4G5OZHjiUmxmmqbYcKZTml3O
fN821XB3qRfczV/fuxWvpbiXrwjlxXaSxLTjhPFjfY89Ow4z6SNrqfQRaGRU/62d
pmwYTUBaGygvvHDxgc/0ZT/5Bkp+MNfbuGDpNyI6Qt8WyvXk1MyniFTWaPf1ieqV
Be3umq/8fPb16hkU1PxweUFF0CTetGSyFeMek4u2/porVslpvZBBNWdnT8LI06tU
tlbYvbd3P1FXn9qK6VkeSCkg/W0WGXA/SSIwx4i2H9AWkzhrlX5o0WqL37l+EYTH
yNBoU/nygDyjoKKfgM78Z0ySIEMqFxXObrqB8n5uWiIB
-----END CERTIFICATE-----
