Certificate:
    Data:
        Version: 3 (0x2)
        Serial Number: 6796 (0x1a8c)
    Signature Algorithm: md5WithRSAEncryption
        Issuer: C=US, ST=OH, L=Columbus, O=VikingVPN, OU=MyOrganizationalUnit, CN=VikingVPN CA/name=EasyRSA/emailAddress=me@myhost.mydomain
        Validity
            Not Before: Nov 28 06:17:40 2015 GMT
            Not After : Nov 25 06:17:40 2025 GMT
        Subject: CN=Client1941Cert641005
        Subject Public Key Info:
            Public Key Algorithm: rsaEncryption
                Public-Key: (4096 bit)
                Modulus:
                    00:bb:eb:1d:52:5a:24:fb:51:85:b2:49:06:a8:fa:
                    94:29:b4:31:0c:ed:f1:9d:be:36:19:7d:37:8d:94:
                    0e:96:1c:42:e0:a5:9f:7b:3b:65:da:36:c1:be:e5:
                    5a:d4:d5:62:74:6e:6c:4f:a6:42:cd:7b:71:03:72:
                    02:6f:78:3e:41:07:e4:e7:ab:e7:af:ed:f9:60:f9:
                    a8:b9:a1:67:b1:f3:a8:55:31:d8:f1:70:74:ac:40:
                    91:52:d2:4e:37:4d:a9:cb:7d:ee:12:be:84:82:09:
                    49:c6:c8:f4:b7:8f:f9:4e:52:f3:7a:f8:56:fa:b8:
                    80:7a:1b:41:84:43:cb:bc:5c:c4:9d:fa:7e:cb:90:
                    46:78:31:5b:df:d2:79:d0:e5:47:46:f6:db:56:91:
                    de:09:a2:10:ec:68:41:7a:e4:c9:ad:d2:74:db:6e:
                    8b:ac:1b:21:52:9c:50:4e:de:30:e3:71:12:7b:0b:
                    a5:cb:16:16:06:7f:b1:3e:7e:fe:ba:f9:f3:08:f1:
                    29:9a:ff:f9:41:be:f9:6f:db:8f:ca:b2:39:64:76:
                    6c:f1:bf:61:f6:fe:36:3a:63:bf:26:c5:76:fc:e6:
                    15:4c:11:e9:a4:4e:b7:c2:4b:d5:d3:79:95:40:f7:
                    cb:e0:55:31:fb:66:15:22:01:10:6b:2e:e6:5d:96:
                    72:f6:96:6b:bb:23:d1:1b:a3:62:af:8f:79:58:c8:
                    21:06:d9:69:1f:ef:6c:74:10:33:5f:c9:5b:5a:b9:
                    85:f3:c0:f8:c5:2e:27:93:ec:96:6f:be:78:42:c1:
                    15:29:20:94:e1:c2:c1:52:ea:cf:54:f7:b0:62:f2:
                    8a:e0:74:3b:d3:2a:fc:ca:91:75:2c:4d:82:d3:22:
                    bc:72:17:a5:e5:e0:a4:96:2a:a5:a3:c4:75:80:aa:
                    86:d9:e1:0e:45:ba:5f:d2:b5:fc:04:7d:c2:90:f5:
                    d2:c9:c6:d0:5b:ab:94:d7:8f:b5:0f:2d:4f:73:26:
                    f8:88:72:a5:e0:1c:e5:b8:c4:dc:5e:4e:6f:35:fe:
                    f1:ef:97:24:bd:20:b9:cc:4a:9d:02:57:42:9e:d4:
                    65:5b:e9:91:35:86:47:2d:51:07:11:4e:65:19:b7:
                    26:09:cb:c3:86:35:77:63:f8:c8:53:e0:d0:d2:85:
                    1a:e1:9f:2c:15:1a:66:04:8e:0f:22:be:b0:30:00:
                    8b:90:aa:8f:ee:7a:f9:60:97:9e:4f:a3:e3:f3:fb:
                    dc:0c:1a:94:f0:a4:3c:71:f3:b9:c3:82:72:b2:e6:
                    ca:80:c7:91:1f:1f:65:35:7a:76:1a:6f:5b:ca:fb:
                    41:4f:a9:4b:db:af:dd:e3:75:42:cd:44:8c:49:28:
                    4d:90:29
                Exponent: 65537 (0x10001)
        X509v3 extensions:
            X509v3 Basic Constraints: 
                CA:FALSE
            Netscape Comment: 
                Easy-RSA Generated Certificate
            X509v3 Subject Key Identifier: 
                D8:C9:9F:04:FD:92:B0:53:6A:2A:F6:C8:8E:14:58:D6:C5:C3:A1:BB
            X509v3 Authority Key Identifier: 
                keyid:12:CD:60:04:D2:A0:80:9E:70:ED:C6:99:B8:7B:2C:C6:52:FD:19:A1
                DirName:/C=US/ST=OH/L=Columbus/O=VikingVPN/OU=MyOrganizationalUnit/CN=VikingVPN CA/name=EasyRSA/emailAddress=me@myhost.mydomain
                serial:CF:35:85:EE:80:BF:2A:3E

            X509v3 Extended Key Usage: 
                TLS Web Client Authentication
            X509v3 Key Usage: 
                Digital Signature
    Signature Algorithm: md5WithRSAEncryption
         72:09:5e:2f:5b:d5:fd:96:04:39:3e:46:e0:f8:98:e6:43:61:
         f2:be:3a:cb:b2:ab:f4:d4:71:73:b7:d7:6e:77:71:a6:e2:60:
         d2:9c:69:86:ee:15:1f:fa:5d:9e:28:14:6c:c9:cd:92:58:a2:
         80:b5:34:bc:ab:b6:2e:ca:46:76:e2:9a:28:c1:74:f7:9e:1f:
         6c:70:d6:80:cc:29:c3:e3:9b:aa:0d:b0:26:66:fd:bd:9e:e7:
         c9:a8:23:70:58:8c:7e:2c:a5:fd:f9:b0:41:9f:37:47:e5:ee:
         cb:76:7f:0d:37:91:18:c2:6c:f2:08:4f:fe:cc:63:92:eb:9d:
         49:9f:6a:dd:10:d9:5f:3a:f8:88:a0:73:2a:01:e1:7e:fd:1f:
         80:ae:cf:c9:6c:93:35:cd:86:8a:a8:94:cf:fe:cb:06:82:e5:
         f3:09:fb:6f:f7:f0:fc:ac:9d:c7:f8:a8:04:50:fc:a2:8c:3a:
         dc:0f:5e:ff:76:7e:2a:41:b2:8a:7c:26:7a:a3:2e:e2:f2:3a:
         eb:fd:e6:bb:2f:06:2d:99:5f:de:69:e8:bc:f6:97:d7:98:f3:
         c7:6b:b4:fe:51:cb:bb:58:7f:15:df:e0:7b:5a:e0:68:8b:bd:
         05:53:71:1f:ee:c7:e5:bf:ba:ae:d2:78:24:a3:db:0a:0d:de:
         77:8d:0c:9d:5a:92:cc:2a:40:25:82:0b:29:68:11:ad:3a:3d:
         a7:3b:1c:58:e7:49:d0:96:87:b8:24:ab:d1:28:50:d1:a2:70:
         98:3e:bd:59:b2:a5:3a:51:d3:8f:cd:92:a7:88:ac:76:b6:20:
         f1:fe:be:c6:5e:d7:58:32:94:d3:74:96:15:59:2a:c2:42:b3:
         0e:4b:3c:e6:f9:c8:88:9e:53:2a:4a:ef:f1:62:04:8b:6d:13:
         c5:b9:c1:29:14:f6:67:56:2f:5b:c7:5f:9d:5a:0c:93:b3:df:
         17:1f:07:f8:14:59:2c:81:f0:62:54:b2:b2:20:23:3c:1e:00:
         49:f9:7d:5c:3f:c1:69:47:da:ff:c7:0b:59:f7:a0:00:9c:13:
         08:a9:27:22:df:fc:12:c4:5d:97:ac:2b:de:d3:bc:08:cd:cf:
         37:df:60:33:42:3c:89:01:5a:9d:e2:05:c9:e5:5e:88:20:56:
         85:79:bb:d7:e3:dc:52:71:3f:c3:b6:cd:63:2e:3d:08:8a:2d:
         36:e0:9d:78:7c:94:4c:d5:25:98:70:a9:dd:fb:87:e2:94:88:
         53:f2:29:b3:6c:b3:2c:f7:00:b2:ef:ba:46:76:05:2b:c1:20:
         52:28:b8:a6:03:69:d2:b7:2a:15:24:b8:ac:93:59:85:fd:3e:
         b2:57:6f:30:1d:69:1d:b3
-----BEGIN CERTIFICATE-----
MIIGrTCCBJWgAwIBAgICGowwDQYJKoZIhvcNAQEEBQAwgawxCzAJBgNVBAYTAlVT
MQswCQYDVQQIEwJPSDERMA8GA1UEBxMIQ29sdW1idXMxEjAQBgNVBAoTCVZpa2lu
Z1ZQTjEdMBsGA1UECxMUTXlPcmdhbml6YXRpb25hbFVuaXQxFTATBgNVBAMTDFZp
a2luZ1ZQTiBDQTEQMA4GA1UEKRMHRWFzeVJTQTEhMB8GCSqGSIb3DQEJARYSbWVA
bXlob3N0Lm15ZG9tYWluMB4XDTE1MTEyODA2MTc0MFoXDTI1MTEyNTA2MTc0MFow
HzEdMBsGA1UEAxMUQ2xpZW50MTk0MUNlcnQ2NDEwMDUwggIiMA0GCSqGSIb3DQEB
AQUAA4ICDwAwggIKAoICAQC76x1SWiT7UYWySQao+pQptDEM7fGdvjYZfTeNlA6W
HELgpZ97O2XaNsG+5VrU1WJ0bmxPpkLNe3EDcgJveD5BB+Tnq+ev7flg+ai5oWex
86hVMdjxcHSsQJFS0k43TanLfe4SvoSCCUnGyPS3j/lOUvN6+Fb6uIB6G0GEQ8u8
XMSd+n7LkEZ4MVvf0nnQ5UdG9ttWkd4JohDsaEF65Mmt0nTbbousGyFSnFBO3jDj
cRJ7C6XLFhYGf7E+fv66+fMI8Sma//lBvvlv24/Ksjlkdmzxv2H2/jY6Y78mxXb8
5hVMEemkTrfCS9XTeZVA98vgVTH7ZhUiARBrLuZdlnL2lmu7I9Ebo2Kvj3lYyCEG
2Wkf72x0EDNfyVtauYXzwPjFLieT7JZvvnhCwRUpIJThwsFS6s9U97Bi8orgdDvT
KvzKkXUsTYLTIrxyF6Xl4KSWKqWjxHWAqobZ4Q5Ful/StfwEfcKQ9dLJxtBbq5TX
j7UPLU9zJviIcqXgHOW4xNxeTm81/vHvlyS9ILnMSp0CV0Ke1GVb6ZE1hkctUQcR
TmUZtyYJy8OGNXdj+MhT4NDShRrhnywVGmYEjg8ivrAwAIuQqo/uevlgl55Po+Pz
+9wMGpTwpDxx87nDgnKy5sqAx5EfH2U1enYab1vK+0FPqUvbr93jdULNRIxJKE2Q
KQIDAQABo4IBYzCCAV8wCQYDVR0TBAIwADAtBglghkgBhvhCAQ0EIBYeRWFzeS1S
U0EgR2VuZXJhdGVkIENlcnRpZmljYXRlMB0GA1UdDgQWBBTYyZ8E/ZKwU2oq9siO
FFjWxcOhuzCB4QYDVR0jBIHZMIHWgBQSzWAE0qCAnnDtxpm4eyzGUv0ZoaGBsqSB
rzCBrDELMAkGA1UEBhMCVVMxCzAJBgNVBAgTAk9IMREwDwYDVQQHEwhDb2x1bWJ1
czESMBAGA1UEChMJVmlraW5nVlBOMR0wGwYDVQQLExRNeU9yZ2FuaXphdGlvbmFs
VW5pdDEVMBMGA1UEAxMMVmlraW5nVlBOIENBMRAwDgYDVQQpEwdFYXN5UlNBMSEw
HwYJKoZIhvcNAQkBFhJtZUBteWhvc3QubXlkb21haW6CCQDPNYXugL8qPjATBgNV
HSUEDDAKBggrBgEFBQcDAjALBgNVHQ8EBAMCB4AwDQYJKoZIhvcNAQEEBQADggIB
AHIJXi9b1f2WBDk+RuD4mOZDYfK+Osuyq/TUcXO31253cabiYNKcaYbuFR/6XZ4o
FGzJzZJYooC1NLyrti7KRnbimijBdPeeH2xw1oDMKcPjm6oNsCZm/b2e58moI3BY
jH4spf35sEGfN0fl7st2fw03kRjCbPIIT/7MY5LrnUmfat0Q2V86+IigcyoB4X79
H4Cuz8lskzXNhoqolM/+ywaC5fMJ+2/38Pysncf4qARQ/KKMOtwPXv92fipBsop8
JnqjLuLyOuv95rsvBi2ZX95p6Lz2l9eY88drtP5Ry7tYfxXf4Hta4GiLvQVTcR/u
x+W/uq7SeCSj2woN3neNDJ1akswqQCWCCyloEa06Pac7HFjnSdCWh7gkq9EoUNGi
cJg+vVmypTpR04/NkqeIrHa2IPH+vsZe11gylNN0lhVZKsJCsw5LPOb5yIieUypK
7/FiBIttE8W5wSkU9mdWL1vHX51aDJOz3xcfB/gUWSyB8GJUsrIgIzweAEn5fVw/
wWlH2v/HC1n3oACcEwipJyLf/BLEXZesK97TvAjNzzffYDNCPIkBWp3iBcnlXogg
VoV5u9fj3FJxP8O2zWMuPQiKLTbgnXh8lEzVJZhwqd37h+KUiFPyKbNssyz3ALLv
ukZ2BSvBIFIouKYDadK3KhUkuKyTWYX9PrJXbzAdaR2z
-----END CERTIFICATE-----
