Certificate:
    Data:
        Version: 3 (0x2)
        Serial Number: 6799 (0x1a8f)
    Signature Algorithm: md5WithRSAEncryption
        Issuer: C=US, ST=OH, L=Columbus, O=VikingVPN, OU=MyOrganizationalUnit, CN=VikingVPN CA/name=EasyRSA/emailAddress=me@myhost.mydomain
        Validity
            Not Before: Nov 28 13:33:28 2015 GMT
            Not After : Nov 25 13:33:28 2025 GMT
        Subject: CN=Client1160Certa13be1
        Subject Public Key Info:
            Public Key Algorithm: rsaEncryption
                Public-Key: (4096 bit)
                Modulus:
                    00:bd:34:3c:37:a0:68:45:23:a9:7b:4f:9b:0b:fc:
                    8d:28:91:a7:e4:fb:72:f3:2e:2c:d7:65:84:2b:4e:
                    7a:af:42:34:4b:d3:f3:18:24:53:4f:82:21:8a:47:
                    d1:1d:96:8d:b3:e0:c7:bb:2f:1a:a7:5e:ef:7f:4c:
                    4b:3b:00:c4:3a:b1:9a:c8:ae:d8:c9:15:37:4d:65:
                    8f:46:a2:3a:90:b7:be:f1:3f:ac:b6:40:37:08:30:
                    a0:a6:36:6e:c9:bc:ab:b9:f6:f4:88:70:6b:0b:ed:
                    87:26:2c:49:8b:5f:96:ac:5f:b5:73:a3:67:09:5e:
                    3f:4d:81:f5:33:a7:4d:2d:d4:ae:da:9c:51:f4:94:
                    47:47:6d:aa:c7:08:a0:84:51:2c:dc:9a:f9:bf:5a:
                    c7:80:8e:dd:91:d7:83:b1:f7:71:fe:57:e9:4d:f2:
                    d6:02:33:16:4e:44:30:c5:7c:a3:2f:5c:61:69:d1:
                    bb:77:44:e6:b3:3c:c7:fe:3a:71:bd:4a:5a:1b:38:
                    5a:cf:2b:78:3a:34:ad:33:9d:dc:d8:c7:33:ec:59:
                    32:63:de:e9:aa:83:f1:a6:9a:ca:7b:66:8a:8b:a0:
                    b2:11:c2:b1:3b:8d:3a:84:d2:6b:17:ff:4b:2f:72:
                    12:8a:b2:7a:f4:c2:e5:cf:c9:57:c1:b1:35:68:fb:
                    45:5d:5b:79:68:f9:5e:76:e4:c4:ae:d6:01:c5:e4:
                    b3:66:2c:f9:0d:2d:51:51:a9:e6:4d:88:cc:9a:43:
                    6a:c9:5b:da:63:06:13:2e:df:6d:13:34:e7:d2:76:
                    1b:76:7c:49:bb:89:06:77:fc:d2:86:ba:41:25:ca:
                    22:08:57:f2:3e:99:c7:32:4b:0e:7e:11:45:3f:6f:
                    db:be:d3:6e:cd:22:d8:7f:e1:6f:17:f2:a2:27:0c:
                    3d:84:0a:5e:c6:31:9e:3d:54:31:38:64:70:1e:91:
                    38:9d:05:b4:4d:c7:e3:7e:ab:d2:54:1b:6f:72:b0:
                    5e:b8:3f:ee:81:6a:3b:2c:14:b8:fb:90:5b:13:e2:
                    d3:e7:b1:14:b0:3a:54:c5:6d:1a:6f:e2:85:e0:1a:
                    3b:75:b5:42:04:5a:b1:22:5a:73:99:6c:24:26:dc:
                    c6:a2:b7:64:68:76:2f:fa:1d:c1:24:eb:3d:a1:12:
                    c9:36:13:15:7e:c5:cd:31:1b:66:a1:9a:a8:38:22:
                    10:18:0d:4b:88:c5:d4:e2:5a:34:d2:6c:78:5b:e2:
                    75:4a:ee:96:64:31:46:37:c9:14:24:06:20:87:27:
                    3d:f8:d2:65:2d:b7:c6:00:a6:91:60:8d:de:7d:5a:
                    64:20:6b:82:ea:e5:ba:3e:d1:41:7d:a3:c0:6b:ab:
                    ea:6a:73
                Exponent: 65537 (0x10001)
        X509v3 extensions:
            X509v3 Basic Constraints: 
                CA:FALSE
            Netscape Comment: 
                Easy-RSA Generated Certificate
            X509v3 Subject Key Identifier: 
                2B:41:9D:9C:85:96:3C:DF:02:3D:6B:E0:D7:C0:53:AE:C4:91:47:D3
            X509v3 Authority Key Identifier: 
                keyid:12:CD:60:04:D2:A0:80:9E:70:ED:C6:99:B8:7B:2C:C6:52:FD:19:A1
                DirName:/C=US/ST=OH/L=Columbus/O=VikingVPN/OU=MyOrganizationalUnit/CN=VikingVPN CA/name=EasyRSA/emailAddress=me@myhost.mydomain
                serial:CF:35:85:EE:80:BF:2A:3E

            X509v3 Extended Key Usage: 
                TLS Web Client Authentication
            X509v3 Key Usage: 
                Digital Signature
    Signature Algorithm: md5WithRSAEncryption
         74:d5:58:6e:9b:07:ff:78:dc:82:8a:3e:3a:8e:11:f0:96:6a:
         e7:d2:f2:3a:d6:8e:ee:16:34:ce:97:e8:61:90:cc:7d:13:df:
         33:20:d1:ea:8e:a4:9a:a3:f6:15:a4:7a:fc:d7:b9:a1:05:cd:
         89:4d:77:fe:b2:ad:08:f1:88:64:ef:9d:41:16:65:0c:85:5e:
         b3:cd:02:e8:e8:f6:83:93:02:5b:a7:1c:b6:e1:81:b1:eb:ad:
         77:0f:fe:1f:16:75:6e:ab:ee:aa:a9:c1:52:2f:d2:f6:cc:f4:
         cc:f0:4e:2c:81:a2:ef:d8:d6:b4:1c:47:e1:8b:0a:bc:c4:df:
         7f:f0:67:ed:a5:41:93:50:56:86:28:76:ef:c1:90:a3:75:a7:
         73:c5:d4:63:6e:19:c9:f7:9d:7d:d8:af:b3:5e:05:46:fb:a5:
         19:a3:4f:66:3e:ee:03:d6:0b:b0:52:98:b1:d7:7a:05:2b:f8:
         35:ec:01:79:3b:a8:a1:37:a9:49:3a:ed:e2:75:dd:3a:f6:45:
         c8:51:9d:a7:ad:7b:a7:0c:51:6b:4a:d8:9c:06:6d:84:3a:db:
         84:0a:08:82:e0:6b:1c:4f:a4:63:b5:5a:d1:d1:41:5f:e0:c3:
         cd:89:9c:ac:a5:5c:06:0d:aa:2c:f7:d5:41:63:0c:b1:47:78:
         78:89:7e:76:b1:c0:7c:31:08:ef:26:41:54:f5:0d:99:1c:e6:
         4c:4f:9d:eb:77:0f:9a:ff:76:bd:9f:b1:c0:de:c4:fb:9c:94:
         33:ff:47:c6:b7:c0:35:33:df:43:f4:70:3d:6b:91:c2:3b:a8:
         62:30:fd:e9:d0:02:48:b7:35:5b:9d:ea:f5:3e:01:c2:f1:29:
         41:af:cc:2c:85:3f:e8:35:e7:c1:69:35:b5:93:d3:57:52:7f:
         d7:3d:a3:2d:9a:c5:69:aa:a5:7d:ae:4f:c8:cf:3c:5f:c9:76:
         9c:31:a0:ca:17:18:4c:02:0a:cf:90:41:28:a6:94:c9:99:da:
         22:84:50:ab:49:f4:f6:24:cd:fd:06:be:ec:ee:54:a9:62:6c:
         87:11:b9:72:bc:1c:af:8c:43:a2:e6:ae:39:4b:bc:5c:ff:cb:
         de:ea:88:a1:01:f1:fd:ef:f0:d3:7d:59:87:74:dd:d8:9e:e9:
         e3:73:68:7c:86:22:57:e0:fa:63:87:88:db:24:81:10:f4:d6:
         fa:36:ad:1f:f7:15:fe:14:a2:36:86:40:46:4a:86:98:45:0c:
         a4:8a:63:23:f2:fc:a3:98:6c:48:1d:08:0c:da:70:1a:5f:de:
         f1:f9:94:32:6c:e9:9d:6d:f3:52:3d:46:8c:79:d7:dd:75:c5:
         e3:5b:1f:dc:66:0c:1c:72
-----BEGIN CERTIFICATE-----
MIIGrTCCBJWgAwIBAgICGo8wDQYJKoZIhvcNAQEEBQAwgawxCzAJBgNVBAYTAlVT
MQswCQYDVQQIEwJPSDERMA8GA1UEBxMIQ29sdW1idXMxEjAQBgNVBAoTCVZpa2lu
Z1ZQTjEdMBsGA1UECxMUTXlPcmdhbml6YXRpb25hbFVuaXQxFTATBgNVBAMTDFZp
a2luZ1ZQTiBDQTEQMA4GA1UEKRMHRWFzeVJTQTEhMB8GCSqGSIb3DQEJARYSbWVA
bXlob3N0Lm15ZG9tYWluMB4XDTE1MTEyODEzMzMyOFoXDTI1MTEyNTEzMzMyOFow
HzEdMBsGA1UEAxMUQ2xpZW50MTE2MENlcnRhMTNiZTEwggIiMA0GCSqGSIb3DQEB
AQUAA4ICDwAwggIKAoICAQC9NDw3oGhFI6l7T5sL/I0okafk+3LzLizXZYQrTnqv
QjRL0/MYJFNPgiGKR9Edlo2z4Me7LxqnXu9/TEs7AMQ6sZrIrtjJFTdNZY9GojqQ
t77xP6y2QDcIMKCmNm7JvKu59vSIcGsL7YcmLEmLX5asX7Vzo2cJXj9NgfUzp00t
1K7anFH0lEdHbarHCKCEUSzcmvm/WseAjt2R14Ox93H+V+lN8tYCMxZORDDFfKMv
XGFp0bt3ROazPMf+OnG9SlobOFrPK3g6NK0zndzYxzPsWTJj3umqg/Gmmsp7ZoqL
oLIRwrE7jTqE0msX/0svchKKsnr0wuXPyVfBsTVo+0VdW3lo+V525MSu1gHF5LNm
LPkNLVFRqeZNiMyaQ2rJW9pjBhMu320TNOfSdht2fEm7iQZ3/NKGukElyiIIV/I+
mccySw5+EUU/b9u+027NIth/4W8X8qInDD2ECl7GMZ49VDE4ZHAekTidBbRNx+N+
q9JUG29ysF64P+6BajssFLj7kFsT4tPnsRSwOlTFbRpv4oXgGjt1tUIEWrEiWnOZ
bCQm3Mait2Rodi/6HcEk6z2hEsk2ExV+xc0xG2ahmqg4IhAYDUuIxdTiWjTSbHhb
4nVK7pZkMUY3yRQkBiCHJz340mUtt8YAppFgjd59WmQga4Lq5bo+0UF9o8Brq+pq
cwIDAQABo4IBYzCCAV8wCQYDVR0TBAIwADAtBglghkgBhvhCAQ0EIBYeRWFzeS1S
U0EgR2VuZXJhdGVkIENlcnRpZmljYXRlMB0GA1UdDgQWBBQrQZ2chZY83wI9a+DX
wFOuxJFH0zCB4QYDVR0jBIHZMIHWgBQSzWAE0qCAnnDtxpm4eyzGUv0ZoaGBsqSB
rzCBrDELMAkGA1UEBhMCVVMxCzAJBgNVBAgTAk9IMREwDwYDVQQHEwhDb2x1bWJ1
czESMBAGA1UEChMJVmlraW5nVlBOMR0wGwYDVQQLExRNeU9yZ2FuaXphdGlvbmFs
VW5pdDEVMBMGA1UEAxMMVmlraW5nVlBOIENBMRAwDgYDVQQpEwdFYXN5UlNBMSEw
HwYJKoZIhvcNAQkBFhJtZUBteWhvc3QubXlkb21haW6CCQDPNYXugL8qPjATBgNV
HSUEDDAKBggrBgEFBQcDAjALBgNVHQ8EBAMCB4AwDQYJKoZIhvcNAQEEBQADggIB
AHTVWG6bB/943IKKPjqOEfCWaufS8jrWju4WNM6X6GGQzH0T3zMg0eqOpJqj9hWk
evzXuaEFzYlNd/6yrQjxiGTvnUEWZQyFXrPNAujo9oOTAlunHLbhgbHrrXcP/h8W
dW6r7qqpwVIv0vbM9MzwTiyBou/Y1rQcR+GLCrzE33/wZ+2lQZNQVoYodu/BkKN1
p3PF1GNuGcn3nX3Yr7NeBUb7pRmjT2Y+7gPWC7BSmLHXegUr+DXsAXk7qKE3qUk6
7eJ13Tr2RchRnaete6cMUWtK2JwGbYQ624QKCILgaxxPpGO1WtHRQV/gw82JnKyl
XAYNqiz31UFjDLFHeHiJfnaxwHwxCO8mQVT1DZkc5kxPnet3D5r/dr2fscDexPuc
lDP/R8a3wDUz30P0cD1rkcI7qGIw/enQAki3NVud6vU+AcLxKUGvzCyFP+g158Fp
NbWT01dSf9c9oy2axWmqpX2uT8jPPF/JdpwxoMoXGEwCCs+QQSimlMmZ2iKEUKtJ
9PYkzf0GvuzuVKlibIcRuXK8HK+MQ6LmrjlLvFz/y97qiKEB8f3v8NN9WYd03die
6eNzaHyGIlfg+mOHiNskgRD01vo2rR/3Ff4UojaGQEZKhphFDKSKYyPy/KOYbEgd
CAzacBpf3vH5lDJs6Z1t81I9Rox51911xeNbH9xmDBxy
-----END CERTIFICATE-----
