Certificate:
    Data:
        Version: 3 (0x2)
        Serial Number: 6818 (0x1aa2)
    Signature Algorithm: md5WithRSAEncryption
        Issuer: C=US, ST=OH, L=Columbus, O=VikingVPN, OU=MyOrganizationalUnit, CN=VikingVPN CA/name=EasyRSA/emailAddress=me@myhost.mydomain
        Validity
            Not Before: Nov 30 17:57:03 2015 GMT
            Not After : Nov 27 17:57:03 2025 GMT
        Subject: CN=Client2084Certa60b00
        Subject Public Key Info:
            Public Key Algorithm: rsaEncryption
                Public-Key: (4096 bit)
                Modulus:
                    00:d8:5f:fe:f3:d0:d9:64:34:8a:b4:8e:f6:50:aa:
                    85:3e:90:7a:6b:da:a4:c9:ac:c5:c7:a4:33:61:cc:
                    21:86:7f:2f:2c:98:21:28:76:e3:d5:aa:5b:93:3d:
                    53:41:56:75:75:ba:b2:07:9f:71:e1:db:b9:23:31:
                    e4:ac:a4:fc:01:cc:47:63:21:40:a5:ae:67:34:de:
                    37:ab:bf:af:89:5b:29:c9:d8:a2:1d:5e:7d:a1:db:
                    2b:d7:68:fc:d8:56:81:07:d5:89:ec:f0:ea:58:de:
                    b2:82:72:3f:01:dd:63:e3:13:3f:3d:b6:7c:4c:da:
                    09:e9:37:f2:1d:86:ea:3f:2d:19:f7:aa:0f:2e:bd:
                    a7:45:4c:96:cb:9d:89:25:3e:95:69:1e:8d:ef:cf:
                    3e:fd:9d:6f:9a:a1:ec:c6:ee:8c:4a:25:63:2b:d8:
                    7e:37:d4:dd:7d:fe:40:e2:97:3e:75:1e:a0:e4:17:
                    9d:31:11:2f:9e:2f:5a:e2:fa:a7:78:06:87:7d:3c:
                    0d:ef:fa:3c:c2:ff:85:e3:c7:ad:14:f7:d3:e9:8b:
                    a0:69:3d:3a:d3:bd:26:6e:ed:fe:b6:24:e6:21:21:
                    48:7f:bf:59:d0:9a:60:11:3a:90:bf:6d:56:fa:5b:
                    db:d6:b4:23:9b:4a:55:a4:aa:40:ef:c4:42:55:68:
                    9a:13:35:28:a1:7b:e2:ab:d1:d7:ac:86:25:7f:26:
                    2e:c3:71:5a:e1:2e:98:80:2b:6e:5c:66:fe:16:dc:
                    88:ec:5b:a8:d5:30:ae:31:a5:c7:5f:54:21:bb:e4:
                    56:fd:44:e9:6c:63:48:13:67:4a:22:ef:91:ed:9d:
                    2e:c5:ab:45:28:2f:a9:b3:86:96:30:c2:2e:b3:4a:
                    8c:73:79:f7:2d:e6:6b:cb:86:6c:25:fa:7c:03:79:
                    dc:49:64:86:8e:91:87:9c:33:f7:91:e8:af:8c:49:
                    97:45:14:2d:0d:a7:17:c7:2d:2f:cc:53:68:00:a4:
                    c3:d2:cd:a0:52:7f:01:ec:d4:73:79:04:25:1b:dd:
                    1d:5b:bf:0a:9d:28:cb:6a:d2:90:1f:f2:b2:dc:48:
                    ac:c2:b5:25:5e:a2:fc:73:7c:6e:7c:7a:1a:42:15:
                    be:a7:97:2d:bb:a2:3f:3a:fa:48:c3:c3:37:41:28:
                    2c:9c:95:6d:b2:66:80:88:22:62:d2:2e:45:36:b5:
                    6e:25:71:df:66:20:cc:14:7a:b4:fd:8e:9f:41:60:
                    03:26:1b:dd:2f:e8:59:f9:b0:18:cd:2c:95:80:f9:
                    16:1a:eb:94:46:9b:33:92:1c:6c:31:3e:8c:73:ad:
                    86:fb:ba:2b:7f:59:02:d5:6c:56:42:72:5b:eb:9d:
                    4d:f9:e5
                Exponent: 65537 (0x10001)
        X509v3 extensions:
            X509v3 Basic Constraints: 
                CA:FALSE
            Netscape Comment: 
                Easy-RSA Generated Certificate
            X509v3 Subject Key Identifier: 
                88:5D:B6:A7:D9:5F:39:99:BD:73:80:90:D3:9A:97:EB:CA:63:7A:80
            X509v3 Authority Key Identifier: 
                keyid:12:CD:60:04:D2:A0:80:9E:70:ED:C6:99:B8:7B:2C:C6:52:FD:19:A1
                DirName:/C=US/ST=OH/L=Columbus/O=VikingVPN/OU=MyOrganizationalUnit/CN=VikingVPN CA/name=EasyRSA/emailAddress=me@myhost.mydomain
                serial:CF:35:85:EE:80:BF:2A:3E

            X509v3 Extended Key Usage: 
                TLS Web Client Authentication
            X509v3 Key Usage: 
                Digital Signature
    Signature Algorithm: md5WithRSAEncryption
         03:f0:03:e3:95:fc:a9:62:53:54:b4:02:04:fb:af:0b:97:68:
         02:e2:c6:46:5e:43:4f:4e:e6:8b:00:80:95:8a:4e:01:f9:2c:
         3e:1c:59:35:c8:64:31:b8:d3:70:b0:e7:8f:28:85:d6:c5:a8:
         a5:ed:da:dd:5d:e0:90:fc:10:2d:c6:db:27:67:6e:e0:0d:58:
         e1:7f:5f:ea:f4:5f:4b:6e:7c:7f:92:3b:04:96:3c:6b:f6:0b:
         f9:f2:ed:d0:ac:15:42:c5:74:69:85:7b:f5:ec:53:77:95:6d:
         ad:4a:06:98:2a:28:a5:20:40:9e:96:65:48:ea:e8:e2:ed:ee:
         a6:db:39:1d:91:67:66:cd:07:c3:85:12:ae:8d:0b:c4:4c:d0:
         5a:c5:27:47:5c:20:1a:f5:4a:b2:e7:f2:29:52:34:16:98:0c:
         fb:de:91:49:2c:16:e6:20:08:6f:95:e2:d8:a1:0f:e1:fb:5b:
         83:ef:d0:13:d9:2d:6c:c1:45:69:40:82:0d:e3:82:73:9f:2e:
         f0:20:41:5e:01:d6:ff:aa:d1:aa:44:ab:6d:ab:82:e5:b5:40:
         0b:c6:9c:cd:61:a5:ff:eb:4a:17:b1:6f:db:47:c6:44:8a:cb:
         b6:38:f3:6c:a7:f4:f8:09:fc:67:ab:e5:a7:06:a7:d8:7e:af:
         13:91:31:77:fc:44:0a:14:c2:9b:1b:43:e4:a0:95:0a:b8:6a:
         40:20:c6:24:cb:0a:3f:e0:7b:c6:9d:f0:b2:04:c4:2f:f4:97:
         48:f8:03:0d:7b:21:ea:61:11:a3:6d:91:94:f6:ad:c0:62:4f:
         62:e7:f2:79:e6:5b:88:c7:61:6b:e3:8f:7f:03:05:5c:48:83:
         12:c7:3c:c7:f7:dc:76:67:aa:21:31:84:4e:d6:7e:e7:eb:d8:
         75:68:23:2a:68:01:2a:58:3a:11:b5:c8:3e:25:2b:be:72:38:
         2a:ff:64:73:a2:77:3a:e3:4d:ca:7c:80:f1:c9:b3:5a:3b:bb:
         66:7b:e3:7d:52:2c:b6:d3:2a:17:c1:b8:b4:25:67:6a:a9:aa:
         42:60:e9:53:c9:cb:b1:82:c4:9e:0d:6a:a4:ca:de:a1:38:83:
         b4:7a:87:9e:b3:e7:03:82:9e:4f:08:96:04:42:08:dc:50:67:
         83:ed:5d:68:07:73:64:17:fa:3d:d5:d4:da:e1:37:4f:de:09:
         9b:e8:03:59:b5:b1:38:9f:11:a0:c0:6f:07:d5:63:21:c2:a6:
         37:72:24:91:f0:a2:31:0e:33:1a:c4:78:48:bb:c0:fe:e2:2b:
         cb:eb:df:5d:e0:af:2a:68:e2:14:e8:79:97:aa:bd:a6:f6:d3:
         ac:35:65:3c:de:b5:b5:48
-----BEGIN CERTIFICATE-----
MIIGrTCCBJWgAwIBAgICGqIwDQYJKoZIhvcNAQEEBQAwgawxCzAJBgNVBAYTAlVT
MQswCQYDVQQIEwJPSDERMA8GA1UEBxMIQ29sdW1idXMxEjAQBgNVBAoTCVZpa2lu
Z1ZQTjEdMBsGA1UECxMUTXlPcmdhbml6YXRpb25hbFVuaXQxFTATBgNVBAMTDFZp
a2luZ1ZQTiBDQTEQMA4GA1UEKRMHRWFzeVJTQTEhMB8GCSqGSIb3DQEJARYSbWVA
bXlob3N0Lm15ZG9tYWluMB4XDTE1MTEzMDE3NTcwM1oXDTI1MTEyNzE3NTcwM1ow
HzEdMBsGA1UEAxMUQ2xpZW50MjA4NENlcnRhNjBiMDAwggIiMA0GCSqGSIb3DQEB
AQUAA4ICDwAwggIKAoICAQDYX/7z0NlkNIq0jvZQqoU+kHpr2qTJrMXHpDNhzCGG
fy8smCEoduPVqluTPVNBVnV1urIHn3Hh27kjMeSspPwBzEdjIUClrmc03jerv6+J
WynJ2KIdXn2h2yvXaPzYVoEH1Yns8OpY3rKCcj8B3WPjEz89tnxM2gnpN/Idhuo/
LRn3qg8uvadFTJbLnYklPpVpHo3vzz79nW+aoezG7oxKJWMr2H431N19/kDilz51
HqDkF50xES+eL1ri+qd4Bod9PA3v+jzC/4Xjx60U99Ppi6BpPTrTvSZu7f62JOYh
IUh/v1nQmmAROpC/bVb6W9vWtCObSlWkqkDvxEJVaJoTNSihe+Kr0deshiV/Ji7D
cVrhLpiAK25cZv4W3IjsW6jVMK4xpcdfVCG75Fb9ROlsY0gTZ0oi75HtnS7Fq0Uo
L6mzhpYwwi6zSoxzefct5mvLhmwl+nwDedxJZIaOkYecM/eR6K+MSZdFFC0NpxfH
LS/MU2gApMPSzaBSfwHs1HN5BCUb3R1bvwqdKMtq0pAf8rLcSKzCtSVeovxzfG58
ehpCFb6nly27oj86+kjDwzdBKCyclW2yZoCIImLSLkU2tW4lcd9mIMwUerT9jp9B
YAMmG90v6Fn5sBjNLJWA+RYa65RGmzOSHGwxPoxzrYb7uit/WQLVbFZCclvrnU35
5QIDAQABo4IBYzCCAV8wCQYDVR0TBAIwADAtBglghkgBhvhCAQ0EIBYeRWFzeS1S
U0EgR2VuZXJhdGVkIENlcnRpZmljYXRlMB0GA1UdDgQWBBSIXban2V85mb1zgJDT
mpfrymN6gDCB4QYDVR0jBIHZMIHWgBQSzWAE0qCAnnDtxpm4eyzGUv0ZoaGBsqSB
rzCBrDELMAkGA1UEBhMCVVMxCzAJBgNVBAgTAk9IMREwDwYDVQQHEwhDb2x1bWJ1
czESMBAGA1UEChMJVmlraW5nVlBOMR0wGwYDVQQLExRNeU9yZ2FuaXphdGlvbmFs
VW5pdDEVMBMGA1UEAxMMVmlraW5nVlBOIENBMRAwDgYDVQQpEwdFYXN5UlNBMSEw
HwYJKoZIhvcNAQkBFhJtZUBteWhvc3QubXlkb21haW6CCQDPNYXugL8qPjATBgNV
HSUEDDAKBggrBgEFBQcDAjALBgNVHQ8EBAMCB4AwDQYJKoZIhvcNAQEEBQADggIB
AAPwA+OV/KliU1S0AgT7rwuXaALixkZeQ09O5osAgJWKTgH5LD4cWTXIZDG403Cw
548ohdbFqKXt2t1d4JD8EC3G2ydnbuANWOF/X+r0X0tufH+SOwSWPGv2C/ny7dCs
FULFdGmFe/XsU3eVba1KBpgqKKUgQJ6WZUjq6OLt7qbbOR2RZ2bNB8OFEq6NC8RM
0FrFJ0dcIBr1SrLn8ilSNBaYDPvekUksFuYgCG+V4tihD+H7W4Pv0BPZLWzBRWlA
gg3jgnOfLvAgQV4B1v+q0apEq22rguW1QAvGnM1hpf/rShexb9tHxkSKy7Y482yn
9PgJ/Ger5acGp9h+rxORMXf8RAoUwpsbQ+SglQq4akAgxiTLCj/ge8ad8LIExC/0
l0j4Aw17IephEaNtkZT2rcBiT2Ln8nnmW4jHYWvjj38DBVxIgxLHPMf33HZnqiEx
hE7Wfufr2HVoIypoASpYOhG1yD4lK75yOCr/ZHOidzrjTcp8gPHJs1o7u2Z7431S
LLbTKhfBuLQlZ2qpqkJg6VPJy7GCxJ4NaqTK3qE4g7R6h56z5wOCnk8IlgRCCNxQ
Z4PtXWgHc2QX+j3V1NrhN0/eCZvoA1m1sTifEaDAbwfVYyHCpjdyJJHwojEOMxrE
eEi7wP7iK8vr313grypo4hToeZeqvab206w1ZTzetbVI
-----END CERTIFICATE-----
