Certificate:
    Data:
        Version: 3 (0x2)
        Serial Number: 6828 (0x1aac)
    Signature Algorithm: md5WithRSAEncryption
        Issuer: C=US, ST=OH, L=Columbus, O=VikingVPN, OU=MyOrganizationalUnit, CN=VikingVPN CA/name=EasyRSA/emailAddress=me@myhost.mydomain
        Validity
            Not Before: Dec  2 11:35:49 2015 GMT
            Not After : Nov 29 11:35:49 2025 GMT
        Subject: CN=Client1160Certaa3b02
        Subject Public Key Info:
            Public Key Algorithm: rsaEncryption
                Public-Key: (4096 bit)
                Modulus:
                    00:f9:fd:99:7e:c2:ec:9c:76:e8:aa:7c:c8:bb:8e:
                    f4:a8:d7:b3:61:52:8f:96:a7:f5:3a:31:fc:08:b7:
                    fe:04:f0:27:92:26:35:ec:c9:84:20:97:da:ab:02:
                    81:1d:de:e5:ad:1a:67:88:b0:1b:5d:bf:6a:b8:d7:
                    8a:6e:a8:85:62:f2:e2:f1:7b:e5:f9:85:6a:35:94:
                    b8:98:a8:e3:e6:55:a3:1b:4d:2d:de:b6:d9:bb:63:
                    d3:14:f7:d7:35:7d:99:91:66:b4:e8:c7:b2:42:95:
                    0e:35:be:12:8f:31:e4:49:7c:e8:d3:c5:f3:3e:68:
                    00:e9:49:1d:c3:30:ea:c9:a8:21:ce:6b:79:29:3b:
                    20:36:25:ce:33:05:08:91:19:2d:8b:c8:5a:20:bb:
                    81:0b:f7:eb:d2:77:fb:c0:67:db:8b:3a:36:a3:58:
                    d8:07:74:b1:97:a9:5b:cc:1b:dd:3c:0e:0f:77:3d:
                    4f:85:09:a8:78:6c:40:57:e0:2b:49:b2:7a:f2:45:
                    89:0d:6f:c5:92:d8:d0:fa:be:93:a8:24:c3:6c:86:
                    f7:ff:ae:ab:72:fb:25:40:b5:7a:c1:c5:9b:6d:f9:
                    39:16:7e:ea:e9:ee:cb:92:fc:7d:24:3b:04:af:bf:
                    d7:75:99:2e:55:ea:77:56:9d:1e:20:a4:f2:69:f9:
                    6b:31:b0:42:45:01:7d:02:91:99:43:51:40:7f:18:
                    5e:65:fb:3f:c2:3f:f4:af:70:27:4c:5f:da:b8:8c:
                    22:bc:01:9e:5b:3a:bd:03:ab:7d:be:3d:c9:c3:87:
                    55:af:54:a3:29:d4:f0:6b:38:34:4b:49:0b:74:3f:
                    ed:f8:cc:e5:31:02:73:c5:ee:68:8a:65:3f:34:86:
                    3a:7e:b7:c3:57:25:97:9d:ce:8c:70:21:43:c5:36:
                    46:4e:15:65:9b:d1:72:8a:50:cd:00:53:7b:6a:8d:
                    e7:12:03:c8:70:dd:29:39:54:8a:3d:38:fa:f6:6b:
                    18:c1:71:0c:0a:d2:f4:ca:fd:50:68:f8:82:4c:09:
                    4a:39:8b:66:1f:85:b3:55:28:2e:1c:91:cb:e8:a7:
                    8c:51:76:4f:5e:67:56:9f:d0:b0:4b:0a:cd:74:41:
                    c7:cc:03:77:94:3f:50:96:f9:2c:73:7a:82:63:a7:
                    6f:23:5a:9e:7e:fd:79:c7:15:43:0b:45:9c:d3:85:
                    96:71:35:5c:e6:d5:ca:4e:fd:9c:5b:de:9c:0f:64:
                    14:9e:3f:02:62:e9:dd:70:54:63:39:30:0e:1c:8a:
                    25:5a:90:80:38:3c:89:dd:3c:dd:f1:07:54:e1:3a:
                    fe:ef:bc:08:91:13:10:0a:31:49:6a:e0:cb:de:08:
                    bf:f8:09
                Exponent: 65537 (0x10001)
        X509v3 extensions:
            X509v3 Basic Constraints: 
                CA:FALSE
            Netscape Comment: 
                Easy-RSA Generated Certificate
            X509v3 Subject Key Identifier: 
                B2:CE:B5:B3:DA:18:FC:17:6C:76:79:2F:8E:BF:A4:32:F8:81:3B:4D
            X509v3 Authority Key Identifier: 
                keyid:12:CD:60:04:D2:A0:80:9E:70:ED:C6:99:B8:7B:2C:C6:52:FD:19:A1
                DirName:/C=US/ST=OH/L=Columbus/O=VikingVPN/OU=MyOrganizationalUnit/CN=VikingVPN CA/name=EasyRSA/emailAddress=me@myhost.mydomain
                serial:CF:35:85:EE:80:BF:2A:3E

            X509v3 Extended Key Usage: 
                TLS Web Client Authentication
            X509v3 Key Usage: 
                Digital Signature
    Signature Algorithm: md5WithRSAEncryption
         57:dd:c7:77:ed:fe:33:78:81:7b:50:ae:3f:48:dc:75:00:53:
         c7:c2:49:63:c4:f9:5f:76:eb:bf:15:93:bd:a2:ee:64:9c:af:
         ba:ba:85:8c:d8:3d:ac:db:ec:af:f2:cd:3f:5f:64:89:46:fc:
         80:17:28:72:c3:df:bc:c9:e6:f0:be:2f:dd:fc:9d:06:fc:f1:
         55:f5:42:1e:39:71:01:5a:93:a7:ae:bf:5c:61:e4:24:f2:ec:
         f4:dd:a4:71:84:5b:27:d8:42:d9:bb:38:7d:a8:28:25:52:67:
         56:83:e2:84:f9:08:08:97:10:10:04:bb:95:0a:a6:a8:ef:13:
         c3:c2:8f:6d:3f:ae:86:6e:d2:f4:95:02:a9:1b:a3:01:b4:29:
         c4:9a:a0:54:da:e7:7f:3a:ae:77:9f:ee:00:5d:d7:33:90:74:
         37:fc:99:db:18:19:44:fc:a5:0f:1f:89:bb:b6:b8:ff:b6:41:
         89:31:ae:ae:83:33:28:fb:3e:c8:f5:65:85:f2:47:af:fc:31:
         0e:87:d1:c7:c7:fa:73:68:85:f3:e5:6a:98:20:90:a8:f0:d9:
         fb:1d:fa:9c:d8:5b:fb:da:14:c1:1b:69:07:8b:bf:cd:f0:ea:
         34:12:2c:aa:40:a6:ef:04:31:df:11:fb:77:17:19:f5:a1:44:
         d5:6f:87:72:f3:27:3a:bd:f3:c5:56:e3:0d:0a:c0:2b:a9:4a:
         67:74:de:c5:d9:6d:fa:1b:e4:24:0e:ef:ae:88:e7:e1:b3:ab:
         e5:72:60:3c:1c:08:43:90:13:24:f7:2c:bb:3e:a2:2d:f3:8c:
         e7:fc:a3:27:92:ae:1f:49:65:da:cb:bb:34:50:e0:8d:ca:7b:
         2d:3f:6b:12:53:0f:ed:72:0b:4a:4d:9e:82:69:ee:f3:64:47:
         15:21:4e:49:c4:55:17:d6:22:07:e8:ca:76:14:42:5b:aa:3e:
         85:9a:9b:0e:34:30:34:30:b8:29:f9:ae:80:cc:26:10:69:14:
         38:e4:bb:4e:c8:16:b4:30:4d:23:21:30:6c:b8:74:3c:30:ac:
         f5:59:11:c9:e9:41:6e:f2:ef:84:69:bd:db:dc:15:b4:7c:10:
         f6:e6:3f:36:07:dc:34:bd:74:6c:8c:1d:f3:94:e3:30:ff:5e:
         17:2c:fc:b7:4b:54:e1:ce:ae:bb:bb:8e:c4:55:d7:ee:ff:d3:
         df:4d:64:2a:e4:c6:c0:75:81:c5:f0:a4:5f:1f:43:12:f1:99:
         09:90:88:0c:d1:10:16:b4:f7:0e:f5:43:f4:d7:ba:7d:46:db:
         fa:aa:c3:e5:4c:f2:6c:4c:3c:24:07:e8:62:b1:b4:66:59:bb:
         04:eb:05:22:a8:9c:f1:0b
-----BEGIN CERTIFICATE-----
MIIGrTCCBJWgAwIBAgICGqwwDQYJKoZIhvcNAQEEBQAwgawxCzAJBgNVBAYTAlVT
MQswCQYDVQQIEwJPSDERMA8GA1UEBxMIQ29sdW1idXMxEjAQBgNVBAoTCVZpa2lu
Z1ZQTjEdMBsGA1UECxMUTXlPcmdhbml6YXRpb25hbFVuaXQxFTATBgNVBAMTDFZp
a2luZ1ZQTiBDQTEQMA4GA1UEKRMHRWFzeVJTQTEhMB8GCSqGSIb3DQEJARYSbWVA
bXlob3N0Lm15ZG9tYWluMB4XDTE1MTIwMjExMzU0OVoXDTI1MTEyOTExMzU0OVow
HzEdMBsGA1UEAxMUQ2xpZW50MTE2MENlcnRhYTNiMDIwggIiMA0GCSqGSIb3DQEB
AQUAA4ICDwAwggIKAoICAQD5/Zl+wuycduiqfMi7jvSo17NhUo+Wp/U6MfwIt/4E
8CeSJjXsyYQgl9qrAoEd3uWtGmeIsBtdv2q414puqIVi8uLxe+X5hWo1lLiYqOPm
VaMbTS3ettm7Y9MU99c1fZmRZrTox7JClQ41vhKPMeRJfOjTxfM+aADpSR3DMOrJ
qCHOa3kpOyA2Jc4zBQiRGS2LyFogu4EL9+vSd/vAZ9uLOjajWNgHdLGXqVvMG908
Dg93PU+FCah4bEBX4CtJsnryRYkNb8WS2ND6vpOoJMNshvf/rqty+yVAtXrBxZtt
+TkWfurp7suS/H0kOwSvv9d1mS5V6ndWnR4gpPJp+WsxsEJFAX0CkZlDUUB/GF5l
+z/CP/SvcCdMX9q4jCK8AZ5bOr0Dq32+PcnDh1WvVKMp1PBrODRLSQt0P+34zOUx
AnPF7miKZT80hjp+t8NXJZedzoxwIUPFNkZOFWWb0XKKUM0AU3tqjecSA8hw3Sk5
VIo9OPr2axjBcQwK0vTK/VBo+IJMCUo5i2YfhbNVKC4ckcvop4xRdk9eZ1af0LBL
Cs10QcfMA3eUP1CW+SxzeoJjp28jWp5+/XnHFUMLRZzThZZxNVzm1cpO/Zxb3pwP
ZBSePwJi6d1wVGM5MA4ciiVakIA4PIndPN3xB1ThOv7vvAiRExAKMUlq4MveCL/4
CQIDAQABo4IBYzCCAV8wCQYDVR0TBAIwADAtBglghkgBhvhCAQ0EIBYeRWFzeS1S
U0EgR2VuZXJhdGVkIENlcnRpZmljYXRlMB0GA1UdDgQWBBSyzrWz2hj8F2x2eS+O
v6Qy+IE7TTCB4QYDVR0jBIHZMIHWgBQSzWAE0qCAnnDtxpm4eyzGUv0ZoaGBsqSB
rzCBrDELMAkGA1UEBhMCVVMxCzAJBgNVBAgTAk9IMREwDwYDVQQHEwhDb2x1bWJ1
czESMBAGA1UEChMJVmlraW5nVlBOMR0wGwYDVQQLExRNeU9yZ2FuaXphdGlvbmFs
VW5pdDEVMBMGA1UEAxMMVmlraW5nVlBOIENBMRAwDgYDVQQpEwdFYXN5UlNBMSEw
HwYJKoZIhvcNAQkBFhJtZUBteWhvc3QubXlkb21haW6CCQDPNYXugL8qPjATBgNV
HSUEDDAKBggrBgEFBQcDAjALBgNVHQ8EBAMCB4AwDQYJKoZIhvcNAQEEBQADggIB
AFfdx3ft/jN4gXtQrj9I3HUAU8fCSWPE+V92678Vk72i7mScr7q6hYzYPazb7K/y
zT9fZIlG/IAXKHLD37zJ5vC+L938nQb88VX1Qh45cQFak6euv1xh5CTy7PTdpHGE
WyfYQtm7OH2oKCVSZ1aD4oT5CAiXEBAEu5UKpqjvE8PCj20/roZu0vSVAqkbowG0
KcSaoFTa5386rnef7gBd1zOQdDf8mdsYGUT8pQ8fibu2uP+2QYkxrq6DMyj7Psj1
ZYXyR6/8MQ6H0cfH+nNohfPlapggkKjw2fsd+pzYW/vaFMEbaQeLv83w6jQSLKpA
pu8EMd8R+3cXGfWhRNVvh3LzJzq988VW4w0KwCupSmd03sXZbfob5CQO766I5+Gz
q+VyYDwcCEOQEyT3LLs+oi3zjOf8oyeSrh9JZdrLuzRQ4I3Key0/axJTD+1yC0pN
noJp7vNkRxUhTknEVRfWIgfoynYUQluqPoWamw40MDQwuCn5roDMJhBpFDjku07I
FrQwTSMhMGy4dDwwrPVZEcnpQW7y74RpvdvcFbR8EPbmPzYH3DS9dGyMHfOU4zD/
Xhcs/LdLVOHOrru7jsRV1+7/099NZCrkxsB1gcXwpF8fQxLxmQmQiAzREBa09w71
Q/TXun1G2/qqw+VM8mxMPCQH6GKxtGZZuwTrBSKonPEL
-----END CERTIFICATE-----
