Certificate:
    Data:
        Version: 3 (0x2)
        Serial Number: 6835 (0x1ab3)
    Signature Algorithm: md5WithRSAEncryption
        Issuer: C=US, ST=OH, L=Columbus, O=VikingVPN, OU=MyOrganizationalUnit, CN=VikingVPN CA/name=EasyRSA/emailAddress=me@myhost.mydomain
        Validity
            Not Before: Dec  4 03:32:49 2015 GMT
            Not After : Dec  1 03:32:49 2025 GMT
        Subject: CN=Client1364Cert5d89eb
        Subject Public Key Info:
            Public Key Algorithm: rsaEncryption
                Public-Key: (4096 bit)
                Modulus:
                    00:f2:2a:49:09:a1:03:98:d9:f0:02:88:ab:9b:34:
                    3c:45:9b:b3:41:de:19:bc:7c:29:17:b9:30:30:6f:
                    6f:c3:cf:1c:5e:97:4a:23:35:01:8e:75:3c:bb:33:
                    b6:65:60:46:b8:de:d7:1d:2a:ad:88:d1:a3:f1:c9:
                    1d:f0:37:f5:5f:74:89:94:d5:74:47:6e:c5:70:2f:
                    7c:c9:92:b2:46:ae:e7:6c:dc:f9:94:45:30:15:eb:
                    55:db:71:f9:c1:ad:bd:30:69:06:00:96:02:ef:e9:
                    43:b6:37:02:3d:a8:1f:eb:d7:b8:dd:5d:63:97:25:
                    9e:f6:b6:ad:01:03:9f:e8:a0:15:a0:b2:e0:51:e2:
                    a0:44:71:a1:7e:8a:c8:45:8b:34:67:bf:f6:96:81:
                    60:bc:61:8a:50:6a:ef:00:c3:c4:17:44:1f:b8:d2:
                    ab:8e:39:c6:ef:6d:10:20:6e:10:ee:0e:b7:c5:f0:
                    93:a4:0b:66:6e:79:42:de:14:71:9f:6f:a3:b9:69:
                    8f:e5:d9:9d:53:1c:4a:d0:44:7c:3e:a3:ac:4b:06:
                    53:1c:07:b1:85:b2:0a:46:43:c3:0a:9e:97:a2:77:
                    13:da:06:30:da:87:b3:0a:63:ce:63:d3:43:b9:45:
                    5d:02:23:35:55:b5:6f:9a:d3:75:b0:d7:5e:7f:bc:
                    82:05:5d:60:35:35:d7:bf:64:e0:81:b2:f6:e7:8d:
                    d7:57:01:21:e2:c1:38:7e:df:39:c7:8f:81:8c:6d:
                    7e:3f:6b:31:27:0f:04:3e:1b:3d:0f:5e:76:b7:56:
                    fd:03:0f:d2:c9:6d:8b:a3:e6:4a:7c:eb:ea:6a:3f:
                    e4:67:21:71:84:7c:37:03:f7:79:c1:a5:f5:e7:93:
                    8b:11:7b:de:11:2a:98:ef:5c:71:91:89:a4:38:ef:
                    cd:aa:13:9f:b2:f1:de:dc:b9:5f:98:a1:7a:09:6a:
                    78:bb:e5:d4:f5:02:88:8f:8d:bc:fe:b8:0c:72:66:
                    1e:ba:7a:0b:6b:f4:67:9a:d2:77:ca:8f:36:72:2a:
                    c8:3a:b3:34:5d:87:02:9f:fd:0a:07:d6:17:74:51:
                    0c:27:aa:ad:f2:18:66:88:51:64:22:19:81:4c:7e:
                    6c:58:7f:a3:79:b4:df:1e:cc:2a:f5:0c:78:36:82:
                    7a:f4:5c:26:b7:35:76:31:f2:37:52:c2:ec:cf:a5:
                    2d:7e:8a:7d:22:53:19:d3:c6:1f:d3:e9:e5:98:d9:
                    05:c3:54:a4:3d:fc:1d:f9:96:aa:6b:2c:17:92:de:
                    d6:0f:02:d3:c9:ae:96:51:f0:43:68:ff:56:e1:e4:
                    84:eb:06:1c:3e:b4:64:b5:9e:86:99:a2:44:ce:f1:
                    92:8d:19
                Exponent: 65537 (0x10001)
        X509v3 extensions:
            X509v3 Basic Constraints: 
                CA:FALSE
            Netscape Comment: 
                Easy-RSA Generated Certificate
            X509v3 Subject Key Identifier: 
                E7:B8:55:22:38:56:81:34:7F:A5:74:A4:18:72:AF:99:2B:76:1B:07
            X509v3 Authority Key Identifier: 
                keyid:12:CD:60:04:D2:A0:80:9E:70:ED:C6:99:B8:7B:2C:C6:52:FD:19:A1
                DirName:/C=US/ST=OH/L=Columbus/O=VikingVPN/OU=MyOrganizationalUnit/CN=VikingVPN CA/name=EasyRSA/emailAddress=me@myhost.mydomain
                serial:CF:35:85:EE:80:BF:2A:3E

            X509v3 Extended Key Usage: 
                TLS Web Client Authentication
            X509v3 Key Usage: 
                Digital Signature
    Signature Algorithm: md5WithRSAEncryption
         12:3d:83:ed:34:2f:bb:34:3c:54:14:eb:40:d7:e2:f8:a1:a6:
         90:73:b3:07:47:9e:e5:b0:1e:c1:b6:7a:f3:96:d6:5e:21:f2:
         9d:d7:76:aa:78:ad:e0:16:11:cd:ed:72:49:6c:03:a3:ec:8e:
         a1:48:07:20:c8:2d:f3:9d:34:3f:41:ba:0e:2c:c9:02:55:82:
         5c:6f:89:d2:2d:ba:20:38:3c:18:df:6f:66:8d:7e:ad:82:d1:
         fc:2b:9f:ef:44:51:a5:83:c3:c7:ff:38:35:46:ae:e7:a7:b2:
         dd:9f:29:4a:ed:bb:d2:81:d7:c6:58:3f:ec:1c:88:93:75:82:
         41:03:08:2d:b2:66:b7:55:d5:ba:b8:94:d1:94:ff:88:54:18:
         d2:e5:7f:ba:3f:0c:c5:ae:88:7b:c8:34:f9:57:0c:74:42:ef:
         7e:b7:ca:f5:14:c7:d0:52:44:00:53:d5:88:63:6c:19:a1:e9:
         b3:e8:36:0b:73:40:5a:92:d1:ed:44:2e:1c:dd:c4:64:d7:91:
         55:b6:4b:dc:97:80:44:95:8d:17:0c:9c:b1:df:59:29:a8:54:
         d2:ac:95:ac:dc:cf:42:33:96:8f:24:3e:16:4b:7a:f2:40:2a:
         22:83:65:13:df:51:4c:dd:4d:6e:84:26:0b:b5:a0:f8:8b:8e:
         30:02:28:93:53:05:a4:c2:a8:b1:d6:15:89:87:6b:0c:26:63:
         2e:92:9d:f7:41:a8:d4:46:c3:80:ee:9f:e6:48:66:df:84:05:
         dd:4e:15:7c:52:3e:b9:bf:33:4d:b2:96:44:12:33:54:f5:d7:
         7e:3b:a2:0b:32:46:00:89:c7:48:c3:5d:79:58:f1:56:32:c0:
         7b:f7:b5:7a:9c:be:c3:87:ab:8b:3e:0a:08:87:52:97:ad:1c:
         47:38:38:2b:44:2c:65:ff:bc:4f:8e:60:a3:86:c5:00:60:0c:
         24:47:9f:31:e6:e3:13:1c:13:8a:c2:a1:69:e8:c9:0c:a9:3b:
         0e:c1:a2:ee:46:a3:de:01:57:a7:6a:45:42:7b:b2:ce:57:87:
         bc:3c:32:e5:3a:c8:74:a8:cf:a8:e5:40:03:ac:df:de:12:7a:
         96:b4:f6:96:11:aa:0f:d4:61:54:e7:17:1c:18:47:f9:9d:5f:
         60:70:6b:ba:6c:17:7a:9d:2b:15:59:1e:1d:c4:91:2f:dc:ae:
         0d:da:1c:87:a8:e2:7d:8d:76:9e:1e:14:5b:02:1a:1a:04:72:
         50:79:b3:f8:67:60:81:b0:11:ad:fc:85:be:75:4e:8b:a0:7f:
         38:4f:9f:bb:44:39:70:8a:1a:78:30:d5:b5:46:a0:65:4a:7e:
         9e:62:5a:65:8a:a2:01:2f
-----BEGIN CERTIFICATE-----
MIIGrTCCBJWgAwIBAgICGrMwDQYJKoZIhvcNAQEEBQAwgawxCzAJBgNVBAYTAlVT
MQswCQYDVQQIEwJPSDERMA8GA1UEBxMIQ29sdW1idXMxEjAQBgNVBAoTCVZpa2lu
Z1ZQTjEdMBsGA1UECxMUTXlPcmdhbml6YXRpb25hbFVuaXQxFTATBgNVBAMTDFZp
a2luZ1ZQTiBDQTEQMA4GA1UEKRMHRWFzeVJTQTEhMB8GCSqGSIb3DQEJARYSbWVA
bXlob3N0Lm15ZG9tYWluMB4XDTE1MTIwNDAzMzI0OVoXDTI1MTIwMTAzMzI0OVow
HzEdMBsGA1UEAxMUQ2xpZW50MTM2NENlcnQ1ZDg5ZWIwggIiMA0GCSqGSIb3DQEB
AQUAA4ICDwAwggIKAoICAQDyKkkJoQOY2fACiKubNDxFm7NB3hm8fCkXuTAwb2/D
zxxel0ojNQGOdTy7M7ZlYEa43tcdKq2I0aPxyR3wN/VfdImU1XRHbsVwL3zJkrJG
ruds3PmURTAV61XbcfnBrb0waQYAlgLv6UO2NwI9qB/r17jdXWOXJZ72tq0BA5/o
oBWgsuBR4qBEcaF+ishFizRnv/aWgWC8YYpQau8Aw8QXRB+40quOOcbvbRAgbhDu
DrfF8JOkC2ZueULeFHGfb6O5aY/l2Z1THErQRHw+o6xLBlMcB7GFsgpGQ8MKnpei
dxPaBjDah7MKY85j00O5RV0CIzVVtW+a03Ww115/vIIFXWA1Nde/ZOCBsvbnjddX
ASHiwTh+3znHj4GMbX4/azEnDwQ+Gz0PXna3Vv0DD9LJbYuj5kp86+pqP+RnIXGE
fDcD93nBpfXnk4sRe94RKpjvXHGRiaQ4782qE5+y8d7cuV+YoXoJani75dT1AoiP
jbz+uAxyZh66egtr9Gea0nfKjzZyKsg6szRdhwKf/QoH1hd0UQwnqq3yGGaIUWQi
GYFMfmxYf6N5tN8ezCr1DHg2gnr0XCa3NXYx8jdSwuzPpS1+in0iUxnTxh/T6eWY
2QXDVKQ9/B35lqprLBeS3tYPAtPJrpZR8ENo/1bh5ITrBhw+tGS1noaZokTO8ZKN
GQIDAQABo4IBYzCCAV8wCQYDVR0TBAIwADAtBglghkgBhvhCAQ0EIBYeRWFzeS1S
U0EgR2VuZXJhdGVkIENlcnRpZmljYXRlMB0GA1UdDgQWBBTnuFUiOFaBNH+ldKQY
cq+ZK3YbBzCB4QYDVR0jBIHZMIHWgBQSzWAE0qCAnnDtxpm4eyzGUv0ZoaGBsqSB
rzCBrDELMAkGA1UEBhMCVVMxCzAJBgNVBAgTAk9IMREwDwYDVQQHEwhDb2x1bWJ1
czESMBAGA1UEChMJVmlraW5nVlBOMR0wGwYDVQQLExRNeU9yZ2FuaXphdGlvbmFs
VW5pdDEVMBMGA1UEAxMMVmlraW5nVlBOIENBMRAwDgYDVQQpEwdFYXN5UlNBMSEw
HwYJKoZIhvcNAQkBFhJtZUBteWhvc3QubXlkb21haW6CCQDPNYXugL8qPjATBgNV
HSUEDDAKBggrBgEFBQcDAjALBgNVHQ8EBAMCB4AwDQYJKoZIhvcNAQEEBQADggIB
ABI9g+00L7s0PFQU60DX4vihppBzswdHnuWwHsG2evOW1l4h8p3Xdqp4reAWEc3t
cklsA6PsjqFIByDILfOdND9Bug4syQJVglxvidItuiA4PBjfb2aNfq2C0fwrn+9E
UaWDw8f/ODVGruenst2fKUrtu9KB18ZYP+wciJN1gkEDCC2yZrdV1bq4lNGU/4hU
GNLlf7o/DMWuiHvINPlXDHRC7363yvUUx9BSRABT1YhjbBmh6bPoNgtzQFqS0e1E
LhzdxGTXkVW2S9yXgESVjRcMnLHfWSmoVNKslazcz0Izlo8kPhZLevJAKiKDZRPf
UUzdTW6EJgu1oPiLjjACKJNTBaTCqLHWFYmHawwmYy6SnfdBqNRGw4Dun+ZIZt+E
Bd1OFXxSPrm/M02ylkQSM1T11347ogsyRgCJx0jDXXlY8VYywHv3tXqcvsOHq4s+
CgiHUpetHEc4OCtELGX/vE+OYKOGxQBgDCRHnzHm4xMcE4rCoWnoyQypOw7Bou5G
o94BV6dqRUJ7ss5Xh7w8MuU6yHSoz6jlQAOs394Sepa09pYRqg/UYVTnFxwYR/md
X2Bwa7psF3qdKxVZHh3EkS/crg3aHIeo4n2Ndp4eFFsCGhoEclB5s/hnYIGwEa38
hb51TougfzhPn7tEOXCKGngw1bVGoGVKfp5iWmWKogEv
-----END CERTIFICATE-----
