Certificate:
    Data:
        Version: 3 (0x2)
        Serial Number: 6839 (0x1ab7)
    Signature Algorithm: md5WithRSAEncryption
        Issuer: C=US, ST=OH, L=Columbus, O=VikingVPN, OU=MyOrganizationalUnit, CN=VikingVPN CA/name=EasyRSA/emailAddress=me@myhost.mydomain
        Validity
            Not Before: Dec  4 10:55:15 2015 GMT
            Not After : Dec  1 10:55:15 2025 GMT
        Subject: CN=Client2093Certab871b
        Subject Public Key Info:
            Public Key Algorithm: rsaEncryption
                Public-Key: (4096 bit)
                Modulus:
                    00:bc:2b:67:57:b6:12:d8:39:d0:dd:d1:f8:9c:ea:
                    9b:1b:4b:46:33:0b:3c:cf:3c:60:1f:a0:22:83:83:
                    52:be:10:d7:9c:0c:67:14:ea:9f:54:93:dc:36:9a:
                    37:7c:05:5a:99:6a:5c:4a:fd:9e:5c:e2:62:4a:2b:
                    1e:44:f0:5e:ae:3b:7b:40:12:26:c9:45:7d:42:0b:
                    a0:82:21:99:59:cb:78:31:16:2b:4a:32:ca:3b:c2:
                    6f:4c:96:f6:4e:35:51:77:c3:ad:c3:55:31:22:72:
                    ac:d3:36:fd:c9:c2:6e:8f:35:04:03:fb:fb:f4:36:
                    92:ce:0b:a6:d0:ea:8d:c1:b9:0f:fe:60:a7:c7:71:
                    db:bb:c1:ed:33:4a:fb:29:a6:61:96:1a:8c:4b:46:
                    3e:14:a7:3b:93:99:55:07:2d:55:34:47:27:f6:36:
                    0d:11:94:21:48:aa:0f:33:b6:2a:b0:78:1d:03:13:
                    54:50:f8:bd:f6:aa:61:04:f2:4b:da:0d:8a:0a:90:
                    13:3a:3f:34:bb:ff:6e:42:da:d7:f8:d9:3b:f6:b0:
                    c5:50:69:d6:71:b5:e7:98:72:7a:ff:91:9d:7a:70:
                    0c:f7:7f:3b:50:d5:55:2d:64:11:77:45:ee:6a:0e:
                    98:3b:3f:ab:fa:11:a0:bd:be:39:e6:e0:20:40:3b:
                    3e:fa:67:33:14:8b:e8:9a:0f:ca:72:be:ac:e0:d0:
                    5e:b0:74:f2:79:33:5a:85:92:0c:23:bd:81:11:62:
                    a4:f2:63:74:ee:17:3a:4e:9b:79:3f:15:2d:4d:f3:
                    e5:8c:6f:1b:c0:6c:4b:d8:97:bc:74:1c:b7:3d:1b:
                    8a:91:1b:3c:38:d9:71:d2:a4:df:da:4a:35:11:40:
                    e9:58:13:35:5a:02:93:d8:ea:a9:f0:e9:a5:7a:f6:
                    ae:8b:da:3a:d5:1e:97:a8:a2:cc:79:f7:31:4f:4e:
                    d6:49:43:0c:46:6a:1f:63:6c:89:61:7f:a6:86:8f:
                    80:09:75:94:5a:b8:7b:ba:d9:67:de:a2:b1:b4:bd:
                    b0:ce:d7:50:c2:21:cf:5e:38:9b:dd:ed:8b:17:d5:
                    ff:a9:12:09:d6:cf:e6:5b:b6:d0:60:a3:0a:99:fb:
                    bd:2d:81:a2:83:30:42:b6:15:bb:ad:95:42:95:8e:
                    8f:73:9a:f4:57:02:b4:3f:09:26:3e:35:0d:d3:8c:
                    1d:5a:4c:fc:09:e8:b8:c9:07:53:2b:70:46:33:10:
                    58:c6:c5:c5:ca:2c:b3:4a:d3:6c:0e:80:99:b1:ef:
                    5e:63:12:4d:a9:fd:74:02:f7:55:e1:8c:5b:51:b9:
                    55:26:3e:5f:28:56:a5:99:50:56:e8:bf:a0:e5:51:
                    a8:32:43
                Exponent: 65537 (0x10001)
        X509v3 extensions:
            X509v3 Basic Constraints: 
                CA:FALSE
            Netscape Comment: 
                Easy-RSA Generated Certificate
            X509v3 Subject Key Identifier: 
                E7:8A:59:9F:0B:08:27:F3:E1:DB:39:BE:9C:64:D5:8E:13:9B:07:21
            X509v3 Authority Key Identifier: 
                keyid:12:CD:60:04:D2:A0:80:9E:70:ED:C6:99:B8:7B:2C:C6:52:FD:19:A1
                DirName:/C=US/ST=OH/L=Columbus/O=VikingVPN/OU=MyOrganizationalUnit/CN=VikingVPN CA/name=EasyRSA/emailAddress=me@myhost.mydomain
                serial:CF:35:85:EE:80:BF:2A:3E

            X509v3 Extended Key Usage: 
                TLS Web Client Authentication
            X509v3 Key Usage: 
                Digital Signature
    Signature Algorithm: md5WithRSAEncryption
         3c:6d:75:39:7e:fc:73:6f:52:87:c8:28:35:b8:ef:e5:26:f2:
         4b:2c:7f:60:3f:71:55:a7:91:e4:b4:49:2b:5c:0c:0f:a6:6f:
         f1:e6:fe:06:ff:0f:7e:94:62:4e:89:97:cd:cf:e5:65:3d:d4:
         24:b1:01:b6:c0:cd:d4:8a:a6:2c:37:20:a8:c6:60:a8:d3:49:
         81:7a:56:6d:fe:1c:a3:42:a6:f8:6e:39:cb:82:e0:9b:92:7b:
         76:98:3e:58:cc:1c:47:35:17:7e:30:42:7a:45:a0:68:22:79:
         6b:67:f1:e7:a6:cc:c6:ea:64:47:c6:e8:d4:ee:e1:72:1e:74:
         70:20:45:a6:9f:28:c7:88:38:8d:ea:0e:f8:2d:08:fd:0b:d8:
         c7:15:3a:7c:41:31:e0:6a:fb:5b:0a:16:80:b6:8b:bc:a5:b8:
         03:2a:c9:7a:cd:c3:f4:db:2c:cb:3c:f7:58:fb:5f:e2:44:37:
         11:d5:ab:37:92:c8:69:08:ff:75:0a:ee:e6:64:2d:59:f5:b4:
         ae:8c:cf:f4:76:27:06:89:31:9d:3f:b9:01:44:76:b0:0b:38:
         72:83:aa:91:c2:65:32:f4:b9:e1:82:82:cf:97:4a:a4:40:0a:
         50:f1:87:7e:dc:03:69:91:a1:21:d5:42:a4:73:3b:06:dd:a0:
         a9:71:9b:21:13:51:62:a3:a5:8d:c9:04:c5:b7:5f:92:41:8c:
         0d:89:c1:f7:8c:1a:28:74:41:bf:e8:1c:c3:7b:2b:e4:62:bc:
         13:7e:6b:ef:b5:5d:36:22:77:96:31:97:1d:63:c9:22:02:68:
         4c:79:41:e0:4b:7c:04:97:6a:0f:89:23:1a:a4:86:ec:fb:73:
         ca:24:ba:0c:29:f8:8b:bc:23:86:48:ab:f8:fa:fc:7b:4d:6d:
         26:32:2f:1d:f3:60:1e:02:f0:00:b6:f3:6f:42:da:db:c4:11:
         56:2e:a1:6d:36:35:f6:25:6f:2d:bf:f8:0a:cd:d9:60:f5:22:
         fe:9d:9b:b8:36:59:48:54:a0:d7:82:10:01:5d:71:b7:2c:02:
         a4:96:5f:60:62:45:6f:df:3e:0a:93:49:96:25:da:03:7c:78:
         1b:58:d1:2f:75:01:9a:7b:b4:92:45:05:3d:02:f4:fb:2c:f6:
         4c:f0:4b:47:dc:53:95:8e:71:a1:c8:3d:a5:95:74:1b:29:2c:
         11:02:87:8a:46:c8:bd:39:d3:fd:e4:c6:6e:aa:b1:b5:62:62:
         c9:09:9b:16:8e:5d:cd:96:8c:34:28:cc:13:96:f5:c3:71:3c:
         c1:a2:5c:6e:2e:ce:a1:33:44:5f:88:4e:bf:a1:83:e5:af:ad:
         38:0d:fc:31:70:e4:31:20
-----BEGIN CERTIFICATE-----
MIIGrTCCBJWgAwIBAgICGrcwDQYJKoZIhvcNAQEEBQAwgawxCzAJBgNVBAYTAlVT
MQswCQYDVQQIEwJPSDERMA8GA1UEBxMIQ29sdW1idXMxEjAQBgNVBAoTCVZpa2lu
Z1ZQTjEdMBsGA1UECxMUTXlPcmdhbml6YXRpb25hbFVuaXQxFTATBgNVBAMTDFZp
a2luZ1ZQTiBDQTEQMA4GA1UEKRMHRWFzeVJTQTEhMB8GCSqGSIb3DQEJARYSbWVA
bXlob3N0Lm15ZG9tYWluMB4XDTE1MTIwNDEwNTUxNVoXDTI1MTIwMTEwNTUxNVow
HzEdMBsGA1UEAxMUQ2xpZW50MjA5M0NlcnRhYjg3MWIwggIiMA0GCSqGSIb3DQEB
AQUAA4ICDwAwggIKAoICAQC8K2dXthLYOdDd0fic6psbS0YzCzzPPGAfoCKDg1K+
ENecDGcU6p9Uk9w2mjd8BVqZalxK/Z5c4mJKKx5E8F6uO3tAEibJRX1CC6CCIZlZ
y3gxFitKMso7wm9MlvZONVF3w63DVTEicqzTNv3Jwm6PNQQD+/v0NpLOC6bQ6o3B
uQ/+YKfHcdu7we0zSvsppmGWGoxLRj4UpzuTmVUHLVU0Ryf2Ng0RlCFIqg8ztiqw
eB0DE1RQ+L32qmEE8kvaDYoKkBM6PzS7/25C2tf42Tv2sMVQadZxteeYcnr/kZ16
cAz3fztQ1VUtZBF3Re5qDpg7P6v6EaC9vjnm4CBAOz76ZzMUi+iaD8pyvqzg0F6w
dPJ5M1qFkgwjvYERYqTyY3TuFzpOm3k/FS1N8+WMbxvAbEvYl7x0HLc9G4qRGzw4
2XHSpN/aSjURQOlYEzVaApPY6qnw6aV69q6L2jrVHpeoosx59zFPTtZJQwxGah9j
bIlhf6aGj4AJdZRauHu62WfeorG0vbDO11DCIc9eOJvd7YsX1f+pEgnWz+ZbttBg
owqZ+70tgaKDMEK2FbutlUKVjo9zmvRXArQ/CSY+NQ3TjB1aTPwJ6LjJB1MrcEYz
EFjGxcXKLLNK02wOgJmx715jEk2p/XQC91XhjFtRuVUmPl8oVqWZUFbov6DlUagy
QwIDAQABo4IBYzCCAV8wCQYDVR0TBAIwADAtBglghkgBhvhCAQ0EIBYeRWFzeS1S
U0EgR2VuZXJhdGVkIENlcnRpZmljYXRlMB0GA1UdDgQWBBTnilmfCwgn8+HbOb6c
ZNWOE5sHITCB4QYDVR0jBIHZMIHWgBQSzWAE0qCAnnDtxpm4eyzGUv0ZoaGBsqSB
rzCBrDELMAkGA1UEBhMCVVMxCzAJBgNVBAgTAk9IMREwDwYDVQQHEwhDb2x1bWJ1
czESMBAGA1UEChMJVmlraW5nVlBOMR0wGwYDVQQLExRNeU9yZ2FuaXphdGlvbmFs
VW5pdDEVMBMGA1UEAxMMVmlraW5nVlBOIENBMRAwDgYDVQQpEwdFYXN5UlNBMSEw
HwYJKoZIhvcNAQkBFhJtZUBteWhvc3QubXlkb21haW6CCQDPNYXugL8qPjATBgNV
HSUEDDAKBggrBgEFBQcDAjALBgNVHQ8EBAMCB4AwDQYJKoZIhvcNAQEEBQADggIB
ADxtdTl+/HNvUofIKDW47+Um8kssf2A/cVWnkeS0SStcDA+mb/Hm/gb/D36UYk6J
l83P5WU91CSxAbbAzdSKpiw3IKjGYKjTSYF6Vm3+HKNCpvhuOcuC4JuSe3aYPljM
HEc1F34wQnpFoGgieWtn8eemzMbqZEfG6NTu4XIedHAgRaafKMeIOI3qDvgtCP0L
2McVOnxBMeBq+1sKFoC2i7yluAMqyXrNw/TbLMs891j7X+JENxHVqzeSyGkI/3UK
7uZkLVn1tK6Mz/R2JwaJMZ0/uQFEdrALOHKDqpHCZTL0ueGCgs+XSqRAClDxh37c
A2mRoSHVQqRzOwbdoKlxmyETUWKjpY3JBMW3X5JBjA2JwfeMGih0Qb/oHMN7K+Ri
vBN+a++1XTYid5Yxlx1jySICaEx5QeBLfASXag+JIxqkhuz7c8okugwp+Iu8I4ZI
q/j6/HtNbSYyLx3zYB4C8AC2829C2tvEEVYuoW02NfYlby2/+ArN2WD1Iv6dm7g2
WUhUoNeCEAFdcbcsAqSWX2BiRW/fPgqTSZYl2gN8eBtY0S91AZp7tJJFBT0C9Pss
9kzwS0fcU5WOcaHIPaWVdBspLBECh4pGyL050/3kxm6qsbViYskJmxaOXc2WjDQo
zBOW9cNxPMGiXG4uzqEzRF+ITr+hg+WvrTgN/DFw5DEg
-----END CERTIFICATE-----
