Certificate:
    Data:
        Version: 3 (0x2)
        Serial Number: 6868 (0x1ad4)
    Signature Algorithm: md5WithRSAEncryption
        Issuer: C=US, ST=OH, L=Columbus, O=VikingVPN, OU=MyOrganizationalUnit, CN=VikingVPN CA/name=EasyRSA/emailAddress=me@myhost.mydomain
        Validity
            Not Before: Dec  9 11:42:15 2015 GMT
            Not After : Dec  6 11:42:15 2025 GMT
        Subject: CN=Client1160Cert0e6f2e
        Subject Public Key Info:
            Public Key Algorithm: rsaEncryption
                Public-Key: (4096 bit)
                Modulus:
                    00:99:1f:43:75:6c:14:de:7c:ea:a7:72:e6:1b:07:
                    79:27:be:e2:b9:0d:6a:94:ec:da:60:50:dc:37:e6:
                    78:98:08:09:0e:cc:c7:68:2b:6c:49:e5:46:d6:62:
                    4c:be:17:bb:27:17:dc:6c:7b:18:47:3e:a6:7f:c5:
                    9e:d0:78:42:f7:8a:ad:ca:68:e7:09:31:1d:97:a4:
                    e7:36:a3:b9:da:33:05:9f:07:4b:d4:80:98:0d:6f:
                    b0:bc:01:e7:1a:f7:b5:14:38:5a:d5:f9:43:25:1c:
                    f4:6f:14:82:55:3d:6d:0e:8e:10:0e:11:fa:fa:c2:
                    58:14:7b:a1:76:87:ce:f0:e3:6b:1f:9a:b4:c6:cb:
                    13:42:3d:5b:1b:ae:e5:52:37:10:d0:1a:e1:87:b0:
                    a8:5b:93:75:cc:cb:65:d7:bb:ed:c1:3e:36:64:c1:
                    b6:04:d7:5a:1c:e1:b1:3a:cd:e2:c8:f7:71:47:c3:
                    83:e1:a3:48:6e:8e:f6:3c:d0:21:fb:fa:3d:e0:48:
                    37:07:08:98:52:cc:28:a9:14:87:e8:b2:35:47:2f:
                    83:9a:4a:64:9f:3b:37:28:d9:22:2b:18:45:a8:e0:
                    56:c6:8a:b3:47:f0:ad:91:a1:2d:34:c1:98:bb:ca:
                    66:b7:f2:f8:41:61:3c:c5:d0:e9:b4:0f:d6:ff:f4:
                    62:c0:17:b3:70:6d:08:e1:e6:4f:56:63:34:32:ac:
                    7e:fc:ec:3a:2f:59:e2:e9:1e:f1:3c:25:61:87:7a:
                    3a:1e:ea:b0:35:3b:fe:12:42:10:c8:55:9e:7c:3d:
                    cc:ea:53:8c:0f:64:fa:1a:1d:a1:6e:76:24:93:b1:
                    28:9e:48:e0:bb:d9:7f:b0:fd:56:9d:cf:74:22:98:
                    9f:f7:db:80:a6:ea:36:21:42:d1:a6:1c:9c:e9:e4:
                    5f:dc:07:77:48:c0:78:51:b6:64:f0:0f:fd:22:62:
                    e2:93:6e:64:6d:25:03:9c:aa:bb:71:16:ca:fd:c4:
                    9b:95:52:14:17:b9:42:fb:48:80:39:d5:f5:12:a7:
                    51:5d:9a:32:a8:eb:8f:dc:94:4a:bb:aa:0d:20:24:
                    01:62:a2:5a:d9:b2:33:65:0e:e7:9a:ba:83:9c:a7:
                    f6:9b:f4:b6:86:51:90:98:41:78:5a:01:f1:88:4a:
                    cd:a6:fd:93:9b:fe:b1:d7:d9:bb:1d:93:6e:f3:b4:
                    eb:32:34:ae:6a:ad:26:32:8f:95:b3:63:08:98:fa:
                    78:5f:f1:d0:c0:19:5f:69:60:4e:f0:61:09:03:fd:
                    4f:8c:95:c5:c5:ed:f9:c8:26:80:65:f9:89:2a:c2:
                    e4:4b:9a:52:25:13:88:ec:80:1f:31:45:a5:e6:99:
                    28:3d:71
                Exponent: 65537 (0x10001)
        X509v3 extensions:
            X509v3 Basic Constraints: 
                CA:FALSE
            Netscape Comment: 
                Easy-RSA Generated Certificate
            X509v3 Subject Key Identifier: 
                BE:BA:9E:E5:96:B3:2C:C5:20:40:D1:F0:87:DE:50:EE:9E:0E:95:F8
            X509v3 Authority Key Identifier: 
                keyid:12:CD:60:04:D2:A0:80:9E:70:ED:C6:99:B8:7B:2C:C6:52:FD:19:A1
                DirName:/C=US/ST=OH/L=Columbus/O=VikingVPN/OU=MyOrganizationalUnit/CN=VikingVPN CA/name=EasyRSA/emailAddress=me@myhost.mydomain
                serial:CF:35:85:EE:80:BF:2A:3E

            X509v3 Extended Key Usage: 
                TLS Web Client Authentication
            X509v3 Key Usage: 
                Digital Signature
    Signature Algorithm: md5WithRSAEncryption
         3b:20:da:05:98:78:9c:45:e4:e9:cf:76:d3:53:ef:d9:86:92:
         e9:d8:a0:1b:62:6d:36:1c:5c:fc:b4:d0:f1:6b:da:1d:bd:b3:
         90:6e:c0:b4:cb:10:2b:0a:a0:f5:7e:ee:46:e6:98:92:d8:e5:
         e2:f8:59:9b:8d:30:76:84:a0:95:96:83:ff:a5:5d:fc:bf:47:
         36:76:d3:9b:83:c0:a0:79:0e:81:8c:16:4c:df:93:53:ff:05:
         fc:f2:c0:5f:19:6a:64:24:dd:a6:03:f2:4d:3b:02:be:cc:22:
         ba:d3:5a:37:31:b6:eb:16:8f:f9:da:ca:63:17:a4:ac:f1:e1:
         d4:8e:2e:2b:14:bd:cd:11:4c:7e:2a:f2:b1:c2:22:44:12:43:
         c9:11:39:52:0b:da:f3:fc:39:67:95:84:0c:66:d1:4c:58:ed:
         a3:0a:65:89:4c:08:b2:5f:55:fe:e9:f1:79:44:d1:c0:df:52:
         fb:26:8a:e4:5c:70:92:10:67:4b:fd:a9:6e:01:9d:ec:27:ce:
         e1:dd:95:5e:e7:46:0b:14:7c:76:e8:09:b9:0a:61:9b:e3:dd:
         f0:ba:db:3a:89:94:af:82:b6:b5:0c:7a:fc:ba:d1:4b:eb:88:
         0f:41:b7:51:c5:a9:7b:9a:25:d4:9a:b4:59:a5:6b:c5:30:60:
         11:82:de:2d:73:9f:7c:dd:5f:c4:b1:8c:b1:f8:a1:e4:34:cd:
         73:dd:63:46:b5:d4:14:f3:07:9f:0b:d9:44:4c:98:d6:f8:32:
         b0:e1:d3:fc:42:0f:93:61:b5:ef:d5:e9:88:d7:fe:ea:54:84:
         50:69:4c:2e:0e:77:6a:51:9f:5b:36:ae:ba:b0:79:d4:53:cb:
         70:a7:1c:26:cd:c5:6f:e9:37:be:75:d0:f0:e0:2f:06:70:87:
         12:1a:5c:6c:77:80:07:cb:17:1e:7c:56:42:84:03:65:84:f5:
         9d:a4:62:6c:02:ac:b8:e4:e0:49:3f:85:0e:23:95:89:83:bc:
         01:f9:58:2d:70:e8:35:74:b6:7a:72:bc:e6:a5:9f:d9:ca:7d:
         a1:13:11:26:4e:ce:ea:34:00:81:c7:af:fd:e9:af:21:65:ee:
         a6:35:29:62:2b:0b:20:62:29:35:ba:c2:92:1a:a7:20:9f:fe:
         0f:d3:9f:ff:04:93:17:b5:cb:90:4e:7a:01:fa:88:c7:80:d8:
         7e:17:cf:df:5a:b6:f0:63:45:8b:6c:f1:ac:f4:97:b7:05:bd:
         af:d1:df:19:e5:aa:7c:47:83:e7:34:b3:ab:b4:38:96:b7:e3:
         dc:57:6a:9d:ed:d2:87:fc:fd:a4:43:be:b0:1e:61:16:ae:f4:
         52:80:13:d4:d8:01:7d:f2
-----BEGIN CERTIFICATE-----
MIIGrTCCBJWgAwIBAgICGtQwDQYJKoZIhvcNAQEEBQAwgawxCzAJBgNVBAYTAlVT
MQswCQYDVQQIEwJPSDERMA8GA1UEBxMIQ29sdW1idXMxEjAQBgNVBAoTCVZpa2lu
Z1ZQTjEdMBsGA1UECxMUTXlPcmdhbml6YXRpb25hbFVuaXQxFTATBgNVBAMTDFZp
a2luZ1ZQTiBDQTEQMA4GA1UEKRMHRWFzeVJTQTEhMB8GCSqGSIb3DQEJARYSbWVA
bXlob3N0Lm15ZG9tYWluMB4XDTE1MTIwOTExNDIxNVoXDTI1MTIwNjExNDIxNVow
HzEdMBsGA1UEAxMUQ2xpZW50MTE2MENlcnQwZTZmMmUwggIiMA0GCSqGSIb3DQEB
AQUAA4ICDwAwggIKAoICAQCZH0N1bBTefOqncuYbB3knvuK5DWqU7NpgUNw35niY
CAkOzMdoK2xJ5UbWYky+F7snF9xsexhHPqZ/xZ7QeEL3iq3KaOcJMR2XpOc2o7na
MwWfB0vUgJgNb7C8Aeca97UUOFrV+UMlHPRvFIJVPW0OjhAOEfr6wlgUe6F2h87w
42sfmrTGyxNCPVsbruVSNxDQGuGHsKhbk3XMy2XXu+3BPjZkwbYE11oc4bE6zeLI
93FHw4Pho0hujvY80CH7+j3gSDcHCJhSzCipFIfosjVHL4OaSmSfOzco2SIrGEWo
4FbGirNH8K2RoS00wZi7yma38vhBYTzF0Om0D9b/9GLAF7NwbQjh5k9WYzQyrH78
7DovWeLpHvE8JWGHejoe6rA1O/4SQhDIVZ58PczqU4wPZPoaHaFudiSTsSieSOC7
2X+w/Vadz3QimJ/324Cm6jYhQtGmHJzp5F/cB3dIwHhRtmTwD/0iYuKTbmRtJQOc
qrtxFsr9xJuVUhQXuUL7SIA51fUSp1FdmjKo64/clEq7qg0gJAFiolrZsjNlDuea
uoOcp/ab9LaGUZCYQXhaAfGISs2m/ZOb/rHX2bsdk27ztOsyNK5qrSYyj5WzYwiY
+nhf8dDAGV9pYE7wYQkD/U+MlcXF7fnIJoBl+YkqwuRLmlIlE4jsgB8xRaXmmSg9
cQIDAQABo4IBYzCCAV8wCQYDVR0TBAIwADAtBglghkgBhvhCAQ0EIBYeRWFzeS1S
U0EgR2VuZXJhdGVkIENlcnRpZmljYXRlMB0GA1UdDgQWBBS+up7llrMsxSBA0fCH
3lDung6V+DCB4QYDVR0jBIHZMIHWgBQSzWAE0qCAnnDtxpm4eyzGUv0ZoaGBsqSB
rzCBrDELMAkGA1UEBhMCVVMxCzAJBgNVBAgTAk9IMREwDwYDVQQHEwhDb2x1bWJ1
czESMBAGA1UEChMJVmlraW5nVlBOMR0wGwYDVQQLExRNeU9yZ2FuaXphdGlvbmFs
VW5pdDEVMBMGA1UEAxMMVmlraW5nVlBOIENBMRAwDgYDVQQpEwdFYXN5UlNBMSEw
HwYJKoZIhvcNAQkBFhJtZUBteWhvc3QubXlkb21haW6CCQDPNYXugL8qPjATBgNV
HSUEDDAKBggrBgEFBQcDAjALBgNVHQ8EBAMCB4AwDQYJKoZIhvcNAQEEBQADggIB
ADsg2gWYeJxF5OnPdtNT79mGkunYoBtibTYcXPy00PFr2h29s5BuwLTLECsKoPV+
7kbmmJLY5eL4WZuNMHaEoJWWg/+lXfy/RzZ205uDwKB5DoGMFkzfk1P/BfzywF8Z
amQk3aYD8k07Ar7MIrrTWjcxtusWj/naymMXpKzx4dSOLisUvc0RTH4q8rHCIkQS
Q8kROVIL2vP8OWeVhAxm0UxY7aMKZYlMCLJfVf7p8XlE0cDfUvsmiuRccJIQZ0v9
qW4BnewnzuHdlV7nRgsUfHboCbkKYZvj3fC62zqJlK+CtrUMevy60UvriA9Bt1HF
qXuaJdSatFmla8UwYBGC3i1zn3zdX8SxjLH4oeQ0zXPdY0a11BTzB58L2URMmNb4
MrDh0/xCD5Nhte/V6YjX/upUhFBpTC4Od2pRn1s2rrqwedRTy3CnHCbNxW/pN751
0PDgLwZwhxIaXGx3gAfLFx58VkKEA2WE9Z2kYmwCrLjk4Ek/hQ4jlYmDvAH5WC1w
6DV0tnpyvOaln9nKfaETESZOzuo0AIHHr/3pryFl7qY1KWIrCyBiKTW6wpIapyCf
/g/Tn/8Ekxe1y5BOegH6iMeA2H4Xz99atvBjRYts8az0l7cFva/R3xnlqnxHg+c0
s6u0OJa349xXap3t0of8/aRDvrAeYRau9FKAE9TYAX3y
-----END CERTIFICATE-----
