Certificate:
    Data:
        Version: 3 (0x2)
        Serial Number: 6869 (0x1ad5)
    Signature Algorithm: md5WithRSAEncryption
        Issuer: C=US, ST=OH, L=Columbus, O=VikingVPN, OU=MyOrganizationalUnit, CN=VikingVPN CA/name=EasyRSA/emailAddress=me@myhost.mydomain
        Validity
            Not Before: Dec  9 20:18:45 2015 GMT
            Not After : Dec  6 20:18:45 2025 GMT
        Subject: CN=Client1160Cert6966eb
        Subject Public Key Info:
            Public Key Algorithm: rsaEncryption
                Public-Key: (4096 bit)
                Modulus:
                    00:d9:23:4c:35:94:a2:c5:28:5b:c8:8b:fb:a0:33:
                    9e:b3:5f:67:2a:a1:6d:6f:77:7d:fe:df:55:80:49:
                    7f:65:0a:5f:a1:65:10:e0:bc:f9:f7:94:7f:7e:89:
                    35:d9:90:6b:14:12:1b:d1:58:bb:5d:13:25:39:b8:
                    3d:65:8c:0f:20:2b:87:e6:c5:88:e2:52:7e:6d:ea:
                    d7:7b:7f:5c:95:31:79:3f:07:25:c8:16:de:6e:e8:
                    b7:64:e2:ef:5d:0a:7c:8f:7d:60:5e:78:7b:fa:32:
                    0a:f2:85:13:3e:a1:dd:87:1e:ee:50:ce:10:1c:bf:
                    b0:cf:90:05:ca:a6:60:44:82:e1:a5:93:f9:76:f9:
                    90:70:74:37:4d:dd:32:31:1f:0b:f5:b5:20:6d:df:
                    31:bc:a6:f1:f3:fe:a6:6a:0e:d1:6b:3d:f2:50:b7:
                    b1:89:74:e4:e9:31:96:65:b6:f7:a8:c1:a7:2d:ca:
                    66:78:80:da:d3:cf:de:d0:8e:c3:6b:15:a3:31:3f:
                    c3:38:32:1a:c4:51:65:f0:4e:fd:d0:61:0e:17:51:
                    ff:7e:a5:cc:25:b0:7a:30:d8:af:38:32:35:56:d3:
                    4b:b9:bc:85:1d:33:bb:ee:fe:02:fa:bf:7d:49:0f:
                    eb:c1:44:ab:7d:00:b1:4b:97:3c:60:89:76:92:00:
                    a6:e0:a2:32:42:fd:72:61:91:8d:9e:04:55:5f:dd:
                    3d:a7:b0:cb:f6:1e:35:91:bd:f4:9f:35:a3:92:61:
                    6a:e5:a4:e1:7d:62:f9:1d:01:12:bd:a9:c0:4a:51:
                    85:fd:79:a6:67:18:d2:ca:5b:61:e0:ad:11:00:ec:
                    49:77:31:0e:76:37:df:d4:ce:84:c8:49:5f:ce:e9:
                    49:b7:8f:ba:7c:fb:a4:52:45:2f:38:57:87:ff:a6:
                    0d:4c:44:ef:51:02:c1:28:30:86:c4:37:70:e5:81:
                    68:e8:9c:18:c5:15:e2:cd:2f:72:e3:bb:23:9a:58:
                    a4:df:a3:2b:df:1e:c4:67:32:4b:7c:60:a8:ac:d1:
                    06:7a:6e:82:3f:18:3e:77:8b:47:40:60:08:22:17:
                    df:d8:8f:5f:fb:0e:6a:90:a8:47:92:e6:f3:58:a0:
                    8d:f5:ac:7e:ff:b7:e9:95:16:41:3c:f3:d5:70:8f:
                    70:a1:3a:c4:74:ff:7b:ac:61:d9:3f:66:de:7c:4f:
                    b5:a8:6c:0e:58:03:b0:25:69:a0:03:8d:c9:e6:1e:
                    92:d7:f2:7f:31:10:f8:8a:f7:e0:05:bf:dd:a8:29:
                    17:af:7a:ab:4f:d4:5b:82:f5:4c:70:c9:e1:60:23:
                    a3:fe:5c:4a:84:e4:4d:58:2c:f4:38:4a:bf:d3:5f:
                    1b:1f:7b
                Exponent: 65537 (0x10001)
        X509v3 extensions:
            X509v3 Basic Constraints: 
                CA:FALSE
            Netscape Comment: 
                Easy-RSA Generated Certificate
            X509v3 Subject Key Identifier: 
                57:73:9E:00:F6:B6:E0:4B:42:19:97:57:0F:20:53:80:D5:3A:B1:F2
            X509v3 Authority Key Identifier: 
                keyid:12:CD:60:04:D2:A0:80:9E:70:ED:C6:99:B8:7B:2C:C6:52:FD:19:A1
                DirName:/C=US/ST=OH/L=Columbus/O=VikingVPN/OU=MyOrganizationalUnit/CN=VikingVPN CA/name=EasyRSA/emailAddress=me@myhost.mydomain
                serial:CF:35:85:EE:80:BF:2A:3E

            X509v3 Extended Key Usage: 
                TLS Web Client Authentication
            X509v3 Key Usage: 
                Digital Signature
    Signature Algorithm: md5WithRSAEncryption
         e6:b9:59:9d:b0:e9:c0:11:e7:f4:9e:bc:41:88:93:a8:98:19:
         38:25:aa:cf:f6:09:b4:35:21:8c:9f:c8:a9:12:0d:d8:a8:68:
         85:91:88:7e:5b:a7:47:75:f8:84:d2:22:85:46:03:0e:85:8f:
         0f:6d:2b:37:9f:34:43:f8:83:28:5b:a0:14:86:34:0d:f3:60:
         fb:a1:40:e5:08:1c:52:c8:a6:3d:af:00:11:3e:0c:33:88:79:
         84:de:4b:a6:bd:7f:ac:59:7a:f5:51:4f:b3:7c:9e:83:02:1c:
         f9:30:c1:bb:ef:82:f2:86:5f:2c:55:f3:77:0f:67:41:a0:d0:
         b9:9d:3f:39:a8:79:2e:ff:ff:d7:c1:47:51:70:c0:2a:c0:66:
         f3:89:a6:e9:06:6e:ba:4d:86:c9:b9:95:33:79:c7:fb:23:0d:
         2b:c4:b4:25:2a:59:20:c0:29:4c:07:01:1a:bf:ac:91:06:78:
         f3:6e:f7:dd:fc:e1:ff:de:c1:ca:60:39:c5:4a:12:91:1e:89:
         4b:ed:7f:34:df:93:a3:17:80:69:a9:26:fb:d5:c6:4b:2d:1c:
         2b:36:f9:ff:10:37:34:0f:f5:99:d6:77:0e:4f:96:3d:7a:6f:
         ba:49:24:67:62:e8:44:7e:db:00:dd:cc:b1:cc:ff:e2:14:44:
         91:7d:57:65:ed:d2:32:01:96:1f:73:50:4d:67:93:d7:2f:c2:
         5b:53:27:fa:c5:2e:c8:a1:99:dc:2f:6d:b4:e9:b5:e6:fb:32:
         d3:11:72:08:34:02:d2:46:3d:75:17:08:1a:cd:14:ce:fa:ba:
         36:cb:e0:94:73:cc:52:48:bd:23:82:39:d5:68:d0:7f:0b:0c:
         01:91:9a:0e:32:a4:10:7e:ff:c5:5f:9b:df:45:73:31:62:7c:
         e8:8b:ea:f2:80:0b:cd:c7:78:7e:f1:39:7d:a5:6b:3f:18:15:
         6a:0f:df:81:8a:04:1c:5a:39:22:c3:ce:9c:7b:66:73:1b:c5:
         7a:d2:07:4b:d4:e5:df:5c:68:b9:8f:e7:66:04:f2:ea:c4:ce:
         7d:e6:32:06:a4:33:05:e2:5f:a8:b4:7e:e6:f8:81:86:a8:d3:
         96:ab:6b:9b:d8:83:f8:6a:eb:66:f3:24:72:cc:80:01:c8:c3:
         e0:9d:4a:69:3d:a8:57:e8:6b:f2:35:aa:12:71:eb:be:d0:61:
         4d:04:61:3e:91:8f:3b:ea:63:23:de:1d:37:04:b3:39:83:3e:
         ce:6f:00:f3:be:89:47:09:9f:0c:71:af:d9:95:c0:a2:6d:b5:
         0d:6a:32:9a:ec:ba:ce:b1:b5:e5:49:53:75:fb:f4:46:34:b5:
         11:1b:62:f0:be:c8:19:d0
-----BEGIN CERTIFICATE-----
MIIGrTCCBJWgAwIBAgICGtUwDQYJKoZIhvcNAQEEBQAwgawxCzAJBgNVBAYTAlVT
MQswCQYDVQQIEwJPSDERMA8GA1UEBxMIQ29sdW1idXMxEjAQBgNVBAoTCVZpa2lu
Z1ZQTjEdMBsGA1UECxMUTXlPcmdhbml6YXRpb25hbFVuaXQxFTATBgNVBAMTDFZp
a2luZ1ZQTiBDQTEQMA4GA1UEKRMHRWFzeVJTQTEhMB8GCSqGSIb3DQEJARYSbWVA
bXlob3N0Lm15ZG9tYWluMB4XDTE1MTIwOTIwMTg0NVoXDTI1MTIwNjIwMTg0NVow
HzEdMBsGA1UEAxMUQ2xpZW50MTE2MENlcnQ2OTY2ZWIwggIiMA0GCSqGSIb3DQEB
AQUAA4ICDwAwggIKAoICAQDZI0w1lKLFKFvIi/ugM56zX2cqoW1vd33+31WASX9l
Cl+hZRDgvPn3lH9+iTXZkGsUEhvRWLtdEyU5uD1ljA8gK4fmxYjiUn5t6td7f1yV
MXk/ByXIFt5u6Ldk4u9dCnyPfWBeeHv6MgryhRM+od2HHu5QzhAcv7DPkAXKpmBE
guGlk/l2+ZBwdDdN3TIxHwv1tSBt3zG8pvHz/qZqDtFrPfJQt7GJdOTpMZZltveo
wactymZ4gNrTz97QjsNrFaMxP8M4MhrEUWXwTv3QYQ4XUf9+pcwlsHow2K84MjVW
00u5vIUdM7vu/gL6v31JD+vBRKt9ALFLlzxgiXaSAKbgojJC/XJhkY2eBFVf3T2n
sMv2HjWRvfSfNaOSYWrlpOF9YvkdARK9qcBKUYX9eaZnGNLKW2HgrREA7El3MQ52
N9/UzoTISV/O6Um3j7p8+6RSRS84V4f/pg1MRO9RAsEoMIbEN3DlgWjonBjFFeLN
L3LjuyOaWKTfoyvfHsRnMkt8YKis0QZ6boI/GD53i0dAYAgiF9/Yj1/7DmqQqEeS
5vNYoI31rH7/t+mVFkE889Vwj3ChOsR0/3usYdk/Zt58T7WobA5YA7AlaaADjcnm
HpLX8n8xEPiK9+AFv92oKReveqtP1FuC9UxwyeFgI6P+XEqE5E1YLPQ4Sr/TXxsf
ewIDAQABo4IBYzCCAV8wCQYDVR0TBAIwADAtBglghkgBhvhCAQ0EIBYeRWFzeS1S
U0EgR2VuZXJhdGVkIENlcnRpZmljYXRlMB0GA1UdDgQWBBRXc54A9rbgS0IZl1cP
IFOA1Tqx8jCB4QYDVR0jBIHZMIHWgBQSzWAE0qCAnnDtxpm4eyzGUv0ZoaGBsqSB
rzCBrDELMAkGA1UEBhMCVVMxCzAJBgNVBAgTAk9IMREwDwYDVQQHEwhDb2x1bWJ1
czESMBAGA1UEChMJVmlraW5nVlBOMR0wGwYDVQQLExRNeU9yZ2FuaXphdGlvbmFs
VW5pdDEVMBMGA1UEAxMMVmlraW5nVlBOIENBMRAwDgYDVQQpEwdFYXN5UlNBMSEw
HwYJKoZIhvcNAQkBFhJtZUBteWhvc3QubXlkb21haW6CCQDPNYXugL8qPjATBgNV
HSUEDDAKBggrBgEFBQcDAjALBgNVHQ8EBAMCB4AwDQYJKoZIhvcNAQEEBQADggIB
AOa5WZ2w6cAR5/SevEGIk6iYGTglqs/2CbQ1IYyfyKkSDdioaIWRiH5bp0d1+ITS
IoVGAw6Fjw9tKzefNEP4gyhboBSGNA3zYPuhQOUIHFLIpj2vABE+DDOIeYTeS6a9
f6xZevVRT7N8noMCHPkwwbvvgvKGXyxV83cPZ0Gg0LmdPzmoeS7//9fBR1FwwCrA
ZvOJpukGbrpNhsm5lTN5x/sjDSvEtCUqWSDAKUwHARq/rJEGePNu99384f/ewcpg
OcVKEpEeiUvtfzTfk6MXgGmpJvvVxkstHCs2+f8QNzQP9ZnWdw5Plj16b7pJJGdi
6ER+2wDdzLHM/+IURJF9V2Xt0jIBlh9zUE1nk9cvwltTJ/rFLsihmdwvbbTpteb7
MtMRcgg0AtJGPXUXCBrNFM76ujbL4JRzzFJIvSOCOdVo0H8LDAGRmg4ypBB+/8Vf
m99FczFifOiL6vKAC83HeH7xOX2laz8YFWoP34GKBBxaOSLDzpx7ZnMbxXrSB0vU
5d9caLmP52YE8urEzn3mMgakMwXiX6i0fub4gYao05ara5vYg/hq62bzJHLMgAHI
w+CdSmk9qFfoa/I1qhJx677QYU0EYT6RjzvqYyPeHTcEszmDPs5vAPO+iUcJnwxx
r9mVwKJttQ1qMprsus6xteVJU3X79EY0tREbYvC+yBnQ
-----END CERTIFICATE-----
