Certificate:
    Data:
        Version: 3 (0x2)
        Serial Number: 6880 (0x1ae0)
    Signature Algorithm: md5WithRSAEncryption
        Issuer: C=US, ST=OH, L=Columbus, O=VikingVPN, OU=MyOrganizationalUnit, CN=VikingVPN CA/name=EasyRSA/emailAddress=me@myhost.mydomain
        Validity
            Not Before: Dec 11 08:04:59 2015 GMT
            Not After : Dec  8 08:04:59 2025 GMT
        Subject: CN=Client2099Certdaed49
        Subject Public Key Info:
            Public Key Algorithm: rsaEncryption
                Public-Key: (4096 bit)
                Modulus:
                    00:a3:40:ae:08:77:a8:d2:9f:43:65:94:c6:8f:95:
                    33:88:e3:52:fe:bb:bf:58:ef:74:62:af:ba:ce:bd:
                    9d:0c:0e:b3:e6:7b:17:d9:5f:a5:b9:82:c8:a4:8f:
                    d1:e8:83:c6:f2:03:29:83:6d:b6:18:2c:08:50:9c:
                    43:ea:15:17:52:e3:e5:3c:98:98:ce:2d:b1:73:0f:
                    d2:21:92:ea:64:5b:bb:aa:46:12:c9:e6:e2:cc:41:
                    45:f9:1f:58:bf:d8:c3:d8:44:38:5d:61:0a:83:88:
                    76:f3:34:18:71:93:af:3f:64:ec:72:5a:74:e5:74:
                    b2:51:83:32:39:04:0a:19:d9:ee:f7:7a:fd:02:d5:
                    ec:e4:f8:34:a0:bb:4d:d8:37:92:34:01:de:a6:89:
                    64:f1:d4:d4:36:f4:7a:21:42:78:d8:e1:b4:6d:64:
                    cf:89:6d:83:6b:8d:5b:3d:88:bc:6b:90:d3:8a:70:
                    7f:6b:57:0c:6b:81:70:15:db:40:63:a4:5e:ca:71:
                    cb:dd:66:06:99:fc:32:e0:59:0f:67:38:10:a7:9b:
                    df:b1:69:9b:79:36:ee:39:c9:c7:91:60:0c:24:5e:
                    e9:53:e7:86:ca:58:38:11:27:45:88:a0:e2:db:de:
                    34:37:f2:2c:27:fd:f2:e5:7f:9b:4d:3e:09:3f:e9:
                    d6:f6:ab:15:0a:66:bd:fc:4d:c4:fb:4f:24:0e:69:
                    a8:ce:33:d3:08:f0:76:cd:ea:09:8b:a8:d2:bc:4f:
                    39:44:e3:b4:f3:2e:7e:3e:c6:9b:a0:7f:9e:d3:3f:
                    6b:94:dd:b7:a5:07:15:12:7a:20:6a:6c:a4:a6:56:
                    be:0b:bb:81:b3:48:0d:b5:c9:a1:be:cd:e9:87:d4:
                    3f:ca:16:df:00:ce:6c:01:d1:d9:df:12:a5:4b:4d:
                    94:5e:a2:db:00:0b:16:81:09:4a:a6:34:81:4e:be:
                    02:7a:83:3d:32:61:20:61:b1:f6:11:ab:68:6d:a6:
                    71:b4:cf:af:97:be:f1:d3:17:de:8f:c6:72:6e:0e:
                    5f:6b:7a:98:99:5a:07:90:c2:b7:a2:a0:15:f1:a8:
                    14:13:27:52:a9:96:ed:82:ee:ed:a5:ee:79:e4:d0:
                    3c:24:95:42:c1:1d:30:bb:3d:0e:a7:e5:09:b8:4a:
                    72:88:34:30:f0:da:09:94:0d:32:7b:58:e1:3a:77:
                    0f:3b:1a:a7:30:a7:e1:64:6e:c6:e5:c8:d1:31:a6:
                    e4:cb:55:7f:7a:34:a6:e9:74:3a:ab:f7:2d:a2:f4:
                    7f:85:9b:1d:0e:c8:6f:2e:8d:dc:62:2c:2e:b6:20:
                    cc:2b:bf:13:88:23:d4:74:28:3b:ca:60:35:99:ea:
                    ec:c3:a7
                Exponent: 65537 (0x10001)
        X509v3 extensions:
            X509v3 Basic Constraints: 
                CA:FALSE
            Netscape Comment: 
                Easy-RSA Generated Certificate
            X509v3 Subject Key Identifier: 
                63:C5:1E:8D:E4:93:2B:CF:28:36:32:10:E3:69:F0:D5:87:93:52:51
            X509v3 Authority Key Identifier: 
                keyid:12:CD:60:04:D2:A0:80:9E:70:ED:C6:99:B8:7B:2C:C6:52:FD:19:A1
                DirName:/C=US/ST=OH/L=Columbus/O=VikingVPN/OU=MyOrganizationalUnit/CN=VikingVPN CA/name=EasyRSA/emailAddress=me@myhost.mydomain
                serial:CF:35:85:EE:80:BF:2A:3E

            X509v3 Extended Key Usage: 
                TLS Web Client Authentication
            X509v3 Key Usage: 
                Digital Signature
    Signature Algorithm: md5WithRSAEncryption
         12:b4:f8:25:7d:cf:3b:11:60:0f:d3:f9:3f:fe:db:93:b6:d8:
         28:46:d2:84:64:95:9d:ba:8e:f1:3e:11:94:4c:72:9d:f4:c3:
         f7:2e:a5:17:cd:55:9b:34:60:a1:08:ba:c9:70:64:3d:3c:e7:
         f5:a3:84:f8:4a:e3:48:12:be:b5:26:4c:85:30:ca:50:e3:f1:
         e2:c7:e2:55:d1:93:a7:24:94:fc:29:83:1b:ac:c5:f0:e2:39:
         35:75:cf:f2:36:c8:c6:2f:38:96:01:48:af:66:e6:75:36:17:
         9b:f0:48:7a:21:5b:3d:21:17:8b:28:11:15:64:4a:a9:90:6d:
         38:bb:b4:27:3a:cd:d5:0e:af:52:68:3c:62:34:34:82:8f:5f:
         42:36:58:53:e5:2b:05:ec:94:ec:88:d8:3d:2a:8c:8f:7c:eb:
         68:8d:fc:b0:a8:5c:73:7b:6e:04:6a:e2:9c:a2:08:a8:86:ab:
         5b:87:1f:82:4f:42:50:a8:de:c8:e7:89:8d:eb:2a:08:c9:8d:
         fa:86:16:58:53:15:27:43:a6:07:24:77:df:b4:ad:eb:a7:5d:
         e1:45:55:15:4c:62:fe:50:6c:a7:e4:98:60:f1:38:f2:8c:f1:
         cb:9b:32:ce:3d:6c:47:08:5c:61:86:34:73:51:d3:d6:db:54:
         38:2a:e7:de:ec:f4:6c:50:41:e0:ca:18:64:32:23:bf:84:17:
         1c:b2:20:c3:94:f1:fc:c1:04:ec:5c:af:49:45:1e:60:ab:e9:
         98:8b:b2:f1:99:b6:d9:83:81:98:36:72:9c:58:7c:e2:cb:2e:
         9d:9d:16:34:d9:6f:eb:ec:33:94:95:c5:63:7c:a6:39:95:bd:
         25:72:34:fc:c0:df:57:6e:b2:e3:48:64:66:42:a7:63:eb:c9:
         de:8c:6b:56:e5:09:c3:a7:34:51:8f:66:e8:57:22:8c:46:f5:
         17:c6:e6:d1:20:ca:7e:d1:b6:7e:d9:44:cc:f3:66:83:fe:24:
         f9:09:be:ef:0a:be:53:8d:4b:2b:f1:4e:fd:af:0a:9a:e3:b9:
         e6:cd:74:68:2d:68:11:48:da:45:21:41:6a:00:76:2b:1b:a5:
         bd:08:0c:0c:a6:fa:a8:80:e9:c8:a8:18:ce:c7:c3:bf:6f:68:
         14:47:eb:79:69:5d:5b:59:3c:18:72:f9:4f:b1:21:07:79:d4:
         a3:cb:5e:81:ee:6d:c0:d4:3f:76:18:0d:75:08:a4:dc:9c:c5:
         83:2e:85:22:c1:dd:63:ca:85:ea:db:c1:6c:0f:ed:d0:4b:54:
         84:d3:f1:a8:81:33:2b:16:dc:32:e8:29:8c:92:ce:f8:2c:dd:
         7c:72:4e:53:64:63:a2:36
-----BEGIN CERTIFICATE-----
MIIGrTCCBJWgAwIBAgICGuAwDQYJKoZIhvcNAQEEBQAwgawxCzAJBgNVBAYTAlVT
MQswCQYDVQQIEwJPSDERMA8GA1UEBxMIQ29sdW1idXMxEjAQBgNVBAoTCVZpa2lu
Z1ZQTjEdMBsGA1UECxMUTXlPcmdhbml6YXRpb25hbFVuaXQxFTATBgNVBAMTDFZp
a2luZ1ZQTiBDQTEQMA4GA1UEKRMHRWFzeVJTQTEhMB8GCSqGSIb3DQEJARYSbWVA
bXlob3N0Lm15ZG9tYWluMB4XDTE1MTIxMTA4MDQ1OVoXDTI1MTIwODA4MDQ1OVow
HzEdMBsGA1UEAxMUQ2xpZW50MjA5OUNlcnRkYWVkNDkwggIiMA0GCSqGSIb3DQEB
AQUAA4ICDwAwggIKAoICAQCjQK4Id6jSn0NllMaPlTOI41L+u79Y73Rir7rOvZ0M
DrPmexfZX6W5gsikj9Hog8byAymDbbYYLAhQnEPqFRdS4+U8mJjOLbFzD9Ihkupk
W7uqRhLJ5uLMQUX5H1i/2MPYRDhdYQqDiHbzNBhxk68/ZOxyWnTldLJRgzI5BAoZ
2e73ev0C1ezk+DSgu03YN5I0Ad6miWTx1NQ29HohQnjY4bRtZM+JbYNrjVs9iLxr
kNOKcH9rVwxrgXAV20BjpF7KccvdZgaZ/DLgWQ9nOBCnm9+xaZt5Nu45yceRYAwk
XulT54bKWDgRJ0WIoOLb3jQ38iwn/fLlf5tNPgk/6db2qxUKZr38TcT7TyQOaajO
M9MI8HbN6gmLqNK8TzlE47TzLn4+xpugf57TP2uU3belBxUSeiBqbKSmVr4Lu4Gz
SA21yaG+zemH1D/KFt8AzmwB0dnfEqVLTZReotsACxaBCUqmNIFOvgJ6gz0yYSBh
sfYRq2htpnG0z6+XvvHTF96PxnJuDl9repiZWgeQwreioBXxqBQTJ1Kplu2C7u2l
7nnk0DwklULBHTC7PQ6n5Qm4SnKINDDw2gmUDTJ7WOE6dw87Gqcwp+FkbsblyNEx
puTLVX96NKbpdDqr9y2i9H+Fmx0OyG8ujdxiLC62IMwrvxOII9R0KDvKYDWZ6uzD
pwIDAQABo4IBYzCCAV8wCQYDVR0TBAIwADAtBglghkgBhvhCAQ0EIBYeRWFzeS1S
U0EgR2VuZXJhdGVkIENlcnRpZmljYXRlMB0GA1UdDgQWBBRjxR6N5JMrzyg2MhDj
afDVh5NSUTCB4QYDVR0jBIHZMIHWgBQSzWAE0qCAnnDtxpm4eyzGUv0ZoaGBsqSB
rzCBrDELMAkGA1UEBhMCVVMxCzAJBgNVBAgTAk9IMREwDwYDVQQHEwhDb2x1bWJ1
czESMBAGA1UEChMJVmlraW5nVlBOMR0wGwYDVQQLExRNeU9yZ2FuaXphdGlvbmFs
VW5pdDEVMBMGA1UEAxMMVmlraW5nVlBOIENBMRAwDgYDVQQpEwdFYXN5UlNBMSEw
HwYJKoZIhvcNAQkBFhJtZUBteWhvc3QubXlkb21haW6CCQDPNYXugL8qPjATBgNV
HSUEDDAKBggrBgEFBQcDAjALBgNVHQ8EBAMCB4AwDQYJKoZIhvcNAQEEBQADggIB
ABK0+CV9zzsRYA/T+T/+25O22ChG0oRklZ26jvE+EZRMcp30w/cupRfNVZs0YKEI
uslwZD085/WjhPhK40gSvrUmTIUwylDj8eLH4lXRk6cklPwpgxusxfDiOTV1z/I2
yMYvOJYBSK9m5nU2F5vwSHohWz0hF4soERVkSqmQbTi7tCc6zdUOr1JoPGI0NIKP
X0I2WFPlKwXslOyI2D0qjI9862iN/LCoXHN7bgRq4pyiCKiGq1uHH4JPQlCo3sjn
iY3rKgjJjfqGFlhTFSdDpgckd9+0reunXeFFVRVMYv5QbKfkmGDxOPKM8cubMs49
bEcIXGGGNHNR09bbVDgq597s9GxQQeDKGGQyI7+EFxyyIMOU8fzBBOxcr0lFHmCr
6ZiLsvGZttmDgZg2cpxYfOLLLp2dFjTZb+vsM5SVxWN8pjmVvSVyNPzA31dusuNI
ZGZCp2Pryd6Ma1blCcOnNFGPZuhXIoxG9RfG5tEgyn7Rtn7ZRMzzZoP+JPkJvu8K
vlONSyvxTv2vCprjuebNdGgtaBFI2kUhQWoAdisbpb0IDAym+qiA6cioGM7Hw79v
aBRH63lpXVtZPBhy+U+xIQd51KPLXoHubcDUP3YYDXUIpNycxYMuhSLB3WPKherb
wWwP7dBLVITT8aiBMysW3DLoKYySzvgs3XxyTlNkY6I2
-----END CERTIFICATE-----
