Certificate:
    Data:
        Version: 3 (0x2)
        Serial Number: 6891 (0x1aeb)
    Signature Algorithm: md5WithRSAEncryption
        Issuer: C=US, ST=OH, L=Columbus, O=VikingVPN, OU=MyOrganizationalUnit, CN=VikingVPN CA/name=EasyRSA/emailAddress=me@myhost.mydomain
        Validity
            Not Before: Dec 12 14:32:01 2015 GMT
            Not After : Dec  9 14:32:01 2025 GMT
        Subject: CN=Client823Cert3f3ecb
        Subject Public Key Info:
            Public Key Algorithm: rsaEncryption
                Public-Key: (4096 bit)
                Modulus:
                    00:be:7f:de:15:ca:bd:00:9c:13:65:67:96:91:8b:
                    2e:35:8b:4b:ee:90:1e:6f:54:ab:2a:81:1a:d2:c6:
                    2a:e3:bf:20:5c:1a:b7:8d:55:6d:89:24:56:d9:a4:
                    46:78:27:10:39:51:08:53:7b:2a:53:83:59:af:a3:
                    f2:f3:f9:e8:e4:ee:ec:52:25:1a:f0:23:9a:18:68:
                    23:f8:50:ab:08:3a:c7:4c:f6:c7:15:c1:48:79:ab:
                    22:af:be:99:23:78:22:08:a6:11:1f:1c:2c:84:b6:
                    c3:50:33:df:ed:93:e3:2d:8f:27:ba:8b:0f:e6:ca:
                    9b:44:87:56:91:bc:73:bc:e1:b8:82:2f:2e:b5:d6:
                    16:03:79:2b:79:74:d7:31:2b:b6:15:ee:a6:84:ba:
                    26:6f:3e:b5:a2:89:a9:d2:b3:b7:02:ad:d7:38:c0:
                    46:4a:de:6c:f0:35:f8:76:ba:b1:dd:c3:4d:83:92:
                    ea:a5:7e:7a:3e:e2:73:10:03:f6:ee:a4:dc:8c:c3:
                    b9:95:5d:cd:94:b1:b6:8d:8f:79:9a:6d:d8:82:9c:
                    82:ea:fc:c8:a3:78:46:6b:72:0f:39:82:7b:c3:f1:
                    29:8a:04:b5:d7:5c:9f:1a:f3:8b:ec:9e:7a:1d:ec:
                    18:3c:66:62:3f:87:34:62:94:42:7a:a0:e7:c5:61:
                    49:82:3f:95:07:0a:10:d1:f9:07:6d:bc:a6:d2:f4:
                    32:f9:23:8f:1a:b5:a7:58:87:93:76:0a:1f:6c:3e:
                    f0:52:b1:d9:dc:6d:0c:89:94:28:2e:11:05:f3:c9:
                    ba:e9:9f:87:25:aa:df:3e:25:d1:6c:24:78:e2:8d:
                    9f:4a:bc:ad:43:1a:79:d1:9c:ca:bc:6b:43:0d:8d:
                    f6:1b:d9:00:aa:43:60:4d:c8:d5:94:3d:9e:96:c9:
                    4c:e3:3d:40:f9:f0:48:45:e3:ca:d7:65:82:ac:ec:
                    3a:39:45:94:87:13:1d:6c:b9:38:12:39:96:e0:9e:
                    25:70:ec:37:a6:50:17:2e:c6:17:57:73:ab:cb:81:
                    cf:46:da:c5:1a:c9:5c:e2:76:00:95:c2:cd:0f:25:
                    f1:6f:0b:d4:04:f8:aa:88:c5:98:42:04:bd:58:38:
                    64:6e:de:9a:f4:65:f3:40:ad:a3:a8:7a:bf:39:df:
                    51:61:d2:ab:fc:43:61:4d:0a:89:2b:aa:3b:1d:08:
                    cb:34:bc:af:bc:3e:f3:61:3c:32:2b:8f:fd:09:e6:
                    2e:61:20:ff:c0:6b:9d:b6:57:ef:96:a0:91:a3:d8:
                    a9:cf:b8:9e:68:02:b0:32:da:df:02:13:91:89:d8:
                    13:31:cb:6f:a2:f8:e0:a6:59:b0:d0:ec:bb:23:b8:
                    73:2b:4b
                Exponent: 65537 (0x10001)
        X509v3 extensions:
            X509v3 Basic Constraints: 
                CA:FALSE
            Netscape Comment: 
                Easy-RSA Generated Certificate
            X509v3 Subject Key Identifier: 
                30:EA:99:1D:25:20:60:68:1C:0D:25:AA:01:23:70:4E:3F:6C:65:93
            X509v3 Authority Key Identifier: 
                keyid:12:CD:60:04:D2:A0:80:9E:70:ED:C6:99:B8:7B:2C:C6:52:FD:19:A1
                DirName:/C=US/ST=OH/L=Columbus/O=VikingVPN/OU=MyOrganizationalUnit/CN=VikingVPN CA/name=EasyRSA/emailAddress=me@myhost.mydomain
                serial:CF:35:85:EE:80:BF:2A:3E

            X509v3 Extended Key Usage: 
                TLS Web Client Authentication
            X509v3 Key Usage: 
                Digital Signature
    Signature Algorithm: md5WithRSAEncryption
         36:9a:3e:a7:87:b0:20:1b:73:94:4e:12:5a:db:f1:0e:7b:1b:
         92:a5:f3:aa:da:6e:41:76:d3:cf:11:09:eb:de:2c:73:46:c8:
         08:e9:58:d7:9d:e9:7d:ed:1a:31:2b:0b:53:df:d3:cf:17:2f:
         3a:db:77:4f:04:0e:2c:91:0f:bc:1c:a3:7b:29:ea:8e:da:68:
         06:e1:f0:15:95:31:21:ce:e9:f5:5d:7d:9a:0d:71:c8:58:32:
         91:77:7a:26:b0:1c:6b:eb:3f:f6:24:6f:09:6f:1d:7a:77:ab:
         65:a1:62:ba:1b:0e:11:aa:59:8f:66:ab:49:82:0a:29:c2:0d:
         17:3e:8a:a9:47:f9:60:8b:de:cf:e2:5b:96:cf:e7:df:07:2b:
         40:99:a8:91:21:a5:7e:1e:f8:9e:30:84:2e:45:7f:3e:86:40:
         5a:4c:46:40:5e:8a:64:b1:c1:94:50:73:b1:bb:63:97:00:94:
         20:36:18:73:af:00:ad:c2:f3:03:bc:24:b9:ca:07:e1:e5:cd:
         e8:0d:d3:10:52:fc:20:00:7a:e4:e0:71:ff:5d:fe:7f:85:ed:
         c9:9c:7a:4c:79:5a:89:2b:f6:cb:83:b4:25:f9:ee:e6:e2:3d:
         40:2e:94:b7:c1:1e:86:f8:34:7d:c5:6d:db:a6:29:ea:f0:19:
         34:08:a9:4e:b4:bb:6f:ae:98:d7:cf:a0:70:41:f9:40:43:51:
         a7:1c:90:51:5e:b2:93:22:58:26:55:ef:0e:1a:16:24:95:23:
         7d:4b:bc:b0:35:06:25:4a:66:81:db:f8:47:ef:c0:24:57:9c:
         af:50:fd:a7:df:7e:e5:bd:91:3d:cf:d1:9d:82:b4:43:5b:84:
         eb:ce:e2:df:aa:0d:3c:ff:32:ee:c1:c6:24:3a:bb:82:63:84:
         3a:f4:e1:b2:bb:3b:2e:a0:81:93:e9:81:9d:a3:60:14:a1:a7:
         31:0f:21:aa:33:f3:be:07:0a:5c:db:2e:ce:66:f1:02:04:ba:
         52:56:c0:5c:2d:2a:41:ad:b8:2b:55:f5:95:ff:06:bf:41:2a:
         90:8f:76:86:0b:27:e0:5f:52:a3:3c:01:a3:35:62:8c:72:9a:
         b8:da:54:cf:18:dc:e6:7b:e5:09:b4:e6:5c:0d:d3:41:df:a7:
         f0:1d:85:06:58:21:1d:4d:10:fc:38:8c:ec:5e:3c:cb:07:46:
         99:5c:e4:ba:dd:cf:ce:c8:0c:77:8e:a3:c4:7e:f1:07:06:0a:
         40:9a:cd:68:b2:c7:5f:eb:7d:83:ec:53:26:9e:78:da:50:ad:
         89:ef:a7:11:c3:3f:c2:04:3d:da:9a:6d:02:95:59:9c:38:b6:
         54:42:75:95:8d:c9:e9:cc
-----BEGIN CERTIFICATE-----
MIIGrDCCBJSgAwIBAgICGuswDQYJKoZIhvcNAQEEBQAwgawxCzAJBgNVBAYTAlVT
MQswCQYDVQQIEwJPSDERMA8GA1UEBxMIQ29sdW1idXMxEjAQBgNVBAoTCVZpa2lu
Z1ZQTjEdMBsGA1UECxMUTXlPcmdhbml6YXRpb25hbFVuaXQxFTATBgNVBAMTDFZp
a2luZ1ZQTiBDQTEQMA4GA1UEKRMHRWFzeVJTQTEhMB8GCSqGSIb3DQEJARYSbWVA
bXlob3N0Lm15ZG9tYWluMB4XDTE1MTIxMjE0MzIwMVoXDTI1MTIwOTE0MzIwMVow
HjEcMBoGA1UEAxMTQ2xpZW50ODIzQ2VydDNmM2VjYjCCAiIwDQYJKoZIhvcNAQEB
BQADggIPADCCAgoCggIBAL5/3hXKvQCcE2VnlpGLLjWLS+6QHm9UqyqBGtLGKuO/
IFwat41VbYkkVtmkRngnEDlRCFN7KlODWa+j8vP56OTu7FIlGvAjmhhoI/hQqwg6
x0z2xxXBSHmrIq++mSN4IgimER8cLIS2w1Az3+2T4y2PJ7qLD+bKm0SHVpG8c7zh
uIIvLrXWFgN5K3l01zErthXupoS6Jm8+taKJqdKztwKt1zjARkrebPA1+Ha6sd3D
TYOS6qV+ej7icxAD9u6k3IzDuZVdzZSxto2PeZpt2IKcgur8yKN4RmtyDzmCe8Px
KYoEtddcnxrzi+yeeh3sGDxmYj+HNGKUQnqg58VhSYI/lQcKENH5B228ptL0Mvkj
jxq1p1iHk3YKH2w+8FKx2dxtDImUKC4RBfPJuumfhyWq3z4l0WwkeOKNn0q8rUMa
edGcyrxrQw2N9hvZAKpDYE3I1ZQ9npbJTOM9QPnwSEXjytdlgqzsOjlFlIcTHWy5
OBI5luCeJXDsN6ZQFy7GF1dzq8uBz0baxRrJXOJ2AJXCzQ8l8W8L1AT4qojFmEIE
vVg4ZG7emvRl80Cto6h6vznfUWHSq/xDYU0KiSuqOx0IyzS8r7w+82E8MiuP/Qnm
LmEg/8BrnbZX75agkaPYqc+4nmgCsDLa3wITkYnYEzHLb6L44KZZsNDsuyO4cytL
AgMBAAGjggFjMIIBXzAJBgNVHRMEAjAAMC0GCWCGSAGG+EIBDQQgFh5FYXN5LVJT
QSBHZW5lcmF0ZWQgQ2VydGlmaWNhdGUwHQYDVR0OBBYEFDDqmR0lIGBoHA0lqgEj
cE4/bGWTMIHhBgNVHSMEgdkwgdaAFBLNYATSoICecO3Gmbh7LMZS/RmhoYGypIGv
MIGsMQswCQYDVQQGEwJVUzELMAkGA1UECBMCT0gxETAPBgNVBAcTCENvbHVtYnVz
MRIwEAYDVQQKEwlWaWtpbmdWUE4xHTAbBgNVBAsTFE15T3JnYW5pemF0aW9uYWxV
bml0MRUwEwYDVQQDEwxWaWtpbmdWUE4gQ0ExEDAOBgNVBCkTB0Vhc3lSU0ExITAf
BgkqhkiG9w0BCQEWEm1lQG15aG9zdC5teWRvbWFpboIJAM81he6Avyo+MBMGA1Ud
JQQMMAoGCCsGAQUFBwMCMAsGA1UdDwQEAwIHgDANBgkqhkiG9w0BAQQFAAOCAgEA
Npo+p4ewIBtzlE4SWtvxDnsbkqXzqtpuQXbTzxEJ694sc0bICOlY153pfe0aMSsL
U9/TzxcvOtt3TwQOLJEPvByjeynqjtpoBuHwFZUxIc7p9V19mg1xyFgykXd6JrAc
a+s/9iRvCW8denerZaFiuhsOEapZj2arSYIKKcINFz6KqUf5YIvez+Jbls/n3wcr
QJmokSGlfh74njCELkV/PoZAWkxGQF6KZLHBlFBzsbtjlwCUIDYYc68ArcLzA7wk
ucoH4eXN6A3TEFL8IAB65OBx/13+f4XtyZx6THlaiSv2y4O0Jfnu5uI9QC6Ut8Ee
hvg0fcVt26Yp6vAZNAipTrS7b66Y18+gcEH5QENRpxyQUV6ykyJYJlXvDhoWJJUj
fUu8sDUGJUpmgdv4R+/AJFecr1D9p99+5b2RPc/RnYK0Q1uE687i36oNPP8y7sHG
JDq7gmOEOvThsrs7LqCBk+mBnaNgFKGnMQ8hqjPzvgcKXNsuzmbxAgS6UlbAXC0q
Qa24K1X1lf8Gv0EqkI92hgsn4F9SozwBozVijHKauNpUzxjc5nvlCbTmXA3TQd+n
8B2FBlghHU0Q/DiM7F48ywdGmVzkut3PzsgMd46jxH7xBwYKQJrNaLLHX+t9g+xT
Jp542lCtie+nEcM/wgQ92pptApVZnDi2VEJ1lY3J6cw=
-----END CERTIFICATE-----
