Certificate:
    Data:
        Version: 3 (0x2)
        Serial Number: 6909 (0x1afd)
    Signature Algorithm: md5WithRSAEncryption
        Issuer: C=US, ST=OH, L=Columbus, O=VikingVPN, OU=MyOrganizationalUnit, CN=VikingVPN CA/name=EasyRSA/emailAddress=me@myhost.mydomain
        Validity
            Not Before: Dec 15 03:16:24 2015 GMT
            Not After : Dec 12 03:16:24 2025 GMT
        Subject: CN=Client2105Certedc113
        Subject Public Key Info:
            Public Key Algorithm: rsaEncryption
                Public-Key: (4096 bit)
                Modulus:
                    00:cb:92:30:27:ed:62:28:38:0d:14:46:fa:c1:44:
                    67:2a:98:13:ef:e5:19:f8:e5:f2:0e:63:e4:17:67:
                    aa:64:bc:75:cf:6c:05:e5:97:7c:4b:40:8e:62:e8:
                    11:74:4c:90:f3:57:d4:09:16:b9:ba:a6:72:1d:86:
                    a7:10:db:21:7d:57:85:2c:29:5d:f6:dd:97:ad:97:
                    2a:30:a7:a0:74:7d:94:27:0c:4f:9a:75:2a:cf:9c:
                    9c:b5:77:04:9a:93:7e:a2:b6:08:fa:bc:cb:62:30:
                    48:86:f4:5b:76:f5:da:d0:ec:b5:ad:46:c9:72:93:
                    a1:b6:05:f9:4c:45:eb:ba:04:f1:c3:2f:8d:6a:04:
                    66:55:ed:3d:51:57:54:86:a6:88:b1:04:c0:ac:23:
                    6b:21:81:82:c7:fa:f1:72:52:93:54:3a:65:82:83:
                    60:3e:74:cd:c3:2d:27:c8:fa:c6:23:91:8a:c2:dd:
                    41:88:35:a5:22:48:1c:59:e0:cb:57:54:70:8f:47:
                    3a:9a:48:e9:33:5a:89:d5:2f:95:00:99:a9:04:fa:
                    d6:cc:89:6d:31:16:d3:0d:91:fb:fd:ad:4c:40:8c:
                    95:fd:a6:a7:86:4e:57:8c:90:54:75:db:df:84:77:
                    6d:45:19:8f:7a:60:af:d9:26:1b:fe:18:e8:7c:98:
                    5c:f6:b0:f8:77:d1:6a:41:bb:e8:fa:a1:b2:05:41:
                    99:64:41:bf:32:3d:27:71:af:1b:50:38:97:b7:35:
                    dc:5d:76:d4:d7:5e:69:b9:db:9a:3b:40:44:d5:c8:
                    c3:c6:cf:9f:28:4d:97:44:19:24:ed:ae:c9:b4:85:
                    71:bc:92:c2:bf:28:bc:39:be:a6:fa:4c:9b:f3:26:
                    69:4c:40:7f:f5:b5:d1:cf:66:2d:4b:d0:e9:4d:15:
                    a8:44:b4:ef:9a:86:51:c9:f7:8a:29:95:ce:85:58:
                    33:54:63:ea:ed:64:69:cf:61:eb:90:bf:3a:e5:a3:
                    8f:e6:88:fe:b4:09:53:6a:86:ef:bd:28:25:63:f7:
                    07:00:f0:08:83:e9:bd:45:c3:e3:23:c7:82:5f:ce:
                    5a:51:77:22:62:9f:9b:97:c2:07:26:d2:56:93:f8:
                    0d:0d:da:d3:d5:11:0c:90:40:d9:4c:3f:e6:f1:e8:
                    54:c6:83:b4:bf:67:36:52:95:75:a8:03:d6:02:c8:
                    05:79:a8:b7:a2:8c:15:5b:8b:13:a3:e5:24:76:6b:
                    4c:61:7c:d5:57:0c:30:5d:23:83:dc:8a:c6:a1:23:
                    d3:5e:ee:66:17:0a:0d:28:44:bb:b2:c9:7b:5a:dc:
                    c2:b8:52:7f:62:0d:db:91:b1:e7:93:c0:4e:c3:0a:
                    21:6c:65
                Exponent: 65537 (0x10001)
        X509v3 extensions:
            X509v3 Basic Constraints: 
                CA:FALSE
            Netscape Comment: 
                Easy-RSA Generated Certificate
            X509v3 Subject Key Identifier: 
                44:AC:91:0C:9D:65:CE:0C:08:BB:E5:42:82:CE:8F:7F:94:C7:95:1D
            X509v3 Authority Key Identifier: 
                keyid:12:CD:60:04:D2:A0:80:9E:70:ED:C6:99:B8:7B:2C:C6:52:FD:19:A1
                DirName:/C=US/ST=OH/L=Columbus/O=VikingVPN/OU=MyOrganizationalUnit/CN=VikingVPN CA/name=EasyRSA/emailAddress=me@myhost.mydomain
                serial:CF:35:85:EE:80:BF:2A:3E

            X509v3 Extended Key Usage: 
                TLS Web Client Authentication
            X509v3 Key Usage: 
                Digital Signature
    Signature Algorithm: md5WithRSAEncryption
         a1:40:5e:ac:65:0c:c0:50:97:65:29:dc:b5:ac:96:bc:01:db:
         ce:d0:62:a3:39:90:c8:f0:c7:50:ed:c7:39:06:ce:5f:a1:e0:
         cd:45:98:5a:1a:24:cf:c4:82:fc:5f:ef:d0:a1:99:c7:68:ce:
         30:69:d6:cb:24:50:14:95:79:34:5f:37:db:12:f4:6d:9a:da:
         7e:e2:db:b1:af:ee:ed:e8:18:25:4e:60:02:35:01:14:8f:b8:
         14:c0:20:08:7d:f6:50:55:66:fb:ce:13:c3:c9:c8:d4:d4:4f:
         93:63:f2:f1:d4:bf:80:90:a8:92:34:fe:96:4d:9b:17:61:8b:
         35:6a:58:1e:be:b8:e9:c8:ed:e8:cc:28:a8:f2:00:93:c8:b1:
         bc:d0:23:e5:09:7e:fb:56:18:6e:44:b8:b3:86:2a:d2:03:af:
         c4:0f:35:fe:e7:a1:79:07:27:1f:0a:48:84:4f:94:f9:58:b6:
         eb:d8:85:bf:02:eb:e9:cd:5b:b2:17:47:ee:0b:3a:73:de:14:
         9e:3c:1e:6f:b9:d6:fa:da:2f:58:43:f6:30:80:eb:b2:6e:10:
         8e:33:bc:64:be:eb:a3:8d:63:94:fc:c9:06:a7:ce:b8:d3:f6:
         4f:3a:78:48:69:44:88:aa:e4:f4:34:33:63:0c:ac:6b:ed:f6:
         4c:6f:cc:c6:b4:77:17:17:18:25:62:17:09:40:12:b0:a0:78:
         3a:6e:72:c0:8b:0a:4e:ab:1b:3b:aa:1c:b1:2f:9a:60:2c:77:
         f3:57:78:c2:fa:54:9a:0e:ba:a6:f2:93:f8:02:52:da:2a:28:
         2f:9f:de:0c:0b:6f:58:90:6a:fc:00:06:ba:21:15:9e:46:8e:
         ee:9f:1e:39:a9:09:93:7e:18:87:30:b3:ac:95:63:0e:f6:ba:
         89:5a:3e:bd:f8:09:0c:ad:e9:bd:20:58:30:72:69:4b:59:42:
         09:08:83:61:fa:3f:1b:ff:9c:d0:8d:25:87:38:3d:c5:bb:28:
         c1:9a:e0:78:a5:40:e0:09:e8:ce:a6:46:d6:fb:77:f2:96:31:
         78:60:96:f3:26:1b:a3:17:9f:94:a8:db:82:67:ee:ed:4c:4a:
         25:17:16:d5:94:c4:fb:8c:ac:cc:7d:b5:ff:9b:44:6e:a3:82:
         97:23:20:d0:8d:f9:fb:a4:b5:e4:f4:9d:4f:ef:e6:31:c8:b3:
         d4:27:0d:32:cc:3b:9e:bd:de:48:c2:0e:00:d4:fd:26:c0:f6:
         d4:44:4c:a5:c6:a4:8e:98:53:d5:73:0b:f4:ec:c2:c8:36:ee:
         2d:cc:d7:99:b7:f6:93:d6:2f:34:4a:74:4e:af:0f:ac:af:8a:
         7f:ce:89:e0:e5:b9:8b:61
-----BEGIN CERTIFICATE-----
MIIGrTCCBJWgAwIBAgICGv0wDQYJKoZIhvcNAQEEBQAwgawxCzAJBgNVBAYTAlVT
MQswCQYDVQQIEwJPSDERMA8GA1UEBxMIQ29sdW1idXMxEjAQBgNVBAoTCVZpa2lu
Z1ZQTjEdMBsGA1UECxMUTXlPcmdhbml6YXRpb25hbFVuaXQxFTATBgNVBAMTDFZp
a2luZ1ZQTiBDQTEQMA4GA1UEKRMHRWFzeVJTQTEhMB8GCSqGSIb3DQEJARYSbWVA
bXlob3N0Lm15ZG9tYWluMB4XDTE1MTIxNTAzMTYyNFoXDTI1MTIxMjAzMTYyNFow
HzEdMBsGA1UEAxMUQ2xpZW50MjEwNUNlcnRlZGMxMTMwggIiMA0GCSqGSIb3DQEB
AQUAA4ICDwAwggIKAoICAQDLkjAn7WIoOA0URvrBRGcqmBPv5Rn45fIOY+QXZ6pk
vHXPbAXll3xLQI5i6BF0TJDzV9QJFrm6pnIdhqcQ2yF9V4UsKV323Zetlyowp6B0
fZQnDE+adSrPnJy1dwSak36itgj6vMtiMEiG9Ft29drQ7LWtRslyk6G2BflMReu6
BPHDL41qBGZV7T1RV1SGpoixBMCsI2shgYLH+vFyUpNUOmWCg2A+dM3DLSfI+sYj
kYrC3UGINaUiSBxZ4MtXVHCPRzqaSOkzWonVL5UAmakE+tbMiW0xFtMNkfv9rUxA
jJX9pqeGTleMkFR129+Ed21FGY96YK/ZJhv+GOh8mFz2sPh30WpBu+j6obIFQZlk
Qb8yPSdxrxtQOJe3NdxddtTXXmm525o7QETVyMPGz58oTZdEGSTtrsm0hXG8ksK/
KLw5vqb6TJvzJmlMQH/1tdHPZi1L0OlNFahEtO+ahlHJ94oplc6FWDNUY+rtZGnP
YeuQvzrlo4/miP60CVNqhu+9KCVj9wcA8AiD6b1Fw+Mjx4JfzlpRdyJin5uXwgcm
0laT+A0N2tPVEQyQQNlMP+bx6FTGg7S/ZzZSlXWoA9YCyAV5qLeijBVbixOj5SR2
a0xhfNVXDDBdI4PcisahI9Ne7mYXCg0oRLuyyXta3MK4Un9iDduRseeTwE7DCiFs
ZQIDAQABo4IBYzCCAV8wCQYDVR0TBAIwADAtBglghkgBhvhCAQ0EIBYeRWFzeS1S
U0EgR2VuZXJhdGVkIENlcnRpZmljYXRlMB0GA1UdDgQWBBRErJEMnWXODAi75UKC
zo9/lMeVHTCB4QYDVR0jBIHZMIHWgBQSzWAE0qCAnnDtxpm4eyzGUv0ZoaGBsqSB
rzCBrDELMAkGA1UEBhMCVVMxCzAJBgNVBAgTAk9IMREwDwYDVQQHEwhDb2x1bWJ1
czESMBAGA1UEChMJVmlraW5nVlBOMR0wGwYDVQQLExRNeU9yZ2FuaXphdGlvbmFs
VW5pdDEVMBMGA1UEAxMMVmlraW5nVlBOIENBMRAwDgYDVQQpEwdFYXN5UlNBMSEw
HwYJKoZIhvcNAQkBFhJtZUBteWhvc3QubXlkb21haW6CCQDPNYXugL8qPjATBgNV
HSUEDDAKBggrBgEFBQcDAjALBgNVHQ8EBAMCB4AwDQYJKoZIhvcNAQEEBQADggIB
AKFAXqxlDMBQl2Up3LWslrwB287QYqM5kMjwx1DtxzkGzl+h4M1FmFoaJM/Egvxf
79ChmcdozjBp1sskUBSVeTRfN9sS9G2a2n7i27Gv7u3oGCVOYAI1ARSPuBTAIAh9
9lBVZvvOE8PJyNTUT5Nj8vHUv4CQqJI0/pZNmxdhizVqWB6+uOnI7ejMKKjyAJPI
sbzQI+UJfvtWGG5EuLOGKtIDr8QPNf7noXkHJx8KSIRPlPlYtuvYhb8C6+nNW7IX
R+4LOnPeFJ48Hm+51vraL1hD9jCA67JuEI4zvGS+66ONY5T8yQanzrjT9k86eEhp
RIiq5PQ0M2MMrGvt9kxvzMa0dxcXGCViFwlAErCgeDpucsCLCk6rGzuqHLEvmmAs
d/NXeML6VJoOuqbyk/gCUtoqKC+f3gwLb1iQavwABrohFZ5Gju6fHjmpCZN+GIcw
s6yVYw72uolaPr34CQyt6b0gWDByaUtZQgkIg2H6Pxv/nNCNJYc4PcW7KMGa4Hil
QOAJ6M6mRtb7d/KWMXhglvMmG6MXn5So24Jn7u1MSiUXFtWUxPuMrMx9tf+bRG6j
gpcjINCN+fukteT0nU/v5jHIs9QnDTLMO5693kjCDgDU/SbA9tRETKXGpI6YU9Vz
C/Tswsg27i3M15m39pPWLzRKdE6vD6yvin/OieDluYth
-----END CERTIFICATE-----
