Certificate:
    Data:
        Version: 3 (0x2)
        Serial Number: 6923 (0x1b0b)
    Signature Algorithm: md5WithRSAEncryption
        Issuer: C=US, ST=OH, L=Columbus, O=VikingVPN, OU=MyOrganizationalUnit, CN=VikingVPN CA/name=EasyRSA/emailAddress=me@myhost.mydomain
        Validity
            Not Before: Dec 18 09:28:59 2015 GMT
            Not After : Dec 15 09:28:59 2025 GMT
        Subject: CN=Client2109Cert8b9d03
        Subject Public Key Info:
            Public Key Algorithm: rsaEncryption
                Public-Key: (4096 bit)
                Modulus:
                    00:d5:d7:5a:81:01:63:ff:22:e9:1e:cd:14:62:c2:
                    0e:e8:fe:ab:e9:d2:15:c6:1f:0f:75:54:fb:28:2c:
                    52:0f:c1:04:52:cc:54:b8:6a:62:f4:1b:89:67:14:
                    69:b0:5d:ee:5e:8d:9d:6e:79:3a:b7:26:ab:1c:5d:
                    89:a7:63:d2:34:ae:fd:2f:a6:62:7d:26:1b:2f:1c:
                    d9:bf:21:01:73:5d:94:27:d6:18:27:da:f7:59:1d:
                    90:f4:a6:f9:b1:cf:7e:ab:f6:92:73:cd:90:94:a1:
                    ff:94:2a:ed:3b:92:5d:cf:d8:28:1d:32:17:32:61:
                    a5:23:34:12:bb:c4:97:61:c0:21:8f:af:71:fa:cb:
                    d9:6f:c3:2f:12:5c:7e:63:59:e5:f4:06:eb:8d:12:
                    b0:ec:51:24:a6:68:ae:a0:2f:2d:53:e3:3e:bb:0b:
                    ff:9e:98:bb:24:f1:de:d7:db:1d:f9:55:e0:90:06:
                    01:1a:49:de:a8:0e:8a:05:5a:4d:ae:06:93:04:14:
                    aa:bf:5c:e0:5f:bf:c5:19:9b:3c:b7:0d:b1:56:9e:
                    ac:d0:62:7c:24:e3:30:b3:94:c9:4a:b2:26:e1:dd:
                    bd:5d:c8:1a:d2:cd:e3:3d:58:94:42:6b:59:85:57:
                    8f:bb:b0:a5:13:69:cb:51:90:a5:55:5f:c2:a7:23:
                    ba:21:9b:d1:bb:f6:59:be:6b:b8:be:f4:91:d5:ed:
                    51:32:1f:a8:8c:cd:5b:ab:4c:f7:59:fe:38:0a:11:
                    ba:09:7b:75:e5:74:a4:75:c2:fc:07:3b:3b:7c:4d:
                    91:56:50:3e:2b:c0:93:cc:46:de:54:53:37:78:ce:
                    c2:ef:5e:37:0c:0c:b0:a2:1c:7c:39:48:bd:0b:cb:
                    d1:85:c3:26:ed:be:1b:cc:50:d2:7e:37:10:de:d5:
                    6a:08:4e:d1:28:22:b8:1d:8e:39:21:45:03:fa:99:
                    f8:99:64:5e:f7:d2:2d:be:08:1c:ef:d9:3b:b3:05:
                    9c:68:86:e4:67:d8:3f:ed:54:4e:c2:9f:d1:10:96:
                    ef:1f:8a:91:45:a1:d9:2e:1c:7d:00:09:4c:5b:b9:
                    c1:28:24:38:ea:28:d1:36:b7:be:0b:23:47:5d:2f:
                    c7:c5:20:9b:b5:9c:46:b4:d8:f2:e3:f9:ae:ed:ff:
                    bc:48:40:cb:16:c0:bb:1e:5d:0c:8d:c5:83:f7:e6:
                    26:f1:1a:99:8b:35:1f:c8:9c:c5:c0:c9:51:eb:f9:
                    8b:95:34:9d:34:77:91:05:e0:e1:42:0b:39:9d:6d:
                    f0:eb:cb:32:77:ac:08:6a:1b:33:6a:e3:45:13:0a:
                    0e:28:98:d8:5c:2d:d3:d7:e8:0e:ce:d1:7a:41:49:
                    3d:09:c3
                Exponent: 65537 (0x10001)
        X509v3 extensions:
            X509v3 Basic Constraints: 
                CA:FALSE
            Netscape Comment: 
                Easy-RSA Generated Certificate
            X509v3 Subject Key Identifier: 
                A3:B0:03:DF:8D:48:CE:24:6C:BE:B0:50:FB:31:94:51:70:B4:CF:E3
            X509v3 Authority Key Identifier: 
                keyid:12:CD:60:04:D2:A0:80:9E:70:ED:C6:99:B8:7B:2C:C6:52:FD:19:A1
                DirName:/C=US/ST=OH/L=Columbus/O=VikingVPN/OU=MyOrganizationalUnit/CN=VikingVPN CA/name=EasyRSA/emailAddress=me@myhost.mydomain
                serial:CF:35:85:EE:80:BF:2A:3E

            X509v3 Extended Key Usage: 
                TLS Web Client Authentication
            X509v3 Key Usage: 
                Digital Signature
    Signature Algorithm: md5WithRSAEncryption
         e2:b1:66:b0:39:10:0b:53:f2:dd:34:f5:fd:9e:fd:93:8d:41:
         28:77:c3:ae:e8:70:7d:07:f5:45:2c:f7:d6:b5:8d:f9:83:77:
         84:f1:f0:42:9d:8c:81:2a:16:62:e0:b9:0a:fe:95:7f:e9:4a:
         2f:60:d2:36:a0:79:f0:5c:ad:20:56:6f:85:ea:4b:43:63:92:
         09:c3:33:7d:c4:90:af:06:8c:63:ae:40:8a:b2:b9:73:45:a7:
         86:2d:87:4e:59:c6:09:b4:69:9b:21:aa:ea:d5:30:0e:53:06:
         64:7b:c3:7f:8e:61:8a:d2:38:b1:c5:45:c5:7a:77:b9:a8:d0:
         d7:fd:d7:a4:bc:75:85:4a:79:09:89:d6:d5:39:42:c9:f9:87:
         f4:7a:66:de:5a:06:53:9e:3e:03:9f:8e:61:1c:c1:0b:6a:56:
         fa:48:0e:95:af:fe:60:4f:b0:33:ca:cb:40:e8:eb:74:b3:70:
         20:e2:9c:e4:a7:57:e7:64:5d:ac:95:a7:e5:91:16:35:05:9c:
         05:21:4e:69:5d:1f:4b:c0:d5:71:f6:83:ee:d7:b9:3f:81:30:
         86:03:a3:95:ac:83:1c:5a:43:0a:d7:f2:62:53:b6:c6:9f:d1:
         2f:3e:6b:49:d1:71:33:51:83:ae:3e:c5:75:c6:5a:82:13:4d:
         b4:22:9a:82:c4:1c:59:38:18:78:ef:9f:ec:b3:c1:b8:29:74:
         5b:e8:0d:a5:a3:e9:06:53:d5:90:f4:85:02:79:15:84:fa:f7:
         c4:24:6e:d7:86:0b:60:66:58:d8:d5:2b:88:85:ab:69:3f:bf:
         cd:a0:1f:7c:a3:29:3b:ce:8b:34:ec:e4:74:3a:49:23:56:45:
         a9:93:1c:67:9a:56:71:37:85:5a:84:7b:47:e6:1d:5a:89:66:
         17:5d:ad:5c:d1:c2:d7:94:78:bf:9d:18:b7:fd:8e:5a:48:dc:
         94:68:55:e4:ff:50:82:c9:7d:50:66:d4:54:a3:97:4d:96:2c:
         43:53:59:48:27:13:aa:f4:c8:74:9a:c3:57:03:0f:32:d8:ea:
         a0:71:9a:79:f0:5f:63:0c:2c:70:95:f4:e7:f9:9e:ea:8f:45:
         07:fe:f6:0b:48:05:6e:d1:43:de:a5:02:3d:7c:fe:42:5b:07:
         03:53:bc:16:c1:8e:8f:c1:10:be:0c:c3:56:65:b2:47:b5:6d:
         8a:6c:ca:29:e0:e7:52:89:4b:93:2a:45:81:ac:43:f9:16:12:
         b5:47:5a:97:9f:30:ca:09:e3:9c:85:8d:2d:be:bd:05:de:e9:
         2f:a5:ce:76:6b:01:22:b9:3c:09:4a:cd:f8:ec:e1:36:7e:b3:
         11:ce:5f:35:01:b4:fd:68
-----BEGIN CERTIFICATE-----
MIIGrTCCBJWgAwIBAgICGwswDQYJKoZIhvcNAQEEBQAwgawxCzAJBgNVBAYTAlVT
MQswCQYDVQQIEwJPSDERMA8GA1UEBxMIQ29sdW1idXMxEjAQBgNVBAoTCVZpa2lu
Z1ZQTjEdMBsGA1UECxMUTXlPcmdhbml6YXRpb25hbFVuaXQxFTATBgNVBAMTDFZp
a2luZ1ZQTiBDQTEQMA4GA1UEKRMHRWFzeVJTQTEhMB8GCSqGSIb3DQEJARYSbWVA
bXlob3N0Lm15ZG9tYWluMB4XDTE1MTIxODA5Mjg1OVoXDTI1MTIxNTA5Mjg1OVow
HzEdMBsGA1UEAxMUQ2xpZW50MjEwOUNlcnQ4YjlkMDMwggIiMA0GCSqGSIb3DQEB
AQUAA4ICDwAwggIKAoICAQDV11qBAWP/IukezRRiwg7o/qvp0hXGHw91VPsoLFIP
wQRSzFS4amL0G4lnFGmwXe5ejZ1ueTq3JqscXYmnY9I0rv0vpmJ9JhsvHNm/IQFz
XZQn1hgn2vdZHZD0pvmxz36r9pJzzZCUof+UKu07kl3P2CgdMhcyYaUjNBK7xJdh
wCGPr3H6y9lvwy8SXH5jWeX0BuuNErDsUSSmaK6gLy1T4z67C/+emLsk8d7X2x35
VeCQBgEaSd6oDooFWk2uBpMEFKq/XOBfv8UZmzy3DbFWnqzQYnwk4zCzlMlKsibh
3b1dyBrSzeM9WJRCa1mFV4+7sKUTactRkKVVX8KnI7ohm9G79lm+a7i+9JHV7VEy
H6iMzVurTPdZ/jgKEboJe3XldKR1wvwHOzt8TZFWUD4rwJPMRt5UUzd4zsLvXjcM
DLCiHHw5SL0Ly9GFwybtvhvMUNJ+NxDe1WoITtEoIrgdjjkhRQP6mfiZZF730i2+
CBzv2TuzBZxohuRn2D/tVE7Cn9EQlu8fipFFodkuHH0ACUxbucEoJDjqKNE2t74L
I0ddL8fFIJu1nEa02PLj+a7t/7xIQMsWwLseXQyNxYP35ibxGpmLNR/InMXAyVHr
+YuVNJ00d5EF4OFCCzmdbfDryzJ3rAhqGzNq40UTCg4omNhcLdPX6A7O0XpBST0J
wwIDAQABo4IBYzCCAV8wCQYDVR0TBAIwADAtBglghkgBhvhCAQ0EIBYeRWFzeS1S
U0EgR2VuZXJhdGVkIENlcnRpZmljYXRlMB0GA1UdDgQWBBSjsAPfjUjOJGy+sFD7
MZRRcLTP4zCB4QYDVR0jBIHZMIHWgBQSzWAE0qCAnnDtxpm4eyzGUv0ZoaGBsqSB
rzCBrDELMAkGA1UEBhMCVVMxCzAJBgNVBAgTAk9IMREwDwYDVQQHEwhDb2x1bWJ1
czESMBAGA1UEChMJVmlraW5nVlBOMR0wGwYDVQQLExRNeU9yZ2FuaXphdGlvbmFs
VW5pdDEVMBMGA1UEAxMMVmlraW5nVlBOIENBMRAwDgYDVQQpEwdFYXN5UlNBMSEw
HwYJKoZIhvcNAQkBFhJtZUBteWhvc3QubXlkb21haW6CCQDPNYXugL8qPjATBgNV
HSUEDDAKBggrBgEFBQcDAjALBgNVHQ8EBAMCB4AwDQYJKoZIhvcNAQEEBQADggIB
AOKxZrA5EAtT8t009f2e/ZONQSh3w67ocH0H9UUs99a1jfmDd4Tx8EKdjIEqFmLg
uQr+lX/pSi9g0jagefBcrSBWb4XqS0NjkgnDM33EkK8GjGOuQIqyuXNFp4Yth05Z
xgm0aZshqurVMA5TBmR7w3+OYYrSOLHFRcV6d7mo0Nf916S8dYVKeQmJ1tU5Qsn5
h/R6Zt5aBlOePgOfjmEcwQtqVvpIDpWv/mBPsDPKy0Do63SzcCDinOSnV+dkXayV
p+WRFjUFnAUhTmldH0vA1XH2g+7XuT+BMIYDo5WsgxxaQwrX8mJTtsaf0S8+a0nR
cTNRg64+xXXGWoITTbQimoLEHFk4GHjvn+yzwbgpdFvoDaWj6QZT1ZD0hQJ5FYT6
98QkbteGC2BmWNjVK4iFq2k/v82gH3yjKTvOizTs5HQ6SSNWRamTHGeaVnE3hVqE
e0fmHVqJZhddrVzRwteUeL+dGLf9jlpI3JRoVeT/UILJfVBm1FSjl02WLENTWUgn
E6r0yHSaw1cDDzLY6qBxmnnwX2MMLHCV9Of5nuqPRQf+9gtIBW7RQ96lAj18/kJb
BwNTvBbBjo/BEL4Mw1Zlske1bYpsying51KJS5MqRYGsQ/kWErVHWpefMMoJ45yF
jS2+vQXe6S+lznZrASK5PAlKzfjs4TZ+sxHOXzUBtP1o
-----END CERTIFICATE-----
