Certificate:
    Data:
        Version: 3 (0x2)
        Serial Number: 6927 (0x1b0f)
    Signature Algorithm: md5WithRSAEncryption
        Issuer: C=US, ST=OH, L=Columbus, O=VikingVPN, OU=MyOrganizationalUnit, CN=VikingVPN CA/name=EasyRSA/emailAddress=me@myhost.mydomain
        Validity
            Not Before: Dec 19 04:37:14 2015 GMT
            Not After : Dec 16 04:37:14 2025 GMT
        Subject: CN=Client1799Cert3023b6
        Subject Public Key Info:
            Public Key Algorithm: rsaEncryption
                Public-Key: (4096 bit)
                Modulus:
                    00:bf:f8:98:dd:87:7c:59:47:ff:44:a5:81:f0:b3:
                    29:b5:9c:e7:86:be:93:80:87:aa:6f:7e:b0:c1:8c:
                    48:ac:ee:b5:b2:01:f7:d4:90:46:b4:88:1a:ad:55:
                    1d:e7:70:6a:53:70:18:26:3d:02:3c:aa:36:48:4c:
                    a5:6e:ff:78:ca:82:58:32:a4:77:d7:d5:09:ff:01:
                    a2:00:5b:68:45:92:e0:98:5b:5a:a5:15:c5:db:54:
                    a8:7b:b0:ce:be:d4:44:01:98:3b:c3:b4:2a:14:fe:
                    71:51:6e:88:59:c5:56:65:41:8a:b6:00:9e:dc:c9:
                    09:7e:f8:56:3f:47:d5:4b:76:15:e5:28:3f:71:08:
                    fc:27:ad:5f:0c:48:4c:0c:b0:0c:89:75:2f:05:55:
                    92:8e:5b:57:85:5b:b0:68:bc:b1:03:93:db:91:bf:
                    6b:56:64:e6:5c:67:bf:d8:99:a8:bc:41:cb:80:79:
                    ef:80:c4:81:1d:97:70:fa:c1:b2:c1:25:4c:0d:76:
                    e7:9d:1f:c2:8f:10:d3:77:48:96:fc:1e:34:6e:a3:
                    83:8b:74:27:95:a9:e0:8c:6f:95:ba:e0:f2:30:a3:
                    0d:f3:74:a0:b1:9e:10:26:c1:65:c3:7c:c4:05:bd:
                    96:0f:16:05:96:26:ba:45:33:14:99:19:fd:b5:75:
                    8c:d2:af:8b:68:c9:9b:68:31:76:0c:5e:3c:01:fe:
                    e9:b7:be:c0:64:e3:49:fa:17:aa:b4:c5:56:ac:68:
                    d5:b6:23:fe:55:95:21:f2:3f:66:0e:05:b1:3e:e1:
                    f7:61:6c:de:87:3a:bb:29:d1:66:63:8f:bf:df:9a:
                    5a:4d:98:c4:e3:4f:80:4a:a2:45:1e:04:91:ba:79:
                    69:8a:71:dc:f2:b1:ba:27:5e:d8:92:de:fa:fb:35:
                    cf:f3:0a:e3:60:b9:14:1c:dd:0b:f8:3f:19:27:b3:
                    26:dd:bf:a5:a5:a6:da:22:0a:b7:93:ca:e0:c4:0e:
                    92:80:01:3e:0b:f4:ab:1b:f3:df:3e:1d:d7:28:6f:
                    19:57:20:a8:7f:db:4d:a1:88:a8:c0:17:13:82:a8:
                    c1:5d:af:8f:bb:7e:03:df:59:d5:e2:34:cb:66:56:
                    ec:1f:f0:3a:95:15:20:06:f6:28:90:25:b5:b5:a9:
                    fc:dd:bf:06:51:74:8d:12:eb:4c:f3:4f:8e:b1:15:
                    a1:63:fe:e5:03:bd:72:ca:16:71:1b:89:b9:0d:2f:
                    35:cd:ee:c4:76:ea:49:b3:9d:2c:55:84:5c:e6:99:
                    4c:d2:a6:2c:38:4e:21:51:8d:88:38:fd:4a:f7:6d:
                    c5:fd:cf:90:ba:8d:11:31:19:7b:13:31:e4:da:d4:
                    1a:93:e1
                Exponent: 65537 (0x10001)
        X509v3 extensions:
            X509v3 Basic Constraints: 
                CA:FALSE
            Netscape Comment: 
                Easy-RSA Generated Certificate
            X509v3 Subject Key Identifier: 
                D3:49:80:DC:B7:A1:B8:0F:83:17:FA:53:60:D6:AC:31:28:E8:D4:C0
            X509v3 Authority Key Identifier: 
                keyid:12:CD:60:04:D2:A0:80:9E:70:ED:C6:99:B8:7B:2C:C6:52:FD:19:A1
                DirName:/C=US/ST=OH/L=Columbus/O=VikingVPN/OU=MyOrganizationalUnit/CN=VikingVPN CA/name=EasyRSA/emailAddress=me@myhost.mydomain
                serial:CF:35:85:EE:80:BF:2A:3E

            X509v3 Extended Key Usage: 
                TLS Web Client Authentication
            X509v3 Key Usage: 
                Digital Signature
    Signature Algorithm: md5WithRSAEncryption
         06:a3:92:99:09:84:4b:8d:45:b0:17:16:d0:49:61:80:52:fd:
         62:47:b8:08:3b:c6:f4:2c:27:5a:16:42:15:42:47:20:59:2e:
         4f:e7:9c:e2:22:d1:c2:4d:24:6a:8d:82:09:01:f1:32:84:86:
         08:95:55:d9:86:bd:ba:44:a0:e1:02:4d:50:7b:6f:40:dd:2f:
         74:75:9b:79:31:30:6b:03:7a:d0:42:2b:5f:98:98:69:1e:d1:
         17:8a:c7:37:62:90:9c:ef:f2:2b:d4:ea:b9:58:59:50:86:ee:
         d0:11:38:8c:1b:cb:6d:e8:dd:2e:81:5c:e2:ca:98:0e:5e:89:
         38:b1:60:35:74:d1:fe:51:cc:a6:35:5b:d7:9a:80:e4:cf:cb:
         49:ae:b9:05:19:51:f5:29:87:58:e1:c0:0d:b5:79:17:54:6d:
         5b:60:e7:e4:0b:2b:96:c2:06:b0:8a:77:cb:9e:33:47:e5:54:
         8c:fc:a6:6c:eb:82:8b:06:d0:48:5d:30:ce:e9:63:9e:9f:55:
         f4:a7:6c:7b:b6:b9:9a:12:0e:54:c0:10:46:e0:cc:01:3a:d3:
         c4:fa:d7:64:ab:66:8b:83:77:1a:62:b8:91:65:33:2b:00:a3:
         51:1e:cb:28:2b:95:c7:0a:76:5a:7b:d5:ec:eb:87:68:e6:97:
         75:30:75:ff:ea:1e:fb:2c:34:9c:e7:35:db:f4:79:83:3e:2e:
         48:5a:73:af:b8:bd:f7:de:66:b7:1d:ed:d8:cd:57:79:e2:f8:
         8b:58:f5:19:3f:34:99:f7:00:d3:28:bd:b7:88:81:99:09:95:
         de:75:e5:81:29:5e:c8:47:82:f4:f3:44:7c:dc:d2:fb:9b:f0:
         af:97:5d:35:55:50:82:f7:87:30:6b:c7:8c:01:11:14:48:17:
         87:8a:2c:d6:a9:a0:22:a8:c2:dd:7b:02:85:2c:90:25:71:d1:
         16:5f:06:e1:12:d2:b3:94:71:b5:2b:0d:98:22:bb:f5:16:2a:
         86:5d:e2:29:d1:09:da:30:14:e2:bd:47:4a:e4:19:9c:7c:0e:
         46:ba:8e:56:30:6d:7a:18:47:1a:62:b8:34:00:eb:9e:92:b9:
         a7:a8:78:02:54:b1:0c:96:15:d5:68:bb:93:fd:04:6b:b8:54:
         d2:dc:ac:48:7a:23:8d:46:ac:12:9b:f0:c8:0a:f5:6a:81:d9:
         bb:2f:75:6c:fc:9f:75:4f:4e:f5:77:90:35:5f:ce:fb:ba:b3:
         72:b7:84:eb:9f:b7:09:50:fb:11:c6:0c:00:91:eb:7b:e9:e1:
         4e:0f:b2:c4:a2:35:9b:ec:d7:79:1b:b5:98:5b:1f:52:ca:4d:
         a1:c5:73:88:8c:ff:fc:19
-----BEGIN CERTIFICATE-----
MIIGrTCCBJWgAwIBAgICGw8wDQYJKoZIhvcNAQEEBQAwgawxCzAJBgNVBAYTAlVT
MQswCQYDVQQIEwJPSDERMA8GA1UEBxMIQ29sdW1idXMxEjAQBgNVBAoTCVZpa2lu
Z1ZQTjEdMBsGA1UECxMUTXlPcmdhbml6YXRpb25hbFVuaXQxFTATBgNVBAMTDFZp
a2luZ1ZQTiBDQTEQMA4GA1UEKRMHRWFzeVJTQTEhMB8GCSqGSIb3DQEJARYSbWVA
bXlob3N0Lm15ZG9tYWluMB4XDTE1MTIxOTA0MzcxNFoXDTI1MTIxNjA0MzcxNFow
HzEdMBsGA1UEAxMUQ2xpZW50MTc5OUNlcnQzMDIzYjYwggIiMA0GCSqGSIb3DQEB
AQUAA4ICDwAwggIKAoICAQC/+Jjdh3xZR/9EpYHwsym1nOeGvpOAh6pvfrDBjEis
7rWyAffUkEa0iBqtVR3ncGpTcBgmPQI8qjZITKVu/3jKglgypHfX1Qn/AaIAW2hF
kuCYW1qlFcXbVKh7sM6+1EQBmDvDtCoU/nFRbohZxVZlQYq2AJ7cyQl++FY/R9VL
dhXlKD9xCPwnrV8MSEwMsAyJdS8FVZKOW1eFW7BovLEDk9uRv2tWZOZcZ7/Ymai8
QcuAee+AxIEdl3D6wbLBJUwNduedH8KPENN3SJb8HjRuo4OLdCeVqeCMb5W64PIw
ow3zdKCxnhAmwWXDfMQFvZYPFgWWJrpFMxSZGf21dYzSr4toyZtoMXYMXjwB/um3
vsBk40n6F6q0xVasaNW2I/5VlSHyP2YOBbE+4fdhbN6HOrsp0WZjj7/fmlpNmMTj
T4BKokUeBJG6eWmKcdzysbonXtiS3vr7Nc/zCuNguRQc3Qv4Pxknsybdv6Wlptoi
CreTyuDEDpKAAT4L9Ksb898+HdcobxlXIKh/202hiKjAFxOCqMFdr4+7fgPfWdXi
NMtmVuwf8DqVFSAG9iiQJbW1qfzdvwZRdI0S60zzT46xFaFj/uUDvXLKFnEbibkN
LzXN7sR26kmznSxVhFzmmUzSpiw4TiFRjYg4/Ur3bcX9z5C6jRExGXsTMeTa1BqT
4QIDAQABo4IBYzCCAV8wCQYDVR0TBAIwADAtBglghkgBhvhCAQ0EIBYeRWFzeS1S
U0EgR2VuZXJhdGVkIENlcnRpZmljYXRlMB0GA1UdDgQWBBTTSYDct6G4D4MX+lNg
1qwxKOjUwDCB4QYDVR0jBIHZMIHWgBQSzWAE0qCAnnDtxpm4eyzGUv0ZoaGBsqSB
rzCBrDELMAkGA1UEBhMCVVMxCzAJBgNVBAgTAk9IMREwDwYDVQQHEwhDb2x1bWJ1
czESMBAGA1UEChMJVmlraW5nVlBOMR0wGwYDVQQLExRNeU9yZ2FuaXphdGlvbmFs
VW5pdDEVMBMGA1UEAxMMVmlraW5nVlBOIENBMRAwDgYDVQQpEwdFYXN5UlNBMSEw
HwYJKoZIhvcNAQkBFhJtZUBteWhvc3QubXlkb21haW6CCQDPNYXugL8qPjATBgNV
HSUEDDAKBggrBgEFBQcDAjALBgNVHQ8EBAMCB4AwDQYJKoZIhvcNAQEEBQADggIB
AAajkpkJhEuNRbAXFtBJYYBS/WJHuAg7xvQsJ1oWQhVCRyBZLk/nnOIi0cJNJGqN
ggkB8TKEhgiVVdmGvbpEoOECTVB7b0DdL3R1m3kxMGsDetBCK1+YmGke0ReKxzdi
kJzv8ivU6rlYWVCG7tAROIwby23o3S6BXOLKmA5eiTixYDV00f5RzKY1W9eagOTP
y0muuQUZUfUph1jhwA21eRdUbVtg5+QLK5bCBrCKd8ueM0flVIz8pmzrgosG0Ehd
MM7pY56fVfSnbHu2uZoSDlTAEEbgzAE608T612SrZouDdxpiuJFlMysAo1Eeyygr
lccKdlp71ezrh2jml3Uwdf/qHvssNJznNdv0eYM+Lkhac6+4vffeZrcd7djNV3ni
+ItY9Rk/NJn3ANMovbeIgZkJld515YEpXshHgvTzRHzc0vub8K+XXTVVUIL3hzBr
x4wBERRIF4eKLNapoCKowt17AoUskCVx0RZfBuES0rOUcbUrDZgiu/UWKoZd4inR
CdowFOK9R0rkGZx8Dka6jlYwbXoYRxpiuDQA656SuaeoeAJUsQyWFdVou5P9BGu4
VNLcrEh6I41GrBKb8MgK9WqB2bsvdWz8n3VPTvV3kDVfzvu6s3K3hOuftwlQ+xHG
DACR63vp4U4PssSiNZvs13kbtZhbH1LKTaHFc4iM//wZ
-----END CERTIFICATE-----
