Certificate:
    Data:
        Version: 3 (0x2)
        Serial Number: 6928 (0x1b10)
    Signature Algorithm: md5WithRSAEncryption
        Issuer: C=US, ST=OH, L=Columbus, O=VikingVPN, OU=MyOrganizationalUnit, CN=VikingVPN CA/name=EasyRSA/emailAddress=me@myhost.mydomain
        Validity
            Not Before: Dec 19 21:42:53 2015 GMT
            Not After : Dec 16 21:42:53 2025 GMT
        Subject: CN=Client1176Cert5a0b56
        Subject Public Key Info:
            Public Key Algorithm: rsaEncryption
                Public-Key: (4096 bit)
                Modulus:
                    00:bc:6f:f1:f0:f4:26:77:a4:bb:9b:8b:96:9d:de:
                    ba:3a:6c:7e:96:88:a3:89:67:cb:8c:77:27:29:49:
                    2d:5e:4a:5f:19:6a:75:7d:3e:7e:c1:f5:3b:03:5d:
                    23:7d:77:05:c7:a4:f1:19:d3:00:eb:34:2a:66:e5:
                    fd:03:77:e7:f6:33:ea:b0:af:b7:cf:1e:98:f9:a1:
                    34:07:51:b9:c9:88:56:b5:85:39:93:f8:76:d1:bf:
                    d6:ab:12:bd:da:66:88:12:63:4b:ae:53:84:c8:3f:
                    4f:69:8a:8c:83:c3:09:c7:c3:2f:07:ee:79:0d:14:
                    93:0e:a3:7b:2a:e8:72:0b:f6:f7:b0:2f:0e:12:af:
                    c5:52:91:65:87:1c:3f:fd:8a:b5:c3:e6:e6:bf:e2:
                    5f:5e:cb:25:46:ad:a6:d7:6d:2f:b4:f9:89:91:7d:
                    36:94:8f:9e:8f:3d:d1:b3:85:d5:e1:46:a9:da:99:
                    fc:24:d0:de:cf:77:a4:01:4a:f7:6e:58:bc:d5:a7:
                    2c:e3:c1:7c:8a:c9:36:a5:a0:b7:e5:45:c0:87:5e:
                    da:f6:0c:e1:a1:f8:51:19:59:13:7c:9b:0d:4f:c9:
                    e0:5c:1a:07:18:a7:f6:04:91:49:30:e1:73:a7:57:
                    f3:c7:fa:3b:30:d1:a6:f8:18:2e:18:7c:5f:70:78:
                    9e:af:9f:b4:c4:c3:b7:b3:51:e8:3a:a0:d5:fe:80:
                    4b:64:1c:29:c7:55:93:5a:7d:c4:3e:74:e2:1c:b6:
                    41:09:88:6a:11:0f:70:73:99:f0:5e:3e:68:df:b7:
                    d7:c5:61:46:e3:94:25:26:6d:56:04:27:6c:03:fe:
                    e9:c4:8f:52:94:0e:e5:3e:ed:ee:73:1a:74:1d:4c:
                    61:dc:1e:0e:1f:26:eb:3f:9f:88:5d:c2:59:88:ef:
                    b5:09:e6:38:9b:d1:48:a8:9b:69:6e:f6:92:e8:00:
                    05:28:4a:9e:ac:b2:3c:8b:2f:10:d8:af:0a:01:48:
                    d6:ff:08:63:35:33:2c:d3:0d:05:ff:1c:07:d1:64:
                    18:d5:91:bc:64:e5:89:8e:f9:fd:b8:cb:f3:e5:48:
                    47:ac:93:6c:9e:7e:56:73:73:a2:7b:f0:ef:e1:4b:
                    45:89:3b:b7:e7:10:72:79:4e:4a:e0:7b:e7:f2:b7:
                    74:ce:71:3f:01:b5:ae:89:bd:dc:b2:a8:58:48:40:
                    13:4f:24:c9:78:e1:7b:2f:15:ca:e7:74:39:5d:c7:
                    48:3f:58:c9:38:de:00:d2:ca:74:db:b2:33:ee:d2:
                    19:be:71:30:34:ce:8c:da:3d:0e:10:0e:a5:dd:15:
                    ea:1a:ab:af:5b:3a:01:47:fb:99:0c:b5:6f:8e:e0:
                    68:05:5f
                Exponent: 65537 (0x10001)
        X509v3 extensions:
            X509v3 Basic Constraints: 
                CA:FALSE
            Netscape Comment: 
                Easy-RSA Generated Certificate
            X509v3 Subject Key Identifier: 
                B6:66:0A:84:8A:A9:2F:42:7D:AF:48:A0:97:81:2E:8A:DF:38:88:D6
            X509v3 Authority Key Identifier: 
                keyid:12:CD:60:04:D2:A0:80:9E:70:ED:C6:99:B8:7B:2C:C6:52:FD:19:A1
                DirName:/C=US/ST=OH/L=Columbus/O=VikingVPN/OU=MyOrganizationalUnit/CN=VikingVPN CA/name=EasyRSA/emailAddress=me@myhost.mydomain
                serial:CF:35:85:EE:80:BF:2A:3E

            X509v3 Extended Key Usage: 
                TLS Web Client Authentication
            X509v3 Key Usage: 
                Digital Signature
    Signature Algorithm: md5WithRSAEncryption
         9c:a8:c7:ee:cf:a5:41:eb:86:a0:4c:37:42:b6:94:b1:7d:3a:
         ae:d2:a3:8b:98:8d:6b:d6:a0:33:1d:fd:4f:2c:b0:94:78:85:
         36:3f:67:01:03:83:af:85:df:6f:15:88:ec:9d:01:e4:88:b1:
         4b:51:99:e4:74:17:03:e9:ef:b7:89:ff:2d:50:2c:5a:ca:4a:
         86:f0:c8:d7:59:ce:47:dd:b1:b5:94:df:aa:6d:e1:89:b2:fe:
         ba:ed:4b:d0:42:98:e1:1d:e3:82:1e:b3:9b:22:82:4d:40:9b:
         33:28:8e:fc:e4:6f:c2:18:8d:23:f2:bc:0e:05:5d:6c:f4:43:
         3c:c1:22:a0:ca:f5:11:a9:5b:93:ee:c1:bf:b5:4e:a2:00:43:
         1b:e2:e5:fe:ae:7c:8a:b3:a0:2d:98:67:20:05:3e:83:18:bb:
         f0:2e:dc:78:44:26:c6:65:af:b4:d8:3e:cb:e2:5e:52:06:17:
         1d:bd:1c:05:4e:6b:96:d7:b9:53:56:af:88:8a:75:4a:3c:25:
         95:6a:c6:e7:38:70:62:bd:c3:a0:d7:6b:e4:3e:00:c3:84:fd:
         44:4b:af:23:8f:df:72:b6:df:4b:2a:01:ec:98:bf:8f:de:ca:
         05:34:18:76:62:58:95:43:ae:5b:07:e7:c0:2e:ba:71:29:a6:
         a4:28:56:29:14:c6:24:bf:62:f9:4f:9c:80:4c:63:c5:1c:5e:
         f5:3d:17:f3:3d:a4:40:5c:3a:6e:a8:bf:61:c7:ee:b2:7e:93:
         a4:99:fa:bd:b7:55:e6:30:3f:5c:70:e5:b6:a5:c1:c7:3a:94:
         2d:b3:b6:4e:e9:57:9d:88:c6:92:06:09:05:d4:0d:f8:e8:49:
         b9:f4:04:2b:ae:9d:f8:8c:f5:c2:d1:68:5c:be:81:65:26:b3:
         f0:1b:93:6c:7e:14:cd:c6:72:df:0f:c0:f8:0b:41:be:23:0f:
         59:76:09:71:75:d1:1d:01:40:e9:1b:3e:dd:bb:5c:5d:22:8d:
         87:17:b5:c6:c9:f1:44:64:cc:e4:3d:31:e0:3e:38:29:67:a8:
         ff:a3:2f:0c:b5:9d:75:1a:4d:ea:b7:ed:04:62:53:dd:84:e6:
         dc:1c:6a:ca:6d:89:22:e0:4d:10:1d:1d:b3:6a:14:cb:8d:ee:
         7b:71:9d:5a:6a:8c:da:48:f9:55:9b:5d:0a:b7:a6:cf:cb:1e:
         0c:36:85:0a:95:5a:52:e3:0f:5b:cf:76:d6:46:d1:7a:6b:f1:
         a3:0a:dc:7d:8f:62:6d:d1:45:e0:ce:28:92:6f:8d:f4:df:30:
         0e:fa:bb:a8:59:7c:c2:e7:d7:de:38:8b:df:98:27:4b:5b:3d:
         d3:67:05:3a:07:67:02:1e
-----BEGIN CERTIFICATE-----
MIIGrTCCBJWgAwIBAgICGxAwDQYJKoZIhvcNAQEEBQAwgawxCzAJBgNVBAYTAlVT
MQswCQYDVQQIEwJPSDERMA8GA1UEBxMIQ29sdW1idXMxEjAQBgNVBAoTCVZpa2lu
Z1ZQTjEdMBsGA1UECxMUTXlPcmdhbml6YXRpb25hbFVuaXQxFTATBgNVBAMTDFZp
a2luZ1ZQTiBDQTEQMA4GA1UEKRMHRWFzeVJTQTEhMB8GCSqGSIb3DQEJARYSbWVA
bXlob3N0Lm15ZG9tYWluMB4XDTE1MTIxOTIxNDI1M1oXDTI1MTIxNjIxNDI1M1ow
HzEdMBsGA1UEAxMUQ2xpZW50MTE3NkNlcnQ1YTBiNTYwggIiMA0GCSqGSIb3DQEB
AQUAA4ICDwAwggIKAoICAQC8b/Hw9CZ3pLubi5ad3ro6bH6WiKOJZ8uMdycpSS1e
Sl8ZanV9Pn7B9TsDXSN9dwXHpPEZ0wDrNCpm5f0Dd+f2M+qwr7fPHpj5oTQHUbnJ
iFa1hTmT+HbRv9arEr3aZogSY0uuU4TIP09pioyDwwnHwy8H7nkNFJMOo3sq6HIL
9vewLw4Sr8VSkWWHHD/9irXD5ua/4l9eyyVGrabXbS+0+YmRfTaUj56PPdGzhdXh
Rqnamfwk0N7Pd6QBSvduWLzVpyzjwXyKyTaloLflRcCHXtr2DOGh+FEZWRN8mw1P
yeBcGgcYp/YEkUkw4XOnV/PH+jsw0ab4GC4YfF9weJ6vn7TEw7ezUeg6oNX+gEtk
HCnHVZNafcQ+dOIctkEJiGoRD3BzmfBePmjft9fFYUbjlCUmbVYEJ2wD/unEj1KU
DuU+7e5zGnQdTGHcHg4fJus/n4hdwlmI77UJ5jib0Uiom2lu9pLoAAUoSp6ssjyL
LxDYrwoBSNb/CGM1MyzTDQX/HAfRZBjVkbxk5YmO+f24y/PlSEesk2yeflZzc6J7
8O/hS0WJO7fnEHJ5Tkrge+fyt3TOcT8Bta6JvdyyqFhIQBNPJMl44XsvFcrndDld
x0g/WMk43gDSynTbsjPu0hm+cTA0zozaPQ4QDqXdFeoaq69bOgFH+5kMtW+O4GgF
XwIDAQABo4IBYzCCAV8wCQYDVR0TBAIwADAtBglghkgBhvhCAQ0EIBYeRWFzeS1S
U0EgR2VuZXJhdGVkIENlcnRpZmljYXRlMB0GA1UdDgQWBBS2ZgqEiqkvQn2vSKCX
gS6K3ziI1jCB4QYDVR0jBIHZMIHWgBQSzWAE0qCAnnDtxpm4eyzGUv0ZoaGBsqSB
rzCBrDELMAkGA1UEBhMCVVMxCzAJBgNVBAgTAk9IMREwDwYDVQQHEwhDb2x1bWJ1
czESMBAGA1UEChMJVmlraW5nVlBOMR0wGwYDVQQLExRNeU9yZ2FuaXphdGlvbmFs
VW5pdDEVMBMGA1UEAxMMVmlraW5nVlBOIENBMRAwDgYDVQQpEwdFYXN5UlNBMSEw
HwYJKoZIhvcNAQkBFhJtZUBteWhvc3QubXlkb21haW6CCQDPNYXugL8qPjATBgNV
HSUEDDAKBggrBgEFBQcDAjALBgNVHQ8EBAMCB4AwDQYJKoZIhvcNAQEEBQADggIB
AJyox+7PpUHrhqBMN0K2lLF9Oq7So4uYjWvWoDMd/U8ssJR4hTY/ZwEDg6+F328V
iOydAeSIsUtRmeR0FwPp77eJ/y1QLFrKSobwyNdZzkfdsbWU36pt4Ymy/rrtS9BC
mOEd44Ies5sigk1AmzMojvzkb8IYjSPyvA4FXWz0QzzBIqDK9RGpW5Puwb+1TqIA
Qxvi5f6ufIqzoC2YZyAFPoMYu/Au3HhEJsZlr7TYPsviXlIGFx29HAVOa5bXuVNW
r4iKdUo8JZVqxuc4cGK9w6DXa+Q+AMOE/URLryOP33K230sqAeyYv4/eygU0GHZi
WJVDrlsH58AuunEppqQoVikUxiS/YvlPnIBMY8UcXvU9F/M9pEBcOm6ov2HH7rJ+
k6SZ+r23VeYwP1xw5balwcc6lC2ztk7pV52IxpIGCQXUDfjoSbn0BCuunfiM9cLR
aFy+gWUms/Abk2x+FM3Gct8PwPgLQb4jD1l2CXF10R0BQOkbPt27XF0ijYcXtcbJ
8URkzOQ9MeA+OClnqP+jLwy1nXUaTeq37QRiU92E5twcasptiSLgTRAdHbNqFMuN
7ntxnVpqjNpI+VWbXQq3ps/LHgw2hQqVWlLjD1vPdtZG0Xpr8aMK3H2PYm3RReDO
KJJvjfTfMA76u6hZfMLn1944i9+YJ0tbPdNnBToHZwIe
-----END CERTIFICATE-----
