Certificate:
    Data:
        Version: 3 (0x2)
        Serial Number: 6960 (0x1b30)
    Signature Algorithm: md5WithRSAEncryption
        Issuer: C=US, ST=OH, L=Columbus, O=VikingVPN, OU=MyOrganizationalUnit, CN=VikingVPN CA/name=EasyRSA/emailAddress=me@myhost.mydomain
        Validity
            Not Before: Dec 27 06:42:33 2015 GMT
            Not After : Dec 24 06:42:33 2025 GMT
        Subject: CN=Client1708Cert7a1f66
        Subject Public Key Info:
            Public Key Algorithm: rsaEncryption
                Public-Key: (4096 bit)
                Modulus:
                    00:ee:8f:dc:2d:1b:bb:20:8f:e9:5b:44:9f:1c:8c:
                    00:1a:3d:b3:92:80:43:7f:ab:4b:01:c8:20:ee:89:
                    06:82:7c:fd:08:e4:b3:cd:d6:9a:58:ee:fd:e7:b3:
                    fe:05:d2:32:9e:8f:d8:66:1f:78:13:41:dd:4c:0a:
                    63:37:ba:bb:82:f3:f4:38:33:24:64:1d:38:31:0a:
                    dd:07:fb:a0:fe:ca:b2:0c:c1:46:4d:96:f8:56:81:
                    26:93:fb:bf:03:ca:07:b3:c0:9a:0b:b9:f3:a5:b8:
                    71:9f:92:5a:3e:54:a0:35:71:29:4f:08:2c:cb:4b:
                    73:51:41:7d:ee:c8:5b:ee:0d:13:1b:08:01:ad:9f:
                    28:04:b8:18:06:48:db:8d:74:d5:49:e8:62:76:cc:
                    00:81:23:bf:f5:13:ad:45:da:6b:09:82:c8:f3:1a:
                    9c:19:ee:1e:81:4b:c1:0f:60:10:2a:d8:86:a1:79:
                    2c:84:67:0b:f1:5e:66:26:71:46:89:74:cc:65:be:
                    00:b9:dc:03:1c:70:14:a8:7d:cb:4b:6a:c0:72:3d:
                    32:bb:21:b8:5e:da:53:15:2a:a8:d0:a6:9c:1a:d4:
                    c2:90:65:6a:79:d2:d1:62:f5:b1:3b:aa:40:ab:38:
                    c0:d2:4e:9f:b3:9f:8b:db:75:ae:38:99:72:ce:29:
                    aa:3b:ec:b5:72:13:41:51:58:09:63:55:a2:59:e4:
                    d0:de:e7:23:33:30:61:ea:b3:e0:d6:32:c6:6b:13:
                    0a:36:58:7a:b8:72:70:38:fa:a3:bd:d7:23:f8:c8:
                    92:5d:c6:37:d7:bf:cb:5c:53:1f:8c:99:8f:39:12:
                    27:8d:1d:ed:1d:c9:db:82:1e:57:95:6f:fd:25:83:
                    df:aa:22:9b:32:d3:d9:a8:7f:83:fb:06:fc:c8:ce:
                    5f:7d:79:ad:c4:12:32:7f:46:39:2f:e4:68:4a:b6:
                    a4:7d:88:c5:1a:6c:f5:3b:95:7c:ca:a0:33:c2:dd:
                    08:45:02:d0:88:83:6a:42:69:73:b1:ff:80:ad:bb:
                    51:03:79:ce:52:0d:6a:04:5c:b6:07:29:84:c5:0a:
                    44:ca:cc:01:f0:4f:e1:c5:78:57:d6:2e:d4:e8:37:
                    da:cd:55:e8:41:5a:e4:ea:ce:18:54:12:fd:b7:23:
                    53:a7:04:0d:4e:56:8e:91:e2:b2:96:22:d4:f0:89:
                    ee:f0:60:1a:d9:bf:66:31:40:ac:d2:9e:a4:50:55:
                    fe:11:1f:eb:60:d8:ff:b6:d8:fb:82:7f:ab:94:fa:
                    6d:dc:80:52:3b:99:f7:59:1c:99:32:62:ae:98:25:
                    d8:35:95:f0:71:11:e4:eb:80:6f:c2:4f:f2:b3:78:
                    c9:3b:bb
                Exponent: 65537 (0x10001)
        X509v3 extensions:
            X509v3 Basic Constraints: 
                CA:FALSE
            Netscape Comment: 
                Easy-RSA Generated Certificate
            X509v3 Subject Key Identifier: 
                5E:45:E0:49:9A:A4:91:02:7D:A6:D0:CB:1A:FE:BE:3A:D2:70:4F:CF
            X509v3 Authority Key Identifier: 
                keyid:12:CD:60:04:D2:A0:80:9E:70:ED:C6:99:B8:7B:2C:C6:52:FD:19:A1
                DirName:/C=US/ST=OH/L=Columbus/O=VikingVPN/OU=MyOrganizationalUnit/CN=VikingVPN CA/name=EasyRSA/emailAddress=me@myhost.mydomain
                serial:CF:35:85:EE:80:BF:2A:3E

            X509v3 Extended Key Usage: 
                TLS Web Client Authentication
            X509v3 Key Usage: 
                Digital Signature
    Signature Algorithm: md5WithRSAEncryption
         e9:b9:f2:c7:8f:22:eb:b7:7b:d3:2d:b2:d6:1d:ed:74:a2:53:
         8a:fb:ed:f0:1e:a4:77:09:ed:bf:47:a2:f9:51:ef:d3:0e:9d:
         cb:df:ff:2a:1c:e4:f4:9e:00:93:ba:60:07:fc:ee:8d:b5:63:
         85:a2:26:49:23:41:b6:21:71:92:a5:e7:c9:d8:d7:ab:d7:a6:
         67:b8:24:9e:00:80:69:48:74:6c:3d:7e:89:bc:1d:a5:67:91:
         0a:0f:6d:ef:ff:d2:2e:eb:bb:d8:2d:5e:6c:ad:84:4b:86:ab:
         3b:cb:39:f6:46:d4:68:b5:d4:c3:d4:e1:4d:ae:75:e7:a6:fe:
         28:46:d1:44:6c:38:11:59:e1:a3:fd:f7:b4:16:3a:b6:e3:a1:
         6e:84:07:e5:8f:e2:d3:1d:92:23:22:b4:be:0d:22:f8:75:5e:
         fc:b6:4c:2e:a1:71:2d:8a:9d:47:f7:7d:8c:9a:fd:cc:14:6e:
         9c:46:2e:43:47:9c:2e:8a:a1:f0:f8:73:f7:9c:65:cd:88:e4:
         54:c1:6d:09:94:2c:c5:4a:09:a5:e3:4c:4b:77:66:e4:f7:c1:
         46:3b:c9:e7:ba:c8:38:fd:1b:72:a3:24:06:0d:12:35:8f:5d:
         25:0f:c9:7d:bf:3a:41:f4:cb:38:99:81:c6:a1:62:32:f8:f0:
         0f:1b:7b:43:28:99:4e:10:b3:5f:08:ff:ff:5a:c7:cf:6b:6d:
         18:7f:4e:61:14:c7:3e:5b:55:b8:9f:b7:30:98:e7:99:04:5b:
         1a:d3:a4:fd:71:e9:de:c8:c0:7d:1a:0c:77:81:ea:5c:28:fc:
         e2:18:b2:0f:e0:75:5e:d6:cd:24:4a:c1:87:20:c4:71:81:4e:
         e9:61:9f:82:9d:99:97:9d:04:95:7f:79:40:8d:06:f6:37:07:
         56:60:06:46:19:2c:33:54:76:03:6b:d0:6e:be:24:16:2b:a7:
         23:3d:ee:80:3b:ed:e0:ab:07:a0:22:c2:7f:aa:2f:22:73:cb:
         80:f8:08:b5:29:b4:70:42:07:99:71:6f:3b:8e:df:ab:8d:d9:
         ab:51:2e:b2:96:5e:49:9c:d3:95:7c:15:d8:60:c1:d1:db:91:
         b7:f9:e8:d2:3a:15:df:47:dc:1f:b1:5e:57:e6:df:6a:fc:4c:
         0f:d8:1a:5b:e7:7b:3d:97:97:67:98:34:31:c7:fe:ed:ad:5f:
         80:9b:50:69:37:de:a0:6c:86:ab:36:50:ce:ba:de:f3:0f:1d:
         c6:93:f9:1c:9d:be:a4:b1:c1:61:df:d0:08:79:30:60:74:d0:
         05:82:b0:53:45:4f:4f:83:ee:49:fc:47:70:9e:d6:61:49:36:
         e8:ae:11:3b:16:7c:49:cc
-----BEGIN CERTIFICATE-----
MIIGrTCCBJWgAwIBAgICGzAwDQYJKoZIhvcNAQEEBQAwgawxCzAJBgNVBAYTAlVT
MQswCQYDVQQIEwJPSDERMA8GA1UEBxMIQ29sdW1idXMxEjAQBgNVBAoTCVZpa2lu
Z1ZQTjEdMBsGA1UECxMUTXlPcmdhbml6YXRpb25hbFVuaXQxFTATBgNVBAMTDFZp
a2luZ1ZQTiBDQTEQMA4GA1UEKRMHRWFzeVJTQTEhMB8GCSqGSIb3DQEJARYSbWVA
bXlob3N0Lm15ZG9tYWluMB4XDTE1MTIyNzA2NDIzM1oXDTI1MTIyNDA2NDIzM1ow
HzEdMBsGA1UEAxMUQ2xpZW50MTcwOENlcnQ3YTFmNjYwggIiMA0GCSqGSIb3DQEB
AQUAA4ICDwAwggIKAoICAQDuj9wtG7sgj+lbRJ8cjAAaPbOSgEN/q0sByCDuiQaC
fP0I5LPN1ppY7v3ns/4F0jKej9hmH3gTQd1MCmM3uruC8/Q4MyRkHTgxCt0H+6D+
yrIMwUZNlvhWgSaT+78DygezwJoLufOluHGfklo+VKA1cSlPCCzLS3NRQX3uyFvu
DRMbCAGtnygEuBgGSNuNdNVJ6GJ2zACBI7/1E61F2msJgsjzGpwZ7h6BS8EPYBAq
2IaheSyEZwvxXmYmcUaJdMxlvgC53AMccBSofctLasByPTK7Ibhe2lMVKqjQppwa
1MKQZWp50tFi9bE7qkCrOMDSTp+zn4vbda44mXLOKao77LVyE0FRWAljVaJZ5NDe
5yMzMGHqs+DWMsZrEwo2WHq4cnA4+qO91yP4yJJdxjfXv8tcUx+MmY85EieNHe0d
yduCHleVb/0lg9+qIpsy09mof4P7BvzIzl99ea3EEjJ/Rjkv5GhKtqR9iMUabPU7
lXzKoDPC3QhFAtCIg2pCaXOx/4Ctu1EDec5SDWoEXLYHKYTFCkTKzAHwT+HFeFfW
LtToN9rNVehBWuTqzhhUEv23I1OnBA1OVo6R4rKWItTwie7wYBrZv2YxQKzSnqRQ
Vf4RH+tg2P+22PuCf6uU+m3cgFI7mfdZHJkyYq6YJdg1lfBxEeTrgG/CT/KzeMk7
uwIDAQABo4IBYzCCAV8wCQYDVR0TBAIwADAtBglghkgBhvhCAQ0EIBYeRWFzeS1S
U0EgR2VuZXJhdGVkIENlcnRpZmljYXRlMB0GA1UdDgQWBBReReBJmqSRAn2m0Msa
/r460nBPzzCB4QYDVR0jBIHZMIHWgBQSzWAE0qCAnnDtxpm4eyzGUv0ZoaGBsqSB
rzCBrDELMAkGA1UEBhMCVVMxCzAJBgNVBAgTAk9IMREwDwYDVQQHEwhDb2x1bWJ1
czESMBAGA1UEChMJVmlraW5nVlBOMR0wGwYDVQQLExRNeU9yZ2FuaXphdGlvbmFs
VW5pdDEVMBMGA1UEAxMMVmlraW5nVlBOIENBMRAwDgYDVQQpEwdFYXN5UlNBMSEw
HwYJKoZIhvcNAQkBFhJtZUBteWhvc3QubXlkb21haW6CCQDPNYXugL8qPjATBgNV
HSUEDDAKBggrBgEFBQcDAjALBgNVHQ8EBAMCB4AwDQYJKoZIhvcNAQEEBQADggIB
AOm58sePIuu3e9MtstYd7XSiU4r77fAepHcJ7b9HovlR79MOncvf/yoc5PSeAJO6
YAf87o21Y4WiJkkjQbYhcZKl58nY16vXpme4JJ4AgGlIdGw9fom8HaVnkQoPbe//
0i7ru9gtXmythEuGqzvLOfZG1Gi11MPU4U2udeem/ihG0URsOBFZ4aP997QWOrbj
oW6EB+WP4tMdkiMitL4NIvh1Xvy2TC6hcS2KnUf3fYya/cwUbpxGLkNHnC6KofD4
c/ecZc2I5FTBbQmULMVKCaXjTEt3ZuT3wUY7yee6yDj9G3KjJAYNEjWPXSUPyX2/
OkH0yziZgcahYjL48A8be0MomU4Qs18I//9ax89rbRh/TmEUxz5bVbiftzCY55kE
WxrTpP1x6d7IwH0aDHeB6lwo/OIYsg/gdV7WzSRKwYcgxHGBTulhn4KdmZedBJV/
eUCNBvY3B1ZgBkYZLDNUdgNr0G6+JBYrpyM97oA77eCrB6Aiwn+qLyJzy4D4CLUp
tHBCB5lxbzuO36uN2atRLrKWXkmc05V8FdhgwdHbkbf56NI6Fd9H3B+xXlfm32r8
TA/YGlvnez2Xl2eYNDHH/u2tX4CbUGk33qBshqs2UM663vMPHcaT+RydvqSxwWHf
0Ah5MGB00AWCsFNFT0+D7kn8R3Ce1mFJNuiuETsWfEnM
-----END CERTIFICATE-----
