Certificate:
    Data:
        Version: 3 (0x2)
        Serial Number: 6990 (0x1b4e)
    Signature Algorithm: md5WithRSAEncryption
        Issuer: C=US, ST=OH, L=Columbus, O=VikingVPN, OU=MyOrganizationalUnit, CN=VikingVPN CA/name=EasyRSA/emailAddress=me@myhost.mydomain
        Validity
            Not Before: Jan  2 22:54:21 2016 GMT
            Not After : Dec 30 22:54:21 2025 GMT
        Subject: CN=Client2128Certef04d2
        Subject Public Key Info:
            Public Key Algorithm: rsaEncryption
                Public-Key: (4096 bit)
                Modulus:
                    00:b7:b2:46:2a:2c:17:21:54:f2:47:a2:cf:9b:a6:
                    49:75:7f:c1:f8:91:61:36:64:76:98:30:10:d6:ea:
                    46:6a:2a:22:a1:87:88:b6:c2:e6:9e:b9:56:2e:ff:
                    e3:12:b0:1a:76:b4:d8:31:59:14:fc:e3:17:9c:4d:
                    27:4a:3b:96:15:a4:24:af:7c:b2:a4:05:01:a1:11:
                    c7:b1:4d:69:0f:c3:3c:aa:73:ec:a6:bf:3d:e8:a2:
                    2b:82:61:e6:ca:1a:79:86:43:d8:4a:60:8b:5e:61:
                    86:a3:31:cf:b0:bf:75:25:b6:d1:ff:c5:da:65:48:
                    43:c6:86:75:6b:52:d7:81:83:4b:16:6d:be:66:7b:
                    62:ea:11:f8:b1:68:22:0f:2a:a1:bb:2f:e6:88:28:
                    35:9f:ce:d0:c0:42:e8:c0:f0:32:6f:3d:f5:98:cd:
                    3f:1c:7a:42:2f:55:71:a7:d4:00:31:cd:85:05:57:
                    1c:8a:20:c2:86:4c:e7:ac:d6:de:f5:28:11:f1:27:
                    d1:ba:b2:c9:ca:92:57:e0:b0:b8:be:1c:d0:05:0d:
                    0e:24:58:d7:e8:6d:d6:53:63:cb:81:94:40:0f:29:
                    74:df:9c:fe:3d:cb:3b:f5:e2:be:32:a2:3d:3c:76:
                    2a:16:29:87:e9:f8:8f:60:ea:84:11:49:7d:b2:5f:
                    e8:b7:ff:26:e3:b4:0b:f5:92:3b:18:ad:32:4c:c0:
                    18:50:9b:91:02:fe:7a:a9:11:39:6b:2d:12:bb:a5:
                    b8:57:39:53:fc:7f:9b:d1:d1:21:94:36:cd:72:02:
                    84:21:20:78:6f:26:49:33:82:d5:11:f6:6c:43:bb:
                    b7:a3:af:8d:6a:d0:c9:72:8b:62:74:f6:6b:b5:c2:
                    05:e6:43:57:5b:17:85:6e:f7:7a:51:58:9a:6b:21:
                    ed:07:81:7f:4f:e8:4d:5b:98:7f:b7:5b:91:24:7e:
                    de:3e:0b:69:c6:05:be:34:ca:0f:f9:15:48:d0:ac:
                    e7:35:bf:36:2e:b4:b0:df:68:32:06:a8:6c:86:8c:
                    97:99:e7:09:d5:c9:ae:42:b0:cb:30:85:51:e5:f6:
                    1a:d5:fc:d0:93:ad:de:95:8c:75:bb:20:58:5b:95:
                    1b:35:61:d9:f2:67:f6:4e:0a:9f:3a:13:31:c7:dc:
                    f0:de:10:c1:72:c7:0f:a2:52:7d:0b:f3:57:98:48:
                    b3:93:08:13:b1:ba:9e:45:03:a2:33:03:3c:de:09:
                    0c:1f:0e:3d:69:38:e0:13:7b:8a:60:bf:6c:31:54:
                    c3:6d:a1:25:a6:4e:a7:6d:49:75:a9:47:25:b2:a0:
                    25:65:db:41:66:b8:87:17:c8:1f:38:6b:bb:e8:36:
                    90:78:ef
                Exponent: 65537 (0x10001)
        X509v3 extensions:
            X509v3 Basic Constraints: 
                CA:FALSE
            Netscape Comment: 
                Easy-RSA Generated Certificate
            X509v3 Subject Key Identifier: 
                6F:85:AF:5D:1B:62:EB:4A:3C:5B:7A:D7:20:D6:9F:FF:22:5F:3E:2C
            X509v3 Authority Key Identifier: 
                keyid:12:CD:60:04:D2:A0:80:9E:70:ED:C6:99:B8:7B:2C:C6:52:FD:19:A1
                DirName:/C=US/ST=OH/L=Columbus/O=VikingVPN/OU=MyOrganizationalUnit/CN=VikingVPN CA/name=EasyRSA/emailAddress=me@myhost.mydomain
                serial:CF:35:85:EE:80:BF:2A:3E

            X509v3 Extended Key Usage: 
                TLS Web Client Authentication
            X509v3 Key Usage: 
                Digital Signature
    Signature Algorithm: md5WithRSAEncryption
         10:08:f6:54:da:bf:5b:aa:84:1b:02:a8:52:55:d6:6f:f7:ef:
         9d:87:2c:5f:29:48:49:92:0c:42:00:fe:06:f8:58:44:1e:cc:
         b3:80:8d:5c:ad:63:ea:9b:b3:76:50:70:1d:e3:86:54:9a:09:
         dd:50:35:98:1e:65:21:a4:b1:27:3b:a6:23:09:83:54:8a:48:
         b0:f6:30:7f:db:90:48:50:ad:a5:6e:dc:18:81:8f:1f:f2:76:
         aa:0f:37:b3:19:d1:14:8e:d4:49:77:2a:d8:6a:e8:4d:bb:e6:
         f6:54:f3:5c:37:de:ae:ac:31:d3:83:ab:85:18:41:1a:10:fb:
         a1:78:93:ea:ee:ad:56:46:b0:cd:2f:3f:4c:f1:f7:4d:1f:0e:
         17:ff:6f:3e:9c:bf:e7:26:d3:a2:09:58:37:0b:72:ea:97:75:
         4f:3b:a6:f7:b0:90:24:89:5f:12:a0:f1:07:ea:91:06:6b:b5:
         cd:d8:0b:87:e5:c8:8f:50:e5:9b:c6:43:de:06:38:3e:2b:d1:
         1c:9a:7c:8d:d8:c3:c7:c3:a6:f9:68:b7:aa:ef:de:68:bc:41:
         e5:e3:75:b0:51:37:c2:17:6c:c6:5e:9f:0d:12:76:38:b3:c5:
         4c:68:27:aa:4f:d4:b4:9f:3e:76:13:25:70:88:05:08:a7:77:
         fd:d7:93:1a:ca:07:3e:2e:8a:89:6c:8b:c6:df:ec:3f:f4:71:
         23:06:b0:9a:63:e6:e7:17:f3:26:52:f0:23:ec:e6:da:47:46:
         5e:fa:86:76:68:a3:f8:3b:fe:f9:40:0e:b5:3a:69:4c:ef:a2:
         06:1e:0a:3c:92:ad:27:36:06:b9:99:d8:c0:f9:1b:10:7d:a4:
         d6:7d:1b:91:e0:5b:f6:62:a7:36:88:48:ef:23:65:d8:49:36:
         12:40:63:ea:c0:7b:53:4a:6b:e9:e3:fe:de:02:c9:c4:ab:1f:
         4c:1d:1b:bb:b8:ef:c8:da:fc:48:b9:85:4f:33:4b:50:af:3c:
         6c:c0:79:ea:18:4b:fb:6a:3e:47:fe:93:f9:df:7f:93:1f:88:
         a2:2f:67:7f:da:38:2b:2f:ed:72:07:35:5b:02:22:dd:dd:4f:
         f3:a6:a3:41:87:5c:ce:eb:c8:27:30:a9:19:5d:8f:91:b4:e0:
         8a:41:f8:7b:e9:33:55:cb:04:02:b0:29:3f:57:66:1f:6b:28:
         56:80:e2:22:fe:a1:80:98:42:88:86:1f:c5:95:61:78:33:1f:
         a8:71:c9:32:53:d1:fe:57:1f:17:d4:d3:f9:d2:21:15:c9:82:
         0c:6f:74:46:d5:0f:10:3d:e6:ab:4c:4a:e2:16:c9:9a:95:38:
         f5:9c:87:0a:6d:4f:ac:95
-----BEGIN CERTIFICATE-----
MIIGrTCCBJWgAwIBAgICG04wDQYJKoZIhvcNAQEEBQAwgawxCzAJBgNVBAYTAlVT
MQswCQYDVQQIEwJPSDERMA8GA1UEBxMIQ29sdW1idXMxEjAQBgNVBAoTCVZpa2lu
Z1ZQTjEdMBsGA1UECxMUTXlPcmdhbml6YXRpb25hbFVuaXQxFTATBgNVBAMTDFZp
a2luZ1ZQTiBDQTEQMA4GA1UEKRMHRWFzeVJTQTEhMB8GCSqGSIb3DQEJARYSbWVA
bXlob3N0Lm15ZG9tYWluMB4XDTE2MDEwMjIyNTQyMVoXDTI1MTIzMDIyNTQyMVow
HzEdMBsGA1UEAxMUQ2xpZW50MjEyOENlcnRlZjA0ZDIwggIiMA0GCSqGSIb3DQEB
AQUAA4ICDwAwggIKAoICAQC3skYqLBchVPJHos+bpkl1f8H4kWE2ZHaYMBDW6kZq
KiKhh4i2wuaeuVYu/+MSsBp2tNgxWRT84xecTSdKO5YVpCSvfLKkBQGhEcexTWkP
wzyqc+ymvz3ooiuCYebKGnmGQ9hKYIteYYajMc+wv3UlttH/xdplSEPGhnVrUteB
g0sWbb5me2LqEfixaCIPKqG7L+aIKDWfztDAQujA8DJvPfWYzT8cekIvVXGn1AAx
zYUFVxyKIMKGTOes1t71KBHxJ9G6ssnKklfgsLi+HNAFDQ4kWNfobdZTY8uBlEAP
KXTfnP49yzv14r4yoj08dioWKYfp+I9g6oQRSX2yX+i3/ybjtAv1kjsYrTJMwBhQ
m5EC/nqpETlrLRK7pbhXOVP8f5vR0SGUNs1yAoQhIHhvJkkzgtUR9mxDu7ejr41q
0Mlyi2J09mu1wgXmQ1dbF4Vu93pRWJprIe0HgX9P6E1bmH+3W5Ekft4+C2nGBb40
yg/5FUjQrOc1vzYutLDfaDIGqGyGjJeZ5wnVya5CsMswhVHl9hrV/NCTrd6VjHW7
IFhblRs1YdnyZ/ZOCp86EzHH3PDeEMFyxw+iUn0L81eYSLOTCBOxup5FA6IzAzze
CQwfDj1pOOATe4pgv2wxVMNtoSWmTqdtSXWpRyWyoCVl20FmuIcXyB84a7voNpB4
7wIDAQABo4IBYzCCAV8wCQYDVR0TBAIwADAtBglghkgBhvhCAQ0EIBYeRWFzeS1S
U0EgR2VuZXJhdGVkIENlcnRpZmljYXRlMB0GA1UdDgQWBBRvha9dG2LrSjxbetcg
1p//Il8+LDCB4QYDVR0jBIHZMIHWgBQSzWAE0qCAnnDtxpm4eyzGUv0ZoaGBsqSB
rzCBrDELMAkGA1UEBhMCVVMxCzAJBgNVBAgTAk9IMREwDwYDVQQHEwhDb2x1bWJ1
czESMBAGA1UEChMJVmlraW5nVlBOMR0wGwYDVQQLExRNeU9yZ2FuaXphdGlvbmFs
VW5pdDEVMBMGA1UEAxMMVmlraW5nVlBOIENBMRAwDgYDVQQpEwdFYXN5UlNBMSEw
HwYJKoZIhvcNAQkBFhJtZUBteWhvc3QubXlkb21haW6CCQDPNYXugL8qPjATBgNV
HSUEDDAKBggrBgEFBQcDAjALBgNVHQ8EBAMCB4AwDQYJKoZIhvcNAQEEBQADggIB
ABAI9lTav1uqhBsCqFJV1m/3752HLF8pSEmSDEIA/gb4WEQezLOAjVytY+qbs3ZQ
cB3jhlSaCd1QNZgeZSGksSc7piMJg1SKSLD2MH/bkEhQraVu3BiBjx/ydqoPN7MZ
0RSO1El3Kthq6E275vZU81w33q6sMdODq4UYQRoQ+6F4k+rurVZGsM0vP0zx900f
Dhf/bz6cv+cm06IJWDcLcuqXdU87pvewkCSJXxKg8QfqkQZrtc3YC4flyI9Q5ZvG
Q94GOD4r0RyafI3Yw8fDpvlot6rv3mi8QeXjdbBRN8IXbMZenw0SdjizxUxoJ6pP
1LSfPnYTJXCIBQind/3XkxrKBz4uiolsi8bf7D/0cSMGsJpj5ucX8yZS8CPs5tpH
Rl76hnZoo/g7/vlADrU6aUzvogYeCjySrSc2BrmZ2MD5GxB9pNZ9G5HgW/ZipzaI
SO8jZdhJNhJAY+rAe1NKa+nj/t4CycSrH0wdG7u478ja/Ei5hU8zS1CvPGzAeeoY
S/tqPkf+k/nff5MfiKIvZ3/aOCsv7XIHNVsCIt3dT/Omo0GHXM7ryCcwqRldj5G0
4IpB+HvpM1XLBAKwKT9XZh9rKFaA4iL+oYCYQoiGH8WVYXgzH6hxyTJT0f5XHxfU
0/nSIRXJggxvdEbVDxA95qtMSuIWyZqVOPWchwptT6yV
-----END CERTIFICATE-----
