Certificate:
    Data:
        Version: 3 (0x2)
        Serial Number: 7018 (0x1b6a)
    Signature Algorithm: md5WithRSAEncryption
        Issuer: C=US, ST=OH, L=Columbus, O=VikingVPN, OU=MyOrganizationalUnit, CN=VikingVPN CA/name=EasyRSA/emailAddress=me@myhost.mydomain
        Validity
            Not Before: Jan  7 23:02:02 2016 GMT
            Not After : Jan  4 23:02:02 2026 GMT
        Subject: CN=Client645Certcead05
        Subject Public Key Info:
            Public Key Algorithm: rsaEncryption
                Public-Key: (4096 bit)
                Modulus:
                    00:e6:f3:94:38:bd:47:bb:71:c3:8d:51:c1:4b:74:
                    36:3b:32:f1:5d:52:83:87:fd:99:8e:fa:4a:33:c1:
                    66:6c:28:0f:6d:6f:f5:e8:e0:c2:f3:4f:df:3f:34:
                    ee:5a:9e:cb:2e:b2:9b:99:b4:5b:69:8d:d5:83:86:
                    a3:b6:05:d1:c3:0d:74:c0:09:63:bf:96:61:e1:e5:
                    31:f6:07:70:df:c6:3c:54:86:2e:e5:37:3a:34:b6:
                    7d:8b:82:3d:d8:7a:1f:4b:5c:3c:d0:26:a0:62:08:
                    39:39:3d:69:d4:d5:28:b2:1a:fc:ad:80:9a:b5:00:
                    28:94:db:7d:48:36:25:38:69:1a:40:95:c5:20:10:
                    ca:31:32:f6:1a:cd:bd:a9:c9:8e:aa:94:53:98:a8:
                    67:d4:d0:43:39:ce:dc:a7:fe:43:a2:bc:2c:28:e6:
                    30:6f:8b:70:84:4c:f2:fe:a0:22:36:a4:09:68:1f:
                    d3:88:f3:ff:ed:83:82:a0:03:79:2d:0f:aa:b1:14:
                    27:4c:10:b5:df:db:0a:f2:43:c7:5a:1b:8d:b6:c6:
                    aa:db:8f:9b:35:9d:2c:4f:67:c7:99:82:83:b7:2e:
                    53:27:51:98:43:f2:e0:55:44:fa:04:6f:8b:b4:3f:
                    51:8b:66:78:7d:63:dc:98:09:39:6f:c1:aa:ee:e3:
                    50:fb:4c:98:ce:71:2c:4c:6d:c6:9f:8d:09:79:68:
                    b4:cb:d9:27:a4:71:bb:42:c4:28:6f:09:72:ee:7a:
                    27:07:c5:83:58:ce:63:3e:6d:47:27:86:89:9c:61:
                    f0:96:42:4f:79:29:a0:a2:b7:70:06:25:1f:26:49:
                    8a:d8:08:70:7d:fc:ea:c7:fd:0c:a3:23:d8:5a:29:
                    20:65:66:bb:5c:7d:8b:b5:18:e3:c3:7a:14:07:ea:
                    b8:7f:5e:ea:4e:d6:68:b7:10:88:50:be:31:81:83:
                    b8:04:b6:f6:cd:11:06:af:66:ad:34:e2:72:1f:92:
                    77:44:ae:51:fe:fa:39:e7:91:bd:90:f2:0e:81:36:
                    eb:d6:5e:78:c9:9f:ca:4d:fb:19:c2:f8:e6:ce:59:
                    23:77:9c:f3:8c:f1:9f:7e:7f:fc:a8:e5:d5:c0:fe:
                    e4:a3:72:42:89:56:49:86:4e:6e:3e:fa:d3:64:80:
                    88:2a:10:6a:d8:3d:9a:64:c7:ca:c9:f3:16:4e:49:
                    87:3f:6d:67:0c:82:87:1d:28:d5:93:da:49:44:4c:
                    9f:86:a6:3b:54:ba:fa:72:41:4b:d9:d2:b1:a8:ee:
                    b2:82:24:63:b5:8f:f3:7d:3b:67:db:4c:e9:56:db:
                    09:97:4a:b2:f2:7b:ee:f0:1c:ea:75:e2:1c:0a:fd:
                    3b:cb:73
                Exponent: 65537 (0x10001)
        X509v3 extensions:
            X509v3 Basic Constraints: 
                CA:FALSE
            Netscape Comment: 
                Easy-RSA Generated Certificate
            X509v3 Subject Key Identifier: 
                EC:E1:73:39:11:DB:FA:C8:9C:71:16:21:B3:9E:A5:EF:9D:04:A2:75
            X509v3 Authority Key Identifier: 
                keyid:12:CD:60:04:D2:A0:80:9E:70:ED:C6:99:B8:7B:2C:C6:52:FD:19:A1
                DirName:/C=US/ST=OH/L=Columbus/O=VikingVPN/OU=MyOrganizationalUnit/CN=VikingVPN CA/name=EasyRSA/emailAddress=me@myhost.mydomain
                serial:CF:35:85:EE:80:BF:2A:3E

            X509v3 Extended Key Usage: 
                TLS Web Client Authentication
            X509v3 Key Usage: 
                Digital Signature
    Signature Algorithm: md5WithRSAEncryption
         2d:52:8d:d9:87:34:9a:1d:3f:ae:fb:ec:07:06:7b:73:6a:91:
         31:23:31:5b:ce:f0:05:43:03:38:97:d1:bf:c8:c1:3d:28:13:
         ea:8f:99:07:01:64:3c:8e:e5:c4:ab:0b:28:8a:6d:f7:ee:44:
         15:a8:68:76:87:83:22:80:fe:73:09:85:99:0a:ce:97:2c:6e:
         1f:72:4a:21:91:99:1e:1f:46:73:07:5c:a5:e1:06:26:a6:0d:
         a6:1e:bf:89:e6:f7:1e:f0:73:45:c4:cd:96:6a:e8:1a:cd:9a:
         28:72:16:d7:71:33:24:50:7e:ed:0e:74:18:4f:1e:a1:5c:c9:
         9f:e5:94:86:28:f5:14:3d:e5:d7:e0:a8:11:7b:16:8d:d8:9e:
         19:4c:89:7a:77:df:f3:35:ea:3d:88:e2:ab:8e:0b:0f:8b:9a:
         32:af:36:9c:53:81:1a:42:e9:04:c1:29:d3:8d:05:21:85:49:
         45:7c:1b:ef:df:c3:10:12:94:28:1a:38:79:4f:43:25:4c:ed:
         7a:41:59:cb:e0:0e:11:63:33:5f:cd:ea:da:0f:4a:96:0c:f5:
         62:3b:d4:2d:94:18:e7:3b:52:69:66:80:99:51:7d:24:b9:4f:
         bc:63:99:8d:30:bd:82:aa:a4:40:c2:00:02:fe:a4:b1:77:d0:
         32:83:3f:b2:d2:1e:ae:d4:83:45:45:e4:4d:7e:f6:b5:b5:70:
         94:77:f8:e9:dd:28:64:73:6c:47:7a:8e:f1:47:41:fd:eb:d8:
         c6:44:5f:ed:69:1c:10:1c:ae:ed:84:e1:d0:dd:94:96:a1:48:
         7d:95:f6:48:f3:c4:67:08:9d:14:b5:50:b0:9a:80:0e:af:9e:
         2f:6a:9a:8c:37:17:cd:33:58:61:01:8c:e7:5e:54:f0:55:6c:
         9d:08:67:aa:8c:1c:9e:cc:66:ef:7d:3e:cf:26:07:dd:3f:8a:
         f9:08:b9:10:9b:98:a9:e0:08:8e:3f:2e:93:1f:e1:58:7f:44:
         18:bc:4c:00:5e:e0:72:47:d4:66:6f:8f:b3:dc:46:31:3e:8c:
         5a:6a:02:31:e7:9e:a3:e6:a6:f1:65:68:8e:31:f2:de:01:c6:
         6a:a0:9c:8c:ce:e2:a5:57:a2:26:c3:40:bf:aa:ea:63:10:a1:
         d1:16:70:c8:5d:ee:7f:31:01:3f:c4:82:c5:d8:a1:35:9c:ae:
         df:e1:db:67:02:58:c9:b0:f2:f0:9d:d2:6f:47:56:89:79:37:
         8f:ff:03:9f:7a:1b:21:2f:8b:05:4a:42:15:81:7b:fd:81:5b:
         60:ae:8c:04:30:9a:e7:b7:5d:cc:a4:79:48:65:7d:d5:52:fc:
         d4:1b:7c:82:33:c7:ec:8e
-----BEGIN CERTIFICATE-----
MIIGrDCCBJSgAwIBAgICG2owDQYJKoZIhvcNAQEEBQAwgawxCzAJBgNVBAYTAlVT
MQswCQYDVQQIEwJPSDERMA8GA1UEBxMIQ29sdW1idXMxEjAQBgNVBAoTCVZpa2lu
Z1ZQTjEdMBsGA1UECxMUTXlPcmdhbml6YXRpb25hbFVuaXQxFTATBgNVBAMTDFZp
a2luZ1ZQTiBDQTEQMA4GA1UEKRMHRWFzeVJTQTEhMB8GCSqGSIb3DQEJARYSbWVA
bXlob3N0Lm15ZG9tYWluMB4XDTE2MDEwNzIzMDIwMloXDTI2MDEwNDIzMDIwMlow
HjEcMBoGA1UEAxMTQ2xpZW50NjQ1Q2VydGNlYWQwNTCCAiIwDQYJKoZIhvcNAQEB
BQADggIPADCCAgoCggIBAObzlDi9R7txw41RwUt0Njsy8V1Sg4f9mY76SjPBZmwo
D21v9ejgwvNP3z807lqeyy6ym5m0W2mN1YOGo7YF0cMNdMAJY7+WYeHlMfYHcN/G
PFSGLuU3OjS2fYuCPdh6H0tcPNAmoGIIOTk9adTVKLIa/K2AmrUAKJTbfUg2JThp
GkCVxSAQyjEy9hrNvanJjqqUU5ioZ9TQQznO3Kf+Q6K8LCjmMG+LcIRM8v6gIjak
CWgf04jz/+2DgqADeS0PqrEUJ0wQtd/bCvJDx1objbbGqtuPmzWdLE9nx5mCg7cu
UydRmEPy4FVE+gRvi7Q/UYtmeH1j3JgJOW/Bqu7jUPtMmM5xLExtxp+NCXlotMvZ
J6Rxu0LEKG8Jcu56JwfFg1jOYz5tRyeGiZxh8JZCT3kpoKK3cAYlHyZJitgIcH38
6sf9DKMj2FopIGVmu1x9i7UY48N6FAfquH9e6k7WaLcQiFC+MYGDuAS29s0RBq9m
rTTich+Sd0SuUf76OeeRvZDyDoE269ZeeMmfyk37GcL45s5ZI3ec84zxn35//Kjl
1cD+5KNyQolWSYZObj7602SAiCoQatg9mmTHysnzFk5Jhz9tZwyChx0o1ZPaSURM
n4amO1S6+nJBS9nSsajusoIkY7WP8307Z9tM6VbbCZdKsvJ77vAc6nXiHAr9O8tz
AgMBAAGjggFjMIIBXzAJBgNVHRMEAjAAMC0GCWCGSAGG+EIBDQQgFh5FYXN5LVJT
QSBHZW5lcmF0ZWQgQ2VydGlmaWNhdGUwHQYDVR0OBBYEFOzhczkR2/rInHEWIbOe
pe+dBKJ1MIHhBgNVHSMEgdkwgdaAFBLNYATSoICecO3Gmbh7LMZS/RmhoYGypIGv
MIGsMQswCQYDVQQGEwJVUzELMAkGA1UECBMCT0gxETAPBgNVBAcTCENvbHVtYnVz
MRIwEAYDVQQKEwlWaWtpbmdWUE4xHTAbBgNVBAsTFE15T3JnYW5pemF0aW9uYWxV
bml0MRUwEwYDVQQDEwxWaWtpbmdWUE4gQ0ExEDAOBgNVBCkTB0Vhc3lSU0ExITAf
BgkqhkiG9w0BCQEWEm1lQG15aG9zdC5teWRvbWFpboIJAM81he6Avyo+MBMGA1Ud
JQQMMAoGCCsGAQUFBwMCMAsGA1UdDwQEAwIHgDANBgkqhkiG9w0BAQQFAAOCAgEA
LVKN2Yc0mh0/rvvsBwZ7c2qRMSMxW87wBUMDOJfRv8jBPSgT6o+ZBwFkPI7lxKsL
KIpt9+5EFahodoeDIoD+cwmFmQrOlyxuH3JKIZGZHh9GcwdcpeEGJqYNph6/ieb3
HvBzRcTNlmroGs2aKHIW13EzJFB+7Q50GE8eoVzJn+WUhij1FD3l1+CoEXsWjdie
GUyJenff8zXqPYjiq44LD4uaMq82nFOBGkLpBMEp040FIYVJRXwb79/DEBKUKBo4
eU9DJUztekFZy+AOEWMzX83q2g9Klgz1YjvULZQY5ztSaWaAmVF9JLlPvGOZjTC9
gqqkQMIAAv6ksXfQMoM/stIertSDRUXkTX72tbVwlHf46d0oZHNsR3qO8UdB/evY
xkRf7WkcEByu7YTh0N2UlqFIfZX2SPPEZwidFLVQsJqADq+eL2qajDcXzTNYYQGM
515U8FVsnQhnqowcnsxm730+zyYH3T+K+Qi5EJuYqeAIjj8ukx/hWH9EGLxMAF7g
ckfUZm+Ps9xGMT6MWmoCMeeeo+am8WVojjHy3gHGaqCcjM7ipVeiJsNAv6rqYxCh
0RZwyF3ufzEBP8SCxdihNZyu3+HbZwJYybDy8J3Sb0dWiXk3j/8Dn3obIS+LBUpC
FYF7/YFbYK6MBDCa57ddzKR5SGV91VL81Bt8gjPH7I4=
-----END CERTIFICATE-----
