Certificate:
    Data:
        Version: 3 (0x2)
        Serial Number: 7031 (0x1b77)
    Signature Algorithm: md5WithRSAEncryption
        Issuer: C=US, ST=OH, L=Columbus, O=VikingVPN, OU=MyOrganizationalUnit, CN=VikingVPN CA/name=EasyRSA/emailAddress=me@myhost.mydomain
        Validity
            Not Before: Jan 10 20:34:18 2016 GMT
            Not After : Jan  7 20:34:18 2026 GMT
        Subject: CN=Client431Cert8717d7
        Subject Public Key Info:
            Public Key Algorithm: rsaEncryption
                Public-Key: (4096 bit)
                Modulus:
                    00:c6:cf:d4:03:3b:6b:b0:93:1a:f7:92:87:8f:3c:
                    54:fa:b6:1b:ae:14:b4:72:9a:b9:e1:da:f3:f1:df:
                    dd:9a:26:8a:31:08:fe:3a:af:98:8b:cd:2e:47:2e:
                    92:bc:07:17:fc:bb:58:62:4a:c6:8d:7a:6f:82:f6:
                    ee:86:7a:42:e7:67:48:25:18:ed:29:d9:4f:e7:a9:
                    1d:40:90:85:7f:3b:78:b3:0d:68:a4:25:f5:b6:89:
                    bf:bf:04:fd:d6:cf:67:75:74:7a:e6:94:20:03:e5:
                    50:6e:5b:66:da:45:7f:42:87:d9:12:71:ee:a6:3e:
                    c9:14:a0:be:3b:76:a1:75:74:34:6b:1a:d1:e0:9a:
                    96:b9:5f:47:38:58:a1:6e:8e:bc:8b:af:b9:54:f2:
                    b6:bb:dc:b3:e7:0d:06:9b:30:54:8f:26:a4:a2:8e:
                    0a:64:4f:39:2d:f6:a8:55:3d:61:68:1e:fd:e7:d9:
                    a9:08:be:e9:6a:69:84:18:0d:6b:63:47:34:ca:74:
                    0a:47:7f:9b:02:49:e1:30:95:18:e4:26:c9:fb:8d:
                    37:9c:1d:d8:a6:4e:ab:7f:9c:b9:fa:e5:d9:fb:6e:
                    d0:81:81:50:ce:7f:84:25:36:7f:39:8b:cb:01:48:
                    b2:f3:f9:44:ee:ff:1c:3e:52:43:9e:d8:49:2b:ed:
                    48:0c:09:31:bd:c6:0d:24:9f:5e:cc:a3:78:17:79:
                    75:39:a1:81:9e:49:ef:b2:0c:b5:34:a8:0b:db:f7:
                    64:12:24:79:87:67:87:30:a1:ae:1b:56:37:6c:69:
                    13:ca:77:60:4c:00:95:1b:e3:e9:28:f1:37:c3:2d:
                    9c:ad:5e:6d:ce:a6:59:7d:2a:e3:79:5b:31:99:7a:
                    05:2e:c5:8b:9f:44:7c:cf:0f:b8:a4:0b:30:a9:c4:
                    9f:80:11:e8:67:49:15:ec:1b:46:1f:b8:94:58:07:
                    8c:da:ad:29:43:ca:66:e8:59:21:b0:a8:11:69:19:
                    f4:79:55:09:00:f5:fd:87:bc:14:52:c8:5d:e3:31:
                    03:06:40:54:95:25:64:2b:ea:fe:8d:37:e6:c3:33:
                    fb:9b:3a:6f:70:a9:2a:f2:a1:4e:4e:ec:07:7a:34:
                    db:70:6f:bb:69:1f:cc:8d:f1:90:d0:2c:11:e4:85:
                    52:61:fb:49:b3:07:b1:3c:9e:76:c2:bf:12:7f:f5:
                    37:2c:cc:b5:bf:42:14:d3:b2:3d:be:82:e7:29:ea:
                    dd:bf:b3:6d:79:e0:89:d0:bc:79:72:99:9b:1e:36:
                    df:b4:ed:b2:6c:ac:a6:4d:ba:e1:b2:be:e0:a5:9d:
                    16:e0:e1:3d:ea:af:4e:f7:4d:ef:8f:b8:a4:d5:03:
                    ac:0c:cb
                Exponent: 65537 (0x10001)
        X509v3 extensions:
            X509v3 Basic Constraints: 
                CA:FALSE
            Netscape Comment: 
                Easy-RSA Generated Certificate
            X509v3 Subject Key Identifier: 
                05:89:49:FB:A1:ED:31:F2:11:AB:45:2A:14:6A:67:50:32:07:1C:49
            X509v3 Authority Key Identifier: 
                keyid:12:CD:60:04:D2:A0:80:9E:70:ED:C6:99:B8:7B:2C:C6:52:FD:19:A1
                DirName:/C=US/ST=OH/L=Columbus/O=VikingVPN/OU=MyOrganizationalUnit/CN=VikingVPN CA/name=EasyRSA/emailAddress=me@myhost.mydomain
                serial:CF:35:85:EE:80:BF:2A:3E

            X509v3 Extended Key Usage: 
                TLS Web Client Authentication
            X509v3 Key Usage: 
                Digital Signature
    Signature Algorithm: md5WithRSAEncryption
         b5:be:7d:08:eb:b2:eb:15:c9:2e:81:0d:2e:2b:e2:c0:0f:47:
         e2:d9:66:4c:90:15:ce:80:c4:6a:34:25:24:b4:f8:a1:c0:6b:
         29:41:37:86:53:57:a2:e4:fd:4d:47:50:2d:ab:33:23:c2:45:
         e9:63:fb:81:40:25:d2:bd:6b:00:b5:59:a6:de:d7:66:e6:4a:
         a8:97:1e:29:12:06:87:19:e5:5c:98:c2:92:01:ee:a3:89:ab:
         01:f6:62:51:87:90:83:40:f5:07:9d:f2:b7:61:34:1b:63:0b:
         aa:e8:3b:f3:40:d3:f8:0d:b2:75:1a:21:62:a7:cd:5f:04:2c:
         13:64:46:62:03:9a:21:4c:11:e8:eb:89:94:6f:10:2d:eb:7f:
         1f:90:b7:7e:61:04:c5:a4:11:95:f9:97:06:4e:7a:33:a9:f9:
         fa:26:9a:63:e7:26:c4:57:27:26:d0:51:0b:6b:a6:fb:91:f7:
         bd:71:5e:c2:e0:0c:4d:39:4d:4d:5e:b4:29:1c:89:76:bd:0e:
         a3:d5:1d:ca:9b:51:24:28:e0:9d:87:bd:c9:0c:e4:b5:88:3a:
         60:cd:11:bb:09:dd:e8:d0:7f:37:e5:f7:f5:5e:ad:ef:2c:63:
         3e:34:89:a8:14:ea:20:2d:2a:01:c3:6d:b7:5c:15:5c:d1:20:
         39:e7:0b:2e:0c:59:70:a0:4c:00:b7:a9:15:50:1c:a8:a1:5b:
         01:3c:ea:e2:11:5b:4f:7f:7b:52:8a:6c:54:13:20:8d:48:62:
         f0:cb:16:f4:fa:f6:73:7d:44:9d:97:1b:4b:fb:e1:d5:20:c0:
         e3:55:c8:6d:74:93:be:31:82:6e:43:9a:21:67:0c:9f:e7:c7:
         3f:ba:be:5d:b5:d1:84:db:22:84:0a:64:40:9f:63:2f:9e:d1:
         93:2a:28:73:b3:b6:b4:8a:18:8e:19:0f:7c:1e:36:a1:51:10:
         f0:0d:77:72:0d:4d:40:41:15:be:c5:ea:ac:ee:e0:62:51:66:
         78:18:53:34:33:3d:be:70:ce:3f:87:30:16:5b:60:a8:28:fe:
         54:63:e0:60:04:43:aa:f5:7f:3d:66:3b:df:d1:4a:2c:e4:b2:
         b4:1a:70:e8:2a:03:51:55:9f:25:29:28:e2:26:8a:b1:6b:be:
         2c:d9:04:35:58:2c:32:8f:84:23:73:61:b5:a9:44:cb:90:94:
         1f:37:12:58:dc:2d:10:16:d6:b7:5e:d9:1d:d6:f5:60:ab:a1:
         76:6b:aa:ed:30:1c:c5:20:eb:cb:16:ef:b8:40:4b:6a:21:c6:
         16:e3:bf:9c:fb:5d:c1:a6:7d:2d:60:cf:f0:d8:4e:48:c6:14:
         7c:c9:50:fc:ed:78:9d:71
-----BEGIN CERTIFICATE-----
MIIGrDCCBJSgAwIBAgICG3cwDQYJKoZIhvcNAQEEBQAwgawxCzAJBgNVBAYTAlVT
MQswCQYDVQQIEwJPSDERMA8GA1UEBxMIQ29sdW1idXMxEjAQBgNVBAoTCVZpa2lu
Z1ZQTjEdMBsGA1UECxMUTXlPcmdhbml6YXRpb25hbFVuaXQxFTATBgNVBAMTDFZp
a2luZ1ZQTiBDQTEQMA4GA1UEKRMHRWFzeVJTQTEhMB8GCSqGSIb3DQEJARYSbWVA
bXlob3N0Lm15ZG9tYWluMB4XDTE2MDExMDIwMzQxOFoXDTI2MDEwNzIwMzQxOFow
HjEcMBoGA1UEAxMTQ2xpZW50NDMxQ2VydDg3MTdkNzCCAiIwDQYJKoZIhvcNAQEB
BQADggIPADCCAgoCggIBAMbP1AM7a7CTGveSh488VPq2G64UtHKaueHa8/Hf3Zom
ijEI/jqvmIvNLkcukrwHF/y7WGJKxo16b4L27oZ6QudnSCUY7SnZT+epHUCQhX87
eLMNaKQl9baJv78E/dbPZ3V0euaUIAPlUG5bZtpFf0KH2RJx7qY+yRSgvjt2oXV0
NGsa0eCalrlfRzhYoW6OvIuvuVTytrvcs+cNBpswVI8mpKKOCmRPOS32qFU9YWge
/efZqQi+6WpphBgNa2NHNMp0Ckd/mwJJ4TCVGOQmyfuNN5wd2KZOq3+cufrl2ftu
0IGBUM5/hCU2fzmLywFIsvP5RO7/HD5SQ57YSSvtSAwJMb3GDSSfXsyjeBd5dTmh
gZ5J77IMtTSoC9v3ZBIkeYdnhzChrhtWN2xpE8p3YEwAlRvj6SjxN8MtnK1ebc6m
WX0q43lbMZl6BS7Fi59EfM8PuKQLMKnEn4AR6GdJFewbRh+4lFgHjNqtKUPKZuhZ
IbCoEWkZ9HlVCQD1/Ye8FFLIXeMxAwZAVJUlZCvq/o035sMz+5s6b3CpKvKhTk7s
B3o023Bvu2kfzI3xkNAsEeSFUmH7SbMHsTyedsK/En/1NyzMtb9CFNOyPb6C5ynq
3b+zbXngidC8eXKZmx4237Ttsmyspk264bK+4KWdFuDhPeqvTvdN74+4pNUDrAzL
AgMBAAGjggFjMIIBXzAJBgNVHRMEAjAAMC0GCWCGSAGG+EIBDQQgFh5FYXN5LVJT
QSBHZW5lcmF0ZWQgQ2VydGlmaWNhdGUwHQYDVR0OBBYEFAWJSfuh7THyEatFKhRq
Z1AyBxxJMIHhBgNVHSMEgdkwgdaAFBLNYATSoICecO3Gmbh7LMZS/RmhoYGypIGv
MIGsMQswCQYDVQQGEwJVUzELMAkGA1UECBMCT0gxETAPBgNVBAcTCENvbHVtYnVz
MRIwEAYDVQQKEwlWaWtpbmdWUE4xHTAbBgNVBAsTFE15T3JnYW5pemF0aW9uYWxV
bml0MRUwEwYDVQQDEwxWaWtpbmdWUE4gQ0ExEDAOBgNVBCkTB0Vhc3lSU0ExITAf
BgkqhkiG9w0BCQEWEm1lQG15aG9zdC5teWRvbWFpboIJAM81he6Avyo+MBMGA1Ud
JQQMMAoGCCsGAQUFBwMCMAsGA1UdDwQEAwIHgDANBgkqhkiG9w0BAQQFAAOCAgEA
tb59COuy6xXJLoENLiviwA9H4tlmTJAVzoDEajQlJLT4ocBrKUE3hlNXouT9TUdQ
LaszI8JF6WP7gUAl0r1rALVZpt7XZuZKqJceKRIGhxnlXJjCkgHuo4mrAfZiUYeQ
g0D1B53yt2E0G2MLqug780DT+A2ydRohYqfNXwQsE2RGYgOaIUwR6OuJlG8QLet/
H5C3fmEExaQRlfmXBk56M6n5+iaaY+cmxFcnJtBRC2um+5H3vXFewuAMTTlNTV60
KRyJdr0Oo9UdyptRJCjgnYe9yQzktYg6YM0Ruwnd6NB/N+X39V6t7yxjPjSJqBTq
IC0qAcNtt1wVXNEgOecLLgxZcKBMALepFVAcqKFbATzq4hFbT397UopsVBMgjUhi
8MsW9Pr2c31EnZcbS/vh1SDA41XIbXSTvjGCbkOaIWcMn+fHP7q+XbXRhNsihApk
QJ9jL57Rkyooc7O2tIoYjhkPfB42oVEQ8A13cg1NQEEVvsXqrO7gYlFmeBhTNDM9
vnDOP4cwFltgqCj+VGPgYARDqvV/PWY739FKLOSytBpw6CoDUVWfJSko4iaKsWu+
LNkENVgsMo+EI3NhtalEy5CUHzcSWNwtEBbWt17ZHdb1YKuhdmuq7TAcxSDryxbv
uEBLaiHGFuO/nPtdwaZ9LWDP8NhOSMYUfMlQ/O14nXE=
-----END CERTIFICATE-----
