Certificate:
    Data:
        Version: 3 (0x2)
        Serial Number: 7049 (0x1b89)
    Signature Algorithm: md5WithRSAEncryption
        Issuer: C=US, ST=OH, L=Columbus, O=VikingVPN, OU=MyOrganizationalUnit, CN=VikingVPN CA/name=EasyRSA/emailAddress=me@myhost.mydomain
        Validity
            Not Before: Jan 15 23:14:29 2016 GMT
            Not After : Jan 12 23:14:29 2026 GMT
        Subject: CN=Client127Certf545fa
        Subject Public Key Info:
            Public Key Algorithm: rsaEncryption
                Public-Key: (4096 bit)
                Modulus:
                    00:c3:56:47:1a:3c:30:60:2d:a4:08:1b:b6:67:7b:
                    7b:b5:56:1c:ad:fc:d6:60:eb:b7:3f:81:28:cb:37:
                    2a:2c:cb:a5:68:47:9c:f9:8e:04:89:53:73:98:75:
                    1b:a6:53:94:6b:47:1f:0f:dc:e5:61:68:99:31:08:
                    6b:85:d3:52:53:d3:19:9a:61:6d:0d:4c:42:8a:9c:
                    82:4a:f5:df:9d:12:0c:0a:d0:84:37:74:ff:51:87:
                    36:a1:85:35:b8:f8:0d:c1:ce:78:36:a1:b3:54:a4:
                    40:41:65:3c:b5:fe:43:b4:cf:09:de:27:85:03:d3:
                    54:9c:2a:22:3e:fa:cf:82:55:bf:1e:aa:6f:4f:33:
                    78:20:84:ce:81:d9:c1:28:e9:05:73:f0:7c:45:4a:
                    92:ed:0b:53:95:29:58:e5:69:c5:40:b5:9c:90:f4:
                    f8:ca:9e:c0:96:8c:ee:0d:62:58:13:2d:f5:6d:f8:
                    c7:e5:86:cf:f3:b0:7a:ad:b3:35:bd:d1:68:65:33:
                    d5:1b:a3:85:8a:a8:e4:c1:5d:8f:32:a1:02:fe:26:
                    a7:70:b7:28:01:58:71:fb:48:cf:7e:92:56:cc:25:
                    7f:ac:16:7c:82:80:e9:7e:35:a2:0b:48:cd:73:a7:
                    86:96:77:07:90:bc:07:6a:ea:f5:45:85:b7:bd:5a:
                    83:a2:8f:9f:c3:8a:d7:25:ce:57:d7:46:77:b3:1f:
                    d1:26:f4:2a:9d:9f:1b:d3:ad:2a:12:63:2f:ea:ea:
                    f8:18:45:de:5c:23:01:bb:b4:63:39:09:d1:3c:dc:
                    38:7b:e6:72:e1:70:54:2f:86:6a:c6:9e:e6:fd:37:
                    c3:76:55:29:e1:2e:ad:65:48:c7:1c:c3:fb:05:14:
                    ad:e0:66:d1:af:39:cc:eb:aa:ad:23:fb:11:50:12:
                    84:ca:0b:4c:04:8e:38:20:f8:1c:78:58:97:51:ae:
                    c9:4b:29:0f:7a:85:8f:7c:d2:36:8a:93:78:24:4e:
                    b0:89:e2:67:12:44:89:b5:82:c5:37:20:cf:b3:2b:
                    21:7a:1f:08:b6:01:50:05:dc:2a:79:eb:e8:08:9f:
                    b1:ce:19:ae:17:58:55:ba:de:37:24:4b:69:28:07:
                    95:05:6a:09:1f:87:1f:a8:d6:16:1d:63:71:39:3c:
                    1a:7b:5e:7b:5a:be:1c:84:f6:27:ba:86:a4:85:8c:
                    b1:7c:26:12:2a:52:cf:09:4a:6f:f5:c7:c9:93:52:
                    db:c2:91:25:f6:30:a2:5b:85:84:d5:8a:50:d7:d5:
                    35:3c:44:49:4a:25:f7:44:ec:33:c7:31:59:22:bb:
                    bb:a0:3f:0e:1a:49:7e:7e:7e:c8:f2:ac:5a:9e:64:
                    8c:57:0d
                Exponent: 65537 (0x10001)
        X509v3 extensions:
            X509v3 Basic Constraints: 
                CA:FALSE
            Netscape Comment: 
                Easy-RSA Generated Certificate
            X509v3 Subject Key Identifier: 
                74:70:15:00:28:76:F2:A8:3B:78:1D:3E:F5:77:FB:D9:CF:74:51:3C
            X509v3 Authority Key Identifier: 
                keyid:12:CD:60:04:D2:A0:80:9E:70:ED:C6:99:B8:7B:2C:C6:52:FD:19:A1
                DirName:/C=US/ST=OH/L=Columbus/O=VikingVPN/OU=MyOrganizationalUnit/CN=VikingVPN CA/name=EasyRSA/emailAddress=me@myhost.mydomain
                serial:CF:35:85:EE:80:BF:2A:3E

            X509v3 Extended Key Usage: 
                TLS Web Client Authentication
            X509v3 Key Usage: 
                Digital Signature
    Signature Algorithm: md5WithRSAEncryption
         c7:00:0b:43:8e:eb:12:1e:cf:68:64:e4:cc:00:0a:6f:33:66:
         95:14:d0:0c:91:d1:ef:cd:81:9f:3b:11:50:cf:c9:f3:a0:99:
         fd:d0:0b:33:ec:2f:bc:ac:f9:d5:7d:cd:97:00:99:32:b5:d7:
         84:6b:2f:77:1c:ea:6a:df:8a:6c:bf:aa:35:fa:0f:4e:54:32:
         0f:1a:18:d3:d9:f3:e7:af:d9:ec:a9:9c:81:e9:0c:49:86:a3:
         1d:3e:d4:89:3c:e7:e5:5d:34:c0:ec:d9:3e:f9:c5:e6:35:be:
         9e:83:f3:6c:15:a2:5e:c2:0a:9a:43:9f:2d:45:cb:74:03:fd:
         53:7c:20:6b:b2:f5:89:86:9e:a6:d4:3c:c1:aa:0d:11:bb:89:
         e3:1f:5b:7c:15:aa:de:80:66:3a:9a:7f:51:16:97:2e:ec:f8:
         34:0c:5f:a0:b5:50:a9:65:1e:42:1d:2d:3f:11:b8:2d:8a:ec:
         e8:64:e8:62:91:42:90:88:e1:be:fa:36:c3:c2:16:5e:dd:ce:
         89:46:e7:16:e3:40:09:0d:c5:57:74:07:0b:c8:33:19:10:3b:
         d4:57:78:d9:4a:81:a1:7b:a7:21:2e:5d:bd:7e:ad:bd:af:b8:
         ba:41:7f:8a:77:d6:94:80:2e:df:e0:ca:39:8d:10:0f:e5:46:
         d1:46:39:17:02:80:07:e0:18:c8:b2:a7:48:3c:28:74:6b:8f:
         8d:a1:14:93:49:fb:f1:50:b5:0e:71:c8:c1:8d:10:e2:cc:09:
         58:6f:b4:1f:d0:a1:71:ca:3e:c0:63:1e:47:0c:d9:e0:26:4f:
         10:58:c7:19:22:ef:5f:46:03:04:20:09:a3:33:ae:60:30:60:
         2d:33:72:01:8d:84:98:1e:42:1c:d1:89:14:11:32:27:f4:7e:
         8b:92:92:07:9c:1f:f2:5b:9b:5d:eb:17:c0:71:68:58:15:75:
         05:d4:3a:53:70:53:50:91:05:b0:61:05:2d:c2:ec:8d:94:0a:
         4b:cc:8e:4f:d8:2b:85:1d:60:c0:83:ed:46:45:9c:42:8a:9d:
         b4:12:c3:b5:15:4a:3b:3f:2b:c2:f7:f5:e1:3e:22:32:cb:98:
         a3:e1:53:a3:a1:a2:6d:6f:e2:a1:e5:2b:70:a3:ff:af:4b:d7:
         d2:5d:7a:e8:91:87:78:ff:e5:2d:5d:4e:98:f0:cc:29:5c:6d:
         e4:c1:57:bd:0a:44:41:86:f6:f7:8d:db:6b:27:f6:59:ec:d9:
         9e:1b:19:c7:75:f7:10:c2:63:6f:4e:dc:89:8e:bf:b3:91:1d:
         7d:db:2a:34:13:a7:da:17:64:dd:9e:0e:10:c2:fc:78:0f:66:
         47:05:85:51:60:fd:b6:db
-----BEGIN CERTIFICATE-----
MIIGrDCCBJSgAwIBAgICG4kwDQYJKoZIhvcNAQEEBQAwgawxCzAJBgNVBAYTAlVT
MQswCQYDVQQIEwJPSDERMA8GA1UEBxMIQ29sdW1idXMxEjAQBgNVBAoTCVZpa2lu
Z1ZQTjEdMBsGA1UECxMUTXlPcmdhbml6YXRpb25hbFVuaXQxFTATBgNVBAMTDFZp
a2luZ1ZQTiBDQTEQMA4GA1UEKRMHRWFzeVJTQTEhMB8GCSqGSIb3DQEJARYSbWVA
bXlob3N0Lm15ZG9tYWluMB4XDTE2MDExNTIzMTQyOVoXDTI2MDExMjIzMTQyOVow
HjEcMBoGA1UEAxMTQ2xpZW50MTI3Q2VydGY1NDVmYTCCAiIwDQYJKoZIhvcNAQEB
BQADggIPADCCAgoCggIBAMNWRxo8MGAtpAgbtmd7e7VWHK381mDrtz+BKMs3KizL
pWhHnPmOBIlTc5h1G6ZTlGtHHw/c5WFomTEIa4XTUlPTGZphbQ1MQoqcgkr1350S
DArQhDd0/1GHNqGFNbj4DcHOeDahs1SkQEFlPLX+Q7TPCd4nhQPTVJwqIj76z4JV
vx6qb08zeCCEzoHZwSjpBXPwfEVKku0LU5UpWOVpxUC1nJD0+MqewJaM7g1iWBMt
9W34x+WGz/Oweq2zNb3RaGUz1RujhYqo5MFdjzKhAv4mp3C3KAFYcftIz36SVswl
f6wWfIKA6X41ogtIzXOnhpZ3B5C8B2rq9UWFt71ag6KPn8OK1yXOV9dGd7Mf0Sb0
Kp2fG9OtKhJjL+rq+BhF3lwjAbu0YzkJ0TzcOHvmcuFwVC+Gasae5v03w3ZVKeEu
rWVIxxzD+wUUreBm0a85zOuqrSP7EVAShMoLTASOOCD4HHhYl1GuyUspD3qFj3zS
NoqTeCROsIniZxJEibWCxTcgz7MrIXofCLYBUAXcKnnr6Aifsc4ZrhdYVbreNyRL
aSgHlQVqCR+HH6jWFh1jcTk8Gntee1q+HIT2J7qGpIWMsXwmEipSzwlKb/XHyZNS
28KRJfYwoluFhNWKUNfVNTxESUol90TsM8cxWSK7u6A/DhpJfn5+yPKsWp5kjFcN
AgMBAAGjggFjMIIBXzAJBgNVHRMEAjAAMC0GCWCGSAGG+EIBDQQgFh5FYXN5LVJT
QSBHZW5lcmF0ZWQgQ2VydGlmaWNhdGUwHQYDVR0OBBYEFHRwFQAodvKoO3gdPvV3
+9nPdFE8MIHhBgNVHSMEgdkwgdaAFBLNYATSoICecO3Gmbh7LMZS/RmhoYGypIGv
MIGsMQswCQYDVQQGEwJVUzELMAkGA1UECBMCT0gxETAPBgNVBAcTCENvbHVtYnVz
MRIwEAYDVQQKEwlWaWtpbmdWUE4xHTAbBgNVBAsTFE15T3JnYW5pemF0aW9uYWxV
bml0MRUwEwYDVQQDEwxWaWtpbmdWUE4gQ0ExEDAOBgNVBCkTB0Vhc3lSU0ExITAf
BgkqhkiG9w0BCQEWEm1lQG15aG9zdC5teWRvbWFpboIJAM81he6Avyo+MBMGA1Ud
JQQMMAoGCCsGAQUFBwMCMAsGA1UdDwQEAwIHgDANBgkqhkiG9w0BAQQFAAOCAgEA
xwALQ47rEh7PaGTkzAAKbzNmlRTQDJHR782BnzsRUM/J86CZ/dALM+wvvKz51X3N
lwCZMrXXhGsvdxzqat+KbL+qNfoPTlQyDxoY09nz56/Z7KmcgekMSYajHT7UiTzn
5V00wOzZPvnF5jW+noPzbBWiXsIKmkOfLUXLdAP9U3wga7L1iYaeptQ8waoNEbuJ
4x9bfBWq3oBmOpp/URaXLuz4NAxfoLVQqWUeQh0tPxG4LYrs6GToYpFCkIjhvvo2
w8IWXt3OiUbnFuNACQ3FV3QHC8gzGRA71Fd42UqBoXunIS5dvX6tva+4ukF/infW
lIAu3+DKOY0QD+VG0UY5FwKAB+AYyLKnSDwodGuPjaEUk0n78VC1DnHIwY0Q4swJ
WG+0H9Chcco+wGMeRwzZ4CZPEFjHGSLvX0YDBCAJozOuYDBgLTNyAY2EmB5CHNGJ
FBEyJ/R+i5KSB5wf8lubXesXwHFoWBV1BdQ6U3BTUJEFsGEFLcLsjZQKS8yOT9gr
hR1gwIPtRkWcQoqdtBLDtRVKOz8rwvf14T4iMsuYo+FTo6GibW/ioeUrcKP/r0vX
0l166JGHeP/lLV1OmPDMKVxt5MFXvQpEQYb2943bayf2WezZnhsZx3X3EMJjb07c
iY6/s5EdfdsqNBOn2hdk3Z4OEML8eA9mRwWFUWD9tts=
-----END CERTIFICATE-----
