Certificate:
    Data:
        Version: 3 (0x2)
        Serial Number: 7052 (0x1b8c)
    Signature Algorithm: md5WithRSAEncryption
        Issuer: C=US, ST=OH, L=Columbus, O=VikingVPN, OU=MyOrganizationalUnit, CN=VikingVPN CA/name=EasyRSA/emailAddress=me@myhost.mydomain
        Validity
            Not Before: Jan 18 08:28:24 2016 GMT
            Not After : Jan 15 08:28:24 2026 GMT
        Subject: CN=Client2142Cert34680b
        Subject Public Key Info:
            Public Key Algorithm: rsaEncryption
                Public-Key: (4096 bit)
                Modulus:
                    00:af:c3:ea:fc:88:11:c1:92:85:58:0d:00:9d:2a:
                    5c:8f:5b:4f:1e:4e:65:e8:dd:89:56:d4:75:39:9c:
                    d2:37:ef:a8:16:6e:90:85:8d:3b:ea:3f:d7:fd:87:
                    09:85:18:5c:d6:d8:62:68:05:1a:1c:39:84:2e:9f:
                    6d:36:bb:6e:49:c6:a0:a7:f7:48:26:8f:a9:b1:dc:
                    ab:42:f0:a2:40:c8:9d:ef:40:bd:69:58:63:a7:59:
                    cd:5e:4a:ab:38:f9:f9:e5:56:ea:db:63:de:da:cd:
                    26:b1:a6:07:05:d0:9f:27:78:2b:ec:2a:36:01:0e:
                    58:8a:2d:c7:42:2e:db:1a:d9:11:1e:2f:23:cb:90:
                    9c:a8:87:6c:23:ca:90:28:98:a5:12:a7:43:e4:d6:
                    2d:8a:15:cd:9e:e0:eb:90:47:af:29:52:f2:2d:47:
                    fb:1e:7d:31:a4:a3:47:a0:f2:c7:be:88:ab:30:4b:
                    00:f4:ce:a4:b7:f5:eb:3c:66:71:5b:44:6f:03:61:
                    6b:49:cd:64:3e:95:78:62:df:c3:3d:78:13:cb:3f:
                    91:4f:b0:bb:6e:55:3c:f4:7d:f5:11:87:a3:bb:4b:
                    d6:08:25:05:0f:3b:ab:5a:23:9f:71:d4:77:55:aa:
                    b4:a6:a4:19:43:d5:78:0f:fd:ce:57:b0:5f:9d:05:
                    48:df:10:8f:5c:c6:6e:47:3f:b6:36:a5:0b:c0:ab:
                    0e:83:07:75:35:8b:96:61:4a:e2:f9:78:af:f7:36:
                    7c:65:40:ea:ee:fb:5f:f4:d9:69:f1:e2:dd:c1:56:
                    a4:4f:1b:cd:b3:db:74:0c:0f:15:b8:2e:93:fd:cb:
                    ea:c0:b4:b8:9b:5b:89:14:13:7a:d9:8a:eb:7d:f4:
                    c6:22:e6:03:6e:9b:86:96:5d:16:72:12:c6:1a:98:
                    c1:71:e7:02:9e:fb:45:12:31:1e:f0:6d:08:07:ea:
                    5a:cd:bc:98:2a:59:75:a5:be:da:ec:83:54:a8:5a:
                    17:54:cb:2e:f6:7c:11:3c:6d:e9:fc:ba:59:da:ab:
                    a7:77:46:6e:37:64:c5:be:fa:c1:09:53:32:d5:f5:
                    5e:04:5e:69:62:43:60:74:14:ca:2d:ba:35:eb:ed:
                    6c:2a:f1:11:4f:6d:79:62:52:c2:dc:f8:c1:bf:13:
                    bd:d0:b9:df:0d:f7:ba:b0:47:3b:10:5d:b6:a6:87:
                    7d:be:03:fe:5d:74:df:1d:e2:a4:ea:1b:34:24:75:
                    7c:e8:71:7d:45:a7:b2:af:37:45:53:e8:0a:59:15:
                    e0:5f:b1:83:8b:c5:5d:b8:82:ce:68:4b:86:6b:2c:
                    2f:05:5e:56:b1:b1:51:b3:85:09:af:8a:00:76:db:
                    a2:ff:2b
                Exponent: 65537 (0x10001)
        X509v3 extensions:
            X509v3 Basic Constraints: 
                CA:FALSE
            Netscape Comment: 
                Easy-RSA Generated Certificate
            X509v3 Subject Key Identifier: 
                E3:2D:E9:4C:F1:00:0A:C9:FD:09:21:60:B4:B0:F0:89:B7:48:45:07
            X509v3 Authority Key Identifier: 
                keyid:12:CD:60:04:D2:A0:80:9E:70:ED:C6:99:B8:7B:2C:C6:52:FD:19:A1
                DirName:/C=US/ST=OH/L=Columbus/O=VikingVPN/OU=MyOrganizationalUnit/CN=VikingVPN CA/name=EasyRSA/emailAddress=me@myhost.mydomain
                serial:CF:35:85:EE:80:BF:2A:3E

            X509v3 Extended Key Usage: 
                TLS Web Client Authentication
            X509v3 Key Usage: 
                Digital Signature
    Signature Algorithm: md5WithRSAEncryption
         33:1c:10:c2:83:55:d2:a3:d6:00:5a:1e:ea:aa:be:8e:ae:3a:
         3a:02:f1:0c:a9:c9:5d:96:ad:89:63:bc:dc:f4:24:4d:43:20:
         d7:8e:c8:35:9f:0b:af:c4:5a:0e:40:b1:c7:99:5e:de:b2:11:
         0e:49:3f:64:fc:b3:a0:cf:f0:b0:81:36:a4:79:fc:64:8d:38:
         66:35:d2:bf:41:93:09:db:83:32:57:08:22:95:a3:73:d8:53:
         fb:76:d3:ba:ae:5d:55:cf:bb:9f:71:b6:06:b2:fe:b8:35:c7:
         cf:86:c8:78:3e:8c:ec:5e:36:8a:e5:f4:c9:a1:b7:fe:1e:f8:
         d5:06:0b:5f:88:82:d6:12:06:94:d8:c8:2f:e9:08:e4:3f:8e:
         33:09:23:ff:5f:59:b4:ce:f4:e0:2c:0d:bd:25:77:6d:ce:8b:
         9b:ec:d0:b0:4b:b7:cb:24:cc:67:23:ae:d0:45:d4:fa:96:cb:
         b1:18:33:b0:20:e7:80:1d:3d:68:88:ab:b1:45:98:6d:24:a2:
         2a:a2:02:ca:a4:67:01:78:41:27:af:a5:59:38:85:4c:ec:6f:
         c9:98:bb:4c:14:e8:cc:58:fd:b8:ba:9a:e0:5d:ed:3e:af:8e:
         26:f4:ea:27:ce:7c:ee:28:a2:0f:8f:a4:b9:0b:1e:bd:50:5e:
         85:bd:cd:0b:de:92:af:c5:86:3c:87:31:cd:47:c1:7c:d9:72:
         a8:1b:7c:3f:91:1f:4e:43:a1:a5:ac:7f:cc:27:73:e8:05:6a:
         ff:db:47:84:95:3c:5e:25:30:e9:31:ec:f1:91:68:40:25:d9:
         28:56:33:36:31:2a:4c:37:54:ec:fb:99:49:51:00:d0:8f:ec:
         8b:dc:4a:1c:ac:8a:b2:d8:72:51:7c:23:00:9d:a4:dd:d3:c2:
         fc:e7:e6:cc:36:bc:3b:c8:ca:25:f9:00:98:e0:98:e1:a3:9f:
         d8:3b:f4:df:76:6c:68:70:a6:6c:55:74:ac:30:4d:d1:98:5c:
         c8:1b:b8:ce:3d:53:27:7a:9a:bc:4c:9f:56:e0:78:6a:c4:f2:
         4a:71:24:41:fb:f2:d6:cd:bc:13:a0:6b:68:5a:d1:78:e0:3f:
         e8:c6:ba:57:31:f2:2f:d3:f4:88:a4:09:53:6f:31:4c:f5:66:
         29:52:16:cf:f8:09:39:26:db:91:0d:d5:a0:bd:b0:28:8c:2e:
         0a:e6:24:a0:89:c9:a1:dd:ad:bb:32:12:6c:ce:ff:8a:bb:ba:
         8f:c7:ae:45:1a:6e:0c:37:ec:13:12:fe:15:82:47:e4:8c:c4:
         cb:f9:73:04:08:84:28:6a:30:3d:37:37:25:c2:d6:65:23:d5:
         11:8c:f4:75:56:10:6d:fd
-----BEGIN CERTIFICATE-----
MIIGrTCCBJWgAwIBAgICG4wwDQYJKoZIhvcNAQEEBQAwgawxCzAJBgNVBAYTAlVT
MQswCQYDVQQIEwJPSDERMA8GA1UEBxMIQ29sdW1idXMxEjAQBgNVBAoTCVZpa2lu
Z1ZQTjEdMBsGA1UECxMUTXlPcmdhbml6YXRpb25hbFVuaXQxFTATBgNVBAMTDFZp
a2luZ1ZQTiBDQTEQMA4GA1UEKRMHRWFzeVJTQTEhMB8GCSqGSIb3DQEJARYSbWVA
bXlob3N0Lm15ZG9tYWluMB4XDTE2MDExODA4MjgyNFoXDTI2MDExNTA4MjgyNFow
HzEdMBsGA1UEAxMUQ2xpZW50MjE0MkNlcnQzNDY4MGIwggIiMA0GCSqGSIb3DQEB
AQUAA4ICDwAwggIKAoICAQCvw+r8iBHBkoVYDQCdKlyPW08eTmXo3YlW1HU5nNI3
76gWbpCFjTvqP9f9hwmFGFzW2GJoBRocOYQun202u25JxqCn90gmj6mx3KtC8KJA
yJ3vQL1pWGOnWc1eSqs4+fnlVurbY97azSaxpgcF0J8neCvsKjYBDliKLcdCLtsa
2REeLyPLkJyoh2wjypAomKUSp0Pk1i2KFc2e4OuQR68pUvItR/sefTGko0eg8se+
iKswSwD0zqS39es8ZnFbRG8DYWtJzWQ+lXhi38M9eBPLP5FPsLtuVTz0ffURh6O7
S9YIJQUPO6taI59x1HdVqrSmpBlD1XgP/c5XsF+dBUjfEI9cxm5HP7Y2pQvAqw6D
B3U1i5ZhSuL5eK/3NnxlQOru+1/02Wnx4t3BVqRPG82z23QMDxW4LpP9y+rAtLib
W4kUE3rZiut99MYi5gNum4aWXRZyEsYamMFx5wKe+0USMR7wbQgH6lrNvJgqWXWl
vtrsg1SoWhdUyy72fBE8ben8ulnaq6d3Rm43ZMW++sEJUzLV9V4EXmliQ2B0FMot
ujXr7Wwq8RFPbXliUsLc+MG/E73Qud8N97qwRzsQXbamh32+A/5ddN8d4qTqGzQk
dXzocX1Fp7KvN0VT6ApZFeBfsYOLxV24gs5oS4ZrLC8FXlaxsVGzhQmvigB226L/
KwIDAQABo4IBYzCCAV8wCQYDVR0TBAIwADAtBglghkgBhvhCAQ0EIBYeRWFzeS1S
U0EgR2VuZXJhdGVkIENlcnRpZmljYXRlMB0GA1UdDgQWBBTjLelM8QAKyf0JIWC0
sPCJt0hFBzCB4QYDVR0jBIHZMIHWgBQSzWAE0qCAnnDtxpm4eyzGUv0ZoaGBsqSB
rzCBrDELMAkGA1UEBhMCVVMxCzAJBgNVBAgTAk9IMREwDwYDVQQHEwhDb2x1bWJ1
czESMBAGA1UEChMJVmlraW5nVlBOMR0wGwYDVQQLExRNeU9yZ2FuaXphdGlvbmFs
VW5pdDEVMBMGA1UEAxMMVmlraW5nVlBOIENBMRAwDgYDVQQpEwdFYXN5UlNBMSEw
HwYJKoZIhvcNAQkBFhJtZUBteWhvc3QubXlkb21haW6CCQDPNYXugL8qPjATBgNV
HSUEDDAKBggrBgEFBQcDAjALBgNVHQ8EBAMCB4AwDQYJKoZIhvcNAQEEBQADggIB
ADMcEMKDVdKj1gBaHuqqvo6uOjoC8QypyV2WrYljvNz0JE1DINeOyDWfC6/EWg5A
sceZXt6yEQ5JP2T8s6DP8LCBNqR5/GSNOGY10r9BkwnbgzJXCCKVo3PYU/t207qu
XVXPu59xtgay/rg1x8+GyHg+jOxeNorl9Mmht/4e+NUGC1+IgtYSBpTYyC/pCOQ/
jjMJI/9fWbTO9OAsDb0ld23Oi5vs0LBLt8skzGcjrtBF1PqWy7EYM7Ag54AdPWiI
q7FFmG0koiqiAsqkZwF4QSevpVk4hUzsb8mYu0wU6MxY/bi6muBd7T6vjib06ifO
fO4oog+PpLkLHr1QXoW9zQvekq/FhjyHMc1HwXzZcqgbfD+RH05DoaWsf8wnc+gF
av/bR4SVPF4lMOkx7PGRaEAl2ShWMzYxKkw3VOz7mUlRANCP7IvcShysirLYclF8
IwCdpN3Twvzn5sw2vDvIyiX5AJjgmOGjn9g79N92bGhwpmxVdKwwTdGYXMgbuM49
Uyd6mrxMn1bgeGrE8kpxJEH78tbNvBOga2ha0XjgP+jGulcx8i/T9IikCVNvMUz1
ZilSFs/4CTkm25EN1aC9sCiMLgrmJKCJyaHdrbsyEmzO/4q7uo/HrkUabgw37BMS
/hWCR+SMxMv5cwQIhChqMD03NyXC1mUj1RGM9HVWEG39
-----END CERTIFICATE-----
