Certificate:
    Data:
        Version: 3 (0x2)
        Serial Number: 7088 (0x1bb0)
    Signature Algorithm: md5WithRSAEncryption
        Issuer: C=US, ST=OH, L=Columbus, O=VikingVPN, OU=MyOrganizationalUnit, CN=VikingVPN CA/name=EasyRSA/emailAddress=me@myhost.mydomain
        Validity
            Not Before: Jan 27 11:22:23 2016 GMT
            Not After : Jan 24 11:22:23 2026 GMT
        Subject: CN=Client2152Certf40b74
        Subject Public Key Info:
            Public Key Algorithm: rsaEncryption
                Public-Key: (4096 bit)
                Modulus:
                    00:d1:de:4c:10:8a:0d:7b:5d:c4:70:cd:b2:4e:16:
                    07:90:61:d6:7c:8b:5f:7a:37:8c:27:c7:d3:05:19:
                    74:eb:f2:64:7a:f1:63:27:89:b7:f5:6e:61:2a:cb:
                    d4:a0:be:cc:c2:2f:22:96:d9:64:1f:9e:67:62:59:
                    d8:34:e6:a0:a6:bf:88:86:5c:4b:e1:b3:3c:8b:41:
                    3e:16:ca:78:bd:a2:17:f2:94:9d:3f:16:fe:34:5d:
                    71:26:3d:05:80:26:50:cf:d5:7e:90:14:bc:4a:6e:
                    84:53:6c:4e:c3:cb:1e:f8:56:cd:1e:88:4c:a4:52:
                    a8:a3:44:15:b2:43:b7:7d:e3:40:68:de:ae:14:e8:
                    2d:a8:58:41:71:62:ff:be:3f:fa:bf:d7:01:bf:d1:
                    54:3c:40:cc:1c:b7:8f:51:38:c5:37:04:16:f6:10:
                    2d:42:c6:15:d8:87:2f:ce:d8:30:f2:77:b2:fb:47:
                    01:ba:46:64:6d:d0:6a:7b:9d:f3:b5:d0:8a:8b:03:
                    2a:36:93:1b:5f:c1:bc:ad:62:3d:de:8b:24:60:10:
                    50:ba:31:fe:79:3a:a8:67:96:0d:bd:5a:00:d0:ad:
                    d9:c0:5f:9f:8c:83:62:46:88:05:4c:e2:b0:5a:5d:
                    6e:54:d2:88:0b:c3:2c:c0:c7:45:9d:b1:7e:29:c2:
                    b2:06:d3:de:06:a9:51:94:63:47:f3:a4:a0:0b:d4:
                    b8:c2:4a:c8:c1:70:96:77:24:ba:ce:06:67:77:af:
                    29:e4:bc:ec:b8:c2:31:10:f4:28:22:47:2d:21:5d:
                    d9:06:66:9f:17:40:fd:c4:bd:df:a4:f4:f5:34:ae:
                    db:0d:e5:2c:80:1b:a5:5e:19:b4:cc:be:dd:35:cb:
                    1e:91:7b:c6:ad:4f:7c:ee:d2:f1:cd:a2:79:8c:95:
                    4c:6f:f5:91:05:c4:09:a4:fd:e1:03:08:91:f0:11:
                    6c:12:d6:69:b9:18:98:18:27:b0:8d:22:cb:78:17:
                    11:a2:25:5a:34:75:4f:5e:67:a1:04:50:75:7e:01:
                    ee:5f:f1:50:59:71:d9:4f:db:56:7e:3d:4d:fd:60:
                    85:58:3a:bf:5b:0e:16:f9:4a:30:7e:25:a4:da:e2:
                    15:5b:fc:36:7d:f9:e1:8c:07:4e:50:1f:7a:85:a1:
                    7c:e0:9b:23:f3:be:b3:70:74:85:53:ca:82:be:e8:
                    41:33:9e:1d:c0:52:9c:ef:58:b3:dc:ce:fb:28:17:
                    0b:35:48:f4:aa:cb:a0:1d:42:8d:1d:52:cd:fa:12:
                    80:58:1a:59:1f:6b:e5:ad:ef:cc:62:96:1e:47:c3:
                    5b:d2:86:7c:b0:c2:85:ec:eb:5d:d6:4a:42:b1:b5:
                    01:4b:ef
                Exponent: 65537 (0x10001)
        X509v3 extensions:
            X509v3 Basic Constraints: 
                CA:FALSE
            Netscape Comment: 
                Easy-RSA Generated Certificate
            X509v3 Subject Key Identifier: 
                52:1C:2C:62:E0:8B:F8:73:E6:39:CC:D9:9E:32:27:F8:5F:98:B2:91
            X509v3 Authority Key Identifier: 
                keyid:12:CD:60:04:D2:A0:80:9E:70:ED:C6:99:B8:7B:2C:C6:52:FD:19:A1
                DirName:/C=US/ST=OH/L=Columbus/O=VikingVPN/OU=MyOrganizationalUnit/CN=VikingVPN CA/name=EasyRSA/emailAddress=me@myhost.mydomain
                serial:CF:35:85:EE:80:BF:2A:3E

            X509v3 Extended Key Usage: 
                TLS Web Client Authentication
            X509v3 Key Usage: 
                Digital Signature
    Signature Algorithm: md5WithRSAEncryption
         bd:65:27:04:9b:f1:e1:0a:ee:32:1e:4b:41:5b:5f:1f:0b:82:
         34:e3:32:fa:07:a7:6c:63:77:ba:52:25:47:24:74:c4:68:7a:
         d2:a7:fa:90:6c:77:9d:ec:1a:c2:08:ee:1e:e9:6c:ca:ba:e9:
         b8:34:88:46:06:0b:58:e3:c0:d7:97:f0:1e:71:99:a1:34:78:
         57:53:20:06:83:0b:eb:94:c9:b7:e1:5b:48:e5:dc:7d:92:01:
         90:9f:2b:3f:7c:9c:21:a2:20:6d:96:0b:10:d2:28:80:91:54:
         7a:f8:9d:6c:c2:84:fa:7f:70:d9:59:0d:37:4d:9a:0b:1e:d9:
         26:30:1e:6e:45:c9:db:ef:41:cf:ae:59:c9:7b:34:df:c6:c5:
         bd:6a:2c:64:9e:2e:00:48:e7:e1:2e:bc:20:54:c5:59:0c:34:
         95:76:d3:ea:ea:a0:d7:1c:6e:ca:16:ba:55:24:25:3c:e1:ac:
         a5:27:e4:6a:da:be:4a:7a:ab:6d:01:2a:7f:ee:0c:b7:59:b3:
         55:eb:ca:38:54:a3:0a:06:46:56:06:9e:b9:42:cf:e5:09:7e:
         63:5d:18:0a:d7:24:9c:58:5d:19:98:a7:0f:64:f8:a5:89:86:
         30:fc:2b:e9:7c:5a:45:9a:11:75:50:88:8e:f5:b1:7d:8c:1c:
         b2:65:b9:a7:f4:13:ff:aa:1d:f4:5e:9a:22:99:a8:16:19:b7:
         0c:14:76:96:d5:b9:a5:de:87:93:9e:46:d9:18:2e:2d:0b:24:
         41:7b:42:62:d4:14:ae:68:1d:1a:95:c1:35:fc:9c:51:18:d0:
         c6:64:1b:61:f2:e8:f7:f2:7d:a9:02:74:16:a7:40:55:bb:91:
         2f:1d:14:21:17:78:00:ac:d1:e1:c7:5b:9e:fe:19:93:47:c9:
         be:8e:c4:31:a1:38:81:e5:8c:cf:53:c7:fa:12:e7:70:17:b2:
         6c:1a:cd:77:60:b0:c1:b5:1d:70:d9:3b:62:40:95:59:aa:95:
         a4:49:b9:ea:de:4c:a1:dc:c7:f6:7c:6d:c3:48:d4:f0:1a:48:
         1a:fb:9e:04:df:a7:54:f1:d6:e3:f0:10:43:3c:6b:66:0e:34:
         80:df:25:e2:05:34:96:d5:9a:7f:14:52:90:a4:8c:ca:b2:28:
         f9:3f:c4:98:b4:0f:49:cb:5b:0a:3b:89:b3:32:3a:25:31:33:
         d3:19:58:ab:24:fa:3e:3a:34:d7:d0:70:53:16:36:6a:18:d7:
         12:f0:7d:07:3d:8a:e7:16:fd:e8:0a:a8:8e:f4:6e:48:2e:ef:
         81:1b:56:51:a5:f0:03:c1:ee:84:fd:e1:e8:2b:70:cb:b3:b8:
         ba:67:a2:a5:9d:81:86:ec
-----BEGIN CERTIFICATE-----
MIIGrTCCBJWgAwIBAgICG7AwDQYJKoZIhvcNAQEEBQAwgawxCzAJBgNVBAYTAlVT
MQswCQYDVQQIEwJPSDERMA8GA1UEBxMIQ29sdW1idXMxEjAQBgNVBAoTCVZpa2lu
Z1ZQTjEdMBsGA1UECxMUTXlPcmdhbml6YXRpb25hbFVuaXQxFTATBgNVBAMTDFZp
a2luZ1ZQTiBDQTEQMA4GA1UEKRMHRWFzeVJTQTEhMB8GCSqGSIb3DQEJARYSbWVA
bXlob3N0Lm15ZG9tYWluMB4XDTE2MDEyNzExMjIyM1oXDTI2MDEyNDExMjIyM1ow
HzEdMBsGA1UEAxMUQ2xpZW50MjE1MkNlcnRmNDBiNzQwggIiMA0GCSqGSIb3DQEB
AQUAA4ICDwAwggIKAoICAQDR3kwQig17XcRwzbJOFgeQYdZ8i196N4wnx9MFGXTr
8mR68WMnibf1bmEqy9SgvszCLyKW2WQfnmdiWdg05qCmv4iGXEvhszyLQT4Wyni9
ohfylJ0/Fv40XXEmPQWAJlDP1X6QFLxKboRTbE7Dyx74Vs0eiEykUqijRBWyQ7d9
40Bo3q4U6C2oWEFxYv++P/q/1wG/0VQ8QMwct49ROMU3BBb2EC1CxhXYhy/O2DDy
d7L7RwG6RmRt0Gp7nfO10IqLAyo2kxtfwbytYj3eiyRgEFC6Mf55Oqhnlg29WgDQ
rdnAX5+Mg2JGiAVM4rBaXW5U0ogLwyzAx0WdsX4pwrIG094GqVGUY0fzpKAL1LjC
SsjBcJZ3JLrOBmd3rynkvOy4wjEQ9CgiRy0hXdkGZp8XQP3Evd+k9PU0rtsN5SyA
G6VeGbTMvt01yx6Re8atT3zu0vHNonmMlUxv9ZEFxAmk/eEDCJHwEWwS1mm5GJgY
J7CNIst4FxGiJVo0dU9eZ6EEUHV+Ae5f8VBZcdlP21Z+PU39YIVYOr9bDhb5SjB+
JaTa4hVb/DZ9+eGMB05QH3qFoXzgmyPzvrNwdIVTyoK+6EEznh3AUpzvWLPczvso
Fws1SPSqy6AdQo0dUs36EoBYGlkfa+Wt78xilh5Hw1vShnywwoXs613WSkKxtQFL
7wIDAQABo4IBYzCCAV8wCQYDVR0TBAIwADAtBglghkgBhvhCAQ0EIBYeRWFzeS1S
U0EgR2VuZXJhdGVkIENlcnRpZmljYXRlMB0GA1UdDgQWBBRSHCxi4Iv4c+Y5zNme
Mif4X5iykTCB4QYDVR0jBIHZMIHWgBQSzWAE0qCAnnDtxpm4eyzGUv0ZoaGBsqSB
rzCBrDELMAkGA1UEBhMCVVMxCzAJBgNVBAgTAk9IMREwDwYDVQQHEwhDb2x1bWJ1
czESMBAGA1UEChMJVmlraW5nVlBOMR0wGwYDVQQLExRNeU9yZ2FuaXphdGlvbmFs
VW5pdDEVMBMGA1UEAxMMVmlraW5nVlBOIENBMRAwDgYDVQQpEwdFYXN5UlNBMSEw
HwYJKoZIhvcNAQkBFhJtZUBteWhvc3QubXlkb21haW6CCQDPNYXugL8qPjATBgNV
HSUEDDAKBggrBgEFBQcDAjALBgNVHQ8EBAMCB4AwDQYJKoZIhvcNAQEEBQADggIB
AL1lJwSb8eEK7jIeS0FbXx8LgjTjMvoHp2xjd7pSJUckdMRoetKn+pBsd53sGsII
7h7pbMq66bg0iEYGC1jjwNeX8B5xmaE0eFdTIAaDC+uUybfhW0jl3H2SAZCfKz98
nCGiIG2WCxDSKICRVHr4nWzChPp/cNlZDTdNmgse2SYwHm5FydvvQc+uWcl7NN/G
xb1qLGSeLgBI5+EuvCBUxVkMNJV20+rqoNccbsoWulUkJTzhrKUn5Gravkp6q20B
Kn/uDLdZs1XryjhUowoGRlYGnrlCz+UJfmNdGArXJJxYXRmYpw9k+KWJhjD8K+l8
WkWaEXVQiI71sX2MHLJluaf0E/+qHfRemiKZqBYZtwwUdpbVuaXeh5OeRtkYLi0L
JEF7QmLUFK5oHRqVwTX8nFEY0MZkG2Hy6PfyfakCdBanQFW7kS8dFCEXeACs0eHH
W57+GZNHyb6OxDGhOIHljM9Tx/oS53AXsmwazXdgsMG1HXDZO2JAlVmqlaRJuere
TKHcx/Z8bcNI1PAaSBr7ngTfp1Tx1uPwEEM8a2YONIDfJeIFNJbVmn8UUpCkjMqy
KPk/xJi0D0nLWwo7ibMyOiUxM9MZWKsk+j46NNfQcFMWNmoY1xLwfQc9iucW/egK
qI70bkgu74EbVlGl8APB7oT94egrcMuzuLpnoqWdgYbs
-----END CERTIFICATE-----
