Certificate:
    Data:
        Version: 3 (0x2)
        Serial Number: 7103 (0x1bbf)
    Signature Algorithm: md5WithRSAEncryption
        Issuer: C=US, ST=OH, L=Columbus, O=VikingVPN, OU=MyOrganizationalUnit, CN=VikingVPN CA/name=EasyRSA/emailAddress=me@myhost.mydomain
        Validity
            Not Before: Jan 30 02:49:31 2016 GMT
            Not After : Jan 27 02:49:31 2026 GMT
        Subject: CN=Client2142Cert62d301
        Subject Public Key Info:
            Public Key Algorithm: rsaEncryption
                Public-Key: (4096 bit)
                Modulus:
                    00:d1:d9:9c:86:e2:10:b6:d7:f0:a9:c4:85:c1:45:
                    4a:52:29:5e:8f:c2:38:da:91:2d:16:30:4a:e9:11:
                    ac:ac:65:b5:ee:d6:cf:fa:e2:97:b1:72:ad:a0:bc:
                    47:ad:c8:e9:10:a7:e3:4e:60:5e:b7:b5:85:3e:28:
                    89:cc:bb:8f:01:0c:53:06:26:ff:45:06:83:a6:55:
                    02:d8:66:26:9d:2e:c5:9c:af:e6:24:99:e8:a2:1f:
                    79:53:39:0b:15:46:8b:b6:01:33:7b:92:6a:80:42:
                    03:6f:b8:76:23:9a:9e:66:f1:7d:82:c9:1b:83:7e:
                    af:e3:85:85:ef:6a:5f:da:58:98:05:47:3a:4c:63:
                    4b:e4:9c:ed:88:06:be:de:3e:41:b6:56:05:af:f9:
                    d1:4b:7c:36:3b:9b:1c:31:03:03:44:34:c6:3a:79:
                    4b:90:ad:01:81:6b:9c:35:71:0c:ed:a1:9a:e1:1c:
                    dc:12:bb:b1:38:7f:56:f7:18:2d:92:f1:be:cb:32:
                    41:cc:5f:09:5a:79:01:aa:60:cd:65:14:d3:58:96:
                    dd:c8:7a:30:00:b0:e9:92:38:40:1c:cb:78:3a:6e:
                    4d:0e:af:c4:64:56:70:95:ac:9d:3d:28:dc:ce:e7:
                    b5:c8:f9:88:c8:06:3a:d5:14:a0:e3:d8:2a:60:7f:
                    f8:28:00:09:67:8f:4b:5e:fc:65:41:d6:60:b0:f5:
                    f5:c5:d2:7f:e5:f9:38:d6:db:d1:49:68:4a:b4:fb:
                    13:82:ac:3d:f8:bf:a2:1c:76:03:20:76:54:3c:a6:
                    49:4e:55:3f:66:8b:77:aa:85:67:93:51:f7:8a:86:
                    b9:a3:11:b2:37:0a:43:b9:10:09:ff:61:7b:cb:83:
                    54:aa:68:87:37:c1:23:22:4f:f8:1d:d2:a0:7c:73:
                    83:02:3e:74:94:06:66:11:6a:69:88:ba:d0:f2:cc:
                    1c:3e:78:0b:b7:d3:71:34:ef:31:da:6d:1d:df:19:
                    46:1b:07:75:91:0b:18:11:90:58:fd:cd:b4:f4:e8:
                    c2:1b:05:58:81:1a:fa:12:7f:82:a1:70:0c:23:63:
                    82:72:81:d0:11:d1:96:d9:db:d5:08:f5:c0:8b:89:
                    1b:f8:79:96:2b:90:a2:b3:2a:0c:96:47:07:27:6e:
                    1a:94:8f:d5:5f:ad:a1:5a:59:b7:31:36:b9:8e:5b:
                    22:41:78:a8:9a:64:98:38:9e:05:0b:0c:d4:70:07:
                    af:27:ca:c1:bf:36:11:d8:7c:fc:68:f1:23:b6:5a:
                    93:84:0b:d2:09:37:ab:b9:7b:31:5b:f8:7f:8e:81:
                    4b:4a:39:68:06:05:aa:aa:e6:21:c8:bf:9f:89:6b:
                    bc:2c:4d
                Exponent: 65537 (0x10001)
        X509v3 extensions:
            X509v3 Basic Constraints: 
                CA:FALSE
            Netscape Comment: 
                Easy-RSA Generated Certificate
            X509v3 Subject Key Identifier: 
                DE:A5:A4:74:31:0D:21:A9:19:C3:0A:49:65:29:43:22:B4:D8:F1:5A
            X509v3 Authority Key Identifier: 
                keyid:12:CD:60:04:D2:A0:80:9E:70:ED:C6:99:B8:7B:2C:C6:52:FD:19:A1
                DirName:/C=US/ST=OH/L=Columbus/O=VikingVPN/OU=MyOrganizationalUnit/CN=VikingVPN CA/name=EasyRSA/emailAddress=me@myhost.mydomain
                serial:CF:35:85:EE:80:BF:2A:3E

            X509v3 Extended Key Usage: 
                TLS Web Client Authentication
            X509v3 Key Usage: 
                Digital Signature
    Signature Algorithm: md5WithRSAEncryption
         9b:48:0e:88:2a:37:6e:13:72:f7:65:87:69:6f:c7:26:90:6d:
         94:0d:1d:90:55:a4:65:a4:bd:dc:f5:a1:ba:77:3b:0c:59:c7:
         2c:22:c1:61:6c:b9:76:d9:d7:06:a3:c0:83:8f:25:3b:5e:5f:
         52:72:49:8b:5e:f6:73:7b:2b:ff:51:07:2b:c2:1d:71:d9:9f:
         ed:8b:4f:e3:dc:9f:52:30:c2:3a:80:a3:6d:ca:dd:8c:23:a1:
         99:86:49:33:8c:8e:e3:c8:80:f6:cc:3c:d7:ff:86:cf:29:de:
         ae:a1:15:1b:fa:fa:50:80:37:9a:fb:a7:9d:9c:00:a0:6f:19:
         b0:32:0a:9d:2c:90:0a:c1:80:d0:d6:28:24:36:44:09:05:db:
         94:5b:ed:f9:a7:0d:63:fe:0e:9d:42:4d:e5:41:35:a6:74:3b:
         ad:21:51:20:40:89:8d:bb:36:23:a3:4f:06:c4:5e:05:b5:73:
         57:63:5e:2d:19:bd:07:3f:30:57:ad:d7:04:8c:92:c9:4c:f6:
         1e:e9:c3:f5:13:d7:76:96:36:0b:d9:8c:86:05:89:71:bc:76:
         07:8d:ca:7d:33:1b:ad:6c:87:f5:0f:57:24:79:67:7b:8a:75:
         c6:36:f0:f8:45:f8:07:d2:ba:0a:21:fd:c0:5d:67:5d:03:b6:
         27:ae:1f:1a:40:22:aa:c0:cb:e1:53:86:8b:63:bc:fc:d6:e2:
         f1:8a:77:c5:33:24:c2:09:38:fa:42:c7:eb:b3:e1:38:12:7b:
         33:4d:0a:40:a5:2b:e1:28:92:b3:11:a4:2e:6a:d7:35:b1:3a:
         1f:28:a6:c0:d7:22:cc:86:3b:b8:d4:21:39:fd:d8:7b:8b:9d:
         2f:4f:a4:c1:24:71:87:51:67:26:14:d0:02:7d:60:ca:c4:7f:
         6e:6f:24:4d:ed:64:c0:31:b6:13:85:fc:50:7b:3b:c4:67:a9:
         09:fb:8a:dc:9d:f8:e6:13:20:b4:9a:ed:2d:60:74:7b:2f:86:
         45:dc:1b:0c:5b:f3:f6:61:90:9d:6a:ee:d3:86:46:81:a5:4b:
         6e:6a:58:6a:4b:12:1b:4d:57:2d:4a:b5:68:9a:5b:89:89:27:
         d4:90:ab:98:59:00:60:69:09:a1:21:b2:2e:48:21:7f:6d:12:
         d4:ab:ab:6d:3c:99:67:28:b5:90:01:d1:f7:2e:33:7e:65:e4:
         94:ab:d5:ab:8e:f7:be:d2:95:bd:ca:06:9a:e9:ad:45:67:73:
         a6:ea:e8:e2:5b:22:6a:e8:d5:ed:e9:c5:45:02:5d:27:85:d5:
         5e:e8:ee:c5:b2:1a:8d:eb:3e:38:cd:da:12:07:98:f2:e3:ed:
         c2:fb:82:b1:64:5b:43:19
-----BEGIN CERTIFICATE-----
MIIGrTCCBJWgAwIBAgICG78wDQYJKoZIhvcNAQEEBQAwgawxCzAJBgNVBAYTAlVT
MQswCQYDVQQIEwJPSDERMA8GA1UEBxMIQ29sdW1idXMxEjAQBgNVBAoTCVZpa2lu
Z1ZQTjEdMBsGA1UECxMUTXlPcmdhbml6YXRpb25hbFVuaXQxFTATBgNVBAMTDFZp
a2luZ1ZQTiBDQTEQMA4GA1UEKRMHRWFzeVJTQTEhMB8GCSqGSIb3DQEJARYSbWVA
bXlob3N0Lm15ZG9tYWluMB4XDTE2MDEzMDAyNDkzMVoXDTI2MDEyNzAyNDkzMVow
HzEdMBsGA1UEAxMUQ2xpZW50MjE0MkNlcnQ2MmQzMDEwggIiMA0GCSqGSIb3DQEB
AQUAA4ICDwAwggIKAoICAQDR2ZyG4hC21/CpxIXBRUpSKV6PwjjakS0WMErpEays
ZbXu1s/64pexcq2gvEetyOkQp+NOYF63tYU+KInMu48BDFMGJv9FBoOmVQLYZiad
LsWcr+YkmeiiH3lTOQsVRou2ATN7kmqAQgNvuHYjmp5m8X2CyRuDfq/jhYXval/a
WJgFRzpMY0vknO2IBr7ePkG2VgWv+dFLfDY7mxwxAwNENMY6eUuQrQGBa5w1cQzt
oZrhHNwSu7E4f1b3GC2S8b7LMkHMXwlaeQGqYM1lFNNYlt3IejAAsOmSOEAcy3g6
bk0Or8RkVnCVrJ09KNzO57XI+YjIBjrVFKDj2Cpgf/goAAlnj0te/GVB1mCw9fXF
0n/l+TjW29FJaEq0+xOCrD34v6IcdgMgdlQ8pklOVT9mi3eqhWeTUfeKhrmjEbI3
CkO5EAn/YXvLg1SqaIc3wSMiT/gd0qB8c4MCPnSUBmYRammIutDyzBw+eAu303E0
7zHabR3fGUYbB3WRCxgRkFj9zbT06MIbBViBGvoSf4KhcAwjY4JygdAR0ZbZ29UI
9cCLiRv4eZYrkKKzKgyWRwcnbhqUj9VfraFaWbcxNrmOWyJBeKiaZJg4ngULDNRw
B68nysG/NhHYfPxo8SO2WpOEC9IJN6u5ezFb+H+OgUtKOWgGBaqq5iHIv5+Ja7ws
TQIDAQABo4IBYzCCAV8wCQYDVR0TBAIwADAtBglghkgBhvhCAQ0EIBYeRWFzeS1S
U0EgR2VuZXJhdGVkIENlcnRpZmljYXRlMB0GA1UdDgQWBBTepaR0MQ0hqRnDCkll
KUMitNjxWjCB4QYDVR0jBIHZMIHWgBQSzWAE0qCAnnDtxpm4eyzGUv0ZoaGBsqSB
rzCBrDELMAkGA1UEBhMCVVMxCzAJBgNVBAgTAk9IMREwDwYDVQQHEwhDb2x1bWJ1
czESMBAGA1UEChMJVmlraW5nVlBOMR0wGwYDVQQLExRNeU9yZ2FuaXphdGlvbmFs
VW5pdDEVMBMGA1UEAxMMVmlraW5nVlBOIENBMRAwDgYDVQQpEwdFYXN5UlNBMSEw
HwYJKoZIhvcNAQkBFhJtZUBteWhvc3QubXlkb21haW6CCQDPNYXugL8qPjATBgNV
HSUEDDAKBggrBgEFBQcDAjALBgNVHQ8EBAMCB4AwDQYJKoZIhvcNAQEEBQADggIB
AJtIDogqN24Tcvdlh2lvxyaQbZQNHZBVpGWkvdz1obp3OwxZxywiwWFsuXbZ1waj
wIOPJTteX1JySYte9nN7K/9RByvCHXHZn+2LT+Pcn1IwwjqAo23K3YwjoZmGSTOM
juPIgPbMPNf/hs8p3q6hFRv6+lCAN5r7p52cAKBvGbAyCp0skArBgNDWKCQ2RAkF
25Rb7fmnDWP+Dp1CTeVBNaZ0O60hUSBAiY27NiOjTwbEXgW1c1djXi0ZvQc/MFet
1wSMkslM9h7pw/UT13aWNgvZjIYFiXG8dgeNyn0zG61sh/UPVyR5Z3uKdcY28PhF
+AfSugoh/cBdZ10DtieuHxpAIqrAy+FThotjvPzW4vGKd8UzJMIJOPpCx+uz4TgS
ezNNCkClK+EokrMRpC5q1zWxOh8opsDXIsyGO7jUITn92HuLnS9PpMEkcYdRZyYU
0AJ9YMrEf25vJE3tZMAxthOF/FB7O8RnqQn7ityd+OYTILSa7S1gdHsvhkXcGwxb
8/ZhkJ1q7tOGRoGlS25qWGpLEhtNVy1KtWiaW4mJJ9SQq5hZAGBpCaEhsi5IIX9t
EtSrq208mWcotZAB0fcuM35l5JSr1auO977Slb3KBprprUVnc6bq6OJbImro1e3p
xUUCXSeF1V7o7sWyGo3rPjjN2hIHmPLj7cL7grFkW0MZ
-----END CERTIFICATE-----
