Certificate:
    Data:
        Version: 3 (0x2)
        Serial Number: 7108 (0x1bc4)
    Signature Algorithm: md5WithRSAEncryption
        Issuer: C=US, ST=OH, L=Columbus, O=VikingVPN, OU=MyOrganizationalUnit, CN=VikingVPN CA/name=EasyRSA/emailAddress=me@myhost.mydomain
        Validity
            Not Before: Feb  1 04:13:32 2016 GMT
            Not After : Jan 29 04:13:32 2026 GMT
        Subject: CN=Client1998Cert32ede0
        Subject Public Key Info:
            Public Key Algorithm: rsaEncryption
                Public-Key: (4096 bit)
                Modulus:
                    00:a4:fb:61:7a:6d:76:58:af:38:dc:e5:19:66:7a:
                    bf:a0:50:5c:80:52:e5:e9:27:ed:a2:46:d9:d8:38:
                    a1:59:69:40:b3:ea:80:26:15:d5:84:7b:d4:38:e1:
                    a3:13:ee:88:47:65:93:7b:78:dc:e9:8d:5f:76:62:
                    b2:d2:00:14:ac:39:a0:57:58:5d:09:3e:24:2d:ba:
                    de:c3:9b:9e:a1:c1:06:9b:d6:19:0c:f2:a7:d5:7f:
                    2c:e4:78:91:bf:59:a5:06:a2:9f:70:47:65:47:c6:
                    a8:be:ac:bb:d3:87:ec:cb:01:93:03:3b:25:be:f3:
                    7c:d7:1a:b8:6b:2e:b5:0e:d0:06:87:3a:b4:51:0c:
                    cb:83:2f:9c:f5:e9:fc:79:ec:ea:69:af:34:c6:78:
                    26:54:11:e7:6f:d5:2d:bd:94:42:d4:2e:ab:23:90:
                    54:ee:d7:7b:3e:4f:d7:45:51:cc:7a:5d:ff:24:86:
                    19:d9:a1:ae:79:2e:68:eb:26:c3:01:5c:6f:d8:3c:
                    d7:0e:50:65:50:b7:e2:c7:20:08:c8:c9:78:f9:56:
                    70:ca:62:eb:fd:c0:94:69:5a:d1:ea:4e:4e:c4:98:
                    97:f3:a9:a8:71:33:f2:87:5f:e3:bf:f6:3c:85:ab:
                    1e:f5:bf:82:23:5c:07:12:fe:af:29:89:9d:05:18:
                    8a:bb:f5:3b:28:01:14:6a:b1:43:1b:33:af:78:e0:
                    d2:9d:86:89:23:01:52:e1:d0:c5:df:26:58:3a:90:
                    23:f8:3e:6c:b9:51:e5:9e:ed:e5:b7:a3:19:77:b3:
                    cf:ff:7f:51:d4:81:3e:38:89:ba:74:ce:2e:a7:ac:
                    e0:0a:ec:29:30:92:69:99:be:e0:1f:27:b3:fc:90:
                    56:0f:5d:3f:88:c9:42:c6:d2:b6:49:f8:85:9e:7d:
                    89:2a:5d:14:82:00:c8:4e:7a:45:a2:df:7e:50:ac:
                    9e:af:92:3b:ea:f5:85:a8:c9:1b:99:4f:82:bc:e8:
                    a5:f2:bb:8b:46:e8:a1:9a:6b:9e:ce:59:39:d9:5e:
                    91:1c:51:44:62:b2:66:eb:8b:c4:35:e2:8f:ce:00:
                    e3:00:5b:27:41:9b:d2:fb:79:16:31:40:ce:3c:36:
                    6d:95:0e:47:c7:2b:9f:49:dd:68:9d:d5:bb:62:f5:
                    fe:b3:ec:41:3d:21:5b:3e:de:95:ea:8f:ea:92:c9:
                    a6:0b:d0:b3:eb:48:1d:2d:bb:a8:e7:03:13:77:22:
                    bd:2d:52:d5:7d:80:17:52:59:e8:88:36:e0:49:31:
                    18:c5:6c:2e:51:75:e0:9a:ad:be:59:df:f1:88:66:
                    21:27:7e:95:34:d2:4a:09:42:d8:d1:29:d2:1b:c7:
                    57:90:7d
                Exponent: 65537 (0x10001)
        X509v3 extensions:
            X509v3 Basic Constraints: 
                CA:FALSE
            Netscape Comment: 
                Easy-RSA Generated Certificate
            X509v3 Subject Key Identifier: 
                FB:E1:2A:00:B7:F3:FF:ED:8F:62:4A:27:F4:7C:65:48:79:D0:1A:1E
            X509v3 Authority Key Identifier: 
                keyid:12:CD:60:04:D2:A0:80:9E:70:ED:C6:99:B8:7B:2C:C6:52:FD:19:A1
                DirName:/C=US/ST=OH/L=Columbus/O=VikingVPN/OU=MyOrganizationalUnit/CN=VikingVPN CA/name=EasyRSA/emailAddress=me@myhost.mydomain
                serial:CF:35:85:EE:80:BF:2A:3E

            X509v3 Extended Key Usage: 
                TLS Web Client Authentication
            X509v3 Key Usage: 
                Digital Signature
    Signature Algorithm: md5WithRSAEncryption
         96:f9:28:6c:86:5a:0b:b9:a3:5a:89:69:80:0f:e4:6f:9e:40:
         36:6d:88:80:a7:82:56:50:16:b8:f2:a0:ab:a9:03:de:ed:3d:
         99:9a:56:16:51:b9:55:d1:3b:81:9a:4a:cb:3a:24:64:d1:eb:
         88:a3:b3:c5:cb:17:c4:5b:28:0d:8c:15:cc:07:4e:03:99:22:
         7d:d2:6c:c3:03:0a:82:3f:4c:2c:e7:8f:69:0e:7e:37:21:1a:
         25:6f:78:d5:29:46:6c:1e:8d:9e:63:5b:1b:29:da:d9:0b:fd:
         b8:fb:28:89:a3:5f:f6:95:3f:15:f9:87:c0:00:a0:3d:c8:4b:
         31:10:0a:f2:ec:f2:fc:e4:f0:2c:63:a8:1a:0e:c1:19:b5:bc:
         88:43:d4:c3:c1:f2:54:0b:c2:62:96:db:23:c5:1b:d2:ff:75:
         ce:76:aa:fa:16:e5:51:27:0b:8a:bf:da:b1:a5:5e:cb:ef:9a:
         37:66:5c:e7:43:7c:b0:e0:e7:cb:06:72:5c:60:2e:33:21:f2:
         0e:91:02:55:a0:6c:59:5d:47:03:c4:a5:ff:65:ef:6e:8d:8f:
         22:83:99:4d:fc:84:05:9e:99:7d:7e:54:55:75:5e:05:4d:ef:
         8e:e5:52:26:eb:6c:b9:d8:cf:3a:93:21:93:0e:c2:ff:86:df:
         c1:15:27:27:ff:31:05:7a:be:ad:a2:a2:3d:f7:2a:08:50:88:
         d2:ae:cc:57:2b:1c:20:ea:34:f6:48:28:4b:1c:36:e9:af:14:
         02:a0:6e:57:8a:c0:d1:76:5c:9c:84:fd:b9:94:13:a5:cf:0e:
         12:17:a4:0f:2d:ca:b3:18:8f:d2:77:23:cc:00:08:d1:92:4f:
         45:46:f2:20:63:9d:a0:da:af:bd:f0:9a:8b:cf:a2:c4:a5:0a:
         47:3d:fd:a4:41:83:6a:25:f3:d9:43:1c:ff:0c:d5:3a:be:32:
         d8:1a:96:94:82:0c:a8:05:28:56:3f:74:36:fe:37:fd:43:75:
         33:bc:bf:45:a6:9c:02:0d:9a:b3:44:c2:bc:0e:48:4d:69:13:
         b3:87:64:bd:05:d1:09:6d:11:35:9f:a3:0a:ca:dc:c9:38:e9:
         91:82:0e:98:85:9b:7b:bc:fe:10:b6:4a:b1:93:14:cb:43:34:
         f3:bc:ea:6a:7b:26:04:67:4b:4e:f3:0f:64:06:cb:d1:58:9b:
         44:d0:26:be:14:07:07:e1:ce:01:0f:93:52:10:b8:bb:9f:63:
         67:d0:fa:0f:72:1b:99:35:23:28:90:fb:03:36:41:ad:73:6e:
         08:e1:3c:ac:97:50:fc:69:8d:de:40:47:77:12:e3:a2:5c:c0:
         dd:37:b7:5b:dc:6b:18:8d
-----BEGIN CERTIFICATE-----
MIIGrTCCBJWgAwIBAgICG8QwDQYJKoZIhvcNAQEEBQAwgawxCzAJBgNVBAYTAlVT
MQswCQYDVQQIEwJPSDERMA8GA1UEBxMIQ29sdW1idXMxEjAQBgNVBAoTCVZpa2lu
Z1ZQTjEdMBsGA1UECxMUTXlPcmdhbml6YXRpb25hbFVuaXQxFTATBgNVBAMTDFZp
a2luZ1ZQTiBDQTEQMA4GA1UEKRMHRWFzeVJTQTEhMB8GCSqGSIb3DQEJARYSbWVA
bXlob3N0Lm15ZG9tYWluMB4XDTE2MDIwMTA0MTMzMloXDTI2MDEyOTA0MTMzMlow
HzEdMBsGA1UEAxMUQ2xpZW50MTk5OENlcnQzMmVkZTAwggIiMA0GCSqGSIb3DQEB
AQUAA4ICDwAwggIKAoICAQCk+2F6bXZYrzjc5Rlmer+gUFyAUuXpJ+2iRtnYOKFZ
aUCz6oAmFdWEe9Q44aMT7ohHZZN7eNzpjV92YrLSABSsOaBXWF0JPiQtut7Dm56h
wQab1hkM8qfVfyzkeJG/WaUGop9wR2VHxqi+rLvTh+zLAZMDOyW+83zXGrhrLrUO
0AaHOrRRDMuDL5z16fx57OpprzTGeCZUEedv1S29lELULqsjkFTu13s+T9dFUcx6
Xf8khhnZoa55LmjrJsMBXG/YPNcOUGVQt+LHIAjIyXj5VnDKYuv9wJRpWtHqTk7E
mJfzqahxM/KHX+O/9jyFqx71v4IjXAcS/q8piZ0FGIq79TsoARRqsUMbM6944NKd
hokjAVLh0MXfJlg6kCP4Pmy5UeWe7eW3oxl3s8//f1HUgT44ibp0zi6nrOAK7Ckw
kmmZvuAfJ7P8kFYPXT+IyULG0rZJ+IWefYkqXRSCAMhOekWi335QrJ6vkjvq9YWo
yRuZT4K86KXyu4tG6KGaa57OWTnZXpEcUURismbri8Q14o/OAOMAWydBm9L7eRYx
QM48Nm2VDkfHK59J3Wid1bti9f6z7EE9IVs+3pXqj+qSyaYL0LPrSB0tu6jnAxN3
Ir0tUtV9gBdSWeiINuBJMRjFbC5RdeCarb5Z3/GIZiEnfpU00koJQtjRKdIbx1eQ
fQIDAQABo4IBYzCCAV8wCQYDVR0TBAIwADAtBglghkgBhvhCAQ0EIBYeRWFzeS1S
U0EgR2VuZXJhdGVkIENlcnRpZmljYXRlMB0GA1UdDgQWBBT74SoAt/P/7Y9iSif0
fGVIedAaHjCB4QYDVR0jBIHZMIHWgBQSzWAE0qCAnnDtxpm4eyzGUv0ZoaGBsqSB
rzCBrDELMAkGA1UEBhMCVVMxCzAJBgNVBAgTAk9IMREwDwYDVQQHEwhDb2x1bWJ1
czESMBAGA1UEChMJVmlraW5nVlBOMR0wGwYDVQQLExRNeU9yZ2FuaXphdGlvbmFs
VW5pdDEVMBMGA1UEAxMMVmlraW5nVlBOIENBMRAwDgYDVQQpEwdFYXN5UlNBMSEw
HwYJKoZIhvcNAQkBFhJtZUBteWhvc3QubXlkb21haW6CCQDPNYXugL8qPjATBgNV
HSUEDDAKBggrBgEFBQcDAjALBgNVHQ8EBAMCB4AwDQYJKoZIhvcNAQEEBQADggIB
AJb5KGyGWgu5o1qJaYAP5G+eQDZtiICnglZQFrjyoKupA97tPZmaVhZRuVXRO4Ga
Sss6JGTR64ijs8XLF8RbKA2MFcwHTgOZIn3SbMMDCoI/TCznj2kOfjchGiVveNUp
RmwejZ5jWxsp2tkL/bj7KImjX/aVPxX5h8AAoD3ISzEQCvLs8vzk8CxjqBoOwRm1
vIhD1MPB8lQLwmKW2yPFG9L/dc52qvoW5VEnC4q/2rGlXsvvmjdmXOdDfLDg58sG
clxgLjMh8g6RAlWgbFldRwPEpf9l726NjyKDmU38hAWemX1+VFV1XgVN747lUibr
bLnYzzqTIZMOwv+G38EVJyf/MQV6vq2ioj33KghQiNKuzFcrHCDqNPZIKEscNumv
FAKgbleKwNF2XJyE/bmUE6XPDhIXpA8tyrMYj9J3I8wACNGST0VG8iBjnaDar73w
movPosSlCkc9/aRBg2ol89lDHP8M1Tq+MtgalpSCDKgFKFY/dDb+N/1DdTO8v0Wm
nAINmrNEwrwOSE1pE7OHZL0F0QltETWfowrK3Mk46ZGCDpiFm3u8/hC2SrGTFMtD
NPO86mp7JgRnS07zD2QGy9FYm0TQJr4UBwfhzgEPk1IQuLufY2fQ+g9yG5k1IyiQ
+wM2Qa1zbgjhPKyXUPxpjd5AR3cS46JcwN03t1vcaxiN
-----END CERTIFICATE-----
