Certificate:
    Data:
        Version: 3 (0x2)
        Serial Number: 7123 (0x1bd3)
    Signature Algorithm: md5WithRSAEncryption
        Issuer: C=US, ST=OH, L=Columbus, O=VikingVPN, OU=MyOrganizationalUnit, CN=VikingVPN CA/name=EasyRSA/emailAddress=me@myhost.mydomain
        Validity
            Not Before: Feb  3 18:57:38 2016 GMT
            Not After : Jan 31 18:57:38 2026 GMT
        Subject: CN=Client747Certca5f98
        Subject Public Key Info:
            Public Key Algorithm: rsaEncryption
                Public-Key: (4096 bit)
                Modulus:
                    00:d8:dd:0f:e5:ab:3e:75:ff:d0:fb:47:0b:a3:78:
                    eb:1b:a5:4d:4f:06:fa:64:78:de:9a:7f:82:aa:f7:
                    a2:65:1d:7e:41:6b:ca:33:4e:b0:13:0a:07:d9:fa:
                    b9:d3:13:43:df:49:ea:7e:40:77:b5:99:06:1d:68:
                    80:d0:f2:b6:34:99:27:ab:46:d0:c4:fc:35:43:d5:
                    dd:f5:32:9f:74:28:5e:c1:b9:a3:21:72:31:5a:c8:
                    7e:30:38:b3:5c:99:92:57:a9:43:80:1c:a0:55:88:
                    9e:3e:85:63:1d:29:f6:9f:00:81:88:e2:29:98:c2:
                    27:68:a8:d0:27:5b:c9:ff:0b:fd:7f:40:2c:af:7b:
                    fa:0e:f4:ea:7e:68:cd:21:ed:ce:89:b9:d2:fc:4f:
                    aa:f6:3f:98:40:ed:d9:a3:80:42:af:f0:10:12:2f:
                    4c:b9:f2:65:60:34:75:90:97:bf:42:d9:e2:52:15:
                    b5:dc:08:3a:d7:f4:d1:56:2f:bb:51:b1:9b:b5:4a:
                    ca:f5:6f:5c:7b:7b:63:3d:8a:32:c0:38:17:89:3d:
                    24:25:27:0a:b1:4b:87:9e:29:d7:2f:ce:ef:04:6f:
                    2f:b1:4d:48:66:fc:e2:fa:95:a7:af:5a:46:02:94:
                    2f:78:5d:a3:bc:37:29:fe:2d:a4:07:9d:35:6b:f6:
                    35:5f:57:39:4f:16:ff:ec:bf:70:4a:52:6b:47:7d:
                    c9:b3:fc:af:f7:08:74:62:72:94:ce:2a:b0:8e:80:
                    5f:d0:14:81:51:69:a8:84:fd:cc:06:9a:47:cc:ee:
                    25:bb:89:18:97:4a:f7:61:e9:6b:de:6b:59:91:9f:
                    fb:60:5a:78:9e:90:a9:ca:72:95:3d:79:01:8f:76:
                    de:76:e5:8e:73:9c:a0:a4:73:55:83:5c:cb:d3:b9:
                    d6:90:d2:e0:5a:8f:21:dd:be:c7:39:dc:29:20:5e:
                    40:7f:10:71:a0:99:43:eb:3f:83:2f:e7:b5:2b:c8:
                    f0:b1:86:7f:d6:c3:f4:1a:43:d2:1f:5a:81:8e:0f:
                    40:9b:a5:08:fa:59:55:80:b2:ba:58:66:59:17:70:
                    ef:42:e9:94:07:78:80:6e:f1:00:41:21:15:fb:1e:
                    66:8b:e7:f5:6a:eb:48:f5:ba:84:bf:e2:50:7f:c6:
                    f2:53:c0:e7:db:b5:3a:84:c3:94:4e:c2:4e:b6:49:
                    56:0f:57:1c:b3:ec:58:e6:2a:21:0f:37:10:7a:b5:
                    dd:8b:6e:36:ab:2e:35:00:17:e7:2b:d8:66:93:5d:
                    d0:1d:ec:51:d9:0e:bd:ce:9b:2b:60:4e:f4:7a:ee:
                    27:ae:ea:7c:b3:eb:69:61:29:71:c4:71:d7:5a:38:
                    bf:71:bb
                Exponent: 65537 (0x10001)
        X509v3 extensions:
            X509v3 Basic Constraints: 
                CA:FALSE
            Netscape Comment: 
                Easy-RSA Generated Certificate
            X509v3 Subject Key Identifier: 
                74:97:30:C7:A2:8A:D6:6C:10:D6:8C:E5:51:8A:2D:DF:78:CF:7F:4A
            X509v3 Authority Key Identifier: 
                keyid:12:CD:60:04:D2:A0:80:9E:70:ED:C6:99:B8:7B:2C:C6:52:FD:19:A1
                DirName:/C=US/ST=OH/L=Columbus/O=VikingVPN/OU=MyOrganizationalUnit/CN=VikingVPN CA/name=EasyRSA/emailAddress=me@myhost.mydomain
                serial:CF:35:85:EE:80:BF:2A:3E

            X509v3 Extended Key Usage: 
                TLS Web Client Authentication
            X509v3 Key Usage: 
                Digital Signature
    Signature Algorithm: md5WithRSAEncryption
         a2:85:78:b6:28:52:5f:31:9a:cc:17:44:8d:1a:6a:d7:29:8b:
         fd:63:56:f1:b1:8d:19:15:aa:9b:cd:7d:27:af:a0:44:6e:29:
         8e:08:7a:e1:d6:22:e9:f4:15:5b:31:9a:45:55:b0:ed:1e:91:
         b5:06:af:48:d5:1b:cf:21:62:ce:b3:4f:8e:fb:37:44:f5:26:
         b9:41:b5:0b:c8:ca:89:df:4e:03:2d:ac:ea:23:0d:cc:48:8e:
         4e:8b:d4:2d:56:b9:ad:3e:25:46:7a:2c:44:9c:55:26:ec:d2:
         75:64:12:cc:ef:15:f2:f1:b0:91:ce:64:62:f4:33:8d:8d:45:
         5b:6a:3d:97:db:ae:b9:c0:54:fa:e4:41:ba:66:93:20:a7:44:
         02:0e:7b:85:9b:d5:5e:37:b7:74:63:33:0f:1c:67:74:4a:a4:
         b0:16:8c:e1:3f:a4:12:74:ca:b6:fa:e4:22:6f:34:96:9b:06:
         95:58:ad:2a:cd:b1:7c:9c:ce:7d:a7:a3:05:23:a0:88:0e:08:
         0e:ef:64:d8:be:b0:ff:9f:56:30:6a:53:a1:fd:a1:bd:cd:67:
         52:4b:ab:0d:d4:0c:29:2e:4a:57:fd:08:19:52:65:8a:f2:4b:
         fb:52:b3:d1:77:c8:86:5b:94:ac:3e:70:ba:94:9a:ba:b1:13:
         50:03:cf:bc:39:43:81:e3:40:f9:c0:ee:3c:63:25:f3:36:a7:
         cc:11:aa:a3:f5:f2:7f:7c:e6:85:5c:02:59:c3:1d:d5:40:12:
         39:8c:94:77:c7:41:d1:b9:92:32:9e:d8:fb:58:2d:c9:01:4d:
         f1:a0:60:45:27:8c:3a:6a:a3:66:d5:d4:82:d7:59:29:e2:17:
         41:4e:f4:e2:66:19:4e:c9:7c:e8:8b:eb:86:e8:94:20:b4:17:
         9c:6f:67:82:25:93:be:30:d9:9f:6f:44:87:83:ef:89:6f:59:
         b2:75:5d:5a:6a:aa:61:a9:62:ec:d7:43:d4:1b:6a:af:eb:ca:
         b3:e6:a3:97:56:1b:ba:9a:96:9e:25:21:d7:56:6d:ed:f5:69:
         e8:05:68:48:ed:96:95:8b:45:6b:56:40:9f:ac:d4:7e:f3:48:
         ec:d9:cb:ae:71:2e:ae:92:99:50:42:50:7e:0c:03:48:b7:96:
         be:57:2e:a8:ad:17:a6:3a:fd:87:15:df:40:4f:16:0a:e8:c9:
         d2:45:7b:70:b5:34:e7:f4:1b:a1:ea:8c:18:09:b1:e4:2f:ce:
         ac:41:7c:27:43:89:89:e9:b4:32:0f:a8:99:cb:ce:38:8f:8e:
         02:41:a4:a4:be:a8:cb:b2:ae:da:07:f7:8a:e8:08:0c:b5:aa:
         7d:c5:28:24:c3:b4:85:b1
-----BEGIN CERTIFICATE-----
MIIGrDCCBJSgAwIBAgICG9MwDQYJKoZIhvcNAQEEBQAwgawxCzAJBgNVBAYTAlVT
MQswCQYDVQQIEwJPSDERMA8GA1UEBxMIQ29sdW1idXMxEjAQBgNVBAoTCVZpa2lu
Z1ZQTjEdMBsGA1UECxMUTXlPcmdhbml6YXRpb25hbFVuaXQxFTATBgNVBAMTDFZp
a2luZ1ZQTiBDQTEQMA4GA1UEKRMHRWFzeVJTQTEhMB8GCSqGSIb3DQEJARYSbWVA
bXlob3N0Lm15ZG9tYWluMB4XDTE2MDIwMzE4NTczOFoXDTI2MDEzMTE4NTczOFow
HjEcMBoGA1UEAxMTQ2xpZW50NzQ3Q2VydGNhNWY5ODCCAiIwDQYJKoZIhvcNAQEB
BQADggIPADCCAgoCggIBANjdD+WrPnX/0PtHC6N46xulTU8G+mR43pp/gqr3omUd
fkFryjNOsBMKB9n6udMTQ99J6n5Ad7WZBh1ogNDytjSZJ6tG0MT8NUPV3fUyn3Qo
XsG5oyFyMVrIfjA4s1yZklepQ4AcoFWInj6FYx0p9p8AgYjiKZjCJ2io0Cdbyf8L
/X9ALK97+g706n5ozSHtzom50vxPqvY/mEDt2aOAQq/wEBIvTLnyZWA0dZCXv0LZ
4lIVtdwIOtf00VYvu1Gxm7VKyvVvXHt7Yz2KMsA4F4k9JCUnCrFLh54p1y/O7wRv
L7FNSGb84vqVp69aRgKUL3hdo7w3Kf4tpAedNWv2NV9XOU8W/+y/cEpSa0d9ybP8
r/cIdGJylM4qsI6AX9AUgVFpqIT9zAaaR8zuJbuJGJdK92Hpa95rWZGf+2BaeJ6Q
qcpylT15AY923nbljnOcoKRzVYNcy9O51pDS4FqPId2+xzncKSBeQH8QcaCZQ+s/
gy/ntSvI8LGGf9bD9BpD0h9agY4PQJulCPpZVYCyulhmWRdw70LplAd4gG7xAEEh
FfseZovn9WrrSPW6hL/iUH/G8lPA59u1OoTDlE7CTrZJVg9XHLPsWOYqIQ83EHq1
3YtuNqsuNQAX5yvYZpNd0B3sUdkOvc6bK2BO9HruJ67qfLPraWEpccRx11o4v3G7
AgMBAAGjggFjMIIBXzAJBgNVHRMEAjAAMC0GCWCGSAGG+EIBDQQgFh5FYXN5LVJT
QSBHZW5lcmF0ZWQgQ2VydGlmaWNhdGUwHQYDVR0OBBYEFHSXMMeiitZsENaM5VGK
Ld94z39KMIHhBgNVHSMEgdkwgdaAFBLNYATSoICecO3Gmbh7LMZS/RmhoYGypIGv
MIGsMQswCQYDVQQGEwJVUzELMAkGA1UECBMCT0gxETAPBgNVBAcTCENvbHVtYnVz
MRIwEAYDVQQKEwlWaWtpbmdWUE4xHTAbBgNVBAsTFE15T3JnYW5pemF0aW9uYWxV
bml0MRUwEwYDVQQDEwxWaWtpbmdWUE4gQ0ExEDAOBgNVBCkTB0Vhc3lSU0ExITAf
BgkqhkiG9w0BCQEWEm1lQG15aG9zdC5teWRvbWFpboIJAM81he6Avyo+MBMGA1Ud
JQQMMAoGCCsGAQUFBwMCMAsGA1UdDwQEAwIHgDANBgkqhkiG9w0BAQQFAAOCAgEA
ooV4tihSXzGazBdEjRpq1ymL/WNW8bGNGRWqm819J6+gRG4pjgh64dYi6fQVWzGa
RVWw7R6RtQavSNUbzyFizrNPjvs3RPUmuUG1C8jKid9OAy2s6iMNzEiOTovULVa5
rT4lRnosRJxVJuzSdWQSzO8V8vGwkc5kYvQzjY1FW2o9l9uuucBU+uRBumaTIKdE
Ag57hZvVXje3dGMzDxxndEqksBaM4T+kEnTKtvrkIm80lpsGlVitKs2xfJzOfaej
BSOgiA4IDu9k2L6w/59WMGpTof2hvc1nUkurDdQMKS5KV/0IGVJlivJL+1Kz0XfI
hluUrD5wupSaurETUAPPvDlDgeNA+cDuPGMl8zanzBGqo/Xyf3zmhVwCWcMd1UAS
OYyUd8dB0bmSMp7Y+1gtyQFN8aBgRSeMOmqjZtXUgtdZKeIXQU704mYZTsl86Ivr
huiUILQXnG9ngiWTvjDZn29Eh4PviW9ZsnVdWmqqYali7NdD1Btqr+vKs+ajl1Yb
upqWniUh11Zt7fVp6AVoSO2WlYtFa1ZAn6zUfvNI7NnLrnEurpKZUEJQfgwDSLeW
vlcuqK0Xpjr9hxXfQE8WCujJ0kV7cLU05/QboeqMGAmx5C/OrEF8J0OJiem0Mg+o
mcvOOI+OAkGkpL6oy7Ku2gf3iugIDLWqfcUoJMO0hbE=
-----END CERTIFICATE-----
