Certificate:
    Data:
        Version: 3 (0x2)
        Serial Number: 7136 (0x1be0)
    Signature Algorithm: md5WithRSAEncryption
        Issuer: C=US, ST=OH, L=Columbus, O=VikingVPN, OU=MyOrganizationalUnit, CN=VikingVPN CA/name=EasyRSA/emailAddress=me@myhost.mydomain
        Validity
            Not Before: Feb  5 23:23:49 2016 GMT
            Not After : Feb  2 23:23:49 2026 GMT
        Subject: CN=Client2066Certb8f2ad
        Subject Public Key Info:
            Public Key Algorithm: rsaEncryption
                Public-Key: (4096 bit)
                Modulus:
                    00:d8:da:49:e5:88:a6:18:1d:35:0c:0e:2b:a0:81:
                    d0:4d:87:75:09:bd:93:91:ee:42:03:7c:7c:5f:9e:
                    16:51:78:01:1e:2a:b4:5f:1b:96:27:b8:74:53:0f:
                    59:a5:62:55:51:04:9d:22:dd:47:00:88:58:e5:17:
                    60:19:63:46:09:a1:f4:2c:d7:4b:62:fb:fe:06:2d:
                    57:82:2c:6b:24:9f:69:60:44:e0:18:05:92:f6:6d:
                    13:7a:78:c9:fd:76:f1:3e:b1:35:22:31:64:65:e2:
                    5a:05:5d:7f:c6:b3:1f:01:d6:d3:e6:3b:e4:da:74:
                    bd:79:d5:9f:b0:b2:e9:5f:03:c5:00:53:da:94:d8:
                    b9:80:d9:6f:38:49:fe:f4:40:75:de:55:4c:03:fe:
                    ad:dd:07:77:53:af:9c:65:ed:20:74:8a:ea:08:97:
                    77:8a:5b:e1:c1:4c:ed:1d:2f:e3:65:37:02:a6:63:
                    3c:67:48:e3:f3:cb:ea:e5:7e:63:a0:aa:cd:f2:69:
                    c8:99:be:ef:8f:0e:9a:52:35:8c:c6:b9:37:b8:84:
                    17:f4:43:2d:35:13:14:a4:c4:b7:83:68:f7:b9:4e:
                    e8:d9:5f:6b:cd:96:9b:71:1d:0e:d6:64:76:d8:dc:
                    59:37:18:9c:4d:ad:c6:79:ad:c7:6d:f7:de:47:94:
                    88:89:57:d6:4c:ad:24:df:55:2a:d5:50:09:5c:9e:
                    a9:4f:a8:f6:c8:27:f1:61:23:08:c1:5a:da:2f:f3:
                    11:9e:08:81:28:bb:89:1e:6d:bb:90:9d:5e:7f:de:
                    4b:75:19:e1:93:8d:2d:45:c5:b6:8c:08:b2:c3:cd:
                    5e:81:27:99:64:11:c4:12:0b:8b:43:bd:f7:af:7b:
                    89:73:b1:94:0d:8a:f6:bb:7c:c1:25:1b:1f:7d:11:
                    49:68:bc:b2:74:bf:1a:1b:b5:81:fa:47:99:dd:03:
                    dd:5d:cc:65:6c:4f:90:3c:23:8e:77:70:09:3a:84:
                    c3:dc:23:86:f4:4c:4a:17:14:39:d0:42:d3:29:ed:
                    a9:3b:13:b4:79:32:10:f0:d7:b2:af:d6:3c:38:7e:
                    d8:33:7e:ae:a9:24:ab:f1:30:16:fd:6c:34:48:21:
                    c0:90:35:0f:9a:79:20:1d:c6:d4:c0:e4:43:43:48:
                    d3:fd:ad:63:13:9c:8f:3f:dc:b5:1b:6e:33:8d:de:
                    21:a3:5d:05:8b:95:b0:79:f0:46:95:b2:5a:4a:9c:
                    41:f3:5c:84:77:6a:78:4c:ce:c6:a0:98:ee:07:92:
                    37:b6:95:bb:02:65:5a:ac:df:ba:8b:6e:59:19:88:
                    e8:f7:e2:14:5a:d1:81:d8:f1:a8:11:49:f3:1e:93:
                    ab:34:03
                Exponent: 65537 (0x10001)
        X509v3 extensions:
            X509v3 Basic Constraints: 
                CA:FALSE
            Netscape Comment: 
                Easy-RSA Generated Certificate
            X509v3 Subject Key Identifier: 
                5F:3D:66:A8:04:96:18:39:9E:D2:C0:8D:6A:71:42:76:EF:65:37:23
            X509v3 Authority Key Identifier: 
                keyid:12:CD:60:04:D2:A0:80:9E:70:ED:C6:99:B8:7B:2C:C6:52:FD:19:A1
                DirName:/C=US/ST=OH/L=Columbus/O=VikingVPN/OU=MyOrganizationalUnit/CN=VikingVPN CA/name=EasyRSA/emailAddress=me@myhost.mydomain
                serial:CF:35:85:EE:80:BF:2A:3E

            X509v3 Extended Key Usage: 
                TLS Web Client Authentication
            X509v3 Key Usage: 
                Digital Signature
    Signature Algorithm: md5WithRSAEncryption
         24:13:af:fe:dd:b8:d3:9c:f9:c4:62:66:21:37:9c:d8:a7:cd:
         9c:1e:91:50:b0:89:89:90:63:51:ef:ec:ec:fa:5f:61:ad:99:
         9c:25:91:62:36:5a:ab:93:12:2d:8a:05:ff:46:55:bd:f6:15:
         fa:85:dd:1b:96:de:58:bd:69:7b:a1:cf:40:4e:03:72:65:6e:
         8f:2c:2f:b9:f3:c5:76:ee:91:fd:e6:26:5f:e8:90:ae:be:40:
         cd:5b:99:fe:1f:9a:04:33:fd:d0:8a:3b:73:b4:1e:d9:61:ac:
         c5:40:54:e8:26:ea:2f:b8:f0:a8:c2:89:0e:82:8b:5e:90:8f:
         ac:c1:1e:7e:fb:44:67:ec:a0:aa:8f:54:43:7c:28:29:a8:7f:
         ae:09:7e:62:c4:a1:79:3c:69:8b:af:08:0a:c6:ac:cf:1b:7c:
         90:70:c9:9c:46:15:8d:38:7a:d7:4a:c1:d2:1f:40:41:a7:f6:
         d5:d7:9c:0e:1a:ac:dc:e4:31:9f:76:9d:d8:8d:06:7d:1a:1c:
         af:4d:29:12:ef:f0:38:3f:24:c9:93:26:b5:02:f8:7f:b2:e9:
         de:21:05:d6:de:78:87:de:d9:7a:c2:c0:9e:85:e9:77:2b:37:
         8f:21:cb:51:e6:da:f5:a1:a4:bc:7c:fd:4a:a5:5d:55:1f:26:
         3f:20:52:08:d8:97:f8:56:d0:d8:49:d0:ea:f7:96:45:e4:05:
         9f:05:21:f8:c3:f7:a3:a6:08:43:58:f9:0f:1a:77:fa:1c:d0:
         71:45:d2:b0:69:b4:49:ae:95:ee:39:d3:5f:89:20:fc:ca:a1:
         55:39:68:a2:52:77:8d:92:fa:14:65:78:fe:1a:da:eb:7b:b6:
         e3:cb:bc:00:b5:83:74:ba:5b:b8:be:ba:86:96:e5:70:97:9e:
         72:77:3e:1b:09:dc:b2:4c:1d:8b:f1:04:01:a4:ed:9f:f1:d6:
         9a:47:ec:36:b2:d3:7f:98:4c:b0:a8:96:4f:c2:b4:e1:2a:9a:
         ac:cc:30:06:61:3f:5f:f4:88:13:88:65:5a:a2:e8:69:92:b4:
         bd:83:b4:3e:7f:8c:49:ad:40:16:4b:0b:67:c8:73:6c:f9:66:
         5a:37:b1:64:ee:b5:00:2e:ff:10:bc:a9:4e:46:30:1e:ad:11:
         7b:ea:3e:c1:c6:33:d8:40:45:e7:2a:17:e7:83:9f:b4:a1:69:
         42:08:a3:0e:0b:7c:8e:1a:f1:b7:e7:17:33:8c:a7:6b:c2:6d:
         e5:ca:64:c2:af:03:bc:37:33:39:7d:8f:29:0f:01:e6:db:e4:
         8c:a7:90:b3:69:f5:a3:9e:a1:db:20:1f:ab:10:9d:18:79:e4:
         8c:44:67:23:9d:af:a2:09
-----BEGIN CERTIFICATE-----
MIIGrTCCBJWgAwIBAgICG+AwDQYJKoZIhvcNAQEEBQAwgawxCzAJBgNVBAYTAlVT
MQswCQYDVQQIEwJPSDERMA8GA1UEBxMIQ29sdW1idXMxEjAQBgNVBAoTCVZpa2lu
Z1ZQTjEdMBsGA1UECxMUTXlPcmdhbml6YXRpb25hbFVuaXQxFTATBgNVBAMTDFZp
a2luZ1ZQTiBDQTEQMA4GA1UEKRMHRWFzeVJTQTEhMB8GCSqGSIb3DQEJARYSbWVA
bXlob3N0Lm15ZG9tYWluMB4XDTE2MDIwNTIzMjM0OVoXDTI2MDIwMjIzMjM0OVow
HzEdMBsGA1UEAxMUQ2xpZW50MjA2NkNlcnRiOGYyYWQwggIiMA0GCSqGSIb3DQEB
AQUAA4ICDwAwggIKAoICAQDY2knliKYYHTUMDiuggdBNh3UJvZOR7kIDfHxfnhZR
eAEeKrRfG5YnuHRTD1mlYlVRBJ0i3UcAiFjlF2AZY0YJofQs10ti+/4GLVeCLGsk
n2lgROAYBZL2bRN6eMn9dvE+sTUiMWRl4loFXX/Gsx8B1tPmO+TadL151Z+wsulf
A8UAU9qU2LmA2W84Sf70QHXeVUwD/q3dB3dTr5xl7SB0iuoIl3eKW+HBTO0dL+Nl
NwKmYzxnSOPzy+rlfmOgqs3yaciZvu+PDppSNYzGuTe4hBf0Qy01ExSkxLeDaPe5
TujZX2vNlptxHQ7WZHbY3Fk3GJxNrcZ5rcdt995HlIiJV9ZMrSTfVSrVUAlcnqlP
qPbIJ/FhIwjBWtov8xGeCIEou4kebbuQnV5/3kt1GeGTjS1FxbaMCLLDzV6BJ5lk
EcQSC4tDvfeve4lzsZQNiva7fMElGx99EUlovLJ0vxobtYH6R5ndA91dzGVsT5A8
I453cAk6hMPcI4b0TEoXFDnQQtMp7ak7E7R5MhDw17Kv1jw4ftgzfq6pJKvxMBb9
bDRIIcCQNQ+aeSAdxtTA5ENDSNP9rWMTnI8/3LUbbjON3iGjXQWLlbB58EaVslpK
nEHzXIR3anhMzsagmO4Hkje2lbsCZVqs37qLblkZiOj34hRa0YHY8agRSfMek6s0
AwIDAQABo4IBYzCCAV8wCQYDVR0TBAIwADAtBglghkgBhvhCAQ0EIBYeRWFzeS1S
U0EgR2VuZXJhdGVkIENlcnRpZmljYXRlMB0GA1UdDgQWBBRfPWaoBJYYOZ7SwI1q
cUJ272U3IzCB4QYDVR0jBIHZMIHWgBQSzWAE0qCAnnDtxpm4eyzGUv0ZoaGBsqSB
rzCBrDELMAkGA1UEBhMCVVMxCzAJBgNVBAgTAk9IMREwDwYDVQQHEwhDb2x1bWJ1
czESMBAGA1UEChMJVmlraW5nVlBOMR0wGwYDVQQLExRNeU9yZ2FuaXphdGlvbmFs
VW5pdDEVMBMGA1UEAxMMVmlraW5nVlBOIENBMRAwDgYDVQQpEwdFYXN5UlNBMSEw
HwYJKoZIhvcNAQkBFhJtZUBteWhvc3QubXlkb21haW6CCQDPNYXugL8qPjATBgNV
HSUEDDAKBggrBgEFBQcDAjALBgNVHQ8EBAMCB4AwDQYJKoZIhvcNAQEEBQADggIB
ACQTr/7duNOc+cRiZiE3nNinzZwekVCwiYmQY1Hv7Oz6X2GtmZwlkWI2WquTEi2K
Bf9GVb32FfqF3RuW3li9aXuhz0BOA3Jlbo8sL7nzxXbukf3mJl/okK6+QM1bmf4f
mgQz/dCKO3O0HtlhrMVAVOgm6i+48KjCiQ6Ci16Qj6zBHn77RGfsoKqPVEN8KCmo
f64JfmLEoXk8aYuvCArGrM8bfJBwyZxGFY04etdKwdIfQEGn9tXXnA4arNzkMZ92
ndiNBn0aHK9NKRLv8Dg/JMmTJrUC+H+y6d4hBdbeeIfe2XrCwJ6F6XcrN48hy1Hm
2vWhpLx8/UqlXVUfJj8gUgjYl/hW0NhJ0Or3lkXkBZ8FIfjD96OmCENY+Q8ad/oc
0HFF0rBptEmule4501+JIPzKoVU5aKJSd42S+hRleP4a2ut7tuPLvAC1g3S6W7i+
uoaW5XCXnnJ3PhsJ3LJMHYvxBAGk7Z/x1ppH7Day03+YTLColk/CtOEqmqzMMAZh
P1/0iBOIZVqi6GmStL2DtD5/jEmtQBZLC2fIc2z5Zlo3sWTutQAu/xC8qU5GMB6t
EXvqPsHGM9hARecqF+eDn7ShaUIIow4LfI4a8bfnFzOMp2vCbeXKZMKvA7w3Mzl9
jykPAebb5IynkLNp9aOeodsgH6sQnRh55IxEZyOdr6IJ
-----END CERTIFICATE-----
