Certificate:
    Data:
        Version: 3 (0x2)
        Serial Number: 7139 (0x1be3)
    Signature Algorithm: md5WithRSAEncryption
        Issuer: C=US, ST=OH, L=Columbus, O=VikingVPN, OU=MyOrganizationalUnit, CN=VikingVPN CA/name=EasyRSA/emailAddress=me@myhost.mydomain
        Validity
            Not Before: Feb  6 00:29:57 2016 GMT
            Not After : Feb  3 00:29:57 2026 GMT
        Subject: CN=Client460Certbba6a3
        Subject Public Key Info:
            Public Key Algorithm: rsaEncryption
                Public-Key: (4096 bit)
                Modulus:
                    00:b8:15:77:7e:b2:7f:46:be:23:e2:f4:75:43:03:
                    70:52:9b:a8:51:78:7a:d1:2f:3d:69:c4:87:87:12:
                    e2:37:4e:c6:30:ea:fc:1c:f2:8b:30:22:60:55:0c:
                    b1:18:fa:d0:8c:7b:7b:84:44:87:46:1e:c5:64:8f:
                    62:71:2f:74:6e:20:10:6b:55:6c:e7:75:dd:88:20:
                    08:74:92:0a:f8:bd:33:02:9f:cc:b9:74:f5:11:86:
                    ff:af:68:09:c7:4c:18:ea:d2:fe:85:cc:96:c9:b3:
                    c1:1b:e6:ba:fa:e2:ba:3f:67:b3:fd:71:69:bf:2a:
                    fd:e3:33:1b:91:72:48:cb:46:2f:c9:e1:ad:59:2a:
                    63:99:7a:b8:18:02:61:c3:04:82:23:c2:7c:4b:ec:
                    15:11:36:84:0e:8d:0b:d4:f7:91:eb:26:8b:be:c4:
                    c7:db:55:ac:f1:4e:04:f0:94:91:6c:9a:63:b1:d3:
                    27:e0:02:55:64:09:18:0e:b0:a9:12:86:fe:1d:69:
                    7c:80:66:c3:30:eb:14:49:a0:bc:61:03:64:8b:4f:
                    99:4b:bf:97:1f:5a:6e:15:af:e4:77:d3:e0:3d:8c:
                    45:e9:cd:59:e4:53:08:22:5b:b4:8b:55:2c:f9:e4:
                    4e:b9:90:08:0a:98:cc:19:3f:19:e6:9a:08:0d:a3:
                    cb:32:ec:a2:50:39:1e:cd:75:f4:cd:e8:62:4e:bb:
                    9b:44:b6:88:cb:b4:21:b6:c7:3b:18:42:16:7b:59:
                    58:ed:8c:d2:be:8f:07:c9:5f:ef:ea:19:71:c4:64:
                    9e:69:2f:16:6a:6d:5c:28:2c:5f:27:15:38:76:48:
                    90:a4:69:99:11:db:d8:7b:7a:a6:65:d4:6c:39:06:
                    5d:fd:7c:0e:ef:f2:02:46:ca:42:c6:3a:6b:14:9c:
                    1e:43:64:9e:da:21:59:73:59:50:ed:4c:cc:dc:ce:
                    af:17:84:ce:53:47:57:47:cd:06:40:6e:21:ff:2b:
                    21:32:ef:70:c5:36:47:73:e1:2f:4b:b0:f7:ab:c6:
                    99:c1:6f:18:07:d9:d0:98:4d:b6:7d:87:54:57:b6:
                    80:e7:d2:bb:9d:58:ae:6f:d8:97:95:f1:67:c7:f0:
                    e6:8d:1b:e9:74:a8:36:1e:8f:b5:b3:71:9e:00:7f:
                    73:8b:0b:aa:be:dc:bf:12:59:49:22:1e:07:00:02:
                    23:26:d6:ee:b5:37:aa:b6:49:04:9e:14:16:c4:e1:
                    89:4a:f6:ff:c9:37:7b:2b:55:9d:8d:6f:e7:90:56:
                    5d:6f:f8:f8:31:35:29:ea:c3:b4:ba:0d:96:d5:3a:
                    9d:af:b5:af:a7:a7:05:dd:2d:b3:37:9a:91:f2:8f:
                    0a:e3:d7
                Exponent: 65537 (0x10001)
        X509v3 extensions:
            X509v3 Basic Constraints: 
                CA:FALSE
            Netscape Comment: 
                Easy-RSA Generated Certificate
            X509v3 Subject Key Identifier: 
                00:36:18:AD:3B:7E:A7:AA:6D:95:19:3C:E8:37:42:28:83:FF:86:8D
            X509v3 Authority Key Identifier: 
                keyid:12:CD:60:04:D2:A0:80:9E:70:ED:C6:99:B8:7B:2C:C6:52:FD:19:A1
                DirName:/C=US/ST=OH/L=Columbus/O=VikingVPN/OU=MyOrganizationalUnit/CN=VikingVPN CA/name=EasyRSA/emailAddress=me@myhost.mydomain
                serial:CF:35:85:EE:80:BF:2A:3E

            X509v3 Extended Key Usage: 
                TLS Web Client Authentication
            X509v3 Key Usage: 
                Digital Signature
    Signature Algorithm: md5WithRSAEncryption
         aa:cf:a0:2c:b8:ec:3e:2e:ab:a4:2b:ff:43:40:2c:51:4d:0d:
         2f:c3:3a:76:af:1d:1d:ec:1d:84:55:39:a2:b2:62:16:bf:00:
         1f:0e:dc:60:ab:dc:17:ac:3c:c1:9a:ef:e0:80:95:cb:75:f3:
         5d:b4:74:92:9d:2a:8a:f7:9b:6b:54:e1:45:73:cf:09:2f:36:
         78:88:d8:d5:17:8d:50:e1:c3:66:6c:44:a4:96:06:54:b8:50:
         4c:e7:6c:70:ca:59:c8:f9:bf:0a:4f:c8:19:30:1b:a6:28:01:
         db:7b:f1:2b:3b:37:39:ea:d9:87:5b:c6:ae:cd:c4:02:d3:9b:
         d9:c8:7d:0a:17:27:7d:b2:62:19:81:dd:83:64:1a:eb:a4:65:
         3d:3a:b6:f6:95:e6:ae:9a:56:8d:70:2d:53:93:66:6b:88:7e:
         f6:d2:74:c6:5e:1a:2f:a5:2c:19:70:56:f6:31:68:22:d0:0f:
         49:52:67:7b:45:a2:38:05:c8:a4:b7:e1:27:77:01:8f:a8:9d:
         e4:4c:bb:36:c9:c5:09:52:fa:ff:85:d7:71:f4:60:b5:4d:29:
         63:22:da:e4:98:1a:66:34:58:30:61:a1:f2:47:52:92:4c:3b:
         bc:74:c5:34:f0:c6:a2:cf:7f:9a:c4:40:45:23:fe:95:fe:90:
         e3:ea:45:1a:2e:a5:99:32:83:d9:87:f8:61:5a:b9:a1:f9:60:
         18:e6:96:32:2c:db:b1:8b:8a:aa:3a:b1:4e:6d:3a:cb:39:14:
         d7:e7:e1:36:17:0f:46:7e:86:57:76:20:e3:72:64:20:e4:d5:
         0d:d0:52:df:5e:95:f4:87:b8:b5:47:9a:be:b3:3c:8b:5c:44:
         ff:2c:6f:1a:5e:f8:d3:83:38:4c:ac:b7:9c:b0:25:6d:56:c0:
         79:34:14:f9:8c:de:9a:30:fc:e6:29:f9:7f:7a:03:5a:fa:4f:
         53:af:80:02:6f:38:4f:ff:c7:50:e6:4d:b1:be:df:ca:24:f4:
         28:c5:b6:af:70:23:2e:fd:1b:0b:55:df:77:33:2c:02:16:60:
         df:ed:cd:5f:9a:bc:d2:ec:da:f2:05:be:90:0a:79:3b:17:23:
         bd:fe:5d:ee:82:0b:76:ec:64:af:8f:11:98:21:30:ed:7f:ac:
         7b:30:8a:6a:09:9b:c6:48:a7:07:03:45:4d:95:12:2f:8d:08:
         97:2c:67:29:8f:ad:57:dc:25:d5:2f:0d:0c:f8:c8:e1:e5:2b:
         76:a0:ff:7b:d0:e9:53:2f:38:00:53:58:73:45:7d:bc:52:ac:
         c7:7e:da:37:77:e9:66:93:d5:52:e7:84:80:5b:2c:ee:f9:ac:
         e5:52:f0:6a:d3:c9:d4:52
-----BEGIN CERTIFICATE-----
MIIGrDCCBJSgAwIBAgICG+MwDQYJKoZIhvcNAQEEBQAwgawxCzAJBgNVBAYTAlVT
MQswCQYDVQQIEwJPSDERMA8GA1UEBxMIQ29sdW1idXMxEjAQBgNVBAoTCVZpa2lu
Z1ZQTjEdMBsGA1UECxMUTXlPcmdhbml6YXRpb25hbFVuaXQxFTATBgNVBAMTDFZp
a2luZ1ZQTiBDQTEQMA4GA1UEKRMHRWFzeVJTQTEhMB8GCSqGSIb3DQEJARYSbWVA
bXlob3N0Lm15ZG9tYWluMB4XDTE2MDIwNjAwMjk1N1oXDTI2MDIwMzAwMjk1N1ow
HjEcMBoGA1UEAxMTQ2xpZW50NDYwQ2VydGJiYTZhMzCCAiIwDQYJKoZIhvcNAQEB
BQADggIPADCCAgoCggIBALgVd36yf0a+I+L0dUMDcFKbqFF4etEvPWnEh4cS4jdO
xjDq/BzyizAiYFUMsRj60Ix7e4REh0YexWSPYnEvdG4gEGtVbOd13YggCHSSCvi9
MwKfzLl09RGG/69oCcdMGOrS/oXMlsmzwRvmuvriuj9ns/1xab8q/eMzG5FySMtG
L8nhrVkqY5l6uBgCYcMEgiPCfEvsFRE2hA6NC9T3kesmi77Ex9tVrPFOBPCUkWya
Y7HTJ+ACVWQJGA6wqRKG/h1pfIBmwzDrFEmgvGEDZItPmUu/lx9abhWv5HfT4D2M
RenNWeRTCCJbtItVLPnkTrmQCAqYzBk/GeaaCA2jyzLsolA5Hs119M3oYk67m0S2
iMu0IbbHOxhCFntZWO2M0r6PB8lf7+oZccRknmkvFmptXCgsXycVOHZIkKRpmRHb
2Ht6pmXUbDkGXf18Du/yAkbKQsY6axScHkNkntohWXNZUO1MzNzOrxeEzlNHV0fN
BkBuIf8rITLvcMU2R3PhL0uw96vGmcFvGAfZ0JhNtn2HVFe2gOfSu51Yrm/Yl5Xx
Z8fw5o0b6XSoNh6PtbNxngB/c4sLqr7cvxJZSSIeBwACIybW7rU3qrZJBJ4UFsTh
iUr2/8k3eytVnY1v55BWXW/4+DE1KerDtLoNltU6na+1r6enBd0tszeakfKPCuPX
AgMBAAGjggFjMIIBXzAJBgNVHRMEAjAAMC0GCWCGSAGG+EIBDQQgFh5FYXN5LVJT
QSBHZW5lcmF0ZWQgQ2VydGlmaWNhdGUwHQYDVR0OBBYEFAA2GK07fqeqbZUZPOg3
QiiD/4aNMIHhBgNVHSMEgdkwgdaAFBLNYATSoICecO3Gmbh7LMZS/RmhoYGypIGv
MIGsMQswCQYDVQQGEwJVUzELMAkGA1UECBMCT0gxETAPBgNVBAcTCENvbHVtYnVz
MRIwEAYDVQQKEwlWaWtpbmdWUE4xHTAbBgNVBAsTFE15T3JnYW5pemF0aW9uYWxV
bml0MRUwEwYDVQQDEwxWaWtpbmdWUE4gQ0ExEDAOBgNVBCkTB0Vhc3lSU0ExITAf
BgkqhkiG9w0BCQEWEm1lQG15aG9zdC5teWRvbWFpboIJAM81he6Avyo+MBMGA1Ud
JQQMMAoGCCsGAQUFBwMCMAsGA1UdDwQEAwIHgDANBgkqhkiG9w0BAQQFAAOCAgEA
qs+gLLjsPi6rpCv/Q0AsUU0NL8M6dq8dHewdhFU5orJiFr8AHw7cYKvcF6w8wZrv
4ICVy3XzXbR0kp0qiveba1ThRXPPCS82eIjY1ReNUOHDZmxEpJYGVLhQTOdscMpZ
yPm/Ck/IGTAbpigB23vxKzs3OerZh1vGrs3EAtOb2ch9ChcnfbJiGYHdg2Qa66Rl
PTq29pXmrppWjXAtU5Nma4h+9tJ0xl4aL6UsGXBW9jFoItAPSVJne0WiOAXIpLfh
J3cBj6id5Ey7NsnFCVL6/4XXcfRgtU0pYyLa5JgaZjRYMGGh8kdSkkw7vHTFNPDG
os9/msRARSP+lf6Q4+pFGi6lmTKD2Yf4YVq5oflgGOaWMizbsYuKqjqxTm06yzkU
1+fhNhcPRn6GV3Yg43JkIOTVDdBS316V9Ie4tUeavrM8i1xE/yxvGl7404M4TKy3
nLAlbVbAeTQU+YzemjD85in5f3oDWvpPU6+AAm84T//HUOZNsb7fyiT0KMW2r3Aj
Lv0bC1XfdzMsAhZg3+3NX5q80uza8gW+kAp5Oxcjvf5d7oILduxkr48RmCEw7X+s
ezCKagmbxkinBwNFTZUSL40IlyxnKY+tV9wl1S8NDPjI4eUrdqD/e9DpUy84AFNY
c0V9vFKsx37aN3fpZpPVUueEgFss7vms5VLwatPJ1FI=
-----END CERTIFICATE-----
