Certificate:
    Data:
        Version: 3 (0x2)
        Serial Number: 7146 (0x1bea)
    Signature Algorithm: md5WithRSAEncryption
        Issuer: C=US, ST=OH, L=Columbus, O=VikingVPN, OU=MyOrganizationalUnit, CN=VikingVPN CA/name=EasyRSA/emailAddress=me@myhost.mydomain
        Validity
            Not Before: Feb  6 19:10:01 2016 GMT
            Not After : Feb  3 19:10:01 2026 GMT
        Subject: CN=Client2164Cert8ee712
        Subject Public Key Info:
            Public Key Algorithm: rsaEncryption
                Public-Key: (4096 bit)
                Modulus:
                    00:bc:66:c6:f8:14:90:5e:31:ef:c2:2a:1b:81:ad:
                    5a:56:b6:e3:fe:6a:3b:73:9b:9b:7c:91:8e:6c:e3:
                    5c:a2:a9:ba:b2:70:6a:d6:8f:ac:ce:fc:f3:90:23:
                    f1:eb:bd:20:42:57:f5:47:1d:d7:0f:fa:1c:ca:33:
                    ea:13:0e:b8:fe:47:5f:9e:0d:a2:f4:88:1e:50:93:
                    4f:09:37:f7:7e:1f:99:1a:8e:6f:d5:8a:bd:68:f8:
                    99:a2:ea:12:19:ad:06:4a:20:ae:92:87:a6:7b:52:
                    5f:2a:be:1d:26:66:0e:98:10:22:3c:57:4a:76:7e:
                    d5:56:1e:cc:db:85:d7:bf:42:65:9d:5f:b9:58:ef:
                    1a:35:7f:aa:b9:d2:16:a9:37:5b:24:d0:2c:c2:a3:
                    36:9b:37:83:b6:b5:32:f4:cb:e4:46:c5:a8:37:85:
                    b0:f5:4e:7e:28:44:b0:bb:07:14:a0:83:f8:73:20:
                    df:ba:2e:e8:72:33:6e:f6:b3:95:d3:7b:8a:32:84:
                    63:8f:2a:8b:88:92:23:7f:cf:b2:40:dd:35:7d:65:
                    a3:a0:61:4f:f5:23:0f:0e:fe:fb:40:31:3f:e9:81:
                    cb:21:2d:01:0f:8d:d7:1a:b0:50:17:32:9d:10:f2:
                    e1:84:59:9a:26:a3:0a:8f:08:8a:e6:c7:02:c4:c1:
                    17:89:4f:ab:25:98:6a:26:8d:32:19:8e:01:3f:9d:
                    e3:fb:84:85:32:c3:8e:26:f0:95:dc:c8:32:27:df:
                    6a:ac:ab:70:dd:ba:8d:bd:b4:7f:25:f8:0c:44:ba:
                    3c:a8:68:27:bf:e8:61:c9:7f:1d:29:a2:a0:2e:b2:
                    9c:b7:5e:99:1a:c3:3d:9b:3f:ca:01:e2:a0:64:b8:
                    15:bf:98:6e:c8:29:7c:45:61:8b:41:f2:88:c1:dd:
                    92:00:53:60:c9:af:21:a2:0f:6a:36:f1:15:49:37:
                    74:10:64:80:e8:e7:15:33:95:79:9d:36:e9:0d:ed:
                    5a:2e:6d:a4:5e:39:be:39:92:e2:d8:11:13:0f:77:
                    2e:f4:80:65:dd:c1:82:c9:ac:1b:16:6a:4e:69:7e:
                    ca:be:9e:26:94:ec:3f:12:9b:0e:f5:0b:f5:c5:4a:
                    2e:01:3d:f1:59:c7:d1:c1:d8:50:a8:92:b3:ce:4c:
                    c2:83:fe:59:5e:b7:29:97:4e:5b:bd:98:51:f0:2d:
                    5d:05:ea:64:a1:fd:21:7e:78:af:89:86:e2:c8:87:
                    9a:b3:df:63:38:27:95:1b:97:e2:f1:27:ac:d8:6c:
                    17:21:1f:79:9a:81:84:9d:e1:8e:dc:e7:96:ce:c3:
                    9e:3b:37:09:c8:47:4f:9d:eb:06:e6:5f:2c:7a:c9:
                    b2:b8:93
                Exponent: 65537 (0x10001)
        X509v3 extensions:
            X509v3 Basic Constraints: 
                CA:FALSE
            Netscape Comment: 
                Easy-RSA Generated Certificate
            X509v3 Subject Key Identifier: 
                86:79:B9:6D:AF:F7:7F:00:45:DC:13:D4:75:68:17:54:4C:07:23:98
            X509v3 Authority Key Identifier: 
                keyid:12:CD:60:04:D2:A0:80:9E:70:ED:C6:99:B8:7B:2C:C6:52:FD:19:A1
                DirName:/C=US/ST=OH/L=Columbus/O=VikingVPN/OU=MyOrganizationalUnit/CN=VikingVPN CA/name=EasyRSA/emailAddress=me@myhost.mydomain
                serial:CF:35:85:EE:80:BF:2A:3E

            X509v3 Extended Key Usage: 
                TLS Web Client Authentication
            X509v3 Key Usage: 
                Digital Signature
    Signature Algorithm: md5WithRSAEncryption
         4b:2d:05:c6:0a:d7:d8:0a:5e:3f:3e:72:b5:3f:1e:25:f5:5f:
         57:23:60:c6:4d:93:af:7e:e5:4e:5e:5d:d6:80:0b:38:9a:10:
         e5:c6:c8:80:5a:dd:bb:98:7e:7a:9f:12:dd:b6:de:4e:65:54:
         ad:9c:ef:45:66:71:07:31:af:96:94:be:fb:af:7d:95:c0:01:
         92:fa:a2:19:a8:b1:71:cd:65:93:16:79:98:d7:0f:ff:75:80:
         97:3e:a1:73:03:e8:ec:60:c8:04:17:31:ad:69:f8:bd:47:06:
         c5:76:d8:80:f6:0d:06:64:01:b0:f7:40:11:bb:e2:d9:7e:0f:
         2b:d4:5b:ce:e1:de:be:2e:aa:1d:98:f3:8a:ea:a0:5e:24:74:
         b9:13:e0:93:43:23:09:cd:ed:b8:63:35:cf:15:4d:fe:24:2e:
         58:40:7e:9d:8b:6f:dd:8c:2d:26:d7:11:7e:1e:84:ea:f8:a5:
         ee:13:c7:fb:ca:77:ec:96:bb:be:1d:89:e8:db:8d:87:b3:ce:
         a8:f1:53:ec:66:8d:6f:8d:38:99:d3:25:29:0a:99:26:e5:dd:
         2f:95:03:3f:ff:38:cf:61:bd:1f:3a:d0:f4:a2:1a:3a:0d:d2:
         11:c0:c2:55:cd:88:0f:44:f7:9e:6c:dd:4c:4e:ba:3c:31:ae:
         61:e8:e3:8e:0b:05:ba:1a:df:41:d4:af:b2:06:1c:db:54:b5:
         15:ba:ac:70:92:7c:81:46:e0:96:eb:fb:4a:86:a0:3c:be:1e:
         5f:d6:61:42:33:53:36:d2:45:a5:71:d4:73:be:6f:1c:93:2b:
         c9:7a:a0:11:20:5c:12:58:2d:be:96:17:c5:a4:1c:25:38:bc:
         50:18:e5:42:2f:17:7d:e6:35:10:61:1f:5f:15:73:c5:e3:f8:
         3a:cd:60:f1:9d:1a:07:bb:9d:04:cf:2b:40:9b:b5:e5:6b:46:
         32:f9:90:31:3b:53:35:a3:01:4f:0b:4c:42:41:ee:9e:3e:8a:
         7f:f1:c3:0e:54:a5:62:fc:4f:aa:fe:5f:2e:f1:6e:73:16:e8:
         4c:f7:da:19:dc:64:e8:e2:50:fb:69:ee:e8:83:67:f1:e3:12:
         fb:14:c4:bd:34:5d:23:f1:89:58:c9:e1:23:72:87:bd:40:a1:
         7f:d9:35:3f:50:b2:d0:f0:97:c4:ed:8b:86:f4:ec:31:98:b5:
         9f:b5:40:be:01:d9:0d:6b:e6:6c:17:29:d2:80:dc:98:94:55:
         60:64:cc:c8:ac:a5:98:fb:c1:5d:f3:d6:58:8d:77:22:35:30:
         96:6b:77:86:da:cb:e3:7b:c2:72:a5:eb:32:e4:ec:ba:5d:c8:
         48:38:03:9e:28:4b:be:ee
-----BEGIN CERTIFICATE-----
MIIGrTCCBJWgAwIBAgICG+owDQYJKoZIhvcNAQEEBQAwgawxCzAJBgNVBAYTAlVT
MQswCQYDVQQIEwJPSDERMA8GA1UEBxMIQ29sdW1idXMxEjAQBgNVBAoTCVZpa2lu
Z1ZQTjEdMBsGA1UECxMUTXlPcmdhbml6YXRpb25hbFVuaXQxFTATBgNVBAMTDFZp
a2luZ1ZQTiBDQTEQMA4GA1UEKRMHRWFzeVJTQTEhMB8GCSqGSIb3DQEJARYSbWVA
bXlob3N0Lm15ZG9tYWluMB4XDTE2MDIwNjE5MTAwMVoXDTI2MDIwMzE5MTAwMVow
HzEdMBsGA1UEAxMUQ2xpZW50MjE2NENlcnQ4ZWU3MTIwggIiMA0GCSqGSIb3DQEB
AQUAA4ICDwAwggIKAoICAQC8Zsb4FJBeMe/CKhuBrVpWtuP+ajtzm5t8kY5s41yi
qbqycGrWj6zO/POQI/HrvSBCV/VHHdcP+hzKM+oTDrj+R1+eDaL0iB5Qk08JN/d+
H5kajm/Vir1o+Jmi6hIZrQZKIK6Sh6Z7Ul8qvh0mZg6YECI8V0p2ftVWHszbhde/
QmWdX7lY7xo1f6q50hapN1sk0CzCozabN4O2tTL0y+RGxag3hbD1Tn4oRLC7BxSg
g/hzIN+6LuhyM272s5XTe4oyhGOPKouIkiN/z7JA3TV9ZaOgYU/1Iw8O/vtAMT/p
gcshLQEPjdcasFAXMp0Q8uGEWZomowqPCIrmxwLEwReJT6slmGomjTIZjgE/neP7
hIUyw44m8JXcyDIn32qsq3Dduo29tH8l+AxEujyoaCe/6GHJfx0poqAuspy3Xpka
wz2bP8oB4qBkuBW/mG7IKXxFYYtB8ojB3ZIAU2DJryGiD2o28RVJN3QQZIDo5xUz
lXmdNukN7VoubaReOb45kuLYERMPdy70gGXdwYLJrBsWak5pfsq+niaU7D8Smw71
C/XFSi4BPfFZx9HB2FCokrPOTMKD/lletymXTlu9mFHwLV0F6mSh/SF+eK+JhuLI
h5qz32M4J5Ubl+LxJ6zYbBchH3magYSd4Y7c55bOw547NwnIR0+d6wbmXyx6ybK4
kwIDAQABo4IBYzCCAV8wCQYDVR0TBAIwADAtBglghkgBhvhCAQ0EIBYeRWFzeS1S
U0EgR2VuZXJhdGVkIENlcnRpZmljYXRlMB0GA1UdDgQWBBSGebltr/d/AEXcE9R1
aBdUTAcjmDCB4QYDVR0jBIHZMIHWgBQSzWAE0qCAnnDtxpm4eyzGUv0ZoaGBsqSB
rzCBrDELMAkGA1UEBhMCVVMxCzAJBgNVBAgTAk9IMREwDwYDVQQHEwhDb2x1bWJ1
czESMBAGA1UEChMJVmlraW5nVlBOMR0wGwYDVQQLExRNeU9yZ2FuaXphdGlvbmFs
VW5pdDEVMBMGA1UEAxMMVmlraW5nVlBOIENBMRAwDgYDVQQpEwdFYXN5UlNBMSEw
HwYJKoZIhvcNAQkBFhJtZUBteWhvc3QubXlkb21haW6CCQDPNYXugL8qPjATBgNV
HSUEDDAKBggrBgEFBQcDAjALBgNVHQ8EBAMCB4AwDQYJKoZIhvcNAQEEBQADggIB
AEstBcYK19gKXj8+crU/HiX1X1cjYMZNk69+5U5eXdaACziaEOXGyIBa3buYfnqf
Et223k5lVK2c70VmcQcxr5aUvvuvfZXAAZL6ohmosXHNZZMWeZjXD/91gJc+oXMD
6OxgyAQXMa1p+L1HBsV22ID2DQZkAbD3QBG74tl+DyvUW87h3r4uqh2Y84rqoF4k
dLkT4JNDIwnN7bhjNc8VTf4kLlhAfp2Lb92MLSbXEX4ehOr4pe4Tx/vKd+yWu74d
iejbjYezzqjxU+xmjW+NOJnTJSkKmSbl3S+VAz//OM9hvR860PSiGjoN0hHAwlXN
iA9E955s3UxOujwxrmHo444LBboa30HUr7IGHNtUtRW6rHCSfIFG4Jbr+0qGoDy+
Hl/WYUIzUzbSRaVx1HO+bxyTK8l6oBEgXBJYLb6WF8WkHCU4vFAY5UIvF33mNRBh
H18Vc8Xj+DrNYPGdGge7nQTPK0CbteVrRjL5kDE7UzWjAU8LTEJB7p4+in/xww5U
pWL8T6r+Xy7xbnMW6Ez32hncZOjiUPtp7uiDZ/HjEvsUxL00XSPxiVjJ4SNyh71A
oX/ZNT9QstDwl8Tti4b07DGYtZ+1QL4B2Q1r5mwXKdKA3JiUVWBkzMispZj7wV3z
1liNdyI1MJZrd4bay+N7wnKl6zLk7LpdyEg4A54oS77u
-----END CERTIFICATE-----
