Certificate:
    Data:
        Version: 3 (0x2)
        Serial Number: 7156 (0x1bf4)
    Signature Algorithm: md5WithRSAEncryption
        Issuer: C=US, ST=OH, L=Columbus, O=VikingVPN, OU=MyOrganizationalUnit, CN=VikingVPN CA/name=EasyRSA/emailAddress=me@myhost.mydomain
        Validity
            Not Before: Feb  8 22:24:02 2016 GMT
            Not After : Feb  5 22:24:02 2026 GMT
        Subject: CN=Client2168Cert2ba1b5
        Subject Public Key Info:
            Public Key Algorithm: rsaEncryption
                Public-Key: (4096 bit)
                Modulus:
                    00:dd:ae:a4:ab:9e:f4:a5:8b:b0:67:72:1d:6d:35:
                    ad:09:22:99:80:d1:c8:71:98:40:dc:42:0b:e3:eb:
                    b9:16:4b:a2:c4:16:2d:d1:67:d2:7d:5d:45:22:84:
                    a1:6b:44:9e:df:7b:a1:df:cb:26:99:91:52:9f:c7:
                    46:42:d9:e2:db:f3:c6:cb:af:25:92:a0:98:d0:7e:
                    28:12:d7:09:0c:d8:a8:7e:0d:56:ea:33:58:38:d3:
                    f6:e7:ad:a3:3a:c6:6c:a4:1b:08:b5:85:b7:f4:e2:
                    ef:fe:47:e7:d6:17:6b:e7:2a:4c:d4:ae:f7:fc:7d:
                    ed:d8:33:84:1c:69:43:dc:92:bf:ec:16:fb:d6:7f:
                    15:46:4b:c0:1d:a2:53:cd:ce:fe:e1:ee:a6:a7:1c:
                    82:72:d7:da:f6:ac:dc:69:02:ff:d9:03:40:f9:10:
                    37:25:2b:e1:4a:78:a2:c0:b5:fa:dc:34:b4:0f:98:
                    8d:65:e0:d2:79:fa:d8:6f:a6:e0:79:b0:ae:ff:ef:
                    f8:3f:93:32:f7:d7:eb:02:98:8b:c8:9e:0f:af:83:
                    e8:e6:44:60:44:1a:e5:84:3d:5d:2b:ce:69:dd:4d:
                    c4:42:ed:bd:32:a7:93:70:b8:a8:fd:d3:f7:42:17:
                    93:e4:10:9b:e9:cc:8b:8b:3d:da:f3:12:69:f4:cc:
                    50:89:43:82:69:a7:8c:5d:37:1e:da:48:eb:6b:f2:
                    ff:8e:66:ba:ac:10:b7:89:56:5b:24:88:68:c5:10:
                    65:44:26:24:44:d9:e1:dc:ba:27:23:6e:a2:8c:91:
                    9e:5e:fb:1d:43:d3:80:6d:c7:98:a1:1e:ba:c4:0b:
                    58:f2:c8:9a:5f:10:06:b6:b1:e5:eb:11:f3:9b:18:
                    85:cf:eb:a3:91:6f:e5:4f:7e:a4:84:dc:c4:82:0b:
                    c3:1b:77:65:e0:fd:f8:86:87:3f:9b:45:71:55:40:
                    09:c6:70:4b:58:33:79:a0:d1:1d:a1:f2:3b:32:b9:
                    70:ab:46:38:c6:1a:78:08:a3:5f:16:3c:bb:53:f3:
                    0d:19:af:f3:8b:f2:fc:a5:fe:80:aa:c9:f9:a8:35:
                    31:ad:b5:31:15:1c:1e:3d:a2:88:c1:90:90:43:fa:
                    04:e3:f8:2a:38:bb:58:3e:58:1a:ea:e1:ba:0a:16:
                    6f:e6:db:13:6a:8e:f8:36:da:2e:50:09:70:d0:fd:
                    fc:17:09:50:32:a9:12:7c:9f:fb:31:b1:63:8b:d0:
                    0f:1b:25:83:4d:a3:30:66:b6:dc:e5:f6:7a:00:0b:
                    e8:c9:4d:7e:96:95:e0:8b:63:78:68:60:66:90:f2:
                    6e:d8:71:d1:f0:28:ad:98:22:34:63:10:0f:58:c6:
                    5f:3b:6f
                Exponent: 65537 (0x10001)
        X509v3 extensions:
            X509v3 Basic Constraints: 
                CA:FALSE
            Netscape Comment: 
                Easy-RSA Generated Certificate
            X509v3 Subject Key Identifier: 
                E0:9A:25:A4:F1:CA:CD:E7:28:90:0F:A0:E2:88:33:28:7F:B5:01:A9
            X509v3 Authority Key Identifier: 
                keyid:12:CD:60:04:D2:A0:80:9E:70:ED:C6:99:B8:7B:2C:C6:52:FD:19:A1
                DirName:/C=US/ST=OH/L=Columbus/O=VikingVPN/OU=MyOrganizationalUnit/CN=VikingVPN CA/name=EasyRSA/emailAddress=me@myhost.mydomain
                serial:CF:35:85:EE:80:BF:2A:3E

            X509v3 Extended Key Usage: 
                TLS Web Client Authentication
            X509v3 Key Usage: 
                Digital Signature
    Signature Algorithm: md5WithRSAEncryption
         56:c7:20:c7:c6:35:ff:24:60:0e:fc:ec:6f:b9:29:14:b8:0e:
         10:35:b5:a3:12:f9:88:e5:af:d7:5b:43:1d:a8:75:ab:cd:70:
         fe:5f:fe:05:64:03:44:6e:33:03:35:67:1c:50:74:cf:3c:92:
         5a:ea:7a:47:2e:0a:1d:40:4f:30:f8:82:1b:d0:f4:8c:cc:38:
         97:c6:15:7e:aa:f1:94:61:a2:26:99:31:7d:0a:77:12:97:39:
         93:f5:2c:5f:37:4f:73:71:30:97:c3:88:8b:a1:cc:8c:76:5d:
         c8:b0:94:9c:0d:d0:7a:9a:cf:34:78:f1:d3:6d:71:18:48:ea:
         fc:e4:3d:cc:48:00:0e:f9:e5:ed:f2:bf:64:c1:c6:9a:9a:97:
         4d:f9:5f:1e:52:56:52:3c:2f:c8:9c:90:72:47:d3:f5:bf:d2:
         f9:24:a1:4b:c1:b4:80:a4:58:41:fc:53:0e:e4:a5:f9:e1:9b:
         4b:32:fb:8a:cd:11:90:a2:91:90:66:9c:f6:d2:f1:38:b9:7a:
         9e:f1:47:9b:c7:70:7e:95:d1:05:02:66:3f:da:4b:cb:13:4e:
         a6:d8:a3:1c:5e:7d:12:53:f0:5e:df:0c:a8:74:a0:57:14:1a:
         f2:09:4a:5c:98:0d:85:21:cd:58:07:4c:6d:38:7b:4f:33:71:
         ea:6f:3e:f7:63:25:fb:68:c4:d2:8c:2f:15:d9:65:df:eb:8b:
         82:34:2b:7b:ba:59:fa:85:f9:bb:70:20:a0:c5:ad:15:60:c9:
         27:2d:7e:b4:8e:00:94:7b:f1:11:54:a3:42:82:bc:1f:36:07:
         39:a8:e3:76:1d:78:39:aa:be:7b:03:d5:9f:f8:b9:4e:f0:f4:
         93:8f:22:bd:b3:d6:c9:bf:4d:48:34:76:e9:ae:8d:19:3c:50:
         62:61:d4:c4:fb:1d:1d:e9:d6:39:ff:d3:45:10:d2:5b:ea:a7:
         c5:11:94:36:e6:b0:2f:97:35:e9:2d:1a:ef:7d:fd:54:c7:c2:
         1d:09:d9:1c:45:a0:18:ac:88:92:8d:db:48:50:f2:78:8a:60:
         4d:e3:9e:a6:ce:25:86:89:7e:07:e1:78:5c:44:5b:77:91:10:
         5b:2e:71:e5:5f:08:12:0e:3d:a9:11:60:61:97:d1:5e:76:cf:
         3e:98:4f:f4:1c:43:70:09:2b:32:52:ad:f3:4c:40:37:c1:0f:
         0d:a2:6b:d3:02:87:8d:98:b0:29:62:71:ab:6d:12:f9:b7:48:
         26:cf:73:40:3c:5e:8c:1d:8d:4f:44:5b:93:39:b5:1a:26:22:
         de:cf:dd:ce:a4:ad:ef:b2:b8:48:62:6d:b2:1c:b4:28:3b:03:
         4e:fd:20:6a:20:a3:62:ba
-----BEGIN CERTIFICATE-----
MIIGrTCCBJWgAwIBAgICG/QwDQYJKoZIhvcNAQEEBQAwgawxCzAJBgNVBAYTAlVT
MQswCQYDVQQIEwJPSDERMA8GA1UEBxMIQ29sdW1idXMxEjAQBgNVBAoTCVZpa2lu
Z1ZQTjEdMBsGA1UECxMUTXlPcmdhbml6YXRpb25hbFVuaXQxFTATBgNVBAMTDFZp
a2luZ1ZQTiBDQTEQMA4GA1UEKRMHRWFzeVJTQTEhMB8GCSqGSIb3DQEJARYSbWVA
bXlob3N0Lm15ZG9tYWluMB4XDTE2MDIwODIyMjQwMloXDTI2MDIwNTIyMjQwMlow
HzEdMBsGA1UEAxMUQ2xpZW50MjE2OENlcnQyYmExYjUwggIiMA0GCSqGSIb3DQEB
AQUAA4ICDwAwggIKAoICAQDdrqSrnvSli7Bnch1tNa0JIpmA0chxmEDcQgvj67kW
S6LEFi3RZ9J9XUUihKFrRJ7fe6HfyyaZkVKfx0ZC2eLb88bLryWSoJjQfigS1wkM
2Kh+DVbqM1g40/bnraM6xmykGwi1hbf04u/+R+fWF2vnKkzUrvf8fe3YM4QcaUPc
kr/sFvvWfxVGS8AdolPNzv7h7qanHIJy19r2rNxpAv/ZA0D5EDclK+FKeKLAtfrc
NLQPmI1l4NJ5+thvpuB5sK7/7/g/kzL31+sCmIvIng+vg+jmRGBEGuWEPV0rzmnd
TcRC7b0yp5NwuKj90/dCF5PkEJvpzIuLPdrzEmn0zFCJQ4Jpp4xdNx7aSOtr8v+O
ZrqsELeJVlskiGjFEGVEJiRE2eHcuicjbqKMkZ5e+x1D04Btx5ihHrrEC1jyyJpf
EAa2seXrEfObGIXP66ORb+VPfqSE3MSCC8Mbd2Xg/fiGhz+bRXFVQAnGcEtYM3mg
0R2h8jsyuXCrRjjGGngIo18WPLtT8w0Zr/OL8vyl/oCqyfmoNTGttTEVHB49oojB
kJBD+gTj+Co4u1g+WBrq4boKFm/m2xNqjvg22i5QCXDQ/fwXCVAyqRJ8n/sxsWOL
0A8bJYNNozBmttzl9noAC+jJTX6WleCLY3hoYGaQ8m7YcdHwKK2YIjRjEA9Yxl87
bwIDAQABo4IBYzCCAV8wCQYDVR0TBAIwADAtBglghkgBhvhCAQ0EIBYeRWFzeS1S
U0EgR2VuZXJhdGVkIENlcnRpZmljYXRlMB0GA1UdDgQWBBTgmiWk8crN5yiQD6Di
iDMof7UBqTCB4QYDVR0jBIHZMIHWgBQSzWAE0qCAnnDtxpm4eyzGUv0ZoaGBsqSB
rzCBrDELMAkGA1UEBhMCVVMxCzAJBgNVBAgTAk9IMREwDwYDVQQHEwhDb2x1bWJ1
czESMBAGA1UEChMJVmlraW5nVlBOMR0wGwYDVQQLExRNeU9yZ2FuaXphdGlvbmFs
VW5pdDEVMBMGA1UEAxMMVmlraW5nVlBOIENBMRAwDgYDVQQpEwdFYXN5UlNBMSEw
HwYJKoZIhvcNAQkBFhJtZUBteWhvc3QubXlkb21haW6CCQDPNYXugL8qPjATBgNV
HSUEDDAKBggrBgEFBQcDAjALBgNVHQ8EBAMCB4AwDQYJKoZIhvcNAQEEBQADggIB
AFbHIMfGNf8kYA787G+5KRS4DhA1taMS+Yjlr9dbQx2odavNcP5f/gVkA0RuMwM1
ZxxQdM88klrqekcuCh1ATzD4ghvQ9IzMOJfGFX6q8ZRhoiaZMX0KdxKXOZP1LF83
T3NxMJfDiIuhzIx2XciwlJwN0HqazzR48dNtcRhI6vzkPcxIAA755e3yv2TBxpqa
l035Xx5SVlI8L8ickHJH0/W/0vkkoUvBtICkWEH8Uw7kpfnhm0sy+4rNEZCikZBm
nPbS8Ti5ep7xR5vHcH6V0QUCZj/aS8sTTqbYoxxefRJT8F7fDKh0oFcUGvIJSlyY
DYUhzVgHTG04e08zcepvPvdjJftoxNKMLxXZZd/ri4I0K3u6WfqF+btwIKDFrRVg
ySctfrSOAJR78RFUo0KCvB82Bzmo43YdeDmqvnsD1Z/4uU7w9JOPIr2z1sm/TUg0
dumujRk8UGJh1MT7HR3p1jn/00UQ0lvqp8URlDbmsC+XNektGu99/VTHwh0J2RxF
oBisiJKN20hQ8niKYE3jnqbOJYaJfgfheFxEW3eREFsuceVfCBIOPakRYGGX0V52
zz6YT/QcQ3AJKzJSrfNMQDfBDw2ia9MCh42YsClicattEvm3SCbPc0A8XowdjU9E
W5M5tRomIt7P3c6kre+yuEhibbIctCg7A079IGogo2K6
-----END CERTIFICATE-----
