Certificate:
    Data:
        Version: 3 (0x2)
        Serial Number: 7183 (0x1c0f)
    Signature Algorithm: md5WithRSAEncryption
        Issuer: C=US, ST=OH, L=Columbus, O=VikingVPN, OU=MyOrganizationalUnit, CN=VikingVPN CA/name=EasyRSA/emailAddress=me@myhost.mydomain
        Validity
            Not Before: Feb 13 22:57:09 2016 GMT
            Not After : Feb 10 22:57:09 2026 GMT
        Subject: CN=Client21Cert613267
        Subject Public Key Info:
            Public Key Algorithm: rsaEncryption
                Public-Key: (4096 bit)
                Modulus:
                    00:cd:59:72:2f:35:66:57:dc:a9:eb:3d:7f:40:56:
                    19:52:49:61:56:2f:ea:ac:19:fc:80:01:39:db:75:
                    90:01:63:51:1b:ca:ea:c4:5a:16:3f:6d:6c:16:91:
                    60:58:d2:b8:f1:1c:97:f1:d8:9e:7d:fd:74:d9:e8:
                    55:46:59:ae:d6:a6:f0:27:3c:60:a8:6e:f1:9e:b3:
                    cf:b6:fd:b3:3a:c1:f8:a0:f9:f1:58:c6:3d:ae:8f:
                    6a:a2:19:45:72:1d:08:ae:27:32:32:13:62:0b:a5:
                    22:39:28:df:09:8f:7c:2d:85:d6:e7:42:0a:58:3f:
                    6b:af:ec:63:9d:da:86:02:a5:7f:64:e6:56:61:52:
                    52:31:21:d3:89:36:94:bf:e0:10:73:23:ea:be:78:
                    f7:39:37:d0:07:4e:cc:61:38:52:8a:eb:dd:2f:ea:
                    7d:a1:77:e0:cd:fa:3e:0e:57:c2:f1:87:92:fd:a3:
                    91:38:1f:43:d7:5d:de:1e:ab:c5:2e:e0:e9:52:71:
                    69:57:c5:c2:5f:94:98:8b:0b:1c:53:b6:78:22:a9:
                    28:93:2e:d8:41:07:1e:96:9c:a7:24:6e:ef:3f:80:
                    0b:4b:9b:51:27:89:9e:b3:75:46:d8:f5:ee:83:00:
                    25:78:26:65:16:fd:ff:3e:6d:04:80:59:f8:f3:0c:
                    3f:a4:b7:c9:45:cd:90:c3:aa:66:0d:62:2c:b5:00:
                    78:6c:43:29:3a:9c:c5:e3:a1:23:9a:bd:c3:77:aa:
                    8a:48:0f:70:30:1a:5d:f8:ed:7f:f1:32:83:99:f2:
                    87:35:19:ee:f9:89:75:66:de:5f:ce:17:c5:18:4b:
                    45:fa:ae:6a:0c:4f:60:71:fb:6c:7e:2a:5f:3e:a9:
                    b5:3f:60:d4:54:b7:b9:25:9a:92:bd:ce:8d:86:46:
                    cf:57:ff:5c:55:4b:bd:79:32:fc:26:8e:85:e6:44:
                    9b:43:69:b2:6c:ef:cc:63:49:15:0f:24:ca:66:52:
                    c3:88:81:53:c3:c3:cf:e4:46:fa:b4:a0:c4:be:27:
                    3f:b2:61:62:e6:22:ad:b3:8a:1c:61:94:f6:7f:ed:
                    0e:e3:7b:51:60:c1:72:dd:f8:6f:65:3b:ce:1f:f4:
                    dd:35:2a:50:58:79:b5:5b:d4:b3:53:63:b1:ab:cc:
                    96:81:d4:56:0d:10:20:93:28:e5:7e:21:73:ea:84:
                    b5:d9:29:6e:50:7f:ab:94:f3:ef:e8:e2:62:7a:80:
                    63:b6:0a:fe:fe:59:ba:38:d1:1c:08:07:01:49:ef:
                    e1:55:de:a8:b7:2d:28:2d:cc:ec:ae:eb:3c:28:72:
                    bb:2e:88:a9:74:5a:fb:31:67:b7:81:7d:af:2c:62:
                    64:d0:b9
                Exponent: 65537 (0x10001)
        X509v3 extensions:
            X509v3 Basic Constraints: 
                CA:FALSE
            Netscape Comment: 
                Easy-RSA Generated Certificate
            X509v3 Subject Key Identifier: 
                61:47:E1:92:1B:D6:82:74:9D:E5:0B:31:8E:F1:04:8A:F6:35:6D:8F
            X509v3 Authority Key Identifier: 
                keyid:12:CD:60:04:D2:A0:80:9E:70:ED:C6:99:B8:7B:2C:C6:52:FD:19:A1
                DirName:/C=US/ST=OH/L=Columbus/O=VikingVPN/OU=MyOrganizationalUnit/CN=VikingVPN CA/name=EasyRSA/emailAddress=me@myhost.mydomain
                serial:CF:35:85:EE:80:BF:2A:3E

            X509v3 Extended Key Usage: 
                TLS Web Client Authentication
            X509v3 Key Usage: 
                Digital Signature
    Signature Algorithm: md5WithRSAEncryption
         1b:df:dc:4a:c8:5e:9c:79:72:6e:60:3a:a8:a1:46:e4:81:41:
         d4:0e:33:59:97:29:df:df:cb:40:ac:e4:92:51:74:02:ac:62:
         01:74:e1:7a:bf:8b:3a:cf:3f:c5:ec:af:36:ad:85:8e:dd:98:
         5f:8f:0d:68:0b:f2:c1:06:87:08:64:3a:ef:02:3e:d8:7d:7f:
         55:90:ff:ab:08:12:da:7a:57:96:04:da:1e:b9:7b:42:3f:25:
         c9:b5:9d:8f:a0:78:9e:0a:eb:e0:39:1e:30:21:e5:5b:8f:83:
         b8:00:9a:24:0a:95:15:d4:8c:32:7f:04:c6:be:e4:5f:d4:c9:
         44:d1:71:aa:ce:3e:f9:4e:64:4e:8a:93:27:f5:39:b5:b3:a7:
         43:07:37:dc:76:5a:e5:ed:0a:4a:e0:59:5f:c2:ed:bb:e0:af:
         98:21:e7:02:68:f1:fe:4c:48:c9:0a:08:e8:6f:c4:ff:90:84:
         8c:8a:6c:cf:a5:95:d6:d6:50:7a:ce:00:85:28:ff:d6:dd:92:
         0f:95:5a:0f:bb:e7:a5:c3:bb:96:e8:b2:5e:cc:ae:53:b3:81:
         f7:41:e3:5d:e8:01:ca:91:3d:ad:9e:c1:a0:6c:87:6a:2f:dc:
         9c:75:d7:02:29:fa:e0:ff:3e:8d:3c:25:53:e1:17:de:86:29:
         55:f9:be:d0:7f:3c:54:fe:41:6b:f0:88:2d:f6:2f:51:ee:03:
         7b:a6:71:5d:04:fa:7b:ff:c9:ba:b1:b0:de:f6:b7:cc:56:27:
         2d:2a:c3:6c:e3:b6:e8:0d:a5:9c:6a:ae:c8:3b:31:14:5b:a9:
         33:5e:02:96:44:df:a3:25:64:f9:c4:8f:b8:a7:b9:6d:9f:6a:
         ff:ab:b7:26:4a:0a:63:94:34:de:23:c3:09:6a:ec:17:a2:fc:
         3d:eb:17:f1:a9:5f:b9:93:12:70:c7:bb:ad:9e:b5:b1:be:84:
         9b:27:eb:d9:e9:d4:2f:3c:31:d8:9d:26:23:08:06:8e:a9:53:
         5e:02:8f:ef:0d:3a:a3:cf:77:eb:89:ae:df:d0:94:a0:17:08:
         b4:a3:25:70:fb:05:ed:4a:b9:86:55:bd:a2:d0:da:2d:26:2b:
         dc:28:e0:d1:8b:34:08:fb:b0:47:54:6e:ab:de:d5:79:38:96:
         96:60:1b:ee:6f:09:36:0a:88:f5:15:4d:13:5a:f5:f1:16:49:
         bf:56:db:c0:0d:61:54:fd:b4:c8:ae:ca:72:82:8d:4d:b9:6b:
         ea:e6:22:31:66:9d:f2:45:d6:c0:c2:9c:f4:f6:59:bb:9d:3c:
         b7:26:79:09:bc:2a:ba:12:6c:22:6c:ea:55:e0:59:28:db:23:
         cb:a3:c8:c1:95:d0:75:ac
-----BEGIN CERTIFICATE-----
MIIGqzCCBJOgAwIBAgICHA8wDQYJKoZIhvcNAQEEBQAwgawxCzAJBgNVBAYTAlVT
MQswCQYDVQQIEwJPSDERMA8GA1UEBxMIQ29sdW1idXMxEjAQBgNVBAoTCVZpa2lu
Z1ZQTjEdMBsGA1UECxMUTXlPcmdhbml6YXRpb25hbFVuaXQxFTATBgNVBAMTDFZp
a2luZ1ZQTiBDQTEQMA4GA1UEKRMHRWFzeVJTQTEhMB8GCSqGSIb3DQEJARYSbWVA
bXlob3N0Lm15ZG9tYWluMB4XDTE2MDIxMzIyNTcwOVoXDTI2MDIxMDIyNTcwOVow
HTEbMBkGA1UEAxMSQ2xpZW50MjFDZXJ0NjEzMjY3MIICIjANBgkqhkiG9w0BAQEF
AAOCAg8AMIICCgKCAgEAzVlyLzVmV9yp6z1/QFYZUklhVi/qrBn8gAE523WQAWNR
G8rqxFoWP21sFpFgWNK48RyX8dieff102ehVRlmu1qbwJzxgqG7xnrPPtv2zOsH4
oPnxWMY9ro9qohlFch0IricyMhNiC6UiOSjfCY98LYXW50IKWD9rr+xjndqGAqV/
ZOZWYVJSMSHTiTaUv+AQcyPqvnj3OTfQB07MYThSiuvdL+p9oXfgzfo+DlfC8YeS
/aOROB9D113eHqvFLuDpUnFpV8XCX5SYiwscU7Z4Iqkoky7YQQcelpynJG7vP4AL
S5tRJ4mes3VG2PXugwAleCZlFv3/Pm0EgFn48ww/pLfJRc2Qw6pmDWIstQB4bEMp
OpzF46Ejmr3Dd6qKSA9wMBpd+O1/8TKDmfKHNRnu+Yl1Zt5fzhfFGEtF+q5qDE9g
cftsfipfPqm1P2DUVLe5JZqSvc6NhkbPV/9cVUu9eTL8Jo6F5kSbQ2mybO/MY0kV
DyTKZlLDiIFTw8PP5Eb6tKDEvic/smFi5iKts4ocYZT2f+0O43tRYMFy3fhvZTvO
H/TdNSpQWHm1W9SzU2Oxq8yWgdRWDRAgkyjlfiFz6oS12SluUH+rlPPv6OJieoBj
tgr+/lm6ONEcCAcBSe/hVd6oty0oLczsrus8KHK7LoipdFr7MWe3gX2vLGJk0LkC
AwEAAaOCAWMwggFfMAkGA1UdEwQCMAAwLQYJYIZIAYb4QgENBCAWHkVhc3ktUlNB
IEdlbmVyYXRlZCBDZXJ0aWZpY2F0ZTAdBgNVHQ4EFgQUYUfhkhvWgnSd5QsxjvEE
ivY1bY8wgeEGA1UdIwSB2TCB1oAUEs1gBNKggJ5w7caZuHssxlL9GaGhgbKkga8w
gawxCzAJBgNVBAYTAlVTMQswCQYDVQQIEwJPSDERMA8GA1UEBxMIQ29sdW1idXMx
EjAQBgNVBAoTCVZpa2luZ1ZQTjEdMBsGA1UECxMUTXlPcmdhbml6YXRpb25hbFVu
aXQxFTATBgNVBAMTDFZpa2luZ1ZQTiBDQTEQMA4GA1UEKRMHRWFzeVJTQTEhMB8G
CSqGSIb3DQEJARYSbWVAbXlob3N0Lm15ZG9tYWluggkAzzWF7oC/Kj4wEwYDVR0l
BAwwCgYIKwYBBQUHAwIwCwYDVR0PBAQDAgeAMA0GCSqGSIb3DQEBBAUAA4ICAQAb
39xKyF6ceXJuYDqooUbkgUHUDjNZlynf38tArOSSUXQCrGIBdOF6v4s6zz/F7K82
rYWO3Zhfjw1oC/LBBocIZDrvAj7YfX9VkP+rCBLaeleWBNoeuXtCPyXJtZ2PoHie
CuvgOR4wIeVbj4O4AJokCpUV1IwyfwTGvuRf1MlE0XGqzj75TmROipMn9Tm1s6dD
Bzfcdlrl7QpK4Flfwu274K+YIecCaPH+TEjJCgjob8T/kISMimzPpZXW1lB6zgCF
KP/W3ZIPlVoPu+elw7uW6LJezK5Ts4H3QeNd6AHKkT2tnsGgbIdqL9ycddcCKfrg
/z6NPCVT4RfehilV+b7QfzxU/kFr8Igt9i9R7gN7pnFdBPp7/8m6sbDe9rfMVict
KsNs47boDaWcaq7IOzEUW6kzXgKWRN+jJWT5xI+4p7ltn2r/q7cmSgpjlDTeI8MJ
auwXovw96xfxqV+5kxJwx7utnrWxvoSbJ+vZ6dQvPDHYnSYjCAaOqVNeAo/vDTqj
z3fria7f0JSgFwi0oyVw+wXtSrmGVb2i0NotJivcKODRizQI+7BHVG6r3tV5OJaW
YBvubwk2Coj1FU0TWvXxFkm/VtvADWFU/bTIrspygo1NuWvq5iIxZp3yRdbAwpz0
9lm7nTy3JnkJvCq6EmwibOpV4Fko2yPLo8jBldB1rA==
-----END CERTIFICATE-----
