Certificate:
    Data:
        Version: 3 (0x2)
        Serial Number: 7203 (0x1c23)
    Signature Algorithm: md5WithRSAEncryption
        Issuer: C=US, ST=OH, L=Columbus, O=VikingVPN, OU=MyOrganizationalUnit, CN=VikingVPN CA/name=EasyRSA/emailAddress=me@myhost.mydomain
        Validity
            Not Before: Feb 16 19:02:25 2016 GMT
            Not After : Feb 13 19:02:25 2026 GMT
        Subject: CN=Client802Certb92767
        Subject Public Key Info:
            Public Key Algorithm: rsaEncryption
                Public-Key: (4096 bit)
                Modulus:
                    00:c9:75:ca:70:23:f4:7b:9e:2f:04:41:3d:c5:46:
                    c9:e5:bb:c0:66:b0:a3:9f:17:92:47:be:1b:02:5b:
                    e0:84:b9:f3:a0:a5:11:24:38:bf:58:7d:61:05:f9:
                    0e:07:39:e6:67:7a:06:b9:f9:79:5b:19:5a:bd:d1:
                    5e:87:29:31:bc:dc:3b:f4:bb:b0:e2:9e:a0:50:db:
                    7c:e3:07:02:05:49:14:5d:cf:c2:14:07:77:dc:f4:
                    e9:dc:30:cb:07:f7:72:29:d7:27:e5:b7:77:e4:2b:
                    87:f6:e8:a8:05:a9:df:7b:aa:64:27:6a:42:0b:4b:
                    67:d6:0b:27:96:c5:eb:44:9e:35:9c:57:d4:85:58:
                    d0:8b:f4:42:c5:88:09:23:b2:3d:87:8e:4b:32:55:
                    6e:4c:ab:51:cb:92:32:f9:68:03:9c:29:1c:0d:16:
                    ab:2c:59:1c:d4:3c:3f:ab:cc:b8:e8:37:7d:af:38:
                    79:08:a4:ec:c8:99:d1:2c:21:bc:7c:4e:61:6f:f3:
                    cb:15:71:17:40:83:60:b8:26:53:45:d9:a2:1d:ae:
                    d5:24:d8:e6:45:bd:79:d0:af:f7:53:62:10:8b:77:
                    e8:60:16:0c:9d:4f:a9:b1:db:c6:c1:73:50:b0:c8:
                    6e:ba:05:f2:40:8c:c3:7d:4b:53:4b:69:69:1d:f9:
                    fd:bd:1e:22:dd:bd:27:bf:5e:25:3a:4b:c9:9a:28:
                    04:13:19:68:81:c8:6b:a8:c6:48:ac:04:89:fe:ed:
                    64:14:2d:90:5c:a2:ae:55:0b:0b:7d:cb:52:3d:0f:
                    40:01:2f:84:a2:73:bb:65:37:1a:60:31:b0:95:c1:
                    8e:60:3a:e7:56:18:e8:37:31:13:48:59:91:83:90:
                    21:fd:b9:55:5a:0d:e8:77:c7:f5:49:90:c2:86:fb:
                    59:e0:74:c2:77:1d:1b:8b:6d:b9:95:5d:3d:d9:a1:
                    27:4b:ba:53:be:9d:1e:3e:af:1c:63:1f:a2:8b:e6:
                    82:2b:68:c3:68:75:65:76:1f:d6:0a:0e:d3:fe:06:
                    19:5b:25:88:8b:bb:8e:90:24:b3:f8:da:d1:72:ec:
                    72:f1:f5:fc:98:40:e6:fb:7c:63:ae:dc:2f:a8:84:
                    5c:df:3a:0f:61:ca:80:48:62:7a:5d:9e:fb:10:23:
                    2e:48:08:13:61:08:10:4e:25:10:d8:fe:45:9d:4a:
                    08:ba:85:30:1e:5e:ac:af:9c:0e:af:93:44:59:01:
                    ea:3c:b9:ec:66:dd:4d:1f:7e:f6:00:f9:3a:10:10:
                    0b:32:0a:48:8d:fc:c6:bf:4d:cc:a1:36:52:e2:81:
                    8d:81:a8:c8:87:bc:1c:08:d4:5b:4f:e8:ba:f7:2a:
                    8a:77:a5
                Exponent: 65537 (0x10001)
        X509v3 extensions:
            X509v3 Basic Constraints: 
                CA:FALSE
            Netscape Comment: 
                Easy-RSA Generated Certificate
            X509v3 Subject Key Identifier: 
                97:CB:0A:06:1E:06:0A:14:27:9A:69:C0:75:38:31:BE:31:7E:46:4F
            X509v3 Authority Key Identifier: 
                keyid:12:CD:60:04:D2:A0:80:9E:70:ED:C6:99:B8:7B:2C:C6:52:FD:19:A1
                DirName:/C=US/ST=OH/L=Columbus/O=VikingVPN/OU=MyOrganizationalUnit/CN=VikingVPN CA/name=EasyRSA/emailAddress=me@myhost.mydomain
                serial:CF:35:85:EE:80:BF:2A:3E

            X509v3 Extended Key Usage: 
                TLS Web Client Authentication
            X509v3 Key Usage: 
                Digital Signature
    Signature Algorithm: md5WithRSAEncryption
         a4:a6:ca:fe:36:a2:5d:3a:91:fd:3c:34:06:d7:a6:37:4e:5d:
         e2:24:30:f9:c3:df:b3:e5:64:f7:5e:2a:05:8b:2b:4a:37:c8:
         18:98:f8:79:d7:ce:f0:2c:c7:64:c4:b3:e7:84:15:20:b6:e9:
         e9:9f:fe:d5:d7:f8:fd:9a:51:fc:63:0b:0d:6e:b0:64:40:33:
         f4:1a:98:42:9f:34:59:fc:21:09:1c:c8:cd:9a:3a:6e:10:a6:
         c2:83:a2:cb:82:ee:5b:37:22:8c:b8:f4:f0:70:93:cc:e4:60:
         83:44:0c:bf:40:77:be:d5:77:16:d0:23:bd:68:e5:53:43:32:
         4f:6d:2a:8a:f4:a3:e2:a5:be:03:d6:74:04:1e:e8:b9:a2:1d:
         29:0a:38:06:ce:df:96:bb:53:f7:08:a4:76:e7:0d:f3:19:6b:
         cb:94:07:c3:dc:cc:ff:ef:2a:59:c2:fa:be:02:8d:3c:5c:aa:
         cf:06:89:6d:7b:e7:be:25:c0:76:64:af:3d:f5:01:1b:2b:e5:
         34:e0:36:ab:b8:69:f8:29:b2:42:ac:c5:ed:15:25:51:55:b9:
         20:61:ca:a0:98:3a:89:05:f1:bf:b5:36:7c:ef:c0:47:8c:ef:
         7d:55:2d:cb:61:d0:1e:5f:59:2d:a0:67:42:75:1a:33:6f:8a:
         9b:ea:46:c9:72:2b:75:6b:3a:96:ec:47:a1:e7:d3:3d:a5:f7:
         66:c7:d1:e6:fe:86:95:22:e3:ce:ce:f0:fa:e4:8d:aa:55:d2:
         4b:e9:cc:98:4a:79:28:19:90:0f:09:79:87:41:94:4d:a4:b4:
         cd:52:9d:f3:10:6b:94:9a:1f:c1:40:74:52:9a:b4:11:9e:6d:
         3f:70:4a:80:01:fb:87:f1:f5:18:2b:43:32:0b:88:de:35:e8:
         da:78:54:b3:1c:ac:8f:a7:12:85:a3:c9:35:4f:1a:09:44:61:
         79:84:a5:dd:fd:4c:49:e2:1e:9e:19:79:ee:48:f0:7c:57:ac:
         0a:97:32:8e:e7:3a:d5:f9:67:24:dd:21:95:48:f9:64:74:66:
         05:70:50:29:b0:1f:8d:a6:7e:b3:53:b1:c7:98:ff:35:17:3e:
         53:fc:1a:0d:1e:97:16:05:4d:7d:f2:ba:79:bd:1d:83:ce:da:
         ba:65:d6:da:9b:4b:25:0f:b8:1f:3c:7f:46:da:f3:21:ad:6f:
         75:04:a8:20:0e:f2:23:d1:81:e7:26:99:50:34:55:8d:7f:c5:
         c2:95:c9:39:b5:0b:8c:69:0a:f8:b2:9b:26:97:8c:47:27:ae:
         c2:c9:f6:b7:8a:62:a1:98:a8:25:78:ff:af:ad:f1:8f:86:39:
         75:8c:71:2a:e5:fa:4c:58
-----BEGIN CERTIFICATE-----
MIIGrDCCBJSgAwIBAgICHCMwDQYJKoZIhvcNAQEEBQAwgawxCzAJBgNVBAYTAlVT
MQswCQYDVQQIEwJPSDERMA8GA1UEBxMIQ29sdW1idXMxEjAQBgNVBAoTCVZpa2lu
Z1ZQTjEdMBsGA1UECxMUTXlPcmdhbml6YXRpb25hbFVuaXQxFTATBgNVBAMTDFZp
a2luZ1ZQTiBDQTEQMA4GA1UEKRMHRWFzeVJTQTEhMB8GCSqGSIb3DQEJARYSbWVA
bXlob3N0Lm15ZG9tYWluMB4XDTE2MDIxNjE5MDIyNVoXDTI2MDIxMzE5MDIyNVow
HjEcMBoGA1UEAxMTQ2xpZW50ODAyQ2VydGI5Mjc2NzCCAiIwDQYJKoZIhvcNAQEB
BQADggIPADCCAgoCggIBAMl1ynAj9HueLwRBPcVGyeW7wGawo58Xkke+GwJb4IS5
86ClESQ4v1h9YQX5Dgc55md6Brn5eVsZWr3RXocpMbzcO/S7sOKeoFDbfOMHAgVJ
FF3PwhQHd9z06dwwywf3cinXJ+W3d+Qrh/boqAWp33uqZCdqQgtLZ9YLJ5bF60Se
NZxX1IVY0Iv0QsWICSOyPYeOSzJVbkyrUcuSMvloA5wpHA0WqyxZHNQ8P6vMuOg3
fa84eQik7MiZ0SwhvHxOYW/zyxVxF0CDYLgmU0XZoh2u1STY5kW9edCv91NiEIt3
6GAWDJ1PqbHbxsFzULDIbroF8kCMw31LU0tpaR35/b0eIt29J79eJTpLyZooBBMZ
aIHIa6jGSKwEif7tZBQtkFyirlULC33LUj0PQAEvhKJzu2U3GmAxsJXBjmA651YY
6DcxE0hZkYOQIf25VVoN6HfH9UmQwob7WeB0wncdG4ttuZVdPdmhJ0u6U76dHj6v
HGMfoovmgitow2h1ZXYf1goO0/4GGVsliIu7jpAks/ja0XLscvH1/JhA5vt8Y67c
L6iEXN86D2HKgEhiel2e+xAjLkgIE2EIEE4lENj+RZ1KCLqFMB5erK+cDq+TRFkB
6jy57GbdTR9+9gD5OhAQCzIKSI38xr9NzKE2UuKBjYGoyIe8HAjUW0/ouvcqinel
AgMBAAGjggFjMIIBXzAJBgNVHRMEAjAAMC0GCWCGSAGG+EIBDQQgFh5FYXN5LVJT
QSBHZW5lcmF0ZWQgQ2VydGlmaWNhdGUwHQYDVR0OBBYEFJfLCgYeBgoUJ5ppwHU4
Mb4xfkZPMIHhBgNVHSMEgdkwgdaAFBLNYATSoICecO3Gmbh7LMZS/RmhoYGypIGv
MIGsMQswCQYDVQQGEwJVUzELMAkGA1UECBMCT0gxETAPBgNVBAcTCENvbHVtYnVz
MRIwEAYDVQQKEwlWaWtpbmdWUE4xHTAbBgNVBAsTFE15T3JnYW5pemF0aW9uYWxV
bml0MRUwEwYDVQQDEwxWaWtpbmdWUE4gQ0ExEDAOBgNVBCkTB0Vhc3lSU0ExITAf
BgkqhkiG9w0BCQEWEm1lQG15aG9zdC5teWRvbWFpboIJAM81he6Avyo+MBMGA1Ud
JQQMMAoGCCsGAQUFBwMCMAsGA1UdDwQEAwIHgDANBgkqhkiG9w0BAQQFAAOCAgEA
pKbK/jaiXTqR/Tw0BtemN05d4iQw+cPfs+Vk914qBYsrSjfIGJj4edfO8CzHZMSz
54QVILbp6Z/+1df4/ZpR/GMLDW6wZEAz9BqYQp80WfwhCRzIzZo6bhCmwoOiy4Lu
WzcijLj08HCTzORgg0QMv0B3vtV3FtAjvWjlU0MyT20qivSj4qW+A9Z0BB7ouaId
KQo4Bs7flrtT9wikducN8xlry5QHw9zM/+8qWcL6vgKNPFyqzwaJbXvnviXAdmSv
PfUBGyvlNOA2q7hp+CmyQqzF7RUlUVW5IGHKoJg6iQXxv7U2fO/AR4zvfVUty2HQ
Hl9ZLaBnQnUaM2+Km+pGyXIrdWs6luxHoefTPaX3ZsfR5v6GlSLjzs7w+uSNqlXS
S+nMmEp5KBmQDwl5h0GUTaS0zVKd8xBrlJofwUB0Upq0EZ5tP3BKgAH7h/H1GCtD
MguI3jXo2nhUsxysj6cShaPJNU8aCURheYSl3f1MSeIenhl57kjwfFesCpcyjuc6
1flnJN0hlUj5ZHRmBXBQKbAfjaZ+s1Oxx5j/NRc+U/waDR6XFgVNffK6eb0dg87a
umXW2ptLJQ+4Hzx/RtrzIa1vdQSoIA7yI9GB5yaZUDRVjX/FwpXJObULjGkK+LKb
JpeMRyeuwsn2t4pioZioJXj/r63xj4Y5dYxxKuX6TFg=
-----END CERTIFICATE-----
