Certificate:
    Data:
        Version: 3 (0x2)
        Serial Number: 7208 (0x1c28)
    Signature Algorithm: md5WithRSAEncryption
        Issuer: C=US, ST=OH, L=Columbus, O=VikingVPN, OU=MyOrganizationalUnit, CN=VikingVPN CA/name=EasyRSA/emailAddress=me@myhost.mydomain
        Validity
            Not Before: Feb 17 18:04:17 2016 GMT
            Not After : Feb 14 18:04:17 2026 GMT
        Subject: CN=Client2181Certe207c1
        Subject Public Key Info:
            Public Key Algorithm: rsaEncryption
                Public-Key: (4096 bit)
                Modulus:
                    00:d0:34:59:7f:55:5c:eb:78:da:c7:b5:63:fa:6b:
                    4f:ab:da:42:d0:95:25:c7:5b:fd:10:1f:91:ca:e6:
                    b4:f8:c0:18:54:ee:7b:7c:27:a7:1e:fc:a9:11:da:
                    10:ed:15:26:7f:31:5d:15:b0:24:22:d5:55:0f:b6:
                    bb:7a:9d:e3:91:a6:c0:92:f8:93:94:ae:73:6e:ec:
                    4e:26:c5:0a:43:96:e9:b5:f8:a3:8f:f5:73:15:d6:
                    5b:b0:87:f5:1e:8a:f6:b0:fe:9d:f1:ea:cf:a8:67:
                    e9:75:c7:44:ec:5f:eb:18:dd:80:28:32:db:db:35:
                    df:ad:30:aa:a2:50:e7:98:f8:db:b8:79:d7:2c:42:
                    cf:c1:18:69:f8:1d:95:23:35:1f:1a:49:01:83:97:
                    ce:c0:cc:1c:a8:37:58:9d:88:7f:6f:79:7e:71:c2:
                    63:66:75:c0:38:77:39:98:f9:08:57:c7:f5:17:6a:
                    6b:b2:e0:d3:2d:7d:f3:f5:fa:31:59:91:2d:79:6d:
                    08:98:21:8a:c3:00:af:f1:e2:e7:bf:1f:18:d3:7c:
                    0f:a8:7e:a2:9a:2d:29:0c:ff:68:ce:d5:82:16:69:
                    36:a5:45:21:4c:c0:69:d8:88:43:44:43:b8:f3:a8:
                    7c:87:0b:3d:f9:4e:fc:29:e2:91:83:43:09:4a:e8:
                    fc:00:7c:31:59:a5:90:94:4f:0e:97:08:e3:17:da:
                    e3:ed:36:49:d0:dd:59:74:da:df:aa:6c:29:86:29:
                    1e:20:d8:01:40:86:c7:5c:a9:a8:0a:6e:ff:b2:61:
                    1d:f4:74:6b:19:78:c1:8a:26:d6:07:b1:39:b3:e0:
                    de:f2:e7:c3:de:c3:35:89:07:82:64:72:45:07:40:
                    9d:7c:d1:5e:9b:a1:6b:41:b5:4e:ef:42:91:52:02:
                    52:d8:53:0b:35:5d:c8:c0:61:8f:6d:13:cb:4d:b3:
                    c9:c7:25:f0:8e:7a:ce:84:20:2b:87:67:a5:3c:60:
                    8b:cd:f0:80:8b:eb:80:eb:8c:fc:c5:5f:e4:1d:16:
                    a7:30:cc:8f:ce:cf:73:d8:4e:54:b2:6b:fd:0c:ef:
                    50:58:47:c1:7a:8a:da:f8:42:2b:e6:a5:0d:5b:2f:
                    40:10:4b:ae:90:1c:97:67:ee:1b:fc:a2:d3:e6:de:
                    46:3f:67:88:f9:7e:94:81:33:9b:62:ac:34:2a:94:
                    17:b5:f5:d4:30:1e:5a:b5:03:65:d7:1e:fb:2e:34:
                    3a:a3:70:59:48:10:a0:41:9b:59:66:d0:e9:7a:1d:
                    d9:57:db:11:46:e9:8f:e6:18:23:4c:b4:74:d1:65:
                    36:98:cb:7f:1f:df:e4:5c:be:69:39:43:14:d4:51:
                    d4:ef:25
                Exponent: 65537 (0x10001)
        X509v3 extensions:
            X509v3 Basic Constraints: 
                CA:FALSE
            Netscape Comment: 
                Easy-RSA Generated Certificate
            X509v3 Subject Key Identifier: 
                5D:63:B1:1A:C3:52:63:55:02:53:81:26:B9:29:EB:5E:D9:50:E0:D3
            X509v3 Authority Key Identifier: 
                keyid:12:CD:60:04:D2:A0:80:9E:70:ED:C6:99:B8:7B:2C:C6:52:FD:19:A1
                DirName:/C=US/ST=OH/L=Columbus/O=VikingVPN/OU=MyOrganizationalUnit/CN=VikingVPN CA/name=EasyRSA/emailAddress=me@myhost.mydomain
                serial:CF:35:85:EE:80:BF:2A:3E

            X509v3 Extended Key Usage: 
                TLS Web Client Authentication
            X509v3 Key Usage: 
                Digital Signature
    Signature Algorithm: md5WithRSAEncryption
         8e:fa:f9:e2:3a:1c:3f:d2:43:73:fd:75:cc:51:31:4e:90:05:
         ba:e2:05:32:fc:b9:d1:73:1a:c7:62:d8:ae:ad:7c:f1:53:11:
         26:35:44:f1:06:44:7b:95:f2:cf:cc:e1:9c:69:c3:d3:9c:09:
         d6:4e:de:b9:5c:67:86:a6:47:34:83:f1:eb:be:a0:a4:ca:6a:
         81:46:23:c8:f5:ed:9e:39:b1:fe:19:3d:0f:59:17:b9:97:e5:
         22:79:1a:7d:fc:bd:de:19:d6:1c:55:99:e7:47:ad:21:b6:71:
         d9:15:5e:d3:01:bc:a8:94:a8:08:c6:fc:48:5e:b3:b8:ae:3e:
         0b:7e:81:38:9f:2c:54:8a:e7:4a:00:81:2b:23:7f:cc:6f:77:
         2a:50:24:6f:40:1b:9f:9f:61:2c:c2:d8:c7:17:6d:2e:bd:f7:
         1b:09:94:86:75:cd:7d:1d:b9:3b:85:04:e3:59:df:16:dc:fc:
         b0:6c:a4:c0:1c:ea:d1:31:e4:f9:cc:e6:a2:ce:6a:75:9d:f8:
         3e:5b:b0:cd:1a:f9:78:fa:aa:94:0e:ff:db:17:46:ae:c9:a2:
         bb:64:00:70:bc:17:12:9e:07:b4:94:49:63:a4:9e:70:bc:66:
         40:25:ca:7c:d2:18:7d:54:3c:e5:7d:4d:63:9a:1b:a4:ea:45:
         8e:b7:e5:46:06:31:b4:93:69:8d:4f:31:c2:ba:e8:c0:1e:09:
         36:62:fd:05:fb:e2:d2:78:a9:fd:49:66:ee:42:da:ee:79:34:
         21:de:9c:03:da:7a:1b:ef:c0:e3:d4:ce:e7:f7:72:e8:e6:24:
         95:c7:12:9d:11:94:75:e2:01:c0:2f:8c:ac:0a:b1:77:a7:2e:
         b1:1d:36:55:db:f6:6a:f7:d6:0b:c3:e3:dc:58:4f:f6:ba:ed:
         b8:78:36:93:fc:86:85:ba:1c:f7:a7:e1:61:ce:69:e1:98:b3:
         de:be:7c:f3:9f:15:fa:0d:bb:33:76:74:2c:b5:90:ee:c4:ea:
         6c:38:1d:24:f6:5e:7a:d6:1f:30:f6:26:7b:0a:00:31:95:58:
         8e:6b:94:a0:58:9b:42:86:31:3c:91:e9:03:55:bd:bb:0d:38:
         1f:2f:26:77:f3:ee:e5:bc:a3:2e:75:ab:30:a2:f1:a6:11:6e:
         ce:85:59:9d:e5:58:62:c0:5a:47:70:e6:de:d2:d4:01:44:21:
         dc:61:ea:07:91:0b:fe:c2:5a:63:7c:f8:c9:5f:4c:b6:e9:c1:
         3d:b7:5b:f1:e0:56:8c:d8:c2:cc:c6:f1:ff:42:0a:14:52:0a:
         a9:d0:1b:a3:9f:4e:47:0d:29:e2:9b:50:b1:33:86:e1:85:d6:
         e2:ab:93:f4:56:2d:25:20
-----BEGIN CERTIFICATE-----
MIIGrTCCBJWgAwIBAgICHCgwDQYJKoZIhvcNAQEEBQAwgawxCzAJBgNVBAYTAlVT
MQswCQYDVQQIEwJPSDERMA8GA1UEBxMIQ29sdW1idXMxEjAQBgNVBAoTCVZpa2lu
Z1ZQTjEdMBsGA1UECxMUTXlPcmdhbml6YXRpb25hbFVuaXQxFTATBgNVBAMTDFZp
a2luZ1ZQTiBDQTEQMA4GA1UEKRMHRWFzeVJTQTEhMB8GCSqGSIb3DQEJARYSbWVA
bXlob3N0Lm15ZG9tYWluMB4XDTE2MDIxNzE4MDQxN1oXDTI2MDIxNDE4MDQxN1ow
HzEdMBsGA1UEAxMUQ2xpZW50MjE4MUNlcnRlMjA3YzEwggIiMA0GCSqGSIb3DQEB
AQUAA4ICDwAwggIKAoICAQDQNFl/VVzreNrHtWP6a0+r2kLQlSXHW/0QH5HK5rT4
wBhU7nt8J6ce/KkR2hDtFSZ/MV0VsCQi1VUPtrt6neORpsCS+JOUrnNu7E4mxQpD
lum1+KOP9XMV1luwh/Ueivaw/p3x6s+oZ+l1x0TsX+sY3YAoMtvbNd+tMKqiUOeY
+Nu4edcsQs/BGGn4HZUjNR8aSQGDl87AzByoN1idiH9veX5xwmNmdcA4dzmY+QhX
x/UXamuy4NMtffP1+jFZkS15bQiYIYrDAK/x4ue/HxjTfA+ofqKaLSkM/2jO1YIW
aTalRSFMwGnYiENEQ7jzqHyHCz35Tvwp4pGDQwlK6PwAfDFZpZCUTw6XCOMX2uPt
NknQ3Vl02t+qbCmGKR4g2AFAhsdcqagKbv+yYR30dGsZeMGKJtYHsTmz4N7y58Pe
wzWJB4JkckUHQJ180V6boWtBtU7vQpFSAlLYUws1XcjAYY9tE8tNs8nHJfCOes6E
ICuHZ6U8YIvN8ICL64DrjPzFX+QdFqcwzI/Oz3PYTlSya/0M71BYR8F6itr4Qivm
pQ1bL0AQS66QHJdn7hv8otPm3kY/Z4j5fpSBM5tirDQqlBe19dQwHlq1A2XXHvsu
NDqjcFlIEKBBm1lm0Ol6HdlX2xFG6Y/mGCNMtHTRZTaYy38f3+Rcvmk5QxTUUdTv
JQIDAQABo4IBYzCCAV8wCQYDVR0TBAIwADAtBglghkgBhvhCAQ0EIBYeRWFzeS1S
U0EgR2VuZXJhdGVkIENlcnRpZmljYXRlMB0GA1UdDgQWBBRdY7Eaw1JjVQJTgSa5
Kete2VDg0zCB4QYDVR0jBIHZMIHWgBQSzWAE0qCAnnDtxpm4eyzGUv0ZoaGBsqSB
rzCBrDELMAkGA1UEBhMCVVMxCzAJBgNVBAgTAk9IMREwDwYDVQQHEwhDb2x1bWJ1
czESMBAGA1UEChMJVmlraW5nVlBOMR0wGwYDVQQLExRNeU9yZ2FuaXphdGlvbmFs
VW5pdDEVMBMGA1UEAxMMVmlraW5nVlBOIENBMRAwDgYDVQQpEwdFYXN5UlNBMSEw
HwYJKoZIhvcNAQkBFhJtZUBteWhvc3QubXlkb21haW6CCQDPNYXugL8qPjATBgNV
HSUEDDAKBggrBgEFBQcDAjALBgNVHQ8EBAMCB4AwDQYJKoZIhvcNAQEEBQADggIB
AI76+eI6HD/SQ3P9dcxRMU6QBbriBTL8udFzGsdi2K6tfPFTESY1RPEGRHuV8s/M
4Zxpw9OcCdZO3rlcZ4amRzSD8eu+oKTKaoFGI8j17Z45sf4ZPQ9ZF7mX5SJ5Gn38
vd4Z1hxVmedHrSG2cdkVXtMBvKiUqAjG/Ehes7iuPgt+gTifLFSK50oAgSsjf8xv
dypQJG9AG5+fYSzC2McXbS699xsJlIZ1zX0duTuFBONZ3xbc/LBspMAc6tEx5PnM
5qLOanWd+D5bsM0a+Xj6qpQO/9sXRq7JortkAHC8FxKeB7SUSWOknnC8ZkAlynzS
GH1UPOV9TWOaG6TqRY635UYGMbSTaY1PMcK66MAeCTZi/QX74tJ4qf1JZu5C2u55
NCHenAPaehvvwOPUzuf3cujmJJXHEp0RlHXiAcAvjKwKsXenLrEdNlXb9mr31gvD
49xYT/a67bh4NpP8hoW6HPen4WHOaeGYs96+fPOfFfoNuzN2dCy1kO7E6mw4HST2
XnrWHzD2JnsKADGVWI5rlKBYm0KGMTyR6QNVvbsNOB8vJnfz7uW8oy51qzCi8aYR
bs6FWZ3lWGLAWkdw5t7S1AFEIdxh6geRC/7CWmN8+MlfTLbpwT23W/HgVozYwszG
8f9CChRSCqnQG6OfTkcNKeKbULEzhuGF1uKrk/RWLSUg
-----END CERTIFICATE-----
