Certificate:
    Data:
        Version: 3 (0x2)
        Serial Number: 7209 (0x1c29)
    Signature Algorithm: md5WithRSAEncryption
        Issuer: C=US, ST=OH, L=Columbus, O=VikingVPN, OU=MyOrganizationalUnit, CN=VikingVPN CA/name=EasyRSA/emailAddress=me@myhost.mydomain
        Validity
            Not Before: Feb 17 18:25:18 2016 GMT
            Not After : Feb 14 18:25:18 2026 GMT
        Subject: CN=Client2181Cert6b2556
        Subject Public Key Info:
            Public Key Algorithm: rsaEncryption
                Public-Key: (4096 bit)
                Modulus:
                    00:b1:31:5a:a7:d2:24:7c:02:91:70:ec:cd:5d:56:
                    c7:f1:3b:13:3e:89:d9:b4:33:66:77:fe:fa:ad:d7:
                    95:df:55:4b:7b:ff:9a:33:2f:7c:2a:ef:e4:3a:de:
                    5e:2c:1a:c8:b5:cf:9f:7c:21:bd:4f:72:b7:ce:ce:
                    0d:4e:9f:40:67:9c:32:83:79:dd:17:41:95:b7:41:
                    47:1e:8b:ed:c7:dd:3e:bb:31:2b:92:49:07:cd:5c:
                    1d:8d:d9:71:00:70:97:9c:03:b7:a0:14:67:89:b2:
                    0b:e0:27:f3:16:43:ae:d2:87:21:58:55:5d:ca:4a:
                    7b:7b:ab:50:8e:e0:6f:75:c6:10:ce:de:d2:82:08:
                    5d:ef:10:b2:29:61:1c:2b:1f:07:b4:68:53:33:7a:
                    dc:6d:54:da:43:28:82:33:94:30:95:b0:f8:73:1e:
                    46:16:97:14:f9:0e:77:02:ed:f5:f5:02:e5:7f:60:
                    b7:bc:19:f6:fc:74:82:08:89:df:ed:79:03:3f:ec:
                    c7:ef:d4:ac:da:49:97:45:94:a4:78:ea:9f:58:44:
                    b9:eb:3b:8a:6e:f2:9f:78:30:60:c8:92:3d:64:eb:
                    4e:87:34:d5:c3:87:cc:c4:e7:eb:4a:1b:1f:43:d0:
                    01:5e:e5:58:f9:b9:4c:a4:2b:8a:7d:65:a7:33:81:
                    27:1c:35:bd:29:6d:7c:49:d2:78:2b:c1:16:7f:b5:
                    4f:ab:93:60:27:a2:aa:41:13:cf:6e:9e:f3:fe:aa:
                    8b:1c:47:01:7e:5a:d3:fc:4e:e8:9c:a6:9c:ce:58:
                    ed:6f:9a:7a:fe:27:c3:4d:e0:f3:94:65:26:02:37:
                    19:9c:53:77:dd:e4:2e:0b:ee:95:c0:d9:e0:76:79:
                    b5:ba:d8:b4:a5:18:75:46:d0:79:f6:88:60:a6:59:
                    f0:62:2b:b7:b7:15:1b:1c:64:93:d4:ea:7d:8d:4c:
                    e2:ca:0d:f6:15:c0:34:58:7d:67:a1:c7:fb:0a:20:
                    d3:05:97:54:8b:a5:52:f5:69:64:6c:fd:80:d7:61:
                    36:0b:97:df:33:c2:b2:da:ec:2a:97:6c:e5:48:dd:
                    8a:be:db:95:bd:87:fb:1b:80:3f:c4:70:ac:74:4b:
                    dc:b2:f7:f9:d7:6e:cc:4d:97:5d:85:72:44:57:f8:
                    2a:32:a3:67:15:6e:8f:2d:08:1c:76:b8:58:b5:dc:
                    18:39:55:97:cc:94:71:0b:1e:85:9b:f9:4e:e6:b8:
                    b9:31:03:84:3c:17:ab:6b:da:bb:44:dc:97:c0:8f:
                    ff:ba:31:44:0c:f3:3b:4f:97:54:d4:ca:9c:7f:cb:
                    b9:64:5c:e4:d9:ae:59:46:3a:14:a8:06:c5:67:ba:
                    a2:4f:fb
                Exponent: 65537 (0x10001)
        X509v3 extensions:
            X509v3 Basic Constraints: 
                CA:FALSE
            Netscape Comment: 
                Easy-RSA Generated Certificate
            X509v3 Subject Key Identifier: 
                7F:9F:6D:1D:49:3E:9B:66:6D:29:14:67:2D:BC:9F:30:6B:F7:A7:87
            X509v3 Authority Key Identifier: 
                keyid:12:CD:60:04:D2:A0:80:9E:70:ED:C6:99:B8:7B:2C:C6:52:FD:19:A1
                DirName:/C=US/ST=OH/L=Columbus/O=VikingVPN/OU=MyOrganizationalUnit/CN=VikingVPN CA/name=EasyRSA/emailAddress=me@myhost.mydomain
                serial:CF:35:85:EE:80:BF:2A:3E

            X509v3 Extended Key Usage: 
                TLS Web Client Authentication
            X509v3 Key Usage: 
                Digital Signature
    Signature Algorithm: md5WithRSAEncryption
         46:41:01:6a:80:9f:83:83:e4:5c:1a:42:db:32:23:ab:28:3f:
         d4:e7:03:46:f4:9d:6a:4e:1d:c1:83:dd:9a:4b:ac:a1:9d:ed:
         1c:9b:35:bd:84:d7:8c:d7:d9:dc:1b:19:2d:db:6a:92:b3:7f:
         94:d1:e8:9b:40:db:03:b9:47:88:2c:d2:54:89:d1:52:3d:c1:
         af:0c:5d:36:17:72:22:ca:b0:62:62:5d:1a:4d:87:9e:d9:cd:
         ca:7e:ee:d5:06:c9:99:42:de:02:ef:be:5a:18:6c:d9:d1:cb:
         45:f1:ed:dc:99:c8:60:fd:bd:a0:b6:f1:af:98:71:d3:b9:f2:
         7a:55:2c:90:33:69:e8:e9:e3:ee:3d:00:c1:3e:42:9e:c0:1a:
         4a:cf:51:29:f1:5e:85:80:da:f6:6f:e8:99:b5:c1:9c:ed:71:
         29:28:e8:6c:23:b2:65:92:27:fa:9c:5d:bc:fe:e0:14:60:bd:
         3b:2d:15:1d:cc:dd:17:b8:a4:80:5e:f3:81:26:8b:fb:70:df:
         6d:88:9b:aa:fe:0f:97:6b:0d:aa:36:6f:3c:f7:2e:28:e7:35:
         79:51:0b:3e:f5:20:ff:3e:44:5e:6b:d2:54:eb:86:19:d3:0d:
         ef:59:a8:29:16:a1:75:cc:a9:39:ab:2d:f4:5d:58:6b:68:b1:
         d5:9d:2d:26:5e:05:c0:3d:c3:87:a6:ae:a2:5d:15:8a:90:26:
         f3:ad:92:78:1f:04:7e:72:52:e7:63:d1:ea:6e:8f:de:8e:2b:
         2a:11:d5:be:b9:72:c3:0c:55:f5:08:13:20:5e:98:a8:b8:11:
         42:64:4b:ae:c3:88:85:b4:19:4b:d7:6f:8f:a6:4d:3c:91:ba:
         13:0f:f0:30:f8:56:f6:c0:00:a6:88:7e:18:f0:dd:8d:9c:21:
         39:5b:79:85:6d:70:a0:a6:67:17:63:a7:67:13:a3:3d:11:4f:
         64:cd:68:fb:fe:f5:99:a8:af:e0:bf:e0:c7:c6:56:2f:8b:15:
         43:f3:1b:45:66:78:c3:78:f9:49:12:80:f8:18:2c:08:15:a0:
         21:da:37:10:2f:dc:26:18:77:57:f6:fa:d0:44:aa:cc:43:e2:
         b5:e7:f6:31:4f:4e:34:43:72:24:a8:f8:0c:48:73:ff:c8:d0:
         60:e7:0f:c3:a2:33:99:5c:fa:b2:ca:6c:86:ba:e7:f8:e0:b5:
         9c:89:6c:4c:b0:58:7b:51:c9:70:81:94:30:98:1d:22:73:80:
         9c:b4:d2:73:5b:1e:6f:02:e5:71:07:cc:a1:c0:3b:b0:56:72:
         18:5c:35:b6:85:de:77:2c:83:ff:4d:3d:98:1a:9c:64:13:00:
         3e:64:71:55:49:89:bc:ef
-----BEGIN CERTIFICATE-----
MIIGrTCCBJWgAwIBAgICHCkwDQYJKoZIhvcNAQEEBQAwgawxCzAJBgNVBAYTAlVT
MQswCQYDVQQIEwJPSDERMA8GA1UEBxMIQ29sdW1idXMxEjAQBgNVBAoTCVZpa2lu
Z1ZQTjEdMBsGA1UECxMUTXlPcmdhbml6YXRpb25hbFVuaXQxFTATBgNVBAMTDFZp
a2luZ1ZQTiBDQTEQMA4GA1UEKRMHRWFzeVJTQTEhMB8GCSqGSIb3DQEJARYSbWVA
bXlob3N0Lm15ZG9tYWluMB4XDTE2MDIxNzE4MjUxOFoXDTI2MDIxNDE4MjUxOFow
HzEdMBsGA1UEAxMUQ2xpZW50MjE4MUNlcnQ2YjI1NTYwggIiMA0GCSqGSIb3DQEB
AQUAA4ICDwAwggIKAoICAQCxMVqn0iR8ApFw7M1dVsfxOxM+idm0M2Z3/vqt15Xf
VUt7/5ozL3wq7+Q63l4sGsi1z598Ib1PcrfOzg1On0BnnDKDed0XQZW3QUcei+3H
3T67MSuSSQfNXB2N2XEAcJecA7egFGeJsgvgJ/MWQ67ShyFYVV3KSnt7q1CO4G91
xhDO3tKCCF3vELIpYRwrHwe0aFMzetxtVNpDKIIzlDCVsPhzHkYWlxT5DncC7fX1
AuV/YLe8Gfb8dIIIid/teQM/7Mfv1KzaSZdFlKR46p9YRLnrO4pu8p94MGDIkj1k
606HNNXDh8zE5+tKGx9D0AFe5Vj5uUykK4p9ZaczgSccNb0pbXxJ0ngrwRZ/tU+r
k2AnoqpBE89unvP+qoscRwF+WtP8TuicppzOWO1vmnr+J8NN4POUZSYCNxmcU3fd
5C4L7pXA2eB2ebW62LSlGHVG0Hn2iGCmWfBiK7e3FRscZJPU6n2NTOLKDfYVwDRY
fWehx/sKINMFl1SLpVL1aWRs/YDXYTYLl98zwrLa7CqXbOVI3Yq+25W9h/sbgD/E
cKx0S9yy9/nXbsxNl12FckRX+Coyo2cVbo8tCBx2uFi13Bg5VZfMlHELHoWb+U7m
uLkxA4Q8F6tr2rtE3JfAj/+6MUQM8ztPl1TUypx/y7lkXOTZrllGOhSoBsVnuqJP
+wIDAQABo4IBYzCCAV8wCQYDVR0TBAIwADAtBglghkgBhvhCAQ0EIBYeRWFzeS1S
U0EgR2VuZXJhdGVkIENlcnRpZmljYXRlMB0GA1UdDgQWBBR/n20dST6bZm0pFGct
vJ8wa/enhzCB4QYDVR0jBIHZMIHWgBQSzWAE0qCAnnDtxpm4eyzGUv0ZoaGBsqSB
rzCBrDELMAkGA1UEBhMCVVMxCzAJBgNVBAgTAk9IMREwDwYDVQQHEwhDb2x1bWJ1
czESMBAGA1UEChMJVmlraW5nVlBOMR0wGwYDVQQLExRNeU9yZ2FuaXphdGlvbmFs
VW5pdDEVMBMGA1UEAxMMVmlraW5nVlBOIENBMRAwDgYDVQQpEwdFYXN5UlNBMSEw
HwYJKoZIhvcNAQkBFhJtZUBteWhvc3QubXlkb21haW6CCQDPNYXugL8qPjATBgNV
HSUEDDAKBggrBgEFBQcDAjALBgNVHQ8EBAMCB4AwDQYJKoZIhvcNAQEEBQADggIB
AEZBAWqAn4OD5FwaQtsyI6soP9TnA0b0nWpOHcGD3ZpLrKGd7RybNb2E14zX2dwb
GS3bapKzf5TR6JtA2wO5R4gs0lSJ0VI9wa8MXTYXciLKsGJiXRpNh57Zzcp+7tUG
yZlC3gLvvloYbNnRy0Xx7dyZyGD9vaC28a+YcdO58npVLJAzaejp4+49AME+Qp7A
GkrPUSnxXoWA2vZv6Jm1wZztcSko6GwjsmWSJ/qcXbz+4BRgvTstFR3M3Re4pIBe
84Emi/tw322Im6r+D5drDao2bzz3LijnNXlRCz71IP8+RF5r0lTrhhnTDe9ZqCkW
oXXMqTmrLfRdWGtosdWdLSZeBcA9w4emrqJdFYqQJvOtkngfBH5yUudj0epuj96O
KyoR1b65csMMVfUIEyBemKi4EUJkS67DiIW0GUvXb4+mTTyRuhMP8DD4VvbAAKaI
fhjw3Y2cITlbeYVtcKCmZxdjp2cToz0RT2TNaPv+9Zmor+C/4MfGVi+LFUPzG0Vm
eMN4+UkSgPgYLAgVoCHaNxAv3CYYd1f2+tBEqsxD4rXn9jFPTjRDciSo+AxIc//I
0GDnD8OiM5lc+rLKbIa65/jgtZyJbEywWHtRyXCBlDCYHSJzgJy00nNbHm8C5XEH
zKHAO7BWchhcNbaF3ncsg/9NPZganGQTAD5kcVVJibzv
-----END CERTIFICATE-----
