Certificate:
    Data:
        Version: 3 (0x2)
        Serial Number: 7216 (0x1c30)
    Signature Algorithm: md5WithRSAEncryption
        Issuer: C=US, ST=OH, L=Columbus, O=VikingVPN, OU=MyOrganizationalUnit, CN=VikingVPN CA/name=EasyRSA/emailAddress=me@myhost.mydomain
        Validity
            Not Before: Feb 18 04:29:51 2016 GMT
            Not After : Feb 15 04:29:51 2026 GMT
        Subject: CN=Client2131Certc0ee38
        Subject Public Key Info:
            Public Key Algorithm: rsaEncryption
                Public-Key: (4096 bit)
                Modulus:
                    00:b2:9d:80:86:73:e3:dc:ca:7c:7d:33:2b:62:fe:
                    27:63:ad:ad:b6:23:f6:b8:00:5d:7c:07:67:65:99:
                    fe:64:eb:6b:32:0b:31:74:5c:2f:37:e3:cd:c4:20:
                    8c:d8:be:0b:77:03:a0:15:7c:0b:99:b7:f1:db:55:
                    c7:16:c1:0e:84:bb:74:2f:fe:77:3d:eb:70:8d:e3:
                    04:9d:ad:92:c1:8e:8b:b3:17:df:c2:df:5c:27:c0:
                    68:6d:d3:d2:a9:57:22:5d:cb:dc:06:7a:9f:db:92:
                    0c:46:8e:b6:62:a4:b3:31:cc:55:d8:3a:76:23:db:
                    6d:4c:09:61:18:3b:f6:eb:76:9d:e3:c4:9c:ab:a3:
                    a3:2c:3e:82:28:a4:3c:b4:67:f6:d8:b8:40:3d:21:
                    dd:c1:7b:2b:0b:9a:39:ec:66:02:b1:dc:97:1e:c6:
                    e1:c3:1a:07:94:09:e2:62:5d:da:bb:44:b1:12:cb:
                    cc:96:69:80:09:66:f8:67:6f:70:5d:79:29:f6:d3:
                    e4:72:1a:a8:e1:61:64:5e:b2:95:e9:a0:a7:ee:e4:
                    c2:fd:ec:68:9c:36:ee:b4:36:6f:15:cd:2b:5a:a5:
                    35:e6:8d:92:79:84:08:db:1e:dc:8c:90:86:d1:0c:
                    0f:95:f9:c2:39:46:22:bd:1e:26:98:95:47:08:be:
                    52:e6:f6:ff:cf:70:03:05:77:d3:6d:a3:0d:9f:87:
                    3e:19:72:6f:81:06:a7:cb:43:17:e0:20:25:58:70:
                    4e:4e:f0:75:96:e2:95:c9:22:33:bd:32:eb:3a:49:
                    67:c4:4b:46:b8:51:8e:6e:98:a5:3b:b8:be:46:b6:
                    82:54:95:3c:8a:08:ab:18:91:53:cb:4a:d2:39:b9:
                    36:d1:a3:12:25:40:3d:db:1a:1e:be:c2:b1:c9:a8:
                    2e:31:80:2a:69:44:98:38:86:d1:78:2c:25:1c:e5:
                    bc:9f:80:02:e9:bf:2f:46:fa:6b:35:49:5f:aa:69:
                    7b:94:cd:52:e1:93:9f:e3:82:14:0f:e8:b1:49:44:
                    2e:de:a8:b1:36:58:03:6a:22:14:c0:d0:89:15:c8:
                    d7:9d:f5:ff:81:e0:45:70:a0:57:0a:1b:2f:9e:3e:
                    e1:78:11:7b:b5:5c:49:4c:3a:c2:cd:d0:17:5b:74:
                    bf:e7:bd:d4:d2:5e:12:26:e6:9b:92:3e:86:c1:53:
                    cc:00:b8:ad:91:bd:6c:c5:80:5f:16:f4:8f:b7:0a:
                    a3:f6:ce:1f:2b:6d:a5:a4:60:eb:47:c1:fa:c8:75:
                    9c:db:3e:6d:b3:92:4f:97:bb:f3:3e:02:99:c8:4f:
                    55:0b:28:51:a4:f9:3f:a1:de:14:d8:c4:64:2b:45:
                    e6:40:d9
                Exponent: 65537 (0x10001)
        X509v3 extensions:
            X509v3 Basic Constraints: 
                CA:FALSE
            Netscape Comment: 
                Easy-RSA Generated Certificate
            X509v3 Subject Key Identifier: 
                77:56:F3:46:14:7A:F0:BC:75:E0:C7:0C:70:53:C0:35:54:20:55:53
            X509v3 Authority Key Identifier: 
                keyid:12:CD:60:04:D2:A0:80:9E:70:ED:C6:99:B8:7B:2C:C6:52:FD:19:A1
                DirName:/C=US/ST=OH/L=Columbus/O=VikingVPN/OU=MyOrganizationalUnit/CN=VikingVPN CA/name=EasyRSA/emailAddress=me@myhost.mydomain
                serial:CF:35:85:EE:80:BF:2A:3E

            X509v3 Extended Key Usage: 
                TLS Web Client Authentication
            X509v3 Key Usage: 
                Digital Signature
    Signature Algorithm: md5WithRSAEncryption
         32:1d:02:6e:df:ac:d6:64:70:01:e1:c6:1a:f9:d3:1b:65:e8:
         90:7a:e0:fe:95:d0:cf:5e:cb:64:5e:0f:c0:52:17:cb:d5:9b:
         64:6e:a8:eb:e0:c2:08:5f:57:4a:4c:da:e4:41:79:48:96:95:
         24:cc:89:03:fe:af:55:33:77:26:38:9c:58:92:e9:41:6c:bb:
         bd:4d:bb:41:c0:54:19:da:01:90:8b:b4:ae:bd:e8:f9:84:b3:
         77:44:db:3b:69:dc:d5:f6:d1:a8:e6:86:02:61:5a:57:7f:b9:
         19:72:5d:ad:bb:d6:89:f6:66:88:e4:78:db:38:99:51:7a:9f:
         01:8c:d8:c6:67:a4:61:33:ce:1e:d8:c9:3d:8a:3d:3f:f6:07:
         af:c3:3e:56:40:f7:c6:af:9f:b8:b9:8c:23:74:3c:6f:f3:0b:
         62:2b:55:3a:de:dc:49:a2:df:5c:a1:8e:f8:22:b5:b2:ab:a9:
         03:da:e0:fd:db:7e:5b:dd:30:d0:20:05:01:34:27:d0:76:92:
         50:01:0d:47:ec:51:3a:81:74:90:fc:42:49:94:82:85:8b:b3:
         01:a3:26:7f:00:5b:29:79:2b:e5:39:63:7a:65:aa:4a:da:8d:
         23:56:fc:6b:83:e2:b3:31:c6:dd:88:a9:2a:8c:a3:c2:f3:af:
         be:17:f4:43:8e:11:41:73:70:9f:8a:6c:c0:f4:f3:49:2c:5b:
         ae:9e:73:e8:4e:37:f0:28:fa:0c:c0:7d:53:d7:e0:73:7c:89:
         35:19:95:6a:ea:03:16:f9:00:17:56:6d:03:8c:6d:ea:2f:3c:
         0f:48:32:62:d7:a6:0b:32:c5:38:21:85:0a:53:8c:d6:c9:3b:
         65:dd:84:13:5b:a0:67:ed:71:75:bb:67:56:db:8d:06:16:5d:
         4b:94:d0:6c:c8:61:78:d6:b5:8e:5c:9e:4d:3b:56:d2:9c:79:
         51:f9:a0:e4:31:a6:1c:e6:44:cf:dc:8e:10:99:1f:c5:e3:17:
         58:c2:48:e0:aa:62:4e:b2:a2:48:35:1d:c1:a5:43:62:2c:32:
         e1:c0:96:24:55:10:df:dd:c4:33:b3:35:ee:41:d3:8e:ad:a8:
         8d:f2:b7:27:b5:98:40:44:23:d3:5f:fc:a4:b5:16:76:3d:2b:
         ea:cd:1f:26:25:0c:da:1b:2e:ce:7d:24:67:5c:bf:e8:23:05:
         51:ba:ac:2d:fb:79:64:27:2c:bc:09:92:29:27:f2:f5:53:34:
         5a:8c:3f:0f:ea:70:69:70:97:d0:c3:a7:f5:30:19:65:7b:fd:
         69:f1:6c:20:8c:c7:61:12:c9:4a:cb:7f:0b:8d:a6:59:78:84:
         22:3a:08:66:34:19:0c:14
-----BEGIN CERTIFICATE-----
MIIGrTCCBJWgAwIBAgICHDAwDQYJKoZIhvcNAQEEBQAwgawxCzAJBgNVBAYTAlVT
MQswCQYDVQQIEwJPSDERMA8GA1UEBxMIQ29sdW1idXMxEjAQBgNVBAoTCVZpa2lu
Z1ZQTjEdMBsGA1UECxMUTXlPcmdhbml6YXRpb25hbFVuaXQxFTATBgNVBAMTDFZp
a2luZ1ZQTiBDQTEQMA4GA1UEKRMHRWFzeVJTQTEhMB8GCSqGSIb3DQEJARYSbWVA
bXlob3N0Lm15ZG9tYWluMB4XDTE2MDIxODA0Mjk1MVoXDTI2MDIxNTA0Mjk1MVow
HzEdMBsGA1UEAxMUQ2xpZW50MjEzMUNlcnRjMGVlMzgwggIiMA0GCSqGSIb3DQEB
AQUAA4ICDwAwggIKAoICAQCynYCGc+Pcynx9Myti/idjra22I/a4AF18B2dlmf5k
62syCzF0XC83483EIIzYvgt3A6AVfAuZt/HbVccWwQ6Eu3Qv/nc963CN4wSdrZLB
jouzF9/C31wnwGht09KpVyJdy9wGep/bkgxGjrZipLMxzFXYOnYj221MCWEYO/br
dp3jxJyro6MsPoIopDy0Z/bYuEA9Id3BeysLmjnsZgKx3JcexuHDGgeUCeJiXdq7
RLESy8yWaYAJZvhnb3BdeSn20+RyGqjhYWRespXpoKfu5ML97GicNu60Nm8VzSta
pTXmjZJ5hAjbHtyMkIbRDA+V+cI5RiK9HiaYlUcIvlLm9v/PcAMFd9Ntow2fhz4Z
cm+BBqfLQxfgICVYcE5O8HWW4pXJIjO9Mus6SWfES0a4UY5umKU7uL5GtoJUlTyK
CKsYkVPLStI5uTbRoxIlQD3bGh6+wrHJqC4xgCppRJg4htF4LCUc5byfgALpvy9G
+ms1SV+qaXuUzVLhk5/jghQP6LFJRC7eqLE2WANqIhTA0IkVyNed9f+B4EVwoFcK
Gy+ePuF4EXu1XElMOsLN0BdbdL/nvdTSXhIm5puSPobBU8wAuK2RvWzFgF8W9I+3
CqP2zh8rbaWkYOtHwfrIdZzbPm2zkk+Xu/M+ApnIT1ULKFGk+T+h3hTYxGQrReZA
2QIDAQABo4IBYzCCAV8wCQYDVR0TBAIwADAtBglghkgBhvhCAQ0EIBYeRWFzeS1S
U0EgR2VuZXJhdGVkIENlcnRpZmljYXRlMB0GA1UdDgQWBBR3VvNGFHrwvHXgxwxw
U8A1VCBVUzCB4QYDVR0jBIHZMIHWgBQSzWAE0qCAnnDtxpm4eyzGUv0ZoaGBsqSB
rzCBrDELMAkGA1UEBhMCVVMxCzAJBgNVBAgTAk9IMREwDwYDVQQHEwhDb2x1bWJ1
czESMBAGA1UEChMJVmlraW5nVlBOMR0wGwYDVQQLExRNeU9yZ2FuaXphdGlvbmFs
VW5pdDEVMBMGA1UEAxMMVmlraW5nVlBOIENBMRAwDgYDVQQpEwdFYXN5UlNBMSEw
HwYJKoZIhvcNAQkBFhJtZUBteWhvc3QubXlkb21haW6CCQDPNYXugL8qPjATBgNV
HSUEDDAKBggrBgEFBQcDAjALBgNVHQ8EBAMCB4AwDQYJKoZIhvcNAQEEBQADggIB
ADIdAm7frNZkcAHhxhr50xtl6JB64P6V0M9ey2ReD8BSF8vVm2RuqOvgwghfV0pM
2uRBeUiWlSTMiQP+r1UzdyY4nFiS6UFsu71Nu0HAVBnaAZCLtK696PmEs3dE2ztp
3NX20ajmhgJhWld/uRlyXa271on2ZojkeNs4mVF6nwGM2MZnpGEzzh7YyT2KPT/2
B6/DPlZA98avn7i5jCN0PG/zC2IrVTre3Emi31yhjvgitbKrqQPa4P3bflvdMNAg
BQE0J9B2klABDUfsUTqBdJD8QkmUgoWLswGjJn8AWyl5K+U5Y3plqkrajSNW/GuD
4rMxxt2IqSqMo8Lzr74X9EOOEUFzcJ+KbMD080ksW66ec+hON/Ao+gzAfVPX4HN8
iTUZlWrqAxb5ABdWbQOMbeovPA9IMmLXpgsyxTghhQpTjNbJO2XdhBNboGftcXW7
Z1bbjQYWXUuU0GzIYXjWtY5cnk07VtKceVH5oOQxphzmRM/cjhCZH8XjF1jCSOCq
Yk6yokg1HcGlQ2IsMuHAliRVEN/dxDOzNe5B046tqI3ytye1mEBEI9Nf/KS1FnY9
K+rNHyYlDNobLs59JGdcv+gjBVG6rC37eWQnLLwJkikn8vVTNFqMPw/qcGlwl9DD
p/UwGWV7/WnxbCCMx2ESyUrLfwuNpll4hCI6CGY0GQwU
-----END CERTIFICATE-----
