Certificate:
    Data:
        Version: 3 (0x2)
        Serial Number: 7228 (0x1c3c)
    Signature Algorithm: md5WithRSAEncryption
        Issuer: C=US, ST=OH, L=Columbus, O=VikingVPN, OU=MyOrganizationalUnit, CN=VikingVPN CA/name=EasyRSA/emailAddress=me@myhost.mydomain
        Validity
            Not Before: Feb 20 01:11:10 2016 GMT
            Not After : Feb 17 01:11:10 2026 GMT
        Subject: CN=Client2184Cert168986
        Subject Public Key Info:
            Public Key Algorithm: rsaEncryption
                Public-Key: (4096 bit)
                Modulus:
                    00:bb:f5:67:6e:b2:e2:a6:f8:49:96:f1:79:e7:30:
                    ef:1a:ee:ad:a3:7e:9e:11:e1:91:54:67:29:3a:02:
                    61:ff:e4:aa:93:c3:b8:77:b8:ff:57:43:a4:bb:49:
                    33:72:20:78:1d:97:46:b1:e0:3e:d2:2a:fc:d0:e4:
                    8a:1e:9c:84:45:3f:54:b0:bf:e0:b1:91:7a:c3:18:
                    eb:c4:24:26:ee:61:36:63:d1:37:8a:39:89:11:0c:
                    fc:24:39:a0:76:1c:28:53:02:d1:3b:fc:c4:f2:1c:
                    9a:15:19:5a:c1:10:bc:6b:38:74:3a:ef:14:04:28:
                    32:e4:02:fc:18:09:50:ed:4d:81:b4:56:08:1d:37:
                    56:4a:50:bf:4a:87:0d:1e:3b:c0:d1:2c:58:48:eb:
                    f7:fa:45:3b:11:aa:a7:fc:6d:a9:ca:f1:bd:8c:18:
                    8b:b6:3d:4a:42:34:6d:26:53:13:49:2b:e0:fd:be:
                    1b:cd:81:24:96:75:4b:16:d7:a3:f4:e6:29:87:ca:
                    7a:4d:86:23:f7:32:ae:62:a9:b6:b0:c6:06:6a:96:
                    1e:67:8e:dd:7b:4c:4f:a2:2f:79:33:59:19:df:b6:
                    51:af:56:60:3d:45:2b:5b:61:0b:e2:6f:b2:32:53:
                    71:65:bc:21:72:57:7a:bd:1d:f7:cf:d5:56:a7:04:
                    2b:9e:83:b1:72:4f:5e:c7:d5:32:2b:fb:88:f6:6f:
                    4d:4e:59:72:8e:d1:33:b1:76:0d:10:91:b7:48:9c:
                    a0:3a:c5:1e:a6:de:d1:a4:de:d5:a2:62:d6:3b:59:
                    0d:50:61:06:a5:e5:fa:0d:2a:00:e9:e7:00:33:5e:
                    0b:46:10:65:99:29:4a:01:ce:bf:b1:e4:e1:b1:6f:
                    9b:8d:0d:cf:49:f3:36:5a:0a:ee:af:d4:5a:11:ec:
                    23:14:4c:04:11:c4:53:98:37:33:19:26:e3:72:94:
                    57:de:5b:43:1e:99:6e:4d:dc:04:86:1b:29:e5:84:
                    55:c8:9c:53:1e:6c:a0:91:88:21:db:ef:b2:44:1d:
                    ec:93:cf:d8:2f:9a:8d:13:b9:65:d1:9c:83:3e:38:
                    02:5d:e3:3b:13:e2:e6:84:ab:47:b2:6d:8d:f7:39:
                    81:ea:bb:c6:7b:16:31:79:20:9e:dc:dc:8e:6f:3f:
                    7b:0f:e6:b6:fb:2f:7b:b3:5f:59:8b:29:1f:a6:a5:
                    6a:76:45:d2:c7:87:78:a9:45:d0:3a:a8:4f:66:77:
                    c1:30:11:eb:b7:84:6c:45:44:42:87:a2:b4:0d:2b:
                    53:8c:9f:92:ce:b4:78:1d:ff:6c:05:e7:e2:0f:63:
                    8d:da:4d:87:e7:f8:3c:56:6d:c6:67:62:3b:51:40:
                    93:9c:c3
                Exponent: 65537 (0x10001)
        X509v3 extensions:
            X509v3 Basic Constraints: 
                CA:FALSE
            Netscape Comment: 
                Easy-RSA Generated Certificate
            X509v3 Subject Key Identifier: 
                4F:9B:D5:1E:B0:22:59:3B:35:E7:91:67:86:47:55:23:80:45:B1:94
            X509v3 Authority Key Identifier: 
                keyid:12:CD:60:04:D2:A0:80:9E:70:ED:C6:99:B8:7B:2C:C6:52:FD:19:A1
                DirName:/C=US/ST=OH/L=Columbus/O=VikingVPN/OU=MyOrganizationalUnit/CN=VikingVPN CA/name=EasyRSA/emailAddress=me@myhost.mydomain
                serial:CF:35:85:EE:80:BF:2A:3E

            X509v3 Extended Key Usage: 
                TLS Web Client Authentication
            X509v3 Key Usage: 
                Digital Signature
    Signature Algorithm: md5WithRSAEncryption
         eb:23:dc:ce:16:f8:18:d0:d3:70:f0:78:0d:99:38:6a:eb:06:
         02:bb:e1:a9:6f:ad:af:34:72:df:77:d9:72:22:53:72:09:fa:
         43:08:96:13:a3:d8:1a:a5:b9:42:0f:71:ab:d6:30:52:c3:e7:
         e4:71:ad:5b:b8:bf:ab:21:9a:f3:75:2f:1b:41:62:f2:20:07:
         49:9a:db:66:4a:36:99:fa:d5:06:54:15:03:77:6e:2d:1d:7e:
         b7:14:ef:a3:c9:9d:bc:ab:29:1c:8d:51:c8:4b:16:c5:a6:e3:
         29:63:09:7c:04:b4:56:28:21:1d:cc:20:aa:3d:22:e0:91:0c:
         32:e5:6a:33:ad:0f:de:e5:81:ca:7e:7d:c3:6f:20:e0:3d:74:
         6b:82:c5:bb:7d:71:74:10:5c:a1:7e:8b:31:f3:6e:d4:f6:1e:
         ff:9e:8e:47:e3:21:d6:d3:e4:06:d3:8b:f0:d2:6d:df:42:29:
         5d:7f:3d:20:5c:e5:d4:64:72:83:db:81:04:4a:da:ed:2f:a4:
         18:10:29:ef:6f:0d:af:fa:d3:43:03:a6:57:25:47:f2:c3:d7:
         9d:7a:d8:76:5d:a7:1d:51:a3:b6:2f:0a:9e:3a:80:71:57:8e:
         5f:87:88:bb:2e:6b:e9:ea:57:58:8b:78:26:6d:54:f3:28:c6:
         10:6a:dd:c1:15:33:52:b1:8c:c0:ad:9e:33:ad:3e:98:2e:6e:
         30:6b:8d:5d:49:ce:aa:e1:c1:43:30:7a:8b:8d:b4:e6:fc:00:
         cc:22:a4:9f:0d:c7:67:23:e1:81:73:f0:c7:a9:e1:15:eb:81:
         15:ad:b2:4f:e1:56:a9:50:2b:e6:e5:25:11:ec:90:3b:14:68:
         6e:f5:5f:1b:70:d5:87:3f:af:fb:b2:40:ba:3b:0b:e9:64:f1:
         0b:03:a7:8b:54:8f:7f:68:ad:a3:9d:f0:56:50:05:0f:4a:5e:
         6e:52:2d:33:98:19:ec:b4:4a:27:37:c6:af:e1:f1:18:c2:c3:
         d8:c9:a2:a3:34:82:64:75:57:3d:6c:ad:64:a9:ad:8c:60:14:
         bf:7f:00:d2:f2:af:34:87:45:cf:a6:88:fb:14:fd:62:38:5b:
         4a:0f:01:61:3d:4d:66:53:ab:34:66:57:35:95:d4:22:e2:6e:
         39:c4:a2:0e:b0:b9:49:3f:ae:83:b8:63:bd:7d:ae:5d:cf:13:
         bb:92:86:41:fa:99:5e:8c:eb:af:1e:97:95:a0:99:9d:9a:47:
         76:48:89:db:0d:0a:c7:59:7b:48:a9:05:20:ad:1d:56:4c:3c:
         3d:12:af:c1:95:c2:47:6c:68:b5:d4:17:b5:b9:89:70:85:94:
         75:d7:cc:65:98:2b:68:8f
-----BEGIN CERTIFICATE-----
MIIGrTCCBJWgAwIBAgICHDwwDQYJKoZIhvcNAQEEBQAwgawxCzAJBgNVBAYTAlVT
MQswCQYDVQQIEwJPSDERMA8GA1UEBxMIQ29sdW1idXMxEjAQBgNVBAoTCVZpa2lu
Z1ZQTjEdMBsGA1UECxMUTXlPcmdhbml6YXRpb25hbFVuaXQxFTATBgNVBAMTDFZp
a2luZ1ZQTiBDQTEQMA4GA1UEKRMHRWFzeVJTQTEhMB8GCSqGSIb3DQEJARYSbWVA
bXlob3N0Lm15ZG9tYWluMB4XDTE2MDIyMDAxMTExMFoXDTI2MDIxNzAxMTExMFow
HzEdMBsGA1UEAxMUQ2xpZW50MjE4NENlcnQxNjg5ODYwggIiMA0GCSqGSIb3DQEB
AQUAA4ICDwAwggIKAoICAQC79WdusuKm+EmW8XnnMO8a7q2jfp4R4ZFUZyk6AmH/
5KqTw7h3uP9XQ6S7STNyIHgdl0ax4D7SKvzQ5IoenIRFP1Swv+CxkXrDGOvEJCbu
YTZj0TeKOYkRDPwkOaB2HChTAtE7/MTyHJoVGVrBELxrOHQ67xQEKDLkAvwYCVDt
TYG0VggdN1ZKUL9Khw0eO8DRLFhI6/f6RTsRqqf8banK8b2MGIu2PUpCNG0mUxNJ
K+D9vhvNgSSWdUsW16P05imHynpNhiP3Mq5iqbawxgZqlh5njt17TE+iL3kzWRnf
tlGvVmA9RStbYQvib7IyU3FlvCFyV3q9HffP1VanBCueg7FyT17H1TIr+4j2b01O
WXKO0TOxdg0QkbdInKA6xR6m3tGk3tWiYtY7WQ1QYQal5foNKgDp5wAzXgtGEGWZ
KUoBzr+x5OGxb5uNDc9J8zZaCu6v1FoR7CMUTAQRxFOYNzMZJuNylFfeW0MemW5N
3ASGGynlhFXInFMebKCRiCHb77JEHeyTz9gvmo0TuWXRnIM+OAJd4zsT4uaEq0ey
bY33OYHqu8Z7FjF5IJ7c3I5vP3sP5rb7L3uzX1mLKR+mpWp2RdLHh3ipRdA6qE9m
d8EwEeu3hGxFREKHorQNK1OMn5LOtHgd/2wF5+IPY43aTYfn+DxWbcZnYjtRQJOc
wwIDAQABo4IBYzCCAV8wCQYDVR0TBAIwADAtBglghkgBhvhCAQ0EIBYeRWFzeS1S
U0EgR2VuZXJhdGVkIENlcnRpZmljYXRlMB0GA1UdDgQWBBRPm9UesCJZOzXnkWeG
R1UjgEWxlDCB4QYDVR0jBIHZMIHWgBQSzWAE0qCAnnDtxpm4eyzGUv0ZoaGBsqSB
rzCBrDELMAkGA1UEBhMCVVMxCzAJBgNVBAgTAk9IMREwDwYDVQQHEwhDb2x1bWJ1
czESMBAGA1UEChMJVmlraW5nVlBOMR0wGwYDVQQLExRNeU9yZ2FuaXphdGlvbmFs
VW5pdDEVMBMGA1UEAxMMVmlraW5nVlBOIENBMRAwDgYDVQQpEwdFYXN5UlNBMSEw
HwYJKoZIhvcNAQkBFhJtZUBteWhvc3QubXlkb21haW6CCQDPNYXugL8qPjATBgNV
HSUEDDAKBggrBgEFBQcDAjALBgNVHQ8EBAMCB4AwDQYJKoZIhvcNAQEEBQADggIB
AOsj3M4W+BjQ03DweA2ZOGrrBgK74alvra80ct932XIiU3IJ+kMIlhOj2BqluUIP
cavWMFLD5+RxrVu4v6shmvN1LxtBYvIgB0ma22ZKNpn61QZUFQN3bi0dfrcU76PJ
nbyrKRyNUchLFsWm4yljCXwEtFYoIR3MIKo9IuCRDDLlajOtD97lgcp+fcNvIOA9
dGuCxbt9cXQQXKF+izHzbtT2Hv+ejkfjIdbT5AbTi/DSbd9CKV1/PSBc5dRkcoPb
gQRK2u0vpBgQKe9vDa/600MDplclR/LD15162HZdpx1Ro7YvCp46gHFXjl+HiLsu
a+nqV1iLeCZtVPMoxhBq3cEVM1KxjMCtnjOtPpgubjBrjV1JzqrhwUMweouNtOb8
AMwipJ8Nx2cj4YFz8Mep4RXrgRWtsk/hVqlQK+blJRHskDsUaG71Xxtw1Yc/r/uy
QLo7C+lk8QsDp4tUj39oraOd8FZQBQ9KXm5SLTOYGey0Sic3xq/h8RjCw9jJoqM0
gmR1Vz1srWSprYxgFL9/ANLyrzSHRc+miPsU/WI4W0oPAWE9TWZTqzRmVzWV1CLi
bjnEog6wuUk/roO4Y719rl3PE7uShkH6mV6M668el5WgmZ2aR3ZIidsNCsdZe0ip
BSCtHVZMPD0Sr8GVwkdsaLXUF7W5iXCFlHXXzGWYK2iP
-----END CERTIFICATE-----
