Certificate:
    Data:
        Version: 3 (0x2)
        Serial Number: 7247 (0x1c4f)
    Signature Algorithm: md5WithRSAEncryption
        Issuer: C=US, ST=OH, L=Columbus, O=VikingVPN, OU=MyOrganizationalUnit, CN=VikingVPN CA/name=EasyRSA/emailAddress=me@myhost.mydomain
        Validity
            Not Before: Feb 20 14:18:18 2016 GMT
            Not After : Feb 17 14:18:18 2026 GMT
        Subject: CN=Client1114Certf47eef
        Subject Public Key Info:
            Public Key Algorithm: rsaEncryption
                Public-Key: (4096 bit)
                Modulus:
                    00:dd:fa:e6:8e:5d:e9:cd:25:4a:f8:72:66:94:2b:
                    48:64:3c:3b:80:b0:c8:cd:d3:d7:e8:ce:4d:10:6f:
                    11:5d:f2:e2:f9:bc:bd:85:a7:93:eb:8a:7a:29:f7:
                    f7:17:e6:d9:da:b5:7f:04:1e:9c:b3:9e:3f:bc:bf:
                    d2:88:46:cb:1c:93:4c:fb:3b:9e:ec:df:27:b2:1a:
                    27:e5:af:c2:e2:0d:bd:68:ac:b4:b8:8f:dc:e5:6f:
                    7a:59:8c:23:32:65:d7:30:3b:05:b9:f3:4b:89:10:
                    62:86:a1:bb:83:ff:07:9e:3a:a5:01:ad:2b:54:9b:
                    1f:5f:4e:cc:0a:11:8c:e1:6c:cf:04:76:9d:40:ad:
                    81:4f:9e:68:eb:ae:84:9e:7a:df:cd:c6:86:0f:66:
                    f0:2e:09:2e:98:ba:2d:7e:ea:a5:ec:65:ed:83:e5:
                    d9:d8:ec:e2:c7:bf:f8:be:6f:1b:2b:b8:96:82:09:
                    fc:d0:c3:06:ef:04:40:8d:0b:5d:6d:55:5a:c1:ea:
                    a4:dd:e7:bb:ef:bb:d1:64:bd:59:61:4a:3a:1a:78:
                    89:1a:17:6b:64:0d:80:94:0e:8d:77:35:72:56:a0:
                    99:ea:c2:fb:64:06:62:e6:af:b6:77:f2:24:50:c9:
                    1e:32:6e:c7:bb:20:e1:cf:fa:cd:dd:eb:e9:09:a4:
                    16:05:de:22:16:6e:81:ef:d6:aa:01:b6:7b:50:2b:
                    6e:5d:c9:7f:92:ad:07:55:c7:f9:b6:38:98:c3:5e:
                    09:b4:ff:99:9d:de:0f:56:7a:96:0b:5e:8a:75:f6:
                    5d:6c:ce:0e:d1:39:31:4b:08:55:c3:b0:22:3a:c1:
                    78:15:c3:b6:50:c2:e4:73:91:ef:d8:2a:c1:07:68:
                    de:98:d5:9a:de:fe:e1:60:f1:bd:e5:c4:4c:f2:d0:
                    81:82:df:70:23:fe:54:98:68:42:c4:dc:e9:6e:d6:
                    3d:20:10:d0:bb:64:bc:84:7c:95:a8:1a:cc:92:21:
                    b3:1a:69:d2:ff:d8:c4:f9:cb:e7:1f:6a:28:6d:8c:
                    6f:94:33:9b:74:4f:d4:1d:8b:ce:f4:d6:e4:81:5d:
                    1f:d9:88:73:42:cb:8a:b3:48:c7:b0:f5:92:f8:82:
                    37:eb:54:c7:c0:c8:2f:ee:8f:82:50:78:66:c2:40:
                    31:6d:f5:5c:f1:76:8f:6b:e8:62:fc:8f:2b:14:00:
                    91:9b:b1:d2:4d:3e:d0:a8:00:d9:dd:f9:81:7d:cc:
                    a4:a6:f1:92:4f:87:fe:55:82:f4:30:77:6c:e6:86:
                    bf:3e:f0:38:fc:d1:f7:2b:9f:c7:be:3f:ff:7c:24:
                    a7:3b:4e:99:73:65:5a:f3:9e:2f:5d:dd:23:d2:6b:
                    65:13:85
                Exponent: 65537 (0x10001)
        X509v3 extensions:
            X509v3 Basic Constraints: 
                CA:FALSE
            Netscape Comment: 
                Easy-RSA Generated Certificate
            X509v3 Subject Key Identifier: 
                2A:E1:47:AF:17:48:F7:9C:11:76:16:E7:05:F4:A7:AB:14:C8:0C:ED
            X509v3 Authority Key Identifier: 
                keyid:12:CD:60:04:D2:A0:80:9E:70:ED:C6:99:B8:7B:2C:C6:52:FD:19:A1
                DirName:/C=US/ST=OH/L=Columbus/O=VikingVPN/OU=MyOrganizationalUnit/CN=VikingVPN CA/name=EasyRSA/emailAddress=me@myhost.mydomain
                serial:CF:35:85:EE:80:BF:2A:3E

            X509v3 Extended Key Usage: 
                TLS Web Client Authentication
            X509v3 Key Usage: 
                Digital Signature
    Signature Algorithm: md5WithRSAEncryption
         01:c7:1e:11:54:7e:2b:d2:49:34:31:c2:3d:26:33:c9:1c:ef:
         90:ca:fc:57:3b:10:9b:85:ac:75:82:6f:08:21:17:47:19:93:
         f6:a2:eb:8c:41:f2:26:85:bc:cf:ce:cb:71:14:43:01:4d:08:
         e0:6b:b1:d6:6d:87:a0:db:9b:a7:9d:e4:e1:ce:32:2b:a4:f0:
         e1:40:c6:ae:0e:71:25:a2:91:2c:e2:48:00:44:98:9d:af:9d:
         dd:03:9f:69:55:c0:d0:8d:32:08:c9:c6:9c:76:eb:26:58:76:
         11:8e:5e:f4:87:c1:91:04:69:ee:42:bc:35:c0:12:62:89:c1:
         d7:24:7f:e5:76:4b:7d:60:6a:cd:dc:78:39:d7:e7:a3:63:e7:
         3a:d0:e2:f3:0a:8a:52:13:76:6c:c8:09:f8:29:c5:f9:fb:04:
         b3:29:81:0a:1a:2e:d9:6a:d8:74:9a:e8:90:b6:80:50:45:93:
         6e:7e:b3:a4:bc:2b:4c:20:02:f7:66:2f:63:06:6e:ee:92:9a:
         40:69:aa:8e:01:55:58:79:d6:48:ef:7d:40:4e:17:88:2c:09:
         72:56:d0:6d:bb:00:c4:d4:a0:24:1d:20:1d:39:80:6d:eb:30:
         92:66:d1:28:c2:c4:4c:68:c0:56:ec:30:1f:33:87:7c:62:af:
         a3:2e:cb:be:b1:df:b0:75:54:a0:44:85:03:e6:a9:90:f7:3e:
         35:9b:ce:6f:4d:7f:dc:99:47:76:0d:05:0d:16:6a:b5:a6:d7:
         17:a8:71:79:8b:5a:e2:75:de:5c:f9:26:1f:96:b3:58:d7:7b:
         7d:59:81:7d:d2:a8:b3:3a:7e:88:76:d2:49:40:37:e2:52:6a:
         78:42:83:26:0f:9b:d1:53:e8:a7:a1:29:aa:ec:b5:ab:8a:5f:
         c0:00:10:72:1b:04:82:0e:db:96:48:d4:cb:31:55:48:35:41:
         a4:7f:c0:b6:77:27:87:57:e0:d2:0d:77:c4:92:1a:86:0f:05:
         cf:f5:16:d7:08:f9:fb:d3:54:cb:76:28:13:53:e4:05:47:20:
         cf:25:c8:c6:06:35:6a:a4:d7:3c:2c:bd:4c:19:e8:6e:71:5d:
         78:0a:7f:ab:80:82:4a:39:8d:81:37:aa:cb:d1:58:84:bd:67:
         5f:d0:4c:5b:87:50:e2:4b:a9:91:91:fe:97:c4:84:85:89:19:
         98:9d:84:2b:51:0a:8a:c5:db:70:05:5a:94:29:73:64:d7:d5:
         44:ce:e4:67:83:1e:94:e3:5f:42:b5:33:32:41:78:20:ef:e2:
         33:86:5c:e4:bd:25:02:1f:f7:ad:a5:ef:16:e7:d8:8a:35:ca:
         7c:ab:f4:92:51:b5:2e:6d
-----BEGIN CERTIFICATE-----
MIIGrTCCBJWgAwIBAgICHE8wDQYJKoZIhvcNAQEEBQAwgawxCzAJBgNVBAYTAlVT
MQswCQYDVQQIEwJPSDERMA8GA1UEBxMIQ29sdW1idXMxEjAQBgNVBAoTCVZpa2lu
Z1ZQTjEdMBsGA1UECxMUTXlPcmdhbml6YXRpb25hbFVuaXQxFTATBgNVBAMTDFZp
a2luZ1ZQTiBDQTEQMA4GA1UEKRMHRWFzeVJTQTEhMB8GCSqGSIb3DQEJARYSbWVA
bXlob3N0Lm15ZG9tYWluMB4XDTE2MDIyMDE0MTgxOFoXDTI2MDIxNzE0MTgxOFow
HzEdMBsGA1UEAxMUQ2xpZW50MTExNENlcnRmNDdlZWYwggIiMA0GCSqGSIb3DQEB
AQUAA4ICDwAwggIKAoICAQDd+uaOXenNJUr4cmaUK0hkPDuAsMjN09fozk0QbxFd
8uL5vL2Fp5Prinop9/cX5tnatX8EHpyznj+8v9KIRssck0z7O57s3yeyGiflr8Li
Db1orLS4j9zlb3pZjCMyZdcwOwW580uJEGKGobuD/weeOqUBrStUmx9fTswKEYzh
bM8Edp1ArYFPnmjrroSeet/NxoYPZvAuCS6Yui1+6qXsZe2D5dnY7OLHv/i+bxsr
uJaCCfzQwwbvBECNC11tVVrB6qTd57vvu9FkvVlhSjoaeIkaF2tkDYCUDo13NXJW
oJnqwvtkBmLmr7Z38iRQyR4ybse7IOHP+s3d6+kJpBYF3iIWboHv1qoBtntQK25d
yX+SrQdVx/m2OJjDXgm0/5md3g9WepYLXop19l1szg7ROTFLCFXDsCI6wXgVw7ZQ
wuRzke/YKsEHaN6Y1Zre/uFg8b3lxEzy0IGC33Aj/lSYaELE3Olu1j0gENC7ZLyE
fJWoGsySIbMaadL/2MT5y+cfaihtjG+UM5t0T9Qdi8701uSBXR/ZiHNCy4qzSMew
9ZL4gjfrVMfAyC/uj4JQeGbCQDFt9Vzxdo9r6GL8jysUAJGbsdJNPtCoANnd+YF9
zKSm8ZJPh/5VgvQwd2zmhr8+8Dj80fcrn8e+P/98JKc7TplzZVrzni9d3SPSa2UT
hQIDAQABo4IBYzCCAV8wCQYDVR0TBAIwADAtBglghkgBhvhCAQ0EIBYeRWFzeS1S
U0EgR2VuZXJhdGVkIENlcnRpZmljYXRlMB0GA1UdDgQWBBQq4UevF0j3nBF2FucF
9KerFMgM7TCB4QYDVR0jBIHZMIHWgBQSzWAE0qCAnnDtxpm4eyzGUv0ZoaGBsqSB
rzCBrDELMAkGA1UEBhMCVVMxCzAJBgNVBAgTAk9IMREwDwYDVQQHEwhDb2x1bWJ1
czESMBAGA1UEChMJVmlraW5nVlBOMR0wGwYDVQQLExRNeU9yZ2FuaXphdGlvbmFs
VW5pdDEVMBMGA1UEAxMMVmlraW5nVlBOIENBMRAwDgYDVQQpEwdFYXN5UlNBMSEw
HwYJKoZIhvcNAQkBFhJtZUBteWhvc3QubXlkb21haW6CCQDPNYXugL8qPjATBgNV
HSUEDDAKBggrBgEFBQcDAjALBgNVHQ8EBAMCB4AwDQYJKoZIhvcNAQEEBQADggIB
AAHHHhFUfivSSTQxwj0mM8kc75DK/Fc7EJuFrHWCbwghF0cZk/ai64xB8iaFvM/O
y3EUQwFNCOBrsdZth6Dbm6ed5OHOMiuk8OFAxq4OcSWikSziSABEmJ2vnd0Dn2lV
wNCNMgjJxpx26yZYdhGOXvSHwZEEae5CvDXAEmKJwdckf+V2S31gas3ceDnX56Nj
5zrQ4vMKilITdmzICfgpxfn7BLMpgQoaLtlq2HSa6JC2gFBFk25+s6S8K0wgAvdm
L2MGbu6SmkBpqo4BVVh51kjvfUBOF4gsCXJW0G27AMTUoCQdIB05gG3rMJJm0SjC
xExowFbsMB8zh3xir6Muy76x37B1VKBEhQPmqZD3PjWbzm9Nf9yZR3YNBQ0WarWm
1xeocXmLWuJ13lz5Jh+Ws1jXe31ZgX3SqLM6foh20klAN+JSanhCgyYPm9FT6Keh
KarstauKX8AAEHIbBIIO25ZI1MsxVUg1QaR/wLZ3J4dX4NINd8SSGoYPBc/1FtcI
+fvTVMt2KBNT5AVHIM8lyMYGNWqk1zwsvUwZ6G5xXXgKf6uAgko5jYE3qsvRWIS9
Z1/QTFuHUOJLqZGR/pfEhIWJGZidhCtRCorF23AFWpQpc2TX1UTO5GeDHpTjX0K1
MzJBeCDv4jOGXOS9JQIf962l7xbn2Io1ynyr9JJRtS5t
-----END CERTIFICATE-----
