Certificate:
    Data:
        Version: 3 (0x2)
        Serial Number: 7268 (0x1c64)
    Signature Algorithm: md5WithRSAEncryption
        Issuer: C=US, ST=OH, L=Columbus, O=VikingVPN, OU=MyOrganizationalUnit, CN=VikingVPN CA/name=EasyRSA/emailAddress=me@myhost.mydomain
        Validity
            Not Before: Feb 22 05:54:39 2016 GMT
            Not After : Feb 19 05:54:39 2026 GMT
        Subject: CN=Client2188Cert13580f
        Subject Public Key Info:
            Public Key Algorithm: rsaEncryption
                Public-Key: (4096 bit)
                Modulus:
                    00:c0:90:24:91:7f:eb:df:69:06:3d:01:c8:d9:32:
                    b5:6b:a8:8a:fe:ce:88:ea:0e:9b:08:8e:6c:f6:91:
                    ef:5a:74:62:a9:9a:cb:04:2a:53:a3:be:5f:a5:74:
                    a3:fd:64:23:25:e6:99:e2:2f:8f:36:40:d2:64:0c:
                    1c:cd:46:2a:cb:04:b9:a2:90:b2:fc:5e:dd:a8:44:
                    ca:c3:83:b2:32:55:c3:1d:31:06:f3:84:bd:13:5d:
                    da:43:5c:08:19:1e:77:45:31:cd:cb:4f:33:96:cc:
                    af:49:3a:12:ad:fb:e3:5d:9f:8c:3a:87:26:d8:52:
                    56:a9:f3:45:7f:23:f5:5e:03:f1:91:b2:29:1f:59:
                    1b:87:6c:9a:36:bc:62:22:3d:d2:8b:54:ff:6a:12:
                    03:4d:4a:64:6a:99:eb:dd:75:60:dd:4d:8c:25:c0:
                    d0:f3:a7:1d:d9:c5:77:cd:97:ee:8d:fa:f1:80:86:
                    dd:7f:11:41:dc:1f:7c:07:c8:e0:b3:43:44:60:f8:
                    83:b0:69:b9:80:8a:44:f1:e6:e4:9f:70:50:fd:a2:
                    2a:12:fe:aa:1f:ff:47:94:fb:71:47:36:da:d6:d0:
                    d0:fc:7d:a0:71:b0:12:86:82:ed:b0:0a:44:80:fb:
                    29:d6:dd:c8:47:ab:3c:67:ae:c2:5c:0a:f3:64:fe:
                    0f:53:48:31:8b:8a:90:fb:0b:aa:5a:5a:fc:b6:c9:
                    70:2d:58:d0:a9:6e:d0:ea:8b:d5:92:65:45:99:1a:
                    ed:b6:40:78:ea:85:46:5e:d6:e3:6c:6f:a2:84:49:
                    8f:98:0c:bb:4a:ff:dd:fc:e0:96:ba:4f:df:0d:7a:
                    62:5b:1c:0f:c8:f8:14:2f:bf:27:7f:b7:73:45:cd:
                    73:ee:42:00:66:7c:2a:07:e6:0c:e3:96:f9:ea:3f:
                    4e:dc:46:65:40:02:7d:29:68:86:c6:9f:9f:9e:e5:
                    8d:53:3c:e5:50:f8:35:0f:d9:2f:93:7e:92:6c:50:
                    63:95:68:75:83:b9:a7:84:89:9b:74:5d:c4:9a:7c:
                    7a:6a:58:32:77:de:6e:22:2a:07:e7:9f:66:b2:db:
                    f8:e5:9b:e3:3d:f6:d6:47:60:94:00:d9:27:0b:19:
                    45:75:e9:f6:ba:07:96:8c:67:e0:b1:0d:aa:0f:3c:
                    78:b8:a3:15:f4:b9:78:a2:a4:9a:c0:96:63:e4:4f:
                    78:a1:a7:cb:55:a2:10:5e:94:e6:df:b8:05:2c:29:
                    c1:5e:8c:5e:70:a1:66:a3:a5:7e:d5:1e:3a:23:04:
                    b0:7f:ce:92:b9:13:59:15:8e:e3:a6:85:a2:be:6a:
                    bd:bb:9a:42:42:a6:93:3b:5d:c4:6f:7a:c5:12:7b:
                    69:fc:13
                Exponent: 65537 (0x10001)
        X509v3 extensions:
            X509v3 Basic Constraints: 
                CA:FALSE
            Netscape Comment: 
                Easy-RSA Generated Certificate
            X509v3 Subject Key Identifier: 
                FC:76:90:2A:4F:AA:E0:89:A5:29:63:11:9C:E9:2B:5E:1D:09:1C:CF
            X509v3 Authority Key Identifier: 
                keyid:12:CD:60:04:D2:A0:80:9E:70:ED:C6:99:B8:7B:2C:C6:52:FD:19:A1
                DirName:/C=US/ST=OH/L=Columbus/O=VikingVPN/OU=MyOrganizationalUnit/CN=VikingVPN CA/name=EasyRSA/emailAddress=me@myhost.mydomain
                serial:CF:35:85:EE:80:BF:2A:3E

            X509v3 Extended Key Usage: 
                TLS Web Client Authentication
            X509v3 Key Usage: 
                Digital Signature
    Signature Algorithm: md5WithRSAEncryption
         29:84:fc:4a:76:9e:c8:2d:12:cf:0d:c9:43:d6:fa:19:b9:d3:
         75:70:bd:12:5b:d0:01:82:8c:8e:db:e9:8a:51:30:5f:e0:61:
         80:db:07:3d:99:49:ca:b7:d8:dc:9f:99:14:32:f7:01:be:b1:
         9b:4e:7f:37:dc:71:51:b8:dd:6a:94:eb:91:30:05:fa:33:4a:
         dd:eb:55:9a:3d:25:bb:a0:44:be:12:c1:25:e8:e6:85:7f:d7:
         7d:be:be:e5:1c:26:16:57:d4:e9:08:7f:89:a7:5e:56:76:5c:
         bf:48:78:8a:f0:78:01:f1:08:ef:c1:9c:cb:94:93:fb:d3:20:
         fb:4b:5b:95:28:6a:c2:4d:f8:d2:45:5c:f8:1c:e3:d7:54:0e:
         73:46:aa:13:d5:59:c4:7b:b9:ee:56:24:0c:87:80:72:57:10:
         28:14:36:ee:fd:b0:b1:1e:30:92:7b:0d:c5:66:e1:dc:8b:5d:
         a4:fc:09:6b:99:7f:8d:69:18:46:a9:0f:b8:af:07:f9:e5:d7:
         8d:0e:55:60:07:89:f7:aa:88:d7:d7:e9:d1:24:c8:d6:94:4a:
         a9:11:45:fa:5c:4c:a9:90:7d:96:e1:70:09:68:03:da:af:61:
         e8:0b:0c:02:00:08:76:19:33:51:a3:15:84:94:b0:b5:d1:30:
         df:19:6f:6f:c2:0c:e3:5d:4e:62:5e:4d:2f:54:4f:ac:aa:bb:
         45:b4:59:9f:b4:6e:5a:85:a7:78:de:33:74:97:0d:34:c4:7a:
         de:19:ed:55:5f:eb:7c:e7:e9:58:01:38:3f:48:7a:1a:22:c3:
         76:20:77:bf:c2:f9:7e:19:f9:37:bd:24:d8:ae:b5:5f:b7:9e:
         01:8f:3c:bd:da:eb:b2:53:14:73:cf:b2:97:eb:e3:cd:de:9e:
         14:17:5d:64:58:b2:62:fe:64:87:af:84:8f:e2:51:1b:4d:12:
         c2:33:f5:74:f3:0b:84:eb:c9:bc:f9:50:e3:e2:49:8f:c5:ea:
         b9:11:81:b9:e7:0b:63:4d:e6:85:82:0f:66:11:0a:3a:94:a8:
         07:c6:fb:19:55:ba:3d:82:c1:ff:50:af:fa:4e:db:61:94:33:
         90:a6:b4:7b:50:42:ee:50:f8:ae:43:ab:e2:a1:cd:ec:bb:4b:
         3e:1d:8c:6b:be:61:b1:7c:67:8d:82:9a:9b:a4:ff:6e:b1:41:
         1c:f4:c6:d9:c8:30:2c:86:41:f2:04:27:0a:f9:76:c8:ff:05:
         61:ff:0d:86:6e:9a:68:43:59:da:1b:b1:1a:e6:e2:04:18:1e:
         d7:9f:21:fe:47:e9:c0:62:9d:fe:16:80:77:74:05:ad:62:cb:
         5f:64:6f:b2:9e:01:98:5a
-----BEGIN CERTIFICATE-----
MIIGrTCCBJWgAwIBAgICHGQwDQYJKoZIhvcNAQEEBQAwgawxCzAJBgNVBAYTAlVT
MQswCQYDVQQIEwJPSDERMA8GA1UEBxMIQ29sdW1idXMxEjAQBgNVBAoTCVZpa2lu
Z1ZQTjEdMBsGA1UECxMUTXlPcmdhbml6YXRpb25hbFVuaXQxFTATBgNVBAMTDFZp
a2luZ1ZQTiBDQTEQMA4GA1UEKRMHRWFzeVJTQTEhMB8GCSqGSIb3DQEJARYSbWVA
bXlob3N0Lm15ZG9tYWluMB4XDTE2MDIyMjA1NTQzOVoXDTI2MDIxOTA1NTQzOVow
HzEdMBsGA1UEAxMUQ2xpZW50MjE4OENlcnQxMzU4MGYwggIiMA0GCSqGSIb3DQEB
AQUAA4ICDwAwggIKAoICAQDAkCSRf+vfaQY9AcjZMrVrqIr+zojqDpsIjmz2ke9a
dGKpmssEKlOjvl+ldKP9ZCMl5pniL482QNJkDBzNRirLBLmikLL8Xt2oRMrDg7Iy
VcMdMQbzhL0TXdpDXAgZHndFMc3LTzOWzK9JOhKt++Ndn4w6hybYUlap80V/I/Ve
A/GRsikfWRuHbJo2vGIiPdKLVP9qEgNNSmRqmevddWDdTYwlwNDzpx3ZxXfNl+6N
+vGAht1/EUHcH3wHyOCzQ0Rg+IOwabmAikTx5uSfcFD9oioS/qof/0eU+3FHNtrW
0ND8faBxsBKGgu2wCkSA+ynW3chHqzxnrsJcCvNk/g9TSDGLipD7C6paWvy2yXAt
WNCpbtDqi9WSZUWZGu22QHjqhUZe1uNsb6KESY+YDLtK/9384Ja6T98NemJbHA/I
+BQvvyd/t3NFzXPuQgBmfCoH5gzjlvnqP07cRmVAAn0paIbGn5+e5Y1TPOVQ+DUP
2S+TfpJsUGOVaHWDuaeEiZt0XcSafHpqWDJ33m4iKgfnn2ay2/jlm+M99tZHYJQA
2ScLGUV16fa6B5aMZ+CxDaoPPHi4oxX0uXiipJrAlmPkT3ihp8tVohBelObfuAUs
KcFejF5woWajpX7VHjojBLB/zpK5E1kVjuOmhaK+ar27mkJCppM7XcRvesUSe2n8
EwIDAQABo4IBYzCCAV8wCQYDVR0TBAIwADAtBglghkgBhvhCAQ0EIBYeRWFzeS1S
U0EgR2VuZXJhdGVkIENlcnRpZmljYXRlMB0GA1UdDgQWBBT8dpAqT6rgiaUpYxGc
6SteHQkczzCB4QYDVR0jBIHZMIHWgBQSzWAE0qCAnnDtxpm4eyzGUv0ZoaGBsqSB
rzCBrDELMAkGA1UEBhMCVVMxCzAJBgNVBAgTAk9IMREwDwYDVQQHEwhDb2x1bWJ1
czESMBAGA1UEChMJVmlraW5nVlBOMR0wGwYDVQQLExRNeU9yZ2FuaXphdGlvbmFs
VW5pdDEVMBMGA1UEAxMMVmlraW5nVlBOIENBMRAwDgYDVQQpEwdFYXN5UlNBMSEw
HwYJKoZIhvcNAQkBFhJtZUBteWhvc3QubXlkb21haW6CCQDPNYXugL8qPjATBgNV
HSUEDDAKBggrBgEFBQcDAjALBgNVHQ8EBAMCB4AwDQYJKoZIhvcNAQEEBQADggIB
ACmE/Ep2nsgtEs8NyUPW+hm503VwvRJb0AGCjI7b6YpRMF/gYYDbBz2ZScq32Nyf
mRQy9wG+sZtOfzfccVG43WqU65EwBfozSt3rVZo9JbugRL4SwSXo5oV/132+vuUc
JhZX1OkIf4mnXlZ2XL9IeIrweAHxCO/BnMuUk/vTIPtLW5UoasJN+NJFXPgc49dU
DnNGqhPVWcR7ue5WJAyHgHJXECgUNu79sLEeMJJ7DcVm4dyLXaT8CWuZf41pGEap
D7ivB/nl140OVWAHifeqiNfX6dEkyNaUSqkRRfpcTKmQfZbhcAloA9qvYegLDAIA
CHYZM1GjFYSUsLXRMN8Zb2/CDONdTmJeTS9UT6yqu0W0WZ+0blqFp3jeM3SXDTTE
et4Z7VVf63zn6VgBOD9Iehoiw3Ygd7/C+X4Z+Te9JNiutV+3ngGPPL3a67JTFHPP
spfr483enhQXXWRYsmL+ZIevhI/iURtNEsIz9XTzC4Trybz5UOPiSY/F6rkRgbnn
C2NN5oWCD2YRCjqUqAfG+xlVuj2Cwf9Qr/pO22GUM5CmtHtQQu5Q+K5Dq+Khzey7
Sz4djGu+YbF8Z42Cmpuk/26xQRz0xtnIMCyGQfIEJwr5dsj/BWH/DYZummhDWdob
sRrm4gQYHtefIf5H6cBinf4WgHd0Ba1iy19kb7KeAZha
-----END CERTIFICATE-----
