Certificate:
    Data:
        Version: 3 (0x2)
        Serial Number: 7276 (0x1c6c)
    Signature Algorithm: md5WithRSAEncryption
        Issuer: C=US, ST=OH, L=Columbus, O=VikingVPN, OU=MyOrganizationalUnit, CN=VikingVPN CA/name=EasyRSA/emailAddress=me@myhost.mydomain
        Validity
            Not Before: Feb 23 13:28:06 2016 GMT
            Not After : Feb 20 13:28:06 2026 GMT
        Subject: CN=Client1776Certfa699d
        Subject Public Key Info:
            Public Key Algorithm: rsaEncryption
                Public-Key: (4096 bit)
                Modulus:
                    00:c8:82:c0:48:90:90:51:71:c9:65:36:d7:ce:16:
                    fd:f4:59:2f:95:dc:74:bd:37:5d:9f:58:5f:3e:6c:
                    92:80:51:bf:b5:79:06:b7:20:6a:15:c3:9d:17:a8:
                    80:1b:21:5c:ae:39:af:47:e7:c0:49:e8:40:a8:e7:
                    c1:5c:4e:be:7c:87:58:66:d7:4a:34:7e:6e:65:8f:
                    65:46:ba:3e:1a:15:da:62:77:5d:ac:de:be:2e:cf:
                    2b:3a:00:6c:53:eb:68:78:f6:3d:f4:fa:38:7e:af:
                    12:93:37:e9:fa:df:a0:a6:3d:fd:f0:01:b7:9f:b3:
                    67:f9:21:d6:f6:4d:ab:c7:27:c5:42:d0:cb:5b:41:
                    ad:70:06:46:9b:f9:43:85:eb:39:4d:96:3d:a9:ab:
                    e3:f9:41:11:13:dc:6f:96:a0:11:f1:7f:42:05:7a:
                    01:7e:25:d5:b6:69:da:3a:38:3a:15:00:54:6b:0b:
                    05:28:0a:b6:5a:4c:5a:a3:42:02:94:cc:f1:bd:3b:
                    61:b1:d8:cf:07:6d:37:3d:53:ab:e9:a7:27:05:b4:
                    1b:4c:70:6f:70:ea:99:b6:36:f1:99:df:24:7c:50:
                    f8:67:ee:c4:11:1f:75:ea:7a:8f:e6:17:21:76:29:
                    37:9e:11:3c:7b:f2:61:59:12:ef:cb:57:43:e1:08:
                    ce:a4:c9:6f:75:21:61:83:07:c5:2a:42:de:bb:45:
                    07:f9:2e:ac:23:82:25:08:26:26:e8:34:01:92:57:
                    e7:23:60:d5:d9:18:10:df:e4:33:e3:4d:c6:7a:8a:
                    f4:c7:e1:12:8c:d0:c5:7e:94:40:91:12:f3:8a:87:
                    4e:33:dc:63:2a:01:b1:74:6c:6e:ff:9c:0b:7f:bd:
                    ec:2b:2a:1f:14:8e:30:fd:1a:e5:68:7c:6b:ef:d8:
                    1e:76:50:b6:bf:cb:e1:2d:f6:f7:04:d2:9b:0d:10:
                    24:44:4c:59:df:02:94:e6:78:94:ab:7a:9f:32:f1:
                    6e:d2:8e:aa:94:92:35:82:f4:94:eb:cd:ea:48:32:
                    87:4b:50:db:16:99:97:65:dd:00:1e:d9:64:b3:9a:
                    b2:e7:7f:6d:fc:b8:15:0c:8f:a7:ad:10:ae:91:0b:
                    e8:6b:14:b0:d7:af:63:a1:38:26:ae:01:fb:a6:57:
                    95:bc:8e:6c:38:00:9d:97:f6:05:ba:11:6a:ab:90:
                    d3:24:de:50:91:68:a2:c7:0c:55:b8:f3:bc:45:c1:
                    fa:93:80:08:78:24:64:a7:37:3e:be:10:43:9a:eb:
                    54:1c:70:b9:9b:f0:e9:0e:b9:27:8b:68:6a:10:2e:
                    ba:86:16:75:3c:57:2e:94:8f:d8:d1:a6:b7:0e:3c:
                    2e:d1:37
                Exponent: 65537 (0x10001)
        X509v3 extensions:
            X509v3 Basic Constraints: 
                CA:FALSE
            Netscape Comment: 
                Easy-RSA Generated Certificate
            X509v3 Subject Key Identifier: 
                64:A1:AB:E2:74:07:BA:26:46:F4:2A:89:74:23:CE:7C:CC:D7:9B:51
            X509v3 Authority Key Identifier: 
                keyid:12:CD:60:04:D2:A0:80:9E:70:ED:C6:99:B8:7B:2C:C6:52:FD:19:A1
                DirName:/C=US/ST=OH/L=Columbus/O=VikingVPN/OU=MyOrganizationalUnit/CN=VikingVPN CA/name=EasyRSA/emailAddress=me@myhost.mydomain
                serial:CF:35:85:EE:80:BF:2A:3E

            X509v3 Extended Key Usage: 
                TLS Web Client Authentication
            X509v3 Key Usage: 
                Digital Signature
    Signature Algorithm: md5WithRSAEncryption
         6c:4f:11:64:9e:b0:96:81:11:4e:12:a6:b6:ef:40:e4:a6:90:
         b7:b3:ac:a9:33:19:aa:68:1c:7c:1d:11:1d:3d:2e:de:f0:60:
         fb:c7:cd:a7:08:68:34:f1:38:d9:b7:f2:f5:74:a8:78:9b:4d:
         79:23:b2:bc:d4:da:86:0e:aa:78:c1:c4:d2:d0:7c:f6:94:e5:
         be:da:20:14:44:ad:ae:d9:3f:40:a2:56:c1:03:b6:04:5c:ae:
         5c:e9:4a:c9:b4:a0:65:1b:2a:f7:0f:fa:fd:de:1a:19:5e:af:
         5c:0c:f8:6a:57:9c:76:82:b6:43:de:47:93:d2:61:b5:8a:20:
         7a:ea:09:a9:4e:6b:7d:97:1f:65:84:82:b8:71:ba:75:75:c5:
         c5:93:19:19:90:36:82:3a:85:36:5d:f3:ed:20:0b:33:1f:8f:
         0e:82:5d:83:76:e9:19:a4:5f:e0:b9:2f:75:98:ec:e5:ee:5e:
         6c:ca:ca:3e:69:10:5a:7b:93:74:78:73:ee:51:87:cf:f3:d1:
         0f:eb:95:9f:c5:bc:70:05:31:4d:2b:30:c7:21:a5:c3:b7:66:
         ab:65:b6:7d:7e:84:d7:8d:96:57:fb:1b:12:ef:f9:79:c5:90:
         ce:39:d6:36:68:94:74:b2:89:f9:72:83:ef:60:75:6c:5b:3b:
         be:37:01:7c:cf:9e:78:42:90:2e:b1:45:b2:10:45:44:97:8d:
         54:42:69:52:19:70:a0:7e:a1:b1:ea:64:93:fa:66:73:78:8f:
         be:3c:b3:b7:81:9a:1a:a1:2d:94:df:3b:6a:6a:f9:28:88:c7:
         17:f5:4e:bb:0f:74:63:6d:29:22:0f:b7:31:56:8c:2f:74:96:
         65:2f:f4:e1:08:02:a7:2d:ac:5c:fb:ce:43:45:4b:18:72:34:
         f0:0f:15:27:86:e5:67:c8:a6:4f:de:19:b9:16:fb:6d:5a:af:
         fa:1f:03:fb:ce:bc:3d:8a:fd:73:dc:0e:36:6d:b7:c4:93:a0:
         a4:07:78:68:d6:a5:88:01:71:b0:28:d7:d9:e4:12:c2:99:f9:
         c5:ac:bf:5e:c1:76:d0:1a:a0:60:97:79:27:d4:7c:69:42:f1:
         81:9e:f2:b5:6e:13:0f:1e:95:a7:96:cf:f3:a1:9c:c8:47:ef:
         88:0f:c6:3f:f1:d7:20:82:c8:5e:ff:16:68:4d:19:a8:47:8f:
         54:21:12:14:0b:14:5e:9c:d4:5f:8f:ef:1d:c3:fb:94:d6:a5:
         7c:28:a8:c8:c9:42:d0:b2:10:85:5a:d2:de:5c:22:ea:4c:c9:
         6f:89:59:95:3d:4d:15:18:e7:aa:12:1d:f0:85:ec:7f:2e:0b:
         bb:2c:4f:ad:fc:e1:9d:61
-----BEGIN CERTIFICATE-----
MIIGrTCCBJWgAwIBAgICHGwwDQYJKoZIhvcNAQEEBQAwgawxCzAJBgNVBAYTAlVT
MQswCQYDVQQIEwJPSDERMA8GA1UEBxMIQ29sdW1idXMxEjAQBgNVBAoTCVZpa2lu
Z1ZQTjEdMBsGA1UECxMUTXlPcmdhbml6YXRpb25hbFVuaXQxFTATBgNVBAMTDFZp
a2luZ1ZQTiBDQTEQMA4GA1UEKRMHRWFzeVJTQTEhMB8GCSqGSIb3DQEJARYSbWVA
bXlob3N0Lm15ZG9tYWluMB4XDTE2MDIyMzEzMjgwNloXDTI2MDIyMDEzMjgwNlow
HzEdMBsGA1UEAxMUQ2xpZW50MTc3NkNlcnRmYTY5OWQwggIiMA0GCSqGSIb3DQEB
AQUAA4ICDwAwggIKAoICAQDIgsBIkJBRccllNtfOFv30WS+V3HS9N12fWF8+bJKA
Ub+1eQa3IGoVw50XqIAbIVyuOa9H58BJ6ECo58FcTr58h1hm10o0fm5lj2VGuj4a
Fdpid12s3r4uzys6AGxT62h49j30+jh+rxKTN+n636CmPf3wAbefs2f5Idb2TavH
J8VC0MtbQa1wBkab+UOF6zlNlj2pq+P5QRET3G+WoBHxf0IFegF+JdW2ado6ODoV
AFRrCwUoCrZaTFqjQgKUzPG9O2Gx2M8HbTc9U6vppycFtBtMcG9w6pm2NvGZ3yR8
UPhn7sQRH3Xqeo/mFyF2KTeeETx78mFZEu/LV0PhCM6kyW91IWGDB8UqQt67RQf5
LqwjgiUIJiboNAGSV+cjYNXZGBDf5DPjTcZ6ivTH4RKM0MV+lECREvOKh04z3GMq
AbF0bG7/nAt/vewrKh8UjjD9GuVofGvv2B52ULa/y+Et9vcE0psNECRETFnfApTm
eJSrep8y8W7SjqqUkjWC9JTrzepIModLUNsWmZdl3QAe2WSzmrLnf238uBUMj6et
EK6RC+hrFLDXr2OhOCauAfumV5W8jmw4AJ2X9gW6EWqrkNMk3lCRaKLHDFW487xF
wfqTgAh4JGSnNz6+EEOa61QccLmb8OkOuSeLaGoQLrqGFnU8Vy6Uj9jRprcOPC7R
NwIDAQABo4IBYzCCAV8wCQYDVR0TBAIwADAtBglghkgBhvhCAQ0EIBYeRWFzeS1S
U0EgR2VuZXJhdGVkIENlcnRpZmljYXRlMB0GA1UdDgQWBBRkoavidAe6Jkb0Kol0
I858zNebUTCB4QYDVR0jBIHZMIHWgBQSzWAE0qCAnnDtxpm4eyzGUv0ZoaGBsqSB
rzCBrDELMAkGA1UEBhMCVVMxCzAJBgNVBAgTAk9IMREwDwYDVQQHEwhDb2x1bWJ1
czESMBAGA1UEChMJVmlraW5nVlBOMR0wGwYDVQQLExRNeU9yZ2FuaXphdGlvbmFs
VW5pdDEVMBMGA1UEAxMMVmlraW5nVlBOIENBMRAwDgYDVQQpEwdFYXN5UlNBMSEw
HwYJKoZIhvcNAQkBFhJtZUBteWhvc3QubXlkb21haW6CCQDPNYXugL8qPjATBgNV
HSUEDDAKBggrBgEFBQcDAjALBgNVHQ8EBAMCB4AwDQYJKoZIhvcNAQEEBQADggIB
AGxPEWSesJaBEU4SprbvQOSmkLezrKkzGapoHHwdER09Lt7wYPvHzacIaDTxONm3
8vV0qHibTXkjsrzU2oYOqnjBxNLQfPaU5b7aIBREra7ZP0CiVsEDtgRcrlzpSsm0
oGUbKvcP+v3eGhler1wM+GpXnHaCtkPeR5PSYbWKIHrqCalOa32XH2WEgrhxunV1
xcWTGRmQNoI6hTZd8+0gCzMfjw6CXYN26RmkX+C5L3WY7OXuXmzKyj5pEFp7k3R4
c+5Rh8/z0Q/rlZ/FvHAFMU0rMMchpcO3Zqtltn1+hNeNllf7GxLv+XnFkM451jZo
lHSyiflyg+9gdWxbO743AXzPnnhCkC6xRbIQRUSXjVRCaVIZcKB+obHqZJP6ZnN4
j748s7eBmhqhLZTfO2pq+SiIxxf1TrsPdGNtKSIPtzFWjC90lmUv9OEIAqctrFz7
zkNFSxhyNPAPFSeG5WfIpk/eGbkW+21ar/ofA/vOvD2K/XPcDjZtt8SToKQHeGjW
pYgBcbAo19nkEsKZ+cWsv17BdtAaoGCXeSfUfGlC8YGe8rVuEw8elaeWz/OhnMhH
74gPxj/x1yCCyF7/FmhNGahHj1QhEhQLFF6c1F+P7x3D+5TWpXwoqMjJQtCyEIVa
0t5cIupMyW+JWZU9TRUY56oSHfCF7H8uC7ssT6384Z1h
-----END CERTIFICATE-----
