Certificate:
    Data:
        Version: 3 (0x2)
        Serial Number: 7305 (0x1c89)
    Signature Algorithm: md5WithRSAEncryption
        Issuer: C=US, ST=OH, L=Columbus, O=VikingVPN, OU=MyOrganizationalUnit, CN=VikingVPN CA/name=EasyRSA/emailAddress=me@myhost.mydomain
        Validity
            Not Before: Feb 26 05:08:12 2016 GMT
            Not After : Feb 23 05:08:12 2026 GMT
        Subject: CN=Client2189Cert67cc81
        Subject Public Key Info:
            Public Key Algorithm: rsaEncryption
                Public-Key: (4096 bit)
                Modulus:
                    00:f5:cb:dd:b8:fa:30:0d:95:00:07:44:7b:2d:d4:
                    e0:b9:11:45:68:37:64:09:73:61:24:2b:85:38:e0:
                    4c:72:09:ec:08:67:49:f0:7c:72:84:94:08:3d:ea:
                    2a:30:7e:d9:25:75:ad:1e:fe:ad:f4:6e:6d:cc:72:
                    30:2a:7e:fa:a8:c3:6d:94:63:31:77:a8:c9:60:bb:
                    f7:a0:97:45:9d:92:0b:28:d0:33:c2:ad:88:bb:26:
                    b2:10:35:c5:ee:2c:73:d2:2b:b2:be:9c:d9:b9:3f:
                    07:56:89:35:44:b2:94:40:c5:4a:26:8d:eb:c7:45:
                    d6:10:ae:be:a5:6c:9b:36:b4:3e:a8:5b:05:ad:8a:
                    87:6d:97:04:ce:75:9e:5e:4a:a8:1d:0c:93:02:5b:
                    c0:01:af:38:cb:ff:9c:83:4c:e6:65:40:25:85:22:
                    ac:1d:4e:d3:fe:e1:b4:e3:fd:80:d3:c5:e6:03:b4:
                    e5:50:c9:2c:be:c3:43:2f:e4:42:bc:e8:81:ea:eb:
                    d3:51:aa:cf:2e:ae:2a:67:2c:df:b6:a8:e9:7f:cd:
                    4c:31:49:a7:97:ed:99:2f:9e:91:80:e3:dc:76:dc:
                    c3:c2:8b:c3:41:84:00:b8:66:19:92:c9:71:dd:b4:
                    79:cf:d5:4b:1d:fd:8b:f4:7b:80:ee:53:e3:d7:90:
                    2d:d5:35:f9:50:56:2d:4c:2e:d9:16:25:a1:9b:8c:
                    0f:aa:17:3e:d3:df:da:5c:ab:09:70:98:c7:fe:b3:
                    99:eb:bb:cd:cc:63:2f:2b:db:ae:bf:f4:56:ac:04:
                    5e:5e:9d:4c:f0:5c:62:03:87:46:00:f2:00:a9:6a:
                    ef:20:42:50:87:36:78:ac:3b:76:15:b2:fd:4f:89:
                    fa:61:f3:1a:99:eb:f6:10:2a:9d:90:5d:5d:29:94:
                    f1:f9:79:a9:1a:46:70:ef:31:2f:46:d2:01:5c:4e:
                    10:47:7e:66:3d:d1:31:b3:5b:9c:ff:8a:fe:61:b4:
                    cf:63:a4:2f:a2:16:72:c9:05:57:2d:79:a6:e3:4d:
                    9d:20:a1:23:45:68:c3:7f:3d:32:f0:5c:63:fa:2c:
                    19:f7:de:b6:d4:26:de:85:29:48:fb:a4:92:a8:07:
                    23:35:24:b6:de:06:42:d5:5f:17:ac:d3:96:3a:ba:
                    ee:b1:82:ef:ec:e5:b6:fb:71:80:fe:d3:50:6b:d1:
                    c1:0e:91:50:82:cc:d8:a1:86:72:8d:da:60:5b:57:
                    60:23:c4:c1:08:c5:fe:a7:2a:70:31:15:a5:57:a8:
                    ea:e0:53:b8:46:b3:5f:e9:df:f1:1e:90:c2:42:4b:
                    37:ad:06:c5:a3:54:62:e2:c3:a0:91:a1:7b:1f:6d:
                    0b:df:8d
                Exponent: 65537 (0x10001)
        X509v3 extensions:
            X509v3 Basic Constraints: 
                CA:FALSE
            Netscape Comment: 
                Easy-RSA Generated Certificate
            X509v3 Subject Key Identifier: 
                76:C1:72:0D:8F:25:24:B8:A0:0F:FE:56:F1:55:28:E7:1D:72:0B:B1
            X509v3 Authority Key Identifier: 
                keyid:12:CD:60:04:D2:A0:80:9E:70:ED:C6:99:B8:7B:2C:C6:52:FD:19:A1
                DirName:/C=US/ST=OH/L=Columbus/O=VikingVPN/OU=MyOrganizationalUnit/CN=VikingVPN CA/name=EasyRSA/emailAddress=me@myhost.mydomain
                serial:CF:35:85:EE:80:BF:2A:3E

            X509v3 Extended Key Usage: 
                TLS Web Client Authentication
            X509v3 Key Usage: 
                Digital Signature
    Signature Algorithm: md5WithRSAEncryption
         cb:03:70:1d:9d:4a:ba:bf:3d:50:2e:54:9e:d8:c7:b1:fa:ca:
         f9:2f:ed:ba:93:a7:d1:79:f6:ad:0e:75:65:0c:c6:e5:ac:bb:
         a0:2a:52:3a:c1:82:2b:61:fc:de:93:da:42:ae:4a:9a:2a:c0:
         1f:a1:cb:2b:f8:15:1c:d7:1a:4e:76:be:3e:4a:1c:d4:61:c6:
         f1:fe:17:b6:f7:ca:58:1a:29:fd:ba:05:29:24:49:bf:1f:96:
         1c:3b:42:03:57:c5:7f:ec:eb:d5:e4:bf:3c:04:cf:cb:23:d9:
         3e:3a:0f:6e:1d:5d:9d:bd:2e:4a:30:0f:76:54:11:be:a7:43:
         6f:52:d7:56:8e:39:80:72:91:1a:70:f6:3d:44:1a:87:4f:16:
         4f:34:60:6c:f8:76:70:ed:75:13:38:e6:77:51:4f:ab:d5:67:
         92:27:09:97:bd:1c:5a:d0:9b:e4:04:1c:ca:01:c2:79:e9:9f:
         93:7c:a8:02:73:d4:94:04:44:35:30:77:e1:82:2c:cc:4a:60:
         42:b9:ce:0e:d2:3b:b1:76:52:bf:c4:a3:6f:f2:24:e1:5f:b0:
         91:28:01:84:8f:2c:80:67:0c:27:4a:02:f8:c5:f9:e8:d1:6d:
         d8:ad:b3:6e:3e:0b:55:17:01:4e:96:60:d9:00:15:10:f6:75:
         84:e7:82:bc:75:4f:16:38:97:fc:75:b0:50:16:f4:9a:c9:6b:
         ae:90:3c:7c:b3:8e:1f:fe:94:91:cb:72:f1:80:4e:65:55:ed:
         ce:be:40:6a:c5:2b:13:8f:3d:f9:e3:0b:19:0c:6f:f0:52:6d:
         61:8a:ac:5d:63:27:77:a3:7b:3e:9d:32:f4:12:1b:6d:b1:c9:
         25:0c:1e:7a:61:4e:65:76:58:d1:19:cf:8d:95:c6:c7:c4:a3:
         6a:82:59:1e:88:f3:07:75:b4:22:c2:fe:da:fb:52:ae:5b:09:
         0b:75:eb:e3:81:f4:88:52:a9:b0:46:7c:11:44:b8:dc:46:87:
         e8:d0:d1:82:d1:bd:85:1a:11:b8:85:73:39:6c:87:4e:f7:d9:
         a4:b3:04:37:71:2f:f6:10:1b:4e:85:5f:ee:af:28:1c:ce:35:
         0c:8a:0f:fe:27:e0:ed:6e:4f:dc:a6:85:f3:6e:2a:13:32:c4:
         75:91:2c:aa:39:79:dd:65:8f:ef:fc:a1:76:94:cd:0e:cc:fd:
         68:4a:e5:5f:54:46:01:ca:7f:1e:d0:d1:16:d5:b1:ea:22:fe:
         fd:95:0b:6c:2d:83:7a:9b:22:63:1e:cb:35:05:53:cb:d0:87:
         77:8e:66:f7:b8:76:e2:64:37:08:7e:b9:69:25:61:bd:fe:fa:
         b4:10:15:85:4c:e6:9d:06
-----BEGIN CERTIFICATE-----
MIIGrTCCBJWgAwIBAgICHIkwDQYJKoZIhvcNAQEEBQAwgawxCzAJBgNVBAYTAlVT
MQswCQYDVQQIEwJPSDERMA8GA1UEBxMIQ29sdW1idXMxEjAQBgNVBAoTCVZpa2lu
Z1ZQTjEdMBsGA1UECxMUTXlPcmdhbml6YXRpb25hbFVuaXQxFTATBgNVBAMTDFZp
a2luZ1ZQTiBDQTEQMA4GA1UEKRMHRWFzeVJTQTEhMB8GCSqGSIb3DQEJARYSbWVA
bXlob3N0Lm15ZG9tYWluMB4XDTE2MDIyNjA1MDgxMloXDTI2MDIyMzA1MDgxMlow
HzEdMBsGA1UEAxMUQ2xpZW50MjE4OUNlcnQ2N2NjODEwggIiMA0GCSqGSIb3DQEB
AQUAA4ICDwAwggIKAoICAQD1y924+jANlQAHRHst1OC5EUVoN2QJc2EkK4U44Exy
CewIZ0nwfHKElAg96iowftklda0e/q30bm3McjAqfvqow22UYzF3qMlgu/egl0Wd
kgso0DPCrYi7JrIQNcXuLHPSK7K+nNm5PwdWiTVEspRAxUomjevHRdYQrr6lbJs2
tD6oWwWtiodtlwTOdZ5eSqgdDJMCW8ABrzjL/5yDTOZlQCWFIqwdTtP+4bTj/YDT
xeYDtOVQySy+w0Mv5EK86IHq69NRqs8uripnLN+2qOl/zUwxSaeX7ZkvnpGA49x2
3MPCi8NBhAC4ZhmSyXHdtHnP1Usd/Yv0e4DuU+PXkC3VNflQVi1MLtkWJaGbjA+q
Fz7T39pcqwlwmMf+s5nru83MYy8r266/9FasBF5enUzwXGIDh0YA8gCpau8gQlCH
NnisO3YVsv1Pifph8xqZ6/YQKp2QXV0plPH5eakaRnDvMS9G0gFcThBHfmY90TGz
W5z/iv5htM9jpC+iFnLJBVcteabjTZ0goSNFaMN/PTLwXGP6LBn33rbUJt6FKUj7
pJKoByM1JLbeBkLVXxes05Y6uu6xgu/s5bb7cYD+01Br0cEOkVCCzNihhnKN2mBb
V2AjxMEIxf6nKnAxFaVXqOrgU7hGs1/p3/EekMJCSzetBsWjVGLiw6CRoXsfbQvf
jQIDAQABo4IBYzCCAV8wCQYDVR0TBAIwADAtBglghkgBhvhCAQ0EIBYeRWFzeS1S
U0EgR2VuZXJhdGVkIENlcnRpZmljYXRlMB0GA1UdDgQWBBR2wXINjyUkuKAP/lbx
VSjnHXILsTCB4QYDVR0jBIHZMIHWgBQSzWAE0qCAnnDtxpm4eyzGUv0ZoaGBsqSB
rzCBrDELMAkGA1UEBhMCVVMxCzAJBgNVBAgTAk9IMREwDwYDVQQHEwhDb2x1bWJ1
czESMBAGA1UEChMJVmlraW5nVlBOMR0wGwYDVQQLExRNeU9yZ2FuaXphdGlvbmFs
VW5pdDEVMBMGA1UEAxMMVmlraW5nVlBOIENBMRAwDgYDVQQpEwdFYXN5UlNBMSEw
HwYJKoZIhvcNAQkBFhJtZUBteWhvc3QubXlkb21haW6CCQDPNYXugL8qPjATBgNV
HSUEDDAKBggrBgEFBQcDAjALBgNVHQ8EBAMCB4AwDQYJKoZIhvcNAQEEBQADggIB
AMsDcB2dSrq/PVAuVJ7Yx7H6yvkv7bqTp9F59q0OdWUMxuWsu6AqUjrBgith/N6T
2kKuSpoqwB+hyyv4FRzXGk52vj5KHNRhxvH+F7b3ylgaKf26BSkkSb8flhw7QgNX
xX/s69XkvzwEz8sj2T46D24dXZ29LkowD3ZUEb6nQ29S11aOOYBykRpw9j1EGodP
Fk80YGz4dnDtdRM45ndRT6vVZ5InCZe9HFrQm+QEHMoBwnnpn5N8qAJz1JQERDUw
d+GCLMxKYEK5zg7SO7F2Ur/Eo2/yJOFfsJEoAYSPLIBnDCdKAvjF+ejRbdits24+
C1UXAU6WYNkAFRD2dYTngrx1TxY4l/x1sFAW9JrJa66QPHyzjh/+lJHLcvGATmVV
7c6+QGrFKxOPPfnjCxkMb/BSbWGKrF1jJ3ejez6dMvQSG22xySUMHnphTmV2WNEZ
z42VxsfEo2qCWR6I8wd1tCLC/tr7Uq5bCQt16+OB9IhSqbBGfBFEuNxGh+jQ0YLR
vYUaEbiFczlsh0732aSzBDdxL/YQG06FX+6vKBzONQyKD/4n4O1uT9ymhfNuKhMy
xHWRLKo5ed1lj+/8oXaUzQ7M/WhK5V9URgHKfx7Q0RbVseoi/v2VC2wtg3qbImMe
yzUFU8vQh3eOZve4duJkNwh+uWklYb3++rQQFYVM5p0G
-----END CERTIFICATE-----
