Certificate:
    Data:
        Version: 3 (0x2)
        Serial Number: 7317 (0x1c95)
    Signature Algorithm: md5WithRSAEncryption
        Issuer: C=US, ST=OH, L=Columbus, O=VikingVPN, OU=MyOrganizationalUnit, CN=VikingVPN CA/name=EasyRSA/emailAddress=me@myhost.mydomain
        Validity
            Not Before: Feb 27 15:42:25 2016 GMT
            Not After : Feb 24 15:42:25 2026 GMT
        Subject: CN=Client1803Cert5d70be
        Subject Public Key Info:
            Public Key Algorithm: rsaEncryption
                Public-Key: (4096 bit)
                Modulus:
                    00:bc:00:97:8c:6e:7f:49:d9:bb:58:ec:ba:59:f2:
                    af:73:5e:8f:f7:c4:e0:29:17:30:9a:9c:61:2f:96:
                    be:bc:13:ef:34:56:c4:a4:92:5a:20:6a:72:3d:29:
                    19:b7:c3:e7:6f:da:e1:d2:7d:ca:d6:e1:07:b9:6d:
                    1d:7a:07:9e:0f:c3:9c:26:01:04:24:7c:ee:65:22:
                    a2:c2:64:26:6e:30:1d:62:73:3d:59:4b:59:d1:e9:
                    af:10:d0:3f:aa:e5:8d:33:63:18:56:f7:d2:12:d5:
                    bd:73:5c:db:e2:87:51:67:73:f0:8c:70:ef:3b:6b:
                    16:a0:df:fb:7d:38:5d:a4:62:ac:03:6e:a7:37:bd:
                    3f:25:e4:51:0c:1b:f0:51:2e:5f:11:a8:a6:f8:dc:
                    7c:ba:94:63:2f:04:f1:19:31:5d:bc:73:61:2a:c6:
                    00:03:24:a8:25:6c:a8:4b:a7:47:36:91:3b:ae:75:
                    67:1e:30:97:1a:bd:ac:a4:3c:34:ed:52:22:b8:17:
                    00:c2:a8:38:b5:67:4f:8c:f7:2a:19:98:0c:f4:3d:
                    2b:7d:ad:f2:33:af:b7:e2:b6:95:ab:d2:92:b9:fc:
                    d6:c4:f7:2a:3d:bd:df:99:47:69:94:79:c6:7d:ee:
                    1e:0b:4e:26:02:1f:b5:f8:ce:34:8f:41:51:c0:cd:
                    8b:90:44:27:47:ed:2a:6f:f3:54:ee:01:79:a9:87:
                    f0:bc:06:16:75:a0:36:ef:ab:50:0f:42:d2:80:b2:
                    de:1a:f0:4a:6b:d5:9b:72:bb:78:b8:2a:e9:52:83:
                    34:34:0c:0d:c0:5d:4f:59:9a:82:8f:8f:42:d7:07:
                    f9:e6:34:d8:2f:2c:62:57:fc:08:88:e4:53:6e:8d:
                    29:e6:11:2b:34:17:be:3e:ce:a1:1d:cd:3c:94:72:
                    f1:61:f3:bc:3a:4a:94:60:c7:80:7f:7e:e6:f6:04:
                    ad:7a:77:0e:3c:90:28:d5:c2:99:62:67:ad:e2:9e:
                    6e:51:3b:93:0b:b9:eb:da:ee:49:7e:0a:7b:63:8a:
                    d3:3e:7f:a9:6c:30:77:25:cd:94:04:c3:44:33:4b:
                    d5:73:29:a7:e7:a7:a5:a6:a6:0b:e2:af:be:45:ee:
                    dc:28:22:48:90:91:b3:d6:d3:62:61:91:e6:29:2a:
                    5b:3c:3f:18:49:f4:a3:88:3b:5f:1c:f8:ba:29:e5:
                    e9:0d:0f:c2:ff:7d:88:a1:ea:fe:52:4b:d8:87:ff:
                    f0:59:a6:86:7b:05:da:b9:2c:d9:50:9c:43:d3:fe:
                    9d:8c:56:6e:da:4c:aa:3f:7a:f8:94:16:ae:6e:80:
                    3b:af:9b:b2:2c:59:74:84:cd:d7:e0:aa:71:d4:bb:
                    ee:b2:bd
                Exponent: 65537 (0x10001)
        X509v3 extensions:
            X509v3 Basic Constraints: 
                CA:FALSE
            Netscape Comment: 
                Easy-RSA Generated Certificate
            X509v3 Subject Key Identifier: 
                36:F2:67:F6:5A:76:32:AA:44:56:0C:84:AD:AD:70:AD:65:51:1D:F1
            X509v3 Authority Key Identifier: 
                keyid:12:CD:60:04:D2:A0:80:9E:70:ED:C6:99:B8:7B:2C:C6:52:FD:19:A1
                DirName:/C=US/ST=OH/L=Columbus/O=VikingVPN/OU=MyOrganizationalUnit/CN=VikingVPN CA/name=EasyRSA/emailAddress=me@myhost.mydomain
                serial:CF:35:85:EE:80:BF:2A:3E

            X509v3 Extended Key Usage: 
                TLS Web Client Authentication
            X509v3 Key Usage: 
                Digital Signature
    Signature Algorithm: md5WithRSAEncryption
         d8:1f:e3:5c:cd:e0:4b:44:e0:bb:f2:3f:ac:5f:a7:01:82:3e:
         f3:14:ff:f7:6d:16:51:f1:af:74:81:90:3e:c9:46:87:e5:e9:
         b6:83:70:67:53:a6:ce:ba:79:a9:f6:e6:46:36:0a:8a:8a:cf:
         3c:79:41:b7:89:f9:b2:df:40:d1:e4:54:5c:59:ae:d9:8c:c3:
         c4:20:21:d6:da:e2:41:ad:8f:61:cb:30:d4:25:26:a0:55:ad:
         60:fb:e7:e0:fc:e4:21:00:6a:fd:ea:04:e0:9c:73:2c:eb:1a:
         99:99:a5:1c:47:7d:a8:d1:28:d6:32:27:c4:0a:12:98:86:4a:
         fe:13:f1:e5:fa:fe:71:71:ac:68:6c:8d:ba:c5:89:a4:98:b4:
         f5:e0:fc:fc:c3:97:7f:47:bf:93:00:d2:7a:33:bb:47:da:2c:
         fa:38:32:f4:89:c2:ed:1b:53:8e:b8:15:ee:c1:16:e6:2b:5d:
         94:ed:bf:2f:f1:75:ec:d4:92:0a:4b:7e:fd:79:bd:4e:2b:9a:
         1c:74:a7:3a:6d:6a:d9:9d:52:12:71:00:26:d6:e0:cf:72:ad:
         6f:1b:c6:96:dd:ed:a0:8e:40:9c:a5:16:34:85:a1:cb:03:d4:
         8f:76:87:ae:92:8d:2f:f0:6f:54:e1:c4:3a:f8:6e:5f:07:b0:
         f2:23:92:b0:55:f8:d7:72:69:4b:ce:6e:98:46:da:d9:26:38:
         a7:62:86:20:78:35:d2:42:c3:2f:9f:45:ff:b2:8a:54:1c:f8:
         93:d2:4a:8a:59:42:33:d7:d3:3d:76:d5:70:d9:3f:00:00:7d:
         f0:fb:40:a0:59:e0:64:79:f6:38:52:cc:38:bd:85:2b:52:9f:
         ca:94:44:08:f3:4d:47:78:e3:b6:1c:65:01:1f:f7:50:0d:f9:
         74:56:ec:ae:48:2f:83:73:6d:94:67:d6:5e:de:68:b0:11:98:
         a6:38:4d:96:0a:61:80:50:a8:b5:19:17:f8:30:a5:5c:df:03:
         2e:97:e6:56:47:49:d7:37:ca:b4:8a:c1:f9:d4:35:da:6c:51:
         94:41:ad:d9:5d:eb:8e:5b:e9:c5:9b:2a:89:58:3f:27:c6:ea:
         22:aa:5e:95:b3:87:8f:fc:5c:34:8d:0a:84:3b:6a:11:c0:04:
         42:9a:fe:e3:bc:ae:77:52:e7:0c:7f:be:51:cf:12:50:37:4d:
         42:3b:bf:65:63:ae:2e:52:10:11:b8:73:8d:76:20:ed:60:cc:
         97:9b:47:f5:ef:43:d2:aa:3a:62:1f:74:c9:b7:2c:08:d1:74:
         a9:15:ff:99:d5:13:a0:ff:dc:c5:bf:24:30:af:29:03:48:18:
         00:5b:81:f3:d3:46:e5:c4
-----BEGIN CERTIFICATE-----
MIIGrTCCBJWgAwIBAgICHJUwDQYJKoZIhvcNAQEEBQAwgawxCzAJBgNVBAYTAlVT
MQswCQYDVQQIEwJPSDERMA8GA1UEBxMIQ29sdW1idXMxEjAQBgNVBAoTCVZpa2lu
Z1ZQTjEdMBsGA1UECxMUTXlPcmdhbml6YXRpb25hbFVuaXQxFTATBgNVBAMTDFZp
a2luZ1ZQTiBDQTEQMA4GA1UEKRMHRWFzeVJTQTEhMB8GCSqGSIb3DQEJARYSbWVA
bXlob3N0Lm15ZG9tYWluMB4XDTE2MDIyNzE1NDIyNVoXDTI2MDIyNDE1NDIyNVow
HzEdMBsGA1UEAxMUQ2xpZW50MTgwM0NlcnQ1ZDcwYmUwggIiMA0GCSqGSIb3DQEB
AQUAA4ICDwAwggIKAoICAQC8AJeMbn9J2btY7LpZ8q9zXo/3xOApFzCanGEvlr68
E+80VsSkkloganI9KRm3w+dv2uHSfcrW4Qe5bR16B54Pw5wmAQQkfO5lIqLCZCZu
MB1icz1ZS1nR6a8Q0D+q5Y0zYxhW99IS1b1zXNvih1Fnc/CMcO87axag3/t9OF2k
YqwDbqc3vT8l5FEMG/BRLl8RqKb43Hy6lGMvBPEZMV28c2EqxgADJKglbKhLp0c2
kTuudWceMJcavaykPDTtUiK4FwDCqDi1Z0+M9yoZmAz0PSt9rfIzr7fitpWr0pK5
/NbE9yo9vd+ZR2mUecZ97h4LTiYCH7X4zjSPQVHAzYuQRCdH7Spv81TuAXmph/C8
BhZ1oDbvq1APQtKAst4a8Epr1Ztyu3i4KulSgzQ0DA3AXU9ZmoKPj0LXB/nmNNgv
LGJX/AiI5FNujSnmESs0F74+zqEdzTyUcvFh87w6SpRgx4B/fub2BK16dw48kCjV
wpliZ63inm5RO5MLueva7kl+CntjitM+f6lsMHclzZQEw0QzS9VzKafnp6Wmpgvi
r75F7twoIkiQkbPW02JhkeYpKls8PxhJ9KOIO18c+Lop5ekND8L/fYih6v5SS9iH
//BZpoZ7Bdq5LNlQnEPT/p2MVm7aTKo/eviUFq5ugDuvm7IsWXSEzdfgqnHUu+6y
vQIDAQABo4IBYzCCAV8wCQYDVR0TBAIwADAtBglghkgBhvhCAQ0EIBYeRWFzeS1S
U0EgR2VuZXJhdGVkIENlcnRpZmljYXRlMB0GA1UdDgQWBBQ28mf2WnYyqkRWDISt
rXCtZVEd8TCB4QYDVR0jBIHZMIHWgBQSzWAE0qCAnnDtxpm4eyzGUv0ZoaGBsqSB
rzCBrDELMAkGA1UEBhMCVVMxCzAJBgNVBAgTAk9IMREwDwYDVQQHEwhDb2x1bWJ1
czESMBAGA1UEChMJVmlraW5nVlBOMR0wGwYDVQQLExRNeU9yZ2FuaXphdGlvbmFs
VW5pdDEVMBMGA1UEAxMMVmlraW5nVlBOIENBMRAwDgYDVQQpEwdFYXN5UlNBMSEw
HwYJKoZIhvcNAQkBFhJtZUBteWhvc3QubXlkb21haW6CCQDPNYXugL8qPjATBgNV
HSUEDDAKBggrBgEFBQcDAjALBgNVHQ8EBAMCB4AwDQYJKoZIhvcNAQEEBQADggIB
ANgf41zN4EtE4LvyP6xfpwGCPvMU//dtFlHxr3SBkD7JRofl6baDcGdTps66ean2
5kY2CoqKzzx5QbeJ+bLfQNHkVFxZrtmMw8QgIdba4kGtj2HLMNQlJqBVrWD75+D8
5CEAav3qBOCccyzrGpmZpRxHfajRKNYyJ8QKEpiGSv4T8eX6/nFxrGhsjbrFiaSY
tPXg/PzDl39Hv5MA0nozu0faLPo4MvSJwu0bU464Fe7BFuYrXZTtvy/xdezUkgpL
fv15vU4rmhx0pzptatmdUhJxACbW4M9yrW8bxpbd7aCOQJylFjSFocsD1I92h66S
jS/wb1ThxDr4bl8HsPIjkrBV+NdyaUvObphG2tkmOKdihiB4NdJCwy+fRf+yilQc
+JPSSopZQjPX0z121XDZPwAAffD7QKBZ4GR59jhSzDi9hStSn8qURAjzTUd447Yc
ZQEf91AN+XRW7K5IL4NzbZRn1l7eaLARmKY4TZYKYYBQqLUZF/gwpVzfAy6X5lZH
Sdc3yrSKwfnUNdpsUZRBrdld645b6cWbKolYPyfG6iKqXpWzh4/8XDSNCoQ7ahHA
BEKa/uO8rndS5wx/vlHPElA3TUI7v2Vjri5SEBG4c412IO1gzJebR/XvQ9KqOmIf
dMm3LAjRdKkV/5nVE6D/3MW/JDCvKQNIGABbgfPTRuXE
-----END CERTIFICATE-----
