Certificate:
    Data:
        Version: 3 (0x2)
        Serial Number: 7319 (0x1c97)
    Signature Algorithm: md5WithRSAEncryption
        Issuer: C=US, ST=OH, L=Columbus, O=VikingVPN, OU=MyOrganizationalUnit, CN=VikingVPN CA/name=EasyRSA/emailAddress=me@myhost.mydomain
        Validity
            Not Before: Feb 27 15:46:07 2016 GMT
            Not After : Feb 24 15:46:07 2026 GMT
        Subject: CN=Client1803Certb06224
        Subject Public Key Info:
            Public Key Algorithm: rsaEncryption
                Public-Key: (4096 bit)
                Modulus:
                    00:d1:e1:98:3f:94:92:0d:8b:38:10:45:4f:88:0c:
                    e3:bb:c5:61:1f:8a:27:82:5d:ae:47:80:98:1e:be:
                    78:00:cc:43:69:05:a2:2a:e0:25:bb:2a:e1:ae:4d:
                    31:57:1c:95:8f:d8:a4:8c:b1:c2:de:dd:fc:30:c2:
                    02:bf:09:02:88:1f:74:e9:e8:68:b5:5f:1a:f7:8d:
                    e4:9e:92:d2:e2:56:46:51:17:6e:f9:7a:a3:bc:95:
                    ff:aa:05:1a:77:0f:d7:aa:20:2b:9e:d5:90:f4:02:
                    d3:c4:eb:f6:61:7b:04:aa:8a:8e:4a:07:2e:0b:32:
                    c0:0c:93:55:00:04:09:e3:ce:56:65:4b:fe:bd:64:
                    0b:d7:fb:d4:5e:73:bc:cc:f9:46:8a:73:03:9c:79:
                    51:b0:55:7e:f0:2a:4b:84:48:55:fb:6c:ee:9e:a8:
                    78:0a:0f:67:b4:f9:17:58:23:58:be:48:83:ea:ca:
                    4a:b9:1f:74:66:24:b9:29:b1:65:83:f7:79:e7:b3:
                    18:55:05:82:9b:bb:be:ef:b2:b6:6e:c7:69:bb:fc:
                    03:b3:09:4a:48:19:54:44:5f:a4:a2:a5:cf:72:f0:
                    a0:8d:ba:1f:09:f7:65:84:33:06:8f:fa:53:8d:f3:
                    33:2c:d6:73:23:59:92:36:c2:06:58:7c:dd:3b:17:
                    e5:79:4e:a3:55:98:e1:84:e8:69:f6:bd:7b:e2:58:
                    cf:86:36:b8:bf:31:eb:fe:a4:e8:dc:1c:3e:5b:1c:
                    71:9b:b0:66:6f:ba:32:21:df:7e:c2:8d:e2:a9:cf:
                    03:ab:2c:94:8d:7b:4f:c6:4a:0a:bc:e3:00:d2:17:
                    ef:36:41:10:90:c9:b3:e6:7f:39:4c:52:f0:db:2d:
                    10:6e:96:f7:84:b4:e3:67:22:1a:35:bf:80:9c:3b:
                    bc:fe:2b:0d:5f:33:d5:cc:c1:2a:f9:60:75:1e:34:
                    7c:f9:9e:d3:7e:b8:a7:e3:15:bb:ee:39:2b:05:fd:
                    61:6c:88:5d:cc:86:ab:70:fa:da:6c:56:0b:aa:d7:
                    97:2e:cc:ca:70:19:c2:ad:22:46:18:ba:a8:3b:97:
                    49:3d:b7:51:da:12:06:ed:05:d3:8e:ad:b4:b2:6e:
                    bc:c6:c9:28:6f:d3:07:e4:8e:0a:d1:f1:9f:2e:e0:
                    70:a1:e7:4d:6d:b8:57:a4:8c:35:66:f6:8a:00:ed:
                    18:ed:c1:02:1a:7a:af:4f:97:42:08:f0:eb:d9:ab:
                    c7:bf:87:36:d6:d6:85:fd:d1:ac:2b:2d:b8:8f:60:
                    1f:3b:60:d2:63:c1:86:bc:4e:ce:90:4b:80:f5:e2:
                    f3:49:f3:cc:e9:7c:52:d6:f4:db:ba:c8:27:b8:da:
                    fd:4f:57
                Exponent: 65537 (0x10001)
        X509v3 extensions:
            X509v3 Basic Constraints: 
                CA:FALSE
            Netscape Comment: 
                Easy-RSA Generated Certificate
            X509v3 Subject Key Identifier: 
                10:6E:9E:4C:AD:E2:B5:32:0A:1B:8D:59:E0:47:2F:3B:6D:7D:B3:55
            X509v3 Authority Key Identifier: 
                keyid:12:CD:60:04:D2:A0:80:9E:70:ED:C6:99:B8:7B:2C:C6:52:FD:19:A1
                DirName:/C=US/ST=OH/L=Columbus/O=VikingVPN/OU=MyOrganizationalUnit/CN=VikingVPN CA/name=EasyRSA/emailAddress=me@myhost.mydomain
                serial:CF:35:85:EE:80:BF:2A:3E

            X509v3 Extended Key Usage: 
                TLS Web Client Authentication
            X509v3 Key Usage: 
                Digital Signature
    Signature Algorithm: md5WithRSAEncryption
         cb:ee:d6:0a:10:7a:89:09:1d:a5:56:ae:42:ae:4e:69:a4:fe:
         28:1e:32:03:ec:5f:00:6c:8b:72:f5:19:1e:08:40:e2:08:c8:
         3e:df:f8:f9:3e:37:ba:ee:2b:e9:d1:f5:00:62:96:92:a3:26:
         93:cf:6b:be:be:c9:cb:e1:45:51:ad:4f:26:cb:2f:cc:50:48:
         26:2f:11:37:ef:4a:80:9c:5d:6e:52:f6:ff:2b:28:08:46:9c:
         69:73:ac:c4:90:5b:dc:75:48:65:98:86:93:ce:7f:83:03:e9:
         67:05:73:99:57:10:98:ff:c7:29:43:b5:81:80:e5:6b:19:d5:
         66:87:e8:a1:53:2e:af:f9:c0:82:ad:3a:6c:cd:af:5a:dd:48:
         8e:30:e2:56:d0:9d:cd:8b:45:c4:ad:c7:b2:06:ad:7c:23:96:
         18:85:d0:a5:02:39:28:22:d0:57:29:83:74:ad:4d:6c:49:29:
         22:43:cb:43:16:b7:43:45:74:03:d1:ce:66:3c:87:ea:bd:d4:
         84:ef:6e:57:5c:01:60:46:f6:e8:0a:e5:4a:1b:66:77:a3:56:
         b2:1a:72:34:70:36:a7:a0:55:c5:f1:7f:c4:ce:a4:c2:62:e6:
         73:1f:19:7e:35:ee:4e:a2:71:66:72:7e:86:e1:35:1f:20:00:
         dc:91:a0:41:55:95:fc:c5:cb:c7:fd:b1:e4:94:df:c5:70:be:
         79:99:44:4a:9f:cc:e9:58:5e:41:04:47:aa:f1:e2:d0:1f:d6:
         bf:6e:ed:6a:1d:7c:2d:af:30:ff:3c:65:b6:c5:43:8d:d5:fb:
         8f:b2:af:0a:c7:a8:e4:a0:14:0d:87:82:c9:39:4e:db:ea:3c:
         33:b2:3c:a6:80:3c:23:73:0a:3f:d5:06:d7:95:a9:3d:2f:d0:
         71:13:ca:9b:9a:74:ca:0d:09:bd:87:be:3a:a0:68:64:9c:85:
         ac:08:55:9d:7a:ed:7b:4a:5c:43:f2:f4:42:a4:0a:42:30:ed:
         2f:45:43:a0:d8:25:f5:28:b7:7e:c2:5a:4d:cf:71:60:cf:f8:
         97:bf:f5:aa:0f:03:01:bf:b7:25:63:ea:f3:23:13:76:ef:74:
         12:18:8c:4e:bb:e4:72:7b:a7:45:0c:3e:51:07:44:ce:63:3f:
         ff:70:ac:c7:79:58:85:15:3b:a9:10:e1:63:84:26:81:3d:11:
         ef:8d:a1:ae:97:2a:bc:ed:e0:cb:04:9c:31:78:6c:d2:ba:61:
         c7:e5:4d:cf:8a:71:88:44:0a:ee:5f:5c:be:47:37:6a:6a:de:
         88:73:e1:ae:80:df:cf:9b:33:e9:70:8b:09:4d:ca:ee:2b:9a:
         0a:7a:71:61:4c:e1:22:2a
-----BEGIN CERTIFICATE-----
MIIGrTCCBJWgAwIBAgICHJcwDQYJKoZIhvcNAQEEBQAwgawxCzAJBgNVBAYTAlVT
MQswCQYDVQQIEwJPSDERMA8GA1UEBxMIQ29sdW1idXMxEjAQBgNVBAoTCVZpa2lu
Z1ZQTjEdMBsGA1UECxMUTXlPcmdhbml6YXRpb25hbFVuaXQxFTATBgNVBAMTDFZp
a2luZ1ZQTiBDQTEQMA4GA1UEKRMHRWFzeVJTQTEhMB8GCSqGSIb3DQEJARYSbWVA
bXlob3N0Lm15ZG9tYWluMB4XDTE2MDIyNzE1NDYwN1oXDTI2MDIyNDE1NDYwN1ow
HzEdMBsGA1UEAxMUQ2xpZW50MTgwM0NlcnRiMDYyMjQwggIiMA0GCSqGSIb3DQEB
AQUAA4ICDwAwggIKAoICAQDR4Zg/lJINizgQRU+IDOO7xWEfiieCXa5HgJgevngA
zENpBaIq4CW7KuGuTTFXHJWP2KSMscLe3fwwwgK/CQKIH3Tp6Gi1Xxr3jeSektLi
VkZRF275eqO8lf+qBRp3D9eqICue1ZD0AtPE6/ZhewSqio5KBy4LMsAMk1UABAnj
zlZlS/69ZAvX+9Rec7zM+UaKcwOceVGwVX7wKkuESFX7bO6eqHgKD2e0+RdYI1i+
SIPqykq5H3RmJLkpsWWD93nnsxhVBYKbu77vsrZux2m7/AOzCUpIGVREX6Sipc9y
8KCNuh8J92WEMwaP+lON8zMs1nMjWZI2wgZYfN07F+V5TqNVmOGE6Gn2vXviWM+G
Nri/Mev+pOjcHD5bHHGbsGZvujIh337CjeKpzwOrLJSNe0/GSgq84wDSF+82QRCQ
ybPmfzlMUvDbLRBulveEtONnIho1v4CcO7z+Kw1fM9XMwSr5YHUeNHz5ntN+uKfj
FbvuOSsF/WFsiF3Mhqtw+tpsVguq15cuzMpwGcKtIkYYuqg7l0k9t1HaEgbtBdOO
rbSybrzGyShv0wfkjgrR8Z8u4HCh501tuFekjDVm9ooA7RjtwQIaeq9Pl0II8OvZ
q8e/hzbW1oX90awrLbiPYB87YNJjwYa8Ts6QS4D14vNJ88zpfFLW9Nu6yCe42v1P
VwIDAQABo4IBYzCCAV8wCQYDVR0TBAIwADAtBglghkgBhvhCAQ0EIBYeRWFzeS1S
U0EgR2VuZXJhdGVkIENlcnRpZmljYXRlMB0GA1UdDgQWBBQQbp5MreK1MgobjVng
Ry87bX2zVTCB4QYDVR0jBIHZMIHWgBQSzWAE0qCAnnDtxpm4eyzGUv0ZoaGBsqSB
rzCBrDELMAkGA1UEBhMCVVMxCzAJBgNVBAgTAk9IMREwDwYDVQQHEwhDb2x1bWJ1
czESMBAGA1UEChMJVmlraW5nVlBOMR0wGwYDVQQLExRNeU9yZ2FuaXphdGlvbmFs
VW5pdDEVMBMGA1UEAxMMVmlraW5nVlBOIENBMRAwDgYDVQQpEwdFYXN5UlNBMSEw
HwYJKoZIhvcNAQkBFhJtZUBteWhvc3QubXlkb21haW6CCQDPNYXugL8qPjATBgNV
HSUEDDAKBggrBgEFBQcDAjALBgNVHQ8EBAMCB4AwDQYJKoZIhvcNAQEEBQADggIB
AMvu1goQeokJHaVWrkKuTmmk/igeMgPsXwBsi3L1GR4IQOIIyD7f+Pk+N7ruK+nR
9QBilpKjJpPPa76+ycvhRVGtTybLL8xQSCYvETfvSoCcXW5S9v8rKAhGnGlzrMSQ
W9x1SGWYhpPOf4MD6WcFc5lXEJj/xylDtYGA5WsZ1WaH6KFTLq/5wIKtOmzNr1rd
SI4w4lbQnc2LRcStx7IGrXwjlhiF0KUCOSgi0Fcpg3StTWxJKSJDy0MWt0NFdAPR
zmY8h+q91ITvbldcAWBG9ugK5UobZnejVrIacjRwNqegVcXxf8TOpMJi5nMfGX41
7k6icWZyfobhNR8gANyRoEFVlfzFy8f9seSU38VwvnmZREqfzOlYXkEER6rx4tAf
1r9u7WodfC2vMP88ZbbFQ43V+4+yrwrHqOSgFA2Hgsk5TtvqPDOyPKaAPCNzCj/V
BteVqT0v0HETypuadMoNCb2HvjqgaGSchawIVZ167XtKXEPy9EKkCkIw7S9FQ6DY
JfUot37CWk3PcWDP+Je/9aoPAwG/tyVj6vMjE3bvdBIYjE675HJ7p0UMPlEHRM5j
P/9wrMd5WIUVO6kQ4WOEJoE9Ee+Noa6XKrzt4MsEnDF4bNK6YcflTc+KcYhECu5f
XL5HN2pq3ohz4a6A38+bM+lwiwlNyu4rmgp6cWFM4SIq
-----END CERTIFICATE-----
