Certificate:
    Data:
        Version: 3 (0x2)
        Serial Number: 7333 (0x1ca5)
    Signature Algorithm: md5WithRSAEncryption
        Issuer: C=US, ST=OH, L=Columbus, O=VikingVPN, OU=MyOrganizationalUnit, CN=VikingVPN CA/name=EasyRSA/emailAddress=me@myhost.mydomain
        Validity
            Not Before: Feb 27 20:15:10 2016 GMT
            Not After : Feb 24 20:15:10 2026 GMT
        Subject: CN=Client2199Cert1eab59
        Subject Public Key Info:
            Public Key Algorithm: rsaEncryption
                Public-Key: (4096 bit)
                Modulus:
                    00:c9:63:98:d4:9d:2e:28:ee:a6:e3:d0:0c:37:cb:
                    b4:c2:2e:58:4b:b0:82:c0:68:c7:97:60:3a:76:09:
                    a9:89:51:c1:cf:c8:69:7e:11:fe:c9:ca:68:1f:68:
                    b0:e4:40:b2:be:1d:29:f6:ab:fa:4b:a7:35:34:f5:
                    5c:96:3b:2e:e2:20:23:b8:54:cf:ca:0c:97:d5:8e:
                    ca:ed:85:b2:07:9a:5c:07:75:b3:9b:f2:b4:8b:14:
                    c6:16:16:8d:a6:ee:7e:d2:69:fd:99:da:a3:50:86:
                    d3:f8:78:a2:e1:55:9c:89:05:ea:ab:f2:4f:09:f5:
                    9c:73:50:98:0a:95:d0:be:0d:0e:b6:d1:08:41:ed:
                    eb:db:c6:6b:f6:53:38:17:a8:39:ee:23:46:33:81:
                    e0:16:a7:bf:68:24:d1:19:a5:e0:12:5b:f5:3d:cd:
                    f7:b0:34:8d:72:15:06:b2:98:37:55:35:82:f2:80:
                    73:90:09:12:8b:e7:30:23:41:3f:ee:c4:ee:c7:29:
                    ee:e6:6b:70:74:74:45:07:4a:01:3b:39:15:96:59:
                    65:01:26:c6:59:48:ea:95:81:f4:31:75:1e:64:24:
                    81:c1:4b:fa:77:c7:04:2e:94:6d:0c:6a:4b:84:cf:
                    66:87:78:30:47:35:f7:25:75:80:1a:56:b9:2f:7d:
                    e4:58:f0:cd:3c:f2:96:87:16:01:ae:fd:8a:2f:ec:
                    ed:9e:0d:09:59:1e:97:15:0e:b9:f9:6b:22:86:19:
                    90:bf:5a:34:22:33:dd:bd:35:51:53:b2:78:bf:d8:
                    0d:93:93:16:98:5b:db:2e:c1:19:42:b1:4f:7b:b7:
                    0a:d8:eb:23:0c:98:ed:0e:e3:ec:50:09:96:35:58:
                    38:15:04:ab:69:fd:0d:4b:60:7c:b7:4c:64:9c:bc:
                    98:6e:16:0a:83:ac:67:e6:d9:c6:4f:d1:c5:38:4d:
                    7b:b6:ae:e6:61:81:db:46:66:b3:5e:26:ff:21:1f:
                    dd:ad:13:3f:d5:b4:5a:07:2c:36:6a:53:a1:25:2f:
                    4f:0e:aa:9c:f9:fe:9f:4f:4f:1a:fa:5c:5b:4f:a5:
                    69:69:a2:80:76:cb:5d:0e:9c:57:d8:7a:5e:dd:2c:
                    e1:c5:e9:2c:bb:37:22:d3:47:b2:35:cc:dd:17:16:
                    94:07:a4:ff:10:3b:e1:5d:d7:d2:22:f4:4e:54:1a:
                    cb:c3:ff:0f:0e:b2:98:cf:cf:f3:ca:bf:80:ef:2d:
                    56:24:70:b7:c8:99:4d:67:52:f2:38:32:a6:d5:60:
                    c7:3a:93:92:f5:03:14:56:2c:28:f6:1e:30:28:4b:
                    87:b5:e5:c7:ba:20:a9:a6:d2:9d:da:15:86:c1:4d:
                    30:7d:7d
                Exponent: 65537 (0x10001)
        X509v3 extensions:
            X509v3 Basic Constraints: 
                CA:FALSE
            Netscape Comment: 
                Easy-RSA Generated Certificate
            X509v3 Subject Key Identifier: 
                50:E7:CF:C2:94:0F:A6:70:0A:70:00:4B:D2:E4:BA:3F:2D:D2:DA:69
            X509v3 Authority Key Identifier: 
                keyid:12:CD:60:04:D2:A0:80:9E:70:ED:C6:99:B8:7B:2C:C6:52:FD:19:A1
                DirName:/C=US/ST=OH/L=Columbus/O=VikingVPN/OU=MyOrganizationalUnit/CN=VikingVPN CA/name=EasyRSA/emailAddress=me@myhost.mydomain
                serial:CF:35:85:EE:80:BF:2A:3E

            X509v3 Extended Key Usage: 
                TLS Web Client Authentication
            X509v3 Key Usage: 
                Digital Signature
    Signature Algorithm: md5WithRSAEncryption
         bc:1f:2f:bc:f1:d9:8a:e5:98:d2:5f:45:f9:0d:f9:7f:4b:64:
         0d:39:39:d2:a8:1a:6c:bf:1f:51:8e:ae:0e:99:ee:c4:f6:97:
         4c:58:ae:d0:96:5e:68:e5:79:04:35:b8:31:73:98:c9:4e:67:
         6c:d5:24:6c:fb:42:2b:80:1f:1f:0d:c2:0a:5c:b0:cf:8c:9e:
         1e:b1:03:6c:7a:24:5a:24:46:6a:9b:7a:f8:93:21:25:8d:f5:
         2b:a8:c2:dd:ad:5f:09:f4:72:36:58:2e:44:42:b2:39:2f:cb:
         ac:08:0e:e5:4b:e8:f2:34:eb:6f:18:b4:ba:c1:d8:e0:8d:7d:
         28:56:b1:91:0e:8b:ae:9c:5c:8a:24:be:23:a4:90:75:45:77:
         35:9e:99:75:58:75:12:7d:a2:87:2f:8a:7b:45:ba:7f:80:dd:
         22:a4:11:d0:a8:58:6e:b2:2d:89:3c:b4:dd:2e:2b:e5:e1:c0:
         b1:07:e0:7a:65:be:aa:62:5e:8b:f5:19:96:05:64:f5:1f:65:
         5d:87:55:f2:0f:70:76:53:5e:64:a0:cb:14:6a:29:54:5f:25:
         82:c7:5a:df:32:2a:2d:27:a1:f5:03:00:ee:48:5d:c9:01:ea:
         72:89:cd:44:5c:a5:f5:a3:27:38:4a:99:79:d3:92:e3:ec:26:
         b9:cf:4d:1d:66:8c:69:b2:16:cf:05:56:5d:72:3d:b3:7c:fa:
         45:46:7b:a7:4f:98:5c:5d:96:2a:4f:de:be:73:57:01:3b:6c:
         20:db:b6:9d:c3:44:04:62:50:4c:5b:30:4b:f3:3d:92:73:9f:
         a9:d3:6e:95:e9:5e:6e:6a:cc:a4:c3:f9:14:09:a2:1f:6a:0c:
         cc:43:59:77:e6:6f:b8:3b:08:17:52:5c:20:a9:6a:84:88:1d:
         5b:b0:b6:46:c2:cc:0a:66:b8:bc:7e:65:76:c3:72:95:44:66:
         ee:ca:97:3c:e9:84:e8:0f:b7:47:03:34:19:c2:dd:5d:b6:42:
         4d:5e:aa:15:70:08:ac:2d:d0:67:59:05:5c:63:e5:6e:93:b6:
         2d:ac:e6:d8:0a:7f:f3:85:06:d6:39:c4:4a:54:a2:bc:92:5d:
         8c:4c:19:9f:40:b3:c2:ec:f3:b0:67:29:00:35:ea:cd:e9:71:
         d8:19:fa:94:83:94:b6:87:7f:57:c8:6c:cc:fb:30:75:80:7b:
         4b:b5:fe:e1:94:63:e5:74:46:28:e2:c4:e8:96:7d:ff:f0:d5:
         c1:5f:5d:9e:3d:1b:8d:b9:5d:00:25:12:72:13:5b:df:c9:84:
         2e:e9:93:ba:2f:f4:5e:ce:45:7f:53:5b:8c:4f:70:01:34:16:
         3a:04:02:4c:ff:ef:c3:26
-----BEGIN CERTIFICATE-----
MIIGrTCCBJWgAwIBAgICHKUwDQYJKoZIhvcNAQEEBQAwgawxCzAJBgNVBAYTAlVT
MQswCQYDVQQIEwJPSDERMA8GA1UEBxMIQ29sdW1idXMxEjAQBgNVBAoTCVZpa2lu
Z1ZQTjEdMBsGA1UECxMUTXlPcmdhbml6YXRpb25hbFVuaXQxFTATBgNVBAMTDFZp
a2luZ1ZQTiBDQTEQMA4GA1UEKRMHRWFzeVJTQTEhMB8GCSqGSIb3DQEJARYSbWVA
bXlob3N0Lm15ZG9tYWluMB4XDTE2MDIyNzIwMTUxMFoXDTI2MDIyNDIwMTUxMFow
HzEdMBsGA1UEAxMUQ2xpZW50MjE5OUNlcnQxZWFiNTkwggIiMA0GCSqGSIb3DQEB
AQUAA4ICDwAwggIKAoICAQDJY5jUnS4o7qbj0Aw3y7TCLlhLsILAaMeXYDp2CamJ
UcHPyGl+Ef7JymgfaLDkQLK+HSn2q/pLpzU09VyWOy7iICO4VM/KDJfVjsrthbIH
mlwHdbOb8rSLFMYWFo2m7n7Saf2Z2qNQhtP4eKLhVZyJBeqr8k8J9ZxzUJgKldC+
DQ620QhB7evbxmv2UzgXqDnuI0YzgeAWp79oJNEZpeASW/U9zfewNI1yFQaymDdV
NYLygHOQCRKL5zAjQT/uxO7HKe7ma3B0dEUHSgE7ORWWWWUBJsZZSOqVgfQxdR5k
JIHBS/p3xwQulG0MakuEz2aHeDBHNfcldYAaVrkvfeRY8M088paHFgGu/Yov7O2e
DQlZHpcVDrn5ayKGGZC/WjQiM929NVFTsni/2A2TkxaYW9suwRlCsU97twrY6yMM
mO0O4+xQCZY1WDgVBKtp/Q1LYHy3TGScvJhuFgqDrGfm2cZP0cU4TXu2ruZhgdtG
ZrNeJv8hH92tEz/VtFoHLDZqU6ElL08Oqpz5/p9PTxr6XFtPpWlpooB2y10OnFfY
el7dLOHF6Sy7NyLTR7I1zN0XFpQHpP8QO+Fd19Ii9E5UGsvD/w8OspjPz/PKv4Dv
LVYkcLfImU1nUvI4MqbVYMc6k5L1AxRWLCj2HjAoS4e15ce6IKmm0p3aFYbBTTB9
fQIDAQABo4IBYzCCAV8wCQYDVR0TBAIwADAtBglghkgBhvhCAQ0EIBYeRWFzeS1S
U0EgR2VuZXJhdGVkIENlcnRpZmljYXRlMB0GA1UdDgQWBBRQ58/ClA+mcApwAEvS
5Lo/LdLaaTCB4QYDVR0jBIHZMIHWgBQSzWAE0qCAnnDtxpm4eyzGUv0ZoaGBsqSB
rzCBrDELMAkGA1UEBhMCVVMxCzAJBgNVBAgTAk9IMREwDwYDVQQHEwhDb2x1bWJ1
czESMBAGA1UEChMJVmlraW5nVlBOMR0wGwYDVQQLExRNeU9yZ2FuaXphdGlvbmFs
VW5pdDEVMBMGA1UEAxMMVmlraW5nVlBOIENBMRAwDgYDVQQpEwdFYXN5UlNBMSEw
HwYJKoZIhvcNAQkBFhJtZUBteWhvc3QubXlkb21haW6CCQDPNYXugL8qPjATBgNV
HSUEDDAKBggrBgEFBQcDAjALBgNVHQ8EBAMCB4AwDQYJKoZIhvcNAQEEBQADggIB
ALwfL7zx2YrlmNJfRfkN+X9LZA05OdKoGmy/H1GOrg6Z7sT2l0xYrtCWXmjleQQ1
uDFzmMlOZ2zVJGz7QiuAHx8NwgpcsM+Mnh6xA2x6JFokRmqbeviTISWN9Suowt2t
Xwn0cjZYLkRCsjkvy6wIDuVL6PI0628YtLrB2OCNfShWsZEOi66cXIokviOkkHVF
dzWemXVYdRJ9oocvintFun+A3SKkEdCoWG6yLYk8tN0uK+XhwLEH4HplvqpiXov1
GZYFZPUfZV2HVfIPcHZTXmSgyxRqKVRfJYLHWt8yKi0nofUDAO5IXckB6nKJzURc
pfWjJzhKmXnTkuPsJrnPTR1mjGmyFs8FVl1yPbN8+kVGe6dPmFxdlipP3r5zVwE7
bCDbtp3DRARiUExbMEvzPZJzn6nTbpXpXm5qzKTD+RQJoh9qDMxDWXfmb7g7CBdS
XCCpaoSIHVuwtkbCzApmuLx+ZXbDcpVEZu7KlzzphOgPt0cDNBnC3V22Qk1eqhVw
CKwt0GdZBVxj5W6Tti2s5tgKf/OFBtY5xEpUorySXYxMGZ9As8Ls87BnKQA16s3p
cdgZ+pSDlLaHf1fIbMz7MHWAe0u1/uGUY+V0RijixOiWff/w1cFfXZ49G425XQAl
EnITW9/JhC7pk7ov9F7ORX9TW4xPcAE0FjoEAkz/78Mm
-----END CERTIFICATE-----
