Certificate:
    Data:
        Version: 3 (0x2)
        Serial Number: 7340 (0x1cac)
    Signature Algorithm: md5WithRSAEncryption
        Issuer: C=US, ST=OH, L=Columbus, O=VikingVPN, OU=MyOrganizationalUnit, CN=VikingVPN CA/name=EasyRSA/emailAddress=me@myhost.mydomain
        Validity
            Not Before: Feb 28 04:56:45 2016 GMT
            Not After : Feb 25 04:56:45 2026 GMT
        Subject: CN=Client2189Cert3cfb27
        Subject Public Key Info:
            Public Key Algorithm: rsaEncryption
                Public-Key: (4096 bit)
                Modulus:
                    00:c3:87:a2:77:f0:48:fb:f3:e2:be:6d:d6:53:6d:
                    3a:84:69:92:08:40:7c:88:4d:44:9e:d5:15:05:f8:
                    8e:c0:6e:94:9d:ba:67:76:69:bc:cb:96:2f:a1:34:
                    48:99:71:cb:b0:51:cd:81:05:f8:08:5f:12:ca:62:
                    5f:c9:1d:b0:e9:73:44:2f:ff:a5:53:07:27:bb:23:
                    ec:05:57:ff:a5:b4:89:b5:08:c8:11:6c:e8:c7:61:
                    18:f6:70:95:e2:79:ff:ad:b0:7a:55:5e:af:f7:0f:
                    9b:c1:5f:b7:0c:d7:66:84:15:92:72:91:74:c4:54:
                    05:a3:22:9b:0f:03:77:e1:11:7a:f7:38:15:5f:2f:
                    35:b6:b5:e0:20:21:78:31:88:20:21:7a:e6:3c:7b:
                    fc:b9:94:e6:63:67:35:e1:53:55:c5:82:7a:a8:a1:
                    c9:12:a1:a4:86:66:fc:a8:0f:4e:22:41:60:2a:08:
                    7b:26:7c:05:4e:fe:2a:a2:e6:a3:aa:65:0d:f6:7d:
                    76:02:22:92:75:f8:b9:69:93:88:32:0e:e2:9b:38:
                    8d:80:df:36:77:d8:76:5f:15:11:da:86:71:68:f1:
                    ed:53:a0:0d:02:f1:9a:ed:0c:f0:9a:6e:eb:6a:b3:
                    93:0f:31:f0:ce:8c:e6:4f:2d:5e:c4:4c:fe:84:92:
                    ae:7a:2f:c9:bc:47:7b:0e:42:b8:91:3b:73:f7:89:
                    5d:68:ce:39:de:a2:91:75:82:49:32:b1:53:e3:2c:
                    6b:3f:80:61:97:f0:1b:69:a7:b6:cb:26:48:06:f9:
                    18:fc:34:2e:d6:24:95:a5:02:1c:0a:f2:e7:17:a6:
                    a8:8f:73:d0:a8:4a:54:54:72:44:6b:b6:a0:db:74:
                    f1:c9:e6:c6:ea:48:de:cd:65:a3:b5:01:9e:ea:e0:
                    c8:f1:8b:ee:59:9a:8c:26:a9:5f:7f:56:10:5f:0d:
                    e2:49:a4:f2:ae:a8:e3:66:5d:9d:2a:01:4b:87:2f:
                    42:34:ae:90:fc:e0:71:47:71:7d:23:8c:ef:e2:4c:
                    f3:a9:d3:73:ea:81:fe:c9:8e:dc:8d:7b:4a:17:c4:
                    65:72:4b:d8:ca:ef:de:d6:97:bc:27:80:5d:86:ee:
                    e2:af:49:6d:3e:69:db:aa:86:97:63:bf:bb:c9:18:
                    9b:c3:b9:8a:6e:4b:5d:4a:54:fe:bc:52:56:5c:77:
                    4a:33:ed:d9:3d:1f:71:30:27:cf:62:c8:20:38:d2:
                    08:0a:96:d0:a7:55:ad:33:cc:9f:69:88:e7:18:35:
                    8d:81:e3:aa:c4:d9:e5:76:03:2f:86:8c:ee:85:b0:
                    60:f7:32:1e:db:35:99:68:91:ae:e0:7f:09:b2:8c:
                    17:38:87
                Exponent: 65537 (0x10001)
        X509v3 extensions:
            X509v3 Basic Constraints: 
                CA:FALSE
            Netscape Comment: 
                Easy-RSA Generated Certificate
            X509v3 Subject Key Identifier: 
                B9:84:CA:48:E5:C9:4F:00:3C:E3:60:80:00:64:27:FA:27:6C:D3:E8
            X509v3 Authority Key Identifier: 
                keyid:12:CD:60:04:D2:A0:80:9E:70:ED:C6:99:B8:7B:2C:C6:52:FD:19:A1
                DirName:/C=US/ST=OH/L=Columbus/O=VikingVPN/OU=MyOrganizationalUnit/CN=VikingVPN CA/name=EasyRSA/emailAddress=me@myhost.mydomain
                serial:CF:35:85:EE:80:BF:2A:3E

            X509v3 Extended Key Usage: 
                TLS Web Client Authentication
            X509v3 Key Usage: 
                Digital Signature
    Signature Algorithm: md5WithRSAEncryption
         0d:97:1b:f5:74:a0:12:e7:98:5a:f3:a6:2b:c7:ec:91:92:9d:
         94:39:4e:49:81:c0:48:73:80:df:40:b5:f8:e2:68:e6:c3:f7:
         09:45:a2:ba:df:06:b6:fc:d6:2e:4c:73:9e:45:6f:64:75:35:
         29:3e:47:6c:38:34:26:a3:b5:ef:13:2c:99:0d:3f:23:ce:c3:
         47:b9:f2:e6:02:60:74:17:5b:8a:bf:cd:ca:33:2e:c6:04:85:
         82:ff:8c:97:38:b9:b1:62:8b:fe:50:ea:8e:25:bd:42:aa:26:
         15:87:9e:6d:b7:ca:88:e1:b7:de:e6:6d:63:ea:b5:ce:0c:c9:
         ba:fe:8e:7d:d3:16:4f:44:c7:66:11:ce:64:39:21:8b:37:15:
         b2:3f:93:42:1c:0c:47:6a:9e:4f:9f:d3:da:4e:f4:66:5d:c3:
         e5:60:69:61:63:05:dc:3c:27:cc:cb:fc:f2:9c:45:60:a7:73:
         4e:57:45:d0:d9:21:a3:1a:d4:ef:8f:2f:07:f7:7e:26:78:a2:
         fd:fe:29:2a:8e:b9:7b:68:7b:8b:d9:d2:7e:c9:15:d4:7b:64:
         7d:ba:21:9e:c1:9c:22:de:87:a9:62:fe:bc:ed:0d:12:d7:4a:
         84:17:92:f8:90:40:8f:aa:0a:3c:7d:5b:4e:8e:37:b9:1b:a5:
         f2:5d:76:70:a1:aa:6c:3e:46:3e:3a:8f:55:c9:85:6c:b7:7a:
         fb:c3:62:f6:83:28:63:32:c1:d5:0d:09:dc:d3:f4:73:a1:24:
         4d:3b:54:14:e4:32:3f:ca:64:bd:a4:96:57:ec:89:90:d1:8a:
         00:5d:2c:8e:dc:56:9f:73:19:68:8a:47:4b:14:d4:a3:0b:ff:
         7f:d6:c4:dd:b9:0a:e7:7c:a1:13:a1:84:00:de:f0:4b:a2:8a:
         f2:95:48:09:46:ef:b2:b6:56:f6:bf:c8:e6:b8:e1:f6:63:80:
         a5:36:b7:a6:81:e0:07:c6:2a:4d:e5:81:2e:4e:79:6e:4b:83:
         be:af:f6:50:85:7d:f2:75:90:27:94:64:4e:36:50:de:aa:52:
         ad:15:fe:80:65:bd:11:01:aa:0b:55:2f:d1:f4:7c:14:fa:3e:
         59:3e:f9:51:35:17:88:ba:72:18:20:fd:28:d1:7d:e2:5b:99:
         85:27:5c:02:33:84:f7:06:7e:5c:5b:e6:92:d0:57:a1:88:4e:
         b1:fe:e6:fd:b3:14:09:3b:1e:00:26:03:1b:74:2b:d3:c2:64:
         b7:66:2e:b2:44:f5:b7:17:4b:82:c3:bb:a5:92:b2:88:99:27:
         3a:35:6a:d8:07:86:a4:c8:6e:32:2e:c8:85:a4:0b:5b:a0:4e:
         19:74:1d:17:b7:25:5a:1b
-----BEGIN CERTIFICATE-----
MIIGrTCCBJWgAwIBAgICHKwwDQYJKoZIhvcNAQEEBQAwgawxCzAJBgNVBAYTAlVT
MQswCQYDVQQIEwJPSDERMA8GA1UEBxMIQ29sdW1idXMxEjAQBgNVBAoTCVZpa2lu
Z1ZQTjEdMBsGA1UECxMUTXlPcmdhbml6YXRpb25hbFVuaXQxFTATBgNVBAMTDFZp
a2luZ1ZQTiBDQTEQMA4GA1UEKRMHRWFzeVJTQTEhMB8GCSqGSIb3DQEJARYSbWVA
bXlob3N0Lm15ZG9tYWluMB4XDTE2MDIyODA0NTY0NVoXDTI2MDIyNTA0NTY0NVow
HzEdMBsGA1UEAxMUQ2xpZW50MjE4OUNlcnQzY2ZiMjcwggIiMA0GCSqGSIb3DQEB
AQUAA4ICDwAwggIKAoICAQDDh6J38Ej78+K+bdZTbTqEaZIIQHyITUSe1RUF+I7A
bpSdumd2abzLli+hNEiZccuwUc2BBfgIXxLKYl/JHbDpc0Qv/6VTBye7I+wFV/+l
tIm1CMgRbOjHYRj2cJXief+tsHpVXq/3D5vBX7cM12aEFZJykXTEVAWjIpsPA3fh
EXr3OBVfLzW2teAgIXgxiCAheuY8e/y5lOZjZzXhU1XFgnqoockSoaSGZvyoD04i
QWAqCHsmfAVO/iqi5qOqZQ32fXYCIpJ1+Llpk4gyDuKbOI2A3zZ32HZfFRHahnFo
8e1ToA0C8ZrtDPCabutqs5MPMfDOjOZPLV7ETP6Ekq56L8m8R3sOQriRO3P3iV1o
zjneopF1gkkysVPjLGs/gGGX8Btpp7bLJkgG+Rj8NC7WJJWlAhwK8ucXpqiPc9Co
SlRUckRrtqDbdPHJ5sbqSN7NZaO1AZ7q4Mjxi+5ZmowmqV9/VhBfDeJJpPKuqONm
XZ0qAUuHL0I0rpD84HFHcX0jjO/iTPOp03Pqgf7JjtyNe0oXxGVyS9jK797Wl7wn
gF2G7uKvSW0+aduqhpdjv7vJGJvDuYpuS11KVP68UlZcd0oz7dk9H3EwJ89iyCA4
0ggKltCnVa0zzJ9piOcYNY2B46rE2eV2Ay+GjO6FsGD3Mh7bNZloka7gfwmyjBc4
hwIDAQABo4IBYzCCAV8wCQYDVR0TBAIwADAtBglghkgBhvhCAQ0EIBYeRWFzeS1S
U0EgR2VuZXJhdGVkIENlcnRpZmljYXRlMB0GA1UdDgQWBBS5hMpI5clPADzjYIAA
ZCf6J2zT6DCB4QYDVR0jBIHZMIHWgBQSzWAE0qCAnnDtxpm4eyzGUv0ZoaGBsqSB
rzCBrDELMAkGA1UEBhMCVVMxCzAJBgNVBAgTAk9IMREwDwYDVQQHEwhDb2x1bWJ1
czESMBAGA1UEChMJVmlraW5nVlBOMR0wGwYDVQQLExRNeU9yZ2FuaXphdGlvbmFs
VW5pdDEVMBMGA1UEAxMMVmlraW5nVlBOIENBMRAwDgYDVQQpEwdFYXN5UlNBMSEw
HwYJKoZIhvcNAQkBFhJtZUBteWhvc3QubXlkb21haW6CCQDPNYXugL8qPjATBgNV
HSUEDDAKBggrBgEFBQcDAjALBgNVHQ8EBAMCB4AwDQYJKoZIhvcNAQEEBQADggIB
AA2XG/V0oBLnmFrzpivH7JGSnZQ5TkmBwEhzgN9AtfjiaObD9wlForrfBrb81i5M
c55Fb2R1NSk+R2w4NCajte8TLJkNPyPOw0e58uYCYHQXW4q/zcozLsYEhYL/jJc4
ubFii/5Q6o4lvUKqJhWHnm23yojht97mbWPqtc4Mybr+jn3TFk9Ex2YRzmQ5IYs3
FbI/k0IcDEdqnk+f09pO9GZdw+VgaWFjBdw8J8zL/PKcRWCnc05XRdDZIaMa1O+P
Lwf3fiZ4ov3+KSqOuXtoe4vZ0n7JFdR7ZH26IZ7BnCLeh6li/rztDRLXSoQXkviQ
QI+qCjx9W06ON7kbpfJddnChqmw+Rj46j1XJhWy3evvDYvaDKGMywdUNCdzT9HOh
JE07VBTkMj/KZL2kllfsiZDRigBdLI7cVp9zGWiKR0sU1KML/3/WxN25Cud8oROh
hADe8EuiivKVSAlG77K2Vva/yOa44fZjgKU2t6aB4AfGKk3lgS5OeW5Lg76v9lCF
ffJ1kCeUZE42UN6qUq0V/oBlvREBqgtVL9H0fBT6Plk++VE1F4i6chgg/SjRfeJb
mYUnXAIzhPcGflxb5pLQV6GITrH+5v2zFAk7HgAmAxt0K9PCZLdmLrJE9bcXS4LD
u6WSsoiZJzo1atgHhqTIbjIuyIWkC1ugThl0HRe3JVob
-----END CERTIFICATE-----
