Certificate:
    Data:
        Version: 3 (0x2)
        Serial Number: 7345 (0x1cb1)
    Signature Algorithm: md5WithRSAEncryption
        Issuer: C=US, ST=OH, L=Columbus, O=VikingVPN, OU=MyOrganizationalUnit, CN=VikingVPN CA/name=EasyRSA/emailAddress=me@myhost.mydomain
        Validity
            Not Before: Feb 28 21:31:04 2016 GMT
            Not After : Feb 25 21:31:04 2026 GMT
        Subject: CN=Client1229Cert4380f3
        Subject Public Key Info:
            Public Key Algorithm: rsaEncryption
                Public-Key: (4096 bit)
                Modulus:
                    00:b0:bf:1a:2c:42:99:be:c1:92:1a:5d:3d:27:55:
                    5b:48:98:27:0a:16:56:04:21:15:75:cf:bc:84:c8:
                    5e:4d:40:0a:79:40:df:f2:dd:66:c3:b0:40:ab:e0:
                    fc:33:f5:87:73:93:e9:ab:8b:fb:e3:27:6d:f1:a3:
                    5b:c9:6e:a5:f8:b7:df:5d:b8:7c:a0:01:b9:35:9a:
                    66:17:30:a2:3c:0b:e7:69:33:1d:fb:43:88:10:d3:
                    55:9e:56:dc:8f:9b:ff:4d:0f:59:46:c8:c1:f8:32:
                    3e:39:15:31:d5:73:4b:4f:f3:c4:3e:0a:46:c3:88:
                    aa:22:07:19:7b:eb:ed:bf:20:80:26:f9:1f:65:54:
                    f5:26:47:85:5b:c9:85:69:d8:b7:c4:7b:bb:1d:3e:
                    fb:eb:be:97:d2:91:72:85:fb:ad:85:96:fe:75:b8:
                    78:33:5b:c1:26:2e:5d:6a:2b:b6:52:5a:0e:4a:b1:
                    ff:a4:f3:14:e3:36:05:9d:9b:ee:44:d4:3a:b9:70:
                    2d:af:44:c1:91:a3:16:27:41:dd:8c:0e:59:8a:6e:
                    ed:b3:35:b6:8c:07:11:84:38:93:21:18:eb:da:71:
                    ef:8e:52:09:54:5e:64:78:f7:2a:74:1e:19:39:18:
                    da:37:ae:e9:b1:58:b5:2b:e0:99:e0:e4:52:79:e7:
                    6b:02:6d:15:91:16:c1:4f:5a:bb:4e:e5:f1:3a:d4:
                    ad:f2:a6:6f:4f:7e:50:e0:8f:95:33:01:7a:f3:53:
                    07:c0:ee:04:50:27:64:02:20:c7:0c:a1:e7:ee:ea:
                    57:32:3c:d6:22:11:c2:49:be:34:95:94:9a:00:e7:
                    5b:30:de:9c:74:38:2f:ec:d2:06:0b:11:ed:a7:a5:
                    90:05:0e:89:c5:86:42:eb:1a:53:19:bf:0c:29:d0:
                    f1:11:81:93:dc:32:a9:de:77:13:af:9a:a1:5d:d4:
                    37:dd:b3:36:41:66:b2:f4:c2:63:e3:56:f5:20:8b:
                    dd:51:b2:cf:63:c6:e4:b6:89:ea:35:4d:d5:64:d6:
                    55:dd:21:4e:82:59:05:4a:3b:b3:b9:19:74:dd:a2:
                    30:4b:0d:9f:05:05:a8:17:95:27:8d:6b:d0:fb:64:
                    6a:e7:ac:76:01:06:96:7e:29:9b:4c:66:eb:05:a3:
                    5a:fa:4d:f6:d1:39:66:3f:51:d4:e7:20:5d:1a:70:
                    46:c5:48:1f:84:7a:06:4d:f7:9f:e2:d8:cc:60:11:
                    f2:0f:e3:3c:d6:b6:ff:43:c6:55:01:ed:1e:51:00:
                    43:42:35:ab:e7:82:da:54:a0:bc:99:e0:30:2d:2d:
                    3c:53:4a:bc:93:89:51:b6:53:45:bc:45:b4:7f:35:
                    de:fe:a7
                Exponent: 65537 (0x10001)
        X509v3 extensions:
            X509v3 Basic Constraints: 
                CA:FALSE
            Netscape Comment: 
                Easy-RSA Generated Certificate
            X509v3 Subject Key Identifier: 
                9C:51:97:42:8C:D0:1A:9D:4D:F1:E1:1D:01:A8:A5:8E:C3:8B:2A:FD
            X509v3 Authority Key Identifier: 
                keyid:12:CD:60:04:D2:A0:80:9E:70:ED:C6:99:B8:7B:2C:C6:52:FD:19:A1
                DirName:/C=US/ST=OH/L=Columbus/O=VikingVPN/OU=MyOrganizationalUnit/CN=VikingVPN CA/name=EasyRSA/emailAddress=me@myhost.mydomain
                serial:CF:35:85:EE:80:BF:2A:3E

            X509v3 Extended Key Usage: 
                TLS Web Client Authentication
            X509v3 Key Usage: 
                Digital Signature
    Signature Algorithm: md5WithRSAEncryption
         4c:3f:f7:a5:62:e0:e4:58:e8:6e:0d:71:41:1c:fd:6b:2a:a7:
         21:68:71:e7:ad:d1:80:7b:3c:18:e9:d8:61:ef:57:40:2e:20:
         e5:fa:c2:ea:e9:ef:7b:45:5e:8a:70:f5:11:9d:54:67:12:01:
         70:87:f6:2b:0d:d8:1e:7e:72:88:1c:3a:16:ca:43:e8:92:1f:
         5b:c9:1a:d0:a1:bc:75:21:7d:b5:41:dc:82:b9:2f:e8:f0:ac:
         ae:aa:ea:e0:bc:3c:db:a4:4e:20:a6:94:9f:02:37:87:84:99:
         ad:04:fd:73:2f:b1:88:90:c9:5b:24:e5:2a:8c:a3:54:ba:53:
         1c:4a:da:c5:e2:ae:ca:0c:c9:11:a7:81:5d:86:36:ad:f0:c3:
         a3:9c:76:b9:d5:83:97:2c:1a:4b:91:de:b0:f3:7a:2f:8d:19:
         0f:9d:d3:1a:5c:8c:da:c7:75:a5:62:06:be:d7:a6:77:7b:8f:
         2c:5f:ca:33:a1:a6:ea:7a:89:ac:4c:a8:50:97:a0:aa:51:2f:
         c1:b2:b6:05:cb:0e:fd:d0:1b:70:d7:32:27:7e:86:b4:12:68:
         85:6e:54:9c:ea:f1:01:3a:8c:65:03:fe:e3:19:f1:69:ca:c5:
         7b:5b:dc:ee:a2:df:2a:f6:3b:2e:2a:b4:a0:11:7b:bc:94:15:
         c3:77:f2:27:7a:c7:cf:80:f6:9b:46:e5:09:bf:ee:a4:09:e6:
         b0:5a:73:14:04:78:fd:1f:71:b2:88:3b:14:72:e5:52:d2:71:
         25:85:43:4c:e5:47:d3:a2:dc:1f:31:af:f4:71:01:18:6b:4c:
         0e:f9:88:22:af:8f:dd:62:84:42:a3:13:4c:ae:6c:f4:5f:4b:
         08:f6:af:70:ce:f9:3b:9e:80:6b:b1:d2:44:ac:6b:f3:97:ed:
         b7:84:b7:6c:cf:54:a1:bd:87:00:73:a6:79:ba:30:b8:97:a3:
         5e:87:db:33:8d:30:ed:cc:8e:51:b5:2e:b0:ef:b3:95:b6:61:
         90:f1:90:d6:a1:96:eb:ae:45:f3:df:97:90:63:50:d7:f2:0d:
         6c:3a:d9:ab:2c:9d:6d:ca:fc:15:63:60:61:94:43:14:76:d9:
         40:37:55:b1:7f:10:c7:0e:81:77:f7:c8:de:25:fc:8f:45:38:
         18:66:29:e8:02:cc:4d:ac:43:a3:cc:f1:aa:17:f5:8d:37:62:
         64:e6:8b:02:ef:f6:84:0f:c8:d9:f3:30:86:b3:19:0e:66:e8:
         f2:3b:23:81:f3:da:55:a4:6f:57:39:38:91:45:46:72:15:f0:
         80:a5:9e:b2:5b:c5:7b:8a:7a:e4:bc:9d:de:5b:07:8a:27:fb:
         01:23:4b:42:d1:e5:f4:ae
-----BEGIN CERTIFICATE-----
MIIGrTCCBJWgAwIBAgICHLEwDQYJKoZIhvcNAQEEBQAwgawxCzAJBgNVBAYTAlVT
MQswCQYDVQQIEwJPSDERMA8GA1UEBxMIQ29sdW1idXMxEjAQBgNVBAoTCVZpa2lu
Z1ZQTjEdMBsGA1UECxMUTXlPcmdhbml6YXRpb25hbFVuaXQxFTATBgNVBAMTDFZp
a2luZ1ZQTiBDQTEQMA4GA1UEKRMHRWFzeVJTQTEhMB8GCSqGSIb3DQEJARYSbWVA
bXlob3N0Lm15ZG9tYWluMB4XDTE2MDIyODIxMzEwNFoXDTI2MDIyNTIxMzEwNFow
HzEdMBsGA1UEAxMUQ2xpZW50MTIyOUNlcnQ0MzgwZjMwggIiMA0GCSqGSIb3DQEB
AQUAA4ICDwAwggIKAoICAQCwvxosQpm+wZIaXT0nVVtImCcKFlYEIRV1z7yEyF5N
QAp5QN/y3WbDsECr4Pwz9Ydzk+mri/vjJ23xo1vJbqX4t99duHygAbk1mmYXMKI8
C+dpMx37Q4gQ01WeVtyPm/9ND1lGyMH4Mj45FTHVc0tP88Q+CkbDiKoiBxl76+2/
IIAm+R9lVPUmR4VbyYVp2LfEe7sdPvvrvpfSkXKF+62Flv51uHgzW8EmLl1qK7ZS
Wg5Ksf+k8xTjNgWdm+5E1Dq5cC2vRMGRoxYnQd2MDlmKbu2zNbaMBxGEOJMhGOva
ce+OUglUXmR49yp0Hhk5GNo3rumxWLUr4Jng5FJ552sCbRWRFsFPWrtO5fE61K3y
pm9PflDgj5UzAXrzUwfA7gRQJ2QCIMcMoefu6lcyPNYiEcJJvjSVlJoA51sw3px0
OC/s0gYLEe2npZAFDonFhkLrGlMZvwwp0PERgZPcMqnedxOvmqFd1DfdszZBZrL0
wmPjVvUgi91Rss9jxuS2ieo1TdVk1lXdIU6CWQVKO7O5GXTdojBLDZ8FBagXlSeN
a9D7ZGrnrHYBBpZ+KZtMZusFo1r6TfbROWY/UdTnIF0acEbFSB+EegZN95/i2Mxg
EfIP4zzWtv9DxlUB7R5RAENCNavngtpUoLyZ4DAtLTxTSryTiVG2U0W8RbR/Nd7+
pwIDAQABo4IBYzCCAV8wCQYDVR0TBAIwADAtBglghkgBhvhCAQ0EIBYeRWFzeS1S
U0EgR2VuZXJhdGVkIENlcnRpZmljYXRlMB0GA1UdDgQWBBScUZdCjNAanU3x4R0B
qKWOw4sq/TCB4QYDVR0jBIHZMIHWgBQSzWAE0qCAnnDtxpm4eyzGUv0ZoaGBsqSB
rzCBrDELMAkGA1UEBhMCVVMxCzAJBgNVBAgTAk9IMREwDwYDVQQHEwhDb2x1bWJ1
czESMBAGA1UEChMJVmlraW5nVlBOMR0wGwYDVQQLExRNeU9yZ2FuaXphdGlvbmFs
VW5pdDEVMBMGA1UEAxMMVmlraW5nVlBOIENBMRAwDgYDVQQpEwdFYXN5UlNBMSEw
HwYJKoZIhvcNAQkBFhJtZUBteWhvc3QubXlkb21haW6CCQDPNYXugL8qPjATBgNV
HSUEDDAKBggrBgEFBQcDAjALBgNVHQ8EBAMCB4AwDQYJKoZIhvcNAQEEBQADggIB
AEw/96Vi4ORY6G4NcUEc/WsqpyFoceet0YB7PBjp2GHvV0AuIOX6wurp73tFXopw
9RGdVGcSAXCH9isN2B5+cogcOhbKQ+iSH1vJGtChvHUhfbVB3IK5L+jwrK6q6uC8
PNukTiCmlJ8CN4eEma0E/XMvsYiQyVsk5SqMo1S6UxxK2sXirsoMyRGngV2GNq3w
w6OcdrnVg5csGkuR3rDzei+NGQ+d0xpcjNrHdaViBr7Xpnd7jyxfyjOhpup6iaxM
qFCXoKpRL8GytgXLDv3QG3DXMid+hrQSaIVuVJzq8QE6jGUD/uMZ8WnKxXtb3O6i
3yr2Oy4qtKARe7yUFcN38id6x8+A9ptG5Qm/7qQJ5rBacxQEeP0fcbKIOxRy5VLS
cSWFQ0zlR9Oi3B8xr/RxARhrTA75iCKvj91ihEKjE0yubPRfSwj2r3DO+TuegGux
0kSsa/OX7beEt2zPVKG9hwBzpnm6MLiXo16H2zONMO3MjlG1LrDvs5W2YZDxkNah
luuuRfPfl5BjUNfyDWw62assnW3K/BVjYGGUQxR22UA3VbF/EMcOgXf3yN4l/I9F
OBhmKegCzE2sQ6PM8aoX9Y03YmTmiwLv9oQPyNnzMIazGQ5m6PI7I4Hz2lWkb1c5
OJFFRnIV8IClnrJbxXuKeuS8nd5bB4on+wEjS0LR5fSu
-----END CERTIFICATE-----
