Certificate:
    Data:
        Version: 3 (0x2)
        Serial Number: 7349 (0x1cb5)
    Signature Algorithm: md5WithRSAEncryption
        Issuer: C=US, ST=OH, L=Columbus, O=VikingVPN, OU=MyOrganizationalUnit, CN=VikingVPN CA/name=EasyRSA/emailAddress=me@myhost.mydomain
        Validity
            Not Before: Feb 29 03:04:40 2016 GMT
            Not After : Feb 26 03:04:40 2026 GMT
        Subject: CN=Client2203Cert9a59ff
        Subject Public Key Info:
            Public Key Algorithm: rsaEncryption
                Public-Key: (4096 bit)
                Modulus:
                    00:c2:73:a8:7a:d2:c1:e7:64:3b:21:dd:88:81:64:
                    cc:04:b8:ca:ff:ca:d4:98:ed:1a:34:90:27:5a:c9:
                    dd:93:8e:d4:b3:59:3b:ec:6c:b7:fb:d3:03:ad:09:
                    14:3f:2e:13:7a:57:dc:c8:75:d9:00:22:02:70:3b:
                    40:ec:fb:db:03:b3:6e:77:01:1d:98:98:a5:66:5e:
                    93:6c:96:96:8c:60:3e:23:1a:ba:20:99:e5:47:c0:
                    56:31:5f:79:1b:43:aa:2d:c8:5e:74:b7:54:ea:71:
                    c8:31:69:b2:54:bd:1b:cd:ac:49:04:30:bc:fd:75:
                    aa:10:6a:4a:fa:82:47:96:03:c9:aa:1d:0e:82:c4:
                    d1:70:6b:04:c0:53:3b:77:43:24:06:ef:8e:dc:3e:
                    db:4f:36:e4:d8:31:0e:5b:6a:91:1a:ba:0f:cb:22:
                    b9:d2:c9:12:0d:bf:2e:4a:d7:c7:cb:79:20:59:72:
                    35:db:47:bf:9a:82:59:94:ca:88:c5:57:f2:cf:02:
                    fa:7c:5f:66:2c:58:a3:e6:57:7d:a6:c2:35:ec:bd:
                    a0:21:4d:07:c9:f4:cb:67:64:89:b3:9f:4d:d6:e8:
                    d6:5a:f4:14:44:75:53:d3:b1:49:7b:c0:a5:98:bf:
                    63:8d:73:16:cd:36:c5:4d:a1:8b:dd:ad:f9:9b:60:
                    20:34:7e:69:ae:bd:78:57:46:67:53:95:1c:84:a7:
                    be:45:3e:01:39:2c:44:3d:48:3a:aa:e4:51:9f:28:
                    ef:55:0b:67:e8:94:9f:74:ac:aa:a0:11:17:6c:db:
                    9f:fc:b7:d9:a8:45:60:bb:8a:32:fd:cb:88:60:82:
                    b2:37:dd:a4:c5:ae:85:79:c4:f2:1d:d5:0a:d7:69:
                    60:84:2b:17:73:0f:79:ae:99:d7:d9:5b:19:92:ad:
                    1a:30:67:7a:e9:f0:53:7b:8d:c0:5f:d7:42:bc:b7:
                    c1:a2:aa:1b:a4:96:c5:83:3a:dc:4f:9b:d5:2e:2a:
                    d2:d1:f4:5b:d9:a3:82:99:8d:0d:c1:ba:86:c4:1c:
                    ae:99:c9:93:f3:77:49:ef:53:65:19:3a:fb:22:e1:
                    3b:ad:c7:5a:86:0e:af:ab:dc:eb:e1:8a:e8:c7:cc:
                    ff:46:f1:70:12:38:b4:66:a2:e9:72:6b:1d:4e:29:
                    71:83:35:31:a8:ea:31:9a:65:3e:dd:64:64:dd:0f:
                    11:95:20:2b:33:c7:d9:fb:12:e7:b3:2b:d9:b8:64:
                    46:b8:17:9b:29:7a:25:aa:ad:7b:c4:b7:ba:33:05:
                    c4:35:56:eb:83:a2:a3:d8:25:7c:b5:94:6b:c2:44:
                    f7:8d:ca:e3:9f:f9:c5:ab:74:4e:08:37:d4:b6:36:
                    f5:b6:db
                Exponent: 65537 (0x10001)
        X509v3 extensions:
            X509v3 Basic Constraints: 
                CA:FALSE
            Netscape Comment: 
                Easy-RSA Generated Certificate
            X509v3 Subject Key Identifier: 
                D7:0B:17:10:BD:5F:93:D4:AF:BD:EB:66:F8:FC:12:CB:BF:BA:C8:67
            X509v3 Authority Key Identifier: 
                keyid:12:CD:60:04:D2:A0:80:9E:70:ED:C6:99:B8:7B:2C:C6:52:FD:19:A1
                DirName:/C=US/ST=OH/L=Columbus/O=VikingVPN/OU=MyOrganizationalUnit/CN=VikingVPN CA/name=EasyRSA/emailAddress=me@myhost.mydomain
                serial:CF:35:85:EE:80:BF:2A:3E

            X509v3 Extended Key Usage: 
                TLS Web Client Authentication
            X509v3 Key Usage: 
                Digital Signature
    Signature Algorithm: md5WithRSAEncryption
         1d:e8:45:1a:78:6a:0f:e4:f1:bd:55:e5:32:c0:a3:1f:2f:64:
         9e:f4:9c:b1:05:b1:af:1b:38:6d:6e:b0:a5:5d:55:a0:93:e4:
         48:42:2a:4b:ce:fb:07:bc:08:8e:2c:35:7d:57:7c:f1:0f:b9:
         78:5d:47:19:47:03:6b:67:c4:4a:61:1c:9c:d1:36:5c:10:48:
         43:03:76:32:d0:37:68:fd:a2:7f:26:31:20:7e:e4:17:62:81:
         81:59:66:de:95:62:ac:b8:37:f6:00:58:98:44:1e:0b:c6:39:
         bc:3a:d0:7b:9d:2d:94:d2:fa:67:30:ae:37:ee:4c:18:de:a7:
         5c:5b:e2:c3:32:36:65:5b:32:4e:3c:13:1f:cb:e0:c9:57:d4:
         ab:d2:ff:55:9b:30:6a:3f:61:b3:47:17:3d:5d:d9:56:e3:28:
         45:48:fa:6c:49:5c:70:92:82:8a:9e:70:8e:c7:de:a6:b8:1a:
         a5:9d:ec:bf:91:4c:2d:36:6c:c6:65:08:14:8f:28:da:c8:fa:
         b7:d0:75:d0:b6:4c:0f:bd:2f:6a:ca:8f:18:f2:cf:80:89:cd:
         39:87:79:4e:fa:d3:3f:d2:d7:0f:ba:ff:c0:60:ee:64:2f:8f:
         0a:e0:29:26:db:f8:1c:ce:13:2d:6c:3b:c2:8e:b0:a8:99:a8:
         bf:4b:7b:df:f3:59:01:10:50:6e:78:1e:ea:87:4f:0a:20:a5:
         a8:d7:65:11:84:7d:19:e7:5c:13:fe:66:1b:a5:6e:af:51:c6:
         10:cb:dd:94:0b:94:18:8a:14:10:ed:91:c7:d8:0a:81:d3:4c:
         56:63:64:2a:99:6a:0d:4b:a1:23:c2:f1:b7:d7:cf:78:f8:15:
         f0:a4:78:aa:8b:fa:f4:a9:d2:a2:33:99:cb:ed:fa:40:5b:f5:
         43:2a:ae:80:6a:8e:ff:d1:0f:c7:70:7f:c3:c1:de:a9:1b:2f:
         2c:38:a9:99:9e:fb:d3:dd:fd:75:a5:72:ef:5d:fd:a2:de:a1:
         8a:b6:df:c4:b0:24:1e:b5:02:f0:ce:a0:88:0e:c5:2c:c7:10:
         fd:ae:bb:66:46:f3:e9:a2:85:6d:e0:2b:cb:46:7c:20:9a:a7:
         eb:f3:f8:03:9c:a3:ff:49:92:07:5c:2a:5b:52:14:87:9b:d0:
         a5:e0:68:35:05:8f:da:81:1a:13:fb:4e:c0:25:ab:3d:0b:c7:
         77:68:b0:3e:5b:76:50:34:0e:9d:af:e9:6e:c8:ff:48:68:8a:
         22:42:f2:36:03:8c:ff:97:3e:9e:bc:e8:d0:9e:f9:70:9d:51:
         96:79:be:4d:98:68:8c:05:12:64:89:72:7b:f1:64:1d:f9:cd:
         e5:9c:be:5e:16:89:79:01
-----BEGIN CERTIFICATE-----
MIIGrTCCBJWgAwIBAgICHLUwDQYJKoZIhvcNAQEEBQAwgawxCzAJBgNVBAYTAlVT
MQswCQYDVQQIEwJPSDERMA8GA1UEBxMIQ29sdW1idXMxEjAQBgNVBAoTCVZpa2lu
Z1ZQTjEdMBsGA1UECxMUTXlPcmdhbml6YXRpb25hbFVuaXQxFTATBgNVBAMTDFZp
a2luZ1ZQTiBDQTEQMA4GA1UEKRMHRWFzeVJTQTEhMB8GCSqGSIb3DQEJARYSbWVA
bXlob3N0Lm15ZG9tYWluMB4XDTE2MDIyOTAzMDQ0MFoXDTI2MDIyNjAzMDQ0MFow
HzEdMBsGA1UEAxMUQ2xpZW50MjIwM0NlcnQ5YTU5ZmYwggIiMA0GCSqGSIb3DQEB
AQUAA4ICDwAwggIKAoICAQDCc6h60sHnZDsh3YiBZMwEuMr/ytSY7Ro0kCdayd2T
jtSzWTvsbLf70wOtCRQ/LhN6V9zIddkAIgJwO0Ds+9sDs253AR2YmKVmXpNslpaM
YD4jGrogmeVHwFYxX3kbQ6otyF50t1TqccgxabJUvRvNrEkEMLz9daoQakr6gkeW
A8mqHQ6CxNFwawTAUzt3QyQG747cPttPNuTYMQ5bapEaug/LIrnSyRINvy5K18fL
eSBZcjXbR7+aglmUyojFV/LPAvp8X2YsWKPmV32mwjXsvaAhTQfJ9MtnZImzn03W
6NZa9BREdVPTsUl7wKWYv2ONcxbNNsVNoYvdrfmbYCA0fmmuvXhXRmdTlRyEp75F
PgE5LEQ9SDqq5FGfKO9VC2folJ90rKqgERds25/8t9moRWC7ijL9y4hggrI33aTF
roV5xPId1QrXaWCEKxdzD3mumdfZWxmSrRowZ3rp8FN7jcBf10K8t8GiqhuklsWD
OtxPm9UuKtLR9FvZo4KZjQ3BuobEHK6ZyZPzd0nvU2UZOvsi4Tutx1qGDq+r3Ovh
iujHzP9G8XASOLRmoulyax1OKXGDNTGo6jGaZT7dZGTdDxGVICszx9n7EuezK9m4
ZEa4F5speiWqrXvEt7ozBcQ1VuuDoqPYJXy1lGvCRPeNyuOf+cWrdE4IN9S2NvW2
2wIDAQABo4IBYzCCAV8wCQYDVR0TBAIwADAtBglghkgBhvhCAQ0EIBYeRWFzeS1S
U0EgR2VuZXJhdGVkIENlcnRpZmljYXRlMB0GA1UdDgQWBBTXCxcQvV+T1K+962b4
/BLLv7rIZzCB4QYDVR0jBIHZMIHWgBQSzWAE0qCAnnDtxpm4eyzGUv0ZoaGBsqSB
rzCBrDELMAkGA1UEBhMCVVMxCzAJBgNVBAgTAk9IMREwDwYDVQQHEwhDb2x1bWJ1
czESMBAGA1UEChMJVmlraW5nVlBOMR0wGwYDVQQLExRNeU9yZ2FuaXphdGlvbmFs
VW5pdDEVMBMGA1UEAxMMVmlraW5nVlBOIENBMRAwDgYDVQQpEwdFYXN5UlNBMSEw
HwYJKoZIhvcNAQkBFhJtZUBteWhvc3QubXlkb21haW6CCQDPNYXugL8qPjATBgNV
HSUEDDAKBggrBgEFBQcDAjALBgNVHQ8EBAMCB4AwDQYJKoZIhvcNAQEEBQADggIB
AB3oRRp4ag/k8b1V5TLAox8vZJ70nLEFsa8bOG1usKVdVaCT5EhCKkvO+we8CI4s
NX1XfPEPuXhdRxlHA2tnxEphHJzRNlwQSEMDdjLQN2j9on8mMSB+5BdigYFZZt6V
Yqy4N/YAWJhEHgvGObw60HudLZTS+mcwrjfuTBjep1xb4sMyNmVbMk48Ex/L4MlX
1KvS/1WbMGo/YbNHFz1d2VbjKEVI+mxJXHCSgoqecI7H3qa4GqWd7L+RTC02bMZl
CBSPKNrI+rfQddC2TA+9L2rKjxjyz4CJzTmHeU760z/S1w+6/8Bg7mQvjwrgKSbb
+BzOEy1sO8KOsKiZqL9Le9/zWQEQUG54HuqHTwogpajXZRGEfRnnXBP+Zhulbq9R
xhDL3ZQLlBiKFBDtkcfYCoHTTFZjZCqZag1LoSPC8bfXz3j4FfCkeKqL+vSp0qIz
mcvt+kBb9UMqroBqjv/RD8dwf8PB3qkbLyw4qZme+9Pd/XWlcu9d/aLeoYq238Sw
JB61AvDOoIgOxSzHEP2uu2ZG8+mihW3gK8tGfCCap+vz+AOco/9JkgdcKltSFIeb
0KXgaDUFj9qBGhP7TsAlqz0Lx3dosD5bdlA0Dp2v6W7I/0hoiiJC8jYDjP+XPp68
6NCe+XCdUZZ5vk2YaIwFEmSJcnvxZB35zeWcvl4WiXkB
-----END CERTIFICATE-----
