Certificate:
    Data:
        Version: 3 (0x2)
        Serial Number: 7357 (0x1cbd)
    Signature Algorithm: md5WithRSAEncryption
        Issuer: C=US, ST=OH, L=Columbus, O=VikingVPN, OU=MyOrganizationalUnit, CN=VikingVPN CA/name=EasyRSA/emailAddress=me@myhost.mydomain
        Validity
            Not Before: Feb 29 20:32:09 2016 GMT
            Not After : Feb 26 20:32:09 2026 GMT
        Subject: CN=Client2205Cert8fc3bc
        Subject Public Key Info:
            Public Key Algorithm: rsaEncryption
                Public-Key: (4096 bit)
                Modulus:
                    00:d8:b9:42:46:8a:8a:c2:11:35:86:b4:a1:a1:8d:
                    ac:32:b4:64:1f:99:c8:0a:f9:48:82:31:1c:fa:e7:
                    21:ef:ed:a3:6b:fe:d7:81:ad:32:23:fb:f4:b5:f4:
                    3d:fe:18:08:7c:48:64:63:71:40:15:e0:08:e3:64:
                    ef:40:84:f2:86:b4:a9:86:c1:3e:3c:03:5f:a2:dd:
                    4d:bc:bf:a4:e2:81:49:f5:33:bc:4a:aa:ef:6a:13:
                    f1:fe:b3:80:f3:76:ff:ba:c9:45:34:cd:42:1a:5e:
                    86:0a:7a:12:e5:d6:f3:f4:9d:3c:8e:f8:b9:3b:59:
                    4a:6a:4d:8d:0c:48:f6:a2:ad:dd:9a:a1:98:fd:30:
                    5c:9a:d9:07:25:28:14:0d:87:c8:bf:f0:4a:63:d0:
                    52:8c:fe:eb:f5:5d:0d:2b:f8:24:1d:78:80:ed:c8:
                    d5:e4:47:b5:d4:9e:4f:f9:0d:17:65:5c:4d:14:f5:
                    cb:a0:87:33:a2:e9:66:4d:eb:96:03:34:55:dd:32:
                    29:d8:4f:4a:5f:8d:91:92:1d:f9:4e:e8:b1:1c:32:
                    bf:7c:a0:8f:54:5c:ba:fa:5b:85:54:d3:7e:c8:96:
                    9d:7a:6a:2e:0f:32:b8:20:93:08:cd:f2:8d:b7:0a:
                    f1:e9:55:93:b6:67:82:d7:0a:52:04:b0:5a:48:ea:
                    94:07:9f:bb:cd:e0:cc:d0:37:0d:c0:ee:9a:bf:6d:
                    bd:5a:6a:2b:e9:1d:7d:5a:bb:4f:df:e5:fc:35:f5:
                    3b:3c:48:96:e8:57:2a:1f:a8:1d:5f:e9:b9:56:6e:
                    1b:0a:72:57:79:4a:a3:7a:f7:c9:0b:d7:fc:db:65:
                    0c:0e:c1:4f:4a:fa:5b:a4:2a:fb:97:5a:f6:59:ee:
                    cf:59:8c:d1:b9:f8:c1:47:08:e4:de:25:b6:90:0d:
                    1c:9c:9c:57:67:db:d6:bb:44:4c:f3:0e:66:bb:5d:
                    ee:0b:df:83:8a:3e:c4:d3:8d:f4:88:c8:10:4c:3c:
                    d1:fc:ae:3f:6d:d9:54:f7:b3:10:1f:91:78:80:9f:
                    8a:51:38:13:ba:1e:4c:59:94:6f:fc:fc:2a:3e:f6:
                    cd:3c:cb:49:d1:94:ef:56:85:36:5e:bb:f4:6e:8f:
                    30:d6:48:cb:e9:f4:dd:b2:87:5b:14:cb:f9:0b:18:
                    36:94:ee:72:10:95:63:81:3b:a4:eb:41:31:ae:df:
                    e9:0d:01:23:1c:e1:01:37:ca:5f:d0:fc:fe:22:ac:
                    16:af:ce:e0:26:5d:79:19:cf:40:b1:b4:8c:19:77:
                    a1:f1:e4:1d:32:56:ff:33:36:91:10:f6:27:5e:0f:
                    08:61:e2:fc:d3:cf:8d:1f:76:72:47:ba:d3:65:73:
                    09:15:69
                Exponent: 65537 (0x10001)
        X509v3 extensions:
            X509v3 Basic Constraints: 
                CA:FALSE
            Netscape Comment: 
                Easy-RSA Generated Certificate
            X509v3 Subject Key Identifier: 
                A5:68:25:77:83:46:A4:24:B5:36:5C:F7:BE:04:E6:FF:E7:86:23:08
            X509v3 Authority Key Identifier: 
                keyid:12:CD:60:04:D2:A0:80:9E:70:ED:C6:99:B8:7B:2C:C6:52:FD:19:A1
                DirName:/C=US/ST=OH/L=Columbus/O=VikingVPN/OU=MyOrganizationalUnit/CN=VikingVPN CA/name=EasyRSA/emailAddress=me@myhost.mydomain
                serial:CF:35:85:EE:80:BF:2A:3E

            X509v3 Extended Key Usage: 
                TLS Web Client Authentication
            X509v3 Key Usage: 
                Digital Signature
    Signature Algorithm: md5WithRSAEncryption
         58:0a:d1:f4:23:cc:07:1f:a4:cd:8d:d3:87:5a:3c:03:96:1e:
         6a:66:80:1c:7d:9b:bf:a2:c5:c3:85:99:d1:90:9a:46:99:e1:
         87:ed:78:c2:b4:1f:09:95:3a:4f:c1:38:0c:83:8c:01:7f:31:
         2e:7f:4c:a7:10:00:3d:a7:19:d0:0c:00:dc:1d:60:a3:26:ed:
         f2:94:cf:cc:0a:80:b5:5f:4b:55:5a:36:ad:d8:03:40:0d:02:
         00:f4:72:9d:f4:c4:0c:d2:48:a8:55:30:de:19:f7:c0:8d:99:
         59:03:e6:7f:fc:a6:ab:c0:56:cd:99:f4:5f:b3:b0:78:12:f1:
         85:2d:f0:c0:b0:95:c4:b8:1e:36:03:a6:e8:9d:f0:d0:29:ec:
         36:d6:24:cd:d3:b4:31:60:7f:06:6a:f4:db:ff:ff:2d:f9:21:
         01:d6:c7:10:3d:ae:93:ce:e3:89:3d:95:3a:5a:27:db:d9:35:
         30:0e:3d:2b:eb:4a:85:95:b4:15:91:09:b9:d5:fc:02:82:98:
         93:8e:15:66:a8:e0:17:b0:bc:6e:dd:9f:56:95:8c:d4:a3:31:
         61:54:91:57:7e:dd:51:3e:11:2f:90:44:21:ba:2a:1a:e1:b1:
         b9:ac:4b:34:97:f2:40:8e:a8:ac:c4:a4:42:1c:78:48:c1:ac:
         ad:d0:b2:04:a3:27:f6:50:79:14:31:40:84:1b:c2:be:11:9b:
         4d:83:0a:9a:a2:8b:aa:97:3c:17:3f:6f:f1:fa:34:14:ad:fe:
         45:ff:9c:05:97:e1:d4:4e:e0:6d:16:2a:d1:35:a7:f2:27:40:
         96:50:70:6a:de:7e:4a:82:47:8e:1f:db:51:fa:d2:81:d5:6a:
         0d:61:f8:12:33:60:6d:50:ef:8d:77:56:9a:5f:2d:e8:3c:df:
         5c:d2:65:28:3c:e2:89:64:50:af:89:b0:76:08:a2:bc:4c:28:
         ca:40:9c:32:8a:5c:97:2a:79:ab:ad:d9:76:dc:da:32:26:e5:
         d1:c1:d6:ce:19:09:b9:55:18:5b:a3:a0:6c:3c:2f:a5:9c:b7:
         09:33:90:75:9d:9b:e6:b3:c2:fd:e0:4f:5d:72:65:1c:1a:2c:
         0c:2c:f1:6f:66:72:42:44:ba:30:fa:7c:ce:c8:48:60:eb:f2:
         27:5b:b9:2d:be:37:34:f7:16:77:07:67:d5:f9:1e:1b:e2:fb:
         ef:70:6f:51:b6:46:59:f7:fc:72:32:a4:48:58:e6:40:cc:90:
         de:e9:2b:94:70:54:54:90:a7:74:5b:33:2e:8b:69:f4:11:82:
         b4:db:ce:72:a1:7f:bd:6f:bc:21:c5:bc:fc:f9:6a:b9:df:35:
         64:2a:b2:2f:d2:0e:b7:d6
-----BEGIN CERTIFICATE-----
MIIGrTCCBJWgAwIBAgICHL0wDQYJKoZIhvcNAQEEBQAwgawxCzAJBgNVBAYTAlVT
MQswCQYDVQQIEwJPSDERMA8GA1UEBxMIQ29sdW1idXMxEjAQBgNVBAoTCVZpa2lu
Z1ZQTjEdMBsGA1UECxMUTXlPcmdhbml6YXRpb25hbFVuaXQxFTATBgNVBAMTDFZp
a2luZ1ZQTiBDQTEQMA4GA1UEKRMHRWFzeVJTQTEhMB8GCSqGSIb3DQEJARYSbWVA
bXlob3N0Lm15ZG9tYWluMB4XDTE2MDIyOTIwMzIwOVoXDTI2MDIyNjIwMzIwOVow
HzEdMBsGA1UEAxMUQ2xpZW50MjIwNUNlcnQ4ZmMzYmMwggIiMA0GCSqGSIb3DQEB
AQUAA4ICDwAwggIKAoICAQDYuUJGiorCETWGtKGhjawytGQfmcgK+UiCMRz65yHv
7aNr/teBrTIj+/S19D3+GAh8SGRjcUAV4AjjZO9AhPKGtKmGwT48A1+i3U28v6Ti
gUn1M7xKqu9qE/H+s4Dzdv+6yUU0zUIaXoYKehLl1vP0nTyO+Lk7WUpqTY0MSPai
rd2aoZj9MFya2QclKBQNh8i/8Epj0FKM/uv1XQ0r+CQdeIDtyNXkR7XUnk/5DRdl
XE0U9cughzOi6WZN65YDNFXdMinYT0pfjZGSHflO6LEcMr98oI9UXLr6W4VU037I
lp16ai4PMrggkwjN8o23CvHpVZO2Z4LXClIEsFpI6pQHn7vN4MzQNw3A7pq/bb1a
aivpHX1au0/f5fw19Ts8SJboVyofqB1f6blWbhsKcld5SqN698kL1/zbZQwOwU9K
+lukKvuXWvZZ7s9ZjNG5+MFHCOTeJbaQDRycnFdn29a7REzzDma7Xe4L34OKPsTT
jfSIyBBMPNH8rj9t2VT3sxAfkXiAn4pROBO6HkxZlG/8/Co+9s08y0nRlO9WhTZe
u/RujzDWSMvp9N2yh1sUy/kLGDaU7nIQlWOBO6TrQTGu3+kNASMc4QE3yl/Q/P4i
rBavzuAmXXkZz0CxtIwZd6Hx5B0yVv8zNpEQ9ideDwhh4vzTz40fdnJHutNlcwkV
aQIDAQABo4IBYzCCAV8wCQYDVR0TBAIwADAtBglghkgBhvhCAQ0EIBYeRWFzeS1S
U0EgR2VuZXJhdGVkIENlcnRpZmljYXRlMB0GA1UdDgQWBBSlaCV3g0akJLU2XPe+
BOb/54YjCDCB4QYDVR0jBIHZMIHWgBQSzWAE0qCAnnDtxpm4eyzGUv0ZoaGBsqSB
rzCBrDELMAkGA1UEBhMCVVMxCzAJBgNVBAgTAk9IMREwDwYDVQQHEwhDb2x1bWJ1
czESMBAGA1UEChMJVmlraW5nVlBOMR0wGwYDVQQLExRNeU9yZ2FuaXphdGlvbmFs
VW5pdDEVMBMGA1UEAxMMVmlraW5nVlBOIENBMRAwDgYDVQQpEwdFYXN5UlNBMSEw
HwYJKoZIhvcNAQkBFhJtZUBteWhvc3QubXlkb21haW6CCQDPNYXugL8qPjATBgNV
HSUEDDAKBggrBgEFBQcDAjALBgNVHQ8EBAMCB4AwDQYJKoZIhvcNAQEEBQADggIB
AFgK0fQjzAcfpM2N04daPAOWHmpmgBx9m7+ixcOFmdGQmkaZ4YfteMK0HwmVOk/B
OAyDjAF/MS5/TKcQAD2nGdAMANwdYKMm7fKUz8wKgLVfS1VaNq3YA0ANAgD0cp30
xAzSSKhVMN4Z98CNmVkD5n/8pqvAVs2Z9F+zsHgS8YUt8MCwlcS4HjYDpuid8NAp
7DbWJM3TtDFgfwZq9Nv//y35IQHWxxA9rpPO44k9lTpaJ9vZNTAOPSvrSoWVtBWR
CbnV/AKCmJOOFWao4BewvG7dn1aVjNSjMWFUkVd+3VE+ES+QRCG6KhrhsbmsSzSX
8kCOqKzEpEIceEjBrK3QsgSjJ/ZQeRQxQIQbwr4Rm02DCpqii6qXPBc/b/H6NBSt
/kX/nAWX4dRO4G0WKtE1p/InQJZQcGrefkqCR44f21H60oHVag1h+BIzYG1Q7413
VppfLeg831zSZSg84olkUK+JsHYIorxMKMpAnDKKXJcqeaut2Xbc2jIm5dHB1s4Z
CblVGFujoGw8L6WctwkzkHWdm+azwv3gT11yZRwaLAws8W9mckJEujD6fM7ISGDr
8idbuS2+NzT3FncHZ9X5Hhvi++9wb1G2Rln3/HIypEhY5kDMkN7pK5RwVFSQp3Rb
My6LafQRgrTbznKhf71vvCHFvPz5arnfNWQqsi/SDrfW
-----END CERTIFICATE-----
