Certificate:
    Data:
        Version: 3 (0x2)
        Serial Number: 7364 (0x1cc4)
    Signature Algorithm: md5WithRSAEncryption
        Issuer: C=US, ST=OH, L=Columbus, O=VikingVPN, OU=MyOrganizationalUnit, CN=VikingVPN CA/name=EasyRSA/emailAddress=me@myhost.mydomain
        Validity
            Not Before: Mar  1 22:56:15 2016 GMT
            Not After : Feb 27 22:56:15 2026 GMT
        Subject: CN=Client2200Cert47d231
        Subject Public Key Info:
            Public Key Algorithm: rsaEncryption
                Public-Key: (4096 bit)
                Modulus:
                    00:bf:a1:f8:a3:48:00:dd:37:9f:e6:37:5e:14:49:
                    96:95:32:60:26:95:41:2f:e1:79:dd:76:17:a5:06:
                    c1:2f:86:86:9c:bc:22:68:b1:21:87:60:99:7f:dc:
                    fc:48:c6:ba:fb:55:65:09:ae:51:d9:3a:42:5f:fe:
                    d9:a8:cf:09:55:e0:d9:5d:06:29:b0:ca:da:dc:6e:
                    6f:cf:20:db:3e:ba:fa:bb:db:94:98:6d:4a:ee:1c:
                    bb:9a:7e:6f:1b:8a:f2:54:2d:a5:72:05:fe:36:d2:
                    9a:42:9a:f5:6d:05:f1:f7:a3:dc:b6:6d:39:6a:82:
                    73:99:f3:81:ba:ac:be:54:8a:8f:c3:a6:b7:0f:c7:
                    ea:38:d4:a6:4d:4a:39:4a:b9:fd:16:5c:a3:c3:e3:
                    9a:fd:2b:41:52:9c:59:e9:69:de:87:83:5a:7c:2e:
                    03:0a:4b:7c:39:86:70:5a:bc:ba:34:93:07:85:b8:
                    ff:28:05:e5:7c:37:a7:d7:e4:38:85:1a:d7:d2:93:
                    65:a8:6a:c3:c3:fd:3f:13:f0:13:57:0f:33:6b:e9:
                    40:58:65:a0:79:3c:ea:2f:1c:be:17:19:d6:84:9b:
                    65:e3:fe:3b:ea:19:d6:80:fe:a8:ef:51:23:a2:d0:
                    25:ae:e7:2d:7b:2e:fe:e3:b7:b0:95:61:d1:21:57:
                    4b:d5:b2:5b:f3:cd:eb:b7:5e:ac:33:50:1c:bf:63:
                    b9:52:ed:d2:ce:48:24:4f:b1:18:15:03:03:88:e8:
                    b0:87:db:bb:fa:5f:3e:79:0d:02:6d:9d:87:9e:7e:
                    2e:8a:63:13:c1:ca:b4:ca:75:ad:1c:87:6c:4a:be:
                    06:5a:69:3f:aa:04:f6:45:2d:b1:f5:43:d0:1d:ba:
                    bd:49:cd:e4:ac:f6:02:c2:69:54:64:02:f0:a8:ac:
                    d7:48:5b:b3:8f:47:55:fe:5a:8e:4e:44:8b:60:85:
                    60:71:5c:3c:2b:2b:4d:6f:9c:c6:0e:02:47:b9:13:
                    ef:a1:b9:94:13:85:89:1a:7e:35:6b:85:71:f3:fd:
                    57:7e:d5:6a:cb:8c:48:8a:57:d0:9d:e8:32:e5:6d:
                    9f:f9:17:a5:72:33:cc:ce:1f:56:25:ab:04:c3:84:
                    3c:b4:0d:2c:2a:43:e2:0a:42:32:c5:2b:c4:b2:3b:
                    ff:41:24:b1:bd:3f:e1:ed:d9:ed:5b:db:df:6d:d4:
                    36:56:30:e3:6c:e0:72:3e:76:a1:1c:9e:f8:e3:d2:
                    2d:cb:b9:54:1f:fb:04:37:b8:68:b7:5c:c0:51:66:
                    05:82:5e:f6:38:26:db:2e:c4:cd:bd:4f:68:e8:91:
                    98:ee:69:10:ed:1f:1a:89:87:bb:ff:f2:29:5b:b5:
                    0c:a0:59
                Exponent: 65537 (0x10001)
        X509v3 extensions:
            X509v3 Basic Constraints: 
                CA:FALSE
            Netscape Comment: 
                Easy-RSA Generated Certificate
            X509v3 Subject Key Identifier: 
                30:67:72:15:8F:8C:AB:67:C5:AE:16:86:14:0D:04:F1:E6:2E:E8:5B
            X509v3 Authority Key Identifier: 
                keyid:12:CD:60:04:D2:A0:80:9E:70:ED:C6:99:B8:7B:2C:C6:52:FD:19:A1
                DirName:/C=US/ST=OH/L=Columbus/O=VikingVPN/OU=MyOrganizationalUnit/CN=VikingVPN CA/name=EasyRSA/emailAddress=me@myhost.mydomain
                serial:CF:35:85:EE:80:BF:2A:3E

            X509v3 Extended Key Usage: 
                TLS Web Client Authentication
            X509v3 Key Usage: 
                Digital Signature
    Signature Algorithm: md5WithRSAEncryption
         0b:f8:1c:f1:77:f3:9b:3c:92:4c:1c:a1:23:93:05:dd:55:16:
         07:e0:6c:93:1b:89:27:83:71:7a:cb:25:72:fb:39:c2:f1:c3:
         19:16:83:d8:a6:ae:d7:30:69:47:6c:83:cf:7b:80:6e:21:0f:
         ea:df:d4:03:ae:71:99:ed:73:6a:28:c0:27:dc:b8:7c:a7:e8:
         ba:01:66:7e:7d:74:eb:62:06:5d:a1:ba:d7:7e:e8:89:82:35:
         38:2f:07:be:08:1b:4b:c2:42:f6:9a:3d:95:6e:de:d0:69:ea:
         43:6a:41:00:bc:2f:96:19:52:bb:69:3b:d8:50:3b:69:f2:90:
         dc:8e:5f:c4:53:85:21:57:94:a0:c1:4c:67:41:05:d3:7e:95:
         14:4d:3d:87:02:3f:57:43:9b:66:d2:0a:54:7a:90:db:ab:e1:
         b3:f4:80:94:f0:1d:28:65:c3:ac:9d:6f:10:c8:c9:9a:54:a5:
         85:e7:6b:24:93:e9:5a:4c:e2:88:0a:84:79:b5:e2:64:43:74:
         dd:7e:19:e7:b7:eb:7d:8b:bf:9b:3d:e1:24:d3:26:44:9a:20:
         81:2c:30:4e:75:53:28:a9:ce:5e:8e:10:19:fe:e6:12:6a:f6:
         3f:ab:da:03:c6:a5:6e:62:71:01:39:de:a8:87:12:3f:1d:5d:
         5c:84:d1:ab:4a:08:28:d8:67:99:33:4e:04:ea:ee:bd:e4:c3:
         ad:7e:8c:24:0d:75:9f:3c:54:73:85:d6:49:d5:8c:3b:b9:03:
         7a:bf:af:05:a9:15:81:b7:64:47:e0:f6:af:4e:0c:d6:1c:75:
         57:44:e7:66:d2:8f:24:1e:e9:fe:c1:f2:50:13:ad:89:54:92:
         00:13:1e:48:81:e0:26:49:71:87:bc:3f:e5:7c:1c:d4:5c:40:
         7b:1b:c6:d8:62:f4:ce:31:38:c2:b9:19:ac:a8:dd:46:5f:d4:
         c2:f9:3b:89:49:a8:d1:84:52:3b:f4:ee:c1:61:e9:fd:8b:76:
         12:e1:74:27:7a:e7:1e:33:1e:34:62:b0:15:ea:1b:a6:d5:d3:
         7a:94:a7:72:6d:60:a5:f3:b2:8a:ee:69:17:8d:52:db:06:24:
         1f:cb:ba:da:e9:1a:65:10:97:dd:57:db:0f:1c:4a:de:dc:e0:
         3f:e9:d0:bd:b5:ad:56:19:73:58:2e:2c:ee:13:a2:7b:d5:b0:
         c6:15:b3:e4:c9:6a:1e:13:f9:eb:82:bf:20:a1:2f:a4:3b:26:
         53:64:03:43:d2:45:ce:c7:56:9f:c9:ff:c4:22:e7:9f:6b:31:
         c7:13:b8:ca:5f:f5:14:2e:3a:08:d6:4d:e1:15:a6:e6:ee:23:
         1d:b8:36:6c:55:91:a5:1d
-----BEGIN CERTIFICATE-----
MIIGrTCCBJWgAwIBAgICHMQwDQYJKoZIhvcNAQEEBQAwgawxCzAJBgNVBAYTAlVT
MQswCQYDVQQIEwJPSDERMA8GA1UEBxMIQ29sdW1idXMxEjAQBgNVBAoTCVZpa2lu
Z1ZQTjEdMBsGA1UECxMUTXlPcmdhbml6YXRpb25hbFVuaXQxFTATBgNVBAMTDFZp
a2luZ1ZQTiBDQTEQMA4GA1UEKRMHRWFzeVJTQTEhMB8GCSqGSIb3DQEJARYSbWVA
bXlob3N0Lm15ZG9tYWluMB4XDTE2MDMwMTIyNTYxNVoXDTI2MDIyNzIyNTYxNVow
HzEdMBsGA1UEAxMUQ2xpZW50MjIwMENlcnQ0N2QyMzEwggIiMA0GCSqGSIb3DQEB
AQUAA4ICDwAwggIKAoICAQC/ofijSADdN5/mN14USZaVMmAmlUEv4XnddhelBsEv
hoacvCJosSGHYJl/3PxIxrr7VWUJrlHZOkJf/tmozwlV4NldBimwytrcbm/PINs+
uvq725SYbUruHLuafm8bivJULaVyBf420ppCmvVtBfH3o9y2bTlqgnOZ84G6rL5U
io/DprcPx+o41KZNSjlKuf0WXKPD45r9K0FSnFnpad6Hg1p8LgMKS3w5hnBavLo0
kweFuP8oBeV8N6fX5DiFGtfSk2WoasPD/T8T8BNXDzNr6UBYZaB5POovHL4XGdaE
m2Xj/jvqGdaA/qjvUSOi0CWu5y17Lv7jt7CVYdEhV0vVslvzzeu3XqwzUBy/Y7lS
7dLOSCRPsRgVAwOI6LCH27v6Xz55DQJtnYeefi6KYxPByrTKda0ch2xKvgZaaT+q
BPZFLbH1Q9Adur1JzeSs9gLCaVRkAvCorNdIW7OPR1X+Wo5ORItghWBxXDwrK01v
nMYOAke5E++huZQThYkafjVrhXHz/Vd+1WrLjEiKV9Cd6DLlbZ/5F6VyM8zOH1Yl
qwTDhDy0DSwqQ+IKQjLFK8SyO/9BJLG9P+Ht2e1b299t1DZWMONs4HI+dqEcnvjj
0i3LuVQf+wQ3uGi3XMBRZgWCXvY4JtsuxM29T2jokZjuaRDtHxqJh7v/8ilbtQyg
WQIDAQABo4IBYzCCAV8wCQYDVR0TBAIwADAtBglghkgBhvhCAQ0EIBYeRWFzeS1S
U0EgR2VuZXJhdGVkIENlcnRpZmljYXRlMB0GA1UdDgQWBBQwZ3IVj4yrZ8WuFoYU
DQTx5i7oWzCB4QYDVR0jBIHZMIHWgBQSzWAE0qCAnnDtxpm4eyzGUv0ZoaGBsqSB
rzCBrDELMAkGA1UEBhMCVVMxCzAJBgNVBAgTAk9IMREwDwYDVQQHEwhDb2x1bWJ1
czESMBAGA1UEChMJVmlraW5nVlBOMR0wGwYDVQQLExRNeU9yZ2FuaXphdGlvbmFs
VW5pdDEVMBMGA1UEAxMMVmlraW5nVlBOIENBMRAwDgYDVQQpEwdFYXN5UlNBMSEw
HwYJKoZIhvcNAQkBFhJtZUBteWhvc3QubXlkb21haW6CCQDPNYXugL8qPjATBgNV
HSUEDDAKBggrBgEFBQcDAjALBgNVHQ8EBAMCB4AwDQYJKoZIhvcNAQEEBQADggIB
AAv4HPF385s8kkwcoSOTBd1VFgfgbJMbiSeDcXrLJXL7OcLxwxkWg9imrtcwaUds
g897gG4hD+rf1AOucZntc2oowCfcuHyn6LoBZn59dOtiBl2hutd+6ImCNTgvB74I
G0vCQvaaPZVu3tBp6kNqQQC8L5YZUrtpO9hQO2nykNyOX8RThSFXlKDBTGdBBdN+
lRRNPYcCP1dDm2bSClR6kNur4bP0gJTwHShlw6ydbxDIyZpUpYXnayST6VpM4ogK
hHm14mRDdN1+Gee3632Lv5s94STTJkSaIIEsME51Uyipzl6OEBn+5hJq9j+r2gPG
pW5icQE53qiHEj8dXVyE0atKCCjYZ5kzTgTq7r3kw61+jCQNdZ88VHOF1knVjDu5
A3q/rwWpFYG3ZEfg9q9ODNYcdVdE52bSjyQe6f7B8lATrYlUkgATHkiB4CZJcYe8
P+V8HNRcQHsbxthi9M4xOMK5Gayo3UZf1ML5O4lJqNGEUjv07sFh6f2LdhLhdCd6
5x4zHjRisBXqG6bV03qUp3JtYKXzsoruaReNUtsGJB/LutrpGmUQl91X2w8cSt7c
4D/p0L21rVYZc1guLO4TonvVsMYVs+TJah4T+euCvyChL6Q7JlNkA0PSRc7HVp/J
/8Qi559rMccTuMpf9RQuOgjWTeEVpubuIx24NmxVkaUd
-----END CERTIFICATE-----
