Certificate:
    Data:
        Version: 3 (0x2)
        Serial Number: 7369 (0x1cc9)
    Signature Algorithm: md5WithRSAEncryption
        Issuer: C=US, ST=OH, L=Columbus, O=VikingVPN, OU=MyOrganizationalUnit, CN=VikingVPN CA/name=EasyRSA/emailAddress=me@myhost.mydomain
        Validity
            Not Before: Mar  1 23:03:25 2016 GMT
            Not After : Feb 27 23:03:25 2026 GMT
        Subject: CN=Client2200Cert1bf3e1
        Subject Public Key Info:
            Public Key Algorithm: rsaEncryption
                Public-Key: (4096 bit)
                Modulus:
                    00:e1:17:2c:ac:10:a8:31:52:57:d1:77:c6:c0:50:
                    bc:4f:f8:57:37:db:cd:23:0f:d0:d9:e3:8f:b5:f2:
                    2a:b2:b1:91:e1:9f:9c:5e:87:e5:83:c3:c9:d9:5c:
                    a0:fa:b4:7d:b8:26:26:39:4f:ca:ae:a7:e1:72:bc:
                    7f:80:43:0d:9b:f3:b8:26:94:10:fa:56:e3:a5:22:
                    fe:39:1d:74:f2:b6:86:f8:3a:a7:5b:6a:d1:ad:f0:
                    d4:91:7a:a9:4d:e4:a8:39:a5:82:86:a3:c3:d3:3b:
                    02:2c:56:67:7e:25:a2:85:ac:22:e0:b9:83:8c:6e:
                    c7:52:4a:94:ea:68:9f:e8:74:50:c9:ca:5d:d4:e4:
                    80:6c:65:48:a6:20:4b:1d:e4:99:15:c5:c4:ab:57:
                    46:a2:ef:a5:23:9a:37:37:22:37:bb:9c:0d:96:b5:
                    ef:2b:c6:ab:aa:e0:7b:56:17:5e:7f:00:4e:91:59:
                    17:64:e5:4b:14:44:f6:ef:bf:81:42:2e:a1:f3:a0:
                    26:7d:2b:df:2d:04:aa:84:36:15:5b:11:dd:11:96:
                    35:a2:a9:b0:8a:32:f2:52:92:ea:c2:f4:e0:21:73:
                    a1:2c:e0:26:bc:01:a6:03:19:4c:de:64:82:a4:32:
                    72:b7:f6:e0:3d:55:a3:26:5f:ca:1c:51:fd:f0:a3:
                    ab:1f:ef:92:42:09:f0:c1:07:95:5c:06:dc:38:78:
                    66:0f:8a:38:eb:3c:b7:77:a7:ca:a3:41:59:09:36:
                    2c:9f:bf:f3:65:f7:0b:85:39:20:4e:4b:57:31:fb:
                    6a:a2:a7:ef:3a:ae:8e:4c:65:5c:7d:2c:ed:6f:71:
                    37:ff:ac:1f:35:87:d8:1f:cd:d6:a6:33:2b:5e:37:
                    12:ea:23:e9:95:a9:61:5c:df:39:a9:8c:6e:95:2d:
                    c5:59:cc:1f:85:dc:7a:be:f3:dc:3c:78:96:4f:00:
                    09:52:32:eb:fb:31:5b:25:cf:bc:16:5a:c6:8c:ce:
                    37:74:9f:5c:5a:d8:0b:f1:be:e8:26:da:55:17:cd:
                    9b:a5:d9:8f:a7:b7:fd:28:54:b2:12:9a:86:61:7f:
                    d2:94:f1:9d:42:8f:01:20:06:35:fb:ee:f0:8d:be:
                    9b:73:9e:08:a1:69:81:a3:d3:f0:d9:25:18:00:cf:
                    7b:85:88:d9:3e:7e:c3:c6:e3:82:24:b6:5f:ea:76:
                    e9:b2:99:bb:0f:51:9f:22:01:17:8d:d9:2e:67:66:
                    e6:d9:5d:3d:02:34:b2:f2:ff:ef:ca:d1:d5:54:98:
                    55:fc:69:8b:2e:39:bc:46:8f:8f:92:08:0b:de:dc:
                    c8:31:ff:7b:4d:b1:00:04:4a:cf:1c:06:84:a3:31:
                    62:3f:e9
                Exponent: 65537 (0x10001)
        X509v3 extensions:
            X509v3 Basic Constraints: 
                CA:FALSE
            Netscape Comment: 
                Easy-RSA Generated Certificate
            X509v3 Subject Key Identifier: 
                12:3D:E9:A7:63:93:18:E6:2F:AB:67:A1:09:3C:56:5C:10:EA:D3:C1
            X509v3 Authority Key Identifier: 
                keyid:12:CD:60:04:D2:A0:80:9E:70:ED:C6:99:B8:7B:2C:C6:52:FD:19:A1
                DirName:/C=US/ST=OH/L=Columbus/O=VikingVPN/OU=MyOrganizationalUnit/CN=VikingVPN CA/name=EasyRSA/emailAddress=me@myhost.mydomain
                serial:CF:35:85:EE:80:BF:2A:3E

            X509v3 Extended Key Usage: 
                TLS Web Client Authentication
            X509v3 Key Usage: 
                Digital Signature
    Signature Algorithm: md5WithRSAEncryption
         1a:cf:34:77:e7:d3:f6:7a:de:d1:72:c7:a6:9b:d0:3b:ae:fe:
         4a:c5:b8:7f:26:73:bc:c4:d7:ff:ff:ac:4e:8d:a6:d7:d7:a1:
         2c:a7:3a:fc:6f:67:fc:8d:c8:ed:79:10:1e:77:f2:e7:1a:00:
         fc:9f:0b:db:f4:2a:73:17:ba:87:62:6c:e8:84:c8:f9:59:5d:
         08:de:1e:7c:63:bc:a6:9a:99:44:20:0f:39:20:f3:72:8d:b1:
         3a:cc:da:a5:0f:7d:4a:72:35:8d:ac:7e:6b:f7:6a:42:d3:ca:
         86:2e:6a:2c:1a:dd:52:b5:19:fe:7f:79:70:eb:02:21:7f:75:
         83:ae:f0:24:ad:e4:39:0c:fa:2e:ba:c3:41:a3:bb:0c:73:8b:
         e8:4b:34:2b:38:e7:7c:a2:2e:6d:c1:1a:4d:53:c3:41:d4:12:
         20:5e:2b:e6:f4:77:21:ff:7b:e2:90:78:4f:1f:51:36:72:a2:
         a6:8c:b4:f1:c4:05:e0:eb:91:98:97:cd:1d:f5:04:20:66:5e:
         32:fd:2c:e3:8b:95:bc:02:89:3c:ca:77:92:fd:cb:ba:c3:e1:
         8a:85:92:f7:a0:43:c1:a3:d1:29:8b:34:b5:81:f3:48:0c:8a:
         94:48:99:77:d6:52:87:e3:22:cb:9a:8e:26:64:9b:d2:a6:ba:
         0b:fa:e8:17:e6:9f:2e:11:5a:24:d9:e6:41:3d:e6:22:34:9c:
         36:a1:ba:68:8c:61:5c:c6:4f:f4:9e:4b:52:ff:ff:28:c8:4b:
         fc:ef:a4:75:e0:f4:e2:d0:40:6e:5e:7f:0c:5b:61:54:be:da:
         6b:94:ff:e3:fa:48:17:6b:8b:b4:4d:35:d6:7d:c1:2f:54:13:
         1d:7e:c5:5e:da:d6:0c:18:54:b4:b1:75:f8:9e:0b:f7:aa:db:
         ac:e8:36:e8:7f:10:71:99:eb:b3:6c:8d:7c:dc:aa:42:98:e1:
         10:38:7f:87:73:c1:82:76:76:7d:fc:8c:2d:c3:c0:5a:24:18:
         be:fc:66:0a:b0:8d:55:79:9d:34:67:cb:c0:13:4d:17:4d:f4:
         55:af:39:22:f1:ff:de:d7:37:e0:6f:4a:ed:7d:b8:db:a2:89:
         36:8d:6e:43:a3:6b:9c:f0:ee:e9:a1:65:1a:34:08:e1:7c:e7:
         cf:d2:09:d7:79:25:14:dd:8c:75:98:ba:32:93:2e:f6:8f:83:
         b5:01:39:27:63:8d:3e:00:6b:08:6e:31:71:66:24:ff:bf:43:
         40:af:db:64:07:04:ca:ae:8e:fe:48:f3:08:0d:07:75:af:97:
         2c:ed:9d:5b:cd:d1:1a:b2:a3:5f:c6:cf:34:fb:80:c5:c5:ca:
         e4:f0:cd:79:26:21:7f:11
-----BEGIN CERTIFICATE-----
MIIGrTCCBJWgAwIBAgICHMkwDQYJKoZIhvcNAQEEBQAwgawxCzAJBgNVBAYTAlVT
MQswCQYDVQQIEwJPSDERMA8GA1UEBxMIQ29sdW1idXMxEjAQBgNVBAoTCVZpa2lu
Z1ZQTjEdMBsGA1UECxMUTXlPcmdhbml6YXRpb25hbFVuaXQxFTATBgNVBAMTDFZp
a2luZ1ZQTiBDQTEQMA4GA1UEKRMHRWFzeVJTQTEhMB8GCSqGSIb3DQEJARYSbWVA
bXlob3N0Lm15ZG9tYWluMB4XDTE2MDMwMTIzMDMyNVoXDTI2MDIyNzIzMDMyNVow
HzEdMBsGA1UEAxMUQ2xpZW50MjIwMENlcnQxYmYzZTEwggIiMA0GCSqGSIb3DQEB
AQUAA4ICDwAwggIKAoICAQDhFyysEKgxUlfRd8bAULxP+Fc3280jD9DZ44+18iqy
sZHhn5xeh+WDw8nZXKD6tH24JiY5T8qup+FyvH+AQw2b87gmlBD6VuOlIv45HXTy
tob4OqdbatGt8NSReqlN5Kg5pYKGo8PTOwIsVmd+JaKFrCLguYOMbsdSSpTqaJ/o
dFDJyl3U5IBsZUimIEsd5JkVxcSrV0ai76Ujmjc3Ije7nA2Wte8rxquq4HtWF15/
AE6RWRdk5UsURPbvv4FCLqHzoCZ9K98tBKqENhVbEd0RljWiqbCKMvJSkurC9OAh
c6Es4Ca8AaYDGUzeZIKkMnK39uA9VaMmX8ocUf3wo6sf75JCCfDBB5VcBtw4eGYP
ijjrPLd3p8qjQVkJNiyfv/Nl9wuFOSBOS1cx+2qip+86ro5MZVx9LO1vcTf/rB81
h9gfzdamMyteNxLqI+mVqWFc3zmpjG6VLcVZzB+F3Hq+89w8eJZPAAlSMuv7MVsl
z7wWWsaMzjd0n1xa2Avxvugm2lUXzZul2Y+nt/0oVLISmoZhf9KU8Z1CjwEgBjX7
7vCNvptzngihaYGj0/DZJRgAz3uFiNk+fsPG44Iktl/qdumymbsPUZ8iAReN2S5n
ZubZXT0CNLLy/+/K0dVUmFX8aYsuObxGj4+SCAve3Mgx/3tNsQAESs8cBoSjMWI/
6QIDAQABo4IBYzCCAV8wCQYDVR0TBAIwADAtBglghkgBhvhCAQ0EIBYeRWFzeS1S
U0EgR2VuZXJhdGVkIENlcnRpZmljYXRlMB0GA1UdDgQWBBQSPemnY5MY5i+rZ6EJ
PFZcEOrTwTCB4QYDVR0jBIHZMIHWgBQSzWAE0qCAnnDtxpm4eyzGUv0ZoaGBsqSB
rzCBrDELMAkGA1UEBhMCVVMxCzAJBgNVBAgTAk9IMREwDwYDVQQHEwhDb2x1bWJ1
czESMBAGA1UEChMJVmlraW5nVlBOMR0wGwYDVQQLExRNeU9yZ2FuaXphdGlvbmFs
VW5pdDEVMBMGA1UEAxMMVmlraW5nVlBOIENBMRAwDgYDVQQpEwdFYXN5UlNBMSEw
HwYJKoZIhvcNAQkBFhJtZUBteWhvc3QubXlkb21haW6CCQDPNYXugL8qPjATBgNV
HSUEDDAKBggrBgEFBQcDAjALBgNVHQ8EBAMCB4AwDQYJKoZIhvcNAQEEBQADggIB
ABrPNHfn0/Z63tFyx6ab0Duu/krFuH8mc7zE1///rE6NptfXoSynOvxvZ/yNyO15
EB538ucaAPyfC9v0KnMXuodibOiEyPlZXQjeHnxjvKaamUQgDzkg83KNsTrM2qUP
fUpyNY2sfmv3akLTyoYuaiwa3VK1Gf5/eXDrAiF/dYOu8CSt5DkM+i66w0Gjuwxz
i+hLNCs453yiLm3BGk1Tw0HUEiBeK+b0dyH/e+KQeE8fUTZyoqaMtPHEBeDrkZiX
zR31BCBmXjL9LOOLlbwCiTzKd5L9y7rD4YqFkvegQ8Gj0SmLNLWB80gMipRImXfW
UofjIsuajiZkm9Kmugv66Bfmny4RWiTZ5kE95iI0nDahumiMYVzGT/SeS1L//yjI
S/zvpHXg9OLQQG5efwxbYVS+2muU/+P6SBdri7RNNdZ9wS9UEx1+xV7a1gwYVLSx
dfieC/eq26zoNuh/EHGZ67NsjXzcqkKY4RA4f4dzwYJ2dn38jC3DwFokGL78Zgqw
jVV5nTRny8ATTRdN9FWvOSLx/97XN+BvSu19uNuiiTaNbkOja5zw7umhZRo0COF8
58/SCdd5JRTdjHWYujKTLvaPg7UBOSdjjT4AawhuMXFmJP+/Q0Cv22QHBMqujv5I
8wgNB3WvlyztnVvN0Rqyo1/GzzT7gMXFyuTwzXkmIX8R
-----END CERTIFICATE-----
