Certificate:
    Data:
        Version: 3 (0x2)
        Serial Number: 7384 (0x1cd8)
    Signature Algorithm: md5WithRSAEncryption
        Issuer: C=US, ST=OH, L=Columbus, O=VikingVPN, OU=MyOrganizationalUnit, CN=VikingVPN CA/name=EasyRSA/emailAddress=me@myhost.mydomain
        Validity
            Not Before: Mar  2 16:23:10 2016 GMT
            Not After : Feb 28 16:23:10 2026 GMT
        Subject: CN=Client2207Cert7f9285
        Subject Public Key Info:
            Public Key Algorithm: rsaEncryption
                Public-Key: (4096 bit)
                Modulus:
                    00:af:07:10:d1:53:d6:7f:0e:3c:0a:6d:80:22:2d:
                    fc:2d:9e:f0:ed:85:69:8b:d9:ea:e4:e2:59:c0:11:
                    77:d8:8d:cd:a9:2c:76:1a:2c:59:ce:0a:fb:80:e4:
                    5a:c9:2b:2b:1f:04:32:bf:e1:c5:e7:1c:6c:fd:4b:
                    48:41:90:64:17:d3:a2:26:58:be:45:d7:43:98:df:
                    2b:8a:5c:b0:2c:6d:a0:0c:31:26:d6:69:3f:10:70:
                    84:df:3e:97:ca:2b:ca:06:03:e7:4d:e1:b0:85:7f:
                    93:01:e7:8d:5a:61:84:c6:ec:40:8b:bb:86:e0:68:
                    13:d6:42:23:5d:4b:6e:0a:c1:34:b4:85:50:92:de:
                    aa:7d:ae:6a:55:47:29:04:28:08:22:f7:60:bf:8c:
                    51:4d:ab:4b:e6:bb:4c:8b:93:c3:d5:5a:5f:40:d9:
                    db:e8:be:92:7b:3c:9f:0b:e7:e6:6e:ca:73:1e:74:
                    ff:e7:e9:46:5b:e7:ac:95:42:5f:cc:8c:08:75:4f:
                    51:ac:75:5f:64:48:e7:5a:a2:5b:52:ff:7e:58:64:
                    fd:75:00:77:d1:45:94:88:53:0d:15:39:2f:30:77:
                    1e:34:dc:7c:15:54:60:48:b5:9b:5c:ff:fe:cb:8d:
                    56:1b:fe:a5:c7:18:33:e4:d4:48:7f:5b:fb:c2:8a:
                    84:53:d8:cc:60:e0:d2:bc:55:d4:25:a0:0d:8e:a2:
                    f7:02:e3:49:06:1c:99:98:bb:ba:03:b9:c4:d6:25:
                    0b:49:5a:83:68:ef:eb:99:0a:ea:bd:bd:1f:39:c1:
                    18:53:ed:37:b8:fe:ac:70:a8:32:9e:a5:16:67:92:
                    61:d6:a0:c9:9e:7a:89:ab:ea:df:f5:1e:c5:e1:83:
                    ec:8f:a5:fd:27:9d:54:11:90:f7:fb:59:45:80:cc:
                    54:f9:a6:b2:44:3d:b1:53:36:fe:e3:b9:39:fb:2d:
                    a3:d6:5c:38:a5:e0:aa:2c:1b:cc:4c:92:eb:a5:e1:
                    8b:75:e4:67:1c:5d:47:c6:af:32:79:2a:01:95:58:
                    26:d1:df:8e:09:9e:fb:21:6d:8d:51:f4:1a:91:c2:
                    20:c3:27:e1:ec:68:9a:90:2e:94:71:9f:ac:cc:a7:
                    db:91:20:1c:a2:ca:3e:54:84:25:ab:ba:a9:4c:0d:
                    37:cb:1e:ed:9f:52:28:73:f0:62:ca:dc:a9:0d:f9:
                    86:bd:c3:b1:2f:3e:45:17:ef:cf:ce:cc:cb:af:59:
                    72:9f:f1:37:0d:f3:37:3a:98:5f:b7:df:b7:6d:9c:
                    70:35:86:ee:c7:d1:f0:e9:dc:c9:5d:21:a5:25:0f:
                    92:f4:5b:33:8d:50:d1:a6:31:70:02:ec:50:28:39:
                    72:30:d9
                Exponent: 65537 (0x10001)
        X509v3 extensions:
            X509v3 Basic Constraints: 
                CA:FALSE
            Netscape Comment: 
                Easy-RSA Generated Certificate
            X509v3 Subject Key Identifier: 
                C7:1F:EB:12:BA:15:CD:AC:CE:9C:1C:04:D1:29:AE:F1:94:09:91:E3
            X509v3 Authority Key Identifier: 
                keyid:12:CD:60:04:D2:A0:80:9E:70:ED:C6:99:B8:7B:2C:C6:52:FD:19:A1
                DirName:/C=US/ST=OH/L=Columbus/O=VikingVPN/OU=MyOrganizationalUnit/CN=VikingVPN CA/name=EasyRSA/emailAddress=me@myhost.mydomain
                serial:CF:35:85:EE:80:BF:2A:3E

            X509v3 Extended Key Usage: 
                TLS Web Client Authentication
            X509v3 Key Usage: 
                Digital Signature
    Signature Algorithm: md5WithRSAEncryption
         39:d6:22:d7:ea:5f:32:89:c4:57:c1:57:01:a2:fc:51:77:d5:
         7d:a2:e5:b6:07:d0:36:a4:35:90:49:89:f3:7b:6f:46:f8:0e:
         ae:9c:af:69:e0:86:68:bd:99:dd:ce:3c:cd:e6:12:f4:c4:c4:
         ca:22:1a:40:93:ba:98:d1:2f:3c:30:0f:2f:a5:cd:96:a4:e0:
         2a:5b:fe:11:59:e0:62:56:8d:c3:0a:44:7e:70:15:15:08:51:
         45:0f:41:48:b9:25:60:82:66:48:62:1e:4f:4b:3a:a0:86:d5:
         2c:5c:25:0e:0d:51:5d:6e:d2:7f:2a:73:11:f1:a2:8b:f8:28:
         30:f2:78:f3:08:4b:be:9c:d8:7a:d6:71:61:ce:bb:e7:d9:1b:
         d1:5c:c8:ab:f7:df:64:13:98:fe:5b:85:66:f8:4b:5d:56:b0:
         17:d4:f1:e4:49:b7:6b:07:81:96:01:30:7c:e7:fc:f2:63:9e:
         76:81:5e:e9:04:f8:68:38:98:bc:bd:4a:b8:c7:3c:f5:7a:8f:
         db:96:9c:e4:df:31:ed:61:3b:a9:e1:e7:f8:8b:ca:4f:3d:c2:
         48:d8:41:40:ea:cc:7a:a6:55:f7:f1:2b:7d:59:ef:5d:fa:37:
         6a:7f:3c:f5:2f:f6:d4:a6:17:86:39:82:19:6c:ed:28:23:fb:
         7b:2c:16:ff:2b:44:bd:77:ab:f3:93:c1:13:6b:76:05:04:d7:
         ca:97:62:b4:1f:5a:f7:4e:66:23:99:75:24:40:d4:10:6b:1d:
         a3:39:e6:52:ad:6e:ca:30:23:16:75:b6:88:4d:a2:da:bc:d5:
         7c:43:e4:78:68:f3:18:a9:17:34:e8:f0:ad:25:31:24:5b:a7:
         b9:b2:4b:e2:d6:89:4a:db:70:6e:d3:66:68:d1:68:e7:32:c5:
         02:1b:0a:32:68:82:13:ad:d2:c8:be:69:ff:24:9b:c2:d9:3c:
         0d:2f:bc:17:ce:ab:0a:18:41:b8:d9:1b:33:d1:41:7c:ff:52:
         1a:a2:73:cc:97:13:4c:c0:3b:65:4c:24:b1:99:c2:2c:98:40:
         e5:1c:96:ab:90:05:ad:fb:66:2e:01:60:bd:3d:0e:81:bd:b8:
         f2:08:ad:a0:e6:e9:1b:ab:d0:1a:e7:c5:53:00:d1:b5:f8:bb:
         39:38:0f:81:72:bb:e6:0f:b8:b0:b5:1f:f1:85:4a:8d:ba:86:
         12:df:78:65:ec:a1:c7:59:eb:40:cd:ae:b7:12:1a:86:97:9d:
         28:80:33:1b:de:e6:f0:a7:a6:dc:10:29:b0:a0:05:45:20:f7:
         53:1a:4a:af:de:8a:ea:b9:22:b3:29:3b:34:9a:0d:64:0a:21:
         0f:6b:36:cb:dd:a3:b3:57
-----BEGIN CERTIFICATE-----
MIIGrTCCBJWgAwIBAgICHNgwDQYJKoZIhvcNAQEEBQAwgawxCzAJBgNVBAYTAlVT
MQswCQYDVQQIEwJPSDERMA8GA1UEBxMIQ29sdW1idXMxEjAQBgNVBAoTCVZpa2lu
Z1ZQTjEdMBsGA1UECxMUTXlPcmdhbml6YXRpb25hbFVuaXQxFTATBgNVBAMTDFZp
a2luZ1ZQTiBDQTEQMA4GA1UEKRMHRWFzeVJTQTEhMB8GCSqGSIb3DQEJARYSbWVA
bXlob3N0Lm15ZG9tYWluMB4XDTE2MDMwMjE2MjMxMFoXDTI2MDIyODE2MjMxMFow
HzEdMBsGA1UEAxMUQ2xpZW50MjIwN0NlcnQ3ZjkyODUwggIiMA0GCSqGSIb3DQEB
AQUAA4ICDwAwggIKAoICAQCvBxDRU9Z/DjwKbYAiLfwtnvDthWmL2erk4lnAEXfY
jc2pLHYaLFnOCvuA5FrJKysfBDK/4cXnHGz9S0hBkGQX06ImWL5F10OY3yuKXLAs
baAMMSbWaT8QcITfPpfKK8oGA+dN4bCFf5MB541aYYTG7ECLu4bgaBPWQiNdS24K
wTS0hVCS3qp9rmpVRykEKAgi92C/jFFNq0vmu0yLk8PVWl9A2dvovpJ7PJ8L5+Zu
ynMedP/n6UZb56yVQl/MjAh1T1GsdV9kSOdaoltS/35YZP11AHfRRZSIUw0VOS8w
dx403HwVVGBItZtc//7LjVYb/qXHGDPk1Eh/W/vCioRT2Mxg4NK8VdQloA2OovcC
40kGHJmYu7oDucTWJQtJWoNo7+uZCuq9vR85wRhT7Te4/qxwqDKepRZnkmHWoMme
eomr6t/1HsXhg+yPpf0nnVQRkPf7WUWAzFT5prJEPbFTNv7juTn7LaPWXDil4Kos
G8xMkuul4Yt15GccXUfGrzJ5KgGVWCbR344JnvshbY1R9BqRwiDDJ+HsaJqQLpRx
n6zMp9uRIByiyj5UhCWruqlMDTfLHu2fUihz8GLK3KkN+Ya9w7EvPkUX78/OzMuv
WXKf8TcN8zc6mF+337dtnHA1hu7H0fDp3MldIaUlD5L0WzONUNGmMXAC7FAoOXIw
2QIDAQABo4IBYzCCAV8wCQYDVR0TBAIwADAtBglghkgBhvhCAQ0EIBYeRWFzeS1S
U0EgR2VuZXJhdGVkIENlcnRpZmljYXRlMB0GA1UdDgQWBBTHH+sSuhXNrM6cHATR
Ka7xlAmR4zCB4QYDVR0jBIHZMIHWgBQSzWAE0qCAnnDtxpm4eyzGUv0ZoaGBsqSB
rzCBrDELMAkGA1UEBhMCVVMxCzAJBgNVBAgTAk9IMREwDwYDVQQHEwhDb2x1bWJ1
czESMBAGA1UEChMJVmlraW5nVlBOMR0wGwYDVQQLExRNeU9yZ2FuaXphdGlvbmFs
VW5pdDEVMBMGA1UEAxMMVmlraW5nVlBOIENBMRAwDgYDVQQpEwdFYXN5UlNBMSEw
HwYJKoZIhvcNAQkBFhJtZUBteWhvc3QubXlkb21haW6CCQDPNYXugL8qPjATBgNV
HSUEDDAKBggrBgEFBQcDAjALBgNVHQ8EBAMCB4AwDQYJKoZIhvcNAQEEBQADggIB
ADnWItfqXzKJxFfBVwGi/FF31X2i5bYH0DakNZBJifN7b0b4Dq6cr2nghmi9md3O
PM3mEvTExMoiGkCTupjRLzwwDy+lzZak4Cpb/hFZ4GJWjcMKRH5wFRUIUUUPQUi5
JWCCZkhiHk9LOqCG1SxcJQ4NUV1u0n8qcxHxoov4KDDyePMIS76c2HrWcWHOu+fZ
G9FcyKv332QTmP5bhWb4S11WsBfU8eRJt2sHgZYBMHzn/PJjnnaBXukE+Gg4mLy9
SrjHPPV6j9uWnOTfMe1hO6nh5/iLyk89wkjYQUDqzHqmVffxK31Z7136N2p/PPUv
9tSmF4Y5ghls7Sgj+3ssFv8rRL13q/OTwRNrdgUE18qXYrQfWvdOZiOZdSRA1BBr
HaM55lKtbsowIxZ1tohNotq81XxD5Hho8xipFzTo8K0lMSRbp7myS+LWiUrbcG7T
ZmjRaOcyxQIbCjJoghOt0si+af8km8LZPA0vvBfOqwoYQbjZGzPRQXz/Uhqic8yX
E0zAO2VMJLGZwiyYQOUclquQBa37Zi4BYL09DoG9uPIIraDm6Rur0BrnxVMA0bX4
uzk4D4Fyu+YPuLC1H/GFSo26hhLfeGXsocdZ60DNrrcSGoaXnSiAMxve5vCnptwQ
KbCgBUUg91MaSq/eiuq5IrMpOzSaDWQKIQ9rNsvdo7NX
-----END CERTIFICATE-----
