Certificate:
    Data:
        Version: 3 (0x2)
        Serial Number: 7390 (0x1cde)
    Signature Algorithm: md5WithRSAEncryption
        Issuer: C=US, ST=OH, L=Columbus, O=VikingVPN, OU=MyOrganizationalUnit, CN=VikingVPN CA/name=EasyRSA/emailAddress=me@myhost.mydomain
        Validity
            Not Before: Mar  3 03:48:36 2016 GMT
            Not After : Mar  1 03:48:36 2026 GMT
        Subject: CN=Client2209Cert19afed
        Subject Public Key Info:
            Public Key Algorithm: rsaEncryption
                Public-Key: (4096 bit)
                Modulus:
                    00:cd:2d:72:03:85:74:fe:e9:29:18:10:af:e3:55:
                    59:6b:14:49:2d:5f:23:23:0f:03:50:0a:55:ce:46:
                    01:a1:56:ca:a5:59:84:4e:e8:3e:07:47:25:07:29:
                    6f:28:65:34:4d:44:c4:fc:4b:79:1d:bc:6f:3c:39:
                    44:1b:42:88:2e:cd:be:dd:98:c6:01:16:5e:9f:6b:
                    0c:73:c4:28:cc:c2:2b:69:18:dd:42:c5:0b:9c:d8:
                    a6:c4:ac:ae:c0:aa:71:75:68:bd:92:9e:81:0e:dc:
                    dc:c4:31:93:b1:3a:f2:c4:7c:89:03:1b:71:93:2e:
                    bf:79:a2:6c:9b:ff:e5:be:8d:e5:1c:fb:ac:5b:14:
                    08:51:8a:c4:c1:c5:cd:27:7c:e3:da:a0:d0:63:9f:
                    9b:58:fb:5f:81:cf:b8:14:1d:03:08:ec:49:a6:ac:
                    a4:68:65:8d:16:89:3d:db:c2:24:91:3d:ad:4a:2d:
                    88:65:7b:6f:6f:1e:2b:70:85:7d:8b:13:96:33:aa:
                    94:6c:5a:c4:a2:38:3b:54:4c:11:9d:69:8d:7f:9d:
                    59:f8:32:cf:58:98:0f:6f:03:97:6c:77:47:76:d6:
                    c3:99:eb:d1:93:a1:7f:22:53:a0:d8:a1:c7:d1:d0:
                    c1:dc:0a:6e:ea:f3:4a:28:6b:77:5b:24:55:f7:60:
                    26:ef:33:83:6b:44:ca:40:92:c2:26:87:4c:de:55:
                    ab:cf:65:ff:ec:f4:a5:87:02:31:56:64:3c:01:28:
                    7e:37:fd:6b:e1:45:ff:37:5d:4b:5a:2d:62:95:ed:
                    3b:a1:f4:9d:18:c5:3e:4c:f9:9b:ad:ec:2e:c0:91:
                    c8:40:df:07:e1:d5:1b:c7:2d:a9:99:dc:a2:31:84:
                    7f:54:4a:41:b2:d5:f4:0c:24:5d:dc:af:6b:e0:46:
                    f2:3c:df:6e:2a:d0:7a:77:57:ac:a0:35:e6:22:02:
                    9a:79:ad:c7:43:7c:f8:3c:c7:f3:eb:7e:60:c1:da:
                    00:78:a6:5c:3e:fc:0c:b7:d8:0b:31:b4:72:34:97:
                    24:82:6a:31:3d:f2:ed:d5:c0:34:d0:ad:8a:9f:39:
                    80:4b:2e:87:99:d9:2d:3e:b7:78:52:f7:fe:2a:62:
                    95:93:c4:3c:0c:35:d7:bd:39:c7:e7:13:f4:33:9b:
                    74:b5:56:8a:a0:8a:54:6f:da:09:1d:f7:e6:9c:12:
                    49:25:0f:70:ac:26:90:77:dc:38:07:97:7a:86:60:
                    aa:51:0b:de:a6:a3:6f:73:aa:e3:17:b7:68:a1:42:
                    a5:d0:51:9f:23:9f:8f:ea:e6:39:f7:36:c6:6b:d6:
                    5d:94:79:51:a6:f7:1d:8e:d4:70:c5:f3:6f:e4:46:
                    15:5d:f7
                Exponent: 65537 (0x10001)
        X509v3 extensions:
            X509v3 Basic Constraints: 
                CA:FALSE
            Netscape Comment: 
                Easy-RSA Generated Certificate
            X509v3 Subject Key Identifier: 
                4D:84:AE:16:31:DB:A7:EC:F9:15:CA:21:17:2A:EF:3F:DC:FB:1B:44
            X509v3 Authority Key Identifier: 
                keyid:12:CD:60:04:D2:A0:80:9E:70:ED:C6:99:B8:7B:2C:C6:52:FD:19:A1
                DirName:/C=US/ST=OH/L=Columbus/O=VikingVPN/OU=MyOrganizationalUnit/CN=VikingVPN CA/name=EasyRSA/emailAddress=me@myhost.mydomain
                serial:CF:35:85:EE:80:BF:2A:3E

            X509v3 Extended Key Usage: 
                TLS Web Client Authentication
            X509v3 Key Usage: 
                Digital Signature
    Signature Algorithm: md5WithRSAEncryption
         79:42:dd:d1:e4:44:b3:2c:b1:0d:69:41:7b:c5:15:2e:b3:49:
         99:b8:08:db:49:10:d6:f3:a7:cd:c0:72:06:60:5a:06:bf:56:
         85:e2:62:e4:97:90:3d:62:86:c7:91:81:56:01:7c:e8:b5:16:
         3d:ca:9c:10:78:f6:8c:04:e2:6e:4f:0b:34:76:7e:fa:16:ed:
         a7:92:65:82:cc:34:bc:bd:10:17:20:95:d1:55:81:aa:52:fb:
         73:b5:6f:3d:54:9e:a3:b7:c9:e1:58:a8:1b:c3:9f:45:5f:02:
         fb:84:40:a7:e8:22:6b:0b:9d:36:7a:bb:e3:74:61:d6:26:4b:
         2a:5e:55:47:b0:c1:39:0d:a7:93:2e:d4:56:3e:ab:d7:52:5c:
         3b:ca:77:d6:6a:23:e2:0e:8c:eb:99:f5:bd:c1:46:fc:cf:96:
         f0:1c:7d:2e:a8:21:dd:64:46:70:70:f1:34:68:3c:1f:52:bd:
         32:a5:4d:22:37:3b:bd:91:9f:53:da:43:92:a9:87:e0:21:21:
         d7:f2:bd:14:83:c4:42:9f:85:2d:6f:2c:5e:9b:e6:83:69:b7:
         a9:bb:69:46:3b:f0:73:4c:af:a6:cf:34:43:b6:ec:11:c5:87:
         cd:df:51:7a:55:e6:5a:c2:27:28:a6:f2:2e:19:79:1e:01:ad:
         48:15:cc:66:da:cc:bd:f6:f8:04:0c:ab:51:18:85:ba:9a:43:
         24:bc:bf:8a:49:44:71:2b:29:6e:8d:ab:3d:38:9b:a8:4a:f6:
         d0:f8:16:f2:fb:e0:13:43:0f:e7:e0:d3:0b:5e:2f:58:95:5c:
         61:f9:28:8b:24:79:44:85:26:0e:93:1f:63:d8:b0:da:38:8d:
         3c:1e:e3:44:5e:27:28:11:f2:96:c5:cb:41:6b:a6:48:d7:00:
         83:da:79:15:4a:f1:4b:b4:38:e5:dc:69:ce:4d:1e:c9:81:cf:
         81:7b:83:3b:ea:0d:b7:6b:0d:d0:de:9f:2a:20:e4:cb:6d:eb:
         9f:dd:31:1d:6e:e6:1f:67:91:45:ae:97:1f:f6:75:7a:7e:93:
         54:5d:d6:11:88:1a:a7:51:1b:f0:e7:7e:5e:e7:e9:38:1b:a4:
         07:53:e7:a8:10:7c:57:95:a0:ed:16:4c:02:09:ff:b4:bc:1b:
         52:e4:52:f8:c5:38:89:01:e7:58:07:86:43:38:27:26:99:ae:
         e5:9f:71:18:77:7f:06:b3:f1:41:ae:b7:6e:53:8a:f8:ab:df:
         35:4a:7a:e3:5f:7a:b6:ca:24:dd:55:ee:f1:a0:6c:b6:29:cb:
         d6:17:3d:8e:c4:ac:b8:07:30:49:35:d8:57:a5:3d:5e:ce:f2:
         6c:0c:6b:99:38:31:8d:ea
-----BEGIN CERTIFICATE-----
MIIGrTCCBJWgAwIBAgICHN4wDQYJKoZIhvcNAQEEBQAwgawxCzAJBgNVBAYTAlVT
MQswCQYDVQQIEwJPSDERMA8GA1UEBxMIQ29sdW1idXMxEjAQBgNVBAoTCVZpa2lu
Z1ZQTjEdMBsGA1UECxMUTXlPcmdhbml6YXRpb25hbFVuaXQxFTATBgNVBAMTDFZp
a2luZ1ZQTiBDQTEQMA4GA1UEKRMHRWFzeVJTQTEhMB8GCSqGSIb3DQEJARYSbWVA
bXlob3N0Lm15ZG9tYWluMB4XDTE2MDMwMzAzNDgzNloXDTI2MDMwMTAzNDgzNlow
HzEdMBsGA1UEAxMUQ2xpZW50MjIwOUNlcnQxOWFmZWQwggIiMA0GCSqGSIb3DQEB
AQUAA4ICDwAwggIKAoICAQDNLXIDhXT+6SkYEK/jVVlrFEktXyMjDwNQClXORgGh
VsqlWYRO6D4HRyUHKW8oZTRNRMT8S3kdvG88OUQbQoguzb7dmMYBFl6fawxzxCjM
witpGN1CxQuc2KbErK7AqnF1aL2SnoEO3NzEMZOxOvLEfIkDG3GTLr95omyb/+W+
jeUc+6xbFAhRisTBxc0nfOPaoNBjn5tY+1+Bz7gUHQMI7EmmrKRoZY0WiT3bwiSR
Pa1KLYhle29vHitwhX2LE5YzqpRsWsSiODtUTBGdaY1/nVn4Ms9YmA9vA5dsd0d2
1sOZ69GToX8iU6DYocfR0MHcCm7q80ooa3dbJFX3YCbvM4NrRMpAksImh0zeVavP
Zf/s9KWHAjFWZDwBKH43/WvhRf83XUtaLWKV7Tuh9J0YxT5M+Zut7C7AkchA3wfh
1RvHLamZ3KIxhH9USkGy1fQMJF3cr2vgRvI8324q0Hp3V6ygNeYiApp5rcdDfPg8
x/PrfmDB2gB4plw+/Ay32AsxtHI0lySCajE98u3VwDTQrYqfOYBLLoeZ2S0+t3hS
9/4qYpWTxDwMNde9OcfnE/Qzm3S1VoqgilRv2gkd9+acEkklD3CsJpB33DgHl3qG
YKpRC96mo29zquMXt2ihQqXQUZ8jn4/q5jn3NsZr1l2UeVGm9x2O1HDF82/kRhVd
9wIDAQABo4IBYzCCAV8wCQYDVR0TBAIwADAtBglghkgBhvhCAQ0EIBYeRWFzeS1S
U0EgR2VuZXJhdGVkIENlcnRpZmljYXRlMB0GA1UdDgQWBBRNhK4WMdun7PkVyiEX
Ku8/3PsbRDCB4QYDVR0jBIHZMIHWgBQSzWAE0qCAnnDtxpm4eyzGUv0ZoaGBsqSB
rzCBrDELMAkGA1UEBhMCVVMxCzAJBgNVBAgTAk9IMREwDwYDVQQHEwhDb2x1bWJ1
czESMBAGA1UEChMJVmlraW5nVlBOMR0wGwYDVQQLExRNeU9yZ2FuaXphdGlvbmFs
VW5pdDEVMBMGA1UEAxMMVmlraW5nVlBOIENBMRAwDgYDVQQpEwdFYXN5UlNBMSEw
HwYJKoZIhvcNAQkBFhJtZUBteWhvc3QubXlkb21haW6CCQDPNYXugL8qPjATBgNV
HSUEDDAKBggrBgEFBQcDAjALBgNVHQ8EBAMCB4AwDQYJKoZIhvcNAQEEBQADggIB
AHlC3dHkRLMssQ1pQXvFFS6zSZm4CNtJENbzp83AcgZgWga/VoXiYuSXkD1ihseR
gVYBfOi1Fj3KnBB49owE4m5PCzR2fvoW7aeSZYLMNLy9EBcgldFVgapS+3O1bz1U
nqO3yeFYqBvDn0VfAvuEQKfoImsLnTZ6u+N0YdYmSypeVUewwTkNp5Mu1FY+q9dS
XDvKd9ZqI+IOjOuZ9b3BRvzPlvAcfS6oId1kRnBw8TRoPB9SvTKlTSI3O72Rn1Pa
Q5Kph+AhIdfyvRSDxEKfhS1vLF6b5oNpt6m7aUY78HNMr6bPNEO27BHFh83fUXpV
5lrCJyim8i4ZeR4BrUgVzGbazL32+AQMq1EYhbqaQyS8v4pJRHErKW6Nqz04m6hK
9tD4FvL74BNDD+fg0wteL1iVXGH5KIskeUSFJg6TH2PYsNo4jTwe40ReJygR8pbF
y0FrpkjXAIPaeRVK8Uu0OOXcac5NHsmBz4F7gzvqDbdrDdDenyog5Mtt65/dMR1u
5h9nkUWulx/2dXp+k1Rd1hGIGqdRG/Dnfl7n6TgbpAdT56gQfFeVoO0WTAIJ/7S8
G1LkUvjFOIkB51gHhkM4JyaZruWfcRh3fwaz8UGut25Tivir3zVKeuNferbKJN1V
7vGgbLYpy9YXPY7ErLgHMEk12FelPV7O8mwMa5k4MY3q
-----END CERTIFICATE-----
