Certificate:
    Data:
        Version: 3 (0x2)
        Serial Number: 7439 (0x1d0f)
    Signature Algorithm: md5WithRSAEncryption
        Issuer: C=US, ST=OH, L=Columbus, O=VikingVPN, OU=MyOrganizationalUnit, CN=VikingVPN CA/name=EasyRSA/emailAddress=me@myhost.mydomain
        Validity
            Not Before: Mar  7 15:07:05 2016 GMT
            Not After : Mar  5 15:07:05 2026 GMT
        Subject: CN=Client2215Cert5d2a69
        Subject Public Key Info:
            Public Key Algorithm: rsaEncryption
                Public-Key: (4096 bit)
                Modulus:
                    00:e9:34:30:14:68:56:31:5e:18:f0:0a:27:aa:e3:
                    68:52:b4:e4:71:f7:ae:7b:03:b8:a7:99:04:97:46:
                    4e:4d:67:91:ae:9d:b6:bf:70:b7:29:14:c8:dc:c3:
                    0a:c5:02:11:79:6e:f9:1f:cf:0c:c4:b4:b9:de:b2:
                    7e:41:56:eb:81:b2:ce:3e:6e:f4:84:7b:07:58:9e:
                    3b:fd:76:ec:34:38:1c:72:d6:25:16:02:62:82:5f:
                    7f:7e:20:b8:d4:86:fd:d0:52:c1:36:1a:c8:b1:96:
                    61:35:3f:c4:48:f2:53:ac:e0:bf:1d:56:bf:d9:a0:
                    21:31:96:95:1a:cb:32:2c:39:f5:6b:d7:19:8f:52:
                    92:28:a2:19:f4:c1:21:ce:85:b9:e4:40:f2:29:43:
                    f0:82:37:d3:78:af:34:2c:8e:82:80:ad:72:d3:06:
                    27:56:58:9f:b5:d3:76:cf:0c:6c:3e:cc:70:75:6c:
                    73:e7:78:b3:26:c9:44:ba:e1:c4:00:85:82:6e:bc:
                    3d:2f:fb:46:56:34:84:cd:dc:58:bd:66:90:24:9d:
                    ed:8a:9b:4e:de:02:07:3d:9c:7f:54:14:3d:a0:39:
                    bb:e9:21:91:b7:08:02:dc:6c:9b:fa:66:47:8a:38:
                    4f:17:e9:97:a7:73:5e:a9:3d:db:49:32:26:04:49:
                    68:2b:9b:74:3c:e9:20:4b:6b:b0:9e:06:6b:01:f6:
                    2b:ae:d1:29:d9:ba:59:89:a6:42:09:b8:bc:39:7e:
                    2d:24:b0:70:90:d4:08:59:9e:ee:ed:ac:01:ae:84:
                    f3:25:19:6f:af:93:ff:70:59:a2:c0:db:b0:58:da:
                    c1:4b:54:be:e0:df:f4:6c:44:94:d2:1c:a1:b1:13:
                    22:2b:6d:83:c9:e8:29:e0:ba:73:49:b1:84:72:bf:
                    a5:ed:92:6a:56:b7:85:e3:93:70:8d:2f:13:6e:35:
                    6f:10:3c:3c:61:17:cc:b2:9d:35:af:3b:a3:5b:ed:
                    bb:6f:56:f0:c7:16:ab:95:24:6d:b9:77:d3:e2:dc:
                    c2:e1:6d:f4:c7:ef:f9:b2:7e:4a:79:01:30:44:b9:
                    31:7f:fd:1f:24:ea:3e:c7:e7:9d:1c:ac:31:dc:4a:
                    68:fd:2c:cd:c5:dd:79:f1:80:65:2e:0b:7f:77:d7:
                    36:3c:da:e3:ab:1a:8f:22:51:3c:e5:1a:9b:60:75:
                    42:fb:85:75:b6:96:4c:06:5c:9a:b5:bb:5a:18:cc:
                    7e:e2:12:e7:e2:13:a3:ad:c7:9a:03:0d:11:b2:9d:
                    25:27:3a:26:d3:20:28:05:23:19:e5:59:2b:fa:d5:
                    cd:11:1f:1e:36:00:26:bb:3f:09:83:86:ee:14:f3:
                    b7:cf:c1
                Exponent: 65537 (0x10001)
        X509v3 extensions:
            X509v3 Basic Constraints: 
                CA:FALSE
            Netscape Comment: 
                Easy-RSA Generated Certificate
            X509v3 Subject Key Identifier: 
                EE:D6:BB:0E:0D:9A:65:4C:78:DC:13:41:77:9B:33:54:DB:64:25:00
            X509v3 Authority Key Identifier: 
                keyid:12:CD:60:04:D2:A0:80:9E:70:ED:C6:99:B8:7B:2C:C6:52:FD:19:A1
                DirName:/C=US/ST=OH/L=Columbus/O=VikingVPN/OU=MyOrganizationalUnit/CN=VikingVPN CA/name=EasyRSA/emailAddress=me@myhost.mydomain
                serial:CF:35:85:EE:80:BF:2A:3E

            X509v3 Extended Key Usage: 
                TLS Web Client Authentication
            X509v3 Key Usage: 
                Digital Signature
    Signature Algorithm: md5WithRSAEncryption
         13:2f:e4:82:ca:46:8b:33:d1:76:8b:c7:db:55:14:b4:0c:83:
         af:0c:4d:d8:8b:d5:bb:d9:99:81:68:03:ff:30:74:4e:5f:ee:
         5a:08:94:ba:02:ca:ec:a8:f3:6d:23:6d:1d:10:89:e6:75:f9:
         ea:ee:de:9c:bc:17:ea:69:0f:12:ed:71:54:c7:90:fa:45:a1:
         3c:f9:85:97:b4:e0:21:60:4a:0b:7e:d6:77:35:8a:7a:06:ca:
         0d:d1:28:40:8c:7f:6d:5d:d1:b9:10:cc:65:7a:29:55:70:f3:
         3e:0d:1f:e9:38:76:9a:94:ef:24:cd:b3:7a:a6:22:e3:46:6a:
         26:af:58:ce:6f:c4:fc:21:92:2a:4d:07:75:7f:fd:c9:93:c9:
         5e:4c:8a:30:d9:55:aa:75:55:90:ac:c8:02:01:c0:04:a4:af:
         be:c1:c7:14:8e:62:a5:2c:ca:47:a6:6b:e7:9e:ac:1c:14:66:
         e7:1f:d2:ef:73:c1:1b:20:7f:86:41:59:53:70:36:1d:07:5b:
         49:0b:d7:36:b2:64:ef:e1:5c:26:ac:d3:92:10:ec:31:20:09:
         76:ba:98:72:c7:16:1a:97:f3:3e:fd:84:8c:6e:02:e8:09:70:
         53:de:fb:7e:86:b0:48:47:f2:3a:16:cd:56:2d:99:3b:2d:6b:
         16:31:b3:47:fe:15:30:3b:d5:47:66:fc:13:dd:64:99:26:bd:
         ab:63:48:73:43:64:e7:13:34:4e:96:93:6e:5a:78:d2:18:66:
         6f:cf:02:99:91:35:41:bb:00:86:0c:92:df:62:06:db:21:7b:
         2f:cb:bc:ca:f9:b6:12:17:32:3f:43:a2:6f:00:76:04:00:71:
         eb:55:b5:eb:5e:de:6c:15:f3:dc:85:e5:85:21:94:38:e9:69:
         4b:b7:cb:25:b7:9e:51:c2:79:3d:24:01:da:d5:f7:a1:44:76:
         b4:50:58:b9:4e:9a:0b:f0:23:96:6d:ee:9a:60:19:50:50:22:
         7a:21:c1:93:1e:3d:89:99:1e:9e:67:cf:02:1b:36:53:5f:98:
         88:ca:ae:2a:5c:82:5a:8f:77:ff:22:18:a4:8f:62:d3:de:9c:
         63:11:b5:bd:a3:07:e3:10:05:2e:26:69:da:b1:fd:f4:c3:99:
         53:5c:14:95:97:12:db:14:f2:6e:71:83:28:75:d0:f2:d5:1d:
         ae:3e:7b:24:41:71:83:ee:0e:7a:ce:9f:db:3e:84:18:85:17:
         4f:3c:e4:31:b0:f2:b3:f8:fa:e5:d4:32:3d:31:17:30:ea:d8:
         95:79:ac:8f:31:91:b8:3c:09:e0:70:0a:8a:3f:d4:3f:59:08:
         fa:59:99:fa:c4:e0:d1:72
-----BEGIN CERTIFICATE-----
MIIGrTCCBJWgAwIBAgICHQ8wDQYJKoZIhvcNAQEEBQAwgawxCzAJBgNVBAYTAlVT
MQswCQYDVQQIEwJPSDERMA8GA1UEBxMIQ29sdW1idXMxEjAQBgNVBAoTCVZpa2lu
Z1ZQTjEdMBsGA1UECxMUTXlPcmdhbml6YXRpb25hbFVuaXQxFTATBgNVBAMTDFZp
a2luZ1ZQTiBDQTEQMA4GA1UEKRMHRWFzeVJTQTEhMB8GCSqGSIb3DQEJARYSbWVA
bXlob3N0Lm15ZG9tYWluMB4XDTE2MDMwNzE1MDcwNVoXDTI2MDMwNTE1MDcwNVow
HzEdMBsGA1UEAxMUQ2xpZW50MjIxNUNlcnQ1ZDJhNjkwggIiMA0GCSqGSIb3DQEB
AQUAA4ICDwAwggIKAoICAQDpNDAUaFYxXhjwCieq42hStORx9657A7inmQSXRk5N
Z5Gunba/cLcpFMjcwwrFAhF5bvkfzwzEtLnesn5BVuuBss4+bvSEewdYnjv9duw0
OBxy1iUWAmKCX39+ILjUhv3QUsE2GsixlmE1P8RI8lOs4L8dVr/ZoCExlpUayzIs
OfVr1xmPUpIoohn0wSHOhbnkQPIpQ/CCN9N4rzQsjoKArXLTBidWWJ+103bPDGw+
zHB1bHPneLMmyUS64cQAhYJuvD0v+0ZWNITN3Fi9ZpAkne2Km07eAgc9nH9UFD2g
ObvpIZG3CALcbJv6ZkeKOE8X6Zenc16pPdtJMiYESWgrm3Q86SBLa7CeBmsB9iuu
0SnZulmJpkIJuLw5fi0ksHCQ1AhZnu7trAGuhPMlGW+vk/9wWaLA27BY2sFLVL7g
3/RsRJTSHKGxEyIrbYPJ6CngunNJsYRyv6XtkmpWt4Xjk3CNLxNuNW8QPDxhF8yy
nTWvO6Nb7btvVvDHFquVJG25d9Pi3MLhbfTH7/myfkp5ATBEuTF//R8k6j7H550c
rDHcSmj9LM3F3XnxgGUuC3931zY82uOrGo8iUTzlGptgdUL7hXW2lkwGXJq1u1oY
zH7iEufiE6Otx5oDDRGynSUnOibTICgFIxnlWSv61c0RHx42ACa7PwmDhu4U87fP
wQIDAQABo4IBYzCCAV8wCQYDVR0TBAIwADAtBglghkgBhvhCAQ0EIBYeRWFzeS1S
U0EgR2VuZXJhdGVkIENlcnRpZmljYXRlMB0GA1UdDgQWBBTu1rsODZplTHjcE0F3
mzNU22QlADCB4QYDVR0jBIHZMIHWgBQSzWAE0qCAnnDtxpm4eyzGUv0ZoaGBsqSB
rzCBrDELMAkGA1UEBhMCVVMxCzAJBgNVBAgTAk9IMREwDwYDVQQHEwhDb2x1bWJ1
czESMBAGA1UEChMJVmlraW5nVlBOMR0wGwYDVQQLExRNeU9yZ2FuaXphdGlvbmFs
VW5pdDEVMBMGA1UEAxMMVmlraW5nVlBOIENBMRAwDgYDVQQpEwdFYXN5UlNBMSEw
HwYJKoZIhvcNAQkBFhJtZUBteWhvc3QubXlkb21haW6CCQDPNYXugL8qPjATBgNV
HSUEDDAKBggrBgEFBQcDAjALBgNVHQ8EBAMCB4AwDQYJKoZIhvcNAQEEBQADggIB
ABMv5ILKRosz0XaLx9tVFLQMg68MTdiL1bvZmYFoA/8wdE5f7loIlLoCyuyo820j
bR0QieZ1+eru3py8F+ppDxLtcVTHkPpFoTz5hZe04CFgSgt+1nc1inoGyg3RKECM
f21d0bkQzGV6KVVw8z4NH+k4dpqU7yTNs3qmIuNGaiavWM5vxPwhkipNB3V//cmT
yV5MijDZVap1VZCsyAIBwASkr77BxxSOYqUsykema+eerBwUZucf0u9zwRsgf4ZB
WVNwNh0HW0kL1zayZO/hXCas05IQ7DEgCXa6mHLHFhqX8z79hIxuAugJcFPe+36G
sEhH8joWzVYtmTstaxYxs0f+FTA71Udm/BPdZJkmvatjSHNDZOcTNE6Wk25aeNIY
Zm/PApmRNUG7AIYMkt9iBtshey/LvMr5thIXMj9Dom8AdgQAcetVtete3mwV89yF
5YUhlDjpaUu3yyW3nlHCeT0kAdrV96FEdrRQWLlOmgvwI5Zt7ppgGVBQInohwZMe
PYmZHp5nzwIbNlNfmIjKripcglqPd/8iGKSPYtPenGMRtb2jB+MQBS4madqx/fTD
mVNcFJWXEtsU8m5xgyh10PLVHa4+eyRBcYPuDnrOn9s+hBiFF0885DGw8rP4+uXU
Mj0xFzDq2JV5rI8xkbg8CeBwCoo/1D9ZCPpZmfrE4NFy
-----END CERTIFICATE-----
