Certificate:
    Data:
        Version: 3 (0x2)
        Serial Number: 7475 (0x1d33)
    Signature Algorithm: md5WithRSAEncryption
        Issuer: C=US, ST=OH, L=Columbus, O=VikingVPN, OU=MyOrganizationalUnit, CN=VikingVPN CA/name=EasyRSA/emailAddress=me@myhost.mydomain
        Validity
            Not Before: Mar 10 21:26:11 2016 GMT
            Not After : Mar  8 21:26:11 2026 GMT
        Subject: CN=Client2224Certdf2560
        Subject Public Key Info:
            Public Key Algorithm: rsaEncryption
                Public-Key: (4096 bit)
                Modulus:
                    00:c8:8b:e8:7b:6d:15:85:b2:2a:58:70:7b:46:b0:
                    cc:c5:15:6a:4f:97:5c:52:a8:d9:af:b1:0c:47:93:
                    fb:bc:e9:3b:38:f9:d5:98:57:4e:e7:02:da:15:76:
                    00:c0:cb:37:9c:4c:d2:be:2e:bd:b8:ec:68:e0:04:
                    5f:17:ca:01:ce:4e:0f:87:14:a1:c6:5c:79:5c:2e:
                    33:30:12:a8:e1:06:a3:8c:87:f8:a8:dd:30:0d:74:
                    fd:f0:4b:a6:8e:4b:70:9d:52:6f:d5:db:e7:7a:40:
                    43:b3:48:c3:74:37:08:75:30:c9:a7:67:f8:e4:fc:
                    05:b3:68:f0:65:bc:27:7e:8f:63:6d:a9:06:05:1c:
                    ec:ce:c4:75:58:b7:b3:36:44:d3:0a:03:a9:ee:f9:
                    6a:68:a1:93:5f:55:f8:e0:67:c2:4c:f3:a9:43:5b:
                    37:27:c1:5b:98:7a:61:61:09:d0:90:6f:7e:e9:e5:
                    05:e9:70:a4:02:0c:1a:93:05:82:fb:9f:82:97:41:
                    d7:b2:38:97:a1:88:23:bb:c9:64:de:97:a0:0a:14:
                    fc:64:ce:fb:2b:a1:e6:14:3e:69:a2:bd:20:0d:37:
                    c2:d1:66:ed:0a:ad:a8:d6:4b:70:6e:72:7e:19:9a:
                    27:7b:d4:72:ad:b1:ea:30:06:b9:3b:fd:23:ae:61:
                    71:1b:f8:66:12:13:65:3d:c1:85:b9:c8:82:ae:fd:
                    b5:c1:7b:2b:7b:88:61:52:55:1b:ee:e1:60:37:55:
                    1c:1a:44:65:a7:03:1a:ce:26:2a:13:5b:54:d8:45:
                    23:e3:97:74:b0:a2:f7:15:98:31:17:b6:34:8f:0c:
                    31:aa:c3:ad:13:3a:07:7b:09:a4:9a:1d:39:b0:26:
                    6e:1d:3a:5f:55:87:64:5c:e7:ed:9f:af:c2:9f:ef:
                    72:0b:5a:5f:fa:89:a8:e1:6d:3a:4e:89:1c:27:35:
                    a0:cc:3e:8c:e4:61:52:af:ad:10:1d:2c:d8:65:fe:
                    e4:0b:f5:76:13:5d:13:24:bf:e0:e7:d1:a1:f0:f9:
                    41:a7:39:9b:b7:5f:91:1d:3c:4f:9d:c8:65:e6:e3:
                    ae:00:9c:29:37:f2:be:45:44:e7:a9:02:34:b1:68:
                    9c:96:a9:42:15:d0:82:5f:aa:90:ce:77:25:87:67:
                    53:1d:a8:e2:a3:3e:74:24:9f:45:4b:f2:12:0c:60:
                    df:c1:32:b7:ac:19:f0:a5:10:f9:5c:91:79:ec:49:
                    45:f7:50:e8:15:08:04:ba:2c:61:75:ab:2e:43:03:
                    3f:f0:49:1f:b2:92:2d:50:af:5d:4c:c9:bc:8e:d1:
                    45:60:78:ab:eb:04:65:33:b8:36:0e:ff:33:21:d8:
                    a4:b2:41
                Exponent: 65537 (0x10001)
        X509v3 extensions:
            X509v3 Basic Constraints: 
                CA:FALSE
            Netscape Comment: 
                Easy-RSA Generated Certificate
            X509v3 Subject Key Identifier: 
                40:EF:96:49:99:93:00:5F:97:29:C0:F3:D4:DD:66:08:3C:DE:A1:11
            X509v3 Authority Key Identifier: 
                keyid:12:CD:60:04:D2:A0:80:9E:70:ED:C6:99:B8:7B:2C:C6:52:FD:19:A1
                DirName:/C=US/ST=OH/L=Columbus/O=VikingVPN/OU=MyOrganizationalUnit/CN=VikingVPN CA/name=EasyRSA/emailAddress=me@myhost.mydomain
                serial:CF:35:85:EE:80:BF:2A:3E

            X509v3 Extended Key Usage: 
                TLS Web Client Authentication
            X509v3 Key Usage: 
                Digital Signature
    Signature Algorithm: md5WithRSAEncryption
         c3:e1:98:42:11:1c:a2:a7:94:e2:74:7e:d5:24:95:ac:5b:55:
         49:b8:5d:da:59:f3:4e:75:c3:db:1d:32:6a:48:f2:99:b5:5c:
         b0:02:9c:6a:e3:84:b4:ee:41:12:5d:50:12:27:4c:1f:84:6d:
         e0:54:72:1f:05:57:57:94:59:a6:5f:73:1e:2b:7e:2d:8d:98:
         e3:d0:7d:b7:b6:75:25:3b:93:00:99:54:c7:c9:ff:a3:b0:a2:
         13:fc:7a:0b:39:83:ab:5f:b3:3a:89:49:a7:4d:5c:08:76:e2:
         72:87:6f:8f:43:cb:4c:2e:dc:e0:24:f4:54:d8:12:7d:c7:32:
         cc:3c:0f:ed:64:b6:f1:44:a5:df:a3:83:9a:bd:f7:f5:dc:d4:
         b0:36:6e:be:96:11:2e:8a:0a:06:4f:cd:a9:fb:15:d0:22:5a:
         94:ed:41:a6:74:26:cd:68:18:b2:ab:b5:75:2c:bd:cb:48:80:
         67:7e:d3:92:e0:f4:13:f7:e6:c3:06:0c:87:2e:e0:fd:25:7a:
         60:5b:77:1f:89:0d:82:07:18:2a:7e:c8:5a:47:70:e8:73:0b:
         83:d1:1e:68:ab:32:6e:ee:ce:c0:db:0f:6d:a1:0b:27:9b:4d:
         30:56:da:1e:91:fb:77:d6:09:e3:1c:c6:bb:0f:1b:10:e5:82:
         58:2f:f2:93:06:d0:5e:f9:11:ee:90:b3:60:f9:fa:4c:a9:8b:
         bd:ad:d2:c5:61:14:52:39:1a:74:2e:6a:df:b0:dc:ff:34:3f:
         54:7b:1e:05:71:1d:a7:0d:01:1f:47:05:2a:d5:c5:75:c8:e1:
         7a:97:ef:fe:28:fb:06:91:d4:a0:02:95:01:34:c7:0b:86:d1:
         4a:c1:0e:50:a7:b2:82:f4:c6:1e:bd:97:26:fb:64:d2:6d:c3:
         ab:d4:4f:d5:fc:e4:0c:2d:da:c1:67:3b:25:45:4d:cc:a0:04:
         84:0d:3c:3b:d4:bc:3f:50:58:c3:86:3b:14:46:83:cb:20:ae:
         d2:38:b3:28:3c:ec:e5:bf:dd:77:f7:17:f9:d4:61:82:c5:9d:
         58:38:1a:d9:40:b6:f4:11:17:06:4e:a3:7a:ec:68:c6:2f:22:
         b5:63:11:da:e8:e2:d0:d9:71:56:f4:03:f1:80:57:c0:6c:61:
         04:f0:95:7b:e0:23:30:ff:f3:8d:d8:5c:6a:67:46:07:b0:e5:
         c4:28:39:8b:44:72:7c:bc:0a:cf:ea:fd:46:b6:14:ff:7b:41:
         60:e2:78:6b:43:17:0e:e6:c9:70:41:f1:31:0f:d9:58:22:dd:
         90:a1:93:9c:a3:f4:4f:29:9e:31:42:03:d3:d5:38:07:58:b6:
         b4:9d:09:55:41:f6:54:dc
-----BEGIN CERTIFICATE-----
MIIGrTCCBJWgAwIBAgICHTMwDQYJKoZIhvcNAQEEBQAwgawxCzAJBgNVBAYTAlVT
MQswCQYDVQQIEwJPSDERMA8GA1UEBxMIQ29sdW1idXMxEjAQBgNVBAoTCVZpa2lu
Z1ZQTjEdMBsGA1UECxMUTXlPcmdhbml6YXRpb25hbFVuaXQxFTATBgNVBAMTDFZp
a2luZ1ZQTiBDQTEQMA4GA1UEKRMHRWFzeVJTQTEhMB8GCSqGSIb3DQEJARYSbWVA
bXlob3N0Lm15ZG9tYWluMB4XDTE2MDMxMDIxMjYxMVoXDTI2MDMwODIxMjYxMVow
HzEdMBsGA1UEAxMUQ2xpZW50MjIyNENlcnRkZjI1NjAwggIiMA0GCSqGSIb3DQEB
AQUAA4ICDwAwggIKAoICAQDIi+h7bRWFsipYcHtGsMzFFWpPl1xSqNmvsQxHk/u8
6Ts4+dWYV07nAtoVdgDAyzecTNK+Lr247GjgBF8XygHOTg+HFKHGXHlcLjMwEqjh
BqOMh/io3TANdP3wS6aOS3CdUm/V2+d6QEOzSMN0Nwh1MMmnZ/jk/AWzaPBlvCd+
j2NtqQYFHOzOxHVYt7M2RNMKA6nu+WpooZNfVfjgZ8JM86lDWzcnwVuYemFhCdCQ
b37p5QXpcKQCDBqTBYL7n4KXQdeyOJehiCO7yWTel6AKFPxkzvsroeYUPmmivSAN
N8LRZu0KrajWS3Bucn4Zmid71HKtseowBrk7/SOuYXEb+GYSE2U9wYW5yIKu/bXB
eyt7iGFSVRvu4WA3VRwaRGWnAxrOJioTW1TYRSPjl3SwovcVmDEXtjSPDDGqw60T
Ogd7CaSaHTmwJm4dOl9Vh2Rc5+2fr8Kf73ILWl/6iajhbTpOiRwnNaDMPozkYVKv
rRAdLNhl/uQL9XYTXRMkv+Dn0aHw+UGnOZu3X5EdPE+dyGXm464AnCk38r5FROep
AjSxaJyWqUIV0IJfqpDOdyWHZ1MdqOKjPnQkn0VL8hIMYN/BMresGfClEPlckXns
SUX3UOgVCAS6LGF1qy5DAz/wSR+yki1Qr11MybyO0UVgeKvrBGUzuDYO/zMh2KSy
QQIDAQABo4IBYzCCAV8wCQYDVR0TBAIwADAtBglghkgBhvhCAQ0EIBYeRWFzeS1S
U0EgR2VuZXJhdGVkIENlcnRpZmljYXRlMB0GA1UdDgQWBBRA75ZJmZMAX5cpwPPU
3WYIPN6hETCB4QYDVR0jBIHZMIHWgBQSzWAE0qCAnnDtxpm4eyzGUv0ZoaGBsqSB
rzCBrDELMAkGA1UEBhMCVVMxCzAJBgNVBAgTAk9IMREwDwYDVQQHEwhDb2x1bWJ1
czESMBAGA1UEChMJVmlraW5nVlBOMR0wGwYDVQQLExRNeU9yZ2FuaXphdGlvbmFs
VW5pdDEVMBMGA1UEAxMMVmlraW5nVlBOIENBMRAwDgYDVQQpEwdFYXN5UlNBMSEw
HwYJKoZIhvcNAQkBFhJtZUBteWhvc3QubXlkb21haW6CCQDPNYXugL8qPjATBgNV
HSUEDDAKBggrBgEFBQcDAjALBgNVHQ8EBAMCB4AwDQYJKoZIhvcNAQEEBQADggIB
AMPhmEIRHKKnlOJ0ftUklaxbVUm4XdpZ8051w9sdMmpI8pm1XLACnGrjhLTuQRJd
UBInTB+EbeBUch8FV1eUWaZfcx4rfi2NmOPQfbe2dSU7kwCZVMfJ/6OwohP8egs5
g6tfszqJSadNXAh24nKHb49Dy0wu3OAk9FTYEn3HMsw8D+1ktvFEpd+jg5q99/Xc
1LA2br6WES6KCgZPzan7FdAiWpTtQaZ0Js1oGLKrtXUsvctIgGd+05Lg9BP35sMG
DIcu4P0lemBbdx+JDYIHGCp+yFpHcOhzC4PRHmirMm7uzsDbD22hCyebTTBW2h6R
+3fWCeMcxrsPGxDlglgv8pMG0F75Ee6Qs2D5+kypi72t0sVhFFI5GnQuat+w3P80
P1R7HgVxHacNAR9HBSrVxXXI4XqX7/4o+waR1KAClQE0xwuG0UrBDlCnsoL0xh69
lyb7ZNJtw6vUT9X85Awt2sFnOyVFTcygBIQNPDvUvD9QWMOGOxRGg8sgrtI4syg8
7OW/3Xf3F/nUYYLFnVg4GtlAtvQRFwZOo3rsaMYvIrVjEdro4tDZcVb0A/GAV8Bs
YQTwlXvgIzD/843YXGpnRgew5cQoOYtEcny8Cs/q/Ua2FP97QWDieGtDFw7myXBB
8TEP2Vgi3ZChk5yj9E8pnjFCA9PVOAdYtrSdCVVB9lTc
-----END CERTIFICATE-----
