Certificate:
    Data:
        Version: 3 (0x2)
        Serial Number: 7477 (0x1d35)
    Signature Algorithm: md5WithRSAEncryption
        Issuer: C=US, ST=OH, L=Columbus, O=VikingVPN, OU=MyOrganizationalUnit, CN=VikingVPN CA/name=EasyRSA/emailAddress=me@myhost.mydomain
        Validity
            Not Before: Mar 11 04:06:25 2016 GMT
            Not After : Mar  9 04:06:25 2026 GMT
        Subject: CN=Client214Cert99080e
        Subject Public Key Info:
            Public Key Algorithm: rsaEncryption
                Public-Key: (4096 bit)
                Modulus:
                    00:ef:36:67:04:c9:77:df:1b:6c:99:1e:b5:78:dc:
                    2b:27:17:16:4e:71:cf:cc:2a:92:d6:8f:3a:5f:0b:
                    8c:88:35:41:42:47:7a:2d:a2:52:fe:be:85:cf:77:
                    ab:1d:06:da:e1:b8:c5:36:45:6f:1d:d0:8d:04:0e:
                    9b:05:df:8d:45:31:8e:fe:14:9d:47:3b:f8:71:18:
                    20:eb:30:d6:27:da:98:46:53:23:2f:45:dc:ec:72:
                    5a:ff:3b:c3:94:49:a6:db:8c:1a:6a:e4:d2:43:34:
                    45:ab:05:5b:80:a0:3b:09:d4:c5:f7:de:03:4c:51:
                    bf:cb:1d:ed:14:de:6e:78:e0:82:d2:b8:60:83:e1:
                    22:b6:24:03:cb:76:03:3e:1f:85:38:28:97:33:13:
                    1f:22:bc:8c:02:eb:7e:ec:ae:dd:ce:bf:ec:92:fb:
                    58:31:bb:33:de:9c:0a:2c:d1:5a:f1:d4:ad:2d:cc:
                    6e:d4:52:32:fd:4b:64:3a:9f:94:fd:28:e3:29:11:
                    31:e5:65:0b:c7:ed:db:db:29:a6:a0:94:3d:94:81:
                    34:06:a1:81:da:0c:66:54:96:85:bb:1c:8b:48:72:
                    c9:5e:46:4d:74:f3:d8:bf:7a:05:18:78:62:6f:4a:
                    84:23:ae:cf:fe:29:5b:61:fd:83:8b:c4:57:7e:33:
                    aa:3f:f3:6c:f8:31:c4:ee:6b:78:b1:d6:68:3a:a0:
                    eb:38:9f:dc:0e:1a:5d:79:81:9b:e1:b1:fc:4c:b6:
                    76:0a:dc:4f:4f:a6:e0:77:6b:01:ae:1e:d8:8e:b4:
                    df:71:f9:f1:9d:b2:80:e9:92:0a:f9:77:09:27:be:
                    e0:50:42:fe:80:ad:30:c0:96:97:09:0d:75:0d:e1:
                    ac:35:a9:0f:b9:65:52:2c:4f:0d:b0:d8:ce:04:23:
                    87:ec:5a:58:f1:29:83:5f:17:5a:7e:6a:e4:99:6f:
                    b3:40:ab:06:69:6a:9e:2b:74:88:f2:94:3f:92:a4:
                    87:bc:e1:07:c1:41:27:92:66:db:0e:94:cf:5b:3f:
                    cf:12:ae:e1:8d:c0:2b:90:3a:d7:ea:75:6b:a6:a8:
                    82:8d:77:00:cf:e0:ef:d6:5f:9d:92:3e:f8:ae:0d:
                    8f:39:06:73:8c:68:0b:98:b5:0f:da:0b:6c:c1:84:
                    67:4b:ff:12:fc:64:a0:2b:34:cf:9c:ca:7d:7d:2e:
                    fd:7b:3e:f8:f8:82:ff:09:95:cd:31:20:fb:4c:d0:
                    cb:0e:61:8b:fa:a6:0f:46:24:6d:3d:cc:17:ca:44:
                    d1:6c:6b:0e:5f:5d:04:0f:df:97:29:66:c1:20:19:
                    9f:c6:15:17:ad:f3:5d:11:2b:71:5c:81:04:f2:3f:
                    a4:8b:4d
                Exponent: 65537 (0x10001)
        X509v3 extensions:
            X509v3 Basic Constraints: 
                CA:FALSE
            Netscape Comment: 
                Easy-RSA Generated Certificate
            X509v3 Subject Key Identifier: 
                37:E1:E0:DD:08:3E:90:E1:34:6B:4A:42:49:7B:1E:B1:30:61:AF:BB
            X509v3 Authority Key Identifier: 
                keyid:12:CD:60:04:D2:A0:80:9E:70:ED:C6:99:B8:7B:2C:C6:52:FD:19:A1
                DirName:/C=US/ST=OH/L=Columbus/O=VikingVPN/OU=MyOrganizationalUnit/CN=VikingVPN CA/name=EasyRSA/emailAddress=me@myhost.mydomain
                serial:CF:35:85:EE:80:BF:2A:3E

            X509v3 Extended Key Usage: 
                TLS Web Client Authentication
            X509v3 Key Usage: 
                Digital Signature
    Signature Algorithm: md5WithRSAEncryption
         d4:c8:c5:df:59:c9:51:7f:45:42:d5:d7:92:ff:d8:0f:37:fa:
         97:1a:c4:69:3b:16:cd:17:d1:b3:c1:43:75:00:75:c8:bb:25:
         22:01:9b:6a:98:1e:89:60:5b:27:ec:10:bd:2b:b0:02:e4:a6:
         ae:76:76:bf:ed:e8:0d:9a:fb:b4:1c:84:db:ba:60:70:48:c7:
         06:29:84:db:cf:61:53:af:cd:43:8f:b5:d7:78:bd:8b:af:18:
         30:e3:bf:99:a2:dc:26:5e:dc:0c:f6:b2:14:06:3c:35:01:42:
         84:02:24:39:32:fb:3e:a6:5d:1c:80:e4:b6:1c:be:e6:82:95:
         00:0f:1e:9a:fd:5d:25:ae:a2:34:06:1a:83:cb:58:6e:af:e4:
         27:fb:1a:83:56:79:26:4f:d3:45:f0:fa:c7:ff:89:56:67:fd:
         26:98:62:6a:83:72:e8:ee:64:db:a2:d7:fb:97:a0:be:5a:2c:
         4c:c6:58:2f:cf:54:8e:a0:4c:a6:8a:5c:c0:73:5b:24:98:3e:
         08:f6:4a:90:28:15:f5:74:b5:ac:a5:d2:a4:f8:1c:7a:ec:dc:
         d9:27:79:87:23:b3:08:59:29:70:ae:a0:10:5a:f7:5b:86:ea:
         a2:af:b0:f7:ad:af:0a:a9:3d:0c:df:27:97:97:c3:b0:e9:f6:
         91:4f:f0:13:e3:5d:4c:5e:91:7c:c2:a6:ca:ce:30:9b:71:f6:
         66:6f:f8:e9:d2:c9:b8:e4:21:75:80:70:27:1e:f3:eb:1c:18:
         b7:46:1f:84:20:8f:db:99:22:b9:76:c5:41:a4:b8:cb:cc:41:
         6a:f3:e6:8f:06:43:5b:fc:1f:45:8a:db:94:42:5a:ef:bf:81:
         09:ca:1c:bd:04:91:15:e6:fd:a1:fc:e0:c9:8c:29:3e:12:10:
         14:36:fa:46:c8:19:be:74:07:98:84:ae:e9:32:4c:7f:81:eb:
         6b:c2:a2:b9:3d:65:1f:9f:3d:7a:26:ce:77:f0:32:b1:a3:3f:
         d7:8f:2f:68:6e:e0:f4:d4:18:d4:a4:67:f6:45:bc:4e:b4:34:
         58:d4:d6:07:06:0b:b5:3a:b4:cd:60:80:dd:68:28:3d:89:22:
         31:26:85:30:b3:ab:3a:4a:af:9d:57:80:30:82:a0:33:90:bd:
         9d:5b:3c:cb:da:6a:e6:58:4d:c4:eb:27:51:47:36:43:73:5f:
         bd:ef:2d:ed:d9:6d:7d:58:c9:16:ec:33:59:3b:d2:2a:60:4d:
         df:94:df:d5:32:46:2a:8b:99:4a:bf:3d:78:43:eb:27:b5:89:
         28:c8:bb:18:7f:4d:ab:f2:a1:54:af:01:07:00:56:dd:59:dc:
         fd:b8:12:14:e8:5c:91:bd
-----BEGIN CERTIFICATE-----
MIIGrDCCBJSgAwIBAgICHTUwDQYJKoZIhvcNAQEEBQAwgawxCzAJBgNVBAYTAlVT
MQswCQYDVQQIEwJPSDERMA8GA1UEBxMIQ29sdW1idXMxEjAQBgNVBAoTCVZpa2lu
Z1ZQTjEdMBsGA1UECxMUTXlPcmdhbml6YXRpb25hbFVuaXQxFTATBgNVBAMTDFZp
a2luZ1ZQTiBDQTEQMA4GA1UEKRMHRWFzeVJTQTEhMB8GCSqGSIb3DQEJARYSbWVA
bXlob3N0Lm15ZG9tYWluMB4XDTE2MDMxMTA0MDYyNVoXDTI2MDMwOTA0MDYyNVow
HjEcMBoGA1UEAxMTQ2xpZW50MjE0Q2VydDk5MDgwZTCCAiIwDQYJKoZIhvcNAQEB
BQADggIPADCCAgoCggIBAO82ZwTJd98bbJketXjcKycXFk5xz8wqktaPOl8LjIg1
QUJHei2iUv6+hc93qx0G2uG4xTZFbx3QjQQOmwXfjUUxjv4UnUc7+HEYIOsw1ifa
mEZTIy9F3OxyWv87w5RJptuMGmrk0kM0RasFW4CgOwnUxffeA0xRv8sd7RTebnjg
gtK4YIPhIrYkA8t2Az4fhTgolzMTHyK8jALrfuyu3c6/7JL7WDG7M96cCizRWvHU
rS3MbtRSMv1LZDqflP0o4ykRMeVlC8ft29sppqCUPZSBNAahgdoMZlSWhbsci0hy
yV5GTXTz2L96BRh4Ym9KhCOuz/4pW2H9g4vEV34zqj/zbPgxxO5reLHWaDqg6zif
3A4aXXmBm+Gx/Ey2dgrcT0+m4HdrAa4e2I6033H58Z2ygOmSCvl3CSe+4FBC/oCt
MMCWlwkNdQ3hrDWpD7llUixPDbDYzgQjh+xaWPEpg18XWn5q5Jlvs0CrBmlqnit0
iPKUP5Kkh7zhB8FBJ5Jm2w6Uz1s/zxKu4Y3AK5A61+p1a6aogo13AM/g79ZfnZI+
+K4NjzkGc4xoC5i1D9oLbMGEZ0v/EvxkoCs0z5zKfX0u/Xs++PiC/wmVzTEg+0zQ
yw5hi/qmD0YkbT3MF8pE0WxrDl9dBA/flylmwSAZn8YVF63zXRErcVyBBPI/pItN
AgMBAAGjggFjMIIBXzAJBgNVHRMEAjAAMC0GCWCGSAGG+EIBDQQgFh5FYXN5LVJT
QSBHZW5lcmF0ZWQgQ2VydGlmaWNhdGUwHQYDVR0OBBYEFDfh4N0IPpDhNGtKQkl7
HrEwYa+7MIHhBgNVHSMEgdkwgdaAFBLNYATSoICecO3Gmbh7LMZS/RmhoYGypIGv
MIGsMQswCQYDVQQGEwJVUzELMAkGA1UECBMCT0gxETAPBgNVBAcTCENvbHVtYnVz
MRIwEAYDVQQKEwlWaWtpbmdWUE4xHTAbBgNVBAsTFE15T3JnYW5pemF0aW9uYWxV
bml0MRUwEwYDVQQDEwxWaWtpbmdWUE4gQ0ExEDAOBgNVBCkTB0Vhc3lSU0ExITAf
BgkqhkiG9w0BCQEWEm1lQG15aG9zdC5teWRvbWFpboIJAM81he6Avyo+MBMGA1Ud
JQQMMAoGCCsGAQUFBwMCMAsGA1UdDwQEAwIHgDANBgkqhkiG9w0BAQQFAAOCAgEA
1MjF31nJUX9FQtXXkv/YDzf6lxrEaTsWzRfRs8FDdQB1yLslIgGbapgeiWBbJ+wQ
vSuwAuSmrnZ2v+3oDZr7tByE27pgcEjHBimE289hU6/NQ4+113i9i68YMOO/maLc
Jl7cDPayFAY8NQFChAIkOTL7PqZdHIDkthy+5oKVAA8emv1dJa6iNAYag8tYbq/k
J/sag1Z5Jk/TRfD6x/+JVmf9JphiaoNy6O5k26LX+5egvlosTMZYL89UjqBMpopc
wHNbJJg+CPZKkCgV9XS1rKXSpPgceuzc2Sd5hyOzCFkpcK6gEFr3W4bqoq+w962v
Cqk9DN8nl5fDsOn2kU/wE+NdTF6RfMKmys4wm3H2Zm/46dLJuOQhdYBwJx7z6xwY
t0YfhCCP25kiuXbFQaS4y8xBavPmjwZDW/wfRYrblEJa77+BCcocvQSRFeb9ofzg
yYwpPhIQFDb6RsgZvnQHmISu6TJMf4Hra8KiuT1lH589eibOd/AysaM/148vaG7g
9NQY1KRn9kW8TrQ0WNTWBwYLtTq0zWCA3WgoPYkiMSaFMLOrOkqvnVeAMIKgM5C9
nVs8y9pq5lhNxOsnUUc2Q3Nfve8t7dltfVjJFuwzWTvSKmBN35Tf1TJGKouZSr89
eEPrJ7WJKMi7GH9Nq/KhVK8BBwBW3Vnc/bgSFOhckb0=
-----END CERTIFICATE-----
