Certificate:
    Data:
        Version: 3 (0x2)
        Serial Number: 7484 (0x1d3c)
    Signature Algorithm: md5WithRSAEncryption
        Issuer: C=US, ST=OH, L=Columbus, O=VikingVPN, OU=MyOrganizationalUnit, CN=VikingVPN CA/name=EasyRSA/emailAddress=me@myhost.mydomain
        Validity
            Not Before: Mar 12 04:09:49 2016 GMT
            Not After : Mar 10 04:09:49 2026 GMT
        Subject: CN=Client1643Certe712c3
        Subject Public Key Info:
            Public Key Algorithm: rsaEncryption
                Public-Key: (4096 bit)
                Modulus:
                    00:e4:f2:18:84:65:84:d0:bd:86:a4:05:6f:ca:bd:
                    ea:02:34:66:02:61:cb:5b:ec:34:f4:c8:c8:7f:5b:
                    00:07:c8:24:a5:3a:e6:76:89:fa:5f:97:e5:13:a5:
                    d7:10:bf:9c:9f:9c:3e:f8:0e:31:8b:71:5d:d9:0c:
                    c1:fe:34:70:d0:e9:ae:60:2c:a6:b5:24:61:0d:56:
                    5c:b5:8d:0c:c0:78:2f:4b:14:d9:57:55:1c:21:91:
                    14:93:bd:b0:e7:fa:fc:e7:00:67:f7:7b:8f:25:7b:
                    33:27:60:69:75:0f:b3:97:2f:be:55:53:d5:88:c6:
                    6a:9f:3a:56:13:32:7a:fe:84:6a:4a:17:b4:f2:0e:
                    7c:b9:0c:1d:18:73:4c:ef:a9:e7:cb:68:98:61:00:
                    96:b7:40:92:47:1c:d5:ba:82:a5:fe:a6:be:1b:a1:
                    36:52:2c:d1:fe:6b:a6:d1:52:9b:45:d1:05:d0:3e:
                    b4:df:eb:62:8b:61:48:d1:80:a0:8b:a8:96:c2:f2:
                    9d:53:89:c4:c7:af:81:1e:bd:ca:c0:27:73:31:2b:
                    f1:91:e5:e2:fc:11:9b:e6:3c:7f:cc:3c:d2:04:68:
                    94:d1:23:f9:07:71:87:6c:67:0d:02:12:64:26:b6:
                    d2:f1:9e:6b:74:90:67:c0:e0:09:4d:02:5f:e3:5b:
                    a2:39:25:28:8b:b6:0e:5a:77:c3:f6:7e:3b:dc:08:
                    e1:4a:53:4f:07:47:35:d9:66:2c:07:2e:c0:6b:15:
                    c2:ce:04:b7:b0:e6:d1:fb:41:88:97:02:59:5f:d4:
                    f2:b2:e4:e1:3e:d8:64:d5:0c:a4:8d:16:a5:e8:92:
                    9b:26:c4:00:0a:d9:a8:fd:ae:a7:1e:42:f4:d9:7f:
                    51:a2:2b:ef:b7:60:b2:c0:39:62:bb:8a:ce:71:04:
                    09:d0:95:bb:3f:7d:52:7c:27:52:1f:8f:a7:66:76:
                    73:13:f4:a3:ea:b6:b0:5c:24:e7:50:02:dd:2e:5a:
                    df:8b:38:21:73:91:28:79:d6:ca:e5:ac:6d:06:a9:
                    82:30:e3:1d:17:e8:28:c9:46:74:61:6d:fd:2a:89:
                    39:94:36:d2:ad:b0:40:8e:71:ca:8d:1d:48:63:83:
                    fd:72:82:bd:d5:59:e2:c4:6e:17:07:b1:3a:ab:8c:
                    eb:58:ad:44:32:de:8e:57:83:8e:1c:1d:29:cf:06:
                    36:d2:94:df:cd:74:11:21:74:90:af:02:ec:68:c8:
                    c6:07:a1:0e:0d:e8:66:f1:9e:d1:23:7d:19:8c:e7:
                    2d:45:73:e7:47:23:f9:63:2f:46:f2:ae:36:04:3b:
                    78:22:9c:80:14:fc:a8:cb:0c:eb:09:8e:2c:67:a1:
                    33:f9:2f
                Exponent: 65537 (0x10001)
        X509v3 extensions:
            X509v3 Basic Constraints: 
                CA:FALSE
            Netscape Comment: 
                Easy-RSA Generated Certificate
            X509v3 Subject Key Identifier: 
                70:A3:99:04:C5:BC:3E:6E:7F:9D:A6:2B:3F:C6:37:0A:BC:1B:EA:3A
            X509v3 Authority Key Identifier: 
                keyid:12:CD:60:04:D2:A0:80:9E:70:ED:C6:99:B8:7B:2C:C6:52:FD:19:A1
                DirName:/C=US/ST=OH/L=Columbus/O=VikingVPN/OU=MyOrganizationalUnit/CN=VikingVPN CA/name=EasyRSA/emailAddress=me@myhost.mydomain
                serial:CF:35:85:EE:80:BF:2A:3E

            X509v3 Extended Key Usage: 
                TLS Web Client Authentication
            X509v3 Key Usage: 
                Digital Signature
    Signature Algorithm: md5WithRSAEncryption
         c7:1c:1a:ab:db:30:6a:08:ba:80:35:26:46:56:a8:70:e9:11:
         f3:06:b2:72:6b:4a:70:2c:2b:bf:3e:03:eb:d5:59:f8:97:65:
         f5:d1:61:2f:e6:12:4f:25:72:e3:5f:ef:46:56:2d:9f:be:c2:
         a1:c2:f2:df:e7:02:d6:34:28:0d:e6:ea:af:86:d8:f6:48:bb:
         89:a2:e1:93:12:73:d4:4a:c7:d4:67:3b:c9:68:db:7b:c8:1a:
         c9:20:3e:c0:dc:32:7a:e5:3c:be:3b:d0:43:ed:5e:2d:1a:10:
         f4:aa:b8:ff:52:06:3d:5a:2d:09:d2:1b:82:a5:81:24:d9:e7:
         9d:75:b5:86:f4:20:6c:ae:c3:fd:08:c8:16:bd:fe:12:8c:3e:
         3c:0a:74:fc:b0:36:c3:b2:5c:d2:df:d1:f2:2f:ca:49:70:dd:
         81:71:a9:ca:e0:19:f7:7f:24:7f:71:fc:90:9a:cd:fc:d3:1b:
         2b:5d:b8:5c:0c:d8:67:b9:1e:dd:1c:af:80:88:b6:7f:92:87:
         d4:31:b8:98:af:d7:70:64:93:eb:a1:85:a2:1d:cf:b5:51:cf:
         b3:31:e2:24:e1:c9:0e:c2:f9:18:3c:cd:e2:1f:62:ac:03:18:
         50:8c:52:c1:eb:ed:b9:f0:65:9d:b4:87:88:ce:e3:45:8e:d7:
         83:2a:81:08:5a:ea:0d:d1:61:7d:12:45:47:05:9a:6a:f2:57:
         f9:23:b4:a6:93:60:38:d5:2d:6d:01:2b:96:9a:2f:48:d4:7b:
         fe:11:12:03:74:69:6a:c9:dd:63:4c:7a:56:9c:a7:b3:06:a6:
         f1:6c:d3:2b:07:1c:05:9f:8c:f3:1e:0b:3c:6d:ce:ba:53:bb:
         20:89:3e:0c:63:f3:af:40:63:32:49:e0:0f:ca:c7:78:55:08:
         11:80:f1:1e:93:2e:d6:f4:f6:44:72:33:c8:d7:4b:ed:7a:4d:
         fa:22:51:c9:f7:ba:af:80:1a:d6:88:43:76:4e:11:79:b8:ff:
         02:93:65:53:39:60:71:d3:59:d8:a5:1c:6e:cc:7d:cc:d0:3c:
         f0:ae:d7:35:ab:02:0e:10:1c:f9:6c:db:39:75:cd:4c:d2:5b:
         fc:5f:4f:10:60:7c:c6:13:7a:94:90:a2:49:6f:a5:d8:37:b5:
         2f:85:40:50:b2:e8:9c:cb:d9:8d:7a:ca:49:62:8e:8a:7b:5f:
         4b:d7:04:c3:31:c6:5d:c6:9e:2c:09:c9:f5:1c:fc:a6:41:bc:
         e4:38:2e:82:f7:05:83:d4:ca:eb:d8:5c:35:2c:c7:28:3b:9d:
         c7:bf:d2:a8:e6:27:9b:d4:23:63:1f:f2:fb:19:db:96:1d:10:
         1d:ef:ff:48:fe:44:aa:f7
-----BEGIN CERTIFICATE-----
MIIGrTCCBJWgAwIBAgICHTwwDQYJKoZIhvcNAQEEBQAwgawxCzAJBgNVBAYTAlVT
MQswCQYDVQQIEwJPSDERMA8GA1UEBxMIQ29sdW1idXMxEjAQBgNVBAoTCVZpa2lu
Z1ZQTjEdMBsGA1UECxMUTXlPcmdhbml6YXRpb25hbFVuaXQxFTATBgNVBAMTDFZp
a2luZ1ZQTiBDQTEQMA4GA1UEKRMHRWFzeVJTQTEhMB8GCSqGSIb3DQEJARYSbWVA
bXlob3N0Lm15ZG9tYWluMB4XDTE2MDMxMjA0MDk0OVoXDTI2MDMxMDA0MDk0OVow
HzEdMBsGA1UEAxMUQ2xpZW50MTY0M0NlcnRlNzEyYzMwggIiMA0GCSqGSIb3DQEB
AQUAA4ICDwAwggIKAoICAQDk8hiEZYTQvYakBW/KveoCNGYCYctb7DT0yMh/WwAH
yCSlOuZ2ifpfl+UTpdcQv5yfnD74DjGLcV3ZDMH+NHDQ6a5gLKa1JGENVly1jQzA
eC9LFNlXVRwhkRSTvbDn+vznAGf3e48lezMnYGl1D7OXL75VU9WIxmqfOlYTMnr+
hGpKF7TyDny5DB0Yc0zvqefLaJhhAJa3QJJHHNW6gqX+pr4boTZSLNH+a6bRUptF
0QXQPrTf62KLYUjRgKCLqJbC8p1TicTHr4EevcrAJ3MxK/GR5eL8EZvmPH/MPNIE
aJTRI/kHcYdsZw0CEmQmttLxnmt0kGfA4AlNAl/jW6I5JSiLtg5ad8P2fjvcCOFK
U08HRzXZZiwHLsBrFcLOBLew5tH7QYiXAllf1PKy5OE+2GTVDKSNFqXokpsmxAAK
2aj9rqceQvTZf1GiK++3YLLAOWK7is5xBAnQlbs/fVJ8J1Ifj6dmdnMT9KPqtrBc
JOdQAt0uWt+LOCFzkSh51srlrG0GqYIw4x0X6CjJRnRhbf0qiTmUNtKtsECOccqN
HUhjg/1ygr3VWeLEbhcHsTqrjOtYrUQy3o5Xg44cHSnPBjbSlN/NdBEhdJCvAuxo
yMYHoQ4N6GbxntEjfRmM5y1Fc+dHI/ljL0byrjYEO3ginIAU/KjLDOsJjixnoTP5
LwIDAQABo4IBYzCCAV8wCQYDVR0TBAIwADAtBglghkgBhvhCAQ0EIBYeRWFzeS1S
U0EgR2VuZXJhdGVkIENlcnRpZmljYXRlMB0GA1UdDgQWBBRwo5kExbw+bn+dpis/
xjcKvBvqOjCB4QYDVR0jBIHZMIHWgBQSzWAE0qCAnnDtxpm4eyzGUv0ZoaGBsqSB
rzCBrDELMAkGA1UEBhMCVVMxCzAJBgNVBAgTAk9IMREwDwYDVQQHEwhDb2x1bWJ1
czESMBAGA1UEChMJVmlraW5nVlBOMR0wGwYDVQQLExRNeU9yZ2FuaXphdGlvbmFs
VW5pdDEVMBMGA1UEAxMMVmlraW5nVlBOIENBMRAwDgYDVQQpEwdFYXN5UlNBMSEw
HwYJKoZIhvcNAQkBFhJtZUBteWhvc3QubXlkb21haW6CCQDPNYXugL8qPjATBgNV
HSUEDDAKBggrBgEFBQcDAjALBgNVHQ8EBAMCB4AwDQYJKoZIhvcNAQEEBQADggIB
AMccGqvbMGoIuoA1JkZWqHDpEfMGsnJrSnAsK78+A+vVWfiXZfXRYS/mEk8lcuNf
70ZWLZ++wqHC8t/nAtY0KA3m6q+G2PZIu4mi4ZMSc9RKx9RnO8lo23vIGskgPsDc
MnrlPL470EPtXi0aEPSquP9SBj1aLQnSG4KlgSTZ5511tYb0IGyuw/0IyBa9/hKM
PjwKdPywNsOyXNLf0fIvyklw3YFxqcrgGfd/JH9x/JCazfzTGytduFwM2Ge5Ht0c
r4CItn+Sh9QxuJiv13Bkk+uhhaIdz7VRz7Mx4iThyQ7C+Rg8zeIfYqwDGFCMUsHr
7bnwZZ20h4jO40WO14MqgQha6g3RYX0SRUcFmmryV/kjtKaTYDjVLW0BK5aaL0jU
e/4REgN0aWrJ3WNMelacp7MGpvFs0ysHHAWfjPMeCzxtzrpTuyCJPgxj869AYzJJ
4A/Kx3hVCBGA8R6TLtb09kRyM8jXS+16TfoiUcn3uq+AGtaIQ3ZOEXm4/wKTZVM5
YHHTWdilHG7MfczQPPCu1zWrAg4QHPls2zl1zUzSW/xfTxBgfMYTepSQoklvpdg3
tS+FQFCy6JzL2Y16yklijop7X0vXBMMxxl3GniwJyfUc/KZBvOQ4LoL3BYPUyuvY
XDUsxyg7nce/0qjmJ5vUI2Mf8vsZ25YdEB3v/0j+RKr3
-----END CERTIFICATE-----
