Certificate:
    Data:
        Version: 3 (0x2)
        Serial Number: 7489 (0x1d41)
    Signature Algorithm: md5WithRSAEncryption
        Issuer: C=US, ST=OH, L=Columbus, O=VikingVPN, OU=MyOrganizationalUnit, CN=VikingVPN CA/name=EasyRSA/emailAddress=me@myhost.mydomain
        Validity
            Not Before: Mar 13 04:40:02 2016 GMT
            Not After : Mar 11 04:40:02 2026 GMT
        Subject: CN=Client2205Cert4cec3a
        Subject Public Key Info:
            Public Key Algorithm: rsaEncryption
                Public-Key: (4096 bit)
                Modulus:
                    00:c0:45:6b:b6:09:f1:57:ec:f3:a8:5d:a1:05:2e:
                    3c:19:f6:71:bb:61:91:cb:d8:03:b1:20:c9:44:af:
                    c0:cf:f8:b9:90:51:8f:5b:ea:a9:c3:bf:0e:1f:0f:
                    00:26:e4:1d:0a:2d:31:5f:5d:62:5d:f6:4c:86:6a:
                    0d:be:a8:19:c2:96:37:ac:a8:2d:e5:c0:60:a7:2e:
                    75:e3:55:a1:f4:20:4c:7d:b2:f8:f7:0b:75:7a:92:
                    b7:7d:08:ec:0e:9d:25:49:9a:e2:bc:79:28:0e:2c:
                    ef:b4:30:8a:80:46:bb:29:28:a2:19:5f:c8:6d:a9:
                    bf:2e:78:33:b1:e5:fe:b1:bd:18:bf:84:d5:3e:ee:
                    34:26:f0:e6:d6:58:9b:f6:75:eb:80:d1:79:54:7e:
                    9d:83:fb:1b:8f:62:98:37:fa:ae:a0:48:e8:d9:73:
                    6c:53:a6:c8:9f:c7:d5:d6:74:24:b4:0e:3b:0e:ae:
                    4c:c7:98:10:63:64:65:09:d1:9d:16:a8:fa:37:af:
                    52:3b:4d:dd:4b:c2:63:46:b8:db:2b:dd:b7:03:3c:
                    75:0a:cc:3f:09:08:4f:54:48:cb:2b:5d:6a:a0:0d:
                    6d:7e:8e:3e:cb:57:1e:30:d6:a4:f1:15:4f:f4:dd:
                    82:51:74:5b:f5:c7:b5:24:cd:14:a8:0b:75:11:f9:
                    6d:59:29:54:44:fd:e9:37:27:7a:25:11:b9:51:37:
                    a4:f4:09:53:52:18:26:c4:ed:9f:f2:fe:3c:7e:02:
                    cc:f2:bf:cc:49:f6:c3:31:dc:5b:4f:eb:8c:06:84:
                    c9:59:70:4b:21:c2:3d:80:04:b2:16:d8:55:1a:d4:
                    5e:be:dc:f1:7d:71:29:2a:86:8b:db:ec:4b:52:95:
                    b3:65:e4:89:e9:c8:30:ed:71:dd:ec:7f:dc:53:96:
                    58:72:63:6a:55:34:fa:b1:59:01:cd:44:6c:50:5f:
                    08:f8:c4:a0:c7:fe:c2:6a:07:82:98:1c:50:34:d4:
                    cd:2e:73:8e:bc:e8:49:5b:31:2e:2e:0c:ef:d0:2b:
                    a1:83:61:b6:45:9a:fb:fb:47:04:29:d0:e5:07:2d:
                    5a:a5:7c:7b:43:fd:66:13:ee:fc:75:8d:8a:61:cc:
                    77:49:76:8a:30:15:e4:63:2f:f5:f5:96:c0:f5:81:
                    ee:a4:20:cb:1b:de:f2:fb:20:97:cf:41:94:1f:54:
                    9c:2f:a6:f3:4e:af:98:6d:2d:fe:b4:72:6b:94:4a:
                    fc:de:d9:59:50:3e:f7:be:96:92:3a:47:b5:bc:54:
                    4b:9a:3a:fe:df:fe:4c:67:13:9f:6a:28:90:99:55:
                    b9:29:bd:a5:23:fb:bd:71:15:99:2e:ea:5a:3e:23:
                    30:65:9f
                Exponent: 65537 (0x10001)
        X509v3 extensions:
            X509v3 Basic Constraints: 
                CA:FALSE
            Netscape Comment: 
                Easy-RSA Generated Certificate
            X509v3 Subject Key Identifier: 
                06:BB:F0:69:49:78:6D:CE:D8:F2:1A:E3:62:94:4C:B1:51:C0:BD:AF
            X509v3 Authority Key Identifier: 
                keyid:12:CD:60:04:D2:A0:80:9E:70:ED:C6:99:B8:7B:2C:C6:52:FD:19:A1
                DirName:/C=US/ST=OH/L=Columbus/O=VikingVPN/OU=MyOrganizationalUnit/CN=VikingVPN CA/name=EasyRSA/emailAddress=me@myhost.mydomain
                serial:CF:35:85:EE:80:BF:2A:3E

            X509v3 Extended Key Usage: 
                TLS Web Client Authentication
            X509v3 Key Usage: 
                Digital Signature
    Signature Algorithm: md5WithRSAEncryption
         53:c8:87:88:42:6b:79:e0:b3:5b:9b:35:85:00:7d:f8:18:82:
         69:c2:1b:f7:6d:00:5c:b1:3a:31:38:94:57:15:3a:a1:0a:b1:
         9c:d2:33:95:2b:b6:1e:90:ed:37:a0:28:95:9c:2b:42:92:09:
         90:e1:67:ed:f1:2a:5b:7d:58:44:a4:f6:4e:63:95:86:c8:b7:
         f4:85:fd:5e:af:ca:36:c4:28:db:7e:ba:0d:a1:59:6d:ee:75:
         70:ba:42:62:88:01:73:5e:f1:fd:ae:97:da:96:6f:33:88:47:
         64:05:dc:9f:7c:cd:44:ec:9f:4e:17:73:f6:49:fa:2e:bd:9b:
         49:9c:a1:5f:4a:d9:30:29:2b:8f:f6:9e:2f:6e:f7:8f:4e:29:
         ae:45:8c:6b:6c:18:e0:7d:d9:c0:ef:a3:70:72:d5:6a:58:97:
         f4:48:fc:bc:bf:4e:dd:d2:9a:68:a9:01:d4:dd:cf:5c:8c:b8:
         10:5f:31:a9:22:4b:7c:9e:ce:1e:fd:e7:bd:33:77:c6:f6:8c:
         dd:d7:b5:60:fe:dd:fc:00:24:95:66:fd:5b:e2:7c:4e:cf:94:
         44:63:7e:b1:f0:c9:bd:58:c0:7c:cd:43:a7:fa:6b:e7:db:ae:
         0d:13:8f:e4:3b:72:2d:7f:99:15:6f:98:78:f6:f5:1a:26:af:
         48:d0:25:5a:80:52:3a:ec:07:df:0f:99:35:1a:c7:22:e8:a7:
         ec:52:5c:84:64:fd:76:aa:ae:0b:2a:b2:b8:7d:10:5f:73:aa:
         28:be:b2:09:29:18:dc:f3:62:63:68:06:92:4a:ee:be:32:12:
         6a:a0:28:e1:98:ba:ba:c4:cc:21:11:57:a8:0d:ef:75:d6:be:
         c6:4f:cb:f3:14:e6:43:05:d7:d5:14:c6:86:b1:4d:c9:41:52:
         83:59:56:0a:cb:63:9a:cc:38:d3:d0:a2:78:b9:5e:a3:13:d9:
         d0:93:33:5f:f5:9e:3d:3c:8d:b6:81:63:29:1b:8c:ab:49:f3:
         c9:9b:39:cf:3d:01:20:56:bc:51:48:c4:4e:58:35:2c:67:75:
         b6:bf:83:28:c2:09:75:73:3a:81:6a:50:91:71:55:32:2c:0a:
         74:3c:42:2b:96:f4:82:51:70:1d:d7:69:fd:10:09:32:1c:9d:
         3e:da:c8:b5:75:e3:df:52:25:10:e2:dd:aa:ed:df:a4:43:43:
         33:16:0e:63:95:86:76:63:df:27:61:a4:5c:9d:32:1a:6a:32:
         d2:80:4a:6c:8c:e5:25:a2:e7:40:80:68:4d:cc:1d:00:a3:2f:
         7d:6d:2c:d5:5e:e2:a2:9a:fa:20:fd:da:a9:c4:90:c9:98:41:
         70:c7:27:e3:10:dd:6a:d6
-----BEGIN CERTIFICATE-----
MIIGrTCCBJWgAwIBAgICHUEwDQYJKoZIhvcNAQEEBQAwgawxCzAJBgNVBAYTAlVT
MQswCQYDVQQIEwJPSDERMA8GA1UEBxMIQ29sdW1idXMxEjAQBgNVBAoTCVZpa2lu
Z1ZQTjEdMBsGA1UECxMUTXlPcmdhbml6YXRpb25hbFVuaXQxFTATBgNVBAMTDFZp
a2luZ1ZQTiBDQTEQMA4GA1UEKRMHRWFzeVJTQTEhMB8GCSqGSIb3DQEJARYSbWVA
bXlob3N0Lm15ZG9tYWluMB4XDTE2MDMxMzA0NDAwMloXDTI2MDMxMTA0NDAwMlow
HzEdMBsGA1UEAxMUQ2xpZW50MjIwNUNlcnQ0Y2VjM2EwggIiMA0GCSqGSIb3DQEB
AQUAA4ICDwAwggIKAoICAQDARWu2CfFX7POoXaEFLjwZ9nG7YZHL2AOxIMlEr8DP
+LmQUY9b6qnDvw4fDwAm5B0KLTFfXWJd9kyGag2+qBnCljesqC3lwGCnLnXjVaH0
IEx9svj3C3V6krd9COwOnSVJmuK8eSgOLO+0MIqARrspKKIZX8htqb8ueDOx5f6x
vRi/hNU+7jQm8ObWWJv2deuA0XlUfp2D+xuPYpg3+q6gSOjZc2xTpsifx9XWdCS0
DjsOrkzHmBBjZGUJ0Z0WqPo3r1I7Td1LwmNGuNsr3bcDPHUKzD8JCE9USMsrXWqg
DW1+jj7LVx4w1qTxFU/03YJRdFv1x7UkzRSoC3UR+W1ZKVRE/ek3J3olEblRN6T0
CVNSGCbE7Z/y/jx+Aszyv8xJ9sMx3FtP64wGhMlZcEshwj2ABLIW2FUa1F6+3PF9
cSkqhovb7EtSlbNl5InpyDDtcd3sf9xTllhyY2pVNPqxWQHNRGxQXwj4xKDH/sJq
B4KYHFA01M0uc4686ElbMS4uDO/QK6GDYbZFmvv7RwQp0OUHLVqlfHtD/WYT7vx1
jYphzHdJdoowFeRjL/X1lsD1ge6kIMsb3vL7IJfPQZQfVJwvpvNOr5htLf60cmuU
Svze2VlQPve+lpI6R7W8VEuaOv7f/kxnE59qKJCZVbkpvaUj+71xFZku6lo+IzBl
nwIDAQABo4IBYzCCAV8wCQYDVR0TBAIwADAtBglghkgBhvhCAQ0EIBYeRWFzeS1S
U0EgR2VuZXJhdGVkIENlcnRpZmljYXRlMB0GA1UdDgQWBBQGu/BpSXhtztjyGuNi
lEyxUcC9rzCB4QYDVR0jBIHZMIHWgBQSzWAE0qCAnnDtxpm4eyzGUv0ZoaGBsqSB
rzCBrDELMAkGA1UEBhMCVVMxCzAJBgNVBAgTAk9IMREwDwYDVQQHEwhDb2x1bWJ1
czESMBAGA1UEChMJVmlraW5nVlBOMR0wGwYDVQQLExRNeU9yZ2FuaXphdGlvbmFs
VW5pdDEVMBMGA1UEAxMMVmlraW5nVlBOIENBMRAwDgYDVQQpEwdFYXN5UlNBMSEw
HwYJKoZIhvcNAQkBFhJtZUBteWhvc3QubXlkb21haW6CCQDPNYXugL8qPjATBgNV
HSUEDDAKBggrBgEFBQcDAjALBgNVHQ8EBAMCB4AwDQYJKoZIhvcNAQEEBQADggIB
AFPIh4hCa3ngs1ubNYUAffgYgmnCG/dtAFyxOjE4lFcVOqEKsZzSM5Urth6Q7Teg
KJWcK0KSCZDhZ+3xKlt9WESk9k5jlYbIt/SF/V6vyjbEKNt+ug2hWW3udXC6QmKI
AXNe8f2ul9qWbzOIR2QF3J98zUTsn04Xc/ZJ+i69m0mcoV9K2TApK4/2ni9u949O
Ka5FjGtsGOB92cDvo3By1WpYl/RI/Ly/Tt3SmmipAdTdz1yMuBBfMakiS3yezh79
570zd8b2jN3XtWD+3fwAJJVm/VvifE7PlERjfrHwyb1YwHzNQ6f6a+fbrg0Tj+Q7
ci1/mRVvmHj29Romr0jQJVqAUjrsB98PmTUaxyLop+xSXIRk/Xaqrgsqsrh9EF9z
qii+sgkpGNzzYmNoBpJK7r4yEmqgKOGYurrEzCERV6gN73XWvsZPy/MU5kMF19UU
xoaxTclBUoNZVgrLY5rMONPQoni5XqMT2dCTM1/1nj08jbaBYykbjKtJ88mbOc89
ASBWvFFIxE5YNSxndba/gyjCCXVzOoFqUJFxVTIsCnQ8QiuW9IJRcB3Xaf0QCTIc
nT7ayLV1499SJRDi3art36RDQzMWDmOVhnZj3ydhpFydMhpqMtKASmyM5SWi50CA
aE3MHQCjL31tLNVe4qKa+iD92qnEkMmYQXDHJ+MQ3WrW
-----END CERTIFICATE-----
