Certificate:
    Data:
        Version: 3 (0x2)
        Serial Number: 7492 (0x1d44)
    Signature Algorithm: md5WithRSAEncryption
        Issuer: C=US, ST=OH, L=Columbus, O=VikingVPN, OU=MyOrganizationalUnit, CN=VikingVPN CA/name=EasyRSA/emailAddress=me@myhost.mydomain
        Validity
            Not Before: Mar 13 19:32:41 2016 GMT
            Not After : Mar 11 19:32:41 2026 GMT
        Subject: CN=Client1911Cert111e6e
        Subject Public Key Info:
            Public Key Algorithm: rsaEncryption
                Public-Key: (4096 bit)
                Modulus:
                    00:97:40:d5:02:e7:32:56:67:d4:a8:a9:0d:3c:e3:
                    c9:0a:95:74:dd:92:0f:90:93:79:ca:9c:c4:1a:8a:
                    66:fd:8c:96:ba:1f:18:9d:2e:8e:62:d7:8e:9f:ef:
                    8d:37:66:5d:aa:53:b6:9d:38:25:e8:05:82:85:77:
                    a8:2d:48:77:7b:c6:f1:f6:ec:b9:42:90:d4:67:b4:
                    a7:ea:c3:23:17:6f:fc:79:70:54:7b:a0:63:70:10:
                    7b:8d:b2:bf:1f:b1:c9:c3:72:69:45:33:36:b8:d4:
                    39:ec:33:bd:df:c7:48:b6:53:c7:91:8c:af:2b:d7:
                    bd:78:96:21:08:1f:91:70:53:84:37:67:69:cb:3f:
                    1d:db:ff:dc:ea:bf:f7:0a:61:ea:b2:9b:a6:84:b9:
                    68:c8:f1:74:75:da:e4:29:b6:8f:ab:8a:56:ed:be:
                    d4:28:b6:49:1d:66:d8:5d:29:23:74:1e:29:5e:5c:
                    b4:04:c1:68:4f:2d:a2:28:5c:1f:a2:38:69:a6:0d:
                    a9:28:46:a5:74:4d:d7:a0:6f:d0:1b:fd:9b:ff:6d:
                    1e:3b:a3:10:04:f0:91:af:e4:c9:fd:49:4e:fb:02:
                    50:95:89:b7:1d:75:49:5d:6f:86:73:3b:a6:4a:2e:
                    b5:07:3f:e7:d1:c3:ed:4a:8f:81:80:b4:f5:8d:78:
                    23:0c:32:c1:52:57:e6:df:ba:ba:6d:3a:52:b3:3b:
                    40:07:e7:c3:22:66:8e:b3:5d:bb:19:92:0d:ca:2b:
                    37:19:74:4c:33:0c:94:b9:6c:a6:4d:21:46:31:56:
                    9e:69:c8:d8:99:e7:c2:00:22:6a:a3:8c:59:ea:09:
                    b0:70:ec:07:77:10:16:88:84:fa:ec:21:74:d5:0c:
                    f8:02:74:63:45:d1:85:41:d5:f9:39:52:42:13:8d:
                    b0:8e:46:20:f2:77:9d:25:3c:a9:e1:21:0f:92:26:
                    44:92:41:5a:77:9d:81:7c:98:09:76:d0:c1:99:e6:
                    5a:55:4e:27:63:62:ca:95:e3:f4:99:d3:02:03:60:
                    c6:72:95:67:94:cf:57:b1:e2:c4:c3:d0:f3:70:b6:
                    a7:87:5d:3a:b5:45:ff:47:fc:ef:eb:39:6d:1c:5b:
                    5c:de:11:32:56:bf:81:8c:42:da:ca:6b:b2:0e:f3:
                    02:e7:50:31:af:be:01:12:07:36:61:cd:9d:fd:9b:
                    b0:c4:ef:2c:ce:26:81:e7:2c:9e:77:4e:0a:27:9e:
                    1b:48:05:23:db:93:2a:f9:4f:d3:8a:91:42:71:35:
                    c2:8d:99:69:fd:59:7b:38:5a:3b:6e:de:0e:a4:fa:
                    1f:e6:9a:59:e2:01:f2:0b:a3:eb:2e:ef:bb:38:32:
                    5b:64:a3
                Exponent: 65537 (0x10001)
        X509v3 extensions:
            X509v3 Basic Constraints: 
                CA:FALSE
            Netscape Comment: 
                Easy-RSA Generated Certificate
            X509v3 Subject Key Identifier: 
                60:7A:C5:ED:41:92:AF:77:EE:19:9C:02:AC:9F:51:B6:71:EE:EE:70
            X509v3 Authority Key Identifier: 
                keyid:12:CD:60:04:D2:A0:80:9E:70:ED:C6:99:B8:7B:2C:C6:52:FD:19:A1
                DirName:/C=US/ST=OH/L=Columbus/O=VikingVPN/OU=MyOrganizationalUnit/CN=VikingVPN CA/name=EasyRSA/emailAddress=me@myhost.mydomain
                serial:CF:35:85:EE:80:BF:2A:3E

            X509v3 Extended Key Usage: 
                TLS Web Client Authentication
            X509v3 Key Usage: 
                Digital Signature
    Signature Algorithm: md5WithRSAEncryption
         da:66:1d:3d:b2:ae:44:7e:af:c2:a1:0d:2f:c0:e5:4f:a7:b0:
         26:ff:29:9d:d4:8c:ee:02:01:9c:37:cb:a8:45:5e:a9:ab:07:
         5b:b4:f9:1a:30:1b:2a:b4:1f:72:d8:90:47:57:83:85:f3:c8:
         d4:50:ba:50:a4:8d:85:88:26:0a:0b:a5:4e:c1:eb:9a:68:94:
         35:e2:cb:4d:78:f9:2e:ea:cf:72:03:10:8d:ea:dc:31:af:dc:
         6e:c7:8f:c4:2f:46:9c:aa:f4:dd:95:45:d1:61:d8:8b:95:80:
         30:fc:d9:1f:cc:ba:01:59:6f:c6:71:45:8a:4f:76:11:bb:43:
         8e:6c:99:cf:d1:c1:c3:f3:f8:d4:1f:61:80:c2:34:fa:5c:91:
         61:22:27:f4:82:9a:b5:0e:3f:c7:50:3f:f0:ad:93:4d:b4:56:
         7d:2f:d1:1b:ed:a0:f1:32:d6:ac:4e:dd:7a:ba:58:e4:1c:c3:
         ef:c4:be:47:9c:19:ba:e5:14:fd:de:b1:2f:28:69:a8:e4:88:
         17:53:df:88:dd:db:5e:61:09:e7:25:98:cd:43:35:c9:da:05:
         cd:dd:00:40:ad:49:dd:2c:8f:33:82:34:cb:f4:a1:8d:69:37:
         de:e2:77:a1:98:ac:f5:9f:5c:7d:c9:b7:77:f0:77:af:3f:05:
         ba:ff:de:e7:7d:8d:01:68:80:17:8d:83:cd:63:a3:04:3f:df:
         77:e9:6d:d8:3f:1e:33:18:5f:6d:34:91:c4:84:1e:be:f8:dc:
         6e:ae:e0:8c:f7:33:f3:d7:1f:08:35:32:eb:66:ec:11:15:a9:
         2b:d5:34:03:7c:44:fe:69:af:ea:ca:eb:58:2c:91:07:33:ba:
         bc:90:5e:cc:c9:c3:38:1c:75:41:9d:c9:be:9a:d7:17:a6:7d:
         35:0d:e1:c5:47:a1:11:96:03:01:e0:51:c6:2c:df:6a:2c:16:
         b4:23:92:1d:00:1f:73:cf:96:29:4a:38:9c:cd:14:99:1f:48:
         80:91:e9:28:5d:88:a2:d0:cb:6c:1b:11:90:45:94:3a:94:87:
         7b:0b:7d:af:14:2d:45:9d:c4:ca:61:a4:a2:c7:de:1a:a3:b2:
         d9:af:b5:13:66:24:16:ff:e9:2c:5d:b3:63:5c:12:f4:d8:63:
         e1:a6:e4:40:9a:8e:95:49:7c:d5:60:81:5a:2d:4a:af:5f:c1:
         56:20:9c:34:6a:70:0d:4d:06:c7:fa:3e:9c:e6:66:ef:55:78:
         b9:b2:dd:cf:d6:32:fb:6c:22:2a:68:65:6d:45:c2:ee:22:c8:
         9d:ea:fe:4c:eb:6c:c0:15:76:af:e8:a5:1c:76:c6:4c:64:49:
         46:5b:de:47:02:0e:90:1b
-----BEGIN CERTIFICATE-----
MIIGrTCCBJWgAwIBAgICHUQwDQYJKoZIhvcNAQEEBQAwgawxCzAJBgNVBAYTAlVT
MQswCQYDVQQIEwJPSDERMA8GA1UEBxMIQ29sdW1idXMxEjAQBgNVBAoTCVZpa2lu
Z1ZQTjEdMBsGA1UECxMUTXlPcmdhbml6YXRpb25hbFVuaXQxFTATBgNVBAMTDFZp
a2luZ1ZQTiBDQTEQMA4GA1UEKRMHRWFzeVJTQTEhMB8GCSqGSIb3DQEJARYSbWVA
bXlob3N0Lm15ZG9tYWluMB4XDTE2MDMxMzE5MzI0MVoXDTI2MDMxMTE5MzI0MVow
HzEdMBsGA1UEAxMUQ2xpZW50MTkxMUNlcnQxMTFlNmUwggIiMA0GCSqGSIb3DQEB
AQUAA4ICDwAwggIKAoICAQCXQNUC5zJWZ9SoqQ0848kKlXTdkg+Qk3nKnMQaimb9
jJa6HxidLo5i146f7403Zl2qU7adOCXoBYKFd6gtSHd7xvH27LlCkNRntKfqwyMX
b/x5cFR7oGNwEHuNsr8fscnDcmlFMza41DnsM73fx0i2U8eRjK8r1714liEIH5Fw
U4Q3Z2nLPx3b/9zqv/cKYeqym6aEuWjI8XR12uQpto+rilbtvtQotkkdZthdKSN0
HileXLQEwWhPLaIoXB+iOGmmDakoRqV0Tdegb9Ab/Zv/bR47oxAE8JGv5Mn9SU77
AlCVibcddUldb4ZzO6ZKLrUHP+fRw+1Kj4GAtPWNeCMMMsFSV+bfurptOlKzO0AH
58MiZo6zXbsZkg3KKzcZdEwzDJS5bKZNIUYxVp5pyNiZ58IAImqjjFnqCbBw7Ad3
EBaIhPrsIXTVDPgCdGNF0YVB1fk5UkITjbCORiDyd50lPKnhIQ+SJkSSQVp3nYF8
mAl20MGZ5lpVTidjYsqV4/SZ0wIDYMZylWeUz1ex4sTD0PNwtqeHXTq1Rf9H/O/r
OW0cW1zeETJWv4GMQtrKa7IO8wLnUDGvvgESBzZhzZ39m7DE7yzOJoHnLJ53Tgon
nhtIBSPbkyr5T9OKkUJxNcKNmWn9WXs4Wjtu3g6k+h/mmlniAfILo+su77s4Mltk
owIDAQABo4IBYzCCAV8wCQYDVR0TBAIwADAtBglghkgBhvhCAQ0EIBYeRWFzeS1S
U0EgR2VuZXJhdGVkIENlcnRpZmljYXRlMB0GA1UdDgQWBBRgesXtQZKvd+4ZnAKs
n1G2ce7ucDCB4QYDVR0jBIHZMIHWgBQSzWAE0qCAnnDtxpm4eyzGUv0ZoaGBsqSB
rzCBrDELMAkGA1UEBhMCVVMxCzAJBgNVBAgTAk9IMREwDwYDVQQHEwhDb2x1bWJ1
czESMBAGA1UEChMJVmlraW5nVlBOMR0wGwYDVQQLExRNeU9yZ2FuaXphdGlvbmFs
VW5pdDEVMBMGA1UEAxMMVmlraW5nVlBOIENBMRAwDgYDVQQpEwdFYXN5UlNBMSEw
HwYJKoZIhvcNAQkBFhJtZUBteWhvc3QubXlkb21haW6CCQDPNYXugL8qPjATBgNV
HSUEDDAKBggrBgEFBQcDAjALBgNVHQ8EBAMCB4AwDQYJKoZIhvcNAQEEBQADggIB
ANpmHT2yrkR+r8KhDS/A5U+nsCb/KZ3UjO4CAZw3y6hFXqmrB1u0+RowGyq0H3LY
kEdXg4XzyNRQulCkjYWIJgoLpU7B65polDXiy014+S7qz3IDEI3q3DGv3G7Hj8Qv
Rpyq9N2VRdFh2IuVgDD82R/MugFZb8ZxRYpPdhG7Q45smc/RwcPz+NQfYYDCNPpc
kWEiJ/SCmrUOP8dQP/Ctk020Vn0v0RvtoPEy1qxO3Xq6WOQcw+/EvkecGbrlFP3e
sS8oaajkiBdT34jd215hCeclmM1DNcnaBc3dAECtSd0sjzOCNMv0oY1pN97id6GY
rPWfXH3Jt3fwd68/Bbr/3ud9jQFogBeNg81jowQ/33fpbdg/HjMYX200kcSEHr74
3G6u4Iz3M/PXHwg1Mutm7BEVqSvVNAN8RP5pr+rK61gskQczuryQXszJwzgcdUGd
yb6a1xemfTUN4cVHoRGWAwHgUcYs32osFrQjkh0AH3PPlilKOJzNFJkfSICR6Shd
iKLQy2wbEZBFlDqUh3sLfa8ULUWdxMphpKLH3hqjstmvtRNmJBb/6Sxds2NcEvTY
Y+Gm5ECajpVJfNVggVotSq9fwVYgnDRqcA1NBsf6PpzmZu9VeLmy3c/WMvtsIipo
ZW1Fwu4iyJ3q/kzrbMAVdq/opRx2xkxkSUZb3kcCDpAb
-----END CERTIFICATE-----
