Certificate:
    Data:
        Version: 3 (0x2)
        Serial Number: 7493 (0x1d45)
    Signature Algorithm: md5WithRSAEncryption
        Issuer: C=US, ST=OH, L=Columbus, O=VikingVPN, OU=MyOrganizationalUnit, CN=VikingVPN CA/name=EasyRSA/emailAddress=me@myhost.mydomain
        Validity
            Not Before: Mar 13 20:19:57 2016 GMT
            Not After : Mar 11 20:19:57 2026 GMT
        Subject: CN=Client1911Cert68a3a9
        Subject Public Key Info:
            Public Key Algorithm: rsaEncryption
                Public-Key: (4096 bit)
                Modulus:
                    00:bb:d9:71:8b:1a:a0:ec:8a:f6:5d:69:b5:12:78:
                    f4:60:18:bd:50:c8:4d:3f:6f:5b:10:ac:bc:d9:2b:
                    9f:dc:ad:c3:bf:6c:fa:ea:c5:c2:be:60:3d:39:ae:
                    b0:ba:6c:82:f6:8c:b8:4c:be:5e:11:cb:2d:d8:f1:
                    67:80:82:b4:62:07:15:6f:44:9a:63:a9:06:1a:25:
                    68:21:6f:81:b5:3a:eb:e3:40:3a:6e:7a:ea:4b:f8:
                    54:39:46:3a:b9:b8:86:a7:e0:d8:8b:da:0c:21:6a:
                    d4:5d:7d:cf:14:78:a0:ce:fa:37:bb:be:27:05:10:
                    05:a5:cd:f7:95:7c:b3:bd:9d:68:74:ba:b1:e3:47:
                    07:d5:09:40:cb:b4:24:2f:fd:ba:3c:67:e1:d1:4d:
                    95:0e:25:32:42:30:d9:ba:4c:5a:50:0d:e9:a9:2a:
                    72:e7:ed:25:22:d8:95:35:8c:ec:58:a4:03:b9:25:
                    ee:38:20:e9:dc:f9:55:e5:61:f4:12:b9:f5:60:7f:
                    41:f5:e9:26:7a:28:92:dd:63:7b:b6:d7:2c:2c:34:
                    dc:f4:d0:e5:f0:94:12:d0:d0:7d:a6:54:94:49:97:
                    35:1e:0b:26:6c:28:d2:3d:e0:da:94:e6:01:de:65:
                    3a:75:d5:b2:07:92:72:61:ea:83:85:36:bb:17:e9:
                    fe:73:d0:d5:ca:42:58:0f:f4:a8:64:ab:41:c4:fc:
                    cc:b2:23:94:1d:57:01:45:c8:f1:dd:64:e6:fb:72:
                    73:7e:6c:54:fb:33:bf:30:cb:ae:49:d4:e6:1b:6b:
                    07:d6:e9:9d:58:16:62:b1:a5:37:be:79:7c:58:1a:
                    04:66:6c:2b:5c:ca:07:4a:34:ff:0b:70:89:0c:ec:
                    94:3a:f3:5b:32:98:f3:5b:c7:4d:63:87:0c:a3:3b:
                    fd:34:86:0f:0a:59:53:8f:e8:37:ae:87:34:2a:d9:
                    55:f2:b2:8a:2b:e7:9e:57:86:e3:df:36:30:2d:ff:
                    8c:9f:d1:95:ea:62:5b:46:e5:b0:dc:60:0d:1c:16:
                    b2:e6:6f:ef:03:1f:f1:db:63:87:87:cd:34:94:e2:
                    70:58:42:0e:4d:44:13:7c:1f:69:1d:3e:77:6d:ff:
                    2f:cc:44:3f:ef:20:c2:04:a8:f7:85:51:38:65:79:
                    6a:cb:22:a4:ff:ed:58:00:72:0e:2f:d0:eb:10:72:
                    db:be:7d:98:01:2e:70:c8:3b:45:18:76:9c:37:41:
                    63:65:4f:5f:84:88:cc:a2:e3:11:18:15:2c:b8:59:
                    00:0e:5a:78:11:51:7d:b6:16:7c:97:cc:82:2d:e0:
                    38:bd:c4:ec:eb:de:1e:7c:7c:86:ec:83:12:5e:66:
                    68:38:35
                Exponent: 65537 (0x10001)
        X509v3 extensions:
            X509v3 Basic Constraints: 
                CA:FALSE
            Netscape Comment: 
                Easy-RSA Generated Certificate
            X509v3 Subject Key Identifier: 
                A1:2C:96:9F:94:91:56:CE:BE:37:2E:CD:6C:98:ED:22:0A:4D:4D:7E
            X509v3 Authority Key Identifier: 
                keyid:12:CD:60:04:D2:A0:80:9E:70:ED:C6:99:B8:7B:2C:C6:52:FD:19:A1
                DirName:/C=US/ST=OH/L=Columbus/O=VikingVPN/OU=MyOrganizationalUnit/CN=VikingVPN CA/name=EasyRSA/emailAddress=me@myhost.mydomain
                serial:CF:35:85:EE:80:BF:2A:3E

            X509v3 Extended Key Usage: 
                TLS Web Client Authentication
            X509v3 Key Usage: 
                Digital Signature
    Signature Algorithm: md5WithRSAEncryption
         67:e2:14:04:df:25:e4:82:29:22:2a:92:bc:44:59:2a:66:65:
         f1:7d:8a:64:59:1b:06:c7:96:62:a1:1e:4a:e7:03:89:99:b3:
         f0:ed:b7:64:8a:5a:c7:6d:e5:b6:a5:10:2b:ab:f0:05:53:73:
         8e:f4:38:b8:7d:9b:d9:5f:6b:36:ea:ed:6d:83:f9:11:c8:b8:
         9d:e2:28:ab:57:81:f6:5b:56:1c:6d:49:46:3f:26:86:cc:50:
         e4:f4:f0:15:f3:2f:2f:8d:56:5a:78:95:95:59:6d:68:a7:20:
         bf:f1:06:24:bd:e7:9f:74:57:7d:2b:55:8f:ff:c9:07:b1:aa:
         85:87:2d:ae:cf:9d:63:1f:2b:34:e4:dd:f3:04:29:b6:c1:13:
         27:e5:ce:c9:df:59:02:8e:f0:c7:43:6a:30:b2:72:d8:43:73:
         c0:1e:0c:fb:d5:ea:d3:2c:2f:32:da:1f:b4:25:15:16:4f:7e:
         02:c4:a8:f3:a7:b2:82:b6:aa:fe:1e:3f:90:9e:43:2d:7e:17:
         4c:c2:ce:eb:78:43:36:47:d8:9d:0c:5e:88:56:5d:0f:3e:ae:
         ee:0f:af:5e:c9:e8:ad:08:fa:60:eb:68:a3:de:90:d0:2c:a9:
         99:46:94:17:f8:e3:f6:c4:fc:26:a9:e7:70:62:92:2d:63:fe:
         dc:0f:e8:47:11:c9:13:4a:46:21:9f:9e:f5:92:d1:e5:c7:fb:
         f7:f3:28:49:91:42:8d:d4:ec:53:0a:d0:88:d6:91:f4:7f:fe:
         11:3d:c5:2a:a2:29:63:1f:d9:43:2c:a9:05:47:68:6b:43:00:
         fe:4c:31:b4:90:a1:93:46:00:b0:fd:5e:f5:14:46:5a:21:b4:
         46:ec:aa:c9:b7:2b:b6:50:16:b0:ee:6b:85:ac:f9:eb:48:6d:
         9e:ca:cd:5d:a7:72:f5:f4:aa:b6:41:3d:95:2f:ac:5a:00:a2:
         1c:49:95:b2:73:37:61:0e:e1:ee:25:60:62:ef:89:9d:a0:0d:
         f1:e6:36:fe:e5:17:78:e9:fa:f6:00:65:ef:25:2c:96:6c:5c:
         02:43:4b:38:fe:4f:40:a0:dc:5e:c3:20:cc:a9:70:87:9c:2c:
         8e:29:c7:87:50:07:b7:a4:e5:5c:0b:3c:10:3a:99:d6:fc:16:
         64:5c:3e:39:fb:e9:92:9b:69:0a:47:58:da:a7:c4:73:7c:35:
         c0:2c:85:7b:df:4a:b6:3c:47:de:69:68:da:e2:b9:a0:e8:2a:
         f7:3d:c8:b8:e6:5c:96:92:0b:7f:d7:bc:1d:f4:c4:38:20:85:
         4b:67:43:a1:87:cc:d9:37:99:47:35:01:90:e5:01:48:44:35:
         bc:be:0e:f5:ea:69:98:60
-----BEGIN CERTIFICATE-----
MIIGrTCCBJWgAwIBAgICHUUwDQYJKoZIhvcNAQEEBQAwgawxCzAJBgNVBAYTAlVT
MQswCQYDVQQIEwJPSDERMA8GA1UEBxMIQ29sdW1idXMxEjAQBgNVBAoTCVZpa2lu
Z1ZQTjEdMBsGA1UECxMUTXlPcmdhbml6YXRpb25hbFVuaXQxFTATBgNVBAMTDFZp
a2luZ1ZQTiBDQTEQMA4GA1UEKRMHRWFzeVJTQTEhMB8GCSqGSIb3DQEJARYSbWVA
bXlob3N0Lm15ZG9tYWluMB4XDTE2MDMxMzIwMTk1N1oXDTI2MDMxMTIwMTk1N1ow
HzEdMBsGA1UEAxMUQ2xpZW50MTkxMUNlcnQ2OGEzYTkwggIiMA0GCSqGSIb3DQEB
AQUAA4ICDwAwggIKAoICAQC72XGLGqDsivZdabUSePRgGL1QyE0/b1sQrLzZK5/c
rcO/bPrqxcK+YD05rrC6bIL2jLhMvl4Ryy3Y8WeAgrRiBxVvRJpjqQYaJWghb4G1
OuvjQDpueupL+FQ5Rjq5uIan4NiL2gwhatRdfc8UeKDO+je7vicFEAWlzfeVfLO9
nWh0urHjRwfVCUDLtCQv/bo8Z+HRTZUOJTJCMNm6TFpQDempKnLn7SUi2JU1jOxY
pAO5Je44IOnc+VXlYfQSufVgf0H16SZ6KJLdY3u21ywsNNz00OXwlBLQ0H2mVJRJ
lzUeCyZsKNI94NqU5gHeZTp11bIHknJh6oOFNrsX6f5z0NXKQlgP9Khkq0HE/Myy
I5QdVwFFyPHdZOb7cnN+bFT7M78wy65J1OYbawfW6Z1YFmKxpTe+eXxYGgRmbCtc
ygdKNP8LcIkM7JQ681symPNbx01jhwyjO/00hg8KWVOP6DeuhzQq2VXysoor555X
huPfNjAt/4yf0ZXqYltG5bDcYA0cFrLmb+8DH/HbY4eHzTSU4nBYQg5NRBN8H2kd
Pndt/y/MRD/vIMIEqPeFUThleWrLIqT/7VgAcg4v0OsQctu+fZgBLnDIO0UYdpw3
QWNlT1+EiMyi4xEYFSy4WQAOWngRUX22FnyXzIIt4Di9xOzr3h58fIbsgxJeZmg4
NQIDAQABo4IBYzCCAV8wCQYDVR0TBAIwADAtBglghkgBhvhCAQ0EIBYeRWFzeS1S
U0EgR2VuZXJhdGVkIENlcnRpZmljYXRlMB0GA1UdDgQWBBShLJaflJFWzr43Ls1s
mO0iCk1NfjCB4QYDVR0jBIHZMIHWgBQSzWAE0qCAnnDtxpm4eyzGUv0ZoaGBsqSB
rzCBrDELMAkGA1UEBhMCVVMxCzAJBgNVBAgTAk9IMREwDwYDVQQHEwhDb2x1bWJ1
czESMBAGA1UEChMJVmlraW5nVlBOMR0wGwYDVQQLExRNeU9yZ2FuaXphdGlvbmFs
VW5pdDEVMBMGA1UEAxMMVmlraW5nVlBOIENBMRAwDgYDVQQpEwdFYXN5UlNBMSEw
HwYJKoZIhvcNAQkBFhJtZUBteWhvc3QubXlkb21haW6CCQDPNYXugL8qPjATBgNV
HSUEDDAKBggrBgEFBQcDAjALBgNVHQ8EBAMCB4AwDQYJKoZIhvcNAQEEBQADggIB
AGfiFATfJeSCKSIqkrxEWSpmZfF9imRZGwbHlmKhHkrnA4mZs/Dtt2SKWsdt5bal
ECur8AVTc470OLh9m9lfazbq7W2D+RHIuJ3iKKtXgfZbVhxtSUY/JobMUOT08BXz
Ly+NVlp4lZVZbWinIL/xBiS95590V30rVY//yQexqoWHLa7PnWMfKzTk3fMEKbbB
EyflzsnfWQKO8MdDajCycthDc8AeDPvV6tMsLzLaH7QlFRZPfgLEqPOnsoK2qv4e
P5CeQy1+F0zCzut4QzZH2J0MXohWXQ8+ru4Pr17J6K0I+mDraKPekNAsqZlGlBf4
4/bE/Cap53Biki1j/twP6EcRyRNKRiGfnvWS0eXH+/fzKEmRQo3U7FMK0IjWkfR/
/hE9xSqiKWMf2UMsqQVHaGtDAP5MMbSQoZNGALD9XvUURlohtEbsqsm3K7ZQFrDu
a4Ws+etIbZ7KzV2ncvX0qrZBPZUvrFoAohxJlbJzN2EO4e4lYGLviZ2gDfHmNv7l
F3jp+vYAZe8lLJZsXAJDSzj+T0Cg3F7DIMypcIecLI4px4dQB7ek5VwLPBA6mdb8
FmRcPjn76ZKbaQpHWNqnxHN8NcAshXvfSrY8R95paNriuaDoKvc9yLjmXJaSC3/X
vB30xDgghUtnQ6GHzNk3mUc1AZDlAUhENby+DvXqaZhg
-----END CERTIFICATE-----
