Certificate:
    Data:
        Version: 3 (0x2)
        Serial Number: 7495 (0x1d47)
    Signature Algorithm: md5WithRSAEncryption
        Issuer: C=US, ST=OH, L=Columbus, O=VikingVPN, OU=MyOrganizationalUnit, CN=VikingVPN CA/name=EasyRSA/emailAddress=me@myhost.mydomain
        Validity
            Not Before: Mar 13 20:28:34 2016 GMT
            Not After : Mar 11 20:28:34 2026 GMT
        Subject: CN=Client1911Certb2228c
        Subject Public Key Info:
            Public Key Algorithm: rsaEncryption
                Public-Key: (4096 bit)
                Modulus:
                    00:b5:ab:f7:36:47:2c:27:15:85:c8:0e:d7:94:b4:
                    60:79:66:86:6d:8f:a7:10:73:56:98:0c:f1:05:83:
                    95:9d:48:27:a9:a9:7b:13:c5:47:48:7d:af:61:14:
                    a2:33:16:f8:09:fb:77:29:7d:fa:9b:7f:98:94:92:
                    b8:b0:8a:a2:00:59:8d:9c:fa:15:0d:45:78:f6:ce:
                    b5:a1:60:0a:68:9d:91:bf:d3:16:58:35:54:32:9f:
                    df:fb:49:c8:61:63:4b:af:d9:03:2a:91:f7:f9:44:
                    bc:34:35:ef:7c:fc:a2:02:5a:3d:b5:d5:a3:39:61:
                    a4:72:e9:b8:02:49:ec:d4:8b:c0:e7:2d:d8:29:f4:
                    b8:ca:f1:d7:93:e4:37:69:3f:97:d0:d6:39:e8:03:
                    a8:fe:bb:ce:37:f8:d0:58:b0:73:54:b5:df:fb:af:
                    f5:1a:35:dd:86:74:87:65:54:ab:86:bd:a1:27:cb:
                    7f:1a:69:e3:dc:7b:d6:90:c4:b5:45:fa:85:c5:b4:
                    9a:f8:77:6f:b2:7f:17:0c:5e:43:c2:e5:28:84:a7:
                    71:b3:c7:cb:c4:d8:f4:82:fd:21:7a:41:d4:07:bd:
                    46:4d:fa:63:f7:41:f0:08:3f:9e:3a:da:a4:82:ad:
                    d8:e7:c0:06:ae:4c:fb:91:84:e8:a8:f5:1a:56:da:
                    99:f7:82:41:bc:6b:5d:39:2d:31:4f:64:56:38:b8:
                    06:f3:16:3e:d1:f3:5d:93:8a:17:cb:a3:2e:0a:53:
                    48:a1:20:88:fe:f5:d3:57:47:9a:b7:98:cb:76:17:
                    51:f5:7c:03:ac:ac:61:e8:81:3c:d6:e6:8e:cf:05:
                    3e:bd:29:2e:9d:82:44:47:29:0a:e2:b3:12:8b:fd:
                    73:5f:28:16:91:a1:bf:13:10:4a:84:3a:8a:54:a0:
                    49:ed:a3:4e:9e:86:23:57:bd:0e:86:32:d6:b4:e7:
                    45:6e:08:c5:7d:45:73:3d:db:48:db:aa:26:5c:e0:
                    bd:ac:b7:c6:f1:8d:b8:98:21:23:57:cc:1e:ac:ab:
                    50:c6:6f:0f:62:20:f6:ea:14:e5:b7:14:56:8b:13:
                    7c:bc:b9:c8:ea:64:49:88:bb:66:e3:af:67:9f:43:
                    78:6e:ec:9a:ac:ab:5f:4c:90:79:ae:5a:7a:f0:64:
                    8f:50:55:4a:f1:38:b8:5d:29:13:c2:03:e1:dd:e6:
                    bc:d2:6d:8f:08:ae:b2:f6:db:95:c1:ff:62:41:54:
                    fb:71:4e:2f:a4:24:13:62:4c:db:d0:b2:e8:fb:1b:
                    32:32:8c:0d:2b:9d:3f:0d:d3:19:8d:3d:6a:4f:9b:
                    07:74:3d:ac:a8:e1:cd:b6:38:04:bf:fa:61:88:5b:
                    66:e7:39
                Exponent: 65537 (0x10001)
        X509v3 extensions:
            X509v3 Basic Constraints: 
                CA:FALSE
            Netscape Comment: 
                Easy-RSA Generated Certificate
            X509v3 Subject Key Identifier: 
                1C:4B:67:81:FD:8D:F0:91:FD:F0:FC:9C:8D:F2:31:90:76:34:64:A7
            X509v3 Authority Key Identifier: 
                keyid:12:CD:60:04:D2:A0:80:9E:70:ED:C6:99:B8:7B:2C:C6:52:FD:19:A1
                DirName:/C=US/ST=OH/L=Columbus/O=VikingVPN/OU=MyOrganizationalUnit/CN=VikingVPN CA/name=EasyRSA/emailAddress=me@myhost.mydomain
                serial:CF:35:85:EE:80:BF:2A:3E

            X509v3 Extended Key Usage: 
                TLS Web Client Authentication
            X509v3 Key Usage: 
                Digital Signature
    Signature Algorithm: md5WithRSAEncryption
         66:11:59:ac:61:44:7c:8e:93:64:ab:a3:49:9f:a8:2c:b8:fb:
         d8:c9:5e:b7:66:3f:67:4a:60:85:a0:2c:ca:86:40:0b:08:c4:
         ae:34:08:07:eb:51:26:6a:c1:df:10:3a:09:66:e8:5a:05:f2:
         2d:c3:10:4f:34:48:ca:bf:a1:c1:be:36:41:fb:72:98:16:cc:
         ac:35:8d:23:da:33:08:65:ef:bc:ae:10:08:5b:7f:5d:23:35:
         9e:e5:0a:fb:cf:12:3f:d7:96:26:39:46:33:d4:03:39:b5:88:
         8e:bc:4b:c8:c6:4c:01:1b:22:60:7c:23:f6:4f:e9:1a:a1:29:
         29:16:5f:26:c1:cd:dc:11:4c:72:44:40:bc:0f:59:7c:9d:1a:
         ae:cc:a5:0f:a7:52:5c:82:33:65:c0:9b:00:cf:ef:7b:99:2f:
         49:63:55:a7:b5:b3:0e:28:1c:c5:af:1f:6c:6c:32:2c:b0:3e:
         79:3a:0d:cd:cc:ce:cb:4b:9c:6d:55:a8:73:60:f8:cb:1d:11:
         81:4d:f3:5c:58:30:2f:82:ea:67:06:57:e6:f1:8e:5b:7e:5e:
         a8:9a:2b:5d:29:7e:ab:46:41:a1:86:60:d6:f8:da:47:7a:a3:
         a5:e0:ce:2e:73:f0:b5:3a:1f:bc:b9:41:f1:9c:16:68:e3:24:
         22:b2:6d:db:f1:14:92:33:f6:2d:3d:e7:b7:13:e4:f8:65:f4:
         27:3c:57:a2:11:3d:74:b4:0e:67:80:5b:77:0c:6b:40:73:9b:
         29:79:3a:00:9d:29:c6:93:99:5f:03:df:af:e3:c4:6a:90:ae:
         37:2f:f5:15:f6:a3:64:b1:d1:48:ea:14:62:72:bd:48:bf:eb:
         28:fd:d3:89:f8:01:3e:09:f2:00:3d:22:c2:50:67:68:17:9a:
         0a:88:12:48:69:08:dc:6d:e1:da:80:79:4c:36:3f:55:e8:c3:
         20:66:6d:61:0e:18:d7:8a:36:2a:7b:bb:f3:f5:3b:f6:28:77:
         78:15:b8:39:ab:5a:bf:21:26:69:2c:b4:a8:b1:73:33:93:50:
         11:46:6b:08:b2:14:8e:19:29:5a:db:c7:a4:ad:32:6e:9d:b5:
         1d:69:2d:c1:7f:f4:a7:9c:2b:42:d6:6c:ca:60:21:eb:04:d1:
         dc:8b:2b:9a:68:52:df:e5:74:75:01:51:40:48:38:5d:42:51:
         6c:8e:4f:e4:22:2f:59:0a:55:b5:83:21:db:2a:f9:39:6a:f5:
         3f:f0:4d:06:eb:8c:c3:b9:e1:96:4f:49:70:a0:9d:96:58:bd:
         fd:eb:03:04:d4:4e:3a:ed:2b:1b:a5:c3:27:47:c9:1a:e7:2b:
         76:92:db:15:52:99:3d:fb
-----BEGIN CERTIFICATE-----
MIIGrTCCBJWgAwIBAgICHUcwDQYJKoZIhvcNAQEEBQAwgawxCzAJBgNVBAYTAlVT
MQswCQYDVQQIEwJPSDERMA8GA1UEBxMIQ29sdW1idXMxEjAQBgNVBAoTCVZpa2lu
Z1ZQTjEdMBsGA1UECxMUTXlPcmdhbml6YXRpb25hbFVuaXQxFTATBgNVBAMTDFZp
a2luZ1ZQTiBDQTEQMA4GA1UEKRMHRWFzeVJTQTEhMB8GCSqGSIb3DQEJARYSbWVA
bXlob3N0Lm15ZG9tYWluMB4XDTE2MDMxMzIwMjgzNFoXDTI2MDMxMTIwMjgzNFow
HzEdMBsGA1UEAxMUQ2xpZW50MTkxMUNlcnRiMjIyOGMwggIiMA0GCSqGSIb3DQEB
AQUAA4ICDwAwggIKAoICAQC1q/c2RywnFYXIDteUtGB5ZoZtj6cQc1aYDPEFg5Wd
SCepqXsTxUdIfa9hFKIzFvgJ+3cpffqbf5iUkriwiqIAWY2c+hUNRXj2zrWhYApo
nZG/0xZYNVQyn9/7SchhY0uv2QMqkff5RLw0Ne98/KICWj211aM5YaRy6bgCSezU
i8DnLdgp9LjK8deT5DdpP5fQ1jnoA6j+u843+NBYsHNUtd/7r/UaNd2GdIdlVKuG
vaEny38aaePce9aQxLVF+oXFtJr4d2+yfxcMXkPC5SiEp3Gzx8vE2PSC/SF6QdQH
vUZN+mP3QfAIP5462qSCrdjnwAauTPuRhOio9RpW2pn3gkG8a105LTFPZFY4uAbz
Fj7R812TihfLoy4KU0ihIIj+9dNXR5q3mMt2F1H1fAOsrGHogTzW5o7PBT69KS6d
gkRHKQrisxKL/XNfKBaRob8TEEqEOopUoEnto06ehiNXvQ6GMta050VuCMV9RXM9
20jbqiZc4L2st8bxjbiYISNXzB6sq1DGbw9iIPbqFOW3FFaLE3y8ucjqZEmIu2bj
r2efQ3hu7Jqsq19MkHmuWnrwZI9QVUrxOLhdKRPCA+Hd5rzSbY8IrrL225XB/2JB
VPtxTi+kJBNiTNvQsuj7GzIyjA0rnT8N0xmNPWpPmwd0Payo4c22OAS/+mGIW2bn
OQIDAQABo4IBYzCCAV8wCQYDVR0TBAIwADAtBglghkgBhvhCAQ0EIBYeRWFzeS1S
U0EgR2VuZXJhdGVkIENlcnRpZmljYXRlMB0GA1UdDgQWBBQcS2eB/Y3wkf3w/JyN
8jGQdjRkpzCB4QYDVR0jBIHZMIHWgBQSzWAE0qCAnnDtxpm4eyzGUv0ZoaGBsqSB
rzCBrDELMAkGA1UEBhMCVVMxCzAJBgNVBAgTAk9IMREwDwYDVQQHEwhDb2x1bWJ1
czESMBAGA1UEChMJVmlraW5nVlBOMR0wGwYDVQQLExRNeU9yZ2FuaXphdGlvbmFs
VW5pdDEVMBMGA1UEAxMMVmlraW5nVlBOIENBMRAwDgYDVQQpEwdFYXN5UlNBMSEw
HwYJKoZIhvcNAQkBFhJtZUBteWhvc3QubXlkb21haW6CCQDPNYXugL8qPjATBgNV
HSUEDDAKBggrBgEFBQcDAjALBgNVHQ8EBAMCB4AwDQYJKoZIhvcNAQEEBQADggIB
AGYRWaxhRHyOk2Sro0mfqCy4+9jJXrdmP2dKYIWgLMqGQAsIxK40CAfrUSZqwd8Q
Oglm6FoF8i3DEE80SMq/ocG+NkH7cpgWzKw1jSPaMwhl77yuEAhbf10jNZ7lCvvP
Ej/XliY5RjPUAzm1iI68S8jGTAEbImB8I/ZP6RqhKSkWXybBzdwRTHJEQLwPWXyd
Gq7MpQ+nUlyCM2XAmwDP73uZL0ljVae1sw4oHMWvH2xsMiywPnk6Dc3MzstLnG1V
qHNg+MsdEYFN81xYMC+C6mcGV+bxjlt+XqiaK10pfqtGQaGGYNb42kd6o6Xgzi5z
8LU6H7y5QfGcFmjjJCKybdvxFJIz9i0957cT5Phl9Cc8V6IRPXS0DmeAW3cMa0Bz
myl5OgCdKcaTmV8D36/jxGqQrjcv9RX2o2Sx0UjqFGJyvUi/6yj904n4AT4J8gA9
IsJQZ2gXmgqIEkhpCNxt4dqAeUw2P1XowyBmbWEOGNeKNip7u/P1O/Yod3gVuDmr
Wr8hJmkstKixczOTUBFGawiyFI4ZKVrbx6StMm6dtR1pLcF/9KecK0LWbMpgIesE
0dyLK5poUt/ldHUBUUBIOF1CUWyOT+QiL1kKVbWDIdsq+Tlq9T/wTQbrjMO54ZZP
SXCgnZZYvf3rAwTUTjrtKxulwydHyRrnK3aS2xVSmT37
-----END CERTIFICATE-----
