Certificate:
    Data:
        Version: 3 (0x2)
        Serial Number: 7505 (0x1d51)
    Signature Algorithm: md5WithRSAEncryption
        Issuer: C=US, ST=OH, L=Columbus, O=VikingVPN, OU=MyOrganizationalUnit, CN=VikingVPN CA/name=EasyRSA/emailAddress=me@myhost.mydomain
        Validity
            Not Before: Mar 14 19:31:52 2016 GMT
            Not After : Mar 12 19:31:52 2026 GMT
        Subject: CN=Client1803Cert47171f
        Subject Public Key Info:
            Public Key Algorithm: rsaEncryption
                Public-Key: (4096 bit)
                Modulus:
                    00:9b:e1:f7:ef:0e:bb:5d:14:10:72:4f:e8:6c:c6:
                    1f:ac:03:6e:34:d4:ff:bb:36:47:37:78:78:91:6a:
                    ff:94:f1:a3:6f:80:70:99:52:4d:ad:b8:ac:f5:b1:
                    8b:ff:c1:c8:1f:a3:7a:91:1f:59:ff:af:04:b4:ef:
                    d7:4c:bc:64:c9:ae:40:e1:9f:89:11:bd:a8:03:2c:
                    0f:7a:85:59:af:7c:6b:08:d3:ab:2a:d1:d0:c0:c4:
                    94:10:61:88:f5:91:d5:a0:00:14:ca:4b:e5:d5:ab:
                    57:1f:9c:7b:8a:f6:82:6b:4b:e8:20:39:86:6a:38:
                    b1:84:ed:62:cb:81:93:79:14:2e:2e:01:67:e9:d7:
                    0d:fb:5d:cc:36:73:0c:c9:42:76:42:0d:d8:b0:93:
                    1e:ce:53:33:b4:d8:45:5c:73:6c:7d:dc:3d:44:5e:
                    9c:ad:73:76:cd:14:c4:c7:55:56:7f:3c:6c:7d:a9:
                    e4:22:25:99:62:65:48:e9:5e:8f:f7:d9:90:7e:b2:
                    11:fa:cc:d5:0c:4b:41:14:c2:22:d7:a4:fe:12:87:
                    74:01:4b:57:8f:12:76:0e:e6:8e:8d:35:1e:8c:ba:
                    37:8d:fd:e7:10:e3:2b:9f:57:da:c7:37:cc:07:1b:
                    52:ad:d3:71:a8:dc:0f:f6:f8:09:db:92:28:0c:2d:
                    15:6d:98:63:65:31:62:01:fb:38:99:ff:39:0c:af:
                    b1:6b:16:76:06:af:09:f5:1a:36:8e:14:eb:bc:32:
                    84:24:bf:d2:27:7c:40:68:f2:cf:30:bc:d9:ba:50:
                    f6:97:02:a8:d5:6b:de:b7:3d:83:06:5b:7d:7b:a3:
                    96:aa:cc:56:c6:57:3f:75:a9:63:35:ca:9f:2d:a8:
                    d9:82:92:a8:6a:f3:0c:9d:d7:47:7d:aa:7c:c7:e0:
                    1e:c6:47:39:5e:d0:0b:8a:09:fc:01:a3:46:25:22:
                    93:f5:7a:06:4c:4e:09:6d:b9:45:3a:d0:34:c6:0f:
                    91:b3:79:f4:13:f4:f3:e1:7e:62:bd:c6:d1:d0:2a:
                    e6:65:18:a5:83:be:73:96:5f:03:87:11:c0:56:9a:
                    f3:a9:cd:cf:3f:ad:e7:94:eb:13:b9:1f:1a:99:ae:
                    09:6b:e3:aa:97:c8:4c:22:5e:a6:9c:8a:dc:29:d8:
                    a4:d5:d9:fc:66:54:a2:3d:22:99:9f:74:0d:fb:12:
                    c8:36:80:3b:d3:03:65:11:5c:71:4c:62:11:0f:e3:
                    f5:c8:b7:84:3d:78:0e:d4:d8:82:fe:38:9f:1d:89:
                    21:d7:12:6e:d8:38:27:7c:b9:31:0e:4d:c8:ec:41:
                    5a:33:4e:69:e8:31:01:a9:27:56:2b:3d:0b:40:df:
                    da:45:af
                Exponent: 65537 (0x10001)
        X509v3 extensions:
            X509v3 Basic Constraints: 
                CA:FALSE
            Netscape Comment: 
                Easy-RSA Generated Certificate
            X509v3 Subject Key Identifier: 
                FF:7F:EE:F7:93:13:7C:3B:57:00:E3:CB:5E:B0:74:AD:A6:F1:19:6E
            X509v3 Authority Key Identifier: 
                keyid:12:CD:60:04:D2:A0:80:9E:70:ED:C6:99:B8:7B:2C:C6:52:FD:19:A1
                DirName:/C=US/ST=OH/L=Columbus/O=VikingVPN/OU=MyOrganizationalUnit/CN=VikingVPN CA/name=EasyRSA/emailAddress=me@myhost.mydomain
                serial:CF:35:85:EE:80:BF:2A:3E

            X509v3 Extended Key Usage: 
                TLS Web Client Authentication
            X509v3 Key Usage: 
                Digital Signature
    Signature Algorithm: md5WithRSAEncryption
         14:81:92:ce:1f:1f:01:16:c8:1f:8d:5d:b8:78:73:65:33:42:
         fb:c2:cf:36:c8:a1:b2:ed:fc:69:b5:8e:05:26:da:7a:cf:4e:
         1b:5b:86:09:0d:f8:3a:1b:e0:e1:74:e1:ae:e7:dd:b9:13:6f:
         06:cd:4f:0a:34:3b:a7:f3:b4:9a:0c:c0:e5:e1:e1:ec:f5:34:
         1f:65:ef:09:af:b7:5b:0a:0b:ad:5c:65:37:a5:38:9d:2b:78:
         65:ee:5a:8f:bb:bf:0f:58:d4:8c:0c:40:11:ca:eb:63:f3:3d:
         7a:de:e4:f5:1e:83:8e:cd:ed:8d:8a:77:29:1e:7a:ed:79:de:
         67:fe:13:8b:55:23:c4:df:18:d8:0f:4b:c9:68:f9:3a:0b:97:
         6d:25:f3:93:38:0f:c4:3c:98:0a:e7:40:62:a8:71:b4:6a:55:
         33:62:ec:a5:77:33:ff:38:6c:cd:f2:11:a4:d5:d5:34:f4:be:
         d2:5c:1d:59:2c:dd:ba:3a:f7:f3:1d:83:0b:59:f9:61:0b:30:
         cf:f7:42:51:9b:23:ef:7c:8e:28:e2:f2:e2:5d:5f:11:fe:06:
         a5:da:46:91:9f:4b:c2:64:f6:fd:f7:b1:41:68:f5:9f:12:e2:
         7f:e7:0f:f3:ce:70:74:0c:e3:3d:cc:23:8f:6a:8f:ec:db:d6:
         61:a3:43:4a:08:f7:34:a9:c1:46:43:6c:da:8b:f0:5f:d0:12:
         07:42:e2:13:01:6f:f3:c7:bc:da:16:bf:c3:ea:77:ea:62:d0:
         1b:3e:85:fd:70:06:48:4f:37:3c:8e:75:d9:c8:36:a1:7e:14:
         d1:99:c3:d8:5e:70:8b:ed:a7:d5:a6:94:ad:82:91:ff:95:de:
         25:30:b3:c2:90:1a:ba:d8:a6:8b:2e:ce:9f:f4:6a:fc:71:30:
         03:59:36:59:2f:82:f9:15:6a:cf:ad:23:dc:56:83:0c:8c:fa:
         75:84:ac:37:1b:5c:53:8b:15:6c:4e:57:72:10:4b:8d:d5:03:
         8f:39:95:35:8d:fa:94:b7:61:b9:97:4f:d1:ef:0a:e4:0c:51:
         32:60:ee:00:a7:58:7a:b7:ad:9e:f4:4c:e0:f2:12:01:d3:82:
         95:8c:a1:73:07:68:17:9c:d1:bc:e7:df:82:50:9c:9b:5c:f0:
         96:1e:3f:7a:6a:2d:cb:79:d2:ef:a1:f5:e1:a8:a1:fb:dd:04:
         c1:07:7d:5f:7a:f4:e3:14:15:04:c4:cf:62:9c:5e:a8:06:a8:
         36:44:20:63:b8:cd:26:ba:a2:af:05:42:6f:39:02:ae:5d:55:
         ea:4d:d1:dc:ef:ba:73:fc:15:80:cd:87:52:65:fe:26:46:8c:
         57:31:cd:13:aa:d4:63:b4
-----BEGIN CERTIFICATE-----
MIIGrTCCBJWgAwIBAgICHVEwDQYJKoZIhvcNAQEEBQAwgawxCzAJBgNVBAYTAlVT
MQswCQYDVQQIEwJPSDERMA8GA1UEBxMIQ29sdW1idXMxEjAQBgNVBAoTCVZpa2lu
Z1ZQTjEdMBsGA1UECxMUTXlPcmdhbml6YXRpb25hbFVuaXQxFTATBgNVBAMTDFZp
a2luZ1ZQTiBDQTEQMA4GA1UEKRMHRWFzeVJTQTEhMB8GCSqGSIb3DQEJARYSbWVA
bXlob3N0Lm15ZG9tYWluMB4XDTE2MDMxNDE5MzE1MloXDTI2MDMxMjE5MzE1Mlow
HzEdMBsGA1UEAxMUQ2xpZW50MTgwM0NlcnQ0NzE3MWYwggIiMA0GCSqGSIb3DQEB
AQUAA4ICDwAwggIKAoICAQCb4ffvDrtdFBByT+hsxh+sA2401P+7Nkc3eHiRav+U
8aNvgHCZUk2tuKz1sYv/wcgfo3qRH1n/rwS079dMvGTJrkDhn4kRvagDLA96hVmv
fGsI06sq0dDAxJQQYYj1kdWgABTKS+XVq1cfnHuK9oJrS+ggOYZqOLGE7WLLgZN5
FC4uAWfp1w37Xcw2cwzJQnZCDdiwkx7OUzO02EVcc2x93D1EXpytc3bNFMTHVVZ/
PGx9qeQiJZliZUjpXo/32ZB+shH6zNUMS0EUwiLXpP4Sh3QBS1ePEnYO5o6NNR6M
ujeN/ecQ4yufV9rHN8wHG1Kt03Go3A/2+AnbkigMLRVtmGNlMWIB+ziZ/zkMr7Fr
FnYGrwn1GjaOFOu8MoQkv9InfEBo8s8wvNm6UPaXAqjVa963PYMGW317o5aqzFbG
Vz91qWM1yp8tqNmCkqhq8wyd10d9qnzH4B7GRzle0AuKCfwBo0YlIpP1egZMTglt
uUU60DTGD5GzefQT9PPhfmK9xtHQKuZlGKWDvnOWXwOHEcBWmvOpzc8/reeU6xO5
HxqZrglr46qXyEwiXqacitwp2KTV2fxmVKI9IpmfdA37Esg2gDvTA2URXHFMYhEP
4/XIt4Q9eA7U2IL+OJ8diSHXEm7YOCd8uTEOTcjsQVozTmnoMQGpJ1YrPQtA39pF
rwIDAQABo4IBYzCCAV8wCQYDVR0TBAIwADAtBglghkgBhvhCAQ0EIBYeRWFzeS1S
U0EgR2VuZXJhdGVkIENlcnRpZmljYXRlMB0GA1UdDgQWBBT/f+73kxN8O1cA48te
sHStpvEZbjCB4QYDVR0jBIHZMIHWgBQSzWAE0qCAnnDtxpm4eyzGUv0ZoaGBsqSB
rzCBrDELMAkGA1UEBhMCVVMxCzAJBgNVBAgTAk9IMREwDwYDVQQHEwhDb2x1bWJ1
czESMBAGA1UEChMJVmlraW5nVlBOMR0wGwYDVQQLExRNeU9yZ2FuaXphdGlvbmFs
VW5pdDEVMBMGA1UEAxMMVmlraW5nVlBOIENBMRAwDgYDVQQpEwdFYXN5UlNBMSEw
HwYJKoZIhvcNAQkBFhJtZUBteWhvc3QubXlkb21haW6CCQDPNYXugL8qPjATBgNV
HSUEDDAKBggrBgEFBQcDAjALBgNVHQ8EBAMCB4AwDQYJKoZIhvcNAQEEBQADggIB
ABSBks4fHwEWyB+NXbh4c2UzQvvCzzbIobLt/Gm1jgUm2nrPThtbhgkN+Dob4OF0
4a7n3bkTbwbNTwo0O6fztJoMwOXh4ez1NB9l7wmvt1sKC61cZTelOJ0reGXuWo+7
vw9Y1IwMQBHK62PzPXre5PUeg47N7Y2Kdykeeu153mf+E4tVI8TfGNgPS8lo+ToL
l20l85M4D8Q8mArnQGKocbRqVTNi7KV3M/84bM3yEaTV1TT0vtJcHVks3bo69/Md
gwtZ+WELMM/3QlGbI+98jiji8uJdXxH+BqXaRpGfS8Jk9v33sUFo9Z8S4n/nD/PO
cHQM4z3MI49qj+zb1mGjQ0oI9zSpwUZDbNqL8F/QEgdC4hMBb/PHvNoWv8Pqd+pi
0Bs+hf1wBkhPNzyOddnINqF+FNGZw9hecIvtp9WmlK2Ckf+V3iUws8KQGrrYposu
zp/0avxxMANZNlkvgvkVas+tI9xWgwyM+nWErDcbXFOLFWxOV3IQS43VA485lTWN
+pS3YbmXT9HvCuQMUTJg7gCnWHq3rZ70TODyEgHTgpWMoXMHaBec0bzn34JQnJtc
8JYeP3pqLct50u+h9eGoofvdBMEHfV969OMUFQTEz2KcXqgGqDZEIGO4zSa6oq8F
Qm85Aq5dVepN0dzvunP8FYDNh1Jl/iZGjFcxzROq1GO0
-----END CERTIFICATE-----
