Certificate:
    Data:
        Version: 3 (0x2)
        Serial Number: 7508 (0x1d54)
    Signature Algorithm: md5WithRSAEncryption
        Issuer: C=US, ST=OH, L=Columbus, O=VikingVPN, OU=MyOrganizationalUnit, CN=VikingVPN CA/name=EasyRSA/emailAddress=me@myhost.mydomain
        Validity
            Not Before: Mar 15 03:09:27 2016 GMT
            Not After : Mar 13 03:09:27 2026 GMT
        Subject: CN=Client2210Cert09670d
        Subject Public Key Info:
            Public Key Algorithm: rsaEncryption
                Public-Key: (4096 bit)
                Modulus:
                    00:d5:6f:52:39:31:ed:9d:d9:4a:45:7e:9d:0b:db:
                    18:f2:de:7e:f5:c2:e0:73:9c:4c:af:db:fa:b8:cc:
                    74:2b:68:bc:33:37:a2:7d:60:13:b0:a9:fe:6d:73:
                    cf:f3:7a:0c:50:fc:38:d7:a8:87:13:cc:0d:34:53:
                    9e:0f:1c:31:d3:fb:93:ae:9f:6b:14:f0:cd:6c:26:
                    1e:3d:81:61:f8:40:b9:b0:03:fb:86:53:0e:9e:34:
                    ed:3c:80:1a:bd:58:cf:36:f2:a4:91:e6:16:e1:ca:
                    19:2f:ce:32:0f:6e:48:bb:ed:8c:41:7d:f7:d1:35:
                    70:0b:82:8e:29:95:44:b9:89:ca:90:9f:d6:f1:89:
                    b5:0c:c1:4e:05:f2:4a:cc:ad:70:c5:0d:50:7a:94:
                    35:b1:95:ff:24:75:c0:6f:c8:7c:73:7d:71:4b:ce:
                    24:12:4f:10:91:34:4a:59:79:2f:b6:a6:74:8b:e8:
                    9b:a9:18:cc:41:c7:39:92:69:a5:66:81:91:df:26:
                    13:47:36:c1:71:94:8d:a3:6b:9a:52:25:aa:53:9b:
                    c2:99:8e:93:6f:b9:d0:25:a1:09:1c:ea:65:39:6a:
                    ad:76:d0:ff:0c:4c:60:2f:27:a1:87:11:fd:b1:c9:
                    1b:ce:f3:01:69:fa:f3:d4:4d:23:90:35:dc:b5:ce:
                    b5:47:f0:de:2b:0f:ec:2a:22:d4:4b:4d:83:42:db:
                    81:f4:9a:cc:e9:61:41:a0:34:24:36:5f:84:b6:30:
                    68:2a:05:e9:59:d6:7b:65:a5:46:9f:9b:9f:d8:e3:
                    aa:6a:19:f0:af:8f:36:f6:a8:53:81:6c:58:7d:8c:
                    ee:31:a1:9a:a8:a5:c5:9a:75:83:e7:73:8f:57:89:
                    c0:15:77:c6:97:12:dd:04:8d:42:4a:e0:bd:88:63:
                    65:d6:49:18:4f:d6:4e:9a:2b:90:85:88:b0:4f:34:
                    f0:e7:cf:a7:57:d2:cd:8e:00:45:c0:f8:68:13:4c:
                    3a:0a:08:6b:e5:6f:49:fd:a0:40:d6:be:9e:31:8a:
                    09:02:d9:97:43:40:d1:ad:e6:08:34:b2:5e:69:48:
                    26:19:02:60:e0:0d:12:d2:f0:9f:d6:75:8a:bb:5c:
                    27:ec:2a:07:4b:4f:bd:08:1b:e3:4e:b4:78:74:f5:
                    bc:8b:d4:08:1b:d3:e4:22:1b:87:c3:e8:49:da:3d:
                    0a:c3:f9:62:98:e2:c6:c9:21:d7:09:1a:02:ec:35:
                    b4:fc:6c:cd:0f:12:64:c1:9e:0e:2e:2a:97:59:f1:
                    01:aa:f5:eb:90:25:0b:26:09:70:6c:b6:f5:05:51:
                    87:1c:7e:6d:d0:5a:a1:93:c4:a0:66:2a:c7:64:f5:
                    cf:20:fd
                Exponent: 65537 (0x10001)
        X509v3 extensions:
            X509v3 Basic Constraints: 
                CA:FALSE
            Netscape Comment: 
                Easy-RSA Generated Certificate
            X509v3 Subject Key Identifier: 
                F4:18:F3:BE:54:59:B4:DD:0A:02:2C:57:F7:2B:F2:96:2C:AA:0E:E2
            X509v3 Authority Key Identifier: 
                keyid:12:CD:60:04:D2:A0:80:9E:70:ED:C6:99:B8:7B:2C:C6:52:FD:19:A1
                DirName:/C=US/ST=OH/L=Columbus/O=VikingVPN/OU=MyOrganizationalUnit/CN=VikingVPN CA/name=EasyRSA/emailAddress=me@myhost.mydomain
                serial:CF:35:85:EE:80:BF:2A:3E

            X509v3 Extended Key Usage: 
                TLS Web Client Authentication
            X509v3 Key Usage: 
                Digital Signature
    Signature Algorithm: md5WithRSAEncryption
         e7:b2:98:74:01:a0:57:a2:6e:95:ec:53:47:12:b4:17:61:e5:
         b2:71:cf:cb:2a:b6:ac:3f:c6:85:d1:38:f8:ec:43:57:08:e5:
         e9:72:8a:7d:77:25:0e:d6:3a:29:6b:0b:b0:8d:68:02:2e:39:
         72:6e:2d:d9:b7:d7:ff:f2:56:29:08:bf:40:51:c9:e7:a6:f5:
         5a:13:c1:84:8f:65:ec:92:0e:b4:1f:a4:55:96:f6:64:4a:e0:
         57:e1:b5:03:f7:3b:ad:b5:6e:f8:2a:28:02:e0:41:99:54:a5:
         37:cb:85:b5:66:41:9c:a8:1f:3c:4c:7c:73:fd:46:bb:85:bd:
         d9:a6:e3:df:ca:5a:88:08:d5:97:d4:a5:71:ee:49:ad:54:12:
         bb:97:5d:fa:6a:62:b8:d7:c6:34:91:58:7a:42:33:06:19:af:
         57:a9:d4:68:47:13:35:82:52:c9:44:2f:60:0b:ee:ca:f0:7f:
         9c:7f:26:d7:ca:6c:41:e2:d4:d9:98:57:ec:4d:d8:a8:b8:20:
         a4:39:56:49:61:82:c4:fe:96:03:43:61:5a:3b:7a:70:6e:3b:
         5d:4f:f0:39:9b:bd:ca:17:1b:aa:60:44:c4:9e:6d:3a:2d:c3:
         47:9d:a8:34:94:74:34:f2:3f:91:96:7f:45:f0:37:a4:c1:19:
         54:4b:ae:03:ec:7a:19:c8:d0:e3:25:c9:5d:61:5e:6d:e9:b2:
         fb:d1:a5:3e:86:ca:88:84:05:73:14:d1:7a:52:d5:81:1e:31:
         ca:e8:eb:2a:50:b2:50:5e:e5:78:ba:3a:8c:83:e9:79:87:99:
         d5:ec:0d:5e:9c:53:cf:79:58:09:b8:3b:c4:f0:bd:3f:42:f3:
         23:01:cd:92:e1:a6:96:10:82:c9:43:2f:47:2a:7b:93:1b:23:
         1b:b5:48:b7:f0:08:72:1c:ac:d9:a8:c5:59:7b:21:7f:87:89:
         95:96:4f:46:af:8f:f7:59:5e:91:09:63:b9:c0:69:90:d9:da:
         d0:f3:1c:a2:75:08:a5:2e:66:46:28:be:d2:c7:22:cc:c4:c4:
         bd:c4:e2:f0:a6:f8:41:bb:63:22:bc:de:30:ad:c8:03:b8:29:
         4a:08:79:59:52:47:7e:73:32:22:a0:87:1e:79:5f:88:5f:7b:
         46:9a:a0:5e:19:07:aa:3d:7e:1f:8d:b0:7c:0f:05:1f:07:e3:
         6c:13:56:4d:a5:09:d0:fc:b9:d8:25:fb:1c:ad:9d:fe:d4:1b:
         f9:08:fc:62:09:e7:ec:cd:56:c9:28:37:29:1f:70:3d:f5:db:
         8f:db:51:7a:f8:33:c1:ab:99:06:76:a9:38:ba:17:43:db:90:
         83:5f:fb:09:02:31:29:32
-----BEGIN CERTIFICATE-----
MIIGrTCCBJWgAwIBAgICHVQwDQYJKoZIhvcNAQEEBQAwgawxCzAJBgNVBAYTAlVT
MQswCQYDVQQIEwJPSDERMA8GA1UEBxMIQ29sdW1idXMxEjAQBgNVBAoTCVZpa2lu
Z1ZQTjEdMBsGA1UECxMUTXlPcmdhbml6YXRpb25hbFVuaXQxFTATBgNVBAMTDFZp
a2luZ1ZQTiBDQTEQMA4GA1UEKRMHRWFzeVJTQTEhMB8GCSqGSIb3DQEJARYSbWVA
bXlob3N0Lm15ZG9tYWluMB4XDTE2MDMxNTAzMDkyN1oXDTI2MDMxMzAzMDkyN1ow
HzEdMBsGA1UEAxMUQ2xpZW50MjIxMENlcnQwOTY3MGQwggIiMA0GCSqGSIb3DQEB
AQUAA4ICDwAwggIKAoICAQDVb1I5Me2d2UpFfp0L2xjy3n71wuBznEyv2/q4zHQr
aLwzN6J9YBOwqf5tc8/zegxQ/DjXqIcTzA00U54PHDHT+5Oun2sU8M1sJh49gWH4
QLmwA/uGUw6eNO08gBq9WM828qSR5hbhyhkvzjIPbki77YxBfffRNXALgo4plUS5
icqQn9bxibUMwU4F8krMrXDFDVB6lDWxlf8kdcBvyHxzfXFLziQSTxCRNEpZeS+2
pnSL6JupGMxBxzmSaaVmgZHfJhNHNsFxlI2ja5pSJapTm8KZjpNvudAloQkc6mU5
aq120P8MTGAvJ6GHEf2xyRvO8wFp+vPUTSOQNdy1zrVH8N4rD+wqItRLTYNC24H0
mszpYUGgNCQ2X4S2MGgqBelZ1ntlpUafm5/Y46pqGfCvjzb2qFOBbFh9jO4xoZqo
pcWadYPnc49XicAVd8aXEt0EjUJK4L2IY2XWSRhP1k6aK5CFiLBPNPDnz6dX0s2O
AEXA+GgTTDoKCGvlb0n9oEDWvp4xigkC2ZdDQNGt5gg0sl5pSCYZAmDgDRLS8J/W
dYq7XCfsKgdLT70IG+NOtHh09byL1Agb0+QiG4fD6EnaPQrD+WKY4sbJIdcJGgLs
NbT8bM0PEmTBng4uKpdZ8QGq9euQJQsmCXBstvUFUYccfm3QWqGTxKBmKsdk9c8g
/QIDAQABo4IBYzCCAV8wCQYDVR0TBAIwADAtBglghkgBhvhCAQ0EIBYeRWFzeS1S
U0EgR2VuZXJhdGVkIENlcnRpZmljYXRlMB0GA1UdDgQWBBT0GPO+VFm03QoCLFf3
K/KWLKoO4jCB4QYDVR0jBIHZMIHWgBQSzWAE0qCAnnDtxpm4eyzGUv0ZoaGBsqSB
rzCBrDELMAkGA1UEBhMCVVMxCzAJBgNVBAgTAk9IMREwDwYDVQQHEwhDb2x1bWJ1
czESMBAGA1UEChMJVmlraW5nVlBOMR0wGwYDVQQLExRNeU9yZ2FuaXphdGlvbmFs
VW5pdDEVMBMGA1UEAxMMVmlraW5nVlBOIENBMRAwDgYDVQQpEwdFYXN5UlNBMSEw
HwYJKoZIhvcNAQkBFhJtZUBteWhvc3QubXlkb21haW6CCQDPNYXugL8qPjATBgNV
HSUEDDAKBggrBgEFBQcDAjALBgNVHQ8EBAMCB4AwDQYJKoZIhvcNAQEEBQADggIB
AOeymHQBoFeibpXsU0cStBdh5bJxz8sqtqw/xoXROPjsQ1cI5elyin13JQ7WOilr
C7CNaAIuOXJuLdm31//yVikIv0BRyeem9VoTwYSPZeySDrQfpFWW9mRK4FfhtQP3
O621bvgqKALgQZlUpTfLhbVmQZyoHzxMfHP9RruFvdmm49/KWogI1ZfUpXHuSa1U
EruXXfpqYrjXxjSRWHpCMwYZr1ep1GhHEzWCUslEL2AL7srwf5x/JtfKbEHi1NmY
V+xN2Ki4IKQ5VklhgsT+lgNDYVo7enBuO11P8DmbvcoXG6pgRMSebTotw0edqDSU
dDTyP5GWf0XwN6TBGVRLrgPsehnI0OMlyV1hXm3psvvRpT6GyoiEBXMU0XpS1YEe
Mcro6ypQslBe5Xi6OoyD6XmHmdXsDV6cU895WAm4O8TwvT9C8yMBzZLhppYQgslD
L0cqe5MbIxu1SLfwCHIcrNmoxVl7IX+HiZWWT0avj/dZXpEJY7nAaZDZ2tDzHKJ1
CKUuZkYovtLHIszExL3E4vCm+EG7YyK83jCtyAO4KUoIeVlSR35zMiKghx55X4hf
e0aaoF4ZB6o9fh+NsHwPBR8H42wTVk2lCdD8udgl+xytnf7UG/kI/GIJ5+zNVsko
NykfcD3124/bUXr4M8GrmQZ2qTi6F0PbkINf+wkCMSky
-----END CERTIFICATE-----
