Certificate:
    Data:
        Version: 3 (0x2)
        Serial Number: 7517 (0x1d5d)
    Signature Algorithm: md5WithRSAEncryption
        Issuer: C=US, ST=OH, L=Columbus, O=VikingVPN, OU=MyOrganizationalUnit, CN=VikingVPN CA/name=EasyRSA/emailAddress=me@myhost.mydomain
        Validity
            Not Before: Mar 15 07:02:11 2016 GMT
            Not After : Mar 13 07:02:11 2026 GMT
        Subject: CN=Client1802Cert5fb2ca
        Subject Public Key Info:
            Public Key Algorithm: rsaEncryption
                Public-Key: (4096 bit)
                Modulus:
                    00:da:c6:29:0d:fd:62:57:6a:a9:d5:0c:27:1e:df:
                    67:d7:ed:1a:31:57:46:a3:f0:a8:bc:f7:c2:a5:42:
                    94:f8:05:81:5a:79:8f:55:8a:59:b4:e1:2e:e7:89:
                    13:32:89:05:6b:0e:31:6b:2e:8b:d0:b5:46:9a:f7:
                    d1:b2:ca:9b:d1:05:69:d6:f6:c0:0a:58:d1:15:64:
                    ea:c7:3e:90:ca:53:e6:3b:0d:e0:95:4d:90:fa:5b:
                    6d:db:f2:87:01:9f:dc:1d:70:04:6a:8d:1f:d9:69:
                    7a:c5:6d:07:be:97:89:cd:39:89:07:3c:af:22:39:
                    ae:d4:d8:7f:60:cc:66:17:70:88:a7:b0:75:3d:9b:
                    fb:da:d9:1a:8f:5d:e7:b8:2f:65:f2:4c:e5:eb:02:
                    ee:09:4f:51:7a:85:43:65:9b:75:ce:ce:e9:c2:c6:
                    3b:76:35:38:6c:69:42:bc:59:a6:43:e2:ed:b5:54:
                    44:f2:e4:30:27:be:93:55:e9:8e:46:da:44:87:5d:
                    74:2e:35:41:5d:71:57:95:d5:b7:77:0f:e4:2b:ff:
                    17:6c:1e:71:76:b7:88:91:1d:0b:c6:3f:cf:df:fe:
                    c2:d5:3f:8c:2c:b1:96:04:5f:a3:3a:9a:53:dd:3f:
                    c0:f6:15:10:a1:1f:00:6e:01:15:24:bd:1a:a4:76:
                    26:4f:12:5d:2b:77:86:be:6e:69:9a:fe:c5:d8:b3:
                    db:1f:4b:9f:1a:89:f0:17:f2:46:00:25:65:b6:af:
                    6e:94:b0:cb:3b:96:43:b6:03:b6:8a:c4:87:ac:ed:
                    b9:c7:06:d8:72:d7:10:79:6b:c5:8f:af:e2:81:f5:
                    77:f2:a4:f9:27:08:53:8b:c8:bf:31:2b:7e:28:26:
                    8b:0c:35:04:d8:64:ee:9d:47:1c:29:b5:0c:17:16:
                    ac:c2:21:d5:42:2e:6f:b2:a6:b6:62:ac:9f:2c:a3:
                    96:61:3f:99:28:03:f2:4e:01:29:95:eb:8f:71:0f:
                    eb:d0:d4:9c:81:4d:82:15:97:ee:2a:28:3e:96:cc:
                    29:fd:90:e5:7e:70:27:c2:75:2c:e5:c9:c2:11:12:
                    bb:f7:6f:f9:78:4b:62:e7:08:c3:67:cc:e7:d6:c3:
                    e9:49:e8:cb:2a:0a:5d:e3:ea:7d:bc:07:90:0e:78:
                    3c:bd:b1:54:96:7b:1d:7d:53:2e:d3:2c:1d:63:61:
                    f1:a3:f1:4e:d1:4d:6e:bc:25:e2:dd:9c:a9:d7:ba:
                    fa:12:6f:d3:34:be:98:a8:70:39:d2:e9:5d:01:de:
                    49:e6:61:52:e3:9e:e6:af:45:5b:f9:b8:35:f5:d2:
                    40:62:73:6b:2a:35:55:a2:c9:36:17:8f:0b:bb:22:
                    86:f5:e3
                Exponent: 65537 (0x10001)
        X509v3 extensions:
            X509v3 Basic Constraints: 
                CA:FALSE
            Netscape Comment: 
                Easy-RSA Generated Certificate
            X509v3 Subject Key Identifier: 
                5E:F8:D9:F6:43:85:FC:73:21:80:AC:9B:2C:DE:9B:A3:94:FB:EA:FC
            X509v3 Authority Key Identifier: 
                keyid:12:CD:60:04:D2:A0:80:9E:70:ED:C6:99:B8:7B:2C:C6:52:FD:19:A1
                DirName:/C=US/ST=OH/L=Columbus/O=VikingVPN/OU=MyOrganizationalUnit/CN=VikingVPN CA/name=EasyRSA/emailAddress=me@myhost.mydomain
                serial:CF:35:85:EE:80:BF:2A:3E

            X509v3 Extended Key Usage: 
                TLS Web Client Authentication
            X509v3 Key Usage: 
                Digital Signature
    Signature Algorithm: md5WithRSAEncryption
         23:d5:2c:bf:52:1b:62:d6:7e:c4:23:90:18:93:e1:5a:31:07:
         0e:62:95:62:06:32:83:40:7b:59:42:99:3c:08:1e:23:6e:91:
         50:13:9c:a6:c5:de:64:ae:59:be:be:50:5d:fe:9f:59:1f:9d:
         f9:9c:bf:9b:8d:a7:da:16:c2:4b:b9:6c:81:bb:0d:0a:09:86:
         db:4d:bb:03:14:34:2c:39:47:9e:7b:80:2a:a9:0f:4b:3b:f8:
         d7:ed:35:5d:c6:75:0e:6b:33:f8:ad:fb:a8:c1:27:e5:0c:f1:
         6b:e0:a7:8c:4e:48:98:ca:fe:35:ba:99:0b:17:b0:a3:1c:65:
         e2:d9:c2:20:c3:15:e0:92:fb:4a:93:f7:65:3e:04:58:98:de:
         82:9d:b1:5f:e1:17:fc:03:f2:1a:25:43:b2:a7:49:fc:81:f5:
         1e:5a:2d:02:85:a9:a1:35:2e:e1:ad:7a:81:f5:58:29:1c:c9:
         7e:c2:f1:58:74:41:5f:58:9a:bb:6c:3c:fa:f9:6e:36:79:c7:
         7c:3d:65:c4:56:cc:8a:27:ce:d2:34:89:c7:47:a9:82:1d:de:
         14:c7:c5:22:95:d7:a1:57:6c:06:48:f3:09:27:6d:6b:22:6f:
         aa:06:85:ae:5f:79:cb:ec:c7:43:99:3f:f7:a2:2a:13:91:b8:
         5f:da:3a:bf:71:2f:b1:7a:00:e9:c7:35:67:c9:62:87:39:a5:
         51:b6:19:ad:fc:ed:65:db:e8:3f:32:59:40:e0:31:b8:3c:6c:
         e1:f9:3e:d1:f2:cf:28:df:04:6d:7b:8f:d3:17:5a:a6:70:df:
         8f:c5:51:49:41:c0:4a:32:ad:ab:ef:da:27:b1:02:b4:81:61:
         1c:ed:cf:8d:fe:b7:6c:50:5c:c9:a7:b0:14:d8:be:6b:a8:3e:
         66:bb:ea:d1:96:ab:b9:35:29:96:15:16:56:2e:d8:bb:65:da:
         b3:e1:87:77:52:95:47:b6:4f:22:5d:d7:a8:69:5e:04:1c:23:
         3b:56:38:5d:0f:cd:40:e5:1f:63:e0:d4:9a:f3:26:60:69:48:
         7e:b3:0b:3e:e7:6f:6b:e1:b3:14:5a:5e:02:52:f1:f2:ce:30:
         f4:40:9f:0a:e7:d5:73:60:c3:bc:5e:8f:af:0b:53:e9:56:1b:
         dd:89:54:ce:0e:15:26:9b:4f:2f:8e:a0:59:b8:12:a0:9f:b0:
         4e:fb:b9:e2:f9:c9:28:f0:82:a4:44:75:2f:3a:5e:51:1e:87:
         aa:fa:79:f0:a6:17:85:7c:cb:0e:11:2a:4b:bd:6f:79:62:da:
         05:c7:89:88:df:60:9a:3a:d3:06:3f:fc:c7:92:de:f6:c9:da:
         3a:57:cf:76:d5:df:54:0d
-----BEGIN CERTIFICATE-----
MIIGrTCCBJWgAwIBAgICHV0wDQYJKoZIhvcNAQEEBQAwgawxCzAJBgNVBAYTAlVT
MQswCQYDVQQIEwJPSDERMA8GA1UEBxMIQ29sdW1idXMxEjAQBgNVBAoTCVZpa2lu
Z1ZQTjEdMBsGA1UECxMUTXlPcmdhbml6YXRpb25hbFVuaXQxFTATBgNVBAMTDFZp
a2luZ1ZQTiBDQTEQMA4GA1UEKRMHRWFzeVJTQTEhMB8GCSqGSIb3DQEJARYSbWVA
bXlob3N0Lm15ZG9tYWluMB4XDTE2MDMxNTA3MDIxMVoXDTI2MDMxMzA3MDIxMVow
HzEdMBsGA1UEAxMUQ2xpZW50MTgwMkNlcnQ1ZmIyY2EwggIiMA0GCSqGSIb3DQEB
AQUAA4ICDwAwggIKAoICAQDaxikN/WJXaqnVDCce32fX7RoxV0aj8Ki898KlQpT4
BYFaeY9Vilm04S7niRMyiQVrDjFrLovQtUaa99GyypvRBWnW9sAKWNEVZOrHPpDK
U+Y7DeCVTZD6W23b8ocBn9wdcARqjR/ZaXrFbQe+l4nNOYkHPK8iOa7U2H9gzGYX
cIinsHU9m/va2RqPXee4L2XyTOXrAu4JT1F6hUNlm3XOzunCxjt2NThsaUK8WaZD
4u21VETy5DAnvpNV6Y5G2kSHXXQuNUFdcVeV1bd3D+Qr/xdsHnF2t4iRHQvGP8/f
/sLVP4wssZYEX6M6mlPdP8D2FRChHwBuARUkvRqkdiZPEl0rd4a+bmma/sXYs9sf
S58aifAX8kYAJWW2r26UsMs7lkO2A7aKxIes7bnHBthy1xB5a8WPr+KB9XfypPkn
CFOLyL8xK34oJosMNQTYZO6dRxwptQwXFqzCIdVCLm+yprZirJ8so5ZhP5koA/JO
ASmV649xD+vQ1JyBTYIVl+4qKD6WzCn9kOV+cCfCdSzlycIRErv3b/l4S2LnCMNn
zOfWw+lJ6MsqCl3j6n28B5AOeDy9sVSWex19Uy7TLB1jYfGj8U7RTW68JeLdnKnX
uvoSb9M0vpiocDnS6V0B3knmYVLjnuavRVv5uDX10kBic2sqNVWiyTYXjwu7Iob1
4wIDAQABo4IBYzCCAV8wCQYDVR0TBAIwADAtBglghkgBhvhCAQ0EIBYeRWFzeS1S
U0EgR2VuZXJhdGVkIENlcnRpZmljYXRlMB0GA1UdDgQWBBRe+Nn2Q4X8cyGArJss
3pujlPvq/DCB4QYDVR0jBIHZMIHWgBQSzWAE0qCAnnDtxpm4eyzGUv0ZoaGBsqSB
rzCBrDELMAkGA1UEBhMCVVMxCzAJBgNVBAgTAk9IMREwDwYDVQQHEwhDb2x1bWJ1
czESMBAGA1UEChMJVmlraW5nVlBOMR0wGwYDVQQLExRNeU9yZ2FuaXphdGlvbmFs
VW5pdDEVMBMGA1UEAxMMVmlraW5nVlBOIENBMRAwDgYDVQQpEwdFYXN5UlNBMSEw
HwYJKoZIhvcNAQkBFhJtZUBteWhvc3QubXlkb21haW6CCQDPNYXugL8qPjATBgNV
HSUEDDAKBggrBgEFBQcDAjALBgNVHQ8EBAMCB4AwDQYJKoZIhvcNAQEEBQADggIB
ACPVLL9SG2LWfsQjkBiT4VoxBw5ilWIGMoNAe1lCmTwIHiNukVATnKbF3mSuWb6+
UF3+n1kfnfmcv5uNp9oWwku5bIG7DQoJhttNuwMUNCw5R557gCqpD0s7+NftNV3G
dQ5rM/it+6jBJ+UM8Wvgp4xOSJjK/jW6mQsXsKMcZeLZwiDDFeCS+0qT92U+BFiY
3oKdsV/hF/wD8holQ7KnSfyB9R5aLQKFqaE1LuGteoH1WCkcyX7C8Vh0QV9Ymrts
PPr5bjZ5x3w9ZcRWzIonztI0icdHqYId3hTHxSKV16FXbAZI8wknbWsib6oGha5f
ecvsx0OZP/eiKhORuF/aOr9xL7F6AOnHNWfJYoc5pVG2Ga387WXb6D8yWUDgMbg8
bOH5PtHyzyjfBG17j9MXWqZw34/FUUlBwEoyravv2iexArSBYRztz43+t2xQXMmn
sBTYvmuoPma76tGWq7k1KZYVFlYu2Ltl2rPhh3dSlUe2TyJd16hpXgQcIztWOF0P
zUDlH2Pg1JrzJmBpSH6zCz7nb2vhsxRaXgJS8fLOMPRAnwrn1XNgw7xej68LU+lW
G92JVM4OFSabTy+OoFm4EqCfsE77ueL5ySjwgqREdS86XlEeh6r6efCmF4V8yw4R
Kku9b3li2gXHiYjfYJo60wY//MeS3vbJ2jpXz3bV31QN
-----END CERTIFICATE-----
