Certificate:
    Data:
        Version: 3 (0x2)
        Serial Number: 7520 (0x1d60)
    Signature Algorithm: md5WithRSAEncryption
        Issuer: C=US, ST=OH, L=Columbus, O=VikingVPN, OU=MyOrganizationalUnit, CN=VikingVPN CA/name=EasyRSA/emailAddress=me@myhost.mydomain
        Validity
            Not Before: Mar 16 15:47:25 2016 GMT
            Not After : Mar 14 15:47:25 2026 GMT
        Subject: CN=Client2229Certae4bf6
        Subject Public Key Info:
            Public Key Algorithm: rsaEncryption
                Public-Key: (4096 bit)
                Modulus:
                    00:b4:97:6c:d3:46:1d:53:cf:26:74:55:23:a3:19:
                    e2:12:59:23:17:e6:7c:d5:81:5b:9d:a1:c4:a7:99:
                    7b:06:90:88:b9:1a:40:24:85:40:7e:28:97:47:5d:
                    a9:2c:7f:e9:51:da:ef:09:c5:aa:3b:78:01:a9:fc:
                    bb:2d:d0:06:1f:71:59:c0:07:a1:4d:de:f0:28:93:
                    6f:af:cf:d2:c1:ec:96:32:1f:f1:15:f0:0c:3b:b3:
                    13:d3:db:4f:24:4f:61:09:03:d9:47:18:7f:7d:1e:
                    10:f9:03:47:15:e1:e3:e0:d7:f8:89:f9:62:c8:b7:
                    a5:49:2d:35:a2:6a:2f:07:93:ce:fd:28:9a:fa:c7:
                    54:44:6e:0b:69:d7:05:c0:82:ba:68:26:60:88:fd:
                    44:2a:ce:0b:08:c4:8b:c3:7b:55:30:2b:8f:78:2f:
                    79:37:ad:48:b2:0a:6e:01:fb:9d:fa:39:d7:ba:9f:
                    bb:1f:c3:7f:f6:63:ca:15:48:b9:63:3a:d3:e4:14:
                    f9:b7:72:db:00:ec:d8:bc:c4:fc:bc:8f:3c:ae:1b:
                    ca:c0:50:ea:3d:85:f6:69:2d:16:32:ef:7b:64:66:
                    a7:d1:82:cb:cd:11:59:29:47:0e:2a:74:3c:96:42:
                    73:65:49:e3:30:70:58:24:9c:66:88:13:ed:8f:06:
                    3e:62:d8:cc:c8:6c:0a:4d:25:c1:fc:fc:29:d1:94:
                    09:92:2b:33:72:16:76:03:5d:f7:a0:fb:5b:4e:7a:
                    63:90:a1:a6:7b:48:c3:2b:e5:0a:f2:e8:51:7f:5b:
                    f7:f7:22:d9:6e:d3:f6:97:bc:22:54:b5:51:37:c3:
                    c4:7e:19:14:68:9c:d1:27:61:3d:8a:e3:ac:40:3c:
                    96:fb:10:3d:d1:7c:73:69:0c:c4:62:84:d6:48:26:
                    80:bc:0f:e5:bb:fd:f9:af:e8:22:1e:5f:03:23:f9:
                    d4:19:35:7a:0d:b4:dc:c7:53:2f:a3:c1:43:ca:81:
                    e1:45:1e:ee:25:d4:16:1e:39:c9:05:f3:81:c5:cc:
                    4c:ab:fd:e5:0a:b5:2f:ac:8a:9f:5e:82:f5:5d:cd:
                    d3:22:8e:f6:d7:d8:7e:cb:85:5f:b1:7a:a2:d3:b3:
                    14:7c:71:8a:29:3b:02:32:93:0f:36:a2:02:62:cf:
                    11:0f:8f:cd:b9:60:99:1b:5c:56:23:e2:26:12:cd:
                    6f:f0:90:b1:a9:5a:6e:07:d1:3e:13:fd:ac:38:4c:
                    12:c4:ae:8c:c7:95:d3:53:a1:0c:b0:73:38:b5:64:
                    36:02:6f:eb:bd:9e:ae:52:2e:eb:a8:fe:33:7a:1c:
                    dc:40:c4:97:e0:a2:d4:5a:4c:e7:fe:6f:f8:31:6f:
                    ab:22:85
                Exponent: 65537 (0x10001)
        X509v3 extensions:
            X509v3 Basic Constraints: 
                CA:FALSE
            Netscape Comment: 
                Easy-RSA Generated Certificate
            X509v3 Subject Key Identifier: 
                A7:93:2A:F9:FF:EA:41:08:3F:A8:E1:1A:67:AC:93:62:EF:DF:35:29
            X509v3 Authority Key Identifier: 
                keyid:12:CD:60:04:D2:A0:80:9E:70:ED:C6:99:B8:7B:2C:C6:52:FD:19:A1
                DirName:/C=US/ST=OH/L=Columbus/O=VikingVPN/OU=MyOrganizationalUnit/CN=VikingVPN CA/name=EasyRSA/emailAddress=me@myhost.mydomain
                serial:CF:35:85:EE:80:BF:2A:3E

            X509v3 Extended Key Usage: 
                TLS Web Client Authentication
            X509v3 Key Usage: 
                Digital Signature
    Signature Algorithm: md5WithRSAEncryption
         64:1f:94:a9:07:3f:d6:d9:25:38:ca:f1:e2:ff:03:a7:17:96:
         a4:ec:a3:e3:87:fb:85:8b:84:88:12:bd:d9:59:db:c6:49:76:
         86:ce:b6:b8:5c:14:eb:57:93:31:81:6c:0f:15:43:bd:94:aa:
         44:d6:ab:19:f8:c3:86:86:bc:91:7b:44:55:64:5c:bf:42:c8:
         e4:08:69:c6:d2:ef:62:b2:d6:db:e7:f0:5c:25:79:56:86:ea:
         7c:d6:4a:63:ad:e6:96:a6:6d:0f:e5:ad:dc:28:0b:17:c6:ee:
         d2:55:0d:30:6f:f8:6f:40:f2:27:92:71:1f:26:57:8c:99:5e:
         1a:3a:b0:bc:c5:df:b9:0b:b2:c5:92:b3:74:c3:5a:6b:9a:b2:
         09:37:4c:fa:f8:81:95:54:91:a4:97:1c:df:88:f2:a3:97:84:
         79:0f:7e:1f:fe:48:7d:c5:4b:ec:b3:38:63:48:d4:69:6c:68:
         06:dd:e7:7e:34:c1:f0:4f:b4:93:a7:a1:b1:5d:ef:25:81:38:
         18:8a:84:9f:fa:8f:94:5d:d2:1c:d8:92:c8:22:7a:4f:29:2c:
         5c:36:02:78:08:e8:fd:ce:c0:d4:dd:a7:53:64:a8:a6:00:1b:
         6c:22:ec:a1:3a:30:31:ff:13:4a:9f:08:de:64:b5:26:f5:4e:
         34:e2:85:e2:bf:45:8b:16:df:cc:02:0a:f3:3e:c9:4a:b3:c2:
         83:e0:59:40:fb:01:67:0b:83:bd:e0:86:dc:ff:b8:84:90:9b:
         6d:6e:4d:20:b6:04:e8:8b:0b:5b:f5:42:af:57:05:1b:ff:1d:
         24:08:ee:ac:e3:ed:81:f1:5c:21:0b:0d:22:3b:1a:07:b3:94:
         14:86:26:21:3a:8a:02:1d:05:58:f6:0a:04:61:33:e1:47:2b:
         be:48:8d:2e:ae:f8:54:6a:84:ae:5b:7e:dc:75:d5:e8:b3:7c:
         47:c2:63:2a:61:d2:c9:21:16:0c:04:e4:72:4d:21:b6:0e:f1:
         14:73:39:72:c9:41:b9:44:e2:0d:ea:28:e8:04:84:3e:cd:ed:
         f0:70:33:c6:68:0e:ea:2e:90:7e:08:36:68:86:bd:bf:e8:e9:
         e2:a4:57:29:07:8d:e4:c4:4c:67:cd:b9:84:0e:8e:4d:9b:d9:
         09:1b:78:ef:96:b6:ec:ea:6b:d8:12:8e:48:6d:25:07:0e:a6:
         d1:c5:de:23:d4:ba:f0:0a:88:d8:71:c9:6e:e5:ca:12:88:e5:
         c8:20:52:ce:67:71:d1:5f:c6:b1:2d:a5:f2:22:84:5b:f4:77:
         a4:ca:a1:98:ae:f6:ca:e6:1f:4d:f6:03:69:96:00:0d:74:d0:
         ba:5c:29:0c:9d:d4:7d:35
-----BEGIN CERTIFICATE-----
MIIGrTCCBJWgAwIBAgICHWAwDQYJKoZIhvcNAQEEBQAwgawxCzAJBgNVBAYTAlVT
MQswCQYDVQQIEwJPSDERMA8GA1UEBxMIQ29sdW1idXMxEjAQBgNVBAoTCVZpa2lu
Z1ZQTjEdMBsGA1UECxMUTXlPcmdhbml6YXRpb25hbFVuaXQxFTATBgNVBAMTDFZp
a2luZ1ZQTiBDQTEQMA4GA1UEKRMHRWFzeVJTQTEhMB8GCSqGSIb3DQEJARYSbWVA
bXlob3N0Lm15ZG9tYWluMB4XDTE2MDMxNjE1NDcyNVoXDTI2MDMxNDE1NDcyNVow
HzEdMBsGA1UEAxMUQ2xpZW50MjIyOUNlcnRhZTRiZjYwggIiMA0GCSqGSIb3DQEB
AQUAA4ICDwAwggIKAoICAQC0l2zTRh1TzyZ0VSOjGeISWSMX5nzVgVudocSnmXsG
kIi5GkAkhUB+KJdHXaksf+lR2u8Jxao7eAGp/Lst0AYfcVnAB6FN3vAok2+vz9LB
7JYyH/EV8Aw7sxPT208kT2EJA9lHGH99HhD5A0cV4ePg1/iJ+WLIt6VJLTWiai8H
k879KJr6x1REbgtp1wXAgrpoJmCI/UQqzgsIxIvDe1UwK494L3k3rUiyCm4B+536
Ode6n7sfw3/2Y8oVSLljOtPkFPm3ctsA7Ni8xPy8jzyuG8rAUOo9hfZpLRYy73tk
ZqfRgsvNEVkpRw4qdDyWQnNlSeMwcFgknGaIE+2PBj5i2MzIbApNJcH8/CnRlAmS
KzNyFnYDXfeg+1tOemOQoaZ7SMMr5Qry6FF/W/f3Itlu0/aXvCJUtVE3w8R+GRRo
nNEnYT2K46xAPJb7ED3RfHNpDMRihNZIJoC8D+W7/fmv6CIeXwMj+dQZNXoNtNzH
Uy+jwUPKgeFFHu4l1BYeOckF84HFzEyr/eUKtS+sip9egvVdzdMijvbX2H7LhV+x
eqLTsxR8cYopOwIykw82ogJizxEPj825YJkbXFYj4iYSzW/wkLGpWm4H0T4T/aw4
TBLErozHldNToQywczi1ZDYCb+u9nq5SLuuo/jN6HNxAxJfgotRaTOf+b/gxb6si
hQIDAQABo4IBYzCCAV8wCQYDVR0TBAIwADAtBglghkgBhvhCAQ0EIBYeRWFzeS1S
U0EgR2VuZXJhdGVkIENlcnRpZmljYXRlMB0GA1UdDgQWBBSnkyr5/+pBCD+o4Rpn
rJNi7981KTCB4QYDVR0jBIHZMIHWgBQSzWAE0qCAnnDtxpm4eyzGUv0ZoaGBsqSB
rzCBrDELMAkGA1UEBhMCVVMxCzAJBgNVBAgTAk9IMREwDwYDVQQHEwhDb2x1bWJ1
czESMBAGA1UEChMJVmlraW5nVlBOMR0wGwYDVQQLExRNeU9yZ2FuaXphdGlvbmFs
VW5pdDEVMBMGA1UEAxMMVmlraW5nVlBOIENBMRAwDgYDVQQpEwdFYXN5UlNBMSEw
HwYJKoZIhvcNAQkBFhJtZUBteWhvc3QubXlkb21haW6CCQDPNYXugL8qPjATBgNV
HSUEDDAKBggrBgEFBQcDAjALBgNVHQ8EBAMCB4AwDQYJKoZIhvcNAQEEBQADggIB
AGQflKkHP9bZJTjK8eL/A6cXlqTso+OH+4WLhIgSvdlZ28ZJdobOtrhcFOtXkzGB
bA8VQ72UqkTWqxn4w4aGvJF7RFVkXL9CyOQIacbS72Ky1tvn8FwleVaG6nzWSmOt
5pambQ/lrdwoCxfG7tJVDTBv+G9A8ieScR8mV4yZXho6sLzF37kLssWSs3TDWmua
sgk3TPr4gZVUkaSXHN+I8qOXhHkPfh/+SH3FS+yzOGNI1GlsaAbd5340wfBPtJOn
obFd7yWBOBiKhJ/6j5Rd0hzYksgiek8pLFw2AngI6P3OwNTdp1NkqKYAG2wi7KE6
MDH/E0qfCN5ktSb1TjTiheK/RYsW38wCCvM+yUqzwoPgWUD7AWcLg73ghtz/uISQ
m21uTSC2BOiLC1v1Qq9XBRv/HSQI7qzj7YHxXCELDSI7GgezlBSGJiE6igIdBVj2
CgRhM+FHK75IjS6u+FRqhK5bftx11eizfEfCYyph0skhFgwE5HJNIbYO8RRzOXLJ
QblE4g3qKOgEhD7N7fBwM8ZoDuoukH4INmiGvb/o6eKkVykHjeTETGfNuYQOjk2b
2QkbeO+Wtuzqa9gSjkhtJQcOptHF3iPUuvAKiNhxyW7lyhKI5cggUs5ncdFfxrEt
pfIihFv0d6TKoZiu9srmH032A2mWAA100LpcKQyd1H01
-----END CERTIFICATE-----
