Certificate:
    Data:
        Version: 3 (0x2)
        Serial Number: 7546 (0x1d7a)
    Signature Algorithm: md5WithRSAEncryption
        Issuer: C=US, ST=OH, L=Columbus, O=VikingVPN, OU=MyOrganizationalUnit, CN=VikingVPN CA/name=EasyRSA/emailAddress=me@myhost.mydomain
        Validity
            Not Before: Mar 18 03:55:06 2016 GMT
            Not After : Mar 16 03:55:06 2026 GMT
        Subject: CN=Client2049Certee8f4c
        Subject Public Key Info:
            Public Key Algorithm: rsaEncryption
                Public-Key: (4096 bit)
                Modulus:
                    00:e8:f0:9e:23:22:d5:26:b1:ad:6c:3f:74:06:e5:
                    db:97:b9:3e:75:a8:50:43:39:d0:45:28:7a:2d:b0:
                    40:06:5c:b3:ec:c7:ef:e4:9a:7f:f5:00:83:59:a2:
                    14:a8:30:1f:1c:60:b9:c2:e7:f8:ef:9a:32:f2:5c:
                    24:fb:ae:c0:22:3f:ab:a8:93:5b:00:4e:7f:90:9d:
                    be:3e:13:bf:c8:10:50:93:71:a6:e0:e0:1d:98:9e:
                    3f:c7:37:d8:fd:bb:9c:f6:bc:01:da:aa:e2:43:09:
                    83:a3:bf:d4:6b:9e:fb:b5:19:84:48:84:55:45:4d:
                    26:c2:5b:43:30:38:8c:0f:54:69:dd:2e:2c:12:38:
                    b2:a0:3b:48:82:57:f9:ae:e8:5c:47:89:82:94:27:
                    36:60:3c:75:d4:65:6e:ce:d5:bf:54:b0:e8:d5:95:
                    7f:8f:ca:ba:82:1d:bc:61:ae:f7:f6:af:28:6a:c9:
                    30:b2:db:8e:b7:b3:f9:c2:a9:ba:ff:04:4d:3c:68:
                    d3:42:27:57:90:10:a3:38:ca:54:9d:d7:f4:ca:d6:
                    d6:0f:01:42:68:98:97:f6:04:a9:7c:8a:95:38:a9:
                    9d:ab:7a:60:b5:f3:4a:6b:2e:7f:75:95:02:5e:0f:
                    dc:78:da:45:f9:a7:c4:f5:bd:4e:3a:45:1c:2e:8f:
                    93:12:83:03:70:8d:63:26:9f:12:90:c9:95:2d:03:
                    f9:f1:d1:ee:e9:3b:4a:b0:d5:f1:9c:cb:11:ba:85:
                    d6:75:75:97:7e:a0:c6:91:64:a7:61:cb:11:38:3c:
                    8e:ee:c4:a5:54:14:ce:ff:4e:48:f0:cc:58:eb:45:
                    89:7c:b6:66:91:be:ef:92:23:1c:a1:9b:f0:2a:57:
                    b3:5d:56:e2:be:34:0d:4a:4f:44:64:2e:e6:01:a1:
                    ac:b2:ac:8c:ca:67:95:93:6c:0b:f4:dc:7c:db:05:
                    aa:12:d4:ae:a9:f6:8e:b4:48:59:78:c0:85:40:b1:
                    0c:28:14:59:36:77:f6:5e:68:e4:96:f4:ca:69:84:
                    ac:3b:a3:b7:0b:4e:6a:d0:35:01:b6:ec:a8:8a:90:
                    1e:d4:c9:dd:20:36:24:7d:c3:1d:34:12:ad:e7:ed:
                    d0:6a:63:7a:75:47:2d:48:1c:98:5f:ce:cc:2c:cc:
                    fe:f2:a1:06:f9:c4:dc:80:f7:da:f0:be:c8:64:f5:
                    96:fc:4d:55:8f:b8:c3:a4:fa:7f:0d:c1:30:95:8f:
                    c2:bd:19:b5:ac:04:e6:ac:24:d7:fd:65:c4:8b:1a:
                    66:97:b0:4d:d1:99:f7:ea:14:1f:56:cd:8f:b3:29:
                    20:8a:60:8d:29:45:a1:01:0e:74:d4:62:4b:58:c4:
                    13:b0:77
                Exponent: 65537 (0x10001)
        X509v3 extensions:
            X509v3 Basic Constraints: 
                CA:FALSE
            Netscape Comment: 
                Easy-RSA Generated Certificate
            X509v3 Subject Key Identifier: 
                70:F9:A1:AF:8B:86:EB:BD:E2:7A:4D:C6:50:6C:8B:E1:6D:E2:56:40
            X509v3 Authority Key Identifier: 
                keyid:12:CD:60:04:D2:A0:80:9E:70:ED:C6:99:B8:7B:2C:C6:52:FD:19:A1
                DirName:/C=US/ST=OH/L=Columbus/O=VikingVPN/OU=MyOrganizationalUnit/CN=VikingVPN CA/name=EasyRSA/emailAddress=me@myhost.mydomain
                serial:CF:35:85:EE:80:BF:2A:3E

            X509v3 Extended Key Usage: 
                TLS Web Client Authentication
            X509v3 Key Usage: 
                Digital Signature
    Signature Algorithm: md5WithRSAEncryption
         34:1a:54:9b:d8:db:8a:53:bc:40:5e:27:e3:39:f5:3f:08:e9:
         18:32:85:2e:32:c3:50:63:ce:ec:9d:a2:bc:10:4c:ef:08:03:
         49:54:9e:34:95:6e:d2:ad:c5:e0:16:20:1d:9c:b2:88:12:4a:
         f9:5e:ef:be:ab:cc:d9:5e:09:c9:aa:7f:6e:1c:64:ad:cb:cc:
         74:15:e1:7c:49:72:42:bd:6a:e9:a1:f3:f4:0d:44:c7:52:cd:
         e2:a8:78:9f:b0:3b:86:97:fe:8f:d6:dc:3e:5b:2c:e6:45:f5:
         cb:d5:4f:3b:14:e9:b5:30:ff:23:b7:70:ba:d1:bc:fe:e0:0b:
         c9:aa:93:a8:f6:9a:f9:55:2f:1d:49:f6:5f:7b:a9:22:28:e9:
         31:07:58:d8:62:2b:73:3b:4d:74:b7:e5:fe:fd:74:32:eb:f7:
         fe:b6:eb:a8:56:ad:24:a9:bd:75:4d:85:d2:6c:b2:3a:80:9d:
         bf:d8:71:e1:24:7b:fd:2e:62:05:f9:74:76:8e:29:c6:d9:78:
         c5:48:1a:37:5d:de:7e:08:7b:45:eb:81:b5:47:1b:53:18:c3:
         74:9e:79:77:85:28:18:25:90:0d:d9:ee:24:a9:9f:a2:07:6e:
         30:66:7c:b2:22:6b:7f:65:14:dc:b4:7d:45:51:03:c8:d0:63:
         0f:5a:ad:a5:d4:2a:b2:08:51:20:14:f1:d4:0e:ce:7e:92:95:
         49:d6:89:4c:74:21:c2:97:95:d4:13:9c:7e:3b:b1:9c:51:08:
         46:d8:27:1a:ea:7e:1a:ba:1c:38:77:05:09:31:d8:ae:e5:56:
         61:d4:a5:b1:d4:60:64:23:21:f1:82:84:11:6e:26:29:0d:ed:
         f9:fa:23:70:9b:6a:5b:84:47:70:bc:60:c1:f1:f6:5f:dc:c0:
         41:eb:c1:00:73:43:90:96:a5:35:21:58:f7:9e:ac:30:16:9c:
         ae:4b:6e:3d:ab:2c:a2:00:ba:32:cc:d5:8a:cb:cf:33:cc:10:
         cf:71:d2:95:ad:02:07:0d:18:a3:62:a1:62:1b:f1:c3:63:c4:
         5f:4c:0a:09:dd:4f:f2:86:5c:a8:d6:68:0e:d4:96:b0:b4:e0:
         54:6a:96:f4:fc:6b:41:ff:74:37:bf:86:9e:8d:d0:04:e6:25:
         12:85:1e:54:e6:35:fd:d5:18:63:13:31:a9:32:ca:35:91:9d:
         9d:75:d3:26:1d:b5:ff:ed:fd:45:0b:6b:00:b5:08:de:9f:5b:
         60:34:26:43:48:5a:1a:68:24:04:02:74:39:42:50:af:02:cb:
         46:87:6a:08:66:df:19:79:9f:4b:f1:2a:bc:38:07:de:fa:25:
         a4:67:8d:b3:97:6c:20:a1
-----BEGIN CERTIFICATE-----
MIIGrTCCBJWgAwIBAgICHXowDQYJKoZIhvcNAQEEBQAwgawxCzAJBgNVBAYTAlVT
MQswCQYDVQQIEwJPSDERMA8GA1UEBxMIQ29sdW1idXMxEjAQBgNVBAoTCVZpa2lu
Z1ZQTjEdMBsGA1UECxMUTXlPcmdhbml6YXRpb25hbFVuaXQxFTATBgNVBAMTDFZp
a2luZ1ZQTiBDQTEQMA4GA1UEKRMHRWFzeVJTQTEhMB8GCSqGSIb3DQEJARYSbWVA
bXlob3N0Lm15ZG9tYWluMB4XDTE2MDMxODAzNTUwNloXDTI2MDMxNjAzNTUwNlow
HzEdMBsGA1UEAxMUQ2xpZW50MjA0OUNlcnRlZThmNGMwggIiMA0GCSqGSIb3DQEB
AQUAA4ICDwAwggIKAoICAQDo8J4jItUmsa1sP3QG5duXuT51qFBDOdBFKHotsEAG
XLPsx+/kmn/1AINZohSoMB8cYLnC5/jvmjLyXCT7rsAiP6uok1sATn+Qnb4+E7/I
EFCTcabg4B2Ynj/HN9j9u5z2vAHaquJDCYOjv9Rrnvu1GYRIhFVFTSbCW0MwOIwP
VGndLiwSOLKgO0iCV/mu6FxHiYKUJzZgPHXUZW7O1b9UsOjVlX+PyrqCHbxhrvf2
ryhqyTCy2463s/nCqbr/BE08aNNCJ1eQEKM4ylSd1/TK1tYPAUJomJf2BKl8ipU4
qZ2remC180prLn91lQJeD9x42kX5p8T1vU46RRwuj5MSgwNwjWMmnxKQyZUtA/nx
0e7pO0qw1fGcyxG6hdZ1dZd+oMaRZKdhyxE4PI7uxKVUFM7/TkjwzFjrRYl8tmaR
vu+SIxyhm/AqV7NdVuK+NA1KT0RkLuYBoayyrIzKZ5WTbAv03HzbBaoS1K6p9o60
SFl4wIVAsQwoFFk2d/ZeaOSW9MpphKw7o7cLTmrQNQG27KiKkB7Uyd0gNiR9wx00
Eq3n7dBqY3p1Ry1IHJhfzswszP7yoQb5xNyA99rwvshk9Zb8TVWPuMOk+n8NwTCV
j8K9GbWsBOasJNf9ZcSLGmaXsE3RmffqFB9WzY+zKSCKYI0pRaEBDnTUYktYxBOw
dwIDAQABo4IBYzCCAV8wCQYDVR0TBAIwADAtBglghkgBhvhCAQ0EIBYeRWFzeS1S
U0EgR2VuZXJhdGVkIENlcnRpZmljYXRlMB0GA1UdDgQWBBRw+aGvi4brveJ6TcZQ
bIvhbeJWQDCB4QYDVR0jBIHZMIHWgBQSzWAE0qCAnnDtxpm4eyzGUv0ZoaGBsqSB
rzCBrDELMAkGA1UEBhMCVVMxCzAJBgNVBAgTAk9IMREwDwYDVQQHEwhDb2x1bWJ1
czESMBAGA1UEChMJVmlraW5nVlBOMR0wGwYDVQQLExRNeU9yZ2FuaXphdGlvbmFs
VW5pdDEVMBMGA1UEAxMMVmlraW5nVlBOIENBMRAwDgYDVQQpEwdFYXN5UlNBMSEw
HwYJKoZIhvcNAQkBFhJtZUBteWhvc3QubXlkb21haW6CCQDPNYXugL8qPjATBgNV
HSUEDDAKBggrBgEFBQcDAjALBgNVHQ8EBAMCB4AwDQYJKoZIhvcNAQEEBQADggIB
ADQaVJvY24pTvEBeJ+M59T8I6RgyhS4yw1BjzuydorwQTO8IA0lUnjSVbtKtxeAW
IB2csogSSvle776rzNleCcmqf24cZK3LzHQV4XxJckK9aumh8/QNRMdSzeKoeJ+w
O4aX/o/W3D5bLOZF9cvVTzsU6bUw/yO3cLrRvP7gC8mqk6j2mvlVLx1J9l97qSIo
6TEHWNhiK3M7TXS35f79dDLr9/6266hWrSSpvXVNhdJssjqAnb/YceEke/0uYgX5
dHaOKcbZeMVIGjdd3n4Ie0XrgbVHG1MYw3SeeXeFKBglkA3Z7iSpn6IHbjBmfLIi
a39lFNy0fUVRA8jQYw9araXUKrIIUSAU8dQOzn6SlUnWiUx0IcKXldQTnH47sZxR
CEbYJxrqfhq6HDh3BQkx2K7lVmHUpbHUYGQjIfGChBFuJikN7fn6I3CbaluER3C8
YMHx9l/cwEHrwQBzQ5CWpTUhWPeerDAWnK5Lbj2rLKIAujLM1YrLzzPMEM9x0pWt
AgcNGKNioWIb8cNjxF9MCgndT/KGXKjWaA7UlrC04FRqlvT8a0H/dDe/hp6N0ATm
JRKFHlTmNf3VGGMTMakyyjWRnZ110yYdtf/t/UULawC1CN6fW2A0JkNIWhpoJAQC
dDlCUK8Cy0aHaghm3xl5n0vxKrw4B976JaRnjbOXbCCh
-----END CERTIFICATE-----
