Certificate:
    Data:
        Version: 3 (0x2)
        Serial Number: 7572 (0x1d94)
    Signature Algorithm: md5WithRSAEncryption
        Issuer: C=US, ST=OH, L=Columbus, O=VikingVPN, OU=MyOrganizationalUnit, CN=VikingVPN CA/name=EasyRSA/emailAddress=me@myhost.mydomain
        Validity
            Not Before: Mar 20 18:13:19 2016 GMT
            Not After : Mar 18 18:13:19 2026 GMT
        Subject: CN=Client712Cert42a989
        Subject Public Key Info:
            Public Key Algorithm: rsaEncryption
                Public-Key: (4096 bit)
                Modulus:
                    00:b2:06:0f:13:b1:c4:53:dc:ff:8b:25:98:cf:78:
                    37:62:1d:ac:48:c1:46:f1:3a:82:6c:f9:da:ae:93:
                    8c:a8:86:0e:d9:87:6d:90:9f:70:54:be:78:67:64:
                    c6:a6:9d:53:91:03:0b:1a:ee:2f:dc:30:f5:cd:b6:
                    c0:3b:e1:e3:48:9a:7a:6d:b8:ff:54:b9:fd:d3:9a:
                    d8:0c:9b:3a:d9:cf:38:4b:c4:7c:a4:b2:ff:37:f1:
                    96:4a:91:90:40:cb:78:6f:c1:bf:29:dc:82:15:7f:
                    13:3e:20:b4:ee:d4:08:2a:99:00:7a:80:93:f5:e8:
                    08:54:9e:e8:99:21:aa:aa:d1:98:01:b8:bd:a5:16:
                    53:85:79:23:ec:7f:41:9c:4a:21:4c:ec:9d:4a:50:
                    ba:5f:1a:a4:3d:6a:93:d7:66:5d:90:bf:ae:2e:9c:
                    8e:58:ba:4e:26:2f:be:7c:81:6b:a5:80:22:e6:b7:
                    af:8d:f9:a5:72:21:7c:2f:02:3a:56:a7:55:af:df:
                    c0:45:ba:d2:ba:86:21:99:73:2d:50:bf:4e:6e:49:
                    c4:69:38:c7:bc:81:87:3a:af:b1:48:8c:2e:a3:cd:
                    d9:99:4d:2b:f4:45:7c:ca:e6:48:89:5a:76:1d:1a:
                    ba:cc:43:d4:7b:f2:87:5b:14:b3:2b:e9:a2:fa:95:
                    67:ad:99:0b:4b:43:44:94:ed:62:94:ef:94:7a:39:
                    0f:bd:29:9b:51:e4:28:e7:e7:78:b6:a4:86:e7:b9:
                    44:13:58:4d:d5:d3:50:d9:5f:e5:1a:5a:7b:b5:d0:
                    84:68:f8:7e:18:cc:31:cd:2c:cc:96:04:f8:4c:3c:
                    3e:2a:b2:8c:76:75:32:51:13:60:0a:a0:81:b1:35:
                    47:94:55:ac:97:d4:8f:b1:77:41:aa:13:74:b7:e8:
                    92:68:18:a5:4b:66:3c:43:b3:d9:f2:d0:b3:76:73:
                    27:98:48:31:25:93:24:23:cc:ee:5c:59:b8:95:f3:
                    5e:5e:7f:23:7e:80:96:92:ae:b5:09:ce:d2:2a:ae:
                    b5:01:86:5a:ae:38:b0:0b:9d:32:09:05:02:0d:13:
                    1e:64:84:d8:4e:28:73:6e:b1:d1:ba:9a:a7:53:35:
                    ea:78:ad:3a:04:fa:cd:34:d1:7e:6b:b8:64:a1:d5:
                    90:e3:fd:4c:b9:36:78:4a:56:48:56:15:21:e9:b2:
                    3c:6d:37:b1:d6:38:bc:39:e4:27:43:10:0d:43:43:
                    bd:d1:9a:ca:3d:51:f6:7d:7b:5d:70:79:17:30:b5:
                    84:c8:c4:d3:25:cf:ad:2d:2b:a1:a3:86:1b:2e:73:
                    cf:7c:cc:67:66:17:7c:07:57:e5:71:ca:48:c9:8c:
                    03:f8:7d
                Exponent: 65537 (0x10001)
        X509v3 extensions:
            X509v3 Basic Constraints: 
                CA:FALSE
            Netscape Comment: 
                Easy-RSA Generated Certificate
            X509v3 Subject Key Identifier: 
                0F:8E:87:80:75:72:15:8D:C1:DC:F0:5B:0F:59:F2:C3:8E:E6:3F:34
            X509v3 Authority Key Identifier: 
                keyid:12:CD:60:04:D2:A0:80:9E:70:ED:C6:99:B8:7B:2C:C6:52:FD:19:A1
                DirName:/C=US/ST=OH/L=Columbus/O=VikingVPN/OU=MyOrganizationalUnit/CN=VikingVPN CA/name=EasyRSA/emailAddress=me@myhost.mydomain
                serial:CF:35:85:EE:80:BF:2A:3E

            X509v3 Extended Key Usage: 
                TLS Web Client Authentication
            X509v3 Key Usage: 
                Digital Signature
    Signature Algorithm: md5WithRSAEncryption
         d6:58:3e:cc:aa:ff:70:4d:54:f8:5c:db:48:75:ae:71:51:17:
         0c:39:f5:53:15:55:88:07:c1:40:7e:29:16:fc:31:a0:92:68:
         ee:6e:d7:62:2c:e4:47:90:e8:04:b0:6b:b4:67:0d:bb:2b:12:
         fb:dc:ed:6c:49:35:44:b8:65:45:d8:60:1a:80:66:1b:e3:e2:
         df:3c:00:8f:ee:a9:a0:ee:53:b1:7c:99:d9:b8:60:c1:7a:c7:
         31:e8:b7:44:38:8c:60:ce:2c:5e:4c:e5:75:9b:1a:7c:1d:0b:
         c9:62:6c:e6:6d:51:59:c1:f2:1d:c3:b9:e3:8b:df:87:2c:fb:
         5a:66:cc:b2:d7:41:58:d9:85:82:9f:ce:08:ab:d4:a1:a2:6c:
         e6:6a:1b:d3:fb:d8:80:a2:96:b0:7a:29:e1:b6:12:ae:38:75:
         d8:c6:f3:fd:d0:8b:22:a0:78:f2:56:42:ba:42:bd:bf:b4:e2:
         2b:94:08:e9:1e:6e:84:9e:0a:de:3e:29:a7:d5:53:f1:17:10:
         94:b3:58:3a:c2:3e:3b:ea:c9:25:bd:71:2a:c4:55:cc:d3:3c:
         ea:e9:87:cf:58:6f:6f:a6:dd:c5:df:0c:6e:89:39:de:76:e1:
         52:dd:3b:90:28:78:37:99:ee:81:74:12:ca:85:35:9a:02:a5:
         a9:57:c6:9e:6b:98:2a:86:7f:0b:44:e0:d2:63:02:b5:45:b1:
         22:08:08:fa:c2:f2:a0:69:0e:9d:a8:56:08:8c:1e:ac:c8:bf:
         cf:cc:8e:51:c7:e0:7d:91:82:ea:dc:80:1b:dd:56:e3:b8:98:
         d1:a5:1d:d8:73:04:51:81:fa:4c:85:92:b3:7d:1d:4c:5a:35:
         79:64:c5:79:1d:d6:64:ba:2b:fd:a5:61:c4:74:00:24:6e:51:
         d9:92:0d:ae:1c:2e:f4:42:53:03:7a:05:41:01:f1:8d:cb:f0:
         77:8b:a9:6f:f7:81:6c:8b:b8:d8:1d:83:f0:c1:36:e0:43:af:
         61:09:19:ff:a7:de:1c:b3:24:e8:b6:b5:a7:b5:d7:a3:c9:17:
         4f:5d:92:ca:19:ff:11:f5:ad:42:b0:01:1b:f1:01:36:28:6a:
         87:ae:34:71:31:bc:3f:c4:78:cb:c5:b1:57:38:b5:aa:3f:b7:
         fe:d0:cf:c8:23:df:04:58:bb:0a:2c:e1:72:b8:e6:fc:ed:0b:
         25:92:cd:59:56:1d:65:19:4a:df:b9:f2:b6:5e:e5:3e:ce:24:
         4d:03:f0:09:07:da:77:bb:35:6d:94:f9:78:f0:c2:3c:e3:a3:
         61:95:44:07:6f:73:4b:eb:2a:e4:8a:da:20:ed:7f:3e:8a:09:
         ba:20:af:a7:8f:90:0d:92
-----BEGIN CERTIFICATE-----
MIIGrDCCBJSgAwIBAgICHZQwDQYJKoZIhvcNAQEEBQAwgawxCzAJBgNVBAYTAlVT
MQswCQYDVQQIEwJPSDERMA8GA1UEBxMIQ29sdW1idXMxEjAQBgNVBAoTCVZpa2lu
Z1ZQTjEdMBsGA1UECxMUTXlPcmdhbml6YXRpb25hbFVuaXQxFTATBgNVBAMTDFZp
a2luZ1ZQTiBDQTEQMA4GA1UEKRMHRWFzeVJTQTEhMB8GCSqGSIb3DQEJARYSbWVA
bXlob3N0Lm15ZG9tYWluMB4XDTE2MDMyMDE4MTMxOVoXDTI2MDMxODE4MTMxOVow
HjEcMBoGA1UEAxMTQ2xpZW50NzEyQ2VydDQyYTk4OTCCAiIwDQYJKoZIhvcNAQEB
BQADggIPADCCAgoCggIBALIGDxOxxFPc/4slmM94N2IdrEjBRvE6gmz52q6TjKiG
DtmHbZCfcFS+eGdkxqadU5EDCxruL9ww9c22wDvh40iaem24/1S5/dOa2AybOtnP
OEvEfKSy/zfxlkqRkEDLeG/BvyncghV/Ez4gtO7UCCqZAHqAk/XoCFSe6JkhqqrR
mAG4vaUWU4V5I+x/QZxKIUzsnUpQul8apD1qk9dmXZC/ri6cjli6TiYvvnyBa6WA
Iua3r435pXIhfC8COlanVa/fwEW60rqGIZlzLVC/Tm5JxGk4x7yBhzqvsUiMLqPN
2ZlNK/RFfMrmSIladh0ausxD1Hvyh1sUsyvpovqVZ62ZC0tDRJTtYpTvlHo5D70p
m1HkKOfneLakhue5RBNYTdXTUNlf5Rpae7XQhGj4fhjMMc0szJYE+Ew8PiqyjHZ1
MlETYAqggbE1R5RVrJfUj7F3QaoTdLfokmgYpUtmPEOz2fLQs3ZzJ5hIMSWTJCPM
7lxZuJXzXl5/I36AlpKutQnO0iqutQGGWq44sAudMgkFAg0THmSE2E4oc26x0bqa
p1M16nitOgT6zTTRfmu4ZKHVkOP9TLk2eEpWSFYVIemyPG03sdY4vDnkJ0MQDUND
vdGayj1R9n17XXB5FzC1hMjE0yXPrS0roaOGGy5zz3zMZ2YXfAdX5XHKSMmMA/h9
AgMBAAGjggFjMIIBXzAJBgNVHRMEAjAAMC0GCWCGSAGG+EIBDQQgFh5FYXN5LVJT
QSBHZW5lcmF0ZWQgQ2VydGlmaWNhdGUwHQYDVR0OBBYEFA+Oh4B1chWNwdzwWw9Z
8sOO5j80MIHhBgNVHSMEgdkwgdaAFBLNYATSoICecO3Gmbh7LMZS/RmhoYGypIGv
MIGsMQswCQYDVQQGEwJVUzELMAkGA1UECBMCT0gxETAPBgNVBAcTCENvbHVtYnVz
MRIwEAYDVQQKEwlWaWtpbmdWUE4xHTAbBgNVBAsTFE15T3JnYW5pemF0aW9uYWxV
bml0MRUwEwYDVQQDEwxWaWtpbmdWUE4gQ0ExEDAOBgNVBCkTB0Vhc3lSU0ExITAf
BgkqhkiG9w0BCQEWEm1lQG15aG9zdC5teWRvbWFpboIJAM81he6Avyo+MBMGA1Ud
JQQMMAoGCCsGAQUFBwMCMAsGA1UdDwQEAwIHgDANBgkqhkiG9w0BAQQFAAOCAgEA
1lg+zKr/cE1U+FzbSHWucVEXDDn1UxVViAfBQH4pFvwxoJJo7m7XYizkR5DoBLBr
tGcNuysS+9ztbEk1RLhlRdhgGoBmG+Pi3zwAj+6poO5TsXyZ2bhgwXrHMei3RDiM
YM4sXkzldZsafB0LyWJs5m1RWcHyHcO544vfhyz7WmbMstdBWNmFgp/OCKvUoaJs
5mob0/vYgKKWsHop4bYSrjh12Mbz/dCLIqB48lZCukK9v7TiK5QI6R5uhJ4K3j4p
p9VT8RcQlLNYOsI+O+rJJb1xKsRVzNM86umHz1hvb6bdxd8Mbok53nbhUt07kCh4
N5nugXQSyoU1mgKlqVfGnmuYKoZ/C0Tg0mMCtUWxIggI+sLyoGkOnahWCIwerMi/
z8yOUcfgfZGC6tyAG91W47iY0aUd2HMEUYH6TIWSs30dTFo1eWTFeR3WZLor/aVh
xHQAJG5R2ZINrhwu9EJTA3oFQQHxjcvwd4upb/eBbIu42B2D8ME24EOvYQkZ/6fe
HLMk6La1p7XXo8kXT12Syhn/EfWtQrABG/EBNihqh640cTG8P8R4y8WxVzi1qj+3
/tDPyCPfBFi7Cizhcrjm/O0LJZLNWVYdZRlK37nytl7lPs4kTQPwCQfad7s1bZT5
ePDCPOOjYZVEB29zS+sq5IraIO1/PooJuiCvp4+QDZI=
-----END CERTIFICATE-----
