Certificate:
    Data:
        Version: 3 (0x2)
        Serial Number: 7589 (0x1da5)
    Signature Algorithm: md5WithRSAEncryption
        Issuer: C=US, ST=OH, L=Columbus, O=VikingVPN, OU=MyOrganizationalUnit, CN=VikingVPN CA/name=EasyRSA/emailAddress=me@myhost.mydomain
        Validity
            Not Before: Mar 22 13:22:43 2016 GMT
            Not After : Mar 20 13:22:43 2026 GMT
        Subject: CN=Client1975Certa837d0
        Subject Public Key Info:
            Public Key Algorithm: rsaEncryption
                Public-Key: (4096 bit)
                Modulus:
                    00:dd:68:f1:11:a0:7b:17:9e:4e:12:2c:59:89:f2:
                    eb:ec:5a:b2:02:47:c0:83:b0:38:d6:81:07:62:85:
                    c8:80:05:50:cf:ae:c5:0d:76:8f:14:e0:6d:77:fa:
                    a5:61:b0:a5:9a:fd:57:b5:5c:69:c9:39:f2:4d:01:
                    57:b7:9a:34:6f:2c:67:86:e8:b4:be:2c:69:f4:6e:
                    5f:3d:e0:2a:4f:a4:16:c1:a4:00:ed:f5:d3:78:c2:
                    8d:df:e8:c6:22:e7:68:01:40:e0:97:d9:d3:74:7d:
                    1c:f5:1d:d9:51:6a:3d:6f:15:8f:a3:4a:77:8d:ee:
                    a7:84:0b:2b:80:94:b4:35:12:6a:96:e2:44:2e:fc:
                    69:83:ef:1e:0d:ac:74:7c:5d:e4:f0:bb:99:6d:3e:
                    45:70:38:3a:02:79:d5:5c:cb:89:1a:81:7e:41:08:
                    12:6b:b0:25:6e:3a:62:b6:91:04:72:f1:60:f0:c6:
                    68:45:8c:1f:eb:bb:a4:db:6e:26:13:e6:20:ee:d2:
                    92:37:3d:d6:d1:1d:1e:ce:12:ab:1a:b3:d5:ac:73:
                    3c:e5:28:67:d0:ec:3d:90:68:fb:50:69:c9:ad:84:
                    ab:aa:a4:13:a0:f9:d6:bf:cd:98:12:01:d7:80:fc:
                    2c:b1:b2:a3:b9:d3:65:f2:83:d1:27:ff:d8:7a:6e:
                    8e:61:36:8a:5a:28:d0:bd:13:5b:b2:d9:09:00:a1:
                    19:1e:53:f2:be:d8:9f:4f:4f:02:18:d3:d1:b0:c1:
                    ac:d6:a1:d4:f1:87:c9:fe:2b:be:2e:30:60:09:b8:
                    ae:75:df:6d:c4:1d:da:d2:c5:7b:57:e2:ad:ca:24:
                    89:83:fb:9a:01:70:15:78:50:af:27:75:c2:4a:93:
                    9c:bc:25:68:69:99:9b:72:21:36:bc:66:3e:5c:47:
                    77:d8:f7:d0:b3:6c:88:8d:bc:af:17:e6:1a:8c:f3:
                    23:af:57:be:39:63:6e:f5:01:53:5e:27:2c:5f:c4:
                    41:37:60:2b:a0:0a:f1:85:67:92:63:17:9c:d8:68:
                    e3:41:88:16:31:d4:8c:d6:49:17:42:43:a1:84:72:
                    a9:f6:9d:ca:a5:43:23:ae:57:c0:84:2c:f5:9b:4c:
                    64:58:42:68:ad:08:ed:ef:ba:ee:27:ca:07:1d:85:
                    ea:54:ef:96:fe:6b:d4:19:29:4e:ed:1a:0e:be:1f:
                    7f:80:76:5a:f0:7c:5e:9a:37:6d:9c:08:24:ed:18:
                    2f:3a:8b:64:72:16:80:45:0b:59:29:64:45:8c:89:
                    c2:3f:24:4f:05:31:d9:09:e9:4c:40:c8:b3:48:3c:
                    1a:6d:00:64:87:66:20:c6:3a:31:68:04:78:73:41:
                    eb:19:09
                Exponent: 65537 (0x10001)
        X509v3 extensions:
            X509v3 Basic Constraints: 
                CA:FALSE
            Netscape Comment: 
                Easy-RSA Generated Certificate
            X509v3 Subject Key Identifier: 
                37:62:F1:83:F2:8F:56:89:F4:0D:47:DA:24:1C:1A:25:F6:68:43:49
            X509v3 Authority Key Identifier: 
                keyid:12:CD:60:04:D2:A0:80:9E:70:ED:C6:99:B8:7B:2C:C6:52:FD:19:A1
                DirName:/C=US/ST=OH/L=Columbus/O=VikingVPN/OU=MyOrganizationalUnit/CN=VikingVPN CA/name=EasyRSA/emailAddress=me@myhost.mydomain
                serial:CF:35:85:EE:80:BF:2A:3E

            X509v3 Extended Key Usage: 
                TLS Web Client Authentication
            X509v3 Key Usage: 
                Digital Signature
    Signature Algorithm: md5WithRSAEncryption
         25:08:7c:8c:ef:ca:fc:4f:52:ee:e8:28:51:1b:5d:e1:3a:17:
         44:21:0f:b9:2d:e6:7a:c2:07:07:26:7a:e6:fe:57:5d:cb:5d:
         b6:44:1c:dd:c2:f2:28:92:7d:00:00:29:3f:36:53:df:f2:ed:
         d9:e2:d4:c0:33:89:a1:06:8c:ea:f9:38:c5:9d:7f:df:00:0c:
         23:0e:d3:0f:c5:23:1f:e4:8c:44:e8:53:18:5e:62:e4:f0:e3:
         a1:b8:02:14:17:a6:4e:d7:29:34:da:ea:a5:dd:4d:9e:02:85:
         8b:08:72:1d:8e:40:69:19:b5:20:57:5a:a6:d3:92:ec:19:05:
         64:c1:67:76:0e:6b:ba:7a:37:f4:4b:86:6d:b3:db:df:b3:7e:
         8d:32:e6:86:b5:19:ef:26:6f:72:00:27:ad:0a:3c:c8:33:12:
         11:89:b9:e0:5a:d5:90:62:bd:c3:09:7c:42:4c:57:f2:09:06:
         05:49:fd:a0:11:16:0d:cc:e8:cf:2e:cf:13:5b:89:43:b0:5b:
         a1:42:b3:b6:42:5f:3d:e6:b1:f1:6d:6d:50:56:f3:d2:b2:00:
         1c:f8:5f:4f:ee:c6:f8:92:5a:6a:ee:ff:91:d1:e2:4a:08:3e:
         29:c7:a3:e4:e1:f7:3d:31:d4:db:5a:81:8c:ea:8f:b4:67:b5:
         60:8a:d6:e5:17:a1:eb:82:91:46:fb:d1:a5:25:80:dc:2d:5b:
         ef:b4:11:76:c4:45:b5:65:9b:69:f4:d7:76:22:bd:ac:60:00:
         50:06:cb:32:f4:0e:6a:22:ca:88:15:59:e0:3e:f3:61:0a:ea:
         18:64:1a:0c:6a:1d:80:4d:2b:9e:2e:62:c2:c8:8c:6f:ee:75:
         82:22:b1:87:24:54:6e:8c:1d:43:53:ad:b0:e3:c3:6e:36:d8:
         64:96:f9:e6:d8:f9:5b:fe:f1:82:2c:b5:4e:ad:a0:3d:3a:c8:
         ff:46:aa:67:2b:a5:e7:57:13:36:07:26:ac:c8:60:0f:a0:32:
         af:cf:be:0a:ef:f5:12:89:c7:65:9c:e9:00:55:08:d3:17:64:
         b6:04:e6:12:c9:bf:3a:48:56:f6:3f:55:e2:a1:1c:f9:51:56:
         e8:79:9a:95:95:c9:f6:ed:38:7b:d1:90:ff:8f:e4:1b:ed:2b:
         63:4b:d1:23:a4:11:43:f6:86:cc:da:f0:30:2d:e2:64:76:c0:
         25:f2:07:1b:f0:ed:a7:f9:29:fc:c9:08:1c:bb:6d:c2:e3:b6:
         6c:2f:12:31:99:cd:99:96:82:ab:28:b1:87:16:a5:af:1f:01:
         65:81:44:9d:c1:e9:85:d3:39:dd:5f:4a:ce:ed:d3:5c:51:a0:
         73:ac:38:f2:09:9d:81:c3
-----BEGIN CERTIFICATE-----
MIIGrTCCBJWgAwIBAgICHaUwDQYJKoZIhvcNAQEEBQAwgawxCzAJBgNVBAYTAlVT
MQswCQYDVQQIEwJPSDERMA8GA1UEBxMIQ29sdW1idXMxEjAQBgNVBAoTCVZpa2lu
Z1ZQTjEdMBsGA1UECxMUTXlPcmdhbml6YXRpb25hbFVuaXQxFTATBgNVBAMTDFZp
a2luZ1ZQTiBDQTEQMA4GA1UEKRMHRWFzeVJTQTEhMB8GCSqGSIb3DQEJARYSbWVA
bXlob3N0Lm15ZG9tYWluMB4XDTE2MDMyMjEzMjI0M1oXDTI2MDMyMDEzMjI0M1ow
HzEdMBsGA1UEAxMUQ2xpZW50MTk3NUNlcnRhODM3ZDAwggIiMA0GCSqGSIb3DQEB
AQUAA4ICDwAwggIKAoICAQDdaPERoHsXnk4SLFmJ8uvsWrICR8CDsDjWgQdihciA
BVDPrsUNdo8U4G13+qVhsKWa/Ve1XGnJOfJNAVe3mjRvLGeG6LS+LGn0bl894CpP
pBbBpADt9dN4wo3f6MYi52gBQOCX2dN0fRz1HdlRaj1vFY+jSneN7qeECyuAlLQ1
EmqW4kQu/GmD7x4NrHR8XeTwu5ltPkVwODoCedVcy4kagX5BCBJrsCVuOmK2kQRy
8WDwxmhFjB/ru6TbbiYT5iDu0pI3PdbRHR7OEqsas9WsczzlKGfQ7D2QaPtQacmt
hKuqpBOg+da/zZgSAdeA/CyxsqO502Xyg9En/9h6bo5hNopaKNC9E1uy2QkAoRke
U/K+2J9PTwIY09GwwazWodTxh8n+K74uMGAJuK51323EHdrSxXtX4q3KJImD+5oB
cBV4UK8ndcJKk5y8JWhpmZtyITa8Zj5cR3fY99CzbIiNvK8X5hqM8yOvV745Y271
AVNeJyxfxEE3YCugCvGFZ5JjF5zYaONBiBYx1IzWSRdCQ6GEcqn2ncqlQyOuV8CE
LPWbTGRYQmitCO3vuu4nygcdhepU75b+a9QZKU7tGg6+H3+AdlrwfF6aN22cCCTt
GC86i2RyFoBFC1kpZEWMicI/JE8FMdkJ6UxAyLNIPBptAGSHZiDGOjFoBHhzQesZ
CQIDAQABo4IBYzCCAV8wCQYDVR0TBAIwADAtBglghkgBhvhCAQ0EIBYeRWFzeS1S
U0EgR2VuZXJhdGVkIENlcnRpZmljYXRlMB0GA1UdDgQWBBQ3YvGD8o9WifQNR9ok
HBol9mhDSTCB4QYDVR0jBIHZMIHWgBQSzWAE0qCAnnDtxpm4eyzGUv0ZoaGBsqSB
rzCBrDELMAkGA1UEBhMCVVMxCzAJBgNVBAgTAk9IMREwDwYDVQQHEwhDb2x1bWJ1
czESMBAGA1UEChMJVmlraW5nVlBOMR0wGwYDVQQLExRNeU9yZ2FuaXphdGlvbmFs
VW5pdDEVMBMGA1UEAxMMVmlraW5nVlBOIENBMRAwDgYDVQQpEwdFYXN5UlNBMSEw
HwYJKoZIhvcNAQkBFhJtZUBteWhvc3QubXlkb21haW6CCQDPNYXugL8qPjATBgNV
HSUEDDAKBggrBgEFBQcDAjALBgNVHQ8EBAMCB4AwDQYJKoZIhvcNAQEEBQADggIB
ACUIfIzvyvxPUu7oKFEbXeE6F0QhD7kt5nrCBwcmeub+V13LXbZEHN3C8iiSfQAA
KT82U9/y7dni1MAziaEGjOr5OMWdf98ADCMO0w/FIx/kjEToUxheYuTw46G4AhQX
pk7XKTTa6qXdTZ4ChYsIch2OQGkZtSBXWqbTkuwZBWTBZ3YOa7p6N/RLhm2z29+z
fo0y5oa1Ge8mb3IAJ60KPMgzEhGJueBa1ZBivcMJfEJMV/IJBgVJ/aARFg3M6M8u
zxNbiUOwW6FCs7ZCXz3msfFtbVBW89KyABz4X0/uxviSWmru/5HR4koIPinHo+Th
9z0x1NtagYzqj7RntWCK1uUXoeuCkUb70aUlgNwtW++0EXbERbVlm2n013Yivaxg
AFAGyzL0DmoiyogVWeA+82EK6hhkGgxqHYBNK54uYsLIjG/udYIisYckVG6MHUNT
rbDjw2422GSW+ebY+Vv+8YIstU6toD06yP9GqmcrpedXEzYHJqzIYA+gMq/Pvgrv
9RKJx2Wc6QBVCNMXZLYE5hLJvzpIVvY/VeKhHPlRVuh5mpWVyfbtOHvRkP+P5Bvt
K2NL0SOkEUP2hsza8DAt4mR2wCXyBxvw7af5KfzJCBy7bcLjtmwvEjGZzZmWgqso
sYcWpa8fAWWBRJ3B6YXTOd1fSs7t01xRoHOsOPIJnYHD
-----END CERTIFICATE-----
