Certificate:
    Data:
        Version: 3 (0x2)
        Serial Number: 7623 (0x1dc7)
    Signature Algorithm: md5WithRSAEncryption
        Issuer: C=US, ST=OH, L=Columbus, O=VikingVPN, OU=MyOrganizationalUnit, CN=VikingVPN CA/name=EasyRSA/emailAddress=me@myhost.mydomain
        Validity
            Not Before: Mar 28 17:36:03 2016 GMT
            Not After : Mar 26 17:36:03 2026 GMT
        Subject: CN=Client2214Certc577d8
        Subject Public Key Info:
            Public Key Algorithm: rsaEncryption
                Public-Key: (4096 bit)
                Modulus:
                    00:c3:f3:e7:9e:b4:9b:df:c4:0a:3d:87:9b:1d:94:
                    72:5b:af:d7:ce:b8:9b:6b:9b:99:0e:99:ba:aa:0b:
                    91:43:90:1c:17:f4:bc:42:a3:9e:91:ee:18:5d:70:
                    48:98:c1:48:ca:05:3e:72:c9:4e:be:43:00:46:ae:
                    14:2d:3b:73:00:5a:38:ef:27:e5:05:b5:0e:fa:d6:
                    32:d8:75:1d:b8:e4:84:75:f0:2a:36:71:16:8b:32:
                    89:47:d4:c1:a4:d7:ab:7e:80:82:cf:ab:77:39:49:
                    56:b6:06:6a:31:cf:73:c5:06:35:33:f0:9f:10:37:
                    39:7d:21:40:51:d8:94:78:17:a9:d0:22:77:9e:10:
                    ae:59:0f:31:cb:bb:69:96:bf:ae:68:82:5a:33:d1:
                    91:24:07:e0:9d:64:cc:28:72:ff:92:18:2f:47:96:
                    83:a0:b7:da:ec:85:0e:1a:8f:29:18:78:b7:a7:b1:
                    e3:62:2a:2c:8c:4d:29:cc:b7:a3:83:5a:81:29:e1:
                    04:f4:32:ec:73:12:ad:53:a3:56:fa:48:ba:0d:a6:
                    a8:4f:ee:90:4a:6f:05:39:07:f8:db:6d:7a:4d:96:
                    2a:3c:8f:03:ba:86:79:0d:f8:92:dd:a9:ed:89:85:
                    7c:ef:3d:44:d2:2a:ab:0e:b2:ef:24:75:05:f6:b2:
                    84:a8:bc:06:66:e4:bd:4d:9e:a0:f1:1e:01:b4:74:
                    12:e6:7d:bf:66:d5:a2:10:97:e6:82:f3:78:63:b8:
                    af:aa:67:b6:0c:de:48:e0:b5:e8:f2:11:e6:91:7e:
                    4a:22:7c:05:33:cb:3b:29:c4:01:8d:b9:ed:41:07:
                    87:69:83:66:0e:3f:b6:f8:9a:a7:4e:37:d1:0c:6b:
                    4a:8a:b8:4f:95:90:e5:37:7e:5a:f0:05:76:2f:57:
                    61:a2:be:51:75:f1:6d:9c:2f:6e:32:94:11:0b:c4:
                    38:9b:6f:4b:67:d4:2d:32:ac:b6:40:bd:1f:c2:57:
                    55:62:2f:61:25:72:c1:7d:b8:e9:a8:75:da:8a:75:
                    25:f9:3a:a0:ea:c4:17:4c:0f:1d:1b:3c:28:6e:29:
                    2f:35:56:65:af:e4:7e:33:bf:40:6a:b1:e1:44:f1:
                    0b:f2:b2:9f:0e:eb:be:15:1e:70:f9:a5:17:8c:bf:
                    cc:17:f0:ba:c0:cc:c2:c0:d5:60:3a:ce:f8:ee:f9:
                    5c:3b:54:fc:7c:81:35:7c:d0:19:17:be:8e:49:23:
                    5c:fd:e0:7b:01:4a:93:8a:e1:7d:97:06:76:c2:e7:
                    70:9e:2e:4b:04:8a:19:f3:12:eb:f5:2d:7f:96:2e:
                    f3:6f:e3:2c:6f:c6:41:d4:c5:79:63:9e:8a:b3:42:
                    d5:2a:57
                Exponent: 65537 (0x10001)
        X509v3 extensions:
            X509v3 Basic Constraints: 
                CA:FALSE
            Netscape Comment: 
                Easy-RSA Generated Certificate
            X509v3 Subject Key Identifier: 
                2B:17:5D:2C:AE:4B:F4:0D:56:04:09:BE:A4:97:25:89:C8:88:1B:72
            X509v3 Authority Key Identifier: 
                keyid:12:CD:60:04:D2:A0:80:9E:70:ED:C6:99:B8:7B:2C:C6:52:FD:19:A1
                DirName:/C=US/ST=OH/L=Columbus/O=VikingVPN/OU=MyOrganizationalUnit/CN=VikingVPN CA/name=EasyRSA/emailAddress=me@myhost.mydomain
                serial:CF:35:85:EE:80:BF:2A:3E

            X509v3 Extended Key Usage: 
                TLS Web Client Authentication
            X509v3 Key Usage: 
                Digital Signature
    Signature Algorithm: md5WithRSAEncryption
         10:d3:9a:90:a5:7c:ec:b6:10:f4:3d:17:e8:aa:2f:36:c6:c2:
         7f:3a:93:de:4a:dd:6f:d5:d7:f7:37:68:6b:da:0b:6e:62:c1:
         eb:f9:4a:6e:e6:e1:72:d4:f8:6e:f7:26:92:8a:87:85:d2:67:
         be:77:93:9b:55:8b:86:54:44:0c:c4:b7:bb:e1:8a:d4:0d:09:
         f4:e1:ee:d3:d2:ea:a4:e3:78:06:33:9b:4e:16:de:3b:d9:44:
         a8:00:99:ee:3e:c9:d9:08:aa:2a:cc:1c:35:c6:57:af:be:43:
         81:66:98:c3:93:c2:83:06:3c:db:dc:d9:9c:ba:83:8a:f5:52:
         86:80:7d:65:d8:c1:18:25:f6:fa:5a:14:5f:dd:b5:73:38:29:
         85:21:15:4d:70:e5:86:99:a4:85:b6:c9:32:62:7d:bc:e6:ae:
         5d:1c:a5:48:72:3e:f2:0d:6c:58:f5:8b:6e:16:2c:d1:68:ab:
         ac:ed:61:5a:95:9b:0e:89:99:50:df:a1:c0:ac:af:45:4c:5e:
         2a:93:97:a4:c6:f2:06:1e:b2:ad:ad:28:df:0d:a2:3f:72:48:
         4b:40:86:56:07:54:99:28:19:63:9b:b6:88:e3:f9:e3:9b:6a:
         be:d2:42:c5:f4:dc:9f:2a:2b:97:e2:b1:87:99:ad:29:90:f0:
         02:a1:96:1b:dd:6f:80:6c:94:72:20:22:fd:4a:eb:a4:e6:a8:
         ea:cf:03:dc:c4:c1:e1:01:ce:6a:05:6e:2a:47:c4:b2:4c:a1:
         7b:ec:8b:ee:2d:11:10:52:c1:6f:c8:8e:71:a1:30:de:4e:f7:
         f2:0e:db:ca:30:50:ca:4c:d0:3a:ba:ba:27:c9:d6:16:ca:54:
         28:d9:92:03:b7:48:bd:06:cb:c5:28:ac:68:79:5e:47:05:5f:
         14:47:41:b4:a5:6a:db:2a:1a:55:51:0c:91:a1:2f:07:cc:8e:
         3c:4d:13:f8:13:0e:18:00:23:e5:06:80:84:d7:0e:ce:f5:74:
         86:56:c8:0c:6a:2c:0b:66:06:35:7f:7e:fb:a7:08:6f:c3:9b:
         e4:e4:fa:74:36:4d:05:00:10:84:5a:c9:0f:77:a7:68:8f:7d:
         28:5d:a3:43:9f:44:ed:24:e1:74:fc:b6:b2:c6:94:c3:bf:05:
         77:cd:7b:f8:f2:85:7b:a3:f5:9e:dc:be:2e:b8:b0:23:c9:da:
         a0:d5:47:52:fe:b4:67:40:77:7e:5d:31:53:12:58:ec:e1:c3:
         36:de:f4:e1:4c:ab:c8:a6:1a:15:60:a6:7f:26:07:51:6f:dd:
         44:5c:07:af:0f:72:6e:4c:4a:de:8c:62:de:f6:d6:75:3c:7d:
         6e:4a:3d:79:ba:a0:b3:91
-----BEGIN CERTIFICATE-----
MIIGrTCCBJWgAwIBAgICHccwDQYJKoZIhvcNAQEEBQAwgawxCzAJBgNVBAYTAlVT
MQswCQYDVQQIEwJPSDERMA8GA1UEBxMIQ29sdW1idXMxEjAQBgNVBAoTCVZpa2lu
Z1ZQTjEdMBsGA1UECxMUTXlPcmdhbml6YXRpb25hbFVuaXQxFTATBgNVBAMTDFZp
a2luZ1ZQTiBDQTEQMA4GA1UEKRMHRWFzeVJTQTEhMB8GCSqGSIb3DQEJARYSbWVA
bXlob3N0Lm15ZG9tYWluMB4XDTE2MDMyODE3MzYwM1oXDTI2MDMyNjE3MzYwM1ow
HzEdMBsGA1UEAxMUQ2xpZW50MjIxNENlcnRjNTc3ZDgwggIiMA0GCSqGSIb3DQEB
AQUAA4ICDwAwggIKAoICAQDD8+eetJvfxAo9h5sdlHJbr9fOuJtrm5kOmbqqC5FD
kBwX9LxCo56R7hhdcEiYwUjKBT5yyU6+QwBGrhQtO3MAWjjvJ+UFtQ761jLYdR24
5IR18Co2cRaLMolH1MGk16t+gILPq3c5SVa2Bmoxz3PFBjUz8J8QNzl9IUBR2JR4
F6nQIneeEK5ZDzHLu2mWv65ogloz0ZEkB+CdZMwocv+SGC9HloOgt9rshQ4ajykY
eLenseNiKiyMTSnMt6ODWoEp4QT0MuxzEq1To1b6SLoNpqhP7pBKbwU5B/jbbXpN
lio8jwO6hnkN+JLdqe2JhXzvPUTSKqsOsu8kdQX2soSovAZm5L1NnqDxHgG0dBLm
fb9m1aIQl+aC83hjuK+qZ7YM3kjgtejyEeaRfkoifAUzyzspxAGNue1BB4dpg2YO
P7b4mqdON9EMa0qKuE+VkOU3flrwBXYvV2GivlF18W2cL24ylBELxDibb0tn1C0y
rLZAvR/CV1ViL2ElcsF9uOmoddqKdSX5OqDqxBdMDx0bPChuKS81VmWv5H4zv0Bq
seFE8Qvysp8O674VHnD5pReMv8wX8LrAzMLA1WA6zvju+Vw7VPx8gTV80BkXvo5J
I1z94HsBSpOK4X2XBnbC53CeLksEihnzEuv1LX+WLvNv4yxvxkHUxXljnoqzQtUq
VwIDAQABo4IBYzCCAV8wCQYDVR0TBAIwADAtBglghkgBhvhCAQ0EIBYeRWFzeS1S
U0EgR2VuZXJhdGVkIENlcnRpZmljYXRlMB0GA1UdDgQWBBQrF10srkv0DVYECb6k
lyWJyIgbcjCB4QYDVR0jBIHZMIHWgBQSzWAE0qCAnnDtxpm4eyzGUv0ZoaGBsqSB
rzCBrDELMAkGA1UEBhMCVVMxCzAJBgNVBAgTAk9IMREwDwYDVQQHEwhDb2x1bWJ1
czESMBAGA1UEChMJVmlraW5nVlBOMR0wGwYDVQQLExRNeU9yZ2FuaXphdGlvbmFs
VW5pdDEVMBMGA1UEAxMMVmlraW5nVlBOIENBMRAwDgYDVQQpEwdFYXN5UlNBMSEw
HwYJKoZIhvcNAQkBFhJtZUBteWhvc3QubXlkb21haW6CCQDPNYXugL8qPjATBgNV
HSUEDDAKBggrBgEFBQcDAjALBgNVHQ8EBAMCB4AwDQYJKoZIhvcNAQEEBQADggIB
ABDTmpClfOy2EPQ9F+iqLzbGwn86k95K3W/V1/c3aGvaC25iwev5Sm7m4XLU+G73
JpKKh4XSZ753k5tVi4ZURAzEt7vhitQNCfTh7tPS6qTjeAYzm04W3jvZRKgAme4+
ydkIqirMHDXGV6++Q4FmmMOTwoMGPNvc2Zy6g4r1UoaAfWXYwRgl9vpaFF/dtXM4
KYUhFU1w5YaZpIW2yTJifbzmrl0cpUhyPvINbFj1i24WLNFoq6ztYVqVmw6JmVDf
ocCsr0VMXiqTl6TG8gYesq2tKN8Noj9ySEtAhlYHVJkoGWObtojj+eObar7SQsX0
3J8qK5fisYeZrSmQ8AKhlhvdb4BslHIgIv1K66TmqOrPA9zEweEBzmoFbipHxLJM
oXvsi+4tERBSwW/IjnGhMN5O9/IO28owUMpM0Dq6uifJ1hbKVCjZkgO3SL0Gy8Uo
rGh5XkcFXxRHQbSlatsqGlVRDJGhLwfMjjxNE/gTDhgAI+UGgITXDs71dIZWyAxq
LAtmBjV/fvunCG/Dm+Tk+nQ2TQUAEIRayQ93p2iPfShdo0OfRO0k4XT8trLGlMO/
BXfNe/jyhXuj9Z7cvi64sCPJ2qDVR1L+tGdAd35dMVMSWOzhwzbe9OFMq8imGhVg
pn8mB1Fv3URcB68Pcm5MSt6MYt721nU8fW5KPXm6oLOR
-----END CERTIFICATE-----
