Certificate:
    Data:
        Version: 3 (0x2)
        Serial Number: 7640 (0x1dd8)
    Signature Algorithm: md5WithRSAEncryption
        Issuer: C=US, ST=OH, L=Columbus, O=VikingVPN, OU=MyOrganizationalUnit, CN=VikingVPN CA/name=EasyRSA/emailAddress=me@myhost.mydomain
        Validity
            Not Before: Mar 31 20:21:38 2016 GMT
            Not After : Mar 29 20:21:38 2026 GMT
        Subject: CN=Client879Cert838350
        Subject Public Key Info:
            Public Key Algorithm: rsaEncryption
                Public-Key: (4096 bit)
                Modulus:
                    00:f0:39:aa:af:d4:b2:d0:3e:e5:53:d3:05:89:38:
                    15:c5:f2:e1:00:e0:f3:95:33:02:de:c2:37:b8:a4:
                    a7:5f:7c:e2:e5:51:6b:5b:7a:81:e3:da:7c:23:0c:
                    c6:ed:ac:6f:c1:f0:a6:ae:24:d4:05:49:f2:20:a3:
                    c8:06:b5:0f:24:38:7c:68:7d:8e:4b:77:d2:f8:ec:
                    ac:f7:72:33:f0:bd:04:4c:61:b6:b0:84:61:01:e2:
                    53:5e:32:2b:8c:d4:33:f8:02:8f:e6:63:6b:e8:ed:
                    4a:c6:f1:8c:59:6b:28:9f:93:c9:2e:fe:f4:d4:40:
                    44:c3:ae:45:28:c8:34:92:89:96:75:25:e2:6c:27:
                    78:2a:81:d2:a1:27:06:b7:47:6e:c2:31:7c:56:53:
                    35:6d:cc:41:18:fa:30:39:95:aa:c4:60:6f:4f:65:
                    6b:85:da:5a:fe:4c:95:58:c2:25:df:3e:12:85:e6:
                    bf:88:46:a6:37:79:b3:81:ec:4c:a4:72:16:76:05:
                    6f:1f:a8:58:87:1a:33:57:dc:56:df:84:2b:61:3a:
                    58:19:3b:01:38:99:09:23:51:cb:e0:b4:01:b0:b4:
                    7f:e0:a5:21:bc:0b:e7:fa:95:e0:f8:2b:7d:d1:02:
                    69:7c:b1:87:50:1d:1a:9c:f2:ca:1a:95:e9:60:0a:
                    6b:0a:5d:d1:a6:1f:c8:ef:41:fc:9e:8c:7a:c6:e3:
                    2a:88:44:20:c9:9e:89:06:a5:e4:ac:7d:e4:9f:44:
                    a7:2b:e0:3f:ae:ba:65:20:bf:ff:e5:42:88:72:34:
                    f0:5f:37:fd:f1:59:9f:15:3e:db:c9:8d:61:00:83:
                    4d:1c:11:1f:17:a9:a2:37:59:82:cf:c9:ca:fb:fc:
                    7e:3c:a9:8d:af:c2:74:fd:20:86:72:86:bf:4a:69:
                    ad:ab:36:b4:5f:44:97:03:d3:6c:dc:1e:0b:1a:ff:
                    6e:84:6d:cf:ae:22:d7:0f:b5:e6:50:de:17:22:50:
                    cd:ef:f8:79:de:69:c0:a5:36:76:f7:71:67:43:e6:
                    db:4c:01:ed:4f:83:3a:a5:fc:c8:14:2c:46:79:fd:
                    46:b0:f5:f5:3f:b9:07:5e:97:f1:b7:ac:74:9b:75:
                    e7:70:1e:ee:ea:5c:23:d4:b0:10:74:c5:f1:e2:86:
                    66:ce:d6:5e:c1:47:d4:4b:50:db:77:28:0a:24:eb:
                    1d:4f:e3:af:09:b2:0e:fe:3b:37:54:16:08:11:2a:
                    c8:58:3c:1d:ca:ae:fb:63:b6:21:11:af:37:53:21:
                    fa:26:66:40:68:d1:7f:89:13:08:97:ad:a7:4c:f7:
                    57:44:e3:5f:d4:8d:72:9f:06:9c:15:b2:df:10:81:
                    de:2d:c1
                Exponent: 65537 (0x10001)
        X509v3 extensions:
            X509v3 Basic Constraints: 
                CA:FALSE
            Netscape Comment: 
                Easy-RSA Generated Certificate
            X509v3 Subject Key Identifier: 
                B1:BE:B4:B2:7B:20:F6:B4:F6:3B:41:15:85:0C:60:8D:73:EB:91:A4
            X509v3 Authority Key Identifier: 
                keyid:12:CD:60:04:D2:A0:80:9E:70:ED:C6:99:B8:7B:2C:C6:52:FD:19:A1
                DirName:/C=US/ST=OH/L=Columbus/O=VikingVPN/OU=MyOrganizationalUnit/CN=VikingVPN CA/name=EasyRSA/emailAddress=me@myhost.mydomain
                serial:CF:35:85:EE:80:BF:2A:3E

            X509v3 Extended Key Usage: 
                TLS Web Client Authentication
            X509v3 Key Usage: 
                Digital Signature
    Signature Algorithm: md5WithRSAEncryption
         aa:40:b8:2e:67:5d:b1:6e:5e:3a:c3:e8:84:3b:a9:df:51:4b:
         9e:0e:71:35:87:a0:16:29:79:ae:0b:cb:05:09:0f:1c:9d:a6:
         27:ce:d7:18:8c:bd:a2:9c:3b:b6:7b:29:26:86:b5:dd:77:db:
         23:63:76:af:16:32:f9:f8:3a:a0:27:6a:27:9a:6e:32:5f:e1:
         3c:1d:bd:fe:54:39:c1:66:20:e6:14:32:c8:dc:39:32:4d:11:
         9c:c5:06:4a:b2:e8:17:e6:ad:7f:e2:9d:6d:a2:29:7d:65:93:
         4f:6a:c8:9c:ba:f5:66:dd:0f:cd:c7:a8:aa:a8:bb:14:22:da:
         97:3a:e2:96:d9:01:cb:8b:67:d8:8e:39:34:5c:03:b6:c2:4f:
         14:48:83:02:09:ea:ce:76:5b:76:9a:98:b3:17:9a:64:1d:98:
         61:47:fb:23:fb:41:f0:fc:7a:b0:88:48:25:5a:24:14:63:bb:
         41:d1:24:83:90:ed:a3:1e:21:8d:14:fa:d4:e8:3d:2f:c2:ac:
         51:32:0e:4c:85:5f:6b:dd:a7:f3:4d:9b:3f:da:f8:10:bd:26:
         33:b2:ee:6c:db:79:20:60:06:e8:86:f4:84:ab:15:c6:80:b8:
         21:7d:92:94:4e:ad:52:9a:90:55:11:ad:bc:cd:1a:9e:fa:9e:
         df:2e:21:52:e3:d4:dd:ec:4f:c6:78:30:a8:97:d9:c3:96:8b:
         1c:62:b7:2a:fd:ac:b8:e6:34:9e:43:68:ce:e2:f6:c5:ce:d5:
         03:a3:89:f9:6c:ba:eb:82:05:52:6a:06:3e:11:d3:79:d9:b1:
         f1:f9:b4:ff:4c:1a:76:dc:3b:c7:52:a7:29:06:aa:82:86:7a:
         37:1f:ba:12:a0:c9:06:9c:92:6a:d9:31:c8:fe:f3:6d:c1:42:
         51:5c:43:5d:bf:f2:3f:c0:37:e0:30:a6:43:9e:f4:f1:9c:2e:
         be:e1:20:2c:1a:17:61:e9:43:ac:a3:11:e6:4e:79:7b:8a:d5:
         90:23:06:78:74:21:74:a3:0e:62:e9:c2:ec:49:f7:66:3c:b3:
         cc:62:c7:a6:57:bf:e0:88:54:42:72:a8:30:70:d1:52:15:04:
         36:63:35:9b:a8:b3:9b:3b:f4:e2:91:c7:69:5c:2a:29:f7:97:
         03:d5:b7:72:ef:2c:11:55:ba:8a:b8:34:31:b4:d7:b9:1f:a4:
         d7:e6:2e:f1:7e:ba:b1:03:3a:2d:b9:86:a7:21:37:85:b6:68:
         dd:fa:bd:e3:69:6e:a5:fd:2c:53:59:49:6a:e3:f9:25:ba:49:
         23:73:ff:3c:2b:20:2b:b6:9c:53:f6:4c:64:6d:06:01:30:f0:
         63:2e:fb:fc:28:8d:2c:8c
-----BEGIN CERTIFICATE-----
MIIGrDCCBJSgAwIBAgICHdgwDQYJKoZIhvcNAQEEBQAwgawxCzAJBgNVBAYTAlVT
MQswCQYDVQQIEwJPSDERMA8GA1UEBxMIQ29sdW1idXMxEjAQBgNVBAoTCVZpa2lu
Z1ZQTjEdMBsGA1UECxMUTXlPcmdhbml6YXRpb25hbFVuaXQxFTATBgNVBAMTDFZp
a2luZ1ZQTiBDQTEQMA4GA1UEKRMHRWFzeVJTQTEhMB8GCSqGSIb3DQEJARYSbWVA
bXlob3N0Lm15ZG9tYWluMB4XDTE2MDMzMTIwMjEzOFoXDTI2MDMyOTIwMjEzOFow
HjEcMBoGA1UEAxMTQ2xpZW50ODc5Q2VydDgzODM1MDCCAiIwDQYJKoZIhvcNAQEB
BQADggIPADCCAgoCggIBAPA5qq/UstA+5VPTBYk4FcXy4QDg85UzAt7CN7ikp198
4uVRa1t6gePafCMMxu2sb8Hwpq4k1AVJ8iCjyAa1DyQ4fGh9jkt30vjsrPdyM/C9
BExhtrCEYQHiU14yK4zUM/gCj+Zja+jtSsbxjFlrKJ+TyS7+9NRARMOuRSjINJKJ
lnUl4mwneCqB0qEnBrdHbsIxfFZTNW3MQRj6MDmVqsRgb09la4XaWv5MlVjCJd8+
EoXmv4hGpjd5s4HsTKRyFnYFbx+oWIcaM1fcVt+EK2E6WBk7ATiZCSNRy+C0AbC0
f+ClIbwL5/qV4PgrfdECaXyxh1AdGpzyyhqV6WAKawpd0aYfyO9B/J6MesbjKohE
IMmeiQal5Kx95J9EpyvgP666ZSC//+VCiHI08F83/fFZnxU+28mNYQCDTRwRHxep
ojdZgs/Jyvv8fjypja/CdP0ghnKGv0ppras2tF9ElwPTbNweCxr/boRtz64i1w+1
5lDeFyJQze/4ed5pwKU2dvdxZ0Pm20wB7U+DOqX8yBQsRnn9RrD19T+5B16X8bes
dJt153Ae7upcI9SwEHTF8eKGZs7WXsFH1EtQ23coCiTrHU/jrwmyDv47N1QWCBEq
yFg8Hcqu+2O2IRGvN1Mh+iZmQGjRf4kTCJetp0z3V0TjX9SNcp8GnBWy3xCB3i3B
AgMBAAGjggFjMIIBXzAJBgNVHRMEAjAAMC0GCWCGSAGG+EIBDQQgFh5FYXN5LVJT
QSBHZW5lcmF0ZWQgQ2VydGlmaWNhdGUwHQYDVR0OBBYEFLG+tLJ7IPa09jtBFYUM
YI1z65GkMIHhBgNVHSMEgdkwgdaAFBLNYATSoICecO3Gmbh7LMZS/RmhoYGypIGv
MIGsMQswCQYDVQQGEwJVUzELMAkGA1UECBMCT0gxETAPBgNVBAcTCENvbHVtYnVz
MRIwEAYDVQQKEwlWaWtpbmdWUE4xHTAbBgNVBAsTFE15T3JnYW5pemF0aW9uYWxV
bml0MRUwEwYDVQQDEwxWaWtpbmdWUE4gQ0ExEDAOBgNVBCkTB0Vhc3lSU0ExITAf
BgkqhkiG9w0BCQEWEm1lQG15aG9zdC5teWRvbWFpboIJAM81he6Avyo+MBMGA1Ud
JQQMMAoGCCsGAQUFBwMCMAsGA1UdDwQEAwIHgDANBgkqhkiG9w0BAQQFAAOCAgEA
qkC4LmddsW5eOsPohDup31FLng5xNYegFil5rgvLBQkPHJ2mJ87XGIy9opw7tnsp
Joa13XfbI2N2rxYy+fg6oCdqJ5puMl/hPB29/lQ5wWYg5hQyyNw5Mk0RnMUGSrLo
F+atf+KdbaIpfWWTT2rInLr1Zt0Pzceoqqi7FCLalzriltkBy4tn2I45NFwDtsJP
FEiDAgnqznZbdpqYsxeaZB2YYUf7I/tB8Px6sIhIJVokFGO7QdEkg5Dtox4hjRT6
1Og9L8KsUTIOTIVfa92n802bP9r4EL0mM7LubNt5IGAG6Ib0hKsVxoC4IX2SlE6t
UpqQVRGtvM0anvqe3y4hUuPU3exPxngwqJfZw5aLHGK3Kv2suOY0nkNozuL2xc7V
A6OJ+Wy664IFUmoGPhHTedmx8fm0/0wadtw7x1KnKQaqgoZ6Nx+6EqDJBpySatkx
yP7zbcFCUVxDXb/yP8A34DCmQ5708ZwuvuEgLBoXYelDrKMR5k55e4rVkCMGeHQh
dKMOYunC7En3ZjyzzGLHple/4IhUQnKoMHDRUhUENmM1m6izmzv04pHHaVwqKfeX
A9W3cu8sEVW6irg0MbTXuR+k1+Yu8X66sQM6LbmGpyE3hbZo3fq942lupf0sU1lJ
auP5JbpJI3P/PCsgK7acU/ZMZG0GATDwYy77/CiNLIw=
-----END CERTIFICATE-----
