Certificate:
    Data:
        Version: 3 (0x2)
        Serial Number: 7655 (0x1de7)
    Signature Algorithm: md5WithRSAEncryption
        Issuer: C=US, ST=OH, L=Columbus, O=VikingVPN, OU=MyOrganizationalUnit, CN=VikingVPN CA/name=EasyRSA/emailAddress=me@myhost.mydomain
        Validity
            Not Before: Apr  3 06:41:11 2016 GMT
            Not After : Apr  1 06:41:11 2026 GMT
        Subject: CN=Client2242Certfdc6eb
        Subject Public Key Info:
            Public Key Algorithm: rsaEncryption
                Public-Key: (4096 bit)
                Modulus:
                    00:c3:bb:fe:fc:69:ea:69:89:ca:74:55:d4:3f:1f:
                    88:38:4e:02:25:43:83:47:6c:b6:32:66:bb:7f:55:
                    74:69:22:74:eb:e6:3e:31:f7:5f:60:e9:60:6c:2e:
                    ce:32:4e:4f:ad:0c:bc:0e:b0:c0:4e:de:f6:13:6b:
                    d0:91:45:7d:c2:eb:03:de:a2:77:e8:38:25:2a:d0:
                    87:f6:be:3d:ca:8e:4a:36:e2:f6:56:d7:fe:fc:66:
                    5d:9c:0f:60:6d:d5:03:a2:96:47:90:96:a0:a7:c8:
                    e7:21:87:83:55:e5:ed:bf:e9:e2:ef:61:ca:41:f4:
                    90:41:0d:65:0c:6c:7b:b1:1f:1f:30:d4:4e:1f:4f:
                    3d:80:e7:c7:59:ec:2c:fa:6a:5f:1f:9a:bf:1b:a7:
                    49:50:80:b4:5c:d6:e9:dc:bc:81:18:ca:86:ba:28:
                    1a:ae:a1:13:ee:1e:b8:24:b6:b8:9b:07:d3:0b:f8:
                    e4:b3:3e:de:46:13:1f:d0:ad:2b:64:1e:67:67:7f:
                    e4:ff:00:c2:c1:d5:c1:ca:0a:93:cc:dc:9a:1b:88:
                    e1:7e:fa:b6:55:ec:e7:0b:b5:c2:61:31:f5:c4:ef:
                    ad:03:07:5b:a3:97:2b:54:ec:dc:6e:d6:85:62:72:
                    c8:c1:91:69:2c:46:15:16:2d:eb:52:0b:b4:ff:16:
                    84:58:1d:6d:7d:ea:42:54:6d:5a:fc:7c:e5:d2:75:
                    8f:d9:db:29:a2:11:f4:4a:ff:4a:04:ea:88:18:82:
                    23:b1:37:3b:a0:44:f1:1c:86:30:7b:5c:d5:78:e9:
                    7e:42:8a:2c:1c:8f:47:a0:6f:2c:58:31:e9:14:51:
                    04:a6:65:c2:eb:16:2d:68:b3:c1:46:9d:7a:a4:8b:
                    8c:fd:6e:8f:89:7b:09:74:f8:19:4b:6a:f6:78:7f:
                    66:a1:67:d0:ec:fb:1f:41:e9:7f:fa:e3:21:f9:c8:
                    13:b0:90:97:e4:b9:7d:05:3c:41:72:d4:54:f3:25:
                    46:b5:92:48:29:ed:35:d5:e7:c5:e9:21:ee:42:15:
                    1d:a4:8d:42:0d:4a:98:81:0e:3b:37:23:94:73:4f:
                    d3:88:48:aa:0b:fb:ee:de:d6:e5:68:e5:1c:8e:80:
                    e0:f4:4d:aa:bf:fe:9a:cc:84:4d:28:06:92:64:b9:
                    ac:de:44:41:97:78:20:4e:59:20:32:99:2b:e7:dc:
                    ec:3a:0d:91:ec:81:43:02:a7:32:e6:50:25:c1:31:
                    75:af:75:79:03:1c:ee:ef:ac:bb:29:d4:03:c7:34:
                    13:6b:ab:f7:e8:0b:4f:99:26:2c:30:73:ab:41:bc:
                    ac:5b:e8:2e:84:30:bb:13:75:ac:61:1e:96:bb:0d:
                    46:3e:91
                Exponent: 65537 (0x10001)
        X509v3 extensions:
            X509v3 Basic Constraints: 
                CA:FALSE
            Netscape Comment: 
                Easy-RSA Generated Certificate
            X509v3 Subject Key Identifier: 
                99:52:AF:3B:0E:A3:01:5C:7A:4E:42:7F:D5:FB:0F:DE:C2:62:B1:C4
            X509v3 Authority Key Identifier: 
                keyid:12:CD:60:04:D2:A0:80:9E:70:ED:C6:99:B8:7B:2C:C6:52:FD:19:A1
                DirName:/C=US/ST=OH/L=Columbus/O=VikingVPN/OU=MyOrganizationalUnit/CN=VikingVPN CA/name=EasyRSA/emailAddress=me@myhost.mydomain
                serial:CF:35:85:EE:80:BF:2A:3E

            X509v3 Extended Key Usage: 
                TLS Web Client Authentication
            X509v3 Key Usage: 
                Digital Signature
    Signature Algorithm: md5WithRSAEncryption
         c0:71:dc:9a:92:47:de:1d:97:a1:9c:80:31:75:a1:86:2a:62:
         17:64:ea:8c:fa:d6:4e:70:8b:bf:b2:c3:e2:fe:8e:8c:d1:98:
         ac:71:4b:f9:4d:d5:db:ff:f6:9a:44:17:7e:26:5e:94:9c:64:
         91:8c:38:2e:f1:64:c9:a1:65:dc:b7:b4:e2:a8:f1:c8:f6:9c:
         cb:e4:ec:eb:9d:a7:4d:8f:a3:f9:ab:a7:17:ce:4a:07:e8:e3:
         3a:b6:10:d9:fb:82:a9:f3:97:72:af:f4:d6:4c:93:88:4c:79:
         60:6d:90:18:b5:32:02:1c:ae:27:34:b1:e5:c1:6e:b6:ea:f0:
         07:17:de:79:fd:b8:ea:63:33:25:14:f7:37:7d:89:ab:cd:ac:
         ee:ac:d1:0f:56:4e:58:75:5e:00:07:58:bc:e7:23:fd:ad:91:
         b4:ee:94:71:35:ff:73:88:a6:83:e3:a9:75:f4:2b:84:ca:00:
         df:b2:2f:74:41:4c:63:f5:fb:af:c8:d6:40:2b:4f:63:c0:bd:
         7a:b7:2a:8d:36:78:4c:c7:1e:5c:25:72:dc:06:b1:a8:bf:86:
         f7:2d:0b:59:3c:cf:e2:51:f3:8e:46:23:5e:6a:9c:06:77:fa:
         e4:02:b0:d1:30:a3:bc:03:ca:d0:04:1e:00:1f:b5:39:e4:ce:
         b0:34:70:be:e4:6a:f0:ee:e0:eb:34:2a:83:65:b3:15:49:65:
         32:8f:b3:c5:14:81:28:eb:d0:e7:83:12:c5:ce:3b:1a:38:d2:
         77:5a:42:4a:24:6d:67:2f:3a:7f:54:a3:58:26:10:dd:87:6c:
         51:ba:90:54:2a:68:c7:a2:60:60:f8:f8:df:b9:be:13:3a:cc:
         30:aa:d7:d8:1d:59:35:9c:fd:f1:89:7e:ce:f1:b1:4a:87:44:
         63:55:12:5a:26:1c:23:18:85:ca:e4:49:f7:36:fc:91:b3:55:
         c5:47:0a:91:b8:22:16:83:4d:36:33:93:69:88:66:c8:10:33:
         46:37:ec:bc:bb:fa:04:1e:74:d7:4f:df:1f:18:d5:d7:66:61:
         6a:61:c9:8c:33:42:d0:b4:17:a3:25:b0:9b:ff:7e:6a:30:f0:
         26:3c:27:27:75:e1:ec:d3:e6:e7:25:93:18:52:0d:e2:bd:c1:
         4f:31:12:ac:94:3c:d9:5f:a2:d3:34:66:56:29:50:25:5a:cc:
         f1:82:2b:8d:7b:85:7b:5a:fc:a0:21:98:ce:78:9f:5c:36:81:
         2c:4d:e8:2f:08:27:db:69:d0:f2:59:5f:87:15:78:d0:cf:4f:
         e7:29:86:68:e0:00:63:86:17:ae:79:45:82:b4:97:fa:73:a2:
         63:db:9f:70:f0:cd:aa:b3
-----BEGIN CERTIFICATE-----
MIIGrTCCBJWgAwIBAgICHecwDQYJKoZIhvcNAQEEBQAwgawxCzAJBgNVBAYTAlVT
MQswCQYDVQQIEwJPSDERMA8GA1UEBxMIQ29sdW1idXMxEjAQBgNVBAoTCVZpa2lu
Z1ZQTjEdMBsGA1UECxMUTXlPcmdhbml6YXRpb25hbFVuaXQxFTATBgNVBAMTDFZp
a2luZ1ZQTiBDQTEQMA4GA1UEKRMHRWFzeVJTQTEhMB8GCSqGSIb3DQEJARYSbWVA
bXlob3N0Lm15ZG9tYWluMB4XDTE2MDQwMzA2NDExMVoXDTI2MDQwMTA2NDExMVow
HzEdMBsGA1UEAxMUQ2xpZW50MjI0MkNlcnRmZGM2ZWIwggIiMA0GCSqGSIb3DQEB
AQUAA4ICDwAwggIKAoICAQDDu/78aeppicp0VdQ/H4g4TgIlQ4NHbLYyZrt/VXRp
InTr5j4x919g6WBsLs4yTk+tDLwOsMBO3vYTa9CRRX3C6wPeonfoOCUq0If2vj3K
jko24vZW1/78Zl2cD2Bt1QOilkeQlqCnyOchh4NV5e2/6eLvYcpB9JBBDWUMbHux
Hx8w1E4fTz2A58dZ7Cz6al8fmr8bp0lQgLRc1uncvIEYyoa6KBquoRPuHrgktrib
B9ML+OSzPt5GEx/QrStkHmdnf+T/AMLB1cHKCpPM3JobiOF++rZV7OcLtcJhMfXE
760DB1ujlytU7Nxu1oVicsjBkWksRhUWLetSC7T/FoRYHW196kJUbVr8fOXSdY/Z
2ymiEfRK/0oE6ogYgiOxNzugRPEchjB7XNV46X5Ciiwcj0egbyxYMekUUQSmZcLr
Fi1os8FGnXqki4z9bo+Jewl0+BlLavZ4f2ahZ9Ds+x9B6X/64yH5yBOwkJfkuX0F
PEFy1FTzJUa1kkgp7TXV58XpIe5CFR2kjUINSpiBDjs3I5RzT9OISKoL++7e1uVo
5RyOgOD0Taq//prMhE0oBpJkuazeREGXeCBOWSAymSvn3Ow6DZHsgUMCpzLmUCXB
MXWvdXkDHO7vrLsp1APHNBNrq/foC0+ZJiwwc6tBvKxb6C6EMLsTdaxhHpa7DUY+
kQIDAQABo4IBYzCCAV8wCQYDVR0TBAIwADAtBglghkgBhvhCAQ0EIBYeRWFzeS1S
U0EgR2VuZXJhdGVkIENlcnRpZmljYXRlMB0GA1UdDgQWBBSZUq87DqMBXHpOQn/V
+w/ewmKxxDCB4QYDVR0jBIHZMIHWgBQSzWAE0qCAnnDtxpm4eyzGUv0ZoaGBsqSB
rzCBrDELMAkGA1UEBhMCVVMxCzAJBgNVBAgTAk9IMREwDwYDVQQHEwhDb2x1bWJ1
czESMBAGA1UEChMJVmlraW5nVlBOMR0wGwYDVQQLExRNeU9yZ2FuaXphdGlvbmFs
VW5pdDEVMBMGA1UEAxMMVmlraW5nVlBOIENBMRAwDgYDVQQpEwdFYXN5UlNBMSEw
HwYJKoZIhvcNAQkBFhJtZUBteWhvc3QubXlkb21haW6CCQDPNYXugL8qPjATBgNV
HSUEDDAKBggrBgEFBQcDAjALBgNVHQ8EBAMCB4AwDQYJKoZIhvcNAQEEBQADggIB
AMBx3JqSR94dl6GcgDF1oYYqYhdk6oz61k5wi7+yw+L+jozRmKxxS/lN1dv/9ppE
F34mXpScZJGMOC7xZMmhZdy3tOKo8cj2nMvk7Oudp02Po/mrpxfOSgfo4zq2ENn7
gqnzl3Kv9NZMk4hMeWBtkBi1MgIcric0seXBbrbq8AcX3nn9uOpjMyUU9zd9iavN
rO6s0Q9WTlh1XgAHWLznI/2tkbTulHE1/3OIpoPjqXX0K4TKAN+yL3RBTGP1+6/I
1kArT2PAvXq3Ko02eEzHHlwlctwGsai/hvctC1k8z+JR845GI15qnAZ3+uQCsNEw
o7wDytAEHgAftTnkzrA0cL7kavDu4Os0KoNlsxVJZTKPs8UUgSjr0OeDEsXOOxo4
0ndaQkokbWcvOn9Uo1gmEN2HbFG6kFQqaMeiYGD4+N+5vhM6zDCq19gdWTWc/fGJ
fs7xsUqHRGNVElomHCMYhcrkSfc2/JGzVcVHCpG4IhaDTTYzk2mIZsgQM0Y37Ly7
+gQedNdP3x8Y1ddmYWphyYwzQtC0F6MlsJv/fmow8CY8Jyd14ezT5uclkxhSDeK9
wU8xEqyUPNlfotM0ZlYpUCVazPGCK417hXta/KAhmM54n1w2gSxN6C8IJ9tp0PJZ
X4cVeNDPT+cphmjgAGOGF655RYK0l/pzomPbn3Dwzaqz
-----END CERTIFICATE-----
