Certificate:
    Data:
        Version: 3 (0x2)
        Serial Number: 7682 (0x1e02)
    Signature Algorithm: md5WithRSAEncryption
        Issuer: C=US, ST=OH, L=Columbus, O=VikingVPN, OU=MyOrganizationalUnit, CN=VikingVPN CA/name=EasyRSA/emailAddress=me@myhost.mydomain
        Validity
            Not Before: Apr  6 20:28:00 2016 GMT
            Not After : Apr  4 20:28:00 2026 GMT
        Subject: CN=Client383Cert2048f5
        Subject Public Key Info:
            Public Key Algorithm: rsaEncryption
                Public-Key: (4096 bit)
                Modulus:
                    00:d1:f1:32:09:9e:22:e3:26:6e:d9:bc:1e:32:d0:
                    43:32:06:34:56:d4:37:8b:49:dd:0d:b3:97:e0:70:
                    6b:e3:56:d2:f5:33:af:bf:cf:57:41:b9:07:94:fe:
                    57:76:5e:7b:5f:c0:92:dc:25:50:63:5d:7f:ff:0e:
                    fa:63:c4:f3:6e:a6:4f:12:ef:7c:fb:78:ab:8f:74:
                    be:4b:8e:1c:9e:47:89:bf:40:30:d2:de:b8:8b:79:
                    a6:8b:e1:a0:5d:9b:8b:01:a2:d8:c9:00:e3:5e:55:
                    4d:45:e7:7b:35:24:c3:ba:da:21:a6:d9:3e:2f:b1:
                    15:eb:2a:f0:c3:ea:9e:43:32:27:40:82:84:95:29:
                    1f:ea:df:07:93:04:3e:3d:ba:4a:a2:d6:b3:cd:a7:
                    0b:0e:90:3c:97:c6:39:ad:32:1a:38:4c:86:97:48:
                    aa:5b:1d:b5:f8:14:09:84:19:20:57:e7:2e:aa:1b:
                    bf:95:09:b4:45:b4:61:04:9c:b4:7f:bd:ab:bb:cc:
                    b2:53:9d:ef:68:83:bc:36:cc:78:dd:86:ab:78:55:
                    68:0b:14:d2:31:3a:8d:89:04:db:4a:9e:63:07:fc:
                    30:ab:e0:9f:2c:39:d6:f2:62:89:85:fc:90:fd:df:
                    f2:05:5c:41:ec:fc:da:a1:f0:54:94:a2:81:79:b9:
                    38:dc:93:93:6f:4f:7f:2c:bf:5e:20:33:ea:71:e6:
                    23:03:b0:01:d1:c0:e0:96:db:15:e8:a0:a1:d2:0d:
                    a8:cb:5a:c2:7a:e2:99:89:ff:58:73:76:58:c5:f9:
                    41:c7:0b:52:ca:24:e3:d3:3f:a0:07:3b:14:4a:c2:
                    bb:a6:3a:eb:fb:c3:10:c0:65:f8:a7:87:ae:6c:82:
                    31:d8:42:65:2f:1e:76:2b:e8:c1:07:57:62:7e:ba:
                    d3:e8:a1:ae:99:92:e2:84:82:a1:58:8e:66:de:24:
                    79:93:4f:76:16:2e:f3:8e:40:5a:e1:c6:4a:df:72:
                    61:87:39:52:60:4c:8e:b9:1e:d7:ee:74:13:46:9f:
                    ad:62:a6:19:87:8b:0d:66:28:3c:cb:0f:9e:81:02:
                    33:be:69:ac:2e:96:e7:54:e4:e6:6f:e1:b0:67:2f:
                    7a:e4:4d:3e:7c:55:c5:04:1e:f1:6d:bd:ae:43:32:
                    f3:5f:d9:d8:37:66:2d:09:c8:32:a3:28:a3:27:d0:
                    3f:db:c0:e6:b0:d3:5f:6e:08:25:25:9e:78:b7:ba:
                    99:57:ea:48:f3:1e:60:64:33:6c:83:26:73:f0:92:
                    1e:a9:ed:20:ee:a7:17:a4:1d:21:e4:f0:2a:53:69:
                    e3:4f:86:a1:f9:b0:fa:9d:43:5d:85:54:78:c6:94:
                    2b:0b:05
                Exponent: 65537 (0x10001)
        X509v3 extensions:
            X509v3 Basic Constraints: 
                CA:FALSE
            Netscape Comment: 
                Easy-RSA Generated Certificate
            X509v3 Subject Key Identifier: 
                0C:B3:B1:60:EB:D8:43:96:E9:31:FE:43:FB:99:84:68:B1:C3:0D:59
            X509v3 Authority Key Identifier: 
                keyid:12:CD:60:04:D2:A0:80:9E:70:ED:C6:99:B8:7B:2C:C6:52:FD:19:A1
                DirName:/C=US/ST=OH/L=Columbus/O=VikingVPN/OU=MyOrganizationalUnit/CN=VikingVPN CA/name=EasyRSA/emailAddress=me@myhost.mydomain
                serial:CF:35:85:EE:80:BF:2A:3E

            X509v3 Extended Key Usage: 
                TLS Web Client Authentication
            X509v3 Key Usage: 
                Digital Signature
    Signature Algorithm: md5WithRSAEncryption
         9c:f8:e9:03:74:18:c9:67:1f:40:23:45:88:7a:ed:3a:63:79:
         4c:b3:4d:69:a2:fc:6f:47:b1:79:2b:52:60:06:aa:76:c1:66:
         e0:19:51:f1:7d:e9:80:41:11:79:fd:34:e7:6e:9a:8c:12:38:
         13:13:e7:ef:7d:aa:ce:04:d1:70:7f:58:f1:ce:fe:e9:1d:a4:
         cf:23:c9:d4:e5:48:be:2c:99:b0:6b:7b:c6:df:43:31:62:e1:
         8c:ae:86:df:07:14:3b:da:ca:15:cb:af:9f:a6:37:db:39:a2:
         c5:44:82:26:b6:98:7b:82:71:34:3e:0e:3f:c8:55:1c:07:d7:
         86:70:ad:f2:71:40:5c:f1:78:94:65:88:0b:57:ad:1f:a7:ee:
         2c:ce:b3:4a:74:43:97:56:68:11:0b:b2:55:e5:14:7e:32:1f:
         22:93:b1:d7:c3:58:e2:b0:ee:d9:a5:79:f5:0c:91:c7:d6:92:
         a1:31:3e:5b:85:08:6e:7c:c3:ed:5e:ec:c5:9c:6b:fc:c7:cb:
         8f:d6:33:51:2f:8b:94:0b:d2:4a:f0:0b:b4:ce:8e:e8:47:f2:
         52:09:f0:50:f3:d5:da:95:6b:c0:31:b5:25:dc:be:c4:0b:6f:
         f0:e1:8e:5f:35:d5:d0:f2:42:24:c1:53:7c:df:5c:55:a0:09:
         1b:4f:11:c3:f1:52:38:ad:05:c8:7e:19:c4:1c:0c:90:fe:6a:
         c8:2c:cb:39:72:9a:d1:81:a3:c6:9a:e3:4f:5b:c5:0f:42:8c:
         62:08:6e:9a:06:06:32:ca:d5:6e:07:12:28:5c:23:1f:04:7b:
         40:a7:98:b6:8e:83:e5:9f:44:bc:83:b0:e0:43:43:37:2b:c4:
         bd:48:56:f2:98:12:30:b9:83:d5:a7:00:1e:74:44:01:3a:74:
         9f:2c:2f:46:f8:35:26:d6:b6:56:cc:74:3d:4c:fa:42:6e:4c:
         d4:54:fa:72:6e:52:ef:a3:30:cc:de:47:00:24:c2:d1:79:8d:
         5a:2f:0c:4e:ed:af:35:62:e8:c5:4f:1d:63:86:b6:bf:5e:1b:
         75:5f:32:47:8a:98:e6:14:a3:c9:fe:7a:61:88:6a:53:be:af:
         c7:43:a5:57:b8:ad:bb:0b:f1:82:b5:3b:86:73:4d:1b:ec:91:
         69:a9:0c:61:3e:ab:86:c7:b1:c1:5c:bf:a5:12:b9:5a:6f:67:
         bc:f5:4c:a7:e7:9b:b1:be:2c:76:94:f8:0e:0d:e2:16:a9:e0:
         99:56:fa:71:e4:f4:79:17:0f:07:f5:99:0b:48:12:be:ca:89:
         f3:f8:da:8c:1c:c5:e1:30:0f:e4:a6:34:8f:43:a6:cf:8d:41:
         85:83:1a:db:6b:80:6d:d3
-----BEGIN CERTIFICATE-----
MIIGrDCCBJSgAwIBAgICHgIwDQYJKoZIhvcNAQEEBQAwgawxCzAJBgNVBAYTAlVT
MQswCQYDVQQIEwJPSDERMA8GA1UEBxMIQ29sdW1idXMxEjAQBgNVBAoTCVZpa2lu
Z1ZQTjEdMBsGA1UECxMUTXlPcmdhbml6YXRpb25hbFVuaXQxFTATBgNVBAMTDFZp
a2luZ1ZQTiBDQTEQMA4GA1UEKRMHRWFzeVJTQTEhMB8GCSqGSIb3DQEJARYSbWVA
bXlob3N0Lm15ZG9tYWluMB4XDTE2MDQwNjIwMjgwMFoXDTI2MDQwNDIwMjgwMFow
HjEcMBoGA1UEAxMTQ2xpZW50MzgzQ2VydDIwNDhmNTCCAiIwDQYJKoZIhvcNAQEB
BQADggIPADCCAgoCggIBANHxMgmeIuMmbtm8HjLQQzIGNFbUN4tJ3Q2zl+Bwa+NW
0vUzr7/PV0G5B5T+V3Zee1/AktwlUGNdf/8O+mPE826mTxLvfPt4q490vkuOHJ5H
ib9AMNLeuIt5povhoF2biwGi2MkA415VTUXnezUkw7raIabZPi+xFesq8MPqnkMy
J0CChJUpH+rfB5MEPj26SqLWs82nCw6QPJfGOa0yGjhMhpdIqlsdtfgUCYQZIFfn
Lqobv5UJtEW0YQSctH+9q7vMslOd72iDvDbMeN2Gq3hVaAsU0jE6jYkE20qeYwf8
MKvgnyw51vJiiYX8kP3f8gVcQez82qHwVJSigXm5ONyTk29Pfyy/XiAz6nHmIwOw
AdHA4JbbFeigodINqMtawnrimYn/WHN2WMX5QccLUsok49M/oAc7FErCu6Y66/vD
EMBl+KeHrmyCMdhCZS8edivowQdXYn660+ihrpmS4oSCoViOZt4keZNPdhYu845A
WuHGSt9yYYc5UmBMjrke1+50E0afrWKmGYeLDWYoPMsPnoECM75prC6W51Tk5m/h
sGcveuRNPnxVxQQe8W29rkMy81/Z2DdmLQnIMqMooyfQP9vA5rDTX24IJSWeeLe6
mVfqSPMeYGQzbIMmc/CSHqntIO6nF6QdIeTwKlNp40+Gofmw+p1DXYVUeMaUKwsF
AgMBAAGjggFjMIIBXzAJBgNVHRMEAjAAMC0GCWCGSAGG+EIBDQQgFh5FYXN5LVJT
QSBHZW5lcmF0ZWQgQ2VydGlmaWNhdGUwHQYDVR0OBBYEFAyzsWDr2EOW6TH+Q/uZ
hGixww1ZMIHhBgNVHSMEgdkwgdaAFBLNYATSoICecO3Gmbh7LMZS/RmhoYGypIGv
MIGsMQswCQYDVQQGEwJVUzELMAkGA1UECBMCT0gxETAPBgNVBAcTCENvbHVtYnVz
MRIwEAYDVQQKEwlWaWtpbmdWUE4xHTAbBgNVBAsTFE15T3JnYW5pemF0aW9uYWxV
bml0MRUwEwYDVQQDEwxWaWtpbmdWUE4gQ0ExEDAOBgNVBCkTB0Vhc3lSU0ExITAf
BgkqhkiG9w0BCQEWEm1lQG15aG9zdC5teWRvbWFpboIJAM81he6Avyo+MBMGA1Ud
JQQMMAoGCCsGAQUFBwMCMAsGA1UdDwQEAwIHgDANBgkqhkiG9w0BAQQFAAOCAgEA
nPjpA3QYyWcfQCNFiHrtOmN5TLNNaaL8b0exeStSYAaqdsFm4BlR8X3pgEERef00
526ajBI4ExPn732qzgTRcH9Y8c7+6R2kzyPJ1OVIviyZsGt7xt9DMWLhjK6G3wcU
O9rKFcuvn6Y32zmixUSCJraYe4JxND4OP8hVHAfXhnCt8nFAXPF4lGWIC1etH6fu
LM6zSnRDl1ZoEQuyVeUUfjIfIpOx18NY4rDu2aV59QyRx9aSoTE+W4UIbnzD7V7s
xZxr/MfLj9YzUS+LlAvSSvALtM6O6EfyUgnwUPPV2pVrwDG1Jdy+xAtv8OGOXzXV
0PJCJMFTfN9cVaAJG08Rw/FSOK0FyH4ZxBwMkP5qyCzLOXKa0YGjxprjT1vFD0KM
YghumgYGMsrVbgcSKFwjHwR7QKeYto6D5Z9EvIOw4ENDNyvEvUhW8pgSMLmD1acA
HnREATp0nywvRvg1Jta2Vsx0PUz6Qm5M1FT6cm5S76MwzN5HACTC0XmNWi8MTu2v
NWLoxU8dY4a2v14bdV8yR4qY5hSjyf56YYhqU76vx0OlV7ituwvxgrU7hnNNG+yR
aakMYT6rhsexwVy/pRK5Wm9nvPVMp+ebsb4sdpT4Dg3iFqngmVb6ceT0eRcPB/WZ
C0gSvsqJ8/jajBzF4TAP5KY0j0Omz41BhYMa22uAbdM=
-----END CERTIFICATE-----
