Certificate:
    Data:
        Version: 3 (0x2)
        Serial Number: 7700 (0x1e14)
    Signature Algorithm: md5WithRSAEncryption
        Issuer: C=US, ST=OH, L=Columbus, O=VikingVPN, OU=MyOrganizationalUnit, CN=VikingVPN CA/name=EasyRSA/emailAddress=me@myhost.mydomain
        Validity
            Not Before: Apr  9 10:01:18 2016 GMT
            Not After : Apr  7 10:01:18 2026 GMT
        Subject: CN=Client383Cert95dd08
        Subject Public Key Info:
            Public Key Algorithm: rsaEncryption
                Public-Key: (4096 bit)
                Modulus:
                    00:dc:b6:60:e2:e7:2a:04:fc:62:5a:b1:70:14:e0:
                    43:34:f3:37:70:88:76:74:85:93:17:c0:f7:10:45:
                    fa:93:99:7b:83:98:dd:de:3e:1d:24:ee:2b:5a:38:
                    62:bc:3f:cf:b5:17:78:56:c9:cb:10:48:fe:37:f2:
                    10:fd:97:d5:10:35:83:6c:cf:d4:ce:09:b1:29:82:
                    ca:33:f8:5c:4d:d1:a1:d4:50:40:48:74:54:ab:1c:
                    00:46:f2:39:dc:e0:4f:a3:7a:f1:45:ae:1c:1b:56:
                    8a:c6:a4:5b:e3:3c:f6:1d:61:bc:b4:78:b5:51:89:
                    a5:cd:31:3c:b7:73:e3:8c:16:78:70:e6:21:2d:de:
                    cc:94:34:02:3b:13:38:fc:9c:ef:d3:0d:15:5d:83:
                    64:c8:ba:f9:30:6c:52:ef:98:42:7d:97:4f:9d:30:
                    3d:cd:3e:6d:be:27:17:4f:d4:9a:99:a8:3d:de:71:
                    33:64:00:70:9a:e3:59:3d:21:6b:83:a5:46:9a:75:
                    72:a4:e2:62:44:4f:15:d4:72:14:1f:eb:44:54:1d:
                    18:72:97:1f:a2:69:ac:61:aa:ce:55:e3:71:1d:e9:
                    1d:f2:ff:9f:b3:48:54:2d:d1:52:f9:ed:91:21:59:
                    55:bf:0d:c8:88:f3:c4:99:f2:43:89:b5:78:a6:01:
                    09:91:26:91:25:73:36:64:9f:7e:4a:c6:0b:38:d2:
                    8d:ca:94:c8:56:51:35:96:aa:c8:48:28:cb:dc:45:
                    27:9a:d7:ea:db:9f:0f:99:2f:69:85:e7:62:b5:bb:
                    83:67:a1:19:28:56:33:7f:81:c3:31:d6:1c:3c:41:
                    8c:8c:52:bf:42:1f:5a:db:01:59:e9:b6:e7:9a:85:
                    52:c9:0f:34:a1:bf:fc:8c:ae:97:b9:0b:22:a9:96:
                    65:6c:36:3c:dd:6c:21:00:d6:5e:e8:83:68:c9:52:
                    98:9a:dd:dd:6f:47:96:67:74:af:c2:38:1b:18:df:
                    b3:14:28:6f:84:e3:e0:65:15:97:d9:a1:64:40:96:
                    0a:62:75:e3:27:61:11:72:b3:28:40:09:1c:50:9a:
                    38:e2:a2:5a:fc:c1:c3:06:c5:1d:e3:1f:2e:b3:64:
                    d3:ce:bd:5c:45:1e:7f:71:c3:2e:27:de:c4:47:f4:
                    aa:f4:aa:ca:17:e5:75:95:cd:05:03:4b:b7:63:e0:
                    ff:2b:d9:25:e5:4e:1f:3d:b3:92:f7:6b:e6:05:5b:
                    e1:9a:82:4e:96:21:06:c9:82:2f:d7:a1:1d:06:03:
                    97:aa:26:10:a7:67:1e:64:b9:3a:35:ab:70:1e:43:
                    f2:44:2a:59:23:ca:fe:0d:be:f7:30:cc:66:42:e2:
                    16:7e:9d
                Exponent: 65537 (0x10001)
        X509v3 extensions:
            X509v3 Basic Constraints: 
                CA:FALSE
            Netscape Comment: 
                Easy-RSA Generated Certificate
            X509v3 Subject Key Identifier: 
                59:B9:EE:2D:0A:2C:44:E4:EF:62:8C:27:80:45:DC:DF:77:00:42:13
            X509v3 Authority Key Identifier: 
                keyid:12:CD:60:04:D2:A0:80:9E:70:ED:C6:99:B8:7B:2C:C6:52:FD:19:A1
                DirName:/C=US/ST=OH/L=Columbus/O=VikingVPN/OU=MyOrganizationalUnit/CN=VikingVPN CA/name=EasyRSA/emailAddress=me@myhost.mydomain
                serial:CF:35:85:EE:80:BF:2A:3E

            X509v3 Extended Key Usage: 
                TLS Web Client Authentication
            X509v3 Key Usage: 
                Digital Signature
    Signature Algorithm: md5WithRSAEncryption
         af:12:ff:3e:5b:1b:f3:8c:c5:af:6a:4c:4d:d7:03:f4:32:07:
         e5:5f:e0:f4:f6:74:a7:c5:6a:8e:55:23:b8:7f:8b:56:cb:bf:
         3e:92:91:0e:c2:e7:55:51:c7:11:b3:c5:c8:b4:88:1c:1a:ad:
         64:bd:a9:88:36:44:39:79:14:6c:b8:a3:44:61:ce:fc:5d:78:
         e6:e1:6b:5a:c2:cb:32:8b:c6:1a:c4:2a:40:99:96:c2:d9:4f:
         83:70:c5:fe:f4:06:c5:70:59:e7:3a:86:f7:f7:65:a1:e4:3b:
         03:de:5d:08:4e:1d:87:af:39:76:56:5b:a8:2a:54:b9:b8:d5:
         53:c1:50:27:06:2f:98:dc:31:91:96:71:f5:09:61:8a:55:e9:
         c8:e3:a8:8b:0f:07:07:ae:f6:ec:f2:6b:37:c2:9d:6e:15:91:
         a3:b4:69:09:f7:d5:81:ac:54:5d:90:dc:7d:7a:91:66:d0:6a:
         18:2a:63:36:9c:af:66:e9:d1:a3:e9:b0:fc:4d:4c:32:59:9d:
         f3:72:36:c8:a1:ed:75:d6:e2:43:f1:18:4d:4e:c0:bd:da:0c:
         7e:cc:c8:47:a4:45:90:90:03:0a:bc:51:ab:ac:de:cd:e9:7d:
         0b:3b:fe:8c:4f:92:83:98:eb:7a:87:39:5b:41:30:a9:72:45:
         15:b9:36:67:4d:6a:c9:b9:b4:3d:40:02:47:c4:90:26:02:62:
         86:b6:22:89:7b:da:11:2a:1c:50:c1:39:e1:c3:ed:af:42:ce:
         8f:a0:c0:16:c5:59:77:94:14:bd:3a:e7:1d:e3:00:d6:16:47:
         4f:e5:60:83:8f:9d:b9:8a:42:61:bd:8c:80:b0:97:26:e4:a4:
         68:0b:4d:fc:bd:1f:22:df:ab:d5:cf:b9:6c:3c:a9:9b:d3:20:
         f1:89:1b:9b:c4:35:cd:ff:01:0b:9c:09:29:eb:7b:1e:b2:65:
         9f:88:d9:70:88:8e:1c:b0:99:51:e8:c7:0d:07:f1:5c:81:f5:
         35:ae:29:68:cf:87:3c:21:a6:bc:85:ce:9b:25:0c:03:e7:13:
         68:73:b3:6d:04:07:bd:f8:3d:4f:3a:77:e9:04:aa:59:a3:a3:
         ba:79:d8:24:02:ea:0b:79:65:af:b7:c1:90:53:a1:a3:d0:50:
         06:98:0d:99:11:57:be:12:9a:c5:7e:18:9a:c3:2f:79:7c:a5:
         56:d2:86:59:7a:1d:67:6d:18:fc:0c:84:cf:84:8b:91:15:f4:
         b4:99:bf:4d:ea:38:7c:ea:2a:e3:cb:23:5f:e9:cf:4f:11:e0:
         08:30:08:1b:b0:af:db:ef:b4:07:c2:b2:95:a2:fa:3c:07:f8:
         a2:60:ac:a9:36:63:14:55
-----BEGIN CERTIFICATE-----
MIIGrDCCBJSgAwIBAgICHhQwDQYJKoZIhvcNAQEEBQAwgawxCzAJBgNVBAYTAlVT
MQswCQYDVQQIEwJPSDERMA8GA1UEBxMIQ29sdW1idXMxEjAQBgNVBAoTCVZpa2lu
Z1ZQTjEdMBsGA1UECxMUTXlPcmdhbml6YXRpb25hbFVuaXQxFTATBgNVBAMTDFZp
a2luZ1ZQTiBDQTEQMA4GA1UEKRMHRWFzeVJTQTEhMB8GCSqGSIb3DQEJARYSbWVA
bXlob3N0Lm15ZG9tYWluMB4XDTE2MDQwOTEwMDExOFoXDTI2MDQwNzEwMDExOFow
HjEcMBoGA1UEAxMTQ2xpZW50MzgzQ2VydDk1ZGQwODCCAiIwDQYJKoZIhvcNAQEB
BQADggIPADCCAgoCggIBANy2YOLnKgT8YlqxcBTgQzTzN3CIdnSFkxfA9xBF+pOZ
e4OY3d4+HSTuK1o4Yrw/z7UXeFbJyxBI/jfyEP2X1RA1g2zP1M4JsSmCyjP4XE3R
odRQQEh0VKscAEbyOdzgT6N68UWuHBtWisakW+M89h1hvLR4tVGJpc0xPLdz44wW
eHDmIS3ezJQ0AjsTOPyc79MNFV2DZMi6+TBsUu+YQn2XT50wPc0+bb4nF0/Umpmo
Pd5xM2QAcJrjWT0ha4OlRpp1cqTiYkRPFdRyFB/rRFQdGHKXH6JprGGqzlXjcR3p
HfL/n7NIVC3RUvntkSFZVb8NyIjzxJnyQ4m1eKYBCZEmkSVzNmSffkrGCzjSjcqU
yFZRNZaqyEgoy9xFJ5rX6tufD5kvaYXnYrW7g2ehGShWM3+BwzHWHDxBjIxSv0If
WtsBWem255qFUskPNKG//Iyul7kLIqmWZWw2PN1sIQDWXuiDaMlSmJrd3W9Hlmd0
r8I4GxjfsxQob4Tj4GUVl9mhZECWCmJ14ydhEXKzKEAJHFCaOOKiWvzBwwbFHeMf
LrNk0869XEUef3HDLifexEf0qvSqyhfldZXNBQNLt2Pg/yvZJeVOHz2zkvdr5gVb
4ZqCTpYhBsmCL9ehHQYDl6omEKdnHmS5OjWrcB5D8kQqWSPK/g2+9zDMZkLiFn6d
AgMBAAGjggFjMIIBXzAJBgNVHRMEAjAAMC0GCWCGSAGG+EIBDQQgFh5FYXN5LVJT
QSBHZW5lcmF0ZWQgQ2VydGlmaWNhdGUwHQYDVR0OBBYEFFm57i0KLETk72KMJ4BF
3N93AEITMIHhBgNVHSMEgdkwgdaAFBLNYATSoICecO3Gmbh7LMZS/RmhoYGypIGv
MIGsMQswCQYDVQQGEwJVUzELMAkGA1UECBMCT0gxETAPBgNVBAcTCENvbHVtYnVz
MRIwEAYDVQQKEwlWaWtpbmdWUE4xHTAbBgNVBAsTFE15T3JnYW5pemF0aW9uYWxV
bml0MRUwEwYDVQQDEwxWaWtpbmdWUE4gQ0ExEDAOBgNVBCkTB0Vhc3lSU0ExITAf
BgkqhkiG9w0BCQEWEm1lQG15aG9zdC5teWRvbWFpboIJAM81he6Avyo+MBMGA1Ud
JQQMMAoGCCsGAQUFBwMCMAsGA1UdDwQEAwIHgDANBgkqhkiG9w0BAQQFAAOCAgEA
rxL/Plsb84zFr2pMTdcD9DIH5V/g9PZ0p8VqjlUjuH+LVsu/PpKRDsLnVVHHEbPF
yLSIHBqtZL2piDZEOXkUbLijRGHO/F145uFrWsLLMovGGsQqQJmWwtlPg3DF/vQG
xXBZ5zqG9/dloeQ7A95dCE4dh685dlZbqCpUubjVU8FQJwYvmNwxkZZx9QlhilXp
yOOoiw8HB6727PJrN8KdbhWRo7RpCffVgaxUXZDcfXqRZtBqGCpjNpyvZunRo+mw
/E1MMlmd83I2yKHtddbiQ/EYTU7AvdoMfszIR6RFkJADCrxRq6zezel9Czv+jE+S
g5jreoc5W0EwqXJFFbk2Z01qybm0PUACR8SQJgJihrYiiXvaESocUME54cPtr0LO
j6DAFsVZd5QUvTrnHeMA1hZHT+Vgg4+duYpCYb2MgLCXJuSkaAtN/L0fIt+r1c+5
bDypm9Mg8Ykbm8Q1zf8BC5wJKet7HrJln4jZcIiOHLCZUejHDQfxXIH1Na4paM+H
PCGmvIXOmyUMA+cTaHOzbQQHvfg9Tzp36QSqWaOjunnYJALqC3llr7fBkFOho9BQ
BpgNmRFXvhKaxX4YmsMveXylVtKGWXodZ20Y/AyEz4SLkRX0tJm/Teo4fOoq48sj
X+nPTxHgCDAIG7Cv2++0B8KylaL6PAf4omCsqTZjFFU=
-----END CERTIFICATE-----
