Certificate:
    Data:
        Version: 3 (0x2)
        Serial Number: 7738 (0x1e3a)
    Signature Algorithm: md5WithRSAEncryption
        Issuer: C=US, ST=OH, L=Columbus, O=VikingVPN, OU=MyOrganizationalUnit, CN=VikingVPN CA/name=EasyRSA/emailAddress=me@myhost.mydomain
        Validity
            Not Before: Apr 13 06:55:12 2016 GMT
            Not After : Apr 11 06:55:12 2026 GMT
        Subject: CN=Client1797Cert2f8c4e
        Subject Public Key Info:
            Public Key Algorithm: rsaEncryption
                Public-Key: (4096 bit)
                Modulus:
                    00:f0:2a:ac:cd:88:dd:35:ac:50:82:27:ab:c2:7e:
                    d2:33:91:44:42:77:71:9f:b3:74:47:2a:06:bb:0e:
                    c2:39:61:15:0f:3d:4b:b2:11:ff:94:da:b8:10:f6:
                    39:8f:b8:a2:c2:b0:96:c2:14:d3:f0:3e:e0:e3:2a:
                    15:0b:ff:1e:dc:75:8f:e5:49:37:47:75:ca:8f:90:
                    85:b6:64:43:0a:6e:8b:24:6e:69:4e:ca:a0:28:c9:
                    17:40:bd:42:69:c4:93:83:a4:0a:61:b2:cc:9b:f5:
                    3f:f2:e5:66:c7:e1:7d:b4:6d:d6:b5:18:a7:93:59:
                    9a:c8:e1:1d:bd:e0:26:a1:d3:7a:a3:0f:4e:4d:1d:
                    b0:50:91:bc:e1:61:27:06:84:f6:4d:59:37:36:01:
                    c0:ee:61:74:38:e3:7e:e4:33:7e:c9:d1:50:af:3f:
                    cb:4e:8a:f6:4b:b0:f5:9d:2f:95:5c:38:14:03:6d:
                    69:1f:cd:8b:3e:fe:d4:a4:cd:e1:02:58:f7:de:d4:
                    27:3a:49:82:f2:75:8b:57:c0:44:92:0e:5e:2c:e4:
                    2a:7d:19:1e:5d:38:64:ab:3a:06:53:2f:20:c7:d1:
                    16:cb:6b:66:c9:63:f2:2a:77:c3:1e:b2:71:8d:f4:
                    69:a5:5a:f9:03:ff:f7:21:a5:0e:e4:a7:6d:48:af:
                    17:4a:b8:b0:b4:ef:3b:5d:20:3e:26:21:c5:63:fe:
                    9b:62:b2:28:e2:20:f3:94:9f:0d:af:22:46:c5:7d:
                    8a:aa:c5:06:4c:2a:14:7f:e7:94:26:3b:eb:fa:63:
                    7a:b7:d9:f8:4c:df:33:67:1e:58:89:ee:cd:62:7a:
                    e8:db:ce:b2:ce:22:80:08:a5:04:7c:a0:5e:16:4b:
                    bd:15:86:23:c7:81:c5:40:28:c1:80:dd:8b:ed:ce:
                    eb:b4:82:96:d4:9a:61:7f:39:c2:29:41:21:a0:6d:
                    3a:74:f2:fb:76:9a:f9:4a:34:d1:6d:49:08:e7:b1:
                    27:6f:e4:b5:90:48:fc:0a:63:0a:32:1a:ef:2f:69:
                    23:ae:b5:73:42:6e:a6:c7:d7:3e:c8:b8:80:ce:db:
                    f0:5a:51:6c:0f:4e:30:b1:0d:04:7d:42:af:fd:7f:
                    79:ff:f9:d4:c5:b5:84:f8:60:2d:d4:3e:17:de:34:
                    9b:fd:09:3e:9b:aa:00:22:4c:b8:1d:e7:9c:69:8f:
                    45:ba:61:b4:aa:03:59:71:6e:67:e2:29:6e:1d:b3:
                    35:58:8c:7f:4b:9e:43:11:f9:91:ab:bb:da:86:b1:
                    b0:62:4e:a5:ed:9f:5b:9f:52:ad:6d:11:5a:70:df:
                    72:2d:36:5f:f1:5d:d8:9a:bd:3b:5e:ca:03:1d:1c:
                    f2:3d:77
                Exponent: 65537 (0x10001)
        X509v3 extensions:
            X509v3 Basic Constraints: 
                CA:FALSE
            Netscape Comment: 
                Easy-RSA Generated Certificate
            X509v3 Subject Key Identifier: 
                53:CA:81:6E:0D:9C:76:18:62:F7:40:42:16:3E:FD:10:87:FA:9A:50
            X509v3 Authority Key Identifier: 
                keyid:12:CD:60:04:D2:A0:80:9E:70:ED:C6:99:B8:7B:2C:C6:52:FD:19:A1
                DirName:/C=US/ST=OH/L=Columbus/O=VikingVPN/OU=MyOrganizationalUnit/CN=VikingVPN CA/name=EasyRSA/emailAddress=me@myhost.mydomain
                serial:CF:35:85:EE:80:BF:2A:3E

            X509v3 Extended Key Usage: 
                TLS Web Client Authentication
            X509v3 Key Usage: 
                Digital Signature
    Signature Algorithm: md5WithRSAEncryption
         e0:64:6e:66:80:c8:67:ac:28:37:ab:d6:da:b4:fc:15:95:f1:
         b0:42:48:1e:ed:82:fb:cb:9c:e1:18:32:89:d6:23:56:03:75:
         7e:1c:f3:f0:0c:d1:22:76:de:42:52:24:46:65:db:ae:64:c2:
         be:81:2a:0a:b6:a3:93:0c:ff:80:ac:2b:bc:e3:ef:c0:8b:dc:
         c3:6d:16:d2:e8:1b:98:7c:35:5b:dd:08:02:f7:51:0c:0e:b7:
         60:f8:a0:ee:43:ad:b8:d4:74:cf:42:e5:e6:eb:ab:8d:d9:b0:
         10:cf:8e:2a:94:4b:ae:5e:f7:f7:e9:70:44:52:17:69:96:10:
         64:74:c5:c8:07:df:ab:65:41:2d:66:1f:c1:09:c7:60:1c:d2:
         17:e8:1a:4e:69:00:02:f0:26:ed:13:7f:ae:a3:3c:88:1c:69:
         63:db:5d:1d:fe:ed:22:7e:21:51:55:74:cf:c2:fd:6f:41:9c:
         92:36:06:94:4f:f3:08:86:39:76:68:6c:5f:49:44:35:8f:fd:
         a2:77:13:0d:ce:3d:fb:8e:e2:15:47:64:5e:d1:79:d8:5a:9f:
         7f:21:04:ba:05:af:d4:43:75:e4:8f:4d:03:0a:8e:d7:81:f9:
         68:2f:09:2a:ef:37:c8:37:da:9b:22:73:d2:43:88:dc:72:d1:
         90:10:d0:e3:1a:a9:6b:df:95:6b:39:21:95:2d:4c:8d:e3:ee:
         1c:f7:48:8a:a5:8e:5c:3a:50:b6:82:d6:87:64:88:2c:17:2a:
         9c:05:3b:c5:17:9e:19:4f:54:e0:cf:8e:30:33:40:92:d4:91:
         5b:37:0a:3d:63:b2:cf:d7:9b:23:ce:dc:7c:de:ec:fa:97:b3:
         70:f2:28:58:02:84:25:2a:23:05:a6:ba:22:24:82:cf:31:f2:
         6b:06:92:0f:0c:a0:c9:cb:0f:15:91:c1:cf:96:89:6f:bd:1d:
         b1:e1:a4:84:71:00:8e:58:d8:17:db:5d:cc:9b:60:e6:43:2d:
         38:f4:aa:8c:9c:e4:b7:80:62:77:89:00:b9:20:91:85:a9:50:
         b2:f2:32:70:69:1b:6e:e5:23:0b:c9:67:36:d3:ff:53:30:f8:
         57:3b:d9:3c:06:65:d5:ac:25:2b:a1:0c:bf:e1:e7:f4:ea:aa:
         0e:57:14:f7:38:13:89:21:c6:a1:de:5c:d5:a7:50:32:fe:f8:
         b0:d3:28:1d:04:dd:c4:98:b3:61:7d:1a:eb:7f:29:eb:1c:77:
         f4:03:d0:23:c5:e4:7a:ad:1b:3b:9b:19:9c:c8:9c:b6:80:90:
         ad:6b:00:6c:9c:04:6f:b2:1a:49:db:cf:fa:d8:67:90:3d:8c:
         cd:4a:eb:85:93:1a:5b:9e
-----BEGIN CERTIFICATE-----
MIIGrTCCBJWgAwIBAgICHjowDQYJKoZIhvcNAQEEBQAwgawxCzAJBgNVBAYTAlVT
MQswCQYDVQQIEwJPSDERMA8GA1UEBxMIQ29sdW1idXMxEjAQBgNVBAoTCVZpa2lu
Z1ZQTjEdMBsGA1UECxMUTXlPcmdhbml6YXRpb25hbFVuaXQxFTATBgNVBAMTDFZp
a2luZ1ZQTiBDQTEQMA4GA1UEKRMHRWFzeVJTQTEhMB8GCSqGSIb3DQEJARYSbWVA
bXlob3N0Lm15ZG9tYWluMB4XDTE2MDQxMzA2NTUxMloXDTI2MDQxMTA2NTUxMlow
HzEdMBsGA1UEAxMUQ2xpZW50MTc5N0NlcnQyZjhjNGUwggIiMA0GCSqGSIb3DQEB
AQUAA4ICDwAwggIKAoICAQDwKqzNiN01rFCCJ6vCftIzkURCd3Gfs3RHKga7DsI5
YRUPPUuyEf+U2rgQ9jmPuKLCsJbCFNPwPuDjKhUL/x7cdY/lSTdHdcqPkIW2ZEMK
boskbmlOyqAoyRdAvUJpxJODpAphssyb9T/y5WbH4X20bda1GKeTWZrI4R294Cah
03qjD05NHbBQkbzhYScGhPZNWTc2AcDuYXQ4437kM37J0VCvP8tOivZLsPWdL5Vc
OBQDbWkfzYs+/tSkzeECWPfe1Cc6SYLydYtXwESSDl4s5Cp9GR5dOGSrOgZTLyDH
0RbLa2bJY/Iqd8MesnGN9GmlWvkD//chpQ7kp21IrxdKuLC07ztdID4mIcVj/pti
sijiIPOUnw2vIkbFfYqqxQZMKhR/55QmO+v6Y3q32fhM3zNnHliJ7s1ieujbzrLO
IoAIpQR8oF4WS70VhiPHgcVAKMGA3Yvtzuu0gpbUmmF/OcIpQSGgbTp08vt2mvlK
NNFtSQjnsSdv5LWQSPwKYwoyGu8vaSOutXNCbqbH1z7IuIDO2/BaUWwPTjCxDQR9
Qq/9f3n/+dTFtYT4YC3UPhfeNJv9CT6bqgAiTLgd55xpj0W6YbSqA1lxbmfiKW4d
szVYjH9LnkMR+ZGru9qGsbBiTqXtn1ufUq1tEVpw33ItNl/xXdiavTteygMdHPI9
dwIDAQABo4IBYzCCAV8wCQYDVR0TBAIwADAtBglghkgBhvhCAQ0EIBYeRWFzeS1S
U0EgR2VuZXJhdGVkIENlcnRpZmljYXRlMB0GA1UdDgQWBBRTyoFuDZx2GGL3QEIW
Pv0Qh/qaUDCB4QYDVR0jBIHZMIHWgBQSzWAE0qCAnnDtxpm4eyzGUv0ZoaGBsqSB
rzCBrDELMAkGA1UEBhMCVVMxCzAJBgNVBAgTAk9IMREwDwYDVQQHEwhDb2x1bWJ1
czESMBAGA1UEChMJVmlraW5nVlBOMR0wGwYDVQQLExRNeU9yZ2FuaXphdGlvbmFs
VW5pdDEVMBMGA1UEAxMMVmlraW5nVlBOIENBMRAwDgYDVQQpEwdFYXN5UlNBMSEw
HwYJKoZIhvcNAQkBFhJtZUBteWhvc3QubXlkb21haW6CCQDPNYXugL8qPjATBgNV
HSUEDDAKBggrBgEFBQcDAjALBgNVHQ8EBAMCB4AwDQYJKoZIhvcNAQEEBQADggIB
AOBkbmaAyGesKDer1tq0/BWV8bBCSB7tgvvLnOEYMonWI1YDdX4c8/AM0SJ23kJS
JEZl265kwr6BKgq2o5MM/4CsK7zj78CL3MNtFtLoG5h8NVvdCAL3UQwOt2D4oO5D
rbjUdM9C5ebrq43ZsBDPjiqUS65e9/fpcERSF2mWEGR0xcgH36tlQS1mH8EJx2Ac
0hfoGk5pAALwJu0Tf66jPIgcaWPbXR3+7SJ+IVFVdM/C/W9BnJI2BpRP8wiGOXZo
bF9JRDWP/aJ3Ew3OPfuO4hVHZF7Redhan38hBLoFr9RDdeSPTQMKjteB+WgvCSrv
N8g32psic9JDiNxy0ZAQ0OMaqWvflWs5IZUtTI3j7hz3SIqljlw6ULaC1odkiCwX
KpwFO8UXnhlPVODPjjAzQJLUkVs3Cj1jss/XmyPO3Hze7PqXs3DyKFgChCUqIwWm
uiIkgs8x8msGkg8MoMnLDxWRwc+WiW+9HbHhpIRxAI5Y2BfbXcybYOZDLTj0qoyc
5LeAYneJALkgkYWpULLyMnBpG27lIwvJZzbT/1Mw+Fc72TwGZdWsJSuhDL/h5/Tq
qg5XFPc4E4khxqHeXNWnUDL++LDTKB0E3cSYs2F9Gut/Kescd/QD0CPF5HqtGzub
GZzInLaAkK1rAGycBG+yGknbz/rYZ5A9jM1K64WTGlue
-----END CERTIFICATE-----
