Certificate:
    Data:
        Version: 3 (0x2)
        Serial Number: 7742 (0x1e3e)
    Signature Algorithm: md5WithRSAEncryption
        Issuer: C=US, ST=OH, L=Columbus, O=VikingVPN, OU=MyOrganizationalUnit, CN=VikingVPN CA/name=EasyRSA/emailAddress=me@myhost.mydomain
        Validity
            Not Before: Apr 13 20:09:03 2016 GMT
            Not After : Apr 11 20:09:03 2026 GMT
        Subject: CN=Client2257Certcbdfa2
        Subject Public Key Info:
            Public Key Algorithm: rsaEncryption
                Public-Key: (4096 bit)
                Modulus:
                    00:bf:a7:b2:8c:c8:ac:e0:c1:44:7e:63:0a:2a:38:
                    48:48:5b:d8:7d:20:8e:92:81:43:87:c9:13:8f:45:
                    45:9e:31:59:b8:86:29:2c:dd:34:b5:9e:03:87:28:
                    49:40:71:54:84:26:84:c1:2c:c1:be:46:06:1b:0a:
                    5b:84:c1:42:66:06:1c:02:54:20:10:c6:44:39:b1:
                    39:87:35:32:aa:2a:6a:81:7d:5f:af:16:73:01:f7:
                    07:ec:1d:ab:e1:01:cb:a5:9e:dd:f5:9d:22:9f:94:
                    5c:87:c1:ca:7b:1e:4e:a3:32:8f:57:38:8a:8a:b8:
                    32:c1:be:85:8e:4f:da:a8:97:ae:b5:b4:c3:c0:f9:
                    9d:21:24:69:01:ab:e7:63:5b:44:ae:d3:1d:90:69:
                    1f:b2:25:22:d8:0c:c8:9d:e8:ec:ca:c4:1c:02:04:
                    fe:de:58:4d:99:fb:c6:9d:aa:73:3b:71:19:e7:4d:
                    ab:a5:23:86:4e:98:81:7d:3b:56:e8:89:b1:a6:82:
                    49:a2:fa:33:9b:68:41:05:51:a4:cb:20:ec:7d:ce:
                    3b:96:2f:a1:34:d0:23:7f:0b:4c:02:e0:c2:b0:bf:
                    7a:d6:aa:ca:32:09:f1:0e:20:0c:c5:3f:12:5e:11:
                    03:c0:d6:06:83:63:ee:ce:da:9e:18:ff:bd:ee:d2:
                    e7:5b:40:ee:10:2b:5a:b4:f7:f3:d4:96:85:7c:47:
                    15:c3:3a:66:97:2e:a6:13:42:cd:0a:bd:ee:1e:a5:
                    8a:b2:1d:c5:63:99:c8:65:64:24:fb:c7:4a:0b:56:
                    f8:7c:3b:21:45:dc:59:14:aa:72:e3:0e:66:9b:e7:
                    22:af:42:95:3a:55:9f:56:c8:02:a8:1d:8f:95:4d:
                    4f:95:74:d5:81:5e:5b:c1:e8:ae:c1:82:d0:4f:31:
                    42:c1:fa:da:a4:69:8a:61:3a:d2:f1:43:0e:71:6a:
                    a0:32:0e:14:e4:01:25:c8:b3:40:18:b0:ca:b0:6b:
                    43:03:59:33:ed:86:01:67:11:98:b1:64:e8:1f:04:
                    28:fa:e5:64:45:88:4b:15:0b:cf:2a:00:df:3b:32:
                    fb:03:4e:e7:e3:6e:2d:fd:cc:ed:46:f3:70:f9:39:
                    1c:05:69:b2:d9:b4:5e:23:fa:b8:7e:ad:01:62:a5:
                    35:03:32:6c:36:c0:a2:c2:04:fe:61:e1:9c:30:bc:
                    6a:11:df:28:4e:ca:af:4d:66:e3:4e:cb:09:6b:03:
                    b4:f7:2d:9d:ef:18:61:e8:f7:81:06:ec:f2:9c:34:
                    06:5f:9a:07:5b:9d:e6:65:5a:7a:7e:b8:86:8b:b0:
                    dc:b1:70:02:9e:46:fa:19:9e:2e:af:5f:7f:48:09:
                    b2:01:1d
                Exponent: 65537 (0x10001)
        X509v3 extensions:
            X509v3 Basic Constraints: 
                CA:FALSE
            Netscape Comment: 
                Easy-RSA Generated Certificate
            X509v3 Subject Key Identifier: 
                FA:02:75:30:83:D8:BF:D2:36:7E:95:EE:96:A8:74:7E:A0:D4:91:38
            X509v3 Authority Key Identifier: 
                keyid:12:CD:60:04:D2:A0:80:9E:70:ED:C6:99:B8:7B:2C:C6:52:FD:19:A1
                DirName:/C=US/ST=OH/L=Columbus/O=VikingVPN/OU=MyOrganizationalUnit/CN=VikingVPN CA/name=EasyRSA/emailAddress=me@myhost.mydomain
                serial:CF:35:85:EE:80:BF:2A:3E

            X509v3 Extended Key Usage: 
                TLS Web Client Authentication
            X509v3 Key Usage: 
                Digital Signature
    Signature Algorithm: md5WithRSAEncryption
         0e:5b:eb:42:02:cc:1c:ae:94:3b:1b:cd:30:22:06:4a:1d:2a:
         91:e7:89:63:d8:11:57:cb:9c:29:83:86:dc:aa:79:83:58:87:
         24:89:03:3f:56:73:4f:29:9f:2f:49:5e:e7:52:b1:5d:71:bc:
         db:f3:a5:01:29:82:f8:73:89:32:b8:55:3a:da:09:86:9b:74:
         5f:d3:e3:d2:91:4f:29:35:93:e5:5b:cd:9d:32:e9:5a:6f:82:
         37:c7:5e:d2:c5:51:79:c3:40:e2:37:6b:93:6e:3c:33:d9:53:
         a1:71:20:71:c1:6e:85:51:c7:2b:c1:e9:57:39:46:a4:ed:8b:
         b9:27:ca:69:7e:17:e8:21:c0:75:6d:4e:ca:b8:8b:e5:fd:86:
         3f:46:b4:6b:33:3c:7f:18:81:58:5e:ba:2d:1f:af:d6:8d:2b:
         a7:16:97:9b:40:14:54:5b:7d:16:92:7b:15:cb:69:b2:d6:90:
         93:9a:08:fa:59:41:d9:71:32:c1:66:74:1e:33:91:28:4d:c4:
         3d:9c:e8:fd:de:2e:c4:c5:cf:dc:8c:fd:e7:91:ba:05:b0:d9:
         9a:9a:78:90:75:17:1b:af:6e:a1:5b:6c:a8:21:4b:74:69:17:
         e1:99:80:5d:cb:2d:67:eb:69:3f:f8:94:81:c5:c8:01:0d:de:
         b0:a0:6d:d0:68:42:b4:bc:38:9d:9e:ec:2d:b8:85:44:bd:29:
         6b:29:0c:d1:ed:f6:0d:ff:cb:5a:a4:a0:e9:b9:fa:a1:84:91:
         0b:e6:04:08:25:bf:80:f2:5e:f9:c7:ae:6c:4f:b6:0b:96:88:
         17:cb:89:e0:a0:7d:80:85:3d:3f:15:7a:73:f8:b2:45:d6:ae:
         82:93:49:94:9b:34:7e:ab:93:4e:e0:6a:bf:40:bd:ca:79:b5:
         83:4a:00:83:97:e3:54:e6:19:8d:c9:4e:5e:6a:a2:df:ff:1f:
         d4:b6:f2:43:b1:b1:cb:a7:14:43:f1:39:1a:31:09:af:8f:aa:
         dc:7a:99:62:69:21:da:5a:ed:66:d4:aa:7f:cf:90:be:eb:14:
         b6:ba:06:4f:56:06:1d:79:8a:c9:a0:5b:36:a5:36:20:33:aa:
         83:a2:02:56:73:f3:7f:f2:cc:c3:7c:3e:2a:ee:b2:38:8e:0a:
         79:b9:d2:fa:83:a3:24:f1:5c:c4:db:74:56:61:3f:56:fe:4c:
         7c:34:66:cc:14:7b:e3:49:da:72:12:d0:93:4d:e5:dc:da:67:
         fc:4c:61:e0:6f:23:8a:f3:29:80:62:c7:b1:17:a9:3b:5a:7f:
         2f:03:60:33:7d:6f:cb:6d:a6:3b:14:af:ad:07:5c:a0:3d:91:
         4e:6d:95:c1:72:36:a0:ac
-----BEGIN CERTIFICATE-----
MIIGrTCCBJWgAwIBAgICHj4wDQYJKoZIhvcNAQEEBQAwgawxCzAJBgNVBAYTAlVT
MQswCQYDVQQIEwJPSDERMA8GA1UEBxMIQ29sdW1idXMxEjAQBgNVBAoTCVZpa2lu
Z1ZQTjEdMBsGA1UECxMUTXlPcmdhbml6YXRpb25hbFVuaXQxFTATBgNVBAMTDFZp
a2luZ1ZQTiBDQTEQMA4GA1UEKRMHRWFzeVJTQTEhMB8GCSqGSIb3DQEJARYSbWVA
bXlob3N0Lm15ZG9tYWluMB4XDTE2MDQxMzIwMDkwM1oXDTI2MDQxMTIwMDkwM1ow
HzEdMBsGA1UEAxMUQ2xpZW50MjI1N0NlcnRjYmRmYTIwggIiMA0GCSqGSIb3DQEB
AQUAA4ICDwAwggIKAoICAQC/p7KMyKzgwUR+YwoqOEhIW9h9II6SgUOHyROPRUWe
MVm4hiks3TS1ngOHKElAcVSEJoTBLMG+RgYbCluEwUJmBhwCVCAQxkQ5sTmHNTKq
KmqBfV+vFnMB9wfsHavhAculnt31nSKflFyHwcp7Hk6jMo9XOIqKuDLBvoWOT9qo
l661tMPA+Z0hJGkBq+djW0Su0x2QaR+yJSLYDMid6OzKxBwCBP7eWE2Z+8adqnM7
cRnnTaulI4ZOmIF9O1boibGmgkmi+jObaEEFUaTLIOx9zjuWL6E00CN/C0wC4MKw
v3rWqsoyCfEOIAzFPxJeEQPA1gaDY+7O2p4Y/73u0udbQO4QK1q09/PUloV8RxXD
OmaXLqYTQs0Kve4epYqyHcVjmchlZCT7x0oLVvh8OyFF3FkUqnLjDmab5yKvQpU6
VZ9WyAKoHY+VTU+VdNWBXlvB6K7BgtBPMULB+tqkaYphOtLxQw5xaqAyDhTkASXI
s0AYsMqwa0MDWTPthgFnEZixZOgfBCj65WRFiEsVC88qAN87MvsDTufjbi39zO1G
83D5ORwFabLZtF4j+rh+rQFipTUDMmw2wKLCBP5h4ZwwvGoR3yhOyq9NZuNOywlr
A7T3LZ3vGGHo94EG7PKcNAZfmgdbneZlWnp+uIaLsNyxcAKeRvoZni6vX39ICbIB
HQIDAQABo4IBYzCCAV8wCQYDVR0TBAIwADAtBglghkgBhvhCAQ0EIBYeRWFzeS1S
U0EgR2VuZXJhdGVkIENlcnRpZmljYXRlMB0GA1UdDgQWBBT6AnUwg9i/0jZ+le6W
qHR+oNSRODCB4QYDVR0jBIHZMIHWgBQSzWAE0qCAnnDtxpm4eyzGUv0ZoaGBsqSB
rzCBrDELMAkGA1UEBhMCVVMxCzAJBgNVBAgTAk9IMREwDwYDVQQHEwhDb2x1bWJ1
czESMBAGA1UEChMJVmlraW5nVlBOMR0wGwYDVQQLExRNeU9yZ2FuaXphdGlvbmFs
VW5pdDEVMBMGA1UEAxMMVmlraW5nVlBOIENBMRAwDgYDVQQpEwdFYXN5UlNBMSEw
HwYJKoZIhvcNAQkBFhJtZUBteWhvc3QubXlkb21haW6CCQDPNYXugL8qPjATBgNV
HSUEDDAKBggrBgEFBQcDAjALBgNVHQ8EBAMCB4AwDQYJKoZIhvcNAQEEBQADggIB
AA5b60ICzByulDsbzTAiBkodKpHniWPYEVfLnCmDhtyqeYNYhySJAz9Wc08pny9J
XudSsV1xvNvzpQEpgvhziTK4VTraCYabdF/T49KRTyk1k+VbzZ0y6VpvgjfHXtLF
UXnDQOI3a5NuPDPZU6FxIHHBboVRxyvB6Vc5RqTti7knyml+F+ghwHVtTsq4i+X9
hj9GtGszPH8YgVheui0fr9aNK6cWl5tAFFRbfRaSexXLabLWkJOaCPpZQdlxMsFm
dB4zkShNxD2c6P3eLsTFz9yM/eeRugWw2ZqaeJB1FxuvbqFbbKghS3RpF+GZgF3L
LWfraT/4lIHFyAEN3rCgbdBoQrS8OJ2e7C24hUS9KWspDNHt9g3/y1qkoOm5+qGE
kQvmBAglv4DyXvnHrmxPtguWiBfLieCgfYCFPT8VenP4skXWroKTSZSbNH6rk07g
ar9Avcp5tYNKAIOX41TmGY3JTl5qot//H9S28kOxscunFEPxORoxCa+Pqtx6mWJp
Idpa7WbUqn/PkL7rFLa6Bk9WBh15ismgWzalNiAzqoOiAlZz83/yzMN8PirusjiO
Cnm50vqDoyTxXMTbdFZhP1b+THw0ZswUe+NJ2nIS0JNN5dzaZ/xMYeBvI4rzKYBi
x7EXqTtafy8DYDN9b8ttpjsUr60HXKA9kU5tlcFyNqCs
-----END CERTIFICATE-----
