Certificate:
    Data:
        Version: 3 (0x2)
        Serial Number: 7755 (0x1e4b)
    Signature Algorithm: md5WithRSAEncryption
        Issuer: C=US, ST=OH, L=Columbus, O=VikingVPN, OU=MyOrganizationalUnit, CN=VikingVPN CA/name=EasyRSA/emailAddress=me@myhost.mydomain
        Validity
            Not Before: Apr 15 17:14:38 2016 GMT
            Not After : Apr 13 17:14:38 2026 GMT
        Subject: CN=Client1475Cert1a843b
        Subject Public Key Info:
            Public Key Algorithm: rsaEncryption
                Public-Key: (4096 bit)
                Modulus:
                    00:c6:e2:56:35:df:31:87:f7:02:b6:da:9b:df:0d:
                    bc:86:e7:04:7f:1a:c8:04:c2:e3:d0:64:9b:ff:08:
                    1e:da:f1:0c:53:d4:d2:3f:ce:8f:27:61:04:62:8e:
                    3f:92:80:f9:e2:c2:03:e4:0d:dc:7a:17:80:99:db:
                    14:4d:cd:c8:01:b1:40:2e:ad:b7:cd:d9:d4:b7:f8:
                    ab:e9:13:19:0b:00:62:07:94:73:fc:58:33:a9:fe:
                    3c:b5:57:20:07:77:3f:1a:61:20:2a:1a:6b:7f:43:
                    9d:05:04:37:3b:64:4c:42:f3:a3:d8:64:33:7f:89:
                    c2:c3:73:d2:94:1b:e9:3c:7c:01:4f:a9:67:de:59:
                    24:58:7c:d1:b7:80:15:60:e2:d0:51:2e:df:21:ca:
                    6f:bc:4c:fc:6b:ad:66:4d:42:64:77:0b:59:1d:46:
                    8a:a9:7a:52:89:27:40:03:3c:85:20:89:c0:86:25:
                    08:a0:7b:dc:c1:e5:89:a3:78:a7:ed:98:38:fd:ae:
                    bd:08:22:1c:38:27:dc:69:56:81:b5:d2:26:73:bf:
                    8a:58:f2:35:21:c3:51:ec:e6:fe:cd:03:19:b2:99:
                    ee:67:b7:9b:d6:f8:a3:73:e6:89:78:58:d3:40:ef:
                    a7:73:20:6f:69:33:b9:92:fd:45:e2:1d:e0:63:c8:
                    02:f2:e9:20:2c:d2:85:19:b3:46:43:7b:23:7c:61:
                    bf:6f:b9:0f:51:50:7a:d9:46:8d:7d:42:b2:1f:ab:
                    0d:10:04:71:2d:3e:06:26:cd:aa:90:3d:56:2b:fc:
                    9a:58:a5:72:b9:70:eb:e7:7e:b2:6c:95:74:27:a9:
                    fe:94:52:9d:9b:f4:dc:57:6e:bf:13:d9:13:3d:33:
                    d7:2f:fe:ab:b5:b4:a9:2b:b2:5c:56:7e:0d:cc:63:
                    b5:5a:57:a9:61:54:d0:69:61:6c:e0:77:e3:42:9a:
                    d0:1e:36:f4:46:67:1e:26:ca:63:bd:c1:aa:01:96:
                    34:0a:f6:74:dc:7a:5d:36:5d:1f:c8:bd:d6:43:0b:
                    ee:be:0e:a4:88:18:7b:71:86:a7:7b:0c:63:51:b9:
                    fd:ea:0b:38:13:c9:97:05:91:d7:de:96:ef:33:70:
                    51:94:95:ef:b6:29:50:a2:ee:e1:a3:2f:7a:b2:aa:
                    16:77:98:9a:1e:a6:6f:e2:a5:46:ed:d3:de:c2:e8:
                    5f:9f:f4:98:a8:93:2c:65:ac:28:18:12:73:0e:17:
                    96:df:26:8c:2c:0a:0d:45:65:bb:0a:69:4b:d0:a9:
                    13:d0:65:d7:0c:f7:75:7b:56:90:f3:36:df:d6:c8:
                    60:48:3a:c5:9e:36:b7:2f:c7:3c:04:0a:40:e1:cb:
                    2d:1d:19
                Exponent: 65537 (0x10001)
        X509v3 extensions:
            X509v3 Basic Constraints: 
                CA:FALSE
            Netscape Comment: 
                Easy-RSA Generated Certificate
            X509v3 Subject Key Identifier: 
                C5:63:76:2A:D3:E1:57:65:B0:5C:01:F9:07:73:20:AB:5D:8E:B2:43
            X509v3 Authority Key Identifier: 
                keyid:12:CD:60:04:D2:A0:80:9E:70:ED:C6:99:B8:7B:2C:C6:52:FD:19:A1
                DirName:/C=US/ST=OH/L=Columbus/O=VikingVPN/OU=MyOrganizationalUnit/CN=VikingVPN CA/name=EasyRSA/emailAddress=me@myhost.mydomain
                serial:CF:35:85:EE:80:BF:2A:3E

            X509v3 Extended Key Usage: 
                TLS Web Client Authentication
            X509v3 Key Usage: 
                Digital Signature
    Signature Algorithm: md5WithRSAEncryption
         dd:a2:82:2c:ea:ee:41:c7:7d:dc:7c:16:31:ef:d9:62:31:bd:
         04:ec:76:21:46:7a:19:c0:9b:d2:85:6f:71:34:c0:5d:bc:ae:
         8c:ba:34:f0:ba:44:de:d5:f1:f8:54:85:49:89:2e:77:ab:ce:
         cf:f3:5f:00:90:f8:2a:63:66:cc:b4:ab:61:97:ab:2c:5b:f4:
         5f:b8:9e:ca:63:fe:af:2e:58:0d:04:c6:53:b9:be:b7:13:16:
         6e:07:bd:0d:8f:da:c7:42:29:df:5c:6a:4a:06:9b:42:a0:5d:
         b3:57:c7:99:b0:79:93:fa:63:b1:e7:0c:2e:06:04:cd:bf:9e:
         74:d6:4a:31:8f:77:9a:ea:4e:6f:08:eb:a9:a8:b6:b4:48:ed:
         bd:44:87:75:f9:94:1a:50:a7:41:d9:ca:42:f3:59:b6:c7:0e:
         77:af:34:b9:db:f1:6e:7f:57:49:11:c0:bb:82:24:b0:84:45:
         f9:43:14:d8:4a:f6:4b:0a:9a:44:b0:38:c7:a7:75:cc:5a:8b:
         10:57:2c:61:35:7c:b7:a2:cf:a8:c5:59:84:73:c1:48:5c:1e:
         10:57:2f:05:c5:64:03:e8:67:c4:f2:24:e0:01:25:60:4a:84:
         97:2e:9a:23:9c:e9:07:f7:90:09:67:19:cc:d6:db:2b:fb:dc:
         ca:6b:b9:ec:62:4a:f1:a4:4c:7d:cb:43:e7:c9:77:b5:b1:7a:
         6a:c1:ef:66:11:c6:57:20:cd:7e:d1:88:61:8b:05:70:d7:ab:
         09:76:63:6b:71:2b:f0:53:ed:fa:2c:9c:76:76:ed:9c:51:db:
         de:ac:0f:e3:f2:44:e9:6f:54:a2:ac:4d:96:37:ec:af:00:bb:
         93:fb:c7:5f:9b:2a:29:2f:9f:04:14:e0:c3:a4:fb:e7:d3:76:
         14:ca:6f:a8:76:b2:16:1e:1c:c0:2e:18:a0:be:f0:b0:8e:cc:
         a5:8f:28:fc:fd:46:d5:13:d7:e3:9c:a3:7b:45:96:33:c2:73:
         ab:31:50:21:5a:75:34:4b:a8:f8:8f:5e:99:6f:dc:ac:c3:35:
         00:6e:3c:8e:39:15:7d:ed:f6:74:09:60:9e:62:74:50:d0:b8:
         73:30:c5:ad:d7:38:27:66:09:aa:48:ae:de:08:8f:94:cc:a3:
         3a:37:a0:bc:40:ea:72:2c:d2:4a:79:b0:c0:c1:c0:f4:9f:00:
         61:82:39:be:7b:ff:58:7d:19:5f:bc:76:63:45:6b:f2:31:5d:
         a6:cf:fe:93:b3:d4:e2:c6:8f:c7:96:a5:60:88:14:14:4b:f7:
         e4:7f:7e:a0:52:84:e4:0e:fe:54:48:d9:91:e1:04:8f:2f:57:
         04:49:7c:66:2c:67:03:99
-----BEGIN CERTIFICATE-----
MIIGrTCCBJWgAwIBAgICHkswDQYJKoZIhvcNAQEEBQAwgawxCzAJBgNVBAYTAlVT
MQswCQYDVQQIEwJPSDERMA8GA1UEBxMIQ29sdW1idXMxEjAQBgNVBAoTCVZpa2lu
Z1ZQTjEdMBsGA1UECxMUTXlPcmdhbml6YXRpb25hbFVuaXQxFTATBgNVBAMTDFZp
a2luZ1ZQTiBDQTEQMA4GA1UEKRMHRWFzeVJTQTEhMB8GCSqGSIb3DQEJARYSbWVA
bXlob3N0Lm15ZG9tYWluMB4XDTE2MDQxNTE3MTQzOFoXDTI2MDQxMzE3MTQzOFow
HzEdMBsGA1UEAxMUQ2xpZW50MTQ3NUNlcnQxYTg0M2IwggIiMA0GCSqGSIb3DQEB
AQUAA4ICDwAwggIKAoICAQDG4lY13zGH9wK22pvfDbyG5wR/GsgEwuPQZJv/CB7a
8QxT1NI/zo8nYQRijj+SgPniwgPkDdx6F4CZ2xRNzcgBsUAurbfN2dS3+KvpExkL
AGIHlHP8WDOp/jy1VyAHdz8aYSAqGmt/Q50FBDc7ZExC86PYZDN/icLDc9KUG+k8
fAFPqWfeWSRYfNG3gBVg4tBRLt8hym+8TPxrrWZNQmR3C1kdRoqpelKJJ0ADPIUg
icCGJQige9zB5YmjeKftmDj9rr0IIhw4J9xpVoG10iZzv4pY8jUhw1Hs5v7NAxmy
me5nt5vW+KNz5ol4WNNA76dzIG9pM7mS/UXiHeBjyALy6SAs0oUZs0ZDeyN8Yb9v
uQ9RUHrZRo19QrIfqw0QBHEtPgYmzaqQPVYr/JpYpXK5cOvnfrJslXQnqf6UUp2b
9NxXbr8T2RM9M9cv/qu1tKkrslxWfg3MY7VaV6lhVNBpYWzgd+NCmtAeNvRGZx4m
ymO9waoBljQK9nTcel02XR/IvdZDC+6+DqSIGHtxhqd7DGNRuf3qCzgTyZcFkdfe
lu8zcFGUle+2KVCi7uGjL3qyqhZ3mJoepm/ipUbt097C6F+f9JiokyxlrCgYEnMO
F5bfJowsCg1FZbsKaUvQqRPQZdcM93V7VpDzNt/WyGBIOsWeNrcvxzwECkDhyy0d
GQIDAQABo4IBYzCCAV8wCQYDVR0TBAIwADAtBglghkgBhvhCAQ0EIBYeRWFzeS1S
U0EgR2VuZXJhdGVkIENlcnRpZmljYXRlMB0GA1UdDgQWBBTFY3Yq0+FXZbBcAfkH
cyCrXY6yQzCB4QYDVR0jBIHZMIHWgBQSzWAE0qCAnnDtxpm4eyzGUv0ZoaGBsqSB
rzCBrDELMAkGA1UEBhMCVVMxCzAJBgNVBAgTAk9IMREwDwYDVQQHEwhDb2x1bWJ1
czESMBAGA1UEChMJVmlraW5nVlBOMR0wGwYDVQQLExRNeU9yZ2FuaXphdGlvbmFs
VW5pdDEVMBMGA1UEAxMMVmlraW5nVlBOIENBMRAwDgYDVQQpEwdFYXN5UlNBMSEw
HwYJKoZIhvcNAQkBFhJtZUBteWhvc3QubXlkb21haW6CCQDPNYXugL8qPjATBgNV
HSUEDDAKBggrBgEFBQcDAjALBgNVHQ8EBAMCB4AwDQYJKoZIhvcNAQEEBQADggIB
AN2igizq7kHHfdx8FjHv2WIxvQTsdiFGehnAm9KFb3E0wF28roy6NPC6RN7V8fhU
hUmJLnerzs/zXwCQ+CpjZsy0q2GXqyxb9F+4nspj/q8uWA0ExlO5vrcTFm4HvQ2P
2sdCKd9cakoGm0KgXbNXx5mweZP6Y7HnDC4GBM2/nnTWSjGPd5rqTm8I66motrRI
7b1Eh3X5lBpQp0HZykLzWbbHDnevNLnb8W5/V0kRwLuCJLCERflDFNhK9ksKmkSw
OMendcxaixBXLGE1fLeiz6jFWYRzwUhcHhBXLwXFZAPoZ8TyJOABJWBKhJcumiOc
6Qf3kAlnGczW2yv73MpruexiSvGkTH3LQ+fJd7WxemrB72YRxlcgzX7RiGGLBXDX
qwl2Y2txK/BT7fosnHZ27ZxR296sD+PyROlvVKKsTZY37K8Au5P7x1+bKikvnwQU
4MOk++fTdhTKb6h2shYeHMAuGKC+8LCOzKWPKPz9RtUT1+Oco3tFljPCc6sxUCFa
dTRLqPiPXplv3KzDNQBuPI45FX3t9nQJYJ5idFDQuHMwxa3XOCdmCapIrt4Ij5TM
ozo3oLxA6nIs0kp5sMDBwPSfAGGCOb57/1h9GV+8dmNFa/IxXabP/pOz1OLGj8eW
pWCIFBRL9+R/fqBShOQO/lRI2ZHhBI8vVwRJfGYsZwOZ
-----END CERTIFICATE-----
