Certificate:
    Data:
        Version: 3 (0x2)
        Serial Number: 7771 (0x1e5b)
    Signature Algorithm: md5WithRSAEncryption
        Issuer: C=US, ST=OH, L=Columbus, O=VikingVPN, OU=MyOrganizationalUnit, CN=VikingVPN CA/name=EasyRSA/emailAddress=me@myhost.mydomain
        Validity
            Not Before: Apr 18 01:18:01 2016 GMT
            Not After : Apr 16 01:18:01 2026 GMT
        Subject: CN=Client2075Certfab2eb
        Subject Public Key Info:
            Public Key Algorithm: rsaEncryption
                Public-Key: (4096 bit)
                Modulus:
                    00:c1:af:02:99:e4:e9:2a:dc:92:b7:71:6d:81:a9:
                    07:0a:d8:6f:51:c8:12:67:04:ee:c6:81:bc:d6:eb:
                    1d:8a:60:55:90:d6:8c:81:90:f6:46:9d:95:28:04:
                    73:d6:eb:ed:27:3e:fb:c1:79:16:37:a0:79:30:c5:
                    47:d0:57:20:a9:d4:62:3d:7d:2c:0a:2b:cb:ae:a5:
                    e6:f5:ed:b9:1e:9f:48:fc:e8:80:e4:cd:4a:55:80:
                    c8:75:8f:c2:19:76:d3:f5:da:51:f1:b8:ef:11:f8:
                    d2:45:2e:16:38:9a:29:70:30:d9:aa:1a:0d:c2:82:
                    5f:64:c1:40:94:75:ee:e2:3b:54:22:73:64:16:6b:
                    88:a4:c4:d0:20:41:14:28:44:15:6c:17:d2:20:20:
                    29:8e:fd:d1:61:4b:5a:59:cc:89:b5:a6:d0:6a:ee:
                    9c:f4:11:39:ca:35:53:a4:c1:67:78:9c:9b:f4:f3:
                    32:a5:0d:fe:d5:4e:22:3e:a8:66:97:e4:32:e1:38:
                    56:a8:3c:53:36:11:5a:1d:97:36:4c:b5:9e:42:f0:
                    1c:67:80:f8:05:2c:e3:1e:67:20:98:9a:aa:11:67:
                    01:5a:b3:97:60:b7:98:23:ec:4a:b9:5b:f0:61:d9:
                    e3:11:0f:16:a9:20:fe:fe:a0:73:81:b7:0e:63:a8:
                    d5:3b:ab:39:a5:68:56:5a:85:6f:a9:48:f0:34:7d:
                    11:0f:df:18:3d:e8:25:62:5c:15:36:93:aa:28:12:
                    70:bc:65:b2:54:7d:47:08:63:53:b0:e0:a2:0c:c9:
                    52:47:86:61:36:f2:a7:03:d8:14:bf:bb:a5:db:b0:
                    29:41:40:af:c9:74:a5:ea:c5:83:b9:75:fb:a8:37:
                    0d:14:99:9d:84:6b:6b:42:54:84:bf:74:47:7f:d6:
                    0c:18:74:dd:80:00:a2:d9:cb:c4:57:b2:d8:cf:be:
                    1d:a4:4b:b8:dd:85:41:d3:c4:ae:56:79:5c:d2:32:
                    29:8d:cb:e9:99:17:96:16:78:f5:c5:8e:cb:5f:15:
                    1f:15:9a:19:d0:3f:b1:74:d1:f9:8b:67:38:2c:41:
                    61:76:19:84:7d:d2:75:10:8a:06:d8:89:a6:6a:3a:
                    00:54:0e:40:c0:cb:2d:54:ba:9c:88:df:38:0a:81:
                    c8:66:48:52:d4:06:ae:b1:7b:d0:ea:e2:39:7e:f2:
                    be:1f:e7:88:44:7b:b8:f7:b1:34:be:1f:57:eb:95:
                    b5:5c:11:7d:c2:24:ab:0a:66:c1:81:c9:c6:a8:56:
                    17:a0:8e:fc:52:14:a2:65:bf:c9:22:b3:76:53:0d:
                    76:5b:c6:f3:1e:53:c0:8d:03:be:d1:a0:b6:50:5a:
                    47:dd:1f
                Exponent: 65537 (0x10001)
        X509v3 extensions:
            X509v3 Basic Constraints: 
                CA:FALSE
            Netscape Comment: 
                Easy-RSA Generated Certificate
            X509v3 Subject Key Identifier: 
                B1:27:69:02:39:F3:F8:1D:BA:62:A5:78:0F:CD:22:5D:72:87:E7:10
            X509v3 Authority Key Identifier: 
                keyid:12:CD:60:04:D2:A0:80:9E:70:ED:C6:99:B8:7B:2C:C6:52:FD:19:A1
                DirName:/C=US/ST=OH/L=Columbus/O=VikingVPN/OU=MyOrganizationalUnit/CN=VikingVPN CA/name=EasyRSA/emailAddress=me@myhost.mydomain
                serial:CF:35:85:EE:80:BF:2A:3E

            X509v3 Extended Key Usage: 
                TLS Web Client Authentication
            X509v3 Key Usage: 
                Digital Signature
    Signature Algorithm: md5WithRSAEncryption
         d1:70:16:70:ca:5b:e2:cd:1c:35:97:84:3e:b7:72:3e:6d:87:
         a2:63:9b:54:3a:9c:2b:d2:f8:13:74:75:36:63:ea:46:23:89:
         18:bb:60:36:d1:be:56:19:af:aa:43:d0:85:6a:3e:02:80:b7:
         b5:50:a6:3e:9e:33:db:7c:96:d5:08:6c:8c:6e:d7:89:78:ee:
         bd:05:d6:11:26:4a:82:93:e9:ad:e1:5e:9e:ff:cf:d9:78:e1:
         6f:41:46:e0:a2:5a:5c:19:d5:14:69:13:4f:15:73:d7:fc:48:
         a9:b3:5a:bd:70:2d:d5:5d:63:e3:f7:c8:b8:41:06:8b:e4:78:
         be:f0:da:97:b7:44:32:d0:92:1a:4d:3a:57:39:40:fb:ff:c3:
         c4:b9:9b:cd:3b:ee:7a:6a:c5:d0:b2:b0:3c:89:93:00:85:9d:
         ea:af:29:bb:31:1a:91:1d:d7:a1:09:e4:a2:cf:0b:0a:db:c3:
         78:bc:35:f1:9f:92:b1:c0:8c:b0:4a:63:2f:bd:e5:5d:12:d6:
         04:5f:93:05:ef:78:e6:9c:30:c5:4b:9f:74:64:20:75:3e:89:
         1d:0a:85:e1:b0:e0:43:7b:2d:fb:1b:f2:a9:9f:b1:3d:e0:56:
         ea:0f:1a:22:06:59:59:91:72:0e:6f:e2:74:e3:bc:b6:83:c5:
         51:67:64:70:89:ba:92:ea:83:86:9b:50:fa:70:34:f6:7b:1a:
         5d:9f:55:c0:9e:03:ad:ef:2e:64:31:57:cb:eb:57:60:68:c6:
         b9:c1:34:95:02:6a:52:3e:03:71:89:c5:24:6a:37:fd:91:dd:
         bf:8c:c9:cf:31:ef:62:bb:b3:02:9a:ba:bb:e5:6d:71:f6:91:
         e5:bc:1b:8c:12:e7:11:84:2c:3e:c8:fe:6c:da:2c:f4:ec:3b:
         0f:23:7c:fa:53:fd:2a:c4:4d:b1:72:42:f3:e8:18:f0:cf:3d:
         c9:09:27:b5:ca:0c:42:43:94:35:ae:92:d4:f8:f6:b2:b0:83:
         ba:78:0a:de:7b:14:0e:e5:eb:e3:e3:1f:0b:6e:77:85:8f:26:
         c1:22:da:4c:a2:4b:2d:d7:83:dd:29:b9:e3:68:4d:12:31:f9:
         cf:f9:97:04:ad:15:4d:17:c8:ea:19:9a:4a:b2:e7:67:41:2e:
         b3:e3:13:4c:17:20:10:de:72:6a:d6:66:3b:a3:58:ce:dc:23:
         a5:77:ee:4b:2b:5d:c6:69:6f:ba:8c:16:77:94:d4:59:b6:2a:
         20:5b:10:8a:a0:88:d3:27:d7:e1:d5:29:35:0d:a8:56:80:0a:
         74:66:0b:f9:4b:3e:e7:23:f9:2a:cf:90:c2:08:87:a7:6b:31:
         4a:5e:ed:a1:c8:cc:9e:15
-----BEGIN CERTIFICATE-----
MIIGrTCCBJWgAwIBAgICHlswDQYJKoZIhvcNAQEEBQAwgawxCzAJBgNVBAYTAlVT
MQswCQYDVQQIEwJPSDERMA8GA1UEBxMIQ29sdW1idXMxEjAQBgNVBAoTCVZpa2lu
Z1ZQTjEdMBsGA1UECxMUTXlPcmdhbml6YXRpb25hbFVuaXQxFTATBgNVBAMTDFZp
a2luZ1ZQTiBDQTEQMA4GA1UEKRMHRWFzeVJTQTEhMB8GCSqGSIb3DQEJARYSbWVA
bXlob3N0Lm15ZG9tYWluMB4XDTE2MDQxODAxMTgwMVoXDTI2MDQxNjAxMTgwMVow
HzEdMBsGA1UEAxMUQ2xpZW50MjA3NUNlcnRmYWIyZWIwggIiMA0GCSqGSIb3DQEB
AQUAA4ICDwAwggIKAoICAQDBrwKZ5Okq3JK3cW2BqQcK2G9RyBJnBO7GgbzW6x2K
YFWQ1oyBkPZGnZUoBHPW6+0nPvvBeRY3oHkwxUfQVyCp1GI9fSwKK8uupeb17bke
n0j86IDkzUpVgMh1j8IZdtP12lHxuO8R+NJFLhY4milwMNmqGg3Cgl9kwUCUde7i
O1Qic2QWa4ikxNAgQRQoRBVsF9IgICmO/dFhS1pZzIm1ptBq7pz0ETnKNVOkwWd4
nJv08zKlDf7VTiI+qGaX5DLhOFaoPFM2EVodlzZMtZ5C8BxngPgFLOMeZyCYmqoR
ZwFas5dgt5gj7Eq5W/Bh2eMRDxapIP7+oHOBtw5jqNU7qzmlaFZahW+pSPA0fREP
3xg96CViXBU2k6ooEnC8ZbJUfUcIY1Ow4KIMyVJHhmE28qcD2BS/u6XbsClBQK/J
dKXqxYO5dfuoNw0UmZ2Ea2tCVIS/dEd/1gwYdN2AAKLZy8RXstjPvh2kS7jdhUHT
xK5WeVzSMimNy+mZF5YWePXFjstfFR8VmhnQP7F00fmLZzgsQWF2GYR90nUQigbY
iaZqOgBUDkDAyy1UupyI3zgKgchmSFLUBq6xe9Dq4jl+8r4f54hEe7j3sTS+H1fr
lbVcEX3CJKsKZsGBycaoVhegjvxSFKJlv8kis3ZTDXZbxvMeU8CNA77RoLZQWkfd
HwIDAQABo4IBYzCCAV8wCQYDVR0TBAIwADAtBglghkgBhvhCAQ0EIBYeRWFzeS1S
U0EgR2VuZXJhdGVkIENlcnRpZmljYXRlMB0GA1UdDgQWBBSxJ2kCOfP4HbpipXgP
zSJdcofnEDCB4QYDVR0jBIHZMIHWgBQSzWAE0qCAnnDtxpm4eyzGUv0ZoaGBsqSB
rzCBrDELMAkGA1UEBhMCVVMxCzAJBgNVBAgTAk9IMREwDwYDVQQHEwhDb2x1bWJ1
czESMBAGA1UEChMJVmlraW5nVlBOMR0wGwYDVQQLExRNeU9yZ2FuaXphdGlvbmFs
VW5pdDEVMBMGA1UEAxMMVmlraW5nVlBOIENBMRAwDgYDVQQpEwdFYXN5UlNBMSEw
HwYJKoZIhvcNAQkBFhJtZUBteWhvc3QubXlkb21haW6CCQDPNYXugL8qPjATBgNV
HSUEDDAKBggrBgEFBQcDAjALBgNVHQ8EBAMCB4AwDQYJKoZIhvcNAQEEBQADggIB
ANFwFnDKW+LNHDWXhD63cj5th6Jjm1Q6nCvS+BN0dTZj6kYjiRi7YDbRvlYZr6pD
0IVqPgKAt7VQpj6eM9t8ltUIbIxu14l47r0F1hEmSoKT6a3hXp7/z9l44W9BRuCi
WlwZ1RRpE08Vc9f8SKmzWr1wLdVdY+P3yLhBBovkeL7w2pe3RDLQkhpNOlc5QPv/
w8S5m8077npqxdCysDyJkwCFneqvKbsxGpEd16EJ5KLPCwrbw3i8NfGfkrHAjLBK
Yy+95V0S1gRfkwXveOacMMVLn3RkIHU+iR0KheGw4EN7Lfsb8qmfsT3gVuoPGiIG
WVmRcg5v4nTjvLaDxVFnZHCJupLqg4abUPpwNPZ7Gl2fVcCeA63vLmQxV8vrV2Bo
xrnBNJUCalI+A3GJxSRqN/2R3b+Myc8x72K7swKaurvlbXH2keW8G4wS5xGELD7I
/mzaLPTsOw8jfPpT/SrETbFyQvPoGPDPPckJJ7XKDEJDlDWuktT49rKwg7p4Ct57
FA7l6+PjHwtud4WPJsEi2kyiSy3Xg90pueNoTRIx+c/5lwStFU0XyOoZmkqy52dB
LrPjE0wXIBDecmrWZjujWM7cI6V37ksrXcZpb7qMFneU1Fm2KiBbEIqgiNMn1+HV
KTUNqFaACnRmC/lLPucj+SrPkMIIh6drMUpe7aHIzJ4V
-----END CERTIFICATE-----
