Certificate:
    Data:
        Version: 3 (0x2)
        Serial Number: 7772 (0x1e5c)
    Signature Algorithm: md5WithRSAEncryption
        Issuer: C=US, ST=OH, L=Columbus, O=VikingVPN, OU=MyOrganizationalUnit, CN=VikingVPN CA/name=EasyRSA/emailAddress=me@myhost.mydomain
        Validity
            Not Before: Apr 18 03:02:40 2016 GMT
            Not After : Apr 16 03:02:40 2026 GMT
        Subject: CN=Client2075Cert9b5548
        Subject Public Key Info:
            Public Key Algorithm: rsaEncryption
                Public-Key: (4096 bit)
                Modulus:
                    00:b0:31:99:5e:a8:82:c5:18:14:4a:cc:78:ef:e4:
                    4b:c4:f1:87:59:0b:24:52:77:25:30:d4:5f:c1:d6:
                    9a:a9:6b:08:3c:ed:92:99:69:58:6e:dd:4d:0c:62:
                    1c:92:14:a3:75:8e:4c:a3:2c:34:25:5a:f6:e8:65:
                    f0:95:0b:b3:c0:17:e9:3f:01:02:84:69:82:a0:2e:
                    f5:6a:47:be:1d:f8:a6:73:13:98:50:03:9b:0d:43:
                    af:b7:b1:d7:45:80:1d:31:94:21:15:15:2b:22:68:
                    31:9f:2b:56:54:ca:6d:10:0f:8d:a3:be:38:c0:90:
                    39:8e:6d:ee:0f:e3:3d:7a:6a:40:ae:59:ab:3e:d0:
                    57:fb:b5:7d:1b:d2:3a:1b:b2:1f:94:c8:e8:d2:19:
                    8f:62:a1:de:29:ff:19:62:54:19:7e:9b:a0:30:16:
                    96:fc:33:f5:61:00:c5:13:9b:dc:76:d4:d9:2f:4c:
                    00:ce:07:68:f9:ff:90:37:f0:18:01:7f:33:1d:c9:
                    a3:4e:47:22:c1:3c:86:90:46:1f:20:e4:1e:e5:8f:
                    ae:ed:a7:eb:95:dc:fd:70:23:cf:2b:09:aa:50:cb:
                    ab:f7:bb:54:1f:a2:06:42:30:4d:c1:bb:b4:34:c2:
                    43:ff:14:e7:0e:40:4e:78:dd:88:d5:bd:9f:41:b3:
                    5a:89:63:cc:79:da:ee:31:5f:2f:c6:b2:6f:4c:4c:
                    7c:48:4b:7b:aa:3c:bf:8b:06:07:9a:1d:d1:83:d6:
                    7e:29:48:0a:37:f9:bf:46:ff:4a:34:0e:5d:94:00:
                    38:a0:ff:77:bc:37:b1:9d:74:8c:3a:fe:39:3a:2f:
                    f2:d0:d2:2b:64:8d:d6:e4:3f:f8:0c:7b:98:78:49:
                    e2:09:2c:c0:9b:a4:48:c2:4d:e9:dd:ea:b4:46:df:
                    1c:ed:40:51:6e:e8:e5:91:9c:41:52:94:0e:c6:6f:
                    13:6b:a9:0d:21:66:af:58:6c:78:15:f8:98:ae:03:
                    93:f5:84:a8:0c:af:42:18:31:02:7d:35:02:1e:ea:
                    54:2e:08:89:8f:af:6b:e1:86:7c:ed:00:25:8e:73:
                    7e:78:e3:58:10:25:e4:de:61:bd:ca:5d:7d:9f:6c:
                    27:d8:6c:20:a8:7b:0e:ae:44:77:f0:16:d0:03:b3:
                    db:f2:45:3b:c5:2d:ac:80:ef:63:41:ac:d0:00:cf:
                    60:d2:25:45:7b:2b:cf:6c:b7:36:c7:e3:f0:2b:93:
                    76:76:66:22:f8:d6:fd:eb:7c:2b:9d:75:7d:5a:78:
                    b7:c1:75:18:c6:5b:7e:7d:6a:f1:c2:81:84:7c:cb:
                    d3:35:5b:53:d0:cc:20:d8:9d:a1:17:59:0b:55:d6:
                    c7:2c:25
                Exponent: 65537 (0x10001)
        X509v3 extensions:
            X509v3 Basic Constraints: 
                CA:FALSE
            Netscape Comment: 
                Easy-RSA Generated Certificate
            X509v3 Subject Key Identifier: 
                70:D2:2C:0E:90:96:6E:FA:01:02:71:8C:BC:54:E8:25:23:80:2B:0E
            X509v3 Authority Key Identifier: 
                keyid:12:CD:60:04:D2:A0:80:9E:70:ED:C6:99:B8:7B:2C:C6:52:FD:19:A1
                DirName:/C=US/ST=OH/L=Columbus/O=VikingVPN/OU=MyOrganizationalUnit/CN=VikingVPN CA/name=EasyRSA/emailAddress=me@myhost.mydomain
                serial:CF:35:85:EE:80:BF:2A:3E

            X509v3 Extended Key Usage: 
                TLS Web Client Authentication
            X509v3 Key Usage: 
                Digital Signature
    Signature Algorithm: md5WithRSAEncryption
         6e:64:ae:8a:bd:04:1a:3d:70:71:71:64:47:23:22:a5:1f:e6:
         0a:fb:8f:e1:ef:88:ca:55:24:99:72:0b:5d:66:95:f5:8d:07:
         41:a0:06:f6:3a:fa:3b:39:7c:49:7c:bf:52:bb:4e:15:fd:8e:
         b2:34:a8:7b:1e:eb:0a:08:dc:e7:58:ac:3e:a5:41:fa:e3:8d:
         dd:1b:22:6e:98:f4:18:23:60:ca:7a:d1:38:b1:93:36:81:d0:
         16:bc:51:34:ed:f5:6a:c0:70:1d:72:1f:40:61:d2:61:1c:45:
         3f:ce:93:c1:87:7e:f6:1e:69:42:da:a6:de:77:75:a0:be:d2:
         25:02:76:89:a2:58:a5:1f:fa:8c:01:b7:93:a4:9c:90:94:a4:
         3f:04:5a:ee:68:08:93:b2:70:68:95:c5:4c:9e:b2:fe:36:27:
         95:9e:9d:9f:7a:9b:1d:41:24:c8:90:94:28:f1:a0:8d:0e:cb:
         c3:32:76:a3:e2:df:25:37:47:ac:56:b5:e2:32:99:28:71:a6:
         11:47:10:97:d8:3f:81:2d:fc:f4:57:49:e0:7e:2f:19:14:5b:
         ed:ef:92:3f:d0:cf:4e:87:09:f0:16:b4:da:00:5a:a9:e2:fe:
         af:3c:27:2b:8a:7d:c7:60:01:df:fc:9a:42:61:7d:75:e8:3d:
         32:87:b1:b2:c6:a7:f1:2c:01:b4:4b:1c:47:b1:76:47:d3:50:
         20:d4:ed:71:d1:07:9a:74:9a:ef:2d:8d:9a:13:d1:de:da:c0:
         cf:45:31:d1:c4:37:79:10:e3:86:b7:34:2a:34:5d:11:cd:c2:
         82:22:f7:5f:bc:76:bd:28:e2:ca:c7:3d:97:9d:7a:af:c1:5d:
         2c:9a:4e:80:b7:04:f7:2a:2a:64:f2:78:e9:26:9c:77:f5:c6:
         45:e1:c1:99:b0:0a:c2:f5:49:ee:24:81:cc:fd:8c:51:c2:91:
         5a:31:a7:fe:d8:72:8b:db:13:03:05:0d:2c:7e:92:4e:15:63:
         a3:c8:a7:70:45:05:bf:47:36:a3:68:cf:7f:ba:50:c6:5f:43:
         25:e4:31:66:c8:0e:d8:77:05:00:8f:43:f0:60:cc:49:0e:92:
         c3:61:f7:fc:de:9c:4f:40:f4:cc:f8:8c:a2:2b:f8:b0:38:6a:
         ea:e4:89:f2:70:3c:ae:4f:77:c2:4a:e4:fb:23:9d:c4:3c:e3:
         32:a4:5e:b0:84:1d:d4:48:4e:3e:5d:5e:0e:35:e3:63:f3:0a:
         e8:fa:01:cb:63:8c:4a:1f:79:91:ab:a9:7a:f0:f7:1f:1f:36:
         fd:0d:21:65:78:d8:7b:f5:06:46:97:bb:ff:8c:49:75:88:42:
         fb:af:96:b2:b0:e2:a2:70
-----BEGIN CERTIFICATE-----
MIIGrTCCBJWgAwIBAgICHlwwDQYJKoZIhvcNAQEEBQAwgawxCzAJBgNVBAYTAlVT
MQswCQYDVQQIEwJPSDERMA8GA1UEBxMIQ29sdW1idXMxEjAQBgNVBAoTCVZpa2lu
Z1ZQTjEdMBsGA1UECxMUTXlPcmdhbml6YXRpb25hbFVuaXQxFTATBgNVBAMTDFZp
a2luZ1ZQTiBDQTEQMA4GA1UEKRMHRWFzeVJTQTEhMB8GCSqGSIb3DQEJARYSbWVA
bXlob3N0Lm15ZG9tYWluMB4XDTE2MDQxODAzMDI0MFoXDTI2MDQxNjAzMDI0MFow
HzEdMBsGA1UEAxMUQ2xpZW50MjA3NUNlcnQ5YjU1NDgwggIiMA0GCSqGSIb3DQEB
AQUAA4ICDwAwggIKAoICAQCwMZleqILFGBRKzHjv5EvE8YdZCyRSdyUw1F/B1pqp
awg87ZKZaVhu3U0MYhySFKN1jkyjLDQlWvboZfCVC7PAF+k/AQKEaYKgLvVqR74d
+KZzE5hQA5sNQ6+3sddFgB0xlCEVFSsiaDGfK1ZUym0QD42jvjjAkDmObe4P4z16
akCuWas+0Ff7tX0b0jobsh+UyOjSGY9iod4p/xliVBl+m6AwFpb8M/VhAMUTm9x2
1NkvTADOB2j5/5A38BgBfzMdyaNORyLBPIaQRh8g5B7lj67tp+uV3P1wI88rCapQ
y6v3u1QfogZCME3Bu7Q0wkP/FOcOQE543YjVvZ9Bs1qJY8x52u4xXy/Gsm9MTHxI
S3uqPL+LBgeaHdGD1n4pSAo3+b9G/0o0Dl2UADig/3e8N7GddIw6/jk6L/LQ0itk
jdbkP/gMe5h4SeIJLMCbpEjCTend6rRG3xztQFFu6OWRnEFSlA7GbxNrqQ0hZq9Y
bHgV+JiuA5P1hKgMr0IYMQJ9NQIe6lQuCImPr2vhhnztACWOc35441gQJeTeYb3K
XX2fbCfYbCCoew6uRHfwFtADs9vyRTvFLayA72NBrNAAz2DSJUV7K89stzbH4/Ar
k3Z2ZiL41v3rfCuddX1aeLfBdRjGW359avHCgYR8y9M1W1PQzCDYnaEXWQtV1scs
JQIDAQABo4IBYzCCAV8wCQYDVR0TBAIwADAtBglghkgBhvhCAQ0EIBYeRWFzeS1S
U0EgR2VuZXJhdGVkIENlcnRpZmljYXRlMB0GA1UdDgQWBBRw0iwOkJZu+gECcYy8
VOglI4ArDjCB4QYDVR0jBIHZMIHWgBQSzWAE0qCAnnDtxpm4eyzGUv0ZoaGBsqSB
rzCBrDELMAkGA1UEBhMCVVMxCzAJBgNVBAgTAk9IMREwDwYDVQQHEwhDb2x1bWJ1
czESMBAGA1UEChMJVmlraW5nVlBOMR0wGwYDVQQLExRNeU9yZ2FuaXphdGlvbmFs
VW5pdDEVMBMGA1UEAxMMVmlraW5nVlBOIENBMRAwDgYDVQQpEwdFYXN5UlNBMSEw
HwYJKoZIhvcNAQkBFhJtZUBteWhvc3QubXlkb21haW6CCQDPNYXugL8qPjATBgNV
HSUEDDAKBggrBgEFBQcDAjALBgNVHQ8EBAMCB4AwDQYJKoZIhvcNAQEEBQADggIB
AG5kroq9BBo9cHFxZEcjIqUf5gr7j+HviMpVJJlyC11mlfWNB0GgBvY6+js5fEl8
v1K7ThX9jrI0qHse6woI3OdYrD6lQfrjjd0bIm6Y9BgjYMp60TixkzaB0Ba8UTTt
9WrAcB1yH0Bh0mEcRT/Ok8GHfvYeaULapt53daC+0iUCdomiWKUf+owBt5OknJCU
pD8EWu5oCJOycGiVxUyesv42J5WenZ96mx1BJMiQlCjxoI0Oy8MydqPi3yU3R6xW
teIymShxphFHEJfYP4Et/PRXSeB+LxkUW+3vkj/Qz06HCfAWtNoAWqni/q88JyuK
fcdgAd/8mkJhfXXoPTKHsbLGp/EsAbRLHEexdkfTUCDU7XHRB5p0mu8tjZoT0d7a
wM9FMdHEN3kQ44a3NCo0XRHNwoIi91+8dr0o4srHPZedeq/BXSyaToC3BPcqKmTy
eOkmnHf1xkXhwZmwCsL1Se4kgcz9jFHCkVoxp/7YcovbEwMFDSx+kk4VY6PIp3BF
Bb9HNqNoz3+6UMZfQyXkMWbIDth3BQCPQ/BgzEkOksNh9/zenE9A9Mz4jKIr+LA4
aurkifJwPK5Pd8JK5PsjncQ84zKkXrCEHdRITj5dXg4142PzCuj6ActjjEofeZGr
qXrw9x8fNv0NIWV42Hv1BkaXu/+MSXWIQvuvlrKw4qJw
-----END CERTIFICATE-----
