Certificate:
    Data:
        Version: 3 (0x2)
        Serial Number: 7788 (0x1e6c)
    Signature Algorithm: md5WithRSAEncryption
        Issuer: C=US, ST=OH, L=Columbus, O=VikingVPN, OU=MyOrganizationalUnit, CN=VikingVPN CA/name=EasyRSA/emailAddress=me@myhost.mydomain
        Validity
            Not Before: Apr 19 22:19:05 2016 GMT
            Not After : Apr 17 22:19:05 2026 GMT
        Subject: CN=Client1998Cert347102
        Subject Public Key Info:
            Public Key Algorithm: rsaEncryption
                Public-Key: (4096 bit)
                Modulus:
                    00:ae:fa:ec:33:ba:a5:e1:8c:e0:72:83:bf:97:2e:
                    33:2b:9e:bb:80:16:f1:6f:9f:dd:6a:5d:28:1a:d2:
                    46:8d:57:39:37:a4:28:a9:4c:00:e4:bc:28:19:e7:
                    e8:a6:d0:41:7f:02:e8:e7:57:56:b4:41:8d:90:75:
                    a5:aa:ac:bb:1e:63:a9:06:8c:fe:77:ae:b7:51:60:
                    26:8b:36:73:cb:18:a2:83:f9:65:05:43:09:51:51:
                    5e:d8:0f:1a:7c:08:2c:09:01:b6:52:8f:8e:14:17:
                    c9:34:f4:da:9b:02:46:bd:64:89:78:45:e8:3f:60:
                    9b:8e:e4:f6:95:e7:1c:69:9a:e9:90:b6:38:12:38:
                    eb:04:eb:05:18:c7:23:7f:ef:a6:65:9c:30:32:99:
                    bc:39:b8:e6:11:78:59:04:63:8a:f5:84:95:fa:01:
                    fd:13:42:ea:cc:58:4c:71:72:58:3f:55:26:2c:e6:
                    dc:80:f1:20:f0:90:df:0c:80:68:16:d8:52:ef:2e:
                    22:46:bf:38:43:eb:4b:8d:2d:66:2b:f6:d5:d6:67:
                    ea:34:33:46:c4:3d:00:89:0d:84:67:8f:19:0a:7a:
                    5c:44:2c:9b:55:66:d3:1c:f1:3e:56:63:3c:ca:ec:
                    c6:e1:62:9e:f1:3d:d6:25:13:b1:da:a7:c5:2f:1e:
                    0b:5f:e0:c4:9c:8d:48:ce:0c:60:2b:45:b6:bf:7c:
                    3d:a3:a2:67:62:e6:12:0a:b7:aa:1c:fa:f1:05:ee:
                    ca:16:8c:70:b2:4f:1d:d0:c5:e3:e8:6e:8e:6b:6d:
                    ca:1e:5c:8f:60:6a:fb:65:80:93:14:ad:20:6c:9f:
                    38:74:81:90:06:bf:f5:7a:0f:22:08:fd:ad:91:9c:
                    03:eb:36:cd:61:85:6b:08:ac:d6:0e:a3:ad:39:5e:
                    e1:d2:ca:af:11:98:3f:ea:be:53:be:46:e5:3d:f1:
                    d2:2a:62:9b:9a:d7:b2:ef:05:2b:28:57:9d:ac:b9:
                    e1:46:ec:bf:b3:8f:e8:39:f4:c7:e2:f8:c2:ab:2a:
                    de:45:8b:06:a8:31:b6:58:2c:2b:4f:1e:b3:d0:af:
                    29:00:43:b8:e7:23:28:ba:f1:9d:15:05:33:ce:0a:
                    b9:74:92:c1:cf:25:e3:db:25:c2:08:b5:a1:34:81:
                    aa:2c:21:43:00:42:d3:45:4c:93:6f:fa:bb:d3:0b:
                    4b:71:e7:2f:b6:0d:36:88:d4:43:de:88:d6:d8:12:
                    ba:97:1b:4f:d1:5b:a3:1e:77:fe:8e:03:98:df:59:
                    7f:ed:14:a8:0b:a8:67:2c:32:1c:90:e0:1c:e3:8e:
                    6c:1a:b7:dc:76:81:79:c5:cc:ce:08:79:70:c5:a9:
                    77:36:fd
                Exponent: 65537 (0x10001)
        X509v3 extensions:
            X509v3 Basic Constraints: 
                CA:FALSE
            Netscape Comment: 
                Easy-RSA Generated Certificate
            X509v3 Subject Key Identifier: 
                99:84:8F:26:DA:F0:49:02:06:8C:DD:9D:51:E1:7B:2A:33:E6:2F:88
            X509v3 Authority Key Identifier: 
                keyid:12:CD:60:04:D2:A0:80:9E:70:ED:C6:99:B8:7B:2C:C6:52:FD:19:A1
                DirName:/C=US/ST=OH/L=Columbus/O=VikingVPN/OU=MyOrganizationalUnit/CN=VikingVPN CA/name=EasyRSA/emailAddress=me@myhost.mydomain
                serial:CF:35:85:EE:80:BF:2A:3E

            X509v3 Extended Key Usage: 
                TLS Web Client Authentication
            X509v3 Key Usage: 
                Digital Signature
    Signature Algorithm: md5WithRSAEncryption
         71:52:25:fd:43:02:fd:86:76:85:ef:1d:ad:fc:b7:fc:eb:60:
         e1:01:31:14:71:19:1e:b1:32:74:1a:a3:f5:41:5b:13:38:a6:
         d5:b5:3a:66:06:b5:3d:66:9d:17:da:b6:32:21:d8:e0:bf:a7:
         ec:1d:ed:b5:e2:81:2b:97:f7:56:10:41:4e:e0:37:a2:a1:04:
         1e:e6:23:28:13:18:bf:54:83:d8:39:34:f3:55:9f:40:b2:be:
         9b:9b:fb:cd:05:b4:05:5d:78:b6:8e:62:88:dd:e4:88:ee:d5:
         f8:72:6d:c9:72:f1:90:2a:92:59:4f:98:5a:a7:24:2a:83:1b:
         ed:0b:e0:c7:e9:3a:3a:71:a6:97:0f:a3:5f:78:f1:56:f5:37:
         48:0a:ea:25:71:6d:74:d4:2c:46:28:40:97:3c:69:db:7d:eb:
         ee:bf:75:93:2a:28:2e:61:5a:9b:50:64:02:06:b8:ae:25:50:
         49:f0:4b:2e:48:95:05:08:3b:6a:d5:c0:4e:dc:78:ae:cf:0b:
         91:d0:53:28:ad:2c:e9:df:70:5d:72:39:8e:97:0b:f5:7d:10:
         46:e5:67:9d:de:2f:f8:53:a2:74:af:83:6c:34:80:ab:1d:2b:
         5f:e5:e6:84:01:08:09:93:84:48:52:41:73:a9:dc:a0:b8:cb:
         64:97:9a:0d:e0:77:5b:63:a3:4d:35:3d:04:aa:04:78:a4:86:
         6e:80:26:9b:33:94:ed:7f:f1:0f:06:e9:c7:45:22:32:db:41:
         b0:1f:8a:80:cf:dd:48:5a:a9:e7:2b:ac:44:17:30:dc:8b:41:
         40:32:0e:c8:2b:76:76:28:fd:bb:dc:88:89:6b:54:50:2d:20:
         a9:74:24:53:fc:e2:e6:de:99:07:d4:b6:75:0d:24:64:fa:96:
         34:9f:46:97:4f:65:4a:a7:08:b1:ab:c5:b3:22:8f:b2:9b:83:
         fb:d7:f2:62:63:aa:f1:64:27:ad:0d:d2:5b:8c:da:1f:34:1b:
         d3:0c:02:43:19:52:11:e2:d3:e3:ac:b9:24:f4:bd:ee:eb:e1:
         80:61:7c:3f:33:61:1e:80:92:dd:63:4f:09:c4:95:7e:7d:e8:
         dd:d0:59:32:28:51:4b:5b:28:c3:9c:28:b9:73:b9:c3:0a:be:
         b9:2b:c2:90:bd:62:de:da:f2:f3:94:56:5f:f7:32:25:6a:f7:
         a9:ee:55:d4:43:f8:e5:cc:f6:50:22:53:4a:e1:36:74:b2:dc:
         9a:8b:35:87:1f:75:6e:26:d1:9b:e7:d9:92:dc:e7:58:32:d6:
         39:c4:db:c4:6d:6f:56:a6:99:40:a9:7a:ec:f5:af:ad:39:2e:
         8b:7f:92:08:05:6c:ec:41
-----BEGIN CERTIFICATE-----
MIIGrTCCBJWgAwIBAgICHmwwDQYJKoZIhvcNAQEEBQAwgawxCzAJBgNVBAYTAlVT
MQswCQYDVQQIEwJPSDERMA8GA1UEBxMIQ29sdW1idXMxEjAQBgNVBAoTCVZpa2lu
Z1ZQTjEdMBsGA1UECxMUTXlPcmdhbml6YXRpb25hbFVuaXQxFTATBgNVBAMTDFZp
a2luZ1ZQTiBDQTEQMA4GA1UEKRMHRWFzeVJTQTEhMB8GCSqGSIb3DQEJARYSbWVA
bXlob3N0Lm15ZG9tYWluMB4XDTE2MDQxOTIyMTkwNVoXDTI2MDQxNzIyMTkwNVow
HzEdMBsGA1UEAxMUQ2xpZW50MTk5OENlcnQzNDcxMDIwggIiMA0GCSqGSIb3DQEB
AQUAA4ICDwAwggIKAoICAQCu+uwzuqXhjOByg7+XLjMrnruAFvFvn91qXSga0kaN
Vzk3pCipTADkvCgZ5+im0EF/AujnV1a0QY2QdaWqrLseY6kGjP53rrdRYCaLNnPL
GKKD+WUFQwlRUV7YDxp8CCwJAbZSj44UF8k09NqbAka9ZIl4Reg/YJuO5PaV5xxp
mumQtjgSOOsE6wUYxyN/76ZlnDAymbw5uOYReFkEY4r1hJX6Af0TQurMWExxclg/
VSYs5tyA8SDwkN8MgGgW2FLvLiJGvzhD60uNLWYr9tXWZ+o0M0bEPQCJDYRnjxkK
elxELJtVZtMc8T5WYzzK7MbhYp7xPdYlE7Hap8UvHgtf4MScjUjODGArRba/fD2j
omdi5hIKt6oc+vEF7soWjHCyTx3QxePobo5rbcoeXI9gavtlgJMUrSBsnzh0gZAG
v/V6DyII/a2RnAPrNs1hhWsIrNYOo605XuHSyq8RmD/qvlO+RuU98dIqYpua17Lv
BSsoV52sueFG7L+zj+g59Mfi+MKrKt5FiwaoMbZYLCtPHrPQrykAQ7jnIyi68Z0V
BTPOCrl0ksHPJePbJcIItaE0gaosIUMAQtNFTJNv+rvTC0tx5y+2DTaI1EPeiNbY
ErqXG0/RW6Med/6OA5jfWX/tFKgLqGcsMhyQ4Bzjjmwat9x2gXnFzM4IeXDFqXc2
/QIDAQABo4IBYzCCAV8wCQYDVR0TBAIwADAtBglghkgBhvhCAQ0EIBYeRWFzeS1S
U0EgR2VuZXJhdGVkIENlcnRpZmljYXRlMB0GA1UdDgQWBBSZhI8m2vBJAgaM3Z1R
4XsqM+YviDCB4QYDVR0jBIHZMIHWgBQSzWAE0qCAnnDtxpm4eyzGUv0ZoaGBsqSB
rzCBrDELMAkGA1UEBhMCVVMxCzAJBgNVBAgTAk9IMREwDwYDVQQHEwhDb2x1bWJ1
czESMBAGA1UEChMJVmlraW5nVlBOMR0wGwYDVQQLExRNeU9yZ2FuaXphdGlvbmFs
VW5pdDEVMBMGA1UEAxMMVmlraW5nVlBOIENBMRAwDgYDVQQpEwdFYXN5UlNBMSEw
HwYJKoZIhvcNAQkBFhJtZUBteWhvc3QubXlkb21haW6CCQDPNYXugL8qPjATBgNV
HSUEDDAKBggrBgEFBQcDAjALBgNVHQ8EBAMCB4AwDQYJKoZIhvcNAQEEBQADggIB
AHFSJf1DAv2GdoXvHa38t/zrYOEBMRRxGR6xMnQao/VBWxM4ptW1OmYGtT1mnRfa
tjIh2OC/p+wd7bXigSuX91YQQU7gN6KhBB7mIygTGL9Ug9g5NPNVn0Cyvpub+80F
tAVdeLaOYojd5Iju1fhybcly8ZAqkllPmFqnJCqDG+0L4MfpOjpxppcPo1948Vb1
N0gK6iVxbXTULEYoQJc8adt96+6/dZMqKC5hWptQZAIGuK4lUEnwSy5IlQUIO2rV
wE7ceK7PC5HQUyitLOnfcF1yOY6XC/V9EEblZ53eL/hTonSvg2w0gKsdK1/l5oQB
CAmThEhSQXOp3KC4y2SXmg3gd1tjo001PQSqBHikhm6AJpszlO1/8Q8G6cdFIjLb
QbAfioDP3UhaqecrrEQXMNyLQUAyDsgrdnYo/bvciIlrVFAtIKl0JFP84ubemQfU
tnUNJGT6ljSfRpdPZUqnCLGrxbMij7Kbg/vX8mJjqvFkJ60N0luM2h80G9MMAkMZ
UhHi0+OsuST0ve7r4YBhfD8zYR6Akt1jTwnElX596N3QWTIoUUtbKMOcKLlzucMK
vrkrwpC9Yt7a8vOUVl/3MiVq96nuVdRD+OXM9lAiU0rhNnSy3JqLNYcfdW4m0Zvn
2ZLc51gy1jnE28Rtb1ammUCpeuz1r605Lot/kggFbOxB
-----END CERTIFICATE-----
