Certificate:
    Data:
        Version: 3 (0x2)
        Serial Number: 7799 (0x1e77)
    Signature Algorithm: md5WithRSAEncryption
        Issuer: C=US, ST=OH, L=Columbus, O=VikingVPN, OU=MyOrganizationalUnit, CN=VikingVPN CA/name=EasyRSA/emailAddress=me@myhost.mydomain
        Validity
            Not Before: Apr 20 15:15:38 2016 GMT
            Not After : Apr 18 15:15:38 2026 GMT
        Subject: CN=Client2190Cert87adf1
        Subject Public Key Info:
            Public Key Algorithm: rsaEncryption
                Public-Key: (4096 bit)
                Modulus:
                    00:c6:c5:3e:66:ae:47:de:83:94:57:8b:90:33:62:
                    bb:c9:44:6c:35:0b:7b:23:7e:88:88:31:82:c1:52:
                    ff:b3:10:31:25:2e:b0:14:19:1f:9d:ec:8e:7b:fb:
                    57:77:3e:34:e5:74:1b:45:0c:43:b7:91:e5:ea:21:
                    f0:19:64:5c:35:18:52:31:d8:de:04:4c:06:82:5b:
                    ce:68:1c:f8:fa:8a:e9:49:7c:5f:f9:ea:5c:8c:4e:
                    7c:61:09:3a:b2:a4:99:ab:5a:9d:a7:3b:62:ba:ce:
                    82:36:c1:c3:d9:68:e8:e6:cc:9f:d5:e1:d8:b7:f2:
                    36:48:a6:c2:e0:d3:15:28:4b:7c:5c:8f:41:38:dd:
                    fe:23:53:9a:9f:ea:a2:24:4f:98:87:b7:f1:c5:c2:
                    d2:1d:b3:73:6d:f8:cf:93:2f:11:c8:36:e3:f2:e8:
                    b2:83:a2:ee:9b:63:43:36:11:9e:70:ca:4b:e3:65:
                    fa:01:c9:16:7a:3e:84:00:22:81:25:47:18:bb:85:
                    80:53:91:5b:06:64:60:c3:a1:5b:ff:48:7a:64:9b:
                    46:00:59:42:0e:65:ca:2f:07:14:7f:e1:a4:49:ad:
                    2a:c2:1b:96:7f:49:ad:fc:24:a5:11:53:73:d2:3b:
                    f8:f9:f7:86:68:f8:ee:38:03:ee:13:c4:0c:d9:da:
                    aa:01:b5:fc:fc:7b:2b:e0:6a:8d:d3:95:ad:c8:13:
                    cf:7e:be:6c:fd:ed:de:22:d7:c5:39:d8:58:37:5e:
                    be:4b:cf:13:5e:05:28:8c:34:3f:1a:c3:d0:cd:02:
                    af:76:d8:7a:ce:34:b3:d9:2b:66:81:e9:5b:83:48:
                    98:d0:fb:58:3a:cd:8b:32:46:e3:9c:fe:f9:1d:d8:
                    e7:1e:d1:f7:58:e3:eb:f3:49:fd:cd:07:d8:c8:cc:
                    19:f0:17:b5:66:d0:62:5b:24:b8:94:ca:8c:50:c3:
                    dc:36:68:ee:1e:2f:81:92:8d:68:98:6d:7b:44:4c:
                    da:dc:77:6f:80:da:ba:da:f0:d5:31:c9:a0:73:4e:
                    d8:73:14:4a:e1:6d:48:98:60:65:0f:e0:84:10:0a:
                    4a:99:4f:ac:4e:ab:b9:58:fd:f3:4c:ec:c6:08:5a:
                    f0:d5:ff:88:91:34:78:9b:37:94:5a:1e:d2:db:e4:
                    81:37:9a:d4:5a:a6:08:6e:65:24:74:a9:fc:b9:6f:
                    2f:4c:02:9e:62:a7:37:d1:60:98:4b:4d:57:b3:ee:
                    55:2c:cd:a3:ee:4c:e4:ef:68:fb:05:fa:10:81:ae:
                    0a:58:5c:7e:7d:ae:40:79:35:9c:1d:b3:83:1c:ca:
                    34:9d:8b:b6:2a:7c:04:ef:e5:25:51:75:1e:6e:ce:
                    0a:e3:e9
                Exponent: 65537 (0x10001)
        X509v3 extensions:
            X509v3 Basic Constraints: 
                CA:FALSE
            Netscape Comment: 
                Easy-RSA Generated Certificate
            X509v3 Subject Key Identifier: 
                1C:82:35:EA:34:7F:0C:86:4B:63:4A:48:E0:40:BC:99:19:F6:CB:73
            X509v3 Authority Key Identifier: 
                keyid:12:CD:60:04:D2:A0:80:9E:70:ED:C6:99:B8:7B:2C:C6:52:FD:19:A1
                DirName:/C=US/ST=OH/L=Columbus/O=VikingVPN/OU=MyOrganizationalUnit/CN=VikingVPN CA/name=EasyRSA/emailAddress=me@myhost.mydomain
                serial:CF:35:85:EE:80:BF:2A:3E

            X509v3 Extended Key Usage: 
                TLS Web Client Authentication
            X509v3 Key Usage: 
                Digital Signature
    Signature Algorithm: md5WithRSAEncryption
         32:7b:e9:81:a5:0b:69:c3:fd:81:c5:ea:4c:68:6e:34:18:77:
         96:0d:19:e3:06:65:0e:e4:51:2c:b2:a7:3d:46:3a:c4:af:f6:
         23:53:21:a9:c3:6c:c5:a7:6f:ed:68:d6:0f:3f:2f:f6:07:f1:
         4c:76:17:07:71:ee:35:1c:63:46:83:44:b8:a7:08:62:f2:5c:
         92:d2:1d:97:22:5f:6a:c2:74:f8:cc:13:2d:32:64:d8:b6:27:
         ef:67:46:f8:ae:1a:f1:23:03:75:fe:ee:14:02:ab:7e:26:2d:
         24:65:3c:98:08:45:02:40:6b:e1:4b:52:5e:a2:ac:17:62:05:
         34:2b:f9:f3:92:25:30:d0:58:d6:2f:56:63:f3:04:30:3d:5c:
         0b:bf:3d:0a:7c:7e:f6:40:1b:15:48:c1:06:69:3c:b6:17:16:
         e0:19:3b:28:a2:dd:ac:e0:37:ef:4e:31:1a:39:76:d3:73:99:
         28:95:f4:b1:28:68:c9:9a:85:d3:6a:08:e4:f4:03:7f:a4:b5:
         e0:db:8d:ea:be:3e:77:46:ee:8f:3f:1e:17:60:82:a5:77:53:
         98:3b:4c:d2:48:15:24:0d:ce:99:62:67:ca:f3:4d:d0:fa:39:
         51:3f:4c:95:12:df:37:dc:e6:ec:69:bd:45:4d:77:99:14:8e:
         cf:e9:23:3c:b2:3e:b3:41:51:03:20:30:73:e2:9b:4a:fc:7b:
         0c:7e:ec:6b:f2:23:bb:51:63:41:da:ee:bf:3b:71:ca:d9:39:
         ff:b6:9f:2b:bd:4c:99:c2:86:63:f7:89:42:b4:08:0b:f5:c2:
         b1:75:5d:3e:4b:f7:df:85:09:af:00:6c:ad:01:e6:ab:5a:fa:
         bc:4a:ab:3d:bb:4b:1f:68:38:e4:60:78:f3:1e:fa:e4:0c:53:
         6c:01:be:6d:90:35:2f:1f:13:0b:30:44:14:db:67:52:40:9b:
         d5:4d:f1:97:f3:c3:2f:0f:89:c3:35:e2:70:74:cc:28:62:da:
         2e:bc:fc:3e:4c:e6:be:64:3e:1f:e7:32:40:d8:19:80:0c:be:
         54:ad:5e:6a:54:16:ad:0a:fc:dd:d8:a6:9e:16:d2:e2:d9:0e:
         cb:50:ba:5f:11:83:90:cc:96:7c:b6:98:df:34:ec:1e:3f:cd:
         0f:f9:16:7a:e6:48:27:49:9c:93:97:02:ae:7e:6e:e2:71:df:
         55:1e:03:0e:9d:10:2a:4f:56:02:33:e4:e8:18:25:65:54:2e:
         03:b6:34:11:50:eb:1b:f7:9a:9b:40:02:d1:fa:f3:58:16:91:
         85:bc:23:86:01:af:97:da:c0:cd:33:02:45:d2:b8:b5:98:05:
         31:dd:7d:b3:0c:24:35:ec
-----BEGIN CERTIFICATE-----
MIIGrTCCBJWgAwIBAgICHncwDQYJKoZIhvcNAQEEBQAwgawxCzAJBgNVBAYTAlVT
MQswCQYDVQQIEwJPSDERMA8GA1UEBxMIQ29sdW1idXMxEjAQBgNVBAoTCVZpa2lu
Z1ZQTjEdMBsGA1UECxMUTXlPcmdhbml6YXRpb25hbFVuaXQxFTATBgNVBAMTDFZp
a2luZ1ZQTiBDQTEQMA4GA1UEKRMHRWFzeVJTQTEhMB8GCSqGSIb3DQEJARYSbWVA
bXlob3N0Lm15ZG9tYWluMB4XDTE2MDQyMDE1MTUzOFoXDTI2MDQxODE1MTUzOFow
HzEdMBsGA1UEAxMUQ2xpZW50MjE5MENlcnQ4N2FkZjEwggIiMA0GCSqGSIb3DQEB
AQUAA4ICDwAwggIKAoICAQDGxT5mrkfeg5RXi5AzYrvJRGw1C3sjfoiIMYLBUv+z
EDElLrAUGR+d7I57+1d3PjTldBtFDEO3keXqIfAZZFw1GFIx2N4ETAaCW85oHPj6
iulJfF/56lyMTnxhCTqypJmrWp2nO2K6zoI2wcPZaOjmzJ/V4di38jZIpsLg0xUo
S3xcj0E43f4jU5qf6qIkT5iHt/HFwtIds3Nt+M+TLxHINuPy6LKDou6bY0M2EZ5w
ykvjZfoByRZ6PoQAIoElRxi7hYBTkVsGZGDDoVv/SHpkm0YAWUIOZcovBxR/4aRJ
rSrCG5Z/Sa38JKURU3PSO/j594Zo+O44A+4TxAzZ2qoBtfz8eyvgao3Tla3IE89+
vmz97d4i18U52Fg3Xr5LzxNeBSiMND8aw9DNAq922HrONLPZK2aB6VuDSJjQ+1g6
zYsyRuOc/vkd2Oce0fdY4+vzSf3NB9jIzBnwF7Vm0GJbJLiUyoxQw9w2aO4eL4GS
jWiYbXtETNrcd2+A2rra8NUxyaBzTthzFErhbUiYYGUP4IQQCkqZT6xOq7lY/fNM
7MYIWvDV/4iRNHibN5RaHtLb5IE3mtRapghuZSR0qfy5by9MAp5ipzfRYJhLTVez
7lUszaPuTOTvaPsF+hCBrgpYXH59rkB5NZwds4McyjSdi7YqfATv5SVRdR5uzgrj
6QIDAQABo4IBYzCCAV8wCQYDVR0TBAIwADAtBglghkgBhvhCAQ0EIBYeRWFzeS1S
U0EgR2VuZXJhdGVkIENlcnRpZmljYXRlMB0GA1UdDgQWBBQcgjXqNH8MhktjSkjg
QLyZGfbLczCB4QYDVR0jBIHZMIHWgBQSzWAE0qCAnnDtxpm4eyzGUv0ZoaGBsqSB
rzCBrDELMAkGA1UEBhMCVVMxCzAJBgNVBAgTAk9IMREwDwYDVQQHEwhDb2x1bWJ1
czESMBAGA1UEChMJVmlraW5nVlBOMR0wGwYDVQQLExRNeU9yZ2FuaXphdGlvbmFs
VW5pdDEVMBMGA1UEAxMMVmlraW5nVlBOIENBMRAwDgYDVQQpEwdFYXN5UlNBMSEw
HwYJKoZIhvcNAQkBFhJtZUBteWhvc3QubXlkb21haW6CCQDPNYXugL8qPjATBgNV
HSUEDDAKBggrBgEFBQcDAjALBgNVHQ8EBAMCB4AwDQYJKoZIhvcNAQEEBQADggIB
ADJ76YGlC2nD/YHF6kxobjQYd5YNGeMGZQ7kUSyypz1GOsSv9iNTIanDbMWnb+1o
1g8/L/YH8Ux2Fwdx7jUcY0aDRLinCGLyXJLSHZciX2rCdPjMEy0yZNi2J+9nRviu
GvEjA3X+7hQCq34mLSRlPJgIRQJAa+FLUl6irBdiBTQr+fOSJTDQWNYvVmPzBDA9
XAu/PQp8fvZAGxVIwQZpPLYXFuAZOyii3azgN+9OMRo5dtNzmSiV9LEoaMmahdNq
COT0A3+kteDbjeq+PndG7o8/HhdggqV3U5g7TNJIFSQNzpliZ8rzTdD6OVE/TJUS
3zfc5uxpvUVNd5kUjs/pIzyyPrNBUQMgMHPim0r8ewx+7GvyI7tRY0Ha7r87ccrZ
Of+2nyu9TJnChmP3iUK0CAv1wrF1XT5L99+FCa8AbK0B5qta+rxKqz27Sx9oOORg
ePMe+uQMU2wBvm2QNS8fEwswRBTbZ1JAm9VN8Zfzwy8PicM14nB0zChi2i68/D5M
5r5kPh/nMkDYGYAMvlStXmpUFq0K/N3Ypp4W0uLZDstQul8Rg5DMlny2mN807B4/
zQ/5FnrmSCdJnJOXAq5+buJx31UeAw6dECpPVgIz5OgYJWVULgO2NBFQ6xv3mptA
AtH681gWkYW8I4YBr5fawM0zAkXSuLWYBTHdfbMMJDXs
-----END CERTIFICATE-----
