Certificate:
    Data:
        Version: 3 (0x2)
        Serial Number: 7804 (0x1e7c)
    Signature Algorithm: md5WithRSAEncryption
        Issuer: C=US, ST=OH, L=Columbus, O=VikingVPN, OU=MyOrganizationalUnit, CN=VikingVPN CA/name=EasyRSA/emailAddress=me@myhost.mydomain
        Validity
            Not Before: Apr 21 02:29:45 2016 GMT
            Not After : Apr 19 02:29:45 2026 GMT
        Subject: CN=Client1776Certcbd5f8
        Subject Public Key Info:
            Public Key Algorithm: rsaEncryption
                Public-Key: (4096 bit)
                Modulus:
                    00:b7:1c:8e:28:11:28:5d:b9:f7:eb:14:c7:fc:37:
                    c0:ca:94:b9:cc:23:eb:db:c5:8f:ae:9c:4a:bd:b3:
                    d5:99:86:21:32:a9:89:9a:bf:dc:cc:73:09:c8:8b:
                    2b:2e:2a:3f:67:bd:dd:e5:a4:43:83:3a:2f:7f:fc:
                    20:86:00:fc:b8:de:7b:f9:d9:50:30:07:ae:4d:3b:
                    fa:2e:4e:de:cb:6f:05:07:13:17:53:b0:67:18:a7:
                    24:8a:88:2b:33:88:c5:63:24:04:5b:47:4d:aa:d2:
                    67:e3:55:dc:9c:8d:5f:24:9a:d3:a0:d1:df:05:aa:
                    e2:ad:8f:7f:43:56:3e:3b:09:b0:75:09:c4:42:f8:
                    00:3e:dc:eb:55:35:1d:c8:c6:c4:1c:fe:89:28:53:
                    1d:e2:c6:88:5d:53:48:ec:b3:0c:76:a8:a4:35:3a:
                    aa:a0:2a:df:84:a7:4c:c3:bf:68:1b:f6:08:cc:2e:
                    d3:62:b8:b3:d1:d3:b6:4a:73:e8:30:4f:42:1e:15:
                    ea:2e:a3:e0:3f:3b:6a:b1:19:6c:8e:14:bd:f7:a7:
                    a4:be:91:af:cf:79:0a:1b:30:d6:d9:6e:ef:da:12:
                    01:c8:83:10:cf:ba:37:d4:3e:e0:49:ac:ef:ab:03:
                    7b:49:5d:91:c9:0d:01:fa:0f:8f:3e:89:3e:57:52:
                    35:a0:0b:a8:7d:02:6b:15:ee:26:b5:55:6a:e5:80:
                    d8:cd:1c:03:64:f8:ec:88:36:c2:d4:36:2b:4e:f3:
                    68:36:a9:c6:24:24:52:a0:ae:26:4a:f4:a5:91:09:
                    e5:74:3a:95:32:60:c7:2a:ea:cf:52:4c:d8:e9:d8:
                    44:08:09:4e:79:ee:9c:45:e2:4b:12:07:24:87:95:
                    71:07:92:8b:03:90:62:7f:29:f1:8b:3f:65:3b:4c:
                    66:a1:77:3d:f3:a6:4d:72:c6:2d:a8:d1:65:a6:56:
                    58:6a:1e:e2:c5:17:e8:d4:d9:65:1a:18:14:ae:e4:
                    f7:6a:5f:07:78:c2:a0:c7:fe:6d:85:40:2b:8c:d9:
                    4d:2d:8a:57:aa:71:81:15:76:31:1c:0e:e3:e9:d6:
                    1e:ef:3c:e3:15:7b:32:59:29:37:3e:71:c0:a0:49:
                    45:2c:37:df:2e:a0:c5:22:eb:81:a9:1f:fd:86:e9:
                    e9:bc:13:96:a1:ab:c6:af:38:7f:93:e6:a6:42:0b:
                    75:88:a3:fd:5c:5e:5e:c6:72:93:98:bd:43:e9:89:
                    0f:f9:dc:45:be:70:e9:0f:48:79:f1:9d:2b:96:2c:
                    28:12:a6:88:06:cb:b1:9a:52:db:d1:9a:da:bb:cc:
                    43:6e:d9:79:42:32:9c:35:02:eb:cc:02:d9:2a:1b:
                    ef:1b:73
                Exponent: 65537 (0x10001)
        X509v3 extensions:
            X509v3 Basic Constraints: 
                CA:FALSE
            Netscape Comment: 
                Easy-RSA Generated Certificate
            X509v3 Subject Key Identifier: 
                23:E2:CA:B0:6A:B4:CF:08:9E:4B:CD:70:5C:83:47:C5:DD:D4:B6:69
            X509v3 Authority Key Identifier: 
                keyid:12:CD:60:04:D2:A0:80:9E:70:ED:C6:99:B8:7B:2C:C6:52:FD:19:A1
                DirName:/C=US/ST=OH/L=Columbus/O=VikingVPN/OU=MyOrganizationalUnit/CN=VikingVPN CA/name=EasyRSA/emailAddress=me@myhost.mydomain
                serial:CF:35:85:EE:80:BF:2A:3E

            X509v3 Extended Key Usage: 
                TLS Web Client Authentication
            X509v3 Key Usage: 
                Digital Signature
    Signature Algorithm: md5WithRSAEncryption
         1e:77:6c:92:8e:01:ad:16:9f:41:0d:95:28:d2:69:38:bd:03:
         8b:24:31:86:d1:e9:3e:16:f8:03:94:42:a3:b4:5a:41:81:38:
         ec:68:be:40:bc:66:d6:e9:63:6d:e5:fc:6c:e4:cf:25:33:7d:
         7d:df:73:5a:ad:7a:8b:ed:bc:b4:ec:99:eb:fa:23:ab:fe:7a:
         b5:3d:d1:d0:7c:aa:5a:c1:ce:fb:1b:60:ab:78:db:4a:2c:59:
         a7:d6:4e:78:a0:0e:ff:b3:68:05:cf:9a:79:08:50:45:9a:2c:
         9d:1a:d5:59:46:fa:38:ab:52:65:93:d4:66:75:88:16:c8:40:
         a1:ec:97:3a:46:45:38:db:2e:35:13:6a:6c:8d:53:84:79:19:
         55:28:49:ab:cf:19:d8:f2:ac:0b:c3:31:45:be:ca:a4:35:be:
         86:e9:4d:b7:9f:54:78:6b:0e:f1:f4:ad:07:98:c1:06:47:04:
         0b:73:ac:de:73:d6:29:9c:e8:8e:89:7e:dc:cf:24:3b:40:cb:
         bb:e2:23:78:2d:98:26:b0:3b:70:e3:df:0f:08:8d:29:f8:41:
         7f:4d:00:e3:bb:e3:44:39:fd:44:e5:2f:87:5f:62:2f:13:67:
         d3:1a:af:d2:b7:88:2e:ea:51:52:ef:10:7e:99:4f:8e:b2:6f:
         58:c1:ee:2e:93:8c:94:9c:d1:88:90:ce:f3:20:92:6f:09:8b:
         58:1b:9d:63:6b:8f:31:d4:6f:f7:64:ed:be:ed:0f:bb:89:92:
         41:bf:f3:0a:e1:a3:e2:81:35:f8:0f:6c:bf:04:c1:43:c7:3c:
         fe:f2:20:75:ba:cc:8a:af:6f:73:ac:09:fb:20:4e:2b:04:c3:
         1b:62:63:5b:81:ca:b1:0d:2f:5c:58:12:99:33:63:6a:b4:2f:
         a8:da:03:11:b9:e5:1d:9d:8b:d1:48:11:1a:6b:18:ab:0b:20:
         20:7a:15:df:56:cf:a7:21:4c:ea:af:fa:8f:85:24:07:3e:61:
         02:d4:2d:ff:ab:2c:98:45:1e:b0:a2:fe:51:f1:27:26:ac:8b:
         2c:6f:dd:cf:f4:d1:38:f3:84:b2:8b:c7:18:2c:11:93:25:11:
         db:07:de:29:d2:75:ee:06:c5:8f:85:22:a0:75:8b:67:2b:43:
         f0:cd:cb:46:7d:44:36:d7:98:6b:51:34:19:ce:35:6f:64:15:
         90:93:85:9e:32:98:d2:ae:c0:9b:da:6d:0c:9d:2f:de:29:fe:
         96:70:ba:0e:81:19:3c:20:80:1a:96:ed:f7:7e:aa:e4:fc:26:
         3b:09:48:b8:ac:f1:ac:a9:a5:58:16:c9:31:85:a4:ec:82:96:
         35:d4:40:f2:9c:a5:88:5f
-----BEGIN CERTIFICATE-----
MIIGrTCCBJWgAwIBAgICHnwwDQYJKoZIhvcNAQEEBQAwgawxCzAJBgNVBAYTAlVT
MQswCQYDVQQIEwJPSDERMA8GA1UEBxMIQ29sdW1idXMxEjAQBgNVBAoTCVZpa2lu
Z1ZQTjEdMBsGA1UECxMUTXlPcmdhbml6YXRpb25hbFVuaXQxFTATBgNVBAMTDFZp
a2luZ1ZQTiBDQTEQMA4GA1UEKRMHRWFzeVJTQTEhMB8GCSqGSIb3DQEJARYSbWVA
bXlob3N0Lm15ZG9tYWluMB4XDTE2MDQyMTAyMjk0NVoXDTI2MDQxOTAyMjk0NVow
HzEdMBsGA1UEAxMUQ2xpZW50MTc3NkNlcnRjYmQ1ZjgwggIiMA0GCSqGSIb3DQEB
AQUAA4ICDwAwggIKAoICAQC3HI4oEShduffrFMf8N8DKlLnMI+vbxY+unEq9s9WZ
hiEyqYmav9zMcwnIiysuKj9nvd3lpEODOi9//CCGAPy43nv52VAwB65NO/ouTt7L
bwUHExdTsGcYpySKiCsziMVjJARbR02q0mfjVdycjV8kmtOg0d8FquKtj39DVj47
CbB1CcRC+AA+3OtVNR3IxsQc/okoUx3ixohdU0jsswx2qKQ1OqqgKt+Ep0zDv2gb
9gjMLtNiuLPR07ZKc+gwT0IeFeouo+A/O2qxGWyOFL33p6S+ka/PeQobMNbZbu/a
EgHIgxDPujfUPuBJrO+rA3tJXZHJDQH6D48+iT5XUjWgC6h9AmsV7ia1VWrlgNjN
HANk+OyINsLUNitO82g2qcYkJFKgriZK9KWRCeV0OpUyYMcq6s9STNjp2EQICU55
7pxF4ksSBySHlXEHkosDkGJ/KfGLP2U7TGahdz3zpk1yxi2o0WWmVlhqHuLFF+jU
2WUaGBSu5PdqXwd4wqDH/m2FQCuM2U0tileqcYEVdjEcDuPp1h7vPOMVezJZKTc+
ccCgSUUsN98uoMUi64GpH/2G6em8E5ahq8avOH+T5qZCC3WIo/1cXl7GcpOYvUPp
iQ/53EW+cOkPSHnxnSuWLCgSpogGy7GaUtvRmtq7zENu2XlCMpw1AuvMAtkqG+8b
cwIDAQABo4IBYzCCAV8wCQYDVR0TBAIwADAtBglghkgBhvhCAQ0EIBYeRWFzeS1S
U0EgR2VuZXJhdGVkIENlcnRpZmljYXRlMB0GA1UdDgQWBBQj4sqwarTPCJ5LzXBc
g0fF3dS2aTCB4QYDVR0jBIHZMIHWgBQSzWAE0qCAnnDtxpm4eyzGUv0ZoaGBsqSB
rzCBrDELMAkGA1UEBhMCVVMxCzAJBgNVBAgTAk9IMREwDwYDVQQHEwhDb2x1bWJ1
czESMBAGA1UEChMJVmlraW5nVlBOMR0wGwYDVQQLExRNeU9yZ2FuaXphdGlvbmFs
VW5pdDEVMBMGA1UEAxMMVmlraW5nVlBOIENBMRAwDgYDVQQpEwdFYXN5UlNBMSEw
HwYJKoZIhvcNAQkBFhJtZUBteWhvc3QubXlkb21haW6CCQDPNYXugL8qPjATBgNV
HSUEDDAKBggrBgEFBQcDAjALBgNVHQ8EBAMCB4AwDQYJKoZIhvcNAQEEBQADggIB
AB53bJKOAa0Wn0ENlSjSaTi9A4skMYbR6T4W+AOUQqO0WkGBOOxovkC8ZtbpY23l
/GzkzyUzfX3fc1qteovtvLTsmev6I6v+erU90dB8qlrBzvsbYKt420osWafWTnig
Dv+zaAXPmnkIUEWaLJ0a1VlG+jirUmWT1GZ1iBbIQKHslzpGRTjbLjUTamyNU4R5
GVUoSavPGdjyrAvDMUW+yqQ1vobpTbefVHhrDvH0rQeYwQZHBAtzrN5z1imc6I6J
ftzPJDtAy7viI3gtmCawO3Dj3w8IjSn4QX9NAOO740Q5/UTlL4dfYi8TZ9Mar9K3
iC7qUVLvEH6ZT46yb1jB7i6TjJSc0YiQzvMgkm8Ji1gbnWNrjzHUb/dk7b7tD7uJ
kkG/8wrho+KBNfgPbL8EwUPHPP7yIHW6zIqvb3OsCfsgTisEwxtiY1uByrENL1xY
EpkzY2q0L6jaAxG55R2di9FIERprGKsLICB6Fd9Wz6chTOqv+o+FJAc+YQLULf+r
LJhFHrCi/lHxJyasiyxv3c/00TjzhLKLxxgsEZMlEdsH3inSde4GxY+FIqB1i2cr
Q/DNy0Z9RDbXmGtRNBnONW9kFZCThZ4ymNKuwJvabQydL94p/pZwug6BGTwggBqW
7fd+quT8JjsJSLis8ayppVgWyTGFpOyCljXUQPKcpYhf
-----END CERTIFICATE-----
