Certificate:
    Data:
        Version: 3 (0x2)
        Serial Number: 7807 (0x1e7f)
    Signature Algorithm: md5WithRSAEncryption
        Issuer: C=US, ST=OH, L=Columbus, O=VikingVPN, OU=MyOrganizationalUnit, CN=VikingVPN CA/name=EasyRSA/emailAddress=me@myhost.mydomain
        Validity
            Not Before: Apr 21 11:48:00 2016 GMT
            Not After : Apr 19 11:48:00 2026 GMT
        Subject: CN=Client2169Cert4af987
        Subject Public Key Info:
            Public Key Algorithm: rsaEncryption
                Public-Key: (4096 bit)
                Modulus:
                    00:d8:7e:e4:e2:15:78:48:ff:ba:43:34:9e:48:61:
                    6b:3c:37:3e:45:09:ee:4a:b4:23:30:86:8f:c9:c1:
                    cd:d7:2f:f5:f4:00:0f:43:6b:3d:1d:23:a1:a1:8a:
                    a8:64:d4:c6:a9:5b:76:0b:dc:49:47:7d:c7:97:f2:
                    f2:ca:78:a4:b8:36:02:ca:fa:88:33:ed:45:42:13:
                    4e:c8:47:a1:59:c8:0b:38:26:45:5b:07:c7:4e:e8:
                    e8:d8:88:66:62:b9:db:83:07:e2:09:ae:cf:c5:a5:
                    da:92:a6:2c:c8:e8:87:47:4c:89:60:98:fa:56:00:
                    c9:fe:c4:25:97:00:8f:77:44:21:5c:97:ef:72:2a:
                    50:96:1e:6d:b2:32:d0:9d:7b:b6:19:6c:1e:f0:6d:
                    ae:ee:25:a0:ea:a1:68:28:44:57:17:b1:52:77:89:
                    27:8a:18:5d:f4:58:73:ff:23:8c:b5:76:8d:4f:39:
                    0e:ea:f0:79:c1:05:98:21:dd:a2:58:57:60:21:e8:
                    a2:30:a8:e6:de:fe:69:07:ff:ca:61:1a:f4:57:e5:
                    10:33:15:75:28:c5:d5:dc:4a:c1:60:60:fb:73:d5:
                    5a:15:36:9d:d7:c8:37:b7:09:f2:f5:77:0c:b3:42:
                    9b:aa:ef:56:d9:55:bd:5d:c0:c0:03:02:96:c2:7e:
                    1f:84:bf:ca:69:ac:49:67:fd:48:18:1b:93:1c:63:
                    70:97:b2:5b:f0:e7:f6:7c:69:f1:60:09:48:41:85:
                    3f:83:22:af:55:01:d6:f5:32:f2:bf:f8:e6:76:9d:
                    aa:8d:9b:f2:df:cc:69:48:8c:9b:40:ef:f3:9d:4a:
                    07:5f:da:1b:4f:b1:0c:ce:d4:c6:99:80:5e:c7:80:
                    ea:ec:84:97:59:60:03:05:19:ae:0f:09:80:71:df:
                    3a:57:23:5f:db:4f:97:a1:fd:b4:3c:c6:27:c8:2c:
                    5b:78:be:ed:42:94:2b:4c:e0:0c:d2:a5:8c:2e:be:
                    83:fc:57:71:53:90:ae:9a:59:05:ed:2e:e4:1e:bb:
                    99:03:e1:f0:f2:07:47:c6:ee:5f:ca:c2:02:64:28:
                    8e:9a:38:9d:c8:29:a9:9f:10:3f:03:d3:17:a2:0d:
                    8b:21:bb:9c:8d:33:d3:f7:5e:d5:40:19:67:8a:18:
                    ee:1a:55:76:a7:f1:45:f0:3b:3b:33:2e:79:5b:4f:
                    ab:f2:07:04:e0:15:83:89:1d:21:c9:87:54:61:5b:
                    ee:fa:79:06:c6:6e:d5:0c:ad:e9:a7:27:84:d8:3c:
                    60:df:fd:06:7c:5f:c0:92:92:df:60:e8:64:06:c7:
                    2c:51:d5:be:90:3f:de:2d:ef:51:a5:45:07:5a:47:
                    9c:9e:25
                Exponent: 65537 (0x10001)
        X509v3 extensions:
            X509v3 Basic Constraints: 
                CA:FALSE
            Netscape Comment: 
                Easy-RSA Generated Certificate
            X509v3 Subject Key Identifier: 
                6C:CD:96:7F:38:96:94:AF:68:6B:B6:AB:1D:C2:28:CE:39:8D:7B:5C
            X509v3 Authority Key Identifier: 
                keyid:12:CD:60:04:D2:A0:80:9E:70:ED:C6:99:B8:7B:2C:C6:52:FD:19:A1
                DirName:/C=US/ST=OH/L=Columbus/O=VikingVPN/OU=MyOrganizationalUnit/CN=VikingVPN CA/name=EasyRSA/emailAddress=me@myhost.mydomain
                serial:CF:35:85:EE:80:BF:2A:3E

            X509v3 Extended Key Usage: 
                TLS Web Client Authentication
            X509v3 Key Usage: 
                Digital Signature
    Signature Algorithm: md5WithRSAEncryption
         0a:47:a8:f0:f8:56:50:16:ee:7f:e0:d0:44:a2:2d:3c:b9:37:
         ca:6f:05:44:a4:3c:82:a4:75:80:45:38:d5:67:57:41:ae:ac:
         50:f2:ce:f8:80:7d:88:f1:a0:9a:40:92:db:fc:38:87:de:1e:
         24:62:50:5a:3f:3e:71:8d:bf:a0:93:f8:b3:7d:2c:3f:6d:c7:
         69:c8:5a:ed:13:a3:5a:cb:b8:4b:83:b8:93:b8:e4:03:c8:c7:
         10:9c:55:0f:6d:ab:b6:6f:72:38:cb:04:3f:64:79:95:00:55:
         e4:95:23:d1:5d:ce:e4:25:d8:b8:47:fa:89:f6:0a:d5:1c:55:
         86:76:f5:5e:02:b4:0f:93:1b:2f:53:dd:36:c3:72:53:e6:32:
         0c:e2:22:b0:f6:26:20:1a:55:e7:41:77:2b:45:7e:20:f7:f1:
         d1:f8:8d:60:87:90:3f:a9:2c:eb:5f:ce:c5:13:20:63:d6:36:
         1b:f6:a4:0b:b8:ab:a6:7a:16:4b:0a:d9:f1:b7:84:14:3a:4d:
         00:52:89:fd:5d:ea:2b:51:e8:af:55:c1:be:81:a3:e6:cb:96:
         7a:16:50:02:c6:00:03:df:cc:25:0f:03:8e:6e:b0:3b:0c:e6:
         62:db:ee:6e:f2:0b:c3:2b:0a:45:a2:a7:17:4b:44:f0:c0:0b:
         ef:0c:cd:e4:7a:32:dc:6c:20:1b:4c:84:d2:12:b7:e8:52:61:
         68:b3:4b:a1:e4:f7:66:2a:eb:08:90:1b:4e:3b:09:8d:41:5f:
         ab:d2:f1:78:bb:89:43:a1:f4:a3:7b:5a:fc:64:5e:cc:c6:b2:
         e6:6e:de:94:e8:e5:27:0c:69:4e:bd:f9:2b:87:24:43:06:c6:
         a6:ed:c1:50:5c:a5:4c:f3:8c:c7:75:d6:09:7e:a0:3b:14:01:
         b1:59:ad:f5:9a:34:2e:06:61:5f:d2:41:ac:81:21:85:2b:f5:
         07:32:e6:b5:67:0d:3a:7d:f4:b6:4c:99:23:07:55:34:78:a7:
         28:49:37:54:4b:cc:1d:f9:c8:4c:24:4c:ff:4f:d0:cb:52:c8:
         c1:08:f9:1a:dd:3f:af:07:7c:32:c1:5d:28:87:b3:a3:ec:45:
         83:3f:9b:77:d4:ba:4d:e0:58:a4:cc:fa:c1:e5:a7:7d:b1:44:
         0c:d8:1d:56:2e:b0:07:0d:e8:6d:1c:e6:37:ea:8d:aa:29:8d:
         21:85:34:df:20:ef:0e:2a:7e:1f:92:29:e1:1a:d5:7b:34:a6:
         23:6a:0f:34:1b:25:c4:de:81:22:12:79:62:a3:96:bf:15:73:
         d0:24:4d:9e:ee:b1:10:0b:f0:65:35:79:c6:e9:38:91:c3:e9:
         4d:d8:cc:2c:e2:20:34:25
-----BEGIN CERTIFICATE-----
MIIGrTCCBJWgAwIBAgICHn8wDQYJKoZIhvcNAQEEBQAwgawxCzAJBgNVBAYTAlVT
MQswCQYDVQQIEwJPSDERMA8GA1UEBxMIQ29sdW1idXMxEjAQBgNVBAoTCVZpa2lu
Z1ZQTjEdMBsGA1UECxMUTXlPcmdhbml6YXRpb25hbFVuaXQxFTATBgNVBAMTDFZp
a2luZ1ZQTiBDQTEQMA4GA1UEKRMHRWFzeVJTQTEhMB8GCSqGSIb3DQEJARYSbWVA
bXlob3N0Lm15ZG9tYWluMB4XDTE2MDQyMTExNDgwMFoXDTI2MDQxOTExNDgwMFow
HzEdMBsGA1UEAxMUQ2xpZW50MjE2OUNlcnQ0YWY5ODcwggIiMA0GCSqGSIb3DQEB
AQUAA4ICDwAwggIKAoICAQDYfuTiFXhI/7pDNJ5IYWs8Nz5FCe5KtCMwho/Jwc3X
L/X0AA9Daz0dI6Ghiqhk1MapW3YL3ElHfceX8vLKeKS4NgLK+ogz7UVCE07IR6FZ
yAs4JkVbB8dO6OjYiGZiuduDB+IJrs/FpdqSpizI6IdHTIlgmPpWAMn+xCWXAI93
RCFcl+9yKlCWHm2yMtCde7YZbB7wba7uJaDqoWgoRFcXsVJ3iSeKGF30WHP/I4y1
do1POQ7q8HnBBZgh3aJYV2Ah6KIwqObe/mkH/8phGvRX5RAzFXUoxdXcSsFgYPtz
1VoVNp3XyDe3CfL1dwyzQpuq71bZVb1dwMADApbCfh+Ev8pprEln/UgYG5McY3CX
slvw5/Z8afFgCUhBhT+DIq9VAdb1MvK/+OZ2naqNm/LfzGlIjJtA7/OdSgdf2htP
sQzO1MaZgF7HgOrshJdZYAMFGa4PCYBx3zpXI1/bT5eh/bQ8xifILFt4vu1ClCtM
4AzSpYwuvoP8V3FTkK6aWQXtLuQeu5kD4fDyB0fG7l/KwgJkKI6aOJ3IKamfED8D
0xeiDYshu5yNM9P3XtVAGWeKGO4aVXan8UXwOzszLnlbT6vyBwTgFYOJHSHJh1Rh
W+76eQbGbtUMremnJ4TYPGDf/QZ8X8CSkt9g6GQGxyxR1b6QP94t71GlRQdaR5ye
JQIDAQABo4IBYzCCAV8wCQYDVR0TBAIwADAtBglghkgBhvhCAQ0EIBYeRWFzeS1S
U0EgR2VuZXJhdGVkIENlcnRpZmljYXRlMB0GA1UdDgQWBBRszZZ/OJaUr2hrtqsd
wijOOY17XDCB4QYDVR0jBIHZMIHWgBQSzWAE0qCAnnDtxpm4eyzGUv0ZoaGBsqSB
rzCBrDELMAkGA1UEBhMCVVMxCzAJBgNVBAgTAk9IMREwDwYDVQQHEwhDb2x1bWJ1
czESMBAGA1UEChMJVmlraW5nVlBOMR0wGwYDVQQLExRNeU9yZ2FuaXphdGlvbmFs
VW5pdDEVMBMGA1UEAxMMVmlraW5nVlBOIENBMRAwDgYDVQQpEwdFYXN5UlNBMSEw
HwYJKoZIhvcNAQkBFhJtZUBteWhvc3QubXlkb21haW6CCQDPNYXugL8qPjATBgNV
HSUEDDAKBggrBgEFBQcDAjALBgNVHQ8EBAMCB4AwDQYJKoZIhvcNAQEEBQADggIB
AApHqPD4VlAW7n/g0ESiLTy5N8pvBUSkPIKkdYBFONVnV0GurFDyzviAfYjxoJpA
ktv8OIfeHiRiUFo/PnGNv6CT+LN9LD9tx2nIWu0To1rLuEuDuJO45APIxxCcVQ9t
q7ZvcjjLBD9keZUAVeSVI9FdzuQl2LhH+on2CtUcVYZ29V4CtA+TGy9T3TbDclPm
MgziIrD2JiAaVedBdytFfiD38dH4jWCHkD+pLOtfzsUTIGPWNhv2pAu4q6Z6FksK
2fG3hBQ6TQBSif1d6itR6K9Vwb6Bo+bLlnoWUALGAAPfzCUPA45usDsM5mLb7m7y
C8MrCkWipxdLRPDAC+8MzeR6MtxsIBtMhNISt+hSYWizS6Hk92Yq6wiQG047CY1B
X6vS8Xi7iUOh9KN7WvxkXszGsuZu3pTo5ScMaU69+SuHJEMGxqbtwVBcpUzzjMd1
1gl+oDsUAbFZrfWaNC4GYV/SQayBIYUr9Qcy5rVnDTp99LZMmSMHVTR4pyhJN1RL
zB35yEwkTP9P0MtSyMEI+RrdP68HfDLBXSiHs6PsRYM/m3fUuk3gWKTM+sHlp32x
RAzYHVYusAcN6G0c5jfqjaopjSGFNN8g7w4qfh+SKeEa1Xs0piNqDzQbJcTegSIS
eWKjlr8Vc9AkTZ7usRAL8GU1ecbpOJHD6U3YzCziIDQl
-----END CERTIFICATE-----
