Certificate:
    Data:
        Version: 3 (0x2)
        Serial Number: 7850 (0x1eaa)
    Signature Algorithm: md5WithRSAEncryption
        Issuer: C=US, ST=OH, L=Columbus, O=VikingVPN, OU=MyOrganizationalUnit, CN=VikingVPN CA/name=EasyRSA/emailAddress=me@myhost.mydomain
        Validity
            Not Before: Apr 26 19:50:32 2016 GMT
            Not After : Apr 24 19:50:32 2026 GMT
        Subject: CN=Client2273Cert7dd59d
        Subject Public Key Info:
            Public Key Algorithm: rsaEncryption
                Public-Key: (4096 bit)
                Modulus:
                    00:da:df:63:22:ca:4d:79:af:22:e1:22:71:8e:4d:
                    32:80:63:5d:df:b4:e5:93:16:24:f9:17:e9:38:43:
                    94:e3:4e:cf:d4:0e:a0:db:e5:ee:8b:2f:3b:86:bb:
                    6d:f4:57:b8:f9:dd:be:a4:b3:7b:9c:90:51:8e:ef:
                    1c:83:6b:47:1c:4a:ba:d3:eb:10:df:d6:1b:27:c9:
                    da:42:c4:ed:63:82:f5:d3:ac:5d:fd:12:c0:ee:99:
                    6b:9a:0e:e2:ad:6e:7f:31:0a:b4:94:4d:5e:a9:f1:
                    be:6f:a2:b5:79:f2:d7:04:39:a0:0e:ed:11:d7:f3:
                    c5:48:37:2c:8e:06:3e:53:5a:6e:12:2e:36:8e:13:
                    5a:24:a1:7b:1d:fa:2d:b9:2a:35:e0:7f:c2:03:f2:
                    5e:49:1f:b3:3e:bb:3c:66:db:3b:4e:28:70:fb:93:
                    fb:c1:36:91:f7:d9:1e:99:dd:9e:10:c6:ee:81:ad:
                    a1:77:e7:7d:30:99:a4:45:6f:cf:56:87:6f:41:42:
                    ca:65:69:42:7d:25:ce:cc:56:aa:2e:5d:b9:73:de:
                    8b:b9:f4:b6:20:57:bb:68:ff:4f:63:87:70:65:69:
                    e4:13:b2:d0:75:50:5d:57:9c:98:01:45:3e:99:c1:
                    5f:26:79:06:52:30:1d:ac:f5:14:eb:f4:9a:00:b9:
                    42:d2:c0:a6:3d:c9:b1:2e:6e:7f:fa:40:d6:dd:20:
                    10:3a:fc:71:8a:c8:56:1c:5b:57:42:07:2e:d6:99:
                    7f:8e:4e:b4:c9:08:a1:04:43:25:02:15:4e:af:c9:
                    6c:a8:ac:3b:32:14:13:6b:96:73:b7:29:c3:1f:11:
                    1e:68:58:d6:2b:6e:0b:e1:48:1f:ca:62:a9:3e:87:
                    7b:ac:06:f7:80:bd:49:31:88:6a:1f:7a:bf:1c:86:
                    77:98:61:a5:6c:c3:49:1a:cc:5c:29:01:34:60:09:
                    12:49:b0:bd:49:87:1f:35:21:51:b6:30:68:78:ff:
                    7f:b7:b7:72:c5:31:0c:42:0e:f9:83:df:02:f3:b7:
                    16:c4:36:db:a5:aa:cb:b5:46:ac:19:60:b8:2f:e2:
                    99:79:55:ea:cd:12:37:b4:af:ed:c8:2f:78:28:37:
                    b1:ea:8d:c9:86:83:b3:17:14:de:74:1e:1c:33:e2:
                    ac:ee:e6:ec:46:9c:a3:0b:9f:31:02:51:4a:91:de:
                    34:d3:25:45:ff:49:8a:79:31:2d:5b:ba:2b:69:f4:
                    61:fb:a1:ce:d5:d1:20:0d:60:35:04:17:40:59:0f:
                    4c:4a:0f:0f:56:54:44:43:ff:b1:d0:01:26:d3:6a:
                    5f:e9:55:c4:c2:8b:81:0a:58:a6:64:6d:db:32:14:
                    b5:88:29
                Exponent: 65537 (0x10001)
        X509v3 extensions:
            X509v3 Basic Constraints: 
                CA:FALSE
            Netscape Comment: 
                Easy-RSA Generated Certificate
            X509v3 Subject Key Identifier: 
                A4:BC:8D:7A:5A:C7:37:38:50:78:7C:40:37:05:74:4C:E9:36:78:FE
            X509v3 Authority Key Identifier: 
                keyid:12:CD:60:04:D2:A0:80:9E:70:ED:C6:99:B8:7B:2C:C6:52:FD:19:A1
                DirName:/C=US/ST=OH/L=Columbus/O=VikingVPN/OU=MyOrganizationalUnit/CN=VikingVPN CA/name=EasyRSA/emailAddress=me@myhost.mydomain
                serial:CF:35:85:EE:80:BF:2A:3E

            X509v3 Extended Key Usage: 
                TLS Web Client Authentication
            X509v3 Key Usage: 
                Digital Signature
    Signature Algorithm: md5WithRSAEncryption
         4e:36:99:6d:f5:8b:08:53:8e:33:55:48:79:04:5b:2b:29:45:
         62:de:4f:ef:8e:da:d2:93:96:e2:aa:96:19:aa:dd:93:55:58:
         0d:17:21:3f:0e:88:38:2b:3b:07:2d:af:a3:bd:8c:d9:9c:fc:
         24:a9:3a:14:85:74:71:24:10:83:a2:27:cc:6b:05:d9:32:04:
         08:74:b5:3f:1e:d6:3e:22:9a:8d:3f:eb:28:c5:c6:ee:42:3a:
         6d:67:0d:69:49:c1:1d:4d:36:a9:65:c7:a3:9a:13:7b:10:b7:
         fa:86:75:0d:11:71:da:2a:3f:c7:4a:46:35:99:9e:5a:39:9d:
         b8:71:7e:76:34:b9:bd:ec:14:82:60:a7:c6:9c:83:c4:b4:a6:
         20:3e:34:79:3c:be:1a:0b:ef:b8:9a:42:13:91:b9:59:e2:29:
         c2:aa:26:9e:a1:af:0a:81:8f:8a:e1:97:83:f5:4b:ad:97:b3:
         ca:3e:94:d1:07:5a:60:94:b2:e3:0c:42:76:8f:0b:2b:9b:4d:
         be:50:db:23:c4:5c:cf:bb:1a:8a:94:f9:dd:5d:38:c5:70:e0:
         46:8f:29:36:1b:10:07:57:5d:8c:7a:9b:29:51:4c:75:56:56:
         44:c2:29:f8:fe:70:1c:aa:d4:ba:f1:3b:95:ce:9c:df:e7:7b:
         39:00:f0:dc:88:15:fd:87:87:90:15:13:fb:a7:25:97:ac:8e:
         5f:8b:d8:b5:5b:7e:a2:82:5b:0a:d4:50:49:3f:3a:b6:7d:cb:
         50:fc:55:ee:cf:0d:86:90:68:ac:5d:ee:bc:79:11:3e:85:cb:
         b2:93:a3:a4:98:7e:25:d2:8f:a0:9e:ef:ac:7c:6e:4b:1b:2c:
         49:f0:90:6b:9b:9a:a1:a3:4f:be:1d:71:5a:9c:fe:84:a9:35:
         c7:24:34:8d:f9:c2:0c:62:f0:7c:40:0e:8a:25:70:3d:45:00:
         5b:01:1b:17:3d:ba:79:d4:27:a6:ef:4b:3c:a5:c0:c4:31:82:
         70:67:e5:34:1e:4b:1f:b6:1e:fb:67:42:b0:81:30:1e:60:b4:
         cd:11:aa:76:38:09:a5:8b:17:0b:72:09:d3:6d:e9:8f:c7:bc:
         d4:91:94:62:cc:d9:9c:3e:78:84:9a:56:10:cc:f1:9b:62:25:
         86:c5:1f:eb:7f:15:37:24:72:bd:69:13:f2:f0:12:19:32:51:
         80:d4:96:24:48:1a:ca:00:9d:09:fa:6c:43:cd:07:d8:cc:a0:
         a0:a6:0b:78:13:52:ee:d0:69:b9:79:b2:30:7a:c1:c1:7e:61:
         56:08:1b:04:ae:bf:e4:72:4d:55:2b:f5:fa:f2:5a:e5:92:39:
         62:4f:63:74:e8:75:9c:73
-----BEGIN CERTIFICATE-----
MIIGrTCCBJWgAwIBAgICHqowDQYJKoZIhvcNAQEEBQAwgawxCzAJBgNVBAYTAlVT
MQswCQYDVQQIEwJPSDERMA8GA1UEBxMIQ29sdW1idXMxEjAQBgNVBAoTCVZpa2lu
Z1ZQTjEdMBsGA1UECxMUTXlPcmdhbml6YXRpb25hbFVuaXQxFTATBgNVBAMTDFZp
a2luZ1ZQTiBDQTEQMA4GA1UEKRMHRWFzeVJTQTEhMB8GCSqGSIb3DQEJARYSbWVA
bXlob3N0Lm15ZG9tYWluMB4XDTE2MDQyNjE5NTAzMloXDTI2MDQyNDE5NTAzMlow
HzEdMBsGA1UEAxMUQ2xpZW50MjI3M0NlcnQ3ZGQ1OWQwggIiMA0GCSqGSIb3DQEB
AQUAA4ICDwAwggIKAoICAQDa32Miyk15ryLhInGOTTKAY13ftOWTFiT5F+k4Q5Tj
Ts/UDqDb5e6LLzuGu230V7j53b6ks3uckFGO7xyDa0ccSrrT6xDf1hsnydpCxO1j
gvXTrF39EsDumWuaDuKtbn8xCrSUTV6p8b5vorV58tcEOaAO7RHX88VINyyOBj5T
Wm4SLjaOE1okoXsd+i25KjXgf8ID8l5JH7M+uzxm2ztOKHD7k/vBNpH32R6Z3Z4Q
xu6BraF3530wmaRFb89Wh29BQsplaUJ9Jc7MVqouXblz3ou59LYgV7to/09jh3Bl
aeQTstB1UF1XnJgBRT6ZwV8meQZSMB2s9RTr9JoAuULSwKY9ybEubn/6QNbdIBA6
/HGKyFYcW1dCBy7WmX+OTrTJCKEEQyUCFU6vyWyorDsyFBNrlnO3KcMfER5oWNYr
bgvhSB/KYqk+h3usBveAvUkxiGofer8chneYYaVsw0kazFwpATRgCRJJsL1Jhx81
IVG2MGh4/3+3t3LFMQxCDvmD3wLztxbENtulqsu1RqwZYLgv4pl5VerNEje0r+3I
L3goN7HqjcmGg7MXFN50Hhwz4qzu5uxGnKMLnzECUUqR3jTTJUX/SYp5MS1buitp
9GH7oc7V0SANYDUEF0BZD0xKDw9WVERD/7HQASbTal/pVcTCi4EKWKZkbdsyFLWI
KQIDAQABo4IBYzCCAV8wCQYDVR0TBAIwADAtBglghkgBhvhCAQ0EIBYeRWFzeS1S
U0EgR2VuZXJhdGVkIENlcnRpZmljYXRlMB0GA1UdDgQWBBSkvI16Wsc3OFB4fEA3
BXRM6TZ4/jCB4QYDVR0jBIHZMIHWgBQSzWAE0qCAnnDtxpm4eyzGUv0ZoaGBsqSB
rzCBrDELMAkGA1UEBhMCVVMxCzAJBgNVBAgTAk9IMREwDwYDVQQHEwhDb2x1bWJ1
czESMBAGA1UEChMJVmlraW5nVlBOMR0wGwYDVQQLExRNeU9yZ2FuaXphdGlvbmFs
VW5pdDEVMBMGA1UEAxMMVmlraW5nVlBOIENBMRAwDgYDVQQpEwdFYXN5UlNBMSEw
HwYJKoZIhvcNAQkBFhJtZUBteWhvc3QubXlkb21haW6CCQDPNYXugL8qPjATBgNV
HSUEDDAKBggrBgEFBQcDAjALBgNVHQ8EBAMCB4AwDQYJKoZIhvcNAQEEBQADggIB
AE42mW31iwhTjjNVSHkEWyspRWLeT++O2tKTluKqlhmq3ZNVWA0XIT8OiDgrOwct
r6O9jNmc/CSpOhSFdHEkEIOiJ8xrBdkyBAh0tT8e1j4imo0/6yjFxu5COm1nDWlJ
wR1NNqllx6OaE3sQt/qGdQ0RcdoqP8dKRjWZnlo5nbhxfnY0ub3sFIJgp8acg8S0
piA+NHk8vhoL77iaQhORuVniKcKqJp6hrwqBj4rhl4P1S62Xs8o+lNEHWmCUsuMM
QnaPCyubTb5Q2yPEXM+7GoqU+d1dOMVw4EaPKTYbEAdXXYx6mylRTHVWVkTCKfj+
cByq1LrxO5XOnN/nezkA8NyIFf2Hh5AVE/unJZesjl+L2LVbfqKCWwrUUEk/OrZ9
y1D8Ve7PDYaQaKxd7rx5ET6Fy7KTo6SYfiXSj6Ce76x8bksbLEnwkGubmqGjT74d
cVqc/oSpNcckNI35wgxi8HxADoolcD1FAFsBGxc9unnUJ6bvSzylwMQxgnBn5TQe
Sx+2HvtnQrCBMB5gtM0RqnY4CaWLFwtyCdNt6Y/HvNSRlGLM2Zw+eISaVhDM8Zti
JYbFH+t/FTckcr1pE/LwEhkyUYDUliRIGsoAnQn6bEPNB9jMoKCmC3gTUu7Qabl5
sjB6wcF+YVYIGwSuv+RyTVUr9fryWuWSOWJPY3TodZxz
-----END CERTIFICATE-----
