Certificate:
    Data:
        Version: 3 (0x2)
        Serial Number: 7869 (0x1ebd)
    Signature Algorithm: md5WithRSAEncryption
        Issuer: C=US, ST=OH, L=Columbus, O=VikingVPN, OU=MyOrganizationalUnit, CN=VikingVPN CA/name=EasyRSA/emailAddress=me@myhost.mydomain
        Validity
            Not Before: Apr 29 17:19:37 2016 GMT
            Not After : Apr 27 17:19:37 2026 GMT
        Subject: CN=Client1837Certc5b2ac
        Subject Public Key Info:
            Public Key Algorithm: rsaEncryption
                Public-Key: (4096 bit)
                Modulus:
                    00:e0:8f:1e:d3:6f:7c:2c:50:b7:cb:75:d4:3e:da:
                    53:25:9a:9e:32:4b:41:c3:1b:19:59:11:b5:03:6a:
                    47:9b:f6:df:7a:22:8f:e7:83:74:98:7a:87:c4:62:
                    e0:b0:1c:1d:84:ae:17:b6:8f:f6:2e:c2:ff:02:27:
                    c2:c7:58:12:7e:89:86:2b:a9:c1:25:d4:77:13:b3:
                    d1:61:3e:8c:da:47:cd:d8:5a:4c:33:f4:b3:60:1d:
                    6d:83:93:31:ba:8d:3e:ac:c5:0d:0c:f1:42:47:9b:
                    79:25:85:88:0e:3d:b0:42:e2:e9:53:21:8e:11:6f:
                    fe:40:73:fc:93:0a:53:7c:da:84:95:22:1d:9c:1b:
                    cb:17:38:43:eb:bc:41:7b:aa:a2:9e:f4:5f:71:0e:
                    9f:40:9e:c1:9d:18:9c:31:94:e3:45:26:b5:e6:13:
                    49:b1:6f:c7:64:ac:07:70:4b:b4:d2:4b:7d:5e:b2:
                    63:66:a2:d6:6f:b2:ae:b4:db:c2:38:08:8e:c3:18:
                    77:7b:74:3c:2e:f0:30:e3:bf:9d:93:f6:03:de:df:
                    3f:7a:64:6f:a0:48:5e:bc:f1:8f:13:db:55:20:b8:
                    76:c4:ed:7a:aa:d4:50:bd:6d:2c:82:2e:3f:5c:0c:
                    36:a0:51:74:2b:3e:f6:03:a6:bc:a6:10:2b:d3:be:
                    99:94:e5:1b:e5:60:65:5c:08:1c:20:8e:9d:01:d8:
                    32:27:f1:20:56:b1:c2:4b:ed:ff:0f:f2:3b:97:21:
                    6b:28:a9:f5:fb:d7:37:d2:e1:d9:76:28:cd:9e:55:
                    7e:5a:d4:a4:05:4b:a8:59:c5:ea:0d:cb:9f:ef:33:
                    b6:db:1c:79:e1:e2:aa:8b:e2:a2:19:c2:ed:6b:68:
                    d8:db:09:a7:d6:b5:7b:ad:3d:64:cc:98:dc:e9:a1:
                    0b:7d:42:ac:54:2d:4a:7d:49:6f:27:65:72:3e:13:
                    52:68:d8:c3:ea:d8:6b:10:31:31:05:80:95:30:00:
                    15:d4:e9:c7:9d:ac:af:29:8f:36:b3:35:5e:14:84:
                    37:79:09:95:50:be:d4:b2:b3:cf:d4:e7:7e:21:62:
                    c6:11:c6:f0:90:65:7b:07:f5:d1:33:41:ac:1a:eb:
                    27:70:f0:a0:81:8c:13:c7:41:28:e7:fe:7a:92:91:
                    21:2f:e3:89:a7:b7:bd:7a:8f:5a:01:9d:ab:a0:10:
                    6c:2f:d7:5b:16:50:87:c2:9f:e3:56:8e:a8:0f:5c:
                    64:93:95:99:58:af:45:7a:01:bb:2f:06:c3:52:bf:
                    d3:60:8b:c5:9b:76:9a:4c:47:1a:00:de:6f:ae:16:
                    d8:13:53:e4:fd:1d:16:1e:ec:23:06:fe:42:10:72:
                    99:db:0f
                Exponent: 65537 (0x10001)
        X509v3 extensions:
            X509v3 Basic Constraints: 
                CA:FALSE
            Netscape Comment: 
                Easy-RSA Generated Certificate
            X509v3 Subject Key Identifier: 
                1F:61:FF:86:E3:D2:58:79:64:98:C9:43:60:7B:D5:1A:36:56:94:38
            X509v3 Authority Key Identifier: 
                keyid:12:CD:60:04:D2:A0:80:9E:70:ED:C6:99:B8:7B:2C:C6:52:FD:19:A1
                DirName:/C=US/ST=OH/L=Columbus/O=VikingVPN/OU=MyOrganizationalUnit/CN=VikingVPN CA/name=EasyRSA/emailAddress=me@myhost.mydomain
                serial:CF:35:85:EE:80:BF:2A:3E

            X509v3 Extended Key Usage: 
                TLS Web Client Authentication
            X509v3 Key Usage: 
                Digital Signature
    Signature Algorithm: md5WithRSAEncryption
         9c:44:5a:74:a7:38:6c:9b:12:e0:c8:98:a6:e4:df:11:20:1d:
         ca:b0:56:1b:e7:d5:c5:19:63:27:05:53:9e:4f:22:a4:cb:93:
         dc:82:83:df:27:f6:6e:6e:2a:f6:f1:4c:44:e2:ee:84:e7:a1:
         b7:44:fb:d1:01:41:38:e8:18:1f:c5:48:2b:33:b0:3a:03:5c:
         38:f9:42:25:89:2e:57:3b:bc:c8:ef:00:98:4d:d3:39:2c:ab:
         e8:54:5a:a6:9c:b4:e8:31:60:86:0d:4e:fb:11:30:22:05:e9:
         47:67:8d:5e:98:69:0a:f8:fe:fe:ba:7d:9b:46:19:30:73:f4:
         44:8f:2f:f7:e0:1e:44:fb:26:39:22:25:ae:f8:7d:17:03:92:
         ea:02:f4:e8:fa:9b:69:ad:e5:4a:50:dc:b2:fe:87:79:7f:6d:
         93:32:78:3d:54:ab:91:71:47:63:f9:55:19:26:b5:aa:6c:fc:
         97:22:30:2d:45:7e:d1:4c:37:73:67:0b:56:9a:e5:d6:cb:71:
         c4:ab:ea:5b:2e:2a:d5:30:5d:63:32:c8:5f:14:e4:7d:02:93:
         47:ee:fb:a3:b2:28:79:89:eb:64:24:cf:de:f2:c9:98:fb:7f:
         6a:98:c8:19:bd:c3:b1:24:ed:cc:4d:ec:9e:b0:3c:1e:58:1f:
         9d:36:d8:fe:05:90:81:9f:05:20:9a:fa:2d:64:da:58:f1:6c:
         3e:e7:58:fa:6a:2f:8d:bf:7a:fb:c9:4b:07:a5:90:bd:f8:e0:
         b4:13:c8:a3:c1:71:6b:5d:e8:d0:41:6d:fa:7b:b6:09:4f:d8:
         83:da:3d:5c:0a:8b:00:26:cb:3d:26:97:a2:9a:f9:ec:d3:5f:
         9c:77:9b:45:b7:09:32:45:ad:ad:3e:e8:e3:e9:4f:c1:51:4c:
         57:f4:a7:27:be:4f:51:d7:a2:b1:3e:99:28:ba:e3:9e:76:96:
         22:2a:cd:a9:29:8e:ba:be:11:b1:14:da:9b:32:0c:13:bc:38:
         20:0f:2b:4b:5d:65:e8:65:8c:25:5b:c4:10:71:74:6c:ef:0d:
         02:61:ca:40:23:4e:80:49:7b:d8:d7:e6:4b:87:83:83:ae:1c:
         85:ca:af:58:8d:1c:7f:07:73:af:b8:4f:40:09:ac:6c:c0:1b:
         21:49:15:21:67:8b:17:78:9e:9b:88:d7:1e:b4:c6:df:39:6a:
         f0:e8:51:0e:d5:f1:57:a6:6f:28:46:4d:8a:9c:2e:84:f9:89:
         39:dc:c3:b2:d1:d8:ec:75:f3:33:6e:3f:24:25:c4:cd:47:e1:
         c0:9d:61:91:64:6f:70:1e:0b:84:20:e0:30:72:6e:43:b9:4c:
         ab:32:19:02:7f:b7:6a:fd
-----BEGIN CERTIFICATE-----
MIIGrTCCBJWgAwIBAgICHr0wDQYJKoZIhvcNAQEEBQAwgawxCzAJBgNVBAYTAlVT
MQswCQYDVQQIEwJPSDERMA8GA1UEBxMIQ29sdW1idXMxEjAQBgNVBAoTCVZpa2lu
Z1ZQTjEdMBsGA1UECxMUTXlPcmdhbml6YXRpb25hbFVuaXQxFTATBgNVBAMTDFZp
a2luZ1ZQTiBDQTEQMA4GA1UEKRMHRWFzeVJTQTEhMB8GCSqGSIb3DQEJARYSbWVA
bXlob3N0Lm15ZG9tYWluMB4XDTE2MDQyOTE3MTkzN1oXDTI2MDQyNzE3MTkzN1ow
HzEdMBsGA1UEAxMUQ2xpZW50MTgzN0NlcnRjNWIyYWMwggIiMA0GCSqGSIb3DQEB
AQUAA4ICDwAwggIKAoICAQDgjx7Tb3wsULfLddQ+2lMlmp4yS0HDGxlZEbUDakeb
9t96Io/ng3SYeofEYuCwHB2Erhe2j/Yuwv8CJ8LHWBJ+iYYrqcEl1HcTs9FhPoza
R83YWkwz9LNgHW2DkzG6jT6sxQ0M8UJHm3klhYgOPbBC4ulTIY4Rb/5Ac/yTClN8
2oSVIh2cG8sXOEPrvEF7qqKe9F9xDp9AnsGdGJwxlONFJrXmE0mxb8dkrAdwS7TS
S31esmNmotZvsq6028I4CI7DGHd7dDwu8DDjv52T9gPe3z96ZG+gSF688Y8T21Ug
uHbE7Xqq1FC9bSyCLj9cDDagUXQrPvYDprymECvTvpmU5RvlYGVcCBwgjp0B2DIn
8SBWscJL7f8P8juXIWsoqfX71zfS4dl2KM2eVX5a1KQFS6hZxeoNy5/vM7bbHHnh
4qqL4qIZwu1raNjbCafWtXutPWTMmNzpoQt9QqxULUp9SW8nZXI+E1Jo2MPq2GsQ
MTEFgJUwABXU6cedrK8pjzazNV4UhDd5CZVQvtSys8/U534hYsYRxvCQZXsH9dEz
Qawa6ydw8KCBjBPHQSjn/nqSkSEv44mnt716j1oBnaugEGwv11sWUIfCn+NWjqgP
XGSTlZlYr0V6AbsvBsNSv9Ngi8WbdppMRxoA3m+uFtgTU+T9HRYe7CMG/kIQcpnb
DwIDAQABo4IBYzCCAV8wCQYDVR0TBAIwADAtBglghkgBhvhCAQ0EIBYeRWFzeS1S
U0EgR2VuZXJhdGVkIENlcnRpZmljYXRlMB0GA1UdDgQWBBQfYf+G49JYeWSYyUNg
e9UaNlaUODCB4QYDVR0jBIHZMIHWgBQSzWAE0qCAnnDtxpm4eyzGUv0ZoaGBsqSB
rzCBrDELMAkGA1UEBhMCVVMxCzAJBgNVBAgTAk9IMREwDwYDVQQHEwhDb2x1bWJ1
czESMBAGA1UEChMJVmlraW5nVlBOMR0wGwYDVQQLExRNeU9yZ2FuaXphdGlvbmFs
VW5pdDEVMBMGA1UEAxMMVmlraW5nVlBOIENBMRAwDgYDVQQpEwdFYXN5UlNBMSEw
HwYJKoZIhvcNAQkBFhJtZUBteWhvc3QubXlkb21haW6CCQDPNYXugL8qPjATBgNV
HSUEDDAKBggrBgEFBQcDAjALBgNVHQ8EBAMCB4AwDQYJKoZIhvcNAQEEBQADggIB
AJxEWnSnOGybEuDImKbk3xEgHcqwVhvn1cUZYycFU55PIqTLk9yCg98n9m5uKvbx
TETi7oTnobdE+9EBQTjoGB/FSCszsDoDXDj5QiWJLlc7vMjvAJhN0zksq+hUWqac
tOgxYIYNTvsRMCIF6UdnjV6YaQr4/v66fZtGGTBz9ESPL/fgHkT7JjkiJa74fRcD
kuoC9Oj6m2mt5UpQ3LL+h3l/bZMyeD1Uq5FxR2P5VRkmtaps/JciMC1FftFMN3Nn
C1aa5dbLccSr6lsuKtUwXWMyyF8U5H0Ck0fu+6OyKHmJ62Qkz97yyZj7f2qYyBm9
w7Ek7cxN7J6wPB5YH5022P4FkIGfBSCa+i1k2ljxbD7nWPpqL42/evvJSwelkL34
4LQTyKPBcWtd6NBBbfp7tglP2IPaPVwKiwAmyz0ml6Ka+ezTX5x3m0W3CTJFra0+
6OPpT8FRTFf0pye+T1HXorE+mSi64552liIqzakpjrq+EbEU2psyDBO8OCAPK0td
ZehljCVbxBBxdGzvDQJhykAjToBJe9jX5kuHg4OuHIXKr1iNHH8Hc6+4T0AJrGzA
GyFJFSFnixd4npuI1x60xt85avDoUQ7V8VembyhGTYqcLoT5iTncw7LR2Ox18zNu
PyQlxM1H4cCdYZFkb3AeC4Qg4DBybkO5TKsyGQJ/t2r9
-----END CERTIFICATE-----
