Certificate:
    Data:
        Version: 3 (0x2)
        Serial Number: 7876 (0x1ec4)
    Signature Algorithm: md5WithRSAEncryption
        Issuer: C=US, ST=OH, L=Columbus, O=VikingVPN, OU=MyOrganizationalUnit, CN=VikingVPN CA/name=EasyRSA/emailAddress=me@myhost.mydomain
        Validity
            Not Before: Apr 30 16:49:05 2016 GMT
            Not After : Apr 28 16:49:05 2026 GMT
        Subject: CN=Client1776Cert3179f6
        Subject Public Key Info:
            Public Key Algorithm: rsaEncryption
                Public-Key: (4096 bit)
                Modulus:
                    00:b6:36:8a:66:a0:41:12:2c:7a:7a:06:05:2d:64:
                    b0:be:db:0f:d5:db:8f:2c:49:50:68:89:0f:38:9a:
                    f5:8f:c9:23:b7:f8:66:73:37:00:7c:1e:64:34:bb:
                    6a:ab:10:be:57:d1:1e:97:50:25:b2:4a:22:96:18:
                    a7:65:cb:99:1d:da:63:05:10:7e:69:07:84:e9:c0:
                    ba:0d:21:23:ce:40:cc:da:b5:73:4e:7f:67:4a:7f:
                    3d:98:f0:67:35:1c:cf:6a:c6:dc:6b:ea:45:38:d4:
                    35:9d:0e:13:eb:28:82:67:ba:c7:8c:41:a7:ad:34:
                    ab:10:37:9d:52:e8:eb:b6:27:67:03:28:10:f3:72:
                    b2:b5:12:1a:83:0b:fc:58:0c:1f:4a:42:db:19:35:
                    bd:f3:96:57:c7:fd:a1:f9:ea:db:d8:2d:68:2c:6b:
                    6c:9f:40:2f:6c:00:52:ec:e6:06:8c:ce:6b:44:ca:
                    c6:a4:3b:0e:ae:d6:80:42:0b:16:e6:be:f1:9d:36:
                    12:fc:01:14:0f:b1:f4:54:db:be:49:2d:61:8c:ff:
                    f5:d0:50:00:0a:49:5f:83:31:4e:e9:cc:50:80:9e:
                    f9:0d:c3:91:f8:a9:10:09:d5:00:a9:e8:4c:71:0b:
                    a8:79:dc:eb:7f:ba:86:06:7e:de:43:7d:f1:9c:62:
                    55:65:b2:78:96:62:ad:96:0f:2e:fe:ad:7b:53:fd:
                    2c:11:ee:33:26:a4:ea:ae:c2:c5:b0:2a:c1:05:e6:
                    36:22:ad:12:8e:5f:ea:b9:e8:09:09:fd:6e:18:49:
                    b0:61:30:43:eb:bd:71:d9:c5:bf:6f:01:9a:8f:72:
                    75:67:89:b1:d8:9a:ba:dd:72:3a:10:38:2c:bb:03:
                    3a:0b:d8:7f:7f:ee:da:81:fa:6a:03:e7:c5:8f:99:
                    fc:7e:cc:fd:a3:6a:72:c5:2d:8d:a4:b3:be:42:13:
                    cb:00:6f:5e:5f:35:79:89:8b:df:ad:e8:c6:60:b2:
                    a0:f7:94:98:a5:5d:6a:b3:0e:62:8d:08:3c:ca:83:
                    87:61:cd:bf:ef:4a:53:6c:c5:2a:41:94:8b:49:b6:
                    93:56:c0:e2:98:a5:53:ab:12:1a:2c:3a:f5:55:d0:
                    7b:f7:62:4c:26:64:48:19:76:3f:44:23:22:54:cb:
                    f6:6a:57:b5:56:50:d1:42:20:d1:9e:5d:06:17:a5:
                    e5:5d:44:e1:57:a8:7a:75:78:e9:b7:30:e1:74:28:
                    b0:38:03:2e:99:41:1f:e8:f7:7a:ca:c8:16:18:36:
                    94:41:14:4a:7f:b9:35:27:06:04:6e:d0:36:3c:d9:
                    47:34:92:63:b6:30:3a:97:e5:5d:e9:73:46:90:95:
                    1e:9a:75
                Exponent: 65537 (0x10001)
        X509v3 extensions:
            X509v3 Basic Constraints: 
                CA:FALSE
            Netscape Comment: 
                Easy-RSA Generated Certificate
            X509v3 Subject Key Identifier: 
                36:F8:4D:2F:D2:9B:82:DC:D9:DA:05:EA:D5:8D:68:A5:DD:00:27:D7
            X509v3 Authority Key Identifier: 
                keyid:12:CD:60:04:D2:A0:80:9E:70:ED:C6:99:B8:7B:2C:C6:52:FD:19:A1
                DirName:/C=US/ST=OH/L=Columbus/O=VikingVPN/OU=MyOrganizationalUnit/CN=VikingVPN CA/name=EasyRSA/emailAddress=me@myhost.mydomain
                serial:CF:35:85:EE:80:BF:2A:3E

            X509v3 Extended Key Usage: 
                TLS Web Client Authentication
            X509v3 Key Usage: 
                Digital Signature
    Signature Algorithm: md5WithRSAEncryption
         43:20:5d:7f:f3:39:a7:02:8f:c7:8e:84:7d:4e:6a:03:05:ea:
         fb:c4:82:61:7a:b0:8b:2f:38:31:03:b5:0b:20:5d:7d:13:0c:
         11:eb:32:f7:2b:cd:f4:fc:4e:f6:c1:87:e9:2a:fc:6d:a4:7e:
         bd:f4:4b:e3:e4:2e:cc:26:bf:1a:fc:ab:6a:15:93:d7:96:0a:
         d5:5c:ce:37:63:bc:0e:6a:aa:5b:c2:38:d3:af:ef:f6:a0:7d:
         1f:df:f3:10:64:fe:61:2c:32:13:bc:a4:a7:9a:f4:88:99:6b:
         64:06:b2:bd:7b:74:04:0b:19:88:2c:32:8a:0e:ba:fa:66:98:
         17:bf:15:9d:d5:2a:7e:14:0d:69:7a:f0:ae:62:5e:7e:39:05:
         1d:0b:6c:cf:45:9a:7b:10:65:2c:1b:f7:fc:f5:18:cc:c6:dd:
         56:2c:76:ef:43:b8:b7:42:e4:96:ab:ec:9a:ae:9a:5a:40:5f:
         d0:79:48:05:e0:e8:39:75:03:4e:99:66:e7:e8:17:3b:e8:6b:
         c2:4c:35:52:f5:35:04:e0:74:90:8c:ca:4f:02:b0:b1:b1:73:
         c2:41:6a:68:99:96:f1:ed:12:48:57:e0:56:e0:86:a3:43:ba:
         b1:38:43:5a:01:3a:bd:46:d8:1d:c0:c3:ee:3b:c6:85:d5:ef:
         85:c2:f7:d9:06:2f:70:33:1e:c3:f3:d8:d1:a9:59:3d:ad:51:
         fc:4d:b4:3d:fb:87:24:eb:41:fa:ed:ce:57:c1:2d:9b:4f:61:
         c1:17:06:1e:7d:50:fd:d9:de:b0:83:4f:53:ab:01:23:f4:3d:
         9d:c5:b2:f7:bb:a5:9b:04:d7:00:dc:f3:f5:04:ae:4d:f7:97:
         2f:a0:a8:2b:0c:de:83:43:b0:fa:72:51:72:85:5c:33:d2:ef:
         17:68:67:5c:db:95:82:4d:f9:69:dc:f0:e6:4b:11:24:f4:e0:
         ae:cf:5a:3d:a5:85:0c:b6:56:75:90:10:d0:cb:02:10:82:38:
         97:40:b8:f9:25:61:5f:e2:00:ee:a9:18:3f:99:47:39:82:e7:
         2b:22:1b:b9:73:2f:49:30:85:c0:a7:74:1c:c4:66:11:b7:8d:
         9b:be:e3:d0:f1:bb:9f:26:62:fe:bf:46:13:c8:71:30:a1:d9:
         bc:72:16:7f:f7:38:e0:5d:9e:44:93:18:80:12:81:5c:a1:f7:
         22:50:7e:fc:9d:ac:2a:9d:d0:74:4a:7d:a5:59:97:76:80:75:
         d3:8f:48:10:fd:8a:4f:25:52:f3:cd:16:a0:b4:27:aa:90:bb:
         4a:57:eb:46:b5:b5:75:51:a3:24:6b:f7:c8:fb:47:98:a2:35:
         c2:ae:69:c7:26:d8:64:f2
-----BEGIN CERTIFICATE-----
MIIGrTCCBJWgAwIBAgICHsQwDQYJKoZIhvcNAQEEBQAwgawxCzAJBgNVBAYTAlVT
MQswCQYDVQQIEwJPSDERMA8GA1UEBxMIQ29sdW1idXMxEjAQBgNVBAoTCVZpa2lu
Z1ZQTjEdMBsGA1UECxMUTXlPcmdhbml6YXRpb25hbFVuaXQxFTATBgNVBAMTDFZp
a2luZ1ZQTiBDQTEQMA4GA1UEKRMHRWFzeVJTQTEhMB8GCSqGSIb3DQEJARYSbWVA
bXlob3N0Lm15ZG9tYWluMB4XDTE2MDQzMDE2NDkwNVoXDTI2MDQyODE2NDkwNVow
HzEdMBsGA1UEAxMUQ2xpZW50MTc3NkNlcnQzMTc5ZjYwggIiMA0GCSqGSIb3DQEB
AQUAA4ICDwAwggIKAoICAQC2NopmoEESLHp6BgUtZLC+2w/V248sSVBoiQ84mvWP
ySO3+GZzNwB8HmQ0u2qrEL5X0R6XUCWySiKWGKdly5kd2mMFEH5pB4TpwLoNISPO
QMzatXNOf2dKfz2Y8Gc1HM9qxtxr6kU41DWdDhPrKIJnuseMQaetNKsQN51S6Ou2
J2cDKBDzcrK1EhqDC/xYDB9KQtsZNb3zllfH/aH56tvYLWgsa2yfQC9sAFLs5gaM
zmtEysakOw6u1oBCCxbmvvGdNhL8ARQPsfRU275JLWGM//XQUAAKSV+DMU7pzFCA
nvkNw5H4qRAJ1QCp6ExxC6h53Ot/uoYGft5DffGcYlVlsniWYq2WDy7+rXtT/SwR
7jMmpOquwsWwKsEF5jYirRKOX+q56AkJ/W4YSbBhMEPrvXHZxb9vAZqPcnVnibHY
mrrdcjoQOCy7AzoL2H9/7tqB+moD58WPmfx+zP2janLFLY2ks75CE8sAb15fNXmJ
i9+t6MZgsqD3lJilXWqzDmKNCDzKg4dhzb/vSlNsxSpBlItJtpNWwOKYpVOrEhos
OvVV0Hv3YkwmZEgZdj9EIyJUy/ZqV7VWUNFCINGeXQYXpeVdROFXqHp1eOm3MOF0
KLA4Ay6ZQR/o93rKyBYYNpRBFEp/uTUnBgRu0DY82Uc0kmO2MDqX5V3pc0aQlR6a
dQIDAQABo4IBYzCCAV8wCQYDVR0TBAIwADAtBglghkgBhvhCAQ0EIBYeRWFzeS1S
U0EgR2VuZXJhdGVkIENlcnRpZmljYXRlMB0GA1UdDgQWBBQ2+E0v0puC3NnaBerV
jWil3QAn1zCB4QYDVR0jBIHZMIHWgBQSzWAE0qCAnnDtxpm4eyzGUv0ZoaGBsqSB
rzCBrDELMAkGA1UEBhMCVVMxCzAJBgNVBAgTAk9IMREwDwYDVQQHEwhDb2x1bWJ1
czESMBAGA1UEChMJVmlraW5nVlBOMR0wGwYDVQQLExRNeU9yZ2FuaXphdGlvbmFs
VW5pdDEVMBMGA1UEAxMMVmlraW5nVlBOIENBMRAwDgYDVQQpEwdFYXN5UlNBMSEw
HwYJKoZIhvcNAQkBFhJtZUBteWhvc3QubXlkb21haW6CCQDPNYXugL8qPjATBgNV
HSUEDDAKBggrBgEFBQcDAjALBgNVHQ8EBAMCB4AwDQYJKoZIhvcNAQEEBQADggIB
AEMgXX/zOacCj8eOhH1OagMF6vvEgmF6sIsvODEDtQsgXX0TDBHrMvcrzfT8TvbB
h+kq/G2kfr30S+PkLswmvxr8q2oVk9eWCtVczjdjvA5qqlvCONOv7/agfR/f8xBk
/mEsMhO8pKea9IiZa2QGsr17dAQLGYgsMooOuvpmmBe/FZ3VKn4UDWl68K5iXn45
BR0LbM9FmnsQZSwb9/z1GMzG3VYsdu9DuLdC5Jar7JqumlpAX9B5SAXg6Dl1A06Z
ZufoFzvoa8JMNVL1NQTgdJCMyk8CsLGxc8JBamiZlvHtEkhX4FbghqNDurE4Q1oB
Or1G2B3Aw+47xoXV74XC99kGL3AzHsPz2NGpWT2tUfxNtD37hyTrQfrtzlfBLZtP
YcEXBh59UP3Z3rCDT1OrASP0PZ3Fsve7pZsE1wDc8/UErk33ly+gqCsM3oNDsPpy
UXKFXDPS7xdoZ1zblYJN+Wnc8OZLEST04K7PWj2lhQy2VnWQENDLAhCCOJdAuPkl
YV/iAO6pGD+ZRzmC5ysiG7lzL0kwhcCndBzEZhG3jZu+49Dxu58mYv6/RhPIcTCh
2bxyFn/3OOBdnkSTGIASgVyh9yJQfvydrCqd0HRKfaVZl3aAddOPSBD9ik8lUvPN
FqC0J6qQu0pX60a1tXVRoyRr98j7R5iiNcKuaccm2GTy
-----END CERTIFICATE-----
