Certificate:
    Data:
        Version: 3 (0x2)
        Serial Number: 7896 (0x1ed8)
    Signature Algorithm: md5WithRSAEncryption
        Issuer: C=US, ST=OH, L=Columbus, O=VikingVPN, OU=MyOrganizationalUnit, CN=VikingVPN CA/name=EasyRSA/emailAddress=me@myhost.mydomain
        Validity
            Not Before: May  3 10:04:43 2016 GMT
            Not After : May  1 10:04:43 2026 GMT
        Subject: CN=Client2111Cert83de48
        Subject Public Key Info:
            Public Key Algorithm: rsaEncryption
                Public-Key: (4096 bit)
                Modulus:
                    00:b6:d3:2c:3d:13:f0:d1:23:60:ed:22:fb:78:75:
                    cf:db:92:fe:6d:4c:da:ed:72:79:18:e0:1c:0a:37:
                    3f:fb:34:c5:b7:e9:99:f6:13:24:03:1f:01:08:2b:
                    04:99:ce:8d:db:90:27:c3:2a:ea:24:b3:05:42:34:
                    be:c5:92:46:4d:42:79:a6:a1:fe:cb:cb:3d:8d:1b:
                    ff:6e:be:68:c8:1b:c6:77:34:c3:8e:fe:42:f1:93:
                    06:27:33:b6:02:ad:94:b1:e2:5a:3c:c4:9c:ea:0f:
                    34:e5:a9:9b:45:45:b6:4a:a7:2b:38:cb:01:64:8b:
                    c7:97:e8:59:58:05:24:86:0d:81:ac:4b:b5:a7:94:
                    ac:f5:3d:65:c7:a0:cc:cb:39:d4:0b:a9:bd:66:a9:
                    c3:9a:6f:7e:da:00:0a:44:33:04:01:ae:59:f3:d9:
                    73:f9:bf:ca:24:ea:af:79:a1:89:8d:12:3c:bf:85:
                    a3:2c:fc:80:cd:2c:43:8c:14:ee:84:92:78:81:e2:
                    bb:5e:3a:02:95:2b:d7:40:30:65:27:09:70:8e:a3:
                    6c:77:17:dc:19:f1:73:b1:68:16:1f:d1:0a:d2:0d:
                    97:1a:75:e4:78:91:f3:ed:24:51:e9:c7:d7:a8:1f:
                    f8:83:28:2e:08:49:9e:47:c4:ae:2e:09:c1:2e:fb:
                    a9:a0:1a:3f:e6:cd:0e:6f:79:66:74:5f:b8:68:41:
                    45:30:39:54:4c:62:24:df:23:be:d2:eb:95:68:70:
                    6f:44:17:41:bb:77:d1:b9:25:d6:19:39:1c:77:41:
                    a0:84:cf:7e:db:70:95:3a:5a:d5:a9:a9:dd:b6:61:
                    22:fe:db:a3:a5:8d:b4:56:22:0d:bb:f2:5a:f6:51:
                    c6:97:d7:ac:82:98:bc:f1:b8:38:71:20:b8:35:a9:
                    a7:3f:d8:22:88:c8:be:1a:fe:e1:9d:d2:0a:a5:2d:
                    e7:84:f4:d7:05:f4:45:d9:04:c8:8d:89:38:ed:30:
                    17:00:8b:e4:6c:2c:88:bb:81:70:2f:a8:4f:0a:ad:
                    32:a7:f2:12:a8:6d:66:7e:60:4c:7e:c2:27:17:e9:
                    39:f7:c1:42:7a:d0:75:f5:68:cc:63:83:eb:62:18:
                    18:4e:ec:96:1e:ae:9f:d9:4a:c5:e1:3e:3e:d4:6d:
                    30:ec:fc:82:41:eb:ab:13:a2:4e:ea:67:7e:bb:70:
                    e1:be:02:a9:42:bf:75:4a:77:a4:49:d8:4b:d6:0a:
                    9b:67:b5:c0:ba:2d:eb:47:50:8b:85:fe:34:ed:0e:
                    33:5a:19:31:8c:dc:76:36:75:73:0b:28:f3:8a:b7:
                    7d:ac:2e:42:3c:b3:87:d5:78:cb:24:b7:d8:4a:5a:
                    77:d8:5d
                Exponent: 65537 (0x10001)
        X509v3 extensions:
            X509v3 Basic Constraints: 
                CA:FALSE
            Netscape Comment: 
                Easy-RSA Generated Certificate
            X509v3 Subject Key Identifier: 
                74:73:62:3E:5B:D3:04:37:BD:CB:43:65:A0:EA:21:FA:6E:95:74:DA
            X509v3 Authority Key Identifier: 
                keyid:12:CD:60:04:D2:A0:80:9E:70:ED:C6:99:B8:7B:2C:C6:52:FD:19:A1
                DirName:/C=US/ST=OH/L=Columbus/O=VikingVPN/OU=MyOrganizationalUnit/CN=VikingVPN CA/name=EasyRSA/emailAddress=me@myhost.mydomain
                serial:CF:35:85:EE:80:BF:2A:3E

            X509v3 Extended Key Usage: 
                TLS Web Client Authentication
            X509v3 Key Usage: 
                Digital Signature
    Signature Algorithm: md5WithRSAEncryption
         45:48:16:15:e1:59:17:e5:ae:81:c7:9b:51:52:2d:e0:c5:34:
         c5:c7:83:d1:2e:89:ff:36:2c:20:8f:a8:fa:c8:0f:6d:2a:aa:
         61:7d:ab:f3:b5:45:02:cf:c9:58:a9:91:0d:24:76:6d:f7:cb:
         ca:f8:11:53:45:34:41:51:3e:4b:ed:b7:3c:d0:a8:eb:f2:3d:
         25:1a:93:1b:e7:ec:2d:40:73:52:58:ed:2f:e3:f6:d7:55:26:
         d4:f3:42:b8:49:07:6e:9c:52:26:ac:b3:f5:d4:52:c5:2d:90:
         21:dd:ce:92:12:5e:20:db:b3:2f:29:f3:4e:0c:63:9d:4a:ce:
         56:a9:6c:35:e3:99:1e:95:86:0d:6e:fa:4b:b8:66:aa:e3:f8:
         5c:a3:e6:d8:1a:1f:18:04:1b:79:e5:18:2c:60:0f:a5:e7:80:
         e6:43:51:9c:03:1a:5e:63:d0:23:1e:9e:ca:81:ea:1e:4a:4f:
         ed:e3:4a:31:74:fa:cb:9d:db:da:36:03:8d:5d:db:47:7d:af:
         9f:a0:af:78:ff:e3:98:99:7d:b5:5c:6b:26:74:9a:89:77:7a:
         bc:59:2c:5d:66:c5:c5:1c:89:ca:ef:41:8e:b0:3a:15:fb:56:
         78:e6:b7:2d:14:d7:e9:2c:53:5f:38:e9:6f:7d:85:f9:10:84:
         80:02:a8:47:bc:dd:85:7a:c7:7d:9a:19:b3:d0:3b:89:92:51:
         f9:5b:79:17:58:a3:28:07:54:49:f7:71:68:38:07:aa:eb:03:
         f2:31:53:da:a2:8f:ea:5e:36:d7:e7:f5:e4:e4:9a:21:1f:b8:
         83:ea:b1:91:1a:e7:4e:6b:b5:46:48:d9:00:90:1a:6d:37:5c:
         5c:09:ff:c9:0a:4e:44:e2:09:ba:ff:a4:3d:69:87:a5:c4:25:
         e4:3a:34:02:ba:40:90:54:61:54:5e:04:9e:06:e7:f2:50:cc:
         aa:ad:9a:02:e3:e3:5f:a2:91:6a:b5:db:17:9a:31:55:0b:2b:
         00:a5:8e:db:c5:07:23:bb:07:2e:ac:60:73:d7:1b:84:9c:d2:
         96:c3:9b:43:bb:7f:84:37:84:2a:fb:c9:80:76:69:5a:f3:8a:
         cc:32:93:13:7e:d0:70:18:13:6d:14:0b:28:3c:d5:f6:2c:41:
         07:ae:83:73:76:ef:92:09:2e:94:55:9a:f3:c0:4f:95:1d:da:
         af:b0:06:8a:01:39:20:15:c7:47:e6:8b:39:ad:5c:5f:eb:fa:
         d8:04:4e:51:1f:2f:96:26:d3:f4:89:f7:90:1f:21:2a:93:53:
         b5:ce:4c:89:f8:4f:61:43:c0:e7:28:d6:bd:b1:9f:64:02:45:
         70:4b:0d:4a:56:42:d7:d9
-----BEGIN CERTIFICATE-----
MIIGrTCCBJWgAwIBAgICHtgwDQYJKoZIhvcNAQEEBQAwgawxCzAJBgNVBAYTAlVT
MQswCQYDVQQIEwJPSDERMA8GA1UEBxMIQ29sdW1idXMxEjAQBgNVBAoTCVZpa2lu
Z1ZQTjEdMBsGA1UECxMUTXlPcmdhbml6YXRpb25hbFVuaXQxFTATBgNVBAMTDFZp
a2luZ1ZQTiBDQTEQMA4GA1UEKRMHRWFzeVJTQTEhMB8GCSqGSIb3DQEJARYSbWVA
bXlob3N0Lm15ZG9tYWluMB4XDTE2MDUwMzEwMDQ0M1oXDTI2MDUwMTEwMDQ0M1ow
HzEdMBsGA1UEAxMUQ2xpZW50MjExMUNlcnQ4M2RlNDgwggIiMA0GCSqGSIb3DQEB
AQUAA4ICDwAwggIKAoICAQC20yw9E/DRI2DtIvt4dc/bkv5tTNrtcnkY4BwKNz/7
NMW36Zn2EyQDHwEIKwSZzo3bkCfDKuokswVCNL7FkkZNQnmmof7Lyz2NG/9uvmjI
G8Z3NMOO/kLxkwYnM7YCrZSx4lo8xJzqDzTlqZtFRbZKpys4ywFki8eX6FlYBSSG
DYGsS7WnlKz1PWXHoMzLOdQLqb1mqcOab37aAApEMwQBrlnz2XP5v8ok6q95oYmN
Ejy/haMs/IDNLEOMFO6EkniB4rteOgKVK9dAMGUnCXCOo2x3F9wZ8XOxaBYf0QrS
DZcadeR4kfPtJFHpx9eoH/iDKC4ISZ5HxK4uCcEu+6mgGj/mzQ5veWZ0X7hoQUUw
OVRMYiTfI77S65VocG9EF0G7d9G5JdYZORx3QaCEz37bcJU6WtWpqd22YSL+26Ol
jbRWIg278lr2UcaX16yCmLzxuDhxILg1qac/2CKIyL4a/uGd0gqlLeeE9NcF9EXZ
BMiNiTjtMBcAi+RsLIi7gXAvqE8KrTKn8hKobWZ+YEx+wicX6Tn3wUJ60HX1aMxj
g+tiGBhO7JYerp/ZSsXhPj7UbTDs/IJB66sTok7qZ367cOG+AqlCv3VKd6RJ2EvW
CptntcC6LetHUIuF/jTtDjNaGTGM3HY2dXMLKPOKt32sLkI8s4fVeMskt9hKWnfY
XQIDAQABo4IBYzCCAV8wCQYDVR0TBAIwADAtBglghkgBhvhCAQ0EIBYeRWFzeS1S
U0EgR2VuZXJhdGVkIENlcnRpZmljYXRlMB0GA1UdDgQWBBR0c2I+W9MEN73LQ2Wg
6iH6bpV02jCB4QYDVR0jBIHZMIHWgBQSzWAE0qCAnnDtxpm4eyzGUv0ZoaGBsqSB
rzCBrDELMAkGA1UEBhMCVVMxCzAJBgNVBAgTAk9IMREwDwYDVQQHEwhDb2x1bWJ1
czESMBAGA1UEChMJVmlraW5nVlBOMR0wGwYDVQQLExRNeU9yZ2FuaXphdGlvbmFs
VW5pdDEVMBMGA1UEAxMMVmlraW5nVlBOIENBMRAwDgYDVQQpEwdFYXN5UlNBMSEw
HwYJKoZIhvcNAQkBFhJtZUBteWhvc3QubXlkb21haW6CCQDPNYXugL8qPjATBgNV
HSUEDDAKBggrBgEFBQcDAjALBgNVHQ8EBAMCB4AwDQYJKoZIhvcNAQEEBQADggIB
AEVIFhXhWRflroHHm1FSLeDFNMXHg9Euif82LCCPqPrID20qqmF9q/O1RQLPyVip
kQ0kdm33y8r4EVNFNEFRPkvttzzQqOvyPSUakxvn7C1Ac1JY7S/j9tdVJtTzQrhJ
B26cUiass/XUUsUtkCHdzpISXiDbsy8p804MY51KzlapbDXjmR6Vhg1u+ku4Zqrj
+Fyj5tgaHxgEG3nlGCxgD6XngOZDUZwDGl5j0CMensqB6h5KT+3jSjF0+sud29o2
A41d20d9r5+gr3j/45iZfbVcayZ0mol3erxZLF1mxcUcicrvQY6wOhX7Vnjmty0U
1+ksU1846W99hfkQhIACqEe83YV6x32aGbPQO4mSUflbeRdYoygHVEn3cWg4B6rr
A/IxU9qij+peNtfn9eTkmiEfuIPqsZEa505rtUZI2QCQGm03XFwJ/8kKTkTiCbr/
pD1ph6XEJeQ6NAK6QJBUYVReBJ4G5/JQzKqtmgLj41+ikWq12xeaMVULKwCljtvF
ByO7By6sYHPXG4Sc0pbDm0O7f4Q3hCr7yYB2aVrziswykxN+0HAYE20UCyg81fYs
QQeug3N275IJLpRVmvPAT5Ud2q+wBooBOSAVx0fmizmtXF/r+tgETlEfL5Ym0/SJ
95AfISqTU7XOTIn4T2FDwOco1r2xn2QCRXBLDUpWQtfZ
-----END CERTIFICATE-----
