Certificate:
    Data:
        Version: 3 (0x2)
        Serial Number: 7909 (0x1ee5)
    Signature Algorithm: md5WithRSAEncryption
        Issuer: C=US, ST=OH, L=Columbus, O=VikingVPN, OU=MyOrganizationalUnit, CN=VikingVPN CA/name=EasyRSA/emailAddress=me@myhost.mydomain
        Validity
            Not Before: May  6 12:52:29 2016 GMT
            Not After : May  4 12:52:29 2026 GMT
        Subject: CN=Client1389Certf200e9
        Subject Public Key Info:
            Public Key Algorithm: rsaEncryption
                Public-Key: (4096 bit)
                Modulus:
                    00:c5:e2:98:25:9e:3e:b1:b1:ee:e5:65:0d:c7:90:
                    22:b8:74:7f:93:44:4c:1b:cd:be:e1:5c:49:92:b7:
                    eb:9f:4b:e9:6a:89:26:d3:94:c7:eb:f2:21:6c:59:
                    05:93:09:be:a0:41:7b:e6:dc:7a:81:0e:45:00:54:
                    f1:da:3b:cd:ae:96:11:0e:05:60:9b:5e:42:b5:4e:
                    90:26:47:64:82:da:e2:02:08:73:bb:9d:dd:56:da:
                    c1:18:5d:4b:c2:d8:09:b7:87:d0:52:9f:8c:8f:03:
                    03:99:aa:46:c1:bf:94:88:75:c3:5a:c8:52:42:a4:
                    41:65:b0:4c:08:7f:ba:23:2a:f5:ae:df:40:d6:98:
                    49:fe:79:05:72:e8:af:a6:a0:15:31:06:fa:70:5a:
                    d9:98:2a:82:25:d7:94:f0:85:cb:77:0c:42:08:ff:
                    eb:e8:7d:41:66:e2:8a:e1:21:4a:0f:9d:d5:41:39:
                    2f:51:59:8b:b4:5c:b5:e7:a8:ee:ee:f6:f3:41:49:
                    b4:c2:2f:d7:f9:39:61:34:9e:69:a3:a8:67:ff:4b:
                    cb:26:58:8b:b1:68:1f:79:d0:b5:0c:30:aa:dd:ce:
                    76:71:91:7b:a9:e1:85:04:b4:9d:64:3e:cb:a7:8e:
                    49:99:e5:f3:23:97:a0:7b:7f:f8:c7:ec:fc:d5:16:
                    68:a8:e1:e1:49:50:96:09:f6:43:c2:3a:5c:f6:13:
                    04:b5:14:ce:ea:07:a9:4d:79:33:85:f9:d6:21:5c:
                    58:bc:8a:1d:df:02:0d:93:f1:21:90:8a:dd:30:33:
                    a2:c6:ee:27:b4:87:18:d3:df:7e:c9:6e:07:39:4e:
                    00:40:ed:da:1d:b5:9f:3c:61:6c:8c:7d:15:36:77:
                    ab:06:e7:8b:69:ad:95:be:18:94:8f:b6:92:50:2d:
                    33:ee:ba:be:90:2e:ec:71:50:65:34:a4:f3:1e:c1:
                    99:26:6e:b6:a1:33:1f:6c:63:40:93:db:89:a7:30:
                    07:f3:61:6b:5d:1f:67:5c:5c:30:7d:32:3a:10:34:
                    a7:52:ee:ba:e2:63:0c:5b:4d:bb:25:11:92:7d:3a:
                    78:42:65:3e:8e:b5:17:61:40:72:cd:2f:1c:a5:f9:
                    b5:35:ec:db:63:b6:4a:4f:7d:a8:2a:c3:78:3a:f1:
                    14:b9:59:68:66:e9:34:bc:ac:9d:75:12:95:97:b5:
                    d3:79:a4:d9:4d:c5:3b:39:3a:72:62:b5:9a:2b:ca:
                    22:07:93:1e:cb:aa:6a:b6:3d:20:2d:9d:5d:ad:8b:
                    86:5e:91:6a:01:7b:96:74:b3:3f:17:0d:20:e5:7c:
                    2c:7d:73:12:72:39:f9:b2:9a:55:39:cb:ca:5f:1f:
                    f6:56:67
                Exponent: 65537 (0x10001)
        X509v3 extensions:
            X509v3 Basic Constraints: 
                CA:FALSE
            Netscape Comment: 
                Easy-RSA Generated Certificate
            X509v3 Subject Key Identifier: 
                01:E1:E2:A5:BE:63:4E:68:BE:28:66:8D:D6:BE:8C:0D:89:7E:CD:F5
            X509v3 Authority Key Identifier: 
                keyid:12:CD:60:04:D2:A0:80:9E:70:ED:C6:99:B8:7B:2C:C6:52:FD:19:A1
                DirName:/C=US/ST=OH/L=Columbus/O=VikingVPN/OU=MyOrganizationalUnit/CN=VikingVPN CA/name=EasyRSA/emailAddress=me@myhost.mydomain
                serial:CF:35:85:EE:80:BF:2A:3E

            X509v3 Extended Key Usage: 
                TLS Web Client Authentication
            X509v3 Key Usage: 
                Digital Signature
    Signature Algorithm: md5WithRSAEncryption
         e0:5e:9b:0f:e4:6a:db:dd:1a:41:b1:ae:24:57:b7:7f:af:17:
         16:d0:b7:4b:45:08:ec:ed:33:f4:79:0f:25:3a:d7:9c:ac:45:
         e9:97:36:85:88:21:5b:99:97:d2:ea:73:cb:07:69:c6:9b:25:
         fc:11:4a:fc:f0:3e:e8:f5:ef:42:30:dc:3b:fd:2a:7b:16:7d:
         e5:21:30:d2:52:5e:d7:df:2d:75:45:94:8f:94:8f:e1:46:a1:
         50:b7:63:60:8e:8f:0f:65:1d:04:0a:a3:a0:d9:02:69:9c:22:
         6e:43:34:2f:c6:e4:d0:c9:32:22:c2:c7:e1:1d:18:98:0e:8c:
         fc:df:9a:9b:81:df:03:7c:92:f6:9a:b3:a9:9f:a7:80:e8:b7:
         8b:46:14:65:36:c0:9a:4b:64:f7:c9:b7:2e:7b:25:eb:3a:9b:
         af:15:6a:70:37:db:e2:0a:d6:ea:50:78:e4:48:d9:0c:ae:49:
         bc:f9:d5:e8:d0:5e:61:ae:b3:4d:52:81:83:4b:d3:1c:34:0c:
         3a:82:35:33:00:bb:3b:1b:f3:9d:6b:29:8e:e4:66:90:84:9c:
         e7:0a:34:57:8e:70:ac:62:16:b9:bd:d4:2a:0e:02:c0:9f:fb:
         a2:a2:62:c0:49:3c:eb:e0:04:53:79:49:f7:80:bd:ee:98:f6:
         47:7e:3c:72:1c:63:37:49:40:a5:8a:66:2a:b3:5d:9c:8a:2a:
         c8:30:d3:81:4a:28:15:a8:ac:d8:f7:f6:9e:ae:e6:3a:a2:53:
         a5:9c:e5:68:ee:2e:a7:a7:aa:e6:28:b0:6f:2d:46:ed:17:09:
         d4:d6:a6:89:71:8a:f4:3c:08:8f:d1:43:21:61:47:d9:3e:c0:
         eb:8f:4c:32:8b:10:b3:29:e4:c5:8d:c9:69:01:36:1f:36:ad:
         4f:15:cc:90:5d:de:88:48:ec:1a:e0:10:1f:25:47:05:90:02:
         5e:fc:03:f7:0d:b3:d7:08:22:f9:a7:cd:78:f2:ce:ee:77:67:
         df:89:4b:62:b6:f7:76:47:ed:02:11:da:e7:d7:6e:c1:dd:79:
         a2:76:08:d0:65:66:76:c6:79:89:cd:92:2f:a6:7a:da:60:e5:
         48:2e:18:23:e6:36:5e:17:ec:f7:88:8a:91:61:80:38:b1:7e:
         e0:58:55:eb:2e:85:36:be:93:f2:7b:35:73:70:42:11:3a:f4:
         ee:e4:77:6d:7f:8e:bc:de:aa:38:dd:03:2d:f7:f5:97:12:c7:
         10:08:23:4f:68:0f:f8:61:73:95:27:94:fa:0d:6f:7b:fb:9b:
         74:c8:d0:9a:8f:c7:7f:b9:81:87:68:9b:54:08:cb:3c:87:09:
         92:c0:c9:38:3f:62:7b:85
-----BEGIN CERTIFICATE-----
MIIGrTCCBJWgAwIBAgICHuUwDQYJKoZIhvcNAQEEBQAwgawxCzAJBgNVBAYTAlVT
MQswCQYDVQQIEwJPSDERMA8GA1UEBxMIQ29sdW1idXMxEjAQBgNVBAoTCVZpa2lu
Z1ZQTjEdMBsGA1UECxMUTXlPcmdhbml6YXRpb25hbFVuaXQxFTATBgNVBAMTDFZp
a2luZ1ZQTiBDQTEQMA4GA1UEKRMHRWFzeVJTQTEhMB8GCSqGSIb3DQEJARYSbWVA
bXlob3N0Lm15ZG9tYWluMB4XDTE2MDUwNjEyNTIyOVoXDTI2MDUwNDEyNTIyOVow
HzEdMBsGA1UEAxMUQ2xpZW50MTM4OUNlcnRmMjAwZTkwggIiMA0GCSqGSIb3DQEB
AQUAA4ICDwAwggIKAoICAQDF4pglnj6xse7lZQ3HkCK4dH+TREwbzb7hXEmSt+uf
S+lqiSbTlMfr8iFsWQWTCb6gQXvm3HqBDkUAVPHaO82ulhEOBWCbXkK1TpAmR2SC
2uICCHO7nd1W2sEYXUvC2Am3h9BSn4yPAwOZqkbBv5SIdcNayFJCpEFlsEwIf7oj
KvWu30DWmEn+eQVy6K+moBUxBvpwWtmYKoIl15Twhct3DEII/+vofUFm4orhIUoP
ndVBOS9RWYu0XLXnqO7u9vNBSbTCL9f5OWE0nmmjqGf/S8smWIuxaB950LUMMKrd
znZxkXup4YUEtJ1kPsunjkmZ5fMjl6B7f/jH7PzVFmio4eFJUJYJ9kPCOlz2EwS1
FM7qB6lNeTOF+dYhXFi8ih3fAg2T8SGQit0wM6LG7ie0hxjT337Jbgc5TgBA7dod
tZ88YWyMfRU2d6sG54tprZW+GJSPtpJQLTPuur6QLuxxUGU0pPMewZkmbrahMx9s
Y0CT24mnMAfzYWtdH2dcXDB9MjoQNKdS7rriYwxbTbslEZJ9OnhCZT6OtRdhQHLN
Lxyl+bU17NtjtkpPfagqw3g68RS5WWhm6TS8rJ11EpWXtdN5pNlNxTs5OnJitZor
yiIHkx7Lqmq2PSAtnV2ti4ZekWoBe5Z0sz8XDSDlfCx9cxJyOfmymlU5y8pfH/ZW
ZwIDAQABo4IBYzCCAV8wCQYDVR0TBAIwADAtBglghkgBhvhCAQ0EIBYeRWFzeS1S
U0EgR2VuZXJhdGVkIENlcnRpZmljYXRlMB0GA1UdDgQWBBQB4eKlvmNOaL4oZo3W
vowNiX7N9TCB4QYDVR0jBIHZMIHWgBQSzWAE0qCAnnDtxpm4eyzGUv0ZoaGBsqSB
rzCBrDELMAkGA1UEBhMCVVMxCzAJBgNVBAgTAk9IMREwDwYDVQQHEwhDb2x1bWJ1
czESMBAGA1UEChMJVmlraW5nVlBOMR0wGwYDVQQLExRNeU9yZ2FuaXphdGlvbmFs
VW5pdDEVMBMGA1UEAxMMVmlraW5nVlBOIENBMRAwDgYDVQQpEwdFYXN5UlNBMSEw
HwYJKoZIhvcNAQkBFhJtZUBteWhvc3QubXlkb21haW6CCQDPNYXugL8qPjATBgNV
HSUEDDAKBggrBgEFBQcDAjALBgNVHQ8EBAMCB4AwDQYJKoZIhvcNAQEEBQADggIB
AOBemw/katvdGkGxriRXt3+vFxbQt0tFCOztM/R5DyU615ysRemXNoWIIVuZl9Lq
c8sHacabJfwRSvzwPuj170Iw3Dv9KnsWfeUhMNJSXtffLXVFlI+Uj+FGoVC3Y2CO
jw9lHQQKo6DZAmmcIm5DNC/G5NDJMiLCx+EdGJgOjPzfmpuB3wN8kvaas6mfp4Do
t4tGFGU2wJpLZPfJty57Jes6m68VanA32+IK1upQeORI2QyuSbz51ejQXmGus01S
gYNL0xw0DDqCNTMAuzsb851rKY7kZpCEnOcKNFeOcKxiFrm91CoOAsCf+6KiYsBJ
POvgBFN5SfeAve6Y9kd+PHIcYzdJQKWKZiqzXZyKKsgw04FKKBWorNj39p6u5jqi
U6Wc5WjuLqenquYosG8tRu0XCdTWpolxivQ8CI/RQyFhR9k+wOuPTDKLELMp5MWN
yWkBNh82rU8VzJBd3ohI7BrgEB8lRwWQAl78A/cNs9cIIvmnzXjyzu53Z9+JS2K2
93ZH7QIR2ufXbsHdeaJ2CNBlZnbGeYnNki+metpg5UguGCPmNl4X7PeIipFhgDix
fuBYVesuhTa+k/J7NXNwQhE69O7kd21/jrzeqjjdAy339ZcSxxAII09oD/hhc5Un
lPoNb3v7m3TI0JqPx3+5gYdom1QIyzyHCZLAyTg/YnuF
-----END CERTIFICATE-----
