Certificate:
    Data:
        Version: 3 (0x2)
        Serial Number: 7913 (0x1ee9)
    Signature Algorithm: md5WithRSAEncryption
        Issuer: C=US, ST=OH, L=Columbus, O=VikingVPN, OU=MyOrganizationalUnit, CN=VikingVPN CA/name=EasyRSA/emailAddress=me@myhost.mydomain
        Validity
            Not Before: May  7 13:23:24 2016 GMT
            Not After : May  5 13:23:24 2026 GMT
        Subject: CN=Client2288Cert5e5fd0
        Subject Public Key Info:
            Public Key Algorithm: rsaEncryption
                Public-Key: (4096 bit)
                Modulus:
                    00:ae:20:4e:0a:f5:43:0c:b9:df:07:e0:33:b3:5d:
                    2a:d0:53:08:d6:08:cc:a5:5f:dc:52:88:5c:84:3d:
                    83:b0:19:d0:cc:63:d6:c5:24:d5:13:a2:50:63:36:
                    2e:d2:1a:00:d3:1d:03:31:90:e4:5e:8c:0a:25:fb:
                    a1:43:7d:49:2b:38:37:18:9f:95:df:f7:fb:ac:8a:
                    93:9d:c5:b9:d5:ec:e1:5b:30:20:b1:8f:be:b0:f3:
                    85:26:de:61:dd:28:dd:e6:7e:be:95:1b:05:54:34:
                    b6:7d:8c:86:f0:a6:d6:eb:52:a3:cd:57:11:18:ed:
                    bb:90:e5:6f:26:f0:d8:62:78:76:f5:d8:7d:c1:20:
                    ef:22:c3:b2:a7:07:b9:6f:d3:a4:51:7c:15:49:d8:
                    d5:27:79:50:f1:be:b2:f4:ea:06:f9:03:de:77:06:
                    6f:8c:93:c0:ca:dc:7a:ea:74:62:50:eb:83:fa:2b:
                    a6:9b:88:1a:3a:8f:15:bd:5f:ad:7e:68:f3:56:cb:
                    a5:b1:98:f6:58:7a:b9:ed:02:5d:9e:ca:af:08:f2:
                    5d:cf:02:29:e6:b8:32:61:84:41:7e:bb:5d:1e:ed:
                    47:e2:30:cf:fb:12:bf:df:54:5c:4b:cb:16:7b:51:
                    e1:4e:4d:82:6f:de:85:08:df:ae:0f:f9:c1:6d:36:
                    b9:46:2a:00:cf:d1:0d:8a:68:00:5b:ef:90:2b:a3:
                    4d:b2:61:88:eb:6b:43:53:43:d5:13:e7:de:10:2c:
                    35:7e:6f:d0:83:30:1a:11:88:ba:93:ec:92:b3:e6:
                    a0:de:8c:e5:55:da:94:fa:c6:66:c9:ab:f9:9a:a1:
                    fd:eb:79:5e:70:8d:2e:8f:91:b1:af:16:e3:ba:5d:
                    3d:8a:0a:8c:c3:e2:c2:0f:15:74:92:fa:90:40:6d:
                    6a:66:af:1c:46:fc:d7:d1:d5:3c:ff:88:a9:34:5a:
                    6f:8d:7d:8e:1a:d5:99:5e:06:08:17:86:40:73:82:
                    46:07:97:fa:34:d9:30:8b:dc:a3:4a:01:59:05:54:
                    37:d9:f5:8b:40:63:d4:e2:82:40:c9:e2:06:03:33:
                    80:b0:e3:d0:43:20:66:8d:b1:77:01:eb:1e:70:40:
                    fa:93:6e:96:06:62:d3:aa:0a:4b:fb:21:bf:93:9f:
                    36:d5:62:8a:22:8d:10:3b:6a:79:33:3f:60:96:9e:
                    81:2c:48:2e:3a:dd:47:63:1e:15:a1:63:43:0c:40:
                    30:b3:d8:88:53:fd:3d:09:d4:3c:10:ba:fb:19:5c:
                    c4:49:55:d4:77:8f:9f:35:14:b8:31:94:a3:47:e3:
                    34:bd:27:9a:df:c1:af:ea:80:44:89:e7:ab:c4:91:
                    3e:40:fd
                Exponent: 65537 (0x10001)
        X509v3 extensions:
            X509v3 Basic Constraints: 
                CA:FALSE
            Netscape Comment: 
                Easy-RSA Generated Certificate
            X509v3 Subject Key Identifier: 
                5B:36:3B:82:34:06:77:91:4B:ED:98:51:3F:F4:7E:D5:4A:07:70:20
            X509v3 Authority Key Identifier: 
                keyid:12:CD:60:04:D2:A0:80:9E:70:ED:C6:99:B8:7B:2C:C6:52:FD:19:A1
                DirName:/C=US/ST=OH/L=Columbus/O=VikingVPN/OU=MyOrganizationalUnit/CN=VikingVPN CA/name=EasyRSA/emailAddress=me@myhost.mydomain
                serial:CF:35:85:EE:80:BF:2A:3E

            X509v3 Extended Key Usage: 
                TLS Web Client Authentication
            X509v3 Key Usage: 
                Digital Signature
    Signature Algorithm: md5WithRSAEncryption
         90:32:7d:2c:63:07:a5:99:4f:6a:29:0f:27:99:a7:b8:68:e9:
         e9:ae:04:06:3c:31:fa:99:5b:93:ff:30:d1:c2:73:d4:03:22:
         ef:8e:7d:e1:17:36:52:58:8f:fc:e9:9b:5a:a5:d5:8d:d1:70:
         ee:1c:1b:5b:fa:65:51:70:0b:77:ea:8b:97:17:88:bf:fc:81:
         10:60:e5:fc:95:53:82:dd:e6:d7:9b:79:6f:6f:bd:66:96:e7:
         34:9b:f7:28:05:99:34:f5:a7:69:8e:96:6e:4c:92:53:64:d3:
         ba:3c:02:fa:21:e9:ce:6e:4d:ed:33:c8:03:2a:58:37:e3:0d:
         9d:8b:19:0d:35:65:90:85:88:bd:50:c0:54:fd:ce:e1:f0:c4:
         a3:ba:87:15:69:9c:69:3b:78:a7:a7:38:d8:66:e6:1f:5f:44:
         77:7a:36:38:29:ce:bf:03:7f:36:ed:c7:af:51:95:dd:9a:cb:
         78:16:8a:bc:43:ed:3e:e7:3d:eb:ea:9d:59:25:ec:e7:8b:d2:
         2d:20:14:90:58:40:42:a1:1a:dc:f6:57:6b:99:ba:ca:fe:c0:
         43:6d:db:e2:90:47:45:4d:cb:60:ff:7d:b8:9e:39:69:90:25:
         ae:a8:85:7c:66:ca:a4:43:dc:52:ca:ce:98:7c:14:7c:08:e8:
         ea:e7:dd:60:9e:f5:6d:46:60:5e:73:67:4f:4d:4c:0d:7a:87:
         b9:ad:6f:be:5f:2f:b9:bf:00:84:99:af:8c:f3:1a:a3:6b:c9:
         bb:d0:95:1a:26:35:5e:b0:41:32:5f:a7:4b:f8:e0:b8:8f:18:
         9c:4e:42:53:f2:a6:da:db:02:1d:2a:b1:c9:16:ec:e5:8a:74:
         6c:7c:fe:e4:b5:de:44:92:40:d5:7c:42:4d:b3:be:29:c0:24:
         d6:46:67:a8:e7:d1:0f:f5:92:17:6b:1e:b7:fe:32:a4:aa:08:
         03:cf:87:b3:28:0b:22:9a:ce:3f:33:17:74:b4:31:0f:91:7a:
         00:cd:c9:fb:95:50:64:a1:36:b2:30:f0:70:fe:51:5c:ee:b4:
         df:54:3f:55:87:36:2f:92:1c:5e:d6:c5:6b:0a:c1:92:08:07:
         17:65:52:4a:dc:18:8d:e9:1e:2d:d1:74:41:c3:73:9b:14:6a:
         bc:5e:17:77:26:93:09:e2:c4:01:7d:85:88:dc:7b:10:33:9e:
         8e:f9:22:95:7e:ba:89:20:c5:3f:dd:7d:01:11:bd:5d:e9:53:
         48:8b:2f:3f:1f:83:e2:62:a9:0a:60:04:c8:44:7a:63:6c:7b:
         0e:75:ed:2c:b6:0e:44:90:61:e4:df:5e:98:46:c2:fd:f8:9a:
         e7:bf:0d:31:d2:37:ff:11
-----BEGIN CERTIFICATE-----
MIIGrTCCBJWgAwIBAgICHukwDQYJKoZIhvcNAQEEBQAwgawxCzAJBgNVBAYTAlVT
MQswCQYDVQQIEwJPSDERMA8GA1UEBxMIQ29sdW1idXMxEjAQBgNVBAoTCVZpa2lu
Z1ZQTjEdMBsGA1UECxMUTXlPcmdhbml6YXRpb25hbFVuaXQxFTATBgNVBAMTDFZp
a2luZ1ZQTiBDQTEQMA4GA1UEKRMHRWFzeVJTQTEhMB8GCSqGSIb3DQEJARYSbWVA
bXlob3N0Lm15ZG9tYWluMB4XDTE2MDUwNzEzMjMyNFoXDTI2MDUwNTEzMjMyNFow
HzEdMBsGA1UEAxMUQ2xpZW50MjI4OENlcnQ1ZTVmZDAwggIiMA0GCSqGSIb3DQEB
AQUAA4ICDwAwggIKAoICAQCuIE4K9UMMud8H4DOzXSrQUwjWCMylX9xSiFyEPYOw
GdDMY9bFJNUTolBjNi7SGgDTHQMxkORejAol+6FDfUkrODcYn5Xf9/usipOdxbnV
7OFbMCCxj76w84Um3mHdKN3mfr6VGwVUNLZ9jIbwptbrUqPNVxEY7buQ5W8m8Nhi
eHb12H3BIO8iw7KnB7lv06RRfBVJ2NUneVDxvrL06gb5A953Bm+Mk8DK3HrqdGJQ
64P6K6abiBo6jxW9X61+aPNWy6WxmPZYerntAl2eyq8I8l3PAinmuDJhhEF+u10e
7UfiMM/7Er/fVFxLyxZ7UeFOTYJv3oUI364P+cFtNrlGKgDP0Q2KaABb75Aro02y
YYjra0NTQ9UT594QLDV+b9CDMBoRiLqT7JKz5qDejOVV2pT6xmbJq/maof3reV5w
jS6PkbGvFuO6XT2KCozD4sIPFXSS+pBAbWpmrxxG/NfR1Tz/iKk0Wm+NfY4a1Zle
BggXhkBzgkYHl/o02TCL3KNKAVkFVDfZ9YtAY9TigkDJ4gYDM4Cw49BDIGaNsXcB
6x5wQPqTbpYGYtOqCkv7Ib+TnzbVYooijRA7ankzP2CWnoEsSC463UdjHhWhY0MM
QDCz2IhT/T0J1DwQuvsZXMRJVdR3j581FLgxlKNH4zS9J5rfwa/qgESJ56vEkT5A
/QIDAQABo4IBYzCCAV8wCQYDVR0TBAIwADAtBglghkgBhvhCAQ0EIBYeRWFzeS1S
U0EgR2VuZXJhdGVkIENlcnRpZmljYXRlMB0GA1UdDgQWBBRbNjuCNAZ3kUvtmFE/
9H7VSgdwIDCB4QYDVR0jBIHZMIHWgBQSzWAE0qCAnnDtxpm4eyzGUv0ZoaGBsqSB
rzCBrDELMAkGA1UEBhMCVVMxCzAJBgNVBAgTAk9IMREwDwYDVQQHEwhDb2x1bWJ1
czESMBAGA1UEChMJVmlraW5nVlBOMR0wGwYDVQQLExRNeU9yZ2FuaXphdGlvbmFs
VW5pdDEVMBMGA1UEAxMMVmlraW5nVlBOIENBMRAwDgYDVQQpEwdFYXN5UlNBMSEw
HwYJKoZIhvcNAQkBFhJtZUBteWhvc3QubXlkb21haW6CCQDPNYXugL8qPjATBgNV
HSUEDDAKBggrBgEFBQcDAjALBgNVHQ8EBAMCB4AwDQYJKoZIhvcNAQEEBQADggIB
AJAyfSxjB6WZT2opDyeZp7ho6emuBAY8MfqZW5P/MNHCc9QDIu+OfeEXNlJYj/zp
m1ql1Y3RcO4cG1v6ZVFwC3fqi5cXiL/8gRBg5fyVU4Ld5tebeW9vvWaW5zSb9ygF
mTT1p2mOlm5MklNk07o8Avoh6c5uTe0zyAMqWDfjDZ2LGQ01ZZCFiL1QwFT9zuHw
xKO6hxVpnGk7eKenONhm5h9fRHd6Njgpzr8Dfzbtx69Rld2ay3gWirxD7T7nPevq
nVkl7OeL0i0gFJBYQEKhGtz2V2uZusr+wENt2+KQR0VNy2D/fbieOWmQJa6ohXxm
yqRD3FLKzph8FHwI6Orn3WCe9W1GYF5zZ09NTA16h7mtb75fL7m/AISZr4zzGqNr
ybvQlRomNV6wQTJfp0v44LiPGJxOQlPyptrbAh0qsckW7OWKdGx8/uS13kSSQNV8
Qk2zvinAJNZGZ6jn0Q/1khdrHrf+MqSqCAPPh7MoCyKazj8zF3S0MQ+RegDNyfuV
UGShNrIw8HD+UVzutN9UP1WHNi+SHF7WxWsKwZIIBxdlUkrcGI3pHi3RdEHDc5sU
arxeF3cmkwnixAF9hYjcexAzno75IpV+uokgxT/dfQERvV3pU0iLLz8fg+JiqQpg
BMhEemNsew517Sy2DkSQYeTfXphGwv34mue/DTHSN/8R
-----END CERTIFICATE-----
