Certificate:
    Data:
        Version: 3 (0x2)
        Serial Number: 7937 (0x1f01)
    Signature Algorithm: md5WithRSAEncryption
        Issuer: C=US, ST=OH, L=Columbus, O=VikingVPN, OU=MyOrganizationalUnit, CN=VikingVPN CA/name=EasyRSA/emailAddress=me@myhost.mydomain
        Validity
            Not Before: May  9 22:58:47 2016 GMT
            Not After : May  7 22:58:47 2026 GMT
        Subject: CN=Client2097Cert94f945
        Subject Public Key Info:
            Public Key Algorithm: rsaEncryption
                Public-Key: (4096 bit)
                Modulus:
                    00:e7:b4:82:94:1d:f5:92:e2:d5:74:4e:47:53:c5:
                    ae:82:1b:8d:78:6e:43:bc:f7:0b:e3:1a:ad:ee:43:
                    2e:30:0f:03:1a:8b:ea:14:eb:b9:cf:6a:25:87:c1:
                    11:0e:56:c3:c9:6e:2e:ff:90:99:10:7f:d3:c9:f9:
                    7a:61:9e:42:17:46:c1:0f:5a:00:a4:48:eb:ff:59:
                    de:5b:0b:80:5a:91:4d:9d:48:00:7d:bf:ce:80:80:
                    0a:01:35:3e:67:f2:84:77:1a:a4:1f:ca:c4:c0:85:
                    2a:9d:dc:66:19:f3:fa:43:8e:cd:77:95:ff:41:2f:
                    09:f8:39:c1:40:33:a4:8a:53:bb:e3:b1:60:d9:87:
                    27:ba:a0:ea:0a:92:7b:d2:07:cb:0e:b1:63:24:47:
                    ba:d0:9d:75:d0:c4:29:0b:76:f8:b8:b9:4b:de:1a:
                    95:60:0c:fe:a3:a2:e4:bf:82:92:da:61:af:74:db:
                    b5:82:ce:1c:40:8f:1b:8b:83:6c:62:bb:31:5b:47:
                    4b:c9:ca:aa:00:97:7b:74:bc:8c:14:eb:23:bb:fa:
                    fd:10:6e:bb:ad:9c:81:bc:5a:b0:53:2f:f6:89:d5:
                    d2:1e:95:21:3a:86:09:a4:5d:04:e1:d8:c3:58:d6:
                    f5:51:98:d2:50:6b:4b:21:7d:d8:aa:b2:a8:8d:17:
                    25:8a:3a:47:98:76:2d:f6:c7:02:34:bb:7a:17:5e:
                    09:a3:b9:43:57:fc:4d:5e:0f:61:5d:49:fe:5f:27:
                    14:b4:8c:3e:74:2b:3e:b3:7d:ad:dc:b7:47:47:78:
                    51:6b:15:89:4a:b5:d7:72:d9:90:50:2c:64:49:4c:
                    10:75:47:b9:c7:29:48:54:dc:92:1d:f8:65:53:e8:
                    5d:21:0e:c9:c5:7f:ee:97:90:23:7f:c6:74:64:9d:
                    b0:f2:83:94:ea:ce:5e:72:40:13:02:e7:c5:b7:49:
                    c7:50:3d:70:f0:ec:09:98:7a:a6:e9:01:63:f0:25:
                    8f:27:0f:d2:7c:d3:20:ab:ed:55:d2:e4:96:d7:2c:
                    df:ba:50:81:aa:36:ff:b6:7e:86:4b:26:1c:1d:cb:
                    28:15:24:97:c6:bb:37:65:a8:d3:f9:6c:5f:7b:18:
                    49:e3:dd:08:71:8b:bf:01:a0:e1:1b:15:be:cc:2b:
                    bb:07:67:5b:79:75:16:3f:c8:81:ee:28:69:bd:d2:
                    a4:7a:34:06:e8:2b:56:ae:50:38:62:69:95:ad:b3:
                    c3:b0:5f:8d:87:fb:c5:77:0d:55:0d:69:b9:38:14:
                    73:ef:8b:ea:77:50:e6:b5:98:34:64:12:cf:08:65:
                    29:a8:40:8f:3e:49:7b:5d:9b:c4:95:66:93:75:92:
                    11:10:6f
                Exponent: 65537 (0x10001)
        X509v3 extensions:
            X509v3 Basic Constraints: 
                CA:FALSE
            Netscape Comment: 
                Easy-RSA Generated Certificate
            X509v3 Subject Key Identifier: 
                6A:24:31:4D:05:8F:99:34:27:43:4F:BC:EF:71:F2:95:8F:FF:60:82
            X509v3 Authority Key Identifier: 
                keyid:12:CD:60:04:D2:A0:80:9E:70:ED:C6:99:B8:7B:2C:C6:52:FD:19:A1
                DirName:/C=US/ST=OH/L=Columbus/O=VikingVPN/OU=MyOrganizationalUnit/CN=VikingVPN CA/name=EasyRSA/emailAddress=me@myhost.mydomain
                serial:CF:35:85:EE:80:BF:2A:3E

            X509v3 Extended Key Usage: 
                TLS Web Client Authentication
            X509v3 Key Usage: 
                Digital Signature
    Signature Algorithm: md5WithRSAEncryption
         b1:e1:aa:52:91:93:9b:f9:dd:d0:70:c3:3e:cd:a5:59:9b:7e:
         d2:16:2c:ae:17:e4:ce:65:61:05:81:1b:97:a9:6f:d1:21:95:
         00:47:fd:15:dd:e5:f9:c4:81:65:15:d8:0a:c7:ba:c8:c7:b4:
         aa:6b:03:19:62:e0:c6:6e:bd:69:c0:82:43:e9:a6:e1:cf:67:
         0d:51:c5:54:d1:27:8d:1e:27:9a:10:93:ff:bc:f3:72:6a:2b:
         87:6c:db:d8:99:a5:aa:4a:ba:91:a2:7d:3e:f2:8f:90:2d:3c:
         fd:cb:52:71:ea:d8:8b:ae:6a:89:81:25:fb:3b:4e:32:1f:9f:
         15:10:7f:b0:f8:bb:0f:1b:b3:49:51:02:59:a4:bd:70:d6:cd:
         01:48:32:a5:a7:a0:62:c2:c3:8e:6a:11:5d:32:6e:80:76:67:
         5a:28:1c:29:70:2e:46:14:30:47:b7:fd:5f:5f:c7:bc:59:74:
         4d:88:e8:3a:b7:2e:eb:ba:72:2d:38:bc:0e:02:bb:63:3a:ae:
         55:67:7d:db:45:9a:b6:0e:e2:a1:dd:27:03:4d:1c:3d:9f:9d:
         4c:11:84:0d:45:c2:1b:c6:06:0f:d8:82:95:60:50:65:a7:8b:
         87:0b:14:5d:f8:b7:f6:89:9c:3a:66:01:f1:a6:0f:a8:5a:d8:
         13:e4:b2:3b:46:4a:f7:36:1f:08:34:51:49:f8:68:f9:49:f0:
         12:f0:b6:a2:bc:15:c8:82:03:0c:d8:50:2c:93:d4:0e:c9:eb:
         c1:23:c0:3b:fe:97:52:e2:f3:03:90:ab:19:61:c1:1a:96:5b:
         7a:2e:d5:c5:22:04:2b:25:3c:fb:4a:b2:0f:cd:1e:1c:7e:7b:
         39:76:cd:40:8e:25:88:a1:7e:fb:b8:a3:4d:47:e0:ae:74:0a:
         6a:91:d1:fa:1c:f6:7b:ae:7d:3e:29:74:f8:79:9b:00:a9:b1:
         76:ed:96:82:37:40:c5:30:bd:08:af:ef:69:d3:a8:55:3f:d0:
         c8:3b:54:7a:3a:36:71:0f:4c:fb:41:af:3e:e6:3b:ec:e6:c3:
         bf:a0:a3:26:a8:55:6f:49:5e:b0:74:50:b5:0f:63:4c:08:f8:
         a4:46:fb:b6:8a:d2:6a:b8:b8:ae:ca:b5:67:18:c5:a0:df:b7:
         76:ad:c7:de:eb:ee:73:a0:0c:9d:eb:5f:26:97:3b:a2:0f:e0:
         e7:cb:d2:24:cd:77:83:c7:39:66:70:79:fb:07:52:fb:11:ae:
         fd:19:a3:41:f6:53:fe:99:c7:3b:07:f5:a2:d4:f4:3d:ca:68:
         ae:a4:63:ca:38:eb:7c:c7:83:58:9e:bf:b0:ac:c9:cd:f3:6f:
         cf:63:38:a1:a4:cf:16:45
-----BEGIN CERTIFICATE-----
MIIGrTCCBJWgAwIBAgICHwEwDQYJKoZIhvcNAQEEBQAwgawxCzAJBgNVBAYTAlVT
MQswCQYDVQQIEwJPSDERMA8GA1UEBxMIQ29sdW1idXMxEjAQBgNVBAoTCVZpa2lu
Z1ZQTjEdMBsGA1UECxMUTXlPcmdhbml6YXRpb25hbFVuaXQxFTATBgNVBAMTDFZp
a2luZ1ZQTiBDQTEQMA4GA1UEKRMHRWFzeVJTQTEhMB8GCSqGSIb3DQEJARYSbWVA
bXlob3N0Lm15ZG9tYWluMB4XDTE2MDUwOTIyNTg0N1oXDTI2MDUwNzIyNTg0N1ow
HzEdMBsGA1UEAxMUQ2xpZW50MjA5N0NlcnQ5NGY5NDUwggIiMA0GCSqGSIb3DQEB
AQUAA4ICDwAwggIKAoICAQDntIKUHfWS4tV0TkdTxa6CG414bkO89wvjGq3uQy4w
DwMai+oU67nPaiWHwREOVsPJbi7/kJkQf9PJ+XphnkIXRsEPWgCkSOv/Wd5bC4Ba
kU2dSAB9v86AgAoBNT5n8oR3GqQfysTAhSqd3GYZ8/pDjs13lf9BLwn4OcFAM6SK
U7vjsWDZhye6oOoKknvSB8sOsWMkR7rQnXXQxCkLdvi4uUveGpVgDP6jouS/gpLa
Ya9027WCzhxAjxuLg2xiuzFbR0vJyqoAl3t0vIwU6yO7+v0QbrutnIG8WrBTL/aJ
1dIelSE6hgmkXQTh2MNY1vVRmNJQa0shfdiqsqiNFyWKOkeYdi32xwI0u3oXXgmj
uUNX/E1eD2FdSf5fJxS0jD50Kz6zfa3ct0dHeFFrFYlKtddy2ZBQLGRJTBB1R7nH
KUhU3JId+GVT6F0hDsnFf+6XkCN/xnRknbDyg5Tqzl5yQBMC58W3ScdQPXDw7AmY
eqbpAWPwJY8nD9J80yCr7VXS5JbXLN+6UIGqNv+2foZLJhwdyygVJJfGuzdlqNP5
bF97GEnj3Qhxi78BoOEbFb7MK7sHZ1t5dRY/yIHuKGm90qR6NAboK1auUDhiaZWt
s8OwX42H+8V3DVUNabk4FHPvi+p3UOa1mDRkEs8IZSmoQI8+SXtdm8SVZpN1khEQ
bwIDAQABo4IBYzCCAV8wCQYDVR0TBAIwADAtBglghkgBhvhCAQ0EIBYeRWFzeS1S
U0EgR2VuZXJhdGVkIENlcnRpZmljYXRlMB0GA1UdDgQWBBRqJDFNBY+ZNCdDT7zv
cfKVj/9ggjCB4QYDVR0jBIHZMIHWgBQSzWAE0qCAnnDtxpm4eyzGUv0ZoaGBsqSB
rzCBrDELMAkGA1UEBhMCVVMxCzAJBgNVBAgTAk9IMREwDwYDVQQHEwhDb2x1bWJ1
czESMBAGA1UEChMJVmlraW5nVlBOMR0wGwYDVQQLExRNeU9yZ2FuaXphdGlvbmFs
VW5pdDEVMBMGA1UEAxMMVmlraW5nVlBOIENBMRAwDgYDVQQpEwdFYXN5UlNBMSEw
HwYJKoZIhvcNAQkBFhJtZUBteWhvc3QubXlkb21haW6CCQDPNYXugL8qPjATBgNV
HSUEDDAKBggrBgEFBQcDAjALBgNVHQ8EBAMCB4AwDQYJKoZIhvcNAQEEBQADggIB
ALHhqlKRk5v53dBwwz7NpVmbftIWLK4X5M5lYQWBG5epb9EhlQBH/RXd5fnEgWUV
2ArHusjHtKprAxli4MZuvWnAgkPppuHPZw1RxVTRJ40eJ5oQk/+883JqK4ds29iZ
papKupGifT7yj5AtPP3LUnHq2IuuaomBJfs7TjIfnxUQf7D4uw8bs0lRAlmkvXDW
zQFIMqWnoGLCw45qEV0yboB2Z1ooHClwLkYUMEe3/V9fx7xZdE2I6Dq3Luu6ci04
vA4Cu2M6rlVnfdtFmrYO4qHdJwNNHD2fnUwRhA1FwhvGBg/YgpVgUGWni4cLFF34
t/aJnDpmAfGmD6ha2BPksjtGSvc2Hwg0UUn4aPlJ8BLwtqK8FciCAwzYUCyT1A7J
68EjwDv+l1Li8wOQqxlhwRqWW3ou1cUiBCslPPtKsg/NHhx+ezl2zUCOJYihfvu4
o01H4K50CmqR0foc9nuufT4pdPh5mwCpsXbtloI3QMUwvQiv72nTqFU/0Mg7VHo6
NnEPTPtBrz7mO+zmw7+goyaoVW9JXrB0ULUPY0wI+KRG+7aK0mq4uK7KtWcYxaDf
t3atx97r7nOgDJ3rXyaXO6IP4OfL0iTNd4PHOWZwefsHUvsRrv0Zo0H2U/6ZxzsH
9aLU9D3KaK6kY8o463zHg1iev7Csyc3zb89jOKGkzxZF
-----END CERTIFICATE-----
