Certificate:
    Data:
        Version: 3 (0x2)
        Serial Number: 7953 (0x1f11)
    Signature Algorithm: md5WithRSAEncryption
        Issuer: C=US, ST=OH, L=Columbus, O=VikingVPN, OU=MyOrganizationalUnit, CN=VikingVPN CA/name=EasyRSA/emailAddress=me@myhost.mydomain
        Validity
            Not Before: May 12 04:43:30 2016 GMT
            Not After : May 10 04:43:30 2026 GMT
        Subject: CN=Client879Certeb88ba
        Subject Public Key Info:
            Public Key Algorithm: rsaEncryption
                Public-Key: (4096 bit)
                Modulus:
                    00:be:f1:4c:43:7b:cf:76:d8:56:e9:a4:e5:71:26:
                    4d:25:7e:a7:69:d0:28:2f:ec:97:24:a2:a7:51:23:
                    34:d3:88:18:93:a9:85:cf:00:97:b0:47:0b:58:98:
                    f5:58:4e:13:0e:c0:0e:4b:d3:06:56:c8:17:26:6f:
                    93:9f:9e:92:54:8b:17:ba:67:57:18:35:b5:14:a1:
                    d0:8e:5b:f3:8b:d9:76:94:fd:37:7f:a5:20:7e:a9:
                    85:77:f1:25:c9:c6:f8:3f:32:4d:25:5d:7e:a5:81:
                    54:2b:6c:b4:a5:a7:cb:c6:33:32:7c:60:60:f2:0a:
                    16:08:cd:2d:d3:b4:ab:d4:9b:b4:62:1c:6c:4a:9e:
                    7c:8a:eb:e3:17:db:34:0c:eb:a9:a1:42:bd:89:6a:
                    e3:f2:df:62:4b:8f:cf:74:86:03:5c:e6:bb:24:26:
                    f6:da:c4:af:61:60:64:87:ff:74:cb:c9:27:77:1b:
                    7a:c5:1e:54:4e:ef:8b:70:b7:c1:b4:56:a5:02:5f:
                    5e:66:ab:3b:82:db:3b:5c:be:fe:4f:2c:b3:b8:9a:
                    aa:67:36:ff:30:97:ad:d2:b5:42:cb:9c:b0:ea:84:
                    8d:90:ff:a7:89:07:75:f7:52:6c:c5:04:ff:2e:d7:
                    1a:f0:86:1b:fb:ba:16:e8:30:34:05:63:d4:37:96:
                    88:34:cf:ea:01:d5:1f:eb:4f:fe:36:80:d1:74:2d:
                    c2:cb:ee:4a:71:4f:59:f8:a7:ea:f8:97:72:b1:30:
                    49:e4:eb:6a:13:bb:85:ea:39:9a:f2:52:9d:cc:f9:
                    0a:e0:cc:56:53:52:b9:49:e6:2c:c8:d9:1f:1e:ee:
                    83:d3:07:cf:cb:d3:ee:dd:1a:3b:81:97:ad:32:d5:
                    d7:fc:0c:8c:d8:2d:e2:ce:38:98:23:dd:1c:be:b1:
                    32:07:72:45:60:4b:5b:f7:4c:9d:4c:c1:8b:73:bf:
                    a9:5f:dd:3a:79:76:5e:c8:71:84:a0:65:2d:68:40:
                    89:8c:e4:60:be:c5:6f:d3:8a:fe:b8:c1:d0:1f:dd:
                    32:47:76:ae:d6:42:b8:cb:ad:e4:5e:43:fe:d8:22:
                    b5:b5:58:df:36:c2:29:3e:ee:e0:56:cd:f8:7b:e2:
                    0f:c8:a8:57:8b:d1:16:f4:73:d6:bf:e4:ab:d6:35:
                    3d:82:69:36:20:6f:4c:68:44:00:4a:6a:a1:29:3c:
                    52:d1:17:7e:c0:97:1e:18:54:38:67:3f:0b:91:11:
                    51:50:65:c5:1c:48:b7:86:c2:12:32:b9:db:30:c1:
                    72:10:16:82:fc:33:0a:c3:32:68:a3:80:13:37:c3:
                    3a:dd:2a:71:24:a6:29:09:33:48:a4:38:42:e0:5d:
                    80:a1:d3
                Exponent: 65537 (0x10001)
        X509v3 extensions:
            X509v3 Basic Constraints: 
                CA:FALSE
            Netscape Comment: 
                Easy-RSA Generated Certificate
            X509v3 Subject Key Identifier: 
                54:23:4F:68:E1:97:DF:55:C5:7D:1B:AF:F0:CC:3A:46:A4:F7:20:B2
            X509v3 Authority Key Identifier: 
                keyid:12:CD:60:04:D2:A0:80:9E:70:ED:C6:99:B8:7B:2C:C6:52:FD:19:A1
                DirName:/C=US/ST=OH/L=Columbus/O=VikingVPN/OU=MyOrganizationalUnit/CN=VikingVPN CA/name=EasyRSA/emailAddress=me@myhost.mydomain
                serial:CF:35:85:EE:80:BF:2A:3E

            X509v3 Extended Key Usage: 
                TLS Web Client Authentication
            X509v3 Key Usage: 
                Digital Signature
    Signature Algorithm: md5WithRSAEncryption
         07:11:a2:f8:b0:ba:8e:b8:be:6c:6c:6c:23:91:34:0c:cb:7e:
         97:a2:b0:71:83:24:56:0a:8a:8b:56:3e:58:b4:d7:0b:c8:e3:
         f2:2f:6e:cd:d8:24:8d:3f:30:93:90:11:1a:a5:0b:de:ec:88:
         6d:cd:b1:81:e8:93:6f:bc:5d:5b:a3:57:f4:17:f9:bb:2a:65:
         42:60:46:48:a2:d9:5c:0f:bf:d2:81:8a:dd:da:21:05:e5:9f:
         09:fe:95:15:e4:13:3d:06:ea:f4:80:36:b9:e3:27:91:ee:b8:
         80:43:5e:68:06:5a:ce:e5:8b:e3:a6:6d:7e:89:1d:3d:3f:e2:
         6e:05:77:eb:44:bd:2b:2b:4a:10:92:49:1c:b2:ff:4f:72:a2:
         f5:ac:90:5d:26:c7:30:cd:2d:8a:d0:53:d6:0e:d9:cd:a9:4e:
         a1:f5:e0:28:79:b3:67:c6:db:92:5a:e9:41:22:2b:7d:98:66:
         6a:27:78:41:15:56:96:6a:2f:3a:a4:dc:16:d4:db:ab:d3:cd:
         c8:e6:85:15:8d:c4:8c:ca:09:b2:30:53:e0:c3:48:cd:93:52:
         74:66:ab:c7:52:40:a0:12:b4:6a:50:34:e4:84:e6:0b:72:6c:
         2a:74:f0:59:d9:7f:ee:19:40:3e:0a:1d:4a:fc:6a:cd:1e:ac:
         d7:4f:b3:87:d3:da:d3:af:3a:a1:ef:38:77:c0:a9:c4:a4:89:
         25:0f:af:a2:65:67:51:f3:30:80:03:23:04:4e:3c:b3:04:f0:
         51:0b:21:42:62:9d:98:74:a5:f4:3b:e0:72:85:e6:67:d7:38:
         d6:69:70:eb:ef:22:9c:e5:57:5a:dd:8b:15:c4:d7:7c:27:2b:
         bd:04:7d:7c:fb:34:e5:c6:a6:c0:74:e1:c6:48:57:b8:65:72:
         91:15:57:d0:3a:29:5f:32:2e:09:b8:77:0a:16:86:38:b6:32:
         55:32:dc:ed:c3:a9:49:31:cd:a0:21:81:dd:2e:a3:c9:d3:58:
         ca:c5:1b:66:c0:1a:d1:c4:d4:37:74:ef:c3:c5:06:42:2b:31:
         5e:13:c2:1a:05:66:62:64:f1:48:70:2e:1f:32:c2:52:14:91:
         79:c1:00:64:a4:68:e0:8c:92:30:d6:fe:8a:15:35:14:e3:b9:
         d7:fc:bf:b5:70:ab:3d:2c:16:f3:c2:7e:2e:76:6b:43:e6:0f:
         29:a0:f1:c4:a4:e8:a8:3e:d5:26:36:3d:f4:fa:b5:85:52:41:
         da:75:1d:c2:c1:32:11:54:9c:76:4d:6f:e0:da:c4:32:70:41:
         5e:42:10:d6:36:dd:b6:fd:71:d4:0e:ae:89:0c:83:e1:18:86:
         e0:08:14:35:62:81:dd:03
-----BEGIN CERTIFICATE-----
MIIGrDCCBJSgAwIBAgICHxEwDQYJKoZIhvcNAQEEBQAwgawxCzAJBgNVBAYTAlVT
MQswCQYDVQQIEwJPSDERMA8GA1UEBxMIQ29sdW1idXMxEjAQBgNVBAoTCVZpa2lu
Z1ZQTjEdMBsGA1UECxMUTXlPcmdhbml6YXRpb25hbFVuaXQxFTATBgNVBAMTDFZp
a2luZ1ZQTiBDQTEQMA4GA1UEKRMHRWFzeVJTQTEhMB8GCSqGSIb3DQEJARYSbWVA
bXlob3N0Lm15ZG9tYWluMB4XDTE2MDUxMjA0NDMzMFoXDTI2MDUxMDA0NDMzMFow
HjEcMBoGA1UEAxMTQ2xpZW50ODc5Q2VydGViODhiYTCCAiIwDQYJKoZIhvcNAQEB
BQADggIPADCCAgoCggIBAL7xTEN7z3bYVumk5XEmTSV+p2nQKC/slySip1EjNNOI
GJOphc8Al7BHC1iY9VhOEw7ADkvTBlbIFyZvk5+eklSLF7pnVxg1tRSh0I5b84vZ
dpT9N3+lIH6phXfxJcnG+D8yTSVdfqWBVCtstKWny8YzMnxgYPIKFgjNLdO0q9Sb
tGIcbEqefIrr4xfbNAzrqaFCvYlq4/LfYkuPz3SGA1zmuyQm9trEr2FgZIf/dMvJ
J3cbesUeVE7vi3C3wbRWpQJfXmarO4LbO1y+/k8ss7iaqmc2/zCXrdK1QsucsOqE
jZD/p4kHdfdSbMUE/y7XGvCGG/u6FugwNAVj1DeWiDTP6gHVH+tP/jaA0XQtwsvu
SnFPWfin6viXcrEwSeTrahO7heo5mvJSncz5CuDMVlNSuUnmLMjZHx7ug9MHz8vT
7t0aO4GXrTLV1/wMjNgt4s44mCPdHL6xMgdyRWBLW/dMnUzBi3O/qV/dOnl2Xshx
hKBlLWhAiYzkYL7Fb9OK/rjB0B/dMkd2rtZCuMut5F5D/tgitbVY3zbCKT7u4FbN
+HviD8ioV4vRFvRz1r/kq9Y1PYJpNiBvTGhEAEpqoSk8UtEXfsCXHhhUOGc/C5ER
UVBlxRxIt4bCEjK52zDBchAWgvwzCsMyaKOAEzfDOt0qcSSmKQkzSKQ4QuBdgKHT
AgMBAAGjggFjMIIBXzAJBgNVHRMEAjAAMC0GCWCGSAGG+EIBDQQgFh5FYXN5LVJT
QSBHZW5lcmF0ZWQgQ2VydGlmaWNhdGUwHQYDVR0OBBYEFFQjT2jhl99VxX0br/DM
Okak9yCyMIHhBgNVHSMEgdkwgdaAFBLNYATSoICecO3Gmbh7LMZS/RmhoYGypIGv
MIGsMQswCQYDVQQGEwJVUzELMAkGA1UECBMCT0gxETAPBgNVBAcTCENvbHVtYnVz
MRIwEAYDVQQKEwlWaWtpbmdWUE4xHTAbBgNVBAsTFE15T3JnYW5pemF0aW9uYWxV
bml0MRUwEwYDVQQDEwxWaWtpbmdWUE4gQ0ExEDAOBgNVBCkTB0Vhc3lSU0ExITAf
BgkqhkiG9w0BCQEWEm1lQG15aG9zdC5teWRvbWFpboIJAM81he6Avyo+MBMGA1Ud
JQQMMAoGCCsGAQUFBwMCMAsGA1UdDwQEAwIHgDANBgkqhkiG9w0BAQQFAAOCAgEA
BxGi+LC6jri+bGxsI5E0DMt+l6KwcYMkVgqKi1Y+WLTXC8jj8i9uzdgkjT8wk5AR
GqUL3uyIbc2xgeiTb7xdW6NX9Bf5uyplQmBGSKLZXA+/0oGK3dohBeWfCf6VFeQT
PQbq9IA2ueMnke64gENeaAZazuWL46ZtfokdPT/ibgV360S9KytKEJJJHLL/T3Ki
9ayQXSbHMM0titBT1g7ZzalOofXgKHmzZ8bbklrpQSIrfZhmaid4QRVWlmovOqTc
FtTbq9PNyOaFFY3EjMoJsjBT4MNIzZNSdGarx1JAoBK0alA05ITmC3JsKnTwWdl/
7hlAPgodSvxqzR6s10+zh9Pa0686oe84d8CpxKSJJQ+vomVnUfMwgAMjBE48swTw
UQshQmKdmHSl9DvgcoXmZ9c41mlw6+8inOVXWt2LFcTXfCcrvQR9fPs05camwHTh
xkhXuGVykRVX0DopXzIuCbh3ChaGOLYyVTLc7cOpSTHNoCGB3S6jydNYysUbZsAa
0cTUN3Tvw8UGQisxXhPCGgVmYmTxSHAuHzLCUhSRecEAZKRo4IySMNb+ihU1FOO5
1/y/tXCrPSwW88J+LnZrQ+YPKaDxxKToqD7VJjY99Pq1hVJB2nUdwsEyEVScdk1v
4NrEMnBBXkIQ1jbdtv1x1A6uiQyD4RiG4AgUNWKB3QM=
-----END CERTIFICATE-----
