Certificate:
    Data:
        Version: 3 (0x2)
        Serial Number: 7995 (0x1f3b)
    Signature Algorithm: md5WithRSAEncryption
        Issuer: C=US, ST=OH, L=Columbus, O=VikingVPN, OU=MyOrganizationalUnit, CN=VikingVPN CA/name=EasyRSA/emailAddress=me@myhost.mydomain
        Validity
            Not Before: May 17 02:35:26 2016 GMT
            Not After : May 15 02:35:26 2026 GMT
        Subject: CN=Client2301Certcb2bd3
        Subject Public Key Info:
            Public Key Algorithm: rsaEncryption
                Public-Key: (4096 bit)
                Modulus:
                    00:bd:1b:5f:bc:1e:c0:b6:c1:1c:e0:9e:e9:95:59:
                    98:92:ef:38:08:34:cf:6f:10:44:7f:29:62:df:82:
                    f5:5f:1f:dc:ab:4d:fb:c9:36:ae:9b:09:3a:37:5f:
                    98:ee:45:1d:a9:02:54:ae:e7:1d:c3:b1:d7:0c:52:
                    77:12:ad:a6:ff:27:a5:58:0d:9c:d0:6b:43:a3:a4:
                    20:2c:31:3f:7e:3c:1b:ed:5d:eb:8c:4b:88:dc:73:
                    d8:13:70:54:c6:de:ac:61:66:51:b6:d9:7b:69:f2:
                    7e:90:db:bf:3d:bc:dd:24:5c:6e:e3:8b:76:4d:c6:
                    f9:2e:8b:de:77:73:36:35:77:8b:d7:51:07:1e:c0:
                    3c:62:8e:a7:34:3c:68:ae:4d:69:d4:87:df:9f:48:
                    bf:2a:be:c2:49:be:47:05:7c:34:10:b8:31:a5:09:
                    93:bb:87:36:56:c9:06:fe:4d:33:10:27:c0:f4:77:
                    8a:41:71:d1:43:ee:bf:15:c9:b4:77:e4:a8:f1:ce:
                    85:1f:8f:8c:c2:d4:aa:aa:aa:8f:cf:25:0f:54:0e:
                    a8:10:20:ea:0b:15:b7:1d:66:c9:69:9d:1c:75:11:
                    e9:5d:ea:da:12:34:37:53:12:e7:d9:d9:4f:8e:4f:
                    a0:4f:78:de:b4:c4:95:88:11:12:fd:c4:4f:9d:5d:
                    3c:34:75:11:66:b0:0d:8b:94:72:7d:34:11:71:f9:
                    27:3f:1b:5b:a3:7f:5d:ed:e0:5c:a6:9d:b8:27:51:
                    68:37:61:5c:2a:cd:4a:0e:33:95:4f:59:74:53:17:
                    a4:22:da:9b:d5:6d:9f:36:6c:9d:65:76:ad:0f:a3:
                    34:86:35:1d:40:63:c7:52:9f:42:f3:d5:34:00:4e:
                    41:d8:88:0e:44:dc:db:b1:aa:39:8e:7c:75:aa:7b:
                    4c:a2:7a:0e:cf:cd:75:78:d3:49:3e:54:51:5a:79:
                    50:4b:0e:49:01:1f:4a:da:c8:ae:a5:99:a2:36:8e:
                    99:dc:69:a2:4a:b8:2a:ee:3f:9d:08:56:3f:e9:60:
                    a0:1d:97:74:b2:1f:0d:bb:e6:e1:e1:fc:6b:a7:be:
                    78:e2:54:17:d0:32:e4:76:97:1e:f5:b2:b0:d3:f4:
                    a4:80:d7:58:bf:1c:d7:fb:0d:1f:5e:b1:80:c5:37:
                    ac:51:f3:e2:3c:f9:8e:6a:ca:c3:11:ae:6b:1b:6a:
                    74:c0:2f:09:af:d2:53:92:4e:fe:69:74:55:0a:98:
                    13:0f:8e:98:fa:9e:3c:59:a1:b5:e3:3d:fc:3c:30:
                    1f:74:ca:78:1d:16:32:37:c7:7c:f6:11:83:e7:bc:
                    8e:e6:48:14:ad:02:4c:dc:25:69:5c:b6:c6:06:a4:
                    3d:eb:81
                Exponent: 65537 (0x10001)
        X509v3 extensions:
            X509v3 Basic Constraints: 
                CA:FALSE
            Netscape Comment: 
                Easy-RSA Generated Certificate
            X509v3 Subject Key Identifier: 
                5D:8D:A1:48:AC:4D:8E:E3:C4:86:C9:FF:7E:AE:3C:CF:7D:6D:AA:FA
            X509v3 Authority Key Identifier: 
                keyid:12:CD:60:04:D2:A0:80:9E:70:ED:C6:99:B8:7B:2C:C6:52:FD:19:A1
                DirName:/C=US/ST=OH/L=Columbus/O=VikingVPN/OU=MyOrganizationalUnit/CN=VikingVPN CA/name=EasyRSA/emailAddress=me@myhost.mydomain
                serial:CF:35:85:EE:80:BF:2A:3E

            X509v3 Extended Key Usage: 
                TLS Web Client Authentication
            X509v3 Key Usage: 
                Digital Signature
    Signature Algorithm: md5WithRSAEncryption
         8a:9c:4e:b2:eb:54:ac:0e:de:92:46:ae:c9:f3:b4:d6:06:6c:
         f3:55:5b:6d:60:cf:b8:89:fb:e6:f1:f8:52:0a:c0:b4:a0:cf:
         03:35:3f:41:2f:a6:e6:98:15:e8:59:ca:83:5d:24:65:a3:42:
         90:9e:a5:2b:f2:82:77:6f:c0:f8:04:31:04:62:51:42:3b:03:
         6b:cb:18:08:4e:90:10:30:8a:9e:2a:4e:d6:e6:cf:da:44:d9:
         21:07:33:f0:60:70:90:4a:99:ce:06:7b:c9:24:0a:85:1f:9a:
         5e:fc:ba:67:76:c4:72:80:7f:ab:33:38:d4:e9:79:94:e8:f5:
         ee:96:cf:20:1a:e1:cb:1e:f0:0e:62:f3:d3:14:7d:e3:b7:cf:
         92:f2:6e:13:df:92:95:97:36:d9:68:eb:28:1a:76:2b:9b:de:
         a0:37:e3:1b:c4:c0:84:89:86:71:06:07:0f:4e:7a:44:c5:15:
         df:91:b8:87:f5:a1:53:87:23:c5:7e:38:d0:09:fc:eb:06:c3:
         be:13:34:c7:1d:d3:a1:a8:8d:55:fd:e9:8b:ab:f6:ec:ac:1a:
         af:71:bf:72:fb:85:14:b2:7d:86:eb:8b:a7:27:1a:6c:b4:14:
         f7:5b:c4:3a:b5:d1:73:47:d2:1b:e7:c1:06:a3:a5:96:b2:f3:
         27:fa:b9:bd:71:7a:d8:e8:e6:b0:aa:16:13:91:53:d7:98:b8:
         3e:c4:ce:00:36:ec:91:47:6d:d2:69:44:ae:11:19:95:0d:83:
         cc:0d:26:ed:35:d0:35:3b:04:bf:2e:00:05:43:62:b6:40:4d:
         f2:e9:d4:3d:96:4f:c3:da:a5:04:3f:7c:8d:07:78:94:7b:a5:
         17:45:00:8b:ed:5c:0f:51:7d:9e:4d:43:c3:50:69:d3:5a:9f:
         b8:87:d4:5b:c4:c7:94:f7:27:c3:52:92:b9:9b:5b:78:d0:67:
         fb:8b:39:97:0b:e3:f8:be:31:2e:93:ed:b6:3e:37:9c:45:47:
         26:69:c8:a3:bd:3e:38:59:7f:09:da:20:4d:80:8f:a7:15:6b:
         93:98:ac:2b:1e:ca:5e:25:fe:d7:33:95:cb:c4:71:2e:a1:a4:
         4c:a0:18:9e:54:87:26:b8:4a:92:21:f2:98:46:35:73:b2:a2:
         de:d6:dd:86:99:ef:a8:81:8f:cf:8b:ef:bf:1c:2e:91:62:d8:
         62:e0:e3:46:10:48:4c:85:b6:27:ec:e8:a7:c8:ec:a9:78:c0:
         86:ea:f5:03:ac:fa:43:7c:96:6d:60:57:63:81:0c:5c:87:e9:
         cb:cc:97:0f:55:d7:1e:11:2c:aa:a1:ec:26:f6:75:1d:1f:05:
         08:31:ee:14:5c:35:93:9e
-----BEGIN CERTIFICATE-----
MIIGrTCCBJWgAwIBAgICHzswDQYJKoZIhvcNAQEEBQAwgawxCzAJBgNVBAYTAlVT
MQswCQYDVQQIEwJPSDERMA8GA1UEBxMIQ29sdW1idXMxEjAQBgNVBAoTCVZpa2lu
Z1ZQTjEdMBsGA1UECxMUTXlPcmdhbml6YXRpb25hbFVuaXQxFTATBgNVBAMTDFZp
a2luZ1ZQTiBDQTEQMA4GA1UEKRMHRWFzeVJTQTEhMB8GCSqGSIb3DQEJARYSbWVA
bXlob3N0Lm15ZG9tYWluMB4XDTE2MDUxNzAyMzUyNloXDTI2MDUxNTAyMzUyNlow
HzEdMBsGA1UEAxMUQ2xpZW50MjMwMUNlcnRjYjJiZDMwggIiMA0GCSqGSIb3DQEB
AQUAA4ICDwAwggIKAoICAQC9G1+8HsC2wRzgnumVWZiS7zgINM9vEER/KWLfgvVf
H9yrTfvJNq6bCTo3X5juRR2pAlSu5x3DsdcMUncSrab/J6VYDZzQa0OjpCAsMT9+
PBvtXeuMS4jcc9gTcFTG3qxhZlG22Xtp8n6Q2789vN0kXG7ji3ZNxvkui953czY1
d4vXUQcewDxijqc0PGiuTWnUh9+fSL8qvsJJvkcFfDQQuDGlCZO7hzZWyQb+TTMQ
J8D0d4pBcdFD7r8VybR35KjxzoUfj4zC1Kqqqo/PJQ9UDqgQIOoLFbcdZslpnRx1
Eeld6toSNDdTEufZ2U+OT6BPeN60xJWIERL9xE+dXTw0dRFmsA2LlHJ9NBFx+Sc/
G1ujf13t4FymnbgnUWg3YVwqzUoOM5VPWXRTF6Qi2pvVbZ82bJ1ldq0PozSGNR1A
Y8dSn0Lz1TQATkHYiA5E3NuxqjmOfHWqe0yieg7PzXV400k+VFFaeVBLDkkBH0ra
yK6lmaI2jpncaaJKuCruP50IVj/pYKAdl3SyHw275uHh/GunvnjiVBfQMuR2lx71
srDT9KSA11i/HNf7DR9esYDFN6xR8+I8+Y5qysMRrmsbanTALwmv0lOSTv5pdFUK
mBMPjpj6njxZobXjPfw8MB90yngdFjI3x3z2EYPnvI7mSBStAkzcJWlctsYGpD3r
gQIDAQABo4IBYzCCAV8wCQYDVR0TBAIwADAtBglghkgBhvhCAQ0EIBYeRWFzeS1S
U0EgR2VuZXJhdGVkIENlcnRpZmljYXRlMB0GA1UdDgQWBBRdjaFIrE2O48SGyf9+
rjzPfW2q+jCB4QYDVR0jBIHZMIHWgBQSzWAE0qCAnnDtxpm4eyzGUv0ZoaGBsqSB
rzCBrDELMAkGA1UEBhMCVVMxCzAJBgNVBAgTAk9IMREwDwYDVQQHEwhDb2x1bWJ1
czESMBAGA1UEChMJVmlraW5nVlBOMR0wGwYDVQQLExRNeU9yZ2FuaXphdGlvbmFs
VW5pdDEVMBMGA1UEAxMMVmlraW5nVlBOIENBMRAwDgYDVQQpEwdFYXN5UlNBMSEw
HwYJKoZIhvcNAQkBFhJtZUBteWhvc3QubXlkb21haW6CCQDPNYXugL8qPjATBgNV
HSUEDDAKBggrBgEFBQcDAjALBgNVHQ8EBAMCB4AwDQYJKoZIhvcNAQEEBQADggIB
AIqcTrLrVKwO3pJGrsnztNYGbPNVW21gz7iJ++bx+FIKwLSgzwM1P0EvpuaYFehZ
yoNdJGWjQpCepSvygndvwPgEMQRiUUI7A2vLGAhOkBAwip4qTtbmz9pE2SEHM/Bg
cJBKmc4Ge8kkCoUfml78umd2xHKAf6szONTpeZTo9e6WzyAa4cse8A5i89MUfeO3
z5LybhPfkpWXNtlo6ygadiub3qA34xvEwISJhnEGBw9OekTFFd+RuIf1oVOHI8V+
ONAJ/OsGw74TNMcd06GojVX96Yur9uysGq9xv3L7hRSyfYbri6cnGmy0FPdbxDq1
0XNH0hvnwQajpZay8yf6ub1xetjo5rCqFhORU9eYuD7EzgA27JFHbdJpRK4RGZUN
g8wNJu010DU7BL8uAAVDYrZATfLp1D2WT8PapQQ/fI0HeJR7pRdFAIvtXA9RfZ5N
Q8NQadNan7iH1FvEx5T3J8NSkrmbW3jQZ/uLOZcL4/i+MS6T7bY+N5xFRyZpyKO9
PjhZfwnaIE2Aj6cVa5OYrCseyl4l/tczlcvEcS6hpEygGJ5Uhya4SpIh8phGNXOy
ot7W3YaZ76iBj8+L778cLpFi2GLg40YQSEyFtifs6KfI7Kl4wIbq9QOs+kN8lm1g
V2OBDFyH6cvMlw9V1x4RLKqh7Cb2dR0fBQgx7hRcNZOe
-----END CERTIFICATE-----
