Certificate:
    Data:
        Version: 3 (0x2)
        Serial Number: 8011 (0x1f4b)
    Signature Algorithm: md5WithRSAEncryption
        Issuer: C=US, ST=OH, L=Columbus, O=VikingVPN, OU=MyOrganizationalUnit, CN=VikingVPN CA/name=EasyRSA/emailAddress=me@myhost.mydomain
        Validity
            Not Before: May 20 17:14:41 2016 GMT
            Not After : May 18 17:14:41 2026 GMT
        Subject: CN=Client2205Cert950bfe
        Subject Public Key Info:
            Public Key Algorithm: rsaEncryption
                Public-Key: (4096 bit)
                Modulus:
                    00:b4:44:f3:12:50:c2:52:47:c1:e6:e4:b7:9d:aa:
                    28:a3:b5:2e:67:0c:24:19:37:03:18:4b:3e:8c:63:
                    af:c0:e7:3c:29:37:5d:ca:61:2b:64:8a:f5:e0:dc:
                    b8:47:a5:cd:84:ac:24:e6:89:39:02:d4:2e:d3:1b:
                    8c:4c:0d:be:ed:01:f6:54:64:7b:b2:3e:1e:2e:d4:
                    6c:fd:58:9f:ba:7a:7e:52:75:f3:c6:6c:76:62:ad:
                    d9:95:db:8d:33:28:59:98:06:ad:44:cc:d4:b2:8a:
                    40:75:1e:4d:ef:af:96:ef:09:89:90:0f:28:a4:11:
                    9d:c4:ce:f7:f4:1b:0a:9b:37:51:0e:7c:e6:a7:94:
                    dd:33:d5:3c:d9:17:a8:0b:d2:f5:b8:47:b7:ce:c9:
                    b6:9f:90:eb:73:41:59:ba:6b:77:2a:b2:7d:a5:a3:
                    a8:06:6c:c3:f4:d7:f8:de:c7:0f:fe:98:c4:b0:cc:
                    0c:92:d0:bb:1d:9c:e3:7b:24:96:65:54:a3:a4:62:
                    9b:6b:e4:19:9f:57:14:78:f4:ff:31:83:a9:93:f5:
                    ed:33:4c:2b:b6:ea:92:ae:25:52:91:fc:8d:f7:9c:
                    e2:67:88:e0:43:75:03:1c:f7:b0:81:1f:ca:3a:15:
                    1e:03:54:38:95:41:27:d9:69:33:aa:46:8d:ad:e8:
                    7e:b6:91:1f:16:9a:35:80:41:cf:a2:7d:52:80:e2:
                    32:b2:c2:19:98:c2:78:da:52:dc:77:64:b2:45:ed:
                    c1:ed:be:a3:d7:9d:0f:32:9c:86:6f:9b:57:c5:b2:
                    73:ba:5d:f4:7a:70:7c:5b:0d:b6:e8:28:d2:03:8c:
                    8d:8e:52:e6:83:03:36:c1:d6:60:c9:14:ca:b3:ba:
                    f0:0e:d6:ad:8e:92:29:49:ad:7c:3a:b2:d3:87:ce:
                    e7:f1:ca:2a:f6:5e:19:99:dd:f9:0d:7a:b0:d4:68:
                    50:a8:41:30:0f:83:84:1c:72:9e:0d:1e:2d:ab:15:
                    e7:e4:49:8c:09:71:5a:e1:d7:15:9f:5c:01:48:08:
                    8a:d7:bc:e2:65:fd:a2:e6:3b:e6:78:09:61:9f:bb:
                    7b:3c:d7:ec:47:68:16:b8:6a:a4:45:69:c3:c5:a9:
                    35:30:21:b7:46:f9:0f:cd:08:cc:90:8e:b0:a6:79:
                    fd:59:79:21:0f:5b:55:64:2b:a1:06:1e:fa:dc:21:
                    64:e7:3a:16:fa:72:71:9b:db:98:74:a6:2b:af:ad:
                    c6:f1:e2:05:d3:5a:21:97:28:01:4f:e5:28:e5:05:
                    e1:31:2d:0a:67:ec:b4:a5:92:4a:10:70:fa:82:9e:
                    64:a6:f6:70:25:32:01:92:16:f8:df:94:ed:1b:c9:
                    bb:63:37
                Exponent: 65537 (0x10001)
        X509v3 extensions:
            X509v3 Basic Constraints: 
                CA:FALSE
            Netscape Comment: 
                Easy-RSA Generated Certificate
            X509v3 Subject Key Identifier: 
                47:CF:7C:E3:A7:49:D5:79:47:A5:76:A0:87:23:04:53:98:06:E7:D6
            X509v3 Authority Key Identifier: 
                keyid:12:CD:60:04:D2:A0:80:9E:70:ED:C6:99:B8:7B:2C:C6:52:FD:19:A1
                DirName:/C=US/ST=OH/L=Columbus/O=VikingVPN/OU=MyOrganizationalUnit/CN=VikingVPN CA/name=EasyRSA/emailAddress=me@myhost.mydomain
                serial:CF:35:85:EE:80:BF:2A:3E

            X509v3 Extended Key Usage: 
                TLS Web Client Authentication
            X509v3 Key Usage: 
                Digital Signature
    Signature Algorithm: md5WithRSAEncryption
         66:e7:81:37:9a:03:fe:b0:d6:10:27:fd:03:67:56:3e:2f:b3:
         ec:51:a1:a0:60:f4:8e:be:ff:61:77:87:d2:04:2d:5d:d6:02:
         90:68:a3:49:c8:69:87:0c:6a:f3:88:de:49:40:29:98:45:a3:
         dc:8e:48:7d:51:e7:a7:5c:d3:e4:d1:f4:71:a0:35:39:ef:de:
         db:43:db:27:57:c4:fd:72:ea:52:f1:81:25:42:f6:87:af:ef:
         82:e8:5b:b4:01:f1:9d:53:0a:9f:0d:b6:5b:c5:0c:6c:4a:f6:
         2d:91:c2:b9:f3:5a:9c:00:b2:03:0a:ff:51:fd:ef:4f:cc:6f:
         c1:cf:b1:03:b3:45:70:30:70:81:f3:88:28:ee:5a:f2:5b:59:
         bf:34:1a:ee:46:74:16:d1:39:0f:d2:cd:16:fe:14:7c:d5:a4:
         10:40:f7:30:f5:bc:6c:c7:2d:d5:e4:19:cb:03:43:ad:59:30:
         3d:6e:d2:a7:bc:18:46:30:cf:9e:74:37:66:06:23:b3:4f:57:
         0e:87:f2:63:5b:ec:ee:37:3a:88:3b:10:4d:9c:7f:e4:f9:99:
         fa:5d:66:1a:e2:72:05:6f:28:00:29:17:66:6c:10:f0:48:51:
         31:03:25:0e:6f:1a:2f:6a:f8:1d:43:00:35:be:5d:f1:64:60:
         0f:96:bf:30:73:a1:ba:9c:4d:74:c7:87:d0:c2:67:f7:b4:4e:
         a5:a6:0c:59:34:0a:d8:7d:a9:ab:06:f3:4d:a4:93:71:27:75:
         be:bc:1b:21:a8:2f:40:57:ed:df:82:63:fc:85:09:67:23:fe:
         80:3e:06:93:7d:76:90:40:18:59:7a:83:9e:ea:b2:06:7f:ba:
         4a:d5:d9:15:d4:3b:17:6d:d4:cc:a0:7e:8d:b7:43:e3:3b:ab:
         55:46:c3:e5:67:e5:de:7d:d0:0f:96:09:a7:a7:77:72:29:3f:
         fe:d4:f3:41:5c:b5:d6:5e:dd:c5:ff:25:1a:73:c8:26:88:bd:
         9b:1e:1c:37:ae:ce:88:ab:b9:a5:d8:8d:da:44:1a:a6:7f:b2:
         6b:2a:b0:59:5d:1b:bf:85:be:d4:5c:50:bf:20:2a:15:fd:39:
         63:87:3d:53:a2:ec:a4:78:99:bd:58:34:d7:cd:04:6d:64:e7:
         0b:20:ce:2e:28:93:ab:a9:22:f2:14:f2:fe:5a:a1:f4:32:1f:
         dc:dc:e3:0f:c1:e1:60:ae:3f:af:aa:73:64:80:59:21:2f:58:
         21:4f:b3:92:8f:a1:ca:f4:bb:62:07:ef:26:aa:0a:82:cc:a3:
         4b:79:2f:5d:9a:ee:d8:4b:6b:05:da:23:cf:45:91:cc:4d:3b:
         aa:de:83:a9:4e:00:fc:34
-----BEGIN CERTIFICATE-----
MIIGrTCCBJWgAwIBAgICH0swDQYJKoZIhvcNAQEEBQAwgawxCzAJBgNVBAYTAlVT
MQswCQYDVQQIEwJPSDERMA8GA1UEBxMIQ29sdW1idXMxEjAQBgNVBAoTCVZpa2lu
Z1ZQTjEdMBsGA1UECxMUTXlPcmdhbml6YXRpb25hbFVuaXQxFTATBgNVBAMTDFZp
a2luZ1ZQTiBDQTEQMA4GA1UEKRMHRWFzeVJTQTEhMB8GCSqGSIb3DQEJARYSbWVA
bXlob3N0Lm15ZG9tYWluMB4XDTE2MDUyMDE3MTQ0MVoXDTI2MDUxODE3MTQ0MVow
HzEdMBsGA1UEAxMUQ2xpZW50MjIwNUNlcnQ5NTBiZmUwggIiMA0GCSqGSIb3DQEB
AQUAA4ICDwAwggIKAoICAQC0RPMSUMJSR8Hm5LedqiijtS5nDCQZNwMYSz6MY6/A
5zwpN13KYStkivXg3LhHpc2ErCTmiTkC1C7TG4xMDb7tAfZUZHuyPh4u1Gz9WJ+6
en5SdfPGbHZirdmV240zKFmYBq1EzNSyikB1Hk3vr5bvCYmQDyikEZ3Ezvf0Gwqb
N1EOfOanlN0z1TzZF6gL0vW4R7fOybafkOtzQVm6a3cqsn2lo6gGbMP01/jexw/+
mMSwzAyS0LsdnON7JJZlVKOkYptr5BmfVxR49P8xg6mT9e0zTCu26pKuJVKR/I33
nOJniOBDdQMc97CBH8o6FR4DVDiVQSfZaTOqRo2t6H62kR8WmjWAQc+ifVKA4jKy
whmYwnjaUtx3ZLJF7cHtvqPXnQ8ynIZvm1fFsnO6XfR6cHxbDbboKNIDjI2OUuaD
AzbB1mDJFMqzuvAO1q2OkilJrXw6stOHzufxyir2XhmZ3fkNerDUaFCoQTAPg4Qc
cp4NHi2rFefkSYwJcVrh1xWfXAFICIrXvOJl/aLmO+Z4CWGfu3s81+xHaBa4aqRF
acPFqTUwIbdG+Q/NCMyQjrCmef1ZeSEPW1VkK6EGHvrcIWTnOhb6cnGb25h0piuv
rcbx4gXTWiGXKAFP5SjlBeExLQpn7LSlkkoQcPqCnmSm9nAlMgGSFvjflO0bybtj
NwIDAQABo4IBYzCCAV8wCQYDVR0TBAIwADAtBglghkgBhvhCAQ0EIBYeRWFzeS1S
U0EgR2VuZXJhdGVkIENlcnRpZmljYXRlMB0GA1UdDgQWBBRHz3zjp0nVeUeldqCH
IwRTmAbn1jCB4QYDVR0jBIHZMIHWgBQSzWAE0qCAnnDtxpm4eyzGUv0ZoaGBsqSB
rzCBrDELMAkGA1UEBhMCVVMxCzAJBgNVBAgTAk9IMREwDwYDVQQHEwhDb2x1bWJ1
czESMBAGA1UEChMJVmlraW5nVlBOMR0wGwYDVQQLExRNeU9yZ2FuaXphdGlvbmFs
VW5pdDEVMBMGA1UEAxMMVmlraW5nVlBOIENBMRAwDgYDVQQpEwdFYXN5UlNBMSEw
HwYJKoZIhvcNAQkBFhJtZUBteWhvc3QubXlkb21haW6CCQDPNYXugL8qPjATBgNV
HSUEDDAKBggrBgEFBQcDAjALBgNVHQ8EBAMCB4AwDQYJKoZIhvcNAQEEBQADggIB
AGbngTeaA/6w1hAn/QNnVj4vs+xRoaBg9I6+/2F3h9IELV3WApBoo0nIaYcMavOI
3klAKZhFo9yOSH1R56dc0+TR9HGgNTnv3ttD2ydXxP1y6lLxgSVC9oev74LoW7QB
8Z1TCp8NtlvFDGxK9i2RwrnzWpwAsgMK/1H970/Mb8HPsQOzRXAwcIHziCjuWvJb
Wb80Gu5GdBbROQ/SzRb+FHzVpBBA9zD1vGzHLdXkGcsDQ61ZMD1u0qe8GEYwz550
N2YGI7NPVw6H8mNb7O43Oog7EE2cf+T5mfpdZhricgVvKAApF2ZsEPBIUTEDJQ5v
Gi9q+B1DADW+XfFkYA+WvzBzobqcTXTHh9DCZ/e0TqWmDFk0Cth9qasG802kk3En
db68GyGoL0BX7d+CY/yFCWcj/oA+BpN9dpBAGFl6g57qsgZ/ukrV2RXUOxdt1Myg
fo23Q+M7q1VGw+Vn5d590A+WCaend3IpP/7U80FctdZe3cX/JRpzyCaIvZseHDeu
zoiruaXYjdpEGqZ/smsqsFldG7+FvtRcUL8gKhX9OWOHPVOi7KR4mb1YNNfNBG1k
5wsgzi4ok6upIvIU8v5aofQyH9zc4w/B4WCuP6+qc2SAWSEvWCFPs5KPocr0u2IH
7yaqCoLMo0t5L12a7thLawXaI89FkcxNO6reg6lOAPw0
-----END CERTIFICATE-----
