Certificate:
    Data:
        Version: 3 (0x2)
        Serial Number: 8013 (0x1f4d)
    Signature Algorithm: md5WithRSAEncryption
        Issuer: C=US, ST=OH, L=Columbus, O=VikingVPN, OU=MyOrganizationalUnit, CN=VikingVPN CA/name=EasyRSA/emailAddress=me@myhost.mydomain
        Validity
            Not Before: May 20 22:32:04 2016 GMT
            Not After : May 18 22:32:04 2026 GMT
        Subject: CN=Client2205Certfb0a90
        Subject Public Key Info:
            Public Key Algorithm: rsaEncryption
                Public-Key: (4096 bit)
                Modulus:
                    00:af:60:6c:a2:15:1f:74:d0:50:4b:f8:84:5b:c5:
                    81:04:5e:4c:c3:91:39:47:14:ed:d6:57:19:b0:0d:
                    f6:cd:29:11:75:02:74:82:fe:56:75:e8:ae:2f:7e:
                    07:fd:e4:a5:5e:3c:5c:32:2c:b3:7b:e8:10:81:4f:
                    8f:4f:ba:03:d6:f0:b3:a1:04:52:08:06:3c:82:55:
                    19:fc:f9:57:55:ab:f9:5a:68:23:dd:ee:e0:35:ec:
                    7e:aa:d2:75:f8:e0:cb:fe:56:9f:9b:6a:37:24:db:
                    3c:6f:2f:41:96:fa:56:9d:08:2e:3d:eb:8e:52:52:
                    66:86:93:d9:ff:eb:ed:d5:04:34:36:f4:7e:f4:9a:
                    f0:1e:3a:c6:c8:bf:49:05:06:fd:7e:72:fb:07:0e:
                    15:76:10:fd:37:41:4e:e4:02:c3:b5:7c:74:3d:c9:
                    d8:19:4a:39:08:53:1c:bc:df:14:3f:c6:d7:df:f0:
                    47:3d:e8:4b:e0:0b:79:96:62:ec:66:5a:9b:07:56:
                    e5:dc:0d:c0:2c:f4:1b:83:20:3d:a9:a5:c2:69:f5:
                    e9:0b:f3:28:0c:2d:9f:4b:f0:db:59:df:3c:1b:d0:
                    43:45:a1:5b:2e:9b:8d:ba:24:c7:ac:ca:a4:a0:21:
                    42:de:9e:58:2a:ce:3e:97:d9:3e:c9:77:d2:92:59:
                    6b:07:2b:c6:f7:c2:08:8a:1b:f0:e6:dc:81:2e:b2:
                    4a:c6:b0:45:2b:30:f1:61:fe:fd:ce:2b:36:ca:a3:
                    f1:3a:09:ea:38:8a:43:9f:9c:7e:ce:72:f7:41:d1:
                    9a:9a:82:de:56:87:e2:87:e5:c2:73:0b:b1:8c:eb:
                    ac:bb:8f:75:01:0b:f6:de:ea:76:1f:6f:21:59:a5:
                    7e:bf:24:00:4e:e3:64:86:14:b5:b1:16:c7:d2:bc:
                    8e:b0:48:72:9b:62:7e:17:18:ba:53:a0:40:0c:27:
                    1b:a1:aa:55:7d:bd:4c:f2:cc:4e:dc:07:aa:70:90:
                    1c:3e:eb:74:c3:ba:e1:03:cb:53:44:0b:27:db:f1:
                    22:48:12:fa:c0:2f:47:78:9c:f5:54:04:b3:3f:84:
                    de:6a:6d:67:53:7a:09:67:af:ce:8e:e2:a8:20:72:
                    61:2c:98:0f:d7:98:72:0c:c0:ca:d7:8a:61:aa:12:
                    23:ba:52:7b:e4:cb:99:e2:6d:8d:b5:d0:2f:98:99:
                    18:f2:67:d1:c9:fa:b4:8e:b3:5e:34:01:47:5a:eb:
                    72:42:8b:e6:87:95:63:25:46:93:7b:b1:2e:14:da:
                    ae:eb:9f:20:7d:ac:3a:40:29:41:25:34:13:05:18:
                    5c:2f:51:91:93:e0:a9:8e:b8:42:b9:3c:56:d1:23:
                    6c:2b:bb
                Exponent: 65537 (0x10001)
        X509v3 extensions:
            X509v3 Basic Constraints: 
                CA:FALSE
            Netscape Comment: 
                Easy-RSA Generated Certificate
            X509v3 Subject Key Identifier: 
                02:C4:96:CD:E5:B9:5B:EC:AE:3E:49:68:91:A4:08:3B:0A:17:D5:94
            X509v3 Authority Key Identifier: 
                keyid:12:CD:60:04:D2:A0:80:9E:70:ED:C6:99:B8:7B:2C:C6:52:FD:19:A1
                DirName:/C=US/ST=OH/L=Columbus/O=VikingVPN/OU=MyOrganizationalUnit/CN=VikingVPN CA/name=EasyRSA/emailAddress=me@myhost.mydomain
                serial:CF:35:85:EE:80:BF:2A:3E

            X509v3 Extended Key Usage: 
                TLS Web Client Authentication
            X509v3 Key Usage: 
                Digital Signature
    Signature Algorithm: md5WithRSAEncryption
         32:1a:8f:3a:ef:bf:d2:b7:3a:7d:81:24:3a:40:5a:fe:ff:56:
         e8:27:7a:fb:13:71:ba:87:6b:72:f7:c9:68:ef:ab:90:48:c6:
         68:4a:37:d0:44:9a:16:9e:46:2f:c3:46:f9:af:02:bf:f7:bf:
         47:99:15:a0:cf:fa:0f:97:cf:7d:ca:fd:1e:95:5b:11:26:d8:
         af:65:a7:bc:9b:27:27:26:59:42:61:d0:be:70:55:f4:e4:f7:
         8c:82:5d:33:3b:e6:e8:19:a7:22:fa:3b:fa:29:33:19:26:bf:
         c5:c1:66:83:ad:86:10:d9:81:48:8c:a1:f8:fa:a0:9e:43:22:
         1d:38:8d:f4:22:01:76:99:15:8a:32:0d:5c:30:5f:ec:42:7c:
         50:e4:ad:6e:8b:20:41:c2:e3:32:7d:f7:7b:81:df:83:52:5d:
         07:ce:87:08:1c:69:6b:94:78:b9:66:4d:79:6d:7d:74:36:72:
         ba:63:d4:b7:28:76:65:07:6e:c6:da:6c:ac:a7:8a:6d:e4:76:
         10:a4:62:20:60:df:cc:34:3b:c1:cc:28:99:e0:ec:cf:1d:eb:
         3e:af:32:2e:64:a4:15:b2:f2:ab:20:62:23:05:e9:ad:19:be:
         12:5b:76:1f:99:71:4a:8b:d1:32:74:7a:3e:9d:fa:ec:30:3c:
         a0:0d:12:59:3e:05:a6:fb:f9:92:95:ea:ea:8c:ca:1f:8e:e4:
         c9:ae:8c:4b:df:f0:ab:d6:7b:b7:a5:19:bd:4c:c5:b3:6f:36:
         b6:68:86:a8:2d:56:f2:f2:c1:25:7a:f1:3c:64:8c:8e:30:0f:
         6e:57:e5:1a:64:07:df:71:db:ab:85:47:a7:f6:4b:ce:ea:6a:
         4a:bc:81:5c:43:8c:8a:6b:59:84:31:8b:3c:6e:a8:19:0c:29:
         a6:35:db:14:85:b7:76:96:db:fd:ed:96:92:4c:cd:2f:45:5d:
         87:0f:d7:d1:56:a6:f8:90:39:bc:3f:c5:85:14:d9:78:14:ce:
         85:06:75:16:84:45:94:71:42:ee:1f:70:ff:15:6b:12:d7:b0:
         1d:89:d1:bf:87:88:d8:e0:dd:6f:c7:4d:02:fc:9f:1a:28:f9:
         a5:34:05:19:a6:d3:cd:c1:44:2c:12:e5:c2:63:f9:21:0b:66:
         56:a3:6a:9a:16:a0:06:30:a1:fc:8a:bc:58:d7:60:79:e0:a3:
         37:8a:0a:69:d7:c6:27:86:ab:30:d7:2a:fe:12:92:54:f3:a6:
         3c:c4:93:90:8d:df:17:cc:ba:1d:da:18:63:c6:0a:0f:41:61:
         7b:96:40:69:12:73:d9:1b:b1:83:8a:0f:78:d8:c6:e8:02:b6:
         10:9c:34:2f:29:75:58:cf
-----BEGIN CERTIFICATE-----
MIIGrTCCBJWgAwIBAgICH00wDQYJKoZIhvcNAQEEBQAwgawxCzAJBgNVBAYTAlVT
MQswCQYDVQQIEwJPSDERMA8GA1UEBxMIQ29sdW1idXMxEjAQBgNVBAoTCVZpa2lu
Z1ZQTjEdMBsGA1UECxMUTXlPcmdhbml6YXRpb25hbFVuaXQxFTATBgNVBAMTDFZp
a2luZ1ZQTiBDQTEQMA4GA1UEKRMHRWFzeVJTQTEhMB8GCSqGSIb3DQEJARYSbWVA
bXlob3N0Lm15ZG9tYWluMB4XDTE2MDUyMDIyMzIwNFoXDTI2MDUxODIyMzIwNFow
HzEdMBsGA1UEAxMUQ2xpZW50MjIwNUNlcnRmYjBhOTAwggIiMA0GCSqGSIb3DQEB
AQUAA4ICDwAwggIKAoICAQCvYGyiFR900FBL+IRbxYEEXkzDkTlHFO3WVxmwDfbN
KRF1AnSC/lZ16K4vfgf95KVePFwyLLN76BCBT49PugPW8LOhBFIIBjyCVRn8+VdV
q/laaCPd7uA17H6q0nX44Mv+Vp+bajck2zxvL0GW+ladCC49645SUmaGk9n/6+3V
BDQ29H70mvAeOsbIv0kFBv1+cvsHDhV2EP03QU7kAsO1fHQ9ydgZSjkIUxy83xQ/
xtff8Ec96EvgC3mWYuxmWpsHVuXcDcAs9BuDID2ppcJp9ekL8ygMLZ9L8NtZ3zwb
0ENFoVsum426JMesyqSgIULenlgqzj6X2T7Jd9KSWWsHK8b3wgiKG/Dm3IEuskrG
sEUrMPFh/v3OKzbKo/E6Ceo4ikOfnH7OcvdB0Zqagt5Wh+KH5cJzC7GM66y7j3UB
C/be6nYfbyFZpX6/JABO42SGFLWxFsfSvI6wSHKbYn4XGLpToEAMJxuhqlV9vUzy
zE7cB6pwkBw+63TDuuEDy1NECyfb8SJIEvrAL0d4nPVUBLM/hN5qbWdTeglnr86O
4qggcmEsmA/XmHIMwMrXimGqEiO6Unvky5nibY210C+YmRjyZ9HJ+rSOs140AUda
63JCi+aHlWMlRpN7sS4U2q7rnyB9rDpAKUElNBMFGFwvUZGT4KmOuEK5PFbRI2wr
uwIDAQABo4IBYzCCAV8wCQYDVR0TBAIwADAtBglghkgBhvhCAQ0EIBYeRWFzeS1S
U0EgR2VuZXJhdGVkIENlcnRpZmljYXRlMB0GA1UdDgQWBBQCxJbN5blb7K4+SWiR
pAg7ChfVlDCB4QYDVR0jBIHZMIHWgBQSzWAE0qCAnnDtxpm4eyzGUv0ZoaGBsqSB
rzCBrDELMAkGA1UEBhMCVVMxCzAJBgNVBAgTAk9IMREwDwYDVQQHEwhDb2x1bWJ1
czESMBAGA1UEChMJVmlraW5nVlBOMR0wGwYDVQQLExRNeU9yZ2FuaXphdGlvbmFs
VW5pdDEVMBMGA1UEAxMMVmlraW5nVlBOIENBMRAwDgYDVQQpEwdFYXN5UlNBMSEw
HwYJKoZIhvcNAQkBFhJtZUBteWhvc3QubXlkb21haW6CCQDPNYXugL8qPjATBgNV
HSUEDDAKBggrBgEFBQcDAjALBgNVHQ8EBAMCB4AwDQYJKoZIhvcNAQEEBQADggIB
ADIajzrvv9K3On2BJDpAWv7/VugnevsTcbqHa3L3yWjvq5BIxmhKN9BEmhaeRi/D
RvmvAr/3v0eZFaDP+g+Xz33K/R6VWxEm2K9lp7ybJycmWUJh0L5wVfTk94yCXTM7
5ugZpyL6O/opMxkmv8XBZoOthhDZgUiMofj6oJ5DIh04jfQiAXaZFYoyDVwwX+xC
fFDkrW6LIEHC4zJ993uB34NSXQfOhwgcaWuUeLlmTXltfXQ2crpj1LcodmUHbsba
bKynim3kdhCkYiBg38w0O8HMKJng7M8d6z6vMi5kpBWy8qsgYiMF6a0ZvhJbdh+Z
cUqL0TJ0ej6d+uwwPKANElk+Bab7+ZKV6uqMyh+O5MmujEvf8KvWe7elGb1MxbNv
NrZohqgtVvLywSV68TxkjI4wD25X5RpkB99x26uFR6f2S87qakq8gVxDjIprWYQx
izxuqBkMKaY12xSFt3aW2/3tlpJMzS9FXYcP19FWpviQObw/xYUU2XgUzoUGdRaE
RZRxQu4fcP8VaxLXsB2J0b+HiNjg3W/HTQL8nxoo+aU0BRmm083BRCwS5cJj+SEL
ZlajapoWoAYwofyKvFjXYHngozeKCmnXxieGqzDXKv4SklTzpjzEk5CN3xfMuh3a
GGPGCg9BYXuWQGkSc9kbsYOKD3jYxugCthCcNC8pdVjP
-----END CERTIFICATE-----
