Certificate:
    Data:
        Version: 3 (0x2)
        Serial Number: 8022 (0x1f56)
    Signature Algorithm: md5WithRSAEncryption
        Issuer: C=US, ST=OH, L=Columbus, O=VikingVPN, OU=MyOrganizationalUnit, CN=VikingVPN CA/name=EasyRSA/emailAddress=me@myhost.mydomain
        Validity
            Not Before: May 21 22:45:44 2016 GMT
            Not After : May 19 22:45:44 2026 GMT
        Subject: CN=Client2205Certa4f6b3
        Subject Public Key Info:
            Public Key Algorithm: rsaEncryption
                Public-Key: (4096 bit)
                Modulus:
                    00:9e:a7:97:9b:a4:8a:f0:b4:68:7f:44:b3:dc:a8:
                    6c:96:2c:8c:77:7c:8c:49:10:8a:66:9d:88:61:88:
                    e2:52:83:d8:e5:94:df:aa:d3:13:7f:84:19:07:77:
                    9f:86:43:b4:5c:4e:0e:ef:4a:a2:95:0c:53:81:05:
                    00:ed:d1:ff:57:64:43:7d:23:85:db:5d:32:bc:64:
                    07:aa:51:b8:be:84:a2:e7:00:51:34:f8:ae:33:f3:
                    3a:82:19:a2:ee:00:b9:0c:6e:39:62:59:90:29:dd:
                    03:85:c9:14:58:7a:7f:df:c0:df:7a:f6:34:34:59:
                    67:99:a0:0c:e6:4c:e9:af:d5:50:dd:2b:49:d3:a1:
                    42:1c:5a:ef:d7:13:2d:ab:15:27:23:bc:4a:86:70:
                    00:dc:6f:3c:72:f6:b9:bc:77:d2:d1:10:03:49:bd:
                    fd:a0:4c:27:e7:83:38:1f:2d:52:b8:3f:e3:79:8e:
                    67:03:9a:02:e7:ac:79:c6:59:12:51:d4:f3:84:c5:
                    e9:ff:39:12:4a:5d:c9:6f:b0:9c:a6:6b:77:db:15:
                    58:34:fe:b7:f2:47:63:a4:e3:aa:c8:36:1f:f0:15:
                    35:aa:69:a7:e9:8e:4b:0c:57:27:5d:f1:68:27:ef:
                    7d:73:e2:f5:9b:ee:da:ff:70:f1:00:b8:9e:64:d8:
                    8f:e7:65:0a:30:42:84:63:d0:9b:60:44:b3:13:d4:
                    be:c5:c1:a8:7d:06:26:36:95:02:3e:44:77:dc:f4:
                    a8:99:1e:c7:72:3a:5f:20:3c:71:0e:f0:9e:cb:83:
                    57:c3:77:c8:8b:a0:51:17:dd:4c:10:1d:ee:a5:35:
                    6f:ac:57:ab:d6:7f:e8:dc:eb:dd:fa:c3:9e:46:9e:
                    37:92:0e:ba:4d:59:1b:36:b2:d6:cb:3a:cf:b5:5c:
                    9d:69:7e:e5:71:b5:59:b1:4c:94:fb:7f:e4:8e:b9:
                    ba:a0:2c:3e:f4:93:6f:6f:d3:b0:b4:de:8d:7a:17:
                    e3:ee:78:06:c8:28:69:d6:56:4f:0f:b6:07:f1:1b:
                    0f:e4:bf:f7:1e:18:f9:37:fa:7a:bf:c5:3d:f1:a6:
                    11:21:80:39:d7:e0:a1:cf:2e:80:ae:1e:82:68:3e:
                    b3:b2:84:fc:03:0a:5e:21:00:c4:4d:12:86:c8:15:
                    ee:64:35:fa:2a:ca:4a:e7:df:29:01:cb:53:11:59:
                    5d:0f:1b:e8:00:c2:05:bb:dd:aa:d6:1c:81:95:9f:
                    ae:9e:70:a2:f8:29:b0:c3:bd:66:65:d6:10:4d:6f:
                    15:07:05:a2:b8:fd:9a:aa:e9:3b:22:bc:5b:7d:44:
                    71:65:ac:b4:94:e4:c2:50:c0:a1:6c:00:99:37:2e:
                    77:a9:21
                Exponent: 65537 (0x10001)
        X509v3 extensions:
            X509v3 Basic Constraints: 
                CA:FALSE
            Netscape Comment: 
                Easy-RSA Generated Certificate
            X509v3 Subject Key Identifier: 
                37:1B:3B:F3:FB:3C:5C:E1:FD:91:4F:9E:38:6F:54:A1:64:E5:6B:B2
            X509v3 Authority Key Identifier: 
                keyid:12:CD:60:04:D2:A0:80:9E:70:ED:C6:99:B8:7B:2C:C6:52:FD:19:A1
                DirName:/C=US/ST=OH/L=Columbus/O=VikingVPN/OU=MyOrganizationalUnit/CN=VikingVPN CA/name=EasyRSA/emailAddress=me@myhost.mydomain
                serial:CF:35:85:EE:80:BF:2A:3E

            X509v3 Extended Key Usage: 
                TLS Web Client Authentication
            X509v3 Key Usage: 
                Digital Signature
    Signature Algorithm: md5WithRSAEncryption
         aa:bf:20:36:e9:b5:7f:2c:6a:d5:d0:de:00:62:28:52:2c:a1:
         5d:70:38:57:69:97:95:8f:0a:42:eb:3b:2d:b2:cb:1d:82:f2:
         84:cf:97:ea:f8:4b:10:89:0b:72:b8:89:f9:f4:5e:22:d4:20:
         ff:85:ad:ee:05:94:16:95:50:71:09:65:2d:c6:d4:98:be:c0:
         b9:77:63:aa:30:6a:4c:d9:5d:3c:07:18:63:8e:2b:3a:9e:e2:
         be:12:86:14:51:90:bd:fe:8b:e4:03:f2:fa:b6:68:d0:f9:97:
         d5:fa:4f:b3:95:6b:00:9e:df:08:4b:2c:ba:43:80:f2:a2:af:
         f5:18:92:46:93:85:77:ac:c0:36:1a:01:cb:2e:e6:51:07:ca:
         7b:29:d0:11:91:3d:80:1e:c1:30:3d:6a:0c:df:f8:e5:c6:2b:
         ca:d6:db:14:1e:68:94:7e:c4:56:cb:81:41:11:03:0a:3b:d8:
         3e:0a:11:5c:c9:04:66:4a:de:7d:ef:ba:2e:40:47:d1:87:dc:
         77:90:bb:66:81:74:a0:77:d8:8e:8c:9e:6e:e3:3b:73:7b:b6:
         95:56:88:87:02:f5:97:89:e9:b3:19:1d:01:72:c3:f9:f5:8e:
         21:36:68:40:88:43:12:0b:d4:db:d0:bd:40:c3:d6:39:47:80:
         20:30:c4:1c:4d:c8:96:76:a3:00:94:8d:fb:96:ae:df:02:69:
         2b:1d:0a:1c:17:69:cd:b0:21:b0:aa:9c:04:d0:a8:42:a8:08:
         45:e1:99:70:b8:cc:77:a8:94:fe:1d:37:d3:ac:1a:d7:5e:0c:
         33:72:4f:a7:5b:d4:a8:ca:08:02:9d:42:68:77:55:53:ad:66:
         cb:69:2f:3e:63:09:fb:3e:74:ea:04:7d:6d:cb:15:64:29:b8:
         8e:e1:f2:ca:27:07:4d:24:2b:3e:36:81:dc:58:8d:46:d0:31:
         0d:77:05:2f:3b:26:f4:95:fb:52:14:a4:05:11:24:af:06:88:
         30:bf:aa:f6:bf:8d:63:94:75:f0:63:c9:44:dc:25:16:a2:18:
         e3:69:73:26:94:3f:4a:da:42:e3:01:a0:b0:cf:83:9a:41:b0:
         66:73:89:15:06:3f:45:a2:f9:c6:8d:3a:d8:d0:59:6b:d9:bb:
         80:3d:10:45:8c:07:12:3a:80:6e:45:61:63:fc:a3:c7:96:10:
         a9:73:28:f7:cf:f1:45:a5:76:1c:8d:6e:d6:54:af:43:34:ab:
         5a:97:0f:12:89:b5:e2:81:19:31:4b:b3:d3:17:9a:93:46:17:
         ea:1e:7c:5b:9d:b0:f5:2e:c5:2d:7d:81:2d:00:8d:e3:9e:b5:
         3c:9e:4c:05:22:2e:88:ab
-----BEGIN CERTIFICATE-----
MIIGrTCCBJWgAwIBAgICH1YwDQYJKoZIhvcNAQEEBQAwgawxCzAJBgNVBAYTAlVT
MQswCQYDVQQIEwJPSDERMA8GA1UEBxMIQ29sdW1idXMxEjAQBgNVBAoTCVZpa2lu
Z1ZQTjEdMBsGA1UECxMUTXlPcmdhbml6YXRpb25hbFVuaXQxFTATBgNVBAMTDFZp
a2luZ1ZQTiBDQTEQMA4GA1UEKRMHRWFzeVJTQTEhMB8GCSqGSIb3DQEJARYSbWVA
bXlob3N0Lm15ZG9tYWluMB4XDTE2MDUyMTIyNDU0NFoXDTI2MDUxOTIyNDU0NFow
HzEdMBsGA1UEAxMUQ2xpZW50MjIwNUNlcnRhNGY2YjMwggIiMA0GCSqGSIb3DQEB
AQUAA4ICDwAwggIKAoICAQCep5ebpIrwtGh/RLPcqGyWLIx3fIxJEIpmnYhhiOJS
g9jllN+q0xN/hBkHd5+GQ7RcTg7vSqKVDFOBBQDt0f9XZEN9I4XbXTK8ZAeqUbi+
hKLnAFE0+K4z8zqCGaLuALkMbjliWZAp3QOFyRRYen/fwN969jQ0WWeZoAzmTOmv
1VDdK0nToUIcWu/XEy2rFScjvEqGcADcbzxy9rm8d9LREANJvf2gTCfngzgfLVK4
P+N5jmcDmgLnrHnGWRJR1POExen/ORJKXclvsJyma3fbFVg0/rfyR2Ok46rINh/w
FTWqaafpjksMVydd8Wgn731z4vWb7tr/cPEAuJ5k2I/nZQowQoRj0JtgRLMT1L7F
wah9BiY2lQI+RHfc9KiZHsdyOl8gPHEO8J7Lg1fDd8iLoFEX3UwQHe6lNW+sV6vW
f+jc6936w55GnjeSDrpNWRs2stbLOs+1XJ1pfuVxtVmxTJT7f+SOubqgLD70k29v
07C03o16F+PueAbIKGnWVk8PtgfxGw/kv/ceGPk3+nq/xT3xphEhgDnX4KHPLoCu
HoJoPrOyhPwDCl4hAMRNEobIFe5kNfoqykrn3ykBy1MRWV0PG+gAwgW73arWHIGV
n66ecKL4KbDDvWZl1hBNbxUHBaK4/Zqq6TsivFt9RHFlrLSU5MJQwKFsAJk3Lnep
IQIDAQABo4IBYzCCAV8wCQYDVR0TBAIwADAtBglghkgBhvhCAQ0EIBYeRWFzeS1S
U0EgR2VuZXJhdGVkIENlcnRpZmljYXRlMB0GA1UdDgQWBBQ3Gzvz+zxc4f2RT544
b1ShZOVrsjCB4QYDVR0jBIHZMIHWgBQSzWAE0qCAnnDtxpm4eyzGUv0ZoaGBsqSB
rzCBrDELMAkGA1UEBhMCVVMxCzAJBgNVBAgTAk9IMREwDwYDVQQHEwhDb2x1bWJ1
czESMBAGA1UEChMJVmlraW5nVlBOMR0wGwYDVQQLExRNeU9yZ2FuaXphdGlvbmFs
VW5pdDEVMBMGA1UEAxMMVmlraW5nVlBOIENBMRAwDgYDVQQpEwdFYXN5UlNBMSEw
HwYJKoZIhvcNAQkBFhJtZUBteWhvc3QubXlkb21haW6CCQDPNYXugL8qPjATBgNV
HSUEDDAKBggrBgEFBQcDAjALBgNVHQ8EBAMCB4AwDQYJKoZIhvcNAQEEBQADggIB
AKq/IDbptX8satXQ3gBiKFIsoV1wOFdpl5WPCkLrOy2yyx2C8oTPl+r4SxCJC3K4
ifn0XiLUIP+Fre4FlBaVUHEJZS3G1Ji+wLl3Y6owakzZXTwHGGOOKzqe4r4ShhRR
kL3+i+QD8vq2aND5l9X6T7OVawCe3whLLLpDgPKir/UYkkaThXeswDYaAcsu5lEH
ynsp0BGRPYAewTA9agzf+OXGK8rW2xQeaJR+xFbLgUERAwo72D4KEVzJBGZK3n3v
ui5AR9GH3HeQu2aBdKB32I6Mnm7jO3N7tpVWiIcC9ZeJ6bMZHQFyw/n1jiE2aECI
QxIL1NvQvUDD1jlHgCAwxBxNyJZ2owCUjfuWrt8CaSsdChwXac2wIbCqnATQqEKo
CEXhmXC4zHeolP4dN9OsGtdeDDNyT6db1KjKCAKdQmh3VVOtZstpLz5jCfs+dOoE
fW3LFWQpuI7h8sonB00kKz42gdxYjUbQMQ13BS87JvSV+1IUpAURJK8GiDC/qva/
jWOUdfBjyUTcJRaiGONpcyaUP0raQuMBoLDPg5pBsGZziRUGP0Wi+caNOtjQWWvZ
u4A9EEWMBxI6gG5FYWP8o8eWEKlzKPfP8UWldhyNbtZUr0M0q1qXDxKJteKBGTFL
s9MXmpNGF+oefFudsPUuxS19gS0AjeOetTyeTAUiLoir
-----END CERTIFICATE-----
