Certificate:
    Data:
        Version: 3 (0x2)
        Serial Number: 8026 (0x1f5a)
    Signature Algorithm: md5WithRSAEncryption
        Issuer: C=US, ST=OH, L=Columbus, O=VikingVPN, OU=MyOrganizationalUnit, CN=VikingVPN CA/name=EasyRSA/emailAddress=me@myhost.mydomain
        Validity
            Not Before: May 22 13:59:39 2016 GMT
            Not After : May 20 13:59:39 2026 GMT
        Subject: CN=Client2306Certf968cc
        Subject Public Key Info:
            Public Key Algorithm: rsaEncryption
                Public-Key: (4096 bit)
                Modulus:
                    00:da:0c:ce:2f:2b:57:4b:f1:ce:32:43:06:e4:d5:
                    c1:ad:c9:0b:d5:47:b6:7b:22:ef:00:ed:0d:f8:02:
                    ea:b9:3c:39:b3:f3:7c:41:e7:64:d0:81:d0:6c:c5:
                    e4:bf:03:27:74:19:f0:7e:16:19:67:1b:af:64:86:
                    78:7c:36:26:ad:59:ce:d6:dd:27:b7:65:1a:cb:39:
                    15:6b:96:8d:a8:8d:6f:c6:a0:e4:55:d2:54:79:05:
                    1d:95:88:95:c1:92:53:a9:8d:c7:c7:69:e5:72:30:
                    56:d0:8e:2d:eb:af:24:62:cd:0f:2d:a9:7c:2d:9a:
                    96:1f:91:a8:e6:81:69:7a:09:6f:e7:97:47:4a:ff:
                    52:dd:e8:2b:43:d5:d2:c9:b9:04:7c:33:25:86:a9:
                    81:aa:e2:db:04:ed:5f:cf:3e:31:09:75:8c:47:53:
                    5b:8b:13:67:30:3f:7d:46:d4:89:87:0c:36:7b:73:
                    85:d3:b5:37:d2:b2:84:9d:af:8b:9e:83:38:86:10:
                    f0:c4:54:9c:97:b7:26:1d:a6:6d:8b:24:a6:1e:ba:
                    26:26:e7:f9:65:a0:c7:c7:58:ac:f6:22:d1:03:83:
                    04:64:3c:11:a5:57:26:2f:64:b0:aa:d1:7c:6e:53:
                    4c:5d:bc:75:b7:5a:74:e7:51:1d:be:65:25:9b:3b:
                    b1:5e:f5:e1:1d:67:65:a4:f9:a8:06:f9:18:cd:57:
                    e2:06:d8:1a:d3:0a:ba:27:10:30:29:20:a6:e6:72:
                    e0:b9:e8:93:92:63:61:1b:d9:ec:a3:6e:b5:47:0e:
                    69:ec:34:24:60:ec:a2:0c:9e:46:51:78:ee:2f:43:
                    66:47:8c:e2:c4:0d:8a:0b:5b:0d:4c:e2:46:84:6d:
                    f4:76:ca:fc:48:d6:ad:3c:f5:7c:a6:7d:36:e6:6f:
                    7f:e0:34:98:03:59:76:f7:92:68:7d:5d:6c:0b:90:
                    75:e3:2c:d3:e9:24:d9:4e:ea:0f:f4:2b:ca:cf:c3:
                    5d:25:d2:95:35:13:53:8d:d2:9f:c2:8e:16:8c:cd:
                    9a:9b:1a:fc:74:24:40:35:f5:c3:0e:74:08:67:1c:
                    ac:b2:fe:71:3d:e0:ca:66:a4:36:79:e4:da:d3:38:
                    be:98:ab:9d:79:f8:47:7a:f0:5b:0a:ce:80:c7:e1:
                    83:09:09:87:0e:0a:5b:94:92:a3:2d:23:3b:1e:a7:
                    5d:ad:5f:52:29:d6:84:e0:f2:45:b4:c0:22:54:2e:
                    8f:e3:b7:b0:5e:d8:3d:23:5b:1b:80:5e:ee:a5:2d:
                    38:63:77:26:f1:be:ec:03:f1:73:db:69:17:88:3c:
                    38:30:45:cb:c8:77:99:c2:8d:93:b5:71:5a:8d:6b:
                    80:45:a9
                Exponent: 65537 (0x10001)
        X509v3 extensions:
            X509v3 Basic Constraints: 
                CA:FALSE
            Netscape Comment: 
                Easy-RSA Generated Certificate
            X509v3 Subject Key Identifier: 
                48:81:05:61:4F:D4:25:61:C1:10:C0:7E:29:2B:D5:54:B4:55:8B:1D
            X509v3 Authority Key Identifier: 
                keyid:12:CD:60:04:D2:A0:80:9E:70:ED:C6:99:B8:7B:2C:C6:52:FD:19:A1
                DirName:/C=US/ST=OH/L=Columbus/O=VikingVPN/OU=MyOrganizationalUnit/CN=VikingVPN CA/name=EasyRSA/emailAddress=me@myhost.mydomain
                serial:CF:35:85:EE:80:BF:2A:3E

            X509v3 Extended Key Usage: 
                TLS Web Client Authentication
            X509v3 Key Usage: 
                Digital Signature
    Signature Algorithm: md5WithRSAEncryption
         65:ec:5e:ff:82:36:b4:13:25:a3:a7:c8:49:d2:9c:2a:86:0d:
         57:c8:4c:91:4a:e1:26:f0:59:22:61:45:e8:57:76:28:7f:9f:
         46:0a:5c:58:cd:49:0e:de:46:e8:21:5d:68:8e:18:0e:7e:ea:
         39:13:d9:27:e1:0b:fb:39:38:56:a0:10:5c:f7:1d:66:98:47:
         81:4b:3d:74:81:5b:5d:c7:2a:b7:2f:d4:d5:cf:04:86:28:d9:
         93:10:2a:9f:e7:22:53:b6:18:1a:ea:7f:0d:98:fc:4c:e7:4f:
         95:85:d6:bd:93:41:79:be:62:16:94:9f:74:3f:98:56:30:45:
         35:72:32:33:45:ec:62:6d:90:aa:d4:dd:cc:fc:66:de:7c:8e:
         99:24:72:b3:f7:05:8e:18:a4:7d:58:6c:2e:a6:d8:39:d2:e7:
         ed:d7:41:31:bf:46:c1:eb:80:5c:58:0c:4e:2a:84:b6:6b:e3:
         25:9c:c2:07:e7:97:53:92:02:7e:55:ef:df:77:63:08:0d:01:
         f0:a0:b9:54:6e:7c:2f:81:ef:db:2c:6d:40:49:27:50:b4:4c:
         41:b7:70:f3:13:ac:a2:01:11:2c:f8:3b:9a:bd:fe:09:89:8d:
         8b:43:0c:f9:70:af:15:13:8d:d1:27:43:e1:3a:76:68:d4:10:
         0b:e6:b4:ee:7d:cc:b3:b6:62:2d:b7:a3:d3:ba:a6:94:45:20:
         ef:f4:3d:88:c1:e0:e3:c6:2a:79:db:6b:df:86:cf:f3:9b:c1:
         2c:de:61:39:31:81:2e:be:86:46:5d:b3:3c:b2:66:60:79:3f:
         a5:07:d3:60:57:ed:88:93:4a:d7:e4:48:08:be:f3:60:8f:c1:
         46:21:31:b3:90:cf:91:7a:b6:71:97:42:5b:49:e9:37:3c:3d:
         4c:88:8a:11:46:a2:11:ed:8c:d2:7f:c3:77:ef:03:93:e7:65:
         48:d5:d3:1f:f6:51:bc:4f:1c:bf:88:d2:52:9c:57:56:ca:0d:
         2b:ee:9b:20:bc:a0:67:fd:1f:47:01:6d:2d:a1:2c:32:c1:5d:
         ff:69:93:4f:51:19:3a:99:5f:3f:f7:54:77:12:fb:78:a5:55:
         7d:34:1e:d5:1d:d2:a5:37:6b:fb:e6:0a:2a:a2:85:0b:34:bc:
         58:68:d9:14:dc:38:77:79:41:d1:5c:77:21:b8:22:ac:9d:3b:
         a2:08:b6:e4:b6:bc:91:eb:11:92:93:53:9e:3b:98:ee:96:a7:
         af:02:e4:51:d9:e7:e6:5b:e6:2b:d6:4a:01:db:28:b1:46:f8:
         96:de:3b:0d:23:42:22:01:55:96:68:80:53:18:8d:95:b0:7b:
         c9:8a:19:99:0f:a8:d1:cc
-----BEGIN CERTIFICATE-----
MIIGrTCCBJWgAwIBAgICH1owDQYJKoZIhvcNAQEEBQAwgawxCzAJBgNVBAYTAlVT
MQswCQYDVQQIEwJPSDERMA8GA1UEBxMIQ29sdW1idXMxEjAQBgNVBAoTCVZpa2lu
Z1ZQTjEdMBsGA1UECxMUTXlPcmdhbml6YXRpb25hbFVuaXQxFTATBgNVBAMTDFZp
a2luZ1ZQTiBDQTEQMA4GA1UEKRMHRWFzeVJTQTEhMB8GCSqGSIb3DQEJARYSbWVA
bXlob3N0Lm15ZG9tYWluMB4XDTE2MDUyMjEzNTkzOVoXDTI2MDUyMDEzNTkzOVow
HzEdMBsGA1UEAxMUQ2xpZW50MjMwNkNlcnRmOTY4Y2MwggIiMA0GCSqGSIb3DQEB
AQUAA4ICDwAwggIKAoICAQDaDM4vK1dL8c4yQwbk1cGtyQvVR7Z7Iu8A7Q34Auq5
PDmz83xB52TQgdBsxeS/Ayd0GfB+FhlnG69khnh8NiatWc7W3Se3ZRrLORVrlo2o
jW/GoORV0lR5BR2ViJXBklOpjcfHaeVyMFbQji3rryRizQ8tqXwtmpYfkajmgWl6
CW/nl0dK/1Ld6CtD1dLJuQR8MyWGqYGq4tsE7V/PPjEJdYxHU1uLE2cwP31G1ImH
DDZ7c4XTtTfSsoSdr4uegziGEPDEVJyXtyYdpm2LJKYeuiYm5/lloMfHWKz2ItED
gwRkPBGlVyYvZLCq0XxuU0xdvHW3WnTnUR2+ZSWbO7Fe9eEdZ2Wk+agG+RjNV+IG
2BrTCronEDApIKbmcuC56JOSY2Eb2eyjbrVHDmnsNCRg7KIMnkZReO4vQ2ZHjOLE
DYoLWw1M4kaEbfR2yvxI1q089XymfTbmb3/gNJgDWXb3kmh9XWwLkHXjLNPpJNlO
6g/0K8rPw10l0pU1E1ON0p/CjhaMzZqbGvx0JEA19cMOdAhnHKyy/nE94MpmpDZ5
5NrTOL6Yq515+Ed68FsKzoDH4YMJCYcOCluUkqMtIzsep12tX1Ip1oTg8kW0wCJU
Lo/jt7Be2D0jWxuAXu6lLThjdybxvuwD8XPbaReIPDgwRcvId5nCjZO1cVqNa4BF
qQIDAQABo4IBYzCCAV8wCQYDVR0TBAIwADAtBglghkgBhvhCAQ0EIBYeRWFzeS1S
U0EgR2VuZXJhdGVkIENlcnRpZmljYXRlMB0GA1UdDgQWBBRIgQVhT9QlYcEQwH4p
K9VUtFWLHTCB4QYDVR0jBIHZMIHWgBQSzWAE0qCAnnDtxpm4eyzGUv0ZoaGBsqSB
rzCBrDELMAkGA1UEBhMCVVMxCzAJBgNVBAgTAk9IMREwDwYDVQQHEwhDb2x1bWJ1
czESMBAGA1UEChMJVmlraW5nVlBOMR0wGwYDVQQLExRNeU9yZ2FuaXphdGlvbmFs
VW5pdDEVMBMGA1UEAxMMVmlraW5nVlBOIENBMRAwDgYDVQQpEwdFYXN5UlNBMSEw
HwYJKoZIhvcNAQkBFhJtZUBteWhvc3QubXlkb21haW6CCQDPNYXugL8qPjATBgNV
HSUEDDAKBggrBgEFBQcDAjALBgNVHQ8EBAMCB4AwDQYJKoZIhvcNAQEEBQADggIB
AGXsXv+CNrQTJaOnyEnSnCqGDVfITJFK4SbwWSJhRehXdih/n0YKXFjNSQ7eRugh
XWiOGA5+6jkT2SfhC/s5OFagEFz3HWaYR4FLPXSBW13HKrcv1NXPBIYo2ZMQKp/n
IlO2GBrqfw2Y/EznT5WF1r2TQXm+YhaUn3Q/mFYwRTVyMjNF7GJtkKrU3cz8Zt58
jpkkcrP3BY4YpH1YbC6m2DnS5+3XQTG/RsHrgFxYDE4qhLZr4yWcwgfnl1OSAn5V
7993YwgNAfCguVRufC+B79ssbUBJJ1C0TEG3cPMTrKIBESz4O5q9/gmJjYtDDPlw
rxUTjdEnQ+E6dmjUEAvmtO59zLO2Yi23o9O6ppRFIO/0PYjB4OPGKnnba9+Gz/Ob
wSzeYTkxgS6+hkZdszyyZmB5P6UH02BX7YiTStfkSAi+82CPwUYhMbOQz5F6tnGX
QltJ6Tc8PUyIihFGohHtjNJ/w3fvA5PnZUjV0x/2UbxPHL+I0lKcV1bKDSvumyC8
oGf9H0cBbS2hLDLBXf9pk09RGTqZXz/3VHcS+3ilVX00HtUd0qU3a/vmCiqihQs0
vFho2RTcOHd5QdFcdyG4IqydO6IItuS2vJHrEZKTU547mO6Wp68C5FHZ5+Zb5ivW
SgHbKLFG+JbeOw0jQiIBVZZogFMYjZWwe8mKGZkPqNHM
-----END CERTIFICATE-----
