Certificate:
    Data:
        Version: 3 (0x2)
        Serial Number: 8029 (0x1f5d)
    Signature Algorithm: md5WithRSAEncryption
        Issuer: C=US, ST=OH, L=Columbus, O=VikingVPN, OU=MyOrganizationalUnit, CN=VikingVPN CA/name=EasyRSA/emailAddress=me@myhost.mydomain
        Validity
            Not Before: May 22 20:57:17 2016 GMT
            Not After : May 20 20:57:17 2026 GMT
        Subject: CN=Client1736Cert245a6d
        Subject Public Key Info:
            Public Key Algorithm: rsaEncryption
                Public-Key: (4096 bit)
                Modulus:
                    00:dc:85:24:39:ea:5d:c7:12:d5:74:6c:10:b8:9c:
                    52:8e:01:71:92:a2:6f:85:76:5b:49:aa:dd:71:9a:
                    a9:20:f1:9b:3a:0c:7c:0d:91:8c:17:47:a3:d8:cd:
                    08:f9:b1:d6:f7:e2:77:54:8a:1c:7e:17:d7:f6:86:
                    e8:a9:80:10:aa:3b:1a:92:db:9c:03:48:32:38:d6:
                    a6:e9:22:16:42:56:91:32:6e:62:fa:c2:59:3a:cb:
                    cd:37:c0:e4:a2:1c:aa:0b:2d:6a:cd:c6:58:29:6e:
                    95:25:56:2d:6e:f8:7e:61:48:22:9f:0c:a3:30:63:
                    36:56:82:82:ce:15:21:f8:bd:7d:3d:80:b9:82:77:
                    38:b1:20:02:82:17:3f:6d:94:3d:ef:77:8d:f8:42:
                    33:60:f8:8c:a0:e3:bd:05:3f:9b:62:bd:ed:84:c8:
                    2a:64:15:88:3c:9e:90:b4:01:36:d2:fc:09:ac:d5:
                    f1:f8:9d:77:39:8b:15:50:ac:ff:fb:64:34:f0:1b:
                    d2:f4:4c:e5:0a:76:ca:ca:55:89:f1:33:d3:9a:66:
                    87:70:e6:5d:5d:fc:58:b3:40:3c:c7:7d:af:6c:a3:
                    9f:84:60:fd:4d:43:b3:d3:ea:65:e3:c3:65:3d:df:
                    45:0e:24:17:53:2e:ac:5b:2d:4f:e3:96:86:2c:04:
                    b4:fc:54:b6:e3:50:ff:9e:7f:80:e6:ea:3d:19:bf:
                    3e:b0:72:15:53:29:0b:aa:e2:ee:ab:af:f1:2a:cd:
                    2b:a1:b6:b8:0a:f0:06:ba:a8:8c:77:51:47:04:60:
                    00:e3:13:49:24:e9:d8:cf:0c:fd:53:dc:ac:d1:ea:
                    8f:3e:dc:0d:15:00:b6:a9:e5:bd:5a:f9:7c:98:44:
                    84:26:f7:4e:72:9f:9b:db:58:51:7f:e3:27:7a:5b:
                    aa:f2:b0:d0:05:2b:5e:24:38:3e:a3:60:f0:84:f3:
                    45:a5:b5:9a:9a:50:c5:3a:79:01:69:bb:8d:49:de:
                    33:ec:3f:34:95:78:3f:74:3b:74:98:b1:7c:e4:21:
                    3f:c0:8a:9d:59:a0:56:3a:7a:ca:d1:41:f9:e8:5f:
                    d7:b7:e2:5e:f0:e8:eb:34:fe:6a:b1:29:59:76:86:
                    b0:6e:c8:1f:21:74:7b:54:31:18:b4:a3:33:d2:ab:
                    1f:28:1e:ca:17:ea:41:54:dc:4d:ac:b0:91:56:7f:
                    dd:36:50:df:ac:9a:04:de:fb:10:ca:38:2d:33:ed:
                    d5:8d:9e:b9:2a:9e:d9:09:9f:88:7e:c5:17:ee:2d:
                    a8:70:3b:e9:87:04:5a:c9:d5:29:a0:6a:18:ce:21:
                    40:b9:07:f0:2b:7c:b6:f5:71:97:55:2c:d3:32:16:
                    32:4c:f9
                Exponent: 65537 (0x10001)
        X509v3 extensions:
            X509v3 Basic Constraints: 
                CA:FALSE
            Netscape Comment: 
                Easy-RSA Generated Certificate
            X509v3 Subject Key Identifier: 
                06:5A:E7:8D:06:68:1A:B8:9B:49:25:5B:93:D1:C4:C0:42:81:0D:BF
            X509v3 Authority Key Identifier: 
                keyid:12:CD:60:04:D2:A0:80:9E:70:ED:C6:99:B8:7B:2C:C6:52:FD:19:A1
                DirName:/C=US/ST=OH/L=Columbus/O=VikingVPN/OU=MyOrganizationalUnit/CN=VikingVPN CA/name=EasyRSA/emailAddress=me@myhost.mydomain
                serial:CF:35:85:EE:80:BF:2A:3E

            X509v3 Extended Key Usage: 
                TLS Web Client Authentication
            X509v3 Key Usage: 
                Digital Signature
    Signature Algorithm: md5WithRSAEncryption
         11:5b:83:08:85:d2:ea:71:61:a2:12:64:18:42:b0:ba:db:f4:
         14:83:45:6a:9f:1a:92:b3:3e:40:9e:5d:a8:86:3c:12:3f:7d:
         62:86:5b:16:b8:82:cc:d1:a6:f1:a3:e6:2b:8a:87:9e:0b:ca:
         40:b1:70:25:62:4a:6f:5a:12:e3:1a:b7:45:a5:cf:7b:d9:a0:
         0f:a9:5d:f4:5d:09:02:af:8b:ad:c4:54:e9:a6:49:1d:1d:d0:
         7c:b7:4b:44:a0:0e:b5:29:85:c8:98:a4:d4:10:d9:37:49:a9:
         fc:b6:fb:02:0f:5e:34:8b:e7:86:ce:58:67:e5:01:54:10:85:
         30:40:5d:2b:1d:14:71:63:39:d2:74:96:74:b7:66:c0:3b:af:
         79:0b:0b:57:03:6c:71:aa:d1:45:46:8d:ae:4b:5f:31:ce:f3:
         25:97:0c:5c:8b:21:54:88:4c:0a:a8:93:92:31:51:8c:43:1d:
         df:61:01:3c:14:21:a2:bf:2a:62:36:1f:7e:1f:84:f4:cb:08:
         9b:f3:4f:76:8a:83:5f:02:9c:a1:9b:0b:86:d5:7c:59:14:7b:
         45:02:30:ae:f9:59:e4:19:99:25:fe:47:62:e1:9e:a5:34:9f:
         83:9e:8e:3e:35:59:1f:18:e1:7e:8e:e7:0d:e6:15:48:32:d4:
         b7:32:51:85:e0:c6:7f:c5:f1:e8:e0:bd:8d:f9:0c:1b:0c:fa:
         fb:59:94:38:4b:c4:f3:c8:d3:50:b8:99:60:a3:3c:1d:b7:f3:
         29:8d:21:f8:b7:95:e6:af:51:31:6a:c7:c6:52:af:bd:ef:1b:
         ac:0e:34:bc:73:f6:af:98:9c:f1:b4:6e:7e:49:5e:e8:c2:83:
         d6:88:11:a3:44:7e:5d:40:43:cf:ef:73:b8:18:f7:d9:4f:cb:
         78:5f:c6:cc:e9:24:af:24:81:88:75:1b:6d:bd:08:93:92:62:
         c5:68:b0:1a:e5:f5:2d:15:31:e9:5f:af:6a:60:63:ec:36:75:
         28:84:57:03:16:9d:64:b6:c3:63:76:ca:cd:fa:eb:10:76:61:
         88:bd:b4:ed:b5:d8:a2:ed:c2:a3:a0:7b:43:c8:5b:ab:fb:a2:
         4a:86:50:ee:be:25:fa:f1:41:42:89:ee:47:61:14:a8:fc:da:
         bd:45:17:47:31:38:7a:df:64:c8:54:d7:3e:b0:64:44:2a:b9:
         6d:55:78:03:0b:01:5f:b8:d5:54:1b:65:09:8b:bd:5b:1f:28:
         17:61:a1:cc:26:a9:1d:a3:ef:0c:a3:b1:8f:d7:33:f5:47:73:
         d6:b9:77:eb:c3:93:16:c0:d5:ec:28:45:d5:26:6a:1b:80:71:
         7b:cf:66:2a:bf:f0:c6:f6
-----BEGIN CERTIFICATE-----
MIIGrTCCBJWgAwIBAgICH10wDQYJKoZIhvcNAQEEBQAwgawxCzAJBgNVBAYTAlVT
MQswCQYDVQQIEwJPSDERMA8GA1UEBxMIQ29sdW1idXMxEjAQBgNVBAoTCVZpa2lu
Z1ZQTjEdMBsGA1UECxMUTXlPcmdhbml6YXRpb25hbFVuaXQxFTATBgNVBAMTDFZp
a2luZ1ZQTiBDQTEQMA4GA1UEKRMHRWFzeVJTQTEhMB8GCSqGSIb3DQEJARYSbWVA
bXlob3N0Lm15ZG9tYWluMB4XDTE2MDUyMjIwNTcxN1oXDTI2MDUyMDIwNTcxN1ow
HzEdMBsGA1UEAxMUQ2xpZW50MTczNkNlcnQyNDVhNmQwggIiMA0GCSqGSIb3DQEB
AQUAA4ICDwAwggIKAoICAQDchSQ56l3HEtV0bBC4nFKOAXGSom+FdltJqt1xmqkg
8Zs6DHwNkYwXR6PYzQj5sdb34ndUihx+F9f2huipgBCqOxqS25wDSDI41qbpIhZC
VpEybmL6wlk6y803wOSiHKoLLWrNxlgpbpUlVi1u+H5hSCKfDKMwYzZWgoLOFSH4
vX09gLmCdzixIAKCFz9tlD3vd434QjNg+Iyg470FP5tive2EyCpkFYg8npC0ATbS
/Ams1fH4nXc5ixVQrP/7ZDTwG9L0TOUKdsrKVYnxM9OaZodw5l1d/FizQDzHfa9s
o5+EYP1NQ7PT6mXjw2U930UOJBdTLqxbLU/jloYsBLT8VLbjUP+ef4Dm6j0Zvz6w
chVTKQuq4u6rr/EqzSuhtrgK8Aa6qIx3UUcEYADjE0kk6djPDP1T3KzR6o8+3A0V
ALap5b1a+XyYRIQm905yn5vbWFF/4yd6W6rysNAFK14kOD6jYPCE80WltZqaUMU6
eQFpu41J3jPsPzSVeD90O3SYsXzkIT/Aip1ZoFY6esrRQfnoX9e34l7w6Os0/mqx
KVl2hrBuyB8hdHtUMRi0ozPSqx8oHsoX6kFU3E2ssJFWf902UN+smgTe+xDKOC0z
7dWNnrkqntkJn4h+xRfuLahwO+mHBFrJ1SmgahjOIUC5B/ArfLb1cZdVLNMyFjJM
+QIDAQABo4IBYzCCAV8wCQYDVR0TBAIwADAtBglghkgBhvhCAQ0EIBYeRWFzeS1S
U0EgR2VuZXJhdGVkIENlcnRpZmljYXRlMB0GA1UdDgQWBBQGWueNBmgauJtJJVuT
0cTAQoENvzCB4QYDVR0jBIHZMIHWgBQSzWAE0qCAnnDtxpm4eyzGUv0ZoaGBsqSB
rzCBrDELMAkGA1UEBhMCVVMxCzAJBgNVBAgTAk9IMREwDwYDVQQHEwhDb2x1bWJ1
czESMBAGA1UEChMJVmlraW5nVlBOMR0wGwYDVQQLExRNeU9yZ2FuaXphdGlvbmFs
VW5pdDEVMBMGA1UEAxMMVmlraW5nVlBOIENBMRAwDgYDVQQpEwdFYXN5UlNBMSEw
HwYJKoZIhvcNAQkBFhJtZUBteWhvc3QubXlkb21haW6CCQDPNYXugL8qPjATBgNV
HSUEDDAKBggrBgEFBQcDAjALBgNVHQ8EBAMCB4AwDQYJKoZIhvcNAQEEBQADggIB
ABFbgwiF0upxYaISZBhCsLrb9BSDRWqfGpKzPkCeXaiGPBI/fWKGWxa4gszRpvGj
5iuKh54LykCxcCViSm9aEuMat0Wlz3vZoA+pXfRdCQKvi63EVOmmSR0d0Hy3S0Sg
DrUphciYpNQQ2TdJqfy2+wIPXjSL54bOWGflAVQQhTBAXSsdFHFjOdJ0lnS3ZsA7
r3kLC1cDbHGq0UVGja5LXzHO8yWXDFyLIVSITAqok5IxUYxDHd9hATwUIaK/KmI2
H34fhPTLCJvzT3aKg18CnKGbC4bVfFkUe0UCMK75WeQZmSX+R2LhnqU0n4Oejj41
WR8Y4X6O5w3mFUgy1LcyUYXgxn/F8ejgvY35DBsM+vtZlDhLxPPI01C4mWCjPB23
8ymNIfi3leavUTFqx8ZSr73vG6wONLxz9q+YnPG0bn5JXujCg9aIEaNEfl1AQ8/v
c7gY99lPy3hfxszpJK8kgYh1G229CJOSYsVosBrl9S0VMelfr2pgY+w2dSiEVwMW
nWS2w2N2ys366xB2YYi9tO212KLtwqOge0PIW6v7okqGUO6+JfrxQUKJ7kdhFKj8
2r1FF0cxOHrfZMhU1z6wZEQquW1VeAMLAV+41VQbZQmLvVsfKBdhocwmqR2j7wyj
sY/XM/VHc9a5d+vDkxbA1ewoRdUmahuAcXvPZiq/8Mb2
-----END CERTIFICATE-----
