Certificate:
    Data:
        Version: 3 (0x2)
        Serial Number: 8042 (0x1f6a)
    Signature Algorithm: md5WithRSAEncryption
        Issuer: C=US, ST=OH, L=Columbus, O=VikingVPN, OU=MyOrganizationalUnit, CN=VikingVPN CA/name=EasyRSA/emailAddress=me@myhost.mydomain
        Validity
            Not Before: May 24 13:07:39 2016 GMT
            Not After : May 22 13:07:39 2026 GMT
        Subject: CN=Client2309Certafb3f2
        Subject Public Key Info:
            Public Key Algorithm: rsaEncryption
                Public-Key: (4096 bit)
                Modulus:
                    00:9f:49:47:eb:67:e1:48:87:8c:7a:18:86:a1:42:
                    21:56:3d:0c:20:ca:5b:69:c9:b8:ec:f7:29:da:ce:
                    52:1f:ee:c4:ab:e8:8c:b8:dc:16:a0:8f:06:4b:4d:
                    da:53:50:83:4a:36:d8:55:7e:5e:f3:42:af:95:e0:
                    e1:4d:40:df:6a:6e:1f:3d:28:c5:37:80:6f:8d:67:
                    61:a3:1c:35:27:d2:71:65:8a:e4:48:a6:4c:30:08:
                    f2:d0:ce:93:db:0f:7a:6e:06:e2:75:b6:60:28:17:
                    88:75:6e:8d:b9:07:80:22:5d:16:b6:7e:06:8a:08:
                    dc:c3:b6:4a:86:f7:78:14:2f:3b:f9:e5:6c:6d:41:
                    af:10:93:bb:af:f4:4c:be:90:ce:6f:5c:46:a8:59:
                    ca:3f:af:29:24:57:0a:7f:da:f2:e6:17:66:3d:23:
                    23:bc:f4:9b:48:6c:93:a0:0e:a7:b9:53:08:40:e8:
                    3c:ad:f5:f6:05:ed:5b:a0:f8:57:fc:93:d3:7b:98:
                    e0:52:ab:f4:eb:57:25:5a:bd:75:4f:a0:b6:ee:4e:
                    0b:e0:21:f0:e9:d6:05:b1:57:56:33:83:94:fb:f4:
                    df:65:41:26:80:99:98:67:c3:e0:91:47:41:39:a9:
                    db:8a:f3:00:1d:b7:a4:6b:2c:e9:2a:31:ec:d3:c8:
                    ed:d9:1c:20:5a:61:71:39:0c:5c:3f:c6:d7:8a:21:
                    47:94:09:68:d4:ad:48:29:0b:27:2d:b8:a0:94:38:
                    da:a4:c7:15:70:75:ea:b3:58:14:b0:55:db:c1:1f:
                    17:67:a2:dc:d4:fd:a9:36:78:45:32:5e:48:f7:c4:
                    d6:38:51:b0:0a:f3:78:34:bf:78:fc:d1:21:35:7f:
                    96:2b:48:9f:a6:fa:97:b4:5c:49:fa:c8:cd:74:12:
                    97:9a:86:89:6c:3a:5a:07:03:a4:71:b2:ae:b1:2c:
                    4c:50:c5:a3:3d:8e:94:27:2c:73:67:86:f2:43:f8:
                    6c:e5:6f:df:db:14:fd:7d:66:eb:7e:5f:1e:c4:b4:
                    1e:62:68:63:bc:30:4b:76:1d:25:24:fc:01:b0:2b:
                    12:95:f6:23:b9:c4:f3:d2:e5:a7:db:45:f2:71:2b:
                    b8:c1:b8:ca:76:73:17:7a:e0:21:49:73:58:00:0a:
                    ca:fa:ba:ec:a5:05:e7:73:1b:fe:2d:4f:a0:bc:b9:
                    7d:bf:96:91:8d:9d:7b:01:6f:b3:a2:8d:8a:1a:20:
                    7a:b1:a3:a5:be:d8:14:99:3b:ec:cd:e0:9d:a8:09:
                    f8:47:04:9b:83:1d:af:af:f8:41:36:a0:d4:8e:cb:
                    d8:bd:5a:62:ee:87:e6:5f:5b:47:40:df:18:75:74:
                    14:e2:59
                Exponent: 65537 (0x10001)
        X509v3 extensions:
            X509v3 Basic Constraints: 
                CA:FALSE
            Netscape Comment: 
                Easy-RSA Generated Certificate
            X509v3 Subject Key Identifier: 
                2F:2E:CB:DE:70:2D:C8:14:7B:44:DA:D3:B9:4E:F7:5D:E5:CA:06:3D
            X509v3 Authority Key Identifier: 
                keyid:12:CD:60:04:D2:A0:80:9E:70:ED:C6:99:B8:7B:2C:C6:52:FD:19:A1
                DirName:/C=US/ST=OH/L=Columbus/O=VikingVPN/OU=MyOrganizationalUnit/CN=VikingVPN CA/name=EasyRSA/emailAddress=me@myhost.mydomain
                serial:CF:35:85:EE:80:BF:2A:3E

            X509v3 Extended Key Usage: 
                TLS Web Client Authentication
            X509v3 Key Usage: 
                Digital Signature
    Signature Algorithm: md5WithRSAEncryption
         42:45:a1:40:81:49:37:28:f5:ef:a7:f1:04:9b:bc:71:7d:99:
         ee:b8:30:df:3d:81:dc:20:23:56:80:1e:52:30:23:f6:50:a7:
         df:51:6f:39:3a:73:40:6c:88:e1:3d:b0:a2:89:e4:5e:79:91:
         50:00:f8:0c:7a:b8:90:c5:78:5f:95:30:a4:b5:75:99:09:f6:
         5d:43:03:e9:6c:a3:c9:c2:32:a7:4a:3b:e1:ce:b8:c5:e1:dc:
         3a:68:63:13:43:e0:72:f6:db:e1:9d:b7:66:f1:21:d9:c7:f2:
         df:a8:7a:6a:a8:ba:c2:ac:e6:6f:85:af:f8:dd:6b:38:03:81:
         17:08:72:2c:5c:d9:6a:67:52:df:f2:22:19:70:1f:c6:18:5c:
         23:77:01:55:14:96:a3:28:b1:f3:99:1a:02:a2:20:6b:8c:ce:
         97:56:d9:a3:0c:33:f4:93:f7:a5:ed:ba:88:6d:82:00:fe:df:
         80:2f:3d:1c:85:17:7c:61:28:cf:ab:bd:00:b9:fa:26:e3:e5:
         a1:ad:95:7e:bd:10:64:e5:c1:dd:0c:02:4a:dd:4e:4a:74:99:
         5c:4b:42:0e:3a:5a:06:b2:bb:cd:6b:6a:e7:3d:78:2e:5d:64:
         cb:78:1f:cc:3e:28:23:c3:2b:cf:20:bc:85:13:2e:84:68:c7:
         47:ba:a7:73:e4:54:98:95:9d:12:1d:98:99:a5:6d:0c:df:a7:
         74:c3:af:9d:c5:98:92:50:4f:61:e5:b6:d7:fa:fa:05:17:99:
         13:b7:b8:73:d5:f2:f8:cb:7b:c2:76:d7:d9:c9:64:19:34:e5:
         20:fc:5d:33:37:89:a6:09:97:57:9b:51:fc:fd:b6:38:5a:6d:
         ae:53:c3:3b:d6:43:47:7f:f5:c4:27:7c:fa:22:39:52:66:86:
         2f:a4:62:20:93:80:56:a8:14:02:52:62:26:b3:b2:07:cd:a2:
         cc:8b:98:aa:a5:a5:09:e5:ed:68:c2:4c:dc:f3:f0:96:3c:df:
         9c:92:b3:c1:b6:05:21:c2:94:16:62:40:97:23:61:0d:cc:54:
         64:0d:02:79:95:be:eb:c8:3d:0b:9e:3c:e1:3c:84:15:bf:03:
         89:4c:d3:f4:f4:cd:b1:e9:b1:c3:e7:ce:04:15:93:86:0d:93:
         96:7f:27:7b:cd:4e:9f:fe:c5:ba:29:ab:ff:c4:88:22:f7:64:
         67:fe:f7:57:8c:21:8c:84:cf:c1:dd:31:e8:2d:89:7d:90:2b:
         65:40:6f:cd:dd:08:99:c4:56:22:35:72:37:71:91:17:72:3d:
         cf:01:a7:ec:ed:c1:06:98:88:41:2b:b8:7d:8c:1f:5a:2c:9a:
         db:61:0c:dc:3f:c6:8d:f7
-----BEGIN CERTIFICATE-----
MIIGrTCCBJWgAwIBAgICH2owDQYJKoZIhvcNAQEEBQAwgawxCzAJBgNVBAYTAlVT
MQswCQYDVQQIEwJPSDERMA8GA1UEBxMIQ29sdW1idXMxEjAQBgNVBAoTCVZpa2lu
Z1ZQTjEdMBsGA1UECxMUTXlPcmdhbml6YXRpb25hbFVuaXQxFTATBgNVBAMTDFZp
a2luZ1ZQTiBDQTEQMA4GA1UEKRMHRWFzeVJTQTEhMB8GCSqGSIb3DQEJARYSbWVA
bXlob3N0Lm15ZG9tYWluMB4XDTE2MDUyNDEzMDczOVoXDTI2MDUyMjEzMDczOVow
HzEdMBsGA1UEAxMUQ2xpZW50MjMwOUNlcnRhZmIzZjIwggIiMA0GCSqGSIb3DQEB
AQUAA4ICDwAwggIKAoICAQCfSUfrZ+FIh4x6GIahQiFWPQwgyltpybjs9ynazlIf
7sSr6Iy43BagjwZLTdpTUINKNthVfl7zQq+V4OFNQN9qbh89KMU3gG+NZ2GjHDUn
0nFliuRIpkwwCPLQzpPbD3puBuJ1tmAoF4h1bo25B4AiXRa2fgaKCNzDtkqG93gU
Lzv55WxtQa8Qk7uv9Ey+kM5vXEaoWco/rykkVwp/2vLmF2Y9IyO89JtIbJOgDqe5
UwhA6Dyt9fYF7Vug+Ff8k9N7mOBSq/TrVyVavXVPoLbuTgvgIfDp1gWxV1Yzg5T7
9N9lQSaAmZhnw+CRR0E5qduK8wAdt6RrLOkqMezTyO3ZHCBaYXE5DFw/xteKIUeU
CWjUrUgpCyctuKCUONqkxxVwdeqzWBSwVdvBHxdnotzU/ak2eEUyXkj3xNY4UbAK
83g0v3j80SE1f5YrSJ+m+pe0XEn6yM10EpeaholsOloHA6Rxsq6xLExQxaM9jpQn
LHNnhvJD+Gzlb9/bFP19Zut+Xx7EtB5iaGO8MEt2HSUk/AGwKxKV9iO5xPPS5afb
RfJxK7jBuMp2cxd64CFJc1gACsr6uuylBedzG/4tT6C8uX2/lpGNnXsBb7OijYoa
IHqxo6W+2BSZO+zN4J2oCfhHBJuDHa+v+EE2oNSOy9i9WmLuh+ZfW0dA3xh1dBTi
WQIDAQABo4IBYzCCAV8wCQYDVR0TBAIwADAtBglghkgBhvhCAQ0EIBYeRWFzeS1S
U0EgR2VuZXJhdGVkIENlcnRpZmljYXRlMB0GA1UdDgQWBBQvLsvecC3IFHtE2tO5
Tvdd5coGPTCB4QYDVR0jBIHZMIHWgBQSzWAE0qCAnnDtxpm4eyzGUv0ZoaGBsqSB
rzCBrDELMAkGA1UEBhMCVVMxCzAJBgNVBAgTAk9IMREwDwYDVQQHEwhDb2x1bWJ1
czESMBAGA1UEChMJVmlraW5nVlBOMR0wGwYDVQQLExRNeU9yZ2FuaXphdGlvbmFs
VW5pdDEVMBMGA1UEAxMMVmlraW5nVlBOIENBMRAwDgYDVQQpEwdFYXN5UlNBMSEw
HwYJKoZIhvcNAQkBFhJtZUBteWhvc3QubXlkb21haW6CCQDPNYXugL8qPjATBgNV
HSUEDDAKBggrBgEFBQcDAjALBgNVHQ8EBAMCB4AwDQYJKoZIhvcNAQEEBQADggIB
AEJFoUCBSTco9e+n8QSbvHF9me64MN89gdwgI1aAHlIwI/ZQp99Rbzk6c0BsiOE9
sKKJ5F55kVAA+Ax6uJDFeF+VMKS1dZkJ9l1DA+lso8nCMqdKO+HOuMXh3DpoYxND
4HL22+Gdt2bxIdnH8t+oemqousKs5m+Fr/jdazgDgRcIcixc2WpnUt/yIhlwH8YY
XCN3AVUUlqMosfOZGgKiIGuMzpdW2aMMM/ST96XtuohtggD+34AvPRyFF3xhKM+r
vQC5+ibj5aGtlX69EGTlwd0MAkrdTkp0mVxLQg46Wgayu81rauc9eC5dZMt4H8w+
KCPDK88gvIUTLoRox0e6p3PkVJiVnRIdmJmlbQzfp3TDr53FmJJQT2Hlttf6+gUX
mRO3uHPV8vjLe8J219nJZBk05SD8XTM3iaYJl1ebUfz9tjhaba5TwzvWQ0d/9cQn
fPoiOVJmhi+kYiCTgFaoFAJSYiazsgfNosyLmKqlpQnl7WjCTNzz8JY835ySs8G2
BSHClBZiQJcjYQ3MVGQNAnmVvuvIPQuePOE8hBW/A4lM0/T0zbHpscPnzgQVk4YN
k5Z/J3vNTp/+xbopq//EiCL3ZGf+91eMIYyEz8HdMegtiX2QK2VAb83dCJnEViI1
cjdxkRdyPc8Bp+ztwQaYiEEruH2MH1osmtthDNw/xo33
-----END CERTIFICATE-----
