Certificate:
    Data:
        Version: 3 (0x2)
        Serial Number: 8062 (0x1f7e)
    Signature Algorithm: md5WithRSAEncryption
        Issuer: C=US, ST=OH, L=Columbus, O=VikingVPN, OU=MyOrganizationalUnit, CN=VikingVPN CA/name=EasyRSA/emailAddress=me@myhost.mydomain
        Validity
            Not Before: May 27 14:56:41 2016 GMT
            Not After : May 25 14:56:41 2026 GMT
        Subject: CN=Client2315Cert476e76
        Subject Public Key Info:
            Public Key Algorithm: rsaEncryption
                Public-Key: (4096 bit)
                Modulus:
                    00:b1:7b:b9:3a:33:01:b4:20:72:9a:70:c9:53:69:
                    05:5b:b9:d5:22:f4:47:9f:d6:de:1f:92:49:e0:55:
                    eb:0b:bc:d9:d3:1f:1d:cd:46:bc:21:8d:f3:1d:d2:
                    aa:fb:45:5f:79:eb:fb:fb:89:20:0a:66:00:e0:5d:
                    db:f0:61:78:54:77:1a:49:dc:8f:56:09:27:3f:1b:
                    81:f5:ec:a4:f9:b5:4c:b5:4a:d5:22:4f:d8:5f:10:
                    0e:50:29:3b:f2:41:65:ac:ae:53:d1:fd:e8:1d:69:
                    b3:1a:96:89:06:f1:08:28:c2:89:df:7d:f5:61:87:
                    60:1b:b4:2c:8a:85:e9:f8:36:e0:7f:ed:80:9e:4e:
                    f8:f3:2b:69:4a:54:0a:ca:60:fc:6b:0e:ba:b8:5b:
                    ca:e2:04:5e:6b:f7:fc:5d:a4:fc:20:01:4c:0f:89:
                    91:05:18:15:a0:a3:8d:3a:33:8e:55:8a:b9:fc:fd:
                    5c:c3:f4:3b:68:6c:77:b6:1d:f7:af:78:4b:7d:05:
                    6e:8e:c4:2c:48:09:fe:39:6e:5d:42:05:29:ab:11:
                    23:08:7d:dd:3c:41:be:3d:40:19:ce:98:a9:b5:75:
                    40:f3:ea:15:17:5f:45:e0:8b:6b:a0:aa:01:9b:6a:
                    49:f9:71:96:3e:ed:7c:5b:69:4b:6b:f8:8f:9e:e6:
                    8c:a2:52:1a:3f:e0:bb:43:a7:da:9e:8a:be:dd:c8:
                    3f:a7:39:dd:e4:06:28:f9:c0:39:59:96:c4:ad:c7:
                    d5:57:0b:7a:34:79:a2:c9:0a:93:e0:c4:2f:5e:1a:
                    8f:fb:37:cc:81:ec:a6:b9:94:cc:a7:bf:13:c8:ae:
                    e6:a0:19:c8:84:cd:9e:56:0f:8e:29:3f:30:16:b5:
                    95:f6:c8:51:ae:e4:6c:50:7a:27:cf:e2:ec:a8:76:
                    ed:62:15:1a:be:a6:85:e4:e9:74:c2:c5:3b:3e:85:
                    8a:c2:06:90:01:e4:22:99:b8:88:ee:89:a3:b1:4c:
                    ac:5b:19:7c:78:e0:60:ea:dc:a8:1f:70:f6:d8:1d:
                    94:53:7e:3e:75:d9:94:01:ec:71:67:46:c4:98:c7:
                    c5:c1:d8:9e:29:54:1e:a8:12:ec:9a:7a:80:b6:a3:
                    13:03:27:f2:d2:3a:dc:be:cd:c2:80:36:5a:b0:d0:
                    27:d7:2b:84:cb:9b:1c:5d:0e:5e:c1:29:6b:e4:80:
                    12:22:38:82:f9:14:0a:30:7f:32:15:1a:9f:10:fd:
                    48:8c:82:e3:e3:af:4d:9a:b0:d2:b6:ae:84:4a:4d:
                    93:9f:5a:9f:79:09:6d:11:30:19:92:cf:0e:94:36:
                    c4:c1:45:53:6b:67:42:c5:40:a5:ae:cb:2e:0a:29:
                    a8:ae:73
                Exponent: 65537 (0x10001)
        X509v3 extensions:
            X509v3 Basic Constraints: 
                CA:FALSE
            Netscape Comment: 
                Easy-RSA Generated Certificate
            X509v3 Subject Key Identifier: 
                C9:B7:35:DD:95:40:E5:B2:05:3B:FF:26:95:33:6A:0F:1F:8E:6D:D8
            X509v3 Authority Key Identifier: 
                keyid:12:CD:60:04:D2:A0:80:9E:70:ED:C6:99:B8:7B:2C:C6:52:FD:19:A1
                DirName:/C=US/ST=OH/L=Columbus/O=VikingVPN/OU=MyOrganizationalUnit/CN=VikingVPN CA/name=EasyRSA/emailAddress=me@myhost.mydomain
                serial:CF:35:85:EE:80:BF:2A:3E

            X509v3 Extended Key Usage: 
                TLS Web Client Authentication
            X509v3 Key Usage: 
                Digital Signature
    Signature Algorithm: md5WithRSAEncryption
         af:67:b8:74:c2:21:78:9b:4f:f3:b1:2e:30:76:6c:d1:25:6a:
         41:fb:d3:86:38:8e:c3:0b:1d:03:74:dd:40:83:0f:f7:37:99:
         9d:27:67:86:5b:eb:09:1c:58:a2:73:d9:55:94:ea:04:50:8c:
         41:8b:b6:74:12:5e:dc:8d:cd:28:bb:c3:ba:de:8c:97:cc:2a:
         f6:4b:a6:4e:50:5a:2d:ab:32:aa:22:fa:c6:47:23:5d:3c:e2:
         e5:6c:76:31:0a:f0:6b:d5:57:42:c9:63:93:9d:76:e0:eb:36:
         51:5d:2a:03:70:24:46:ae:61:d3:f0:87:07:6a:b4:60:3e:a8:
         33:93:6c:8c:11:77:28:51:19:58:a0:a6:a1:87:71:ab:f7:18:
         e2:27:be:93:09:a7:3b:53:c7:29:54:fb:11:bb:dd:9a:a6:92:
         49:90:fc:6a:b8:f9:6a:47:a6:88:e3:5b:e0:62:67:b9:ea:86:
         68:ab:84:0b:0d:79:90:bc:5b:4a:d2:9d:a5:4a:27:07:33:cf:
         9b:d9:98:a9:b3:38:92:16:a7:cd:ec:db:73:10:02:e2:d8:51:
         1b:39:51:c1:96:51:0e:af:85:26:76:10:d7:55:10:6c:f8:29:
         6f:af:90:7c:7a:d6:6f:19:97:ec:f6:84:dc:88:c4:83:fd:13:
         e2:32:4b:75:9d:f5:24:59:c0:a4:3d:29:60:4f:85:e8:55:a1:
         55:66:78:cb:b6:c0:27:77:75:b3:34:3d:b6:84:dc:ae:78:54:
         f8:1c:8b:e9:35:31:c2:de:b7:9a:e5:7a:bd:20:17:3a:f2:e8:
         79:57:a9:21:c8:55:97:a0:35:d9:58:a6:42:43:60:3d:58:fd:
         31:4f:3b:4e:2c:5d:d0:9e:21:07:e5:f9:46:7b:fb:b7:90:1e:
         57:1f:fe:44:d5:ac:93:b3:50:f7:cc:7e:27:52:3d:98:ea:5f:
         e1:b4:05:44:c4:1b:de:a0:50:5c:06:26:f5:21:32:6d:e4:ed:
         20:db:1a:52:ec:f6:35:ff:3e:3f:85:8e:03:44:76:ac:00:73:
         22:cf:7e:c0:f4:74:b1:db:d3:96:e4:e0:6a:3b:e4:70:79:a9:
         74:6b:00:d3:26:9c:30:e3:37:4b:aa:74:61:9f:c7:0f:6b:1b:
         fc:85:b3:34:4f:a8:bc:9b:51:ef:89:b8:be:99:b8:c4:42:8d:
         f9:72:e3:33:e2:c0:1e:02:52:21:bc:f5:2e:f1:71:3c:b3:e7:
         72:78:43:88:ab:ce:0c:b0:47:63:74:57:5d:29:02:37:b6:23:
         1e:56:14:e2:58:b2:4e:44:f8:ed:f0:67:5a:86:05:e9:1a:c4:
         d9:4b:15:52:b9:58:0e:51
-----BEGIN CERTIFICATE-----
MIIGrTCCBJWgAwIBAgICH34wDQYJKoZIhvcNAQEEBQAwgawxCzAJBgNVBAYTAlVT
MQswCQYDVQQIEwJPSDERMA8GA1UEBxMIQ29sdW1idXMxEjAQBgNVBAoTCVZpa2lu
Z1ZQTjEdMBsGA1UECxMUTXlPcmdhbml6YXRpb25hbFVuaXQxFTATBgNVBAMTDFZp
a2luZ1ZQTiBDQTEQMA4GA1UEKRMHRWFzeVJTQTEhMB8GCSqGSIb3DQEJARYSbWVA
bXlob3N0Lm15ZG9tYWluMB4XDTE2MDUyNzE0NTY0MVoXDTI2MDUyNTE0NTY0MVow
HzEdMBsGA1UEAxMUQ2xpZW50MjMxNUNlcnQ0NzZlNzYwggIiMA0GCSqGSIb3DQEB
AQUAA4ICDwAwggIKAoICAQCxe7k6MwG0IHKacMlTaQVbudUi9Eef1t4fkkngVesL
vNnTHx3NRrwhjfMd0qr7RV956/v7iSAKZgDgXdvwYXhUdxpJ3I9WCSc/G4H17KT5
tUy1StUiT9hfEA5QKTvyQWWsrlPR/egdabMalokG8QgowonfffVhh2AbtCyKhen4
NuB/7YCeTvjzK2lKVArKYPxrDrq4W8riBF5r9/xdpPwgAUwPiZEFGBWgo406M45V
irn8/VzD9DtobHe2HfeveEt9BW6OxCxICf45bl1CBSmrESMIfd08Qb49QBnOmKm1
dUDz6hUXX0Xgi2ugqgGbakn5cZY+7XxbaUtr+I+e5oyiUho/4LtDp9qeir7dyD+n
Od3kBij5wDlZlsStx9VXC3o0eaLJCpPgxC9eGo/7N8yB7Ka5lMynvxPIruagGciE
zZ5WD44pPzAWtZX2yFGu5GxQeifP4uyodu1iFRq+poXk6XTCxTs+hYrCBpAB5CKZ
uIjuiaOxTKxbGXx44GDq3KgfcPbYHZRTfj512ZQB7HFnRsSYx8XB2J4pVB6oEuya
eoC2oxMDJ/LSOty+zcKANlqw0CfXK4TLmxxdDl7BKWvkgBIiOIL5FAowfzIVGp8Q
/UiMguPjr02asNK2roRKTZOfWp95CW0RMBmSzw6UNsTBRVNrZ0LFQKWuyy4KKaiu
cwIDAQABo4IBYzCCAV8wCQYDVR0TBAIwADAtBglghkgBhvhCAQ0EIBYeRWFzeS1S
U0EgR2VuZXJhdGVkIENlcnRpZmljYXRlMB0GA1UdDgQWBBTJtzXdlUDlsgU7/yaV
M2oPH45t2DCB4QYDVR0jBIHZMIHWgBQSzWAE0qCAnnDtxpm4eyzGUv0ZoaGBsqSB
rzCBrDELMAkGA1UEBhMCVVMxCzAJBgNVBAgTAk9IMREwDwYDVQQHEwhDb2x1bWJ1
czESMBAGA1UEChMJVmlraW5nVlBOMR0wGwYDVQQLExRNeU9yZ2FuaXphdGlvbmFs
VW5pdDEVMBMGA1UEAxMMVmlraW5nVlBOIENBMRAwDgYDVQQpEwdFYXN5UlNBMSEw
HwYJKoZIhvcNAQkBFhJtZUBteWhvc3QubXlkb21haW6CCQDPNYXugL8qPjATBgNV
HSUEDDAKBggrBgEFBQcDAjALBgNVHQ8EBAMCB4AwDQYJKoZIhvcNAQEEBQADggIB
AK9nuHTCIXibT/OxLjB2bNElakH704Y4jsMLHQN03UCDD/c3mZ0nZ4Zb6wkcWKJz
2VWU6gRQjEGLtnQSXtyNzSi7w7rejJfMKvZLpk5QWi2rMqoi+sZHI1084uVsdjEK
8GvVV0LJY5OdduDrNlFdKgNwJEauYdPwhwdqtGA+qDOTbIwRdyhRGVigpqGHcav3
GOInvpMJpztTxylU+xG73ZqmkkmQ/Gq4+WpHpojjW+BiZ7nqhmirhAsNeZC8W0rS
naVKJwczz5vZmKmzOJIWp83s23MQAuLYURs5UcGWUQ6vhSZ2ENdVEGz4KW+vkHx6
1m8Zl+z2hNyIxIP9E+IyS3Wd9SRZwKQ9KWBPhehVoVVmeMu2wCd3dbM0PbaE3K54
VPgci+k1McLet5rler0gFzry6HlXqSHIVZegNdlYpkJDYD1Y/TFPO04sXdCeIQfl
+UZ7+7eQHlcf/kTVrJOzUPfMfidSPZjqX+G0BUTEG96gUFwGJvUhMm3k7SDbGlLs
9jX/Pj+FjgNEdqwAcyLPfsD0dLHb05bk4Go75HB5qXRrANMmnDDjN0uqdGGfxw9r
G/yFszRPqLybUe+JuL6ZuMRCjfly4zPiwB4CUiG89S7xcTyz53J4Q4irzgywR2N0
V10pAje2Ix5WFOJYsk5E+O3wZ1qGBekaxNlLFVK5WA5R
-----END CERTIFICATE-----
