Certificate:
    Data:
        Version: 3 (0x2)
        Serial Number: 8063 (0x1f7f)
    Signature Algorithm: md5WithRSAEncryption
        Issuer: C=US, ST=OH, L=Columbus, O=VikingVPN, OU=MyOrganizationalUnit, CN=VikingVPN CA/name=EasyRSA/emailAddress=me@myhost.mydomain
        Validity
            Not Before: May 27 14:57:42 2016 GMT
            Not After : May 25 14:57:42 2026 GMT
        Subject: CN=Client2313Cert0568ae
        Subject Public Key Info:
            Public Key Algorithm: rsaEncryption
                Public-Key: (4096 bit)
                Modulus:
                    00:ea:06:21:88:db:a8:1a:e0:cc:92:e3:f4:a0:dc:
                    69:58:5f:00:83:d5:85:f9:4d:e3:7c:ee:a7:b3:d0:
                    45:ef:e0:1b:0a:81:ba:e0:2a:ec:7d:67:df:a6:65:
                    ec:1e:47:b1:a1:40:38:59:63:c6:61:f7:6d:c5:a5:
                    bc:ba:64:a2:c0:96:44:00:d7:47:91:a7:28:e7:ef:
                    f3:e2:81:07:df:3f:16:06:9b:12:4f:da:b1:80:c9:
                    39:9c:45:73:e1:ee:83:f6:3c:83:26:08:59:cd:80:
                    07:2a:6a:87:53:a5:16:92:5d:a0:53:fb:49:88:d4:
                    52:d8:22:b8:10:92:9c:ea:c5:f5:f8:12:19:18:16:
                    65:20:77:fd:da:cd:90:df:f1:73:38:e4:e5:b1:55:
                    4a:25:48:81:af:dd:27:44:51:e5:a1:f3:bb:ff:68:
                    90:ef:e0:52:48:e7:2a:44:02:71:82:f1:86:93:66:
                    c5:84:4d:48:1d:cc:cf:fe:eb:ea:99:80:a0:f3:3d:
                    4e:48:2a:d7:a4:07:59:7b:0d:ff:f1:62:f3:29:ad:
                    72:2f:91:3d:9f:c5:40:58:13:33:50:e7:2a:d1:44:
                    c3:4f:c5:be:a2:ab:6f:e2:ec:1d:10:8b:a4:a8:e8:
                    08:28:d1:3c:33:9d:00:36:95:6e:8e:c8:22:5f:48:
                    3d:6f:f6:fe:50:97:8b:ca:27:37:67:12:f2:5d:80:
                    b0:4b:71:ed:96:ac:06:57:8a:cc:ab:ef:ea:cf:38:
                    08:64:b2:63:93:24:09:70:83:8e:cd:1e:e6:70:1a:
                    4f:2e:f3:57:a2:6b:84:ae:27:91:37:45:74:56:09:
                    dd:83:01:a9:a4:cf:88:ea:29:5f:fe:cf:69:4a:d3:
                    bf:41:2e:9e:c6:94:63:fe:bb:16:bf:09:9c:17:4e:
                    5b:43:ad:be:e0:0b:4f:40:34:25:4b:53:52:8a:15:
                    d5:d1:48:96:de:2f:9a:8c:db:6c:cd:51:f1:45:8d:
                    bb:4e:d5:75:af:7d:dd:c9:84:12:4c:c8:4c:50:77:
                    3e:28:1f:4b:05:9f:d0:aa:78:08:4c:21:0b:b6:29:
                    da:28:f7:44:3f:59:24:37:cc:6f:4b:8a:93:eb:f3:
                    1c:7d:9a:fc:2a:49:d7:0f:e9:84:c2:b5:71:9b:fa:
                    4f:9d:dd:5c:d9:ff:4c:7f:d8:68:b5:ac:76:32:a3:
                    0f:35:5d:58:dc:b5:f7:b2:6c:a8:2c:15:9e:f5:b9:
                    5b:1b:08:bf:4f:57:18:27:2c:7a:bc:09:ed:8f:8a:
                    b5:6d:8c:c3:6d:3e:00:ee:9f:cf:31:05:75:ec:ad:
                    84:c3:08:1a:c5:d3:66:ca:19:cb:80:02:05:de:17:
                    e6:be:81
                Exponent: 65537 (0x10001)
        X509v3 extensions:
            X509v3 Basic Constraints: 
                CA:FALSE
            Netscape Comment: 
                Easy-RSA Generated Certificate
            X509v3 Subject Key Identifier: 
                FA:5B:BF:34:AB:85:60:BD:1E:3C:96:15:D7:BC:FF:C7:2D:E4:98:FC
            X509v3 Authority Key Identifier: 
                keyid:12:CD:60:04:D2:A0:80:9E:70:ED:C6:99:B8:7B:2C:C6:52:FD:19:A1
                DirName:/C=US/ST=OH/L=Columbus/O=VikingVPN/OU=MyOrganizationalUnit/CN=VikingVPN CA/name=EasyRSA/emailAddress=me@myhost.mydomain
                serial:CF:35:85:EE:80:BF:2A:3E

            X509v3 Extended Key Usage: 
                TLS Web Client Authentication
            X509v3 Key Usage: 
                Digital Signature
    Signature Algorithm: md5WithRSAEncryption
         6d:cd:3b:7f:c2:cb:62:7d:53:0c:1b:ac:de:1f:51:36:e7:21:
         8d:c3:16:0c:a3:11:f0:33:31:c6:7b:b8:2f:f8:33:c0:dc:a2:
         66:a7:e6:ae:0a:71:16:e0:70:34:5a:95:cf:4d:e3:ec:fb:b1:
         5c:fd:6c:8a:42:84:c3:d8:02:93:fb:3f:96:fd:81:da:ec:b7:
         58:c9:2c:0a:16:f5:f1:8a:29:41:f1:dc:ad:0c:e2:d9:ee:32:
         32:7f:80:8a:bb:8a:d6:fc:be:e5:7b:89:53:be:77:ea:99:a7:
         ea:cd:d7:8a:e1:c0:6d:6d:b7:ad:70:2e:23:b1:d2:ff:fb:b8:
         53:68:70:99:0b:28:f0:07:1f:b9:e3:f2:62:2e:5b:c0:52:04:
         09:19:47:4c:c2:6b:b6:dd:6d:56:99:34:1a:db:40:a0:27:f8:
         be:a0:cb:ef:ec:ec:ee:33:6f:32:0c:b1:4f:93:28:71:12:16:
         30:cb:6b:6b:e2:11:ea:a3:19:bc:ad:80:97:9e:f5:d7:0b:74:
         fa:d5:1f:36:62:09:96:dc:f7:a4:cc:cc:6d:9d:a8:04:d2:0e:
         ef:7b:81:a9:c6:9d:04:3f:d3:42:60:9a:89:56:40:8d:0a:b5:
         0a:47:56:74:8b:3b:6e:35:ca:4f:0a:5f:fa:dd:63:33:75:98:
         2c:4b:99:a5:ee:66:b5:a5:00:5c:ef:5f:51:b6:2b:78:49:94:
         d5:e4:45:ce:8c:dd:3f:5c:fc:6d:39:2d:1d:cf:8f:4e:51:3e:
         35:61:d5:82:6b:bb:4d:ac:6c:a0:5d:51:cb:f2:91:05:f3:fc:
         b5:bb:cc:9c:b0:a5:c3:bf:97:dc:9e:66:a0:02:67:7e:1d:f0:
         3f:64:71:1a:58:a5:e3:8a:75:ad:f2:de:64:a0:02:f9:f5:a8:
         4a:4f:c0:4f:67:eb:20:66:72:a1:ee:99:0d:cb:7b:86:9a:be:
         2f:a8:2b:ec:ac:fd:e8:ec:b9:01:7c:cb:86:23:db:05:18:22:
         af:3b:b3:4b:38:74:96:3e:c9:f1:55:a5:9e:75:d8:da:f2:27:
         fd:06:37:da:35:8f:85:ff:d1:ce:67:2d:32:14:b2:67:65:02:
         59:7f:89:4b:c9:fb:7d:18:51:37:43:76:d2:5b:0d:54:7b:94:
         38:2c:c4:d7:6d:8c:8c:d6:3b:20:cc:7b:34:70:ec:06:dc:4b:
         80:ae:cf:69:9a:d3:b2:0b:45:85:e5:bf:75:7a:10:3a:ea:4c:
         d6:c7:c7:c0:70:19:12:c9:69:21:0b:17:30:ae:13:d4:86:93:
         ee:23:f5:06:c5:ee:25:0b:83:d8:f3:26:c1:2b:14:a7:27:d7:
         0d:83:b5:55:80:97:fb:0c
-----BEGIN CERTIFICATE-----
MIIGrTCCBJWgAwIBAgICH38wDQYJKoZIhvcNAQEEBQAwgawxCzAJBgNVBAYTAlVT
MQswCQYDVQQIEwJPSDERMA8GA1UEBxMIQ29sdW1idXMxEjAQBgNVBAoTCVZpa2lu
Z1ZQTjEdMBsGA1UECxMUTXlPcmdhbml6YXRpb25hbFVuaXQxFTATBgNVBAMTDFZp
a2luZ1ZQTiBDQTEQMA4GA1UEKRMHRWFzeVJTQTEhMB8GCSqGSIb3DQEJARYSbWVA
bXlob3N0Lm15ZG9tYWluMB4XDTE2MDUyNzE0NTc0MloXDTI2MDUyNTE0NTc0Mlow
HzEdMBsGA1UEAxMUQ2xpZW50MjMxM0NlcnQwNTY4YWUwggIiMA0GCSqGSIb3DQEB
AQUAA4ICDwAwggIKAoICAQDqBiGI26ga4MyS4/Sg3GlYXwCD1YX5TeN87qez0EXv
4BsKgbrgKux9Z9+mZeweR7GhQDhZY8Zh923Fpby6ZKLAlkQA10eRpyjn7/PigQff
PxYGmxJP2rGAyTmcRXPh7oP2PIMmCFnNgAcqaodTpRaSXaBT+0mI1FLYIrgQkpzq
xfX4EhkYFmUgd/3azZDf8XM45OWxVUolSIGv3SdEUeWh87v/aJDv4FJI5ypEAnGC
8YaTZsWETUgdzM/+6+qZgKDzPU5IKtekB1l7Df/xYvMprXIvkT2fxUBYEzNQ5yrR
RMNPxb6iq2/i7B0Qi6So6Ago0TwznQA2lW6OyCJfSD1v9v5Ql4vKJzdnEvJdgLBL
ce2WrAZXisyr7+rPOAhksmOTJAlwg47NHuZwGk8u81eia4SuJ5E3RXRWCd2DAamk
z4jqKV/+z2lK079BLp7GlGP+uxa/CZwXTltDrb7gC09ANCVLU1KKFdXRSJbeL5qM
22zNUfFFjbtO1XWvfd3JhBJMyExQdz4oH0sFn9CqeAhMIQu2Kdoo90Q/WSQ3zG9L
ipPr8xx9mvwqSdcP6YTCtXGb+k+d3VzZ/0x/2Gi1rHYyow81XVjctfeybKgsFZ71
uVsbCL9PVxgnLHq8Ce2PirVtjMNtPgDun88xBXXsrYTDCBrF02bKGcuAAgXeF+a+
gQIDAQABo4IBYzCCAV8wCQYDVR0TBAIwADAtBglghkgBhvhCAQ0EIBYeRWFzeS1S
U0EgR2VuZXJhdGVkIENlcnRpZmljYXRlMB0GA1UdDgQWBBT6W780q4VgvR48lhXX
vP/HLeSY/DCB4QYDVR0jBIHZMIHWgBQSzWAE0qCAnnDtxpm4eyzGUv0ZoaGBsqSB
rzCBrDELMAkGA1UEBhMCVVMxCzAJBgNVBAgTAk9IMREwDwYDVQQHEwhDb2x1bWJ1
czESMBAGA1UEChMJVmlraW5nVlBOMR0wGwYDVQQLExRNeU9yZ2FuaXphdGlvbmFs
VW5pdDEVMBMGA1UEAxMMVmlraW5nVlBOIENBMRAwDgYDVQQpEwdFYXN5UlNBMSEw
HwYJKoZIhvcNAQkBFhJtZUBteWhvc3QubXlkb21haW6CCQDPNYXugL8qPjATBgNV
HSUEDDAKBggrBgEFBQcDAjALBgNVHQ8EBAMCB4AwDQYJKoZIhvcNAQEEBQADggIB
AG3NO3/Cy2J9UwwbrN4fUTbnIY3DFgyjEfAzMcZ7uC/4M8Dcoman5q4KcRbgcDRa
lc9N4+z7sVz9bIpChMPYApP7P5b9gdrst1jJLAoW9fGKKUHx3K0M4tnuMjJ/gIq7
itb8vuV7iVO+d+qZp+rN14rhwG1tt61wLiOx0v/7uFNocJkLKPAHH7nj8mIuW8BS
BAkZR0zCa7bdbVaZNBrbQKAn+L6gy+/s7O4zbzIMsU+TKHESFjDLa2viEeqjGbyt
gJee9dcLdPrVHzZiCZbc96TMzG2dqATSDu97ganGnQQ/00JgmolWQI0KtQpHVnSL
O241yk8KX/rdYzN1mCxLmaXuZrWlAFzvX1G2K3hJlNXkRc6M3T9c/G05LR3Pj05R
PjVh1YJru02sbKBdUcvykQXz/LW7zJywpcO/l9yeZqACZ34d8D9kcRpYpeOKda3y
3mSgAvn1qEpPwE9n6yBmcqHumQ3Le4aavi+oK+ys/ejsuQF8y4Yj2wUYIq87s0s4
dJY+yfFVpZ512NryJ/0GN9o1j4X/0c5nLTIUsmdlAll/iUvJ+30YUTdDdtJbDVR7
lDgsxNdtjIzWOyDMezRw7AbcS4Cuz2ma07ILRYXlv3V6EDrqTNbHx8BwGRLJaSEL
FzCuE9SGk+4j9QbF7iULg9jzJsErFKcn1w2DtVWAl/sM
-----END CERTIFICATE-----
