Certificate:
    Data:
        Version: 3 (0x2)
        Serial Number: 8064 (0x1f80)
    Signature Algorithm: md5WithRSAEncryption
        Issuer: C=US, ST=OH, L=Columbus, O=VikingVPN, OU=MyOrganizationalUnit, CN=VikingVPN CA/name=EasyRSA/emailAddress=me@myhost.mydomain
        Validity
            Not Before: May 27 14:57:50 2016 GMT
            Not After : May 25 14:57:50 2026 GMT
        Subject: CN=Client2313Certf445dc
        Subject Public Key Info:
            Public Key Algorithm: rsaEncryption
                Public-Key: (4096 bit)
                Modulus:
                    00:e5:00:4d:b4:e5:39:50:a0:b1:0c:60:a9:da:f0:
                    bd:b1:55:6f:47:14:b4:0d:c8:a8:eb:00:9b:25:49:
                    ef:f7:d6:f1:fc:65:e2:05:b6:42:5c:9b:ee:15:d0:
                    19:21:63:a0:95:e7:3e:bc:ab:d9:da:9f:eb:f4:7d:
                    a0:92:29:f7:43:ca:de:bc:86:ce:40:49:38:32:78:
                    e5:60:c3:be:9a:06:54:b9:d9:7f:03:17:1b:2d:b6:
                    02:d1:a8:a5:49:38:5c:65:d6:05:e1:32:a0:68:c1:
                    d7:38:d7:79:cf:e9:a4:85:17:29:94:b3:db:5a:80:
                    10:d9:23:f4:19:b1:99:42:e7:f3:f3:24:c8:a1:42:
                    f3:77:8b:72:64:d6:00:e7:b8:6d:56:84:7f:23:9d:
                    8f:8e:2d:b1:61:a1:05:49:a3:b1:f3:35:9e:f3:9a:
                    1e:cb:38:0e:69:5a:82:c5:23:f7:56:13:9c:df:c1:
                    fa:5e:99:50:9e:f0:33:ed:c2:a0:67:18:c0:a8:92:
                    53:a5:6a:2d:70:ff:8e:16:df:1e:56:11:24:61:e5:
                    95:7e:16:82:58:8b:d7:b5:d5:cf:ae:7d:1c:47:5a:
                    41:20:b2:ac:c0:09:cf:88:d1:2f:2f:a6:82:4e:9c:
                    6d:ea:3f:3b:bd:e3:b4:d6:86:6c:9a:ff:e9:8e:6b:
                    c1:94:6c:08:ea:55:17:b8:f4:f2:90:d4:17:89:04:
                    40:f6:3a:95:3c:22:24:55:8b:1e:40:17:7d:38:88:
                    0a:28:24:a0:40:2e:9a:c0:72:3b:d0:2e:3b:56:4b:
                    a3:92:7d:9d:cf:df:57:7d:f1:a9:62:d1:83:4b:c7:
                    45:5c:59:7c:04:c8:0c:35:28:29:04:3a:51:3b:68:
                    2c:10:b8:a1:5d:ca:cc:2a:4c:f0:1e:ba:75:fe:19:
                    0e:b6:ad:bd:ba:88:4c:19:b0:46:e6:1c:1d:81:f1:
                    39:63:88:4c:86:32:93:47:48:a7:7e:86:34:90:1c:
                    79:b9:7e:86:60:97:eb:d0:49:26:90:94:bd:9b:00:
                    60:ea:d0:e0:3e:74:07:63:74:e4:e7:93:70:c2:e3:
                    8f:1a:db:b9:e0:37:dd:9d:67:ca:1f:f1:eb:65:68:
                    3b:e7:5b:c9:4e:4e:7d:95:08:03:3b:ea:00:68:bc:
                    5a:29:d6:c6:e7:14:24:c8:dc:b5:79:fd:21:87:90:
                    87:5f:15:cd:d3:79:ed:a6:9a:1a:31:32:5c:50:29:
                    cd:4b:01:5a:6d:b9:f0:43:37:4f:11:61:ec:82:6e:
                    78:cc:96:c1:f1:a3:fb:a4:14:94:7d:90:d6:31:7c:
                    d9:42:87:0e:26:e1:db:8c:1f:e4:79:c2:0e:26:f7:
                    50:a5:3b
                Exponent: 65537 (0x10001)
        X509v3 extensions:
            X509v3 Basic Constraints: 
                CA:FALSE
            Netscape Comment: 
                Easy-RSA Generated Certificate
            X509v3 Subject Key Identifier: 
                20:2B:7F:5D:77:9F:F7:67:66:8D:00:79:26:A7:9A:2B:DC:EE:9C:55
            X509v3 Authority Key Identifier: 
                keyid:12:CD:60:04:D2:A0:80:9E:70:ED:C6:99:B8:7B:2C:C6:52:FD:19:A1
                DirName:/C=US/ST=OH/L=Columbus/O=VikingVPN/OU=MyOrganizationalUnit/CN=VikingVPN CA/name=EasyRSA/emailAddress=me@myhost.mydomain
                serial:CF:35:85:EE:80:BF:2A:3E

            X509v3 Extended Key Usage: 
                TLS Web Client Authentication
            X509v3 Key Usage: 
                Digital Signature
    Signature Algorithm: md5WithRSAEncryption
         8e:04:3c:e6:86:69:bb:32:97:2a:f0:5b:c6:46:ee:45:2b:90:
         03:da:2c:df:c9:5e:92:df:d0:ab:e6:34:dc:fe:4f:2a:81:be:
         86:c6:80:0d:21:00:ec:39:25:9f:14:d6:a2:4b:8f:de:48:5f:
         66:5d:ca:f9:44:a9:ef:4a:f8:4b:bf:d3:5d:8b:ec:67:d2:b8:
         1b:7a:24:ab:2c:b8:16:73:73:a6:30:a1:26:85:ae:fc:d8:e9:
         20:e2:87:c1:37:60:a3:0c:29:32:0e:83:33:9e:b1:29:31:1f:
         95:ea:cf:f1:e5:cf:bc:72:7b:f1:2a:57:6d:9b:fb:52:fe:dd:
         5f:f2:90:a3:f1:b4:13:d6:d8:8d:5f:eb:59:bd:48:68:29:e0:
         34:69:03:a4:74:d5:87:aa:f7:ea:8b:99:b2:95:d5:30:29:bd:
         2c:69:d1:ae:f6:e9:e0:ee:b2:ca:72:dc:69:32:ad:d8:0a:51:
         60:a6:10:4e:10:14:dd:51:e6:17:af:c9:5a:2b:2b:0d:28:23:
         54:c6:4d:30:4d:ea:60:b5:bc:b8:b1:1f:d7:ef:8b:b8:bc:30:
         f7:73:a9:9b:cd:7c:df:95:1f:05:b2:da:91:c5:d6:df:77:fd:
         b0:16:62:35:3f:7a:1b:cb:1a:31:7e:38:01:19:43:d1:77:ab:
         66:c4:9c:85:a8:27:50:d4:91:30:20:c3:9a:51:a1:3a:e0:81:
         a7:a5:f3:e9:9e:dd:b3:52:67:c3:68:99:69:ae:f0:56:fe:8b:
         dd:df:aa:23:99:48:40:f6:45:01:17:1b:62:b7:d8:f2:d7:a2:
         62:a6:15:79:bd:9c:92:48:ed:3a:62:2e:c7:3b:b4:c5:df:a4:
         be:2f:cf:6a:76:b3:15:dc:d9:90:5e:84:5f:88:62:7f:db:e3:
         2c:5f:f5:a6:39:24:f0:aa:81:63:f9:9c:44:81:75:e5:58:0d:
         7b:64:10:e2:6c:4e:31:3c:cd:83:76:fb:a4:5f:77:39:ff:b0:
         dc:d5:ee:ed:d0:97:b3:f3:8f:cd:a7:5e:4e:3c:b4:7c:bc:e2:
         bb:f5:9f:7f:bc:41:d3:35:a1:9f:6e:42:f7:04:5a:f2:ef:2a:
         4e:cb:54:49:b2:3a:11:69:c7:29:aa:ce:ec:04:b2:b7:84:35:
         52:c8:3d:e9:53:cb:29:f8:12:ea:d3:4c:ee:20:81:04:33:49:
         c9:0d:93:09:1c:75:c4:04:43:a0:ac:1c:b5:4d:4b:b0:14:37:
         d0:d0:96:67:6a:ff:fe:42:53:58:61:69:b5:d4:44:97:e3:ee:
         ab:01:fe:9c:37:ad:c2:fc:72:80:4a:bd:4c:15:60:30:ab:a9:
         77:9d:1e:0c:d7:89:4f:85
-----BEGIN CERTIFICATE-----
MIIGrTCCBJWgAwIBAgICH4AwDQYJKoZIhvcNAQEEBQAwgawxCzAJBgNVBAYTAlVT
MQswCQYDVQQIEwJPSDERMA8GA1UEBxMIQ29sdW1idXMxEjAQBgNVBAoTCVZpa2lu
Z1ZQTjEdMBsGA1UECxMUTXlPcmdhbml6YXRpb25hbFVuaXQxFTATBgNVBAMTDFZp
a2luZ1ZQTiBDQTEQMA4GA1UEKRMHRWFzeVJTQTEhMB8GCSqGSIb3DQEJARYSbWVA
bXlob3N0Lm15ZG9tYWluMB4XDTE2MDUyNzE0NTc1MFoXDTI2MDUyNTE0NTc1MFow
HzEdMBsGA1UEAxMUQ2xpZW50MjMxM0NlcnRmNDQ1ZGMwggIiMA0GCSqGSIb3DQEB
AQUAA4ICDwAwggIKAoICAQDlAE205TlQoLEMYKna8L2xVW9HFLQNyKjrAJslSe/3
1vH8ZeIFtkJcm+4V0BkhY6CV5z68q9nan+v0faCSKfdDyt68hs5ASTgyeOVgw76a
BlS52X8DFxsttgLRqKVJOFxl1gXhMqBowdc413nP6aSFFymUs9tagBDZI/QZsZlC
5/PzJMihQvN3i3Jk1gDnuG1WhH8jnY+OLbFhoQVJo7HzNZ7zmh7LOA5pWoLFI/dW
E5zfwfpemVCe8DPtwqBnGMCoklOlai1w/44W3x5WESRh5ZV+FoJYi9e11c+ufRxH
WkEgsqzACc+I0S8vpoJOnG3qPzu947TWhmya/+mOa8GUbAjqVRe49PKQ1BeJBED2
OpU8IiRVix5AF304iAooJKBALprAcjvQLjtWS6OSfZ3P31d98ali0YNLx0VcWXwE
yAw1KCkEOlE7aCwQuKFdyswqTPAeunX+GQ62rb26iEwZsEbmHB2B8TljiEyGMpNH
SKd+hjSQHHm5foZgl+vQSSaQlL2bAGDq0OA+dAdjdOTnk3DC448a27ngN92dZ8of
8etlaDvnW8lOTn2VCAM76gBovFop1sbnFCTI3LV5/SGHkIdfFc3Tee2mmhoxMlxQ
Kc1LAVptufBDN08RYeyCbnjMlsHxo/ukFJR9kNYxfNlChw4m4duMH+R5wg4m91Cl
OwIDAQABo4IBYzCCAV8wCQYDVR0TBAIwADAtBglghkgBhvhCAQ0EIBYeRWFzeS1S
U0EgR2VuZXJhdGVkIENlcnRpZmljYXRlMB0GA1UdDgQWBBQgK39dd5/3Z2aNAHkm
p5or3O6cVTCB4QYDVR0jBIHZMIHWgBQSzWAE0qCAnnDtxpm4eyzGUv0ZoaGBsqSB
rzCBrDELMAkGA1UEBhMCVVMxCzAJBgNVBAgTAk9IMREwDwYDVQQHEwhDb2x1bWJ1
czESMBAGA1UEChMJVmlraW5nVlBOMR0wGwYDVQQLExRNeU9yZ2FuaXphdGlvbmFs
VW5pdDEVMBMGA1UEAxMMVmlraW5nVlBOIENBMRAwDgYDVQQpEwdFYXN5UlNBMSEw
HwYJKoZIhvcNAQkBFhJtZUBteWhvc3QubXlkb21haW6CCQDPNYXugL8qPjATBgNV
HSUEDDAKBggrBgEFBQcDAjALBgNVHQ8EBAMCB4AwDQYJKoZIhvcNAQEEBQADggIB
AI4EPOaGabsylyrwW8ZG7kUrkAPaLN/JXpLf0KvmNNz+TyqBvobGgA0hAOw5JZ8U
1qJLj95IX2ZdyvlEqe9K+Eu/012L7GfSuBt6JKssuBZzc6YwoSaFrvzY6SDih8E3
YKMMKTIOgzOesSkxH5Xqz/Hlz7xye/EqV22b+1L+3V/ykKPxtBPW2I1f61m9SGgp
4DRpA6R01Yeq9+qLmbKV1TApvSxp0a726eDusspy3GkyrdgKUWCmEE4QFN1R5hev
yVorKw0oI1TGTTBN6mC1vLixH9fvi7i8MPdzqZvNfN+VHwWy2pHF1t93/bAWYjU/
ehvLGjF+OAEZQ9F3q2bEnIWoJ1DUkTAgw5pRoTrggael8+me3bNSZ8NomWmu8Fb+
i93fqiOZSED2RQEXG2K32PLXomKmFXm9nJJI7TpiLsc7tMXfpL4vz2p2sxXc2ZBe
hF+IYn/b4yxf9aY5JPCqgWP5nESBdeVYDXtkEOJsTjE8zYN2+6Rfdzn/sNzV7u3Q
l7Pzj82nXk48tHy84rv1n3+8QdM1oZ9uQvcEWvLvKk7LVEmyOhFpxymqzuwEsreE
NVLIPelTyyn4EurTTO4ggQQzSckNkwkcdcQEQ6CsHLVNS7AUN9DQlmdq//5CU1hh
abXURJfj7qsB/pw3rcL8coBKvUwVYDCrqXedHgzXiU+F
-----END CERTIFICATE-----
