Certificate:
    Data:
        Version: 3 (0x2)
        Serial Number: 8084 (0x1f94)
    Signature Algorithm: md5WithRSAEncryption
        Issuer: C=US, ST=OH, L=Columbus, O=VikingVPN, OU=MyOrganizationalUnit, CN=VikingVPN CA/name=EasyRSA/emailAddress=me@myhost.mydomain
        Validity
            Not Before: May 27 16:52:42 2016 GMT
            Not After : May 25 16:52:42 2026 GMT
        Subject: CN=Client2335Cert0f41a3
        Subject Public Key Info:
            Public Key Algorithm: rsaEncryption
                Public-Key: (4096 bit)
                Modulus:
                    00:c2:aa:2a:54:42:13:20:b8:e2:43:23:01:a1:06:
                    7f:11:f8:bf:c9:d0:76:5c:85:5b:6b:2a:fe:76:38:
                    4e:11:f0:ec:22:9c:b2:54:cd:9f:1f:ab:8b:5f:3a:
                    98:3c:00:25:12:fe:64:f3:2c:74:10:02:d9:72:ab:
                    42:7f:d3:57:bd:8a:59:6c:da:f3:19:13:c0:6b:ed:
                    65:ab:65:9b:b3:06:79:50:66:d7:51:10:16:2a:d9:
                    ba:3b:98:74:82:1e:98:cf:b0:ab:0b:b2:13:52:cb:
                    9a:e1:4f:c6:dd:e3:31:c6:db:c9:6a:35:af:53:72:
                    33:25:06:74:7b:f4:f5:6f:9a:14:b7:2f:53:f3:7d:
                    df:bc:f6:9c:86:d4:37:7d:06:03:a2:45:57:7b:d9:
                    84:48:94:d7:0d:f7:64:9b:49:40:5e:1b:82:29:55:
                    40:8f:d8:26:31:35:68:94:a2:a6:51:9e:b5:1e:1a:
                    89:b9:3a:a3:c2:0e:7a:36:2c:42:bf:d9:e7:6f:c8:
                    d9:1e:bb:7d:be:68:1c:93:46:d7:46:9f:54:22:ae:
                    b1:69:da:2a:df:12:cc:6a:06:66:d4:0a:53:40:a8:
                    2d:b7:62:d6:2d:0f:e8:07:0a:b5:8b:36:65:06:fd:
                    f3:63:93:0e:ed:a0:c9:84:25:98:c1:c5:aa:4d:04:
                    c5:b0:82:88:f9:a3:5d:de:b1:50:23:c4:28:97:cb:
                    82:f7:a9:f0:e2:1f:02:72:63:8b:ca:05:5e:1a:09:
                    e5:c0:0a:64:16:6b:d2:0a:70:52:a6:d8:ee:c0:6a:
                    c3:f7:30:56:35:b2:80:91:d9:40:91:a2:fe:51:02:
                    98:3c:2d:36:9e:fe:07:19:4e:44:87:ba:7e:8a:60:
                    30:46:12:87:f9:4f:9c:0f:ed:98:56:15:e2:b0:e5:
                    04:69:5d:ec:b8:9c:ee:85:88:ca:60:91:68:53:64:
                    76:3f:0c:54:4f:93:31:11:1f:60:78:d6:a7:6d:8a:
                    a2:52:e6:91:27:02:6d:75:34:4e:e9:b7:77:2c:ff:
                    45:29:36:14:ed:f9:f4:a2:c2:6b:27:f2:37:24:a6:
                    4c:bd:fd:5a:5d:32:68:70:b8:61:dd:d5:9b:64:d5:
                    7b:ce:a8:3e:73:0a:2b:b6:c4:c4:d8:23:c1:d6:12:
                    5f:6c:44:86:32:2e:01:0c:21:d4:cc:dc:62:9a:63:
                    d8:6d:48:20:80:b2:e9:61:07:80:50:c9:9c:fe:e2:
                    72:ae:23:88:be:b6:02:61:b9:21:ad:e6:ca:81:2c:
                    cf:39:51:60:ba:8f:26:98:62:67:34:ce:fd:87:57:
                    89:61:06:3c:bf:eb:33:8f:15:47:64:2b:9f:40:a9:
                    e3:24:cf
                Exponent: 65537 (0x10001)
        X509v3 extensions:
            X509v3 Basic Constraints: 
                CA:FALSE
            Netscape Comment: 
                Easy-RSA Generated Certificate
            X509v3 Subject Key Identifier: 
                AC:36:B2:04:9E:A8:60:F5:FD:43:28:19:AD:71:6B:12:EE:2A:A0:DD
            X509v3 Authority Key Identifier: 
                keyid:12:CD:60:04:D2:A0:80:9E:70:ED:C6:99:B8:7B:2C:C6:52:FD:19:A1
                DirName:/C=US/ST=OH/L=Columbus/O=VikingVPN/OU=MyOrganizationalUnit/CN=VikingVPN CA/name=EasyRSA/emailAddress=me@myhost.mydomain
                serial:CF:35:85:EE:80:BF:2A:3E

            X509v3 Extended Key Usage: 
                TLS Web Client Authentication
            X509v3 Key Usage: 
                Digital Signature
    Signature Algorithm: md5WithRSAEncryption
         b2:9e:c1:15:bb:8a:24:21:82:a5:01:fe:59:55:27:1d:08:40:
         2f:8c:ca:ee:8a:bf:5e:c1:91:32:d7:cb:99:a8:d7:9c:1e:14:
         ae:c7:8e:0a:d4:dd:e9:96:78:55:80:45:f2:37:13:45:9a:4f:
         c9:f3:99:0e:0b:7b:f4:a5:e1:89:75:fb:70:b8:25:d3:61:1a:
         61:0b:93:e3:2a:5e:72:43:78:bd:6c:f2:cf:0d:7a:ba:8f:14:
         ac:d9:d3:6f:22:1f:95:46:50:75:b4:b3:25:6a:7d:15:a7:a9:
         6c:2d:bc:25:ab:96:90:7f:4f:5f:a6:b7:27:3c:bd:c4:a5:b0:
         a9:e4:20:6f:4e:3c:28:9c:de:16:99:c1:19:db:7a:5a:98:4f:
         ef:84:d9:fb:14:82:42:4f:e2:1a:50:0b:90:f5:cd:9d:40:fe:
         08:9a:1b:b4:74:75:28:e1:34:a4:65:24:e5:86:14:9e:a6:df:
         90:42:12:e8:91:fb:e5:d9:1d:b7:e0:7f:d5:12:ef:02:ca:f5:
         96:d5:a5:78:d9:5a:e8:ec:57:74:a4:cf:1d:1f:92:48:16:6a:
         a0:46:dd:db:d7:cc:d3:66:72:3a:54:ee:2e:20:f1:2e:aa:9d:
         49:62:44:bc:df:aa:5a:14:ae:34:7b:18:6f:dd:ab:db:d0:8e:
         03:b7:fd:a9:50:8c:e1:e0:9b:d7:1f:8c:8c:73:5a:a0:33:f7:
         b0:1e:21:a9:62:28:95:21:53:84:1a:6f:d2:b1:52:02:34:96:
         c2:5a:09:bf:6c:a5:dc:64:54:46:5b:35:c5:67:94:a6:5a:8e:
         44:fe:34:8c:e1:c9:f5:a9:d6:0d:e1:fc:1f:98:0b:be:df:2e:
         81:ad:a3:a2:b0:34:03:34:c1:e3:7c:bc:4c:8b:ed:a7:9c:f7:
         b3:44:cf:dd:59:33:40:24:14:6d:77:d4:a2:4f:62:37:63:e7:
         a4:ae:19:e7:ba:86:c7:02:66:a7:b3:3e:db:ad:83:e7:e5:c7:
         eb:d9:6f:49:31:50:f1:bd:88:80:fe:1a:e2:bd:3d:05:d2:3d:
         53:96:4b:48:7b:af:20:5c:a1:75:82:c4:f1:79:60:49:be:8f:
         b5:8c:c8:f7:c6:45:f4:23:ba:ca:e4:b7:ae:d4:79:60:5d:10:
         f8:f1:55:24:45:99:0f:6a:ca:75:08:07:de:27:85:04:68:f6:
         05:57:40:67:ec:d1:59:f6:f4:bb:8a:71:fc:46:57:a6:3c:64:
         d9:54:59:58:77:86:fa:46:e3:21:fa:8b:96:73:2b:68:1b:3a:
         20:40:60:a9:97:80:93:d6:52:8c:b8:3e:ff:af:9e:e8:64:44:
         9e:c3:78:dd:63:0c:28:a5
-----BEGIN CERTIFICATE-----
MIIGrTCCBJWgAwIBAgICH5QwDQYJKoZIhvcNAQEEBQAwgawxCzAJBgNVBAYTAlVT
MQswCQYDVQQIEwJPSDERMA8GA1UEBxMIQ29sdW1idXMxEjAQBgNVBAoTCVZpa2lu
Z1ZQTjEdMBsGA1UECxMUTXlPcmdhbml6YXRpb25hbFVuaXQxFTATBgNVBAMTDFZp
a2luZ1ZQTiBDQTEQMA4GA1UEKRMHRWFzeVJTQTEhMB8GCSqGSIb3DQEJARYSbWVA
bXlob3N0Lm15ZG9tYWluMB4XDTE2MDUyNzE2NTI0MloXDTI2MDUyNTE2NTI0Mlow
HzEdMBsGA1UEAxMUQ2xpZW50MjMzNUNlcnQwZjQxYTMwggIiMA0GCSqGSIb3DQEB
AQUAA4ICDwAwggIKAoICAQDCqipUQhMguOJDIwGhBn8R+L/J0HZchVtrKv52OE4R
8OwinLJUzZ8fq4tfOpg8ACUS/mTzLHQQAtlyq0J/01e9ills2vMZE8Br7WWrZZuz
BnlQZtdREBYq2bo7mHSCHpjPsKsLshNSy5rhT8bd4zHG28lqNa9TcjMlBnR79PVv
mhS3L1Pzfd+89pyG1Dd9BgOiRVd72YRIlNcN92SbSUBeG4IpVUCP2CYxNWiUoqZR
nrUeGom5OqPCDno2LEK/2edvyNkeu32+aByTRtdGn1QirrFp2irfEsxqBmbUClNA
qC23YtYtD+gHCrWLNmUG/fNjkw7toMmEJZjBxapNBMWwgoj5o13esVAjxCiXy4L3
qfDiHwJyY4vKBV4aCeXACmQWa9IKcFKm2O7AasP3MFY1soCR2UCRov5RApg8LTae
/gcZTkSHun6KYDBGEof5T5wP7ZhWFeKw5QRpXey4nO6FiMpgkWhTZHY/DFRPkzER
H2B41qdtiqJS5pEnAm11NE7pt3cs/0UpNhTt+fSiwmsn8jckpky9/VpdMmhwuGHd
1Ztk1XvOqD5zCiu2xMTYI8HWEl9sRIYyLgEMIdTM3GKaY9htSCCAsulhB4BQyZz+
4nKuI4i+tgJhuSGt5sqBLM85UWC6jyaYYmc0zv2HV4lhBjy/6zOPFUdkK59AqeMk
zwIDAQABo4IBYzCCAV8wCQYDVR0TBAIwADAtBglghkgBhvhCAQ0EIBYeRWFzeS1S
U0EgR2VuZXJhdGVkIENlcnRpZmljYXRlMB0GA1UdDgQWBBSsNrIEnqhg9f1DKBmt
cWsS7iqg3TCB4QYDVR0jBIHZMIHWgBQSzWAE0qCAnnDtxpm4eyzGUv0ZoaGBsqSB
rzCBrDELMAkGA1UEBhMCVVMxCzAJBgNVBAgTAk9IMREwDwYDVQQHEwhDb2x1bWJ1
czESMBAGA1UEChMJVmlraW5nVlBOMR0wGwYDVQQLExRNeU9yZ2FuaXphdGlvbmFs
VW5pdDEVMBMGA1UEAxMMVmlraW5nVlBOIENBMRAwDgYDVQQpEwdFYXN5UlNBMSEw
HwYJKoZIhvcNAQkBFhJtZUBteWhvc3QubXlkb21haW6CCQDPNYXugL8qPjATBgNV
HSUEDDAKBggrBgEFBQcDAjALBgNVHQ8EBAMCB4AwDQYJKoZIhvcNAQEEBQADggIB
ALKewRW7iiQhgqUB/llVJx0IQC+Myu6Kv17BkTLXy5mo15weFK7HjgrU3emWeFWA
RfI3E0WaT8nzmQ4Le/Sl4Yl1+3C4JdNhGmELk+MqXnJDeL1s8s8NerqPFKzZ028i
H5VGUHW0syVqfRWnqWwtvCWrlpB/T1+mtyc8vcSlsKnkIG9OPCic3haZwRnbelqY
T++E2fsUgkJP4hpQC5D1zZ1A/giaG7R0dSjhNKRlJOWGFJ6m35BCEuiR++XZHbfg
f9US7wLK9ZbVpXjZWujsV3Skzx0fkkgWaqBG3dvXzNNmcjpU7i4g8S6qnUliRLzf
qloUrjR7GG/dq9vQjgO3/alQjOHgm9cfjIxzWqAz97AeIaliKJUhU4Qab9KxUgI0
lsJaCb9spdxkVEZbNcVnlKZajkT+NIzhyfWp1g3h/B+YC77fLoGto6KwNAM0weN8
vEyL7aec97NEz91ZM0AkFG131KJPYjdj56SuGee6hscCZqezPtutg+flx+vZb0kx
UPG9iID+GuK9PQXSPVOWS0h7ryBcoXWCxPF5YEm+j7WMyPfGRfQjusrkt67UeWBd
EPjxVSRFmQ9qynUIB94nhQRo9gVXQGfs0Vn29LuKcfxGV6Y8ZNlUWVh3hvpG4yH6
i5ZzK2gbOiBAYKmXgJPWUoy4Pv+vnuhkRJ7DeN1jDCil
-----END CERTIFICATE-----
