Certificate:
    Data:
        Version: 3 (0x2)
        Serial Number: 8110 (0x1fae)
    Signature Algorithm: md5WithRSAEncryption
        Issuer: C=US, ST=OH, L=Columbus, O=VikingVPN, OU=MyOrganizationalUnit, CN=VikingVPN CA/name=EasyRSA/emailAddress=me@myhost.mydomain
        Validity
            Not Before: May 30 18:30:33 2016 GMT
            Not After : May 28 18:30:33 2026 GMT
        Subject: CN=Client2355Cert13cf8f
        Subject Public Key Info:
            Public Key Algorithm: rsaEncryption
                Public-Key: (4096 bit)
                Modulus:
                    00:c0:23:dc:97:08:48:4e:7d:e9:85:aa:a5:d2:66:
                    ac:0f:86:b5:73:3a:47:4c:74:78:00:5b:4f:33:a3:
                    39:66:23:63:27:e2:d4:80:f7:ef:dd:fe:8c:d2:8d:
                    fa:0e:7f:bc:5b:fd:fd:ae:4a:b7:da:2f:c2:41:9a:
                    89:eb:d7:b9:32:28:de:6a:41:79:bf:80:cc:06:33:
                    42:d8:a4:f5:4d:4e:d9:3b:7c:c5:dc:c9:0d:a0:a1:
                    98:e3:f0:20:14:b9:c8:77:ec:44:77:bc:c5:66:71:
                    d4:ee:9d:20:53:2b:e6:ed:c2:a5:51:a6:86:e8:16:
                    6a:0c:c0:6c:ef:eb:8b:54:ef:0e:ae:79:d1:f2:48:
                    f9:b6:9d:f7:61:85:83:92:dd:4d:1b:ef:cb:12:41:
                    fc:4d:db:17:1b:d3:28:f1:14:4a:cd:a2:df:1f:35:
                    90:bd:09:58:ba:7d:f2:8c:27:52:2c:b7:56:1c:5f:
                    58:42:d8:d6:ed:a3:57:85:ef:91:ef:80:19:ec:3e:
                    6a:0d:c1:53:7c:b5:9e:e7:50:09:37:0c:3e:1b:92:
                    d2:04:92:36:65:5b:ee:61:b6:ee:c2:76:dd:d5:19:
                    d1:44:70:5d:c2:b8:59:f4:d8:b2:58:82:b1:cf:06:
                    dc:ec:3f:ba:90:c9:95:83:90:b3:24:89:48:53:e9:
                    78:e4:be:da:87:3f:ce:c8:4e:35:11:12:f1:1d:3b:
                    31:96:1c:8b:af:e5:26:a7:49:e7:d8:eb:40:4a:2f:
                    28:95:ac:86:bd:e6:d3:17:af:94:af:d6:d7:3c:6a:
                    91:30:1e:a0:2a:e0:c5:2a:17:9b:57:c3:4f:b3:d7:
                    be:93:d9:da:c7:94:11:b1:ec:1c:f7:51:e9:71:86:
                    23:01:30:b1:cb:dd:38:89:b8:ea:99:43:03:98:04:
                    15:50:09:22:66:c3:8c:c4:6e:93:a6:3e:cb:31:da:
                    8b:44:de:80:af:db:8a:2d:ce:b8:50:49:87:fc:cf:
                    05:cd:26:fd:f2:25:aa:d8:5a:7d:6b:32:1b:a6:62:
                    ea:39:93:d0:4d:b2:9c:6f:ac:87:85:f3:c0:79:0e:
                    75:0e:45:28:09:5f:4a:f0:07:ce:40:b4:71:b1:af:
                    fa:b1:40:cd:59:4c:54:0a:7d:bd:49:76:1d:74:a2:
                    0b:b9:cd:f2:19:33:10:07:35:df:75:ba:9b:d2:8a:
                    ae:39:6c:8b:c9:b1:46:38:41:b0:1e:8f:a3:3f:17:
                    c1:d1:af:3a:55:e3:d2:81:66:82:14:e8:37:94:da:
                    90:bc:09:7c:9a:6a:f2:c0:79:2e:40:6f:ab:3d:86:
                    49:f0:cc:cd:31:b9:97:89:12:86:8d:65:f5:2c:58:
                    1a:8e:81
                Exponent: 65537 (0x10001)
        X509v3 extensions:
            X509v3 Basic Constraints: 
                CA:FALSE
            Netscape Comment: 
                Easy-RSA Generated Certificate
            X509v3 Subject Key Identifier: 
                B5:D1:6D:E8:BD:19:42:55:55:AC:EA:06:F0:9A:EC:F3:EB:2D:83:C8
            X509v3 Authority Key Identifier: 
                keyid:12:CD:60:04:D2:A0:80:9E:70:ED:C6:99:B8:7B:2C:C6:52:FD:19:A1
                DirName:/C=US/ST=OH/L=Columbus/O=VikingVPN/OU=MyOrganizationalUnit/CN=VikingVPN CA/name=EasyRSA/emailAddress=me@myhost.mydomain
                serial:CF:35:85:EE:80:BF:2A:3E

            X509v3 Extended Key Usage: 
                TLS Web Client Authentication
            X509v3 Key Usage: 
                Digital Signature
    Signature Algorithm: md5WithRSAEncryption
         21:6b:03:40:33:44:92:e6:50:f7:93:35:91:d3:35:f5:86:b6:
         3c:b1:d0:9c:3e:21:55:01:bc:97:86:4a:90:f6:bb:6e:91:e7:
         c0:bf:75:ef:61:34:40:27:86:47:46:95:3f:02:f1:57:0f:43:
         05:81:86:8d:0c:8c:c9:ac:0e:9a:36:01:b6:f9:51:9b:70:8c:
         2d:06:39:bd:1f:95:9d:26:bf:c1:c2:65:8e:96:a0:9f:0b:84:
         4e:de:da:b6:3e:4e:38:62:0f:3f:db:dd:02:4e:63:0f:24:b9:
         f4:cc:80:08:cd:26:ce:e6:17:f2:38:2a:41:3e:d7:57:9a:07:
         e5:e2:d6:0d:ea:75:05:8c:20:ae:c4:6f:c5:1a:cc:6f:a3:7b:
         38:6b:df:97:57:e4:2e:d0:52:a3:f7:9d:4c:f3:6c:2f:28:99:
         c0:1a:ff:21:a6:52:11:08:b9:00:03:bf:f7:b0:4e:a4:1d:09:
         83:f0:1f:d6:4b:31:1d:b1:e5:8f:91:86:02:07:f3:c8:90:88:
         31:28:e9:7b:cf:4c:b0:de:53:ed:82:3d:d3:0e:9a:57:b4:eb:
         bb:41:e1:8a:8d:fc:06:06:3d:a3:9b:5c:c7:47:da:fb:51:e5:
         ee:f1:dd:ec:6a:96:dc:99:b2:3d:d8:4a:6b:0f:13:b3:84:b4:
         f3:01:84:09:a5:1f:2c:77:98:00:af:8c:f5:42:3c:40:73:e8:
         03:fc:02:ed:2f:9a:fd:bf:63:59:ca:8f:75:98:33:49:6c:c1:
         03:db:c7:de:5d:72:d2:45:64:99:53:22:b4:33:44:54:98:5e:
         83:4e:4c:01:71:9b:ea:a0:0c:dc:26:73:17:bb:e2:43:dc:6f:
         a3:98:11:80:fc:7f:0f:82:c1:77:31:79:6f:d1:46:fe:10:72:
         89:67:ee:8f:8f:cd:0f:57:94:3d:62:a6:1a:21:16:b9:ff:a3:
         76:7c:b6:f8:cb:78:e4:b1:d6:df:e6:ba:53:68:10:66:b8:db:
         fc:96:ef:c4:45:57:ce:0c:23:98:c3:26:72:21:77:2b:60:58:
         20:07:5d:35:cd:95:3f:4f:1f:5c:ca:43:9c:f3:a3:19:de:09:
         49:19:dd:6c:16:b9:83:17:ef:d1:c2:8b:e8:0e:5c:96:9a:7b:
         f3:fa:5a:95:da:12:9b:4d:18:88:00:66:8e:3e:65:62:63:8d:
         ae:dd:2e:b7:41:98:6a:51:cf:f8:9f:52:74:80:8b:ec:5d:49:
         e5:08:9c:eb:be:aa:62:cb:b1:02:31:89:f5:5a:d4:21:51:5b:
         29:15:aa:80:a7:4d:c6:7b:0a:5b:e5:a0:98:ce:63:46:4e:a3:
         b4:23:56:7a:88:5a:18:4e
-----BEGIN CERTIFICATE-----
MIIGrTCCBJWgAwIBAgICH64wDQYJKoZIhvcNAQEEBQAwgawxCzAJBgNVBAYTAlVT
MQswCQYDVQQIEwJPSDERMA8GA1UEBxMIQ29sdW1idXMxEjAQBgNVBAoTCVZpa2lu
Z1ZQTjEdMBsGA1UECxMUTXlPcmdhbml6YXRpb25hbFVuaXQxFTATBgNVBAMTDFZp
a2luZ1ZQTiBDQTEQMA4GA1UEKRMHRWFzeVJTQTEhMB8GCSqGSIb3DQEJARYSbWVA
bXlob3N0Lm15ZG9tYWluMB4XDTE2MDUzMDE4MzAzM1oXDTI2MDUyODE4MzAzM1ow
HzEdMBsGA1UEAxMUQ2xpZW50MjM1NUNlcnQxM2NmOGYwggIiMA0GCSqGSIb3DQEB
AQUAA4ICDwAwggIKAoICAQDAI9yXCEhOfemFqqXSZqwPhrVzOkdMdHgAW08zozlm
I2Mn4tSA9+/d/ozSjfoOf7xb/f2uSrfaL8JBmonr17kyKN5qQXm/gMwGM0LYpPVN
Ttk7fMXcyQ2goZjj8CAUuch37ER3vMVmcdTunSBTK+btwqVRpoboFmoMwGzv64tU
7w6uedHySPm2nfdhhYOS3U0b78sSQfxN2xcb0yjxFErNot8fNZC9CVi6ffKMJ1Is
t1YcX1hC2Nbto1eF75HvgBnsPmoNwVN8tZ7nUAk3DD4bktIEkjZlW+5htu7Cdt3V
GdFEcF3CuFn02LJYgrHPBtzsP7qQyZWDkLMkiUhT6XjkvtqHP87ITjUREvEdOzGW
HIuv5SanSefY60BKLyiVrIa95tMXr5Sv1tc8apEwHqAq4MUqF5tXw0+z176T2drH
lBGx7Bz3UelxhiMBMLHL3TiJuOqZQwOYBBVQCSJmw4zEbpOmPssx2otE3oCv24ot
zrhQSYf8zwXNJv3yJarYWn1rMhumYuo5k9BNspxvrIeF88B5DnUORSgJX0rwB85A
tHGxr/qxQM1ZTFQKfb1Jdh10ogu5zfIZMxAHNd91upvSiq45bIvJsUY4QbAej6M/
F8HRrzpV49KBZoIU6DeU2pC8CXyaavLAeS5Ab6s9hknwzM0xuZeJEoaNZfUsWBqO
gQIDAQABo4IBYzCCAV8wCQYDVR0TBAIwADAtBglghkgBhvhCAQ0EIBYeRWFzeS1S
U0EgR2VuZXJhdGVkIENlcnRpZmljYXRlMB0GA1UdDgQWBBS10W3ovRlCVVWs6gbw
muzz6y2DyDCB4QYDVR0jBIHZMIHWgBQSzWAE0qCAnnDtxpm4eyzGUv0ZoaGBsqSB
rzCBrDELMAkGA1UEBhMCVVMxCzAJBgNVBAgTAk9IMREwDwYDVQQHEwhDb2x1bWJ1
czESMBAGA1UEChMJVmlraW5nVlBOMR0wGwYDVQQLExRNeU9yZ2FuaXphdGlvbmFs
VW5pdDEVMBMGA1UEAxMMVmlraW5nVlBOIENBMRAwDgYDVQQpEwdFYXN5UlNBMSEw
HwYJKoZIhvcNAQkBFhJtZUBteWhvc3QubXlkb21haW6CCQDPNYXugL8qPjATBgNV
HSUEDDAKBggrBgEFBQcDAjALBgNVHQ8EBAMCB4AwDQYJKoZIhvcNAQEEBQADggIB
ACFrA0AzRJLmUPeTNZHTNfWGtjyx0Jw+IVUBvJeGSpD2u26R58C/de9hNEAnhkdG
lT8C8VcPQwWBho0MjMmsDpo2Abb5UZtwjC0GOb0flZ0mv8HCZY6WoJ8LhE7e2rY+
TjhiDz/b3QJOYw8kufTMgAjNJs7mF/I4KkE+11eaB+Xi1g3qdQWMIK7Eb8UazG+j
ezhr35dX5C7QUqP3nUzzbC8omcAa/yGmUhEIuQADv/ewTqQdCYPwH9ZLMR2x5Y+R
hgIH88iQiDEo6XvPTLDeU+2CPdMOmle067tB4YqN/AYGPaObXMdH2vtR5e7x3exq
ltyZsj3YSmsPE7OEtPMBhAmlHyx3mACvjPVCPEBz6AP8Au0vmv2/Y1nKj3WYM0ls
wQPbx95dctJFZJlTIrQzRFSYXoNOTAFxm+qgDNwmcxe74kPcb6OYEYD8fw+CwXcx
eW/RRv4Qcoln7o+PzQ9XlD1iphohFrn/o3Z8tvjLeOSx1t/mulNoEGa42/yW78RF
V84MI5jDJnIhdytgWCAHXTXNlT9PH1zKQ5zzoxneCUkZ3WwWuYMX79HCi+gOXJaa
e/P6WpXaEptNGIgAZo4+ZWJjja7dLrdBmGpRz/ifUnSAi+xdSeUInOu+qmLLsQIx
ifVa1CFRWykVqoCnTcZ7ClvloJjOY0ZOo7QjVnqIWhhO
-----END CERTIFICATE-----
