Certificate:
    Data:
        Version: 3 (0x2)
        Serial Number: 8121 (0x1fb9)
    Signature Algorithm: md5WithRSAEncryption
        Issuer: C=US, ST=OH, L=Columbus, O=VikingVPN, OU=MyOrganizationalUnit, CN=VikingVPN CA/name=EasyRSA/emailAddress=me@myhost.mydomain
        Validity
            Not Before: Jun  1 07:53:02 2016 GMT
            Not After : May 30 07:53:02 2026 GMT
        Subject: CN=Client2360Certfea407
        Subject Public Key Info:
            Public Key Algorithm: rsaEncryption
                Public-Key: (4096 bit)
                Modulus:
                    00:aa:c2:f1:cf:5b:c5:10:8b:73:af:2a:4d:17:81:
                    1e:83:bf:5a:58:4d:e2:94:b3:1b:27:ad:25:a2:5e:
                    ef:95:17:8c:b4:e5:f5:76:d7:ca:38:92:e2:e6:1f:
                    ed:4a:97:c5:be:e0:d1:8d:d2:e9:a8:0c:2b:e8:3a:
                    81:51:fc:05:40:38:24:40:e6:1b:68:75:7a:3f:53:
                    19:61:63:7f:af:00:63:67:18:0a:25:a3:6a:2d:40:
                    3e:6b:11:78:66:d0:e0:68:ec:96:14:47:c0:81:4b:
                    a4:33:6a:59:b2:7c:43:f1:63:73:9d:fc:17:2b:d0:
                    34:b4:a4:25:f1:27:4e:45:d7:7c:f7:ca:89:37:1c:
                    3f:51:62:ba:13:80:a0:87:7d:1f:bf:f9:ee:55:a0:
                    13:6b:ae:aa:74:f8:2f:70:e0:3f:24:ef:4d:d5:a1:
                    3b:2b:7e:8e:33:bb:7f:36:9d:99:6b:53:47:11:60:
                    bb:7b:01:88:13:b1:d1:51:ea:f2:0f:cc:64:27:9e:
                    7c:d7:1f:3f:30:16:29:48:50:0c:e6:83:84:fb:ea:
                    dd:27:cc:b1:26:13:1e:fa:2b:5a:d0:f0:b8:a1:87:
                    fc:ee:27:ba:da:8b:85:83:22:35:b9:9f:b1:28:10:
                    3e:fc:a4:32:4c:78:a5:ea:53:5c:92:bb:30:cd:d9:
                    6e:d1:9f:16:13:d3:39:62:28:d7:3e:de:bf:15:a8:
                    5b:14:1f:06:8f:4e:e2:dc:9f:f4:da:20:8c:78:79:
                    26:d9:53:4e:eb:b3:53:a8:d1:ec:a5:0b:b1:b9:53:
                    9b:43:fe:4a:07:89:4b:37:d2:0a:22:1f:a5:2d:9c:
                    cb:39:d8:fd:d4:bd:a2:71:c0:ec:b3:06:9a:6e:25:
                    74:54:6b:fc:5e:8b:88:ae:5c:f4:58:51:41:e6:8e:
                    a1:62:25:3e:96:83:9b:ee:f9:43:33:94:41:00:91:
                    2c:61:17:e3:9c:e1:62:cf:81:89:f6:33:ad:e7:8b:
                    dc:dc:d6:ff:30:0a:be:2a:bd:ca:f5:86:12:5d:52:
                    72:8c:b0:13:80:1e:d7:85:b0:17:77:d8:0b:9e:59:
                    bf:0f:f8:3e:5e:f1:41:64:71:19:bb:b0:74:74:6d:
                    57:4b:94:7c:9e:63:7a:80:8e:9a:35:ed:98:99:78:
                    42:23:50:5b:80:9f:10:f1:36:5d:74:bd:75:43:11:
                    10:97:21:26:c0:ea:a4:90:8a:0a:57:a0:06:9c:85:
                    4f:d4:e8:1e:4c:4e:0e:d5:78:1b:c8:79:51:90:80:
                    94:6d:7e:fb:b6:4e:3d:2f:4b:3c:ae:dd:7b:d2:90:
                    d6:f2:25:1f:0a:09:b7:f3:b9:dd:99:75:df:82:d1:
                    09:51:3b
                Exponent: 65537 (0x10001)
        X509v3 extensions:
            X509v3 Basic Constraints: 
                CA:FALSE
            Netscape Comment: 
                Easy-RSA Generated Certificate
            X509v3 Subject Key Identifier: 
                F6:5B:E6:A2:31:07:26:1E:38:A7:FF:5C:11:47:FD:AC:93:2F:6A:1D
            X509v3 Authority Key Identifier: 
                keyid:12:CD:60:04:D2:A0:80:9E:70:ED:C6:99:B8:7B:2C:C6:52:FD:19:A1
                DirName:/C=US/ST=OH/L=Columbus/O=VikingVPN/OU=MyOrganizationalUnit/CN=VikingVPN CA/name=EasyRSA/emailAddress=me@myhost.mydomain
                serial:CF:35:85:EE:80:BF:2A:3E

            X509v3 Extended Key Usage: 
                TLS Web Client Authentication
            X509v3 Key Usage: 
                Digital Signature
    Signature Algorithm: md5WithRSAEncryption
         25:65:18:cb:f4:74:f7:68:f8:9e:73:aa:d0:c7:67:24:06:5b:
         f9:b9:b3:05:75:71:d6:51:2f:85:a9:91:29:ec:8d:3c:e2:65:
         c3:c9:7e:23:07:ef:3b:2c:b5:ff:fd:57:21:94:80:6f:87:11:
         87:14:05:20:64:d4:38:a6:b9:70:70:c6:05:e3:fc:f8:63:39:
         b8:78:c3:75:43:5b:d8:7b:37:37:7b:a4:85:de:a7:b6:39:dc:
         25:fc:fc:83:e2:ab:97:8a:2b:a3:50:e7:56:5d:3d:c0:21:70:
         90:96:6b:30:08:e8:44:a9:1f:1d:1c:98:63:7d:eb:e6:63:00:
         7a:e3:c3:a0:60:0a:1f:e8:a6:08:7f:92:77:a3:eb:49:62:e9:
         d3:98:fc:f5:69:6c:e0:f3:05:65:31:54:52:f6:5c:11:9f:e3:
         6f:4b:c2:ac:27:d1:fa:e1:8b:b3:32:9a:07:a9:e2:3e:ab:83:
         e8:86:fa:ae:ce:70:fd:a8:34:27:66:4f:b3:0a:4f:00:e0:ae:
         9d:f8:04:61:7a:ac:a2:23:9f:3e:9a:cc:a0:58:c8:04:22:bd:
         42:a4:6e:1c:d5:97:44:66:78:33:bc:92:55:9a:c4:4a:fb:a1:
         4f:4b:0a:29:8a:4b:3a:37:71:3c:c5:53:2a:0e:c0:04:29:6d:
         11:c6:6d:0c:e4:60:31:ac:0f:e0:53:e5:ab:10:04:9f:a3:c9:
         43:28:9c:35:ec:6e:c5:52:88:3e:85:72:b4:ec:52:c0:75:14:
         cf:d2:f1:4f:45:03:bb:d1:15:e3:8b:7f:e9:ca:77:54:b0:86:
         7a:27:8c:b1:05:ba:0d:d2:54:c5:97:62:83:81:9a:61:64:17:
         23:f6:0c:ba:dd:5c:44:65:07:93:df:02:fc:3b:30:1d:0a:86:
         a8:69:b3:48:b8:c6:0f:09:78:67:c4:0f:88:d0:6e:b6:e3:36:
         ed:f3:1f:af:2d:ac:9f:95:5b:56:7c:a5:d4:c6:60:bc:f2:cf:
         f4:02:aa:6a:24:74:99:e3:4e:3c:6d:3b:c0:0e:de:4d:3a:89:
         f5:0a:87:34:60:94:b3:7e:06:c7:cc:6e:40:8f:d7:cc:a6:bb:
         a5:df:c2:7a:c3:68:e7:de:8b:07:54:35:7e:d1:d4:c7:5f:fc:
         cc:ce:f8:e8:b6:99:70:8f:a2:66:05:d6:f2:b9:f8:28:25:19:
         53:63:b6:b8:1c:06:96:6e:5b:cd:5f:00:04:20:5b:9c:19:93:
         b0:bd:3d:3e:c1:dd:b5:40:c5:3d:4d:e2:10:82:1c:b8:56:4b:
         e1:a0:8e:6e:a4:69:67:2f:56:8f:86:02:79:00:cf:3a:d6:d1:
         5c:32:d3:d7:d7:fb:23:ec
-----BEGIN CERTIFICATE-----
MIIGrTCCBJWgAwIBAgICH7kwDQYJKoZIhvcNAQEEBQAwgawxCzAJBgNVBAYTAlVT
MQswCQYDVQQIEwJPSDERMA8GA1UEBxMIQ29sdW1idXMxEjAQBgNVBAoTCVZpa2lu
Z1ZQTjEdMBsGA1UECxMUTXlPcmdhbml6YXRpb25hbFVuaXQxFTATBgNVBAMTDFZp
a2luZ1ZQTiBDQTEQMA4GA1UEKRMHRWFzeVJTQTEhMB8GCSqGSIb3DQEJARYSbWVA
bXlob3N0Lm15ZG9tYWluMB4XDTE2MDYwMTA3NTMwMloXDTI2MDUzMDA3NTMwMlow
HzEdMBsGA1UEAxMUQ2xpZW50MjM2MENlcnRmZWE0MDcwggIiMA0GCSqGSIb3DQEB
AQUAA4ICDwAwggIKAoICAQCqwvHPW8UQi3OvKk0XgR6Dv1pYTeKUsxsnrSWiXu+V
F4y05fV218o4kuLmH+1Kl8W+4NGN0umoDCvoOoFR/AVAOCRA5htodXo/UxlhY3+v
AGNnGAolo2otQD5rEXhm0OBo7JYUR8CBS6QzalmyfEPxY3Od/Bcr0DS0pCXxJ05F
13z3yok3HD9RYroTgKCHfR+/+e5VoBNrrqp0+C9w4D8k703VoTsrfo4zu382nZlr
U0cRYLt7AYgTsdFR6vIPzGQnnnzXHz8wFilIUAzmg4T76t0nzLEmEx76K1rQ8Lih
h/zuJ7rai4WDIjW5n7EoED78pDJMeKXqU1ySuzDN2W7RnxYT0zliKNc+3r8VqFsU
HwaPTuLcn/TaIIx4eSbZU07rs1Oo0eylC7G5U5tD/koHiUs30goiH6UtnMs52P3U
vaJxwOyzBppuJXRUa/xei4iuXPRYUUHmjqFiJT6Wg5vu+UMzlEEAkSxhF+Oc4WLP
gYn2M63ni9zc1v8wCr4qvcr1hhJdUnKMsBOAHteFsBd32AueWb8P+D5e8UFkcRm7
sHR0bVdLlHyeY3qAjpo17ZiZeEIjUFuAnxDxNl10vXVDERCXISbA6qSQigpXoAac
hU/U6B5MTg7VeBvIeVGQgJRtfvu2Tj0vSzyu3XvSkNbyJR8KCbfzud2Zdd+C0QlR
OwIDAQABo4IBYzCCAV8wCQYDVR0TBAIwADAtBglghkgBhvhCAQ0EIBYeRWFzeS1S
U0EgR2VuZXJhdGVkIENlcnRpZmljYXRlMB0GA1UdDgQWBBT2W+aiMQcmHjin/1wR
R/2sky9qHTCB4QYDVR0jBIHZMIHWgBQSzWAE0qCAnnDtxpm4eyzGUv0ZoaGBsqSB
rzCBrDELMAkGA1UEBhMCVVMxCzAJBgNVBAgTAk9IMREwDwYDVQQHEwhDb2x1bWJ1
czESMBAGA1UEChMJVmlraW5nVlBOMR0wGwYDVQQLExRNeU9yZ2FuaXphdGlvbmFs
VW5pdDEVMBMGA1UEAxMMVmlraW5nVlBOIENBMRAwDgYDVQQpEwdFYXN5UlNBMSEw
HwYJKoZIhvcNAQkBFhJtZUBteWhvc3QubXlkb21haW6CCQDPNYXugL8qPjATBgNV
HSUEDDAKBggrBgEFBQcDAjALBgNVHQ8EBAMCB4AwDQYJKoZIhvcNAQEEBQADggIB
ACVlGMv0dPdo+J5zqtDHZyQGW/m5swV1cdZRL4WpkSnsjTziZcPJfiMH7zsstf/9
VyGUgG+HEYcUBSBk1DimuXBwxgXj/PhjObh4w3VDW9h7Nzd7pIXep7Y53CX8/IPi
q5eKK6NQ51ZdPcAhcJCWazAI6ESpHx0cmGN96+ZjAHrjw6BgCh/opgh/knej60li
6dOY/PVpbODzBWUxVFL2XBGf429Lwqwn0frhi7Mymgep4j6rg+iG+q7OcP2oNCdm
T7MKTwDgrp34BGF6rKIjnz6azKBYyAQivUKkbhzVl0RmeDO8klWaxEr7oU9LCimK
Szo3cTzFUyoOwAQpbRHGbQzkYDGsD+BT5asQBJ+jyUMonDXsbsVSiD6FcrTsUsB1
FM/S8U9FA7vRFeOLf+nKd1SwhnonjLEFug3SVMWXYoOBmmFkFyP2DLrdXERlB5Pf
Avw7MB0Khqhps0i4xg8JeGfED4jQbrbjNu3zH68trJ+VW1Z8pdTGYLzyz/QCqmok
dJnjTjxtO8AO3k06ifUKhzRglLN+BsfMbkCP18ymu6XfwnrDaOfeiwdUNX7R1Mdf
/MzO+Oi2mXCPomYF1vK5+CglGVNjtrgcBpZuW81fAAQgW5wZk7C9PT7B3bVAxT1N
4hCCHLhWS+Ggjm6kaWcvVo+GAnkAzzrW0Vwy09fX+yPs
-----END CERTIFICATE-----
