Certificate:
    Data:
        Version: 3 (0x2)
        Serial Number: 8126 (0x1fbe)
    Signature Algorithm: md5WithRSAEncryption
        Issuer: C=US, ST=OH, L=Columbus, O=VikingVPN, OU=MyOrganizationalUnit, CN=VikingVPN CA/name=EasyRSA/emailAddress=me@myhost.mydomain
        Validity
            Not Before: Jun  2 01:28:41 2016 GMT
            Not After : May 31 01:28:41 2026 GMT
        Subject: CN=Client1803Cert63fff8
        Subject Public Key Info:
            Public Key Algorithm: rsaEncryption
                Public-Key: (4096 bit)
                Modulus:
                    00:cd:39:1a:95:4c:81:5a:88:0d:0a:2d:bd:b7:74:
                    a5:cd:1c:96:17:95:ec:c6:8d:e9:39:59:17:9a:00:
                    d1:1b:bb:07:4f:18:bf:cd:ab:28:95:bd:df:8d:58:
                    f2:48:e8:a1:bf:43:88:03:6c:47:eb:c8:5f:44:2c:
                    2c:82:bc:d1:22:d6:b8:c7:9b:fd:df:a6:88:bb:e3:
                    69:bc:cf:2e:4e:a4:7b:15:90:04:c2:41:dd:b8:1c:
                    34:bb:f6:75:34:b0:b8:80:7b:67:db:39:e8:6a:00:
                    59:07:56:85:94:3a:c4:d6:34:30:8a:37:95:1a:c4:
                    89:62:dd:f8:bb:dd:d1:3a:d3:d7:cc:8a:36:99:94:
                    8e:43:6a:b0:f0:67:5e:28:2b:7d:96:de:45:51:28:
                    36:62:37:15:8c:46:3e:b7:73:8d:35:a1:98:0e:12:
                    ea:f6:76:74:41:b3:e8:ae:d9:36:27:fb:8e:b5:45:
                    76:02:6d:67:3c:5e:25:b5:43:53:7b:bc:95:2e:61:
                    e7:1f:a0:cd:ad:99:bd:29:a5:f5:11:8c:dc:2c:cf:
                    5e:5c:a5:69:22:bf:43:66:da:a7:28:e7:23:e4:ae:
                    a9:6c:56:49:60:ef:70:1d:fb:1a:66:41:b2:1c:76:
                    b4:4d:48:66:61:2b:1f:a2:6c:7d:04:ec:05:77:ec:
                    f5:71:6f:dc:b1:a5:b2:be:24:a0:f0:9c:46:94:d2:
                    a4:64:f8:a8:25:10:c2:d3:dd:23:eb:25:e1:a7:43:
                    e3:b4:f0:c4:23:28:dd:aa:b1:10:91:5b:ac:b2:15:
                    96:d9:2f:f7:ce:e7:af:51:b4:ca:2f:ae:fc:6a:ce:
                    b7:f3:b2:12:45:ef:18:3e:fd:ab:3a:0c:33:2d:c0:
                    7c:15:24:3f:16:43:6a:d0:8f:d1:2a:89:cf:e4:60:
                    39:30:c2:21:34:6f:5b:31:91:b1:d5:5c:14:d6:81:
                    2e:f0:e2:55:c0:ce:4e:6a:a1:25:8a:16:29:a7:70:
                    16:9f:12:17:68:7f:3f:2b:30:6d:a2:16:98:76:2a:
                    a7:f5:6f:59:a7:83:93:dc:9a:8e:dd:9c:68:e5:96:
                    22:4c:e4:42:4e:3a:21:e9:e3:d4:18:de:80:11:08:
                    21:d2:6d:23:f8:af:e3:57:84:bc:a1:bf:25:50:4c:
                    0c:04:16:3b:65:0b:7e:39:5c:10:7b:36:c3:05:19:
                    9f:07:71:81:2e:45:30:47:e1:4d:75:a1:6a:d6:db:
                    22:d6:a8:04:5c:f2:e7:3f:41:ee:07:75:6c:0b:3b:
                    89:8f:53:61:ad:3f:01:57:1c:6d:5f:f8:b9:fc:e3:
                    48:fd:f4:1e:d6:54:83:bc:ca:e9:31:89:76:2f:db:
                    3a:bb:93
                Exponent: 65537 (0x10001)
        X509v3 extensions:
            X509v3 Basic Constraints: 
                CA:FALSE
            Netscape Comment: 
                Easy-RSA Generated Certificate
            X509v3 Subject Key Identifier: 
                42:37:3E:7D:9C:33:7F:ED:3B:8B:81:B2:89:65:36:C2:4D:90:AC:08
            X509v3 Authority Key Identifier: 
                keyid:12:CD:60:04:D2:A0:80:9E:70:ED:C6:99:B8:7B:2C:C6:52:FD:19:A1
                DirName:/C=US/ST=OH/L=Columbus/O=VikingVPN/OU=MyOrganizationalUnit/CN=VikingVPN CA/name=EasyRSA/emailAddress=me@myhost.mydomain
                serial:CF:35:85:EE:80:BF:2A:3E

            X509v3 Extended Key Usage: 
                TLS Web Client Authentication
            X509v3 Key Usage: 
                Digital Signature
    Signature Algorithm: md5WithRSAEncryption
         96:b9:c6:65:f7:37:3b:62:90:1d:de:34:16:98:6e:7b:45:fa:
         3b:82:7a:cd:30:5a:e7:13:b8:e2:f6:ed:3a:43:4c:74:27:55:
         2d:c2:3b:4a:af:ee:a0:f5:c5:49:18:df:f9:a4:e7:31:1c:d4:
         00:04:a3:db:de:78:ba:68:8f:be:49:26:57:a7:61:97:27:1f:
         a0:51:16:94:21:d7:cb:30:14:da:49:e0:5e:8c:92:3c:b1:60:
         27:f8:55:05:9a:51:28:60:ce:1a:8d:de:ca:b6:a8:5b:d7:30:
         ce:99:ce:f8:1d:bd:1c:fd:70:fa:44:3b:56:06:99:e3:ed:e7:
         28:82:2d:c8:8e:ca:69:c2:36:e5:06:54:48:50:70:e0:83:50:
         03:5f:ee:ae:c2:fa:11:8f:ce:ab:3d:d2:1e:0e:38:21:d3:dc:
         cc:9f:7c:74:85:a1:e5:7b:a5:dd:b2:6d:6e:89:f5:ea:6c:56:
         55:dc:05:7e:ab:e4:b4:25:3f:3e:6d:83:37:a6:07:f1:ce:f9:
         cb:ef:5c:f6:b6:e8:d8:ad:46:5b:2e:80:00:6c:39:90:0b:4a:
         7e:3a:e0:72:6d:af:24:84:07:13:f7:9c:91:32:70:48:2c:36:
         2c:a3:38:b5:f6:40:60:34:46:78:94:73:50:dc:07:c0:e8:b9:
         81:63:0d:85:99:a7:4c:55:9e:b5:0c:26:0e:50:59:5e:db:86:
         db:f4:89:d5:88:37:8e:e5:35:55:3e:02:ce:55:cb:51:ca:c3:
         c8:2a:7d:9a:29:1e:25:5a:38:b8:fc:63:91:c4:6d:75:00:1a:
         29:61:c4:ce:3e:09:f2:ae:95:3b:21:ce:a4:8d:81:f9:0b:3d:
         19:52:14:15:2c:c7:48:70:bd:95:d2:de:12:d4:b9:77:6a:0c:
         70:7d:65:5f:8e:63:0b:94:44:48:89:7f:4f:2e:be:66:62:14:
         e4:51:59:bf:2e:f0:bc:08:86:bb:08:f4:71:58:e8:87:c5:00:
         50:55:59:01:18:b7:1a:a6:de:61:9f:1b:1f:64:91:d3:ef:87:
         ba:24:ef:ee:f4:81:eb:8f:ac:37:bd:29:ff:ea:62:9c:81:38:
         6e:2b:79:3e:32:da:10:47:75:c0:69:8e:77:76:fc:d0:3f:46:
         05:be:c2:f5:31:4a:d9:33:87:2b:a0:07:75:db:b4:e1:f0:14:
         3d:f3:ac:20:e3:ed:a6:54:18:86:5a:b9:02:ef:46:94:d4:c0:
         29:6c:ec:27:74:2b:88:96:c0:8d:16:37:7c:6c:0b:a5:2b:72:
         1e:77:34:9c:4f:6d:bb:d5:fd:be:ca:d3:e2:26:1b:23:88:70:
         96:15:26:2d:6d:d0:34:dc
-----BEGIN CERTIFICATE-----
MIIGrTCCBJWgAwIBAgICH74wDQYJKoZIhvcNAQEEBQAwgawxCzAJBgNVBAYTAlVT
MQswCQYDVQQIEwJPSDERMA8GA1UEBxMIQ29sdW1idXMxEjAQBgNVBAoTCVZpa2lu
Z1ZQTjEdMBsGA1UECxMUTXlPcmdhbml6YXRpb25hbFVuaXQxFTATBgNVBAMTDFZp
a2luZ1ZQTiBDQTEQMA4GA1UEKRMHRWFzeVJTQTEhMB8GCSqGSIb3DQEJARYSbWVA
bXlob3N0Lm15ZG9tYWluMB4XDTE2MDYwMjAxMjg0MVoXDTI2MDUzMTAxMjg0MVow
HzEdMBsGA1UEAxMUQ2xpZW50MTgwM0NlcnQ2M2ZmZjgwggIiMA0GCSqGSIb3DQEB
AQUAA4ICDwAwggIKAoICAQDNORqVTIFaiA0KLb23dKXNHJYXlezGjek5WReaANEb
uwdPGL/NqyiVvd+NWPJI6KG/Q4gDbEfryF9ELCyCvNEi1rjHm/3fpoi742m8zy5O
pHsVkATCQd24HDS79nU0sLiAe2fbOehqAFkHVoWUOsTWNDCKN5UaxIli3fi73dE6
09fMijaZlI5DarDwZ14oK32W3kVRKDZiNxWMRj63c401oZgOEur2dnRBs+iu2TYn
+461RXYCbWc8XiW1Q1N7vJUuYecfoM2tmb0ppfURjNwsz15cpWkiv0Nm2qco5yPk
rqlsVklg73Ad+xpmQbIcdrRNSGZhKx+ibH0E7AV37PVxb9yxpbK+JKDwnEaU0qRk
+KglEMLT3SPrJeGnQ+O08MQjKN2qsRCRW6yyFZbZL/fO569RtMovrvxqzrfzshJF
7xg+/as6DDMtwHwVJD8WQ2rQj9Eqic/kYDkwwiE0b1sxkbHVXBTWgS7w4lXAzk5q
oSWKFimncBafEhdofz8rMG2iFph2Kqf1b1mng5Pcmo7dnGjlliJM5EJOOiHp49QY
3oARCCHSbSP4r+NXhLyhvyVQTAwEFjtlC345XBB7NsMFGZ8HcYEuRTBH4U11oWrW
2yLWqARc8uc/Qe4HdWwLO4mPU2GtPwFXHG1f+Ln840j99B7WVIO8yukxiXYv2zq7
kwIDAQABo4IBYzCCAV8wCQYDVR0TBAIwADAtBglghkgBhvhCAQ0EIBYeRWFzeS1S
U0EgR2VuZXJhdGVkIENlcnRpZmljYXRlMB0GA1UdDgQWBBRCNz59nDN/7TuLgbKJ
ZTbCTZCsCDCB4QYDVR0jBIHZMIHWgBQSzWAE0qCAnnDtxpm4eyzGUv0ZoaGBsqSB
rzCBrDELMAkGA1UEBhMCVVMxCzAJBgNVBAgTAk9IMREwDwYDVQQHEwhDb2x1bWJ1
czESMBAGA1UEChMJVmlraW5nVlBOMR0wGwYDVQQLExRNeU9yZ2FuaXphdGlvbmFs
VW5pdDEVMBMGA1UEAxMMVmlraW5nVlBOIENBMRAwDgYDVQQpEwdFYXN5UlNBMSEw
HwYJKoZIhvcNAQkBFhJtZUBteWhvc3QubXlkb21haW6CCQDPNYXugL8qPjATBgNV
HSUEDDAKBggrBgEFBQcDAjALBgNVHQ8EBAMCB4AwDQYJKoZIhvcNAQEEBQADggIB
AJa5xmX3NztikB3eNBaYbntF+juCes0wWucTuOL27TpDTHQnVS3CO0qv7qD1xUkY
3/mk5zEc1AAEo9veeLpoj75JJlenYZcnH6BRFpQh18swFNpJ4F6MkjyxYCf4VQWa
UShgzhqN3sq2qFvXMM6ZzvgdvRz9cPpEO1YGmePt5yiCLciOymnCNuUGVEhQcOCD
UANf7q7C+hGPzqs90h4OOCHT3MyffHSFoeV7pd2ybW6J9epsVlXcBX6r5LQlPz5t
gzemB/HO+cvvXPa26NitRlsugABsOZALSn464HJtrySEBxP3nJEycEgsNiyjOLX2
QGA0RniUc1DcB8DouYFjDYWZp0xVnrUMJg5QWV7bhtv0idWIN47lNVU+As5Vy1HK
w8gqfZopHiVaOLj8Y5HEbXUAGilhxM4+CfKulTshzqSNgfkLPRlSFBUsx0hwvZXS
3hLUuXdqDHB9ZV+OYwuUREiJf08uvmZiFORRWb8u8LwIhrsI9HFY6IfFAFBVWQEY
txqm3mGfGx9kkdPvh7ok7+70geuPrDe9Kf/qYpyBOG4reT4y2hBHdcBpjnd2/NA/
RgW+wvUxStkzhyugB3XbtOHwFD3zrCDj7aZUGIZauQLvRpTUwCls7Cd0K4iWwI0W
N3xsC6Urch53NJxPbbvV/b7K0+ImGyOIcJYVJi1t0DTc
-----END CERTIFICATE-----
