Certificate:
    Data:
        Version: 3 (0x2)
        Serial Number: 8133 (0x1fc5)
    Signature Algorithm: md5WithRSAEncryption
        Issuer: C=US, ST=OH, L=Columbus, O=VikingVPN, OU=MyOrganizationalUnit, CN=VikingVPN CA/name=EasyRSA/emailAddress=me@myhost.mydomain
        Validity
            Not Before: Jun  3 02:56:52 2016 GMT
            Not After : Jun  1 02:56:52 2026 GMT
        Subject: CN=Client2362Cert995562
        Subject Public Key Info:
            Public Key Algorithm: rsaEncryption
                Public-Key: (4096 bit)
                Modulus:
                    00:d1:5a:5d:a9:9c:43:43:40:ed:07:18:9d:1a:b5:
                    9d:f5:f8:1c:fe:f5:87:97:12:58:4d:db:2f:34:e6:
                    86:0d:27:9e:af:24:0f:8c:0e:1f:ab:17:f9:99:52:
                    cc:be:06:03:5e:7b:aa:ea:a6:d1:ac:58:2b:c5:3f:
                    74:53:a7:0c:f4:7f:1d:75:ee:48:72:d1:eb:8e:2e:
                    e1:2d:9e:b8:a5:8f:86:81:28:5d:f9:d8:94:31:48:
                    e5:5f:3a:c9:04:ec:ec:76:9f:a0:9f:95:99:99:e1:
                    58:0e:be:c6:20:b4:9b:3b:f7:ff:11:d5:b6:1d:23:
                    a4:73:ba:09:85:a9:a7:e0:f3:ff:92:e2:17:60:e7:
                    83:fb:39:c0:bb:ba:8d:22:42:6b:26:4a:8a:f8:98:
                    6b:37:a4:75:6f:ee:e7:2a:7e:77:17:76:6e:19:ad:
                    c5:1d:45:3d:b5:11:9b:4b:96:2a:58:b1:29:80:87:
                    32:87:3a:76:14:35:63:62:8f:4d:82:1a:92:05:1a:
                    72:2c:77:17:d6:8b:57:3d:fe:66:08:0d:ab:c8:29:
                    15:c2:5b:a9:0b:d6:11:e7:71:06:11:26:45:08:ac:
                    7f:48:87:8d:4a:87:99:e1:a7:53:1f:c4:70:a7:59:
                    96:48:04:0c:e0:9d:7b:de:7e:b9:c6:53:5a:ed:40:
                    ad:2f:5e:a9:08:dc:24:c8:94:61:d3:1e:08:6a:d7:
                    42:d3:64:61:4f:c9:5b:b4:3c:b2:2d:35:54:8e:59:
                    d1:c1:8d:7e:2b:fe:1b:61:07:71:bf:bf:66:ca:0a:
                    2f:73:4f:7e:e3:f5:81:af:3b:3f:1d:3b:e6:42:f9:
                    59:6a:58:8c:f1:27:74:83:7a:84:b8:67:8b:96:46:
                    35:bb:f5:5b:ec:bd:05:97:7c:31:30:70:7b:74:4b:
                    6f:69:fb:4c:91:e0:8f:48:69:ba:89:6f:b6:bb:e5:
                    2e:c4:02:cd:6b:ae:c3:97:78:ce:45:38:b0:92:03:
                    8d:85:bb:24:4e:85:d5:26:b0:ee:c5:1c:c6:7d:ba:
                    24:06:37:43:c7:f5:0d:d1:c5:b4:7a:ed:96:49:13:
                    32:7b:c1:63:25:2f:77:1d:9f:4c:3f:1e:ea:96:37:
                    41:9f:9f:b6:6c:8b:2b:1a:bc:4b:5f:2e:89:fd:ec:
                    28:ab:17:88:0d:56:17:3b:c4:68:e7:ab:04:4e:4c:
                    68:23:95:15:2b:0d:19:09:8f:04:74:46:44:2c:60:
                    5a:0b:85:9c:cc:26:ce:ee:52:d9:12:ba:49:0f:58:
                    17:50:c0:90:c0:46:55:f4:6c:d8:19:cb:20:63:7e:
                    25:9a:1b:3f:50:d6:6d:76:fb:a2:19:92:db:c8:a2:
                    79:39:15
                Exponent: 65537 (0x10001)
        X509v3 extensions:
            X509v3 Basic Constraints: 
                CA:FALSE
            Netscape Comment: 
                Easy-RSA Generated Certificate
            X509v3 Subject Key Identifier: 
                43:0D:C0:F1:2E:05:34:2E:D9:75:65:92:4D:1D:F8:60:80:44:CA:64
            X509v3 Authority Key Identifier: 
                keyid:12:CD:60:04:D2:A0:80:9E:70:ED:C6:99:B8:7B:2C:C6:52:FD:19:A1
                DirName:/C=US/ST=OH/L=Columbus/O=VikingVPN/OU=MyOrganizationalUnit/CN=VikingVPN CA/name=EasyRSA/emailAddress=me@myhost.mydomain
                serial:CF:35:85:EE:80:BF:2A:3E

            X509v3 Extended Key Usage: 
                TLS Web Client Authentication
            X509v3 Key Usage: 
                Digital Signature
    Signature Algorithm: md5WithRSAEncryption
         29:13:b1:88:f2:6c:4d:ba:89:b1:15:62:ea:18:e1:d4:26:29:
         ac:94:3b:06:8f:02:0e:38:81:47:93:1b:06:e4:ba:e5:08:c6:
         a9:bd:52:7d:00:96:79:0c:3f:7c:84:a3:9f:db:cd:1c:ae:31:
         7c:5f:bd:59:a6:d8:68:ee:75:c5:51:3c:e8:57:d2:86:ae:49:
         46:29:59:59:03:b1:69:c5:7e:2c:45:8e:ef:7f:34:fb:36:cd:
         36:e7:71:83:0c:20:4c:f0:0b:3a:ce:2f:72:79:57:97:95:be:
         49:04:67:46:84:a5:f5:e5:9f:ec:ed:89:c8:8d:ac:37:1f:c2:
         d6:5a:8c:cc:4e:76:51:f6:b2:fd:2e:17:d9:a9:23:95:8c:97:
         df:44:8e:bf:b7:30:54:36:8a:fa:22:12:a5:48:8d:20:b2:f7:
         74:1c:43:2f:b7:b7:b6:d2:0d:78:dd:14:b3:31:c0:83:fe:c1:
         6a:8a:a6:8e:23:8d:8f:14:b7:e6:78:3f:95:38:f0:00:9e:cc:
         33:c7:4d:6c:d0:60:fd:8e:31:d2:10:4a:92:e8:9d:f1:74:96:
         6c:cc:cc:d1:d2:ae:6b:d0:0d:1c:f1:66:fa:de:b8:87:c3:12:
         11:02:95:a0:57:1c:af:9f:ff:77:46:e6:b7:54:b1:05:3e:e1:
         e7:91:d6:aa:c8:cf:84:4a:a2:26:6a:e9:2d:a8:44:f3:3e:4c:
         9b:88:fd:a6:6e:c6:e7:42:5a:25:c7:62:38:e3:52:28:26:fe:
         1b:c4:49:b1:1c:6b:8f:6c:21:06:12:cb:22:42:6f:06:bd:6b:
         95:91:e8:af:68:b9:fa:a8:24:69:95:be:7d:3f:f6:ef:e7:7e:
         7d:09:3a:08:ce:58:92:cd:12:98:c5:2e:d2:b2:e1:0c:74:e1:
         07:7d:40:48:9d:23:2f:06:4a:11:be:8d:a5:d3:c3:51:c0:e6:
         46:99:3f:9c:69:e7:08:1b:5d:49:41:3d:eb:58:b3:08:c5:37:
         46:c0:61:0b:99:c7:98:10:fc:6c:89:2f:c8:eb:eb:3b:94:5d:
         5f:79:27:ae:e0:8b:7f:8c:25:16:b2:ec:15:d3:2b:31:c1:5f:
         58:8c:92:6a:1a:20:63:c3:e5:2b:c5:a6:56:ac:50:d1:9d:be:
         8f:38:14:19:7e:61:c0:1e:68:81:b9:61:34:90:8a:e5:f4:08:
         a6:3c:75:59:26:c6:0b:9a:21:fb:da:e7:c6:62:fa:8f:8d:48:
         db:13:93:44:61:36:35:e4:3d:ed:47:86:cf:2f:31:9b:11:ad:
         19:de:b3:4e:99:21:26:20:77:6d:3b:c7:98:89:8b:fe:cf:fa:
         65:a9:3b:8f:5b:ac:ac:99
-----BEGIN CERTIFICATE-----
MIIGrTCCBJWgAwIBAgICH8UwDQYJKoZIhvcNAQEEBQAwgawxCzAJBgNVBAYTAlVT
MQswCQYDVQQIEwJPSDERMA8GA1UEBxMIQ29sdW1idXMxEjAQBgNVBAoTCVZpa2lu
Z1ZQTjEdMBsGA1UECxMUTXlPcmdhbml6YXRpb25hbFVuaXQxFTATBgNVBAMTDFZp
a2luZ1ZQTiBDQTEQMA4GA1UEKRMHRWFzeVJTQTEhMB8GCSqGSIb3DQEJARYSbWVA
bXlob3N0Lm15ZG9tYWluMB4XDTE2MDYwMzAyNTY1MloXDTI2MDYwMTAyNTY1Mlow
HzEdMBsGA1UEAxMUQ2xpZW50MjM2MkNlcnQ5OTU1NjIwggIiMA0GCSqGSIb3DQEB
AQUAA4ICDwAwggIKAoICAQDRWl2pnENDQO0HGJ0atZ31+Bz+9YeXElhN2y805oYN
J56vJA+MDh+rF/mZUsy+BgNee6rqptGsWCvFP3RTpwz0fx117khy0euOLuEtnril
j4aBKF352JQxSOVfOskE7Ox2n6CflZmZ4VgOvsYgtJs79/8R1bYdI6RzugmFqafg
8/+S4hdg54P7OcC7uo0iQmsmSor4mGs3pHVv7ucqfncXdm4ZrcUdRT21EZtLlipY
sSmAhzKHOnYUNWNij02CGpIFGnIsdxfWi1c9/mYIDavIKRXCW6kL1hHncQYRJkUI
rH9Ih41Kh5nhp1MfxHCnWZZIBAzgnXvefrnGU1rtQK0vXqkI3CTIlGHTHghq10LT
ZGFPyVu0PLItNVSOWdHBjX4r/hthB3G/v2bKCi9zT37j9YGvOz8dO+ZC+VlqWIzx
J3SDeoS4Z4uWRjW79VvsvQWXfDEwcHt0S29p+0yR4I9IabqJb7a75S7EAs1rrsOX
eM5FOLCSA42FuyROhdUmsO7FHMZ9uiQGN0PH9Q3RxbR67ZZJEzJ7wWMlL3cdn0w/
HuqWN0Gfn7ZsiysavEtfLon97CirF4gNVhc7xGjnqwROTGgjlRUrDRkJjwR0RkQs
YFoLhZzMJs7uUtkSukkPWBdQwJDARlX0bNgZyyBjfiWaGz9Q1m12+6IZktvIonk5
FQIDAQABo4IBYzCCAV8wCQYDVR0TBAIwADAtBglghkgBhvhCAQ0EIBYeRWFzeS1S
U0EgR2VuZXJhdGVkIENlcnRpZmljYXRlMB0GA1UdDgQWBBRDDcDxLgU0Ltl1ZZJN
HfhggETKZDCB4QYDVR0jBIHZMIHWgBQSzWAE0qCAnnDtxpm4eyzGUv0ZoaGBsqSB
rzCBrDELMAkGA1UEBhMCVVMxCzAJBgNVBAgTAk9IMREwDwYDVQQHEwhDb2x1bWJ1
czESMBAGA1UEChMJVmlraW5nVlBOMR0wGwYDVQQLExRNeU9yZ2FuaXphdGlvbmFs
VW5pdDEVMBMGA1UEAxMMVmlraW5nVlBOIENBMRAwDgYDVQQpEwdFYXN5UlNBMSEw
HwYJKoZIhvcNAQkBFhJtZUBteWhvc3QubXlkb21haW6CCQDPNYXugL8qPjATBgNV
HSUEDDAKBggrBgEFBQcDAjALBgNVHQ8EBAMCB4AwDQYJKoZIhvcNAQEEBQADggIB
ACkTsYjybE26ibEVYuoY4dQmKayUOwaPAg44gUeTGwbkuuUIxqm9Un0AlnkMP3yE
o5/bzRyuMXxfvVmm2GjudcVRPOhX0oauSUYpWVkDsWnFfixFju9/NPs2zTbncYMM
IEzwCzrOL3J5V5eVvkkEZ0aEpfXln+zticiNrDcfwtZajMxOdlH2sv0uF9mpI5WM
l99Ejr+3MFQ2ivoiEqVIjSCy93QcQy+3t7bSDXjdFLMxwIP+wWqKpo4jjY8Ut+Z4
P5U48ACezDPHTWzQYP2OMdIQSpLonfF0lmzMzNHSrmvQDRzxZvreuIfDEhEClaBX
HK+f/3dG5rdUsQU+4eeR1qrIz4RKoiZq6S2oRPM+TJuI/aZuxudCWiXHYjjjUigm
/hvESbEca49sIQYSyyJCbwa9a5WR6K9oufqoJGmVvn0/9u/nfn0JOgjOWJLNEpjF
LtKy4Qx04Qd9QEidIy8GShG+jaXTw1HA5kaZP5xp5wgbXUlBPetYswjFN0bAYQuZ
x5gQ/GyJL8jr6zuUXV95J67gi3+MJRay7BXTKzHBX1iMkmoaIGPD5SvFplasUNGd
vo84FBl+YcAeaIG5YTSQiuX0CKY8dVkmxguaIfva58Zi+o+NSNsTk0RhNjXkPe1H
hs8vMZsRrRnes06ZISYgd207x5iJi/7P+mWpO49brKyZ
-----END CERTIFICATE-----
