Certificate:
    Data:
        Version: 3 (0x2)
        Serial Number: 8141 (0x1fcd)
    Signature Algorithm: md5WithRSAEncryption
        Issuer: C=US, ST=OH, L=Columbus, O=VikingVPN, OU=MyOrganizationalUnit, CN=VikingVPN CA/name=EasyRSA/emailAddress=me@myhost.mydomain
        Validity
            Not Before: Jun  3 20:37:54 2016 GMT
            Not After : Jun  1 20:37:54 2026 GMT
        Subject: CN=Client477Cert83886e
        Subject Public Key Info:
            Public Key Algorithm: rsaEncryption
                Public-Key: (4096 bit)
                Modulus:
                    00:ac:09:97:55:73:fb:09:8d:92:d0:bd:85:5b:b6:
                    4b:0e:24:78:bf:f9:98:21:34:b9:0c:6b:7b:b9:29:
                    87:f1:63:e7:95:d9:02:6e:54:01:0e:47:c7:6d:af:
                    f9:86:c7:3c:41:d3:e4:04:b7:b1:f8:c7:82:0d:e3:
                    1d:f6:7a:90:be:87:93:f4:99:5c:bb:ba:70:c0:80:
                    ac:0f:76:e1:22:88:c0:61:e9:92:ba:ed:78:fa:11:
                    14:de:8f:67:16:a4:1b:be:3b:60:7b:ea:cf:6a:4d:
                    5d:29:2a:07:e1:24:72:2e:6d:fd:ca:44:98:bf:d9:
                    79:5f:36:01:c6:48:db:10:37:8b:41:10:c5:6f:58:
                    94:8a:f8:89:cb:4b:d7:26:2a:ae:c3:3f:ca:12:95:
                    f2:8f:0b:01:2e:a1:cd:80:1f:c7:90:a1:e9:a8:d6:
                    5a:b7:1b:15:fc:a9:e5:ba:db:a7:db:dc:77:53:42:
                    c6:1c:2f:c0:17:bd:9b:5b:1a:ca:05:50:8d:f3:0d:
                    2c:b5:85:c7:b2:a2:73:48:63:7c:c9:a3:07:56:d1:
                    6a:88:47:03:67:d0:96:ca:6f:44:de:0c:40:e0:9f:
                    87:38:83:13:cf:70:cf:16:89:98:10:8a:0d:2c:fe:
                    c5:c1:95:5d:93:7d:83:4b:71:0d:25:95:5c:12:af:
                    c7:99:71:4e:5c:91:4a:45:e4:3a:e7:37:32:d2:3a:
                    8c:e6:57:84:97:81:72:5e:fb:7a:4c:30:22:53:a3:
                    29:bb:98:1f:f8:9c:1e:88:51:ea:5f:46:d0:f7:d7:
                    02:fe:a5:bf:5c:14:d6:e7:32:6c:e7:be:66:24:a4:
                    be:91:c9:13:6d:3f:14:7a:b5:c9:50:b5:52:9c:e1:
                    8c:0e:a5:89:3c:2d:ab:35:72:e7:22:c3:18:27:c6:
                    02:64:58:40:ca:03:45:24:f7:c2:80:30:b1:18:a7:
                    0e:9f:a3:67:00:d4:e5:e8:d4:a9:5b:b7:7c:15:97:
                    96:44:82:5e:41:54:58:73:99:aa:45:8d:f8:7c:10:
                    19:3a:55:e0:1e:98:a9:df:d1:21:5a:6a:03:17:a8:
                    41:9c:13:23:55:bf:c1:f4:ae:3c:b2:8c:e5:3f:be:
                    30:ae:28:71:21:88:e7:ea:c4:1c:84:c1:7f:00:cb:
                    57:5a:87:50:74:30:b0:10:40:cd:87:8e:6c:83:b8:
                    41:ec:cb:64:02:9a:a1:ba:6c:03:9e:5b:04:c2:4b:
                    29:f6:ef:41:b0:5a:b5:63:23:e3:6a:ab:36:33:ab:
                    05:f7:29:46:ca:1e:d9:65:f4:22:d5:c3:29:7f:95:
                    27:76:7b:30:c8:47:32:02:39:b3:b7:3f:22:23:00:
                    ed:5f:37
                Exponent: 65537 (0x10001)
        X509v3 extensions:
            X509v3 Basic Constraints: 
                CA:FALSE
            Netscape Comment: 
                Easy-RSA Generated Certificate
            X509v3 Subject Key Identifier: 
                7D:25:E8:0A:D7:8E:12:8E:55:72:86:93:A2:03:99:8C:3E:A3:61:C6
            X509v3 Authority Key Identifier: 
                keyid:12:CD:60:04:D2:A0:80:9E:70:ED:C6:99:B8:7B:2C:C6:52:FD:19:A1
                DirName:/C=US/ST=OH/L=Columbus/O=VikingVPN/OU=MyOrganizationalUnit/CN=VikingVPN CA/name=EasyRSA/emailAddress=me@myhost.mydomain
                serial:CF:35:85:EE:80:BF:2A:3E

            X509v3 Extended Key Usage: 
                TLS Web Client Authentication
            X509v3 Key Usage: 
                Digital Signature
    Signature Algorithm: md5WithRSAEncryption
         63:e1:5a:80:44:bc:cb:4a:87:4f:ea:92:8a:dc:d4:68:4a:2c:
         1a:f7:11:0f:ff:53:a2:6d:c2:ed:e8:8c:1e:52:6f:0c:fe:b0:
         be:13:a7:fc:0d:1c:86:7d:a7:94:9c:d9:d9:3d:47:1c:43:94:
         e0:9f:b7:e6:72:f8:08:13:fe:58:04:fd:80:08:3e:92:70:e8:
         1c:38:10:dc:e4:a5:67:6f:d1:30:31:55:5b:18:6c:4e:b6:b8:
         b8:46:a2:58:b1:d4:3a:41:5f:b3:7d:89:87:93:1b:b5:6c:3d:
         08:cc:41:86:d4:66:13:5a:86:54:32:b0:e6:79:42:11:73:cd:
         ef:6d:ef:b8:9a:7b:0c:28:26:43:be:05:63:27:db:6c:90:e0:
         63:58:cf:f4:6c:3b:19:7f:2c:d4:bc:b9:07:b7:1f:f0:94:55:
         e9:a1:71:2b:01:bb:03:ce:65:d2:99:f9:9a:80:9f:dc:3d:e6:
         f7:fa:ac:96:ce:25:21:60:3e:9e:12:38:96:33:8f:d2:8e:1e:
         6f:25:03:68:6b:5b:7d:62:bf:13:41:c2:dd:12:00:4d:22:29:
         28:8a:7c:cd:87:4e:5f:33:47:71:f2:23:6c:f1:3f:10:61:5a:
         6a:35:55:ac:29:95:16:d0:98:c6:47:c9:17:6b:2c:53:90:4b:
         cf:e3:bb:d1:fc:44:5b:9c:6a:3e:a7:9c:a5:cb:fb:bb:d2:1a:
         2d:57:36:61:1b:67:e6:5f:a1:d3:41:1b:44:15:c5:10:46:93:
         95:bd:ac:8f:46:fe:e2:24:aa:2a:32:48:54:c2:22:7b:62:da:
         2e:84:a8:18:d7:e2:31:59:61:24:47:44:fd:c8:f7:6b:eb:e9:
         fd:23:39:51:85:16:bb:99:2d:3a:85:a6:4f:c9:df:5b:55:06:
         93:ac:00:77:a4:24:68:3f:1b:fc:42:87:a3:1a:ae:c2:0e:9d:
         b7:0d:23:b3:23:47:6b:77:26:6c:2f:d7:86:83:0e:0f:a9:65:
         9e:f0:cd:fb:7b:58:f8:4f:57:cb:02:25:42:53:5e:b9:9f:a0:
         a7:ef:49:76:c6:10:7e:27:6a:51:38:d7:64:41:ef:a3:13:a7:
         7b:ee:9e:2b:45:19:21:ce:91:f4:c1:c7:5d:55:dd:55:86:62:
         d1:3e:e6:49:79:cd:b7:b4:e7:8e:e4:8e:2b:87:79:bb:de:b7:
         01:b4:82:e3:c0:f8:b4:d6:cf:9b:19:c0:5a:4e:44:94:c1:8b:
         12:e5:0f:b8:60:49:02:91:d9:e9:4a:da:82:4c:50:8d:32:30:
         30:61:39:ee:4d:33:9e:84:1c:c5:85:a4:a6:b9:f6:7e:23:99:
         0c:10:62:f6:33:97:0d:e7
-----BEGIN CERTIFICATE-----
MIIGrDCCBJSgAwIBAgICH80wDQYJKoZIhvcNAQEEBQAwgawxCzAJBgNVBAYTAlVT
MQswCQYDVQQIEwJPSDERMA8GA1UEBxMIQ29sdW1idXMxEjAQBgNVBAoTCVZpa2lu
Z1ZQTjEdMBsGA1UECxMUTXlPcmdhbml6YXRpb25hbFVuaXQxFTATBgNVBAMTDFZp
a2luZ1ZQTiBDQTEQMA4GA1UEKRMHRWFzeVJTQTEhMB8GCSqGSIb3DQEJARYSbWVA
bXlob3N0Lm15ZG9tYWluMB4XDTE2MDYwMzIwMzc1NFoXDTI2MDYwMTIwMzc1NFow
HjEcMBoGA1UEAxMTQ2xpZW50NDc3Q2VydDgzODg2ZTCCAiIwDQYJKoZIhvcNAQEB
BQADggIPADCCAgoCggIBAKwJl1Vz+wmNktC9hVu2Sw4keL/5mCE0uQxre7kph/Fj
55XZAm5UAQ5Hx22v+YbHPEHT5AS3sfjHgg3jHfZ6kL6Hk/SZXLu6cMCArA924SKI
wGHpkrrtePoRFN6PZxakG747YHvqz2pNXSkqB+Ekci5t/cpEmL/ZeV82AcZI2xA3
i0EQxW9YlIr4ictL1yYqrsM/yhKV8o8LAS6hzYAfx5Ch6ajWWrcbFfyp5brbp9vc
d1NCxhwvwBe9m1saygVQjfMNLLWFx7Kic0hjfMmjB1bRaohHA2fQlspvRN4MQOCf
hziDE89wzxaJmBCKDSz+xcGVXZN9g0txDSWVXBKvx5lxTlyRSkXkOuc3MtI6jOZX
hJeBcl77ekwwIlOjKbuYH/icHohR6l9G0PfXAv6lv1wU1ucybOe+ZiSkvpHJE20/
FHq1yVC1UpzhjA6liTwtqzVy5yLDGCfGAmRYQMoDRST3woAwsRinDp+jZwDU5ejU
qVu3fBWXlkSCXkFUWHOZqkWN+HwQGTpV4B6Yqd/RIVpqAxeoQZwTI1W/wfSuPLKM
5T++MK4ocSGI5+rEHITBfwDLV1qHUHQwsBBAzYeObIO4QezLZAKaobpsA55bBMJL
KfbvQbBatWMj42qrNjOrBfcpRsoe2WX0ItXDKX+VJ3Z7MMhHMgI5s7c/IiMA7V83
AgMBAAGjggFjMIIBXzAJBgNVHRMEAjAAMC0GCWCGSAGG+EIBDQQgFh5FYXN5LVJT
QSBHZW5lcmF0ZWQgQ2VydGlmaWNhdGUwHQYDVR0OBBYEFH0l6ArXjhKOVXKGk6ID
mYw+o2HGMIHhBgNVHSMEgdkwgdaAFBLNYATSoICecO3Gmbh7LMZS/RmhoYGypIGv
MIGsMQswCQYDVQQGEwJVUzELMAkGA1UECBMCT0gxETAPBgNVBAcTCENvbHVtYnVz
MRIwEAYDVQQKEwlWaWtpbmdWUE4xHTAbBgNVBAsTFE15T3JnYW5pemF0aW9uYWxV
bml0MRUwEwYDVQQDEwxWaWtpbmdWUE4gQ0ExEDAOBgNVBCkTB0Vhc3lSU0ExITAf
BgkqhkiG9w0BCQEWEm1lQG15aG9zdC5teWRvbWFpboIJAM81he6Avyo+MBMGA1Ud
JQQMMAoGCCsGAQUFBwMCMAsGA1UdDwQEAwIHgDANBgkqhkiG9w0BAQQFAAOCAgEA
Y+FagES8y0qHT+qSitzUaEosGvcRD/9Tom3C7eiMHlJvDP6wvhOn/A0chn2nlJzZ
2T1HHEOU4J+35nL4CBP+WAT9gAg+knDoHDgQ3OSlZ2/RMDFVWxhsTra4uEaiWLHU
OkFfs32Jh5MbtWw9CMxBhtRmE1qGVDKw5nlCEXPN723vuJp7DCgmQ74FYyfbbJDg
Y1jP9Gw7GX8s1Ly5B7cf8JRV6aFxKwG7A85l0pn5moCf3D3m9/qsls4lIWA+nhI4
ljOP0o4ebyUDaGtbfWK/E0HC3RIATSIpKIp8zYdOXzNHcfIjbPE/EGFaajVVrCmV
FtCYxkfJF2ssU5BLz+O70fxEW5xqPqecpcv7u9IaLVc2YRtn5l+h00EbRBXFEEaT
lb2sj0b+4iSqKjJIVMIie2LaLoSoGNfiMVlhJEdE/cj3a+vp/SM5UYUWu5ktOoWm
T8nfW1UGk6wAd6QkaD8b/EKHoxquwg6dtw0jsyNHa3cmbC/XhoMOD6llnvDN+3tY
+E9XywIlQlNeuZ+gp+9JdsYQfidqUTjXZEHvoxOne+6eK0UZIc6R9MHHXVXdVYZi
0T7mSXnNt7TnjuSOK4d5u963AbSC48D4tNbPmxnAWk5ElMGLEuUPuGBJApHZ6Ura
gkxQjTIwMGE57k0znoQcxYWkprn2fiOZDBBi9jOXDec=
-----END CERTIFICATE-----
