Certificate:
    Data:
        Version: 3 (0x2)
        Serial Number: 8159 (0x1fdf)
    Signature Algorithm: md5WithRSAEncryption
        Issuer: C=US, ST=OH, L=Columbus, O=VikingVPN, OU=MyOrganizationalUnit, CN=VikingVPN CA/name=EasyRSA/emailAddress=me@myhost.mydomain
        Validity
            Not Before: Jun  4 13:38:55 2016 GMT
            Not After : Jun  2 13:38:55 2026 GMT
        Subject: CN=Client2368Cert66371d
        Subject Public Key Info:
            Public Key Algorithm: rsaEncryption
                Public-Key: (4096 bit)
                Modulus:
                    00:c7:c8:55:a9:a1:92:96:16:81:ee:b6:87:8d:ea:
                    06:c8:d7:97:0b:f4:c7:bc:41:56:f4:de:95:b6:ab:
                    06:4f:36:4b:75:63:e9:8b:b8:53:57:fd:a7:4b:2a:
                    38:dd:5e:17:79:14:ee:3b:2d:7d:79:a7:dc:9c:21:
                    4b:e2:49:21:45:cd:f4:e3:91:a3:4c:4d:1e:b7:92:
                    09:ba:b7:47:08:41:59:a2:d9:8f:aa:66:6e:da:72:
                    54:da:b8:f8:96:08:74:b9:68:66:fc:89:b7:99:88:
                    8c:27:e2:9c:86:57:5d:86:02:4e:88:d7:f3:ee:bb:
                    44:4a:ab:05:29:db:22:70:b8:b9:5b:90:90:6c:80:
                    5b:ea:36:b5:89:35:f8:39:2c:0a:c1:c5:83:24:92:
                    06:5f:eb:39:b3:56:17:f8:2a:e1:18:e6:44:4d:12:
                    a2:7b:0b:a5:f3:3d:7f:88:43:6e:01:d8:bb:37:65:
                    57:1f:68:8e:81:f3:a9:44:3d:36:b2:a6:86:e0:94:
                    ca:3f:71:28:8c:ab:a1:6c:0f:5d:06:7a:ba:bf:d3:
                    87:9d:76:78:53:29:1f:65:3f:75:5f:f2:66:95:17:
                    32:8e:eb:cb:7c:2f:a4:4f:81:82:36:30:24:dc:4b:
                    87:4b:8b:13:a2:8e:e5:f6:c0:f8:94:6a:f1:57:b9:
                    2d:b0:b1:d5:9f:ed:d0:e4:47:95:5b:7c:d3:db:2a:
                    b7:cc:c8:35:0c:e6:0f:57:70:52:6d:8c:93:b0:9d:
                    0d:ca:b2:00:9b:bc:a0:9d:76:a5:50:07:56:87:89:
                    f6:06:56:1e:99:8a:df:ef:8e:5f:e1:fd:4e:60:25:
                    12:2b:12:f1:0b:d6:29:d7:fe:9d:65:12:aa:04:e9:
                    df:5d:ff:35:36:e0:ad:44:62:43:38:e8:c3:e1:69:
                    be:f4:e0:7d:9e:49:2b:59:58:11:25:16:0d:86:38:
                    ec:ea:ae:f8:b3:7e:40:a8:c8:af:ee:69:74:70:e2:
                    57:01:1b:35:d4:98:e5:4e:53:94:da:a0:11:0d:e0:
                    de:ed:8d:09:cf:f5:95:cd:2a:f2:3e:d0:a1:45:e8:
                    63:3d:61:4c:a7:98:17:91:42:ac:ab:ac:0d:a6:aa:
                    92:a0:20:9c:25:c8:dc:bc:97:99:a9:40:8e:d5:47:
                    ba:a8:58:b0:a4:e7:12:f5:6f:a5:b9:d4:3e:f7:85:
                    2f:6a:a8:44:79:5f:72:27:e4:67:1e:b3:83:e4:56:
                    cd:99:cd:f5:cd:2b:54:02:fc:b8:1c:8a:b5:86:a0:
                    b3:25:74:b9:72:3a:bb:79:1a:20:9a:3f:5b:bf:a9:
                    d2:19:87:55:30:00:99:31:70:bd:6f:91:3d:1b:1e:
                    d8:e8:0d
                Exponent: 65537 (0x10001)
        X509v3 extensions:
            X509v3 Basic Constraints: 
                CA:FALSE
            Netscape Comment: 
                Easy-RSA Generated Certificate
            X509v3 Subject Key Identifier: 
                17:DD:F6:88:21:B4:DA:A0:31:D7:1D:AD:F8:15:24:A2:2F:18:35:AA
            X509v3 Authority Key Identifier: 
                keyid:12:CD:60:04:D2:A0:80:9E:70:ED:C6:99:B8:7B:2C:C6:52:FD:19:A1
                DirName:/C=US/ST=OH/L=Columbus/O=VikingVPN/OU=MyOrganizationalUnit/CN=VikingVPN CA/name=EasyRSA/emailAddress=me@myhost.mydomain
                serial:CF:35:85:EE:80:BF:2A:3E

            X509v3 Extended Key Usage: 
                TLS Web Client Authentication
            X509v3 Key Usage: 
                Digital Signature
    Signature Algorithm: md5WithRSAEncryption
         56:4a:3c:77:bd:42:06:08:e7:fc:58:29:61:55:52:68:66:61:
         63:e5:7c:e6:4f:d7:be:14:66:6e:10:ed:e3:40:0e:86:76:16:
         b9:66:1a:f7:73:89:4e:b7:11:ee:30:85:22:82:cb:a0:8e:da:
         ef:f3:bb:d7:7d:72:1e:92:a7:fa:4b:a5:8c:9f:7e:3b:a3:82:
         44:c9:93:28:bc:c9:98:bd:22:3a:b4:da:c8:a9:7b:db:39:33:
         22:90:ea:1c:36:3f:3f:fe:95:21:48:6f:34:88:91:03:0e:34:
         bb:bc:62:af:8a:e1:77:cb:1c:65:f5:75:ce:2f:1d:b0:be:62:
         e2:d8:57:97:7f:27:1b:54:58:d7:06:91:0d:ef:f0:88:5e:c0:
         40:1c:41:1f:4c:c1:79:78:55:5d:86:30:70:27:a0:28:e0:ba:
         7d:9c:12:f9:d6:e4:71:36:f1:ca:eb:a0:57:74:bf:f6:85:14:
         42:59:02:25:93:c5:ee:db:5f:20:67:55:00:d7:bb:6f:05:fb:
         43:d7:93:33:2a:d7:42:04:60:53:3f:cd:56:36:9d:38:c2:f0:
         51:c0:de:9d:e1:9d:4c:50:fb:5a:66:8e:80:ec:94:e6:6f:63:
         d4:cd:fa:67:16:10:cd:f5:50:68:ab:1c:88:81:40:2d:9c:b0:
         90:f1:c2:4a:16:ab:d7:e2:8e:4f:c3:50:bb:e0:23:4b:2b:b3:
         77:73:db:dd:80:c1:e7:34:bb:9a:39:89:24:a8:25:26:51:4e:
         a2:0f:94:ea:8c:33:ec:41:cd:f6:41:cd:94:1f:32:42:18:4e:
         9b:a8:f7:bd:d1:8c:ba:e6:f0:56:09:c3:db:90:ac:b7:15:79:
         54:40:38:e9:de:08:44:cf:29:b6:73:9a:f3:f2:3a:33:d7:27:
         df:db:05:7d:a9:fd:ce:88:a5:53:89:73:e6:9b:04:7f:fc:f8:
         6e:42:65:16:d8:9f:1e:28:e9:83:19:43:0e:7a:39:99:87:8b:
         26:53:a5:5f:05:10:10:9e:f6:e2:b6:6b:1e:bc:cc:df:eb:42:
         11:d1:ad:1c:e6:6c:e2:8c:b6:f8:d9:e9:9a:17:85:b2:09:fb:
         1f:16:97:a8:1d:69:24:49:6d:c9:dc:21:7b:9f:60:bf:40:fc:
         c4:86:dd:bd:62:f8:d1:5e:1d:51:63:00:dd:4e:37:e5:54:db:
         34:dd:69:3a:3c:88:07:89:bd:dc:eb:67:9e:c8:77:87:15:3a:
         14:f0:2f:5c:b6:04:5b:df:9a:99:44:c3:53:2d:65:31:c4:fd:
         ec:70:f1:ab:7b:91:c9:94:cc:6b:b8:9a:47:5f:77:27:fe:4f:
         34:3d:c6:3e:3b:54:25:68
-----BEGIN CERTIFICATE-----
MIIGrTCCBJWgAwIBAgICH98wDQYJKoZIhvcNAQEEBQAwgawxCzAJBgNVBAYTAlVT
MQswCQYDVQQIEwJPSDERMA8GA1UEBxMIQ29sdW1idXMxEjAQBgNVBAoTCVZpa2lu
Z1ZQTjEdMBsGA1UECxMUTXlPcmdhbml6YXRpb25hbFVuaXQxFTATBgNVBAMTDFZp
a2luZ1ZQTiBDQTEQMA4GA1UEKRMHRWFzeVJTQTEhMB8GCSqGSIb3DQEJARYSbWVA
bXlob3N0Lm15ZG9tYWluMB4XDTE2MDYwNDEzMzg1NVoXDTI2MDYwMjEzMzg1NVow
HzEdMBsGA1UEAxMUQ2xpZW50MjM2OENlcnQ2NjM3MWQwggIiMA0GCSqGSIb3DQEB
AQUAA4ICDwAwggIKAoICAQDHyFWpoZKWFoHutoeN6gbI15cL9Me8QVb03pW2qwZP
Nkt1Y+mLuFNX/adLKjjdXhd5FO47LX15p9ycIUviSSFFzfTjkaNMTR63kgm6t0cI
QVmi2Y+qZm7aclTauPiWCHS5aGb8ibeZiIwn4pyGV12GAk6I1/Puu0RKqwUp2yJw
uLlbkJBsgFvqNrWJNfg5LArBxYMkkgZf6zmzVhf4KuEY5kRNEqJ7C6XzPX+IQ24B
2Ls3ZVcfaI6B86lEPTaypobglMo/cSiMq6FsD10Gerq/04eddnhTKR9lP3Vf8maV
FzKO68t8L6RPgYI2MCTcS4dLixOijuX2wPiUavFXuS2wsdWf7dDkR5VbfNPbKrfM
yDUM5g9XcFJtjJOwnQ3KsgCbvKCddqVQB1aHifYGVh6Zit/vjl/h/U5gJRIrEvEL
1inX/p1lEqoE6d9d/zU24K1EYkM46MPhab704H2eSStZWBElFg2GOOzqrvizfkCo
yK/uaXRw4lcBGzXUmOVOU5TaoBEN4N7tjQnP9ZXNKvI+0KFF6GM9YUynmBeRQqyr
rA2mqpKgIJwlyNy8l5mpQI7VR7qoWLCk5xL1b6W51D73hS9qqER5X3In5Gces4Pk
Vs2ZzfXNK1QC/LgcirWGoLMldLlyOrt5GiCaP1u/qdIZh1UwAJkxcL1vkT0bHtjo
DQIDAQABo4IBYzCCAV8wCQYDVR0TBAIwADAtBglghkgBhvhCAQ0EIBYeRWFzeS1S
U0EgR2VuZXJhdGVkIENlcnRpZmljYXRlMB0GA1UdDgQWBBQX3faIIbTaoDHXHa34
FSSiLxg1qjCB4QYDVR0jBIHZMIHWgBQSzWAE0qCAnnDtxpm4eyzGUv0ZoaGBsqSB
rzCBrDELMAkGA1UEBhMCVVMxCzAJBgNVBAgTAk9IMREwDwYDVQQHEwhDb2x1bWJ1
czESMBAGA1UEChMJVmlraW5nVlBOMR0wGwYDVQQLExRNeU9yZ2FuaXphdGlvbmFs
VW5pdDEVMBMGA1UEAxMMVmlraW5nVlBOIENBMRAwDgYDVQQpEwdFYXN5UlNBMSEw
HwYJKoZIhvcNAQkBFhJtZUBteWhvc3QubXlkb21haW6CCQDPNYXugL8qPjATBgNV
HSUEDDAKBggrBgEFBQcDAjALBgNVHQ8EBAMCB4AwDQYJKoZIhvcNAQEEBQADggIB
AFZKPHe9QgYI5/xYKWFVUmhmYWPlfOZP174UZm4Q7eNADoZ2FrlmGvdziU63Ee4w
hSKCy6CO2u/zu9d9ch6Sp/pLpYyffjujgkTJkyi8yZi9Ijq02sipe9s5MyKQ6hw2
Pz/+lSFIbzSIkQMONLu8Yq+K4XfLHGX1dc4vHbC+YuLYV5d/JxtUWNcGkQ3v8Ihe
wEAcQR9MwXl4VV2GMHAnoCjgun2cEvnW5HE28crroFd0v/aFFEJZAiWTxe7bXyBn
VQDXu28F+0PXkzMq10IEYFM/zVY2nTjC8FHA3p3hnUxQ+1pmjoDslOZvY9TN+mcW
EM31UGirHIiBQC2csJDxwkoWq9fijk/DULvgI0srs3dz292Awec0u5o5iSSoJSZR
TqIPlOqMM+xBzfZBzZQfMkIYTpuo973RjLrm8FYJw9uQrLcVeVRAOOneCETPKbZz
mvPyOjPXJ9/bBX2p/c6IpVOJc+abBH/8+G5CZRbYnx4o6YMZQw56OZmHiyZTpV8F
EBCe9uK2ax68zN/rQhHRrRzmbOKMtvjZ6ZoXhbIJ+x8Wl6gdaSRJbcncIXufYL9A
/MSG3b1i+NFeHVFjAN1ON+VU2zTdaTo8iAeJvdzrZ57Id4cVOhTwL1y2BFvfmplE
w1MtZTHE/exw8at7kcmUzGu4mkdfdyf+TzQ9xj47VCVo
-----END CERTIFICATE-----
