Certificate:
    Data:
        Version: 3 (0x2)
        Serial Number: 8165 (0x1fe5)
    Signature Algorithm: md5WithRSAEncryption
        Issuer: C=US, ST=OH, L=Columbus, O=VikingVPN, OU=MyOrganizationalUnit, CN=VikingVPN CA/name=EasyRSA/emailAddress=me@myhost.mydomain
        Validity
            Not Before: Jun  4 22:36:12 2016 GMT
            Not After : Jun  2 22:36:12 2026 GMT
        Subject: CN=Client2097Certa94eb5
        Subject Public Key Info:
            Public Key Algorithm: rsaEncryption
                Public-Key: (4096 bit)
                Modulus:
                    00:d3:e8:8c:cd:3b:81:88:2f:47:f6:d3:67:55:b3:
                    21:6f:32:af:a5:f6:aa:b2:27:2e:c2:a5:bc:6d:6e:
                    3f:93:ab:ae:53:9a:11:f1:dc:c6:a9:95:19:fc:9e:
                    6f:f0:71:2d:3a:e9:2c:50:4f:0d:fa:90:ac:15:92:
                    c0:73:95:3d:a5:66:31:df:8b:b7:33:04:61:5a:48:
                    81:7b:a6:0e:71:e8:ab:10:22:74:58:a6:79:ee:20:
                    c7:06:07:25:92:60:91:06:24:27:54:20:9f:40:2a:
                    82:f1:b9:49:2d:f8:97:24:50:49:71:4b:c0:a9:86:
                    4d:18:63:9b:4a:07:7c:fa:c8:79:d6:83:5d:e8:38:
                    55:78:fb:8e:8c:b5:57:27:fd:a6:90:da:ff:b9:da:
                    28:9c:ab:2d:9d:5d:2e:51:81:a1:38:d6:83:56:9a:
                    b5:d6:9a:ac:fa:49:1c:f4:dd:dc:af:a5:58:e1:3f:
                    b6:99:6a:c6:0e:b9:d3:ab:04:dd:a3:bf:53:ad:5c:
                    21:b1:2a:5f:ca:b6:39:92:8f:67:21:03:2f:01:54:
                    ad:07:a0:81:7e:fe:40:31:09:a3:77:c7:91:d7:25:
                    d7:5d:38:25:34:f2:04:a0:5b:97:b2:53:0f:1f:bc:
                    41:9c:dc:7c:6f:31:45:08:84:7a:65:41:b7:eb:45:
                    d9:b8:f3:48:1c:ab:b0:fd:5b:fc:62:22:25:84:4e:
                    db:6d:e5:69:54:59:0b:6c:fa:49:64:85:1e:85:b2:
                    47:ef:ec:d6:79:b2:cf:b8:a3:85:d0:e0:39:e0:da:
                    4f:3a:fd:9e:0b:9f:9c:c3:ad:c8:be:35:52:ca:e2:
                    aa:6d:0f:4b:85:f0:8c:e3:63:df:cd:71:5f:aa:4b:
                    55:ba:64:7c:b8:8d:f1:a9:10:11:2f:30:64:2c:b0:
                    15:90:b6:bb:f3:14:fc:2a:71:35:44:ae:2c:b2:b3:
                    a3:c9:83:c5:ea:af:cb:e2:eb:a5:5f:5d:93:9e:52:
                    bf:96:fd:83:be:eb:da:0b:e3:38:bd:71:81:8c:b9:
                    de:17:f6:90:6b:4c:fd:28:a9:42:35:18:3b:74:a0:
                    75:d9:57:0a:73:03:87:e3:c4:df:d5:91:1c:34:45:
                    72:9a:60:fa:ea:09:d8:c3:73:38:11:af:e3:63:84:
                    c2:71:eb:7c:50:73:99:af:8a:ad:33:e9:41:88:d8:
                    e5:4f:05:f8:42:32:e1:ee:d0:01:5d:c5:69:c5:5a:
                    e5:92:51:30:3a:6b:ad:cd:87:2f:9a:04:f7:be:8f:
                    d5:38:9b:72:dc:68:e4:3c:6d:10:64:8a:29:20:f2:
                    72:d0:af:63:cc:1e:92:93:21:ff:65:b7:74:98:a8:
                    d4:a3:3f
                Exponent: 65537 (0x10001)
        X509v3 extensions:
            X509v3 Basic Constraints: 
                CA:FALSE
            Netscape Comment: 
                Easy-RSA Generated Certificate
            X509v3 Subject Key Identifier: 
                47:8D:30:00:BE:CE:2E:53:52:39:8A:35:2C:12:FD:B3:C5:3C:38:63
            X509v3 Authority Key Identifier: 
                keyid:12:CD:60:04:D2:A0:80:9E:70:ED:C6:99:B8:7B:2C:C6:52:FD:19:A1
                DirName:/C=US/ST=OH/L=Columbus/O=VikingVPN/OU=MyOrganizationalUnit/CN=VikingVPN CA/name=EasyRSA/emailAddress=me@myhost.mydomain
                serial:CF:35:85:EE:80:BF:2A:3E

            X509v3 Extended Key Usage: 
                TLS Web Client Authentication
            X509v3 Key Usage: 
                Digital Signature
    Signature Algorithm: md5WithRSAEncryption
         09:0e:63:b3:0e:d3:9e:e8:f1:1e:2d:1d:79:60:72:1b:9a:21:
         7b:da:5f:ce:21:b1:a6:94:06:83:96:9f:57:94:d4:37:92:b3:
         6b:54:0d:73:f0:71:61:81:ba:b0:75:84:9a:04:57:4a:d1:01:
         e1:3f:fe:66:9d:a5:63:11:82:e2:5f:f3:cb:43:05:61:8e:fd:
         27:f3:8c:33:b1:ad:b6:d9:7d:13:5f:9e:ea:8e:f9:43:c0:14:
         a9:23:2a:33:7f:3d:80:0d:0c:97:9e:47:eb:96:fc:c4:ce:61:
         c7:17:a3:3b:21:82:b6:cb:76:ab:30:c4:41:0c:78:9a:1f:31:
         86:07:f4:f8:da:4e:a8:f5:e1:9b:f7:d6:2a:4f:fa:04:b5:f9:
         18:f4:64:9d:10:5f:d7:36:0a:bb:3e:ef:85:57:6a:75:d5:6a:
         9a:50:5e:e6:2b:4d:04:9a:4e:79:ce:81:51:a6:72:5c:2f:8f:
         93:79:d9:93:43:20:4a:26:af:36:be:29:20:bd:67:e2:dc:90:
         f8:76:ea:30:4b:38:97:5f:5e:52:e5:b9:11:81:01:20:ef:38:
         20:0e:9c:b5:e8:4e:d7:09:b6:bd:a5:14:d3:d1:a7:e0:af:ae:
         cb:23:5c:9d:60:d8:bb:03:05:9c:e8:6c:47:ea:c2:ac:d6:bb:
         52:97:84:16:47:d4:b5:6f:fc:87:a6:43:32:c7:5a:79:8b:9c:
         f5:af:b8:49:7f:d9:71:35:b0:10:0f:8b:14:1a:38:de:4b:ff:
         c5:86:08:3b:00:a8:be:90:59:b1:0d:55:e9:dd:70:1a:e2:66:
         da:71:15:c8:b1:ed:97:31:82:9f:2a:a6:05:52:0a:7b:76:ef:
         da:bf:a5:d4:da:b9:8d:13:47:52:1e:e1:62:6a:fa:d0:19:af:
         38:4f:69:cf:3f:13:ac:c7:01:a0:c5:29:ac:5d:e4:78:07:80:
         b5:06:3e:16:43:d8:ff:3b:f3:91:42:06:0d:23:00:4e:0c:63:
         90:50:0f:f5:dc:af:11:59:50:71:37:08:73:54:a7:5b:46:cc:
         25:d3:3d:e1:90:d8:68:31:46:c8:27:e9:61:e7:e0:a2:42:8f:
         63:bf:56:81:cc:e8:cb:bf:14:52:61:7d:5b:8f:a8:bb:78:6c:
         26:be:cb:de:6a:9c:4e:77:3f:4c:89:ea:14:0e:d5:9e:90:bc:
         e8:ff:f3:84:2a:59:ad:98:5b:d9:8a:4e:da:e3:1f:6c:7a:dc:
         d0:04:a8:04:85:a9:c2:6c:e4:64:21:15:d4:63:58:c3:fb:ca:
         68:43:df:db:00:df:51:31:57:b7:5e:c8:5e:ff:4f:88:19:25:
         27:a6:26:8c:86:ad:10:a7
-----BEGIN CERTIFICATE-----
MIIGrTCCBJWgAwIBAgICH+UwDQYJKoZIhvcNAQEEBQAwgawxCzAJBgNVBAYTAlVT
MQswCQYDVQQIEwJPSDERMA8GA1UEBxMIQ29sdW1idXMxEjAQBgNVBAoTCVZpa2lu
Z1ZQTjEdMBsGA1UECxMUTXlPcmdhbml6YXRpb25hbFVuaXQxFTATBgNVBAMTDFZp
a2luZ1ZQTiBDQTEQMA4GA1UEKRMHRWFzeVJTQTEhMB8GCSqGSIb3DQEJARYSbWVA
bXlob3N0Lm15ZG9tYWluMB4XDTE2MDYwNDIyMzYxMloXDTI2MDYwMjIyMzYxMlow
HzEdMBsGA1UEAxMUQ2xpZW50MjA5N0NlcnRhOTRlYjUwggIiMA0GCSqGSIb3DQEB
AQUAA4ICDwAwggIKAoICAQDT6IzNO4GIL0f202dVsyFvMq+l9qqyJy7Cpbxtbj+T
q65TmhHx3MaplRn8nm/wcS066SxQTw36kKwVksBzlT2lZjHfi7czBGFaSIF7pg5x
6KsQInRYpnnuIMcGByWSYJEGJCdUIJ9AKoLxuUkt+JckUElxS8Cphk0YY5tKB3z6
yHnWg13oOFV4+46MtVcn/aaQ2v+52iicqy2dXS5RgaE41oNWmrXWmqz6SRz03dyv
pVjhP7aZasYOudOrBN2jv1OtXCGxKl/KtjmSj2chAy8BVK0HoIF+/kAxCaN3x5HX
JdddOCU08gSgW5eyUw8fvEGc3HxvMUUIhHplQbfrRdm480gcq7D9W/xiIiWETttt
5WlUWQts+klkhR6Fskfv7NZ5ss+4o4XQ4Dng2k86/Z4Ln5zDrci+NVLK4qptD0uF
8IzjY9/NcV+qS1W6ZHy4jfGpEBEvMGQssBWQtrvzFPwqcTVEriyys6PJg8Xqr8vi
66VfXZOeUr+W/YO+69oL4zi9cYGMud4X9pBrTP0oqUI1GDt0oHXZVwpzA4fjxN/V
kRw0RXKaYPrqCdjDczgRr+NjhMJx63xQc5mviq0z6UGI2OVPBfhCMuHu0AFdxWnF
WuWSUTA6a63Nhy+aBPe+j9U4m3LcaOQ8bRBkiikg8nLQr2PMHpKTIf9lt3SYqNSj
PwIDAQABo4IBYzCCAV8wCQYDVR0TBAIwADAtBglghkgBhvhCAQ0EIBYeRWFzeS1S
U0EgR2VuZXJhdGVkIENlcnRpZmljYXRlMB0GA1UdDgQWBBRHjTAAvs4uU1I5ijUs
Ev2zxTw4YzCB4QYDVR0jBIHZMIHWgBQSzWAE0qCAnnDtxpm4eyzGUv0ZoaGBsqSB
rzCBrDELMAkGA1UEBhMCVVMxCzAJBgNVBAgTAk9IMREwDwYDVQQHEwhDb2x1bWJ1
czESMBAGA1UEChMJVmlraW5nVlBOMR0wGwYDVQQLExRNeU9yZ2FuaXphdGlvbmFs
VW5pdDEVMBMGA1UEAxMMVmlraW5nVlBOIENBMRAwDgYDVQQpEwdFYXN5UlNBMSEw
HwYJKoZIhvcNAQkBFhJtZUBteWhvc3QubXlkb21haW6CCQDPNYXugL8qPjATBgNV
HSUEDDAKBggrBgEFBQcDAjALBgNVHQ8EBAMCB4AwDQYJKoZIhvcNAQEEBQADggIB
AAkOY7MO057o8R4tHXlgchuaIXvaX84hsaaUBoOWn1eU1DeSs2tUDXPwcWGBurB1
hJoEV0rRAeE//madpWMRguJf88tDBWGO/SfzjDOxrbbZfRNfnuqO+UPAFKkjKjN/
PYANDJeeR+uW/MTOYccXozshgrbLdqswxEEMeJofMYYH9PjaTqj14Zv31ipP+gS1
+Rj0ZJ0QX9c2Crs+74VXanXVappQXuYrTQSaTnnOgVGmclwvj5N52ZNDIEomrza+
KSC9Z+LckPh26jBLOJdfXlLluRGBASDvOCAOnLXoTtcJtr2lFNPRp+CvrssjXJ1g
2LsDBZzobEfqwqzWu1KXhBZH1LVv/IemQzLHWnmLnPWvuEl/2XE1sBAPixQaON5L
/8WGCDsAqL6QWbENVendcBriZtpxFcix7Zcxgp8qpgVSCnt279q/pdTauY0TR1Ie
4WJq+tAZrzhPac8/E6zHAaDFKaxd5HgHgLUGPhZD2P8785FCBg0jAE4MY5BQD/Xc
rxFZUHE3CHNUp1tGzCXTPeGQ2GgxRsgn6WHn4KJCj2O/VoHM6Mu/FFJhfVuPqLt4
bCa+y95qnE53P0yJ6hQO1Z6QvOj/84QqWa2YW9mKTtrjH2x63NAEqASFqcJs5GQh
FdRjWMP7ymhD39sA31ExV7deyF7/T4gZJSemJoyGrRCn
-----END CERTIFICATE-----
