Certificate:
    Data:
        Version: 3 (0x2)
        Serial Number: 8166 (0x1fe6)
    Signature Algorithm: md5WithRSAEncryption
        Issuer: C=US, ST=OH, L=Columbus, O=VikingVPN, OU=MyOrganizationalUnit, CN=VikingVPN CA/name=EasyRSA/emailAddress=me@myhost.mydomain
        Validity
            Not Before: Jun  4 23:11:23 2016 GMT
            Not After : Jun  2 23:11:23 2026 GMT
        Subject: CN=Client2365Cert4d4ece
        Subject Public Key Info:
            Public Key Algorithm: rsaEncryption
                Public-Key: (4096 bit)
                Modulus:
                    00:d1:32:e3:8b:9c:de:9d:87:a8:f2:07:b0:d8:92:
                    f2:4b:e3:87:41:9c:93:a7:e9:32:34:05:63:94:32:
                    11:e2:d9:ad:7f:74:2b:3a:83:16:a3:10:a3:7e:7f:
                    cb:14:67:d0:f5:e6:70:ea:54:5a:4a:be:bd:db:10:
                    68:23:5d:4e:4b:4d:84:91:b2:b1:24:fe:11:f2:6f:
                    ac:5d:5c:cb:c7:02:b0:65:78:99:d6:e6:51:17:52:
                    bc:ca:00:1f:db:4c:16:ad:14:3e:3c:8e:64:2a:52:
                    cd:10:e1:77:22:25:4b:c2:be:1d:ab:4c:76:3d:9a:
                    ef:06:67:6d:7a:a6:6c:7d:44:58:47:ca:95:1d:a1:
                    83:d6:2c:9e:5f:3f:fc:30:52:bd:3c:bc:65:7d:95:
                    54:dd:ee:73:50:0d:49:4e:47:47:7a:62:ff:d0:20:
                    32:a9:d2:20:35:cd:3e:c7:a3:bb:b0:57:98:fd:a7:
                    f5:ef:c0:a7:5d:e4:ff:b7:09:82:d5:d7:8b:71:cd:
                    ef:92:69:57:cd:c7:dc:f0:c2:bd:19:2e:ef:6a:5d:
                    79:c6:58:d4:d0:f9:06:ee:49:d2:0f:dc:11:2b:61:
                    0e:af:95:ce:30:3e:6e:cc:b2:02:c2:b7:10:9d:c6:
                    31:c3:ec:44:50:a2:33:98:23:73:d5:25:b0:96:90:
                    18:c2:08:eb:5c:e0:d3:9b:70:05:29:3c:9e:90:9b:
                    c3:4e:5f:d5:66:64:83:4c:8f:24:eb:47:ea:79:61:
                    73:c3:cd:d7:10:3d:c8:8e:2e:27:6f:5e:90:4f:80:
                    df:b0:9e:3c:00:1e:57:92:ce:63:7f:e0:89:ac:92:
                    71:c4:a1:2b:c8:32:9d:20:e0:bd:46:cf:c9:08:6a:
                    05:fa:9a:54:94:67:27:73:44:7c:20:fe:a2:9f:bc:
                    39:1f:c1:51:ab:cc:40:03:a5:64:8f:ca:20:af:87:
                    f4:bd:75:61:43:1f:00:72:2b:c5:f0:d6:33:bc:d0:
                    cc:3b:c9:dc:00:ad:27:30:36:42:dd:21:36:5a:0e:
                    df:00:ab:cf:60:4c:2f:11:ad:8d:e0:02:1a:20:f5:
                    87:bd:c5:3c:de:29:7e:52:5d:b8:08:a3:63:56:55:
                    29:fe:0b:3e:54:3e:59:68:e8:16:58:70:63:c4:62:
                    10:25:15:8e:61:82:17:14:78:f6:72:24:06:a9:11:
                    38:0e:89:19:a9:a1:5a:a3:f9:44:6f:7b:cf:8f:30:
                    e0:82:9c:21:c9:0e:21:cb:ad:61:ae:d5:0f:5d:70:
                    49:40:14:c3:f2:78:a1:d4:a7:af:fa:23:bf:52:bb:
                    85:14:37:7b:9f:46:09:ee:38:71:09:88:34:f4:a1:
                    ff:67:89
                Exponent: 65537 (0x10001)
        X509v3 extensions:
            X509v3 Basic Constraints: 
                CA:FALSE
            Netscape Comment: 
                Easy-RSA Generated Certificate
            X509v3 Subject Key Identifier: 
                1A:15:2E:1B:3D:43:F1:0B:A1:D4:66:04:FB:C8:C9:C3:B7:2D:E3:92
            X509v3 Authority Key Identifier: 
                keyid:12:CD:60:04:D2:A0:80:9E:70:ED:C6:99:B8:7B:2C:C6:52:FD:19:A1
                DirName:/C=US/ST=OH/L=Columbus/O=VikingVPN/OU=MyOrganizationalUnit/CN=VikingVPN CA/name=EasyRSA/emailAddress=me@myhost.mydomain
                serial:CF:35:85:EE:80:BF:2A:3E

            X509v3 Extended Key Usage: 
                TLS Web Client Authentication
            X509v3 Key Usage: 
                Digital Signature
    Signature Algorithm: md5WithRSAEncryption
         4a:8f:13:68:8d:83:64:ec:23:7f:87:f8:85:ca:b3:83:96:38:
         82:25:13:67:c3:6e:f9:3b:4f:39:14:4f:96:72:a9:9e:67:dc:
         3a:76:a5:af:81:bc:03:e6:8c:3d:75:bf:05:05:a1:25:97:93:
         85:d2:18:d5:37:b5:a5:7c:3a:94:e1:7c:c5:c9:13:92:03:cc:
         54:78:20:17:9a:17:d1:6f:d9:b2:79:d2:ff:ab:d3:3a:34:72:
         05:10:3d:54:7b:ce:70:56:eb:e3:a1:4c:ac:0b:6d:10:b7:46:
         60:ed:d3:56:98:ca:98:ac:83:c1:82:82:a5:77:0c:57:ab:92:
         4c:22:fe:da:99:22:22:92:92:85:b4:48:63:3c:24:51:00:bf:
         00:cd:fb:71:07:59:4b:e0:b1:1c:c1:de:a4:92:5e:6d:1c:69:
         b8:89:02:8b:f8:4b:cb:91:92:a0:1a:3b:f8:84:90:3f:c9:71:
         ff:97:af:c4:c2:ee:c0:5a:90:71:df:bf:b7:a9:d7:99:76:28:
         3e:9d:90:34:af:b4:51:ac:82:ff:6a:ac:45:06:ba:9b:90:5a:
         f2:f0:53:03:13:57:b1:f6:48:2a:d2:82:da:54:df:78:77:a4:
         c9:0f:0a:a3:db:02:90:70:e1:be:91:77:2c:e7:b9:1c:eb:15:
         b1:86:87:45:e7:13:71:f3:d1:39:cd:ff:07:c1:37:b7:39:85:
         be:13:af:34:d2:2b:8f:82:d2:ec:a8:c8:39:ac:f4:03:81:2b:
         07:9f:e8:b8:f1:bf:51:9c:96:56:f2:b3:77:13:f9:f4:f4:d6:
         1b:e2:69:88:60:a7:dc:9f:af:3d:ae:c9:4d:b0:7f:8c:2f:4d:
         4a:b6:83:8f:eb:77:08:e4:11:bb:53:af:43:e7:4b:c2:62:ba:
         54:55:83:aa:14:7e:4c:57:0e:7f:c3:b4:06:dc:a7:c6:0d:7d:
         10:29:09:8c:94:7e:00:67:2c:ea:f9:43:6d:76:31:6e:52:f2:
         9a:2d:ef:a3:16:74:81:c0:50:5f:d9:c7:9e:05:12:13:a9:34:
         62:98:ce:db:a8:06:71:45:94:a1:7b:65:fe:4f:6c:ff:ca:30:
         e4:78:00:30:89:a0:e1:b9:b0:4c:91:d9:4b:78:8a:56:bb:ba:
         ef:80:6c:57:0d:24:c4:e0:79:8a:80:9b:96:a2:7c:a0:97:ba:
         9b:48:46:d1:51:0c:5c:15:f5:1e:ca:e1:4c:03:ae:5e:95:96:
         1a:05:c1:9e:d2:bb:39:98:00:87:5d:fb:bf:ab:70:47:61:8d:
         0e:c5:88:c1:80:81:6b:ff:d4:f6:12:df:0f:82:16:08:f6:88:
         c6:c9:6f:78:5b:5f:b3:d9
-----BEGIN CERTIFICATE-----
MIIGrTCCBJWgAwIBAgICH+YwDQYJKoZIhvcNAQEEBQAwgawxCzAJBgNVBAYTAlVT
MQswCQYDVQQIEwJPSDERMA8GA1UEBxMIQ29sdW1idXMxEjAQBgNVBAoTCVZpa2lu
Z1ZQTjEdMBsGA1UECxMUTXlPcmdhbml6YXRpb25hbFVuaXQxFTATBgNVBAMTDFZp
a2luZ1ZQTiBDQTEQMA4GA1UEKRMHRWFzeVJTQTEhMB8GCSqGSIb3DQEJARYSbWVA
bXlob3N0Lm15ZG9tYWluMB4XDTE2MDYwNDIzMTEyM1oXDTI2MDYwMjIzMTEyM1ow
HzEdMBsGA1UEAxMUQ2xpZW50MjM2NUNlcnQ0ZDRlY2UwggIiMA0GCSqGSIb3DQEB
AQUAA4ICDwAwggIKAoICAQDRMuOLnN6dh6jyB7DYkvJL44dBnJOn6TI0BWOUMhHi
2a1/dCs6gxajEKN+f8sUZ9D15nDqVFpKvr3bEGgjXU5LTYSRsrEk/hHyb6xdXMvH
ArBleJnW5lEXUrzKAB/bTBatFD48jmQqUs0Q4XciJUvCvh2rTHY9mu8GZ216pmx9
RFhHypUdoYPWLJ5fP/wwUr08vGV9lVTd7nNQDUlOR0d6Yv/QIDKp0iA1zT7Ho7uw
V5j9p/XvwKdd5P+3CYLV14txze+SaVfNx9zwwr0ZLu9qXXnGWNTQ+QbuSdIP3BEr
YQ6vlc4wPm7MsgLCtxCdxjHD7ERQojOYI3PVJbCWkBjCCOtc4NObcAUpPJ6Qm8NO
X9VmZINMjyTrR+p5YXPDzdcQPciOLidvXpBPgN+wnjwAHleSzmN/4ImsknHEoSvI
Mp0g4L1Gz8kIagX6mlSUZydzRHwg/qKfvDkfwVGrzEADpWSPyiCvh/S9dWFDHwBy
K8Xw1jO80Mw7ydwArScwNkLdITZaDt8Aq89gTC8RrY3gAhog9Ye9xTzeKX5SXbgI
o2NWVSn+Cz5UPllo6BZYcGPEYhAlFY5hghcUePZyJAapETgOiRmpoVqj+URve8+P
MOCCnCHJDiHLrWGu1Q9dcElAFMPyeKHUp6/6I79Su4UUN3ufRgnuOHEJiDT0of9n
iQIDAQABo4IBYzCCAV8wCQYDVR0TBAIwADAtBglghkgBhvhCAQ0EIBYeRWFzeS1S
U0EgR2VuZXJhdGVkIENlcnRpZmljYXRlMB0GA1UdDgQWBBQaFS4bPUPxC6HUZgT7
yMnDty3jkjCB4QYDVR0jBIHZMIHWgBQSzWAE0qCAnnDtxpm4eyzGUv0ZoaGBsqSB
rzCBrDELMAkGA1UEBhMCVVMxCzAJBgNVBAgTAk9IMREwDwYDVQQHEwhDb2x1bWJ1
czESMBAGA1UEChMJVmlraW5nVlBOMR0wGwYDVQQLExRNeU9yZ2FuaXphdGlvbmFs
VW5pdDEVMBMGA1UEAxMMVmlraW5nVlBOIENBMRAwDgYDVQQpEwdFYXN5UlNBMSEw
HwYJKoZIhvcNAQkBFhJtZUBteWhvc3QubXlkb21haW6CCQDPNYXugL8qPjATBgNV
HSUEDDAKBggrBgEFBQcDAjALBgNVHQ8EBAMCB4AwDQYJKoZIhvcNAQEEBQADggIB
AEqPE2iNg2TsI3+H+IXKs4OWOIIlE2fDbvk7TzkUT5ZyqZ5n3Dp2pa+BvAPmjD11
vwUFoSWXk4XSGNU3taV8OpThfMXJE5IDzFR4IBeaF9Fv2bJ50v+r0zo0cgUQPVR7
znBW6+OhTKwLbRC3RmDt01aYypisg8GCgqV3DFerkkwi/tqZIiKSkoW0SGM8JFEA
vwDN+3EHWUvgsRzB3qSSXm0cabiJAov4S8uRkqAaO/iEkD/Jcf+Xr8TC7sBakHHf
v7ep15l2KD6dkDSvtFGsgv9qrEUGupuQWvLwUwMTV7H2SCrSgtpU33h3pMkPCqPb
ApBw4b6RdyznuRzrFbGGh0XnE3Hz0TnN/wfBN7c5hb4TrzTSK4+C0uyoyDms9AOB
Kwef6Ljxv1Gcllbys3cT+fT01hviaYhgp9yfrz2uyU2wf4wvTUq2g4/rdwjkEbtT
r0PnS8JiulRVg6oUfkxXDn/DtAbcp8YNfRApCYyUfgBnLOr5Q212MW5S8pot76MW
dIHAUF/Zx54FEhOpNGKYztuoBnFFlKF7Zf5PbP/KMOR4ADCJoOG5sEyR2Ut4ila7
uu+AbFcNJMTgeYqAm5aifKCXuptIRtFRDFwV9R7K4UwDrl6VlhoFwZ7SuzmYAIdd
+7+rcEdhjQ7FiMGAgWv/1PYS3w+CFgj2iMbJb3hbX7PZ
-----END CERTIFICATE-----
