Certificate:
    Data:
        Version: 3 (0x2)
        Serial Number: 8167 (0x1fe7)
    Signature Algorithm: md5WithRSAEncryption
        Issuer: C=US, ST=OH, L=Columbus, O=VikingVPN, OU=MyOrganizationalUnit, CN=VikingVPN CA/name=EasyRSA/emailAddress=me@myhost.mydomain
        Validity
            Not Before: Jun  5 05:16:57 2016 GMT
            Not After : Jun  3 05:16:57 2026 GMT
        Subject: CN=Client2372Certfece97
        Subject Public Key Info:
            Public Key Algorithm: rsaEncryption
                Public-Key: (4096 bit)
                Modulus:
                    00:b8:3a:34:99:a6:b8:b6:6c:a5:9d:0d:4a:35:b1:
                    08:64:17:25:93:d8:2d:5a:11:c3:95:50:45:d8:58:
                    f2:3d:53:d6:00:4d:1c:cf:3f:fc:b2:30:90:78:c3:
                    95:2e:94:4a:67:a2:7b:2d:25:39:0b:30:d8:a1:e5:
                    ba:8c:f6:6c:45:e3:e7:a7:ae:2c:71:3d:ec:12:4a:
                    9e:0b:dd:1b:55:8a:45:6b:6f:ad:a3:b0:5f:da:23:
                    bc:2b:6a:7d:d7:66:a5:27:76:4d:fa:33:63:0d:4e:
                    d0:ff:29:17:10:e1:7e:08:f9:9b:42:f0:6a:6d:ef:
                    7a:98:60:b7:bb:0c:18:70:06:9c:9f:61:7c:6d:c3:
                    8e:3d:3a:b4:59:91:84:52:2c:5b:b3:ab:38:88:ef:
                    e9:e1:bf:eb:8b:00:a4:e9:b3:e8:f9:de:f6:a5:ac:
                    ad:b9:22:7a:25:d3:a4:f2:4d:45:0a:d2:15:30:27:
                    86:51:ee:d7:ed:99:04:f6:e6:8a:27:57:36:a6:f9:
                    76:da:ed:ae:82:32:25:de:ec:d0:b6:c6:11:76:c5:
                    d3:c5:2b:37:b7:f9:8c:1e:a0:70:45:2a:b2:40:9e:
                    8c:11:3f:92:1d:b6:7a:5c:4a:de:fb:dd:56:ca:25:
                    24:fe:8e:e8:db:d7:f2:23:c5:2d:5c:a9:9e:b9:88:
                    51:cc:7b:ab:7e:bd:6d:eb:4c:9f:da:21:07:d7:8b:
                    d4:1d:87:30:f3:eb:67:6e:f6:0e:ac:84:27:8b:db:
                    b0:7b:ce:8b:1e:2a:ef:76:53:e4:77:35:02:f8:9f:
                    4f:46:0d:7a:cb:a6:f5:e2:70:e7:6a:f4:f3:4f:d8:
                    0d:03:3c:e5:d0:87:1e:f6:01:d7:cc:b6:29:32:80:
                    3b:c5:f5:99:64:ec:45:8d:37:cd:dc:b2:9a:f1:e6:
                    2a:66:2b:aa:72:39:82:35:95:aa:db:0f:e6:82:dd:
                    de:99:78:13:b1:16:68:e2:00:cd:99:1d:03:ba:8f:
                    66:8b:87:9a:64:aa:34:0f:a6:0d:48:1c:5e:b3:5b:
                    22:c6:fb:6e:f0:11:10:9e:1c:e4:c5:2e:ab:1d:c7:
                    77:90:bc:36:52:0e:12:44:42:d4:32:ff:24:13:98:
                    52:9f:6e:10:3c:8c:25:f8:b1:fc:98:34:93:c5:77:
                    e0:53:df:92:3d:65:00:f6:0a:ca:89:98:40:88:85:
                    7f:7a:82:63:a1:4e:fa:bf:c1:92:d5:27:03:7b:a2:
                    6c:98:06:a7:ef:17:8a:2d:53:a1:fb:6e:96:d9:26:
                    0e:cf:1f:50:f4:f1:2b:16:13:21:eb:4d:5a:89:a0:
                    c3:58:2b:e0:e2:e1:cc:57:b3:e9:fe:8b:48:6a:c4:
                    64:fe:27
                Exponent: 65537 (0x10001)
        X509v3 extensions:
            X509v3 Basic Constraints: 
                CA:FALSE
            Netscape Comment: 
                Easy-RSA Generated Certificate
            X509v3 Subject Key Identifier: 
                13:11:E8:AA:51:8D:E4:EC:10:91:FC:ED:69:62:9E:18:77:35:FC:30
            X509v3 Authority Key Identifier: 
                keyid:12:CD:60:04:D2:A0:80:9E:70:ED:C6:99:B8:7B:2C:C6:52:FD:19:A1
                DirName:/C=US/ST=OH/L=Columbus/O=VikingVPN/OU=MyOrganizationalUnit/CN=VikingVPN CA/name=EasyRSA/emailAddress=me@myhost.mydomain
                serial:CF:35:85:EE:80:BF:2A:3E

            X509v3 Extended Key Usage: 
                TLS Web Client Authentication
            X509v3 Key Usage: 
                Digital Signature
    Signature Algorithm: md5WithRSAEncryption
         9c:01:f0:be:54:7a:8e:80:50:c7:62:c2:21:7a:6e:1a:6b:41:
         37:89:e1:8a:33:0e:e7:62:f1:d5:08:93:0b:a4:a5:39:db:6a:
         fa:75:b3:7b:43:d6:9d:58:d8:95:60:9c:f8:3e:15:7c:d0:55:
         3a:4c:87:15:37:77:21:c9:36:ca:cd:83:cb:ce:7d:cf:e5:66:
         fb:fd:a3:4e:49:a5:13:fd:e1:8f:13:4f:29:1a:d0:fd:68:e3:
         b0:64:cd:12:28:39:47:6a:77:59:4d:c4:be:67:94:d4:f2:ac:
         2e:cd:0d:1d:cb:05:bd:fd:7c:d3:bc:44:6c:9c:be:c5:8e:ee:
         0f:1a:59:8a:8a:4a:bd:53:37:0c:1c:1f:1d:bf:1e:b7:d9:e4:
         f8:20:59:d0:15:89:94:b9:67:ca:27:34:f6:38:3d:b5:6a:54:
         fb:09:e5:d5:82:48:3a:e3:6f:36:33:9d:be:fa:9c:b1:af:3d:
         6d:57:22:03:f8:51:5e:a1:e5:43:9d:92:8a:3d:d3:8b:b6:fd:
         18:0b:a1:7d:84:87:e8:e8:af:5a:57:2f:e2:eb:f8:2a:99:39:
         53:79:dd:6b:f7:08:4f:5b:85:2f:68:79:16:51:f9:77:85:c8:
         00:78:b8:e5:4e:da:09:70:e7:05:f3:cc:04:68:87:d3:9d:3f:
         7f:da:a2:00:d6:ef:60:4e:f4:06:c6:2e:9e:ae:33:6b:5d:ba:
         37:4a:55:67:e4:74:dc:7b:05:ef:73:bf:93:31:ef:ef:37:1a:
         83:83:21:ab:16:92:bb:8e:f5:f8:ad:87:97:32:a5:f1:a1:62:
         cd:e1:be:78:90:fb:48:eb:df:ad:e0:73:c3:b7:95:75:49:c6:
         50:3f:74:8a:ba:63:04:8e:58:f5:55:4b:de:de:d4:67:6b:ec:
         e4:94:cb:bf:9b:ad:3d:72:cb:7d:22:e3:f2:de:c8:e0:de:9c:
         96:d2:c0:77:f1:bc:f3:68:e5:c5:8d:ac:d2:32:dd:09:3e:07:
         91:af:ca:77:dd:b2:5f:59:a2:61:09:74:a7:64:59:e8:f7:e3:
         c5:4e:d6:0d:93:4c:17:29:a0:5a:35:9b:6e:bb:cb:0c:57:47:
         f1:ff:c5:01:3a:7f:0c:57:a4:f3:6b:5d:06:0d:89:a2:32:c6:
         1c:32:7a:83:bd:eb:60:89:ea:24:5d:4f:31:7f:15:30:e2:de:
         82:ba:be:b2:ac:c1:3c:af:f6:6e:fc:78:40:70:c2:75:31:f7:
         c4:03:c8:b8:fb:aa:dd:b8:12:88:91:72:69:3d:1c:eb:3e:fd:
         48:61:16:1f:81:d2:a2:df:f2:97:ea:ac:22:e1:f6:3b:7b:a5:
         85:e8:d6:c2:c3:ae:59:16
-----BEGIN CERTIFICATE-----
MIIGrTCCBJWgAwIBAgICH+cwDQYJKoZIhvcNAQEEBQAwgawxCzAJBgNVBAYTAlVT
MQswCQYDVQQIEwJPSDERMA8GA1UEBxMIQ29sdW1idXMxEjAQBgNVBAoTCVZpa2lu
Z1ZQTjEdMBsGA1UECxMUTXlPcmdhbml6YXRpb25hbFVuaXQxFTATBgNVBAMTDFZp
a2luZ1ZQTiBDQTEQMA4GA1UEKRMHRWFzeVJTQTEhMB8GCSqGSIb3DQEJARYSbWVA
bXlob3N0Lm15ZG9tYWluMB4XDTE2MDYwNTA1MTY1N1oXDTI2MDYwMzA1MTY1N1ow
HzEdMBsGA1UEAxMUQ2xpZW50MjM3MkNlcnRmZWNlOTcwggIiMA0GCSqGSIb3DQEB
AQUAA4ICDwAwggIKAoICAQC4OjSZpri2bKWdDUo1sQhkFyWT2C1aEcOVUEXYWPI9
U9YATRzPP/yyMJB4w5UulEpnonstJTkLMNih5bqM9mxF4+enrixxPewSSp4L3RtV
ikVrb62jsF/aI7wran3XZqUndk36M2MNTtD/KRcQ4X4I+ZtC8Gpt73qYYLe7DBhw
BpyfYXxtw449OrRZkYRSLFuzqziI7+nhv+uLAKTps+j53valrK25Inol06TyTUUK
0hUwJ4ZR7tftmQT25oonVzam+Xba7a6CMiXe7NC2xhF2xdPFKze3+YweoHBFKrJA
nowRP5IdtnpcSt773VbKJST+jujb1/IjxS1cqZ65iFHMe6t+vW3rTJ/aIQfXi9Qd
hzDz62du9g6shCeL27B7zoseKu92U+R3NQL4n09GDXrLpvXicOdq9PNP2A0DPOXQ
hx72AdfMtikygDvF9Zlk7EWNN83csprx5ipmK6pyOYI1larbD+aC3d6ZeBOxFmji
AM2ZHQO6j2aLh5pkqjQPpg1IHF6zWyLG+27wERCeHOTFLqsdx3eQvDZSDhJEQtQy
/yQTmFKfbhA8jCX4sfyYNJPFd+BT35I9ZQD2CsqJmECIhX96gmOhTvq/wZLVJwN7
omyYBqfvF4otU6H7bpbZJg7PH1D08SsWEyHrTVqJoMNYK+Di4cxXs+n+i0hqxGT+
JwIDAQABo4IBYzCCAV8wCQYDVR0TBAIwADAtBglghkgBhvhCAQ0EIBYeRWFzeS1S
U0EgR2VuZXJhdGVkIENlcnRpZmljYXRlMB0GA1UdDgQWBBQTEeiqUY3k7BCR/O1p
Yp4YdzX8MDCB4QYDVR0jBIHZMIHWgBQSzWAE0qCAnnDtxpm4eyzGUv0ZoaGBsqSB
rzCBrDELMAkGA1UEBhMCVVMxCzAJBgNVBAgTAk9IMREwDwYDVQQHEwhDb2x1bWJ1
czESMBAGA1UEChMJVmlraW5nVlBOMR0wGwYDVQQLExRNeU9yZ2FuaXphdGlvbmFs
VW5pdDEVMBMGA1UEAxMMVmlraW5nVlBOIENBMRAwDgYDVQQpEwdFYXN5UlNBMSEw
HwYJKoZIhvcNAQkBFhJtZUBteWhvc3QubXlkb21haW6CCQDPNYXugL8qPjATBgNV
HSUEDDAKBggrBgEFBQcDAjALBgNVHQ8EBAMCB4AwDQYJKoZIhvcNAQEEBQADggIB
AJwB8L5Ueo6AUMdiwiF6bhprQTeJ4YozDudi8dUIkwukpTnbavp1s3tD1p1Y2JVg
nPg+FXzQVTpMhxU3dyHJNsrNg8vOfc/lZvv9o05JpRP94Y8TTyka0P1o47BkzRIo
OUdqd1lNxL5nlNTyrC7NDR3LBb39fNO8RGycvsWO7g8aWYqKSr1TNwwcHx2/HrfZ
5PggWdAViZS5Z8onNPY4PbVqVPsJ5dWCSDrjbzYznb76nLGvPW1XIgP4UV6h5UOd
koo904u2/RgLoX2Eh+jor1pXL+Lr+CqZOVN53Wv3CE9bhS9oeRZR+XeFyAB4uOVO
2glw5wXzzARoh9OdP3/aogDW72BO9AbGLp6uM2tdujdKVWfkdNx7Be9zv5Mx7+83
GoODIasWkruO9fith5cypfGhYs3hvniQ+0jr363gc8O3lXVJxlA/dIq6YwSOWPVV
S97e1Gdr7OSUy7+brT1yy30i4/LeyODenJbSwHfxvPNo5cWNrNIy3Qk+B5Gvynfd
sl9ZomEJdKdkWej348VO1g2TTBcpoFo1m267ywxXR/H/xQE6fwxXpPNrXQYNiaIy
xhwyeoO962CJ6iRdTzF/FTDi3oK6vrKswTyv9m78eEBwwnUx98QDyLj7qt24EoiR
cmk9HOs+/UhhFh+B0qLf8pfqrCLh9jt7pYXo1sLDrlkW
-----END CERTIFICATE-----
