Certificate:
    Data:
        Version: 3 (0x2)
        Serial Number: 8169 (0x1fe9)
    Signature Algorithm: md5WithRSAEncryption
        Issuer: C=US, ST=OH, L=Columbus, O=VikingVPN, OU=MyOrganizationalUnit, CN=VikingVPN CA/name=EasyRSA/emailAddress=me@myhost.mydomain
        Validity
            Not Before: Jun  5 06:06:00 2016 GMT
            Not After : Jun  3 06:06:00 2026 GMT
        Subject: CN=Client2373Cert581230
        Subject Public Key Info:
            Public Key Algorithm: rsaEncryption
                Public-Key: (4096 bit)
                Modulus:
                    00:9f:7e:f6:ba:8c:72:4f:e0:d2:c6:31:b1:f0:59:
                    9e:9f:3a:35:bd:62:79:bc:69:c5:e0:8e:f8:ee:31:
                    0f:c2:b7:ba:84:fd:d2:bc:19:39:be:96:ba:a2:08:
                    42:7f:35:e7:f4:96:d8:79:a1:0c:b0:bc:9a:fb:b2:
                    9a:7a:d9:c9:cc:56:0d:6f:06:5e:ad:93:e0:47:63:
                    b9:68:78:4c:36:5c:e0:37:b4:5e:c6:ca:bd:a6:f8:
                    ac:b3:b3:45:b6:45:23:5f:ca:0d:c5:82:c2:5b:3b:
                    dd:ac:07:cf:d1:6d:f7:e4:4e:dc:e7:40:92:9c:7c:
                    a6:ab:ea:a3:79:53:d9:2b:82:ea:5f:f7:0f:54:e7:
                    c6:19:4d:ab:1c:65:96:54:78:7c:02:f0:a3:3f:79:
                    52:3c:c0:1c:24:92:fa:84:4d:b7:f4:6e:f4:eb:ab:
                    6f:4b:c9:cb:16:13:d3:78:9c:c4:e4:cc:4d:dd:0c:
                    8c:08:25:48:e9:15:13:79:95:98:d8:ed:08:e3:36:
                    6b:fc:56:5a:db:ce:e6:e9:2c:d8:90:05:53:0d:06:
                    34:9f:60:e4:16:53:f1:85:47:36:91:59:98:de:85:
                    96:45:5e:d2:17:57:1d:77:be:b9:ad:cf:8a:7f:55:
                    00:11:3c:af:54:78:cc:7b:22:9f:80:ad:8b:cd:87:
                    72:b2:6c:9b:32:fc:dd:09:0b:5d:8f:02:1d:78:80:
                    8c:74:7e:a2:ba:58:db:24:93:ac:5e:89:fc:17:6a:
                    86:c3:10:22:87:1f:d3:36:9f:a4:c9:e4:e6:f9:ce:
                    a2:93:40:63:ac:c6:a9:0c:12:d5:38:10:e1:4b:e5:
                    9a:78:75:84:0b:20:c3:d4:13:d9:64:ad:67:1b:ee:
                    60:f8:85:25:51:88:ef:8a:50:ca:fc:79:ea:79:04:
                    bf:54:64:1a:8c:27:e6:fc:dc:39:93:75:38:d7:bb:
                    74:6c:e6:15:e7:81:14:33:db:7f:d3:59:82:a2:4f:
                    ff:a6:06:ca:0a:da:c8:3b:9c:28:ea:58:1c:4d:3a:
                    bf:36:be:ff:53:52:7b:35:ca:20:ef:d9:4d:b3:2e:
                    ff:de:0c:eb:8b:43:57:a8:5e:35:eb:d1:1a:6f:18:
                    db:e9:5e:49:35:79:a6:5b:54:5e:1c:01:9e:29:e3:
                    22:7f:57:c1:b9:a9:d7:05:ba:b3:4c:8f:e5:2d:6d:
                    dc:98:80:5e:10:3d:75:b3:2a:ea:48:5a:71:7b:b8:
                    5d:08:fe:ac:19:74:0a:02:e5:7e:55:de:fa:fc:ab:
                    0d:44:7f:8c:00:d0:bb:33:14:be:e5:eb:eb:3d:ca:
                    b7:df:10:a5:01:36:bd:6b:6a:65:f1:7f:99:5e:f9:
                    b5:4e:e9
                Exponent: 65537 (0x10001)
        X509v3 extensions:
            X509v3 Basic Constraints: 
                CA:FALSE
            Netscape Comment: 
                Easy-RSA Generated Certificate
            X509v3 Subject Key Identifier: 
                F7:86:DF:15:27:BF:67:D0:29:32:F7:B2:A5:37:F2:DD:B2:21:BE:84
            X509v3 Authority Key Identifier: 
                keyid:12:CD:60:04:D2:A0:80:9E:70:ED:C6:99:B8:7B:2C:C6:52:FD:19:A1
                DirName:/C=US/ST=OH/L=Columbus/O=VikingVPN/OU=MyOrganizationalUnit/CN=VikingVPN CA/name=EasyRSA/emailAddress=me@myhost.mydomain
                serial:CF:35:85:EE:80:BF:2A:3E

            X509v3 Extended Key Usage: 
                TLS Web Client Authentication
            X509v3 Key Usage: 
                Digital Signature
    Signature Algorithm: md5WithRSAEncryption
         48:6e:d3:0e:b4:ab:1f:a6:fa:09:11:41:ea:85:a1:3e:68:1f:
         cb:3a:26:4c:9f:c3:78:ea:aa:8f:35:1c:00:27:de:f9:78:da:
         2c:89:ac:59:c7:8e:26:42:7a:00:59:53:b4:0b:1a:2d:c7:81:
         0f:21:fa:c8:78:75:b4:2c:13:8a:ac:ba:fc:51:ce:19:b7:bf:
         76:c3:cf:b7:5f:0d:6b:d4:83:93:ce:5f:d4:c3:cc:80:80:d3:
         26:94:de:78:67:97:8d:f3:ef:42:31:79:2f:2f:34:59:09:7a:
         e2:86:9d:26:4c:92:d1:ae:8b:2c:ba:83:b4:c2:37:bc:fa:21:
         78:6d:3b:0c:f5:ca:70:35:44:3a:2e:f4:ee:73:ac:5a:fe:12:
         2f:7e:87:d1:14:21:46:df:12:45:b9:51:ae:09:17:4c:a7:64:
         38:74:8f:02:7b:36:19:0a:d6:4b:42:66:7c:aa:51:e4:77:d5:
         42:9d:f5:bc:1b:c1:a6:ea:7f:c6:cf:ba:a1:0d:c6:78:96:75:
         83:17:fb:74:fb:e5:8d:b2:0c:b8:69:02:05:1f:ac:a9:84:78:
         4b:bc:1e:f1:ba:99:e2:46:e5:89:4e:3d:38:6c:d6:a6:f6:13:
         84:c1:62:24:45:fc:aa:df:0c:20:45:e4:75:f2:e1:06:4a:87:
         fb:51:fd:d1:cf:59:b0:79:d5:fe:06:8e:9f:a3:44:9f:9d:8f:
         04:59:88:04:af:b3:28:f0:0f:6b:a8:72:fb:06:86:c1:a7:c4:
         5f:2a:53:38:34:b2:cf:9b:a7:03:0d:ec:86:22:31:c6:86:d4:
         b1:45:f5:a1:1a:06:16:de:18:32:b5:f7:36:0d:89:2e:ab:d2:
         8a:d1:30:6f:23:3a:d7:bf:ef:d6:b9:fe:89:a8:e3:9c:61:89:
         ba:ac:36:36:c8:a5:26:48:ac:d6:72:0b:63:54:3f:68:6d:92:
         02:9f:27:73:25:4d:52:34:0d:be:87:9a:78:c4:a4:81:c7:97:
         0c:2a:5e:d4:59:03:46:c3:60:c0:4e:38:2d:7e:d2:e4:e4:6c:
         40:ca:65:e1:05:21:17:dc:69:ed:9c:97:23:44:1a:fc:92:a2:
         a7:f3:3e:29:f0:03:2e:6f:5f:1a:28:60:f6:80:25:9f:c3:f3:
         df:28:88:13:5e:b2:e7:24:3f:07:65:52:28:d9:28:81:96:ba:
         ee:b5:b2:d3:ec:87:4d:92:2a:16:2e:2e:8b:cb:df:29:b5:9b:
         9c:cc:fb:1a:42:0f:55:fe:04:99:8d:09:94:18:f5:bc:cd:24:
         1e:35:7a:79:0c:f8:7e:05:ca:c2:21:e8:d5:b2:b0:e5:80:1e:
         ab:97:d9:02:06:39:53:58
-----BEGIN CERTIFICATE-----
MIIGrTCCBJWgAwIBAgICH+kwDQYJKoZIhvcNAQEEBQAwgawxCzAJBgNVBAYTAlVT
MQswCQYDVQQIEwJPSDERMA8GA1UEBxMIQ29sdW1idXMxEjAQBgNVBAoTCVZpa2lu
Z1ZQTjEdMBsGA1UECxMUTXlPcmdhbml6YXRpb25hbFVuaXQxFTATBgNVBAMTDFZp
a2luZ1ZQTiBDQTEQMA4GA1UEKRMHRWFzeVJTQTEhMB8GCSqGSIb3DQEJARYSbWVA
bXlob3N0Lm15ZG9tYWluMB4XDTE2MDYwNTA2MDYwMFoXDTI2MDYwMzA2MDYwMFow
HzEdMBsGA1UEAxMUQ2xpZW50MjM3M0NlcnQ1ODEyMzAwggIiMA0GCSqGSIb3DQEB
AQUAA4ICDwAwggIKAoICAQCffva6jHJP4NLGMbHwWZ6fOjW9Ynm8acXgjvjuMQ/C
t7qE/dK8GTm+lrqiCEJ/Nef0lth5oQywvJr7spp62cnMVg1vBl6tk+BHY7loeEw2
XOA3tF7Gyr2m+Kyzs0W2RSNfyg3FgsJbO92sB8/RbffkTtznQJKcfKar6qN5U9kr
gupf9w9U58YZTascZZZUeHwC8KM/eVI8wBwkkvqETbf0bvTrq29LycsWE9N4nMTk
zE3dDIwIJUjpFRN5lZjY7QjjNmv8VlrbzubpLNiQBVMNBjSfYOQWU/GFRzaRWZje
hZZFXtIXVx13vrmtz4p/VQARPK9UeMx7Ip+ArYvNh3KybJsy/N0JC12PAh14gIx0
fqK6WNskk6xeifwXaobDECKHH9M2n6TJ5Ob5zqKTQGOsxqkMEtU4EOFL5Zp4dYQL
IMPUE9lkrWcb7mD4hSVRiO+KUMr8eep5BL9UZBqMJ+b83DmTdTjXu3Rs5hXngRQz
23/TWYKiT/+mBsoK2sg7nCjqWBxNOr82vv9TUns1yiDv2U2zLv/eDOuLQ1eoXjXr
0RpvGNvpXkk1eaZbVF4cAZ4p4yJ/V8G5qdcFurNMj+UtbdyYgF4QPXWzKupIWnF7
uF0I/qwZdAoC5X5V3vr8qw1Ef4wA0LszFL7l6+s9yrffEKUBNr1ramXxf5le+bVO
6QIDAQABo4IBYzCCAV8wCQYDVR0TBAIwADAtBglghkgBhvhCAQ0EIBYeRWFzeS1S
U0EgR2VuZXJhdGVkIENlcnRpZmljYXRlMB0GA1UdDgQWBBT3ht8VJ79n0Cky97Kl
N/LdsiG+hDCB4QYDVR0jBIHZMIHWgBQSzWAE0qCAnnDtxpm4eyzGUv0ZoaGBsqSB
rzCBrDELMAkGA1UEBhMCVVMxCzAJBgNVBAgTAk9IMREwDwYDVQQHEwhDb2x1bWJ1
czESMBAGA1UEChMJVmlraW5nVlBOMR0wGwYDVQQLExRNeU9yZ2FuaXphdGlvbmFs
VW5pdDEVMBMGA1UEAxMMVmlraW5nVlBOIENBMRAwDgYDVQQpEwdFYXN5UlNBMSEw
HwYJKoZIhvcNAQkBFhJtZUBteWhvc3QubXlkb21haW6CCQDPNYXugL8qPjATBgNV
HSUEDDAKBggrBgEFBQcDAjALBgNVHQ8EBAMCB4AwDQYJKoZIhvcNAQEEBQADggIB
AEhu0w60qx+m+gkRQeqFoT5oH8s6Jkyfw3jqqo81HAAn3vl42iyJrFnHjiZCegBZ
U7QLGi3HgQ8h+sh4dbQsE4qsuvxRzhm3v3bDz7dfDWvUg5POX9TDzICA0yaU3nhn
l43z70IxeS8vNFkJeuKGnSZMktGuiyy6g7TCN7z6IXhtOwz1ynA1RDou9O5zrFr+
Ei9+h9EUIUbfEkW5Ua4JF0ynZDh0jwJ7NhkK1ktCZnyqUeR31UKd9bwbwabqf8bP
uqENxniWdYMX+3T75Y2yDLhpAgUfrKmEeEu8HvG6meJG5YlOPThs1qb2E4TBYiRF
/KrfDCBF5HXy4QZKh/tR/dHPWbB51f4Gjp+jRJ+djwRZiASvsyjwD2uocvsGhsGn
xF8qUzg0ss+bpwMN7IYiMcaG1LFF9aEaBhbeGDK19zYNiS6r0orRMG8jOte/79a5
/omo45xhibqsNjbIpSZIrNZyC2NUP2htkgKfJ3MlTVI0Db6HmnjEpIHHlwwqXtRZ
A0bDYMBOOC1+0uTkbEDKZeEFIRfcae2clyNEGvySoqfzPinwAy5vXxooYPaAJZ/D
898oiBNesuckPwdlUijZKIGWuu61stPsh02SKhYuLovL3ym1m5zM+xpCD1X+BJmN
CZQY9bzNJB41enkM+H4FysIh6NWysOWAHquX2QIGOVNY
-----END CERTIFICATE-----
