Certificate:
    Data:
        Version: 3 (0x2)
        Serial Number: 8216 (0x2018)
    Signature Algorithm: md5WithRSAEncryption
        Issuer: C=US, ST=OH, L=Columbus, O=VikingVPN, OU=MyOrganizationalUnit, CN=VikingVPN CA/name=EasyRSA/emailAddress=me@myhost.mydomain
        Validity
            Not Before: Jun  8 10:30:07 2016 GMT
            Not After : Jun  6 10:30:07 2026 GMT
        Subject: CN=Client1702Cert39438a
        Subject Public Key Info:
            Public Key Algorithm: rsaEncryption
                Public-Key: (4096 bit)
                Modulus:
                    00:ec:b4:40:ee:c4:12:8f:b8:f4:47:3f:09:40:cd:
                    d0:1c:a5:0c:66:7f:bc:2a:f9:65:7c:69:66:b2:9d:
                    3f:e6:2c:a4:c9:a9:be:1e:0e:ac:90:ff:99:5a:ea:
                    dd:8b:83:f8:ec:db:a7:6a:ce:c7:dc:a0:ed:10:d9:
                    eb:9d:e0:5c:2b:0a:2a:54:23:85:eb:52:25:9c:e0:
                    bd:b8:97:33:4d:dc:cb:85:aa:e6:f2:78:33:e6:38:
                    76:75:d3:81:2a:ec:43:37:77:cd:e7:aa:dc:b4:11:
                    e5:b0:9b:70:3d:7f:49:1d:7c:7b:9f:23:7d:d9:b4:
                    6c:8c:f6:f5:cb:f3:8c:f1:0a:dc:e1:92:7d:51:0e:
                    91:28:98:cc:ba:0f:8a:d7:9e:b7:b9:e8:7a:72:68:
                    6a:dd:a1:7f:6e:3b:9c:99:0b:47:c8:23:2b:9e:fb:
                    7b:fe:60:00:35:da:49:d5:98:fb:a7:e7:9d:34:17:
                    af:0b:33:91:b4:36:2d:0b:f8:33:dc:3d:ba:c9:ee:
                    f4:b9:f5:db:30:98:c5:6a:b6:47:ed:e7:6a:85:53:
                    5f:6a:3b:c6:69:78:70:d2:09:f8:84:c7:ba:96:26:
                    9f:96:db:4c:fd:02:75:38:a6:5b:20:47:ce:4b:74:
                    78:ae:f0:4d:e0:35:01:b8:09:a8:fe:ee:66:fc:bf:
                    be:5c:ba:eb:eb:64:1c:92:65:c5:df:d5:32:17:dc:
                    99:d6:24:b0:74:a8:4b:a3:e8:1e:0c:e9:47:32:4b:
                    df:12:dc:02:50:9d:e8:33:a7:85:ec:9e:fa:7a:48:
                    5f:93:10:ef:04:84:81:a3:07:47:7b:21:de:44:c4:
                    8d:1f:03:c3:8c:af:17:93:a3:8a:d7:d3:e0:54:f5:
                    17:96:0c:52:a3:26:6d:da:a4:ff:e7:40:74:6c:7f:
                    cc:b4:b8:e1:87:d7:c3:0f:06:8b:73:20:cd:2f:a6:
                    64:6f:33:77:45:31:62:85:98:7d:99:1d:c2:bb:ba:
                    e5:32:88:8e:1c:cb:95:78:99:e4:87:59:b5:41:56:
                    3b:60:64:a4:84:98:b6:b8:30:e1:6c:f9:86:13:68:
                    17:62:a9:91:5a:e0:1e:c6:70:dd:26:86:79:f2:98:
                    22:d6:69:5f:45:35:3e:a6:56:bf:f6:b6:d8:b7:02:
                    81:5c:c7:0b:d8:c8:5c:15:66:52:0c:7f:4f:5d:18:
                    63:c1:b4:c2:2b:c0:87:d0:3e:c3:95:b2:fd:75:7a:
                    0a:65:50:4b:aa:e2:f7:4d:79:98:d8:f0:8d:f9:29:
                    4b:3c:3f:46:c0:07:07:d8:03:27:4c:e7:64:dd:29:
                    12:40:9a:d1:cd:b8:a8:1f:17:fb:3c:73:98:b3:c2:
                    74:0d:11
                Exponent: 65537 (0x10001)
        X509v3 extensions:
            X509v3 Basic Constraints: 
                CA:FALSE
            Netscape Comment: 
                Easy-RSA Generated Certificate
            X509v3 Subject Key Identifier: 
                9F:DD:D2:6F:7E:AE:7F:BB:FE:50:78:30:FE:14:42:C0:F8:8C:D3:2C
            X509v3 Authority Key Identifier: 
                keyid:12:CD:60:04:D2:A0:80:9E:70:ED:C6:99:B8:7B:2C:C6:52:FD:19:A1
                DirName:/C=US/ST=OH/L=Columbus/O=VikingVPN/OU=MyOrganizationalUnit/CN=VikingVPN CA/name=EasyRSA/emailAddress=me@myhost.mydomain
                serial:CF:35:85:EE:80:BF:2A:3E

            X509v3 Extended Key Usage: 
                TLS Web Client Authentication
            X509v3 Key Usage: 
                Digital Signature
    Signature Algorithm: md5WithRSAEncryption
         e5:54:27:31:82:34:5e:aa:02:75:c4:b2:f2:a3:c2:1e:8f:a8:
         30:2f:b6:aa:e6:37:30:d6:f1:27:a4:f0:fa:6a:92:12:93:a7:
         e9:ef:68:21:14:b3:0d:2b:8e:e8:0f:b5:92:a3:03:93:8f:a5:
         01:7f:cf:41:24:86:47:6e:06:f4:9f:8d:d9:a4:d8:ef:6b:bf:
         00:ed:18:88:3a:f2:01:b0:60:11:1c:9d:4b:b0:83:ed:2a:3c:
         b1:05:70:98:7c:12:4d:18:35:e6:9b:f9:1b:2f:67:28:cf:b3:
         f2:c8:cf:3a:96:18:b8:bc:36:b8:9d:e5:f5:3c:b7:a2:a0:c5:
         5e:4e:a3:97:34:39:74:93:98:3d:a2:84:98:77:63:9a:d1:9e:
         cf:d3:04:ba:0f:71:a0:e5:3e:15:77:25:3b:54:3d:69:f4:9b:
         e4:85:31:71:99:70:0d:01:90:1b:d8:70:6f:b0:ff:6f:44:38:
         2c:77:55:49:a3:af:3c:6e:1d:3b:44:88:d8:28:b3:7a:ed:3d:
         e6:58:20:48:a2:df:73:27:39:31:81:9b:5b:f5:8f:6b:43:9c:
         d4:6c:8d:00:5c:86:0e:cc:da:85:4e:a4:e1:dc:4c:9a:ed:20:
         88:1f:64:d8:35:2f:25:62:0d:6d:29:61:d2:79:15:1f:f7:ed:
         14:68:a2:7f:31:14:c3:89:2d:6d:7b:7f:f8:be:fa:9f:f4:ce:
         0b:eb:e1:c1:a3:99:02:f1:39:b8:8d:46:7c:80:5a:08:5c:10:
         bb:93:5f:8c:42:a3:f7:60:7f:9e:be:63:9d:25:e4:e2:a3:d5:
         5b:0e:74:d6:6e:06:4e:a0:02:26:5b:c5:9b:d4:54:b7:16:6a:
         91:5c:c4:47:22:39:de:41:99:c3:77:f4:0b:99:49:99:31:49:
         51:9b:99:f3:03:fe:02:57:fa:5f:e3:d4:07:11:3d:ee:49:a9:
         09:56:21:26:11:fb:e6:9b:42:35:9c:15:88:5f:58:dd:64:e5:
         bd:7b:41:8c:d8:26:12:20:77:0e:32:44:d8:a9:e6:22:42:19:
         58:e5:60:df:b5:c5:0a:e6:38:0c:97:04:fe:5d:2a:f3:4a:a1:
         56:1d:b3:e0:cd:2f:56:30:db:70:e9:4d:93:cc:e1:b9:85:ac:
         c7:2d:49:70:29:c0:6a:89:94:ef:e4:81:e5:78:b2:12:ce:b1:
         13:59:da:c6:b7:16:5f:11:71:d1:d7:68:4d:58:c8:ab:15:34:
         ee:a9:8b:df:8b:d6:41:17:a8:e2:51:62:60:1c:21:0f:fd:de:
         93:b9:a3:03:7b:83:4d:02:bb:af:96:b1:f0:9e:df:ab:fa:be:
         f0:c7:3b:c8:d5:99:56:ff
-----BEGIN CERTIFICATE-----
MIIGrTCCBJWgAwIBAgICIBgwDQYJKoZIhvcNAQEEBQAwgawxCzAJBgNVBAYTAlVT
MQswCQYDVQQIEwJPSDERMA8GA1UEBxMIQ29sdW1idXMxEjAQBgNVBAoTCVZpa2lu
Z1ZQTjEdMBsGA1UECxMUTXlPcmdhbml6YXRpb25hbFVuaXQxFTATBgNVBAMTDFZp
a2luZ1ZQTiBDQTEQMA4GA1UEKRMHRWFzeVJTQTEhMB8GCSqGSIb3DQEJARYSbWVA
bXlob3N0Lm15ZG9tYWluMB4XDTE2MDYwODEwMzAwN1oXDTI2MDYwNjEwMzAwN1ow
HzEdMBsGA1UEAxMUQ2xpZW50MTcwMkNlcnQzOTQzOGEwggIiMA0GCSqGSIb3DQEB
AQUAA4ICDwAwggIKAoICAQDstEDuxBKPuPRHPwlAzdAcpQxmf7wq+WV8aWaynT/m
LKTJqb4eDqyQ/5la6t2Lg/js26dqzsfcoO0Q2eud4FwrCipUI4XrUiWc4L24lzNN
3MuFqubyeDPmOHZ104Eq7EM3d83nqty0EeWwm3A9f0kdfHufI33ZtGyM9vXL84zx
Ctzhkn1RDpEomMy6D4rXnre56HpyaGrdoX9uO5yZC0fIIyue+3v+YAA12knVmPun
5500F68LM5G0Ni0L+DPcPbrJ7vS59dswmMVqtkft52qFU19qO8ZpeHDSCfiEx7qW
Jp+W20z9AnU4plsgR85LdHiu8E3gNQG4Caj+7mb8v75cuuvrZBySZcXf1TIX3JnW
JLB0qEuj6B4M6UcyS98S3AJQnegzp4Xsnvp6SF+TEO8EhIGjB0d7Id5ExI0fA8OM
rxeTo4rX0+BU9ReWDFKjJm3apP/nQHRsf8y0uOGH18MPBotzIM0vpmRvM3dFMWKF
mH2ZHcK7uuUyiI4cy5V4meSHWbVBVjtgZKSEmLa4MOFs+YYTaBdiqZFa4B7GcN0m
hnnymCLWaV9FNT6mVr/2tti3AoFcxwvYyFwVZlIMf09dGGPBtMIrwIfQPsOVsv11
egplUEuq4vdNeZjY8I35KUs8P0bABwfYAydM52TdKRJAmtHNuKgfF/s8c5izwnQN
EQIDAQABo4IBYzCCAV8wCQYDVR0TBAIwADAtBglghkgBhvhCAQ0EIBYeRWFzeS1S
U0EgR2VuZXJhdGVkIENlcnRpZmljYXRlMB0GA1UdDgQWBBSf3dJvfq5/u/5QeDD+
FELA+IzTLDCB4QYDVR0jBIHZMIHWgBQSzWAE0qCAnnDtxpm4eyzGUv0ZoaGBsqSB
rzCBrDELMAkGA1UEBhMCVVMxCzAJBgNVBAgTAk9IMREwDwYDVQQHEwhDb2x1bWJ1
czESMBAGA1UEChMJVmlraW5nVlBOMR0wGwYDVQQLExRNeU9yZ2FuaXphdGlvbmFs
VW5pdDEVMBMGA1UEAxMMVmlraW5nVlBOIENBMRAwDgYDVQQpEwdFYXN5UlNBMSEw
HwYJKoZIhvcNAQkBFhJtZUBteWhvc3QubXlkb21haW6CCQDPNYXugL8qPjATBgNV
HSUEDDAKBggrBgEFBQcDAjALBgNVHQ8EBAMCB4AwDQYJKoZIhvcNAQEEBQADggIB
AOVUJzGCNF6qAnXEsvKjwh6PqDAvtqrmNzDW8Sek8PpqkhKTp+nvaCEUsw0rjugP
tZKjA5OPpQF/z0EkhkduBvSfjdmk2O9rvwDtGIg68gGwYBEcnUuwg+0qPLEFcJh8
Ek0YNeab+RsvZyjPs/LIzzqWGLi8Nrid5fU8t6KgxV5Oo5c0OXSTmD2ihJh3Y5rR
ns/TBLoPcaDlPhV3JTtUPWn0m+SFMXGZcA0BkBvYcG+w/29EOCx3VUmjrzxuHTtE
iNgos3rtPeZYIEii33MnOTGBm1v1j2tDnNRsjQBchg7M2oVOpOHcTJrtIIgfZNg1
LyViDW0pYdJ5FR/37RRoon8xFMOJLW17f/i++p/0zgvr4cGjmQLxObiNRnyAWghc
ELuTX4xCo/dgf56+Y50l5OKj1VsOdNZuBk6gAiZbxZvUVLcWapFcxEciOd5BmcN3
9AuZSZkxSVGbmfMD/gJX+l/j1AcRPe5JqQlWISYR++abQjWcFYhfWN1k5b17QYzY
JhIgdw4yRNip5iJCGVjlYN+1xQrmOAyXBP5dKvNKoVYds+DNL1Yw23DpTZPM4bmF
rMctSXApwGqJlO/kgeV4shLOsRNZ2sa3Fl8RcdHXaE1YyKsVNO6pi9+L1kEXqOJR
YmAcIQ/93pO5owN7g00Cu6+WsfCe36v6vvDHO8jVmVb/
-----END CERTIFICATE-----
