Certificate:
    Data:
        Version: 3 (0x2)
        Serial Number: 8223 (0x201f)
    Signature Algorithm: md5WithRSAEncryption
        Issuer: C=US, ST=OH, L=Columbus, O=VikingVPN, OU=MyOrganizationalUnit, CN=VikingVPN CA/name=EasyRSA/emailAddress=me@myhost.mydomain
        Validity
            Not Before: Jun  8 23:11:03 2016 GMT
            Not After : Jun  6 23:11:03 2026 GMT
        Subject: CN=Client1702Cert4f3280
        Subject Public Key Info:
            Public Key Algorithm: rsaEncryption
                Public-Key: (4096 bit)
                Modulus:
                    00:b2:be:e7:43:45:f4:1b:c1:bb:39:46:9f:da:8b:
                    07:f4:03:fe:c2:c2:bd:c0:cd:1c:e6:04:4e:a1:fb:
                    71:0d:e7:74:92:2c:39:8d:0a:67:36:8a:72:b0:24:
                    85:ee:c5:0c:db:af:a0:c3:b9:7d:1b:58:4e:45:e3:
                    5e:3d:3e:fe:48:8f:17:40:89:a1:31:29:a3:05:6e:
                    17:f4:9a:6e:50:3d:50:e3:67:cd:f0:e4:e6:0f:2b:
                    93:2d:90:b0:bc:29:a7:e4:38:b6:b5:33:92:1d:44:
                    7b:4b:fd:ec:6f:5e:a6:4e:78:1f:08:67:b8:d9:91:
                    c1:97:30:fe:e7:98:56:a3:a9:12:09:fa:5d:bc:53:
                    f1:eb:4a:42:0d:fe:2f:f2:b9:ca:27:50:9f:4a:23:
                    93:da:da:3c:82:c1:32:56:83:3e:09:f6:c9:52:42:
                    c1:01:e3:54:7f:ce:11:37:12:93:fe:72:db:52:95:
                    97:06:df:ca:ba:75:36:0e:f2:31:b8:ec:ed:6c:5f:
                    e5:0a:9b:31:9b:1a:bc:65:48:6a:71:5b:42:b5:cf:
                    fc:e6:95:5f:e6:63:33:b6:50:5d:aa:a8:95:90:85:
                    31:6e:fc:48:9f:6d:6e:61:d4:b8:be:fc:7f:8c:2c:
                    ff:2f:8d:04:29:84:3a:33:c7:89:e1:a5:1c:22:8f:
                    71:20:5f:77:09:d4:c3:e0:55:27:85:e8:6b:5c:85:
                    df:6f:f8:de:5b:cd:3f:15:03:0d:a6:13:94:bc:80:
                    97:ee:4a:73:0d:95:70:ba:7c:5a:e9:70:f5:09:41:
                    b5:b2:2c:89:70:a0:c9:0e:ff:4f:0a:4e:51:40:79:
                    f7:59:04:5d:d4:77:ec:23:7a:8a:cf:29:16:ba:64:
                    96:5f:36:05:da:44:2c:4c:a2:0f:28:e6:9a:48:77:
                    37:52:4b:59:ff:3b:1f:1f:5c:72:0d:29:9f:3d:10:
                    9a:7b:a9:f2:1c:18:ba:e2:8a:57:52:9e:c6:9c:df:
                    59:6d:5d:e4:20:8a:e4:2a:43:d6:d9:a7:6e:0a:c4:
                    05:f7:6e:14:ab:85:2e:21:fe:b5:ad:a6:85:fc:e0:
                    ec:43:90:4c:6a:84:32:d5:a7:98:53:56:18:65:fc:
                    d4:70:bf:fd:fc:4b:64:fa:88:cb:22:6d:7b:b6:0f:
                    15:6a:ee:b6:32:39:b2:cb:0f:e7:22:21:af:08:46:
                    85:2d:b8:74:b3:58:dd:7e:70:f5:1b:44:8d:ec:76:
                    f6:2a:22:af:8a:42:9f:1d:76:84:5d:a3:36:06:e2:
                    cd:d3:ce:7f:4a:01:07:65:a8:2a:91:db:7b:14:4a:
                    05:94:f5:79:d8:72:17:35:a8:c2:e3:44:d7:10:81:
                    7a:8a:e9
                Exponent: 65537 (0x10001)
        X509v3 extensions:
            X509v3 Basic Constraints: 
                CA:FALSE
            Netscape Comment: 
                Easy-RSA Generated Certificate
            X509v3 Subject Key Identifier: 
                32:B6:4B:4D:C4:C5:43:A5:68:BB:42:CD:18:C1:AF:79:F3:42:5A:BB
            X509v3 Authority Key Identifier: 
                keyid:12:CD:60:04:D2:A0:80:9E:70:ED:C6:99:B8:7B:2C:C6:52:FD:19:A1
                DirName:/C=US/ST=OH/L=Columbus/O=VikingVPN/OU=MyOrganizationalUnit/CN=VikingVPN CA/name=EasyRSA/emailAddress=me@myhost.mydomain
                serial:CF:35:85:EE:80:BF:2A:3E

            X509v3 Extended Key Usage: 
                TLS Web Client Authentication
            X509v3 Key Usage: 
                Digital Signature
    Signature Algorithm: md5WithRSAEncryption
         d1:3a:34:3d:3b:53:9d:f8:c3:66:83:7e:7c:ed:d2:df:c6:1a:
         58:79:2b:ab:c8:a7:65:0d:bf:9b:11:d6:f2:52:7e:27:99:17:
         87:c5:33:cd:45:da:fb:10:9c:09:a5:a8:72:5b:7a:45:05:7d:
         ee:14:d0:a8:19:50:31:9f:1f:aa:2d:d0:40:a6:f1:c5:9d:a4:
         42:96:7a:2c:70:64:68:fc:64:80:93:8e:9b:c4:59:56:1a:05:
         32:cc:17:97:46:09:dd:9c:57:0c:f4:f9:24:b2:35:ac:90:8b:
         a5:e1:1f:40:9a:57:01:b4:12:d9:ef:f4:43:39:70:0f:bb:b3:
         ec:6e:0b:0a:9f:2b:65:20:eb:fe:b0:19:4f:14:4f:ad:4e:12:
         de:43:f2:79:3a:2b:10:6f:28:a6:e6:cb:2f:b7:99:ea:c3:ac:
         21:d7:26:93:ab:0a:45:b4:59:03:37:7d:44:f2:00:32:b8:37:
         53:96:8f:e6:bc:44:cf:3a:64:74:87:69:a5:04:cf:c6:6b:97:
         40:ec:f6:5f:9f:85:3e:9c:2b:18:b3:fc:f3:82:87:96:38:a5:
         af:5e:48:2f:c6:55:8b:56:ba:3f:d1:6a:7e:eb:b2:b5:6d:d6:
         12:24:c8:a7:c6:24:48:e7:c6:0d:52:10:22:56:f6:49:65:10:
         59:c1:b2:60:16:11:85:96:12:3c:26:2b:51:4b:e9:03:12:91:
         5b:53:ed:34:8a:ea:ec:42:0c:ac:f2:b6:49:f9:9e:03:d4:98:
         64:40:58:05:76:42:71:57:29:7b:97:08:5d:72:34:0f:77:c4:
         60:50:d3:27:2f:c5:ce:63:46:70:aa:c7:b9:60:4f:54:4f:56:
         cf:3a:c4:b3:cb:a4:19:98:1b:d4:bb:43:7c:70:4e:1c:ba:6c:
         d6:56:9d:a5:ee:27:b4:7e:de:54:38:c0:f6:28:d1:74:61:5b:
         71:81:c1:01:9e:b7:55:82:02:88:17:a1:53:56:05:48:46:e9:
         84:1f:5d:bd:43:1e:62:9a:c9:16:5f:3c:de:95:9b:36:f0:bc:
         14:15:03:5b:dc:0f:0c:fb:6c:c5:75:3a:37:ae:4e:f1:16:c8:
         42:02:24:02:39:02:63:e3:69:db:71:fd:97:14:91:e0:2b:31:
         b4:66:be:19:4b:95:57:b7:7a:ab:19:af:41:00:c1:a5:14:75:
         b1:c1:73:96:7d:e7:83:97:be:49:a9:e2:06:4a:02:4e:72:ab:
         52:3d:bb:54:07:bf:40:ec:06:cd:d6:1d:f5:47:98:d9:bc:1b:
         a8:67:f8:0f:92:6a:d6:21:1b:8c:a1:0a:c2:e7:e2:89:1d:64:
         34:15:a0:03:d8:ee:62:88
-----BEGIN CERTIFICATE-----
MIIGrTCCBJWgAwIBAgICIB8wDQYJKoZIhvcNAQEEBQAwgawxCzAJBgNVBAYTAlVT
MQswCQYDVQQIEwJPSDERMA8GA1UEBxMIQ29sdW1idXMxEjAQBgNVBAoTCVZpa2lu
Z1ZQTjEdMBsGA1UECxMUTXlPcmdhbml6YXRpb25hbFVuaXQxFTATBgNVBAMTDFZp
a2luZ1ZQTiBDQTEQMA4GA1UEKRMHRWFzeVJTQTEhMB8GCSqGSIb3DQEJARYSbWVA
bXlob3N0Lm15ZG9tYWluMB4XDTE2MDYwODIzMTEwM1oXDTI2MDYwNjIzMTEwM1ow
HzEdMBsGA1UEAxMUQ2xpZW50MTcwMkNlcnQ0ZjMyODAwggIiMA0GCSqGSIb3DQEB
AQUAA4ICDwAwggIKAoICAQCyvudDRfQbwbs5Rp/aiwf0A/7Cwr3AzRzmBE6h+3EN
53SSLDmNCmc2inKwJIXuxQzbr6DDuX0bWE5F4149Pv5IjxdAiaExKaMFbhf0mm5Q
PVDjZ83w5OYPK5MtkLC8KafkOLa1M5IdRHtL/exvXqZOeB8IZ7jZkcGXMP7nmFaj
qRIJ+l28U/HrSkIN/i/yuconUJ9KI5Pa2jyCwTJWgz4J9slSQsEB41R/zhE3EpP+
cttSlZcG38q6dTYO8jG47O1sX+UKmzGbGrxlSGpxW0K1z/zmlV/mYzO2UF2qqJWQ
hTFu/EifbW5h1Li+/H+MLP8vjQQphDozx4nhpRwij3EgX3cJ1MPgVSeF6Gtchd9v
+N5bzT8VAw2mE5S8gJfuSnMNlXC6fFrpcPUJQbWyLIlwoMkO/08KTlFAefdZBF3U
d+wjeorPKRa6ZJZfNgXaRCxMog8o5ppIdzdSS1n/Ox8fXHINKZ89EJp7qfIcGLri
ildSnsac31ltXeQgiuQqQ9bZp24KxAX3bhSrhS4h/rWtpoX84OxDkExqhDLVp5hT
Vhhl/NRwv/38S2T6iMsibXu2DxVq7rYyObLLD+ciIa8IRoUtuHSzWN1+cPUbRI3s
dvYqIq+KQp8ddoRdozYG4s3Tzn9KAQdlqCqR23sUSgWU9XnYchc1qMLjRNcQgXqK
6QIDAQABo4IBYzCCAV8wCQYDVR0TBAIwADAtBglghkgBhvhCAQ0EIBYeRWFzeS1S
U0EgR2VuZXJhdGVkIENlcnRpZmljYXRlMB0GA1UdDgQWBBQytktNxMVDpWi7Qs0Y
wa9580JauzCB4QYDVR0jBIHZMIHWgBQSzWAE0qCAnnDtxpm4eyzGUv0ZoaGBsqSB
rzCBrDELMAkGA1UEBhMCVVMxCzAJBgNVBAgTAk9IMREwDwYDVQQHEwhDb2x1bWJ1
czESMBAGA1UEChMJVmlraW5nVlBOMR0wGwYDVQQLExRNeU9yZ2FuaXphdGlvbmFs
VW5pdDEVMBMGA1UEAxMMVmlraW5nVlBOIENBMRAwDgYDVQQpEwdFYXN5UlNBMSEw
HwYJKoZIhvcNAQkBFhJtZUBteWhvc3QubXlkb21haW6CCQDPNYXugL8qPjATBgNV
HSUEDDAKBggrBgEFBQcDAjALBgNVHQ8EBAMCB4AwDQYJKoZIhvcNAQEEBQADggIB
ANE6ND07U534w2aDfnzt0t/GGlh5K6vIp2UNv5sR1vJSfieZF4fFM81F2vsQnAml
qHJbekUFfe4U0KgZUDGfH6ot0ECm8cWdpEKWeixwZGj8ZICTjpvEWVYaBTLMF5dG
Cd2cVwz0+SSyNayQi6XhH0CaVwG0Etnv9EM5cA+7s+xuCwqfK2Ug6/6wGU8UT61O
Et5D8nk6KxBvKKbmyy+3merDrCHXJpOrCkW0WQM3fUTyADK4N1OWj+a8RM86ZHSH
aaUEz8Zrl0Ds9l+fhT6cKxiz/POCh5Y4pa9eSC/GVYtWuj/Ran7rsrVt1hIkyKfG
JEjnxg1SECJW9kllEFnBsmAWEYWWEjwmK1FL6QMSkVtT7TSK6uxCDKzytkn5ngPU
mGRAWAV2QnFXKXuXCF1yNA93xGBQ0ycvxc5jRnCqx7lgT1RPVs86xLPLpBmYG9S7
Q3xwThy6bNZWnaXuJ7R+3lQ4wPYo0XRhW3GBwQGet1WCAogXoVNWBUhG6YQfXb1D
HmKayRZfPN6VmzbwvBQVA1vcDwz7bMV1OjeuTvEWyEICJAI5AmPjadtx/ZcUkeAr
MbRmvhlLlVe3eqsZr0EAwaUUdbHBc5Z954OXvkmp4gZKAk5yq1I9u1QHv0DsBs3W
HfVHmNm8G6hn+A+SatYhG4yhCsLn4okdZDQVoAPY7mKI
-----END CERTIFICATE-----
