Certificate:
    Data:
        Version: 3 (0x2)
        Serial Number: 8228 (0x2024)
    Signature Algorithm: md5WithRSAEncryption
        Issuer: C=US, ST=OH, L=Columbus, O=VikingVPN, OU=MyOrganizationalUnit, CN=VikingVPN CA/name=EasyRSA/emailAddress=me@myhost.mydomain
        Validity
            Not Before: Jun  9 18:14:44 2016 GMT
            Not After : Jun  7 18:14:44 2026 GMT
        Subject: CN=Client2296Certa6b2df
        Subject Public Key Info:
            Public Key Algorithm: rsaEncryption
                Public-Key: (4096 bit)
                Modulus:
                    00:cf:26:01:89:92:3e:ff:56:a6:63:49:ee:26:fb:
                    e1:ea:06:2d:8b:5f:50:7e:aa:c9:2f:5f:b4:ac:03:
                    c0:2b:46:c1:fb:91:f8:7d:bc:1a:c2:fb:68:bb:37:
                    d1:a5:51:f6:31:37:64:63:4b:b7:01:58:99:cf:e9:
                    81:06:ef:53:f3:0d:a7:77:ec:53:a8:70:04:f5:9a:
                    a1:01:78:54:e0:18:3b:db:36:69:28:de:0c:e4:ae:
                    07:c8:75:1b:16:f8:fd:06:7b:b7:66:b7:fa:db:0e:
                    1e:21:82:f1:e7:9b:1a:46:26:05:bc:ec:a2:37:3a:
                    87:d5:1c:2a:d8:36:b0:82:0a:fc:b2:8d:7c:5f:b1:
                    ad:5f:b0:aa:65:05:6f:5d:ed:c0:94:d2:ea:97:69:
                    04:e5:4f:ea:79:1c:ac:e2:f3:60:ad:68:19:6b:11:
                    78:ed:da:d9:c2:df:fe:19:9d:37:29:93:f8:df:02:
                    5d:36:d1:da:6b:3e:26:cf:49:31:f6:a2:08:ed:6d:
                    22:c9:3c:5b:62:21:00:36:26:b1:71:e0:a5:de:b5:
                    57:ab:1b:db:9d:7f:8f:33:f6:a8:d9:21:97:55:34:
                    2f:8a:7a:31:a9:07:0a:0f:b0:30:ab:77:84:92:ad:
                    b9:63:00:f4:27:3a:a9:90:87:6c:1e:f2:8d:81:43:
                    ef:b1:f9:a8:30:bb:a4:55:e4:6e:b6:18:46:6b:68:
                    84:27:37:a9:4d:ce:59:99:f5:fa:32:5f:67:d4:46:
                    5f:75:8b:c6:74:1a:fd:e9:c4:49:03:cd:21:24:bc:
                    aa:41:cb:87:26:8f:2a:56:37:46:a8:e5:ae:1b:ce:
                    aa:77:ef:e1:80:85:1b:79:19:3f:f5:99:45:29:ae:
                    32:02:fd:e3:d4:c5:9c:6e:99:0c:57:8b:a6:17:fc:
                    ee:c9:c2:6d:d6:66:f6:f2:20:3b:34:a5:13:d4:f8:
                    e7:58:fb:bc:53:3e:5f:7e:ee:d8:db:26:51:5f:da:
                    c6:75:c1:ea:01:8e:47:dd:18:ff:10:61:34:8b:54:
                    d6:3b:7a:84:8a:74:c3:d2:dd:6b:c6:81:ae:e2:a0:
                    55:63:b4:60:4d:c5:db:f2:63:17:2d:6d:28:15:68:
                    2e:6d:d3:e0:02:a7:9f:53:ec:c3:f1:2f:ff:7c:d2:
                    62:6f:a0:e2:63:ac:e5:ab:61:3d:3b:31:16:b6:ed:
                    db:3f:56:7d:a4:7b:f6:24:78:98:72:be:be:65:79:
                    18:f4:73:a1:a9:0b:63:da:72:46:24:2e:f6:e2:e5:
                    56:a4:5f:4d:94:c3:93:24:04:bc:7f:04:0c:43:f0:
                    a8:b1:60:8c:02:06:c4:a3:89:9a:88:ff:92:15:87:
                    5a:34:e7
                Exponent: 65537 (0x10001)
        X509v3 extensions:
            X509v3 Basic Constraints: 
                CA:FALSE
            Netscape Comment: 
                Easy-RSA Generated Certificate
            X509v3 Subject Key Identifier: 
                9C:67:35:B2:17:A5:1D:5C:BF:D0:AE:9E:43:D6:97:28:38:C8:D9:96
            X509v3 Authority Key Identifier: 
                keyid:12:CD:60:04:D2:A0:80:9E:70:ED:C6:99:B8:7B:2C:C6:52:FD:19:A1
                DirName:/C=US/ST=OH/L=Columbus/O=VikingVPN/OU=MyOrganizationalUnit/CN=VikingVPN CA/name=EasyRSA/emailAddress=me@myhost.mydomain
                serial:CF:35:85:EE:80:BF:2A:3E

            X509v3 Extended Key Usage: 
                TLS Web Client Authentication
            X509v3 Key Usage: 
                Digital Signature
    Signature Algorithm: md5WithRSAEncryption
         df:00:e0:1c:78:e9:f5:d3:ad:29:8a:96:dd:7e:9a:e6:30:90:
         73:74:fd:0f:2d:42:5c:1a:22:6c:6a:bd:d8:f3:7f:c4:7e:65:
         8d:1f:1d:e0:63:96:02:97:93:15:58:0d:ec:98:51:bd:9a:1b:
         8f:9e:69:e0:f8:e5:51:af:48:01:d7:26:57:5a:6f:cd:5d:f3:
         13:62:a5:ab:dd:5a:0b:7b:56:7d:49:43:e7:ae:0f:a0:3b:06:
         32:7a:a5:29:be:5e:e3:7c:11:88:50:93:30:9d:20:51:9b:6e:
         6e:33:b8:04:fd:f1:f0:36:64:dd:65:43:c9:42:24:64:69:9e:
         ec:74:47:c0:54:25:b4:12:3f:da:26:f8:59:7c:cf:00:19:61:
         6b:9b:33:84:5f:da:31:33:ee:d5:b8:6e:f3:22:cd:d1:84:f6:
         ba:e3:8e:0e:d7:98:d6:47:c8:74:fb:1e:bf:89:56:fb:a1:db:
         4a:2f:c3:77:2d:08:a3:b6:7c:83:d8:dd:ed:eb:f5:48:ef:47:
         36:88:12:70:d0:b6:f2:bd:8f:3b:7e:8f:d9:a9:08:f2:31:3e:
         bc:75:b9:8c:bf:d8:a4:13:ad:c2:3e:ed:3c:06:45:68:cf:9d:
         51:b8:42:a3:64:ef:e3:83:b4:8f:4d:b2:2c:7c:2d:ed:09:22:
         4a:19:8e:c0:b3:83:81:57:58:3b:c1:b9:23:60:fa:98:9e:22:
         d5:f1:d2:21:be:d2:2c:32:98:c8:03:4a:cc:f0:19:74:b0:5c:
         47:be:51:5c:f1:fc:7c:84:cc:50:85:8a:42:fb:2f:2f:1f:63:
         a8:a1:46:fe:24:6a:d1:9b:d3:2e:f9:22:70:02:26:6c:e3:c8:
         0e:bf:01:2d:8c:35:95:78:fe:c5:08:b5:96:fd:a3:0a:77:06:
         23:a0:49:62:75:fe:61:7a:ee:29:bb:3d:f9:94:6a:c4:4e:5e:
         1b:5f:5f:c9:f9:2e:0c:a1:96:a9:29:4d:73:2c:33:fa:01:00:
         a5:51:c8:0b:7c:cb:2b:b7:85:68:0d:7f:bf:0d:c9:8d:16:a2:
         38:fd:4b:2f:72:58:75:27:bc:a8:02:94:ef:74:e3:0b:cf:cc:
         a4:42:30:32:36:1b:48:a5:db:7d:30:a9:2d:5f:c8:c6:24:16:
         71:68:96:6a:d5:c2:21:9a:8e:e0:f0:3a:eb:0a:02:dc:98:78:
         d3:4b:12:70:51:16:48:10:89:88:da:13:6b:5f:b9:ee:18:78:
         f7:bb:41:64:1e:1c:db:2b:0a:13:30:5d:6c:3c:b4:37:c2:e1:
         ec:43:45:9a:e1:f6:38:48:f8:ec:89:d2:d0:cc:05:83:33:07:
         84:93:a2:ff:e5:04:20:7b
-----BEGIN CERTIFICATE-----
MIIGrTCCBJWgAwIBAgICICQwDQYJKoZIhvcNAQEEBQAwgawxCzAJBgNVBAYTAlVT
MQswCQYDVQQIEwJPSDERMA8GA1UEBxMIQ29sdW1idXMxEjAQBgNVBAoTCVZpa2lu
Z1ZQTjEdMBsGA1UECxMUTXlPcmdhbml6YXRpb25hbFVuaXQxFTATBgNVBAMTDFZp
a2luZ1ZQTiBDQTEQMA4GA1UEKRMHRWFzeVJTQTEhMB8GCSqGSIb3DQEJARYSbWVA
bXlob3N0Lm15ZG9tYWluMB4XDTE2MDYwOTE4MTQ0NFoXDTI2MDYwNzE4MTQ0NFow
HzEdMBsGA1UEAxMUQ2xpZW50MjI5NkNlcnRhNmIyZGYwggIiMA0GCSqGSIb3DQEB
AQUAA4ICDwAwggIKAoICAQDPJgGJkj7/VqZjSe4m++HqBi2LX1B+qskvX7SsA8Ar
RsH7kfh9vBrC+2i7N9GlUfYxN2RjS7cBWJnP6YEG71PzDad37FOocAT1mqEBeFTg
GDvbNmko3gzkrgfIdRsW+P0Ge7dmt/rbDh4hgvHnmxpGJgW87KI3OofVHCrYNrCC
CvyyjXxfsa1fsKplBW9d7cCU0uqXaQTlT+p5HKzi82CtaBlrEXjt2tnC3/4ZnTcp
k/jfAl020dprPibPSTH2ogjtbSLJPFtiIQA2JrFx4KXetVerG9udf48z9qjZIZdV
NC+KejGpBwoPsDCrd4SSrbljAPQnOqmQh2we8o2BQ++x+agwu6RV5G62GEZraIQn
N6lNzlmZ9foyX2fURl91i8Z0Gv3pxEkDzSEkvKpBy4cmjypWN0ao5a4bzqp37+GA
hRt5GT/1mUUprjIC/ePUxZxumQxXi6YX/O7Jwm3WZvbyIDs0pRPU+OdY+7xTPl9+
7tjbJlFf2sZ1weoBjkfdGP8QYTSLVNY7eoSKdMPS3WvGga7ioFVjtGBNxdvyYxct
bSgVaC5t0+ACp59T7MPxL/980mJvoOJjrOWrYT07MRa27ds/Vn2ke/YkeJhyvr5l
eRj0c6GpC2PackYkLvbi5VakX02Uw5MkBLx/BAxD8KixYIwCBsSjiZqI/5IVh1o0
5wIDAQABo4IBYzCCAV8wCQYDVR0TBAIwADAtBglghkgBhvhCAQ0EIBYeRWFzeS1S
U0EgR2VuZXJhdGVkIENlcnRpZmljYXRlMB0GA1UdDgQWBBScZzWyF6UdXL/Qrp5D
1pcoOMjZljCB4QYDVR0jBIHZMIHWgBQSzWAE0qCAnnDtxpm4eyzGUv0ZoaGBsqSB
rzCBrDELMAkGA1UEBhMCVVMxCzAJBgNVBAgTAk9IMREwDwYDVQQHEwhDb2x1bWJ1
czESMBAGA1UEChMJVmlraW5nVlBOMR0wGwYDVQQLExRNeU9yZ2FuaXphdGlvbmFs
VW5pdDEVMBMGA1UEAxMMVmlraW5nVlBOIENBMRAwDgYDVQQpEwdFYXN5UlNBMSEw
HwYJKoZIhvcNAQkBFhJtZUBteWhvc3QubXlkb21haW6CCQDPNYXugL8qPjATBgNV
HSUEDDAKBggrBgEFBQcDAjALBgNVHQ8EBAMCB4AwDQYJKoZIhvcNAQEEBQADggIB
AN8A4Bx46fXTrSmKlt1+muYwkHN0/Q8tQlwaImxqvdjzf8R+ZY0fHeBjlgKXkxVY
DeyYUb2aG4+eaeD45VGvSAHXJldab81d8xNipavdWgt7Vn1JQ+euD6A7BjJ6pSm+
XuN8EYhQkzCdIFGbbm4zuAT98fA2ZN1lQ8lCJGRpnux0R8BUJbQSP9om+Fl8zwAZ
YWubM4Rf2jEz7tW4bvMizdGE9rrjjg7XmNZHyHT7Hr+JVvuh20ovw3ctCKO2fIPY
3e3r9UjvRzaIEnDQtvK9jzt+j9mpCPIxPrx1uYy/2KQTrcI+7TwGRWjPnVG4QqNk
7+ODtI9Nsix8Le0JIkoZjsCzg4FXWDvBuSNg+pieItXx0iG+0iwymMgDSszwGXSw
XEe+UVzx/HyEzFCFikL7Ly8fY6ihRv4katGb0y75InACJmzjyA6/AS2MNZV4/sUI
tZb9owp3BiOgSWJ1/mF67im7PfmUasROXhtfX8n5LgyhlqkpTXMsM/oBAKVRyAt8
yyu3hWgNf78NyY0Wojj9Sy9yWHUnvKgClO904wvPzKRCMDI2G0il230wqS1fyMYk
FnFolmrVwiGajuDwOusKAtyYeNNLEnBRFkgQiYjaE2tfue4YePe7QWQeHNsrChMw
XWw8tDfC4exDRZrh9jhI+OyJ0tDMBYMzB4STov/lBCB7
-----END CERTIFICATE-----
