Certificate:
    Data:
        Version: 3 (0x2)
        Serial Number: 8232 (0x2028)
    Signature Algorithm: md5WithRSAEncryption
        Issuer: C=US, ST=OH, L=Columbus, O=VikingVPN, OU=MyOrganizationalUnit, CN=VikingVPN CA/name=EasyRSA/emailAddress=me@myhost.mydomain
        Validity
            Not Before: Jun 10 08:21:00 2016 GMT
            Not After : Jun  8 08:21:00 2026 GMT
        Subject: CN=Client2388Cert202573
        Subject Public Key Info:
            Public Key Algorithm: rsaEncryption
                Public-Key: (4096 bit)
                Modulus:
                    00:9b:d5:b7:c8:87:04:2a:34:29:b9:ee:75:2b:1a:
                    e6:c1:26:6b:4c:56:06:03:50:1e:0b:91:6a:25:0e:
                    9a:da:81:05:55:73:a7:1f:e5:ac:59:ea:e5:a4:57:
                    c3:31:8b:96:ee:41:fe:62:e9:e3:d3:8d:e1:ea:d1:
                    bb:41:1a:4c:97:35:8a:94:b9:f6:25:93:30:b2:ef:
                    33:a6:25:b3:20:e4:95:40:9d:3c:42:88:57:08:f1:
                    ec:a3:1f:07:42:35:15:0d:0e:cc:cb:4f:2e:14:06:
                    7d:0d:06:77:8e:3a:de:75:7d:ca:f0:74:55:06:48:
                    e7:d5:69:6b:02:2c:53:ac:9e:1c:cd:88:c5:aa:7d:
                    58:37:46:47:9e:f6:f0:94:f2:6c:10:7e:d9:cb:5d:
                    fa:4b:79:1a:12:36:7d:0c:3f:af:93:9e:1c:8a:9f:
                    61:9a:41:3e:76:e5:47:93:e8:bb:2c:a3:db:c9:8a:
                    40:07:4e:62:34:d9:42:19:40:4a:ae:27:ec:f7:a9:
                    47:61:18:0e:3a:e0:ca:50:f8:d3:96:1d:99:2c:dc:
                    a0:35:19:b4:2e:b2:fc:5f:94:83:73:3f:5e:f1:4e:
                    ca:af:a0:5a:77:c4:1e:94:47:d9:cc:c1:c2:6a:7e:
                    9e:d8:37:86:ea:97:1a:8e:76:34:c4:4d:44:fc:e9:
                    20:e6:9f:7e:d0:71:21:ec:e0:d3:7f:35:9b:2f:aa:
                    4b:15:dc:8d:6b:b4:e7:25:0c:c2:b5:45:ea:be:b0:
                    d5:0a:6d:65:48:80:14:3c:78:a1:75:e8:b1:8e:88:
                    f3:ce:6e:3b:f2:ce:e6:87:8c:77:ca:b2:00:07:7c:
                    72:e2:31:ce:92:1a:a5:ac:4d:4a:ec:75:ef:2c:1b:
                    0d:e8:44:d9:f5:c2:81:ed:6b:93:82:5f:c4:f0:0a:
                    5b:41:b6:61:29:e7:93:59:db:35:f7:8b:ef:6b:d4:
                    81:89:93:bc:b1:04:45:7e:c8:56:fa:4f:df:90:81:
                    18:10:34:20:f0:51:28:5c:78:92:ed:18:14:c1:7f:
                    5c:2a:5f:2d:6e:40:64:c2:85:42:97:be:f2:2e:ec:
                    a8:10:f5:1c:cc:8b:3f:e7:8c:a4:e9:d7:84:af:b4:
                    89:8c:61:5e:c0:0f:60:79:fd:d1:40:b8:4b:82:90:
                    0c:43:11:b5:97:a2:bc:85:d1:8e:00:91:1b:fa:c4:
                    f6:fb:35:b2:3a:d6:c3:78:47:55:c9:a0:38:2e:fa:
                    92:cd:36:a5:eb:4f:ac:58:37:a8:56:d2:1b:09:dc:
                    cf:2c:e3:2b:2c:2c:dc:b8:f5:a8:63:58:c5:e4:eb:
                    24:de:e0:49:23:2d:7c:23:4a:7a:6c:49:dc:db:e9:
                    02:b8:19
                Exponent: 65537 (0x10001)
        X509v3 extensions:
            X509v3 Basic Constraints: 
                CA:FALSE
            Netscape Comment: 
                Easy-RSA Generated Certificate
            X509v3 Subject Key Identifier: 
                0C:85:CD:69:20:DA:01:AE:C7:FC:1E:C1:0A:C4:B0:07:14:64:37:71
            X509v3 Authority Key Identifier: 
                keyid:12:CD:60:04:D2:A0:80:9E:70:ED:C6:99:B8:7B:2C:C6:52:FD:19:A1
                DirName:/C=US/ST=OH/L=Columbus/O=VikingVPN/OU=MyOrganizationalUnit/CN=VikingVPN CA/name=EasyRSA/emailAddress=me@myhost.mydomain
                serial:CF:35:85:EE:80:BF:2A:3E

            X509v3 Extended Key Usage: 
                TLS Web Client Authentication
            X509v3 Key Usage: 
                Digital Signature
    Signature Algorithm: md5WithRSAEncryption
         d0:c5:b1:cf:0f:d5:cf:20:35:fc:02:98:22:76:5a:06:e1:c6:
         a6:a0:27:54:76:a4:31:df:6b:bc:e1:cc:ab:9a:39:e4:d4:a0:
         d5:ef:1a:8e:c1:ce:d8:27:07:84:d2:11:62:ed:31:09:74:c5:
         2f:1f:66:f2:73:97:73:b1:b4:52:82:c4:87:29:7e:0e:b8:00:
         0a:a2:f8:73:3e:11:1f:cc:48:f1:b3:e0:83:e2:97:19:e9:db:
         17:57:c4:8b:14:73:44:26:c9:00:24:b1:dd:c5:c0:ab:c3:5d:
         3c:06:2e:f6:1e:9a:fd:07:a4:b9:a0:8c:53:17:d3:30:00:d6:
         26:5c:dd:41:ca:84:e0:f5:a2:1f:94:e3:36:c5:38:30:06:03:
         5b:5a:f4:0a:8f:0b:40:f9:43:27:b0:61:95:3b:e6:6e:52:dd:
         65:9b:17:ad:41:9a:d3:2c:3e:6f:e3:07:0c:bd:38:87:08:98:
         3d:25:84:ee:7b:25:68:8f:15:61:7a:ff:b3:2f:6d:b6:e5:e0:
         cb:51:80:e9:ab:05:97:70:cb:b9:c1:7e:ab:74:43:31:92:f2:
         19:f3:d8:aa:09:33:f1:e4:b0:cc:ad:08:ce:c8:65:cd:1b:55:
         af:81:62:f7:95:6d:cb:46:55:c6:9a:08:86:52:ab:9b:1d:14:
         01:3d:c6:ad:b2:cb:f8:ec:3f:6e:06:ca:5d:a8:3a:7e:e1:3f:
         18:e0:db:0f:89:6a:00:5d:b7:65:29:af:88:72:ae:af:63:6f:
         69:6c:ce:77:51:0a:dd:79:20:b9:17:47:e9:15:ea:5e:42:bf:
         d6:79:b3:f6:9f:2b:53:01:72:77:09:eb:20:dd:ae:d5:49:88:
         92:92:60:71:36:11:6a:39:6a:51:75:60:d1:a5:75:bc:c1:a1:
         b7:2c:83:fa:88:c6:e3:39:18:df:e7:2f:65:77:d0:aa:4c:a4:
         ea:b4:38:72:e6:52:79:53:49:a6:5d:5d:94:5d:d1:17:ef:30:
         0b:31:31:54:5e:92:0b:ae:6a:43:1a:7a:b8:33:bc:e3:f3:06:
         67:cc:1b:4e:aa:63:41:98:54:81:0d:9a:58:5f:ac:dd:76:bd:
         ae:6b:0b:69:aa:d0:3c:f4:80:78:ec:a7:82:63:e6:f4:ca:d6:
         9e:e5:59:40:1f:d6:2f:3f:15:17:2a:9b:10:e3:d3:2c:5b:58:
         67:12:4e:f9:3c:eb:f5:ff:76:ee:f4:46:f6:ae:9d:38:b5:3f:
         55:24:ee:b3:54:e8:9e:41:3d:6c:fd:f8:42:ba:e6:01:e0:50:
         79:d4:a4:be:69:ed:3e:01:ca:16:ae:fe:50:87:3b:10:69:c6:
         17:9b:8c:2c:71:72:f7:64
-----BEGIN CERTIFICATE-----
MIIGrTCCBJWgAwIBAgICICgwDQYJKoZIhvcNAQEEBQAwgawxCzAJBgNVBAYTAlVT
MQswCQYDVQQIEwJPSDERMA8GA1UEBxMIQ29sdW1idXMxEjAQBgNVBAoTCVZpa2lu
Z1ZQTjEdMBsGA1UECxMUTXlPcmdhbml6YXRpb25hbFVuaXQxFTATBgNVBAMTDFZp
a2luZ1ZQTiBDQTEQMA4GA1UEKRMHRWFzeVJTQTEhMB8GCSqGSIb3DQEJARYSbWVA
bXlob3N0Lm15ZG9tYWluMB4XDTE2MDYxMDA4MjEwMFoXDTI2MDYwODA4MjEwMFow
HzEdMBsGA1UEAxMUQ2xpZW50MjM4OENlcnQyMDI1NzMwggIiMA0GCSqGSIb3DQEB
AQUAA4ICDwAwggIKAoICAQCb1bfIhwQqNCm57nUrGubBJmtMVgYDUB4LkWolDpra
gQVVc6cf5axZ6uWkV8Mxi5buQf5i6ePTjeHq0btBGkyXNYqUufYlkzCy7zOmJbMg
5JVAnTxCiFcI8eyjHwdCNRUNDszLTy4UBn0NBneOOt51fcrwdFUGSOfVaWsCLFOs
nhzNiMWqfVg3Rkee9vCU8mwQftnLXfpLeRoSNn0MP6+TnhyKn2GaQT525UeT6Lss
o9vJikAHTmI02UIZQEquJ+z3qUdhGA464MpQ+NOWHZks3KA1GbQusvxflINzP17x
TsqvoFp3xB6UR9nMwcJqfp7YN4bqlxqOdjTETUT86SDmn37QcSHs4NN/NZsvqksV
3I1rtOclDMK1Req+sNUKbWVIgBQ8eKF16LGOiPPObjvyzuaHjHfKsgAHfHLiMc6S
GqWsTUrsde8sGw3oRNn1woHta5OCX8TwCltBtmEp55NZ2zX3i+9r1IGJk7yxBEV+
yFb6T9+QgRgQNCDwUShceJLtGBTBf1wqXy1uQGTChUKXvvIu7KgQ9RzMiz/njKTp
14SvtImMYV7AD2B5/dFAuEuCkAxDEbWXoryF0Y4AkRv6xPb7NbI61sN4R1XJoDgu
+pLNNqXrT6xYN6hW0hsJ3M8s4yssLNy49ahjWMXk6yTe4EkjLXwjSnpsSdzb6QK4
GQIDAQABo4IBYzCCAV8wCQYDVR0TBAIwADAtBglghkgBhvhCAQ0EIBYeRWFzeS1S
U0EgR2VuZXJhdGVkIENlcnRpZmljYXRlMB0GA1UdDgQWBBQMhc1pINoBrsf8HsEK
xLAHFGQ3cTCB4QYDVR0jBIHZMIHWgBQSzWAE0qCAnnDtxpm4eyzGUv0ZoaGBsqSB
rzCBrDELMAkGA1UEBhMCVVMxCzAJBgNVBAgTAk9IMREwDwYDVQQHEwhDb2x1bWJ1
czESMBAGA1UEChMJVmlraW5nVlBOMR0wGwYDVQQLExRNeU9yZ2FuaXphdGlvbmFs
VW5pdDEVMBMGA1UEAxMMVmlraW5nVlBOIENBMRAwDgYDVQQpEwdFYXN5UlNBMSEw
HwYJKoZIhvcNAQkBFhJtZUBteWhvc3QubXlkb21haW6CCQDPNYXugL8qPjATBgNV
HSUEDDAKBggrBgEFBQcDAjALBgNVHQ8EBAMCB4AwDQYJKoZIhvcNAQEEBQADggIB
ANDFsc8P1c8gNfwCmCJ2WgbhxqagJ1R2pDHfa7zhzKuaOeTUoNXvGo7BztgnB4TS
EWLtMQl0xS8fZvJzl3OxtFKCxIcpfg64AAqi+HM+ER/MSPGz4IPilxnp2xdXxIsU
c0QmyQAksd3FwKvDXTwGLvYemv0HpLmgjFMX0zAA1iZc3UHKhOD1oh+U4zbFODAG
A1ta9AqPC0D5QyewYZU75m5S3WWbF61BmtMsPm/jBwy9OIcImD0lhO57JWiPFWF6
/7Mvbbbl4MtRgOmrBZdwy7nBfqt0QzGS8hnz2KoJM/HksMytCM7IZc0bVa+BYveV
bctGVcaaCIZSq5sdFAE9xq2yy/jsP24Gyl2oOn7hPxjg2w+JagBdt2Upr4hyrq9j
b2lszndRCt15ILkXR+kV6l5Cv9Z5s/afK1MBcncJ6yDdrtVJiJKSYHE2EWo5alF1
YNGldbzBobcsg/qIxuM5GN/nL2V30KpMpOq0OHLmUnlTSaZdXZRd0RfvMAsxMVRe
kguuakMaergzvOPzBmfMG06qY0GYVIENmlhfrN12va5rC2mq0Dz0gHjsp4Jj5vTK
1p7lWUAf1i8/FRcqmxDj0yxbWGcSTvk86/X/du70RvaunTi1P1Uk7rNU6J5BPWz9
+EK65gHgUHnUpL5p7T4Byhau/lCHOxBpxhebjCxxcvdk
-----END CERTIFICATE-----
