Certificate:
    Data:
        Version: 3 (0x2)
        Serial Number: 8254 (0x203e)
    Signature Algorithm: md5WithRSAEncryption
        Issuer: C=US, ST=OH, L=Columbus, O=VikingVPN, OU=MyOrganizationalUnit, CN=VikingVPN CA/name=EasyRSA/emailAddress=me@myhost.mydomain
        Validity
            Not Before: Jun 12 03:35:00 2016 GMT
            Not After : Jun 10 03:35:00 2026 GMT
        Subject: CN=Client2114Certe4f83f
        Subject Public Key Info:
            Public Key Algorithm: rsaEncryption
                Public-Key: (4096 bit)
                Modulus:
                    00:9a:86:54:4f:32:10:92:57:a4:f8:ce:15:13:7b:
                    d0:32:0e:17:2e:35:73:1a:4c:05:35:a5:24:b3:c9:
                    7d:81:6e:b0:01:79:ba:12:97:b2:53:42:63:e8:9c:
                    f1:7b:af:11:48:68:34:60:8e:4d:e7:17:d9:ec:9b:
                    b0:00:2f:41:78:d4:60:e4:00:11:41:0f:fd:67:1b:
                    cc:fd:e5:52:90:42:09:d0:e1:3e:e9:f7:60:76:56:
                    88:b6:f2:a0:9e:00:7e:c3:4d:37:13:aa:65:a5:9d:
                    68:fe:ee:8f:3d:e4:69:d9:5e:dd:3f:c6:f8:8b:74:
                    b4:9e:54:8a:37:ac:8d:6c:7a:60:67:56:9b:a6:72:
                    c9:78:ca:a1:ea:26:7f:d1:82:39:e2:13:00:2a:8e:
                    d5:08:0a:70:e6:19:b5:fa:f0:e5:8d:c5:65:35:e0:
                    58:32:4f:c8:ac:e9:d4:5f:8b:9f:d2:b0:86:44:13:
                    86:f3:59:20:06:b3:68:ed:01:6b:b2:c2:2c:5f:db:
                    23:3b:c4:e3:22:32:84:65:04:a0:a9:49:20:81:3e:
                    ad:c7:67:0d:e0:17:1f:fc:5e:22:65:f8:60:5e:a2:
                    15:a5:03:56:68:78:1d:c1:cc:2c:40:d3:0f:db:5e:
                    93:a0:d6:b3:e2:3c:da:5e:43:0c:c9:01:04:90:4a:
                    22:2f:cc:c1:f7:d3:50:f8:64:ef:a2:8b:70:46:bd:
                    3b:95:62:16:f0:8e:b2:ac:12:bc:e7:df:3e:56:4c:
                    2d:82:c7:a7:8a:f3:ce:93:78:cc:d9:38:c6:35:11:
                    fc:12:8e:2f:15:0e:84:a0:06:05:d8:d4:91:61:fc:
                    bc:2b:73:13:1e:45:2e:20:4d:c7:4f:48:52:03:cf:
                    06:ac:1d:87:1a:55:28:bb:ab:0f:b4:7c:08:17:62:
                    4e:4d:e5:70:84:c6:9b:e8:20:63:47:1e:dd:69:d4:
                    e3:98:37:03:f3:cc:17:a4:cb:a5:3b:7b:d8:57:c3:
                    30:b1:37:f4:f0:e4:63:27:c3:23:6b:fa:82:e9:c2:
                    fe:cc:86:2f:8c:78:f8:4e:56:8b:e9:d1:e3:46:21:
                    a3:32:6d:ef:62:0b:72:b0:b2:2d:58:bb:c2:fc:18:
                    91:98:8d:c3:e5:2e:0c:de:ec:d5:23:25:28:6a:82:
                    32:8f:44:24:6e:71:3e:a2:d7:62:22:54:9d:25:ed:
                    42:11:db:12:cf:f0:b9:1d:18:03:f3:86:12:7a:8f:
                    1b:bf:65:dc:85:ca:33:13:f0:10:fb:49:54:0d:4b:
                    c8:66:91:e0:86:fa:d6:8b:03:0a:71:7f:c9:38:7b:
                    1d:ce:10:1b:b6:48:76:a9:83:b3:fa:0d:72:10:9a:
                    1b:b6:1d
                Exponent: 65537 (0x10001)
        X509v3 extensions:
            X509v3 Basic Constraints: 
                CA:FALSE
            Netscape Comment: 
                Easy-RSA Generated Certificate
            X509v3 Subject Key Identifier: 
                32:D2:D1:44:F9:4C:8F:4E:04:DE:95:43:2C:01:99:7D:B1:3F:A3:EB
            X509v3 Authority Key Identifier: 
                keyid:12:CD:60:04:D2:A0:80:9E:70:ED:C6:99:B8:7B:2C:C6:52:FD:19:A1
                DirName:/C=US/ST=OH/L=Columbus/O=VikingVPN/OU=MyOrganizationalUnit/CN=VikingVPN CA/name=EasyRSA/emailAddress=me@myhost.mydomain
                serial:CF:35:85:EE:80:BF:2A:3E

            X509v3 Extended Key Usage: 
                TLS Web Client Authentication
            X509v3 Key Usage: 
                Digital Signature
    Signature Algorithm: md5WithRSAEncryption
         e7:04:d3:18:17:ca:34:db:49:c5:55:89:ae:b5:8e:1b:5c:2c:
         db:5f:43:3d:a1:7f:20:2e:ee:da:06:13:21:59:e1:17:a3:8b:
         2f:2f:33:6c:3b:92:4e:8e:38:04:73:af:ee:6f:8c:1e:08:a1:
         a2:39:d7:bd:69:94:08:32:c7:f1:3b:31:5e:27:06:d1:b3:d6:
         7e:fe:70:a0:5a:e7:83:00:d6:a0:14:9c:b4:44:15:a6:a7:83:
         82:b0:3d:d2:15:20:75:0e:dd:10:30:dd:0d:26:e1:3d:2a:3f:
         7e:1c:71:96:e8:a0:90:5f:56:ed:82:ed:43:21:d2:36:74:e5:
         20:97:33:71:11:3b:d3:69:9c:9f:cd:f4:da:7f:f3:f9:fb:26:
         91:81:7e:d9:ca:1e:e1:53:68:1f:74:be:b1:a4:ad:7a:6b:2c:
         6a:25:89:27:7a:8d:dd:cb:ae:ea:b6:da:5a:2c:50:f0:e2:35:
         6a:16:55:ed:ba:71:4f:aa:6f:18:67:d3:92:55:a2:bf:0c:2c:
         7f:0f:44:c7:4b:ab:c2:71:32:8b:04:6e:af:a4:d4:dc:7c:31:
         95:e8:ae:36:5d:2f:80:00:d3:62:73:21:e7:0a:97:b2:d6:4d:
         de:6e:a0:73:63:77:28:da:af:e6:55:33:2a:f1:f3:13:f1:f9:
         a4:dc:f2:44:b9:fe:cb:f7:77:66:80:7f:07:ed:69:26:f9:cd:
         08:7e:d0:71:f3:46:91:fd:39:06:d2:89:47:2c:50:19:c5:c8:
         98:cc:bc:f1:43:94:ba:e7:bb:e0:e0:07:e8:da:f9:2b:d9:08:
         bd:91:a4:5d:56:42:a8:72:af:d4:fd:77:17:91:cf:44:85:16:
         46:33:0a:5c:c3:94:35:0b:cd:c1:ed:87:11:d1:b8:05:d5:36:
         8f:79:34:a3:6e:5e:34:db:bb:4f:d6:01:de:4d:59:ec:b6:f8:
         cf:d7:6c:d1:20:58:68:9c:c1:39:1a:22:e4:0f:c3:9d:6a:ac:
         ec:a9:e6:a8:dc:94:ac:af:4e:8b:24:3a:88:5a:94:4e:5c:d5:
         84:a9:e6:83:cb:11:48:c3:89:80:d1:a4:94:51:37:53:66:dd:
         11:44:d5:03:60:fe:79:25:01:09:09:13:56:f0:76:90:0b:4e:
         eb:d3:4e:02:e5:40:d1:ab:16:d1:66:9c:9c:1f:25:16:c1:ef:
         c5:3c:c2:18:92:28:e8:44:78:82:8a:aa:07:a5:4a:e4:c5:56:
         25:89:2b:a2:bd:61:62:08:d1:21:4b:5b:bd:c8:17:34:e8:f6:
         bf:fe:b7:b7:cf:ca:2a:eb:5c:30:85:ce:14:16:b0:67:fc:80:
         c3:c8:4e:80:91:7a:78:71
-----BEGIN CERTIFICATE-----
MIIGrTCCBJWgAwIBAgICID4wDQYJKoZIhvcNAQEEBQAwgawxCzAJBgNVBAYTAlVT
MQswCQYDVQQIEwJPSDERMA8GA1UEBxMIQ29sdW1idXMxEjAQBgNVBAoTCVZpa2lu
Z1ZQTjEdMBsGA1UECxMUTXlPcmdhbml6YXRpb25hbFVuaXQxFTATBgNVBAMTDFZp
a2luZ1ZQTiBDQTEQMA4GA1UEKRMHRWFzeVJTQTEhMB8GCSqGSIb3DQEJARYSbWVA
bXlob3N0Lm15ZG9tYWluMB4XDTE2MDYxMjAzMzUwMFoXDTI2MDYxMDAzMzUwMFow
HzEdMBsGA1UEAxMUQ2xpZW50MjExNENlcnRlNGY4M2YwggIiMA0GCSqGSIb3DQEB
AQUAA4ICDwAwggIKAoICAQCahlRPMhCSV6T4zhUTe9AyDhcuNXMaTAU1pSSzyX2B
brABeboSl7JTQmPonPF7rxFIaDRgjk3nF9nsm7AAL0F41GDkABFBD/1nG8z95VKQ
QgnQ4T7p92B2Voi28qCeAH7DTTcTqmWlnWj+7o895GnZXt0/xviLdLSeVIo3rI1s
emBnVpumcsl4yqHqJn/RgjniEwAqjtUICnDmGbX68OWNxWU14FgyT8is6dRfi5/S
sIZEE4bzWSAGs2jtAWuywixf2yM7xOMiMoRlBKCpSSCBPq3HZw3gFx/8XiJl+GBe
ohWlA1ZoeB3BzCxA0w/bXpOg1rPiPNpeQwzJAQSQSiIvzMH301D4ZO+ii3BGvTuV
YhbwjrKsErzn3z5WTC2Cx6eK886TeMzZOMY1EfwSji8VDoSgBgXY1JFh/LwrcxMe
RS4gTcdPSFIDzwasHYcaVSi7qw+0fAgXYk5N5XCExpvoIGNHHt1p1OOYNwPzzBek
y6U7e9hXwzCxN/Tw5GMnwyNr+oLpwv7Mhi+MePhOVovp0eNGIaMybe9iC3Kwsi1Y
u8L8GJGYjcPlLgze7NUjJShqgjKPRCRucT6i12IiVJ0l7UIR2xLP8LkdGAPzhhJ6
jxu/ZdyFyjMT8BD7SVQNS8hmkeCG+taLAwpxf8k4ex3OEBu2SHapg7P6DXIQmhu2
HQIDAQABo4IBYzCCAV8wCQYDVR0TBAIwADAtBglghkgBhvhCAQ0EIBYeRWFzeS1S
U0EgR2VuZXJhdGVkIENlcnRpZmljYXRlMB0GA1UdDgQWBBQy0tFE+UyPTgTelUMs
AZl9sT+j6zCB4QYDVR0jBIHZMIHWgBQSzWAE0qCAnnDtxpm4eyzGUv0ZoaGBsqSB
rzCBrDELMAkGA1UEBhMCVVMxCzAJBgNVBAgTAk9IMREwDwYDVQQHEwhDb2x1bWJ1
czESMBAGA1UEChMJVmlraW5nVlBOMR0wGwYDVQQLExRNeU9yZ2FuaXphdGlvbmFs
VW5pdDEVMBMGA1UEAxMMVmlraW5nVlBOIENBMRAwDgYDVQQpEwdFYXN5UlNBMSEw
HwYJKoZIhvcNAQkBFhJtZUBteWhvc3QubXlkb21haW6CCQDPNYXugL8qPjATBgNV
HSUEDDAKBggrBgEFBQcDAjALBgNVHQ8EBAMCB4AwDQYJKoZIhvcNAQEEBQADggIB
AOcE0xgXyjTbScVVia61jhtcLNtfQz2hfyAu7toGEyFZ4Rejiy8vM2w7kk6OOARz
r+5vjB4IoaI5171plAgyx/E7MV4nBtGz1n7+cKBa54MA1qAUnLREFaang4KwPdIV
IHUO3RAw3Q0m4T0qP34ccZbooJBfVu2C7UMh0jZ05SCXM3ERO9NpnJ/N9Np/8/n7
JpGBftnKHuFTaB90vrGkrXprLGoliSd6jd3Lruq22losUPDiNWoWVe26cU+qbxhn
05JVor8MLH8PRMdLq8JxMosEbq+k1Nx8MZXorjZdL4AA02JzIecKl7LWTd5uoHNj
dyjar+ZVMyrx8xPx+aTc8kS5/sv3d2aAfwftaSb5zQh+0HHzRpH9OQbSiUcsUBnF
yJjMvPFDlLrnu+DgB+ja+SvZCL2RpF1WQqhyr9T9dxeRz0SFFkYzClzDlDULzcHt
hxHRuAXVNo95NKNuXjTbu0/WAd5NWey2+M/XbNEgWGicwTkaIuQPw51qrOyp5qjc
lKyvToskOohalE5c1YSp5oPLEUjDiYDRpJRRN1Nm3RFE1QNg/nklAQkJE1bwdpAL
TuvTTgLlQNGrFtFmnJwfJRbB78U8whiSKOhEeIKKqgelSuTFViWJK6K9YWII0SFL
W73IFzTo9r/+t7fPyirrXDCFzhQWsGf8gMPIToCRenhx
-----END CERTIFICATE-----
