Certificate:
    Data:
        Version: 3 (0x2)
        Serial Number: 8262 (0x2046)
    Signature Algorithm: md5WithRSAEncryption
        Issuer: C=US, ST=OH, L=Columbus, O=VikingVPN, OU=MyOrganizationalUnit, CN=VikingVPN CA/name=EasyRSA/emailAddress=me@myhost.mydomain
        Validity
            Not Before: Jun 12 15:45:28 2016 GMT
            Not After : Jun 10 15:45:28 2026 GMT
        Subject: CN=Client890Cert4cd164
        Subject Public Key Info:
            Public Key Algorithm: rsaEncryption
                Public-Key: (4096 bit)
                Modulus:
                    00:df:c5:84:90:36:92:f0:b7:05:e6:df:46:fa:2f:
                    be:d8:58:4a:ab:e4:f1:46:dc:8c:b9:07:d4:94:bb:
                    3b:17:cd:35:82:4c:62:84:71:2d:cd:ec:7c:79:9b:
                    67:32:64:d2:37:38:c1:20:f0:ee:db:a4:18:12:99:
                    22:98:0b:4a:5f:43:23:a5:87:af:69:ba:68:22:f0:
                    82:13:35:aa:ff:d9:1c:6b:cf:ad:96:5f:f4:5a:1a:
                    77:6a:36:c5:cc:a6:63:f5:02:65:15:b4:03:ba:b0:
                    fd:25:01:38:b9:6c:84:5b:5a:ef:cd:b9:55:ab:81:
                    27:9c:ce:ba:c0:b7:c2:49:ec:a5:96:4d:47:19:12:
                    b8:01:d9:b8:a3:0e:c9:78:fe:59:b6:c8:a1:31:8f:
                    d8:23:fa:4b:3c:75:ac:b0:c0:7e:e0:00:b4:9f:e1:
                    38:9f:8c:b2:a2:c8:63:a3:74:0e:c4:cc:e9:4d:57:
                    6a:96:f0:02:d1:18:3c:09:df:bf:1f:f9:a6:4c:60:
                    49:5f:15:37:03:30:8c:2e:4d:94:e5:0b:09:aa:20:
                    3a:34:44:8f:9c:d8:b1:69:e5:20:c9:73:67:85:c3:
                    5c:67:69:3f:90:be:0a:df:b7:5b:35:22:d2:70:aa:
                    8e:f2:6c:9e:e3:af:16:80:40:0d:c5:7e:80:98:aa:
                    ee:2d:f7:1f:94:e5:9a:b8:fb:ac:eb:53:20:3d:22:
                    01:ae:75:20:d5:44:41:0f:bb:9b:0f:0f:23:32:e8:
                    0e:be:d5:6c:53:87:eb:ee:5c:ab:76:bd:08:30:b5:
                    c1:76:a1:2f:69:97:a3:8e:a1:e1:b0:4e:97:d3:cf:
                    56:d3:a6:88:4b:cc:f9:4f:4a:c8:a8:fe:b9:e6:83:
                    99:e3:fd:cb:bf:a9:d1:0e:12:56:38:0a:cc:a0:33:
                    1c:94:a2:01:e9:1c:c0:52:5d:80:2d:a8:64:59:86:
                    52:af:53:da:34:62:6f:8a:12:d7:8a:c8:69:3c:ab:
                    34:fb:ec:1c:76:6e:10:0c:42:91:b9:17:4e:88:21:
                    15:68:44:b0:fa:de:d6:5b:4b:2c:7f:3f:1d:59:3f:
                    a5:24:46:b2:fe:0c:43:d3:40:2d:09:fe:d6:21:a7:
                    20:fb:0a:ce:eb:a5:7c:83:41:3c:c4:78:54:45:25:
                    47:9f:58:df:e3:de:be:0b:14:3b:c0:56:b9:a1:69:
                    57:5e:11:00:ca:b8:21:a5:07:25:77:70:0e:48:95:
                    39:46:07:0d:28:b0:e4:7c:5c:99:35:57:66:6e:a1:
                    03:89:ad:26:29:58:ab:bf:ff:9c:38:57:72:2a:5c:
                    79:1f:34:43:8d:6c:cc:0d:17:55:03:8a:16:a9:2e:
                    6b:ff:b5
                Exponent: 65537 (0x10001)
        X509v3 extensions:
            X509v3 Basic Constraints: 
                CA:FALSE
            Netscape Comment: 
                Easy-RSA Generated Certificate
            X509v3 Subject Key Identifier: 
                AE:77:D2:2D:83:F5:81:0F:EF:3B:7F:64:49:FE:7D:81:68:06:D1:0A
            X509v3 Authority Key Identifier: 
                keyid:12:CD:60:04:D2:A0:80:9E:70:ED:C6:99:B8:7B:2C:C6:52:FD:19:A1
                DirName:/C=US/ST=OH/L=Columbus/O=VikingVPN/OU=MyOrganizationalUnit/CN=VikingVPN CA/name=EasyRSA/emailAddress=me@myhost.mydomain
                serial:CF:35:85:EE:80:BF:2A:3E

            X509v3 Extended Key Usage: 
                TLS Web Client Authentication
            X509v3 Key Usage: 
                Digital Signature
    Signature Algorithm: md5WithRSAEncryption
         61:a9:81:22:7b:bd:a0:fd:d7:94:d8:a7:98:81:54:a7:be:f1:
         4e:79:30:2f:96:54:a4:4b:e2:88:ec:bd:58:b9:e5:c1:ff:a0:
         64:10:84:9b:35:9c:77:81:08:a1:ae:8a:79:ab:5c:9d:20:8a:
         6f:bf:a9:36:43:e6:ab:41:85:7e:9d:18:75:10:e0:7e:73:8c:
         75:49:b2:38:58:cc:2e:ab:c6:17:90:bf:d9:7b:5c:da:9c:0f:
         46:c8:ae:1b:cc:a9:16:f5:68:fd:78:2e:4b:55:b1:ef:37:de:
         00:57:c0:cb:06:91:d9:e3:07:b0:fe:26:3b:f9:b6:65:48:44:
         d1:82:e7:48:33:f0:dc:f9:73:38:f6:67:8a:f6:ae:20:ec:0c:
         2d:0d:93:66:7a:ae:da:1a:dd:e4:93:c5:58:8f:46:ba:4c:bd:
         68:56:ed:b7:a6:69:ef:f2:b2:ee:d9:93:d8:ba:2f:a5:3e:aa:
         91:4b:33:79:5f:57:5f:59:7b:a4:18:19:80:49:e4:ef:b7:7a:
         72:1c:26:46:78:e3:71:40:28:d9:ad:5b:37:b1:39:ff:58:3a:
         d2:35:8f:1c:a5:fd:fe:f4:cf:f5:e8:38:53:c4:80:e5:ae:a0:
         71:53:15:74:b9:08:90:98:39:fd:4d:ef:e3:43:32:f9:b5:50:
         3f:70:52:60:9a:0b:24:ad:5b:2d:1b:32:6e:26:a2:f6:d7:51:
         2c:26:f2:fa:ed:26:f3:bf:3d:af:17:65:9a:75:28:a1:f4:6c:
         86:9c:30:d7:e8:db:5c:d1:5e:97:da:47:30:3d:b6:50:38:2c:
         b9:f0:7a:2c:bc:50:7e:75:0a:81:a6:3b:e8:37:03:2a:d3:3d:
         6f:a1:84:ec:34:23:41:a8:52:13:77:4a:d7:12:e1:9d:15:f4:
         c3:65:17:d1:28:aa:5c:0b:1d:5e:34:ac:a7:e8:0b:05:fb:40:
         0a:f4:ad:bf:3d:98:7e:54:7b:f5:c2:00:1c:95:63:8c:7c:8e:
         1e:fe:c8:a5:39:bc:b3:bb:86:c5:a2:fc:20:43:c6:6d:06:20:
         60:5d:27:61:67:b1:a1:22:3e:71:e6:56:0b:9a:f0:f6:d3:df:
         83:81:77:1f:fb:62:00:28:d2:69:dc:76:15:7e:3e:39:37:99:
         4a:6c:fa:2e:5b:8a:b2:99:18:8f:46:16:cf:d6:b1:ef:f1:ff:
         1c:84:48:ee:65:e7:90:2c:64:4d:00:e1:46:62:49:bb:88:37:
         18:03:aa:67:6d:c6:5d:33:3f:7c:74:fa:ed:64:f9:18:81:6e:
         af:96:b4:8c:69:fd:cb:0d:a6:ac:b3:2a:88:5c:4f:c9:e7:d6:
         4e:1d:db:aa:76:ca:c0:e4
-----BEGIN CERTIFICATE-----
MIIGrDCCBJSgAwIBAgICIEYwDQYJKoZIhvcNAQEEBQAwgawxCzAJBgNVBAYTAlVT
MQswCQYDVQQIEwJPSDERMA8GA1UEBxMIQ29sdW1idXMxEjAQBgNVBAoTCVZpa2lu
Z1ZQTjEdMBsGA1UECxMUTXlPcmdhbml6YXRpb25hbFVuaXQxFTATBgNVBAMTDFZp
a2luZ1ZQTiBDQTEQMA4GA1UEKRMHRWFzeVJTQTEhMB8GCSqGSIb3DQEJARYSbWVA
bXlob3N0Lm15ZG9tYWluMB4XDTE2MDYxMjE1NDUyOFoXDTI2MDYxMDE1NDUyOFow
HjEcMBoGA1UEAxMTQ2xpZW50ODkwQ2VydDRjZDE2NDCCAiIwDQYJKoZIhvcNAQEB
BQADggIPADCCAgoCggIBAN/FhJA2kvC3BebfRvovvthYSqvk8UbcjLkH1JS7OxfN
NYJMYoRxLc3sfHmbZzJk0jc4wSDw7tukGBKZIpgLSl9DI6WHr2m6aCLwghM1qv/Z
HGvPrZZf9Foad2o2xcymY/UCZRW0A7qw/SUBOLlshFta7825VauBJ5zOusC3wkns
pZZNRxkSuAHZuKMOyXj+WbbIoTGP2CP6Szx1rLDAfuAAtJ/hOJ+MsqLIY6N0DsTM
6U1XapbwAtEYPAnfvx/5pkxgSV8VNwMwjC5NlOULCaogOjREj5zYsWnlIMlzZ4XD
XGdpP5C+Ct+3WzUi0nCqjvJsnuOvFoBADcV+gJiq7i33H5Tlmrj7rOtTID0iAa51
INVEQQ+7mw8PIzLoDr7VbFOH6+5cq3a9CDC1wXahL2mXo46h4bBOl9PPVtOmiEvM
+U9KyKj+ueaDmeP9y7+p0Q4SVjgKzKAzHJSiAekcwFJdgC2oZFmGUq9T2jRib4oS
14rIaTyrNPvsHHZuEAxCkbkXToghFWhEsPre1ltLLH8/HVk/pSRGsv4MQ9NALQn+
1iGnIPsKzuulfINBPMR4VEUlR59Y3+PevgsUO8BWuaFpV14RAMq4IaUHJXdwDkiV
OUYHDSiw5HxcmTVXZm6hA4mtJilYq7//nDhXcipceR80Q41szA0XVQOKFqkua/+1
AgMBAAGjggFjMIIBXzAJBgNVHRMEAjAAMC0GCWCGSAGG+EIBDQQgFh5FYXN5LVJT
QSBHZW5lcmF0ZWQgQ2VydGlmaWNhdGUwHQYDVR0OBBYEFK530i2D9YEP7zt/ZEn+
fYFoBtEKMIHhBgNVHSMEgdkwgdaAFBLNYATSoICecO3Gmbh7LMZS/RmhoYGypIGv
MIGsMQswCQYDVQQGEwJVUzELMAkGA1UECBMCT0gxETAPBgNVBAcTCENvbHVtYnVz
MRIwEAYDVQQKEwlWaWtpbmdWUE4xHTAbBgNVBAsTFE15T3JnYW5pemF0aW9uYWxV
bml0MRUwEwYDVQQDEwxWaWtpbmdWUE4gQ0ExEDAOBgNVBCkTB0Vhc3lSU0ExITAf
BgkqhkiG9w0BCQEWEm1lQG15aG9zdC5teWRvbWFpboIJAM81he6Avyo+MBMGA1Ud
JQQMMAoGCCsGAQUFBwMCMAsGA1UdDwQEAwIHgDANBgkqhkiG9w0BAQQFAAOCAgEA
YamBInu9oP3XlNinmIFUp77xTnkwL5ZUpEviiOy9WLnlwf+gZBCEmzWcd4EIoa6K
eatcnSCKb7+pNkPmq0GFfp0YdRDgfnOMdUmyOFjMLqvGF5C/2Xtc2pwPRsiuG8yp
FvVo/XguS1Wx7zfeAFfAywaR2eMHsP4mO/m2ZUhE0YLnSDPw3PlzOPZnivauIOwM
LQ2TZnqu2hrd5JPFWI9Guky9aFbtt6Zp7/Ky7tmT2LovpT6qkUszeV9XX1l7pBgZ
gEnk77d6chwmRnjjcUAo2a1bN7E5/1g60jWPHKX9/vTP9eg4U8SA5a6gcVMVdLkI
kJg5/U3v40My+bVQP3BSYJoLJK1bLRsybiai9tdRLCby+u0m8789rxdlmnUoofRs
hpww1+jbXNFel9pHMD22UDgsufB6LLxQfnUKgaY76DcDKtM9b6GE7DQjQahSE3dK
1xLhnRX0w2UX0SiqXAsdXjSsp+gLBftACvStvz2YflR79cIAHJVjjHyOHv7IpTm8
s7uGxaL8IEPGbQYgYF0nYWexoSI+ceZWC5rw9tPfg4F3H/tiACjSadx2FX4+OTeZ
Smz6LluKspkYj0YWz9ax7/H/HIRI7mXnkCxkTQDhRmJJu4g3GAOqZ23GXTM/fHT6
7WT5GIFur5a0jGn9yw2mrLMqiFxPyefWTh3bqnbKwOQ=
-----END CERTIFICATE-----
