Certificate:
    Data:
        Version: 3 (0x2)
        Serial Number: 8264 (0x2048)
    Signature Algorithm: md5WithRSAEncryption
        Issuer: C=US, ST=OH, L=Columbus, O=VikingVPN, OU=MyOrganizationalUnit, CN=VikingVPN CA/name=EasyRSA/emailAddress=me@myhost.mydomain
        Validity
            Not Before: Jun 12 21:34:04 2016 GMT
            Not After : Jun 10 21:34:04 2026 GMT
        Subject: CN=Client955Cert10ea11
        Subject Public Key Info:
            Public Key Algorithm: rsaEncryption
                Public-Key: (4096 bit)
                Modulus:
                    00:bb:87:ce:a0:54:2c:8d:d7:8f:c8:fb:9e:8b:35:
                    f2:a3:93:09:cb:1f:e2:4e:3b:44:c8:22:64:ef:73:
                    aa:e4:49:1e:24:e5:6d:a2:98:e9:45:90:fd:72:b8:
                    7c:5c:c7:6a:8d:e0:03:b0:f7:96:47:71:f1:fa:01:
                    44:d2:64:92:aa:96:46:7b:0b:5a:3e:26:52:0c:e1:
                    ea:f6:30:3c:f4:a5:ee:47:01:2a:70:6e:e5:77:d8:
                    74:a6:79:ae:52:0e:2f:00:6b:45:b5:56:e8:a7:7a:
                    ba:d2:45:f9:9f:2d:77:04:d2:5b:37:5c:07:db:c9:
                    72:3a:8e:68:48:7d:ce:3c:10:7f:b9:43:2d:cc:83:
                    89:13:77:cd:ee:6b:f2:56:d1:c6:be:70:f4:c3:7f:
                    43:6c:2b:44:d6:32:1b:cc:c9:27:0b:75:d4:74:99:
                    77:7d:e8:c2:40:9e:fe:8d:95:43:f4:9f:23:c0:99:
                    55:84:07:40:6c:c8:8e:47:92:cc:80:ce:2d:49:20:
                    33:c3:2e:45:fe:b2:bf:bf:cf:dd:eb:25:41:a2:b8:
                    0c:fd:6e:da:b1:da:ca:63:12:23:92:9c:44:c6:80:
                    87:4f:ce:f8:20:c3:24:9a:f6:0c:80:c2:c5:94:a7:
                    38:ea:f1:67:22:85:2e:78:e1:c8:7f:da:2e:82:67:
                    4f:6d:08:20:ae:c4:8b:96:cd:db:1c:32:04:34:cd:
                    f0:85:11:0c:6e:9a:59:16:1e:4f:df:b1:50:04:a1:
                    5e:69:2c:97:c3:09:b4:9b:9e:f8:fc:e2:26:56:43:
                    ae:5c:d7:0f:7e:74:b2:d3:74:db:aa:8c:9a:60:c8:
                    45:81:8b:f6:1a:70:90:4b:bf:ad:ad:86:56:d4:44:
                    ff:fd:b7:1a:ca:54:8e:ca:0a:fe:6c:3d:88:23:dc:
                    61:f3:e8:45:93:99:a2:34:e8:c0:79:23:10:a0:01:
                    2b:5e:51:8f:1c:b7:b9:31:93:91:4d:36:d7:c8:73:
                    e6:52:ee:0a:6e:e8:c0:00:d1:b5:c5:59:e9:61:25:
                    32:35:76:1c:8a:c8:cb:72:50:05:d3:9c:79:f4:cc:
                    2c:1e:39:b1:63:6e:e6:9a:1b:c9:81:b9:58:b8:eb:
                    15:3b:60:12:71:9f:d6:9b:bf:6d:30:65:ff:d8:7d:
                    e2:5f:03:30:71:26:07:35:56:b1:e3:66:2f:4c:2c:
                    1f:06:90:89:94:7b:b2:a1:c3:ee:e4:f7:98:ea:32:
                    0b:aa:cd:ee:8e:d3:6f:d0:29:8c:83:a6:5c:4b:13:
                    7c:94:57:b0:4d:d0:c9:45:e8:14:e2:c2:bc:73:1f:
                    1a:fa:b2:26:fb:44:68:3e:3d:fb:5b:f9:0c:4c:7d:
                    ee:ba:49
                Exponent: 65537 (0x10001)
        X509v3 extensions:
            X509v3 Basic Constraints: 
                CA:FALSE
            Netscape Comment: 
                Easy-RSA Generated Certificate
            X509v3 Subject Key Identifier: 
                74:59:FE:98:15:90:3C:4A:E2:68:BD:CE:6D:98:6D:7A:E2:50:49:16
            X509v3 Authority Key Identifier: 
                keyid:12:CD:60:04:D2:A0:80:9E:70:ED:C6:99:B8:7B:2C:C6:52:FD:19:A1
                DirName:/C=US/ST=OH/L=Columbus/O=VikingVPN/OU=MyOrganizationalUnit/CN=VikingVPN CA/name=EasyRSA/emailAddress=me@myhost.mydomain
                serial:CF:35:85:EE:80:BF:2A:3E

            X509v3 Extended Key Usage: 
                TLS Web Client Authentication
            X509v3 Key Usage: 
                Digital Signature
    Signature Algorithm: md5WithRSAEncryption
         0b:a0:87:7c:25:b7:69:eb:e5:34:ef:72:74:ad:29:ff:e0:f0:
         19:1b:2f:2d:67:17:9d:09:a8:8a:5e:e3:65:e3:44:47:60:97:
         fb:52:10:ad:92:88:bf:f6:d0:13:64:b0:94:7f:35:54:90:0f:
         f0:d2:2d:83:f8:35:16:e3:58:6f:75:cb:f0:d0:df:74:2e:c9:
         8d:e0:2e:4d:ac:7d:ec:e0:2b:e8:95:54:de:bd:a5:2c:0f:c0:
         4d:a0:5e:51:c4:a7:4b:97:14:0c:6c:ca:27:e6:e8:fc:10:9f:
         e9:4b:e9:f9:ef:f8:dc:83:6b:0c:c4:13:7d:83:5a:84:2a:02:
         fb:1d:c5:f8:d0:5f:9b:d0:cd:81:ac:dc:99:bd:e6:0c:85:b0:
         6a:91:f9:b3:81:a9:83:fd:ba:b0:3c:24:78:c6:25:90:aa:ad:
         21:a7:dc:1b:5f:93:2d:06:67:fb:14:1f:bf:a8:89:44:7d:e9:
         44:36:07:3d:fd:2d:62:d5:55:63:48:ef:68:7a:85:b5:fe:9b:
         d3:15:50:83:32:94:b8:0c:5c:3c:07:d9:8d:88:97:eb:66:0c:
         39:f2:6c:42:99:3c:9c:aa:79:e3:b0:fe:53:c8:fc:51:80:32:
         5a:83:eb:aa:f2:0e:4b:84:c5:32:33:bf:6d:8f:8f:fc:28:61:
         74:3a:f6:31:15:54:ea:0d:a2:6b:13:cf:19:2c:40:d6:29:6b:
         4a:e5:8f:03:5c:8b:d3:ee:67:fc:a2:f5:65:75:cd:95:c1:84:
         ec:90:b9:92:b2:3e:e7:3e:60:0a:7b:c3:fb:8e:ff:9a:8f:e1:
         c4:e9:1c:9e:2e:99:27:03:9b:9c:f5:82:c9:97:6e:b0:a5:a4:
         97:9d:90:14:ea:52:e7:70:30:4f:82:fa:c3:ef:86:e4:e4:02:
         39:86:7c:24:08:40:b0:16:39:32:a2:be:46:7c:a4:93:e4:d5:
         9b:85:58:41:be:d0:38:02:cc:6f:6e:12:27:3f:13:21:c1:0e:
         49:cd:a6:ec:9c:85:03:5f:be:1e:99:5b:28:c3:d4:a2:3a:63:
         dc:df:08:e4:31:f1:85:84:21:87:3e:ad:73:3c:e7:2e:25:ac:
         80:65:76:92:13:03:76:09:70:4e:19:92:3e:ba:78:75:e4:9a:
         ec:9a:f3:35:19:12:a7:f2:52:af:4e:8c:d9:7f:bd:66:43:e9:
         b2:17:0d:32:39:a2:95:69:0c:cd:e0:02:2e:fb:63:39:69:59:
         e1:a0:58:08:73:39:ec:86:5b:5c:e2:d9:c5:12:c8:d8:1c:d1:
         ea:ad:c6:92:dc:33:ab:67:b9:5b:7c:37:93:10:17:6d:9f:92:
         95:c3:7a:ec:6c:2a:70:ff
-----BEGIN CERTIFICATE-----
MIIGrDCCBJSgAwIBAgICIEgwDQYJKoZIhvcNAQEEBQAwgawxCzAJBgNVBAYTAlVT
MQswCQYDVQQIEwJPSDERMA8GA1UEBxMIQ29sdW1idXMxEjAQBgNVBAoTCVZpa2lu
Z1ZQTjEdMBsGA1UECxMUTXlPcmdhbml6YXRpb25hbFVuaXQxFTATBgNVBAMTDFZp
a2luZ1ZQTiBDQTEQMA4GA1UEKRMHRWFzeVJTQTEhMB8GCSqGSIb3DQEJARYSbWVA
bXlob3N0Lm15ZG9tYWluMB4XDTE2MDYxMjIxMzQwNFoXDTI2MDYxMDIxMzQwNFow
HjEcMBoGA1UEAxMTQ2xpZW50OTU1Q2VydDEwZWExMTCCAiIwDQYJKoZIhvcNAQEB
BQADggIPADCCAgoCggIBALuHzqBULI3Xj8j7nos18qOTCcsf4k47RMgiZO9zquRJ
HiTlbaKY6UWQ/XK4fFzHao3gA7D3lkdx8foBRNJkkqqWRnsLWj4mUgzh6vYwPPSl
7kcBKnBu5XfYdKZ5rlIOLwBrRbVW6Kd6utJF+Z8tdwTSWzdcB9vJcjqOaEh9zjwQ
f7lDLcyDiRN3ze5r8lbRxr5w9MN/Q2wrRNYyG8zJJwt11HSZd33owkCe/o2VQ/Sf
I8CZVYQHQGzIjkeSzIDOLUkgM8MuRf6yv7/P3eslQaK4DP1u2rHaymMSI5KcRMaA
h0/O+CDDJJr2DIDCxZSnOOrxZyKFLnjhyH/aLoJnT20IIK7Ei5bN2xwyBDTN8IUR
DG6aWRYeT9+xUAShXmksl8MJtJue+PziJlZDrlzXD350stN026qMmmDIRYGL9hpw
kEu/ra2GVtRE//23GspUjsoK/mw9iCPcYfPoRZOZojTowHkjEKABK15Rjxy3uTGT
kU0218hz5lLuCm7owADRtcVZ6WElMjV2HIrIy3JQBdOcefTMLB45sWNu5pobyYG5
WLjrFTtgEnGf1pu/bTBl/9h94l8DMHEmBzVWseNmL0wsHwaQiZR7sqHD7uT3mOoy
C6rN7o7Tb9ApjIOmXEsTfJRXsE3QyUXoFOLCvHMfGvqyJvtEaD49+1v5DEx97rpJ
AgMBAAGjggFjMIIBXzAJBgNVHRMEAjAAMC0GCWCGSAGG+EIBDQQgFh5FYXN5LVJT
QSBHZW5lcmF0ZWQgQ2VydGlmaWNhdGUwHQYDVR0OBBYEFHRZ/pgVkDxK4mi9zm2Y
bXriUEkWMIHhBgNVHSMEgdkwgdaAFBLNYATSoICecO3Gmbh7LMZS/RmhoYGypIGv
MIGsMQswCQYDVQQGEwJVUzELMAkGA1UECBMCT0gxETAPBgNVBAcTCENvbHVtYnVz
MRIwEAYDVQQKEwlWaWtpbmdWUE4xHTAbBgNVBAsTFE15T3JnYW5pemF0aW9uYWxV
bml0MRUwEwYDVQQDEwxWaWtpbmdWUE4gQ0ExEDAOBgNVBCkTB0Vhc3lSU0ExITAf
BgkqhkiG9w0BCQEWEm1lQG15aG9zdC5teWRvbWFpboIJAM81he6Avyo+MBMGA1Ud
JQQMMAoGCCsGAQUFBwMCMAsGA1UdDwQEAwIHgDANBgkqhkiG9w0BAQQFAAOCAgEA
C6CHfCW3aevlNO9ydK0p/+DwGRsvLWcXnQmoil7jZeNER2CX+1IQrZKIv/bQE2Sw
lH81VJAP8NItg/g1FuNYb3XL8NDfdC7JjeAuTax97OAr6JVU3r2lLA/ATaBeUcSn
S5cUDGzKJ+bo/BCf6Uvp+e/43INrDMQTfYNahCoC+x3F+NBfm9DNgazcmb3mDIWw
apH5s4Gpg/26sDwkeMYlkKqtIafcG1+TLQZn+xQfv6iJRH3pRDYHPf0tYtVVY0jv
aHqFtf6b0xVQgzKUuAxcPAfZjYiX62YMOfJsQpk8nKp547D+U8j8UYAyWoPrqvIO
S4TFMjO/bY+P/ChhdDr2MRVU6g2iaxPPGSxA1ilrSuWPA1yL0+5n/KL1ZXXNlcGE
7JC5krI+5z5gCnvD+47/mo/hxOkcni6ZJwObnPWCyZdusKWkl52QFOpS53AwT4L6
w++G5OQCOYZ8JAhAsBY5MqK+Rnykk+TVm4VYQb7QOALMb24SJz8TIcEOSc2m7JyF
A1++HplbKMPUojpj3N8I5DHxhYQhhz6tczznLiWsgGV2khMDdglwThmSPrp4deSa
7JrzNRkSp/JSr06M2X+9ZkPpshcNMjmilWkMzeACLvtjOWlZ4aBYCHM57IZbXOLZ
xRLI2BzR6q3Gktwzq2e5W3w3kxAXbZ+SlcN67GwqcP8=
-----END CERTIFICATE-----
