Certificate:
    Data:
        Version: 3 (0x2)
        Serial Number: 8276 (0x2054)
    Signature Algorithm: md5WithRSAEncryption
        Issuer: C=US, ST=OH, L=Columbus, O=VikingVPN, OU=MyOrganizationalUnit, CN=VikingVPN CA/name=EasyRSA/emailAddress=me@myhost.mydomain
        Validity
            Not Before: Jun 13 13:36:48 2016 GMT
            Not After : Jun 11 13:36:48 2026 GMT
        Subject: CN=Client72Cert937943
        Subject Public Key Info:
            Public Key Algorithm: rsaEncryption
                Public-Key: (4096 bit)
                Modulus:
                    00:c9:fb:e9:0c:4a:61:de:b9:8a:2d:b2:7a:60:6d:
                    1a:9c:39:3a:b2:36:77:b6:0b:bc:bd:30:fa:d9:41:
                    17:78:22:df:33:fa:d8:4f:5d:1d:44:3c:4a:84:49:
                    25:60:c1:70:2c:a6:bb:ce:be:1b:ee:58:d4:a5:7a:
                    23:3a:c0:3c:8f:0d:5c:67:67:2f:ff:8e:fd:8c:d4:
                    f3:20:5a:2f:e4:b3:e5:a0:98:f6:a4:8d:c1:53:34:
                    9b:9e:4a:a7:fa:78:4f:1f:ce:bb:68:bc:81:a4:35:
                    7a:56:61:53:62:55:46:c5:12:c2:ae:34:6b:8b:79:
                    a9:bf:e7:08:38:f0:0f:54:58:be:95:0a:db:65:2d:
                    cf:e7:83:3e:17:a5:50:b3:4f:b9:43:7f:24:a5:c8:
                    d3:fd:aa:8d:4c:3d:71:e8:75:c1:19:bf:52:4a:c0:
                    65:6f:6d:ee:27:5b:b6:e3:f2:7d:f3:b7:73:54:d0:
                    b0:a1:81:10:02:1a:2a:56:a1:76:7e:41:42:8e:d6:
                    88:cc:78:b8:02:92:b1:ca:fe:ec:d9:05:ed:ce:8d:
                    25:d3:17:91:d6:72:2a:c4:da:a1:96:01:03:a3:4b:
                    f9:80:00:a5:35:d7:91:04:b4:64:b4:ed:ac:0c:23:
                    2d:2e:98:f1:a7:18:aa:e0:48:55:b5:8a:29:22:08:
                    29:53:e9:1c:50:79:f7:2e:9b:35:93:ed:71:fb:43:
                    d9:7b:52:6b:35:c2:5d:56:23:dd:e5:b3:32:13:2e:
                    57:88:d3:3e:21:c4:ed:08:80:7d:19:17:2f:68:45:
                    bb:5f:30:21:4e:e8:c2:f8:f1:1e:4e:0b:6e:76:1d:
                    08:74:0f:7a:a2:e1:e4:f9:50:d6:8d:46:d7:a4:66:
                    62:8d:06:b2:9e:39:66:25:01:b6:98:a3:1e:c0:84:
                    16:6f:52:e1:62:d4:51:08:c2:fd:36:c9:fd:4b:30:
                    15:6f:1c:2d:72:6a:e5:4c:d4:22:4e:12:22:b8:5e:
                    7e:fa:bc:91:e5:1a:ca:5d:05:db:b5:01:ec:99:4e:
                    00:69:ee:a5:51:db:f1:2a:ed:3a:ec:d1:2e:18:05:
                    9e:ec:29:d1:8e:19:cd:09:03:57:ba:ed:e8:e8:ed:
                    fa:ef:7a:e4:f3:92:aa:da:cc:f3:fc:b6:a1:5b:d4:
                    35:5d:3a:e8:a7:b7:58:3a:47:26:17:07:b8:2a:ae:
                    89:e4:a1:f0:65:02:bb:13:c0:32:5b:81:dd:58:a1:
                    59:82:29:64:8d:d9:fc:68:d0:5e:f2:3c:3d:34:0a:
                    28:3d:25:33:00:7d:d1:40:9d:0e:d0:7c:4e:c0:a2:
                    bb:87:8b:2b:26:70:83:c3:56:1f:85:56:c1:55:0d:
                    fc:77:5f
                Exponent: 65537 (0x10001)
        X509v3 extensions:
            X509v3 Basic Constraints: 
                CA:FALSE
            Netscape Comment: 
                Easy-RSA Generated Certificate
            X509v3 Subject Key Identifier: 
                CE:6C:D2:4E:CD:64:64:7E:65:07:72:4B:CF:D6:3D:95:F2:9C:7C:53
            X509v3 Authority Key Identifier: 
                keyid:12:CD:60:04:D2:A0:80:9E:70:ED:C6:99:B8:7B:2C:C6:52:FD:19:A1
                DirName:/C=US/ST=OH/L=Columbus/O=VikingVPN/OU=MyOrganizationalUnit/CN=VikingVPN CA/name=EasyRSA/emailAddress=me@myhost.mydomain
                serial:CF:35:85:EE:80:BF:2A:3E

            X509v3 Extended Key Usage: 
                TLS Web Client Authentication
            X509v3 Key Usage: 
                Digital Signature
    Signature Algorithm: md5WithRSAEncryption
         c4:b7:ae:af:15:0d:f4:8b:f5:58:c8:94:b7:27:a7:8b:01:d2:
         0e:9c:d8:70:c8:08:9c:0a:93:1d:18:77:5b:fd:2a:fe:fa:53:
         ba:8e:05:ad:cb:bc:a7:9f:7d:ea:fd:4e:97:9b:db:00:32:18:
         d6:5c:35:5f:0e:e2:c2:53:54:b0:e1:44:ab:7d:18:7e:db:2f:
         ab:73:f4:eb:77:4c:54:0f:87:40:ef:94:4e:16:dd:88:c6:7b:
         9a:25:9e:ad:b8:d8:8d:8a:30:e2:32:ee:1b:0f:05:8a:09:a9:
         e3:1d:b2:c4:2d:a3:c7:af:66:b0:8d:24:1c:77:59:03:f3:ec:
         d7:73:89:b5:c7:89:d9:0f:02:de:f3:8a:54:82:57:31:5b:12:
         55:38:3d:b5:1b:53:54:10:83:92:d5:dd:12:56:cf:2e:72:57:
         f8:77:f6:b1:95:20:9b:70:a6:29:1e:4a:c0:d3:5d:cc:b3:8f:
         23:4a:bf:6b:54:c6:22:c7:fc:7e:46:20:af:f4:3d:79:63:dd:
         9f:ed:c4:9d:1a:7b:cf:59:bc:ee:4e:da:15:13:af:25:06:aa:
         74:e3:a3:27:29:2a:af:e6:8c:ae:20:36:50:71:e5:f1:42:f4:
         19:50:8e:48:b2:d1:45:9d:e3:5b:3f:f5:12:05:93:ea:25:69:
         c8:81:7c:2b:44:48:9c:c9:58:88:ea:1c:18:45:c0:7d:8a:53:
         26:7f:39:db:e7:e2:1f:b6:24:fc:82:8b:2d:5e:1a:2e:04:f4:
         df:da:b3:df:c2:46:e8:1e:e7:0f:81:3c:1c:7f:1e:c1:92:ef:
         db:2c:52:6d:16:ff:f6:dc:23:2e:25:e4:73:58:03:5c:d9:fa:
         b2:aa:92:0e:bd:3f:f4:42:1f:2c:93:b1:5a:a9:72:3a:d4:d5:
         ba:dd:fa:2a:c6:0e:ad:19:bc:bf:a2:2b:de:66:87:85:c2:f4:
         82:f9:55:0e:86:58:a9:ad:92:f0:66:23:31:6c:83:d1:b8:9e:
         28:9e:07:23:63:3a:c8:aa:db:2e:32:e2:47:e4:e2:de:e1:fa:
         bc:ba:81:1a:3f:88:b4:57:88:02:6a:cf:a6:6c:1a:e3:93:ba:
         32:b6:83:5b:13:1e:ef:09:28:2e:4b:2e:7c:e9:04:2b:eb:4e:
         7b:25:60:f3:6a:bd:e7:70:80:e2:8a:be:27:2a:9e:28:e3:7e:
         22:87:7e:51:b3:2d:d8:90:d9:a0:06:9e:32:34:3b:74:3f:81:
         31:5f:f6:f1:37:32:c0:57:44:5a:08:8d:23:41:37:cf:45:a5:
         f1:ad:f3:ba:39:05:76:0f:e8:01:d9:67:89:c9:29:8d:5a:42:
         f1:40:66:a5:f2:bf:3f:27
-----BEGIN CERTIFICATE-----
MIIGqzCCBJOgAwIBAgICIFQwDQYJKoZIhvcNAQEEBQAwgawxCzAJBgNVBAYTAlVT
MQswCQYDVQQIEwJPSDERMA8GA1UEBxMIQ29sdW1idXMxEjAQBgNVBAoTCVZpa2lu
Z1ZQTjEdMBsGA1UECxMUTXlPcmdhbml6YXRpb25hbFVuaXQxFTATBgNVBAMTDFZp
a2luZ1ZQTiBDQTEQMA4GA1UEKRMHRWFzeVJTQTEhMB8GCSqGSIb3DQEJARYSbWVA
bXlob3N0Lm15ZG9tYWluMB4XDTE2MDYxMzEzMzY0OFoXDTI2MDYxMTEzMzY0OFow
HTEbMBkGA1UEAxMSQ2xpZW50NzJDZXJ0OTM3OTQzMIICIjANBgkqhkiG9w0BAQEF
AAOCAg8AMIICCgKCAgEAyfvpDEph3rmKLbJ6YG0anDk6sjZ3tgu8vTD62UEXeCLf
M/rYT10dRDxKhEklYMFwLKa7zr4b7ljUpXojOsA8jw1cZ2cv/479jNTzIFov5LPl
oJj2pI3BUzSbnkqn+nhPH867aLyBpDV6VmFTYlVGxRLCrjRri3mpv+cIOPAPVFi+
lQrbZS3P54M+F6VQs0+5Q38kpcjT/aqNTD1x6HXBGb9SSsBlb23uJ1u24/J987dz
VNCwoYEQAhoqVqF2fkFCjtaIzHi4ApKxyv7s2QXtzo0l0xeR1nIqxNqhlgEDo0v5
gAClNdeRBLRktO2sDCMtLpjxpxiq4EhVtYopIggpU+kcUHn3Lps1k+1x+0PZe1Jr
NcJdViPd5bMyEy5XiNM+IcTtCIB9GRcvaEW7XzAhTujC+PEeTgtudh0IdA96ouHk
+VDWjUbXpGZijQaynjlmJQG2mKMewIQWb1LhYtRRCML9Nsn9SzAVbxwtcmrlTNQi
ThIiuF5++ryR5RrKXQXbtQHsmU4Aae6lUdvxKu067NEuGAWe7CnRjhnNCQNXuu3o
6O3673rk85Kq2szz/LahW9Q1XTrop7dYOkcmFwe4Kq6J5KHwZQK7E8AyW4HdWKFZ
gilkjdn8aNBe8jw9NAooPSUzAH3RQJ0O0HxOwKK7h4srJnCDw1YfhVbBVQ38d18C
AwEAAaOCAWMwggFfMAkGA1UdEwQCMAAwLQYJYIZIAYb4QgENBCAWHkVhc3ktUlNB
IEdlbmVyYXRlZCBDZXJ0aWZpY2F0ZTAdBgNVHQ4EFgQUzmzSTs1kZH5lB3JLz9Y9
lfKcfFMwgeEGA1UdIwSB2TCB1oAUEs1gBNKggJ5w7caZuHssxlL9GaGhgbKkga8w
gawxCzAJBgNVBAYTAlVTMQswCQYDVQQIEwJPSDERMA8GA1UEBxMIQ29sdW1idXMx
EjAQBgNVBAoTCVZpa2luZ1ZQTjEdMBsGA1UECxMUTXlPcmdhbml6YXRpb25hbFVu
aXQxFTATBgNVBAMTDFZpa2luZ1ZQTiBDQTEQMA4GA1UEKRMHRWFzeVJTQTEhMB8G
CSqGSIb3DQEJARYSbWVAbXlob3N0Lm15ZG9tYWluggkAzzWF7oC/Kj4wEwYDVR0l
BAwwCgYIKwYBBQUHAwIwCwYDVR0PBAQDAgeAMA0GCSqGSIb3DQEBBAUAA4ICAQDE
t66vFQ30i/VYyJS3J6eLAdIOnNhwyAicCpMdGHdb/Sr++lO6jgWty7ynn33q/U6X
m9sAMhjWXDVfDuLCU1Sw4USrfRh+2y+rc/Trd0xUD4dA75ROFt2IxnuaJZ6tuNiN
ijDiMu4bDwWKCanjHbLELaPHr2awjSQcd1kD8+zXc4m1x4nZDwLe84pUglcxWxJV
OD21G1NUEIOS1d0SVs8uclf4d/axlSCbcKYpHkrA013Ms48jSr9rVMYix/x+RiCv
9D15Y92f7cSdGnvPWbzuTtoVE68lBqp046MnKSqv5oyuIDZQceXxQvQZUI5IstFF
neNbP/USBZPqJWnIgXwrREicyViI6hwYRcB9ilMmfznb5+IftiT8gostXhouBPTf
2rPfwkboHucPgTwcfx7Bku/bLFJtFv/23CMuJeRzWANc2fqyqpIOvT/0Qh8sk7Fa
qXI61NW63foqxg6tGby/oiveZoeFwvSC+VUOhliprZLwZiMxbIPRuJ4ongcjYzrI
qtsuMuJH5OLe4fq8uoEaP4i0V4gCas+mbBrjk7oytoNbEx7vCSguSy586QQr6057
JWDzar3ncIDiir4nKp4o434ih35Rsy3YkNmgBp4yNDt0P4ExX/bxNzLAV0RaCI0j
QTfPRaXxrfO6OQV2D+gB2WeJySmNWkLxQGal8r8/Jw==
-----END CERTIFICATE-----
