Certificate:
    Data:
        Version: 3 (0x2)
        Serial Number: 8284 (0x205c)
    Signature Algorithm: md5WithRSAEncryption
        Issuer: C=US, ST=OH, L=Columbus, O=VikingVPN, OU=MyOrganizationalUnit, CN=VikingVPN CA/name=EasyRSA/emailAddress=me@myhost.mydomain
        Validity
            Not Before: Jun 14 21:29:01 2016 GMT
            Not After : Jun 12 21:29:01 2026 GMT
        Subject: CN=Client1864Certfb6fac
        Subject Public Key Info:
            Public Key Algorithm: rsaEncryption
                Public-Key: (4096 bit)
                Modulus:
                    00:f0:79:19:02:dc:22:85:7c:f1:7a:d1:6d:68:18:
                    d7:8d:e4:a9:cd:2c:13:29:d2:77:97:c8:9b:db:85:
                    1b:79:80:a7:69:de:ee:6c:89:bb:f5:fb:55:ce:c2:
                    f8:17:a2:f7:4c:17:79:72:67:77:54:7b:91:52:5f:
                    0e:ab:97:89:9e:3b:12:6c:a8:68:63:fe:2f:15:03:
                    59:e6:4f:36:3d:02:04:69:ae:fa:fc:e1:63:7b:0c:
                    39:e5:1d:93:fa:7e:41:40:ea:6b:b6:07:f2:93:57:
                    12:b9:c3:26:ea:c8:24:e9:37:06:f8:a7:b6:47:af:
                    02:3f:7c:2b:79:cb:af:ca:e6:87:da:89:ab:f2:13:
                    53:58:2f:d0:04:80:7d:c2:56:e1:8f:dd:22:3e:01:
                    dd:d0:e9:7d:9e:a3:68:b9:bf:cf:e2:50:d7:2a:f0:
                    14:1f:1b:ce:7c:73:68:22:94:7e:87:68:27:43:38:
                    da:81:84:71:68:a8:19:d4:1a:27:ab:32:5a:64:ce:
                    4e:a0:cb:99:43:6a:83:a5:71:7e:6c:a4:5c:13:03:
                    bf:7e:d4:0e:d9:0e:3c:84:e1:7c:29:af:86:68:72:
                    d1:f3:b5:75:e4:2e:39:ee:9c:d0:e6:6f:03:2d:2a:
                    0b:fa:33:b7:dd:11:54:85:b5:ff:c8:da:98:bc:5e:
                    0e:ec:72:e8:59:1b:3b:f7:e4:44:d0:c2:05:ed:5a:
                    27:8e:4f:48:2e:83:11:f4:cf:36:2d:47:b9:f3:43:
                    7b:9c:88:78:bf:b6:b5:34:ef:be:ce:f7:07:6f:fa:
                    32:0a:3f:fa:7f:68:cd:71:ac:04:05:27:68:d7:12:
                    04:a9:f3:cb:43:3f:c9:92:0a:ef:fe:b1:80:b5:9b:
                    67:d0:aa:87:d3:58:09:98:af:9b:0b:9d:bd:3b:23:
                    8b:5f:99:42:67:e5:32:ee:44:d0:a9:a7:af:35:28:
                    53:ae:2d:e6:6b:0d:83:9c:a0:31:27:7f:ab:e6:39:
                    b8:22:0b:fa:d1:4c:87:5c:62:d5:53:34:4e:45:41:
                    92:12:bf:e8:f4:06:a3:92:d0:be:79:04:76:ec:69:
                    89:7a:17:f5:ca:bf:43:4b:28:02:1d:ce:93:3f:0c:
                    74:0c:fc:49:0d:6e:39:15:bd:bb:98:f4:41:b2:33:
                    fe:4c:b5:bc:fa:c9:82:9d:a5:13:48:b2:0f:1a:1c:
                    bf:f1:07:4e:b8:14:e6:5a:e7:f8:7c:36:98:1a:d3:
                    9d:73:27:ed:7d:c3:48:53:fa:33:0e:26:60:20:af:
                    b7:27:16:7c:6b:fa:e3:18:f3:44:1f:4e:2a:d2:5d:
                    97:0c:9b:7d:93:c2:25:a5:d2:ff:0e:ab:0f:76:41:
                    c6:17:97
                Exponent: 65537 (0x10001)
        X509v3 extensions:
            X509v3 Basic Constraints: 
                CA:FALSE
            Netscape Comment: 
                Easy-RSA Generated Certificate
            X509v3 Subject Key Identifier: 
                8C:F1:C6:C3:92:ED:4B:0A:CA:EE:14:93:BE:9A:7A:C0:BA:58:AC:FC
            X509v3 Authority Key Identifier: 
                keyid:12:CD:60:04:D2:A0:80:9E:70:ED:C6:99:B8:7B:2C:C6:52:FD:19:A1
                DirName:/C=US/ST=OH/L=Columbus/O=VikingVPN/OU=MyOrganizationalUnit/CN=VikingVPN CA/name=EasyRSA/emailAddress=me@myhost.mydomain
                serial:CF:35:85:EE:80:BF:2A:3E

            X509v3 Extended Key Usage: 
                TLS Web Client Authentication
            X509v3 Key Usage: 
                Digital Signature
    Signature Algorithm: md5WithRSAEncryption
         83:a6:07:bf:a0:f6:ad:f1:52:44:c3:b8:7b:b1:97:b2:8b:a8:
         b0:89:89:75:83:04:65:d3:f8:fb:c7:e9:1f:49:4f:43:29:26:
         12:6c:86:58:46:0d:44:3e:09:d6:48:3d:5c:af:9c:59:f8:1f:
         c4:c1:06:33:8b:39:28:0e:c1:2a:d5:f1:b9:a2:d2:da:b0:c5:
         05:f0:80:3e:82:9c:77:a1:c2:c1:05:ad:5b:f8:77:47:2b:d9:
         53:61:ac:9f:ac:6b:22:3f:ad:ed:fa:f5:4a:eb:6a:48:1a:d7:
         fc:92:7c:b1:5c:db:f5:04:0b:7c:f3:66:21:88:1c:d8:f7:58:
         8d:9e:3e:bd:56:96:a3:a9:a7:05:23:65:2c:b8:1e:4e:ad:35:
         cc:9c:4a:56:00:ef:32:d4:90:fa:ac:17:14:ac:85:6f:14:ea:
         1f:a3:ff:ae:b0:3f:a1:c6:d9:71:c0:d6:26:bf:5e:4f:49:4b:
         41:16:97:f3:3e:f0:19:8b:55:e5:e5:63:e6:7d:26:29:37:83:
         51:27:5f:dc:3a:5c:f1:6c:eb:44:19:d3:a8:4d:79:62:13:57:
         a4:fe:f0:de:44:73:bc:e9:bd:d1:c9:e1:b8:e7:a2:c2:7f:a0:
         df:a1:21:aa:e6:a3:d3:f3:e2:9a:9c:ab:d9:2a:a5:65:53:1d:
         37:35:7b:de:c5:f7:65:72:a6:29:8f:8a:45:7f:d0:cb:ba:c5:
         6d:60:41:77:4e:4e:dc:b4:6b:4a:15:8d:ed:0e:52:df:d2:02:
         fc:d5:5a:4a:fa:ec:fa:f7:af:da:5e:ee:84:c9:1d:fe:fd:2a:
         89:53:1e:d3:7f:3a:b2:4c:73:72:9d:74:27:ce:66:38:98:0c:
         da:b6:e3:eb:da:4e:a3:9c:48:91:aa:f4:0a:1d:40:b6:59:84:
         b3:4d:3c:e6:18:72:c2:09:50:d6:67:c8:13:72:b5:40:11:e3:
         d1:46:14:9f:cb:bf:19:c1:24:1b:5d:5f:20:75:d8:c5:c0:9f:
         9f:c4:ba:9e:aa:b4:70:8b:9c:1c:91:6e:6d:9c:1a:6e:aa:91:
         37:be:1f:7b:10:fd:f8:bc:bf:32:56:af:4b:90:29:a6:70:6e:
         c7:8b:a8:82:9b:a8:31:1e:60:bd:bd:e8:ba:b2:79:f5:08:97:
         48:68:c0:b0:8b:b4:b7:5d:72:89:31:5d:4f:c1:fb:40:cd:d8:
         e5:ad:ef:7b:cf:52:f1:d0:83:c3:4b:3d:78:04:b5:88:30:7d:
         0a:78:c1:8d:55:d4:60:ad:e3:54:79:bb:25:09:d9:50:de:bd:
         b4:a2:cc:40:7e:ee:97:21:83:7e:9c:97:b5:2e:a9:22:10:8f:
         45:dd:21:0e:0a:04:3e:f6
-----BEGIN CERTIFICATE-----
MIIGrTCCBJWgAwIBAgICIFwwDQYJKoZIhvcNAQEEBQAwgawxCzAJBgNVBAYTAlVT
MQswCQYDVQQIEwJPSDERMA8GA1UEBxMIQ29sdW1idXMxEjAQBgNVBAoTCVZpa2lu
Z1ZQTjEdMBsGA1UECxMUTXlPcmdhbml6YXRpb25hbFVuaXQxFTATBgNVBAMTDFZp
a2luZ1ZQTiBDQTEQMA4GA1UEKRMHRWFzeVJTQTEhMB8GCSqGSIb3DQEJARYSbWVA
bXlob3N0Lm15ZG9tYWluMB4XDTE2MDYxNDIxMjkwMVoXDTI2MDYxMjIxMjkwMVow
HzEdMBsGA1UEAxMUQ2xpZW50MTg2NENlcnRmYjZmYWMwggIiMA0GCSqGSIb3DQEB
AQUAA4ICDwAwggIKAoICAQDweRkC3CKFfPF60W1oGNeN5KnNLBMp0neXyJvbhRt5
gKdp3u5sibv1+1XOwvgXovdMF3lyZ3dUe5FSXw6rl4meOxJsqGhj/i8VA1nmTzY9
AgRprvr84WN7DDnlHZP6fkFA6mu2B/KTVxK5wybqyCTpNwb4p7ZHrwI/fCt5y6/K
5ofaiavyE1NYL9AEgH3CVuGP3SI+Ad3Q6X2eo2i5v8/iUNcq8BQfG858c2gilH6H
aCdDONqBhHFoqBnUGierMlpkzk6gy5lDaoOlcX5spFwTA79+1A7ZDjyE4Xwpr4Zo
ctHztXXkLjnunNDmbwMtKgv6M7fdEVSFtf/I2pi8Xg7scuhZGzv35ETQwgXtWieO
T0gugxH0zzYtR7nzQ3uciHi/trU0777O9wdv+jIKP/p/aM1xrAQFJ2jXEgSp88tD
P8mSCu/+sYC1m2fQqofTWAmYr5sLnb07I4tfmUJn5TLuRNCpp681KFOuLeZrDYOc
oDEnf6vmObgiC/rRTIdcYtVTNE5FQZISv+j0BqOS0L55BHbsaYl6F/XKv0NLKAId
zpM/DHQM/EkNbjkVvbuY9EGyM/5Mtbz6yYKdpRNIsg8aHL/xB064FOZa5/h8Npga
051zJ+19w0hT+jMOJmAgr7cnFnxr+uMY80QfTirSXZcMm32TwiWl0v8Oqw92QcYX
lwIDAQABo4IBYzCCAV8wCQYDVR0TBAIwADAtBglghkgBhvhCAQ0EIBYeRWFzeS1S
U0EgR2VuZXJhdGVkIENlcnRpZmljYXRlMB0GA1UdDgQWBBSM8cbDku1LCsruFJO+
mnrAulis/DCB4QYDVR0jBIHZMIHWgBQSzWAE0qCAnnDtxpm4eyzGUv0ZoaGBsqSB
rzCBrDELMAkGA1UEBhMCVVMxCzAJBgNVBAgTAk9IMREwDwYDVQQHEwhDb2x1bWJ1
czESMBAGA1UEChMJVmlraW5nVlBOMR0wGwYDVQQLExRNeU9yZ2FuaXphdGlvbmFs
VW5pdDEVMBMGA1UEAxMMVmlraW5nVlBOIENBMRAwDgYDVQQpEwdFYXN5UlNBMSEw
HwYJKoZIhvcNAQkBFhJtZUBteWhvc3QubXlkb21haW6CCQDPNYXugL8qPjATBgNV
HSUEDDAKBggrBgEFBQcDAjALBgNVHQ8EBAMCB4AwDQYJKoZIhvcNAQEEBQADggIB
AIOmB7+g9q3xUkTDuHuxl7KLqLCJiXWDBGXT+PvH6R9JT0MpJhJshlhGDUQ+CdZI
PVyvnFn4H8TBBjOLOSgOwSrV8bmi0tqwxQXwgD6CnHehwsEFrVv4d0cr2VNhrJ+s
ayI/re369Urrakga1/ySfLFc2/UEC3zzZiGIHNj3WI2ePr1WlqOppwUjZSy4Hk6t
NcycSlYA7zLUkPqsFxSshW8U6h+j/66wP6HG2XHA1ia/Xk9JS0EWl/M+8BmLVeXl
Y+Z9Jik3g1EnX9w6XPFs60QZ06hNeWITV6T+8N5Ec7zpvdHJ4bjnosJ/oN+hIarm
o9Pz4pqcq9kqpWVTHTc1e97F92VypimPikV/0Mu6xW1gQXdOTty0a0oVje0OUt/S
AvzVWkr67Pr3r9pe7oTJHf79KolTHtN/OrJMc3KddCfOZjiYDNq24+vaTqOcSJGq
9AodQLZZhLNNPOYYcsIJUNZnyBNytUAR49FGFJ/LvxnBJBtdXyB12MXAn5/Eup6q
tHCLnByRbm2cGm6qkTe+H3sQ/fi8vzJWr0uQKaZwbseLqIKbqDEeYL296LqyefUI
l0howLCLtLddcokxXU/B+0DN2OWt73vPUvHQg8NLPXgEtYgwfQp4wY1V1GCt41R5
uyUJ2VDevbSizEB+7pchg36cl7UuqSIQj0XdIQ4KBD72
-----END CERTIFICATE-----
