Certificate:
    Data:
        Version: 3 (0x2)
        Serial Number: 8327 (0x2087)
    Signature Algorithm: md5WithRSAEncryption
        Issuer: C=US, ST=OH, L=Columbus, O=VikingVPN, OU=MyOrganizationalUnit, CN=VikingVPN CA/name=EasyRSA/emailAddress=me@myhost.mydomain
        Validity
            Not Before: Jun 21 02:07:23 2016 GMT
            Not After : Jun 19 02:07:23 2026 GMT
        Subject: CN=Client1755Cert484dab
        Subject Public Key Info:
            Public Key Algorithm: rsaEncryption
                Public-Key: (4096 bit)
                Modulus:
                    00:c8:a2:88:73:4f:5a:4a:9d:03:be:6d:d0:99:e2:
                    b9:17:94:86:84:bb:a6:58:2c:67:e4:b3:f5:0e:28:
                    c9:b2:55:e4:0d:e4:f2:bd:bf:c1:9a:d1:28:3e:7a:
                    42:3f:e4:7e:13:8b:95:e0:26:4f:2f:68:05:1b:12:
                    6b:1b:3f:f7:04:3c:3c:f3:51:2a:2c:7b:8a:ec:0c:
                    36:a8:59:b7:c6:ea:45:70:ae:da:d7:8c:92:97:82:
                    43:a6:fb:72:5f:77:82:e3:a9:a2:86:5e:b2:58:e3:
                    15:31:f0:3a:ae:87:35:a1:fa:5b:b7:5d:bf:cc:d2:
                    7e:39:e5:1b:fd:0b:e6:84:90:6c:a2:78:71:bd:91:
                    54:57:75:30:dd:20:f5:2a:84:25:76:e8:a1:53:18:
                    ad:ec:e9:56:04:8e:59:f3:9f:86:51:a5:90:15:05:
                    f1:22:0a:7d:2a:ae:27:b3:c9:38:c4:b5:c6:dc:98:
                    c8:15:ce:f4:2b:06:f3:a1:73:fc:98:a1:af:c0:ef:
                    23:32:a3:71:e5:4d:f8:88:34:1e:e5:08:43:b9:9a:
                    76:0b:ac:3d:a4:0b:fa:0e:8c:c0:e7:b1:e4:a8:45:
                    47:a5:c0:ff:5c:0f:cd:12:68:a8:9a:f6:b0:c0:52:
                    0e:27:fa:1e:ff:3e:67:c1:4b:d2:09:6a:7b:44:69:
                    8c:42:e4:3c:84:3c:f1:5d:c9:6c:e2:53:39:e3:90:
                    5b:bb:49:37:9b:41:7d:72:0b:7e:c0:02:5f:c0:9a:
                    09:dd:c0:bf:b3:68:fd:cf:b4:34:c6:c5:d1:54:d3:
                    e5:fe:f3:bc:49:33:9f:e6:1b:78:24:38:01:1b:46:
                    f3:b6:fa:80:c8:19:a0:9f:dd:ae:cf:9c:e4:03:9d:
                    1e:eb:72:55:20:96:1d:e8:a6:ad:83:93:30:0b:01:
                    f5:ff:ba:64:63:ff:fe:06:eb:7c:bf:e3:b2:24:27:
                    09:49:9c:61:7c:31:8b:5e:81:79:56:e8:34:d9:e2:
                    fe:5a:c8:73:50:cb:9b:56:35:5d:a4:b1:9c:16:4e:
                    74:c2:5c:04:2a:16:b5:f7:ab:2e:11:03:58:4d:4c:
                    12:64:fe:28:ee:70:d8:9d:0c:61:a8:67:d5:b0:f9:
                    f4:d4:89:2f:c7:19:bc:39:fa:03:61:ce:52:3d:f4:
                    6f:86:58:1d:e5:1f:46:49:6f:31:88:5b:0c:b1:1d:
                    2d:c9:84:e1:49:f0:01:58:e6:58:99:ef:fb:15:84:
                    22:b9:3e:ad:75:2c:ce:ba:95:18:ac:93:99:07:68:
                    08:f1:89:82:41:f4:16:da:80:30:d8:8b:01:36:c9:
                    59:17:64:a4:60:6d:9c:8e:e8:83:97:d9:47:f5:ba:
                    2a:63:79
                Exponent: 65537 (0x10001)
        X509v3 extensions:
            X509v3 Basic Constraints: 
                CA:FALSE
            Netscape Comment: 
                Easy-RSA Generated Certificate
            X509v3 Subject Key Identifier: 
                8A:3B:5F:92:78:09:9E:D5:C0:4C:FF:71:AE:91:B1:C9:16:D4:A9:59
            X509v3 Authority Key Identifier: 
                keyid:12:CD:60:04:D2:A0:80:9E:70:ED:C6:99:B8:7B:2C:C6:52:FD:19:A1
                DirName:/C=US/ST=OH/L=Columbus/O=VikingVPN/OU=MyOrganizationalUnit/CN=VikingVPN CA/name=EasyRSA/emailAddress=me@myhost.mydomain
                serial:CF:35:85:EE:80:BF:2A:3E

            X509v3 Extended Key Usage: 
                TLS Web Client Authentication
            X509v3 Key Usage: 
                Digital Signature
    Signature Algorithm: md5WithRSAEncryption
         75:a2:0e:cd:89:d5:a3:bb:d9:dd:f7:0b:e9:dc:36:c4:f2:c9:
         71:4c:b7:f4:94:76:e2:82:78:91:56:05:9b:20:8a:03:7f:86:
         f0:cf:5f:f3:84:ce:db:e1:65:6b:a7:4c:7c:e4:1f:17:b4:ad:
         34:44:0b:2a:ca:1f:a3:99:bd:48:eb:b5:72:3f:20:dd:43:a0:
         8f:cf:f3:95:32:e8:22:14:09:04:bc:f9:18:a3:74:28:47:9a:
         c6:81:9f:65:6d:f6:05:c6:1e:9c:90:a7:ef:62:45:e6:0d:9d:
         08:81:83:35:b4:18:5f:f0:6a:c7:9c:c3:66:54:5c:c1:d6:43:
         65:c0:f6:a9:e6:2c:f2:2d:5b:33:ed:a2:a6:9b:0d:5f:88:bb:
         cc:5f:dc:84:7a:57:e5:84:31:44:51:ba:7b:7c:6a:53:8c:6b:
         ac:e8:04:6b:31:8a:83:02:c1:a5:8f:c6:87:66:d3:09:03:c9:
         56:53:3c:83:20:c1:3c:ac:00:bc:cc:50:f7:d2:93:2b:66:e9:
         92:02:43:38:14:89:87:11:f4:26:30:59:e4:2e:12:2a:5e:81:
         13:d2:74:7b:b6:e0:17:ee:76:9d:48:d0:8b:e2:7b:6c:07:56:
         ab:ac:00:dd:f1:75:12:f3:30:76:8b:d1:d1:94:c9:f8:a3:57:
         10:e5:f5:ee:1b:00:6e:9c:1e:3e:57:8c:9d:a9:f1:52:ca:c3:
         75:86:78:9f:0a:40:fe:c4:b5:b6:a0:46:2c:9e:41:68:83:d1:
         52:d0:18:bc:f4:d1:c9:1a:32:6a:7b:3e:6f:4a:b6:c3:e9:70:
         e5:47:b2:e0:8d:23:a3:0b:b4:ab:b6:3a:c9:4d:cc:21:87:9b:
         b1:84:d0:42:63:8a:c2:a4:5e:44:4e:de:f3:5f:8b:87:c4:b2:
         b6:89:9b:d1:3e:6d:8f:d0:06:de:e6:9f:8f:00:c9:71:eb:35:
         2c:ab:d7:a5:95:6e:c1:53:b1:fe:55:c2:64:cc:10:b1:c1:ff:
         5f:be:d4:d3:4f:39:4d:eb:91:aa:2a:d5:3b:bd:2e:69:73:15:
         e2:5a:9a:4e:df:a6:e2:5d:a5:28:22:b8:c5:0f:a1:e5:8c:09:
         ac:67:2b:4e:cb:ce:cb:cf:22:73:2e:b4:b3:75:1c:75:0f:ba:
         30:cd:9e:d8:33:06:53:d1:d7:09:d1:66:52:df:24:89:07:31:
         d4:22:ca:1e:59:37:fc:64:e2:79:86:19:a7:0f:95:de:52:c8:
         c2:89:09:12:ed:3c:98:c8:21:e6:a5:16:aa:73:33:c8:f2:28:
         7f:3c:83:b6:ed:49:56:e6:f1:26:e5:98:02:1c:24:a0:0c:45:
         ef:dc:f2:4c:41:02:46:a7
-----BEGIN CERTIFICATE-----
MIIGrTCCBJWgAwIBAgICIIcwDQYJKoZIhvcNAQEEBQAwgawxCzAJBgNVBAYTAlVT
MQswCQYDVQQIEwJPSDERMA8GA1UEBxMIQ29sdW1idXMxEjAQBgNVBAoTCVZpa2lu
Z1ZQTjEdMBsGA1UECxMUTXlPcmdhbml6YXRpb25hbFVuaXQxFTATBgNVBAMTDFZp
a2luZ1ZQTiBDQTEQMA4GA1UEKRMHRWFzeVJTQTEhMB8GCSqGSIb3DQEJARYSbWVA
bXlob3N0Lm15ZG9tYWluMB4XDTE2MDYyMTAyMDcyM1oXDTI2MDYxOTAyMDcyM1ow
HzEdMBsGA1UEAxMUQ2xpZW50MTc1NUNlcnQ0ODRkYWIwggIiMA0GCSqGSIb3DQEB
AQUAA4ICDwAwggIKAoICAQDIoohzT1pKnQO+bdCZ4rkXlIaEu6ZYLGfks/UOKMmy
VeQN5PK9v8Ga0Sg+ekI/5H4Ti5XgJk8vaAUbEmsbP/cEPDzzUSose4rsDDaoWbfG
6kVwrtrXjJKXgkOm+3Jfd4LjqaKGXrJY4xUx8DquhzWh+lu3Xb/M0n455Rv9C+aE
kGyieHG9kVRXdTDdIPUqhCV26KFTGK3s6VYEjlnzn4ZRpZAVBfEiCn0qriezyTjE
tcbcmMgVzvQrBvOhc/yYoa/A7yMyo3HlTfiINB7lCEO5mnYLrD2kC/oOjMDnseSo
RUelwP9cD80SaKia9rDAUg4n+h7/PmfBS9IJantEaYxC5DyEPPFdyWziUznjkFu7
STebQX1yC37AAl/AmgndwL+zaP3PtDTGxdFU0+X+87xJM5/mG3gkOAEbRvO2+oDI
GaCf3a7PnOQDnR7rclUglh3opq2DkzALAfX/umRj//4G63y/47IkJwlJnGF8MYte
gXlW6DTZ4v5ayHNQy5tWNV2ksZwWTnTCXAQqFrX3qy4RA1hNTBJk/ijucNidDGGo
Z9Ww+fTUiS/HGbw5+gNhzlI99G+GWB3lH0ZJbzGIWwyxHS3JhOFJ8AFY5liZ7/sV
hCK5Pq11LM66lRisk5kHaAjxiYJB9BbagDDYiwE2yVkXZKRgbZyO6IOX2Uf1uipj
eQIDAQABo4IBYzCCAV8wCQYDVR0TBAIwADAtBglghkgBhvhCAQ0EIBYeRWFzeS1S
U0EgR2VuZXJhdGVkIENlcnRpZmljYXRlMB0GA1UdDgQWBBSKO1+SeAme1cBM/3Gu
kbHJFtSpWTCB4QYDVR0jBIHZMIHWgBQSzWAE0qCAnnDtxpm4eyzGUv0ZoaGBsqSB
rzCBrDELMAkGA1UEBhMCVVMxCzAJBgNVBAgTAk9IMREwDwYDVQQHEwhDb2x1bWJ1
czESMBAGA1UEChMJVmlraW5nVlBOMR0wGwYDVQQLExRNeU9yZ2FuaXphdGlvbmFs
VW5pdDEVMBMGA1UEAxMMVmlraW5nVlBOIENBMRAwDgYDVQQpEwdFYXN5UlNBMSEw
HwYJKoZIhvcNAQkBFhJtZUBteWhvc3QubXlkb21haW6CCQDPNYXugL8qPjATBgNV
HSUEDDAKBggrBgEFBQcDAjALBgNVHQ8EBAMCB4AwDQYJKoZIhvcNAQEEBQADggIB
AHWiDs2J1aO72d33C+ncNsTyyXFMt/SUduKCeJFWBZsgigN/hvDPX/OEztvhZWun
THzkHxe0rTRECyrKH6OZvUjrtXI/IN1DoI/P85Uy6CIUCQS8+RijdChHmsaBn2Vt
9gXGHpyQp+9iReYNnQiBgzW0GF/wasecw2ZUXMHWQ2XA9qnmLPItWzPtoqabDV+I
u8xf3IR6V+WEMURRunt8alOMa6zoBGsxioMCwaWPxodm0wkDyVZTPIMgwTysALzM
UPfSkytm6ZICQzgUiYcR9CYwWeQuEipegRPSdHu24Bfudp1I0Ivie2wHVqusAN3x
dRLzMHaL0dGUyfijVxDl9e4bAG6cHj5XjJ2p8VLKw3WGeJ8KQP7EtbagRiyeQWiD
0VLQGLz00ckaMmp7Pm9KtsPpcOVHsuCNI6MLtKu2OslNzCGHm7GE0EJjisKkXkRO
3vNfi4fEsraJm9E+bY/QBt7mn48AyXHrNSyr16WVbsFTsf5VwmTMELHB/1++1NNP
OU3rkaoq1Tu9LmlzFeJamk7fpuJdpSgiuMUPoeWMCaxnK07LzsvPInMutLN1HHUP
ujDNntgzBlPR1wnRZlLfJIkHMdQiyh5ZN/xk4nmGGacPld5SyMKJCRLtPJjIIeal
FqpzM8jyKH88g7btSVbm8SblmAIcJKAMRe/c8kxBAkan
-----END CERTIFICATE-----
