Certificate:
    Data:
        Version: 3 (0x2)
        Serial Number: 8343 (0x2097)
    Signature Algorithm: md5WithRSAEncryption
        Issuer: C=US, ST=OH, L=Columbus, O=VikingVPN, OU=MyOrganizationalUnit, CN=VikingVPN CA/name=EasyRSA/emailAddress=me@myhost.mydomain
        Validity
            Not Before: Jun 23 05:47:46 2016 GMT
            Not After : Jun 21 05:47:46 2026 GMT
        Subject: CN=Client671Cert13a1fe
        Subject Public Key Info:
            Public Key Algorithm: rsaEncryption
                Public-Key: (4096 bit)
                Modulus:
                    00:de:02:2f:1c:e2:a7:c5:e1:87:ce:b5:92:2c:42:
                    6f:94:62:5c:06:8a:a7:fa:94:34:05:7c:14:5f:94:
                    8a:55:34:07:a4:b8:f9:d3:e1:7c:05:43:89:4e:b2:
                    7f:40:85:9f:f8:e6:2d:70:0a:b3:33:aa:da:30:71:
                    1a:1b:1e:39:d0:a6:07:79:27:02:2b:da:d5:24:67:
                    3a:0b:03:aa:f6:4f:86:34:21:2b:f9:ce:1d:a7:01:
                    0e:ed:f9:f4:78:3b:05:03:9c:52:2a:ea:50:b8:67:
                    9b:a3:b1:18:27:22:e2:e6:d9:dd:02:61:24:23:9f:
                    04:ff:b1:96:ad:5e:c8:d4:7e:ae:51:58:0f:a3:71:
                    b4:5a:7b:0f:12:53:17:5a:49:fb:bf:eb:4d:67:5b:
                    ac:90:e2:99:04:b0:16:79:e3:65:8a:17:30:0f:a0:
                    1e:67:33:34:9e:95:1b:b6:e2:00:42:f8:c7:06:ff:
                    2f:54:9b:0a:5d:b4:56:2b:43:b9:8f:d3:3f:75:81:
                    4b:7b:d2:0f:fb:09:b5:19:3f:70:f0:e8:a6:1e:3b:
                    11:42:91:b8:9d:f5:53:28:13:28:f5:28:5f:38:79:
                    78:68:6c:ec:9e:eb:6f:af:f5:f6:12:f9:58:71:06:
                    60:96:c9:36:5b:cc:27:9a:bc:69:6b:2e:17:c6:99:
                    ad:27:c7:68:4b:fc:4e:94:59:d1:49:51:a8:34:f7:
                    75:27:93:11:38:41:1f:9a:59:ea:ca:11:b5:c3:4d:
                    42:05:cc:37:d0:e7:f8:0a:a2:9e:79:1b:f2:b6:d5:
                    9a:a2:65:09:c1:90:fd:83:34:5a:83:80:03:e9:0a:
                    79:a3:ac:4c:75:e4:bb:df:67:4b:8c:20:6c:b7:1e:
                    a9:d5:4e:52:45:39:0f:a9:e9:96:dc:00:91:f6:71:
                    e4:d4:80:69:f9:7e:83:5d:c2:3c:21:8e:5c:ff:47:
                    bd:15:50:51:22:f1:bb:5b:b6:b2:88:16:1e:41:ac:
                    66:cc:39:e8:b9:31:07:da:71:00:9e:69:ac:b8:f5:
                    77:d8:59:c7:e0:53:db:eb:d5:58:15:78:0c:b3:94:
                    82:7e:3b:7a:88:6d:33:4c:73:3b:df:ae:37:39:24:
                    94:b6:c6:cc:49:78:5a:ec:84:f7:da:f6:29:5c:9a:
                    83:74:e0:17:e9:83:7f:0a:13:fa:16:06:f2:26:74:
                    05:5e:94:3e:08:54:b0:5d:1d:e2:3c:dc:59:d1:59:
                    a6:26:d1:e6:58:ec:98:8e:9a:49:f5:3a:1e:f8:f1:
                    fd:32:1d:8b:4c:6e:42:3c:53:53:7c:59:a8:34:08:
                    59:30:83:f0:e8:46:b2:56:6f:30:4e:b4:c1:3e:d4:
                    d5:42:a1
                Exponent: 65537 (0x10001)
        X509v3 extensions:
            X509v3 Basic Constraints: 
                CA:FALSE
            Netscape Comment: 
                Easy-RSA Generated Certificate
            X509v3 Subject Key Identifier: 
                26:C0:79:D9:94:C3:01:B0:E9:0C:3B:A7:1A:19:A7:E2:EA:7D:B4:70
            X509v3 Authority Key Identifier: 
                keyid:12:CD:60:04:D2:A0:80:9E:70:ED:C6:99:B8:7B:2C:C6:52:FD:19:A1
                DirName:/C=US/ST=OH/L=Columbus/O=VikingVPN/OU=MyOrganizationalUnit/CN=VikingVPN CA/name=EasyRSA/emailAddress=me@myhost.mydomain
                serial:CF:35:85:EE:80:BF:2A:3E

            X509v3 Extended Key Usage: 
                TLS Web Client Authentication
            X509v3 Key Usage: 
                Digital Signature
    Signature Algorithm: md5WithRSAEncryption
         d8:4b:30:16:0f:ba:60:ed:61:17:2b:a7:34:b0:f2:9a:8d:f1:
         04:f8:d4:7c:52:89:ab:dc:25:7c:0d:ce:60:83:b0:ee:d4:ac:
         72:5e:cf:b6:c1:24:a4:b6:1c:5c:b4:ff:74:25:6d:a7:f5:29:
         1b:24:cb:ba:5e:39:4a:9c:45:ed:59:92:95:fb:fe:2a:91:50:
         56:40:0f:4a:60:92:77:c4:bd:79:b4:95:cc:71:9d:a1:a0:7b:
         ac:de:70:97:7a:92:a7:c6:eb:1b:d4:95:72:7e:a1:cf:36:75:
         b8:c7:c0:59:6a:8a:d6:d1:59:f7:3e:76:92:f5:17:5b:45:3a:
         c6:ef:f1:3c:df:31:23:3e:1e:83:cf:3d:87:fd:62:17:cd:b5:
         d7:80:90:d4:62:7d:36:10:dc:c7:6c:99:64:e3:cc:88:d2:5e:
         ed:5e:3f:33:f0:1c:5e:0e:50:97:a2:86:af:08:e6:58:b3:3b:
         26:16:9b:55:54:82:9f:b6:dc:ee:f3:1f:f6:3a:f6:cd:9a:5a:
         ab:47:c1:07:16:7d:cc:7d:57:8d:f6:39:1d:2f:2d:76:4b:6c:
         a5:4b:15:62:bf:71:c5:8e:f2:09:78:b5:5f:00:a9:63:45:7d:
         c0:58:f6:2f:27:36:3d:23:e9:0f:1e:ac:5f:8d:99:49:05:3d:
         3c:6a:da:ea:53:da:71:fa:a2:03:89:08:df:c4:a2:58:42:9a:
         50:b5:bc:dd:d6:f1:f2:38:81:64:cb:79:ec:d8:38:1a:66:70:
         b0:55:b9:77:ba:72:be:12:12:a1:b9:c2:4c:ea:61:6f:bf:14:
         56:78:cf:1c:c9:c7:17:27:ef:a0:b2:e7:71:74:c3:64:c8:37:
         48:9b:19:b7:5e:97:a1:98:a1:95:e8:93:b6:11:c4:b3:41:2a:
         34:d9:a7:33:07:b6:97:64:02:2a:cd:d0:1c:4c:03:94:19:c3:
         87:c8:06:a6:62:63:c9:6b:4c:f9:f0:e2:c7:87:de:40:bb:1f:
         10:86:ca:16:06:7a:ee:12:10:b3:fd:82:6e:5a:d7:7d:00:fd:
         75:1e:67:16:8b:24:d7:47:cf:26:11:a8:32:8d:af:8c:44:53:
         03:57:99:79:57:30:29:f2:4b:76:52:c3:fa:3a:85:29:f5:87:
         72:1a:e6:62:45:3b:ad:59:0e:ad:73:fb:e2:c2:77:a6:c8:86:
         ec:17:d6:7d:9d:0f:50:4d:19:6d:b3:fc:72:e4:0e:9e:2d:bb:
         6a:bc:46:cf:9a:93:ad:2a:1f:14:c3:c5:35:9e:c9:0c:83:fa:
         80:85:f9:36:6c:a5:58:c3:8e:76:dc:06:e8:f3:5c:85:ad:e4:
         8f:4e:ca:e1:22:a2:46:8a
-----BEGIN CERTIFICATE-----
MIIGrDCCBJSgAwIBAgICIJcwDQYJKoZIhvcNAQEEBQAwgawxCzAJBgNVBAYTAlVT
MQswCQYDVQQIEwJPSDERMA8GA1UEBxMIQ29sdW1idXMxEjAQBgNVBAoTCVZpa2lu
Z1ZQTjEdMBsGA1UECxMUTXlPcmdhbml6YXRpb25hbFVuaXQxFTATBgNVBAMTDFZp
a2luZ1ZQTiBDQTEQMA4GA1UEKRMHRWFzeVJTQTEhMB8GCSqGSIb3DQEJARYSbWVA
bXlob3N0Lm15ZG9tYWluMB4XDTE2MDYyMzA1NDc0NloXDTI2MDYyMTA1NDc0Nlow
HjEcMBoGA1UEAxMTQ2xpZW50NjcxQ2VydDEzYTFmZTCCAiIwDQYJKoZIhvcNAQEB
BQADggIPADCCAgoCggIBAN4CLxzip8Xhh861kixCb5RiXAaKp/qUNAV8FF+UilU0
B6S4+dPhfAVDiU6yf0CFn/jmLXAKszOq2jBxGhseOdCmB3knAiva1SRnOgsDqvZP
hjQhK/nOHacBDu359Hg7BQOcUirqULhnm6OxGCci4ubZ3QJhJCOfBP+xlq1eyNR+
rlFYD6NxtFp7DxJTF1pJ+7/rTWdbrJDimQSwFnnjZYoXMA+gHmczNJ6VG7biAEL4
xwb/L1SbCl20VitDuY/TP3WBS3vSD/sJtRk/cPDoph47EUKRuJ31UygTKPUoXzh5
eGhs7J7rb6/19hL5WHEGYJbJNlvMJ5q8aWsuF8aZrSfHaEv8TpRZ0UlRqDT3dSeT
EThBH5pZ6soRtcNNQgXMN9Dn+Aqinnkb8rbVmqJlCcGQ/YM0WoOAA+kKeaOsTHXk
u99nS4wgbLceqdVOUkU5D6npltwAkfZx5NSAafl+g13CPCGOXP9HvRVQUSLxu1u2
sogWHkGsZsw56LkxB9pxAJ5prLj1d9hZx+BT2+vVWBV4DLOUgn47eohtM0xzO9+u
NzkklLbGzEl4WuyE99r2KVyag3TgF+mDfwoT+hYG8iZ0BV6UPghUsF0d4jzcWdFZ
pibR5ljsmI6aSfU6Hvjx/TIdi0xuQjxTU3xZqDQIWTCD8OhGslZvME60wT7U1UKh
AgMBAAGjggFjMIIBXzAJBgNVHRMEAjAAMC0GCWCGSAGG+EIBDQQgFh5FYXN5LVJT
QSBHZW5lcmF0ZWQgQ2VydGlmaWNhdGUwHQYDVR0OBBYEFCbAedmUwwGw6Qw7pxoZ
p+LqfbRwMIHhBgNVHSMEgdkwgdaAFBLNYATSoICecO3Gmbh7LMZS/RmhoYGypIGv
MIGsMQswCQYDVQQGEwJVUzELMAkGA1UECBMCT0gxETAPBgNVBAcTCENvbHVtYnVz
MRIwEAYDVQQKEwlWaWtpbmdWUE4xHTAbBgNVBAsTFE15T3JnYW5pemF0aW9uYWxV
bml0MRUwEwYDVQQDEwxWaWtpbmdWUE4gQ0ExEDAOBgNVBCkTB0Vhc3lSU0ExITAf
BgkqhkiG9w0BCQEWEm1lQG15aG9zdC5teWRvbWFpboIJAM81he6Avyo+MBMGA1Ud
JQQMMAoGCCsGAQUFBwMCMAsGA1UdDwQEAwIHgDANBgkqhkiG9w0BAQQFAAOCAgEA
2EswFg+6YO1hFyunNLDymo3xBPjUfFKJq9wlfA3OYIOw7tSscl7PtsEkpLYcXLT/
dCVtp/UpGyTLul45SpxF7VmSlfv+KpFQVkAPSmCSd8S9ebSVzHGdoaB7rN5wl3qS
p8brG9SVcn6hzzZ1uMfAWWqK1tFZ9z52kvUXW0U6xu/xPN8xIz4eg889h/1iF821
14CQ1GJ9NhDcx2yZZOPMiNJe7V4/M/AcXg5Ql6KGrwjmWLM7JhabVVSCn7bc7vMf
9jr2zZpaq0fBBxZ9zH1XjfY5HS8tdktspUsVYr9xxY7yCXi1XwCpY0V9wFj2Lyc2
PSPpDx6sX42ZSQU9PGra6lPacfqiA4kI38SiWEKaULW83dbx8jiBZMt57Ng4GmZw
sFW5d7pyvhISobnCTOphb78UVnjPHMnHFyfvoLLncXTDZMg3SJsZt16XoZihleiT
thHEs0EqNNmnMwe2l2QCKs3QHEwDlBnDh8gGpmJjyWtM+fDix4feQLsfEIbKFgZ6
7hIQs/2CblrXfQD9dR5nFosk10fPJhGoMo2vjERTA1eZeVcwKfJLdlLD+jqFKfWH
chrmYkU7rVkOrXP74sJ3psiG7BfWfZ0PUE0ZbbP8cuQOni27arxGz5qTrSofFMPF
NZ7JDIP6gIX5NmylWMOOdtwG6PNcha3kj07K4SKiRoo=
-----END CERTIFICATE-----
