Certificate:
    Data:
        Version: 3 (0x2)
        Serial Number: 8369 (0x20b1)
    Signature Algorithm: md5WithRSAEncryption
        Issuer: C=US, ST=OH, L=Columbus, O=VikingVPN, OU=MyOrganizationalUnit, CN=VikingVPN CA/name=EasyRSA/emailAddress=me@myhost.mydomain
        Validity
            Not Before: Jun 26 17:20:14 2016 GMT
            Not After : Jun 24 17:20:14 2026 GMT
        Subject: CN=Client218Certbd539b
        Subject Public Key Info:
            Public Key Algorithm: rsaEncryption
                Public-Key: (4096 bit)
                Modulus:
                    00:d5:fb:59:ce:69:2f:f2:5e:7d:31:7b:3d:6e:cc:
                    02:be:e3:c3:f4:c8:97:fa:b3:21:15:e2:ce:fa:69:
                    f5:c4:30:f5:7e:1a:57:72:c1:ce:4f:c8:ca:94:91:
                    81:8b:23:3c:37:93:21:e4:14:17:b6:80:11:7e:e1:
                    9e:36:ac:3e:b8:3c:c1:13:d6:8d:93:18:df:00:22:
                    50:7d:9d:19:ac:9f:14:58:c5:f4:c2:86:d5:3c:d2:
                    50:85:36:c9:f5:86:17:cb:ed:11:3d:c2:91:37:bd:
                    cc:6f:00:ce:d9:e1:87:ff:7f:03:87:ca:9e:5a:69:
                    0e:ac:86:37:ef:f1:df:09:95:22:f6:e8:c0:79:e6:
                    55:93:bb:e9:bb:4a:fc:b8:0d:8d:98:78:9c:ae:4c:
                    5a:41:89:97:fd:17:d3:51:61:91:54:56:2c:02:71:
                    31:5d:45:79:c6:99:38:9c:1c:ac:1b:da:de:99:42:
                    f7:2b:b3:75:a6:76:97:14:3d:e1:76:70:0b:cb:22:
                    b1:ec:25:aa:61:c7:10:e5:9c:62:22:fd:ff:a5:01:
                    3f:18:97:dd:e6:13:f6:42:ee:5c:42:fd:b7:5f:32:
                    65:0f:26:5f:b8:3a:fe:05:1f:32:97:fd:2c:11:c9:
                    56:99:87:2d:7c:a5:07:a4:2b:69:48:dc:6a:62:b1:
                    59:64:87:ee:c8:2a:e1:3a:cb:6a:1f:47:16:15:5d:
                    a1:ad:32:ce:e0:4f:ef:f5:ac:4b:46:26:fb:26:13:
                    58:58:64:ff:f4:7e:43:0a:29:70:6f:32:e1:0b:0e:
                    fb:00:a8:b5:d8:e0:c1:bd:71:18:8c:75:4e:69:ab:
                    7c:74:c1:09:8e:28:69:22:1f:8e:87:96:8a:bd:65:
                    48:af:87:b1:01:10:be:cd:4b:99:4d:c7:38:8b:fe:
                    0b:ce:f4:2b:9e:44:b8:d2:d6:14:b9:c7:62:f3:8d:
                    57:bf:25:23:0c:85:bd:f9:71:e5:88:17:f8:ef:42:
                    76:a6:04:25:79:c4:1e:6f:11:fc:95:b8:54:af:9b:
                    ab:4b:13:2e:42:2c:91:f6:7e:3f:94:a0:63:64:87:
                    db:aa:65:67:c6:9e:39:30:23:15:7c:f3:e9:db:5e:
                    90:16:f6:69:81:f3:15:3c:d0:20:cc:aa:8b:2c:3f:
                    4f:5a:f3:37:e5:cb:b8:d1:c7:96:a8:51:d1:4b:0d:
                    62:7c:85:65:74:a8:2b:d7:2f:db:30:db:19:41:fe:
                    61:f9:a0:d6:02:b3:84:27:7d:02:a1:e6:ae:a7:eb:
                    1f:e0:7d:d1:69:6f:5e:e4:81:39:5f:13:b6:32:7c:
                    53:ba:b1:37:a8:fc:3e:1a:59:f8:49:bf:db:e4:bc:
                    2e:dd:91
                Exponent: 65537 (0x10001)
        X509v3 extensions:
            X509v3 Basic Constraints: 
                CA:FALSE
            Netscape Comment: 
                Easy-RSA Generated Certificate
            X509v3 Subject Key Identifier: 
                35:4D:BA:2C:88:46:18:B9:7C:CE:39:46:94:02:3A:B9:15:8C:83:E6
            X509v3 Authority Key Identifier: 
                keyid:12:CD:60:04:D2:A0:80:9E:70:ED:C6:99:B8:7B:2C:C6:52:FD:19:A1
                DirName:/C=US/ST=OH/L=Columbus/O=VikingVPN/OU=MyOrganizationalUnit/CN=VikingVPN CA/name=EasyRSA/emailAddress=me@myhost.mydomain
                serial:CF:35:85:EE:80:BF:2A:3E

            X509v3 Extended Key Usage: 
                TLS Web Client Authentication
            X509v3 Key Usage: 
                Digital Signature
    Signature Algorithm: md5WithRSAEncryption
         94:d2:e9:a5:b5:a7:fe:ae:36:53:20:b3:7c:15:e5:4f:36:e3:
         da:3d:c0:51:72:c7:60:cd:fa:d7:d8:b4:8f:3c:c5:ba:87:56:
         11:2c:99:d2:47:a5:22:cf:f3:fe:8e:ba:9a:cf:7b:3e:31:b3:
         68:71:f8:01:1d:ee:cc:bc:47:08:a2:d3:d9:95:43:c6:58:e3:
         01:94:69:eb:fa:9a:63:78:e3:ca:22:da:a2:32:73:97:73:ab:
         19:4f:37:7a:f4:53:6f:ec:45:10:ac:bb:05:62:22:94:e4:4f:
         33:99:68:54:4c:2b:89:c2:db:88:6f:57:5f:08:be:90:93:75:
         f8:21:7f:55:d1:61:6f:b3:dd:0a:e4:37:40:1a:2a:f6:ec:c1:
         15:72:a4:04:7c:c6:df:a6:b2:f3:94:d7:1a:09:c0:5f:8a:d8:
         e1:50:97:2a:0c:9a:3d:17:e2:8a:6b:cd:fe:76:58:73:65:07:
         3f:28:f8:ef:8a:39:6a:7f:f5:9b:5a:85:65:d4:82:21:7a:55:
         4c:0e:3c:39:f6:48:85:3f:69:68:c5:06:35:b1:0b:43:3b:95:
         f5:53:35:8a:1d:e7:9b:2f:79:2a:f5:52:db:b1:4f:08:11:60:
         a7:f2:4f:81:3b:e3:38:d2:92:7c:e9:3b:a8:b4:f3:4e:83:3b:
         ec:be:9c:f6:3d:79:10:ee:3d:d5:f2:28:bd:2d:4e:f2:f6:e1:
         50:5e:64:31:3d:61:2c:13:9d:9f:54:5b:33:e4:a2:6e:b9:35:
         76:47:b3:9e:c8:d4:f4:c3:8f:10:7c:ee:69:d4:a1:ff:e4:f4:
         03:88:4a:8f:b8:c4:cb:e7:e6:0b:04:e4:e0:73:56:aa:b5:52:
         4d:2d:92:7b:b6:df:d1:2a:bb:74:32:34:3d:04:24:21:80:2c:
         f9:ac:16:b1:72:f1:be:31:be:29:60:9e:18:ec:12:bb:aa:23:
         6b:0b:7a:5a:21:f8:4e:db:75:32:eb:be:84:d1:96:e5:ae:c9:
         48:1c:32:58:41:47:3d:fb:23:af:a1:ef:c5:3e:a5:e2:a7:93:
         e6:57:6f:06:d7:8e:5d:7d:43:da:f6:61:06:b6:ad:04:8c:a0:
         96:a6:c0:1a:8b:50:51:31:3d:8a:72:97:cb:2e:9d:e4:94:b3:
         0f:2f:70:0a:a9:7e:d4:4d:8d:bd:9d:f4:cd:8b:fd:3d:b5:a6:
         bb:b5:83:91:12:ab:d6:a8:34:7e:2f:08:4e:3f:e0:4d:4c:77:
         e5:b7:6e:6b:1a:02:20:0d:a4:9a:dd:b8:4e:cf:a8:3a:ed:7c:
         55:dc:7c:ca:d7:13:4d:28:b8:1e:0d:15:69:8c:42:24:5e:25:
         a4:65:18:49:f4:3c:b5:76
-----BEGIN CERTIFICATE-----
MIIGrDCCBJSgAwIBAgICILEwDQYJKoZIhvcNAQEEBQAwgawxCzAJBgNVBAYTAlVT
MQswCQYDVQQIEwJPSDERMA8GA1UEBxMIQ29sdW1idXMxEjAQBgNVBAoTCVZpa2lu
Z1ZQTjEdMBsGA1UECxMUTXlPcmdhbml6YXRpb25hbFVuaXQxFTATBgNVBAMTDFZp
a2luZ1ZQTiBDQTEQMA4GA1UEKRMHRWFzeVJTQTEhMB8GCSqGSIb3DQEJARYSbWVA
bXlob3N0Lm15ZG9tYWluMB4XDTE2MDYyNjE3MjAxNFoXDTI2MDYyNDE3MjAxNFow
HjEcMBoGA1UEAxMTQ2xpZW50MjE4Q2VydGJkNTM5YjCCAiIwDQYJKoZIhvcNAQEB
BQADggIPADCCAgoCggIBANX7Wc5pL/JefTF7PW7MAr7jw/TIl/qzIRXizvpp9cQw
9X4aV3LBzk/IypSRgYsjPDeTIeQUF7aAEX7hnjasPrg8wRPWjZMY3wAiUH2dGayf
FFjF9MKG1TzSUIU2yfWGF8vtET3CkTe9zG8Aztnhh/9/A4fKnlppDqyGN+/x3wmV
IvbowHnmVZO76btK/LgNjZh4nK5MWkGJl/0X01FhkVRWLAJxMV1FecaZOJwcrBva
3plC9yuzdaZ2lxQ94XZwC8sisewlqmHHEOWcYiL9/6UBPxiX3eYT9kLuXEL9t18y
ZQ8mX7g6/gUfMpf9LBHJVpmHLXylB6QraUjcamKxWWSH7sgq4TrLah9HFhVdoa0y
zuBP7/WsS0Ym+yYTWFhk//R+QwopcG8y4QsO+wCotdjgwb1xGIx1TmmrfHTBCY4o
aSIfjoeWir1lSK+HsQEQvs1LmU3HOIv+C870K55EuNLWFLnHYvONV78lIwyFvflx
5YgX+O9CdqYEJXnEHm8R/JW4VK+bq0sTLkIskfZ+P5SgY2SH26plZ8aeOTAjFXzz
6dtekBb2aYHzFTzQIMyqiyw/T1rzN+XLuNHHlqhR0UsNYnyFZXSoK9cv2zDbGUH+
Yfmg1gKzhCd9AqHmrqfrH+B90WlvXuSBOV8TtjJ8U7qxN6j8PhpZ+Em/2+S8Lt2R
AgMBAAGjggFjMIIBXzAJBgNVHRMEAjAAMC0GCWCGSAGG+EIBDQQgFh5FYXN5LVJT
QSBHZW5lcmF0ZWQgQ2VydGlmaWNhdGUwHQYDVR0OBBYEFDVNuiyIRhi5fM45RpQC
OrkVjIPmMIHhBgNVHSMEgdkwgdaAFBLNYATSoICecO3Gmbh7LMZS/RmhoYGypIGv
MIGsMQswCQYDVQQGEwJVUzELMAkGA1UECBMCT0gxETAPBgNVBAcTCENvbHVtYnVz
MRIwEAYDVQQKEwlWaWtpbmdWUE4xHTAbBgNVBAsTFE15T3JnYW5pemF0aW9uYWxV
bml0MRUwEwYDVQQDEwxWaWtpbmdWUE4gQ0ExEDAOBgNVBCkTB0Vhc3lSU0ExITAf
BgkqhkiG9w0BCQEWEm1lQG15aG9zdC5teWRvbWFpboIJAM81he6Avyo+MBMGA1Ud
JQQMMAoGCCsGAQUFBwMCMAsGA1UdDwQEAwIHgDANBgkqhkiG9w0BAQQFAAOCAgEA
lNLppbWn/q42UyCzfBXlTzbj2j3AUXLHYM3619i0jzzFuodWESyZ0kelIs/z/o66
ms97PjGzaHH4AR3uzLxHCKLT2ZVDxljjAZRp6/qaY3jjyiLaojJzl3OrGU83evRT
b+xFEKy7BWIilORPM5loVEwricLbiG9XXwi+kJN1+CF/VdFhb7PdCuQ3QBoq9uzB
FXKkBHzG36ay85TXGgnAX4rY4VCXKgyaPRfiimvN/nZYc2UHPyj474o5an/1m1qF
ZdSCIXpVTA48OfZIhT9paMUGNbELQzuV9VM1ih3nmy95KvVS27FPCBFgp/JPgTvj
ONKSfOk7qLTzToM77L6c9j15EO491fIovS1O8vbhUF5kMT1hLBOdn1RbM+Sibrk1
dkeznsjU9MOPEHzuadSh/+T0A4hKj7jEy+fmCwTk4HNWqrVSTS2Se7bf0Sq7dDI0
PQQkIYAs+awWsXLxvjG+KWCeGOwSu6ojawt6WiH4Ttt1Muu+hNGW5a7JSBwyWEFH
Pfsjr6HvxT6l4qeT5ldvBteOXX1D2vZhBratBIyglqbAGotQUTE9inKXyy6d5JSz
Dy9wCql+1E2NvZ30zYv9PbWmu7WDkRKr1qg0fi8ITj/gTUx35bduaxoCIA2kmt24
Ts+oOu18Vdx8ytcTTSi4Hg0VaYxCJF4lpGUYSfQ8tXY=
-----END CERTIFICATE-----
