Certificate:
    Data:
        Version: 3 (0x2)
        Serial Number: 8394 (0x20ca)
    Signature Algorithm: md5WithRSAEncryption
        Issuer: C=US, ST=OH, L=Columbus, O=VikingVPN, OU=MyOrganizationalUnit, CN=VikingVPN CA/name=EasyRSA/emailAddress=me@myhost.mydomain
        Validity
            Not Before: Jul  2 04:37:06 2016 GMT
            Not After : Jun 30 04:37:06 2026 GMT
        Subject: CN=Client2378Cert1a4df8
        Subject Public Key Info:
            Public Key Algorithm: rsaEncryption
                Public-Key: (4096 bit)
                Modulus:
                    00:bd:e9:48:06:d3:ec:48:25:4d:38:8e:0d:a7:c0:
                    ae:df:5b:88:36:47:7b:33:3e:c4:a9:5b:f8:f1:1d:
                    a4:08:a3:7b:de:81:37:94:78:23:b9:b6:d3:33:8e:
                    dd:35:45:07:6f:d7:cb:88:5e:50:d6:a2:f5:5b:ba:
                    70:0d:16:b7:09:c5:e1:9c:fc:13:ec:c4:82:f6:eb:
                    d8:7e:5b:d4:94:fd:18:76:a0:43:2d:3b:60:cc:b2:
                    ba:a0:08:08:d7:4d:18:37:56:e1:b2:0d:ab:80:76:
                    2b:8e:37:9f:78:4b:6a:20:42:30:7e:11:97:06:5a:
                    bc:01:b8:3e:a7:3a:59:b0:47:34:e1:b7:db:fc:30:
                    1a:a3:58:b4:69:c5:f4:72:b2:fc:09:86:d5:cb:e7:
                    58:f2:20:aa:6c:63:cf:a5:8b:bd:2b:b5:50:2c:ef:
                    ff:90:ce:aa:62:58:31:d5:95:27:78:5b:18:85:ec:
                    36:f1:42:2b:86:fa:90:ed:c6:65:6f:4a:cf:12:79:
                    d6:34:8f:b1:d2:07:ae:ff:8e:89:33:41:46:65:64:
                    0f:5b:04:f0:2a:8e:fb:89:c8:13:9e:e6:ed:da:84:
                    bb:27:b4:8f:28:79:83:53:37:91:73:20:e5:6c:a1:
                    2a:e9:84:76:03:9c:15:b9:02:d6:9a:29:59:c6:ff:
                    1b:3e:c1:fb:37:20:13:6f:16:e3:29:4c:31:93:d3:
                    9d:47:e4:da:8b:55:86:9c:ef:f3:98:bb:a2:47:ba:
                    1f:b4:dc:1a:e9:f1:8c:f4:92:e0:18:b5:56:c1:71:
                    0e:e8:b4:0a:91:60:66:f1:17:94:8e:35:a7:01:39:
                    12:48:71:0a:e8:cc:e0:3a:61:63:32:73:2d:ca:55:
                    97:2f:e4:72:62:cb:db:f0:76:b5:3b:32:37:b0:c2:
                    c5:f3:b9:8a:3e:c0:b0:98:a8:b8:ae:1d:be:70:87:
                    2a:27:f2:d7:70:34:ae:b9:3d:d9:8a:8d:ba:af:6a:
                    e1:4f:2f:76:6e:14:3e:52:d6:1c:ab:93:5e:1e:2d:
                    bb:99:4e:e5:e4:6a:e6:a9:80:38:8a:fc:b4:d1:22:
                    39:62:dd:68:c2:d4:4d:15:c1:c5:1f:52:64:5d:b3:
                    d2:36:5d:ab:5a:73:5b:55:f5:28:14:73:ee:69:78:
                    2d:d5:5d:fb:ba:57:d2:7b:75:0c:22:5d:2e:fd:b5:
                    98:00:3a:21:35:e3:22:ac:56:f6:4f:d7:b0:45:22:
                    da:01:5b:8d:5f:cd:97:42:11:82:c7:16:f1:d2:aa:
                    40:f5:54:ee:e4:f7:92:52:dd:24:14:73:6d:2b:d5:
                    95:0a:cb:c0:d0:ab:26:a8:82:ce:af:1b:be:80:a5:
                    75:28:27
                Exponent: 65537 (0x10001)
        X509v3 extensions:
            X509v3 Basic Constraints: 
                CA:FALSE
            Netscape Comment: 
                Easy-RSA Generated Certificate
            X509v3 Subject Key Identifier: 
                60:22:11:0D:84:55:35:BA:CD:AF:8A:22:10:8B:82:74:2E:67:66:FE
            X509v3 Authority Key Identifier: 
                keyid:12:CD:60:04:D2:A0:80:9E:70:ED:C6:99:B8:7B:2C:C6:52:FD:19:A1
                DirName:/C=US/ST=OH/L=Columbus/O=VikingVPN/OU=MyOrganizationalUnit/CN=VikingVPN CA/name=EasyRSA/emailAddress=me@myhost.mydomain
                serial:CF:35:85:EE:80:BF:2A:3E

            X509v3 Extended Key Usage: 
                TLS Web Client Authentication
            X509v3 Key Usage: 
                Digital Signature
    Signature Algorithm: md5WithRSAEncryption
         24:19:67:57:0f:39:0f:d6:cc:d4:ac:ba:d1:4f:93:55:19:8a:
         fe:ee:b0:65:4d:09:6e:33:09:bf:48:44:76:47:32:3c:b0:69:
         0a:69:04:13:5b:e0:05:c4:e8:bd:87:e9:b4:5b:d9:81:54:00:
         75:ef:8c:71:e3:94:e0:00:87:2a:d6:4d:39:23:bf:b5:25:fe:
         36:6e:a6:66:40:29:ef:2f:44:5b:32:1c:65:0c:bb:3b:88:f2:
         0e:92:47:1b:ce:49:8d:6a:9c:62:38:7b:96:15:ea:5f:75:b7:
         fd:94:62:08:14:18:c6:47:3b:09:01:14:8c:bc:83:34:c9:30:
         40:c9:07:32:f4:ec:bc:57:4a:dd:6e:d5:a5:31:13:cb:f6:d3:
         7f:50:ab:56:dd:7b:80:d9:e7:ee:ee:1d:85:29:8d:00:02:9a:
         db:c8:dd:e1:62:bf:d1:c5:b8:be:5c:92:ba:48:c3:e5:63:67:
         42:d8:ed:67:98:5d:08:1f:92:5d:a1:22:a3:f6:e8:d1:e1:2e:
         c0:38:2a:ff:73:77:72:ea:79:f7:63:b4:b8:12:9d:1a:8e:01:
         b9:7e:35:1f:cf:e4:56:18:73:e7:ee:49:c8:51:33:21:6d:61:
         46:ea:e0:51:f0:5e:01:76:a6:5a:fb:21:e0:e1:f6:6d:bb:08:
         6b:d0:59:3e:58:34:db:9a:4f:83:b8:a4:a2:6a:f2:a2:0f:f1:
         a1:a8:cd:bb:d2:df:8b:42:c5:46:b4:78:ee:5a:86:17:fe:84:
         a4:83:71:ef:1c:70:fc:f0:90:cf:a2:c8:e5:3d:62:a6:d9:62:
         8e:cb:89:81:17:f8:8f:cd:8d:db:6e:34:ba:72:2d:52:27:f5:
         61:3c:9a:92:62:d8:55:8f:66:ed:47:9f:65:37:7c:cd:6a:b4:
         b9:b8:a3:ce:99:f0:3e:3b:55:d0:3d:b7:fc:53:cc:e3:a2:c3:
         48:84:21:06:95:ce:b2:1c:f7:1b:b8:a1:df:f5:b3:dc:fa:f7:
         7b:80:48:bb:4f:68:e6:78:84:17:42:b4:84:23:c5:a3:94:69:
         e9:37:47:9e:b1:2a:88:14:eb:ef:aa:de:fb:3f:b3:f5:da:d5:
         9d:19:ae:57:03:21:02:ef:94:74:ad:fc:8f:0a:57:85:eb:f7:
         85:19:2e:97:1e:4f:50:89:63:c7:ef:b4:81:67:0b:59:09:81:
         8f:a4:22:71:f0:23:ed:f7:77:7c:e1:4a:f8:32:f5:e0:e9:42:
         24:fd:bf:e1:74:25:c3:a7:41:1d:e1:86:1f:f0:31:34:d4:11:
         b6:ce:eb:66:5c:70:88:f3:77:6e:6e:1d:48:eb:fe:a2:f0:bb:
         c5:5c:44:f1:e1:3d:5b:ff
-----BEGIN CERTIFICATE-----
MIIGrTCCBJWgAwIBAgICIMowDQYJKoZIhvcNAQEEBQAwgawxCzAJBgNVBAYTAlVT
MQswCQYDVQQIEwJPSDERMA8GA1UEBxMIQ29sdW1idXMxEjAQBgNVBAoTCVZpa2lu
Z1ZQTjEdMBsGA1UECxMUTXlPcmdhbml6YXRpb25hbFVuaXQxFTATBgNVBAMTDFZp
a2luZ1ZQTiBDQTEQMA4GA1UEKRMHRWFzeVJTQTEhMB8GCSqGSIb3DQEJARYSbWVA
bXlob3N0Lm15ZG9tYWluMB4XDTE2MDcwMjA0MzcwNloXDTI2MDYzMDA0MzcwNlow
HzEdMBsGA1UEAxMUQ2xpZW50MjM3OENlcnQxYTRkZjgwggIiMA0GCSqGSIb3DQEB
AQUAA4ICDwAwggIKAoICAQC96UgG0+xIJU04jg2nwK7fW4g2R3szPsSpW/jxHaQI
o3vegTeUeCO5ttMzjt01RQdv18uIXlDWovVbunANFrcJxeGc/BPsxIL269h+W9SU
/Rh2oEMtO2DMsrqgCAjXTRg3VuGyDauAdiuON594S2ogQjB+EZcGWrwBuD6nOlmw
RzTht9v8MBqjWLRpxfRysvwJhtXL51jyIKpsY8+li70rtVAs7/+QzqpiWDHVlSd4
WxiF7DbxQiuG+pDtxmVvSs8SedY0j7HSB67/jokzQUZlZA9bBPAqjvuJyBOe5u3a
hLsntI8oeYNTN5FzIOVsoSrphHYDnBW5AtaaKVnG/xs+wfs3IBNvFuMpTDGT051H
5NqLVYac7/OYu6JHuh+03Brp8Yz0kuAYtVbBcQ7otAqRYGbxF5SONacBORJIcQro
zOA6YWMycy3KVZcv5HJiy9vwdrU7MjewwsXzuYo+wLCYqLiuHb5whyon8tdwNK65
PdmKjbqvauFPL3ZuFD5S1hyrk14eLbuZTuXkauapgDiK/LTRIjli3WjC1E0VwcUf
UmRds9I2Xatac1tV9SgUc+5peC3VXfu6V9J7dQwiXS79tZgAOiE14yKsVvZP17BF
ItoBW41fzZdCEYLHFvHSqkD1VO7k95JS3SQUc20r1ZUKy8DQqyaogs6vG76ApXUo
JwIDAQABo4IBYzCCAV8wCQYDVR0TBAIwADAtBglghkgBhvhCAQ0EIBYeRWFzeS1S
U0EgR2VuZXJhdGVkIENlcnRpZmljYXRlMB0GA1UdDgQWBBRgIhENhFU1us2viiIQ
i4J0Lmdm/jCB4QYDVR0jBIHZMIHWgBQSzWAE0qCAnnDtxpm4eyzGUv0ZoaGBsqSB
rzCBrDELMAkGA1UEBhMCVVMxCzAJBgNVBAgTAk9IMREwDwYDVQQHEwhDb2x1bWJ1
czESMBAGA1UEChMJVmlraW5nVlBOMR0wGwYDVQQLExRNeU9yZ2FuaXphdGlvbmFs
VW5pdDEVMBMGA1UEAxMMVmlraW5nVlBOIENBMRAwDgYDVQQpEwdFYXN5UlNBMSEw
HwYJKoZIhvcNAQkBFhJtZUBteWhvc3QubXlkb21haW6CCQDPNYXugL8qPjATBgNV
HSUEDDAKBggrBgEFBQcDAjALBgNVHQ8EBAMCB4AwDQYJKoZIhvcNAQEEBQADggIB
ACQZZ1cPOQ/WzNSsutFPk1UZiv7usGVNCW4zCb9IRHZHMjywaQppBBNb4AXE6L2H
6bRb2YFUAHXvjHHjlOAAhyrWTTkjv7Ul/jZupmZAKe8vRFsyHGUMuzuI8g6SRxvO
SY1qnGI4e5YV6l91t/2UYggUGMZHOwkBFIy8gzTJMEDJBzL07LxXSt1u1aUxE8v2
039Qq1bde4DZ5+7uHYUpjQACmtvI3eFiv9HFuL5ckrpIw+VjZ0LY7WeYXQgfkl2h
IqP26NHhLsA4Kv9zd3LqefdjtLgSnRqOAbl+NR/P5FYYc+fuSchRMyFtYUbq4FHw
XgF2plr7IeDh9m27CGvQWT5YNNuaT4O4pKJq8qIP8aGozbvS34tCxUa0eO5ahhf+
hKSDce8ccPzwkM+iyOU9YqbZYo7LiYEX+I/NjdtuNLpyLVIn9WE8mpJi2FWPZu1H
n2U3fM1qtLm4o86Z8D47VdA9t/xTzOOiw0iEIQaVzrIc9xu4od/1s9z693uASLtP
aOZ4hBdCtIQjxaOUaek3R56xKogU6++q3vs/s/Xa1Z0ZrlcDIQLvlHSt/I8KV4Xr
94UZLpceT1CJY8fvtIFnC1kJgY+kInHwI+33d3zhSvgy9eDpQiT9v+F0JcOnQR3h
hh/wMTTUEbbO62ZccIjzd25uHUjr/qLwu8VcRPHhPVv/
-----END CERTIFICATE-----
