Certificate:
    Data:
        Version: 3 (0x2)
        Serial Number: 8402 (0x20d2)
    Signature Algorithm: md5WithRSAEncryption
        Issuer: C=US, ST=OH, L=Columbus, O=VikingVPN, OU=MyOrganizationalUnit, CN=VikingVPN CA/name=EasyRSA/emailAddress=me@myhost.mydomain
        Validity
            Not Before: Jul  2 08:22:49 2016 GMT
            Not After : Jun 30 08:22:49 2026 GMT
        Subject: CN=Client1369Cert76a5a7
        Subject Public Key Info:
            Public Key Algorithm: rsaEncryption
                Public-Key: (4096 bit)
                Modulus:
                    00:e8:8e:3d:08:90:bb:c6:ec:5d:ab:b6:76:c7:51:
                    4f:c7:14:d1:22:88:14:ff:ad:5f:e1:d9:3b:48:73:
                    fe:41:a2:08:6a:3e:04:7b:92:59:e2:30:dd:af:9d:
                    34:82:a6:32:2e:95:74:e8:4b:5e:f6:63:41:00:01:
                    bf:5f:a5:ec:57:d1:9a:e1:66:e2:6e:af:f3:cc:0c:
                    07:70:03:44:36:19:78:3f:33:5a:ff:cf:ab:d6:cb:
                    33:b2:ae:37:3a:97:09:59:3d:b5:80:30:8f:3c:c9:
                    f5:5e:1a:59:b7:3f:1a:87:cc:a0:8d:9d:76:2f:9b:
                    65:5a:69:6a:d3:d1:d5:86:90:8b:03:93:21:e3:c8:
                    cf:2c:29:f9:14:7d:a7:c9:37:0a:c3:b5:2e:73:88:
                    cf:96:d4:d4:42:e5:00:74:74:c6:59:b1:ae:52:ca:
                    c5:dd:c3:05:d3:4f:01:c8:e5:8a:5c:27:93:e7:a0:
                    69:3b:c7:f7:fc:1e:8d:43:33:0b:3f:e5:c2:56:b0:
                    67:78:02:e3:40:76:98:0a:47:aa:68:c4:11:84:b8:
                    ed:20:b6:f7:4f:e4:0f:4b:97:70:51:30:29:af:ce:
                    21:d0:30:66:b6:f1:c5:e1:20:31:c8:d0:e0:ab:a5:
                    b3:12:cb:59:16:19:9c:12:c2:96:13:9c:08:38:e9:
                    0e:dd:99:64:23:2e:ce:10:77:24:ad:6b:6e:dd:fe:
                    f1:d3:57:af:f4:af:df:7a:28:36:a2:77:8d:23:7b:
                    56:a8:ad:66:c8:5a:45:e6:e1:7e:64:a8:f6:ce:b8:
                    fd:5f:40:5c:e3:4b:8a:38:04:4a:6b:f0:0b:8d:4e:
                    a3:62:16:57:66:9c:19:ac:b4:c6:2c:82:19:e1:0c:
                    0d:14:b2:28:fb:c4:ca:04:4a:e5:3e:4a:82:f2:33:
                    48:26:57:1e:99:b7:b2:bd:c7:17:12:aa:ec:3f:8a:
                    79:07:9d:13:38:e3:ed:80:77:b2:50:53:de:57:bf:
                    a9:ea:64:29:b4:99:2d:5a:57:68:f0:72:8f:73:e0:
                    d6:e0:2f:5b:85:39:58:1d:df:16:56:c7:22:1e:d7:
                    e0:53:68:64:fb:ca:99:a8:b0:56:88:d2:dd:b4:3b:
                    f3:da:98:25:2b:78:16:ef:4d:2e:99:d6:8f:f7:f3:
                    f1:70:0a:f2:09:40:93:04:fb:7c:38:af:d1:17:d6:
                    62:f5:e9:da:90:3f:4d:d5:62:ee:bc:53:3d:89:44:
                    54:ef:82:c3:37:1a:be:87:ef:22:a8:52:96:93:65:
                    70:3b:42:32:ae:a5:fa:64:e2:ca:50:2c:c0:66:52:
                    16:ce:45:82:dc:f0:97:c0:2a:ec:4e:84:41:80:61:
                    70:bf:31
                Exponent: 65537 (0x10001)
        X509v3 extensions:
            X509v3 Basic Constraints: 
                CA:FALSE
            Netscape Comment: 
                Easy-RSA Generated Certificate
            X509v3 Subject Key Identifier: 
                4A:8F:B7:66:46:CB:3E:EC:73:0F:E0:E7:25:0C:5C:D2:86:73:1E:F8
            X509v3 Authority Key Identifier: 
                keyid:12:CD:60:04:D2:A0:80:9E:70:ED:C6:99:B8:7B:2C:C6:52:FD:19:A1
                DirName:/C=US/ST=OH/L=Columbus/O=VikingVPN/OU=MyOrganizationalUnit/CN=VikingVPN CA/name=EasyRSA/emailAddress=me@myhost.mydomain
                serial:CF:35:85:EE:80:BF:2A:3E

            X509v3 Extended Key Usage: 
                TLS Web Client Authentication
            X509v3 Key Usage: 
                Digital Signature
    Signature Algorithm: md5WithRSAEncryption
         7d:77:81:9f:0d:c1:bd:45:46:6a:62:81:7b:a8:63:17:3e:a9:
         8d:b8:a9:f6:35:f9:f3:d5:d0:43:cd:f2:60:c9:8c:2b:78:05:
         ad:d3:e7:09:62:cd:49:3b:52:10:c4:09:d6:e6:f2:4b:cb:bc:
         2d:20:a9:bd:83:84:fd:1a:98:6e:93:26:7a:6b:0f:b8:97:dd:
         61:bf:99:d0:2e:e9:0e:7e:d3:1d:fa:42:8b:b5:c7:42:0d:50:
         30:2d:5b:d4:35:a0:b8:c8:66:a9:c9:7d:73:a3:97:dc:56:85:
         0a:3a:d0:cc:ee:5b:29:85:e4:18:27:f0:bf:a9:d8:ef:e3:69:
         ec:e6:82:37:c6:6d:a0:89:50:ae:fa:4a:97:d9:64:9e:b2:d5:
         5a:a3:cf:57:e7:bf:a1:62:77:44:08:5e:6f:17:3f:8e:87:9a:
         bd:48:5f:79:f7:a4:38:82:c3:b5:4b:67:35:2c:ba:de:e8:97:
         47:2a:ac:80:f9:37:7f:a9:87:31:36:76:b4:d4:76:b5:54:a4:
         f7:c7:ef:57:2c:4c:cd:3d:8c:df:64:03:40:81:f6:15:7c:a8:
         e4:e9:39:52:75:64:af:ae:76:2c:e4:71:e6:0e:e2:ba:f1:e9:
         f5:99:8f:f7:5b:d3:99:8d:9b:9f:6f:8d:8b:76:c2:db:7f:9d:
         89:aa:a6:7e:e1:61:a8:1c:39:99:26:68:95:d7:49:29:64:8b:
         41:97:e2:e0:19:84:74:bd:49:c6:de:73:59:48:1d:9e:10:6d:
         62:bb:58:02:cc:29:58:6d:1f:45:ca:52:a0:03:66:fd:0e:fa:
         ac:ae:a6:1e:fa:1a:9c:b7:af:51:80:24:88:c6:84:77:c5:cb:
         ce:a7:3a:1e:8c:90:07:6d:23:eb:d9:8d:7f:5f:38:cb:25:b8:
         ef:97:c2:2f:a5:a2:a6:d6:88:f4:83:00:87:ad:6f:1b:f4:21:
         62:08:89:4c:73:56:65:88:ee:01:92:91:ae:6c:98:ac:af:d1:
         09:b9:e8:d9:4e:87:06:09:ca:c8:c0:ca:9a:9f:8f:c3:e7:20:
         f2:ae:76:d7:c2:1b:44:3e:b9:d4:c1:aa:d7:12:f8:35:37:e3:
         51:54:00:c7:b4:4e:d3:b6:14:54:64:89:f2:bb:81:c9:c9:7e:
         72:cf:fc:85:1a:48:fa:43:d4:e7:a1:84:15:7b:8a:52:24:9b:
         86:72:71:67:75:d1:4e:e0:01:4c:76:3b:cf:11:4d:14:41:1c:
         51:4f:8f:f5:1b:4f:66:d4:f6:a0:0f:29:41:8b:73:61:27:df:
         10:0b:9f:15:27:1e:13:55:0f:65:cb:54:65:17:25:e5:99:3e:
         83:b4:17:c2:a5:8c:57:8e
-----BEGIN CERTIFICATE-----
MIIGrTCCBJWgAwIBAgICINIwDQYJKoZIhvcNAQEEBQAwgawxCzAJBgNVBAYTAlVT
MQswCQYDVQQIEwJPSDERMA8GA1UEBxMIQ29sdW1idXMxEjAQBgNVBAoTCVZpa2lu
Z1ZQTjEdMBsGA1UECxMUTXlPcmdhbml6YXRpb25hbFVuaXQxFTATBgNVBAMTDFZp
a2luZ1ZQTiBDQTEQMA4GA1UEKRMHRWFzeVJTQTEhMB8GCSqGSIb3DQEJARYSbWVA
bXlob3N0Lm15ZG9tYWluMB4XDTE2MDcwMjA4MjI0OVoXDTI2MDYzMDA4MjI0OVow
HzEdMBsGA1UEAxMUQ2xpZW50MTM2OUNlcnQ3NmE1YTcwggIiMA0GCSqGSIb3DQEB
AQUAA4ICDwAwggIKAoICAQDojj0IkLvG7F2rtnbHUU/HFNEiiBT/rV/h2TtIc/5B
oghqPgR7klniMN2vnTSCpjIulXToS172Y0EAAb9fpexX0ZrhZuJur/PMDAdwA0Q2
GXg/M1r/z6vWyzOyrjc6lwlZPbWAMI88yfVeGlm3PxqHzKCNnXYvm2VaaWrT0dWG
kIsDkyHjyM8sKfkUfafJNwrDtS5ziM+W1NRC5QB0dMZZsa5SysXdwwXTTwHI5Ypc
J5PnoGk7x/f8Ho1DMws/5cJWsGd4AuNAdpgKR6poxBGEuO0gtvdP5A9Ll3BRMCmv
ziHQMGa28cXhIDHI0OCrpbMSy1kWGZwSwpYTnAg46Q7dmWQjLs4QdySta27d/vHT
V6/0r996KDaid40je1aorWbIWkXm4X5kqPbOuP1fQFzjS4o4BEpr8AuNTqNiFldm
nBmstMYsghnhDA0Usij7xMoESuU+SoLyM0gmVx6Zt7K9xxcSquw/inkHnRM44+2A
d7JQU95Xv6nqZCm0mS1aV2jwco9z4NbgL1uFOVgd3xZWxyIe1+BTaGT7ypmosFaI
0t20O/PamCUreBbvTS6Z1o/38/FwCvIJQJME+3w4r9EX1mL16dqQP03VYu68Uz2J
RFTvgsM3Gr6H7yKoUpaTZXA7QjKupfpk4spQLMBmUhbORYLc8JfAKuxOhEGAYXC/
MQIDAQABo4IBYzCCAV8wCQYDVR0TBAIwADAtBglghkgBhvhCAQ0EIBYeRWFzeS1S
U0EgR2VuZXJhdGVkIENlcnRpZmljYXRlMB0GA1UdDgQWBBRKj7dmRss+7HMP4Ocl
DFzShnMe+DCB4QYDVR0jBIHZMIHWgBQSzWAE0qCAnnDtxpm4eyzGUv0ZoaGBsqSB
rzCBrDELMAkGA1UEBhMCVVMxCzAJBgNVBAgTAk9IMREwDwYDVQQHEwhDb2x1bWJ1
czESMBAGA1UEChMJVmlraW5nVlBOMR0wGwYDVQQLExRNeU9yZ2FuaXphdGlvbmFs
VW5pdDEVMBMGA1UEAxMMVmlraW5nVlBOIENBMRAwDgYDVQQpEwdFYXN5UlNBMSEw
HwYJKoZIhvcNAQkBFhJtZUBteWhvc3QubXlkb21haW6CCQDPNYXugL8qPjATBgNV
HSUEDDAKBggrBgEFBQcDAjALBgNVHQ8EBAMCB4AwDQYJKoZIhvcNAQEEBQADggIB
AH13gZ8Nwb1FRmpigXuoYxc+qY24qfY1+fPV0EPN8mDJjCt4Ba3T5wlizUk7UhDE
Cdbm8kvLvC0gqb2DhP0amG6TJnprD7iX3WG/mdAu6Q5+0x36Qou1x0INUDAtW9Q1
oLjIZqnJfXOjl9xWhQo60MzuWymF5Bgn8L+p2O/jaezmgjfGbaCJUK76SpfZZJ6y
1Vqjz1fnv6Fid0QIXm8XP46Hmr1IX3n3pDiCw7VLZzUsut7ol0cqrID5N3+phzE2
drTUdrVUpPfH71csTM09jN9kA0CB9hV8qOTpOVJ1ZK+udizkceYO4rrx6fWZj/db
05mNm59vjYt2wtt/nYmqpn7hYagcOZkmaJXXSSlki0GX4uAZhHS9Scbec1lIHZ4Q
bWK7WALMKVhtH0XKUqADZv0O+qyuph76Gpy3r1GAJIjGhHfFy86nOh6MkAdtI+vZ
jX9fOMsluO+Xwi+loqbWiPSDAIetbxv0IWIIiUxzVmWI7gGSka5smKyv0Qm56NlO
hwYJysjAypqfj8PnIPKudtfCG0Q+udTBqtcS+DU341FUAMe0TtO2FFRkifK7gcnJ
fnLP/IUaSPpD1OehhBV7ilIkm4ZycWd10U7gAUx2O88RTRRBHFFPj/UbT2bU9qAP
KUGLc2En3xALnxUnHhNVD2XLVGUXJeWZPoO0F8KljFeO
-----END CERTIFICATE-----
