Certificate:
    Data:
        Version: 3 (0x2)
        Serial Number: 8421 (0x20e5)
    Signature Algorithm: md5WithRSAEncryption
        Issuer: C=US, ST=OH, L=Columbus, O=VikingVPN, OU=MyOrganizationalUnit, CN=VikingVPN CA/name=EasyRSA/emailAddress=me@myhost.mydomain
        Validity
            Not Before: Jul  5 10:00:34 2016 GMT
            Not After : Jul  3 10:00:34 2026 GMT
        Subject: CN=Client1621Certf0a540
        Subject Public Key Info:
            Public Key Algorithm: rsaEncryption
                Public-Key: (4096 bit)
                Modulus:
                    00:c6:2f:3b:80:2c:50:a7:83:66:21:32:8f:0b:27:
                    f2:40:c6:df:3a:90:d5:d6:c7:68:aa:9c:3e:53:dc:
                    5c:37:39:36:d0:80:13:29:2a:58:4f:fc:66:30:48:
                    8c:04:f6:3d:ca:9a:12:c8:2c:8b:7f:f4:79:d4:80:
                    76:8c:7a:76:71:d4:21:cf:6b:07:2e:c3:bc:82:e5:
                    a5:ff:b8:7c:0a:54:cc:bf:6f:ad:f3:63:18:64:ad:
                    88:e8:67:2b:61:46:40:44:48:ae:f5:8b:0e:d7:3d:
                    9d:34:74:a4:55:4d:85:e8:0e:c0:6d:86:c4:25:41:
                    84:e4:01:1f:c3:ee:f4:b4:e0:42:ca:6b:3e:8f:9b:
                    5a:a4:a7:c3:fe:27:37:e6:f4:44:00:d9:be:d2:58:
                    40:03:33:8d:a0:e7:ac:02:4a:9c:ab:9a:66:d4:59:
                    c7:ad:49:18:1d:61:9e:2c:7c:a5:ed:4e:45:54:d3:
                    ac:37:ff:54:a1:67:a7:43:e5:2a:54:f7:6c:df:90:
                    82:ed:5b:6e:36:14:c3:78:b8:f5:8a:83:03:97:39:
                    1a:8a:84:75:cb:d6:96:f8:15:c3:67:c5:c8:b1:40:
                    08:5b:ac:fc:5f:bc:2b:c3:70:8f:25:e8:53:b9:f7:
                    19:6f:f1:13:bc:6c:00:90:ef:5e:35:0f:dd:cc:40:
                    f7:14:e2:31:3a:30:61:8c:b5:59:e2:78:af:57:7b:
                    b8:d1:50:0b:2c:b5:b7:48:46:0e:ed:15:ae:7c:8d:
                    eb:ac:27:02:15:30:10:00:42:62:a4:4f:2a:43:13:
                    9e:03:86:55:32:48:d9:22:cb:f5:bd:6a:6d:07:48:
                    29:2e:55:f9:56:24:ae:ab:af:c0:ba:42:a3:ca:a7:
                    ee:d6:a7:6e:e1:d5:7b:26:ee:f9:f1:76:7e:2a:4d:
                    db:06:c8:78:15:df:2f:1c:f5:a0:54:ec:94:b8:b8:
                    71:76:2e:67:fa:0d:e4:cc:8a:83:78:4d:d2:ef:85:
                    4c:2c:31:20:7f:a6:81:95:8b:fd:a8:16:dc:ed:e6:
                    bc:81:7f:64:b0:25:d7:54:28:06:5a:79:13:8e:c6:
                    89:45:04:dc:fe:d9:f4:18:55:eb:6e:0a:98:34:76:
                    93:11:0e:35:87:45:ac:83:3a:d8:8e:d4:c6:3e:d2:
                    ca:26:b6:cb:6d:a8:18:d8:82:4a:14:69:61:a9:6f:
                    8e:54:3a:55:4e:fd:b5:b5:55:2c:ac:ee:e8:2d:49:
                    cd:23:30:79:81:3e:34:84:1e:56:c2:23:3e:30:ca:
                    f3:c8:64:b1:65:be:56:db:27:2d:9d:cf:f8:0c:f0:
                    d2:e9:85:2e:ca:2f:82:03:85:ad:02:02:e0:26:a8:
                    99:48:1b
                Exponent: 65537 (0x10001)
        X509v3 extensions:
            X509v3 Basic Constraints: 
                CA:FALSE
            Netscape Comment: 
                Easy-RSA Generated Certificate
            X509v3 Subject Key Identifier: 
                30:D0:F6:DD:ED:70:1D:76:2E:31:E2:5B:CB:A9:74:12:CD:EC:FD:CB
            X509v3 Authority Key Identifier: 
                keyid:12:CD:60:04:D2:A0:80:9E:70:ED:C6:99:B8:7B:2C:C6:52:FD:19:A1
                DirName:/C=US/ST=OH/L=Columbus/O=VikingVPN/OU=MyOrganizationalUnit/CN=VikingVPN CA/name=EasyRSA/emailAddress=me@myhost.mydomain
                serial:CF:35:85:EE:80:BF:2A:3E

            X509v3 Extended Key Usage: 
                TLS Web Client Authentication
            X509v3 Key Usage: 
                Digital Signature
    Signature Algorithm: md5WithRSAEncryption
         6d:fe:1c:1c:68:7d:18:0b:2a:f6:3c:1b:cb:84:39:b2:58:22:
         08:09:47:ab:0d:8e:20:ed:d1:27:fe:64:46:b7:c9:f7:34:9c:
         1b:18:bc:dd:04:e0:a4:bd:a6:7a:b3:cb:b3:ad:02:d1:f6:17:
         29:29:57:28:60:a4:c7:b7:d4:b6:e9:5e:b9:0b:65:e5:4a:27:
         09:d9:f3:dd:05:6d:10:e7:e1:21:26:e1:b6:5d:5c:b7:4d:88:
         47:46:1c:d4:f1:08:56:4c:4c:11:fb:6b:4a:54:c7:91:a3:ec:
         cb:d2:52:c5:bb:25:6e:38:8e:af:81:57:3f:ba:41:9e:14:fd:
         92:9c:0d:4f:35:ca:87:f6:0c:68:45:2d:3b:2b:f2:9b:98:b8:
         27:80:71:be:cd:a5:b7:18:b5:5f:de:6f:85:cd:42:c1:a8:9d:
         7d:4d:7d:b7:ac:93:a9:08:81:aa:1b:c9:54:8e:4d:86:0d:4d:
         ca:7d:cd:5b:ed:bb:d6:02:04:86:b6:15:2d:1a:0a:fc:28:0c:
         ac:22:19:d6:c9:b5:8a:ef:a2:3b:8a:04:7d:ad:f8:65:f8:05:
         05:c5:e6:73:54:68:80:5b:0d:56:8d:e2:e0:3c:96:dc:13:03:
         0c:58:ae:b1:ab:98:70:80:f3:30:05:36:a8:ea:91:d0:b8:7c:
         63:a7:e1:fb:cc:92:55:c6:e4:f6:c3:9e:57:0b:13:6a:c9:14:
         24:a3:fd:c8:d0:40:7a:69:26:11:8f:c4:3d:d8:47:a9:84:39:
         8d:60:67:12:81:0c:25:69:0f:5a:7a:d9:4f:1c:3c:c8:79:b2:
         55:28:25:14:3e:98:5a:8b:c7:0e:ae:fe:20:c9:ea:81:ef:d8:
         f2:34:52:f4:54:87:2b:9e:74:12:07:d2:ed:d2:98:e8:26:82:
         4d:5a:8c:23:34:3b:64:42:4e:b3:ee:dc:dd:9f:dd:df:84:10:
         0a:4a:7c:8e:5e:64:a4:20:60:6c:65:a9:af:f0:0d:16:d1:9a:
         55:25:85:6a:c6:fa:b1:62:b0:61:cb:8a:ea:70:97:75:6e:bd:
         c1:3a:96:79:f1:2b:49:9b:60:cb:a2:5b:c6:35:b2:c6:19:cf:
         c0:da:ca:a4:15:12:fd:f4:db:8f:34:e9:15:eb:3a:ed:ae:42:
         57:bb:2a:63:8f:f0:9a:bb:74:4f:99:07:ff:0b:ba:de:79:91:
         83:80:b7:a8:10:08:ed:61:f1:58:59:25:a9:d3:99:a8:c7:d4:
         fc:f7:b9:09:e2:30:e8:33:cb:97:89:3c:a2:54:31:5e:0b:22:
         bf:61:da:10:a2:17:d9:be:45:8f:70:95:01:8f:28:0b:65:d6:
         03:13:b9:a7:d7:93:9c:d7
-----BEGIN CERTIFICATE-----
MIIGrTCCBJWgAwIBAgICIOUwDQYJKoZIhvcNAQEEBQAwgawxCzAJBgNVBAYTAlVT
MQswCQYDVQQIEwJPSDERMA8GA1UEBxMIQ29sdW1idXMxEjAQBgNVBAoTCVZpa2lu
Z1ZQTjEdMBsGA1UECxMUTXlPcmdhbml6YXRpb25hbFVuaXQxFTATBgNVBAMTDFZp
a2luZ1ZQTiBDQTEQMA4GA1UEKRMHRWFzeVJTQTEhMB8GCSqGSIb3DQEJARYSbWVA
bXlob3N0Lm15ZG9tYWluMB4XDTE2MDcwNTEwMDAzNFoXDTI2MDcwMzEwMDAzNFow
HzEdMBsGA1UEAxMUQ2xpZW50MTYyMUNlcnRmMGE1NDAwggIiMA0GCSqGSIb3DQEB
AQUAA4ICDwAwggIKAoICAQDGLzuALFCng2YhMo8LJ/JAxt86kNXWx2iqnD5T3Fw3
OTbQgBMpKlhP/GYwSIwE9j3KmhLILIt/9HnUgHaMenZx1CHPawcuw7yC5aX/uHwK
VMy/b63zYxhkrYjoZythRkBESK71iw7XPZ00dKRVTYXoDsBthsQlQYTkAR/D7vS0
4ELKaz6Pm1qkp8P+Jzfm9EQA2b7SWEADM42g56wCSpyrmmbUWcetSRgdYZ4sfKXt
TkVU06w3/1ShZ6dD5SpU92zfkILtW242FMN4uPWKgwOXORqKhHXL1pb4FcNnxcix
QAhbrPxfvCvDcI8l6FO59xlv8RO8bACQ7141D93MQPcU4jE6MGGMtVnieK9Xe7jR
UAsstbdIRg7tFa58jeusJwIVMBAAQmKkTypDE54DhlUySNkiy/W9am0HSCkuVflW
JK6rr8C6QqPKp+7Wp27h1Xsm7vnxdn4qTdsGyHgV3y8c9aBU7JS4uHF2Lmf6DeTM
ioN4TdLvhUwsMSB/poGVi/2oFtzt5ryBf2SwJddUKAZaeROOxolFBNz+2fQYVetu
Cpg0dpMRDjWHRayDOtiO1MY+0somtsttqBjYgkoUaWGpb45UOlVO/bW1VSys7ugt
Sc0jMHmBPjSEHlbCIz4wyvPIZLFlvlbbJy2dz/gM8NLphS7KL4IDha0CAuAmqJlI
GwIDAQABo4IBYzCCAV8wCQYDVR0TBAIwADAtBglghkgBhvhCAQ0EIBYeRWFzeS1S
U0EgR2VuZXJhdGVkIENlcnRpZmljYXRlMB0GA1UdDgQWBBQw0Pbd7XAddi4x4lvL
qXQSzez9yzCB4QYDVR0jBIHZMIHWgBQSzWAE0qCAnnDtxpm4eyzGUv0ZoaGBsqSB
rzCBrDELMAkGA1UEBhMCVVMxCzAJBgNVBAgTAk9IMREwDwYDVQQHEwhDb2x1bWJ1
czESMBAGA1UEChMJVmlraW5nVlBOMR0wGwYDVQQLExRNeU9yZ2FuaXphdGlvbmFs
VW5pdDEVMBMGA1UEAxMMVmlraW5nVlBOIENBMRAwDgYDVQQpEwdFYXN5UlNBMSEw
HwYJKoZIhvcNAQkBFhJtZUBteWhvc3QubXlkb21haW6CCQDPNYXugL8qPjATBgNV
HSUEDDAKBggrBgEFBQcDAjALBgNVHQ8EBAMCB4AwDQYJKoZIhvcNAQEEBQADggIB
AG3+HBxofRgLKvY8G8uEObJYIggJR6sNjiDt0Sf+ZEa3yfc0nBsYvN0E4KS9pnqz
y7OtAtH2FykpVyhgpMe31LbpXrkLZeVKJwnZ890FbRDn4SEm4bZdXLdNiEdGHNTx
CFZMTBH7a0pUx5Gj7MvSUsW7JW44jq+BVz+6QZ4U/ZKcDU81yof2DGhFLTsr8puY
uCeAcb7NpbcYtV/eb4XNQsGonX1Nfbesk6kIgaobyVSOTYYNTcp9zVvtu9YCBIa2
FS0aCvwoDKwiGdbJtYrvojuKBH2t+GX4BQXF5nNUaIBbDVaN4uA8ltwTAwxYrrGr
mHCA8zAFNqjqkdC4fGOn4fvMklXG5PbDnlcLE2rJFCSj/cjQQHppJhGPxD3YR6mE
OY1gZxKBDCVpD1p62U8cPMh5slUoJRQ+mFqLxw6u/iDJ6oHv2PI0UvRUhyuedBIH
0u3SmOgmgk1ajCM0O2RCTrPu3N2f3d+EEApKfI5eZKQgYGxlqa/wDRbRmlUlhWrG
+rFisGHLiupwl3VuvcE6lnnxK0mbYMuiW8Y1ssYZz8DayqQVEv3024806RXrOu2u
Qle7KmOP8Jq7dE+ZB/8Lut55kYOAt6gQCO1h8VhZJanTmajH1Pz3uQniMOgzy5eJ
PKJUMV4LIr9h2hCiF9m+RY9wlQGPKAtl1gMTuafXk5zX
-----END CERTIFICATE-----
