Certificate:
    Data:
        Version: 3 (0x2)
        Serial Number: 8447 (0x20ff)
    Signature Algorithm: md5WithRSAEncryption
        Issuer: C=US, ST=OH, L=Columbus, O=VikingVPN, OU=MyOrganizationalUnit, CN=VikingVPN CA/name=EasyRSA/emailAddress=me@myhost.mydomain
        Validity
            Not Before: Jul  8 19:25:37 2016 GMT
            Not After : Jul  6 19:25:37 2026 GMT
        Subject: CN=Client1702Cert389223
        Subject Public Key Info:
            Public Key Algorithm: rsaEncryption
                Public-Key: (4096 bit)
                Modulus:
                    00:d9:9a:7c:e6:4b:40:37:5f:cc:3e:05:7f:a3:62:
                    23:64:bd:7f:af:3d:f8:9f:92:e5:6b:b4:68:2c:bf:
                    73:e2:a6:f0:ba:2a:1e:94:ab:b1:0b:0b:f8:2a:de:
                    63:92:0d:fe:56:39:a7:8b:b2:ee:69:38:36:2c:9a:
                    e3:6c:61:a0:d9:3e:51:b3:2c:e1:19:f3:d7:ab:45:
                    9e:e5:4b:24:ec:88:5a:f6:4a:df:a8:34:ef:08:42:
                    85:25:ac:f4:eb:7c:c2:67:d8:52:e5:b3:3a:46:da:
                    2e:47:02:6b:99:f8:8b:fc:66:0d:12:d3:7d:dc:1d:
                    a5:9f:22:05:d7:bc:28:e2:2c:a1:99:99:f2:46:7b:
                    a9:b3:5c:13:9c:eb:39:7d:94:ac:4b:65:a6:8e:fc:
                    bf:9c:d2:ff:5c:59:f6:bc:e2:9b:fa:02:d5:35:12:
                    80:ab:df:8a:b1:07:cc:da:7c:98:5a:40:37:fd:18:
                    92:b5:f0:c3:ce:21:b7:68:c9:a5:83:66:d5:ad:d2:
                    da:75:44:7b:6e:59:f3:4a:8c:2c:99:11:c4:f5:6d:
                    91:ac:85:18:59:11:5b:80:bc:f5:e4:5a:17:04:4c:
                    db:3b:d5:f4:06:43:44:46:30:a1:2a:03:a6:6d:d2:
                    43:e2:16:a1:22:2c:54:3e:c6:8b:70:c1:01:14:40:
                    dc:c7:92:68:98:a8:06:95:76:f8:bd:7b:9f:1f:9f:
                    fb:48:92:d2:69:1c:b7:5e:fd:2e:2f:81:84:0b:fa:
                    c2:30:3a:cc:2f:00:1d:f0:a8:2c:03:db:c2:4f:a7:
                    e5:ea:00:5e:2d:a5:fa:58:0b:7f:de:39:6e:75:f5:
                    7c:bc:bd:86:84:ad:d6:e3:0c:68:7f:77:1c:6c:1e:
                    c4:fc:d1:8d:fc:43:98:c0:7d:e5:4f:cb:eb:bb:b3:
                    46:a5:5a:2f:e5:97:1e:1f:6f:cd:2f:45:ad:31:7b:
                    61:27:71:45:49:37:68:0a:19:82:2f:ab:bd:83:a3:
                    1d:f9:dc:63:b9:01:44:4c:6b:8b:25:a9:2f:ab:05:
                    ed:2a:99:d5:7f:d6:25:cd:b5:19:1b:c9:f8:f3:71:
                    42:25:b1:86:8c:a2:27:fa:6a:f2:76:b8:e3:cc:93:
                    36:bc:f0:e8:60:89:02:3a:45:68:d9:1f:64:96:c1:
                    35:cf:04:6a:2f:c6:81:f1:7d:b9:3d:68:26:ec:54:
                    cb:1e:00:5a:64:34:ae:94:67:52:42:af:e6:9d:28:
                    01:c8:dc:10:89:cb:45:d0:46:18:ec:ef:5c:10:16:
                    29:16:b6:14:fb:f9:3a:94:06:80:9e:c8:16:a9:61:
                    52:2e:4b:db:c5:d1:07:f8:e3:67:d0:87:ee:d3:fb:
                    09:9f:bb
                Exponent: 65537 (0x10001)
        X509v3 extensions:
            X509v3 Basic Constraints: 
                CA:FALSE
            Netscape Comment: 
                Easy-RSA Generated Certificate
            X509v3 Subject Key Identifier: 
                51:75:F0:06:F2:66:46:C6:A3:BF:A1:8A:6B:19:05:EA:09:6E:77:84
            X509v3 Authority Key Identifier: 
                keyid:12:CD:60:04:D2:A0:80:9E:70:ED:C6:99:B8:7B:2C:C6:52:FD:19:A1
                DirName:/C=US/ST=OH/L=Columbus/O=VikingVPN/OU=MyOrganizationalUnit/CN=VikingVPN CA/name=EasyRSA/emailAddress=me@myhost.mydomain
                serial:CF:35:85:EE:80:BF:2A:3E

            X509v3 Extended Key Usage: 
                TLS Web Client Authentication
            X509v3 Key Usage: 
                Digital Signature
    Signature Algorithm: md5WithRSAEncryption
         d5:35:48:b2:7c:74:1d:9a:23:19:d5:f7:cb:4c:41:45:41:b0:
         a3:48:e1:8a:20:4c:2b:94:bb:06:cd:4b:03:18:c2:35:8f:65:
         7b:8d:d1:1f:14:7b:6e:fe:c7:a3:11:e1:ed:e8:50:cd:8b:d5:
         22:dd:b8:8b:66:03:11:fa:6d:e1:7a:a0:40:9c:da:a3:28:e0:
         2e:ce:93:af:d0:8e:75:9d:a0:8f:de:b6:d3:e1:74:fc:55:51:
         30:6a:5d:e0:a5:64:6e:be:ec:7e:5a:ab:91:07:1b:fd:26:c6:
         08:57:aa:4e:63:a7:64:dc:18:fc:95:79:fa:42:2b:2f:81:60:
         f8:48:98:56:00:77:ef:59:ab:72:ea:74:5d:59:0f:bd:63:62:
         8b:80:09:8d:df:c9:cc:bb:7f:10:80:3d:29:20:94:21:52:fe:
         20:36:13:c1:c3:a8:9e:c8:86:63:3a:18:4c:4e:67:ac:c4:aa:
         b2:a1:f9:c6:00:fc:08:df:04:46:9d:04:b4:9b:53:e1:40:ee:
         6f:ad:5f:a4:2a:af:89:84:f1:7d:0b:9a:7e:12:48:a3:c2:38:
         2a:7b:6b:51:3d:b8:ee:83:76:fa:a6:81:fc:cd:92:56:3c:2c:
         78:a7:47:a5:e3:5c:ed:e6:51:51:21:ea:56:fe:f7:ab:34:d9:
         5d:2e:b0:2a:0a:d4:35:cf:f1:28:1c:a7:a9:58:d2:d5:c4:cb:
         a0:fe:cc:e3:80:7f:01:cf:21:5b:19:8e:04:58:c8:34:a0:f8:
         84:4d:18:9b:9f:a7:50:9b:50:2e:45:1a:f5:10:1e:2c:51:ac:
         23:76:54:26:09:e2:69:a7:18:38:01:e0:ad:0a:2d:8c:8d:69:
         c2:74:72:cf:1e:cd:bf:d4:c2:78:35:dd:3a:98:f4:87:b9:3a:
         eb:60:b3:83:10:c3:2d:5a:4c:0d:3d:36:5e:7b:d2:22:6c:67:
         35:9a:75:da:a3:9a:a9:3c:bd:29:da:ce:d4:e3:0c:40:84:74:
         b8:ac:8a:15:af:55:7b:ff:6f:1d:8e:58:1f:5f:a8:2b:36:b2:
         4e:54:e4:ad:a6:fe:f7:ab:02:89:5b:da:72:dd:22:69:96:23:
         a2:f4:5b:6d:e2:fb:b7:4e:e8:50:d0:7f:61:0b:f8:5e:b3:4b:
         a4:03:1e:3f:67:b1:a2:19:0f:26:92:32:36:4f:ed:fd:dd:ca:
         08:1f:e0:4a:78:1a:99:b5:58:b8:63:97:8e:46:2c:98:53:2e:
         2a:f4:d3:94:6c:34:ce:04:ee:7f:10:25:ae:f9:5d:d7:56:ca:
         51:57:8e:c9:cd:d6:d9:89:85:9a:7c:f5:b8:69:ed:ff:65:d6:
         c3:07:dc:71:67:a6:2d:24
-----BEGIN CERTIFICATE-----
MIIGrTCCBJWgAwIBAgICIP8wDQYJKoZIhvcNAQEEBQAwgawxCzAJBgNVBAYTAlVT
MQswCQYDVQQIEwJPSDERMA8GA1UEBxMIQ29sdW1idXMxEjAQBgNVBAoTCVZpa2lu
Z1ZQTjEdMBsGA1UECxMUTXlPcmdhbml6YXRpb25hbFVuaXQxFTATBgNVBAMTDFZp
a2luZ1ZQTiBDQTEQMA4GA1UEKRMHRWFzeVJTQTEhMB8GCSqGSIb3DQEJARYSbWVA
bXlob3N0Lm15ZG9tYWluMB4XDTE2MDcwODE5MjUzN1oXDTI2MDcwNjE5MjUzN1ow
HzEdMBsGA1UEAxMUQ2xpZW50MTcwMkNlcnQzODkyMjMwggIiMA0GCSqGSIb3DQEB
AQUAA4ICDwAwggIKAoICAQDZmnzmS0A3X8w+BX+jYiNkvX+vPfifkuVrtGgsv3Pi
pvC6Kh6Uq7ELC/gq3mOSDf5WOaeLsu5pODYsmuNsYaDZPlGzLOEZ89erRZ7lSyTs
iFr2St+oNO8IQoUlrPTrfMJn2FLlszpG2i5HAmuZ+Iv8Zg0S033cHaWfIgXXvCji
LKGZmfJGe6mzXBOc6zl9lKxLZaaO/L+c0v9cWfa84pv6AtU1EoCr34qxB8zafJha
QDf9GJK18MPOIbdoyaWDZtWt0tp1RHtuWfNKjCyZEcT1bZGshRhZEVuAvPXkWhcE
TNs71fQGQ0RGMKEqA6Zt0kPiFqEiLFQ+xotwwQEUQNzHkmiYqAaVdvi9e58fn/tI
ktJpHLde/S4vgYQL+sIwOswvAB3wqCwD28JPp+XqAF4tpfpYC3/eOW519Xy8vYaE
rdbjDGh/dxxsHsT80Y38Q5jAfeVPy+u7s0alWi/llx4fb80vRa0xe2EncUVJN2gK
GYIvq72Dox353GO5AURMa4slqS+rBe0qmdV/1iXNtRkbyfjzcUIlsYaMoif6avJ2
uOPMkza88OhgiQI6RWjZH2SWwTXPBGovxoHxfbk9aCbsVMseAFpkNK6UZ1JCr+ad
KAHI3BCJy0XQRhjs71wQFikWthT7+TqUBoCeyBapYVIuS9vF0Qf442fQh+7T+wmf
uwIDAQABo4IBYzCCAV8wCQYDVR0TBAIwADAtBglghkgBhvhCAQ0EIBYeRWFzeS1S
U0EgR2VuZXJhdGVkIENlcnRpZmljYXRlMB0GA1UdDgQWBBRRdfAG8mZGxqO/oYpr
GQXqCW53hDCB4QYDVR0jBIHZMIHWgBQSzWAE0qCAnnDtxpm4eyzGUv0ZoaGBsqSB
rzCBrDELMAkGA1UEBhMCVVMxCzAJBgNVBAgTAk9IMREwDwYDVQQHEwhDb2x1bWJ1
czESMBAGA1UEChMJVmlraW5nVlBOMR0wGwYDVQQLExRNeU9yZ2FuaXphdGlvbmFs
VW5pdDEVMBMGA1UEAxMMVmlraW5nVlBOIENBMRAwDgYDVQQpEwdFYXN5UlNBMSEw
HwYJKoZIhvcNAQkBFhJtZUBteWhvc3QubXlkb21haW6CCQDPNYXugL8qPjATBgNV
HSUEDDAKBggrBgEFBQcDAjALBgNVHQ8EBAMCB4AwDQYJKoZIhvcNAQEEBQADggIB
ANU1SLJ8dB2aIxnV98tMQUVBsKNI4YogTCuUuwbNSwMYwjWPZXuN0R8Ue27+x6MR
4e3oUM2L1SLduItmAxH6beF6oECc2qMo4C7Ok6/QjnWdoI/ettPhdPxVUTBqXeCl
ZG6+7H5aq5EHG/0mxghXqk5jp2TcGPyVefpCKy+BYPhImFYAd+9Zq3LqdF1ZD71j
YouACY3fycy7fxCAPSkglCFS/iA2E8HDqJ7IhmM6GExOZ6zEqrKh+cYA/AjfBEad
BLSbU+FA7m+tX6Qqr4mE8X0Lmn4SSKPCOCp7a1E9uO6DdvqmgfzNklY8LHinR6Xj
XO3mUVEh6lb+96s02V0usCoK1DXP8Sgcp6lY0tXEy6D+zOOAfwHPIVsZjgRYyDSg
+IRNGJufp1CbUC5FGvUQHixRrCN2VCYJ4mmnGDgB4K0KLYyNacJ0cs8ezb/Uwng1
3TqY9Ie5Outgs4MQwy1aTA09Nl570iJsZzWaddqjmqk8vSnaztTjDECEdLisihWv
VXv/bx2OWB9fqCs2sk5U5K2m/verAolb2nLdImmWI6L0W23i+7dO6FDQf2EL+F6z
S6QDHj9nsaIZDyaSMjZP7f3dyggf4Ep4Gpm1WLhjl45GLJhTLir005RsNM4E7n8Q
Ja75XddWylFXjsnN1tmJhZp89bhp7f9l1sMH3HFnpi0k
-----END CERTIFICATE-----
