Certificate:
    Data:
        Version: 3 (0x2)
        Serial Number: 8469 (0x2115)
    Signature Algorithm: md5WithRSAEncryption
        Issuer: C=US, ST=OH, L=Columbus, O=VikingVPN, OU=MyOrganizationalUnit, CN=VikingVPN CA/name=EasyRSA/emailAddress=me@myhost.mydomain
        Validity
            Not Before: Jul 10 22:37:36 2016 GMT
            Not After : Jul  8 22:37:36 2026 GMT
        Subject: CN=Client1476Cert6b4a78
        Subject Public Key Info:
            Public Key Algorithm: rsaEncryption
                Public-Key: (4096 bit)
                Modulus:
                    00:bf:19:d0:67:7a:d5:10:46:6e:da:01:a0:f8:d1:
                    c9:6d:72:18:79:8d:f7:c5:51:e6:e8:0d:95:8a:39:
                    aa:12:e4:7e:44:0d:8d:80:ad:cf:89:5c:c3:42:3c:
                    cd:b4:f6:a0:ae:51:db:be:99:ef:c1:b6:59:6a:c5:
                    62:17:6f:d6:77:17:a4:98:de:2c:67:a1:09:18:f2:
                    82:74:55:a4:35:35:29:4e:59:ea:bf:80:f3:59:79:
                    43:d2:16:04:f5:10:f0:af:f2:3b:1f:21:71:86:85:
                    58:87:03:89:15:8d:f5:c3:ea:1a:af:68:b8:ad:04:
                    be:e0:d2:cb:07:6c:ac:e3:dc:de:32:00:7b:89:bc:
                    66:cd:f4:72:0c:81:7b:fc:22:cb:7b:5c:3e:42:08:
                    54:f0:a5:7e:78:74:68:2b:c2:89:b6:7d:54:d8:56:
                    6b:0e:d0:90:be:b9:7e:2d:44:83:c5:45:e3:46:ed:
                    b7:84:f0:84:da:e5:26:b0:6a:72:bd:1c:1f:33:64:
                    b7:1b:95:a4:3b:47:16:8f:78:17:a6:a2:85:8d:31:
                    e2:f5:4a:d4:74:e7:c3:fa:98:b5:5e:b3:92:b9:2a:
                    13:d8:f0:dd:12:c6:71:78:50:2e:57:dd:19:45:d2:
                    11:19:4d:3f:00:3d:19:3f:47:4c:a7:44:fb:a5:2c:
                    6d:02:7f:4b:e2:32:ec:18:7a:57:ec:07:ad:38:1d:
                    0f:93:b1:75:21:59:b5:1b:05:bc:5c:b4:6a:ec:7a:
                    69:2d:01:7b:b8:ab:7b:63:4f:fd:d0:ab:29:ec:9b:
                    68:83:5a:d9:ff:b0:8f:6e:a3:05:27:e2:95:61:7d:
                    85:3e:7c:a6:22:12:0a:54:01:15:7c:bc:b4:39:5e:
                    22:1f:dd:59:a6:63:9b:bf:53:bd:5c:19:00:4b:8e:
                    d1:ad:61:d3:61:1c:59:96:69:7b:df:5e:12:68:fd:
                    f8:81:d7:cb:4c:d6:3e:4a:0c:06:90:8a:7d:bd:a3:
                    75:a9:71:ec:9a:0a:22:ba:d7:b8:b3:a3:e9:92:d3:
                    15:7c:68:f2:69:b8:5d:4f:c0:bd:99:88:09:c9:14:
                    3f:05:9f:4e:cb:72:d4:67:8b:46:d1:fb:f3:95:63:
                    c3:81:a2:50:84:21:55:e9:ce:f4:82:f8:47:6e:2f:
                    29:06:91:44:b7:36:db:29:6b:8b:3b:62:fd:13:b9:
                    4c:c1:fe:73:3e:f8:3c:9c:fb:79:00:5e:a0:65:9d:
                    04:b6:40:64:38:ac:32:37:31:ae:53:f5:5a:53:a3:
                    6c:23:b0:52:41:d1:7d:de:e7:81:39:b5:06:1d:7d:
                    12:a6:21:4c:b1:48:37:35:d5:ae:f4:4a:b7:f9:c2:
                    80:da:b1
                Exponent: 65537 (0x10001)
        X509v3 extensions:
            X509v3 Basic Constraints: 
                CA:FALSE
            Netscape Comment: 
                Easy-RSA Generated Certificate
            X509v3 Subject Key Identifier: 
                C3:D0:71:71:7D:D6:4D:DA:FE:52:57:FD:91:62:C5:54:CF:59:00:4B
            X509v3 Authority Key Identifier: 
                keyid:12:CD:60:04:D2:A0:80:9E:70:ED:C6:99:B8:7B:2C:C6:52:FD:19:A1
                DirName:/C=US/ST=OH/L=Columbus/O=VikingVPN/OU=MyOrganizationalUnit/CN=VikingVPN CA/name=EasyRSA/emailAddress=me@myhost.mydomain
                serial:CF:35:85:EE:80:BF:2A:3E

            X509v3 Extended Key Usage: 
                TLS Web Client Authentication
            X509v3 Key Usage: 
                Digital Signature
    Signature Algorithm: md5WithRSAEncryption
         76:70:67:ba:9b:21:95:04:e4:31:28:c9:83:2c:e4:7a:c9:c7:
         50:81:cf:f9:4c:f6:eb:9c:30:a7:71:bb:e6:c8:43:d3:e6:04:
         2c:2d:57:75:f1:95:44:ac:3e:98:23:7f:a3:8c:9d:10:e2:4d:
         e2:13:fb:11:ec:f6:76:8c:e6:3e:06:14:53:71:b6:d9:4e:eb:
         14:73:78:a9:5b:00:27:f5:ea:c6:1e:6c:8f:f1:f4:b9:32:59:
         dc:ef:b3:f0:ab:9f:7b:7b:c4:b4:4c:52:72:c4:2f:4e:1b:26:
         4c:07:ef:a1:56:af:be:c3:a7:09:c2:51:27:20:ee:ea:23:44:
         9c:82:89:2e:bb:fb:ee:bd:90:1e:70:c2:3e:e6:d1:72:a5:96:
         e3:4c:ce:f2:c7:f6:5c:74:53:62:df:4a:ea:d3:37:d9:d5:ed:
         9f:13:54:86:db:08:69:cd:63:31:6d:30:3a:a4:63:85:25:6c:
         56:ab:cf:7d:0d:1d:60:74:d1:93:9f:c0:7d:12:86:85:09:55:
         d6:1c:51:bc:b9:7a:4a:e0:47:74:a1:fb:30:85:67:29:cc:9a:
         b9:a5:1e:31:e6:32:6d:58:90:b7:76:36:81:39:4f:d0:f7:da:
         c3:ca:e2:aa:1d:f6:40:60:85:f1:08:5f:97:d3:39:17:84:66:
         06:40:e2:44:ce:53:6a:87:be:e4:71:db:f6:9c:20:da:e1:29:
         30:ad:8e:4b:4e:99:66:dc:64:8f:62:40:78:ae:0d:96:67:86:
         cc:95:01:50:15:6e:9c:8f:0a:f7:df:85:12:94:cd:9c:9b:00:
         10:48:94:c5:ca:e1:0e:c7:e8:4d:70:bf:43:59:0e:1a:6c:87:
         d9:f6:30:1a:c3:cd:96:6a:95:6b:02:51:65:e2:bc:14:62:92:
         86:f8:c1:cb:56:a6:bc:3a:44:53:42:72:4a:9e:68:c4:96:40:
         c8:d1:b0:cc:8e:1b:c9:cd:9b:2f:96:33:1c:7f:0d:d8:72:a8:
         d6:da:e2:07:d3:3a:a5:ec:55:e4:41:46:b9:ec:36:2d:43:61:
         8d:18:e0:3d:4a:97:f9:03:eb:d4:57:64:95:2c:87:cc:92:78:
         69:d5:1b:e3:35:bc:64:18:ca:8b:de:25:ed:17:94:f3:80:e8:
         83:4c:c1:df:13:5e:57:c3:1f:ef:d4:62:7e:99:ef:4f:99:0a:
         ab:10:1f:66:25:43:4a:29:22:fb:c7:d2:74:4b:92:cd:a8:8e:
         24:0c:40:46:29:b4:f1:07:e3:1f:ef:81:ff:91:88:4a:13:3f:
         a3:8e:d7:14:c6:be:6e:d2:9f:68:db:54:46:68:ee:87:49:54:
         12:02:f9:b0:a1:a7:63:b0
-----BEGIN CERTIFICATE-----
MIIGrTCCBJWgAwIBAgICIRUwDQYJKoZIhvcNAQEEBQAwgawxCzAJBgNVBAYTAlVT
MQswCQYDVQQIEwJPSDERMA8GA1UEBxMIQ29sdW1idXMxEjAQBgNVBAoTCVZpa2lu
Z1ZQTjEdMBsGA1UECxMUTXlPcmdhbml6YXRpb25hbFVuaXQxFTATBgNVBAMTDFZp
a2luZ1ZQTiBDQTEQMA4GA1UEKRMHRWFzeVJTQTEhMB8GCSqGSIb3DQEJARYSbWVA
bXlob3N0Lm15ZG9tYWluMB4XDTE2MDcxMDIyMzczNloXDTI2MDcwODIyMzczNlow
HzEdMBsGA1UEAxMUQ2xpZW50MTQ3NkNlcnQ2YjRhNzgwggIiMA0GCSqGSIb3DQEB
AQUAA4ICDwAwggIKAoICAQC/GdBnetUQRm7aAaD40cltchh5jffFUeboDZWKOaoS
5H5EDY2Arc+JXMNCPM209qCuUdu+me/BtllqxWIXb9Z3F6SY3ixnoQkY8oJ0VaQ1
NSlOWeq/gPNZeUPSFgT1EPCv8jsfIXGGhViHA4kVjfXD6hqvaLitBL7g0ssHbKzj
3N4yAHuJvGbN9HIMgXv8Ist7XD5CCFTwpX54dGgrwom2fVTYVmsO0JC+uX4tRIPF
ReNG7beE8ITa5SawanK9HB8zZLcblaQ7RxaPeBemooWNMeL1StR058P6mLVes5K5
KhPY8N0SxnF4UC5X3RlF0hEZTT8APRk/R0ynRPulLG0Cf0viMuwYelfsB604HQ+T
sXUhWbUbBbxctGrsemktAXu4q3tjT/3Qqynsm2iDWtn/sI9uowUn4pVhfYU+fKYi
EgpUARV8vLQ5XiIf3VmmY5u/U71cGQBLjtGtYdNhHFmWaXvfXhJo/fiB18tM1j5K
DAaQin29o3WpceyaCiK617izo+mS0xV8aPJpuF1PwL2ZiAnJFD8Fn07LctRni0bR
+/OVY8OBolCEIVXpzvSC+EduLykGkUS3Ntspa4s7Yv0TuUzB/nM++Dyc+3kAXqBl
nQS2QGQ4rDI3Ma5T9VpTo2wjsFJB0X3e54E5tQYdfRKmIUyxSDc11a70Srf5woDa
sQIDAQABo4IBYzCCAV8wCQYDVR0TBAIwADAtBglghkgBhvhCAQ0EIBYeRWFzeS1S
U0EgR2VuZXJhdGVkIENlcnRpZmljYXRlMB0GA1UdDgQWBBTD0HFxfdZN2v5SV/2R
YsVUz1kASzCB4QYDVR0jBIHZMIHWgBQSzWAE0qCAnnDtxpm4eyzGUv0ZoaGBsqSB
rzCBrDELMAkGA1UEBhMCVVMxCzAJBgNVBAgTAk9IMREwDwYDVQQHEwhDb2x1bWJ1
czESMBAGA1UEChMJVmlraW5nVlBOMR0wGwYDVQQLExRNeU9yZ2FuaXphdGlvbmFs
VW5pdDEVMBMGA1UEAxMMVmlraW5nVlBOIENBMRAwDgYDVQQpEwdFYXN5UlNBMSEw
HwYJKoZIhvcNAQkBFhJtZUBteWhvc3QubXlkb21haW6CCQDPNYXugL8qPjATBgNV
HSUEDDAKBggrBgEFBQcDAjALBgNVHQ8EBAMCB4AwDQYJKoZIhvcNAQEEBQADggIB
AHZwZ7qbIZUE5DEoyYMs5HrJx1CBz/lM9uucMKdxu+bIQ9PmBCwtV3XxlUSsPpgj
f6OMnRDiTeIT+xHs9naM5j4GFFNxttlO6xRzeKlbACf16sYebI/x9LkyWdzvs/Cr
n3t7xLRMUnLEL04bJkwH76FWr77DpwnCUScg7uojRJyCiS67++69kB5wwj7m0XKl
luNMzvLH9lx0U2LfSurTN9nV7Z8TVIbbCGnNYzFtMDqkY4UlbFarz30NHWB00ZOf
wH0ShoUJVdYcUby5ekrgR3Sh+zCFZynMmrmlHjHmMm1YkLd2NoE5T9D32sPK4qod
9kBghfEIX5fTOReEZgZA4kTOU2qHvuRx2/acINrhKTCtjktOmWbcZI9iQHiuDZZn
hsyVAVAVbpyPCvffhRKUzZybABBIlMXK4Q7H6E1wv0NZDhpsh9n2MBrDzZZqlWsC
UWXivBRikob4wctWprw6RFNCckqeaMSWQMjRsMyOG8nNmy+WMxx/DdhyqNba4gfT
OqXsVeRBRrnsNi1DYY0Y4D1Kl/kD69RXZJUsh8ySeGnVG+M1vGQYyoveJe0XlPOA
6INMwd8TXlfDH+/UYn6Z70+ZCqsQH2YlQ0opIvvH0nRLks2ojiQMQEYptPEH4x/v
gf+RiEoTP6OO1xTGvm7Sn2jbVEZo7odJVBIC+bChp2Ow
-----END CERTIFICATE-----
