Certificate:
    Data:
        Version: 3 (0x2)
        Serial Number: 8517 (0x2145)
    Signature Algorithm: sha256WithRSAEncryption
        Issuer: C=US, ST=OH, L=Columbus, O=VikingVPN, OU=MyOrganizationalUnit, CN=VikingVPN CA/name=EasyRSA/emailAddress=me@myhost.mydomain
        Validity
            Not Before: Jul 19 02:21:15 2016 GMT
            Not After : Jul 17 02:21:15 2026 GMT
        Subject: CN=Client2426Certaf662d
        Subject Public Key Info:
            Public Key Algorithm: rsaEncryption
                Public-Key: (4096 bit)
                Modulus:
                    00:c7:94:2b:9a:52:a5:cf:f4:a6:ab:04:fa:1a:4f:
                    22:7e:7f:e4:63:0a:69:e0:6a:57:2e:70:8d:08:07:
                    c1:8e:75:b2:96:68:44:90:99:25:4e:c7:e9:a2:ae:
                    c4:2c:20:a1:18:57:5c:bb:32:b5:e5:0f:ea:44:51:
                    76:be:a6:b0:6b:0d:ee:0e:27:b5:c6:ab:c7:a4:44:
                    83:d2:85:83:79:ab:86:a9:89:12:6d:7f:aa:0c:cb:
                    e4:eb:af:d8:d8:c4:de:8f:d3:c1:53:12:f3:26:03:
                    73:7c:85:57:97:15:52:23:4a:64:cd:58:87:6d:ac:
                    08:c5:75:44:cf:af:44:26:9c:00:e7:01:b9:5b:97:
                    7a:77:5d:fa:96:4d:54:64:e1:45:c1:29:03:69:6d:
                    0b:1d:be:d8:3f:c3:a7:74:27:d4:4f:99:4c:2f:48:
                    26:c4:87:44:78:42:70:d7:8a:a0:38:cd:59:aa:02:
                    03:99:19:e0:92:92:3b:60:31:4a:3e:b1:68:12:86:
                    c0:6b:c7:79:83:ea:5b:64:58:bc:8f:dd:f5:89:e9:
                    d1:e0:ec:c0:53:96:07:5e:31:e5:9b:eb:d3:5c:03:
                    53:3a:04:a5:39:28:6e:10:c1:0f:ff:2b:40:e4:28:
                    54:c7:ce:3d:de:9b:f8:6f:87:55:36:75:05:ce:82:
                    f1:c0:27:b1:62:ce:f3:b3:fc:b9:36:77:1f:15:f7:
                    40:96:d4:28:49:59:6b:cb:be:34:05:44:8d:34:e1:
                    dd:31:02:5a:3c:b9:35:5e:8b:bf:6d:dc:16:57:f5:
                    dd:87:7c:03:2a:a9:65:95:7b:35:15:6f:9d:b5:93:
                    20:91:bf:94:15:35:8e:d4:c8:24:fd:11:bd:39:c7:
                    55:48:14:25:2d:9f:b7:46:83:7e:3d:6e:e6:55:ab:
                    18:34:9f:b0:e4:10:b4:0b:57:6e:16:a9:13:ef:5c:
                    78:a0:f5:52:e0:29:de:31:6a:ff:4b:48:72:6f:0c:
                    96:3a:7c:be:9b:e6:bc:68:61:af:32:03:e1:a0:37:
                    d7:11:ea:ca:88:60:d0:da:f5:1c:b9:1c:7a:b3:a2:
                    82:40:6f:9b:2f:48:44:03:48:f6:3f:2c:c2:d6:df:
                    6f:d2:fb:c8:49:8f:05:ea:38:92:52:3d:a0:ba:40:
                    cf:cd:ae:54:48:35:db:9c:60:40:7c:32:49:83:14:
                    fd:31:64:fb:bd:48:13:c7:fb:88:08:c3:47:0b:86:
                    77:ba:9a:62:47:90:35:2d:ff:96:3a:44:c3:46:38:
                    97:d0:11:d1:21:cf:23:09:b1:d9:a2:3b:b0:24:2b:
                    74:05:ad:aa:01:98:c2:87:31:e8:e2:15:95:5c:e1:
                    31:0f:43
                Exponent: 65537 (0x10001)
        X509v3 extensions:
            X509v3 Basic Constraints: 
                CA:FALSE
            Netscape Comment: 
                Easy-RSA Generated Certificate
            X509v3 Subject Key Identifier: 
                C1:FF:07:2F:28:AC:9D:42:C0:6B:3D:A1:A1:10:DE:49:53:3B:A7:2D
            X509v3 Authority Key Identifier: 
                keyid:12:CD:60:04:D2:A0:80:9E:70:ED:C6:99:B8:7B:2C:C6:52:FD:19:A1
                DirName:/C=US/ST=OH/L=Columbus/O=VikingVPN/OU=MyOrganizationalUnit/CN=VikingVPN CA/name=EasyRSA/emailAddress=me@myhost.mydomain
                serial:CF:35:85:EE:80:BF:2A:3E

            X509v3 Extended Key Usage: 
                TLS Web Client Authentication
            X509v3 Key Usage: 
                Digital Signature
    Signature Algorithm: sha256WithRSAEncryption
         64:cc:e2:4d:7e:a2:dd:fe:1e:5a:88:f6:25:24:03:99:8a:00:
         33:c8:72:f9:d8:1e:fd:83:d1:2d:61:71:f4:78:13:fb:0f:45:
         a2:07:67:6c:20:0a:45:06:e2:4e:b2:e2:b1:1b:78:1d:a1:c1:
         5e:a3:81:6d:ab:cb:25:08:71:87:b4:97:fe:b5:10:ad:17:f2:
         5c:64:e0:e6:32:f7:0b:4c:0c:a1:80:2f:9f:26:33:08:5a:b4:
         11:7e:c6:23:dc:49:a7:b2:42:94:08:87:08:71:f7:9c:af:32:
         a6:ae:00:75:d1:ed:bd:c4:6b:16:3f:55:10:81:b5:7d:c2:9c:
         f1:bd:1e:cd:3b:e0:e4:70:83:b6:4c:54:c8:ff:21:3e:eb:83:
         10:42:7b:bf:d7:9f:6d:70:f5:63:b4:57:eb:e8:f9:72:10:cb:
         2c:a0:6c:aa:3f:5b:54:06:79:1a:69:b5:32:5f:a6:45:09:6b:
         fc:38:00:3f:cc:4b:3c:61:d4:10:0c:b2:79:82:55:05:f9:3f:
         7f:03:25:b6:9e:97:87:94:70:d1:29:7a:6b:c3:97:ce:e9:27:
         49:31:33:16:b3:74:d1:72:e4:1c:7c:e8:43:46:71:4f:52:1e:
         86:70:c3:75:34:ec:7c:7d:e7:f5:83:68:34:10:5b:2e:ba:5e:
         b0:37:b6:60:51:75:b2:05:59:06:56:04:8e:9a:9b:58:7f:74:
         ba:e2:5a:37:a3:5f:64:04:3c:25:08:b5:dc:6e:31:96:39:95:
         96:a2:34:f1:b7:89:3c:a2:b6:91:c3:5b:d8:0c:db:93:76:e3:
         27:38:6c:84:4d:95:4b:05:3c:2f:fe:2c:65:2f:85:c0:64:a1:
         d8:00:5c:8d:18:7c:0b:ca:c2:c3:79:81:78:a3:5b:8a:43:08:
         5c:96:b8:cf:b0:c6:fb:b0:a0:88:f9:1d:6c:47:ee:f3:f4:d9:
         59:81:69:42:40:a2:45:a8:80:b5:58:ef:72:ed:4f:6b:65:d7:
         5b:4f:78:8e:02:63:f1:93:f1:7b:33:c8:63:66:06:ed:f2:db:
         e1:cd:34:61:07:7c:1e:88:50:8a:10:b4:f7:e9:c8:13:e7:50:
         93:4d:15:9a:40:b7:1c:ca:5d:b7:58:4e:e7:35:92:f5:be:65:
         a1:24:c3:fc:ec:1e:93:56:c0:e9:eb:0c:2c:c2:16:5a:17:e8:
         e0:bb:e5:b5:79:84:d4:c0:9b:16:fc:a9:4d:f5:a4:28:b2:76:
         f7:64:e9:54:71:ee:cb:9f:f5:ae:9e:f3:c5:fd:05:ec:6c:a8:
         11:22:af:f7:cb:d6:c0:8d:a4:4d:02:d0:6c:ce:9c:16:22:43:
         cb:c0:47:aa:74:3f:e6:e5
-----BEGIN CERTIFICATE-----
MIIGrTCCBJWgAwIBAgICIUUwDQYJKoZIhvcNAQELBQAwgawxCzAJBgNVBAYTAlVT
MQswCQYDVQQIEwJPSDERMA8GA1UEBxMIQ29sdW1idXMxEjAQBgNVBAoTCVZpa2lu
Z1ZQTjEdMBsGA1UECxMUTXlPcmdhbml6YXRpb25hbFVuaXQxFTATBgNVBAMTDFZp
a2luZ1ZQTiBDQTEQMA4GA1UEKRMHRWFzeVJTQTEhMB8GCSqGSIb3DQEJARYSbWVA
bXlob3N0Lm15ZG9tYWluMB4XDTE2MDcxOTAyMjExNVoXDTI2MDcxNzAyMjExNVow
HzEdMBsGA1UEAxMUQ2xpZW50MjQyNkNlcnRhZjY2MmQwggIiMA0GCSqGSIb3DQEB
AQUAA4ICDwAwggIKAoICAQDHlCuaUqXP9KarBPoaTyJ+f+RjCmngalcucI0IB8GO
dbKWaESQmSVOx+mirsQsIKEYV1y7MrXlD+pEUXa+prBrDe4OJ7XGq8ekRIPShYN5
q4apiRJtf6oMy+Trr9jYxN6P08FTEvMmA3N8hVeXFVIjSmTNWIdtrAjFdUTPr0Qm
nADnAblbl3p3XfqWTVRk4UXBKQNpbQsdvtg/w6d0J9RPmUwvSCbEh0R4QnDXiqA4
zVmqAgOZGeCSkjtgMUo+sWgShsBrx3mD6ltkWLyP3fWJ6dHg7MBTlgdeMeWb69Nc
A1M6BKU5KG4QwQ//K0DkKFTHzj3em/hvh1U2dQXOgvHAJ7FizvOz/Lk2dx8V90CW
1ChJWWvLvjQFRI004d0xAlo8uTVei79t3BZX9d2HfAMqqWWVezUVb521kyCRv5QV
NY7UyCT9Eb05x1VIFCUtn7dGg349buZVqxg0n7DkELQLV24WqRPvXHig9VLgKd4x
av9LSHJvDJY6fL6b5rxoYa8yA+GgN9cR6sqIYNDa9Ry5HHqzooJAb5svSEQDSPY/
LMLW32/S+8hJjwXqOJJSPaC6QM/NrlRINducYEB8MkmDFP0xZPu9SBPH+4gIw0cL
hne6mmJHkDUt/5Y6RMNGOJfQEdEhzyMJsdmiO7AkK3QFraoBmMKHMejiFZVc4TEP
QwIDAQABo4IBYzCCAV8wCQYDVR0TBAIwADAtBglghkgBhvhCAQ0EIBYeRWFzeS1S
U0EgR2VuZXJhdGVkIENlcnRpZmljYXRlMB0GA1UdDgQWBBTB/wcvKKydQsBrPaGh
EN5JUzunLTCB4QYDVR0jBIHZMIHWgBQSzWAE0qCAnnDtxpm4eyzGUv0ZoaGBsqSB
rzCBrDELMAkGA1UEBhMCVVMxCzAJBgNVBAgTAk9IMREwDwYDVQQHEwhDb2x1bWJ1
czESMBAGA1UEChMJVmlraW5nVlBOMR0wGwYDVQQLExRNeU9yZ2FuaXphdGlvbmFs
VW5pdDEVMBMGA1UEAxMMVmlraW5nVlBOIENBMRAwDgYDVQQpEwdFYXN5UlNBMSEw
HwYJKoZIhvcNAQkBFhJtZUBteWhvc3QubXlkb21haW6CCQDPNYXugL8qPjATBgNV
HSUEDDAKBggrBgEFBQcDAjALBgNVHQ8EBAMCB4AwDQYJKoZIhvcNAQELBQADggIB
AGTM4k1+ot3+HlqI9iUkA5mKADPIcvnYHv2D0S1hcfR4E/sPRaIHZ2wgCkUG4k6y
4rEbeB2hwV6jgW2ryyUIcYe0l/61EK0X8lxk4OYy9wtMDKGAL58mMwhatBF+xiPc
SaeyQpQIhwhx95yvMqauAHXR7b3EaxY/VRCBtX3CnPG9Hs074ORwg7ZMVMj/IT7r
gxBCe7/Xn21w9WO0V+vo+XIQyyygbKo/W1QGeRpptTJfpkUJa/w4AD/MSzxh1BAM
snmCVQX5P38DJbael4eUcNEpemvDl87pJ0kxMxazdNFy5Bx86ENGcU9SHoZww3U0
7Hx95/WDaDQQWy66XrA3tmBRdbIFWQZWBI6am1h/dLriWjejX2QEPCUItdxuMZY5
lZaiNPG3iTyitpHDW9gM25N24yc4bIRNlUsFPC/+LGUvhcBkodgAXI0YfAvKwsN5
gXijW4pDCFyWuM+wxvuwoIj5HWxH7vP02VmBaUJAokWogLVY73LtT2tl11tPeI4C
Y/GT8XszyGNmBu3y2+HNNGEHfB6IUIoQtPfpyBPnUJNNFZpAtxzKXbdYTuc1kvW+
ZaEkw/zsHpNWwOnrDCzCFloX6OC75bV5hNTAmxb8qU31pCiydvdk6VRx7suf9a6e
88X9BexsqBEir/fL1sCNpE0C0GzOnBYiQ8vAR6p0P+bl
-----END CERTIFICATE-----
