Certificate:
    Data:
        Version: 3 (0x2)
        Serial Number: 8540 (0x215c)
    Signature Algorithm: sha256WithRSAEncryption
        Issuer: C=US, ST=OH, L=Columbus, O=VikingVPN, OU=MyOrganizationalUnit, CN=VikingVPN CA/name=EasyRSA/emailAddress=me@myhost.mydomain
        Validity
            Not Before: Jul 24 02:15:06 2016 GMT
            Not After : Jul 22 02:15:06 2026 GMT
        Subject: CN=Client1803Cert00e407
        Subject Public Key Info:
            Public Key Algorithm: rsaEncryption
                Public-Key: (4096 bit)
                Modulus:
                    00:c4:7f:ce:88:f1:6f:1a:46:29:fc:75:21:30:67:
                    4d:a7:34:08:65:87:9b:9b:69:35:ef:1d:8f:9b:78:
                    54:fe:04:6b:fc:13:93:d4:17:68:04:a8:c3:c2:08:
                    86:83:09:32:cf:0c:7e:d5:26:cb:62:6d:cf:fd:d0:
                    1a:20:eb:ee:ed:de:11:5e:7b:75:aa:51:6a:4e:72:
                    50:85:6a:f3:d3:7c:50:c1:61:a0:70:3a:c4:43:bc:
                    15:f5:07:70:4c:c4:75:4a:ba:8a:91:2f:28:6a:ef:
                    ed:bb:b0:23:b1:8b:d7:64:31:18:bc:d3:33:bb:e5:
                    76:ce:62:a8:85:c4:8e:6d:40:43:31:4f:c0:d9:54:
                    41:93:24:8b:67:62:b5:f9:86:a6:98:f0:d7:f9:8d:
                    fc:58:40:e7:5d:b4:7a:06:cb:de:ef:8a:fd:75:ab:
                    3a:b3:f4:3e:eb:ba:bf:2c:a2:bd:f4:fd:ea:78:fc:
                    71:bd:07:f7:41:d6:7d:60:6c:48:0b:79:db:c1:68:
                    a0:0e:04:cb:8e:74:44:7c:4c:0c:3a:61:11:ff:f3:
                    cf:e1:2f:8b:08:fa:76:91:fe:dd:73:98:7c:fc:82:
                    6a:9c:d0:fe:9b:06:b8:8f:74:2c:0a:ca:d0:c4:45:
                    8c:eb:3f:5e:b6:87:d9:0c:ea:b2:b9:ec:0d:97:0c:
                    d6:4d:e1:e2:24:e2:ca:a1:a6:3d:95:bc:59:84:56:
                    9c:e4:d7:07:93:22:ae:f7:31:95:88:22:84:b9:64:
                    7e:70:86:65:d9:7c:69:50:4f:6b:1e:d4:51:09:21:
                    36:31:4f:77:86:ec:46:00:45:d5:1a:ee:4a:96:ad:
                    fc:42:2c:5e:49:d0:cd:3f:9e:9f:4c:cb:1c:b7:be:
                    58:7f:b2:9d:7b:2c:a3:e6:f4:85:47:f1:2b:ae:d9:
                    af:b7:a2:fa:ce:d9:a3:4f:9d:a3:fa:e5:aa:2a:c7:
                    20:ee:8a:e2:32:b5:82:58:9a:54:25:95:ce:54:01:
                    ce:4f:b6:7a:14:54:09:7c:8a:56:00:95:c0:e9:72:
                    fc:e2:f5:d8:8b:83:67:6a:a7:2f:e9:d4:3a:d3:1e:
                    7b:28:05:74:4f:8f:68:db:cd:a0:92:0a:7a:9b:96:
                    e4:c7:1c:d3:b4:f0:5d:5a:e0:9d:b5:34:b5:da:ef:
                    1a:31:71:84:a9:bb:25:d4:d3:3b:ed:24:f1:f7:f0:
                    76:f8:0b:a4:91:1b:b9:3d:6a:37:0b:a5:55:27:e5:
                    bb:cc:3e:17:27:cf:7e:05:b5:09:02:25:97:0f:8e:
                    ee:4e:7a:83:03:6e:28:0f:f9:44:06:91:c7:cd:51:
                    e2:48:ac:90:c3:4f:ff:3f:f7:c8:6b:63:7a:65:1b:
                    f8:3f:d5
                Exponent: 65537 (0x10001)
        X509v3 extensions:
            X509v3 Basic Constraints: 
                CA:FALSE
            Netscape Comment: 
                Easy-RSA Generated Certificate
            X509v3 Subject Key Identifier: 
                71:11:0D:26:3D:3D:A1:9C:7D:C2:D5:CE:79:C3:03:99:E7:B3:5E:5D
            X509v3 Authority Key Identifier: 
                keyid:12:CD:60:04:D2:A0:80:9E:70:ED:C6:99:B8:7B:2C:C6:52:FD:19:A1
                DirName:/C=US/ST=OH/L=Columbus/O=VikingVPN/OU=MyOrganizationalUnit/CN=VikingVPN CA/name=EasyRSA/emailAddress=me@myhost.mydomain
                serial:CF:35:85:EE:80:BF:2A:3E

            X509v3 Extended Key Usage: 
                TLS Web Client Authentication
            X509v3 Key Usage: 
                Digital Signature
    Signature Algorithm: sha256WithRSAEncryption
         9a:83:ea:6f:47:f6:15:c2:50:98:77:35:d1:24:25:37:ef:0c:
         3d:8b:8d:ba:1b:87:21:9b:02:54:b2:9f:93:d6:cf:39:9c:79:
         f9:9a:05:e4:66:72:b1:ae:7e:51:99:2e:96:a9:6b:2c:34:c2:
         33:8a:5a:cd:ec:10:29:f8:6a:d0:97:a2:b1:45:57:e7:52:c5:
         90:a7:2b:4c:af:f1:e7:1c:ca:b3:90:77:55:77:66:57:7a:26:
         54:0d:f9:53:55:28:14:a0:03:55:e0:fa:fb:6a:12:ae:30:b1:
         a2:0c:1e:a1:13:10:aa:c0:9f:bc:85:a5:ba:66:d8:3d:2d:b8:
         3b:b9:38:e4:38:03:73:13:5b:fe:14:da:61:bf:21:40:07:9b:
         91:0e:e4:1d:0f:8b:94:84:f0:48:90:fd:c2:87:3c:9d:ec:a3:
         c2:78:3c:62:c9:b2:ec:01:bd:e5:fc:c5:4c:e9:6d:6a:ca:c6:
         97:26:dd:11:02:47:81:8f:8f:ff:f8:88:a5:7f:15:a1:4b:9c:
         de:bf:05:cd:12:dc:1b:b3:81:aa:2e:d3:32:4d:f6:24:0b:6e:
         8d:b8:a3:59:66:3a:e7:99:9d:ad:05:88:5d:fb:26:65:4e:d9:
         d1:3c:f0:52:51:cb:62:f8:ff:a9:58:70:27:38:9b:f6:d0:da:
         2c:c1:fc:3f:34:98:99:69:94:be:cc:0a:8d:00:10:60:86:99:
         8b:24:eb:21:4e:a3:79:c8:91:2c:4c:31:d9:6e:a6:3d:44:0e:
         6d:dd:55:15:4c:7a:9b:78:ac:71:3c:25:d1:ab:64:11:c6:dc:
         fa:8a:47:ed:14:f0:dd:28:da:c5:4a:d7:4a:78:de:6f:5c:6e:
         5a:2d:70:ec:08:42:5b:f0:09:f1:5d:50:cc:c4:25:8b:de:f2:
         c9:90:2f:44:5f:cc:67:f3:f7:5f:d2:cd:5f:a4:78:93:5b:cb:
         1d:27:f8:e2:d8:c1:77:ed:8d:04:21:7a:dc:7c:6e:53:9c:d8:
         1b:87:19:db:3e:e5:12:2b:b2:d9:cc:3b:3d:cb:f0:95:22:4f:
         6d:01:d9:e8:c8:d4:8c:1a:1c:82:0d:6e:4b:d4:38:9c:18:60:
         b7:bb:cf:8b:3a:ce:2d:d9:bf:21:9c:b2:50:3a:2a:7b:56:a3:
         ed:d2:fd:79:4a:8e:80:8d:ec:e7:5e:70:b2:6b:db:35:a8:81:
         7a:5a:65:e4:cf:66:13:2c:9d:22:96:ce:97:a1:f6:23:bd:34:
         89:b5:41:30:ba:fd:95:7f:ef:27:2e:7d:c6:94:ff:9a:1c:a9:
         e5:33:52:a9:85:96:f7:ec:c3:2d:7b:b3:be:45:df:fe:b3:28:
         69:62:8d:f7:0b:1d:41:6b
-----BEGIN CERTIFICATE-----
MIIGrTCCBJWgAwIBAgICIVwwDQYJKoZIhvcNAQELBQAwgawxCzAJBgNVBAYTAlVT
MQswCQYDVQQIEwJPSDERMA8GA1UEBxMIQ29sdW1idXMxEjAQBgNVBAoTCVZpa2lu
Z1ZQTjEdMBsGA1UECxMUTXlPcmdhbml6YXRpb25hbFVuaXQxFTATBgNVBAMTDFZp
a2luZ1ZQTiBDQTEQMA4GA1UEKRMHRWFzeVJTQTEhMB8GCSqGSIb3DQEJARYSbWVA
bXlob3N0Lm15ZG9tYWluMB4XDTE2MDcyNDAyMTUwNloXDTI2MDcyMjAyMTUwNlow
HzEdMBsGA1UEAxMUQ2xpZW50MTgwM0NlcnQwMGU0MDcwggIiMA0GCSqGSIb3DQEB
AQUAA4ICDwAwggIKAoICAQDEf86I8W8aRin8dSEwZ02nNAhlh5ubaTXvHY+beFT+
BGv8E5PUF2gEqMPCCIaDCTLPDH7VJstibc/90Bog6+7t3hFee3WqUWpOclCFavPT
fFDBYaBwOsRDvBX1B3BMxHVKuoqRLyhq7+27sCOxi9dkMRi80zO75XbOYqiFxI5t
QEMxT8DZVEGTJItnYrX5hqaY8Nf5jfxYQOddtHoGy97viv11qzqz9D7rur8sor30
/ep4/HG9B/dB1n1gbEgLedvBaKAOBMuOdER8TAw6YRH/88/hL4sI+naR/t1zmHz8
gmqc0P6bBriPdCwKytDERYzrP162h9kM6rK57A2XDNZN4eIk4sqhpj2VvFmEVpzk
1weTIq73MZWIIoS5ZH5whmXZfGlQT2se1FEJITYxT3eG7EYARdUa7kqWrfxCLF5J
0M0/np9Myxy3vlh/sp17LKPm9IVH8Suu2a+3ovrO2aNPnaP65aoqxyDuiuIytYJY
mlQllc5UAc5PtnoUVAl8ilYAlcDpcvzi9diLg2dqpy/p1DrTHnsoBXRPj2jbzaCS
CnqbluTHHNO08F1a4J21NLXa7xoxcYSpuyXU0zvtJPH38Hb4C6SRG7k9ajcLpVUn
5bvMPhcnz34FtQkCJZcPju5OeoMDbigP+UQGkcfNUeJIrJDDT/8/98hrY3plG/g/
1QIDAQABo4IBYzCCAV8wCQYDVR0TBAIwADAtBglghkgBhvhCAQ0EIBYeRWFzeS1S
U0EgR2VuZXJhdGVkIENlcnRpZmljYXRlMB0GA1UdDgQWBBRxEQ0mPT2hnH3C1c55
wwOZ57NeXTCB4QYDVR0jBIHZMIHWgBQSzWAE0qCAnnDtxpm4eyzGUv0ZoaGBsqSB
rzCBrDELMAkGA1UEBhMCVVMxCzAJBgNVBAgTAk9IMREwDwYDVQQHEwhDb2x1bWJ1
czESMBAGA1UEChMJVmlraW5nVlBOMR0wGwYDVQQLExRNeU9yZ2FuaXphdGlvbmFs
VW5pdDEVMBMGA1UEAxMMVmlraW5nVlBOIENBMRAwDgYDVQQpEwdFYXN5UlNBMSEw
HwYJKoZIhvcNAQkBFhJtZUBteWhvc3QubXlkb21haW6CCQDPNYXugL8qPjATBgNV
HSUEDDAKBggrBgEFBQcDAjALBgNVHQ8EBAMCB4AwDQYJKoZIhvcNAQELBQADggIB
AJqD6m9H9hXCUJh3NdEkJTfvDD2LjbobhyGbAlSyn5PWzzmcefmaBeRmcrGuflGZ
Lpapayw0wjOKWs3sECn4atCXorFFV+dSxZCnK0yv8eccyrOQd1V3Zld6JlQN+VNV
KBSgA1Xg+vtqEq4wsaIMHqETEKrAn7yFpbpm2D0tuDu5OOQ4A3MTW/4U2mG/IUAH
m5EO5B0Pi5SE8EiQ/cKHPJ3so8J4PGLJsuwBveX8xUzpbWrKxpcm3RECR4GPj//4
iKV/FaFLnN6/Bc0S3Buzgaou0zJN9iQLbo24o1lmOueZna0FiF37JmVO2dE88FJR
y2L4/6lYcCc4m/bQ2izB/D80mJlplL7MCo0AEGCGmYsk6yFOo3nIkSxMMdlupj1E
Dm3dVRVMept4rHE8JdGrZBHG3PqKR+0U8N0o2sVK10p43m9cblotcOwIQlvwCfFd
UMzEJYve8smQL0RfzGfz91/SzV+keJNbyx0n+OLYwXftjQQhetx8blOc2BuHGds+
5RIrstnMOz3L8JUiT20B2ejI1IwaHIINbkvUOJwYYLe7z4s6zi3ZvyGcslA6KntW
o+3S/XlKjoCN7OdecLJr2zWogXpaZeTPZhMsnSKWzpeh9iO9NIm1QTC6/ZV/7ycu
fcaU/5ocqeUzUqmFlvfswy17s75F3/6zKGlijfcLHUFr
-----END CERTIFICATE-----
