Certificate:
    Data:
        Version: 3 (0x2)
        Serial Number: 8557 (0x216d)
    Signature Algorithm: sha256WithRSAEncryption
        Issuer: C=US, ST=OH, L=Columbus, O=VikingVPN, OU=MyOrganizationalUnit, CN=VikingVPN CA/name=EasyRSA/emailAddress=me@myhost.mydomain
        Validity
            Not Before: Jul 25 19:35:27 2016 GMT
            Not After : Jul 23 19:35:27 2026 GMT
        Subject: CN=Client1743Certd0b47e
        Subject Public Key Info:
            Public Key Algorithm: rsaEncryption
                Public-Key: (4096 bit)
                Modulus:
                    00:c8:de:8d:09:93:ed:47:09:b9:47:89:a9:7e:33:
                    5a:f3:c4:f6:c4:93:25:45:3a:e1:43:64:5d:60:cf:
                    e8:b2:34:53:18:93:40:0f:4f:40:a5:e6:70:de:7b:
                    b6:7c:cb:19:2f:ec:82:9f:db:cd:5f:0c:dd:99:04:
                    bd:62:41:97:b7:d4:b7:45:2a:55:4a:d4:f3:32:49:
                    66:d8:29:e0:7e:b1:c3:27:74:e1:f1:df:13:e5:bc:
                    b2:63:2e:df:b7:75:40:1a:19:93:72:29:8e:ad:2d:
                    d9:b3:98:64:aa:b7:6f:32:c1:9f:9b:b5:39:28:0f:
                    e9:17:d5:c9:78:3c:01:7e:49:73:48:3a:da:a9:2d:
                    e6:d7:c4:0e:d4:e3:66:30:c5:e6:f1:cc:88:9c:a2:
                    18:34:49:e1:e9:6e:33:f4:a5:9b:bd:27:bc:84:f7:
                    58:a2:a7:65:b9:d1:b8:a0:16:85:52:ac:5a:2e:d0:
                    6e:b4:cd:ea:a5:0d:df:f7:a7:f4:58:93:6d:8d:48:
                    58:3a:7c:a0:26:64:e4:02:a9:c7:3e:fe:75:24:92:
                    e1:b6:54:6c:5d:cd:1a:65:51:32:25:84:da:9e:12:
                    53:04:f9:fe:37:d4:53:50:a9:e8:ba:ab:3f:17:09:
                    60:c4:8f:e5:52:e0:9d:78:2f:1e:91:0e:90:1c:b8:
                    ae:8d:ca:e6:f5:fe:7a:da:cf:12:8c:4c:84:bf:7c:
                    fb:fa:4b:f6:30:80:67:f3:87:9d:4a:f8:b0:e4:c2:
                    44:dc:a5:80:7e:fb:9d:6f:d2:52:15:35:ba:b2:0a:
                    98:8a:87:e1:fc:e3:5d:4d:e9:b9:ae:5d:6e:3d:0f:
                    27:88:fa:06:87:3b:0e:4f:82:67:7c:ed:9a:6a:87:
                    01:2c:b2:53:b9:8d:be:8a:6b:2c:16:6c:74:92:39:
                    94:64:e9:c7:36:e0:ea:b1:47:38:3c:03:01:72:db:
                    f3:d8:29:24:20:77:0b:9f:d9:f0:f9:ec:d3:0f:79:
                    82:37:7c:8a:45:16:4d:79:5f:a4:9e:2e:8e:fd:8f:
                    20:bd:66:0d:a2:ba:0a:c5:fd:ad:9f:36:b6:e5:00:
                    7c:96:1e:48:36:61:4e:2f:4a:1d:b6:ea:6b:5e:36:
                    37:dd:41:e9:08:66:cf:c6:c3:cd:b0:e0:f6:ca:a6:
                    71:de:b4:91:dc:4e:21:aa:d9:6f:dd:c2:6e:89:4f:
                    bc:ca:43:a8:71:9f:f4:b4:56:b3:fa:e0:50:f9:86:
                    df:fb:93:31:31:a2:4a:67:95:12:da:4e:89:a8:6c:
                    62:84:45:e3:65:d1:40:5a:70:03:c9:8f:d6:57:2f:
                    32:e0:6d:8f:d9:a8:78:41:7c:99:cc:e3:72:89:e6:
                    29:89:29
                Exponent: 65537 (0x10001)
        X509v3 extensions:
            X509v3 Basic Constraints: 
                CA:FALSE
            Netscape Comment: 
                Easy-RSA Generated Certificate
            X509v3 Subject Key Identifier: 
                27:BF:C9:8D:EA:04:14:F0:46:47:3C:93:DF:57:1A:58:F2:BF:5F:A8
            X509v3 Authority Key Identifier: 
                keyid:12:CD:60:04:D2:A0:80:9E:70:ED:C6:99:B8:7B:2C:C6:52:FD:19:A1
                DirName:/C=US/ST=OH/L=Columbus/O=VikingVPN/OU=MyOrganizationalUnit/CN=VikingVPN CA/name=EasyRSA/emailAddress=me@myhost.mydomain
                serial:CF:35:85:EE:80:BF:2A:3E

            X509v3 Extended Key Usage: 
                TLS Web Client Authentication
            X509v3 Key Usage: 
                Digital Signature
    Signature Algorithm: sha256WithRSAEncryption
         d6:6b:00:1a:ca:b9:70:98:a0:27:98:f3:19:29:2a:2d:07:5c:
         31:46:9e:d4:2d:68:25:07:07:1b:a5:89:78:8f:9f:2a:c6:41:
         a9:c8:ac:40:09:c7:1a:dc:9c:8a:7d:1f:8f:f5:6b:88:7d:57:
         3a:1b:05:63:57:a7:61:2f:c4:5d:e2:9f:36:2e:33:5c:6d:1e:
         70:13:ab:df:59:a1:07:b1:94:66:ea:7d:d8:0c:45:e8:1e:96:
         35:d8:da:aa:65:9e:0c:b4:91:ba:26:d5:39:16:69:02:3a:2d:
         34:b6:ea:32:3e:de:a9:e3:24:07:56:6a:fd:74:ed:aa:4e:1d:
         93:95:1e:6d:3d:6f:fe:b8:ab:52:eb:1b:39:3c:81:f4:61:8d:
         3b:b6:06:e9:f3:39:f1:49:09:3d:49:eb:b3:44:57:45:e5:2d:
         95:a8:b9:97:1a:91:b5:23:9d:fc:29:4f:86:18:01:0c:2a:e2:
         89:2d:11:81:60:a3:9f:16:97:40:1f:ec:14:69:29:6c:90:1f:
         37:77:30:ce:b0:5c:3f:01:40:1e:7e:28:25:6b:c7:37:e1:36:
         68:81:17:27:43:ce:cd:75:e8:8a:e9:35:4e:ee:6b:8b:07:af:
         34:8e:4c:bc:97:f3:85:6d:2f:15:b8:62:2e:d0:2e:f9:70:76:
         19:01:f0:6c:b9:dd:f2:0b:ef:aa:4d:cd:af:d9:52:4b:a4:f4:
         97:74:ca:01:0e:c4:64:21:5e:2b:de:01:1d:18:7e:d0:56:0f:
         2d:c9:49:e9:17:48:f4:47:be:61:aa:ce:35:c6:7a:56:2d:20:
         c3:3b:5d:51:0b:0f:d6:b7:25:b0:d7:7a:01:09:6b:51:0a:e1:
         ea:7a:10:72:68:e3:8f:15:38:ca:37:4d:cc:7d:e4:51:a5:fe:
         d2:2c:d7:c6:6d:4b:d9:84:26:88:8a:0d:2c:b7:3f:37:b0:a2:
         d0:ba:df:e0:83:3f:56:fe:93:93:cc:6f:23:f0:e6:e3:9e:8d:
         01:9d:d9:ef:fc:66:fc:6c:22:a0:dc:d8:64:60:9c:a0:bc:90:
         1f:7b:7e:1b:c0:79:11:d2:6d:11:4c:50:62:ac:e1:53:c6:9a:
         12:62:ca:7d:02:78:52:5e:08:a5:ea:31:fe:16:bf:6f:7a:cc:
         60:78:6c:85:51:5a:26:b2:7b:ba:13:f2:34:fc:f5:5c:25:7f:
         2f:67:d6:97:f7:e4:04:78:db:9b:5c:bf:38:a1:06:cf:bb:d4:
         c1:00:71:c5:d7:2d:1c:1d:ce:06:f2:be:8b:31:e7:bd:eb:a8:
         ed:94:22:d8:c7:0d:c4:32:d3:20:3a:42:b2:08:9f:98:a7:8c:
         08:91:58:e2:12:27:dc:52
-----BEGIN CERTIFICATE-----
MIIGrTCCBJWgAwIBAgICIW0wDQYJKoZIhvcNAQELBQAwgawxCzAJBgNVBAYTAlVT
MQswCQYDVQQIEwJPSDERMA8GA1UEBxMIQ29sdW1idXMxEjAQBgNVBAoTCVZpa2lu
Z1ZQTjEdMBsGA1UECxMUTXlPcmdhbml6YXRpb25hbFVuaXQxFTATBgNVBAMTDFZp
a2luZ1ZQTiBDQTEQMA4GA1UEKRMHRWFzeVJTQTEhMB8GCSqGSIb3DQEJARYSbWVA
bXlob3N0Lm15ZG9tYWluMB4XDTE2MDcyNTE5MzUyN1oXDTI2MDcyMzE5MzUyN1ow
HzEdMBsGA1UEAxMUQ2xpZW50MTc0M0NlcnRkMGI0N2UwggIiMA0GCSqGSIb3DQEB
AQUAA4ICDwAwggIKAoICAQDI3o0Jk+1HCblHial+M1rzxPbEkyVFOuFDZF1gz+iy
NFMYk0APT0Cl5nDee7Z8yxkv7IKf281fDN2ZBL1iQZe31LdFKlVK1PMySWbYKeB+
scMndOHx3xPlvLJjLt+3dUAaGZNyKY6tLdmzmGSqt28ywZ+btTkoD+kX1cl4PAF+
SXNIOtqpLebXxA7U42YwxebxzIicohg0SeHpbjP0pZu9J7yE91iip2W50bigFoVS
rFou0G60zeqlDd/3p/RYk22NSFg6fKAmZOQCqcc+/nUkkuG2VGxdzRplUTIlhNqe
ElME+f431FNQqei6qz8XCWDEj+VS4J14Lx6RDpAcuK6Nyub1/nrazxKMTIS/fPv6
S/YwgGfzh51K+LDkwkTcpYB++51v0lIVNbqyCpiKh+H8411N6bmuXW49DyeI+gaH
Ow5Pgmd87ZpqhwEsslO5jb6KaywWbHSSOZRk6cc24OqxRzg8AwFy2/PYKSQgdwuf
2fD57NMPeYI3fIpFFk15X6SeLo79jyC9Zg2iugrF/a2fNrblAHyWHkg2YU4vSh22
6mteNjfdQekIZs/Gw82w4PbKpnHetJHcTiGq2W/dwm6JT7zKQ6hxn/S0VrP64FD5
ht/7kzExokpnlRLaTomobGKEReNl0UBacAPJj9ZXLzLgbY/ZqHhBfJnM43KJ5imJ
KQIDAQABo4IBYzCCAV8wCQYDVR0TBAIwADAtBglghkgBhvhCAQ0EIBYeRWFzeS1S
U0EgR2VuZXJhdGVkIENlcnRpZmljYXRlMB0GA1UdDgQWBBQnv8mN6gQU8EZHPJPf
VxpY8r9fqDCB4QYDVR0jBIHZMIHWgBQSzWAE0qCAnnDtxpm4eyzGUv0ZoaGBsqSB
rzCBrDELMAkGA1UEBhMCVVMxCzAJBgNVBAgTAk9IMREwDwYDVQQHEwhDb2x1bWJ1
czESMBAGA1UEChMJVmlraW5nVlBOMR0wGwYDVQQLExRNeU9yZ2FuaXphdGlvbmFs
VW5pdDEVMBMGA1UEAxMMVmlraW5nVlBOIENBMRAwDgYDVQQpEwdFYXN5UlNBMSEw
HwYJKoZIhvcNAQkBFhJtZUBteWhvc3QubXlkb21haW6CCQDPNYXugL8qPjATBgNV
HSUEDDAKBggrBgEFBQcDAjALBgNVHQ8EBAMCB4AwDQYJKoZIhvcNAQELBQADggIB
ANZrABrKuXCYoCeY8xkpKi0HXDFGntQtaCUHBxuliXiPnyrGQanIrEAJxxrcnIp9
H4/1a4h9VzobBWNXp2EvxF3inzYuM1xtHnATq99ZoQexlGbqfdgMRegeljXY2qpl
ngy0kbom1TkWaQI6LTS26jI+3qnjJAdWav107apOHZOVHm09b/64q1LrGzk8gfRh
jTu2BunzOfFJCT1J67NEV0XlLZWouZcakbUjnfwpT4YYAQwq4oktEYFgo58Wl0Af
7BRpKWyQHzd3MM6wXD8BQB5+KCVrxzfhNmiBFydDzs116IrpNU7ua4sHrzSOTLyX
84VtLxW4Yi7QLvlwdhkB8Gy53fIL76pNza/ZUkuk9Jd0ygEOxGQhXiveAR0YftBW
Dy3JSekXSPRHvmGqzjXGelYtIMM7XVELD9a3JbDXegEJa1EK4ep6EHJo448VOMo3
Tcx95FGl/tIs18ZtS9mEJoiKDSy3PzewotC63+CDP1b+k5PMbyPw5uOejQGd2e/8
ZvxsIqDc2GRgnKC8kB97fhvAeRHSbRFMUGKs4VPGmhJiyn0CeFJeCKXqMf4Wv296
zGB4bIVRWiaye7oT8jT89Vwlfy9n1pf35AR425tcvzihBs+71MEAccXXLRwdzgby
vosx573rqO2UItjHDcQy0yA6QrIIn5injAiRWOISJ9xS
-----END CERTIFICATE-----
