Certificate:
    Data:
        Version: 3 (0x2)
        Serial Number: 8559 (0x216f)
    Signature Algorithm: sha256WithRSAEncryption
        Issuer: C=US, ST=OH, L=Columbus, O=VikingVPN, OU=MyOrganizationalUnit, CN=VikingVPN CA/name=EasyRSA/emailAddress=me@myhost.mydomain
        Validity
            Not Before: Jul 25 20:14:35 2016 GMT
            Not After : Jul 23 20:14:35 2026 GMT
        Subject: CN=Client2435Certcfc951
        Subject Public Key Info:
            Public Key Algorithm: rsaEncryption
                Public-Key: (4096 bit)
                Modulus:
                    00:d8:2a:35:5b:a8:37:52:be:58:3a:4c:b6:41:68:
                    e0:a1:90:44:97:3c:b8:ad:09:01:96:9e:dd:dc:3d:
                    23:cb:53:70:b2:cc:c3:cc:87:6a:d5:2c:57:48:fa:
                    43:72:8d:77:07:98:55:8f:33:d2:43:3d:8a:4c:3b:
                    5e:70:4f:b1:f5:54:34:87:8f:c2:7c:7c:45:0c:c8:
                    79:6d:5e:33:d7:db:77:19:df:f1:e4:5f:8f:75:e7:
                    16:2d:07:5d:6e:10:e5:70:dc:a7:31:f7:0e:0e:e7:
                    a3:3e:17:54:cc:ed:86:1e:42:3c:20:43:c1:ee:9a:
                    2d:5e:f2:f2:b3:f6:26:b0:45:17:44:ba:f9:ed:1b:
                    6d:a9:fb:ef:a5:b3:00:db:12:2c:1e:d4:81:ce:e5:
                    4e:e1:fa:49:86:8c:67:09:0a:d7:b3:49:2c:b2:5e:
                    03:1b:2f:00:60:b7:1d:50:a1:b8:0d:a1:17:d5:1c:
                    2f:a1:41:d4:be:ba:88:30:a0:16:24:ab:22:24:34:
                    4f:f5:a3:1a:97:1c:b1:28:a2:21:8c:e1:22:3a:88:
                    20:ec:56:b1:4b:11:a2:c9:4f:52:cb:2d:d0:a5:7f:
                    ac:86:6e:34:2e:5b:51:c5:62:14:3d:e0:e3:ab:0b:
                    dd:55:5e:49:01:01:ce:a6:30:48:06:26:b8:39:5f:
                    01:a6:65:70:1a:89:85:58:29:2c:e4:03:29:4a:91:
                    c5:3b:ee:4d:28:51:20:0d:a2:ce:e5:53:77:a2:ab:
                    ed:f8:c0:86:41:56:b3:f5:65:7f:00:95:3d:5b:f8:
                    10:df:aa:d3:3f:4e:6a:24:ec:a8:52:59:85:fb:21:
                    d2:3f:25:a6:d9:42:09:ad:33:3e:56:3b:f5:23:a6:
                    42:a0:d5:48:e7:d4:12:21:b5:c8:3e:27:84:e6:e4:
                    72:2d:bf:ec:d4:5e:48:53:0f:c8:a4:c6:35:6c:c2:
                    66:24:cc:1d:af:a3:2b:2d:9f:1a:81:60:ea:01:06:
                    94:d9:f9:d0:29:ba:3f:00:65:e2:fa:73:d9:ee:8a:
                    45:8e:59:b9:ce:34:cd:c6:bb:8a:6f:24:ab:e5:30:
                    86:86:0d:7b:07:bb:36:bb:7a:b9:19:ff:3b:af:92:
                    17:fe:17:25:84:f6:c2:46:f4:ca:ef:ae:a9:44:67:
                    9f:6b:57:39:19:01:de:38:97:ee:ff:f9:d3:87:5e:
                    ee:05:95:0c:52:f4:65:c1:31:5c:18:3f:95:bb:52:
                    fd:31:06:6a:7d:1d:26:fd:67:7e:83:28:6d:f6:18:
                    71:dd:bf:40:76:c7:36:1e:2e:c6:91:53:1e:81:f2:
                    a8:33:7b:1d:e8:fd:63:df:b0:ad:d9:e8:bf:0d:d4:
                    ae:f1:a1
                Exponent: 65537 (0x10001)
        X509v3 extensions:
            X509v3 Basic Constraints: 
                CA:FALSE
            Netscape Comment: 
                Easy-RSA Generated Certificate
            X509v3 Subject Key Identifier: 
                8B:90:D2:89:E9:A7:95:03:F1:17:EE:07:92:D6:5C:FF:B4:5D:FE:74
            X509v3 Authority Key Identifier: 
                keyid:12:CD:60:04:D2:A0:80:9E:70:ED:C6:99:B8:7B:2C:C6:52:FD:19:A1
                DirName:/C=US/ST=OH/L=Columbus/O=VikingVPN/OU=MyOrganizationalUnit/CN=VikingVPN CA/name=EasyRSA/emailAddress=me@myhost.mydomain
                serial:CF:35:85:EE:80:BF:2A:3E

            X509v3 Extended Key Usage: 
                TLS Web Client Authentication
            X509v3 Key Usage: 
                Digital Signature
    Signature Algorithm: sha256WithRSAEncryption
         d2:78:ae:12:d2:7c:ce:37:e7:4b:18:6a:62:8d:18:7d:8e:70:
         50:80:10:25:76:9b:96:04:d8:c0:cb:e0:02:e5:78:5f:d9:56:
         30:ad:5e:09:c8:72:14:49:7c:29:3d:90:02:c4:52:95:46:d4:
         8d:ea:3f:a9:dc:98:8c:18:a7:0c:30:e1:82:08:53:3e:6a:3c:
         d5:14:bb:25:81:e5:26:e2:d1:e8:00:ec:79:d4:f7:2b:33:30:
         aa:9e:0a:f5:60:31:e2:71:98:fc:e1:bc:93:35:55:78:43:10:
         85:a3:94:e4:4c:aa:d1:95:f0:e1:8e:b9:b3:47:60:b1:04:e6:
         80:19:22:77:ef:4e:24:3e:e1:08:70:5f:1f:9b:6d:59:2a:00:
         e1:ce:d3:55:d8:cf:49:0a:6d:af:fc:1c:93:c6:0e:93:fe:b1:
         67:e1:5c:71:e9:6f:be:47:ff:f4:aa:c3:e8:52:84:bc:29:fe:
         69:55:e6:4e:5e:d5:8e:f1:27:66:91:63:db:b9:b5:fe:57:45:
         70:0a:6f:2f:94:d5:67:14:65:f6:ab:16:9f:9d:e7:59:42:a7:
         08:ca:3c:78:7b:34:cd:87:ac:a3:14:10:2d:e6:85:e9:34:8b:
         6f:e3:d1:45:e2:98:c6:54:8a:88:1a:62:37:c1:b6:7c:c8:64:
         3e:cd:e1:c7:69:d5:06:2d:93:e0:a6:62:61:b3:71:06:7e:de:
         ec:6b:2e:1a:c1:53:4f:bf:32:1c:4b:80:ca:30:16:1b:63:07:
         96:33:68:ac:19:e6:3d:43:f1:cd:f9:2e:43:51:66:97:d6:d4:
         8f:17:b3:b5:40:e3:95:f1:0d:b4:93:19:bd:32:4f:f5:1d:3a:
         34:0c:76:39:e9:37:24:f6:42:c1:62:24:35:ab:16:e0:dd:96:
         46:b0:48:35:90:7f:fe:54:22:1b:a7:50:ee:5f:66:b0:c7:8c:
         ea:8d:a4:54:f9:51:9f:48:e6:df:3b:03:f1:8d:d4:5b:d8:4d:
         9d:c9:4f:8c:99:bc:67:3e:39:bf:d5:8a:3c:5d:82:ff:35:f4:
         40:55:83:65:57:71:87:e8:07:8a:fc:08:4c:69:c1:2f:e9:a1:
         d2:fb:06:6e:19:45:20:ca:98:1d:2c:d1:09:fc:cd:8b:59:70:
         31:46:19:6c:d0:33:84:ea:74:c6:bf:53:b9:6d:27:a8:c5:5d:
         d5:22:7b:1f:0d:cb:1b:48:71:ce:ff:90:d7:ac:05:63:f2:8f:
         80:0b:77:bf:3e:ce:74:1f:df:77:a0:ac:53:ef:8b:00:64:8e:
         75:8b:fe:62:9d:b7:5a:0f:e3:69:84:e2:42:3e:06:f0:47:10:
         74:ab:28:cd:e9:d5:65:c0
-----BEGIN CERTIFICATE-----
MIIGrTCCBJWgAwIBAgICIW8wDQYJKoZIhvcNAQELBQAwgawxCzAJBgNVBAYTAlVT
MQswCQYDVQQIEwJPSDERMA8GA1UEBxMIQ29sdW1idXMxEjAQBgNVBAoTCVZpa2lu
Z1ZQTjEdMBsGA1UECxMUTXlPcmdhbml6YXRpb25hbFVuaXQxFTATBgNVBAMTDFZp
a2luZ1ZQTiBDQTEQMA4GA1UEKRMHRWFzeVJTQTEhMB8GCSqGSIb3DQEJARYSbWVA
bXlob3N0Lm15ZG9tYWluMB4XDTE2MDcyNTIwMTQzNVoXDTI2MDcyMzIwMTQzNVow
HzEdMBsGA1UEAxMUQ2xpZW50MjQzNUNlcnRjZmM5NTEwggIiMA0GCSqGSIb3DQEB
AQUAA4ICDwAwggIKAoICAQDYKjVbqDdSvlg6TLZBaOChkESXPLitCQGWnt3cPSPL
U3CyzMPMh2rVLFdI+kNyjXcHmFWPM9JDPYpMO15wT7H1VDSHj8J8fEUMyHltXjPX
23cZ3/HkX4915xYtB11uEOVw3Kcx9w4O56M+F1TM7YYeQjwgQ8Humi1e8vKz9iaw
RRdEuvntG22p+++lswDbEiwe1IHO5U7h+kmGjGcJCtezSSyyXgMbLwBgtx1QobgN
oRfVHC+hQdS+uogwoBYkqyIkNE/1oxqXHLEooiGM4SI6iCDsVrFLEaLJT1LLLdCl
f6yGbjQuW1HFYhQ94OOrC91VXkkBAc6mMEgGJrg5XwGmZXAaiYVYKSzkAylKkcU7
7k0oUSANos7lU3eiq+34wIZBVrP1ZX8AlT1b+BDfqtM/Tmok7KhSWYX7IdI/JabZ
QgmtMz5WO/UjpkKg1Ujn1BIhtcg+J4Tm5HItv+zUXkhTD8ikxjVswmYkzB2voyst
nxqBYOoBBpTZ+dApuj8AZeL6c9nuikWOWbnONM3Gu4pvJKvlMIaGDXsHuza7erkZ
/zuvkhf+FyWE9sJG9MrvrqlEZ59rVzkZAd44l+7/+dOHXu4FlQxS9GXBMVwYP5W7
Uv0xBmp9HSb9Z36DKG32GHHdv0B2xzYeLsaRUx6B8qgzex3o/WPfsK3Z6L8N1K7x
oQIDAQABo4IBYzCCAV8wCQYDVR0TBAIwADAtBglghkgBhvhCAQ0EIBYeRWFzeS1S
U0EgR2VuZXJhdGVkIENlcnRpZmljYXRlMB0GA1UdDgQWBBSLkNKJ6aeVA/EX7geS
1lz/tF3+dDCB4QYDVR0jBIHZMIHWgBQSzWAE0qCAnnDtxpm4eyzGUv0ZoaGBsqSB
rzCBrDELMAkGA1UEBhMCVVMxCzAJBgNVBAgTAk9IMREwDwYDVQQHEwhDb2x1bWJ1
czESMBAGA1UEChMJVmlraW5nVlBOMR0wGwYDVQQLExRNeU9yZ2FuaXphdGlvbmFs
VW5pdDEVMBMGA1UEAxMMVmlraW5nVlBOIENBMRAwDgYDVQQpEwdFYXN5UlNBMSEw
HwYJKoZIhvcNAQkBFhJtZUBteWhvc3QubXlkb21haW6CCQDPNYXugL8qPjATBgNV
HSUEDDAKBggrBgEFBQcDAjALBgNVHQ8EBAMCB4AwDQYJKoZIhvcNAQELBQADggIB
ANJ4rhLSfM4350sYamKNGH2OcFCAECV2m5YE2MDL4ALleF/ZVjCtXgnIchRJfCk9
kALEUpVG1I3qP6ncmIwYpwww4YIIUz5qPNUUuyWB5Sbi0egA7HnU9yszMKqeCvVg
MeJxmPzhvJM1VXhDEIWjlORMqtGV8OGOubNHYLEE5oAZInfvTiQ+4QhwXx+bbVkq
AOHO01XYz0kKba/8HJPGDpP+sWfhXHHpb75H//Sqw+hShLwp/mlV5k5e1Y7xJ2aR
Y9u5tf5XRXAKby+U1WcUZfarFp+d51lCpwjKPHh7NM2HrKMUEC3mhek0i2/j0UXi
mMZUiogaYjfBtnzIZD7N4cdp1QYtk+CmYmGzcQZ+3uxrLhrBU0+/MhxLgMowFhtj
B5YzaKwZ5j1D8c35LkNRZpfW1I8Xs7VA45XxDbSTGb0yT/UdOjQMdjnpNyT2QsFi
JDWrFuDdlkawSDWQf/5UIhunUO5fZrDHjOqNpFT5UZ9I5t87A/GN1FvYTZ3JT4yZ
vGc+Ob/Vijxdgv819EBVg2VXcYfoB4r8CExpwS/podL7Bm4ZRSDKmB0s0Qn8zYtZ
cDFGGWzQM4TqdMa/U7ltJ6jFXdUiex8NyxtIcc7/kNesBWPyj4ALd78+znQf33eg
rFPviwBkjnWL/mKdt1oP42mE4kI+BvBHEHSrKM3p1WXA
-----END CERTIFICATE-----
