Certificate:
    Data:
        Version: 3 (0x2)
        Serial Number: 8561 (0x2171)
    Signature Algorithm: sha256WithRSAEncryption
        Issuer: C=US, ST=OH, L=Columbus, O=VikingVPN, OU=MyOrganizationalUnit, CN=VikingVPN CA/name=EasyRSA/emailAddress=me@myhost.mydomain
        Validity
            Not Before: Jul 26 04:27:22 2016 GMT
            Not After : Jul 24 04:27:22 2026 GMT
        Subject: CN=Client148Cert33bde7
        Subject Public Key Info:
            Public Key Algorithm: rsaEncryption
                Public-Key: (4096 bit)
                Modulus:
                    00:d8:ee:2b:0d:8d:d1:e6:36:36:42:ed:25:85:13:
                    2e:9d:57:05:38:9d:c3:32:01:20:6e:fd:75:b4:bd:
                    54:89:c6:a2:2f:aa:cf:ce:0e:9c:6b:50:bf:54:64:
                    3e:66:5f:e9:b7:05:41:8c:0d:1f:82:5e:16:98:75:
                    db:25:67:66:b8:6d:73:bf:d9:d3:2d:dc:8f:a7:aa:
                    e1:23:12:02:3a:7a:26:ee:ce:04:9b:e4:1a:04:51:
                    03:6c:e0:17:75:6d:c8:c9:57:f2:0f:4b:d6:6e:26:
                    a3:07:a0:ef:74:14:53:e9:87:49:bd:51:41:a8:c8:
                    3a:97:10:2e:26:fd:c3:32:30:58:15:3e:74:6f:d3:
                    ba:cf:63:d9:d0:e0:2e:0c:6c:b6:c9:58:29:60:4d:
                    32:b2:ea:fc:63:9b:f9:d3:98:6e:5d:bb:65:0e:8d:
                    01:7a:e5:d7:1b:35:a6:d4:f4:f9:92:a8:d0:1b:02:
                    eb:ca:a5:ab:08:0d:44:ed:13:84:bf:32:2b:c5:f5:
                    ea:1b:71:5c:6e:99:dc:17:91:58:d6:b6:c7:13:be:
                    a3:28:18:dc:fa:9c:0e:aa:a8:a9:12:ef:ac:83:f2:
                    60:f4:b2:71:29:d2:e1:42:92:87:ef:5f:7e:4c:60:
                    80:a5:0f:49:10:5c:a6:bd:54:11:6a:57:d5:8a:e9:
                    55:80:45:4a:9f:b7:d1:70:76:7e:66:21:c6:cc:c4:
                    8e:92:04:b7:5f:00:a1:f1:86:c0:fa:5b:e8:d7:f8:
                    61:76:b3:b2:ab:a5:a8:27:90:15:b2:5b:a9:c8:80:
                    c4:fc:35:dd:02:d0:8c:9e:e5:4e:2c:cc:6d:93:bf:
                    39:c7:63:e6:4a:7b:de:06:81:f2:80:d9:44:9b:b5:
                    58:4d:7d:45:00:39:d0:46:5a:3b:c3:5f:48:d2:fd:
                    1b:fd:84:21:60:0a:e2:4c:e2:17:cd:46:5b:66:35:
                    e8:07:8f:5a:d5:a6:87:4d:c8:94:f5:f7:be:64:76:
                    18:95:84:7e:48:13:7e:79:85:10:04:8e:6a:9e:c0:
                    99:df:c6:72:7f:dd:e3:c1:ca:60:8a:3a:30:41:ff:
                    18:f9:f4:12:6d:3b:bf:4e:a1:53:00:84:3d:58:fd:
                    49:6b:1e:5f:7a:14:c6:92:7e:29:06:c1:9f:08:1c:
                    40:de:86:63:a6:e5:40:b2:de:51:06:ff:9b:cc:3e:
                    dc:d3:c2:68:ee:91:06:3b:61:3d:76:1b:31:08:03:
                    14:3c:80:6d:eb:e8:55:38:6c:bb:e5:ab:17:06:15:
                    6c:89:95:d0:a2:8f:a1:2d:4f:ec:58:3b:ff:4e:a1:
                    90:f8:35:93:13:fa:96:25:8b:58:1d:7e:0e:c0:c8:
                    a4:43:f3
                Exponent: 65537 (0x10001)
        X509v3 extensions:
            X509v3 Basic Constraints: 
                CA:FALSE
            Netscape Comment: 
                Easy-RSA Generated Certificate
            X509v3 Subject Key Identifier: 
                5A:7C:45:14:A7:49:C3:32:67:6A:8E:1C:43:B9:CC:5D:F4:29:AE:39
            X509v3 Authority Key Identifier: 
                keyid:12:CD:60:04:D2:A0:80:9E:70:ED:C6:99:B8:7B:2C:C6:52:FD:19:A1
                DirName:/C=US/ST=OH/L=Columbus/O=VikingVPN/OU=MyOrganizationalUnit/CN=VikingVPN CA/name=EasyRSA/emailAddress=me@myhost.mydomain
                serial:CF:35:85:EE:80:BF:2A:3E

            X509v3 Extended Key Usage: 
                TLS Web Client Authentication
            X509v3 Key Usage: 
                Digital Signature
    Signature Algorithm: sha256WithRSAEncryption
         df:16:63:a0:60:f7:bb:b1:10:f7:e0:f1:00:0e:3f:8b:49:a0:
         b0:95:e5:c5:93:d0:36:3d:35:37:56:51:f3:22:9b:2f:ea:15:
         ab:9e:19:e6:75:b8:19:a0:bf:ba:c1:ff:68:a0:88:c7:ed:b9:
         4f:5c:84:9a:75:10:01:2a:9d:c8:8e:d9:85:ac:ae:c1:c3:3a:
         b3:4b:be:5e:2e:02:b9:c7:33:cb:24:14:97:d5:46:2b:2a:cc:
         0f:84:d4:68:cc:c2:1a:ad:53:a3:94:a2:79:73:a6:47:34:95:
         aa:f7:25:11:2e:ec:cc:ea:af:83:b7:ae:13:39:92:12:fb:37:
         37:a8:16:9e:be:e3:c6:e9:db:88:55:06:9a:e0:0a:6c:b9:a5:
         e6:e0:f7:7d:90:c3:68:2c:e4:09:7b:da:1a:13:3e:96:6a:1b:
         2c:0a:fe:c7:47:a6:06:17:41:ef:16:72:34:f6:75:47:ce:36:
         4d:bd:ea:7c:c9:cc:f3:1d:7c:c5:ee:bf:7e:88:e1:e7:af:e8:
         18:ab:bd:60:80:22:32:48:bc:63:c2:2e:07:46:ff:06:d4:dc:
         fc:fb:4f:cb:b7:8d:8d:f6:1f:a6:62:b5:48:e4:b7:ec:c6:34:
         f2:b7:b9:fc:e1:24:d9:c6:0a:33:94:c1:3d:26:42:2d:99:2d:
         d6:80:ca:59:46:3c:83:3c:96:17:a2:98:ba:3b:3d:2b:b9:e9:
         52:40:97:76:8e:bf:46:e2:c9:ba:6d:e8:5e:8a:df:38:f7:e8:
         3e:58:18:ab:37:d9:10:ee:81:b5:b4:d6:89:fe:75:54:dc:cc:
         93:b4:f6:51:ce:26:be:1a:80:75:cb:5d:26:62:73:b5:23:67:
         99:0b:f6:b0:c0:85:97:2b:3e:99:1d:88:73:0f:b6:ac:02:eb:
         50:90:ed:b1:d3:c3:2c:1e:6d:b3:a2:5b:93:97:b2:c8:93:90:
         9c:7b:0b:5d:f2:29:fa:45:8f:b6:3b:e6:b2:f3:4e:1e:8e:1e:
         99:94:cf:16:57:02:ac:61:7d:6b:68:4e:95:ea:32:eb:5e:c9:
         b1:a9:bb:64:19:66:05:5c:3f:e3:a8:6a:f8:c3:e7:66:5e:8f:
         68:99:45:ea:48:ac:a4:97:d3:83:1e:94:d5:d1:f4:e0:e2:77:
         ab:25:45:f4:17:63:6c:d2:b5:83:c6:69:2c:90:ee:29:fb:85:
         40:e4:49:e7:0c:dc:26:75:0c:ff:40:19:f2:65:72:e6:9b:40:
         28:8e:df:96:95:04:38:0f:50:3c:f2:06:76:5b:a7:97:a4:f4:
         2b:9b:d6:0a:96:e3:cf:5a:d2:5c:07:e8:ac:c9:18:9d:01:b9:
         18:b2:90:00:de:43:01:0a
-----BEGIN CERTIFICATE-----
MIIGrDCCBJSgAwIBAgICIXEwDQYJKoZIhvcNAQELBQAwgawxCzAJBgNVBAYTAlVT
MQswCQYDVQQIEwJPSDERMA8GA1UEBxMIQ29sdW1idXMxEjAQBgNVBAoTCVZpa2lu
Z1ZQTjEdMBsGA1UECxMUTXlPcmdhbml6YXRpb25hbFVuaXQxFTATBgNVBAMTDFZp
a2luZ1ZQTiBDQTEQMA4GA1UEKRMHRWFzeVJTQTEhMB8GCSqGSIb3DQEJARYSbWVA
bXlob3N0Lm15ZG9tYWluMB4XDTE2MDcyNjA0MjcyMloXDTI2MDcyNDA0MjcyMlow
HjEcMBoGA1UEAxMTQ2xpZW50MTQ4Q2VydDMzYmRlNzCCAiIwDQYJKoZIhvcNAQEB
BQADggIPADCCAgoCggIBANjuKw2N0eY2NkLtJYUTLp1XBTidwzIBIG79dbS9VInG
oi+qz84OnGtQv1RkPmZf6bcFQYwNH4JeFph12yVnZrhtc7/Z0y3cj6eq4SMSAjp6
Ju7OBJvkGgRRA2zgF3VtyMlX8g9L1m4moweg73QUU+mHSb1RQajIOpcQLib9wzIw
WBU+dG/Tus9j2dDgLgxstslYKWBNMrLq/GOb+dOYbl27ZQ6NAXrl1xs1ptT0+ZKo
0BsC68qlqwgNRO0ThL8yK8X16htxXG6Z3BeRWNa2xxO+oygY3PqcDqqoqRLvrIPy
YPSycSnS4UKSh+9ffkxggKUPSRBcpr1UEWpX1YrpVYBFSp+30XB2fmYhxszEjpIE
t18AofGGwPpb6Nf4YXazsqulqCeQFbJbqciAxPw13QLQjJ7lTizMbZO/Ocdj5kp7
3gaB8oDZRJu1WE19RQA50EZaO8NfSNL9G/2EIWAK4kziF81GW2Y16AePWtWmh03I
lPX3vmR2GJWEfkgTfnmFEASOap7Amd/Gcn/d48HKYIo6MEH/GPn0Em07v06hUwCE
PVj9SWseX3oUxpJ+KQbBnwgcQN6GY6blQLLeUQb/m8w+3NPCaO6RBjthPXYbMQgD
FDyAbevoVThsu+WrFwYVbImV0KKPoS1P7Fg7/06hkPg1kxP6liWLWB1+DsDIpEPz
AgMBAAGjggFjMIIBXzAJBgNVHRMEAjAAMC0GCWCGSAGG+EIBDQQgFh5FYXN5LVJT
QSBHZW5lcmF0ZWQgQ2VydGlmaWNhdGUwHQYDVR0OBBYEFFp8RRSnScMyZ2qOHEO5
zF30Ka45MIHhBgNVHSMEgdkwgdaAFBLNYATSoICecO3Gmbh7LMZS/RmhoYGypIGv
MIGsMQswCQYDVQQGEwJVUzELMAkGA1UECBMCT0gxETAPBgNVBAcTCENvbHVtYnVz
MRIwEAYDVQQKEwlWaWtpbmdWUE4xHTAbBgNVBAsTFE15T3JnYW5pemF0aW9uYWxV
bml0MRUwEwYDVQQDEwxWaWtpbmdWUE4gQ0ExEDAOBgNVBCkTB0Vhc3lSU0ExITAf
BgkqhkiG9w0BCQEWEm1lQG15aG9zdC5teWRvbWFpboIJAM81he6Avyo+MBMGA1Ud
JQQMMAoGCCsGAQUFBwMCMAsGA1UdDwQEAwIHgDANBgkqhkiG9w0BAQsFAAOCAgEA
3xZjoGD3u7EQ9+DxAA4/i0mgsJXlxZPQNj01N1ZR8yKbL+oVq54Z5nW4GaC/usH/
aKCIx+25T1yEmnUQASqdyI7ZhayuwcM6s0u+Xi4CucczyyQUl9VGKyrMD4TUaMzC
Gq1To5SieXOmRzSVqvclES7szOqvg7euEzmSEvs3N6gWnr7jxunbiFUGmuAKbLml
5uD3fZDDaCzkCXvaGhM+lmobLAr+x0emBhdB7xZyNPZ1R842Tb3qfMnM8x18xe6/
fojh56/oGKu9YIAiMki8Y8IuB0b/BtTc/PtPy7eNjfYfpmK1SOS37MY08re5/OEk
2cYKM5TBPSZCLZkt1oDKWUY8gzyWF6KYujs9K7npUkCXdo6/RuLJum3oXorfOPfo
PlgYqzfZEO6BtbTWif51VNzMk7T2Uc4mvhqAdctdJmJztSNnmQv2sMCFlys+mR2I
cw+2rALrUJDtsdPDLB5ts6Jbk5eyyJOQnHsLXfIp+kWPtjvmsvNOHo4emZTPFlcC
rGF9a2hOleoy617Jsam7ZBlmBVw/46hq+MPnZl6PaJlF6kispJfTgx6U1dH04OJ3
qyVF9BdjbNK1g8ZpLJDuKfuFQORJ5wzcJnUM/0AZ8mVy5ptAKI7flpUEOA9QPPIG
dlunl6T0K5vWCpbjz1rSXAforMkYnQG5GLKQAN5DAQo=
-----END CERTIFICATE-----
