Certificate:
    Data:
        Version: 3 (0x2)
        Serial Number: 8566 (0x2176)
    Signature Algorithm: sha256WithRSAEncryption
        Issuer: C=US, ST=OH, L=Columbus, O=VikingVPN, OU=MyOrganizationalUnit, CN=VikingVPN CA/name=EasyRSA/emailAddress=me@myhost.mydomain
        Validity
            Not Before: Jul 26 23:22:32 2016 GMT
            Not After : Jul 24 23:22:32 2026 GMT
        Subject: CN=Client627Cert74e59b
        Subject Public Key Info:
            Public Key Algorithm: rsaEncryption
                Public-Key: (4096 bit)
                Modulus:
                    00:9d:9a:0e:ef:61:f0:8e:be:a8:96:66:c6:ba:93:
                    35:15:4b:d7:b0:e3:68:52:9a:f9:38:e6:a4:36:38:
                    2d:ee:45:74:59:ce:55:1a:a1:72:eb:dd:d1:38:45:
                    18:5a:e1:a6:86:8f:88:58:66:5b:a9:d2:ad:78:ff:
                    78:bc:2c:de:ca:fb:d4:aa:3e:8b:7b:e3:03:16:36:
                    e8:7d:63:4a:a8:1d:d3:1d:02:16:31:9b:1a:6a:6b:
                    c2:c5:e5:a3:c4:87:09:96:31:a8:20:11:c2:0e:03:
                    d3:f3:da:dc:e0:c0:c0:72:6f:7c:d1:d2:1f:2a:df:
                    e5:90:74:95:fe:b4:d9:81:b7:4a:ad:51:d3:70:aa:
                    6c:a9:a3:d7:61:15:cb:20:f0:34:87:aa:53:b5:2e:
                    bf:c4:01:49:fd:f5:51:4c:04:23:ed:82:58:05:64:
                    e3:e6:05:02:b2:9f:18:ac:dc:af:cc:81:81:e9:52:
                    51:ae:ef:5f:94:e9:52:e4:6a:5b:43:89:59:88:50:
                    2e:3e:dd:d4:ec:56:1e:25:9d:05:91:d6:77:f3:6a:
                    1e:63:aa:fe:2a:73:6b:9a:19:6d:7f:31:ab:f2:5f:
                    58:1c:58:26:fc:7b:35:48:6e:dc:a9:db:9d:c0:65:
                    a0:db:d4:6c:b1:67:e0:93:0b:72:b8:1a:01:f8:e6:
                    f8:7f:25:39:59:58:1d:7a:3c:0f:e9:08:1f:8d:f1:
                    5d:17:d4:c2:e5:6f:88:73:6c:c1:f4:40:f3:4c:1e:
                    5a:aa:ee:71:ad:d2:f5:1f:f9:06:55:7f:94:90:68:
                    7c:b0:92:a3:5c:88:96:21:d3:e7:a1:93:4d:21:a4:
                    34:fc:66:b2:76:66:ef:e7:0d:2c:76:60:4f:cb:d6:
                    26:d8:5d:bb:71:41:1e:29:16:f6:6e:2e:05:52:71:
                    f5:c3:bd:98:2a:ee:f5:47:b4:c0:12:a4:cc:f9:6a:
                    54:8c:2d:c5:5f:cf:1d:de:31:c3:d9:36:d0:cd:4d:
                    8d:28:82:f9:19:4b:03:46:56:e7:df:5f:8d:e0:9f:
                    a6:da:45:8d:6b:98:5f:05:43:04:af:20:6e:14:62:
                    a5:14:9f:89:f4:9c:93:d9:ca:a4:fe:ee:3b:ed:67:
                    82:f8:72:e6:ee:08:0a:ef:e5:90:6b:36:b5:cd:f7:
                    56:f7:89:d2:18:3d:63:44:76:d8:9e:db:03:1a:cd:
                    06:54:8b:cc:53:fe:d4:bf:2a:c3:fc:15:81:9b:47:
                    9d:bf:a5:da:b5:fe:57:84:2d:63:2d:6a:63:a4:9d:
                    c2:0f:c0:c2:3c:f2:9b:37:13:0e:fb:38:b3:c3:7f:
                    b4:93:df:ef:3e:90:d6:19:e9:cd:03:6f:f7:b9:83:
                    8e:c2:3d
                Exponent: 65537 (0x10001)
        X509v3 extensions:
            X509v3 Basic Constraints: 
                CA:FALSE
            Netscape Comment: 
                Easy-RSA Generated Certificate
            X509v3 Subject Key Identifier: 
                9F:81:3D:B2:6A:F2:35:EC:A5:76:C3:8E:46:A2:17:E1:4E:C5:41:B0
            X509v3 Authority Key Identifier: 
                keyid:12:CD:60:04:D2:A0:80:9E:70:ED:C6:99:B8:7B:2C:C6:52:FD:19:A1
                DirName:/C=US/ST=OH/L=Columbus/O=VikingVPN/OU=MyOrganizationalUnit/CN=VikingVPN CA/name=EasyRSA/emailAddress=me@myhost.mydomain
                serial:CF:35:85:EE:80:BF:2A:3E

            X509v3 Extended Key Usage: 
                TLS Web Client Authentication
            X509v3 Key Usage: 
                Digital Signature
    Signature Algorithm: sha256WithRSAEncryption
         b4:46:fc:aa:3c:6a:be:72:8a:93:cf:83:c0:1f:a3:88:a8:f7:
         83:5f:04:6f:0f:eb:7c:b4:48:cf:f3:ba:7c:5e:e4:3f:b3:4c:
         16:ae:d6:2c:c4:45:7b:a5:25:e4:38:2b:e7:45:dd:f0:07:af:
         3f:db:a5:a5:45:5a:b1:8f:00:d6:68:be:1e:7a:e4:5c:71:87:
         20:9f:bc:bd:1c:19:2c:30:e7:0c:1e:a7:f8:8d:d6:96:b5:1e:
         d2:13:2c:a7:21:ad:9b:45:ff:8d:f4:98:63:67:d4:7d:06:75:
         bb:65:bd:29:21:a7:fa:f4:59:c0:eb:f6:66:ce:c4:aa:a2:a8:
         3c:00:97:d1:ce:e1:30:f1:23:67:e1:b7:2a:f2:ee:7c:e5:3d:
         fd:89:2d:06:47:a3:15:ca:c8:aa:64:4c:9f:e6:b5:61:d1:00:
         51:68:a5:c7:36:fd:ba:5c:0d:af:fd:85:e6:19:fb:52:68:7b:
         16:14:e8:62:57:1d:a1:ab:cb:41:fc:95:ab:16:22:a7:c9:2a:
         78:75:0c:6d:46:47:fc:d8:72:2f:bf:12:6d:12:5d:53:71:d8:
         5f:18:73:30:9a:c8:8c:6c:50:79:88:24:d1:9d:20:92:f8:2d:
         03:48:99:9d:a4:3c:28:53:8a:2f:86:6d:aa:99:fd:f4:89:d8:
         7f:3f:e2:37:f0:e1:35:47:ca:0d:7c:42:75:15:44:dc:c2:22:
         25:b3:d3:0d:de:d5:89:64:95:bc:6a:78:a7:4a:60:9a:40:79:
         3c:34:f7:f0:46:9e:ea:3d:eb:0e:e0:ba:70:2b:cd:84:8e:1d:
         9a:eb:f0:b0:10:13:f8:db:98:17:26:a5:c5:8f:c8:30:1a:ec:
         3c:96:d7:74:f1:00:67:73:55:81:6b:4a:d8:37:e7:04:ad:23:
         1b:c6:b5:6a:74:99:1c:4f:8c:45:39:fa:fb:cd:8c:44:4d:11:
         19:9e:9f:83:62:28:c4:0f:04:62:b1:02:62:2c:15:d5:4a:bb:
         d7:5a:53:a2:1c:86:c1:d4:f0:ad:e6:8a:cf:03:c2:26:da:83:
         58:54:4c:07:c3:d5:dc:1e:11:33:43:f4:ea:2d:65:3e:0a:e9:
         54:28:1b:b0:10:59:24:1b:e2:c0:9d:58:3b:30:b0:6c:94:31:
         bf:e2:39:0a:22:4b:34:da:a2:92:2b:41:8e:03:ab:46:e4:ac:
         73:ee:e9:e7:42:02:99:1f:9c:8a:7d:0c:ec:9a:7e:8b:e8:40:
         9d:3f:a9:68:1b:5d:3c:78:31:19:7b:cf:84:72:52:e8:86:a0:
         23:be:05:40:5e:d0:98:10:14:f5:66:48:25:3e:e6:03:b9:ea:
         95:07:8c:41:95:af:42:ed
-----BEGIN CERTIFICATE-----
MIIGrDCCBJSgAwIBAgICIXYwDQYJKoZIhvcNAQELBQAwgawxCzAJBgNVBAYTAlVT
MQswCQYDVQQIEwJPSDERMA8GA1UEBxMIQ29sdW1idXMxEjAQBgNVBAoTCVZpa2lu
Z1ZQTjEdMBsGA1UECxMUTXlPcmdhbml6YXRpb25hbFVuaXQxFTATBgNVBAMTDFZp
a2luZ1ZQTiBDQTEQMA4GA1UEKRMHRWFzeVJTQTEhMB8GCSqGSIb3DQEJARYSbWVA
bXlob3N0Lm15ZG9tYWluMB4XDTE2MDcyNjIzMjIzMloXDTI2MDcyNDIzMjIzMlow
HjEcMBoGA1UEAxMTQ2xpZW50NjI3Q2VydDc0ZTU5YjCCAiIwDQYJKoZIhvcNAQEB
BQADggIPADCCAgoCggIBAJ2aDu9h8I6+qJZmxrqTNRVL17DjaFKa+TjmpDY4Le5F
dFnOVRqhcuvd0ThFGFrhpoaPiFhmW6nSrXj/eLws3sr71Ko+i3vjAxY26H1jSqgd
0x0CFjGbGmprwsXlo8SHCZYxqCARwg4D0/Pa3ODAwHJvfNHSHyrf5ZB0lf602YG3
Sq1R03CqbKmj12EVyyDwNIeqU7Uuv8QBSf31UUwEI+2CWAVk4+YFArKfGKzcr8yB
gelSUa7vX5TpUuRqW0OJWYhQLj7d1OxWHiWdBZHWd/NqHmOq/ipza5oZbX8xq/Jf
WBxYJvx7NUhu3KnbncBloNvUbLFn4JMLcrgaAfjm+H8lOVlYHXo8D+kIH43xXRfU
wuVviHNswfRA80weWqruca3S9R/5BlV/lJBofLCSo1yIliHT56GTTSGkNPxmsnZm
7+cNLHZgT8vWJthdu3FBHikW9m4uBVJx9cO9mCru9Ue0wBKkzPlqVIwtxV/PHd4x
w9k20M1NjSiC+RlLA0ZW599fjeCfptpFjWuYXwVDBK8gbhRipRSfifSck9nKpP7u
O+1ngvhy5u4ICu/lkGs2tc33VveJ0hg9Y0R22J7bAxrNBlSLzFP+1L8qw/wVgZtH
nb+l2rX+V4QtYy1qY6Sdwg/AwjzymzcTDvs4s8N/tJPf7z6Q1hnpzQNv97mDjsI9
AgMBAAGjggFjMIIBXzAJBgNVHRMEAjAAMC0GCWCGSAGG+EIBDQQgFh5FYXN5LVJT
QSBHZW5lcmF0ZWQgQ2VydGlmaWNhdGUwHQYDVR0OBBYEFJ+BPbJq8jXspXbDjkai
F+FOxUGwMIHhBgNVHSMEgdkwgdaAFBLNYATSoICecO3Gmbh7LMZS/RmhoYGypIGv
MIGsMQswCQYDVQQGEwJVUzELMAkGA1UECBMCT0gxETAPBgNVBAcTCENvbHVtYnVz
MRIwEAYDVQQKEwlWaWtpbmdWUE4xHTAbBgNVBAsTFE15T3JnYW5pemF0aW9uYWxV
bml0MRUwEwYDVQQDEwxWaWtpbmdWUE4gQ0ExEDAOBgNVBCkTB0Vhc3lSU0ExITAf
BgkqhkiG9w0BCQEWEm1lQG15aG9zdC5teWRvbWFpboIJAM81he6Avyo+MBMGA1Ud
JQQMMAoGCCsGAQUFBwMCMAsGA1UdDwQEAwIHgDANBgkqhkiG9w0BAQsFAAOCAgEA
tEb8qjxqvnKKk8+DwB+jiKj3g18Ebw/rfLRIz/O6fF7kP7NMFq7WLMRFe6Ul5Dgr
50Xd8AevP9ulpUVasY8A1mi+HnrkXHGHIJ+8vRwZLDDnDB6n+I3WlrUe0hMspyGt
m0X/jfSYY2fUfQZ1u2W9KSGn+vRZwOv2Zs7EqqKoPACX0c7hMPEjZ+G3KvLufOU9
/YktBkejFcrIqmRMn+a1YdEAUWilxzb9ulwNr/2F5hn7Umh7FhToYlcdoavLQfyV
qxYip8kqeHUMbUZH/NhyL78SbRJdU3HYXxhzMJrIjGxQeYgk0Z0gkvgtA0iZnaQ8
KFOKL4Ztqpn99InYfz/iN/DhNUfKDXxCdRVE3MIiJbPTDd7ViWSVvGp4p0pgmkB5
PDT38Eae6j3rDuC6cCvNhI4dmuvwsBAT+NuYFyalxY/IMBrsPJbXdPEAZ3NVgWtK
2DfnBK0jG8a1anSZHE+MRTn6+82MRE0RGZ6fg2IoxA8EYrECYiwV1Uq711pTohyG
wdTwreaKzwPCJtqDWFRMB8PV3B4RM0P06i1lPgrpVCgbsBBZJBviwJ1YOzCwbJQx
v+I5CiJLNNqikitBjgOrRuSsc+7p50ICmR+cin0M7Jp+i+hAnT+paBtdPHgxGXvP
hHJS6IagI74FQF7QmBAU9WZIJT7mA7nqlQeMQZWvQu0=
-----END CERTIFICATE-----
