Certificate:
    Data:
        Version: 3 (0x2)
        Serial Number: 8572 (0x217c)
    Signature Algorithm: sha256WithRSAEncryption
        Issuer: C=US, ST=OH, L=Columbus, O=VikingVPN, OU=MyOrganizationalUnit, CN=VikingVPN CA/name=EasyRSA/emailAddress=me@myhost.mydomain
        Validity
            Not Before: Jul 27 03:35:38 2016 GMT
            Not After : Jul 25 03:35:38 2026 GMT
        Subject: CN=Client2436Certf21127
        Subject Public Key Info:
            Public Key Algorithm: rsaEncryption
                Public-Key: (4096 bit)
                Modulus:
                    00:bc:78:d6:db:66:e9:c4:33:e9:f5:26:37:2c:7a:
                    c6:ca:50:f6:57:db:ad:e2:b6:8b:f3:c5:07:dc:08:
                    5c:23:e6:ee:93:35:8b:d0:01:41:19:be:c1:d6:91:
                    d2:69:70:c0:4c:1b:9d:f7:94:f2:e2:be:46:bb:3d:
                    88:e6:6f:bb:0e:49:3a:33:8e:ac:7a:dc:36:b3:6c:
                    11:7f:e9:53:82:a3:46:7c:e3:42:d0:1f:21:ac:9c:
                    b0:53:b3:4b:e1:da:6e:b2:57:f4:16:a0:da:c8:1e:
                    5d:5e:3a:98:e7:0f:39:c5:f0:b0:21:4b:8f:2e:8a:
                    c7:1a:be:49:27:e1:92:f8:ff:ce:f5:f2:46:65:0a:
                    b8:ea:4b:48:56:0a:a8:8a:6a:4a:bb:0d:6f:32:4e:
                    d3:d7:c1:6f:b6:08:23:9b:2d:bc:0d:cd:67:b8:60:
                    54:91:4d:d6:05:2b:91:8a:66:71:ba:6a:41:0b:b9:
                    1d:e3:77:f0:d1:19:da:0e:32:2a:69:77:24:a2:57:
                    6d:34:8c:71:91:b8:33:d3:4c:9f:f6:86:e9:89:00:
                    e0:e1:b5:bd:2c:d9:da:36:68:3f:b6:a1:ec:ce:47:
                    72:23:5b:c3:3c:f2:2e:fd:f3:4e:fa:6d:de:8d:9a:
                    65:b9:c8:71:c9:a2:09:ab:64:72:db:8c:a6:62:1b:
                    8b:c2:45:2a:d9:61:03:df:41:2b:d0:b1:b3:fe:a7:
                    5c:87:55:56:a5:80:e2:bf:f1:37:9b:9c:da:02:98:
                    80:41:9e:8f:19:19:e8:c1:ec:c3:e3:4c:36:c4:7d:
                    3d:69:f7:ad:37:2b:66:6c:2e:2e:79:90:f5:27:e6:
                    28:3f:41:83:a7:1d:a7:8d:aa:32:53:f9:ab:ad:e5:
                    5b:76:da:73:58:6e:fa:a3:d1:ae:74:0f:78:87:4f:
                    39:b3:32:e2:fc:37:4f:78:fe:a4:99:30:a1:55:20:
                    61:dd:3e:b7:ef:d5:77:4e:c2:b5:f4:a5:6c:d8:2b:
                    6b:f4:70:ad:45:09:56:ed:82:85:d1:e2:54:8d:d4:
                    ca:25:8d:13:e0:f2:1c:91:18:65:dc:78:8d:8d:73:
                    48:aa:9d:38:e0:d0:4d:7f:8e:db:16:3a:13:4a:9b:
                    96:54:75:c8:93:a3:f8:cf:21:1a:0d:9f:a8:6e:ef:
                    90:05:99:2d:5b:d9:e5:f6:88:29:9f:2f:c0:f9:57:
                    78:42:7f:f1:95:43:38:b6:02:64:8f:06:6c:2f:7b:
                    15:8b:75:52:72:3c:b6:a0:0b:e1:ed:8c:eb:ba:d0:
                    cc:1c:78:0c:0f:bf:2e:1a:dc:87:01:43:77:e6:22:
                    26:d3:96:3a:4d:15:7c:03:51:f5:6d:7f:aa:aa:25:
                    c4:92:37
                Exponent: 65537 (0x10001)
        X509v3 extensions:
            X509v3 Basic Constraints: 
                CA:FALSE
            Netscape Comment: 
                Easy-RSA Generated Certificate
            X509v3 Subject Key Identifier: 
                9B:AF:CC:48:23:B3:E2:BB:A3:EB:01:55:9C:E9:6A:2F:B1:5B:96:D9
            X509v3 Authority Key Identifier: 
                keyid:12:CD:60:04:D2:A0:80:9E:70:ED:C6:99:B8:7B:2C:C6:52:FD:19:A1
                DirName:/C=US/ST=OH/L=Columbus/O=VikingVPN/OU=MyOrganizationalUnit/CN=VikingVPN CA/name=EasyRSA/emailAddress=me@myhost.mydomain
                serial:CF:35:85:EE:80:BF:2A:3E

            X509v3 Extended Key Usage: 
                TLS Web Client Authentication
            X509v3 Key Usage: 
                Digital Signature
    Signature Algorithm: sha256WithRSAEncryption
         95:49:28:28:95:34:fb:4c:70:cb:8a:fe:7e:c2:89:f6:28:07:
         39:f3:1c:2a:6f:2e:03:21:f2:36:74:64:e2:b2:a6:e6:fe:44:
         40:c6:4e:e9:53:47:4f:16:5d:5b:2f:33:38:23:3f:39:be:28:
         87:d4:3a:5d:7a:15:bd:36:67:fe:0b:f8:6e:8c:5b:8d:af:ab:
         12:c6:d9:78:25:95:03:1d:51:fb:4c:c2:7b:c1:9d:19:5b:f8:
         55:b1:fa:38:59:ae:a1:3c:52:02:86:79:6c:2e:57:cb:62:a2:
         a2:dd:77:3e:0c:7b:90:d3:32:c7:1e:0c:44:58:ef:2d:23:2a:
         57:0a:6e:e9:8e:d4:e0:61:fd:b1:32:1e:eb:51:69:77:2c:4f:
         c5:cb:5f:ac:a3:07:d0:c7:30:31:c8:6c:f1:2d:77:d8:69:a9:
         5c:e7:94:98:0f:b4:da:97:49:df:8e:04:16:fc:6e:3d:8a:df:
         6b:f8:d7:e9:44:1b:a1:80:b8:26:16:23:b0:7e:58:66:1a:dc:
         15:ad:12:58:eb:a5:3e:cc:66:c5:a0:eb:e5:c9:e7:09:8a:6b:
         a9:40:8a:26:2c:47:e6:c5:db:2b:8c:3e:0b:ba:65:a8:b8:cf:
         61:36:d7:e3:28:20:91:f8:75:36:a4:0f:d5:33:e8:2e:38:fa:
         87:5f:80:ce:68:e9:bc:57:f4:61:56:1c:4f:91:c6:82:fe:35:
         38:10:1e:1c:aa:2f:2e:9c:12:6e:10:91:e9:9f:54:ed:2e:a8:
         7d:aa:75:01:84:76:9a:b5:ab:7b:75:b9:59:18:05:b1:34:b9:
         b3:2a:86:e2:78:ce:e4:af:20:d4:fa:97:21:54:0a:15:45:99:
         e0:f8:79:c0:59:17:ab:ba:e7:5e:09:f3:22:36:a9:55:f8:ab:
         77:57:a5:a9:08:b3:3e:62:1b:87:1f:02:ee:73:7c:99:bc:bd:
         70:55:61:86:dd:79:3f:5c:32:44:23:0e:73:20:59:2d:02:08:
         01:fd:10:9c:02:89:83:1f:f8:bb:00:53:48:29:20:48:15:a8:
         a7:ee:c1:32:6d:82:97:26:4c:fe:31:a5:ba:14:b5:13:42:f6:
         1f:c0:14:95:3a:91:f5:80:4b:9c:79:2d:fc:b1:a9:d1:2a:64:
         d1:cc:23:02:45:5b:f8:84:dc:f3:a2:5a:f8:bc:62:10:e2:72:
         ad:e3:10:e5:a7:eb:e8:b6:bb:1d:99:c2:6f:09:26:09:25:17:
         a9:12:44:f4:59:75:89:af:c8:4f:bc:00:06:6f:53:a7:dc:c7:
         02:2b:d9:ce:68:2e:19:e1:68:fa:f1:18:03:97:f0:14:71:bb:
         25:82:32:b3:4f:f8:fb:89
-----BEGIN CERTIFICATE-----
MIIGrTCCBJWgAwIBAgICIXwwDQYJKoZIhvcNAQELBQAwgawxCzAJBgNVBAYTAlVT
MQswCQYDVQQIEwJPSDERMA8GA1UEBxMIQ29sdW1idXMxEjAQBgNVBAoTCVZpa2lu
Z1ZQTjEdMBsGA1UECxMUTXlPcmdhbml6YXRpb25hbFVuaXQxFTATBgNVBAMTDFZp
a2luZ1ZQTiBDQTEQMA4GA1UEKRMHRWFzeVJTQTEhMB8GCSqGSIb3DQEJARYSbWVA
bXlob3N0Lm15ZG9tYWluMB4XDTE2MDcyNzAzMzUzOFoXDTI2MDcyNTAzMzUzOFow
HzEdMBsGA1UEAxMUQ2xpZW50MjQzNkNlcnRmMjExMjcwggIiMA0GCSqGSIb3DQEB
AQUAA4ICDwAwggIKAoICAQC8eNbbZunEM+n1JjcsesbKUPZX263itovzxQfcCFwj
5u6TNYvQAUEZvsHWkdJpcMBMG533lPLivka7PYjmb7sOSTozjqx63DazbBF/6VOC
o0Z840LQHyGsnLBTs0vh2m6yV/QWoNrIHl1eOpjnDznF8LAhS48uiscavkkn4ZL4
/8718kZlCrjqS0hWCqiKakq7DW8yTtPXwW+2CCObLbwNzWe4YFSRTdYFK5GKZnG6
akELuR3jd/DRGdoOMippdySiV200jHGRuDPTTJ/2humJAODhtb0s2do2aD+2oezO
R3IjW8M88i798076bd6NmmW5yHHJogmrZHLbjKZiG4vCRSrZYQPfQSvQsbP+p1yH
VValgOK/8TebnNoCmIBBno8ZGejB7MPjTDbEfT1p9603K2ZsLi55kPUn5ig/QYOn
HaeNqjJT+aut5Vt22nNYbvqj0a50D3iHTzmzMuL8N094/qSZMKFVIGHdPrfv1XdO
wrX0pWzYK2v0cK1FCVbtgoXR4lSN1MoljRPg8hyRGGXceI2Nc0iqnTjg0E1/jtsW
OhNKm5ZUdciTo/jPIRoNn6hu75AFmS1b2eX2iCmfL8D5V3hCf/GVQzi2AmSPBmwv
exWLdVJyPLagC+HtjOu60MwceAwPvy4a3IcBQ3fmIibTljpNFXwDUfVtf6qqJcSS
NwIDAQABo4IBYzCCAV8wCQYDVR0TBAIwADAtBglghkgBhvhCAQ0EIBYeRWFzeS1S
U0EgR2VuZXJhdGVkIENlcnRpZmljYXRlMB0GA1UdDgQWBBSbr8xII7Piu6PrAVWc
6WovsVuW2TCB4QYDVR0jBIHZMIHWgBQSzWAE0qCAnnDtxpm4eyzGUv0ZoaGBsqSB
rzCBrDELMAkGA1UEBhMCVVMxCzAJBgNVBAgTAk9IMREwDwYDVQQHEwhDb2x1bWJ1
czESMBAGA1UEChMJVmlraW5nVlBOMR0wGwYDVQQLExRNeU9yZ2FuaXphdGlvbmFs
VW5pdDEVMBMGA1UEAxMMVmlraW5nVlBOIENBMRAwDgYDVQQpEwdFYXN5UlNBMSEw
HwYJKoZIhvcNAQkBFhJtZUBteWhvc3QubXlkb21haW6CCQDPNYXugL8qPjATBgNV
HSUEDDAKBggrBgEFBQcDAjALBgNVHQ8EBAMCB4AwDQYJKoZIhvcNAQELBQADggIB
AJVJKCiVNPtMcMuK/n7CifYoBznzHCpvLgMh8jZ0ZOKypub+REDGTulTR08WXVsv
MzgjPzm+KIfUOl16Fb02Z/4L+G6MW42vqxLG2XgllQMdUftMwnvBnRlb+FWx+jhZ
rqE8UgKGeWwuV8tioqLddz4Me5DTMsceDERY7y0jKlcKbumO1OBh/bEyHutRaXcs
T8XLX6yjB9DHMDHIbPEtd9hpqVznlJgPtNqXSd+OBBb8bj2K32v41+lEG6GAuCYW
I7B+WGYa3BWtEljrpT7MZsWg6+XJ5wmKa6lAiiYsR+bF2yuMPgu6Zai4z2E21+Mo
IJH4dTakD9Uz6C44+odfgM5o6bxX9GFWHE+RxoL+NTgQHhyqLy6cEm4QkemfVO0u
qH2qdQGEdpq1q3t1uVkYBbE0ubMqhuJ4zuSvINT6lyFUChVFmeD4ecBZF6u6514J
8yI2qVX4q3dXpakIsz5iG4cfAu5zfJm8vXBVYYbdeT9cMkQjDnMgWS0CCAH9EJwC
iYMf+LsAU0gpIEgVqKfuwTJtgpcmTP4xpboUtRNC9h/AFJU6kfWAS5x5LfyxqdEq
ZNHMIwJFW/iE3POiWvi8YhDicq3jEOWn6+i2ux2Zwm8JJgklF6kSRPRZdYmvyE+8
AAZvU6fcxwIr2c5oLhnhaPrxGAOX8BRxuyWCMrNP+PuJ
-----END CERTIFICATE-----
