Certificate:
    Data:
        Version: 3 (0x2)
        Serial Number: 8573 (0x217d)
    Signature Algorithm: sha256WithRSAEncryption
        Issuer: C=US, ST=OH, L=Columbus, O=VikingVPN, OU=MyOrganizationalUnit, CN=VikingVPN CA/name=EasyRSA/emailAddress=me@myhost.mydomain
        Validity
            Not Before: Jul 27 04:13:53 2016 GMT
            Not After : Jul 25 04:13:53 2026 GMT
        Subject: CN=Client2437Cert288238
        Subject Public Key Info:
            Public Key Algorithm: rsaEncryption
                Public-Key: (4096 bit)
                Modulus:
                    00:a1:85:ef:21:f4:b5:79:04:c1:9f:67:5b:eb:ee:
                    97:27:66:2a:08:d7:26:2e:50:f8:ab:ea:9c:d8:2d:
                    60:31:6a:43:03:c6:20:ac:68:f4:9a:f0:6d:7f:2f:
                    e1:1d:e6:7b:6d:d2:58:80:06:25:e8:a6:1f:11:90:
                    42:a7:65:67:a2:e9:e2:c9:b4:42:54:2b:3c:17:ca:
                    2b:7d:e2:72:41:a6:d7:92:e3:18:a5:2c:25:81:5c:
                    98:ba:99:59:2f:82:61:ff:00:ee:27:e5:24:20:7e:
                    6a:79:92:5f:6c:b1:bf:c2:1d:d5:e6:13:24:f6:f9:
                    85:39:3e:ca:ac:da:e0:d7:5f:48:53:f8:28:4d:96:
                    67:87:9b:2f:2c:f2:62:c2:36:bf:3a:39:db:b2:4c:
                    47:bd:a4:bd:dd:c1:d6:d2:ac:ca:7d:2f:05:2f:df:
                    ef:80:2c:63:7b:52:a5:fc:df:ea:57:a8:3f:f5:78:
                    61:b7:0b:01:73:fe:c7:1a:63:8d:39:c5:28:d1:50:
                    c8:24:85:60:7d:3a:be:4d:0f:6d:36:3a:a1:e8:b3:
                    c3:b9:f8:9e:e6:0e:36:89:6b:16:24:05:92:dd:70:
                    cc:0d:50:44:4a:75:9e:34:20:99:36:0c:50:1d:20:
                    9a:e8:ff:10:75:47:b4:d9:66:9e:1c:14:3a:d1:78:
                    b5:ad:53:75:ac:58:6f:f7:b0:ca:63:cb:5c:dd:36:
                    1a:f8:24:6b:03:8e:7a:94:d3:67:8f:20:1e:8d:46:
                    be:e1:4a:f3:43:2f:ea:f9:d1:a8:f5:0e:40:35:30:
                    98:dd:e8:55:43:70:db:f5:cd:8d:ef:32:93:a4:53:
                    54:35:a3:94:5e:9e:ac:50:ce:2f:69:33:13:67:7d:
                    97:c3:a6:7a:80:c9:2b:ce:6e:74:f0:0e:fb:03:2a:
                    8a:d4:18:27:63:f4:5f:b5:14:1c:72:6f:20:b9:6c:
                    f5:e1:7d:bc:dc:bf:c7:14:e2:99:a8:56:27:77:c8:
                    1c:38:ed:c1:c8:3f:7e:0c:57:82:b4:ce:1f:54:01:
                    1c:63:8c:c5:35:31:71:08:58:90:fe:2f:e9:8a:e3:
                    7c:64:1c:a5:00:20:19:14:85:27:43:da:04:4c:75:
                    26:5f:a0:89:81:f8:e2:03:08:9c:1e:6e:c4:14:ed:
                    40:6b:59:16:6f:38:42:f3:55:57:1e:1f:2f:62:55:
                    47:a4:46:54:ff:9a:a6:34:1e:35:49:59:73:0b:ad:
                    2d:bb:28:69:06:20:93:8d:e3:62:07:9f:dd:0f:80:
                    13:ec:b4:3f:4d:bd:9d:c9:3e:a8:ef:ce:86:f6:17:
                    10:6c:84:96:6c:56:11:2b:0f:be:2b:3b:4e:0e:1a:
                    ca:7a:65
                Exponent: 65537 (0x10001)
        X509v3 extensions:
            X509v3 Basic Constraints: 
                CA:FALSE
            Netscape Comment: 
                Easy-RSA Generated Certificate
            X509v3 Subject Key Identifier: 
                84:AA:CB:69:37:F7:7C:C3:88:9F:7B:2E:9A:B2:30:C9:D2:03:CB:3A
            X509v3 Authority Key Identifier: 
                keyid:12:CD:60:04:D2:A0:80:9E:70:ED:C6:99:B8:7B:2C:C6:52:FD:19:A1
                DirName:/C=US/ST=OH/L=Columbus/O=VikingVPN/OU=MyOrganizationalUnit/CN=VikingVPN CA/name=EasyRSA/emailAddress=me@myhost.mydomain
                serial:CF:35:85:EE:80:BF:2A:3E

            X509v3 Extended Key Usage: 
                TLS Web Client Authentication
            X509v3 Key Usage: 
                Digital Signature
    Signature Algorithm: sha256WithRSAEncryption
         03:c3:39:70:39:1d:62:54:e2:06:2d:18:f9:fe:3e:44:2d:50:
         e3:ee:9d:2f:18:fc:cc:06:02:17:e3:ed:56:0f:2c:72:d5:77:
         9c:48:bb:6f:b7:df:a1:f1:82:4b:54:71:92:75:46:79:56:a3:
         98:71:9c:92:ab:62:6d:6b:c7:38:a8:ab:ff:8c:f7:9d:89:0f:
         31:86:f8:e4:ee:cd:6a:07:50:00:2d:ab:01:1a:da:2b:47:94:
         51:3f:d7:ed:1f:e7:c2:f1:83:5d:c0:20:90:54:f6:8a:6e:b9:
         c5:1a:d0:82:75:32:ab:8a:e1:50:1c:e2:84:c5:52:d3:ce:77:
         fb:66:fa:90:14:98:32:a6:fd:a5:e6:f4:92:1b:aa:94:f7:e4:
         ac:e7:4a:a4:ec:dd:22:9b:91:27:6b:1d:2e:d7:06:fa:3b:4e:
         e8:1e:0a:94:b8:48:66:97:18:66:d7:e6:86:59:15:5a:24:80:
         8f:04:ea:44:1c:fc:87:5e:51:53:65:ea:ba:4a:71:44:8d:12:
         69:4c:8c:0e:21:51:41:ba:94:8c:c2:c4:8a:c4:28:28:89:7f:
         6d:e2:0d:e4:7e:64:69:c0:a5:5d:ca:2b:b6:a2:47:b5:b5:4f:
         0f:3f:df:5a:62:17:3e:b9:1e:8f:f1:39:fd:47:9c:93:d4:98:
         a8:6b:de:63:f3:5e:63:d5:2b:c2:f4:ac:db:b8:95:63:28:eb:
         75:c9:c8:15:49:7a:ca:9e:35:27:86:bd:f8:30:e8:63:2d:03:
         ce:bd:da:01:1e:29:f0:a8:34:01:83:05:76:9f:b7:68:c8:46:
         67:f5:97:b6:cc:82:16:bd:e1:f3:49:c3:7d:e6:31:31:d1:d0:
         00:6d:23:b0:f0:4d:3f:7b:e5:99:a5:7d:e2:0f:31:69:6a:1d:
         98:52:fe:36:68:2e:9f:dc:ac:2b:0c:d9:48:f2:75:f7:ab:78:
         16:be:0c:ce:7e:12:1a:95:41:98:06:f4:df:c1:8c:46:ce:5a:
         99:b7:04:db:8a:5d:f0:95:0a:ee:48:bf:ff:67:ab:f9:26:aa:
         cd:8b:1e:20:1f:5e:aa:e9:ef:82:4e:b5:f9:44:a6:ed:1b:68:
         d1:83:f6:bb:da:1b:db:6d:57:e6:69:56:6b:61:22:4a:af:8d:
         c6:cd:fe:bd:7c:a7:da:0e:de:61:b9:a3:dc:7e:1c:02:fd:d9:
         06:a1:e0:dd:cc:9d:f5:4f:b2:9b:42:ff:63:1c:1b:41:aa:c7:
         f7:60:ac:23:7f:35:57:a0:80:bf:8e:50:2e:71:47:ef:f5:77:
         fe:5b:08:33:cd:fd:a8:f6:c2:c3:56:2c:1f:dc:4d:f6:53:39:
         bb:25:ef:3d:70:51:ce:f8
-----BEGIN CERTIFICATE-----
MIIGrTCCBJWgAwIBAgICIX0wDQYJKoZIhvcNAQELBQAwgawxCzAJBgNVBAYTAlVT
MQswCQYDVQQIEwJPSDERMA8GA1UEBxMIQ29sdW1idXMxEjAQBgNVBAoTCVZpa2lu
Z1ZQTjEdMBsGA1UECxMUTXlPcmdhbml6YXRpb25hbFVuaXQxFTATBgNVBAMTDFZp
a2luZ1ZQTiBDQTEQMA4GA1UEKRMHRWFzeVJTQTEhMB8GCSqGSIb3DQEJARYSbWVA
bXlob3N0Lm15ZG9tYWluMB4XDTE2MDcyNzA0MTM1M1oXDTI2MDcyNTA0MTM1M1ow
HzEdMBsGA1UEAxMUQ2xpZW50MjQzN0NlcnQyODgyMzgwggIiMA0GCSqGSIb3DQEB
AQUAA4ICDwAwggIKAoICAQChhe8h9LV5BMGfZ1vr7pcnZioI1yYuUPir6pzYLWAx
akMDxiCsaPSa8G1/L+Ed5ntt0liABiXoph8RkEKnZWei6eLJtEJUKzwXyit94nJB
pteS4xilLCWBXJi6mVkvgmH/AO4n5SQgfmp5kl9ssb/CHdXmEyT2+YU5Psqs2uDX
X0hT+ChNlmeHmy8s8mLCNr86OduyTEe9pL3dwdbSrMp9LwUv3++ALGN7UqX83+pX
qD/1eGG3CwFz/scaY405xSjRUMgkhWB9Or5ND202OqHos8O5+J7mDjaJaxYkBZLd
cMwNUERKdZ40IJk2DFAdIJro/xB1R7TZZp4cFDrReLWtU3WsWG/3sMpjy1zdNhr4
JGsDjnqU02ePIB6NRr7hSvNDL+r50aj1DkA1MJjd6FVDcNv1zY3vMpOkU1Q1o5Re
nqxQzi9pMxNnfZfDpnqAySvObnTwDvsDKorUGCdj9F+1FBxybyC5bPXhfbzcv8cU
4pmoVid3yBw47cHIP34MV4K0zh9UARxjjMU1MXEIWJD+L+mK43xkHKUAIBkUhSdD
2gRMdSZfoImB+OIDCJwebsQU7UBrWRZvOELzVVceHy9iVUekRlT/mqY0HjVJWXML
rS27KGkGIJON42IHn90PgBPstD9NvZ3JPqjvzob2FxBshJZsVhErD74rO04OGsp6
ZQIDAQABo4IBYzCCAV8wCQYDVR0TBAIwADAtBglghkgBhvhCAQ0EIBYeRWFzeS1S
U0EgR2VuZXJhdGVkIENlcnRpZmljYXRlMB0GA1UdDgQWBBSEqstpN/d8w4ifey6a
sjDJ0gPLOjCB4QYDVR0jBIHZMIHWgBQSzWAE0qCAnnDtxpm4eyzGUv0ZoaGBsqSB
rzCBrDELMAkGA1UEBhMCVVMxCzAJBgNVBAgTAk9IMREwDwYDVQQHEwhDb2x1bWJ1
czESMBAGA1UEChMJVmlraW5nVlBOMR0wGwYDVQQLExRNeU9yZ2FuaXphdGlvbmFs
VW5pdDEVMBMGA1UEAxMMVmlraW5nVlBOIENBMRAwDgYDVQQpEwdFYXN5UlNBMSEw
HwYJKoZIhvcNAQkBFhJtZUBteWhvc3QubXlkb21haW6CCQDPNYXugL8qPjATBgNV
HSUEDDAKBggrBgEFBQcDAjALBgNVHQ8EBAMCB4AwDQYJKoZIhvcNAQELBQADggIB
AAPDOXA5HWJU4gYtGPn+PkQtUOPunS8Y/MwGAhfj7VYPLHLVd5xIu2+336HxgktU
cZJ1RnlWo5hxnJKrYm1rxzioq/+M952JDzGG+OTuzWoHUAAtqwEa2itHlFE/1+0f
58Lxg13AIJBU9opuucUa0IJ1MquK4VAc4oTFUtPOd/tm+pAUmDKm/aXm9JIbqpT3
5KznSqTs3SKbkSdrHS7XBvo7TugeCpS4SGaXGGbX5oZZFVokgI8E6kQc/IdeUVNl
6rpKcUSNEmlMjA4hUUG6lIzCxIrEKCiJf23iDeR+ZGnApV3KK7aiR7W1Tw8/31pi
Fz65Ho/xOf1HnJPUmKhr3mPzXmPVK8L0rNu4lWMo63XJyBVJesqeNSeGvfgw6GMt
A8692gEeKfCoNAGDBXaft2jIRmf1l7bMgha94fNJw33mMTHR0ABtI7DwTT975Zml
feIPMWlqHZhS/jZoLp/crCsM2UjydfereBa+DM5+EhqVQZgG9N/BjEbOWpm3BNuK
XfCVCu5Iv/9nq/kmqs2LHiAfXqrp74JOtflEpu0baNGD9rvaG9ttV+ZpVmthIkqv
jcbN/r18p9oO3mG5o9x+HAL92Qah4N3MnfVPsptC/2McG0Gqx/dgrCN/NVeggL+O
UC5xR+/1d/5bCDPN/aj2wsNWLB/cTfZTObsl7z1wUc74
-----END CERTIFICATE-----
