Certificate:
    Data:
        Version: 3 (0x2)
        Serial Number: 8574 (0x217e)
    Signature Algorithm: sha256WithRSAEncryption
        Issuer: C=US, ST=OH, L=Columbus, O=VikingVPN, OU=MyOrganizationalUnit, CN=VikingVPN CA/name=EasyRSA/emailAddress=me@myhost.mydomain
        Validity
            Not Before: Jul 27 17:48:26 2016 GMT
            Not After : Jul 25 17:48:26 2026 GMT
        Subject: CN=Client1437Certe9da8f
        Subject Public Key Info:
            Public Key Algorithm: rsaEncryption
                Public-Key: (4096 bit)
                Modulus:
                    00:c6:6b:6a:f2:13:7a:ba:b0:a0:3e:8b:23:45:1d:
                    49:cd:4d:e1:c4:db:c2:6e:b5:72:16:52:de:f4:a7:
                    63:58:bb:c8:be:e0:03:0e:4a:06:46:91:84:bb:b4:
                    b9:37:f3:39:20:fc:5b:87:e0:44:65:7e:75:63:b0:
                    10:c8:ed:e6:c8:e6:75:fc:17:58:17:c6:db:80:a7:
                    ca:f2:e1:cc:7e:69:f3:1b:ef:90:07:bc:bf:25:a6:
                    98:ce:a8:94:1c:79:5d:db:95:4e:1b:2e:6d:ac:c4:
                    25:d9:98:9e:52:9f:fd:e0:47:4e:c1:35:b2:f6:d8:
                    b6:26:3d:b6:75:1c:0b:bb:ca:64:33:29:0b:e5:1f:
                    5e:8b:ee:db:81:7d:51:fb:cd:36:93:9e:44:2f:94:
                    97:cb:ad:55:b8:bc:0b:3e:29:dd:30:b5:40:44:79:
                    f3:4a:1c:57:9a:e8:c9:28:b7:16:9e:98:31:b6:ed:
                    80:91:e3:ab:54:97:b3:90:7f:b6:c2:dd:31:e1:4e:
                    56:00:f8:a4:0e:a2:c4:7c:1e:88:0d:bf:47:45:bf:
                    65:b8:10:51:7d:8a:3e:79:66:e4:03:fb:0f:2c:03:
                    53:f6:5e:81:ee:91:49:a4:86:6b:86:0c:01:6b:c0:
                    11:3f:1a:53:71:60:4a:a9:2d:1b:ff:72:49:95:8a:
                    e5:e7:96:3f:d8:61:02:1e:55:16:65:1a:03:49:29:
                    e9:66:66:fc:22:1a:f3:bb:8f:a8:25:6c:a1:6f:24:
                    0a:bc:48:ea:54:82:9b:78:e3:47:03:43:e7:b8:87:
                    10:8f:9b:52:81:91:b1:b9:d3:b4:4c:6e:0d:22:55:
                    f8:60:8b:35:d4:98:80:28:24:ca:04:30:83:50:e4:
                    97:07:91:5b:7a:52:20:e1:4a:1b:93:64:94:17:cd:
                    f0:3e:8a:3a:85:6b:e3:ed:bc:69:0c:87:e0:5d:fa:
                    ab:62:64:70:67:02:93:d2:9e:b1:ff:6e:64:a6:bf:
                    c6:73:fb:14:83:2e:15:6d:ad:7e:84:e9:24:3e:52:
                    ea:06:81:70:35:1d:86:d0:d6:11:53:48:b6:b4:0c:
                    9c:1c:15:d7:39:e0:2f:f6:8a:2f:5e:32:01:75:de:
                    9f:95:db:57:a9:74:ef:e8:35:3a:4e:ac:e6:93:7a:
                    ee:09:58:32:08:12:c8:99:3b:98:ac:d2:f3:78:b6:
                    55:c3:c0:f4:4c:00:0d:51:ba:0b:db:0e:60:eb:2b:
                    c2:bb:90:2f:cf:64:d2:7a:4d:d7:90:67:28:77:91:
                    56:83:dc:50:40:6d:3b:b0:02:47:23:0a:cc:f2:d3:
                    5a:5b:f6:ec:fd:b9:81:80:d1:44:0c:d8:45:29:45:
                    7d:5f:01
                Exponent: 65537 (0x10001)
        X509v3 extensions:
            X509v3 Basic Constraints: 
                CA:FALSE
            Netscape Comment: 
                Easy-RSA Generated Certificate
            X509v3 Subject Key Identifier: 
                45:08:E4:DF:55:A3:89:DB:7A:F1:09:8D:07:A4:EF:28:15:C4:3E:92
            X509v3 Authority Key Identifier: 
                keyid:12:CD:60:04:D2:A0:80:9E:70:ED:C6:99:B8:7B:2C:C6:52:FD:19:A1
                DirName:/C=US/ST=OH/L=Columbus/O=VikingVPN/OU=MyOrganizationalUnit/CN=VikingVPN CA/name=EasyRSA/emailAddress=me@myhost.mydomain
                serial:CF:35:85:EE:80:BF:2A:3E

            X509v3 Extended Key Usage: 
                TLS Web Client Authentication
            X509v3 Key Usage: 
                Digital Signature
    Signature Algorithm: sha256WithRSAEncryption
         3c:85:04:00:c5:9b:c3:84:21:ae:c6:96:b0:cf:2b:2b:d9:60:
         e6:ae:9e:0d:2f:d5:bc:56:e7:af:92:90:3e:ec:22:b5:03:56:
         b5:92:31:ed:54:7b:2c:a8:0a:9c:b3:26:59:93:91:aa:6b:c9:
         46:b1:88:49:d6:07:85:af:49:12:f9:1e:d4:6b:52:b2:4b:77:
         ff:68:be:09:a0:35:b7:bc:d2:24:f4:aa:db:8a:51:d1:71:9a:
         91:8c:4c:91:c4:89:d8:f4:55:09:a4:d2:80:23:64:72:7f:10:
         02:2d:f2:7e:48:14:61:55:ce:29:35:33:b4:1a:91:ab:d3:c9:
         3b:06:0f:57:a9:17:e8:7e:6d:e5:70:9a:e0:fc:07:dc:55:92:
         a6:4d:f2:86:28:cd:a0:e0:60:d6:54:4e:a5:52:95:18:ed:be:
         91:aa:b7:5a:ef:a5:4e:5f:8c:97:78:ec:56:b3:e5:58:0a:b6:
         0b:2d:0f:6f:13:4b:5e:e1:2d:fc:24:9d:97:f3:12:28:d0:27:
         9b:dd:5b:3b:04:77:50:e5:fb:fd:d5:67:a1:88:09:e9:c0:84:
         0d:3b:2b:40:6b:a1:6d:83:15:cb:e0:69:2f:34:fe:53:01:5e:
         7c:84:ed:0c:8c:7b:54:c0:78:4e:be:a8:95:40:5f:ab:40:7e:
         6e:00:c1:1e:f6:9c:71:5f:a2:be:c7:f7:11:3b:70:a2:8e:77:
         18:46:5b:12:6c:f6:0b:e7:53:06:dc:64:35:8e:b3:37:97:b4:
         8c:99:de:00:96:6e:15:7e:ab:c5:61:eb:22:1c:20:78:d7:13:
         ec:af:b7:2a:4d:93:1b:e0:28:ff:aa:f8:0e:de:b8:ac:7f:21:
         45:2d:1c:c1:30:7b:0b:5b:74:c9:45:82:d5:91:22:7f:71:44:
         21:ab:23:e6:2d:6b:57:b1:8d:fb:e7:ac:38:4e:30:73:85:c4:
         86:23:62:d8:7d:4d:17:db:3a:03:ab:4c:b6:9c:15:85:76:ac:
         8d:41:a9:75:ee:e6:b9:8d:18:1d:fc:73:9d:1b:09:28:08:3e:
         0c:55:bb:7f:ab:41:6b:e1:2a:c2:2a:40:6f:08:b1:46:9e:11:
         e6:81:cc:98:67:05:71:93:15:7d:89:3e:c9:f6:13:db:d4:5d:
         6b:06:d3:24:e9:80:84:ca:3c:5e:ab:42:7e:8c:36:e5:b8:f4:
         14:6d:9b:29:a4:fe:4a:3a:f1:b7:4d:ee:4d:6a:aa:18:52:be:
         70:dd:bd:bf:a3:5f:33:2f:b4:e2:f4:e4:06:c6:f5:6d:1a:2e:
         ef:eb:36:7d:d5:fc:c6:33:70:98:84:62:40:c5:b0:be:c2:24:
         31:3b:41:79:ec:a6:53:33
-----BEGIN CERTIFICATE-----
MIIGrTCCBJWgAwIBAgICIX4wDQYJKoZIhvcNAQELBQAwgawxCzAJBgNVBAYTAlVT
MQswCQYDVQQIEwJPSDERMA8GA1UEBxMIQ29sdW1idXMxEjAQBgNVBAoTCVZpa2lu
Z1ZQTjEdMBsGA1UECxMUTXlPcmdhbml6YXRpb25hbFVuaXQxFTATBgNVBAMTDFZp
a2luZ1ZQTiBDQTEQMA4GA1UEKRMHRWFzeVJTQTEhMB8GCSqGSIb3DQEJARYSbWVA
bXlob3N0Lm15ZG9tYWluMB4XDTE2MDcyNzE3NDgyNloXDTI2MDcyNTE3NDgyNlow
HzEdMBsGA1UEAxMUQ2xpZW50MTQzN0NlcnRlOWRhOGYwggIiMA0GCSqGSIb3DQEB
AQUAA4ICDwAwggIKAoICAQDGa2ryE3q6sKA+iyNFHUnNTeHE28JutXIWUt70p2NY
u8i+4AMOSgZGkYS7tLk38zkg/FuH4ERlfnVjsBDI7ebI5nX8F1gXxtuAp8ry4cx+
afMb75AHvL8lppjOqJQceV3blU4bLm2sxCXZmJ5Sn/3gR07BNbL22LYmPbZ1HAu7
ymQzKQvlH16L7tuBfVH7zTaTnkQvlJfLrVW4vAs+Kd0wtUBEefNKHFea6Mkotxae
mDG27YCR46tUl7OQf7bC3THhTlYA+KQOosR8HogNv0dFv2W4EFF9ij55ZuQD+w8s
A1P2XoHukUmkhmuGDAFrwBE/GlNxYEqpLRv/ckmViuXnlj/YYQIeVRZlGgNJKelm
ZvwiGvO7j6glbKFvJAq8SOpUgpt440cDQ+e4hxCPm1KBkbG507RMbg0iVfhgizXU
mIAoJMoEMINQ5JcHkVt6UiDhShuTZJQXzfA+ijqFa+PtvGkMh+Bd+qtiZHBnApPS
nrH/bmSmv8Zz+xSDLhVtrX6E6SQ+UuoGgXA1HYbQ1hFTSLa0DJwcFdc54C/2ii9e
MgF13p+V21epdO/oNTpOrOaTeu4JWDIIEsiZO5is0vN4tlXDwPRMAA1RugvbDmDr
K8K7kC/PZNJ6TdeQZyh3kVaD3FBAbTuwAkcjCszy01pb9uz9uYGA0UQM2EUpRX1f
AQIDAQABo4IBYzCCAV8wCQYDVR0TBAIwADAtBglghkgBhvhCAQ0EIBYeRWFzeS1S
U0EgR2VuZXJhdGVkIENlcnRpZmljYXRlMB0GA1UdDgQWBBRFCOTfVaOJ23rxCY0H
pO8oFcQ+kjCB4QYDVR0jBIHZMIHWgBQSzWAE0qCAnnDtxpm4eyzGUv0ZoaGBsqSB
rzCBrDELMAkGA1UEBhMCVVMxCzAJBgNVBAgTAk9IMREwDwYDVQQHEwhDb2x1bWJ1
czESMBAGA1UEChMJVmlraW5nVlBOMR0wGwYDVQQLExRNeU9yZ2FuaXphdGlvbmFs
VW5pdDEVMBMGA1UEAxMMVmlraW5nVlBOIENBMRAwDgYDVQQpEwdFYXN5UlNBMSEw
HwYJKoZIhvcNAQkBFhJtZUBteWhvc3QubXlkb21haW6CCQDPNYXugL8qPjATBgNV
HSUEDDAKBggrBgEFBQcDAjALBgNVHQ8EBAMCB4AwDQYJKoZIhvcNAQELBQADggIB
ADyFBADFm8OEIa7GlrDPKyvZYOaung0v1bxW56+SkD7sIrUDVrWSMe1UeyyoCpyz
JlmTkapryUaxiEnWB4WvSRL5HtRrUrJLd/9ovgmgNbe80iT0qtuKUdFxmpGMTJHE
idj0VQmk0oAjZHJ/EAIt8n5IFGFVzik1M7QakavTyTsGD1epF+h+beVwmuD8B9xV
kqZN8oYozaDgYNZUTqVSlRjtvpGqt1rvpU5fjJd47Faz5VgKtgstD28TS17hLfwk
nZfzEijQJ5vdWzsEd1Dl+/3VZ6GICenAhA07K0BroW2DFcvgaS80/lMBXnyE7QyM
e1TAeE6+qJVAX6tAfm4AwR72nHFfor7H9xE7cKKOdxhGWxJs9gvnUwbcZDWOszeX
tIyZ3gCWbhV+q8Vh6yIcIHjXE+yvtypNkxvgKP+q+A7euKx/IUUtHMEwewtbdMlF
gtWRIn9xRCGrI+Yta1exjfvnrDhOMHOFxIYjYth9TRfbOgOrTLacFYV2rI1BqXXu
5rmNGB38c50bCSgIPgxVu3+rQWvhKsIqQG8IsUaeEeaBzJhnBXGTFX2JPsn2E9vU
XWsG0yTpgITKPF6rQn6MNuW49BRtmymk/ko68bdN7k1qqhhSvnDdvb+jXzMvtOL0
5AbG9W0aLu/rNn3V/MYzcJiEYkDFsL7CJDE7QXnsplMz
-----END CERTIFICATE-----
