Certificate:
    Data:
        Version: 3 (0x2)
        Serial Number: 8592 (0x2190)
    Signature Algorithm: sha256WithRSAEncryption
        Issuer: C=US, ST=OH, L=Columbus, O=VikingVPN, OU=MyOrganizationalUnit, CN=VikingVPN CA/name=EasyRSA/emailAddress=me@myhost.mydomain
        Validity
            Not Before: Jul 29 18:25:41 2016 GMT
            Not After : Jul 27 18:25:41 2026 GMT
        Subject: CN=Client1846Cert2221e6
        Subject Public Key Info:
            Public Key Algorithm: rsaEncryption
                Public-Key: (4096 bit)
                Modulus:
                    00:a1:cd:10:f4:e4:5b:79:cc:7b:ee:bc:60:ae:0e:
                    af:a8:d3:20:ea:da:19:d2:e9:47:06:85:a2:d5:78:
                    fb:4d:34:08:b3:dc:33:3d:2d:21:f5:21:ac:f3:59:
                    e2:9e:4c:eb:c4:8e:0e:a8:87:d1:69:7f:d0:49:b7:
                    bb:b1:48:7f:ed:34:39:b3:68:85:0b:61:8e:4f:22:
                    23:b2:82:a4:d6:32:38:bb:43:0f:4a:ab:23:f8:95:
                    01:6f:54:e2:74:11:ce:21:c9:32:5f:76:8a:36:b0:
                    fa:fb:36:f5:ef:ce:63:6a:67:9e:70:ab:ae:90:15:
                    04:bf:a1:4b:b9:50:ad:93:b7:84:55:4d:ea:c1:d1:
                    18:29:f2:47:85:5c:01:7f:4c:e0:9b:75:20:29:2d:
                    76:f2:63:b0:be:c2:74:1e:b8:ea:35:19:a3:05:44:
                    3b:32:76:63:4e:54:dc:5c:38:e3:2b:60:15:c5:44:
                    52:6b:85:c5:b9:e1:2c:03:d3:1e:0a:3f:e2:8e:b9:
                    4d:5d:82:12:94:4b:42:0d:9a:e2:74:4f:0b:52:ea:
                    e3:15:6a:2d:21:44:6a:1f:e2:66:c7:20:e5:71:c3:
                    dc:bc:94:0c:2e:a5:f9:c5:48:28:47:03:aa:61:b0:
                    c5:ba:4f:60:80:3b:91:98:f7:2e:0d:07:a5:ff:6d:
                    b4:17:11:c6:16:62:c8:ca:15:fa:c5:43:c9:30:bf:
                    c6:9d:04:b3:88:b4:71:8c:a7:a5:d9:af:20:70:d4:
                    74:27:25:1a:5c:00:be:e5:b8:53:d7:10:a2:6e:c3:
                    0e:f6:5b:d8:8a:fa:61:82:ec:11:bb:83:6e:a9:2e:
                    e9:0d:91:18:f7:48:da:fa:74:67:d7:65:c9:e6:ab:
                    9e:cc:e5:c2:a2:3d:c1:d4:26:8c:24:17:b4:d8:bc:
                    40:43:5a:19:f0:e2:82:78:b0:83:68:19:e2:b3:1c:
                    bf:c2:cd:bc:d7:57:07:66:ea:0c:1d:10:23:7e:b7:
                    74:2d:24:66:93:c4:6f:22:cc:99:92:a4:0a:ee:9a:
                    8f:51:fb:5f:e5:b8:dc:4b:a7:3f:e2:79:cf:55:11:
                    75:80:3c:9a:a9:26:96:03:fc:94:b6:7e:cb:66:f7:
                    8e:7b:b1:51:b1:b3:68:2f:bc:af:89:3b:b8:d1:64:
                    d3:70:d7:a6:0a:be:c0:16:0e:5e:9a:ff:88:c5:fe:
                    31:82:dd:fc:49:67:c0:5b:bc:76:b1:76:57:8b:53:
                    2f:a2:86:35:7d:d6:93:5f:ee:fd:aa:7d:9a:a1:22:
                    87:21:51:07:6a:e5:c7:93:af:0f:2b:53:5e:1b:27:
                    3e:41:4c:05:f7:a0:01:2e:10:48:ff:75:94:9a:bf:
                    75:b6:7d
                Exponent: 65537 (0x10001)
        X509v3 extensions:
            X509v3 Basic Constraints: 
                CA:FALSE
            Netscape Comment: 
                Easy-RSA Generated Certificate
            X509v3 Subject Key Identifier: 
                6C:BA:91:38:0B:F9:7D:26:AC:6B:BD:F9:12:8A:89:B0:F9:D5:51:48
            X509v3 Authority Key Identifier: 
                keyid:12:CD:60:04:D2:A0:80:9E:70:ED:C6:99:B8:7B:2C:C6:52:FD:19:A1
                DirName:/C=US/ST=OH/L=Columbus/O=VikingVPN/OU=MyOrganizationalUnit/CN=VikingVPN CA/name=EasyRSA/emailAddress=me@myhost.mydomain
                serial:CF:35:85:EE:80:BF:2A:3E

            X509v3 Extended Key Usage: 
                TLS Web Client Authentication
            X509v3 Key Usage: 
                Digital Signature
    Signature Algorithm: sha256WithRSAEncryption
         38:34:fa:d8:10:5b:9f:d2:e4:98:61:0e:5e:5e:04:bd:0d:06:
         2f:95:9f:7a:12:de:8c:66:39:43:0b:f8:f6:35:eb:82:14:5e:
         66:b6:6b:e0:f3:3b:e0:6c:ae:3c:c0:4b:94:2c:ed:b7:24:f7:
         3b:12:81:df:08:6f:90:db:e2:e1:9a:f0:61:db:54:55:59:62:
         0c:c1:6b:ae:5b:8c:79:80:7d:fc:d3:f2:69:9b:d1:8c:e5:88:
         0b:f4:8a:bf:7a:0b:32:e0:7e:9b:49:12:4b:37:ce:d5:a0:1f:
         bc:6f:9f:38:64:f1:40:89:7e:50:77:89:e9:1d:04:1f:d5:e0:
         7a:82:71:72:f9:db:b3:d0:b5:ee:f2:b4:6a:7b:b1:48:90:68:
         e5:2c:02:0b:0f:44:31:e4:16:84:02:23:45:cd:4e:24:b4:56:
         a3:29:4b:c0:a6:37:f1:ed:bd:36:77:bd:07:86:5d:cc:47:5f:
         9f:9f:76:08:2f:c9:1d:d9:5e:29:51:0f:93:20:92:fc:a4:73:
         a4:8e:e0:e0:fb:80:e7:fe:70:21:09:4e:9e:01:34:4d:94:88:
         19:67:98:04:0e:92:3c:d1:5c:20:19:1d:05:9c:58:b2:d4:82:
         7b:68:1a:35:4d:e6:ee:05:8f:fe:0d:6a:67:7e:1b:8f:83:5c:
         c2:b2:8a:01:b8:50:80:af:7c:84:66:17:93:f8:35:a0:a3:f5:
         bd:cb:24:8f:d2:a5:bf:c5:1e:b2:92:52:ed:b3:55:9e:f3:f4:
         1b:f5:dc:c1:48:fa:4c:55:b9:7f:f1:a0:11:26:d7:bf:3c:b1:
         13:9b:a4:b1:58:5b:7b:a8:37:45:6b:f4:70:fc:dc:17:4d:44:
         ee:e7:c6:b6:a3:e1:84:2b:e5:da:09:cc:59:c6:e2:af:fe:32:
         42:6b:5d:57:4f:7f:62:42:e9:46:b8:30:56:cc:da:18:ac:2a:
         e4:ba:39:9c:67:9b:9d:e3:24:c8:87:e1:63:04:ba:be:15:18:
         eb:ae:78:c2:da:ac:ad:41:32:22:a6:a9:5d:d1:b4:ae:48:fd:
         53:3c:b6:40:ca:b5:55:65:cd:f5:86:a7:68:dc:59:cd:b7:1e:
         06:a5:ae:d0:5b:0b:9e:62:f1:cf:6c:5a:b3:15:28:03:36:ca:
         47:41:5f:44:0d:b4:8d:bf:2b:0e:e2:b4:36:84:8c:45:71:72:
         4f:de:31:37:46:d0:8b:bc:b0:5c:8a:82:c4:cb:ec:48:f9:f1:
         3e:5a:89:03:84:f9:cf:42:3b:b9:9a:ad:c4:04:f5:37:dd:02:
         53:10:6d:0f:da:bf:f5:08:4d:e7:47:22:83:ee:d7:28:75:fc:
         66:c4:8c:ec:a0:38:9e:7a
-----BEGIN CERTIFICATE-----
MIIGrTCCBJWgAwIBAgICIZAwDQYJKoZIhvcNAQELBQAwgawxCzAJBgNVBAYTAlVT
MQswCQYDVQQIEwJPSDERMA8GA1UEBxMIQ29sdW1idXMxEjAQBgNVBAoTCVZpa2lu
Z1ZQTjEdMBsGA1UECxMUTXlPcmdhbml6YXRpb25hbFVuaXQxFTATBgNVBAMTDFZp
a2luZ1ZQTiBDQTEQMA4GA1UEKRMHRWFzeVJTQTEhMB8GCSqGSIb3DQEJARYSbWVA
bXlob3N0Lm15ZG9tYWluMB4XDTE2MDcyOTE4MjU0MVoXDTI2MDcyNzE4MjU0MVow
HzEdMBsGA1UEAxMUQ2xpZW50MTg0NkNlcnQyMjIxZTYwggIiMA0GCSqGSIb3DQEB
AQUAA4ICDwAwggIKAoICAQChzRD05Ft5zHvuvGCuDq+o0yDq2hnS6UcGhaLVePtN
NAiz3DM9LSH1IazzWeKeTOvEjg6oh9Fpf9BJt7uxSH/tNDmzaIULYY5PIiOygqTW
Mji7Qw9KqyP4lQFvVOJ0Ec4hyTJfdoo2sPr7NvXvzmNqZ55wq66QFQS/oUu5UK2T
t4RVTerB0Rgp8keFXAF/TOCbdSApLXbyY7C+wnQeuOo1GaMFRDsydmNOVNxcOOMr
YBXFRFJrhcW54SwD0x4KP+KOuU1dghKUS0INmuJ0TwtS6uMVai0hRGof4mbHIOVx
w9y8lAwupfnFSChHA6phsMW6T2CAO5GY9y4NB6X/bbQXEcYWYsjKFfrFQ8kwv8ad
BLOItHGMp6XZryBw1HQnJRpcAL7luFPXEKJuww72W9iK+mGC7BG7g26pLukNkRj3
SNr6dGfXZcnmq57M5cKiPcHUJowkF7TYvEBDWhnw4oJ4sINoGeKzHL/CzbzXVwdm
6gwdECN+t3QtJGaTxG8izJmSpArumo9R+1/luNxLpz/iec9VEXWAPJqpJpYD/JS2
fstm9457sVGxs2gvvK+JO7jRZNNw16YKvsAWDl6a/4jF/jGC3fxJZ8BbvHaxdleL
Uy+ihjV91pNf7v2qfZqhIochUQdq5ceTrw8rU14bJz5BTAX3oAEuEEj/dZSav3W2
fQIDAQABo4IBYzCCAV8wCQYDVR0TBAIwADAtBglghkgBhvhCAQ0EIBYeRWFzeS1S
U0EgR2VuZXJhdGVkIENlcnRpZmljYXRlMB0GA1UdDgQWBBRsupE4C/l9JqxrvfkS
iomw+dVRSDCB4QYDVR0jBIHZMIHWgBQSzWAE0qCAnnDtxpm4eyzGUv0ZoaGBsqSB
rzCBrDELMAkGA1UEBhMCVVMxCzAJBgNVBAgTAk9IMREwDwYDVQQHEwhDb2x1bWJ1
czESMBAGA1UEChMJVmlraW5nVlBOMR0wGwYDVQQLExRNeU9yZ2FuaXphdGlvbmFs
VW5pdDEVMBMGA1UEAxMMVmlraW5nVlBOIENBMRAwDgYDVQQpEwdFYXN5UlNBMSEw
HwYJKoZIhvcNAQkBFhJtZUBteWhvc3QubXlkb21haW6CCQDPNYXugL8qPjATBgNV
HSUEDDAKBggrBgEFBQcDAjALBgNVHQ8EBAMCB4AwDQYJKoZIhvcNAQELBQADggIB
ADg0+tgQW5/S5JhhDl5eBL0NBi+Vn3oS3oxmOUML+PY164IUXma2a+DzO+BsrjzA
S5Qs7bck9zsSgd8Ib5Db4uGa8GHbVFVZYgzBa65bjHmAffzT8mmb0YzliAv0ir96
CzLgfptJEks3ztWgH7xvnzhk8UCJflB3iekdBB/V4HqCcXL527PQte7ytGp7sUiQ
aOUsAgsPRDHkFoQCI0XNTiS0VqMpS8CmN/HtvTZ3vQeGXcxHX5+fdggvyR3ZXilR
D5Mgkvykc6SO4OD7gOf+cCEJTp4BNE2UiBlnmAQOkjzRXCAZHQWcWLLUgntoGjVN
5u4Fj/4Namd+G4+DXMKyigG4UICvfIRmF5P4NaCj9b3LJI/Spb/FHrKSUu2zVZ7z
9Bv13MFI+kxVuX/xoBEm1788sRObpLFYW3uoN0Vr9HD83BdNRO7nxraj4YQr5doJ
zFnG4q/+MkJrXVdPf2JC6Ua4MFbM2hisKuS6OZxnm53jJMiH4WMEur4VGOuueMLa
rK1BMiKmqV3RtK5I/VM8tkDKtVVlzfWGp2jcWc23HgalrtBbC55i8c9sWrMVKAM2
ykdBX0QNtI2/Kw7itDaEjEVxck/eMTdG0Iu8sFyKgsTL7Ej58T5aiQOE+c9CO7ma
rcQE9TfdAlMQbQ/av/UITedHIoPu1yh1/GbEjOygOJ56
-----END CERTIFICATE-----
