Certificate:
    Data:
        Version: 3 (0x2)
        Serial Number: 8597 (0x2195)
    Signature Algorithm: sha256WithRSAEncryption
        Issuer: C=US, ST=OH, L=Columbus, O=VikingVPN, OU=MyOrganizationalUnit, CN=VikingVPN CA/name=EasyRSA/emailAddress=me@myhost.mydomain
        Validity
            Not Before: Jul 30 16:34:54 2016 GMT
            Not After : Jul 28 16:34:54 2026 GMT
        Subject: CN=Client2042Certc2ac4d
        Subject Public Key Info:
            Public Key Algorithm: rsaEncryption
                Public-Key: (4096 bit)
                Modulus:
                    00:a5:21:43:72:b4:d3:55:50:ef:de:78:70:a0:83:
                    ad:3e:2f:db:05:a6:16:82:c7:46:98:80:51:f1:a2:
                    01:71:94:02:68:65:dc:e4:64:76:97:f7:5c:41:fc:
                    77:ea:a1:60:09:a5:90:3b:eb:ce:49:cb:51:a5:4e:
                    3a:94:5f:50:1a:30:7d:7b:d2:5e:d0:bf:d7:54:0d:
                    f0:02:98:b5:b7:a5:6c:f2:a7:6d:ad:a8:6f:0e:90:
                    b5:5b:12:08:92:cc:f9:02:29:57:71:12:33:05:ac:
                    e8:86:86:10:62:6a:5b:a7:df:bf:24:e0:83:01:d4:
                    12:91:30:ec:63:85:a4:1c:6b:1e:3f:c3:4b:64:a7:
                    f5:bc:98:1d:06:35:25:34:f3:54:54:e5:03:34:5c:
                    66:05:3b:88:a9:fb:d9:67:bf:14:d6:e6:71:05:50:
                    ad:06:a6:34:91:29:7e:6d:70:36:5e:92:7c:fa:a0:
                    29:d3:e6:bd:92:62:48:1c:e4:10:a5:02:2c:bd:49:
                    7b:ce:c3:15:88:da:b1:26:a8:c0:21:3d:41:5c:eb:
                    c5:5d:29:5d:ac:36:8a:3a:e4:9f:cf:f5:5e:84:43:
                    09:44:40:8b:d2:19:fd:3a:33:b6:13:ef:db:18:0e:
                    e3:2a:a6:85:ca:09:aa:f4:76:6a:2a:bc:d9:75:fd:
                    42:09:fd:9e:fe:9e:75:22:98:29:a4:78:76:c7:61:
                    ae:da:44:fa:d0:54:8a:2d:0e:15:fd:c9:63:33:4d:
                    39:d8:34:c8:ed:2e:de:7a:d7:cb:92:3c:5a:50:40:
                    fa:87:c0:6e:03:db:8b:a8:e6:a3:1a:e4:d0:7a:f2:
                    be:d4:29:eb:9d:82:a7:b8:83:a2:f9:17:50:a1:67:
                    14:be:90:0d:ff:4c:eb:07:a0:53:b4:c1:02:0c:2a:
                    a5:0a:86:78:9f:f2:b4:c0:9e:11:40:ed:88:76:54:
                    69:e9:b6:13:21:a5:9c:a5:c6:54:6c:ad:74:60:7d:
                    ce:24:eb:06:d8:a0:27:a6:88:30:43:41:e6:7b:f1:
                    de:ef:7c:da:3f:28:35:10:75:e0:55:40:56:eb:d4:
                    8b:45:6d:4b:4b:ec:f6:32:cb:74:a5:bf:b9:15:fc:
                    62:83:8a:95:80:62:2e:e2:bb:3f:7d:e7:02:0d:8b:
                    12:e2:1d:b8:4b:4c:b4:f5:ed:07:56:35:f6:0c:9c:
                    7a:66:3c:a4:d1:67:5a:5d:96:63:24:c3:48:08:6e:
                    18:93:60:bf:71:26:82:56:25:1b:22:ed:46:2f:a0:
                    99:a9:16:21:40:14:4a:29:68:79:1f:78:5a:4c:27:
                    cd:40:cc:a7:9b:bb:70:19:9a:48:23:36:8f:dd:9c:
                    0c:10:5f
                Exponent: 65537 (0x10001)
        X509v3 extensions:
            X509v3 Basic Constraints: 
                CA:FALSE
            Netscape Comment: 
                Easy-RSA Generated Certificate
            X509v3 Subject Key Identifier: 
                16:72:B1:D0:E7:1D:D6:45:50:E8:2B:18:0A:8C:A6:FF:D1:F7:79:46
            X509v3 Authority Key Identifier: 
                keyid:12:CD:60:04:D2:A0:80:9E:70:ED:C6:99:B8:7B:2C:C6:52:FD:19:A1
                DirName:/C=US/ST=OH/L=Columbus/O=VikingVPN/OU=MyOrganizationalUnit/CN=VikingVPN CA/name=EasyRSA/emailAddress=me@myhost.mydomain
                serial:CF:35:85:EE:80:BF:2A:3E

            X509v3 Extended Key Usage: 
                TLS Web Client Authentication
            X509v3 Key Usage: 
                Digital Signature
    Signature Algorithm: sha256WithRSAEncryption
         60:90:1b:1f:8a:53:7c:6c:29:b3:a3:a5:7a:92:1e:31:23:3c:
         5f:1c:0b:30:3c:0a:42:32:b0:25:db:4c:9b:d7:7e:31:19:43:
         bd:7b:d8:2e:36:a9:77:fd:f7:a9:77:fa:f9:de:65:db:f8:e6:
         0d:97:91:20:07:c4:b2:c5:6a:6b:7a:ba:a0:73:b3:a0:09:ba:
         2d:70:1f:80:f2:fa:b0:9d:6e:cc:0f:e1:9b:8a:6a:3e:1f:ad:
         a8:64:81:d7:92:bf:76:9a:35:3f:eb:d7:0f:30:7c:10:e1:d3:
         97:3e:f8:a5:c0:1b:e6:b5:71:03:e8:f4:c9:3e:7e:82:ae:b8:
         b1:2b:7c:1e:42:c0:86:b5:fa:2c:7f:59:e1:80:cf:b1:7f:c6:
         ee:b0:93:dd:ad:af:01:32:d7:a5:14:df:67:5c:42:96:14:e2:
         db:c5:e4:90:a8:d0:ed:a7:1c:39:fd:7b:12:6e:a5:04:d0:75:
         ec:55:d8:1d:34:51:17:85:d5:0f:ef:fb:db:35:8b:9e:1f:ed:
         30:d8:ce:90:2e:c7:49:12:c2:9e:dc:1a:18:2b:ce:10:17:2f:
         06:73:a0:48:06:a2:f5:ef:8f:17:c4:b3:b5:f3:d7:71:97:97:
         2f:9d:94:a4:86:45:db:91:2f:87:db:9c:e9:5b:b6:8a:a2:ad:
         fb:df:2e:35:64:33:f2:66:28:41:f2:f4:cd:f9:22:8f:48:d6:
         87:07:e0:b2:01:2a:38:c0:1c:de:94:46:e6:77:a5:2d:01:18:
         d5:d6:21:7e:a6:de:42:68:3a:f7:a7:af:cf:2d:e7:65:b6:25:
         1f:6e:5b:b3:4b:8c:93:7f:5b:0f:37:2a:55:67:08:ee:30:af:
         06:4c:6f:d1:1a:3d:22:c3:aa:da:6b:19:bc:10:a6:a1:3e:27:
         69:3e:5a:85:fc:03:52:96:83:99:6a:05:20:31:4c:33:11:f8:
         2e:0b:70:96:f0:7d:9a:a4:56:0a:b4:f9:d9:2e:ac:8e:ca:8e:
         6a:a4:3f:d6:08:88:31:b7:1d:de:f9:bc:6f:74:3d:f4:ac:6c:
         f6:e3:9e:73:40:c8:85:11:17:30:85:20:f2:ea:6c:39:46:38:
         83:e0:51:fd:c1:89:26:39:19:0e:13:ee:d9:84:c6:6b:54:01:
         0f:d7:17:0f:21:af:11:aa:c9:a6:6f:85:5a:72:48:90:87:ea:
         f3:6e:1f:cd:b9:de:95:71:21:34:60:8b:28:d8:93:38:ec:15:
         50:c9:7c:e0:e1:99:76:fa:a8:8c:5e:38:6e:3c:f1:1e:5b:1b:
         a7:b8:cf:30:6a:a0:a4:db:12:7f:37:7b:f5:fe:48:6c:8a:47:
         b8:c4:57:79:e1:c7:60:a1
-----BEGIN CERTIFICATE-----
MIIGrTCCBJWgAwIBAgICIZUwDQYJKoZIhvcNAQELBQAwgawxCzAJBgNVBAYTAlVT
MQswCQYDVQQIEwJPSDERMA8GA1UEBxMIQ29sdW1idXMxEjAQBgNVBAoTCVZpa2lu
Z1ZQTjEdMBsGA1UECxMUTXlPcmdhbml6YXRpb25hbFVuaXQxFTATBgNVBAMTDFZp
a2luZ1ZQTiBDQTEQMA4GA1UEKRMHRWFzeVJTQTEhMB8GCSqGSIb3DQEJARYSbWVA
bXlob3N0Lm15ZG9tYWluMB4XDTE2MDczMDE2MzQ1NFoXDTI2MDcyODE2MzQ1NFow
HzEdMBsGA1UEAxMUQ2xpZW50MjA0MkNlcnRjMmFjNGQwggIiMA0GCSqGSIb3DQEB
AQUAA4ICDwAwggIKAoICAQClIUNytNNVUO/eeHCgg60+L9sFphaCx0aYgFHxogFx
lAJoZdzkZHaX91xB/HfqoWAJpZA7685Jy1GlTjqUX1AaMH170l7Qv9dUDfACmLW3
pWzyp22tqG8OkLVbEgiSzPkCKVdxEjMFrOiGhhBialun378k4IMB1BKRMOxjhaQc
ax4/w0tkp/W8mB0GNSU081RU5QM0XGYFO4ip+9lnvxTW5nEFUK0GpjSRKX5tcDZe
knz6oCnT5r2SYkgc5BClAiy9SXvOwxWI2rEmqMAhPUFc68VdKV2sNoo65J/P9V6E
QwlEQIvSGf06M7YT79sYDuMqpoXKCar0dmoqvNl1/UIJ/Z7+nnUimCmkeHbHYa7a
RPrQVIotDhX9yWMzTTnYNMjtLt5618uSPFpQQPqHwG4D24uo5qMa5NB68r7UKeud
gqe4g6L5F1ChZxS+kA3/TOsHoFO0wQIMKqUKhnif8rTAnhFA7Yh2VGnpthMhpZyl
xlRsrXRgfc4k6wbYoCemiDBDQeZ78d7vfNo/KDUQdeBVQFbr1ItFbUtL7PYyy3Sl
v7kV/GKDipWAYi7iuz995wINixLiHbhLTLT17QdWNfYMnHpmPKTRZ1pdlmMkw0gI
bhiTYL9xJoJWJRsi7UYvoJmpFiFAFEopaHkfeFpMJ81AzKebu3AZmkgjNo/dnAwQ
XwIDAQABo4IBYzCCAV8wCQYDVR0TBAIwADAtBglghkgBhvhCAQ0EIBYeRWFzeS1S
U0EgR2VuZXJhdGVkIENlcnRpZmljYXRlMB0GA1UdDgQWBBQWcrHQ5x3WRVDoKxgK
jKb/0fd5RjCB4QYDVR0jBIHZMIHWgBQSzWAE0qCAnnDtxpm4eyzGUv0ZoaGBsqSB
rzCBrDELMAkGA1UEBhMCVVMxCzAJBgNVBAgTAk9IMREwDwYDVQQHEwhDb2x1bWJ1
czESMBAGA1UEChMJVmlraW5nVlBOMR0wGwYDVQQLExRNeU9yZ2FuaXphdGlvbmFs
VW5pdDEVMBMGA1UEAxMMVmlraW5nVlBOIENBMRAwDgYDVQQpEwdFYXN5UlNBMSEw
HwYJKoZIhvcNAQkBFhJtZUBteWhvc3QubXlkb21haW6CCQDPNYXugL8qPjATBgNV
HSUEDDAKBggrBgEFBQcDAjALBgNVHQ8EBAMCB4AwDQYJKoZIhvcNAQELBQADggIB
AGCQGx+KU3xsKbOjpXqSHjEjPF8cCzA8CkIysCXbTJvXfjEZQ7172C42qXf996l3
+vneZdv45g2XkSAHxLLFamt6uqBzs6AJui1wH4Dy+rCdbswP4ZuKaj4frahkgdeS
v3aaNT/r1w8wfBDh05c++KXAG+a1cQPo9Mk+foKuuLErfB5CwIa1+ix/WeGAz7F/
xu6wk92trwEy16UU32dcQpYU4tvF5JCo0O2nHDn9exJupQTQdexV2B00UReF1Q/v
+9s1i54f7TDYzpAux0kSwp7cGhgrzhAXLwZzoEgGovXvjxfEs7Xz13GXly+dlKSG
RduRL4fbnOlbtoqirfvfLjVkM/JmKEHy9M35Io9I1ocH4LIBKjjAHN6URuZ3pS0B
GNXWIX6m3kJoOvenr88t52W2JR9uW7NLjJN/Ww83KlVnCO4wrwZMb9EaPSLDqtpr
GbwQpqE+J2k+WoX8A1KWg5lqBSAxTDMR+C4LcJbwfZqkVgq0+dkurI7KjmqkP9YI
iDG3Hd75vG90PfSsbPbjnnNAyIURFzCFIPLqbDlGOIPgUf3BiSY5GQ4T7tmExmtU
AQ/XFw8hrxGqyaZvhVpySJCH6vNuH8253pVxITRgiyjYkzjsFVDJfODhmXb6qIxe
OG488R5bG6e4zzBqoKTbEn83e/X+SGyKR7jEV3nhx2Ch
-----END CERTIFICATE-----
