Certificate:
    Data:
        Version: 3 (0x2)
        Serial Number: 8600 (0x2198)
    Signature Algorithm: sha256WithRSAEncryption
        Issuer: C=US, ST=OH, L=Columbus, O=VikingVPN, OU=MyOrganizationalUnit, CN=VikingVPN CA/name=EasyRSA/emailAddress=me@myhost.mydomain
        Validity
            Not Before: Jul 31 03:33:06 2016 GMT
            Not After : Jul 29 03:33:06 2026 GMT
        Subject: CN=Client2440Cert023666
        Subject Public Key Info:
            Public Key Algorithm: rsaEncryption
                Public-Key: (4096 bit)
                Modulus:
                    00:ca:a0:37:55:40:42:59:68:59:f9:a9:5e:06:ef:
                    7e:a0:4d:86:2e:79:e3:9b:58:6d:03:72:1c:3d:ae:
                    49:28:76:97:94:b8:f0:bf:f1:f4:3c:ed:e9:07:73:
                    7b:a6:4e:ac:68:b5:22:d3:17:25:d4:9c:77:d0:b6:
                    62:5d:b4:90:c0:aa:ac:4d:ae:28:6f:70:42:70:ab:
                    cc:e4:e7:d3:59:99:d6:ed:3e:a3:cd:81:b3:83:bb:
                    68:31:0a:43:39:41:8f:1f:d4:83:d9:32:df:70:fd:
                    bd:4d:1a:4e:8f:f3:78:92:d5:90:51:54:b3:81:c0:
                    22:d3:dd:eb:82:01:19:26:49:26:c1:83:e9:8c:3d:
                    5a:0e:e4:c0:16:87:0b:0d:d2:5a:3b:07:e5:69:ef:
                    bb:85:72:fb:38:bd:5e:7a:a3:d9:da:b7:68:f5:d9:
                    2f:94:80:5a:50:b5:fb:f5:2f:2a:40:d4:83:f2:4d:
                    3b:1a:83:8a:93:e6:02:53:18:ae:9a:53:b8:da:ec:
                    5f:91:55:a9:b2:6a:6f:b5:ed:af:9d:b9:9d:29:1d:
                    8d:55:c8:b7:20:41:57:16:e0:bb:b8:7f:5c:db:ea:
                    9d:12:09:b0:9a:48:a4:f4:19:42:c7:ab:c5:7e:f2:
                    30:78:03:67:a3:49:6f:0f:f8:81:11:31:01:9c:ed:
                    7d:c3:0b:30:9c:ec:58:bb:8c:d1:71:22:1b:13:f0:
                    30:e5:a0:46:5c:0e:ac:02:11:d5:08:bc:85:10:6d:
                    63:42:3a:ed:53:02:5a:4e:6c:d5:8f:ae:d9:82:80:
                    5f:ed:79:17:7a:e1:09:2e:b2:60:6c:9e:8d:da:14:
                    35:26:bd:52:2c:54:2f:c5:ec:78:73:9e:0a:b4:b8:
                    a9:70:1a:08:73:e9:f0:4e:d5:ac:ff:80:95:60:57:
                    76:c6:21:e9:29:68:84:8f:85:26:ff:86:5b:44:1c:
                    c5:23:0a:59:4f:0d:96:73:50:02:0b:51:8b:2c:29:
                    9b:46:c0:44:fb:02:4e:3d:bd:8c:64:96:78:36:fa:
                    0a:fd:16:14:96:a6:84:97:66:c0:5e:55:9f:40:13:
                    d7:51:04:45:d1:e3:da:ce:37:e1:65:a1:98:70:8f:
                    42:8d:e5:7c:c6:5a:29:e1:ad:bb:10:8b:42:7c:a3:
                    3a:d9:d2:c6:d1:94:ab:e9:f7:b7:d9:ac:0e:59:b2:
                    4d:38:12:58:e9:45:d2:12:70:fd:29:70:b3:33:35:
                    d4:a9:f4:85:f6:6e:7f:6f:2c:da:76:46:b6:34:62:
                    de:c2:b5:27:5a:04:79:e6:19:3d:9a:c8:07:a0:02:
                    09:cf:f2:12:fe:62:ef:e6:17:05:57:61:76:8f:b3:
                    d1:80:c3
                Exponent: 65537 (0x10001)
        X509v3 extensions:
            X509v3 Basic Constraints: 
                CA:FALSE
            Netscape Comment: 
                Easy-RSA Generated Certificate
            X509v3 Subject Key Identifier: 
                13:72:A8:F9:03:D8:FE:95:F7:A0:6C:72:3D:A0:EE:94:1C:05:B5:1A
            X509v3 Authority Key Identifier: 
                keyid:12:CD:60:04:D2:A0:80:9E:70:ED:C6:99:B8:7B:2C:C6:52:FD:19:A1
                DirName:/C=US/ST=OH/L=Columbus/O=VikingVPN/OU=MyOrganizationalUnit/CN=VikingVPN CA/name=EasyRSA/emailAddress=me@myhost.mydomain
                serial:CF:35:85:EE:80:BF:2A:3E

            X509v3 Extended Key Usage: 
                TLS Web Client Authentication
            X509v3 Key Usage: 
                Digital Signature
    Signature Algorithm: sha256WithRSAEncryption
         ea:07:6d:d0:af:33:e9:c1:79:fc:b4:fd:cf:ae:e7:70:16:c9:
         32:f4:ca:1a:73:af:e3:e9:8f:f6:71:e4:71:7c:26:e4:4e:80:
         2d:00:45:9f:5f:6e:da:68:9c:ab:5a:e6:0c:f1:34:79:e2:bc:
         2d:30:23:38:f1:45:fa:10:cb:d4:c1:92:19:d7:8a:9a:e2:70:
         74:89:68:37:95:e2:5d:ba:6c:ef:97:2e:05:0e:f2:ed:a7:07:
         cc:23:5b:1c:c5:9e:2e:2e:b9:ec:6e:92:9b:84:dd:84:7a:27:
         ae:b2:6d:58:9d:5c:7f:c4:13:b0:09:19:12:3c:32:8e:ee:c7:
         ac:1d:81:b4:28:b8:2f:47:b8:b8:73:87:f2:94:1b:44:45:39:
         c3:e8:76:de:17:c3:ff:1d:b3:c2:49:98:27:a3:d9:20:29:2e:
         e9:f9:13:2c:bf:5c:b2:f6:a9:f5:3f:7a:ed:8f:10:78:f1:6e:
         cd:e9:9d:a4:de:03:4b:9e:36:0e:1c:df:df:d2:06:9c:80:e8:
         27:81:d0:e1:9a:7c:30:f3:55:f8:6c:c7:42:e2:79:7d:0d:52:
         07:f3:84:c7:02:6a:b4:49:2f:86:a2:b9:39:6e:c7:83:bc:0c:
         c5:50:1b:7e:2b:f6:ea:b2:41:b9:69:32:9e:3c:7c:be:2b:80:
         c0:3d:ce:78:37:a8:88:a0:75:d4:50:ec:3f:82:39:0c:77:86:
         dc:f8:07:68:d1:ca:d8:83:00:39:6b:95:29:c8:34:ea:e2:15:
         79:9e:fc:d0:50:d3:33:d4:f4:40:f2:8c:ac:45:2b:89:34:66:
         b5:62:3d:39:cc:72:ac:88:84:2a:c8:00:e6:71:5e:2e:07:5f:
         13:e9:a7:70:a9:f4:dc:57:7d:39:c2:e1:ba:c2:46:93:39:94:
         c9:3d:8b:1d:0b:39:1b:ac:07:13:aa:56:0d:cc:53:65:47:38:
         4b:ce:4f:34:0d:74:b2:c1:cd:c7:b7:8c:47:73:4c:25:aa:d9:
         fa:fa:cf:66:07:6c:f8:41:d9:ec:d7:5c:5d:f2:59:df:6e:2a:
         51:31:a5:ee:23:ef:d6:2c:c7:2a:77:f3:c4:80:46:c8:c9:70:
         5f:4d:12:ae:7a:0c:b8:6a:a1:07:38:33:82:41:2c:56:55:14:
         c8:1a:b1:f5:bd:94:c6:64:9c:92:ce:60:98:39:25:96:da:57:
         a1:2e:11:20:22:ee:7d:a5:0b:cb:e4:21:19:cf:69:47:f1:55:
         22:a6:b5:a2:b6:28:9f:82:dc:e3:30:03:99:96:bb:3b:1d:f1:
         8f:2b:24:6c:f2:64:5c:08:f9:d0:9c:72:99:b2:7f:63:e5:32:
         9d:f5:84:42:1a:43:fa:85
-----BEGIN CERTIFICATE-----
MIIGrTCCBJWgAwIBAgICIZgwDQYJKoZIhvcNAQELBQAwgawxCzAJBgNVBAYTAlVT
MQswCQYDVQQIEwJPSDERMA8GA1UEBxMIQ29sdW1idXMxEjAQBgNVBAoTCVZpa2lu
Z1ZQTjEdMBsGA1UECxMUTXlPcmdhbml6YXRpb25hbFVuaXQxFTATBgNVBAMTDFZp
a2luZ1ZQTiBDQTEQMA4GA1UEKRMHRWFzeVJTQTEhMB8GCSqGSIb3DQEJARYSbWVA
bXlob3N0Lm15ZG9tYWluMB4XDTE2MDczMTAzMzMwNloXDTI2MDcyOTAzMzMwNlow
HzEdMBsGA1UEAxMUQ2xpZW50MjQ0MENlcnQwMjM2NjYwggIiMA0GCSqGSIb3DQEB
AQUAA4ICDwAwggIKAoICAQDKoDdVQEJZaFn5qV4G736gTYYueeObWG0Dchw9rkko
dpeUuPC/8fQ87ekHc3umTqxotSLTFyXUnHfQtmJdtJDAqqxNrihvcEJwq8zk59NZ
mdbtPqPNgbODu2gxCkM5QY8f1IPZMt9w/b1NGk6P83iS1ZBRVLOBwCLT3euCARkm
SSbBg+mMPVoO5MAWhwsN0lo7B+Vp77uFcvs4vV56o9nat2j12S+UgFpQtfv1LypA
1IPyTTsag4qT5gJTGK6aU7ja7F+RVamyam+17a+duZ0pHY1VyLcgQVcW4Lu4f1zb
6p0SCbCaSKT0GULHq8V+8jB4A2ejSW8P+IERMQGc7X3DCzCc7Fi7jNFxIhsT8DDl
oEZcDqwCEdUIvIUQbWNCOu1TAlpObNWPrtmCgF/teRd64QkusmBsno3aFDUmvVIs
VC/F7Hhzngq0uKlwGghz6fBO1az/gJVgV3bGIekpaISPhSb/hltEHMUjCllPDZZz
UAILUYssKZtGwET7Ak49vYxklng2+gr9FhSWpoSXZsBeVZ9AE9dRBEXR49rON+Fl
oZhwj0KN5XzGWinhrbsQi0J8ozrZ0sbRlKvp97fZrA5Zsk04EljpRdIScP0pcLMz
NdSp9IX2bn9vLNp2RrY0Yt7CtSdaBHnmGT2ayAegAgnP8hL+Yu/mFwVXYXaPs9GA
wwIDAQABo4IBYzCCAV8wCQYDVR0TBAIwADAtBglghkgBhvhCAQ0EIBYeRWFzeS1S
U0EgR2VuZXJhdGVkIENlcnRpZmljYXRlMB0GA1UdDgQWBBQTcqj5A9j+lfegbHI9
oO6UHAW1GjCB4QYDVR0jBIHZMIHWgBQSzWAE0qCAnnDtxpm4eyzGUv0ZoaGBsqSB
rzCBrDELMAkGA1UEBhMCVVMxCzAJBgNVBAgTAk9IMREwDwYDVQQHEwhDb2x1bWJ1
czESMBAGA1UEChMJVmlraW5nVlBOMR0wGwYDVQQLExRNeU9yZ2FuaXphdGlvbmFs
VW5pdDEVMBMGA1UEAxMMVmlraW5nVlBOIENBMRAwDgYDVQQpEwdFYXN5UlNBMSEw
HwYJKoZIhvcNAQkBFhJtZUBteWhvc3QubXlkb21haW6CCQDPNYXugL8qPjATBgNV
HSUEDDAKBggrBgEFBQcDAjALBgNVHQ8EBAMCB4AwDQYJKoZIhvcNAQELBQADggIB
AOoHbdCvM+nBefy0/c+u53AWyTL0yhpzr+Ppj/Zx5HF8JuROgC0ARZ9fbtponKta
5gzxNHnivC0wIzjxRfoQy9TBkhnXipricHSJaDeV4l26bO+XLgUO8u2nB8wjWxzF
ni4uuexukpuE3YR6J66ybVidXH/EE7AJGRI8Mo7ux6wdgbQouC9HuLhzh/KUG0RF
OcPodt4Xw/8ds8JJmCej2SApLun5Eyy/XLL2qfU/eu2PEHjxbs3pnaTeA0ueNg4c
39/SBpyA6CeB0OGafDDzVfhsx0LieX0NUgfzhMcCarRJL4aiuTlux4O8DMVQG34r
9uqyQblpMp48fL4rgMA9zng3qIigddRQ7D+COQx3htz4B2jRytiDADlrlSnINOri
FXme/NBQ0zPU9EDyjKxFK4k0ZrViPTnMcqyIhCrIAOZxXi4HXxPpp3Cp9NxXfTnC
4brCRpM5lMk9ix0LORusBxOqVg3MU2VHOEvOTzQNdLLBzce3jEdzTCWq2fr6z2YH
bPhB2ezXXF3yWd9uKlExpe4j79Ysxyp388SARsjJcF9NEq56DLhqoQc4M4JBLFZV
FMgasfW9lMZknJLOYJg5JZbaV6EuESAi7n2lC8vkIRnPaUfxVSKmtaK2KJ+C3OMw
A5mWuzsd8Y8rJGzyZFwI+dCccpmyf2PlMp31hEIaQ/qF
-----END CERTIFICATE-----
