Certificate:
    Data:
        Version: 3 (0x2)
        Serial Number: 8613 (0x21a5)
    Signature Algorithm: sha256WithRSAEncryption
        Issuer: C=US, ST=OH, L=Columbus, O=VikingVPN, OU=MyOrganizationalUnit, CN=VikingVPN CA/name=EasyRSA/emailAddress=me@myhost.mydomain
        Validity
            Not Before: Jul 31 18:23:03 2016 GMT
            Not After : Jul 29 18:23:03 2026 GMT
        Subject: CN=Client1796Certccdc47
        Subject Public Key Info:
            Public Key Algorithm: rsaEncryption
                Public-Key: (4096 bit)
                Modulus:
                    00:d2:10:4e:a5:1d:99:63:ba:95:9c:81:a7:47:83:
                    0f:0c:24:6f:1f:14:ac:68:0b:eb:64:9f:d4:4b:82:
                    f8:9b:88:69:fe:10:2e:64:fe:c8:eb:e9:6e:be:d2:
                    b0:1d:f4:c2:17:97:b2:b2:ec:59:24:10:2a:3e:c6:
                    78:ee:18:7d:d0:bf:09:dc:7b:97:09:b0:97:cb:69:
                    8a:73:62:c2:87:4e:c0:75:41:ff:0c:f6:f2:bf:91:
                    08:6c:90:ac:3e:d4:85:78:c6:7b:15:a0:91:c9:11:
                    a2:30:e0:ee:94:b5:f2:09:2e:2c:56:4b:01:7f:52:
                    d3:be:dc:09:7c:c5:83:1b:46:ce:a1:49:90:2a:10:
                    2c:2a:2c:af:41:53:a7:bd:5c:20:40:f4:31:33:e1:
                    9e:e4:da:92:9d:0e:b8:2e:9c:d7:d8:ca:a2:f3:af:
                    06:d7:a1:27:c2:a9:81:b7:e8:42:01:9b:40:c2:a3:
                    ca:ef:1d:98:00:05:14:3f:9b:68:9d:a8:75:b8:b9:
                    ec:cc:07:90:1f:87:74:d3:c8:06:52:0b:f7:10:56:
                    4b:82:f2:75:89:b7:ed:83:9c:99:11:b9:bb:99:28:
                    87:8f:cd:ae:b5:a8:9f:29:ab:9c:cc:b5:88:90:b4:
                    31:0f:5b:d3:87:3a:00:8c:34:9a:73:e6:e1:61:3a:
                    18:98:27:05:49:78:f8:d1:dc:d8:2d:7c:8a:d4:5e:
                    51:23:c9:fe:19:7a:e2:a7:b6:a1:6a:7c:69:1a:04:
                    e8:cb:a9:21:1f:ff:04:4e:e5:b9:62:b6:84:a7:ea:
                    a5:f5:5d:73:c8:b9:24:6b:ce:e8:f3:ed:f7:8d:a2:
                    cc:91:07:3c:6e:18:5b:cb:76:82:8a:c3:91:56:4e:
                    fd:3d:3e:c9:54:91:ef:51:33:e1:4a:ae:95:41:41:
                    d1:08:9c:22:ef:58:51:c5:4e:a2:d9:25:e1:23:fd:
                    03:a9:83:98:bc:83:37:a0:55:ed:8c:8f:be:f3:f0:
                    1f:92:c5:4c:c1:22:41:03:3e:8d:d9:ce:24:74:24:
                    2e:db:ca:09:3d:41:e3:a4:6a:75:76:49:dc:04:60:
                    c0:4e:cf:67:15:f5:66:f7:58:24:08:3f:99:2e:70:
                    89:e3:e6:54:08:ea:94:3e:26:d5:fb:09:bb:2c:a0:
                    cf:e1:10:d4:58:82:07:c7:a2:75:44:0a:fe:89:5d:
                    3f:47:76:2d:f4:bb:24:fe:4a:69:d1:d2:10:1e:4f:
                    e8:ea:47:a4:65:6d:bf:a5:ed:b0:32:36:11:3f:02:
                    a8:89:7c:89:90:ea:2d:82:d3:4e:17:48:6f:83:02:
                    b0:27:3c:b6:7f:04:1d:52:06:43:8f:b6:42:da:fa:
                    fc:0f:13
                Exponent: 65537 (0x10001)
        X509v3 extensions:
            X509v3 Basic Constraints: 
                CA:FALSE
            Netscape Comment: 
                Easy-RSA Generated Certificate
            X509v3 Subject Key Identifier: 
                45:15:CC:DB:A3:A6:AA:F5:69:FB:94:D3:CF:89:C4:DA:DE:99:C1:0A
            X509v3 Authority Key Identifier: 
                keyid:12:CD:60:04:D2:A0:80:9E:70:ED:C6:99:B8:7B:2C:C6:52:FD:19:A1
                DirName:/C=US/ST=OH/L=Columbus/O=VikingVPN/OU=MyOrganizationalUnit/CN=VikingVPN CA/name=EasyRSA/emailAddress=me@myhost.mydomain
                serial:CF:35:85:EE:80:BF:2A:3E

            X509v3 Extended Key Usage: 
                TLS Web Client Authentication
            X509v3 Key Usage: 
                Digital Signature
    Signature Algorithm: sha256WithRSAEncryption
         85:da:b8:41:46:9f:f8:27:81:a1:fd:06:fa:91:e9:60:06:35:
         1c:4a:60:bf:c0:d6:cb:c6:8f:22:dc:79:26:2d:5c:35:de:dd:
         ef:a6:ff:2b:3a:82:58:49:aa:10:5d:8e:1f:34:9c:92:e2:e8:
         1f:bf:69:72:64:f9:dd:db:61:07:8e:3f:b4:2b:ec:fb:f4:33:
         f2:7b:e3:33:86:1a:05:19:12:d1:cd:be:dc:2d:7e:5d:01:cb:
         40:a8:d3:0f:85:38:b4:bc:f1:13:10:ce:7b:bb:7f:9c:d8:9c:
         09:3c:f2:26:95:c2:81:f7:78:1e:5d:08:49:2f:4d:08:d0:ec:
         6b:db:bc:d5:db:b5:77:6c:67:e4:da:ed:b3:49:26:c3:03:f7:
         5a:c3:6f:3d:20:ba:2e:b8:09:b3:c8:ec:99:94:32:c0:09:4e:
         e6:15:5b:65:25:60:cc:a7:9e:67:78:48:34:8a:f0:d2:09:70:
         8e:8a:81:d1:ad:d4:a9:72:c7:eb:51:64:3c:03:47:fb:e9:29:
         8e:b1:ab:fe:7a:c7:5a:e1:9b:1b:ff:81:32:0e:e2:e0:aa:de:
         5d:14:ec:9d:0c:aa:c4:23:c5:ac:59:5d:99:c1:d5:56:b3:7d:
         ff:f2:2d:06:b2:c0:2b:2a:8d:48:39:43:e4:50:c6:87:83:26:
         1e:e6:f7:4a:b8:6b:cb:cb:06:c5:33:e7:dd:26:61:b5:0c:69:
         62:44:b9:96:92:ea:72:fa:1f:07:62:b3:9f:ee:3a:d4:88:2d:
         1b:bc:36:aa:d5:d8:e0:18:c4:36:f8:14:94:6e:0b:d3:bd:05:
         65:1e:96:22:20:9e:47:aa:1a:2b:5c:49:e5:a1:ac:40:18:eb:
         ed:cf:0e:3d:a6:ae:c0:8a:a0:9f:25:a0:c3:fd:f8:85:77:e0:
         72:6c:db:2b:65:b9:a2:b0:a6:23:c8:f1:cf:04:c2:aa:e4:36:
         4e:98:97:89:1b:d1:3a:80:ad:d4:b2:b1:63:e8:89:31:6c:2e:
         2d:fe:f7:8c:80:4e:db:64:f9:10:cb:57:8e:38:9f:6c:2f:fc:
         95:fe:50:26:01:8b:89:d1:03:7f:f8:09:fa:b6:3f:ff:fb:23:
         67:b0:c2:0a:9e:c4:35:0e:e6:0f:5a:5b:a9:0e:16:77:d5:c3:
         52:b9:e6:61:7e:b4:a7:c3:4e:f6:33:60:88:f1:8c:fb:ba:d6:
         8c:c9:1c:1a:e0:63:98:74:b5:33:6d:de:12:de:ca:37:22:19:
         6a:29:31:75:58:f0:da:f5:fe:b7:9f:46:98:79:9d:b7:58:67:
         62:bd:02:79:0d:a0:a4:f0:72:fd:95:fd:aa:d1:4f:0b:3d:9e:
         3e:bb:80:a6:51:20:40:b8
-----BEGIN CERTIFICATE-----
MIIGrTCCBJWgAwIBAgICIaUwDQYJKoZIhvcNAQELBQAwgawxCzAJBgNVBAYTAlVT
MQswCQYDVQQIEwJPSDERMA8GA1UEBxMIQ29sdW1idXMxEjAQBgNVBAoTCVZpa2lu
Z1ZQTjEdMBsGA1UECxMUTXlPcmdhbml6YXRpb25hbFVuaXQxFTATBgNVBAMTDFZp
a2luZ1ZQTiBDQTEQMA4GA1UEKRMHRWFzeVJTQTEhMB8GCSqGSIb3DQEJARYSbWVA
bXlob3N0Lm15ZG9tYWluMB4XDTE2MDczMTE4MjMwM1oXDTI2MDcyOTE4MjMwM1ow
HzEdMBsGA1UEAxMUQ2xpZW50MTc5NkNlcnRjY2RjNDcwggIiMA0GCSqGSIb3DQEB
AQUAA4ICDwAwggIKAoICAQDSEE6lHZljupWcgadHgw8MJG8fFKxoC+tkn9RLgvib
iGn+EC5k/sjr6W6+0rAd9MIXl7Ky7FkkECo+xnjuGH3Qvwnce5cJsJfLaYpzYsKH
TsB1Qf8M9vK/kQhskKw+1IV4xnsVoJHJEaIw4O6UtfIJLixWSwF/UtO+3Al8xYMb
Rs6hSZAqECwqLK9BU6e9XCBA9DEz4Z7k2pKdDrgunNfYyqLzrwbXoSfCqYG36EIB
m0DCo8rvHZgABRQ/m2idqHW4uezMB5Afh3TTyAZSC/cQVkuC8nWJt+2DnJkRubuZ
KIePza61qJ8pq5zMtYiQtDEPW9OHOgCMNJpz5uFhOhiYJwVJePjR3NgtfIrUXlEj
yf4ZeuKntqFqfGkaBOjLqSEf/wRO5blitoSn6qX1XXPIuSRrzujz7feNosyRBzxu
GFvLdoKKw5FWTv09PslUke9RM+FKrpVBQdEInCLvWFHFTqLZJeEj/QOpg5i8gzeg
Ve2Mj77z8B+SxUzBIkEDPo3ZziR0JC7bygk9QeOkanV2SdwEYMBOz2cV9Wb3WCQI
P5kucInj5lQI6pQ+JtX7CbssoM/hENRYggfHonVECv6JXT9Hdi30uyT+SmnR0hAe
T+jqR6Rlbb+l7bAyNhE/AqiJfImQ6i2C004XSG+DArAnPLZ/BB1SBkOPtkLa+vwP
EwIDAQABo4IBYzCCAV8wCQYDVR0TBAIwADAtBglghkgBhvhCAQ0EIBYeRWFzeS1S
U0EgR2VuZXJhdGVkIENlcnRpZmljYXRlMB0GA1UdDgQWBBRFFczbo6aq9Wn7lNPP
icTa3pnBCjCB4QYDVR0jBIHZMIHWgBQSzWAE0qCAnnDtxpm4eyzGUv0ZoaGBsqSB
rzCBrDELMAkGA1UEBhMCVVMxCzAJBgNVBAgTAk9IMREwDwYDVQQHEwhDb2x1bWJ1
czESMBAGA1UEChMJVmlraW5nVlBOMR0wGwYDVQQLExRNeU9yZ2FuaXphdGlvbmFs
VW5pdDEVMBMGA1UEAxMMVmlraW5nVlBOIENBMRAwDgYDVQQpEwdFYXN5UlNBMSEw
HwYJKoZIhvcNAQkBFhJtZUBteWhvc3QubXlkb21haW6CCQDPNYXugL8qPjATBgNV
HSUEDDAKBggrBgEFBQcDAjALBgNVHQ8EBAMCB4AwDQYJKoZIhvcNAQELBQADggIB
AIXauEFGn/gngaH9BvqR6WAGNRxKYL/A1svGjyLceSYtXDXe3e+m/ys6glhJqhBd
jh80nJLi6B+/aXJk+d3bYQeOP7Qr7Pv0M/J74zOGGgUZEtHNvtwtfl0By0Co0w+F
OLS88RMQznu7f5zYnAk88iaVwoH3eB5dCEkvTQjQ7GvbvNXbtXdsZ+Ta7bNJJsMD
91rDbz0gui64CbPI7JmUMsAJTuYVW2UlYMynnmd4SDSK8NIJcI6KgdGt1Klyx+tR
ZDwDR/vpKY6xq/56x1rhmxv/gTIO4uCq3l0U7J0MqsQjxaxZXZnB1Vazff/yLQay
wCsqjUg5Q+RQxoeDJh7m90q4a8vLBsUz590mYbUMaWJEuZaS6nL6Hwdis5/uOtSI
LRu8NqrV2OAYxDb4FJRuC9O9BWUeliIgnkeqGitcSeWhrEAY6+3PDj2mrsCKoJ8l
oMP9+IV34HJs2ytluaKwpiPI8c8EwqrkNk6Yl4kb0TqArdSysWPoiTFsLi3+94yA
Tttk+RDLV444n2wv/JX+UCYBi4nRA3/4Cfq2P//7I2ewwgqexDUO5g9aW6kOFnfV
w1K55mF+tKfDTvYzYIjxjPu61ozJHBrgY5h0tTNt3hLeyjciGWopMXVY8Nr1/ref
Rph5nbdYZ2K9AnkNoKTwcv2V/arRTws9nj67gKZRIEC4
-----END CERTIFICATE-----
