Certificate:
    Data:
        Version: 3 (0x2)
        Serial Number: 8618 (0x21aa)
    Signature Algorithm: sha256WithRSAEncryption
        Issuer: C=US, ST=OH, L=Columbus, O=VikingVPN, OU=MyOrganizationalUnit, CN=VikingVPN CA/name=EasyRSA/emailAddress=me@myhost.mydomain
        Validity
            Not Before: Jul 31 18:27:05 2016 GMT
            Not After : Jul 29 18:27:05 2026 GMT
        Subject: CN=Client1796Cert4b9ddf
        Subject Public Key Info:
            Public Key Algorithm: rsaEncryption
                Public-Key: (4096 bit)
                Modulus:
                    00:9b:cd:11:d9:0a:b0:7a:82:bb:fb:a2:50:46:37:
                    ad:77:3b:39:fe:41:37:ad:d5:9c:59:cf:0b:f5:01:
                    68:9b:20:44:70:3a:f3:0d:5f:29:5b:83:88:71:4c:
                    5f:f8:21:4a:47:7e:49:6a:a6:a6:81:db:3b:b5:28:
                    4d:eb:81:b5:33:c3:cc:a2:1b:ec:ff:5f:f2:13:51:
                    6c:92:ae:c3:ab:ed:ec:b8:a7:69:29:5e:2a:b5:7c:
                    96:da:72:c3:56:db:b9:f3:6f:d2:c2:12:49:45:a1:
                    32:7d:ab:4e:86:16:4e:59:d1:10:f4:35:40:d5:c2:
                    c9:81:2a:83:26:81:39:10:73:57:b8:13:fa:88:cd:
                    da:84:50:e1:7e:e9:6f:19:9f:df:ae:0a:b4:ab:72:
                    d6:05:7e:d9:b6:ec:da:f5:44:36:a8:ff:94:8a:57:
                    68:3d:65:e3:28:80:a7:8b:0e:e0:7b:6c:e5:af:0e:
                    25:72:da:76:54:81:04:be:b3:83:20:8f:37:44:da:
                    b1:9c:2a:76:38:4b:a6:fa:3f:84:ff:1d:a6:63:42:
                    72:dc:0b:1a:d8:30:11:ef:08:3d:82:d3:39:20:e5:
                    d6:98:43:ca:59:3f:c1:41:17:78:d7:9c:6a:e4:5c:
                    cb:1e:24:80:05:78:c6:b1:90:28:ae:26:4a:1e:5a:
                    0d:c3:5f:52:df:e3:b7:26:e2:5d:42:c5:ec:f2:a0:
                    1d:9e:6f:f2:10:b7:10:55:4f:60:65:26:b1:5c:31:
                    38:4c:17:ce:54:89:a8:29:c9:72:2b:7b:50:df:76:
                    1f:8d:ec:f3:6f:2f:fb:c8:ac:10:9f:63:27:ea:0d:
                    cc:1d:bc:ac:b5:dc:04:c4:ea:ae:07:4c:3a:08:76:
                    80:21:e7:7a:4f:4e:3a:c2:79:63:7c:d8:e5:15:8a:
                    a8:75:c9:71:3f:98:5f:73:db:92:a2:5f:5b:0f:27:
                    d9:6f:8b:2f:1d:27:16:34:e9:3a:ad:08:03:79:ec:
                    f0:c9:ff:19:7c:41:38:75:6e:c6:a3:67:15:15:bd:
                    36:6a:ce:a0:e1:08:35:19:a7:4b:5f:a1:f4:b6:00:
                    87:93:de:3c:71:46:04:e8:c8:2c:e0:01:87:88:6d:
                    8f:7a:94:25:df:07:1d:36:3b:9b:68:cc:c8:c9:c9:
                    c1:8a:7b:78:49:17:49:e4:44:5a:42:52:a7:15:a1:
                    41:01:26:99:c5:35:d8:b0:d1:11:28:6e:10:9e:46:
                    f7:83:ba:a8:42:5c:94:a2:78:f4:48:3c:bf:b8:32:
                    c3:c0:6c:9e:5c:21:c9:34:55:17:db:d9:6c:26:38:
                    5b:e7:f4:45:7c:a6:17:17:99:27:ca:e6:cd:97:4a:
                    83:23:0d
                Exponent: 65537 (0x10001)
        X509v3 extensions:
            X509v3 Basic Constraints: 
                CA:FALSE
            Netscape Comment: 
                Easy-RSA Generated Certificate
            X509v3 Subject Key Identifier: 
                D0:8F:22:82:68:FE:8F:60:28:75:71:B2:5C:E2:60:C4:ED:C8:F8:41
            X509v3 Authority Key Identifier: 
                keyid:12:CD:60:04:D2:A0:80:9E:70:ED:C6:99:B8:7B:2C:C6:52:FD:19:A1
                DirName:/C=US/ST=OH/L=Columbus/O=VikingVPN/OU=MyOrganizationalUnit/CN=VikingVPN CA/name=EasyRSA/emailAddress=me@myhost.mydomain
                serial:CF:35:85:EE:80:BF:2A:3E

            X509v3 Extended Key Usage: 
                TLS Web Client Authentication
            X509v3 Key Usage: 
                Digital Signature
    Signature Algorithm: sha256WithRSAEncryption
         da:6f:a6:a0:99:b3:ce:23:bf:62:96:b1:b7:c4:29:d4:a4:47:
         6e:c0:c9:12:c7:15:cd:ca:a8:1a:6d:e9:48:94:85:57:78:95:
         1d:a5:c6:0f:fc:63:5e:a6:14:ab:14:09:68:67:d8:30:6e:47:
         fd:6e:13:66:a4:ea:9f:8d:cd:8e:12:6d:df:b5:b8:8b:1c:75:
         b5:1b:5f:9e:43:a2:23:44:f0:63:24:cb:14:5e:41:f2:28:16:
         de:4c:0b:70:bf:cc:b1:43:70:d1:a3:16:6c:31:3e:7f:8d:1f:
         db:2c:69:d9:ae:2a:c7:7e:72:f9:03:e0:7b:6e:e5:d0:56:68:
         c3:ec:26:11:7a:53:5f:93:c3:96:eb:e3:7c:59:06:55:68:46:
         e4:6a:d1:0f:89:b9:50:ea:e4:e3:74:18:9a:dc:cd:03:11:a2:
         67:a4:d1:db:3b:5e:ea:2b:be:5b:b8:71:2d:1a:61:6b:d2:4e:
         f9:da:98:41:d8:4a:72:69:e2:bb:87:e6:e2:70:3f:9f:94:45:
         ba:d7:78:0e:9e:ea:1b:3b:c3:5b:92:6c:aa:63:ca:3a:73:74:
         17:f0:9f:7c:97:5a:16:db:81:4c:25:4b:09:fc:8f:a4:35:e0:
         07:e2:ff:2d:27:dc:fe:c1:dc:6d:2e:68:0d:07:f7:5b:35:e2:
         56:a5:6d:6a:62:79:27:23:14:cd:d2:cd:df:d8:49:37:28:06:
         a8:44:2e:71:d7:10:e4:f0:bb:73:4a:8f:7b:0f:e6:ab:f4:b0:
         40:38:71:6b:a4:fd:bb:40:d4:2a:0a:30:22:b7:c1:58:7c:d0:
         74:91:15:3b:e3:82:5a:df:04:42:2b:2e:9c:36:19:37:85:19:
         13:2e:0f:52:d0:7d:72:40:8d:00:d3:d7:7e:84:b8:ce:bb:42:
         62:ea:68:04:d1:8d:d4:84:c8:14:f8:9a:56:23:77:26:d0:a0:
         bb:89:a2:96:3a:79:fc:8c:4f:9f:20:1a:55:47:9a:6a:41:3c:
         4c:2c:f5:08:4c:ed:8f:a6:54:f1:b5:ab:06:de:a2:fa:4b:cb:
         53:7b:3b:5c:83:8e:fd:5e:29:02:8b:ca:9a:7a:be:78:a9:70:
         3f:be:f8:32:ad:48:cc:b1:83:f6:13:ff:75:35:8f:de:15:a1:
         43:95:d5:1e:36:46:44:02:6b:87:fb:df:47:63:d7:83:ba:48:
         e1:15:7d:b1:b8:fe:ac:b2:26:71:33:25:04:11:c1:df:b1:32:
         68:7c:54:3b:5c:68:96:8e:af:e5:b9:00:7f:20:2f:d8:0b:cd:
         d7:52:6d:c7:bc:ac:fd:62:af:4b:3b:91:65:82:b6:61:97:7a:
         99:e6:68:37:d8:52:a7:e4
-----BEGIN CERTIFICATE-----
MIIGrTCCBJWgAwIBAgICIaowDQYJKoZIhvcNAQELBQAwgawxCzAJBgNVBAYTAlVT
MQswCQYDVQQIEwJPSDERMA8GA1UEBxMIQ29sdW1idXMxEjAQBgNVBAoTCVZpa2lu
Z1ZQTjEdMBsGA1UECxMUTXlPcmdhbml6YXRpb25hbFVuaXQxFTATBgNVBAMTDFZp
a2luZ1ZQTiBDQTEQMA4GA1UEKRMHRWFzeVJTQTEhMB8GCSqGSIb3DQEJARYSbWVA
bXlob3N0Lm15ZG9tYWluMB4XDTE2MDczMTE4MjcwNVoXDTI2MDcyOTE4MjcwNVow
HzEdMBsGA1UEAxMUQ2xpZW50MTc5NkNlcnQ0YjlkZGYwggIiMA0GCSqGSIb3DQEB
AQUAA4ICDwAwggIKAoICAQCbzRHZCrB6grv7olBGN613Ozn+QTet1ZxZzwv1AWib
IERwOvMNXylbg4hxTF/4IUpHfklqpqaB2zu1KE3rgbUzw8yiG+z/X/ITUWySrsOr
7ey4p2kpXiq1fJbacsNW27nzb9LCEklFoTJ9q06GFk5Z0RD0NUDVwsmBKoMmgTkQ
c1e4E/qIzdqEUOF+6W8Zn9+uCrSrctYFftm27Nr1RDao/5SKV2g9ZeMogKeLDuB7
bOWvDiVy2nZUgQS+s4MgjzdE2rGcKnY4S6b6P4T/HaZjQnLcCxrYMBHvCD2C0zkg
5daYQ8pZP8FBF3jXnGrkXMseJIAFeMaxkCiuJkoeWg3DX1Lf47cm4l1CxezyoB2e
b/IQtxBVT2BlJrFcMThMF85UiagpyXIre1Dfdh+N7PNvL/vIrBCfYyfqDcwdvKy1
3ATE6q4HTDoIdoAh53pPTjrCeWN82OUViqh1yXE/mF9z25KiX1sPJ9lviy8dJxY0
6TqtCAN57PDJ/xl8QTh1bsajZxUVvTZqzqDhCDUZp0tfofS2AIeT3jxxRgToyCzg
AYeIbY96lCXfBx02O5tozMjJycGKe3hJF0nkRFpCUqcVoUEBJpnFNdiw0REobhCe
RveDuqhCXJSiePRIPL+4MsPAbJ5cIck0VRfb2WwmOFvn9EV8phcXmSfK5s2XSoMj
DQIDAQABo4IBYzCCAV8wCQYDVR0TBAIwADAtBglghkgBhvhCAQ0EIBYeRWFzeS1S
U0EgR2VuZXJhdGVkIENlcnRpZmljYXRlMB0GA1UdDgQWBBTQjyKCaP6PYCh1cbJc
4mDE7cj4QTCB4QYDVR0jBIHZMIHWgBQSzWAE0qCAnnDtxpm4eyzGUv0ZoaGBsqSB
rzCBrDELMAkGA1UEBhMCVVMxCzAJBgNVBAgTAk9IMREwDwYDVQQHEwhDb2x1bWJ1
czESMBAGA1UEChMJVmlraW5nVlBOMR0wGwYDVQQLExRNeU9yZ2FuaXphdGlvbmFs
VW5pdDEVMBMGA1UEAxMMVmlraW5nVlBOIENBMRAwDgYDVQQpEwdFYXN5UlNBMSEw
HwYJKoZIhvcNAQkBFhJtZUBteWhvc3QubXlkb21haW6CCQDPNYXugL8qPjATBgNV
HSUEDDAKBggrBgEFBQcDAjALBgNVHQ8EBAMCB4AwDQYJKoZIhvcNAQELBQADggIB
ANpvpqCZs84jv2KWsbfEKdSkR27AyRLHFc3KqBpt6UiUhVd4lR2lxg/8Y16mFKsU
CWhn2DBuR/1uE2ak6p+NzY4Sbd+1uIscdbUbX55DoiNE8GMkyxReQfIoFt5MC3C/
zLFDcNGjFmwxPn+NH9ssadmuKsd+cvkD4Htu5dBWaMPsJhF6U1+Tw5br43xZBlVo
RuRq0Q+JuVDq5ON0GJrczQMRomek0ds7Xuorvlu4cS0aYWvSTvnamEHYSnJp4ruH
5uJwP5+URbrXeA6e6hs7w1uSbKpjyjpzdBfwn3yXWhbbgUwlSwn8j6Q14Afi/y0n
3P7B3G0uaA0H91s14lalbWpieScjFM3Szd/YSTcoBqhELnHXEOTwu3NKj3sP5qv0
sEA4cWuk/btA1CoKMCK3wVh80HSRFTvjglrfBEIrLpw2GTeFGRMuD1LQfXJAjQDT
136EuM67QmLqaATRjdSEyBT4mlYjdybQoLuJopY6efyMT58gGlVHmmpBPEws9QhM
7Y+mVPG1qwbeovpLy1N7O1yDjv1eKQKLypp6vnipcD+++DKtSMyxg/YT/3U1j94V
oUOV1R42RkQCa4f730dj14O6SOEVfbG4/qyyJnEzJQQRwd+xMmh8VDtcaJaOr+W5
AH8gL9gLzddSbce8rP1ir0s7kWWCtmGXepnmaDfYUqfk
-----END CERTIFICATE-----
