Certificate:
    Data:
        Version: 3 (0x2)
        Serial Number: 8634 (0x21ba)
    Signature Algorithm: sha256WithRSAEncryption
        Issuer: C=US, ST=OH, L=Columbus, O=VikingVPN, OU=MyOrganizationalUnit, CN=VikingVPN CA/name=EasyRSA/emailAddress=me@myhost.mydomain
        Validity
            Not Before: Jul 31 18:49:25 2016 GMT
            Not After : Jul 29 18:49:25 2026 GMT
        Subject: CN=Client1796Cert60d76e
        Subject Public Key Info:
            Public Key Algorithm: rsaEncryption
                Public-Key: (4096 bit)
                Modulus:
                    00:ae:23:f3:88:ca:30:ac:ab:52:49:96:25:e6:3f:
                    d3:1d:f2:10:3f:29:9d:20:7b:42:29:fd:99:84:9c:
                    41:7d:c8:c4:97:73:2e:83:02:0c:2d:81:d0:62:51:
                    69:09:f7:97:32:f3:a0:39:a2:cf:4d:79:07:1f:81:
                    b9:50:92:9a:ee:f1:bb:b3:82:a1:73:b7:ba:ec:a1:
                    05:8a:de:00:1d:13:a6:a5:ee:f7:96:6a:89:24:9c:
                    a1:79:2e:1b:d7:18:52:e4:52:29:cb:29:cb:0b:e3:
                    70:90:51:1d:85:ed:90:0b:75:2b:32:31:55:36:66:
                    42:02:28:d7:d4:d7:92:37:4e:a6:a3:ac:84:fc:1d:
                    47:b0:38:61:5d:37:07:8a:c3:21:af:06:b6:8c:c0:
                    36:e5:96:75:b6:49:ab:3d:4f:70:3d:15:f6:76:29:
                    28:9f:2c:2b:91:a7:de:36:3c:36:b9:b9:9e:5f:84:
                    4c:3e:1c:79:d0:b2:86:80:19:cc:b2:a4:3a:32:45:
                    05:3c:69:a4:b8:83:d4:bd:c6:3f:18:35:e7:b3:57:
                    df:39:b6:f2:a0:2a:72:49:65:18:45:55:a3:28:2d:
                    1d:18:42:5c:53:04:8d:72:a0:dc:d4:ba:81:f1:39:
                    e7:32:7e:62:59:a1:44:10:3c:76:8f:06:74:04:2b:
                    c7:b0:15:bd:f3:39:e3:ff:6b:36:6a:fa:3e:1e:37:
                    17:44:03:c8:78:a9:fb:74:47:90:b4:21:11:20:ae:
                    bb:37:6a:86:de:44:e3:b2:1c:fc:f6:66:85:1c:9d:
                    b3:fd:ed:09:45:47:ac:a4:86:10:b9:1a:4b:1f:44:
                    fe:d8:8a:63:06:22:d3:43:2e:54:cd:45:f5:cf:bc:
                    20:91:b4:5f:51:9e:7f:86:c9:f8:f9:64:ca:33:2d:
                    77:25:f6:e6:29:71:3d:3d:bc:38:7d:c1:86:6f:bc:
                    70:67:e0:5f:f1:ba:94:dc:4d:d9:cc:52:0d:5c:a4:
                    f8:ad:6b:3f:24:23:e5:7a:9c:af:31:e1:80:4d:5f:
                    93:ce:40:44:0a:06:d9:ff:23:55:35:99:90:33:3c:
                    32:06:8e:45:1d:41:0f:5d:47:80:72:4a:7f:37:fa:
                    f2:46:5a:1e:50:5d:f1:c6:87:82:6f:85:07:92:64:
                    b6:45:2c:a6:85:24:9b:bf:61:c8:2e:76:a4:c8:4c:
                    7f:bf:94:9e:e3:6b:4c:04:d9:14:a0:7a:ab:c8:dd:
                    d0:7e:b4:18:14:1e:7a:2a:79:18:80:e7:c5:78:4f:
                    54:1f:fe:69:9a:91:cd:01:97:ee:16:49:1c:6e:88:
                    c1:54:7f:ba:46:d0:dc:15:18:95:d5:fb:05:c3:3b:
                    85:96:0d
                Exponent: 65537 (0x10001)
        X509v3 extensions:
            X509v3 Basic Constraints: 
                CA:FALSE
            Netscape Comment: 
                Easy-RSA Generated Certificate
            X509v3 Subject Key Identifier: 
                09:FE:58:BA:78:1B:7C:74:57:02:8D:30:4B:79:B6:03:8C:C1:C3:3A
            X509v3 Authority Key Identifier: 
                keyid:12:CD:60:04:D2:A0:80:9E:70:ED:C6:99:B8:7B:2C:C6:52:FD:19:A1
                DirName:/C=US/ST=OH/L=Columbus/O=VikingVPN/OU=MyOrganizationalUnit/CN=VikingVPN CA/name=EasyRSA/emailAddress=me@myhost.mydomain
                serial:CF:35:85:EE:80:BF:2A:3E

            X509v3 Extended Key Usage: 
                TLS Web Client Authentication
            X509v3 Key Usage: 
                Digital Signature
    Signature Algorithm: sha256WithRSAEncryption
         10:b5:97:28:58:57:22:30:1d:28:ed:b7:f2:c3:d7:4b:a1:d0:
         2c:33:34:9a:cd:d7:fe:16:3a:3c:22:94:b6:ba:14:1c:5c:fa:
         b4:04:c8:4f:1a:19:ff:65:0b:18:d5:bc:df:bd:47:e5:3f:bf:
         ec:03:ff:79:d5:c9:cc:4d:56:98:4b:dc:3a:ee:0e:d4:3b:1d:
         ab:4e:76:65:63:fc:63:bc:0a:36:c8:ce:4c:98:73:04:cb:a3:
         1d:b5:e2:16:c8:84:ea:49:54:13:7a:95:3d:ed:5f:1f:ef:6b:
         40:8e:19:65:3a:7b:f9:6e:8b:d6:b0:e7:c5:3c:e0:04:e7:61:
         ed:dc:74:76:2e:47:8d:33:ef:17:96:58:f2:c1:ba:68:90:0e:
         11:38:41:c4:6a:fc:e0:03:cf:af:ab:f1:75:40:e4:24:b2:12:
         d0:47:39:bb:78:15:a0:c9:4c:1a:4a:18:3a:0a:2d:5a:85:91:
         55:a5:ca:29:d9:98:ad:8e:e2:e3:ec:ce:98:98:6a:f2:ca:fa:
         ca:59:8d:dd:8e:2d:32:9d:46:cb:49:6c:aa:52:36:ac:30:25:
         98:7d:74:8f:2a:58:96:dc:95:47:54:2c:a9:34:78:f0:81:b7:
         fb:76:6b:ca:73:e1:d1:d9:4f:ef:c8:62:05:7a:6c:d7:16:6e:
         32:27:bc:91:0e:46:f1:08:e5:c0:68:2a:5c:3d:fc:74:ab:c5:
         a2:b9:73:63:14:cd:a8:8c:4c:b1:26:7f:2e:b2:b7:3e:70:23:
         f9:ea:13:e2:24:3e:0f:29:82:43:e5:2f:f9:7b:18:d9:91:19:
         b0:62:68:35:8e:81:c5:ea:b6:26:9f:f3:79:8f:f1:01:e5:73:
         6b:d0:e0:71:65:3f:4d:af:37:ea:23:b0:35:2f:ad:1c:db:44:
         7b:8b:3c:f8:75:66:ea:9f:5f:b8:54:16:31:69:ee:11:c0:65:
         88:ce:16:93:f4:fc:6e:c4:85:38:90:6f:90:12:fc:c8:b2:67:
         3c:94:a3:f4:88:da:3e:f3:8c:29:6c:2d:dc:e1:3d:37:8b:c9:
         f2:a8:ef:06:50:85:ff:ad:43:30:c5:d5:39:f8:b7:4f:55:93:
         6e:ae:08:f4:31:20:65:57:48:25:c4:f2:01:75:47:b4:d9:cd:
         70:c3:4a:49:84:92:cf:9d:f5:ba:a6:6b:97:08:54:44:7b:cb:
         e0:f8:89:b5:57:55:8c:ac:dd:e4:93:c3:f3:ca:e9:8a:14:b6:
         4e:c1:24:d6:41:1b:2e:f4:01:b9:78:ca:24:42:48:d7:9d:46:
         d6:e6:ce:20:80:0a:ec:df:f5:be:4e:e4:82:ff:38:0c:f3:87:
         15:93:04:0f:80:57:73:49
-----BEGIN CERTIFICATE-----
MIIGrTCCBJWgAwIBAgICIbowDQYJKoZIhvcNAQELBQAwgawxCzAJBgNVBAYTAlVT
MQswCQYDVQQIEwJPSDERMA8GA1UEBxMIQ29sdW1idXMxEjAQBgNVBAoTCVZpa2lu
Z1ZQTjEdMBsGA1UECxMUTXlPcmdhbml6YXRpb25hbFVuaXQxFTATBgNVBAMTDFZp
a2luZ1ZQTiBDQTEQMA4GA1UEKRMHRWFzeVJTQTEhMB8GCSqGSIb3DQEJARYSbWVA
bXlob3N0Lm15ZG9tYWluMB4XDTE2MDczMTE4NDkyNVoXDTI2MDcyOTE4NDkyNVow
HzEdMBsGA1UEAxMUQ2xpZW50MTc5NkNlcnQ2MGQ3NmUwggIiMA0GCSqGSIb3DQEB
AQUAA4ICDwAwggIKAoICAQCuI/OIyjCsq1JJliXmP9Md8hA/KZ0ge0Ip/ZmEnEF9
yMSXcy6DAgwtgdBiUWkJ95cy86A5os9NeQcfgblQkpru8buzgqFzt7rsoQWK3gAd
E6al7veWaokknKF5LhvXGFLkUinLKcsL43CQUR2F7ZALdSsyMVU2ZkICKNfU15I3
TqajrIT8HUewOGFdNweKwyGvBraMwDbllnW2Sas9T3A9FfZ2KSifLCuRp942PDa5
uZ5fhEw+HHnQsoaAGcyypDoyRQU8aaS4g9S9xj8YNeezV985tvKgKnJJZRhFVaMo
LR0YQlxTBI1yoNzUuoHxOecyfmJZoUQQPHaPBnQEK8ewFb3zOeP/azZq+j4eNxdE
A8h4qft0R5C0IREgrrs3aobeROOyHPz2ZoUcnbP97QlFR6ykhhC5GksfRP7YimMG
ItNDLlTNRfXPvCCRtF9Rnn+Gyfj5ZMozLXcl9uYpcT09vDh9wYZvvHBn4F/xupTc
TdnMUg1cpPitaz8kI+V6nK8x4YBNX5POQEQKBtn/I1U1mZAzPDIGjkUdQQ9dR4By
Sn83+vJGWh5QXfHGh4JvhQeSZLZFLKaFJJu/YcgudqTITH+/lJ7ja0wE2RSgeqvI
3dB+tBgUHnoqeRiA58V4T1Qf/mmakc0Bl+4WSRxuiMFUf7pG0NwVGJXV+wXDO4WW
DQIDAQABo4IBYzCCAV8wCQYDVR0TBAIwADAtBglghkgBhvhCAQ0EIBYeRWFzeS1S
U0EgR2VuZXJhdGVkIENlcnRpZmljYXRlMB0GA1UdDgQWBBQJ/li6eBt8dFcCjTBL
ebYDjMHDOjCB4QYDVR0jBIHZMIHWgBQSzWAE0qCAnnDtxpm4eyzGUv0ZoaGBsqSB
rzCBrDELMAkGA1UEBhMCVVMxCzAJBgNVBAgTAk9IMREwDwYDVQQHEwhDb2x1bWJ1
czESMBAGA1UEChMJVmlraW5nVlBOMR0wGwYDVQQLExRNeU9yZ2FuaXphdGlvbmFs
VW5pdDEVMBMGA1UEAxMMVmlraW5nVlBOIENBMRAwDgYDVQQpEwdFYXN5UlNBMSEw
HwYJKoZIhvcNAQkBFhJtZUBteWhvc3QubXlkb21haW6CCQDPNYXugL8qPjATBgNV
HSUEDDAKBggrBgEFBQcDAjALBgNVHQ8EBAMCB4AwDQYJKoZIhvcNAQELBQADggIB
ABC1lyhYVyIwHSjtt/LD10uh0CwzNJrN1/4WOjwilLa6FBxc+rQEyE8aGf9lCxjV
vN+9R+U/v+wD/3nVycxNVphL3DruDtQ7HatOdmVj/GO8CjbIzkyYcwTLox214hbI
hOpJVBN6lT3tXx/va0COGWU6e/lui9aw58U84ATnYe3cdHYuR40z7xeWWPLBumiQ
DhE4QcRq/OADz6+r8XVA5CSyEtBHObt4FaDJTBpKGDoKLVqFkVWlyinZmK2O4uPs
zpiYavLK+spZjd2OLTKdRstJbKpSNqwwJZh9dI8qWJbclUdULKk0ePCBt/t2a8pz
4dHZT+/IYgV6bNcWbjInvJEORvEI5cBoKlw9/HSrxaK5c2MUzaiMTLEmfy6ytz5w
I/nqE+IkPg8pgkPlL/l7GNmRGbBiaDWOgcXqtiaf83mP8QHlc2vQ4HFlP02vN+oj
sDUvrRzbRHuLPPh1ZuqfX7hUFjFp7hHAZYjOFpP0/G7EhTiQb5AS/MiyZzyUo/SI
2j7zjClsLdzhPTeLyfKo7wZQhf+tQzDF1Tn4t09Vk26uCPQxIGVXSCXE8gF1R7TZ
zXDDSkmEks+d9bqma5cIVER7y+D4ibVXVYys3eSTw/PK6YoUtk7BJNZBGy70Abl4
yiRCSNedRtbmziCACuzf9b5O5IL/OAzzhxWTBA+AV3NJ
-----END CERTIFICATE-----
