Certificate:
    Data:
        Version: 3 (0x2)
        Serial Number: 8652 (0x21cc)
    Signature Algorithm: sha256WithRSAEncryption
        Issuer: C=US, ST=OH, L=Columbus, O=VikingVPN, OU=MyOrganizationalUnit, CN=VikingVPN CA/name=EasyRSA/emailAddress=me@myhost.mydomain
        Validity
            Not Before: Jul 31 23:41:27 2016 GMT
            Not After : Jul 29 23:41:27 2026 GMT
        Subject: CN=Client1796Cert9e361c
        Subject Public Key Info:
            Public Key Algorithm: rsaEncryption
                Public-Key: (4096 bit)
                Modulus:
                    00:d2:b4:9b:74:a3:50:2d:ba:3a:c4:10:a6:d1:b6:
                    08:b6:7e:7c:e1:3c:bf:55:e6:bf:ff:49:ab:68:a4:
                    3c:77:5b:6d:64:2e:3d:fc:25:b7:0e:bc:9e:13:7b:
                    85:a8:56:5d:03:1a:1a:0b:9b:07:03:c5:71:af:02:
                    a9:92:d1:22:08:96:fe:e4:dc:1f:22:fa:d7:b7:21:
                    18:c4:6a:4d:3e:cd:a7:78:23:c0:4c:50:60:ca:f5:
                    5b:ee:b5:14:63:6e:35:ce:86:8d:1d:e9:89:67:8e:
                    95:8c:5e:97:d6:5b:40:97:a0:4c:28:14:7b:fc:20:
                    82:f7:a6:4d:11:14:85:8a:9a:67:a5:8e:32:77:d6:
                    9b:0b:28:d6:1a:06:9f:89:a8:a6:02:e7:d0:00:2e:
                    d4:8d:b4:07:93:14:49:06:b6:74:72:fa:58:26:a9:
                    b7:17:8a:71:e4:42:5c:39:26:47:e8:ac:3e:4c:c6:
                    36:20:f3:e2:37:6b:37:f4:c3:11:b6:46:3d:c5:04:
                    e5:65:ca:d6:c2:0c:a3:f2:73:41:43:87:17:0b:18:
                    b7:ec:44:6c:0a:6c:2e:b5:8e:1f:7a:0b:f8:ea:0f:
                    0f:9d:e3:13:c4:64:a5:69:b0:b7:0f:70:e4:be:6c:
                    c0:7f:3c:04:80:f0:23:7a:88:73:49:6c:a9:d5:ce:
                    a4:3c:3b:dd:71:48:d9:63:29:60:51:15:ef:61:9b:
                    2a:f7:e1:de:91:0a:bc:2e:df:34:fa:0b:53:5b:49:
                    33:0f:4c:6d:73:55:80:2d:85:56:92:37:34:d1:36:
                    01:9c:09:90:77:7d:65:42:db:0f:24:da:75:52:d2:
                    62:8e:03:ea:7c:2c:de:de:e3:05:94:ce:c5:85:17:
                    09:e7:c3:79:ab:e4:ce:c0:8a:47:a3:b4:fa:64:c6:
                    b9:a8:72:e1:5a:ad:88:3a:27:a5:ed:97:95:7a:b5:
                    55:a3:04:62:0e:ad:d1:11:bf:ce:8c:dd:3b:28:7f:
                    2a:dd:b7:56:d5:f2:c2:9d:db:fe:2a:ed:02:7a:c1:
                    9b:63:6c:fb:b1:50:60:05:2f:04:bc:f3:b0:d9:a1:
                    9a:d1:05:e4:f7:85:16:53:be:e7:56:cb:28:77:30:
                    f8:e1:e9:a4:93:b6:43:31:0d:39:68:fe:e3:c3:23:
                    8e:a2:87:95:03:30:fe:91:ec:0c:47:16:61:b9:dd:
                    c3:7c:a4:b8:1e:43:48:d5:21:1f:48:66:35:73:db:
                    ce:56:2f:a8:6e:0d:f1:1a:2f:c5:c2:9b:04:9b:f0:
                    a6:2e:9b:49:21:02:d5:68:49:25:78:7f:fe:f1:86:
                    e2:b6:9d:24:88:62:1f:45:68:b9:4f:b5:4a:0a:df:
                    74:00:5b
                Exponent: 65537 (0x10001)
        X509v3 extensions:
            X509v3 Basic Constraints: 
                CA:FALSE
            Netscape Comment: 
                Easy-RSA Generated Certificate
            X509v3 Subject Key Identifier: 
                2D:C6:ED:8B:84:B4:E9:C1:52:E4:41:C4:13:06:F3:3A:03:A3:8B:01
            X509v3 Authority Key Identifier: 
                keyid:12:CD:60:04:D2:A0:80:9E:70:ED:C6:99:B8:7B:2C:C6:52:FD:19:A1
                DirName:/C=US/ST=OH/L=Columbus/O=VikingVPN/OU=MyOrganizationalUnit/CN=VikingVPN CA/name=EasyRSA/emailAddress=me@myhost.mydomain
                serial:CF:35:85:EE:80:BF:2A:3E

            X509v3 Extended Key Usage: 
                TLS Web Client Authentication
            X509v3 Key Usage: 
                Digital Signature
    Signature Algorithm: sha256WithRSAEncryption
         42:70:65:39:c3:61:72:80:c9:d0:54:34:d7:38:d1:56:a3:5c:
         d7:e4:a2:eb:fb:e3:49:54:79:7e:05:21:eb:44:23:07:cc:b0:
         6c:b2:64:7f:1b:96:55:fe:d3:e8:14:30:56:26:4f:86:bc:19:
         8a:91:53:d3:93:86:ba:39:19:09:86:c4:ce:c4:e8:4d:dc:3c:
         05:f1:59:ef:44:36:0d:70:cb:d0:cc:4d:d7:af:36:a8:6d:32:
         bf:02:ff:f7:62:f4:59:73:96:78:bf:c6:ef:c8:19:12:fd:71:
         ba:3e:4c:15:ea:b8:38:e3:9d:55:e2:fe:a1:d2:87:7b:c6:26:
         be:29:27:ee:68:3e:a8:0c:94:62:c2:dc:bc:e2:80:0c:bf:72:
         7e:b4:37:57:cd:08:67:4b:10:f9:7e:7c:3f:da:5c:ef:26:7c:
         de:33:53:60:1b:fd:37:b4:02:b4:42:9c:44:6b:27:40:bd:f7:
         42:02:5d:23:5d:a0:6c:24:92:7c:73:24:c3:db:29:16:d6:78:
         21:71:31:b0:fb:89:d9:65:ac:46:9b:bc:7d:3e:15:1e:56:b5:
         a1:80:a1:80:14:ea:bb:4d:68:4f:a4:5a:4a:94:b3:03:3a:eb:
         53:f1:af:e8:50:7d:37:1e:a2:66:b0:0d:0f:70:51:c2:da:cb:
         79:15:9d:92:f9:c9:0c:60:e7:6c:f9:61:11:1f:c2:7f:0c:06:
         7a:5c:4d:dd:cf:e1:6c:a6:8e:05:da:2c:5d:77:5a:06:85:d1:
         9d:b0:98:fb:51:7c:64:b9:d6:c4:07:99:5a:4c:dc:a5:85:d9:
         94:fd:b1:c5:2a:b5:0e:0e:d4:42:0d:1f:70:0b:02:e5:5d:f9:
         d7:25:61:0f:c9:cf:56:28:4a:08:65:f6:73:de:71:f8:02:24:
         d6:4c:45:92:74:ed:7b:53:23:7a:b2:5b:c9:29:52:7c:31:4d:
         82:7c:8e:b7:83:8a:b6:cc:e5:55:e0:2a:e5:7d:dd:38:9e:b4:
         8d:7d:06:e1:cf:cb:18:74:b5:9a:86:55:79:df:80:64:e0:3b:
         45:20:f7:3e:0d:ba:66:95:b7:bd:77:96:67:4a:2c:12:fc:8a:
         0a:79:a1:a0:96:62:1f:5e:3a:96:35:5a:a8:7e:f4:5f:bf:72:
         97:46:88:7c:61:08:79:0e:9a:ef:4c:b0:27:5a:0e:34:76:8f:
         25:4c:4c:f0:78:70:af:6d:52:91:e3:c3:8e:d7:05:b1:57:af:
         e8:ee:aa:ab:31:7a:67:49:b6:96:4d:b8:32:21:b6:5c:c2:10:
         a0:b8:f4:2d:ad:68:2d:e0:81:38:d6:58:7d:68:0c:22:7b:e4:
         a4:f5:b0:a9:e0:84:e8:ee
-----BEGIN CERTIFICATE-----
MIIGrTCCBJWgAwIBAgICIcwwDQYJKoZIhvcNAQELBQAwgawxCzAJBgNVBAYTAlVT
MQswCQYDVQQIEwJPSDERMA8GA1UEBxMIQ29sdW1idXMxEjAQBgNVBAoTCVZpa2lu
Z1ZQTjEdMBsGA1UECxMUTXlPcmdhbml6YXRpb25hbFVuaXQxFTATBgNVBAMTDFZp
a2luZ1ZQTiBDQTEQMA4GA1UEKRMHRWFzeVJTQTEhMB8GCSqGSIb3DQEJARYSbWVA
bXlob3N0Lm15ZG9tYWluMB4XDTE2MDczMTIzNDEyN1oXDTI2MDcyOTIzNDEyN1ow
HzEdMBsGA1UEAxMUQ2xpZW50MTc5NkNlcnQ5ZTM2MWMwggIiMA0GCSqGSIb3DQEB
AQUAA4ICDwAwggIKAoICAQDStJt0o1AtujrEEKbRtgi2fnzhPL9V5r//SatopDx3
W21kLj38JbcOvJ4Te4WoVl0DGhoLmwcDxXGvAqmS0SIIlv7k3B8i+te3IRjEak0+
zad4I8BMUGDK9VvutRRjbjXOho0d6YlnjpWMXpfWW0CXoEwoFHv8IIL3pk0RFIWK
mmeljjJ31psLKNYaBp+JqKYC59AALtSNtAeTFEkGtnRy+lgmqbcXinHkQlw5Jkfo
rD5MxjYg8+I3azf0wxG2Rj3FBOVlytbCDKPyc0FDhxcLGLfsRGwKbC61jh96C/jq
Dw+d4xPEZKVpsLcPcOS+bMB/PASA8CN6iHNJbKnVzqQ8O91xSNljKWBRFe9hmyr3
4d6RCrwu3zT6C1NbSTMPTG1zVYAthVaSNzTRNgGcCZB3fWVC2w8k2nVS0mKOA+p8
LN7e4wWUzsWFFwnnw3mr5M7AikejtPpkxrmocuFarYg6J6Xtl5V6tVWjBGIOrdER
v86M3Tsofyrdt1bV8sKd2/4q7QJ6wZtjbPuxUGAFLwS887DZoZrRBeT3hRZTvudW
yyh3MPjh6aSTtkMxDTlo/uPDI46ih5UDMP6R7AxHFmG53cN8pLgeQ0jVIR9IZjVz
285WL6huDfEaL8XCmwSb8KYum0khAtVoSSV4f/7xhuK2nSSIYh9FaLlPtUoK33QA
WwIDAQABo4IBYzCCAV8wCQYDVR0TBAIwADAtBglghkgBhvhCAQ0EIBYeRWFzeS1S
U0EgR2VuZXJhdGVkIENlcnRpZmljYXRlMB0GA1UdDgQWBBQtxu2LhLTpwVLkQcQT
BvM6A6OLATCB4QYDVR0jBIHZMIHWgBQSzWAE0qCAnnDtxpm4eyzGUv0ZoaGBsqSB
rzCBrDELMAkGA1UEBhMCVVMxCzAJBgNVBAgTAk9IMREwDwYDVQQHEwhDb2x1bWJ1
czESMBAGA1UEChMJVmlraW5nVlBOMR0wGwYDVQQLExRNeU9yZ2FuaXphdGlvbmFs
VW5pdDEVMBMGA1UEAxMMVmlraW5nVlBOIENBMRAwDgYDVQQpEwdFYXN5UlNBMSEw
HwYJKoZIhvcNAQkBFhJtZUBteWhvc3QubXlkb21haW6CCQDPNYXugL8qPjATBgNV
HSUEDDAKBggrBgEFBQcDAjALBgNVHQ8EBAMCB4AwDQYJKoZIhvcNAQELBQADggIB
AEJwZTnDYXKAydBUNNc40VajXNfkouv740lUeX4FIetEIwfMsGyyZH8bllX+0+gU
MFYmT4a8GYqRU9OThro5GQmGxM7E6E3cPAXxWe9ENg1wy9DMTdevNqhtMr8C//di
9Flzlni/xu/IGRL9cbo+TBXquDjjnVXi/qHSh3vGJr4pJ+5oPqgMlGLC3LzigAy/
cn60N1fNCGdLEPl+fD/aXO8mfN4zU2Ab/Te0ArRCnERrJ0C990ICXSNdoGwkknxz
JMPbKRbWeCFxMbD7idllrEabvH0+FR5WtaGAoYAU6rtNaE+kWkqUswM661Pxr+hQ
fTceomawDQ9wUcLay3kVnZL5yQxg52z5YREfwn8MBnpcTd3P4WymjgXaLF13WgaF
0Z2wmPtRfGS51sQHmVpM3KWF2ZT9scUqtQ4O1EINH3ALAuVd+dclYQ/Jz1YoSghl
9nPecfgCJNZMRZJ07XtTI3qyW8kpUnwxTYJ8jreDirbM5VXgKuV93TietI19BuHP
yxh0tZqGVXnfgGTgO0Ug9z4NumaVt713lmdKLBL8igp5oaCWYh9eOpY1Wqh+9F+/
cpdGiHxhCHkOmu9MsCdaDjR2jyVMTPB4cK9tUpHjw47XBbFXr+juqqsxemdJtpZN
uDIhtlzCEKC49C2taC3ggTjWWH1oDCJ75KT1sKnghOju
-----END CERTIFICATE-----
