Certificate:
    Data:
        Version: 3 (0x2)
        Serial Number: 8655 (0x21cf)
    Signature Algorithm: sha256WithRSAEncryption
        Issuer: C=US, ST=OH, L=Columbus, O=VikingVPN, OU=MyOrganizationalUnit, CN=VikingVPN CA/name=EasyRSA/emailAddress=me@myhost.mydomain
        Validity
            Not Before: Aug  1 13:06:07 2016 GMT
            Not After : Jul 30 13:06:07 2026 GMT
        Subject: CN=Client2167Cert3c9514
        Subject Public Key Info:
            Public Key Algorithm: rsaEncryption
                Public-Key: (4096 bit)
                Modulus:
                    00:d3:96:1c:83:af:e4:0a:66:61:6f:03:3b:17:6e:
                    2c:c1:05:fa:ac:4e:df:b9:94:36:af:a7:4f:bc:3b:
                    bb:b6:e0:ba:e1:ae:da:2a:01:bb:d9:59:72:43:e2:
                    90:5a:af:20:4d:5d:c8:5c:6d:64:4f:be:d3:3d:c7:
                    b7:d3:99:01:d2:63:ad:0e:c0:28:2e:22:f0:61:9b:
                    50:fd:7e:86:9f:82:8b:7b:f9:bb:66:3f:b6:81:1e:
                    e2:38:48:0f:b6:8c:3a:3c:13:0b:b1:f4:0e:8c:8b:
                    af:b2:b9:9c:59:a1:09:e6:e4:f7:7f:d6:f4:c8:81:
                    d7:1b:7d:1c:7a:54:07:b8:7d:75:48:7e:79:bb:68:
                    fb:7d:38:a3:d3:98:8f:04:63:72:10:07:66:38:00:
                    20:09:e3:3e:7a:c7:38:d9:63:12:73:a8:64:2c:ce:
                    77:22:9d:96:d6:e0:59:68:97:5d:de:b5:d1:6d:58:
                    7a:bf:db:1b:a6:0f:b1:af:bc:5f:70:06:de:fd:f4:
                    c7:1f:01:41:07:48:57:1d:b1:9e:d9:d0:b2:22:65:
                    89:14:a8:e3:a9:82:fb:85:c4:b2:46:36:b1:4b:71:
                    c8:54:d3:fc:ce:91:4c:2a:20:10:33:52:83:b0:2d:
                    cc:31:71:57:13:be:55:1d:13:53:83:f5:22:f7:e4:
                    b9:10:cf:76:9d:09:9a:b3:d0:c4:ae:40:84:45:ba:
                    dc:92:34:c4:0f:67:70:d9:82:ad:96:47:fc:06:07:
                    96:4d:5e:03:cf:c0:41:4d:40:c7:2d:0b:b0:df:65:
                    63:da:74:94:8f:08:42:26:87:a9:2a:e5:11:c9:30:
                    19:c4:82:5a:16:d5:2d:d4:af:13:3b:b0:de:4a:c3:
                    33:27:44:a7:08:8b:f3:90:0c:c1:25:8e:7d:9c:ed:
                    42:c7:51:ce:30:44:b8:68:31:3a:7c:a5:d9:31:fb:
                    1e:50:de:5a:fd:42:52:68:07:7f:39:f5:71:07:a4:
                    5f:6e:fd:ec:fe:d7:a0:11:40:50:32:7a:fb:cc:08:
                    36:d7:63:ab:07:c9:32:b9:be:cf:0a:64:2a:f9:02:
                    55:a5:28:78:12:82:fe:78:e0:03:d8:90:8e:82:49:
                    38:59:51:3d:f6:82:09:89:e6:04:17:4a:fc:28:80:
                    e0:cc:58:00:e6:58:95:18:07:cc:46:a0:b1:85:57:
                    51:65:53:40:90:7c:0f:74:b1:b9:b4:7b:08:29:f9:
                    90:dd:af:8a:da:e1:34:46:d8:4e:f8:1b:19:04:91:
                    36:71:17:5e:cd:0f:38:02:d0:6d:bc:88:13:73:dc:
                    b8:4a:0f:8c:37:1b:20:81:bc:2c:d4:4d:8f:ca:36:
                    41:b6:4b
                Exponent: 65537 (0x10001)
        X509v3 extensions:
            X509v3 Basic Constraints: 
                CA:FALSE
            Netscape Comment: 
                Easy-RSA Generated Certificate
            X509v3 Subject Key Identifier: 
                EF:46:A1:B9:23:E8:22:19:6C:6A:5A:70:B3:3C:3A:79:91:3F:03:62
            X509v3 Authority Key Identifier: 
                keyid:12:CD:60:04:D2:A0:80:9E:70:ED:C6:99:B8:7B:2C:C6:52:FD:19:A1
                DirName:/C=US/ST=OH/L=Columbus/O=VikingVPN/OU=MyOrganizationalUnit/CN=VikingVPN CA/name=EasyRSA/emailAddress=me@myhost.mydomain
                serial:CF:35:85:EE:80:BF:2A:3E

            X509v3 Extended Key Usage: 
                TLS Web Client Authentication
            X509v3 Key Usage: 
                Digital Signature
    Signature Algorithm: sha256WithRSAEncryption
         78:da:24:3a:40:4d:3d:6a:0d:bb:59:81:d8:62:3a:ab:7c:da:
         7d:78:b1:99:8f:61:53:34:ad:ab:5a:c0:a6:f4:c3:0d:d2:df:
         d0:6b:4f:5d:be:09:6f:b6:36:4c:bb:8e:fd:2f:e4:ca:9e:e0:
         9a:c4:13:9b:89:79:ac:4a:bf:1d:ca:c8:94:1a:b3:b2:c5:89:
         f8:fd:f4:2f:ea:5b:bb:40:87:2c:cc:5b:c9:c5:b7:6a:d7:19:
         23:1d:73:c2:fd:7a:31:63:92:15:ab:dd:ce:c2:e8:72:34:cf:
         c2:28:30:b9:6b:c8:bc:2a:86:95:a9:0e:3a:08:e0:db:9e:6d:
         46:db:32:39:40:6a:81:88:9f:ab:dc:6f:91:c3:d5:ee:df:04:
         8d:93:28:01:45:d5:4b:db:78:38:18:f2:59:09:8f:bc:79:7d:
         b1:dd:6c:03:e5:d1:c6:28:6a:fc:c0:e3:da:82:98:ea:3e:e5:
         80:17:77:44:c1:4a:53:e0:28:42:69:c8:89:45:f0:ce:cc:1c:
         82:ed:71:7f:e1:80:6f:39:35:ff:17:6f:49:f7:bd:e0:5b:a2:
         78:39:d4:ee:e6:07:c1:9c:32:1a:05:7a:5f:37:0b:c6:57:c8:
         81:2f:aa:eb:99:4a:ab:0e:be:47:27:c4:e0:d8:ee:e1:b9:75:
         0e:d0:4c:c2:a0:a3:c1:ee:34:0a:f9:b3:c9:97:9e:88:3e:b1:
         97:bb:b6:b5:ba:5d:2e:3e:32:00:93:a1:23:c5:d8:de:8c:5f:
         2c:c1:ee:f5:bb:6c:d4:06:5f:01:24:1f:8d:ba:69:95:cb:60:
         55:65:4b:d9:60:af:74:1e:9c:48:4f:4c:b5:fe:5e:7c:c1:21:
         37:a1:47:42:ce:c3:80:53:c2:27:cc:64:2b:6d:54:b3:3c:78:
         d7:de:79:a7:62:86:d5:b2:bf:b3:6c:25:e9:00:d1:d0:97:a2:
         77:7d:b1:fd:46:dd:ed:0a:62:e2:18:a2:3f:30:df:7d:f3:57:
         b7:5b:42:fb:e2:4b:c9:8b:ce:17:4f:e7:bd:68:53:4f:82:9a:
         80:45:0c:de:50:2c:7e:31:de:d0:45:18:ba:45:da:89:0b:05:
         45:5a:e6:ee:96:20:4d:ee:f9:68:0c:da:17:4e:1b:4e:6d:d7:
         54:d3:8e:f0:1a:d7:27:bf:d0:42:91:4e:cd:ba:38:dc:b3:fd:
         0a:36:3e:61:6b:11:25:77:26:c9:9a:06:71:57:79:d2:a0:06:
         17:3f:99:ff:f6:c4:46:57:56:2b:dd:aa:46:ba:66:a8:ff:c6:
         c7:2f:9b:82:6d:8f:f7:c8:b4:59:32:f7:cb:15:f9:1b:28:db:
         53:48:87:f1:e7:1c:72:8c
-----BEGIN CERTIFICATE-----
MIIGrTCCBJWgAwIBAgICIc8wDQYJKoZIhvcNAQELBQAwgawxCzAJBgNVBAYTAlVT
MQswCQYDVQQIEwJPSDERMA8GA1UEBxMIQ29sdW1idXMxEjAQBgNVBAoTCVZpa2lu
Z1ZQTjEdMBsGA1UECxMUTXlPcmdhbml6YXRpb25hbFVuaXQxFTATBgNVBAMTDFZp
a2luZ1ZQTiBDQTEQMA4GA1UEKRMHRWFzeVJTQTEhMB8GCSqGSIb3DQEJARYSbWVA
bXlob3N0Lm15ZG9tYWluMB4XDTE2MDgwMTEzMDYwN1oXDTI2MDczMDEzMDYwN1ow
HzEdMBsGA1UEAxMUQ2xpZW50MjE2N0NlcnQzYzk1MTQwggIiMA0GCSqGSIb3DQEB
AQUAA4ICDwAwggIKAoICAQDTlhyDr+QKZmFvAzsXbizBBfqsTt+5lDavp0+8O7u2
4LrhrtoqAbvZWXJD4pBaryBNXchcbWRPvtM9x7fTmQHSY60OwCguIvBhm1D9foaf
got7+btmP7aBHuI4SA+2jDo8Ewux9A6Mi6+yuZxZoQnm5Pd/1vTIgdcbfRx6VAe4
fXVIfnm7aPt9OKPTmI8EY3IQB2Y4ACAJ4z56xzjZYxJzqGQszncinZbW4Flol13e
tdFtWHq/2xumD7GvvF9wBt799McfAUEHSFcdsZ7Z0LIiZYkUqOOpgvuFxLJGNrFL
cchU0/zOkUwqIBAzUoOwLcwxcVcTvlUdE1OD9SL35LkQz3adCZqz0MSuQIRFutyS
NMQPZ3DZgq2WR/wGB5ZNXgPPwEFNQMctC7DfZWPadJSPCEImh6kq5RHJMBnEgloW
1S3UrxM7sN5KwzMnRKcIi/OQDMEljn2c7ULHUc4wRLhoMTp8pdkx+x5Q3lr9QlJo
B3859XEHpF9u/ez+16ARQFAyevvMCDbXY6sHyTK5vs8KZCr5AlWlKHgSgv544APY
kI6CSThZUT32ggmJ5gQXSvwogODMWADmWJUYB8xGoLGFV1FlU0CQfA90sbm0ewgp
+ZDdr4ra4TRG2E74GxkEkTZxF17NDzgC0G28iBNz3LhKD4w3GyCBvCzUTY/KNkG2
SwIDAQABo4IBYzCCAV8wCQYDVR0TBAIwADAtBglghkgBhvhCAQ0EIBYeRWFzeS1S
U0EgR2VuZXJhdGVkIENlcnRpZmljYXRlMB0GA1UdDgQWBBTvRqG5I+giGWxqWnCz
PDp5kT8DYjCB4QYDVR0jBIHZMIHWgBQSzWAE0qCAnnDtxpm4eyzGUv0ZoaGBsqSB
rzCBrDELMAkGA1UEBhMCVVMxCzAJBgNVBAgTAk9IMREwDwYDVQQHEwhDb2x1bWJ1
czESMBAGA1UEChMJVmlraW5nVlBOMR0wGwYDVQQLExRNeU9yZ2FuaXphdGlvbmFs
VW5pdDEVMBMGA1UEAxMMVmlraW5nVlBOIENBMRAwDgYDVQQpEwdFYXN5UlNBMSEw
HwYJKoZIhvcNAQkBFhJtZUBteWhvc3QubXlkb21haW6CCQDPNYXugL8qPjATBgNV
HSUEDDAKBggrBgEFBQcDAjALBgNVHQ8EBAMCB4AwDQYJKoZIhvcNAQELBQADggIB
AHjaJDpATT1qDbtZgdhiOqt82n14sZmPYVM0ratawKb0ww3S39BrT12+CW+2Nky7
jv0v5Mqe4JrEE5uJeaxKvx3KyJQas7LFifj99C/qW7tAhyzMW8nFt2rXGSMdc8L9
ejFjkhWr3c7C6HI0z8IoMLlryLwqhpWpDjoI4NuebUbbMjlAaoGIn6vcb5HD1e7f
BI2TKAFF1UvbeDgY8lkJj7x5fbHdbAPl0cYoavzA49qCmOo+5YAXd0TBSlPgKEJp
yIlF8M7MHILtcX/hgG85Nf8Xb0n3veBbong51O7mB8GcMhoFel83C8ZXyIEvquuZ
SqsOvkcnxODY7uG5dQ7QTMKgo8HuNAr5s8mXnog+sZe7trW6XS4+MgCToSPF2N6M
XyzB7vW7bNQGXwEkH426aZXLYFVlS9lgr3QenEhPTLX+XnzBITehR0LOw4BTwifM
ZCttVLM8eNfeeadihtWyv7NsJekA0dCXond9sf1G3e0KYuIYoj8w333zV7dbQvvi
S8mLzhdP571oU0+CmoBFDN5QLH4x3tBFGLpF2okLBUVa5u6WIE3u+WgM2hdOG05t
11TTjvAa1ye/0EKRTs26ONyz/Qo2PmFrESV3JsmaBnFXedKgBhc/mf/2xEZXVivd
qka6Zqj/xscvm4Jtj/fItFky98sV+Rso21NIh/HnHHKM
-----END CERTIFICATE-----
