Certificate:
    Data:
        Version: 3 (0x2)
        Serial Number: 8662 (0x21d6)
    Signature Algorithm: sha256WithRSAEncryption
        Issuer: C=US, ST=OH, L=Columbus, O=VikingVPN, OU=MyOrganizationalUnit, CN=VikingVPN CA/name=EasyRSA/emailAddress=me@myhost.mydomain
        Validity
            Not Before: Aug  2 19:59:36 2016 GMT
            Not After : Jul 31 19:59:36 2026 GMT
        Subject: CN=Client2447Cert3d4015
        Subject Public Key Info:
            Public Key Algorithm: rsaEncryption
                Public-Key: (4096 bit)
                Modulus:
                    00:c3:c7:2b:f7:4a:6d:e2:65:77:34:85:78:ed:7f:
                    f5:03:d5:ef:3e:82:ad:13:31:7e:35:37:56:7f:b4:
                    1f:9f:ee:24:40:d2:e2:ce:b8:2b:99:21:18:59:52:
                    1b:6c:7e:bb:15:c8:ad:67:d8:28:e8:2f:4e:39:75:
                    41:d7:d2:73:14:68:87:de:1e:58:ee:cd:f2:d4:7f:
                    41:d6:a1:b2:de:ac:3a:10:f4:88:eb:fe:5c:64:f1:
                    d1:cf:d6:b4:89:9b:ba:d5:8e:86:ac:4b:a1:8d:ee:
                    90:3c:d6:d4:a6:45:61:29:7c:ca:df:5d:6a:4a:fa:
                    a2:6c:88:9d:b7:23:2b:b0:8a:3b:e8:fb:aa:29:5d:
                    a7:a5:5f:46:fa:27:74:50:31:8c:c0:83:11:9b:86:
                    41:95:65:f3:0f:06:df:94:f0:19:07:76:1d:d5:34:
                    01:d1:18:a0:74:19:d5:ca:b0:88:cd:11:06:f7:ee:
                    9c:2e:61:35:e2:79:c0:35:78:86:36:68:f2:b5:1e:
                    e6:92:fd:24:58:34:a9:1e:b7:03:90:d0:b7:1f:bf:
                    7c:d4:27:95:9a:5c:a9:01:89:eb:ed:e1:b3:a2:3e:
                    56:c0:b3:ef:bb:31:a7:b6:58:83:35:32:00:60:06:
                    15:0e:8f:36:91:16:87:4d:52:0d:a1:5a:d0:7d:f7:
                    a7:75:5d:d1:a4:a4:81:5f:b1:69:c0:81:aa:26:49:
                    3f:b2:42:e0:a3:e9:38:7a:7a:2d:59:37:58:99:c4:
                    0d:ad:47:f9:e7:cd:ab:a8:eb:4a:1d:16:e9:25:9a:
                    63:02:1f:14:45:43:6e:09:fe:53:80:b8:b9:ba:85:
                    ff:35:af:d2:e7:3f:b7:30:e4:39:39:08:b2:7a:25:
                    58:52:c2:bf:58:42:90:b9:83:4c:75:34:22:c0:1f:
                    96:27:8b:13:de:f9:a5:e6:92:d7:d6:96:de:3c:8e:
                    08:43:7e:1a:1a:c7:66:dc:e7:18:6d:0b:a1:74:0b:
                    a7:83:39:a7:c4:cd:ff:93:3d:89:4e:0c:7a:0b:d7:
                    3f:55:f0:8c:d1:43:b4:30:b1:51:79:c5:71:18:3a:
                    72:83:e7:61:26:2c:39:99:da:04:96:8c:14:91:bb:
                    c0:76:cf:b3:16:d8:74:72:d4:a4:35:a7:c9:f7:ff:
                    75:78:18:81:fe:7b:cc:c9:be:1a:7c:c1:78:39:82:
                    02:be:3d:0a:16:5c:29:a1:78:1d:20:39:a7:5e:3e:
                    00:c7:6c:0e:a5:24:14:9e:f4:ce:c9:2a:1c:a1:cb:
                    ef:63:21:16:f8:64:84:92:5e:9b:3c:be:b0:73:76:
                    41:9e:81:f3:ea:20:e1:f9:b3:c7:28:54:52:e1:2e:
                    01:33:bf
                Exponent: 65537 (0x10001)
        X509v3 extensions:
            X509v3 Basic Constraints: 
                CA:FALSE
            Netscape Comment: 
                Easy-RSA Generated Certificate
            X509v3 Subject Key Identifier: 
                06:29:40:CE:23:42:FD:E7:C4:75:D3:A2:20:C8:97:54:D0:91:08:AA
            X509v3 Authority Key Identifier: 
                keyid:12:CD:60:04:D2:A0:80:9E:70:ED:C6:99:B8:7B:2C:C6:52:FD:19:A1
                DirName:/C=US/ST=OH/L=Columbus/O=VikingVPN/OU=MyOrganizationalUnit/CN=VikingVPN CA/name=EasyRSA/emailAddress=me@myhost.mydomain
                serial:CF:35:85:EE:80:BF:2A:3E

            X509v3 Extended Key Usage: 
                TLS Web Client Authentication
            X509v3 Key Usage: 
                Digital Signature
    Signature Algorithm: sha256WithRSAEncryption
         06:ec:eb:57:18:b0:57:48:89:98:f3:cf:19:a7:e6:c5:9c:9c:
         a3:6e:73:52:e5:1e:fb:a2:be:df:4f:b8:88:b3:b7:80:36:91:
         43:28:9f:43:0a:cc:77:73:23:be:5d:10:01:a6:cc:88:b2:86:
         36:3d:a3:a3:b0:06:d5:92:f8:ef:45:ce:22:16:b5:d1:4f:02:
         58:22:4d:d0:52:fc:97:b2:ab:43:12:13:0b:e2:16:33:72:7e:
         f7:86:c5:cf:67:f5:6a:2d:95:48:aa:47:86:7b:63:ff:60:0d:
         44:fc:f4:63:3d:16:ce:38:88:c2:7e:a7:ad:41:a2:0f:5a:6a:
         2d:df:d4:fd:0f:da:0a:9f:6d:c9:f2:17:90:12:de:42:d4:cf:
         5b:98:50:7d:79:63:7b:a4:83:a4:b7:8e:83:92:b1:b0:fd:57:
         68:a6:12:a1:ea:93:66:86:2a:4e:16:65:a3:43:e6:64:98:7d:
         99:2a:38:86:30:0d:35:f1:7d:59:7c:4b:60:d3:58:71:18:fd:
         f6:5b:8e:10:3b:54:3c:d1:95:6f:c2:43:54:aa:2c:bf:50:89:
         57:3f:c7:02:e6:24:65:2c:6e:83:ba:d2:0c:34:8b:93:9b:a6:
         3d:18:a4:7b:47:ce:96:23:92:97:40:df:4b:19:cd:44:6e:06:
         b6:ad:a5:8d:45:c9:9b:71:a7:cb:4d:cc:2f:31:62:c7:df:8d:
         d8:a0:b5:29:7b:1f:2c:41:5e:d7:cd:36:30:8a:12:47:f5:71:
         bb:19:ef:ee:1e:c8:7e:a4:4d:02:e7:49:f2:9c:db:86:ac:5e:
         c6:c8:0e:f1:46:26:7b:72:ae:f3:74:98:2d:85:d4:1a:a3:a6:
         ed:19:e8:99:06:5d:e7:b5:35:4a:4b:ff:ac:b7:7e:44:76:8a:
         86:a0:a9:7c:0e:d6:0e:32:d2:e6:be:28:f8:e7:a9:b7:c5:47:
         1f:04:dd:60:25:3d:74:92:db:62:72:64:16:a3:77:57:27:56:
         80:a1:b4:69:d7:ef:ac:a5:97:29:2d:a4:cf:0c:bb:bb:93:94:
         7e:1f:50:06:45:07:91:0e:d2:e5:a5:22:c8:13:e5:e9:72:9d:
         52:64:bb:0f:31:d5:80:2a:e8:2d:17:b6:ce:06:1f:cb:24:5d:
         ec:df:ae:d7:c5:7b:e1:fd:b1:4c:f0:4a:c3:74:42:f1:07:61:
         13:66:36:34:75:d9:91:69:51:5c:b2:1e:2a:c5:38:9b:fe:dc:
         a5:9a:01:1b:54:61:e2:a2:00:e6:fb:bd:72:55:04:24:7d:cb:
         7a:21:f8:71:cb:61:ef:56:84:42:1f:70:b0:49:9d:7c:fa:38:
         e2:ab:f2:81:df:b3:fa:23
-----BEGIN CERTIFICATE-----
MIIGrTCCBJWgAwIBAgICIdYwDQYJKoZIhvcNAQELBQAwgawxCzAJBgNVBAYTAlVT
MQswCQYDVQQIEwJPSDERMA8GA1UEBxMIQ29sdW1idXMxEjAQBgNVBAoTCVZpa2lu
Z1ZQTjEdMBsGA1UECxMUTXlPcmdhbml6YXRpb25hbFVuaXQxFTATBgNVBAMTDFZp
a2luZ1ZQTiBDQTEQMA4GA1UEKRMHRWFzeVJTQTEhMB8GCSqGSIb3DQEJARYSbWVA
bXlob3N0Lm15ZG9tYWluMB4XDTE2MDgwMjE5NTkzNloXDTI2MDczMTE5NTkzNlow
HzEdMBsGA1UEAxMUQ2xpZW50MjQ0N0NlcnQzZDQwMTUwggIiMA0GCSqGSIb3DQEB
AQUAA4ICDwAwggIKAoICAQDDxyv3Sm3iZXc0hXjtf/UD1e8+gq0TMX41N1Z/tB+f
7iRA0uLOuCuZIRhZUhtsfrsVyK1n2CjoL045dUHX0nMUaIfeHljuzfLUf0HWobLe
rDoQ9Ijr/lxk8dHP1rSJm7rVjoasS6GN7pA81tSmRWEpfMrfXWpK+qJsiJ23Iyuw
ijvo+6opXaelX0b6J3RQMYzAgxGbhkGVZfMPBt+U8BkHdh3VNAHRGKB0GdXKsIjN
EQb37pwuYTXiecA1eIY2aPK1HuaS/SRYNKketwOQ0Lcfv3zUJ5WaXKkBievt4bOi
PlbAs++7Mae2WIM1MgBgBhUOjzaRFodNUg2hWtB996d1XdGkpIFfsWnAgaomST+y
QuCj6Th6ei1ZN1iZxA2tR/nnzauo60odFuklmmMCHxRFQ24J/lOAuLm6hf81r9Ln
P7cw5Dk5CLJ6JVhSwr9YQpC5g0x1NCLAH5YnixPe+aXmktfWlt48jghDfhoax2bc
5xhtC6F0C6eDOafEzf+TPYlODHoL1z9V8IzRQ7QwsVF5xXEYOnKD52EmLDmZ2gSW
jBSRu8B2z7MW2HRy1KQ1p8n3/3V4GIH+e8zJvhp8wXg5ggK+PQoWXCmheB0gOade
PgDHbA6lJBSe9M7JKhyhy+9jIRb4ZISSXps8vrBzdkGegfPqIOH5s8coVFLhLgEz
vwIDAQABo4IBYzCCAV8wCQYDVR0TBAIwADAtBglghkgBhvhCAQ0EIBYeRWFzeS1S
U0EgR2VuZXJhdGVkIENlcnRpZmljYXRlMB0GA1UdDgQWBBQGKUDOI0L958R106Ig
yJdU0JEIqjCB4QYDVR0jBIHZMIHWgBQSzWAE0qCAnnDtxpm4eyzGUv0ZoaGBsqSB
rzCBrDELMAkGA1UEBhMCVVMxCzAJBgNVBAgTAk9IMREwDwYDVQQHEwhDb2x1bWJ1
czESMBAGA1UEChMJVmlraW5nVlBOMR0wGwYDVQQLExRNeU9yZ2FuaXphdGlvbmFs
VW5pdDEVMBMGA1UEAxMMVmlraW5nVlBOIENBMRAwDgYDVQQpEwdFYXN5UlNBMSEw
HwYJKoZIhvcNAQkBFhJtZUBteWhvc3QubXlkb21haW6CCQDPNYXugL8qPjATBgNV
HSUEDDAKBggrBgEFBQcDAjALBgNVHQ8EBAMCB4AwDQYJKoZIhvcNAQELBQADggIB
AAbs61cYsFdIiZjzzxmn5sWcnKNuc1LlHvuivt9PuIizt4A2kUMon0MKzHdzI75d
EAGmzIiyhjY9o6OwBtWS+O9FziIWtdFPAlgiTdBS/Jeyq0MSEwviFjNyfveGxc9n
9WotlUiqR4Z7Y/9gDUT89GM9Fs44iMJ+p61Bog9aai3f1P0P2gqfbcnyF5AS3kLU
z1uYUH15Y3ukg6S3joOSsbD9V2imEqHqk2aGKk4WZaND5mSYfZkqOIYwDTXxfVl8
S2DTWHEY/fZbjhA7VDzRlW/CQ1SqLL9QiVc/xwLmJGUsboO60gw0i5Obpj0YpHtH
zpYjkpdA30sZzURuBratpY1FyZtxp8tNzC8xYsffjdigtSl7HyxBXtfNNjCKEkf1
cbsZ7+4eyH6kTQLnSfKc24asXsbIDvFGJntyrvN0mC2F1Bqjpu0Z6JkGXee1NUpL
/6y3fkR2ioagqXwO1g4y0ua+KPjnqbfFRx8E3WAlPXSS22JyZBajd1cnVoChtGnX
76yllyktpM8Mu7uTlH4fUAZFB5EO0uWlIsgT5elynVJkuw8x1YAq6C0Xts4GH8sk
XezfrtfFe+H9sUzwSsN0QvEHYRNmNjR12ZFpUVyyHirFOJv+3KWaARtUYeKiAOb7
vXJVBCR9y3oh+HHLYe9WhEIfcLBJnXz6OOKr8oHfs/oj
-----END CERTIFICATE-----
