Certificate:
    Data:
        Version: 3 (0x2)
        Serial Number: 8663 (0x21d7)
    Signature Algorithm: sha256WithRSAEncryption
        Issuer: C=US, ST=OH, L=Columbus, O=VikingVPN, OU=MyOrganizationalUnit, CN=VikingVPN CA/name=EasyRSA/emailAddress=me@myhost.mydomain
        Validity
            Not Before: Aug  2 20:09:47 2016 GMT
            Not After : Jul 31 20:09:47 2026 GMT
        Subject: CN=Client2447Cert9473a0
        Subject Public Key Info:
            Public Key Algorithm: rsaEncryption
                Public-Key: (4096 bit)
                Modulus:
                    00:aa:c8:0c:74:21:2f:c3:d6:aa:41:89:77:b2:85:
                    bc:0c:a9:be:eb:d4:5a:59:41:bc:de:4b:36:e6:ff:
                    3f:e5:50:ad:c6:fe:4b:0e:6e:39:65:1d:aa:0a:0d:
                    ee:da:71:d6:8d:08:8d:92:f2:47:7d:f0:2f:26:4e:
                    18:5d:ae:9a:32:c1:69:58:d6:0c:a4:82:ca:96:cb:
                    81:66:b4:c7:a4:08:c3:42:8e:06:de:0b:4f:55:74:
                    a3:cc:e5:1c:ea:7c:77:9a:40:90:19:e7:96:8f:c2:
                    8e:38:37:9f:9c:04:87:f1:07:a6:2d:8e:29:43:04:
                    58:fc:db:89:e0:0a:5d:d0:a0:23:cf:aa:09:13:46:
                    55:50:ff:0f:c8:b5:e4:2d:6c:dd:f4:de:ee:15:89:
                    ea:ce:74:bf:03:d4:3a:73:e9:4c:fc:3b:c4:dd:5c:
                    61:c8:c3:32:c3:bb:cc:75:c7:df:c0:83:45:1a:71:
                    b1:5d:2d:c8:80:e2:6e:3f:a2:e8:90:9f:37:d6:ee:
                    70:9b:fd:5c:ba:b0:f5:2a:97:e9:70:11:81:4f:6f:
                    2a:2e:38:18:b7:62:88:08:45:df:aa:6c:bf:b2:b9:
                    3a:e2:1b:6f:0c:7f:da:c5:46:4e:86:20:56:1c:99:
                    d2:ac:e9:e7:71:68:98:c1:6a:2e:fc:79:4e:27:06:
                    36:be:6a:79:da:6e:22:95:8e:f5:89:54:f7:0c:fe:
                    ec:0f:a3:8e:01:af:df:9d:88:8f:cc:21:9d:66:7f:
                    65:05:9a:41:51:5d:cb:17:91:34:f9:87:6e:a3:70:
                    7c:4a:2a:7f:4b:c3:ce:ae:38:3d:6a:2d:33:6c:39:
                    eb:87:bd:8d:bc:13:b7:14:71:dc:53:f3:e4:1f:dc:
                    b7:6c:4b:60:99:23:a7:fa:5e:a1:be:3c:c2:60:76:
                    8d:de:f0:72:02:e7:70:3f:49:a6:26:cb:2d:63:cf:
                    71:fd:cd:2a:c1:51:f2:d8:fe:3e:41:49:46:ac:9e:
                    80:d3:db:6a:4c:40:39:00:46:f0:5b:e0:38:1e:ce:
                    5d:14:42:b4:5e:97:12:0f:ba:87:df:f6:26:69:03:
                    99:75:e6:32:44:dc:6b:87:52:cb:34:6f:aa:8f:1e:
                    3f:05:0d:3f:bb:69:75:2e:6f:cd:d5:3a:ab:6a:3e:
                    b1:06:06:7d:50:b2:44:bb:8c:58:eb:ff:36:2c:ba:
                    65:5e:3f:35:e4:f0:05:b3:14:ec:4f:77:31:07:5d:
                    cc:bb:d6:1c:e2:a3:9d:2a:9c:0a:5b:fd:01:e8:db:
                    e8:c7:b2:a0:b0:18:f0:75:17:d4:a8:a8:66:b3:f4:
                    fc:26:06:7d:eb:da:7e:a1:7b:b0:43:7f:30:51:2b:
                    85:f7:9b
                Exponent: 65537 (0x10001)
        X509v3 extensions:
            X509v3 Basic Constraints: 
                CA:FALSE
            Netscape Comment: 
                Easy-RSA Generated Certificate
            X509v3 Subject Key Identifier: 
                2A:10:EE:4E:15:68:10:CB:63:F6:F8:22:F5:EA:33:8F:43:91:D2:FF
            X509v3 Authority Key Identifier: 
                keyid:12:CD:60:04:D2:A0:80:9E:70:ED:C6:99:B8:7B:2C:C6:52:FD:19:A1
                DirName:/C=US/ST=OH/L=Columbus/O=VikingVPN/OU=MyOrganizationalUnit/CN=VikingVPN CA/name=EasyRSA/emailAddress=me@myhost.mydomain
                serial:CF:35:85:EE:80:BF:2A:3E

            X509v3 Extended Key Usage: 
                TLS Web Client Authentication
            X509v3 Key Usage: 
                Digital Signature
    Signature Algorithm: sha256WithRSAEncryption
         c6:dc:17:d5:04:21:03:56:ee:b9:c7:aa:25:b4:7f:2b:b3:39:
         e7:8c:98:99:f1:df:9e:63:93:ae:ec:c5:ef:43:24:ff:5e:3f:
         d1:b7:b8:38:b1:34:2a:92:72:be:d5:99:47:d3:10:6e:d1:f4:
         e7:c6:25:f2:8d:35:74:f6:75:01:35:dc:ca:1d:e0:fc:72:00:
         0a:bc:71:f0:ed:0f:8b:e7:87:6b:d4:43:4b:aa:3d:91:a1:60:
         30:2d:75:81:76:3d:d7:5a:80:31:96:d3:47:2f:42:0b:28:c1:
         b3:60:d4:e4:84:25:6a:11:40:4a:f9:c2:5c:98:65:59:a8:d6:
         51:57:da:a1:65:07:fc:14:6d:bd:2c:4d:83:56:af:3b:d6:b5:
         bc:cf:bc:db:03:5e:ff:8e:17:c2:3a:f0:01:2e:83:3f:a6:58:
         61:c5:12:a7:e0:49:ce:8d:f1:e7:ff:af:c8:8b:52:f0:e5:c2:
         3d:9b:87:78:d7:1f:70:23:90:d5:71:5d:98:5f:e7:39:1b:02:
         3f:48:a8:5e:24:cd:6e:aa:9b:46:8f:4b:e4:8d:a6:39:b4:45:
         fe:5e:60:2b:e5:c5:6a:88:00:d2:ff:c6:f1:ce:ac:51:85:66:
         20:22:e0:5a:a5:5f:05:93:ba:53:5c:a1:e9:ba:56:d9:a1:78:
         6a:77:21:94:0a:10:ca:44:95:2a:82:7a:5a:58:93:a1:df:26:
         95:50:16:54:46:88:7e:23:a2:35:4f:e9:53:a2:27:2a:4b:5d:
         26:7e:35:51:f5:ad:50:46:da:b1:65:ea:6d:65:da:ff:ba:7e:
         16:7c:5e:14:e7:1b:ea:8d:05:6d:d8:35:f7:7f:16:fb:57:e0:
         fb:30:07:e4:39:21:e9:4f:28:c8:c9:f1:30:2f:d8:77:87:d3:
         f9:6a:89:f7:70:56:d6:31:c1:a8:19:52:ba:a3:47:03:f0:d1:
         3d:73:24:0c:be:4c:28:ec:12:c6:84:31:08:16:d3:f0:eb:c5:
         33:56:df:74:d1:1b:f9:8a:21:af:c7:87:15:fc:13:ce:36:d0:
         ec:bc:01:9c:af:20:a1:79:6e:1d:50:eb:e4:fd:3a:d8:f2:ab:
         b0:2a:c0:e9:23:b3:dc:3c:cd:9b:f2:b3:06:00:50:5e:d1:cc:
         be:e8:71:69:3d:20:c5:96:e4:bd:c1:d6:5a:78:38:a3:7c:d6:
         c3:b4:46:5d:2c:e2:a8:c9:83:bd:2f:6a:29:59:86:85:49:dd:
         e9:3c:f6:45:2b:ed:fe:43:45:4c:9e:65:9e:f5:ae:6a:3f:19:
         68:43:1d:27:2f:54:ba:ae:2e:6f:60:25:74:39:1e:b4:46:d4:
         0b:67:ce:72:3c:bc:da:71
-----BEGIN CERTIFICATE-----
MIIGrTCCBJWgAwIBAgICIdcwDQYJKoZIhvcNAQELBQAwgawxCzAJBgNVBAYTAlVT
MQswCQYDVQQIEwJPSDERMA8GA1UEBxMIQ29sdW1idXMxEjAQBgNVBAoTCVZpa2lu
Z1ZQTjEdMBsGA1UECxMUTXlPcmdhbml6YXRpb25hbFVuaXQxFTATBgNVBAMTDFZp
a2luZ1ZQTiBDQTEQMA4GA1UEKRMHRWFzeVJTQTEhMB8GCSqGSIb3DQEJARYSbWVA
bXlob3N0Lm15ZG9tYWluMB4XDTE2MDgwMjIwMDk0N1oXDTI2MDczMTIwMDk0N1ow
HzEdMBsGA1UEAxMUQ2xpZW50MjQ0N0NlcnQ5NDczYTAwggIiMA0GCSqGSIb3DQEB
AQUAA4ICDwAwggIKAoICAQCqyAx0IS/D1qpBiXeyhbwMqb7r1FpZQbzeSzbm/z/l
UK3G/ksObjllHaoKDe7acdaNCI2S8kd98C8mThhdrpoywWlY1gykgsqWy4FmtMek
CMNCjgbeC09VdKPM5RzqfHeaQJAZ55aPwo44N5+cBIfxB6YtjilDBFj824ngCl3Q
oCPPqgkTRlVQ/w/IteQtbN303u4VierOdL8D1Dpz6Uz8O8TdXGHIwzLDu8x1x9/A
g0UacbFdLciA4m4/ouiQnzfW7nCb/Vy6sPUql+lwEYFPbyouOBi3YogIRd+qbL+y
uTriG28Mf9rFRk6GIFYcmdKs6edxaJjBai78eU4nBja+annabiKVjvWJVPcM/uwP
o44Br9+diI/MIZ1mf2UFmkFRXcsXkTT5h26jcHxKKn9Lw86uOD1qLTNsOeuHvY28
E7cUcdxT8+Qf3LdsS2CZI6f6XqG+PMJgdo3e8HIC53A/SaYmyy1jz3H9zSrBUfLY
/j5BSUasnoDT22pMQDkARvBb4Dgezl0UQrRelxIPuoff9iZpA5l15jJE3GuHUss0
b6qPHj8FDT+7aXUub83VOqtqPrEGBn1QskS7jFjr/zYsumVePzXk8AWzFOxPdzEH
Xcy71hzio50qnApb/QHo2+jHsqCwGPB1F9SoqGaz9PwmBn3r2n6he7BDfzBRK4X3
mwIDAQABo4IBYzCCAV8wCQYDVR0TBAIwADAtBglghkgBhvhCAQ0EIBYeRWFzeS1S
U0EgR2VuZXJhdGVkIENlcnRpZmljYXRlMB0GA1UdDgQWBBQqEO5OFWgQy2P2+CL1
6jOPQ5HS/zCB4QYDVR0jBIHZMIHWgBQSzWAE0qCAnnDtxpm4eyzGUv0ZoaGBsqSB
rzCBrDELMAkGA1UEBhMCVVMxCzAJBgNVBAgTAk9IMREwDwYDVQQHEwhDb2x1bWJ1
czESMBAGA1UEChMJVmlraW5nVlBOMR0wGwYDVQQLExRNeU9yZ2FuaXphdGlvbmFs
VW5pdDEVMBMGA1UEAxMMVmlraW5nVlBOIENBMRAwDgYDVQQpEwdFYXN5UlNBMSEw
HwYJKoZIhvcNAQkBFhJtZUBteWhvc3QubXlkb21haW6CCQDPNYXugL8qPjATBgNV
HSUEDDAKBggrBgEFBQcDAjALBgNVHQ8EBAMCB4AwDQYJKoZIhvcNAQELBQADggIB
AMbcF9UEIQNW7rnHqiW0fyuzOeeMmJnx355jk67sxe9DJP9eP9G3uDixNCqScr7V
mUfTEG7R9OfGJfKNNXT2dQE13Mod4PxyAAq8cfDtD4vnh2vUQ0uqPZGhYDAtdYF2
PddagDGW00cvQgsowbNg1OSEJWoRQEr5wlyYZVmo1lFX2qFlB/wUbb0sTYNWrzvW
tbzPvNsDXv+OF8I68AEugz+mWGHFEqfgSc6N8ef/r8iLUvDlwj2bh3jXH3AjkNVx
XZhf5zkbAj9IqF4kzW6qm0aPS+SNpjm0Rf5eYCvlxWqIANL/xvHOrFGFZiAi4Fql
XwWTulNcoem6VtmheGp3IZQKEMpElSqCelpYk6HfJpVQFlRGiH4jojVP6VOiJypL
XSZ+NVH1rVBG2rFl6m1l2v+6fhZ8XhTnG+qNBW3YNfd/FvtX4PswB+Q5IelPKMjJ
8TAv2HeH0/lqifdwVtYxwagZUrqjRwPw0T1zJAy+TCjsEsaEMQgW0/DrxTNW33TR
G/mKIa/HhxX8E8420Oy8AZyvIKF5bh1Q6+T9Otjyq7AqwOkjs9w8zZvyswYAUF7R
zL7ocWk9IMWW5L3B1lp4OKN81sO0Rl0s4qjJg70vailZhoVJ3ek89kUr7f5DRUye
ZZ71rmo/GWhDHScvVLquLm9gJXQ5HrRG1AtnznI8vNpx
-----END CERTIFICATE-----
