Certificate:
    Data:
        Version: 3 (0x2)
        Serial Number: 8684 (0x21ec)
    Signature Algorithm: sha256WithRSAEncryption
        Issuer: C=US, ST=OH, L=Columbus, O=VikingVPN, OU=MyOrganizationalUnit, CN=VikingVPN CA/name=EasyRSA/emailAddress=me@myhost.mydomain
        Validity
            Not Before: Aug  3 22:00:16 2016 GMT
            Not After : Aug  1 22:00:16 2026 GMT
        Subject: CN=Client2450Certc4db88
        Subject Public Key Info:
            Public Key Algorithm: rsaEncryption
                Public-Key: (4096 bit)
                Modulus:
                    00:d6:98:19:07:99:ac:bb:f2:bc:c1:b1:38:7a:4f:
                    e7:8d:1b:0e:e8:bd:a9:b1:01:e3:19:0f:31:32:82:
                    57:3b:0b:5c:69:3b:5d:b3:93:4d:a6:b0:cf:a7:38:
                    9b:b7:20:d5:d8:18:11:1f:4b:58:0e:e1:a3:f5:4d:
                    de:4f:cd:0b:3f:7a:0e:f8:8b:42:e0:d8:9d:7e:5b:
                    be:18:5f:f5:df:a1:81:c9:0d:3c:3b:0b:0f:f6:c6:
                    e0:41:e3:27:6f:d7:8a:ba:85:5b:37:ee:f5:e7:50:
                    3f:95:f0:ac:d9:64:02:1c:e4:77:73:f0:ba:f9:72:
                    29:eb:c9:97:6a:8d:a0:1c:b6:00:08:2c:94:2c:22:
                    db:3a:30:8f:fb:cb:92:41:34:46:27:aa:29:61:bc:
                    c7:65:da:13:fa:c7:95:0c:47:0b:33:2e:ca:8b:3b:
                    1c:a3:d6:63:bf:85:54:1c:6e:f5:3e:0e:d3:fb:eb:
                    12:02:ea:5d:d1:08:fe:b3:98:3b:1e:ef:38:c6:30:
                    12:b9:67:bb:af:52:33:8e:f3:b2:a7:f5:78:02:81:
                    2f:41:23:c6:0e:9d:10:d4:31:c7:53:3d:31:fe:72:
                    c4:5b:7a:a9:09:df:20:cb:1c:47:91:fa:3c:ed:ce:
                    a8:ee:da:05:00:01:6d:98:e4:d3:67:b3:27:b7:a6:
                    de:90:b8:e7:b6:29:84:4f:d1:53:b8:c4:c8:66:80:
                    97:ff:97:b8:ca:24:c8:95:c8:57:c9:e2:25:bd:07:
                    28:f2:54:1e:00:e3:64:a6:f8:19:f1:39:a6:67:69:
                    48:ab:6e:b4:5c:fa:17:e2:26:0b:82:e4:0d:d5:d0:
                    67:d6:66:11:13:6c:19:c8:1a:b5:76:0e:f6:f9:f7:
                    47:18:1c:d7:04:b4:fa:9d:79:a2:8e:89:89:59:93:
                    25:1f:2b:65:40:c6:47:8a:16:44:ef:d3:20:74:36:
                    05:a0:f4:f3:43:51:0e:57:bf:c1:8f:9d:60:2d:97:
                    41:4d:72:62:7d:60:c9:72:7a:24:95:1e:c9:88:07:
                    4e:75:b0:80:2e:fb:16:0e:81:13:3c:51:ef:40:bf:
                    fa:56:52:b4:6d:3c:78:79:fc:48:ec:a9:9d:8b:42:
                    c4:f5:22:6e:87:47:70:90:7f:e3:95:8d:71:06:02:
                    91:19:af:03:45:31:c8:aa:bb:e7:a6:55:07:fe:13:
                    ca:e4:75:6d:fd:b1:e5:76:0c:20:7c:24:3d:d9:13:
                    d8:7a:6c:89:6c:e9:ac:9f:b2:db:a2:69:13:9b:39:
                    50:cc:13:cf:5b:3d:cf:db:34:a2:c4:62:6f:cd:89:
                    d0:02:6c:cc:06:f6:f7:8c:d8:09:56:0a:fa:b1:97:
                    c7:d0:e1
                Exponent: 65537 (0x10001)
        X509v3 extensions:
            X509v3 Basic Constraints: 
                CA:FALSE
            Netscape Comment: 
                Easy-RSA Generated Certificate
            X509v3 Subject Key Identifier: 
                64:34:A5:09:7F:0B:DC:39:84:6B:EB:A4:F1:DC:1A:D4:65:2E:3A:25
            X509v3 Authority Key Identifier: 
                keyid:12:CD:60:04:D2:A0:80:9E:70:ED:C6:99:B8:7B:2C:C6:52:FD:19:A1
                DirName:/C=US/ST=OH/L=Columbus/O=VikingVPN/OU=MyOrganizationalUnit/CN=VikingVPN CA/name=EasyRSA/emailAddress=me@myhost.mydomain
                serial:CF:35:85:EE:80:BF:2A:3E

            X509v3 Extended Key Usage: 
                TLS Web Client Authentication
            X509v3 Key Usage: 
                Digital Signature
    Signature Algorithm: sha256WithRSAEncryption
         bc:f4:fd:8a:cb:2d:08:90:6c:7f:1f:e8:20:a4:33:4c:d0:b0:
         35:bf:fe:a3:17:d2:16:e6:69:74:9c:ad:50:19:91:f0:9a:02:
         07:46:4d:e8:a3:4c:47:75:7c:c0:2a:93:dc:bc:c6:8d:19:92:
         7a:f5:68:23:a0:76:19:d8:ee:19:d5:35:38:77:b0:4f:fe:ba:
         29:01:85:ce:f8:55:38:03:15:b7:7d:91:45:b1:7f:f2:5e:34:
         11:1e:82:50:04:ec:07:d1:57:fc:2a:2d:ac:49:62:6d:f8:32:
         10:22:37:47:c9:a5:38:1f:00:0a:d3:02:ac:37:62:bc:42:a2:
         a6:d6:a5:4e:28:ab:fe:fa:68:79:2a:c4:c1:10:ae:75:e3:2a:
         43:e8:0b:4d:5a:01:39:bb:41:a4:b0:40:39:4a:74:e8:29:67:
         db:34:5c:e0:63:8f:61:ea:6e:10:1a:97:6d:f6:3b:4d:72:c3:
         b9:ff:20:0f:ed:92:6d:26:50:a6:60:4e:8c:e7:a7:48:57:ac:
         71:ac:7e:99:e0:05:0a:ec:1c:f7:6b:c1:ad:b9:ab:da:8b:68:
         c2:e0:35:02:db:ce:30:81:9f:be:3a:54:64:c4:52:83:61:60:
         62:67:e4:66:dc:fc:7c:19:24:5f:61:3a:b4:c4:7a:e9:ba:62:
         c2:d4:1a:02:21:b5:22:16:e5:98:01:8e:4a:e4:19:9e:92:ee:
         38:14:93:40:10:de:00:7f:33:ce:cb:06:be:1e:92:ee:34:be:
         e6:a1:02:49:01:58:44:97:d1:0e:05:1c:6f:2d:1b:ec:e6:27:
         0c:8e:b2:93:2c:5e:5d:83:77:9c:3c:36:46:48:94:b6:2a:fb:
         b0:5f:fa:43:0b:08:9c:ea:c1:2e:9f:c1:d2:f7:16:5d:4c:f8:
         9f:0c:35:8e:ba:b3:c1:16:fd:14:68:f4:5b:e3:57:50:e6:3e:
         64:6f:e7:be:83:18:2c:41:25:07:93:c0:61:33:1a:1a:00:d3:
         a4:a1:5b:bd:83:45:1f:fc:b1:14:64:94:27:db:91:99:cb:d1:
         67:fd:a2:16:58:53:bd:f2:0c:24:63:a2:ed:5d:d2:04:76:0d:
         ec:ae:b3:86:43:33:f0:fa:11:c4:ba:c9:aa:98:f4:2f:07:7d:
         7b:4d:11:59:cc:1c:e2:7c:53:24:1b:e3:c4:51:d0:b3:6f:99:
         9b:1d:4c:66:7d:56:cf:2f:07:85:3c:50:48:7f:8c:cc:88:06:
         9c:46:88:34:a4:86:38:4a:c5:63:37:98:09:30:63:d8:a8:88:
         4d:e1:2a:3b:91:07:24:c5:d4:4a:38:30:d9:7d:84:8a:7c:b9:
         27:28:6f:ae:54:e2:72:bd
-----BEGIN CERTIFICATE-----
MIIGrTCCBJWgAwIBAgICIewwDQYJKoZIhvcNAQELBQAwgawxCzAJBgNVBAYTAlVT
MQswCQYDVQQIEwJPSDERMA8GA1UEBxMIQ29sdW1idXMxEjAQBgNVBAoTCVZpa2lu
Z1ZQTjEdMBsGA1UECxMUTXlPcmdhbml6YXRpb25hbFVuaXQxFTATBgNVBAMTDFZp
a2luZ1ZQTiBDQTEQMA4GA1UEKRMHRWFzeVJTQTEhMB8GCSqGSIb3DQEJARYSbWVA
bXlob3N0Lm15ZG9tYWluMB4XDTE2MDgwMzIyMDAxNloXDTI2MDgwMTIyMDAxNlow
HzEdMBsGA1UEAxMUQ2xpZW50MjQ1MENlcnRjNGRiODgwggIiMA0GCSqGSIb3DQEB
AQUAA4ICDwAwggIKAoICAQDWmBkHmay78rzBsTh6T+eNGw7ovamxAeMZDzEyglc7
C1xpO12zk02msM+nOJu3INXYGBEfS1gO4aP1Td5PzQs/eg74i0Lg2J1+W74YX/Xf
oYHJDTw7Cw/2xuBB4ydv14q6hVs37vXnUD+V8KzZZAIc5Hdz8Lr5cinryZdqjaAc
tgAILJQsIts6MI/7y5JBNEYnqilhvMdl2hP6x5UMRwszLsqLOxyj1mO/hVQcbvU+
DtP76xIC6l3RCP6zmDse7zjGMBK5Z7uvUjOO87Kn9XgCgS9BI8YOnRDUMcdTPTH+
csRbeqkJ3yDLHEeR+jztzqju2gUAAW2Y5NNnsye3pt6QuOe2KYRP0VO4xMhmgJf/
l7jKJMiVyFfJ4iW9ByjyVB4A42Sm+BnxOaZnaUirbrRc+hfiJguC5A3V0GfWZhET
bBnIGrV2Dvb590cYHNcEtPqdeaKOiYlZkyUfK2VAxkeKFkTv0yB0NgWg9PNDUQ5X
v8GPnWAtl0FNcmJ9YMlyeiSVHsmIB051sIAu+xYOgRM8Ue9Av/pWUrRtPHh5/Ejs
qZ2LQsT1Im6HR3CQf+OVjXEGApEZrwNFMciqu+emVQf+E8rkdW39seV2DCB8JD3Z
E9h6bIls6ayfstuiaRObOVDME89bPc/bNKLEYm/NidACbMwG9veM2AlWCvqxl8fQ
4QIDAQABo4IBYzCCAV8wCQYDVR0TBAIwADAtBglghkgBhvhCAQ0EIBYeRWFzeS1S
U0EgR2VuZXJhdGVkIENlcnRpZmljYXRlMB0GA1UdDgQWBBRkNKUJfwvcOYRr66Tx
3BrUZS46JTCB4QYDVR0jBIHZMIHWgBQSzWAE0qCAnnDtxpm4eyzGUv0ZoaGBsqSB
rzCBrDELMAkGA1UEBhMCVVMxCzAJBgNVBAgTAk9IMREwDwYDVQQHEwhDb2x1bWJ1
czESMBAGA1UEChMJVmlraW5nVlBOMR0wGwYDVQQLExRNeU9yZ2FuaXphdGlvbmFs
VW5pdDEVMBMGA1UEAxMMVmlraW5nVlBOIENBMRAwDgYDVQQpEwdFYXN5UlNBMSEw
HwYJKoZIhvcNAQkBFhJtZUBteWhvc3QubXlkb21haW6CCQDPNYXugL8qPjATBgNV
HSUEDDAKBggrBgEFBQcDAjALBgNVHQ8EBAMCB4AwDQYJKoZIhvcNAQELBQADggIB
ALz0/YrLLQiQbH8f6CCkM0zQsDW//qMX0hbmaXScrVAZkfCaAgdGTeijTEd1fMAq
k9y8xo0Zknr1aCOgdhnY7hnVNTh3sE/+uikBhc74VTgDFbd9kUWxf/JeNBEeglAE
7AfRV/wqLaxJYm34MhAiN0fJpTgfAArTAqw3YrxCoqbWpU4oq/76aHkqxMEQrnXj
KkPoC01aATm7QaSwQDlKdOgpZ9s0XOBjj2HqbhAal232O01yw7n/IA/tkm0mUKZg
Toznp0hXrHGsfpngBQrsHPdrwa25q9qLaMLgNQLbzjCBn746VGTEUoNhYGJn5Gbc
/HwZJF9hOrTEeum6YsLUGgIhtSIW5ZgBjkrkGZ6S7jgUk0AQ3gB/M87LBr4eku40
vuahAkkBWESX0Q4FHG8tG+zmJwyOspMsXl2Dd5w8NkZIlLYq+7Bf+kMLCJzqwS6f
wdL3Fl1M+J8MNY66s8EW/RRo9FvjV1DmPmRv576DGCxBJQeTwGEzGhoA06ShW72D
RR/8sRRklCfbkZnL0Wf9ohZYU73yDCRjou1d0gR2Deyus4ZDM/D6EcS6yaqY9C8H
fXtNEVnMHOJ8UyQb48RR0LNvmZsdTGZ9Vs8vB4U8UEh/jMyIBpxGiDSkhjhKxWM3
mAkwY9ioiE3hKjuRByTF1Eo4MNl9hIp8uScob65U4nK9
-----END CERTIFICATE-----
