Certificate:
    Data:
        Version: 3 (0x2)
        Serial Number: 8693 (0x21f5)
    Signature Algorithm: sha256WithRSAEncryption
        Issuer: C=US, ST=OH, L=Columbus, O=VikingVPN, OU=MyOrganizationalUnit, CN=VikingVPN CA/name=EasyRSA/emailAddress=me@myhost.mydomain
        Validity
            Not Before: Aug  4 18:23:57 2016 GMT
            Not After : Aug  2 18:23:57 2026 GMT
        Subject: CN=Client1735Cert5150a5
        Subject Public Key Info:
            Public Key Algorithm: rsaEncryption
                Public-Key: (4096 bit)
                Modulus:
                    00:c3:22:5c:db:cf:b3:f9:19:ab:31:94:54:96:7b:
                    1e:79:41:61:07:87:e2:29:61:75:37:2d:8c:17:62:
                    dc:58:90:e0:33:84:d7:9f:0d:88:fd:1f:4a:da:45:
                    27:81:88:66:e6:90:5a:a6:af:bf:8a:25:cf:67:e1:
                    77:b2:9a:73:28:b9:04:c0:f5:81:1f:c5:36:d4:3f:
                    09:8d:d5:5a:9c:54:6b:11:35:07:ff:93:78:44:fb:
                    e0:92:45:ef:71:48:0c:ac:a4:8a:ac:b0:83:7c:21:
                    06:69:53:b6:87:0e:aa:71:83:5b:23:e4:3f:64:e0:
                    87:3f:3f:de:f6:27:b9:d4:cb:fe:00:c9:a9:89:45:
                    40:09:97:d7:7e:17:5f:0b:65:2e:73:ae:e9:59:4a:
                    91:b0:17:1a:9b:c1:92:ad:3c:12:b5:cb:bc:13:5a:
                    d9:78:89:1a:53:b8:af:22:38:77:df:2b:2b:8b:7c:
                    21:72:5f:d7:6c:3d:51:98:b8:64:8e:aa:cc:61:4b:
                    a6:eb:a1:55:2f:58:b3:5b:b1:56:70:71:0b:ea:ee:
                    7f:de:cd:91:b7:a5:71:b9:b1:61:68:45:ed:d1:89:
                    11:39:48:f5:04:64:49:97:d2:bd:51:f8:33:62:9f:
                    0f:17:4c:ad:8e:03:20:d8:87:b6:d6:0c:3e:4b:f3:
                    6d:7d:06:63:a7:75:77:f2:6d:92:86:a6:b6:a0:51:
                    af:fe:56:c5:95:78:24:29:f8:4e:d5:aa:01:21:13:
                    91:18:51:32:e5:cd:70:72:28:a7:03:8f:c5:01:56:
                    0a:7e:f9:d2:09:dd:20:b3:74:55:87:e6:ce:4b:8a:
                    f0:d6:8b:06:88:b4:a1:08:22:08:52:d2:78:71:14:
                    14:d7:30:19:42:b3:36:7e:ba:6b:db:de:e0:fa:15:
                    18:5c:6b:b3:14:1f:bb:64:54:18:fd:60:05:6d:e7:
                    e5:ae:77:30:e8:ea:b1:e7:da:85:90:72:8a:31:72:
                    d8:62:29:d3:bd:ca:58:8f:f3:9d:9a:5e:ba:0d:5b:
                    b6:7e:44:71:d6:7b:c0:4a:00:95:8f:9c:d0:8a:20:
                    0f:d9:a3:21:59:0d:f2:59:8a:86:9c:48:a5:b8:3a:
                    e1:a0:10:66:9d:a9:d1:42:8d:88:91:e8:64:cf:dc:
                    f7:fa:49:a6:12:c3:6a:d7:d6:7f:c3:78:d2:ae:09:
                    42:11:58:8e:7b:2c:11:87:f0:b1:7a:64:c8:91:69:
                    ab:cf:7a:af:06:64:e1:a5:08:c2:09:79:ce:1b:f2:
                    c4:a3:de:19:a7:9b:28:96:7b:bd:51:5e:91:ef:e8:
                    b2:db:f0:1f:eb:9f:d9:43:f5:4e:e5:83:be:4a:1b:
                    86:f9:01
                Exponent: 65537 (0x10001)
        X509v3 extensions:
            X509v3 Basic Constraints: 
                CA:FALSE
            Netscape Comment: 
                Easy-RSA Generated Certificate
            X509v3 Subject Key Identifier: 
                1B:2F:AE:4E:32:92:68:8F:00:D6:DB:E8:CC:6D:9B:8D:68:02:BF:CE
            X509v3 Authority Key Identifier: 
                keyid:12:CD:60:04:D2:A0:80:9E:70:ED:C6:99:B8:7B:2C:C6:52:FD:19:A1
                DirName:/C=US/ST=OH/L=Columbus/O=VikingVPN/OU=MyOrganizationalUnit/CN=VikingVPN CA/name=EasyRSA/emailAddress=me@myhost.mydomain
                serial:CF:35:85:EE:80:BF:2A:3E

            X509v3 Extended Key Usage: 
                TLS Web Client Authentication
            X509v3 Key Usage: 
                Digital Signature
    Signature Algorithm: sha256WithRSAEncryption
         11:ea:c6:e2:cd:6d:c0:88:4f:38:3d:ec:35:c7:11:75:af:77:
         2e:99:79:84:ee:de:e2:02:ee:d6:e3:f9:d8:6e:9a:54:ce:a1:
         a1:50:83:93:03:e8:80:25:e7:f4:d3:64:4f:de:ed:b0:35:6d:
         ef:cf:1a:e3:23:c7:47:43:05:81:69:d7:27:99:b7:7c:f9:f5:
         d8:8d:93:13:77:b2:48:b3:70:87:05:90:3f:a4:5a:35:be:dc:
         8b:bf:15:2e:a2:cd:13:26:0f:f8:35:e3:06:5e:9f:89:da:00:
         a4:5a:88:5c:9a:e1:32:02:c1:21:e9:e6:d1:7d:bb:71:d6:b1:
         f8:d7:f2:62:a3:8b:2f:46:75:eb:bd:ee:f0:9d:4c:84:f6:61:
         04:63:71:ee:68:3d:a4:d0:d8:95:a0:15:ed:bd:27:ce:a7:bd:
         48:8d:90:be:a9:9d:51:3c:13:df:ab:06:20:48:5b:72:57:8f:
         c9:33:99:68:02:e9:c5:c9:7d:40:50:d7:9c:6e:3b:aa:d3:c9:
         48:40:2d:99:c4:87:6f:4d:5a:c5:f6:39:17:6d:ac:08:29:4b:
         ae:bc:ae:6e:9a:14:f8:16:e1:43:6a:a1:80:3f:25:2a:df:67:
         c8:ed:dd:a1:f8:9d:74:22:0a:14:5d:53:cc:a1:06:12:c6:e2:
         c9:6e:99:e5:75:d5:c8:28:1b:21:ac:fc:e6:f7:62:6b:94:40:
         75:85:c6:44:78:e6:83:0b:5d:f0:f4:56:84:a7:8b:b3:ca:b5:
         84:e1:c3:97:26:15:f3:c6:99:8e:e6:72:ee:4f:bb:60:e8:7b:
         57:c5:63:84:81:c2:0a:c0:af:36:65:4f:2f:4e:34:3a:c0:f2:
         cb:f2:d7:37:f6:74:06:b4:cd:47:54:c6:93:14:bb:46:8b:44:
         20:38:6c:56:e9:bd:b2:2e:f7:c7:19:93:dc:61:ab:46:7a:7c:
         cd:1b:2e:5a:86:ac:59:ca:9f:05:09:06:ec:d7:ce:dc:f9:55:
         69:1b:f8:7f:2a:1b:0b:80:a7:e3:8a:f1:19:7e:ab:2c:40:43:
         41:7a:96:71:0b:d2:0c:0d:69:d0:bf:f2:5d:2a:2c:af:20:48:
         63:19:a7:b2:3f:dd:15:e6:ba:3c:76:51:6a:95:f2:b0:e1:df:
         fa:ba:49:e7:fa:76:21:e2:50:03:29:04:88:5b:65:18:62:1e:
         ed:e4:2b:65:0a:17:23:4d:11:21:2c:73:23:9a:88:35:fe:ed:
         2a:c7:49:3d:84:2d:7c:b2:bb:7a:d6:6b:a7:21:a9:aa:c3:34:
         58:ec:fd:1b:5f:b5:09:bd:28:e6:d3:0b:bd:98:2b:6e:70:f2:
         ce:22:73:f2:1c:71:82:fd
-----BEGIN CERTIFICATE-----
MIIGrTCCBJWgAwIBAgICIfUwDQYJKoZIhvcNAQELBQAwgawxCzAJBgNVBAYTAlVT
MQswCQYDVQQIEwJPSDERMA8GA1UEBxMIQ29sdW1idXMxEjAQBgNVBAoTCVZpa2lu
Z1ZQTjEdMBsGA1UECxMUTXlPcmdhbml6YXRpb25hbFVuaXQxFTATBgNVBAMTDFZp
a2luZ1ZQTiBDQTEQMA4GA1UEKRMHRWFzeVJTQTEhMB8GCSqGSIb3DQEJARYSbWVA
bXlob3N0Lm15ZG9tYWluMB4XDTE2MDgwNDE4MjM1N1oXDTI2MDgwMjE4MjM1N1ow
HzEdMBsGA1UEAxMUQ2xpZW50MTczNUNlcnQ1MTUwYTUwggIiMA0GCSqGSIb3DQEB
AQUAA4ICDwAwggIKAoICAQDDIlzbz7P5GasxlFSWex55QWEHh+IpYXU3LYwXYtxY
kOAzhNefDYj9H0raRSeBiGbmkFqmr7+KJc9n4XeymnMouQTA9YEfxTbUPwmN1Vqc
VGsRNQf/k3hE++CSRe9xSAyspIqssIN8IQZpU7aHDqpxg1sj5D9k4Ic/P972J7nU
y/4AyamJRUAJl9d+F18LZS5zrulZSpGwFxqbwZKtPBK1y7wTWtl4iRpTuK8iOHff
KyuLfCFyX9dsPVGYuGSOqsxhS6broVUvWLNbsVZwcQvq7n/ezZG3pXG5sWFoRe3R
iRE5SPUEZEmX0r1R+DNinw8XTK2OAyDYh7bWDD5L8219BmOndXfybZKGpragUa/+
VsWVeCQp+E7VqgEhE5EYUTLlzXByKKcDj8UBVgp++dIJ3SCzdFWH5s5LivDWiwaI
tKEIIghS0nhxFBTXMBlCszZ+umvb3uD6FRhca7MUH7tkVBj9YAVt5+WudzDo6rHn
2oWQcooxcthiKdO9yliP852aXroNW7Z+RHHWe8BKAJWPnNCKIA/ZoyFZDfJZioac
SKW4OuGgEGadqdFCjYiR6GTP3Pf6SaYSw2rX1n/DeNKuCUIRWI57LBGH8LF6ZMiR
aavPeq8GZOGlCMIJec4b8sSj3hmnmyiWe71RXpHv6LLb8B/rn9lD9U7lg75KG4b5
AQIDAQABo4IBYzCCAV8wCQYDVR0TBAIwADAtBglghkgBhvhCAQ0EIBYeRWFzeS1S
U0EgR2VuZXJhdGVkIENlcnRpZmljYXRlMB0GA1UdDgQWBBQbL65OMpJojwDW2+jM
bZuNaAK/zjCB4QYDVR0jBIHZMIHWgBQSzWAE0qCAnnDtxpm4eyzGUv0ZoaGBsqSB
rzCBrDELMAkGA1UEBhMCVVMxCzAJBgNVBAgTAk9IMREwDwYDVQQHEwhDb2x1bWJ1
czESMBAGA1UEChMJVmlraW5nVlBOMR0wGwYDVQQLExRNeU9yZ2FuaXphdGlvbmFs
VW5pdDEVMBMGA1UEAxMMVmlraW5nVlBOIENBMRAwDgYDVQQpEwdFYXN5UlNBMSEw
HwYJKoZIhvcNAQkBFhJtZUBteWhvc3QubXlkb21haW6CCQDPNYXugL8qPjATBgNV
HSUEDDAKBggrBgEFBQcDAjALBgNVHQ8EBAMCB4AwDQYJKoZIhvcNAQELBQADggIB
ABHqxuLNbcCITzg97DXHEXWvdy6ZeYTu3uIC7tbj+dhumlTOoaFQg5MD6IAl5/TT
ZE/e7bA1be/PGuMjx0dDBYFp1yeZt3z59diNkxN3skizcIcFkD+kWjW+3Iu/FS6i
zRMmD/g14wZen4naAKRaiFya4TICwSHp5tF9u3HWsfjX8mKjiy9Gdeu97vCdTIT2
YQRjce5oPaTQ2JWgFe29J86nvUiNkL6pnVE8E9+rBiBIW3JXj8kzmWgC6cXJfUBQ
15xuO6rTyUhALZnEh29NWsX2ORdtrAgpS668rm6aFPgW4UNqoYA/JSrfZ8jt3aH4
nXQiChRdU8yhBhLG4slumeV11cgoGyGs/Ob3YmuUQHWFxkR45oMLXfD0VoSni7PK
tYThw5cmFfPGmY7mcu5Pu2Doe1fFY4SBwgrArzZlTy9ONDrA8svy1zf2dAa0zUdU
xpMUu0aLRCA4bFbpvbIu98cZk9xhq0Z6fM0bLlqGrFnKnwUJBuzXztz5VWkb+H8q
GwuAp+OK8Rl+qyxAQ0F6lnEL0gwNadC/8l0qLK8gSGMZp7I/3RXmujx2UWqV8rDh
3/q6Sef6diHiUAMpBIhbZRhiHu3kK2UKFyNNESEscyOaiDX+7SrHST2ELXyyu3rW
a6chqarDNFjs/RtftQm9KObTC72YK25w8s4ic/IccYL9
-----END CERTIFICATE-----
