Certificate:
    Data:
        Version: 3 (0x2)
        Serial Number: 8723 (0x2213)
    Signature Algorithm: sha256WithRSAEncryption
        Issuer: C=US, ST=OH, L=Columbus, O=VikingVPN, OU=MyOrganizationalUnit, CN=VikingVPN CA/name=EasyRSA/emailAddress=me@myhost.mydomain
        Validity
            Not Before: Aug  9 23:51:41 2016 GMT
            Not After : Aug  7 23:51:41 2026 GMT
        Subject: CN=Client2460Cert9b3e3a
        Subject Public Key Info:
            Public Key Algorithm: rsaEncryption
                Public-Key: (4096 bit)
                Modulus:
                    00:9c:61:60:cc:28:f3:2d:9d:b4:a3:12:6b:01:c6:
                    de:b2:a8:d3:9a:17:67:c8:4d:9d:e4:46:80:15:e8:
                    08:7e:2c:98:50:44:86:bf:69:de:ec:58:f7:f6:b5:
                    44:18:00:a9:4e:28:26:12:4f:6d:32:c9:e8:49:2f:
                    56:17:f7:23:7a:88:49:13:6c:c3:93:2b:f8:3a:75:
                    6e:8a:a0:9a:51:2b:26:b0:8d:8d:08:61:d0:02:db:
                    f9:57:d4:bb:06:0f:7f:9a:ff:2a:e1:a1:39:e1:3b:
                    d6:fe:40:3d:a8:c8:c7:f9:59:95:b7:a7:d4:8f:a9:
                    49:6a:27:a6:a2:27:10:05:b2:b7:d5:6c:cf:82:13:
                    40:a2:cd:e5:53:1f:8a:b3:50:74:05:45:94:09:a5:
                    cf:4d:8d:f6:a0:0b:7e:6b:77:0a:ed:7a:fb:ea:c1:
                    83:b1:a3:d5:b4:43:c7:c5:67:bb:a2:72:5d:24:b8:
                    a4:cd:2f:b7:eb:a9:c2:f1:58:52:35:82:fa:88:6e:
                    5b:d5:1a:0e:df:c6:cd:c2:da:de:77:99:10:75:b2:
                    c3:d0:4c:19:68:d7:bf:db:63:62:c8:71:d8:4f:e1:
                    20:05:76:ee:f0:e7:b6:86:04:99:9e:c9:36:88:c9:
                    3e:a7:74:1d:3c:09:0d:a6:97:42:a2:e8:8b:ab:bb:
                    13:0a:a1:97:22:91:83:b2:d7:d3:ea:e5:71:99:b1:
                    a9:2f:1c:b4:dc:d5:48:4c:b6:2f:b1:ec:65:94:0b:
                    ec:ec:0a:1d:c4:2f:8a:9b:d9:7f:61:ab:81:46:0a:
                    73:e6:73:42:2c:71:14:38:0c:17:a0:51:27:2f:3c:
                    4c:bb:56:09:d3:32:ac:6c:00:17:87:0e:bb:30:e0:
                    6e:d5:96:bd:d4:76:58:8b:0b:2d:14:60:13:2d:3a:
                    6d:bd:fa:4d:20:a6:5a:d9:97:d3:87:33:53:e5:e8:
                    7e:c1:db:7e:33:51:44:fe:4e:22:f5:03:f4:f0:c3:
                    13:7b:29:79:4b:ec:39:89:a2:5f:92:5a:73:5e:ef:
                    64:9c:6b:2b:23:cb:7c:22:9b:18:89:d2:91:b6:ab:
                    8d:f0:0b:9b:f8:4f:5f:7a:f8:16:81:03:9f:21:cf:
                    b9:41:bf:0d:56:fd:aa:d2:18:44:31:63:ba:54:e1:
                    dd:2f:58:61:80:49:3e:60:c4:61:70:7d:dd:2b:da:
                    a1:c7:5b:02:e5:86:eb:5b:1a:3a:db:62:4f:3d:6d:
                    49:b3:1f:85:98:0c:72:12:2f:13:d6:e3:e2:2f:54:
                    ca:2c:06:9d:f4:40:1e:a3:af:73:f3:6a:91:86:97:
                    86:8e:ba:3a:fc:2a:e5:b4:c1:b0:ef:1d:5a:eb:08:
                    8c:6e:cd
                Exponent: 65537 (0x10001)
        X509v3 extensions:
            X509v3 Basic Constraints: 
                CA:FALSE
            Netscape Comment: 
                Easy-RSA Generated Certificate
            X509v3 Subject Key Identifier: 
                D0:EE:DA:A1:09:70:1A:D3:50:0E:1D:09:AC:57:7F:4C:2B:C8:79:3A
            X509v3 Authority Key Identifier: 
                keyid:12:CD:60:04:D2:A0:80:9E:70:ED:C6:99:B8:7B:2C:C6:52:FD:19:A1
                DirName:/C=US/ST=OH/L=Columbus/O=VikingVPN/OU=MyOrganizationalUnit/CN=VikingVPN CA/name=EasyRSA/emailAddress=me@myhost.mydomain
                serial:CF:35:85:EE:80:BF:2A:3E

            X509v3 Extended Key Usage: 
                TLS Web Client Authentication
            X509v3 Key Usage: 
                Digital Signature
    Signature Algorithm: sha256WithRSAEncryption
         56:31:cc:63:d2:26:b1:0c:e0:1f:4e:ce:85:b0:58:92:7d:a9:
         14:d1:a3:ca:08:8e:60:83:0a:62:a6:d7:f8:57:d0:9d:2b:a5:
         92:47:ba:e9:eb:47:40:16:cc:1e:5b:cf:fe:98:27:52:ef:0b:
         6e:0a:7c:22:2e:85:9f:23:4f:9b:d2:de:d7:9e:5e:13:bd:46:
         19:9f:a6:63:39:55:a1:b3:f2:23:f6:09:d0:02:75:9d:75:fe:
         03:7f:fb:5e:8c:89:ae:cf:2e:f2:61:3f:55:d0:a4:7d:7b:67:
         85:c5:6a:fd:8b:be:46:e7:10:5a:99:8b:5b:e5:31:87:3c:7b:
         80:89:8f:d7:9d:56:dc:99:c7:f3:f1:d2:67:e1:44:fe:f2:b1:
         3d:83:90:fb:db:70:02:8d:f1:1e:9f:e6:c5:34:e3:57:7d:97:
         ab:aa:c9:d9:cd:ac:af:64:e6:d9:c8:03:27:0d:84:32:66:87:
         11:14:55:c0:4a:cb:3b:b6:80:33:a3:7e:34:98:e4:76:3c:8e:
         39:72:ca:b5:24:1e:19:1b:41:09:4c:4d:9b:c7:c4:18:ed:1b:
         22:df:37:ee:fc:76:9e:39:93:ed:42:8b:c0:c6:2a:0b:1e:09:
         54:96:a0:ee:f7:5c:96:60:43:75:9d:d1:0f:5c:13:2c:f8:ae:
         59:df:57:96:39:1b:e6:86:12:64:09:f4:34:0e:9d:51:d5:91:
         1b:98:82:3e:d0:85:44:4a:23:50:58:a1:73:08:74:e9:66:9b:
         94:92:fb:d5:fa:f3:89:eb:08:0c:88:81:55:1a:86:06:58:81:
         9f:7a:fd:c0:08:50:20:2e:53:84:ed:c3:0b:fe:fc:26:a1:1a:
         7f:0f:46:a9:ad:84:7b:9c:7d:ed:da:f7:08:b6:65:e2:53:15:
         0f:4a:87:1b:ca:c7:0e:3a:cf:69:49:86:96:4e:97:c5:2a:04:
         d7:4b:6f:d6:a0:d4:c4:d7:dd:74:9d:a8:8b:60:f4:a9:26:dd:
         51:14:9e:ac:d5:19:f4:3d:d2:d9:ee:da:ac:43:df:c7:82:24:
         8e:04:ef:1e:fc:6f:07:ea:70:0c:ef:ee:2f:ad:5e:fe:34:c6:
         4d:cc:21:70:11:4d:41:ee:51:e2:df:17:56:34:d7:56:4d:86:
         99:e8:4e:92:f7:06:bf:35:c6:51:07:87:82:5a:51:ad:26:2e:
         a8:5f:1d:7b:75:75:8f:68:f7:b2:ad:a7:6b:6e:de:7e:96:d5:
         77:32:64:ff:03:c0:d6:0c:e8:88:43:18:15:60:db:b2:74:b2:
         12:e5:49:7a:f4:0a:99:a4:1d:7b:6d:5a:22:3a:62:95:1a:53:
         90:52:af:d7:67:0d:67:e6
-----BEGIN CERTIFICATE-----
MIIGrTCCBJWgAwIBAgICIhMwDQYJKoZIhvcNAQELBQAwgawxCzAJBgNVBAYTAlVT
MQswCQYDVQQIEwJPSDERMA8GA1UEBxMIQ29sdW1idXMxEjAQBgNVBAoTCVZpa2lu
Z1ZQTjEdMBsGA1UECxMUTXlPcmdhbml6YXRpb25hbFVuaXQxFTATBgNVBAMTDFZp
a2luZ1ZQTiBDQTEQMA4GA1UEKRMHRWFzeVJTQTEhMB8GCSqGSIb3DQEJARYSbWVA
bXlob3N0Lm15ZG9tYWluMB4XDTE2MDgwOTIzNTE0MVoXDTI2MDgwNzIzNTE0MVow
HzEdMBsGA1UEAxMUQ2xpZW50MjQ2MENlcnQ5YjNlM2EwggIiMA0GCSqGSIb3DQEB
AQUAA4ICDwAwggIKAoICAQCcYWDMKPMtnbSjEmsBxt6yqNOaF2fITZ3kRoAV6Ah+
LJhQRIa/ad7sWPf2tUQYAKlOKCYST20yyehJL1YX9yN6iEkTbMOTK/g6dW6KoJpR
KyawjY0IYdAC2/lX1LsGD3+a/yrhoTnhO9b+QD2oyMf5WZW3p9SPqUlqJ6aiJxAF
srfVbM+CE0CizeVTH4qzUHQFRZQJpc9NjfagC35rdwrtevvqwYOxo9W0Q8fFZ7ui
cl0kuKTNL7frqcLxWFI1gvqIblvVGg7fxs3C2t53mRB1ssPQTBlo17/bY2LIcdhP
4SAFdu7w57aGBJmeyTaIyT6ndB08CQ2ml0Ki6IuruxMKoZcikYOy19Pq5XGZsakv
HLTc1UhMti+x7GWUC+zsCh3EL4qb2X9hq4FGCnPmc0IscRQ4DBegUScvPEy7VgnT
MqxsABeHDrsw4G7Vlr3UdliLCy0UYBMtOm29+k0gplrZl9OHM1Pl6H7B234zUUT+
TiL1A/TwwxN7KXlL7DmJol+SWnNe72Scaysjy3wimxiJ0pG2q43wC5v4T196+BaB
A58hz7lBvw1W/arSGEQxY7pU4d0vWGGAST5gxGFwfd0r2qHHWwLlhutbGjrbYk89
bUmzH4WYDHISLxPW4+IvVMosBp30QB6jr3PzapGGl4aOujr8KuW0wbDvHVrrCIxu
zQIDAQABo4IBYzCCAV8wCQYDVR0TBAIwADAtBglghkgBhvhCAQ0EIBYeRWFzeS1S
U0EgR2VuZXJhdGVkIENlcnRpZmljYXRlMB0GA1UdDgQWBBTQ7tqhCXAa01AOHQms
V39MK8h5OjCB4QYDVR0jBIHZMIHWgBQSzWAE0qCAnnDtxpm4eyzGUv0ZoaGBsqSB
rzCBrDELMAkGA1UEBhMCVVMxCzAJBgNVBAgTAk9IMREwDwYDVQQHEwhDb2x1bWJ1
czESMBAGA1UEChMJVmlraW5nVlBOMR0wGwYDVQQLExRNeU9yZ2FuaXphdGlvbmFs
VW5pdDEVMBMGA1UEAxMMVmlraW5nVlBOIENBMRAwDgYDVQQpEwdFYXN5UlNBMSEw
HwYJKoZIhvcNAQkBFhJtZUBteWhvc3QubXlkb21haW6CCQDPNYXugL8qPjATBgNV
HSUEDDAKBggrBgEFBQcDAjALBgNVHQ8EBAMCB4AwDQYJKoZIhvcNAQELBQADggIB
AFYxzGPSJrEM4B9OzoWwWJJ9qRTRo8oIjmCDCmKm1/hX0J0rpZJHuunrR0AWzB5b
z/6YJ1LvC24KfCIuhZ8jT5vS3teeXhO9RhmfpmM5VaGz8iP2CdACdZ11/gN/+16M
ia7PLvJhP1XQpH17Z4XFav2LvkbnEFqZi1vlMYc8e4CJj9edVtyZx/Px0mfhRP7y
sT2DkPvbcAKN8R6f5sU041d9l6uqydnNrK9k5tnIAycNhDJmhxEUVcBKyzu2gDOj
fjSY5HY8jjlyyrUkHhkbQQlMTZvHxBjtGyLfN+78dp45k+1Ci8DGKgseCVSWoO73
XJZgQ3Wd0Q9cEyz4rlnfV5Y5G+aGEmQJ9DQOnVHVkRuYgj7QhURKI1BYoXMIdOlm
m5SS+9X684nrCAyIgVUahgZYgZ96/cAIUCAuU4Ttwwv+/CahGn8PRqmthHucfe3a
9wi2ZeJTFQ9KhxvKxw46z2lJhpZOl8UqBNdLb9ag1MTX3XSdqItg9Kkm3VEUnqzV
GfQ90tnu2qxD38eCJI4E7x78bwfqcAzv7i+tXv40xk3MIXARTUHuUeLfF1Y011ZN
hpnoTpL3Br81xlEHh4JaUa0mLqhfHXt1dY9o97Ktp2tu3n6W1XcyZP8DwNYM6IhD
GBVg27J0shLlSXr0CpmkHXttWiI6YpUaU5BSr9dnDWfm
-----END CERTIFICATE-----
