Certificate:
    Data:
        Version: 3 (0x2)
        Serial Number: 8759 (0x2237)
    Signature Algorithm: sha256WithRSAEncryption
        Issuer: C=US, ST=OH, L=Columbus, O=VikingVPN, OU=MyOrganizationalUnit, CN=VikingVPN CA/name=EasyRSA/emailAddress=me@myhost.mydomain
        Validity
            Not Before: Aug 14 13:25:13 2016 GMT
            Not After : Aug 12 13:25:13 2026 GMT
        Subject: CN=Client2467Cert72e3b3
        Subject Public Key Info:
            Public Key Algorithm: rsaEncryption
                Public-Key: (4096 bit)
                Modulus:
                    00:ab:46:2b:c9:d4:7e:2c:84:ac:ae:fb:34:c7:5e:
                    93:87:25:98:33:9f:06:8e:b6:06:b4:1c:aa:cc:a4:
                    c9:45:d9:67:25:b2:eb:21:f0:70:af:80:58:72:d3:
                    07:5b:a2:34:47:96:1a:97:a4:50:56:bb:e0:b6:28:
                    f1:dc:3a:4d:d0:d9:1e:06:5a:99:d1:bf:3b:44:29:
                    6b:d6:df:34:a3:03:fb:1b:b6:a3:98:fd:ba:69:d5:
                    c9:80:d3:02:f0:cf:39:b6:a6:db:ae:27:c4:54:8c:
                    1e:4a:81:53:98:06:58:7f:5c:33:55:c6:15:b0:e1:
                    b2:a8:41:18:fe:1e:3e:5d:a8:07:a8:f2:95:47:94:
                    14:3c:45:c2:2f:f8:f0:aa:81:12:e8:f4:39:ab:ed:
                    3c:b7:93:3c:a4:d5:f1:ae:97:0c:b3:54:df:8e:df:
                    cd:3c:45:9c:b7:ba:52:d2:8d:ee:bd:07:20:99:45:
                    76:a4:17:b5:fc:25:08:2c:38:1a:82:63:ff:ab:e7:
                    8b:5b:57:fe:5a:98:2b:3c:3d:ee:03:ef:9d:61:ff:
                    78:ba:83:54:ba:8a:80:e4:9f:5a:66:7e:9a:3e:90:
                    76:0a:79:2b:04:83:cc:f6:77:da:68:44:40:01:5a:
                    dc:20:4e:9d:32:ad:02:eb:e3:86:80:24:5a:29:2e:
                    30:26:44:d6:28:b5:4b:38:04:1d:1c:04:d5:2b:7b:
                    45:a5:b1:a9:13:b3:e7:05:a3:19:68:9f:d6:cd:48:
                    e7:be:3c:0f:46:4e:27:29:95:09:c2:6a:45:6e:da:
                    54:b0:27:9b:b5:02:c9:9e:cb:ad:51:23:ce:f5:f6:
                    02:9f:bf:f5:7c:e7:0a:c0:eb:27:dc:db:74:07:7f:
                    55:65:8c:77:03:5b:b3:83:6e:bd:61:db:7d:25:a8:
                    70:6b:90:7f:b7:49:06:17:9d:d3:ef:6e:f0:52:4d:
                    96:dc:38:30:da:45:32:df:43:81:be:b1:5d:86:ea:
                    cb:82:fb:55:8f:3d:19:43:42:5a:06:3c:98:0e:db:
                    74:be:f7:90:12:df:34:cb:d0:35:bd:27:b9:36:27:
                    0d:55:c2:9e:b7:bb:9e:f0:4d:51:6c:c2:27:da:a5:
                    99:45:8d:6a:0e:1b:9d:14:1e:c1:a8:13:9e:7f:17:
                    3b:a8:3e:4f:19:7d:db:c7:be:4a:c0:f3:e9:c7:d9:
                    c8:ae:0f:b9:75:4c:de:1c:84:f8:57:4e:94:63:78:
                    7f:95:65:20:69:f1:e6:b4:bc:ea:2e:8c:1e:78:12:
                    ac:17:ad:29:b2:8c:b7:1a:9f:32:af:eb:6a:bf:32:
                    3f:d6:8d:8c:94:90:3f:d0:25:26:d8:2b:e5:4b:5b:
                    94:88:a1
                Exponent: 65537 (0x10001)
        X509v3 extensions:
            X509v3 Basic Constraints: 
                CA:FALSE
            Netscape Comment: 
                Easy-RSA Generated Certificate
            X509v3 Subject Key Identifier: 
                8A:F0:C0:22:E6:30:35:1E:E7:BD:A9:0E:C2:2A:C3:AA:B3:82:3B:2D
            X509v3 Authority Key Identifier: 
                keyid:12:CD:60:04:D2:A0:80:9E:70:ED:C6:99:B8:7B:2C:C6:52:FD:19:A1
                DirName:/C=US/ST=OH/L=Columbus/O=VikingVPN/OU=MyOrganizationalUnit/CN=VikingVPN CA/name=EasyRSA/emailAddress=me@myhost.mydomain
                serial:CF:35:85:EE:80:BF:2A:3E

            X509v3 Extended Key Usage: 
                TLS Web Client Authentication
            X509v3 Key Usage: 
                Digital Signature
    Signature Algorithm: sha256WithRSAEncryption
         31:92:5c:c2:dd:c7:61:f6:2f:0d:d8:8b:60:9e:69:1d:17:4d:
         87:78:42:d4:20:1d:c3:ad:15:d0:f2:51:43:67:1a:58:76:c9:
         a8:9f:00:a0:1a:44:ed:ef:98:6f:d6:1e:b8:5b:7e:45:23:ef:
         14:9c:3a:4d:03:1e:5c:9d:ac:03:fd:41:39:e9:c8:65:41:25:
         e8:1f:4c:bd:99:16:77:0a:5b:d8:6b:e9:1a:a7:df:66:e5:64:
         f4:b8:8f:14:b9:7b:91:b9:ec:7f:1d:bd:db:b3:8a:5c:a3:81:
         f2:bb:9b:3c:53:12:c3:57:41:e2:75:d0:7b:d7:92:18:2e:56:
         02:cd:a3:17:f1:bc:4d:04:65:26:8c:48:93:6c:de:92:19:d2:
         06:d7:ac:59:45:34:44:46:f2:ab:54:eb:ef:d6:5d:cb:65:7a:
         f8:a1:83:d4:8c:35:88:45:d4:f8:aa:5e:a0:b1:81:2e:7a:c4:
         1c:b7:d6:a1:22:98:b4:ae:5a:fa:36:9e:d1:03:02:b6:96:e4:
         5b:30:0c:ca:94:dd:8c:1a:7a:b1:53:53:cc:9b:77:83:5a:2e:
         7f:e5:d3:01:4c:31:b3:bd:d2:4d:3a:03:0c:a5:00:eb:07:5b:
         eb:28:f4:5a:b7:9f:3e:07:61:8a:79:11:44:55:34:43:4b:a3:
         e5:0d:bf:a9:b2:42:b8:ac:09:69:8a:c4:52:42:05:c4:d3:8a:
         47:d4:0b:f1:32:c9:3b:57:cd:98:67:83:a1:79:a3:64:e1:58:
         e8:d8:56:8f:d0:a9:91:6a:2a:11:de:8e:92:6a:64:f9:12:74:
         08:be:6f:8b:cf:a4:f6:16:86:ef:a8:db:f0:d8:e7:7d:64:9c:
         63:fb:1b:b4:31:06:01:f0:78:18:a2:63:98:48:36:38:09:a3:
         14:75:88:9f:48:c4:86:5c:ea:64:a0:11:88:44:d2:3b:9b:d4:
         7c:18:7f:3f:63:bd:3c:16:58:ba:44:11:18:d7:9d:ac:98:21:
         3f:f9:ba:ff:1a:65:ed:a2:bb:04:3d:c5:7c:23:0a:14:ce:b8:
         68:19:16:a1:9d:06:dc:65:11:6b:c7:e0:dc:28:ea:bd:83:fd:
         5c:fc:fd:23:1f:70:f8:3b:b8:38:c2:c1:01:29:08:43:ad:8c:
         ae:7c:b0:50:a4:3c:21:73:c2:f7:fc:9f:46:e9:1e:1c:5a:c8:
         69:c8:01:48:f8:25:2a:97:58:7b:82:d3:38:cc:a7:07:77:7b:
         84:d2:18:ea:a4:7c:00:51:bc:93:fd:32:35:cd:ee:4b:7f:83:
         c2:57:19:e2:e2:ea:c1:2b:af:5b:05:da:19:ca:b0:c5:0c:a2:
         79:9b:f1:8e:71:8a:fd:26
-----BEGIN CERTIFICATE-----
MIIGrTCCBJWgAwIBAgICIjcwDQYJKoZIhvcNAQELBQAwgawxCzAJBgNVBAYTAlVT
MQswCQYDVQQIEwJPSDERMA8GA1UEBxMIQ29sdW1idXMxEjAQBgNVBAoTCVZpa2lu
Z1ZQTjEdMBsGA1UECxMUTXlPcmdhbml6YXRpb25hbFVuaXQxFTATBgNVBAMTDFZp
a2luZ1ZQTiBDQTEQMA4GA1UEKRMHRWFzeVJTQTEhMB8GCSqGSIb3DQEJARYSbWVA
bXlob3N0Lm15ZG9tYWluMB4XDTE2MDgxNDEzMjUxM1oXDTI2MDgxMjEzMjUxM1ow
HzEdMBsGA1UEAxMUQ2xpZW50MjQ2N0NlcnQ3MmUzYjMwggIiMA0GCSqGSIb3DQEB
AQUAA4ICDwAwggIKAoICAQCrRivJ1H4shKyu+zTHXpOHJZgznwaOtga0HKrMpMlF
2Wclsush8HCvgFhy0wdbojRHlhqXpFBWu+C2KPHcOk3Q2R4GWpnRvztEKWvW3zSj
A/sbtqOY/bpp1cmA0wLwzzm2ptuuJ8RUjB5KgVOYBlh/XDNVxhWw4bKoQRj+Hj5d
qAeo8pVHlBQ8RcIv+PCqgRLo9Dmr7Ty3kzyk1fGulwyzVN+O3808RZy3ulLSje69
ByCZRXakF7X8JQgsOBqCY/+r54tbV/5amCs8Pe4D751h/3i6g1S6ioDkn1pmfpo+
kHYKeSsEg8z2d9poREABWtwgTp0yrQLr44aAJFopLjAmRNYotUs4BB0cBNUre0Wl
sakTs+cFoxlon9bNSOe+PA9GTicplQnCakVu2lSwJ5u1Asmey61RI8719gKfv/V8
5wrA6yfc23QHf1VljHcDW7ODbr1h230lqHBrkH+3SQYXndPvbvBSTZbcODDaRTLf
Q4G+sV2G6suC+1WPPRlDQloGPJgO23S+95AS3zTL0DW9J7k2Jw1Vwp63u57wTVFs
wifapZlFjWoOG50UHsGoE55/FzuoPk8ZfdvHvkrA8+nH2ciuD7l1TN4chPhXTpRj
eH+VZSBp8ea0vOoujB54EqwXrSmyjLcanzKv62q/Mj/WjYyUkD/QJSbYK+VLW5SI
oQIDAQABo4IBYzCCAV8wCQYDVR0TBAIwADAtBglghkgBhvhCAQ0EIBYeRWFzeS1S
U0EgR2VuZXJhdGVkIENlcnRpZmljYXRlMB0GA1UdDgQWBBSK8MAi5jA1Hue9qQ7C
KsOqs4I7LTCB4QYDVR0jBIHZMIHWgBQSzWAE0qCAnnDtxpm4eyzGUv0ZoaGBsqSB
rzCBrDELMAkGA1UEBhMCVVMxCzAJBgNVBAgTAk9IMREwDwYDVQQHEwhDb2x1bWJ1
czESMBAGA1UEChMJVmlraW5nVlBOMR0wGwYDVQQLExRNeU9yZ2FuaXphdGlvbmFs
VW5pdDEVMBMGA1UEAxMMVmlraW5nVlBOIENBMRAwDgYDVQQpEwdFYXN5UlNBMSEw
HwYJKoZIhvcNAQkBFhJtZUBteWhvc3QubXlkb21haW6CCQDPNYXugL8qPjATBgNV
HSUEDDAKBggrBgEFBQcDAjALBgNVHQ8EBAMCB4AwDQYJKoZIhvcNAQELBQADggIB
ADGSXMLdx2H2Lw3Yi2CeaR0XTYd4QtQgHcOtFdDyUUNnGlh2yaifAKAaRO3vmG/W
HrhbfkUj7xScOk0DHlydrAP9QTnpyGVBJegfTL2ZFncKW9hr6Rqn32blZPS4jxS5
e5G57H8dvduzilyjgfK7mzxTEsNXQeJ10HvXkhguVgLNoxfxvE0EZSaMSJNs3pIZ
0gbXrFlFNERG8qtU6+/WXctlevihg9SMNYhF1PiqXqCxgS56xBy31qEimLSuWvo2
ntEDAraW5FswDMqU3YwaerFTU8ybd4NaLn/l0wFMMbO90k06AwylAOsHW+so9Fq3
nz4HYYp5EURVNENLo+UNv6myQrisCWmKxFJCBcTTikfUC/EyyTtXzZhng6F5o2Th
WOjYVo/QqZFqKhHejpJqZPkSdAi+b4vPpPYWhu+o2/DY531knGP7G7QxBgHweBii
Y5hINjgJoxR1iJ9IxIZc6mSgEYhE0jub1HwYfz9jvTwWWLpEERjXnayYIT/5uv8a
Ze2iuwQ9xXwjChTOuGgZFqGdBtxlEWvH4Nwo6r2D/Vz8/SMfcPg7uDjCwQEpCEOt
jK58sFCkPCFzwvf8n0bpHhxayGnIAUj4JSqXWHuC0zjMpwd3e4TSGOqkfABRvJP9
MjXN7kt/g8JXGeLi6sErr1sF2hnKsMUMonmb8Y5xiv0m
-----END CERTIFICATE-----
