Certificate:
    Data:
        Version: 3 (0x2)
        Serial Number: 8768 (0x2240)
    Signature Algorithm: sha256WithRSAEncryption
        Issuer: C=US, ST=OH, L=Columbus, O=VikingVPN, OU=MyOrganizationalUnit, CN=VikingVPN CA/name=EasyRSA/emailAddress=me@myhost.mydomain
        Validity
            Not Before: Aug 15 00:31:38 2016 GMT
            Not After : Aug 13 00:31:38 2026 GMT
        Subject: CN=Client2405Certdb43b8
        Subject Public Key Info:
            Public Key Algorithm: rsaEncryption
                Public-Key: (4096 bit)
                Modulus:
                    00:9a:67:8d:08:45:74:ea:92:7f:0c:95:73:aa:0b:
                    8b:bd:fe:50:2a:5b:bf:91:e3:e7:22:df:eb:93:4b:
                    85:02:0d:79:42:e6:81:aa:e8:76:3b:90:27:d8:e8:
                    06:64:98:19:02:fb:6c:5b:5b:ba:df:05:21:31:57:
                    c0:38:00:ea:0d:5e:15:60:b0:c0:19:e8:af:71:ff:
                    42:1f:94:3b:69:5d:72:aa:ba:db:7a:ba:70:20:7b:
                    6d:2a:14:c4:62:35:17:b3:b3:be:a7:d8:c0:59:1d:
                    5b:b6:d3:a6:6f:f1:a5:4b:ed:50:ff:25:35:d7:88:
                    e7:c2:ba:7f:c6:21:08:5f:e0:17:78:cd:12:34:15:
                    3a:c8:e1:3c:a2:83:e7:46:1d:92:9e:5c:ba:d2:e2:
                    a8:e4:18:01:f6:78:f4:77:b3:0c:3e:f9:43:f8:28:
                    4b:f4:32:ef:fc:e1:fa:76:a1:79:bc:f7:d9:78:1f:
                    49:ac:82:90:11:83:c2:71:8f:16:6f:5e:99:ec:11:
                    ae:e4:7f:fa:e4:a1:cd:60:c0:a7:f2:4c:61:77:c5:
                    19:31:9a:0b:1f:db:33:0c:9a:43:7e:9c:f3:58:b5:
                    46:ad:59:fa:b4:ba:de:cc:e3:ca:97:73:af:a7:de:
                    2f:43:07:4b:bd:19:9e:c4:db:66:d4:eb:f3:57:8e:
                    51:9e:26:11:13:cb:f1:42:ce:93:0b:9d:c4:5e:f3:
                    ad:95:8d:98:0f:1a:ed:ec:23:e6:62:63:2b:53:1d:
                    a9:d1:c4:23:d6:b6:dc:2d:e8:64:e8:bf:08:60:25:
                    e3:ed:c5:24:58:df:b1:a4:28:5e:5e:d1:97:19:c8:
                    46:40:18:f7:8e:8c:89:54:41:19:5d:57:c6:1a:fa:
                    5a:16:20:19:37:3c:1c:ce:28:a1:28:4d:fb:7e:aa:
                    fd:95:35:f5:a0:2c:dc:5c:26:24:33:db:8c:01:3c:
                    b2:64:4a:77:43:09:b3:62:22:cf:7d:5f:9b:3d:6f:
                    cd:1e:0f:3a:2d:08:0b:6a:6c:cc:c9:df:61:00:29:
                    3e:02:ab:f6:0c:26:e7:cd:89:74:46:51:db:67:4e:
                    ad:78:34:5d:18:b3:4b:03:6f:13:69:fc:5c:f0:ae:
                    b4:a3:a5:96:ca:4b:e7:81:97:86:86:97:3b:3a:70:
                    56:6a:51:c3:91:e7:bd:1c:f5:12:27:df:77:91:b4:
                    b8:cd:8b:a0:55:9f:79:04:67:d1:60:d0:2b:67:64:
                    a1:8b:c8:06:07:ff:7f:f3:08:a8:8e:97:9d:64:70:
                    fc:0f:3e:71:bb:78:43:5f:bf:69:0a:21:fa:7f:7b:
                    02:ef:7e:29:2f:75:13:08:8a:98:d6:8a:9d:f7:a9:
                    3f:61:51
                Exponent: 65537 (0x10001)
        X509v3 extensions:
            X509v3 Basic Constraints: 
                CA:FALSE
            Netscape Comment: 
                Easy-RSA Generated Certificate
            X509v3 Subject Key Identifier: 
                1B:66:59:DB:E9:A1:48:BA:E8:2B:63:15:27:8C:BB:9B:86:06:E3:B7
            X509v3 Authority Key Identifier: 
                keyid:12:CD:60:04:D2:A0:80:9E:70:ED:C6:99:B8:7B:2C:C6:52:FD:19:A1
                DirName:/C=US/ST=OH/L=Columbus/O=VikingVPN/OU=MyOrganizationalUnit/CN=VikingVPN CA/name=EasyRSA/emailAddress=me@myhost.mydomain
                serial:CF:35:85:EE:80:BF:2A:3E

            X509v3 Extended Key Usage: 
                TLS Web Client Authentication
            X509v3 Key Usage: 
                Digital Signature
    Signature Algorithm: sha256WithRSAEncryption
         cd:fc:21:ad:f2:36:1a:4b:18:1e:be:fe:6e:e4:3f:61:4d:49:
         a4:b4:15:6e:a4:54:21:2f:8b:13:a6:64:72:9f:2c:16:7f:a2:
         89:da:83:fc:2d:1f:3b:3d:43:bb:30:1c:0d:4c:80:89:3b:3e:
         6b:6d:33:b3:75:4d:26:ac:1b:3a:15:5e:20:47:5a:87:5c:15:
         4a:09:d1:1f:62:2d:31:b9:a5:57:28:c6:60:a9:c3:95:d5:54:
         4d:ed:98:55:95:0f:d9:b8:87:d9:ce:36:e9:ae:5c:7d:f7:e2:
         e3:ca:cc:bd:fe:e6:c9:d8:4c:67:e6:83:17:4c:68:78:42:1d:
         a5:16:30:ae:f3:a7:49:74:5e:65:2d:0d:b2:30:87:98:e3:2c:
         92:de:7a:97:53:17:6d:42:53:d6:22:f9:85:dc:4c:c5:d2:0e:
         e2:cf:c7:98:31:19:3b:cb:52:b6:ba:c8:8f:a4:a9:35:3e:0f:
         f2:f2:86:e3:27:6b:48:9a:5d:c9:4c:e1:4b:ed:b1:de:67:2a:
         0b:72:00:55:41:aa:4f:11:cc:9e:4c:05:a2:5a:75:fb:8b:c3:
         85:9c:e3:60:c0:c3:3f:d1:b4:26:9c:a1:62:e5:01:36:35:52:
         e5:94:6b:84:8d:82:94:a9:f6:22:00:90:6d:55:bf:be:c7:1a:
         6e:15:f3:23:f6:6d:0b:16:a8:02:28:d9:b5:e5:3a:25:65:36:
         a0:7f:ca:83:3a:bd:12:44:61:27:68:d2:a3:8c:ab:78:4a:36:
         33:c8:49:96:01:cf:71:4e:14:15:20:5c:67:2e:d4:b6:10:e7:
         e6:2d:2c:e1:d5:4c:d8:ba:b1:a0:bf:a8:fc:c3:8d:f6:17:ee:
         3c:1a:00:08:a8:03:c0:c0:50:cd:54:50:74:5e:d1:fe:8f:26:
         b1:a0:9b:e4:43:78:d9:f6:0e:43:8e:1e:dc:2b:a8:ba:c3:6a:
         ef:eb:5a:58:90:e6:df:60:19:68:71:e3:3c:84:25:53:83:e7:
         d9:cc:97:43:a1:a0:d1:96:95:95:c8:db:1c:47:58:f2:bc:09:
         3f:81:7a:03:40:fe:26:5c:05:d1:3d:bb:4f:d5:80:42:d2:8a:
         35:8f:29:90:6e:22:90:66:93:25:d4:eb:a4:58:b5:21:99:b7:
         aa:1d:ba:7e:cf:d0:1d:5f:94:38:1e:bc:61:38:9c:46:ce:b5:
         90:86:15:21:b0:7b:c2:81:3d:4a:af:0b:6b:be:d0:6b:15:0c:
         a6:79:34:1b:68:51:2b:33:3c:04:56:36:bc:bd:ff:82:e0:ab:
         be:61:80:77:cd:71:f3:d2:40:86:58:6b:c7:6b:f4:39:93:73:
         a4:13:c5:57:c9:3c:e0:2c
-----BEGIN CERTIFICATE-----
MIIGrTCCBJWgAwIBAgICIkAwDQYJKoZIhvcNAQELBQAwgawxCzAJBgNVBAYTAlVT
MQswCQYDVQQIEwJPSDERMA8GA1UEBxMIQ29sdW1idXMxEjAQBgNVBAoTCVZpa2lu
Z1ZQTjEdMBsGA1UECxMUTXlPcmdhbml6YXRpb25hbFVuaXQxFTATBgNVBAMTDFZp
a2luZ1ZQTiBDQTEQMA4GA1UEKRMHRWFzeVJTQTEhMB8GCSqGSIb3DQEJARYSbWVA
bXlob3N0Lm15ZG9tYWluMB4XDTE2MDgxNTAwMzEzOFoXDTI2MDgxMzAwMzEzOFow
HzEdMBsGA1UEAxMUQ2xpZW50MjQwNUNlcnRkYjQzYjgwggIiMA0GCSqGSIb3DQEB
AQUAA4ICDwAwggIKAoICAQCaZ40IRXTqkn8MlXOqC4u9/lAqW7+R4+ci3+uTS4UC
DXlC5oGq6HY7kCfY6AZkmBkC+2xbW7rfBSExV8A4AOoNXhVgsMAZ6K9x/0IflDtp
XXKqutt6unAge20qFMRiNRezs76n2MBZHVu206Zv8aVL7VD/JTXXiOfCun/GIQhf
4Bd4zRI0FTrI4Tyig+dGHZKeXLrS4qjkGAH2ePR3sww++UP4KEv0Mu/84fp2oXm8
99l4H0msgpARg8JxjxZvXpnsEa7kf/rkoc1gwKfyTGF3xRkxmgsf2zMMmkN+nPNY
tUatWfq0ut7M48qXc6+n3i9DB0u9GZ7E22bU6/NXjlGeJhETy/FCzpMLncRe862V
jZgPGu3sI+ZiYytTHanRxCPWttwt6GTovwhgJePtxSRY37GkKF5e0ZcZyEZAGPeO
jIlUQRldV8Ya+loWIBk3PBzOKKEoTft+qv2VNfWgLNxcJiQz24wBPLJkSndDCbNi
Is99X5s9b80eDzotCAtqbMzJ32EAKT4Cq/YMJufNiXRGUdtnTq14NF0Ys0sDbxNp
/FzwrrSjpZbKS+eBl4aGlzs6cFZqUcOR570c9RIn33eRtLjNi6BVn3kEZ9Fg0Ctn
ZKGLyAYH/3/zCKiOl51kcPwPPnG7eENfv2kKIfp/ewLvfikvdRMIipjWip33qT9h
UQIDAQABo4IBYzCCAV8wCQYDVR0TBAIwADAtBglghkgBhvhCAQ0EIBYeRWFzeS1S
U0EgR2VuZXJhdGVkIENlcnRpZmljYXRlMB0GA1UdDgQWBBQbZlnb6aFIuugrYxUn
jLubhgbjtzCB4QYDVR0jBIHZMIHWgBQSzWAE0qCAnnDtxpm4eyzGUv0ZoaGBsqSB
rzCBrDELMAkGA1UEBhMCVVMxCzAJBgNVBAgTAk9IMREwDwYDVQQHEwhDb2x1bWJ1
czESMBAGA1UEChMJVmlraW5nVlBOMR0wGwYDVQQLExRNeU9yZ2FuaXphdGlvbmFs
VW5pdDEVMBMGA1UEAxMMVmlraW5nVlBOIENBMRAwDgYDVQQpEwdFYXN5UlNBMSEw
HwYJKoZIhvcNAQkBFhJtZUBteWhvc3QubXlkb21haW6CCQDPNYXugL8qPjATBgNV
HSUEDDAKBggrBgEFBQcDAjALBgNVHQ8EBAMCB4AwDQYJKoZIhvcNAQELBQADggIB
AM38Ia3yNhpLGB6+/m7kP2FNSaS0FW6kVCEvixOmZHKfLBZ/oonag/wtHzs9Q7sw
HA1MgIk7PmttM7N1TSasGzoVXiBHWodcFUoJ0R9iLTG5pVcoxmCpw5XVVE3tmFWV
D9m4h9nONumuXH334uPKzL3+5snYTGfmgxdMaHhCHaUWMK7zp0l0XmUtDbIwh5jj
LJLeepdTF21CU9Yi+YXcTMXSDuLPx5gxGTvLUra6yI+kqTU+D/LyhuMna0iaXclM
4Uvtsd5nKgtyAFVBqk8RzJ5MBaJadfuLw4Wc42DAwz/RtCacoWLlATY1UuWUa4SN
gpSp9iIAkG1Vv77HGm4V8yP2bQsWqAIo2bXlOiVlNqB/yoM6vRJEYSdo0qOMq3hK
NjPISZYBz3FOFBUgXGcu1LYQ5+YtLOHVTNi6saC/qPzDjfYX7jwaAAioA8DAUM1U
UHRe0f6PJrGgm+RDeNn2DkOOHtwrqLrDau/rWliQ5t9gGWhx4zyEJVOD59nMl0Oh
oNGWlZXI2xxHWPK8CT+BegNA/iZcBdE9u0/VgELSijWPKZBuIpBmkyXU66RYtSGZ
t6odun7P0B1flDgevGE4nEbOtZCGFSGwe8KBPUqvC2u+0GsVDKZ5NBtoUSszPARW
Nry9/4Lgq75hgHfNcfPSQIZYa8dr9DmTc6QTxVfJPOAs
-----END CERTIFICATE-----
