Certificate:
    Data:
        Version: 3 (0x2)
        Serial Number: 8771 (0x2243)
    Signature Algorithm: sha256WithRSAEncryption
        Issuer: C=US, ST=OH, L=Columbus, O=VikingVPN, OU=MyOrganizationalUnit, CN=VikingVPN CA/name=EasyRSA/emailAddress=me@myhost.mydomain
        Validity
            Not Before: Aug 15 00:44:55 2016 GMT
            Not After : Aug 13 00:44:55 2026 GMT
        Subject: CN=Client955Certb429b9
        Subject Public Key Info:
            Public Key Algorithm: rsaEncryption
                Public-Key: (4096 bit)
                Modulus:
                    00:bf:34:79:43:52:79:4d:cd:6a:0f:49:45:1f:db:
                    cf:62:b6:f8:1f:7c:62:0a:f8:12:48:ce:a0:7f:7c:
                    ff:93:ab:48:18:7f:b7:8b:df:7a:bf:c4:4b:48:d1:
                    ed:62:10:c0:c2:24:ae:39:f4:0f:d6:02:49:7b:f8:
                    40:f0:54:ad:40:92:9c:6a:05:e2:67:ae:8b:29:79:
                    a3:b8:1a:ca:8e:77:5c:de:66:30:7c:c6:9b:80:59:
                    1a:8b:1f:6b:57:cd:13:38:87:b1:de:85:13:fb:11:
                    1b:16:60:80:68:37:d7:ea:7b:69:c8:6c:88:40:01:
                    72:35:55:8b:ef:a7:96:6a:33:f6:2d:f9:a6:82:2e:
                    d0:2b:9c:62:d1:7d:de:4d:74:cc:57:d3:d8:ac:ad:
                    c0:fd:65:87:58:ca:bc:90:38:5a:04:58:ff:cc:b2:
                    b3:97:5f:45:64:f9:0d:85:91:0a:a2:44:66:f1:3b:
                    c4:83:2b:18:ef:fb:2d:7c:a5:bc:00:69:61:b7:8d:
                    19:5a:fc:b2:96:4c:68:07:31:61:fa:b0:85:94:47:
                    b9:d9:70:21:6a:06:a5:93:ed:11:02:f0:3b:8a:f0:
                    50:d6:98:f7:9e:39:43:79:32:35:db:98:80:8d:32:
                    69:7d:f9:2b:5c:21:2a:77:f4:d0:af:93:68:2d:8c:
                    d3:d6:8b:63:e2:77:0e:2c:f3:a6:bb:de:3d:57:a2:
                    a6:59:8e:44:ef:5b:6a:77:e4:bd:15:cd:a1:06:80:
                    a1:86:6b:75:3e:61:85:6b:5a:4d:4a:d9:1c:04:8a:
                    88:3f:62:45:48:67:eb:fd:a6:29:26:44:ce:b7:f1:
                    69:d8:43:71:39:60:10:84:75:16:13:a4:1b:d5:e1:
                    0c:ed:33:f9:5f:9b:b1:4f:ec:26:55:84:8f:69:66:
                    cd:5d:a7:bc:ad:fb:cd:22:1b:9e:c9:21:ab:53:83:
                    b0:1c:e5:56:e9:95:d7:b5:4d:94:86:ca:9c:cc:24:
                    e4:24:d1:c7:bf:39:42:0f:9f:09:48:45:24:dc:b4:
                    0b:83:2b:18:64:00:13:21:e0:76:04:5d:50:d0:c3:
                    05:1d:48:e6:e2:44:e1:f3:b6:e9:5b:cb:58:c7:23:
                    a8:25:60:aa:28:95:56:13:f3:df:65:a2:bd:66:59:
                    37:44:96:cb:07:62:c3:e7:0e:16:26:ff:d5:20:5b:
                    0d:ab:95:da:33:93:72:1e:e6:d5:05:79:c6:f1:c1:
                    0e:27:d1:34:26:20:54:78:4f:b4:e6:d1:36:b1:06:
                    0a:53:8f:86:a6:3d:02:c6:6f:36:ae:df:13:10:7a:
                    b2:2e:99:3d:21:93:56:20:d8:58:9d:30:e3:46:44:
                    b0:15:69
                Exponent: 65537 (0x10001)
        X509v3 extensions:
            X509v3 Basic Constraints: 
                CA:FALSE
            Netscape Comment: 
                Easy-RSA Generated Certificate
            X509v3 Subject Key Identifier: 
                D8:CA:93:EC:F2:6E:CA:44:5E:2C:11:28:88:AF:44:28:72:4F:C7:64
            X509v3 Authority Key Identifier: 
                keyid:12:CD:60:04:D2:A0:80:9E:70:ED:C6:99:B8:7B:2C:C6:52:FD:19:A1
                DirName:/C=US/ST=OH/L=Columbus/O=VikingVPN/OU=MyOrganizationalUnit/CN=VikingVPN CA/name=EasyRSA/emailAddress=me@myhost.mydomain
                serial:CF:35:85:EE:80:BF:2A:3E

            X509v3 Extended Key Usage: 
                TLS Web Client Authentication
            X509v3 Key Usage: 
                Digital Signature
    Signature Algorithm: sha256WithRSAEncryption
         b9:10:85:c3:dd:eb:4a:25:53:a8:43:1b:a4:eb:81:6f:9b:6b:
         82:e3:ca:2a:a9:1f:b7:d5:da:2c:a8:ac:6e:1d:70:9c:b9:16:
         cf:9a:1c:a8:8a:14:92:bb:f4:68:53:9b:d0:bd:a0:bf:48:0e:
         94:42:d4:e8:7b:0a:e7:8f:a2:99:28:68:05:26:0e:41:88:d3:
         c1:a9:45:f1:a4:13:fb:78:67:ef:82:6a:8d:02:18:15:d7:18:
         24:3b:21:0a:cd:0d:64:0d:58:0f:b4:80:72:9e:d3:5b:4b:a5:
         02:bc:7f:74:df:8b:bd:be:d2:7c:54:16:67:96:0b:9b:13:91:
         ca:47:01:49:5b:26:74:65:a5:e5:a2:80:2a:17:9f:eb:67:d5:
         95:57:d6:0e:1b:db:6d:56:e8:df:c6:8e:15:26:b9:f5:f7:bb:
         b5:52:41:df:2b:7c:b9:e4:83:b9:a2:af:b6:d9:07:bf:da:64:
         a5:47:2c:3f:53:b9:fb:d0:51:52:d7:bd:3c:05:07:75:93:3b:
         57:8a:55:68:49:d0:0a:57:86:20:00:d5:ec:86:6a:f2:9d:7a:
         cf:3a:f6:d2:aa:14:57:df:93:18:3d:4d:b2:b4:32:3a:89:72:
         ba:d7:a8:f2:62:34:9b:02:7b:82:94:01:07:d5:5d:d9:3f:98:
         5d:62:77:a5:e2:a1:01:1d:e8:de:c1:98:a6:bf:fd:76:c1:6d:
         ad:1f:91:19:a7:68:e3:b7:b2:33:a8:e8:4a:80:41:c4:bc:d6:
         d9:f1:a0:08:2c:6f:32:36:04:50:14:81:63:c2:31:9a:4f:a1:
         c9:79:41:6d:ec:63:d1:2a:cd:e0:e3:0c:05:32:b4:1f:97:b7:
         3f:8f:87:ca:f6:32:fd:18:e1:8c:1b:10:1a:3c:dc:50:86:5e:
         e7:68:30:f2:ce:f7:c6:79:f2:a5:40:72:08:ae:51:b4:34:45:
         68:a4:c6:5b:a4:44:72:8b:0d:12:2a:ba:3a:4a:4f:7b:8e:43:
         fa:62:8d:a7:08:b7:29:34:68:12:4e:58:94:87:60:aa:94:f2:
         42:05:5f:66:67:8f:03:3e:31:bf:93:f4:00:da:47:08:ad:4e:
         a0:1a:d7:80:1c:10:b4:57:c1:ec:ba:e2:0e:f6:d9:d0:c2:66:
         73:f7:0c:37:a6:14:c6:a7:fc:00:2b:aa:51:22:18:af:bf:64:
         0d:cf:d7:70:1b:07:30:3f:c4:3f:9f:9a:27:2e:c5:94:9e:50:
         ef:f3:54:dd:69:ab:48:b7:7e:0e:a9:64:24:9d:10:c3:a7:d4:
         53:34:d7:0c:0a:df:01:8b:fe:c8:02:7d:90:19:b3:9b:92:13:
         91:5d:0e:65:42:3d:0f:79
-----BEGIN CERTIFICATE-----
MIIGrDCCBJSgAwIBAgICIkMwDQYJKoZIhvcNAQELBQAwgawxCzAJBgNVBAYTAlVT
MQswCQYDVQQIEwJPSDERMA8GA1UEBxMIQ29sdW1idXMxEjAQBgNVBAoTCVZpa2lu
Z1ZQTjEdMBsGA1UECxMUTXlPcmdhbml6YXRpb25hbFVuaXQxFTATBgNVBAMTDFZp
a2luZ1ZQTiBDQTEQMA4GA1UEKRMHRWFzeVJTQTEhMB8GCSqGSIb3DQEJARYSbWVA
bXlob3N0Lm15ZG9tYWluMB4XDTE2MDgxNTAwNDQ1NVoXDTI2MDgxMzAwNDQ1NVow
HjEcMBoGA1UEAxMTQ2xpZW50OTU1Q2VydGI0MjliOTCCAiIwDQYJKoZIhvcNAQEB
BQADggIPADCCAgoCggIBAL80eUNSeU3Nag9JRR/bz2K2+B98Ygr4EkjOoH98/5Or
SBh/t4vfer/ES0jR7WIQwMIkrjn0D9YCSXv4QPBUrUCSnGoF4meuiyl5o7gayo53
XN5mMHzGm4BZGosfa1fNEziHsd6FE/sRGxZggGg31+p7achsiEABcjVVi++nlmoz
9i35poIu0CucYtF93k10zFfT2KytwP1lh1jKvJA4WgRY/8yys5dfRWT5DYWRCqJE
ZvE7xIMrGO/7LXylvABpYbeNGVr8spZMaAcxYfqwhZRHudlwIWoGpZPtEQLwO4rw
UNaY9545Q3kyNduYgI0yaX35K1whKnf00K+TaC2M09aLY+J3DizzprvePVeiplmO
RO9banfkvRXNoQaAoYZrdT5hhWtaTUrZHASKiD9iRUhn6/2mKSZEzrfxadhDcTlg
EIR1FhOkG9XhDO0z+V+bsU/sJlWEj2lmzV2nvK37zSIbnskhq1ODsBzlVumV17VN
lIbKnMwk5CTRx785Qg+fCUhFJNy0C4MrGGQAEyHgdgRdUNDDBR1I5uJE4fO26VvL
WMcjqCVgqiiVVhPz32WivWZZN0SWywdiw+cOFib/1SBbDauV2jOTch7m1QV5xvHB
DifRNCYgVHhPtObRNrEGClOPhqY9AsZvNq7fExB6si6ZPSGTViDYWJ0w40ZEsBVp
AgMBAAGjggFjMIIBXzAJBgNVHRMEAjAAMC0GCWCGSAGG+EIBDQQgFh5FYXN5LVJT
QSBHZW5lcmF0ZWQgQ2VydGlmaWNhdGUwHQYDVR0OBBYEFNjKk+zybspEXiwRKIiv
RChyT8dkMIHhBgNVHSMEgdkwgdaAFBLNYATSoICecO3Gmbh7LMZS/RmhoYGypIGv
MIGsMQswCQYDVQQGEwJVUzELMAkGA1UECBMCT0gxETAPBgNVBAcTCENvbHVtYnVz
MRIwEAYDVQQKEwlWaWtpbmdWUE4xHTAbBgNVBAsTFE15T3JnYW5pemF0aW9uYWxV
bml0MRUwEwYDVQQDEwxWaWtpbmdWUE4gQ0ExEDAOBgNVBCkTB0Vhc3lSU0ExITAf
BgkqhkiG9w0BCQEWEm1lQG15aG9zdC5teWRvbWFpboIJAM81he6Avyo+MBMGA1Ud
JQQMMAoGCCsGAQUFBwMCMAsGA1UdDwQEAwIHgDANBgkqhkiG9w0BAQsFAAOCAgEA
uRCFw93rSiVTqEMbpOuBb5trguPKKqkft9XaLKisbh1wnLkWz5ocqIoUkrv0aFOb
0L2gv0gOlELU6HsK54+imShoBSYOQYjTwalF8aQT+3hn74JqjQIYFdcYJDshCs0N
ZA1YD7SAcp7TW0ulArx/dN+Lvb7SfFQWZ5YLmxORykcBSVsmdGWl5aKAKhef62fV
lVfWDhvbbVbo38aOFSa59fe7tVJB3yt8ueSDuaKvttkHv9pkpUcsP1O5+9BRUte9
PAUHdZM7V4pVaEnQCleGIADV7IZq8p16zzr20qoUV9+TGD1NsrQyOolyuteo8mI0
mwJ7gpQBB9Vd2T+YXWJ3peKhAR3o3sGYpr/9dsFtrR+RGado47eyM6joSoBBxLzW
2fGgCCxvMjYEUBSBY8Ixmk+hyXlBbexj0SrN4OMMBTK0H5e3P4+HyvYy/RjhjBsQ
GjzcUIZe52gw8s73xnnypUByCK5RtDRFaKTGW6REcosNEiq6OkpPe45D+mKNpwi3
KTRoEk5YlIdgqpTyQgVfZmePAz4xv5P0ANpHCK1OoBrXgBwQtFfB7LriDvbZ0MJm
c/cMN6YUxqf8ACuqUSIYr79kDc/XcBsHMD/EP5+aJy7FlJ5Q7/NU3WmrSLd+Dqlk
JJ0Qw6fUUzTXDArfAYv+yAJ9kBmzm5ITkV0OZUI9D3k=
-----END CERTIFICATE-----
