Certificate:
    Data:
        Version: 3 (0x2)
        Serial Number: 8773 (0x2245)
    Signature Algorithm: sha256WithRSAEncryption
        Issuer: C=US, ST=OH, L=Columbus, O=VikingVPN, OU=MyOrganizationalUnit, CN=VikingVPN CA/name=EasyRSA/emailAddress=me@myhost.mydomain
        Validity
            Not Before: Aug 15 13:26:41 2016 GMT
            Not After : Aug 13 13:26:41 2026 GMT
        Subject: CN=Client2468Cert3db287
        Subject Public Key Info:
            Public Key Algorithm: rsaEncryption
                Public-Key: (4096 bit)
                Modulus:
                    00:da:b6:8f:3b:48:75:f6:84:b3:f1:be:2a:6a:58:
                    ef:35:a8:76:89:77:5e:fa:cc:76:7d:6b:6b:08:b8:
                    99:73:3f:55:61:56:f4:59:d9:4a:cb:18:d5:fc:ad:
                    3e:1b:a0:d2:91:7f:08:da:28:11:2b:bf:03:90:30:
                    0a:3f:b1:41:ec:6a:9a:3b:63:2e:87:69:b4:64:b9:
                    82:68:d0:d5:9f:bd:d1:0f:6f:aa:44:db:1f:3e:da:
                    38:05:06:c9:2a:08:0c:46:81:3f:d3:ea:0d:35:aa:
                    be:da:16:ef:48:c4:22:0f:57:98:37:1e:06:e5:dc:
                    be:b6:3e:b3:16:76:68:11:0a:49:8d:fd:1c:f5:b7:
                    15:7c:06:d2:11:37:95:ba:90:8f:84:d6:59:4f:1f:
                    3e:7f:23:e3:c8:a3:13:c5:f4:44:40:40:fe:9a:58:
                    cd:31:2d:2b:03:bf:5d:0e:f4:7c:8b:50:72:30:17:
                    62:6d:00:37:75:f4:88:5d:8b:ce:49:91:23:40:8e:
                    c0:ed:f5:65:f6:02:1f:a0:63:12:1b:43:ec:aa:8e:
                    92:ec:fa:55:38:4a:4c:9d:dc:1e:5d:cc:ad:68:c4:
                    97:3b:9e:a6:56:34:e4:85:ef:bf:dd:34:7d:d8:cc:
                    66:22:63:a7:89:8b:38:d7:5a:ed:34:a3:ec:c7:01:
                    45:14:ad:fa:9f:06:15:dc:d5:eb:d8:d4:ee:95:1d:
                    ba:fd:5b:11:9b:0d:bd:93:ed:73:88:9d:f0:3e:7e:
                    c3:2f:84:24:0e:f9:18:ae:cd:9b:93:57:72:c0:f9:
                    6c:19:60:4c:ce:0a:b8:ec:29:df:c7:f3:b0:9e:96:
                    1a:eb:8c:bc:11:c4:d9:b8:dd:ec:da:79:8f:24:d3:
                    a2:cd:14:96:7e:dd:c6:ca:ca:d5:0a:c4:ef:fb:32:
                    52:ec:de:c6:f4:b3:fc:f8:69:97:11:bb:31:4d:3d:
                    d1:51:20:63:19:96:c5:ac:50:34:6c:26:cb:a8:ae:
                    16:ca:b4:c9:3d:eb:03:e2:ed:42:cc:db:a1:b2:14:
                    d8:4f:d6:e2:ea:b3:99:a4:fa:ae:23:ea:b8:84:1e:
                    d2:9a:91:9a:11:ea:77:bf:2c:1e:41:26:e8:a9:3e:
                    0e:f2:02:e7:a7:69:90:18:77:c1:a4:42:89:42:cd:
                    49:cb:c8:ef:94:e3:d2:d5:2c:92:72:e1:0d:18:11:
                    92:9b:c4:b5:a6:64:75:f1:65:49:6f:ac:b8:47:8c:
                    56:e9:9b:a4:5f:26:f4:d0:b3:06:29:55:53:41:af:
                    b8:8a:b8:66:63:01:ef:65:78:4d:73:af:58:91:f5:
                    81:20:89:77:98:2a:32:92:0b:71:e1:5a:de:7d:cf:
                    d0:20:85
                Exponent: 65537 (0x10001)
        X509v3 extensions:
            X509v3 Basic Constraints: 
                CA:FALSE
            Netscape Comment: 
                Easy-RSA Generated Certificate
            X509v3 Subject Key Identifier: 
                43:17:D3:38:12:CF:6F:D9:9E:61:8D:E3:53:71:BE:9E:AD:74:76:60
            X509v3 Authority Key Identifier: 
                keyid:12:CD:60:04:D2:A0:80:9E:70:ED:C6:99:B8:7B:2C:C6:52:FD:19:A1
                DirName:/C=US/ST=OH/L=Columbus/O=VikingVPN/OU=MyOrganizationalUnit/CN=VikingVPN CA/name=EasyRSA/emailAddress=me@myhost.mydomain
                serial:CF:35:85:EE:80:BF:2A:3E

            X509v3 Extended Key Usage: 
                TLS Web Client Authentication
            X509v3 Key Usage: 
                Digital Signature
    Signature Algorithm: sha256WithRSAEncryption
         87:64:9c:0f:2b:e0:7e:fb:e9:e2:fc:8a:96:d1:2c:67:19:35:
         88:03:56:f8:ab:2d:13:25:9d:77:3f:27:d3:ee:0e:e2:c7:c3:
         96:c2:9a:57:f9:91:25:bb:7b:93:2a:40:af:b5:83:d3:37:c2:
         d1:0b:8b:92:70:b9:77:8b:ee:c1:e5:75:3a:84:47:c1:46:f8:
         6a:6d:46:8c:cd:f0:fc:d2:4b:41:dd:b7:99:08:4c:49:c7:ab:
         ea:54:65:ea:b0:8c:d3:aa:b7:2c:84:ff:d8:8b:ef:85:3c:aa:
         af:21:73:de:c4:d0:d7:c2:9f:c1:58:85:52:ef:ae:0f:18:70:
         aa:a2:55:76:98:95:93:c9:e8:f4:06:86:e2:6f:2a:ab:54:3c:
         85:c5:d3:76:bd:f3:c9:f7:a7:4a:1d:dc:22:7c:7f:33:54:4a:
         6e:77:7c:e6:e2:a4:e9:7d:ed:a3:bf:c1:74:79:dc:07:a8:50:
         7a:76:7d:5f:07:da:39:76:e1:1b:d7:38:49:c8:d4:fd:49:af:
         ae:3c:5e:92:1d:6b:df:08:92:c7:eb:1f:62:30:38:02:e2:94:
         6d:cc:97:20:77:f0:14:bb:40:88:79:ad:a1:ed:5d:3b:1c:1f:
         14:a4:60:86:3d:23:41:18:89:9b:0b:5d:5d:a7:8d:93:ad:ad:
         67:b9:1c:84:a0:9e:c5:9e:21:94:8f:47:f5:0b:46:88:24:cb:
         9d:d1:91:d8:17:3a:e5:9d:75:32:0d:75:64:8f:ae:66:3e:d8:
         ff:0d:9a:62:67:b5:32:be:c9:2b:99:8b:c3:5f:b9:4d:ec:b5:
         2a:d1:be:53:71:03:da:37:92:86:07:0c:b2:ae:44:de:f4:32:
         15:7c:c5:d8:fc:20:3a:3c:f9:e8:06:72:d4:40:82:6b:56:74:
         c1:07:39:52:f7:43:e6:02:09:5b:e5:2f:6f:9b:c8:f4:b6:4d:
         f0:bc:f3:e3:f6:62:1b:fb:97:26:23:18:2d:73:84:a9:79:f2:
         20:46:86:ad:b2:84:31:d3:22:a1:09:fc:dc:5a:b2:e2:ce:4d:
         54:4a:55:b9:39:00:15:73:d9:34:35:a0:fa:93:96:9d:b0:b3:
         1e:b5:39:9c:6d:fa:8e:5c:51:6f:fc:4d:be:85:d0:85:f7:e7:
         34:17:00:32:cc:c1:ca:7b:94:a2:6b:c9:00:88:3e:0d:2c:87:
         2a:12:0c:c0:6a:bd:88:78:87:de:07:8d:ef:e3:3b:68:68:09:
         ff:bb:5e:34:49:7e:25:47:5e:52:ed:b0:3d:5e:0d:e9:c5:ad:
         84:ab:ca:f7:37:2e:5a:12:98:55:28:e0:d6:26:83:ef:57:eb:
         65:34:e1:08:7f:7f:00:b3
-----BEGIN CERTIFICATE-----
MIIGrTCCBJWgAwIBAgICIkUwDQYJKoZIhvcNAQELBQAwgawxCzAJBgNVBAYTAlVT
MQswCQYDVQQIEwJPSDERMA8GA1UEBxMIQ29sdW1idXMxEjAQBgNVBAoTCVZpa2lu
Z1ZQTjEdMBsGA1UECxMUTXlPcmdhbml6YXRpb25hbFVuaXQxFTATBgNVBAMTDFZp
a2luZ1ZQTiBDQTEQMA4GA1UEKRMHRWFzeVJTQTEhMB8GCSqGSIb3DQEJARYSbWVA
bXlob3N0Lm15ZG9tYWluMB4XDTE2MDgxNTEzMjY0MVoXDTI2MDgxMzEzMjY0MVow
HzEdMBsGA1UEAxMUQ2xpZW50MjQ2OENlcnQzZGIyODcwggIiMA0GCSqGSIb3DQEB
AQUAA4ICDwAwggIKAoICAQDato87SHX2hLPxvipqWO81qHaJd176zHZ9a2sIuJlz
P1VhVvRZ2UrLGNX8rT4boNKRfwjaKBErvwOQMAo/sUHsapo7Yy6HabRkuYJo0NWf
vdEPb6pE2x8+2jgFBskqCAxGgT/T6g01qr7aFu9IxCIPV5g3Hgbl3L62PrMWdmgR
CkmN/Rz1txV8BtIRN5W6kI+E1llPHz5/I+PIoxPF9ERAQP6aWM0xLSsDv10O9HyL
UHIwF2JtADd19Ihdi85JkSNAjsDt9WX2Ah+gYxIbQ+yqjpLs+lU4Skyd3B5dzK1o
xJc7nqZWNOSF77/dNH3YzGYiY6eJizjXWu00o+zHAUUUrfqfBhXc1evY1O6VHbr9
WxGbDb2T7XOInfA+fsMvhCQO+RiuzZuTV3LA+WwZYEzOCrjsKd/H87CelhrrjLwR
xNm43ezaeY8k06LNFJZ+3cbKytUKxO/7MlLs3sb0s/z4aZcRuzFNPdFRIGMZlsWs
UDRsJsuorhbKtMk96wPi7ULM26GyFNhP1uLqs5mk+q4j6riEHtKakZoR6ne/LB5B
JuipPg7yAuenaZAYd8GkQolCzUnLyO+U49LVLJJy4Q0YEZKbxLWmZHXxZUlvrLhH
jFbpm6RfJvTQswYpVVNBr7iKuGZjAe9leE1zr1iR9YEgiXeYKjKSC3HhWt59z9Ag
hQIDAQABo4IBYzCCAV8wCQYDVR0TBAIwADAtBglghkgBhvhCAQ0EIBYeRWFzeS1S
U0EgR2VuZXJhdGVkIENlcnRpZmljYXRlMB0GA1UdDgQWBBRDF9M4Es9v2Z5hjeNT
cb6erXR2YDCB4QYDVR0jBIHZMIHWgBQSzWAE0qCAnnDtxpm4eyzGUv0ZoaGBsqSB
rzCBrDELMAkGA1UEBhMCVVMxCzAJBgNVBAgTAk9IMREwDwYDVQQHEwhDb2x1bWJ1
czESMBAGA1UEChMJVmlraW5nVlBOMR0wGwYDVQQLExRNeU9yZ2FuaXphdGlvbmFs
VW5pdDEVMBMGA1UEAxMMVmlraW5nVlBOIENBMRAwDgYDVQQpEwdFYXN5UlNBMSEw
HwYJKoZIhvcNAQkBFhJtZUBteWhvc3QubXlkb21haW6CCQDPNYXugL8qPjATBgNV
HSUEDDAKBggrBgEFBQcDAjALBgNVHQ8EBAMCB4AwDQYJKoZIhvcNAQELBQADggIB
AIdknA8r4H776eL8ipbRLGcZNYgDVvirLRMlnXc/J9PuDuLHw5bCmlf5kSW7e5Mq
QK+1g9M3wtELi5JwuXeL7sHldTqER8FG+GptRozN8PzSS0Hdt5kITEnHq+pUZeqw
jNOqtyyE/9iL74U8qq8hc97E0NfCn8FYhVLvrg8YcKqiVXaYlZPJ6PQGhuJvKqtU
PIXF03a988n3p0od3CJ8fzNUSm53fObipOl97aO/wXR53AeoUHp2fV8H2jl24RvX
OEnI1P1Jr648XpIda98IksfrH2IwOALilG3MlyB38BS7QIh5raHtXTscHxSkYIY9
I0EYiZsLXV2njZOtrWe5HISgnsWeIZSPR/ULRogky53RkdgXOuWddTINdWSPrmY+
2P8NmmJntTK+ySuZi8NfuU3stSrRvlNxA9o3koYHDLKuRN70MhV8xdj8IDo8+egG
ctRAgmtWdMEHOVL3Q+YCCVvlL2+byPS2TfC88+P2Yhv7lyYjGC1zhKl58iBGhq2y
hDHTIqEJ/NxasuLOTVRKVbk5ABVz2TQ1oPqTlp2wsx61OZxt+o5cUW/8Tb6F0IX3
5zQXADLMwcp7lKJryQCIPg0shyoSDMBqvYh4h94Hje/jO2hoCf+7XjRJfiVHXlLt
sD1eDenFrYSryvc3LloSmFUo4NYmg+9X62U04Qh/fwCz
-----END CERTIFICATE-----
