Certificate:
    Data:
        Version: 3 (0x2)
        Serial Number: 8805 (0x2265)
    Signature Algorithm: sha256WithRSAEncryption
        Issuer: C=US, ST=OH, L=Columbus, O=VikingVPN, OU=MyOrganizationalUnit, CN=VikingVPN CA/name=EasyRSA/emailAddress=me@myhost.mydomain
        Validity
            Not Before: Aug 15 14:40:14 2016 GMT
            Not After : Aug 13 14:40:14 2026 GMT
        Subject: CN=Client2225Certf4cefd
        Subject Public Key Info:
            Public Key Algorithm: rsaEncryption
                Public-Key: (4096 bit)
                Modulus:
                    00:d4:c5:36:a7:79:85:fc:16:b0:fe:b1:4f:a9:24:
                    13:cd:7a:b0:ce:c6:09:05:f9:e0:2a:2b:71:74:ae:
                    c5:33:05:b0:2a:fc:a5:74:0a:2a:b5:9d:3a:5f:81:
                    e4:1d:bf:cb:79:47:71:22:8d:5f:49:ce:75:60:73:
                    96:10:9b:5d:25:6a:91:a3:41:6f:17:78:26:f7:f1:
                    88:ac:62:3b:ab:ca:82:90:bb:d3:96:79:f2:d8:b8:
                    63:79:02:8f:49:e1:fd:9a:8d:dc:7e:59:6d:a5:64:
                    60:26:21:aa:e8:4c:ab:a0:46:7b:55:2f:24:0e:b2:
                    c1:28:39:e8:87:7f:ba:41:b7:9e:d5:8a:4a:76:85:
                    4b:80:a4:be:a1:44:b9:b0:cb:df:bf:cd:a5:dd:95:
                    31:f4:d0:67:4d:a1:a0:d4:c6:37:3c:40:6a:16:42:
                    0f:ee:9c:6f:51:e8:93:2f:b4:81:4c:97:ab:58:c9:
                    d1:0b:68:1f:d4:e5:e3:e5:fd:4d:ba:a9:04:9c:16:
                    cb:73:d0:e1:38:98:5d:8e:d3:3d:0b:81:29:fc:cf:
                    cd:e1:0c:29:3c:a6:53:20:f9:8b:2b:ac:4e:bb:ac:
                    47:92:67:3a:03:13:fc:b4:35:c5:6f:ec:9b:07:a5:
                    fb:80:d5:ce:c0:72:69:59:ca:09:11:b6:c0:6a:cc:
                    6e:8e:75:22:14:38:da:9c:25:29:40:ee:e2:16:85:
                    aa:38:8b:c2:c2:05:b4:24:95:c7:c5:b7:7e:5d:f8:
                    26:b3:cf:49:b2:7b:7f:bf:a7:a4:4d:16:ad:6f:06:
                    a3:c7:1f:6a:ab:ab:7b:fb:1a:82:4d:94:53:d9:54:
                    ad:83:6b:d2:b2:b7:b6:f1:73:e0:bc:d0:2c:db:6c:
                    42:41:b3:48:a8:7c:5d:1c:8c:c2:af:30:25:68:67:
                    31:4d:d2:51:b8:5d:2b:85:75:b9:a4:c7:e7:c6:57:
                    8f:4b:e3:e4:17:c8:71:c6:bb:21:7a:20:4e:ba:c8:
                    da:d1:90:55:83:9c:62:34:c9:71:dc:e3:9c:cb:af:
                    52:5e:ec:52:18:a4:9c:48:d1:4f:69:83:ae:f8:3a:
                    70:e0:f2:64:c8:ca:7b:d6:01:33:ab:ec:c6:42:ad:
                    f5:a1:98:7c:82:f9:5d:10:1a:9a:ef:a7:4e:29:4a:
                    8a:b4:82:45:19:7e:c1:b1:c8:b9:e3:95:60:cb:c5:
                    ce:44:12:d5:d6:9b:a7:2f:fa:16:ba:7c:d9:1a:7f:
                    74:ea:92:21:2a:0d:2e:13:a0:cb:a8:79:c4:85:8f:
                    ed:c7:ce:77:cb:ab:94:e6:72:99:15:52:0c:9d:e6:
                    73:07:8f:61:0c:d4:5c:ae:fb:fa:8e:23:46:a7:ff:
                    ab:d5:69
                Exponent: 65537 (0x10001)
        X509v3 extensions:
            X509v3 Basic Constraints: 
                CA:FALSE
            Netscape Comment: 
                Easy-RSA Generated Certificate
            X509v3 Subject Key Identifier: 
                BD:BE:FD:78:A0:C0:11:2A:BB:61:4B:89:F7:0C:75:D0:DB:B3:BE:4C
            X509v3 Authority Key Identifier: 
                keyid:12:CD:60:04:D2:A0:80:9E:70:ED:C6:99:B8:7B:2C:C6:52:FD:19:A1
                DirName:/C=US/ST=OH/L=Columbus/O=VikingVPN/OU=MyOrganizationalUnit/CN=VikingVPN CA/name=EasyRSA/emailAddress=me@myhost.mydomain
                serial:CF:35:85:EE:80:BF:2A:3E

            X509v3 Extended Key Usage: 
                TLS Web Client Authentication
            X509v3 Key Usage: 
                Digital Signature
    Signature Algorithm: sha256WithRSAEncryption
         15:f7:9f:a3:b3:62:58:68:ac:91:4b:4d:62:66:66:74:c9:b8:
         87:b0:05:8d:62:ae:f0:41:2a:1f:36:3f:77:2a:9f:ae:33:62:
         6c:a4:ca:d0:27:8c:d3:b3:87:ca:8e:4a:92:3a:2e:da:54:0c:
         06:9c:dd:ce:5d:1a:5f:74:af:cd:99:69:1a:1e:8d:e1:fb:89:
         ab:50:0d:7e:9f:45:1b:86:f1:29:83:4b:8a:a0:aa:75:ad:ba:
         e1:f3:3d:6e:c7:c2:40:68:7b:99:a1:f6:63:c1:24:90:45:1f:
         5e:19:a9:90:1a:34:3a:b5:38:d8:ec:6e:9c:86:21:cc:ec:f6:
         72:7b:9a:55:9e:df:d5:9f:a5:50:a9:db:fe:99:ed:33:c3:53:
         a3:94:62:9d:82:c6:ee:42:be:ce:22:27:6b:ed:07:21:db:99:
         68:eb:e3:62:17:b1:03:01:08:b8:8e:16:40:46:dc:90:70:4e:
         15:72:a6:0a:48:f0:e1:5d:e6:36:25:77:21:cb:de:1c:b8:2d:
         5d:b4:8e:dd:c9:36:27:53:48:ef:39:58:31:03:41:97:f0:7b:
         83:74:20:4a:35:6b:ed:26:84:97:73:97:19:f4:93:f3:be:c1:
         30:7e:a9:fc:f5:a8:ef:2e:4b:fc:fa:d6:32:d7:cf:b9:10:4b:
         68:c0:cc:01:f8:a4:85:45:68:e3:15:b9:a8:d8:18:d9:f6:71:
         7f:7c:8c:04:82:09:c0:1e:6f:91:74:85:b7:28:a4:cf:9b:1a:
         2b:00:a9:6d:ec:17:ca:d3:97:ed:86:50:e7:9c:6e:a6:8b:c9:
         7d:1f:fa:f8:1f:d4:ed:98:7e:e9:2e:e2:17:59:ea:58:84:52:
         b5:f2:90:99:09:40:5c:0f:63:34:57:93:69:ae:d0:63:59:9d:
         8b:a2:85:27:cd:ce:7d:35:41:bc:5c:99:2d:ec:2d:c0:47:54:
         10:68:4d:5a:7b:7e:7f:63:76:76:cd:1d:64:de:a8:45:18:0d:
         f5:f4:f7:53:36:66:06:52:4c:24:c8:b0:8a:bd:c4:4a:c0:d5:
         29:1f:68:a8:dd:39:34:b1:c6:57:1e:0f:eb:de:f4:33:bd:3c:
         3b:4b:59:e2:9c:24:36:10:62:4c:e6:cc:ac:46:cb:31:54:e4:
         8c:91:87:7f:11:1b:4a:f4:fd:7f:09:f9:d8:72:63:ee:df:02:
         ec:24:5a:8e:b9:2e:b8:39:cc:fa:76:5c:c1:47:bc:b3:3b:aa:
         68:e7:24:bc:42:88:03:44:6e:08:96:eb:95:3c:bb:5d:d7:79:
         f4:da:25:e1:ca:ac:21:7a:fd:03:73:b6:80:22:f7:b7:d7:22:
         e8:ac:d8:0d:c2:7e:19:bb
-----BEGIN CERTIFICATE-----
MIIGrTCCBJWgAwIBAgICImUwDQYJKoZIhvcNAQELBQAwgawxCzAJBgNVBAYTAlVT
MQswCQYDVQQIEwJPSDERMA8GA1UEBxMIQ29sdW1idXMxEjAQBgNVBAoTCVZpa2lu
Z1ZQTjEdMBsGA1UECxMUTXlPcmdhbml6YXRpb25hbFVuaXQxFTATBgNVBAMTDFZp
a2luZ1ZQTiBDQTEQMA4GA1UEKRMHRWFzeVJTQTEhMB8GCSqGSIb3DQEJARYSbWVA
bXlob3N0Lm15ZG9tYWluMB4XDTE2MDgxNTE0NDAxNFoXDTI2MDgxMzE0NDAxNFow
HzEdMBsGA1UEAxMUQ2xpZW50MjIyNUNlcnRmNGNlZmQwggIiMA0GCSqGSIb3DQEB
AQUAA4ICDwAwggIKAoICAQDUxTaneYX8FrD+sU+pJBPNerDOxgkF+eAqK3F0rsUz
BbAq/KV0Ciq1nTpfgeQdv8t5R3EijV9JznVgc5YQm10lapGjQW8XeCb38YisYjur
yoKQu9OWefLYuGN5Ao9J4f2ajdx+WW2lZGAmIaroTKugRntVLyQOssEoOeiHf7pB
t57Vikp2hUuApL6hRLmwy9+/zaXdlTH00GdNoaDUxjc8QGoWQg/unG9R6JMvtIFM
l6tYydELaB/U5ePl/U26qQScFstz0OE4mF2O0z0LgSn8z83hDCk8plMg+YsrrE67
rEeSZzoDE/y0NcVv7JsHpfuA1c7AcmlZygkRtsBqzG6OdSIUONqcJSlA7uIWhao4
i8LCBbQklcfFt35d+Cazz0mye3+/p6RNFq1vBqPHH2qrq3v7GoJNlFPZVK2Da9Ky
t7bxc+C80CzbbEJBs0iofF0cjMKvMCVoZzFN0lG4XSuFdbmkx+fGV49L4+QXyHHG
uyF6IE66yNrRkFWDnGI0yXHc45zLr1Je7FIYpJxI0U9pg674OnDg8mTIynvWATOr
7MZCrfWhmHyC+V0QGprvp04pSoq0gkUZfsGxyLnjlWDLxc5EEtXWm6cv+ha6fNka
f3TqkiEqDS4ToMuoecSFj+3HznfLq5TmcpkVUgyd5nMHj2EM1Fyu+/qOI0an/6vV
aQIDAQABo4IBYzCCAV8wCQYDVR0TBAIwADAtBglghkgBhvhCAQ0EIBYeRWFzeS1S
U0EgR2VuZXJhdGVkIENlcnRpZmljYXRlMB0GA1UdDgQWBBS9vv14oMARKrthS4n3
DHXQ27O+TDCB4QYDVR0jBIHZMIHWgBQSzWAE0qCAnnDtxpm4eyzGUv0ZoaGBsqSB
rzCBrDELMAkGA1UEBhMCVVMxCzAJBgNVBAgTAk9IMREwDwYDVQQHEwhDb2x1bWJ1
czESMBAGA1UEChMJVmlraW5nVlBOMR0wGwYDVQQLExRNeU9yZ2FuaXphdGlvbmFs
VW5pdDEVMBMGA1UEAxMMVmlraW5nVlBOIENBMRAwDgYDVQQpEwdFYXN5UlNBMSEw
HwYJKoZIhvcNAQkBFhJtZUBteWhvc3QubXlkb21haW6CCQDPNYXugL8qPjATBgNV
HSUEDDAKBggrBgEFBQcDAjALBgNVHQ8EBAMCB4AwDQYJKoZIhvcNAQELBQADggIB
ABX3n6OzYlhorJFLTWJmZnTJuIewBY1irvBBKh82P3cqn64zYmykytAnjNOzh8qO
SpI6LtpUDAac3c5dGl90r82ZaRoejeH7iatQDX6fRRuG8SmDS4qgqnWtuuHzPW7H
wkBoe5mh9mPBJJBFH14ZqZAaNDq1ONjsbpyGIczs9nJ7mlWe39WfpVCp2/6Z7TPD
U6OUYp2Cxu5Cvs4iJ2vtByHbmWjr42IXsQMBCLiOFkBG3JBwThVypgpI8OFd5jYl
dyHL3hy4LV20jt3JNidTSO85WDEDQZfwe4N0IEo1a+0mhJdzlxn0k/O+wTB+qfz1
qO8uS/z61jLXz7kQS2jAzAH4pIVFaOMVuajYGNn2cX98jASCCcAeb5F0hbcopM+b
GisAqW3sF8rTl+2GUOecbqaLyX0f+vgf1O2Yfuku4hdZ6liEUrXykJkJQFwPYzRX
k2mu0GNZnYuihSfNzn01QbxcmS3sLcBHVBBoTVp7fn9jdnbNHWTeqEUYDfX091M2
ZgZSTCTIsIq9xErA1SkfaKjdOTSxxlceD+ve9DO9PDtLWeKcJDYQYkzmzKxGyzFU
5IyRh38RG0r0/X8J+dhyY+7fAuwkWo65Lrg5zPp2XMFHvLM7qmjnJLxCiANEbgiW
65U8u13XefTaJeHKrCF6/QNztoAi97fXIuis2A3Cfhm7
-----END CERTIFICATE-----
