Certificate:
    Data:
        Version: 3 (0x2)
        Serial Number: 8808 (0x2268)
    Signature Algorithm: sha256WithRSAEncryption
        Issuer: C=US, ST=OH, L=Columbus, O=VikingVPN, OU=MyOrganizationalUnit, CN=VikingVPN CA/name=EasyRSA/emailAddress=me@myhost.mydomain
        Validity
            Not Before: Aug 15 19:28:24 2016 GMT
            Not After : Aug 13 19:28:24 2026 GMT
        Subject: CN=Client2470Certd6f0cf
        Subject Public Key Info:
            Public Key Algorithm: rsaEncryption
                Public-Key: (4096 bit)
                Modulus:
                    00:d8:f6:d5:5e:37:cf:21:f2:b3:fe:ec:04:e4:b5:
                    be:c9:b6:68:cc:7a:fc:e4:be:0a:d5:0e:25:a4:74:
                    83:1c:64:3f:7f:20:34:89:19:cc:de:4b:46:29:34:
                    16:74:a1:92:75:8f:7e:90:53:ca:1e:e3:cf:a9:7d:
                    c1:45:02:28:f1:83:f8:69:a8:47:12:5d:bf:6e:03:
                    4e:04:33:91:d1:da:6f:6e:a5:b6:fb:f3:39:1d:fa:
                    84:37:8b:ce:9d:9b:8d:fd:14:c9:d9:d7:5e:26:9a:
                    b5:b7:c7:6a:11:24:e5:d1:22:26:bc:4b:8e:a6:ce:
                    05:09:3e:b4:e2:d2:53:c9:b5:39:c3:b7:14:62:f8:
                    7b:2d:50:a0:a2:91:3b:06:0f:e0:d5:fa:46:6d:c8:
                    1a:da:33:44:d2:45:60:08:5a:72:41:7b:bd:e8:b3:
                    d8:48:0b:cf:90:68:e4:ef:d9:86:ee:c3:ec:d7:d6:
                    27:e4:d6:d6:51:cd:85:6d:5e:ce:03:ab:22:3a:52:
                    9c:e9:81:fa:85:a7:3f:b1:6f:cd:ae:f0:c2:31:9c:
                    fe:72:eb:58:48:f0:e1:82:b7:97:db:9c:44:9d:6f:
                    e1:5b:1e:db:6e:79:7f:db:1c:17:12:67:54:8a:43:
                    3f:3b:ab:4c:9e:5a:4e:0e:f3:c4:42:c0:ef:3b:1a:
                    65:42:27:a6:82:90:ac:5f:a5:e4:a6:84:dd:e8:c6:
                    fe:5d:da:a6:2f:fd:8b:39:86:15:55:38:5e:56:22:
                    e6:3c:a0:3f:f6:63:80:77:4a:8b:85:88:c4:13:9a:
                    55:38:b4:ba:6e:ce:42:ec:6c:7f:b2:8e:26:8c:ec:
                    e5:00:bb:22:5a:e5:30:05:14:22:19:d6:56:56:36:
                    b8:fa:6c:14:0f:67:0b:e7:73:b9:c6:6f:f1:9d:0d:
                    f4:7a:80:84:c4:c5:91:5f:e2:82:92:e3:e4:88:d5:
                    fd:7e:c5:90:9a:a7:37:63:42:43:36:6b:28:14:7a:
                    14:64:74:b6:4d:67:31:7a:04:d4:fb:f7:db:76:6b:
                    8f:f1:f9:b4:45:c2:1f:e4:56:3f:79:ac:62:3a:85:
                    7b:88:b1:f2:93:89:18:82:93:ed:e9:b5:07:6f:34:
                    1a:75:e0:41:2a:06:7f:6c:97:33:8d:ed:01:4e:b7:
                    9e:58:3c:bb:f8:61:37:05:8d:db:b3:45:cf:f3:f3:
                    44:d8:83:8c:99:4c:f6:42:60:93:e4:7e:81:6d:c6:
                    de:61:08:9d:4a:cf:23:75:42:24:f4:8e:83:b9:d3:
                    17:0f:b1:a1:d6:5e:86:23:c7:a3:df:53:09:9a:65:
                    57:d9:9f:61:24:25:0b:e3:ee:d6:4c:92:f8:8c:5c:
                    bc:b2:73
                Exponent: 65537 (0x10001)
        X509v3 extensions:
            X509v3 Basic Constraints: 
                CA:FALSE
            Netscape Comment: 
                Easy-RSA Generated Certificate
            X509v3 Subject Key Identifier: 
                DB:BC:93:11:BF:42:A0:79:22:75:67:85:78:72:CC:7C:E1:38:25:08
            X509v3 Authority Key Identifier: 
                keyid:12:CD:60:04:D2:A0:80:9E:70:ED:C6:99:B8:7B:2C:C6:52:FD:19:A1
                DirName:/C=US/ST=OH/L=Columbus/O=VikingVPN/OU=MyOrganizationalUnit/CN=VikingVPN CA/name=EasyRSA/emailAddress=me@myhost.mydomain
                serial:CF:35:85:EE:80:BF:2A:3E

            X509v3 Extended Key Usage: 
                TLS Web Client Authentication
            X509v3 Key Usage: 
                Digital Signature
    Signature Algorithm: sha256WithRSAEncryption
         31:a7:23:c8:cd:c8:62:af:fe:90:a6:eb:48:5f:f0:ca:ed:5d:
         7d:b1:f4:90:91:bb:28:e9:9f:bb:17:1c:c1:31:65:3e:aa:fd:
         65:a6:ad:1c:40:25:45:46:5c:92:d9:60:eb:57:c3:c5:23:a8:
         d6:80:66:b4:ca:1e:fd:12:98:8f:66:0b:26:8d:15:3d:63:fb:
         14:46:e8:74:32:c9:ea:fc:f6:77:3c:6b:6c:51:3f:35:f1:d4:
         de:cd:69:89:8f:d1:22:89:55:ed:22:25:13:79:e2:76:8c:32:
         0b:05:c0:69:93:16:80:8c:f9:7b:7d:74:41:95:b6:6d:74:c2:
         97:6d:c8:ad:e7:4c:62:b0:ca:f9:c3:60:dd:20:ef:a7:11:0b:
         6b:3d:7f:38:c6:3b:49:24:62:68:88:f8:77:fa:55:b0:90:33:
         ca:6c:72:a6:02:bc:d5:2a:76:a0:b2:c7:81:1d:ed:b6:cd:f1:
         d9:3f:98:90:df:9e:79:d3:a4:73:cb:10:60:0a:17:5f:40:63:
         f2:7a:11:9a:48:7f:2e:fc:82:95:7e:ac:bd:32:a1:46:aa:e9:
         21:fe:1b:60:a7:cd:ac:b6:79:4c:6f:e8:6d:76:e4:59:fa:36:
         d8:f3:57:35:76:51:a9:65:41:88:86:14:0c:df:46:20:7e:7a:
         05:41:49:7e:8c:08:a5:5e:33:bd:1b:6f:e0:37:c9:ab:61:45:
         05:99:e1:b9:65:04:87:5d:41:d2:1a:e9:6a:a6:87:e6:1d:c3:
         7e:48:67:5a:c1:5f:75:6f:9a:74:fb:e5:b6:74:d5:f3:f5:d0:
         66:13:f7:a6:53:99:40:f5:60:1e:16:b2:f5:df:38:ba:8e:2a:
         b9:ce:eb:df:8f:f9:a5:d0:21:1e:97:89:2c:f0:16:62:06:95:
         ac:60:2e:a7:68:9d:6b:57:b4:e5:9a:d8:db:29:84:ec:a0:d9:
         86:c7:c1:84:ac:3b:34:c5:7e:88:71:a1:93:73:6f:8a:1c:95:
         ed:d9:6f:3d:15:68:e7:d0:80:54:73:96:43:16:bd:50:94:ac:
         59:63:b1:d4:64:b4:a2:68:f1:60:c6:bf:34:82:79:6c:7a:46:
         30:ef:95:59:d1:34:e0:b3:ef:1e:dc:10:bb:0b:03:20:6c:32:
         26:4e:c5:f0:e2:aa:1b:c0:58:09:e5:19:a8:ad:a2:b1:e4:48:
         c7:2b:ed:93:18:f7:db:d0:b5:69:33:cd:60:a7:52:8e:69:fc:
         61:88:69:1e:a2:c4:35:07:1d:47:0f:8a:80:01:d1:75:49:2d:
         c9:d6:54:b7:11:6a:a5:88:cc:a4:8e:0a:07:04:41:4c:e6:c0:
         af:a7:74:65:e5:18:ac:35
-----BEGIN CERTIFICATE-----
MIIGrTCCBJWgAwIBAgICImgwDQYJKoZIhvcNAQELBQAwgawxCzAJBgNVBAYTAlVT
MQswCQYDVQQIEwJPSDERMA8GA1UEBxMIQ29sdW1idXMxEjAQBgNVBAoTCVZpa2lu
Z1ZQTjEdMBsGA1UECxMUTXlPcmdhbml6YXRpb25hbFVuaXQxFTATBgNVBAMTDFZp
a2luZ1ZQTiBDQTEQMA4GA1UEKRMHRWFzeVJTQTEhMB8GCSqGSIb3DQEJARYSbWVA
bXlob3N0Lm15ZG9tYWluMB4XDTE2MDgxNTE5MjgyNFoXDTI2MDgxMzE5MjgyNFow
HzEdMBsGA1UEAxMUQ2xpZW50MjQ3MENlcnRkNmYwY2YwggIiMA0GCSqGSIb3DQEB
AQUAA4ICDwAwggIKAoICAQDY9tVeN88h8rP+7ATktb7JtmjMevzkvgrVDiWkdIMc
ZD9/IDSJGczeS0YpNBZ0oZJ1j36QU8oe48+pfcFFAijxg/hpqEcSXb9uA04EM5HR
2m9upbb78zkd+oQ3i86dm439FMnZ114mmrW3x2oRJOXRIia8S46mzgUJPrTi0lPJ
tTnDtxRi+HstUKCikTsGD+DV+kZtyBraM0TSRWAIWnJBe73os9hIC8+QaOTv2Ybu
w+zX1ifk1tZRzYVtXs4DqyI6UpzpgfqFpz+xb82u8MIxnP5y61hI8OGCt5fbnESd
b+FbHttueX/bHBcSZ1SKQz87q0yeWk4O88RCwO87GmVCJ6aCkKxfpeSmhN3oxv5d
2qYv/Ys5hhVVOF5WIuY8oD/2Y4B3SouFiMQTmlU4tLpuzkLsbH+yjiaM7OUAuyJa
5TAFFCIZ1lZWNrj6bBQPZwvnc7nGb/GdDfR6gITExZFf4oKS4+SI1f1+xZCapzdj
QkM2aygUehRkdLZNZzF6BNT799t2a4/x+bRFwh/kVj95rGI6hXuIsfKTiRiCk+3p
tQdvNBp14EEqBn9slzON7QFOt55YPLv4YTcFjduzRc/z80TYg4yZTPZCYJPkfoFt
xt5hCJ1KzyN1QiT0joO50xcPsaHWXoYjx6PfUwmaZVfZn2EkJQvj7tZMkviMXLyy
cwIDAQABo4IBYzCCAV8wCQYDVR0TBAIwADAtBglghkgBhvhCAQ0EIBYeRWFzeS1S
U0EgR2VuZXJhdGVkIENlcnRpZmljYXRlMB0GA1UdDgQWBBTbvJMRv0KgeSJ1Z4V4
csx84TglCDCB4QYDVR0jBIHZMIHWgBQSzWAE0qCAnnDtxpm4eyzGUv0ZoaGBsqSB
rzCBrDELMAkGA1UEBhMCVVMxCzAJBgNVBAgTAk9IMREwDwYDVQQHEwhDb2x1bWJ1
czESMBAGA1UEChMJVmlraW5nVlBOMR0wGwYDVQQLExRNeU9yZ2FuaXphdGlvbmFs
VW5pdDEVMBMGA1UEAxMMVmlraW5nVlBOIENBMRAwDgYDVQQpEwdFYXN5UlNBMSEw
HwYJKoZIhvcNAQkBFhJtZUBteWhvc3QubXlkb21haW6CCQDPNYXugL8qPjATBgNV
HSUEDDAKBggrBgEFBQcDAjALBgNVHQ8EBAMCB4AwDQYJKoZIhvcNAQELBQADggIB
ADGnI8jNyGKv/pCm60hf8MrtXX2x9JCRuyjpn7sXHMExZT6q/WWmrRxAJUVGXJLZ
YOtXw8UjqNaAZrTKHv0SmI9mCyaNFT1j+xRG6HQyyer89nc8a2xRPzXx1N7NaYmP
0SKJVe0iJRN54naMMgsFwGmTFoCM+Xt9dEGVtm10wpdtyK3nTGKwyvnDYN0g76cR
C2s9fzjGO0kkYmiI+Hf6VbCQM8pscqYCvNUqdqCyx4Ed7bbN8dk/mJDfnnnTpHPL
EGAKF19AY/J6EZpIfy78gpV+rL0yoUaq6SH+G2Cnzay2eUxv6G125Fn6NtjzVzV2
UallQYiGFAzfRiB+egVBSX6MCKVeM70bb+A3yathRQWZ4bllBIddQdIa6Wqmh+Yd
w35IZ1rBX3VvmnT75bZ01fP10GYT96ZTmUD1YB4WsvXfOLqOKrnO69+P+aXQIR6X
iSzwFmIGlaxgLqdonWtXtOWa2NsphOyg2YbHwYSsOzTFfohxoZNzb4ocle3Zbz0V
aOfQgFRzlkMWvVCUrFljsdRktKJo8WDGvzSCeWx6RjDvlVnRNOCz7x7cELsLAyBs
MiZOxfDiqhvAWAnlGaitorHkSMcr7ZMY99vQtWkzzWCnUo5p/GGIaR6ixDUHHUcP
ioAB0XVJLcnWVLcRaqWIzKSOCgcEQUzmwK+ndGXlGKw1
-----END CERTIFICATE-----
