Certificate:
    Data:
        Version: 3 (0x2)
        Serial Number: 8837 (0x2285)
    Signature Algorithm: sha256WithRSAEncryption
        Issuer: C=US, ST=OH, L=Columbus, O=VikingVPN, OU=MyOrganizationalUnit, CN=VikingVPN CA/name=EasyRSA/emailAddress=me@myhost.mydomain
        Validity
            Not Before: Aug 18 14:55:26 2016 GMT
            Not After : Aug 16 14:55:26 2026 GMT
        Subject: CN=Client2466Certb073a6
        Subject Public Key Info:
            Public Key Algorithm: rsaEncryption
                Public-Key: (4096 bit)
                Modulus:
                    00:bc:7c:5a:bf:3c:2b:2d:e5:38:83:c6:ec:67:0a:
                    32:95:3b:da:f5:1a:17:1e:27:46:8f:59:78:c7:d8:
                    11:b7:ad:7a:21:d8:e9:09:23:60:04:0a:10:23:91:
                    93:0d:7f:ff:85:f2:7a:f0:35:96:11:67:a8:c9:d6:
                    f6:a3:a0:86:51:ea:9c:77:6e:98:3b:79:bb:84:40:
                    3f:2b:12:65:0c:8c:7e:ef:c9:de:bc:13:c5:a7:0b:
                    31:09:18:b9:10:68:e4:9e:8f:f8:01:1b:19:96:12:
                    5e:34:d1:6c:1a:46:53:ce:8a:d2:49:e4:f8:45:67:
                    65:fb:db:44:72:2a:60:3e:6b:41:bf:55:72:97:1c:
                    7f:fe:1a:06:e0:8b:7c:c9:65:1e:ca:8a:4d:33:b7:
                    12:aa:2a:78:29:6c:30:4b:60:fb:fd:8a:73:63:3c:
                    68:f7:48:32:9a:15:9f:1e:87:ef:23:f4:35:0a:91:
                    00:91:e5:17:b3:1c:2e:e2:48:a1:7e:98:46:9c:1e:
                    20:48:c4:5a:59:20:af:a5:52:e4:a5:55:e9:ce:51:
                    ef:7a:d2:92:83:9c:c0:4b:19:12:74:f5:f3:9c:a8:
                    88:23:bf:8b:2d:79:3a:1a:a8:84:2d:7f:68:d1:87:
                    39:f9:b6:6f:cc:dc:26:c9:24:95:09:2e:49:91:e8:
                    fe:2f:dc:34:2d:a1:8c:1b:20:15:73:03:2c:c6:1f:
                    99:7b:b4:6b:e2:bd:b1:cf:20:13:13:0b:b3:2d:ab:
                    95:6d:fa:0d:b1:63:3e:01:f9:59:3e:64:2d:57:8b:
                    84:37:57:22:75:1a:98:d8:39:63:a0:ea:1b:10:92:
                    4f:26:77:80:e9:39:fd:03:80:f1:89:c7:6c:eb:d0:
                    55:83:b8:b3:04:3f:84:bb:fa:7a:4e:8f:9d:65:f6:
                    b9:2f:16:d2:28:fa:6c:cf:fc:a9:9e:db:60:1a:4d:
                    73:5e:71:66:a6:37:4a:9e:6c:9f:42:b9:74:3d:28:
                    66:16:74:a3:cc:df:f3:4c:72:9e:5d:10:94:37:01:
                    16:2e:48:f7:ac:14:d9:50:dc:e7:21:08:ea:49:a7:
                    d1:56:a9:fe:e3:b1:6c:9c:43:3f:bc:e0:e3:8b:af:
                    dd:e8:9e:f3:49:c7:8b:51:00:43:85:cb:31:82:05:
                    8d:e6:34:74:31:24:8c:f1:4a:56:e1:a1:74:67:e3:
                    5c:d3:2a:74:57:65:fb:ab:67:53:03:d9:f0:ad:15:
                    5e:10:98:dc:2c:94:11:83:fe:52:31:b8:e1:38:4f:
                    85:f7:06:fd:86:3e:0f:1a:4c:6f:e5:f1:e9:07:84:
                    3a:8c:10:96:53:bd:e4:77:df:9f:68:b6:eb:5a:2b:
                    f2:8a:4b
                Exponent: 65537 (0x10001)
        X509v3 extensions:
            X509v3 Basic Constraints: 
                CA:FALSE
            Netscape Comment: 
                Easy-RSA Generated Certificate
            X509v3 Subject Key Identifier: 
                FE:53:CD:31:9B:16:A0:81:7E:1D:3E:1A:C4:0E:46:5C:8B:72:EF:12
            X509v3 Authority Key Identifier: 
                keyid:12:CD:60:04:D2:A0:80:9E:70:ED:C6:99:B8:7B:2C:C6:52:FD:19:A1
                DirName:/C=US/ST=OH/L=Columbus/O=VikingVPN/OU=MyOrganizationalUnit/CN=VikingVPN CA/name=EasyRSA/emailAddress=me@myhost.mydomain
                serial:CF:35:85:EE:80:BF:2A:3E

            X509v3 Extended Key Usage: 
                TLS Web Client Authentication
            X509v3 Key Usage: 
                Digital Signature
    Signature Algorithm: sha256WithRSAEncryption
         d5:18:ab:44:ea:93:c6:3a:b7:b5:ce:df:2a:40:d6:65:f6:de:
         74:76:d7:37:60:53:90:0c:d7:f5:3f:87:b9:5e:89:54:93:92:
         59:90:ad:c9:1f:63:54:59:a8:56:90:62:6a:e9:b2:b8:45:36:
         70:37:72:d2:a3:56:68:66:7b:9a:32:0c:99:c0:bf:b4:e0:f7:
         1b:fa:9a:b1:a8:fa:0b:d5:5f:51:62:1b:d9:b5:86:eb:83:c1:
         f9:93:66:bb:07:94:77:8a:19:15:51:a1:2e:1d:3b:e4:62:ee:
         8b:45:91:08:68:56:54:43:e0:06:17:fb:a5:c0:99:46:f2:ea:
         c0:e7:66:7d:1c:67:f9:0b:a8:d1:df:e0:b5:bc:59:32:cf:11:
         a3:d2:d1:ea:68:11:7e:49:10:eb:4e:87:7f:e5:3d:f5:22:3c:
         04:45:d8:60:62:82:f4:8a:27:b3:6f:d7:4b:23:5f:0e:6c:69:
         9a:9a:39:85:b7:eb:1d:76:14:a1:20:60:88:12:eb:0f:81:7b:
         25:fe:4d:84:fb:32:8f:72:3b:5c:7f:3c:2e:0b:1e:1e:5f:d3:
         d5:e8:db:bf:2e:fe:dd:0a:b2:48:d1:29:8b:f8:b6:c7:e3:ae:
         8b:ec:92:c8:85:b0:77:62:f1:bd:1d:a6:1d:79:c2:f3:f9:6a:
         4b:d4:8d:98:61:1e:4c:02:d8:be:dc:35:0a:3b:41:74:0b:79:
         32:75:b5:0e:fd:c3:52:ae:be:b9:a7:7d:df:92:d1:1e:1a:59:
         7c:b5:b4:43:fa:9d:7d:dc:cf:15:49:68:2c:20:27:94:08:74:
         d2:45:6f:ef:a6:60:48:1b:6b:7b:aa:67:de:f4:b4:10:39:af:
         bf:bf:7f:b4:5b:c1:ab:1a:00:3d:1f:81:9d:c2:ab:5b:ca:8f:
         0f:4d:2b:f8:ad:19:97:c0:89:07:f7:21:a8:91:bd:a6:ae:22:
         5e:5e:71:09:39:fd:84:74:16:07:ff:3a:b6:08:04:a7:a5:55:
         69:99:44:91:c2:52:92:c5:de:d9:fc:08:83:7b:5a:f0:16:08:
         83:35:af:47:97:a3:67:d6:0a:6c:90:f4:a8:1f:53:45:2b:c0:
         d3:f8:69:fe:96:f1:4b:e2:a3:e0:78:20:ac:06:14:e4:c2:b1:
         bc:1a:11:bd:40:50:15:fb:06:a8:27:79:ca:21:cb:34:0d:5e:
         0f:b0:ce:1e:4e:c1:86:07:5b:80:3d:d6:cb:66:da:e0:ac:f7:
         c5:bd:c5:6f:6a:b1:91:c0:0b:f6:27:c6:7e:ee:09:20:fd:b4:
         fe:0e:14:8c:a1:82:1d:8e:e7:fe:b1:24:02:82:53:4b:31:9e:
         45:e6:76:60:83:f4:4b:7f
-----BEGIN CERTIFICATE-----
MIIGrTCCBJWgAwIBAgICIoUwDQYJKoZIhvcNAQELBQAwgawxCzAJBgNVBAYTAlVT
MQswCQYDVQQIEwJPSDERMA8GA1UEBxMIQ29sdW1idXMxEjAQBgNVBAoTCVZpa2lu
Z1ZQTjEdMBsGA1UECxMUTXlPcmdhbml6YXRpb25hbFVuaXQxFTATBgNVBAMTDFZp
a2luZ1ZQTiBDQTEQMA4GA1UEKRMHRWFzeVJTQTEhMB8GCSqGSIb3DQEJARYSbWVA
bXlob3N0Lm15ZG9tYWluMB4XDTE2MDgxODE0NTUyNloXDTI2MDgxNjE0NTUyNlow
HzEdMBsGA1UEAxMUQ2xpZW50MjQ2NkNlcnRiMDczYTYwggIiMA0GCSqGSIb3DQEB
AQUAA4ICDwAwggIKAoICAQC8fFq/PCst5TiDxuxnCjKVO9r1GhceJ0aPWXjH2BG3
rXoh2OkJI2AEChAjkZMNf/+F8nrwNZYRZ6jJ1vajoIZR6px3bpg7ebuEQD8rEmUM
jH7vyd68E8WnCzEJGLkQaOSej/gBGxmWEl400WwaRlPOitJJ5PhFZ2X720RyKmA+
a0G/VXKXHH/+Ggbgi3zJZR7Kik0ztxKqKngpbDBLYPv9inNjPGj3SDKaFZ8eh+8j
9DUKkQCR5RezHC7iSKF+mEacHiBIxFpZIK+lUuSlVenOUe960pKDnMBLGRJ09fOc
qIgjv4steToaqIQtf2jRhzn5tm/M3CbJJJUJLkmR6P4v3DQtoYwbIBVzAyzGH5l7
tGvivbHPIBMTC7Mtq5Vt+g2xYz4B+Vk+ZC1Xi4Q3VyJ1GpjYOWOg6hsQkk8md4Dp
Of0DgPGJx2zr0FWDuLMEP4S7+npOj51l9rkvFtIo+mzP/Kme22AaTXNecWamN0qe
bJ9CuXQ9KGYWdKPM3/NMcp5dEJQ3ARYuSPesFNlQ3OchCOpJp9FWqf7jsWycQz+8
4OOLr93onvNJx4tRAEOFyzGCBY3mNHQxJIzxSlbhoXRn41zTKnRXZfurZ1MD2fCt
FV4QmNwslBGD/lIxuOE4T4X3Bv2GPg8aTG/l8ekHhDqMEJZTveR3359otutaK/KK
SwIDAQABo4IBYzCCAV8wCQYDVR0TBAIwADAtBglghkgBhvhCAQ0EIBYeRWFzeS1S
U0EgR2VuZXJhdGVkIENlcnRpZmljYXRlMB0GA1UdDgQWBBT+U80xmxaggX4dPhrE
DkZci3LvEjCB4QYDVR0jBIHZMIHWgBQSzWAE0qCAnnDtxpm4eyzGUv0ZoaGBsqSB
rzCBrDELMAkGA1UEBhMCVVMxCzAJBgNVBAgTAk9IMREwDwYDVQQHEwhDb2x1bWJ1
czESMBAGA1UEChMJVmlraW5nVlBOMR0wGwYDVQQLExRNeU9yZ2FuaXphdGlvbmFs
VW5pdDEVMBMGA1UEAxMMVmlraW5nVlBOIENBMRAwDgYDVQQpEwdFYXN5UlNBMSEw
HwYJKoZIhvcNAQkBFhJtZUBteWhvc3QubXlkb21haW6CCQDPNYXugL8qPjATBgNV
HSUEDDAKBggrBgEFBQcDAjALBgNVHQ8EBAMCB4AwDQYJKoZIhvcNAQELBQADggIB
ANUYq0Tqk8Y6t7XO3ypA1mX23nR21zdgU5AM1/U/h7leiVSTklmQrckfY1RZqFaQ
YmrpsrhFNnA3ctKjVmhme5oyDJnAv7Tg9xv6mrGo+gvVX1FiG9m1huuDwfmTZrsH
lHeKGRVRoS4dO+Ri7otFkQhoVlRD4AYX+6XAmUby6sDnZn0cZ/kLqNHf4LW8WTLP
EaPS0epoEX5JEOtOh3/lPfUiPARF2GBigvSKJ7Nv10sjXw5saZqaOYW36x12FKEg
YIgS6w+BeyX+TYT7Mo9yO1x/PC4LHh5f09Xo278u/t0KskjRKYv4tsfjrovsksiF
sHdi8b0dph15wvP5akvUjZhhHkwC2L7cNQo7QXQLeTJ1tQ79w1Kuvrmnfd+S0R4a
WXy1tEP6nX3czxVJaCwgJ5QIdNJFb++mYEgba3uqZ970tBA5r7+/f7RbwasaAD0f
gZ3Cq1vKjw9NK/itGZfAiQf3IaiRvaauIl5ecQk5/YR0Fgf/OrYIBKelVWmZRJHC
UpLF3tn8CIN7WvAWCIM1r0eXo2fWCmyQ9KgfU0UrwNP4af6W8Uvio+B4IKwGFOTC
sbwaEb1AUBX7BqgnecohyzQNXg+wzh5OwYYHW4A91stm2uCs98W9xW9qsZHAC/Yn
xn7uCSD9tP4OFIyhgh2O5/6xJAKCU0sxnkXmdmCD9Et/
-----END CERTIFICATE-----
