Certificate:
    Data:
        Version: 3 (0x2)
        Serial Number: 8843 (0x228b)
    Signature Algorithm: sha256WithRSAEncryption
        Issuer: C=US, ST=OH, L=Columbus, O=VikingVPN, OU=MyOrganizationalUnit, CN=VikingVPN CA/name=EasyRSA/emailAddress=me@myhost.mydomain
        Validity
            Not Before: Aug 19 03:56:00 2016 GMT
            Not After : Aug 17 03:56:00 2026 GMT
        Subject: CN=Client2467Certde73ba
        Subject Public Key Info:
            Public Key Algorithm: rsaEncryption
                Public-Key: (4096 bit)
                Modulus:
                    00:b8:b7:69:3f:e7:a7:4f:d7:c0:7f:76:b2:f3:6b:
                    a0:cd:90:94:b3:c1:56:f2:fe:ab:db:5e:55:ab:d7:
                    b3:e6:26:fc:f5:67:f6:5e:7e:71:fd:24:ee:03:c0:
                    bc:87:95:a7:72:2c:1c:8a:43:cf:2f:94:94:d8:b0:
                    b5:9e:8f:73:f1:4a:53:7f:02:8f:ce:6b:cd:5f:b3:
                    65:32:60:04:02:63:83:2d:2b:32:fe:7b:7e:a7:0c:
                    0e:e6:a5:7c:88:60:90:29:0c:5d:4b:0a:a3:12:47:
                    25:b5:59:84:2e:37:b3:6f:eb:96:ae:7e:c0:f1:60:
                    fd:7d:f0:a3:f5:0b:72:38:d6:40:ec:8e:cb:08:59:
                    d7:6e:31:17:0f:74:9f:46:2c:de:28:b4:0d:9d:0c:
                    2f:2e:f9:7e:31:7f:2a:0e:a5:db:c7:ec:32:f0:04:
                    58:6d:7a:53:c9:85:f1:52:a9:be:9f:97:35:04:d6:
                    c2:94:7e:65:09:6f:ab:4f:78:b1:b3:66:9c:1c:4b:
                    9b:d9:2f:5b:fe:01:2b:5d:0d:b2:fa:c3:d2:5c:fe:
                    56:3f:40:5e:a9:b8:4d:58:2e:dd:1e:8a:c5:92:c6:
                    13:42:78:d1:46:81:8f:81:1a:3b:3e:5f:94:09:ee:
                    f3:1d:08:72:9f:a2:bc:d6:93:3a:6d:b5:52:bd:f9:
                    70:34:8f:19:6a:b0:db:17:31:6a:db:cf:c3:9e:34:
                    1a:f1:88:88:ee:eb:c2:21:e6:58:5e:1e:32:f0:26:
                    7a:a3:da:02:a1:dc:bc:8a:f7:55:5b:f9:64:cb:41:
                    5f:81:d1:33:ed:a9:13:43:90:ab:1c:17:41:e0:45:
                    cb:79:96:96:b5:c5:5f:43:f5:01:b9:6b:92:a7:5a:
                    b4:fd:b8:1e:ea:74:1d:7a:d9:a7:26:08:28:8f:8d:
                    2c:b1:f5:b6:98:69:9a:50:2b:7d:55:63:2a:25:d6:
                    9a:d7:85:3c:31:83:5b:d3:23:8e:c9:54:f6:c2:76:
                    5b:b0:7a:ae:de:66:4e:72:0b:11:7e:f1:62:99:c8:
                    61:06:e3:12:4f:93:a6:34:a6:96:a5:98:fe:b6:42:
                    4f:0f:63:ab:f9:e7:88:62:52:46:ba:cc:9e:be:33:
                    18:a7:09:90:b8:76:f8:9f:3d:4f:99:21:27:86:a8:
                    69:40:6d:e3:a9:b7:ff:59:9c:a4:0d:5c:f1:85:21:
                    ce:70:6c:f0:48:7b:33:7e:f3:c5:f7:d1:96:57:31:
                    b7:12:9a:1c:9a:bd:aa:6d:de:7a:5c:cd:5c:af:e4:
                    be:24:21:3f:d6:cd:ab:97:7d:13:f2:cd:dd:e8:eb:
                    b0:ed:0a:2b:cf:9c:40:cb:e1:e2:14:6c:92:a0:60:
                    ae:78:17
                Exponent: 65537 (0x10001)
        X509v3 extensions:
            X509v3 Basic Constraints: 
                CA:FALSE
            Netscape Comment: 
                Easy-RSA Generated Certificate
            X509v3 Subject Key Identifier: 
                D5:26:8B:F4:AD:D4:00:A2:16:37:9E:22:63:94:CC:2A:78:50:9B:4C
            X509v3 Authority Key Identifier: 
                keyid:12:CD:60:04:D2:A0:80:9E:70:ED:C6:99:B8:7B:2C:C6:52:FD:19:A1
                DirName:/C=US/ST=OH/L=Columbus/O=VikingVPN/OU=MyOrganizationalUnit/CN=VikingVPN CA/name=EasyRSA/emailAddress=me@myhost.mydomain
                serial:CF:35:85:EE:80:BF:2A:3E

            X509v3 Extended Key Usage: 
                TLS Web Client Authentication
            X509v3 Key Usage: 
                Digital Signature
    Signature Algorithm: sha256WithRSAEncryption
         94:1d:49:70:12:a2:d9:4d:4c:ee:ba:40:2f:b7:2f:f1:a7:65:
         30:a4:28:3e:97:8d:53:0d:1c:4e:40:4e:2a:ee:1d:db:bb:aa:
         15:40:6d:70:0b:1c:89:d8:2d:5b:b7:7f:32:34:8e:49:5b:5d:
         80:2b:e1:2a:f8:9e:e5:33:fd:72:24:d9:37:6f:01:41:4a:0f:
         4a:7e:e4:88:d9:51:69:2f:35:bc:87:62:21:70:5b:2b:2f:81:
         0e:c4:e6:03:fc:b6:60:e3:2b:69:5c:c4:0f:16:8d:14:60:bf:
         08:62:a2:bf:a4:54:2a:58:d6:3e:64:a0:48:43:d0:cc:fb:3c:
         f9:19:47:0d:14:52:85:c7:d0:f2:d0:ef:68:3d:a0:6e:39:a2:
         0d:d7:5e:01:b9:68:3e:e6:2f:63:b2:1a:a1:7b:94:87:af:3c:
         fd:4f:05:0b:56:9d:9a:24:0d:52:59:b6:87:99:92:fd:e6:29:
         8f:98:74:1a:a0:20:36:ea:cb:1b:93:a4:c9:8a:22:1f:0a:94:
         46:e9:30:54:ab:6f:c6:c5:38:c5:f6:c3:87:d0:37:72:6a:95:
         4f:8e:a8:38:16:ea:2c:50:a1:cd:89:71:6b:56:e4:46:e8:45:
         4d:e0:a9:3e:bc:f4:1d:85:73:92:3f:11:82:5b:02:74:e4:3a:
         39:44:b7:af:71:b1:be:f7:2d:3b:02:62:34:11:42:8c:fe:7c:
         5d:53:74:4c:7a:84:73:f7:53:3c:bd:aa:f7:2f:d5:bf:c2:24:
         2c:69:4a:58:a9:f8:13:16:dc:9a:a4:56:29:19:22:2a:4c:04:
         d1:22:74:a7:d8:79:4c:e9:bb:e7:ee:e2:32:98:00:07:4a:00:
         4d:b2:56:48:ef:42:02:a5:71:38:7d:a6:81:eb:93:eb:6c:f1:
         e2:47:ff:3e:6e:1f:40:de:41:6c:c5:03:0c:90:86:4f:15:d1:
         97:8e:7e:1e:6f:0a:7c:f4:5f:1f:ec:17:88:d9:59:bc:57:8c:
         c0:4a:72:ec:bd:bb:c7:8b:22:be:7f:99:d4:8c:a6:38:54:70:
         ec:94:9d:3d:de:25:c0:89:56:3e:d9:0a:42:ea:9e:04:a7:d3:
         32:23:4c:35:bd:01:6d:cf:e9:16:7e:fd:d2:43:9f:1b:5c:b3:
         2c:9b:23:8e:f3:22:a3:af:14:bb:a1:95:59:d9:dc:2d:a1:c6:
         e6:1d:e7:da:d7:6a:4c:f7:19:c6:90:41:da:75:03:98:aa:5b:
         fe:cd:83:87:5c:15:82:df:79:7d:2c:33:cf:21:d1:03:cf:73:
         fb:65:8a:17:05:8a:06:df:92:df:2b:e9:83:21:6f:d5:c4:50:
         ca:b5:9e:72:4e:16:fa:d2
-----BEGIN CERTIFICATE-----
MIIGrTCCBJWgAwIBAgICIoswDQYJKoZIhvcNAQELBQAwgawxCzAJBgNVBAYTAlVT
MQswCQYDVQQIEwJPSDERMA8GA1UEBxMIQ29sdW1idXMxEjAQBgNVBAoTCVZpa2lu
Z1ZQTjEdMBsGA1UECxMUTXlPcmdhbml6YXRpb25hbFVuaXQxFTATBgNVBAMTDFZp
a2luZ1ZQTiBDQTEQMA4GA1UEKRMHRWFzeVJTQTEhMB8GCSqGSIb3DQEJARYSbWVA
bXlob3N0Lm15ZG9tYWluMB4XDTE2MDgxOTAzNTYwMFoXDTI2MDgxNzAzNTYwMFow
HzEdMBsGA1UEAxMUQ2xpZW50MjQ2N0NlcnRkZTczYmEwggIiMA0GCSqGSIb3DQEB
AQUAA4ICDwAwggIKAoICAQC4t2k/56dP18B/drLza6DNkJSzwVby/qvbXlWr17Pm
Jvz1Z/ZefnH9JO4DwLyHladyLByKQ88vlJTYsLWej3PxSlN/Ao/Oa81fs2UyYAQC
Y4MtKzL+e36nDA7mpXyIYJApDF1LCqMSRyW1WYQuN7Nv65aufsDxYP198KP1C3I4
1kDsjssIWdduMRcPdJ9GLN4otA2dDC8u+X4xfyoOpdvH7DLwBFhtelPJhfFSqb6f
lzUE1sKUfmUJb6tPeLGzZpwcS5vZL1v+AStdDbL6w9Jc/lY/QF6puE1YLt0eisWS
xhNCeNFGgY+BGjs+X5QJ7vMdCHKforzWkzpttVK9+XA0jxlqsNsXMWrbz8OeNBrx
iIju68Ih5lheHjLwJnqj2gKh3LyK91Vb+WTLQV+B0TPtqRNDkKscF0HgRct5lpa1
xV9D9QG5a5KnWrT9uB7qdB162acmCCiPjSyx9baYaZpQK31VYyol1prXhTwxg1vT
I47JVPbCdluweq7eZk5yCxF+8WKZyGEG4xJPk6Y0ppalmP62Qk8PY6v554hiUka6
zJ6+MxinCZC4dvifPU+ZISeGqGlAbeOpt/9ZnKQNXPGFIc5wbPBIezN+88X30ZZX
MbcSmhyavapt3npczVyv5L4kIT/WzauXfRPyzd3o67DtCivPnEDL4eIUbJKgYK54
FwIDAQABo4IBYzCCAV8wCQYDVR0TBAIwADAtBglghkgBhvhCAQ0EIBYeRWFzeS1S
U0EgR2VuZXJhdGVkIENlcnRpZmljYXRlMB0GA1UdDgQWBBTVJov0rdQAohY3niJj
lMwqeFCbTDCB4QYDVR0jBIHZMIHWgBQSzWAE0qCAnnDtxpm4eyzGUv0ZoaGBsqSB
rzCBrDELMAkGA1UEBhMCVVMxCzAJBgNVBAgTAk9IMREwDwYDVQQHEwhDb2x1bWJ1
czESMBAGA1UEChMJVmlraW5nVlBOMR0wGwYDVQQLExRNeU9yZ2FuaXphdGlvbmFs
VW5pdDEVMBMGA1UEAxMMVmlraW5nVlBOIENBMRAwDgYDVQQpEwdFYXN5UlNBMSEw
HwYJKoZIhvcNAQkBFhJtZUBteWhvc3QubXlkb21haW6CCQDPNYXugL8qPjATBgNV
HSUEDDAKBggrBgEFBQcDAjALBgNVHQ8EBAMCB4AwDQYJKoZIhvcNAQELBQADggIB
AJQdSXASotlNTO66QC+3L/GnZTCkKD6XjVMNHE5ATiruHdu7qhVAbXALHInYLVu3
fzI0jklbXYAr4Sr4nuUz/XIk2TdvAUFKD0p+5IjZUWkvNbyHYiFwWysvgQ7E5gP8
tmDjK2lcxA8WjRRgvwhior+kVCpY1j5koEhD0Mz7PPkZRw0UUoXH0PLQ72g9oG45
og3XXgG5aD7mL2OyGqF7lIevPP1PBQtWnZokDVJZtoeZkv3mKY+YdBqgIDbqyxuT
pMmKIh8KlEbpMFSrb8bFOMX2w4fQN3JqlU+OqDgW6ixQoc2JcWtW5EboRU3gqT68
9B2Fc5I/EYJbAnTkOjlEt69xsb73LTsCYjQRQoz+fF1TdEx6hHP3Uzy9qvcv1b/C
JCxpSlip+BMW3JqkVikZIipMBNEidKfYeUzpu+fu4jKYAAdKAE2yVkjvQgKlcTh9
poHrk+ts8eJH/z5uH0DeQWzFAwyQhk8V0ZeOfh5vCnz0Xx/sF4jZWbxXjMBKcuy9
u8eLIr5/mdSMpjhUcOyUnT3eJcCJVj7ZCkLqngSn0zIjTDW9AW3P6RZ+/dJDnxtc
syybI47zIqOvFLuhlVnZ3C2hxuYd59rXakz3GcaQQdp1A5iqW/7Ng4dcFYLfeX0s
M88h0QPPc/tlihcFigbfkt8r6YMhb9XEUMq1nnJOFvrS
-----END CERTIFICATE-----
