Certificate:
    Data:
        Version: 3 (0x2)
        Serial Number: 8866 (0x22a2)
    Signature Algorithm: sha256WithRSAEncryption
        Issuer: C=US, ST=OH, L=Columbus, O=VikingVPN, OU=MyOrganizationalUnit, CN=VikingVPN CA/name=EasyRSA/emailAddress=me@myhost.mydomain
        Validity
            Not Before: Aug 21 00:40:11 2016 GMT
            Not After : Aug 19 00:40:11 2026 GMT
        Subject: CN=Client2475Cert779263
        Subject Public Key Info:
            Public Key Algorithm: rsaEncryption
                Public-Key: (4096 bit)
                Modulus:
                    00:b2:10:f9:27:bf:66:72:c0:23:4a:10:85:e2:f0:
                    c7:78:e0:71:6e:a7:a4:b1:32:f4:60:68:33:27:e5:
                    0c:6d:b0:a3:ca:1f:93:fe:60:08:1c:2a:b4:d3:2b:
                    42:05:54:95:6b:51:4f:22:75:90:3d:6c:c5:8f:91:
                    90:62:a9:d5:df:74:64:8c:0a:e2:0c:44:96:e1:a4:
                    10:7e:18:ee:00:da:70:c7:cf:19:c5:85:44:d0:1b:
                    69:44:08:85:59:42:84:f6:a9:ee:cb:da:25:3c:21:
                    a8:f1:1f:03:18:d2:6b:dc:fa:18:c2:d6:fa:8a:e7:
                    2e:69:6c:bf:fe:cc:d1:5f:2f:dc:b0:d2:45:4d:b1:
                    6a:b5:3c:70:26:c2:41:89:65:38:42:1e:0b:71:1f:
                    35:ff:57:23:d4:df:a6:4a:62:6d:d3:2c:65:64:df:
                    6a:2d:a5:c3:4a:f2:20:a4:74:62:60:ec:b4:58:40:
                    cd:ef:e3:51:73:5c:32:3b:ea:0d:f2:ef:b5:d8:26:
                    b0:bd:5a:56:98:b1:cb:c5:76:76:fb:55:1a:97:c9:
                    e1:83:b5:eb:70:9e:36:68:d9:e2:83:43:38:fa:e2:
                    37:3d:10:2e:dd:03:75:33:06:bd:56:48:a2:a1:c3:
                    31:7d:f3:18:1a:5c:69:ff:7a:00:f3:72:e1:f5:c9:
                    4f:4f:6a:d6:2b:e5:48:fa:82:b3:a6:ff:bf:41:9a:
                    95:00:5c:80:44:5e:49:4e:f1:97:41:2b:2f:1f:64:
                    42:f6:6c:96:4a:b0:ef:0e:fb:5b:16:10:fe:57:3c:
                    1f:8e:62:06:9f:32:54:af:d1:1d:73:24:7a:e5:a2:
                    90:89:90:f5:c0:d6:21:14:a8:dc:00:e9:dd:fe:9b:
                    22:41:57:98:2c:ea:b7:22:12:0b:8d:de:7b:d3:5d:
                    93:e8:e6:db:b7:21:d5:96:6f:80:6e:7e:8f:57:5d:
                    35:0a:cd:08:ed:57:c6:32:da:5b:e2:77:3c:de:e7:
                    b5:c5:f6:33:f6:d8:2a:35:3c:2b:de:75:78:ae:40:
                    84:23:70:b6:a9:f5:13:a0:79:d0:8f:9b:22:f1:73:
                    de:09:3e:5e:ff:4d:34:f3:b7:0d:ae:a1:95:b9:1e:
                    db:4c:1c:49:54:ee:8f:69:5c:52:37:ac:03:f1:70:
                    62:72:04:55:75:9f:18:0c:a5:5e:d5:22:1a:87:e4:
                    e0:29:7c:51:68:f1:c3:a8:dc:fb:21:db:76:94:2b:
                    ba:cd:f8:fd:39:54:c9:84:2f:83:9e:3c:d2:fb:66:
                    19:ca:8f:f4:8b:1a:73:b9:df:6a:f4:87:b8:3a:ad:
                    0e:a4:62:47:1b:35:59:c1:8a:74:48:cb:e8:b2:93:
                    e3:d2:dd
                Exponent: 65537 (0x10001)
        X509v3 extensions:
            X509v3 Basic Constraints: 
                CA:FALSE
            Netscape Comment: 
                Easy-RSA Generated Certificate
            X509v3 Subject Key Identifier: 
                6C:86:8E:BB:EF:36:66:1F:24:49:C0:BC:46:43:38:8F:0C:11:F5:29
            X509v3 Authority Key Identifier: 
                keyid:12:CD:60:04:D2:A0:80:9E:70:ED:C6:99:B8:7B:2C:C6:52:FD:19:A1
                DirName:/C=US/ST=OH/L=Columbus/O=VikingVPN/OU=MyOrganizationalUnit/CN=VikingVPN CA/name=EasyRSA/emailAddress=me@myhost.mydomain
                serial:CF:35:85:EE:80:BF:2A:3E

            X509v3 Extended Key Usage: 
                TLS Web Client Authentication
            X509v3 Key Usage: 
                Digital Signature
    Signature Algorithm: sha256WithRSAEncryption
         3d:4d:68:a1:e0:5e:2d:64:c0:de:0a:4d:67:f3:05:16:d6:dc:
         ac:76:29:6e:c7:13:7f:42:e6:15:22:82:4f:ff:9e:0b:fb:51:
         df:33:31:03:20:a3:b7:57:35:c5:2d:ed:f9:45:df:75:19:6d:
         28:03:fa:cf:12:cf:5f:38:a9:a1:2f:ec:2b:44:a9:08:b3:cd:
         82:06:3d:82:67:a4:12:08:ed:48:62:34:75:e3:cc:4a:9c:2b:
         3b:78:d5:b8:10:b0:2b:b7:1f:af:52:89:fa:af:8e:59:99:20:
         4f:41:d4:21:67:a3:ca:7f:85:48:4f:75:2e:80:6f:4f:32:67:
         91:90:b2:9a:af:9b:66:60:6e:db:24:60:da:dd:22:88:05:f1:
         b8:1e:c7:20:6c:f7:0b:60:c6:75:b6:20:aa:a1:9d:6a:9e:18:
         60:ab:72:30:39:45:97:20:dc:09:2f:bb:96:8a:25:87:b0:c6:
         35:27:7e:b1:5a:9d:e3:fd:c2:fc:d5:c3:a3:2f:0a:c0:02:fe:
         b8:a4:ea:f8:e1:20:d0:4e:d5:d9:6e:9d:54:f5:33:27:7e:84:
         b9:de:f8:c3:a5:9c:a4:38:cc:9e:9a:af:0c:90:77:87:36:39:
         05:08:e6:61:fb:05:a4:32:f5:a4:4b:2a:d1:26:9b:b6:90:c4:
         8b:bb:29:db:04:e5:c5:08:de:21:35:d6:04:38:37:27:99:3e:
         0f:f0:1b:a6:91:27:fa:a8:87:bd:e2:b5:d5:66:2a:cd:4e:08:
         7b:4f:eb:78:49:6b:b4:4a:8e:86:3a:a6:d6:b2:72:bd:d5:34:
         5b:72:b2:1b:8a:e7:4f:8d:10:c3:aa:b2:a9:6b:17:69:e1:11:
         0f:10:3f:81:6c:6e:9e:02:75:3b:ca:ec:ec:60:f2:7f:d8:06:
         8e:2d:63:14:b9:5e:84:cb:8b:78:04:b6:66:48:d7:55:e8:37:
         c2:cd:55:60:7f:30:cc:cd:22:b6:16:2a:af:26:b6:52:52:df:
         e9:2a:5f:4c:c9:4d:c5:34:60:62:c6:f2:d5:6b:0f:a7:9c:e5:
         40:31:2d:29:78:5d:d1:c3:2a:ab:37:a6:50:c7:1c:17:f3:65:
         c7:10:86:cc:30:c0:e2:21:6d:0f:02:e5:8d:ac:3a:6a:a4:58:
         ea:83:1f:1c:a1:67:cc:0c:00:78:ed:fa:f4:ed:71:ef:7a:b0:
         f5:3c:a3:11:e1:52:0b:6b:94:60:a4:1b:4c:f4:98:55:3f:d8:
         3d:f4:16:b5:1e:79:b6:cc:67:0c:ff:ac:ac:8e:95:20:77:29:
         3f:aa:6b:2c:c0:c8:1c:69:00:a2:62:16:7a:88:d9:ec:84:7d:
         10:cd:b0:6f:4b:23:9e:85
-----BEGIN CERTIFICATE-----
MIIGrTCCBJWgAwIBAgICIqIwDQYJKoZIhvcNAQELBQAwgawxCzAJBgNVBAYTAlVT
MQswCQYDVQQIEwJPSDERMA8GA1UEBxMIQ29sdW1idXMxEjAQBgNVBAoTCVZpa2lu
Z1ZQTjEdMBsGA1UECxMUTXlPcmdhbml6YXRpb25hbFVuaXQxFTATBgNVBAMTDFZp
a2luZ1ZQTiBDQTEQMA4GA1UEKRMHRWFzeVJTQTEhMB8GCSqGSIb3DQEJARYSbWVA
bXlob3N0Lm15ZG9tYWluMB4XDTE2MDgyMTAwNDAxMVoXDTI2MDgxOTAwNDAxMVow
HzEdMBsGA1UEAxMUQ2xpZW50MjQ3NUNlcnQ3NzkyNjMwggIiMA0GCSqGSIb3DQEB
AQUAA4ICDwAwggIKAoICAQCyEPknv2ZywCNKEIXi8Md44HFup6SxMvRgaDMn5Qxt
sKPKH5P+YAgcKrTTK0IFVJVrUU8idZA9bMWPkZBiqdXfdGSMCuIMRJbhpBB+GO4A
2nDHzxnFhUTQG2lECIVZQoT2qe7L2iU8IajxHwMY0mvc+hjC1vqK5y5pbL/+zNFf
L9yw0kVNsWq1PHAmwkGJZThCHgtxHzX/VyPU36ZKYm3TLGVk32otpcNK8iCkdGJg
7LRYQM3v41FzXDI76g3y77XYJrC9WlaYscvFdnb7VRqXyeGDtetwnjZo2eKDQzj6
4jc9EC7dA3UzBr1WSKKhwzF98xgaXGn/egDzcuH1yU9PatYr5Uj6grOm/79BmpUA
XIBEXklO8ZdBKy8fZEL2bJZKsO8O+1sWEP5XPB+OYgafMlSv0R1zJHrlopCJkPXA
1iEUqNwA6d3+myJBV5gs6rciEguN3nvTXZPo5tu3IdWWb4Bufo9XXTUKzQjtV8Yy
2lvidzze57XF9jP22Co1PCvedXiuQIQjcLap9ROgedCPmyLxc94JPl7/TTTztw2u
oZW5HttMHElU7o9pXFI3rAPxcGJyBFV1nxgMpV7VIhqH5OApfFFo8cOo3Psh23aU
K7rN+P05VMmEL4OePNL7ZhnKj/SLGnO532r0h7g6rQ6kYkcbNVnBinRIy+iyk+PS
3QIDAQABo4IBYzCCAV8wCQYDVR0TBAIwADAtBglghkgBhvhCAQ0EIBYeRWFzeS1S
U0EgR2VuZXJhdGVkIENlcnRpZmljYXRlMB0GA1UdDgQWBBRsho677zZmHyRJwLxG
QziPDBH1KTCB4QYDVR0jBIHZMIHWgBQSzWAE0qCAnnDtxpm4eyzGUv0ZoaGBsqSB
rzCBrDELMAkGA1UEBhMCVVMxCzAJBgNVBAgTAk9IMREwDwYDVQQHEwhDb2x1bWJ1
czESMBAGA1UEChMJVmlraW5nVlBOMR0wGwYDVQQLExRNeU9yZ2FuaXphdGlvbmFs
VW5pdDEVMBMGA1UEAxMMVmlraW5nVlBOIENBMRAwDgYDVQQpEwdFYXN5UlNBMSEw
HwYJKoZIhvcNAQkBFhJtZUBteWhvc3QubXlkb21haW6CCQDPNYXugL8qPjATBgNV
HSUEDDAKBggrBgEFBQcDAjALBgNVHQ8EBAMCB4AwDQYJKoZIhvcNAQELBQADggIB
AD1NaKHgXi1kwN4KTWfzBRbW3Kx2KW7HE39C5hUigk//ngv7Ud8zMQMgo7dXNcUt
7flF33UZbSgD+s8Sz184qaEv7CtEqQizzYIGPYJnpBII7UhiNHXjzEqcKzt41bgQ
sCu3H69SifqvjlmZIE9B1CFno8p/hUhPdS6Ab08yZ5GQspqvm2ZgbtskYNrdIogF
8bgexyBs9wtgxnW2IKqhnWqeGGCrcjA5RZcg3Akvu5aKJYewxjUnfrFaneP9wvzV
w6MvCsAC/rik6vjhINBO1dlunVT1Myd+hLne+MOlnKQ4zJ6arwyQd4c2OQUI5mH7
BaQy9aRLKtEmm7aQxIu7KdsE5cUI3iE11gQ4NyeZPg/wG6aRJ/qoh73itdVmKs1O
CHtP63hJa7RKjoY6ptaycr3VNFtyshuK50+NEMOqsqlrF2nhEQ8QP4Fsbp4CdTvK
7Oxg8n/YBo4tYxS5XoTLi3gEtmZI11XoN8LNVWB/MMzNIrYWKq8mtlJS3+kqX0zJ
TcU0YGLG8tVrD6ec5UAxLSl4XdHDKqs3plDHHBfzZccQhswwwOIhbQ8C5Y2sOmqk
WOqDHxyhZ8wMAHjt+vTtce96sPU8oxHhUgtrlGCkG0z0mFU/2D30FrUeebbMZwz/
rKyOlSB3KT+qayzAyBxpAKJiFnqI2eyEfRDNsG9LI56F
-----END CERTIFICATE-----
