Certificate:
    Data:
        Version: 3 (0x2)
        Serial Number: 8879 (0x22af)
    Signature Algorithm: sha256WithRSAEncryption
        Issuer: C=US, ST=OH, L=Columbus, O=VikingVPN, OU=MyOrganizationalUnit, CN=VikingVPN CA/name=EasyRSA/emailAddress=me@myhost.mydomain
        Validity
            Not Before: Aug 22 23:52:03 2016 GMT
            Not After : Aug 20 23:52:03 2026 GMT
        Subject: CN=Client2483Cert55d290
        Subject Public Key Info:
            Public Key Algorithm: rsaEncryption
                Public-Key: (4096 bit)
                Modulus:
                    00:bd:68:83:cc:fc:fc:ab:89:78:e7:44:62:c8:bb:
                    01:c8:59:7b:e1:94:28:a0:0a:cd:0d:61:c7:38:3a:
                    98:af:70:e9:97:55:09:12:34:91:83:e9:00:18:d9:
                    df:78:2c:fe:9f:fe:e1:68:c3:92:04:1d:1c:7b:c5:
                    ef:b4:4f:3c:e2:fd:13:56:09:d1:7b:8e:7d:c2:1d:
                    be:8d:31:03:0d:3f:b1:0b:cd:94:f2:8c:29:35:bc:
                    10:24:cd:36:f5:d2:58:95:f1:44:bd:bd:35:00:86:
                    a9:4d:42:cf:ca:2f:78:ba:b1:66:b1:4b:a6:5d:2d:
                    aa:ab:ae:5a:8d:5f:c7:97:08:e3:a2:2a:5e:d8:0d:
                    d8:14:b3:99:9e:a2:e6:a4:58:b6:39:76:7f:5b:fa:
                    68:e1:10:3b:f8:74:65:17:d2:ae:a6:b3:ab:52:5c:
                    c1:3e:08:5c:69:86:18:df:46:9f:c6:2d:1a:63:92:
                    08:1c:77:e4:2a:f2:d5:69:18:e8:c6:02:d4:6d:04:
                    76:fe:a8:fb:e4:49:e6:e9:ce:8b:3b:fe:ea:77:46:
                    87:3e:42:12:e4:52:9f:9b:25:d9:69:3d:cc:f5:88:
                    d7:aa:49:93:a1:56:83:7c:bc:50:5a:c4:83:0f:c6:
                    04:08:89:70:3e:5d:20:24:a6:24:2a:bf:76:73:71:
                    1e:50:2c:6a:48:49:4f:17:cc:5d:bd:01:4a:f3:e9:
                    54:e0:bc:43:07:9c:bd:19:2d:0e:4c:5a:70:da:eb:
                    95:a4:04:be:8d:89:9b:ad:0d:56:89:e3:c3:c8:60:
                    24:e0:91:55:d3:da:0d:86:43:ed:14:18:de:98:57:
                    6b:3c:08:c2:73:f5:ec:3b:29:19:5a:7b:e8:c2:d2:
                    58:5d:00:9f:e2:9c:ca:40:05:12:02:43:8d:c0:ef:
                    f1:13:20:17:d6:88:d3:a4:a6:11:ac:18:1e:72:59:
                    9f:31:8c:cc:c3:4c:b6:c0:4b:2c:84:4b:c5:ff:c2:
                    ae:8b:7d:a1:3a:70:d3:72:3f:4c:6e:9b:f2:e6:c8:
                    26:cd:e3:6e:5c:cd:9d:c7:83:ae:74:e3:f4:54:28:
                    0f:83:3a:03:75:19:d0:d8:14:ad:9a:00:63:97:3a:
                    3b:50:24:25:06:5a:bf:fd:61:8f:70:f2:f0:2f:df:
                    28:95:81:43:bf:2a:70:7e:4e:c8:33:a0:d3:f3:fa:
                    69:a9:b7:55:2e:12:79:67:76:56:61:af:2b:08:1f:
                    02:08:4c:af:c6:05:47:e7:f4:8a:90:e5:e7:ed:6c:
                    c9:64:10:9f:b2:f3:4b:25:3a:cb:69:50:31:4c:65:
                    07:27:61:f0:74:e2:8e:27:e2:af:7c:91:e2:c5:ae:
                    01:df:39
                Exponent: 65537 (0x10001)
        X509v3 extensions:
            X509v3 Basic Constraints: 
                CA:FALSE
            Netscape Comment: 
                Easy-RSA Generated Certificate
            X509v3 Subject Key Identifier: 
                7B:D3:98:27:E0:33:A8:B6:C3:BD:45:C3:8F:02:78:E5:36:2D:05:FD
            X509v3 Authority Key Identifier: 
                keyid:12:CD:60:04:D2:A0:80:9E:70:ED:C6:99:B8:7B:2C:C6:52:FD:19:A1
                DirName:/C=US/ST=OH/L=Columbus/O=VikingVPN/OU=MyOrganizationalUnit/CN=VikingVPN CA/name=EasyRSA/emailAddress=me@myhost.mydomain
                serial:CF:35:85:EE:80:BF:2A:3E

            X509v3 Extended Key Usage: 
                TLS Web Client Authentication
            X509v3 Key Usage: 
                Digital Signature
    Signature Algorithm: sha256WithRSAEncryption
         77:bf:ed:5d:62:1d:3d:27:83:a1:6a:7c:af:1d:3c:6b:12:03:
         2f:4c:01:d1:ae:fb:c6:ee:2b:8c:64:d3:3f:13:5b:87:fa:7d:
         f9:e4:e2:2c:cb:e6:0e:6f:c9:60:93:de:76:58:d4:a4:ec:be:
         dc:49:f8:bd:91:d2:fe:3d:b3:58:a7:f1:81:0f:8e:6d:dd:4a:
         84:de:18:05:fd:a9:86:00:72:71:76:e2:b1:cc:c9:77:c6:6e:
         48:db:0d:74:80:ed:66:7f:e7:32:ab:ef:83:00:e0:6e:c4:04:
         d7:3b:01:36:50:45:77:59:fa:b9:aa:2e:cb:64:47:5d:a5:02:
         5b:15:8e:29:c4:27:6e:4f:cf:4b:8c:17:0d:0b:62:d5:14:7f:
         ae:68:c4:26:b3:d2:37:3c:59:46:28:ec:72:2d:92:51:db:2f:
         9c:63:59:44:56:43:a5:ad:6c:0d:26:da:92:81:07:d7:96:d2:
         9f:97:f5:cb:15:88:e2:92:ac:0d:65:f5:97:66:83:9e:a8:dd:
         a9:0b:d8:00:ea:01:cf:6a:7f:ff:b1:92:b0:66:9d:a6:97:b6:
         56:d8:6f:d2:13:c7:59:52:ac:ef:5b:d4:df:f5:f5:09:13:bf:
         bb:f9:8a:8e:58:8c:44:c0:15:07:b4:0b:17:81:fd:3d:02:b7:
         1d:3e:56:4f:36:8a:d2:3c:78:cb:d1:c3:bf:96:d9:9a:97:ba:
         6b:32:80:e0:51:30:eb:35:33:d8:e0:7f:f4:c3:67:2e:80:b9:
         45:df:65:1c:6e:6e:f5:48:b1:6b:fb:2a:7d:b6:df:25:60:81:
         07:35:db:51:f7:c1:9a:76:89:fe:1d:60:c6:e4:e8:d0:93:d5:
         ef:8a:a8:08:7f:56:3e:4e:0d:b2:06:0b:99:44:62:ec:2c:99:
         9c:9a:23:36:0f:48:48:18:c0:0e:cb:e9:b8:f1:7f:e4:2d:f2:
         54:95:b5:5d:fe:43:2c:e4:ec:5d:e4:71:b7:a5:f9:2b:35:b5:
         3a:f5:66:c6:28:12:a0:df:d8:75:21:cd:bd:ee:ef:44:98:6b:
         43:ce:82:d3:2d:20:2a:df:62:95:77:68:6f:1a:e2:a1:a9:ed:
         32:50:c9:f3:3e:ea:cc:c6:9f:82:50:84:e4:51:2f:eb:12:7f:
         d1:76:07:34:49:f6:33:d5:05:d3:a7:b4:e8:f9:94:4c:cd:16:
         24:d9:55:ae:2b:88:ac:a6:8e:f0:05:de:af:bb:da:5e:b7:d5:
         ca:f0:94:40:50:4e:ac:df:f0:15:d5:2c:14:a5:69:df:b4:f8:
         aa:46:a5:4e:cc:b6:60:8e:f8:15:44:03:12:62:42:92:9b:23:
         7d:ed:9f:fd:62:b3:0a:a6
-----BEGIN CERTIFICATE-----
MIIGrTCCBJWgAwIBAgICIq8wDQYJKoZIhvcNAQELBQAwgawxCzAJBgNVBAYTAlVT
MQswCQYDVQQIEwJPSDERMA8GA1UEBxMIQ29sdW1idXMxEjAQBgNVBAoTCVZpa2lu
Z1ZQTjEdMBsGA1UECxMUTXlPcmdhbml6YXRpb25hbFVuaXQxFTATBgNVBAMTDFZp
a2luZ1ZQTiBDQTEQMA4GA1UEKRMHRWFzeVJTQTEhMB8GCSqGSIb3DQEJARYSbWVA
bXlob3N0Lm15ZG9tYWluMB4XDTE2MDgyMjIzNTIwM1oXDTI2MDgyMDIzNTIwM1ow
HzEdMBsGA1UEAxMUQ2xpZW50MjQ4M0NlcnQ1NWQyOTAwggIiMA0GCSqGSIb3DQEB
AQUAA4ICDwAwggIKAoICAQC9aIPM/PyriXjnRGLIuwHIWXvhlCigCs0NYcc4Opiv
cOmXVQkSNJGD6QAY2d94LP6f/uFow5IEHRx7xe+0Tzzi/RNWCdF7jn3CHb6NMQMN
P7ELzZTyjCk1vBAkzTb10liV8US9vTUAhqlNQs/KL3i6sWaxS6ZdLaqrrlqNX8eX
COOiKl7YDdgUs5meouakWLY5dn9b+mjhEDv4dGUX0q6ms6tSXME+CFxphhjfRp/G
LRpjkggcd+Qq8tVpGOjGAtRtBHb+qPvkSebpzos7/up3Roc+QhLkUp+bJdlpPcz1
iNeqSZOhVoN8vFBaxIMPxgQIiXA+XSAkpiQqv3ZzcR5QLGpISU8XzF29AUrz6VTg
vEMHnL0ZLQ5MWnDa65WkBL6NiZutDVaJ48PIYCTgkVXT2g2GQ+0UGN6YV2s8CMJz
9ew7KRlae+jC0lhdAJ/inMpABRICQ43A7/ETIBfWiNOkphGsGB5yWZ8xjMzDTLbA
SyyES8X/wq6LfaE6cNNyP0xum/LmyCbN425czZ3Hg6504/RUKA+DOgN1GdDYFK2a
AGOXOjtQJCUGWr/9YY9w8vAv3yiVgUO/KnB+TsgzoNPz+mmpt1UuEnlndlZhrysI
HwIITK/GBUfn9IqQ5eftbMlkEJ+y80slOstpUDFMZQcnYfB04o4n4q98keLFrgHf
OQIDAQABo4IBYzCCAV8wCQYDVR0TBAIwADAtBglghkgBhvhCAQ0EIBYeRWFzeS1S
U0EgR2VuZXJhdGVkIENlcnRpZmljYXRlMB0GA1UdDgQWBBR705gn4DOotsO9RcOP
AnjlNi0F/TCB4QYDVR0jBIHZMIHWgBQSzWAE0qCAnnDtxpm4eyzGUv0ZoaGBsqSB
rzCBrDELMAkGA1UEBhMCVVMxCzAJBgNVBAgTAk9IMREwDwYDVQQHEwhDb2x1bWJ1
czESMBAGA1UEChMJVmlraW5nVlBOMR0wGwYDVQQLExRNeU9yZ2FuaXphdGlvbmFs
VW5pdDEVMBMGA1UEAxMMVmlraW5nVlBOIENBMRAwDgYDVQQpEwdFYXN5UlNBMSEw
HwYJKoZIhvcNAQkBFhJtZUBteWhvc3QubXlkb21haW6CCQDPNYXugL8qPjATBgNV
HSUEDDAKBggrBgEFBQcDAjALBgNVHQ8EBAMCB4AwDQYJKoZIhvcNAQELBQADggIB
AHe/7V1iHT0ng6FqfK8dPGsSAy9MAdGu+8buK4xk0z8TW4f6ffnk4izL5g5vyWCT
3nZY1KTsvtxJ+L2R0v49s1in8YEPjm3dSoTeGAX9qYYAcnF24rHMyXfGbkjbDXSA
7WZ/5zKr74MA4G7EBNc7ATZQRXdZ+rmqLstkR12lAlsVjinEJ25Pz0uMFw0LYtUU
f65oxCaz0jc8WUYo7HItklHbL5xjWURWQ6WtbA0m2pKBB9eW0p+X9csViOKSrA1l
9Zdmg56o3akL2ADqAc9qf/+xkrBmnaaXtlbYb9ITx1lSrO9b1N/19QkTv7v5io5Y
jETAFQe0CxeB/T0Ctx0+Vk82itI8eMvRw7+W2ZqXumsygOBRMOs1M9jgf/TDZy6A
uUXfZRxubvVIsWv7Kn223yVggQc121H3wZp2if4dYMbk6NCT1e+KqAh/Vj5ODbIG
C5lEYuwsmZyaIzYPSEgYwA7L6bjxf+Qt8lSVtV3+Qyzk7F3kcbel+Ss1tTr1ZsYo
EqDf2HUhzb3u70SYa0POgtMtICrfYpV3aG8a4qGp7TJQyfM+6szGn4JQhORRL+sS
f9F2BzRJ9jPVBdOntOj5lEzNFiTZVa4riKymjvAF3q+72l631crwlEBQTqzf8BXV
LBSlad+0+KpGpU7MtmCO+BVEAxJiQpKbI33tn/1iswqm
-----END CERTIFICATE-----
