Certificate:
    Data:
        Version: 3 (0x2)
        Serial Number: 8932 (0x22e4)
    Signature Algorithm: sha256WithRSAEncryption
        Issuer: C=US, ST=OH, L=Columbus, O=VikingVPN, OU=MyOrganizationalUnit, CN=VikingVPN CA/name=EasyRSA/emailAddress=me@myhost.mydomain
        Validity
            Not Before: Aug 29 04:35:17 2016 GMT
            Not After : Aug 27 04:35:17 2026 GMT
        Subject: CN=Client2491Cert0df900
        Subject Public Key Info:
            Public Key Algorithm: rsaEncryption
                Public-Key: (4096 bit)
                Modulus:
                    00:d5:b1:0c:c1:7c:37:83:b4:a3:04:45:7f:c3:05:
                    c4:b0:d4:d9:f6:43:7f:2d:24:eb:28:9d:df:97:d1:
                    56:5c:c8:f3:11:9c:9f:34:c9:07:e5:d1:d3:c6:82:
                    ef:56:f6:f0:08:9f:10:74:10:97:0b:4c:d3:90:ae:
                    6a:ca:67:e8:c3:64:60:40:39:36:25:91:27:9f:f7:
                    c9:c6:27:93:c2:8d:d0:4b:88:a0:21:64:c6:e4:43:
                    54:43:ef:1e:d5:ef:6f:a8:08:74:9c:ba:c7:a0:d5:
                    16:ac:e9:80:8e:fe:3a:87:1a:d1:01:a1:42:45:2b:
                    b3:d2:8a:a0:80:95:66:f1:40:18:65:2a:b9:fe:28:
                    23:67:bd:f4:cd:d3:b2:66:21:81:81:fb:ee:79:0e:
                    9e:2a:0d:c8:a6:5c:27:61:57:1e:e8:b4:eb:0f:a6:
                    45:93:64:2e:6d:92:50:d7:62:43:47:2f:c9:ab:54:
                    a7:ac:2c:08:59:b8:aa:fb:c0:5a:04:d6:d3:ab:ad:
                    93:f9:10:1a:c0:6e:b3:5f:a6:9d:13:33:31:4a:49:
                    54:6d:f2:82:64:e5:df:15:d4:27:32:6c:6a:a5:5a:
                    b2:6a:db:bc:a2:58:34:8a:78:64:bd:1e:a5:56:6a:
                    e8:1d:7b:1a:f4:de:86:14:39:81:c6:3e:16:00:bc:
                    74:ce:63:f3:ff:24:01:8f:be:9c:e8:23:c5:72:4f:
                    93:20:11:b6:c9:0a:55:7c:61:23:41:a1:b8:cd:15:
                    14:bf:37:0a:45:f6:50:b4:2a:ed:e9:27:b4:2e:be:
                    d9:41:3f:ae:c9:0b:d4:b6:3d:30:86:b4:05:87:76:
                    61:d0:f9:2a:b0:34:d7:23:b9:1d:0f:7b:7b:01:f4:
                    30:29:bc:57:e5:aa:40:71:fa:12:04:5c:28:34:86:
                    f6:00:82:cc:6d:9d:fa:78:42:e5:f3:39:5f:e8:e5:
                    b2:c8:72:00:df:c8:29:6d:b0:d5:dc:9d:6e:e6:d6:
                    b5:16:3c:3b:a5:d9:df:69:54:cf:c8:66:43:bb:54:
                    e5:44:77:cb:34:e1:64:d3:25:b5:1d:08:86:6a:7c:
                    cf:dd:91:65:3f:fd:00:6a:b2:f0:75:0d:9a:62:a2:
                    9d:18:56:60:2d:0d:d9:43:f9:1c:35:cf:23:4d:bc:
                    0f:8c:f3:43:71:34:13:fc:c5:62:48:78:d2:c2:e3:
                    86:a2:c3:04:ca:44:a7:37:6c:ca:c2:b7:f7:6f:85:
                    7e:b1:e4:21:82:78:08:d2:8f:b6:e7:ea:18:0e:02:
                    d7:ae:7c:77:07:0e:08:30:8f:82:37:b6:f2:42:ef:
                    2e:c6:c6:83:89:c7:a4:03:df:bf:41:3c:ca:fe:d1:
                    3d:de:ed
                Exponent: 65537 (0x10001)
        X509v3 extensions:
            X509v3 Basic Constraints: 
                CA:FALSE
            Netscape Comment: 
                Easy-RSA Generated Certificate
            X509v3 Subject Key Identifier: 
                52:79:55:56:06:36:36:72:2E:74:B5:63:CC:AC:AB:2A:C0:7C:0F:D6
            X509v3 Authority Key Identifier: 
                keyid:12:CD:60:04:D2:A0:80:9E:70:ED:C6:99:B8:7B:2C:C6:52:FD:19:A1
                DirName:/C=US/ST=OH/L=Columbus/O=VikingVPN/OU=MyOrganizationalUnit/CN=VikingVPN CA/name=EasyRSA/emailAddress=me@myhost.mydomain
                serial:CF:35:85:EE:80:BF:2A:3E

            X509v3 Extended Key Usage: 
                TLS Web Client Authentication
            X509v3 Key Usage: 
                Digital Signature
    Signature Algorithm: sha256WithRSAEncryption
         42:59:20:6d:18:c3:42:36:76:e4:73:db:e0:ee:58:c4:00:33:
         d9:2d:6e:29:c3:b1:29:7e:b5:88:7f:be:a7:44:9b:9f:2d:3c:
         3f:0f:f5:c2:4f:fd:ad:67:05:86:d8:84:49:aa:03:98:dd:30:
         6c:ee:82:4b:fe:51:7c:f1:9d:5f:f0:99:ae:f8:d6:c0:d9:6f:
         6c:5c:6f:d5:c8:e0:d2:3b:84:92:99:ff:58:98:b0:29:7e:5a:
         df:df:47:33:46:81:9a:3e:f4:91:8d:ae:dc:f3:29:9b:c5:37:
         7d:15:03:98:81:d3:bf:1c:80:9e:18:1f:27:a2:7c:b4:0e:de:
         72:48:26:1d:0e:c0:a1:7e:c2:12:d9:c8:a2:d6:7e:0d:00:fb:
         94:b6:6d:52:ba:71:d9:57:ae:01:26:8b:cf:94:a7:d4:a3:47:
         d2:0a:31:3d:d5:84:b9:bd:73:c3:6a:39:bb:34:a8:99:ff:06:
         77:d3:f9:13:a8:13:2d:ef:c2:df:42:cd:c5:1c:cd:5e:a3:2b:
         ef:38:b1:43:2e:ef:8e:e9:7d:c5:50:7f:9d:b8:44:78:b3:14:
         0f:c2:7d:cc:5f:50:25:f7:be:12:0a:ea:c1:ad:a1:d5:c4:0a:
         1e:d4:bf:ab:b3:4d:4f:18:a0:ef:62:f7:3c:be:46:cf:79:ca:
         5a:17:6e:26:9e:82:a5:0a:97:4c:6b:22:2a:f8:6a:5c:0e:4f:
         86:cf:46:08:7d:35:d1:6d:15:bb:7d:ce:f3:5b:7c:f9:30:e5:
         5e:7a:7b:b3:fc:21:fe:81:b5:32:c2:00:00:dd:56:36:f4:43:
         c6:e0:65:10:0a:33:53:3f:5b:20:9d:58:39:77:55:fd:cd:e0:
         f7:3e:89:e7:a9:fd:a7:a8:47:56:27:b4:43:f7:8c:31:65:fb:
         6e:58:3f:f5:32:47:9d:7a:9b:dd:62:df:ec:cc:27:b6:c3:c8:
         57:f7:f3:56:a8:16:bc:c4:e9:16:fe:84:28:dd:0e:85:25:91:
         79:f7:7a:d4:1b:33:f8:43:92:bc:46:be:bc:f4:02:7a:0b:ba:
         6e:40:59:29:10:b8:b3:4c:e4:24:f4:c7:9c:2b:65:c2:0c:40:
         84:73:18:c6:08:33:74:8a:2a:34:21:a3:0e:23:f7:73:16:5f:
         7a:6d:3b:43:00:1e:7c:4e:41:e7:14:e2:1f:66:f8:41:4c:ea:
         74:d9:47:a9:23:7a:ba:0e:11:a5:87:a1:b0:e4:8b:76:61:be:
         d6:d1:0e:94:37:b4:d2:a2:6d:19:fa:19:ca:a4:31:3b:d8:3a:
         a8:85:bd:bf:3d:a4:60:82:ce:7d:2f:7b:0e:6e:b4:2f:2b:1c:
         77:95:37:cb:57:2a:bb:ce
-----BEGIN CERTIFICATE-----
MIIGrTCCBJWgAwIBAgICIuQwDQYJKoZIhvcNAQELBQAwgawxCzAJBgNVBAYTAlVT
MQswCQYDVQQIEwJPSDERMA8GA1UEBxMIQ29sdW1idXMxEjAQBgNVBAoTCVZpa2lu
Z1ZQTjEdMBsGA1UECxMUTXlPcmdhbml6YXRpb25hbFVuaXQxFTATBgNVBAMTDFZp
a2luZ1ZQTiBDQTEQMA4GA1UEKRMHRWFzeVJTQTEhMB8GCSqGSIb3DQEJARYSbWVA
bXlob3N0Lm15ZG9tYWluMB4XDTE2MDgyOTA0MzUxN1oXDTI2MDgyNzA0MzUxN1ow
HzEdMBsGA1UEAxMUQ2xpZW50MjQ5MUNlcnQwZGY5MDAwggIiMA0GCSqGSIb3DQEB
AQUAA4ICDwAwggIKAoICAQDVsQzBfDeDtKMERX/DBcSw1Nn2Q38tJOsond+X0VZc
yPMRnJ80yQfl0dPGgu9W9vAInxB0EJcLTNOQrmrKZ+jDZGBAOTYlkSef98nGJ5PC
jdBLiKAhZMbkQ1RD7x7V72+oCHScuseg1Ras6YCO/jqHGtEBoUJFK7PSiqCAlWbx
QBhlKrn+KCNnvfTN07JmIYGB++55Dp4qDcimXCdhVx7otOsPpkWTZC5tklDXYkNH
L8mrVKesLAhZuKr7wFoE1tOrrZP5EBrAbrNfpp0TMzFKSVRt8oJk5d8V1CcybGql
WrJq27yiWDSKeGS9HqVWaugdexr03oYUOYHGPhYAvHTOY/P/JAGPvpzoI8VyT5Mg
EbbJClV8YSNBobjNFRS/NwpF9lC0Ku3pJ7QuvtlBP67JC9S2PTCGtAWHdmHQ+Sqw
NNcjuR0Pe3sB9DApvFflqkBx+hIEXCg0hvYAgsxtnfp4QuXzOV/o5bLIcgDfyClt
sNXcnW7m1rUWPDul2d9pVM/IZkO7VOVEd8s04WTTJbUdCIZqfM/dkWU//QBqsvB1
DZpiop0YVmAtDdlD+Rw1zyNNvA+M80NxNBP8xWJIeNLC44aiwwTKRKc3bMrCt/dv
hX6x5CGCeAjSj7bn6hgOAteufHcHDggwj4I3tvJC7y7GxoOJx6QD379BPMr+0T3e
7QIDAQABo4IBYzCCAV8wCQYDVR0TBAIwADAtBglghkgBhvhCAQ0EIBYeRWFzeS1S
U0EgR2VuZXJhdGVkIENlcnRpZmljYXRlMB0GA1UdDgQWBBRSeVVWBjY2ci50tWPM
rKsqwHwP1jCB4QYDVR0jBIHZMIHWgBQSzWAE0qCAnnDtxpm4eyzGUv0ZoaGBsqSB
rzCBrDELMAkGA1UEBhMCVVMxCzAJBgNVBAgTAk9IMREwDwYDVQQHEwhDb2x1bWJ1
czESMBAGA1UEChMJVmlraW5nVlBOMR0wGwYDVQQLExRNeU9yZ2FuaXphdGlvbmFs
VW5pdDEVMBMGA1UEAxMMVmlraW5nVlBOIENBMRAwDgYDVQQpEwdFYXN5UlNBMSEw
HwYJKoZIhvcNAQkBFhJtZUBteWhvc3QubXlkb21haW6CCQDPNYXugL8qPjATBgNV
HSUEDDAKBggrBgEFBQcDAjALBgNVHQ8EBAMCB4AwDQYJKoZIhvcNAQELBQADggIB
AEJZIG0Yw0I2duRz2+DuWMQAM9ktbinDsSl+tYh/vqdEm58tPD8P9cJP/a1nBYbY
hEmqA5jdMGzugkv+UXzxnV/wma741sDZb2xcb9XI4NI7hJKZ/1iYsCl+Wt/fRzNG
gZo+9JGNrtzzKZvFN30VA5iB078cgJ4YHyeifLQO3nJIJh0OwKF+whLZyKLWfg0A
+5S2bVK6cdlXrgEmi8+Up9SjR9IKMT3VhLm9c8NqObs0qJn/BnfT+ROoEy3vwt9C
zcUczV6jK+84sUMu747pfcVQf524RHizFA/CfcxfUCX3vhIK6sGtodXECh7Uv6uz
TU8YoO9i9zy+Rs95yloXbiaegqUKl0xrIir4alwOT4bPRgh9NdFtFbt9zvNbfPkw
5V56e7P8If6BtTLCAADdVjb0Q8bgZRAKM1M/WyCdWDl3Vf3N4Pc+ieep/aeoR1Yn
tEP3jDFl+25YP/UyR516m91i3+zMJ7bDyFf381aoFrzE6Rb+hCjdDoUlkXn3etQb
M/hDkrxGvrz0AnoLum5AWSkQuLNM5CT0x5wrZcIMQIRzGMYIM3SKKjQhow4j93MW
X3ptO0MAHnxOQecU4h9m+EFM6nTZR6kjeroOEaWHobDki3ZhvtbRDpQ3tNKibRn6
GcqkMTvYOqiFvb89pGCCzn0vew5utC8rHHeVN8tXKrvO
-----END CERTIFICATE-----
