Certificate:
    Data:
        Version: 3 (0x2)
        Serial Number: 8948 (0x22f4)
    Signature Algorithm: sha256WithRSAEncryption
        Issuer: C=US, ST=OH, L=Columbus, O=VikingVPN, OU=MyOrganizationalUnit, CN=VikingVPN CA/name=EasyRSA/emailAddress=me@myhost.mydomain
        Validity
            Not Before: Aug 29 20:55:52 2016 GMT
            Not After : Aug 27 20:55:52 2026 GMT
        Subject: CN=Client1696Cert68568b
        Subject Public Key Info:
            Public Key Algorithm: rsaEncryption
                Public-Key: (4096 bit)
                Modulus:
                    00:c9:d9:a9:ac:a4:7c:5f:9a:c5:94:5f:63:0f:85:
                    67:00:3f:db:b1:30:b9:c6:e1:ec:6f:4a:72:c2:8d:
                    4f:39:8d:b2:f3:1c:e7:3f:3e:13:ab:ae:6b:cd:d0:
                    db:df:0c:52:66:42:0b:84:68:07:5d:8a:99:ee:02:
                    86:80:1e:b5:47:65:6a:42:a2:1c:e0:88:c4:9c:f7:
                    d5:11:71:07:7c:d3:22:a3:cb:10:d0:be:ec:7b:9f:
                    bb:08:17:29:d3:37:6b:f1:31:86:45:13:d5:b3:c3:
                    ef:c8:9e:23:5c:fb:a4:d6:27:f2:c5:be:48:52:65:
                    31:25:6a:7f:da:f2:71:60:cc:b8:c1:d7:a4:19:6d:
                    37:99:2e:21:1f:30:9e:bc:71:34:95:46:db:90:88:
                    d0:df:45:09:d1:11:e1:76:5e:29:12:f5:65:f9:d6:
                    c4:f9:97:5a:4a:4b:af:ff:c9:0a:83:b2:92:96:6b:
                    bc:25:1a:bd:92:b4:17:74:fc:c6:b7:a9:b6:7c:df:
                    d8:24:36:be:ed:75:44:5d:e1:be:e6:aa:bf:3c:aa:
                    54:d5:31:43:43:c4:45:6c:b2:30:82:ea:d7:f6:86:
                    85:a1:c7:9e:1d:40:76:ae:b1:ca:3e:56:cb:13:26:
                    e8:0f:fe:85:f3:10:1d:7f:82:3a:73:a6:ff:14:b5:
                    bc:96:51:b5:4a:75:8f:52:17:15:d1:50:de:c1:6c:
                    a1:e7:fe:10:e1:ff:2f:93:7f:e2:2b:36:d7:41:f9:
                    37:ee:4c:c7:a6:86:65:5f:61:89:5e:cf:32:9a:a8:
                    13:6e:c3:6d:3a:10:58:3a:c8:f1:9a:6e:46:de:94:
                    14:ee:44:c1:72:49:12:fd:41:5a:97:99:83:7c:19:
                    e0:ba:1e:a9:e8:e4:cd:6d:2f:ad:55:8a:a5:b5:64:
                    65:6e:ec:46:ea:4c:4a:47:10:74:d9:08:c4:b2:ff:
                    23:30:35:80:8a:bf:74:b4:6e:b8:72:2c:fc:2f:79:
                    8e:d3:85:cb:af:d9:ea:a8:3d:b5:18:c0:5f:de:7f:
                    b8:1c:3a:a4:6e:7c:aa:82:9b:4c:73:71:7f:a7:89:
                    88:4b:63:81:44:c8:a3:0c:37:b2:06:6c:03:ec:b7:
                    4a:af:55:d2:79:8f:6f:9d:f1:00:86:11:3b:60:2d:
                    d1:dd:6d:d8:99:55:65:57:a8:d6:9d:45:cf:cf:62:
                    89:8e:d5:0f:2d:bc:8e:a5:b2:65:ea:e1:03:4a:b2:
                    a9:f7:aa:d6:4e:86:19:78:06:8a:46:41:54:79:4b:
                    79:55:2f:fc:10:9a:8c:ff:21:f8:f2:25:49:b3:47:
                    a7:f5:2a:c4:d0:86:e1:32:d1:02:dd:f6:4c:01:0a:
                    0b:48:6d
                Exponent: 65537 (0x10001)
        X509v3 extensions:
            X509v3 Basic Constraints: 
                CA:FALSE
            Netscape Comment: 
                Easy-RSA Generated Certificate
            X509v3 Subject Key Identifier: 
                94:25:B8:7F:73:83:4A:A3:E8:69:A9:55:E1:41:81:3A:4A:0D:9D:D7
            X509v3 Authority Key Identifier: 
                keyid:12:CD:60:04:D2:A0:80:9E:70:ED:C6:99:B8:7B:2C:C6:52:FD:19:A1
                DirName:/C=US/ST=OH/L=Columbus/O=VikingVPN/OU=MyOrganizationalUnit/CN=VikingVPN CA/name=EasyRSA/emailAddress=me@myhost.mydomain
                serial:CF:35:85:EE:80:BF:2A:3E

            X509v3 Extended Key Usage: 
                TLS Web Client Authentication
            X509v3 Key Usage: 
                Digital Signature
    Signature Algorithm: sha256WithRSAEncryption
         86:65:be:d0:e4:3f:23:e1:4c:c4:c5:2b:31:08:ef:92:38:72:
         63:18:f3:c4:a2:83:61:f2:9a:20:89:43:24:d0:90:dd:5b:c4:
         45:cf:a8:ee:d1:91:cc:6e:cf:b4:35:46:f3:bc:a6:f7:d6:58:
         b0:96:d3:71:d6:5b:31:b9:24:d4:80:6b:ee:e2:15:aa:a6:83:
         5a:f0:28:0b:6a:c5:55:73:79:02:01:c4:c4:11:90:84:07:3c:
         3a:5e:db:27:ac:f0:2a:88:ad:97:97:80:55:75:bb:3e:e1:b5:
         2e:5b:4d:18:52:d5:4b:ab:af:c9:91:dd:31:2f:0d:78:ef:8e:
         a8:47:c7:d5:52:1b:9f:cf:79:a0:45:d0:03:2c:da:75:fc:04:
         03:5e:d4:89:4f:90:ab:67:a2:c0:86:4d:b8:21:bc:26:93:9d:
         6d:8c:a9:4d:f3:b4:7d:98:a7:1c:03:8c:2a:e7:0a:d5:3f:40:
         f4:80:e1:13:d0:e7:65:8b:09:99:7a:15:5b:15:3d:06:69:71:
         16:10:39:7b:c9:43:d3:c3:3a:da:16:06:d4:0b:27:72:29:23:
         d7:89:b3:da:eb:12:51:02:0c:7c:31:5b:8a:61:c7:75:a8:d8:
         db:fb:5b:c1:03:4f:39:d1:cc:69:10:7a:47:93:5a:2c:6c:1f:
         bf:58:bd:e2:6d:9d:2d:bf:23:d3:4f:a7:1f:7f:c5:f0:f8:fb:
         f3:c4:4c:89:bd:15:14:c8:73:8d:af:7f:9e:30:4e:a7:e4:7f:
         b0:c2:b1:9b:36:9c:61:d9:65:f3:82:61:fe:f2:28:11:0a:60:
         db:72:12:bd:4a:0e:58:b8:63:d9:df:a2:85:3f:38:74:37:9f:
         d9:cc:19:82:d2:b2:0a:85:81:0b:de:e4:a6:0d:da:29:d8:0a:
         83:5b:a1:c2:e2:8b:0b:f9:e5:b3:e2:10:68:1c:1c:55:2e:5d:
         c8:fb:b6:35:d6:d0:5d:69:43:13:e1:23:55:3d:98:07:f4:4b:
         d9:e5:05:f4:fc:bd:24:6d:0a:6d:a5:19:11:a6:45:84:6b:44:
         43:86:89:02:f6:95:af:d8:7a:b9:71:e5:58:bd:5d:29:42:82:
         82:16:7f:f0:82:9c:de:30:88:76:cc:0c:97:ad:6d:0f:68:cc:
         6f:81:2d:65:4e:64:9d:be:60:f8:67:64:b1:84:44:a5:e5:1c:
         4e:99:93:d1:ef:25:61:0e:be:19:3d:87:e4:9a:b7:eb:da:14:
         b4:bc:1b:2a:b2:e7:ee:b6:ca:95:1e:8e:ed:b8:08:84:62:aa:
         7f:93:fe:c3:bb:18:13:aa:ba:8a:a9:94:eb:30:3a:2b:c7:61:
         5c:b9:8f:61:6d:5a:d1:0d
-----BEGIN CERTIFICATE-----
MIIGrTCCBJWgAwIBAgICIvQwDQYJKoZIhvcNAQELBQAwgawxCzAJBgNVBAYTAlVT
MQswCQYDVQQIEwJPSDERMA8GA1UEBxMIQ29sdW1idXMxEjAQBgNVBAoTCVZpa2lu
Z1ZQTjEdMBsGA1UECxMUTXlPcmdhbml6YXRpb25hbFVuaXQxFTATBgNVBAMTDFZp
a2luZ1ZQTiBDQTEQMA4GA1UEKRMHRWFzeVJTQTEhMB8GCSqGSIb3DQEJARYSbWVA
bXlob3N0Lm15ZG9tYWluMB4XDTE2MDgyOTIwNTU1MloXDTI2MDgyNzIwNTU1Mlow
HzEdMBsGA1UEAxMUQ2xpZW50MTY5NkNlcnQ2ODU2OGIwggIiMA0GCSqGSIb3DQEB
AQUAA4ICDwAwggIKAoICAQDJ2amspHxfmsWUX2MPhWcAP9uxMLnG4exvSnLCjU85
jbLzHOc/PhOrrmvN0NvfDFJmQguEaAddipnuAoaAHrVHZWpCohzgiMSc99URcQd8
0yKjyxDQvux7n7sIFynTN2vxMYZFE9Wzw+/IniNc+6TWJ/LFvkhSZTElan/a8nFg
zLjB16QZbTeZLiEfMJ68cTSVRtuQiNDfRQnREeF2XikS9WX51sT5l1pKS6//yQqD
spKWa7wlGr2StBd0/Ma3qbZ839gkNr7tdURd4b7mqr88qlTVMUNDxEVssjCC6tf2
hoWhx54dQHausco+VssTJugP/oXzEB1/gjpzpv8UtbyWUbVKdY9SFxXRUN7BbKHn
/hDh/y+Tf+IrNtdB+TfuTMemhmVfYYlezzKaqBNuw206EFg6yPGabkbelBTuRMFy
SRL9QVqXmYN8GeC6Hqno5M1tL61ViqW1ZGVu7EbqTEpHEHTZCMSy/yMwNYCKv3S0
brhyLPwveY7Thcuv2eqoPbUYwF/ef7gcOqRufKqCm0xzcX+niYhLY4FEyKMMN7IG
bAPst0qvVdJ5j2+d8QCGETtgLdHdbdiZVWVXqNadRc/PYomO1Q8tvI6lsmXq4QNK
sqn3qtZOhhl4BopGQVR5S3lVL/wQmoz/IfjyJUmzR6f1KsTQhuEy0QLd9kwBCgtI
bQIDAQABo4IBYzCCAV8wCQYDVR0TBAIwADAtBglghkgBhvhCAQ0EIBYeRWFzeS1S
U0EgR2VuZXJhdGVkIENlcnRpZmljYXRlMB0GA1UdDgQWBBSUJbh/c4NKo+hpqVXh
QYE6Sg2d1zCB4QYDVR0jBIHZMIHWgBQSzWAE0qCAnnDtxpm4eyzGUv0ZoaGBsqSB
rzCBrDELMAkGA1UEBhMCVVMxCzAJBgNVBAgTAk9IMREwDwYDVQQHEwhDb2x1bWJ1
czESMBAGA1UEChMJVmlraW5nVlBOMR0wGwYDVQQLExRNeU9yZ2FuaXphdGlvbmFs
VW5pdDEVMBMGA1UEAxMMVmlraW5nVlBOIENBMRAwDgYDVQQpEwdFYXN5UlNBMSEw
HwYJKoZIhvcNAQkBFhJtZUBteWhvc3QubXlkb21haW6CCQDPNYXugL8qPjATBgNV
HSUEDDAKBggrBgEFBQcDAjALBgNVHQ8EBAMCB4AwDQYJKoZIhvcNAQELBQADggIB
AIZlvtDkPyPhTMTFKzEI75I4cmMY88Sig2HymiCJQyTQkN1bxEXPqO7Rkcxuz7Q1
RvO8pvfWWLCW03HWWzG5JNSAa+7iFaqmg1rwKAtqxVVzeQIBxMQRkIQHPDpe2yes
8CqIrZeXgFV1uz7htS5bTRhS1Uurr8mR3TEvDXjvjqhHx9VSG5/PeaBF0AMs2nX8
BANe1IlPkKtnosCGTbghvCaTnW2MqU3ztH2YpxwDjCrnCtU/QPSA4RPQ52WLCZl6
FVsVPQZpcRYQOXvJQ9PDOtoWBtQLJ3IpI9eJs9rrElECDHwxW4phx3Wo2Nv7W8ED
TznRzGkQekeTWixsH79YveJtnS2/I9NPpx9/xfD4+/PETIm9FRTIc42vf54wTqfk
f7DCsZs2nGHZZfOCYf7yKBEKYNtyEr1KDli4Y9nfooU/OHQ3n9nMGYLSsgqFgQve
5KYN2inYCoNbocLiiwv55bPiEGgcHFUuXcj7tjXW0F1pQxPhI1U9mAf0S9nlBfT8
vSRtCm2lGRGmRYRrREOGiQL2la/Yerlx5Vi9XSlCgoIWf/CCnN4wiHbMDJetbQ9o
zG+BLWVOZJ2+YPhnZLGERKXlHE6Zk9HvJWEOvhk9h+Sat+vaFLS8Gyqy5+62ypUe
ju24CIRiqn+T/sO7GBOquoqplOswOivHYVy5j2FtWtEN
-----END CERTIFICATE-----
