Certificate:
    Data:
        Version: 3 (0x2)
        Serial Number: 8951 (0x22f7)
    Signature Algorithm: sha256WithRSAEncryption
        Issuer: C=US, ST=OH, L=Columbus, O=VikingVPN, OU=MyOrganizationalUnit, CN=VikingVPN CA/name=EasyRSA/emailAddress=me@myhost.mydomain
        Validity
            Not Before: Aug 30 10:00:31 2016 GMT
            Not After : Aug 28 10:00:31 2026 GMT
        Subject: CN=Client2380Certdcb80c
        Subject Public Key Info:
            Public Key Algorithm: rsaEncryption
                Public-Key: (4096 bit)
                Modulus:
                    00:bb:f4:05:ee:1c:d0:74:17:7c:73:6a:8b:52:3f:
                    fc:d0:c9:43:36:7c:c5:fe:95:88:70:4b:9e:f1:ff:
                    c6:12:44:f4:a8:d3:65:d0:96:3f:b2:8d:a2:f7:0f:
                    17:28:c7:f2:63:2b:c7:7a:64:3a:4a:95:d2:91:7d:
                    f1:0c:c0:1c:6b:fc:ba:be:e2:21:f8:98:2a:82:14:
                    fb:a6:94:a0:89:89:54:f8:a1:00:86:4d:6d:b5:72:
                    7c:ec:42:55:ca:71:c4:4d:b3:bd:27:70:37:6a:04:
                    15:5a:35:b5:29:42:43:78:df:3f:dc:2d:36:81:76:
                    e1:6d:a5:64:10:8d:f1:fe:50:d7:65:74:28:06:42:
                    3c:d3:ec:00:80:84:3d:35:0b:ca:86:bc:27:d5:ec:
                    18:17:a9:74:9c:77:3a:cb:43:8e:06:f7:4a:83:98:
                    ed:3e:42:d8:e7:08:8e:23:33:45:34:6b:2d:6d:72:
                    3d:44:6d:9d:4a:05:21:0f:e3:27:4c:cf:5d:2b:3f:
                    e5:ee:0f:33:a4:fe:81:75:ef:dd:e5:de:e0:67:2a:
                    a6:f4:a1:20:61:b5:1c:34:68:c7:16:1b:af:dd:08:
                    70:0f:b4:94:a2:72:6d:f6:13:9a:a1:22:60:88:dc:
                    17:9f:a1:bc:f7:76:d1:83:19:93:19:85:ca:92:f4:
                    16:6c:b4:49:3a:af:93:3e:38:d0:8e:a3:bf:34:89:
                    e1:93:83:66:2a:ee:85:61:b4:e0:d0:5b:0b:61:28:
                    c3:71:26:90:e4:bc:e5:ae:43:23:82:b8:69:28:7c:
                    db:c9:73:3e:0c:55:10:0a:a5:d1:b0:22:c7:88:7a:
                    5c:c9:be:c3:91:82:01:78:74:cc:7d:cb:b8:e9:cc:
                    1b:d1:42:87:f2:4e:9d:20:f5:ce:1c:ab:bf:56:55:
                    b3:e1:46:d3:b1:7a:3d:29:b9:35:0a:76:d5:b8:38:
                    26:69:7f:11:10:e2:61:1e:ec:dd:e9:07:b2:98:17:
                    c3:c9:ab:4e:c0:9b:cc:0d:d1:05:4f:39:47:8a:00:
                    45:d0:59:50:d0:ab:91:51:89:8b:ed:fa:a7:de:c7:
                    41:df:24:e5:2f:b6:f1:0d:d9:6f:04:6d:fb:d5:0c:
                    9c:a1:a2:71:23:a8:3c:48:51:35:68:75:1f:da:a8:
                    f6:60:ea:d3:20:04:6f:83:1f:41:f6:52:ab:f3:94:
                    4e:61:a9:9e:b6:ea:b4:71:71:1d:d5:f4:28:b4:e0:
                    70:54:0a:c9:49:77:50:95:07:d5:97:2f:e1:bf:ec:
                    ba:47:1b:13:fc:00:20:46:7c:dd:d8:68:63:b6:15:
                    cc:b1:cd:e5:37:d9:2d:5d:5b:17:81:45:34:75:eb:
                    a4:3e:0f
                Exponent: 65537 (0x10001)
        X509v3 extensions:
            X509v3 Basic Constraints: 
                CA:FALSE
            Netscape Comment: 
                Easy-RSA Generated Certificate
            X509v3 Subject Key Identifier: 
                89:B8:90:AC:D4:4D:9E:48:6B:9B:34:A4:28:22:CD:D2:35:33:08:5D
            X509v3 Authority Key Identifier: 
                keyid:12:CD:60:04:D2:A0:80:9E:70:ED:C6:99:B8:7B:2C:C6:52:FD:19:A1
                DirName:/C=US/ST=OH/L=Columbus/O=VikingVPN/OU=MyOrganizationalUnit/CN=VikingVPN CA/name=EasyRSA/emailAddress=me@myhost.mydomain
                serial:CF:35:85:EE:80:BF:2A:3E

            X509v3 Extended Key Usage: 
                TLS Web Client Authentication
            X509v3 Key Usage: 
                Digital Signature
    Signature Algorithm: sha256WithRSAEncryption
         10:45:16:f3:f0:53:53:1d:48:09:86:88:e1:65:ad:48:c4:47:
         b4:d7:28:f7:0f:2a:cc:e9:4b:94:08:73:9c:17:d6:af:dd:7b:
         f6:8e:ae:eb:76:be:53:67:26:b3:73:7b:16:fc:af:f1:3f:be:
         e2:a8:60:2b:11:b5:1c:bc:41:38:d7:fc:e0:00:96:7e:2b:6d:
         7b:3e:74:5b:14:8f:92:b8:58:f0:91:3f:50:a9:26:fc:a0:74:
         65:7a:59:c6:17:0c:b5:98:77:c1:ba:df:bc:15:4f:a9:4e:df:
         43:b8:89:05:88:c9:80:64:0b:86:3d:ec:d1:29:fa:77:43:c1:
         a9:13:32:e3:50:46:8f:12:36:ac:d9:43:58:df:4c:a5:1e:be:
         8f:24:16:c8:1b:2a:2b:0f:c6:02:5f:d8:3f:cc:41:d9:fa:05:
         2c:c7:99:e8:68:7e:40:1b:33:57:7a:b1:c7:49:c1:b8:4e:b4:
         6e:56:e3:93:5d:4e:90:df:ed:18:87:7f:e9:92:1d:ae:c6:ec:
         b1:3b:58:cb:f4:61:43:e2:7c:df:c1:36:98:1b:c1:9b:5e:09:
         a6:fd:d0:63:b2:58:77:49:86:de:b9:db:45:4a:a2:aa:f5:ce:
         ba:d7:a3:d9:43:dc:6d:16:51:ef:41:be:92:52:cb:31:b8:57:
         2f:9a:6f:05:12:6a:32:81:a8:19:2d:41:b4:bf:81:26:49:95:
         f9:de:d0:93:62:33:cd:d9:2c:11:e8:ab:58:e4:c4:92:ca:20:
         78:78:c9:39:9a:fc:7f:46:8f:32:45:07:9e:9b:c0:fa:02:a6:
         c3:22:09:d2:2e:44:03:21:75:2c:e8:df:2f:e4:d8:e2:3d:4d:
         32:1e:2d:27:15:6c:16:c1:88:62:5b:34:eb:61:16:93:8a:f7:
         b9:76:a9:6a:e6:c1:5f:cf:04:dc:69:d0:36:a4:0e:b5:88:c9:
         f7:4a:92:92:ae:1c:98:47:35:bf:14:d6:5f:fd:e3:59:3b:11:
         0b:d0:c5:87:0a:55:cb:44:cd:18:76:14:ad:4a:83:fb:15:d1:
         d0:a2:ea:3d:68:73:28:40:e8:53:2c:b0:a5:28:38:b6:d4:ab:
         31:74:c4:e9:2d:9c:32:24:08:24:d2:76:6a:a8:7f:df:b6:ce:
         c2:4f:a1:2c:44:56:72:d4:00:08:6a:2b:37:89:ea:5e:74:30:
         ce:b8:31:a9:17:17:0e:a5:07:f9:8a:a5:3c:70:d9:11:87:73:
         9f:f1:90:20:3a:13:d6:a5:08:7d:78:80:1b:10:70:37:e9:71:
         24:71:a0:a0:01:05:c8:c0:7f:33:3d:b2:1e:d1:7a:84:22:ad:
         63:0d:91:82:2d:da:42:94
-----BEGIN CERTIFICATE-----
MIIGrTCCBJWgAwIBAgICIvcwDQYJKoZIhvcNAQELBQAwgawxCzAJBgNVBAYTAlVT
MQswCQYDVQQIEwJPSDERMA8GA1UEBxMIQ29sdW1idXMxEjAQBgNVBAoTCVZpa2lu
Z1ZQTjEdMBsGA1UECxMUTXlPcmdhbml6YXRpb25hbFVuaXQxFTATBgNVBAMTDFZp
a2luZ1ZQTiBDQTEQMA4GA1UEKRMHRWFzeVJTQTEhMB8GCSqGSIb3DQEJARYSbWVA
bXlob3N0Lm15ZG9tYWluMB4XDTE2MDgzMDEwMDAzMVoXDTI2MDgyODEwMDAzMVow
HzEdMBsGA1UEAxMUQ2xpZW50MjM4MENlcnRkY2I4MGMwggIiMA0GCSqGSIb3DQEB
AQUAA4ICDwAwggIKAoICAQC79AXuHNB0F3xzaotSP/zQyUM2fMX+lYhwS57x/8YS
RPSo02XQlj+yjaL3Dxcox/JjK8d6ZDpKldKRffEMwBxr/Lq+4iH4mCqCFPumlKCJ
iVT4oQCGTW21cnzsQlXKccRNs70ncDdqBBVaNbUpQkN43z/cLTaBduFtpWQQjfH+
UNdldCgGQjzT7ACAhD01C8qGvCfV7BgXqXScdzrLQ44G90qDmO0+QtjnCI4jM0U0
ay1tcj1EbZ1KBSEP4ydMz10rP+XuDzOk/oF1793l3uBnKqb0oSBhtRw0aMcWG6/d
CHAPtJSicm32E5qhImCI3Befobz3dtGDGZMZhcqS9BZstEk6r5M+ONCOo780ieGT
g2Yq7oVhtODQWwthKMNxJpDkvOWuQyOCuGkofNvJcz4MVRAKpdGwIseIelzJvsOR
ggF4dMx9y7jpzBvRQofyTp0g9c4cq79WVbPhRtOxej0puTUKdtW4OCZpfxEQ4mEe
7N3pB7KYF8PJq07Am8wN0QVPOUeKAEXQWVDQq5FRiYvt+qfex0HfJOUvtvEN2W8E
bfvVDJyhonEjqDxIUTVodR/aqPZg6tMgBG+DH0H2UqvzlE5hqZ626rRxcR3V9Ci0
4HBUCslJd1CVB9WXL+G/7LpHGxP8ACBGfN3YaGO2FcyxzeU32S1dWxeBRTR166Q+
DwIDAQABo4IBYzCCAV8wCQYDVR0TBAIwADAtBglghkgBhvhCAQ0EIBYeRWFzeS1S
U0EgR2VuZXJhdGVkIENlcnRpZmljYXRlMB0GA1UdDgQWBBSJuJCs1E2eSGubNKQo
Is3SNTMIXTCB4QYDVR0jBIHZMIHWgBQSzWAE0qCAnnDtxpm4eyzGUv0ZoaGBsqSB
rzCBrDELMAkGA1UEBhMCVVMxCzAJBgNVBAgTAk9IMREwDwYDVQQHEwhDb2x1bWJ1
czESMBAGA1UEChMJVmlraW5nVlBOMR0wGwYDVQQLExRNeU9yZ2FuaXphdGlvbmFs
VW5pdDEVMBMGA1UEAxMMVmlraW5nVlBOIENBMRAwDgYDVQQpEwdFYXN5UlNBMSEw
HwYJKoZIhvcNAQkBFhJtZUBteWhvc3QubXlkb21haW6CCQDPNYXugL8qPjATBgNV
HSUEDDAKBggrBgEFBQcDAjALBgNVHQ8EBAMCB4AwDQYJKoZIhvcNAQELBQADggIB
ABBFFvPwU1MdSAmGiOFlrUjER7TXKPcPKszpS5QIc5wX1q/de/aOrut2vlNnJrNz
exb8r/E/vuKoYCsRtRy8QTjX/OAAln4rbXs+dFsUj5K4WPCRP1CpJvygdGV6WcYX
DLWYd8G637wVT6lO30O4iQWIyYBkC4Y97NEp+ndDwakTMuNQRo8SNqzZQ1jfTKUe
vo8kFsgbKisPxgJf2D/MQdn6BSzHmehofkAbM1d6scdJwbhOtG5W45NdTpDf7RiH
f+mSHa7G7LE7WMv0YUPifN/BNpgbwZteCab90GOyWHdJht6520VKoqr1zrrXo9lD
3G0WUe9BvpJSyzG4Vy+abwUSajKBqBktQbS/gSZJlfne0JNiM83ZLBHoq1jkxJLK
IHh4yTma/H9GjzJFB56bwPoCpsMiCdIuRAMhdSzo3y/k2OI9TTIeLScVbBbBiGJb
NOthFpOK97l2qWrmwV/PBNxp0DakDrWIyfdKkpKuHJhHNb8U1l/941k7EQvQxYcK
VctEzRh2FK1Kg/sV0dCi6j1ocyhA6FMssKUoOLbUqzF0xOktnDIkCCTSdmqof9+2
zsJPoSxEVnLUAAhqKzeJ6l50MM64MakXFw6lB/mKpTxw2RGHc5/xkCA6E9alCH14
gBsQcDfpcSRxoKABBcjAfzM9sh7ReoQirWMNkYIt2kKU
-----END CERTIFICATE-----
