Certificate:
    Data:
        Version: 3 (0x2)
        Serial Number: 8976 (0x2310)
    Signature Algorithm: sha256WithRSAEncryption
        Issuer: C=US, ST=OH, L=Columbus, O=VikingVPN, OU=MyOrganizationalUnit, CN=VikingVPN CA/name=EasyRSA/emailAddress=me@myhost.mydomain
        Validity
            Not Before: Sep  3 23:47:15 2016 GMT
            Not After : Sep  1 23:47:15 2026 GMT
        Subject: CN=Client2167Cert091ae9
        Subject Public Key Info:
            Public Key Algorithm: rsaEncryption
                Public-Key: (4096 bit)
                Modulus:
                    00:c7:41:ac:5f:ce:5c:ad:d5:aa:fb:28:a6:49:7a:
                    af:df:ca:2e:41:cd:2f:f6:ab:af:90:38:a5:fe:de:
                    da:d5:40:04:9c:6c:ec:6e:29:fd:58:e1:58:52:c8:
                    47:40:b1:43:4d:4f:ec:2f:fa:a4:46:bd:a8:e9:01:
                    f5:f5:88:61:38:0b:96:3a:f5:28:65:2e:d4:11:60:
                    47:ce:7b:ac:44:5d:12:a5:5d:90:ec:06:89:54:7b:
                    1f:ef:14:3b:73:b7:ad:ea:0d:45:40:e7:f8:4c:21:
                    1d:9a:ad:7d:5a:2c:ea:ed:2d:1e:00:ca:a1:93:36:
                    21:04:c6:87:b7:91:d4:06:a6:2a:1f:7c:a2:44:a6:
                    d8:dd:53:97:39:16:52:c8:5c:59:e9:4c:07:ee:56:
                    6d:90:44:8a:91:27:e2:d3:09:fe:80:16:3d:e8:7d:
                    66:89:ab:50:61:49:e9:7c:73:55:be:02:fe:b2:b6:
                    ed:bd:45:a3:c4:5d:25:42:e9:3f:94:c7:4f:49:13:
                    38:c7:56:ad:d6:b0:97:46:89:20:c2:ee:ad:04:0c:
                    7a:78:e3:11:9e:1d:c7:24:ff:9a:84:cf:26:b1:fe:
                    f4:65:5d:09:13:ef:b2:d5:51:19:33:d8:fe:bb:08:
                    13:d0:07:9b:b1:70:90:e7:6e:ef:b9:1c:cc:24:e3:
                    82:1b:ce:6e:46:48:9c:e4:72:62:24:5c:65:f1:5d:
                    18:9b:3e:a6:dc:aa:6f:e8:52:ce:ee:7a:c8:4f:4e:
                    a9:1b:d6:e1:3c:76:e6:98:da:cd:a1:6e:1b:e7:6d:
                    d4:4e:16:21:f1:7f:65:2d:10:36:6a:cd:ed:d7:64:
                    07:3f:0f:68:94:eb:47:cd:b6:52:72:8b:5e:58:be:
                    68:19:3c:b0:58:74:98:86:1d:98:55:fa:3d:2a:76:
                    f5:4c:b5:17:1d:64:8e:f6:96:d8:c8:94:74:0b:29:
                    bf:83:83:da:98:c3:80:62:d1:dd:ce:8c:10:d5:ea:
                    dc:89:83:56:98:9a:fd:31:ca:fb:ba:aa:bc:06:dd:
                    f3:ad:1c:eb:05:3c:e3:04:c8:11:e7:4d:3a:d1:5a:
                    54:63:ff:c7:59:a7:57:a2:7b:3f:1d:54:8e:40:4b:
                    6e:41:32:98:52:85:e6:de:f0:59:12:85:0f:09:f2:
                    c7:c3:48:59:d2:9b:85:5f:00:c0:a2:80:dd:20:cc:
                    33:b9:01:4b:c2:f8:83:60:3f:7d:fb:89:5c:47:c9:
                    b6:3f:49:02:d7:0c:8b:70:65:7d:19:a9:da:ec:f5:
                    9a:e9:a6:fb:32:a2:9a:e8:59:1b:e5:42:6e:e5:de:
                    35:0d:7e:b0:d4:f5:ae:26:2b:78:29:63:80:34:5b:
                    2c:60:8d
                Exponent: 65537 (0x10001)
        X509v3 extensions:
            X509v3 Basic Constraints: 
                CA:FALSE
            Netscape Comment: 
                Easy-RSA Generated Certificate
            X509v3 Subject Key Identifier: 
                E4:A0:33:2B:F3:0F:67:FA:24:44:06:79:1C:E7:CD:93:37:D5:56:04
            X509v3 Authority Key Identifier: 
                keyid:12:CD:60:04:D2:A0:80:9E:70:ED:C6:99:B8:7B:2C:C6:52:FD:19:A1
                DirName:/C=US/ST=OH/L=Columbus/O=VikingVPN/OU=MyOrganizationalUnit/CN=VikingVPN CA/name=EasyRSA/emailAddress=me@myhost.mydomain
                serial:CF:35:85:EE:80:BF:2A:3E

            X509v3 Extended Key Usage: 
                TLS Web Client Authentication
            X509v3 Key Usage: 
                Digital Signature
    Signature Algorithm: sha256WithRSAEncryption
         de:57:79:12:1b:d3:6a:d8:3d:79:96:71:f4:a2:b4:9b:35:9a:
         b5:3a:ad:7a:04:5b:de:d4:3c:03:f4:d0:3e:08:f1:53:d4:eb:
         e1:9c:bc:9a:18:08:4d:09:ee:92:0a:38:e4:db:d7:f0:93:94:
         aa:1d:da:5f:3c:f8:f7:f9:06:29:d1:90:f6:da:4c:e1:bf:c4:
         ae:0d:4d:d5:6d:95:a8:56:92:58:3a:ad:d4:08:32:a6:e1:5c:
         22:51:3c:b3:fb:4e:1a:fd:80:a9:68:25:b5:1c:56:db:7c:be:
         2d:94:27:d0:00:74:af:d9:3f:42:78:2f:ae:81:7c:73:ef:d5:
         63:7b:58:2c:de:58:df:5b:93:96:04:38:a0:76:b1:73:f1:2a:
         70:a4:76:59:e4:6b:25:f4:1b:12:d1:cb:0e:46:1a:a6:9e:7d:
         34:10:51:3e:28:30:b0:72:b8:e9:5b:6f:d7:51:ab:69:84:65:
         f0:54:58:f7:05:3f:49:7f:33:10:53:8a:c8:71:2d:8e:77:aa:
         ff:f4:82:85:cd:24:ca:00:ba:20:0a:5a:85:22:5f:35:9c:29:
         f1:d8:b9:83:53:1e:f6:04:2c:a2:f4:e9:84:0d:b2:13:82:cd:
         28:f7:c6:8d:e6:83:a0:91:04:30:a2:04:a6:da:6b:e8:71:53:
         d8:9c:ae:75:5f:1f:47:d0:11:6f:36:6d:4f:89:5e:35:cf:90:
         cf:42:b3:e1:99:7e:ae:dd:15:79:a9:d7:99:c9:05:a0:a5:6f:
         da:c4:85:0f:9a:f4:23:6e:e6:2f:16:bc:4b:eb:eb:0c:3b:8c:
         db:a3:9e:85:91:bf:2f:4e:d1:82:f8:01:92:ee:49:a2:39:90:
         5e:a5:cb:e4:13:fa:a2:79:95:bf:64:62:23:6b:de:60:7c:99:
         4c:10:89:3a:24:de:a5:88:72:11:5b:7e:1d:d8:d1:0a:8a:c6:
         d6:16:67:a5:63:96:9e:72:eb:24:00:9e:f8:48:03:6c:e3:60:
         48:65:ae:2d:e4:90:bb:66:15:8e:24:8d:3a:24:40:d2:1e:23:
         c4:35:6d:cc:99:cc:c9:59:89:8f:2a:2c:b8:b0:80:3d:d1:e5:
         55:ed:f0:2b:5d:d6:71:07:fa:12:9a:9b:74:68:cd:cd:23:c8:
         8d:5e:fd:56:7f:30:d7:2c:69:ae:6c:83:80:1f:6f:89:ce:0b:
         32:73:0a:2d:b5:cd:fc:eb:d9:6b:1b:98:6a:98:c6:c1:d9:d7:
         41:50:63:68:82:bf:d1:be:2f:53:14:2b:dd:e9:96:a6:ca:22:
         db:c3:b5:fe:40:73:71:73:f4:cc:29:3f:c5:9d:d9:75:60:53:
         17:fe:9d:2c:fb:c0:a3:eb
-----BEGIN CERTIFICATE-----
MIIGrTCCBJWgAwIBAgICIxAwDQYJKoZIhvcNAQELBQAwgawxCzAJBgNVBAYTAlVT
MQswCQYDVQQIEwJPSDERMA8GA1UEBxMIQ29sdW1idXMxEjAQBgNVBAoTCVZpa2lu
Z1ZQTjEdMBsGA1UECxMUTXlPcmdhbml6YXRpb25hbFVuaXQxFTATBgNVBAMTDFZp
a2luZ1ZQTiBDQTEQMA4GA1UEKRMHRWFzeVJTQTEhMB8GCSqGSIb3DQEJARYSbWVA
bXlob3N0Lm15ZG9tYWluMB4XDTE2MDkwMzIzNDcxNVoXDTI2MDkwMTIzNDcxNVow
HzEdMBsGA1UEAxMUQ2xpZW50MjE2N0NlcnQwOTFhZTkwggIiMA0GCSqGSIb3DQEB
AQUAA4ICDwAwggIKAoICAQDHQaxfzlyt1ar7KKZJeq/fyi5BzS/2q6+QOKX+3trV
QAScbOxuKf1Y4VhSyEdAsUNNT+wv+qRGvajpAfX1iGE4C5Y69ShlLtQRYEfOe6xE
XRKlXZDsBolUex/vFDtzt63qDUVA5/hMIR2arX1aLOrtLR4AyqGTNiEExoe3kdQG
pioffKJEptjdU5c5FlLIXFnpTAfuVm2QRIqRJ+LTCf6AFj3ofWaJq1BhSel8c1W+
Av6ytu29RaPEXSVC6T+Ux09JEzjHVq3WsJdGiSDC7q0EDHp44xGeHcck/5qEzyax
/vRlXQkT77LVURkz2P67CBPQB5uxcJDnbu+5HMwk44Ibzm5GSJzkcmIkXGXxXRib
Pqbcqm/oUs7ueshPTqkb1uE8duaY2s2hbhvnbdROFiHxf2UtEDZqze3XZAc/D2iU
60fNtlJyi15YvmgZPLBYdJiGHZhV+j0qdvVMtRcdZI72ltjIlHQLKb+Dg9qYw4Bi
0d3OjBDV6tyJg1aYmv0xyvu6qrwG3fOtHOsFPOMEyBHnTTrRWlRj/8dZp1eiez8d
VI5AS25BMphShebe8FkShQ8J8sfDSFnSm4VfAMCigN0gzDO5AUvC+INgP337iVxH
ybY/SQLXDItwZX0Zqdrs9ZrppvsyoproWRvlQm7l3jUNfrDU9a4mK3gpY4A0Wyxg
jQIDAQABo4IBYzCCAV8wCQYDVR0TBAIwADAtBglghkgBhvhCAQ0EIBYeRWFzeS1S
U0EgR2VuZXJhdGVkIENlcnRpZmljYXRlMB0GA1UdDgQWBBTkoDMr8w9n+iREBnkc
582TN9VWBDCB4QYDVR0jBIHZMIHWgBQSzWAE0qCAnnDtxpm4eyzGUv0ZoaGBsqSB
rzCBrDELMAkGA1UEBhMCVVMxCzAJBgNVBAgTAk9IMREwDwYDVQQHEwhDb2x1bWJ1
czESMBAGA1UEChMJVmlraW5nVlBOMR0wGwYDVQQLExRNeU9yZ2FuaXphdGlvbmFs
VW5pdDEVMBMGA1UEAxMMVmlraW5nVlBOIENBMRAwDgYDVQQpEwdFYXN5UlNBMSEw
HwYJKoZIhvcNAQkBFhJtZUBteWhvc3QubXlkb21haW6CCQDPNYXugL8qPjATBgNV
HSUEDDAKBggrBgEFBQcDAjALBgNVHQ8EBAMCB4AwDQYJKoZIhvcNAQELBQADggIB
AN5XeRIb02rYPXmWcfSitJs1mrU6rXoEW97UPAP00D4I8VPU6+GcvJoYCE0J7pIK
OOTb1/CTlKod2l88+Pf5BinRkPbaTOG/xK4NTdVtlahWklg6rdQIMqbhXCJRPLP7
Thr9gKloJbUcVtt8vi2UJ9AAdK/ZP0J4L66BfHPv1WN7WCzeWN9bk5YEOKB2sXPx
KnCkdlnkayX0GxLRyw5GGqaefTQQUT4oMLByuOlbb9dRq2mEZfBUWPcFP0l/MxBT
ishxLY53qv/0goXNJMoAuiAKWoUiXzWcKfHYuYNTHvYELKL06YQNshOCzSj3xo3m
g6CRBDCiBKbaa+hxU9icrnVfH0fQEW82bU+JXjXPkM9Cs+GZfq7dFXmp15nJBaCl
b9rEhQ+a9CNu5i8WvEvr6ww7jNujnoWRvy9O0YL4AZLuSaI5kF6ly+QT+qJ5lb9k
YiNr3mB8mUwQiTok3qWIchFbfh3Y0QqKxtYWZ6Vjlp5y6yQAnvhIA2zjYEhlri3k
kLtmFY4kjTokQNIeI8Q1bcyZzMlZiY8qLLiwgD3R5VXt8Ctd1nEH+hKam3Rozc0j
yI1e/VZ/MNcsaa5sg4Afb4nOCzJzCi21zfzr2WsbmGqYxsHZ10FQY2iCv9G+L1MU
K93plqbKItvDtf5Ac3Fz9MwpP8Wd2XVgUxf+nSz7wKPr
-----END CERTIFICATE-----
