Certificate:
    Data:
        Version: 3 (0x2)
        Serial Number: 8990 (0x231e)
    Signature Algorithm: sha256WithRSAEncryption
        Issuer: C=US, ST=OH, L=Columbus, O=VikingVPN, OU=MyOrganizationalUnit, CN=VikingVPN CA/name=EasyRSA/emailAddress=me@myhost.mydomain
        Validity
            Not Before: Sep  5 21:31:23 2016 GMT
            Not After : Sep  3 21:31:23 2026 GMT
        Subject: CN=Client2497Cert57ae5c
        Subject Public Key Info:
            Public Key Algorithm: rsaEncryption
                Public-Key: (4096 bit)
                Modulus:
                    00:a8:ce:3b:4b:c7:bc:75:a8:94:ed:45:7f:71:d9:
                    99:4d:f5:a7:b1:78:1d:9c:4f:c8:d8:9c:c2:9a:ae:
                    34:9f:ba:59:ff:89:12:2c:d9:10:f4:10:21:7e:3b:
                    69:44:14:ef:5a:e4:80:c3:a1:d7:8b:4b:1e:0c:b4:
                    3e:d1:ac:74:28:1c:4c:c8:63:7a:bf:e3:51:73:b9:
                    dc:ae:9e:44:12:4f:d8:12:79:ef:74:e7:10:62:b1:
                    af:ca:d4:76:95:58:b3:95:41:a9:53:f0:7c:01:64:
                    b7:00:04:fe:4d:17:13:5d:cd:ad:16:92:2b:28:b7:
                    e8:dc:93:35:f6:1a:f1:5b:df:07:b6:2d:11:9b:a7:
                    e3:34:91:98:62:c8:8e:b2:b6:84:ab:47:26:a9:7e:
                    0a:e8:31:27:3f:dd:39:59:8c:c0:7d:19:88:b9:36:
                    42:39:3d:90:00:8b:ec:8b:ee:60:8e:6a:ed:87:f2:
                    09:8a:ca:0f:dc:0d:fd:c5:d9:56:08:6b:9b:5e:7b:
                    ed:5c:9e:e9:45:a5:65:c8:16:2e:50:51:f4:bc:10:
                    4a:6c:3d:a9:7e:71:c9:08:be:42:7e:3f:ed:2d:72:
                    16:90:18:8b:28:f2:b7:be:d5:d9:e6:04:d3:9c:69:
                    b9:ce:08:1d:15:30:79:1e:c1:cf:a7:62:89:66:2b:
                    1b:eb:14:87:09:d5:29:3f:ef:4d:34:ea:f8:10:69:
                    8b:b7:b7:61:0d:8c:cd:99:ef:8c:3a:5b:8b:11:7f:
                    0f:df:89:13:9b:13:e9:00:3b:90:fa:3d:da:e2:87:
                    b7:31:b9:36:fe:2c:38:c6:bc:8b:2e:3c:e0:a3:6b:
                    15:10:8d:c1:9e:03:a0:ca:53:63:de:69:a2:0c:5f:
                    a0:38:b3:94:5c:35:77:6a:a1:40:47:75:af:61:56:
                    a7:8a:11:3b:eb:b0:99:8b:7e:01:ef:f9:7d:0e:42:
                    9f:1b:35:43:5b:e3:7c:5f:f5:c1:2c:04:a8:b2:50:
                    d3:17:78:99:2c:6c:27:19:2e:ce:87:cd:d7:41:ae:
                    fa:be:3e:fc:b3:c7:08:fd:e1:56:29:8c:e4:3a:d8:
                    18:bf:91:b6:98:fa:25:01:45:aa:31:eb:65:47:40:
                    48:83:83:b5:82:3a:5f:1d:15:14:fc:55:94:d0:08:
                    a9:05:26:85:fa:c5:73:38:6e:c1:64:25:19:9f:1d:
                    db:7e:f8:30:83:15:3c:c5:0b:99:b3:96:08:c7:fc:
                    38:fa:f9:3a:25:b2:bf:1f:9c:16:29:82:a4:43:08:
                    93:16:9e:bf:7e:ed:2d:15:e0:cd:3e:f4:a6:2d:61:
                    6b:ae:e7:76:3f:73:e3:a5:24:9b:02:12:bc:c9:98:
                    e9:0d:0f
                Exponent: 65537 (0x10001)
        X509v3 extensions:
            X509v3 Basic Constraints: 
                CA:FALSE
            Netscape Comment: 
                Easy-RSA Generated Certificate
            X509v3 Subject Key Identifier: 
                FA:CD:65:DD:B4:F3:99:EF:3B:0F:84:E9:BC:51:88:9E:FC:35:A0:95
            X509v3 Authority Key Identifier: 
                keyid:12:CD:60:04:D2:A0:80:9E:70:ED:C6:99:B8:7B:2C:C6:52:FD:19:A1
                DirName:/C=US/ST=OH/L=Columbus/O=VikingVPN/OU=MyOrganizationalUnit/CN=VikingVPN CA/name=EasyRSA/emailAddress=me@myhost.mydomain
                serial:CF:35:85:EE:80:BF:2A:3E

            X509v3 Extended Key Usage: 
                TLS Web Client Authentication
            X509v3 Key Usage: 
                Digital Signature
    Signature Algorithm: sha256WithRSAEncryption
         9f:5a:49:29:93:d7:69:13:61:2d:b9:a0:ca:7f:cf:ca:41:62:
         a9:4a:4f:e6:22:2d:da:50:b1:55:a8:13:5e:60:02:0d:76:d9:
         47:59:2e:09:10:d9:32:fc:27:4d:c0:03:af:48:cc:8c:f6:fb:
         47:fa:ad:50:41:26:81:91:e9:6f:05:e2:38:6b:40:aa:8a:f6:
         6b:bc:fd:37:fa:97:7f:03:74:39:37:cd:46:7a:9c:34:2c:5f:
         8f:44:99:bb:37:a2:34:6e:49:c6:11:4c:5d:70:c6:6f:8c:2f:
         74:ca:8f:99:bb:6d:b3:3a:a7:44:ac:81:31:a9:05:d9:bb:6b:
         66:1f:a8:0c:e4:f6:b1:2a:40:ca:a7:b5:7a:f3:2a:7c:fb:55:
         32:05:d9:02:cf:25:d9:39:2b:bf:9d:75:fc:5c:d5:2c:c0:d9:
         17:fc:ce:04:70:f2:95:7d:c4:98:9a:63:e1:d8:42:b5:69:cc:
         fa:21:3e:73:5b:f3:22:5d:b8:ea:0b:79:92:df:ef:b7:d0:9e:
         6c:8f:a7:de:13:cf:8a:df:c9:c4:65:f8:e3:fd:3b:98:74:12:
         50:88:11:09:33:a3:02:fd:58:1d:0e:8b:9f:50:c8:46:ac:8e:
         31:05:ff:09:58:fb:89:75:b5:95:90:96:73:cf:4a:09:15:72:
         4a:5b:0d:c6:5e:95:95:2e:0d:cd:b7:0b:02:09:6f:47:58:61:
         cc:65:d4:5f:f0:a3:cf:8d:95:92:da:b4:2f:39:f2:2c:56:4a:
         82:f7:30:a2:cd:80:36:d8:3a:eb:07:19:7c:4a:d7:1e:76:37:
         83:f1:33:7c:87:2f:2f:f5:0c:f7:fb:43:54:12:e9:1f:15:22:
         5a:79:da:cc:5a:2f:12:d5:7b:f4:7c:6b:c8:1d:f4:2d:e6:a6:
         55:1a:d4:8e:b5:bf:45:b9:1c:d1:90:92:84:bf:71:79:cd:50:
         fa:9e:fe:c6:43:58:ec:77:78:b2:d3:e8:6c:24:be:06:2b:5a:
         97:35:be:5b:23:cd:fb:ec:8a:f4:8d:fb:6b:4d:fc:30:e9:81:
         8b:cd:03:c8:ce:b5:ab:75:ae:de:e4:5e:d5:45:85:9c:94:ce:
         39:66:fe:ae:b9:33:d2:83:ec:8a:ff:dd:63:42:43:de:de:7f:
         78:f1:9d:6a:9b:94:b3:dd:2a:03:72:c0:3a:ce:8c:70:9b:19:
         6f:27:6c:6a:14:01:22:d6:65:ea:0d:b0:08:32:ee:9c:5a:cf:
         04:8c:02:30:47:bd:68:ab:8e:67:0c:7a:fa:9c:2a:1d:2d:97:
         b6:f3:f5:1e:e7:e9:50:1f:9a:01:c8:4b:1d:d7:5c:36:e6:f0:
         4a:62:fd:b3:3f:d2:e7:4a
-----BEGIN CERTIFICATE-----
MIIGrTCCBJWgAwIBAgICIx4wDQYJKoZIhvcNAQELBQAwgawxCzAJBgNVBAYTAlVT
MQswCQYDVQQIEwJPSDERMA8GA1UEBxMIQ29sdW1idXMxEjAQBgNVBAoTCVZpa2lu
Z1ZQTjEdMBsGA1UECxMUTXlPcmdhbml6YXRpb25hbFVuaXQxFTATBgNVBAMTDFZp
a2luZ1ZQTiBDQTEQMA4GA1UEKRMHRWFzeVJTQTEhMB8GCSqGSIb3DQEJARYSbWVA
bXlob3N0Lm15ZG9tYWluMB4XDTE2MDkwNTIxMzEyM1oXDTI2MDkwMzIxMzEyM1ow
HzEdMBsGA1UEAxMUQ2xpZW50MjQ5N0NlcnQ1N2FlNWMwggIiMA0GCSqGSIb3DQEB
AQUAA4ICDwAwggIKAoICAQCozjtLx7x1qJTtRX9x2ZlN9aexeB2cT8jYnMKarjSf
uln/iRIs2RD0ECF+O2lEFO9a5IDDodeLSx4MtD7RrHQoHEzIY3q/41FzudyunkQS
T9gSee905xBisa/K1HaVWLOVQalT8HwBZLcABP5NFxNdza0Wkisot+jckzX2GvFb
3we2LRGbp+M0kZhiyI6ytoSrRyapfgroMSc/3TlZjMB9GYi5NkI5PZAAi+yL7mCO
au2H8gmKyg/cDf3F2VYIa5tee+1cnulFpWXIFi5QUfS8EEpsPal+cckIvkJ+P+0t
chaQGIso8re+1dnmBNOcabnOCB0VMHkewc+nYolmKxvrFIcJ1Sk/70006vgQaYu3
t2ENjM2Z74w6W4sRfw/fiRObE+kAO5D6Pdrih7cxuTb+LDjGvIsuPOCjaxUQjcGe
A6DKU2PeaaIMX6A4s5RcNXdqoUBHda9hVqeKETvrsJmLfgHv+X0OQp8bNUNb43xf
9cEsBKiyUNMXeJksbCcZLs6HzddBrvq+Pvyzxwj94VYpjOQ62Bi/kbaY+iUBRaox
62VHQEiDg7WCOl8dFRT8VZTQCKkFJoX6xXM4bsFkJRmfHdt++DCDFTzFC5mzlgjH
/Dj6+Tolsr8fnBYpgqRDCJMWnr9+7S0V4M0+9KYtYWuu53Y/c+OlJJsCErzJmOkN
DwIDAQABo4IBYzCCAV8wCQYDVR0TBAIwADAtBglghkgBhvhCAQ0EIBYeRWFzeS1S
U0EgR2VuZXJhdGVkIENlcnRpZmljYXRlMB0GA1UdDgQWBBT6zWXdtPOZ7zsPhOm8
UYie/DWglTCB4QYDVR0jBIHZMIHWgBQSzWAE0qCAnnDtxpm4eyzGUv0ZoaGBsqSB
rzCBrDELMAkGA1UEBhMCVVMxCzAJBgNVBAgTAk9IMREwDwYDVQQHEwhDb2x1bWJ1
czESMBAGA1UEChMJVmlraW5nVlBOMR0wGwYDVQQLExRNeU9yZ2FuaXphdGlvbmFs
VW5pdDEVMBMGA1UEAxMMVmlraW5nVlBOIENBMRAwDgYDVQQpEwdFYXN5UlNBMSEw
HwYJKoZIhvcNAQkBFhJtZUBteWhvc3QubXlkb21haW6CCQDPNYXugL8qPjATBgNV
HSUEDDAKBggrBgEFBQcDAjALBgNVHQ8EBAMCB4AwDQYJKoZIhvcNAQELBQADggIB
AJ9aSSmT12kTYS25oMp/z8pBYqlKT+YiLdpQsVWoE15gAg122UdZLgkQ2TL8J03A
A69IzIz2+0f6rVBBJoGR6W8F4jhrQKqK9mu8/Tf6l38DdDk3zUZ6nDQsX49Embs3
ojRuScYRTF1wxm+ML3TKj5m7bbM6p0SsgTGpBdm7a2YfqAzk9rEqQMqntXrzKnz7
VTIF2QLPJdk5K7+ddfxc1SzA2Rf8zgRw8pV9xJiaY+HYQrVpzPohPnNb8yJduOoL
eZLf77fQnmyPp94Tz4rfycRl+OP9O5h0ElCIEQkzowL9WB0Oi59QyEasjjEF/wlY
+4l1tZWQlnPPSgkVckpbDcZelZUuDc23CwIJb0dYYcxl1F/wo8+NlZLatC858ixW
SoL3MKLNgDbYOusHGXxK1x52N4PxM3yHLy/1DPf7Q1QS6R8VIlp52sxaLxLVe/R8
a8gd9C3mplUa1I61v0W5HNGQkoS/cXnNUPqe/sZDWOx3eLLT6GwkvgYrWpc1vlsj
zfvsivSN+2tN/DDpgYvNA8jOtat1rt7kXtVFhZyUzjlm/q65M9KD7Ir/3WNCQ97e
f3jxnWqblLPdKgNywDrOjHCbGW8nbGoUASLWZeoNsAgy7pxazwSMAjBHvWirjmcM
evqcKh0tl7bz9R7n6VAfmgHISx3XXDbm8Epi/bM/0udK
-----END CERTIFICATE-----
