Certificate:
    Data:
        Version: 3 (0x2)
        Serial Number: 9004 (0x232c)
    Signature Algorithm: sha256WithRSAEncryption
        Issuer: C=US, ST=OH, L=Columbus, O=VikingVPN, OU=MyOrganizationalUnit, CN=VikingVPN CA/name=EasyRSA/emailAddress=me@myhost.mydomain
        Validity
            Not Before: Sep  8 16:46:45 2016 GMT
            Not After : Sep  6 16:46:45 2026 GMT
        Subject: CN=Client2194Cert7e69d6
        Subject Public Key Info:
            Public Key Algorithm: rsaEncryption
                Public-Key: (4096 bit)
                Modulus:
                    00:cc:1e:68:ec:9e:c6:1b:70:23:fe:03:4f:02:50:
                    13:3b:c9:73:ed:5f:ee:c6:d9:6e:74:cf:09:dd:25:
                    08:38:0c:95:ae:e1:06:96:3f:6d:2f:5b:25:8c:89:
                    1d:46:ba:f0:e7:38:84:02:1e:10:13:26:90:14:5b:
                    32:18:2a:e3:41:9e:fb:94:39:a1:6a:82:f9:61:a2:
                    fc:db:e4:a1:86:31:23:6b:e7:03:71:c9:92:8b:39:
                    d1:3c:63:27:66:13:9b:bd:4b:3e:67:bf:25:23:09:
                    93:d0:59:40:33:c8:e9:d6:5b:f5:67:12:11:1a:df:
                    a4:5f:4f:18:86:58:19:0a:2e:86:69:d1:2c:69:73:
                    8c:9e:ce:16:0c:50:5c:b0:22:8e:fc:bb:ac:2e:b3:
                    9c:2f:e0:5a:bb:25:a6:4e:c2:8f:71:3a:42:a0:78:
                    f0:48:95:cb:f1:77:a4:0b:49:82:d4:3d:53:de:6c:
                    e5:ef:65:7c:5e:94:bc:04:fe:3a:3f:f6:c2:5a:88:
                    30:76:5d:f9:e3:d6:d0:c3:38:98:aa:79:45:df:fc:
                    ba:06:42:8f:cb:ed:90:e0:85:d2:77:2f:04:a6:f7:
                    54:33:3e:0e:04:f3:5c:88:26:53:eb:ef:84:9f:75:
                    2d:a3:b8:2d:54:dd:28:f2:ca:67:3e:c4:75:cf:35:
                    11:37:df:40:a5:6c:82:4c:11:6d:47:46:d9:61:92:
                    05:94:f1:f0:56:04:b4:4e:65:9d:13:5f:09:30:33:
                    7b:15:2e:55:69:b8:e1:d2:ad:b0:6c:95:20:00:40:
                    2e:1b:54:e6:64:2e:3e:95:88:38:72:0d:68:43:a8:
                    34:f8:57:1f:2c:35:95:41:6c:aa:b9:75:27:26:7e:
                    db:c1:ef:7a:e6:10:85:8d:76:98:6f:01:e4:5f:9c:
                    15:17:79:cf:dd:1a:26:d3:40:24:88:f0:c2:f0:93:
                    b2:05:87:78:e7:eb:22:dc:21:1d:f1:a1:a3:a3:17:
                    77:06:f5:4b:e0:97:bf:76:62:8b:70:73:2a:ba:c5:
                    fc:2f:69:96:96:43:77:af:b9:c5:c2:b3:39:8a:86:
                    5f:c5:7e:53:2d:0e:c8:db:56:d5:a7:65:16:64:b8:
                    25:9f:98:e2:98:a9:41:4f:58:c4:57:29:3b:88:a0:
                    41:d8:96:0c:10:a6:f0:75:b6:2a:03:26:98:57:e3:
                    3c:62:09:76:18:e3:16:a3:fa:3c:e7:03:07:6b:b5:
                    e3:bd:17:ae:ef:4f:a9:9f:c5:39:3f:13:a8:bc:b6:
                    7c:e9:0f:30:6e:11:16:b0:e6:9f:35:0a:5d:b9:42:
                    99:a9:48:f3:90:47:1d:ac:a6:b7:f9:cf:03:7a:e3:
                    63:0c:6d
                Exponent: 65537 (0x10001)
        X509v3 extensions:
            X509v3 Basic Constraints: 
                CA:FALSE
            Netscape Comment: 
                Easy-RSA Generated Certificate
            X509v3 Subject Key Identifier: 
                38:CA:91:B0:7B:89:06:DD:19:AF:65:45:B5:D2:62:E6:17:0C:2E:AC
            X509v3 Authority Key Identifier: 
                keyid:12:CD:60:04:D2:A0:80:9E:70:ED:C6:99:B8:7B:2C:C6:52:FD:19:A1
                DirName:/C=US/ST=OH/L=Columbus/O=VikingVPN/OU=MyOrganizationalUnit/CN=VikingVPN CA/name=EasyRSA/emailAddress=me@myhost.mydomain
                serial:CF:35:85:EE:80:BF:2A:3E

            X509v3 Extended Key Usage: 
                TLS Web Client Authentication
            X509v3 Key Usage: 
                Digital Signature
    Signature Algorithm: sha256WithRSAEncryption
         dd:ba:f0:99:af:68:0d:f8:b9:fa:ed:55:fd:a3:f8:fd:5e:a4:
         37:4a:38:f3:9f:ea:ed:dd:66:54:14:e4:4c:17:69:e4:81:f4:
         2f:12:c1:1f:66:c2:2c:27:17:99:47:34:95:77:12:75:74:07:
         91:31:c7:cd:0c:8a:9a:7c:99:b9:90:55:e4:17:75:20:6e:53:
         74:c2:ae:8f:e9:95:db:04:c9:05:5d:69:e9:80:3e:d2:88:2a:
         f3:2e:4e:db:35:4b:cf:48:a2:4b:f0:24:39:5f:f1:73:93:5a:
         04:a7:85:10:42:93:5d:09:e0:86:32:1b:b0:0b:f7:14:f3:1e:
         d5:ad:52:b2:97:b7:9b:12:00:82:8b:2f:2b:4a:33:c1:3c:95:
         26:5c:40:40:a6:ef:7e:53:10:dd:2c:c5:45:48:06:1f:a1:b5:
         ce:dd:19:70:b2:2f:6e:23:01:e6:e6:dc:fe:b2:5f:a8:64:9e:
         e9:4d:61:cd:e3:34:da:16:29:9d:39:3d:d1:b1:b0:d4:a9:59:
         a8:2a:59:a6:cb:8d:55:f7:79:da:ff:d6:e4:0e:f9:38:11:a7:
         68:8d:cc:f3:1e:75:ee:6a:4f:c5:88:14:c2:b4:21:38:94:44:
         0e:60:ce:66:18:1b:97:11:22:ab:72:e1:34:c7:4f:f0:fb:e5:
         b8:c2:7e:ad:e5:ab:1d:2f:de:41:44:1d:6f:07:ad:a0:f5:12:
         f7:e6:3b:69:6f:94:53:60:4a:90:9e:9a:dc:95:6a:15:c1:6c:
         7c:a6:53:98:9e:b1:ec:93:63:28:63:1c:31:2d:46:53:d2:6f:
         cd:c7:19:35:0c:93:a9:de:b6:67:0a:c9:f4:2c:66:d5:3b:f7:
         47:3f:79:1a:1c:60:89:af:ab:4f:fb:f9:9a:1b:98:64:da:05:
         d6:68:37:8e:df:32:19:2f:9b:b7:26:da:16:40:64:ca:20:20:
         41:25:0e:d8:27:0e:79:56:c2:35:3e:74:dc:bf:2e:ee:84:9c:
         be:b9:70:b5:85:96:45:74:25:33:58:55:f3:62:c7:cf:85:ad:
         9c:a2:38:91:75:49:f1:34:4c:ca:8e:77:55:2e:db:96:32:7c:
         21:81:1f:60:69:f6:ce:c1:5b:4e:03:15:7a:23:06:f4:50:8e:
         2b:b7:d9:43:23:fe:38:6f:76:7e:6f:64:9b:57:45:d8:5a:55:
         bd:44:3e:0a:cb:d2:c5:f2:b7:79:c6:fb:db:9f:dc:d0:e3:2c:
         2c:01:41:7b:51:3d:73:ef:ec:8f:e6:ca:f9:62:0e:35:84:2e:
         52:fb:3c:67:ad:f4:dd:2c:d4:23:2f:c5:4f:82:2f:4a:71:af:
         a8:74:6e:6d:41:a3:59:d8
-----BEGIN CERTIFICATE-----
MIIGrTCCBJWgAwIBAgICIywwDQYJKoZIhvcNAQELBQAwgawxCzAJBgNVBAYTAlVT
MQswCQYDVQQIEwJPSDERMA8GA1UEBxMIQ29sdW1idXMxEjAQBgNVBAoTCVZpa2lu
Z1ZQTjEdMBsGA1UECxMUTXlPcmdhbml6YXRpb25hbFVuaXQxFTATBgNVBAMTDFZp
a2luZ1ZQTiBDQTEQMA4GA1UEKRMHRWFzeVJTQTEhMB8GCSqGSIb3DQEJARYSbWVA
bXlob3N0Lm15ZG9tYWluMB4XDTE2MDkwODE2NDY0NVoXDTI2MDkwNjE2NDY0NVow
HzEdMBsGA1UEAxMUQ2xpZW50MjE5NENlcnQ3ZTY5ZDYwggIiMA0GCSqGSIb3DQEB
AQUAA4ICDwAwggIKAoICAQDMHmjsnsYbcCP+A08CUBM7yXPtX+7G2W50zwndJQg4
DJWu4QaWP20vWyWMiR1GuvDnOIQCHhATJpAUWzIYKuNBnvuUOaFqgvlhovzb5KGG
MSNr5wNxyZKLOdE8YydmE5u9Sz5nvyUjCZPQWUAzyOnWW/VnEhEa36RfTxiGWBkK
LoZp0Sxpc4yezhYMUFywIo78u6wus5wv4Fq7JaZOwo9xOkKgePBIlcvxd6QLSYLU
PVPebOXvZXxelLwE/jo/9sJaiDB2Xfnj1tDDOJiqeUXf/LoGQo/L7ZDghdJ3LwSm
91QzPg4E81yIJlPr74SfdS2juC1U3Sjyymc+xHXPNRE330ClbIJMEW1HRtlhkgWU
8fBWBLROZZ0TXwkwM3sVLlVpuOHSrbBslSAAQC4bVOZkLj6ViDhyDWhDqDT4Vx8s
NZVBbKq5dScmftvB73rmEIWNdphvAeRfnBUXec/dGibTQCSI8MLwk7IFh3jn6yLc
IR3xoaOjF3cG9Uvgl792Yotwcyq6xfwvaZaWQ3evucXCszmKhl/FflMtDsjbVtWn
ZRZkuCWfmOKYqUFPWMRXKTuIoEHYlgwQpvB1tioDJphX4zxiCXYY4xaj+jznAwdr
teO9F67vT6mfxTk/E6i8tnzpDzBuERaw5p81Cl25QpmpSPOQRx2sprf5zwN642MM
bQIDAQABo4IBYzCCAV8wCQYDVR0TBAIwADAtBglghkgBhvhCAQ0EIBYeRWFzeS1S
U0EgR2VuZXJhdGVkIENlcnRpZmljYXRlMB0GA1UdDgQWBBQ4ypGwe4kG3RmvZUW1
0mLmFwwurDCB4QYDVR0jBIHZMIHWgBQSzWAE0qCAnnDtxpm4eyzGUv0ZoaGBsqSB
rzCBrDELMAkGA1UEBhMCVVMxCzAJBgNVBAgTAk9IMREwDwYDVQQHEwhDb2x1bWJ1
czESMBAGA1UEChMJVmlraW5nVlBOMR0wGwYDVQQLExRNeU9yZ2FuaXphdGlvbmFs
VW5pdDEVMBMGA1UEAxMMVmlraW5nVlBOIENBMRAwDgYDVQQpEwdFYXN5UlNBMSEw
HwYJKoZIhvcNAQkBFhJtZUBteWhvc3QubXlkb21haW6CCQDPNYXugL8qPjATBgNV
HSUEDDAKBggrBgEFBQcDAjALBgNVHQ8EBAMCB4AwDQYJKoZIhvcNAQELBQADggIB
AN268JmvaA34ufrtVf2j+P1epDdKOPOf6u3dZlQU5EwXaeSB9C8SwR9mwiwnF5lH
NJV3EnV0B5Exx80Mipp8mbmQVeQXdSBuU3TCro/pldsEyQVdaemAPtKIKvMuTts1
S89IokvwJDlf8XOTWgSnhRBCk10J4IYyG7AL9xTzHtWtUrKXt5sSAIKLLytKM8E8
lSZcQECm735TEN0sxUVIBh+htc7dGXCyL24jAebm3P6yX6hknulNYc3jNNoWKZ05
PdGxsNSpWagqWabLjVX3edr/1uQO+TgRp2iNzPMede5qT8WIFMK0ITiURA5gzmYY
G5cRIqty4TTHT/D75bjCfq3lqx0v3kFEHW8HraD1EvfmO2lvlFNgSpCemtyVahXB
bHymU5ieseyTYyhjHDEtRlPSb83HGTUMk6netmcKyfQsZtU790c/eRocYImvq0/7
+ZobmGTaBdZoN47fMhkvm7cm2hZAZMogIEElDtgnDnlWwjU+dNy/Lu6EnL65cLWF
lkV0JTNYVfNix8+FrZyiOJF1SfE0TMqOd1Uu25YyfCGBH2Bp9s7BW04DFXojBvRQ
jiu32UMj/jhvdn5vZJtXRdhaVb1EPgrL0sXyt3nG+9uf3NDjLCwBQXtRPXPv7I/m
yvliDjWELlL7PGet9N0s1CMvxU+CL0pxr6h0bm1Bo1nY
-----END CERTIFICATE-----
