Certificate:
    Data:
        Version: 3 (0x2)
        Serial Number: 9017 (0x2339)
    Signature Algorithm: sha256WithRSAEncryption
        Issuer: C=US, ST=OH, L=Columbus, O=VikingVPN, OU=MyOrganizationalUnit, CN=VikingVPN CA/name=EasyRSA/emailAddress=me@myhost.mydomain
        Validity
            Not Before: Sep 11 20:16:58 2016 GMT
            Not After : Sep  9 20:16:58 2026 GMT
        Subject: CN=Client2503Cert7d40fc
        Subject Public Key Info:
            Public Key Algorithm: rsaEncryption
                Public-Key: (4096 bit)
                Modulus:
                    00:b1:ad:2f:0a:9f:78:38:06:24:ce:7a:c1:9c:7e:
                    e4:f6:8f:a3:54:57:bf:45:89:8c:80:47:d5:01:df:
                    cf:b1:75:25:cc:f5:3a:1e:e2:4b:61:19:3c:be:26:
                    72:32:af:1f:d6:dc:dc:29:79:a8:cd:e1:31:03:8f:
                    67:15:da:14:6e:c6:ed:06:fb:89:a7:7d:2a:93:a7:
                    ba:b5:85:7e:df:1c:a7:81:08:4d:7c:b2:45:3b:a9:
                    45:68:d6:1c:53:60:ac:c0:54:51:d4:da:6c:2f:bd:
                    ac:44:85:c2:73:2f:f7:e4:f0:f4:0d:10:d1:ec:e3:
                    5c:11:40:82:c4:4a:72:f7:67:9b:b1:ca:b2:08:b9:
                    94:7b:32:5c:63:0b:b3:34:65:55:0f:f4:ad:25:53:
                    a0:e4:f9:5a:cb:20:e8:07:80:d6:9d:4f:4e:52:6e:
                    4f:ee:a9:23:ad:08:13:ef:2f:ce:8b:ca:d0:d3:94:
                    df:6f:f1:a0:70:f8:fb:0e:e8:5c:59:80:1f:16:4f:
                    c9:a1:9f:36:e3:3a:d5:97:cb:1c:ce:ca:c4:52:3a:
                    4d:6a:5a:e9:0f:e9:45:ca:57:68:12:02:a8:98:e1:
                    5f:21:be:03:9f:21:e3:6a:1a:7d:fa:68:10:3b:63:
                    08:c0:cb:34:7a:6a:16:70:1d:e1:c4:e4:c9:40:64:
                    98:29:18:fe:ef:b8:b6:81:69:34:e6:45:c0:31:c8:
                    c5:53:4f:6e:17:14:63:3f:d5:1d:ce:ab:00:ca:40:
                    e8:0f:3e:c1:81:60:09:bf:20:37:f6:01:ab:71:d0:
                    88:8a:00:04:f5:a6:84:8f:d1:a7:1a:94:a9:df:d8:
                    0a:16:bf:ee:b6:58:86:51:3f:29:df:a0:26:1b:34:
                    3e:08:37:e8:fa:3f:e6:21:11:a5:28:4e:13:66:25:
                    79:46:08:16:e3:60:a9:46:56:ca:4c:64:f5:fe:0e:
                    39:a2:51:28:20:37:52:c8:18:bc:f8:43:9d:96:56:
                    35:9d:ce:2e:57:11:eb:77:62:a3:59:d8:c9:50:b0:
                    4a:fd:41:29:bc:67:79:c0:fc:75:89:40:7d:69:66:
                    e8:cc:36:f1:f4:b8:c9:00:e9:5a:b8:74:d7:e1:0f:
                    71:57:4a:d7:15:3a:ce:d9:09:41:84:7f:0d:91:c2:
                    d8:f8:03:88:6d:40:46:0a:9c:16:06:e0:0b:1c:6e:
                    2b:a0:62:fb:2d:4d:bc:bd:a0:cc:2a:e6:90:1c:f4:
                    10:ef:f1:50:42:66:77:d6:b2:e1:ae:85:c8:e6:ad:
                    23:16:fa:84:dc:f2:0f:22:80:ca:9b:8c:4b:61:ff:
                    ec:cc:83:98:eb:a8:5c:c7:ec:59:8f:a8:14:ce:5b:
                    fb:30:41
                Exponent: 65537 (0x10001)
        X509v3 extensions:
            X509v3 Basic Constraints: 
                CA:FALSE
            Netscape Comment: 
                Easy-RSA Generated Certificate
            X509v3 Subject Key Identifier: 
                75:2E:23:38:CA:9F:6A:91:78:46:7B:EB:B6:E0:B0:BA:95:B6:7F:CE
            X509v3 Authority Key Identifier: 
                keyid:12:CD:60:04:D2:A0:80:9E:70:ED:C6:99:B8:7B:2C:C6:52:FD:19:A1
                DirName:/C=US/ST=OH/L=Columbus/O=VikingVPN/OU=MyOrganizationalUnit/CN=VikingVPN CA/name=EasyRSA/emailAddress=me@myhost.mydomain
                serial:CF:35:85:EE:80:BF:2A:3E

            X509v3 Extended Key Usage: 
                TLS Web Client Authentication
            X509v3 Key Usage: 
                Digital Signature
    Signature Algorithm: sha256WithRSAEncryption
         14:f9:99:05:e0:df:e9:de:7e:db:75:fd:48:03:2b:1e:53:46:
         3f:fb:ad:6b:6b:3e:62:d4:9c:35:26:ee:64:18:d9:6b:3d:8c:
         2e:7d:cc:b1:c8:6b:a3:5e:10:c5:67:ca:78:84:69:c7:a9:d7:
         46:d5:bc:4f:fa:dc:f7:e2:c6:3e:d5:76:26:3a:83:7f:91:e9:
         60:bc:9d:af:76:19:60:7e:3f:36:c6:08:b9:ce:e6:50:51:bf:
         83:63:38:b7:fc:ee:9e:7c:83:27:47:73:0c:b3:e1:3b:ba:f9:
         df:5f:b6:12:d1:a4:cb:84:cc:9f:f9:b9:eb:d8:47:08:23:c5:
         02:29:1b:9f:eb:13:da:86:c1:d3:ab:df:ec:ab:e8:58:68:6a:
         fc:ac:d1:9a:85:3a:03:c4:33:bb:26:15:fc:d1:a1:8e:cc:e6:
         ae:63:ed:f8:ea:87:47:c5:2c:62:6f:3f:d1:cc:34:cd:2e:28:
         ed:23:97:9e:cd:34:68:77:95:71:47:5a:9c:03:83:3e:2e:ef:
         eb:f0:e3:47:16:28:c0:64:06:af:20:f1:a5:fe:a8:fc:e6:3f:
         4d:ff:71:d4:5a:90:47:ab:23:f7:9f:41:de:03:68:96:c6:b1:
         a0:13:91:8d:c7:6f:6f:03:f9:53:d1:2c:a2:f1:a0:8d:6a:ca:
         51:a0:fa:1f:c3:f2:79:fb:2c:6d:d5:de:43:05:80:42:00:9e:
         91:42:e1:c5:2d:16:ff:ef:1a:f6:c5:f6:e5:79:9f:33:70:92:
         a1:b7:32:21:c9:b0:39:23:d6:16:c9:a9:b6:09:87:68:9d:6e:
         2c:a3:d0:cd:89:38:69:63:d7:6d:50:f7:93:30:45:70:b5:fd:
         d2:25:51:ee:f0:89:95:a0:de:f0:cc:a6:05:ee:46:81:56:f4:
         bb:91:c9:41:77:aa:88:5f:b7:17:e9:c4:01:d4:6b:ef:51:1c:
         55:51:c9:da:4e:4e:60:42:c1:6a:e9:3b:22:22:0a:65:d4:5a:
         25:9d:3e:34:38:c3:df:e6:ee:4b:53:51:68:7b:be:18:0e:89:
         1a:aa:d2:3f:df:d1:62:65:34:9c:38:b5:c5:ab:ee:f2:df:bc:
         49:19:b3:4c:04:e5:af:7e:0b:1c:77:10:02:69:6d:ac:9c:b7:
         d6:0f:5d:e6:3d:22:74:97:a2:04:f9:20:b7:a5:5e:86:01:d7:
         3e:4d:d5:23:56:8d:4c:77:d8:ac:86:1a:5d:13:8e:e5:3a:0e:
         f2:9c:5b:28:dc:61:3c:ac:f5:9d:ef:66:68:8f:06:1e:8b:02:
         f6:46:7d:9b:68:3b:79:76:72:b4:51:6c:6c:d7:58:cf:f0:47:
         84:c5:a6:a0:2b:a8:dc:01
-----BEGIN CERTIFICATE-----
MIIGrTCCBJWgAwIBAgICIzkwDQYJKoZIhvcNAQELBQAwgawxCzAJBgNVBAYTAlVT
MQswCQYDVQQIEwJPSDERMA8GA1UEBxMIQ29sdW1idXMxEjAQBgNVBAoTCVZpa2lu
Z1ZQTjEdMBsGA1UECxMUTXlPcmdhbml6YXRpb25hbFVuaXQxFTATBgNVBAMTDFZp
a2luZ1ZQTiBDQTEQMA4GA1UEKRMHRWFzeVJTQTEhMB8GCSqGSIb3DQEJARYSbWVA
bXlob3N0Lm15ZG9tYWluMB4XDTE2MDkxMTIwMTY1OFoXDTI2MDkwOTIwMTY1OFow
HzEdMBsGA1UEAxMUQ2xpZW50MjUwM0NlcnQ3ZDQwZmMwggIiMA0GCSqGSIb3DQEB
AQUAA4ICDwAwggIKAoICAQCxrS8Kn3g4BiTOesGcfuT2j6NUV79FiYyAR9UB38+x
dSXM9Toe4kthGTy+JnIyrx/W3NwpeajN4TEDj2cV2hRuxu0G+4mnfSqTp7q1hX7f
HKeBCE18skU7qUVo1hxTYKzAVFHU2mwvvaxEhcJzL/fk8PQNENHs41wRQILESnL3
Z5uxyrIIuZR7MlxjC7M0ZVUP9K0lU6Dk+VrLIOgHgNadT05Sbk/uqSOtCBPvL86L
ytDTlN9v8aBw+PsO6FxZgB8WT8mhnzbjOtWXyxzOysRSOk1qWukP6UXKV2gSAqiY
4V8hvgOfIeNqGn36aBA7YwjAyzR6ahZwHeHE5MlAZJgpGP7vuLaBaTTmRcAxyMVT
T24XFGM/1R3OqwDKQOgPPsGBYAm/IDf2Aatx0IiKAAT1poSP0acalKnf2AoWv+62
WIZRPynfoCYbND4IN+j6P+YhEaUoThNmJXlGCBbjYKlGVspMZPX+DjmiUSggN1LI
GLz4Q52WVjWdzi5XEet3YqNZ2MlQsEr9QSm8Z3nA/HWJQH1pZujMNvH0uMkA6Vq4
dNfhD3FXStcVOs7ZCUGEfw2Rwtj4A4htQEYKnBYG4AscbiugYvstTby9oMwq5pAc
9BDv8VBCZnfWsuGuhcjmrSMW+oTc8g8igMqbjEth/+zMg5jrqFzH7FmPqBTOW/sw
QQIDAQABo4IBYzCCAV8wCQYDVR0TBAIwADAtBglghkgBhvhCAQ0EIBYeRWFzeS1S
U0EgR2VuZXJhdGVkIENlcnRpZmljYXRlMB0GA1UdDgQWBBR1LiM4yp9qkXhGe+u2
4LC6lbZ/zjCB4QYDVR0jBIHZMIHWgBQSzWAE0qCAnnDtxpm4eyzGUv0ZoaGBsqSB
rzCBrDELMAkGA1UEBhMCVVMxCzAJBgNVBAgTAk9IMREwDwYDVQQHEwhDb2x1bWJ1
czESMBAGA1UEChMJVmlraW5nVlBOMR0wGwYDVQQLExRNeU9yZ2FuaXphdGlvbmFs
VW5pdDEVMBMGA1UEAxMMVmlraW5nVlBOIENBMRAwDgYDVQQpEwdFYXN5UlNBMSEw
HwYJKoZIhvcNAQkBFhJtZUBteWhvc3QubXlkb21haW6CCQDPNYXugL8qPjATBgNV
HSUEDDAKBggrBgEFBQcDAjALBgNVHQ8EBAMCB4AwDQYJKoZIhvcNAQELBQADggIB
ABT5mQXg3+neftt1/UgDKx5TRj/7rWtrPmLUnDUm7mQY2Ws9jC59zLHIa6NeEMVn
yniEacep10bVvE/63Pfixj7VdiY6g3+R6WC8na92GWB+PzbGCLnO5lBRv4NjOLf8
7p58gydHcwyz4Tu6+d9fthLRpMuEzJ/5uevYRwgjxQIpG5/rE9qGwdOr3+yr6Fho
avys0ZqFOgPEM7smFfzRoY7M5q5j7fjqh0fFLGJvP9HMNM0uKO0jl57NNGh3lXFH
WpwDgz4u7+vw40cWKMBkBq8g8aX+qPzmP03/cdRakEerI/efQd4DaJbGsaATkY3H
b28D+VPRLKLxoI1qylGg+h/D8nn7LG3V3kMFgEIAnpFC4cUtFv/vGvbF9uV5nzNw
kqG3MiHJsDkj1hbJqbYJh2idbiyj0M2JOGlj121Q95MwRXC1/dIlUe7wiZWg3vDM
pgXuRoFW9LuRyUF3qohftxfpxAHUa+9RHFVRydpOTmBCwWrpOyIiCmXUWiWdPjQ4
w9/m7ktTUWh7vhgOiRqq0j/f0WJlNJw4tcWr7vLfvEkZs0wE5a9+Cxx3EAJpbayc
t9YPXeY9InSXogT5ILelXoYB1z5N1SNWjUx32KyGGl0TjuU6DvKcWyjcYTys9Z3v
ZmiPBh6LAvZGfZtoO3l2crRRbGzXWM/wR4TFpqArqNwB
-----END CERTIFICATE-----
