Certificate:
    Data:
        Version: 3 (0x2)
        Serial Number: 9038 (0x234e)
    Signature Algorithm: sha256WithRSAEncryption
        Issuer: C=US, ST=OH, L=Columbus, O=VikingVPN, OU=MyOrganizationalUnit, CN=VikingVPN CA/name=EasyRSA/emailAddress=me@myhost.mydomain
        Validity
            Not Before: Sep 16 08:35:03 2016 GMT
            Not After : Sep 14 08:35:03 2026 GMT
        Subject: CN=Client2216Cert801c83
        Subject Public Key Info:
            Public Key Algorithm: rsaEncryption
                Public-Key: (4096 bit)
                Modulus:
                    00:a7:b4:c0:fe:f6:2f:e8:d5:ae:a3:a0:2d:65:30:
                    22:89:15:62:eb:69:5b:02:9d:b5:3f:f4:0c:12:62:
                    98:c9:6f:2e:13:0e:ac:2c:4a:27:ee:eb:dd:57:31:
                    ea:78:10:03:fa:85:db:5e:37:c4:2a:cc:6d:9a:92:
                    e9:0b:88:e1:b4:9a:86:22:1b:2f:8d:ef:c0:25:e3:
                    7d:03:b8:5c:f9:40:68:03:f3:c2:84:f5:7a:5c:25:
                    d0:cb:6a:77:0e:57:94:04:c1:a1:1b:6f:b2:3f:27:
                    31:75:6e:63:88:01:5c:80:f8:ec:ce:5f:a8:43:0d:
                    26:5a:e3:e8:d0:09:a4:a7:65:e3:e2:7a:38:a6:02:
                    5b:7c:ba:d1:dd:0b:f7:40:31:4c:c9:30:35:fe:5d:
                    32:e2:e7:a9:62:f7:57:02:22:b9:26:69:a4:97:4d:
                    54:da:57:b7:07:3e:94:de:70:6d:9f:48:08:df:41:
                    42:7e:80:ac:53:63:4f:a3:78:2e:d3:51:0a:e6:22:
                    42:de:d3:e2:99:79:39:08:5f:cc:5a:fa:1a:d2:0b:
                    9f:6e:8d:2c:08:f9:b9:d4:f2:af:76:fb:88:f7:02:
                    7a:f5:27:55:1c:49:a3:75:55:4d:e9:04:e8:4f:ae:
                    9f:a3:0a:c0:0b:8c:82:f2:b0:bd:71:9d:de:87:db:
                    fb:19:d1:61:b0:df:4e:34:93:02:60:93:81:65:33:
                    5d:1a:29:72:cf:92:d8:16:56:c3:47:9d:c9:ad:e8:
                    d2:ca:32:a6:67:28:a5:c7:80:89:d9:83:a5:20:41:
                    c5:d3:cb:a0:aa:16:9e:3d:03:e4:3b:7c:a9:ac:24:
                    99:dd:7f:77:16:eb:71:88:95:29:7a:58:c9:53:e3:
                    1d:d0:18:ce:0b:18:15:6e:20:5d:eb:9c:a4:c8:85:
                    a4:89:18:df:1b:59:0e:e7:75:f2:bb:c6:83:be:6b:
                    1a:a7:e3:f5:f3:da:52:cc:bd:27:29:64:36:f6:c6:
                    b4:0a:fe:62:e5:3d:5d:ed:52:24:f7:93:01:8d:70:
                    ca:cc:b6:6a:ca:3b:6e:e6:53:a4:95:a7:09:34:55:
                    7e:4a:6b:0f:48:17:fe:5b:05:1d:ad:65:75:dc:8b:
                    a5:92:8f:66:38:58:d8:ad:ea:63:5e:61:b1:9f:67:
                    53:98:d3:5f:7f:d4:18:7b:03:3a:69:6f:b0:e3:12:
                    e8:8d:5b:a0:6f:6d:01:0e:4b:82:f3:c7:ab:9d:b9:
                    10:8a:31:76:38:2d:ea:2a:4c:2a:ac:8b:b3:48:87:
                    a8:7f:06:c4:cc:c1:25:4f:00:6b:a3:a5:3e:e4:f9:
                    cd:88:62:72:b9:f1:ac:62:d7:f2:f3:c7:70:90:d4:
                    9d:e0:2d
                Exponent: 65537 (0x10001)
        X509v3 extensions:
            X509v3 Basic Constraints: 
                CA:FALSE
            Netscape Comment: 
                Easy-RSA Generated Certificate
            X509v3 Subject Key Identifier: 
                E9:3C:70:19:E0:58:3A:73:40:AD:8D:44:4E:A4:66:AF:E7:1F:0A:B4
            X509v3 Authority Key Identifier: 
                keyid:12:CD:60:04:D2:A0:80:9E:70:ED:C6:99:B8:7B:2C:C6:52:FD:19:A1
                DirName:/C=US/ST=OH/L=Columbus/O=VikingVPN/OU=MyOrganizationalUnit/CN=VikingVPN CA/name=EasyRSA/emailAddress=me@myhost.mydomain
                serial:CF:35:85:EE:80:BF:2A:3E

            X509v3 Extended Key Usage: 
                TLS Web Client Authentication
            X509v3 Key Usage: 
                Digital Signature
    Signature Algorithm: sha256WithRSAEncryption
         c9:19:4a:f7:34:1b:85:8c:2c:ce:9e:85:6a:51:01:bd:3f:7c:
         30:7e:5d:de:b3:f9:a5:08:5c:51:a7:6f:93:ca:14:aa:db:e7:
         5e:6d:bb:0a:73:5c:0b:ad:69:96:2c:c4:7a:8e:9a:6c:da:d8:
         f2:9e:9a:4c:5a:33:be:cd:76:2e:1a:ce:f4:5f:65:fd:02:26:
         f8:70:3f:4c:c7:eb:fd:32:95:c9:1e:be:01:64:0f:cf:b1:7b:
         f6:2f:6a:b5:f2:41:a7:40:ce:a3:18:49:37:ce:f1:6d:65:6c:
         cb:6d:19:1c:ab:2f:7c:86:62:90:09:bc:b6:27:22:6e:27:9d:
         74:c6:a0:38:87:78:c3:3b:da:6f:01:5c:f4:1f:c6:a0:d7:36:
         20:c6:e4:12:68:43:49:71:0f:9a:55:c9:93:6c:ae:7e:3e:af:
         29:95:c3:97:d5:58:50:40:8c:f2:94:c6:69:b3:32:9f:e9:f9:
         99:83:60:36:6d:c9:5d:21:06:58:db:8a:3f:cd:10:bf:e9:b7:
         c0:24:d7:82:b0:8e:3f:07:c0:cd:57:95:24:7a:fd:95:93:e1:
         77:91:98:9d:99:9b:11:8a:58:2f:95:57:30:f0:e1:e2:9b:a8:
         6e:7a:1c:2f:7c:f2:46:02:95:b4:01:b0:ec:49:ac:a1:e7:ec:
         0a:b6:23:e4:42:de:26:6b:5f:4b:f4:7e:60:1b:28:87:a1:31:
         03:fa:41:3c:d4:51:b3:4a:68:11:f5:da:02:d4:2c:a4:38:7e:
         57:cc:e4:c0:25:e4:36:38:11:f5:d8:fa:ee:da:ac:f6:63:b2:
         a4:93:ac:e6:8e:e7:7d:5e:5e:2e:ca:d1:da:4c:63:a3:f6:22:
         c2:ef:c0:88:3b:77:29:94:17:b7:6a:55:ef:30:32:85:8f:a0:
         19:6d:9e:0c:b8:a5:25:c1:3c:6a:ec:18:7b:25:a1:fb:f4:14:
         a7:1a:23:d2:43:94:e1:b5:d1:33:37:1d:6d:63:5f:b0:34:ac:
         ef:37:21:0b:fe:4e:6d:b1:7b:e4:3d:9d:d9:5d:55:0c:8e:4b:
         77:29:39:48:e2:a2:23:78:ae:47:11:b6:5e:09:2f:a1:6b:84:
         b9:f6:f5:96:30:99:c0:00:ca:a8:4b:01:24:29:26:9a:c3:bc:
         11:d5:46:65:fa:70:1c:3a:7b:4f:99:ba:62:b8:27:bf:62:e1:
         9b:84:99:7f:b7:ce:d7:05:d4:08:a6:49:01:7b:87:99:b0:78:
         a3:fc:99:bf:9d:29:26:e1:08:bb:92:cc:76:40:ef:1b:af:02:
         f1:e9:e0:97:bf:f9:ff:1b:93:cd:ef:f2:b5:67:9b:b5:0c:f4:
         74:3c:a8:b6:e9:f2:93:8f
-----BEGIN CERTIFICATE-----
MIIGrTCCBJWgAwIBAgICI04wDQYJKoZIhvcNAQELBQAwgawxCzAJBgNVBAYTAlVT
MQswCQYDVQQIEwJPSDERMA8GA1UEBxMIQ29sdW1idXMxEjAQBgNVBAoTCVZpa2lu
Z1ZQTjEdMBsGA1UECxMUTXlPcmdhbml6YXRpb25hbFVuaXQxFTATBgNVBAMTDFZp
a2luZ1ZQTiBDQTEQMA4GA1UEKRMHRWFzeVJTQTEhMB8GCSqGSIb3DQEJARYSbWVA
bXlob3N0Lm15ZG9tYWluMB4XDTE2MDkxNjA4MzUwM1oXDTI2MDkxNDA4MzUwM1ow
HzEdMBsGA1UEAxMUQ2xpZW50MjIxNkNlcnQ4MDFjODMwggIiMA0GCSqGSIb3DQEB
AQUAA4ICDwAwggIKAoICAQCntMD+9i/o1a6joC1lMCKJFWLraVsCnbU/9AwSYpjJ
by4TDqwsSifu691XMep4EAP6hdteN8QqzG2akukLiOG0moYiGy+N78Al430DuFz5
QGgD88KE9XpcJdDLancOV5QEwaEbb7I/JzF1bmOIAVyA+OzOX6hDDSZa4+jQCaSn
ZePiejimAlt8utHdC/dAMUzJMDX+XTLi56li91cCIrkmaaSXTVTaV7cHPpTecG2f
SAjfQUJ+gKxTY0+jeC7TUQrmIkLe0+KZeTkIX8xa+hrSC59ujSwI+bnU8q92+4j3
Anr1J1UcSaN1VU3pBOhPrp+jCsALjILysL1xnd6H2/sZ0WGw3040kwJgk4FlM10a
KXLPktgWVsNHncmt6NLKMqZnKKXHgInZg6UgQcXTy6CqFp49A+Q7fKmsJJndf3cW
63GIlSl6WMlT4x3QGM4LGBVuIF3rnKTIhaSJGN8bWQ7ndfK7xoO+axqn4/Xz2lLM
vScpZDb2xrQK/mLlPV3tUiT3kwGNcMrMtmrKO27mU6SVpwk0VX5Kaw9IF/5bBR2t
ZXXci6WSj2Y4WNit6mNeYbGfZ1OY019/1Bh7Azppb7DjEuiNW6BvbQEOS4Lzx6ud
uRCKMXY4LeoqTCqsi7NIh6h/BsTMwSVPAGujpT7k+c2IYnK58axi1/Lzx3CQ1J3g
LQIDAQABo4IBYzCCAV8wCQYDVR0TBAIwADAtBglghkgBhvhCAQ0EIBYeRWFzeS1S
U0EgR2VuZXJhdGVkIENlcnRpZmljYXRlMB0GA1UdDgQWBBTpPHAZ4Fg6c0CtjURO
pGav5x8KtDCB4QYDVR0jBIHZMIHWgBQSzWAE0qCAnnDtxpm4eyzGUv0ZoaGBsqSB
rzCBrDELMAkGA1UEBhMCVVMxCzAJBgNVBAgTAk9IMREwDwYDVQQHEwhDb2x1bWJ1
czESMBAGA1UEChMJVmlraW5nVlBOMR0wGwYDVQQLExRNeU9yZ2FuaXphdGlvbmFs
VW5pdDEVMBMGA1UEAxMMVmlraW5nVlBOIENBMRAwDgYDVQQpEwdFYXN5UlNBMSEw
HwYJKoZIhvcNAQkBFhJtZUBteWhvc3QubXlkb21haW6CCQDPNYXugL8qPjATBgNV
HSUEDDAKBggrBgEFBQcDAjALBgNVHQ8EBAMCB4AwDQYJKoZIhvcNAQELBQADggIB
AMkZSvc0G4WMLM6ehWpRAb0/fDB+Xd6z+aUIXFGnb5PKFKrb515tuwpzXAutaZYs
xHqOmmza2PKemkxaM77Ndi4azvRfZf0CJvhwP0zH6/0ylckevgFkD8+xe/YvarXy
QadAzqMYSTfO8W1lbMttGRyrL3yGYpAJvLYnIm4nnXTGoDiHeMM72m8BXPQfxqDX
NiDG5BJoQ0lxD5pVyZNsrn4+rymVw5fVWFBAjPKUxmmzMp/p+ZmDYDZtyV0hBljb
ij/NEL/pt8Ak14Kwjj8HwM1XlSR6/ZWT4XeRmJ2ZmxGKWC+VVzDw4eKbqG56HC98
8kYClbQBsOxJrKHn7Aq2I+RC3iZrX0v0fmAbKIehMQP6QTzUUbNKaBH12gLULKQ4
flfM5MAl5DY4EfXY+u7arPZjsqSTrOaO531eXi7K0dpMY6P2IsLvwIg7dymUF7dq
Ve8wMoWPoBltngy4pSXBPGrsGHslofv0FKcaI9JDlOG10TM3HW1jX7A0rO83IQv+
Tm2xe+Q9ndldVQyOS3cpOUjioiN4rkcRtl4JL6FrhLn29ZYwmcAAyqhLASQpJprD
vBHVRmX6cBw6e0+ZumK4J79i4ZuEmX+3ztcF1AimSQF7h5mweKP8mb+dKSbhCLuS
zHZA7xuvAvHp4Je/+f8bk83v8rVnm7UM9HQ8qLbp8pOP
-----END CERTIFICATE-----
