Certificate:
    Data:
        Version: 3 (0x2)
        Serial Number: 9046 (0x2356)
    Signature Algorithm: sha256WithRSAEncryption
        Issuer: C=US, ST=OH, L=Columbus, O=VikingVPN, OU=MyOrganizationalUnit, CN=VikingVPN CA/name=EasyRSA/emailAddress=me@myhost.mydomain
        Validity
            Not Before: Sep 17 19:56:23 2016 GMT
            Not After : Sep 15 19:56:23 2026 GMT
        Subject: CN=Client2296Cert6dc8e8
        Subject Public Key Info:
            Public Key Algorithm: rsaEncryption
                Public-Key: (4096 bit)
                Modulus:
                    00:c2:e8:f5:13:83:71:d7:44:b2:2b:53:77:c2:a2:
                    1d:83:5b:6a:0b:01:c4:a7:cd:b3:d1:56:87:e5:ff:
                    4c:29:1b:f7:3f:c7:ce:e4:61:8a:9e:18:92:68:a3:
                    27:17:14:66:b2:c0:59:04:51:2a:0d:17:60:08:8f:
                    ab:e0:15:43:84:cc:e7:c2:d3:f9:55:05:54:87:d1:
                    8c:49:aa:f4:56:05:95:c4:c4:e1:d1:48:80:b6:7e:
                    ee:d3:c2:aa:82:23:ed:5a:b0:5f:01:0f:c2:80:40:
                    15:71:92:52:19:ff:9c:f8:4c:ee:fe:c2:60:3f:e9:
                    90:d8:8c:bf:6b:7f:9b:79:fd:26:b0:57:46:78:17:
                    e3:d0:fc:ff:2a:32:61:eb:89:aa:31:6c:36:86:c1:
                    43:4f:de:ed:0d:dc:e8:55:2c:15:9e:b2:de:b2:ed:
                    6e:1c:e2:36:a0:9b:6e:68:f5:9b:e6:38:59:e9:c5:
                    d7:fa:54:50:c4:77:b6:b5:dc:c4:ce:62:7a:4d:4c:
                    92:04:f6:1f:07:75:8e:c4:3a:e2:cf:23:4f:fa:91:
                    d3:da:bc:f1:c8:aa:09:90:9c:bc:94:36:dc:3a:39:
                    cc:1b:0b:95:1d:f2:44:a5:2b:80:d0:4e:13:9f:aa:
                    bf:d3:d1:7a:dd:63:9b:a5:be:be:32:2a:49:40:e1:
                    9f:62:a2:4e:fb:b2:c7:7d:ef:e2:5a:e6:be:73:33:
                    5f:4e:0c:07:d0:c3:53:46:5d:d7:ab:60:8f:a2:e3:
                    ec:ad:0b:c1:b0:e1:c3:e2:b5:45:1d:51:10:30:85:
                    07:fd:c4:0f:46:1c:c7:fb:f7:cb:3e:1a:0d:8b:c5:
                    cd:73:e5:28:8e:4a:f5:49:49:da:b1:8b:33:42:fc:
                    c4:f6:e4:ae:04:94:d7:4e:63:ee:ad:56:2e:64:08:
                    75:45:28:08:2a:86:69:64:28:5c:d9:da:76:3f:cd:
                    4a:ff:74:eb:d8:4a:90:35:a8:ae:35:5e:a1:56:b2:
                    78:86:bf:4a:03:06:6a:52:af:8e:9a:a2:dc:3a:f0:
                    9a:00:d1:d5:4b:82:6d:e8:9a:00:a1:91:5e:69:7e:
                    74:07:81:96:48:d9:cd:07:ff:72:a4:f3:1c:ae:8a:
                    23:8f:6a:a8:0d:82:11:03:1e:19:b0:5e:5b:c2:ec:
                    7b:4f:ff:41:b5:86:35:f0:64:8e:23:29:d8:5a:fd:
                    88:ba:67:0a:e4:97:5f:3d:83:78:9c:df:c2:b7:76:
                    c5:68:b7:86:15:64:be:a5:dd:67:ab:c1:6b:9d:ff:
                    a9:44:25:d0:dd:0a:f1:61:d1:cd:17:6b:8c:ce:8d:
                    51:1b:4d:2c:5b:26:46:7b:81:2e:37:2e:af:52:eb:
                    53:8c:b7
                Exponent: 65537 (0x10001)
        X509v3 extensions:
            X509v3 Basic Constraints: 
                CA:FALSE
            Netscape Comment: 
                Easy-RSA Generated Certificate
            X509v3 Subject Key Identifier: 
                C8:59:DA:3A:BE:8B:42:2A:DD:73:36:50:15:54:74:7F:A0:75:53:F8
            X509v3 Authority Key Identifier: 
                keyid:12:CD:60:04:D2:A0:80:9E:70:ED:C6:99:B8:7B:2C:C6:52:FD:19:A1
                DirName:/C=US/ST=OH/L=Columbus/O=VikingVPN/OU=MyOrganizationalUnit/CN=VikingVPN CA/name=EasyRSA/emailAddress=me@myhost.mydomain
                serial:CF:35:85:EE:80:BF:2A:3E

            X509v3 Extended Key Usage: 
                TLS Web Client Authentication
            X509v3 Key Usage: 
                Digital Signature
    Signature Algorithm: sha256WithRSAEncryption
         28:d0:e6:5f:41:73:e4:40:b3:8a:0f:c0:3e:d4:a9:75:87:b6:
         b7:02:65:89:d4:ad:b3:69:c1:16:df:64:df:0b:09:bb:73:d5:
         74:b9:d4:b3:e0:ef:79:c3:8f:88:2c:c5:9c:4c:45:c3:2c:2f:
         ec:9e:e5:1b:16:57:9c:9d:15:3e:19:e9:56:f9:64:ee:65:40:
         02:d0:35:a8:97:2b:70:a3:34:3f:f8:6c:8e:6d:c7:80:28:34:
         86:ae:45:5c:09:82:50:ec:dd:66:3f:c6:6c:36:a3:ec:67:09:
         38:39:ac:03:25:57:b6:8c:c2:af:2a:91:cb:0a:d2:c5:ee:71:
         01:b2:fc:72:c9:bb:ad:9b:6e:6f:ce:69:2f:4a:2a:5b:59:a7:
         8d:a6:98:d8:a4:3c:6f:9e:c4:9c:08:f8:89:65:13:bf:39:66:
         72:a1:b0:cd:e6:a8:ee:fa:f7:2e:1f:9d:1b:0a:40:29:57:7b:
         a8:97:f5:4d:cc:76:3f:3c:d1:c6:63:4b:49:b9:d0:07:55:3c:
         d2:6d:a0:dc:6d:72:e8:c7:66:3a:45:70:0c:a3:2e:d9:17:fa:
         0c:14:ab:43:02:df:4a:01:23:96:c1:30:d6:11:09:30:c2:0a:
         1f:4e:5d:6e:47:2f:0a:84:6c:c4:37:da:88:19:a4:9f:73:0e:
         f1:bc:80:ab:89:79:01:8e:06:a3:08:b2:66:ee:42:d0:35:3c:
         d1:00:d0:8d:44:98:b4:b0:3a:32:91:1e:dc:c3:16:62:5c:28:
         8c:35:dd:77:93:3f:16:f7:a5:2e:08:5c:b2:6a:f8:e8:3c:22:
         1e:4d:54:8b:4a:99:cf:ad:ff:06:31:1e:8a:a4:11:63:b5:0a:
         e8:50:04:e7:5e:b2:5d:07:6b:60:b0:5f:af:a7:5b:08:ff:af:
         71:eb:0a:bf:a6:0d:47:f3:2f:33:e2:a9:e8:99:19:26:f0:b0:
         d1:22:d5:4d:8e:89:06:31:36:84:8c:3d:94:b8:13:e0:80:7a:
         e2:15:55:6b:e6:bf:ff:c8:b9:39:e6:e2:f2:45:39:44:e3:fb:
         ff:3f:6b:23:05:ee:2e:41:16:db:02:89:d8:a6:d7:ab:bf:88:
         13:65:5c:92:57:b6:b0:53:d8:6b:68:49:99:5e:9d:40:3b:d1:
         1d:72:9c:44:b8:f9:15:7d:af:09:fd:4e:17:ab:99:6a:ac:f6:
         d4:09:75:89:8b:8e:b7:88:97:a6:54:de:0c:bc:61:0e:5e:be:
         a1:3a:1d:dd:c6:fd:3b:af:b0:bb:2c:26:42:b0:95:36:6c:5e:
         e0:c6:75:ad:e2:b7:30:85:84:54:f0:43:b9:35:d3:db:0a:f1:
         56:4f:02:e1:5b:34:05:19
-----BEGIN CERTIFICATE-----
MIIGrTCCBJWgAwIBAgICI1YwDQYJKoZIhvcNAQELBQAwgawxCzAJBgNVBAYTAlVT
MQswCQYDVQQIEwJPSDERMA8GA1UEBxMIQ29sdW1idXMxEjAQBgNVBAoTCVZpa2lu
Z1ZQTjEdMBsGA1UECxMUTXlPcmdhbml6YXRpb25hbFVuaXQxFTATBgNVBAMTDFZp
a2luZ1ZQTiBDQTEQMA4GA1UEKRMHRWFzeVJTQTEhMB8GCSqGSIb3DQEJARYSbWVA
bXlob3N0Lm15ZG9tYWluMB4XDTE2MDkxNzE5NTYyM1oXDTI2MDkxNTE5NTYyM1ow
HzEdMBsGA1UEAxMUQ2xpZW50MjI5NkNlcnQ2ZGM4ZTgwggIiMA0GCSqGSIb3DQEB
AQUAA4ICDwAwggIKAoICAQDC6PUTg3HXRLIrU3fCoh2DW2oLAcSnzbPRVofl/0wp
G/c/x87kYYqeGJJooycXFGaywFkEUSoNF2AIj6vgFUOEzOfC0/lVBVSH0YxJqvRW
BZXExOHRSIC2fu7TwqqCI+1asF8BD8KAQBVxklIZ/5z4TO7+wmA/6ZDYjL9rf5t5
/SawV0Z4F+PQ/P8qMmHriaoxbDaGwUNP3u0N3OhVLBWest6y7W4c4jagm25o9Zvm
OFnpxdf6VFDEd7a13MTOYnpNTJIE9h8HdY7EOuLPI0/6kdPavPHIqgmQnLyUNtw6
OcwbC5Ud8kSlK4DQThOfqr/T0XrdY5ulvr4yKklA4Z9iok77ssd97+Ja5r5zM19O
DAfQw1NGXderYI+i4+ytC8Gw4cPitUUdURAwhQf9xA9GHMf798s+Gg2Lxc1z5SiO
SvVJSdqxizNC/MT25K4ElNdOY+6tVi5kCHVFKAgqhmlkKFzZ2nY/zUr/dOvYSpA1
qK41XqFWsniGv0oDBmpSr46aotw68JoA0dVLgm3omgChkV5pfnQHgZZI2c0H/3Kk
8xyuiiOPaqgNghEDHhmwXlvC7HtP/0G1hjXwZI4jKdha/Yi6Zwrkl189g3ic38K3
dsVot4YVZL6l3WerwWud/6lEJdDdCvFh0c0Xa4zOjVEbTSxbJkZ7gS43Lq9S61OM
twIDAQABo4IBYzCCAV8wCQYDVR0TBAIwADAtBglghkgBhvhCAQ0EIBYeRWFzeS1S
U0EgR2VuZXJhdGVkIENlcnRpZmljYXRlMB0GA1UdDgQWBBTIWdo6votCKt1zNlAV
VHR/oHVT+DCB4QYDVR0jBIHZMIHWgBQSzWAE0qCAnnDtxpm4eyzGUv0ZoaGBsqSB
rzCBrDELMAkGA1UEBhMCVVMxCzAJBgNVBAgTAk9IMREwDwYDVQQHEwhDb2x1bWJ1
czESMBAGA1UEChMJVmlraW5nVlBOMR0wGwYDVQQLExRNeU9yZ2FuaXphdGlvbmFs
VW5pdDEVMBMGA1UEAxMMVmlraW5nVlBOIENBMRAwDgYDVQQpEwdFYXN5UlNBMSEw
HwYJKoZIhvcNAQkBFhJtZUBteWhvc3QubXlkb21haW6CCQDPNYXugL8qPjATBgNV
HSUEDDAKBggrBgEFBQcDAjALBgNVHQ8EBAMCB4AwDQYJKoZIhvcNAQELBQADggIB
ACjQ5l9Bc+RAs4oPwD7UqXWHtrcCZYnUrbNpwRbfZN8LCbtz1XS51LPg73nDj4gs
xZxMRcMsL+ye5RsWV5ydFT4Z6Vb5ZO5lQALQNaiXK3CjND/4bI5tx4AoNIauRVwJ
glDs3WY/xmw2o+xnCTg5rAMlV7aMwq8qkcsK0sXucQGy/HLJu62bbm/OaS9KKltZ
p42mmNikPG+exJwI+IllE785ZnKhsM3mqO769y4fnRsKQClXe6iX9U3Mdj880cZj
S0m50AdVPNJtoNxtcujHZjpFcAyjLtkX+gwUq0MC30oBI5bBMNYRCTDCCh9OXW5H
LwqEbMQ32ogZpJ9zDvG8gKuJeQGOBqMIsmbuQtA1PNEA0I1EmLSwOjKRHtzDFmJc
KIw13XeTPxb3pS4IXLJq+Og8Ih5NVItKmc+t/wYxHoqkEWO1CuhQBOdesl0Ha2Cw
X6+nWwj/r3HrCr+mDUfzLzPiqeiZGSbwsNEi1U2OiQYxNoSMPZS4E+CAeuIVVWvm
v//IuTnm4vJFOUTj+/8/ayMF7i5BFtsCidim16u/iBNlXJJXtrBT2GtoSZlenUA7
0R1ynES4+RV9rwn9ThermWqs9tQJdYmLjreIl6ZU3gy8YQ5evqE6Hd3G/TuvsLss
JkKwlTZsXuDGda3itzCFhFTwQ7k109sK8VZPAuFbNAUZ
-----END CERTIFICATE-----
