Certificate:
    Data:
        Version: 3 (0x2)
        Serial Number: 9052 (0x235c)
    Signature Algorithm: sha256WithRSAEncryption
        Issuer: C=US, ST=OH, L=Columbus, O=VikingVPN, OU=MyOrganizationalUnit, CN=VikingVPN CA/name=EasyRSA/emailAddress=me@myhost.mydomain
        Validity
            Not Before: Sep 18 13:34:57 2016 GMT
            Not After : Sep 16 13:34:57 2026 GMT
        Subject: CN=Client327Cert66f0ca
        Subject Public Key Info:
            Public Key Algorithm: rsaEncryption
                Public-Key: (4096 bit)
                Modulus:
                    00:b3:cd:3e:72:92:71:40:92:48:0a:c3:1b:83:2a:
                    1c:bf:76:27:43:78:8f:96:49:32:d7:9d:02:1d:46:
                    da:d2:29:ff:e4:b7:ac:2b:10:f5:91:24:ff:d6:18:
                    51:02:3c:8b:97:1e:ea:8d:63:37:70:3b:d1:9e:df:
                    db:13:8c:95:ae:ab:e2:6d:08:61:19:bd:17:7f:45:
                    00:fb:5a:f0:36:10:17:40:79:ee:f4:fe:76:f6:e4:
                    d9:a0:1f:ab:f0:c6:d8:4a:c8:69:93:36:6e:e8:b1:
                    60:81:ec:c6:78:f1:e1:e2:50:97:fd:41:0c:06:1c:
                    b6:5c:2c:49:3f:98:73:09:4f:cb:5c:f0:94:80:b8:
                    b3:31:5d:9c:6b:33:8b:bb:3d:8f:f8:cd:01:14:34:
                    09:24:8a:bd:b1:9d:f8:6f:34:15:32:3c:8d:38:9a:
                    42:17:73:80:0d:7f:2b:f5:1c:4b:61:30:0a:6b:7d:
                    a0:c6:c7:79:bd:c2:ab:8c:67:ed:ca:aa:8d:0f:80:
                    0c:3e:9b:14:3e:1a:28:fc:05:24:7a:52:44:74:63:
                    92:1b:82:e2:8b:16:76:ed:0b:16:4a:52:57:dc:a9:
                    df:95:a4:a6:e9:52:bd:ab:49:28:61:15:04:d8:db:
                    de:05:f3:89:fc:45:d7:b4:14:4c:c4:dc:64:ca:1b:
                    cc:5a:ee:b8:5b:63:2c:a2:ec:d4:fd:81:48:fc:f4:
                    98:e3:a3:15:92:bd:3a:48:35:6a:c8:08:50:6a:da:
                    a5:03:9f:af:29:80:d4:d6:79:14:e8:68:72:30:56:
                    86:9d:d3:8c:db:38:60:13:12:6f:65:1b:3d:34:a9:
                    5a:28:96:c6:75:70:5b:36:75:8e:44:31:6a:04:e5:
                    79:5f:89:72:bc:70:9c:7b:d8:9a:cc:92:8a:3f:9d:
                    8b:13:78:0f:de:0b:42:81:46:ba:26:54:c4:8c:17:
                    da:9c:23:9d:e1:3f:fb:55:72:b8:dd:35:25:5e:bd:
                    37:c1:e2:c9:b2:15:fd:46:99:2b:a9:91:ce:e8:27:
                    63:0a:21:49:dd:29:5d:97:f6:2d:b4:fd:44:74:ba:
                    cc:37:cb:89:ba:f1:57:c5:e9:e1:81:32:8c:ee:d1:
                    4b:58:c4:9f:b7:62:e4:54:17:21:a8:49:42:df:9c:
                    30:24:e3:1f:f5:7c:d2:0d:ed:39:1b:64:10:7a:82:
                    0b:3c:57:9c:80:ec:dc:f0:e6:ae:8c:13:f6:a4:8d:
                    ea:64:76:38:f8:06:3b:3c:da:e7:3d:81:ff:97:57:
                    d2:a8:a0:3b:4d:4f:89:fc:e5:e8:74:ce:b5:0d:1e:
                    7d:4a:d4:0e:bb:78:a2:0b:3e:0c:3d:7e:98:1a:bc:
                    2d:ba:2f
                Exponent: 65537 (0x10001)
        X509v3 extensions:
            X509v3 Basic Constraints: 
                CA:FALSE
            Netscape Comment: 
                Easy-RSA Generated Certificate
            X509v3 Subject Key Identifier: 
                18:97:1E:FA:4F:22:1A:5A:08:2A:1B:AB:C0:C0:4A:0A:49:03:FB:E9
            X509v3 Authority Key Identifier: 
                keyid:12:CD:60:04:D2:A0:80:9E:70:ED:C6:99:B8:7B:2C:C6:52:FD:19:A1
                DirName:/C=US/ST=OH/L=Columbus/O=VikingVPN/OU=MyOrganizationalUnit/CN=VikingVPN CA/name=EasyRSA/emailAddress=me@myhost.mydomain
                serial:CF:35:85:EE:80:BF:2A:3E

            X509v3 Extended Key Usage: 
                TLS Web Client Authentication
            X509v3 Key Usage: 
                Digital Signature
    Signature Algorithm: sha256WithRSAEncryption
         b7:28:fb:2f:c7:96:26:2a:fb:c9:e4:03:3a:89:25:f1:02:f2:
         83:f1:78:83:59:d9:52:5d:e9:a9:29:4a:c3:04:4d:26:b1:3e:
         ed:38:fc:86:df:d6:0f:a8:18:11:2f:ff:e8:98:04:84:30:8d:
         93:f5:48:b8:f5:38:3e:85:d8:f5:e3:81:de:db:67:1f:34:de:
         c7:e1:7f:40:41:cf:43:91:f4:5c:3b:57:c4:41:74:3f:34:d2:
         7d:89:ed:9d:b5:e5:f1:a5:d0:2f:38:14:5b:37:c9:4c:90:82:
         21:bc:d4:42:02:95:39:f5:ea:ff:37:66:9a:10:4c:81:3a:08:
         47:5b:4d:92:bf:cd:69:56:af:d0:28:34:2a:42:7c:65:67:54:
         6f:92:aa:8c:97:0d:98:94:d8:30:4d:9d:7a:ee:d4:a4:7d:88:
         d4:1c:b7:e0:ce:ae:33:9d:ed:99:c4:42:50:a0:5c:8d:fe:a4:
         f0:d5:db:ea:f7:99:36:14:58:d9:7a:02:4c:12:9c:58:1b:a4:
         7c:af:55:ca:e6:6c:63:5c:d4:c8:58:29:18:a1:d9:23:6d:a5:
         79:35:e4:09:10:36:02:25:08:14:52:5e:2c:7e:59:f9:17:62:
         ca:d4:ab:ff:1d:cc:f5:f4:f9:3e:d0:bf:dc:53:2a:38:d2:0e:
         d9:4e:b2:36:d4:2e:0d:8c:91:24:e6:e5:9e:76:71:ff:d5:8e:
         80:87:97:81:88:d2:ae:c4:e7:90:e3:28:17:8f:d1:85:dd:e5:
         41:56:1d:6d:48:ad:b1:31:07:f9:19:d5:2d:a1:0d:41:f4:fc:
         f3:ef:ef:1a:73:9b:61:34:c6:75:60:dc:71:75:1c:f1:d1:be:
         07:a0:fa:a4:06:a1:13:4d:85:e6:9f:b1:13:75:27:61:15:8d:
         1f:fe:29:19:9b:8a:ac:91:a6:cc:9f:dc:c0:db:3e:25:04:0b:
         59:da:ba:05:46:4f:0c:56:ca:40:37:da:ba:e4:b4:a0:5b:86:
         17:54:75:90:86:9e:68:ec:0b:79:e7:48:44:c6:a9:37:37:20:
         98:21:32:15:71:81:db:d0:cd:ae:f6:dd:7c:9a:49:4a:22:5b:
         91:b6:75:bd:9a:ec:b2:ae:6e:77:de:90:f4:ac:a7:8e:24:dd:
         21:4f:dd:9f:4a:2f:82:56:96:1c:3c:de:6b:ad:d6:66:ef:ef:
         d3:de:c7:48:23:11:dc:13:89:8f:bb:88:01:31:03:f9:0d:f6:
         ab:26:d2:76:e8:c9:65:64:e1:86:da:b9:ed:a3:3b:e5:21:7e:
         45:0c:5f:bc:68:0e:70:0c:d7:52:b1:22:1e:f4:90:97:76:f9:
         7e:6d:7a:69:af:d6:19:52
-----BEGIN CERTIFICATE-----
MIIGrDCCBJSgAwIBAgICI1wwDQYJKoZIhvcNAQELBQAwgawxCzAJBgNVBAYTAlVT
MQswCQYDVQQIEwJPSDERMA8GA1UEBxMIQ29sdW1idXMxEjAQBgNVBAoTCVZpa2lu
Z1ZQTjEdMBsGA1UECxMUTXlPcmdhbml6YXRpb25hbFVuaXQxFTATBgNVBAMTDFZp
a2luZ1ZQTiBDQTEQMA4GA1UEKRMHRWFzeVJTQTEhMB8GCSqGSIb3DQEJARYSbWVA
bXlob3N0Lm15ZG9tYWluMB4XDTE2MDkxODEzMzQ1N1oXDTI2MDkxNjEzMzQ1N1ow
HjEcMBoGA1UEAxMTQ2xpZW50MzI3Q2VydDY2ZjBjYTCCAiIwDQYJKoZIhvcNAQEB
BQADggIPADCCAgoCggIBALPNPnKScUCSSArDG4MqHL92J0N4j5ZJMtedAh1G2tIp
/+S3rCsQ9ZEk/9YYUQI8i5ce6o1jN3A70Z7f2xOMla6r4m0IYRm9F39FAPta8DYQ
F0B57vT+dvbk2aAfq/DG2ErIaZM2buixYIHsxnjx4eJQl/1BDAYctlwsST+YcwlP
y1zwlIC4szFdnGszi7s9j/jNARQ0CSSKvbGd+G80FTI8jTiaQhdzgA1/K/UcS2Ew
Cmt9oMbHeb3Cq4xn7cqqjQ+ADD6bFD4aKPwFJHpSRHRjkhuC4osWdu0LFkpSV9yp
35WkpulSvatJKGEVBNjb3gXzifxF17QUTMTcZMobzFruuFtjLKLs1P2BSPz0mOOj
FZK9Okg1asgIUGrapQOfrymA1NZ5FOhocjBWhp3TjNs4YBMSb2UbPTSpWiiWxnVw
WzZ1jkQxagTleV+JcrxwnHvYmsySij+dixN4D94LQoFGuiZUxIwX2pwjneE/+1Vy
uN01JV69N8HiybIV/UaZK6mRzugnYwohSd0pXZf2LbT9RHS6zDfLibrxV8Xp4YEy
jO7RS1jEn7di5FQXIahJQt+cMCTjH/V80g3tORtkEHqCCzxXnIDs3PDmrowT9qSN
6mR2OPgGOzza5z2B/5dX0qigO01Pifzl6HTOtQ0efUrUDrt4ogs+DD1+mBq8Lbov
AgMBAAGjggFjMIIBXzAJBgNVHRMEAjAAMC0GCWCGSAGG+EIBDQQgFh5FYXN5LVJT
QSBHZW5lcmF0ZWQgQ2VydGlmaWNhdGUwHQYDVR0OBBYEFBiXHvpPIhpaCCobq8DA
SgpJA/vpMIHhBgNVHSMEgdkwgdaAFBLNYATSoICecO3Gmbh7LMZS/RmhoYGypIGv
MIGsMQswCQYDVQQGEwJVUzELMAkGA1UECBMCT0gxETAPBgNVBAcTCENvbHVtYnVz
MRIwEAYDVQQKEwlWaWtpbmdWUE4xHTAbBgNVBAsTFE15T3JnYW5pemF0aW9uYWxV
bml0MRUwEwYDVQQDEwxWaWtpbmdWUE4gQ0ExEDAOBgNVBCkTB0Vhc3lSU0ExITAf
BgkqhkiG9w0BCQEWEm1lQG15aG9zdC5teWRvbWFpboIJAM81he6Avyo+MBMGA1Ud
JQQMMAoGCCsGAQUFBwMCMAsGA1UdDwQEAwIHgDANBgkqhkiG9w0BAQsFAAOCAgEA
tyj7L8eWJir7yeQDOokl8QLyg/F4g1nZUl3pqSlKwwRNJrE+7Tj8ht/WD6gYES//
6JgEhDCNk/VIuPU4PoXY9eOB3ttnHzTex+F/QEHPQ5H0XDtXxEF0PzTSfYntnbXl
8aXQLzgUWzfJTJCCIbzUQgKVOfXq/zdmmhBMgToIR1tNkr/NaVav0Cg0KkJ8ZWdU
b5KqjJcNmJTYME2deu7UpH2I1By34M6uM53tmcRCUKBcjf6k8NXb6veZNhRY2XoC
TBKcWBukfK9VyuZsY1zUyFgpGKHZI22leTXkCRA2AiUIFFJeLH5Z+RdiytSr/x3M
9fT5PtC/3FMqONIO2U6yNtQuDYyRJOblnnZx/9WOgIeXgYjSrsTnkOMoF4/Rhd3l
QVYdbUitsTEH+RnVLaENQfT88+/vGnObYTTGdWDccXUc8dG+B6D6pAahE02F5p+x
E3UnYRWNH/4pGZuKrJGmzJ/cwNs+JQQLWdq6BUZPDFbKQDfauuS0oFuGF1R1kIae
aOwLeedIRMapNzcgmCEyFXGB29DNrvbdfJpJSiJbkbZ1vZrssq5ud96Q9KynjiTd
IU/dn0ovglaWHDzea63WZu/v097HSCMR3BOJj7uIATED+Q32qybSdujJZWThhtq5
7aM75SF+RQxfvGgOcAzXUrEiHvSQl3b5fm16aa/WGVI=
-----END CERTIFICATE-----
