Certificate:
    Data:
        Version: 3 (0x2)
        Serial Number: 9059 (0x2363)
    Signature Algorithm: sha256WithRSAEncryption
        Issuer: C=US, ST=OH, L=Columbus, O=VikingVPN, OU=MyOrganizationalUnit, CN=VikingVPN CA/name=EasyRSA/emailAddress=me@myhost.mydomain
        Validity
            Not Before: Sep 19 21:31:25 2016 GMT
            Not After : Sep 17 21:31:25 2026 GMT
        Subject: CN=Client552Cert6bc644
        Subject Public Key Info:
            Public Key Algorithm: rsaEncryption
                Public-Key: (4096 bit)
                Modulus:
                    00:e5:eb:07:85:7f:79:98:96:29:ef:62:e4:fb:bf:
                    aa:7b:3e:63:a3:36:22:10:0c:2b:3f:dd:84:3b:6e:
                    8f:9f:a7:6b:86:9f:fb:89:40:b8:e6:5f:86:b3:7b:
                    de:60:6a:34:44:2a:7d:9c:40:56:a8:6a:37:8c:c6:
                    e6:f6:0f:3c:30:df:9e:24:ad:c8:29:93:b1:4f:d9:
                    21:69:a6:d6:10:09:4a:85:f2:97:a1:31:15:7d:55:
                    b4:8a:fc:42:f3:cc:f5:ff:3f:e7:43:8d:9d:93:bb:
                    e2:f6:b8:77:4d:2c:a1:2e:c9:a3:7f:0d:d7:b4:53:
                    5b:64:57:98:52:b7:2f:c6:31:7f:a6:c4:16:2d:67:
                    65:46:44:c3:9b:83:6e:42:38:99:e1:47:0b:35:47:
                    8d:1d:8e:35:ad:0e:68:5d:05:1a:77:4d:ea:04:5d:
                    bc:80:ca:b8:2d:be:0e:c8:af:f6:54:ec:4c:78:f4:
                    cd:f3:2c:11:07:8b:ec:7a:e2:44:c5:32:25:7a:f1:
                    4e:6d:cd:58:0e:4a:16:06:5e:94:86:5c:0e:d3:87:
                    ca:28:fc:88:7e:74:fd:5e:fd:4e:7c:13:99:2a:93:
                    36:a7:6f:23:34:d6:34:dc:a8:e3:b6:0b:b1:88:30:
                    ef:46:30:13:73:13:20:ac:0e:3d:84:8a:d1:5c:e2:
                    94:c2:29:21:e7:d7:69:37:34:f6:35:c2:67:c1:1f:
                    eb:32:2a:b5:50:4d:6d:e2:a5:70:25:84:16:d0:7f:
                    f8:48:cb:c1:fa:c3:44:2d:30:86:43:33:a0:e0:1f:
                    d7:f8:e2:72:e2:32:24:2c:13:61:36:2e:8f:d9:2e:
                    e5:f1:b6:2b:08:06:37:86:72:15:cb:f8:11:42:8c:
                    57:3b:46:d4:8a:a2:5c:c8:4e:c3:6e:03:dc:eb:03:
                    d2:b6:e8:c3:f4:34:dd:98:62:03:ba:05:99:35:f6:
                    e1:f0:4a:02:9e:1d:12:3c:6f:eb:50:c5:5c:3b:75:
                    d3:c7:fe:aa:9e:ab:f2:cd:7e:e4:46:cc:09:76:ef:
                    82:e0:ca:aa:26:69:f9:bf:35:5c:4d:6e:94:88:bb:
                    ec:c2:c4:5f:31:87:5a:da:87:8f:2a:e0:82:70:08:
                    82:0d:74:45:8d:7a:0d:d5:27:a3:d4:e1:a6:a6:9e:
                    2b:3a:6a:9a:78:dc:fb:b2:96:e0:8b:a6:da:70:b5:
                    42:61:2f:39:f3:76:8c:ac:0f:54:b1:30:96:b7:8f:
                    13:99:37:4f:dd:24:f0:cb:51:ae:75:89:c8:3b:f8:
                    bc:1b:9d:59:01:b9:09:6d:b3:8b:79:55:ba:7e:98:
                    66:af:17:1a:17:cf:84:9f:bb:05:f8:9d:af:0c:6a:
                    1a:b0:2d
                Exponent: 65537 (0x10001)
        X509v3 extensions:
            X509v3 Basic Constraints: 
                CA:FALSE
            Netscape Comment: 
                Easy-RSA Generated Certificate
            X509v3 Subject Key Identifier: 
                13:02:83:5C:B1:1E:6D:AA:EA:58:7C:95:36:12:14:AE:5D:B4:23:D9
            X509v3 Authority Key Identifier: 
                keyid:12:CD:60:04:D2:A0:80:9E:70:ED:C6:99:B8:7B:2C:C6:52:FD:19:A1
                DirName:/C=US/ST=OH/L=Columbus/O=VikingVPN/OU=MyOrganizationalUnit/CN=VikingVPN CA/name=EasyRSA/emailAddress=me@myhost.mydomain
                serial:CF:35:85:EE:80:BF:2A:3E

            X509v3 Extended Key Usage: 
                TLS Web Client Authentication
            X509v3 Key Usage: 
                Digital Signature
    Signature Algorithm: sha256WithRSAEncryption
         28:0f:d1:60:b3:ee:69:b5:62:ff:80:d2:a9:6a:bd:34:61:9e:
         74:0f:69:4f:d7:6b:32:75:68:b9:e0:55:0d:74:65:aa:d5:17:
         45:94:dc:30:6c:6a:37:a5:d4:99:0e:50:35:7f:27:57:ab:0a:
         ff:9b:d0:be:96:d0:3e:37:79:99:f9:26:ca:aa:7f:9e:c5:fd:
         c0:cf:e6:87:6a:79:74:fe:e0:02:8c:0e:be:f9:1f:bc:f9:8e:
         71:2f:ef:20:a2:94:fb:14:0e:b3:87:99:21:c2:e2:d7:65:3f:
         73:10:28:4b:3d:9e:18:f5:1f:24:01:ea:0a:24:c0:f3:9a:3d:
         39:de:86:23:77:0c:38:fc:7b:fb:7b:6d:aa:28:04:57:ca:7a:
         5c:90:ed:e0:38:fc:90:96:4f:cd:8c:4f:24:cb:c1:59:e4:29:
         55:9f:a3:c3:90:a0:76:45:d5:96:7e:a9:28:8d:d7:81:be:cc:
         c8:fb:17:e5:21:eb:d8:3d:a7:0a:ba:53:ae:6e:de:d8:88:30:
         13:87:c9:65:34:29:db:42:66:d0:20:9a:4d:bf:31:51:85:63:
         c8:1f:34:1c:ba:6d:d4:3e:6e:db:e8:46:d1:ac:83:f6:ae:44:
         ee:b0:9c:2b:bd:2d:5b:e6:d6:3f:57:79:19:7c:0c:13:c5:c1:
         e8:ac:2c:5d:e3:76:5d:69:8a:0e:8b:02:02:0a:d0:fa:7b:8f:
         ad:b5:7d:1c:8f:32:7f:7f:95:65:87:41:78:73:c3:84:46:c5:
         14:ac:e1:82:11:2b:ad:1b:0a:cb:23:0e:04:25:7a:a8:67:2c:
         28:df:f0:db:49:eb:13:a8:46:cd:de:ee:38:6b:f6:5d:4b:7a:
         13:d1:e1:59:ce:d3:db:9c:e0:a3:d3:6a:f3:60:49:c2:5d:e4:
         d5:d3:52:78:d0:f1:65:17:b1:a9:bb:a9:ef:ff:9b:66:ca:f0:
         d4:9a:35:72:14:ef:b8:d1:e1:68:68:15:84:da:dc:1f:ee:e7:
         7a:da:42:de:57:e1:d5:4c:4f:5a:f8:c6:6b:9f:fd:d2:0c:b5:
         3d:ea:97:2c:7d:60:0a:cf:34:b7:07:b9:c8:1e:36:3c:b0:26:
         93:00:65:71:bd:4c:67:14:ec:1d:5d:16:20:5b:93:d8:25:17:
         c0:67:df:fe:49:4d:63:b7:99:8a:d4:85:b3:b8:01:82:e5:44:
         05:64:b3:08:be:0d:47:53:a8:11:7d:61:8c:0a:ac:23:97:d9:
         7d:fc:6b:38:e3:eb:60:cf:f0:c1:ba:e1:28:95:64:06:b2:bd:
         a2:07:6a:6c:b0:e8:74:bb:82:5a:75:a7:43:cc:6f:49:15:50:
         a4:7a:c3:2d:2a:52:f2:9d
-----BEGIN CERTIFICATE-----
MIIGrDCCBJSgAwIBAgICI2MwDQYJKoZIhvcNAQELBQAwgawxCzAJBgNVBAYTAlVT
MQswCQYDVQQIEwJPSDERMA8GA1UEBxMIQ29sdW1idXMxEjAQBgNVBAoTCVZpa2lu
Z1ZQTjEdMBsGA1UECxMUTXlPcmdhbml6YXRpb25hbFVuaXQxFTATBgNVBAMTDFZp
a2luZ1ZQTiBDQTEQMA4GA1UEKRMHRWFzeVJTQTEhMB8GCSqGSIb3DQEJARYSbWVA
bXlob3N0Lm15ZG9tYWluMB4XDTE2MDkxOTIxMzEyNVoXDTI2MDkxNzIxMzEyNVow
HjEcMBoGA1UEAxMTQ2xpZW50NTUyQ2VydDZiYzY0NDCCAiIwDQYJKoZIhvcNAQEB
BQADggIPADCCAgoCggIBAOXrB4V/eZiWKe9i5Pu/qns+Y6M2IhAMKz/dhDtuj5+n
a4af+4lAuOZfhrN73mBqNEQqfZxAVqhqN4zG5vYPPDDfniStyCmTsU/ZIWmm1hAJ
SoXyl6ExFX1VtIr8QvPM9f8/50ONnZO74va4d00soS7Jo38N17RTW2RXmFK3L8Yx
f6bEFi1nZUZEw5uDbkI4meFHCzVHjR2ONa0OaF0FGndN6gRdvIDKuC2+Dsiv9lTs
THj0zfMsEQeL7HriRMUyJXrxTm3NWA5KFgZelIZcDtOHyij8iH50/V79TnwTmSqT
NqdvIzTWNNyo47YLsYgw70YwE3MTIKwOPYSK0VzilMIpIefXaTc09jXCZ8Ef6zIq
tVBNbeKlcCWEFtB/+EjLwfrDRC0whkMzoOAf1/jicuIyJCwTYTYuj9ku5fG2KwgG
N4ZyFcv4EUKMVztG1IqiXMhOw24D3OsD0rbow/Q03ZhiA7oFmTX24fBKAp4dEjxv
61DFXDt108f+qp6r8s1+5EbMCXbvguDKqiZp+b81XE1ulIi77MLEXzGHWtqHjyrg
gnAIgg10RY16DdUno9ThpqaeKzpqmnjc+7KW4Ium2nC1QmEvOfN2jKwPVLEwlreP
E5k3T90k8MtRrnWJyDv4vBudWQG5CW2zi3lVun6YZq8XGhfPhJ+7BfidrwxqGrAt
AgMBAAGjggFjMIIBXzAJBgNVHRMEAjAAMC0GCWCGSAGG+EIBDQQgFh5FYXN5LVJT
QSBHZW5lcmF0ZWQgQ2VydGlmaWNhdGUwHQYDVR0OBBYEFBMCg1yxHm2q6lh8lTYS
FK5dtCPZMIHhBgNVHSMEgdkwgdaAFBLNYATSoICecO3Gmbh7LMZS/RmhoYGypIGv
MIGsMQswCQYDVQQGEwJVUzELMAkGA1UECBMCT0gxETAPBgNVBAcTCENvbHVtYnVz
MRIwEAYDVQQKEwlWaWtpbmdWUE4xHTAbBgNVBAsTFE15T3JnYW5pemF0aW9uYWxV
bml0MRUwEwYDVQQDEwxWaWtpbmdWUE4gQ0ExEDAOBgNVBCkTB0Vhc3lSU0ExITAf
BgkqhkiG9w0BCQEWEm1lQG15aG9zdC5teWRvbWFpboIJAM81he6Avyo+MBMGA1Ud
JQQMMAoGCCsGAQUFBwMCMAsGA1UdDwQEAwIHgDANBgkqhkiG9w0BAQsFAAOCAgEA
KA/RYLPuabVi/4DSqWq9NGGedA9pT9drMnVoueBVDXRlqtUXRZTcMGxqN6XUmQ5Q
NX8nV6sK/5vQvpbQPjd5mfkmyqp/nsX9wM/mh2p5dP7gAowOvvkfvPmOcS/vIKKU
+xQOs4eZIcLi12U/cxAoSz2eGPUfJAHqCiTA85o9Od6GI3cMOPx7+3ttqigEV8p6
XJDt4Dj8kJZPzYxPJMvBWeQpVZ+jw5CgdkXVln6pKI3Xgb7MyPsX5SHr2D2nCrpT
rm7e2IgwE4fJZTQp20Jm0CCaTb8xUYVjyB80HLpt1D5u2+hG0ayD9q5E7rCcK70t
W+bWP1d5GXwME8XB6KwsXeN2XWmKDosCAgrQ+nuPrbV9HI8yf3+VZYdBeHPDhEbF
FKzhghErrRsKyyMOBCV6qGcsKN/w20nrE6hGzd7uOGv2XUt6E9HhWc7T25zgo9Nq
82BJwl3k1dNSeNDxZRexqbup7/+bZsrw1Jo1chTvuNHhaGgVhNrcH+7netpC3lfh
1UxPWvjGa5/90gy1PeqXLH1gCs80twe5yB42PLAmkwBlcb1MZxTsHV0WIFuT2CUX
wGff/klNY7eZitSFs7gBguVEBWSzCL4NR1OoEX1hjAqsI5fZffxrOOPrYM/wwbrh
KJVkBrK9ogdqbLDodLuCWnWnQ8xvSRVQpHrDLSpS8p0=
-----END CERTIFICATE-----
