Certificate:
    Data:
        Version: 3 (0x2)
        Serial Number: 9073 (0x2371)
    Signature Algorithm: sha256WithRSAEncryption
        Issuer: C=US, ST=OH, L=Columbus, O=VikingVPN, OU=MyOrganizationalUnit, CN=VikingVPN CA/name=EasyRSA/emailAddress=me@myhost.mydomain
        Validity
            Not Before: Sep 21 13:01:17 2016 GMT
            Not After : Sep 19 13:01:17 2026 GMT
        Subject: CN=Client1617Certecea17
        Subject Public Key Info:
            Public Key Algorithm: rsaEncryption
                Public-Key: (4096 bit)
                Modulus:
                    00:a8:d3:6e:6a:cf:16:56:29:9e:95:8d:e6:f1:7b:
                    84:02:d4:50:43:76:5b:a4:ba:8b:85:f9:0a:38:d2:
                    cb:12:a0:7b:d3:c4:66:e0:c3:28:2b:0a:6f:87:9c:
                    86:6b:6f:9b:50:b8:aa:75:63:ca:9e:e7:6e:49:de:
                    bc:f0:1e:80:36:bb:9f:6b:81:23:69:d6:6a:2b:f2:
                    9b:1c:a7:1a:47:af:24:2a:6b:2a:fb:54:2d:c7:e7:
                    3c:24:4e:a0:da:38:20:33:2e:86:09:75:c7:06:81:
                    14:92:72:8e:6f:60:72:a8:57:64:31:bd:77:75:92:
                    39:9e:e4:c9:b4:c4:31:95:2e:89:6a:f5:d8:53:92:
                    8e:5c:79:a2:83:e4:6d:66:5e:d0:b5:1c:06:d9:fc:
                    fb:8a:4e:e2:ff:95:7f:ea:49:95:20:1e:9c:e5:cf:
                    af:25:52:b7:08:60:58:89:8f:6c:02:72:55:1a:ff:
                    c0:33:96:a1:50:20:b8:a2:8a:43:bf:d1:66:37:33:
                    ce:5e:26:a9:ed:c7:1b:64:ea:18:b5:03:16:73:22:
                    04:25:a2:dc:c8:4e:64:ad:10:b3:50:e5:a9:65:be:
                    91:fb:20:88:46:37:8c:78:c3:88:fc:42:ee:44:01:
                    69:ca:45:13:f9:5b:37:c8:d1:42:a9:a6:76:05:09:
                    c7:fb:65:31:ec:f7:ec:77:ee:67:7c:07:2b:dc:5d:
                    e8:e4:d5:6c:72:ba:b5:f8:4c:ea:f4:01:db:79:a8:
                    90:c8:09:d2:11:28:cc:f0:4c:b8:03:49:5c:8f:1a:
                    b5:de:23:5b:a7:d9:bd:8d:8c:c6:11:22:69:bf:cc:
                    77:dc:fd:cd:ba:cb:70:e6:aa:8c:1c:21:fc:f3:f4:
                    b1:ad:7b:44:f3:4b:b3:1e:6e:a8:41:db:a8:f0:d8:
                    d8:08:55:60:72:f1:21:75:87:c7:4a:de:07:0d:ea:
                    0a:d9:07:f9:d4:e4:18:38:fa:ce:6d:96:9a:20:96:
                    17:cf:22:0e:55:3a:27:18:9d:57:cb:a7:bb:43:8a:
                    94:a7:56:7e:28:bf:3f:55:10:5f:ef:42:f0:07:e3:
                    d8:4b:a1:dd:b6:72:2d:52:c1:c4:c7:62:40:8f:56:
                    b9:3d:85:97:c8:7e:dd:d7:47:de:68:65:30:d9:7e:
                    46:92:60:5c:bd:44:c6:57:7d:e4:2a:86:aa:8d:2f:
                    3d:68:86:7b:e6:eb:40:ef:95:69:f7:1a:85:d2:1d:
                    6d:17:d4:a6:58:79:ca:89:a8:a3:20:c8:e1:2d:ba:
                    4f:a3:65:76:e3:90:a3:bb:e3:e5:03:c6:0b:83:fe:
                    e8:38:2a:b7:14:1d:30:e3:58:04:ee:bf:17:0c:dd:
                    db:03:31
                Exponent: 65537 (0x10001)
        X509v3 extensions:
            X509v3 Basic Constraints: 
                CA:FALSE
            Netscape Comment: 
                Easy-RSA Generated Certificate
            X509v3 Subject Key Identifier: 
                82:4C:51:5B:B8:80:8D:4D:D0:84:C0:2D:60:02:85:50:BB:16:30:59
            X509v3 Authority Key Identifier: 
                keyid:12:CD:60:04:D2:A0:80:9E:70:ED:C6:99:B8:7B:2C:C6:52:FD:19:A1
                DirName:/C=US/ST=OH/L=Columbus/O=VikingVPN/OU=MyOrganizationalUnit/CN=VikingVPN CA/name=EasyRSA/emailAddress=me@myhost.mydomain
                serial:CF:35:85:EE:80:BF:2A:3E

            X509v3 Extended Key Usage: 
                TLS Web Client Authentication
            X509v3 Key Usage: 
                Digital Signature
    Signature Algorithm: sha256WithRSAEncryption
         20:53:7d:42:44:69:fe:d4:bd:eb:77:2b:f7:4d:23:05:d7:fd:
         6f:71:f1:86:2d:33:c1:54:9b:d8:08:8f:c7:b1:79:9d:13:bf:
         e2:f4:19:a5:8f:72:9e:6c:c8:1b:1d:19:61:5a:60:95:96:fc:
         7e:cc:df:a4:99:4d:c0:c0:e6:1c:6d:3b:47:01:0c:8f:6b:da:
         e8:fc:55:2a:0b:b5:9a:38:49:55:5b:f5:09:80:a2:82:33:17:
         1c:7b:b6:7f:6e:0c:66:0e:d8:00:a0:16:6e:a6:89:09:6d:8d:
         8d:d5:b0:4d:4c:97:66:77:db:a2:cf:b3:3f:06:dd:5a:df:4d:
         8d:c9:21:6b:66:ce:4e:4a:83:fc:2b:3a:ca:21:08:96:10:67:
         d8:ab:b2:a4:5a:af:a5:71:ed:4a:5f:9e:de:bf:69:7c:35:00:
         47:d4:07:92:b1:5a:f9:d1:22:b4:b4:46:38:81:9b:6e:c8:8e:
         db:64:d1:c8:a8:38:34:7a:c7:92:62:19:ad:64:55:d3:93:a0:
         19:93:6a:53:88:47:ac:8f:17:ce:05:47:57:a6:8f:a0:18:49:
         d3:d5:92:51:67:f6:21:81:a2:dc:4c:28:f0:45:ef:6e:13:f7:
         d8:bb:76:70:a4:1e:8d:d7:47:eb:c2:b0:6c:bd:b1:fd:2e:1a:
         a4:4c:b4:2e:65:5a:3c:c1:a6:58:92:66:8a:e8:c2:ad:a0:e8:
         53:0f:e1:45:a1:2d:b9:bb:6f:b3:e0:87:bc:fd:95:70:c7:6c:
         b5:95:f4:60:e1:b0:36:46:3e:00:a2:8d:20:15:eb:7f:86:42:
         5b:7d:8a:09:ab:c0:0a:9d:b9:bf:c7:ff:62:1d:df:4f:ad:f8:
         ec:c6:a6:7e:67:0a:e4:16:06:56:6c:36:d3:c5:1b:a3:e7:d7:
         43:17:66:36:fd:ef:ec:3d:c0:20:17:9b:f5:8b:cd:b7:25:32:
         81:24:68:69:19:b0:a4:80:ba:b3:0d:1e:f8:2a:73:9d:a9:16:
         04:6c:12:74:d7:22:e7:2d:c3:81:10:47:41:5f:a0:01:29:d5:
         34:63:1b:99:21:91:40:c4:10:ee:8e:dc:dd:cf:38:6d:25:4f:
         9a:76:24:f7:12:6e:96:9d:a5:c3:d9:22:d2:9e:27:ca:0e:ce:
         d8:0a:e8:d6:89:98:37:51:b2:88:1f:b1:bb:d1:dc:bb:5e:c7:
         85:37:71:c3:76:42:50:df:be:d0:f4:79:b1:ba:20:67:ab:55:
         fa:d5:bf:01:c2:5d:1c:14:94:46:b9:89:b2:a7:f3:4d:79:0d:
         70:0c:72:5f:d9:ad:97:6c:e6:4a:33:85:14:1a:81:1a:a2:0c:
         89:83:95:9a:4c:cf:cd:df
-----BEGIN CERTIFICATE-----
MIIGrTCCBJWgAwIBAgICI3EwDQYJKoZIhvcNAQELBQAwgawxCzAJBgNVBAYTAlVT
MQswCQYDVQQIEwJPSDERMA8GA1UEBxMIQ29sdW1idXMxEjAQBgNVBAoTCVZpa2lu
Z1ZQTjEdMBsGA1UECxMUTXlPcmdhbml6YXRpb25hbFVuaXQxFTATBgNVBAMTDFZp
a2luZ1ZQTiBDQTEQMA4GA1UEKRMHRWFzeVJTQTEhMB8GCSqGSIb3DQEJARYSbWVA
bXlob3N0Lm15ZG9tYWluMB4XDTE2MDkyMTEzMDExN1oXDTI2MDkxOTEzMDExN1ow
HzEdMBsGA1UEAxMUQ2xpZW50MTYxN0NlcnRlY2VhMTcwggIiMA0GCSqGSIb3DQEB
AQUAA4ICDwAwggIKAoICAQCo025qzxZWKZ6Vjebxe4QC1FBDdlukuouF+Qo40ssS
oHvTxGbgwygrCm+HnIZrb5tQuKp1Y8qe525J3rzwHoA2u59rgSNp1mor8pscpxpH
ryQqayr7VC3H5zwkTqDaOCAzLoYJdccGgRSSco5vYHKoV2QxvXd1kjme5Mm0xDGV
Lolq9dhTko5ceaKD5G1mXtC1HAbZ/PuKTuL/lX/qSZUgHpzlz68lUrcIYFiJj2wC
clUa/8AzlqFQILiiikO/0WY3M85eJqntxxtk6hi1AxZzIgQlotzITmStELNQ5all
vpH7IIhGN4x4w4j8Qu5EAWnKRRP5WzfI0UKppnYFCcf7ZTHs9+x37md8ByvcXejk
1WxyurX4TOr0Adt5qJDICdIRKMzwTLgDSVyPGrXeI1un2b2NjMYRImm/zHfc/c26
y3DmqowcIfzz9LGte0TzS7MebqhB26jw2NgIVWBy8SF1h8dK3gcN6grZB/nU5Bg4
+s5tlpoglhfPIg5VOicYnVfLp7tDipSnVn4ovz9VEF/vQvAH49hLod22ci1SwcTH
YkCPVrk9hZfIft3XR95oZTDZfkaSYFy9RMZXfeQqhqqNLz1ohnvm60DvlWn3GoXS
HW0X1KZYecqJqKMgyOEtuk+jZXbjkKO74+UDxguD/ug4KrcUHTDjWATuvxcM3dsD
MQIDAQABo4IBYzCCAV8wCQYDVR0TBAIwADAtBglghkgBhvhCAQ0EIBYeRWFzeS1S
U0EgR2VuZXJhdGVkIENlcnRpZmljYXRlMB0GA1UdDgQWBBSCTFFbuICNTdCEwC1g
AoVQuxYwWTCB4QYDVR0jBIHZMIHWgBQSzWAE0qCAnnDtxpm4eyzGUv0ZoaGBsqSB
rzCBrDELMAkGA1UEBhMCVVMxCzAJBgNVBAgTAk9IMREwDwYDVQQHEwhDb2x1bWJ1
czESMBAGA1UEChMJVmlraW5nVlBOMR0wGwYDVQQLExRNeU9yZ2FuaXphdGlvbmFs
VW5pdDEVMBMGA1UEAxMMVmlraW5nVlBOIENBMRAwDgYDVQQpEwdFYXN5UlNBMSEw
HwYJKoZIhvcNAQkBFhJtZUBteWhvc3QubXlkb21haW6CCQDPNYXugL8qPjATBgNV
HSUEDDAKBggrBgEFBQcDAjALBgNVHQ8EBAMCB4AwDQYJKoZIhvcNAQELBQADggIB
ACBTfUJEaf7Uvet3K/dNIwXX/W9x8YYtM8FUm9gIj8exeZ0Tv+L0GaWPcp5syBsd
GWFaYJWW/H7M36SZTcDA5hxtO0cBDI9r2uj8VSoLtZo4SVVb9QmAooIzFxx7tn9u
DGYO2ACgFm6miQltjY3VsE1Ml2Z326LPsz8G3VrfTY3JIWtmzk5Kg/wrOsohCJYQ
Z9irsqRar6Vx7Upfnt6/aXw1AEfUB5KxWvnRIrS0RjiBm27Ijttk0cioODR6x5Ji
Ga1kVdOToBmTalOIR6yPF84FR1emj6AYSdPVklFn9iGBotxMKPBF724T99i7dnCk
Ho3XR+vCsGy9sf0uGqRMtC5lWjzBpliSZorowq2g6FMP4UWhLbm7b7Pgh7z9lXDH
bLWV9GDhsDZGPgCijSAV63+GQlt9igmrwAqdub/H/2Id30+t+OzGpn5nCuQWBlZs
NtPFG6Pn10MXZjb97+w9wCAXm/WLzbclMoEkaGkZsKSAurMNHvgqc52pFgRsEnTX
Iuctw4EQR0FfoAEp1TRjG5khkUDEEO6O3N3POG0lT5p2JPcSbpadpcPZItKeJ8oO
ztgK6NaJmDdRsogfsbvR3Ltex4U3ccN2QlDfvtD0ebG6IGerVfrVvwHCXRwUlEa5
ibKn8015DXAMcl/ZrZds5kozhRQagRqiDImDlZpMz83f
-----END CERTIFICATE-----
