Certificate:
    Data:
        Version: 3 (0x2)
        Serial Number: 9084 (0x237c)
    Signature Algorithm: sha256WithRSAEncryption
        Issuer: C=US, ST=OH, L=Columbus, O=VikingVPN, OU=MyOrganizationalUnit, CN=VikingVPN CA/name=EasyRSA/emailAddress=me@myhost.mydomain
        Validity
            Not Before: Sep 22 12:09:16 2016 GMT
            Not After : Sep 20 12:09:16 2026 GMT
        Subject: CN=Client2190Cert5869d6
        Subject Public Key Info:
            Public Key Algorithm: rsaEncryption
                Public-Key: (4096 bit)
                Modulus:
                    00:a9:8b:6f:1d:96:f0:4c:88:39:0f:92:c5:f8:3f:
                    a9:06:0b:a3:59:46:aa:ed:ae:03:22:c3:9a:77:3a:
                    de:29:49:ba:d7:8b:d3:60:90:f3:99:ba:a0:09:6c:
                    f8:3b:31:49:20:3b:f1:78:57:d6:68:ca:66:74:c5:
                    1f:e9:a1:62:4c:e1:50:e7:1f:17:bf:56:57:1f:4a:
                    c1:47:74:22:17:a7:39:09:62:bb:42:46:ca:06:84:
                    6b:37:f2:9d:27:97:15:7e:b8:c1:13:3a:f1:b0:95:
                    a4:5f:66:51:30:79:c1:d8:fa:e2:50:4a:44:4c:d8:
                    e2:6d:30:c5:de:c5:9b:4c:bd:76:b1:11:e7:2a:f4:
                    e0:95:50:85:5b:1c:1d:d2:b8:5c:18:71:1c:b2:24:
                    3a:0d:85:7c:b7:21:c9:28:4f:ac:eb:8a:81:50:4e:
                    a7:9c:4a:bc:f5:ca:cc:d3:7f:5e:ff:01:52:d5:18:
                    cd:76:f4:96:5d:83:64:77:37:16:82:e4:44:68:d6:
                    d0:ba:2f:f9:b4:74:08:cf:aa:7a:60:f9:97:f1:91:
                    b2:82:3d:f6:0d:a5:1a:ed:d0:12:6e:a3:00:ff:41:
                    40:8d:ad:52:12:bc:1f:49:06:4e:9d:8a:a7:39:51:
                    64:68:f5:bc:62:e3:7f:53:98:eb:c5:cf:03:f0:00:
                    1c:b6:10:a3:a9:ea:fb:7c:79:aa:68:42:ca:01:67:
                    d2:70:ad:f4:90:7f:16:3b:20:35:94:c0:d9:7e:c6:
                    b3:57:c5:e3:bb:9f:8e:07:ba:4f:d2:40:a2:15:75:
                    2e:94:9c:25:5f:50:7e:2e:7d:fa:c2:9d:8a:5e:9b:
                    61:4f:7f:6d:4e:f8:7f:14:a0:79:fa:f0:b9:f5:40:
                    c6:7e:10:5f:21:40:a3:8d:89:1c:19:1a:86:2e:e4:
                    ac:ed:af:01:52:7d:d1:02:fd:2d:18:6c:bb:db:97:
                    94:f1:f9:45:f7:6c:05:f9:5b:9e:0b:28:36:fb:ac:
                    38:3f:31:49:ef:a3:05:07:b9:c9:6d:6b:d3:41:f7:
                    0b:dc:86:2b:5d:7f:37:00:9d:56:b0:90:7e:ec:76:
                    25:4c:9e:e3:7e:3d:61:6a:74:fe:f1:42:9e:49:ca:
                    63:82:19:45:b2:ff:31:e2:ec:4e:4e:7e:94:5b:69:
                    9c:c2:47:2f:92:58:9b:39:c5:b6:bc:17:cd:81:59:
                    45:f6:6f:cd:fd:f8:9a:84:48:0d:28:b3:36:28:2a:
                    3a:7d:fe:54:8d:f4:8e:0d:74:31:bf:35:6d:95:7d:
                    2f:4b:88:14:5d:69:d1:5a:0c:d1:79:6f:79:32:16:
                    b2:28:87:e0:b1:ae:7b:37:fb:20:df:8c:cd:8b:3b:
                    f8:1c:d3
                Exponent: 65537 (0x10001)
        X509v3 extensions:
            X509v3 Basic Constraints: 
                CA:FALSE
            Netscape Comment: 
                Easy-RSA Generated Certificate
            X509v3 Subject Key Identifier: 
                11:91:25:1A:60:D5:C6:89:D8:9E:C4:5D:97:06:39:6D:1B:7F:FB:E7
            X509v3 Authority Key Identifier: 
                keyid:12:CD:60:04:D2:A0:80:9E:70:ED:C6:99:B8:7B:2C:C6:52:FD:19:A1
                DirName:/C=US/ST=OH/L=Columbus/O=VikingVPN/OU=MyOrganizationalUnit/CN=VikingVPN CA/name=EasyRSA/emailAddress=me@myhost.mydomain
                serial:CF:35:85:EE:80:BF:2A:3E

            X509v3 Extended Key Usage: 
                TLS Web Client Authentication
            X509v3 Key Usage: 
                Digital Signature
    Signature Algorithm: sha256WithRSAEncryption
         77:16:c7:02:94:30:20:cb:46:3a:86:7e:b3:0c:88:5f:57:01:
         df:c1:4e:89:d2:3e:32:6b:49:6a:84:31:2c:78:f6:6c:4e:22:
         52:4b:ea:04:7e:e5:8c:e4:5c:1b:91:3b:1b:ad:3a:02:b3:15:
         a4:f2:a2:a3:61:b1:29:e5:cd:0b:a0:6f:64:81:99:5c:d2:01:
         da:1d:80:63:3f:43:74:9c:45:49:12:7e:e7:90:77:07:ee:e3:
         11:2c:35:3f:b5:6b:0f:ca:d5:76:a5:4d:1a:b0:36:c7:e3:72:
         8e:17:29:21:90:7d:ef:39:96:3a:c7:df:c3:6a:27:ca:2f:4d:
         d2:f3:e3:cf:f0:43:bd:ed:8c:0b:c4:d8:9c:45:e7:af:c7:ab:
         ef:6b:33:7d:a3:c9:d4:c9:cd:0c:c6:bf:95:99:2d:04:e7:ca:
         a4:2a:25:72:f8:00:a2:a1:39:94:36:11:ce:03:fe:63:f1:49:
         13:c8:37:1d:94:3a:17:67:66:26:52:55:06:89:3f:57:33:ad:
         f2:46:09:22:cf:27:8d:66:57:74:f2:62:4f:fb:fb:0d:63:0d:
         e2:2f:5c:30:ae:55:c7:01:4c:c1:d3:54:d2:c6:8e:43:ec:f8:
         6f:81:e0:fa:02:ea:ed:1a:49:a6:0b:21:4b:88:a9:95:98:c0:
         1a:e6:26:cb:5b:ce:59:3f:b3:f6:da:cd:27:c8:af:70:b7:3a:
         30:50:8a:34:d2:36:ea:62:a1:b8:4e:23:ce:5f:6c:db:af:c4:
         7e:0e:31:44:bb:19:9e:28:93:7d:34:5f:bd:0c:39:ce:32:65:
         da:00:1d:ea:d8:69:ce:b8:01:13:1f:c6:31:fd:c8:dc:32:ed:
         a1:c3:8c:7d:3a:f2:db:f9:8f:95:fb:93:53:2f:f7:44:d9:a9:
         a5:b5:61:2d:a2:98:72:c2:8a:04:b3:55:85:d5:c4:20:8d:40:
         c0:d0:74:76:9a:82:d7:c7:b0:43:0a:aa:19:c6:2d:f3:14:49:
         5c:95:0c:3a:6c:84:ed:3e:9b:9c:aa:40:05:c5:95:fc:5d:19:
         e2:72:ce:a8:c7:b8:67:e6:a4:78:a2:a6:df:59:4d:bd:59:a7:
         6d:18:8c:e7:63:8c:33:e4:27:7c:95:d2:d4:68:4a:c0:0c:eb:
         d2:46:d7:a6:71:63:c1:32:d9:25:0f:68:28:6d:10:e6:38:8a:
         f1:64:b9:b6:5a:30:6f:65:1f:c5:02:0f:6a:da:49:ac:a3:55:
         54:2d:1f:6d:6c:21:87:15:72:ff:32:53:dc:49:f5:a7:4f:d0:
         32:84:6a:84:bd:2c:e8:cc:88:d2:ae:37:ac:dd:e4:55:43:91:
         5d:c4:82:4d:f9:f6:2a:f7
-----BEGIN CERTIFICATE-----
MIIGrTCCBJWgAwIBAgICI3wwDQYJKoZIhvcNAQELBQAwgawxCzAJBgNVBAYTAlVT
MQswCQYDVQQIEwJPSDERMA8GA1UEBxMIQ29sdW1idXMxEjAQBgNVBAoTCVZpa2lu
Z1ZQTjEdMBsGA1UECxMUTXlPcmdhbml6YXRpb25hbFVuaXQxFTATBgNVBAMTDFZp
a2luZ1ZQTiBDQTEQMA4GA1UEKRMHRWFzeVJTQTEhMB8GCSqGSIb3DQEJARYSbWVA
bXlob3N0Lm15ZG9tYWluMB4XDTE2MDkyMjEyMDkxNloXDTI2MDkyMDEyMDkxNlow
HzEdMBsGA1UEAxMUQ2xpZW50MjE5MENlcnQ1ODY5ZDYwggIiMA0GCSqGSIb3DQEB
AQUAA4ICDwAwggIKAoICAQCpi28dlvBMiDkPksX4P6kGC6NZRqrtrgMiw5p3Ot4p
SbrXi9NgkPOZuqAJbPg7MUkgO/F4V9ZoymZ0xR/poWJM4VDnHxe/VlcfSsFHdCIX
pzkJYrtCRsoGhGs38p0nlxV+uMETOvGwlaRfZlEwecHY+uJQSkRM2OJtMMXexZtM
vXaxEecq9OCVUIVbHB3SuFwYcRyyJDoNhXy3IckoT6zrioFQTqecSrz1yszTf17/
AVLVGM129JZdg2R3NxaC5ERo1tC6L/m0dAjPqnpg+ZfxkbKCPfYNpRrt0BJuowD/
QUCNrVISvB9JBk6diqc5UWRo9bxi439TmOvFzwPwABy2EKOp6vt8eapoQsoBZ9Jw
rfSQfxY7IDWUwNl+xrNXxeO7n44Huk/SQKIVdS6UnCVfUH4uffrCnYpem2FPf21O
+H8UoHn68Ln1QMZ+EF8hQKONiRwZGoYu5KztrwFSfdEC/S0YbLvbl5Tx+UX3bAX5
W54LKDb7rDg/MUnvowUHuclta9NB9wvchitdfzcAnVawkH7sdiVMnuN+PWFqdP7x
Qp5JymOCGUWy/zHi7E5OfpRbaZzCRy+SWJs5xba8F82BWUX2b839+JqESA0oszYo
Kjp9/lSN9I4NdDG/NW2VfS9LiBRdadFaDNF5b3kyFrIoh+Cxrns3+yDfjM2LO/gc
0wIDAQABo4IBYzCCAV8wCQYDVR0TBAIwADAtBglghkgBhvhCAQ0EIBYeRWFzeS1S
U0EgR2VuZXJhdGVkIENlcnRpZmljYXRlMB0GA1UdDgQWBBQRkSUaYNXGidiexF2X
BjltG3/75zCB4QYDVR0jBIHZMIHWgBQSzWAE0qCAnnDtxpm4eyzGUv0ZoaGBsqSB
rzCBrDELMAkGA1UEBhMCVVMxCzAJBgNVBAgTAk9IMREwDwYDVQQHEwhDb2x1bWJ1
czESMBAGA1UEChMJVmlraW5nVlBOMR0wGwYDVQQLExRNeU9yZ2FuaXphdGlvbmFs
VW5pdDEVMBMGA1UEAxMMVmlraW5nVlBOIENBMRAwDgYDVQQpEwdFYXN5UlNBMSEw
HwYJKoZIhvcNAQkBFhJtZUBteWhvc3QubXlkb21haW6CCQDPNYXugL8qPjATBgNV
HSUEDDAKBggrBgEFBQcDAjALBgNVHQ8EBAMCB4AwDQYJKoZIhvcNAQELBQADggIB
AHcWxwKUMCDLRjqGfrMMiF9XAd/BTonSPjJrSWqEMSx49mxOIlJL6gR+5YzkXBuR
OxutOgKzFaTyoqNhsSnlzQugb2SBmVzSAdodgGM/Q3ScRUkSfueQdwfu4xEsNT+1
aw/K1XalTRqwNsfjco4XKSGQfe85ljrH38NqJ8ovTdLz48/wQ73tjAvE2JxF56/H
q+9rM32jydTJzQzGv5WZLQTnyqQqJXL4AKKhOZQ2Ec4D/mPxSRPINx2UOhdnZiZS
VQaJP1czrfJGCSLPJ41mV3TyYk/7+w1jDeIvXDCuVccBTMHTVNLGjkPs+G+B4PoC
6u0aSaYLIUuIqZWYwBrmJstbzlk/s/bazSfIr3C3OjBQijTSNupiobhOI85fbNuv
xH4OMUS7GZ4ok300X70MOc4yZdoAHerYac64ARMfxjH9yNwy7aHDjH068tv5j5X7
k1Mv90TZqaW1YS2imHLCigSzVYXVxCCNQMDQdHaagtfHsEMKqhnGLfMUSVyVDDps
hO0+m5yqQAXFlfxdGeJyzqjHuGfmpHiipt9ZTb1Zp20YjOdjjDPkJ3yV0tRoSsAM
69JG16ZxY8Ey2SUPaChtEOY4ivFkubZaMG9lH8UCD2raSayjVVQtH21sIYcVcv8y
U9xJ9adP0DKEaoS9LOjMiNKuN6zd5FVDkV3Egk359ir3
-----END CERTIFICATE-----
