Certificate:
    Data:
        Version: 3 (0x2)
        Serial Number: 9113 (0x2399)
    Signature Algorithm: sha256WithRSAEncryption
        Issuer: C=US, ST=OH, L=Columbus, O=VikingVPN, OU=MyOrganizationalUnit, CN=VikingVPN CA/name=EasyRSA/emailAddress=me@myhost.mydomain
        Validity
            Not Before: Sep 28 21:37:30 2016 GMT
            Not After : Sep 26 21:37:30 2026 GMT
        Subject: CN=Client2493Cert72184f
        Subject Public Key Info:
            Public Key Algorithm: rsaEncryption
                Public-Key: (4096 bit)
                Modulus:
                    00:b0:b5:d6:d6:02:05:b2:ba:7b:a8:d0:95:59:2e:
                    42:2a:39:45:d8:c5:c3:c2:e4:5f:5d:88:5a:c9:9e:
                    03:7d:59:ad:1f:8c:6c:ba:7a:d1:83:53:7d:fb:12:
                    e2:43:aa:5f:a4:c0:a6:f5:68:54:09:24:79:85:42:
                    7c:57:66:34:76:e9:62:0c:35:2e:b5:4b:39:fa:41:
                    a8:69:e6:39:13:12:4a:c9:de:87:ba:c1:5e:76:56:
                    a0:2f:e9:c1:01:fc:3f:7c:70:ce:ad:05:23:0b:9b:
                    c6:a0:68:0a:08:b1:1f:cf:65:fe:09:61:bd:fc:a9:
                    ac:e3:40:c8:ba:03:5a:69:df:cd:79:b0:de:62:92:
                    53:75:37:43:44:ee:97:74:b0:0b:10:2d:b1:7e:7c:
                    d9:7c:4d:cf:bb:2b:0e:ce:ab:f2:62:5b:9c:d7:ee:
                    16:8e:3d:fd:8a:8f:85:e8:be:d9:67:6b:4d:d3:4d:
                    24:dc:58:1c:30:c1:74:2e:c7:45:36:3a:c1:68:51:
                    36:ad:a4:4a:16:e3:b0:5a:31:d6:c6:a6:c7:46:b6:
                    b5:71:92:b2:a1:cf:3a:be:3c:e7:c0:58:dc:69:2d:
                    12:3a:11:91:7f:04:b1:47:54:57:ac:88:4f:0c:99:
                    c5:48:17:44:48:0e:e9:5c:4d:e9:db:4c:12:d6:d1:
                    4b:40:1f:f2:1b:f6:5c:03:ba:ec:f0:2d:a1:77:72:
                    4c:03:2d:cf:93:19:af:f1:1e:03:37:c8:1d:3c:3d:
                    c7:ad:02:71:2f:b7:c0:5a:a2:1a:d8:1b:ba:27:a4:
                    94:fb:fb:82:7b:21:d8:39:01:96:ca:cc:e0:65:aa:
                    c9:94:fa:33:4c:02:c6:f0:9d:70:9d:45:2c:fb:d0:
                    e4:99:ad:f8:0b:11:56:c8:dc:7a:de:46:4f:2c:c0:
                    a2:ee:4d:22:a9:74:92:77:ef:73:5a:d7:08:69:27:
                    1c:7c:07:38:98:a3:9c:3a:5a:25:ed:26:68:d5:23:
                    bd:ae:6a:67:d8:2c:58:28:93:1f:83:85:e1:a4:10:
                    80:bb:c2:ca:70:0d:e1:6a:49:d3:5a:39:6d:2b:88:
                    68:e1:e9:ac:e3:8d:ab:4c:02:c2:f5:e8:34:85:78:
                    09:cc:d7:01:1e:2e:eb:a1:90:8a:c7:5a:0d:84:86:
                    3d:32:8f:6e:7a:01:02:c5:36:6f:bb:ce:74:37:b0:
                    6c:84:ae:bd:f9:3e:42:2c:5e:41:eb:10:a3:1b:bc:
                    7c:ff:6b:a9:01:00:bd:c8:03:b2:41:2c:e2:bd:9f:
                    dd:1f:e5:c1:f3:8f:8b:86:ea:04:4a:f5:e9:00:dc:
                    84:fe:c2:43:23:77:e2:f0:93:89:c6:c2:42:25:b2:
                    db:b6:e9
                Exponent: 65537 (0x10001)
        X509v3 extensions:
            X509v3 Basic Constraints: 
                CA:FALSE
            Netscape Comment: 
                Easy-RSA Generated Certificate
            X509v3 Subject Key Identifier: 
                39:65:6D:0E:9C:71:AF:C6:50:CD:A9:C0:0D:76:45:AB:9E:D5:00:13
            X509v3 Authority Key Identifier: 
                keyid:12:CD:60:04:D2:A0:80:9E:70:ED:C6:99:B8:7B:2C:C6:52:FD:19:A1
                DirName:/C=US/ST=OH/L=Columbus/O=VikingVPN/OU=MyOrganizationalUnit/CN=VikingVPN CA/name=EasyRSA/emailAddress=me@myhost.mydomain
                serial:CF:35:85:EE:80:BF:2A:3E

            X509v3 Extended Key Usage: 
                TLS Web Client Authentication
            X509v3 Key Usage: 
                Digital Signature
    Signature Algorithm: sha256WithRSAEncryption
         be:16:50:cf:b7:29:75:dc:1f:de:d9:bb:ae:6a:cc:9a:75:43:
         01:c5:24:60:24:41:58:4a:02:ba:b2:f7:9b:69:fa:3b:f2:44:
         aa:84:c5:38:b9:3c:44:21:c7:59:7f:88:ab:37:c7:4d:e0:c5:
         0d:33:d8:8a:fe:3e:90:ed:b2:5d:40:f8:e8:33:92:bb:18:b3:
         2d:5e:83:6e:b2:4b:14:1a:c6:92:c9:99:2a:2b:8b:6f:6f:5d:
         9c:bd:b9:4d:5b:89:e6:44:bf:17:59:52:22:8c:f1:45:8b:90:
         45:f5:e3:f0:5f:08:aa:ea:23:3a:64:af:43:21:7d:a4:d9:5f:
         ae:6b:50:67:7f:b3:f0:4c:a5:71:ba:11:9a:90:37:1c:23:c3:
         d4:53:ba:ca:ac:68:49:f3:f5:cb:42:ef:5c:65:65:4c:a4:67:
         64:c6:2d:67:fc:be:62:98:c3:cf:c0:2e:c9:9f:94:91:49:88:
         9d:0b:8d:e0:ab:48:94:13:31:97:a6:7d:4a:49:b5:37:ae:33:
         e5:9c:e0:3c:55:5c:c0:6b:a7:40:12:6c:bc:2f:c2:0e:24:09:
         85:d5:f4:7a:63:f3:08:5c:08:07:62:06:a8:6d:6b:31:77:a7:
         ae:78:8e:70:05:3f:c4:30:7f:c8:4d:64:c5:1e:97:ff:4e:67:
         9c:c5:64:e5:14:3d:b0:f7:f8:4d:86:34:05:a3:a3:19:0d:f2:
         f1:ea:91:fa:76:80:46:5e:45:92:d8:49:d4:d2:99:ff:0d:58:
         ca:76:10:d8:95:67:0a:eb:43:b8:fd:28:e3:e9:fd:01:d6:07:
         58:50:7a:7e:50:53:ec:75:29:10:ad:9a:e9:c6:fe:dd:9f:fc:
         9b:e1:ab:fb:2b:58:14:52:67:b1:34:e7:1b:50:75:bb:c8:98:
         b9:db:29:80:e8:8c:c9:6d:1e:74:dc:22:13:ce:a3:0b:b9:06:
         ab:da:f1:64:b1:1e:8b:cd:43:4f:91:93:48:13:bd:51:e3:99:
         e8:59:53:c0:20:d9:9d:eb:3e:cf:05:15:fd:1a:75:ea:96:15:
         33:a8:d3:63:f3:3c:8b:a9:07:db:a2:3b:12:9c:7e:74:a1:4b:
         5c:8f:9c:04:c2:06:0a:a7:c1:c3:b3:e9:9d:9e:9c:e6:20:38:
         6f:59:c1:51:f1:a4:25:11:f0:81:b7:c1:12:73:52:b8:e1:1c:
         87:5e:bd:d6:24:ee:3a:e4:fc:98:71:4f:7a:d9:6b:02:3c:5b:
         ff:95:52:b3:8e:a3:e9:5c:80:ce:55:11:e7:c6:6c:f8:23:d4:
         51:d8:47:96:32:37:00:3b:f4:68:dc:6c:82:28:15:ab:ac:3b:
         b0:7c:c6:59:ac:41:8b:eb
-----BEGIN CERTIFICATE-----
MIIGrTCCBJWgAwIBAgICI5kwDQYJKoZIhvcNAQELBQAwgawxCzAJBgNVBAYTAlVT
MQswCQYDVQQIEwJPSDERMA8GA1UEBxMIQ29sdW1idXMxEjAQBgNVBAoTCVZpa2lu
Z1ZQTjEdMBsGA1UECxMUTXlPcmdhbml6YXRpb25hbFVuaXQxFTATBgNVBAMTDFZp
a2luZ1ZQTiBDQTEQMA4GA1UEKRMHRWFzeVJTQTEhMB8GCSqGSIb3DQEJARYSbWVA
bXlob3N0Lm15ZG9tYWluMB4XDTE2MDkyODIxMzczMFoXDTI2MDkyNjIxMzczMFow
HzEdMBsGA1UEAxMUQ2xpZW50MjQ5M0NlcnQ3MjE4NGYwggIiMA0GCSqGSIb3DQEB
AQUAA4ICDwAwggIKAoICAQCwtdbWAgWyunuo0JVZLkIqOUXYxcPC5F9diFrJngN9
Wa0fjGy6etGDU337EuJDql+kwKb1aFQJJHmFQnxXZjR26WIMNS61Szn6Qahp5jkT
EkrJ3oe6wV52VqAv6cEB/D98cM6tBSMLm8agaAoIsR/PZf4JYb38qazjQMi6A1pp
3815sN5iklN1N0NE7pd0sAsQLbF+fNl8Tc+7Kw7Oq/JiW5zX7haOPf2Kj4Xovtln
a03TTSTcWBwwwXQux0U2OsFoUTatpEoW47BaMdbGpsdGtrVxkrKhzzq+POfAWNxp
LRI6EZF/BLFHVFesiE8MmcVIF0RIDulcTenbTBLW0UtAH/Ib9lwDuuzwLaF3ckwD
Lc+TGa/xHgM3yB08PcetAnEvt8BaohrYG7onpJT7+4J7Idg5AZbKzOBlqsmU+jNM
AsbwnXCdRSz70OSZrfgLEVbI3HreRk8swKLuTSKpdJJ373Na1whpJxx8BziYo5w6
WiXtJmjVI72uamfYLFgokx+DheGkEIC7wspwDeFqSdNaOW0riGjh6azjjatMAsL1
6DSFeAnM1wEeLuuhkIrHWg2Ehj0yj256AQLFNm+7znQ3sGyErr35PkIsXkHrEKMb
vHz/a6kBAL3IA7JBLOK9n90f5cHzj4uG6gRK9ekA3IT+wkMjd+Lwk4nGwkIlstu2
6QIDAQABo4IBYzCCAV8wCQYDVR0TBAIwADAtBglghkgBhvhCAQ0EIBYeRWFzeS1S
U0EgR2VuZXJhdGVkIENlcnRpZmljYXRlMB0GA1UdDgQWBBQ5ZW0OnHGvxlDNqcAN
dkWrntUAEzCB4QYDVR0jBIHZMIHWgBQSzWAE0qCAnnDtxpm4eyzGUv0ZoaGBsqSB
rzCBrDELMAkGA1UEBhMCVVMxCzAJBgNVBAgTAk9IMREwDwYDVQQHEwhDb2x1bWJ1
czESMBAGA1UEChMJVmlraW5nVlBOMR0wGwYDVQQLExRNeU9yZ2FuaXphdGlvbmFs
VW5pdDEVMBMGA1UEAxMMVmlraW5nVlBOIENBMRAwDgYDVQQpEwdFYXN5UlNBMSEw
HwYJKoZIhvcNAQkBFhJtZUBteWhvc3QubXlkb21haW6CCQDPNYXugL8qPjATBgNV
HSUEDDAKBggrBgEFBQcDAjALBgNVHQ8EBAMCB4AwDQYJKoZIhvcNAQELBQADggIB
AL4WUM+3KXXcH97Zu65qzJp1QwHFJGAkQVhKArqy95tp+jvyRKqExTi5PEQhx1l/
iKs3x03gxQ0z2Ir+PpDtsl1A+OgzkrsYsy1eg26ySxQaxpLJmSori29vXZy9uU1b
ieZEvxdZUiKM8UWLkEX14/BfCKrqIzpkr0MhfaTZX65rUGd/s/BMpXG6EZqQNxwj
w9RTusqsaEnz9ctC71xlZUykZ2TGLWf8vmKYw8/ALsmflJFJiJ0LjeCrSJQTMZem
fUpJtTeuM+Wc4DxVXMBrp0ASbLwvwg4kCYXV9Hpj8whcCAdiBqhtazF3p654jnAF
P8Qwf8hNZMUel/9OZ5zFZOUUPbD3+E2GNAWjoxkN8vHqkfp2gEZeRZLYSdTSmf8N
WMp2ENiVZwrrQ7j9KOPp/QHWB1hQen5QU+x1KRCtmunG/t2f/Jvhq/srWBRSZ7E0
5xtQdbvImLnbKYDojMltHnTcIhPOowu5Bqva8WSxHovNQ0+Rk0gTvVHjmehZU8Ag
2Z3rPs8FFf0adeqWFTOo02PzPIupB9uiOxKcfnShS1yPnATCBgqnwcOz6Z2enOYg
OG9ZwVHxpCUR8IG3wRJzUrjhHIdevdYk7jrk/JhxT3rZawI8W/+VUrOOo+lcgM5V
EefGbPgj1FHYR5YyNwA79GjcbIIoFausO7B8xlmsQYvr
-----END CERTIFICATE-----
