Certificate:
    Data:
        Version: 3 (0x2)
        Serial Number: 9132 (0x23ac)
    Signature Algorithm: sha256WithRSAEncryption
        Issuer: C=US, ST=OH, L=Columbus, O=VikingVPN, OU=MyOrganizationalUnit, CN=VikingVPN CA/name=EasyRSA/emailAddress=me@myhost.mydomain
        Validity
            Not Before: Oct  1 18:11:48 2016 GMT
            Not After : Sep 29 18:11:48 2026 GMT
        Subject: CN=Client2385Certa35db6
        Subject Public Key Info:
            Public Key Algorithm: rsaEncryption
                Public-Key: (4096 bit)
                Modulus:
                    00:a4:9a:ee:d0:50:e2:20:b0:33:46:16:3a:85:b5:
                    ff:53:ce:ce:e8:07:06:b4:0b:22:1d:b5:52:57:3b:
                    36:ce:d9:f5:90:c5:f9:53:67:3b:64:f5:de:90:e3:
                    36:94:ed:a4:22:51:7b:1b:06:8e:0d:2d:0c:5c:0e:
                    81:0b:2b:92:b6:4d:ab:84:5b:91:68:b4:00:47:15:
                    a5:9b:0c:3e:4f:ff:78:70:4d:9b:25:78:5f:97:26:
                    4f:3d:ef:9a:c5:df:9d:a7:54:10:be:71:91:24:74:
                    0b:34:57:c3:51:4c:0d:e3:0a:33:fe:3f:31:51:25:
                    56:70:f3:48:89:c8:0a:59:cf:e1:23:a7:a8:d0:5a:
                    da:a9:83:cf:d4:d9:70:9c:ef:1e:0c:d4:aa:e5:6e:
                    ad:b3:8f:68:83:24:c8:26:b5:af:29:69:5a:9a:ae:
                    26:33:1f:6d:f9:8f:5b:a1:c9:82:fa:8a:74:19:3b:
                    78:97:6e:e0:5f:a7:93:81:81:1d:8c:bf:41:49:a2:
                    04:49:17:22:8e:19:3a:48:fa:b4:64:bb:0b:c9:e7:
                    ba:4b:34:44:84:2a:9a:0f:4a:bd:c8:29:ae:6f:3f:
                    45:49:bd:33:6a:f4:35:7e:2c:2e:7e:aa:d0:a4:cb:
                    f1:cf:bf:11:f6:d1:f9:02:35:3e:06:9c:26:38:9c:
                    4f:2c:f3:62:52:a8:9b:ca:b7:86:3c:5f:ca:70:c3:
                    67:81:10:53:d4:96:9b:4e:f5:82:36:51:49:c3:6c:
                    5d:93:af:31:c1:4f:33:8d:62:d2:00:9c:28:a8:61:
                    9e:b6:47:ca:88:17:8d:29:df:ed:33:76:5b:b6:00:
                    86:2d:36:20:3e:33:8e:de:e1:26:82:5f:93:92:35:
                    4d:f1:89:31:e8:c2:2a:d2:04:6c:de:ee:e5:f0:31:
                    75:6f:da:c2:6d:d6:dd:f3:e2:92:fd:e3:19:ce:70:
                    a2:48:ca:4c:bf:7c:2f:28:90:86:05:5b:db:c5:b5:
                    78:18:41:b4:b2:78:96:f8:98:fa:7c:20:6c:28:c7:
                    74:27:8d:c1:c9:4d:70:2e:bc:e5:1b:14:4c:79:5c:
                    50:f2:9a:b4:aa:46:1b:5b:ef:d1:06:04:9e:bf:cd:
                    c1:70:4b:91:cf:98:a2:4c:fd:da:47:4e:dc:f4:a7:
                    55:38:06:03:ee:0b:c6:9e:75:ec:1f:9a:29:06:58:
                    5b:8c:a7:7c:ea:dd:1b:0e:e5:be:97:01:14:3d:52:
                    c4:6c:76:34:4e:b7:64:35:42:f5:85:58:3b:91:b1:
                    b1:8a:e2:e1:4c:52:57:1d:e9:6c:e6:09:05:09:0c:
                    97:de:09:65:7f:72:3e:33:2c:a4:ff:96:6e:89:19:
                    6e:90:89
                Exponent: 65537 (0x10001)
        X509v3 extensions:
            X509v3 Basic Constraints: 
                CA:FALSE
            Netscape Comment: 
                Easy-RSA Generated Certificate
            X509v3 Subject Key Identifier: 
                0F:20:EA:15:21:D8:E1:81:F7:2B:00:D9:F4:E3:12:D3:D0:1D:41:C7
            X509v3 Authority Key Identifier: 
                keyid:12:CD:60:04:D2:A0:80:9E:70:ED:C6:99:B8:7B:2C:C6:52:FD:19:A1
                DirName:/C=US/ST=OH/L=Columbus/O=VikingVPN/OU=MyOrganizationalUnit/CN=VikingVPN CA/name=EasyRSA/emailAddress=me@myhost.mydomain
                serial:CF:35:85:EE:80:BF:2A:3E

            X509v3 Extended Key Usage: 
                TLS Web Client Authentication
            X509v3 Key Usage: 
                Digital Signature
    Signature Algorithm: sha256WithRSAEncryption
         ca:32:45:bb:19:61:66:b5:f1:9d:c7:b7:1b:f5:13:a7:ec:60:
         1c:e4:21:29:c3:0f:36:91:85:f9:69:4d:cd:1e:58:f5:b7:03:
         ad:91:37:04:02:bc:50:3b:5a:60:dc:89:2f:48:5c:7a:56:28:
         07:3d:1e:27:ee:27:27:67:f4:e0:6a:83:b0:49:17:d2:9c:2c:
         7e:ba:50:45:d5:68:35:5b:84:0b:22:13:c3:11:6d:0f:c3:dd:
         a0:fc:22:bc:27:fb:b5:d1:88:47:f5:19:28:10:fe:27:a2:00:
         06:a5:6f:8e:c9:83:d1:5d:0c:52:f9:e4:b1:8f:db:f9:64:ae:
         75:35:f2:f2:7b:8a:a7:1c:93:a2:06:85:42:45:8a:d6:0d:b3:
         f9:a1:04:78:7b:ea:b5:7c:2c:1d:8f:d3:ed:30:e3:6e:05:e6:
         7b:87:25:6d:a4:48:10:4f:c3:58:19:bc:44:c4:92:bd:dd:39:
         39:83:3d:cb:d2:fd:6e:30:9d:55:ff:72:e0:db:d6:5d:1c:4e:
         e8:29:4d:33:70:8e:e9:e6:1e:8a:3e:3b:b6:17:b6:90:af:ba:
         31:69:51:62:ed:32:62:cf:72:e4:e6:55:31:c4:77:61:12:4b:
         40:95:f6:64:e2:2c:eb:cc:dd:bc:4b:e3:03:15:94:d6:6d:93:
         3c:ad:d7:1a:b5:e0:7d:2f:f5:67:ca:44:f3:53:55:51:d5:77:
         e6:ce:5c:c5:f2:7e:73:a8:8a:24:a3:46:74:ce:7a:10:e0:98:
         ed:d0:01:61:7b:0d:da:8d:e5:2a:ab:a7:17:aa:30:43:b6:77:
         43:89:52:49:fd:32:ce:1e:da:3e:6d:21:95:c8:5c:f8:74:d8:
         9a:7a:df:da:17:12:79:9e:e4:9e:42:ff:ce:65:cc:b7:78:ae:
         bf:5e:be:c7:c1:b9:1d:a6:54:19:d4:b7:e7:97:cd:4b:dd:78:
         88:47:06:b0:ee:c8:1c:85:2d:95:5d:ea:e6:6a:47:55:ef:90:
         cc:9e:6b:68:97:0a:54:5c:f9:b5:e6:a3:d1:45:f5:de:09:f5:
         a3:bd:77:a2:db:f6:82:1b:3a:69:a1:c9:41:75:99:ed:7f:fc:
         d5:08:45:c0:d9:78:1f:5e:e8:a2:b1:b2:03:99:c3:a8:c9:ec:
         54:7c:f2:2f:c4:54:a9:14:c2:22:4e:09:ae:e2:41:1a:18:8a:
         1e:ea:a6:cb:22:8b:75:ec:aa:c4:a1:07:f9:c6:88:d8:6c:b5:
         92:26:39:14:c0:a9:0a:68:3b:dc:0a:0b:4a:d3:ac:10:ea:62:
         32:34:a7:08:99:6c:b8:63:00:23:b1:24:95:1b:eb:db:e0:aa:
         0e:8a:27:e9:c6:d8:9e:70
-----BEGIN CERTIFICATE-----
MIIGrTCCBJWgAwIBAgICI6wwDQYJKoZIhvcNAQELBQAwgawxCzAJBgNVBAYTAlVT
MQswCQYDVQQIEwJPSDERMA8GA1UEBxMIQ29sdW1idXMxEjAQBgNVBAoTCVZpa2lu
Z1ZQTjEdMBsGA1UECxMUTXlPcmdhbml6YXRpb25hbFVuaXQxFTATBgNVBAMTDFZp
a2luZ1ZQTiBDQTEQMA4GA1UEKRMHRWFzeVJTQTEhMB8GCSqGSIb3DQEJARYSbWVA
bXlob3N0Lm15ZG9tYWluMB4XDTE2MTAwMTE4MTE0OFoXDTI2MDkyOTE4MTE0OFow
HzEdMBsGA1UEAxMUQ2xpZW50MjM4NUNlcnRhMzVkYjYwggIiMA0GCSqGSIb3DQEB
AQUAA4ICDwAwggIKAoICAQCkmu7QUOIgsDNGFjqFtf9Tzs7oBwa0CyIdtVJXOzbO
2fWQxflTZztk9d6Q4zaU7aQiUXsbBo4NLQxcDoELK5K2TauEW5FotABHFaWbDD5P
/3hwTZsleF+XJk8975rF352nVBC+cZEkdAs0V8NRTA3jCjP+PzFRJVZw80iJyApZ
z+Ejp6jQWtqpg8/U2XCc7x4M1Krlbq2zj2iDJMgmta8paVqariYzH235j1uhyYL6
inQZO3iXbuBfp5OBgR2Mv0FJogRJFyKOGTpI+rRkuwvJ57pLNESEKpoPSr3IKa5v
P0VJvTNq9DV+LC5+qtCky/HPvxH20fkCNT4GnCY4nE8s82JSqJvKt4Y8X8pww2eB
EFPUlptO9YI2UUnDbF2TrzHBTzONYtIAnCioYZ62R8qIF40p3+0zdlu2AIYtNiA+
M47e4SaCX5OSNU3xiTHowirSBGze7uXwMXVv2sJt1t3z4pL94xnOcKJIyky/fC8o
kIYFW9vFtXgYQbSyeJb4mPp8IGwox3QnjcHJTXAuvOUbFEx5XFDymrSqRhtb79EG
BJ6/zcFwS5HPmKJM/dpHTtz0p1U4BgPuC8aedewfmikGWFuMp3zq3RsO5b6XARQ9
UsRsdjROt2Q1QvWFWDuRsbGK4uFMUlcd6WzmCQUJDJfeCWV/cj4zLKT/lm6JGW6Q
iQIDAQABo4IBYzCCAV8wCQYDVR0TBAIwADAtBglghkgBhvhCAQ0EIBYeRWFzeS1S
U0EgR2VuZXJhdGVkIENlcnRpZmljYXRlMB0GA1UdDgQWBBQPIOoVIdjhgfcrANn0
4xLT0B1BxzCB4QYDVR0jBIHZMIHWgBQSzWAE0qCAnnDtxpm4eyzGUv0ZoaGBsqSB
rzCBrDELMAkGA1UEBhMCVVMxCzAJBgNVBAgTAk9IMREwDwYDVQQHEwhDb2x1bWJ1
czESMBAGA1UEChMJVmlraW5nVlBOMR0wGwYDVQQLExRNeU9yZ2FuaXphdGlvbmFs
VW5pdDEVMBMGA1UEAxMMVmlraW5nVlBOIENBMRAwDgYDVQQpEwdFYXN5UlNBMSEw
HwYJKoZIhvcNAQkBFhJtZUBteWhvc3QubXlkb21haW6CCQDPNYXugL8qPjATBgNV
HSUEDDAKBggrBgEFBQcDAjALBgNVHQ8EBAMCB4AwDQYJKoZIhvcNAQELBQADggIB
AMoyRbsZYWa18Z3Htxv1E6fsYBzkISnDDzaRhflpTc0eWPW3A62RNwQCvFA7WmDc
iS9IXHpWKAc9HifuJydn9OBqg7BJF9KcLH66UEXVaDVbhAsiE8MRbQ/D3aD8Irwn
+7XRiEf1GSgQ/ieiAAalb47Jg9FdDFL55LGP2/lkrnU18vJ7iqcck6IGhUJFitYN
s/mhBHh76rV8LB2P0+0w424F5nuHJW2kSBBPw1gZvETEkr3dOTmDPcvS/W4wnVX/
cuDb1l0cTugpTTNwjunmHoo+O7YXtpCvujFpUWLtMmLPcuTmVTHEd2ESS0CV9mTi
LOvM3bxL4wMVlNZtkzyt1xq14H0v9WfKRPNTVVHVd+bOXMXyfnOoiiSjRnTOehDg
mO3QAWF7DdqN5SqrpxeqMEO2d0OJUkn9Ms4e2j5tIZXIXPh02Jp639oXEnme5J5C
/85lzLd4rr9evsfBuR2mVBnUt+eXzUvdeIhHBrDuyByFLZVd6uZqR1XvkMyea2iX
ClRc+bXmo9FF9d4J9aO9d6Lb9oIbOmmhyUF1me1//NUIRcDZeB9e6KKxsgOZw6jJ
7FR88i/EVKkUwiJOCa7iQRoYih7qpssii3XsqsShB/nGiNhstZImORTAqQpoO9wK
C0rTrBDqYjI0pwiZbLhjACOxJJUb69vgqg6KJ+nG2J5w
-----END CERTIFICATE-----
