Certificate:
    Data:
        Version: 3 (0x2)
        Serial Number: 9134 (0x23ae)
    Signature Algorithm: sha256WithRSAEncryption
        Issuer: C=US, ST=OH, L=Columbus, O=VikingVPN, OU=MyOrganizationalUnit, CN=VikingVPN CA/name=EasyRSA/emailAddress=me@myhost.mydomain
        Validity
            Not Before: Oct  1 18:51:39 2016 GMT
            Not After : Sep 29 18:51:39 2026 GMT
        Subject: CN=Client1457Cert2d2250
        Subject Public Key Info:
            Public Key Algorithm: rsaEncryption
                Public-Key: (4096 bit)
                Modulus:
                    00:b8:69:00:53:64:6e:64:d0:cf:68:9b:d7:b0:08:
                    9d:89:e4:a4:23:47:d5:1a:13:fb:85:9e:e7:7c:51:
                    de:e8:b7:90:96:a9:b4:bc:b0:d7:15:44:ef:e3:f8:
                    04:73:8a:f2:bb:e6:06:7f:9e:59:2b:60:44:5e:22:
                    61:a0:4a:17:50:c3:7a:82:d3:da:7b:a0:f8:da:80:
                    4a:0f:1c:7f:d1:07:3d:5d:da:7c:ca:1f:fa:11:c3:
                    84:b8:62:2a:94:07:b6:38:61:3d:5b:a9:43:0a:0a:
                    de:2f:d6:ce:17:d4:55:68:76:ca:74:2e:3a:ad:2f:
                    44:ca:ff:e7:eb:a4:8f:dc:fb:fd:1c:fa:98:18:49:
                    0e:6f:4d:28:54:2c:99:4f:4a:97:f2:f3:0c:e6:17:
                    0f:db:38:58:18:df:57:93:9b:04:18:fb:7a:72:5f:
                    c5:88:e5:4c:0e:26:7b:65:1d:4a:d3:3a:a3:dc:a2:
                    d1:69:18:fc:12:e6:55:8d:5a:c6:37:a5:ea:27:77:
                    d9:c0:74:c1:97:65:22:0f:84:2b:4e:54:59:9f:b5:
                    81:0e:eb:5b:a5:f8:62:9a:fe:56:ca:67:b5:b7:36:
                    b0:fe:10:1c:0d:98:79:05:7d:d9:1b:0e:a6:7c:ab:
                    b1:9a:eb:44:6d:71:4f:11:6b:7b:c0:ca:ff:ce:1b:
                    93:e9:fc:22:d1:b2:ae:04:da:35:c2:cc:e6:3e:ac:
                    30:cd:15:09:ca:4c:91:da:a8:54:06:8d:96:94:c4:
                    85:b9:79:ab:98:f2:dd:7c:2b:97:cf:bd:cb:ca:e2:
                    48:3f:f8:8f:cb:7c:6c:61:35:0d:cd:32:5f:e7:11:
                    5b:fb:e3:85:c5:22:c4:eb:66:91:02:3b:2d:05:0b:
                    fc:5d:6b:94:80:1d:f0:ad:27:64:91:f8:ab:70:f4:
                    df:af:28:24:1a:54:ce:b1:3c:28:07:59:c1:b9:46:
                    a9:7d:db:f9:d8:f9:5b:5f:a7:10:ea:86:3c:ff:41:
                    ca:8a:99:57:0c:dd:35:49:f8:6b:7e:72:97:fb:40:
                    b9:01:aa:16:92:37:f4:25:da:19:1b:11:66:ca:c7:
                    01:e4:bd:14:16:83:96:d2:cb:72:18:a4:82:43:02:
                    9d:37:0b:b7:e4:46:ac:8d:bb:9c:2a:66:93:9a:81:
                    4d:48:ff:5d:b4:d8:67:cb:64:28:9b:d5:ac:b6:2c:
                    07:90:df:f4:54:6d:69:d9:72:bb:0d:76:a2:18:df:
                    9b:4d:de:f0:9a:fe:d0:8b:fc:f1:33:cf:c8:75:19:
                    07:7e:55:8e:9e:40:29:0e:8c:ac:04:56:db:96:73:
                    87:7a:b8:ac:d8:48:f8:61:81:bb:52:f7:d4:09:5c:
                    18:23:bf
                Exponent: 65537 (0x10001)
        X509v3 extensions:
            X509v3 Basic Constraints: 
                CA:FALSE
            Netscape Comment: 
                Easy-RSA Generated Certificate
            X509v3 Subject Key Identifier: 
                E7:B8:F3:A1:64:D0:60:B8:18:A0:0F:BF:FC:52:8A:07:9F:7A:96:F6
            X509v3 Authority Key Identifier: 
                keyid:12:CD:60:04:D2:A0:80:9E:70:ED:C6:99:B8:7B:2C:C6:52:FD:19:A1
                DirName:/C=US/ST=OH/L=Columbus/O=VikingVPN/OU=MyOrganizationalUnit/CN=VikingVPN CA/name=EasyRSA/emailAddress=me@myhost.mydomain
                serial:CF:35:85:EE:80:BF:2A:3E

            X509v3 Extended Key Usage: 
                TLS Web Client Authentication
            X509v3 Key Usage: 
                Digital Signature
    Signature Algorithm: sha256WithRSAEncryption
         6d:0f:0e:d5:c2:84:3a:9a:2f:85:29:38:9d:c4:06:fd:1b:05:
         94:26:8c:be:e6:f5:61:aa:63:e6:87:e2:68:cf:04:44:5c:66:
         68:b7:94:d7:c3:bc:0e:21:8d:70:82:3f:dd:e9:3d:48:19:3a:
         80:9e:26:04:00:40:bf:87:cc:60:42:4f:94:0a:8e:9a:b5:6e:
         a8:ce:ea:39:d9:e0:11:25:42:48:3d:2f:3d:de:2b:31:c1:ed:
         1a:2c:b6:93:c4:e6:fe:25:1f:14:45:e3:64:73:f8:4a:90:e6:
         a0:75:6d:ab:64:b5:6b:e8:62:51:6d:de:cc:c3:57:1a:98:ab:
         5d:ee:64:d9:1c:c9:f4:82:d3:27:37:88:bd:31:70:21:ec:49:
         a1:76:06:25:70:e7:6b:90:f4:d5:65:72:fb:b3:8a:c2:d1:64:
         b8:72:a6:c6:b9:bb:64:00:ae:a9:b5:9c:27:1c:13:0e:4c:e9:
         1c:be:29:cd:b0:c3:c8:3c:03:8c:fa:94:2a:1e:1f:53:9e:bf:
         fd:58:46:bf:d8:f8:0c:ed:ed:1a:9c:4b:da:05:63:05:7e:8c:
         0b:f0:70:27:1d:9c:78:62:d5:43:19:20:b3:39:74:ee:c7:16:
         83:d3:ff:16:d3:6b:06:22:83:8d:d8:1c:ab:b1:5d:a6:8c:5e:
         4a:de:99:ef:06:8a:fa:b7:1b:c0:5f:0d:d1:48:8c:be:31:fd:
         e8:2b:af:4d:53:f6:b7:b3:01:a7:e8:3e:49:e0:26:85:86:1d:
         8d:b7:ff:87:2c:6b:f8:d5:0f:aa:7f:7b:a4:8f:98:c3:47:42:
         43:ce:dd:12:84:8e:96:bc:a2:d7:69:7b:52:06:ec:88:de:41:
         5a:e2:4e:40:b1:83:ce:22:62:55:84:17:97:f0:8d:90:77:ab:
         0a:3b:96:e1:d0:22:7b:2e:72:35:b8:df:15:a7:94:e7:5c:b1:
         14:60:a7:74:12:89:df:bc:b6:7a:61:cb:40:bc:e2:b8:37:5a:
         0f:7f:d7:e7:b2:6f:40:f1:4b:e5:ac:3d:f8:5f:f2:8d:db:74:
         ec:53:0a:64:0d:a0:24:eb:10:89:74:57:2a:9d:81:8b:f0:82:
         69:6d:2e:9d:25:4c:56:e0:ff:8f:ca:5a:74:09:3a:87:1a:09:
         ca:fc:19:7e:6b:9a:d8:ca:6c:3c:c7:55:5d:e5:be:d1:d5:eb:
         49:a6:cd:13:53:6e:8b:b5:9c:70:1a:6b:03:86:32:8e:e6:74:
         6f:b9:61:f5:eb:9c:60:9e:44:2f:39:57:de:9a:af:4e:3e:7a:
         84:d2:b9:86:5a:a7:ad:3c:f5:61:29:cf:21:e4:4e:e4:e8:0a:
         1a:cc:37:3a:f0:68:8d:9f
-----BEGIN CERTIFICATE-----
MIIGrTCCBJWgAwIBAgICI64wDQYJKoZIhvcNAQELBQAwgawxCzAJBgNVBAYTAlVT
MQswCQYDVQQIEwJPSDERMA8GA1UEBxMIQ29sdW1idXMxEjAQBgNVBAoTCVZpa2lu
Z1ZQTjEdMBsGA1UECxMUTXlPcmdhbml6YXRpb25hbFVuaXQxFTATBgNVBAMTDFZp
a2luZ1ZQTiBDQTEQMA4GA1UEKRMHRWFzeVJTQTEhMB8GCSqGSIb3DQEJARYSbWVA
bXlob3N0Lm15ZG9tYWluMB4XDTE2MTAwMTE4NTEzOVoXDTI2MDkyOTE4NTEzOVow
HzEdMBsGA1UEAxMUQ2xpZW50MTQ1N0NlcnQyZDIyNTAwggIiMA0GCSqGSIb3DQEB
AQUAA4ICDwAwggIKAoICAQC4aQBTZG5k0M9om9ewCJ2J5KQjR9UaE/uFnud8Ud7o
t5CWqbS8sNcVRO/j+ARzivK75gZ/nlkrYEReImGgShdQw3qC09p7oPjagEoPHH/R
Bz1d2nzKH/oRw4S4YiqUB7Y4YT1bqUMKCt4v1s4X1FVodsp0LjqtL0TK/+frpI/c
+/0c+pgYSQ5vTShULJlPSpfy8wzmFw/bOFgY31eTmwQY+3pyX8WI5UwOJntlHUrT
OqPcotFpGPwS5lWNWsY3peond9nAdMGXZSIPhCtOVFmftYEO61ul+GKa/lbKZ7W3
NrD+EBwNmHkFfdkbDqZ8q7Ga60RtcU8Ra3vAyv/OG5Pp/CLRsq4E2jXCzOY+rDDN
FQnKTJHaqFQGjZaUxIW5eauY8t18K5fPvcvK4kg/+I/LfGxhNQ3NMl/nEVv744XF
IsTrZpECOy0FC/xda5SAHfCtJ2SR+Ktw9N+vKCQaVM6xPCgHWcG5Rql92/nY+Vtf
pxDqhjz/QcqKmVcM3TVJ+Gt+cpf7QLkBqhaSN/Ql2hkbEWbKxwHkvRQWg5bSy3IY
pIJDAp03C7fkRqyNu5wqZpOagU1I/1202GfLZCib1ay2LAeQ3/RUbWnZcrsNdqIY
35tN3vCa/tCL/PEzz8h1GQd+VY6eQCkOjKwEVtuWc4d6uKzYSPhhgbtS99QJXBgj
vwIDAQABo4IBYzCCAV8wCQYDVR0TBAIwADAtBglghkgBhvhCAQ0EIBYeRWFzeS1S
U0EgR2VuZXJhdGVkIENlcnRpZmljYXRlMB0GA1UdDgQWBBTnuPOhZNBguBigD7/8
UooHn3qW9jCB4QYDVR0jBIHZMIHWgBQSzWAE0qCAnnDtxpm4eyzGUv0ZoaGBsqSB
rzCBrDELMAkGA1UEBhMCVVMxCzAJBgNVBAgTAk9IMREwDwYDVQQHEwhDb2x1bWJ1
czESMBAGA1UEChMJVmlraW5nVlBOMR0wGwYDVQQLExRNeU9yZ2FuaXphdGlvbmFs
VW5pdDEVMBMGA1UEAxMMVmlraW5nVlBOIENBMRAwDgYDVQQpEwdFYXN5UlNBMSEw
HwYJKoZIhvcNAQkBFhJtZUBteWhvc3QubXlkb21haW6CCQDPNYXugL8qPjATBgNV
HSUEDDAKBggrBgEFBQcDAjALBgNVHQ8EBAMCB4AwDQYJKoZIhvcNAQELBQADggIB
AG0PDtXChDqaL4UpOJ3EBv0bBZQmjL7m9WGqY+aH4mjPBERcZmi3lNfDvA4hjXCC
P93pPUgZOoCeJgQAQL+HzGBCT5QKjpq1bqjO6jnZ4BElQkg9Lz3eKzHB7RostpPE
5v4lHxRF42Rz+EqQ5qB1batktWvoYlFt3szDVxqYq13uZNkcyfSC0yc3iL0xcCHs
SaF2BiVw52uQ9NVlcvuzisLRZLhypsa5u2QArqm1nCccEw5M6Ry+Kc2ww8g8A4z6
lCoeH1Oev/1YRr/Y+Azt7RqcS9oFYwV+jAvwcCcdnHhi1UMZILM5dO7HFoPT/xbT
awYig43YHKuxXaaMXkreme8Givq3G8BfDdFIjL4x/egrr01T9rezAafoPkngJoWG
HY23/4csa/jVD6p/e6SPmMNHQkPO3RKEjpa8otdpe1IG7IjeQVriTkCxg84iYlWE
F5fwjZB3qwo7luHQInsucjW43xWnlOdcsRRgp3QSid+8tnphy0C84rg3Wg9/1+ey
b0DxS+WsPfhf8o3bdOxTCmQNoCTrEIl0VyqdgYvwgmltLp0lTFbg/4/KWnQJOoca
Ccr8GX5rmtjKbDzHVV3lvtHV60mmzRNTbou1nHAaawOGMo7mdG+5YfXrnGCeRC85
V96ar04+eoTSuYZap6089WEpzyHkTuToChrMNzrwaI2f
-----END CERTIFICATE-----
