Certificate:
    Data:
        Version: 3 (0x2)
        Serial Number: 9143 (0x23b7)
    Signature Algorithm: sha256WithRSAEncryption
        Issuer: C=US, ST=OH, L=Columbus, O=VikingVPN, OU=MyOrganizationalUnit, CN=VikingVPN CA/name=EasyRSA/emailAddress=me@myhost.mydomain
        Validity
            Not Before: Oct  3 10:52:42 2016 GMT
            Not After : Oct  1 10:52:42 2026 GMT
        Subject: CN=Client2521Certc85579
        Subject Public Key Info:
            Public Key Algorithm: rsaEncryption
                Public-Key: (4096 bit)
                Modulus:
                    00:e9:e8:58:b0:f0:34:20:69:3f:3f:11:b6:06:45:
                    a6:5a:3c:34:81:22:85:ce:c3:59:32:94:4b:59:7c:
                    0a:61:84:58:0b:ec:06:09:6c:78:f4:77:b7:df:15:
                    6c:af:65:71:8c:12:4c:a2:ab:1e:79:11:de:a5:21:
                    22:b7:dd:a8:6b:05:ab:78:d0:50:7c:65:af:a4:86:
                    b4:c3:02:e4:7c:57:99:63:e6:79:08:7d:e4:d3:c8:
                    1f:40:3c:80:91:46:ac:47:e9:16:29:7e:6b:57:d4:
                    4c:6e:50:9a:4e:d6:55:f6:08:58:20:75:b1:7b:12:
                    31:1a:fb:db:cd:ee:d5:6e:2c:2c:e4:26:11:ae:18:
                    63:4e:c4:dd:9e:64:a5:db:b0:65:71:90:d3:94:ae:
                    80:18:24:7c:b4:75:ae:37:10:4b:b7:e2:8a:45:31:
                    ab:e3:34:03:89:53:bb:2d:d7:7e:8f:d6:65:ce:d6:
                    c4:1e:6a:aa:c0:fc:13:7a:54:b5:e4:f8:1a:53:4a:
                    82:69:ed:e7:d2:4e:7b:59:95:64:7f:2e:26:4b:b8:
                    fb:ba:79:e4:d8:e5:03:68:ad:bf:1d:91:65:68:c9:
                    0a:0c:56:cb:cf:6f:6c:f9:16:ad:cf:7b:f9:4e:07:
                    f8:84:27:90:af:47:1c:fe:fb:10:4c:af:c0:4d:7e:
                    e0:40:42:d6:92:5e:c6:e5:14:73:6f:29:3c:13:46:
                    5c:0e:49:7b:cc:b2:78:c5:e8:ca:49:81:53:c9:5c:
                    1a:b4:cf:00:9d:35:b1:50:42:b6:62:23:d8:77:02:
                    01:e2:16:8e:f5:00:6d:9d:82:ff:aa:0f:ce:72:97:
                    0f:29:1f:55:fa:35:83:9e:cd:26:4c:15:30:af:e0:
                    7b:a8:1d:c2:78:95:47:0a:ec:75:d8:a6:1a:70:48:
                    b9:72:5b:9e:74:70:ca:88:5c:d7:b6:14:c1:14:54:
                    ea:fe:fa:d7:fe:59:cd:33:4c:55:38:14:d7:fe:b2:
                    65:85:39:64:1c:a4:3f:b9:86:8d:cf:75:e1:4c:99:
                    d9:48:db:1c:3f:b1:76:9b:19:fe:ab:c4:74:71:53:
                    e2:42:d0:5b:53:43:c2:de:e3:67:62:f5:f8:14:0e:
                    a7:7c:87:a2:2c:ea:6b:bf:09:9b:1a:d7:4a:28:bd:
                    5b:96:25:58:c7:85:11:9d:38:96:99:99:00:17:7b:
                    1c:c5:16:e5:ab:f8:ac:4f:f8:bf:d1:fc:54:6a:84:
                    8c:de:d9:00:e8:ac:cd:f9:28:74:2f:3c:28:e4:28:
                    58:84:6d:5e:20:1a:ef:05:9c:e1:40:ec:9d:5a:51:
                    03:90:e6:75:09:45:d9:e0:7e:63:4a:9b:f8:af:9c:
                    b2:04:5b
                Exponent: 65537 (0x10001)
        X509v3 extensions:
            X509v3 Basic Constraints: 
                CA:FALSE
            Netscape Comment: 
                Easy-RSA Generated Certificate
            X509v3 Subject Key Identifier: 
                E0:0E:D2:21:8D:08:D5:C0:44:28:95:5E:16:CD:8B:0C:69:C4:48:53
            X509v3 Authority Key Identifier: 
                keyid:12:CD:60:04:D2:A0:80:9E:70:ED:C6:99:B8:7B:2C:C6:52:FD:19:A1
                DirName:/C=US/ST=OH/L=Columbus/O=VikingVPN/OU=MyOrganizationalUnit/CN=VikingVPN CA/name=EasyRSA/emailAddress=me@myhost.mydomain
                serial:CF:35:85:EE:80:BF:2A:3E

            X509v3 Extended Key Usage: 
                TLS Web Client Authentication
            X509v3 Key Usage: 
                Digital Signature
    Signature Algorithm: sha256WithRSAEncryption
         e7:ec:ed:1c:fe:69:e4:8f:6e:5f:33:fc:aa:54:75:4e:89:20:
         82:5b:97:28:d5:26:5a:20:86:77:4c:d6:3b:a6:fe:8c:02:9e:
         4e:0b:77:36:fd:a7:64:7d:89:32:23:17:a0:1a:52:3c:45:d8:
         6b:66:f2:2a:ce:56:8d:3b:a6:92:6c:9d:4b:75:47:6c:1e:91:
         8e:7a:55:dd:75:24:97:6b:e4:b4:b3:76:07:14:be:16:69:bb:
         47:34:7a:e0:08:c9:71:94:d0:3f:46:7e:c5:f0:aa:98:c2:fb:
         a4:a9:0a:7d:1b:22:87:ea:e6:5f:ef:4e:99:b4:3f:3b:15:ba:
         84:d8:e8:3a:2d:14:2d:ce:34:39:37:cc:9f:20:4a:54:29:5b:
         37:82:70:a0:12:c9:7f:4d:b4:e1:30:3e:83:1b:e9:75:03:9a:
         8e:3c:5a:1e:5e:03:41:62:79:1e:df:aa:bc:c6:5a:3c:70:53:
         45:04:b1:67:0b:d9:a5:86:05:b7:18:e3:2e:3a:a4:5e:24:80:
         78:2e:39:df:01:05:96:83:31:4b:ca:51:b9:03:b3:7d:d0:15:
         b0:45:9c:40:6d:75:e5:84:70:aa:c0:0e:8f:e2:5e:cf:0b:7b:
         4c:ba:25:26:cc:da:f4:e6:85:10:3b:94:03:c3:8f:72:a6:51:
         bb:b0:3c:cc:e5:30:5f:9b:d2:ae:94:72:95:d0:b4:86:e1:9c:
         93:91:e8:f8:0e:a9:f7:68:a1:18:29:5d:0f:9c:17:38:a1:af:
         29:03:c9:1d:bf:de:85:78:08:24:ef:ae:82:db:e1:9d:b1:c9:
         a3:c2:96:47:16:24:2e:a6:14:ca:a6:d7:38:42:6d:51:f8:d9:
         d2:2d:90:0a:4a:7b:99:a5:f5:23:18:7d:a4:98:6b:a5:c5:98:
         d1:92:19:99:f6:13:2c:07:1d:95:92:42:dd:e4:aa:f0:16:d2:
         47:57:d8:1b:02:7f:23:2a:fb:5d:0d:20:ff:a9:26:35:37:ae:
         10:c4:8f:ac:b0:b7:e7:4f:1c:e4:15:fb:bd:4c:32:fa:f4:c7:
         8d:c3:24:7f:6b:61:ea:d7:89:c3:13:57:f3:cf:3e:e9:36:74:
         40:4a:e1:f0:39:ad:20:f4:9f:91:68:cc:4f:ac:2b:42:64:38:
         2b:ae:46:3a:db:f2:9f:a7:51:0f:ec:7b:9f:f6:61:a1:d3:6c:
         1d:8c:15:5e:e5:2e:79:b2:b7:b6:b0:ca:9f:43:17:34:1e:00:
         55:05:43:48:32:57:94:69:ee:64:5b:67:b3:61:2d:9f:11:0c:
         c9:85:b6:21:2d:63:dd:9c:54:8b:89:9c:e3:29:2a:8f:ba:43:
         89:1e:16:5c:39:fe:e3:53
-----BEGIN CERTIFICATE-----
MIIGrTCCBJWgAwIBAgICI7cwDQYJKoZIhvcNAQELBQAwgawxCzAJBgNVBAYTAlVT
MQswCQYDVQQIEwJPSDERMA8GA1UEBxMIQ29sdW1idXMxEjAQBgNVBAoTCVZpa2lu
Z1ZQTjEdMBsGA1UECxMUTXlPcmdhbml6YXRpb25hbFVuaXQxFTATBgNVBAMTDFZp
a2luZ1ZQTiBDQTEQMA4GA1UEKRMHRWFzeVJTQTEhMB8GCSqGSIb3DQEJARYSbWVA
bXlob3N0Lm15ZG9tYWluMB4XDTE2MTAwMzEwNTI0MloXDTI2MTAwMTEwNTI0Mlow
HzEdMBsGA1UEAxMUQ2xpZW50MjUyMUNlcnRjODU1NzkwggIiMA0GCSqGSIb3DQEB
AQUAA4ICDwAwggIKAoICAQDp6Fiw8DQgaT8/EbYGRaZaPDSBIoXOw1kylEtZfAph
hFgL7AYJbHj0d7ffFWyvZXGMEkyiqx55Ed6lISK33ahrBat40FB8Za+khrTDAuR8
V5lj5nkIfeTTyB9APICRRqxH6RYpfmtX1ExuUJpO1lX2CFggdbF7EjEa+9vN7tVu
LCzkJhGuGGNOxN2eZKXbsGVxkNOUroAYJHy0da43EEu34opFMavjNAOJU7st136P
1mXO1sQeaqrA/BN6VLXk+BpTSoJp7efSTntZlWR/LiZLuPu6eeTY5QNorb8dkWVo
yQoMVsvPb2z5Fq3Pe/lOB/iEJ5CvRxz++xBMr8BNfuBAQtaSXsblFHNvKTwTRlwO
SXvMsnjF6MpJgVPJXBq0zwCdNbFQQrZiI9h3AgHiFo71AG2dgv+qD85ylw8pH1X6
NYOezSZMFTCv4HuoHcJ4lUcK7HXYphpwSLlyW550cMqIXNe2FMEUVOr++tf+Wc0z
TFU4FNf+smWFOWQcpD+5ho3PdeFMmdlI2xw/sXabGf6rxHRxU+JC0FtTQ8Le42di
9fgUDqd8h6Is6mu/CZsa10oovVuWJVjHhRGdOJaZmQAXexzFFuWr+KxP+L/R/FRq
hIze2QDorM35KHQvPCjkKFiEbV4gGu8FnOFA7J1aUQOQ5nUJRdngfmNKm/ivnLIE
WwIDAQABo4IBYzCCAV8wCQYDVR0TBAIwADAtBglghkgBhvhCAQ0EIBYeRWFzeS1S
U0EgR2VuZXJhdGVkIENlcnRpZmljYXRlMB0GA1UdDgQWBBTgDtIhjQjVwEQolV4W
zYsMacRIUzCB4QYDVR0jBIHZMIHWgBQSzWAE0qCAnnDtxpm4eyzGUv0ZoaGBsqSB
rzCBrDELMAkGA1UEBhMCVVMxCzAJBgNVBAgTAk9IMREwDwYDVQQHEwhDb2x1bWJ1
czESMBAGA1UEChMJVmlraW5nVlBOMR0wGwYDVQQLExRNeU9yZ2FuaXphdGlvbmFs
VW5pdDEVMBMGA1UEAxMMVmlraW5nVlBOIENBMRAwDgYDVQQpEwdFYXN5UlNBMSEw
HwYJKoZIhvcNAQkBFhJtZUBteWhvc3QubXlkb21haW6CCQDPNYXugL8qPjATBgNV
HSUEDDAKBggrBgEFBQcDAjALBgNVHQ8EBAMCB4AwDQYJKoZIhvcNAQELBQADggIB
AOfs7Rz+aeSPbl8z/KpUdU6JIIJblyjVJloghndM1jum/owCnk4Ldzb9p2R9iTIj
F6AaUjxF2Gtm8irOVo07ppJsnUt1R2wekY56Vd11JJdr5LSzdgcUvhZpu0c0euAI
yXGU0D9GfsXwqpjC+6SpCn0bIofq5l/vTpm0PzsVuoTY6DotFC3ONDk3zJ8gSlQp
WzeCcKASyX9NtOEwPoMb6XUDmo48Wh5eA0FieR7fqrzGWjxwU0UEsWcL2aWGBbcY
4y46pF4kgHguOd8BBZaDMUvKUbkDs33QFbBFnEBtdeWEcKrADo/iXs8Le0y6JSbM
2vTmhRA7lAPDj3KmUbuwPMzlMF+b0q6UcpXQtIbhnJOR6PgOqfdooRgpXQ+cFzih
rykDyR2/3oV4CCTvroLb4Z2xyaPClkcWJC6mFMqm1zhCbVH42dItkApKe5ml9SMY
faSYa6XFmNGSGZn2EywHHZWSQt3kqvAW0kdX2BsCfyMq+10NIP+pJjU3rhDEj6yw
t+dPHOQV+71MMvr0x43DJH9rYerXicMTV/PPPuk2dEBK4fA5rSD0n5FozE+sK0Jk
OCuuRjrb8p+nUQ/se5/2YaHTbB2MFV7lLnmyt7awyp9DFzQeAFUFQ0gyV5Rp7mRb
Z7NhLZ8RDMmFtiEtY92cVIuJnOMpKo+6Q4keFlw5/uNT
-----END CERTIFICATE-----
