Certificate:
    Data:
        Version: 3 (0x2)
        Serial Number: 9148 (0x23bc)
    Signature Algorithm: sha256WithRSAEncryption
        Issuer: C=US, ST=OH, L=Columbus, O=VikingVPN, OU=MyOrganizationalUnit, CN=VikingVPN CA/name=EasyRSA/emailAddress=me@myhost.mydomain
        Validity
            Not Before: Oct  3 14:46:58 2016 GMT
            Not After : Oct  1 14:46:58 2026 GMT
        Subject: CN=Client2524Certfcc359
        Subject Public Key Info:
            Public Key Algorithm: rsaEncryption
                Public-Key: (4096 bit)
                Modulus:
                    00:cb:00:1d:66:c2:9e:93:f9:db:f8:f6:4f:05:ba:
                    6f:ca:0a:4e:72:33:07:6d:3a:3b:d2:e9:e5:31:1c:
                    e8:14:63:97:df:4c:7a:67:c9:29:92:c5:70:7e:cc:
                    f2:d9:de:78:fc:c3:3b:5e:56:9f:27:51:72:72:f5:
                    e9:8b:38:9b:93:9a:f0:fd:98:16:35:ae:3c:90:b5:
                    6d:69:04:af:6a:95:e1:c6:e8:9e:e4:a5:11:a4:d8:
                    8c:91:33:c3:15:4a:b5:25:80:d0:aa:9b:01:d6:56:
                    5c:12:f1:e0:e6:d5:f7:d8:f1:a2:fe:0f:84:a3:ee:
                    a8:54:ba:6d:fc:cc:91:0b:50:22:95:d7:4f:25:07:
                    4d:c9:b7:5a:c4:af:5a:24:7c:45:62:12:de:f9:8f:
                    6f:fc:c1:bc:03:04:6b:46:ed:b6:2b:bc:58:e3:67:
                    8e:1e:15:e3:2d:e2:6a:2c:57:3d:60:32:e6:94:0c:
                    4e:43:6a:7f:ab:1f:b8:72:b9:c1:ca:30:b6:63:f7:
                    8e:ef:ca:80:4f:75:72:b4:da:a5:a0:15:04:d6:ed:
                    42:e5:4c:21:47:ba:61:2a:6f:61:bc:90:df:c5:be:
                    68:3e:01:d1:15:5c:b5:f4:a6:84:03:61:c9:22:12:
                    9a:4f:1d:f7:ce:29:cf:a8:c7:d3:13:6f:64:2e:d0:
                    22:97:db:63:5f:8d:67:55:0d:6f:25:80:cb:84:f5:
                    ff:5a:71:d9:66:e7:63:f0:00:c9:ef:ca:c6:dd:60:
                    05:1d:96:6d:ae:d3:ee:af:ce:25:da:de:2d:da:0a:
                    72:64:e6:53:19:0d:e5:ad:9d:42:cb:fa:f5:1a:dd:
                    90:f9:61:ee:7a:3b:73:f4:47:da:36:cb:c2:d2:6e:
                    ca:48:8d:42:1b:2c:f2:a4:1e:0d:85:11:7a:bb:51:
                    7b:72:31:09:92:67:04:57:89:70:1d:a7:0f:e5:60:
                    09:4f:78:b2:2f:98:ee:7d:85:f5:82:0d:7e:44:d5:
                    d0:68:83:9a:7c:0f:70:cd:4c:5c:31:d1:a1:15:2f:
                    92:20:68:e4:f4:55:cf:d3:0c:5e:ec:3b:07:33:ec:
                    33:7c:a7:61:1c:33:25:54:4c:56:38:5d:ed:d2:a2:
                    a2:52:a1:d1:dc:70:2c:0d:9f:a3:5e:5d:12:b2:df:
                    a7:fa:23:b1:0b:a0:b3:a7:f5:b6:dd:3b:d1:1d:a9:
                    2b:e8:27:bf:a7:ea:14:62:83:ee:d8:85:ca:57:6a:
                    79:9a:b6:f5:20:ee:c9:7b:ff:46:43:c4:99:bc:66:
                    f6:72:ea:30:f2:37:b7:64:7e:e5:5f:82:39:7e:5f:
                    46:21:e3:98:cc:db:b4:f8:8d:da:34:f9:95:b7:1d:
                    a1:63:0b
                Exponent: 65537 (0x10001)
        X509v3 extensions:
            X509v3 Basic Constraints: 
                CA:FALSE
            Netscape Comment: 
                Easy-RSA Generated Certificate
            X509v3 Subject Key Identifier: 
                25:16:CF:A7:AD:49:76:AC:E3:D7:EA:90:9B:B3:70:43:69:06:13:DF
            X509v3 Authority Key Identifier: 
                keyid:12:CD:60:04:D2:A0:80:9E:70:ED:C6:99:B8:7B:2C:C6:52:FD:19:A1
                DirName:/C=US/ST=OH/L=Columbus/O=VikingVPN/OU=MyOrganizationalUnit/CN=VikingVPN CA/name=EasyRSA/emailAddress=me@myhost.mydomain
                serial:CF:35:85:EE:80:BF:2A:3E

            X509v3 Extended Key Usage: 
                TLS Web Client Authentication
            X509v3 Key Usage: 
                Digital Signature
    Signature Algorithm: sha256WithRSAEncryption
         5b:eb:1f:07:ec:fa:c2:1f:83:d8:f1:ca:6c:0a:f6:17:40:7d:
         a0:65:d6:e1:ec:cc:2c:f0:7a:52:6e:4d:bc:46:ae:6b:09:4b:
         b5:88:e5:b5:d2:76:6e:0e:54:81:11:65:47:33:32:03:d4:bf:
         e4:1f:a5:74:d4:9e:19:9f:ae:6d:e5:38:10:7a:04:08:b7:df:
         64:4f:63:9e:a0:f4:1d:ec:1b:30:35:2f:6b:fe:5b:c4:81:c8:
         67:35:b1:1b:df:82:fe:fc:bb:57:1a:1e:6a:6d:1d:68:dc:70:
         d0:57:ab:c9:44:2a:ce:65:9f:f7:29:04:78:20:88:83:9c:bf:
         d8:d2:65:09:65:de:d1:0c:1e:5d:f3:65:31:47:d6:94:3f:3f:
         4d:8f:e2:e8:42:f3:75:d8:c7:4d:89:bb:09:78:ad:a2:b7:7e:
         a5:c2:f6:53:d8:79:4e:27:ec:d9:5b:2c:b2:93:1f:f8:8b:4b:
         e4:ba:c8:f1:ba:d8:8c:42:df:e2:79:8c:66:f7:5c:d5:d2:35:
         31:96:5e:74:e2:53:a8:b8:c6:fa:09:86:0a:c7:7f:e1:e6:06:
         3b:d9:dc:1e:e5:af:20:cf:7b:d4:23:3b:96:62:37:e7:e2:98:
         43:a8:4d:29:06:43:67:86:18:25:0c:60:b2:9e:49:1d:60:14:
         45:9c:93:1b:99:6a:51:b5:d6:74:dc:22:85:96:59:8d:43:39:
         22:11:ca:db:89:f0:6e:8c:84:4c:55:aa:14:d5:88:d5:9e:88:
         18:c4:5b:e5:1a:52:52:d0:20:6e:28:2d:a1:5e:59:22:fa:25:
         c5:0e:0e:6c:a0:67:ec:0e:b5:eb:23:d7:89:99:55:34:4b:ad:
         72:83:66:10:30:15:86:5e:72:87:f4:7c:5d:e7:45:e1:13:3f:
         9b:1a:3b:ff:9a:aa:15:e2:71:e1:e0:e5:a0:b9:27:1b:40:d6:
         b8:31:49:19:13:69:0e:58:8e:77:df:67:f2:e5:f2:aa:69:9d:
         f9:d8:79:fd:d1:ac:cb:10:ef:7d:ef:61:f9:c5:78:ac:8d:4e:
         5a:6d:9d:71:c2:6f:a3:13:60:5e:3f:24:20:38:b4:8b:23:b5:
         30:cb:c3:92:de:67:1b:7d:73:13:4d:47:83:6d:00:02:12:ca:
         9a:3c:d0:6b:b2:7c:94:b1:eb:72:5e:cc:7e:05:ed:a3:08:b2:
         5e:4e:0e:7c:26:b7:89:13:7b:59:8b:21:03:41:22:e0:8b:c5:
         a1:e3:fe:b2:86:94:2e:92:8b:5e:c6:42:4f:8f:c1:80:c1:76:
         3a:b5:92:7d:66:6f:67:0f:c8:61:a3:42:e2:11:b2:e3:e4:0d:
         5d:5b:24:d1:e5:b9:27:ec
-----BEGIN CERTIFICATE-----
MIIGrTCCBJWgAwIBAgICI7wwDQYJKoZIhvcNAQELBQAwgawxCzAJBgNVBAYTAlVT
MQswCQYDVQQIEwJPSDERMA8GA1UEBxMIQ29sdW1idXMxEjAQBgNVBAoTCVZpa2lu
Z1ZQTjEdMBsGA1UECxMUTXlPcmdhbml6YXRpb25hbFVuaXQxFTATBgNVBAMTDFZp
a2luZ1ZQTiBDQTEQMA4GA1UEKRMHRWFzeVJTQTEhMB8GCSqGSIb3DQEJARYSbWVA
bXlob3N0Lm15ZG9tYWluMB4XDTE2MTAwMzE0NDY1OFoXDTI2MTAwMTE0NDY1OFow
HzEdMBsGA1UEAxMUQ2xpZW50MjUyNENlcnRmY2MzNTkwggIiMA0GCSqGSIb3DQEB
AQUAA4ICDwAwggIKAoICAQDLAB1mwp6T+dv49k8Fum/KCk5yMwdtOjvS6eUxHOgU
Y5ffTHpnySmSxXB+zPLZ3nj8wzteVp8nUXJy9emLOJuTmvD9mBY1rjyQtW1pBK9q
leHG6J7kpRGk2IyRM8MVSrUlgNCqmwHWVlwS8eDm1ffY8aL+D4Sj7qhUum38zJEL
UCKV108lB03Jt1rEr1okfEViEt75j2/8wbwDBGtG7bYrvFjjZ44eFeMt4mosVz1g
MuaUDE5Dan+rH7hyucHKMLZj947vyoBPdXK02qWgFQTW7ULlTCFHumEqb2G8kN/F
vmg+AdEVXLX0poQDYckiEppPHffOKc+ox9MTb2Qu0CKX22NfjWdVDW8lgMuE9f9a
cdlm52PwAMnvysbdYAUdlm2u0+6vziXa3i3aCnJk5lMZDeWtnULL+vUa3ZD5Ye56
O3P0R9o2y8LSbspIjUIbLPKkHg2FEXq7UXtyMQmSZwRXiXAdpw/lYAlPeLIvmO59
hfWCDX5E1dBog5p8D3DNTFwx0aEVL5IgaOT0Vc/TDF7sOwcz7DN8p2EcMyVUTFY4
Xe3SoqJSodHccCwNn6NeXRKy36f6I7ELoLOn9bbdO9EdqSvoJ7+n6hRig+7YhcpX
anmatvUg7sl7/0ZDxJm8ZvZy6jDyN7dkfuVfgjl+X0Yh45jM27T4jdo0+ZW3HaFj
CwIDAQABo4IBYzCCAV8wCQYDVR0TBAIwADAtBglghkgBhvhCAQ0EIBYeRWFzeS1S
U0EgR2VuZXJhdGVkIENlcnRpZmljYXRlMB0GA1UdDgQWBBQlFs+nrUl2rOPX6pCb
s3BDaQYT3zCB4QYDVR0jBIHZMIHWgBQSzWAE0qCAnnDtxpm4eyzGUv0ZoaGBsqSB
rzCBrDELMAkGA1UEBhMCVVMxCzAJBgNVBAgTAk9IMREwDwYDVQQHEwhDb2x1bWJ1
czESMBAGA1UEChMJVmlraW5nVlBOMR0wGwYDVQQLExRNeU9yZ2FuaXphdGlvbmFs
VW5pdDEVMBMGA1UEAxMMVmlraW5nVlBOIENBMRAwDgYDVQQpEwdFYXN5UlNBMSEw
HwYJKoZIhvcNAQkBFhJtZUBteWhvc3QubXlkb21haW6CCQDPNYXugL8qPjATBgNV
HSUEDDAKBggrBgEFBQcDAjALBgNVHQ8EBAMCB4AwDQYJKoZIhvcNAQELBQADggIB
AFvrHwfs+sIfg9jxymwK9hdAfaBl1uHszCzwelJuTbxGrmsJS7WI5bXSdm4OVIER
ZUczMgPUv+QfpXTUnhmfrm3lOBB6BAi332RPY56g9B3sGzA1L2v+W8SByGc1sRvf
gv78u1caHmptHWjccNBXq8lEKs5ln/cpBHggiIOcv9jSZQll3tEMHl3zZTFH1pQ/
P02P4uhC83XYx02Juwl4raK3fqXC9lPYeU4n7NlbLLKTH/iLS+S6yPG62IxC3+J5
jGb3XNXSNTGWXnTiU6i4xvoJhgrHf+HmBjvZ3B7lryDPe9QjO5ZiN+fimEOoTSkG
Q2eGGCUMYLKeSR1gFEWckxuZalG11nTcIoWWWY1DOSIRytuJ8G6MhExVqhTViNWe
iBjEW+UaUlLQIG4oLaFeWSL6JcUODmygZ+wOtesj14mZVTRLrXKDZhAwFYZecof0
fF3nReETP5saO/+aqhXiceHg5aC5JxtA1rgxSRkTaQ5YjnffZ/Ll8qppnfnYef3R
rMsQ733vYfnFeKyNTlptnXHCb6MTYF4/JCA4tIsjtTDLw5LeZxt9cxNNR4NtAAIS
ypo80GuyfJSx63JezH4F7aMIsl5ODnwmt4kTe1mLIQNBIuCLxaHj/rKGlC6Si17G
Qk+PwYDBdjq1kn1mb2cPyGGjQuIRsuPkDV1bJNHluSfs
-----END CERTIFICATE-----
