Certificate:
    Data:
        Version: 3 (0x2)
        Serial Number: 9156 (0x23c4)
    Signature Algorithm: sha256WithRSAEncryption
        Issuer: C=US, ST=OH, L=Columbus, O=VikingVPN, OU=MyOrganizationalUnit, CN=VikingVPN CA/name=EasyRSA/emailAddress=me@myhost.mydomain
        Validity
            Not Before: Oct  3 22:42:24 2016 GMT
            Not After : Oct  1 22:42:24 2026 GMT
        Subject: CN=Client2526Cert962aaa
        Subject Public Key Info:
            Public Key Algorithm: rsaEncryption
                Public-Key: (4096 bit)
                Modulus:
                    00:c1:50:f6:08:57:f4:d4:fb:37:8d:d1:b4:69:e1:
                    17:c7:9d:63:f0:e9:6a:67:c3:26:5d:ad:05:69:d9:
                    93:74:24:c8:d0:c6:da:15:fb:a5:c7:54:f9:94:0d:
                    47:fa:ec:fc:1c:86:18:71:a5:c7:d6:c3:8e:fe:a5:
                    c5:98:49:ef:6c:7d:01:90:1b:79:95:51:37:87:41:
                    40:66:b7:dc:f7:07:23:42:81:1d:fd:5c:03:fc:3f:
                    05:44:85:b7:13:2e:d1:1c:64:5c:dd:50:56:12:6c:
                    d7:c5:63:a6:3c:fc:1f:0b:ef:ed:44:3d:3f:d4:ed:
                    f1:67:c1:c7:e2:4a:fb:57:50:b3:20:35:ae:29:f7:
                    74:43:39:d0:5f:c2:85:8b:2e:e2:a5:a0:ef:a7:81:
                    58:d3:ae:1d:b9:b8:0e:0b:5a:5b:31:ab:b8:05:94:
                    57:a0:97:be:f7:ee:31:0f:d9:21:23:ff:50:e3:4a:
                    40:d3:53:57:07:3f:cd:a1:b5:0f:0b:1f:76:d3:16:
                    b5:e1:63:11:eb:dc:91:00:6a:f1:2d:f2:cb:9c:48:
                    5e:d8:d4:8b:4c:9b:2a:50:52:bc:c2:31:07:1b:6e:
                    3f:c8:9b:f9:e9:a7:65:54:a9:3e:2b:db:d7:86:0d:
                    c1:f5:8d:28:a2:33:be:7d:77:ff:88:f3:51:45:27:
                    a4:2f:47:b5:1b:c0:5e:4b:4b:36:9b:d5:a8:e3:39:
                    2a:ab:9d:2f:c6:4d:d4:94:1b:69:5e:38:a3:21:65:
                    b5:68:dd:94:60:81:15:e3:6e:b0:ea:20:a8:47:80:
                    eb:00:4f:13:ac:f7:d7:d7:c2:22:23:3f:5a:68:b5:
                    4d:6c:01:b8:c9:92:36:56:49:f7:a5:d8:5c:16:83:
                    88:ef:0f:07:28:8d:7a:c0:00:1f:f6:f4:80:dc:31:
                    75:c4:3b:07:f0:ce:42:aa:fc:9f:4d:b4:04:2a:83:
                    69:75:c1:cf:de:de:0a:39:ad:2b:c7:50:b5:3d:43:
                    73:40:aa:3c:14:77:f2:d2:07:43:62:49:9b:7e:da:
                    bb:0e:e2:2c:7c:74:0c:c9:e5:59:41:f0:f3:0f:b6:
                    df:ee:95:a5:4c:b2:52:ac:f5:bc:95:f5:ec:1e:86:
                    3e:24:d4:4d:21:47:1e:90:37:8f:ea:1d:cf:cd:af:
                    bd:8f:4d:af:91:d4:4d:7e:53:a6:8e:89:c7:e9:26:
                    76:82:cd:d7:f0:65:0f:8c:47:c9:64:56:a4:56:9f:
                    1c:bf:6f:c6:13:ac:6f:97:f7:3e:01:d0:78:fb:0f:
                    26:ef:ae:ff:37:d6:52:d3:22:e1:80:fb:7e:01:05:
                    e6:99:2c:fc:db:59:fa:51:2e:27:53:8a:89:1b:3b:
                    ac:0a:33
                Exponent: 65537 (0x10001)
        X509v3 extensions:
            X509v3 Basic Constraints: 
                CA:FALSE
            Netscape Comment: 
                Easy-RSA Generated Certificate
            X509v3 Subject Key Identifier: 
                84:2A:4E:91:F7:B9:E0:89:4D:D2:CE:08:EF:2B:AA:54:75:74:86:C1
            X509v3 Authority Key Identifier: 
                keyid:12:CD:60:04:D2:A0:80:9E:70:ED:C6:99:B8:7B:2C:C6:52:FD:19:A1
                DirName:/C=US/ST=OH/L=Columbus/O=VikingVPN/OU=MyOrganizationalUnit/CN=VikingVPN CA/name=EasyRSA/emailAddress=me@myhost.mydomain
                serial:CF:35:85:EE:80:BF:2A:3E

            X509v3 Extended Key Usage: 
                TLS Web Client Authentication
            X509v3 Key Usage: 
                Digital Signature
    Signature Algorithm: sha256WithRSAEncryption
         94:ff:3f:b1:3a:91:c2:9a:52:3b:19:65:bf:db:cd:53:c1:4b:
         90:24:53:68:fa:25:7f:0d:f0:68:2e:db:12:84:31:c8:34:69:
         b2:a3:be:17:a9:cc:8d:9d:dd:88:52:3c:b9:87:e3:9b:f6:ed:
         29:95:49:95:31:ea:48:63:1e:ed:ed:0e:b0:7f:1b:e1:02:0d:
         82:98:d3:2d:18:a2:03:90:1f:4e:e7:41:b9:c5:a2:01:9e:09:
         56:10:a7:3a:8b:75:10:3f:6e:70:83:ee:e1:26:64:c3:eb:0b:
         10:07:f1:7e:8c:60:8b:69:a2:d9:1a:8d:89:7c:e6:1e:45:8e:
         19:ad:43:5c:5f:fb:f3:fd:e3:78:98:ff:66:64:53:c2:56:81:
         e3:0b:70:ad:ed:8f:c7:e6:05:2b:b0:fe:bd:17:d9:06:29:5d:
         ca:82:52:eb:b2:ee:73:0f:eb:4f:19:2c:4f:bf:7f:12:b3:f8:
         a5:0a:ce:33:ad:7a:1f:4a:71:6e:58:83:ed:31:eb:39:03:33:
         48:c9:4b:41:91:e9:56:3f:37:c5:d6:df:d5:1c:2d:c0:c2:ef:
         4c:49:5c:95:cc:86:25:a4:ac:d1:48:16:aa:84:a3:ee:08:12:
         f5:23:f8:d0:88:7a:02:67:2e:68:6a:0c:b4:ad:6b:92:15:a0:
         fe:6a:c4:85:0e:fe:6a:19:50:b8:b7:2f:a4:e4:d6:98:fc:c3:
         8f:ad:ff:0b:2f:5a:3f:e8:90:4f:7e:dc:4f:30:0d:b9:2a:2f:
         9b:06:ea:29:4f:93:0b:db:fa:f6:ff:24:2e:39:04:10:82:7f:
         3d:71:36:19:28:05:23:3b:7d:55:b8:47:66:7a:94:48:d0:47:
         ab:70:06:a8:53:ff:57:03:4e:77:c5:5c:3b:e1:00:47:2d:7e:
         c0:23:90:33:9b:5b:d5:d9:d7:68:ee:3e:e6:9d:b1:08:aa:db:
         ad:cc:86:25:17:fe:e2:8f:38:5e:b1:c7:23:2d:cf:aa:40:6f:
         ea:49:4f:c4:a8:7c:43:bf:b3:20:f5:fd:c2:49:2a:1f:3f:03:
         99:84:27:68:c1:0b:a4:18:68:40:2d:39:84:91:96:fe:0d:66:
         5e:db:0a:8d:16:40:da:8b:81:cc:86:6a:ae:af:3d:04:43:75:
         83:b0:d1:b2:81:a9:01:2d:05:65:2b:6f:b7:8a:33:44:fb:03:
         e2:b0:eb:64:30:bc:6e:6a:98:9c:c3:b7:ca:71:e4:50:7b:4d:
         b1:e7:68:41:0f:54:fe:6d:6b:13:66:ae:63:a8:2e:7b:56:a4:
         9e:36:1c:b8:b1:c0:17:f9:9c:20:a5:0b:12:50:ff:d8:7d:59:
         61:39:0b:bd:26:1f:6e:b3
-----BEGIN CERTIFICATE-----
MIIGrTCCBJWgAwIBAgICI8QwDQYJKoZIhvcNAQELBQAwgawxCzAJBgNVBAYTAlVT
MQswCQYDVQQIEwJPSDERMA8GA1UEBxMIQ29sdW1idXMxEjAQBgNVBAoTCVZpa2lu
Z1ZQTjEdMBsGA1UECxMUTXlPcmdhbml6YXRpb25hbFVuaXQxFTATBgNVBAMTDFZp
a2luZ1ZQTiBDQTEQMA4GA1UEKRMHRWFzeVJTQTEhMB8GCSqGSIb3DQEJARYSbWVA
bXlob3N0Lm15ZG9tYWluMB4XDTE2MTAwMzIyNDIyNFoXDTI2MTAwMTIyNDIyNFow
HzEdMBsGA1UEAxMUQ2xpZW50MjUyNkNlcnQ5NjJhYWEwggIiMA0GCSqGSIb3DQEB
AQUAA4ICDwAwggIKAoICAQDBUPYIV/TU+zeN0bRp4RfHnWPw6WpnwyZdrQVp2ZN0
JMjQxtoV+6XHVPmUDUf67PwchhhxpcfWw47+pcWYSe9sfQGQG3mVUTeHQUBmt9z3
ByNCgR39XAP8PwVEhbcTLtEcZFzdUFYSbNfFY6Y8/B8L7+1EPT/U7fFnwcfiSvtX
ULMgNa4p93RDOdBfwoWLLuKloO+ngVjTrh25uA4LWlsxq7gFlFegl7737jEP2SEj
/1DjSkDTU1cHP82htQ8LH3bTFrXhYxHr3JEAavEt8sucSF7Y1ItMmypQUrzCMQcb
bj/Im/npp2VUqT4r29eGDcH1jSiiM759d/+I81FFJ6QvR7UbwF5LSzab1ajjOSqr
nS/GTdSUG2leOKMhZbVo3ZRggRXjbrDqIKhHgOsATxOs99fXwiIjP1potU1sAbjJ
kjZWSfel2FwWg4jvDwcojXrAAB/29IDcMXXEOwfwzkKq/J9NtAQqg2l1wc/e3go5
rSvHULU9Q3NAqjwUd/LSB0NiSZt+2rsO4ix8dAzJ5VlB8PMPtt/ulaVMslKs9byV
9ewehj4k1E0hRx6QN4/qHc/Nr72PTa+R1E1+U6aOicfpJnaCzdfwZQ+MR8lkVqRW
nxy/b8YTrG+X9z4B0Hj7Dybvrv831lLTIuGA+34BBeaZLPzbWfpRLidTiokbO6wK
MwIDAQABo4IBYzCCAV8wCQYDVR0TBAIwADAtBglghkgBhvhCAQ0EIBYeRWFzeS1S
U0EgR2VuZXJhdGVkIENlcnRpZmljYXRlMB0GA1UdDgQWBBSEKk6R97ngiU3Szgjv
K6pUdXSGwTCB4QYDVR0jBIHZMIHWgBQSzWAE0qCAnnDtxpm4eyzGUv0ZoaGBsqSB
rzCBrDELMAkGA1UEBhMCVVMxCzAJBgNVBAgTAk9IMREwDwYDVQQHEwhDb2x1bWJ1
czESMBAGA1UEChMJVmlraW5nVlBOMR0wGwYDVQQLExRNeU9yZ2FuaXphdGlvbmFs
VW5pdDEVMBMGA1UEAxMMVmlraW5nVlBOIENBMRAwDgYDVQQpEwdFYXN5UlNBMSEw
HwYJKoZIhvcNAQkBFhJtZUBteWhvc3QubXlkb21haW6CCQDPNYXugL8qPjATBgNV
HSUEDDAKBggrBgEFBQcDAjALBgNVHQ8EBAMCB4AwDQYJKoZIhvcNAQELBQADggIB
AJT/P7E6kcKaUjsZZb/bzVPBS5AkU2j6JX8N8Ggu2xKEMcg0abKjvhepzI2d3YhS
PLmH45v27SmVSZUx6khjHu3tDrB/G+ECDYKY0y0YogOQH07nQbnFogGeCVYQpzqL
dRA/bnCD7uEmZMPrCxAH8X6MYItpotkajYl85h5FjhmtQ1xf+/P943iY/2ZkU8JW
geMLcK3tj8fmBSuw/r0X2QYpXcqCUuuy7nMP608ZLE+/fxKz+KUKzjOteh9KcW5Y
g+0x6zkDM0jJS0GR6VY/N8XW39UcLcDC70xJXJXMhiWkrNFIFqqEo+4IEvUj+NCI
egJnLmhqDLSta5IVoP5qxIUO/moZULi3L6Tk1pj8w4+t/wsvWj/okE9+3E8wDbkq
L5sG6ilPkwvb+vb/JC45BBCCfz1xNhkoBSM7fVW4R2Z6lEjQR6twBqhT/1cDTnfF
XDvhAEctfsAjkDObW9XZ12juPuadsQiq263MhiUX/uKPOF6xxyMtz6pAb+pJT8So
fEO/syD1/cJJKh8/A5mEJ2jBC6QYaEAtOYSRlv4NZl7bCo0WQNqLgcyGaq6vPQRD
dYOw0bKBqQEtBWUrb7eKM0T7A+Kw62QwvG5qmJzDt8px5FB7TbHnaEEPVP5taxNm
rmOoLntWpJ42HLixwBf5nCClCxJQ/9h9WWE5C70mH26z
-----END CERTIFICATE-----
