Certificate:
    Data:
        Version: 3 (0x2)
        Serial Number: 9183 (0x23df)
    Signature Algorithm: sha256WithRSAEncryption
        Issuer: C=US, ST=OH, L=Columbus, O=VikingVPN, OU=MyOrganizationalUnit, CN=VikingVPN CA/name=EasyRSA/emailAddress=me@myhost.mydomain
        Validity
            Not Before: Oct  6 19:23:45 2016 GMT
            Not After : Oct  4 19:23:45 2026 GMT
        Subject: CN=Client2529Cert8e8430
        Subject Public Key Info:
            Public Key Algorithm: rsaEncryption
                Public-Key: (4096 bit)
                Modulus:
                    00:d9:c1:06:66:38:62:20:c1:c6:c4:6b:3f:38:4d:
                    c4:5f:1b:64:01:59:0d:6a:22:33:b9:82:cc:52:f7:
                    27:80:76:e7:85:f7:91:37:79:25:8d:2d:e2:a4:8e:
                    c9:c1:5d:d6:05:c7:79:9e:ed:76:b0:ae:83:99:8a:
                    03:05:86:5e:dd:c2:9e:51:65:92:d5:e1:bb:a8:41:
                    b7:81:27:de:9e:1b:50:5d:d4:99:9d:4b:7d:36:46:
                    c8:16:b2:29:dc:61:ed:be:ca:c1:35:f8:e8:47:26:
                    59:82:a4:e1:f2:bd:ff:06:b2:4b:fe:51:c6:92:10:
                    3f:35:61:c5:ad:41:fa:a9:e9:2e:c8:43:8f:9c:ef:
                    09:51:05:df:a7:03:be:57:c1:ad:ad:8c:01:36:23:
                    7a:bb:d6:07:bd:de:df:6d:86:ca:b7:ba:7a:e1:03:
                    ec:a7:42:e6:f6:a2:62:a1:0c:74:d3:43:d8:bc:13:
                    dd:3d:72:fb:45:a0:54:7f:2b:41:59:7a:1a:fd:ec:
                    ed:ca:92:5f:98:9d:bf:07:ed:8f:35:0f:60:4f:62:
                    0d:ee:2d:aa:d3:d2:44:af:89:c7:ad:97:5b:a2:23:
                    08:9f:85:3f:1b:48:0a:f4:b5:2d:76:8a:78:d6:0f:
                    28:57:72:bb:b7:1f:00:e1:f7:0a:93:89:33:0f:7d:
                    9e:32:5c:48:ae:cb:fd:50:0e:09:58:a6:8c:e9:f9:
                    e6:6e:d2:fb:21:71:32:05:97:70:88:c7:d7:60:31:
                    e1:9d:2f:68:44:23:e6:fe:10:56:1f:1f:b8:8e:bf:
                    ae:63:81:dc:89:b3:f2:38:b5:b4:f6:ef:5a:11:fd:
                    79:69:ca:40:34:76:6b:ac:34:d8:6b:60:56:9c:6a:
                    85:03:b4:d6:ad:a6:44:68:8e:4d:14:84:84:d4:ae:
                    e2:04:49:3a:3a:08:44:3b:d1:82:bb:48:f1:97:40:
                    ea:7f:04:48:99:4d:88:12:57:ad:fa:e5:04:61:8b:
                    7a:24:99:1d:f7:e6:d7:9b:cf:21:d7:df:3f:50:b3:
                    74:5f:62:34:ae:d3:04:a3:25:23:97:ab:37:de:46:
                    31:8b:3d:7f:df:7e:72:b0:f8:cd:e3:7b:09:5a:ae:
                    8d:da:9b:29:a0:07:11:ea:5d:5e:be:89:a1:ba:33:
                    4b:32:e0:15:45:91:5b:93:fe:9d:b1:ad:0b:ad:b1:
                    db:f8:c7:a4:1b:17:b9:18:5b:c3:1b:30:d8:e4:97:
                    ea:15:40:78:12:23:b5:b8:33:ac:58:3d:b0:e8:6e:
                    fc:8b:81:ea:54:1b:ad:ac:46:24:22:77:17:d3:05:
                    55:46:f8:6f:38:ce:61:63:6e:0a:16:5c:bf:f8:f4:
                    b0:d8:0f
                Exponent: 65537 (0x10001)
        X509v3 extensions:
            X509v3 Basic Constraints: 
                CA:FALSE
            Netscape Comment: 
                Easy-RSA Generated Certificate
            X509v3 Subject Key Identifier: 
                BB:E3:10:2F:95:E8:4B:EC:72:87:67:A6:98:C9:23:08:41:FE:EB:DA
            X509v3 Authority Key Identifier: 
                keyid:12:CD:60:04:D2:A0:80:9E:70:ED:C6:99:B8:7B:2C:C6:52:FD:19:A1
                DirName:/C=US/ST=OH/L=Columbus/O=VikingVPN/OU=MyOrganizationalUnit/CN=VikingVPN CA/name=EasyRSA/emailAddress=me@myhost.mydomain
                serial:CF:35:85:EE:80:BF:2A:3E

            X509v3 Extended Key Usage: 
                TLS Web Client Authentication
            X509v3 Key Usage: 
                Digital Signature
    Signature Algorithm: sha256WithRSAEncryption
         6d:c5:47:a7:a8:ed:e7:54:37:ee:b7:e7:0e:68:a4:cb:88:46:
         ae:95:e5:c6:98:1e:28:9d:75:75:5c:3e:c7:32:dd:81:98:14:
         eb:70:9d:e4:33:d3:41:6c:ca:b2:09:35:2d:34:25:28:d0:f5:
         6c:2b:0a:72:69:a8:07:7b:4f:79:1b:a9:a2:80:a9:7b:b5:5b:
         d8:66:9f:a6:76:7b:af:f1:68:33:63:e2:b7:57:10:1e:1a:1f:
         36:fc:83:50:68:b9:90:7d:5b:73:f0:f5:48:78:cd:89:a2:9d:
         9c:ac:72:29:35:8f:d4:7c:22:5d:68:7f:bd:fe:44:9d:07:5e:
         29:b6:82:44:c1:8c:cd:fc:55:a1:b0:fb:ce:a1:64:26:28:d9:
         2e:69:78:df:ff:21:47:b8:62:81:b0:46:c8:56:12:b0:10:bd:
         23:e0:96:85:a3:73:3e:13:4c:ec:cc:20:c2:46:ca:c4:bf:63:
         90:5c:32:8d:1a:5a:42:bc:f1:dd:9b:3b:f4:a8:12:b2:3e:ef:
         39:62:e1:15:f0:77:b9:c0:45:d6:97:08:9d:87:8b:f0:10:9c:
         a3:9a:f3:37:e5:92:63:12:94:f0:ef:cf:c0:c3:b5:c1:82:b8:
         7d:6a:ec:0e:38:7f:69:bc:9f:fd:c5:4d:67:69:15:5f:dd:d8:
         05:b9:08:56:47:fc:35:0d:1a:20:b3:4b:8c:41:92:75:30:02:
         52:1a:99:c3:9b:c2:be:0a:5e:2f:f3:1c:d1:9b:83:d1:c0:0b:
         cf:6c:7c:19:aa:9c:99:23:89:82:95:da:42:9d:f3:c6:5d:8a:
         e7:24:e9:e0:0a:ee:10:b2:01:98:13:e8:b6:77:eb:c7:31:25:
         6d:b3:8f:33:d3:d3:a5:26:df:59:4a:e5:dd:43:82:4f:35:89:
         63:de:7e:dd:88:47:3b:d7:7b:25:09:87:14:e7:4b:a5:b6:95:
         b3:fe:c5:1b:88:3b:11:af:fb:d0:fa:79:1f:0e:3d:26:de:87:
         ff:11:81:e5:fc:a8:4e:73:ff:12:72:9b:be:cd:a5:2b:a9:f7:
         93:8c:5b:2a:7d:1c:b2:03:8f:3d:17:d2:72:a8:76:77:f6:7d:
         47:70:86:ef:96:a1:5a:e8:00:6e:ba:c4:05:72:a2:a4:7e:84:
         5d:d5:68:9e:4c:89:2e:8c:27:4d:90:ad:d0:3d:7c:55:7d:d5:
         a2:2e:2f:b3:cb:d7:6f:65:ad:63:04:45:d5:d9:56:3a:4f:e7:
         32:08:54:87:10:88:6b:ce:d4:83:e3:31:0a:38:00:64:ae:8d:
         e4:ce:62:51:46:be:4b:c3:25:47:7b:1c:83:0d:65:15:58:65:
         01:23:c4:48:68:2f:3a:b7
-----BEGIN CERTIFICATE-----
MIIGrTCCBJWgAwIBAgICI98wDQYJKoZIhvcNAQELBQAwgawxCzAJBgNVBAYTAlVT
MQswCQYDVQQIEwJPSDERMA8GA1UEBxMIQ29sdW1idXMxEjAQBgNVBAoTCVZpa2lu
Z1ZQTjEdMBsGA1UECxMUTXlPcmdhbml6YXRpb25hbFVuaXQxFTATBgNVBAMTDFZp
a2luZ1ZQTiBDQTEQMA4GA1UEKRMHRWFzeVJTQTEhMB8GCSqGSIb3DQEJARYSbWVA
bXlob3N0Lm15ZG9tYWluMB4XDTE2MTAwNjE5MjM0NVoXDTI2MTAwNDE5MjM0NVow
HzEdMBsGA1UEAxMUQ2xpZW50MjUyOUNlcnQ4ZTg0MzAwggIiMA0GCSqGSIb3DQEB
AQUAA4ICDwAwggIKAoICAQDZwQZmOGIgwcbEaz84TcRfG2QBWQ1qIjO5gsxS9yeA
dueF95E3eSWNLeKkjsnBXdYFx3me7XawroOZigMFhl7dwp5RZZLV4buoQbeBJ96e
G1Bd1JmdS302RsgWsincYe2+ysE1+OhHJlmCpOHyvf8Gskv+UcaSED81YcWtQfqp
6S7IQ4+c7wlRBd+nA75Xwa2tjAE2I3q71ge93t9thsq3unrhA+ynQub2omKhDHTT
Q9i8E909cvtFoFR/K0FZehr97O3Kkl+Ynb8H7Y81D2BPYg3uLarT0kSvicetl1ui
IwifhT8bSAr0tS12injWDyhXcru3HwDh9wqTiTMPfZ4yXEiuy/1QDglYpozp+eZu
0vshcTIFl3CIx9dgMeGdL2hEI+b+EFYfH7iOv65jgdyJs/I4tbT271oR/XlpykA0
dmusNNhrYFacaoUDtNatpkRojk0UhITUruIESTo6CEQ70YK7SPGXQOp/BEiZTYgS
V6365QRhi3okmR335tebzyHX3z9Qs3RfYjSu0wSjJSOXqzfeRjGLPX/ffnKw+M3j
ewlaro3amymgBxHqXV6+iaG6M0sy4BVFkVuT/p2xrQutsdv4x6QbF7kYW8MbMNjk
l+oVQHgSI7W4M6xYPbDobvyLgepUG62sRiQidxfTBVVG+G84zmFjbgoWXL/49LDY
DwIDAQABo4IBYzCCAV8wCQYDVR0TBAIwADAtBglghkgBhvhCAQ0EIBYeRWFzeS1S
U0EgR2VuZXJhdGVkIENlcnRpZmljYXRlMB0GA1UdDgQWBBS74xAvlehL7HKHZ6aY
ySMIQf7r2jCB4QYDVR0jBIHZMIHWgBQSzWAE0qCAnnDtxpm4eyzGUv0ZoaGBsqSB
rzCBrDELMAkGA1UEBhMCVVMxCzAJBgNVBAgTAk9IMREwDwYDVQQHEwhDb2x1bWJ1
czESMBAGA1UEChMJVmlraW5nVlBOMR0wGwYDVQQLExRNeU9yZ2FuaXphdGlvbmFs
VW5pdDEVMBMGA1UEAxMMVmlraW5nVlBOIENBMRAwDgYDVQQpEwdFYXN5UlNBMSEw
HwYJKoZIhvcNAQkBFhJtZUBteWhvc3QubXlkb21haW6CCQDPNYXugL8qPjATBgNV
HSUEDDAKBggrBgEFBQcDAjALBgNVHQ8EBAMCB4AwDQYJKoZIhvcNAQELBQADggIB
AG3FR6eo7edUN+635w5opMuIRq6V5caYHiiddXVcPscy3YGYFOtwneQz00FsyrIJ
NS00JSjQ9WwrCnJpqAd7T3kbqaKAqXu1W9hmn6Z2e6/xaDNj4rdXEB4aHzb8g1Bo
uZB9W3Pw9Uh4zYminZyscik1j9R8Il1of73+RJ0HXim2gkTBjM38VaGw+86hZCYo
2S5peN//IUe4YoGwRshWErAQvSPgloWjcz4TTOzMIMJGysS/Y5BcMo0aWkK88d2b
O/SoErI+7zli4RXwd7nARdaXCJ2Hi/AQnKOa8zflkmMSlPDvz8DDtcGCuH1q7A44
f2m8n/3FTWdpFV/d2AW5CFZH/DUNGiCzS4xBknUwAlIamcObwr4KXi/zHNGbg9HA
C89sfBmqnJkjiYKV2kKd88Zdiuck6eAK7hCyAZgT6LZ368cxJW2zjzPT06Um31lK
5d1Dgk81iWPeft2IRzvXeyUJhxTnS6W2lbP+xRuIOxGv+9D6eR8OPSbeh/8RgeX8
qE5z/xJym77NpSup95OMWyp9HLIDjz0X0nKodnf2fUdwhu+WoVroAG66xAVyoqR+
hF3VaJ5MiS6MJ02QrdA9fFV91aIuL7PL129lrWMERdXZVjpP5zIIVIcQiGvO1IPj
MQo4AGSujeTOYlFGvkvDJUd7HIMNZRVYZQEjxEhoLzq3
-----END CERTIFICATE-----
