Certificate:
    Data:
        Version: 3 (0x2)
        Serial Number: 9189 (0x23e5)
    Signature Algorithm: sha256WithRSAEncryption
        Issuer: C=US, ST=OH, L=Columbus, O=VikingVPN, OU=MyOrganizationalUnit, CN=VikingVPN CA/name=EasyRSA/emailAddress=me@myhost.mydomain
        Validity
            Not Before: Oct  7 18:47:28 2016 GMT
            Not After : Oct  5 18:47:28 2026 GMT
        Subject: CN=Client1736Certdd098a
        Subject Public Key Info:
            Public Key Algorithm: rsaEncryption
                Public-Key: (4096 bit)
                Modulus:
                    00:b4:ec:33:50:0f:47:72:3d:26:ca:de:d5:48:a4:
                    0d:2c:86:1a:f8:86:78:8c:56:36:aa:3e:2e:61:e4:
                    97:33:51:56:40:0c:fd:bf:07:93:22:a2:7a:14:52:
                    80:fb:15:81:21:6d:47:01:df:ec:a9:c1:bc:a9:b6:
                    54:08:cb:94:2a:66:e3:60:25:0d:22:1b:5b:33:e8:
                    41:ec:9f:2f:4f:6f:f6:4e:34:89:3e:cf:93:a2:5a:
                    f6:54:56:fd:51:aa:e1:d8:b4:7f:37:f3:98:8c:64:
                    20:20:3c:12:eb:b3:07:b5:57:39:a7:b4:8c:9e:b5:
                    f6:40:d0:75:ca:0e:5e:df:ff:67:84:1f:0b:b6:43:
                    18:be:38:f0:db:ec:1d:72:86:c2:d7:73:8d:56:0d:
                    e7:a3:9e:03:6d:30:1a:58:d0:cc:d7:8f:1a:11:11:
                    9d:7a:14:6c:a6:f5:a7:0b:38:18:b0:6d:5c:75:62:
                    27:f9:20:30:4d:ae:93:ad:f9:bf:a2:2c:65:5b:a5:
                    a6:54:45:4c:a5:56:4e:cb:fa:dd:ee:af:e9:3e:51:
                    54:eb:dc:e4:c8:bc:47:89:02:01:e5:42:88:3e:ea:
                    35:bd:7b:a8:b3:51:fd:6d:93:2b:85:ca:bc:4d:67:
                    92:f2:36:3d:65:89:24:cb:52:50:26:13:b3:ea:4b:
                    52:6e:d8:b3:56:97:30:49:93:2a:15:d6:c8:af:30:
                    63:81:86:83:5d:74:9c:d4:85:10:05:51:2b:39:82:
                    e1:a7:0a:21:c1:7e:4f:6a:68:0a:65:52:78:ac:bd:
                    87:8c:b0:b0:fa:31:6d:a4:9c:e7:ee:86:0f:8f:e5:
                    55:b9:4a:5e:59:7c:18:b6:8d:86:89:5e:4e:6f:3d:
                    7c:4d:ea:7e:2c:f2:9a:84:78:67:fd:f3:81:5c:0a:
                    e4:4c:53:e2:ab:4d:0f:d9:d9:c9:09:40:50:f2:03:
                    e3:f5:f0:bb:0c:99:74:76:53:85:6e:05:1e:78:df:
                    f3:60:82:f8:27:aa:70:df:2d:2a:ff:2f:d1:7a:38:
                    09:8a:ba:dd:d9:01:99:6e:39:0d:28:25:77:b4:72:
                    88:74:b1:db:2f:5a:8e:48:81:46:69:94:c1:8f:92:
                    b6:99:a3:2f:9a:22:34:87:19:0e:64:92:a6:ef:90:
                    15:24:ea:bb:fe:b4:d3:66:eb:3b:c2:94:24:1b:c9:
                    03:3e:a2:f4:dc:a8:db:5d:d9:29:e7:fe:68:e8:8c:
                    0a:62:5b:8a:4c:70:4d:b8:a9:ba:33:94:f5:67:74:
                    51:71:c5:20:ac:d8:22:4c:b6:5e:f8:b4:75:dd:12:
                    fc:da:3b:e0:58:a2:d7:f0:a2:95:3a:45:6f:a1:7e:
                    63:1e:37
                Exponent: 65537 (0x10001)
        X509v3 extensions:
            X509v3 Basic Constraints: 
                CA:FALSE
            Netscape Comment: 
                Easy-RSA Generated Certificate
            X509v3 Subject Key Identifier: 
                B7:E7:64:CC:4F:CD:6C:3A:B3:A4:63:EE:F9:00:69:1E:7E:06:13:7E
            X509v3 Authority Key Identifier: 
                keyid:12:CD:60:04:D2:A0:80:9E:70:ED:C6:99:B8:7B:2C:C6:52:FD:19:A1
                DirName:/C=US/ST=OH/L=Columbus/O=VikingVPN/OU=MyOrganizationalUnit/CN=VikingVPN CA/name=EasyRSA/emailAddress=me@myhost.mydomain
                serial:CF:35:85:EE:80:BF:2A:3E

            X509v3 Extended Key Usage: 
                TLS Web Client Authentication
            X509v3 Key Usage: 
                Digital Signature
    Signature Algorithm: sha256WithRSAEncryption
         bf:01:15:22:a4:cc:bb:61:f9:e6:ca:cb:d7:c2:24:d2:57:b3:
         d0:b3:6b:fc:9f:65:db:15:fd:c4:b6:8f:77:d7:c9:de:b6:a4:
         c4:81:e8:54:fa:d1:6d:b9:9a:27:b6:ad:8a:a4:7a:b6:ac:17:
         0a:28:8d:8f:97:cf:03:30:9a:09:5c:da:af:55:10:14:d8:bc:
         1b:00:4a:08:2f:a0:c9:fe:7e:a4:a7:8f:6e:ff:96:09:21:db:
         9b:ae:db:0a:06:05:08:e7:e0:19:1d:02:84:81:c9:1a:91:ad:
         99:34:3a:32:f8:f0:d8:a4:1d:d4:e6:5b:89:f2:80:bc:ad:e1:
         a5:b6:f6:a7:e2:b0:57:04:af:76:54:4b:7c:15:cc:05:d3:d7:
         52:5a:29:8f:85:39:10:6e:bf:b2:b9:67:b9:51:56:c2:58:19:
         5c:a4:29:71:3a:60:6f:ca:25:67:a2:9f:86:11:0b:b2:be:d2:
         9c:3f:fb:d7:6b:bc:0e:21:8d:2c:61:6d:45:7a:49:19:13:d0:
         a1:6f:6f:45:20:10:ba:e5:4a:e7:79:e5:91:4e:6e:4a:e7:7e:
         f9:e8:f3:3b:3f:9b:63:7a:5c:79:79:a1:4c:0b:f2:86:6f:e5:
         34:40:22:57:92:6c:06:ae:44:5b:4f:05:94:d2:d8:ac:7d:20:
         8a:17:77:14:de:08:91:0a:51:b2:47:30:71:ca:ca:9f:27:8e:
         62:c4:5d:b9:d8:c4:21:76:7a:f0:97:cd:aa:bd:ab:96:ae:fa:
         1d:27:a1:cc:f4:a6:bc:2c:20:06:07:5c:c1:56:d6:1b:f7:22:
         a7:30:dd:13:6a:1c:e5:c7:b8:32:a2:ba:01:96:98:08:f5:2e:
         9c:56:5e:4c:01:5c:ab:58:2f:e2:76:ce:55:86:4f:4b:fa:96:
         f5:ca:3b:eb:fa:ff:84:18:60:33:37:0d:d9:73:0a:67:5f:f6:
         4d:72:ec:5a:31:80:84:0e:05:39:96:dc:b2:9f:88:fa:c2:33:
         da:04:83:ea:45:eb:90:6a:98:88:ea:67:e3:e5:d3:42:93:33:
         0f:18:4a:55:f6:0b:93:f1:96:f2:12:20:4a:cc:0c:35:06:a8:
         23:ac:0c:b9:ab:71:5d:2f:8e:16:1f:23:a3:c4:63:fc:6f:c4:
         6a:37:60:5e:c6:1f:05:88:0a:53:d4:32:29:d9:f4:ec:80:7f:
         09:18:b5:e2:7f:94:cc:9a:21:39:ce:e7:41:c7:63:28:b2:22:
         c2:24:ab:08:6b:55:c7:eb:4d:5d:7d:92:d4:a8:04:77:ef:36:
         65:3e:7a:50:eb:bf:ef:68:36:12:c6:ae:65:6e:a7:d5:31:4d:
         4f:48:92:ef:39:52:8a:df
-----BEGIN CERTIFICATE-----
MIIGrTCCBJWgAwIBAgICI+UwDQYJKoZIhvcNAQELBQAwgawxCzAJBgNVBAYTAlVT
MQswCQYDVQQIEwJPSDERMA8GA1UEBxMIQ29sdW1idXMxEjAQBgNVBAoTCVZpa2lu
Z1ZQTjEdMBsGA1UECxMUTXlPcmdhbml6YXRpb25hbFVuaXQxFTATBgNVBAMTDFZp
a2luZ1ZQTiBDQTEQMA4GA1UEKRMHRWFzeVJTQTEhMB8GCSqGSIb3DQEJARYSbWVA
bXlob3N0Lm15ZG9tYWluMB4XDTE2MTAwNzE4NDcyOFoXDTI2MTAwNTE4NDcyOFow
HzEdMBsGA1UEAxMUQ2xpZW50MTczNkNlcnRkZDA5OGEwggIiMA0GCSqGSIb3DQEB
AQUAA4ICDwAwggIKAoICAQC07DNQD0dyPSbK3tVIpA0shhr4hniMVjaqPi5h5Jcz
UVZADP2/B5MionoUUoD7FYEhbUcB3+ypwbyptlQIy5QqZuNgJQ0iG1sz6EHsny9P
b/ZONIk+z5OiWvZUVv1RquHYtH8385iMZCAgPBLrswe1VzmntIyetfZA0HXKDl7f
/2eEHwu2Qxi+OPDb7B1yhsLXc41WDeejngNtMBpY0MzXjxoREZ16FGym9acLOBiw
bVx1Yif5IDBNrpOt+b+iLGVbpaZURUylVk7L+t3ur+k+UVTr3OTIvEeJAgHlQog+
6jW9e6izUf1tkyuFyrxNZ5LyNj1liSTLUlAmE7PqS1Ju2LNWlzBJkyoV1sivMGOB
hoNddJzUhRAFUSs5guGnCiHBfk9qaAplUnisvYeMsLD6MW2knOfuhg+P5VW5Sl5Z
fBi2jYaJXk5vPXxN6n4s8pqEeGf984FcCuRMU+KrTQ/Z2ckJQFDyA+P18LsMmXR2
U4VuBR543/NggvgnqnDfLSr/L9F6OAmKut3ZAZluOQ0oJXe0coh0sdsvWo5IgUZp
lMGPkraZoy+aIjSHGQ5kkqbvkBUk6rv+tNNm6zvClCQbyQM+ovTcqNtd2Snn/mjo
jApiW4pMcE24qbozlPVndFFxxSCs2CJMtl74tHXdEvzaO+BYotfwopU6RW+hfmMe
NwIDAQABo4IBYzCCAV8wCQYDVR0TBAIwADAtBglghkgBhvhCAQ0EIBYeRWFzeS1S
U0EgR2VuZXJhdGVkIENlcnRpZmljYXRlMB0GA1UdDgQWBBS352TMT81sOrOkY+75
AGkefgYTfjCB4QYDVR0jBIHZMIHWgBQSzWAE0qCAnnDtxpm4eyzGUv0ZoaGBsqSB
rzCBrDELMAkGA1UEBhMCVVMxCzAJBgNVBAgTAk9IMREwDwYDVQQHEwhDb2x1bWJ1
czESMBAGA1UEChMJVmlraW5nVlBOMR0wGwYDVQQLExRNeU9yZ2FuaXphdGlvbmFs
VW5pdDEVMBMGA1UEAxMMVmlraW5nVlBOIENBMRAwDgYDVQQpEwdFYXN5UlNBMSEw
HwYJKoZIhvcNAQkBFhJtZUBteWhvc3QubXlkb21haW6CCQDPNYXugL8qPjATBgNV
HSUEDDAKBggrBgEFBQcDAjALBgNVHQ8EBAMCB4AwDQYJKoZIhvcNAQELBQADggIB
AL8BFSKkzLth+ebKy9fCJNJXs9Cza/yfZdsV/cS2j3fXyd62pMSB6FT60W25mie2
rYqkerasFwoojY+XzwMwmglc2q9VEBTYvBsASggvoMn+fqSnj27/lgkh25uu2woG
BQjn4BkdAoSByRqRrZk0OjL48NikHdTmW4nygLyt4aW29qfisFcEr3ZUS3wVzAXT
11JaKY+FORBuv7K5Z7lRVsJYGVykKXE6YG/KJWein4YRC7K+0pw/+9drvA4hjSxh
bUV6SRkT0KFvb0UgELrlSud55ZFObkrnfvno8zs/m2N6XHl5oUwL8oZv5TRAIleS
bAauRFtPBZTS2Kx9IIoXdxTeCJEKUbJHMHHKyp8njmLEXbnYxCF2evCXzaq9q5au
+h0nocz0prwsIAYHXMFW1hv3Iqcw3RNqHOXHuDKiugGWmAj1LpxWXkwBXKtYL+J2
zlWGT0v6lvXKO+v6/4QYYDM3DdlzCmdf9k1y7FoxgIQOBTmW3LKfiPrCM9oEg+pF
65BqmIjqZ+Pl00KTMw8YSlX2C5PxlvISIErMDDUGqCOsDLmrcV0vjhYfI6PEY/xv
xGo3YF7GHwWIClPUMinZ9OyAfwkYteJ/lMyaITnO50HHYyiyIsIkqwhrVcfrTV19
ktSoBHfvNmU+elDrv+9oNhLGrmVup9UxTU9Iku85Uorf
-----END CERTIFICATE-----
