Certificate:
    Data:
        Version: 3 (0x2)
        Serial Number: 9229 (0x240d)
    Signature Algorithm: sha256WithRSAEncryption
        Issuer: C=US, ST=OH, L=Columbus, O=VikingVPN, OU=MyOrganizationalUnit, CN=VikingVPN CA/name=EasyRSA/emailAddress=me@myhost.mydomain
        Validity
            Not Before: Oct 13 02:51:30 2016 GMT
            Not After : Oct 11 02:51:30 2026 GMT
        Subject: CN=Client2370Cert38a14f
        Subject Public Key Info:
            Public Key Algorithm: rsaEncryption
                Public-Key: (4096 bit)
                Modulus:
                    00:b3:40:f0:b5:0d:27:96:fe:9d:d6:b9:04:44:b7:
                    ee:f6:98:fc:57:c9:08:4b:cf:75:a9:2e:a9:1d:99:
                    2a:89:92:b8:86:8b:65:09:2c:4c:20:32:83:43:b8:
                    46:8f:d9:3e:80:51:be:6c:98:0b:bd:7e:d6:81:a3:
                    57:7b:21:71:75:41:9e:33:a5:69:d5:8b:d2:62:39:
                    ef:7e:9e:91:76:e4:c3:34:71:cb:b3:e6:ee:74:f1:
                    1a:de:79:b7:72:5b:98:5b:43:dd:b1:3c:8c:52:fb:
                    27:31:71:f5:f1:47:11:f6:c6:07:15:e4:ad:51:32:
                    48:4f:5f:41:d4:31:ef:7d:73:99:e5:66:aa:31:43:
                    53:6d:af:6e:46:38:62:ca:dd:a4:1c:15:b6:80:cd:
                    9d:11:8d:01:9d:89:01:5c:af:6d:ee:16:04:78:a9:
                    fa:e9:60:ee:f5:39:6d:a2:b5:58:84:d4:85:76:1b:
                    bf:53:1f:e7:10:44:af:6e:34:06:e1:88:39:b4:0c:
                    40:23:37:c4:f2:4a:25:fb:17:2b:56:0b:b0:bd:ce:
                    1a:8a:cc:31:5b:cc:e0:49:f1:88:65:cf:46:24:6d:
                    70:2f:46:b0:64:1f:ca:6f:4b:2f:62:12:88:74:b8:
                    8a:2e:2e:76:a9:5d:93:e6:76:7f:6b:17:e0:c5:0f:
                    5f:f9:50:27:c4:24:e6:7a:ff:ec:cf:d3:20:5d:e7:
                    1b:50:20:b9:94:5b:f4:26:ae:71:dc:c0:ae:0d:b7:
                    6c:9d:4b:be:2c:c6:d2:7a:c2:d6:c0:10:77:99:02:
                    bf:fc:90:6c:0e:a5:8d:40:37:b1:2c:bf:c6:7d:be:
                    f5:db:96:f3:7b:d0:0e:58:f8:df:f5:12:38:19:14:
                    70:84:0d:b9:dc:80:42:ee:c5:68:1c:79:e2:9e:00:
                    87:f8:6c:c4:42:dd:d6:3f:6f:dd:39:ab:49:d4:bc:
                    a5:d0:8d:89:ea:74:97:ff:3b:7e:20:33:ee:95:0a:
                    44:cd:f3:8d:e9:ca:4e:16:25:51:4c:5a:74:01:c4:
                    d5:42:97:d5:04:ee:08:a4:44:4c:61:8a:c6:5d:03:
                    22:8f:97:f6:52:a8:fd:f4:70:52:0f:08:77:05:80:
                    e4:5b:58:14:a5:3e:d4:2b:f2:c4:50:19:3f:50:62:
                    15:85:c3:5e:0d:db:93:fd:c2:e6:37:e2:75:69:f5:
                    b5:df:ec:58:4e:35:2d:f3:78:75:a4:4b:57:48:51:
                    18:13:6f:44:c7:21:0b:35:c1:56:67:99:80:68:dd:
                    94:d0:52:c5:ae:f4:9e:dc:e0:a1:21:bf:6d:9e:b4:
                    78:36:90:ff:7b:8e:29:6a:57:43:4f:ee:f3:36:14:
                    96:83:af
                Exponent: 65537 (0x10001)
        X509v3 extensions:
            X509v3 Basic Constraints: 
                CA:FALSE
            Netscape Comment: 
                Easy-RSA Generated Certificate
            X509v3 Subject Key Identifier: 
                A4:0A:5A:E7:47:E0:FF:93:31:13:33:CD:A7:BC:48:2D:0E:A7:8C:40
            X509v3 Authority Key Identifier: 
                keyid:12:CD:60:04:D2:A0:80:9E:70:ED:C6:99:B8:7B:2C:C6:52:FD:19:A1
                DirName:/C=US/ST=OH/L=Columbus/O=VikingVPN/OU=MyOrganizationalUnit/CN=VikingVPN CA/name=EasyRSA/emailAddress=me@myhost.mydomain
                serial:CF:35:85:EE:80:BF:2A:3E

            X509v3 Extended Key Usage: 
                TLS Web Client Authentication
            X509v3 Key Usage: 
                Digital Signature
    Signature Algorithm: sha256WithRSAEncryption
         df:e2:a6:80:15:d8:9d:22:dc:e3:24:c5:a1:f4:d6:38:cc:88:
         3b:eb:5a:5d:41:ca:9c:49:87:ad:f4:ee:f2:6b:04:63:c8:0f:
         4d:ff:f2:cf:94:28:e8:da:12:b5:35:e6:11:eb:34:b5:71:40:
         b6:41:a7:bb:15:22:a9:9a:32:cf:55:f9:79:fd:dd:80:d2:78:
         7a:2c:87:4f:62:cf:8e:bc:dc:2b:21:ef:81:c8:1c:85:9d:5f:
         3d:69:2c:71:2c:69:91:1f:27:0d:be:fb:46:95:5d:e3:fe:9c:
         bb:df:83:93:04:e7:2c:43:06:54:92:c8:c5:85:58:e6:c0:c2:
         fd:9b:cc:6a:6b:72:71:51:f2:fc:03:a3:03:6b:4b:1d:ae:32:
         ad:30:0d:42:3a:b3:94:31:89:83:5f:af:2c:66:4b:bb:0e:7a:
         0b:f0:73:f2:7f:0c:cf:d7:67:10:76:55:c5:6d:db:3b:7c:78:
         e0:a1:59:5f:59:1c:6d:c3:2d:83:6f:83:2e:05:7c:7a:2a:9b:
         aa:a4:a7:3d:1a:04:ee:e4:63:e4:be:50:2b:9a:ed:a4:44:1e:
         1b:42:f2:2e:59:7c:f0:af:1b:ce:ae:3e:2a:65:87:a0:7d:20:
         c3:ca:ae:37:96:89:0d:1a:66:56:d9:a7:39:91:4b:a9:d7:9c:
         0b:2f:f0:c3:6c:71:d5:ad:14:c2:72:48:e9:cb:17:39:8c:cd:
         88:e5:50:bb:a3:3e:d7:b1:93:52:39:93:4f:05:64:cc:1e:e5:
         2e:fd:ad:3d:72:b5:2a:61:d2:77:a0:41:c5:96:e4:16:7b:a0:
         6f:45:33:1b:95:a2:b0:0c:6f:b5:4d:08:15:51:41:cf:7d:ed:
         9d:5d:0f:22:86:10:75:7c:18:ba:a3:d6:fc:ee:17:31:5e:23:
         c7:f0:50:64:25:a9:8c:4c:c7:3f:0d:e9:07:4c:a2:ef:77:b0:
         41:4c:38:1c:52:37:76:05:be:b1:30:f5:5d:e4:5f:17:d1:7f:
         3f:63:83:5c:64:2b:22:9f:c2:26:04:84:9c:c8:af:47:96:5f:
         aa:98:1e:86:62:b4:55:3d:9c:5e:65:2e:a9:72:50:2f:86:a9:
         a7:fd:c5:36:89:e1:e8:6f:3b:ed:3e:a1:a3:34:6b:9f:21:6c:
         ce:76:43:6b:ce:e6:1e:d7:e0:f6:0e:cb:44:33:88:2d:83:fd:
         05:e3:2e:7c:f9:05:1c:1c:5d:70:65:ae:38:bd:92:13:08:1a:
         25:11:96:86:62:d8:7c:b5:a7:fb:2d:3c:9b:d5:24:99:ef:c7:
         6e:54:1a:f1:58:60:38:33:f2:d7:1b:02:ff:e0:f1:9c:e3:8e:
         f7:7c:21:9b:ad:40:4f:b8
-----BEGIN CERTIFICATE-----
MIIGrTCCBJWgAwIBAgICJA0wDQYJKoZIhvcNAQELBQAwgawxCzAJBgNVBAYTAlVT
MQswCQYDVQQIEwJPSDERMA8GA1UEBxMIQ29sdW1idXMxEjAQBgNVBAoTCVZpa2lu
Z1ZQTjEdMBsGA1UECxMUTXlPcmdhbml6YXRpb25hbFVuaXQxFTATBgNVBAMTDFZp
a2luZ1ZQTiBDQTEQMA4GA1UEKRMHRWFzeVJTQTEhMB8GCSqGSIb3DQEJARYSbWVA
bXlob3N0Lm15ZG9tYWluMB4XDTE2MTAxMzAyNTEzMFoXDTI2MTAxMTAyNTEzMFow
HzEdMBsGA1UEAxMUQ2xpZW50MjM3MENlcnQzOGExNGYwggIiMA0GCSqGSIb3DQEB
AQUAA4ICDwAwggIKAoICAQCzQPC1DSeW/p3WuQREt+72mPxXyQhLz3WpLqkdmSqJ
kriGi2UJLEwgMoNDuEaP2T6AUb5smAu9ftaBo1d7IXF1QZ4zpWnVi9JiOe9+npF2
5MM0ccuz5u508RreebdyW5hbQ92xPIxS+ycxcfXxRxH2xgcV5K1RMkhPX0HUMe99
c5nlZqoxQ1Ntr25GOGLK3aQcFbaAzZ0RjQGdiQFcr23uFgR4qfrpYO71OW2itViE
1IV2G79TH+cQRK9uNAbhiDm0DEAjN8TySiX7FytWC7C9zhqKzDFbzOBJ8Yhlz0Yk
bXAvRrBkH8pvSy9iEoh0uIouLnapXZPmdn9rF+DFD1/5UCfEJOZ6/+zP0yBd5xtQ
ILmUW/QmrnHcwK4Nt2ydS74sxtJ6wtbAEHeZAr/8kGwOpY1AN7Esv8Z9vvXblvN7
0A5Y+N/1EjgZFHCEDbncgELuxWgceeKeAIf4bMRC3dY/b905q0nUvKXQjYnqdJf/
O34gM+6VCkTN843pyk4WJVFMWnQBxNVCl9UE7gikRExhisZdAyKPl/ZSqP30cFIP
CHcFgORbWBSlPtQr8sRQGT9QYhWFw14N25P9wuY34nVp9bXf7FhONS3zeHWkS1dI
URgTb0THIQs1wVZnmYBo3ZTQUsWu9J7c4KEhv22etHg2kP97jilqV0NP7vM2FJaD
rwIDAQABo4IBYzCCAV8wCQYDVR0TBAIwADAtBglghkgBhvhCAQ0EIBYeRWFzeS1S
U0EgR2VuZXJhdGVkIENlcnRpZmljYXRlMB0GA1UdDgQWBBSkClrnR+D/kzETM82n
vEgtDqeMQDCB4QYDVR0jBIHZMIHWgBQSzWAE0qCAnnDtxpm4eyzGUv0ZoaGBsqSB
rzCBrDELMAkGA1UEBhMCVVMxCzAJBgNVBAgTAk9IMREwDwYDVQQHEwhDb2x1bWJ1
czESMBAGA1UEChMJVmlraW5nVlBOMR0wGwYDVQQLExRNeU9yZ2FuaXphdGlvbmFs
VW5pdDEVMBMGA1UEAxMMVmlraW5nVlBOIENBMRAwDgYDVQQpEwdFYXN5UlNBMSEw
HwYJKoZIhvcNAQkBFhJtZUBteWhvc3QubXlkb21haW6CCQDPNYXugL8qPjATBgNV
HSUEDDAKBggrBgEFBQcDAjALBgNVHQ8EBAMCB4AwDQYJKoZIhvcNAQELBQADggIB
AN/ipoAV2J0i3OMkxaH01jjMiDvrWl1BypxJh6307vJrBGPID03/8s+UKOjaErU1
5hHrNLVxQLZBp7sVIqmaMs9V+Xn93YDSeHosh09iz4683Csh74HIHIWdXz1pLHEs
aZEfJw2++0aVXeP+nLvfg5ME5yxDBlSSyMWFWObAwv2bzGprcnFR8vwDowNrSx2u
Mq0wDUI6s5QxiYNfryxmS7sOegvwc/J/DM/XZxB2VcVt2zt8eOChWV9ZHG3DLYNv
gy4FfHoqm6qkpz0aBO7kY+S+UCua7aREHhtC8i5ZfPCvG86uPiplh6B9IMPKrjeW
iQ0aZlbZpzmRS6nXnAsv8MNscdWtFMJySOnLFzmMzYjlULujPtexk1I5k08FZMwe
5S79rT1ytSph0negQcWW5BZ7oG9FMxuVorAMb7VNCBVRQc997Z1dDyKGEHV8GLqj
1vzuFzFeI8fwUGQlqYxMxz8N6QdMou93sEFMOBxSN3YFvrEw9V3kXxfRfz9jg1xk
KyKfwiYEhJzIr0eWX6qYHoZitFU9nF5lLqlyUC+Gqaf9xTaJ4ehvO+0+oaM0a58h
bM52Q2vO5h7X4PYOy0QziC2D/QXjLnz5BRwcXXBlrji9khMIGiURloZi2Hy1p/st
PJvVJJnvx25UGvFYYDgz8tcbAv/g8Zzjjvd8IZutQE+4
-----END CERTIFICATE-----
