Certificate:
    Data:
        Version: 3 (0x2)
        Serial Number: 9231 (0x240f)
    Signature Algorithm: sha256WithRSAEncryption
        Issuer: C=US, ST=OH, L=Columbus, O=VikingVPN, OU=MyOrganizationalUnit, CN=VikingVPN CA/name=EasyRSA/emailAddress=me@myhost.mydomain
        Validity
            Not Before: Oct 13 02:52:24 2016 GMT
            Not After : Oct 11 02:52:24 2026 GMT
        Subject: CN=Client2370Certfad949
        Subject Public Key Info:
            Public Key Algorithm: rsaEncryption
                Public-Key: (4096 bit)
                Modulus:
                    00:b8:13:0b:49:13:28:71:f3:32:00:cb:77:65:2e:
                    53:3e:68:93:c3:c1:ce:ea:e3:ef:4a:e9:12:6e:64:
                    21:a6:21:d5:7f:53:32:86:6a:c5:4c:74:80:f5:e5:
                    74:0e:75:bb:3d:7f:db:83:e5:56:d4:95:48:10:fb:
                    89:f2:14:cf:88:c6:95:99:cb:7c:2f:d9:84:91:7f:
                    2c:bd:0c:13:67:13:1c:b2:35:81:bd:a3:47:32:34:
                    c5:0d:64:0d:96:5c:3a:f8:1b:09:ac:69:85:ed:06:
                    87:6f:fc:03:d8:b7:76:f3:3f:02:65:e0:51:cc:be:
                    be:82:0f:c5:2f:6b:d4:8a:b9:26:b6:9c:fc:b8:62:
                    c8:8a:cc:65:b7:45:81:de:3b:71:10:9f:14:30:d4:
                    7f:cb:c4:ad:22:8b:15:05:56:5e:9f:e1:27:cd:fa:
                    6d:65:2f:23:9c:b0:66:88:51:7d:e6:e7:de:fb:aa:
                    f1:b8:0c:2a:16:05:a4:1f:20:c4:d3:a2:52:94:b0:
                    86:b3:37:32:40:9a:a8:4a:21:b8:09:5f:4c:eb:2f:
                    52:b1:59:16:fe:cb:6a:5b:3e:40:ad:87:f1:42:12:
                    51:c1:11:f5:1a:f4:02:54:1d:3d:01:f4:7a:e0:c0:
                    e4:90:c1:e9:3b:5a:da:21:37:e5:ee:2c:41:5a:f1:
                    a7:a9:e1:a7:cd:83:0a:f5:c9:34:41:ac:b9:fe:a3:
                    41:95:9d:3e:ce:8b:7b:d1:cb:f7:5a:2e:73:87:95:
                    f0:38:03:6d:c0:0e:f0:65:ee:a9:03:63:41:12:90:
                    67:f6:d8:2d:71:e7:56:ae:a0:e3:0d:de:c4:0e:16:
                    2a:93:91:66:a3:1e:33:09:9f:cf:99:67:95:b1:24:
                    7a:77:68:e2:c1:bb:a5:ea:bc:2e:63:ed:d3:f5:b3:
                    32:d2:32:6d:b5:d7:05:d8:2c:4f:79:34:43:e2:51:
                    7e:f4:35:86:81:a4:b6:3b:bd:6a:46:ee:ad:30:b7:
                    4d:0c:29:6c:f5:b6:b7:23:51:64:95:d0:b8:60:cd:
                    de:23:aa:51:8c:34:a1:85:27:48:8c:79:cc:9a:71:
                    ba:57:bf:b8:a4:76:ed:37:24:d2:38:0c:d8:42:23:
                    a8:9a:33:87:17:47:3a:e0:62:ca:47:6d:52:d5:d4:
                    54:06:cb:5e:67:62:f1:64:e5:66:8f:41:80:02:19:
                    66:30:d3:f5:3a:f4:e3:c8:4d:7a:53:7c:a7:99:b5:
                    77:57:6a:6e:20:b7:5f:d3:88:a6:ea:d1:37:73:cc:
                    a1:c5:a5:45:8b:8e:ca:d3:8b:89:20:4e:c9:e4:50:
                    98:b0:eb:14:a5:ac:15:18:69:9f:76:f5:dd:1e:f6:
                    ab:74:09
                Exponent: 65537 (0x10001)
        X509v3 extensions:
            X509v3 Basic Constraints: 
                CA:FALSE
            Netscape Comment: 
                Easy-RSA Generated Certificate
            X509v3 Subject Key Identifier: 
                E6:AB:BC:AE:1B:23:96:46:AB:2D:AC:0E:5E:21:AE:4A:50:69:0F:27
            X509v3 Authority Key Identifier: 
                keyid:12:CD:60:04:D2:A0:80:9E:70:ED:C6:99:B8:7B:2C:C6:52:FD:19:A1
                DirName:/C=US/ST=OH/L=Columbus/O=VikingVPN/OU=MyOrganizationalUnit/CN=VikingVPN CA/name=EasyRSA/emailAddress=me@myhost.mydomain
                serial:CF:35:85:EE:80:BF:2A:3E

            X509v3 Extended Key Usage: 
                TLS Web Client Authentication
            X509v3 Key Usage: 
                Digital Signature
    Signature Algorithm: sha256WithRSAEncryption
         ba:cf:13:f1:e5:52:e9:7c:c8:46:9c:e7:6c:84:46:e3:99:be:
         5f:b7:5c:f6:6d:d0:b5:48:3f:52:86:a5:e1:c2:c3:b8:a9:50:
         bd:bf:82:66:6c:3b:92:70:71:c5:81:e1:48:66:4a:23:d6:1c:
         da:99:f2:38:8c:a3:8f:65:73:f9:2a:b7:6b:02:63:97:f0:d2:
         6a:2e:6d:14:20:e7:85:7e:8b:27:94:5b:e9:98:5e:8c:a6:29:
         e6:4d:1f:fb:92:bb:4b:bb:85:4f:51:f6:34:9c:4f:82:bf:f1:
         fc:5a:23:9a:3d:4d:e6:a6:15:45:fd:e4:4e:c4:dd:99:02:36:
         be:9c:cc:2b:ed:b9:9e:b6:fb:93:81:15:95:c7:c7:b6:c7:79:
         3d:dd:a7:42:59:9d:22:91:5e:f4:6a:d9:c8:5b:7b:67:c5:8d:
         7e:1e:b2:21:42:a3:35:12:a2:f6:38:21:28:3c:12:26:ef:bd:
         d9:42:18:de:09:d0:12:c0:95:50:86:70:b0:e3:f2:d1:54:91:
         2e:9b:61:02:76:9a:24:e1:57:0b:bd:08:fa:87:09:48:79:d1:
         58:f7:d7:87:b7:c2:06:ba:3b:6b:7b:61:96:06:e5:2d:0e:b6:
         7f:7b:2a:c9:78:9d:90:28:6c:cd:68:08:38:07:df:e0:b2:12:
         b6:58:39:0f:f4:96:69:48:e0:84:2a:f4:a0:bc:62:42:ed:e0:
         f6:a5:ed:9b:29:23:a5:6f:d0:7d:3c:cc:49:3d:76:87:f8:a6:
         77:6a:23:4b:f4:15:c5:c3:c6:cd:8a:73:63:ff:2c:0e:b9:65:
         5b:fd:67:48:fd:bd:b5:95:30:92:8b:0e:c7:13:c7:ca:4f:7f:
         7d:02:84:b2:d6:04:b1:24:82:4d:f8:7d:3d:44:31:c0:d4:9d:
         0b:aa:93:bc:cd:e0:0c:d3:ef:2b:2b:c0:7c:12:05:89:7f:05:
         f8:24:d4:8a:df:95:30:ef:28:9f:69:11:93:92:f7:10:a1:6f:
         9f:95:54:dd:cf:95:65:9a:1e:8d:71:a9:91:8b:30:0a:e5:fe:
         19:85:62:64:87:29:65:4a:48:d4:26:6d:f6:9c:ee:a8:61:9e:
         20:b9:87:06:de:6b:af:46:f4:df:fc:20:2e:98:9b:75:ce:ba:
         be:15:97:66:9f:64:8b:ac:5e:af:1e:25:3a:d9:01:6e:f2:c4:
         1a:69:2f:20:6a:0b:ab:02:2a:bb:32:a3:97:92:6e:24:15:c8:
         ff:fa:7f:74:12:6d:67:92:29:d0:36:24:7e:0b:69:f3:0c:f8:
         96:66:96:21:17:ca:c3:66:60:fc:1a:c9:d8:aa:40:6e:a3:db:
         d7:ba:e7:32:88:52:ad:35
-----BEGIN CERTIFICATE-----
MIIGrTCCBJWgAwIBAgICJA8wDQYJKoZIhvcNAQELBQAwgawxCzAJBgNVBAYTAlVT
MQswCQYDVQQIEwJPSDERMA8GA1UEBxMIQ29sdW1idXMxEjAQBgNVBAoTCVZpa2lu
Z1ZQTjEdMBsGA1UECxMUTXlPcmdhbml6YXRpb25hbFVuaXQxFTATBgNVBAMTDFZp
a2luZ1ZQTiBDQTEQMA4GA1UEKRMHRWFzeVJTQTEhMB8GCSqGSIb3DQEJARYSbWVA
bXlob3N0Lm15ZG9tYWluMB4XDTE2MTAxMzAyNTIyNFoXDTI2MTAxMTAyNTIyNFow
HzEdMBsGA1UEAxMUQ2xpZW50MjM3MENlcnRmYWQ5NDkwggIiMA0GCSqGSIb3DQEB
AQUAA4ICDwAwggIKAoICAQC4EwtJEyhx8zIAy3dlLlM+aJPDwc7q4+9K6RJuZCGm
IdV/UzKGasVMdID15XQOdbs9f9uD5VbUlUgQ+4nyFM+IxpWZy3wv2YSRfyy9DBNn
ExyyNYG9o0cyNMUNZA2WXDr4GwmsaYXtBodv/APYt3bzPwJl4FHMvr6CD8Uva9SK
uSa2nPy4YsiKzGW3RYHeO3EQnxQw1H/LxK0iixUFVl6f4SfN+m1lLyOcsGaIUX3m
5977qvG4DCoWBaQfIMTTolKUsIazNzJAmqhKIbgJX0zrL1KxWRb+y2pbPkCth/FC
ElHBEfUa9AJUHT0B9HrgwOSQwek7WtohN+XuLEFa8aep4afNgwr1yTRBrLn+o0GV
nT7Oi3vRy/daLnOHlfA4A23ADvBl7qkDY0ESkGf22C1x51auoOMN3sQOFiqTkWaj
HjMJn8+ZZ5WxJHp3aOLBu6XqvC5j7dP1szLSMm211wXYLE95NEPiUX70NYaBpLY7
vWpG7q0wt00MKWz1trcjUWSV0Lhgzd4jqlGMNKGFJ0iMecyacbpXv7ikdu03JNI4
DNhCI6iaM4cXRzrgYspHbVLV1FQGy15nYvFk5WaPQYACGWYw0/U69OPITXpTfKeZ
tXdXam4gt1/TiKbq0TdzzKHFpUWLjsrTi4kgTsnkUJiw6xSlrBUYaZ929d0e9qt0
CQIDAQABo4IBYzCCAV8wCQYDVR0TBAIwADAtBglghkgBhvhCAQ0EIBYeRWFzeS1S
U0EgR2VuZXJhdGVkIENlcnRpZmljYXRlMB0GA1UdDgQWBBTmq7yuGyOWRqstrA5e
Ia5KUGkPJzCB4QYDVR0jBIHZMIHWgBQSzWAE0qCAnnDtxpm4eyzGUv0ZoaGBsqSB
rzCBrDELMAkGA1UEBhMCVVMxCzAJBgNVBAgTAk9IMREwDwYDVQQHEwhDb2x1bWJ1
czESMBAGA1UEChMJVmlraW5nVlBOMR0wGwYDVQQLExRNeU9yZ2FuaXphdGlvbmFs
VW5pdDEVMBMGA1UEAxMMVmlraW5nVlBOIENBMRAwDgYDVQQpEwdFYXN5UlNBMSEw
HwYJKoZIhvcNAQkBFhJtZUBteWhvc3QubXlkb21haW6CCQDPNYXugL8qPjATBgNV
HSUEDDAKBggrBgEFBQcDAjALBgNVHQ8EBAMCB4AwDQYJKoZIhvcNAQELBQADggIB
ALrPE/HlUul8yEac52yERuOZvl+3XPZt0LVIP1KGpeHCw7ipUL2/gmZsO5JwccWB
4UhmSiPWHNqZ8jiMo49lc/kqt2sCY5fw0moubRQg54V+iyeUW+mYXoymKeZNH/uS
u0u7hU9R9jScT4K/8fxaI5o9TeamFUX95E7E3ZkCNr6czCvtuZ62+5OBFZXHx7bH
eT3dp0JZnSKRXvRq2chbe2fFjX4esiFCozUSovY4ISg8EibvvdlCGN4J0BLAlVCG
cLDj8tFUkS6bYQJ2miThVwu9CPqHCUh50Vj314e3wga6O2t7YZYG5S0Otn97Ksl4
nZAobM1oCDgH3+CyErZYOQ/0lmlI4IQq9KC8YkLt4Pal7ZspI6Vv0H08zEk9dof4
pndqI0v0FcXDxs2Kc2P/LA65ZVv9Z0j9vbWVMJKLDscTx8pPf30ChLLWBLEkgk34
fT1EMcDUnQuqk7zN4AzT7ysrwHwSBYl/Bfgk1IrflTDvKJ9pEZOS9xChb5+VVN3P
lWWaHo1xqZGLMArl/hmFYmSHKWVKSNQmbfac7qhhniC5hwbea69G9N/8IC6Ym3XO
ur4Vl2afZIusXq8eJTrZAW7yxBppLyBqC6sCKrsyo5eSbiQVyP/6f3QSbWeSKdA2
JH4LafMM+JZmliEXysNmYPwaydiqQG6j29e65zKIUq01
-----END CERTIFICATE-----
