Certificate:
    Data:
        Version: 3 (0x2)
        Serial Number: 9232 (0x2410)
    Signature Algorithm: sha256WithRSAEncryption
        Issuer: C=US, ST=OH, L=Columbus, O=VikingVPN, OU=MyOrganizationalUnit, CN=VikingVPN CA/name=EasyRSA/emailAddress=me@myhost.mydomain
        Validity
            Not Before: Oct 13 02:53:42 2016 GMT
            Not After : Oct 11 02:53:42 2026 GMT
        Subject: CN=Client2370Cert8c264c
        Subject Public Key Info:
            Public Key Algorithm: rsaEncryption
                Public-Key: (4096 bit)
                Modulus:
                    00:aa:b9:8c:70:61:36:bb:17:c5:f8:cb:c8:38:d4:
                    ec:af:e2:c2:0d:36:a7:9b:e5:d3:a1:4b:1d:12:41:
                    4e:db:a5:eb:d8:d4:99:7c:07:ef:ad:96:e7:cb:55:
                    6b:08:e7:66:04:0d:80:ba:02:32:e1:9a:49:19:5f:
                    29:ed:75:61:c7:09:3e:34:12:a4:b8:c7:e5:62:d0:
                    c6:1b:24:b4:eb:78:95:57:0c:4a:a9:a8:ef:41:0d:
                    7c:ad:38:06:22:72:0f:5a:b9:ca:ec:a2:40:87:3a:
                    f0:1f:32:2e:bd:cb:bb:c6:33:19:5b:4d:f5:7f:36:
                    bb:70:ff:81:c2:66:e9:a5:5d:40:50:76:90:7f:70:
                    e3:6a:f8:a5:28:f7:17:4b:18:3f:2e:c2:41:89:39:
                    72:d3:38:09:6a:80:46:5b:52:30:91:cd:d6:67:07:
                    3c:4a:7d:ea:a1:f3:8a:04:dd:2d:13:d8:f2:e2:75:
                    a7:98:2b:25:84:1b:c1:b0:ab:0a:70:af:04:fa:33:
                    e9:b5:b0:3b:b0:1d:98:0b:a9:63:fc:90:b0:99:f9:
                    cd:21:dc:a9:80:97:e2:db:ec:3a:d1:fa:46:00:36:
                    70:2e:66:e5:89:9e:60:ea:4e:0b:a3:96:76:1e:a1:
                    a4:44:fd:1e:2f:39:fe:9c:c6:5c:0b:2f:05:4f:1f:
                    f7:cb:1d:62:b3:26:56:00:70:3e:d3:70:7f:7b:ff:
                    78:d0:57:93:d7:99:cb:24:43:5d:0e:9b:32:78:b8:
                    94:d0:fe:38:c5:bf:8f:9b:75:73:75:f9:e4:2b:7f:
                    e0:5a:e4:30:cf:33:13:a1:30:73:6d:80:00:64:01:
                    0d:cc:08:de:3d:a1:f5:f8:8f:d6:c1:8f:c9:86:de:
                    ee:25:b8:57:bc:27:b2:17:41:14:79:ea:57:b8:a0:
                    7d:63:ff:9a:90:f7:7a:96:aa:89:bf:24:fe:4c:71:
                    8c:44:d6:9a:0c:8f:6b:ae:50:75:52:67:41:61:c8:
                    33:7e:2b:89:85:ed:b7:6b:e4:f7:0a:55:04:7d:6d:
                    29:62:69:06:1c:94:d7:43:a7:13:b0:9a:3b:7e:12:
                    97:df:f3:17:bc:37:15:8e:d3:83:1b:92:94:24:4c:
                    53:38:b2:a5:76:72:fe:52:da:12:87:c2:9b:d5:b4:
                    ae:bb:73:b7:27:5d:9d:f7:39:d9:a0:2d:f5:b8:f3:
                    34:7e:59:31:d1:e3:45:77:74:e0:0b:3c:ba:05:20:
                    23:66:e6:b6:78:93:e9:56:d5:0c:c8:25:8a:0c:c5:
                    2a:38:01:55:c1:ca:65:1a:ad:45:f2:7a:fa:35:bb:
                    6e:23:55:5f:e4:c4:be:e5:ba:e3:3c:3b:3c:af:9e:
                    a2:32:2d
                Exponent: 65537 (0x10001)
        X509v3 extensions:
            X509v3 Basic Constraints: 
                CA:FALSE
            Netscape Comment: 
                Easy-RSA Generated Certificate
            X509v3 Subject Key Identifier: 
                DF:12:49:EC:15:49:9D:E2:46:EE:F5:E0:6B:C1:7A:21:5E:AF:74:65
            X509v3 Authority Key Identifier: 
                keyid:12:CD:60:04:D2:A0:80:9E:70:ED:C6:99:B8:7B:2C:C6:52:FD:19:A1
                DirName:/C=US/ST=OH/L=Columbus/O=VikingVPN/OU=MyOrganizationalUnit/CN=VikingVPN CA/name=EasyRSA/emailAddress=me@myhost.mydomain
                serial:CF:35:85:EE:80:BF:2A:3E

            X509v3 Extended Key Usage: 
                TLS Web Client Authentication
            X509v3 Key Usage: 
                Digital Signature
    Signature Algorithm: sha256WithRSAEncryption
         9f:ca:d8:09:99:47:cd:05:2f:0c:ba:f2:d6:22:b0:22:6d:63:
         4b:e2:ca:76:1f:9c:14:b2:b9:f2:8a:f3:f6:08:f6:b2:e5:ad:
         a3:74:9a:57:f8:9f:ea:2c:f7:3b:0c:d1:8b:d9:76:9b:80:d3:
         e7:e9:00:f7:bc:3c:41:ab:4a:db:d4:33:40:c5:5c:b5:15:4a:
         52:59:9d:f7:10:e6:2a:d4:d4:39:96:fd:a5:f0:d1:f7:e3:84:
         b1:4b:9a:a2:7d:de:af:0c:1d:5c:22:24:49:b4:c8:8e:8d:54:
         eb:3e:8b:a2:00:05:b0:8a:b2:73:d3:f6:32:21:df:16:1f:94:
         b1:31:ee:97:22:01:b9:75:4e:78:75:b3:1a:15:a3:88:27:61:
         a3:76:23:4a:1c:65:f9:38:a9:af:87:f1:76:b3:69:56:30:c5:
         09:44:e6:49:c8:fd:58:e5:4f:76:1b:c3:f3:8d:f6:c9:1e:33:
         49:66:d2:29:4a:8b:10:7a:e2:7f:7b:e9:1c:43:27:8a:67:33:
         3b:41:80:ad:e8:b5:14:5f:f3:65:8b:6b:a9:90:9d:d0:be:1f:
         62:b0:12:b9:29:a1:0c:ed:23:91:a7:aa:74:20:a5:6b:7d:5d:
         64:49:36:f7:f6:1a:1a:9d:36:e9:9f:12:84:39:4f:71:83:49:
         ed:68:70:05:65:00:4c:44:df:7c:3f:f8:b6:fd:8e:49:e6:01:
         2a:91:d4:f4:6f:0c:80:23:f0:bd:6c:59:20:7f:1b:f4:f6:a5:
         5e:1c:02:44:ed:c2:d8:0a:81:3c:ea:89:bc:46:5d:cc:0e:93:
         a6:ae:79:c6:ba:6c:b7:af:00:11:79:5d:78:90:1b:44:f0:25:
         f9:80:fe:e6:76:b6:0b:23:fc:1b:08:cf:67:1d:1c:e3:5e:89:
         f8:3d:1e:e0:84:a0:be:c0:19:97:26:94:11:8f:e8:6f:79:88:
         95:a0:d6:fe:c7:db:9f:62:b6:18:e2:12:1b:e8:d8:9f:75:2f:
         b9:cb:33:7a:59:5a:d0:cb:fd:bb:9c:95:7d:91:63:82:c9:50:
         89:d9:97:8f:80:d1:02:aa:89:96:c7:52:93:af:88:bc:dd:53:
         d7:53:0f:93:3a:84:06:6f:98:bb:f8:d2:cc:d2:f7:64:05:2c:
         35:47:a2:78:0f:19:ce:5e:23:e0:13:41:be:7b:b3:3f:31:a9:
         43:a6:5e:a7:fa:26:ad:07:23:90:d7:df:95:39:e8:90:16:a4:
         77:ad:fe:c6:dd:ba:50:c2:f8:44:42:b1:29:f2:8c:7f:a0:5e:
         b4:ca:af:e2:60:38:ad:41:d2:b4:c8:8c:2b:0e:48:6e:d9:2b:
         d4:17:84:65:ed:22:81:c1
-----BEGIN CERTIFICATE-----
MIIGrTCCBJWgAwIBAgICJBAwDQYJKoZIhvcNAQELBQAwgawxCzAJBgNVBAYTAlVT
MQswCQYDVQQIEwJPSDERMA8GA1UEBxMIQ29sdW1idXMxEjAQBgNVBAoTCVZpa2lu
Z1ZQTjEdMBsGA1UECxMUTXlPcmdhbml6YXRpb25hbFVuaXQxFTATBgNVBAMTDFZp
a2luZ1ZQTiBDQTEQMA4GA1UEKRMHRWFzeVJTQTEhMB8GCSqGSIb3DQEJARYSbWVA
bXlob3N0Lm15ZG9tYWluMB4XDTE2MTAxMzAyNTM0MloXDTI2MTAxMTAyNTM0Mlow
HzEdMBsGA1UEAxMUQ2xpZW50MjM3MENlcnQ4YzI2NGMwggIiMA0GCSqGSIb3DQEB
AQUAA4ICDwAwggIKAoICAQCquYxwYTa7F8X4y8g41Oyv4sINNqeb5dOhSx0SQU7b
pevY1Jl8B++tlufLVWsI52YEDYC6AjLhmkkZXyntdWHHCT40EqS4x+Vi0MYbJLTr
eJVXDEqpqO9BDXytOAYicg9aucrsokCHOvAfMi69y7vGMxlbTfV/Nrtw/4HCZuml
XUBQdpB/cONq+KUo9xdLGD8uwkGJOXLTOAlqgEZbUjCRzdZnBzxKfeqh84oE3S0T
2PLidaeYKyWEG8GwqwpwrwT6M+m1sDuwHZgLqWP8kLCZ+c0h3KmAl+Lb7DrR+kYA
NnAuZuWJnmDqTgujlnYeoaRE/R4vOf6cxlwLLwVPH/fLHWKzJlYAcD7TcH97/3jQ
V5PXmcskQ10OmzJ4uJTQ/jjFv4+bdXN1+eQrf+Ba5DDPMxOhMHNtgABkAQ3MCN49
ofX4j9bBj8mG3u4luFe8J7IXQRR56le4oH1j/5qQ93qWqom/JP5McYxE1poMj2uu
UHVSZ0FhyDN+K4mF7bdr5PcKVQR9bSliaQYclNdDpxOwmjt+Epff8xe8NxWO04Mb
kpQkTFM4sqV2cv5S2hKHwpvVtK67c7cnXZ33OdmgLfW48zR+WTHR40V3dOALPLoF
ICNm5rZ4k+lW1QzIJYoMxSo4AVXBymUarUXyevo1u24jVV/kxL7luuM8OzyvnqIy
LQIDAQABo4IBYzCCAV8wCQYDVR0TBAIwADAtBglghkgBhvhCAQ0EIBYeRWFzeS1S
U0EgR2VuZXJhdGVkIENlcnRpZmljYXRlMB0GA1UdDgQWBBTfEknsFUmd4kbu9eBr
wXohXq90ZTCB4QYDVR0jBIHZMIHWgBQSzWAE0qCAnnDtxpm4eyzGUv0ZoaGBsqSB
rzCBrDELMAkGA1UEBhMCVVMxCzAJBgNVBAgTAk9IMREwDwYDVQQHEwhDb2x1bWJ1
czESMBAGA1UEChMJVmlraW5nVlBOMR0wGwYDVQQLExRNeU9yZ2FuaXphdGlvbmFs
VW5pdDEVMBMGA1UEAxMMVmlraW5nVlBOIENBMRAwDgYDVQQpEwdFYXN5UlNBMSEw
HwYJKoZIhvcNAQkBFhJtZUBteWhvc3QubXlkb21haW6CCQDPNYXugL8qPjATBgNV
HSUEDDAKBggrBgEFBQcDAjALBgNVHQ8EBAMCB4AwDQYJKoZIhvcNAQELBQADggIB
AJ/K2AmZR80FLwy68tYisCJtY0viynYfnBSyufKK8/YI9rLlraN0mlf4n+os9zsM
0YvZdpuA0+fpAPe8PEGrStvUM0DFXLUVSlJZnfcQ5irU1DmW/aXw0ffjhLFLmqJ9
3q8MHVwiJEm0yI6NVOs+i6IABbCKsnPT9jIh3xYflLEx7pciAbl1Tnh1sxoVo4gn
YaN2I0ocZfk4qa+H8XazaVYwxQlE5knI/VjlT3Ybw/ON9skeM0lm0ilKixB64n97
6RxDJ4pnMztBgK3otRRf82WLa6mQndC+H2KwErkpoQztI5GnqnQgpWt9XWRJNvf2
GhqdNumfEoQ5T3GDSe1ocAVlAExE33w/+Lb9jknmASqR1PRvDIAj8L1sWSB/G/T2
pV4cAkTtwtgKgTzqibxGXcwOk6aueca6bLevABF5XXiQG0TwJfmA/uZ2tgsj/BsI
z2cdHONeifg9HuCEoL7AGZcmlBGP6G95iJWg1v7H259ithjiEhvo2J91L7nLM3pZ
WtDL/buclX2RY4LJUInZl4+A0QKqiZbHUpOviLzdU9dTD5M6hAZvmLv40szS92QF
LDVHongPGc5eI+ATQb57sz8xqUOmXqf6Jq0HI5DX35U56JAWpHet/sbdulDC+ERC
sSnyjH+gXrTKr+JgOK1B0rTIjCsOSG7ZK9QXhGXtIoHB
-----END CERTIFICATE-----
