Certificate:
    Data:
        Version: 3 (0x2)
        Serial Number: 9248 (0x2420)
    Signature Algorithm: sha256WithRSAEncryption
        Issuer: C=US, ST=OH, L=Columbus, O=VikingVPN, OU=MyOrganizationalUnit, CN=VikingVPN CA/name=EasyRSA/emailAddress=me@myhost.mydomain
        Validity
            Not Before: Oct 15 20:06:41 2016 GMT
            Not After : Oct 13 20:06:41 2026 GMT
        Subject: CN=Client1Certcdc55b
        Subject Public Key Info:
            Public Key Algorithm: rsaEncryption
                Public-Key: (4096 bit)
                Modulus:
                    00:bf:ad:8f:78:48:96:7e:ee:c0:93:e8:19:a5:a0:
                    5e:eb:c2:78:3b:ef:34:88:7e:82:13:c6:f6:9d:62:
                    01:41:46:30:91:58:6e:05:96:e3:e8:ba:0c:c6:df:
                    4a:67:ab:c4:f3:5c:4d:a0:16:33:e6:a3:61:1f:53:
                    02:75:1f:b7:aa:e7:e0:92:f0:e0:52:1c:75:cb:07:
                    fa:75:af:23:4c:69:4f:e5:eb:2a:0c:70:7b:16:7e:
                    cf:e0:7e:bb:0b:1f:d9:e0:af:38:2f:36:a4:1d:bd:
                    ac:c4:2e:75:db:a9:51:65:a1:c8:0f:91:3d:67:1a:
                    bc:df:78:52:a7:bb:7d:0f:68:33:00:8f:d2:9d:23:
                    44:73:00:00:e3:f4:f8:63:bb:5d:c0:20:7b:57:02:
                    3c:0f:99:de:b9:d6:c1:be:27:ab:d2:11:d4:5d:27:
                    54:e7:20:0f:cf:36:3f:82:03:96:d5:5d:e9:63:2e:
                    4b:2a:bf:4b:12:94:ee:aa:89:ee:04:ed:1a:e4:c7:
                    db:5c:63:a5:29:db:01:ab:d9:b9:69:f3:fd:2e:c2:
                    85:f9:f9:cf:a1:df:8b:f6:68:4e:fe:ba:93:76:9a:
                    85:b9:f0:3e:c1:b9:b2:af:33:e7:b1:56:9b:05:03:
                    c6:3c:92:20:e7:f5:af:31:08:e3:b6:c0:9a:95:82:
                    2b:72:82:33:5b:f0:c5:57:71:10:63:f5:c1:14:13:
                    7f:20:31:c8:83:ad:48:98:8c:cc:fe:5e:9c:7e:34:
                    6c:8e:53:86:5f:73:98:cf:7b:19:a2:8c:08:1d:e7:
                    4f:76:6a:13:af:76:a5:f6:27:21:5a:60:50:48:29:
                    d0:11:b1:23:cb:dc:b7:d4:29:74:d8:24:8c:f0:67:
                    98:a0:13:07:8d:f4:fc:5f:75:f8:e2:de:30:ab:f4:
                    74:63:39:a0:48:18:71:3c:fb:68:c3:23:da:1c:49:
                    ef:67:22:0a:ff:d6:c8:72:00:3a:b9:8d:7e:5f:e0:
                    42:e5:82:dd:df:f8:40:a0:81:5d:87:dc:c5:b9:05:
                    0e:66:37:73:33:41:35:85:9c:40:33:21:fa:8c:cd:
                    b4:01:21:a4:75:cf:a9:8e:1c:84:f5:de:5d:e0:ad:
                    f9:d2:89:b4:ef:e1:b6:2c:74:ca:19:51:f9:be:d5:
                    5f:9e:79:88:16:0e:e9:b2:46:23:ea:ca:8a:04:23:
                    38:32:bd:38:f6:ab:7f:89:50:85:dd:1a:5d:2d:4f:
                    95:c4:d8:fb:67:ae:53:4b:ea:e5:b8:23:b6:4c:f7:
                    7a:46:33:02:c5:ad:e1:b1:b1:f1:5f:94:80:97:69:
                    20:c8:2c:32:9e:ec:39:bf:76:e6:1f:ab:c1:92:53:
                    61:5d:ad
                Exponent: 65537 (0x10001)
        X509v3 extensions:
            X509v3 Basic Constraints: 
                CA:FALSE
            Netscape Comment: 
                Easy-RSA Generated Certificate
            X509v3 Subject Key Identifier: 
                1B:C4:D9:D2:A0:C7:13:71:4A:E9:2F:C7:F1:18:EC:11:F3:85:4A:3C
            X509v3 Authority Key Identifier: 
                keyid:12:CD:60:04:D2:A0:80:9E:70:ED:C6:99:B8:7B:2C:C6:52:FD:19:A1
                DirName:/C=US/ST=OH/L=Columbus/O=VikingVPN/OU=MyOrganizationalUnit/CN=VikingVPN CA/name=EasyRSA/emailAddress=me@myhost.mydomain
                serial:CF:35:85:EE:80:BF:2A:3E

            X509v3 Extended Key Usage: 
                TLS Web Client Authentication
            X509v3 Key Usage: 
                Digital Signature
    Signature Algorithm: sha256WithRSAEncryption
         99:95:78:8c:f8:71:b6:39:5d:a6:0b:c3:26:df:38:b3:18:bc:
         87:d3:1c:bf:05:77:23:e7:2f:91:0f:f8:1d:0c:ca:92:44:b6:
         83:ac:91:26:5b:c6:0d:05:06:3a:0d:d8:18:d2:33:72:ed:5c:
         b8:13:16:a7:5a:42:63:23:52:16:f9:5e:f8:35:fc:75:2c:a1:
         bb:f9:19:15:3e:fa:64:4b:73:fb:aa:21:eb:8f:5a:d2:aa:ab:
         b1:24:c6:c8:c2:62:0f:71:6e:ad:6f:c1:32:fd:7e:55:37:b9:
         47:72:1a:da:79:3c:39:79:d8:0d:2e:6b:7e:c6:4f:9c:96:b7:
         67:ee:6c:59:7e:45:d4:97:4a:b7:02:73:c8:bf:3b:bd:6a:f7:
         4b:0c:21:1f:18:95:9d:7d:a9:d9:0c:9f:0a:b5:56:77:1b:91:
         d8:23:27:52:0a:ed:dc:da:8a:6d:f2:4d:93:6c:af:6e:b9:f1:
         3b:40:96:91:74:9b:ca:fa:b9:9b:f7:ac:38:66:30:d9:12:94:
         4a:80:e3:9d:f2:53:04:0e:2b:b4:bd:12:4d:5c:ed:7d:40:2f:
         34:10:5d:75:17:af:ed:a9:a3:6e:7c:eb:25:e3:47:48:25:e3:
         dc:80:6f:3a:a5:7e:32:27:d4:5d:b2:54:5a:cc:b2:cc:fc:cc:
         9a:29:d5:b1:8f:c1:7f:49:ce:79:e0:7d:44:78:bb:b5:7d:30:
         a7:f7:1b:70:a5:39:72:32:31:ba:85:13:93:ae:6c:6c:09:30:
         2d:a1:c4:ae:4c:df:47:96:42:bd:e8:38:53:3a:8b:d2:7b:c0:
         74:7d:4e:26:e7:a9:83:64:99:1f:58:ce:3b:0a:4e:2b:59:58:
         1f:34:5f:da:a7:58:46:be:dc:52:a8:4d:ce:b5:bd:88:ee:cf:
         2a:49:18:cd:33:4e:d2:90:fd:e2:49:27:0b:fc:33:68:22:ab:
         02:b6:04:d7:96:b1:03:31:e9:a9:08:20:68:8b:cf:56:54:9f:
         f6:83:5b:d9:e4:84:12:c9:9a:86:11:a4:1f:2a:07:94:c7:2c:
         5c:31:ed:f4:a7:98:dd:b9:eb:b2:b1:6c:5c:e5:0f:d3:8d:55:
         7e:a8:ef:b5:ba:d9:a4:8d:19:97:72:9b:99:a3:a7:1e:a8:73:
         37:21:7a:94:dd:fa:fe:e8:c4:35:ec:de:a3:05:43:6f:96:03:
         9f:fd:f1:b3:74:b7:0b:da:47:a9:17:2f:5b:8d:07:d3:52:1b:
         86:45:dd:a0:bc:88:9c:2c:0e:9f:9e:ec:be:b0:46:29:32:a7:
         21:38:8d:cf:1d:2e:f6:b7:49:f7:2b:1b:7f:5d:e7:5d:82:d4:
         84:92:f2:ce:92:6b:8f:3e
-----BEGIN CERTIFICATE-----
MIIGqjCCBJKgAwIBAgICJCAwDQYJKoZIhvcNAQELBQAwgawxCzAJBgNVBAYTAlVT
MQswCQYDVQQIEwJPSDERMA8GA1UEBxMIQ29sdW1idXMxEjAQBgNVBAoTCVZpa2lu
Z1ZQTjEdMBsGA1UECxMUTXlPcmdhbml6YXRpb25hbFVuaXQxFTATBgNVBAMTDFZp
a2luZ1ZQTiBDQTEQMA4GA1UEKRMHRWFzeVJTQTEhMB8GCSqGSIb3DQEJARYSbWVA
bXlob3N0Lm15ZG9tYWluMB4XDTE2MTAxNTIwMDY0MVoXDTI2MTAxMzIwMDY0MVow
HDEaMBgGA1UEAxMRQ2xpZW50MUNlcnRjZGM1NWIwggIiMA0GCSqGSIb3DQEBAQUA
A4ICDwAwggIKAoICAQC/rY94SJZ+7sCT6BmloF7rwng77zSIfoITxvadYgFBRjCR
WG4FluPougzG30pnq8TzXE2gFjPmo2EfUwJ1H7eq5+CS8OBSHHXLB/p1ryNMaU/l
6yoMcHsWfs/gfrsLH9ngrzgvNqQdvazELnXbqVFlocgPkT1nGrzfeFKnu30PaDMA
j9KdI0RzAADj9Phju13AIHtXAjwPmd651sG+J6vSEdRdJ1TnIA/PNj+CA5bVXelj
Lksqv0sSlO6qie4E7Rrkx9tcY6Up2wGr2blp8/0uwoX5+c+h34v2aE7+upN2moW5
8D7BubKvM+exVpsFA8Y8kiDn9a8xCOO2wJqVgitygjNb8MVXcRBj9cEUE38gMciD
rUiYjMz+Xpx+NGyOU4Zfc5jPexmijAgd5092ahOvdqX2JyFaYFBIKdARsSPL3LfU
KXTYJIzwZ5igEweN9Pxfdfji3jCr9HRjOaBIGHE8+2jDI9ocSe9nIgr/1shyADq5
jX5f4ELlgt3f+ECggV2H3MW5BQ5mN3MzQTWFnEAzIfqMzbQBIaR1z6mOHIT13l3g
rfnSibTv4bYsdMoZUfm+1V+eeYgWDumyRiPqyooEIzgyvTj2q3+JUIXdGl0tT5XE
2PtnrlNL6uW4I7ZM93pGMwLFreGxsfFflICXaSDILDKe7Dm/duYfq8GSU2FdrQID
AQABo4IBYzCCAV8wCQYDVR0TBAIwADAtBglghkgBhvhCAQ0EIBYeRWFzeS1SU0Eg
R2VuZXJhdGVkIENlcnRpZmljYXRlMB0GA1UdDgQWBBQbxNnSoMcTcUrpL8fxGOwR
84VKPDCB4QYDVR0jBIHZMIHWgBQSzWAE0qCAnnDtxpm4eyzGUv0ZoaGBsqSBrzCB
rDELMAkGA1UEBhMCVVMxCzAJBgNVBAgTAk9IMREwDwYDVQQHEwhDb2x1bWJ1czES
MBAGA1UEChMJVmlraW5nVlBOMR0wGwYDVQQLExRNeU9yZ2FuaXphdGlvbmFsVW5p
dDEVMBMGA1UEAxMMVmlraW5nVlBOIENBMRAwDgYDVQQpEwdFYXN5UlNBMSEwHwYJ
KoZIhvcNAQkBFhJtZUBteWhvc3QubXlkb21haW6CCQDPNYXugL8qPjATBgNVHSUE
DDAKBggrBgEFBQcDAjALBgNVHQ8EBAMCB4AwDQYJKoZIhvcNAQELBQADggIBAJmV
eIz4cbY5XaYLwybfOLMYvIfTHL8FdyPnL5EP+B0MypJEtoOskSZbxg0FBjoN2BjS
M3LtXLgTFqdaQmMjUhb5Xvg1/HUsobv5GRU++mRLc/uqIeuPWtKqq7EkxsjCYg9x
bq1vwTL9flU3uUdyGtp5PDl52A0ua37GT5yWt2fubFl+RdSXSrcCc8i/O71q90sM
IR8YlZ19qdkMnwq1VncbkdgjJ1IK7dzaim3yTZNsr2658TtAlpF0m8r6uZv3rDhm
MNkSlEqA453yUwQOK7S9Ek1c7X1ALzQQXXUXr+2po2586yXjR0gl49yAbzqlfjIn
1F2yVFrMssz8zJop1bGPwX9JznngfUR4u7V9MKf3G3ClOXIyMbqFE5OubGwJMC2h
xK5M30eWQr3oOFM6i9J7wHR9TibnqYNkmR9YzjsKTitZWB80X9qnWEa+3FKoTc61
vYjuzypJGM0zTtKQ/eJJJwv8M2giqwK2BNeWsQMx6akIIGiLz1ZUn/aDW9nkhBLJ
moYRpB8qB5THLFwx7fSnmN2567KxbFzlD9ONVX6o77W62aSNGZdym5mjpx6oczch
epTd+v7oxDXs3qMFQ2+WA5/98bN0twvaR6kXL1uNB9NSG4ZF3aC8iJwsDp+e7L6w
RikypyE4jc8dLva3SfcrG39d512C1ISS8s6Sa48+
-----END CERTIFICATE-----
