Certificate:
    Data:
        Version: 3 (0x2)
        Serial Number: 9253 (0x2425)
    Signature Algorithm: sha256WithRSAEncryption
        Issuer: C=US, ST=OH, L=Columbus, O=VikingVPN, OU=MyOrganizationalUnit, CN=VikingVPN CA/name=EasyRSA/emailAddress=me@myhost.mydomain
        Validity
            Not Before: Oct 16 15:21:07 2016 GMT
            Not After : Oct 14 15:21:07 2026 GMT
        Subject: CN=Client1785Cert038c86
        Subject Public Key Info:
            Public Key Algorithm: rsaEncryption
                Public-Key: (4096 bit)
                Modulus:
                    00:c8:1b:a0:93:95:13:eb:ce:46:b3:48:77:7e:26:
                    d3:6a:b0:62:fb:f1:41:db:bf:c5:2d:54:f7:1f:32:
                    b0:75:26:6a:9d:d4:29:91:8a:e3:fa:2e:39:9c:74:
                    6b:62:fe:e1:b1:2e:71:0d:83:72:28:7a:89:a6:da:
                    56:c6:61:87:2d:42:8d:6e:e2:a6:60:a2:17:69:39:
                    c4:ab:e1:18:c1:f9:b6:00:6c:97:21:e6:a6:26:76:
                    3d:09:18:aa:89:d6:16:6a:62:59:03:0c:ab:a7:f4:
                    11:bb:68:0b:7b:08:72:10:ee:33:cc:ca:c5:7b:a3:
                    64:ba:6e:36:be:c9:23:bc:06:71:bd:89:ad:16:6c:
                    93:ea:45:0c:52:7f:1c:82:23:66:83:f9:c1:69:4c:
                    ff:d5:b1:3d:e4:cb:cc:54:8c:b7:17:8b:a3:e7:6a:
                    d3:1b:85:3a:29:a5:95:8f:34:e7:bb:a5:af:76:2f:
                    97:d2:af:cf:49:a5:e0:c1:65:1b:73:84:b0:af:1e:
                    21:e8:fc:63:d6:ca:b9:9a:4d:6c:c5:18:81:a3:c6:
                    ca:0c:6e:82:38:9e:f7:67:2e:9a:d0:2e:9d:01:92:
                    44:16:d8:3a:03:ce:49:6d:03:58:6f:7d:b6:75:6b:
                    44:56:6a:b9:ef:35:51:83:90:1a:d1:58:d5:a7:9c:
                    b2:07:59:af:ec:a5:80:32:34:cc:0a:9b:f7:73:6a:
                    4f:56:33:b6:fe:03:06:93:84:b2:7c:ce:4a:56:fd:
                    14:2e:9b:de:e0:8d:3b:70:34:a9:7e:96:90:61:0a:
                    dd:dd:98:4d:a2:bc:bc:53:51:a5:88:de:cc:91:9f:
                    d9:4d:a2:03:25:9c:3e:7b:94:eb:6c:4e:13:70:d7:
                    8e:d4:d5:2b:1b:e2:1c:8d:b8:7c:23:87:d7:aa:3a:
                    2f:26:8d:56:83:6e:9b:b7:7f:a6:cf:20:a5:e9:03:
                    25:15:3d:95:dc:de:02:cc:49:a9:30:dc:e5:c5:bb:
                    ca:10:c8:b0:ec:8e:17:e1:f5:7b:ee:09:2e:45:81:
                    d3:a6:4c:ab:f4:9b:69:27:6c:1c:41:1b:a2:86:40:
                    f9:33:0e:13:3e:43:b4:98:a6:fd:db:f1:17:e8:e1:
                    63:f8:3a:d2:5b:e1:2a:1a:31:aa:12:a9:20:8f:fd:
                    7c:63:3b:5d:ec:d4:a8:4e:f9:59:a7:dc:f4:9d:fe:
                    36:79:48:4d:bf:b4:44:4c:10:14:c7:e0:fd:ca:47:
                    ef:be:40:f1:a4:e3:d4:e3:45:cb:57:bd:6e:d3:3d:
                    43:0e:9c:3d:64:6a:39:db:d3:dc:45:4c:10:9f:30:
                    35:ad:19:ff:e5:07:03:ae:1b:5b:95:fb:c2:fc:01:
                    15:8b:9b
                Exponent: 65537 (0x10001)
        X509v3 extensions:
            X509v3 Basic Constraints: 
                CA:FALSE
            Netscape Comment: 
                Easy-RSA Generated Certificate
            X509v3 Subject Key Identifier: 
                3F:86:A4:F6:16:62:8E:4B:A9:38:44:95:59:A6:17:9D:F3:8D:E8:BF
            X509v3 Authority Key Identifier: 
                keyid:12:CD:60:04:D2:A0:80:9E:70:ED:C6:99:B8:7B:2C:C6:52:FD:19:A1
                DirName:/C=US/ST=OH/L=Columbus/O=VikingVPN/OU=MyOrganizationalUnit/CN=VikingVPN CA/name=EasyRSA/emailAddress=me@myhost.mydomain
                serial:CF:35:85:EE:80:BF:2A:3E

            X509v3 Extended Key Usage: 
                TLS Web Client Authentication
            X509v3 Key Usage: 
                Digital Signature
    Signature Algorithm: sha256WithRSAEncryption
         77:55:1d:a7:86:21:3e:90:f4:43:b8:7e:f1:ed:ab:53:e0:51:
         d9:07:bb:a9:35:15:78:6e:b8:01:96:67:6e:97:9c:c2:25:3d:
         08:e2:d7:5b:af:e1:12:7a:65:95:8a:da:b4:03:a9:45:ab:4d:
         fa:24:7a:58:53:2d:2e:83:0b:5e:53:23:26:40:01:90:0e:41:
         cb:cb:e8:b7:85:31:bd:74:31:e3:4d:b9:17:d4:4a:72:40:ea:
         33:84:1b:10:9b:72:d6:c1:28:25:44:ec:92:70:9e:e6:92:24:
         15:24:83:2e:16:e2:3e:fb:10:87:97:54:2a:b5:4e:0b:69:09:
         31:8d:5a:b8:48:51:d3:d0:18:b1:7a:e7:46:61:b9:6f:bd:a5:
         fb:a3:c8:be:98:88:b3:a6:1c:21:22:6b:10:31:d6:f1:71:64:
         01:36:e5:f3:dc:ff:ee:12:64:e4:e1:e2:89:51:33:6b:14:c0:
         68:d6:56:ce:2d:50:71:5f:d4:cd:d5:11:1e:1c:9c:02:69:e4:
         8b:25:8c:f5:04:20:70:f9:d7:71:b6:e2:a9:28:fe:44:74:e5:
         f4:84:fc:93:6d:27:9f:81:56:16:5f:b3:4b:5c:dd:62:46:cf:
         09:4c:13:4f:b6:34:3d:a2:d2:0f:54:1c:55:d7:27:25:80:a0:
         41:7a:4e:56:68:99:10:81:6c:b6:e6:a2:be:fc:f1:49:0e:00:
         5d:70:b2:33:28:a7:3f:43:e2:35:ac:45:22:b6:3b:b6:c0:d0:
         67:40:a0:61:8f:b3:e8:83:fc:8e:3d:c9:d4:57:9d:16:c3:81:
         51:95:41:3e:5c:5e:d9:a1:9a:2e:bf:1c:20:a5:aa:2e:10:74:
         ac:0d:d9:4e:db:97:8d:04:c2:51:18:9f:52:ab:5c:32:a1:73:
         54:57:3c:bd:7e:21:19:e4:ec:41:3d:3d:3a:20:07:c4:51:5d:
         6e:26:89:14:6d:9d:ea:50:58:72:05:b6:30:fa:cd:ca:f3:f7:
         c1:ee:f1:2f:80:38:9c:7e:e3:90:f5:b3:d5:39:1e:a7:93:6d:
         22:ac:91:72:05:73:14:ce:5c:c8:df:30:c8:31:50:6c:72:d2:
         15:4f:31:01:76:27:8e:38:02:61:e5:db:dc:83:b0:4a:3b:9a:
         f0:74:6a:62:d3:f8:24:94:0b:42:98:ff:3e:11:b9:c3:43:2f:
         0f:b0:45:30:0b:1a:55:da:13:8a:48:b3:2b:2c:fd:13:50:95:
         ab:1a:cd:df:7d:87:16:e2:8c:5c:f0:ea:5b:a6:fc:96:f5:08:
         59:71:f4:cf:83:31:d0:6c:bb:50:61:b0:ae:c9:48:14:18:93:
         99:8e:29:c6:c6:50:71:c2
-----BEGIN CERTIFICATE-----
MIIGrTCCBJWgAwIBAgICJCUwDQYJKoZIhvcNAQELBQAwgawxCzAJBgNVBAYTAlVT
MQswCQYDVQQIEwJPSDERMA8GA1UEBxMIQ29sdW1idXMxEjAQBgNVBAoTCVZpa2lu
Z1ZQTjEdMBsGA1UECxMUTXlPcmdhbml6YXRpb25hbFVuaXQxFTATBgNVBAMTDFZp
a2luZ1ZQTiBDQTEQMA4GA1UEKRMHRWFzeVJTQTEhMB8GCSqGSIb3DQEJARYSbWVA
bXlob3N0Lm15ZG9tYWluMB4XDTE2MTAxNjE1MjEwN1oXDTI2MTAxNDE1MjEwN1ow
HzEdMBsGA1UEAxMUQ2xpZW50MTc4NUNlcnQwMzhjODYwggIiMA0GCSqGSIb3DQEB
AQUAA4ICDwAwggIKAoICAQDIG6CTlRPrzkazSHd+JtNqsGL78UHbv8UtVPcfMrB1
Jmqd1CmRiuP6LjmcdGti/uGxLnENg3Ioeomm2lbGYYctQo1u4qZgohdpOcSr4RjB
+bYAbJch5qYmdj0JGKqJ1hZqYlkDDKun9BG7aAt7CHIQ7jPMysV7o2S6bja+ySO8
BnG9ia0WbJPqRQxSfxyCI2aD+cFpTP/VsT3ky8xUjLcXi6PnatMbhToppZWPNOe7
pa92L5fSr89JpeDBZRtzhLCvHiHo/GPWyrmaTWzFGIGjxsoMboI4nvdnLprQLp0B
kkQW2DoDzkltA1hvfbZ1a0RWarnvNVGDkBrRWNWnnLIHWa/spYAyNMwKm/dzak9W
M7b+AwaThLJ8zkpW/RQum97gjTtwNKl+lpBhCt3dmE2ivLxTUaWI3syRn9lNogMl
nD57lOtsThNw147U1Ssb4hyNuHwjh9eqOi8mjVaDbpu3f6bPIKXpAyUVPZXc3gLM
Sakw3OXFu8oQyLDsjhfh9XvuCS5FgdOmTKv0m2knbBxBG6KGQPkzDhM+Q7SYpv3b
8Rfo4WP4OtJb4SoaMaoSqSCP/XxjO13s1KhO+Vmn3PSd/jZ5SE2/tERMEBTH4P3K
R+++QPGk49TjRctXvW7TPUMOnD1kajnb09xFTBCfMDWtGf/lBwOuG1uV+8L8ARWL
mwIDAQABo4IBYzCCAV8wCQYDVR0TBAIwADAtBglghkgBhvhCAQ0EIBYeRWFzeS1S
U0EgR2VuZXJhdGVkIENlcnRpZmljYXRlMB0GA1UdDgQWBBQ/hqT2FmKOS6k4RJVZ
phed843ovzCB4QYDVR0jBIHZMIHWgBQSzWAE0qCAnnDtxpm4eyzGUv0ZoaGBsqSB
rzCBrDELMAkGA1UEBhMCVVMxCzAJBgNVBAgTAk9IMREwDwYDVQQHEwhDb2x1bWJ1
czESMBAGA1UEChMJVmlraW5nVlBOMR0wGwYDVQQLExRNeU9yZ2FuaXphdGlvbmFs
VW5pdDEVMBMGA1UEAxMMVmlraW5nVlBOIENBMRAwDgYDVQQpEwdFYXN5UlNBMSEw
HwYJKoZIhvcNAQkBFhJtZUBteWhvc3QubXlkb21haW6CCQDPNYXugL8qPjATBgNV
HSUEDDAKBggrBgEFBQcDAjALBgNVHQ8EBAMCB4AwDQYJKoZIhvcNAQELBQADggIB
AHdVHaeGIT6Q9EO4fvHtq1PgUdkHu6k1FXhuuAGWZ26XnMIlPQji11uv4RJ6ZZWK
2rQDqUWrTfokelhTLS6DC15TIyZAAZAOQcvL6LeFMb10MeNNuRfUSnJA6jOEGxCb
ctbBKCVE7JJwnuaSJBUkgy4W4j77EIeXVCq1TgtpCTGNWrhIUdPQGLF650ZhuW+9
pfujyL6YiLOmHCEiaxAx1vFxZAE25fPc/+4SZOTh4olRM2sUwGjWVs4tUHFf1M3V
ER4cnAJp5IsljPUEIHD513G24qko/kR05fSE/JNtJ5+BVhZfs0tc3WJGzwlME0+2
ND2i0g9UHFXXJyWAoEF6TlZomRCBbLbmor788UkOAF1wsjMopz9D4jWsRSK2O7bA
0GdAoGGPs+iD/I49ydRXnRbDgVGVQT5cXtmhmi6/HCClqi4QdKwN2U7bl40EwlEY
n1KrXDKhc1RXPL1+IRnk7EE9PTogB8RRXW4miRRtnepQWHIFtjD6zcrz98Hu8S+A
OJx+45D1s9U5HqeTbSKskXIFcxTOXMjfMMgxUGxy0hVPMQF2J444AmHl29yDsEo7
mvB0amLT+CSUC0KY/z4RucNDLw+wRTALGlXaE4pIsyss/RNQlasazd99hxbijFzw
6lum/Jb1CFlx9M+DMdBsu1BhsK7JSBQYk5mOKcbGUHHC
-----END CERTIFICATE-----
