Certificate:
    Data:
        Version: 3 (0x2)
        Serial Number: 9255 (0x2427)
    Signature Algorithm: sha256WithRSAEncryption
        Issuer: C=US, ST=OH, L=Columbus, O=VikingVPN, OU=MyOrganizationalUnit, CN=VikingVPN CA/name=EasyRSA/emailAddress=me@myhost.mydomain
        Validity
            Not Before: Oct 16 21:04:32 2016 GMT
            Not After : Oct 14 21:04:32 2026 GMT
        Subject: CN=Client2540Cert0876cc
        Subject Public Key Info:
            Public Key Algorithm: rsaEncryption
                Public-Key: (4096 bit)
                Modulus:
                    00:c0:1a:65:47:39:dc:58:1a:58:c3:39:6f:f7:2d:
                    8b:fa:c6:22:5c:23:6a:d7:16:c6:6f:83:e9:c0:eb:
                    7e:be:2d:dd:b2:ca:34:3e:39:46:ab:41:d0:f9:0f:
                    c0:e4:21:a6:80:ca:48:6d:c1:03:ee:e9:dd:9c:b2:
                    a4:8c:b7:12:4c:b6:ec:45:05:1f:4a:53:d1:2e:09:
                    31:17:7d:65:7e:7c:cb:ca:49:fe:52:fb:8f:21:e6:
                    0c:fe:06:a8:30:6f:89:1d:53:d0:83:4e:66:21:bc:
                    43:96:09:8a:cb:6d:32:ba:8e:4c:eb:0a:ae:21:c0:
                    f0:d3:a1:08:2e:87:d3:3a:8d:2d:ab:bc:d9:7a:04:
                    c2:d1:b8:e6:b4:3f:aa:cf:db:47:17:ff:6d:db:c3:
                    24:eb:0e:b2:29:31:f1:0a:e4:4a:77:9f:fa:d6:b6:
                    c2:ae:88:93:75:22:d8:b7:f2:e3:24:00:9f:b1:8b:
                    5a:ea:55:ee:3b:c3:e2:be:55:09:25:b7:25:0f:51:
                    f7:6f:4c:ec:fc:68:88:70:27:e2:56:dd:95:56:b6:
                    90:05:3b:8a:56:2b:c6:0a:5b:83:7d:57:4d:d0:47:
                    a0:5d:3f:0f:18:93:f0:d2:fb:68:e6:c3:10:f2:2c:
                    50:8a:aa:de:b8:89:7d:84:ee:d8:3e:ff:ad:12:eb:
                    83:63:70:a9:e5:be:f1:b2:d9:40:9c:12:c3:06:a5:
                    9f:0d:4e:9e:63:cc:f8:1e:05:6e:d2:8f:f3:11:fa:
                    60:17:74:6a:c6:45:fa:1b:0c:58:89:35:4e:34:a1:
                    11:45:1b:fc:ac:d9:54:d5:bb:0d:2c:43:a6:c8:66:
                    dc:22:5b:f4:28:0b:04:08:2b:b5:11:13:cd:55:2b:
                    5b:c7:b2:8c:19:9a:bc:5b:90:0e:3a:ab:40:81:0c:
                    a1:87:f3:0a:87:83:17:ec:86:ac:82:fe:6b:19:a8:
                    ff:f2:97:b2:ad:a5:a0:58:71:44:f1:5d:2e:4e:e5:
                    8f:8c:6c:d4:ee:ce:6e:bf:40:82:0b:12:e1:ca:cc:
                    5d:1b:81:b3:02:72:6e:3f:74:4a:e9:7f:d5:35:37:
                    2c:6f:35:36:e7:8b:1f:0b:69:10:6d:c9:1b:2d:e2:
                    34:fa:52:ae:af:e4:63:6f:55:91:e1:cc:8b:2d:df:
                    ef:c3:73:0a:76:8a:0c:9c:90:b5:9f:9b:65:75:60:
                    a2:1a:94:fa:20:88:3f:6d:78:26:31:b9:8b:10:82:
                    ad:04:6a:aa:01:61:ea:00:60:2b:84:8a:74:d7:51:
                    30:3c:1e:d1:fe:10:d5:7c:2b:a4:8f:2e:f3:8a:b5:
                    f8:65:47:cf:e3:e8:49:24:7c:9e:59:6a:3a:fc:f5:
                    15:23:85
                Exponent: 65537 (0x10001)
        X509v3 extensions:
            X509v3 Basic Constraints: 
                CA:FALSE
            Netscape Comment: 
                Easy-RSA Generated Certificate
            X509v3 Subject Key Identifier: 
                AD:A9:8A:01:CF:1C:95:F3:51:7C:68:37:0A:6E:F6:90:6A:A4:FE:62
            X509v3 Authority Key Identifier: 
                keyid:12:CD:60:04:D2:A0:80:9E:70:ED:C6:99:B8:7B:2C:C6:52:FD:19:A1
                DirName:/C=US/ST=OH/L=Columbus/O=VikingVPN/OU=MyOrganizationalUnit/CN=VikingVPN CA/name=EasyRSA/emailAddress=me@myhost.mydomain
                serial:CF:35:85:EE:80:BF:2A:3E

            X509v3 Extended Key Usage: 
                TLS Web Client Authentication
            X509v3 Key Usage: 
                Digital Signature
    Signature Algorithm: sha256WithRSAEncryption
         1f:9d:be:0d:ba:13:04:ed:e1:aa:05:05:7f:75:c3:d0:b3:d3:
         3c:d1:c6:f4:89:f5:0b:58:5e:fd:22:2e:1e:b1:cb:24:c3:1e:
         5d:70:7e:0a:86:3e:02:87:fa:2b:99:f9:6f:9b:ea:17:b5:9b:
         a1:7d:93:e2:a5:3e:21:3f:73:b9:a2:d2:55:89:6b:7d:98:3c:
         70:59:2d:e2:e7:d2:b7:93:a1:ba:7d:f3:4d:e6:00:a4:3d:ca:
         aa:09:45:08:cd:41:a3:1f:98:86:f0:05:33:d6:36:84:05:6b:
         16:45:d4:98:10:83:c6:fb:37:ef:7b:e9:d9:4e:5c:c5:cb:97:
         d4:85:1c:37:fd:25:91:ce:5a:9f:95:b8:9c:c1:70:cf:b0:4e:
         a8:eb:bc:fd:d6:13:1d:11:84:6b:35:f7:9d:98:64:00:79:7d:
         5e:a6:87:f1:e2:8f:ad:ea:29:cb:6d:56:9d:bb:41:b9:2b:66:
         87:8e:cb:8d:a6:b6:52:a0:3a:2e:7b:b4:92:31:ba:05:36:e8:
         28:0b:4f:1b:f0:b0:a5:7c:91:df:6a:d6:29:56:8c:18:e5:79:
         78:d3:d8:a4:d8:19:d7:99:98:15:00:0e:61:f8:18:6b:51:47:
         5f:38:4f:ab:dd:0c:05:ff:90:88:02:d1:d1:72:8f:3c:5c:9d:
         d3:90:fe:19:5c:25:77:8b:91:6d:aa:34:9c:0a:0e:45:ba:da:
         48:04:ea:c8:0e:94:0d:74:03:34:2b:8f:ea:eb:7b:48:60:6b:
         6d:54:42:78:62:ba:e6:80:0c:45:e2:8a:eb:a3:ac:6b:29:c6:
         05:60:02:26:b3:88:b5:a5:f2:19:0b:ae:50:7f:06:17:74:4a:
         10:44:68:d8:0f:b4:e8:6d:e3:51:1b:96:30:2c:db:3c:0b:d3:
         e6:b5:12:ff:84:e9:b7:d0:9f:b2:85:b2:ab:d3:5b:21:45:47:
         e2:2a:02:3e:51:ca:58:1c:85:cf:e5:af:0e:04:12:23:d0:7f:
         1e:8f:24:eb:78:b2:9f:80:f2:14:fd:b7:62:80:3e:e8:8a:38:
         e8:7a:1e:30:20:a4:fd:ba:e2:0d:08:4f:c6:7b:0a:dc:e6:34:
         17:fb:4d:b8:cf:8d:37:a7:5b:83:c4:81:39:69:59:c4:4e:65:
         08:6f:06:f5:23:ac:8d:29:4a:54:5c:7d:9b:bd:49:8f:c0:a4:
         26:96:86:3e:d0:ee:e9:f0:69:dd:87:b2:c1:9c:7f:55:70:f2:
         f2:f6:1b:b3:a7:ae:84:ad:b3:e0:12:04:73:8d:6f:54:4f:56:
         c9:2d:0a:05:54:90:04:cc:ab:0c:73:2c:e4:73:ad:c9:9b:22:
         e7:d6:13:97:ed:b6:76:b0
-----BEGIN CERTIFICATE-----
MIIGrTCCBJWgAwIBAgICJCcwDQYJKoZIhvcNAQELBQAwgawxCzAJBgNVBAYTAlVT
MQswCQYDVQQIEwJPSDERMA8GA1UEBxMIQ29sdW1idXMxEjAQBgNVBAoTCVZpa2lu
Z1ZQTjEdMBsGA1UECxMUTXlPcmdhbml6YXRpb25hbFVuaXQxFTATBgNVBAMTDFZp
a2luZ1ZQTiBDQTEQMA4GA1UEKRMHRWFzeVJTQTEhMB8GCSqGSIb3DQEJARYSbWVA
bXlob3N0Lm15ZG9tYWluMB4XDTE2MTAxNjIxMDQzMloXDTI2MTAxNDIxMDQzMlow
HzEdMBsGA1UEAxMUQ2xpZW50MjU0MENlcnQwODc2Y2MwggIiMA0GCSqGSIb3DQEB
AQUAA4ICDwAwggIKAoICAQDAGmVHOdxYGljDOW/3LYv6xiJcI2rXFsZvg+nA636+
Ld2yyjQ+OUarQdD5D8DkIaaAykhtwQPu6d2csqSMtxJMtuxFBR9KU9EuCTEXfWV+
fMvKSf5S+48h5gz+Bqgwb4kdU9CDTmYhvEOWCYrLbTK6jkzrCq4hwPDToQguh9M6
jS2rvNl6BMLRuOa0P6rP20cX/23bwyTrDrIpMfEK5Ep3n/rWtsKuiJN1Iti38uMk
AJ+xi1rqVe47w+K+VQkltyUPUfdvTOz8aIhwJ+JW3ZVWtpAFO4pWK8YKW4N9V03Q
R6BdPw8Yk/DS+2jmwxDyLFCKqt64iX2E7tg+/60S64NjcKnlvvGy2UCcEsMGpZ8N
Tp5jzPgeBW7Sj/MR+mAXdGrGRfobDFiJNU40oRFFG/ys2VTVuw0sQ6bIZtwiW/Qo
CwQIK7URE81VK1vHsowZmrxbkA46q0CBDKGH8wqHgxfshqyC/msZqP/yl7KtpaBY
cUTxXS5O5Y+MbNTuzm6/QIILEuHKzF0bgbMCcm4/dErpf9U1NyxvNTbnix8LaRBt
yRst4jT6Uq6v5GNvVZHhzIst3+/Dcwp2igyckLWfm2V1YKIalPogiD9teCYxuYsQ
gq0EaqoBYeoAYCuEinTXUTA8HtH+ENV8K6SPLvOKtfhlR8/j6EkkfJ5Zajr89RUj
hQIDAQABo4IBYzCCAV8wCQYDVR0TBAIwADAtBglghkgBhvhCAQ0EIBYeRWFzeS1S
U0EgR2VuZXJhdGVkIENlcnRpZmljYXRlMB0GA1UdDgQWBBStqYoBzxyV81F8aDcK
bvaQaqT+YjCB4QYDVR0jBIHZMIHWgBQSzWAE0qCAnnDtxpm4eyzGUv0ZoaGBsqSB
rzCBrDELMAkGA1UEBhMCVVMxCzAJBgNVBAgTAk9IMREwDwYDVQQHEwhDb2x1bWJ1
czESMBAGA1UEChMJVmlraW5nVlBOMR0wGwYDVQQLExRNeU9yZ2FuaXphdGlvbmFs
VW5pdDEVMBMGA1UEAxMMVmlraW5nVlBOIENBMRAwDgYDVQQpEwdFYXN5UlNBMSEw
HwYJKoZIhvcNAQkBFhJtZUBteWhvc3QubXlkb21haW6CCQDPNYXugL8qPjATBgNV
HSUEDDAKBggrBgEFBQcDAjALBgNVHQ8EBAMCB4AwDQYJKoZIhvcNAQELBQADggIB
AB+dvg26EwTt4aoFBX91w9Cz0zzRxvSJ9QtYXv0iLh6xyyTDHl1wfgqGPgKH+iuZ
+W+b6he1m6F9k+KlPiE/c7mi0lWJa32YPHBZLeLn0reTobp9803mAKQ9yqoJRQjN
QaMfmIbwBTPWNoQFaxZF1JgQg8b7N+976dlOXMXLl9SFHDf9JZHOWp+VuJzBcM+w
TqjrvP3WEx0RhGs1952YZAB5fV6mh/Hij63qKcttVp27QbkrZoeOy42mtlKgOi57
tJIxugU26CgLTxvwsKV8kd9q1ilWjBjleXjT2KTYGdeZmBUADmH4GGtRR184T6vd
DAX/kIgC0dFyjzxcndOQ/hlcJXeLkW2qNJwKDkW62kgE6sgOlA10AzQrj+rre0hg
a21UQnhiuuaADEXiiuujrGspxgVgAiaziLWl8hkLrlB/Bhd0ShBEaNgPtOht41Eb
ljAs2zwL0+a1Ev+E6bfQn7KFsqvTWyFFR+IqAj5Rylgchc/lrw4EEiPQfx6PJOt4
sp+A8hT9t2KAPuiKOOh6HjAgpP264g0IT8Z7CtzmNBf7TbjPjTenW4PEgTlpWcRO
ZQhvBvUjrI0pSlRcfZu9SY/ApCaWhj7Q7unwad2HssGcf1Vw8vL2G7OnroSts+AS
BHONb1RPVsktCgVUkATMqwxzLORzrcmbIufWE5fttnaw
-----END CERTIFICATE-----
