Certificate:
    Data:
        Version: 3 (0x2)
        Serial Number: 9280 (0x2440)
    Signature Algorithm: sha256WithRSAEncryption
        Issuer: C=US, ST=OH, L=Columbus, O=VikingVPN, OU=MyOrganizationalUnit, CN=VikingVPN CA/name=EasyRSA/emailAddress=me@myhost.mydomain
        Validity
            Not Before: Oct 19 10:46:43 2016 GMT
            Not After : Oct 17 10:46:43 2026 GMT
        Subject: CN=Client1702Certf2cbf8
        Subject Public Key Info:
            Public Key Algorithm: rsaEncryption
                Public-Key: (4096 bit)
                Modulus:
                    00:be:34:e6:ba:8e:74:9a:11:0b:27:0a:d6:e4:6c:
                    44:af:b1:ba:8f:b1:08:07:1b:ef:3b:5b:bb:4a:4c:
                    1a:05:b0:1b:f6:e1:c9:76:38:7b:ab:72:54:ae:22:
                    2e:74:bc:af:60:28:43:f3:91:81:1d:a7:4c:5f:ce:
                    aa:9b:b5:4b:ec:79:10:17:a8:93:40:e2:35:a3:3f:
                    ca:c2:2a:95:a3:24:2e:23:35:80:b4:a5:17:d7:c8:
                    d0:69:88:cc:8d:f1:fb:a3:9c:f5:b9:99:f2:cc:10:
                    7d:f1:35:2c:b7:81:93:79:7a:9a:87:3c:25:9c:2e:
                    0b:63:fa:6c:26:62:9f:8f:11:d4:d6:91:f4:96:c2:
                    cd:69:4b:60:8e:88:2a:8a:26:9b:89:40:fe:53:40:
                    e4:94:16:58:5d:2e:fd:fa:28:0b:ba:04:86:6d:ae:
                    48:b7:ce:fc:0e:15:c9:fb:8a:f0:22:3b:49:e5:a2:
                    63:db:34:9b:c1:a1:83:f6:9c:b0:a4:ce:a5:c2:25:
                    89:52:22:47:d2:8d:79:75:12:d6:1b:1a:78:dd:a3:
                    2f:1f:d3:ca:35:24:7b:bc:f2:22:69:81:5a:31:f9:
                    54:f6:c4:f3:68:fd:3a:af:e0:0b:de:1b:f1:42:9f:
                    d6:c9:a1:93:0b:90:b9:79:ba:18:c4:65:f3:22:a7:
                    dc:a9:9d:ea:3a:d4:91:d7:b5:f9:59:6d:71:c3:9e:
                    31:0b:2e:eb:3a:16:26:8f:b2:2a:70:4c:dd:c6:48:
                    a6:6b:eb:6e:2c:3a:cd:74:81:95:39:ee:d2:16:17:
                    de:ae:8e:49:d4:16:0f:31:13:50:a2:c7:47:db:77:
                    61:d0:3c:cf:4b:02:cd:77:f9:09:b8:dd:04:ba:c8:
                    87:30:c6:29:85:bb:7e:91:2f:8f:38:a8:99:c9:09:
                    90:9e:26:07:54:e6:be:29:d0:47:a9:b4:d2:bc:cb:
                    f4:5c:2f:dc:73:7c:ef:15:ec:86:d2:0a:d9:48:8e:
                    cf:b6:06:63:b5:d5:d4:ea:2f:40:94:db:36:39:d9:
                    8d:bb:87:08:66:04:ed:68:04:60:d5:7c:b2:40:dc:
                    a6:34:1c:23:93:e7:a5:ed:e2:f1:7f:e0:d4:e1:79:
                    3b:f4:91:b5:ef:3f:a1:ff:45:a8:00:1a:98:61:c5:
                    92:a8:d1:c8:0b:c4:c2:6e:b1:19:80:f5:cf:f7:92:
                    57:28:b0:07:17:57:45:b8:7c:07:26:18:58:75:9e:
                    82:2e:22:e7:cd:3d:df:ca:cb:6a:44:37:3c:bd:37:
                    7f:3b:61:0d:86:1a:21:b2:db:ea:f2:39:e3:73:f5:
                    ea:1a:32:e3:2a:2a:fb:26:77:36:a8:62:79:af:e9:
                    32:54:a5
                Exponent: 65537 (0x10001)
        X509v3 extensions:
            X509v3 Basic Constraints: 
                CA:FALSE
            Netscape Comment: 
                Easy-RSA Generated Certificate
            X509v3 Subject Key Identifier: 
                00:AE:D0:EE:23:2A:16:19:50:C2:B4:8D:AD:AE:5C:28:A3:E3:E9:97
            X509v3 Authority Key Identifier: 
                keyid:12:CD:60:04:D2:A0:80:9E:70:ED:C6:99:B8:7B:2C:C6:52:FD:19:A1
                DirName:/C=US/ST=OH/L=Columbus/O=VikingVPN/OU=MyOrganizationalUnit/CN=VikingVPN CA/name=EasyRSA/emailAddress=me@myhost.mydomain
                serial:CF:35:85:EE:80:BF:2A:3E

            X509v3 Extended Key Usage: 
                TLS Web Client Authentication
            X509v3 Key Usage: 
                Digital Signature
    Signature Algorithm: sha256WithRSAEncryption
         9c:2e:67:3e:f4:1c:dd:c6:1b:89:63:de:55:2e:d6:af:41:91:
         c0:0a:53:69:ca:23:77:29:44:4a:8a:5c:d9:08:63:d1:51:a6:
         61:16:26:2d:eb:cd:83:92:9f:63:7c:9b:9a:6a:1a:15:fb:3f:
         f4:8f:46:7b:a0:21:27:ad:db:95:74:bc:42:50:cf:c5:e7:79:
         45:cb:c8:2d:2b:47:4f:89:ae:be:4c:be:22:4e:72:bf:95:09:
         88:a6:91:af:25:ed:16:26:cf:45:d6:45:c6:39:1a:c1:8e:f6:
         41:34:3b:b9:4a:3b:33:c5:87:2c:e5:ab:30:ee:08:e4:f4:8f:
         55:9b:43:4c:08:0c:42:c1:0e:72:d9:62:ee:be:6a:bc:d0:df:
         17:51:33:39:2d:f0:38:b5:7f:aa:c7:63:d6:5b:d1:d4:e3:ea:
         a7:b0:12:4d:64:ca:10:0a:04:8a:61:ab:e6:5e:0f:75:b2:ad:
         fa:5d:89:fc:e3:90:49:79:e2:2c:74:4b:bb:66:c3:5a:5c:a1:
         3c:c5:c6:68:a2:54:cf:ea:84:7a:c8:c9:4c:f1:01:be:e5:c5:
         fe:6f:95:09:2a:dd:48:3d:88:95:ff:00:42:69:8f:77:dd:77:
         25:0c:95:04:1d:81:c7:bb:fd:11:84:46:6d:da:7d:8b:cc:68:
         97:1f:f4:af:61:d5:2b:4b:31:be:ac:d7:0f:bc:5f:53:ec:e6:
         5f:cf:5a:39:a3:b0:c3:d9:c8:b8:60:50:d0:7f:e5:b7:77:cd:
         42:70:7d:17:c2:9e:8a:7f:3f:ca:eb:2a:6d:66:08:7b:25:b6:
         11:24:e3:7f:f9:c9:34:f7:d1:33:70:2a:70:20:87:03:e2:fe:
         80:87:84:16:d3:22:9b:f7:b3:5e:50:4d:8d:15:0c:e1:c6:0f:
         48:47:68:ca:60:73:d9:32:b2:33:6b:46:41:53:21:81:77:c2:
         ec:78:ec:25:86:31:88:c5:78:23:1c:0c:be:01:50:dd:25:06:
         3a:ac:cb:ed:89:82:bb:2c:70:56:61:71:75:c9:a6:19:6b:e2:
         87:4a:02:58:dd:bd:2b:49:8f:5a:fb:69:6e:31:55:80:5d:c6:
         d5:25:7d:be:b7:fe:c1:f4:8b:f8:f7:4a:3a:70:98:20:b7:d2:
         40:1e:7f:26:0c:03:96:bb:8d:44:fd:86:ea:7f:1e:bb:20:4e:
         44:85:57:fb:0c:3b:24:ee:7e:c2:d0:62:88:54:40:56:31:b0:
         a6:35:a0:3d:1c:16:18:e7:03:df:82:31:df:23:b6:51:53:b7:
         5b:cb:bc:5d:4f:36:23:b6:eb:65:81:53:64:a6:e0:43:23:de:
         d4:ad:4e:cf:8c:13:1b:05
-----BEGIN CERTIFICATE-----
MIIGrTCCBJWgAwIBAgICJEAwDQYJKoZIhvcNAQELBQAwgawxCzAJBgNVBAYTAlVT
MQswCQYDVQQIEwJPSDERMA8GA1UEBxMIQ29sdW1idXMxEjAQBgNVBAoTCVZpa2lu
Z1ZQTjEdMBsGA1UECxMUTXlPcmdhbml6YXRpb25hbFVuaXQxFTATBgNVBAMTDFZp
a2luZ1ZQTiBDQTEQMA4GA1UEKRMHRWFzeVJTQTEhMB8GCSqGSIb3DQEJARYSbWVA
bXlob3N0Lm15ZG9tYWluMB4XDTE2MTAxOTEwNDY0M1oXDTI2MTAxNzEwNDY0M1ow
HzEdMBsGA1UEAxMUQ2xpZW50MTcwMkNlcnRmMmNiZjgwggIiMA0GCSqGSIb3DQEB
AQUAA4ICDwAwggIKAoICAQC+NOa6jnSaEQsnCtbkbESvsbqPsQgHG+87W7tKTBoF
sBv24cl2OHurclSuIi50vK9gKEPzkYEdp0xfzqqbtUvseRAXqJNA4jWjP8rCKpWj
JC4jNYC0pRfXyNBpiMyN8fujnPW5mfLMEH3xNSy3gZN5epqHPCWcLgtj+mwmYp+P
EdTWkfSWws1pS2COiCqKJpuJQP5TQOSUFlhdLv36KAu6BIZtrki3zvwOFcn7ivAi
O0nlomPbNJvBoYP2nLCkzqXCJYlSIkfSjXl1EtYbGnjdoy8f08o1JHu88iJpgVox
+VT2xPNo/Tqv4AveG/FCn9bJoZMLkLl5uhjEZfMip9ypneo61JHXtflZbXHDnjEL
Lus6FiaPsipwTN3GSKZr624sOs10gZU57tIWF96ujknUFg8xE1Cix0fbd2HQPM9L
As13+Qm43QS6yIcwximFu36RL484qJnJCZCeJgdU5r4p0EeptNK8y/RcL9xzfO8V
7IbSCtlIjs+2BmO11dTqL0CU2zY52Y27hwhmBO1oBGDVfLJA3KY0HCOT56Xt4vF/
4NTheTv0kbXvP6H/RagAGphhxZKo0cgLxMJusRmA9c/3klcosAcXV0W4fAcmGFh1
noIuIufNPd/Ky2pENzy9N387YQ2GGiGy2+ryOeNz9eoaMuMqKvsmdzaoYnmv6TJU
pQIDAQABo4IBYzCCAV8wCQYDVR0TBAIwADAtBglghkgBhvhCAQ0EIBYeRWFzeS1S
U0EgR2VuZXJhdGVkIENlcnRpZmljYXRlMB0GA1UdDgQWBBQArtDuIyoWGVDCtI2t
rlwoo+PplzCB4QYDVR0jBIHZMIHWgBQSzWAE0qCAnnDtxpm4eyzGUv0ZoaGBsqSB
rzCBrDELMAkGA1UEBhMCVVMxCzAJBgNVBAgTAk9IMREwDwYDVQQHEwhDb2x1bWJ1
czESMBAGA1UEChMJVmlraW5nVlBOMR0wGwYDVQQLExRNeU9yZ2FuaXphdGlvbmFs
VW5pdDEVMBMGA1UEAxMMVmlraW5nVlBOIENBMRAwDgYDVQQpEwdFYXN5UlNBMSEw
HwYJKoZIhvcNAQkBFhJtZUBteWhvc3QubXlkb21haW6CCQDPNYXugL8qPjATBgNV
HSUEDDAKBggrBgEFBQcDAjALBgNVHQ8EBAMCB4AwDQYJKoZIhvcNAQELBQADggIB
AJwuZz70HN3GG4lj3lUu1q9BkcAKU2nKI3cpREqKXNkIY9FRpmEWJi3rzYOSn2N8
m5pqGhX7P/SPRnugISet25V0vEJQz8XneUXLyC0rR0+Jrr5MviJOcr+VCYimka8l
7RYmz0XWRcY5GsGO9kE0O7lKOzPFhyzlqzDuCOT0j1WbQ0wIDELBDnLZYu6+arzQ
3xdRMzkt8Di1f6rHY9Zb0dTj6qewEk1kyhAKBIphq+ZeD3WyrfpdifzjkEl54ix0
S7tmw1pcoTzFxmiiVM/qhHrIyUzxAb7lxf5vlQkq3Ug9iJX/AEJpj3fddyUMlQQd
gce7/RGERm3afYvMaJcf9K9h1StLMb6s1w+8X1Ps5l/PWjmjsMPZyLhgUNB/5bd3
zUJwfRfCnop/P8rrKm1mCHslthEk43/5yTT30TNwKnAghwPi/oCHhBbTIpv3s15Q
TY0VDOHGD0hHaMpgc9kysjNrRkFTIYF3wux47CWGMYjFeCMcDL4BUN0lBjqsy+2J
grsscFZhcXXJphlr4odKAljdvStJj1r7aW4xVYBdxtUlfb63/sH0i/j3SjpwmCC3
0kAefyYMA5a7jUT9hup/HrsgTkSFV/sMOyTufsLQYohUQFYxsKY1oD0cFhjnA9+C
Md8jtlFTt1vLvF1PNiO262WBU2Sm4EMj3tStTs+MExsF
-----END CERTIFICATE-----
