Certificate:
    Data:
        Version: 3 (0x2)
        Serial Number: 9287 (0x2447)
    Signature Algorithm: sha256WithRSAEncryption
        Issuer: C=US, ST=OH, L=Columbus, O=VikingVPN, OU=MyOrganizationalUnit, CN=VikingVPN CA/name=EasyRSA/emailAddress=me@myhost.mydomain
        Validity
            Not Before: Oct 21 14:17:58 2016 GMT
            Not After : Oct 19 14:17:58 2026 GMT
        Subject: CN=Client2544Certe41118
        Subject Public Key Info:
            Public Key Algorithm: rsaEncryption
                Public-Key: (4096 bit)
                Modulus:
                    00:b3:4f:1b:f0:a4:80:e1:05:22:19:03:0c:c6:2c:
                    50:06:de:8d:77:bd:38:f9:a4:b3:32:e9:05:d5:af:
                    dc:26:77:f4:7f:c8:9a:e1:60:e3:99:75:48:9f:0d:
                    00:60:c1:ef:f9:01:9a:81:9a:58:1b:6d:cc:02:4b:
                    9c:84:cb:f6:f8:69:d2:9c:40:69:22:93:87:9d:aa:
                    8b:27:ea:64:c8:26:6a:ca:af:9e:3b:cb:2a:02:ac:
                    5f:31:3d:59:66:58:fb:e1:9d:07:8e:9f:c5:8b:63:
                    a5:db:d6:62:aa:b9:68:f3:0a:2a:36:a3:a7:eb:41:
                    b6:f7:18:d7:72:8b:50:97:bb:64:96:05:e6:09:62:
                    62:21:92:1d:35:c2:ee:6b:79:17:8e:78:7e:af:d3:
                    b4:1c:f9:17:87:02:1e:b3:05:cd:91:d3:89:de:47:
                    47:d4:d8:07:92:16:11:18:3d:74:97:0d:99:80:53:
                    32:fb:f5:6d:6f:f7:bb:33:b7:94:0f:4f:c0:dd:03:
                    01:91:94:a1:a7:68:9f:9c:94:c8:4f:71:07:db:df:
                    2d:a6:f5:a1:96:5e:ae:27:ca:94:45:c9:24:10:3b:
                    5c:3d:29:08:db:e4:51:80:04:90:0f:35:f1:be:5e:
                    0b:a3:a6:37:38:cc:f3:41:df:ae:17:75:e7:00:61:
                    d6:f5:0c:ef:25:46:d9:4d:fd:2f:56:65:ba:44:e3:
                    21:01:9e:bb:23:8a:dc:d7:a1:44:53:56:04:4d:6a:
                    84:31:f6:03:21:67:18:58:8b:4e:0d:ee:9b:45:42:
                    6e:66:a1:b9:31:85:28:1e:f3:fa:fa:f9:15:5a:1b:
                    0d:a7:6c:89:75:31:87:47:e9:1c:56:e0:2f:bf:35:
                    58:7f:92:16:14:5c:9a:d7:aa:0b:9f:6f:03:30:ff:
                    56:db:b8:67:a4:23:2d:e4:a6:1d:02:fe:d4:f1:90:
                    14:7b:39:54:cc:00:c2:d8:96:40:ca:f6:b3:9a:e1:
                    f1:af:12:d1:8b:a6:98:ed:0e:21:bb:34:92:d8:f8:
                    e9:0b:fa:e7:cc:03:cd:1a:4b:98:b1:70:cd:74:1a:
                    51:ac:4b:f6:41:db:6d:1b:a2:ca:23:ef:b9:4a:04:
                    a8:c6:08:c4:b4:bd:93:bd:6d:0a:0c:68:b6:91:a6:
                    87:04:02:fc:0a:4a:85:cc:54:ec:87:eb:c5:0d:55:
                    f9:0a:25:e3:b5:9c:49:12:52:37:5f:c1:f3:11:3d:
                    20:f9:c3:1b:dc:8c:e0:57:4c:3d:0a:c9:13:12:00:
                    fb:ef:7a:d7:77:a5:02:1f:08:2c:2e:84:18:6e:18:
                    aa:9d:58:77:0c:3d:8d:d7:e9:5e:5c:22:e9:e5:7b:
                    92:7f:55
                Exponent: 65537 (0x10001)
        X509v3 extensions:
            X509v3 Basic Constraints: 
                CA:FALSE
            Netscape Comment: 
                Easy-RSA Generated Certificate
            X509v3 Subject Key Identifier: 
                D3:B5:48:C2:D2:B6:2D:54:32:A2:A4:7B:2E:EA:BE:83:A0:CB:2B:7A
            X509v3 Authority Key Identifier: 
                keyid:12:CD:60:04:D2:A0:80:9E:70:ED:C6:99:B8:7B:2C:C6:52:FD:19:A1
                DirName:/C=US/ST=OH/L=Columbus/O=VikingVPN/OU=MyOrganizationalUnit/CN=VikingVPN CA/name=EasyRSA/emailAddress=me@myhost.mydomain
                serial:CF:35:85:EE:80:BF:2A:3E

            X509v3 Extended Key Usage: 
                TLS Web Client Authentication
            X509v3 Key Usage: 
                Digital Signature
    Signature Algorithm: sha256WithRSAEncryption
         19:55:02:d3:5a:17:ce:5e:cb:6e:ce:ed:2e:de:38:c5:6d:d2:
         ad:12:1c:c6:c2:8f:95:92:9b:38:5f:0f:53:72:ae:2e:f0:e6:
         65:12:bb:03:8b:71:9e:5b:a1:34:6f:ac:8f:84:1e:f3:fc:ef:
         4e:bb:5f:71:e2:e7:72:b9:22:19:87:c4:d2:7a:57:de:aa:01:
         35:8f:64:87:15:04:ab:bd:28:cf:73:48:69:da:03:34:41:17:
         44:27:10:40:57:00:f2:9a:c3:be:57:0c:74:41:29:9e:69:e1:
         40:4c:77:15:62:2a:ab:04:8a:e1:a3:32:bd:51:af:56:50:e2:
         27:f5:ea:3c:03:62:99:1f:c1:d6:b7:b4:80:b9:88:31:af:5a:
         2f:b2:a7:ea:30:6f:a2:ee:78:49:f0:c8:43:ff:77:c5:12:7a:
         e5:a1:47:e4:1f:e6:2e:8d:59:7a:be:bd:00:ad:7b:16:0d:1e:
         5d:90:fb:2a:78:03:83:f4:69:bb:29:44:64:aa:98:a5:d9:85:
         79:5a:0a:1e:ad:b8:80:d1:d0:af:8b:00:7f:dd:a5:fd:e4:53:
         d8:b4:cc:81:3e:f6:75:27:d1:d3:23:eb:4a:4c:61:91:72:8e:
         a8:f3:b1:45:15:4a:b6:e0:1c:05:8d:79:ae:89:59:db:d5:e2:
         39:c0:13:a0:cf:3e:fe:9d:b2:56:40:a0:28:8e:0b:dc:83:da:
         f7:2f:9c:19:eb:b6:0b:00:9b:92:62:99:7d:90:bb:18:0f:c2:
         ab:f1:f4:09:f8:4b:cc:1e:6e:31:53:e7:9e:52:be:79:f9:10:
         f9:6b:f5:a9:12:23:8a:4a:58:a2:b0:7e:62:ab:79:7a:67:e2:
         dc:30:4d:b5:b2:90:28:7d:ef:c4:f2:26:06:95:19:65:eb:44:
         f1:5b:4f:18:3b:58:74:67:50:58:d7:64:30:5a:e1:24:6a:9c:
         b0:dc:d5:13:fd:b0:f7:9c:dd:b4:ff:5c:0b:b2:76:e7:d3:81:
         b0:4f:6b:d3:f8:04:4e:c3:d0:03:a6:00:dc:98:ed:c1:fa:1a:
         e2:9e:86:ab:c9:d3:df:0f:99:72:7e:7b:26:54:e1:5c:8c:84:
         e7:19:2b:7c:83:20:cb:9e:3f:df:a0:55:e4:16:91:0c:9a:49:
         41:93:bb:43:39:4b:79:b8:f6:25:23:3e:c4:97:af:c1:85:73:
         ce:fe:7a:52:95:d1:c8:d6:9b:3b:a7:b6:54:fe:6f:d9:94:73:
         a6:ac:d3:c3:82:a9:7d:32:5f:ab:4a:a3:55:ae:72:94:b9:3f:
         2d:0f:8d:d0:58:2c:c2:5d:35:bd:7c:84:ad:c0:c4:3f:63:57:
         f6:3b:ba:33:dd:7c:fc:63
-----BEGIN CERTIFICATE-----
MIIGrTCCBJWgAwIBAgICJEcwDQYJKoZIhvcNAQELBQAwgawxCzAJBgNVBAYTAlVT
MQswCQYDVQQIEwJPSDERMA8GA1UEBxMIQ29sdW1idXMxEjAQBgNVBAoTCVZpa2lu
Z1ZQTjEdMBsGA1UECxMUTXlPcmdhbml6YXRpb25hbFVuaXQxFTATBgNVBAMTDFZp
a2luZ1ZQTiBDQTEQMA4GA1UEKRMHRWFzeVJTQTEhMB8GCSqGSIb3DQEJARYSbWVA
bXlob3N0Lm15ZG9tYWluMB4XDTE2MTAyMTE0MTc1OFoXDTI2MTAxOTE0MTc1OFow
HzEdMBsGA1UEAxMUQ2xpZW50MjU0NENlcnRlNDExMTgwggIiMA0GCSqGSIb3DQEB
AQUAA4ICDwAwggIKAoICAQCzTxvwpIDhBSIZAwzGLFAG3o13vTj5pLMy6QXVr9wm
d/R/yJrhYOOZdUifDQBgwe/5AZqBmlgbbcwCS5yEy/b4adKcQGkik4edqosn6mTI
JmrKr547yyoCrF8xPVlmWPvhnQeOn8WLY6Xb1mKquWjzCio2o6frQbb3GNdyi1CX
u2SWBeYJYmIhkh01wu5reReOeH6v07Qc+ReHAh6zBc2R04neR0fU2AeSFhEYPXSX
DZmAUzL79W1v97szt5QPT8DdAwGRlKGnaJ+clMhPcQfb3y2m9aGWXq4nypRFySQQ
O1w9KQjb5FGABJAPNfG+Xgujpjc4zPNB364XdecAYdb1DO8lRtlN/S9WZbpE4yEB
nrsjitzXoURTVgRNaoQx9gMhZxhYi04N7ptFQm5mobkxhSge8/r6+RVaGw2nbIl1
MYdH6RxW4C+/NVh/khYUXJrXqgufbwMw/1bbuGekIy3kph0C/tTxkBR7OVTMAMLY
lkDK9rOa4fGvEtGLppjtDiG7NJLY+OkL+ufMA80aS5ixcM10GlGsS/ZB220bosoj
77lKBKjGCMS0vZO9bQoMaLaRpocEAvwKSoXMVOyH68UNVfkKJeO1nEkSUjdfwfMR
PSD5wxvcjOBXTD0KyRMSAPvvetd3pQIfCCwuhBhuGKqdWHcMPY3X6V5cIunle5J/
VQIDAQABo4IBYzCCAV8wCQYDVR0TBAIwADAtBglghkgBhvhCAQ0EIBYeRWFzeS1S
U0EgR2VuZXJhdGVkIENlcnRpZmljYXRlMB0GA1UdDgQWBBTTtUjC0rYtVDKipHsu
6r6DoMsrejCB4QYDVR0jBIHZMIHWgBQSzWAE0qCAnnDtxpm4eyzGUv0ZoaGBsqSB
rzCBrDELMAkGA1UEBhMCVVMxCzAJBgNVBAgTAk9IMREwDwYDVQQHEwhDb2x1bWJ1
czESMBAGA1UEChMJVmlraW5nVlBOMR0wGwYDVQQLExRNeU9yZ2FuaXphdGlvbmFs
VW5pdDEVMBMGA1UEAxMMVmlraW5nVlBOIENBMRAwDgYDVQQpEwdFYXN5UlNBMSEw
HwYJKoZIhvcNAQkBFhJtZUBteWhvc3QubXlkb21haW6CCQDPNYXugL8qPjATBgNV
HSUEDDAKBggrBgEFBQcDAjALBgNVHQ8EBAMCB4AwDQYJKoZIhvcNAQELBQADggIB
ABlVAtNaF85ey27O7S7eOMVt0q0SHMbCj5WSmzhfD1Nyri7w5mUSuwOLcZ5boTRv
rI+EHvP87067X3Hi53K5IhmHxNJ6V96qATWPZIcVBKu9KM9zSGnaAzRBF0QnEEBX
APKaw75XDHRBKZ5p4UBMdxViKqsEiuGjMr1Rr1ZQ4if16jwDYpkfwda3tIC5iDGv
Wi+yp+owb6LueEnwyEP/d8USeuWhR+Qf5i6NWXq+vQCtexYNHl2Q+yp4A4P0absp
RGSqmKXZhXlaCh6tuIDR0K+LAH/dpf3kU9i0zIE+9nUn0dMj60pMYZFyjqjzsUUV
SrbgHAWNea6JWdvV4jnAE6DPPv6dslZAoCiOC9yD2vcvnBnrtgsAm5JimX2QuxgP
wqvx9An4S8webjFT555Svnn5EPlr9akSI4pKWKKwfmKreXpn4twwTbWykCh978Ty
JgaVGWXrRPFbTxg7WHRnUFjXZDBa4SRqnLDc1RP9sPec3bT/XAuydufTgbBPa9P4
BE7D0AOmANyY7cH6GuKehqvJ098PmXJ+eyZU4VyMhOcZK3yDIMueP9+gVeQWkQya
SUGTu0M5S3m49iUjPsSXr8GFc87+elKV0cjWmzuntlT+b9mUc6as08OCqX0yX6tK
o1WucpS5Py0PjdBYLMJdNb18hK3AxD9jV/Y7ujPdfPxj
-----END CERTIFICATE-----
