Certificate:
    Data:
        Version: 3 (0x2)
        Serial Number: 9290 (0x244a)
    Signature Algorithm: sha256WithRSAEncryption
        Issuer: C=US, ST=OH, L=Columbus, O=VikingVPN, OU=MyOrganizationalUnit, CN=VikingVPN CA/name=EasyRSA/emailAddress=me@myhost.mydomain
        Validity
            Not Before: Oct 21 14:21:55 2016 GMT
            Not After : Oct 19 14:21:55 2026 GMT
        Subject: CN=Client2544Certeec488
        Subject Public Key Info:
            Public Key Algorithm: rsaEncryption
                Public-Key: (4096 bit)
                Modulus:
                    00:bb:fc:8b:77:43:44:84:53:3f:83:25:72:62:b9:
                    e9:0c:2e:bd:1f:e9:f6:f3:63:4d:9b:d0:69:3e:b7:
                    d8:4a:98:98:c2:35:77:2c:19:db:93:b0:33:38:db:
                    3b:53:4f:72:14:54:ba:c3:78:1f:43:6e:7f:84:99:
                    b3:72:d7:90:d7:0a:a2:c7:92:37:1e:eb:3c:49:73:
                    36:46:f5:57:17:c3:9f:a6:ef:59:94:39:0c:d4:05:
                    5c:23:30:8e:68:a9:49:8e:2b:25:a0:1a:d2:e1:c5:
                    5d:a5:2f:62:4e:d3:87:30:60:d6:ba:fd:6d:0a:6b:
                    22:e2:2d:b2:e6:a6:fc:89:60:c6:4d:3e:24:da:b5:
                    54:42:40:26:d6:28:6a:13:50:07:e4:ef:53:ad:c2:
                    89:9d:10:7d:97:89:7c:06:f0:1b:73:da:4f:75:ab:
                    d0:8e:d7:62:46:77:18:c7:93:b9:a8:c2:7f:0c:db:
                    44:9c:08:ff:cb:be:db:c0:70:ad:bf:c5:e3:dd:a9:
                    be:37:82:05:dc:6e:78:c6:90:cd:fb:d1:fc:a1:2d:
                    d9:d4:6b:9f:21:6c:e4:60:60:c7:e6:d3:79:fc:11:
                    e9:31:3a:7c:b8:ef:66:9d:c9:cf:7a:35:2d:99:c3:
                    02:4a:92:e2:ec:fe:fa:f1:24:52:a4:35:ae:73:65:
                    80:43:a0:75:28:77:a7:cb:00:7b:31:8d:a4:02:48:
                    f1:5c:47:fe:92:df:73:b1:31:1f:e4:cf:5c:87:d9:
                    d1:ce:7e:b1:aa:82:71:8b:52:40:15:3c:73:7c:e6:
                    ba:f3:60:d7:93:99:ff:e2:d2:0c:7f:6f:39:e0:f3:
                    ea:14:63:ec:66:cb:be:4f:19:ae:bb:ce:96:b9:9d:
                    69:4c:49:f4:1c:27:18:9e:e2:08:66:73:01:38:fd:
                    d8:fe:39:2f:60:6e:e7:24:ba:19:1f:dd:77:72:95:
                    0a:bf:13:f1:29:1e:fe:ae:58:11:2f:5b:26:aa:1d:
                    ba:14:69:9c:2d:0c:40:22:c5:08:7c:ee:ca:1a:a4:
                    c7:da:19:57:77:ef:31:59:f0:2d:55:60:f3:19:13:
                    ec:45:53:7c:f3:ce:b9:e0:32:43:c6:01:47:40:11:
                    b7:bc:84:41:14:f8:17:ac:1d:4a:45:36:b9:67:5b:
                    a7:7e:fe:76:5f:e8:d4:89:aa:1e:d5:4d:3d:5b:38:
                    85:6f:61:b4:53:dd:f9:8f:b0:ff:41:7e:f0:d9:eb:
                    a9:14:6a:66:b9:4b:82:23:13:79:69:9a:69:a6:6c:
                    2c:8c:78:21:fa:c5:2f:e6:d0:04:28:17:b2:a4:64:
                    92:1b:f7:96:a4:0b:22:65:63:72:42:97:31:31:ea:
                    1b:76:51
                Exponent: 65537 (0x10001)
        X509v3 extensions:
            X509v3 Basic Constraints: 
                CA:FALSE
            Netscape Comment: 
                Easy-RSA Generated Certificate
            X509v3 Subject Key Identifier: 
                D5:19:19:5C:D3:82:4F:0C:C2:CC:3A:AD:6F:E6:0B:CC:AA:66:DF:5C
            X509v3 Authority Key Identifier: 
                keyid:12:CD:60:04:D2:A0:80:9E:70:ED:C6:99:B8:7B:2C:C6:52:FD:19:A1
                DirName:/C=US/ST=OH/L=Columbus/O=VikingVPN/OU=MyOrganizationalUnit/CN=VikingVPN CA/name=EasyRSA/emailAddress=me@myhost.mydomain
                serial:CF:35:85:EE:80:BF:2A:3E

            X509v3 Extended Key Usage: 
                TLS Web Client Authentication
            X509v3 Key Usage: 
                Digital Signature
    Signature Algorithm: sha256WithRSAEncryption
         e6:e6:8f:7b:7f:89:16:f6:46:4d:49:3b:36:c0:f8:09:5b:49:
         7e:f6:8e:2f:6e:a0:a7:37:22:b4:b9:ea:2e:12:ad:5e:0f:d6:
         be:30:ae:2e:f9:f2:3c:e4:a0:0d:43:68:96:2e:a4:73:ef:26:
         df:c5:9f:77:8b:b9:11:14:66:88:f4:97:d5:0f:60:cd:60:af:
         29:25:72:b1:06:af:be:bb:6f:04:5a:e8:1a:6b:ff:b4:15:04:
         e1:6c:9e:e1:e2:95:8a:1a:45:48:ce:d6:74:dd:a4:fa:ca:1e:
         10:2f:d6:d7:64:ac:50:02:90:38:1f:1b:ed:52:34:5b:49:d9:
         b5:8f:73:e1:8a:ff:ab:37:2d:37:63:99:bc:83:6f:47:2f:f5:
         e4:ce:a7:b9:ad:23:1c:26:52:d3:80:b9:fe:d7:5c:7d:7e:b1:
         2f:4a:63:aa:f8:a1:ee:7c:56:eb:b2:4b:92:5d:e0:61:32:8a:
         c5:20:e4:d1:0a:bf:60:76:37:da:d6:25:bb:93:14:8e:b1:2a:
         b9:07:f0:2c:7e:e3:37:ff:2d:c5:0e:b8:91:53:1e:f2:2b:0c:
         e7:72:68:08:87:af:e1:ef:46:01:d9:50:53:7e:61:5b:35:22:
         b6:f7:49:40:65:44:b2:8b:ed:e6:ee:05:5e:2e:9a:03:b9:15:
         2d:f1:a4:fe:8f:e4:0f:84:73:45:0c:1e:a4:86:38:af:24:1e:
         76:93:66:70:39:75:4a:6e:0c:d8:fb:ff:b9:3a:be:9b:05:49:
         31:ff:b1:3c:4b:dd:0d:3b:2c:46:7b:81:7e:3c:eb:b6:00:93:
         0f:27:1a:fb:5d:0d:5d:34:f1:ef:81:2b:b3:8b:01:15:4e:ca:
         ca:4f:d2:98:7a:8c:69:1f:28:db:29:36:44:31:0a:37:fc:f4:
         23:ee:07:9d:2b:e4:c6:b3:e4:f3:8d:34:d2:58:5f:f5:f8:54:
         4e:12:a1:4d:df:f7:5a:32:45:39:98:b2:9f:44:53:b3:e8:2d:
         b8:40:9b:4c:81:a8:7d:ba:d7:a2:37:c4:b8:8d:f9:a1:10:c0:
         b7:b8:06:cb:88:4f:ad:dd:d1:1b:e3:5c:1f:55:97:23:2b:15:
         01:fd:58:3c:cf:a4:64:38:c0:8b:da:b1:a5:31:9b:83:2b:96:
         33:83:fa:0e:28:6c:d7:f4:04:5c:82:b3:d6:c2:ce:79:d0:d7:
         44:1f:3c:7e:0a:36:5b:f3:16:72:9e:9f:5c:0a:3f:a7:b5:d4:
         c7:1f:79:15:1b:bf:f6:43:4c:d2:13:24:66:ab:56:b8:0a:7c:
         89:d5:94:96:dd:e9:50:d9:f9:c0:b0:2c:c3:13:a0:5d:f8:2e:
         b7:f0:89:fb:6f:0a:f4:34
-----BEGIN CERTIFICATE-----
MIIGrTCCBJWgAwIBAgICJEowDQYJKoZIhvcNAQELBQAwgawxCzAJBgNVBAYTAlVT
MQswCQYDVQQIEwJPSDERMA8GA1UEBxMIQ29sdW1idXMxEjAQBgNVBAoTCVZpa2lu
Z1ZQTjEdMBsGA1UECxMUTXlPcmdhbml6YXRpb25hbFVuaXQxFTATBgNVBAMTDFZp
a2luZ1ZQTiBDQTEQMA4GA1UEKRMHRWFzeVJTQTEhMB8GCSqGSIb3DQEJARYSbWVA
bXlob3N0Lm15ZG9tYWluMB4XDTE2MTAyMTE0MjE1NVoXDTI2MTAxOTE0MjE1NVow
HzEdMBsGA1UEAxMUQ2xpZW50MjU0NENlcnRlZWM0ODgwggIiMA0GCSqGSIb3DQEB
AQUAA4ICDwAwggIKAoICAQC7/It3Q0SEUz+DJXJiuekMLr0f6fbzY02b0Gk+t9hK
mJjCNXcsGduTsDM42ztTT3IUVLrDeB9Dbn+EmbNy15DXCqLHkjce6zxJczZG9VcX
w5+m71mUOQzUBVwjMI5oqUmOKyWgGtLhxV2lL2JO04cwYNa6/W0KayLiLbLmpvyJ
YMZNPiTatVRCQCbWKGoTUAfk71OtwomdEH2XiXwG8Btz2k91q9CO12JGdxjHk7mo
wn8M20ScCP/LvtvAcK2/xePdqb43ggXcbnjGkM370fyhLdnUa58hbORgYMfm03n8
EekxOny472adyc96NS2ZwwJKkuLs/vrxJFKkNa5zZYBDoHUod6fLAHsxjaQCSPFc
R/6S33OxMR/kz1yH2dHOfrGqgnGLUkAVPHN85rrzYNeTmf/i0gx/bzng8+oUY+xm
y75PGa67zpa5nWlMSfQcJxie4ghmcwE4/dj+OS9gbuckuhkf3XdylQq/E/EpHv6u
WBEvWyaqHboUaZwtDEAixQh87soapMfaGVd37zFZ8C1VYPMZE+xFU3zzzrngMkPG
AUdAEbe8hEEU+BesHUpFNrlnW6d+/nZf6NSJqh7VTT1bOIVvYbRT3fmPsP9BfvDZ
66kUama5S4IjE3lpmmmmbCyMeCH6xS/m0AQoF7KkZJIb95akCyJlY3JClzEx6ht2
UQIDAQABo4IBYzCCAV8wCQYDVR0TBAIwADAtBglghkgBhvhCAQ0EIBYeRWFzeS1S
U0EgR2VuZXJhdGVkIENlcnRpZmljYXRlMB0GA1UdDgQWBBTVGRlc04JPDMLMOq1v
5gvMqmbfXDCB4QYDVR0jBIHZMIHWgBQSzWAE0qCAnnDtxpm4eyzGUv0ZoaGBsqSB
rzCBrDELMAkGA1UEBhMCVVMxCzAJBgNVBAgTAk9IMREwDwYDVQQHEwhDb2x1bWJ1
czESMBAGA1UEChMJVmlraW5nVlBOMR0wGwYDVQQLExRNeU9yZ2FuaXphdGlvbmFs
VW5pdDEVMBMGA1UEAxMMVmlraW5nVlBOIENBMRAwDgYDVQQpEwdFYXN5UlNBMSEw
HwYJKoZIhvcNAQkBFhJtZUBteWhvc3QubXlkb21haW6CCQDPNYXugL8qPjATBgNV
HSUEDDAKBggrBgEFBQcDAjALBgNVHQ8EBAMCB4AwDQYJKoZIhvcNAQELBQADggIB
AObmj3t/iRb2Rk1JOzbA+AlbSX72ji9uoKc3IrS56i4SrV4P1r4wri758jzkoA1D
aJYupHPvJt/Fn3eLuREUZoj0l9UPYM1gryklcrEGr767bwRa6Bpr/7QVBOFsnuHi
lYoaRUjO1nTdpPrKHhAv1tdkrFACkDgfG+1SNFtJ2bWPc+GK/6s3LTdjmbyDb0cv
9eTOp7mtIxwmUtOAuf7XXH1+sS9KY6r4oe58VuuyS5Jd4GEyisUg5NEKv2B2N9rW
JbuTFI6xKrkH8Cx+4zf/LcUOuJFTHvIrDOdyaAiHr+HvRgHZUFN+YVs1Irb3SUBl
RLKL7ebuBV4umgO5FS3xpP6P5A+Ec0UMHqSGOK8kHnaTZnA5dUpuDNj7/7k6vpsF
STH/sTxL3Q07LEZ7gX4867YAkw8nGvtdDV008e+BK7OLARVOyspP0ph6jGkfKNsp
NkQxCjf89CPuB50r5Maz5PONNNJYX/X4VE4SoU3f91oyRTmYsp9EU7PoLbhAm0yB
qH2616I3xLiN+aEQwLe4BsuIT63d0RvjXB9VlyMrFQH9WDzPpGQ4wIvasaUxm4Mr
ljOD+g4obNf0BFyCs9bCznnQ10QfPH4KNlvzFnKen1wKP6e11McfeRUbv/ZDTNIT
JGarVrgKfInVlJbd6VDZ+cCwLMMToF34LrfwiftvCvQ0
-----END CERTIFICATE-----
