Certificate:
    Data:
        Version: 3 (0x2)
        Serial Number: 9309 (0x245d)
    Signature Algorithm: sha256WithRSAEncryption
        Issuer: C=US, ST=OH, L=Columbus, O=VikingVPN, OU=MyOrganizationalUnit, CN=VikingVPN CA/name=EasyRSA/emailAddress=me@myhost.mydomain
        Validity
            Not Before: Oct 24 16:01:11 2016 GMT
            Not After : Oct 22 16:01:11 2026 GMT
        Subject: CN=Client2007Certdf4d79
        Subject Public Key Info:
            Public Key Algorithm: rsaEncryption
                Public-Key: (4096 bit)
                Modulus:
                    00:a5:4f:98:9b:fe:9c:04:93:e7:87:0a:8e:27:74:
                    6f:0e:8c:a6:a0:27:34:0b:90:70:07:01:b5:27:b0:
                    94:f9:df:9d:4f:ca:2b:fd:93:1a:4d:4c:2b:5e:30:
                    b9:34:d5:0b:4f:cd:95:25:25:c5:24:1b:61:97:a0:
                    32:0e:24:2b:e3:00:ad:5c:ac:cf:c8:62:e5:b5:bb:
                    03:0c:7b:48:a1:01:75:38:4c:d9:a5:8b:3b:a0:bf:
                    0a:e5:28:04:c6:f5:3e:67:1c:f4:ef:d0:a5:4d:9a:
                    c5:93:45:b5:77:ef:12:14:ba:10:9f:d9:f6:e1:2e:
                    40:5e:3f:aa:c3:9a:d0:e5:75:bb:e3:f0:25:70:24:
                    02:a9:80:ec:14:31:23:7c:34:50:b4:e9:2d:dc:b5:
                    36:2a:b3:97:ea:27:50:ff:ad:c8:48:74:c2:35:6c:
                    cc:36:ad:70:6f:c6:7f:74:df:40:6c:91:fe:99:da:
                    f4:7e:55:d4:f0:b4:77:78:77:12:56:80:09:31:1c:
                    ad:ef:8b:c2:36:69:7c:a8:a2:05:ce:5c:38:a5:34:
                    64:94:05:73:ca:6e:63:0a:57:fc:e3:9f:a7:b5:ca:
                    5b:fe:e9:bf:0d:2c:cf:a1:57:a0:ae:15:06:82:a4:
                    3d:b9:43:55:ab:e4:0a:ca:d2:e5:22:b0:e3:53:07:
                    c6:66:51:0c:0c:a5:97:cb:d7:1d:48:33:8c:50:63:
                    89:b1:50:a9:4b:59:ca:8c:3a:74:b1:3f:b7:f3:d6:
                    6f:27:ba:a9:46:03:66:60:b5:66:e4:62:94:e9:b1:
                    14:4f:62:55:db:2a:15:d8:f2:86:d8:09:cc:6e:bd:
                    4a:32:d5:b4:3a:f8:b3:e0:e3:53:f7:98:dd:77:92:
                    cb:ea:bd:53:cf:bf:25:0f:61:80:a4:ec:23:8f:53:
                    ab:50:f3:11:c6:44:a3:71:48:b2:4f:55:41:35:94:
                    2d:e7:6c:47:d4:2c:ff:e6:82:a7:63:b9:8b:3b:88:
                    7a:94:1a:78:d7:af:d2:60:21:e3:0b:42:23:7d:00:
                    ff:0f:8c:dd:7c:eb:c1:75:4e:66:c8:9d:14:b4:97:
                    eb:b7:15:0e:0e:28:8f:fb:0a:e2:90:be:e8:0e:bd:
                    1d:33:97:36:b6:03:c3:28:b7:03:cd:0a:92:b1:d8:
                    84:1d:b9:db:51:7e:ad:d2:fd:70:1e:d3:9d:bc:0e:
                    7f:e7:4f:a3:27:c6:7c:c1:7b:ba:af:34:88:ef:24:
                    63:a4:cc:32:d7:d8:70:84:bd:22:22:61:8f:e1:88:
                    19:2a:f9:41:a6:25:cb:70:84:c6:c8:5f:4a:dc:d4:
                    20:96:86:2c:da:77:db:4e:bb:07:9e:d4:d9:62:8f:
                    b0:03:39
                Exponent: 65537 (0x10001)
        X509v3 extensions:
            X509v3 Basic Constraints: 
                CA:FALSE
            Netscape Comment: 
                Easy-RSA Generated Certificate
            X509v3 Subject Key Identifier: 
                0A:36:59:0C:CC:5A:88:60:F5:94:D8:32:02:C5:0B:D8:59:ED:60:30
            X509v3 Authority Key Identifier: 
                keyid:12:CD:60:04:D2:A0:80:9E:70:ED:C6:99:B8:7B:2C:C6:52:FD:19:A1
                DirName:/C=US/ST=OH/L=Columbus/O=VikingVPN/OU=MyOrganizationalUnit/CN=VikingVPN CA/name=EasyRSA/emailAddress=me@myhost.mydomain
                serial:CF:35:85:EE:80:BF:2A:3E

            X509v3 Extended Key Usage: 
                TLS Web Client Authentication
            X509v3 Key Usage: 
                Digital Signature
    Signature Algorithm: sha256WithRSAEncryption
         bb:d1:77:77:e2:a0:62:22:de:07:0a:e4:f5:43:7b:3e:a3:53:
         8d:1e:58:6a:97:7e:0c:37:d6:46:f7:37:ef:31:eb:1a:15:22:
         13:d2:9a:00:8c:7c:66:19:28:04:d4:30:27:2d:ec:26:44:bf:
         60:25:72:0d:85:7a:5b:16:20:45:2e:d5:b4:3c:56:ab:18:70:
         73:10:f3:65:b1:eb:97:ee:12:1b:8e:cf:65:9a:2d:1d:d5:54:
         19:68:60:16:a4:7a:57:be:40:52:60:76:ca:5b:a3:bf:12:e6:
         02:ec:f3:99:d6:a6:e8:fa:c3:df:b9:2d:6b:fb:3d:ce:12:be:
         55:b4:c4:39:c5:69:85:cd:c7:5b:67:98:55:12:17:4f:c1:28:
         ec:36:3e:ef:f0:76:a1:f5:05:c0:06:c2:11:0f:1f:04:6c:b6:
         6d:5f:d6:96:0c:a5:0e:3b:02:6f:db:4f:00:56:a2:9d:bf:2f:
         8e:e9:42:b0:c1:55:2b:cd:8a:3f:ec:23:6e:d9:8f:ad:7c:77:
         8d:d9:f8:b6:8f:d2:d0:68:a8:ce:17:ab:bb:e2:48:72:88:75:
         af:6d:a5:a2:69:db:4f:57:ae:e0:15:82:e8:62:3d:c9:0b:84:
         a1:b7:42:72:e3:91:99:03:e7:be:39:59:82:58:f9:4c:3c:ee:
         ef:58:b1:70:4e:d5:78:67:27:f0:bc:96:af:a8:36:1f:e9:e4:
         78:3a:4b:a7:6f:56:fc:2f:8d:a1:78:b3:f8:55:e3:5a:44:ce:
         d2:2d:be:71:0b:da:67:f2:93:10:e2:0b:20:f4:b7:34:9e:1c:
         db:fe:98:5f:8a:60:dc:e1:b8:d0:f0:84:6b:aa:cd:31:ce:e5:
         b0:42:92:c7:2f:be:dd:3f:d7:47:a1:fb:3d:91:9d:b7:49:9b:
         78:75:82:20:17:ed:69:d3:63:b3:ac:85:8b:51:05:2b:94:65:
         dc:12:48:b0:e7:18:78:54:14:62:9e:0e:cf:8c:b0:4c:80:8e:
         aa:14:3c:79:ca:60:40:db:95:82:c8:56:34:ca:3e:90:28:7c:
         b2:d0:17:97:ac:69:25:9b:d3:b0:45:a6:b1:6c:71:7b:d2:28:
         8c:fe:ba:94:01:a2:4d:b1:20:02:ce:1b:e1:db:5c:c4:5a:98:
         b0:80:ec:7a:56:4c:b9:0b:cb:42:fe:39:f6:05:77:56:37:b1:
         6f:e0:5c:c1:66:89:28:20:49:d5:b5:96:44:da:79:89:40:2d:
         07:54:d5:cb:58:a3:49:14:96:40:0d:d3:23:77:36:fc:9c:67:
         56:83:b2:90:df:43:0e:c8:04:18:29:dc:f1:e6:bc:d3:de:cd:
         1f:69:fd:33:57:a8:2a:dd
-----BEGIN CERTIFICATE-----
MIIGrTCCBJWgAwIBAgICJF0wDQYJKoZIhvcNAQELBQAwgawxCzAJBgNVBAYTAlVT
MQswCQYDVQQIEwJPSDERMA8GA1UEBxMIQ29sdW1idXMxEjAQBgNVBAoTCVZpa2lu
Z1ZQTjEdMBsGA1UECxMUTXlPcmdhbml6YXRpb25hbFVuaXQxFTATBgNVBAMTDFZp
a2luZ1ZQTiBDQTEQMA4GA1UEKRMHRWFzeVJTQTEhMB8GCSqGSIb3DQEJARYSbWVA
bXlob3N0Lm15ZG9tYWluMB4XDTE2MTAyNDE2MDExMVoXDTI2MTAyMjE2MDExMVow
HzEdMBsGA1UEAxMUQ2xpZW50MjAwN0NlcnRkZjRkNzkwggIiMA0GCSqGSIb3DQEB
AQUAA4ICDwAwggIKAoICAQClT5ib/pwEk+eHCo4ndG8OjKagJzQLkHAHAbUnsJT5
351Pyiv9kxpNTCteMLk01QtPzZUlJcUkG2GXoDIOJCvjAK1crM/IYuW1uwMMe0ih
AXU4TNmlizugvwrlKATG9T5nHPTv0KVNmsWTRbV37xIUuhCf2fbhLkBeP6rDmtDl
dbvj8CVwJAKpgOwUMSN8NFC06S3ctTYqs5fqJ1D/rchIdMI1bMw2rXBvxn9030Bs
kf6Z2vR+VdTwtHd4dxJWgAkxHK3vi8I2aXyoogXOXDilNGSUBXPKbmMKV/zjn6e1
ylv+6b8NLM+hV6CuFQaCpD25Q1Wr5ArK0uUisONTB8ZmUQwMpZfL1x1IM4xQY4mx
UKlLWcqMOnSxP7fz1m8nuqlGA2ZgtWbkYpTpsRRPYlXbKhXY8obYCcxuvUoy1bQ6
+LPg41P3mN13ksvqvVPPvyUPYYCk7COPU6tQ8xHGRKNxSLJPVUE1lC3nbEfULP/m
gqdjuYs7iHqUGnjXr9JgIeMLQiN9AP8PjN1868F1TmbInRS0l+u3FQ4OKI/7CuKQ
vugOvR0zlza2A8MotwPNCpKx2IQdudtRfq3S/XAe0528Dn/nT6MnxnzBe7qvNIjv
JGOkzDLX2HCEvSIiYY/hiBkq+UGmJctwhMbIX0rc1CCWhizad9tOuwee1Nlij7AD
OQIDAQABo4IBYzCCAV8wCQYDVR0TBAIwADAtBglghkgBhvhCAQ0EIBYeRWFzeS1S
U0EgR2VuZXJhdGVkIENlcnRpZmljYXRlMB0GA1UdDgQWBBQKNlkMzFqIYPWU2DIC
xQvYWe1gMDCB4QYDVR0jBIHZMIHWgBQSzWAE0qCAnnDtxpm4eyzGUv0ZoaGBsqSB
rzCBrDELMAkGA1UEBhMCVVMxCzAJBgNVBAgTAk9IMREwDwYDVQQHEwhDb2x1bWJ1
czESMBAGA1UEChMJVmlraW5nVlBOMR0wGwYDVQQLExRNeU9yZ2FuaXphdGlvbmFs
VW5pdDEVMBMGA1UEAxMMVmlraW5nVlBOIENBMRAwDgYDVQQpEwdFYXN5UlNBMSEw
HwYJKoZIhvcNAQkBFhJtZUBteWhvc3QubXlkb21haW6CCQDPNYXugL8qPjATBgNV
HSUEDDAKBggrBgEFBQcDAjALBgNVHQ8EBAMCB4AwDQYJKoZIhvcNAQELBQADggIB
ALvRd3fioGIi3gcK5PVDez6jU40eWGqXfgw31kb3N+8x6xoVIhPSmgCMfGYZKATU
MCct7CZEv2Alcg2FelsWIEUu1bQ8VqsYcHMQ82Wx65fuEhuOz2WaLR3VVBloYBak
ele+QFJgdspbo78S5gLs85nWpuj6w9+5LWv7Pc4SvlW0xDnFaYXNx1tnmFUSF0/B
KOw2Pu/wdqH1BcAGwhEPHwRstm1f1pYMpQ47Am/bTwBWop2/L47pQrDBVSvNij/s
I27Zj618d43Z+LaP0tBoqM4Xq7viSHKIda9tpaJp209XruAVguhiPckLhKG3QnLj
kZkD5745WYJY+Uw87u9YsXBO1XhnJ/C8lq+oNh/p5Hg6S6dvVvwvjaF4s/hV41pE
ztItvnEL2mfykxDiCyD0tzSeHNv+mF+KYNzhuNDwhGuqzTHO5bBCkscvvt0/10eh
+z2RnbdJm3h1giAX7WnTY7OshYtRBSuUZdwSSLDnGHhUFGKeDs+MsEyAjqoUPHnK
YEDblYLIVjTKPpAofLLQF5esaSWb07BFprFscXvSKIz+upQBok2xIALOG+HbXMRa
mLCA7HpWTLkLy0L+OfYFd1Y3sW/gXMFmiSggSdW1lkTaeYlALQdU1ctYo0kUlkAN
0yN3NvycZ1aDspDfQw7IBBgp3PHmvNPezR9p/TNXqCrd
-----END CERTIFICATE-----
