Certificate:
    Data:
        Version: 3 (0x2)
        Serial Number: 9331 (0x2473)
    Signature Algorithm: sha256WithRSAEncryption
        Issuer: C=US, ST=OH, L=Columbus, O=VikingVPN, OU=MyOrganizationalUnit, CN=VikingVPN CA/name=EasyRSA/emailAddress=me@myhost.mydomain
        Validity
            Not Before: Oct 26 04:20:48 2016 GMT
            Not After : Oct 24 04:20:48 2026 GMT
        Subject: CN=Client2405Certdc2f50
        Subject Public Key Info:
            Public Key Algorithm: rsaEncryption
                Public-Key: (4096 bit)
                Modulus:
                    00:ee:43:c6:b3:40:9b:26:e9:74:1b:2f:ac:d1:b6:
                    d5:6f:6c:8b:84:0d:5d:0f:5e:55:50:9e:72:0b:b2:
                    28:05:aa:fa:20:ec:f6:39:4c:82:7c:30:32:b4:da:
                    78:ee:e4:d1:ff:58:15:38:8c:eb:0c:8b:03:83:3c:
                    61:54:b8:9a:0a:cd:d4:bd:df:44:7a:c2:4a:9a:d4:
                    76:fd:85:64:56:cc:5b:23:24:f7:cf:76:8b:11:fd:
                    82:41:14:9d:5b:47:c3:26:46:6e:8d:a0:e8:4c:b0:
                    14:00:3b:8a:9b:a3:e3:cf:f0:b8:59:9d:c9:61:9a:
                    81:a7:ca:25:b7:32:c7:9f:84:45:58:a8:9e:b4:fb:
                    69:8c:b3:68:88:22:8d:15:b2:ba:f9:5e:93:80:11:
                    32:af:7d:21:03:1f:13:0f:25:67:0d:01:ac:a0:e8:
                    80:06:b0:24:e5:49:fa:5a:fb:ce:1f:04:61:c4:f1:
                    c7:93:5d:4c:ff:81:66:25:f0:ab:89:fe:64:23:1b:
                    a0:b4:86:8c:6d:74:92:e6:6f:de:24:25:74:93:4e:
                    85:79:96:e2:e4:ce:58:32:2a:ec:2c:02:04:72:6d:
                    52:98:c5:c1:67:4a:6d:16:06:9d:07:e7:19:82:40:
                    f1:ac:03:1d:69:bf:2a:d5:87:87:8c:f1:a8:4b:3d:
                    6c:26:cd:cc:d3:56:23:10:fe:88:da:c2:36:47:62:
                    42:c5:43:22:59:67:9e:c3:e6:e3:81:29:5a:61:be:
                    de:b9:a1:9d:64:ed:6c:23:18:a9:64:3b:fc:0b:71:
                    3d:90:c0:fc:b7:f2:be:69:72:53:f1:e0:c0:51:ab:
                    65:18:75:79:8a:00:1b:bc:52:b5:df:61:62:99:49:
                    1e:73:34:8f:4a:96:f4:ab:4e:32:fa:72:f6:cc:f6:
                    9d:82:fe:50:cf:6e:b2:77:aa:5d:ee:08:f8:f8:be:
                    ab:51:ff:85:d9:31:8f:09:8e:f6:fe:76:c6:3b:41:
                    d4:7b:c1:55:e9:b7:52:be:27:ea:ea:05:d0:c0:81:
                    6e:28:21:1f:f1:cd:7f:9f:ba:e8:d9:4d:0a:f8:14:
                    6c:42:5f:db:89:cd:5f:2d:30:84:77:cc:c5:c5:52:
                    9f:dd:76:9b:fb:cb:40:e3:d1:4e:c2:40:9e:5f:43:
                    1b:32:a5:18:5f:2c:55:61:f5:22:51:a6:50:bb:96:
                    c7:a0:ab:c7:bd:fc:64:69:4f:61:5e:84:68:2b:cb:
                    01:00:5f:11:83:03:09:bc:c7:24:57:72:2c:9a:91:
                    b4:bb:ae:fe:b6:fc:ae:d4:8d:2c:05:e1:26:fb:28:
                    b4:56:34:19:d7:74:e5:d8:33:8b:4e:0d:6b:d6:a8:
                    cb:0c:1b
                Exponent: 65537 (0x10001)
        X509v3 extensions:
            X509v3 Basic Constraints: 
                CA:FALSE
            Netscape Comment: 
                Easy-RSA Generated Certificate
            X509v3 Subject Key Identifier: 
                38:EF:C2:25:56:0D:28:82:48:74:FE:49:BC:35:25:22:61:24:B5:6F
            X509v3 Authority Key Identifier: 
                keyid:12:CD:60:04:D2:A0:80:9E:70:ED:C6:99:B8:7B:2C:C6:52:FD:19:A1
                DirName:/C=US/ST=OH/L=Columbus/O=VikingVPN/OU=MyOrganizationalUnit/CN=VikingVPN CA/name=EasyRSA/emailAddress=me@myhost.mydomain
                serial:CF:35:85:EE:80:BF:2A:3E

            X509v3 Extended Key Usage: 
                TLS Web Client Authentication
            X509v3 Key Usage: 
                Digital Signature
    Signature Algorithm: sha256WithRSAEncryption
         3d:21:d5:84:0a:cf:b4:bc:16:c0:c5:9a:e5:0f:3c:25:95:0d:
         57:9f:a2:27:5f:29:06:fe:9f:80:6b:c1:9d:f2:a6:d1:b7:8f:
         d6:a1:ed:8c:1e:17:af:ba:58:67:c8:71:6c:a9:50:b9:2e:78:
         cd:02:ff:7c:95:ce:04:28:11:d2:6d:94:54:ff:d0:38:b7:30:
         e7:7c:4b:d9:61:7a:3a:39:04:d2:28:ac:59:0d:50:dc:19:6b:
         7e:b1:99:37:6e:3d:a9:d5:c6:c9:9f:95:f9:48:3d:95:b1:b2:
         65:c0:e9:51:b2:47:37:c0:f5:69:5b:88:69:9c:87:ee:14:cd:
         95:60:63:4b:b8:09:fe:8f:ef:e8:14:f3:28:a0:51:1f:b7:41:
         15:4a:86:12:04:72:3c:5d:9f:c1:93:8c:9e:f6:71:34:75:ae:
         b4:b5:1b:79:af:f8:80:c1:80:20:e2:cd:b7:55:bc:fc:d6:44:
         91:ab:ae:c7:09:ae:b6:f7:fb:a8:db:81:78:b8:75:d0:66:50:
         e1:0d:91:21:ed:d8:c2:57:c6:a6:10:6f:09:d4:23:3d:8a:9c:
         b2:f6:f4:fe:38:00:3a:6b:82:05:b4:72:fd:7c:22:ab:49:ad:
         a6:92:97:bf:a9:f2:87:ba:5e:93:18:fd:71:92:14:37:ed:01:
         88:87:67:0d:d1:3e:b8:f6:39:57:d5:ce:df:ae:03:4f:5e:2a:
         d9:c4:ba:b9:31:df:18:3c:c7:2a:ce:e5:32:29:87:9c:fe:15:
         57:a7:72:55:ae:25:8a:14:63:95:72:56:ce:97:cb:a3:4c:ed:
         2e:e3:03:9f:28:d5:98:d1:a7:fd:ea:e6:01:c9:f4:28:55:74:
         5e:41:a8:37:98:dc:c5:79:aa:bb:f3:fd:a4:eb:8b:e3:a3:76:
         50:ed:67:de:55:24:12:37:df:90:35:6a:2c:9e:bc:cf:07:9d:
         e1:38:04:7f:39:7d:e3:84:a8:ba:b7:f8:0c:b9:72:7e:b9:d9:
         3e:b1:7a:43:ab:84:50:db:f5:0a:6f:6a:f8:1a:76:d6:e3:42:
         b8:bc:22:ba:eb:91:bb:17:3b:64:1a:53:5c:de:4d:13:f8:73:
         04:7d:db:e4:6b:3c:8c:e0:15:51:cb:88:fd:d3:2a:f8:93:e5:
         a5:9d:30:91:81:fe:53:3a:f5:4d:63:8b:ff:08:5b:e3:ff:ae:
         fb:b9:66:43:bb:14:99:26:63:74:f8:3d:d0:b6:8b:d7:64:d3:
         70:44:ed:52:8b:08:d7:53:91:59:93:93:c8:ea:6f:6d:d8:f4:
         89:fd:12:42:94:31:ad:03:85:14:84:92:95:68:f8:a8:3c:b0:
         10:2c:74:a7:15:06:d3:e5
-----BEGIN CERTIFICATE-----
MIIGrTCCBJWgAwIBAgICJHMwDQYJKoZIhvcNAQELBQAwgawxCzAJBgNVBAYTAlVT
MQswCQYDVQQIEwJPSDERMA8GA1UEBxMIQ29sdW1idXMxEjAQBgNVBAoTCVZpa2lu
Z1ZQTjEdMBsGA1UECxMUTXlPcmdhbml6YXRpb25hbFVuaXQxFTATBgNVBAMTDFZp
a2luZ1ZQTiBDQTEQMA4GA1UEKRMHRWFzeVJTQTEhMB8GCSqGSIb3DQEJARYSbWVA
bXlob3N0Lm15ZG9tYWluMB4XDTE2MTAyNjA0MjA0OFoXDTI2MTAyNDA0MjA0OFow
HzEdMBsGA1UEAxMUQ2xpZW50MjQwNUNlcnRkYzJmNTAwggIiMA0GCSqGSIb3DQEB
AQUAA4ICDwAwggIKAoICAQDuQ8azQJsm6XQbL6zRttVvbIuEDV0PXlVQnnILsigF
qvog7PY5TIJ8MDK02nju5NH/WBU4jOsMiwODPGFUuJoKzdS930R6wkqa1Hb9hWRW
zFsjJPfPdosR/YJBFJ1bR8MmRm6NoOhMsBQAO4qbo+PP8LhZnclhmoGnyiW3Msef
hEVYqJ60+2mMs2iIIo0Vsrr5XpOAETKvfSEDHxMPJWcNAayg6IAGsCTlSfpa+84f
BGHE8ceTXUz/gWYl8KuJ/mQjG6C0hoxtdJLmb94kJXSTToV5luLkzlgyKuwsAgRy
bVKYxcFnSm0WBp0H5xmCQPGsAx1pvyrVh4eM8ahLPWwmzczTViMQ/ojawjZHYkLF
QyJZZ57D5uOBKVphvt65oZ1k7WwjGKlkO/wLcT2QwPy38r5pclPx4MBRq2UYdXmK
ABu8UrXfYWKZSR5zNI9KlvSrTjL6cvbM9p2C/lDPbrJ3ql3uCPj4vqtR/4XZMY8J
jvb+dsY7QdR7wVXpt1K+J+rqBdDAgW4oIR/xzX+fuujZTQr4FGxCX9uJzV8tMIR3
zMXFUp/ddpv7y0Dj0U7CQJ5fQxsypRhfLFVh9SJRplC7lsegq8e9/GRpT2FehGgr
ywEAXxGDAwm8xyRXciyakbS7rv62/K7UjSwF4Sb7KLRWNBnXdOXYM4tODWvWqMsM
GwIDAQABo4IBYzCCAV8wCQYDVR0TBAIwADAtBglghkgBhvhCAQ0EIBYeRWFzeS1S
U0EgR2VuZXJhdGVkIENlcnRpZmljYXRlMB0GA1UdDgQWBBQ478IlVg0ogkh0/km8
NSUiYSS1bzCB4QYDVR0jBIHZMIHWgBQSzWAE0qCAnnDtxpm4eyzGUv0ZoaGBsqSB
rzCBrDELMAkGA1UEBhMCVVMxCzAJBgNVBAgTAk9IMREwDwYDVQQHEwhDb2x1bWJ1
czESMBAGA1UEChMJVmlraW5nVlBOMR0wGwYDVQQLExRNeU9yZ2FuaXphdGlvbmFs
VW5pdDEVMBMGA1UEAxMMVmlraW5nVlBOIENBMRAwDgYDVQQpEwdFYXN5UlNBMSEw
HwYJKoZIhvcNAQkBFhJtZUBteWhvc3QubXlkb21haW6CCQDPNYXugL8qPjATBgNV
HSUEDDAKBggrBgEFBQcDAjALBgNVHQ8EBAMCB4AwDQYJKoZIhvcNAQELBQADggIB
AD0h1YQKz7S8FsDFmuUPPCWVDVefoidfKQb+n4BrwZ3yptG3j9ah7YweF6+6WGfI
cWypULkueM0C/3yVzgQoEdJtlFT/0Di3MOd8S9lhejo5BNIorFkNUNwZa36xmTdu
PanVxsmflflIPZWxsmXA6VGyRzfA9WlbiGmch+4UzZVgY0u4Cf6P7+gU8yigUR+3
QRVKhhIEcjxdn8GTjJ72cTR1rrS1G3mv+IDBgCDizbdVvPzWRJGrrscJrrb3+6jb
gXi4ddBmUOENkSHt2MJXxqYQbwnUIz2KnLL29P44ADprggW0cv18IqtJraaSl7+p
8oe6XpMY/XGSFDftAYiHZw3RPrj2OVfVzt+uA09eKtnEurkx3xg8xyrO5TIph5z+
FVenclWuJYoUY5VyVs6Xy6NM7S7jA58o1ZjRp/3q5gHJ9ChVdF5BqDeY3MV5qrvz
/aTri+OjdlDtZ95VJBI335A1aiyevM8HneE4BH85feOEqLq3+Ay5cn652T6xekOr
hFDb9QpvavgadtbjQri8IrrrkbsXO2QaU1zeTRP4cwR92+RrPIzgFVHLiP3TKviT
5aWdMJGB/lM69U1ji/8IW+P/rvu5ZkO7FJkmY3T4PdC2i9dk03BE7VKLCNdTkVmT
k8jqb23Y9In9EkKUMa0DhRSEkpVo+Kg8sBAsdKcVBtPl
-----END CERTIFICATE-----
