Certificate:
    Data:
        Version: 3 (0x2)
        Serial Number: 9334 (0x2476)
    Signature Algorithm: sha256WithRSAEncryption
        Issuer: C=US, ST=OH, L=Columbus, O=VikingVPN, OU=MyOrganizationalUnit, CN=VikingVPN CA/name=EasyRSA/emailAddress=me@myhost.mydomain
        Validity
            Not Before: Oct 26 22:26:15 2016 GMT
            Not After : Oct 24 22:26:15 2026 GMT
        Subject: CN=Client2554Cert2e1230
        Subject Public Key Info:
            Public Key Algorithm: rsaEncryption
                Public-Key: (4096 bit)
                Modulus:
                    00:fc:dd:92:9b:f4:b6:a7:06:4e:10:d7:a4:77:01:
                    a5:b9:d8:a4:4c:10:36:f4:9b:ac:a1:99:32:17:0a:
                    53:1e:23:b6:02:d9:36:ad:f8:36:ce:fa:85:70:8b:
                    91:2a:31:89:8a:06:d8:66:87:fb:bd:bb:c2:f8:7f:
                    0e:d7:91:58:ec:85:ab:e0:95:cc:81:06:f5:e6:b1:
                    76:e6:3d:80:66:90:99:a6:d2:26:f0:81:a1:78:f2:
                    fc:0f:95:bb:70:6c:0f:06:b8:48:44:35:d5:b7:41:
                    ad:86:6d:32:a7:dd:0b:2c:3d:60:ce:25:a0:92:3d:
                    c2:cf:ae:ca:be:9e:3d:37:0e:2d:9d:3e:67:cf:f3:
                    63:5a:26:56:a3:0a:07:3b:37:89:ab:ca:7d:82:57:
                    fb:6d:00:d9:52:4c:39:e6:41:e8:7a:c2:04:aa:97:
                    eb:a7:50:45:c7:59:7b:3e:be:1e:56:f3:1e:c1:1f:
                    5d:c5:58:87:23:f9:f3:fe:c5:6f:67:f3:4e:e9:75:
                    0e:15:5d:0b:78:8d:40:6d:e3:14:f1:73:f1:e1:bc:
                    29:7f:ed:8d:c2:8b:20:95:b3:35:5f:a0:78:7b:3e:
                    25:8e:8d:0c:04:39:56:1b:67:ed:ed:aa:90:6f:5e:
                    01:93:98:84:1e:7b:66:6a:b8:73:38:99:eb:77:28:
                    8e:1a:0c:d7:54:eb:35:be:6e:e9:48:11:c5:0d:00:
                    04:ec:86:6e:2e:60:d5:a2:d2:1a:53:be:62:19:fd:
                    a9:7f:c7:68:b5:4e:60:b7:55:1b:fa:58:0f:9d:f1:
                    73:0d:2f:11:97:47:e6:56:cf:cd:aa:8f:d8:e5:0b:
                    ac:e7:29:87:54:d8:2c:fc:f4:fc:e3:83:2a:87:ac:
                    47:07:8b:56:68:48:a7:ca:76:82:0a:95:55:6b:f0:
                    85:eb:74:26:aa:e0:b6:e6:65:5e:3c:b0:f3:59:8c:
                    6c:05:d7:57:a2:7f:1f:63:a6:2c:97:4c:02:d7:46:
                    aa:07:1c:87:1a:95:6d:78:29:a1:ec:80:83:bd:c8:
                    6b:a5:2e:61:d4:d8:55:a9:77:19:7e:1e:83:df:01:
                    bd:46:30:4a:d2:0b:02:ac:68:58:02:44:17:1f:54:
                    cb:26:fc:54:51:57:4b:06:18:aa:da:57:a9:e6:1c:
                    0a:b9:0f:ba:3f:3b:9c:99:93:1c:5e:b4:21:41:71:
                    ea:cc:e8:d9:d6:78:bb:68:8a:3f:af:74:6a:22:b5:
                    39:ca:20:d1:97:61:45:3a:8e:ef:d7:22:02:d6:7e:
                    99:7d:22:bf:8d:b5:32:00:df:e8:24:23:fe:a7:d0:
                    85:5f:ca:69:c4:31:51:d6:22:2a:fa:da:48:3f:fb:
                    9b:69:ef
                Exponent: 65537 (0x10001)
        X509v3 extensions:
            X509v3 Basic Constraints: 
                CA:FALSE
            Netscape Comment: 
                Easy-RSA Generated Certificate
            X509v3 Subject Key Identifier: 
                A2:D5:37:A8:09:5B:3C:5B:4B:37:35:DE:34:FF:13:C7:46:CE:3F:8C
            X509v3 Authority Key Identifier: 
                keyid:12:CD:60:04:D2:A0:80:9E:70:ED:C6:99:B8:7B:2C:C6:52:FD:19:A1
                DirName:/C=US/ST=OH/L=Columbus/O=VikingVPN/OU=MyOrganizationalUnit/CN=VikingVPN CA/name=EasyRSA/emailAddress=me@myhost.mydomain
                serial:CF:35:85:EE:80:BF:2A:3E

            X509v3 Extended Key Usage: 
                TLS Web Client Authentication
            X509v3 Key Usage: 
                Digital Signature
    Signature Algorithm: sha256WithRSAEncryption
         2a:9f:1b:67:b2:5b:94:06:07:3a:90:b6:cc:84:f0:fc:d9:08:
         43:db:92:db:1d:6a:05:da:68:a9:48:2c:9e:01:6d:dd:e5:5e:
         e7:3f:70:02:1a:52:d7:22:dd:7c:8e:e9:f0:57:59:ae:6f:dc:
         46:e2:f8:a8:2b:87:44:98:15:b4:68:08:bd:28:8e:83:03:7c:
         e0:f3:4f:6e:ea:36:b9:64:a6:c4:cd:07:40:71:73:76:2b:0f:
         32:f8:cb:c1:96:6f:95:50:28:70:32:2d:7e:3f:5f:76:23:b5:
         1b:13:89:e5:87:15:b2:c3:9b:90:3c:d1:a7:2e:85:65:0d:a0:
         09:52:a9:19:b5:60:e5:52:d9:ab:a6:1f:98:7c:db:72:15:53:
         bb:c4:d7:97:b9:dd:88:c6:a2:c3:50:3b:eb:b8:0c:34:81:ce:
         12:df:c4:d8:84:b1:cc:9b:7b:67:52:2e:35:ba:8b:70:d2:e5:
         3b:4a:47:55:e2:88:65:63:59:df:0d:96:9c:19:84:90:9b:50:
         4c:1a:52:74:16:ae:ca:b7:37:2a:9a:3c:d8:8d:ef:69:a6:49:
         09:5c:c4:19:52:8d:70:98:da:c1:81:2f:6b:6a:a7:7f:1e:df:
         a5:5f:8b:05:f7:d7:1c:21:cd:5d:38:66:b2:78:a6:57:6a:c6:
         b7:cb:ab:c0:83:ea:2b:c2:57:ad:48:8b:d7:80:e7:3f:f8:aa:
         84:ef:50:ae:27:00:30:65:2c:96:31:f4:a1:7d:8a:a0:cd:1a:
         2b:3c:e7:35:10:34:85:db:55:82:e8:80:c8:45:08:93:36:ba:
         68:a1:3e:3e:87:cb:dc:79:7a:5c:86:8e:df:6b:b2:e5:67:b6:
         4b:a3:9e:f2:7c:bc:cf:b5:a0:f1:c7:9c:49:c3:33:27:9c:02:
         5b:f6:09:6e:59:c1:b3:29:78:6b:94:07:53:74:c5:c8:4d:29:
         0d:8a:7c:76:16:f8:08:9e:7d:fc:cf:51:5b:a8:2b:42:54:73:
         fa:aa:af:8f:00:7e:c7:d7:37:06:0a:68:6d:63:01:7d:72:38:
         d2:be:a5:6c:c4:04:3c:dd:2b:90:1b:d4:b9:d4:a9:a7:9b:23:
         40:eb:5b:c2:d2:a6:35:25:df:9a:42:02:1b:2d:30:79:eb:ca:
         24:3d:bc:5f:d5:dc:51:65:e4:64:4e:1e:f3:93:ca:8c:95:3f:
         ff:d6:2b:b1:bf:de:4a:e1:df:25:3c:68:12:a7:2a:71:90:ef:
         78:bd:bf:59:ef:07:e9:17:8d:6c:84:d4:7c:d5:b0:ab:1e:8d:
         ea:f6:2d:04:f4:55:b0:6f:f9:71:76:0a:c9:11:f2:75:c8:c4:
         69:07:f3:56:b6:72:7e:86
-----BEGIN CERTIFICATE-----
MIIGrTCCBJWgAwIBAgICJHYwDQYJKoZIhvcNAQELBQAwgawxCzAJBgNVBAYTAlVT
MQswCQYDVQQIEwJPSDERMA8GA1UEBxMIQ29sdW1idXMxEjAQBgNVBAoTCVZpa2lu
Z1ZQTjEdMBsGA1UECxMUTXlPcmdhbml6YXRpb25hbFVuaXQxFTATBgNVBAMTDFZp
a2luZ1ZQTiBDQTEQMA4GA1UEKRMHRWFzeVJTQTEhMB8GCSqGSIb3DQEJARYSbWVA
bXlob3N0Lm15ZG9tYWluMB4XDTE2MTAyNjIyMjYxNVoXDTI2MTAyNDIyMjYxNVow
HzEdMBsGA1UEAxMUQ2xpZW50MjU1NENlcnQyZTEyMzAwggIiMA0GCSqGSIb3DQEB
AQUAA4ICDwAwggIKAoICAQD83ZKb9LanBk4Q16R3AaW52KRMEDb0m6yhmTIXClMe
I7YC2Tat+DbO+oVwi5EqMYmKBthmh/u9u8L4fw7XkVjshavglcyBBvXmsXbmPYBm
kJmm0ibwgaF48vwPlbtwbA8GuEhENdW3Qa2GbTKn3QssPWDOJaCSPcLPrsq+nj03
Di2dPmfP82NaJlajCgc7N4mryn2CV/ttANlSTDnmQeh6wgSql+unUEXHWXs+vh5W
8x7BH13FWIcj+fP+xW9n807pdQ4VXQt4jUBt4xTxc/HhvCl/7Y3CiyCVszVfoHh7
PiWOjQwEOVYbZ+3tqpBvXgGTmIQee2ZquHM4met3KI4aDNdU6zW+bulIEcUNAATs
hm4uYNWi0hpTvmIZ/al/x2i1TmC3VRv6WA+d8XMNLxGXR+ZWz82qj9jlC6znKYdU
2Cz89PzjgyqHrEcHi1ZoSKfKdoIKlVVr8IXrdCaq4LbmZV48sPNZjGwF11eifx9j
piyXTALXRqoHHIcalW14KaHsgIO9yGulLmHU2FWpdxl+HoPfAb1GMErSCwKsaFgC
RBcfVMsm/FRRV0sGGKraV6nmHAq5D7o/O5yZkxxetCFBcerM6NnWeLtoij+vdGoi
tTnKINGXYUU6ju/XIgLWfpl9Ir+NtTIA3+gkI/6n0IVfymnEMVHWIir62kg/+5tp
7wIDAQABo4IBYzCCAV8wCQYDVR0TBAIwADAtBglghkgBhvhCAQ0EIBYeRWFzeS1S
U0EgR2VuZXJhdGVkIENlcnRpZmljYXRlMB0GA1UdDgQWBBSi1TeoCVs8W0s3Nd40
/xPHRs4/jDCB4QYDVR0jBIHZMIHWgBQSzWAE0qCAnnDtxpm4eyzGUv0ZoaGBsqSB
rzCBrDELMAkGA1UEBhMCVVMxCzAJBgNVBAgTAk9IMREwDwYDVQQHEwhDb2x1bWJ1
czESMBAGA1UEChMJVmlraW5nVlBOMR0wGwYDVQQLExRNeU9yZ2FuaXphdGlvbmFs
VW5pdDEVMBMGA1UEAxMMVmlraW5nVlBOIENBMRAwDgYDVQQpEwdFYXN5UlNBMSEw
HwYJKoZIhvcNAQkBFhJtZUBteWhvc3QubXlkb21haW6CCQDPNYXugL8qPjATBgNV
HSUEDDAKBggrBgEFBQcDAjALBgNVHQ8EBAMCB4AwDQYJKoZIhvcNAQELBQADggIB
ACqfG2eyW5QGBzqQtsyE8PzZCEPbktsdagXaaKlILJ4Bbd3lXuc/cAIaUtci3XyO
6fBXWa5v3Ebi+Kgrh0SYFbRoCL0ojoMDfODzT27qNrlkpsTNB0Bxc3YrDzL4y8GW
b5VQKHAyLX4/X3YjtRsTieWHFbLDm5A80acuhWUNoAlSqRm1YOVS2aumH5h823IV
U7vE15e53YjGosNQO+u4DDSBzhLfxNiEscybe2dSLjW6i3DS5TtKR1XiiGVjWd8N
lpwZhJCbUEwaUnQWrsq3NyqaPNiN72mmSQlcxBlSjXCY2sGBL2tqp38e36VfiwX3
1xwhzV04ZrJ4pldqxrfLq8CD6ivCV61Ii9eA5z/4qoTvUK4nADBlLJYx9KF9iqDN
Gis85zUQNIXbVYLogMhFCJM2umihPj6Hy9x5elyGjt9rsuVntkujnvJ8vM+1oPHH
nEnDMyecAlv2CW5ZwbMpeGuUB1N0xchNKQ2KfHYW+AieffzPUVuoK0JUc/qqr48A
fsfXNwYKaG1jAX1yONK+pWzEBDzdK5Ab1LnUqaebI0DrW8LSpjUl35pCAhstMHnr
yiQ9vF/V3FFl5GROHvOTyoyVP//WK7G/3krh3yU8aBKnKnGQ73i9v1nvB+kXjWyE
1HzVsKsejer2LQT0VbBv+XF2CskR8nXIxGkH81a2cn6G
-----END CERTIFICATE-----
