Certificate:
    Data:
        Version: 3 (0x2)
        Serial Number: 9335 (0x2477)
    Signature Algorithm: sha256WithRSAEncryption
        Issuer: C=US, ST=OH, L=Columbus, O=VikingVPN, OU=MyOrganizationalUnit, CN=VikingVPN CA/name=EasyRSA/emailAddress=me@myhost.mydomain
        Validity
            Not Before: Oct 26 22:44:41 2016 GMT
            Not After : Oct 24 22:44:41 2026 GMT
        Subject: CN=Client2556Cert1d38d0
        Subject Public Key Info:
            Public Key Algorithm: rsaEncryption
                Public-Key: (4096 bit)
                Modulus:
                    00:d9:f8:c5:2e:10:a2:af:ee:e8:25:ec:09:ba:c8:
                    63:a2:5f:09:b9:dd:cf:83:1a:e6:db:2e:e0:f6:bb:
                    7c:5d:ff:ff:30:3f:ee:99:98:e1:13:70:12:65:91:
                    b5:63:6d:17:be:dc:e3:65:f7:1c:18:84:cd:04:5b:
                    c3:c0:ae:b5:57:af:1d:cf:ca:7c:04:28:78:4d:b6:
                    ae:60:f9:d5:29:bd:b8:da:e8:68:6f:dc:9e:8b:a2:
                    c7:44:6f:09:e1:b3:1e:42:dd:8d:74:0b:ed:41:0e:
                    fc:b6:fa:45:7f:95:4c:c4:2c:b7:99:38:5d:f9:a6:
                    be:82:6a:74:c1:b7:cb:a3:33:3a:3d:57:f2:98:7a:
                    d1:98:b7:fe:40:0c:55:53:4f:ff:5c:57:a6:8c:04:
                    44:f2:a3:66:32:72:4b:55:82:bd:6e:12:25:cf:13:
                    a7:1b:17:0f:8c:20:1a:cd:45:50:70:45:57:9f:4f:
                    88:84:80:50:67:d1:d3:51:71:77:ff:81:6a:dc:5a:
                    8f:17:16:30:31:db:c7:35:45:67:fb:73:81:e3:df:
                    28:d7:93:c1:d2:3d:4b:ce:8b:b0:09:4e:59:5e:96:
                    34:eb:a7:03:82:07:72:b4:e2:40:5b:54:89:82:f0:
                    6a:a8:46:24:55:26:55:ec:10:8b:78:1d:67:82:27:
                    40:6e:28:9c:58:e2:d4:41:18:dd:38:10:09:14:a6:
                    ff:d4:f0:c8:57:00:2a:26:db:de:04:43:1b:99:85:
                    05:35:1d:2e:33:bd:cb:80:85:25:4b:56:05:66:45:
                    e7:97:46:1c:af:6e:ae:cf:40:07:2d:97:e5:2b:1a:
                    62:d2:b1:17:c2:81:ad:d5:ce:15:1c:a7:04:a2:8f:
                    e3:24:d4:c2:ef:d6:a1:bc:9d:51:4f:d1:6c:5d:53:
                    4d:f2:b3:b7:30:9e:75:8b:81:de:73:a7:73:c1:29:
                    94:16:58:eb:5f:bb:37:bc:a2:1a:01:2e:41:c0:6c:
                    7d:fe:91:d1:31:ee:67:9e:64:7a:2a:df:cb:4c:11:
                    e9:5e:33:ee:02:34:e4:56:3d:87:a2:8a:ca:8a:e5:
                    fd:6c:5c:fb:5b:89:22:2a:73:8a:54:a5:7d:75:41:
                    37:e5:f7:12:fa:6a:49:f2:0d:b7:a7:8e:43:25:07:
                    c3:ea:b0:7d:bc:b7:38:a1:a6:c0:4d:a6:ef:aa:3e:
                    11:a0:b7:4c:64:e0:12:49:61:30:12:d1:87:09:79:
                    16:79:5a:89:de:a6:48:57:5c:37:25:5e:ea:0b:04:
                    25:2f:e4:7d:5a:1b:d0:69:20:c7:37:dd:e8:01:65:
                    71:8a:7c:21:7a:ce:a0:1b:2a:c7:61:7c:14:9a:d0:
                    d2:f5:d7
                Exponent: 65537 (0x10001)
        X509v3 extensions:
            X509v3 Basic Constraints: 
                CA:FALSE
            Netscape Comment: 
                Easy-RSA Generated Certificate
            X509v3 Subject Key Identifier: 
                2C:A2:A0:17:F1:C9:F7:16:62:1B:36:DA:CE:CA:5D:6E:3A:7E:33:76
            X509v3 Authority Key Identifier: 
                keyid:12:CD:60:04:D2:A0:80:9E:70:ED:C6:99:B8:7B:2C:C6:52:FD:19:A1
                DirName:/C=US/ST=OH/L=Columbus/O=VikingVPN/OU=MyOrganizationalUnit/CN=VikingVPN CA/name=EasyRSA/emailAddress=me@myhost.mydomain
                serial:CF:35:85:EE:80:BF:2A:3E

            X509v3 Extended Key Usage: 
                TLS Web Client Authentication
            X509v3 Key Usage: 
                Digital Signature
    Signature Algorithm: sha256WithRSAEncryption
         9c:28:1a:08:c8:d1:45:0d:22:9c:6c:5c:6b:6f:88:49:0a:62:
         f9:8e:80:97:da:a0:c6:0b:a0:a6:19:10:8a:8e:54:96:6b:ea:
         29:b6:12:7a:1a:3a:b8:4c:53:96:92:50:d9:14:bd:bc:14:c0:
         e8:cb:b9:5c:78:4c:68:ce:9b:7c:cf:2b:35:83:1d:64:c1:89:
         ba:45:bd:75:6b:b2:a5:66:d7:04:d2:b8:60:63:2e:0a:00:93:
         1a:cd:c1:0f:c8:d1:6c:56:74:94:28:c2:a0:55:92:9d:a7:d3:
         95:de:1c:13:c1:1b:7e:c0:af:54:ec:74:8d:c0:59:68:1f:0b:
         80:2d:44:16:6d:70:ca:bb:98:6a:50:36:c4:38:f8:01:40:dc:
         1e:ad:99:47:2d:1e:da:93:9f:7f:54:f4:08:cf:ec:07:30:cc:
         89:3f:b6:3d:c5:e7:05:7e:c2:74:e4:5f:5f:59:f9:f8:93:00:
         a2:fa:9e:57:28:5c:04:bc:a3:32:2c:dd:8a:63:66:7c:a0:2e:
         26:ad:ef:45:26:a6:d7:90:87:7f:8c:df:cd:00:59:15:54:7e:
         9c:37:a1:3f:24:f5:a2:36:4e:d5:13:d4:7c:c6:eb:7d:c4:bd:
         87:f5:83:6e:32:62:4e:2c:8e:e4:4c:72:c4:16:06:39:7f:be:
         54:46:7b:74:62:b5:b9:ed:3f:a0:23:79:66:1a:43:0b:e2:e7:
         e3:53:94:0d:3a:95:75:bc:df:fc:e2:7f:5a:db:cc:d7:41:aa:
         c4:2f:48:5c:d3:9c:9b:54:99:04:8e:93:82:03:e0:db:c4:93:
         36:4b:29:fe:4d:e1:40:ce:e7:0b:bf:ab:ec:98:cd:51:7c:b9:
         0c:e4:2a:0c:57:b8:be:0c:55:6a:10:f9:c1:5a:5f:ed:f9:84:
         cc:d6:04:6b:1b:00:01:81:98:46:9f:b1:65:f7:6e:50:3f:56:
         70:54:f3:43:c3:4f:c3:54:57:77:08:7e:9c:a3:2e:f2:f6:cc:
         dc:05:10:5e:d2:fc:ac:03:7b:a6:7e:2a:de:27:52:c7:95:a5:
         10:34:a9:1b:70:c1:c2:28:e7:dd:b5:27:12:eb:ff:28:39:a9:
         dd:39:f5:6c:f8:0f:c7:75:08:59:4c:c7:f3:3b:af:38:ad:9c:
         84:35:2e:a8:7c:89:53:05:d0:97:5a:3d:c3:28:21:c5:c6:ce:
         88:a3:99:01:78:06:ac:c2:9e:26:20:41:ad:84:2f:e0:c0:be:
         8e:65:af:4b:79:2e:fd:e3:54:cd:0f:61:50:b8:11:2d:61:53:
         39:d8:e3:c3:6e:a0:e2:13:1e:44:b7:90:77:62:91:03:8c:76:
         cf:6c:43:f0:e3:29:09:62
-----BEGIN CERTIFICATE-----
MIIGrTCCBJWgAwIBAgICJHcwDQYJKoZIhvcNAQELBQAwgawxCzAJBgNVBAYTAlVT
MQswCQYDVQQIEwJPSDERMA8GA1UEBxMIQ29sdW1idXMxEjAQBgNVBAoTCVZpa2lu
Z1ZQTjEdMBsGA1UECxMUTXlPcmdhbml6YXRpb25hbFVuaXQxFTATBgNVBAMTDFZp
a2luZ1ZQTiBDQTEQMA4GA1UEKRMHRWFzeVJTQTEhMB8GCSqGSIb3DQEJARYSbWVA
bXlob3N0Lm15ZG9tYWluMB4XDTE2MTAyNjIyNDQ0MVoXDTI2MTAyNDIyNDQ0MVow
HzEdMBsGA1UEAxMUQ2xpZW50MjU1NkNlcnQxZDM4ZDAwggIiMA0GCSqGSIb3DQEB
AQUAA4ICDwAwggIKAoICAQDZ+MUuEKKv7ugl7Am6yGOiXwm53c+DGubbLuD2u3xd
//8wP+6ZmOETcBJlkbVjbRe+3ONl9xwYhM0EW8PArrVXrx3PynwEKHhNtq5g+dUp
vbja6Ghv3J6LosdEbwnhsx5C3Y10C+1BDvy2+kV/lUzELLeZOF35pr6CanTBt8uj
Mzo9V/KYetGYt/5ADFVTT/9cV6aMBETyo2YycktVgr1uEiXPE6cbFw+MIBrNRVBw
RVefT4iEgFBn0dNRcXf/gWrcWo8XFjAx28c1RWf7c4Hj3yjXk8HSPUvOi7AJTlle
ljTrpwOCB3K04kBbVImC8GqoRiRVJlXsEIt4HWeCJ0BuKJxY4tRBGN04EAkUpv/U
8MhXACom294EQxuZhQU1HS4zvcuAhSVLVgVmReeXRhyvbq7PQActl+UrGmLSsRfC
ga3VzhUcpwSij+Mk1MLv1qG8nVFP0WxdU03ys7cwnnWLgd5zp3PBKZQWWOtfuze8
ohoBLkHAbH3+kdEx7meeZHoq38tMEeleM+4CNORWPYeiisqK5f1sXPtbiSIqc4pU
pX11QTfl9xL6aknyDbenjkMlB8PqsH28tzihpsBNpu+qPhGgt0xk4BJJYTAS0YcJ
eRZ5WonepkhXXDclXuoLBCUv5H1aG9BpIMc33egBZXGKfCF6zqAbKsdhfBSa0NL1
1wIDAQABo4IBYzCCAV8wCQYDVR0TBAIwADAtBglghkgBhvhCAQ0EIBYeRWFzeS1S
U0EgR2VuZXJhdGVkIENlcnRpZmljYXRlMB0GA1UdDgQWBBQsoqAX8cn3FmIbNtrO
yl1uOn4zdjCB4QYDVR0jBIHZMIHWgBQSzWAE0qCAnnDtxpm4eyzGUv0ZoaGBsqSB
rzCBrDELMAkGA1UEBhMCVVMxCzAJBgNVBAgTAk9IMREwDwYDVQQHEwhDb2x1bWJ1
czESMBAGA1UEChMJVmlraW5nVlBOMR0wGwYDVQQLExRNeU9yZ2FuaXphdGlvbmFs
VW5pdDEVMBMGA1UEAxMMVmlraW5nVlBOIENBMRAwDgYDVQQpEwdFYXN5UlNBMSEw
HwYJKoZIhvcNAQkBFhJtZUBteWhvc3QubXlkb21haW6CCQDPNYXugL8qPjATBgNV
HSUEDDAKBggrBgEFBQcDAjALBgNVHQ8EBAMCB4AwDQYJKoZIhvcNAQELBQADggIB
AJwoGgjI0UUNIpxsXGtviEkKYvmOgJfaoMYLoKYZEIqOVJZr6im2EnoaOrhMU5aS
UNkUvbwUwOjLuVx4TGjOm3zPKzWDHWTBibpFvXVrsqVm1wTSuGBjLgoAkxrNwQ/I
0WxWdJQowqBVkp2n05XeHBPBG37Ar1TsdI3AWWgfC4AtRBZtcMq7mGpQNsQ4+AFA
3B6tmUctHtqTn39U9AjP7AcwzIk/tj3F5wV+wnTkX19Z+fiTAKL6nlcoXAS8ozIs
3YpjZnygLiat70UmpteQh3+M380AWRVUfpw3oT8k9aI2TtUT1HzG633EvYf1g24y
Yk4sjuRMcsQWBjl/vlRGe3RitbntP6AjeWYaQwvi5+NTlA06lXW83/zif1rbzNdB
qsQvSFzTnJtUmQSOk4ID4NvEkzZLKf5N4UDO5wu/q+yYzVF8uQzkKgxXuL4MVWoQ
+cFaX+35hMzWBGsbAAGBmEafsWX3blA/VnBU80PDT8NUV3cIfpyjLvL2zNwFEF7S
/KwDe6Z+Kt4nUseVpRA0qRtwwcIo5921JxLr/yg5qd059Wz4D8d1CFlMx/M7rzit
nIQ1Lqh8iVMF0JdaPcMoIcXGzoijmQF4BqzCniYgQa2EL+DAvo5lr0t5Lv3jVM0P
YVC4ES1hUznY48NuoOITHkS3kHdikQOMds9sQ/DjKQli
-----END CERTIFICATE-----
