Certificate:
    Data:
        Version: 3 (0x2)
        Serial Number: 9341 (0x247d)
    Signature Algorithm: sha256WithRSAEncryption
        Issuer: C=US, ST=OH, L=Columbus, O=VikingVPN, OU=MyOrganizationalUnit, CN=VikingVPN CA/name=EasyRSA/emailAddress=me@myhost.mydomain
        Validity
            Not Before: Oct 27 23:58:15 2016 GMT
            Not After : Oct 25 23:58:15 2026 GMT
        Subject: CN=Client2547Cert36913a
        Subject Public Key Info:
            Public Key Algorithm: rsaEncryption
                Public-Key: (4096 bit)
                Modulus:
                    00:db:05:c2:ac:54:0c:9b:17:c8:29:69:c6:8b:27:
                    0f:da:d7:8e:de:4f:5c:50:63:17:fb:d7:20:d7:86:
                    84:60:90:9f:f8:0a:d5:37:82:5a:05:ee:83:a0:6a:
                    28:15:cd:8b:ab:52:16:50:92:81:66:98:d0:58:97:
                    1b:e3:d0:a9:ed:4f:6b:4a:14:40:76:c5:99:dd:a1:
                    8e:17:71:f3:05:1b:7a:94:38:59:de:cf:4e:e5:2b:
                    ed:9b:2c:d8:ed:43:dd:8b:a9:dd:72:d8:81:93:c1:
                    45:e3:d1:93:f1:5a:cd:28:c7:03:22:e6:6e:90:cc:
                    fd:b3:3b:e3:f6:d6:b1:10:11:ad:5c:99:25:66:7a:
                    3f:59:37:ed:8f:03:32:75:bd:3e:6d:79:31:d1:c6:
                    57:9c:f2:6f:8e:f5:d3:10:6e:0a:2c:6a:71:95:11:
                    36:3e:1e:47:4e:d1:38:4a:57:44:16:68:96:22:ca:
                    c4:39:85:b4:8c:a2:1d:f8:4c:b4:dc:6c:66:c7:8c:
                    8e:e2:c3:11:15:52:76:8b:74:16:23:83:3a:8b:bc:
                    41:b2:56:39:8e:5a:d1:51:01:cc:03:1d:07:35:84:
                    f0:07:b1:ff:ec:b8:05:90:f1:ef:1e:c6:bf:2b:1a:
                    83:af:0a:4d:28:c8:56:65:e3:3e:02:14:d3:12:b1:
                    17:9e:bd:8c:82:63:25:ad:cd:95:09:da:8f:20:52:
                    e2:0b:84:64:05:82:fc:2d:93:ab:c8:4a:e7:e6:6d:
                    98:34:90:71:b9:6f:80:70:b1:a2:1d:12:a3:6c:ff:
                    f6:93:24:9c:29:3c:96:27:0e:51:a2:d4:22:09:d0:
                    5a:af:3f:60:09:34:22:1d:78:8d:d5:f7:8c:04:17:
                    27:0a:9d:85:b7:9c:83:6b:72:3b:95:c7:57:bb:85:
                    96:97:d4:49:7c:4f:1f:7e:ac:2b:e0:9f:41:26:cc:
                    61:e5:20:36:61:e4:04:06:bb:43:2f:42:25:5e:ef:
                    67:8b:47:15:8f:e1:04:29:25:09:29:a6:88:5a:c7:
                    cf:bf:19:7b:5c:19:3e:7e:38:d4:cb:64:3c:95:21:
                    db:4b:2b:26:79:b8:fa:66:34:cc:4b:2f:fe:9b:0a:
                    b8:5d:aa:4c:de:00:dd:41:43:ef:57:e0:12:a8:d9:
                    28:a9:8b:1c:99:9a:85:03:6d:f4:73:79:b3:f0:2a:
                    5b:5e:ba:fd:30:e5:1e:b6:24:30:91:d4:22:70:4a:
                    8a:16:72:45:cb:85:5a:6a:d0:0d:e7:f5:81:02:b5:
                    2e:44:32:bb:af:26:ce:3b:04:4d:e4:74:9b:07:a4:
                    ea:2c:c5:3b:10:6d:bf:ca:43:47:07:e0:4f:40:6a:
                    b8:4a:21
                Exponent: 65537 (0x10001)
        X509v3 extensions:
            X509v3 Basic Constraints: 
                CA:FALSE
            Netscape Comment: 
                Easy-RSA Generated Certificate
            X509v3 Subject Key Identifier: 
                72:25:E3:1E:9E:58:0B:E2:5B:5C:EC:23:FC:E7:C8:DB:A2:4B:56:DB
            X509v3 Authority Key Identifier: 
                keyid:12:CD:60:04:D2:A0:80:9E:70:ED:C6:99:B8:7B:2C:C6:52:FD:19:A1
                DirName:/C=US/ST=OH/L=Columbus/O=VikingVPN/OU=MyOrganizationalUnit/CN=VikingVPN CA/name=EasyRSA/emailAddress=me@myhost.mydomain
                serial:CF:35:85:EE:80:BF:2A:3E

            X509v3 Extended Key Usage: 
                TLS Web Client Authentication
            X509v3 Key Usage: 
                Digital Signature
    Signature Algorithm: sha256WithRSAEncryption
         80:99:92:2b:53:7c:38:e8:d9:7d:18:cf:c7:18:47:e5:bd:fa:
         ee:c9:5c:bb:21:3b:7d:26:f1:23:f5:57:7a:2a:04:d1:fc:ee:
         72:05:2b:b5:bd:2b:e5:16:e5:54:d1:79:54:b4:ef:e0:73:ea:
         4b:4a:e6:48:d8:83:09:68:b5:07:eb:34:d7:5a:0e:e9:cc:da:
         38:bc:e5:23:5f:02:fc:57:f8:70:3e:88:54:75:15:b3:76:59:
         d4:fb:10:c2:66:60:be:dd:7e:d7:96:6b:67:0c:ba:fa:7c:53:
         b2:fb:bc:79:bb:14:79:55:a9:4a:f4:50:4b:91:97:87:d6:ff:
         41:5e:c3:76:c2:50:51:95:84:c1:30:3e:89:61:6d:64:fc:f4:
         22:c3:5e:bc:b1:72:87:af:32:c6:89:70:4f:64:c2:e7:81:66:
         7a:42:28:76:39:44:2e:79:e3:97:49:a7:7d:a8:af:f1:89:e6:
         f3:89:24:08:f9:77:b7:eb:d4:6a:59:fc:01:a7:d4:c4:46:1a:
         f2:6c:95:db:08:98:18:ab:e6:8a:78:4d:34:b5:5c:98:1f:25:
         ab:0c:c9:6f:b6:f3:d1:63:c1:ff:6a:26:19:4e:a3:3e:2f:36:
         1d:ac:50:60:db:2c:ad:99:df:00:5f:e7:62:12:57:a4:ab:83:
         48:9b:61:ee:ad:6c:b0:39:96:4d:2f:f4:a7:34:b8:c3:54:61:
         33:ee:27:e6:27:25:54:55:06:08:f9:4b:82:ad:59:ae:b0:db:
         f0:64:ff:97:95:35:ef:ca:0c:23:a1:b5:f1:18:63:d9:c8:54:
         80:0b:81:96:c3:8d:99:db:ae:dc:02:1f:13:50:f2:86:40:23:
         e6:68:9a:cc:b9:8a:23:17:81:38:d0:54:a6:10:4b:7e:7e:85:
         44:d1:bc:5e:18:8f:c3:6c:96:e3:2b:82:f4:df:8b:da:17:62:
         5d:f5:18:38:e6:01:df:87:92:27:20:cd:79:4f:54:a4:b9:b1:
         4e:a6:cf:14:62:e2:eb:09:c0:ac:9e:9c:ae:61:a9:9f:80:39:
         99:79:17:31:97:00:01:8d:39:c5:f4:3d:82:f8:69:e1:c6:20:
         8a:f0:e4:6a:83:96:d3:77:dd:da:3d:73:a0:66:a4:7e:6d:53:
         40:6a:32:70:1d:80:06:4c:d4:c1:17:72:8b:a9:ec:18:14:99:
         8f:93:3c:97:f4:26:9e:e0:27:85:15:86:ed:cd:33:f9:fc:e4:
         05:90:29:e8:8a:8b:f6:66:52:75:6e:4d:cb:62:33:15:14:52:
         09:9f:cf:48:03:98:e9:da:54:cc:b3:9d:db:02:a6:1a:67:75:
         d0:71:6e:db:1b:a5:56:0d
-----BEGIN CERTIFICATE-----
MIIGrTCCBJWgAwIBAgICJH0wDQYJKoZIhvcNAQELBQAwgawxCzAJBgNVBAYTAlVT
MQswCQYDVQQIEwJPSDERMA8GA1UEBxMIQ29sdW1idXMxEjAQBgNVBAoTCVZpa2lu
Z1ZQTjEdMBsGA1UECxMUTXlPcmdhbml6YXRpb25hbFVuaXQxFTATBgNVBAMTDFZp
a2luZ1ZQTiBDQTEQMA4GA1UEKRMHRWFzeVJTQTEhMB8GCSqGSIb3DQEJARYSbWVA
bXlob3N0Lm15ZG9tYWluMB4XDTE2MTAyNzIzNTgxNVoXDTI2MTAyNTIzNTgxNVow
HzEdMBsGA1UEAxMUQ2xpZW50MjU0N0NlcnQzNjkxM2EwggIiMA0GCSqGSIb3DQEB
AQUAA4ICDwAwggIKAoICAQDbBcKsVAybF8gpacaLJw/a147eT1xQYxf71yDXhoRg
kJ/4CtU3gloF7oOgaigVzYurUhZQkoFmmNBYlxvj0KntT2tKFEB2xZndoY4XcfMF
G3qUOFnez07lK+2bLNjtQ92Lqd1y2IGTwUXj0ZPxWs0oxwMi5m6QzP2zO+P21rEQ
Ea1cmSVmej9ZN+2PAzJ1vT5teTHRxlec8m+O9dMQbgosanGVETY+HkdO0ThKV0QW
aJYiysQ5hbSMoh34TLTcbGbHjI7iwxEVUnaLdBYjgzqLvEGyVjmOWtFRAcwDHQc1
hPAHsf/suAWQ8e8exr8rGoOvCk0oyFZl4z4CFNMSsReevYyCYyWtzZUJ2o8gUuIL
hGQFgvwtk6vISufmbZg0kHG5b4BwsaIdEqNs//aTJJwpPJYnDlGi1CIJ0FqvP2AJ
NCIdeI3V94wEFycKnYW3nINrcjuVx1e7hZaX1El8Tx9+rCvgn0EmzGHlIDZh5AQG
u0MvQiVe72eLRxWP4QQpJQkppohax8+/GXtcGT5+ONTLZDyVIdtLKyZ5uPpmNMxL
L/6bCrhdqkzeAN1BQ+9X4BKo2SipixyZmoUDbfRzebPwKlteuv0w5R62JDCR1CJw
SooWckXLhVpq0A3n9YECtS5EMruvJs47BE3kdJsHpOosxTsQbb/KQ0cH4E9AarhK
IQIDAQABo4IBYzCCAV8wCQYDVR0TBAIwADAtBglghkgBhvhCAQ0EIBYeRWFzeS1S
U0EgR2VuZXJhdGVkIENlcnRpZmljYXRlMB0GA1UdDgQWBBRyJeMenlgL4ltc7CP8
58jboktW2zCB4QYDVR0jBIHZMIHWgBQSzWAE0qCAnnDtxpm4eyzGUv0ZoaGBsqSB
rzCBrDELMAkGA1UEBhMCVVMxCzAJBgNVBAgTAk9IMREwDwYDVQQHEwhDb2x1bWJ1
czESMBAGA1UEChMJVmlraW5nVlBOMR0wGwYDVQQLExRNeU9yZ2FuaXphdGlvbmFs
VW5pdDEVMBMGA1UEAxMMVmlraW5nVlBOIENBMRAwDgYDVQQpEwdFYXN5UlNBMSEw
HwYJKoZIhvcNAQkBFhJtZUBteWhvc3QubXlkb21haW6CCQDPNYXugL8qPjATBgNV
HSUEDDAKBggrBgEFBQcDAjALBgNVHQ8EBAMCB4AwDQYJKoZIhvcNAQELBQADggIB
AICZkitTfDjo2X0Yz8cYR+W9+u7JXLshO30m8SP1V3oqBNH87nIFK7W9K+UW5VTR
eVS07+Bz6ktK5kjYgwlotQfrNNdaDunM2ji85SNfAvxX+HA+iFR1FbN2WdT7EMJm
YL7dfteWa2cMuvp8U7L7vHm7FHlVqUr0UEuRl4fW/0Few3bCUFGVhMEwPolhbWT8
9CLDXryxcoevMsaJcE9kwueBZnpCKHY5RC5545dJp32or/GJ5vOJJAj5d7fr1GpZ
/AGn1MRGGvJsldsImBir5op4TTS1XJgfJasMyW+289Fjwf9qJhlOoz4vNh2sUGDb
LK2Z3wBf52ISV6Srg0ibYe6tbLA5lk0v9Kc0uMNUYTPuJ+YnJVRVBgj5S4KtWa6w
2/Bk/5eVNe/KDCOhtfEYY9nIVIALgZbDjZnbrtwCHxNQ8oZAI+Zomsy5iiMXgTjQ
VKYQS35+hUTRvF4Yj8NsluMrgvTfi9oXYl31GDjmAd+HkicgzXlPVKS5sU6mzxRi
4usJwKyenK5hqZ+AOZl5FzGXAAGNOcX0PYL4aeHGIIrw5GqDltN33do9c6BmpH5t
U0BqMnAdgAZM1MEXcoup7BgUmY+TPJf0Jp7gJ4UVhu3NM/n85AWQKeiKi/ZmUnVu
TctiMxUUUgmfz0gDmOnaVMyzndsCphpnddBxbtsbpVYN
-----END CERTIFICATE-----
