Certificate:
    Data:
        Version: 3 (0x2)
        Serial Number: 9385 (0x24a9)
    Signature Algorithm: sha256WithRSAEncryption
        Issuer: C=US, ST=OH, L=Columbus, O=VikingVPN, OU=MyOrganizationalUnit, CN=VikingVPN CA/name=EasyRSA/emailAddress=me@myhost.mydomain
        Validity
            Not Before: Nov  2 20:39:20 2016 GMT
            Not After : Oct 31 20:39:20 2026 GMT
        Subject: CN=Client2570Certc488b8
        Subject Public Key Info:
            Public Key Algorithm: rsaEncryption
                Public-Key: (4096 bit)
                Modulus:
                    00:f5:32:71:e1:ea:de:cb:5a:0d:7b:19:66:13:c0:
                    51:d7:d4:93:5d:a2:b4:ed:8f:39:90:dc:28:dc:95:
                    c9:8a:30:97:b6:08:5b:0e:a0:f5:d2:58:f9:b6:e1:
                    1d:26:24:73:86:81:28:0e:ae:d0:98:52:ff:e2:78:
                    5d:db:90:8c:6e:7e:52:7e:82:54:82:0e:fd:6a:df:
                    50:c0:24:2e:fa:fc:33:16:b5:1a:2c:9a:e4:e2:15:
                    ed:86:c0:e1:71:f8:8c:91:8b:d4:f1:60:57:5f:f3:
                    14:b6:c7:53:8f:50:89:5b:06:04:40:64:a1:82:88:
                    de:9e:87:a6:f7:95:cd:b3:df:0d:35:3c:7d:35:45:
                    a8:c4:cf:78:76:74:cf:b3:22:4b:ae:aa:d3:9b:31:
                    af:6f:b7:ea:2c:c5:f2:6d:eb:0d:c4:16:67:9f:e7:
                    9b:f5:06:5b:ee:b2:5a:45:a1:96:d2:d5:10:7b:55:
                    68:77:f6:77:47:30:a7:82:5f:89:6f:35:1b:47:b7:
                    61:40:17:91:e6:ff:b2:3a:9e:83:97:f4:3d:41:d3:
                    bd:29:69:96:f9:5d:79:b4:20:49:f4:ff:a6:fa:a7:
                    b4:68:a5:fd:59:91:f6:8b:e9:f3:49:30:0e:b5:61:
                    ef:b8:6b:ec:2a:e5:6f:cf:39:30:48:5f:48:a0:d4:
                    d4:45:5c:64:2a:23:4e:df:c6:91:17:6d:14:f1:1f:
                    d7:70:df:f1:39:04:ce:b6:d4:88:97:30:41:a1:d7:
                    3e:dc:af:f2:1c:bc:81:f0:ce:36:26:a2:93:bf:db:
                    24:df:ff:9e:9b:a5:ef:ac:f0:1a:a1:7d:84:51:f7:
                    6d:7e:d4:d7:52:b5:54:5c:2a:62:ed:2e:52:75:bb:
                    07:66:8b:67:6f:b2:98:77:2a:74:90:c5:52:0b:4a:
                    9e:90:79:4b:b8:f4:4d:fe:c3:46:76:e6:af:75:8f:
                    e0:fa:8c:84:f2:29:e2:ff:c1:b6:c2:ee:49:00:5f:
                    80:c8:1a:2e:e8:16:fd:c7:4e:3c:76:3e:fa:93:02:
                    36:00:85:4c:68:7c:c0:dc:77:51:b3:35:ac:f9:4b:
                    ea:8c:b6:0c:20:7a:79:d4:5b:62:92:a4:26:f9:29:
                    a5:19:47:c4:ff:77:e3:c7:2b:a5:eb:88:40:49:43:
                    7c:eb:af:b1:06:f7:84:07:25:f7:34:35:86:6f:fb:
                    89:79:54:46:97:82:ed:9c:1f:91:6d:2b:e7:a4:df:
                    d0:ee:02:c7:e7:ba:a3:89:32:17:6e:e1:29:59:16:
                    c3:8b:6c:09:8e:0a:c6:22:09:59:d0:7b:4c:61:6d:
                    02:6d:00:b5:35:94:cc:07:31:d5:c4:28:12:ab:51:
                    20:c9:bf
                Exponent: 65537 (0x10001)
        X509v3 extensions:
            X509v3 Basic Constraints: 
                CA:FALSE
            Netscape Comment: 
                Easy-RSA Generated Certificate
            X509v3 Subject Key Identifier: 
                F4:77:55:54:A5:92:08:A3:E6:07:E4:10:F8:EC:6F:BD:E6:7D:56:4A
            X509v3 Authority Key Identifier: 
                keyid:12:CD:60:04:D2:A0:80:9E:70:ED:C6:99:B8:7B:2C:C6:52:FD:19:A1
                DirName:/C=US/ST=OH/L=Columbus/O=VikingVPN/OU=MyOrganizationalUnit/CN=VikingVPN CA/name=EasyRSA/emailAddress=me@myhost.mydomain
                serial:CF:35:85:EE:80:BF:2A:3E

            X509v3 Extended Key Usage: 
                TLS Web Client Authentication
            X509v3 Key Usage: 
                Digital Signature
    Signature Algorithm: sha256WithRSAEncryption
         73:f0:90:b5:b1:f8:8e:9d:16:fb:23:ff:47:a6:08:10:e2:cd:
         fb:de:5e:af:61:0a:f3:dd:a3:98:f9:61:08:58:c6:91:29:af:
         82:72:16:cd:4d:80:a3:a9:7d:91:d9:79:22:6b:6d:ac:e4:3b:
         d1:a6:41:c7:14:d6:c4:3d:86:8e:23:99:71:26:49:ba:34:dc:
         0a:13:18:1c:a4:60:49:14:31:e4:1f:ce:ee:14:81:e0:36:e7:
         91:79:a3:52:87:83:8d:c8:97:70:3a:26:11:5a:da:57:0f:95:
         a1:3e:2c:46:f0:88:4c:29:5c:b7:21:ef:8d:88:14:57:d1:2d:
         22:91:7d:84:56:e4:14:83:3b:52:ff:89:a1:61:25:85:32:66:
         3f:74:9a:b7:f1:91:b7:5d:c1:41:96:6d:0b:a1:ae:91:c5:c3:
         ea:75:2c:84:59:8b:9e:a0:7a:e5:9c:d4:5c:72:62:13:a9:91:
         af:94:21:0c:d7:7d:85:d7:81:13:d5:bb:8f:de:63:d4:88:74:
         fd:6f:00:7c:ca:51:e3:47:0f:b1:67:db:17:d3:ff:3e:5e:25:
         36:93:2c:8b:52:e1:a4:12:c4:54:64:43:03:8b:12:b2:65:c5:
         4a:10:2e:77:c8:09:09:09:a0:c2:b3:31:f2:cb:c1:b7:09:ff:
         55:de:9a:e7:41:71:b0:44:fd:08:28:7c:16:83:a0:8b:b4:b7:
         9e:d5:6a:0d:8c:0a:55:32:7e:ef:cc:3c:c7:10:a7:eb:b5:e5:
         1c:44:41:2b:a9:3b:8a:b9:c1:d5:c3:a8:ef:8d:3f:5d:2f:0c:
         68:6e:3c:5f:53:92:a0:7b:25:41:de:44:27:9d:ed:db:91:78:
         11:45:b2:b8:69:2e:fa:fd:da:a2:2f:52:d3:85:ba:7a:09:b7:
         e1:58:6e:8d:16:ea:a3:20:8f:c6:55:99:c2:8c:7c:6c:25:62:
         4e:01:4d:66:4d:80:dd:8e:95:a3:c3:4f:ce:59:56:f0:ec:21:
         7b:b0:19:67:35:17:60:c8:69:55:64:06:cc:03:c1:9c:dd:15:
         32:f1:76:8f:78:ce:80:f6:16:11:88:ea:15:4a:8a:be:c7:02:
         f0:49:a4:a4:84:e0:59:e2:6f:92:60:24:25:4a:1c:96:99:64:
         78:b9:bc:6a:0b:d3:cc:b0:6e:70:c6:86:38:40:af:e3:79:9a:
         db:48:78:f2:00:68:39:0c:fe:e7:2e:a8:c4:60:20:8e:ce:1c:
         e5:7f:01:06:4f:7f:9e:a0:65:72:4c:83:d5:e3:27:76:5f:09:
         bf:0f:d6:09:a5:bb:20:cc:33:18:b0:63:ac:03:f2:26:26:b2:
         20:ba:10:da:ab:72:62:99
-----BEGIN CERTIFICATE-----
MIIGrTCCBJWgAwIBAgICJKkwDQYJKoZIhvcNAQELBQAwgawxCzAJBgNVBAYTAlVT
MQswCQYDVQQIEwJPSDERMA8GA1UEBxMIQ29sdW1idXMxEjAQBgNVBAoTCVZpa2lu
Z1ZQTjEdMBsGA1UECxMUTXlPcmdhbml6YXRpb25hbFVuaXQxFTATBgNVBAMTDFZp
a2luZ1ZQTiBDQTEQMA4GA1UEKRMHRWFzeVJTQTEhMB8GCSqGSIb3DQEJARYSbWVA
bXlob3N0Lm15ZG9tYWluMB4XDTE2MTEwMjIwMzkyMFoXDTI2MTAzMTIwMzkyMFow
HzEdMBsGA1UEAxMUQ2xpZW50MjU3MENlcnRjNDg4YjgwggIiMA0GCSqGSIb3DQEB
AQUAA4ICDwAwggIKAoICAQD1MnHh6t7LWg17GWYTwFHX1JNdorTtjzmQ3CjclcmK
MJe2CFsOoPXSWPm24R0mJHOGgSgOrtCYUv/ieF3bkIxuflJ+glSCDv1q31DAJC76
/DMWtRosmuTiFe2GwOFx+IyRi9TxYFdf8xS2x1OPUIlbBgRAZKGCiN6eh6b3lc2z
3w01PH01RajEz3h2dM+zIkuuqtObMa9vt+osxfJt6w3EFmef55v1BlvuslpFoZbS
1RB7VWh39ndHMKeCX4lvNRtHt2FAF5Hm/7I6noOX9D1B070paZb5XXm0IEn0/6b6
p7Ropf1ZkfaL6fNJMA61Ye+4a+wq5W/POTBIX0ig1NRFXGQqI07fxpEXbRTxH9dw
3/E5BM621IiXMEGh1z7cr/IcvIHwzjYmopO/2yTf/56bpe+s8BqhfYRR921+1NdS
tVRcKmLtLlJ1uwdmi2dvsph3KnSQxVILSp6QeUu49E3+w0Z25q91j+D6jITyKeL/
wbbC7kkAX4DIGi7oFv3HTjx2PvqTAjYAhUxofMDcd1GzNaz5S+qMtgwgennUW2KS
pCb5KaUZR8T/d+PHK6XriEBJQ3zrr7EG94QHJfc0NYZv+4l5VEaXgu2cH5FtK+ek
39DuAsfnuqOJMhdu4SlZFsOLbAmOCsYiCVnQe0xhbQJtALU1lMwHMdXEKBKrUSDJ
vwIDAQABo4IBYzCCAV8wCQYDVR0TBAIwADAtBglghkgBhvhCAQ0EIBYeRWFzeS1S
U0EgR2VuZXJhdGVkIENlcnRpZmljYXRlMB0GA1UdDgQWBBT0d1VUpZIIo+YH5BD4
7G+95n1WSjCB4QYDVR0jBIHZMIHWgBQSzWAE0qCAnnDtxpm4eyzGUv0ZoaGBsqSB
rzCBrDELMAkGA1UEBhMCVVMxCzAJBgNVBAgTAk9IMREwDwYDVQQHEwhDb2x1bWJ1
czESMBAGA1UEChMJVmlraW5nVlBOMR0wGwYDVQQLExRNeU9yZ2FuaXphdGlvbmFs
VW5pdDEVMBMGA1UEAxMMVmlraW5nVlBOIENBMRAwDgYDVQQpEwdFYXN5UlNBMSEw
HwYJKoZIhvcNAQkBFhJtZUBteWhvc3QubXlkb21haW6CCQDPNYXugL8qPjATBgNV
HSUEDDAKBggrBgEFBQcDAjALBgNVHQ8EBAMCB4AwDQYJKoZIhvcNAQELBQADggIB
AHPwkLWx+I6dFvsj/0emCBDizfveXq9hCvPdo5j5YQhYxpEpr4JyFs1NgKOpfZHZ
eSJrbazkO9GmQccU1sQ9ho4jmXEmSbo03AoTGBykYEkUMeQfzu4UgeA255F5o1KH
g43Il3A6JhFa2lcPlaE+LEbwiEwpXLch742IFFfRLSKRfYRW5BSDO1L/iaFhJYUy
Zj90mrfxkbddwUGWbQuhrpHFw+p1LIRZi56geuWc1FxyYhOpka+UIQzXfYXXgRPV
u4/eY9SIdP1vAHzKUeNHD7Fn2xfT/z5eJTaTLItS4aQSxFRkQwOLErJlxUoQLnfI
CQkJoMKzMfLLwbcJ/1XemudBcbBE/QgofBaDoIu0t57Vag2MClUyfu/MPMcQp+u1
5RxEQSupO4q5wdXDqO+NP10vDGhuPF9TkqB7JUHeRCed7duReBFFsrhpLvr92qIv
UtOFunoJt+FYbo0W6qMgj8ZVmcKMfGwlYk4BTWZNgN2OlaPDT85ZVvDsIXuwGWc1
F2DIaVVkBswDwZzdFTLxdo94zoD2FhGI6hVKir7HAvBJpKSE4Fnib5JgJCVKHJaZ
ZHi5vGoL08ywbnDGhjhAr+N5mttIePIAaDkM/ucuqMRgII7OHOV/AQZPf56gZXJM
g9XjJ3ZfCb8P1gmluyDMMxiwY6wD8iYmsiC6ENqrcmKZ
-----END CERTIFICATE-----
