Certificate:
    Data:
        Version: 3 (0x2)
        Serial Number: 9417 (0x24c9)
    Signature Algorithm: sha256WithRSAEncryption
        Issuer: C=US, ST=OH, L=Columbus, O=VikingVPN, OU=MyOrganizationalUnit, CN=VikingVPN CA/name=EasyRSA/emailAddress=me@myhost.mydomain
        Validity
            Not Before: Nov  9 15:45:12 2016 GMT
            Not After : Nov  7 15:45:12 2026 GMT
        Subject: CN=Client2576Cert6168ca
        Subject Public Key Info:
            Public Key Algorithm: rsaEncryption
                Public-Key: (4096 bit)
                Modulus:
                    00:d6:4f:25:24:1e:79:45:a0:50:5d:09:8d:6c:e2:
                    29:c3:31:34:75:33:32:dd:d5:19:da:27:c2:07:99:
                    2d:85:b8:a5:7b:03:bc:69:b6:12:18:05:e2:83:e1:
                    46:e6:99:e2:5e:f6:8d:3b:3d:29:65:66:d2:dd:65:
                    57:a1:a4:7f:4f:90:d9:93:e7:3a:3d:e4:e2:0d:97:
                    a4:04:d4:72:79:fe:de:07:67:06:51:65:08:d9:e4:
                    23:4d:fd:22:68:ca:dc:7f:21:d1:08:fa:4c:45:c3:
                    97:7e:44:0e:4a:2f:1f:ce:c8:ff:da:df:5f:1b:2a:
                    cb:c5:ea:46:fd:ab:77:5e:48:8e:a5:17:24:55:4f:
                    d0:86:e6:93:7c:a9:89:94:a1:32:ef:c4:03:43:e2:
                    51:77:4c:bd:28:f4:d4:5a:17:e6:6e:99:a0:11:f8:
                    2e:ae:e1:58:51:7c:48:73:d5:04:85:63:f0:92:19:
                    df:84:dd:5b:a8:8e:86:45:0f:53:9a:97:3f:cd:d3:
                    cd:15:c1:73:de:93:b9:b3:d2:df:50:61:0e:f1:4b:
                    88:3b:76:d6:f4:0c:56:d0:f4:ff:d5:eb:45:70:95:
                    7c:b3:aa:09:f6:4a:71:52:56:2e:37:4f:4d:59:9a:
                    68:ca:4f:b3:b5:9c:8b:24:e0:f1:0b:31:1a:fa:6f:
                    a9:e7:1c:9a:dc:ab:8d:71:2a:63:39:b4:fa:a2:dd:
                    6d:37:97:62:71:b1:8a:3c:2b:66:5e:67:49:dc:54:
                    d6:79:d8:1d:b7:71:53:62:e9:96:25:d6:28:e1:f9:
                    2f:3f:bb:94:d5:ea:c8:15:b0:4d:33:a5:4a:cb:b5:
                    91:2a:da:b0:1f:6f:7f:6b:72:3d:35:9b:58:cc:26:
                    7c:77:f7:4e:1e:b6:8c:04:f5:dd:b1:37:35:12:47:
                    c4:3b:10:ce:55:96:fe:73:dc:83:2e:62:30:40:71:
                    53:31:8e:5c:cc:6f:88:a2:93:b8:86:c8:a6:e9:f0:
                    d1:31:30:ff:4d:e5:74:90:c7:20:6b:c4:f5:5e:12:
                    14:40:6d:80:a0:01:3a:29:59:22:ab:93:ca:c1:1c:
                    9d:87:ee:e9:5e:d7:02:09:4b:a4:0b:9b:13:3b:3a:
                    5d:d8:9f:0c:49:ed:de:ac:58:cd:2a:ae:d2:a2:79:
                    cd:5c:b2:8b:03:92:f6:a0:f3:d7:28:3a:d7:53:c7:
                    fb:74:69:14:d7:7e:38:a3:99:d4:8d:6a:6a:45:43:
                    5c:a2:95:62:de:17:57:8f:98:e6:a1:23:18:c4:64:
                    01:b1:5a:df:c8:1c:75:08:8a:69:a7:cf:5b:36:9f:
                    9b:2f:40:e8:da:9d:43:3b:51:a9:3b:22:71:85:27:
                    76:e8:95
                Exponent: 65537 (0x10001)
        X509v3 extensions:
            X509v3 Basic Constraints: 
                CA:FALSE
            Netscape Comment: 
                Easy-RSA Generated Certificate
            X509v3 Subject Key Identifier: 
                A3:11:36:52:8A:1F:DE:FC:0E:3F:5F:C2:14:83:CD:28:A8:9D:E1:5E
            X509v3 Authority Key Identifier: 
                keyid:12:CD:60:04:D2:A0:80:9E:70:ED:C6:99:B8:7B:2C:C6:52:FD:19:A1
                DirName:/C=US/ST=OH/L=Columbus/O=VikingVPN/OU=MyOrganizationalUnit/CN=VikingVPN CA/name=EasyRSA/emailAddress=me@myhost.mydomain
                serial:CF:35:85:EE:80:BF:2A:3E

            X509v3 Extended Key Usage: 
                TLS Web Client Authentication
            X509v3 Key Usage: 
                Digital Signature
    Signature Algorithm: sha256WithRSAEncryption
         8f:34:64:30:55:74:9c:2a:4c:17:7b:6a:5e:e2:0e:6d:df:72:
         4d:15:37:f3:73:05:1a:2e:ba:5a:b0:7f:02:cd:7c:4b:e3:d7:
         9a:d3:4b:b8:41:a1:c7:31:e5:8b:da:e7:30:a2:cc:cf:92:b9:
         68:79:57:ed:7f:07:f6:32:d4:db:ec:9f:12:ed:35:40:72:d1:
         e4:97:a1:0b:1d:f5:19:69:35:58:67:0f:75:e7:f6:1c:0b:cd:
         0b:39:05:95:39:ea:be:e1:96:a0:50:35:cc:6f:03:c4:54:f6:
         d7:66:b9:fb:71:df:ad:a9:d7:0d:1f:d8:d4:b9:e0:bd:4b:bb:
         32:7d:59:86:2d:6f:82:3a:79:38:56:47:97:f6:76:11:ce:e3:
         8f:60:18:5a:ab:6d:59:48:73:0c:ea:c6:d8:6e:07:66:c0:39:
         82:1e:83:d3:86:03:00:ef:50:e9:73:60:c7:ca:76:ad:fa:ac:
         97:b0:6a:02:86:66:ec:73:02:5f:c1:9d:10:55:b9:ad:7d:a4:
         14:06:fe:d6:9a:ed:5d:d0:1f:72:9f:72:96:5e:19:4b:05:48:
         f8:b0:d5:ca:78:48:75:65:58:42:da:78:e9:fb:10:c1:7f:f6:
         c8:7f:04:44:d4:13:f7:ca:d6:75:22:a0:d3:e7:13:96:ed:26:
         84:80:6f:10:3b:a9:e5:0e:bc:f4:99:09:22:8e:4e:ee:84:6a:
         76:b8:0c:cf:61:d9:22:6a:98:9c:3b:fc:36:68:c3:55:d3:7b:
         ee:da:61:00:b5:d5:90:cd:98:19:cb:1f:0c:06:94:22:70:ef:
         df:77:28:d9:ea:08:80:42:49:a5:6d:fe:0e:d0:55:20:86:b3:
         ce:74:f8:b8:68:5d:d6:3b:de:ed:b1:84:26:0a:40:ec:5f:e9:
         14:75:5e:7e:48:0e:ee:75:c5:cd:10:27:cd:ad:26:cd:ed:d2:
         c0:af:0c:84:cf:64:48:25:7e:e6:8b:73:d3:e2:ff:34:f9:4b:
         dc:cd:53:cb:22:86:e8:c9:bf:b7:1d:97:f6:b7:2c:22:64:53:
         ec:6f:0e:8f:20:4b:88:6e:ac:fd:14:45:ea:07:05:06:b6:29:
         0d:60:28:be:9d:85:b9:09:dc:7e:37:70:cd:74:fc:5a:f5:0d:
         d2:2b:45:d8:d3:b5:88:6b:68:96:64:26:9c:aa:7c:c0:d5:3d:
         c7:66:ae:ac:61:a5:ba:8e:84:1c:dc:f6:ba:e4:9e:92:06:de:
         45:7d:4d:72:b6:17:79:b8:0a:3f:58:09:d3:06:56:64:e3:d1:
         0e:17:0c:1d:da:a7:a5:b7:dc:ee:76:96:e1:b4:0f:09:38:60:
         5b:b0:c8:8f:a2:9f:8d:f2
-----BEGIN CERTIFICATE-----
MIIGrTCCBJWgAwIBAgICJMkwDQYJKoZIhvcNAQELBQAwgawxCzAJBgNVBAYTAlVT
MQswCQYDVQQIEwJPSDERMA8GA1UEBxMIQ29sdW1idXMxEjAQBgNVBAoTCVZpa2lu
Z1ZQTjEdMBsGA1UECxMUTXlPcmdhbml6YXRpb25hbFVuaXQxFTATBgNVBAMTDFZp
a2luZ1ZQTiBDQTEQMA4GA1UEKRMHRWFzeVJTQTEhMB8GCSqGSIb3DQEJARYSbWVA
bXlob3N0Lm15ZG9tYWluMB4XDTE2MTEwOTE1NDUxMloXDTI2MTEwNzE1NDUxMlow
HzEdMBsGA1UEAxMUQ2xpZW50MjU3NkNlcnQ2MTY4Y2EwggIiMA0GCSqGSIb3DQEB
AQUAA4ICDwAwggIKAoICAQDWTyUkHnlFoFBdCY1s4inDMTR1MzLd1RnaJ8IHmS2F
uKV7A7xpthIYBeKD4UbmmeJe9o07PSllZtLdZVehpH9PkNmT5zo95OINl6QE1HJ5
/t4HZwZRZQjZ5CNN/SJoytx/IdEI+kxFw5d+RA5KLx/OyP/a318bKsvF6kb9q3de
SI6lFyRVT9CG5pN8qYmUoTLvxAND4lF3TL0o9NRaF+ZumaAR+C6u4VhRfEhz1QSF
Y/CSGd+E3VuojoZFD1Oalz/N080VwXPek7mz0t9QYQ7xS4g7dtb0DFbQ9P/V60Vw
lXyzqgn2SnFSVi43T01ZmmjKT7O1nIsk4PELMRr6b6nnHJrcq41xKmM5tPqi3W03
l2JxsYo8K2ZeZ0ncVNZ52B23cVNi6ZYl1ijh+S8/u5TV6sgVsE0zpUrLtZEq2rAf
b39rcj01m1jMJnx3904etowE9d2xNzUSR8Q7EM5Vlv5z3IMuYjBAcVMxjlzMb4ii
k7iGyKbp8NExMP9N5XSQxyBrxPVeEhRAbYCgATopWSKrk8rBHJ2H7ule1wIJS6QL
mxM7Ol3YnwxJ7d6sWM0qrtKiec1csosDkvag89coOtdTx/t0aRTXfjijmdSNampF
Q1yilWLeF1ePmOahIxjEZAGxWt/IHHUIimmnz1s2n5svQOjanUM7Uak7InGFJ3bo
lQIDAQABo4IBYzCCAV8wCQYDVR0TBAIwADAtBglghkgBhvhCAQ0EIBYeRWFzeS1S
U0EgR2VuZXJhdGVkIENlcnRpZmljYXRlMB0GA1UdDgQWBBSjETZSih/e/A4/X8IU
g80oqJ3hXjCB4QYDVR0jBIHZMIHWgBQSzWAE0qCAnnDtxpm4eyzGUv0ZoaGBsqSB
rzCBrDELMAkGA1UEBhMCVVMxCzAJBgNVBAgTAk9IMREwDwYDVQQHEwhDb2x1bWJ1
czESMBAGA1UEChMJVmlraW5nVlBOMR0wGwYDVQQLExRNeU9yZ2FuaXphdGlvbmFs
VW5pdDEVMBMGA1UEAxMMVmlraW5nVlBOIENBMRAwDgYDVQQpEwdFYXN5UlNBMSEw
HwYJKoZIhvcNAQkBFhJtZUBteWhvc3QubXlkb21haW6CCQDPNYXugL8qPjATBgNV
HSUEDDAKBggrBgEFBQcDAjALBgNVHQ8EBAMCB4AwDQYJKoZIhvcNAQELBQADggIB
AI80ZDBVdJwqTBd7al7iDm3fck0VN/NzBRouulqwfwLNfEvj15rTS7hBoccx5Yva
5zCizM+SuWh5V+1/B/Yy1NvsnxLtNUBy0eSXoQsd9RlpNVhnD3Xn9hwLzQs5BZU5
6r7hlqBQNcxvA8RU9tdmuftx362p1w0f2NS54L1LuzJ9WYYtb4I6eThWR5f2dhHO
449gGFqrbVlIcwzqxthuB2bAOYIeg9OGAwDvUOlzYMfKdq36rJewagKGZuxzAl/B
nRBVua19pBQG/taa7V3QH3KfcpZeGUsFSPiw1cp4SHVlWELaeOn7EMF/9sh/BETU
E/fK1nUioNPnE5btJoSAbxA7qeUOvPSZCSKOTu6Eana4DM9h2SJqmJw7/DZow1XT
e+7aYQC11ZDNmBnLHwwGlCJw7993KNnqCIBCSaVt/g7QVSCGs850+LhoXdY73u2x
hCYKQOxf6RR1Xn5IDu51xc0QJ82tJs3t0sCvDITPZEglfuaLc9Pi/zT5S9zNU8si
hujJv7cdl/a3LCJkU+xvDo8gS4hurP0UReoHBQa2KQ1gKL6dhbkJ3H43cM10/Fr1
DdIrRdjTtYhraJZkJpyqfMDVPcdmrqxhpbqOhBzc9rrknpIG3kV9TXK2F3m4Cj9Y
CdMGVmTj0Q4XDB3ap6W33O52luG0Dwk4YFuwyI+in43y
-----END CERTIFICATE-----
