Certificate:
    Data:
        Version: 3 (0x2)
        Serial Number: 9418 (0x24ca)
    Signature Algorithm: sha256WithRSAEncryption
        Issuer: C=US, ST=OH, L=Columbus, O=VikingVPN, OU=MyOrganizationalUnit, CN=VikingVPN CA/name=EasyRSA/emailAddress=me@myhost.mydomain
        Validity
            Not Before: Nov  9 16:41:39 2016 GMT
            Not After : Nov  7 16:41:39 2026 GMT
        Subject: CN=Client1923Cert3b7525
        Subject Public Key Info:
            Public Key Algorithm: rsaEncryption
                Public-Key: (4096 bit)
                Modulus:
                    00:b8:bc:44:75:7f:b3:b5:62:62:aa:49:b8:e3:d7:
                    1b:48:d6:88:87:9f:31:85:64:ed:13:7f:3e:bf:f4:
                    83:b3:71:4e:39:c9:d6:6b:5b:fd:f9:19:59:78:ea:
                    ad:d0:44:ca:17:85:87:74:07:68:c6:35:4a:3c:9e:
                    ab:59:80:00:ec:c9:f8:d4:9a:64:1f:80:ab:aa:d1:
                    90:33:4d:c4:d6:11:e7:06:e7:e9:d7:a4:18:ad:48:
                    19:a9:67:05:73:35:1a:54:40:46:39:72:96:16:99:
                    50:fb:ff:76:6a:f8:48:4a:f1:f8:dd:42:8b:b9:99:
                    57:40:25:de:c2:be:89:74:99:b0:bf:61:cd:7d:b7:
                    7d:af:72:0a:66:7c:69:f9:1d:aa:d9:51:96:99:9c:
                    03:72:b1:43:a0:21:a7:62:b8:c8:d7:45:41:68:19:
                    58:d4:45:de:4d:2b:42:73:f4:1e:32:c3:70:37:39:
                    ac:9f:83:90:0a:aa:14:0f:b4:00:b7:ad:22:b6:56:
                    0a:b6:ff:5d:d5:df:72:bb:99:07:65:bb:b0:49:01:
                    32:c0:83:19:08:29:62:93:69:ec:b4:3e:45:d9:d4:
                    21:e0:10:f5:10:39:fe:42:6f:26:1e:4e:fb:dc:cc:
                    ab:42:d1:a5:1f:d0:c9:82:79:b6:f3:55:04:72:9e:
                    82:43:23:f0:bf:7a:8f:86:a0:20:b1:72:0a:01:1c:
                    6f:db:dc:c0:2d:c8:cc:6e:be:d8:53:fa:8c:61:98:
                    07:e9:ef:86:bf:0e:df:cd:8b:7e:6b:fa:9c:cc:72:
                    9c:3e:ea:7a:33:bf:2a:9a:76:08:15:88:41:f2:3b:
                    ea:b5:7b:e1:4c:ef:15:8c:d6:b6:14:9d:6c:68:b3:
                    0c:48:41:02:2b:17:f5:fa:ae:09:11:be:fb:5a:13:
                    e8:36:03:fd:fc:3c:fd:77:6e:e7:9b:65:fc:e5:b5:
                    d5:0b:64:e0:b3:31:c1:84:0d:85:7f:9e:6c:60:b8:
                    cb:56:91:6f:e6:36:70:32:fa:6f:54:b2:39:4a:47:
                    06:5b:07:85:66:07:e0:cc:6a:9b:40:d9:a2:18:53:
                    8c:5a:a3:21:33:bc:36:eb:7e:9f:e9:b4:fd:79:2b:
                    21:9c:e7:c2:76:90:e1:47:72:db:13:2c:67:ff:8d:
                    76:71:d4:ce:74:ba:9a:0d:3b:09:9e:5a:e2:dd:3e:
                    2c:94:5e:a5:e7:e7:db:12:4b:11:12:4f:a3:2b:0c:
                    0b:2b:57:1a:ac:67:1e:b9:30:81:d5:fb:02:ff:83:
                    d3:16:9f:e7:87:d3:41:4c:d8:53:16:70:71:94:03:
                    3a:7a:1f:13:ad:24:7a:60:07:39:c7:94:16:b9:e7:
                    b3:d7:c3
                Exponent: 65537 (0x10001)
        X509v3 extensions:
            X509v3 Basic Constraints: 
                CA:FALSE
            Netscape Comment: 
                Easy-RSA Generated Certificate
            X509v3 Subject Key Identifier: 
                EF:91:C6:25:52:1B:9A:24:D7:2D:5A:CA:17:AC:68:16:83:DC:FF:5E
            X509v3 Authority Key Identifier: 
                keyid:12:CD:60:04:D2:A0:80:9E:70:ED:C6:99:B8:7B:2C:C6:52:FD:19:A1
                DirName:/C=US/ST=OH/L=Columbus/O=VikingVPN/OU=MyOrganizationalUnit/CN=VikingVPN CA/name=EasyRSA/emailAddress=me@myhost.mydomain
                serial:CF:35:85:EE:80:BF:2A:3E

            X509v3 Extended Key Usage: 
                TLS Web Client Authentication
            X509v3 Key Usage: 
                Digital Signature
    Signature Algorithm: sha256WithRSAEncryption
         e6:23:dc:0b:e8:23:03:8f:f2:71:3e:82:49:65:17:35:2c:9e:
         66:a3:64:e0:03:79:ff:45:5b:c5:de:ad:2f:72:22:06:14:3d:
         59:ff:8d:9b:b5:d6:28:05:dc:19:f5:5c:59:52:bc:b4:0e:ba:
         de:7b:c4:4a:5d:7f:27:80:6e:c6:f4:91:89:98:5d:cd:96:3e:
         8f:07:2d:79:0a:8d:f7:24:cf:cd:f4:1e:28:14:df:0f:8d:01:
         9f:f6:40:a8:79:35:bb:9f:02:55:c7:da:18:b4:96:7c:c4:84:
         05:fa:29:fd:8c:28:e8:5a:f4:5d:b5:b9:c1:70:b7:b0:92:55:
         d3:9f:8d:ca:eb:00:f9:08:44:c3:1d:fd:18:47:09:31:c3:a1:
         57:f4:df:d6:29:af:d7:8f:80:89:95:d5:47:02:01:2e:c5:87:
         9f:10:68:97:17:54:bc:97:e4:2a:9a:b6:e0:54:0d:bb:fa:d2:
         6f:ea:3f:8e:b3:2b:2c:10:54:3a:67:93:8c:4c:84:3a:cb:a1:
         d2:7e:af:7e:9f:a3:86:fd:28:d3:ed:1c:7f:5d:6c:e7:f7:20:
         01:ce:46:54:41:e1:ae:1a:ab:be:2c:ea:a4:19:b5:7f:55:18:
         a2:1b:a7:0d:04:ca:32:74:f5:ca:73:3d:56:a0:b7:4f:ea:05:
         bc:1c:08:73:16:a0:b9:b8:45:59:1b:a2:17:df:ba:74:6e:d7:
         98:47:b1:f6:3e:52:58:56:d9:33:8d:dc:26:ba:30:73:e1:85:
         2a:27:74:b4:e0:98:4a:11:02:d0:a9:e6:99:d7:c7:af:de:9c:
         1c:bb:f1:46:54:c1:0d:eb:cb:99:89:22:d4:63:6b:60:21:70:
         36:d7:4d:eb:a2:00:a5:62:17:78:62:1c:df:18:c0:01:26:09:
         f7:ad:27:15:b5:06:55:a0:0e:09:cb:6a:aa:a3:dc:96:8e:fd:
         e4:51:7d:7b:e0:6f:75:ef:5d:6f:78:23:c4:fb:e2:a2:3f:6e:
         60:67:a0:4d:a1:78:5f:36:eb:87:a6:a8:1a:d7:34:8e:86:7c:
         92:a9:16:6d:ae:23:dc:67:45:fa:62:46:61:1b:67:eb:a8:74:
         05:7f:12:e3:06:38:a2:16:c0:40:94:1f:9e:20:85:fa:eb:03:
         2e:39:61:92:06:31:ed:55:6e:4e:9e:51:45:fc:5f:e9:11:58:
         3c:52:42:e3:4e:11:24:22:78:82:19:29:ef:0b:ea:e8:e8:d7:
         e2:d1:14:95:b6:b7:95:34:1b:22:e1:95:b5:15:8b:c9:1d:e7:
         54:6e:ea:21:b1:d4:cd:96:69:58:1e:dc:01:2a:74:3b:07:ce:
         dd:fb:dd:b4:cf:4b:b4:00
-----BEGIN CERTIFICATE-----
MIIGrTCCBJWgAwIBAgICJMowDQYJKoZIhvcNAQELBQAwgawxCzAJBgNVBAYTAlVT
MQswCQYDVQQIEwJPSDERMA8GA1UEBxMIQ29sdW1idXMxEjAQBgNVBAoTCVZpa2lu
Z1ZQTjEdMBsGA1UECxMUTXlPcmdhbml6YXRpb25hbFVuaXQxFTATBgNVBAMTDFZp
a2luZ1ZQTiBDQTEQMA4GA1UEKRMHRWFzeVJTQTEhMB8GCSqGSIb3DQEJARYSbWVA
bXlob3N0Lm15ZG9tYWluMB4XDTE2MTEwOTE2NDEzOVoXDTI2MTEwNzE2NDEzOVow
HzEdMBsGA1UEAxMUQ2xpZW50MTkyM0NlcnQzYjc1MjUwggIiMA0GCSqGSIb3DQEB
AQUAA4ICDwAwggIKAoICAQC4vER1f7O1YmKqSbjj1xtI1oiHnzGFZO0Tfz6/9IOz
cU45ydZrW/35GVl46q3QRMoXhYd0B2jGNUo8nqtZgADsyfjUmmQfgKuq0ZAzTcTW
EecG5+nXpBitSBmpZwVzNRpUQEY5cpYWmVD7/3Zq+EhK8fjdQou5mVdAJd7Cvol0
mbC/Yc19t32vcgpmfGn5HarZUZaZnANysUOgIadiuMjXRUFoGVjURd5NK0Jz9B4y
w3A3Oayfg5AKqhQPtAC3rSK2Vgq2/13V33K7mQdlu7BJATLAgxkIKWKTaey0PkXZ
1CHgEPUQOf5CbyYeTvvczKtC0aUf0MmCebbzVQRynoJDI/C/eo+GoCCxcgoBHG/b
3MAtyMxuvthT+oxhmAfp74a/Dt/Ni35r+pzMcpw+6nozvyqadggViEHyO+q1e+FM
7xWM1rYUnWxoswxIQQIrF/X6rgkRvvtaE+g2A/38PP13buebZfzltdULZOCzMcGE
DYV/nmxguMtWkW/mNnAy+m9UsjlKRwZbB4VmB+DMaptA2aIYU4xaoyEzvDbrfp/p
tP15KyGc58J2kOFHctsTLGf/jXZx1M50upoNOwmeWuLdPiyUXqXn59sSSxEST6Mr
DAsrVxqsZx65MIHV+wL/g9MWn+eH00FM2FMWcHGUAzp6HxOtJHpgBznHlBa557PX
wwIDAQABo4IBYzCCAV8wCQYDVR0TBAIwADAtBglghkgBhvhCAQ0EIBYeRWFzeS1S
U0EgR2VuZXJhdGVkIENlcnRpZmljYXRlMB0GA1UdDgQWBBTvkcYlUhuaJNctWsoX
rGgWg9z/XjCB4QYDVR0jBIHZMIHWgBQSzWAE0qCAnnDtxpm4eyzGUv0ZoaGBsqSB
rzCBrDELMAkGA1UEBhMCVVMxCzAJBgNVBAgTAk9IMREwDwYDVQQHEwhDb2x1bWJ1
czESMBAGA1UEChMJVmlraW5nVlBOMR0wGwYDVQQLExRNeU9yZ2FuaXphdGlvbmFs
VW5pdDEVMBMGA1UEAxMMVmlraW5nVlBOIENBMRAwDgYDVQQpEwdFYXN5UlNBMSEw
HwYJKoZIhvcNAQkBFhJtZUBteWhvc3QubXlkb21haW6CCQDPNYXugL8qPjATBgNV
HSUEDDAKBggrBgEFBQcDAjALBgNVHQ8EBAMCB4AwDQYJKoZIhvcNAQELBQADggIB
AOYj3AvoIwOP8nE+gkllFzUsnmajZOADef9FW8XerS9yIgYUPVn/jZu11igF3Bn1
XFlSvLQOut57xEpdfyeAbsb0kYmYXc2WPo8HLXkKjfckz830HigU3w+NAZ/2QKh5
NbufAlXH2hi0lnzEhAX6Kf2MKOha9F21ucFwt7CSVdOfjcrrAPkIRMMd/RhHCTHD
oVf039Ypr9ePgImV1UcCAS7Fh58QaJcXVLyX5CqatuBUDbv60m/qP46zKywQVDpn
k4xMhDrLodJ+r36fo4b9KNPtHH9dbOf3IAHORlRB4a4aq74s6qQZtX9VGKIbpw0E
yjJ09cpzPVagt0/qBbwcCHMWoLm4RVkbohffunRu15hHsfY+UlhW2TON3Ca6MHPh
hSondLTgmEoRAtCp5pnXx6/enBy78UZUwQ3ry5mJItRja2AhcDbXTeuiAKViF3hi
HN8YwAEmCfetJxW1BlWgDgnLaqqj3JaO/eRRfXvgb3XvXW94I8T74qI/bmBnoE2h
eF8264emqBrXNI6GfJKpFm2uI9xnRfpiRmEbZ+uodAV/EuMGOKIWwECUH54ghfrr
Ay45YZIGMe1Vbk6eUUX8X+kRWDxSQuNOESQieIIZKe8L6ujo1+LRFJW2t5U0GyLh
lbUVi8kd51Ru6iGx1M2WaVge3AEqdDsHzt373bTPS7QA
-----END CERTIFICATE-----
