Certificate:
    Data:
        Version: 3 (0x2)
        Serial Number: 9428 (0x24d4)
    Signature Algorithm: sha256WithRSAEncryption
        Issuer: C=US, ST=OH, L=Columbus, O=VikingVPN, OU=MyOrganizationalUnit, CN=VikingVPN CA/name=EasyRSA/emailAddress=me@myhost.mydomain
        Validity
            Not Before: Nov 11 16:44:51 2016 GMT
            Not After : Nov  9 16:44:51 2026 GMT
        Subject: CN=Client2579Certc3f1dd
        Subject Public Key Info:
            Public Key Algorithm: rsaEncryption
                Public-Key: (4096 bit)
                Modulus:
                    00:ae:6f:de:8b:e7:14:53:eb:8d:cd:07:8b:8c:b1:
                    ab:12:4a:c4:74:ba:a8:d3:d7:cd:d5:f5:06:94:0a:
                    3b:c3:d0:6f:c1:61:36:a8:bb:df:d2:69:ad:76:f2:
                    57:16:21:0a:40:13:ac:2d:65:d0:ea:d9:7a:5f:bc:
                    e9:61:00:ea:70:42:2c:83:42:03:38:88:5a:52:c6:
                    23:8d:c6:39:84:43:a7:92:2c:1a:49:5a:ce:d3:9a:
                    ec:6b:d0:c6:7e:11:8d:db:87:ee:3c:8f:63:5b:f1:
                    c4:76:53:27:19:f9:14:a2:7b:d3:1d:18:1e:d6:6e:
                    42:be:c0:c2:b1:bd:12:77:ca:75:f1:0f:81:c2:cd:
                    95:01:4e:56:1b:ef:3a:1c:4a:d8:37:b9:77:11:79:
                    f5:f2:2e:d9:db:0c:4b:7e:c7:4c:fc:fc:d2:33:ea:
                    b0:c8:57:5c:a9:86:a5:01:4a:5f:5e:dd:8f:b4:c7:
                    04:f1:ae:34:fb:a6:a0:ef:51:0b:9a:d1:3e:f3:3f:
                    05:85:de:5a:af:08:4c:59:d8:d8:38:ac:91:4e:32:
                    e3:34:87:49:f5:92:80:b9:db:f9:e3:c4:98:b0:52:
                    aa:f6:4f:8d:e7:9b:11:7e:72:bd:89:ab:8c:c0:f0:
                    09:09:b7:a0:55:53:7f:e3:cb:1b:cd:47:37:88:54:
                    54:f7:16:4f:44:7e:86:19:d0:fd:39:71:dd:27:31:
                    1b:75:d6:84:3a:d4:ae:48:22:08:0a:08:ae:82:02:
                    4e:14:22:fc:3d:8b:94:06:e6:bd:37:7a:db:bd:10:
                    2b:ab:b8:55:8e:25:52:bf:c9:9e:bb:33:90:11:b3:
                    06:93:fc:39:61:3c:a6:01:8a:cd:39:51:4c:45:38:
                    78:e0:42:28:ab:b5:9f:34:10:05:7f:fe:7d:12:c5:
                    cb:cf:7f:58:a6:53:32:28:cf:7e:1d:de:4f:6e:bf:
                    81:f1:e9:92:07:80:65:9b:ec:45:b3:d0:96:08:4d:
                    2c:4a:3b:dc:cc:63:c6:95:ac:b7:d9:6f:db:0c:bd:
                    9d:a7:e7:b8:f0:1f:44:37:97:05:8c:c1:e6:db:0d:
                    9a:ca:f6:c7:f4:08:4b:b4:e0:93:7b:e3:24:d7:86:
                    b1:47:04:6e:18:a2:df:34:34:78:3a:d9:87:75:fb:
                    2e:92:fb:dd:a9:13:75:db:09:00:dc:ad:a8:27:69:
                    8c:b1:6c:4d:b9:07:8e:71:51:6d:77:c5:a5:03:09:
                    ee:4f:f3:2f:6b:44:2c:68:4e:39:29:d1:dc:0d:2b:
                    3a:61:c9:91:0f:c7:ce:d0:93:14:80:61:89:55:c1:
                    b8:d7:fe:b7:f9:40:3f:ff:d0:b5:df:e7:3f:6b:f4:
                    e9:48:11
                Exponent: 65537 (0x10001)
        X509v3 extensions:
            X509v3 Basic Constraints: 
                CA:FALSE
            Netscape Comment: 
                Easy-RSA Generated Certificate
            X509v3 Subject Key Identifier: 
                C1:E1:09:53:50:2D:18:2E:03:52:D2:66:D9:D5:C8:BA:9E:D1:9B:32
            X509v3 Authority Key Identifier: 
                keyid:12:CD:60:04:D2:A0:80:9E:70:ED:C6:99:B8:7B:2C:C6:52:FD:19:A1
                DirName:/C=US/ST=OH/L=Columbus/O=VikingVPN/OU=MyOrganizationalUnit/CN=VikingVPN CA/name=EasyRSA/emailAddress=me@myhost.mydomain
                serial:CF:35:85:EE:80:BF:2A:3E

            X509v3 Extended Key Usage: 
                TLS Web Client Authentication
            X509v3 Key Usage: 
                Digital Signature
    Signature Algorithm: sha256WithRSAEncryption
         69:e5:2d:5e:d7:53:e2:f4:13:b5:eb:8c:1d:e4:c4:65:8c:36:
         1a:e4:37:8e:61:48:e1:dd:6a:0d:57:8c:32:d3:f3:47:52:de:
         93:17:be:1b:c2:0d:87:64:10:56:98:a6:52:96:dd:71:aa:5a:
         b2:10:0f:6e:17:e2:2e:bb:74:8e:41:7b:2f:9d:7b:c1:cf:b7:
         da:6f:e0:9f:07:be:d2:4f:05:1f:ec:08:4f:6d:4c:ad:fc:20:
         a0:45:c1:2e:ed:5f:42:be:ac:cb:09:25:2b:76:b4:cd:df:c3:
         2f:b3:0e:1c:00:2e:ad:c7:29:17:31:9d:32:6b:19:7c:bc:93:
         6b:30:0a:56:db:2a:69:ed:f6:da:7d:5c:a0:9c:3d:70:75:47:
         9b:9d:6e:f9:b5:32:6f:2c:7d:17:b5:d7:4e:8d:d8:e7:8c:2e:
         38:79:b5:fa:18:10:25:a9:9e:33:5b:67:9b:d8:15:27:3d:6f:
         0f:2e:9b:51:d6:e4:60:90:1f:4e:78:71:9a:2d:d1:ad:04:f9:
         e4:a1:f8:11:8c:93:52:9f:08:94:8d:d6:0c:73:78:e6:b5:8f:
         12:c6:75:de:b6:da:e9:71:a0:a9:0f:a8:f8:de:fc:cd:a2:af:
         09:1d:55:6e:7e:85:a2:91:07:ec:df:10:c6:bb:37:58:33:3c:
         e8:66:79:15:30:45:f9:50:ec:ff:6c:e0:b0:6b:95:4d:00:c0:
         c7:6e:58:5e:ce:d7:35:70:bd:e1:db:ad:5b:68:b0:06:7d:b3:
         51:28:12:40:9e:f1:a7:2e:56:39:9d:4a:96:88:f0:0d:15:e9:
         59:8c:b5:f3:96:9b:66:f2:1a:78:ab:ea:8e:0a:5b:c0:fd:05:
         0d:93:f9:ee:bb:9a:70:95:38:43:f7:5c:d2:4a:68:b4:e8:8f:
         40:c7:87:d2:70:76:5e:79:68:4b:4a:e1:2c:f2:23:0f:ac:b3:
         8d:e4:89:52:4b:a0:b4:da:3e:ef:4a:00:a9:3e:aa:b5:47:29:
         6c:59:b9:b8:c5:cb:8c:ca:79:75:cb:da:c2:e6:6a:3e:4c:82:
         b5:b0:a9:93:3a:b1:d2:0f:41:ab:f4:f9:0b:08:94:07:e3:6c:
         92:3b:eb:2c:ed:e6:89:59:bc:d7:d9:aa:2b:62:6d:52:c1:c5:
         9d:40:ed:29:4e:35:2b:f3:89:24:51:da:64:c0:88:5c:5c:30:
         ce:2a:5e:38:ac:97:ad:88:61:42:a6:d1:ec:1f:bc:fc:35:4c:
         9d:5b:d1:9a:ca:4b:3f:a3:af:76:bd:fd:fe:f0:2e:9f:50:c5:
         10:24:63:d9:52:8c:29:75:94:d0:b5:6e:d1:02:db:14:0b:fd:
         4c:54:2f:ef:e2:2f:f8:c4
-----BEGIN CERTIFICATE-----
MIIGrTCCBJWgAwIBAgICJNQwDQYJKoZIhvcNAQELBQAwgawxCzAJBgNVBAYTAlVT
MQswCQYDVQQIEwJPSDERMA8GA1UEBxMIQ29sdW1idXMxEjAQBgNVBAoTCVZpa2lu
Z1ZQTjEdMBsGA1UECxMUTXlPcmdhbml6YXRpb25hbFVuaXQxFTATBgNVBAMTDFZp
a2luZ1ZQTiBDQTEQMA4GA1UEKRMHRWFzeVJTQTEhMB8GCSqGSIb3DQEJARYSbWVA
bXlob3N0Lm15ZG9tYWluMB4XDTE2MTExMTE2NDQ1MVoXDTI2MTEwOTE2NDQ1MVow
HzEdMBsGA1UEAxMUQ2xpZW50MjU3OUNlcnRjM2YxZGQwggIiMA0GCSqGSIb3DQEB
AQUAA4ICDwAwggIKAoICAQCub96L5xRT643NB4uMsasSSsR0uqjT183V9QaUCjvD
0G/BYTaou9/Saa128lcWIQpAE6wtZdDq2XpfvOlhAOpwQiyDQgM4iFpSxiONxjmE
Q6eSLBpJWs7Tmuxr0MZ+EY3bh+48j2Nb8cR2UycZ+RSie9MdGB7WbkK+wMKxvRJ3
ynXxD4HCzZUBTlYb7zocStg3uXcRefXyLtnbDEt+x0z8/NIz6rDIV1yphqUBSl9e
3Y+0xwTxrjT7pqDvUQua0T7zPwWF3lqvCExZ2Ng4rJFOMuM0h0n1koC52/njxJiw
Uqr2T43nmxF+cr2Jq4zA8AkJt6BVU3/jyxvNRzeIVFT3Fk9EfoYZ0P05cd0nMRt1
1oQ61K5IIggKCK6CAk4UIvw9i5QG5r03etu9ECuruFWOJVK/yZ67M5ARswaT/Dlh
PKYBis05UUxFOHjgQiirtZ80EAV//n0SxcvPf1imUzIoz34d3k9uv4Hx6ZIHgGWb
7EWz0JYITSxKO9zMY8aVrLfZb9sMvZ2n57jwH0Q3lwWMwebbDZrK9sf0CEu04JN7
4yTXhrFHBG4Yot80NHg62Yd1+y6S+92pE3XbCQDcragnaYyxbE25B45xUW13xaUD
Ce5P8y9rRCxoTjkp0dwNKzphyZEPx87QkxSAYYlVwbjX/rf5QD//0LXf5z9r9OlI
EQIDAQABo4IBYzCCAV8wCQYDVR0TBAIwADAtBglghkgBhvhCAQ0EIBYeRWFzeS1S
U0EgR2VuZXJhdGVkIENlcnRpZmljYXRlMB0GA1UdDgQWBBTB4QlTUC0YLgNS0mbZ
1ci6ntGbMjCB4QYDVR0jBIHZMIHWgBQSzWAE0qCAnnDtxpm4eyzGUv0ZoaGBsqSB
rzCBrDELMAkGA1UEBhMCVVMxCzAJBgNVBAgTAk9IMREwDwYDVQQHEwhDb2x1bWJ1
czESMBAGA1UEChMJVmlraW5nVlBOMR0wGwYDVQQLExRNeU9yZ2FuaXphdGlvbmFs
VW5pdDEVMBMGA1UEAxMMVmlraW5nVlBOIENBMRAwDgYDVQQpEwdFYXN5UlNBMSEw
HwYJKoZIhvcNAQkBFhJtZUBteWhvc3QubXlkb21haW6CCQDPNYXugL8qPjATBgNV
HSUEDDAKBggrBgEFBQcDAjALBgNVHQ8EBAMCB4AwDQYJKoZIhvcNAQELBQADggIB
AGnlLV7XU+L0E7XrjB3kxGWMNhrkN45hSOHdag1XjDLT80dS3pMXvhvCDYdkEFaY
plKW3XGqWrIQD24X4i67dI5Bey+de8HPt9pv4J8HvtJPBR/sCE9tTK38IKBFwS7t
X0K+rMsJJSt2tM3fwy+zDhwALq3HKRcxnTJrGXy8k2swClbbKmnt9tp9XKCcPXB1
R5udbvm1Mm8sfRe1106N2OeMLjh5tfoYECWpnjNbZ5vYFSc9bw8um1HW5GCQH054
cZot0a0E+eSh+BGMk1KfCJSN1gxzeOa1jxLGdd622ulxoKkPqPje/M2irwkdVW5+
haKRB+zfEMa7N1gzPOhmeRUwRflQ7P9s4LBrlU0AwMduWF7O1zVwveHbrVtosAZ9
s1EoEkCe8acuVjmdSpaI8A0V6VmMtfOWm2byGnir6o4KW8D9BQ2T+e67mnCVOEP3
XNJKaLToj0DHh9Jwdl55aEtK4SzyIw+ss43kiVJLoLTaPu9KAKk+qrVHKWxZubjF
y4zKeXXL2sLmaj5MgrWwqZM6sdIPQav0+QsIlAfjbJI76yzt5olZvNfZqitibVLB
xZ1A7SlONSvziSRR2mTAiFxcMM4qXjisl62IYUKm0ewfvPw1TJ1b0ZrKSz+jr3a9
/f7wLp9QxRAkY9lSjCl1lNC1btEC2xQL/UxUL+/iL/jE
-----END CERTIFICATE-----
