Certificate:
    Data:
        Version: 3 (0x2)
        Serial Number: 9429 (0x24d5)
    Signature Algorithm: sha256WithRSAEncryption
        Issuer: C=US, ST=OH, L=Columbus, O=VikingVPN, OU=MyOrganizationalUnit, CN=VikingVPN CA/name=EasyRSA/emailAddress=me@myhost.mydomain
        Validity
            Not Before: Nov 11 16:47:54 2016 GMT
            Not After : Nov  9 16:47:54 2026 GMT
        Subject: CN=Client2580Cert84b7af
        Subject Public Key Info:
            Public Key Algorithm: rsaEncryption
                Public-Key: (4096 bit)
                Modulus:
                    00:cf:f4:3b:76:25:d9:e9:85:b0:f4:25:e3:91:b8:
                    08:a3:0c:3f:07:ff:e3:ce:9b:f7:a4:67:9f:1f:5f:
                    27:5c:95:ef:dd:c5:82:d4:cc:30:db:66:c1:8a:c1:
                    e0:21:54:c8:ef:24:7f:11:e3:71:8d:ad:f9:a9:f9:
                    67:f1:9f:3a:89:a6:91:be:91:1b:f5:66:e7:2c:83:
                    24:90:81:96:cb:e0:5c:30:13:34:5a:65:3a:4a:43:
                    f1:dd:e0:38:b0:27:b6:5b:73:9b:c6:80:0a:b9:59:
                    a7:2f:59:a0:5d:85:a6:92:b2:d6:ee:41:4c:15:99:
                    6e:89:6c:fd:a6:f7:42:f9:b0:de:ef:91:c6:cc:81:
                    d9:f1:f2:88:fc:40:8f:53:52:45:b2:d8:ac:96:04:
                    66:13:b5:d4:83:43:01:10:92:e2:ce:c3:2b:0b:50:
                    55:8d:54:17:c1:c9:6f:3d:c4:10:28:82:e9:bf:e3:
                    a5:8a:8e:02:31:c0:27:bd:db:16:ca:ed:d0:e3:fd:
                    6c:c0:80:83:ec:95:59:d0:b0:50:63:1f:08:cf:30:
                    d3:3f:65:25:29:7b:0b:7f:69:ae:f4:f4:05:a5:5b:
                    57:2c:27:7a:c3:48:aa:a7:66:3a:94:fe:96:67:3d:
                    b3:20:62:28:f7:53:a8:31:d1:4a:01:ae:32:10:f7:
                    cd:67:91:b1:f3:84:85:3e:fa:63:1d:40:a5:30:5a:
                    3e:33:cf:d4:f1:05:5c:ac:28:01:5a:5c:96:3d:ba:
                    14:07:e6:c4:6e:88:3c:f0:2e:95:df:de:54:29:45:
                    8e:88:e5:e8:76:2e:9a:d4:c0:85:29:fb:5f:00:ea:
                    24:a5:9a:7e:8e:af:29:e2:19:1a:50:e7:83:ff:eb:
                    b0:52:ff:6b:60:bc:83:ea:cc:49:55:2e:0f:dd:2d:
                    f4:c5:92:e7:f2:08:b0:39:88:a6:94:4d:e8:cd:8d:
                    9f:5c:e3:d6:5a:08:ff:7f:ad:51:67:15:65:d4:31:
                    56:03:f8:e6:8c:df:fa:7d:b8:34:89:4a:46:40:33:
                    7f:bf:ea:55:02:57:1e:fa:cf:9d:50:b2:8e:b4:42:
                    8b:b1:44:10:a8:fa:c5:66:62:15:0c:ef:b8:45:cc:
                    de:cc:d0:b0:d0:ba:9d:4c:29:e7:ae:46:85:7c:a3:
                    49:07:df:26:a4:2d:6e:ec:0a:cc:03:f4:cb:83:4a:
                    08:87:0b:ca:ac:c8:6e:95:ba:16:eb:93:d3:0b:07:
                    aa:fe:5b:c9:3a:25:3f:c8:d1:73:20:33:ed:58:ff:
                    1d:41:ff:4d:ad:1d:f0:e0:35:b7:9f:68:7f:9f:95:
                    ed:d5:e9:6b:e6:74:24:0e:11:1e:55:d7:bc:b4:1d:
                    3e:9e:8b
                Exponent: 65537 (0x10001)
        X509v3 extensions:
            X509v3 Basic Constraints: 
                CA:FALSE
            Netscape Comment: 
                Easy-RSA Generated Certificate
            X509v3 Subject Key Identifier: 
                85:C4:1D:BC:3D:0C:18:FD:CD:E3:17:28:F6:2A:67:08:D0:26:45:1B
            X509v3 Authority Key Identifier: 
                keyid:12:CD:60:04:D2:A0:80:9E:70:ED:C6:99:B8:7B:2C:C6:52:FD:19:A1
                DirName:/C=US/ST=OH/L=Columbus/O=VikingVPN/OU=MyOrganizationalUnit/CN=VikingVPN CA/name=EasyRSA/emailAddress=me@myhost.mydomain
                serial:CF:35:85:EE:80:BF:2A:3E

            X509v3 Extended Key Usage: 
                TLS Web Client Authentication
            X509v3 Key Usage: 
                Digital Signature
    Signature Algorithm: sha256WithRSAEncryption
         a0:ed:d0:9a:79:bf:29:b4:2b:0f:e2:44:71:d1:69:d6:97:8d:
         b4:11:83:66:48:47:7c:8c:b0:ea:af:a6:bb:24:78:13:5b:68:
         2b:05:c3:9f:12:97:1e:b9:1c:d9:c7:8d:ab:dd:eb:df:d4:b7:
         e1:2b:db:df:19:7c:1d:bd:d5:87:a8:81:15:cb:8e:95:7e:34:
         19:a6:a3:b4:46:41:cd:4a:41:c9:12:5b:71:a0:d2:b2:47:d4:
         94:0b:bc:f0:44:cd:bb:21:55:45:79:54:d6:9d:d6:d9:fd:13:
         2a:b3:8a:31:79:2e:6a:96:2e:bc:ad:25:fb:f8:17:19:53:48:
         d7:ae:6b:f2:7b:6c:95:e6:e1:ef:2f:d5:61:f1:cf:eb:58:53:
         85:25:26:31:ae:74:48:4a:5b:37:7a:a2:bc:03:a0:56:b9:2d:
         50:f8:d8:b2:8a:34:1e:cc:d5:14:c3:10:62:04:bd:67:86:88:
         f2:07:02:b8:41:34:5b:e9:7a:89:79:8f:18:e5:94:40:77:d5:
         37:d5:6c:85:79:8d:41:6b:8e:17:4c:2b:1f:4b:f4:df:01:fb:
         97:bc:c3:00:54:6b:a4:2d:48:fc:4d:bb:cc:b4:b9:bd:e6:da:
         9b:5d:3e:87:b4:d9:15:b1:e1:ab:68:f4:28:1b:c9:24:19:9b:
         f6:c8:66:4b:9f:cb:dc:b5:a1:2c:90:9e:ad:4f:3c:96:2e:e1:
         3e:63:54:6e:4c:78:83:7e:33:2a:f8:44:1c:7d:7e:68:ae:cb:
         16:c6:91:a7:d6:79:d9:13:16:67:b3:b5:6c:83:bc:14:9d:1c:
         39:9a:aa:76:a5:67:fb:65:ee:bd:6e:04:7a:58:3f:bc:f8:46:
         be:63:37:5a:0d:ff:5c:a3:bd:79:1d:16:8d:f5:cf:a1:36:b2:
         a1:ca:e8:ed:fb:2f:63:bb:b5:4f:22:e8:f2:7e:c8:e2:c3:b6:
         42:1f:71:07:09:67:19:69:00:c2:ca:3e:69:fd:00:97:fb:bd:
         48:ae:48:46:50:f2:df:22:01:53:5f:53:4b:26:04:bb:e7:ae:
         3b:e1:94:1a:cd:85:c6:1a:dc:13:f2:44:f2:c9:20:1b:ab:c0:
         a5:4f:04:49:8b:d8:ed:89:57:1c:98:45:b7:df:82:ac:d0:3c:
         86:6b:35:f2:dd:b7:8c:0d:76:7b:1f:cf:cc:16:24:47:cd:b8:
         6e:d6:48:1d:d2:5d:93:29:b9:7f:9a:84:85:c3:39:0a:6d:c6:
         66:c9:1c:3f:a2:d2:ea:4e:ac:05:6c:36:d0:cb:39:7e:f7:dc:
         ae:92:77:68:66:09:8d:f4:45:96:2d:07:9f:2b:c0:eb:63:90:
         12:ab:14:10:c3:67:bb:e1
-----BEGIN CERTIFICATE-----
MIIGrTCCBJWgAwIBAgICJNUwDQYJKoZIhvcNAQELBQAwgawxCzAJBgNVBAYTAlVT
MQswCQYDVQQIEwJPSDERMA8GA1UEBxMIQ29sdW1idXMxEjAQBgNVBAoTCVZpa2lu
Z1ZQTjEdMBsGA1UECxMUTXlPcmdhbml6YXRpb25hbFVuaXQxFTATBgNVBAMTDFZp
a2luZ1ZQTiBDQTEQMA4GA1UEKRMHRWFzeVJTQTEhMB8GCSqGSIb3DQEJARYSbWVA
bXlob3N0Lm15ZG9tYWluMB4XDTE2MTExMTE2NDc1NFoXDTI2MTEwOTE2NDc1NFow
HzEdMBsGA1UEAxMUQ2xpZW50MjU4MENlcnQ4NGI3YWYwggIiMA0GCSqGSIb3DQEB
AQUAA4ICDwAwggIKAoICAQDP9Dt2JdnphbD0JeORuAijDD8H/+POm/ekZ58fXydc
le/dxYLUzDDbZsGKweAhVMjvJH8R43GNrfmp+WfxnzqJppG+kRv1ZucsgySQgZbL
4FwwEzRaZTpKQ/Hd4DiwJ7Zbc5vGgAq5WacvWaBdhaaSstbuQUwVmW6JbP2m90L5
sN7vkcbMgdnx8oj8QI9TUkWy2KyWBGYTtdSDQwEQkuLOwysLUFWNVBfByW89xBAo
gum/46WKjgIxwCe92xbK7dDj/WzAgIPslVnQsFBjHwjPMNM/ZSUpewt/aa709AWl
W1csJ3rDSKqnZjqU/pZnPbMgYij3U6gx0UoBrjIQ981nkbHzhIU++mMdQKUwWj4z
z9TxBVysKAFaXJY9uhQH5sRuiDzwLpXf3lQpRY6I5eh2LprUwIUp+18A6iSlmn6O
ryniGRpQ54P/67BS/2tgvIPqzElVLg/dLfTFkufyCLA5iKaUTejNjZ9c49ZaCP9/
rVFnFWXUMVYD+OaM3/p9uDSJSkZAM3+/6lUCVx76z51Qso60QouxRBCo+sVmYhUM
77hFzN7M0LDQup1MKeeuRoV8o0kH3yakLW7sCswD9MuDSgiHC8qsyG6Vuhbrk9ML
B6r+W8k6JT/I0XMgM+1Y/x1B/02tHfDgNbefaH+fle3V6WvmdCQOER5V17y0HT6e
iwIDAQABo4IBYzCCAV8wCQYDVR0TBAIwADAtBglghkgBhvhCAQ0EIBYeRWFzeS1S
U0EgR2VuZXJhdGVkIENlcnRpZmljYXRlMB0GA1UdDgQWBBSFxB28PQwY/c3jFyj2
KmcI0CZFGzCB4QYDVR0jBIHZMIHWgBQSzWAE0qCAnnDtxpm4eyzGUv0ZoaGBsqSB
rzCBrDELMAkGA1UEBhMCVVMxCzAJBgNVBAgTAk9IMREwDwYDVQQHEwhDb2x1bWJ1
czESMBAGA1UEChMJVmlraW5nVlBOMR0wGwYDVQQLExRNeU9yZ2FuaXphdGlvbmFs
VW5pdDEVMBMGA1UEAxMMVmlraW5nVlBOIENBMRAwDgYDVQQpEwdFYXN5UlNBMSEw
HwYJKoZIhvcNAQkBFhJtZUBteWhvc3QubXlkb21haW6CCQDPNYXugL8qPjATBgNV
HSUEDDAKBggrBgEFBQcDAjALBgNVHQ8EBAMCB4AwDQYJKoZIhvcNAQELBQADggIB
AKDt0Jp5vym0Kw/iRHHRadaXjbQRg2ZIR3yMsOqvprskeBNbaCsFw58Slx65HNnH
javd69/Ut+Er298ZfB291YeogRXLjpV+NBmmo7RGQc1KQckSW3Gg0rJH1JQLvPBE
zbshVUV5VNad1tn9EyqzijF5LmqWLrytJfv4FxlTSNeua/J7bJXm4e8v1WHxz+tY
U4UlJjGudEhKWzd6orwDoFa5LVD42LKKNB7M1RTDEGIEvWeGiPIHArhBNFvpeol5
jxjllEB31TfVbIV5jUFrjhdMKx9L9N8B+5e8wwBUa6QtSPxNu8y0ub3m2ptdPoe0
2RWx4ato9CgbySQZm/bIZkufy9y1oSyQnq1PPJYu4T5jVG5MeIN+Myr4RBx9fmiu
yxbGkafWedkTFmeztWyDvBSdHDmaqnalZ/tl7r1uBHpYP7z4Rr5jN1oN/1yjvXkd
Fo31z6E2sqHK6O37L2O7tU8i6PJ+yOLDtkIfcQcJZxlpAMLKPmn9AJf7vUiuSEZQ
8t8iAVNfU0smBLvnrjvhlBrNhcYa3BPyRPLJIBurwKVPBEmL2O2JVxyYRbffgqzQ
PIZrNfLdt4wNdnsfz8wWJEfNuG7WSB3SXZMpuX+ahIXDOQptxmbJHD+i0upOrAVs
NtDLOX733K6Sd2hmCY30RZYtB58rwOtjkBKrFBDDZ7vh
-----END CERTIFICATE-----
