Certificate:
    Data:
        Version: 3 (0x2)
        Serial Number: 9435 (0x24db)
    Signature Algorithm: sha256WithRSAEncryption
        Issuer: C=US, ST=OH, L=Columbus, O=VikingVPN, OU=MyOrganizationalUnit, CN=VikingVPN CA/name=EasyRSA/emailAddress=me@myhost.mydomain
        Validity
            Not Before: Nov 12 04:53:19 2016 GMT
            Not After : Nov 10 04:53:19 2026 GMT
        Subject: CN=Client1713Cert0504de
        Subject Public Key Info:
            Public Key Algorithm: rsaEncryption
                Public-Key: (4096 bit)
                Modulus:
                    00:bd:51:88:a7:e8:bb:e6:19:ba:c9:17:66:c3:ab:
                    47:21:77:78:3b:ec:55:00:6a:81:67:73:4a:29:6b:
                    79:3e:2f:d5:10:6e:e1:bb:12:fc:9a:12:b1:ce:96:
                    7c:cb:77:b6:24:90:02:15:ee:a4:2d:1a:05:dd:5e:
                    32:69:2f:25:02:13:d3:12:9d:ab:b3:f1:ac:b6:e3:
                    e9:7a:9a:30:db:d3:86:aa:ed:83:b6:26:9f:b7:dd:
                    df:4e:3b:45:c8:74:44:43:ff:b3:5f:6f:87:48:13:
                    c3:53:bf:ed:7f:aa:07:6a:48:76:53:92:3d:f5:7c:
                    8f:bb:ea:90:4d:ea:2f:dc:5d:1a:37:14:f4:62:4c:
                    be:7a:0a:a9:34:fb:5b:92:d1:7b:6e:e3:00:b1:67:
                    a9:f1:13:57:5e:3b:5a:4a:4e:0c:2d:0f:a2:c0:b1:
                    a1:d8:7f:25:7b:51:3a:22:62:cc:1a:7e:0c:33:cb:
                    55:e0:34:4a:f0:87:fa:c7:2f:aa:85:35:63:d5:a5:
                    3f:59:59:eb:c1:76:53:35:ce:47:f8:8a:f6:9c:e4:
                    56:2e:e8:76:46:31:57:7e:84:69:77:f5:c3:fd:6f:
                    3f:b1:e0:d3:1c:da:bd:39:6a:15:44:5d:84:d6:a4:
                    5c:3c:f0:ec:40:6e:7a:49:26:70:e9:f1:fd:c3:7d:
                    96:d9:bb:af:72:69:01:cb:e1:10:02:e3:4f:ce:a6:
                    7a:5d:0c:5a:8c:9b:17:b0:83:0e:d4:af:60:45:1d:
                    f6:a4:06:cd:f0:53:3f:29:72:e6:3a:fe:8d:b0:4d:
                    9e:3c:af:73:60:ce:88:30:3c:b1:e6:46:09:4a:82:
                    5b:d7:68:8c:ba:81:ae:2b:4f:b5:60:37:a2:e7:86:
                    a7:52:3c:2c:89:4b:26:0e:5b:c1:8a:8d:09:91:56:
                    4f:dc:e3:5b:2d:8c:4a:c0:8f:3a:ab:b7:ee:ad:91:
                    45:92:4e:a9:b7:f7:b7:00:7e:d9:88:86:3d:f7:8e:
                    a5:d1:6e:78:c3:fc:40:6a:89:83:ab:1b:5a:87:a4:
                    fe:da:b7:38:63:aa:30:93:04:6f:00:67:c3:7b:bd:
                    d5:47:41:b9:d0:d8:4b:33:bd:24:7a:f0:5e:ab:fd:
                    2f:1f:25:1a:ac:73:9d:bc:53:a5:9b:96:88:66:9e:
                    fe:78:4a:b5:5d:b2:6c:c7:4c:cf:17:10:55:08:f3:
                    ad:16:0f:a1:ec:f5:ea:8a:6a:ed:07:da:46:03:9c:
                    af:83:b7:84:6d:79:e3:70:fa:57:c2:51:e2:a7:5d:
                    7c:6a:c7:f5:b2:61:43:c3:e1:18:71:b2:ba:91:6b:
                    ce:c2:1c:cf:44:b8:4d:14:69:76:b4:41:c2:0f:b4:
                    a2:a3:b7
                Exponent: 65537 (0x10001)
        X509v3 extensions:
            X509v3 Basic Constraints: 
                CA:FALSE
            Netscape Comment: 
                Easy-RSA Generated Certificate
            X509v3 Subject Key Identifier: 
                08:13:0B:5C:CB:89:95:DF:17:48:ED:54:9F:5F:B8:49:22:E3:A0:05
            X509v3 Authority Key Identifier: 
                keyid:12:CD:60:04:D2:A0:80:9E:70:ED:C6:99:B8:7B:2C:C6:52:FD:19:A1
                DirName:/C=US/ST=OH/L=Columbus/O=VikingVPN/OU=MyOrganizationalUnit/CN=VikingVPN CA/name=EasyRSA/emailAddress=me@myhost.mydomain
                serial:CF:35:85:EE:80:BF:2A:3E

            X509v3 Extended Key Usage: 
                TLS Web Client Authentication
            X509v3 Key Usage: 
                Digital Signature
    Signature Algorithm: sha256WithRSAEncryption
         8e:c0:c6:06:5e:38:97:e9:98:2f:2e:de:7d:94:0a:68:42:41:
         b3:aa:5d:9b:26:5d:c2:08:f0:f7:af:d6:45:59:00:0e:52:98:
         cf:be:1d:50:30:e3:d9:df:00:03:6d:77:41:a0:1f:49:5a:91:
         b2:89:e0:d3:e6:bd:4c:c2:0c:de:83:99:5d:57:8f:4f:be:09:
         9a:c0:d0:be:10:de:a7:0b:39:e8:5c:24:6e:f0:7c:34:9e:8b:
         24:b6:f0:5b:c9:93:b0:f0:42:f3:9a:e5:1a:7c:59:53:16:ce:
         e3:5c:43:03:8c:c3:f2:24:14:89:0e:4c:a3:9d:07:f5:d0:0c:
         28:91:b2:71:08:82:ac:49:6a:41:f5:50:00:5a:d2:f8:44:30:
         54:16:39:74:12:a8:09:d9:8f:f3:9c:f6:64:91:28:07:55:98:
         4c:57:b1:21:f9:4d:81:23:60:d0:21:52:1b:49:cb:11:38:87:
         39:ff:c2:a7:86:10:e6:9f:70:83:34:4c:ba:34:ff:74:d1:19:
         0b:23:cb:7b:f9:98:9c:82:aa:d9:ee:77:96:a7:8a:0e:dd:75:
         fd:3d:57:fd:0c:76:95:0f:d8:81:a6:9c:39:30:a5:e5:bc:1e:
         52:8a:7d:f6:52:b8:eb:30:6a:9b:34:eb:ac:76:34:91:14:56:
         bd:cc:a3:e8:49:17:87:66:e3:12:da:97:86:e9:06:35:7a:99:
         ba:26:4e:9f:49:d6:0d:e7:d9:08:a6:6a:c7:b9:71:a2:19:d6:
         3b:d8:0b:3a:43:78:44:70:9d:3b:98:a8:b5:9c:ba:15:86:8a:
         f6:38:e7:91:bc:6c:e9:0c:b6:fa:d3:ff:1e:b7:66:2a:01:81:
         e4:77:1e:90:9a:84:b3:e0:44:99:aa:fb:36:dd:33:29:62:17:
         b1:e0:5a:9e:bc:19:50:66:a8:e0:84:02:c9:d5:db:ab:7e:53:
         2c:77:e1:35:4a:f0:a3:96:32:84:5b:4d:68:5f:5a:2e:45:cc:
         d5:7d:ee:8d:9f:4c:e4:02:8e:6f:5b:a2:df:ba:0d:08:96:36:
         6a:65:2a:d2:80:cd:bf:3a:18:f0:c6:8d:27:28:a9:5e:d7:2d:
         63:81:25:24:28:f8:78:4f:59:76:00:7a:c1:d0:e6:cd:07:c3:
         52:04:08:33:14:68:90:3c:5f:b0:31:c4:1c:75:16:fa:db:cd:
         2e:bd:a3:0f:20:b8:ff:ba:36:73:ef:73:5a:23:18:9b:cf:76:
         94:02:82:ed:b8:eb:36:6e:e3:9d:7c:f9:85:0a:56:99:7b:ca:
         18:43:bb:b4:d7:cb:1f:de:d3:af:db:ed:27:b4:37:c8:e8:f5:
         66:1a:bc:e2:9e:03:e6:0a
-----BEGIN CERTIFICATE-----
MIIGrTCCBJWgAwIBAgICJNswDQYJKoZIhvcNAQELBQAwgawxCzAJBgNVBAYTAlVT
MQswCQYDVQQIEwJPSDERMA8GA1UEBxMIQ29sdW1idXMxEjAQBgNVBAoTCVZpa2lu
Z1ZQTjEdMBsGA1UECxMUTXlPcmdhbml6YXRpb25hbFVuaXQxFTATBgNVBAMTDFZp
a2luZ1ZQTiBDQTEQMA4GA1UEKRMHRWFzeVJTQTEhMB8GCSqGSIb3DQEJARYSbWVA
bXlob3N0Lm15ZG9tYWluMB4XDTE2MTExMjA0NTMxOVoXDTI2MTExMDA0NTMxOVow
HzEdMBsGA1UEAxMUQ2xpZW50MTcxM0NlcnQwNTA0ZGUwggIiMA0GCSqGSIb3DQEB
AQUAA4ICDwAwggIKAoICAQC9UYin6LvmGbrJF2bDq0chd3g77FUAaoFnc0opa3k+
L9UQbuG7EvyaErHOlnzLd7YkkAIV7qQtGgXdXjJpLyUCE9MSnauz8ay24+l6mjDb
04aq7YO2Jp+33d9OO0XIdERD/7Nfb4dIE8NTv+1/qgdqSHZTkj31fI+76pBN6i/c
XRo3FPRiTL56Cqk0+1uS0Xtu4wCxZ6nxE1deO1pKTgwtD6LAsaHYfyV7UToiYswa
fgwzy1XgNErwh/rHL6qFNWPVpT9ZWevBdlM1zkf4ivac5FYu6HZGMVd+hGl39cP9
bz+x4NMc2r05ahVEXYTWpFw88OxAbnpJJnDp8f3DfZbZu69yaQHL4RAC40/Opnpd
DFqMmxewgw7Ur2BFHfakBs3wUz8pcuY6/o2wTZ48r3NgzogwPLHmRglKglvXaIy6
ga4rT7VgN6LnhqdSPCyJSyYOW8GKjQmRVk/c41stjErAjzqrt+6tkUWSTqm397cA
ftmIhj33jqXRbnjD/EBqiYOrG1qHpP7atzhjqjCTBG8AZ8N7vdVHQbnQ2EszvSR6
8F6r/S8fJRqsc528U6Wblohmnv54SrVdsmzHTM8XEFUI860WD6Hs9eqKau0H2kYD
nK+Dt4RteeNw+lfCUeKnXXxqx/WyYUPD4RhxsrqRa87CHM9EuE0UaXa0QcIPtKKj
twIDAQABo4IBYzCCAV8wCQYDVR0TBAIwADAtBglghkgBhvhCAQ0EIBYeRWFzeS1S
U0EgR2VuZXJhdGVkIENlcnRpZmljYXRlMB0GA1UdDgQWBBQIEwtcy4mV3xdI7VSf
X7hJIuOgBTCB4QYDVR0jBIHZMIHWgBQSzWAE0qCAnnDtxpm4eyzGUv0ZoaGBsqSB
rzCBrDELMAkGA1UEBhMCVVMxCzAJBgNVBAgTAk9IMREwDwYDVQQHEwhDb2x1bWJ1
czESMBAGA1UEChMJVmlraW5nVlBOMR0wGwYDVQQLExRNeU9yZ2FuaXphdGlvbmFs
VW5pdDEVMBMGA1UEAxMMVmlraW5nVlBOIENBMRAwDgYDVQQpEwdFYXN5UlNBMSEw
HwYJKoZIhvcNAQkBFhJtZUBteWhvc3QubXlkb21haW6CCQDPNYXugL8qPjATBgNV
HSUEDDAKBggrBgEFBQcDAjALBgNVHQ8EBAMCB4AwDQYJKoZIhvcNAQELBQADggIB
AI7AxgZeOJfpmC8u3n2UCmhCQbOqXZsmXcII8Pev1kVZAA5SmM++HVAw49nfAANt
d0GgH0lakbKJ4NPmvUzCDN6DmV1Xj0++CZrA0L4Q3qcLOehcJG7wfDSeiyS28FvJ
k7DwQvOa5Rp8WVMWzuNcQwOMw/IkFIkOTKOdB/XQDCiRsnEIgqxJakH1UABa0vhE
MFQWOXQSqAnZj/Oc9mSRKAdVmExXsSH5TYEjYNAhUhtJyxE4hzn/wqeGEOafcIM0
TLo0/3TRGQsjy3v5mJyCqtnud5anig7ddf09V/0MdpUP2IGmnDkwpeW8HlKKffZS
uOswaps066x2NJEUVr3Mo+hJF4dm4xLal4bpBjV6mbomTp9J1g3n2Qimase5caIZ
1jvYCzpDeERwnTuYqLWcuhWGivY455G8bOkMtvrT/x63ZioBgeR3HpCahLPgRJmq
+zbdMyliF7HgWp68GVBmqOCEAsnV26t+Uyx34TVK8KOWMoRbTWhfWi5FzNV97o2f
TOQCjm9bot+6DQiWNmplKtKAzb86GPDGjScoqV7XLWOBJSQo+HhPWXYAesHQ5s0H
w1IECDMUaJA8X7AxxBx1FvrbzS69ow8guP+6NnPvc1ojGJvPdpQCgu246zZu4518
+YUKVpl7yhhDu7TXyx/e06/b7Se0N8jo9WYavOKeA+YK
-----END CERTIFICATE-----
