Certificate:
    Data:
        Version: 3 (0x2)
        Serial Number: 9438 (0x24de)
    Signature Algorithm: sha256WithRSAEncryption
        Issuer: C=US, ST=OH, L=Columbus, O=VikingVPN, OU=MyOrganizationalUnit, CN=VikingVPN CA/name=EasyRSA/emailAddress=me@myhost.mydomain
        Validity
            Not Before: Nov 12 07:43:07 2016 GMT
            Not After : Nov 10 07:43:07 2026 GMT
        Subject: CN=Client1276Certd7210c
        Subject Public Key Info:
            Public Key Algorithm: rsaEncryption
                Public-Key: (4096 bit)
                Modulus:
                    00:d7:78:49:3b:4d:77:de:8c:07:7e:c1:ee:6d:a7:
                    52:b4:b1:c4:98:12:b4:12:46:af:43:49:52:53:90:
                    23:71:6c:60:b9:cf:42:c0:dd:fa:cf:de:8e:50:6e:
                    67:f3:54:4d:c7:f2:3c:68:84:8f:6e:24:c9:bd:dd:
                    b6:c3:56:d1:25:8b:3c:1b:f1:e6:12:70:61:bd:df:
                    d1:fc:5e:1a:de:c9:c4:3a:54:98:a4:d1:f4:84:f8:
                    d0:cb:c5:a2:0e:db:5a:21:25:42:2e:aa:d5:48:a6:
                    e6:14:88:ba:55:45:d6:df:8d:35:f5:2a:e4:19:aa:
                    73:75:0a:1d:67:b8:5c:00:ea:38:0a:54:09:a0:07:
                    b0:05:77:15:5a:65:c7:84:3e:ad:29:68:d4:e1:04:
                    96:da:41:96:aa:98:e4:05:1e:7b:2f:23:9d:4b:3f:
                    a5:c6:6a:78:27:12:f6:4f:65:6c:88:f2:ea:23:91:
                    c6:64:48:9f:f5:b6:1d:d6:6a:d9:8f:d0:91:22:67:
                    3d:e8:d5:4f:58:38:10:5c:86:3c:6a:37:aa:de:53:
                    94:e4:7f:fe:db:86:31:bd:a9:99:8d:c9:60:c0:ef:
                    95:a6:d4:c8:2f:eb:7f:13:fb:16:b6:f8:c6:00:72:
                    d2:44:e3:9b:b6:bc:7e:c6:f3:2f:61:ee:fd:3f:20:
                    2f:dc:5a:7f:fc:0e:ff:e5:80:61:33:3e:82:59:6d:
                    6d:a6:64:b2:40:89:a4:b0:48:6f:ad:ae:a2:03:6a:
                    cc:5a:9d:96:db:06:67:ae:7d:af:cb:6e:6a:91:ec:
                    89:b0:3e:ab:5c:ea:fa:9f:21:4f:8d:fe:9e:be:40:
                    ef:01:4d:93:ce:52:ce:76:a1:ea:ed:12:59:62:2b:
                    4b:84:dc:57:2b:93:18:4b:2f:a2:a7:26:b6:20:ca:
                    f4:60:07:d8:31:2d:ab:02:7d:af:1b:24:cc:91:6e:
                    5b:db:c8:80:c1:b2:36:79:ee:e1:9b:75:54:66:c0:
                    bb:10:f3:e9:8e:c1:03:e2:f8:fd:b2:9f:5f:15:39:
                    03:ca:b9:f6:dd:7e:92:a9:80:09:c2:ee:27:a1:c2:
                    7e:92:68:33:61:67:ca:45:8c:40:05:0a:4d:a3:5e:
                    9c:6a:8c:65:60:a6:47:c6:a5:fb:32:c9:5f:05:7a:
                    8a:9b:b5:89:7b:1f:a2:b7:83:6b:29:21:2e:a9:51:
                    32:6d:0c:a5:44:e9:72:71:74:9f:6d:28:54:68:bb:
                    2b:d2:0e:bb:57:ad:fb:a2:0d:f4:fe:34:28:65:09:
                    d4:22:4b:e6:53:f3:ba:23:3d:3c:ca:7c:52:48:ab:
                    de:97:78:f8:99:4b:1b:34:64:e3:6e:93:05:15:7c:
                    9e:ba:0b
                Exponent: 65537 (0x10001)
        X509v3 extensions:
            X509v3 Basic Constraints: 
                CA:FALSE
            Netscape Comment: 
                Easy-RSA Generated Certificate
            X509v3 Subject Key Identifier: 
                B2:6F:CF:44:E2:B9:90:AF:F0:1C:BB:FE:2C:B4:C3:42:FB:C5:96:FB
            X509v3 Authority Key Identifier: 
                keyid:12:CD:60:04:D2:A0:80:9E:70:ED:C6:99:B8:7B:2C:C6:52:FD:19:A1
                DirName:/C=US/ST=OH/L=Columbus/O=VikingVPN/OU=MyOrganizationalUnit/CN=VikingVPN CA/name=EasyRSA/emailAddress=me@myhost.mydomain
                serial:CF:35:85:EE:80:BF:2A:3E

            X509v3 Extended Key Usage: 
                TLS Web Client Authentication
            X509v3 Key Usage: 
                Digital Signature
    Signature Algorithm: sha256WithRSAEncryption
         a6:39:ef:66:d1:54:24:74:87:ee:68:a1:c0:fe:2f:a4:c2:ce:
         19:3e:e8:0d:0f:11:cd:d2:c6:cd:33:df:ed:76:2a:ec:0b:6c:
         11:04:82:36:a2:0e:7f:49:85:8d:85:b1:43:f5:e0:86:49:a8:
         c8:2f:87:99:d2:b8:d5:d1:fa:c2:fd:3c:de:ed:d1:d1:76:3d:
         28:ef:32:49:e7:bc:1a:cd:04:86:73:a9:3a:bc:fe:72:b6:19:
         ad:b3:e7:25:3f:56:d2:bf:0f:08:36:7b:5c:40:19:80:a5:94:
         f0:a5:6e:f7:c9:e8:5e:b7:4c:d0:2b:dc:43:7d:72:2c:05:79:
         a1:22:02:e0:2b:ce:6a:b2:c4:4b:2f:c6:d4:38:6f:d4:5b:4a:
         a6:22:53:8f:c7:70:39:9c:19:b3:55:f5:8f:f8:95:35:ca:53:
         53:2f:6e:6a:f5:73:9a:a0:dd:90:26:81:37:e1:3d:c3:a2:93:
         f4:e3:2e:c3:ac:86:86:ed:fc:e0:f7:85:6a:40:0c:7c:d6:06:
         c7:c5:dd:d7:2b:bf:1a:2b:6e:18:08:4d:94:f5:b3:00:5e:5e:
         a8:49:34:8c:a3:0c:12:ca:71:af:90:ca:17:42:0c:7e:bb:24:
         24:7a:7b:62:30:20:b2:c9:f5:b5:e5:d2:27:40:fc:70:8c:95:
         2d:f1:0c:23:b7:b4:29:69:af:0f:4d:45:91:b4:f1:18:c8:2b:
         47:eb:b5:cd:a8:85:fd:08:8a:3f:2d:a8:cc:df:01:b0:e5:7e:
         38:d9:e4:44:8e:4f:89:92:55:f8:6f:cb:c9:27:c5:1b:99:58:
         2b:39:c7:d3:73:2b:2b:bf:d8:cd:59:d6:9e:69:e3:98:8c:d7:
         61:85:09:47:26:b4:0a:b9:6b:ad:63:a6:38:16:ac:de:3d:3a:
         91:70:e5:82:b3:b9:bf:1e:5e:40:c9:32:f8:d0:53:db:9c:78:
         e2:09:97:ff:f8:67:a3:2f:4f:a1:6c:d5:88:ca:5e:54:67:1e:
         5a:d3:2a:a3:a2:26:f8:f5:1f:be:39:0d:6d:d8:85:f4:85:58:
         53:31:49:07:d8:03:95:db:ec:5f:83:fa:ef:6c:7a:23:d3:0c:
         8d:72:c3:72:3f:63:ad:44:59:72:c3:cf:25:11:a1:8b:39:f9:
         7c:70:61:4c:fd:ce:e9:33:c7:fa:57:72:b7:09:5e:aa:0f:3d:
         8f:f7:64:f8:83:4f:e3:2b:d4:96:9f:7f:27:82:bc:43:36:cf:
         22:bd:ea:0c:be:49:b6:2a:17:f9:f6:45:61:e3:dc:f0:8b:a1:
         36:36:58:4a:1e:36:ad:8a:01:84:71:26:c9:48:57:cf:b9:12:
         3e:92:84:fc:c0:67:d5:d6
-----BEGIN CERTIFICATE-----
MIIGrTCCBJWgAwIBAgICJN4wDQYJKoZIhvcNAQELBQAwgawxCzAJBgNVBAYTAlVT
MQswCQYDVQQIEwJPSDERMA8GA1UEBxMIQ29sdW1idXMxEjAQBgNVBAoTCVZpa2lu
Z1ZQTjEdMBsGA1UECxMUTXlPcmdhbml6YXRpb25hbFVuaXQxFTATBgNVBAMTDFZp
a2luZ1ZQTiBDQTEQMA4GA1UEKRMHRWFzeVJTQTEhMB8GCSqGSIb3DQEJARYSbWVA
bXlob3N0Lm15ZG9tYWluMB4XDTE2MTExMjA3NDMwN1oXDTI2MTExMDA3NDMwN1ow
HzEdMBsGA1UEAxMUQ2xpZW50MTI3NkNlcnRkNzIxMGMwggIiMA0GCSqGSIb3DQEB
AQUAA4ICDwAwggIKAoICAQDXeEk7TXfejAd+we5tp1K0scSYErQSRq9DSVJTkCNx
bGC5z0LA3frP3o5QbmfzVE3H8jxohI9uJMm93bbDVtElizwb8eYScGG939H8Xhre
ycQ6VJik0fSE+NDLxaIO21ohJUIuqtVIpuYUiLpVRdbfjTX1KuQZqnN1Ch1nuFwA
6jgKVAmgB7AFdxVaZceEPq0paNThBJbaQZaqmOQFHnsvI51LP6XGangnEvZPZWyI
8uojkcZkSJ/1th3WatmP0JEiZz3o1U9YOBBchjxqN6reU5Tkf/7bhjG9qZmNyWDA
75Wm1Mgv638T+xa2+MYActJE45u2vH7G8y9h7v0/IC/cWn/8Dv/lgGEzPoJZbW2m
ZLJAiaSwSG+trqIDasxanZbbBmeufa/LbmqR7ImwPqtc6vqfIU+N/p6+QO8BTZPO
Us52oertElliK0uE3FcrkxhLL6KnJrYgyvRgB9gxLasCfa8bJMyRblvbyIDBsjZ5
7uGbdVRmwLsQ8+mOwQPi+P2yn18VOQPKufbdfpKpgAnC7iehwn6SaDNhZ8pFjEAF
Ck2jXpxqjGVgpkfGpfsyyV8FeoqbtYl7H6K3g2spIS6pUTJtDKVE6XJxdJ9tKFRo
uyvSDrtXrfuiDfT+NChlCdQiS+ZT87ojPTzKfFJIq96XePiZSxs0ZONukwUVfJ66
CwIDAQABo4IBYzCCAV8wCQYDVR0TBAIwADAtBglghkgBhvhCAQ0EIBYeRWFzeS1S
U0EgR2VuZXJhdGVkIENlcnRpZmljYXRlMB0GA1UdDgQWBBSyb89E4rmQr/Acu/4s
tMNC+8WW+zCB4QYDVR0jBIHZMIHWgBQSzWAE0qCAnnDtxpm4eyzGUv0ZoaGBsqSB
rzCBrDELMAkGA1UEBhMCVVMxCzAJBgNVBAgTAk9IMREwDwYDVQQHEwhDb2x1bWJ1
czESMBAGA1UEChMJVmlraW5nVlBOMR0wGwYDVQQLExRNeU9yZ2FuaXphdGlvbmFs
VW5pdDEVMBMGA1UEAxMMVmlraW5nVlBOIENBMRAwDgYDVQQpEwdFYXN5UlNBMSEw
HwYJKoZIhvcNAQkBFhJtZUBteWhvc3QubXlkb21haW6CCQDPNYXugL8qPjATBgNV
HSUEDDAKBggrBgEFBQcDAjALBgNVHQ8EBAMCB4AwDQYJKoZIhvcNAQELBQADggIB
AKY572bRVCR0h+5oocD+L6TCzhk+6A0PEc3Sxs0z3+12KuwLbBEEgjaiDn9JhY2F
sUP14IZJqMgvh5nSuNXR+sL9PN7t0dF2PSjvMknnvBrNBIZzqTq8/nK2Ga2z5yU/
VtK/Dwg2e1xAGYCllPClbvfJ6F63TNAr3EN9ciwFeaEiAuArzmqyxEsvxtQ4b9Rb
SqYiU4/HcDmcGbNV9Y/4lTXKU1Mvbmr1c5qg3ZAmgTfhPcOik/TjLsOshobt/OD3
hWpADHzWBsfF3dcrvxorbhgITZT1swBeXqhJNIyjDBLKca+QyhdCDH67JCR6e2Iw
ILLJ9bXl0idA/HCMlS3xDCO3tClprw9NRZG08RjIK0frtc2ohf0Iij8tqMzfAbDl
fjjZ5ESOT4mSVfhvy8knxRuZWCs5x9NzKyu/2M1Z1p5p45iM12GFCUcmtAq5a61j
pjgWrN49OpFw5YKzub8eXkDJMvjQU9uceOIJl//4Z6MvT6Fs1YjKXlRnHlrTKqOi
Jvj1H745DW3YhfSFWFMxSQfYA5Xb7F+D+u9seiPTDI1yw3I/Y61EWXLDzyURoYs5
+XxwYUz9zukzx/pXcrcJXqoPPY/3ZPiDT+Mr1JaffyeCvEM2zyK96gy+SbYqF/n2
RWHj3PCLoTY2WEoeNq2KAYRxJslIV8+5Ej6ShPzAZ9XW
-----END CERTIFICATE-----
