Certificate:
    Data:
        Version: 3 (0x2)
        Serial Number: 9453 (0x24ed)
    Signature Algorithm: sha256WithRSAEncryption
        Issuer: C=US, ST=OH, L=Columbus, O=VikingVPN, OU=MyOrganizationalUnit, CN=VikingVPN CA/name=EasyRSA/emailAddress=me@myhost.mydomain
        Validity
            Not Before: Nov 14 21:58:11 2016 GMT
            Not After : Nov 12 21:58:11 2026 GMT
        Subject: CN=Client2585Cert852325
        Subject Public Key Info:
            Public Key Algorithm: rsaEncryption
                Public-Key: (4096 bit)
                Modulus:
                    00:bc:7d:40:3b:d7:96:56:63:47:bb:de:3c:1c:a8:
                    ab:94:c9:cf:80:31:df:f1:73:1b:3c:36:83:33:dd:
                    54:79:81:c0:65:f2:10:4c:d0:ad:46:d9:ee:61:10:
                    bb:1e:5b:1c:2a:2d:7b:39:a5:0c:65:47:97:f5:6d:
                    69:b3:ea:02:2d:42:2a:02:dc:5a:da:6a:d7:28:43:
                    55:c2:0d:52:da:a1:c2:70:91:b4:a3:9b:7d:55:68:
                    b6:2d:2c:16:5d:fc:b0:9e:78:a1:82:b4:b3:f1:37:
                    6e:f0:a3:6b:b0:2b:72:5b:71:0d:51:3f:56:f5:d3:
                    87:93:0d:af:53:8b:de:ab:b4:ac:c0:1c:ec:4a:b0:
                    cb:80:36:86:4f:ed:b6:38:e0:86:f1:ea:da:da:4e:
                    f7:64:99:05:34:c7:2e:c2:11:49:93:ee:bc:4d:e8:
                    e4:4c:d2:c3:d8:ea:f4:16:01:37:b7:4a:38:dd:dd:
                    b9:dd:62:fa:51:46:c7:26:26:70:98:ee:37:45:f6:
                    b6:cd:20:6b:e0:27:b5:61:56:26:d9:81:a3:4c:f5:
                    9c:3f:40:a5:d3:cc:02:af:5f:61:0d:f6:f9:7a:b6:
                    9a:24:c3:46:6c:7a:88:fd:b5:48:e0:c9:20:c4:c2:
                    ea:0c:d8:c9:e8:57:f3:fe:6c:f0:69:3c:41:fd:49:
                    59:e0:80:62:29:87:f2:2b:9e:25:35:c9:cd:a8:6e:
                    4f:26:e3:29:39:28:e6:f6:21:7c:38:4e:76:4d:02:
                    75:21:b1:41:86:cb:74:4a:f4:82:8f:10:43:ac:e8:
                    55:de:35:ff:f1:a5:21:d1:a5:c9:9d:dd:a0:9f:9e:
                    3c:8a:00:30:67:9f:c8:a6:04:e1:7f:09:5c:0f:b0:
                    0f:b3:46:6b:8d:1b:7d:89:cb:62:f9:8f:ba:a7:cc:
                    2e:18:2e:39:53:15:6e:47:cb:80:14:5a:67:6c:ca:
                    7d:fb:a5:f7:21:50:ab:6a:53:a3:e8:af:de:d2:d4:
                    62:1d:3a:3b:75:dd:dd:17:e8:8e:49:9b:db:e8:28:
                    97:15:cb:5d:44:61:75:0c:43:89:6b:fa:96:a9:be:
                    e4:61:d3:22:3c:8a:43:79:d8:33:28:b7:64:2b:87:
                    04:8d:b8:c4:f7:33:56:85:34:9f:a3:b2:0e:15:54:
                    5a:3b:fe:8f:82:95:64:ee:a1:88:9a:15:2d:a4:b6:
                    b7:b4:93:b7:30:9d:76:90:f5:ee:18:2c:cd:26:d2:
                    be:c6:5a:39:b6:b7:5e:fe:1d:a9:dc:00:2f:6e:6a:
                    dd:c0:0f:01:f2:58:8c:67:d6:af:53:6a:65:42:c6:
                    5a:b2:44:6b:70:1f:93:c9:c0:83:f5:cc:88:b3:07:
                    af:38:5f
                Exponent: 65537 (0x10001)
        X509v3 extensions:
            X509v3 Basic Constraints: 
                CA:FALSE
            Netscape Comment: 
                Easy-RSA Generated Certificate
            X509v3 Subject Key Identifier: 
                16:D2:80:FA:63:AC:37:9C:17:4E:F7:C5:4C:B1:66:CA:1F:79:30:44
            X509v3 Authority Key Identifier: 
                keyid:12:CD:60:04:D2:A0:80:9E:70:ED:C6:99:B8:7B:2C:C6:52:FD:19:A1
                DirName:/C=US/ST=OH/L=Columbus/O=VikingVPN/OU=MyOrganizationalUnit/CN=VikingVPN CA/name=EasyRSA/emailAddress=me@myhost.mydomain
                serial:CF:35:85:EE:80:BF:2A:3E

            X509v3 Extended Key Usage: 
                TLS Web Client Authentication
            X509v3 Key Usage: 
                Digital Signature
    Signature Algorithm: sha256WithRSAEncryption
         c9:da:74:24:f0:c3:83:5a:36:53:f0:c6:96:ba:61:a3:48:1f:
         b4:8b:ad:c1:8e:33:cd:ca:d7:28:29:cc:8d:82:4d:8e:81:2b:
         9a:63:1f:05:5d:08:71:b9:3f:c1:2a:5d:03:9f:af:dd:4b:3d:
         97:22:c9:4c:54:01:f2:39:1a:82:b7:8c:0b:61:1d:76:54:30:
         d5:48:d5:19:40:c7:0a:ed:37:d1:a0:2f:3f:ef:3a:64:50:a3:
         fc:4e:54:32:08:25:7f:02:62:70:fd:16:c0:0c:df:37:f7:5b:
         64:47:c2:ae:b2:62:50:06:22:bb:dd:e6:4b:3f:90:ec:bb:ef:
         f0:cd:31:31:48:60:9a:e4:1a:cb:97:62:a2:b6:20:f2:d9:8b:
         c6:e9:97:4a:d2:82:f2:2f:5c:42:f8:40:25:f0:0b:66:c2:59:
         b8:05:52:d5:22:67:2c:50:50:2f:52:a2:1d:66:da:b8:83:10:
         ca:dc:49:95:e2:21:b2:23:26:39:5f:2d:64:02:bc:81:64:b7:
         1d:99:a4:b6:1c:e9:7e:71:4c:96:46:58:07:dc:f7:ed:07:55:
         5b:53:d6:0b:8a:41:59:56:70:8e:26:72:9a:af:6e:20:b9:43:
         51:ae:36:2c:62:e4:5a:64:2a:57:1a:5e:88:f5:a4:06:05:02:
         84:53:e1:5f:d9:f0:cf:8e:7e:20:06:e5:0a:56:a6:66:85:89:
         cf:5e:6a:21:dc:a9:d4:c0:d1:15:48:91:e6:b8:b2:2c:bb:31:
         da:f4:c6:a9:1e:c7:d7:e6:13:6e:c7:e8:56:19:43:f8:69:9d:
         0d:37:89:e6:cf:77:ac:c7:01:ad:7e:7a:97:a1:55:29:d1:a6:
         e7:02:81:3f:bd:c4:db:37:9f:f2:06:4f:07:d0:2d:4a:42:77:
         67:12:40:f4:dd:d4:f4:6a:bb:a4:6f:3f:13:35:be:f1:af:2b:
         39:95:c7:38:f5:35:d4:c7:5a:01:b6:97:76:30:24:cf:07:47:
         6b:1a:5f:03:4b:6a:b3:a7:c3:55:85:05:24:71:59:01:c7:bb:
         52:d6:0b:b7:d9:51:82:31:04:04:a0:21:b9:b7:93:bd:dc:4f:
         0f:7e:08:68:fb:c3:6f:72:ea:bf:c5:fc:a1:06:22:77:61:2e:
         55:48:f9:06:3f:43:52:b8:b0:cb:e9:c4:b3:3b:2a:34:5f:ee:
         e9:27:46:49:1c:63:91:c6:f6:fb:76:07:f5:f3:6e:91:d6:88:
         b0:aa:60:31:92:9a:63:ea:09:3a:f5:6e:2e:8c:6d:eb:fc:97:
         37:2f:88:98:5d:df:ee:92:83:e7:6f:9a:8b:aa:18:a8:91:19:
         8e:c1:ae:de:7c:b6:a1:a1
-----BEGIN CERTIFICATE-----
MIIGrTCCBJWgAwIBAgICJO0wDQYJKoZIhvcNAQELBQAwgawxCzAJBgNVBAYTAlVT
MQswCQYDVQQIEwJPSDERMA8GA1UEBxMIQ29sdW1idXMxEjAQBgNVBAoTCVZpa2lu
Z1ZQTjEdMBsGA1UECxMUTXlPcmdhbml6YXRpb25hbFVuaXQxFTATBgNVBAMTDFZp
a2luZ1ZQTiBDQTEQMA4GA1UEKRMHRWFzeVJTQTEhMB8GCSqGSIb3DQEJARYSbWVA
bXlob3N0Lm15ZG9tYWluMB4XDTE2MTExNDIxNTgxMVoXDTI2MTExMjIxNTgxMVow
HzEdMBsGA1UEAxMUQ2xpZW50MjU4NUNlcnQ4NTIzMjUwggIiMA0GCSqGSIb3DQEB
AQUAA4ICDwAwggIKAoICAQC8fUA715ZWY0e73jwcqKuUyc+AMd/xcxs8NoMz3VR5
gcBl8hBM0K1G2e5hELseWxwqLXs5pQxlR5f1bWmz6gItQioC3FraatcoQ1XCDVLa
ocJwkbSjm31VaLYtLBZd/LCeeKGCtLPxN27wo2uwK3JbcQ1RP1b104eTDa9Ti96r
tKzAHOxKsMuANoZP7bY44Ibx6traTvdkmQU0xy7CEUmT7rxN6ORM0sPY6vQWATe3
Sjjd3bndYvpRRscmJnCY7jdF9rbNIGvgJ7VhVibZgaNM9Zw/QKXTzAKvX2EN9vl6
tpokw0Zseoj9tUjgySDEwuoM2MnoV/P+bPBpPEH9SVnggGIph/IrniU1yc2obk8m
4yk5KOb2IXw4TnZNAnUhsUGGy3RK9IKPEEOs6FXeNf/xpSHRpcmd3aCfnjyKADBn
n8imBOF/CVwPsA+zRmuNG32Jy2L5j7qnzC4YLjlTFW5Hy4AUWmdsyn37pfchUKtq
U6Por97S1GIdOjt13d0X6I5Jm9voKJcVy11EYXUMQ4lr+papvuRh0yI8ikN52DMo
t2QrhwSNuMT3M1aFNJ+jsg4VVFo7/o+ClWTuoYiaFS2ktre0k7cwnXaQ9e4YLM0m
0r7GWjm2t17+HancAC9uat3ADwHyWIxn1q9TamVCxlqyRGtwH5PJwIP1zIizB684
XwIDAQABo4IBYzCCAV8wCQYDVR0TBAIwADAtBglghkgBhvhCAQ0EIBYeRWFzeS1S
U0EgR2VuZXJhdGVkIENlcnRpZmljYXRlMB0GA1UdDgQWBBQW0oD6Y6w3nBdO98VM
sWbKH3kwRDCB4QYDVR0jBIHZMIHWgBQSzWAE0qCAnnDtxpm4eyzGUv0ZoaGBsqSB
rzCBrDELMAkGA1UEBhMCVVMxCzAJBgNVBAgTAk9IMREwDwYDVQQHEwhDb2x1bWJ1
czESMBAGA1UEChMJVmlraW5nVlBOMR0wGwYDVQQLExRNeU9yZ2FuaXphdGlvbmFs
VW5pdDEVMBMGA1UEAxMMVmlraW5nVlBOIENBMRAwDgYDVQQpEwdFYXN5UlNBMSEw
HwYJKoZIhvcNAQkBFhJtZUBteWhvc3QubXlkb21haW6CCQDPNYXugL8qPjATBgNV
HSUEDDAKBggrBgEFBQcDAjALBgNVHQ8EBAMCB4AwDQYJKoZIhvcNAQELBQADggIB
AMnadCTww4NaNlPwxpa6YaNIH7SLrcGOM83K1ygpzI2CTY6BK5pjHwVdCHG5P8Eq
XQOfr91LPZciyUxUAfI5GoK3jAthHXZUMNVI1RlAxwrtN9GgLz/vOmRQo/xOVDII
JX8CYnD9FsAM3zf3W2RHwq6yYlAGIrvd5ks/kOy77/DNMTFIYJrkGsuXYqK2IPLZ
i8bpl0rSgvIvXEL4QCXwC2bCWbgFUtUiZyxQUC9Soh1m2riDEMrcSZXiIbIjJjlf
LWQCvIFktx2ZpLYc6X5xTJZGWAfc9+0HVVtT1guKQVlWcI4mcpqvbiC5Q1GuNixi
5FpkKlcaXoj1pAYFAoRT4V/Z8M+OfiAG5QpWpmaFic9eaiHcqdTA0RVIkea4siy7
Mdr0xqkex9fmE27H6FYZQ/hpnQ03iebPd6zHAa1+epehVSnRpucCgT+9xNs3n/IG
TwfQLUpCd2cSQPTd1PRqu6RvPxM1vvGvKzmVxzj1NdTHWgG2l3YwJM8HR2saXwNL
arOnw1WFBSRxWQHHu1LWC7fZUYIxBASgIbm3k73cTw9+CGj7w29y6r/F/KEGIndh
LlVI+QY/Q1K4sMvpxLM7KjRf7uknRkkcY5HG9vt2B/XzbpHWiLCqYDGSmmPqCTr1
bi6Mbev8lzcviJhd3+6Sg+dvmouqGKiRGY7Brt58tqGh
-----END CERTIFICATE-----
