Certificate:
    Data:
        Version: 3 (0x2)
        Serial Number: 9469 (0x24fd)
    Signature Algorithm: sha256WithRSAEncryption
        Issuer: C=US, ST=OH, L=Columbus, O=VikingVPN, OU=MyOrganizationalUnit, CN=VikingVPN CA/name=EasyRSA/emailAddress=me@myhost.mydomain
        Validity
            Not Before: Nov 17 01:41:00 2016 GMT
            Not After : Nov 15 01:41:00 2026 GMT
        Subject: CN=Client2585Certdb7f32
        Subject Public Key Info:
            Public Key Algorithm: rsaEncryption
                Public-Key: (4096 bit)
                Modulus:
                    00:d9:6f:5e:7e:e8:ed:01:19:90:8d:63:67:28:99:
                    ac:c1:af:b6:83:ef:02:d8:33:95:42:3e:da:09:dc:
                    7f:5d:ef:86:03:33:36:6a:c5:f4:f1:a7:8c:24:c2:
                    29:db:38:96:08:31:8e:e3:cb:7e:ef:3c:4e:09:75:
                    9c:e6:f5:67:44:f2:df:02:d7:f9:f2:e4:08:9f:e7:
                    e6:f8:3d:90:4b:cd:44:2d:16:50:18:a6:a0:68:22:
                    fa:3b:96:94:2a:c3:a5:ab:79:1f:b2:9a:af:62:c5:
                    73:a5:a9:c6:ac:02:3b:a6:66:b6:04:7b:ff:83:4a:
                    5b:1e:f8:65:6d:9f:3b:49:14:56:df:1d:cd:e5:56:
                    10:6a:7b:59:1a:8e:f8:8d:c5:2f:88:8c:ba:e0:10:
                    76:a8:2c:a2:e0:fe:48:d2:9c:99:28:0e:e6:78:5a:
                    8c:76:db:15:8f:81:0b:d8:ca:b8:ca:e9:ce:2b:fe:
                    7c:6b:ca:a8:25:7c:b3:8a:d2:32:7b:ff:d9:6e:ff:
                    4e:68:d5:c3:65:b9:a9:4b:f3:5b:fb:95:04:c8:f2:
                    fc:3a:56:ad:2d:57:3a:27:dd:38:b0:da:3c:3f:5d:
                    47:80:bf:62:ef:b3:4a:7f:86:5f:0b:b8:57:61:9c:
                    e3:d4:fd:aa:da:e1:fc:18:f5:52:ac:a2:81:2b:44:
                    7a:dc:3e:59:c1:3e:11:52:c6:aa:ff:1e:fc:d6:3e:
                    32:0b:07:f3:52:fe:5a:a6:30:f5:cc:5a:92:24:3d:
                    00:c8:ef:e5:73:44:9b:1d:9c:1e:3d:7f:a6:7b:7e:
                    13:1d:ff:9b:0d:19:70:c9:32:3f:12:3c:40:1f:5f:
                    21:e0:60:63:4b:cc:a8:0a:39:ca:12:c2:80:dc:e5:
                    f4:50:f9:8e:da:f8:6d:73:1b:cf:b1:f6:67:e3:d6:
                    a3:be:3b:1e:b4:46:12:1a:17:8a:4f:de:d6:b8:58:
                    20:68:a7:67:c0:00:50:f5:18:19:3f:08:99:16:53:
                    00:84:cf:8a:84:fd:f8:49:76:85:aa:48:b4:65:54:
                    f5:ca:cd:62:29:55:1c:f2:0d:cd:43:76:b2:66:95:
                    28:00:fe:1a:71:4e:65:04:c9:c4:0a:77:f0:36:3a:
                    ed:e6:d1:c6:9c:75:26:51:4e:62:36:a1:af:32:68:
                    8e:f7:03:14:ab:06:73:e1:43:ea:d1:dd:ab:14:92:
                    92:ac:4e:1e:6f:16:50:2b:d0:9f:3f:aa:77:51:d1:
                    63:3e:b9:7c:52:bc:40:dd:09:92:ca:83:d5:39:60:
                    84:f3:b2:1b:d7:3b:44:ac:b4:9a:ab:d7:59:d7:14:
                    41:c0:ca:3c:af:71:2d:38:ee:85:d3:ce:cf:4e:83:
                    24:fd:5b
                Exponent: 65537 (0x10001)
        X509v3 extensions:
            X509v3 Basic Constraints: 
                CA:FALSE
            Netscape Comment: 
                Easy-RSA Generated Certificate
            X509v3 Subject Key Identifier: 
                53:14:D9:24:D1:CC:C9:52:6F:4D:BD:9F:D8:39:07:D1:80:24:85:C4
            X509v3 Authority Key Identifier: 
                keyid:12:CD:60:04:D2:A0:80:9E:70:ED:C6:99:B8:7B:2C:C6:52:FD:19:A1
                DirName:/C=US/ST=OH/L=Columbus/O=VikingVPN/OU=MyOrganizationalUnit/CN=VikingVPN CA/name=EasyRSA/emailAddress=me@myhost.mydomain
                serial:CF:35:85:EE:80:BF:2A:3E

            X509v3 Extended Key Usage: 
                TLS Web Client Authentication
            X509v3 Key Usage: 
                Digital Signature
    Signature Algorithm: sha256WithRSAEncryption
         db:b1:6f:80:24:f1:3d:aa:ab:04:a5:b4:1c:4f:99:85:d2:f4:
         fb:a5:af:43:13:b6:79:c8:50:88:8d:27:87:f6:fc:c0:44:c6:
         82:c5:62:29:eb:80:e4:d5:d0:c0:10:3e:f4:8e:8e:bb:a9:04:
         c9:a9:00:48:7e:2e:b9:9f:a9:f8:12:a6:d4:f6:a3:e5:2d:15:
         77:11:6c:b2:2f:1f:8b:54:50:37:ac:fe:e6:e0:73:79:d2:c4:
         fc:4f:d3:67:4b:bd:2a:84:4d:af:28:0a:8b:0a:5c:1b:6d:16:
         13:d2:a8:c8:a6:0c:ca:02:fb:f2:73:58:c9:a0:82:9c:46:15:
         cd:3b:73:7f:86:ef:73:b0:3b:7c:57:72:8f:33:bc:98:75:f8:
         8d:c5:72:b8:71:48:52:78:a6:9c:b6:40:eb:69:04:e8:56:79:
         0d:a2:41:24:ae:c2:aa:77:fe:6b:0d:4a:0b:ea:0b:ab:9e:62:
         6e:ff:b9:54:2b:74:5e:ba:c7:a9:48:6c:fa:bb:a3:b1:c6:97:
         21:2e:d0:c4:dd:e5:5d:ee:0b:c8:14:47:d3:63:c4:6c:34:a4:
         ff:57:19:81:d5:e2:7a:f4:97:08:5d:7f:af:48:ce:27:8c:04:
         5c:d5:b0:98:ab:d1:78:7f:5a:1b:36:e0:74:3b:44:b9:92:7f:
         06:66:13:df:5b:84:e0:4a:bf:52:83:17:ee:51:70:91:e9:2a:
         42:d7:1a:e0:16:2d:6c:ba:49:08:31:0f:98:24:f8:02:3c:4a:
         f9:0d:b0:62:6e:63:1b:7b:b4:4f:da:63:01:9d:c3:39:f2:b7:
         6c:28:be:cc:63:b1:29:99:40:d7:67:5c:16:f4:be:2b:28:06:
         86:5a:91:28:31:4b:9b:4c:6a:11:fa:68:8c:49:c1:0b:02:d4:
         69:a7:2d:41:e0:0b:81:8f:5a:e1:33:39:c7:2c:62:4d:eb:ad:
         42:84:e0:62:22:13:88:ee:92:91:38:72:c7:30:53:02:6f:c7:
         ec:50:c4:48:a7:61:08:2c:96:04:40:34:48:14:c6:bb:41:63:
         f8:df:38:d5:24:89:91:80:9d:74:d4:79:a2:24:93:c0:d7:87:
         53:ee:70:a2:16:44:42:36:cd:e4:b8:11:af:b5:f4:cb:84:8f:
         00:84:1f:ed:f4:c9:15:ed:35:5a:45:c6:44:89:5e:87:d4:18:
         8c:79:b5:53:1a:e0:21:6d:98:e0:ae:a5:48:2f:a7:ee:71:25:
         11:89:01:7d:d7:ca:f1:29:ef:b0:2a:3c:44:f3:53:d4:59:5a:
         21:ce:32:b3:61:2b:18:4b:96:1c:74:a6:22:1e:c8:7c:7a:4d:
         7c:6e:80:0c:e2:57:60:8b
-----BEGIN CERTIFICATE-----
MIIGrTCCBJWgAwIBAgICJP0wDQYJKoZIhvcNAQELBQAwgawxCzAJBgNVBAYTAlVT
MQswCQYDVQQIEwJPSDERMA8GA1UEBxMIQ29sdW1idXMxEjAQBgNVBAoTCVZpa2lu
Z1ZQTjEdMBsGA1UECxMUTXlPcmdhbml6YXRpb25hbFVuaXQxFTATBgNVBAMTDFZp
a2luZ1ZQTiBDQTEQMA4GA1UEKRMHRWFzeVJTQTEhMB8GCSqGSIb3DQEJARYSbWVA
bXlob3N0Lm15ZG9tYWluMB4XDTE2MTExNzAxNDEwMFoXDTI2MTExNTAxNDEwMFow
HzEdMBsGA1UEAxMUQ2xpZW50MjU4NUNlcnRkYjdmMzIwggIiMA0GCSqGSIb3DQEB
AQUAA4ICDwAwggIKAoICAQDZb15+6O0BGZCNY2comazBr7aD7wLYM5VCPtoJ3H9d
74YDMzZqxfTxp4wkwinbOJYIMY7jy37vPE4JdZzm9WdE8t8C1/ny5Aif5+b4PZBL
zUQtFlAYpqBoIvo7lpQqw6WreR+ymq9ixXOlqcasAjumZrYEe/+DSlse+GVtnztJ
FFbfHc3lVhBqe1kajviNxS+IjLrgEHaoLKLg/kjSnJkoDuZ4Wox22xWPgQvYyrjK
6c4r/nxryqglfLOK0jJ7/9lu/05o1cNlualL81v7lQTI8vw6Vq0tVzon3Tiw2jw/
XUeAv2Lvs0p/hl8LuFdhnOPU/ara4fwY9VKsooErRHrcPlnBPhFSxqr/HvzWPjIL
B/NS/lqmMPXMWpIkPQDI7+VzRJsdnB49f6Z7fhMd/5sNGXDJMj8SPEAfXyHgYGNL
zKgKOcoSwoDc5fRQ+Y7a+G1zG8+x9mfj1qO+Ox60RhIaF4pP3ta4WCBop2fAAFD1
GBk/CJkWUwCEz4qE/fhJdoWqSLRlVPXKzWIpVRzyDc1DdrJmlSgA/hpxTmUEycQK
d/A2Ou3m0cacdSZRTmI2oa8yaI73AxSrBnPhQ+rR3asUkpKsTh5vFlAr0J8/qndR
0WM+uXxSvEDdCZLKg9U5YITzshvXO0SstJqr11nXFEHAyjyvcS047oXTzs9OgyT9
WwIDAQABo4IBYzCCAV8wCQYDVR0TBAIwADAtBglghkgBhvhCAQ0EIBYeRWFzeS1S
U0EgR2VuZXJhdGVkIENlcnRpZmljYXRlMB0GA1UdDgQWBBRTFNkk0czJUm9NvZ/Y
OQfRgCSFxDCB4QYDVR0jBIHZMIHWgBQSzWAE0qCAnnDtxpm4eyzGUv0ZoaGBsqSB
rzCBrDELMAkGA1UEBhMCVVMxCzAJBgNVBAgTAk9IMREwDwYDVQQHEwhDb2x1bWJ1
czESMBAGA1UEChMJVmlraW5nVlBOMR0wGwYDVQQLExRNeU9yZ2FuaXphdGlvbmFs
VW5pdDEVMBMGA1UEAxMMVmlraW5nVlBOIENBMRAwDgYDVQQpEwdFYXN5UlNBMSEw
HwYJKoZIhvcNAQkBFhJtZUBteWhvc3QubXlkb21haW6CCQDPNYXugL8qPjATBgNV
HSUEDDAKBggrBgEFBQcDAjALBgNVHQ8EBAMCB4AwDQYJKoZIhvcNAQELBQADggIB
ANuxb4Ak8T2qqwSltBxPmYXS9Pulr0MTtnnIUIiNJ4f2/MBExoLFYinrgOTV0MAQ
PvSOjrupBMmpAEh+LrmfqfgSptT2o+UtFXcRbLIvH4tUUDes/ubgc3nSxPxP02dL
vSqETa8oCosKXBttFhPSqMimDMoC+/JzWMmggpxGFc07c3+G73OwO3xXco8zvJh1
+I3FcrhxSFJ4ppy2QOtpBOhWeQ2iQSSuwqp3/msNSgvqC6ueYm7/uVQrdF66x6lI
bPq7o7HGlyEu0MTd5V3uC8gUR9NjxGw0pP9XGYHV4nr0lwhdf69IzieMBFzVsJir
0Xh/Whs24HQ7RLmSfwZmE99bhOBKv1KDF+5RcJHpKkLXGuAWLWy6SQgxD5gk+AI8
SvkNsGJuYxt7tE/aYwGdwznyt2wovsxjsSmZQNdnXBb0visoBoZakSgxS5tMahH6
aIxJwQsC1GmnLUHgC4GPWuEzOccsYk3rrUKE4GIiE4jukpE4cscwUwJvx+xQxEin
YQgslgRANEgUxrtBY/jfONUkiZGAnXTUeaIkk8DXh1PucKIWREI2zeS4Ea+19MuE
jwCEH+30yRXtNVpFxkSJXofUGIx5tVMa4CFtmOCupUgvp+5xJRGJAX3XyvEp77Aq
PETzU9RZWiHOMrNhKxhLlhx0piIeyHx6TXxugAziV2CL
-----END CERTIFICATE-----
