Certificate:
    Data:
        Version: 3 (0x2)
        Serial Number: 9473 (0x2501)
    Signature Algorithm: sha256WithRSAEncryption
        Issuer: C=US, ST=OH, L=Columbus, O=VikingVPN, OU=MyOrganizationalUnit, CN=VikingVPN CA/name=EasyRSA/emailAddress=me@myhost.mydomain
        Validity
            Not Before: Nov 17 03:36:13 2016 GMT
            Not After : Nov 15 03:36:13 2026 GMT
        Subject: CN=Client154Cert3f1503
        Subject Public Key Info:
            Public Key Algorithm: rsaEncryption
                Public-Key: (4096 bit)
                Modulus:
                    00:de:5d:50:ca:33:b4:ef:b4:b7:df:ab:27:f6:dd:
                    af:5a:07:75:d4:3c:b0:59:b4:2a:b7:dc:7c:1e:a6:
                    32:7c:15:28:a2:9c:4f:0f:8c:6f:33:a5:5e:6d:35:
                    e1:09:8e:37:8e:e2:22:6a:9e:9c:0a:85:3e:45:7c:
                    a3:a4:7d:07:a8:09:95:65:d8:2e:8d:42:f4:fd:8e:
                    bb:3f:21:57:b5:f6:5c:91:29:c3:47:00:ae:71:ae:
                    5e:41:a0:c6:8a:e3:55:ee:8f:c3:ea:43:26:41:ef:
                    15:fd:82:b0:2d:d7:be:23:5d:2c:24:dd:c9:cd:0e:
                    0b:6d:c2:57:48:d4:25:22:9c:ae:64:d6:bb:a1:c7:
                    ee:58:53:9c:66:0d:03:32:a8:fb:46:3c:04:0a:70:
                    95:58:c0:75:c3:60:23:3b:f6:b0:72:df:99:05:0c:
                    e4:43:7b:2c:15:94:69:9e:a9:b6:58:d2:d8:50:34:
                    e9:74:5a:80:95:57:2a:0f:84:7e:9b:07:78:81:e2:
                    58:14:0a:ae:70:fa:79:c7:58:cd:55:c4:fc:38:ec:
                    85:03:03:66:a7:e7:d7:18:27:cb:d5:87:56:9e:57:
                    84:a4:99:21:94:a3:c2:03:7c:04:7d:28:1e:17:08:
                    eb:71:c5:cf:c4:8a:71:ed:bc:dc:4a:84:af:e0:33:
                    58:b2:6e:e5:f3:85:05:df:27:0f:95:7a:fb:66:dd:
                    13:f3:18:b2:0d:14:30:e8:b1:7c:32:d8:8e:17:94:
                    ee:08:1b:9a:4b:8d:a1:92:cb:87:0d:fc:57:2c:d8:
                    da:39:4b:31:29:a3:44:4c:95:e4:c1:7a:72:bf:18:
                    f9:6d:1e:64:85:64:13:cb:00:50:7b:69:4b:1a:0e:
                    02:b2:32:a3:8f:6c:c3:d0:e0:32:bd:b9:21:be:f7:
                    7e:68:78:5d:e3:a7:cc:4a:41:74:a0:51:27:76:1c:
                    7e:34:ca:18:1e:09:d6:48:1e:37:c5:86:da:d8:d3:
                    69:8d:30:5c:32:db:b8:e5:61:d9:38:e4:c9:b0:5b:
                    e7:f6:d2:4e:41:be:7f:1e:eb:38:0d:3b:73:30:06:
                    30:f2:64:21:e1:15:9d:a1:14:0b:a5:2f:f5:d0:31:
                    7f:85:69:ba:71:de:e0:30:65:2d:98:92:3f:5a:ed:
                    07:5e:5d:47:8b:80:f7:33:5d:43:75:ca:b7:b4:b1:
                    b3:71:bb:e6:58:cf:f5:a2:d5:89:2f:87:c5:10:63:
                    9f:66:fe:41:fc:ef:b9:2a:34:86:9b:13:e1:5f:23:
                    85:f3:b1:c4:f8:f1:7e:ae:8f:3f:74:e4:48:d3:f5:
                    41:71:3a:ae:29:77:1b:89:cd:c2:29:55:ea:3e:81:
                    6d:54:5b
                Exponent: 65537 (0x10001)
        X509v3 extensions:
            X509v3 Basic Constraints: 
                CA:FALSE
            Netscape Comment: 
                Easy-RSA Generated Certificate
            X509v3 Subject Key Identifier: 
                B1:40:AB:0C:C2:A4:E3:08:5A:11:56:F5:3D:0A:52:D3:21:D7:DE:80
            X509v3 Authority Key Identifier: 
                keyid:12:CD:60:04:D2:A0:80:9E:70:ED:C6:99:B8:7B:2C:C6:52:FD:19:A1
                DirName:/C=US/ST=OH/L=Columbus/O=VikingVPN/OU=MyOrganizationalUnit/CN=VikingVPN CA/name=EasyRSA/emailAddress=me@myhost.mydomain
                serial:CF:35:85:EE:80:BF:2A:3E

            X509v3 Extended Key Usage: 
                TLS Web Client Authentication
            X509v3 Key Usage: 
                Digital Signature
    Signature Algorithm: sha256WithRSAEncryption
         87:8c:b7:40:94:96:34:ee:e5:66:69:48:a0:cf:7a:b5:bb:a9:
         2e:cb:de:00:4a:02:56:70:fc:0d:33:1c:58:5b:af:3e:bc:78:
         e0:3a:50:95:e1:5c:18:ad:e4:7a:8a:9c:bf:f0:ca:f4:68:ae:
         dd:fd:80:59:8b:46:88:96:ad:9f:f5:3c:79:f7:8e:f0:f6:75:
         ad:24:90:a1:d5:6a:6d:6c:c4:7f:0f:28:5a:e8:88:e7:24:82:
         c1:45:be:15:ae:bf:22:e9:d0:58:c8:72:a9:4f:47:71:8e:ee:
         25:ad:c2:86:27:b5:1e:11:f3:5e:e0:cd:e7:45:cd:2a:61:25:
         fe:06:84:b0:03:ca:3c:d8:c8:39:9e:f6:f8:6c:1a:bf:de:eb:
         f6:87:81:d4:9a:a0:38:9c:28:3d:c2:1c:4b:e3:98:1a:a6:9d:
         ba:b9:65:9c:04:4f:32:d8:a7:b0:2f:9c:66:a4:44:b3:70:f9:
         ab:88:43:ba:3a:90:8c:36:72:90:63:f6:e5:17:4c:03:10:d7:
         a4:32:f4:f8:71:c1:e1:1d:90:b6:11:4e:5f:c8:18:1f:32:15:
         48:20:2d:08:ce:1a:e2:70:ac:52:4a:a8:b1:70:29:8d:1c:97:
         a1:40:ee:b6:17:38:61:d6:a1:8e:70:ec:d4:72:4f:ad:48:0f:
         01:1c:a9:5c:b6:ed:1a:47:7c:e5:f1:6e:d4:04:60:5a:21:a9:
         76:8c:f8:dc:5e:57:d5:9f:ed:c9:a5:a2:94:89:c8:45:75:d9:
         da:ed:05:ca:f9:12:dd:90:60:30:58:be:ac:1b:b0:2d:32:57:
         c9:a7:0a:4c:5e:ee:ac:b3:7d:65:60:b3:ba:d0:fd:12:83:81:
         42:6e:74:1a:16:a6:5b:4f:36:e3:41:49:a8:5e:3a:05:2f:7a:
         f7:63:97:ad:cb:d4:cc:8d:85:fe:a5:57:ef:35:f0:d9:ed:ff:
         35:57:b6:c3:6a:ba:42:5f:72:7e:21:b4:c8:0b:76:0b:12:9c:
         91:15:6c:71:3e:44:bb:40:85:a4:60:a0:07:b2:f4:11:11:6a:
         6d:6e:f9:5a:91:6f:77:e9:cf:6c:c9:97:b8:4e:24:d8:81:a7:
         c6:ed:c8:36:49:cd:5e:0f:cb:09:5f:c9:2c:a3:67:67:40:eb:
         a6:cb:5c:7e:88:44:9a:30:49:5f:1c:9a:79:09:4e:49:58:36:
         f5:5d:03:eb:92:af:bf:87:f0:3c:f9:6d:3c:79:f2:87:05:42:
         b7:62:02:f8:08:b9:13:d1:65:72:da:8e:b7:62:75:b0:b7:24:
         9f:26:d0:8d:67:94:ae:78:96:8a:e1:3c:27:1c:be:c0:ba:47:
         4f:fe:47:0c:85:34:b7:c1
-----BEGIN CERTIFICATE-----
MIIGrDCCBJSgAwIBAgICJQEwDQYJKoZIhvcNAQELBQAwgawxCzAJBgNVBAYTAlVT
MQswCQYDVQQIEwJPSDERMA8GA1UEBxMIQ29sdW1idXMxEjAQBgNVBAoTCVZpa2lu
Z1ZQTjEdMBsGA1UECxMUTXlPcmdhbml6YXRpb25hbFVuaXQxFTATBgNVBAMTDFZp
a2luZ1ZQTiBDQTEQMA4GA1UEKRMHRWFzeVJTQTEhMB8GCSqGSIb3DQEJARYSbWVA
bXlob3N0Lm15ZG9tYWluMB4XDTE2MTExNzAzMzYxM1oXDTI2MTExNTAzMzYxM1ow
HjEcMBoGA1UEAxMTQ2xpZW50MTU0Q2VydDNmMTUwMzCCAiIwDQYJKoZIhvcNAQEB
BQADggIPADCCAgoCggIBAN5dUMoztO+0t9+rJ/bdr1oHddQ8sFm0KrfcfB6mMnwV
KKKcTw+MbzOlXm014QmON47iImqenAqFPkV8o6R9B6gJlWXYLo1C9P2Ouz8hV7X2
XJEpw0cArnGuXkGgxorjVe6Pw+pDJkHvFf2CsC3XviNdLCTdyc0OC23CV0jUJSKc
rmTWu6HH7lhTnGYNAzKo+0Y8BApwlVjAdcNgIzv2sHLfmQUM5EN7LBWUaZ6ptljS
2FA06XRagJVXKg+EfpsHeIHiWBQKrnD6ecdYzVXE/DjshQMDZqfn1xgny9WHVp5X
hKSZIZSjwgN8BH0oHhcI63HFz8SKce283EqEr+AzWLJu5fOFBd8nD5V6+2bdE/MY
sg0UMOixfDLYjheU7ggbmkuNoZLLhw38VyzY2jlLMSmjREyV5MF6cr8Y+W0eZIVk
E8sAUHtpSxoOArIyo49sw9DgMr25Ib73fmh4XeOnzEpBdKBRJ3YcfjTKGB4J1kge
N8WG2tjTaY0wXDLbuOVh2TjkybBb5/bSTkG+fx7rOA07czAGMPJkIeEVnaEUC6Uv
9dAxf4VpunHe4DBlLZiSP1rtB15dR4uA9zNdQ3XKt7Sxs3G75ljP9aLViS+HxRBj
n2b+QfzvuSo0hpsT4V8jhfOxxPjxfq6PP3TkSNP1QXE6ril3G4nNwilV6j6BbVRb
AgMBAAGjggFjMIIBXzAJBgNVHRMEAjAAMC0GCWCGSAGG+EIBDQQgFh5FYXN5LVJT
QSBHZW5lcmF0ZWQgQ2VydGlmaWNhdGUwHQYDVR0OBBYEFLFAqwzCpOMIWhFW9T0K
UtMh196AMIHhBgNVHSMEgdkwgdaAFBLNYATSoICecO3Gmbh7LMZS/RmhoYGypIGv
MIGsMQswCQYDVQQGEwJVUzELMAkGA1UECBMCT0gxETAPBgNVBAcTCENvbHVtYnVz
MRIwEAYDVQQKEwlWaWtpbmdWUE4xHTAbBgNVBAsTFE15T3JnYW5pemF0aW9uYWxV
bml0MRUwEwYDVQQDEwxWaWtpbmdWUE4gQ0ExEDAOBgNVBCkTB0Vhc3lSU0ExITAf
BgkqhkiG9w0BCQEWEm1lQG15aG9zdC5teWRvbWFpboIJAM81he6Avyo+MBMGA1Ud
JQQMMAoGCCsGAQUFBwMCMAsGA1UdDwQEAwIHgDANBgkqhkiG9w0BAQsFAAOCAgEA
h4y3QJSWNO7lZmlIoM96tbupLsveAEoCVnD8DTMcWFuvPrx44DpQleFcGK3keoqc
v/DK9Giu3f2AWYtGiJatn/U8efeO8PZ1rSSQodVqbWzEfw8oWuiI5ySCwUW+Fa6/
IunQWMhyqU9HcY7uJa3Chie1HhHzXuDN50XNKmEl/gaEsAPKPNjIOZ72+Gwav97r
9oeB1JqgOJwoPcIcS+OYGqadurllnARPMtinsC+cZqREs3D5q4hDujqQjDZykGP2
5RdMAxDXpDL0+HHB4R2QthFOX8gYHzIVSCAtCM4a4nCsUkqosXApjRyXoUDuthc4
YdahjnDs1HJPrUgPARypXLbtGkd85fFu1ARgWiGpdoz43F5X1Z/tyaWilInIRXXZ
2u0FyvkS3ZBgMFi+rBuwLTJXyacKTF7urLN9ZWCzutD9EoOBQm50GhamW08240FJ
qF46BS9692OXrcvUzI2F/qVX7zXw2e3/NVe2w2q6Ql9yfiG0yAt2CxKckRVscT5E
u0CFpGCgB7L0ERFqbW75WpFvd+nPbMmXuE4k2IGnxu3INknNXg/LCV/JLKNnZ0Dr
pstcfohEmjBJXxyaeQlOSVg29V0D65Kvv4fwPPltPHnyhwVCt2IC+Ai5E9FlctqO
t2J1sLcknybQjWeUrniWiuE8Jxy+wLpHT/5HDIU0t8E=
-----END CERTIFICATE-----
