Certificate:
    Data:
        Version: 3 (0x2)
        Serial Number: 9485 (0x250d)
    Signature Algorithm: sha256WithRSAEncryption
        Issuer: C=US, ST=OH, L=Columbus, O=VikingVPN, OU=MyOrganizationalUnit, CN=VikingVPN CA/name=EasyRSA/emailAddress=me@myhost.mydomain
        Validity
            Not Before: Nov 17 14:18:05 2016 GMT
            Not After : Nov 15 14:18:05 2026 GMT
        Subject: CN=Client154Cert33cacc
        Subject Public Key Info:
            Public Key Algorithm: rsaEncryption
                Public-Key: (4096 bit)
                Modulus:
                    00:e7:9c:59:77:44:38:7c:df:b1:09:4d:88:28:6e:
                    e7:80:95:34:c7:48:0e:92:20:36:b6:49:da:4b:c9:
                    70:9c:91:8b:05:e4:60:a0:40:50:49:73:56:e7:0f:
                    7e:cf:ea:50:73:ee:99:55:e1:59:c3:a0:ef:3b:18:
                    4f:14:b4:7a:8e:38:f2:c0:b3:a0:42:73:4e:9a:51:
                    24:9c:b0:d1:43:5d:27:68:5e:06:74:12:e1:c5:89:
                    8f:41:ad:14:7d:ea:06:de:eb:90:e2:d5:81:28:27:
                    2c:d4:cc:ba:41:18:15:82:c3:45:a6:40:20:70:7c:
                    77:db:82:b7:09:45:6c:46:48:cd:7b:e6:72:fc:d9:
                    66:83:a4:ab:fb:db:26:8a:b2:dd:01:24:63:cd:7e:
                    4e:0b:9b:99:dd:a8:7f:16:46:e1:3f:e9:d4:dc:c2:
                    b6:32:df:3e:7e:66:ac:07:c0:bf:65:7b:e2:c9:4a:
                    67:9e:58:d3:78:d3:5b:08:d1:9a:13:74:c9:ac:67:
                    ff:8f:bb:2f:cd:5c:2f:cc:e3:c2:a6:ce:da:23:dd:
                    ef:91:5d:c0:be:d1:0d:85:27:23:a5:7a:d2:6a:39:
                    5e:3b:6d:93:e3:81:e9:c3:70:ee:ac:1a:aa:e1:b4:
                    fa:0a:fa:39:e7:97:e0:0b:b5:89:f6:06:7b:a1:8f:
                    d0:7b:e8:53:bb:13:e5:a0:01:c4:fd:31:14:df:c2:
                    2a:0e:20:b6:1b:87:ff:eb:8a:32:7e:85:3b:56:36:
                    cc:9f:4a:bf:b7:36:0d:7d:e2:16:aa:47:77:2b:6c:
                    f6:bd:4e:61:56:f8:26:7b:23:db:41:60:c4:9b:05:
                    9c:7e:98:28:70:7e:aa:05:5a:b8:92:d1:87:11:0e:
                    b4:74:b2:61:cb:40:ef:6f:0e:e7:d1:78:35:87:7a:
                    3e:df:d7:21:fa:93:9f:60:69:e3:6b:6c:0c:64:ef:
                    06:7b:ca:34:da:b1:f3:02:c7:93:0e:81:79:8a:da:
                    a5:26:75:9a:e8:94:7a:19:07:16:6e:36:54:46:1a:
                    b8:8f:cd:ac:21:75:41:d3:11:cd:bb:9f:7e:0e:80:
                    5f:2e:c3:98:f0:5c:f2:c1:54:9a:26:e4:ec:d8:aa:
                    96:07:46:20:c8:88:fb:5e:c0:db:7b:96:03:7d:21:
                    81:ae:fe:82:44:1b:46:17:95:31:cc:f8:62:6c:90:
                    a6:f1:46:fe:bf:68:65:7f:25:34:e2:2b:1c:db:c6:
                    60:10:ee:5e:f1:a9:0e:e6:dc:cd:aa:1e:a1:07:16:
                    24:04:a7:06:5b:bb:53:39:7a:63:4a:07:cd:bf:06:
                    70:28:c7:6e:34:fd:a7:bf:07:3d:7c:d2:c7:96:8c:
                    c6:e7:a7
                Exponent: 65537 (0x10001)
        X509v3 extensions:
            X509v3 Basic Constraints: 
                CA:FALSE
            Netscape Comment: 
                Easy-RSA Generated Certificate
            X509v3 Subject Key Identifier: 
                C6:ED:AF:79:27:82:F1:A8:88:64:FF:F9:C4:44:79:F7:87:A2:1A:23
            X509v3 Authority Key Identifier: 
                keyid:12:CD:60:04:D2:A0:80:9E:70:ED:C6:99:B8:7B:2C:C6:52:FD:19:A1
                DirName:/C=US/ST=OH/L=Columbus/O=VikingVPN/OU=MyOrganizationalUnit/CN=VikingVPN CA/name=EasyRSA/emailAddress=me@myhost.mydomain
                serial:CF:35:85:EE:80:BF:2A:3E

            X509v3 Extended Key Usage: 
                TLS Web Client Authentication
            X509v3 Key Usage: 
                Digital Signature
    Signature Algorithm: sha256WithRSAEncryption
         27:d8:cc:f7:32:1d:92:28:1d:aa:ef:17:9a:59:05:c7:0c:d8:
         e1:ce:07:b9:36:a6:10:a0:08:59:81:ce:31:14:b8:2e:b0:46:
         a3:98:5a:69:e6:ba:bb:3d:13:02:4d:e2:85:8d:ed:d9:a8:af:
         90:62:58:53:fc:1e:59:03:66:c1:a3:af:44:45:49:89:e9:ca:
         55:9d:1b:ff:fd:a2:31:89:6c:c6:a7:4c:19:d2:d8:89:a5:57:
         ce:47:85:27:9a:99:92:ab:b0:ca:e2:47:c3:0e:5c:0e:d8:88:
         b8:d4:dd:6c:de:93:29:b3:9b:20:e1:a1:9f:14:30:0a:d3:51:
         34:f2:9a:3e:f4:76:a6:57:e8:8c:08:63:59:ec:18:17:fd:45:
         98:c6:88:6e:7d:19:4d:24:b6:3b:86:2d:bf:71:c3:02:5b:df:
         16:1b:23:b7:61:ed:4f:e3:11:90:fc:3f:2f:70:20:67:2b:89:
         a7:26:72:55:c3:c3:23:7c:3f:ba:af:77:e6:19:b2:33:6f:e2:
         d3:2f:fd:95:04:e0:3d:a2:d9:e5:cd:2d:70:a3:18:ea:46:93:
         99:cd:e8:82:fd:c9:d2:77:9c:0f:50:06:97:8c:5e:32:dc:d4:
         b5:97:e8:db:c2:16:5c:cc:84:d0:39:40:63:0d:46:2c:49:11:
         0b:d6:7e:9e:3a:49:d3:46:1c:68:9f:1c:4f:29:85:80:94:fa:
         2f:5b:88:85:b9:29:f2:1f:5e:85:af:03:4e:a6:66:ef:28:2c:
         a8:d3:fa:11:7a:5c:72:d0:79:85:74:7a:56:fd:9d:10:dd:07:
         22:05:d0:a2:3c:85:0b:6b:9c:a5:c5:02:f6:95:d0:3f:75:ff:
         ed:e2:00:50:71:d3:4d:12:0e:73:1e:14:5a:4b:04:75:e7:b1:
         fb:e5:6d:c6:da:7f:62:14:32:9a:58:6a:9c:82:ff:58:b5:3f:
         1e:dc:81:88:08:ba:c7:d7:98:d8:9a:ca:6a:6c:c5:49:dc:67:
         29:7c:9b:b9:ea:af:bd:6c:33:7d:c7:0b:4a:59:2c:29:a5:9a:
         30:4f:7d:30:f5:41:75:b9:bc:50:5b:72:7a:ac:b9:75:2c:05:
         1e:2c:27:ca:ae:02:50:fa:58:4c:66:35:e5:a3:5c:09:b9:9c:
         a4:db:18:fd:e9:fb:58:a2:32:cf:09:2b:da:da:51:f2:85:39:
         d9:a4:83:a4:dc:4d:67:d7:24:cc:d7:a8:74:ae:78:c4:5e:3b:
         92:0b:67:4c:53:b8:6b:76:4d:c7:bc:f3:58:11:4c:ee:c6:57:
         ef:88:27:dc:2d:ae:8b:37:28:71:eb:78:4c:14:e3:6f:4f:08:
         26:37:fa:a1:9f:fa:02:ff
-----BEGIN CERTIFICATE-----
MIIGrDCCBJSgAwIBAgICJQ0wDQYJKoZIhvcNAQELBQAwgawxCzAJBgNVBAYTAlVT
MQswCQYDVQQIEwJPSDERMA8GA1UEBxMIQ29sdW1idXMxEjAQBgNVBAoTCVZpa2lu
Z1ZQTjEdMBsGA1UECxMUTXlPcmdhbml6YXRpb25hbFVuaXQxFTATBgNVBAMTDFZp
a2luZ1ZQTiBDQTEQMA4GA1UEKRMHRWFzeVJTQTEhMB8GCSqGSIb3DQEJARYSbWVA
bXlob3N0Lm15ZG9tYWluMB4XDTE2MTExNzE0MTgwNVoXDTI2MTExNTE0MTgwNVow
HjEcMBoGA1UEAxMTQ2xpZW50MTU0Q2VydDMzY2FjYzCCAiIwDQYJKoZIhvcNAQEB
BQADggIPADCCAgoCggIBAOecWXdEOHzfsQlNiChu54CVNMdIDpIgNrZJ2kvJcJyR
iwXkYKBAUElzVucPfs/qUHPumVXhWcOg7zsYTxS0eo448sCzoEJzTppRJJyw0UNd
J2heBnQS4cWJj0GtFH3qBt7rkOLVgSgnLNTMukEYFYLDRaZAIHB8d9uCtwlFbEZI
zXvmcvzZZoOkq/vbJoqy3QEkY81+Tgubmd2ofxZG4T/p1NzCtjLfPn5mrAfAv2V7
4slKZ55Y03jTWwjRmhN0yaxn/4+7L81cL8zjwqbO2iPd75FdwL7RDYUnI6V60mo5
Xjttk+OB6cNw7qwaquG0+gr6OeeX4Au1ifYGe6GP0HvoU7sT5aABxP0xFN/CKg4g
thuH/+uKMn6FO1Y2zJ9Kv7c2DX3iFqpHdyts9r1OYVb4Jnsj20FgxJsFnH6YKHB+
qgVauJLRhxEOtHSyYctA728O59F4NYd6Pt/XIfqTn2Bp42tsDGTvBnvKNNqx8wLH
kw6BeYrapSZ1muiUehkHFm42VEYauI/NrCF1QdMRzbuffg6AXy7DmPBc8sFUmibk
7NiqlgdGIMiI+17A23uWA30hga7+gkQbRheVMcz4YmyQpvFG/r9oZX8lNOIrHNvG
YBDuXvGpDubczaoeoQcWJASnBlu7Uzl6Y0oHzb8GcCjHbjT9p78HPXzSx5aMxuen
AgMBAAGjggFjMIIBXzAJBgNVHRMEAjAAMC0GCWCGSAGG+EIBDQQgFh5FYXN5LVJT
QSBHZW5lcmF0ZWQgQ2VydGlmaWNhdGUwHQYDVR0OBBYEFMbtr3kngvGoiGT/+cRE
efeHohojMIHhBgNVHSMEgdkwgdaAFBLNYATSoICecO3Gmbh7LMZS/RmhoYGypIGv
MIGsMQswCQYDVQQGEwJVUzELMAkGA1UECBMCT0gxETAPBgNVBAcTCENvbHVtYnVz
MRIwEAYDVQQKEwlWaWtpbmdWUE4xHTAbBgNVBAsTFE15T3JnYW5pemF0aW9uYWxV
bml0MRUwEwYDVQQDEwxWaWtpbmdWUE4gQ0ExEDAOBgNVBCkTB0Vhc3lSU0ExITAf
BgkqhkiG9w0BCQEWEm1lQG15aG9zdC5teWRvbWFpboIJAM81he6Avyo+MBMGA1Ud
JQQMMAoGCCsGAQUFBwMCMAsGA1UdDwQEAwIHgDANBgkqhkiG9w0BAQsFAAOCAgEA
J9jM9zIdkigdqu8XmlkFxwzY4c4HuTamEKAIWYHOMRS4LrBGo5haaea6uz0TAk3i
hY3t2aivkGJYU/weWQNmwaOvREVJienKVZ0b//2iMYlsxqdMGdLYiaVXzkeFJ5qZ
kquwyuJHww5cDtiIuNTdbN6TKbObIOGhnxQwCtNRNPKaPvR2plfojAhjWewYF/1F
mMaIbn0ZTSS2O4Ytv3HDAlvfFhsjt2HtT+MRkPw/L3AgZyuJpyZyVcPDI3w/uq93
5hmyM2/i0y/9lQTgPaLZ5c0tcKMY6kaTmc3ogv3J0necD1AGl4xeMtzUtZfo28IW
XMyE0DlAYw1GLEkRC9Z+njpJ00YcaJ8cTymFgJT6L1uIhbkp8h9eha8DTqZm7ygs
qNP6EXpcctB5hXR6Vv2dEN0HIgXQojyFC2ucpcUC9pXQP3X/7eIAUHHTTRIOcx4U
WksEdeex++Vtxtp/YhQymlhqnIL/WLU/HtyBiAi6x9eY2JrKamzFSdxnKXybueqv
vWwzfccLSlksKaWaME99MPVBdbm8UFtyeqy5dSwFHiwnyq4CUPpYTGY15aNcCbmc
pNsY/en7WKIyzwkr2tpR8oU52aSDpNxNZ9ckzNeodK54xF47kgtnTFO4a3ZNx7zz
WBFM7sZX74gn3C2uizcocet4TBTjb08IJjf6oZ/6Av8=
-----END CERTIFICATE-----
