Certificate:
    Data:
        Version: 3 (0x2)
        Serial Number: 9514 (0x252a)
    Signature Algorithm: sha256WithRSAEncryption
        Issuer: C=US, ST=OH, L=Columbus, O=VikingVPN, OU=MyOrganizationalUnit, CN=VikingVPN CA/name=EasyRSA/emailAddress=me@myhost.mydomain
        Validity
            Not Before: Nov 22 12:05:55 2016 GMT
            Not After : Nov 20 12:05:55 2026 GMT
        Subject: CN=Client2600Cert18e2c5
        Subject Public Key Info:
            Public Key Algorithm: rsaEncryption
                Public-Key: (4096 bit)
                Modulus:
                    00:cf:ea:86:4f:87:7e:82:4f:57:a0:cc:a2:55:f2:
                    8a:e7:06:f6:47:8d:16:f7:52:2b:0b:5f:54:93:f7:
                    63:a3:32:b8:dd:ce:07:ce:99:fa:5b:51:93:8c:25:
                    39:23:7f:86:61:bf:2a:1e:69:3e:28:14:9f:9c:d6:
                    3a:e7:4c:32:19:20:f9:80:43:74:02:cb:bd:ff:d8:
                    15:08:df:42:e5:5c:b0:5c:03:15:ec:5e:b1:40:f1:
                    e1:93:0b:b2:d2:14:ff:15:66:06:5d:7d:29:c7:bf:
                    27:eb:be:7a:5b:47:a6:85:c6:c4:87:11:40:4d:57:
                    69:4c:8a:e6:b7:0b:cd:cd:cb:a0:f6:89:c1:b0:75:
                    75:ee:02:8d:93:ce:b3:41:46:74:44:eb:f7:f7:4e:
                    96:e8:be:ae:01:b2:a2:38:3f:bb:3f:84:30:f5:85:
                    14:ff:bd:43:00:28:77:7f:3a:53:97:29:a9:08:4a:
                    92:40:07:cf:81:45:a7:b6:2b:eb:79:34:dc:2f:7d:
                    92:db:6d:54:c4:f9:68:6e:89:ff:07:bc:4b:4f:25:
                    42:37:8e:c2:0a:52:ed:d8:fb:70:c0:49:fe:93:8f:
                    bd:f5:40:3a:3c:8e:ed:b9:ba:5b:65:6a:97:99:b9:
                    11:5c:cf:fb:f5:0e:7e:1e:d5:16:de:8f:7b:80:72:
                    b6:fb:a0:ae:e2:39:1f:ce:03:30:4c:d8:6c:58:a7:
                    b1:b8:ee:82:24:9f:77:c7:ff:10:25:5a:2b:32:e7:
                    89:14:2f:0f:55:5e:1e:1a:6c:fc:2a:fc:06:51:18:
                    58:3e:08:31:d2:11:a5:e4:c5:ba:0c:45:03:11:c4:
                    21:90:27:41:8a:da:3a:a0:e9:e8:73:be:06:88:fb:
                    ea:ae:ca:e5:ab:56:c4:42:4c:ed:46:78:cb:00:d0:
                    48:fa:db:ec:05:e2:3d:ca:ba:2d:73:c6:f6:2e:3d:
                    fa:9c:5a:14:ca:cf:bd:6b:9b:92:a9:52:e7:89:c9:
                    57:b7:19:28:7d:3c:e2:84:fd:e8:19:e1:a0:c8:44:
                    8c:0a:c1:1f:50:96:e5:8d:bd:ff:5b:cc:55:8b:01:
                    3a:8e:e4:68:53:06:5a:b7:34:26:43:c6:76:53:82:
                    d4:12:2b:65:19:5f:50:dd:8c:35:4c:c6:d3:86:24:
                    e2:fb:95:d9:94:c3:1a:9b:00:2a:7a:c0:3c:83:da:
                    f6:b0:86:de:59:d4:fd:e6:d0:29:aa:25:53:4f:2a:
                    a7:bd:de:73:44:15:de:99:62:bf:10:6a:df:35:68:
                    4b:78:bf:29:95:18:9f:0a:36:3a:0b:7d:32:d7:16:
                    39:c4:5f:5c:fa:86:7e:31:6e:1c:c6:19:f7:1e:8f:
                    0d:35:f3
                Exponent: 65537 (0x10001)
        X509v3 extensions:
            X509v3 Basic Constraints: 
                CA:FALSE
            Netscape Comment: 
                Easy-RSA Generated Certificate
            X509v3 Subject Key Identifier: 
                57:CE:FB:5D:CB:3E:FD:AD:38:50:2A:8A:AC:69:3F:50:42:0B:69:55
            X509v3 Authority Key Identifier: 
                keyid:12:CD:60:04:D2:A0:80:9E:70:ED:C6:99:B8:7B:2C:C6:52:FD:19:A1
                DirName:/C=US/ST=OH/L=Columbus/O=VikingVPN/OU=MyOrganizationalUnit/CN=VikingVPN CA/name=EasyRSA/emailAddress=me@myhost.mydomain
                serial:CF:35:85:EE:80:BF:2A:3E

            X509v3 Extended Key Usage: 
                TLS Web Client Authentication
            X509v3 Key Usage: 
                Digital Signature
    Signature Algorithm: sha256WithRSAEncryption
         ec:44:45:d2:3d:a5:d5:9c:e0:61:48:c6:a6:4e:2d:d1:f5:36:
         6b:ba:f2:2c:00:02:7b:9d:8f:5c:96:92:c2:70:cf:c4:75:66:
         27:b5:9b:ca:7b:9f:4c:80:e8:9d:cb:82:56:70:80:e4:60:1c:
         16:e1:eb:15:0f:2d:45:b5:71:e9:c0:e0:fd:73:f3:25:65:4b:
         18:86:e4:64:0b:49:c5:4d:98:0c:d1:d2:51:96:02:bf:a4:f2:
         88:6e:4b:e9:65:2c:69:29:69:28:87:cd:fd:22:11:82:70:b9:
         16:dc:3c:50:41:4c:81:d1:af:80:87:07:b8:9b:5c:95:67:ae:
         c0:7c:bd:28:a6:a3:80:ac:c0:1f:95:c8:4e:98:49:20:05:85:
         01:bd:d9:1d:0b:4c:c9:40:e5:2c:3c:ba:90:50:c8:63:41:76:
         c3:45:77:1f:af:94:f5:d0:a8:0c:da:42:f8:2c:d0:8c:65:51:
         c7:e8:fc:be:87:8a:55:94:2a:55:e6:16:02:19:58:64:46:38:
         61:b6:31:4c:b6:82:bc:d8:53:d9:5f:4a:5c:c1:9d:e7:56:50:
         f7:21:7d:ff:01:52:40:4d:76:43:52:b5:10:09:54:30:43:53:
         fa:75:0e:6b:ad:85:8c:d6:80:ec:43:66:8c:0f:07:ce:3d:3e:
         f4:da:48:28:fa:6b:8e:47:9b:7d:59:ff:fc:bc:8f:43:fe:95:
         6c:18:29:49:cd:ec:d4:cd:db:71:ac:da:91:fe:87:3f:53:7f:
         a3:a2:c2:ee:bc:37:7b:c0:a9:31:2e:0b:d4:05:5b:f0:45:e6:
         00:36:29:07:0f:7a:54:73:f3:e6:44:b6:f3:7e:aa:c5:ca:4d:
         dc:97:1f:04:05:e1:1c:ee:e8:75:bb:52:ad:c7:eb:75:98:21:
         6f:9f:5f:49:05:75:15:ed:0e:4e:96:d4:cb:6c:fd:2d:56:7f:
         34:e6:de:e4:7f:ca:ab:bd:f9:42:61:59:b0:d2:e4:bf:b7:93:
         1d:49:7a:77:5e:c5:97:ed:47:0b:2f:d0:de:6f:c9:5c:89:5d:
         6b:af:e4:28:f8:24:63:aa:01:e3:92:8b:29:c4:f0:f8:e0:8b:
         a5:0a:0f:7f:f1:83:8f:7c:c7:6b:fa:9e:0e:69:5a:c7:79:96:
         a1:ef:42:9d:a5:6a:86:1a:c2:11:bb:05:80:dc:89:46:ee:0a:
         f2:5a:fc:c8:d1:4e:b7:f2:1e:83:2e:5f:99:f5:26:e9:bd:a2:
         80:2c:6e:05:20:b7:56:98:87:09:42:22:56:47:91:79:ff:f3:
         f5:e8:83:30:64:ea:48:85:ed:b6:df:5b:d6:5d:fb:24:04:f8:
         1c:78:5c:1a:ac:4b:71:48
-----BEGIN CERTIFICATE-----
MIIGrTCCBJWgAwIBAgICJSowDQYJKoZIhvcNAQELBQAwgawxCzAJBgNVBAYTAlVT
MQswCQYDVQQIEwJPSDERMA8GA1UEBxMIQ29sdW1idXMxEjAQBgNVBAoTCVZpa2lu
Z1ZQTjEdMBsGA1UECxMUTXlPcmdhbml6YXRpb25hbFVuaXQxFTATBgNVBAMTDFZp
a2luZ1ZQTiBDQTEQMA4GA1UEKRMHRWFzeVJTQTEhMB8GCSqGSIb3DQEJARYSbWVA
bXlob3N0Lm15ZG9tYWluMB4XDTE2MTEyMjEyMDU1NVoXDTI2MTEyMDEyMDU1NVow
HzEdMBsGA1UEAxMUQ2xpZW50MjYwMENlcnQxOGUyYzUwggIiMA0GCSqGSIb3DQEB
AQUAA4ICDwAwggIKAoICAQDP6oZPh36CT1egzKJV8ornBvZHjRb3UisLX1ST92Oj
MrjdzgfOmfpbUZOMJTkjf4ZhvyoeaT4oFJ+c1jrnTDIZIPmAQ3QCy73/2BUI30Ll
XLBcAxXsXrFA8eGTC7LSFP8VZgZdfSnHvyfrvnpbR6aFxsSHEUBNV2lMiua3C83N
y6D2icGwdXXuAo2TzrNBRnRE6/f3Tpbovq4BsqI4P7s/hDD1hRT/vUMAKHd/OlOX
KakISpJAB8+BRae2K+t5NNwvfZLbbVTE+Whuif8HvEtPJUI3jsIKUu3Y+3DASf6T
j731QDo8ju25ultlapeZuRFcz/v1Dn4e1Rbej3uAcrb7oK7iOR/OAzBM2GxYp7G4
7oIkn3fH/xAlWisy54kULw9VXh4abPwq/AZRGFg+CDHSEaXkxboMRQMRxCGQJ0GK
2jqg6ehzvgaI++quyuWrVsRCTO1GeMsA0Ej62+wF4j3Kui1zxvYuPfqcWhTKz71r
m5KpUueJyVe3GSh9POKE/egZ4aDIRIwKwR9QluWNvf9bzFWLATqO5GhTBlq3NCZD
xnZTgtQSK2UZX1DdjDVMxtOGJOL7ldmUwxqbACp6wDyD2vawht5Z1P3m0CmqJVNP
Kqe93nNEFd6ZYr8Qat81aEt4vymVGJ8KNjoLfTLXFjnEX1z6hn4xbhzGGfcejw01
8wIDAQABo4IBYzCCAV8wCQYDVR0TBAIwADAtBglghkgBhvhCAQ0EIBYeRWFzeS1S
U0EgR2VuZXJhdGVkIENlcnRpZmljYXRlMB0GA1UdDgQWBBRXzvtdyz79rThQKoqs
aT9QQgtpVTCB4QYDVR0jBIHZMIHWgBQSzWAE0qCAnnDtxpm4eyzGUv0ZoaGBsqSB
rzCBrDELMAkGA1UEBhMCVVMxCzAJBgNVBAgTAk9IMREwDwYDVQQHEwhDb2x1bWJ1
czESMBAGA1UEChMJVmlraW5nVlBOMR0wGwYDVQQLExRNeU9yZ2FuaXphdGlvbmFs
VW5pdDEVMBMGA1UEAxMMVmlraW5nVlBOIENBMRAwDgYDVQQpEwdFYXN5UlNBMSEw
HwYJKoZIhvcNAQkBFhJtZUBteWhvc3QubXlkb21haW6CCQDPNYXugL8qPjATBgNV
HSUEDDAKBggrBgEFBQcDAjALBgNVHQ8EBAMCB4AwDQYJKoZIhvcNAQELBQADggIB
AOxERdI9pdWc4GFIxqZOLdH1Nmu68iwAAnudj1yWksJwz8R1Zie1m8p7n0yA6J3L
glZwgORgHBbh6xUPLUW1cenA4P1z8yVlSxiG5GQLScVNmAzR0lGWAr+k8ohuS+ll
LGkpaSiHzf0iEYJwuRbcPFBBTIHRr4CHB7ibXJVnrsB8vSimo4CswB+VyE6YSSAF
hQG92R0LTMlA5Sw8upBQyGNBdsNFdx+vlPXQqAzaQvgs0IxlUcfo/L6HilWUKlXm
FgIZWGRGOGG2MUy2grzYU9lfSlzBnedWUPchff8BUkBNdkNStRAJVDBDU/p1Dmut
hYzWgOxDZowPB849PvTaSCj6a45Hm31Z//y8j0P+lWwYKUnN7NTN23Gs2pH+hz9T
f6Oiwu68N3vAqTEuC9QFW/BF5gA2KQcPelRz8+ZEtvN+qsXKTdyXHwQF4Rzu6HW7
Uq3H63WYIW+fX0kFdRXtDk6W1Mts/S1WfzTm3uR/yqu9+UJhWbDS5L+3kx1Jende
xZftRwsv0N5vyVyJXWuv5Cj4JGOqAeOSiynE8Pjgi6UKD3/xg498x2v6ng5pWsd5
lqHvQp2laoYawhG7BYDciUbuCvJa/MjRTrfyHoMuX5n1Jum9ooAsbgUgt1aYhwlC
IlZHkXn/8/XogzBk6kiF7bbfW9Zd+yQE+Bx4XBqsS3FI
-----END CERTIFICATE-----
