Certificate:
    Data:
        Version: 3 (0x2)
        Serial Number: 9521 (0x2531)
    Signature Algorithm: sha256WithRSAEncryption
        Issuer: C=US, ST=OH, L=Columbus, O=VikingVPN, OU=MyOrganizationalUnit, CN=VikingVPN CA/name=EasyRSA/emailAddress=me@myhost.mydomain
        Validity
            Not Before: Nov 23 16:10:55 2016 GMT
            Not After : Nov 21 16:10:55 2026 GMT
        Subject: CN=Client1702Cert00c442
        Subject Public Key Info:
            Public Key Algorithm: rsaEncryption
                Public-Key: (4096 bit)
                Modulus:
                    00:ee:9a:78:a8:2e:7d:36:06:84:2f:7f:41:33:4e:
                    bf:d4:cb:09:21:4b:f0:d9:6b:4c:48:ce:90:03:11:
                    c9:59:53:f2:89:8e:8e:a9:6d:34:25:e7:6a:55:dc:
                    1c:16:28:ef:0b:50:7f:4e:7d:1d:9d:f0:a5:e3:b3:
                    6b:00:28:98:cd:0b:6e:65:e4:ed:8d:9a:ca:30:5d:
                    1b:24:78:73:1e:32:25:63:06:68:e9:88:0f:fa:03:
                    35:f3:ea:d8:ed:89:5e:cc:19:50:2b:3b:b4:85:34:
                    3c:7e:ff:97:22:76:56:a9:61:5f:e6:c8:ec:8c:ad:
                    9c:a0:b1:2c:34:da:61:59:5e:0a:39:f3:69:c9:6e:
                    80:08:1f:08:40:75:24:d8:4a:f3:3a:62:99:1a:01:
                    75:1f:5d:3c:21:08:9e:fe:f7:bb:d2:f8:d1:f4:2e:
                    fe:8a:d6:ac:e2:09:ef:58:f2:c8:7c:82:d9:9c:c7:
                    7a:42:98:f8:b7:4b:bf:09:2d:39:0f:6c:e0:fc:e6:
                    ca:3c:02:5b:d9:e2:ca:1d:da:b1:91:16:95:0e:dd:
                    b5:05:06:14:10:25:d3:77:13:2d:c0:0c:35:20:18:
                    41:e0:81:f9:13:22:3b:5a:d2:f8:ef:0d:73:d0:80:
                    f5:c1:31:d9:27:81:5b:ab:f5:5b:17:47:11:04:16:
                    b9:71:e4:5d:f5:d6:1e:95:03:63:27:bd:a6:a5:72:
                    71:7a:f0:54:9b:23:33:22:f3:72:38:7f:97:95:5b:
                    64:1a:24:58:f6:2a:c4:66:b6:71:ce:c7:77:35:d3:
                    67:3c:5d:99:06:56:87:0e:72:eb:d8:98:67:d9:c8:
                    1f:8f:ac:8c:5b:2a:c6:39:22:f2:97:36:e7:95:73:
                    aa:6c:74:5a:a0:4e:26:84:c6:e1:da:8e:10:18:57:
                    11:4c:86:48:87:c1:18:3d:0d:0f:60:d1:bf:c0:f0:
                    67:9c:cb:69:a2:c0:fd:58:08:de:ca:75:76:83:ed:
                    5d:7b:93:dd:81:e0:51:10:19:6e:bb:47:4c:ae:04:
                    20:a8:ed:f9:fe:ca:20:6f:a3:e6:85:22:80:10:75:
                    4e:51:bd:bf:cc:a6:06:2b:b3:74:6c:cd:1b:58:54:
                    67:7f:0d:fc:8f:ce:bb:4d:3e:6d:5e:f3:1d:4e:85:
                    e9:a8:dd:84:86:ff:2c:2f:74:46:5e:72:54:f1:33:
                    41:93:96:d1:69:ac:e8:08:ef:80:27:04:46:ca:ee:
                    b9:a4:88:94:44:ea:7f:8d:81:cf:ac:e7:4a:be:9a:
                    78:d0:22:f4:ac:62:69:5b:87:4b:ff:ac:e6:12:4a:
                    81:9d:51:eb:02:0c:8b:cb:0e:3f:0f:c7:a0:b4:fb:
                    8e:9e:8d
                Exponent: 65537 (0x10001)
        X509v3 extensions:
            X509v3 Basic Constraints: 
                CA:FALSE
            Netscape Comment: 
                Easy-RSA Generated Certificate
            X509v3 Subject Key Identifier: 
                22:8C:DB:1A:F3:A0:EB:1A:F8:DF:2C:96:0C:DD:22:3D:90:01:08:4B
            X509v3 Authority Key Identifier: 
                keyid:12:CD:60:04:D2:A0:80:9E:70:ED:C6:99:B8:7B:2C:C6:52:FD:19:A1
                DirName:/C=US/ST=OH/L=Columbus/O=VikingVPN/OU=MyOrganizationalUnit/CN=VikingVPN CA/name=EasyRSA/emailAddress=me@myhost.mydomain
                serial:CF:35:85:EE:80:BF:2A:3E

            X509v3 Extended Key Usage: 
                TLS Web Client Authentication
            X509v3 Key Usage: 
                Digital Signature
    Signature Algorithm: sha256WithRSAEncryption
         23:57:0b:7e:07:38:d5:6d:79:e4:2a:4b:aa:e5:77:e6:6d:86:
         b4:34:6a:7b:29:87:aa:44:56:5e:e5:3a:91:01:f9:90:00:05:
         ce:77:68:89:60:74:02:f8:a1:49:20:df:44:76:a4:93:5c:03:
         33:67:61:17:af:31:64:a7:48:a6:af:c2:8c:26:18:c8:2c:7d:
         8f:2c:80:02:d0:8d:bd:59:40:8b:ba:f0:1d:35:6c:c9:7d:88:
         a6:cb:4a:03:7d:e9:8d:f5:22:a7:06:9a:d1:32:2a:aa:49:6e:
         29:b5:de:98:82:bb:5d:64:b7:6f:da:03:26:45:fe:a3:b4:fd:
         3d:dd:3b:45:a4:35:6f:75:27:78:0e:c6:91:dc:08:76:a8:3c:
         a2:3a:d3:f6:d2:f4:bf:3b:a5:d8:9b:78:cb:a7:80:16:31:fd:
         06:87:9f:6d:27:d5:f4:af:b7:d2:b0:e6:85:90:ac:af:6e:a8:
         86:ba:54:cd:65:80:81:75:d9:42:53:88:e8:d1:d3:b4:c9:71:
         80:ca:b8:57:c3:4c:2a:95:09:fc:a3:84:3e:f6:39:76:54:95:
         c8:ff:01:85:4d:b2:ee:d2:a0:1d:4e:86:7b:73:2d:db:f8:2f:
         94:6c:6e:4d:56:86:94:96:be:cb:ca:a9:38:53:88:c2:ff:66:
         a5:11:f6:de:c8:16:a0:77:d6:bb:c0:2b:a1:a6:ad:13:02:dd:
         9a:87:1b:47:af:06:5b:9d:07:d8:a5:c5:a4:40:55:56:7d:82:
         d1:70:e4:9c:29:78:f3:76:cd:dc:45:67:ff:e9:9d:ac:bc:57:
         8d:84:16:bc:a7:66:ad:a2:6f:f8:2b:d9:1f:13:57:7f:e0:db:
         af:01:6b:5d:43:58:1f:ee:e6:16:23:ed:f6:ed:38:85:e2:2c:
         32:e9:60:5d:68:cb:14:86:c1:9b:db:09:ad:c8:80:6f:a9:4f:
         31:8b:4b:ec:e1:bc:aa:c4:fa:c4:1d:b8:49:78:cc:5a:22:59:
         d5:60:e1:9e:d4:d7:8a:94:49:a3:bd:d1:ca:97:fa:16:f2:27:
         c3:93:df:11:8d:75:05:22:46:1c:7d:9b:14:89:d1:0f:c7:39:
         db:b2:8b:90:7d:11:95:e3:08:3c:a6:3e:1f:dd:fa:dd:78:b8:
         98:ae:62:d5:68:d8:dc:d1:ca:69:b4:a4:30:14:8c:27:6d:09:
         04:71:b6:73:39:fa:4e:e7:3b:99:ec:95:cd:b6:c4:80:1f:78:
         43:d7:09:43:c6:83:fc:4a:b1:ae:47:19:0b:55:07:f2:64:e2:
         12:8a:4b:de:43:4c:1e:6e:d7:14:79:4e:6a:33:01:fa:b3:cb:
         d0:a9:4a:fc:25:c4:27:47
-----BEGIN CERTIFICATE-----
MIIGrTCCBJWgAwIBAgICJTEwDQYJKoZIhvcNAQELBQAwgawxCzAJBgNVBAYTAlVT
MQswCQYDVQQIEwJPSDERMA8GA1UEBxMIQ29sdW1idXMxEjAQBgNVBAoTCVZpa2lu
Z1ZQTjEdMBsGA1UECxMUTXlPcmdhbml6YXRpb25hbFVuaXQxFTATBgNVBAMTDFZp
a2luZ1ZQTiBDQTEQMA4GA1UEKRMHRWFzeVJTQTEhMB8GCSqGSIb3DQEJARYSbWVA
bXlob3N0Lm15ZG9tYWluMB4XDTE2MTEyMzE2MTA1NVoXDTI2MTEyMTE2MTA1NVow
HzEdMBsGA1UEAxMUQ2xpZW50MTcwMkNlcnQwMGM0NDIwggIiMA0GCSqGSIb3DQEB
AQUAA4ICDwAwggIKAoICAQDumnioLn02BoQvf0EzTr/UywkhS/DZa0xIzpADEclZ
U/KJjo6pbTQl52pV3BwWKO8LUH9OfR2d8KXjs2sAKJjNC25l5O2NmsowXRskeHMe
MiVjBmjpiA/6AzXz6tjtiV7MGVArO7SFNDx+/5cidlapYV/myOyMrZygsSw02mFZ
Xgo582nJboAIHwhAdSTYSvM6YpkaAXUfXTwhCJ7+97vS+NH0Lv6K1qziCe9Y8sh8
gtmcx3pCmPi3S78JLTkPbOD85so8AlvZ4sod2rGRFpUO3bUFBhQQJdN3Ey3ADDUg
GEHggfkTIjta0vjvDXPQgPXBMdkngVur9VsXRxEEFrlx5F311h6VA2MnvaalcnF6
8FSbIzMi83I4f5eVW2QaJFj2KsRmtnHOx3c102c8XZkGVocOcuvYmGfZyB+PrIxb
KsY5IvKXNueVc6psdFqgTiaExuHajhAYVxFMhkiHwRg9DQ9g0b/A8Gecy2miwP1Y
CN7KdXaD7V17k92B4FEQGW67R0yuBCCo7fn+yiBvo+aFIoAQdU5Rvb/MpgYrs3Rs
zRtYVGd/DfyPzrtNPm1e8x1Ohemo3YSG/ywvdEZeclTxM0GTltFprOgI74AnBEbK
7rmkiJRE6n+Ngc+s50q+mnjQIvSsYmlbh0v/rOYSSoGdUesCDIvLDj8Px6C0+46e
jQIDAQABo4IBYzCCAV8wCQYDVR0TBAIwADAtBglghkgBhvhCAQ0EIBYeRWFzeS1S
U0EgR2VuZXJhdGVkIENlcnRpZmljYXRlMB0GA1UdDgQWBBQijNsa86DrGvjfLJYM
3SI9kAEISzCB4QYDVR0jBIHZMIHWgBQSzWAE0qCAnnDtxpm4eyzGUv0ZoaGBsqSB
rzCBrDELMAkGA1UEBhMCVVMxCzAJBgNVBAgTAk9IMREwDwYDVQQHEwhDb2x1bWJ1
czESMBAGA1UEChMJVmlraW5nVlBOMR0wGwYDVQQLExRNeU9yZ2FuaXphdGlvbmFs
VW5pdDEVMBMGA1UEAxMMVmlraW5nVlBOIENBMRAwDgYDVQQpEwdFYXN5UlNBMSEw
HwYJKoZIhvcNAQkBFhJtZUBteWhvc3QubXlkb21haW6CCQDPNYXugL8qPjATBgNV
HSUEDDAKBggrBgEFBQcDAjALBgNVHQ8EBAMCB4AwDQYJKoZIhvcNAQELBQADggIB
ACNXC34HONVteeQqS6rld+ZthrQ0ansph6pEVl7lOpEB+ZAABc53aIlgdAL4oUkg
30R2pJNcAzNnYRevMWSnSKavwowmGMgsfY8sgALQjb1ZQIu68B01bMl9iKbLSgN9
6Y31IqcGmtEyKqpJbim13piCu11kt2/aAyZF/qO0/T3dO0WkNW91J3gOxpHcCHao
PKI60/bS9L87pdibeMungBYx/QaHn20n1fSvt9Kw5oWQrK9uqIa6VM1lgIF12UJT
iOjR07TJcYDKuFfDTCqVCfyjhD72OXZUlcj/AYVNsu7SoB1OhntzLdv4L5Rsbk1W
hpSWvsvKqThTiML/ZqUR9t7IFqB31rvAK6GmrRMC3ZqHG0evBludB9ilxaRAVVZ9
gtFw5JwpePN2zdxFZ//pnay8V42EFrynZq2ib/gr2R8TV3/g268Ba11DWB/u5hYj
7fbtOIXiLDLpYF1oyxSGwZvbCa3IgG+pTzGLS+zhvKrE+sQduEl4zFoiWdVg4Z7U
14qUSaO90cqX+hbyJ8OT3xGNdQUiRhx9mxSJ0Q/HOduyi5B9EZXjCDymPh/d+t14
uJiuYtVo2NzRymm0pDAUjCdtCQRxtnM5+k7nO5nslc22xIAfeEPXCUPGg/xKsa5H
GQtVB/Jk4hKKS95DTB5u1xR5TmozAfqzy9CpSvwlxCdH
-----END CERTIFICATE-----
