Certificate:
    Data:
        Version: 3 (0x2)
        Serial Number: 9540 (0x2544)
    Signature Algorithm: sha256WithRSAEncryption
        Issuer: C=US, ST=OH, L=Columbus, O=VikingVPN, OU=MyOrganizationalUnit, CN=VikingVPN CA/name=EasyRSA/emailAddress=me@myhost.mydomain
        Validity
            Not Before: Nov 25 20:34:49 2016 GMT
            Not After : Nov 23 20:34:49 2026 GMT
        Subject: CN=Client2583Certbf3c47
        Subject Public Key Info:
            Public Key Algorithm: rsaEncryption
                Public-Key: (4096 bit)
                Modulus:
                    00:bd:85:6a:cc:39:a6:cc:0c:6a:63:61:f0:ed:9b:
                    e3:b7:09:e0:8d:5c:1a:98:6e:bb:04:b1:2a:37:70:
                    57:96:cc:dc:b6:10:62:8e:9c:8b:f8:e0:17:85:83:
                    d9:ba:85:16:e9:80:eb:9e:35:f6:c9:1d:7f:44:49:
                    b9:15:08:37:61:3e:f7:fe:26:4f:ad:14:02:d1:f2:
                    74:ab:3d:6c:94:b1:2c:97:26:26:79:60:d9:1a:51:
                    39:c9:f0:e0:ea:9f:4c:89:f9:06:a0:56:45:ec:34:
                    0c:d5:d4:a7:e9:a7:d0:89:0c:bb:c3:07:73:bc:95:
                    4c:7a:1c:0d:6b:2f:a9:a3:c4:5e:55:63:6a:ab:82:
                    4c:f8:76:a1:85:26:a5:24:bf:72:65:d2:d3:0a:f9:
                    d7:d7:6d:1a:68:bb:a2:0d:5e:ea:da:72:89:97:4c:
                    fa:1d:84:9c:19:df:cd:13:d9:09:e6:d7:0a:05:52:
                    d9:ab:9d:e3:3d:de:90:1c:0f:f1:f4:5d:52:de:18:
                    54:e6:e7:37:db:71:f1:a8:04:3b:a2:a8:8c:78:11:
                    72:ec:17:2d:fe:1d:42:d8:73:3d:2d:cb:51:b6:ba:
                    e3:d8:7c:20:88:57:53:85:41:61:32:20:a2:0d:81:
                    36:9a:dd:38:88:4e:be:1b:2f:26:41:09:6d:f3:83:
                    1a:2c:6f:b3:f9:5c:9d:69:41:10:af:b3:7f:da:57:
                    21:5c:2c:9c:1d:08:e4:79:40:ec:c4:88:9c:a6:32:
                    8a:2f:fd:be:83:2f:cd:c8:0a:73:2b:61:18:3f:bc:
                    bb:de:3e:78:d1:eb:d6:c1:8a:75:6c:5e:9b:13:69:
                    13:dd:83:69:63:4a:1e:81:cb:b1:36:4a:ec:77:bf:
                    67:38:c4:c4:3d:f0:ec:ec:b8:9b:db:40:e8:45:45:
                    a9:86:a6:f5:72:c2:dd:64:3c:27:01:f0:41:62:e1:
                    8b:f6:98:9c:f3:c3:50:44:7f:ab:97:20:ca:0b:81:
                    cd:37:e7:76:2d:2c:b2:30:fe:ca:3e:fb:11:d7:25:
                    27:a0:8e:f0:ee:59:40:c0:a9:5b:e9:64:33:a1:cb:
                    05:a3:4a:75:6b:b7:92:da:56:a6:90:9d:c8:89:7d:
                    cc:76:48:c7:9e:47:a5:16:18:8e:7e:a8:76:cb:d8:
                    03:fa:cc:e1:40:09:da:7b:fc:32:7a:5b:45:73:15:
                    d3:fb:4b:9d:32:32:99:e3:2d:29:a4:6a:73:ba:67:
                    a5:a4:9a:81:7b:db:1a:21:e1:4c:95:79:b4:51:4f:
                    fa:9f:d2:5a:ff:48:08:6b:a3:09:27:11:e5:0f:d3:
                    5b:a1:76:13:16:e5:0d:23:27:18:06:e3:87:26:a4:
                    bb:a2:89
                Exponent: 65537 (0x10001)
        X509v3 extensions:
            X509v3 Basic Constraints: 
                CA:FALSE
            Netscape Comment: 
                Easy-RSA Generated Certificate
            X509v3 Subject Key Identifier: 
                AA:6D:A6:6F:0A:A3:C4:59:CD:47:FD:B6:FA:85:6A:8C:BE:75:65:BE
            X509v3 Authority Key Identifier: 
                keyid:12:CD:60:04:D2:A0:80:9E:70:ED:C6:99:B8:7B:2C:C6:52:FD:19:A1
                DirName:/C=US/ST=OH/L=Columbus/O=VikingVPN/OU=MyOrganizationalUnit/CN=VikingVPN CA/name=EasyRSA/emailAddress=me@myhost.mydomain
                serial:CF:35:85:EE:80:BF:2A:3E

            X509v3 Extended Key Usage: 
                TLS Web Client Authentication
            X509v3 Key Usage: 
                Digital Signature
    Signature Algorithm: sha256WithRSAEncryption
         a3:c2:23:4e:74:cb:07:a2:0d:65:73:43:bf:2f:28:53:9d:c2:
         97:05:22:b5:80:5f:ca:de:58:ef:1d:20:88:1d:21:92:cb:25:
         63:65:e5:73:97:0b:f3:59:f5:af:33:a3:49:8b:58:0e:7a:6f:
         67:6c:ca:e4:cc:8d:f8:8f:04:3f:6b:54:b5:6f:4a:1f:8d:56:
         7d:1a:30:b6:b8:dd:9c:bb:81:6a:8f:5c:74:64:d5:4d:51:9d:
         88:84:43:d1:ec:e1:fb:c6:56:06:fa:a5:33:84:c9:8f:11:01:
         05:73:29:a9:de:af:f9:36:77:8f:3c:f2:62:46:79:9e:39:93:
         48:4c:82:19:6f:38:38:fd:06:dc:07:72:b5:64:25:33:67:20:
         55:49:a9:e1:97:40:f5:78:c6:2a:35:a5:eb:1b:4d:06:f0:67:
         61:e1:11:f6:d1:1a:98:a2:1c:fc:99:83:85:29:6b:a7:d6:b3:
         46:f7:77:9e:2c:ce:0c:37:76:a3:c2:7e:42:1b:56:5c:1f:aa:
         9d:ef:5b:bf:82:7e:91:e9:95:33:c9:e9:3b:5b:f4:6b:17:fa:
         98:d5:37:3e:75:63:75:e3:01:83:f9:00:e0:e2:2f:ea:5f:08:
         e9:ae:cc:fa:e4:3c:6a:d7:51:ad:fa:72:09:8d:f0:0a:b5:d2:
         8c:71:e2:6b:bd:97:c5:36:2b:94:79:98:9e:d7:a1:c3:6a:4e:
         1f:05:d1:fa:9f:42:1c:3f:42:86:c2:38:34:7b:d6:91:7b:67:
         52:ec:1b:3d:d9:16:95:51:8d:a5:b6:5d:c3:4d:0b:6e:a2:98:
         cb:a9:f0:ec:02:ca:db:ec:b7:d0:b3:de:c6:20:0f:ce:06:26:
         11:21:1c:92:35:0c:16:72:8b:c8:c1:e7:cd:c5:5d:03:eb:4a:
         ca:e7:25:11:db:09:e1:12:bd:d3:4e:62:9f:17:cc:60:e8:bc:
         91:f6:80:09:52:0c:7e:ff:df:59:ed:44:cc:6a:1d:7c:ce:d3:
         ef:60:30:9c:8a:79:53:cc:b2:83:a8:85:30:09:c3:0d:16:0b:
         17:bf:f1:0f:4b:64:57:26:82:29:69:dc:d9:b8:e9:0a:bc:c5:
         23:14:1e:9e:9b:59:1d:a3:06:16:77:fb:3a:69:b9:7d:76:d6:
         f0:02:25:9b:6d:47:51:cf:fb:52:5e:36:06:74:5d:cd:bf:2e:
         7d:ae:fc:43:6a:29:42:ed:61:96:95:7e:82:2c:4b:6d:64:5c:
         72:25:38:0c:e3:fd:3e:5e:bf:89:b7:54:0d:c1:8d:66:16:c9:
         81:a2:a7:b0:c7:19:5b:b9:dd:14:43:37:81:00:87:44:1e:35:
         53:fa:f0:1e:ac:01:43:ad
-----BEGIN CERTIFICATE-----
MIIGrTCCBJWgAwIBAgICJUQwDQYJKoZIhvcNAQELBQAwgawxCzAJBgNVBAYTAlVT
MQswCQYDVQQIEwJPSDERMA8GA1UEBxMIQ29sdW1idXMxEjAQBgNVBAoTCVZpa2lu
Z1ZQTjEdMBsGA1UECxMUTXlPcmdhbml6YXRpb25hbFVuaXQxFTATBgNVBAMTDFZp
a2luZ1ZQTiBDQTEQMA4GA1UEKRMHRWFzeVJTQTEhMB8GCSqGSIb3DQEJARYSbWVA
bXlob3N0Lm15ZG9tYWluMB4XDTE2MTEyNTIwMzQ0OVoXDTI2MTEyMzIwMzQ0OVow
HzEdMBsGA1UEAxMUQ2xpZW50MjU4M0NlcnRiZjNjNDcwggIiMA0GCSqGSIb3DQEB
AQUAA4ICDwAwggIKAoICAQC9hWrMOabMDGpjYfDtm+O3CeCNXBqYbrsEsSo3cFeW
zNy2EGKOnIv44BeFg9m6hRbpgOueNfbJHX9ESbkVCDdhPvf+Jk+tFALR8nSrPWyU
sSyXJiZ5YNkaUTnJ8ODqn0yJ+QagVkXsNAzV1Kfpp9CJDLvDB3O8lUx6HA1rL6mj
xF5VY2qrgkz4dqGFJqUkv3Jl0tMK+dfXbRpou6INXuracomXTPodhJwZ380T2Qnm
1woFUtmrneM93pAcD/H0XVLeGFTm5zfbcfGoBDuiqIx4EXLsFy3+HULYcz0ty1G2
uuPYfCCIV1OFQWEyIKINgTaa3TiITr4bLyZBCW3zgxosb7P5XJ1pQRCvs3/aVyFc
LJwdCOR5QOzEiJymMoov/b6DL83ICnMrYRg/vLvePnjR69bBinVsXpsTaRPdg2lj
Sh6By7E2Sux3v2c4xMQ98OzsuJvbQOhFRamGpvVywt1kPCcB8EFi4Yv2mJzzw1BE
f6uXIMoLgc0353YtLLIw/so++xHXJSegjvDuWUDAqVvpZDOhywWjSnVrt5LaVqaQ
nciJfcx2SMeeR6UWGI5+qHbL2AP6zOFACdp7/DJ6W0VzFdP7S50yMpnjLSmkanO6
Z6WkmoF72xoh4UyVebRRT/qf0lr/SAhrowknEeUP01uhdhMW5Q0jJxgG44cmpLui
iQIDAQABo4IBYzCCAV8wCQYDVR0TBAIwADAtBglghkgBhvhCAQ0EIBYeRWFzeS1S
U0EgR2VuZXJhdGVkIENlcnRpZmljYXRlMB0GA1UdDgQWBBSqbaZvCqPEWc1H/bb6
hWqMvnVlvjCB4QYDVR0jBIHZMIHWgBQSzWAE0qCAnnDtxpm4eyzGUv0ZoaGBsqSB
rzCBrDELMAkGA1UEBhMCVVMxCzAJBgNVBAgTAk9IMREwDwYDVQQHEwhDb2x1bWJ1
czESMBAGA1UEChMJVmlraW5nVlBOMR0wGwYDVQQLExRNeU9yZ2FuaXphdGlvbmFs
VW5pdDEVMBMGA1UEAxMMVmlraW5nVlBOIENBMRAwDgYDVQQpEwdFYXN5UlNBMSEw
HwYJKoZIhvcNAQkBFhJtZUBteWhvc3QubXlkb21haW6CCQDPNYXugL8qPjATBgNV
HSUEDDAKBggrBgEFBQcDAjALBgNVHQ8EBAMCB4AwDQYJKoZIhvcNAQELBQADggIB
AKPCI050yweiDWVzQ78vKFOdwpcFIrWAX8reWO8dIIgdIZLLJWNl5XOXC/NZ9a8z
o0mLWA56b2dsyuTMjfiPBD9rVLVvSh+NVn0aMLa43Zy7gWqPXHRk1U1RnYiEQ9Hs
4fvGVgb6pTOEyY8RAQVzKaner/k2d4888mJGeZ45k0hMghlvODj9BtwHcrVkJTNn
IFVJqeGXQPV4xio1pesbTQbwZ2HhEfbRGpiiHPyZg4Upa6fWs0b3d54szgw3dqPC
fkIbVlwfqp3vW7+CfpHplTPJ6Ttb9GsX+pjVNz51Y3XjAYP5AODiL+pfCOmuzPrk
PGrXUa36cgmN8Aq10oxx4mu9l8U2K5R5mJ7XocNqTh8F0fqfQhw/QobCODR71pF7
Z1LsGz3ZFpVRjaW2XcNNC26imMup8OwCytvst9Cz3sYgD84GJhEhHJI1DBZyi8jB
583FXQPrSsrnJRHbCeESvdNOYp8XzGDovJH2gAlSDH7/31ntRMxqHXzO0+9gMJyK
eVPMsoOohTAJww0WCxe/8Q9LZFcmgilp3Nm46Qq8xSMUHp6bWR2jBhZ3+zppuX12
1vACJZttR1HP+1JeNgZ0Xc2/Ln2u/ENqKULtYZaVfoIsS21kXHIlOAzj/T5ev4m3
VA3BjWYWyYGip7DHGVu53RRDN4EAh0QeNVP68B6sAUOt
-----END CERTIFICATE-----
