Certificate:
    Data:
        Version: 3 (0x2)
        Serial Number: 9543 (0x2547)
    Signature Algorithm: sha256WithRSAEncryption
        Issuer: C=US, ST=OH, L=Columbus, O=VikingVPN, OU=MyOrganizationalUnit, CN=VikingVPN CA/name=EasyRSA/emailAddress=me@myhost.mydomain
        Validity
            Not Before: Nov 25 21:56:42 2016 GMT
            Not After : Nov 23 21:56:42 2026 GMT
        Subject: CN=Client2398Cert7d146f
        Subject Public Key Info:
            Public Key Algorithm: rsaEncryption
                Public-Key: (4096 bit)
                Modulus:
                    00:a1:90:d2:aa:75:e8:82:96:a0:a3:b1:79:39:8e:
                    92:9d:d1:ab:1a:92:9b:80:04:ae:27:48:4d:99:2c:
                    b9:e5:b7:72:8a:0d:43:b1:0c:11:4a:30:a2:2b:18:
                    13:db:b1:fc:4b:e9:c8:db:78:c7:05:60:ad:ad:53:
                    dc:6d:f9:39:f9:4e:32:af:a2:0e:b7:ea:37:99:ca:
                    1b:1a:69:a6:5d:44:a9:a4:89:71:a6:f1:70:ed:ca:
                    27:6b:c8:e1:9f:26:b1:3b:31:f0:3d:bf:ff:7a:b8:
                    e7:83:6f:da:b6:5c:59:33:84:ba:fa:34:57:a0:86:
                    54:95:be:44:30:a5:c5:0e:66:a5:d4:da:17:49:cb:
                    51:0b:91:78:8f:ed:b2:7f:44:f9:c4:a1:bf:af:c3:
                    c5:15:c6:2f:08:48:c0:13:0b:1c:c9:0f:6a:95:d4:
                    89:56:89:69:27:ad:71:b3:d4:68:65:d4:8b:c8:30:
                    50:26:98:ab:dd:e4:07:f7:af:0b:ef:36:85:6e:fe:
                    76:28:cd:56:c3:78:3d:ab:27:29:5d:a7:48:f0:44:
                    8c:79:a6:83:57:8b:72:78:fd:0a:ee:8c:91:b3:63:
                    d0:2c:ac:9e:72:76:7f:b0:d1:0e:50:d7:c8:0a:dc:
                    d1:70:47:9f:32:84:9b:18:4c:75:c9:10:e2:d3:b1:
                    a0:03:fc:80:40:d4:58:c0:e4:f0:3e:c6:f3:63:85:
                    d6:6e:0e:b4:bb:2a:04:e1:88:d6:3d:66:b7:e1:c5:
                    d7:25:77:53:3c:f8:34:55:c1:73:d5:ad:9b:91:b2:
                    d3:2a:e6:ac:ed:c7:3b:a2:ee:71:a8:45:d1:4f:d7:
                    41:54:7c:21:08:06:55:8a:89:2c:e1:31:33:e3:81:
                    5c:92:dc:f0:0e:4e:a7:33:83:4e:3b:eb:ac:da:3b:
                    11:eb:b6:df:fd:26:f9:ae:97:94:1a:11:9f:c6:ce:
                    4a:d5:e8:17:64:70:c7:fc:98:8a:63:22:13:45:32:
                    57:c1:23:30:26:d3:ad:9a:0f:bd:fe:23:de:82:41:
                    e8:94:c1:fe:59:10:51:80:fb:e4:71:26:27:cd:a8:
                    88:41:29:39:c6:76:0f:3d:8d:9c:db:55:80:2d:02:
                    ae:c6:e9:39:a0:fd:7f:a2:6c:43:a7:52:a6:aa:ab:
                    3c:e4:57:57:f6:bd:b9:14:fb:e9:4d:5c:b0:e2:56:
                    49:20:42:44:75:43:d7:6c:31:eb:e6:58:a4:3c:80:
                    fc:cd:53:08:f0:2a:82:01:9e:e3:c3:ca:3f:2e:b1:
                    99:12:d1:d3:2c:cf:c1:c4:7e:d1:21:62:72:7c:69:
                    1a:5d:b5:be:ca:d1:f1:36:c6:bf:43:5d:de:46:07:
                    2b:3c:cb
                Exponent: 65537 (0x10001)
        X509v3 extensions:
            X509v3 Basic Constraints: 
                CA:FALSE
            Netscape Comment: 
                Easy-RSA Generated Certificate
            X509v3 Subject Key Identifier: 
                E4:34:DA:39:5E:FE:27:1F:D5:DE:D8:4E:95:E4:31:8E:D2:FB:32:11
            X509v3 Authority Key Identifier: 
                keyid:12:CD:60:04:D2:A0:80:9E:70:ED:C6:99:B8:7B:2C:C6:52:FD:19:A1
                DirName:/C=US/ST=OH/L=Columbus/O=VikingVPN/OU=MyOrganizationalUnit/CN=VikingVPN CA/name=EasyRSA/emailAddress=me@myhost.mydomain
                serial:CF:35:85:EE:80:BF:2A:3E

            X509v3 Extended Key Usage: 
                TLS Web Client Authentication
            X509v3 Key Usage: 
                Digital Signature
    Signature Algorithm: sha256WithRSAEncryption
         3a:94:33:79:be:7d:f9:43:8b:b0:66:ea:53:9b:4c:3f:3a:75:
         4a:be:8a:4f:4a:da:6a:73:d2:10:56:b8:8d:82:89:05:e9:bb:
         ef:58:22:e2:e4:5b:d5:14:27:51:8f:db:6a:21:98:f8:f3:a1:
         75:24:54:50:eb:21:1c:ac:14:4d:c3:46:2f:7a:ba:5c:af:cf:
         1c:7e:eb:ef:8d:67:42:19:4b:70:17:91:b5:ff:e0:30:06:4b:
         72:74:39:48:fb:a5:8f:ef:d4:f9:82:09:57:d6:30:5d:6f:bd:
         fd:0c:86:e3:b3:dc:bb:76:39:7e:cb:c9:ac:6c:84:c0:5a:70:
         e5:17:e3:e9:0c:70:1f:54:da:1f:9d:d8:36:10:5f:f7:43:c6:
         36:b8:00:6e:3b:11:31:4f:27:23:c1:7b:57:63:a9:2f:93:13:
         79:99:3c:e9:5c:9e:c0:13:88:0d:db:ff:63:bb:34:63:11:73:
         75:a1:68:95:2a:16:f9:b6:c0:29:f8:4e:c3:47:19:54:c4:74:
         72:c3:66:b7:c8:a6:39:30:6b:3b:7d:97:f0:a8:9e:76:66:81:
         28:8c:5e:3f:17:41:4d:1b:c6:05:54:97:1e:a6:1e:85:0c:45:
         cf:a2:e8:97:22:b9:c2:d3:c3:0b:c5:76:38:46:89:0c:02:1d:
         98:aa:af:bc:90:12:d3:56:d6:b3:fb:42:de:61:10:81:5d:17:
         24:b2:1e:64:20:ab:24:48:ba:1b:bf:ea:41:ed:5d:22:fa:14:
         4e:49:e3:2c:22:c6:81:32:fb:20:9d:e2:90:9d:ef:12:36:4d:
         95:a4:d7:46:d0:ea:69:c2:82:ef:99:a5:44:91:94:19:f4:1c:
         0e:56:32:59:31:e9:b7:ff:ca:c0:04:65:6f:b1:ac:ab:fc:6e:
         5a:86:40:09:15:ac:43:36:11:c8:d6:17:0d:5a:5a:a3:f4:bc:
         37:d3:c2:00:b7:bb:d9:61:5c:91:cf:13:7f:24:47:70:95:1d:
         45:7b:22:08:27:ba:74:da:8a:b0:37:b6:49:a2:d6:05:99:6e:
         63:62:85:af:a7:41:02:49:4a:46:9a:36:28:c7:02:7c:2f:76:
         2c:6d:3c:b4:6b:98:4d:a7:bf:92:8b:d7:5d:1e:7a:85:97:7c:
         43:a5:09:4f:79:4d:0e:c6:26:5c:f1:be:54:24:73:8b:e0:51:
         e0:33:2b:97:a6:38:e8:81:89:74:39:74:24:f7:b3:2e:39:2b:
         51:97:81:2c:b4:e4:7a:86:f8:43:86:7c:49:2f:9e:70:97:94:
         98:7f:15:26:a7:de:a0:1a:61:2f:d4:bc:d0:58:a7:7c:bb:39:
         5c:fd:53:ed:f5:1f:a0:d4
-----BEGIN CERTIFICATE-----
MIIGrTCCBJWgAwIBAgICJUcwDQYJKoZIhvcNAQELBQAwgawxCzAJBgNVBAYTAlVT
MQswCQYDVQQIEwJPSDERMA8GA1UEBxMIQ29sdW1idXMxEjAQBgNVBAoTCVZpa2lu
Z1ZQTjEdMBsGA1UECxMUTXlPcmdhbml6YXRpb25hbFVuaXQxFTATBgNVBAMTDFZp
a2luZ1ZQTiBDQTEQMA4GA1UEKRMHRWFzeVJTQTEhMB8GCSqGSIb3DQEJARYSbWVA
bXlob3N0Lm15ZG9tYWluMB4XDTE2MTEyNTIxNTY0MloXDTI2MTEyMzIxNTY0Mlow
HzEdMBsGA1UEAxMUQ2xpZW50MjM5OENlcnQ3ZDE0NmYwggIiMA0GCSqGSIb3DQEB
AQUAA4ICDwAwggIKAoICAQChkNKqdeiClqCjsXk5jpKd0asakpuABK4nSE2ZLLnl
t3KKDUOxDBFKMKIrGBPbsfxL6cjbeMcFYK2tU9xt+Tn5TjKvog636jeZyhsaaaZd
RKmkiXGm8XDtyidryOGfJrE7MfA9v/96uOeDb9q2XFkzhLr6NFeghlSVvkQwpcUO
ZqXU2hdJy1ELkXiP7bJ/RPnEob+vw8UVxi8ISMATCxzJD2qV1IlWiWknrXGz1Ghl
1IvIMFAmmKvd5Af3rwvvNoVu/nYozVbDeD2rJyldp0jwRIx5poNXi3J4/QrujJGz
Y9AsrJ5ydn+w0Q5Q18gK3NFwR58yhJsYTHXJEOLTsaAD/IBA1FjA5PA+xvNjhdZu
DrS7KgThiNY9Zrfhxdcld1M8+DRVwXPVrZuRstMq5qztxzui7nGoRdFP10FUfCEI
BlWKiSzhMTPjgVyS3PAOTqczg04766zaOxHrtt/9Jvmul5QaEZ/GzkrV6BdkcMf8
mIpjIhNFMlfBIzAm062aD73+I96CQeiUwf5ZEFGA++RxJifNqIhBKTnGdg89jZzb
VYAtAq7G6Tmg/X+ibEOnUqaqqzzkV1f2vbkU++lNXLDiVkkgQkR1Q9dsMevmWKQ8
gPzNUwjwKoIBnuPDyj8usZkS0dMsz8HEftEhYnJ8aRpdtb7K0fE2xr9DXd5GBys8
ywIDAQABo4IBYzCCAV8wCQYDVR0TBAIwADAtBglghkgBhvhCAQ0EIBYeRWFzeS1S
U0EgR2VuZXJhdGVkIENlcnRpZmljYXRlMB0GA1UdDgQWBBTkNNo5Xv4nH9Xe2E6V
5DGO0vsyETCB4QYDVR0jBIHZMIHWgBQSzWAE0qCAnnDtxpm4eyzGUv0ZoaGBsqSB
rzCBrDELMAkGA1UEBhMCVVMxCzAJBgNVBAgTAk9IMREwDwYDVQQHEwhDb2x1bWJ1
czESMBAGA1UEChMJVmlraW5nVlBOMR0wGwYDVQQLExRNeU9yZ2FuaXphdGlvbmFs
VW5pdDEVMBMGA1UEAxMMVmlraW5nVlBOIENBMRAwDgYDVQQpEwdFYXN5UlNBMSEw
HwYJKoZIhvcNAQkBFhJtZUBteWhvc3QubXlkb21haW6CCQDPNYXugL8qPjATBgNV
HSUEDDAKBggrBgEFBQcDAjALBgNVHQ8EBAMCB4AwDQYJKoZIhvcNAQELBQADggIB
ADqUM3m+fflDi7Bm6lObTD86dUq+ik9K2mpz0hBWuI2CiQXpu+9YIuLkW9UUJ1GP
22ohmPjzoXUkVFDrIRysFE3DRi96ulyvzxx+6++NZ0IZS3AXkbX/4DAGS3J0OUj7
pY/v1PmCCVfWMF1vvf0MhuOz3Lt2OX7LyaxshMBacOUX4+kMcB9U2h+d2DYQX/dD
xja4AG47ETFPJyPBe1djqS+TE3mZPOlcnsATiA3b/2O7NGMRc3WhaJUqFvm2wCn4
TsNHGVTEdHLDZrfIpjkwazt9l/ConnZmgSiMXj8XQU0bxgVUlx6mHoUMRc+i6Jci
ucLTwwvFdjhGiQwCHZiqr7yQEtNW1rP7Qt5hEIFdFySyHmQgqyRIuhu/6kHtXSL6
FE5J4ywixoEy+yCd4pCd7xI2TZWk10bQ6mnCgu+ZpUSRlBn0HA5WMlkx6bf/ysAE
ZW+xrKv8blqGQAkVrEM2EcjWFw1aWqP0vDfTwgC3u9lhXJHPE38kR3CVHUV7Iggn
unTairA3tkmi1gWZbmNiha+nQQJJSkaaNijHAnwvdixtPLRrmE2nv5KL110eeoWX
fEOlCU95TQ7GJlzxvlQkc4vgUeAzK5emOOiBiXQ5dCT3sy45K1GXgSy05HqG+EOG
fEkvnnCXlJh/FSan3qAaYS/UvNBYp3y7OVz9U+31H6DU
-----END CERTIFICATE-----
