Certificate:
    Data:
        Version: 3 (0x2)
        Serial Number: 9554 (0x2552)
    Signature Algorithm: sha256WithRSAEncryption
        Issuer: C=US, ST=OH, L=Columbus, O=VikingVPN, OU=MyOrganizationalUnit, CN=VikingVPN CA/name=EasyRSA/emailAddress=me@myhost.mydomain
        Validity
            Not Before: Nov 26 18:18:39 2016 GMT
            Not After : Nov 24 18:18:39 2026 GMT
        Subject: CN=Client2608Certa742dd
        Subject Public Key Info:
            Public Key Algorithm: rsaEncryption
                Public-Key: (4096 bit)
                Modulus:
                    00:9c:07:a4:58:30:8b:d1:96:ea:ce:5b:d5:cf:66:
                    b9:4c:31:cd:cb:5a:ee:40:40:ee:05:78:1d:98:df:
                    08:8f:45:62:75:41:21:da:06:ee:86:0d:d5:1d:e5:
                    0e:bc:84:ed:c8:87:a5:69:15:2e:36:75:15:2c:da:
                    15:bd:9c:73:a1:18:9e:f8:5e:a4:18:97:86:17:41:
                    b2:5b:53:b3:59:ea:34:1a:f4:e7:3d:e4:8e:83:5e:
                    60:a5:55:46:c1:bb:0d:af:fa:4b:7d:ab:f1:48:fb:
                    59:86:3b:4f:07:57:21:87:7e:5f:bc:50:3a:69:f5:
                    7c:21:ed:a0:61:3c:3c:61:96:98:2b:df:2b:9f:d6:
                    d6:61:2e:14:d2:17:e3:e0:4c:7a:2f:52:9f:07:bc:
                    36:bb:d5:3b:e9:84:f1:50:2a:5a:c3:fa:8a:8a:72:
                    39:5f:0c:88:38:45:60:4a:e3:21:8f:2b:7f:d6:34:
                    c1:64:d2:bd:73:02:92:bf:d4:fa:b4:9b:0e:bd:69:
                    f4:00:03:b2:b3:96:15:fa:6a:f3:ad:50:29:5c:94:
                    c5:f4:7f:6d:38:ca:fb:f9:01:f1:5a:96:67:85:f3:
                    55:fe:c7:de:9b:ec:39:08:d8:26:cd:32:c0:b7:ec:
                    f2:00:dd:b8:9e:75:50:10:85:2b:78:5a:ae:ec:78:
                    16:92:3d:04:f1:54:78:bd:63:59:2a:48:62:01:10:
                    25:22:30:5b:3b:c5:2f:0b:14:af:d8:27:58:38:ad:
                    7c:b7:c6:c1:e9:46:c3:59:00:48:68:6e:23:f3:26:
                    2b:64:6d:da:90:2e:e0:d1:05:b5:8d:52:ff:63:44:
                    8a:25:f2:24:81:1a:2c:03:9d:c4:c3:2f:fd:c9:22:
                    9e:92:68:b4:59:28:54:28:32:49:7d:9a:8d:cd:0a:
                    bf:91:b8:eb:6d:82:67:e1:f6:c4:cb:7c:f9:08:23:
                    2b:ef:7c:d7:38:4e:11:8c:ed:fa:33:66:ca:ff:24:
                    23:96:73:62:8e:49:67:3b:9b:39:81:3d:27:0c:ba:
                    5d:a9:20:be:2d:8a:b8:ac:59:90:de:a5:59:fb:0b:
                    17:6a:73:dc:16:75:b2:2c:b4:20:4b:33:a0:e8:d5:
                    38:56:d1:69:af:7f:22:74:b3:92:11:eb:2e:cd:80:
                    62:58:01:87:28:83:00:8d:7d:2d:30:e6:03:4e:4c:
                    83:44:ea:31:3e:e2:aa:66:54:82:55:6e:e7:17:ca:
                    c8:6f:bd:be:e4:65:09:62:3c:0f:50:b2:2e:8d:8a:
                    fd:05:34:67:33:22:68:7c:2a:cb:3e:cf:51:a5:ec:
                    17:a9:79:fc:81:e8:5b:44:50:97:51:21:66:d1:4d:
                    ac:69:33
                Exponent: 65537 (0x10001)
        X509v3 extensions:
            X509v3 Basic Constraints: 
                CA:FALSE
            Netscape Comment: 
                Easy-RSA Generated Certificate
            X509v3 Subject Key Identifier: 
                2A:4A:11:48:9B:99:A4:0F:5C:E5:B1:29:CB:FF:C0:4B:72:B7:97:0E
            X509v3 Authority Key Identifier: 
                keyid:12:CD:60:04:D2:A0:80:9E:70:ED:C6:99:B8:7B:2C:C6:52:FD:19:A1
                DirName:/C=US/ST=OH/L=Columbus/O=VikingVPN/OU=MyOrganizationalUnit/CN=VikingVPN CA/name=EasyRSA/emailAddress=me@myhost.mydomain
                serial:CF:35:85:EE:80:BF:2A:3E

            X509v3 Extended Key Usage: 
                TLS Web Client Authentication
            X509v3 Key Usage: 
                Digital Signature
    Signature Algorithm: sha256WithRSAEncryption
         8c:b3:5f:81:a1:6a:f9:d9:89:c1:40:99:f0:33:3a:51:5b:af:
         a4:a2:33:a5:9f:e8:be:5c:2c:78:ea:95:dd:c7:fa:bc:fb:87:
         41:19:3d:f3:0a:08:fd:aa:dd:f8:cc:15:5b:38:fa:9f:c9:23:
         20:75:e0:9b:2c:71:08:b4:c6:29:8a:90:55:4e:c7:46:be:98:
         5d:f3:d9:d9:cf:6f:8a:47:02:ed:12:0a:2f:a6:63:a5:40:ae:
         ea:34:d5:a3:5a:4b:22:bc:28:14:62:8c:2a:f5:32:a6:9a:fd:
         10:c0:55:a7:c8:18:f7:61:05:bf:96:e7:10:e4:f3:cd:e5:91:
         e4:da:30:96:a9:6a:75:a1:e9:2c:4a:8f:93:59:20:8e:71:b4:
         5c:95:67:ba:4a:13:03:1c:e5:da:6e:e2:27:63:82:10:5b:2f:
         71:0b:d1:96:0e:a1:21:b0:44:ef:88:03:37:fe:66:cb:dd:9e:
         08:06:0f:31:3f:16:f1:f6:65:f9:64:b1:1d:45:10:e2:b1:9c:
         0b:9e:86:2a:c0:1d:ed:ad:ac:73:e4:4f:a7:de:a3:82:29:ec:
         66:4d:31:61:6a:f9:52:49:1c:29:e5:2e:e8:5c:3a:3f:69:1f:
         2e:82:cf:93:7e:be:6d:7e:ef:a4:a1:1b:09:82:ff:d9:12:f3:
         f4:d4:c4:c2:e4:fd:74:0b:d0:62:05:1d:c1:c2:ed:2d:e1:79:
         60:57:7f:38:ee:7b:6b:3e:fb:7c:b9:04:fe:08:fa:a0:b4:bf:
         c3:c1:9c:65:f2:f5:c5:92:60:a6:25:26:fe:57:db:cb:7f:61:
         7a:b5:50:97:03:ed:42:62:ac:29:63:be:15:10:9e:1a:0b:b4:
         c8:de:9e:6f:48:5d:4f:e4:dd:93:82:ce:ef:f1:28:32:2d:7c:
         4c:90:34:bc:60:4e:cd:e5:f8:d9:96:51:f1:80:92:b9:8e:e3:
         8f:b8:b8:25:22:ef:cf:0e:a9:3a:38:0f:8c:69:46:34:30:a4:
         46:d1:ac:36:d4:f8:c2:7c:c2:cf:eb:05:11:56:fe:76:86:05:
         c6:1e:fc:e2:54:79:30:5d:9e:58:12:c0:7c:4f:eb:fe:58:18:
         a7:ff:55:0e:b6:09:67:db:86:83:cf:22:90:98:81:30:0d:50:
         87:f5:fe:d5:d6:c8:cc:f4:8a:87:ff:be:1d:a6:93:27:84:8a:
         f7:d9:4e:96:d8:7c:f7:46:90:10:19:6a:a4:cc:30:9a:a5:23:
         82:34:a0:5b:b8:5a:d8:91:2a:73:97:cd:98:7d:16:6d:e5:24:
         40:19:6f:0c:a4:f4:a9:c6:e8:81:0b:3a:1f:fc:6a:df:b3:a7:
         36:94:ee:8d:0e:50:f8:0b
-----BEGIN CERTIFICATE-----
MIIGrTCCBJWgAwIBAgICJVIwDQYJKoZIhvcNAQELBQAwgawxCzAJBgNVBAYTAlVT
MQswCQYDVQQIEwJPSDERMA8GA1UEBxMIQ29sdW1idXMxEjAQBgNVBAoTCVZpa2lu
Z1ZQTjEdMBsGA1UECxMUTXlPcmdhbml6YXRpb25hbFVuaXQxFTATBgNVBAMTDFZp
a2luZ1ZQTiBDQTEQMA4GA1UEKRMHRWFzeVJTQTEhMB8GCSqGSIb3DQEJARYSbWVA
bXlob3N0Lm15ZG9tYWluMB4XDTE2MTEyNjE4MTgzOVoXDTI2MTEyNDE4MTgzOVow
HzEdMBsGA1UEAxMUQ2xpZW50MjYwOENlcnRhNzQyZGQwggIiMA0GCSqGSIb3DQEB
AQUAA4ICDwAwggIKAoICAQCcB6RYMIvRlurOW9XPZrlMMc3LWu5AQO4FeB2Y3wiP
RWJ1QSHaBu6GDdUd5Q68hO3Ih6VpFS42dRUs2hW9nHOhGJ74XqQYl4YXQbJbU7NZ
6jQa9Oc95I6DXmClVUbBuw2v+kt9q/FI+1mGO08HVyGHfl+8UDpp9Xwh7aBhPDxh
lpgr3yuf1tZhLhTSF+PgTHovUp8HvDa71TvphPFQKlrD+oqKcjlfDIg4RWBK4yGP
K3/WNMFk0r1zApK/1Pq0mw69afQAA7KzlhX6avOtUClclMX0f204yvv5AfFalmeF
81X+x96b7DkI2CbNMsC37PIA3biedVAQhSt4Wq7seBaSPQTxVHi9Y1kqSGIBECUi
MFs7xS8LFK/YJ1g4rXy3xsHpRsNZAEhobiPzJitkbdqQLuDRBbWNUv9jRIol8iSB
GiwDncTDL/3JIp6SaLRZKFQoMkl9mo3NCr+RuOttgmfh9sTLfPkIIyvvfNc4ThGM
7fozZsr/JCOWc2KOSWc7mzmBPScMul2pIL4tirisWZDepVn7Cxdqc9wWdbIstCBL
M6Do1ThW0WmvfyJ0s5IR6y7NgGJYAYcogwCNfS0w5gNOTINE6jE+4qpmVIJVbucX
yshvvb7kZQliPA9Qsi6Niv0FNGczImh8Kss+z1Gl7BepefyB6FtEUJdRIWbRTaxp
MwIDAQABo4IBYzCCAV8wCQYDVR0TBAIwADAtBglghkgBhvhCAQ0EIBYeRWFzeS1S
U0EgR2VuZXJhdGVkIENlcnRpZmljYXRlMB0GA1UdDgQWBBQqShFIm5mkD1zlsSnL
/8BLcreXDjCB4QYDVR0jBIHZMIHWgBQSzWAE0qCAnnDtxpm4eyzGUv0ZoaGBsqSB
rzCBrDELMAkGA1UEBhMCVVMxCzAJBgNVBAgTAk9IMREwDwYDVQQHEwhDb2x1bWJ1
czESMBAGA1UEChMJVmlraW5nVlBOMR0wGwYDVQQLExRNeU9yZ2FuaXphdGlvbmFs
VW5pdDEVMBMGA1UEAxMMVmlraW5nVlBOIENBMRAwDgYDVQQpEwdFYXN5UlNBMSEw
HwYJKoZIhvcNAQkBFhJtZUBteWhvc3QubXlkb21haW6CCQDPNYXugL8qPjATBgNV
HSUEDDAKBggrBgEFBQcDAjALBgNVHQ8EBAMCB4AwDQYJKoZIhvcNAQELBQADggIB
AIyzX4GhavnZicFAmfAzOlFbr6SiM6Wf6L5cLHjqld3H+rz7h0EZPfMKCP2q3fjM
FVs4+p/JIyB14JsscQi0ximKkFVOx0a+mF3z2dnPb4pHAu0SCi+mY6VAruo01aNa
SyK8KBRijCr1Mqaa/RDAVafIGPdhBb+W5xDk883lkeTaMJapanWh6SxKj5NZII5x
tFyVZ7pKEwMc5dpu4idjghBbL3EL0ZYOoSGwRO+IAzf+ZsvdnggGDzE/FvH2Zflk
sR1FEOKxnAuehirAHe2trHPkT6feo4Ip7GZNMWFq+VJJHCnlLuhcOj9pHy6Cz5N+
vm1+76ShGwmC/9kS8/TUxMLk/XQL0GIFHcHC7S3heWBXfzjue2s++3y5BP4I+qC0
v8PBnGXy9cWSYKYlJv5X28t/YXq1UJcD7UJirCljvhUQnhoLtMjenm9IXU/k3ZOC
zu/xKDItfEyQNLxgTs3l+NmWUfGAkrmO44+4uCUi788OqTo4D4xpRjQwpEbRrDbU
+MJ8ws/rBRFW/naGBcYe/OJUeTBdnlgSwHxP6/5YGKf/VQ62CWfbhoPPIpCYgTAN
UIf1/tXWyMz0iof/vh2mkyeEivfZTpbYfPdGkBAZaqTMMJqlI4I0oFu4WtiRKnOX
zZh9Fm3lJEAZbwyk9KnG6IELOh/8at+zpzaU7o0OUPgL
-----END CERTIFICATE-----
