Certificate:
    Data:
        Version: 3 (0x2)
        Serial Number: 9561 (0x2559)
    Signature Algorithm: sha256WithRSAEncryption
        Issuer: C=US, ST=OH, L=Columbus, O=VikingVPN, OU=MyOrganizationalUnit, CN=VikingVPN CA/name=EasyRSA/emailAddress=me@myhost.mydomain
        Validity
            Not Before: Nov 27 05:40:14 2016 GMT
            Not After : Nov 25 05:40:14 2026 GMT
        Subject: CN=Client2142Certe0111f
        Subject Public Key Info:
            Public Key Algorithm: rsaEncryption
                Public-Key: (4096 bit)
                Modulus:
                    00:9d:cc:3a:7b:43:ed:28:d8:5b:c3:f5:04:a6:bf:
                    1a:4f:41:82:81:d2:7e:f8:dc:18:c4:fd:62:95:a5:
                    c1:cb:dc:3d:16:43:d2:e7:f9:40:1c:1f:53:b2:10:
                    95:c9:4b:3c:71:d4:9e:67:7e:38:18:51:5b:41:82:
                    c4:37:20:29:6f:cb:25:b4:cc:ff:ea:3e:6e:04:37:
                    27:8b:46:53:2d:2b:e1:00:ab:b4:9a:41:54:c3:dd:
                    04:51:cf:9b:70:18:5b:33:14:b8:31:41:eb:df:fd:
                    6b:8e:38:07:63:41:fd:f3:d4:8d:c6:f5:5f:d1:95:
                    9b:1a:75:20:b2:99:c0:e7:92:d0:de:47:ba:7d:03:
                    58:6c:4e:9c:4c:63:2e:62:08:f7:21:0b:5f:81:ee:
                    39:da:66:10:d7:08:a8:41:7f:10:82:8f:ff:7f:dc:
                    3c:30:dc:ce:be:2d:1a:88:59:43:0e:29:00:ed:fa:
                    f0:cb:c6:02:60:85:0b:f3:c8:dd:c0:82:f1:a4:02:
                    43:ae:0b:c1:47:f6:d8:5a:db:0b:f6:d3:4f:32:26:
                    d3:12:80:49:02:a6:80:a7:5d:19:30:e9:98:f6:bb:
                    b8:88:a1:e9:76:82:3a:68:fc:11:af:9a:42:3d:15:
                    1f:4b:31:a4:f3:fe:a3:4f:bd:40:f6:eb:bb:d1:2f:
                    fc:a4:76:66:ba:4d:c0:ba:5e:01:b5:00:20:69:17:
                    ed:52:ce:c2:d5:f3:1a:8b:18:b1:e3:34:29:f3:7b:
                    de:07:5d:9c:b7:df:1a:8e:0e:ce:40:2d:b4:45:d3:
                    8a:fc:2e:b9:94:9b:85:73:74:11:a8:ac:3f:a0:f4:
                    02:ea:f8:af:de:9a:f9:7d:b0:4b:17:e0:3e:dc:8d:
                    e1:f6:e3:45:65:ed:7e:34:97:56:40:ec:a1:99:80:
                    f4:17:2a:52:8f:65:c2:c3:20:f3:1a:fc:8a:90:11:
                    92:37:99:34:5a:ba:a6:0b:84:0f:00:ea:48:8b:2e:
                    96:e2:f5:af:f0:bb:04:08:48:4f:0f:56:5c:f9:32:
                    90:c6:f1:e4:a0:98:b9:fe:3d:98:67:48:e2:ac:d6:
                    79:99:a4:50:61:02:1f:c8:99:12:14:4b:5b:c3:6f:
                    5e:39:9e:8f:14:9b:1a:18:dc:f6:2d:59:1a:d8:32:
                    c0:a1:1e:94:8b:0a:ab:bf:53:6e:6b:7d:63:4a:2e:
                    c5:43:b2:de:39:2a:a9:24:3e:eb:dd:ee:88:4e:ac:
                    cd:2c:36:b8:aa:3f:aa:8b:73:f4:87:6b:e7:db:4f:
                    6e:42:03:40:8e:c0:1b:f7:7f:60:8d:ac:46:02:43:
                    05:aa:c2:06:2a:de:24:09:53:71:a2:e3:1c:7e:62:
                    b7:2f:c9
                Exponent: 65537 (0x10001)
        X509v3 extensions:
            X509v3 Basic Constraints: 
                CA:FALSE
            Netscape Comment: 
                Easy-RSA Generated Certificate
            X509v3 Subject Key Identifier: 
                23:C6:2B:7B:9C:53:03:87:41:70:CE:00:B6:4F:AB:39:1A:4F:0D:C1
            X509v3 Authority Key Identifier: 
                keyid:12:CD:60:04:D2:A0:80:9E:70:ED:C6:99:B8:7B:2C:C6:52:FD:19:A1
                DirName:/C=US/ST=OH/L=Columbus/O=VikingVPN/OU=MyOrganizationalUnit/CN=VikingVPN CA/name=EasyRSA/emailAddress=me@myhost.mydomain
                serial:CF:35:85:EE:80:BF:2A:3E

            X509v3 Extended Key Usage: 
                TLS Web Client Authentication
            X509v3 Key Usage: 
                Digital Signature
    Signature Algorithm: sha256WithRSAEncryption
         17:75:66:e4:91:7d:6e:55:da:85:ef:13:e2:60:73:1b:a6:ba:
         85:ca:1d:f0:0b:73:d5:ea:df:c0:42:f1:81:b0:e3:c2:05:a7:
         89:e4:48:fb:f8:18:fa:0b:2a:ad:7a:b6:58:2a:bf:41:0d:4a:
         63:df:b3:05:fb:34:09:9f:de:a3:b5:0b:71:a4:3f:01:96:7a:
         cf:1a:35:aa:60:62:08:96:84:d1:cc:13:b5:69:a6:fe:66:28:
         e1:ea:0e:36:73:eb:aa:6d:b0:eb:99:8e:07:bc:d0:e5:85:8e:
         9b:8b:82:8b:aa:80:1b:f4:54:55:d0:e6:ff:9f:8e:23:26:9c:
         13:22:b7:13:c2:db:dc:1d:70:3e:c5:0a:56:7b:98:e2:ee:70:
         28:75:14:fa:85:33:fc:85:a3:d0:cc:d8:fa:00:b5:aa:a9:18:
         cd:e7:7f:0b:18:02:1d:10:60:87:9d:f4:75:1e:c5:d2:2f:af:
         5b:42:3d:18:20:ac:cd:5f:bf:0b:2f:39:27:c2:73:62:f7:12:
         74:08:21:01:42:44:b3:ab:26:7d:f8:26:34:11:97:91:84:98:
         7a:4d:a4:41:e8:87:d1:58:70:19:ed:9f:73:6b:90:58:89:6a:
         dc:37:a1:48:a6:ce:8a:59:3e:a1:f0:5f:5f:1d:7e:32:c0:ac:
         8a:5e:9a:91:e8:53:af:b4:da:2c:41:74:58:0b:53:6f:84:e7:
         46:35:d9:df:88:25:ad:e8:32:22:0d:35:ee:2b:95:bd:97:13:
         73:8c:9e:59:dc:5c:f6:c9:7b:06:a5:4a:70:82:ae:88:8d:a8:
         74:5c:04:dc:ee:d0:8c:16:7f:1f:36:d9:10:3a:c9:b2:f3:27:
         76:c9:56:3e:aa:73:8e:7f:4d:89:cb:7d:01:c9:20:8b:76:9a:
         3e:ff:4d:7a:c2:b1:3d:d0:43:d5:c6:8c:9e:05:8c:07:0b:48:
         d9:cc:8c:00:de:5e:bb:3d:d3:f9:55:b9:07:ae:dc:02:4f:02:
         18:91:87:10:40:3f:18:e8:9b:ee:8d:8d:f2:26:79:68:fa:b5:
         fd:92:a4:c9:18:ce:cc:fc:8a:d1:50:16:c3:fa:d1:d1:4b:3f:
         5a:dd:f2:16:32:fe:00:bc:da:ef:3d:d7:c5:2f:2f:bf:b6:68:
         17:e0:e6:47:1f:07:35:ca:41:18:5b:4b:3f:86:72:82:3a:e7:
         79:bd:af:8f:f0:73:e3:ff:37:a1:53:c9:03:4e:57:f2:a7:0e:
         cb:98:07:c2:84:08:66:87:0b:ed:ef:47:63:ba:cc:3c:49:cd:
         97:b8:ca:f8:c6:b7:43:51:22:86:da:9f:bd:9f:3e:3c:ce:0b:
         2a:96:59:80:12:63:10:78
-----BEGIN CERTIFICATE-----
MIIGrTCCBJWgAwIBAgICJVkwDQYJKoZIhvcNAQELBQAwgawxCzAJBgNVBAYTAlVT
MQswCQYDVQQIEwJPSDERMA8GA1UEBxMIQ29sdW1idXMxEjAQBgNVBAoTCVZpa2lu
Z1ZQTjEdMBsGA1UECxMUTXlPcmdhbml6YXRpb25hbFVuaXQxFTATBgNVBAMTDFZp
a2luZ1ZQTiBDQTEQMA4GA1UEKRMHRWFzeVJTQTEhMB8GCSqGSIb3DQEJARYSbWVA
bXlob3N0Lm15ZG9tYWluMB4XDTE2MTEyNzA1NDAxNFoXDTI2MTEyNTA1NDAxNFow
HzEdMBsGA1UEAxMUQ2xpZW50MjE0MkNlcnRlMDExMWYwggIiMA0GCSqGSIb3DQEB
AQUAA4ICDwAwggIKAoICAQCdzDp7Q+0o2FvD9QSmvxpPQYKB0n743BjE/WKVpcHL
3D0WQ9Ln+UAcH1OyEJXJSzxx1J5nfjgYUVtBgsQ3IClvyyW0zP/qPm4ENyeLRlMt
K+EAq7SaQVTD3QRRz5twGFszFLgxQevf/WuOOAdjQf3z1I3G9V/RlZsadSCymcDn
ktDeR7p9A1hsTpxMYy5iCPchC1+B7jnaZhDXCKhBfxCCj/9/3Dww3M6+LRqIWUMO
KQDt+vDLxgJghQvzyN3AgvGkAkOuC8FH9tha2wv2008yJtMSgEkCpoCnXRkw6Zj2
u7iIoel2gjpo/BGvmkI9FR9LMaTz/qNPvUD267vRL/ykdma6TcC6XgG1ACBpF+1S
zsLV8xqLGLHjNCnze94HXZy33xqODs5ALbRF04r8LrmUm4VzdBGorD+g9ALq+K/e
mvl9sEsX4D7cjeH240Vl7X40l1ZA7KGZgPQXKlKPZcLDIPMa/IqQEZI3mTRauqYL
hA8A6kiLLpbi9a/wuwQISE8PVlz5MpDG8eSgmLn+PZhnSOKs1nmZpFBhAh/ImRIU
S1vDb145no8UmxoY3PYtWRrYMsChHpSLCqu/U25rfWNKLsVDst45KqkkPuvd7ohO
rM0sNriqP6qLc/SHa+fbT25CA0COwBv3f2CNrEYCQwWqwgYq3iQJU3Gi4xx+Yrcv
yQIDAQABo4IBYzCCAV8wCQYDVR0TBAIwADAtBglghkgBhvhCAQ0EIBYeRWFzeS1S
U0EgR2VuZXJhdGVkIENlcnRpZmljYXRlMB0GA1UdDgQWBBQjxit7nFMDh0FwzgC2
T6s5Gk8NwTCB4QYDVR0jBIHZMIHWgBQSzWAE0qCAnnDtxpm4eyzGUv0ZoaGBsqSB
rzCBrDELMAkGA1UEBhMCVVMxCzAJBgNVBAgTAk9IMREwDwYDVQQHEwhDb2x1bWJ1
czESMBAGA1UEChMJVmlraW5nVlBOMR0wGwYDVQQLExRNeU9yZ2FuaXphdGlvbmFs
VW5pdDEVMBMGA1UEAxMMVmlraW5nVlBOIENBMRAwDgYDVQQpEwdFYXN5UlNBMSEw
HwYJKoZIhvcNAQkBFhJtZUBteWhvc3QubXlkb21haW6CCQDPNYXugL8qPjATBgNV
HSUEDDAKBggrBgEFBQcDAjALBgNVHQ8EBAMCB4AwDQYJKoZIhvcNAQELBQADggIB
ABd1ZuSRfW5V2oXvE+JgcxumuoXKHfALc9Xq38BC8YGw48IFp4nkSPv4GPoLKq16
tlgqv0ENSmPfswX7NAmf3qO1C3GkPwGWes8aNapgYgiWhNHME7Vppv5mKOHqDjZz
66ptsOuZjge80OWFjpuLgouqgBv0VFXQ5v+fjiMmnBMitxPC29wdcD7FClZ7mOLu
cCh1FPqFM/yFo9DM2PoAtaqpGM3nfwsYAh0QYIed9HUexdIvr1tCPRggrM1fvwsv
OSfCc2L3EnQIIQFCRLOrJn34JjQRl5GEmHpNpEHoh9FYcBntn3NrkFiJatw3oUim
zopZPqHwX18dfjLArIpempHoU6+02ixBdFgLU2+E50Y12d+IJa3oMiINNe4rlb2X
E3OMnlncXPbJewalSnCCroiNqHRcBNzu0IwWfx822RA6ybLzJ3bJVj6qc45/TYnL
fQHJIIt2mj7/TXrCsT3QQ9XGjJ4FjAcLSNnMjADeXrs90/lVuQeu3AJPAhiRhxBA
Pxjom+6NjfImeWj6tf2SpMkYzsz8itFQFsP60dFLP1rd8hYy/gC82u8918UvL7+2
aBfg5kcfBzXKQRhbSz+GcoI653m9r4/wc+P/N6FTyQNOV/KnDsuYB8KECGaHC+3v
R2O6zDxJzZe4yvjGt0NRIoban72fPjzOCyqWWYASYxB4
-----END CERTIFICATE-----
