Certificate:
    Data:
        Version: 3 (0x2)
        Serial Number: 9569 (0x2561)
    Signature Algorithm: sha256WithRSAEncryption
        Issuer: C=US, ST=OH, L=Columbus, O=VikingVPN, OU=MyOrganizationalUnit, CN=VikingVPN CA/name=EasyRSA/emailAddress=me@myhost.mydomain
        Validity
            Not Before: Nov 28 01:31:58 2016 GMT
            Not After : Nov 26 01:31:58 2026 GMT
        Subject: CN=Client1882Certece8c4
        Subject Public Key Info:
            Public Key Algorithm: rsaEncryption
                Public-Key: (4096 bit)
                Modulus:
                    00:ca:1a:cb:04:ee:f5:27:97:5f:a5:8c:da:95:43:
                    4d:15:69:fd:5b:51:ab:9c:46:cc:ab:c6:ad:bc:f3:
                    76:7c:96:df:37:e9:f8:fb:29:a8:87:4d:06:f2:51:
                    98:1d:bb:5a:52:1d:fd:54:8b:74:c6:96:72:06:01:
                    78:c7:31:9c:13:27:6c:67:01:35:bd:1e:a3:cc:11:
                    e2:0b:28:4f:c6:d5:87:a9:c2:e6:10:02:0b:c5:73:
                    60:a9:2c:31:c9:59:a2:0d:a5:6f:15:f1:c1:19:22:
                    a8:38:8c:d0:6d:56:16:f2:4f:f0:bb:9a:78:24:fe:
                    f9:9c:bb:3b:60:8b:02:ad:96:7b:17:44:84:e3:9c:
                    9a:cd:04:99:b0:99:70:dc:a4:14:bc:63:ea:53:06:
                    a8:d9:d1:a0:bb:66:22:fa:e3:e9:ee:f2:cf:73:43:
                    4b:98:5c:98:3b:48:02:16:db:6f:0b:5a:56:c8:46:
                    43:ad:b5:ef:60:9d:af:d6:df:e3:de:1a:fd:12:20:
                    7a:52:22:39:03:c4:30:7d:11:20:9c:63:98:ae:36:
                    8f:d0:58:ec:02:85:f0:ef:54:e9:65:aa:a4:46:b3:
                    ed:c7:72:9f:ad:dc:d7:bb:90:f3:4a:7a:f7:b0:93:
                    d2:6e:ad:14:28:44:8d:b0:da:81:04:3f:56:9f:c7:
                    c9:c4:31:59:2b:3f:44:9b:bb:ae:94:68:b1:3c:c2:
                    34:9e:ee:d3:cf:0d:24:e3:c1:c6:2e:a9:5b:28:1a:
                    60:09:df:b2:99:39:8e:0d:b1:45:89:83:f0:07:03:
                    b5:8c:6c:da:18:27:97:fb:e1:19:30:48:0a:80:37:
                    00:da:04:0a:c8:88:ae:25:11:e3:e9:e2:93:41:b2:
                    36:68:84:f9:6d:77:52:ed:46:a3:bd:34:6d:91:db:
                    db:e7:5e:c2:94:d8:2d:09:5e:25:10:b4:c9:7c:d4:
                    e2:c0:fe:a1:b9:2e:8f:c1:0b:97:3e:9b:30:66:7c:
                    d0:44:03:fa:fd:bd:d2:40:04:f3:64:85:91:ba:f6:
                    db:a1:bd:a9:7c:3d:28:8a:be:c6:d4:92:9d:1a:27:
                    f5:25:80:33:bf:9d:f5:91:07:bf:31:4d:d6:45:1a:
                    3c:86:cd:ef:df:4f:81:27:d9:3c:74:a8:63:5a:6c:
                    51:69:32:9c:29:36:a0:e7:ab:33:e3:1d:49:47:01:
                    ff:75:2e:60:d4:3c:cc:2e:2e:f8:f4:eb:0a:ab:b3:
                    54:f9:85:59:ab:8c:d8:18:98:1e:14:16:73:f9:d6:
                    f5:97:d3:b7:8a:08:d8:3e:96:58:4a:c6:25:bf:eb:
                    43:e8:90:c3:40:07:f0:24:e2:e8:59:a2:1a:99:6a:
                    5d:a0:1f
                Exponent: 65537 (0x10001)
        X509v3 extensions:
            X509v3 Basic Constraints: 
                CA:FALSE
            Netscape Comment: 
                Easy-RSA Generated Certificate
            X509v3 Subject Key Identifier: 
                0B:E2:AD:8F:DB:24:7E:7E:33:A3:42:9B:78:7C:D2:59:89:24:FE:13
            X509v3 Authority Key Identifier: 
                keyid:12:CD:60:04:D2:A0:80:9E:70:ED:C6:99:B8:7B:2C:C6:52:FD:19:A1
                DirName:/C=US/ST=OH/L=Columbus/O=VikingVPN/OU=MyOrganizationalUnit/CN=VikingVPN CA/name=EasyRSA/emailAddress=me@myhost.mydomain
                serial:CF:35:85:EE:80:BF:2A:3E

            X509v3 Extended Key Usage: 
                TLS Web Client Authentication
            X509v3 Key Usage: 
                Digital Signature
    Signature Algorithm: sha256WithRSAEncryption
         46:8d:fa:fc:a2:ee:6a:7a:31:6c:29:8d:a0:b5:77:3c:9d:48:
         2c:8a:56:8c:08:e5:10:0e:93:40:98:02:ae:3a:ed:af:70:8f:
         57:31:d5:5a:63:68:8d:e9:45:da:9d:f5:16:d8:dd:46:d0:72:
         31:db:89:d5:eb:1f:42:30:59:f1:e6:1b:b2:9d:06:9b:d9:a9:
         df:a4:e6:97:7e:42:ee:42:26:ac:7b:89:13:53:4a:de:a5:8b:
         77:78:fc:1d:32:ab:ea:d9:dd:8e:61:b1:e2:46:8f:77:a2:99:
         8a:1d:b9:95:7f:8c:aa:71:07:14:db:2e:44:0f:e1:80:5d:e5:
         6c:e2:c3:6a:f0:b0:a1:8d:23:ec:9f:fa:b4:bb:88:6f:3e:b3:
         d2:37:83:cd:7e:66:73:62:90:e1:69:6e:49:08:49:ab:2c:97:
         06:79:6b:97:4c:44:8f:ef:c7:c3:39:1b:29:db:a1:63:0d:8d:
         06:3c:ce:90:69:a2:02:a1:21:02:21:52:34:79:61:93:65:ad:
         e5:8b:bd:64:4b:ae:6b:96:2a:27:c6:29:3f:58:ea:64:4e:3f:
         65:51:7f:1f:7d:66:0d:88:89:64:e9:80:05:7c:de:46:80:77:
         a0:65:69:ef:b1:03:22:a8:67:f4:84:ff:89:1a:f7:fe:28:dd:
         38:63:01:40:39:89:83:e8:6d:63:0e:43:05:c5:6a:40:bc:50:
         0c:31:f8:d7:5b:a3:48:ad:d7:0d:52:c5:cc:07:dd:fe:04:7c:
         b8:2e:6f:7a:8f:73:87:26:a6:3b:a2:f4:23:cb:7e:c2:c4:8b:
         45:bc:4a:a1:dd:08:fa:af:8d:9e:37:f1:3c:9f:c4:4e:6a:12:
         94:e5:2a:14:cd:d7:ba:01:8e:2f:5c:46:52:e5:d9:d8:77:f4:
         fe:c9:8f:bc:c9:d9:01:cb:72:23:ca:95:51:62:c9:05:75:7e:
         f7:03:e3:f6:fb:5f:56:c9:05:ae:a2:14:76:04:7e:df:5f:c1:
         c2:c0:07:eb:9b:54:1f:b4:fd:da:d6:19:08:37:94:0e:c3:4b:
         07:fa:1f:7e:49:f6:2c:67:1e:07:e9:0b:ae:50:aa:47:d2:f8:
         3b:31:77:7d:0d:f3:cc:a1:a7:3e:79:65:74:5f:c9:eb:96:73:
         57:01:a0:34:0c:bd:cd:5f:93:f9:66:e3:85:57:a7:88:1c:e5:
         11:dd:2e:b8:b0:6c:1b:6d:5e:19:b9:eb:fb:01:66:45:3a:5f:
         6b:91:27:30:63:f2:99:90:fa:d5:90:86:8f:19:15:d4:96:4f:
         cc:72:5c:5d:74:98:74:87:6a:5c:4a:5b:b3:77:d6:c5:95:79:
         92:d8:12:e3:c3:98:4a:67
-----BEGIN CERTIFICATE-----
MIIGrTCCBJWgAwIBAgICJWEwDQYJKoZIhvcNAQELBQAwgawxCzAJBgNVBAYTAlVT
MQswCQYDVQQIEwJPSDERMA8GA1UEBxMIQ29sdW1idXMxEjAQBgNVBAoTCVZpa2lu
Z1ZQTjEdMBsGA1UECxMUTXlPcmdhbml6YXRpb25hbFVuaXQxFTATBgNVBAMTDFZp
a2luZ1ZQTiBDQTEQMA4GA1UEKRMHRWFzeVJTQTEhMB8GCSqGSIb3DQEJARYSbWVA
bXlob3N0Lm15ZG9tYWluMB4XDTE2MTEyODAxMzE1OFoXDTI2MTEyNjAxMzE1OFow
HzEdMBsGA1UEAxMUQ2xpZW50MTg4MkNlcnRlY2U4YzQwggIiMA0GCSqGSIb3DQEB
AQUAA4ICDwAwggIKAoICAQDKGssE7vUnl1+ljNqVQ00Vaf1bUaucRsyrxq2883Z8
lt836fj7KaiHTQbyUZgdu1pSHf1Ui3TGlnIGAXjHMZwTJ2xnATW9HqPMEeILKE/G
1YepwuYQAgvFc2CpLDHJWaINpW8V8cEZIqg4jNBtVhbyT/C7mngk/vmcuztgiwKt
lnsXRITjnJrNBJmwmXDcpBS8Y+pTBqjZ0aC7ZiL64+nu8s9zQ0uYXJg7SAIW228L
WlbIRkOtte9gna/W3+PeGv0SIHpSIjkDxDB9ESCcY5iuNo/QWOwChfDvVOllqqRG
s+3Hcp+t3Ne7kPNKevewk9JurRQoRI2w2oEEP1afx8nEMVkrP0Sbu66UaLE8wjSe
7tPPDSTjwcYuqVsoGmAJ37KZOY4NsUWJg/AHA7WMbNoYJ5f74RkwSAqANwDaBArI
iK4lEePp4pNBsjZohPltd1LtRqO9NG2R29vnXsKU2C0JXiUQtMl81OLA/qG5Lo/B
C5c+mzBmfNBEA/r9vdJABPNkhZG69tuhval8PSiKvsbUkp0aJ/UlgDO/nfWRB78x
TdZFGjyGze/fT4En2Tx0qGNabFFpMpwpNqDnqzPjHUlHAf91LmDUPMwuLvj06wqr
s1T5hVmrjNgYmB4UFnP51vWX07eKCNg+llhKxiW/60PokMNAB/Ak4uhZohqZal2g
HwIDAQABo4IBYzCCAV8wCQYDVR0TBAIwADAtBglghkgBhvhCAQ0EIBYeRWFzeS1S
U0EgR2VuZXJhdGVkIENlcnRpZmljYXRlMB0GA1UdDgQWBBQL4q2P2yR+fjOjQpt4
fNJZiST+EzCB4QYDVR0jBIHZMIHWgBQSzWAE0qCAnnDtxpm4eyzGUv0ZoaGBsqSB
rzCBrDELMAkGA1UEBhMCVVMxCzAJBgNVBAgTAk9IMREwDwYDVQQHEwhDb2x1bWJ1
czESMBAGA1UEChMJVmlraW5nVlBOMR0wGwYDVQQLExRNeU9yZ2FuaXphdGlvbmFs
VW5pdDEVMBMGA1UEAxMMVmlraW5nVlBOIENBMRAwDgYDVQQpEwdFYXN5UlNBMSEw
HwYJKoZIhvcNAQkBFhJtZUBteWhvc3QubXlkb21haW6CCQDPNYXugL8qPjATBgNV
HSUEDDAKBggrBgEFBQcDAjALBgNVHQ8EBAMCB4AwDQYJKoZIhvcNAQELBQADggIB
AEaN+vyi7mp6MWwpjaC1dzydSCyKVowI5RAOk0CYAq467a9wj1cx1VpjaI3pRdqd
9RbY3UbQcjHbidXrH0IwWfHmG7KdBpvZqd+k5pd+Qu5CJqx7iRNTSt6li3d4/B0y
q+rZ3Y5hseJGj3eimYoduZV/jKpxBxTbLkQP4YBd5Wziw2rwsKGNI+yf+rS7iG8+
s9I3g81+ZnNikOFpbkkISasslwZ5a5dMRI/vx8M5GynboWMNjQY8zpBpogKhIQIh
UjR5YZNlreWLvWRLrmuWKifGKT9Y6mROP2VRfx99Zg2IiWTpgAV83kaAd6Blae+x
AyKoZ/SE/4ka9/4o3ThjAUA5iYPobWMOQwXFakC8UAwx+Ndbo0it1w1SxcwH3f4E
fLgub3qPc4cmpjui9CPLfsLEi0W8SqHdCPqvjZ438TyfxE5qEpTlKhTN17oBji9c
RlLl2dh39P7Jj7zJ2QHLciPKlVFiyQV1fvcD4/b7X1bJBa6iFHYEft9fwcLAB+ub
VB+0/drWGQg3lA7DSwf6H35J9ixnHgfpC65QqkfS+Dsxd30N88yhpz55ZXRfyeuW
c1cBoDQMvc1fk/lm44VXp4gc5RHdLriwbBttXhm56/sBZkU6X2uRJzBj8pmQ+tWQ
ho8ZFdSWT8xyXF10mHSHalxKW7N31sWVeZLYEuPDmEpn
-----END CERTIFICATE-----
