Certificate:
    Data:
        Version: 3 (0x2)
        Serial Number: 9574 (0x2566)
    Signature Algorithm: sha256WithRSAEncryption
        Issuer: C=US, ST=OH, L=Columbus, O=VikingVPN, OU=MyOrganizationalUnit, CN=VikingVPN CA/name=EasyRSA/emailAddress=me@myhost.mydomain
        Validity
            Not Before: Nov 28 05:11:35 2016 GMT
            Not After : Nov 26 05:11:35 2026 GMT
        Subject: CN=Client2142Certb1da65
        Subject Public Key Info:
            Public Key Algorithm: rsaEncryption
                Public-Key: (4096 bit)
                Modulus:
                    00:da:3e:0b:e4:cb:9e:e9:be:0a:4d:58:ce:73:c2:
                    14:4e:cb:27:3f:f1:3e:7e:3b:07:f6:94:51:72:8a:
                    07:b2:2f:76:54:f1:a6:60:d1:d0:a6:e2:7f:45:eb:
                    dc:bf:bf:03:75:6f:f7:2a:89:96:64:64:f4:09:68:
                    a1:54:78:37:20:97:7e:7f:24:a0:ed:7a:06:44:e0:
                    79:45:a9:ec:cf:2a:dc:f0:34:9c:06:97:2c:06:c2:
                    cc:46:10:18:13:72:85:a0:2a:f4:57:0c:dd:94:31:
                    c2:76:65:e2:4e:c2:76:04:b1:e8:5a:03:e4:d8:a7:
                    20:d9:24:74:f4:77:89:fc:36:0e:fb:c7:e0:63:47:
                    9d:6f:de:8b:e0:72:45:55:66:d1:00:9d:5c:5f:3c:
                    0a:b4:fc:e4:a2:3d:4b:8a:13:4f:44:7f:c7:ae:72:
                    ac:c5:bc:ba:d1:93:a0:b1:51:3d:19:8c:bf:eb:9b:
                    47:71:41:3c:20:58:e0:b5:05:97:d1:90:62:9d:a1:
                    1d:cb:77:f6:31:68:f0:3c:e0:d0:5f:fd:e2:e6:95:
                    2a:82:6e:54:36:21:3a:62:d7:81:01:a0:a5:58:22:
                    31:16:05:b5:7d:f2:f7:dd:b6:40:6d:f8:25:b2:25:
                    5d:f2:52:c6:0a:d4:b8:5e:84:6b:5f:ea:1b:78:5b:
                    2a:ee:90:44:90:a7:ab:30:4f:c7:a1:26:e1:94:77:
                    00:6e:5c:d8:52:ff:90:cd:61:28:d8:4b:07:f2:0e:
                    39:93:ff:26:01:6d:c3:40:de:cb:03:45:ee:66:85:
                    57:6f:8d:ca:22:5e:1f:98:be:67:aa:82:15:4a:b1:
                    96:0c:58:03:c1:8b:b2:66:6e:4e:97:28:63:88:e7:
                    38:61:3f:f3:5c:79:5b:7d:98:0e:3a:b2:32:ad:47:
                    fe:96:cf:7c:33:b6:df:db:76:d0:a1:cd:56:ca:08:
                    62:96:b6:46:b2:d5:fe:a8:eb:c9:6d:31:93:8f:21:
                    e7:35:e2:f5:2f:ca:72:0a:2f:72:d5:9c:f6:40:a6:
                    9b:49:9e:78:ea:47:27:e7:52:28:03:d9:92:0e:34:
                    88:4f:c8:cf:ef:bd:ad:b0:3a:32:fb:96:5d:6f:78:
                    f7:01:7c:58:a9:2c:ef:bb:f0:8a:f1:dd:82:93:4b:
                    5c:a0:18:17:e2:05:65:e3:49:77:a1:ec:a8:cd:f7:
                    ff:65:90:4e:81:10:07:28:59:0c:d6:58:43:52:e8:
                    28:ca:6a:92:12:a7:aa:67:a1:8d:ab:85:c4:66:b4:
                    bd:ca:52:1f:80:06:9c:35:c6:35:a6:1b:7d:0c:b5:
                    e9:c5:b5:b7:1c:e7:e6:1c:fc:45:ab:39:1b:25:cc:
                    b3:5c:a7
                Exponent: 65537 (0x10001)
        X509v3 extensions:
            X509v3 Basic Constraints: 
                CA:FALSE
            Netscape Comment: 
                Easy-RSA Generated Certificate
            X509v3 Subject Key Identifier: 
                30:A2:C6:07:F1:83:14:68:2C:BE:0C:4E:F7:18:7E:82:38:15:B3:54
            X509v3 Authority Key Identifier: 
                keyid:12:CD:60:04:D2:A0:80:9E:70:ED:C6:99:B8:7B:2C:C6:52:FD:19:A1
                DirName:/C=US/ST=OH/L=Columbus/O=VikingVPN/OU=MyOrganizationalUnit/CN=VikingVPN CA/name=EasyRSA/emailAddress=me@myhost.mydomain
                serial:CF:35:85:EE:80:BF:2A:3E

            X509v3 Extended Key Usage: 
                TLS Web Client Authentication
            X509v3 Key Usage: 
                Digital Signature
    Signature Algorithm: sha256WithRSAEncryption
         91:cf:60:d9:ef:c0:36:76:10:77:6d:9f:7e:07:1f:46:e6:1d:
         6b:69:1e:a4:b1:d2:5e:41:28:18:88:3c:68:89:8a:5a:51:4c:
         ca:cb:44:3c:81:4d:00:d9:09:e0:cb:ae:23:9f:c1:ee:55:3b:
         7f:0b:2d:82:02:0b:0a:a5:2d:fb:af:ac:6b:74:31:d7:25:9c:
         a7:b2:fa:18:9c:3a:cc:b3:8f:30:bf:22:41:16:4c:44:08:86:
         8e:57:67:9d:7a:39:0d:38:24:7c:20:52:88:ce:f5:a5:0b:c4:
         d5:24:92:ed:a5:dd:fa:91:61:e4:d8:80:bf:5d:f8:79:fc:ea:
         a6:84:e6:a8:c7:6c:c0:b8:4b:1a:e8:61:f1:72:49:af:d0:49:
         5d:1f:f6:53:4a:92:87:64:a4:86:27:1e:59:bc:2e:86:ad:1b:
         1a:48:17:9b:e7:cd:83:50:01:e4:06:41:75:fe:3b:d2:87:0d:
         42:d5:6f:87:df:b8:b5:a3:79:65:02:aa:40:2a:1e:8e:ba:1e:
         a6:f2:0c:c2:25:b2:08:ed:99:2a:bd:86:41:52:18:28:c9:28:
         94:1a:56:79:69:f2:7c:bf:9e:59:04:6c:c2:be:ec:be:fb:be:
         4a:e9:8d:36:01:5e:11:11:96:05:6a:b2:c2:55:c9:d6:a1:90:
         09:07:b0:8e:79:55:18:73:1e:ff:da:7f:fe:aa:ae:f7:00:b0:
         d7:a8:4d:33:bc:64:91:ae:8d:1e:31:fc:df:98:b3:e7:6b:28:
         26:1c:52:5f:fe:b5:a3:44:ad:81:b5:a1:05:2e:ae:be:c3:a1:
         20:23:d0:ed:96:36:12:dd:e3:5d:ca:fa:ed:53:50:22:52:33:
         23:25:f0:fb:6d:99:3e:30:9e:b4:c1:3c:f0:e9:45:67:4b:da:
         5e:93:23:bd:a2:2f:d3:f3:48:d2:a6:6c:90:f7:6e:e8:cf:a3:
         96:c1:08:7b:2c:64:d5:b8:7d:e1:9a:98:14:e8:64:35:a2:13:
         4a:c6:ff:af:77:4b:d9:82:d7:5a:22:c4:46:01:4c:f8:12:bf:
         bf:53:85:75:4b:cd:77:4b:21:27:52:b8:d6:c1:32:2b:51:fb:
         6a:21:30:7f:be:26:67:0a:71:b4:99:52:30:fd:39:1a:2e:ea:
         8a:1a:df:8b:79:ce:d9:ab:0d:e2:31:2a:f1:3a:01:41:1a:7e:
         a6:ac:07:f6:e2:8c:98:a3:4c:b1:8f:42:d1:8a:c9:15:f0:0b:
         dc:d9:16:b5:cc:50:25:fc:4c:92:cb:27:b3:23:8d:e7:4c:6b:
         74:b3:a7:b2:a2:ae:ac:2e:4e:d9:99:7e:bb:16:53:c2:30:28:
         c6:63:0b:de:46:54:1f:fc
-----BEGIN CERTIFICATE-----
MIIGrTCCBJWgAwIBAgICJWYwDQYJKoZIhvcNAQELBQAwgawxCzAJBgNVBAYTAlVT
MQswCQYDVQQIEwJPSDERMA8GA1UEBxMIQ29sdW1idXMxEjAQBgNVBAoTCVZpa2lu
Z1ZQTjEdMBsGA1UECxMUTXlPcmdhbml6YXRpb25hbFVuaXQxFTATBgNVBAMTDFZp
a2luZ1ZQTiBDQTEQMA4GA1UEKRMHRWFzeVJTQTEhMB8GCSqGSIb3DQEJARYSbWVA
bXlob3N0Lm15ZG9tYWluMB4XDTE2MTEyODA1MTEzNVoXDTI2MTEyNjA1MTEzNVow
HzEdMBsGA1UEAxMUQ2xpZW50MjE0MkNlcnRiMWRhNjUwggIiMA0GCSqGSIb3DQEB
AQUAA4ICDwAwggIKAoICAQDaPgvky57pvgpNWM5zwhROyyc/8T5+Owf2lFFyigey
L3ZU8aZg0dCm4n9F69y/vwN1b/cqiZZkZPQJaKFUeDcgl35/JKDtegZE4HlFqezP
KtzwNJwGlywGwsxGEBgTcoWgKvRXDN2UMcJ2ZeJOwnYEsehaA+TYpyDZJHT0d4n8
Ng77x+BjR51v3ovgckVVZtEAnVxfPAq0/OSiPUuKE09Ef8eucqzFvLrRk6CxUT0Z
jL/rm0dxQTwgWOC1BZfRkGKdoR3Ld/YxaPA84NBf/eLmlSqCblQ2ITpi14EBoKVY
IjEWBbV98vfdtkBt+CWyJV3yUsYK1LhehGtf6ht4WyrukESQp6swT8ehJuGUdwBu
XNhS/5DNYSjYSwfyDjmT/yYBbcNA3ssDRe5mhVdvjcoiXh+YvmeqghVKsZYMWAPB
i7Jmbk6XKGOI5zhhP/NceVt9mA46sjKtR/6Wz3wztt/bdtChzVbKCGKWtkay1f6o
68ltMZOPIec14vUvynIKL3LVnPZApptJnnjqRyfnUigD2ZIONIhPyM/vva2wOjL7
ll1vePcBfFipLO+78Irx3YKTS1ygGBfiBWXjSXeh7KjN9/9lkE6BEAcoWQzWWENS
6CjKapISp6pnoY2rhcRmtL3KUh+ABpw1xjWmG30MtenFtbcc5+Yc/EWrORslzLNc
pwIDAQABo4IBYzCCAV8wCQYDVR0TBAIwADAtBglghkgBhvhCAQ0EIBYeRWFzeS1S
U0EgR2VuZXJhdGVkIENlcnRpZmljYXRlMB0GA1UdDgQWBBQwosYH8YMUaCy+DE73
GH6COBWzVDCB4QYDVR0jBIHZMIHWgBQSzWAE0qCAnnDtxpm4eyzGUv0ZoaGBsqSB
rzCBrDELMAkGA1UEBhMCVVMxCzAJBgNVBAgTAk9IMREwDwYDVQQHEwhDb2x1bWJ1
czESMBAGA1UEChMJVmlraW5nVlBOMR0wGwYDVQQLExRNeU9yZ2FuaXphdGlvbmFs
VW5pdDEVMBMGA1UEAxMMVmlraW5nVlBOIENBMRAwDgYDVQQpEwdFYXN5UlNBMSEw
HwYJKoZIhvcNAQkBFhJtZUBteWhvc3QubXlkb21haW6CCQDPNYXugL8qPjATBgNV
HSUEDDAKBggrBgEFBQcDAjALBgNVHQ8EBAMCB4AwDQYJKoZIhvcNAQELBQADggIB
AJHPYNnvwDZ2EHdtn34HH0bmHWtpHqSx0l5BKBiIPGiJilpRTMrLRDyBTQDZCeDL
riOfwe5VO38LLYICCwqlLfuvrGt0MdclnKey+hicOsyzjzC/IkEWTEQIho5XZ516
OQ04JHwgUojO9aULxNUkku2l3fqRYeTYgL9d+Hn86qaE5qjHbMC4SxroYfFySa/Q
SV0f9lNKkodkpIYnHlm8LoatGxpIF5vnzYNQAeQGQXX+O9KHDULVb4ffuLWjeWUC
qkAqHo66HqbyDMIlsgjtmSq9hkFSGCjJKJQaVnlp8ny/nlkEbMK+7L77vkrpjTYB
XhERlgVqssJVydahkAkHsI55VRhzHv/af/6qrvcAsNeoTTO8ZJGujR4x/N+Ys+dr
KCYcUl/+taNErYG1oQUurr7DoSAj0O2WNhLd413K+u1TUCJSMyMl8PttmT4wnrTB
PPDpRWdL2l6TI72iL9PzSNKmbJD3bujPo5bBCHssZNW4feGamBToZDWiE0rG/693
S9mC11oixEYBTPgSv79ThXVLzXdLISdSuNbBMitR+2ohMH++JmcKcbSZUjD9ORou
6ooa34t5ztmrDeIxKvE6AUEafqasB/bijJijTLGPQtGKyRXwC9zZFrXMUCX8TJLL
J7MjjedMa3Szp7KirqwuTtmZfrsWU8IwKMZjC95GVB/8
-----END CERTIFICATE-----
