Certificate:
    Data:
        Version: 3 (0x2)
        Serial Number: 9577 (0x2569)
    Signature Algorithm: sha256WithRSAEncryption
        Issuer: C=US, ST=OH, L=Columbus, O=VikingVPN, OU=MyOrganizationalUnit, CN=VikingVPN CA/name=EasyRSA/emailAddress=me@myhost.mydomain
        Validity
            Not Before: Nov 28 09:23:39 2016 GMT
            Not After : Nov 26 09:23:39 2026 GMT
        Subject: CN=Client2617Certb9da66
        Subject Public Key Info:
            Public Key Algorithm: rsaEncryption
                Public-Key: (4096 bit)
                Modulus:
                    00:91:2b:d8:b5:2d:f7:9f:b0:c9:39:68:e4:e6:3f:
                    c9:7c:60:ae:be:f7:e8:2f:ea:02:08:40:20:6d:cd:
                    7c:4a:c7:0e:56:0f:e0:60:a2:1c:ad:25:13:cb:87:
                    42:26:0f:ee:0a:51:87:d0:d3:62:3c:3b:f8:c3:42:
                    dc:6a:56:4f:6e:83:df:d9:d0:13:94:d0:fb:ea:21:
                    9a:24:3b:c0:17:7b:8b:02:e0:f0:c7:6b:46:cd:dd:
                    09:b5:a9:f6:2c:6e:15:dd:dd:9d:68:87:a2:f9:cc:
                    8e:29:a1:54:23:67:94:b1:12:2b:d5:a4:6c:02:2e:
                    8b:1e:02:85:ca:5d:0e:8d:cc:27:b8:cc:da:3f:b9:
                    7e:cb:1c:34:41:78:28:7c:51:eb:e5:71:eb:af:46:
                    bb:2f:58:c9:d3:57:99:24:37:b9:b2:c3:d8:32:ca:
                    44:77:65:c3:d4:18:43:87:af:7c:4c:af:31:9a:47:
                    9b:62:eb:73:06:4c:ab:b9:ea:9b:9c:fe:41:b1:fe:
                    ba:b5:f4:e6:9f:78:40:63:39:7b:60:53:af:20:81:
                    be:d1:1e:f0:ac:59:36:56:05:1d:b8:0c:4e:6b:16:
                    5d:a0:15:4c:01:f1:88:72:6d:53:af:33:2e:c6:dc:
                    c1:fc:97:b0:32:f8:ad:6f:d1:bb:f7:51:d3:a6:39:
                    ad:b8:ee:4c:3b:6b:41:a9:e9:49:8a:11:84:d0:ee:
                    b7:9d:61:1e:b0:53:73:4d:e3:86:fd:9a:4a:70:a0:
                    88:bc:61:58:d4:8d:16:a9:56:83:f8:d7:00:5a:46:
                    d4:8d:0e:23:78:4a:f7:63:28:72:1e:c3:ed:04:b7:
                    1c:27:84:f5:45:f0:95:bf:87:78:da:a8:1e:29:56:
                    50:90:36:41:d6:e5:89:76:e1:ce:8a:45:8b:85:b2:
                    71:d3:91:16:f2:2d:c3:dc:62:68:42:5b:c2:60:1e:
                    ef:ce:4e:4c:5b:2b:e8:64:6d:60:5e:dc:cc:b3:d2:
                    e0:a0:8b:3d:14:17:ba:71:53:0e:c5:63:be:7e:dc:
                    9d:b9:eb:53:8f:b4:81:55:e6:3b:89:55:36:0a:9e:
                    99:18:d6:8a:48:8a:a9:f0:b5:3e:f9:e1:37:9c:c1:
                    90:5d:2b:f3:b1:9f:2b:72:65:a0:14:35:7e:de:ae:
                    ef:7a:16:d0:0b:8e:86:9a:74:1b:66:de:41:15:3b:
                    69:c6:62:c5:38:86:1b:e8:9a:8c:6a:4c:dc:11:89:
                    8a:18:8c:01:67:8f:1f:63:c9:87:60:c8:52:fa:a7:
                    32:84:3d:51:78:b1:71:f5:fb:01:df:37:90:d4:ba:
                    18:25:8a:68:07:68:cb:4d:82:92:6c:de:ef:7c:c6:
                    a3:83:9f
                Exponent: 65537 (0x10001)
        X509v3 extensions:
            X509v3 Basic Constraints: 
                CA:FALSE
            Netscape Comment: 
                Easy-RSA Generated Certificate
            X509v3 Subject Key Identifier: 
                50:73:EF:EA:AC:A4:0A:9A:C3:03:54:53:F4:0C:36:75:2A:2D:88:BB
            X509v3 Authority Key Identifier: 
                keyid:12:CD:60:04:D2:A0:80:9E:70:ED:C6:99:B8:7B:2C:C6:52:FD:19:A1
                DirName:/C=US/ST=OH/L=Columbus/O=VikingVPN/OU=MyOrganizationalUnit/CN=VikingVPN CA/name=EasyRSA/emailAddress=me@myhost.mydomain
                serial:CF:35:85:EE:80:BF:2A:3E

            X509v3 Extended Key Usage: 
                TLS Web Client Authentication
            X509v3 Key Usage: 
                Digital Signature
    Signature Algorithm: sha256WithRSAEncryption
         67:8f:b4:a7:19:aa:ba:12:25:fd:07:51:2d:47:7c:9a:ff:ac:
         db:12:34:8e:36:79:90:0d:0d:95:e3:c3:53:ab:53:91:c3:67:
         75:08:0f:21:ee:46:a5:1b:1f:b6:46:70:9e:2e:2d:09:4f:1d:
         18:23:22:b2:49:f6:f9:1a:a5:15:a6:4f:bd:48:fe:3a:08:ac:
         20:8a:51:6a:ad:9d:28:be:55:04:ca:26:02:8b:3b:24:62:52:
         4f:8a:08:0e:02:97:46:de:3e:4a:8b:df:13:27:37:b5:76:ac:
         0f:c7:a4:f4:53:90:7b:0f:d5:7d:d1:1a:6f:f2:8e:d9:ea:ee:
         ac:b0:cf:94:65:7a:c2:16:e5:80:a3:28:e0:8e:c4:79:45:b4:
         84:7d:4e:20:b0:9a:f6:70:9f:68:18:9b:8a:fd:b4:86:6a:c3:
         54:26:3d:7f:fb:5b:5a:45:aa:fa:ff:89:c0:8b:57:34:f8:e8:
         f1:10:4c:e8:28:46:83:a5:2d:e0:b3:55:2e:60:fa:59:fd:95:
         6f:a4:b8:fe:6b:ce:9b:3b:3e:f2:43:c0:4a:e4:77:cc:e6:49:
         21:c2:86:c5:4c:24:24:af:1a:19:72:da:22:b9:8a:e3:37:e6:
         c3:9a:3a:70:a6:f9:9c:dc:a0:d6:69:74:07:64:9d:ec:b6:ed:
         29:0d:0d:4e:ac:0f:e4:1a:17:b6:03:ba:99:1e:82:59:d9:ac:
         cb:34:1c:12:22:a8:a1:14:2f:a2:15:e7:b5:23:aa:f1:75:34:
         31:ab:b2:15:38:6d:f1:86:e1:7a:16:cc:7f:69:86:2c:f3:f9:
         a0:a1:b2:bd:78:f9:b6:1b:44:86:f7:87:a1:73:e2:e1:ff:b8:
         67:47:72:07:4e:53:20:f0:eb:27:77:b8:42:57:7d:5a:c2:a9:
         e3:3e:7a:b1:3a:96:86:d4:5a:de:23:70:10:34:32:18:e6:e4:
         a0:c1:44:44:e2:64:42:1a:61:5b:93:96:0e:1d:cc:62:84:35:
         f9:94:aa:40:42:ee:1f:6d:49:cc:f7:cd:f6:43:97:ba:df:1e:
         e0:34:cd:a8:2d:fa:ac:23:8c:48:df:a1:f5:80:a5:24:54:d2:
         f9:05:09:18:d1:df:6c:69:9e:b5:bd:70:0f:b4:b6:80:0c:e3:
         75:f9:a5:2c:e1:37:11:b9:19:ff:54:38:7c:94:fa:e2:5d:e9:
         4f:67:f5:ab:4d:df:85:99:f5:6b:8f:4b:80:48:bc:c2:da:7e:
         92:f4:af:09:8a:a2:81:c7:76:df:60:a6:68:81:94:92:2c:7c:
         35:f8:c1:29:79:dc:4d:c5:42:ea:43:91:57:b2:aa:1f:8e:bd:
         2b:83:9b:59:32:1e:8b:e8
-----BEGIN CERTIFICATE-----
MIIGrTCCBJWgAwIBAgICJWkwDQYJKoZIhvcNAQELBQAwgawxCzAJBgNVBAYTAlVT
MQswCQYDVQQIEwJPSDERMA8GA1UEBxMIQ29sdW1idXMxEjAQBgNVBAoTCVZpa2lu
Z1ZQTjEdMBsGA1UECxMUTXlPcmdhbml6YXRpb25hbFVuaXQxFTATBgNVBAMTDFZp
a2luZ1ZQTiBDQTEQMA4GA1UEKRMHRWFzeVJTQTEhMB8GCSqGSIb3DQEJARYSbWVA
bXlob3N0Lm15ZG9tYWluMB4XDTE2MTEyODA5MjMzOVoXDTI2MTEyNjA5MjMzOVow
HzEdMBsGA1UEAxMUQ2xpZW50MjYxN0NlcnRiOWRhNjYwggIiMA0GCSqGSIb3DQEB
AQUAA4ICDwAwggIKAoICAQCRK9i1LfefsMk5aOTmP8l8YK6+9+gv6gIIQCBtzXxK
xw5WD+BgohytJRPLh0ImD+4KUYfQ02I8O/jDQtxqVk9ug9/Z0BOU0PvqIZokO8AX
e4sC4PDHa0bN3Qm1qfYsbhXd3Z1oh6L5zI4poVQjZ5SxEivVpGwCLoseAoXKXQ6N
zCe4zNo/uX7LHDRBeCh8UevlceuvRrsvWMnTV5kkN7myw9gyykR3ZcPUGEOHr3xM
rzGaR5ti63MGTKu56puc/kGx/rq19OafeEBjOXtgU68ggb7RHvCsWTZWBR24DE5r
Fl2gFUwB8YhybVOvMy7G3MH8l7Ay+K1v0bv3UdOmOa247kw7a0Gp6UmKEYTQ7red
YR6wU3NN44b9mkpwoIi8YVjUjRapVoP41wBaRtSNDiN4SvdjKHIew+0EtxwnhPVF
8JW/h3jaqB4pVlCQNkHW5Yl24c6KRYuFsnHTkRbyLcPcYmhCW8JgHu/OTkxbK+hk
bWBe3Myz0uCgiz0UF7pxUw7FY75+3J2561OPtIFV5juJVTYKnpkY1opIiqnwtT75
4TecwZBdK/OxnytyZaAUNX7eru96FtALjoaadBtm3kEVO2nGYsU4hhvomoxqTNwR
iYoYjAFnjx9jyYdgyFL6pzKEPVF4sXH1+wHfN5DUuhglimgHaMtNgpJs3u98xqOD
nwIDAQABo4IBYzCCAV8wCQYDVR0TBAIwADAtBglghkgBhvhCAQ0EIBYeRWFzeS1S
U0EgR2VuZXJhdGVkIENlcnRpZmljYXRlMB0GA1UdDgQWBBRQc+/qrKQKmsMDVFP0
DDZ1Ki2IuzCB4QYDVR0jBIHZMIHWgBQSzWAE0qCAnnDtxpm4eyzGUv0ZoaGBsqSB
rzCBrDELMAkGA1UEBhMCVVMxCzAJBgNVBAgTAk9IMREwDwYDVQQHEwhDb2x1bWJ1
czESMBAGA1UEChMJVmlraW5nVlBOMR0wGwYDVQQLExRNeU9yZ2FuaXphdGlvbmFs
VW5pdDEVMBMGA1UEAxMMVmlraW5nVlBOIENBMRAwDgYDVQQpEwdFYXN5UlNBMSEw
HwYJKoZIhvcNAQkBFhJtZUBteWhvc3QubXlkb21haW6CCQDPNYXugL8qPjATBgNV
HSUEDDAKBggrBgEFBQcDAjALBgNVHQ8EBAMCB4AwDQYJKoZIhvcNAQELBQADggIB
AGePtKcZqroSJf0HUS1HfJr/rNsSNI42eZANDZXjw1OrU5HDZ3UIDyHuRqUbH7ZG
cJ4uLQlPHRgjIrJJ9vkapRWmT71I/joIrCCKUWqtnSi+VQTKJgKLOyRiUk+KCA4C
l0bePkqL3xMnN7V2rA/HpPRTkHsP1X3RGm/yjtnq7qywz5RlesIW5YCjKOCOxHlF
tIR9TiCwmvZwn2gYm4r9tIZqw1QmPX/7W1pFqvr/icCLVzT46PEQTOgoRoOlLeCz
VS5g+ln9lW+kuP5rzps7PvJDwErkd8zmSSHChsVMJCSvGhly2iK5iuM35sOaOnCm
+ZzcoNZpdAdkney27SkNDU6sD+QaF7YDupkeglnZrMs0HBIiqKEUL6IV57UjqvF1
NDGrshU4bfGG4XoWzH9phizz+aChsr14+bYbRIb3h6Fz4uH/uGdHcgdOUyDw6yd3
uEJXfVrCqeM+erE6lobUWt4jcBA0Mhjm5KDBRETiZEIaYVuTlg4dzGKENfmUqkBC
7h9tScz3zfZDl7rfHuA0zagt+qwjjEjfofWApSRU0vkFCRjR32xpnrW9cA+0toAM
43X5pSzhNxG5Gf9UOHyU+uJd6U9n9atN34WZ9WuPS4BIvMLafpL0rwmKooHHdt9g
pmiBlJIsfDX4wSl53E3FQupDkVeyqh+OvSuDm1kyHovo
-----END CERTIFICATE-----
