Certificate:
    Data:
        Version: 3 (0x2)
        Serial Number: 9586 (0x2572)
    Signature Algorithm: sha256WithRSAEncryption
        Issuer: C=US, ST=OH, L=Columbus, O=VikingVPN, OU=MyOrganizationalUnit, CN=VikingVPN CA/name=EasyRSA/emailAddress=me@myhost.mydomain
        Validity
            Not Before: Nov 28 23:28:49 2016 GMT
            Not After : Nov 26 23:28:49 2026 GMT
        Subject: CN=Client1147Certd7ecef
        Subject Public Key Info:
            Public Key Algorithm: rsaEncryption
                Public-Key: (4096 bit)
                Modulus:
                    00:ce:26:07:a5:08:6f:2f:71:c5:78:b5:6f:25:2e:
                    37:79:4e:48:e4:47:e8:c0:ab:36:53:c6:25:ed:79:
                    ee:2d:9e:4b:d4:f6:d3:04:3a:0c:d2:81:8b:e3:26:
                    c9:9c:1e:04:be:62:d5:7d:0d:20:7d:31:6c:e4:5f:
                    48:3b:82:34:c3:c3:eb:8a:23:0b:40:86:c9:8f:b6:
                    3c:ea:26:f3:b5:b0:fe:be:17:a8:ea:45:9a:08:ea:
                    49:a0:c4:8e:d0:84:ae:90:26:5c:a3:33:91:cd:a0:
                    c4:bb:85:22:30:80:0d:ab:09:74:9d:83:38:60:f6:
                    5c:99:74:bb:00:b8:33:3b:bc:e5:30:fa:b0:43:3b:
                    ff:e4:d2:1c:f5:31:bf:92:48:76:de:88:dc:50:2c:
                    2a:6a:b7:c8:5d:03:f0:0b:70:f6:82:ba:06:23:22:
                    82:25:da:23:da:18:cc:b7:e1:5c:81:d7:d6:6d:81:
                    e6:aa:85:d7:11:da:58:34:29:2d:a3:0a:3d:7b:65:
                    2e:cc:d6:5e:59:9b:fb:40:79:2a:6e:46:58:2a:08:
                    4c:d3:ba:9c:c5:3c:76:d7:9e:d3:df:7d:a1:15:92:
                    40:16:1c:55:6e:60:9f:98:ee:ad:14:8a:57:fd:6f:
                    36:72:29:78:79:4e:63:6e:34:48:96:3b:f7:2c:32:
                    47:39:0d:69:4b:8b:1c:de:f7:c8:b9:0f:21:56:78:
                    7b:3d:7d:b2:35:c1:10:d6:f0:d7:c1:64:f0:ed:57:
                    38:fb:34:0f:d9:ff:1f:c0:68:0b:33:2e:6c:7c:35:
                    86:66:8e:96:1b:60:c4:0a:24:c9:3e:5d:0d:72:cb:
                    69:21:43:e3:40:89:3a:43:64:d9:e6:ab:7f:c8:56:
                    ad:da:73:a0:8d:d3:73:35:10:70:91:c1:be:9b:56:
                    07:fe:98:f1:7d:db:f5:1c:c1:73:da:1d:45:1b:75:
                    7d:b0:42:b8:0e:05:68:d4:ea:81:ad:64:a9:cf:0d:
                    e8:56:04:b7:1b:9f:c5:e6:77:2e:d4:04:be:3d:3f:
                    3c:d8:37:39:12:62:a2:f0:7a:4b:27:08:68:76:03:
                    9e:0c:2c:29:f6:14:e0:a0:bc:2e:9c:4c:dd:f8:9d:
                    4d:3f:9a:f7:fa:58:a2:1c:28:b9:02:41:0c:1c:ca:
                    4d:96:d0:34:4f:c4:a9:5f:4c:f7:b0:01:eb:93:6d:
                    21:5e:ff:01:94:d6:e9:07:db:25:18:c9:a8:f3:90:
                    57:6e:a9:67:3f:1e:b7:82:40:15:ee:ac:8f:b3:4b:
                    93:02:bb:da:a6:65:a5:7e:b6:e5:4b:c0:96:b1:c9:
                    6f:44:76:13:9f:3a:4c:73:15:6b:a2:c2:58:12:3b:
                    a1:0b:39
                Exponent: 65537 (0x10001)
        X509v3 extensions:
            X509v3 Basic Constraints: 
                CA:FALSE
            Netscape Comment: 
                Easy-RSA Generated Certificate
            X509v3 Subject Key Identifier: 
                F8:31:61:27:03:1B:51:C5:C7:87:FF:12:CA:BE:8E:D0:50:47:90:83
            X509v3 Authority Key Identifier: 
                keyid:12:CD:60:04:D2:A0:80:9E:70:ED:C6:99:B8:7B:2C:C6:52:FD:19:A1
                DirName:/C=US/ST=OH/L=Columbus/O=VikingVPN/OU=MyOrganizationalUnit/CN=VikingVPN CA/name=EasyRSA/emailAddress=me@myhost.mydomain
                serial:CF:35:85:EE:80:BF:2A:3E

            X509v3 Extended Key Usage: 
                TLS Web Client Authentication
            X509v3 Key Usage: 
                Digital Signature
    Signature Algorithm: sha256WithRSAEncryption
         6a:74:a1:5a:ec:34:85:dc:85:cb:1a:dd:fa:93:62:52:df:09:
         8f:c0:85:3f:68:d3:67:b7:6a:c6:5e:3d:74:95:82:44:2d:fe:
         59:14:7a:ed:49:e2:5a:d8:64:2a:c7:37:b2:44:3d:b0:3f:f6:
         25:a9:2f:91:0e:2b:f6:53:33:3a:e9:65:e5:a7:b7:18:ce:2b:
         1e:36:b0:3f:b8:b9:dd:a2:3b:00:c4:52:4a:00:9f:92:74:ec:
         35:12:08:ce:b3:1c:58:e2:19:6f:77:6a:7f:e4:32:1c:a0:d7:
         26:c8:ce:8e:87:e7:14:bc:6a:c4:af:4a:91:11:7f:9e:74:be:
         db:d9:70:7b:2c:0f:e1:2c:4a:44:05:92:a1:bc:f8:a2:bc:fd:
         52:e8:7c:c7:cc:37:f0:1d:ed:6b:3f:06:a5:f8:ea:e3:d7:33:
         2c:7b:ce:b5:4b:48:02:ee:8d:24:5a:31:90:3c:5e:18:8f:c5:
         1a:38:91:34:db:f1:b3:fb:b6:ff:a7:1a:89:63:95:5b:ad:51:
         7c:1f:e0:9b:41:4e:38:50:4e:62:f2:c7:19:38:65:4a:44:48:
         b6:b5:d3:60:c3:0a:02:dc:81:54:76:07:3e:e5:a2:5d:81:9b:
         89:cb:d1:8b:ae:99:cd:5d:ef:19:c8:d5:68:9f:99:61:3b:f0:
         95:3d:db:03:c8:97:91:2a:e6:17:2f:f8:d0:5c:de:40:93:1e:
         8b:32:cb:c8:aa:93:24:5b:88:81:0d:d3:09:43:e1:95:d4:d8:
         7a:f7:8e:2b:1f:fe:57:54:0a:c1:5f:9c:44:8b:51:8b:ad:6c:
         6a:66:3b:89:4d:46:57:29:a7:1e:39:19:fa:0d:45:6d:f3:98:
         92:ad:7d:fb:4c:44:85:f1:65:9d:ac:87:8d:f2:de:26:61:92:
         e4:5e:75:b1:75:3e:0e:6b:f4:75:10:ac:fa:b8:51:ec:64:14:
         95:3b:d6:a9:9c:a5:3d:5d:ca:ef:60:c8:85:75:3b:a2:8e:5d:
         fb:6b:e7:59:5d:26:60:1d:57:86:9b:cf:c0:50:d8:c5:e5:61:
         2f:67:42:39:42:6a:41:6d:ff:f0:a0:23:5e:57:07:17:f2:f2:
         cf:5d:c4:77:23:4b:e8:e6:ec:3c:13:46:05:74:27:5e:f2:1d:
         9c:2f:95:66:57:dc:7a:15:78:ae:97:36:00:6c:98:20:a0:5a:
         47:07:ee:c3:6b:ac:b7:89:db:a6:cf:93:3e:ec:4a:ee:85:94:
         f0:c1:97:0d:f3:e9:ea:76:ab:af:f7:9f:e4:ea:d9:8e:14:c9:
         57:78:6e:85:f9:99:c4:04:87:72:6d:9d:39:33:88:5d:82:54:
         2a:de:db:d3:ce:4c:66:07
-----BEGIN CERTIFICATE-----
MIIGrTCCBJWgAwIBAgICJXIwDQYJKoZIhvcNAQELBQAwgawxCzAJBgNVBAYTAlVT
MQswCQYDVQQIEwJPSDERMA8GA1UEBxMIQ29sdW1idXMxEjAQBgNVBAoTCVZpa2lu
Z1ZQTjEdMBsGA1UECxMUTXlPcmdhbml6YXRpb25hbFVuaXQxFTATBgNVBAMTDFZp
a2luZ1ZQTiBDQTEQMA4GA1UEKRMHRWFzeVJTQTEhMB8GCSqGSIb3DQEJARYSbWVA
bXlob3N0Lm15ZG9tYWluMB4XDTE2MTEyODIzMjg0OVoXDTI2MTEyNjIzMjg0OVow
HzEdMBsGA1UEAxMUQ2xpZW50MTE0N0NlcnRkN2VjZWYwggIiMA0GCSqGSIb3DQEB
AQUAA4ICDwAwggIKAoICAQDOJgelCG8vccV4tW8lLjd5TkjkR+jAqzZTxiXtee4t
nkvU9tMEOgzSgYvjJsmcHgS+YtV9DSB9MWzkX0g7gjTDw+uKIwtAhsmPtjzqJvO1
sP6+F6jqRZoI6kmgxI7QhK6QJlyjM5HNoMS7hSIwgA2rCXSdgzhg9lyZdLsAuDM7
vOUw+rBDO//k0hz1Mb+SSHbeiNxQLCpqt8hdA/ALcPaCugYjIoIl2iPaGMy34VyB
19ZtgeaqhdcR2lg0KS2jCj17ZS7M1l5Zm/tAeSpuRlgqCEzTupzFPHbXntPffaEV
kkAWHFVuYJ+Y7q0Uilf9bzZyKXh5TmNuNEiWO/csMkc5DWlLixze98i5DyFWeHs9
fbI1wRDW8NfBZPDtVzj7NA/Z/x/AaAszLmx8NYZmjpYbYMQKJMk+XQ1yy2khQ+NA
iTpDZNnmq3/IVq3ac6CN03M1EHCRwb6bVgf+mPF92/UcwXPaHUUbdX2wQrgOBWjU
6oGtZKnPDehWBLcbn8Xmdy7UBL49PzzYNzkSYqLweksnCGh2A54MLCn2FOCgvC6c
TN34nU0/mvf6WKIcKLkCQQwcyk2W0DRPxKlfTPewAeuTbSFe/wGU1ukH2yUYyajz
kFduqWc/HreCQBXurI+zS5MCu9qmZaV+tuVLwJaxyW9EdhOfOkxzFWuiwlgSO6EL
OQIDAQABo4IBYzCCAV8wCQYDVR0TBAIwADAtBglghkgBhvhCAQ0EIBYeRWFzeS1S
U0EgR2VuZXJhdGVkIENlcnRpZmljYXRlMB0GA1UdDgQWBBT4MWEnAxtRxceH/xLK
vo7QUEeQgzCB4QYDVR0jBIHZMIHWgBQSzWAE0qCAnnDtxpm4eyzGUv0ZoaGBsqSB
rzCBrDELMAkGA1UEBhMCVVMxCzAJBgNVBAgTAk9IMREwDwYDVQQHEwhDb2x1bWJ1
czESMBAGA1UEChMJVmlraW5nVlBOMR0wGwYDVQQLExRNeU9yZ2FuaXphdGlvbmFs
VW5pdDEVMBMGA1UEAxMMVmlraW5nVlBOIENBMRAwDgYDVQQpEwdFYXN5UlNBMSEw
HwYJKoZIhvcNAQkBFhJtZUBteWhvc3QubXlkb21haW6CCQDPNYXugL8qPjATBgNV
HSUEDDAKBggrBgEFBQcDAjALBgNVHQ8EBAMCB4AwDQYJKoZIhvcNAQELBQADggIB
AGp0oVrsNIXchcsa3fqTYlLfCY/AhT9o02e3asZePXSVgkQt/lkUeu1J4lrYZCrH
N7JEPbA/9iWpL5EOK/ZTMzrpZeWntxjOKx42sD+4ud2iOwDEUkoAn5J07DUSCM6z
HFjiGW93an/kMhyg1ybIzo6H5xS8asSvSpERf550vtvZcHssD+EsSkQFkqG8+KK8
/VLofMfMN/Ad7Ws/BqX46uPXMyx7zrVLSALujSRaMZA8XhiPxRo4kTTb8bP7tv+n
GoljlVutUXwf4JtBTjhQTmLyxxk4ZUpESLa102DDCgLcgVR2Bz7lol2Bm4nL0Yuu
mc1d7xnI1WifmWE78JU92wPIl5Eq5hcv+NBc3kCTHosyy8iqkyRbiIEN0wlD4ZXU
2Hr3jisf/ldUCsFfnESLUYutbGpmO4lNRlcppx45GfoNRW3zmJKtfftMRIXxZZ2s
h43y3iZhkuRedbF1Pg5r9HUQrPq4UexkFJU71qmcpT1dyu9gyIV1O6KOXftr51ld
JmAdV4abz8BQ2MXlYS9nQjlCakFt//CgI15XBxfy8s9dxHcjS+jm7DwTRgV0J17y
HZwvlWZX3HoVeK6XNgBsmCCgWkcH7sNrrLeJ26bPkz7sSu6FlPDBlw3z6ep2q6/3
n+Tq2Y4UyVd4boX5mcQEh3JtnTkziF2CVCre29POTGYH
-----END CERTIFICATE-----
