Certificate:
    Data:
        Version: 3 (0x2)
        Serial Number: 9682 (0x25d2)
    Signature Algorithm: sha256WithRSAEncryption
        Issuer: C=US, ST=OH, L=Columbus, O=VikingVPN, OU=MyOrganizationalUnit, CN=VikingVPN CA/name=EasyRSA/emailAddress=me@myhost.mydomain
        Validity
            Not Before: Dec  8 18:09:07 2016 GMT
            Not After : Dec  6 18:09:07 2026 GMT
        Subject: CN=Client2639Certb5d180
        Subject Public Key Info:
            Public Key Algorithm: rsaEncryption
                Public-Key: (4096 bit)
                Modulus:
                    00:c8:d8:68:49:c2:28:bd:62:07:93:2e:63:f4:cd:
                    54:54:5c:dc:ee:15:fd:49:b5:fe:d4:4e:d4:78:34:
                    ba:4c:96:f0:cd:85:f1:09:c8:65:e6:69:bb:69:03:
                    99:96:11:ff:cf:1d:19:df:ab:49:90:1f:bc:5a:c6:
                    d6:5c:43:ba:84:be:6c:70:01:4d:51:ef:72:09:37:
                    eb:34:af:7c:f6:b7:34:6a:cf:bd:6c:f5:32:90:d5:
                    2d:7f:92:9b:22:3d:e6:af:35:7c:1b:7b:3d:b2:c5:
                    59:63:9d:27:cc:cd:f7:d1:74:65:fe:aa:1e:70:0e:
                    6b:1f:9c:7c:11:83:2c:aa:e8:02:dc:80:e0:6f:85:
                    03:0b:01:98:2e:40:fe:70:b1:7b:c8:60:ae:18:e9:
                    22:31:2e:58:1a:8c:a7:89:d0:c4:41:ee:2a:3a:80:
                    b4:1a:6d:91:63:0c:65:b6:d7:9c:bc:d2:cc:e5:dd:
                    ef:af:12:b4:77:dd:3f:49:09:d1:d3:14:41:84:d8:
                    b6:c8:d9:10:ba:18:d7:72:7c:f8:da:41:d5:a4:25:
                    29:bf:5c:0e:52:58:89:29:d5:f1:10:5b:36:59:d8:
                    1b:40:4a:2e:a7:60:b6:8e:17:24:74:21:f9:51:c6:
                    df:fd:34:9b:ae:78:45:e9:ba:e6:60:cd:6a:1b:2c:
                    ee:75:62:f4:8a:ac:40:36:09:b9:dc:bf:a0:80:80:
                    6b:0c:c2:a0:4f:31:88:93:d0:52:46:ae:3e:a0:74:
                    30:ea:c8:bd:ad:88:97:fb:bc:32:fc:a2:ae:87:ae:
                    aa:33:6e:97:a4:d6:df:49:82:46:30:d4:32:a3:e4:
                    15:04:56:9d:ae:23:1f:72:e0:da:78:d7:e8:c1:61:
                    d6:59:80:fa:bd:52:2c:db:26:7a:74:72:df:08:8b:
                    bb:07:7f:84:38:68:9b:34:3e:dc:56:e0:43:a8:e1:
                    d0:1c:00:aa:93:95:03:57:0b:a0:b1:f5:27:11:78:
                    40:0e:7f:67:b9:b1:e8:06:ae:87:0d:e0:b3:19:f0:
                    00:29:3d:89:14:30:e5:16:46:78:2f:a6:97:a6:36:
                    47:ef:d8:61:2c:68:80:d2:8c:00:9b:30:34:1c:7e:
                    2d:3f:93:a4:61:11:ca:50:30:6b:4b:60:5a:bb:66:
                    f5:40:34:c3:2d:99:1d:6a:bd:6a:60:b7:ed:77:26:
                    86:2e:c6:c2:0a:10:9e:9f:36:e9:b3:21:13:93:35:
                    42:a8:b6:83:a5:6f:7a:71:13:f7:87:f2:a9:5e:86:
                    14:9f:2a:54:63:4d:20:ad:bd:7c:bf:4d:86:36:53:
                    9e:fe:fc:dc:4b:cf:4b:81:22:0b:1f:80:dc:76:a8:
                    f7:39:3d
                Exponent: 65537 (0x10001)
        X509v3 extensions:
            X509v3 Basic Constraints: 
                CA:FALSE
            Netscape Comment: 
                Easy-RSA Generated Certificate
            X509v3 Subject Key Identifier: 
                AF:48:9A:7E:59:C1:83:07:96:53:AA:2D:78:27:C3:13:B2:EB:C6:74
            X509v3 Authority Key Identifier: 
                keyid:12:CD:60:04:D2:A0:80:9E:70:ED:C6:99:B8:7B:2C:C6:52:FD:19:A1
                DirName:/C=US/ST=OH/L=Columbus/O=VikingVPN/OU=MyOrganizationalUnit/CN=VikingVPN CA/name=EasyRSA/emailAddress=me@myhost.mydomain
                serial:CF:35:85:EE:80:BF:2A:3E

            X509v3 Extended Key Usage: 
                TLS Web Client Authentication
            X509v3 Key Usage: 
                Digital Signature
    Signature Algorithm: sha256WithRSAEncryption
         26:c6:1f:c5:14:1d:1f:74:4f:bb:0a:2a:b2:42:f9:fe:16:0f:
         fe:d4:24:a1:69:2b:de:e0:cb:a7:be:7e:c0:56:4f:d9:8c:2f:
         a8:cb:ac:5a:b3:a0:38:0b:a9:14:23:aa:82:fd:73:e4:3a:b7:
         63:5b:f3:23:81:a1:cf:14:0b:88:f7:d3:b7:cf:5a:93:b9:cc:
         51:1e:20:a8:15:87:8b:2f:5f:22:17:bb:22:44:4d:45:d1:e8:
         25:01:47:3d:23:ee:62:73:b8:b6:02:9c:eb:01:dd:ae:de:46:
         a7:5b:18:74:b6:74:79:79:4f:5a:56:3d:fc:f0:0c:ad:78:22:
         1f:46:98:da:a7:1a:d7:fc:90:b6:f3:55:08:a7:ab:81:da:24:
         2d:f2:e9:36:74:1e:ae:1a:c8:e4:f1:69:53:56:0a:34:7b:41:
         01:76:e1:3e:27:c4:e1:7f:66:c4:23:cf:e3:d8:a7:ee:14:cd:
         74:c2:83:5e:64:49:20:72:05:b7:82:a4:ec:bf:4a:07:52:f2:
         64:03:65:00:ac:d9:9a:50:30:81:4f:b0:60:65:c5:ab:38:17:
         a3:90:92:ad:40:55:e7:88:0d:43:b7:73:0e:d1:3d:be:68:32:
         02:37:72:bb:97:a1:3a:13:af:9b:83:13:e6:39:f2:3b:4f:0b:
         97:95:d7:86:d4:a6:2e:d0:ad:bf:f7:ae:f8:a9:26:b9:72:4a:
         db:94:a5:fb:e6:9f:4f:4b:c4:a5:e8:9a:08:66:84:7b:9e:ad:
         1e:c2:60:7a:1f:36:a8:9b:41:23:4c:80:34:74:db:73:97:77:
         db:f5:67:f4:0e:4b:c2:3c:6a:9c:88:30:f1:55:86:33:59:cf:
         4f:c7:a3:66:b1:b2:f4:96:4a:82:39:ca:cf:a3:8e:87:4c:8f:
         e1:ac:d6:60:e9:e8:c6:9b:7d:29:4d:82:40:b7:f8:cf:47:96:
         e9:7f:a7:03:22:66:8f:fd:52:43:64:1f:cf:a4:bb:15:96:ee:
         88:ce:14:02:65:9d:a7:b4:e8:67:70:c3:7e:5d:f7:03:ac:fa:
         87:1a:b2:ee:e5:ca:a1:5f:1b:02:35:5e:92:f8:6a:53:7c:1a:
         6a:f0:db:a1:9b:ae:8e:35:d6:c7:d4:7c:68:42:c3:56:a0:1c:
         e4:21:ac:c6:5b:2b:02:a5:b4:9a:85:0e:98:70:80:7e:45:b3:
         f4:50:78:4e:a5:a1:7f:6e:dd:8a:da:56:84:3d:d9:a9:53:2f:
         d8:6c:32:70:19:3f:8a:9d:aa:97:7b:fa:b2:75:74:23:04:40:
         c7:16:de:78:ed:f1:83:03:9a:bd:93:c3:5f:2c:1d:84:53:d6:
         89:8e:8e:05:04:f4:ec:4a
-----BEGIN CERTIFICATE-----
MIIGrTCCBJWgAwIBAgICJdIwDQYJKoZIhvcNAQELBQAwgawxCzAJBgNVBAYTAlVT
MQswCQYDVQQIEwJPSDERMA8GA1UEBxMIQ29sdW1idXMxEjAQBgNVBAoTCVZpa2lu
Z1ZQTjEdMBsGA1UECxMUTXlPcmdhbml6YXRpb25hbFVuaXQxFTATBgNVBAMTDFZp
a2luZ1ZQTiBDQTEQMA4GA1UEKRMHRWFzeVJTQTEhMB8GCSqGSIb3DQEJARYSbWVA
bXlob3N0Lm15ZG9tYWluMB4XDTE2MTIwODE4MDkwN1oXDTI2MTIwNjE4MDkwN1ow
HzEdMBsGA1UEAxMUQ2xpZW50MjYzOUNlcnRiNWQxODAwggIiMA0GCSqGSIb3DQEB
AQUAA4ICDwAwggIKAoICAQDI2GhJwii9YgeTLmP0zVRUXNzuFf1Jtf7UTtR4NLpM
lvDNhfEJyGXmabtpA5mWEf/PHRnfq0mQH7xaxtZcQ7qEvmxwAU1R73IJN+s0r3z2
tzRqz71s9TKQ1S1/kpsiPeavNXwbez2yxVljnSfMzffRdGX+qh5wDmsfnHwRgyyq
6ALcgOBvhQMLAZguQP5wsXvIYK4Y6SIxLlgajKeJ0MRB7io6gLQabZFjDGW215y8
0szl3e+vErR33T9JCdHTFEGE2LbI2RC6GNdyfPjaQdWkJSm/XA5SWIkp1fEQWzZZ
2BtASi6nYLaOFyR0IflRxt/9NJuueEXpuuZgzWobLO51YvSKrEA2Cbncv6CAgGsM
wqBPMYiT0FJGrj6gdDDqyL2tiJf7vDL8oq6Hrqozbpek1t9JgkYw1DKj5BUEVp2u
Ix9y4Np41+jBYdZZgPq9UizbJnp0ct8Ii7sHf4Q4aJs0PtxW4EOo4dAcAKqTlQNX
C6Cx9ScReEAOf2e5segGrocN4LMZ8AApPYkUMOUWRngvppemNkfv2GEsaIDSjACb
MDQcfi0/k6RhEcpQMGtLYFq7ZvVANMMtmR1qvWpgt+13JoYuxsIKEJ6fNumzIROT
NUKotoOlb3pxE/eH8qlehhSfKlRjTSCtvXy/TYY2U57+/NxLz0uBIgsfgNx2qPc5
PQIDAQABo4IBYzCCAV8wCQYDVR0TBAIwADAtBglghkgBhvhCAQ0EIBYeRWFzeS1S
U0EgR2VuZXJhdGVkIENlcnRpZmljYXRlMB0GA1UdDgQWBBSvSJp+WcGDB5ZTqi14
J8MTsuvGdDCB4QYDVR0jBIHZMIHWgBQSzWAE0qCAnnDtxpm4eyzGUv0ZoaGBsqSB
rzCBrDELMAkGA1UEBhMCVVMxCzAJBgNVBAgTAk9IMREwDwYDVQQHEwhDb2x1bWJ1
czESMBAGA1UEChMJVmlraW5nVlBOMR0wGwYDVQQLExRNeU9yZ2FuaXphdGlvbmFs
VW5pdDEVMBMGA1UEAxMMVmlraW5nVlBOIENBMRAwDgYDVQQpEwdFYXN5UlNBMSEw
HwYJKoZIhvcNAQkBFhJtZUBteWhvc3QubXlkb21haW6CCQDPNYXugL8qPjATBgNV
HSUEDDAKBggrBgEFBQcDAjALBgNVHQ8EBAMCB4AwDQYJKoZIhvcNAQELBQADggIB
ACbGH8UUHR90T7sKKrJC+f4WD/7UJKFpK97gy6e+fsBWT9mML6jLrFqzoDgLqRQj
qoL9c+Q6t2Nb8yOBoc8UC4j307fPWpO5zFEeIKgVh4svXyIXuyJETUXR6CUBRz0j
7mJzuLYCnOsB3a7eRqdbGHS2dHl5T1pWPfzwDK14Ih9GmNqnGtf8kLbzVQinq4Ha
JC3y6TZ0Hq4ayOTxaVNWCjR7QQF24T4nxOF/ZsQjz+PYp+4UzXTCg15kSSByBbeC
pOy/SgdS8mQDZQCs2ZpQMIFPsGBlxas4F6OQkq1AVeeIDUO3cw7RPb5oMgI3cruX
oToTr5uDE+Y58jtPC5eV14bUpi7Qrb/3rvipJrlyStuUpfvmn09LxKXomghmhHue
rR7CYHofNqibQSNMgDR023OXd9v1Z/QOS8I8apyIMPFVhjNZz0/Ho2axsvSWSoI5
ys+jjodMj+Gs1mDp6MabfSlNgkC3+M9Hlul/pwMiZo/9UkNkH8+kuxWW7ojOFAJl
nae06Gdww35d9wOs+ocasu7lyqFfGwI1XpL4alN8Gmrw26Gbro411sfUfGhCw1ag
HOQhrMZbKwKltJqFDphwgH5Fs/RQeE6loX9u3YraVoQ92alTL9hsMnAZP4qdqpd7
+rJ1dCMEQMcW3njt8YMDmr2Tw18sHYRT1omOjgUE9OxK
-----END CERTIFICATE-----
