Certificate:
    Data:
        Version: 3 (0x2)
        Serial Number: 9683 (0x25d3)
    Signature Algorithm: sha256WithRSAEncryption
        Issuer: C=US, ST=OH, L=Columbus, O=VikingVPN, OU=MyOrganizationalUnit, CN=VikingVPN CA/name=EasyRSA/emailAddress=me@myhost.mydomain
        Validity
            Not Before: Dec  8 18:19:58 2016 GMT
            Not After : Dec  6 18:19:58 2026 GMT
        Subject: CN=Client2074Cert7993ac
        Subject Public Key Info:
            Public Key Algorithm: rsaEncryption
                Public-Key: (4096 bit)
                Modulus:
                    00:ad:a1:df:f0:02:96:c1:c1:43:cf:8d:af:e9:e1:
                    f0:18:c1:48:ee:0c:91:53:a6:11:c1:eb:94:16:e8:
                    10:aa:68:71:e5:81:23:2b:40:e9:ce:58:85:23:73:
                    a4:65:a6:e8:92:67:e7:80:ac:40:e2:ce:3d:fb:46:
                    aa:f9:b1:15:5d:d6:22:c5:92:fc:69:3c:59:e0:f4:
                    4e:41:8c:9b:b5:7a:55:b0:9b:46:f3:20:7a:16:c7:
                    2c:f1:a0:29:bb:61:d6:62:49:a2:14:ae:93:ac:c0:
                    1a:1f:22:da:9e:a4:61:9c:21:f3:ec:5b:52:4b:3e:
                    07:4c:0f:cf:1f:14:4b:af:2f:dc:b4:3b:17:af:9f:
                    a6:c5:4e:43:c9:e8:53:e5:a2:b0:d4:bd:51:b6:2a:
                    e8:4e:d5:82:bf:84:b7:08:be:ea:98:95:0c:84:a0:
                    99:69:7d:30:cd:0e:ff:f1:8f:ca:75:31:f7:81:18:
                    48:c6:a0:36:9c:b4:f7:e5:b5:d0:48:14:96:30:aa:
                    e3:dd:11:cb:df:02:61:a5:82:bf:d4:f2:96:92:53:
                    2a:3d:76:e0:67:72:a9:3d:ed:1f:06:72:fe:9d:7f:
                    35:39:84:b9:d1:a6:3b:11:83:d8:1b:11:17:59:23:
                    ad:86:df:d2:71:96:83:c2:72:57:a3:c6:57:8b:50:
                    e2:1a:c1:3c:47:00:2c:6d:63:35:17:3d:52:92:73:
                    ea:45:94:95:9f:bd:8e:c0:68:21:f7:24:28:85:d5:
                    5b:f0:79:4d:e9:22:f6:b6:4e:9c:4b:10:1d:f8:de:
                    ed:4d:01:93:a5:92:2c:d6:e4:de:a3:a5:ce:34:4a:
                    6c:90:f9:f5:a6:fd:03:43:7d:1b:81:b5:59:8a:e8:
                    04:29:32:23:ed:a1:5d:67:fe:34:39:70:60:1f:1c:
                    fa:c7:f0:c5:43:6a:46:bd:4f:fe:96:92:30:1c:d7:
                    30:63:08:47:37:21:21:9b:fc:71:f0:a1:8b:89:84:
                    98:b8:18:1d:34:6d:d9:97:54:0e:76:e1:ee:d5:5a:
                    22:f2:c5:cb:a1:87:b9:8c:d7:4c:f6:74:f0:a6:cb:
                    b0:6f:b1:cb:af:c8:e2:8a:f3:e4:25:79:ea:bd:4a:
                    20:dd:33:c4:0d:19:9c:c5:73:9a:2b:fc:cd:af:fb:
                    4e:a8:ba:03:43:bb:2b:7e:58:be:a8:dc:30:f1:a5:
                    12:19:fe:35:c2:79:9d:06:c0:86:c9:0e:da:86:80:
                    15:55:08:34:a5:a7:43:cc:db:1a:3d:3f:c8:87:1d:
                    c4:97:3c:16:dc:26:a3:33:19:12:2b:15:a2:b4:93:
                    a9:b2:d2:31:26:06:cf:3e:70:01:18:68:d2:c8:de:
                    3a:ec:c3
                Exponent: 65537 (0x10001)
        X509v3 extensions:
            X509v3 Basic Constraints: 
                CA:FALSE
            Netscape Comment: 
                Easy-RSA Generated Certificate
            X509v3 Subject Key Identifier: 
                18:76:85:EF:47:AA:3F:AC:28:74:6A:1B:0E:16:A9:65:DA:56:FD:56
            X509v3 Authority Key Identifier: 
                keyid:12:CD:60:04:D2:A0:80:9E:70:ED:C6:99:B8:7B:2C:C6:52:FD:19:A1
                DirName:/C=US/ST=OH/L=Columbus/O=VikingVPN/OU=MyOrganizationalUnit/CN=VikingVPN CA/name=EasyRSA/emailAddress=me@myhost.mydomain
                serial:CF:35:85:EE:80:BF:2A:3E

            X509v3 Extended Key Usage: 
                TLS Web Client Authentication
            X509v3 Key Usage: 
                Digital Signature
    Signature Algorithm: sha256WithRSAEncryption
         db:58:5a:63:72:c8:dd:9d:d8:e6:36:8a:c2:6e:ed:96:c9:2b:
         90:ce:b2:dc:f3:f4:3b:e3:1c:04:a6:ba:91:d8:4b:c6:da:08:
         9a:ae:a0:63:5c:9d:24:83:23:62:4d:31:ef:10:52:36:4a:0b:
         73:11:a3:44:8e:d3:95:11:68:55:b8:e9:b6:1e:d5:d6:8b:93:
         f3:8e:66:1e:6a:d7:e5:c9:ad:59:b5:fc:36:36:f7:de:e7:80:
         55:3a:5d:1e:0c:0c:69:73:ad:49:58:d7:e5:4b:3b:2b:eb:b4:
         f8:96:c7:e9:3e:1d:c3:b8:e8:3a:1a:78:8f:e3:9f:34:59:93:
         be:6f:cf:2a:7a:0b:fa:b3:87:c8:22:f3:fc:2a:54:5f:ec:eb:
         ad:a0:ab:dd:15:0c:a8:2a:e6:5a:aa:0c:65:89:03:4b:88:d4:
         9b:66:f6:bd:56:82:48:83:14:4a:f0:3e:c3:74:c0:5f:da:f3:
         33:34:67:1f:8b:23:af:ce:7a:6b:09:80:ac:82:f5:9d:9b:ea:
         01:3f:59:5d:b6:b4:42:3b:fc:9e:99:a0:77:db:f7:a9:97:b3:
         14:59:fb:95:4f:8e:7b:a0:46:99:60:11:3a:53:c2:53:59:05:
         61:c0:0b:68:9d:a6:b1:42:5f:ac:45:a0:2e:d7:a8:7f:82:6f:
         7f:32:30:fb:17:af:fd:4f:ad:a6:6b:33:d4:b4:66:39:20:d2:
         1e:57:ee:29:41:d9:cf:89:94:c5:44:6e:51:d9:9b:0a:14:8e:
         0f:a2:1d:57:48:9d:df:bf:69:89:6d:88:33:c6:72:a6:a7:77:
         75:7f:74:ed:af:4d:dc:43:93:e7:0c:b7:d7:fc:de:bb:3f:61:
         3e:1d:a6:75:2c:64:85:fb:19:10:0d:a2:31:69:7e:ea:e7:16:
         0c:cb:58:40:8f:59:70:33:8d:e3:47:de:2a:26:4a:87:dc:85:
         0a:d2:67:d8:f4:72:a4:3c:a5:56:53:59:9e:a2:06:2d:73:a7:
         4e:1c:ff:3d:ec:dc:a9:14:16:89:8c:e5:60:50:7d:85:c0:18:
         e3:c7:7a:e4:c3:32:f3:57:6e:ba:aa:b8:92:3d:c0:18:2a:ca:
         d2:72:5a:6c:34:e1:ca:b7:a3:8a:ba:ab:35:d9:27:e8:ba:a8:
         38:97:cb:f9:7d:41:ab:ad:b6:c3:6f:b1:55:f0:15:be:1b:8d:
         60:31:2e:8c:1a:a0:ae:f6:66:9b:5b:0b:04:17:34:cd:da:1c:
         14:62:c3:c8:59:57:4f:d8:74:aa:ec:fe:58:dc:4e:ae:c2:08:
         27:11:3e:a6:2a:16:ea:1c:80:24:53:87:4f:a1:dc:1f:f6:07:
         7b:d3:af:2a:31:21:34:a0
-----BEGIN CERTIFICATE-----
MIIGrTCCBJWgAwIBAgICJdMwDQYJKoZIhvcNAQELBQAwgawxCzAJBgNVBAYTAlVT
MQswCQYDVQQIEwJPSDERMA8GA1UEBxMIQ29sdW1idXMxEjAQBgNVBAoTCVZpa2lu
Z1ZQTjEdMBsGA1UECxMUTXlPcmdhbml6YXRpb25hbFVuaXQxFTATBgNVBAMTDFZp
a2luZ1ZQTiBDQTEQMA4GA1UEKRMHRWFzeVJTQTEhMB8GCSqGSIb3DQEJARYSbWVA
bXlob3N0Lm15ZG9tYWluMB4XDTE2MTIwODE4MTk1OFoXDTI2MTIwNjE4MTk1OFow
HzEdMBsGA1UEAxMUQ2xpZW50MjA3NENlcnQ3OTkzYWMwggIiMA0GCSqGSIb3DQEB
AQUAA4ICDwAwggIKAoICAQCtod/wApbBwUPPja/p4fAYwUjuDJFTphHB65QW6BCq
aHHlgSMrQOnOWIUjc6RlpuiSZ+eArEDizj37Rqr5sRVd1iLFkvxpPFng9E5BjJu1
elWwm0bzIHoWxyzxoCm7YdZiSaIUrpOswBofItqepGGcIfPsW1JLPgdMD88fFEuv
L9y0Oxevn6bFTkPJ6FPlorDUvVG2KuhO1YK/hLcIvuqYlQyEoJlpfTDNDv/xj8p1
MfeBGEjGoDactPfltdBIFJYwquPdEcvfAmGlgr/U8paSUyo9duBncqk97R8Gcv6d
fzU5hLnRpjsRg9gbERdZI62G39JxloPCclejxleLUOIawTxHACxtYzUXPVKSc+pF
lJWfvY7AaCH3JCiF1VvweU3pIva2TpxLEB343u1NAZOlkizW5N6jpc40SmyQ+fWm
/QNDfRuBtVmK6AQpMiPtoV1n/jQ5cGAfHPrH8MVDaka9T/6WkjAc1zBjCEc3ISGb
/HHwoYuJhJi4GB00bdmXVA524e7VWiLyxcuhh7mM10z2dPCmy7BvscuvyOKK8+Ql
eeq9SiDdM8QNGZzFc5or/M2v+06ougNDuyt+WL6o3DDxpRIZ/jXCeZ0GwIbJDtqG
gBVVCDSlp0PM2xo9P8iHHcSXPBbcJqMzGRIrFaK0k6my0jEmBs8+cAEYaNLI3jrs
wwIDAQABo4IBYzCCAV8wCQYDVR0TBAIwADAtBglghkgBhvhCAQ0EIBYeRWFzeS1S
U0EgR2VuZXJhdGVkIENlcnRpZmljYXRlMB0GA1UdDgQWBBQYdoXvR6o/rCh0ahsO
Fqll2lb9VjCB4QYDVR0jBIHZMIHWgBQSzWAE0qCAnnDtxpm4eyzGUv0ZoaGBsqSB
rzCBrDELMAkGA1UEBhMCVVMxCzAJBgNVBAgTAk9IMREwDwYDVQQHEwhDb2x1bWJ1
czESMBAGA1UEChMJVmlraW5nVlBOMR0wGwYDVQQLExRNeU9yZ2FuaXphdGlvbmFs
VW5pdDEVMBMGA1UEAxMMVmlraW5nVlBOIENBMRAwDgYDVQQpEwdFYXN5UlNBMSEw
HwYJKoZIhvcNAQkBFhJtZUBteWhvc3QubXlkb21haW6CCQDPNYXugL8qPjATBgNV
HSUEDDAKBggrBgEFBQcDAjALBgNVHQ8EBAMCB4AwDQYJKoZIhvcNAQELBQADggIB
ANtYWmNyyN2d2OY2isJu7ZbJK5DOstzz9DvjHASmupHYS8baCJquoGNcnSSDI2JN
Me8QUjZKC3MRo0SO05URaFW46bYe1daLk/OOZh5q1+XJrVm1/DY2997ngFU6XR4M
DGlzrUlY1+VLOyvrtPiWx+k+HcO46DoaeI/jnzRZk75vzyp6C/qzh8gi8/wqVF/s
662gq90VDKgq5lqqDGWJA0uI1Jtm9r1WgkiDFErwPsN0wF/a8zM0Zx+LI6/OemsJ
gKyC9Z2b6gE/WV22tEI7/J6ZoHfb96mXsxRZ+5VPjnugRplgETpTwlNZBWHAC2id
prFCX6xFoC7XqH+Cb38yMPsXr/1PraZrM9S0Zjkg0h5X7ilB2c+JlMVEblHZmwoU
jg+iHVdInd+/aYltiDPGcqand3V/dO2vTdxDk+cMt9f83rs/YT4dpnUsZIX7GRAN
ojFpfurnFgzLWECPWXAzjeNH3iomSofchQrSZ9j0cqQ8pVZTWZ6iBi1zp04c/z3s
3KkUFomM5WBQfYXAGOPHeuTDMvNXbrqquJI9wBgqytJyWmw04cq3o4q6qzXZJ+i6
qDiXy/l9QauttsNvsVXwFb4bjWAxLowaoK72ZptbCwQXNM3aHBRiw8hZV0/YdKrs
/ljcTq7CCCcRPqYqFuocgCRTh0+h3B/2B3vTryoxITSg
-----END CERTIFICATE-----
