Certificate:
    Data:
        Version: 3 (0x2)
        Serial Number: 9727 (0x25ff)
    Signature Algorithm: sha256WithRSAEncryption
        Issuer: C=US, ST=OH, L=Columbus, O=VikingVPN, OU=MyOrganizationalUnit, CN=VikingVPN CA/name=EasyRSA/emailAddress=me@myhost.mydomain
        Validity
            Not Before: Dec 19 16:28:22 2016 GMT
            Not After : Dec 17 16:28:22 2026 GMT
        Subject: CN=Client343Certf4ebf1
        Subject Public Key Info:
            Public Key Algorithm: rsaEncryption
                Public-Key: (4096 bit)
                Modulus:
                    00:a3:d6:a2:72:7c:48:1f:df:b5:59:7a:03:6c:0a:
                    9f:92:90:82:58:1f:68:3b:25:eb:89:2e:01:fb:3c:
                    aa:b0:50:bd:d9:24:c0:25:a5:98:f5:12:28:cf:05:
                    a6:d9:72:5c:a4:c5:dd:3d:82:81:0a:35:bb:93:1f:
                    89:37:e3:71:fd:b2:65:d1:2a:6e:a8:52:92:5f:cd:
                    98:09:e9:1e:78:bf:6e:17:2a:98:d1:8e:12:53:e8:
                    a9:7a:12:b7:23:0d:09:75:dc:f4:61:5b:77:77:7c:
                    72:b8:1f:f4:b5:68:69:aa:19:f2:5b:40:b0:41:ff:
                    90:80:43:36:fc:49:a1:d3:00:96:d8:7c:c7:81:63:
                    c5:d3:a5:46:b5:d4:80:5d:6c:99:33:dd:03:f8:e4:
                    06:08:35:41:f5:df:f7:85:c3:8c:a9:6d:2a:f4:34:
                    3b:2a:fa:55:76:c9:c0:55:aa:84:1f:0d:95:2c:56:
                    e8:16:05:37:bf:03:bc:75:88:23:b7:f2:61:69:64:
                    1f:bb:66:1f:72:96:6b:fd:85:d5:eb:44:50:bf:9e:
                    ed:ce:cf:9c:37:9c:b3:28:ac:e9:ff:42:f3:b3:44:
                    d1:67:d8:21:76:fb:d0:4f:9d:da:b7:43:cb:1c:5a:
                    84:0f:4a:25:2e:3b:10:28:02:62:21:58:8b:c2:4c:
                    f8:4e:0a:2f:3c:fa:8b:af:e4:c0:33:e9:27:8d:4e:
                    59:e1:d2:b6:16:78:71:4e:21:10:b4:53:32:bd:a4:
                    ab:2e:5a:1e:91:49:0a:ad:f4:ec:65:df:84:60:be:
                    b5:38:03:3b:2f:83:40:63:07:8f:cb:6b:03:e7:e7:
                    d3:89:a0:e7:35:5f:a0:5a:b3:ed:bf:3e:3a:29:b7:
                    37:4e:6a:e2:fb:11:ee:45:5f:78:2a:32:3b:f3:7f:
                    ea:ed:85:08:76:05:50:6a:be:40:17:36:86:d7:b5:
                    9a:ba:05:46:16:2d:a5:b5:e1:9b:a5:98:e8:b8:b2:
                    e1:d7:03:43:38:49:d4:90:f5:8a:6f:0d:1e:a4:e5:
                    d9:35:53:2c:e0:99:27:00:9c:e7:4d:c9:92:de:8d:
                    9e:9a:c6:5e:c1:68:18:74:1c:7d:75:c2:e0:d7:35:
                    c3:69:03:9c:25:c1:da:1b:31:8b:83:54:a5:a7:5d:
                    c3:e0:1b:3e:05:2d:19:15:38:0d:d1:80:b1:d5:7f:
                    31:d3:b3:37:81:3d:ef:60:cf:e5:0e:2e:90:42:d5:
                    9e:17:10:5d:14:c7:bc:34:b2:e9:f5:0f:6a:14:9a:
                    cb:32:94:36:58:08:5f:0e:46:8d:b0:18:62:4f:90:
                    9c:11:ef:d3:2b:f0:33:59:b9:1f:5b:06:32:c4:a6:
                    30:02:17
                Exponent: 65537 (0x10001)
        X509v3 extensions:
            X509v3 Basic Constraints: 
                CA:FALSE
            Netscape Comment: 
                Easy-RSA Generated Certificate
            X509v3 Subject Key Identifier: 
                22:84:F7:60:4D:DB:CC:D3:41:1C:67:AF:BE:F0:57:CB:8F:7E:8D:1C
            X509v3 Authority Key Identifier: 
                keyid:12:CD:60:04:D2:A0:80:9E:70:ED:C6:99:B8:7B:2C:C6:52:FD:19:A1
                DirName:/C=US/ST=OH/L=Columbus/O=VikingVPN/OU=MyOrganizationalUnit/CN=VikingVPN CA/name=EasyRSA/emailAddress=me@myhost.mydomain
                serial:CF:35:85:EE:80:BF:2A:3E

            X509v3 Extended Key Usage: 
                TLS Web Client Authentication
            X509v3 Key Usage: 
                Digital Signature
    Signature Algorithm: sha256WithRSAEncryption
         ca:53:c3:2f:2f:b9:aa:75:ae:b8:54:7e:29:29:8a:23:fe:a5:
         86:e6:88:64:18:da:6d:4a:40:59:1c:8a:20:01:8a:aa:2d:f1:
         32:85:ee:f2:89:a0:1a:0c:29:2d:92:a0:9d:8c:ef:5b:20:bf:
         44:6a:d8:0b:b9:c3:8c:30:62:03:20:cd:f2:a2:3f:b7:00:c3:
         ce:51:8d:5b:4c:f7:03:06:66:57:83:aa:6f:50:a6:a7:1e:ae:
         84:9e:dd:ef:7a:74:d3:a0:07:da:8c:7a:3d:0f:a1:ca:f3:78:
         aa:23:87:74:f3:1a:0d:15:0d:c4:dc:7b:d6:18:f3:84:17:8a:
         ac:86:27:05:dd:bb:19:13:25:d5:87:57:a0:ea:19:7e:c0:1a:
         b6:26:b2:c9:3a:11:cb:63:b0:62:a4:2c:5b:91:88:97:a9:0f:
         83:c7:5c:85:01:b0:29:c3:a8:b0:c0:f4:dc:32:83:6c:62:85:
         75:11:b7:dc:6d:df:02:b5:55:7b:fa:03:da:63:bc:a8:c5:59:
         7e:7d:b4:64:40:b1:7d:60:b7:00:76:7c:21:e9:99:87:25:f1:
         82:e6:32:ab:e6:b2:02:8a:20:2a:f6:3f:75:7a:f6:1d:01:37:
         fe:3c:02:7c:c0:0c:17:f9:dd:36:87:80:45:d1:dd:19:c6:d7:
         1a:00:8c:98:48:14:7a:77:9e:2c:cd:66:b7:b9:70:af:0f:ac:
         48:a9:44:f6:38:97:61:35:d4:30:d9:59:72:f5:51:24:6a:8c:
         e7:c9:fc:59:b7:77:6b:e8:9c:64:96:f2:69:84:1e:24:6c:dd:
         cf:82:7d:2a:4d:94:91:54:d9:e4:7d:49:e6:43:98:e9:f2:16:
         43:15:ee:c1:be:3d:52:f4:88:bb:86:76:24:d8:15:1b:76:28:
         69:ec:6d:22:b2:41:04:b0:9e:d1:a0:d1:41:28:04:2e:83:49:
         a8:08:0e:69:73:b6:68:ef:c0:83:4e:f2:9a:0e:db:8d:28:e7:
         99:71:aa:e0:a6:38:a8:9f:46:cf:68:22:9e:6e:bc:f9:ed:4c:
         9f:f7:ac:0e:9a:db:4d:c1:c0:f4:ce:60:7e:e3:9b:d7:a5:c8:
         92:e4:4d:29:20:7d:99:13:ff:fb:ef:7a:85:4c:b1:58:44:1b:
         99:3b:2c:d0:ea:f0:2a:31:c4:f2:88:41:e5:d3:17:86:19:8f:
         ee:5b:a0:65:8c:50:8b:06:37:10:1f:84:4c:9c:68:da:2f:31:
         a1:4c:aa:bd:c4:46:43:96:14:bd:d7:4d:8c:73:bc:91:a5:7a:
         d7:85:08:09:f7:e8:26:a9:c6:38:86:2c:d8:f2:c0:39:56:72:
         19:e7:cb:e1:4b:25:52:d7
-----BEGIN CERTIFICATE-----
MIIGrDCCBJSgAwIBAgICJf8wDQYJKoZIhvcNAQELBQAwgawxCzAJBgNVBAYTAlVT
MQswCQYDVQQIEwJPSDERMA8GA1UEBxMIQ29sdW1idXMxEjAQBgNVBAoTCVZpa2lu
Z1ZQTjEdMBsGA1UECxMUTXlPcmdhbml6YXRpb25hbFVuaXQxFTATBgNVBAMTDFZp
a2luZ1ZQTiBDQTEQMA4GA1UEKRMHRWFzeVJTQTEhMB8GCSqGSIb3DQEJARYSbWVA
bXlob3N0Lm15ZG9tYWluMB4XDTE2MTIxOTE2MjgyMloXDTI2MTIxNzE2MjgyMlow
HjEcMBoGA1UEAxMTQ2xpZW50MzQzQ2VydGY0ZWJmMTCCAiIwDQYJKoZIhvcNAQEB
BQADggIPADCCAgoCggIBAKPWonJ8SB/ftVl6A2wKn5KQglgfaDsl64kuAfs8qrBQ
vdkkwCWlmPUSKM8FptlyXKTF3T2CgQo1u5MfiTfjcf2yZdEqbqhSkl/NmAnpHni/
bhcqmNGOElPoqXoStyMNCXXc9GFbd3d8crgf9LVoaaoZ8ltAsEH/kIBDNvxJodMA
lth8x4FjxdOlRrXUgF1smTPdA/jkBgg1QfXf94XDjKltKvQ0Oyr6VXbJwFWqhB8N
lSxW6BYFN78DvHWII7fyYWlkH7tmH3KWa/2F1etEUL+e7c7PnDecsyis6f9C87NE
0WfYIXb70E+d2rdDyxxahA9KJS47ECgCYiFYi8JM+E4KLzz6i6/kwDPpJ41OWeHS
thZ4cU4hELRTMr2kqy5aHpFJCq307GXfhGC+tTgDOy+DQGMHj8trA+fn04mg5zVf
oFqz7b8+Oim3N05q4vsR7kVfeCoyO/N/6u2FCHYFUGq+QBc2hte1mroFRhYtpbXh
m6WY6Liy4dcDQzhJ1JD1im8NHqTl2TVTLOCZJwCc503Jkt6NnprGXsFoGHQcfXXC
4Nc1w2kDnCXB2hsxi4NUpaddw+AbPgUtGRU4DdGAsdV/MdOzN4E972DP5Q4ukELV
nhcQXRTHvDSy6fUPahSayzKUNlgIXw5GjbAYYk+QnBHv0yvwM1m5H1sGMsSmMAIX
AgMBAAGjggFjMIIBXzAJBgNVHRMEAjAAMC0GCWCGSAGG+EIBDQQgFh5FYXN5LVJT
QSBHZW5lcmF0ZWQgQ2VydGlmaWNhdGUwHQYDVR0OBBYEFCKE92BN28zTQRxnr77w
V8uPfo0cMIHhBgNVHSMEgdkwgdaAFBLNYATSoICecO3Gmbh7LMZS/RmhoYGypIGv
MIGsMQswCQYDVQQGEwJVUzELMAkGA1UECBMCT0gxETAPBgNVBAcTCENvbHVtYnVz
MRIwEAYDVQQKEwlWaWtpbmdWUE4xHTAbBgNVBAsTFE15T3JnYW5pemF0aW9uYWxV
bml0MRUwEwYDVQQDEwxWaWtpbmdWUE4gQ0ExEDAOBgNVBCkTB0Vhc3lSU0ExITAf
BgkqhkiG9w0BCQEWEm1lQG15aG9zdC5teWRvbWFpboIJAM81he6Avyo+MBMGA1Ud
JQQMMAoGCCsGAQUFBwMCMAsGA1UdDwQEAwIHgDANBgkqhkiG9w0BAQsFAAOCAgEA
ylPDLy+5qnWuuFR+KSmKI/6lhuaIZBjabUpAWRyKIAGKqi3xMoXu8omgGgwpLZKg
nYzvWyC/RGrYC7nDjDBiAyDN8qI/twDDzlGNW0z3AwZmV4Oqb1Cmpx6uhJ7d73p0
06AH2ox6PQ+hyvN4qiOHdPMaDRUNxNx71hjzhBeKrIYnBd27GRMl1YdXoOoZfsAa
tiayyToRy2OwYqQsW5GIl6kPg8dchQGwKcOosMD03DKDbGKFdRG33G3fArVVe/oD
2mO8qMVZfn20ZECxfWC3AHZ8IemZhyXxguYyq+ayAoogKvY/dXr2HQE3/jwCfMAM
F/ndNoeARdHdGcbXGgCMmEgUeneeLM1mt7lwrw+sSKlE9jiXYTXUMNlZcvVRJGqM
58n8Wbd3a+icZJbyaYQeJGzdz4J9Kk2UkVTZ5H1J5kOY6fIWQxXuwb49UvSIu4Z2
JNgVG3YoaextIrJBBLCe0aDRQSgELoNJqAgOaXO2aO/Ag07ymg7bjSjnmXGq4KY4
qJ9Gz2ginm68+e1Mn/esDprbTcHA9M5gfuOb16XIkuRNKSB9mRP/++96hUyxWEQb
mTss0OrwKjHE8ohB5dMXhhmP7lugZYxQiwY3EB+ETJxo2i8xoUyqvcRGQ5YUvddN
jHO8kaV614UICffoJqnGOIYs2PLAOVZyGefL4UslUtc=
-----END CERTIFICATE-----
