Certificate:
    Data:
        Version: 3 (0x2)
        Serial Number: 9747 (0x2613)
    Signature Algorithm: sha256WithRSAEncryption
        Issuer: C=US, ST=OH, L=Columbus, O=VikingVPN, OU=MyOrganizationalUnit, CN=VikingVPN CA/name=EasyRSA/emailAddress=me@myhost.mydomain
        Validity
            Not Before: Dec 23 08:43:06 2016 GMT
            Not After : Dec 21 08:43:06 2026 GMT
        Subject: CN=Client517Certe9dd2a
        Subject Public Key Info:
            Public Key Algorithm: rsaEncryption
                Public-Key: (4096 bit)
                Modulus:
                    00:cb:90:5c:db:4b:f9:33:5a:b2:c1:76:1b:20:7e:
                    2b:fc:02:0f:fa:65:6c:75:22:6c:e7:23:90:3f:6a:
                    aa:4c:34:ae:8c:3f:3f:cd:52:d8:07:ac:ee:5f:c9:
                    a9:4f:72:ff:55:77:86:de:9c:a3:7c:05:89:50:ed:
                    00:fd:d7:20:73:ab:c3:8e:fa:2a:ea:22:c4:53:11:
                    f0:44:b7:78:5a:f9:2e:bd:46:72:15:ab:1b:4f:ab:
                    40:4a:09:30:50:99:98:21:24:06:e3:ba:43:2d:02:
                    38:25:56:fa:e7:c8:22:3c:10:1e:b6:1e:38:dd:d0:
                    89:e8:78:f8:bc:27:e9:5a:24:a5:6b:63:72:89:f5:
                    8f:87:db:3e:09:2e:e2:a3:df:43:62:43:24:7c:b4:
                    c9:1c:5f:89:ae:2e:27:2f:b6:d2:c5:f8:7b:05:b2:
                    4b:a1:63:6d:9c:e8:b5:84:ad:44:3f:e0:2d:25:57:
                    96:6b:d5:55:08:07:80:bd:36:e6:d2:c3:23:4e:c6:
                    32:90:af:d8:35:bc:18:c2:65:5f:7a:cb:9a:65:1a:
                    3f:cb:18:da:03:28:15:37:67:47:d2:5f:c9:a6:14:
                    94:3a:f3:34:09:75:5b:81:1d:74:15:87:de:cc:56:
                    1d:c5:4e:49:30:d5:2f:52:39:57:cd:2d:d0:2f:5e:
                    d0:a7:66:4f:a0:8d:9b:9a:3c:98:1d:bc:53:dd:fd:
                    72:dd:3f:a0:8e:ef:40:9a:1c:50:ad:e3:66:58:da:
                    22:15:59:5c:cc:c3:39:4a:6f:10:db:1f:05:5a:e6:
                    34:90:01:08:a1:5b:7b:6e:da:f9:81:3b:32:d7:93:
                    21:04:c1:ad:db:2d:ad:89:5d:dd:92:c6:17:c4:82:
                    90:c1:ba:4e:c4:b3:10:d6:07:bf:13:6f:a2:67:fa:
                    61:c0:15:c1:ba:ab:74:58:27:ac:ce:bb:9a:e9:b2:
                    17:bb:26:0d:7c:79:be:8c:e3:bc:c1:6b:ae:8a:95:
                    a5:aa:90:00:3a:7b:4d:3b:b9:7b:99:94:e4:b5:7a:
                    ce:14:03:44:81:36:56:ef:8b:66:fe:1b:9f:3f:84:
                    e8:06:47:69:ad:33:83:56:19:dc:77:a2:82:7b:46:
                    7e:4e:95:f6:73:37:e8:58:24:e7:2c:ef:99:6b:57:
                    5f:5e:8a:1d:7c:e4:69:ae:f8:28:fa:3a:0c:f9:96:
                    6f:3d:1e:22:6f:04:89:13:d1:5e:40:77:a3:0b:7f:
                    f9:04:26:40:bf:b1:70:1f:1c:25:3d:63:30:be:b1:
                    f9:f9:28:15:1a:8a:ff:d6:79:8a:a8:37:5b:48:6d:
                    0d:2f:94:12:bc:76:aa:6d:4d:69:aa:b8:be:b2:6e:
                    7f:eb:e7
                Exponent: 65537 (0x10001)
        X509v3 extensions:
            X509v3 Basic Constraints: 
                CA:FALSE
            Netscape Comment: 
                Easy-RSA Generated Certificate
            X509v3 Subject Key Identifier: 
                6F:F2:32:38:69:86:F8:9C:55:BB:A0:AE:E5:25:A7:12:BB:DA:67:77
            X509v3 Authority Key Identifier: 
                keyid:12:CD:60:04:D2:A0:80:9E:70:ED:C6:99:B8:7B:2C:C6:52:FD:19:A1
                DirName:/C=US/ST=OH/L=Columbus/O=VikingVPN/OU=MyOrganizationalUnit/CN=VikingVPN CA/name=EasyRSA/emailAddress=me@myhost.mydomain
                serial:CF:35:85:EE:80:BF:2A:3E

            X509v3 Extended Key Usage: 
                TLS Web Client Authentication
            X509v3 Key Usage: 
                Digital Signature
    Signature Algorithm: sha256WithRSAEncryption
         23:82:02:76:e6:7d:1a:31:7b:ce:c9:09:00:1c:d6:f8:c3:ed:
         3e:55:fd:3a:3d:3c:8d:3e:a3:20:0a:c1:09:fd:d8:11:a1:85:
         31:8c:94:50:88:b5:43:91:9f:ee:2e:27:fb:59:79:f5:bd:55:
         2d:af:94:72:79:90:aa:6e:fc:3a:dd:91:9d:91:c7:d3:db:7c:
         0c:0e:33:3a:b1:c6:c3:bc:86:fb:02:1b:bb:5a:d5:d4:f9:70:
         2f:a6:f2:63:2b:6a:bc:7b:3c:8c:a4:c7:eb:6f:a8:df:9a:37:
         2d:92:1b:25:f8:4c:d4:37:25:e0:09:c5:b3:17:ac:fc:9a:91:
         fb:4b:83:9f:0c:47:4a:06:92:97:4d:8a:1d:70:ae:75:59:81:
         01:4b:51:12:0a:d3:fb:58:f3:44:c8:78:30:80:f9:2c:0e:6e:
         8b:df:ca:b9:a7:84:22:4b:1a:41:54:ad:81:22:e3:80:fe:bb:
         a2:a9:78:ec:39:fa:7e:57:96:4b:f6:65:3d:1d:ba:88:4c:56:
         df:21:43:41:d9:20:f8:25:0f:3c:8c:0e:34:50:62:93:11:45:
         66:75:3c:77:48:fd:e1:7e:19:ef:94:11:cc:2b:4d:08:62:7f:
         ec:72:ce:dc:dd:56:38:7e:60:92:36:af:9f:43:d0:4d:6b:13:
         2d:c1:64:31:84:fa:15:72:5c:e4:1a:cc:41:36:ad:b9:22:1c:
         b5:72:48:17:6a:7b:e6:b5:7b:7a:f9:f2:1e:fa:2d:1a:c5:84:
         1f:b3:99:f7:f0:29:7d:96:1b:df:13:b1:90:e1:be:71:4d:b5:
         d3:50:22:94:cf:fe:35:86:7d:2a:d7:48:fa:1a:e4:62:aa:16:
         1b:6c:a9:99:f3:98:4f:a7:05:e8:d5:0d:8a:f7:dd:2b:41:53:
         81:01:aa:b2:8f:35:e4:d2:3a:c2:a8:6d:06:52:c8:f4:df:9b:
         dc:91:98:a9:d2:47:7d:27:d2:56:9d:4a:d0:11:0b:f0:6c:be:
         d5:21:08:f6:ab:65:a4:51:37:65:84:5b:f6:53:98:2d:12:a2:
         d8:2f:7c:97:b2:cc:59:6a:c5:0f:04:43:21:8a:7c:c8:ae:b1:
         1f:fb:aa:ea:10:06:4c:ce:04:a2:26:5f:d5:06:bd:a5:55:63:
         d4:92:5b:b7:c1:0b:4a:3c:26:d3:9f:9a:b0:77:fc:fa:2c:75:
         d5:49:4a:37:ab:b9:4a:9e:93:19:02:86:f6:d1:eb:84:55:1f:
         41:b7:92:19:83:e4:2f:ae:0c:b5:57:9d:02:27:d1:c6:cb:a2:
         17:8e:9e:86:f1:9d:fc:5f:b3:de:56:67:5c:9d:25:e1:c3:e2:
         f6:07:94:66:9b:3e:61:ae
-----BEGIN CERTIFICATE-----
MIIGrDCCBJSgAwIBAgICJhMwDQYJKoZIhvcNAQELBQAwgawxCzAJBgNVBAYTAlVT
MQswCQYDVQQIEwJPSDERMA8GA1UEBxMIQ29sdW1idXMxEjAQBgNVBAoTCVZpa2lu
Z1ZQTjEdMBsGA1UECxMUTXlPcmdhbml6YXRpb25hbFVuaXQxFTATBgNVBAMTDFZp
a2luZ1ZQTiBDQTEQMA4GA1UEKRMHRWFzeVJTQTEhMB8GCSqGSIb3DQEJARYSbWVA
bXlob3N0Lm15ZG9tYWluMB4XDTE2MTIyMzA4NDMwNloXDTI2MTIyMTA4NDMwNlow
HjEcMBoGA1UEAxMTQ2xpZW50NTE3Q2VydGU5ZGQyYTCCAiIwDQYJKoZIhvcNAQEB
BQADggIPADCCAgoCggIBAMuQXNtL+TNassF2GyB+K/wCD/plbHUibOcjkD9qqkw0
row/P81S2Aes7l/JqU9y/1V3ht6co3wFiVDtAP3XIHOrw476KuoixFMR8ES3eFr5
Lr1GchWrG0+rQEoJMFCZmCEkBuO6Qy0COCVW+ufIIjwQHrYeON3Qieh4+Lwn6Vok
pWtjcon1j4fbPgku4qPfQ2JDJHy0yRxfia4uJy+20sX4ewWyS6FjbZzotYStRD/g
LSVXlmvVVQgHgL025tLDI07GMpCv2DW8GMJlX3rLmmUaP8sY2gMoFTdnR9JfyaYU
lDrzNAl1W4EddBWH3sxWHcVOSTDVL1I5V80t0C9e0KdmT6CNm5o8mB28U939ct0/
oI7vQJocUK3jZljaIhVZXMzDOUpvENsfBVrmNJABCKFbe27a+YE7MteTIQTBrdst
rYld3ZLGF8SCkMG6TsSzENYHvxNvomf6YcAVwbqrdFgnrM67mumyF7smDXx5vozj
vMFrroqVpaqQADp7TTu5e5mU5LV6zhQDRIE2Vu+LZv4bnz+E6AZHaa0zg1YZ3Hei
gntGfk6V9nM36Fgk5yzvmWtXX16KHXzkaa74KPo6DPmWbz0eIm8EiRPRXkB3owt/
+QQmQL+xcB8cJT1jML6x+fkoFRqK/9Z5iqg3W0htDS+UErx2qm1Naaq4vrJuf+vn
AgMBAAGjggFjMIIBXzAJBgNVHRMEAjAAMC0GCWCGSAGG+EIBDQQgFh5FYXN5LVJT
QSBHZW5lcmF0ZWQgQ2VydGlmaWNhdGUwHQYDVR0OBBYEFG/yMjhphvicVbugruUl
pxK72md3MIHhBgNVHSMEgdkwgdaAFBLNYATSoICecO3Gmbh7LMZS/RmhoYGypIGv
MIGsMQswCQYDVQQGEwJVUzELMAkGA1UECBMCT0gxETAPBgNVBAcTCENvbHVtYnVz
MRIwEAYDVQQKEwlWaWtpbmdWUE4xHTAbBgNVBAsTFE15T3JnYW5pemF0aW9uYWxV
bml0MRUwEwYDVQQDEwxWaWtpbmdWUE4gQ0ExEDAOBgNVBCkTB0Vhc3lSU0ExITAf
BgkqhkiG9w0BCQEWEm1lQG15aG9zdC5teWRvbWFpboIJAM81he6Avyo+MBMGA1Ud
JQQMMAoGCCsGAQUFBwMCMAsGA1UdDwQEAwIHgDANBgkqhkiG9w0BAQsFAAOCAgEA
I4ICduZ9GjF7zskJABzW+MPtPlX9Oj08jT6jIArBCf3YEaGFMYyUUIi1Q5Gf7i4n
+1l59b1VLa+UcnmQqm78Ot2RnZHH09t8DA4zOrHGw7yG+wIbu1rV1PlwL6byYytq
vHs8jKTH62+o35o3LZIbJfhM1Dcl4AnFsxes/JqR+0uDnwxHSgaSl02KHXCudVmB
AUtREgrT+1jzRMh4MID5LA5ui9/KuaeEIksaQVStgSLjgP67oql47Dn6fleWS/Zl
PR26iExW3yFDQdkg+CUPPIwONFBikxFFZnU8d0j94X4Z75QRzCtNCGJ/7HLO3N1W
OH5gkjavn0PQTWsTLcFkMYT6FXJc5BrMQTatuSIctXJIF2p75rV7evnyHvotGsWE
H7OZ9/ApfZYb3xOxkOG+cU2101AilM/+NYZ9KtdI+hrkYqoWG2ypmfOYT6cF6NUN
ivfdK0FTgQGqso815NI6wqhtBlLI9N+b3JGYqdJHfSfSVp1K0BEL8Gy+1SEI9qtl
pFE3ZYRb9lOYLRKi2C98l7LMWWrFDwRDIYp8yK6xH/uq6hAGTM4EoiZf1Qa9pVVj
1JJbt8ELSjwm05+asHf8+ix11UlKN6u5Sp6TGQKG9tHrhFUfQbeSGYPkL64MtVed
AifRxsuiF46ehvGd/F+z3lZnXJ0l4cPi9geUZps+Ya4=
-----END CERTIFICATE-----
