Certificate:
    Data:
        Version: 3 (0x2)
        Serial Number: 9783 (0x2637)
    Signature Algorithm: sha256WithRSAEncryption
        Issuer: C=US, ST=OH, L=Columbus, O=VikingVPN, OU=MyOrganizationalUnit, CN=VikingVPN CA/name=EasyRSA/emailAddress=me@myhost.mydomain
        Validity
            Not Before: Dec 29 20:44:42 2016 GMT
            Not After : Dec 27 20:44:42 2026 GMT
        Subject: CN=Client1702Cert75af81
        Subject Public Key Info:
            Public Key Algorithm: rsaEncryption
                Public-Key: (4096 bit)
                Modulus:
                    00:9f:9d:7f:1f:64:aa:6a:c8:eb:6a:07:ef:5c:0e:
                    51:83:3c:f7:c6:cc:32:71:12:18:85:75:10:56:13:
                    ba:1d:fc:c2:cb:6a:de:6c:34:a9:47:ad:75:ce:c2:
                    68:61:6e:72:cf:66:c6:e8:33:8a:dc:bd:ca:e9:52:
                    9e:a8:d5:49:2b:ef:01:7b:1e:8f:b8:ad:b6:68:99:
                    9c:0c:f8:73:0b:6d:c5:4c:5a:33:3d:df:0b:b9:02:
                    1d:9b:8c:00:46:b0:ef:0e:c1:06:0e:bf:1f:e5:0f:
                    dc:b0:29:a4:0f:f4:12:12:ad:f3:97:ff:0c:b1:e4:
                    11:06:1e:76:5d:7f:ce:61:ef:6b:15:09:62:88:22:
                    5e:02:51:1a:68:62:ba:81:56:fd:89:2a:99:16:15:
                    09:54:06:ad:7e:dc:8c:cd:6c:b6:14:6b:db:32:2b:
                    b8:4e:99:e5:cc:41:db:df:e7:11:e4:b7:60:72:11:
                    02:5d:ce:b2:84:d2:f5:4c:59:a8:21:c6:30:b6:6f:
                    20:c3:2e:e0:0b:ee:62:54:40:ef:53:d2:d3:e7:be:
                    98:24:5f:75:ae:9e:14:da:4a:24:3e:28:cb:fa:4e:
                    5c:53:6f:a1:01:c5:28:3c:c7:5d:49:21:67:a9:d3:
                    07:8f:89:00:04:5f:28:09:9d:2c:71:28:51:06:e7:
                    f1:d0:1e:ed:98:09:4a:de:53:64:65:63:85:bd:ab:
                    03:ae:f4:19:0e:35:a5:15:d8:d0:ba:9b:22:92:14:
                    ac:41:8a:6c:a0:8b:9e:02:d7:25:7d:6a:8e:c6:3d:
                    88:f2:c7:0f:9c:de:50:c9:6b:1c:8f:2e:90:32:b2:
                    5c:f6:c8:70:d9:fd:e6:c5:cb:2b:f4:ba:3f:ae:3e:
                    13:31:f8:0a:e1:da:93:92:f5:ff:2a:92:84:2f:b5:
                    fc:fa:3a:ea:2c:c4:ac:73:2f:f1:d9:66:04:5c:41:
                    fa:c0:31:14:12:4d:1b:05:92:68:ed:a6:1e:74:d1:
                    c0:7c:1e:df:d5:a8:7e:9c:90:b3:1b:eb:70:64:4a:
                    09:97:30:07:4d:29:8b:c5:a3:a8:b8:8f:95:3e:3c:
                    3c:04:50:21:4c:26:4d:7e:b8:7b:d8:cd:44:3e:e9:
                    3e:33:04:6a:12:38:39:59:52:7b:0d:f8:c5:09:a2:
                    9a:0b:20:8f:8a:b7:ec:2c:1e:cf:28:bf:5d:6c:6e:
                    bb:3e:08:4a:ad:38:58:86:81:d7:cb:13:49:03:b4:
                    7a:44:a3:16:c2:41:80:95:ce:eb:f2:87:f1:af:f5:
                    59:2f:0e:3b:77:d9:8e:49:7a:7a:2a:43:d2:92:e3:
                    79:c2:57:b7:d3:84:fc:a7:90:19:74:af:e3:17:37:
                    f5:a8:b5
                Exponent: 65537 (0x10001)
        X509v3 extensions:
            X509v3 Basic Constraints: 
                CA:FALSE
            Netscape Comment: 
                Easy-RSA Generated Certificate
            X509v3 Subject Key Identifier: 
                82:5D:C8:39:6C:C2:0E:D9:7B:27:AC:71:8A:F8:87:11:A6:7E:B2:BD
            X509v3 Authority Key Identifier: 
                keyid:12:CD:60:04:D2:A0:80:9E:70:ED:C6:99:B8:7B:2C:C6:52:FD:19:A1
                DirName:/C=US/ST=OH/L=Columbus/O=VikingVPN/OU=MyOrganizationalUnit/CN=VikingVPN CA/name=EasyRSA/emailAddress=me@myhost.mydomain
                serial:CF:35:85:EE:80:BF:2A:3E

            X509v3 Extended Key Usage: 
                TLS Web Client Authentication
            X509v3 Key Usage: 
                Digital Signature
    Signature Algorithm: sha256WithRSAEncryption
         32:d2:15:de:aa:cb:9c:a6:0f:68:cf:b4:37:30:2c:9e:fe:7f:
         a4:a3:fe:3b:91:f8:2a:e5:10:00:b2:1a:5e:42:7e:84:dc:5d:
         53:cf:42:95:17:dd:6e:ab:7e:7b:97:7e:50:46:5e:78:98:ba:
         d5:ef:22:0a:17:da:06:e6:73:87:5a:98:35:49:47:51:73:c0:
         de:4a:6c:71:aa:87:5b:15:c5:fd:4b:e8:51:87:9c:ff:94:3c:
         f2:8a:5b:13:79:07:ef:93:79:22:b0:6b:ea:81:d9:06:cc:d2:
         95:98:0a:72:41:6c:fb:da:43:e2:ce:7d:ec:cf:b7:33:cc:4c:
         dd:0c:9c:a1:bd:be:08:b3:39:bd:21:ed:bd:8f:46:32:0f:b0:
         61:80:a0:de:26:5f:d6:93:5a:87:36:6f:f6:73:8d:aa:a7:fd:
         21:ea:76:7a:e9:5e:8e:fd:18:11:b2:21:0d:6b:85:2f:e6:5d:
         fe:21:8f:0a:11:64:09:96:7e:c3:67:6a:47:2f:22:e9:27:05:
         01:9f:20:d7:90:9e:9a:5e:f9:ef:fe:65:c5:ae:a5:64:04:91:
         6c:6c:27:54:95:65:f9:59:4e:21:c0:29:60:db:ce:cb:66:c8:
         e2:ce:52:01:67:92:c5:b2:c1:f4:e2:2c:1e:9c:bb:2e:69:f1:
         d5:d7:a8:61:cc:1d:ed:ae:b8:26:4e:df:5d:f6:93:67:78:ce:
         6d:a3:67:74:b1:ba:a9:9d:70:95:02:dd:db:04:29:3a:b6:31:
         7b:fc:ef:5c:c7:a8:0c:12:be:3b:ad:fd:60:a0:a7:f5:c3:19:
         4f:0e:59:cc:56:d5:35:34:2b:17:61:d2:28:40:7c:4d:08:8b:
         1a:a2:60:4e:49:72:c2:60:c9:7d:21:1a:72:29:58:a9:75:d2:
         2f:c7:5c:76:93:fb:6c:75:92:bb:5e:76:99:b7:7c:da:84:bd:
         34:ab:6a:51:ab:62:a8:bf:1a:5c:3f:6d:92:97:1f:97:77:13:
         7e:7c:d4:b7:44:27:a1:80:5f:8d:19:48:df:3d:ff:cf:48:a1:
         b7:09:26:b5:bf:40:6b:52:79:d0:77:fd:92:cd:bb:b5:56:63:
         bb:1d:55:a0:6a:ce:cd:be:3a:52:46:ec:c2:76:f1:eb:c6:ce:
         a3:97:8b:b4:a9:30:07:c7:53:2d:00:cf:25:fa:11:bd:8f:28:
         e8:ee:0f:58:9b:14:42:c9:be:48:4a:28:3a:10:64:39:98:38:
         89:9b:8a:fe:8e:fe:63:38:a2:b5:f6:54:d0:67:ea:20:8c:29:
         d7:f5:aa:71:3c:a9:6c:40:33:dc:91:00:85:81:d0:4b:87:98:
         1c:29:a5:5e:1e:82:22:cd
-----BEGIN CERTIFICATE-----
MIIGrTCCBJWgAwIBAgICJjcwDQYJKoZIhvcNAQELBQAwgawxCzAJBgNVBAYTAlVT
MQswCQYDVQQIEwJPSDERMA8GA1UEBxMIQ29sdW1idXMxEjAQBgNVBAoTCVZpa2lu
Z1ZQTjEdMBsGA1UECxMUTXlPcmdhbml6YXRpb25hbFVuaXQxFTATBgNVBAMTDFZp
a2luZ1ZQTiBDQTEQMA4GA1UEKRMHRWFzeVJTQTEhMB8GCSqGSIb3DQEJARYSbWVA
bXlob3N0Lm15ZG9tYWluMB4XDTE2MTIyOTIwNDQ0MloXDTI2MTIyNzIwNDQ0Mlow
HzEdMBsGA1UEAxMUQ2xpZW50MTcwMkNlcnQ3NWFmODEwggIiMA0GCSqGSIb3DQEB
AQUAA4ICDwAwggIKAoICAQCfnX8fZKpqyOtqB+9cDlGDPPfGzDJxEhiFdRBWE7od
/MLLat5sNKlHrXXOwmhhbnLPZsboM4rcvcrpUp6o1Ukr7wF7Ho+4rbZomZwM+HML
bcVMWjM93wu5Ah2bjABGsO8OwQYOvx/lD9ywKaQP9BISrfOX/wyx5BEGHnZdf85h
72sVCWKIIl4CURpoYrqBVv2JKpkWFQlUBq1+3IzNbLYUa9syK7hOmeXMQdvf5xHk
t2ByEQJdzrKE0vVMWaghxjC2byDDLuAL7mJUQO9T0tPnvpgkX3WunhTaSiQ+KMv6
TlxTb6EBxSg8x11JIWep0wePiQAEXygJnSxxKFEG5/HQHu2YCUreU2RlY4W9qwOu
9BkONaUV2NC6myKSFKxBimygi54C1yV9ao7GPYjyxw+c3lDJaxyPLpAyslz2yHDZ
/ebFyyv0uj+uPhMx+Arh2pOS9f8qkoQvtfz6OuosxKxzL/HZZgRcQfrAMRQSTRsF
kmjtph500cB8Ht/VqH6ckLMb63BkSgmXMAdNKYvFo6i4j5U+PDwEUCFMJk1+uHvY
zUQ+6T4zBGoSODlZUnsN+MUJopoLII+Kt+wsHs8ov11sbrs+CEqtOFiGgdfLE0kD
tHpEoxbCQYCVzuvyh/Gv9VkvDjt32Y5JenoqQ9KS43nCV7fThPynkBl0r+MXN/Wo
tQIDAQABo4IBYzCCAV8wCQYDVR0TBAIwADAtBglghkgBhvhCAQ0EIBYeRWFzeS1S
U0EgR2VuZXJhdGVkIENlcnRpZmljYXRlMB0GA1UdDgQWBBSCXcg5bMIO2XsnrHGK
+IcRpn6yvTCB4QYDVR0jBIHZMIHWgBQSzWAE0qCAnnDtxpm4eyzGUv0ZoaGBsqSB
rzCBrDELMAkGA1UEBhMCVVMxCzAJBgNVBAgTAk9IMREwDwYDVQQHEwhDb2x1bWJ1
czESMBAGA1UEChMJVmlraW5nVlBOMR0wGwYDVQQLExRNeU9yZ2FuaXphdGlvbmFs
VW5pdDEVMBMGA1UEAxMMVmlraW5nVlBOIENBMRAwDgYDVQQpEwdFYXN5UlNBMSEw
HwYJKoZIhvcNAQkBFhJtZUBteWhvc3QubXlkb21haW6CCQDPNYXugL8qPjATBgNV
HSUEDDAKBggrBgEFBQcDAjALBgNVHQ8EBAMCB4AwDQYJKoZIhvcNAQELBQADggIB
ADLSFd6qy5ymD2jPtDcwLJ7+f6Sj/juR+CrlEACyGl5CfoTcXVPPQpUX3W6rfnuX
flBGXniYutXvIgoX2gbmc4damDVJR1FzwN5KbHGqh1sVxf1L6FGHnP+UPPKKWxN5
B++TeSKwa+qB2QbM0pWYCnJBbPvaQ+LOfezPtzPMTN0MnKG9vgizOb0h7b2PRjIP
sGGAoN4mX9aTWoc2b/Zzjaqn/SHqdnrpXo79GBGyIQ1rhS/mXf4hjwoRZAmWfsNn
akcvIuknBQGfINeQnppe+e/+ZcWupWQEkWxsJ1SVZflZTiHAKWDbzstmyOLOUgFn
ksWywfTiLB6cuy5p8dXXqGHMHe2uuCZO3132k2d4zm2jZ3SxuqmdcJUC3dsEKTq2
MXv871zHqAwSvjut/WCgp/XDGU8OWcxW1TU0Kxdh0ihAfE0IixqiYE5JcsJgyX0h
GnIpWKl10i/HXHaT+2x1krtedpm3fNqEvTSralGrYqi/Glw/bZKXH5d3E3581LdE
J6GAX40ZSN89/89IobcJJrW/QGtSedB3/ZLNu7VWY7sdVaBqzs2+OlJG7MJ28evG
zqOXi7SpMAfHUy0AzyX6Eb2PKOjuD1ibFELJvkhKKDoQZDmYOImbiv6O/mM4orX2
VNBn6iCMKdf1qnE8qWxAM9yRAIWB0EuHmBwppV4egiLN
-----END CERTIFICATE-----
