Certificate:
    Data:
        Version: 3 (0x2)
        Serial Number: 9791 (0x263f)
    Signature Algorithm: sha256WithRSAEncryption
        Issuer: C=US, ST=OH, L=Columbus, O=VikingVPN, OU=MyOrganizationalUnit, CN=VikingVPN CA/name=EasyRSA/emailAddress=me@myhost.mydomain
        Validity
            Not Before: Jan  1 18:03:40 2017 GMT
            Not After : Dec 30 18:03:40 2026 GMT
        Subject: CN=Client2558Cert110811
        Subject Public Key Info:
            Public Key Algorithm: rsaEncryption
                Public-Key: (4096 bit)
                Modulus:
                    00:bc:b7:2e:f1:ee:2f:3f:74:39:ad:69:b5:cd:ad:
                    2b:ea:46:fd:70:cc:ad:7f:a6:cc:52:54:d5:8b:e3:
                    68:a7:01:d2:a5:78:45:38:83:4e:b9:67:cf:8e:d0:
                    b3:d3:0a:9b:17:2d:80:8c:c1:9e:2a:dd:76:e5:8b:
                    fa:18:9c:6a:ee:82:95:f5:04:4b:e1:e5:08:6a:37:
                    30:6e:33:7c:de:82:5b:87:99:30:0b:29:79:20:46:
                    ca:62:48:15:63:7b:5f:6b:2e:ef:0d:e5:47:e0:74:
                    28:e0:27:93:b5:75:84:62:af:fe:12:09:11:80:db:
                    a8:70:25:57:26:51:d0:45:e3:e4:52:d6:7b:87:66:
                    d8:6b:d8:c6:03:55:fe:08:dd:6f:40:9b:3f:e8:01:
                    ab:76:b1:8e:5a:33:ac:eb:14:ce:fb:2d:35:01:4e:
                    e1:7f:0d:08:7f:26:6d:4e:fd:e6:3a:be:d4:da:f2:
                    c0:13:13:09:e8:49:70:78:19:24:c1:5b:c8:23:9e:
                    41:88:f3:a9:6d:bd:0e:b9:4f:fe:03:10:be:bd:83:
                    9c:2e:69:9e:81:39:ae:e4:59:73:0d:23:e6:7f:ca:
                    2d:4a:fd:50:20:39:88:03:be:82:f4:15:a0:53:63:
                    3c:0b:60:23:73:f2:57:79:08:2f:6f:af:96:ab:df:
                    d7:68:3d:ec:c9:a1:01:18:f4:dc:c4:c8:b6:96:17:
                    39:6a:89:bc:d8:38:b5:f6:79:89:05:90:c7:17:a2:
                    37:dd:bf:a4:50:3e:98:85:4d:f7:09:d0:81:8c:52:
                    ed:ec:1e:e2:ac:3b:0f:ed:00:58:22:5a:40:57:71:
                    ef:4d:72:55:32:48:0d:58:b6:c9:6d:8d:d5:55:e7:
                    f1:02:56:02:ed:c3:e8:36:55:ac:76:5a:cf:ee:29:
                    e7:72:80:c3:3f:88:08:c6:1a:e6:c1:d0:3c:54:4d:
                    a5:d0:af:db:fd:b1:fb:64:cf:6b:0f:f3:dd:1f:36:
                    9a:73:af:48:db:0c:02:5b:58:04:83:17:bb:53:b6:
                    29:50:b0:01:8a:27:2c:60:2e:d3:d2:c1:ab:46:76:
                    05:6e:19:29:15:5d:dd:ce:b2:f4:94:4a:74:d1:3f:
                    9e:0e:8f:b2:25:f9:03:af:81:f1:b8:e3:e9:03:8d:
                    2a:8f:14:dd:98:bf:f7:51:d2:d8:c4:63:65:7c:99:
                    84:f7:e0:c8:82:0a:41:94:95:7f:55:7b:8c:f2:0a:
                    b5:69:c1:40:69:dc:2c:eb:01:6e:45:5d:c8:c1:92:
                    4e:50:bf:a5:dc:03:8f:7b:14:4b:9a:0c:2b:18:13:
                    f5:8d:a4:e9:8b:c3:7c:2a:db:ba:73:1e:a6:6e:27:
                    14:a2:c7
                Exponent: 65537 (0x10001)
        X509v3 extensions:
            X509v3 Basic Constraints: 
                CA:FALSE
            Netscape Comment: 
                Easy-RSA Generated Certificate
            X509v3 Subject Key Identifier: 
                61:1C:E5:98:99:92:17:26:9B:A3:E3:C6:DA:E8:7C:AE:FF:BA:4F:E4
            X509v3 Authority Key Identifier: 
                keyid:12:CD:60:04:D2:A0:80:9E:70:ED:C6:99:B8:7B:2C:C6:52:FD:19:A1
                DirName:/C=US/ST=OH/L=Columbus/O=VikingVPN/OU=MyOrganizationalUnit/CN=VikingVPN CA/name=EasyRSA/emailAddress=me@myhost.mydomain
                serial:CF:35:85:EE:80:BF:2A:3E

            X509v3 Extended Key Usage: 
                TLS Web Client Authentication
            X509v3 Key Usage: 
                Digital Signature
    Signature Algorithm: sha256WithRSAEncryption
         79:ba:2a:ab:34:fa:f6:7e:cf:8f:b4:bd:88:7c:51:69:27:a5:
         e0:7f:51:b3:84:3b:5d:4b:83:87:3a:b5:55:13:35:83:01:0f:
         16:ae:ff:67:18:9b:3d:ac:6f:3b:be:5b:54:bd:96:b0:83:bb:
         7c:2a:83:0f:d2:4f:ee:09:0b:fb:87:d7:78:5e:c7:25:ab:cf:
         49:d5:8c:9a:58:dc:64:79:61:e1:64:73:59:26:4c:c4:7e:54:
         98:d6:b4:42:a2:ac:7c:f4:c1:e3:8d:c8:4c:a1:56:f1:34:37:
         87:fd:b8:f7:a3:a2:3f:7d:14:14:e6:bd:97:48:c8:c0:d1:4c:
         e9:a5:cc:8e:5f:67:64:af:d3:81:c7:71:74:7b:34:4d:ef:c5:
         63:d0:76:e4:4f:c6:87:41:e3:ca:2a:6b:e1:d9:a0:a7:6c:be:
         8d:7b:2a:f2:60:c7:84:3b:ff:d7:ca:9d:f7:b7:f2:95:a8:00:
         d2:af:95:82:1e:a9:bb:e2:de:a6:b9:c6:e7:03:10:74:52:ab:
         3d:d7:72:63:bf:62:9a:26:6b:7b:a4:90:ef:a9:ba:12:e2:49:
         55:67:9c:bb:4b:15:25:ff:13:ce:d3:e4:85:3f:32:17:ab:b8:
         d1:da:a8:50:39:2d:0e:77:15:0b:93:f4:91:39:a8:3b:89:e5:
         3d:62:94:a8:f2:36:dc:01:5d:65:bc:6f:26:ff:86:a2:25:9c:
         d0:63:08:2f:82:2a:6c:d0:9e:94:a8:1b:58:54:a8:a5:e4:fd:
         dd:10:4e:46:cf:7f:0f:df:4e:62:0d:8a:36:f1:c8:b1:95:eb:
         95:4b:3d:f8:81:f7:bd:87:4c:dd:fa:1e:8d:83:89:5e:bb:bd:
         de:bc:53:a6:78:47:84:df:86:f9:66:cc:c6:8b:34:86:93:d1:
         80:9e:0f:d1:bb:18:6f:94:b9:b0:70:30:3e:33:ea:42:31:a0:
         a9:46:cd:f2:41:1d:20:a3:7c:05:e9:20:f1:31:dd:dc:7b:18:
         6a:18:18:6e:cb:5d:39:a9:b3:fe:6c:06:a1:31:49:10:d6:47:
         07:8a:d9:22:84:14:7f:16:78:34:29:74:7e:81:7d:a4:a8:1a:
         c3:9e:e1:a3:97:e0:cf:0a:c2:94:cd:62:36:d1:00:7f:ce:a9:
         d6:de:14:6b:c8:ab:c5:f3:31:8e:d1:d2:5d:7c:3c:a8:21:b0:
         c7:e7:f7:60:05:2f:4b:96:f0:69:c3:60:0b:f0:9f:b4:56:6e:
         aa:57:31:6f:16:f2:5b:7a:66:b4:7f:62:41:e4:0e:83:63:f0:
         2c:27:bf:48:20:cf:6a:95:20:df:22:fc:72:1e:c2:87:9c:e3:
         ec:2c:20:0e:46:aa:1b:e2
-----BEGIN CERTIFICATE-----
MIIGrTCCBJWgAwIBAgICJj8wDQYJKoZIhvcNAQELBQAwgawxCzAJBgNVBAYTAlVT
MQswCQYDVQQIEwJPSDERMA8GA1UEBxMIQ29sdW1idXMxEjAQBgNVBAoTCVZpa2lu
Z1ZQTjEdMBsGA1UECxMUTXlPcmdhbml6YXRpb25hbFVuaXQxFTATBgNVBAMTDFZp
a2luZ1ZQTiBDQTEQMA4GA1UEKRMHRWFzeVJTQTEhMB8GCSqGSIb3DQEJARYSbWVA
bXlob3N0Lm15ZG9tYWluMB4XDTE3MDEwMTE4MDM0MFoXDTI2MTIzMDE4MDM0MFow
HzEdMBsGA1UEAxMUQ2xpZW50MjU1OENlcnQxMTA4MTEwggIiMA0GCSqGSIb3DQEB
AQUAA4ICDwAwggIKAoICAQC8ty7x7i8/dDmtabXNrSvqRv1wzK1/psxSVNWL42in
AdKleEU4g065Z8+O0LPTCpsXLYCMwZ4q3Xbli/oYnGrugpX1BEvh5QhqNzBuM3ze
gluHmTALKXkgRspiSBVje19rLu8N5UfgdCjgJ5O1dYRir/4SCRGA26hwJVcmUdBF
4+RS1nuHZthr2MYDVf4I3W9Amz/oAat2sY5aM6zrFM77LTUBTuF/DQh/Jm1O/eY6
vtTa8sATEwnoSXB4GSTBW8gjnkGI86ltvQ65T/4DEL69g5wuaZ6BOa7kWXMNI+Z/
yi1K/VAgOYgDvoL0FaBTYzwLYCNz8ld5CC9vr5ar39doPezJoQEY9NzEyLaWFzlq
ibzYOLX2eYkFkMcXojfdv6RQPpiFTfcJ0IGMUu3sHuKsOw/tAFgiWkBXce9NclUy
SA1YtsltjdVV5/ECVgLtw+g2Vax2Ws/uKedygMM/iAjGGubB0DxUTaXQr9v9sftk
z2sP890fNppzr0jbDAJbWASDF7tTtilQsAGKJyxgLtPSwatGdgVuGSkVXd3OsvSU
SnTRP54Oj7Il+QOvgfG44+kDjSqPFN2Yv/dR0tjEY2V8mYT34MiCCkGUlX9Ve4zy
CrVpwUBp3CzrAW5FXcjBkk5Qv6XcA497FEuaDCsYE/WNpOmLw3wq27pzHqZuJxSi
xwIDAQABo4IBYzCCAV8wCQYDVR0TBAIwADAtBglghkgBhvhCAQ0EIBYeRWFzeS1S
U0EgR2VuZXJhdGVkIENlcnRpZmljYXRlMB0GA1UdDgQWBBRhHOWYmZIXJpuj48ba
6Hyu/7pP5DCB4QYDVR0jBIHZMIHWgBQSzWAE0qCAnnDtxpm4eyzGUv0ZoaGBsqSB
rzCBrDELMAkGA1UEBhMCVVMxCzAJBgNVBAgTAk9IMREwDwYDVQQHEwhDb2x1bWJ1
czESMBAGA1UEChMJVmlraW5nVlBOMR0wGwYDVQQLExRNeU9yZ2FuaXphdGlvbmFs
VW5pdDEVMBMGA1UEAxMMVmlraW5nVlBOIENBMRAwDgYDVQQpEwdFYXN5UlNBMSEw
HwYJKoZIhvcNAQkBFhJtZUBteWhvc3QubXlkb21haW6CCQDPNYXugL8qPjATBgNV
HSUEDDAKBggrBgEFBQcDAjALBgNVHQ8EBAMCB4AwDQYJKoZIhvcNAQELBQADggIB
AHm6Kqs0+vZ+z4+0vYh8UWknpeB/UbOEO11Lg4c6tVUTNYMBDxau/2cYmz2sbzu+
W1S9lrCDu3wqgw/ST+4JC/uH13hexyWrz0nVjJpY3GR5YeFkc1kmTMR+VJjWtEKi
rHz0weONyEyhVvE0N4f9uPejoj99FBTmvZdIyMDRTOmlzI5fZ2Sv04HHcXR7NE3v
xWPQduRPxodB48oqa+HZoKdsvo17KvJgx4Q7/9fKnfe38pWoANKvlYIeqbvi3qa5
xucDEHRSqz3XcmO/Ypoma3ukkO+puhLiSVVnnLtLFSX/E87T5IU/MheruNHaqFA5
LQ53FQuT9JE5qDuJ5T1ilKjyNtwBXWW8byb/hqIlnNBjCC+CKmzQnpSoG1hUqKXk
/d0QTkbPfw/fTmINijbxyLGV65VLPfiB972HTN36Ho2DiV67vd68U6Z4R4Tfhvlm
zMaLNIaT0YCeD9G7GG+UubBwMD4z6kIxoKlGzfJBHSCjfAXpIPEx3dx7GGoYGG7L
XTmps/5sBqExSRDWRweK2SKEFH8WeDQpdH6BfaSoGsOe4aOX4M8KwpTNYjbRAH/O
qdbeFGvIq8XzMY7R0l18PKghsMfn92AFL0uW8GnDYAvwn7RWbqpXMW8W8lt6ZrR/
YkHkDoNj8Cwnv0ggz2qVIN8i/HIewoec4+wsIA5Gqhvi
-----END CERTIFICATE-----
