Certificate:
    Data:
        Version: 3 (0x2)
        Serial Number: 9819 (0x265b)
    Signature Algorithm: sha256WithRSAEncryption
        Issuer: C=US, ST=OH, L=Columbus, O=VikingVPN, OU=MyOrganizationalUnit, CN=VikingVPN CA/name=EasyRSA/emailAddress=me@myhost.mydomain
        Validity
            Not Before: Jan  6 06:55:42 2017 GMT
            Not After : Jan  4 06:55:42 2027 GMT
        Subject: CN=Client1285Cert96cd6b
        Subject Public Key Info:
            Public Key Algorithm: rsaEncryption
                Public-Key: (4096 bit)
                Modulus:
                    00:cb:3e:e4:9c:fd:2e:45:f2:bd:a7:1c:5a:09:d0:
                    da:22:93:5e:e0:b1:b7:5c:8b:db:e1:81:6d:71:a2:
                    a6:21:43:43:88:14:a1:71:66:7c:fc:e2:37:ee:48:
                    e4:00:9b:b0:99:31:46:6a:ad:1c:9a:bd:04:f7:80:
                    68:5f:1e:ae:5b:44:ec:5e:00:1b:4c:d5:05:30:09:
                    9a:f6:52:4d:e3:59:90:96:33:75:a6:39:1f:6e:1e:
                    7f:4f:6d:43:2d:6c:6a:34:9c:62:1a:01:70:5e:0d:
                    5a:a1:43:ca:09:44:5a:6d:83:fc:f8:61:40:04:2f:
                    ef:25:f7:af:90:e4:de:47:2b:2f:86:1b:2d:3a:22:
                    89:ea:44:ae:61:1a:b9:c4:5e:be:34:ec:6a:42:ba:
                    8b:8e:85:44:b1:66:9c:98:f0:21:94:b0:fc:6b:a2:
                    88:f6:32:4c:fb:9b:14:88:a6:3c:6b:ab:63:e8:30:
                    ee:56:9d:9a:8b:d7:fd:17:9f:be:0f:8c:43:cc:24:
                    63:37:e4:57:2e:73:2d:d0:63:b0:a3:a0:bb:c9:d4:
                    54:49:fe:e7:d2:75:ae:ca:fc:d7:50:36:23:bc:97:
                    f1:08:47:fa:7d:55:48:46:a5:7c:aa:38:fa:2d:6a:
                    0c:f4:57:e1:eb:2e:cf:c4:4f:e9:9a:ca:36:a0:89:
                    70:e2:96:e6:0d:8c:7e:7e:84:31:4e:7a:c3:59:5e:
                    37:9d:fa:a7:c3:d4:0b:4d:9d:ef:c4:02:11:87:16:
                    95:8c:b8:20:8e:f2:33:d1:9c:9b:26:c2:6b:12:9e:
                    6a:ec:5e:49:87:14:c0:ba:e8:11:e3:f8:03:6c:64:
                    74:1b:8d:44:51:8f:8c:61:fc:e2:8d:4b:53:29:04:
                    0a:3b:cb:2e:3d:10:93:cb:b7:15:f6:1e:de:27:4b:
                    cc:10:07:81:c8:38:dc:e8:ad:cc:b8:b4:4e:be:9d:
                    d5:44:52:9b:e5:cf:43:e5:5e:99:24:5e:cf:30:59:
                    17:90:63:f1:f5:03:a8:d0:8c:ee:71:c3:75:ea:24:
                    3f:3f:53:8c:fd:9a:f6:a8:c4:50:19:7c:c3:47:f1:
                    45:59:85:d8:5a:b6:06:8e:a9:eb:28:ca:d6:4e:7e:
                    8b:bd:0b:50:8f:4f:c2:d3:35:01:0e:25:3d:b7:32:
                    3e:00:ff:9d:51:93:8c:3c:48:66:39:9e:fd:c0:75:
                    4e:00:36:57:af:33:6c:fa:85:45:c2:45:5d:b0:68:
                    f6:41:0b:5e:9f:18:66:28:89:c9:62:80:af:2a:d6:
                    8e:2a:bb:0c:01:0c:f2:be:d0:8c:77:a6:8c:6b:d3:
                    82:d6:0e:c7:2b:c4:47:b9:be:2e:40:9c:ab:03:fc:
                    d5:42:97
                Exponent: 65537 (0x10001)
        X509v3 extensions:
            X509v3 Basic Constraints: 
                CA:FALSE
            Netscape Comment: 
                Easy-RSA Generated Certificate
            X509v3 Subject Key Identifier: 
                87:40:3D:8F:4B:5D:8B:2A:22:42:59:3B:1A:65:2B:D8:86:7E:38:C0
            X509v3 Authority Key Identifier: 
                keyid:12:CD:60:04:D2:A0:80:9E:70:ED:C6:99:B8:7B:2C:C6:52:FD:19:A1
                DirName:/C=US/ST=OH/L=Columbus/O=VikingVPN/OU=MyOrganizationalUnit/CN=VikingVPN CA/name=EasyRSA/emailAddress=me@myhost.mydomain
                serial:CF:35:85:EE:80:BF:2A:3E

            X509v3 Extended Key Usage: 
                TLS Web Client Authentication
            X509v3 Key Usage: 
                Digital Signature
    Signature Algorithm: sha256WithRSAEncryption
         4c:29:7c:75:4e:44:0e:b7:8c:34:a0:b4:20:9c:2e:1c:38:d3:
         d8:44:f4:e8:68:f3:4b:71:76:31:b1:83:fa:94:6f:56:61:31:
         f4:d5:73:8b:cc:93:1a:f0:40:fa:c4:ac:f1:ae:c2:37:0c:a6:
         44:14:ae:47:87:e6:01:48:85:a0:6f:b6:59:8d:63:eb:97:4c:
         33:66:f0:80:ae:61:94:0f:de:16:3b:ca:53:df:91:3d:08:3d:
         fa:47:a5:8a:95:97:c7:aa:0b:db:ef:95:e9:4c:9b:be:6d:79:
         c8:c0:2c:f2:9f:f3:a0:3a:91:d8:a4:b6:fa:3b:0b:78:b1:9d:
         06:b5:89:8a:d1:44:49:e6:ef:d1:86:b9:ae:0a:56:6f:1e:c1:
         c5:54:03:39:17:ea:b9:0c:0a:66:0d:a4:c6:7e:ba:e1:e4:86:
         ee:a1:bb:22:d8:35:09:97:da:64:aa:c6:ae:43:09:58:2f:c9:
         5a:fd:b7:60:d8:bc:fc:5f:38:8b:54:d8:b5:5c:e1:fc:f0:d7:
         5f:f3:bb:b0:a0:78:b2:84:6b:0d:a7:3e:e9:91:01:17:02:60:
         1c:53:f9:39:37:90:7e:c9:3a:5d:d7:d7:3c:fc:a6:cb:dc:1f:
         98:18:b0:98:6a:d7:85:c3:84:fa:59:73:6c:7c:8e:e6:f1:08:
         f3:c7:47:4e:3d:4f:fa:93:b1:01:65:ce:10:42:3a:ff:4d:97:
         b9:2b:41:43:9f:a4:c3:e3:af:f8:13:d4:22:4f:a8:48:1d:b5:
         92:eb:8a:53:ed:eb:e8:21:43:78:e7:e0:92:10:a8:d8:58:c0:
         96:df:09:57:3e:6b:4b:5f:32:d6:4d:ac:cf:8a:a9:78:2f:90:
         da:27:37:20:41:3f:be:fb:f6:7d:ad:a7:f8:86:92:64:ef:16:
         e0:80:8e:64:5d:c0:d6:6d:68:d3:63:1b:82:c6:56:de:0b:10:
         86:9d:00:55:ab:a8:fc:5d:62:ef:81:23:96:89:55:a5:36:38:
         fb:03:89:f4:20:0e:72:73:d7:b5:08:d9:b7:32:71:4b:ab:b8:
         62:9b:cb:54:14:ff:96:3f:65:19:85:75:a6:12:45:e4:80:e3:
         4f:f6:dc:45:3d:03:0f:cf:a6:35:12:3c:94:29:f0:d1:e6:65:
         40:63:23:f7:35:0d:29:9e:d2:0c:39:14:8e:51:82:ff:57:ff:
         b9:be:65:e8:21:8a:d6:9b:65:1a:e3:6f:38:a1:db:4c:a7:80:
         9d:f5:40:ab:f7:33:62:55:cf:71:38:d8:45:4e:29:c2:31:46:
         29:c7:56:2a:98:ad:0a:d7:05:6d:8e:f6:04:c6:45:07:f4:3a:
         9e:9e:20:4d:ca:bf:2e:a9
-----BEGIN CERTIFICATE-----
MIIGrTCCBJWgAwIBAgICJlswDQYJKoZIhvcNAQELBQAwgawxCzAJBgNVBAYTAlVT
MQswCQYDVQQIEwJPSDERMA8GA1UEBxMIQ29sdW1idXMxEjAQBgNVBAoTCVZpa2lu
Z1ZQTjEdMBsGA1UECxMUTXlPcmdhbml6YXRpb25hbFVuaXQxFTATBgNVBAMTDFZp
a2luZ1ZQTiBDQTEQMA4GA1UEKRMHRWFzeVJTQTEhMB8GCSqGSIb3DQEJARYSbWVA
bXlob3N0Lm15ZG9tYWluMB4XDTE3MDEwNjA2NTU0MloXDTI3MDEwNDA2NTU0Mlow
HzEdMBsGA1UEAxMUQ2xpZW50MTI4NUNlcnQ5NmNkNmIwggIiMA0GCSqGSIb3DQEB
AQUAA4ICDwAwggIKAoICAQDLPuSc/S5F8r2nHFoJ0Noik17gsbdci9vhgW1xoqYh
Q0OIFKFxZnz84jfuSOQAm7CZMUZqrRyavQT3gGhfHq5bROxeABtM1QUwCZr2Uk3j
WZCWM3WmOR9uHn9PbUMtbGo0nGIaAXBeDVqhQ8oJRFptg/z4YUAEL+8l96+Q5N5H
Ky+GGy06IonqRK5hGrnEXr407GpCuouOhUSxZpyY8CGUsPxrooj2Mkz7mxSIpjxr
q2PoMO5WnZqL1/0Xn74PjEPMJGM35Fcucy3QY7CjoLvJ1FRJ/ufSda7K/NdQNiO8
l/EIR/p9VUhGpXyqOPotagz0V+HrLs/ET+mayjagiXDiluYNjH5+hDFOesNZXjed
+qfD1AtNne/EAhGHFpWMuCCO8jPRnJsmwmsSnmrsXkmHFMC66BHj+ANsZHQbjURR
j4xh/OKNS1MpBAo7yy49EJPLtxX2Ht4nS8wQB4HIONzorcy4tE6+ndVEUpvlz0Pl
XpkkXs8wWReQY/H1A6jQjO5xw3XqJD8/U4z9mvaoxFAZfMNH8UVZhdhatgaOqeso
ytZOfou9C1CPT8LTNQEOJT23Mj4A/51Rk4w8SGY5nv3AdU4ANlevM2z6hUXCRV2w
aPZBC16fGGYoicligK8q1o4quwwBDPK+0Ix3poxr04LWDscrxEe5vi5AnKsD/NVC
lwIDAQABo4IBYzCCAV8wCQYDVR0TBAIwADAtBglghkgBhvhCAQ0EIBYeRWFzeS1S
U0EgR2VuZXJhdGVkIENlcnRpZmljYXRlMB0GA1UdDgQWBBSHQD2PS12LKiJCWTsa
ZSvYhn44wDCB4QYDVR0jBIHZMIHWgBQSzWAE0qCAnnDtxpm4eyzGUv0ZoaGBsqSB
rzCBrDELMAkGA1UEBhMCVVMxCzAJBgNVBAgTAk9IMREwDwYDVQQHEwhDb2x1bWJ1
czESMBAGA1UEChMJVmlraW5nVlBOMR0wGwYDVQQLExRNeU9yZ2FuaXphdGlvbmFs
VW5pdDEVMBMGA1UEAxMMVmlraW5nVlBOIENBMRAwDgYDVQQpEwdFYXN5UlNBMSEw
HwYJKoZIhvcNAQkBFhJtZUBteWhvc3QubXlkb21haW6CCQDPNYXugL8qPjATBgNV
HSUEDDAKBggrBgEFBQcDAjALBgNVHQ8EBAMCB4AwDQYJKoZIhvcNAQELBQADggIB
AEwpfHVORA63jDSgtCCcLhw409hE9Oho80txdjGxg/qUb1ZhMfTVc4vMkxrwQPrE
rPGuwjcMpkQUrkeH5gFIhaBvtlmNY+uXTDNm8ICuYZQP3hY7ylPfkT0IPfpHpYqV
l8eqC9vvlelMm75tecjALPKf86A6kdiktvo7C3ixnQa1iYrRREnm79GGua4KVm8e
wcVUAzkX6rkMCmYNpMZ+uuHkhu6huyLYNQmX2mSqxq5DCVgvyVr9t2DYvPxfOItU
2LVc4fzw11/zu7CgeLKEaw2nPumRARcCYBxT+Tk3kH7JOl3X1zz8psvcH5gYsJhq
14XDhPpZc2x8jubxCPPHR049T/qTsQFlzhBCOv9Nl7krQUOfpMPjr/gT1CJPqEgd
tZLrilPt6+ghQ3jn4JIQqNhYwJbfCVc+a0tfMtZNrM+KqXgvkNonNyBBP7779n2t
p/iGkmTvFuCAjmRdwNZtaNNjG4LGVt4LEIadAFWrqPxdYu+BI5aJVaU2OPsDifQg
DnJz17UI2bcycUuruGKby1QU/5Y/ZRmFdaYSReSA40/23EU9Aw/PpjUSPJQp8NHm
ZUBjI/c1DSme0gw5FI5Rgv9X/7m+ZeghitabZRrjbzih20yngJ31QKv3M2JVz3E4
2EVOKcIxRinHViqYrQrXBW2O9gTGRQf0Op6eIE3Kvy6p
-----END CERTIFICATE-----
