Certificate:
    Data:
        Version: 3 (0x2)
        Serial Number: 9821 (0x265d)
    Signature Algorithm: sha256WithRSAEncryption
        Issuer: C=US, ST=OH, L=Columbus, O=VikingVPN, OU=MyOrganizationalUnit, CN=VikingVPN CA/name=EasyRSA/emailAddress=me@myhost.mydomain
        Validity
            Not Before: Jan  6 07:12:54 2017 GMT
            Not After : Jan  4 07:12:54 2027 GMT
        Subject: CN=Client2073Certf34e61
        Subject Public Key Info:
            Public Key Algorithm: rsaEncryption
                Public-Key: (4096 bit)
                Modulus:
                    00:c5:4c:e7:9f:d7:c0:13:e2:b5:7f:c4:54:73:1b:
                    21:80:48:ba:b8:ba:92:2b:af:df:54:96:9f:94:58:
                    80:bc:68:eb:e4:43:91:1b:bf:04:12:2e:14:75:c2:
                    6a:f9:4c:0f:10:d9:dc:76:c6:17:4d:e9:9b:f1:f1:
                    f7:90:52:07:db:52:75:95:5a:4a:76:98:6e:eb:ac:
                    9c:e8:db:a9:5c:ff:0d:ae:2f:e8:25:dd:62:68:5e:
                    51:b9:fd:ac:ac:86:5c:1c:d7:1d:9c:09:8c:d5:fe:
                    90:77:1e:9e:4c:d2:7b:d8:e4:d5:11:ea:9f:87:57:
                    7b:fc:ef:d0:06:42:6d:09:6a:d3:53:35:41:f5:cd:
                    41:7f:e0:37:17:6d:fe:a3:7e:9a:b8:4b:d2:fb:9c:
                    c9:64:cf:cf:31:6e:2d:5a:c9:60:56:b4:b1:35:e4:
                    84:48:63:3f:29:85:b8:a9:c7:aa:a5:d4:a8:c7:82:
                    a6:10:8f:15:6b:96:ab:26:90:2d:f5:95:04:3b:97:
                    89:e7:c2:29:e8:ea:fe:ce:6f:02:ae:d1:0c:15:e8:
                    22:cf:41:0e:8d:c3:f2:65:2d:9c:06:0b:1b:e3:83:
                    d9:83:63:0e:6d:92:7a:ed:2e:45:de:24:06:51:92:
                    ce:a4:ff:33:a7:9a:ba:0c:a3:19:15:d5:dc:97:fe:
                    2b:b2:2f:70:24:c1:1d:62:a8:ad:5a:52:4c:48:a7:
                    ad:b7:36:63:ba:e7:cf:0b:24:42:cd:bb:ce:e9:db:
                    1e:fe:f9:fc:8b:47:b5:eb:8a:32:d4:eb:47:6c:34:
                    5f:f2:28:93:36:db:01:18:13:d8:d4:53:2f:72:86:
                    f9:48:5e:bf:61:e0:5a:1e:af:de:42:62:af:10:aa:
                    e3:4e:9d:cd:ba:62:3f:14:97:f7:0f:a1:f9:0c:13:
                    71:a1:8c:8e:fa:fe:5f:05:90:13:0e:c9:a8:bf:91:
                    03:d0:f4:79:b2:7f:3a:04:b8:24:f9:d8:af:c9:46:
                    e7:f0:9f:22:c0:e2:20:cf:b3:6d:aa:6e:0e:8c:b4:
                    28:8a:cd:5a:41:54:8a:fd:ff:48:59:55:36:da:dc:
                    cc:67:33:cb:32:e7:71:6d:4c:7a:52:1e:ea:8a:f2:
                    07:bb:f8:b8:ec:f0:b6:d0:d9:84:bd:5a:2a:f4:ad:
                    18:89:06:68:3c:01:53:ba:1c:4d:d1:b1:0c:53:1f:
                    4e:80:d7:af:b2:c3:3d:f0:7d:e4:69:e4:81:d9:11:
                    3f:3e:67:31:3e:b0:62:40:20:af:c6:54:1e:f2:7a:
                    33:7f:27:8e:44:c9:e2:11:da:6c:62:46:34:54:0d:
                    36:aa:8b:75:3d:c3:e1:e8:25:a1:c0:7d:58:e6:45:
                    1c:73:0d
                Exponent: 65537 (0x10001)
        X509v3 extensions:
            X509v3 Basic Constraints: 
                CA:FALSE
            Netscape Comment: 
                Easy-RSA Generated Certificate
            X509v3 Subject Key Identifier: 
                7E:25:0C:0D:34:53:9D:DF:DA:5B:B6:BB:19:4E:7C:58:B0:1A:A4:BA
            X509v3 Authority Key Identifier: 
                keyid:12:CD:60:04:D2:A0:80:9E:70:ED:C6:99:B8:7B:2C:C6:52:FD:19:A1
                DirName:/C=US/ST=OH/L=Columbus/O=VikingVPN/OU=MyOrganizationalUnit/CN=VikingVPN CA/name=EasyRSA/emailAddress=me@myhost.mydomain
                serial:CF:35:85:EE:80:BF:2A:3E

            X509v3 Extended Key Usage: 
                TLS Web Client Authentication
            X509v3 Key Usage: 
                Digital Signature
    Signature Algorithm: sha256WithRSAEncryption
         52:f3:9f:88:23:6e:bf:7e:68:6a:c2:31:bb:0c:7b:97:27:f3:
         d9:5d:35:9a:b8:ef:14:78:7f:ef:cb:35:b1:ed:a5:50:ea:34:
         d7:ff:ec:73:d8:0f:f3:34:4d:f3:ac:8b:dd:32:a7:70:0f:6b:
         cd:78:d5:e9:52:9c:0a:3f:2f:ad:8d:30:85:c4:a8:5a:42:9e:
         86:5b:f1:d7:e9:54:42:d0:78:f6:b4:d9:20:13:dc:25:43:ec:
         83:ce:27:b3:ad:43:50:43:39:ca:ec:eb:34:36:c2:8d:ee:84:
         49:46:06:e0:53:3a:71:67:8a:38:7f:46:15:26:f6:33:d3:2f:
         8a:0c:88:72:c3:0d:4c:c2:65:89:88:64:2d:9c:78:ce:9e:e2:
         62:32:6b:d6:e1:b9:2f:26:77:41:28:ff:0e:80:7f:f6:1d:4c:
         06:af:07:e8:e8:f3:ca:95:ab:1d:8c:f1:ed:db:a7:d9:bb:e0:
         0b:5c:4c:63:d7:73:d9:e6:7b:14:40:22:75:75:bd:0b:3d:48:
         aa:bc:fa:85:03:6c:b7:3c:c7:5f:d1:fa:e6:d2:a3:76:a7:f8:
         7b:08:14:67:05:78:fd:63:b5:fd:f5:79:49:07:5a:bb:1f:c9:
         9d:a3:7c:fe:b1:35:85:f2:ad:ce:84:ff:06:00:64:d2:b5:81:
         db:cc:13:ff:94:db:10:8a:f6:60:64:23:e7:f0:89:6b:7e:cf:
         7f:b8:da:4f:9c:5e:b9:41:bf:0d:ff:6c:66:14:04:f9:9f:92:
         7b:28:e2:b9:05:cd:4d:7b:53:96:4a:64:93:48:fe:7a:59:fb:
         09:3c:ed:6b:38:37:9c:aa:d9:77:66:54:dc:49:07:9f:9b:15:
         4a:e2:a9:d3:2a:b6:08:64:1f:e6:96:14:9c:28:6b:53:0c:9b:
         e2:55:4f:ee:0f:cd:a6:b7:55:ee:fc:3f:53:2d:4e:78:30:a4:
         e6:30:64:49:07:c1:67:b3:c3:fe:4b:e7:5a:ae:e9:93:0a:cc:
         5e:cf:0b:bd:07:00:ef:f0:63:37:c7:2c:c8:8e:28:fa:4d:45:
         3d:da:7e:8b:cf:9f:84:ba:89:91:50:f3:fe:cd:8f:af:a8:c5:
         c5:73:d8:b0:73:06:bc:28:e3:ef:b3:d0:1c:cd:8d:2a:ad:84:
         af:c7:3e:98:c1:9a:8e:c2:aa:75:c2:26:ff:f7:d2:d5:9f:77:
         72:c9:92:91:37:97:8c:2f:0e:c5:7c:ee:f9:66:5b:b1:cd:f5:
         d6:5f:d1:aa:3f:e9:0c:51:0d:78:d8:b5:4a:13:73:6f:e8:7b:
         6b:ab:2f:e5:d4:c8:9e:f7:71:92:02:8d:0b:d2:a7:cc:80:01:
         5b:25:32:6b:db:97:49:84
-----BEGIN CERTIFICATE-----
MIIGrTCCBJWgAwIBAgICJl0wDQYJKoZIhvcNAQELBQAwgawxCzAJBgNVBAYTAlVT
MQswCQYDVQQIEwJPSDERMA8GA1UEBxMIQ29sdW1idXMxEjAQBgNVBAoTCVZpa2lu
Z1ZQTjEdMBsGA1UECxMUTXlPcmdhbml6YXRpb25hbFVuaXQxFTATBgNVBAMTDFZp
a2luZ1ZQTiBDQTEQMA4GA1UEKRMHRWFzeVJTQTEhMB8GCSqGSIb3DQEJARYSbWVA
bXlob3N0Lm15ZG9tYWluMB4XDTE3MDEwNjA3MTI1NFoXDTI3MDEwNDA3MTI1NFow
HzEdMBsGA1UEAxMUQ2xpZW50MjA3M0NlcnRmMzRlNjEwggIiMA0GCSqGSIb3DQEB
AQUAA4ICDwAwggIKAoICAQDFTOef18AT4rV/xFRzGyGASLq4upIrr99Ulp+UWIC8
aOvkQ5EbvwQSLhR1wmr5TA8Q2dx2xhdN6Zvx8feQUgfbUnWVWkp2mG7rrJzo26lc
/w2uL+gl3WJoXlG5/ayshlwc1x2cCYzV/pB3Hp5M0nvY5NUR6p+HV3v879AGQm0J
atNTNUH1zUF/4DcXbf6jfpq4S9L7nMlkz88xbi1ayWBWtLE15IRIYz8phbipx6ql
1KjHgqYQjxVrlqsmkC31lQQ7l4nnwino6v7ObwKu0QwV6CLPQQ6Nw/JlLZwGCxvj
g9mDYw5tknrtLkXeJAZRks6k/zOnmroMoxkV1dyX/iuyL3AkwR1iqK1aUkxIp623
NmO6588LJELNu87p2x7++fyLR7XrijLU60dsNF/yKJM22wEYE9jUUy9yhvlIXr9h
4Foer95CYq8QquNOnc26Yj8Ul/cPofkME3GhjI76/l8FkBMOyai/kQPQ9HmyfzoE
uCT52K/JRufwnyLA4iDPs22qbg6MtCiKzVpBVIr9/0hZVTba3MxnM8sy53FtTHpS
HuqK8ge7+Ljs8LbQ2YS9Wir0rRiJBmg8AVO6HE3RsQxTH06A16+ywz3wfeRp5IHZ
ET8+ZzE+sGJAIK/GVB7yejN/J45EyeIR2mxiRjRUDTaqi3U9w+HoJaHAfVjmRRxz
DQIDAQABo4IBYzCCAV8wCQYDVR0TBAIwADAtBglghkgBhvhCAQ0EIBYeRWFzeS1S
U0EgR2VuZXJhdGVkIENlcnRpZmljYXRlMB0GA1UdDgQWBBR+JQwNNFOd39pbtrsZ
TnxYsBqkujCB4QYDVR0jBIHZMIHWgBQSzWAE0qCAnnDtxpm4eyzGUv0ZoaGBsqSB
rzCBrDELMAkGA1UEBhMCVVMxCzAJBgNVBAgTAk9IMREwDwYDVQQHEwhDb2x1bWJ1
czESMBAGA1UEChMJVmlraW5nVlBOMR0wGwYDVQQLExRNeU9yZ2FuaXphdGlvbmFs
VW5pdDEVMBMGA1UEAxMMVmlraW5nVlBOIENBMRAwDgYDVQQpEwdFYXN5UlNBMSEw
HwYJKoZIhvcNAQkBFhJtZUBteWhvc3QubXlkb21haW6CCQDPNYXugL8qPjATBgNV
HSUEDDAKBggrBgEFBQcDAjALBgNVHQ8EBAMCB4AwDQYJKoZIhvcNAQELBQADggIB
AFLzn4gjbr9+aGrCMbsMe5cn89ldNZq47xR4f+/LNbHtpVDqNNf/7HPYD/M0TfOs
i90yp3APa8141elSnAo/L62NMIXEqFpCnoZb8dfpVELQePa02SAT3CVD7IPOJ7Ot
Q1BDOcrs6zQ2wo3uhElGBuBTOnFnijh/RhUm9jPTL4oMiHLDDUzCZYmIZC2ceM6e
4mIya9bhuS8md0Eo/w6Af/YdTAavB+jo88qVqx2M8e3bp9m74AtcTGPXc9nmexRA
InV1vQs9SKq8+oUDbLc8x1/R+ubSo3an+HsIFGcFeP1jtf31eUkHWrsfyZ2jfP6x
NYXyrc6E/wYAZNK1gdvME/+U2xCK9mBkI+fwiWt+z3+42k+cXrlBvw3/bGYUBPmf
knso4rkFzU17U5ZKZJNI/npZ+wk87Ws4N5yq2XdmVNxJB5+bFUriqdMqtghkH+aW
FJwoa1MMm+JVT+4Pzaa3Ve78P1MtTngwpOYwZEkHwWezw/5L51qu6ZMKzF7PC70H
AO/wYzfHLMiOKPpNRT3afovPn4S6iZFQ8/7Nj6+oxcVz2LBzBrwo4++z0BzNjSqt
hK/HPpjBmo7CqnXCJv/30tWfd3LJkpE3l4wvDsV87vlmW7HN9dZf0ao/6QxRDXjY
tUoTc2/oe2urL+XUyJ73cZICjQvSp8yAAVslMmvbl0mE
-----END CERTIFICATE-----
