Certificate:
    Data:
        Version: 3 (0x2)
        Serial Number: 9830 (0x2666)
    Signature Algorithm: sha256WithRSAEncryption
        Issuer: C=US, ST=OH, L=Columbus, O=VikingVPN, OU=MyOrganizationalUnit, CN=VikingVPN CA/name=EasyRSA/emailAddress=me@myhost.mydomain
        Validity
            Not Before: Jan  8 00:33:34 2017 GMT
            Not After : Jan  6 00:33:34 2027 GMT
        Subject: CN=Client2570Cert20fa9a
        Subject Public Key Info:
            Public Key Algorithm: rsaEncryption
                Public-Key: (4096 bit)
                Modulus:
                    00:d3:05:3a:1c:e0:7c:7c:ab:41:96:16:e8:c0:78:
                    61:aa:25:69:af:03:03:c5:62:fc:d4:31:ad:44:60:
                    2a:e7:1e:81:19:09:24:eb:5d:dd:77:ed:bc:76:0d:
                    da:4a:85:d9:9f:75:90:86:1e:73:d0:f8:1a:db:7d:
                    ad:1d:7a:07:1a:3b:19:64:63:ad:17:47:86:b6:b3:
                    33:54:1d:51:cc:c4:81:21:24:da:b6:d9:0b:77:49:
                    16:47:75:6c:d2:32:a6:ac:89:56:83:14:ef:8d:2d:
                    0f:63:bc:90:b9:18:da:61:f3:e0:f4:5d:cf:e4:71:
                    8b:f1:07:68:30:54:e1:07:3b:4f:9d:80:40:bc:ff:
                    b6:01:dc:12:53:95:4f:64:57:de:d5:d4:00:06:8d:
                    f3:f1:e8:2a:ae:5d:3f:11:a4:b4:d1:ff:8b:bd:99:
                    95:3e:dd:a4:ca:d5:ef:1f:03:09:98:6f:05:bf:f9:
                    02:38:9c:dd:18:0f:41:0b:df:46:a8:26:97:af:e2:
                    ec:c2:93:41:fb:68:12:60:ba:be:b3:1f:5c:5c:b5:
                    2d:27:ab:1a:29:92:4e:5a:ad:44:a7:58:d6:62:d0:
                    26:31:6b:a1:db:4d:e0:07:8f:38:f4:9c:a2:d5:05:
                    3c:9f:ee:15:bb:9d:08:60:92:6c:5d:80:56:35:d1:
                    16:bf:b0:4e:33:1b:5b:17:1c:fe:e2:d5:34:dc:28:
                    41:ad:d4:47:f3:32:c8:3a:5b:0a:69:fc:1a:42:27:
                    c5:8e:c4:e4:08:88:8c:fd:24:76:4e:95:07:2c:0a:
                    fb:09:70:61:f4:fb:6b:81:c9:25:2e:18:35:10:f1:
                    d5:be:aa:95:10:d6:b6:72:3e:97:e5:6c:55:15:3f:
                    57:85:90:58:22:db:66:10:41:ac:4c:ad:c4:84:fc:
                    db:24:6c:4d:d6:99:02:66:e8:07:2e:16:f4:90:45:
                    0f:1c:ae:42:08:c6:94:37:6e:b8:e4:66:8d:35:e3:
                    0e:08:c1:31:ff:eb:ba:79:45:91:68:44:15:7c:c0:
                    45:73:8e:70:ef:a9:13:c6:c8:d8:60:49:b1:82:1a:
                    fa:be:67:00:b8:25:97:79:ff:b8:31:ce:88:ff:98:
                    42:f9:db:a8:a0:ca:f0:2d:d8:3b:48:c0:08:7a:ba:
                    40:3c:38:a2:99:c4:d9:77:c1:62:dd:7d:a3:15:ff:
                    53:4e:ba:f4:db:e7:bc:38:51:03:2d:5d:bd:94:da:
                    7e:9a:33:28:2f:05:f2:d7:61:5e:22:b1:34:d7:7b:
                    ac:b6:96:fb:c8:d2:cd:b5:e8:f0:3a:fb:f1:b5:80:
                    c2:67:6f:05:8e:ab:9a:d8:ee:4d:75:a7:77:2c:c4:
                    ec:bd:e9
                Exponent: 65537 (0x10001)
        X509v3 extensions:
            X509v3 Basic Constraints: 
                CA:FALSE
            Netscape Comment: 
                Easy-RSA Generated Certificate
            X509v3 Subject Key Identifier: 
                71:3E:58:53:B7:C4:45:83:59:A7:1E:20:32:2E:7D:C9:60:D4:4A:5E
            X509v3 Authority Key Identifier: 
                keyid:12:CD:60:04:D2:A0:80:9E:70:ED:C6:99:B8:7B:2C:C6:52:FD:19:A1
                DirName:/C=US/ST=OH/L=Columbus/O=VikingVPN/OU=MyOrganizationalUnit/CN=VikingVPN CA/name=EasyRSA/emailAddress=me@myhost.mydomain
                serial:CF:35:85:EE:80:BF:2A:3E

            X509v3 Extended Key Usage: 
                TLS Web Client Authentication
            X509v3 Key Usage: 
                Digital Signature
    Signature Algorithm: sha256WithRSAEncryption
         9e:56:40:af:c1:18:ef:5d:c6:f4:1a:45:9c:52:fc:25:32:0b:
         4e:ad:ef:4a:cc:bb:92:54:88:d8:d0:3d:55:f4:da:e8:51:c7:
         a6:6c:40:85:bf:19:f2:82:51:e6:e4:27:f1:8d:01:d3:a4:45:
         fa:6e:77:db:8e:ab:3b:7d:f7:74:4d:75:86:b5:6d:88:5b:54:
         c2:89:80:d8:08:3c:45:cd:c9:8c:1f:d9:88:43:84:43:67:fd:
         4b:2f:6b:cd:47:44:d4:94:0a:0f:de:d9:85:c3:a0:95:c1:b4:
         7c:e7:43:68:57:76:c1:ef:bd:26:48:7c:3b:4f:e9:0d:85:51:
         cd:19:9d:5f:88:24:3a:c5:15:03:8e:41:90:86:13:e8:4b:4d:
         62:71:dc:d8:fc:c4:9c:ae:51:5e:61:ce:77:fa:47:70:6e:e0:
         7f:8e:f6:22:25:2d:06:70:2c:4c:d3:29:e1:bc:6a:d7:12:cb:
         18:35:d0:22:1a:ee:c0:21:d5:4c:a4:23:fb:3e:dd:6e:6c:57:
         f1:aa:05:e7:50:19:87:2b:06:c4:2d:ec:d8:77:de:88:c1:92:
         c5:a5:23:13:3f:d4:d4:18:d0:27:67:f0:04:df:ef:0e:dd:65:
         49:09:00:90:f0:32:28:a7:54:84:e4:fb:7e:04:74:02:36:30:
         7b:2e:1a:25:3d:4d:a7:d6:ba:0d:06:48:56:50:0f:ff:41:17:
         82:a4:6d:2d:f1:df:38:9e:26:9d:8a:6d:1b:30:70:ab:e0:dd:
         45:80:e8:e8:cb:cb:15:66:2a:03:95:d6:34:f6:df:3c:88:25:
         b4:cc:12:89:67:e2:15:1e:69:19:05:45:7a:20:60:ff:e0:8d:
         24:eb:9a:73:01:47:0d:b4:9f:17:49:c5:37:2d:9b:05:64:53:
         e6:d9:33:96:d0:4f:7c:64:b2:c0:21:0d:2a:f3:b4:e1:2f:da:
         73:32:f8:9a:14:06:d4:30:2d:ea:5e:d4:36:0c:cc:80:9b:f8:
         04:ca:a8:24:06:e9:ae:88:8c:6f:b4:51:a1:2a:73:0d:28:26:
         72:c8:e5:c5:45:c5:c5:3e:b3:2c:0d:7f:21:2a:d4:e2:f1:c7:
         01:aa:48:6a:dd:76:02:9e:ff:ed:17:b4:ee:cc:80:9e:74:5d:
         a6:c4:09:4f:5a:7b:de:99:ab:87:2e:95:22:3b:50:74:8c:33:
         74:bb:84:1a:d1:be:b2:d9:54:0e:c9:71:03:e4:67:4d:eb:d4:
         9f:68:df:a8:f0:69:ae:1e:09:ca:fa:85:a2:84:70:c7:a2:ac:
         39:b6:63:f6:9a:3e:35:0b:fe:55:5e:9a:14:49:a3:f1:71:3a:
         6d:77:e8:ad:2f:1e:bf:8e
-----BEGIN CERTIFICATE-----
MIIGrTCCBJWgAwIBAgICJmYwDQYJKoZIhvcNAQELBQAwgawxCzAJBgNVBAYTAlVT
MQswCQYDVQQIEwJPSDERMA8GA1UEBxMIQ29sdW1idXMxEjAQBgNVBAoTCVZpa2lu
Z1ZQTjEdMBsGA1UECxMUTXlPcmdhbml6YXRpb25hbFVuaXQxFTATBgNVBAMTDFZp
a2luZ1ZQTiBDQTEQMA4GA1UEKRMHRWFzeVJTQTEhMB8GCSqGSIb3DQEJARYSbWVA
bXlob3N0Lm15ZG9tYWluMB4XDTE3MDEwODAwMzMzNFoXDTI3MDEwNjAwMzMzNFow
HzEdMBsGA1UEAxMUQ2xpZW50MjU3MENlcnQyMGZhOWEwggIiMA0GCSqGSIb3DQEB
AQUAA4ICDwAwggIKAoICAQDTBToc4Hx8q0GWFujAeGGqJWmvAwPFYvzUMa1EYCrn
HoEZCSTrXd137bx2DdpKhdmfdZCGHnPQ+Brbfa0degcaOxlkY60XR4a2szNUHVHM
xIEhJNq22Qt3SRZHdWzSMqasiVaDFO+NLQ9jvJC5GNph8+D0Xc/kcYvxB2gwVOEH
O0+dgEC8/7YB3BJTlU9kV97V1AAGjfPx6CquXT8RpLTR/4u9mZU+3aTK1e8fAwmY
bwW/+QI4nN0YD0EL30aoJpev4uzCk0H7aBJgur6zH1xctS0nqxopkk5arUSnWNZi
0CYxa6HbTeAHjzj0nKLVBTyf7hW7nQhgkmxdgFY10Ra/sE4zG1sXHP7i1TTcKEGt
1EfzMsg6Wwpp/BpCJ8WOxOQIiIz9JHZOlQcsCvsJcGH0+2uBySUuGDUQ8dW+qpUQ
1rZyPpflbFUVP1eFkFgi22YQQaxMrcSE/NskbE3WmQJm6AcuFvSQRQ8crkIIxpQ3
brjkZo014w4IwTH/67p5RZFoRBV8wEVzjnDvqRPGyNhgSbGCGvq+ZwC4JZd5/7gx
zoj/mEL526igyvAt2DtIwAh6ukA8OKKZxNl3wWLdfaMV/1NOuvTb57w4UQMtXb2U
2n6aMygvBfLXYV4isTTXe6y2lvvI0s216PA6+/G1gMJnbwWOq5rY7k11p3csxOy9
6QIDAQABo4IBYzCCAV8wCQYDVR0TBAIwADAtBglghkgBhvhCAQ0EIBYeRWFzeS1S
U0EgR2VuZXJhdGVkIENlcnRpZmljYXRlMB0GA1UdDgQWBBRxPlhTt8RFg1mnHiAy
Ln3JYNRKXjCB4QYDVR0jBIHZMIHWgBQSzWAE0qCAnnDtxpm4eyzGUv0ZoaGBsqSB
rzCBrDELMAkGA1UEBhMCVVMxCzAJBgNVBAgTAk9IMREwDwYDVQQHEwhDb2x1bWJ1
czESMBAGA1UEChMJVmlraW5nVlBOMR0wGwYDVQQLExRNeU9yZ2FuaXphdGlvbmFs
VW5pdDEVMBMGA1UEAxMMVmlraW5nVlBOIENBMRAwDgYDVQQpEwdFYXN5UlNBMSEw
HwYJKoZIhvcNAQkBFhJtZUBteWhvc3QubXlkb21haW6CCQDPNYXugL8qPjATBgNV
HSUEDDAKBggrBgEFBQcDAjALBgNVHQ8EBAMCB4AwDQYJKoZIhvcNAQELBQADggIB
AJ5WQK/BGO9dxvQaRZxS/CUyC06t70rMu5JUiNjQPVX02uhRx6ZsQIW/GfKCUebk
J/GNAdOkRfpud9uOqzt993RNdYa1bYhbVMKJgNgIPEXNyYwf2YhDhENn/Usva81H
RNSUCg/e2YXDoJXBtHznQ2hXdsHvvSZIfDtP6Q2FUc0ZnV+IJDrFFQOOQZCGE+hL
TWJx3Nj8xJyuUV5hznf6R3Bu4H+O9iIlLQZwLEzTKeG8atcSyxg10CIa7sAh1Uyk
I/s+3W5sV/GqBedQGYcrBsQt7Nh33ojBksWlIxM/1NQY0Cdn8ATf7w7dZUkJAJDw
MiinVITk+34EdAI2MHsuGiU9TafWug0GSFZQD/9BF4KkbS3x3zieJp2KbRswcKvg
3UWA6OjLyxVmKgOV1jT23zyIJbTMEoln4hUeaRkFRXogYP/gjSTrmnMBRw20nxdJ
xTctmwVkU+bZM5bQT3xkssAhDSrztOEv2nMy+JoUBtQwLepe1DYMzICb+ATKqCQG
6a6IjG+0UaEqcw0oJnLI5cVFxcU+sywNfyEq1OLxxwGqSGrddgKe/+0XtO7MgJ50
XabECU9ae96Zq4culSI7UHSMM3S7hBrRvrLZVA7JcQPkZ03r1J9o36jwaa4eCcr6
haKEcMeirDm2Y/aaPjUL/lVemhRJo/FxOm136K0vHr+O
-----END CERTIFICATE-----
