Certificate:
    Data:
        Version: 3 (0x2)
        Serial Number: 9876 (0x2694)
    Signature Algorithm: sha256WithRSAEncryption
        Issuer: C=US, ST=OH, L=Columbus, O=VikingVPN, OU=MyOrganizationalUnit, CN=VikingVPN CA/name=EasyRSA/emailAddress=me@myhost.mydomain
        Validity
            Not Before: Jan 13 14:07:39 2017 GMT
            Not After : Jan 11 14:07:39 2027 GMT
        Subject: CN=Client2683Cert727885
        Subject Public Key Info:
            Public Key Algorithm: rsaEncryption
                Public-Key: (4096 bit)
                Modulus:
                    00:d9:e6:6f:66:68:4d:91:d2:54:c4:34:ed:62:b4:
                    71:ab:80:70:ed:9d:27:d4:c6:f5:f4:67:e0:84:6d:
                    94:84:a1:8e:1f:95:f9:35:e2:b4:17:5c:06:1c:bd:
                    34:df:b5:2b:f1:ce:fe:ac:22:52:3b:ea:cb:dc:eb:
                    5f:02:ef:ad:dc:f9:74:6f:b6:8c:f4:98:eb:7e:fe:
                    7e:d4:84:f8:f1:0f:52:bd:98:37:68:92:5c:0e:44:
                    c6:f1:a0:e0:4e:8f:41:1d:11:37:b3:1e:8c:4e:ee:
                    38:cc:8d:73:96:43:38:7f:c8:d0:65:1c:75:f0:6b:
                    e8:fe:e4:4e:fd:0f:bf:5b:c7:27:6a:ab:ee:62:cf:
                    45:d1:b7:84:64:1a:cb:fc:06:87:be:ec:9e:17:75:
                    02:43:d2:73:2f:93:2b:39:2c:bb:3d:ec:e4:34:41:
                    72:c2:6c:c4:01:b4:7f:4d:2b:11:fd:5a:ca:3d:02:
                    cc:86:e9:f0:d7:08:0c:50:ec:e6:70:99:8f:b6:86:
                    19:4d:08:e5:27:97:f1:97:43:7c:77:c3:fa:64:68:
                    7b:29:f4:13:43:78:74:9b:62:7e:8e:bd:5d:08:a1:
                    b8:0f:92:a4:76:6a:c6:0f:5d:05:66:ab:04:da:28:
                    52:78:86:06:74:50:7b:99:44:4d:c1:be:90:99:9f:
                    c1:01:69:ae:6b:09:e5:15:e7:9e:f5:b4:5c:f5:ef:
                    81:66:9b:94:96:88:b7:8a:ab:9d:8a:bb:6d:5f:08:
                    db:34:7a:a8:6f:5d:8e:e9:de:79:ef:d3:21:0f:66:
                    f0:04:1d:a5:ae:e0:30:c7:cc:5f:15:94:88:2b:96:
                    98:e3:68:93:0d:f2:1b:e8:16:6d:31:c6:d6:59:b6:
                    4f:8d:fc:85:80:1e:77:2a:96:7f:c1:8f:49:ea:7e:
                    9d:27:58:b1:6d:da:eb:ef:00:2c:28:02:97:92:13:
                    29:fa:52:36:1f:94:dc:e8:58:9a:0c:25:b5:2c:4a:
                    38:63:18:6e:f2:9f:17:70:e8:3e:9e:07:1b:8a:65:
                    af:88:f1:4a:b8:26:ba:16:3e:a0:52:cf:52:ec:e2:
                    28:c4:88:3b:4c:20:c4:f3:4d:dc:cc:59:c2:05:f8:
                    b4:4a:31:31:89:46:5b:c9:c2:d4:68:bb:a2:1c:3d:
                    1c:a3:a9:99:d6:14:80:7c:43:79:c3:9b:7f:1d:0e:
                    a8:5a:30:f5:c4:0f:8a:d2:24:8f:28:84:da:08:68:
                    ae:85:bf:4c:d2:f3:2d:91:66:41:71:4b:ae:27:28:
                    3f:2b:ba:df:94:34:98:56:63:a3:05:d7:ac:e7:29:
                    05:44:29:cf:6c:8e:1e:eb:2d:d8:cf:9d:19:99:f3:
                    fd:d1:55
                Exponent: 65537 (0x10001)
        X509v3 extensions:
            X509v3 Basic Constraints: 
                CA:FALSE
            Netscape Comment: 
                Easy-RSA Generated Certificate
            X509v3 Subject Key Identifier: 
                B3:49:52:A3:B5:A9:89:6B:B5:D5:E6:CD:D6:56:B8:4A:8E:B0:D1:3C
            X509v3 Authority Key Identifier: 
                keyid:12:CD:60:04:D2:A0:80:9E:70:ED:C6:99:B8:7B:2C:C6:52:FD:19:A1
                DirName:/C=US/ST=OH/L=Columbus/O=VikingVPN/OU=MyOrganizationalUnit/CN=VikingVPN CA/name=EasyRSA/emailAddress=me@myhost.mydomain
                serial:CF:35:85:EE:80:BF:2A:3E

            X509v3 Extended Key Usage: 
                TLS Web Client Authentication
            X509v3 Key Usage: 
                Digital Signature
    Signature Algorithm: sha256WithRSAEncryption
         45:35:ad:a6:5f:c8:69:1b:37:f0:05:fc:b2:cb:5c:1e:38:16:
         3e:24:ae:9a:53:41:77:dc:34:d9:17:05:4b:82:23:55:ab:74:
         bc:39:21:a6:c8:b6:a9:11:2a:db:f4:7d:c4:99:6d:41:c0:bf:
         41:02:c0:f7:ef:0a:b1:62:94:43:de:32:1f:d8:16:12:ed:c5:
         2f:dc:7b:fd:46:74:f6:f3:0b:32:8c:69:7c:8a:19:f1:cf:bc:
         d7:3f:db:3c:54:10:b7:0d:b5:57:b3:bf:ab:6d:d6:69:92:a8:
         04:d9:45:66:18:7c:e7:57:fb:ff:9a:31:3b:e5:a2:8a:e9:6d:
         f2:ee:f7:ad:a9:67:92:8a:00:f5:de:0b:cf:4e:d9:88:63:1e:
         6d:84:5a:ee:e3:ad:e6:6a:86:34:f1:08:98:3d:22:30:ab:df:
         23:bb:ab:7d:68:f9:1e:3c:0c:5b:23:2b:ab:aa:17:12:ef:b3:
         79:8b:6f:d3:7d:2f:c5:7d:5c:1c:46:63:c6:45:90:9c:69:1d:
         e6:37:97:0c:f9:2b:3d:66:a6:ea:02:89:fa:21:26:01:79:90:
         96:15:f4:f9:3e:77:3a:75:3f:d6:9d:92:f9:cd:bb:0e:82:e9:
         f2:17:98:ba:d9:21:39:a4:1f:b3:cd:74:5c:2c:5b:27:2e:b5:
         81:36:02:d1:73:a5:14:8f:d0:fe:69:42:e4:58:3f:67:48:14:
         fd:2c:b2:27:05:a8:1a:26:70:82:24:c5:44:dc:4d:1d:78:23:
         5c:bb:ba:d6:fc:e6:14:8d:92:18:20:21:74:ab:d0:7f:b6:f8:
         9a:75:b7:94:ed:6e:b9:d7:9e:7b:19:c2:07:37:68:af:b8:0d:
         ef:6f:ac:d6:77:ba:6b:5a:c5:d8:6d:69:29:15:13:d7:ba:b0:
         f9:27:7c:18:15:ee:c5:54:81:a5:60:6a:ce:ab:53:95:91:5f:
         cf:e2:1a:c0:05:d0:ed:91:6f:bd:43:d7:c1:bb:96:48:77:e7:
         19:d2:24:c4:06:6a:40:a9:97:1d:27:bb:d0:c6:dc:d0:94:5b:
         16:d8:dc:4f:a8:a2:a0:62:b6:61:ad:38:af:1b:ff:cc:a2:15:
         ef:1d:ae:f7:43:0f:50:2f:7c:55:6e:cd:1b:1d:84:b2:bd:fc:
         e7:76:9d:96:37:2d:ed:24:64:af:da:cc:5c:c2:e5:73:66:00:
         0f:1c:66:5f:8b:c4:5f:79:be:f3:cb:70:a4:3d:b7:c6:6a:6c:
         75:20:79:3b:5d:a3:14:3e:57:cb:dd:9b:ae:f9:aa:86:19:43:
         dc:c1:65:21:f9:20:1b:72:11:b2:9e:14:ef:3f:bd:6a:34:66:
         4b:c8:63:d4:db:cf:3b:5c
-----BEGIN CERTIFICATE-----
MIIGrTCCBJWgAwIBAgICJpQwDQYJKoZIhvcNAQELBQAwgawxCzAJBgNVBAYTAlVT
MQswCQYDVQQIEwJPSDERMA8GA1UEBxMIQ29sdW1idXMxEjAQBgNVBAoTCVZpa2lu
Z1ZQTjEdMBsGA1UECxMUTXlPcmdhbml6YXRpb25hbFVuaXQxFTATBgNVBAMTDFZp
a2luZ1ZQTiBDQTEQMA4GA1UEKRMHRWFzeVJTQTEhMB8GCSqGSIb3DQEJARYSbWVA
bXlob3N0Lm15ZG9tYWluMB4XDTE3MDExMzE0MDczOVoXDTI3MDExMTE0MDczOVow
HzEdMBsGA1UEAxMUQ2xpZW50MjY4M0NlcnQ3Mjc4ODUwggIiMA0GCSqGSIb3DQEB
AQUAA4ICDwAwggIKAoICAQDZ5m9maE2R0lTENO1itHGrgHDtnSfUxvX0Z+CEbZSE
oY4flfk14rQXXAYcvTTftSvxzv6sIlI76svc618C763c+XRvtoz0mOt+/n7UhPjx
D1K9mDdoklwORMbxoOBOj0EdETezHoxO7jjMjXOWQzh/yNBlHHXwa+j+5E79D79b
xydqq+5iz0XRt4RkGsv8Boe+7J4XdQJD0nMvkys5LLs97OQ0QXLCbMQBtH9NKxH9
Wso9AsyG6fDXCAxQ7OZwmY+2hhlNCOUnl/GXQ3x3w/pkaHsp9BNDeHSbYn6OvV0I
obgPkqR2asYPXQVmqwTaKFJ4hgZ0UHuZRE3BvpCZn8EBaa5rCeUV5571tFz174Fm
m5SWiLeKq52Ku21fCNs0eqhvXY7p3nnv0yEPZvAEHaWu4DDHzF8VlIgrlpjjaJMN
8hvoFm0xxtZZtk+N/IWAHncqln/Bj0nqfp0nWLFt2uvvACwoApeSEyn6UjYflNzo
WJoMJbUsSjhjGG7ynxdw6D6eBxuKZa+I8Uq4JroWPqBSz1Ls4ijEiDtMIMTzTdzM
WcIF+LRKMTGJRlvJwtRou6IcPRyjqZnWFIB8Q3nDm38dDqhaMPXED4rSJI8ohNoI
aK6Fv0zS8y2RZkFxS64nKD8rut+UNJhWY6MF16znKQVEKc9sjh7rLdjPnRmZ8/3R
VQIDAQABo4IBYzCCAV8wCQYDVR0TBAIwADAtBglghkgBhvhCAQ0EIBYeRWFzeS1S
U0EgR2VuZXJhdGVkIENlcnRpZmljYXRlMB0GA1UdDgQWBBSzSVKjtamJa7XV5s3W
VrhKjrDRPDCB4QYDVR0jBIHZMIHWgBQSzWAE0qCAnnDtxpm4eyzGUv0ZoaGBsqSB
rzCBrDELMAkGA1UEBhMCVVMxCzAJBgNVBAgTAk9IMREwDwYDVQQHEwhDb2x1bWJ1
czESMBAGA1UEChMJVmlraW5nVlBOMR0wGwYDVQQLExRNeU9yZ2FuaXphdGlvbmFs
VW5pdDEVMBMGA1UEAxMMVmlraW5nVlBOIENBMRAwDgYDVQQpEwdFYXN5UlNBMSEw
HwYJKoZIhvcNAQkBFhJtZUBteWhvc3QubXlkb21haW6CCQDPNYXugL8qPjATBgNV
HSUEDDAKBggrBgEFBQcDAjALBgNVHQ8EBAMCB4AwDQYJKoZIhvcNAQELBQADggIB
AEU1raZfyGkbN/AF/LLLXB44Fj4krppTQXfcNNkXBUuCI1WrdLw5IabItqkRKtv0
fcSZbUHAv0ECwPfvCrFilEPeMh/YFhLtxS/ce/1GdPbzCzKMaXyKGfHPvNc/2zxU
ELcNtVezv6tt1mmSqATZRWYYfOdX+/+aMTvloorpbfLu962pZ5KKAPXeC89O2Yhj
Hm2EWu7jreZqhjTxCJg9IjCr3yO7q31o+R48DFsjK6uqFxLvs3mLb9N9L8V9XBxG
Y8ZFkJxpHeY3lwz5Kz1mpuoCifohJgF5kJYV9Pk+dzp1P9adkvnNuw6C6fIXmLrZ
ITmkH7PNdFwsWycutYE2AtFzpRSP0P5pQuRYP2dIFP0ssicFqBomcIIkxUTcTR14
I1y7utb85hSNkhggIXSr0H+2+Jp1t5TtbrnXnnsZwgc3aK+4De9vrNZ3umtaxdht
aSkVE9e6sPknfBgV7sVUgaVgas6rU5WRX8/iGsAF0O2Rb71D18G7lkh35xnSJMQG
akCplx0nu9DG3NCUWxbY3E+ooqBitmGtOK8b/8yiFe8drvdDD1AvfFVuzRsdhLK9
/Od2nZY3Le0kZK/azFzC5XNmAA8cZl+LxF95vvPLcKQ9t8ZqbHUgeTtdoxQ+V8vd
m675qoYZQ9zBZSH5IBtyEbKeFO8/vWo0ZkvIY9Tbzztc
-----END CERTIFICATE-----
