Certificate:
    Data:
        Version: 3 (0x2)
        Serial Number: 9895 (0x26a7)
    Signature Algorithm: sha256WithRSAEncryption
        Issuer: C=US, ST=OH, L=Columbus, O=VikingVPN, OU=MyOrganizationalUnit, CN=VikingVPN CA/name=EasyRSA/emailAddress=me@myhost.mydomain
        Validity
            Not Before: Jan 14 12:39:28 2017 GMT
            Not After : Jan 12 12:39:28 2027 GMT
        Subject: CN=Client2357Certb8c342
        Subject Public Key Info:
            Public Key Algorithm: rsaEncryption
                Public-Key: (4096 bit)
                Modulus:
                    00:c0:93:7e:7f:3c:bb:fa:ad:f4:68:7b:e0:42:e4:
                    9d:87:66:34:5e:8e:da:c0:23:ad:d0:ba:5e:d9:cd:
                    f3:bc:a6:34:39:5f:12:17:84:ae:7a:f3:90:4f:18:
                    31:ab:35:39:71:28:a4:4b:a2:ff:bd:05:32:6f:ad:
                    52:01:f3:4d:2c:af:a4:76:29:59:31:bc:d4:d4:01:
                    f7:2c:8d:2f:5a:85:b1:ea:c1:61:38:e6:91:ec:cc:
                    6e:ae:80:05:81:c0:60:f5:78:e6:5e:dc:0b:65:34:
                    13:81:4e:7c:56:1b:ba:a4:ca:4b:91:81:40:d9:0a:
                    fe:dc:82:93:4f:ee:a5:d2:db:83:ec:a9:bc:81:8c:
                    cd:8d:f3:55:1e:2e:f6:d4:96:91:72:2e:d5:40:55:
                    3c:3c:f0:7e:8d:a1:59:a4:4f:d8:2e:d2:54:77:2e:
                    2b:0d:79:54:89:b2:fd:bf:67:89:a3:06:e9:e4:73:
                    0d:1d:31:10:ca:be:9e:99:d6:39:2b:a8:0d:b8:a9:
                    1a:bc:4a:a4:e9:5c:62:db:38:b1:a6:43:41:30:ef:
                    69:ea:59:1e:4a:f3:f1:bf:85:71:e8:af:1e:09:38:
                    fd:35:4b:74:f1:32:1f:2b:3d:48:94:85:fc:36:2d:
                    0f:93:da:c6:78:f3:db:65:91:ec:38:83:cf:78:b7:
                    1e:c4:94:94:e6:a4:88:53:b7:4f:d2:70:5f:0f:0a:
                    50:a6:d7:f6:5a:2b:0b:8d:05:9d:da:f9:0d:4e:20:
                    40:bf:d9:c9:ec:dc:fa:83:0e:91:46:67:97:b1:39:
                    dd:86:a4:62:57:3f:5b:ab:74:54:02:b4:52:b0:a8:
                    ea:32:4c:59:0a:3a:d4:80:3b:10:f9:91:32:3f:cd:
                    9a:17:33:bd:35:db:3e:6b:90:46:57:08:45:cb:13:
                    95:73:54:ff:07:06:4e:a0:42:81:55:4d:fe:83:53:
                    28:de:63:9a:f8:72:67:a6:59:7b:b0:5e:a3:b1:5f:
                    bb:ab:87:15:95:e8:85:26:4b:de:8c:ad:00:50:7e:
                    f3:c5:dc:a2:94:3a:7d:2c:03:82:32:38:a7:c5:44:
                    3d:ce:05:dc:e0:41:29:02:fe:a3:41:65:4d:e0:56:
                    7d:63:65:b4:5d:3d:e3:be:14:26:c5:1c:bd:41:25:
                    8a:0c:47:9b:6a:59:ac:e1:01:92:0d:bf:4b:ba:13:
                    0c:ac:76:7d:21:b0:9b:0f:46:cf:7d:76:4f:b5:c4:
                    7f:40:ae:72:6c:d2:d4:a2:38:4e:0c:1d:ce:83:69:
                    1b:f8:41:78:f4:8e:f8:c1:6e:65:51:36:6a:d8:6b:
                    f3:a6:0b:58:aa:66:6f:91:89:38:3f:a8:f0:29:c3:
                    c6:95:ed
                Exponent: 65537 (0x10001)
        X509v3 extensions:
            X509v3 Basic Constraints: 
                CA:FALSE
            Netscape Comment: 
                Easy-RSA Generated Certificate
            X509v3 Subject Key Identifier: 
                07:18:12:F8:E0:1B:2B:9D:B6:BE:D9:72:85:37:93:17:4E:DA:39:86
            X509v3 Authority Key Identifier: 
                keyid:12:CD:60:04:D2:A0:80:9E:70:ED:C6:99:B8:7B:2C:C6:52:FD:19:A1
                DirName:/C=US/ST=OH/L=Columbus/O=VikingVPN/OU=MyOrganizationalUnit/CN=VikingVPN CA/name=EasyRSA/emailAddress=me@myhost.mydomain
                serial:CF:35:85:EE:80:BF:2A:3E

            X509v3 Extended Key Usage: 
                TLS Web Client Authentication
            X509v3 Key Usage: 
                Digital Signature
    Signature Algorithm: sha256WithRSAEncryption
         a8:78:8a:f3:ae:4e:71:07:24:26:d7:14:95:be:bf:82:af:a7:
         0d:c5:e6:d1:3c:81:1c:8d:59:cb:10:6d:12:ea:b4:b3:b1:b8:
         b2:a7:ad:2a:70:c3:8f:7d:bc:c2:f6:1d:e6:00:f1:f1:67:6b:
         d1:78:79:06:b5:a6:10:82:07:7c:26:18:1a:48:cb:04:b7:67:
         7d:d6:9e:9b:f8:cc:d8:99:04:3d:65:c7:e6:57:aa:b1:c8:bc:
         5d:ea:92:4a:a4:2e:bb:73:e9:f4:b5:b4:8b:df:a8:18:79:db:
         93:dd:e2:03:7e:d6:03:f7:a6:2d:c8:6e:32:bc:94:61:a1:59:
         a1:e2:3c:6e:e1:93:ca:d7:2b:50:76:e4:95:ef:9c:80:4f:1e:
         6a:c4:84:3e:7e:bb:de:31:22:5d:bb:85:70:28:28:a5:9c:dc:
         ab:9e:b3:fb:49:b2:0a:9e:38:21:e0:11:49:41:9b:e4:1c:c9:
         95:ea:a5:a3:e1:01:43:bc:25:c2:07:c2:43:67:64:d5:81:62:
         62:9c:fd:d9:50:a0:61:7b:a7:e3:24:9c:f3:32:d8:40:ed:3f:
         f7:cc:96:5a:e5:ae:ca:79:d3:41:4d:1c:94:eb:3a:39:a4:47:
         78:a2:8b:a4:da:62:2f:5b:8d:80:fe:4c:7c:8c:29:8f:db:43:
         1b:92:d6:ae:5d:4a:84:b6:16:64:ac:b6:94:3f:af:df:c1:32:
         85:14:33:6c:0c:91:d3:28:4c:c1:91:1a:ae:99:31:1b:5c:e6:
         dc:9e:d2:7c:aa:57:ee:dc:2c:ab:6b:a5:eb:b4:a5:a7:52:91:
         80:cd:6b:32:80:b0:b9:45:06:b8:68:fe:c6:81:a2:bb:f4:89:
         d0:22:59:df:cf:38:d8:a8:67:4b:5a:e3:bf:e9:55:e6:c6:78:
         77:00:17:c2:b8:c5:71:a2:f5:19:0a:91:e2:a9:3d:2f:19:c7:
         3a:d3:3f:c5:ea:49:04:d6:3c:94:89:52:14:b9:df:39:44:2b:
         07:b4:57:fe:85:45:4e:a4:e9:70:f6:ac:47:52:8b:2c:c1:d9:
         11:3c:52:67:32:08:d5:bd:e0:45:6f:35:b3:3d:1e:b4:62:d2:
         a3:5b:cb:3f:f1:ed:71:a8:64:f9:6b:59:ab:b4:0b:f9:53:65:
         e8:0b:e1:e2:d0:1b:ea:36:48:ba:e1:53:00:d7:1e:52:90:0b:
         2f:72:6e:4f:9a:3c:17:94:1d:2a:b7:a3:e3:6f:8a:58:a3:ec:
         3a:6c:6d:4c:6a:1c:8a:8a:8a:16:ce:af:25:95:d7:63:42:a3:
         ed:49:33:03:86:fb:2c:1f:dd:85:a5:54:8d:2c:ca:5a:78:05:
         7c:07:04:06:70:8a:21:a8
-----BEGIN CERTIFICATE-----
MIIGrTCCBJWgAwIBAgICJqcwDQYJKoZIhvcNAQELBQAwgawxCzAJBgNVBAYTAlVT
MQswCQYDVQQIEwJPSDERMA8GA1UEBxMIQ29sdW1idXMxEjAQBgNVBAoTCVZpa2lu
Z1ZQTjEdMBsGA1UECxMUTXlPcmdhbml6YXRpb25hbFVuaXQxFTATBgNVBAMTDFZp
a2luZ1ZQTiBDQTEQMA4GA1UEKRMHRWFzeVJTQTEhMB8GCSqGSIb3DQEJARYSbWVA
bXlob3N0Lm15ZG9tYWluMB4XDTE3MDExNDEyMzkyOFoXDTI3MDExMjEyMzkyOFow
HzEdMBsGA1UEAxMUQ2xpZW50MjM1N0NlcnRiOGMzNDIwggIiMA0GCSqGSIb3DQEB
AQUAA4ICDwAwggIKAoICAQDAk35/PLv6rfRoe+BC5J2HZjRejtrAI63Qul7ZzfO8
pjQ5XxIXhK5685BPGDGrNTlxKKRLov+9BTJvrVIB800sr6R2KVkxvNTUAfcsjS9a
hbHqwWE45pHszG6ugAWBwGD1eOZe3AtlNBOBTnxWG7qkykuRgUDZCv7cgpNP7qXS
24PsqbyBjM2N81UeLvbUlpFyLtVAVTw88H6NoVmkT9gu0lR3LisNeVSJsv2/Z4mj
Bunkcw0dMRDKvp6Z1jkrqA24qRq8SqTpXGLbOLGmQ0Ew72nqWR5K8/G/hXHorx4J
OP01S3TxMh8rPUiUhfw2LQ+T2sZ489tlkew4g894tx7ElJTmpIhTt0/ScF8PClCm
1/ZaKwuNBZ3a+Q1OIEC/2cns3PqDDpFGZ5exOd2GpGJXP1urdFQCtFKwqOoyTFkK
OtSAOxD5kTI/zZoXM7012z5rkEZXCEXLE5VzVP8HBk6gQoFVTf6DUyjeY5r4cmem
WXuwXqOxX7urhxWV6IUmS96MrQBQfvPF3KKUOn0sA4IyOKfFRD3OBdzgQSkC/qNB
ZU3gVn1jZbRdPeO+FCbFHL1BJYoMR5tqWazhAZINv0u6Ewysdn0hsJsPRs99dk+1
xH9ArnJs0tSiOE4MHc6DaRv4QXj0jvjBbmVRNmrYa/OmC1iqZm+RiTg/qPApw8aV
7QIDAQABo4IBYzCCAV8wCQYDVR0TBAIwADAtBglghkgBhvhCAQ0EIBYeRWFzeS1S
U0EgR2VuZXJhdGVkIENlcnRpZmljYXRlMB0GA1UdDgQWBBQHGBL44Bsrnba+2XKF
N5MXTto5hjCB4QYDVR0jBIHZMIHWgBQSzWAE0qCAnnDtxpm4eyzGUv0ZoaGBsqSB
rzCBrDELMAkGA1UEBhMCVVMxCzAJBgNVBAgTAk9IMREwDwYDVQQHEwhDb2x1bWJ1
czESMBAGA1UEChMJVmlraW5nVlBOMR0wGwYDVQQLExRNeU9yZ2FuaXphdGlvbmFs
VW5pdDEVMBMGA1UEAxMMVmlraW5nVlBOIENBMRAwDgYDVQQpEwdFYXN5UlNBMSEw
HwYJKoZIhvcNAQkBFhJtZUBteWhvc3QubXlkb21haW6CCQDPNYXugL8qPjATBgNV
HSUEDDAKBggrBgEFBQcDAjALBgNVHQ8EBAMCB4AwDQYJKoZIhvcNAQELBQADggIB
AKh4ivOuTnEHJCbXFJW+v4Kvpw3F5tE8gRyNWcsQbRLqtLOxuLKnrSpww499vML2
HeYA8fFna9F4eQa1phCCB3wmGBpIywS3Z33Wnpv4zNiZBD1lx+ZXqrHIvF3qkkqk
Lrtz6fS1tIvfqBh525Pd4gN+1gP3pi3IbjK8lGGhWaHiPG7hk8rXK1B25JXvnIBP
HmrEhD5+u94xIl27hXAoKKWc3Kues/tJsgqeOCHgEUlBm+QcyZXqpaPhAUO8JcIH
wkNnZNWBYmKc/dlQoGF7p+MknPMy2EDtP/fMllrlrsp500FNHJTrOjmkR3iii6Ta
Yi9bjYD+THyMKY/bQxuS1q5dSoS2FmSstpQ/r9/BMoUUM2wMkdMoTMGRGq6ZMRtc
5tye0nyqV+7cLKtrpeu0padSkYDNazKAsLlFBrho/saBorv0idAiWd/PONioZ0ta
47/pVebGeHcAF8K4xXGi9RkKkeKpPS8ZxzrTP8XqSQTWPJSJUhS53zlEKwe0V/6F
RU6k6XD2rEdSiyzB2RE8UmcyCNW94EVvNbM9HrRi0qNbyz/x7XGoZPlrWau0C/lT
ZegL4eLQG+o2SLrhUwDXHlKQCy9ybk+aPBeUHSq3o+Nvilij7DpsbUxqHIqKihbO
ryWV12NCo+1JMwOG+ywf3YWlVI0sylp4BXwHBAZwiiGo
-----END CERTIFICATE-----
