Certificate:
    Data:
        Version: 3 (0x2)
        Serial Number: 9909 (0x26b5)
    Signature Algorithm: sha256WithRSAEncryption
        Issuer: C=US, ST=OH, L=Columbus, O=VikingVPN, OU=MyOrganizationalUnit, CN=VikingVPN CA/name=EasyRSA/emailAddress=me@myhost.mydomain
        Validity
            Not Before: Jan 14 21:29:36 2017 GMT
            Not After : Jan 12 21:29:36 2027 GMT
        Subject: CN=Client1619Cert96c5d7
        Subject Public Key Info:
            Public Key Algorithm: rsaEncryption
                Public-Key: (4096 bit)
                Modulus:
                    00:b4:37:65:5b:67:c6:98:b6:60:dc:7f:5f:7e:97:
                    8b:01:88:90:83:9e:39:e5:a1:f6:43:5e:f9:66:20:
                    95:cd:dc:39:5d:80:b0:a4:47:25:19:ea:76:46:ef:
                    1c:56:7a:97:66:ed:1b:ff:3b:9f:19:04:45:85:ec:
                    62:d2:2a:92:02:0e:2d:8e:33:1d:af:11:2a:cd:48:
                    71:eb:3d:7e:97:b2:a1:c6:64:76:6d:5c:0e:a8:89:
                    b9:5a:d7:fa:b6:1a:68:4b:63:6a:5f:7e:88:6c:67:
                    13:10:9a:e2:59:4d:00:d2:17:6c:f1:3c:66:f3:ff:
                    ba:b2:3d:23:a0:cc:0e:41:e0:1a:bd:d0:83:2c:b4:
                    da:5e:a4:0c:f6:12:66:0f:43:90:4b:3c:98:62:43:
                    50:2f:29:c0:43:0d:e8:40:22:85:d0:fd:e6:e7:36:
                    2a:8c:95:7d:37:bd:8a:57:fa:fa:0a:d6:32:b0:8c:
                    26:a1:f6:3b:81:3c:e6:d3:db:b1:ae:52:b3:3a:a8:
                    f4:ab:b1:ab:ff:39:e0:62:a7:a0:ee:67:ce:ff:bf:
                    dc:d1:ca:00:44:07:68:49:32:14:00:ce:79:70:ef:
                    c0:6c:e3:02:17:92:7e:ba:74:5f:d2:03:fa:3b:a6:
                    6d:aa:eb:30:30:d7:9b:38:40:6c:14:38:9a:86:4a:
                    c5:06:01:dc:11:67:f3:73:5b:f1:33:23:9e:3a:23:
                    a5:a1:e0:f0:b0:45:fd:f6:3b:9e:ae:fe:3d:a5:19:
                    40:b2:a8:7a:7a:e6:69:78:41:22:3e:da:f8:0d:fa:
                    73:bc:f4:00:05:ad:16:ad:63:22:a7:ec:b3:32:ca:
                    f4:e9:1d:39:d8:cd:d4:58:a4:c9:03:ed:d4:bf:d2:
                    9e:e7:8d:30:87:7e:b4:77:97:32:0f:0e:96:86:7c:
                    b7:0a:49:b2:65:e9:99:f3:b5:a4:b2:0b:f2:b9:b9:
                    aa:d0:18:78:3f:a7:5b:78:5c:33:68:c7:91:c9:75:
                    8d:0b:54:00:fa:51:3a:44:e2:5e:9a:c3:d8:ad:18:
                    ae:8c:22:6d:ed:23:cb:0b:bc:eb:42:b1:fc:7e:56:
                    ca:c4:f4:f2:7a:5c:96:9d:46:26:4c:0f:14:e0:9d:
                    57:07:5e:79:7a:23:86:b3:dc:70:0a:85:e6:cd:5a:
                    f6:c2:62:a2:96:60:1c:c2:bd:20:83:10:f5:e8:bc:
                    9a:23:ea:ce:69:31:45:07:1f:79:e0:f1:0e:6c:a4:
                    6e:93:f6:ac:be:fb:3c:39:9e:04:d4:d1:86:f7:82:
                    1e:73:4e:19:4c:33:dd:de:cc:a0:2d:c3:13:1b:1d:
                    14:e8:e6:06:ca:8e:e5:dd:48:3a:81:41:62:2a:aa:
                    1b:34:b3
                Exponent: 65537 (0x10001)
        X509v3 extensions:
            X509v3 Basic Constraints: 
                CA:FALSE
            Netscape Comment: 
                Easy-RSA Generated Certificate
            X509v3 Subject Key Identifier: 
                3C:98:26:8E:3B:28:D0:96:4D:92:0B:66:E4:A3:A3:F8:C1:75:6B:57
            X509v3 Authority Key Identifier: 
                keyid:12:CD:60:04:D2:A0:80:9E:70:ED:C6:99:B8:7B:2C:C6:52:FD:19:A1
                DirName:/C=US/ST=OH/L=Columbus/O=VikingVPN/OU=MyOrganizationalUnit/CN=VikingVPN CA/name=EasyRSA/emailAddress=me@myhost.mydomain
                serial:CF:35:85:EE:80:BF:2A:3E

            X509v3 Extended Key Usage: 
                TLS Web Client Authentication
            X509v3 Key Usage: 
                Digital Signature
    Signature Algorithm: sha256WithRSAEncryption
         a1:05:60:8e:1f:bb:cd:c5:38:c0:24:af:6e:a1:40:90:60:ff:
         29:f1:1b:c9:d8:ab:d3:67:8d:9e:28:97:77:0a:fb:35:c5:02:
         fa:d0:ea:63:bd:ef:36:b1:5b:32:23:ec:49:9c:69:38:c7:b9:
         05:d4:fd:94:fc:4a:91:da:35:b0:da:09:8c:75:54:42:a7:03:
         ac:26:cf:5c:f4:8e:6a:df:e9:21:3c:6b:16:92:11:15:14:4d:
         0f:97:9d:3c:2b:ab:32:0d:bc:35:03:9c:56:73:8b:4e:48:02:
         0c:bb:ac:6e:5c:ae:15:b2:8c:49:98:48:48:a4:f6:e4:71:6b:
         f4:62:4f:6a:75:c7:88:dc:0a:01:7c:24:30:56:49:e9:50:48:
         6d:e9:ae:66:3d:0e:2c:ad:c9:80:71:2f:ad:26:ed:b8:48:d1:
         ad:fd:2a:4b:5a:84:66:2b:c2:ba:59:c5:24:8d:b6:55:ea:c5:
         dc:bf:f4:8c:5b:58:2a:c3:6a:6b:29:b6:ca:e1:a0:2a:51:85:
         0c:fe:59:e6:f1:6e:d7:bf:59:2b:ae:08:87:18:c4:29:d8:5c:
         47:92:e8:77:78:e1:46:40:99:05:51:a9:f2:b6:91:73:2b:19:
         0f:aa:3c:9c:cd:c4:a9:b2:d8:02:ae:fd:f2:3d:db:89:8a:ca:
         82:f7:fc:45:a3:87:17:8d:e6:69:fe:65:84:2e:fe:bf:29:c1:
         a2:74:3f:e8:ac:ed:ea:93:e6:d3:32:eb:b8:0a:b4:bc:0b:58:
         b7:41:6b:60:77:dd:38:ee:dd:fc:f6:21:eb:69:c0:dd:54:88:
         75:1b:45:02:e4:3b:57:b5:e4:b7:6a:e8:38:04:b2:e7:92:eb:
         46:82:5b:17:b1:55:34:9d:c8:8f:1c:f9:03:87:3d:32:76:46:
         c5:63:48:77:3f:0c:0c:11:43:aa:be:09:20:58:2c:32:a2:66:
         ff:17:29:b9:c8:30:d8:9b:f3:74:d6:9e:df:da:a7:21:f6:5c:
         d7:8e:98:3c:dc:47:a8:da:62:6e:57:74:a2:2c:55:eb:e2:c7:
         93:a5:dd:44:51:69:67:b7:3b:26:8f:d3:29:f7:ba:3e:cb:34:
         47:9a:01:22:69:11:11:29:87:55:7b:a5:08:69:44:bd:5b:97:
         15:db:c8:fe:85:d1:fd:15:82:e5:70:f6:79:97:87:2e:c3:3c:
         64:2c:e1:08:55:8f:3c:98:cf:16:a2:d1:14:8b:d4:db:46:5a:
         c1:de:a3:4e:89:14:6e:fc:c9:fd:c3:1a:97:d3:7e:2d:ad:b1:
         a8:71:1f:cd:94:a5:c6:40:b2:48:f2:4e:86:42:ad:f3:0f:6d:
         c4:96:cb:01:77:73:8f:b4
-----BEGIN CERTIFICATE-----
MIIGrTCCBJWgAwIBAgICJrUwDQYJKoZIhvcNAQELBQAwgawxCzAJBgNVBAYTAlVT
MQswCQYDVQQIEwJPSDERMA8GA1UEBxMIQ29sdW1idXMxEjAQBgNVBAoTCVZpa2lu
Z1ZQTjEdMBsGA1UECxMUTXlPcmdhbml6YXRpb25hbFVuaXQxFTATBgNVBAMTDFZp
a2luZ1ZQTiBDQTEQMA4GA1UEKRMHRWFzeVJTQTEhMB8GCSqGSIb3DQEJARYSbWVA
bXlob3N0Lm15ZG9tYWluMB4XDTE3MDExNDIxMjkzNloXDTI3MDExMjIxMjkzNlow
HzEdMBsGA1UEAxMUQ2xpZW50MTYxOUNlcnQ5NmM1ZDcwggIiMA0GCSqGSIb3DQEB
AQUAA4ICDwAwggIKAoICAQC0N2VbZ8aYtmDcf19+l4sBiJCDnjnlofZDXvlmIJXN
3DldgLCkRyUZ6nZG7xxWepdm7Rv/O58ZBEWF7GLSKpICDi2OMx2vESrNSHHrPX6X
sqHGZHZtXA6oibla1/q2GmhLY2pffohsZxMQmuJZTQDSF2zxPGbz/7qyPSOgzA5B
4Bq90IMstNpepAz2EmYPQ5BLPJhiQ1AvKcBDDehAIoXQ/ebnNiqMlX03vYpX+voK
1jKwjCah9juBPObT27GuUrM6qPSrsav/OeBip6DuZ87/v9zRygBEB2hJMhQAznlw
78Bs4wIXkn66dF/SA/o7pm2q6zAw15s4QGwUOJqGSsUGAdwRZ/NzW/EzI546I6Wh
4PCwRf32O56u/j2lGUCyqHp65ml4QSI+2vgN+nO89AAFrRatYyKn7LMyyvTpHTnY
zdRYpMkD7dS/0p7njTCHfrR3lzIPDpaGfLcKSbJl6ZnztaSyC/K5uarQGHg/p1t4
XDNox5HJdY0LVAD6UTpE4l6aw9itGK6MIm3tI8sLvOtCsfx+VsrE9PJ6XJadRiZM
DxTgnVcHXnl6I4az3HAKhebNWvbCYqKWYBzCvSCDEPXovJoj6s5pMUUHH3ng8Q5s
pG6T9qy++zw5ngTU0Yb3gh5zThlMM93ezKAtwxMbHRTo5gbKjuXdSDqBQWIqqhs0
swIDAQABo4IBYzCCAV8wCQYDVR0TBAIwADAtBglghkgBhvhCAQ0EIBYeRWFzeS1S
U0EgR2VuZXJhdGVkIENlcnRpZmljYXRlMB0GA1UdDgQWBBQ8mCaOOyjQlk2SC2bk
o6P4wXVrVzCB4QYDVR0jBIHZMIHWgBQSzWAE0qCAnnDtxpm4eyzGUv0ZoaGBsqSB
rzCBrDELMAkGA1UEBhMCVVMxCzAJBgNVBAgTAk9IMREwDwYDVQQHEwhDb2x1bWJ1
czESMBAGA1UEChMJVmlraW5nVlBOMR0wGwYDVQQLExRNeU9yZ2FuaXphdGlvbmFs
VW5pdDEVMBMGA1UEAxMMVmlraW5nVlBOIENBMRAwDgYDVQQpEwdFYXN5UlNBMSEw
HwYJKoZIhvcNAQkBFhJtZUBteWhvc3QubXlkb21haW6CCQDPNYXugL8qPjATBgNV
HSUEDDAKBggrBgEFBQcDAjALBgNVHQ8EBAMCB4AwDQYJKoZIhvcNAQELBQADggIB
AKEFYI4fu83FOMAkr26hQJBg/ynxG8nYq9NnjZ4ol3cK+zXFAvrQ6mO97zaxWzIj
7EmcaTjHuQXU/ZT8SpHaNbDaCYx1VEKnA6wmz1z0jmrf6SE8axaSERUUTQ+XnTwr
qzINvDUDnFZzi05IAgy7rG5crhWyjEmYSEik9uRxa/RiT2p1x4jcCgF8JDBWSelQ
SG3prmY9DiytyYBxL60m7bhI0a39KktahGYrwrpZxSSNtlXqxdy/9IxbWCrDamsp
tsrhoCpRhQz+Webxbte/WSuuCIcYxCnYXEeS6Hd44UZAmQVRqfK2kXMrGQ+qPJzN
xKmy2AKu/fI924mKyoL3/EWjhxeN5mn+ZYQu/r8pwaJ0P+is7eqT5tMy67gKtLwL
WLdBa2B33Tju3fz2IetpwN1UiHUbRQLkO1e15Ldq6DgEsueS60aCWxexVTSdyI8c
+QOHPTJ2RsVjSHc/DAwRQ6q+CSBYLDKiZv8XKbnIMNib83TWnt/apyH2XNeOmDzc
R6jaYm5XdKIsVevix5Ol3URRaWe3OyaP0yn3uj7LNEeaASJpEREph1V7pQhpRL1b
lxXbyP6F0f0VguVw9nmXhy7DPGQs4QhVjzyYzxai0RSL1NtGWsHeo06JFG78yf3D
GpfTfi2tsahxH82UpcZAskjyToZCrfMPbcSWywF3c4+0
-----END CERTIFICATE-----
