Certificate:
    Data:
        Version: 3 (0x2)
        Serial Number: 9926 (0x26c6)
    Signature Algorithm: sha256WithRSAEncryption
        Issuer: C=US, ST=OH, L=Columbus, O=VikingVPN, OU=MyOrganizationalUnit, CN=VikingVPN CA/name=EasyRSA/emailAddress=me@myhost.mydomain
        Validity
            Not Before: Jan 17 02:15:32 2017 GMT
            Not After : Jan 15 02:15:32 2027 GMT
        Subject: CN=Client2643Certd213a8
        Subject Public Key Info:
            Public Key Algorithm: rsaEncryption
                Public-Key: (4096 bit)
                Modulus:
                    00:b0:b7:f0:04:5d:ed:b1:c3:cf:c7:f1:f7:57:fb:
                    71:ad:1c:d6:16:b5:da:67:78:5b:e2:b6:51:ec:d5:
                    e4:78:6e:fc:fe:27:65:ce:46:9c:4c:d5:67:92:21:
                    fa:f8:72:7c:50:e9:bb:9e:af:d7:99:63:91:e4:23:
                    73:db:dc:87:1d:a2:92:01:49:5a:f2:45:d5:53:9e:
                    48:32:dd:c5:56:3e:b5:01:ac:66:ea:a3:4c:d4:59:
                    92:58:66:9b:b6:69:2a:64:fd:3d:81:6f:6c:31:b4:
                    10:ba:35:99:76:59:bf:00:a3:ee:ad:30:8d:e7:9e:
                    bd:55:56:f6:e7:74:98:60:dd:0a:42:70:45:1e:b3:
                    2e:44:64:0a:ff:60:ac:ac:0d:84:83:eb:3b:33:83:
                    b5:48:48:69:62:6f:9d:84:4a:ec:53:54:92:a3:e2:
                    08:23:fe:62:98:09:2a:03:8d:f7:f9:c9:c7:4d:e3:
                    c2:24:e1:6a:e0:0c:a3:80:e0:17:ca:1d:56:c4:3f:
                    6b:89:ae:40:ea:af:cd:dd:b4:de:fb:1c:d2:55:ef:
                    7f:1a:60:a3:de:1b:b1:c8:81:54:09:c7:5d:a6:5d:
                    ff:01:64:2a:ee:5a:72:d6:d0:61:87:42:34:98:d2:
                    65:52:82:77:a7:4e:9c:58:45:7c:fa:99:d4:04:51:
                    bc:8a:34:6b:71:01:d4:e6:7b:a6:f7:7e:4e:e1:e8:
                    86:85:25:81:db:2b:de:ab:f0:01:fb:d4:63:b0:e5:
                    3b:9a:c9:52:c8:02:eb:db:29:85:89:7f:62:99:b2:
                    4f:5f:db:04:c0:e3:be:f3:0d:3e:19:df:e7:e0:20:
                    b4:85:48:94:5f:6c:64:42:77:ce:af:3e:7b:c0:69:
                    82:f5:32:52:bf:a2:8a:7a:64:ed:d4:d9:17:bc:f9:
                    0f:04:72:67:e9:0c:84:80:5e:30:55:cb:65:98:b2:
                    fa:20:f5:c9:ba:bd:1e:cc:58:3f:92:1d:ba:32:4e:
                    66:a7:4b:05:5a:e1:f0:9b:d0:fa:ca:fa:ee:cd:7f:
                    17:29:51:4b:7f:96:ff:22:4f:c0:a7:24:4b:10:a0:
                    a4:88:c1:9b:16:91:60:39:31:1d:94:c1:0a:55:72:
                    d5:99:60:e3:79:7c:b5:82:5a:44:c4:39:6d:3c:71:
                    19:54:7e:76:71:58:d9:ff:d3:05:44:96:43:14:ab:
                    f2:50:46:e2:22:7a:16:57:7a:03:c5:b7:fd:14:3b:
                    eb:3a:bc:3c:38:ba:da:c5:26:a7:e7:c7:99:c2:5c:
                    f0:43:aa:f3:5c:76:9b:88:29:e5:7d:9e:4a:a1:6e:
                    39:ba:69:39:d7:d5:2c:7d:53:07:e4:eb:c6:ee:44:
                    83:33:a7
                Exponent: 65537 (0x10001)
        X509v3 extensions:
            X509v3 Basic Constraints: 
                CA:FALSE
            Netscape Comment: 
                Easy-RSA Generated Certificate
            X509v3 Subject Key Identifier: 
                06:CC:20:1D:E9:20:0B:2E:00:77:7D:3B:47:33:14:41:F1:A9:3F:59
            X509v3 Authority Key Identifier: 
                keyid:12:CD:60:04:D2:A0:80:9E:70:ED:C6:99:B8:7B:2C:C6:52:FD:19:A1
                DirName:/C=US/ST=OH/L=Columbus/O=VikingVPN/OU=MyOrganizationalUnit/CN=VikingVPN CA/name=EasyRSA/emailAddress=me@myhost.mydomain
                serial:CF:35:85:EE:80:BF:2A:3E

            X509v3 Extended Key Usage: 
                TLS Web Client Authentication
            X509v3 Key Usage: 
                Digital Signature
    Signature Algorithm: sha256WithRSAEncryption
         8d:b8:b3:b6:01:f0:78:af:a3:34:60:4b:29:90:0a:03:56:59:
         f0:20:d4:80:13:52:94:6a:98:87:4f:d4:97:29:5a:b8:83:68:
         bb:3a:db:82:94:e1:99:85:3b:be:d9:ad:82:3e:00:1b:15:23:
         9c:c3:a1:09:e3:55:17:d1:6c:a7:21:d4:a3:c7:d8:c3:8c:e4:
         20:6a:4c:b1:ba:bb:69:d0:ed:17:04:8f:c1:1c:db:6c:55:32:
         c0:a6:e0:b2:31:2b:b6:56:5c:39:14:96:9d:9b:54:85:52:1a:
         4b:43:91:6f:28:1f:7f:b3:99:ea:7f:fe:8d:d3:32:de:c4:84:
         34:56:fe:ac:73:cb:da:84:f3:19:55:d6:36:47:18:a0:e2:da:
         18:27:6b:37:1c:41:0b:3c:11:55:7e:aa:ef:66:dd:4d:dc:e3:
         95:a4:35:60:5e:7c:c9:1b:b6:d1:36:0d:0a:26:7d:e9:46:46:
         7f:14:fe:e6:6e:28:c0:9c:af:d4:9f:47:ba:a0:3c:16:fb:37:
         57:8d:cb:f7:f5:ae:2f:5a:b4:e4:4b:03:99:f8:ce:5e:93:c2:
         0a:7b:3a:dc:3f:86:56:31:76:fa:04:66:cd:5b:0c:d6:f2:55:
         7d:37:86:a0:80:d4:42:5d:6a:21:bd:0b:9b:f0:d1:4e:e5:62:
         df:f7:e8:7b:2f:ac:7b:53:05:54:78:9a:b2:e0:cb:86:fb:ee:
         59:70:07:06:a5:08:b4:58:77:8a:98:57:68:ae:04:83:1a:6b:
         8b:39:bc:71:9f:ed:68:9d:6a:1c:0c:85:b2:c9:12:c1:64:7d:
         66:93:17:6c:1d:0f:7f:d9:2a:ca:cd:93:54:92:8b:e4:43:f6:
         1a:b4:28:a1:e8:7a:aa:0b:98:48:a7:17:27:0c:a5:be:78:52:
         ab:c0:11:df:c3:f3:59:d3:b1:7a:7b:94:cf:10:98:c4:57:79:
         2e:64:bc:95:3b:39:90:93:1b:58:a8:3f:08:bd:b7:f7:24:48:
         b2:d3:14:dd:7e:8b:d7:f3:64:d8:45:07:cf:27:d1:ff:12:28:
         e0:6d:7f:19:df:42:73:a4:be:82:08:c7:c2:05:07:4b:e1:ec:
         36:04:16:e7:5f:b5:2c:93:1b:c5:f3:e8:59:e0:64:1f:c6:81:
         46:b5:ce:95:f3:a5:8a:f9:01:d8:85:de:7b:8f:9f:9e:c1:19:
         84:85:ee:e6:7d:5f:31:82:02:0e:d1:81:5e:69:c3:70:aa:10:
         83:8b:64:17:3b:de:e9:c4:96:39:5f:60:e4:4c:20:bf:92:6f:
         a8:d0:ae:84:db:8f:5f:0e:80:d3:64:bb:6c:9e:bd:82:33:8a:
         1f:9e:f2:a8:11:49:e0:1f
-----BEGIN CERTIFICATE-----
MIIGrTCCBJWgAwIBAgICJsYwDQYJKoZIhvcNAQELBQAwgawxCzAJBgNVBAYTAlVT
MQswCQYDVQQIEwJPSDERMA8GA1UEBxMIQ29sdW1idXMxEjAQBgNVBAoTCVZpa2lu
Z1ZQTjEdMBsGA1UECxMUTXlPcmdhbml6YXRpb25hbFVuaXQxFTATBgNVBAMTDFZp
a2luZ1ZQTiBDQTEQMA4GA1UEKRMHRWFzeVJTQTEhMB8GCSqGSIb3DQEJARYSbWVA
bXlob3N0Lm15ZG9tYWluMB4XDTE3MDExNzAyMTUzMloXDTI3MDExNTAyMTUzMlow
HzEdMBsGA1UEAxMUQ2xpZW50MjY0M0NlcnRkMjEzYTgwggIiMA0GCSqGSIb3DQEB
AQUAA4ICDwAwggIKAoICAQCwt/AEXe2xw8/H8fdX+3GtHNYWtdpneFvitlHs1eR4
bvz+J2XORpxM1WeSIfr4cnxQ6buer9eZY5HkI3Pb3IcdopIBSVryRdVTnkgy3cVW
PrUBrGbqo0zUWZJYZpu2aSpk/T2Bb2wxtBC6NZl2Wb8Ao+6tMI3nnr1VVvbndJhg
3QpCcEUesy5EZAr/YKysDYSD6zszg7VISGlib52ESuxTVJKj4ggj/mKYCSoDjff5
ycdN48Ik4WrgDKOA4BfKHVbEP2uJrkDqr83dtN77HNJV738aYKPeG7HIgVQJx12m
Xf8BZCruWnLW0GGHQjSY0mVSgnenTpxYRXz6mdQEUbyKNGtxAdTme6b3fk7h6IaF
JYHbK96r8AH71GOw5TuayVLIAuvbKYWJf2KZsk9f2wTA477zDT4Z3+fgILSFSJRf
bGRCd86vPnvAaYL1MlK/oop6ZO3U2Re8+Q8EcmfpDISAXjBVy2WYsvog9cm6vR7M
WD+SHboyTmanSwVa4fCb0PrK+u7NfxcpUUt/lv8iT8CnJEsQoKSIwZsWkWA5MR2U
wQpVctWZYON5fLWCWkTEOW08cRlUfnZxWNn/0wVElkMUq/JQRuIiehZXegPFt/0U
O+s6vDw4utrFJqfnx5nCXPBDqvNcdpuIKeV9nkqhbjm6aTnX1Sx9Uwfk68buRIMz
pwIDAQABo4IBYzCCAV8wCQYDVR0TBAIwADAtBglghkgBhvhCAQ0EIBYeRWFzeS1S
U0EgR2VuZXJhdGVkIENlcnRpZmljYXRlMB0GA1UdDgQWBBQGzCAd6SALLgB3fTtH
MxRB8ak/WTCB4QYDVR0jBIHZMIHWgBQSzWAE0qCAnnDtxpm4eyzGUv0ZoaGBsqSB
rzCBrDELMAkGA1UEBhMCVVMxCzAJBgNVBAgTAk9IMREwDwYDVQQHEwhDb2x1bWJ1
czESMBAGA1UEChMJVmlraW5nVlBOMR0wGwYDVQQLExRNeU9yZ2FuaXphdGlvbmFs
VW5pdDEVMBMGA1UEAxMMVmlraW5nVlBOIENBMRAwDgYDVQQpEwdFYXN5UlNBMSEw
HwYJKoZIhvcNAQkBFhJtZUBteWhvc3QubXlkb21haW6CCQDPNYXugL8qPjATBgNV
HSUEDDAKBggrBgEFBQcDAjALBgNVHQ8EBAMCB4AwDQYJKoZIhvcNAQELBQADggIB
AI24s7YB8HivozRgSymQCgNWWfAg1IATUpRqmIdP1JcpWriDaLs624KU4ZmFO77Z
rYI+ABsVI5zDoQnjVRfRbKch1KPH2MOM5CBqTLG6u2nQ7RcEj8Ec22xVMsCm4LIx
K7ZWXDkUlp2bVIVSGktDkW8oH3+zmep//o3TMt7EhDRW/qxzy9qE8xlV1jZHGKDi
2hgnazccQQs8EVV+qu9m3U3c45WkNWBefMkbttE2DQomfelGRn8U/uZuKMCcr9Sf
R7qgPBb7N1eNy/f1ri9atORLA5n4zl6Twgp7Otw/hlYxdvoEZs1bDNbyVX03hqCA
1EJdaiG9C5vw0U7lYt/36HsvrHtTBVR4mrLgy4b77llwBwalCLRYd4qYV2iuBIMa
a4s5vHGf7WidahwMhbLJEsFkfWaTF2wdD3/ZKsrNk1SSi+RD9hq0KKHoeqoLmEin
FycMpb54UqvAEd/D81nTsXp7lM8QmMRXeS5kvJU7OZCTG1ioPwi9t/ckSLLTFN1+
i9fzZNhFB88n0f8SKOBtfxnfQnOkvoIIx8IFB0vh7DYEFudftSyTG8Xz6FngZB/G
gUa1zpXzpYr5AdiF3nuPn57BGYSF7uZ9XzGCAg7RgV5pw3CqEIOLZBc73unEljlf
YORMIL+Sb6jQroTbj18OgNNku2yevYIzih+e8qgRSeAf
-----END CERTIFICATE-----
