Certificate:
    Data:
        Version: 3 (0x2)
        Serial Number: 9931 (0x26cb)
    Signature Algorithm: sha256WithRSAEncryption
        Issuer: C=US, ST=OH, L=Columbus, O=VikingVPN, OU=MyOrganizationalUnit, CN=VikingVPN CA/name=EasyRSA/emailAddress=me@myhost.mydomain
        Validity
            Not Before: Jan 19 06:52:49 2017 GMT
            Not After : Jan 17 06:52:49 2027 GMT
        Subject: CN=Client1815Cert4da85a
        Subject Public Key Info:
            Public Key Algorithm: rsaEncryption
                Public-Key: (4096 bit)
                Modulus:
                    00:c7:6f:02:77:ce:eb:b9:2d:2a:5f:65:ab:84:db:
                    0a:4d:a9:87:be:8b:d9:47:8c:b3:25:87:48:ac:66:
                    5e:43:d7:2f:e9:3a:a0:65:7d:6c:1b:90:e5:86:8e:
                    53:28:de:57:bb:8c:e2:7d:92:f9:18:d1:b9:bb:22:
                    2b:9f:93:9a:8a:64:5a:e0:60:42:14:8c:a5:aa:c8:
                    b1:07:31:69:0e:32:cd:c4:94:db:0b:93:37:51:24:
                    e4:86:82:b0:b3:69:4e:b3:2a:8f:54:86:2c:28:65:
                    e4:5d:08:61:86:b3:44:8a:56:80:66:db:f8:e9:59:
                    a2:5e:23:20:8f:ea:38:df:d0:e1:49:26:93:2c:75:
                    3b:f4:45:29:95:d7:be:53:36:bf:27:71:80:5a:ab:
                    7e:57:10:f0:78:43:c7:f3:24:fa:35:e5:5f:71:c8:
                    03:63:16:a2:40:7f:e1:fd:c6:44:61:dc:1b:b8:ee:
                    69:42:5d:40:b5:c0:98:0a:69:d4:85:99:cd:74:4e:
                    11:18:7e:f0:9a:3c:8f:79:ae:2c:3d:4d:ab:0d:10:
                    9e:30:7c:f0:ac:d3:bc:28:6e:7c:68:dd:31:bd:73:
                    a4:80:b8:cc:68:2b:79:e1:1d:39:d6:b6:a4:83:35:
                    2d:47:1a:5c:bf:4b:5c:84:1e:f8:0f:cb:5b:69:e0:
                    24:16:91:62:31:c1:8b:2d:87:bb:c2:c9:04:05:1e:
                    9c:b3:59:eb:dd:0c:e3:01:53:26:ab:92:db:42:6e:
                    a9:93:83:2e:f9:50:9d:b1:9c:3f:63:82:1d:72:41:
                    c8:4a:20:bd:d6:53:2e:53:bd:ab:7a:51:3d:4c:d0:
                    98:25:42:2b:12:8c:e4:88:08:ef:2b:70:97:62:da:
                    7e:01:93:42:0f:68:a4:6a:55:1a:df:a3:a7:d3:7b:
                    5e:99:45:29:e7:5b:27:c2:c8:74:7a:21:54:19:c5:
                    36:9d:0b:24:1c:ba:13:94:56:ca:30:e1:22:b7:d0:
                    ed:a9:0b:46:93:e1:73:63:e5:fd:cf:b9:86:ed:31:
                    05:a4:5a:84:e5:5f:33:cc:92:1c:67:5d:49:d2:83:
                    7a:7c:b6:e8:aa:b7:e6:91:98:02:2a:e9:ad:91:ad:
                    fd:ed:8e:cb:9f:38:a6:cc:c1:a8:f9:e9:a0:39:63:
                    38:3c:da:71:3a:6f:60:34:d6:5c:dc:7f:ee:c0:ee:
                    fa:c1:6d:ac:7c:03:be:4d:07:09:74:93:db:90:8a:
                    96:ec:54:fa:74:0e:1e:09:0c:54:54:3c:ac:66:ae:
                    02:d9:2d:d1:39:3c:3f:bf:33:d5:e3:b3:30:30:de:
                    bb:bc:60:1f:39:41:0d:ff:21:fd:e9:04:55:94:57:
                    05:1a:ef
                Exponent: 65537 (0x10001)
        X509v3 extensions:
            X509v3 Basic Constraints: 
                CA:FALSE
            Netscape Comment: 
                Easy-RSA Generated Certificate
            X509v3 Subject Key Identifier: 
                5A:D5:26:0C:5F:79:19:97:91:D8:75:02:C4:8C:82:C2:08:41:66:77
            X509v3 Authority Key Identifier: 
                keyid:12:CD:60:04:D2:A0:80:9E:70:ED:C6:99:B8:7B:2C:C6:52:FD:19:A1
                DirName:/C=US/ST=OH/L=Columbus/O=VikingVPN/OU=MyOrganizationalUnit/CN=VikingVPN CA/name=EasyRSA/emailAddress=me@myhost.mydomain
                serial:CF:35:85:EE:80:BF:2A:3E

            X509v3 Extended Key Usage: 
                TLS Web Client Authentication
            X509v3 Key Usage: 
                Digital Signature
    Signature Algorithm: sha256WithRSAEncryption
         53:f7:97:19:e6:0e:3a:bf:cc:44:79:d6:b6:19:bb:ca:6d:0e:
         54:b2:1c:63:53:82:96:50:d5:23:d4:5c:b9:68:1f:ef:7a:95:
         4a:4f:18:1a:3d:e0:98:81:db:bc:67:6b:f0:f3:c5:3f:93:6d:
         c8:86:90:d4:eb:62:73:e5:e2:80:1f:4b:29:3b:67:29:cd:8f:
         21:e4:13:50:da:ed:f3:ec:0e:36:66:93:55:a5:60:3a:73:f5:
         90:79:dd:39:b8:c5:3b:5e:95:f6:b7:bb:9e:3e:a1:0c:68:6e:
         d8:8f:e8:c1:ee:d6:c8:dc:44:f0:1b:75:fb:91:cb:51:b6:18:
         41:26:90:00:1f:93:6c:b4:9c:3a:d9:b7:fe:28:77:23:a4:43:
         e6:39:17:d9:6d:72:a5:b3:5e:b7:ef:3b:37:91:e1:bf:f0:f5:
         c5:b3:05:ae:4c:00:77:c9:7e:26:cd:65:07:62:db:8f:ab:07:
         36:f8:16:09:d3:b5:cf:cb:00:da:4c:5c:d7:17:4f:de:dd:15:
         b9:b1:6d:92:d9:db:b4:93:8c:75:db:1b:21:10:7b:8e:cc:bf:
         6d:e7:6f:17:1a:51:01:18:9a:70:32:d3:36:f1:a6:ec:6c:1c:
         01:09:64:f3:a9:d7:a6:ac:dc:45:48:b8:6c:15:36:94:62:66:
         4f:fe:e3:4c:50:81:03:c1:84:eb:c1:d9:2c:52:e6:a8:e4:7c:
         e6:a0:fd:1c:f3:bf:fd:cf:ab:44:27:c4:e7:06:2e:33:5e:b5:
         b1:7f:86:a3:16:ce:f4:15:00:90:74:44:5f:cb:83:ea:2c:d3:
         5a:89:a0:2b:b5:25:79:92:71:8c:08:f1:9d:2b:15:bf:6f:ef:
         c9:4c:59:e4:4e:54:ed:b0:be:92:51:05:e2:82:0f:6c:e7:bf:
         63:42:49:bd:71:e4:f4:0f:f6:63:2e:90:7a:60:7c:94:da:bd:
         f8:2a:9e:0d:0e:1f:d9:17:d3:ca:5d:df:e6:76:3b:de:9c:2e:
         42:5a:2d:2b:3e:85:ab:fb:c0:2b:20:06:21:97:b9:af:8a:b1:
         16:df:76:dc:43:30:af:f1:30:55:36:88:3f:e3:29:cf:9c:9b:
         6a:84:c8:1c:6f:91:80:2c:3c:4c:3f:66:47:3b:64:0a:b3:28:
         24:1e:7c:3c:b4:e6:0f:1b:07:05:74:bf:2a:7c:7d:a8:ef:8e:
         e9:77:73:1b:e0:ba:05:36:50:cb:3c:05:f7:94:8b:d5:b5:a7:
         4e:4d:be:dd:f9:fb:13:08:1f:cd:da:c7:c0:0e:c2:0e:3e:4f:
         50:99:44:3b:8b:bb:31:4e:05:2b:f6:68:fd:30:e4:3b:c7:48:
         ca:cf:b4:b4:00:ab:c5:8b
-----BEGIN CERTIFICATE-----
MIIGrTCCBJWgAwIBAgICJsswDQYJKoZIhvcNAQELBQAwgawxCzAJBgNVBAYTAlVT
MQswCQYDVQQIEwJPSDERMA8GA1UEBxMIQ29sdW1idXMxEjAQBgNVBAoTCVZpa2lu
Z1ZQTjEdMBsGA1UECxMUTXlPcmdhbml6YXRpb25hbFVuaXQxFTATBgNVBAMTDFZp
a2luZ1ZQTiBDQTEQMA4GA1UEKRMHRWFzeVJTQTEhMB8GCSqGSIb3DQEJARYSbWVA
bXlob3N0Lm15ZG9tYWluMB4XDTE3MDExOTA2NTI0OVoXDTI3MDExNzA2NTI0OVow
HzEdMBsGA1UEAxMUQ2xpZW50MTgxNUNlcnQ0ZGE4NWEwggIiMA0GCSqGSIb3DQEB
AQUAA4ICDwAwggIKAoICAQDHbwJ3zuu5LSpfZauE2wpNqYe+i9lHjLMlh0isZl5D
1y/pOqBlfWwbkOWGjlMo3le7jOJ9kvkY0bm7Iiufk5qKZFrgYEIUjKWqyLEHMWkO
Ms3ElNsLkzdRJOSGgrCzaU6zKo9UhiwoZeRdCGGGs0SKVoBm2/jpWaJeIyCP6jjf
0OFJJpMsdTv0RSmV175TNr8ncYBaq35XEPB4Q8fzJPo15V9xyANjFqJAf+H9xkRh
3Bu47mlCXUC1wJgKadSFmc10ThEYfvCaPI95riw9TasNEJ4wfPCs07wobnxo3TG9
c6SAuMxoK3nhHTnWtqSDNS1HGly/S1yEHvgPy1tp4CQWkWIxwYsth7vCyQQFHpyz
WevdDOMBUyarkttCbqmTgy75UJ2xnD9jgh1yQchKIL3WUy5Tvat6UT1M0JglQisS
jOSICO8rcJdi2n4Bk0IPaKRqVRrfo6fTe16ZRSnnWyfCyHR6IVQZxTadCyQcuhOU
Vsow4SK30O2pC0aT4XNj5f3PuYbtMQWkWoTlXzPMkhxnXUnSg3p8tuiqt+aRmAIq
6a2Rrf3tjsufOKbMwaj56aA5Yzg82nE6b2A01lzcf+7A7vrBbax8A75NBwl0k9uQ
ipbsVPp0Dh4JDFRUPKxmrgLZLdE5PD+/M9XjszAw3ru8YB85QQ3/If3pBFWUVwUa
7wIDAQABo4IBYzCCAV8wCQYDVR0TBAIwADAtBglghkgBhvhCAQ0EIBYeRWFzeS1S
U0EgR2VuZXJhdGVkIENlcnRpZmljYXRlMB0GA1UdDgQWBBRa1SYMX3kZl5HYdQLE
jILCCEFmdzCB4QYDVR0jBIHZMIHWgBQSzWAE0qCAnnDtxpm4eyzGUv0ZoaGBsqSB
rzCBrDELMAkGA1UEBhMCVVMxCzAJBgNVBAgTAk9IMREwDwYDVQQHEwhDb2x1bWJ1
czESMBAGA1UEChMJVmlraW5nVlBOMR0wGwYDVQQLExRNeU9yZ2FuaXphdGlvbmFs
VW5pdDEVMBMGA1UEAxMMVmlraW5nVlBOIENBMRAwDgYDVQQpEwdFYXN5UlNBMSEw
HwYJKoZIhvcNAQkBFhJtZUBteWhvc3QubXlkb21haW6CCQDPNYXugL8qPjATBgNV
HSUEDDAKBggrBgEFBQcDAjALBgNVHQ8EBAMCB4AwDQYJKoZIhvcNAQELBQADggIB
AFP3lxnmDjq/zER51rYZu8ptDlSyHGNTgpZQ1SPUXLloH+96lUpPGBo94JiB27xn
a/DzxT+TbciGkNTrYnPl4oAfSyk7ZynNjyHkE1Da7fPsDjZmk1WlYDpz9ZB53Tm4
xTtelfa3u54+oQxobtiP6MHu1sjcRPAbdfuRy1G2GEEmkAAfk2y0nDrZt/4odyOk
Q+Y5F9ltcqWzXrfvOzeR4b/w9cWzBa5MAHfJfibNZQdi24+rBzb4FgnTtc/LANpM
XNcXT97dFbmxbZLZ27STjHXbGyEQe47Mv23nbxcaUQEYmnAy0zbxpuxsHAEJZPOp
16as3EVIuGwVNpRiZk/+40xQgQPBhOvB2SxS5qjkfOag/Rzzv/3Pq0QnxOcGLjNe
tbF/hqMWzvQVAJB0RF/Lg+os01qJoCu1JXmScYwI8Z0rFb9v78lMWeROVO2wvpJR
BeKCD2znv2NCSb1x5PQP9mMukHpgfJTavfgqng0OH9kX08pd3+Z2O96cLkJaLSs+
hav7wCsgBiGXua+KsRbfdtxDMK/xMFU2iD/jKc+cm2qEyBxvkYAsPEw/Zkc7ZAqz
KCQefDy05g8bBwV0vyp8fajvjul3cxvgugU2UMs8BfeUi9W1p05Nvt35+xMIH83a
x8AOwg4+T1CZRDuLuzFOBSv2aP0w5DvHSMrPtLQAq8WL
-----END CERTIFICATE-----
