Certificate:
    Data:
        Version: 3 (0x2)
        Serial Number: 9942 (0x26d6)
    Signature Algorithm: sha256WithRSAEncryption
        Issuer: C=US, ST=OH, L=Columbus, O=VikingVPN, OU=MyOrganizationalUnit, CN=VikingVPN CA/name=EasyRSA/emailAddress=me@myhost.mydomain
        Validity
            Not Before: Jan 20 16:10:53 2017 GMT
            Not After : Jan 18 16:10:53 2027 GMT
        Subject: CN=Client2694Cert680116
        Subject Public Key Info:
            Public Key Algorithm: rsaEncryption
                Public-Key: (4096 bit)
                Modulus:
                    00:c7:ce:6c:ca:37:ee:c4:07:55:25:8d:9e:ca:17:
                    9e:85:ae:ee:32:2b:92:2e:29:eb:68:61:e1:81:88:
                    ae:bb:d0:39:47:1b:db:29:06:40:30:a5:0c:6e:41:
                    71:42:bf:b3:a4:e9:c9:1e:0e:d7:25:88:a1:67:7b:
                    47:40:d7:26:6c:74:00:05:53:5e:7e:70:b4:be:45:
                    83:e1:31:8e:e4:e6:70:27:fc:2a:75:63:59:6d:22:
                    fb:00:8e:dd:ad:88:5a:07:b2:f0:bd:c1:e4:62:1a:
                    ea:a8:43:4e:eb:36:ce:8f:28:5e:24:3a:52:21:56:
                    11:12:bb:d3:85:c6:79:e1:06:d2:54:d9:6b:1e:71:
                    7b:76:5e:5c:2d:5d:62:f1:d6:ab:6f:6c:09:41:18:
                    75:13:53:87:47:5d:01:e2:c7:1c:a4:8b:1b:79:5c:
                    ef:27:01:30:b4:3a:72:ee:21:2d:a7:b9:a9:fd:ce:
                    ee:92:f3:a5:7e:15:20:92:ae:46:24:bb:ad:82:a4:
                    3a:1e:8f:dc:46:5d:2a:9d:84:8e:1e:4f:c4:7d:d8:
                    6a:9d:49:cb:e3:82:81:e1:ed:7c:74:15:30:d9:90:
                    38:4e:b8:ec:3e:1b:c5:d5:60:e8:3f:2e:f6:54:40:
                    f2:98:45:bd:22:ce:a8:54:d8:ed:26:a6:c4:41:1b:
                    26:7a:db:8a:dd:64:d6:b1:04:84:da:c7:6c:20:46:
                    ee:3b:a7:9c:1d:bc:79:03:e2:7c:64:34:37:18:36:
                    18:65:c8:04:8f:30:20:3f:9c:42:35:ed:77:aa:04:
                    d0:ef:18:c8:d0:77:ab:1f:39:12:9f:ad:e9:5f:12:
                    d1:b9:ae:cf:4b:b0:a3:fb:1d:1c:84:05:1c:af:5a:
                    3e:46:81:bc:2c:0a:9e:e7:4e:cd:b6:c1:7f:66:03:
                    83:d5:42:ef:ad:7d:aa:c8:90:f5:8b:3f:a1:58:0a:
                    91:d3:2e:70:b5:88:28:e5:25:bf:88:51:cb:f1:3e:
                    05:99:05:30:cc:36:6a:b5:1d:55:f8:12:c8:aa:57:
                    3e:88:00:c6:7b:b7:27:7e:43:c5:20:06:c6:7d:0e:
                    50:d5:9b:78:0f:b5:52:87:9c:a7:cf:c1:89:8a:cb:
                    6f:10:47:0b:80:6c:f4:34:ff:de:77:ad:60:fa:d7:
                    a4:d2:56:55:ea:dc:2a:ce:62:42:70:b2:e3:fb:4c:
                    a7:c7:ee:7b:8f:f8:0a:2a:4c:99:a7:bd:88:b9:f0:
                    4a:2c:11:f6:59:58:73:aa:69:21:4a:18:01:c8:b9:
                    bc:2f:99:23:b8:aa:86:d3:c8:53:2c:88:4a:cd:b9:
                    57:a5:a5:43:98:95:db:5e:cd:24:50:70:ad:cb:32:
                    40:86:ed
                Exponent: 65537 (0x10001)
        X509v3 extensions:
            X509v3 Basic Constraints: 
                CA:FALSE
            Netscape Comment: 
                Easy-RSA Generated Certificate
            X509v3 Subject Key Identifier: 
                70:D9:20:2C:85:54:71:62:EA:A2:41:74:CA:56:1C:A9:9D:CE:9E:59
            X509v3 Authority Key Identifier: 
                keyid:12:CD:60:04:D2:A0:80:9E:70:ED:C6:99:B8:7B:2C:C6:52:FD:19:A1
                DirName:/C=US/ST=OH/L=Columbus/O=VikingVPN/OU=MyOrganizationalUnit/CN=VikingVPN CA/name=EasyRSA/emailAddress=me@myhost.mydomain
                serial:CF:35:85:EE:80:BF:2A:3E

            X509v3 Extended Key Usage: 
                TLS Web Client Authentication
            X509v3 Key Usage: 
                Digital Signature
    Signature Algorithm: sha256WithRSAEncryption
         e7:68:f9:37:85:a5:38:fb:ab:08:59:27:93:05:07:08:15:d9:
         9f:2d:05:02:64:06:79:40:f5:79:aa:25:5a:0b:37:cf:5c:c9:
         54:71:e0:91:3f:ec:dc:86:17:10:01:94:ca:4e:10:08:f2:9d:
         82:ab:37:13:d9:38:a7:5b:84:56:2a:9f:de:42:83:d3:89:aa:
         68:46:ec:b8:a6:97:fd:fc:4d:e6:8e:ba:17:2b:13:50:a4:83:
         f2:62:5f:b2:00:bc:4f:3e:c1:db:ae:de:36:d4:6d:38:2f:f1:
         c1:01:d4:2b:6d:1b:0e:0c:d1:6f:5e:82:48:5a:ef:27:e9:f6:
         7e:ef:fd:5c:35:9f:74:3a:cf:59:bf:b8:d7:48:9a:d8:39:60:
         93:f5:00:52:9c:7c:7f:dc:d9:78:c0:be:f5:06:ef:0a:c2:de:
         5d:ad:2b:30:c3:57:05:c7:7b:da:89:04:08:cb:32:e5:db:9f:
         61:5d:28:e5:f3:ad:2d:aa:eb:72:bf:95:f5:9b:d0:b8:66:31:
         2c:36:d4:72:f7:ab:cf:f4:08:0b:7e:dd:bf:c7:53:4a:c8:8e:
         53:29:be:30:85:d5:13:f1:0a:a5:7e:7a:f6:cf:da:21:20:e1:
         08:4f:44:cb:bf:21:62:0d:29:ab:70:57:39:d1:7b:a8:8a:fc:
         15:38:d2:c5:de:aa:62:e5:5e:60:03:01:c8:93:88:25:58:0c:
         80:d3:87:28:62:69:69:25:c5:a5:e3:95:07:d0:13:6c:0c:82:
         02:d8:33:48:9d:1a:df:e4:ee:47:dc:c5:f2:60:5e:18:a3:9f:
         9c:18:6a:29:5c:32:68:fe:0c:3c:86:84:24:99:eb:47:9a:a3:
         9b:ae:5c:89:7b:d0:6f:58:6b:3b:8c:c9:dd:62:6c:9c:3b:7e:
         60:9a:80:9e:0b:89:26:fb:84:0d:3e:5f:15:34:ab:bc:8f:38:
         39:59:47:ac:98:a0:5c:1c:0a:b4:8e:8b:17:dd:88:72:b5:a6:
         c9:ac:6f:b5:f5:ce:3c:a7:6e:5b:d1:ef:b0:7a:e8:ff:06:60:
         a5:72:6f:88:a8:bb:78:74:6e:c5:93:99:cd:e8:0f:c4:5c:89:
         65:79:a2:e7:55:cc:0c:3f:e2:cf:0b:c0:ce:d7:74:c6:a7:ae:
         14:50:82:5d:6e:80:c6:bb:44:1b:7b:ac:ed:5a:45:98:57:bd:
         a9:ea:ab:46:b9:74:4b:68:46:46:64:78:85:d6:b9:80:6f:24:
         50:3b:d3:eb:ca:c6:d9:ff:21:db:63:e0:58:70:39:15:29:3f:
         d7:6a:3d:7f:56:dc:de:23:0c:7c:ff:d5:5c:a7:05:e8:29:76:
         16:7a:a5:8c:6b:b2:29:58
-----BEGIN CERTIFICATE-----
MIIGrTCCBJWgAwIBAgICJtYwDQYJKoZIhvcNAQELBQAwgawxCzAJBgNVBAYTAlVT
MQswCQYDVQQIEwJPSDERMA8GA1UEBxMIQ29sdW1idXMxEjAQBgNVBAoTCVZpa2lu
Z1ZQTjEdMBsGA1UECxMUTXlPcmdhbml6YXRpb25hbFVuaXQxFTATBgNVBAMTDFZp
a2luZ1ZQTiBDQTEQMA4GA1UEKRMHRWFzeVJTQTEhMB8GCSqGSIb3DQEJARYSbWVA
bXlob3N0Lm15ZG9tYWluMB4XDTE3MDEyMDE2MTA1M1oXDTI3MDExODE2MTA1M1ow
HzEdMBsGA1UEAxMUQ2xpZW50MjY5NENlcnQ2ODAxMTYwggIiMA0GCSqGSIb3DQEB
AQUAA4ICDwAwggIKAoICAQDHzmzKN+7EB1UljZ7KF56Fru4yK5IuKetoYeGBiK67
0DlHG9spBkAwpQxuQXFCv7Ok6ckeDtcliKFne0dA1yZsdAAFU15+cLS+RYPhMY7k
5nAn/Cp1Y1ltIvsAjt2tiFoHsvC9weRiGuqoQ07rNs6PKF4kOlIhVhESu9OFxnnh
BtJU2WsecXt2XlwtXWLx1qtvbAlBGHUTU4dHXQHixxykixt5XO8nATC0OnLuIS2n
uan9zu6S86V+FSCSrkYku62CpDoej9xGXSqdhI4eT8R92GqdScvjgoHh7Xx0FTDZ
kDhOuOw+G8XVYOg/LvZUQPKYRb0izqhU2O0mpsRBGyZ624rdZNaxBITax2wgRu47
p5wdvHkD4nxkNDcYNhhlyASPMCA/nEI17XeqBNDvGMjQd6sfORKfrelfEtG5rs9L
sKP7HRyEBRyvWj5GgbwsCp7nTs22wX9mA4PVQu+tfarIkPWLP6FYCpHTLnC1iCjl
Jb+IUcvxPgWZBTDMNmq1HVX4EsiqVz6IAMZ7tyd+Q8UgBsZ9DlDVm3gPtVKHnKfP
wYmKy28QRwuAbPQ0/953rWD616TSVlXq3CrOYkJwsuP7TKfH7nuP+AoqTJmnvYi5
8EosEfZZWHOqaSFKGAHIubwvmSO4qobTyFMsiErNuVelpUOYldtezSRQcK3LMkCG
7QIDAQABo4IBYzCCAV8wCQYDVR0TBAIwADAtBglghkgBhvhCAQ0EIBYeRWFzeS1S
U0EgR2VuZXJhdGVkIENlcnRpZmljYXRlMB0GA1UdDgQWBBRw2SAshVRxYuqiQXTK
Vhypnc6eWTCB4QYDVR0jBIHZMIHWgBQSzWAE0qCAnnDtxpm4eyzGUv0ZoaGBsqSB
rzCBrDELMAkGA1UEBhMCVVMxCzAJBgNVBAgTAk9IMREwDwYDVQQHEwhDb2x1bWJ1
czESMBAGA1UEChMJVmlraW5nVlBOMR0wGwYDVQQLExRNeU9yZ2FuaXphdGlvbmFs
VW5pdDEVMBMGA1UEAxMMVmlraW5nVlBOIENBMRAwDgYDVQQpEwdFYXN5UlNBMSEw
HwYJKoZIhvcNAQkBFhJtZUBteWhvc3QubXlkb21haW6CCQDPNYXugL8qPjATBgNV
HSUEDDAKBggrBgEFBQcDAjALBgNVHQ8EBAMCB4AwDQYJKoZIhvcNAQELBQADggIB
AOdo+TeFpTj7qwhZJ5MFBwgV2Z8tBQJkBnlA9XmqJVoLN89cyVRx4JE/7NyGFxAB
lMpOEAjynYKrNxPZOKdbhFYqn95Cg9OJqmhG7Liml/38TeaOuhcrE1Ckg/JiX7IA
vE8+wduu3jbUbTgv8cEB1CttGw4M0W9egkha7yfp9n7v/Vw1n3Q6z1m/uNdImtg5
YJP1AFKcfH/c2XjAvvUG7wrC3l2tKzDDVwXHe9qJBAjLMuXbn2FdKOXzrS2q63K/
lfWb0LhmMSw21HL3q8/0CAt+3b/HU0rIjlMpvjCF1RPxCqV+evbP2iEg4QhPRMu/
IWINKatwVznRe6iK/BU40sXeqmLlXmADAciTiCVYDIDThyhiaWklxaXjlQfQE2wM
ggLYM0idGt/k7kfcxfJgXhijn5wYailcMmj+DDyGhCSZ60eao5uuXIl70G9YazuM
yd1ibJw7fmCagJ4LiSb7hA0+XxU0q7yPODlZR6yYoFwcCrSOixfdiHK1psmsb7X1
zjynblvR77B66P8GYKVyb4iou3h0bsWTmc3oD8RciWV5oudVzAw/4s8LwM7XdMan
rhRQgl1ugMa7RBt7rO1aRZhXvanqq0a5dEtoRkZkeIXWuYBvJFA70+vKxtn/Idtj
4FhwORUpP9dqPX9W3N4jDHz/1VynBegpdhZ6pYxrsilY
-----END CERTIFICATE-----
