Certificate:
    Data:
        Version: 3 (0x2)
        Serial Number: 9949 (0x26dd)
    Signature Algorithm: sha256WithRSAEncryption
        Issuer: C=US, ST=OH, L=Columbus, O=VikingVPN, OU=MyOrganizationalUnit, CN=VikingVPN CA/name=EasyRSA/emailAddress=me@myhost.mydomain
        Validity
            Not Before: Jan 21 16:17:03 2017 GMT
            Not After : Jan 19 16:17:03 2027 GMT
        Subject: CN=Client2580Certf07e2d
        Subject Public Key Info:
            Public Key Algorithm: rsaEncryption
                Public-Key: (4096 bit)
                Modulus:
                    00:cb:47:c6:ca:5b:cf:98:42:5c:3b:71:d0:27:23:
                    34:49:23:bc:48:be:b3:ac:dd:b5:91:66:98:19:07:
                    94:6c:de:99:27:40:fa:45:b8:7e:d2:2e:82:0c:10:
                    d9:c0:b5:e6:ca:84:94:ce:8b:de:18:c9:b4:32:60:
                    f1:a8:58:fd:0e:81:97:d9:89:be:ff:68:97:55:20:
                    b2:cb:06:8b:8d:26:a2:5d:a3:46:b1:bb:b1:bb:ff:
                    b7:32:dc:85:73:c6:32:6b:21:ba:2c:29:c5:f4:b6:
                    f4:80:4f:cc:f4:1b:7e:9d:8f:b8:59:de:45:15:57:
                    05:08:6e:cf:9c:89:cf:f5:20:60:02:0e:2a:26:61:
                    37:9a:6b:43:29:cb:b6:25:31:8b:40:a5:c8:47:67:
                    41:ad:dd:d7:ea:e7:b0:b9:ea:99:ac:3d:a0:1d:6e:
                    50:62:a8:a1:01:84:59:76:57:00:26:0f:38:dd:81:
                    4d:bd:d6:52:a1:5b:91:e2:a3:7a:32:6e:60:98:02:
                    f9:6e:0c:6a:a6:56:ca:c8:ab:27:5a:1d:a3:f1:3c:
                    d4:31:03:0f:f4:eb:4b:eb:b0:5b:30:18:a8:4d:4b:
                    38:d6:dc:0f:5f:1e:b9:19:a6:cd:1b:dd:ec:cf:35:
                    c2:ed:46:4f:e4:04:df:f0:7b:85:49:fe:b3:83:4f:
                    ea:65:01:ab:a5:a4:77:78:b9:9e:14:cd:4a:aa:4e:
                    d5:81:f8:42:5b:47:c6:b2:e8:bb:ec:55:dd:f2:3a:
                    73:a7:b0:ab:a8:63:6a:b4:e1:39:35:82:07:9b:d4:
                    bb:f1:d2:76:a6:06:10:15:9e:81:76:56:0c:3a:8d:
                    76:c8:c0:34:bc:bb:2d:56:82:28:5c:24:94:2e:5c:
                    38:0e:13:93:73:2f:68:39:e3:81:1c:83:d6:5a:bc:
                    a0:a1:ba:61:ae:be:a1:de:6a:7a:22:6c:8c:a5:a2:
                    b0:76:b4:ce:22:f0:2a:a3:ad:c9:71:4a:3a:e9:c4:
                    5d:80:0c:d1:c7:c5:fd:dd:ec:bd:dc:18:79:3e:63:
                    68:80:da:c1:b4:53:a4:c5:71:62:cc:c1:ef:70:3f:
                    a8:a2:7d:2b:dc:33:6c:4a:3b:c1:26:a3:88:f3:44:
                    b9:64:a2:a0:21:6a:41:6e:40:f3:c5:12:f1:1c:8b:
                    5d:01:1b:75:ec:41:16:b1:0d:1f:27:fb:ff:77:69:
                    0b:f1:3d:71:f0:88:d4:f8:4e:8d:23:96:f0:52:88:
                    90:01:f2:f1:47:fe:f8:e1:a5:3b:cd:13:a2:14:08:
                    0d:53:46:d6:e9:aa:d4:56:62:60:67:0f:c6:42:68:
                    38:10:52:e2:3b:c7:93:20:f7:fc:9e:24:25:6a:1a:
                    34:70:91
                Exponent: 65537 (0x10001)
        X509v3 extensions:
            X509v3 Basic Constraints: 
                CA:FALSE
            Netscape Comment: 
                Easy-RSA Generated Certificate
            X509v3 Subject Key Identifier: 
                BC:94:BF:29:B8:FF:52:CE:27:2E:8A:47:A9:17:31:04:FC:47:E8:7D
            X509v3 Authority Key Identifier: 
                keyid:12:CD:60:04:D2:A0:80:9E:70:ED:C6:99:B8:7B:2C:C6:52:FD:19:A1
                DirName:/C=US/ST=OH/L=Columbus/O=VikingVPN/OU=MyOrganizationalUnit/CN=VikingVPN CA/name=EasyRSA/emailAddress=me@myhost.mydomain
                serial:CF:35:85:EE:80:BF:2A:3E

            X509v3 Extended Key Usage: 
                TLS Web Client Authentication
            X509v3 Key Usage: 
                Digital Signature
    Signature Algorithm: sha256WithRSAEncryption
         5a:27:25:07:de:62:db:18:7d:e2:3c:bb:81:22:85:d1:ed:b6:
         82:f5:57:c7:35:9c:37:92:eb:4e:89:bf:ab:b0:d5:80:ba:13:
         b8:a6:fa:8a:e3:89:a7:64:35:9c:b3:76:a9:3b:fa:09:db:cb:
         82:17:85:da:55:c1:4a:45:aa:48:29:1a:fc:4a:1f:c3:16:60:
         f5:59:f0:1c:c5:01:ea:61:74:7e:7f:22:29:79:8e:23:8a:79:
         2f:88:f9:8d:ce:4d:84:1e:d4:8b:7d:94:8f:01:85:4e:76:54:
         37:5c:74:50:6d:b4:bd:9c:5e:23:4c:41:31:b8:3c:a2:f0:1c:
         6d:12:ec:8d:b8:8b:fb:e5:bd:ab:d9:7a:35:89:05:f0:f9:b0:
         c0:b2:ea:02:b5:36:f7:e0:16:9a:55:a3:f6:19:95:48:96:28:
         33:1a:f3:c8:bd:2f:ce:09:9e:d7:0d:1a:11:cc:f3:6a:de:63:
         f8:55:e2:35:42:ae:de:cf:be:5b:47:2d:3e:6a:d6:c4:59:bf:
         28:af:51:52:ff:0b:f7:8c:7e:7a:59:34:a6:4e:7c:98:fe:46:
         4d:8e:36:62:a4:f5:41:a8:1d:cb:46:90:d6:ac:e0:c4:2f:8a:
         13:7a:12:b5:3d:b0:61:a3:c2:2f:93:eb:2b:d9:96:12:bb:6e:
         07:a9:77:8f:62:f9:15:e7:b5:fd:4b:46:a1:33:7e:88:15:88:
         f2:a5:4a:92:5e:e5:91:c1:5a:11:88:d9:c6:eb:0f:36:e6:87:
         a7:19:5a:51:23:8b:69:90:0a:5a:e6:95:8f:00:c5:d5:85:72:
         ee:88:64:a2:93:f5:c2:bb:2b:06:17:1b:99:46:56:38:4a:e6:
         ca:da:c4:f2:4e:c9:6d:c2:bf:69:44:e8:ae:dd:8d:41:cf:a6:
         be:7c:80:0c:08:02:cf:d7:8a:54:26:90:95:12:5b:94:a8:de:
         ab:1a:6a:b8:1f:88:2d:7a:1f:59:04:50:9c:ae:10:07:6a:d3:
         a0:90:70:c0:32:60:11:27:ce:ef:9f:87:a1:f0:1c:b9:51:8b:
         48:4c:1a:68:0a:77:74:c1:4e:93:1d:42:54:56:02:a1:38:c1:
         d8:8f:33:ed:9c:b3:bb:c6:84:69:ac:f0:99:7b:a6:e2:2e:28:
         b7:08:ca:35:67:e5:55:7f:21:56:0e:49:6d:5a:25:45:ad:1f:
         13:5e:32:a7:b6:2d:58:73:d2:5e:67:f0:b3:7a:82:41:0d:da:
         ab:c4:aa:df:8f:31:82:45:40:5f:e4:b9:cb:2e:a9:45:b6:2f:
         ce:89:df:eb:7e:30:98:6b:f0:0b:8a:f6:b8:55:6a:b9:23:fb:
         71:5f:2e:1b:77:24:45:27
-----BEGIN CERTIFICATE-----
MIIGrTCCBJWgAwIBAgICJt0wDQYJKoZIhvcNAQELBQAwgawxCzAJBgNVBAYTAlVT
MQswCQYDVQQIEwJPSDERMA8GA1UEBxMIQ29sdW1idXMxEjAQBgNVBAoTCVZpa2lu
Z1ZQTjEdMBsGA1UECxMUTXlPcmdhbml6YXRpb25hbFVuaXQxFTATBgNVBAMTDFZp
a2luZ1ZQTiBDQTEQMA4GA1UEKRMHRWFzeVJTQTEhMB8GCSqGSIb3DQEJARYSbWVA
bXlob3N0Lm15ZG9tYWluMB4XDTE3MDEyMTE2MTcwM1oXDTI3MDExOTE2MTcwM1ow
HzEdMBsGA1UEAxMUQ2xpZW50MjU4MENlcnRmMDdlMmQwggIiMA0GCSqGSIb3DQEB
AQUAA4ICDwAwggIKAoICAQDLR8bKW8+YQlw7cdAnIzRJI7xIvrOs3bWRZpgZB5Rs
3pknQPpFuH7SLoIMENnAtebKhJTOi94YybQyYPGoWP0OgZfZib7/aJdVILLLBouN
JqJdo0axu7G7/7cy3IVzxjJrIbosKcX0tvSAT8z0G36dj7hZ3kUVVwUIbs+cic/1
IGACDiomYTeaa0Mpy7YlMYtApchHZ0Gt3dfq57C56pmsPaAdblBiqKEBhFl2VwAm
DzjdgU291lKhW5Hio3oybmCYAvluDGqmVsrIqydaHaPxPNQxAw/060vrsFswGKhN
SzjW3A9fHrkZps0b3ezPNcLtRk/kBN/we4VJ/rODT+plAaulpHd4uZ4UzUqqTtWB
+EJbR8ay6LvsVd3yOnOnsKuoY2q04Tk1ggeb1Lvx0namBhAVnoF2Vgw6jXbIwDS8
uy1WgihcJJQuXDgOE5NzL2g544Ecg9ZavKChumGuvqHeanoibIylorB2tM4i8Cqj
rclxSjrpxF2ADNHHxf3d7L3cGHk+Y2iA2sG0U6TFcWLMwe9wP6iifSvcM2xKO8Em
o4jzRLlkoqAhakFuQPPFEvEci10BG3XsQRaxDR8n+/93aQvxPXHwiNT4To0jlvBS
iJAB8vFH/vjhpTvNE6IUCA1TRtbpqtRWYmBnD8ZCaDgQUuI7x5Mg9/yeJCVqGjRw
kQIDAQABo4IBYzCCAV8wCQYDVR0TBAIwADAtBglghkgBhvhCAQ0EIBYeRWFzeS1S
U0EgR2VuZXJhdGVkIENlcnRpZmljYXRlMB0GA1UdDgQWBBS8lL8puP9Szicuikep
FzEE/EfofTCB4QYDVR0jBIHZMIHWgBQSzWAE0qCAnnDtxpm4eyzGUv0ZoaGBsqSB
rzCBrDELMAkGA1UEBhMCVVMxCzAJBgNVBAgTAk9IMREwDwYDVQQHEwhDb2x1bWJ1
czESMBAGA1UEChMJVmlraW5nVlBOMR0wGwYDVQQLExRNeU9yZ2FuaXphdGlvbmFs
VW5pdDEVMBMGA1UEAxMMVmlraW5nVlBOIENBMRAwDgYDVQQpEwdFYXN5UlNBMSEw
HwYJKoZIhvcNAQkBFhJtZUBteWhvc3QubXlkb21haW6CCQDPNYXugL8qPjATBgNV
HSUEDDAKBggrBgEFBQcDAjALBgNVHQ8EBAMCB4AwDQYJKoZIhvcNAQELBQADggIB
AFonJQfeYtsYfeI8u4EihdHttoL1V8c1nDeS606Jv6uw1YC6E7im+orjiadkNZyz
dqk7+gnby4IXhdpVwUpFqkgpGvxKH8MWYPVZ8BzFAephdH5/Iil5jiOKeS+I+Y3O
TYQe1It9lI8BhU52VDdcdFBttL2cXiNMQTG4PKLwHG0S7I24i/vlvavZejWJBfD5
sMCy6gK1NvfgFppVo/YZlUiWKDMa88i9L84JntcNGhHM82reY/hV4jVCrt7PvltH
LT5q1sRZvyivUVL/C/eMfnpZNKZOfJj+Rk2ONmKk9UGoHctGkNas4MQvihN6ErU9
sGGjwi+T6yvZlhK7bgepd49i+RXntf1LRqEzfogViPKlSpJe5ZHBWhGI2cbrDzbm
h6cZWlEji2mQClrmlY8AxdWFcu6IZKKT9cK7KwYXG5lGVjhK5sraxPJOyW3Cv2lE
6K7djUHPpr58gAwIAs/XilQmkJUSW5So3qsaargfiC16H1kEUJyuEAdq06CQcMAy
YBEnzu+fh6HwHLlRi0hMGmgKd3TBTpMdQlRWAqE4wdiPM+2cs7vGhGms8Jl7puIu
KLcIyjVn5VV/IVYOSW1aJUWtHxNeMqe2LVhz0l5n8LN6gkEN2qvEqt+PMYJFQF/k
ucsuqUW2L86J3+t+MJhr8AuK9rhVarkj+3FfLht3JEUn
-----END CERTIFICATE-----
