Certificate:
    Data:
        Version: 3 (0x2)
        Serial Number: 9970 (0x26f2)
    Signature Algorithm: sha256WithRSAEncryption
        Issuer: C=US, ST=OH, L=Columbus, O=VikingVPN, OU=MyOrganizationalUnit, CN=VikingVPN CA/name=EasyRSA/emailAddress=me@myhost.mydomain
        Validity
            Not Before: Jan 24 23:23:19 2017 GMT
            Not After : Jan 22 23:23:19 2027 GMT
        Subject: CN=Client2286Certe02a01
        Subject Public Key Info:
            Public Key Algorithm: rsaEncryption
                Public-Key: (4096 bit)
                Modulus:
                    00:ae:b4:b6:c6:c1:a0:28:f4:28:dc:01:7f:8e:e7:
                    8d:2f:65:a4:18:dd:47:09:fd:9c:39:cd:16:bf:05:
                    08:ab:2b:66:36:5e:5f:ae:3e:40:d0:29:3c:f0:48:
                    1f:6d:5f:a7:54:c7:6e:5d:d4:61:ab:2f:73:b3:4d:
                    bd:cb:4d:5d:da:26:23:93:4a:9f:d7:c7:04:0a:bb:
                    3f:5c:05:3e:d3:4e:61:65:ca:32:27:22:1d:0c:a6:
                    47:03:a0:9b:71:79:dd:16:f7:09:59:17:d7:a4:55:
                    9e:f7:a9:64:e8:25:1c:0d:c3:bd:a2:78:89:85:93:
                    d6:a8:5c:48:eb:9e:67:cc:13:15:ff:88:ab:eb:8d:
                    bf:47:c1:b5:e6:24:6c:08:dc:09:19:45:ca:82:d6:
                    af:99:f5:6a:46:d8:70:cc:09:bd:b8:32:a9:a2:93:
                    2f:26:c4:84:9a:dc:57:22:13:f8:72:f5:a0:e7:66:
                    65:03:a9:c5:47:66:41:ee:11:ec:92:27:0a:94:2c:
                    1f:83:a9:e3:32:19:b7:5c:1a:d4:7f:9c:af:a3:93:
                    4c:4b:70:5d:a6:bc:1c:5b:03:82:a7:4c:6a:fe:34:
                    ef:ca:1d:03:1a:1e:97:80:73:67:85:19:36:66:5d:
                    9b:3c:5e:6e:30:12:91:59:4b:57:de:8e:ca:59:f5:
                    18:3f:78:56:1a:b7:74:46:af:af:a7:72:77:c0:19:
                    92:7a:af:10:d0:80:8f:74:ab:3e:0a:e0:9f:69:1c:
                    27:ea:96:93:7e:e4:d3:b0:75:bc:d9:f9:b6:91:ef:
                    90:64:5a:1f:27:46:d7:3a:7a:89:4b:08:d3:70:db:
                    a1:fe:53:8b:c0:d7:43:5f:1d:54:b5:35:49:42:37:
                    d2:c0:d2:f0:14:9e:99:d5:f9:21:c8:fb:82:a2:01:
                    4f:3b:6b:2d:9b:c8:38:4f:f3:65:95:27:26:14:eb:
                    9c:c5:4d:74:2d:03:8c:b5:3b:f1:b1:65:f0:22:8a:
                    72:b5:a8:85:5c:43:cd:e3:d2:7e:95:e0:c3:53:7d:
                    d6:f6:5f:12:42:97:41:8c:42:c8:2f:7a:5c:cf:4d:
                    1e:68:2f:95:d8:3e:78:ba:d5:35:d4:59:73:da:17:
                    57:2a:a2:16:1d:9b:e6:53:1c:6c:32:ca:37:fc:fb:
                    9d:36:88:a9:cf:bf:6a:32:57:01:db:41:ba:ea:44:
                    66:7a:06:4b:ec:a4:87:45:75:93:4e:e2:0f:3f:ac:
                    2b:a3:c1:ad:13:cd:c2:cc:9a:41:62:24:de:ac:cb:
                    b5:49:78:9f:88:89:b1:6e:18:55:83:cb:07:c1:30:
                    bf:16:9a:90:53:55:cf:4d:7c:fa:f8:02:ed:87:ef:
                    eb:bd:2b
                Exponent: 65537 (0x10001)
        X509v3 extensions:
            X509v3 Basic Constraints: 
                CA:FALSE
            Netscape Comment: 
                Easy-RSA Generated Certificate
            X509v3 Subject Key Identifier: 
                14:DD:AA:F7:6E:87:80:52:1A:FA:A4:CE:9E:EC:A3:87:09:87:B1:05
            X509v3 Authority Key Identifier: 
                keyid:12:CD:60:04:D2:A0:80:9E:70:ED:C6:99:B8:7B:2C:C6:52:FD:19:A1
                DirName:/C=US/ST=OH/L=Columbus/O=VikingVPN/OU=MyOrganizationalUnit/CN=VikingVPN CA/name=EasyRSA/emailAddress=me@myhost.mydomain
                serial:CF:35:85:EE:80:BF:2A:3E

            X509v3 Extended Key Usage: 
                TLS Web Client Authentication
            X509v3 Key Usage: 
                Digital Signature
    Signature Algorithm: sha256WithRSAEncryption
         e5:ff:cf:82:56:06:81:0b:fd:3e:53:29:c7:9e:bd:1a:c7:78:
         b8:4b:5b:79:64:14:17:db:de:57:39:bb:03:a1:7d:5b:c1:60:
         46:89:2f:76:46:5c:ef:95:3b:c5:09:1c:da:92:c7:18:dc:17:
         10:28:dc:18:6a:50:b0:64:64:77:24:d3:f2:dd:09:56:e1:8c:
         81:09:12:13:7c:91:01:95:b8:39:f1:2b:43:46:74:c8:e5:66:
         fc:8f:e0:57:8e:61:6c:52:72:33:be:b2:e2:6c:ed:6e:fb:fb:
         dc:91:b4:2a:49:7a:c4:cc:d9:e8:81:00:e9:96:74:86:3a:2e:
         1b:b0:d4:14:17:ae:4b:1b:13:d0:01:0d:b1:41:a7:66:32:2f:
         b7:c6:8a:e4:8b:61:f9:b8:04:b8:72:2b:36:89:3f:49:72:18:
         e4:9c:fa:39:b8:8e:45:cb:64:15:27:7b:c8:3e:90:0c:3f:de:
         65:c2:ac:95:98:ae:98:49:14:36:0c:b7:90:38:59:54:09:6e:
         5c:57:e4:43:ab:a9:46:33:30:63:bb:f6:f8:3b:d5:fd:2d:7e:
         b3:8c:48:ac:dd:d6:67:b8:e2:3d:89:ae:fc:43:85:67:dc:14:
         8c:02:80:79:28:d4:10:aa:ba:f6:d3:04:51:6a:79:38:0d:e2:
         9c:d8:b2:00:08:2e:ef:64:d8:ee:67:e8:42:e1:47:27:a0:6b:
         80:ae:7f:89:cc:be:d8:c5:54:d3:39:1f:40:b4:22:8f:b6:10:
         d8:63:54:08:68:fa:9d:2b:53:53:88:96:95:29:b0:b5:5c:70:
         1c:98:4c:be:a1:63:87:7f:81:69:ee:a0:64:ca:92:ff:0f:5d:
         ed:a0:7d:6b:78:e5:df:28:1a:c8:e3:58:a9:fc:c9:e7:e6:e6:
         c9:db:3f:2b:1f:5f:50:46:58:d0:bc:54:ba:88:79:2b:1c:3c:
         1e:d7:50:d3:4e:b1:38:83:d4:d0:51:ca:56:ae:b8:18:cd:fc:
         f8:08:2b:d2:85:fd:a0:15:21:b1:72:36:cd:ab:c6:66:0f:19:
         b8:13:95:14:37:be:c0:9a:fa:67:9c:5f:78:2e:4c:dc:6e:d8:
         51:69:8d:7a:8d:0e:b0:93:9e:52:2b:a3:07:18:49:a7:0b:fc:
         59:08:ef:f7:eb:cd:4e:b8:46:a8:cf:cf:bb:2b:2e:f8:ee:e8:
         41:14:a3:98:f7:11:76:3a:28:21:6d:dc:5f:4b:d2:da:5c:b5:
         c4:71:a2:c5:0e:1e:21:b1:8b:73:9b:0e:a9:2a:68:69:ae:54:
         96:cc:ff:6c:c2:ed:f3:17:c0:33:dd:0d:af:89:9f:02:87:76:
         2e:98:52:39:56:bb:ba:27
-----BEGIN CERTIFICATE-----
MIIGrTCCBJWgAwIBAgICJvIwDQYJKoZIhvcNAQELBQAwgawxCzAJBgNVBAYTAlVT
MQswCQYDVQQIEwJPSDERMA8GA1UEBxMIQ29sdW1idXMxEjAQBgNVBAoTCVZpa2lu
Z1ZQTjEdMBsGA1UECxMUTXlPcmdhbml6YXRpb25hbFVuaXQxFTATBgNVBAMTDFZp
a2luZ1ZQTiBDQTEQMA4GA1UEKRMHRWFzeVJTQTEhMB8GCSqGSIb3DQEJARYSbWVA
bXlob3N0Lm15ZG9tYWluMB4XDTE3MDEyNDIzMjMxOVoXDTI3MDEyMjIzMjMxOVow
HzEdMBsGA1UEAxMUQ2xpZW50MjI4NkNlcnRlMDJhMDEwggIiMA0GCSqGSIb3DQEB
AQUAA4ICDwAwggIKAoICAQCutLbGwaAo9CjcAX+O540vZaQY3UcJ/Zw5zRa/BQir
K2Y2Xl+uPkDQKTzwSB9tX6dUx25d1GGrL3OzTb3LTV3aJiOTSp/XxwQKuz9cBT7T
TmFlyjInIh0MpkcDoJtxed0W9wlZF9ekVZ73qWToJRwNw72ieImFk9aoXEjrnmfM
ExX/iKvrjb9HwbXmJGwI3AkZRcqC1q+Z9WpG2HDMCb24Mqmiky8mxISa3FciE/hy
9aDnZmUDqcVHZkHuEeySJwqULB+DqeMyGbdcGtR/nK+jk0xLcF2mvBxbA4KnTGr+
NO/KHQMaHpeAc2eFGTZmXZs8Xm4wEpFZS1fejspZ9Rg/eFYat3RGr6+ncnfAGZJ6
rxDQgI90qz4K4J9pHCfqlpN+5NOwdbzZ+baR75BkWh8nRtc6eolLCNNw26H+U4vA
10NfHVS1NUlCN9LA0vAUnpnV+SHI+4KiAU87ay2byDhP82WVJyYU65zFTXQtA4y1
O/GxZfAiinK1qIVcQ83j0n6V4MNTfdb2XxJCl0GMQsgvelzPTR5oL5XYPni61TXU
WXPaF1cqohYdm+ZTHGwyyjf8+502iKnPv2oyVwHbQbrqRGZ6BkvspIdFdZNO4g8/
rCujwa0TzcLMmkFiJN6sy7VJeJ+IibFuGFWDywfBML8WmpBTVc9NfPr4Au2H7+u9
KwIDAQABo4IBYzCCAV8wCQYDVR0TBAIwADAtBglghkgBhvhCAQ0EIBYeRWFzeS1S
U0EgR2VuZXJhdGVkIENlcnRpZmljYXRlMB0GA1UdDgQWBBQU3ar3boeAUhr6pM6e
7KOHCYexBTCB4QYDVR0jBIHZMIHWgBQSzWAE0qCAnnDtxpm4eyzGUv0ZoaGBsqSB
rzCBrDELMAkGA1UEBhMCVVMxCzAJBgNVBAgTAk9IMREwDwYDVQQHEwhDb2x1bWJ1
czESMBAGA1UEChMJVmlraW5nVlBOMR0wGwYDVQQLExRNeU9yZ2FuaXphdGlvbmFs
VW5pdDEVMBMGA1UEAxMMVmlraW5nVlBOIENBMRAwDgYDVQQpEwdFYXN5UlNBMSEw
HwYJKoZIhvcNAQkBFhJtZUBteWhvc3QubXlkb21haW6CCQDPNYXugL8qPjATBgNV
HSUEDDAKBggrBgEFBQcDAjALBgNVHQ8EBAMCB4AwDQYJKoZIhvcNAQELBQADggIB
AOX/z4JWBoEL/T5TKceevRrHeLhLW3lkFBfb3lc5uwOhfVvBYEaJL3ZGXO+VO8UJ
HNqSxxjcFxAo3BhqULBkZHck0/LdCVbhjIEJEhN8kQGVuDnxK0NGdMjlZvyP4FeO
YWxScjO+suJs7W77+9yRtCpJesTM2eiBAOmWdIY6Lhuw1BQXrksbE9ABDbFBp2Yy
L7fGiuSLYfm4BLhyKzaJP0lyGOSc+jm4jkXLZBUne8g+kAw/3mXCrJWYrphJFDYM
t5A4WVQJblxX5EOrqUYzMGO79vg71f0tfrOMSKzd1me44j2JrvxDhWfcFIwCgHko
1BCquvbTBFFqeTgN4pzYsgAILu9k2O5n6ELhRyega4Cuf4nMvtjFVNM5H0C0Io+2
ENhjVAho+p0rU1OIlpUpsLVccByYTL6hY4d/gWnuoGTKkv8PXe2gfWt45d8oGsjj
WKn8yefm5snbPysfX1BGWNC8VLqIeSscPB7XUNNOsTiD1NBRylauuBjN/PgIK9KF
/aAVIbFyNs2rxmYPGbgTlRQ3vsCa+mecX3guTNxu2FFpjXqNDrCTnlIrowcYSacL
/FkI7/frzU64RqjPz7srLvju6EEUo5j3EXY6KCFt3F9L0tpctcRxosUOHiGxi3Ob
DqkqaGmuVJbM/2zC7fMXwDPdDa+JnwKHdi6YUjlWu7on
-----END CERTIFICATE-----
