Certificate:
    Data:
        Version: 3 (0x2)
        Serial Number: 10001 (0x2711)
    Signature Algorithm: sha256WithRSAEncryption
        Issuer: C=US, ST=OH, L=Columbus, O=VikingVPN, OU=MyOrganizationalUnit, CN=VikingVPN CA/name=EasyRSA/emailAddress=me@myhost.mydomain
        Validity
            Not Before: Jan 27 04:29:39 2017 GMT
            Not After : Jan 25 04:29:39 2027 GMT
        Subject: CN=Client2262Cert79a27a
        Subject Public Key Info:
            Public Key Algorithm: rsaEncryption
                Public-Key: (4096 bit)
                Modulus:
                    00:ed:5c:88:f6:b1:99:8f:b6:5f:22:4e:8d:eb:2e:
                    6c:7c:eb:45:83:bf:07:97:91:9f:5f:33:f7:1d:23:
                    33:70:fb:c4:83:96:4b:2e:81:38:06:a6:1e:b7:7a:
                    c2:7b:84:4b:76:4e:de:d4:b3:a2:dc:fb:3d:46:5e:
                    76:16:18:a1:51:2e:0b:1b:e5:2a:52:10:eb:3b:de:
                    47:7e:48:ed:d1:ac:33:83:9a:0c:10:72:3e:30:16:
                    a6:e7:3d:33:c7:1c:fb:2a:86:63:2b:f6:82:98:25:
                    85:45:76:93:6b:d8:6f:f5:0a:d3:06:5e:18:0c:db:
                    c3:8c:e9:39:29:2e:79:98:a6:b2:34:f4:11:05:14:
                    d7:24:ff:87:b9:e0:a9:41:71:00:0e:05:8d:ef:fd:
                    ac:ff:5c:82:8a:fe:aa:bc:c5:19:d8:ba:ed:c3:6f:
                    3e:2a:f2:83:b3:cd:08:17:95:e6:88:b5:a6:15:cc:
                    49:bd:d6:66:d2:72:75:96:7c:f4:c9:53:51:3e:e2:
                    2f:22:3a:7d:f9:d3:d7:32:63:45:71:e2:16:32:ba:
                    f6:aa:29:4a:27:eb:5c:d9:cf:8d:c9:16:f9:ff:6a:
                    46:68:dd:04:85:54:f2:58:e7:4b:7e:cd:f4:ec:02:
                    46:df:01:10:90:1d:42:88:d3:3f:f2:5d:97:fc:3b:
                    e0:d6:8e:aa:ae:2c:14:70:d7:6d:eb:1d:58:e3:31:
                    7a:fb:74:63:ce:ff:9b:d1:ca:c7:1d:43:82:f2:3c:
                    81:e0:dc:d8:c0:9f:e5:98:a1:2e:48:63:fd:78:8f:
                    37:a3:b2:b6:5d:6d:3d:10:89:d8:10:73:58:28:59:
                    c1:ea:cf:10:ca:a4:c2:e5:18:68:98:ab:2d:a5:d0:
                    a3:99:c7:e3:fa:b4:43:ad:57:d8:bf:f6:5f:62:cc:
                    fc:c1:bd:5d:bc:a4:87:a2:0a:29:c6:1a:ed:de:c4:
                    95:31:bf:e1:c0:49:3b:b0:4e:61:17:eb:87:5d:84:
                    8b:f1:6a:15:a3:1e:bb:6d:d6:9b:e8:02:06:2a:96:
                    e5:93:3d:d4:bd:33:7b:4e:2b:82:46:b7:4c:88:85:
                    ec:be:5d:d2:b0:77:80:f6:61:8a:51:88:0f:35:e8:
                    f1:17:9e:a2:c9:0d:60:bc:40:27:ca:dc:a5:75:48:
                    db:05:10:36:8a:f6:37:e4:ef:d3:59:f6:f1:79:32:
                    91:fc:0b:6b:2f:39:92:ad:e5:80:f8:40:1d:01:d1:
                    dd:12:33:9d:f1:46:0f:af:07:08:20:37:a2:c0:8d:
                    76:cf:5d:fc:99:19:85:10:72:a4:eb:ce:fe:fe:3f:
                    06:0a:e6:21:11:80:45:4b:01:16:90:40:87:b7:38:
                    68:30:f7
                Exponent: 65537 (0x10001)
        X509v3 extensions:
            X509v3 Basic Constraints: 
                CA:FALSE
            Netscape Comment: 
                Easy-RSA Generated Certificate
            X509v3 Subject Key Identifier: 
                61:41:99:9E:E0:93:63:F8:F3:CE:A4:50:23:E9:AC:15:5F:C4:96:56
            X509v3 Authority Key Identifier: 
                keyid:12:CD:60:04:D2:A0:80:9E:70:ED:C6:99:B8:7B:2C:C6:52:FD:19:A1
                DirName:/C=US/ST=OH/L=Columbus/O=VikingVPN/OU=MyOrganizationalUnit/CN=VikingVPN CA/name=EasyRSA/emailAddress=me@myhost.mydomain
                serial:CF:35:85:EE:80:BF:2A:3E

            X509v3 Extended Key Usage: 
                TLS Web Client Authentication
            X509v3 Key Usage: 
                Digital Signature
    Signature Algorithm: sha256WithRSAEncryption
         83:34:f5:cb:d5:3e:0d:67:9f:4c:e6:01:9f:8b:5e:46:50:17:
         86:16:2f:83:0e:4f:01:ef:8c:99:6a:9b:c5:72:74:f5:69:39:
         fb:96:7b:db:c7:e4:d2:f2:d1:9d:e4:99:d7:cf:d7:16:fd:24:
         1f:bb:6e:6d:da:e4:b3:b8:fb:e9:c3:75:1c:13:a7:5e:90:ef:
         fe:03:36:a8:ca:56:ea:68:04:82:10:c2:18:76:95:a3:e1:3b:
         f9:df:73:0d:fd:5f:1d:fe:6b:c8:83:e3:ff:35:a8:88:04:b0:
         33:e1:bb:85:ac:4f:53:3c:5d:bf:68:4f:a4:cf:fc:ad:a0:01:
         5b:09:49:88:cc:a0:c9:ab:89:6a:40:72:9d:1d:28:90:1b:76:
         32:0e:ca:34:fe:47:ff:98:59:39:f8:9f:05:84:6f:39:00:59:
         19:f9:c8:a8:de:2c:a1:43:73:f9:59:9d:aa:47:cd:77:e0:55:
         8e:b7:f9:b6:eb:2d:2c:cb:1c:31:d9:5b:25:86:46:06:b5:8c:
         a5:37:4d:a1:de:f3:33:c4:40:2e:9a:e3:3d:4e:c8:10:ea:03:
         48:07:d1:c6:fa:b8:95:21:d7:02:f3:f8:a1:f6:9c:29:15:3b:
         e0:c7:d6:ca:63:25:74:b7:4b:e2:d5:b5:df:f2:f0:b8:16:5f:
         71:b0:a2:ea:02:fc:a0:31:0b:5b:e1:53:01:5a:b8:cf:4b:fc:
         f2:9e:c2:ef:fb:2a:ff:34:80:b6:2f:f0:77:35:ac:c4:ed:07:
         a0:f2:59:68:c6:88:a7:59:df:d0:07:2c:24:c5:14:fa:44:57:
         39:61:b0:c2:7f:37:e0:19:cc:c2:5b:00:0a:d4:07:b5:09:7d:
         a8:53:dc:49:57:7b:04:01:56:e1:6d:de:4c:bc:72:7b:a0:2b:
         2f:30:59:e0:ac:e9:94:a8:7a:2b:5d:9c:be:d3:83:ce:d8:20:
         35:83:d7:1f:49:f3:db:1a:00:b9:ea:f9:fa:26:79:24:20:5b:
         30:b1:8b:0e:7b:17:03:04:3a:73:a7:ff:ae:36:6e:89:07:3d:
         ac:63:19:e9:a8:6d:2f:da:17:19:24:5d:77:ff:02:9e:d9:c0:
         cf:6b:e7:7d:0b:ab:c1:8e:b3:42:6c:82:fe:26:86:75:5f:7a:
         62:1a:00:2c:45:9e:34:eb:13:57:e6:68:f6:1d:a8:3c:9b:a9:
         30:2c:e6:f7:a4:cc:cf:3b:e8:26:cd:5f:50:7c:4b:da:1a:b8:
         2a:67:90:dc:a4:30:5d:a1:1d:15:98:53:ce:36:e6:eb:7d:49:
         1a:a0:f5:e1:ad:46:13:c2:2e:80:b1:7a:7c:0d:f4:4a:95:2a:
         10:85:2f:22:dd:de:c6:b1
-----BEGIN CERTIFICATE-----
MIIGrTCCBJWgAwIBAgICJxEwDQYJKoZIhvcNAQELBQAwgawxCzAJBgNVBAYTAlVT
MQswCQYDVQQIEwJPSDERMA8GA1UEBxMIQ29sdW1idXMxEjAQBgNVBAoTCVZpa2lu
Z1ZQTjEdMBsGA1UECxMUTXlPcmdhbml6YXRpb25hbFVuaXQxFTATBgNVBAMTDFZp
a2luZ1ZQTiBDQTEQMA4GA1UEKRMHRWFzeVJTQTEhMB8GCSqGSIb3DQEJARYSbWVA
bXlob3N0Lm15ZG9tYWluMB4XDTE3MDEyNzA0MjkzOVoXDTI3MDEyNTA0MjkzOVow
HzEdMBsGA1UEAxMUQ2xpZW50MjI2MkNlcnQ3OWEyN2EwggIiMA0GCSqGSIb3DQEB
AQUAA4ICDwAwggIKAoICAQDtXIj2sZmPtl8iTo3rLmx860WDvweXkZ9fM/cdIzNw
+8SDlksugTgGph63esJ7hEt2Tt7Us6Lc+z1GXnYWGKFRLgsb5SpSEOs73kd+SO3R
rDODmgwQcj4wFqbnPTPHHPsqhmMr9oKYJYVFdpNr2G/1CtMGXhgM28OM6TkpLnmY
prI09BEFFNck/4e54KlBcQAOBY3v/az/XIKK/qq8xRnYuu3Dbz4q8oOzzQgXleaI
taYVzEm91mbScnWWfPTJU1E+4i8iOn3509cyY0Vx4hYyuvaqKUon61zZz43JFvn/
akZo3QSFVPJY50t+zfTsAkbfARCQHUKI0z/yXZf8O+DWjqquLBRw123rHVjjMXr7
dGPO/5vRyscdQ4LyPIHg3NjAn+WYoS5IY/14jzejsrZdbT0QidgQc1goWcHqzxDK
pMLlGGiYqy2l0KOZx+P6tEOtV9i/9l9izPzBvV28pIeiCinGGu3exJUxv+HASTuw
TmEX64ddhIvxahWjHrtt1pvoAgYqluWTPdS9M3tOK4JGt0yIhey+XdKwd4D2YYpR
iA816PEXnqLJDWC8QCfK3KV1SNsFEDaK9jfk79NZ9vF5MpH8C2svOZKt5YD4QB0B
0d0SM53xRg+vBwggN6LAjXbPXfyZGYUQcqTrzv7+PwYK5iERgEVLARaQQIe3OGgw
9wIDAQABo4IBYzCCAV8wCQYDVR0TBAIwADAtBglghkgBhvhCAQ0EIBYeRWFzeS1S
U0EgR2VuZXJhdGVkIENlcnRpZmljYXRlMB0GA1UdDgQWBBRhQZme4JNj+PPOpFAj
6awVX8SWVjCB4QYDVR0jBIHZMIHWgBQSzWAE0qCAnnDtxpm4eyzGUv0ZoaGBsqSB
rzCBrDELMAkGA1UEBhMCVVMxCzAJBgNVBAgTAk9IMREwDwYDVQQHEwhDb2x1bWJ1
czESMBAGA1UEChMJVmlraW5nVlBOMR0wGwYDVQQLExRNeU9yZ2FuaXphdGlvbmFs
VW5pdDEVMBMGA1UEAxMMVmlraW5nVlBOIENBMRAwDgYDVQQpEwdFYXN5UlNBMSEw
HwYJKoZIhvcNAQkBFhJtZUBteWhvc3QubXlkb21haW6CCQDPNYXugL8qPjATBgNV
HSUEDDAKBggrBgEFBQcDAjALBgNVHQ8EBAMCB4AwDQYJKoZIhvcNAQELBQADggIB
AIM09cvVPg1nn0zmAZ+LXkZQF4YWL4MOTwHvjJlqm8VydPVpOfuWe9vH5NLy0Z3k
mdfP1xb9JB+7bm3a5LO4++nDdRwTp16Q7/4DNqjKVupoBIIQwhh2laPhO/nfcw39
Xx3+a8iD4/81qIgEsDPhu4WsT1M8Xb9oT6TP/K2gAVsJSYjMoMmriWpAcp0dKJAb
djIOyjT+R/+YWTn4nwWEbzkAWRn5yKjeLKFDc/lZnapHzXfgVY63+bbrLSzLHDHZ
WyWGRga1jKU3TaHe8zPEQC6a4z1OyBDqA0gH0cb6uJUh1wLz+KH2nCkVO+DH1spj
JXS3S+LVtd/y8LgWX3GwouoC/KAxC1vhUwFauM9L/PKewu/7Kv80gLYv8Hc1rMTt
B6DyWWjGiKdZ39AHLCTFFPpEVzlhsMJ/N+AZzMJbAArUB7UJfahT3ElXewQBVuFt
3ky8cnugKy8wWeCs6ZSoeitdnL7Tg87YIDWD1x9J89saALnq+fomeSQgWzCxiw57
FwMEOnOn/642bokHPaxjGemobS/aFxkkXXf/Ap7ZwM9r530Lq8GOs0Jsgv4mhnVf
emIaACxFnjTrE1fmaPYdqDybqTAs5vekzM876CbNX1B8S9oauCpnkNykMF2hHRWY
U8425ut9SRqg9eGtRhPCLoCxenwN9EqVKhCFLyLd3sax
-----END CERTIFICATE-----
