Certificate:
    Data:
        Version: 3 (0x2)
        Serial Number: 10004 (0x2714)
    Signature Algorithm: sha256WithRSAEncryption
        Issuer: C=US, ST=OH, L=Columbus, O=VikingVPN, OU=MyOrganizationalUnit, CN=VikingVPN CA/name=EasyRSA/emailAddress=me@myhost.mydomain
        Validity
            Not Before: Jan 27 18:02:12 2017 GMT
            Not After : Jan 25 18:02:12 2027 GMT
        Subject: CN=Client2705Certef8747
        Subject Public Key Info:
            Public Key Algorithm: rsaEncryption
                Public-Key: (4096 bit)
                Modulus:
                    00:9f:09:04:21:a1:4f:4c:be:c6:3f:b6:ba:00:84:
                    c0:b1:b6:af:c2:13:dd:84:6c:71:9d:35:7d:f5:19:
                    c5:6f:4a:3e:b2:d7:55:41:55:f6:6b:6c:3a:02:5e:
                    e0:a4:41:56:17:4c:a5:10:ce:b7:17:f0:9a:2c:bf:
                    84:a5:8b:45:38:fb:40:c8:4a:a1:21:91:99:63:3a:
                    3e:72:50:2b:50:7a:f6:c9:e2:3e:c7:5e:93:fa:6e:
                    29:c6:0f:e8:19:43:e5:34:a3:5a:9c:c7:af:64:b4:
                    62:59:85:ef:fc:41:dd:68:3a:3f:27:9c:cf:e1:70:
                    c3:79:48:aa:d0:35:83:aa:c4:86:d3:31:da:18:c7:
                    7e:f8:54:c2:c4:b2:29:85:71:43:05:ce:54:d4:34:
                    ef:b7:70:19:a0:cb:27:0c:57:9a:44:05:bd:b8:b7:
                    dd:97:35:39:99:44:f2:ed:f5:95:d6:7a:cd:4b:6a:
                    5e:c5:a8:48:f0:1e:22:61:8d:fb:8f:48:f3:56:74:
                    b4:52:61:9f:18:ee:8f:d0:c2:e4:36:c3:89:d1:09:
                    34:dc:19:46:4b:86:6c:df:d3:e9:20:cf:83:ec:6f:
                    3c:df:8b:e6:43:38:21:e6:79:77:c1:46:84:43:9c:
                    a7:f5:3d:f2:2d:2c:b6:35:4d:f6:e6:f1:09:ef:6c:
                    bb:da:ef:f2:d3:d0:82:8f:4f:d4:c9:c8:a6:b8:a5:
                    44:b7:2e:8d:8a:7f:4d:54:b1:25:45:00:eb:55:47:
                    cf:29:9c:db:29:89:ae:14:76:5e:9a:7e:c5:83:02:
                    b0:f8:95:4a:b6:b1:42:86:3c:60:86:2f:2f:74:ab:
                    d6:0b:2b:cc:46:38:28:35:1d:7c:bf:2f:89:1b:a2:
                    ee:99:0e:ec:62:fd:23:a4:f5:bd:b3:a3:84:e5:54:
                    fa:2c:df:dd:d0:f3:0a:1a:66:67:06:5c:78:37:b9:
                    50:5d:e8:29:63:65:e6:0e:4b:db:0b:15:fb:31:e2:
                    9e:04:3e:a6:ae:6c:90:43:96:13:ec:33:f0:d1:cb:
                    e8:73:9a:f5:61:45:8b:01:d3:f1:76:5d:07:09:21:
                    06:5d:6e:0c:3b:47:cb:be:ac:62:bd:fa:36:04:92:
                    13:4b:d7:f4:93:b6:b1:68:99:0e:f2:36:b2:43:29:
                    02:94:a2:c7:45:99:63:ba:12:4c:7f:f8:89:42:39:
                    1e:72:0d:b4:61:84:e6:35:8d:ee:91:16:c4:2b:9f:
                    47:91:d2:19:e8:55:3d:12:41:0b:2e:4d:70:5e:9f:
                    27:74:1a:d1:3e:aa:e6:96:58:e8:50:47:e7:74:b8:
                    f8:24:84:f4:a2:b6:a4:07:1a:f1:2e:ec:49:9f:c4:
                    b2:db:3d
                Exponent: 65537 (0x10001)
        X509v3 extensions:
            X509v3 Basic Constraints: 
                CA:FALSE
            Netscape Comment: 
                Easy-RSA Generated Certificate
            X509v3 Subject Key Identifier: 
                B6:3F:2E:DA:A6:E6:B5:C2:45:DF:1A:6D:9E:93:6F:8D:C1:C8:EC:5D
            X509v3 Authority Key Identifier: 
                keyid:12:CD:60:04:D2:A0:80:9E:70:ED:C6:99:B8:7B:2C:C6:52:FD:19:A1
                DirName:/C=US/ST=OH/L=Columbus/O=VikingVPN/OU=MyOrganizationalUnit/CN=VikingVPN CA/name=EasyRSA/emailAddress=me@myhost.mydomain
                serial:CF:35:85:EE:80:BF:2A:3E

            X509v3 Extended Key Usage: 
                TLS Web Client Authentication
            X509v3 Key Usage: 
                Digital Signature
    Signature Algorithm: sha256WithRSAEncryption
         e3:96:c6:58:b4:37:c1:c5:3b:38:62:6c:cb:b8:6d:33:5b:68:
         ea:52:be:56:61:5d:18:54:d1:8b:d3:7e:eb:ea:c3:8a:ec:07:
         d9:4a:90:38:cf:30:2e:92:fd:fc:b0:db:db:a1:80:82:fa:37:
         1d:f0:16:06:9e:28:f3:4a:b2:69:2b:e0:13:84:a8:77:50:0d:
         fe:52:3d:ee:38:75:80:0d:c2:3c:2b:59:13:02:ed:26:3e:eb:
         b3:42:5e:dd:d8:12:46:8d:8e:28:fa:41:ae:f1:23:3f:59:7f:
         3e:b3:75:78:30:d5:12:9e:6e:bc:44:1a:28:9d:ee:9c:bc:27:
         fb:c1:44:69:86:f6:b2:41:f0:8d:d1:f0:f1:41:d5:dd:b1:eb:
         f5:fd:35:7a:35:28:fc:17:de:17:b1:da:33:74:d7:67:6c:f3:
         d7:0b:37:8e:23:66:67:a4:53:f5:37:da:80:e8:ad:9e:52:93:
         ca:f6:38:e7:87:ee:f3:77:21:89:cb:4d:e0:c2:70:44:58:9d:
         aa:8a:a1:85:ec:e8:4b:d4:65:94:73:9a:76:b6:d7:3f:ee:bf:
         04:e4:dc:27:cb:1d:1e:33:08:cc:f6:0f:5f:37:79:81:73:b8:
         fb:c1:db:1a:2d:fc:d1:eb:49:b3:61:8b:d9:32:4b:85:1b:46:
         dd:d3:9e:d8:43:9e:8a:17:fb:b9:9a:9f:ac:9e:c6:67:46:d4:
         7a:fd:b7:9a:1f:d3:ee:2d:1b:74:ce:29:d9:04:04:ec:f9:68:
         fb:03:da:ae:f2:23:d9:2a:e8:c6:d0:a8:e9:35:44:ea:8b:5b:
         84:24:2b:3e:7b:b5:ce:88:ae:40:f9:d8:7d:3e:8e:d9:6e:ac:
         a7:10:2d:e5:2c:92:b3:be:6d:07:98:3a:f7:2c:63:8c:fd:77:
         c5:10:ee:0f:db:ff:2e:94:d7:a2:a5:26:e3:e8:2f:2e:1c:4c:
         81:51:9a:1d:a3:27:3e:bf:d9:48:f3:7b:73:7a:05:af:1d:e7:
         29:0a:40:59:99:f1:aa:c0:29:54:c1:cc:03:a0:89:84:69:84:
         5e:9b:d8:bc:08:ec:03:0c:98:67:84:c3:91:e3:f7:e1:75:e2:
         67:b9:2e:9d:47:be:69:85:b9:a7:d4:0b:c5:4f:d6:e6:94:50:
         6a:4b:d3:55:ee:97:9b:45:4f:18:59:4f:d2:5a:6d:5b:c9:73:
         27:3d:44:71:33:23:9b:a0:9c:98:3b:69:c7:e7:0b:51:9d:90:
         a3:08:19:e0:19:7c:24:fd:5e:be:30:dc:a9:ce:8d:e2:94:2e:
         20:9e:78:d0:02:95:63:33:d4:f1:6f:0a:57:75:22:de:a4:42:
         c6:59:8b:74:47:e3:c2:b0
-----BEGIN CERTIFICATE-----
MIIGrTCCBJWgAwIBAgICJxQwDQYJKoZIhvcNAQELBQAwgawxCzAJBgNVBAYTAlVT
MQswCQYDVQQIEwJPSDERMA8GA1UEBxMIQ29sdW1idXMxEjAQBgNVBAoTCVZpa2lu
Z1ZQTjEdMBsGA1UECxMUTXlPcmdhbml6YXRpb25hbFVuaXQxFTATBgNVBAMTDFZp
a2luZ1ZQTiBDQTEQMA4GA1UEKRMHRWFzeVJTQTEhMB8GCSqGSIb3DQEJARYSbWVA
bXlob3N0Lm15ZG9tYWluMB4XDTE3MDEyNzE4MDIxMloXDTI3MDEyNTE4MDIxMlow
HzEdMBsGA1UEAxMUQ2xpZW50MjcwNUNlcnRlZjg3NDcwggIiMA0GCSqGSIb3DQEB
AQUAA4ICDwAwggIKAoICAQCfCQQhoU9MvsY/troAhMCxtq/CE92EbHGdNX31GcVv
Sj6y11VBVfZrbDoCXuCkQVYXTKUQzrcX8Josv4Sli0U4+0DISqEhkZljOj5yUCtQ
evbJ4j7HXpP6binGD+gZQ+U0o1qcx69ktGJZhe/8Qd1oOj8nnM/hcMN5SKrQNYOq
xIbTMdoYx374VMLEsimFcUMFzlTUNO+3cBmgyycMV5pEBb24t92XNTmZRPLt9ZXW
es1Lal7FqEjwHiJhjfuPSPNWdLRSYZ8Y7o/QwuQ2w4nRCTTcGUZLhmzf0+kgz4Ps
bzzfi+ZDOCHmeXfBRoRDnKf1PfItLLY1Tfbm8QnvbLva7/LT0IKPT9TJyKa4pUS3
Lo2Kf01UsSVFAOtVR88pnNspia4Udl6afsWDArD4lUq2sUKGPGCGLy90q9YLK8xG
OCg1HXy/L4kbou6ZDuxi/SOk9b2zo4TlVPos393Q8woaZmcGXHg3uVBd6CljZeYO
S9sLFfsx4p4EPqaubJBDlhPsM/DRy+hzmvVhRYsB0/F2XQcJIQZdbgw7R8u+rGK9
+jYEkhNL1/STtrFomQ7yNrJDKQKUosdFmWO6Ekx/+IlCOR5yDbRhhOY1je6RFsQr
n0eR0hnoVT0SQQsuTXBenyd0GtE+quaWWOhQR+d0uPgkhPSitqQHGvEu7EmfxLLb
PQIDAQABo4IBYzCCAV8wCQYDVR0TBAIwADAtBglghkgBhvhCAQ0EIBYeRWFzeS1S
U0EgR2VuZXJhdGVkIENlcnRpZmljYXRlMB0GA1UdDgQWBBS2Py7apua1wkXfGm2e
k2+NwcjsXTCB4QYDVR0jBIHZMIHWgBQSzWAE0qCAnnDtxpm4eyzGUv0ZoaGBsqSB
rzCBrDELMAkGA1UEBhMCVVMxCzAJBgNVBAgTAk9IMREwDwYDVQQHEwhDb2x1bWJ1
czESMBAGA1UEChMJVmlraW5nVlBOMR0wGwYDVQQLExRNeU9yZ2FuaXphdGlvbmFs
VW5pdDEVMBMGA1UEAxMMVmlraW5nVlBOIENBMRAwDgYDVQQpEwdFYXN5UlNBMSEw
HwYJKoZIhvcNAQkBFhJtZUBteWhvc3QubXlkb21haW6CCQDPNYXugL8qPjATBgNV
HSUEDDAKBggrBgEFBQcDAjALBgNVHQ8EBAMCB4AwDQYJKoZIhvcNAQELBQADggIB
AOOWxli0N8HFOzhibMu4bTNbaOpSvlZhXRhU0YvTfuvqw4rsB9lKkDjPMC6S/fyw
29uhgIL6Nx3wFgaeKPNKsmkr4BOEqHdQDf5SPe44dYANwjwrWRMC7SY+67NCXt3Y
EkaNjij6Qa7xIz9Zfz6zdXgw1RKebrxEGiid7py8J/vBRGmG9rJB8I3R8PFB1d2x
6/X9NXo1KPwX3hex2jN012ds89cLN44jZmekU/U32oDorZ5Sk8r2OOeH7vN3IYnL
TeDCcERYnaqKoYXs6EvUZZRzmna21z/uvwTk3CfLHR4zCMz2D183eYFzuPvB2xot
/NHrSbNhi9kyS4UbRt3TnthDnooX+7man6yexmdG1Hr9t5of0+4tG3TOKdkEBOz5
aPsD2q7yI9kq6MbQqOk1ROqLW4QkKz57tc6IrkD52H0+jtlurKcQLeUskrO+bQeY
OvcsY4z9d8UQ7g/b/y6U16KlJuPoLy4cTIFRmh2jJz6/2Ujze3N6Ba8d5ykKQFmZ
8arAKVTBzAOgiYRphF6b2LwI7AMMmGeEw5Hj9+F14me5Lp1HvmmFuafUC8VP1uaU
UGpL01Xul5tFTxhZT9JabVvJcyc9RHEzI5ugnJg7acfnC1GdkKMIGeAZfCT9Xr4w
3KnOjeKULiCeeNAClWMz1PFvCld1It6kQsZZi3RH48Kw
-----END CERTIFICATE-----
