Certificate:
    Data:
        Version: 3 (0x2)
        Serial Number: 10010 (0x271a)
    Signature Algorithm: sha256WithRSAEncryption
        Issuer: C=US, ST=OH, L=Columbus, O=VikingVPN, OU=MyOrganizationalUnit, CN=VikingVPN CA/name=EasyRSA/emailAddress=me@myhost.mydomain
        Validity
            Not Before: Jan 28 00:06:58 2017 GMT
            Not After : Jan 26 00:06:58 2027 GMT
        Subject: CN=Client1643Cert72d06f
        Subject Public Key Info:
            Public Key Algorithm: rsaEncryption
                Public-Key: (4096 bit)
                Modulus:
                    00:ad:d5:b0:5a:12:70:40:67:d8:08:d1:ae:f7:85:
                    10:2d:3f:db:50:48:94:9e:36:c6:e5:60:3c:ba:37:
                    24:4c:33:59:7f:ad:07:3e:f2:ba:a1:89:a0:b7:4e:
                    da:80:39:08:13:ad:09:b6:f2:ce:8e:d2:97:e1:5c:
                    c2:9a:fd:1c:84:02:a7:ca:e5:13:ef:fe:e4:67:55:
                    e7:9b:42:ec:85:9a:5a:6d:c7:c0:07:df:84:f4:08:
                    ce:ff:43:6e:0d:60:60:26:c0:3a:61:23:42:05:95:
                    a1:72:da:d2:55:c2:5e:82:3c:a8:bf:a4:a0:9d:68:
                    9f:55:ee:3a:55:2c:80:7b:58:b1:fe:11:12:fc:45:
                    8c:de:e7:66:ce:a0:b2:f0:ab:94:41:32:fd:b5:fc:
                    f4:f2:59:31:32:27:5d:96:4f:ce:e9:f8:1d:cd:cf:
                    9f:6c:27:16:4e:2d:85:b2:c2:a7:cf:67:80:99:82:
                    76:48:09:59:fa:4b:ab:98:52:f6:97:90:8c:23:63:
                    5a:55:f7:da:30:d8:29:23:c0:68:2b:c3:89:8d:52:
                    de:0b:59:92:5a:ff:00:aa:00:d8:0c:17:05:be:a3:
                    74:78:62:42:8b:d3:c8:e8:47:9e:68:5b:70:d7:43:
                    2f:d9:31:2e:fd:e2:fa:c4:18:21:46:18:ab:ba:34:
                    af:fa:d0:0d:30:bd:7b:50:2f:e0:03:75:73:d3:76:
                    0d:30:02:9f:cf:19:34:2d:c6:f2:1e:c5:82:74:dc:
                    8e:84:d0:b8:ad:87:cc:ad:67:24:5e:0e:44:b7:7c:
                    cf:ef:ac:7a:bf:d7:7d:85:c1:bf:0d:21:b9:c9:4b:
                    c2:64:3d:ef:10:37:24:d5:8d:6f:3e:38:f3:24:17:
                    8b:95:44:86:77:d6:6b:80:02:12:74:e5:78:cf:34:
                    a6:56:e7:42:01:90:67:95:ce:6c:a9:0d:63:b7:57:
                    e6:11:29:2c:15:0e:8e:67:6b:c0:b9:97:23:28:0b:
                    3b:bd:c8:ce:9b:98:3e:c5:99:7b:ab:d2:35:da:dd:
                    27:f4:82:4f:1c:e2:95:46:1b:df:ec:aa:1d:ba:6a:
                    1d:e0:2c:5a:d1:e2:49:01:6f:24:67:9f:90:ef:3a:
                    a7:85:93:66:d2:5f:14:ca:26:0f:e9:2d:7f:b2:82:
                    3c:54:20:c4:31:3e:78:43:0d:9c:b7:81:9a:f4:a6:
                    15:ee:87:04:1f:4f:0a:07:70:47:84:fe:e0:21:cc:
                    4e:42:47:f7:9e:4c:54:3f:5a:e2:b4:ef:d9:0b:d7:
                    f3:65:0a:4a:fb:ea:e7:11:18:96:22:c9:e5:ee:72:
                    b6:d0:d5:41:5d:a4:3e:52:98:35:67:d4:b6:ca:88:
                    8f:87:31
                Exponent: 65537 (0x10001)
        X509v3 extensions:
            X509v3 Basic Constraints: 
                CA:FALSE
            Netscape Comment: 
                Easy-RSA Generated Certificate
            X509v3 Subject Key Identifier: 
                EC:69:58:B9:05:04:00:22:E2:D8:A7:B1:30:DB:B2:E4:B1:D0:76:99
            X509v3 Authority Key Identifier: 
                keyid:12:CD:60:04:D2:A0:80:9E:70:ED:C6:99:B8:7B:2C:C6:52:FD:19:A1
                DirName:/C=US/ST=OH/L=Columbus/O=VikingVPN/OU=MyOrganizationalUnit/CN=VikingVPN CA/name=EasyRSA/emailAddress=me@myhost.mydomain
                serial:CF:35:85:EE:80:BF:2A:3E

            X509v3 Extended Key Usage: 
                TLS Web Client Authentication
            X509v3 Key Usage: 
                Digital Signature
    Signature Algorithm: sha256WithRSAEncryption
         85:64:2b:b6:20:e2:a5:a0:fd:45:0d:64:71:3b:2a:08:cb:f1:
         6f:23:8e:49:5c:e8:a6:f2:16:60:79:15:74:f5:df:60:e9:02:
         53:c2:92:73:52:c2:c0:2e:2a:d6:f2:42:e7:1f:67:09:cf:be:
         be:8b:59:54:1a:1e:57:6f:62:bb:de:c2:d4:3c:b6:ff:88:d6:
         e6:a5:ed:a7:c5:2f:56:ea:12:99:6a:c5:9e:89:48:a5:e3:cb:
         74:35:c4:71:92:3b:63:8a:fc:ba:44:f5:1b:dd:df:89:75:d7:
         e7:ed:d0:90:3e:33:cd:39:40:12:e5:e8:87:b9:b3:fb:95:ef:
         18:d8:95:11:10:3a:37:10:ab:8a:ed:50:fe:d1:e5:29:01:ac:
         99:e7:7f:c6:ce:73:db:4e:2e:f6:8c:65:78:04:4e:ec:66:ac:
         0f:bc:d2:93:ea:aa:bf:dc:16:9c:da:96:87:9a:ba:50:ba:46:
         e6:5c:ee:f0:c7:e7:98:bb:1c:27:4e:04:b0:fe:3d:3b:b4:c7:
         51:e7:46:b1:01:53:cb:fa:a2:a3:6c:33:cf:be:e2:ff:bf:10:
         9c:5f:e5:d3:74:f9:ca:4b:fe:cc:5b:91:70:aa:31:9f:d4:93:
         05:81:5f:0b:af:4d:8f:70:42:ea:4a:99:cd:4a:31:d8:dd:04:
         87:98:69:2f:91:5e:13:4c:2d:1f:04:75:0a:93:f4:1e:ac:92:
         72:34:ab:c4:11:87:82:85:61:73:40:c0:f9:7c:53:b2:ce:83:
         46:58:7e:04:18:e4:22:41:18:84:54:25:bb:31:3b:f6:a5:3f:
         6f:25:42:64:e7:9d:3c:0c:94:73:c8:29:3f:19:16:f9:95:ae:
         f5:99:9b:52:b8:6f:71:73:6f:90:72:76:30:21:c2:b2:9e:b9:
         80:d0:96:c7:47:51:41:32:50:ac:8a:99:a2:c1:65:37:57:8d:
         e4:f4:63:56:74:02:bc:85:ac:c9:2a:8c:2f:d4:97:ca:a9:89:
         c4:3f:b5:07:a4:1e:ca:65:50:d3:44:4a:97:c0:87:b9:41:14:
         54:ed:00:57:35:e2:80:a0:35:7e:97:35:56:6f:83:56:d8:a6:
         0e:89:b0:ed:0a:11:84:77:70:70:30:0f:ea:a3:fc:dc:fb:f6:
         a3:eb:52:b7:c0:66:69:9b:0f:8b:21:43:6f:20:75:35:be:d2:
         8b:bf:37:2c:b3:84:be:ea:73:6c:dc:81:64:94:56:7d:b9:93:
         ae:ee:70:bd:9a:63:26:d6:1e:7a:f1:db:02:a9:78:f9:ea:95:
         05:78:81:3c:15:4d:26:4c:41:cd:9d:be:51:91:7d:75:75:95:
         fa:af:06:bc:ed:02:64:e3
-----BEGIN CERTIFICATE-----
MIIGrTCCBJWgAwIBAgICJxowDQYJKoZIhvcNAQELBQAwgawxCzAJBgNVBAYTAlVT
MQswCQYDVQQIEwJPSDERMA8GA1UEBxMIQ29sdW1idXMxEjAQBgNVBAoTCVZpa2lu
Z1ZQTjEdMBsGA1UECxMUTXlPcmdhbml6YXRpb25hbFVuaXQxFTATBgNVBAMTDFZp
a2luZ1ZQTiBDQTEQMA4GA1UEKRMHRWFzeVJTQTEhMB8GCSqGSIb3DQEJARYSbWVA
bXlob3N0Lm15ZG9tYWluMB4XDTE3MDEyODAwMDY1OFoXDTI3MDEyNjAwMDY1OFow
HzEdMBsGA1UEAxMUQ2xpZW50MTY0M0NlcnQ3MmQwNmYwggIiMA0GCSqGSIb3DQEB
AQUAA4ICDwAwggIKAoICAQCt1bBaEnBAZ9gI0a73hRAtP9tQSJSeNsblYDy6NyRM
M1l/rQc+8rqhiaC3TtqAOQgTrQm28s6O0pfhXMKa/RyEAqfK5RPv/uRnVeebQuyF
mlptx8AH34T0CM7/Q24NYGAmwDphI0IFlaFy2tJVwl6CPKi/pKCdaJ9V7jpVLIB7
WLH+ERL8RYze52bOoLLwq5RBMv21/PTyWTEyJ12WT87p+B3Nz59sJxZOLYWywqfP
Z4CZgnZICVn6S6uYUvaXkIwjY1pV99ow2CkjwGgrw4mNUt4LWZJa/wCqANgMFwW+
o3R4YkKL08joR55oW3DXQy/ZMS794vrEGCFGGKu6NK/60A0wvXtQL+ADdXPTdg0w
Ap/PGTQtxvIexYJ03I6E0Lith8ytZyReDkS3fM/vrHq/132Fwb8NIbnJS8JkPe8Q
NyTVjW8+OPMkF4uVRIZ31muAAhJ05XjPNKZW50IBkGeVzmypDWO3V+YRKSwVDo5n
a8C5lyMoCzu9yM6bmD7FmXur0jXa3Sf0gk8c4pVGG9/sqh26ah3gLFrR4kkBbyRn
n5DvOqeFk2bSXxTKJg/pLX+ygjxUIMQxPnhDDZy3gZr0phXuhwQfTwoHcEeE/uAh
zE5CR/eeTFQ/WuK079kL1/NlCkr76ucRGJYiyeXucrbQ1UFdpD5SmDVn1LbKiI+H
MQIDAQABo4IBYzCCAV8wCQYDVR0TBAIwADAtBglghkgBhvhCAQ0EIBYeRWFzeS1S
U0EgR2VuZXJhdGVkIENlcnRpZmljYXRlMB0GA1UdDgQWBBTsaVi5BQQAIuLYp7Ew
27LksdB2mTCB4QYDVR0jBIHZMIHWgBQSzWAE0qCAnnDtxpm4eyzGUv0ZoaGBsqSB
rzCBrDELMAkGA1UEBhMCVVMxCzAJBgNVBAgTAk9IMREwDwYDVQQHEwhDb2x1bWJ1
czESMBAGA1UEChMJVmlraW5nVlBOMR0wGwYDVQQLExRNeU9yZ2FuaXphdGlvbmFs
VW5pdDEVMBMGA1UEAxMMVmlraW5nVlBOIENBMRAwDgYDVQQpEwdFYXN5UlNBMSEw
HwYJKoZIhvcNAQkBFhJtZUBteWhvc3QubXlkb21haW6CCQDPNYXugL8qPjATBgNV
HSUEDDAKBggrBgEFBQcDAjALBgNVHQ8EBAMCB4AwDQYJKoZIhvcNAQELBQADggIB
AIVkK7Yg4qWg/UUNZHE7KgjL8W8jjklc6KbyFmB5FXT132DpAlPCknNSwsAuKtby
QucfZwnPvr6LWVQaHldvYrvewtQ8tv+I1ual7afFL1bqEplqxZ6JSKXjy3Q1xHGS
O2OK/LpE9Rvd34l11+ft0JA+M805QBLl6Ie5s/uV7xjYlREQOjcQq4rtUP7R5SkB
rJnnf8bOc9tOLvaMZXgETuxmrA+80pPqqr/cFpzaloeaulC6RuZc7vDH55i7HCdO
BLD+PTu0x1HnRrEBU8v6oqNsM8++4v+/EJxf5dN0+cpL/sxbkXCqMZ/UkwWBXwuv
TY9wQupKmc1KMdjdBIeYaS+RXhNMLR8EdQqT9B6sknI0q8QRh4KFYXNAwPl8U7LO
g0ZYfgQY5CJBGIRUJbsxO/alP28lQmTnnTwMlHPIKT8ZFvmVrvWZm1K4b3Fzb5By
djAhwrKeuYDQlsdHUUEyUKyKmaLBZTdXjeT0Y1Z0AryFrMkqjC/Ul8qpicQ/tQek
HsplUNNESpfAh7lBFFTtAFc14oCgNX6XNVZvg1bYpg6JsO0KEYR3cHAwD+qj/Nz7
9qPrUrfAZmmbD4shQ28gdTW+0ou/NyyzhL7qc2zcgWSUVn25k67ucL2aYybWHnrx
2wKpePnqlQV4gTwVTSZMQc2dvlGRfXV1lfqvBrztAmTj
-----END CERTIFICATE-----
