Certificate:
    Data:
        Version: 3 (0x2)
        Serial Number: 10032 (0x2730)
    Signature Algorithm: sha256WithRSAEncryption
        Issuer: C=US, ST=OH, L=Columbus, O=VikingVPN, OU=MyOrganizationalUnit, CN=VikingVPN CA/name=EasyRSA/emailAddress=me@myhost.mydomain
        Validity
            Not Before: Jan 31 23:33:01 2017 GMT
            Not After : Jan 29 23:33:01 2027 GMT
        Subject: CN=Client1337Cert002cf4
        Subject Public Key Info:
            Public Key Algorithm: rsaEncryption
                Public-Key: (4096 bit)
                Modulus:
                    00:d2:14:79:93:5e:08:7f:02:11:bc:54:f9:7c:25:
                    99:1f:73:7e:43:87:65:1a:05:fb:76:0b:4b:f5:ca:
                    2b:8e:cb:86:2e:ad:ec:86:be:60:cf:8a:18:c1:a3:
                    70:5c:36:c3:4c:00:58:4f:24:8c:b0:50:bf:6e:e6:
                    ca:fe:09:d8:5a:cd:ec:40:c7:f8:25:ac:c9:27:6a:
                    6f:94:7e:39:b9:79:db:54:40:b7:19:5a:79:d3:9f:
                    a0:e1:18:6d:0d:b0:22:96:19:e4:51:76:c8:c1:4c:
                    bb:32:98:74:69:87:a6:59:e5:4f:ab:21:f0:3d:f0:
                    96:b0:81:86:f0:f6:37:17:f9:ec:04:ae:14:99:9f:
                    b5:70:9f:0a:da:18:d9:35:71:2e:aa:89:f5:2c:d4:
                    53:c0:56:0e:e4:44:1b:82:9c:42:6e:bf:28:b0:56:
                    64:07:97:b1:f2:ea:23:8f:f0:99:b2:42:b3:e5:b0:
                    55:49:59:df:56:41:5f:61:cf:23:74:1e:a0:86:8c:
                    a7:4f:5f:46:b1:8b:19:94:d9:bc:7b:bb:47:80:a7:
                    99:47:47:c0:3b:21:b2:01:aa:af:bb:28:d9:d0:d9:
                    98:2b:8c:97:98:3e:ed:b1:c2:c2:f8:9b:a4:3e:e7:
                    7b:a4:97:2e:f0:e6:3c:9c:84:65:9f:77:32:74:0c:
                    5d:6a:a9:4c:65:0a:a4:b7:6f:d8:31:0e:3c:5d:8f:
                    ca:35:b9:43:87:49:88:28:64:18:ad:5a:38:da:1e:
                    77:b4:b0:7f:84:fa:10:92:63:73:4d:e3:24:04:c9:
                    03:8d:5e:8e:93:06:bf:5a:b0:41:c3:0b:b9:30:47:
                    ec:4e:dd:26:a3:0a:ea:20:d6:e7:3a:3e:ac:48:b3:
                    76:d9:38:f4:fc:5e:1f:a6:91:b5:f4:c3:53:d5:80:
                    7d:c1:31:08:37:25:82:a9:aa:65:0a:7a:e3:f2:26:
                    a7:01:d7:a1:22:77:5a:65:e0:a8:19:33:fc:6c:fc:
                    37:6d:2a:45:21:5e:de:1a:61:7b:bf:3e:fa:fe:6b:
                    f9:42:b2:28:5b:92:e9:eb:5e:58:b7:f7:1f:14:62:
                    43:6e:02:44:c7:d3:07:cd:75:fd:76:93:72:e3:6a:
                    70:3c:2d:18:cd:b9:e8:89:eb:8e:4c:bd:15:08:a8:
                    d3:82:f9:91:ce:eb:48:e7:10:fb:90:b2:a8:21:8c:
                    3a:11:95:ab:50:36:23:4b:c9:56:07:91:f9:5c:fd:
                    de:77:e0:76:9e:d6:ce:98:0c:6d:5a:9e:7e:c7:0d:
                    3a:0b:ff:09:dc:da:ea:0c:0f:c3:6a:47:a0:07:29:
                    45:1a:32:bd:17:55:20:fe:1e:36:55:06:b4:aa:2d:
                    43:f2:db
                Exponent: 65537 (0x10001)
        X509v3 extensions:
            X509v3 Basic Constraints: 
                CA:FALSE
            Netscape Comment: 
                Easy-RSA Generated Certificate
            X509v3 Subject Key Identifier: 
                19:6D:B3:72:E3:9E:00:64:2A:4C:E3:4B:5E:46:EA:48:0F:BA:55:C6
            X509v3 Authority Key Identifier: 
                keyid:12:CD:60:04:D2:A0:80:9E:70:ED:C6:99:B8:7B:2C:C6:52:FD:19:A1
                DirName:/C=US/ST=OH/L=Columbus/O=VikingVPN/OU=MyOrganizationalUnit/CN=VikingVPN CA/name=EasyRSA/emailAddress=me@myhost.mydomain
                serial:CF:35:85:EE:80:BF:2A:3E

            X509v3 Extended Key Usage: 
                TLS Web Client Authentication
            X509v3 Key Usage: 
                Digital Signature
    Signature Algorithm: sha256WithRSAEncryption
         44:e9:96:75:4c:10:16:2c:14:96:ad:8a:87:9c:dc:24:74:46:
         91:23:80:bf:fc:be:16:2a:28:cc:78:7c:b5:58:75:5e:ad:95:
         1a:13:8f:95:9a:73:c4:28:60:dd:0b:ea:c5:e1:21:e2:62:1c:
         88:5d:75:14:11:88:90:ae:1b:71:30:b4:16:a1:24:09:f5:d3:
         db:56:ae:8f:c9:93:5c:37:14:96:eb:2c:77:f9:2c:bd:16:33:
         3e:ea:4f:e4:ed:27:4a:7d:20:de:69:e9:af:6f:73:08:ba:91:
         b5:4c:f3:e9:10:df:09:98:e9:3c:c2:82:b8:f3:07:7f:6d:14:
         7e:d7:d1:8a:35:4b:69:ba:0d:cd:c7:34:34:37:87:da:ad:83:
         cd:29:ca:93:1f:17:f0:6f:a2:c0:3a:a4:3a:e7:9c:d0:3e:44:
         97:3d:9d:39:a4:8d:ee:0a:1d:d9:a5:fc:c4:39:23:fc:d7:f1:
         12:4c:0d:99:4b:43:8e:ce:57:fd:1f:c9:2c:bf:58:ca:85:56:
         a5:30:78:4c:ca:c9:d7:d1:12:ac:7e:c4:ea:d0:d2:73:60:c3:
         a9:fb:ec:68:d0:f6:7d:5a:9b:f8:2e:db:d5:1d:03:9c:51:ce:
         b0:1d:1b:e8:c2:72:40:eb:cb:a1:2c:95:52:72:0a:71:dd:9f:
         ee:f3:cd:44:03:1c:97:fc:f2:78:72:48:f8:29:54:26:11:9a:
         50:b2:a9:b5:8b:30:d7:a8:f7:ee:2b:80:37:92:71:f4:fc:cd:
         25:e1:b1:1e:6d:b8:ef:70:c0:1d:2a:79:d3:0d:8b:c7:9b:b8:
         26:fc:2a:e2:3c:e8:14:78:c0:a2:e3:b4:2f:ac:ed:c3:d4:50:
         84:de:d6:ad:e1:35:c8:78:b6:48:58:e7:bc:e8:44:ff:d2:86:
         b1:b5:9b:eb:7a:6e:e2:e5:d8:85:4a:58:f6:7f:ba:cd:e2:2a:
         b8:85:c7:9a:ef:15:27:2b:32:ca:ae:32:5d:3f:27:f0:1a:e9:
         6f:bd:37:30:24:ff:3d:b6:29:bb:a9:2a:fc:d1:ca:8f:31:00:
         da:dc:2c:03:83:58:fd:f3:5b:50:24:fe:40:fd:8e:05:7e:67:
         7b:cd:3c:6b:7f:cf:3b:55:d9:b3:ad:4f:70:83:46:b4:64:cb:
         3f:46:0e:91:0b:a6:0e:bd:8f:5a:d3:f5:57:a7:5a:3a:5a:c7:
         33:a5:9f:04:15:31:f7:98:b9:08:41:b7:ea:2c:f6:c8:fe:62:
         01:da:b6:0b:e4:7b:46:c4:49:ea:08:5c:6b:cc:29:66:ae:f2:
         0b:ff:2e:69:36:99:29:78:fd:1d:ad:0c:2b:ec:d8:ea:2e:3c:
         b8:98:00:c1:38:42:be:a4
-----BEGIN CERTIFICATE-----
MIIGrTCCBJWgAwIBAgICJzAwDQYJKoZIhvcNAQELBQAwgawxCzAJBgNVBAYTAlVT
MQswCQYDVQQIEwJPSDERMA8GA1UEBxMIQ29sdW1idXMxEjAQBgNVBAoTCVZpa2lu
Z1ZQTjEdMBsGA1UECxMUTXlPcmdhbml6YXRpb25hbFVuaXQxFTATBgNVBAMTDFZp
a2luZ1ZQTiBDQTEQMA4GA1UEKRMHRWFzeVJTQTEhMB8GCSqGSIb3DQEJARYSbWVA
bXlob3N0Lm15ZG9tYWluMB4XDTE3MDEzMTIzMzMwMVoXDTI3MDEyOTIzMzMwMVow
HzEdMBsGA1UEAxMUQ2xpZW50MTMzN0NlcnQwMDJjZjQwggIiMA0GCSqGSIb3DQEB
AQUAA4ICDwAwggIKAoICAQDSFHmTXgh/AhG8VPl8JZkfc35Dh2UaBft2C0v1yiuO
y4YureyGvmDPihjBo3BcNsNMAFhPJIywUL9u5sr+CdhazexAx/glrMknam+Ufjm5
edtUQLcZWnnTn6DhGG0NsCKWGeRRdsjBTLsymHRph6ZZ5U+rIfA98JawgYbw9jcX
+ewErhSZn7VwnwraGNk1cS6qifUs1FPAVg7kRBuCnEJuvyiwVmQHl7Hy6iOP8Jmy
QrPlsFVJWd9WQV9hzyN0HqCGjKdPX0axixmU2bx7u0eAp5lHR8A7IbIBqq+7KNnQ
2ZgrjJeYPu2xwsL4m6Q+53ukly7w5jychGWfdzJ0DF1qqUxlCqS3b9gxDjxdj8o1
uUOHSYgoZBitWjjaHne0sH+E+hCSY3NN4yQEyQONXo6TBr9asEHDC7kwR+xO3Saj
Cuog1uc6PqxIs3bZOPT8Xh+mkbX0w1PVgH3BMQg3JYKpqmUKeuPyJqcB16Eid1pl
4KgZM/xs/DdtKkUhXt4aYXu/Pvr+a/lCsihbkunrXli39x8UYkNuAkTH0wfNdf12
k3LjanA8LRjNueiJ645MvRUIqNOC+ZHO60jnEPuQsqghjDoRlatQNiNLyVYHkflc
/d534Hae1s6YDG1ann7HDToL/wnc2uoMD8NqR6AHKUUaMr0XVSD+HjZVBrSqLUPy
2wIDAQABo4IBYzCCAV8wCQYDVR0TBAIwADAtBglghkgBhvhCAQ0EIBYeRWFzeS1S
U0EgR2VuZXJhdGVkIENlcnRpZmljYXRlMB0GA1UdDgQWBBQZbbNy454AZCpM40te
RupID7pVxjCB4QYDVR0jBIHZMIHWgBQSzWAE0qCAnnDtxpm4eyzGUv0ZoaGBsqSB
rzCBrDELMAkGA1UEBhMCVVMxCzAJBgNVBAgTAk9IMREwDwYDVQQHEwhDb2x1bWJ1
czESMBAGA1UEChMJVmlraW5nVlBOMR0wGwYDVQQLExRNeU9yZ2FuaXphdGlvbmFs
VW5pdDEVMBMGA1UEAxMMVmlraW5nVlBOIENBMRAwDgYDVQQpEwdFYXN5UlNBMSEw
HwYJKoZIhvcNAQkBFhJtZUBteWhvc3QubXlkb21haW6CCQDPNYXugL8qPjATBgNV
HSUEDDAKBggrBgEFBQcDAjALBgNVHQ8EBAMCB4AwDQYJKoZIhvcNAQELBQADggIB
AETplnVMEBYsFJatioec3CR0RpEjgL/8vhYqKMx4fLVYdV6tlRoTj5Wac8QoYN0L
6sXhIeJiHIhddRQRiJCuG3EwtBahJAn109tWro/Jk1w3FJbrLHf5LL0WMz7qT+Tt
J0p9IN5p6a9vcwi6kbVM8+kQ3wmY6TzCgrjzB39tFH7X0Yo1S2m6Dc3HNDQ3h9qt
g80pypMfF/BvosA6pDrnnNA+RJc9nTmkje4KHdml/MQ5I/zX8RJMDZlLQ47OV/0f
ySy/WMqFVqUweEzKydfREqx+xOrQ0nNgw6n77GjQ9n1am/gu29UdA5xRzrAdG+jC
ckDry6EslVJyCnHdn+7zzUQDHJf88nhySPgpVCYRmlCyqbWLMNeo9+4rgDeScfT8
zSXhsR5tuO9wwB0qedMNi8ebuCb8KuI86BR4wKLjtC+s7cPUUITe1q3hNch4tkhY
57zoRP/ShrG1m+t6buLl2IVKWPZ/us3iKriFx5rvFScrMsquMl0/J/Aa6W+9NzAk
/z22KbupKvzRyo8xANrcLAODWP3zW1Ak/kD9jgV+Z3vNPGt/zztV2bOtT3CDRrRk
yz9GDpELpg69j1rT9VenWjpaxzOlnwQVMfeYuQhBt+os9sj+YgHatgvke0bESeoI
XGvMKWau8gv/Lmk2mSl4/R2tDCvs2OouPLiYAME4Qr6k
-----END CERTIFICATE-----
