Certificate:
    Data:
        Version: 3 (0x2)
        Serial Number: 10044 (0x273c)
    Signature Algorithm: sha256WithRSAEncryption
        Issuer: C=US, ST=OH, L=Columbus, O=VikingVPN, OU=MyOrganizationalUnit, CN=VikingVPN CA/name=EasyRSA/emailAddress=me@myhost.mydomain
        Validity
            Not Before: Feb  3 16:02:02 2017 GMT
            Not After : Feb  1 16:02:02 2027 GMT
        Subject: CN=Client2606Cert07ea61
        Subject Public Key Info:
            Public Key Algorithm: rsaEncryption
                Public-Key: (4096 bit)
                Modulus:
                    00:e8:0d:04:b8:af:1d:8d:38:b8:9c:86:54:0f:cf:
                    8c:ab:7c:94:74:ac:e8:c2:48:f2:ae:c0:87:39:98:
                    d0:f0:1e:8d:f0:72:02:ca:df:72:f7:b4:f7:a6:cd:
                    39:45:f8:aa:11:07:31:56:40:fa:07:74:61:4a:07:
                    5d:e9:60:0a:06:d0:a5:3c:05:a2:98:47:a3:1c:8c:
                    d7:5e:9f:78:da:ae:8d:b2:e4:8b:05:d1:5a:1a:87:
                    cb:4c:e9:8c:5e:81:4f:2e:20:a8:54:e5:a8:2c:4a:
                    74:21:77:fe:3a:bb:b7:4c:49:be:23:1d:d9:fb:5a:
                    7b:9b:65:10:78:ab:72:1b:c1:cc:8b:6d:fe:58:41:
                    58:37:cc:d8:88:39:c8:86:d4:06:11:65:25:0e:04:
                    a0:30:2f:92:73:c7:50:8a:c0:87:a1:1b:7e:2e:a2:
                    9f:41:d9:59:16:74:43:0d:08:b9:e4:59:ba:80:97:
                    46:f9:5d:5c:18:75:4c:f1:67:af:29:95:0c:12:3c:
                    2b:d9:99:43:6e:c8:ee:10:76:87:eb:75:33:11:6f:
                    e9:01:ac:bb:40:dc:ae:c5:bf:ce:b6:4a:44:aa:a5:
                    3b:52:7a:1b:27:09:8e:ac:5b:bf:fd:da:e6:18:b8:
                    39:71:50:15:e2:a9:f1:5b:57:22:10:0c:ff:69:21:
                    25:0e:9d:78:56:ff:cb:d9:40:95:0d:ac:09:ef:43:
                    fc:b6:e4:9a:71:ad:54:62:86:c8:3c:b0:e8:b5:aa:
                    d4:2d:e9:6d:5a:74:8d:66:41:ed:ac:f0:88:4d:f9:
                    e0:73:6f:9b:13:67:36:6d:06:39:49:c4:a4:29:4e:
                    89:e9:09:00:eb:ab:ee:6a:67:bd:25:68:77:c9:89:
                    00:e8:91:76:3e:92:30:8d:48:07:79:10:57:d9:55:
                    39:e1:3f:f6:25:47:4e:a3:be:79:69:77:16:a4:28:
                    5e:d5:26:2f:23:54:13:b4:0b:cd:b5:86:34:4d:05:
                    01:ea:dc:01:1a:f7:92:89:5b:be:e4:b7:d9:50:a5:
                    7b:24:23:0f:b5:18:9d:b4:1e:3e:48:c2:44:8a:48:
                    0f:1c:5c:58:ac:ed:00:49:4d:06:82:02:a1:e7:3f:
                    69:5a:dd:25:a3:4d:d5:8d:19:0a:cc:ca:29:5c:ac:
                    35:6a:d1:fb:c9:d8:27:c6:c7:21:0d:13:80:da:b0:
                    a1:21:93:ab:71:0d:53:86:ff:ee:e3:10:59:fb:1e:
                    55:0a:d1:50:ad:68:15:cf:fe:d9:e1:0e:07:88:47:
                    bc:6c:dd:93:62:22:35:e2:d8:39:bb:6d:c5:19:2a:
                    1a:bb:0d:19:57:71:9a:6d:a5:cb:be:80:5e:43:bb:
                    0d:0b:3f
                Exponent: 65537 (0x10001)
        X509v3 extensions:
            X509v3 Basic Constraints: 
                CA:FALSE
            Netscape Comment: 
                Easy-RSA Generated Certificate
            X509v3 Subject Key Identifier: 
                14:AB:53:9D:D0:F5:ED:39:86:58:93:A1:F0:DA:BA:00:33:05:2B:71
            X509v3 Authority Key Identifier: 
                keyid:12:CD:60:04:D2:A0:80:9E:70:ED:C6:99:B8:7B:2C:C6:52:FD:19:A1
                DirName:/C=US/ST=OH/L=Columbus/O=VikingVPN/OU=MyOrganizationalUnit/CN=VikingVPN CA/name=EasyRSA/emailAddress=me@myhost.mydomain
                serial:CF:35:85:EE:80:BF:2A:3E

            X509v3 Extended Key Usage: 
                TLS Web Client Authentication
            X509v3 Key Usage: 
                Digital Signature
    Signature Algorithm: sha256WithRSAEncryption
         23:d5:4d:24:30:dd:72:94:3a:90:3b:92:3d:0e:a8:c1:a0:ce:
         8d:ca:e6:e5:a3:10:95:25:93:47:2d:4c:ab:05:8e:78:13:47:
         11:e1:e9:1b:5b:d1:16:0d:81:89:22:5b:c8:85:a3:da:12:7d:
         d8:88:dd:ee:bf:22:45:07:83:d5:eb:8b:84:c8:e8:df:87:bd:
         36:bc:23:2f:03:e9:e8:3b:24:30:be:b4:14:e0:95:c6:a3:1f:
         b4:33:6a:f2:69:dd:e6:79:6e:fb:31:de:08:e6:15:14:58:70:
         2f:3f:bd:0d:b8:24:06:80:97:ed:d5:fa:36:7d:d8:28:07:10:
         9d:87:c2:5a:3c:b5:0d:d8:c5:a8:aa:30:0e:76:64:72:48:a8:
         5d:a0:e0:f7:bf:fe:e5:d9:58:51:6f:33:10:39:7c:f9:a2:42:
         f2:d5:88:d7:c3:a5:0e:78:b2:d6:2d:5c:ce:64:81:28:d9:03:
         fc:73:55:75:1d:48:61:98:09:61:91:d4:02:ed:fb:2a:fd:69:
         7f:35:74:a7:82:6a:3c:b9:dd:5a:e9:e8:17:11:e0:d9:e6:bb:
         35:6c:4a:d1:7f:10:84:9e:24:df:99:b1:3a:6a:48:52:68:29:
         cb:44:09:b3:56:0f:90:9f:8a:81:00:0c:7f:c5:22:dc:13:92:
         e0:3a:e3:18:d3:ea:71:bb:bf:2b:98:6c:03:a2:48:3c:38:4d:
         cb:43:4c:20:9f:70:a7:b9:5c:d2:d0:75:e9:dc:5f:9b:da:50:
         48:76:9e:b0:23:49:91:5e:0e:9e:d5:6c:99:f6:39:0e:a8:7c:
         b6:2d:77:65:86:cf:18:4f:8f:f3:1b:41:87:f1:52:26:da:c6:
         cb:41:51:82:e3:38:5f:62:ee:99:5f:f2:41:ec:f5:79:93:5a:
         6d:4e:d5:8d:58:c9:f0:8c:d5:cf:1c:be:59:55:47:04:52:9d:
         04:94:7a:12:97:4e:e6:91:80:f3:c3:0d:17:37:5a:71:a1:5b:
         ea:45:f7:d3:41:ea:59:da:38:66:23:fe:e7:7d:c7:62:d0:b1:
         fa:db:6f:83:ae:e2:ed:85:70:4c:10:54:e4:02:80:7e:c2:f8:
         93:f3:06:6b:f6:76:69:8d:21:94:fb:79:08:3c:ef:60:28:3b:
         14:33:f5:d1:62:12:c4:3f:ac:1c:1c:20:6a:a8:97:15:2a:69:
         bd:ac:ad:6b:ed:be:45:1b:6c:3f:31:94:1a:9e:17:9c:64:ff:
         2c:82:9b:a8:9f:a8:3b:d5:70:f1:33:8a:2b:a6:fd:ee:a8:56:
         1b:60:32:29:68:97:e3:a9:2d:e5:35:af:65:c1:31:0a:8e:96:
         b4:27:c4:59:2d:bd:dd:fd
-----BEGIN CERTIFICATE-----
MIIGrTCCBJWgAwIBAgICJzwwDQYJKoZIhvcNAQELBQAwgawxCzAJBgNVBAYTAlVT
MQswCQYDVQQIEwJPSDERMA8GA1UEBxMIQ29sdW1idXMxEjAQBgNVBAoTCVZpa2lu
Z1ZQTjEdMBsGA1UECxMUTXlPcmdhbml6YXRpb25hbFVuaXQxFTATBgNVBAMTDFZp
a2luZ1ZQTiBDQTEQMA4GA1UEKRMHRWFzeVJTQTEhMB8GCSqGSIb3DQEJARYSbWVA
bXlob3N0Lm15ZG9tYWluMB4XDTE3MDIwMzE2MDIwMloXDTI3MDIwMTE2MDIwMlow
HzEdMBsGA1UEAxMUQ2xpZW50MjYwNkNlcnQwN2VhNjEwggIiMA0GCSqGSIb3DQEB
AQUAA4ICDwAwggIKAoICAQDoDQS4rx2NOLichlQPz4yrfJR0rOjCSPKuwIc5mNDw
Ho3wcgLK33L3tPemzTlF+KoRBzFWQPoHdGFKB13pYAoG0KU8BaKYR6McjNden3ja
ro2y5IsF0Voah8tM6YxegU8uIKhU5agsSnQhd/46u7dMSb4jHdn7WnubZRB4q3Ib
wcyLbf5YQVg3zNiIOciG1AYRZSUOBKAwL5Jzx1CKwIehG34uop9B2VkWdEMNCLnk
WbqAl0b5XVwYdUzxZ68plQwSPCvZmUNuyO4QdofrdTMRb+kBrLtA3K7Fv862SkSq
pTtSehsnCY6sW7/92uYYuDlxUBXiqfFbVyIQDP9pISUOnXhW/8vZQJUNrAnvQ/y2
5JpxrVRihsg8sOi1qtQt6W1adI1mQe2s8IhN+eBzb5sTZzZtBjlJxKQpTonpCQDr
q+5qZ70laHfJiQDokXY+kjCNSAd5EFfZVTnhP/YlR06jvnlpdxakKF7VJi8jVBO0
C821hjRNBQHq3AEa95KJW77kt9lQpXskIw+1GJ20Hj5IwkSKSA8cXFis7QBJTQaC
AqHnP2la3SWjTdWNGQrMyilcrDVq0fvJ2CfGxyENE4DasKEhk6txDVOG/+7jEFn7
HlUK0VCtaBXP/tnhDgeIR7xs3ZNiIjXi2Dm7bcUZKhq7DRlXcZptpcu+gF5Duw0L
PwIDAQABo4IBYzCCAV8wCQYDVR0TBAIwADAtBglghkgBhvhCAQ0EIBYeRWFzeS1S
U0EgR2VuZXJhdGVkIENlcnRpZmljYXRlMB0GA1UdDgQWBBQUq1Od0PXtOYZYk6Hw
2roAMwUrcTCB4QYDVR0jBIHZMIHWgBQSzWAE0qCAnnDtxpm4eyzGUv0ZoaGBsqSB
rzCBrDELMAkGA1UEBhMCVVMxCzAJBgNVBAgTAk9IMREwDwYDVQQHEwhDb2x1bWJ1
czESMBAGA1UEChMJVmlraW5nVlBOMR0wGwYDVQQLExRNeU9yZ2FuaXphdGlvbmFs
VW5pdDEVMBMGA1UEAxMMVmlraW5nVlBOIENBMRAwDgYDVQQpEwdFYXN5UlNBMSEw
HwYJKoZIhvcNAQkBFhJtZUBteWhvc3QubXlkb21haW6CCQDPNYXugL8qPjATBgNV
HSUEDDAKBggrBgEFBQcDAjALBgNVHQ8EBAMCB4AwDQYJKoZIhvcNAQELBQADggIB
ACPVTSQw3XKUOpA7kj0OqMGgzo3K5uWjEJUlk0ctTKsFjngTRxHh6Rtb0RYNgYki
W8iFo9oSfdiI3e6/IkUHg9Xri4TI6N+HvTa8Iy8D6eg7JDC+tBTglcajH7QzavJp
3eZ5bvsx3gjmFRRYcC8/vQ24JAaAl+3V+jZ92CgHEJ2Hwlo8tQ3YxaiqMA52ZHJI
qF2g4Pe//uXZWFFvMxA5fPmiQvLViNfDpQ54stYtXM5kgSjZA/xzVXUdSGGYCWGR
1ALt+yr9aX81dKeCajy53Vrp6BcR4NnmuzVsStF/EISeJN+ZsTpqSFJoKctECbNW
D5CfioEADH/FItwTkuA64xjT6nG7vyuYbAOiSDw4TctDTCCfcKe5XNLQdencX5va
UEh2nrAjSZFeDp7VbJn2OQ6ofLYtd2WGzxhPj/MbQYfxUibaxstBUYLjOF9i7plf
8kHs9XmTWm1O1Y1YyfCM1c8cvllVRwRSnQSUehKXTuaRgPPDDRc3WnGhW+pF99NB
6lnaOGYj/ud9x2LQsfrbb4Ou4u2FcEwQVOQCgH7C+JPzBmv2dmmNIZT7eQg872Ao
OxQz9dFiEsQ/rBwcIGqolxUqab2srWvtvkUbbD8xlBqeF5xk/yyCm6ifqDvVcPEz
iium/e6oVhtgMilol+OpLeU1r2XBMQqOlrQnxFktvd39
-----END CERTIFICATE-----
