Certificate:
    Data:
        Version: 3 (0x2)
        Serial Number: 10065 (0x2751)
    Signature Algorithm: sha256WithRSAEncryption
        Issuer: C=US, ST=OH, L=Columbus, O=VikingVPN, OU=MyOrganizationalUnit, CN=VikingVPN CA/name=EasyRSA/emailAddress=me@myhost.mydomain
        Validity
            Not Before: Feb  6 09:40:09 2017 GMT
            Not After : Feb  4 09:40:09 2027 GMT
        Subject: CN=Client2717Cert062786
        Subject Public Key Info:
            Public Key Algorithm: rsaEncryption
                Public-Key: (4096 bit)
                Modulus:
                    00:d4:74:2a:9e:fc:69:35:a3:76:9d:ab:8b:2e:cd:
                    53:cb:81:a0:8a:10:25:4b:83:13:fb:74:dd:96:73:
                    ce:02:0d:99:b4:14:b2:30:23:59:4f:9c:fd:89:e8:
                    bd:0d:95:42:3a:9a:99:42:92:67:e3:71:c3:53:ae:
                    ce:ea:bf:ab:c1:62:17:ec:dd:2e:e6:fa:06:0f:43:
                    a6:03:5c:45:99:52:d6:26:b3:1a:49:d5:4b:8c:41:
                    f9:74:7c:fd:06:e0:75:13:2c:99:86:d6:07:30:bd:
                    af:d1:a4:4b:29:18:09:b8:cf:e0:a6:5a:12:5d:b1:
                    16:de:18:d7:31:c7:6d:1a:ef:e7:37:64:4a:ba:41:
                    3d:29:a3:96:4c:c0:fe:2b:6f:29:4b:38:9b:6f:65:
                    28:92:82:cc:27:76:e0:a3:bd:12:87:d8:2a:18:e6:
                    33:c0:c5:9e:71:77:94:54:e4:b0:66:1c:39:60:cf:
                    d8:cf:69:01:6e:4f:0d:ad:64:3f:95:af:a9:6c:2e:
                    b7:59:1c:c0:6f:43:f6:c3:f2:b4:d6:ae:ad:83:2d:
                    b2:d3:f3:11:de:f3:75:ce:49:60:95:af:42:86:89:
                    ca:0d:35:ba:a1:50:ab:61:9f:65:29:4c:5e:52:35:
                    ad:ad:40:50:fc:e4:ba:c9:18:fa:37:fa:b1:39:74:
                    30:9c:50:c0:15:e8:b7:15:c4:f5:da:ab:7a:2a:cb:
                    3a:a5:c3:1a:b7:6f:15:08:ac:66:fc:35:16:9a:29:
                    08:fa:44:91:00:8d:e3:71:be:42:62:b9:07:5c:41:
                    0d:65:e0:82:7f:0a:2a:b3:46:fb:e0:60:a4:f0:d5:
                    bd:86:5d:ca:e3:85:2b:05:b7:f9:27:16:74:b2:27:
                    8b:b8:d2:a6:5a:35:5d:8c:f0:47:f3:21:ab:69:dc:
                    93:35:e5:c0:8a:54:04:d2:de:fc:1a:bc:e3:bc:e1:
                    d4:1d:36:c4:3d:50:a8:11:b3:0b:bf:19:d9:ea:a3:
                    ce:e9:25:1b:aa:f4:73:e5:99:3d:c5:72:2b:a6:3f:
                    62:55:01:a4:9e:16:de:1f:53:d4:f8:35:93:f5:ac:
                    e2:3d:6d:d8:33:2b:d0:ba:34:8d:a9:e6:45:de:aa:
                    7c:f2:fd:a9:26:90:6b:02:f4:1f:dd:91:c0:9b:10:
                    88:02:8e:3f:18:22:b0:97:ba:d3:d7:7d:be:50:5c:
                    18:02:de:5c:7e:4a:33:e4:f0:93:c3:2d:69:54:64:
                    37:26:50:4f:76:d6:70:97:75:a6:ab:80:96:bd:a9:
                    06:10:9a:ce:77:ce:07:f4:70:84:c8:e8:ea:da:95:
                    24:90:3a:2f:b2:6f:4a:6f:fe:06:d8:4d:5c:00:05:
                    7c:05:65
                Exponent: 65537 (0x10001)
        X509v3 extensions:
            X509v3 Basic Constraints: 
                CA:FALSE
            Netscape Comment: 
                Easy-RSA Generated Certificate
            X509v3 Subject Key Identifier: 
                C3:B4:D4:13:02:40:55:0B:1F:E3:47:1B:94:8C:4F:AC:8D:D7:05:FC
            X509v3 Authority Key Identifier: 
                keyid:12:CD:60:04:D2:A0:80:9E:70:ED:C6:99:B8:7B:2C:C6:52:FD:19:A1
                DirName:/C=US/ST=OH/L=Columbus/O=VikingVPN/OU=MyOrganizationalUnit/CN=VikingVPN CA/name=EasyRSA/emailAddress=me@myhost.mydomain
                serial:CF:35:85:EE:80:BF:2A:3E

            X509v3 Extended Key Usage: 
                TLS Web Client Authentication
            X509v3 Key Usage: 
                Digital Signature
    Signature Algorithm: sha256WithRSAEncryption
         ec:3c:9d:2e:33:a8:ff:8d:a6:5b:ea:4f:6a:71:a3:4d:59:59:
         7b:29:f9:bc:87:ae:ae:7d:16:36:c6:64:b9:7a:7d:e2:dd:f9:
         c2:60:f6:df:b9:60:68:8c:13:92:5f:dd:3d:07:40:c3:bd:c6:
         88:75:83:d3:4f:57:1f:08:78:38:ce:f6:d3:5e:75:0a:12:0d:
         6f:eb:16:33:b3:a1:e7:80:c1:ad:cd:a2:c1:df:4e:b8:ed:2f:
         27:38:cc:d5:94:e9:14:72:ea:74:68:16:20:00:db:ad:94:a8:
         0b:67:8a:6e:e9:d2:5e:c8:ee:24:37:de:74:68:60:be:b5:6d:
         01:f5:08:18:07:73:39:96:2d:8e:6b:c1:07:3f:73:f6:57:6e:
         4c:b7:01:a2:c6:94:27:cf:fa:e8:85:cd:73:1f:cb:31:47:df:
         fc:b3:3c:1e:c1:88:14:8e:85:53:ed:41:ce:b1:39:0d:d3:29:
         8f:61:b0:e9:f5:b3:99:39:58:50:61:b6:09:a7:f3:ae:31:14:
         2d:be:39:ce:d8:62:26:a4:a9:f5:2f:6b:90:21:42:84:b0:5f:
         24:07:40:ff:46:64:b6:be:04:c9:88:ff:04:87:a1:5b:0d:58:
         73:e3:fb:2f:ca:a9:c6:21:6d:6c:eb:2a:32:7e:5a:0a:98:1c:
         b0:de:ef:3d:06:dc:14:7e:a1:49:76:4c:48:0c:85:80:39:2e:
         51:f3:25:6a:32:e5:dc:ce:0b:90:70:f7:4c:6c:b2:99:86:a0:
         98:42:25:47:af:a0:a5:82:b2:fa:91:b8:6a:da:a4:e2:4b:b1:
         27:1b:e0:c0:a9:d0:71:93:34:83:ca:63:0a:88:ac:18:63:de:
         97:50:21:61:34:ff:2b:75:7f:74:94:8a:93:f8:35:ac:3f:84:
         0c:12:c7:6f:48:51:4f:6c:a5:88:86:d2:36:68:a7:29:36:b5:
         e5:31:c9:8b:c7:1d:56:48:30:e4:1e:5a:d9:a0:5f:eb:10:e7:
         86:4e:f2:b5:fb:60:fd:a9:6e:d8:da:c6:03:35:c0:44:5c:c9:
         4b:05:93:48:04:a9:90:68:ec:00:ad:d7:f5:c7:4e:d8:ba:9b:
         e0:6f:7e:76:23:17:ea:cf:34:db:8c:29:3d:ec:2d:68:3d:43:
         18:11:0e:81:99:b5:35:ce:62:53:35:12:c5:97:ca:32:44:83:
         15:56:35:73:b7:bb:66:ad:87:3c:6e:48:47:92:06:6e:e1:f9:
         ab:77:e6:22:54:8c:09:01:1e:72:37:a7:da:5a:11:bc:1d:30:
         8b:4a:c8:28:d0:a5:61:7d:05:07:ca:fd:4d:dd:5c:dd:f2:9c:
         76:f4:ff:3d:0a:d3:22:4d
-----BEGIN CERTIFICATE-----
MIIGrTCCBJWgAwIBAgICJ1EwDQYJKoZIhvcNAQELBQAwgawxCzAJBgNVBAYTAlVT
MQswCQYDVQQIEwJPSDERMA8GA1UEBxMIQ29sdW1idXMxEjAQBgNVBAoTCVZpa2lu
Z1ZQTjEdMBsGA1UECxMUTXlPcmdhbml6YXRpb25hbFVuaXQxFTATBgNVBAMTDFZp
a2luZ1ZQTiBDQTEQMA4GA1UEKRMHRWFzeVJTQTEhMB8GCSqGSIb3DQEJARYSbWVA
bXlob3N0Lm15ZG9tYWluMB4XDTE3MDIwNjA5NDAwOVoXDTI3MDIwNDA5NDAwOVow
HzEdMBsGA1UEAxMUQ2xpZW50MjcxN0NlcnQwNjI3ODYwggIiMA0GCSqGSIb3DQEB
AQUAA4ICDwAwggIKAoICAQDUdCqe/Gk1o3adq4suzVPLgaCKECVLgxP7dN2Wc84C
DZm0FLIwI1lPnP2J6L0NlUI6mplCkmfjccNTrs7qv6vBYhfs3S7m+gYPQ6YDXEWZ
UtYmsxpJ1UuMQfl0fP0G4HUTLJmG1gcwva/RpEspGAm4z+CmWhJdsRbeGNcxx20a
7+c3ZEq6QT0po5ZMwP4rbylLOJtvZSiSgswnduCjvRKH2CoY5jPAxZ5xd5RU5LBm
HDlgz9jPaQFuTw2tZD+Vr6lsLrdZHMBvQ/bD8rTWrq2DLbLT8xHe83XOSWCVr0KG
icoNNbqhUKthn2UpTF5SNa2tQFD85LrJGPo3+rE5dDCcUMAV6LcVxPXaq3oqyzql
wxq3bxUIrGb8NRaaKQj6RJEAjeNxvkJiuQdcQQ1l4IJ/CiqzRvvgYKTw1b2GXcrj
hSsFt/knFnSyJ4u40qZaNV2M8EfzIatp3JM15cCKVATS3vwavOO84dQdNsQ9UKgR
swu/Gdnqo87pJRuq9HPlmT3FciumP2JVAaSeFt4fU9T4NZP1rOI9bdgzK9C6NI2p
5kXeqnzy/akmkGsC9B/dkcCbEIgCjj8YIrCXutPXfb5QXBgC3lx+SjPk8JPDLWlU
ZDcmUE921nCXdaargJa9qQYQms53zgf0cITI6OralSSQOi+yb0pv/gbYTVwABXwF
ZQIDAQABo4IBYzCCAV8wCQYDVR0TBAIwADAtBglghkgBhvhCAQ0EIBYeRWFzeS1S
U0EgR2VuZXJhdGVkIENlcnRpZmljYXRlMB0GA1UdDgQWBBTDtNQTAkBVCx/jRxuU
jE+sjdcF/DCB4QYDVR0jBIHZMIHWgBQSzWAE0qCAnnDtxpm4eyzGUv0ZoaGBsqSB
rzCBrDELMAkGA1UEBhMCVVMxCzAJBgNVBAgTAk9IMREwDwYDVQQHEwhDb2x1bWJ1
czESMBAGA1UEChMJVmlraW5nVlBOMR0wGwYDVQQLExRNeU9yZ2FuaXphdGlvbmFs
VW5pdDEVMBMGA1UEAxMMVmlraW5nVlBOIENBMRAwDgYDVQQpEwdFYXN5UlNBMSEw
HwYJKoZIhvcNAQkBFhJtZUBteWhvc3QubXlkb21haW6CCQDPNYXugL8qPjATBgNV
HSUEDDAKBggrBgEFBQcDAjALBgNVHQ8EBAMCB4AwDQYJKoZIhvcNAQELBQADggIB
AOw8nS4zqP+NplvqT2pxo01ZWXsp+byHrq59FjbGZLl6feLd+cJg9t+5YGiME5Jf
3T0HQMO9xoh1g9NPVx8IeDjO9tNedQoSDW/rFjOzoeeAwa3NosHfTrjtLyc4zNWU
6RRy6nRoFiAA262UqAtnim7p0l7I7iQ33nRoYL61bQH1CBgHczmWLY5rwQc/c/ZX
bky3AaLGlCfP+uiFzXMfyzFH3/yzPB7BiBSOhVPtQc6xOQ3TKY9hsOn1s5k5WFBh
tgmn864xFC2+Oc7YYiakqfUva5AhQoSwXyQHQP9GZLa+BMmI/wSHoVsNWHPj+y/K
qcYhbWzrKjJ+WgqYHLDe7z0G3BR+oUl2TEgMhYA5LlHzJWoy5dzOC5Bw90xsspmG
oJhCJUevoKWCsvqRuGrapOJLsScb4MCp0HGTNIPKYwqIrBhj3pdQIWE0/yt1f3SU
ipP4Naw/hAwSx29IUU9spYiG0jZopyk2teUxyYvHHVZIMOQeWtmgX+sQ54ZO8rX7
YP2pbtjaxgM1wERcyUsFk0gEqZBo7ACt1/XHTti6m+BvfnYjF+rPNNuMKT3sLWg9
QxgRDoGZtTXOYlM1EsWXyjJEgxVWNXO3u2athzxuSEeSBm7h+at35iJUjAkBHnI3
p9paEbwdMItKyCjQpWF9BQfK/U3dXN3ynHb0/z0K0yJN
-----END CERTIFICATE-----
