Certificate:
    Data:
        Version: 3 (0x2)
        Serial Number: 10074 (0x275a)
    Signature Algorithm: sha256WithRSAEncryption
        Issuer: C=US, ST=OH, L=Columbus, O=VikingVPN, OU=MyOrganizationalUnit, CN=VikingVPN CA/name=EasyRSA/emailAddress=me@myhost.mydomain
        Validity
            Not Before: Feb  7 02:16:52 2017 GMT
            Not After : Feb  5 02:16:52 2027 GMT
        Subject: CN=Client2720Certbbcbbb
        Subject Public Key Info:
            Public Key Algorithm: rsaEncryption
                Public-Key: (4096 bit)
                Modulus:
                    00:b1:af:ee:6f:0c:b7:94:4e:5c:47:3c:25:91:c0:
                    cd:4f:8a:ac:57:e5:23:87:6d:6a:24:6e:5d:cc:71:
                    a6:0a:6e:4b:e5:be:8d:cb:54:1e:b8:ba:ad:37:b9:
                    d5:af:5f:c4:47:ac:d4:7a:d3:3a:05:c2:4e:76:db:
                    e0:fa:3e:61:94:26:bb:19:54:cd:6c:a1:c1:45:a6:
                    b6:ba:01:75:e7:50:7a:67:21:51:de:ad:77:80:8a:
                    56:60:d6:2a:61:d3:04:ad:71:0f:16:89:cb:1d:f6:
                    ec:2e:58:8a:92:16:e5:30:c8:c2:56:30:d1:2c:2d:
                    e2:b9:98:dd:46:65:ca:7b:1e:76:d0:e2:00:55:ed:
                    95:d9:5d:63:b2:3e:69:1a:d2:a1:08:89:f4:03:b1:
                    36:df:95:5b:b4:c7:a0:ff:61:2c:9e:43:dc:7f:8d:
                    6f:1a:b0:db:c3:75:90:a4:17:f9:bf:0d:fc:48:3d:
                    57:15:2f:3e:92:c9:f1:df:af:9e:97:e5:11:83:d8:
                    6e:3d:f4:99:c0:0d:17:28:04:d6:70:66:32:52:0e:
                    ba:00:72:71:0b:05:e4:b5:5d:e6:45:db:8c:93:41:
                    f6:43:31:8c:b0:02:2e:aa:8c:46:6f:cf:05:14:73:
                    ea:da:0f:e8:2a:15:3a:36:25:4e:25:68:ee:8a:5c:
                    49:44:36:3d:e2:0a:90:06:fe:f6:ec:de:7b:ea:ea:
                    6c:1a:3c:3a:d1:33:50:4e:8a:68:54:a9:55:eb:9b:
                    8c:98:15:8a:ca:c8:c5:ee:31:62:1e:6c:02:58:16:
                    8b:e6:26:39:3e:f1:f5:d4:66:87:cb:41:aa:db:44:
                    6d:42:47:22:66:b9:65:44:57:48:00:f7:9c:14:4f:
                    04:d7:30:38:7f:af:7a:b5:4a:25:87:e0:58:e4:7c:
                    e5:f8:5c:2b:69:2d:36:cf:88:03:25:1b:e3:47:66:
                    32:40:d2:59:3a:1a:4b:d1:9f:3b:e8:91:67:1f:07:
                    bf:4f:bd:86:bc:d0:af:4d:b9:c9:2b:be:41:bd:8e:
                    94:4a:57:ed:4f:f8:27:24:22:6a:37:32:71:15:f9:
                    50:d6:ea:ed:5c:96:b5:42:a4:fc:b6:c5:ab:ba:aa:
                    11:9f:73:db:23:e6:d7:53:78:ef:52:cd:bf:6b:5a:
                    39:6c:0f:f8:41:01:4c:cc:c0:04:82:38:e2:af:e1:
                    08:4a:3c:53:a6:d3:c6:2c:1b:3d:76:b1:0f:1d:f5:
                    1a:16:aa:02:bb:c9:16:c2:9a:7d:1d:4f:ed:91:87:
                    87:fe:bf:39:ab:b7:58:e2:96:33:5b:4d:17:57:7d:
                    a3:3c:f1:ef:87:47:bb:ee:9e:77:9b:09:55:be:bc:
                    fe:40:59
                Exponent: 65537 (0x10001)
        X509v3 extensions:
            X509v3 Basic Constraints: 
                CA:FALSE
            Netscape Comment: 
                Easy-RSA Generated Certificate
            X509v3 Subject Key Identifier: 
                E3:AC:1B:9D:8C:84:D0:4F:40:0B:AF:B2:C6:37:78:F4:16:50:1D:13
            X509v3 Authority Key Identifier: 
                keyid:12:CD:60:04:D2:A0:80:9E:70:ED:C6:99:B8:7B:2C:C6:52:FD:19:A1
                DirName:/C=US/ST=OH/L=Columbus/O=VikingVPN/OU=MyOrganizationalUnit/CN=VikingVPN CA/name=EasyRSA/emailAddress=me@myhost.mydomain
                serial:CF:35:85:EE:80:BF:2A:3E

            X509v3 Extended Key Usage: 
                TLS Web Client Authentication
            X509v3 Key Usage: 
                Digital Signature
    Signature Algorithm: sha256WithRSAEncryption
         59:bf:0d:0d:20:9e:0e:63:39:8d:41:93:21:a5:c7:37:60:05:
         32:0d:c0:d2:73:db:e5:97:c9:5f:21:f8:ec:7b:d6:bc:64:89:
         5b:e7:4c:8f:23:88:f3:27:66:5d:6e:f7:83:9c:40:c3:bc:b5:
         88:1f:af:ba:6b:f6:dd:22:65:07:91:b8:97:32:a2:73:15:f2:
         13:ec:0b:b8:a1:1c:ed:df:da:13:b0:81:1e:cf:b9:93:3e:d4:
         44:98:81:bf:19:76:3e:2f:6a:43:d4:db:f2:04:e6:65:8e:a3:
         e6:ad:61:39:6f:1b:4a:c1:da:2b:a8:03:77:b0:04:5a:32:07:
         b2:5d:50:e6:6f:23:a2:de:6d:e3:58:23:6b:09:65:4a:56:dc:
         9a:26:8f:4e:68:68:b7:00:38:73:e6:cc:c1:ee:b0:69:8a:15:
         0a:5a:f6:cd:3f:ee:5d:5e:c6:ef:6b:d2:10:94:e7:63:df:4d:
         5b:f4:5b:58:2d:f7:17:80:ea:44:f7:cf:0f:65:f9:6c:87:6e:
         9e:00:d5:20:47:6e:49:66:a1:7c:ce:54:dc:8e:35:36:f7:4c:
         aa:be:25:7a:81:56:4f:79:74:aa:0d:77:5d:86:5c:22:cb:50:
         97:5c:05:b4:a5:2d:7d:6e:86:1d:31:29:e5:e8:b5:3c:47:81:
         24:8e:03:0f:6d:45:d9:c5:bd:a7:72:11:b1:34:e3:73:88:b4:
         96:eb:aa:b0:8c:bf:42:47:63:06:4b:b0:0a:13:bb:95:d7:c4:
         79:f6:af:c7:7d:79:6e:9e:c9:ef:07:86:07:b6:7b:65:c6:e5:
         a7:b4:19:d5:13:25:2d:b2:69:48:66:b5:17:6a:4f:8e:29:21:
         74:d6:9f:ab:39:10:58:2d:dc:63:ff:fd:7b:28:6b:90:f7:7b:
         32:90:da:6d:5c:5a:5c:e2:92:4c:81:63:fe:1d:86:ab:88:58:
         4c:0b:b0:99:e5:86:f1:ef:12:88:01:17:dc:07:de:d1:d7:85:
         9a:a9:d0:dc:92:b4:cd:3f:b5:58:95:9c:88:ae:58:c4:7e:8c:
         8b:2d:d0:ac:78:9d:8d:63:20:f0:b8:7e:74:9c:5a:f7:e4:22:
         3d:f2:10:2e:80:f9:2c:60:7b:c3:80:21:11:24:7e:f2:76:aa:
         fd:03:00:8c:f0:88:20:6f:61:e5:d9:10:97:33:56:25:32:e0:
         78:84:b5:c4:75:b6:7b:de:3d:41:0f:80:26:b4:ab:25:9b:a8:
         de:be:98:81:1e:cc:c4:b2:2d:01:2a:d4:3e:3e:d2:cf:b2:a0:
         53:d3:a1:8c:56:9f:0a:d7:1b:57:cc:e0:a6:26:64:fe:62:a3:
         97:7e:52:8d:a3:81:a7:95
-----BEGIN CERTIFICATE-----
MIIGrTCCBJWgAwIBAgICJ1owDQYJKoZIhvcNAQELBQAwgawxCzAJBgNVBAYTAlVT
MQswCQYDVQQIEwJPSDERMA8GA1UEBxMIQ29sdW1idXMxEjAQBgNVBAoTCVZpa2lu
Z1ZQTjEdMBsGA1UECxMUTXlPcmdhbml6YXRpb25hbFVuaXQxFTATBgNVBAMTDFZp
a2luZ1ZQTiBDQTEQMA4GA1UEKRMHRWFzeVJTQTEhMB8GCSqGSIb3DQEJARYSbWVA
bXlob3N0Lm15ZG9tYWluMB4XDTE3MDIwNzAyMTY1MloXDTI3MDIwNTAyMTY1Mlow
HzEdMBsGA1UEAxMUQ2xpZW50MjcyMENlcnRiYmNiYmIwggIiMA0GCSqGSIb3DQEB
AQUAA4ICDwAwggIKAoICAQCxr+5vDLeUTlxHPCWRwM1PiqxX5SOHbWokbl3McaYK
bkvlvo3LVB64uq03udWvX8RHrNR60zoFwk522+D6PmGUJrsZVM1socFFpra6AXXn
UHpnIVHerXeAilZg1iph0wStcQ8Wicsd9uwuWIqSFuUwyMJWMNEsLeK5mN1GZcp7
HnbQ4gBV7ZXZXWOyPmka0qEIifQDsTbflVu0x6D/YSyeQ9x/jW8asNvDdZCkF/m/
DfxIPVcVLz6SyfHfr56X5RGD2G499JnADRcoBNZwZjJSDroAcnELBeS1XeZF24yT
QfZDMYywAi6qjEZvzwUUc+raD+gqFTo2JU4laO6KXElENj3iCpAG/vbs3nvq6mwa
PDrRM1BOimhUqVXrm4yYFYrKyMXuMWIebAJYFovmJjk+8fXUZofLQarbRG1CRyJm
uWVEV0gA95wUTwTXMDh/r3q1SiWH4FjkfOX4XCtpLTbPiAMlG+NHZjJA0lk6GkvR
nzvokWcfB79PvYa80K9NuckrvkG9jpRKV+1P+CckImo3MnEV+VDW6u1clrVCpPy2
xau6qhGfc9sj5tdTeO9Szb9rWjlsD/hBAUzMwASCOOKv4QhKPFOm08YsGz12sQ8d
9RoWqgK7yRbCmn0dT+2Rh4f+vzmrt1jiljNbTRdXfaM88e+HR7vunnebCVW+vP5A
WQIDAQABo4IBYzCCAV8wCQYDVR0TBAIwADAtBglghkgBhvhCAQ0EIBYeRWFzeS1S
U0EgR2VuZXJhdGVkIENlcnRpZmljYXRlMB0GA1UdDgQWBBTjrBudjITQT0ALr7LG
N3j0FlAdEzCB4QYDVR0jBIHZMIHWgBQSzWAE0qCAnnDtxpm4eyzGUv0ZoaGBsqSB
rzCBrDELMAkGA1UEBhMCVVMxCzAJBgNVBAgTAk9IMREwDwYDVQQHEwhDb2x1bWJ1
czESMBAGA1UEChMJVmlraW5nVlBOMR0wGwYDVQQLExRNeU9yZ2FuaXphdGlvbmFs
VW5pdDEVMBMGA1UEAxMMVmlraW5nVlBOIENBMRAwDgYDVQQpEwdFYXN5UlNBMSEw
HwYJKoZIhvcNAQkBFhJtZUBteWhvc3QubXlkb21haW6CCQDPNYXugL8qPjATBgNV
HSUEDDAKBggrBgEFBQcDAjALBgNVHQ8EBAMCB4AwDQYJKoZIhvcNAQELBQADggIB
AFm/DQ0gng5jOY1BkyGlxzdgBTINwNJz2+WXyV8h+Ox71rxkiVvnTI8jiPMnZl1u
94OcQMO8tYgfr7pr9t0iZQeRuJcyonMV8hPsC7ihHO3f2hOwgR7PuZM+1ESYgb8Z
dj4vakPU2/IE5mWOo+atYTlvG0rB2iuoA3ewBFoyB7JdUOZvI6LebeNYI2sJZUpW
3Jomj05oaLcAOHPmzMHusGmKFQpa9s0/7l1exu9r0hCU52PfTVv0W1gt9xeA6kT3
zw9l+WyHbp4A1SBHbklmoXzOVNyONTb3TKq+JXqBVk95dKoNd12GXCLLUJdcBbSl
LX1uhh0xKeXotTxHgSSOAw9tRdnFvadyEbE043OItJbrqrCMv0JHYwZLsAoTu5XX
xHn2r8d9eW6eye8Hhge2e2XG5ae0GdUTJS2yaUhmtRdqT44pIXTWn6s5EFgt3GP/
/Xsoa5D3ezKQ2m1cWlzikkyBY/4dhquIWEwLsJnlhvHvEogBF9wH3tHXhZqp0NyS
tM0/tViVnIiuWMR+jIst0Kx4nY1jIPC4fnScWvfkIj3yEC6A+Sxge8OAIREkfvJ2
qv0DAIzwiCBvYeXZEJczViUy4HiEtcR1tnvePUEPgCa0qyWbqN6+mIEezMSyLQEq
1D4+0s+yoFPToYxWnwrXG1fM4KYmZP5io5d+Uo2jgaeV
-----END CERTIFICATE-----
