Certificate:
    Data:
        Version: 3 (0x2)
        Serial Number: 10077 (0x275d)
    Signature Algorithm: sha256WithRSAEncryption
        Issuer: C=US, ST=OH, L=Columbus, O=VikingVPN, OU=MyOrganizationalUnit, CN=VikingVPN CA/name=EasyRSA/emailAddress=me@myhost.mydomain
        Validity
            Not Before: Feb  7 07:16:41 2017 GMT
            Not After : Feb  5 07:16:41 2027 GMT
        Subject: CN=Client2721Certc97d8e
        Subject Public Key Info:
            Public Key Algorithm: rsaEncryption
                Public-Key: (4096 bit)
                Modulus:
                    00:b7:2d:2c:c3:8a:cd:aa:2a:49:07:37:ac:19:09:
                    27:54:e8:ae:5c:7b:2f:d3:bb:84:86:f7:63:ab:83:
                    0d:31:67:7c:86:5f:44:9e:14:ac:64:59:b7:7d:b7:
                    5f:81:9f:3a:b9:50:7b:61:2e:51:91:a6:0c:c2:4e:
                    5a:6b:17:45:80:ed:51:da:a6:17:db:4c:fc:e3:24:
                    5e:3d:05:54:68:39:09:c4:1d:60:f8:d7:93:84:80:
                    26:f9:c0:19:f3:b9:a2:19:85:fd:df:ac:e2:92:dd:
                    74:30:f1:f5:96:50:37:3c:0b:bd:ff:3f:cf:d0:14:
                    42:bb:84:f4:53:84:a1:50:40:09:1e:0a:7f:39:c2:
                    85:36:bc:a9:18:fa:2e:d9:2c:a8:bf:2f:c8:3b:fc:
                    7e:d6:f8:d9:0c:1e:94:ba:d4:2e:89:70:49:3a:ab:
                    99:f5:36:7c:c7:59:e9:50:2b:af:e5:c8:b6:47:a2:
                    c0:86:49:a5:00:7d:65:d2:1d:91:34:38:4b:7a:0c:
                    4c:90:19:60:74:2c:89:47:cc:48:50:c1:7b:83:d6:
                    37:0c:57:88:b3:cc:ab:1c:4d:d4:dc:3c:73:bd:c1:
                    2b:f1:7d:5a:85:da:01:6d:f4:a1:2e:ac:ee:ec:6c:
                    dc:14:b9:92:3d:59:f1:aa:27:44:d4:10:cf:b1:55:
                    55:0c:ac:55:c5:e4:cb:bc:a1:59:d0:e2:b4:a3:1b:
                    52:0a:45:25:36:3c:ac:a2:3c:ac:1e:46:40:c9:f3:
                    7b:d6:3c:17:30:33:68:92:6c:a9:6e:18:73:e8:9c:
                    ae:3b:47:8d:44:d2:18:73:b5:55:1c:a7:c8:e7:a7:
                    22:b9:23:d6:47:f7:41:fd:3d:95:52:94:6f:2b:b3:
                    f0:6c:ae:d6:6e:9c:e3:28:c4:f4:c8:4b:8c:59:47:
                    c9:33:a3:ec:a0:f4:7f:5a:8f:bb:f8:db:d7:70:fc:
                    67:29:5c:99:41:27:cd:33:8c:24:2a:68:72:2f:8e:
                    9d:d1:93:56:30:08:0d:5c:6e:73:b8:54:43:ca:9c:
                    d5:35:ec:df:23:57:27:2c:dd:ef:fd:86:c6:7a:c8:
                    e1:54:88:8d:7c:bb:15:7d:8e:7f:94:85:ed:8e:39:
                    38:eb:c3:a6:b9:21:3a:5c:90:a2:a7:62:8c:c8:27:
                    73:67:82:c2:a5:99:44:16:21:33:80:d3:b8:a4:aa:
                    80:11:c4:04:3f:b1:ca:5a:63:5e:94:85:69:ef:5b:
                    2e:d8:ef:89:2c:87:e1:67:d1:a1:a7:6e:ec:10:e3:
                    e0:fd:c7:f0:7e:8a:47:ab:ee:d7:b8:e4:45:de:63:
                    58:0d:6c:3f:57:cd:e6:66:3d:fa:87:91:a8:7a:7e:
                    8b:12:23
                Exponent: 65537 (0x10001)
        X509v3 extensions:
            X509v3 Basic Constraints: 
                CA:FALSE
            Netscape Comment: 
                Easy-RSA Generated Certificate
            X509v3 Subject Key Identifier: 
                AD:4D:DE:64:55:5B:DB:4D:20:EE:28:F8:F4:3D:E6:D6:B5:C2:97:9D
            X509v3 Authority Key Identifier: 
                keyid:12:CD:60:04:D2:A0:80:9E:70:ED:C6:99:B8:7B:2C:C6:52:FD:19:A1
                DirName:/C=US/ST=OH/L=Columbus/O=VikingVPN/OU=MyOrganizationalUnit/CN=VikingVPN CA/name=EasyRSA/emailAddress=me@myhost.mydomain
                serial:CF:35:85:EE:80:BF:2A:3E

            X509v3 Extended Key Usage: 
                TLS Web Client Authentication
            X509v3 Key Usage: 
                Digital Signature
    Signature Algorithm: sha256WithRSAEncryption
         7f:5e:ae:a6:57:37:35:64:08:50:7f:67:95:fa:d2:7a:a5:7f:
         e8:b4:df:36:80:12:96:83:47:81:fa:51:1c:29:35:72:73:4a:
         55:75:ac:9f:91:4f:25:9c:7f:03:f0:98:9c:f1:22:fd:c2:f2:
         55:a5:da:c8:af:de:1a:9e:ea:36:fd:3b:0e:81:63:ae:b1:9a:
         1c:49:63:9c:5c:58:c1:23:95:77:c8:ed:1b:69:ca:fd:b5:0e:
         4a:5e:fb:7d:a0:2c:23:f4:a0:ae:b4:71:d4:8d:1e:90:ce:f8:
         46:c9:94:b4:50:3a:a2:7f:52:11:00:02:38:7c:3f:e9:e1:ee:
         ff:da:29:89:13:9e:a8:e2:fa:06:0c:76:69:5e:0d:6b:9e:9b:
         af:31:c7:0f:9b:a4:a4:23:d7:39:0e:67:e0:12:3f:23:c0:b4:
         16:e3:c5:9d:de:38:da:dc:04:37:40:38:b4:46:66:4e:78:45:
         0a:07:43:91:f6:87:da:05:96:10:00:22:b1:c2:c6:08:f9:32:
         4b:9d:48:7e:a5:e3:85:03:b2:8d:21:96:75:bd:94:b6:b2:50:
         5e:77:ae:42:49:fa:ce:72:58:8f:24:ad:79:2b:0b:3d:5d:ae:
         b7:1d:b8:9e:6a:97:f0:86:00:ac:9b:f3:8f:2a:47:86:9c:18:
         7b:5a:a0:ab:b9:99:a6:96:39:5d:db:96:a3:fa:ae:74:f3:96:
         81:68:46:06:22:97:cc:c0:98:ce:e3:1f:a5:f0:95:10:b6:69:
         54:91:6e:e0:ab:33:62:1a:1f:81:27:d5:5c:c6:66:dd:0c:ce:
         f1:b5:fb:72:45:6c:9d:64:f3:9d:f5:8f:fb:54:dc:de:d0:de:
         91:90:fa:5e:f1:68:72:e0:4c:ae:74:c2:67:ec:39:d9:1d:33:
         d1:64:a7:17:f9:76:c1:20:3e:61:88:a1:27:d9:bf:68:e4:ef:
         e8:70:8e:52:1b:4e:49:82:5f:ea:ac:e3:e4:7d:b7:6d:71:74:
         39:f3:8a:94:64:f3:c7:08:be:1a:9c:71:78:cf:b3:cb:57:4a:
         3b:7e:5a:1c:35:c9:11:b6:8c:c9:a6:d5:71:29:79:c3:7b:d6:
         8a:95:fd:97:b8:c6:9b:b5:2a:84:b9:22:36:15:d0:63:45:b5:
         84:17:64:8e:43:4d:a7:5d:db:fc:e4:af:13:4f:70:01:2e:a0:
         49:9b:da:e7:cc:35:ef:43:52:c6:98:5b:22:c3:87:63:6d:1a:
         b9:55:8f:ca:e9:08:5a:eb:a7:43:aa:92:78:38:b3:21:00:36:
         4f:b5:58:32:90:7c:92:e9:25:87:a7:a5:f5:ca:84:c8:76:24:
         cb:65:7b:34:11:5b:c9:5c
-----BEGIN CERTIFICATE-----
MIIGrTCCBJWgAwIBAgICJ10wDQYJKoZIhvcNAQELBQAwgawxCzAJBgNVBAYTAlVT
MQswCQYDVQQIEwJPSDERMA8GA1UEBxMIQ29sdW1idXMxEjAQBgNVBAoTCVZpa2lu
Z1ZQTjEdMBsGA1UECxMUTXlPcmdhbml6YXRpb25hbFVuaXQxFTATBgNVBAMTDFZp
a2luZ1ZQTiBDQTEQMA4GA1UEKRMHRWFzeVJTQTEhMB8GCSqGSIb3DQEJARYSbWVA
bXlob3N0Lm15ZG9tYWluMB4XDTE3MDIwNzA3MTY0MVoXDTI3MDIwNTA3MTY0MVow
HzEdMBsGA1UEAxMUQ2xpZW50MjcyMUNlcnRjOTdkOGUwggIiMA0GCSqGSIb3DQEB
AQUAA4ICDwAwggIKAoICAQC3LSzDis2qKkkHN6wZCSdU6K5cey/Tu4SG92Orgw0x
Z3yGX0SeFKxkWbd9t1+Bnzq5UHthLlGRpgzCTlprF0WA7VHaphfbTPzjJF49BVRo
OQnEHWD415OEgCb5wBnzuaIZhf3frOKS3XQw8fWWUDc8C73/P8/QFEK7hPRThKFQ
QAkeCn85woU2vKkY+i7ZLKi/L8g7/H7W+NkMHpS61C6JcEk6q5n1NnzHWelQK6/l
yLZHosCGSaUAfWXSHZE0OEt6DEyQGWB0LIlHzEhQwXuD1jcMV4izzKscTdTcPHO9
wSvxfVqF2gFt9KEurO7sbNwUuZI9WfGqJ0TUEM+xVVUMrFXF5Mu8oVnQ4rSjG1IK
RSU2PKyiPKweRkDJ83vWPBcwM2iSbKluGHPonK47R41E0hhztVUcp8jnpyK5I9ZH
90H9PZVSlG8rs/BsrtZunOMoxPTIS4xZR8kzo+yg9H9aj7v429dw/GcpXJlBJ80z
jCQqaHIvjp3Rk1YwCA1cbnO4VEPKnNU17N8jVycs3e/9hsZ6yOFUiI18uxV9jn+U
he2OOTjrw6a5ITpckKKnYozIJ3NngsKlmUQWITOA07ikqoARxAQ/scpaY16UhWnv
Wy7Y74ksh+Fn0aGnbuwQ4+D9x/B+iker7te45EXeY1gNbD9XzeZmPfqHkah6fosS
IwIDAQABo4IBYzCCAV8wCQYDVR0TBAIwADAtBglghkgBhvhCAQ0EIBYeRWFzeS1S
U0EgR2VuZXJhdGVkIENlcnRpZmljYXRlMB0GA1UdDgQWBBStTd5kVVvbTSDuKPj0
PebWtcKXnTCB4QYDVR0jBIHZMIHWgBQSzWAE0qCAnnDtxpm4eyzGUv0ZoaGBsqSB
rzCBrDELMAkGA1UEBhMCVVMxCzAJBgNVBAgTAk9IMREwDwYDVQQHEwhDb2x1bWJ1
czESMBAGA1UEChMJVmlraW5nVlBOMR0wGwYDVQQLExRNeU9yZ2FuaXphdGlvbmFs
VW5pdDEVMBMGA1UEAxMMVmlraW5nVlBOIENBMRAwDgYDVQQpEwdFYXN5UlNBMSEw
HwYJKoZIhvcNAQkBFhJtZUBteWhvc3QubXlkb21haW6CCQDPNYXugL8qPjATBgNV
HSUEDDAKBggrBgEFBQcDAjALBgNVHQ8EBAMCB4AwDQYJKoZIhvcNAQELBQADggIB
AH9erqZXNzVkCFB/Z5X60nqlf+i03zaAEpaDR4H6URwpNXJzSlV1rJ+RTyWcfwPw
mJzxIv3C8lWl2siv3hqe6jb9Ow6BY66xmhxJY5xcWMEjlXfI7Rtpyv21Dkpe+32g
LCP0oK60cdSNHpDO+EbJlLRQOqJ/UhEAAjh8P+nh7v/aKYkTnqji+gYMdmleDWue
m68xxw+bpKQj1zkOZ+ASPyPAtBbjxZ3eONrcBDdAOLRGZk54RQoHQ5H2h9oFlhAA
IrHCxgj5MkudSH6l44UDso0hlnW9lLayUF53rkJJ+s5yWI8krXkrCz1drrcduJ5q
l/CGAKyb848qR4acGHtaoKu5maaWOV3blqP6rnTzloFoRgYil8zAmM7jH6XwlRC2
aVSRbuCrM2IaH4En1VzGZt0MzvG1+3JFbJ1k8531j/tU3N7Q3pGQ+l7xaHLgTK50
wmfsOdkdM9Fkpxf5dsEgPmGIoSfZv2jk7+hwjlIbTkmCX+qs4+R9t21xdDnzipRk
88cIvhqccXjPs8tXSjt+Whw1yRG2jMmm1XEpecN71oqV/Ze4xpu1KoS5IjYV0GNF
tYQXZI5DTadd2/zkrxNPcAEuoEmb2ufMNe9DUsaYWyLDh2NtGrlVj8rpCFrrp0Oq
kng4syEANk+1WDKQfJLpJYenpfXKhMh2JMtlezQRW8lc
-----END CERTIFICATE-----
