Certificate:
    Data:
        Version: 3 (0x2)
        Serial Number: 10117 (0x2785)
    Signature Algorithm: sha256WithRSAEncryption
        Issuer: C=US, ST=OH, L=Columbus, O=VikingVPN, OU=MyOrganizationalUnit, CN=VikingVPN CA/name=EasyRSA/emailAddress=me@myhost.mydomain
        Validity
            Not Before: Feb 14 08:16:08 2017 GMT
            Not After : Feb 12 08:16:08 2027 GMT
        Subject: CN=Client2571Certcacd79
        Subject Public Key Info:
            Public Key Algorithm: rsaEncryption
                Public-Key: (4096 bit)
                Modulus:
                    00:dd:12:a0:6c:4f:1c:a5:e9:f5:b3:ed:e5:80:4a:
                    a8:35:15:31:37:17:97:50:c6:d8:ea:08:8e:80:7f:
                    dc:e4:f4:a5:53:b9:bc:9c:e9:34:06:81:c5:fc:f9:
                    fd:21:72:eb:b9:c4:49:4c:aa:7d:22:1d:ed:d9:72:
                    c9:43:9d:7b:de:84:33:e8:ee:35:0f:8d:d1:1e:28:
                    63:bf:ce:5a:30:5a:fb:bd:7a:18:32:53:c0:23:5e:
                    09:7e:7c:f8:14:fe:07:eb:e2:38:df:55:d5:3d:60:
                    5e:56:0b:33:b7:ac:ef:ae:b3:6a:6f:1e:fd:92:e3:
                    79:2f:3e:0b:71:da:d3:e9:8d:f3:8e:5f:ae:38:74:
                    e3:69:37:50:ff:48:59:44:87:5d:40:11:a1:9a:f0:
                    99:3e:09:d1:35:70:11:f9:b6:8b:23:e9:ab:b2:aa:
                    6b:a4:b2:1b:4f:07:63:f8:c7:c4:b0:90:7f:b0:30:
                    f9:aa:64:89:10:f2:d4:cd:9e:d7:b7:66:84:79:03:
                    d6:e3:85:51:47:6a:7d:a8:76:7c:02:2e:09:93:a9:
                    a7:1d:21:e7:7f:c5:b6:f6:5d:1b:bf:f7:b3:e3:1f:
                    d1:53:1f:de:36:0a:7e:39:6f:df:a8:0e:81:0d:4f:
                    45:fe:0b:ae:f5:63:ec:59:1f:66:f4:d8:27:b6:6f:
                    61:44:ce:e7:af:a1:8a:27:ea:c5:c6:cb:62:e3:41:
                    f6:26:1b:3f:0a:27:41:b7:1f:ea:ca:ca:53:ef:3b:
                    05:0e:64:aa:32:2a:6f:08:f8:c3:50:e1:79:0f:2c:
                    d9:0d:d6:af:ee:e3:86:b0:bf:12:0f:97:51:ad:a3:
                    73:bf:6a:22:d7:7b:15:3a:44:67:c2:99:8a:b7:40:
                    21:33:15:6b:a1:5a:e9:51:7a:9d:db:6b:36:74:05:
                    44:83:c2:e3:5e:0e:1b:c2:76:78:b4:6d:5e:8d:80:
                    77:6c:50:ea:14:66:60:ad:9c:2a:87:3d:5d:ef:b9:
                    8a:b9:ab:88:52:5e:bf:1a:15:c8:67:49:8c:9b:86:
                    80:9b:fd:08:b1:3c:de:ca:5d:4d:aa:4d:76:01:2a:
                    3e:7b:33:00:23:cc:6c:0e:a1:6d:1f:d2:1d:39:ab:
                    c6:5c:07:90:94:a9:7b:01:97:e6:8a:95:01:a9:af:
                    2b:aa:a7:a2:e5:a7:6f:73:f2:b9:5b:3f:35:6d:eb:
                    de:ea:b7:1e:62:0a:0e:9b:8d:fc:ef:0d:97:6f:49:
                    31:04:5f:8e:18:f8:ea:42:53:59:93:3f:48:b3:7c:
                    9c:d6:41:4b:54:ca:13:9c:0d:b0:69:ec:c5:ef:b4:
                    d0:79:61:e3:4f:50:43:91:e1:d5:91:e3:b8:a9:58:
                    f4:2f:bd
                Exponent: 65537 (0x10001)
        X509v3 extensions:
            X509v3 Basic Constraints: 
                CA:FALSE
            Netscape Comment: 
                Easy-RSA Generated Certificate
            X509v3 Subject Key Identifier: 
                70:B0:97:36:9C:FE:6A:E4:40:9C:68:1A:3D:D1:24:BA:8D:EB:E2:57
            X509v3 Authority Key Identifier: 
                keyid:12:CD:60:04:D2:A0:80:9E:70:ED:C6:99:B8:7B:2C:C6:52:FD:19:A1
                DirName:/C=US/ST=OH/L=Columbus/O=VikingVPN/OU=MyOrganizationalUnit/CN=VikingVPN CA/name=EasyRSA/emailAddress=me@myhost.mydomain
                serial:CF:35:85:EE:80:BF:2A:3E

            X509v3 Extended Key Usage: 
                TLS Web Client Authentication
            X509v3 Key Usage: 
                Digital Signature
    Signature Algorithm: sha256WithRSAEncryption
         2b:ee:d5:21:da:19:7a:d1:ad:45:7e:c9:36:a2:b8:6f:4d:01:
         38:c0:e9:c5:68:7d:a6:e1:c6:72:f2:5c:f0:83:1d:78:2d:e1:
         ad:c3:7c:82:5d:7e:c2:4f:af:f3:b7:73:57:b7:62:2f:d6:30:
         76:85:a7:b9:f8:a6:0f:0c:6c:fd:66:80:e5:60:68:e4:fe:bb:
         a9:99:db:a4:c9:17:51:c9:57:ce:d6:c4:b2:38:41:06:08:c2:
         5b:a8:5a:50:22:e3:2f:1a:9d:08:eb:ae:0f:3f:24:35:52:9b:
         d5:e6:b1:55:a8:9b:46:d4:a0:0e:ab:af:76:32:2c:1e:bb:11:
         e3:45:de:ba:69:a4:31:71:71:f6:6c:12:2f:0d:4f:90:e8:02:
         12:d4:65:1c:4e:00:2e:c2:88:45:88:f6:14:3e:fd:75:71:a3:
         7a:19:a0:64:bb:57:b9:4d:5c:de:60:22:b4:53:e6:4f:02:ae:
         b6:af:05:1e:41:d0:86:7d:3c:2a:bb:c7:9f:94:69:b0:22:b9:
         64:4c:15:fc:9b:8c:48:d1:ae:ca:f6:43:7b:c4:35:65:33:e3:
         da:7f:4e:d7:a2:3e:88:6d:f6:8e:e2:18:be:06:f2:7d:e3:bc:
         50:34:d0:1c:e4:bd:31:96:0a:65:cc:3d:5c:7c:77:85:07:eb:
         86:c9:7a:44:04:3b:94:08:1d:c3:cc:d0:d8:58:b7:4a:bb:4d:
         a0:93:42:eb:a9:4d:b2:3f:06:9f:fa:87:b5:aa:c8:3d:ed:23:
         40:f0:1c:b8:e0:27:91:7d:92:7f:c7:d3:6b:a1:aa:46:e4:90:
         e2:1d:df:04:ce:ee:d2:09:24:e3:6b:7e:9a:88:a3:b7:8f:f2:
         22:50:e9:d7:de:a0:d8:47:56:35:47:6a:43:22:b5:14:9e:1f:
         d7:de:1f:27:01:ea:7e:56:52:f8:1f:8c:af:dc:40:9a:d1:f6:
         40:1f:c3:5b:d4:d9:6d:ec:3d:28:d5:49:8a:94:b5:fe:ef:9f:
         4b:97:0f:4c:03:41:15:f9:6b:04:26:d6:0d:b3:46:01:fe:f4:
         b6:6e:55:6d:b2:d3:83:08:4d:42:cd:da:a9:f3:9b:d1:b5:e5:
         93:92:53:a2:1c:9a:73:9c:b5:89:f2:ac:02:c9:42:83:b5:07:
         6e:b7:27:8d:c1:18:b3:6e:5c:25:f1:1c:6a:dc:d6:d2:9b:fb:
         0d:1d:9d:bb:6f:27:aa:53:08:c9:e0:72:8f:75:7e:fc:08:33:
         50:93:3e:d4:e1:63:d9:92:8a:04:97:9f:a1:9a:df:a8:7f:6d:
         48:46:ed:26:0b:fd:8b:11:57:d8:f9:fd:c6:d6:a5:f6:b8:2f:
         a9:fd:49:eb:1c:45:50:0f
-----BEGIN CERTIFICATE-----
MIIGrTCCBJWgAwIBAgICJ4UwDQYJKoZIhvcNAQELBQAwgawxCzAJBgNVBAYTAlVT
MQswCQYDVQQIEwJPSDERMA8GA1UEBxMIQ29sdW1idXMxEjAQBgNVBAoTCVZpa2lu
Z1ZQTjEdMBsGA1UECxMUTXlPcmdhbml6YXRpb25hbFVuaXQxFTATBgNVBAMTDFZp
a2luZ1ZQTiBDQTEQMA4GA1UEKRMHRWFzeVJTQTEhMB8GCSqGSIb3DQEJARYSbWVA
bXlob3N0Lm15ZG9tYWluMB4XDTE3MDIxNDA4MTYwOFoXDTI3MDIxMjA4MTYwOFow
HzEdMBsGA1UEAxMUQ2xpZW50MjU3MUNlcnRjYWNkNzkwggIiMA0GCSqGSIb3DQEB
AQUAA4ICDwAwggIKAoICAQDdEqBsTxyl6fWz7eWASqg1FTE3F5dQxtjqCI6Af9zk
9KVTubyc6TQGgcX8+f0hcuu5xElMqn0iHe3ZcslDnXvehDPo7jUPjdEeKGO/zlow
Wvu9ehgyU8AjXgl+fPgU/gfr4jjfVdU9YF5WCzO3rO+us2pvHv2S43kvPgtx2tPp
jfOOX644dONpN1D/SFlEh11AEaGa8Jk+CdE1cBH5tosj6auyqmukshtPB2P4x8Sw
kH+wMPmqZIkQ8tTNnte3ZoR5A9bjhVFHan2odnwCLgmTqacdIed/xbb2XRu/97Pj
H9FTH942Cn45b9+oDoENT0X+C671Y+xZH2b02Ce2b2FEzuevoYon6sXGy2LjQfYm
Gz8KJ0G3H+rKylPvOwUOZKoyKm8I+MNQ4XkPLNkN1q/u44awvxIPl1Gto3O/aiLX
exU6RGfCmYq3QCEzFWuhWulRep3bazZ0BUSDwuNeDhvCdni0bV6NgHdsUOoUZmCt
nCqHPV3vuYq5q4hSXr8aFchnSYybhoCb/QixPN7KXU2qTXYBKj57MwAjzGwOoW0f
0h05q8ZcB5CUqXsBl+aKlQGpryuqp6Llp29z8rlbPzVt697qtx5iCg6bjfzvDZdv
STEEX44Y+OpCU1mTP0izfJzWQUtUyhOcDbBp7MXvtNB5YeNPUEOR4dWR47ipWPQv
vQIDAQABo4IBYzCCAV8wCQYDVR0TBAIwADAtBglghkgBhvhCAQ0EIBYeRWFzeS1S
U0EgR2VuZXJhdGVkIENlcnRpZmljYXRlMB0GA1UdDgQWBBRwsJc2nP5q5ECcaBo9
0SS6jeviVzCB4QYDVR0jBIHZMIHWgBQSzWAE0qCAnnDtxpm4eyzGUv0ZoaGBsqSB
rzCBrDELMAkGA1UEBhMCVVMxCzAJBgNVBAgTAk9IMREwDwYDVQQHEwhDb2x1bWJ1
czESMBAGA1UEChMJVmlraW5nVlBOMR0wGwYDVQQLExRNeU9yZ2FuaXphdGlvbmFs
VW5pdDEVMBMGA1UEAxMMVmlraW5nVlBOIENBMRAwDgYDVQQpEwdFYXN5UlNBMSEw
HwYJKoZIhvcNAQkBFhJtZUBteWhvc3QubXlkb21haW6CCQDPNYXugL8qPjATBgNV
HSUEDDAKBggrBgEFBQcDAjALBgNVHQ8EBAMCB4AwDQYJKoZIhvcNAQELBQADggIB
ACvu1SHaGXrRrUV+yTaiuG9NATjA6cVofabhxnLyXPCDHXgt4a3DfIJdfsJPr/O3
c1e3Yi/WMHaFp7n4pg8MbP1mgOVgaOT+u6mZ26TJF1HJV87WxLI4QQYIwluoWlAi
4y8anQjrrg8/JDVSm9XmsVWom0bUoA6rr3YyLB67EeNF3rpppDFxcfZsEi8NT5Do
AhLUZRxOAC7CiEWI9hQ+/XVxo3oZoGS7V7lNXN5gIrRT5k8CrravBR5B0IZ9PCq7
x5+UabAiuWRMFfybjEjRrsr2Q3vENWUz49p/TteiPoht9o7iGL4G8n3jvFA00Bzk
vTGWCmXMPVx8d4UH64bJekQEO5QIHcPM0NhYt0q7TaCTQuupTbI/Bp/6h7WqyD3t
I0DwHLjgJ5F9kn/H02uhqkbkkOId3wTO7tIJJONrfpqIo7eP8iJQ6dfeoNhHVjVH
akMitRSeH9feHycB6n5WUvgfjK/cQJrR9kAfw1vU2W3sPSjVSYqUtf7vn0uXD0wD
QRX5awQm1g2zRgH+9LZuVW2y04MITULN2qnzm9G15ZOSU6IcmnOctYnyrALJQoO1
B263J43BGLNuXCXxHGrc1tKb+w0dnbtvJ6pTCMngco91fvwIM1CTPtThY9mSigSX
n6Ga36h/bUhG7SYL/YsRV9j5/cbWpfa4L6n9SescRVAP
-----END CERTIFICATE-----
