Certificate:
    Data:
        Version: 3 (0x2)
        Serial Number: 10132 (0x2794)
    Signature Algorithm: sha256WithRSAEncryption
        Issuer: C=US, ST=OH, L=Columbus, O=VikingVPN, OU=MyOrganizationalUnit, CN=VikingVPN CA/name=EasyRSA/emailAddress=me@myhost.mydomain
        Validity
            Not Before: Feb 16 02:47:18 2017 GMT
            Not After : Feb 14 02:47:18 2027 GMT
        Subject: CN=Client2634Cert72db51
        Subject Public Key Info:
            Public Key Algorithm: rsaEncryption
                Public-Key: (4096 bit)
                Modulus:
                    00:dd:e5:a1:b9:06:1a:68:db:69:2f:22:7c:44:93:
                    3a:c5:7b:a9:6f:c3:ef:13:f8:15:d3:22:47:59:6a:
                    8f:c6:d1:2a:6f:91:b1:80:ee:8a:32:e4:91:13:73:
                    c6:79:9a:6b:c1:c7:7a:92:e3:49:b9:29:f9:f4:b6:
                    a0:09:df:92:c1:89:01:e0:2d:81:8b:a4:ad:09:30:
                    1d:52:47:6c:48:50:ec:a3:a0:88:f9:ab:51:fb:77:
                    a5:14:f6:60:0c:8d:1d:c1:f7:14:89:e2:4d:41:ad:
                    6f:75:1b:71:a7:47:d8:85:b4:7e:ad:c0:d9:1f:32:
                    29:fc:0d:36:76:04:34:db:cf:80:65:15:2b:3d:91:
                    78:55:9d:c2:45:18:be:b0:28:ac:36:06:72:1a:23:
                    a7:f7:9e:ab:47:5b:23:58:b8:f6:12:13:7b:68:19:
                    cb:93:b2:5f:10:2e:9b:7d:8f:86:16:26:fd:d3:c7:
                    18:7a:83:0f:51:e3:a4:1f:04:d7:ba:06:11:48:3d:
                    e6:81:c9:89:83:bc:55:65:96:7e:30:14:cf:71:d8:
                    0a:f4:2e:1f:2f:85:ff:a6:c4:46:c6:cd:e8:8d:87:
                    37:dd:b6:dc:2d:71:54:b7:45:46:46:c2:95:59:87:
                    99:18:7b:64:1e:48:65:29:6d:5e:6c:82:a8:f9:5e:
                    bf:d2:07:e2:52:f4:18:7e:fa:f9:84:29:c9:68:a5:
                    f6:5d:9f:ec:01:91:86:f7:11:c4:a2:ba:09:9a:c6:
                    37:86:0a:db:ba:19:7c:5e:68:b9:f1:e5:ab:d9:c5:
                    55:ed:0a:95:db:6b:61:63:a7:e3:b6:b1:78:ec:3d:
                    10:8b:e8:e3:54:ce:60:ea:be:bf:c8:dc:11:cf:a4:
                    c3:ad:6b:e6:ff:81:3b:c1:cd:88:4e:3c:e1:e1:45:
                    1a:b0:9b:2d:5c:74:a5:b8:ab:d2:e0:df:2c:e6:8e:
                    d8:a7:b5:09:97:27:22:e0:4d:15:5c:d4:df:f0:74:
                    9e:4b:bc:dc:27:05:c2:b2:6f:db:8c:e2:44:15:5b:
                    82:e4:e3:ef:91:9d:56:79:1a:2b:04:dd:6d:22:68:
                    2c:f4:8d:35:50:84:0c:6d:4f:dc:c4:d2:83:e8:74:
                    0c:9f:66:6c:c7:f8:de:9c:fc:c5:5b:46:96:c2:f6:
                    12:02:7b:b1:e2:7b:df:e4:b2:18:7c:95:95:f4:fe:
                    08:9c:84:33:3b:2c:61:36:ec:34:44:33:55:4e:87:
                    5c:ba:5f:91:9c:35:fa:cf:db:d5:f9:8b:e0:b6:45:
                    f0:82:bb:bc:20:fb:6a:15:d8:d8:20:8f:fb:54:35:
                    16:9c:5b:7f:c1:68:43:6d:82:09:1a:c2:ad:ff:a9:
                    c0:c4:b7
                Exponent: 65537 (0x10001)
        X509v3 extensions:
            X509v3 Basic Constraints: 
                CA:FALSE
            Netscape Comment: 
                Easy-RSA Generated Certificate
            X509v3 Subject Key Identifier: 
                99:36:69:D9:49:08:49:80:9A:69:7A:68:B1:1F:D7:6C:4D:42:A7:29
            X509v3 Authority Key Identifier: 
                keyid:12:CD:60:04:D2:A0:80:9E:70:ED:C6:99:B8:7B:2C:C6:52:FD:19:A1
                DirName:/C=US/ST=OH/L=Columbus/O=VikingVPN/OU=MyOrganizationalUnit/CN=VikingVPN CA/name=EasyRSA/emailAddress=me@myhost.mydomain
                serial:CF:35:85:EE:80:BF:2A:3E

            X509v3 Extended Key Usage: 
                TLS Web Client Authentication
            X509v3 Key Usage: 
                Digital Signature
    Signature Algorithm: sha256WithRSAEncryption
         a9:79:57:72:31:48:1d:4c:04:33:42:f3:56:40:3d:b2:de:e8:
         f5:57:22:2f:9f:07:79:72:e4:31:6e:ec:30:34:65:07:f7:b5:
         1c:19:10:dc:9b:b3:5b:a5:fb:16:66:7a:50:bf:80:3f:e4:cb:
         f8:d4:a3:01:d5:d6:38:fa:d1:8b:45:57:76:b7:f1:80:a8:fd:
         58:e5:14:6c:52:00:f9:db:b7:a9:5f:ae:28:cc:69:91:ae:d6:
         b0:4f:92:6b:c8:dd:c3:90:3d:31:23:65:15:ac:0c:08:f6:e0:
         87:88:b4:08:4e:a2:c2:e3:63:0e:2b:e0:84:eb:23:79:e6:d9:
         96:dc:bd:dc:f3:43:cf:b4:63:f1:42:f5:3d:cf:03:af:21:7e:
         fb:54:71:53:79:92:ab:a0:af:5d:18:d7:38:c7:1a:31:65:d8:
         3b:d1:16:7e:ed:1f:b9:09:5d:b5:a9:33:01:0e:11:09:22:4f:
         de:65:54:7c:25:96:93:e9:00:de:f7:82:08:0e:60:bf:e2:5a:
         c6:3c:fd:7a:67:30:96:4c:5b:4c:26:c9:b4:04:f2:e4:45:ee:
         7e:3c:c7:58:26:1b:28:55:d2:4d:d0:33:95:fe:48:ae:77:5a:
         ea:37:0c:32:e9:1d:a5:53:92:3b:ca:53:32:24:1c:3f:6d:5b:
         35:51:43:59:06:98:e1:cc:61:a0:78:a5:8c:cd:c9:47:bd:18:
         1f:be:ed:32:ee:39:fd:0d:d4:c0:ac:13:0e:4e:f0:50:12:d8:
         ec:b0:cd:8d:46:3d:4c:13:1b:5f:e4:35:92:67:9c:2a:cb:6b:
         a1:45:26:77:84:7f:30:2b:bd:db:a7:97:8e:85:c3:cb:38:b0:
         ca:3c:38:2b:57:26:27:81:90:44:15:64:cc:d3:d7:39:b5:f6:
         b1:03:09:98:36:ec:69:e9:8a:e4:4d:8f:d9:96:ec:b9:4b:0c:
         b0:a7:27:fa:19:d5:1a:d8:6c:3f:58:cd:db:75:86:a5:76:7f:
         92:c8:f4:1c:fd:6f:c2:13:44:a5:1f:34:55:2b:28:ba:e1:4f:
         ac:5f:67:d7:ab:77:5b:5d:d6:0c:47:0e:70:48:33:e5:64:4a:
         a1:42:7b:e1:e2:15:41:6b:dd:f9:eb:26:66:62:38:a0:d7:87:
         28:e7:46:03:8d:c9:c7:51:9e:64:15:da:da:f7:74:20:71:84:
         0c:e3:22:c9:13:64:79:57:ce:bc:b1:09:51:0d:c6:4d:df:06:
         ab:30:03:6e:b4:df:94:81:50:b0:7c:b0:5d:7a:f3:8c:03:fd:
         fc:01:77:1e:b8:38:d6:6a:5e:0c:26:26:18:b2:d2:cc:cb:f4:
         23:d6:9b:82:e2:c4:ff:c1
-----BEGIN CERTIFICATE-----
MIIGrTCCBJWgAwIBAgICJ5QwDQYJKoZIhvcNAQELBQAwgawxCzAJBgNVBAYTAlVT
MQswCQYDVQQIEwJPSDERMA8GA1UEBxMIQ29sdW1idXMxEjAQBgNVBAoTCVZpa2lu
Z1ZQTjEdMBsGA1UECxMUTXlPcmdhbml6YXRpb25hbFVuaXQxFTATBgNVBAMTDFZp
a2luZ1ZQTiBDQTEQMA4GA1UEKRMHRWFzeVJTQTEhMB8GCSqGSIb3DQEJARYSbWVA
bXlob3N0Lm15ZG9tYWluMB4XDTE3MDIxNjAyNDcxOFoXDTI3MDIxNDAyNDcxOFow
HzEdMBsGA1UEAxMUQ2xpZW50MjYzNENlcnQ3MmRiNTEwggIiMA0GCSqGSIb3DQEB
AQUAA4ICDwAwggIKAoICAQDd5aG5Bhpo22kvInxEkzrFe6lvw+8T+BXTIkdZao/G
0SpvkbGA7ooy5JETc8Z5mmvBx3qS40m5Kfn0tqAJ35LBiQHgLYGLpK0JMB1SR2xI
UOyjoIj5q1H7d6UU9mAMjR3B9xSJ4k1BrW91G3GnR9iFtH6twNkfMin8DTZ2BDTb
z4BlFSs9kXhVncJFGL6wKKw2BnIaI6f3nqtHWyNYuPYSE3toGcuTsl8QLpt9j4YW
Jv3Txxh6gw9R46QfBNe6BhFIPeaByYmDvFVlln4wFM9x2Ar0Lh8vhf+mxEbGzeiN
hzfdttwtcVS3RUZGwpVZh5kYe2QeSGUpbV5sgqj5Xr/SB+JS9Bh++vmEKclopfZd
n+wBkYb3EcSiugmaxjeGCtu6GXxeaLnx5avZxVXtCpXba2Fjp+O2sXjsPRCL6ONU
zmDqvr/I3BHPpMOta+b/gTvBzYhOPOHhRRqwmy1cdKW4q9Lg3yzmjtintQmXJyLg
TRVc1N/wdJ5LvNwnBcKyb9uM4kQVW4Lk4++RnVZ5GisE3W0iaCz0jTVQhAxtT9zE
0oPodAyfZmzH+N6c/MVbRpbC9hICe7Hie9/kshh8lZX0/gichDM7LGE27DREM1VO
h1y6X5GcNfrP29X5i+C2RfCCu7wg+2oV2Nggj/tUNRacW3/BaENtggkawq3/qcDE
twIDAQABo4IBYzCCAV8wCQYDVR0TBAIwADAtBglghkgBhvhCAQ0EIBYeRWFzeS1S
U0EgR2VuZXJhdGVkIENlcnRpZmljYXRlMB0GA1UdDgQWBBSZNmnZSQhJgJppemix
H9dsTUKnKTCB4QYDVR0jBIHZMIHWgBQSzWAE0qCAnnDtxpm4eyzGUv0ZoaGBsqSB
rzCBrDELMAkGA1UEBhMCVVMxCzAJBgNVBAgTAk9IMREwDwYDVQQHEwhDb2x1bWJ1
czESMBAGA1UEChMJVmlraW5nVlBOMR0wGwYDVQQLExRNeU9yZ2FuaXphdGlvbmFs
VW5pdDEVMBMGA1UEAxMMVmlraW5nVlBOIENBMRAwDgYDVQQpEwdFYXN5UlNBMSEw
HwYJKoZIhvcNAQkBFhJtZUBteWhvc3QubXlkb21haW6CCQDPNYXugL8qPjATBgNV
HSUEDDAKBggrBgEFBQcDAjALBgNVHQ8EBAMCB4AwDQYJKoZIhvcNAQELBQADggIB
AKl5V3IxSB1MBDNC81ZAPbLe6PVXIi+fB3ly5DFu7DA0ZQf3tRwZENybs1ul+xZm
elC/gD/ky/jUowHV1jj60YtFV3a38YCo/VjlFGxSAPnbt6lfrijMaZGu1rBPkmvI
3cOQPTEjZRWsDAj24IeItAhOosLjYw4r4ITrI3nm2ZbcvdzzQ8+0Y/FC9T3PA68h
fvtUcVN5kqugr10Y1zjHGjFl2DvRFn7tH7kJXbWpMwEOEQkiT95lVHwllpPpAN73
gggOYL/iWsY8/XpnMJZMW0wmybQE8uRF7n48x1gmGyhV0k3QM5X+SK53Wuo3DDLp
HaVTkjvKUzIkHD9tWzVRQ1kGmOHMYaB4pYzNyUe9GB++7TLuOf0N1MCsEw5O8FAS
2OywzY1GPUwTG1/kNZJnnCrLa6FFJneEfzArvdunl46Fw8s4sMo8OCtXJieBkEQV
ZMzT1zm19rEDCZg27GnpiuRNj9mW7LlLDLCnJ/oZ1RrYbD9Yzdt1hqV2f5LI9Bz9
b8ITRKUfNFUrKLrhT6xfZ9erd1td1gxHDnBIM+VkSqFCe+HiFUFr3fnrJmZiOKDX
hyjnRgONycdRnmQV2tr3dCBxhAzjIskTZHlXzryxCVENxk3fBqswA26035SBULB8
sF1684wD/fwBdx64ONZqXgwmJhiy0szL9CPWm4LixP/B
-----END CERTIFICATE-----
