Certificate:
    Data:
        Version: 3 (0x2)
        Serial Number: 10135 (0x2797)
    Signature Algorithm: sha256WithRSAEncryption
        Issuer: C=US, ST=OH, L=Columbus, O=VikingVPN, OU=MyOrganizationalUnit, CN=VikingVPN CA/name=EasyRSA/emailAddress=me@myhost.mydomain
        Validity
            Not Before: Feb 16 16:33:22 2017 GMT
            Not After : Feb 14 16:33:22 2027 GMT
        Subject: CN=Client1702Certad377d
        Subject Public Key Info:
            Public Key Algorithm: rsaEncryption
                Public-Key: (4096 bit)
                Modulus:
                    00:ad:23:3b:e0:10:05:2d:46:cc:86:00:6a:72:ed:
                    ac:91:01:79:88:83:7b:56:60:32:61:c5:bc:14:e1:
                    2f:2a:93:69:0a:ea:3b:94:cf:77:be:a2:57:95:79:
                    62:34:3e:dc:01:98:d3:0d:82:a2:9f:c1:1d:30:b0:
                    90:f9:11:da:82:a5:dc:17:aa:5b:22:65:29:59:25:
                    92:5b:88:b0:b4:55:fc:18:fa:b6:a9:02:67:88:16:
                    12:29:ea:74:c8:4f:f9:26:c9:31:0a:08:49:30:13:
                    13:ae:b9:f8:5f:2e:78:ae:8c:b3:a6:d1:70:69:52:
                    ca:05:7a:c9:f4:39:14:3d:28:44:f4:75:ac:c1:36:
                    66:1b:f1:ec:3a:3d:13:a5:41:1e:61:13:df:21:7f:
                    70:44:ab:7b:cb:a8:85:44:af:bc:59:20:07:2d:81:
                    7c:95:cf:76:6f:1e:cc:52:08:97:48:32:77:f2:7f:
                    17:67:53:63:4c:54:aa:df:93:04:25:e9:e4:0a:ec:
                    b3:8a:d4:01:60:5c:3d:31:9c:4e:5f:ec:bd:dc:95:
                    bf:8a:e6:95:6e:3e:df:96:f5:a3:67:b7:39:7d:9d:
                    ae:fe:33:29:49:22:d9:b8:03:e2:b1:23:9c:62:f4:
                    a7:e9:44:10:57:0a:a8:c8:5a:79:03:c6:5f:33:c0:
                    99:5d:b4:5a:7d:c8:30:0b:fb:4d:f1:f7:2f:c0:2f:
                    19:fd:a3:6b:1d:34:94:63:af:3c:9e:c0:18:69:35:
                    3c:82:10:ae:dc:57:63:68:0f:e4:36:72:07:05:55:
                    6a:46:d8:89:1f:8b:64:7a:76:56:0a:7c:bb:3c:59:
                    d2:d7:d2:49:67:f9:f4:02:c7:95:d4:bc:e8:42:5e:
                    61:77:c5:8c:ac:ef:c6:57:47:0e:e7:1e:0d:f7:51:
                    03:08:ef:50:04:e9:df:60:b0:55:a0:96:83:e1:99:
                    85:97:1d:2e:3b:d4:58:49:a2:b3:8d:81:25:42:7c:
                    ee:f1:e5:ec:83:33:03:9e:89:46:e5:9e:d3:95:ba:
                    cb:0e:e1:5e:bb:75:a9:82:ff:94:d9:96:b9:22:b2:
                    08:4c:cd:e1:a6:12:7e:c6:2c:9a:cb:5f:50:c1:e3:
                    fe:95:1c:99:ce:77:e1:18:af:e5:a4:cb:fb:7c:d7:
                    8c:df:07:aa:b1:ae:0a:55:e3:c8:9a:3e:c2:26:38:
                    ac:97:d9:6e:dd:72:39:af:44:95:2b:9c:cc:28:69:
                    e6:3d:12:8a:6c:61:0d:8c:b3:af:ad:22:cd:54:6b:
                    5f:b1:01:9f:61:1f:0c:cd:af:aa:f7:c5:82:7d:c8:
                    f4:98:7f:f8:ee:dd:14:34:22:6d:eb:b4:64:e3:75:
                    3d:10:2b
                Exponent: 65537 (0x10001)
        X509v3 extensions:
            X509v3 Basic Constraints: 
                CA:FALSE
            Netscape Comment: 
                Easy-RSA Generated Certificate
            X509v3 Subject Key Identifier: 
                71:CE:9F:EA:D6:D1:2D:B1:F1:BB:3A:87:B0:70:21:42:88:F2:5A:DF
            X509v3 Authority Key Identifier: 
                keyid:12:CD:60:04:D2:A0:80:9E:70:ED:C6:99:B8:7B:2C:C6:52:FD:19:A1
                DirName:/C=US/ST=OH/L=Columbus/O=VikingVPN/OU=MyOrganizationalUnit/CN=VikingVPN CA/name=EasyRSA/emailAddress=me@myhost.mydomain
                serial:CF:35:85:EE:80:BF:2A:3E

            X509v3 Extended Key Usage: 
                TLS Web Client Authentication
            X509v3 Key Usage: 
                Digital Signature
    Signature Algorithm: sha256WithRSAEncryption
         25:cc:4c:54:c2:5a:fc:a2:ab:75:37:a1:86:ae:7a:c1:b7:e7:
         8b:4f:ee:c7:78:05:ec:f5:b2:4f:59:1a:a9:50:d3:28:78:ed:
         89:0e:32:15:dc:52:cc:f5:ce:3e:00:fe:12:f3:ea:23:27:05:
         ac:86:57:b9:3c:a4:29:82:a3:b7:91:25:93:5d:85:60:ca:7f:
         fb:86:31:84:f9:05:b4:c8:f6:23:d1:a3:f3:21:03:9f:10:93:
         e2:71:3a:e9:0d:ce:c7:cd:a7:53:d1:d7:d4:a6:53:eb:ac:98:
         88:56:dd:2f:bc:ae:e3:3f:ad:73:4a:b6:08:23:21:b0:22:dd:
         16:a4:67:3a:a6:4f:2a:b7:60:08:e8:d4:00:6f:ca:8d:ce:26:
         ad:d7:af:3d:ce:80:1c:eb:2d:be:9d:92:48:d0:da:c0:95:f2:
         e9:bb:32:c0:58:c4:8c:dd:63:49:c3:0d:78:b8:a4:62:d9:b2:
         8f:ea:23:4e:ba:8a:bb:ac:e1:7b:ec:22:4b:3d:e9:1f:7a:f0:
         8f:9a:e0:88:ae:b1:68:73:6e:2e:f7:c6:40:df:11:0b:88:d9:
         07:41:bb:0c:db:ab:10:58:de:a6:9e:57:2d:31:04:8b:65:0b:
         77:e3:ab:0d:4a:64:ee:9c:d8:3e:89:86:4e:fa:95:19:53:b3:
         8f:15:69:a3:d4:15:d7:ee:ff:60:9d:36:8b:35:6d:9c:2c:7f:
         8f:46:c6:7a:43:46:37:f5:0f:ef:5a:15:be:fa:88:6e:c7:1b:
         be:07:f4:2f:7c:7c:07:82:f8:23:b7:cd:5b:27:f5:49:5d:fb:
         5b:f0:8b:9b:8d:54:3d:13:61:41:eb:8e:bc:e7:8c:bf:15:d7:
         38:bf:12:23:38:1d:6a:ff:66:10:a0:42:12:5a:93:99:a9:8b:
         81:77:d8:41:26:84:34:c8:ce:9c:3d:d3:70:bd:36:7a:f6:36:
         45:7e:c4:a9:5b:8d:b0:13:b4:f4:dc:18:80:81:87:0a:1b:d9:
         00:af:b5:70:81:53:3f:3b:b5:88:78:6f:5e:32:00:3b:da:76:
         3e:d4:be:22:08:50:33:15:8a:b3:0a:78:b7:f3:22:92:e0:9a:
         05:83:e9:42:c4:d4:8e:9e:bd:93:e9:80:b3:24:65:57:57:89:
         a1:f4:2b:83:85:1c:32:82:6e:ad:15:83:95:e6:9a:f8:24:7b:
         83:12:24:18:40:a3:d8:dc:a8:d0:1c:7c:a2:47:d0:ec:cd:8c:
         e8:52:9c:ba:92:1f:57:b4:66:cb:be:a2:45:33:d8:b4:c9:fa:
         93:6f:de:74:f2:29:34:4f:c6:1c:0f:85:9d:65:4a:9a:0b:36:
         b1:ba:5f:3f:06:1c:9c:af
-----BEGIN CERTIFICATE-----
MIIGrTCCBJWgAwIBAgICJ5cwDQYJKoZIhvcNAQELBQAwgawxCzAJBgNVBAYTAlVT
MQswCQYDVQQIEwJPSDERMA8GA1UEBxMIQ29sdW1idXMxEjAQBgNVBAoTCVZpa2lu
Z1ZQTjEdMBsGA1UECxMUTXlPcmdhbml6YXRpb25hbFVuaXQxFTATBgNVBAMTDFZp
a2luZ1ZQTiBDQTEQMA4GA1UEKRMHRWFzeVJTQTEhMB8GCSqGSIb3DQEJARYSbWVA
bXlob3N0Lm15ZG9tYWluMB4XDTE3MDIxNjE2MzMyMloXDTI3MDIxNDE2MzMyMlow
HzEdMBsGA1UEAxMUQ2xpZW50MTcwMkNlcnRhZDM3N2QwggIiMA0GCSqGSIb3DQEB
AQUAA4ICDwAwggIKAoICAQCtIzvgEAUtRsyGAGpy7ayRAXmIg3tWYDJhxbwU4S8q
k2kK6juUz3e+oleVeWI0PtwBmNMNgqKfwR0wsJD5EdqCpdwXqlsiZSlZJZJbiLC0
VfwY+rapAmeIFhIp6nTIT/kmyTEKCEkwExOuufhfLniujLOm0XBpUsoFesn0ORQ9
KET0dazBNmYb8ew6PROlQR5hE98hf3BEq3vLqIVEr7xZIActgXyVz3ZvHsxSCJdI
MnfyfxdnU2NMVKrfkwQl6eQK7LOK1AFgXD0xnE5f7L3clb+K5pVuPt+W9aNntzl9
na7+MylJItm4A+KxI5xi9KfpRBBXCqjIWnkDxl8zwJldtFp9yDAL+03x9y/ALxn9
o2sdNJRjrzyewBhpNTyCEK7cV2NoD+Q2cgcFVWpG2Ikfi2R6dlYKfLs8WdLX0kln
+fQCx5XUvOhCXmF3xYys78ZXRw7nHg33UQMI71AE6d9gsFWgloPhmYWXHS471FhJ
orONgSVCfO7x5eyDMwOeiUblntOVussO4V67damC/5TZlrkisghMzeGmEn7GLJrL
X1DB4/6VHJnOd+EYr+Wky/t814zfB6qxrgpV48iaPsImOKyX2W7dcjmvRJUrnMwo
aeY9EopsYQ2Ms6+tIs1Ua1+xAZ9hHwzNr6r3xYJ9yPSYf/ju3RQ0Im3rtGTjdT0Q
KwIDAQABo4IBYzCCAV8wCQYDVR0TBAIwADAtBglghkgBhvhCAQ0EIBYeRWFzeS1S
U0EgR2VuZXJhdGVkIENlcnRpZmljYXRlMB0GA1UdDgQWBBRxzp/q1tEtsfG7Ooew
cCFCiPJa3zCB4QYDVR0jBIHZMIHWgBQSzWAE0qCAnnDtxpm4eyzGUv0ZoaGBsqSB
rzCBrDELMAkGA1UEBhMCVVMxCzAJBgNVBAgTAk9IMREwDwYDVQQHEwhDb2x1bWJ1
czESMBAGA1UEChMJVmlraW5nVlBOMR0wGwYDVQQLExRNeU9yZ2FuaXphdGlvbmFs
VW5pdDEVMBMGA1UEAxMMVmlraW5nVlBOIENBMRAwDgYDVQQpEwdFYXN5UlNBMSEw
HwYJKoZIhvcNAQkBFhJtZUBteWhvc3QubXlkb21haW6CCQDPNYXugL8qPjATBgNV
HSUEDDAKBggrBgEFBQcDAjALBgNVHQ8EBAMCB4AwDQYJKoZIhvcNAQELBQADggIB
ACXMTFTCWvyiq3U3oYauesG354tP7sd4Bez1sk9ZGqlQ0yh47YkOMhXcUsz1zj4A
/hLz6iMnBayGV7k8pCmCo7eRJZNdhWDKf/uGMYT5BbTI9iPRo/MhA58Qk+JxOukN
zsfNp1PR19SmU+usmIhW3S+8ruM/rXNKtggjIbAi3RakZzqmTyq3YAjo1ABvyo3O
Jq3Xrz3OgBzrLb6dkkjQ2sCV8um7MsBYxIzdY0nDDXi4pGLZso/qI066irus4Xvs
Iks96R968I+a4IiusWhzbi73xkDfEQuI2QdBuwzbqxBY3qaeVy0xBItlC3fjqw1K
ZO6c2D6Jhk76lRlTs48VaaPUFdfu/2CdNos1bZwsf49GxnpDRjf1D+9aFb76iG7H
G74H9C98fAeC+CO3zVsn9Uld+1vwi5uNVD0TYUHrjrznjL8V1zi/EiM4HWr/ZhCg
QhJak5mpi4F32EEmhDTIzpw903C9Nnr2NkV+xKlbjbATtPTcGICBhwob2QCvtXCB
Uz87tYh4b14yADvadj7UviIIUDMVirMKeLfzIpLgmgWD6ULE1I6evZPpgLMkZVdX
iaH0K4OFHDKCbq0Vg5Xmmvgke4MSJBhAo9jcqNAcfKJH0OzNjOhSnLqSH1e0Zsu+
okUz2LTJ+pNv3nTyKTRPxhwPhZ1lSpoLNrG6Xz8GHJyv
-----END CERTIFICATE-----
