Certificate:
    Data:
        Version: 3 (0x2)
        Serial Number: 10142 (0x279e)
    Signature Algorithm: sha256WithRSAEncryption
        Issuer: C=US, ST=OH, L=Columbus, O=VikingVPN, OU=MyOrganizationalUnit, CN=VikingVPN CA/name=EasyRSA/emailAddress=me@myhost.mydomain
        Validity
            Not Before: Feb 18 00:14:24 2017 GMT
            Not After : Feb 16 00:14:24 2027 GMT
        Subject: CN=Client2733Cert1f561d
        Subject Public Key Info:
            Public Key Algorithm: rsaEncryption
                Public-Key: (4096 bit)
                Modulus:
                    00:b3:68:13:02:52:1d:16:f6:10:23:6e:87:94:5d:
                    e6:b7:c4:95:99:a6:28:0f:a0:2e:0c:8d:07:09:57:
                    06:21:1b:c3:6b:4a:82:c0:86:0f:a5:30:f6:4b:ae:
                    e9:86:eb:16:e2:87:df:61:25:d7:ea:2d:4c:09:02:
                    0b:eb:28:59:eb:e1:0f:ef:03:f6:9a:e4:9c:b8:09:
                    b9:f0:85:f4:79:06:e5:50:96:04:88:b2:35:c1:6c:
                    a2:91:86:db:13:eb:51:66:5d:d5:9e:29:12:40:ab:
                    7e:78:fa:6e:a0:8e:78:65:f7:74:9e:82:1b:13:43:
                    9c:99:6c:72:c3:c8:a6:17:d8:4a:7e:bb:5e:85:d3:
                    c2:5a:ae:0f:e3:aa:91:b4:33:0d:9e:62:17:af:5f:
                    a3:9d:0d:24:c1:71:3c:1f:c0:dd:f0:cb:bf:d0:3b:
                    48:3b:ed:dc:cc:c6:c0:f5:f1:ef:ee:72:69:5f:0f:
                    f1:de:d9:94:93:37:9e:f9:25:06:61:ad:fc:db:61:
                    e2:16:3b:af:d5:15:49:d7:60:26:5e:32:00:71:38:
                    94:dc:95:c6:9f:3b:93:a5:58:d6:e3:21:dd:f1:19:
                    d6:41:5c:ad:3e:44:9d:94:20:0c:d3:33:3b:97:d8:
                    6d:51:ab:ca:30:17:ef:ed:da:83:7d:87:bb:d4:5b:
                    9c:67:d3:b4:f2:83:92:eb:3f:17:da:c1:21:4f:6c:
                    48:d6:b1:17:c6:45:51:75:5a:9b:07:48:0c:9b:fb:
                    c5:18:df:79:ed:05:33:de:c7:1f:23:e4:6d:5e:de:
                    3e:3c:5e:31:6d:c0:52:e8:ca:2e:78:83:13:3d:98:
                    73:57:10:79:e6:18:cf:8a:3f:05:8e:30:f1:bc:60:
                    81:14:1c:e6:32:f3:6e:9e:d7:1c:bf:49:02:90:38:
                    39:dd:97:0d:a0:ff:e8:2b:23:7d:3b:17:75:79:4c:
                    a3:3a:e2:e4:9b:99:2e:24:7f:4a:2c:6e:6f:35:88:
                    90:94:70:26:44:a7:07:ca:83:52:16:55:e5:9e:98:
                    78:a2:7a:98:19:9e:a0:9b:51:68:95:f7:ef:c3:30:
                    7a:23:3b:c7:34:f6:18:fe:fa:23:7e:6a:e4:d8:2f:
                    a8:58:81:ee:ee:36:25:80:43:99:b9:ca:64:40:d6:
                    94:e5:b4:9b:c0:fe:af:55:a5:78:18:66:05:f5:22:
                    38:80:1b:25:c2:8e:e6:3c:35:f6:d1:a0:63:ee:84:
                    a2:dc:64:95:2b:42:e8:82:5b:b7:6b:be:16:5a:48:
                    f8:d0:b3:bd:94:4f:49:a6:3e:8e:06:50:c9:06:e2:
                    a4:98:11:37:7f:e9:28:93:7b:3f:58:39:6c:79:60:
                    00:c4:1b
                Exponent: 65537 (0x10001)
        X509v3 extensions:
            X509v3 Basic Constraints: 
                CA:FALSE
            Netscape Comment: 
                Easy-RSA Generated Certificate
            X509v3 Subject Key Identifier: 
                DD:EE:6E:01:F8:ED:C5:08:BA:3E:DC:CB:14:DA:19:AE:28:AD:41:93
            X509v3 Authority Key Identifier: 
                keyid:12:CD:60:04:D2:A0:80:9E:70:ED:C6:99:B8:7B:2C:C6:52:FD:19:A1
                DirName:/C=US/ST=OH/L=Columbus/O=VikingVPN/OU=MyOrganizationalUnit/CN=VikingVPN CA/name=EasyRSA/emailAddress=me@myhost.mydomain
                serial:CF:35:85:EE:80:BF:2A:3E

            X509v3 Extended Key Usage: 
                TLS Web Client Authentication
            X509v3 Key Usage: 
                Digital Signature
    Signature Algorithm: sha256WithRSAEncryption
         09:98:c2:35:3c:80:6a:1e:26:39:92:f2:9b:70:7f:3d:45:b2:
         cd:d4:0b:9a:47:14:65:4b:ef:f1:10:b9:c6:8e:fb:d7:67:6f:
         45:d8:5d:eb:e3:63:71:78:8e:e5:74:e9:5f:9d:a4:ff:e7:3d:
         5a:85:64:47:9a:43:c4:6d:c4:86:26:a4:5f:c9:b5:04:a0:0d:
         53:65:d0:11:61:a0:98:31:7a:d1:1c:a4:68:10:b0:62:88:ea:
         c7:d3:69:43:ec:9d:6e:a8:13:67:af:57:b6:eb:73:f3:a1:4e:
         1c:59:d3:ef:0e:35:b9:06:3b:7b:98:0d:cd:44:d8:5d:07:5a:
         f1:46:7d:b1:17:c6:8a:e8:82:33:76:d3:70:04:cb:bf:65:d6:
         63:ce:3d:4a:3e:7e:0e:b8:fe:4e:57:b1:d7:a7:4f:73:d3:6a:
         d8:c4:23:a3:b4:1d:33:1c:de:a8:33:b6:7f:da:1a:00:fc:36:
         c7:8b:cc:ac:54:92:37:b7:8c:56:09:70:d9:a2:85:a1:33:31:
         19:13:34:70:4e:b8:f1:b5:8a:b8:25:0a:d9:54:59:b1:4a:ca:
         71:0c:e7:9f:c1:7d:96:41:7a:30:b1:cd:af:89:e8:3a:a6:0a:
         a3:b6:cb:94:6c:5e:ba:c9:1c:27:6f:44:7e:8c:24:a7:aa:07:
         86:cd:e7:eb:e1:c6:13:73:0c:24:45:e0:0f:dd:e2:2d:71:18:
         1e:ae:d7:85:85:62:40:ca:f3:60:df:32:c6:be:f0:19:1f:e7:
         5b:12:a6:b4:42:21:9d:e9:30:b8:70:58:5b:7d:d9:17:42:25:
         c3:84:48:87:2d:06:82:3c:48:a9:fc:fd:74:1c:14:f5:05:de:
         1c:34:51:8d:9d:a6:ad:d9:86:d6:8e:c3:da:9d:95:c6:eb:bd:
         2d:f0:2b:98:63:2c:3a:35:88:c0:d3:d3:fa:1f:e6:71:44:d1:
         c0:90:89:13:6d:61:3e:61:90:aa:c6:22:2d:eb:88:66:e2:fc:
         b4:f5:e6:f7:b0:9c:f0:ce:86:fa:8f:f7:21:46:47:01:fc:26:
         36:b0:bd:a0:2a:ce:01:2e:13:d0:5c:39:46:8b:2a:52:22:f6:
         46:6a:f9:f2:4b:0e:71:72:d3:b6:95:91:81:ca:89:42:4a:c8:
         a8:50:85:f2:fc:e4:8e:59:59:49:e6:5a:d8:98:f7:bd:69:8d:
         0a:0a:f0:67:6c:f5:6b:4e:44:93:bb:9f:67:0b:1b:3c:25:92:
         c2:ea:ec:cf:cf:19:48:46:da:cc:4e:8d:01:c3:60:08:71:89:
         c3:09:6e:98:9c:67:f0:9c:cf:8f:b9:74:fb:58:cf:41:9c:f3:
         e1:5d:40:f3:36:8a:e0:64
-----BEGIN CERTIFICATE-----
MIIGrTCCBJWgAwIBAgICJ54wDQYJKoZIhvcNAQELBQAwgawxCzAJBgNVBAYTAlVT
MQswCQYDVQQIEwJPSDERMA8GA1UEBxMIQ29sdW1idXMxEjAQBgNVBAoTCVZpa2lu
Z1ZQTjEdMBsGA1UECxMUTXlPcmdhbml6YXRpb25hbFVuaXQxFTATBgNVBAMTDFZp
a2luZ1ZQTiBDQTEQMA4GA1UEKRMHRWFzeVJTQTEhMB8GCSqGSIb3DQEJARYSbWVA
bXlob3N0Lm15ZG9tYWluMB4XDTE3MDIxODAwMTQyNFoXDTI3MDIxNjAwMTQyNFow
HzEdMBsGA1UEAxMUQ2xpZW50MjczM0NlcnQxZjU2MWQwggIiMA0GCSqGSIb3DQEB
AQUAA4ICDwAwggIKAoICAQCzaBMCUh0W9hAjboeUXea3xJWZpigPoC4MjQcJVwYh
G8NrSoLAhg+lMPZLrumG6xbih99hJdfqLUwJAgvrKFnr4Q/vA/aa5Jy4CbnwhfR5
BuVQlgSIsjXBbKKRhtsT61FmXdWeKRJAq354+m6gjnhl93SeghsTQ5yZbHLDyKYX
2Ep+u16F08Jarg/jqpG0Mw2eYhevX6OdDSTBcTwfwN3wy7/QO0g77dzMxsD18e/u
cmlfD/He2ZSTN575JQZhrfzbYeIWO6/VFUnXYCZeMgBxOJTclcafO5OlWNbjId3x
GdZBXK0+RJ2UIAzTMzuX2G1Rq8owF+/t2oN9h7vUW5xn07Tyg5LrPxfawSFPbEjW
sRfGRVF1WpsHSAyb+8UY33ntBTPexx8j5G1e3j48XjFtwFLoyi54gxM9mHNXEHnm
GM+KPwWOMPG8YIEUHOYy826e1xy/SQKQODndlw2g/+grI307F3V5TKM64uSbmS4k
f0osbm81iJCUcCZEpwfKg1IWVeWemHiiepgZnqCbUWiV9+/DMHojO8c09hj++iN+
auTYL6hYge7uNiWAQ5m5ymRA1pTltJvA/q9VpXgYZgX1IjiAGyXCjuY8NfbRoGPu
hKLcZJUrQuiCW7drvhZaSPjQs72UT0mmPo4GUMkG4qSYETd/6SiTez9YOWx5YADE
GwIDAQABo4IBYzCCAV8wCQYDVR0TBAIwADAtBglghkgBhvhCAQ0EIBYeRWFzeS1S
U0EgR2VuZXJhdGVkIENlcnRpZmljYXRlMB0GA1UdDgQWBBTd7m4B+O3FCLo+3MsU
2hmuKK1BkzCB4QYDVR0jBIHZMIHWgBQSzWAE0qCAnnDtxpm4eyzGUv0ZoaGBsqSB
rzCBrDELMAkGA1UEBhMCVVMxCzAJBgNVBAgTAk9IMREwDwYDVQQHEwhDb2x1bWJ1
czESMBAGA1UEChMJVmlraW5nVlBOMR0wGwYDVQQLExRNeU9yZ2FuaXphdGlvbmFs
VW5pdDEVMBMGA1UEAxMMVmlraW5nVlBOIENBMRAwDgYDVQQpEwdFYXN5UlNBMSEw
HwYJKoZIhvcNAQkBFhJtZUBteWhvc3QubXlkb21haW6CCQDPNYXugL8qPjATBgNV
HSUEDDAKBggrBgEFBQcDAjALBgNVHQ8EBAMCB4AwDQYJKoZIhvcNAQELBQADggIB
AAmYwjU8gGoeJjmS8ptwfz1Fss3UC5pHFGVL7/EQucaO+9dnb0XYXevjY3F4juV0
6V+dpP/nPVqFZEeaQ8RtxIYmpF/JtQSgDVNl0BFhoJgxetEcpGgQsGKI6sfTaUPs
nW6oE2evV7brc/OhThxZ0+8ONbkGO3uYDc1E2F0HWvFGfbEXxorogjN203AEy79l
1mPOPUo+fg64/k5XsdenT3PTatjEI6O0HTMc3qgztn/aGgD8NseLzKxUkje3jFYJ
cNmihaEzMRkTNHBOuPG1irglCtlUWbFKynEM55/BfZZBejCxza+J6DqmCqO2y5Rs
XrrJHCdvRH6MJKeqB4bN5+vhxhNzDCRF4A/d4i1xGB6u14WFYkDK82DfMsa+8Bkf
51sSprRCIZ3pMLhwWFt92RdCJcOESIctBoI8SKn8/XQcFPUF3hw0UY2dpq3ZhtaO
w9qdlcbrvS3wK5hjLDo1iMDT0/of5nFE0cCQiRNtYT5hkKrGIi3riGbi/LT15vew
nPDOhvqP9yFGRwH8JjawvaAqzgEuE9BcOUaLKlIi9kZq+fJLDnFy07aVkYHKiUJK
yKhQhfL85I5ZWUnmWtiY971pjQoK8Gds9WtORJO7n2cLGzwlksLq7M/PGUhG2sxO
jQHDYAhxicMJbpicZ/Ccz4+5dPtYz0Gc8+FdQPM2iuBk
-----END CERTIFICATE-----
