Certificate:
    Data:
        Version: 3 (0x2)
        Serial Number: 10150 (0x27a6)
    Signature Algorithm: sha256WithRSAEncryption
        Issuer: C=US, ST=OH, L=Columbus, O=VikingVPN, OU=MyOrganizationalUnit, CN=VikingVPN CA/name=EasyRSA/emailAddress=me@myhost.mydomain
        Validity
            Not Before: Feb 20 01:06:40 2017 GMT
            Not After : Feb 18 01:06:40 2027 GMT
        Subject: CN=Client2694Cert8d3370
        Subject Public Key Info:
            Public Key Algorithm: rsaEncryption
                Public-Key: (4096 bit)
                Modulus:
                    00:c2:55:f7:89:a9:90:e8:68:1e:61:b0:61:40:f9:
                    79:37:ad:1d:b2:06:02:96:db:79:b8:9e:e8:fe:72:
                    ea:e8:13:e5:be:28:09:85:ca:6f:b7:8b:eb:f9:bb:
                    e7:52:cc:89:3d:b2:11:10:8f:7e:65:b2:ea:79:f7:
                    d5:33:fe:8b:9b:99:3a:83:b7:33:bd:98:22:84:f4:
                    06:2c:d5:81:e6:35:39:5b:54:30:47:12:3c:7a:ef:
                    5a:8f:84:f3:20:d9:7c:f4:80:9d:ae:e1:37:d1:9f:
                    ee:da:de:f5:15:da:98:c5:9d:cd:d6:df:ed:7d:c4:
                    76:6d:f5:25:d4:a3:1a:75:56:fd:e3:67:eb:c4:2c:
                    c1:7d:2b:67:98:2f:0a:e5:9b:32:3d:bd:45:52:8b:
                    99:6e:57:6f:4e:a2:bf:59:e7:aa:ed:e8:81:4e:4a:
                    ca:2a:96:e9:c1:10:69:64:50:1d:25:77:85:71:4e:
                    51:d6:7c:75:2f:c2:d5:cc:42:d4:2b:a0:61:03:bf:
                    5f:c6:c8:0e:2e:a0:6b:02:6f:99:b5:63:73:b0:de:
                    b8:cf:51:38:a0:5c:88:69:7c:bd:d9:8f:62:a2:bd:
                    95:f7:ae:66:de:5a:a1:0f:b6:e9:ae:e5:43:0d:ae:
                    a8:df:7a:1d:d2:c9:9d:38:39:5e:6a:dc:3b:d2:48:
                    5f:8a:58:42:07:c6:e0:57:bd:6b:64:ec:23:5c:12:
                    be:2a:38:e0:e9:7d:7e:3a:02:8a:c7:5b:6e:9f:50:
                    94:14:47:e2:fe:47:f4:3d:c5:83:62:c8:29:43:65:
                    2c:d3:bf:47:d7:5c:a8:d9:17:25:b7:5d:d3:9a:4f:
                    c1:51:3a:6e:8c:01:0d:7a:42:f3:9b:5e:0e:1c:a1:
                    09:c4:4d:90:1d:76:b3:9e:5d:44:52:19:29:e6:ec:
                    47:d9:0c:49:ff:3f:d8:81:26:d3:8c:6c:b0:e0:d5:
                    09:67:d3:d4:f6:d9:99:f3:5c:f4:90:1e:0c:e4:aa:
                    fa:c9:50:cc:6b:01:80:69:9c:36:12:de:a4:80:d0:
                    40:86:11:3b:ad:68:f5:d9:45:d0:15:e3:1e:1b:0e:
                    b7:13:cf:33:dc:d5:ab:fc:b4:27:85:c9:b0:e2:1a:
                    e6:6d:c5:42:23:b2:43:92:ed:61:35:7e:c0:2b:06:
                    45:63:87:7e:6c:65:a6:1c:2a:bc:e8:b9:dd:36:ec:
                    f9:51:ee:15:ab:18:5d:c0:6e:6e:1c:ca:9c:e7:ba:
                    c7:f2:5c:97:5f:bf:9c:1d:d6:0d:99:a0:8c:c6:43:
                    19:5a:28:9c:32:1f:93:aa:78:01:df:96:1c:82:f4:
                    c0:b2:7d:76:16:6c:41:34:13:8e:92:c4:e5:39:a6:
                    cf:b3:b3
                Exponent: 65537 (0x10001)
        X509v3 extensions:
            X509v3 Basic Constraints: 
                CA:FALSE
            Netscape Comment: 
                Easy-RSA Generated Certificate
            X509v3 Subject Key Identifier: 
                14:66:6D:93:9C:D4:CD:FB:CC:DA:F4:C4:1B:F2:E2:2C:E7:62:A7:E0
            X509v3 Authority Key Identifier: 
                keyid:12:CD:60:04:D2:A0:80:9E:70:ED:C6:99:B8:7B:2C:C6:52:FD:19:A1
                DirName:/C=US/ST=OH/L=Columbus/O=VikingVPN/OU=MyOrganizationalUnit/CN=VikingVPN CA/name=EasyRSA/emailAddress=me@myhost.mydomain
                serial:CF:35:85:EE:80:BF:2A:3E

            X509v3 Extended Key Usage: 
                TLS Web Client Authentication
            X509v3 Key Usage: 
                Digital Signature
    Signature Algorithm: sha256WithRSAEncryption
         1c:36:f9:b3:18:b4:7c:00:e2:d7:07:f3:00:bc:ea:94:e3:c2:
         8f:88:ca:ac:40:44:ce:93:09:0b:79:c0:77:6a:9c:1d:1a:98:
         35:48:37:6f:ed:06:a9:96:1f:a9:12:1a:9d:08:f2:de:55:55:
         4c:bf:54:75:7b:6a:9a:9b:03:bd:e4:e2:13:62:9d:57:c7:cc:
         f4:7a:cc:f9:10:58:9b:bb:c1:01:76:2a:41:4c:3f:6a:e2:e4:
         6b:f9:52:34:a6:82:1d:c8:84:3f:da:e2:76:5d:3a:ab:df:dc:
         6b:32:43:b7:1f:31:61:2a:26:b9:b1:15:b0:5b:bc:ab:67:7f:
         67:2b:3e:14:91:49:97:f1:cb:b7:f8:c7:bb:83:29:30:ae:5d:
         a8:89:b5:86:ca:5f:9c:cc:2a:44:75:44:84:19:bc:24:96:71:
         a7:af:6f:ed:28:99:a3:1f:72:5d:51:c2:ae:d5:58:79:1d:1d:
         f0:5e:5e:03:dc:4c:59:9d:8a:29:15:9f:f0:ea:8b:b8:e1:e7:
         7c:1c:fb:b8:68:e5:c6:8d:fa:f1:4a:0e:4a:94:d5:28:e6:f5:
         3b:ca:5e:03:8d:6e:9f:87:36:27:ff:f9:d7:e3:02:7c:e9:9b:
         89:7c:dc:49:d4:72:c2:94:d1:26:6a:0c:ce:aa:71:85:f6:6f:
         5a:0f:2d:e8:3c:23:53:c0:5e:08:41:06:ba:c1:9b:b4:15:f0:
         ae:0d:46:e5:bc:63:10:45:fb:e1:f2:1c:e5:45:15:c9:66:cd:
         4c:ed:a8:e3:22:53:c4:7e:c2:c2:05:48:82:5a:a4:7c:eb:46:
         03:6a:60:8a:a6:c7:04:6e:f3:81:92:39:a4:87:c9:61:ac:eb:
         d0:79:a4:4e:92:f0:dc:9b:71:5f:6a:0f:b5:77:76:ab:a8:e0:
         6d:25:0e:0a:c2:3c:93:05:eb:6c:cc:01:4b:48:5c:24:dc:d4:
         2e:a8:73:1d:6c:71:0b:65:70:46:61:3c:2f:59:74:ea:c5:51:
         5b:7e:97:a2:d0:0d:85:e3:3d:85:ef:8a:9d:a5:ea:32:dc:1c:
         93:67:62:7d:54:e2:e9:e6:e0:9e:7c:3e:06:67:de:47:c9:58:
         b2:b9:25:3a:02:cf:23:c3:5f:d9:88:0a:57:e0:cf:b1:b7:da:
         dc:0c:97:a1:6b:4e:78:c6:18:7e:77:c6:48:b6:2f:54:67:70:
         67:ca:00:ec:36:9c:71:d1:50:41:82:a1:1f:0b:4f:03:ee:2a:
         8d:6e:ab:b5:73:ab:fc:d7:4a:6f:78:9a:7a:c1:1d:da:b1:12:
         9b:13:03:c0:4f:0b:4e:25:e4:a3:46:45:e1:ca:5c:c3:6c:b0:
         5f:32:8a:0f:f5:74:40:bf
-----BEGIN CERTIFICATE-----
MIIGrTCCBJWgAwIBAgICJ6YwDQYJKoZIhvcNAQELBQAwgawxCzAJBgNVBAYTAlVT
MQswCQYDVQQIEwJPSDERMA8GA1UEBxMIQ29sdW1idXMxEjAQBgNVBAoTCVZpa2lu
Z1ZQTjEdMBsGA1UECxMUTXlPcmdhbml6YXRpb25hbFVuaXQxFTATBgNVBAMTDFZp
a2luZ1ZQTiBDQTEQMA4GA1UEKRMHRWFzeVJTQTEhMB8GCSqGSIb3DQEJARYSbWVA
bXlob3N0Lm15ZG9tYWluMB4XDTE3MDIyMDAxMDY0MFoXDTI3MDIxODAxMDY0MFow
HzEdMBsGA1UEAxMUQ2xpZW50MjY5NENlcnQ4ZDMzNzAwggIiMA0GCSqGSIb3DQEB
AQUAA4ICDwAwggIKAoICAQDCVfeJqZDoaB5hsGFA+Xk3rR2yBgKW23m4nuj+curo
E+W+KAmFym+3i+v5u+dSzIk9shEQj35lsup599Uz/oubmTqDtzO9mCKE9AYs1YHm
NTlbVDBHEjx671qPhPMg2Xz0gJ2u4TfRn+7a3vUV2pjFnc3W3+19xHZt9SXUoxp1
Vv3jZ+vELMF9K2eYLwrlmzI9vUVSi5luV29Oor9Z56rt6IFOSsoqlunBEGlkUB0l
d4VxTlHWfHUvwtXMQtQroGEDv1/GyA4uoGsCb5m1Y3Ow3rjPUTigXIhpfL3Zj2Ki
vZX3rmbeWqEPtumu5UMNrqjfeh3SyZ04OV5q3DvSSF+KWEIHxuBXvWtk7CNcEr4q
OODpfX46AorHW26fUJQUR+L+R/Q9xYNiyClDZSzTv0fXXKjZFyW3XdOaT8FROm6M
AQ16QvObXg4coQnETZAddrOeXURSGSnm7EfZDEn/P9iBJtOMbLDg1Qln09T22Znz
XPSQHgzkqvrJUMxrAYBpnDYS3qSA0ECGETutaPXZRdAV4x4bDrcTzzPc1av8tCeF
ybDiGuZtxUIjskOS7WE1fsArBkVjh35sZaYcKrzoud027PlR7hWrGF3Abm4cypzn
usfyXJdfv5wd1g2ZoIzGQxlaKJwyH5OqeAHflhyC9MCyfXYWbEE0E46SxOU5ps+z
swIDAQABo4IBYzCCAV8wCQYDVR0TBAIwADAtBglghkgBhvhCAQ0EIBYeRWFzeS1S
U0EgR2VuZXJhdGVkIENlcnRpZmljYXRlMB0GA1UdDgQWBBQUZm2TnNTN+8za9MQb
8uIs52Kn4DCB4QYDVR0jBIHZMIHWgBQSzWAE0qCAnnDtxpm4eyzGUv0ZoaGBsqSB
rzCBrDELMAkGA1UEBhMCVVMxCzAJBgNVBAgTAk9IMREwDwYDVQQHEwhDb2x1bWJ1
czESMBAGA1UEChMJVmlraW5nVlBOMR0wGwYDVQQLExRNeU9yZ2FuaXphdGlvbmFs
VW5pdDEVMBMGA1UEAxMMVmlraW5nVlBOIENBMRAwDgYDVQQpEwdFYXN5UlNBMSEw
HwYJKoZIhvcNAQkBFhJtZUBteWhvc3QubXlkb21haW6CCQDPNYXugL8qPjATBgNV
HSUEDDAKBggrBgEFBQcDAjALBgNVHQ8EBAMCB4AwDQYJKoZIhvcNAQELBQADggIB
ABw2+bMYtHwA4tcH8wC86pTjwo+IyqxARM6TCQt5wHdqnB0amDVIN2/tBqmWH6kS
Gp0I8t5VVUy/VHV7apqbA73k4hNinVfHzPR6zPkQWJu7wQF2KkFMP2ri5Gv5UjSm
gh3IhD/a4nZdOqvf3GsyQ7cfMWEqJrmxFbBbvKtnf2crPhSRSZfxy7f4x7uDKTCu
XaiJtYbKX5zMKkR1RIQZvCSWcaevb+0omaMfcl1Rwq7VWHkdHfBeXgPcTFmdiikV
n/Dqi7jh53wc+7ho5caN+vFKDkqU1Sjm9TvKXgONbp+HNif/+dfjAnzpm4l83EnU
csKU0SZqDM6qcYX2b1oPLeg8I1PAXghBBrrBm7QV8K4NRuW8YxBF++HyHOVFFclm
zUztqOMiU8R+wsIFSIJapHzrRgNqYIqmxwRu84GSOaSHyWGs69B5pE6S8NybcV9q
D7V3dquo4G0lDgrCPJMF62zMAUtIXCTc1C6ocx1scQtlcEZhPC9ZdOrFUVt+l6LQ
DYXjPYXvip2l6jLcHJNnYn1U4unm4J58PgZn3kfJWLK5JToCzyPDX9mIClfgz7G3
2twMl6FrTnjGGH53xki2L1RncGfKAOw2nHHRUEGCoR8LTwPuKo1uq7Vzq/zXSm94
mnrBHdqxEpsTA8BPC04l5KNGReHKXMNssF8yig/1dEC/
-----END CERTIFICATE-----
