Certificate:
    Data:
        Version: 3 (0x2)
        Serial Number: 10193 (0x27d1)
    Signature Algorithm: sha256WithRSAEncryption
        Issuer: C=US, ST=OH, L=Columbus, O=VikingVPN, OU=MyOrganizationalUnit, CN=VikingVPN CA/name=EasyRSA/emailAddress=me@myhost.mydomain
        Validity
            Not Before: Feb 25 17:15:44 2017 GMT
            Not After : Feb 23 17:15:44 2027 GMT
        Subject: CN=Client2470Cert135b09
        Subject Public Key Info:
            Public Key Algorithm: rsaEncryption
                Public-Key: (4096 bit)
                Modulus:
                    00:f4:69:37:d8:a2:e9:51:84:96:4f:2c:91:ff:de:
                    ff:ba:e0:47:af:32:5d:b4:5b:df:6f:3d:20:86:70:
                    62:4f:aa:03:b6:88:ed:a2:7c:b3:37:e1:a9:77:c7:
                    5c:45:b3:60:d4:ae:f6:58:6e:cf:4d:f4:08:95:4e:
                    ff:b9:7e:92:28:a1:2b:fe:a0:9b:b8:1c:d6:5c:65:
                    70:ec:90:b9:a4:ff:2a:19:04:04:64:55:fe:c3:a2:
                    06:ca:e9:5d:57:89:53:d2:0f:6c:21:e8:78:aa:ee:
                    99:d5:14:4d:40:6e:a4:36:f7:36:9e:c3:28:d0:76:
                    b9:23:b8:07:a5:65:a7:4a:15:bd:34:db:18:c5:84:
                    69:a4:39:69:04:b7:64:05:7c:a0:e7:69:fa:0d:74:
                    d1:a3:af:93:d5:42:c8:ce:2d:68:2c:1a:5f:ac:28:
                    f4:7d:f0:4f:51:1e:a9:9e:37:e2:e0:16:8f:01:72:
                    25:5d:2b:d4:1a:89:21:77:0b:7e:64:b4:79:1c:e6:
                    c8:28:68:15:e2:59:92:eb:d5:79:3b:3d:ea:94:b4:
                    56:52:9a:e5:de:60:f6:5a:8f:00:72:79:0a:1c:38:
                    4f:8d:bd:d2:cb:61:8a:64:f7:c6:1f:3a:85:14:70:
                    64:ba:96:ff:a0:0f:0b:2b:75:03:6e:89:3d:80:98:
                    f1:4d:69:52:6a:c6:c5:59:43:63:7a:53:5b:ec:c4:
                    13:8f:37:64:90:e4:1c:31:fb:ee:07:18:c6:21:ca:
                    d4:76:84:8d:84:57:ea:1d:81:a3:b2:0f:a5:48:80:
                    b1:c5:49:31:22:22:15:a4:53:45:86:b0:9d:89:9e:
                    81:a9:14:36:bd:b8:44:eb:70:17:1d:af:9a:4b:a4:
                    64:08:6e:30:2f:e0:64:b4:db:ec:25:61:a2:bf:3c:
                    c9:75:bf:df:28:81:c0:5a:84:1e:b3:07:f4:f4:4a:
                    ab:7e:f8:04:c5:22:eb:dd:c8:56:6a:28:6c:a1:e6:
                    0f:f7:c4:26:21:61:15:08:6d:d6:43:84:d5:c2:5f:
                    32:09:b1:06:c2:6a:a1:b8:3f:5e:3c:e8:06:6c:4c:
                    66:d9:96:a5:d7:ca:45:36:9b:ec:ce:87:6a:7f:39:
                    13:a2:4d:0b:38:85:30:d2:3c:47:39:d0:fe:da:26:
                    cc:6b:19:69:0f:74:40:ca:67:1b:d0:76:5c:ed:23:
                    0c:e3:0e:34:e8:3c:55:02:09:6c:1d:80:5b:20:7f:
                    f1:28:2e:e4:38:0c:f7:f5:d4:55:80:6c:73:1a:05:
                    8b:cb:65:45:65:e0:3f:9f:2e:19:de:04:bf:c4:73:
                    3e:e7:f4:bf:98:56:0d:55:c4:2e:96:fa:80:a5:cb:
                    b8:6b:35
                Exponent: 65537 (0x10001)
        X509v3 extensions:
            X509v3 Basic Constraints: 
                CA:FALSE
            Netscape Comment: 
                Easy-RSA Generated Certificate
            X509v3 Subject Key Identifier: 
                18:B8:30:F4:BE:A1:BC:17:F0:15:9C:8D:57:79:3C:C9:0E:7D:4E:F2
            X509v3 Authority Key Identifier: 
                keyid:12:CD:60:04:D2:A0:80:9E:70:ED:C6:99:B8:7B:2C:C6:52:FD:19:A1
                DirName:/C=US/ST=OH/L=Columbus/O=VikingVPN/OU=MyOrganizationalUnit/CN=VikingVPN CA/name=EasyRSA/emailAddress=me@myhost.mydomain
                serial:CF:35:85:EE:80:BF:2A:3E

            X509v3 Extended Key Usage: 
                TLS Web Client Authentication
            X509v3 Key Usage: 
                Digital Signature
    Signature Algorithm: sha256WithRSAEncryption
         62:78:f1:26:01:93:c9:33:5f:e0:ad:4f:bb:c2:0f:45:25:1c:
         ab:b4:fa:a1:8f:5d:b2:b9:fe:61:20:3b:ad:d3:24:b1:a1:da:
         5a:f8:f5:3f:23:46:11:40:f3:b9:b5:91:0b:10:be:37:de:06:
         08:1d:33:d0:d2:d1:14:f1:f6:1b:d0:45:01:65:4c:77:f0:40:
         79:ef:56:b6:56:73:d1:9f:13:a0:2d:d3:c7:a3:9e:c2:28:db:
         fd:17:27:f9:a1:35:dc:31:b4:52:f6:38:89:c2:62:e9:90:26:
         ea:12:5d:48:9b:ec:34:60:16:d9:40:64:29:85:1c:e6:58:f8:
         fa:bb:34:45:9d:1c:49:c2:0e:da:b6:6f:f4:12:c6:a2:54:14:
         d6:18:39:ff:a1:74:23:27:6d:25:ac:d5:97:33:68:c8:ae:6d:
         17:93:c5:37:48:1f:2d:ef:96:a7:96:51:e4:1b:55:2e:f1:8c:
         5a:9d:d9:de:64:d8:9d:1c:21:7d:36:6f:1e:3c:30:82:00:89:
         5e:e8:f9:74:e3:dc:66:9b:78:8d:bd:1f:bd:d6:78:71:17:90:
         d2:20:de:70:55:41:f7:1c:39:c7:4e:cf:c1:fa:df:bb:df:ba:
         7f:d0:7f:fb:e4:03:f3:39:8f:ee:c0:f4:b6:62:5e:b6:9f:d3:
         22:66:9a:61:5e:f6:7a:5e:55:b9:c3:57:48:77:d3:da:c1:80:
         8c:38:1a:cb:61:c4:84:81:2f:85:77:39:05:0d:8f:c1:a7:92:
         7d:96:6a:07:ba:d9:f6:85:fc:50:14:18:e2:ff:4a:27:12:66:
         a6:1e:db:ee:a1:46:3f:fb:c5:0a:ba:d9:53:8c:6e:e8:8b:19:
         9d:82:2a:5e:2c:46:fe:c5:1a:15:2d:49:27:97:4b:d9:29:a2:
         1f:65:ca:b9:60:e2:bc:9a:a1:48:80:1f:e0:fc:7a:e1:1f:63:
         19:78:cd:5e:f9:f7:4c:d5:0d:75:60:f8:d7:8b:cc:bc:97:14:
         dc:0c:66:a2:22:80:c7:6d:7f:06:00:b2:d0:c0:13:68:fe:72:
         b2:a3:4e:9e:85:c9:94:0f:b7:b9:db:fe:d5:5e:9f:a9:a4:42:
         d0:c4:b5:1c:4d:b6:e5:c9:77:99:0d:6b:01:0d:da:f1:a7:db:
         87:74:a8:61:83:4e:f2:a4:58:16:ad:c6:84:40:71:cb:b5:6b:
         45:5b:f0:b7:d4:a2:cd:24:31:39:ca:9f:7e:f4:63:ab:7e:ce:
         61:79:aa:71:9c:d3:49:51:ba:d6:88:fe:1e:b7:e1:08:7c:e3:
         40:ce:b1:8b:6b:81:36:36:12:d3:c7:a8:ea:d7:d1:f7:30:78:
         ef:5e:5d:84:e8:fb:16:e7
-----BEGIN CERTIFICATE-----
MIIGrTCCBJWgAwIBAgICJ9EwDQYJKoZIhvcNAQELBQAwgawxCzAJBgNVBAYTAlVT
MQswCQYDVQQIEwJPSDERMA8GA1UEBxMIQ29sdW1idXMxEjAQBgNVBAoTCVZpa2lu
Z1ZQTjEdMBsGA1UECxMUTXlPcmdhbml6YXRpb25hbFVuaXQxFTATBgNVBAMTDFZp
a2luZ1ZQTiBDQTEQMA4GA1UEKRMHRWFzeVJTQTEhMB8GCSqGSIb3DQEJARYSbWVA
bXlob3N0Lm15ZG9tYWluMB4XDTE3MDIyNTE3MTU0NFoXDTI3MDIyMzE3MTU0NFow
HzEdMBsGA1UEAxMUQ2xpZW50MjQ3MENlcnQxMzViMDkwggIiMA0GCSqGSIb3DQEB
AQUAA4ICDwAwggIKAoICAQD0aTfYoulRhJZPLJH/3v+64EevMl20W99vPSCGcGJP
qgO2iO2ifLM34al3x1xFs2DUrvZYbs9N9AiVTv+5fpIooSv+oJu4HNZcZXDskLmk
/yoZBARkVf7DogbK6V1XiVPSD2wh6Hiq7pnVFE1AbqQ29zaewyjQdrkjuAelZadK
Fb002xjFhGmkOWkEt2QFfKDnafoNdNGjr5PVQsjOLWgsGl+sKPR98E9RHqmeN+Lg
Fo8BciVdK9QaiSF3C35ktHkc5sgoaBXiWZLr1Xk7PeqUtFZSmuXeYPZajwByeQoc
OE+NvdLLYYpk98YfOoUUcGS6lv+gDwsrdQNuiT2AmPFNaVJqxsVZQ2N6U1vsxBOP
N2SQ5Bwx++4HGMYhytR2hI2EV+odgaOyD6VIgLHFSTEiIhWkU0WGsJ2JnoGpFDa9
uETrcBcdr5pLpGQIbjAv4GS02+wlYaK/PMl1v98ogcBahB6zB/T0Sqt++ATFIuvd
yFZqKGyh5g/3xCYhYRUIbdZDhNXCXzIJsQbCaqG4P1486AZsTGbZlqXXykU2m+zO
h2p/OROiTQs4hTDSPEc50P7aJsxrGWkPdEDKZxvQdlztIwzjDjToPFUCCWwdgFsg
f/EoLuQ4DPf11FWAbHMaBYvLZUVl4D+fLhneBL/Ecz7n9L+YVg1VxC6W+oCly7hr
NQIDAQABo4IBYzCCAV8wCQYDVR0TBAIwADAtBglghkgBhvhCAQ0EIBYeRWFzeS1S
U0EgR2VuZXJhdGVkIENlcnRpZmljYXRlMB0GA1UdDgQWBBQYuDD0vqG8F/AVnI1X
eTzJDn1O8jCB4QYDVR0jBIHZMIHWgBQSzWAE0qCAnnDtxpm4eyzGUv0ZoaGBsqSB
rzCBrDELMAkGA1UEBhMCVVMxCzAJBgNVBAgTAk9IMREwDwYDVQQHEwhDb2x1bWJ1
czESMBAGA1UEChMJVmlraW5nVlBOMR0wGwYDVQQLExRNeU9yZ2FuaXphdGlvbmFs
VW5pdDEVMBMGA1UEAxMMVmlraW5nVlBOIENBMRAwDgYDVQQpEwdFYXN5UlNBMSEw
HwYJKoZIhvcNAQkBFhJtZUBteWhvc3QubXlkb21haW6CCQDPNYXugL8qPjATBgNV
HSUEDDAKBggrBgEFBQcDAjALBgNVHQ8EBAMCB4AwDQYJKoZIhvcNAQELBQADggIB
AGJ48SYBk8kzX+CtT7vCD0UlHKu0+qGPXbK5/mEgO63TJLGh2lr49T8jRhFA87m1
kQsQvjfeBggdM9DS0RTx9hvQRQFlTHfwQHnvVrZWc9GfE6At08ejnsIo2/0XJ/mh
NdwxtFL2OInCYumQJuoSXUib7DRgFtlAZCmFHOZY+Pq7NEWdHEnCDtq2b/QSxqJU
FNYYOf+hdCMnbSWs1ZczaMiubReTxTdIHy3vlqeWUeQbVS7xjFqd2d5k2J0cIX02
bx48MIIAiV7o+XTj3GabeI29H73WeHEXkNIg3nBVQfccOcdOz8H637vfun/Qf/vk
A/M5j+7A9LZiXraf0yJmmmFe9npeVbnDV0h309rBgIw4GsthxISBL4V3OQUNj8Gn
kn2Wage62faF/FAUGOL/SicSZqYe2+6hRj/7xQq62VOMbuiLGZ2CKl4sRv7FGhUt
SSeXS9kpoh9lyrlg4ryaoUiAH+D8euEfYxl4zV7590zVDXVg+NeLzLyXFNwMZqIi
gMdtfwYAstDAE2j+crKjTp6FyZQPt7nb/tVen6mkQtDEtRxNtuXJd5kNawEN2vGn
24d0qGGDTvKkWBatxoRAccu1a0Vb8LfUos0kMTnKn370Y6t+zmF5qnGc00lRutaI
/h634Qh840DOsYtrgTY2EtPHqOrX0fcweO9eXYTo+xbn
-----END CERTIFICATE-----
