Certificate:
    Data:
        Version: 3 (0x2)
        Serial Number: 10216 (0x27e8)
    Signature Algorithm: sha256WithRSAEncryption
        Issuer: C=US, ST=OH, L=Columbus, O=VikingVPN, OU=MyOrganizationalUnit, CN=VikingVPN CA/name=EasyRSA/emailAddress=me@myhost.mydomain
        Validity
            Not Before: Mar  1 05:11:46 2017 GMT
            Not After : Feb 27 05:11:46 2027 GMT
        Subject: CN=Client2748Certfc28cc
        Subject Public Key Info:
            Public Key Algorithm: rsaEncryption
                Public-Key: (4096 bit)
                Modulus:
                    00:d1:3f:68:68:2b:5a:8e:79:8c:6d:2f:7b:c5:29:
                    3e:3d:45:f8:a1:e4:49:18:d3:81:8b:16:27:fe:f4:
                    9e:5e:8f:b1:92:9e:0f:1e:cf:3e:0c:43:1b:29:58:
                    ef:fd:62:c3:48:cb:77:b6:dd:98:8a:07:4a:7f:f9:
                    65:1d:1c:04:fa:7b:8d:21:27:e0:69:60:51:a7:5d:
                    1f:9c:23:78:a3:06:46:e2:1e:28:33:54:24:24:6b:
                    f0:01:c3:47:d4:cd:b0:40:da:22:0a:27:1d:39:68:
                    10:83:96:a2:94:08:db:54:13:d8:72:ac:c5:65:b2:
                    44:a9:cd:fb:0f:13:05:49:07:bd:20:55:b9:86:ab:
                    54:d4:ed:86:1e:68:da:76:46:4d:47:d4:f7:c8:b1:
                    01:9d:e8:af:47:f6:0b:69:87:5f:18:a6:83:b6:02:
                    6f:ce:28:2d:e2:ae:b3:f0:77:05:70:d3:ac:db:39:
                    1d:42:d3:a3:63:a8:c3:d2:ed:f7:6e:1b:3e:c8:00:
                    3e:1c:b5:a2:da:40:bb:26:af:fe:80:41:4a:b5:95:
                    e9:43:06:33:54:24:7a:5b:e1:b3:28:dc:98:a1:e0:
                    1f:04:73:75:c5:72:c8:b8:7a:63:c4:25:0e:15:1e:
                    60:39:66:7f:ca:48:dc:24:ea:dd:3f:1f:5d:b5:bf:
                    11:13:37:16:01:28:df:30:ee:72:8d:e0:6e:37:e3:
                    f1:fc:3a:ff:ca:7c:99:df:bc:86:f2:2d:98:16:88:
                    fb:68:82:1a:ad:4d:bd:0a:ff:35:74:3c:19:d0:f8:
                    d1:2b:d8:2e:1d:1b:15:01:f7:0f:8f:fd:09:16:d2:
                    73:f7:9b:e2:d8:98:c4:a8:27:a2:8f:a9:4d:3f:2f:
                    a4:74:0f:d8:cb:f9:de:19:b8:e8:73:16:52:64:6e:
                    6d:23:95:53:31:16:0e:cb:f5:16:8a:6c:f2:f0:64:
                    36:ef:e9:80:8a:eb:fd:05:d0:88:39:c7:e1:2c:c4:
                    cc:58:4b:9a:04:b7:1b:b3:61:b7:2a:d6:1a:5c:e5:
                    d1:63:17:31:8f:89:2a:89:17:36:51:06:34:4d:b5:
                    aa:76:70:d1:c7:23:1e:85:cb:43:fc:67:fd:f1:fb:
                    74:33:38:aa:0d:fb:75:c5:a1:e7:80:3a:bb:82:be:
                    b0:2e:30:d8:2f:59:2e:1e:f6:37:56:68:8c:c6:b3:
                    a5:0b:c2:47:07:62:d1:b4:8f:9b:67:45:eb:ea:2a:
                    66:a8:96:65:f3:0d:6c:db:8f:8c:49:51:ad:bf:17:
                    ad:5a:71:ab:be:f7:76:12:76:b3:27:17:5d:41:ca:
                    fd:78:e6:ce:66:8b:4e:1b:9a:1c:97:58:a3:f6:37:
                    64:6f:c1
                Exponent: 65537 (0x10001)
        X509v3 extensions:
            X509v3 Basic Constraints: 
                CA:FALSE
            Netscape Comment: 
                Easy-RSA Generated Certificate
            X509v3 Subject Key Identifier: 
                6B:A8:1D:99:6C:D0:A6:2B:24:BF:0F:36:29:D9:9D:F8:3F:08:4A:65
            X509v3 Authority Key Identifier: 
                keyid:12:CD:60:04:D2:A0:80:9E:70:ED:C6:99:B8:7B:2C:C6:52:FD:19:A1
                DirName:/C=US/ST=OH/L=Columbus/O=VikingVPN/OU=MyOrganizationalUnit/CN=VikingVPN CA/name=EasyRSA/emailAddress=me@myhost.mydomain
                serial:CF:35:85:EE:80:BF:2A:3E

            X509v3 Extended Key Usage: 
                TLS Web Client Authentication
            X509v3 Key Usage: 
                Digital Signature
    Signature Algorithm: sha256WithRSAEncryption
         2c:fb:01:ec:80:34:74:db:10:d4:21:f6:fc:b0:cf:30:f2:db:
         ef:da:69:e2:b6:56:41:47:45:fb:51:7b:43:40:b8:88:e3:44:
         95:e4:0f:3b:84:44:68:77:db:71:ed:12:e8:fc:87:54:f4:fb:
         a4:b4:1b:2b:3e:02:0a:b4:96:70:17:1b:c4:07:5c:bf:a7:f6:
         00:19:39:b1:3e:ee:57:bb:9c:90:ce:82:57:2c:3d:e3:08:49:
         6f:e8:74:05:88:35:47:71:45:de:ad:cb:98:2f:10:b3:9e:a9:
         7c:c8:62:f1:a2:24:d5:23:a9:fb:a9:ee:13:04:1a:8f:f7:42:
         f5:a5:0f:d1:52:8b:70:62:43:ad:a0:1a:76:20:72:dd:9d:2e:
         26:b2:29:61:fd:bb:13:ab:eb:c8:23:c2:8a:d2:9a:3a:90:48:
         a5:fb:96:b8:26:ea:40:83:fa:d6:fd:f0:b6:02:85:9a:86:c7:
         1d:fd:0b:7f:76:9c:eb:73:cb:09:78:14:07:b2:c3:b1:d4:01:
         12:bf:c4:53:01:57:eb:03:81:72:f4:d8:7a:7c:d5:d0:bf:49:
         c6:f0:a5:0e:50:da:35:53:c9:d8:4d:98:5e:31:cf:6f:22:ce:
         bc:1f:d9:20:c2:39:9e:cc:ca:85:51:8e:e0:ce:73:c8:be:8c:
         4b:a2:ab:e2:e1:fa:5a:c6:f2:00:aa:68:7c:1c:6a:39:43:28:
         32:0f:ba:f6:43:31:cf:33:14:4f:d7:6d:c9:bc:09:aa:b9:97:
         38:2b:c8:c8:72:9c:48:98:a7:34:44:61:c3:ad:be:e8:15:aa:
         5a:1d:56:0e:c2:c4:da:57:11:08:2e:b1:0c:b2:22:fd:7e:06:
         7c:41:2c:c9:9e:53:5f:8c:7e:f7:91:e6:80:79:fc:1f:8b:00:
         a1:6a:79:2d:87:44:e5:df:2a:bc:ac:ff:e9:b2:17:82:f1:1d:
         de:91:90:0f:72:d5:02:90:d8:51:d1:b2:c7:05:ae:07:1a:23:
         f8:4f:4f:e1:60:5f:18:19:8e:18:f7:f9:fc:b8:dd:81:a5:05:
         35:2a:86:bd:d0:96:d0:3a:64:5d:41:41:6c:64:b4:ef:95:22:
         be:49:73:5f:12:6b:41:1c:da:5a:6a:d5:7b:ed:2b:0c:10:95:
         de:96:ce:eb:f8:b9:a9:ee:9d:9c:8b:b0:55:aa:ed:e0:db:81:
         75:4e:2e:97:47:e9:9a:e3:7b:f8:db:b5:b4:45:46:29:ba:a9:
         b0:41:2c:a9:d3:7e:0a:61:fe:23:29:1a:96:40:cb:9c:a4:76:
         3f:11:bc:36:f3:b6:c8:79:a8:ee:f6:55:1c:ed:03:4c:36:45:
         f8:71:6e:d7:8c:d4:2e:18
-----BEGIN CERTIFICATE-----
MIIGrTCCBJWgAwIBAgICJ+gwDQYJKoZIhvcNAQELBQAwgawxCzAJBgNVBAYTAlVT
MQswCQYDVQQIEwJPSDERMA8GA1UEBxMIQ29sdW1idXMxEjAQBgNVBAoTCVZpa2lu
Z1ZQTjEdMBsGA1UECxMUTXlPcmdhbml6YXRpb25hbFVuaXQxFTATBgNVBAMTDFZp
a2luZ1ZQTiBDQTEQMA4GA1UEKRMHRWFzeVJTQTEhMB8GCSqGSIb3DQEJARYSbWVA
bXlob3N0Lm15ZG9tYWluMB4XDTE3MDMwMTA1MTE0NloXDTI3MDIyNzA1MTE0Nlow
HzEdMBsGA1UEAxMUQ2xpZW50Mjc0OENlcnRmYzI4Y2MwggIiMA0GCSqGSIb3DQEB
AQUAA4ICDwAwggIKAoICAQDRP2hoK1qOeYxtL3vFKT49Rfih5EkY04GLFif+9J5e
j7GSng8ezz4MQxspWO/9YsNIy3e23ZiKB0p/+WUdHAT6e40hJ+BpYFGnXR+cI3ij
BkbiHigzVCQka/ABw0fUzbBA2iIKJx05aBCDlqKUCNtUE9hyrMVlskSpzfsPEwVJ
B70gVbmGq1TU7YYeaNp2Rk1H1PfIsQGd6K9H9gtph18YpoO2Am/OKC3irrPwdwVw
06zbOR1C06NjqMPS7fduGz7IAD4ctaLaQLsmr/6AQUq1lelDBjNUJHpb4bMo3Jih
4B8Ec3XFcsi4emPEJQ4VHmA5Zn/KSNwk6t0/H121vxETNxYBKN8w7nKN4G434/H8
Ov/KfJnfvIbyLZgWiPtoghqtTb0K/zV0PBnQ+NEr2C4dGxUB9w+P/QkW0nP3m+LY
mMSoJ6KPqU0/L6R0D9jL+d4ZuOhzFlJkbm0jlVMxFg7L9RaKbPLwZDbv6YCK6/0F
0Ig5x+EsxMxYS5oEtxuzYbcq1hpc5dFjFzGPiSqJFzZRBjRNtap2cNHHIx6Fy0P8
Z/3x+3QzOKoN+3XFoeeAOruCvrAuMNgvWS4e9jdWaIzGs6ULwkcHYtG0j5tnRevq
KmaolmXzDWzbj4xJUa2/F61acau+93YSdrMnF11Byv145s5mi04bmhyXWKP2N2Rv
wQIDAQABo4IBYzCCAV8wCQYDVR0TBAIwADAtBglghkgBhvhCAQ0EIBYeRWFzeS1S
U0EgR2VuZXJhdGVkIENlcnRpZmljYXRlMB0GA1UdDgQWBBRrqB2ZbNCmKyS/DzYp
2Z34PwhKZTCB4QYDVR0jBIHZMIHWgBQSzWAE0qCAnnDtxpm4eyzGUv0ZoaGBsqSB
rzCBrDELMAkGA1UEBhMCVVMxCzAJBgNVBAgTAk9IMREwDwYDVQQHEwhDb2x1bWJ1
czESMBAGA1UEChMJVmlraW5nVlBOMR0wGwYDVQQLExRNeU9yZ2FuaXphdGlvbmFs
VW5pdDEVMBMGA1UEAxMMVmlraW5nVlBOIENBMRAwDgYDVQQpEwdFYXN5UlNBMSEw
HwYJKoZIhvcNAQkBFhJtZUBteWhvc3QubXlkb21haW6CCQDPNYXugL8qPjATBgNV
HSUEDDAKBggrBgEFBQcDAjALBgNVHQ8EBAMCB4AwDQYJKoZIhvcNAQELBQADggIB
ACz7AeyANHTbENQh9vywzzDy2+/aaeK2VkFHRftRe0NAuIjjRJXkDzuERGh323Ht
Euj8h1T0+6S0Gys+Agq0lnAXG8QHXL+n9gAZObE+7le7nJDOglcsPeMISW/odAWI
NUdxRd6ty5gvELOeqXzIYvGiJNUjqfup7hMEGo/3QvWlD9FSi3BiQ62gGnYgct2d
LiayKWH9uxOr68gjworSmjqQSKX7lrgm6kCD+tb98LYChZqGxx39C392nOtzywl4
FAeyw7HUARK/xFMBV+sDgXL02Hp81dC/ScbwpQ5Q2jVTydhNmF4xz28izrwf2SDC
OZ7MyoVRjuDOc8i+jEuiq+Lh+lrG8gCqaHwcajlDKDIPuvZDMc8zFE/Xbcm8Caq5
lzgryMhynEiYpzREYcOtvugVqlodVg7CxNpXEQgusQyyIv1+BnxBLMmeU1+MfveR
5oB5/B+LAKFqeS2HROXfKrys/+myF4LxHd6RkA9y1QKQ2FHRsscFrgcaI/hPT+Fg
XxgZjhj3+fy43YGlBTUqhr3QltA6ZF1BQWxktO+VIr5Jc18Sa0Ec2lpq1XvtKwwQ
ld6Wzuv4uanunZyLsFWq7eDbgXVOLpdH6Zrje/jbtbRFRim6qbBBLKnTfgph/iMp
GpZAy5ykdj8RvDbztsh5qO72VRztA0w2RfhxbteM1C4Y
-----END CERTIFICATE-----
