Certificate:
    Data:
        Version: 3 (0x2)
        Serial Number: 10221 (0x27ed)
    Signature Algorithm: sha256WithRSAEncryption
        Issuer: C=US, ST=OH, L=Columbus, O=VikingVPN, OU=MyOrganizationalUnit, CN=VikingVPN CA/name=EasyRSA/emailAddress=me@myhost.mydomain
        Validity
            Not Before: Mar  1 20:35:30 2017 GMT
            Not After : Feb 27 20:35:30 2027 GMT
        Subject: CN=Client2565Cert74ef20
        Subject Public Key Info:
            Public Key Algorithm: rsaEncryption
                Public-Key: (4096 bit)
                Modulus:
                    00:a4:cc:6b:73:cf:32:24:11:73:a5:64:a5:93:80:
                    5d:17:40:de:47:69:0b:06:d7:38:df:bb:4b:c6:9c:
                    c9:e5:aa:7b:f8:09:0c:ec:87:aa:9c:b1:8f:e0:27:
                    68:c7:19:64:3a:32:22:aa:ea:94:8e:50:b6:ca:27:
                    17:45:a1:0d:d7:81:b4:57:e0:59:f7:9e:ea:cf:7a:
                    19:5b:8f:f2:c5:06:de:c8:21:51:59:e0:cd:30:ea:
                    f6:31:7a:94:d9:4a:d3:1e:bc:59:f1:08:71:6b:97:
                    f8:d7:62:3c:a5:87:06:82:60:4f:e8:5f:68:43:08:
                    f5:07:4b:e1:b7:73:da:bb:28:01:25:83:4b:df:9b:
                    74:2f:0e:4c:fe:ab:5f:9f:08:06:e6:79:1b:b8:5d:
                    76:94:26:29:9c:c6:80:b9:34:f5:d6:ee:f4:3f:8e:
                    29:03:f8:68:0a:43:91:24:35:cd:c9:6f:c9:7c:80:
                    c7:25:44:a7:c0:07:22:86:46:ec:bf:7a:9a:bc:1a:
                    bd:e6:20:73:1e:c1:2e:36:a2:e8:2c:4d:fe:61:f9:
                    55:ab:98:9e:8a:00:5a:41:b1:3b:c2:6c:22:6c:2c:
                    a8:d0:0a:1c:56:d6:36:da:0b:2c:62:94:77:3c:bc:
                    01:7a:1b:19:db:e6:54:c7:4b:f8:82:dc:fb:50:bd:
                    b5:78:32:0a:90:f7:72:1e:d6:78:94:00:78:60:5a:
                    ff:57:d5:59:72:03:83:9d:78:f8:4b:93:c7:31:18:
                    6d:83:6d:8b:e8:d2:74:0d:c9:8a:2c:ac:d0:a7:f0:
                    2a:02:f4:f3:c4:ad:fb:5c:f0:b3:ee:df:af:7a:85:
                    63:6c:c2:fd:b9:78:75:ef:d6:77:27:1d:6d:98:9d:
                    cf:c6:37:99:0d:e6:ac:64:95:00:d4:88:66:13:e2:
                    3f:9f:31:2d:21:35:5e:9f:c9:5f:4c:60:6d:6e:87:
                    da:e9:ab:f1:43:a9:13:d8:9d:cd:56:12:f0:f3:7c:
                    22:95:00:57:18:84:87:fa:ea:4e:fe:c5:16:5a:25:
                    76:b9:28:2c:32:ac:58:57:1e:46:de:3c:5d:ec:29:
                    e0:6e:b0:8e:36:38:6e:cb:ac:2d:0b:78:c6:7f:25:
                    04:e4:a2:b4:3f:97:38:4f:54:10:77:7e:4e:5d:c9:
                    b9:11:2e:b1:d2:f4:f6:cf:16:f1:5a:46:87:65:b3:
                    dc:c3:5c:4f:80:90:30:0d:c3:d1:ed:4b:6d:ab:33:
                    a4:bf:a9:9f:8c:dd:d9:a2:b2:f5:1a:66:0e:ad:53:
                    18:ba:a6:0f:c3:94:9b:28:43:2f:b5:35:38:d3:84:
                    6a:81:26:ea:3d:22:f2:be:4d:10:66:5b:f1:ae:58:
                    8e:91:db
                Exponent: 65537 (0x10001)
        X509v3 extensions:
            X509v3 Basic Constraints: 
                CA:FALSE
            Netscape Comment: 
                Easy-RSA Generated Certificate
            X509v3 Subject Key Identifier: 
                4B:85:96:10:AF:A6:A3:F8:AD:21:EE:37:E4:DA:44:61:F1:C7:2B:A5
            X509v3 Authority Key Identifier: 
                keyid:12:CD:60:04:D2:A0:80:9E:70:ED:C6:99:B8:7B:2C:C6:52:FD:19:A1
                DirName:/C=US/ST=OH/L=Columbus/O=VikingVPN/OU=MyOrganizationalUnit/CN=VikingVPN CA/name=EasyRSA/emailAddress=me@myhost.mydomain
                serial:CF:35:85:EE:80:BF:2A:3E

            X509v3 Extended Key Usage: 
                TLS Web Client Authentication
            X509v3 Key Usage: 
                Digital Signature
    Signature Algorithm: sha256WithRSAEncryption
         44:3f:9b:27:29:b8:c1:70:2e:16:96:a9:5d:8e:d7:e5:59:09:
         f6:e6:cf:36:ed:b1:f6:95:e9:6d:68:bf:09:8b:a4:c3:ad:ff:
         a7:73:8c:d8:05:a5:81:d0:ea:03:b3:f3:d9:b6:9d:32:97:b4:
         20:2f:aa:bc:86:3a:81:31:ac:93:45:62:e8:20:5b:df:24:6b:
         33:8f:96:fd:97:41:69:2a:dc:dc:7a:86:fc:c1:f7:bb:0d:97:
         5b:39:4b:95:c8:be:1e:c7:bc:fa:df:f5:92:83:8e:12:82:77:
         01:98:7d:a0:0b:14:97:f0:01:df:55:36:dc:8d:23:4e:f3:b2:
         95:99:af:ed:00:58:cb:92:6d:61:70:5b:ba:10:23:a2:a3:b2:
         90:1e:9f:19:c8:f2:c2:5f:60:e4:54:a6:2c:21:77:b1:7a:da:
         86:af:8d:31:01:4f:ab:67:e2:d2:e2:29:62:f8:1f:1c:68:6d:
         9f:ec:b1:b4:09:e1:7a:44:99:b0:0b:f8:d3:2f:44:92:25:35:
         a9:c0:dd:7f:62:46:53:c5:7d:9f:af:c7:63:3c:dc:70:bf:a9:
         63:10:c3:8f:aa:8b:5f:51:d6:4f:3a:5c:f6:ba:6f:a6:81:39:
         6f:d0:f1:0a:c6:d2:2e:28:de:f6:77:60:6a:f7:d4:02:0e:90:
         bb:6c:af:99:02:4e:c6:8f:79:34:2d:0b:99:53:99:96:04:e8:
         ee:47:7c:a8:dd:cf:39:12:40:9d:87:9e:55:7b:eb:96:00:7c:
         9e:52:16:72:48:5c:fc:52:8d:a8:ef:e5:99:23:a1:bc:2f:54:
         29:c0:fd:34:cb:ff:cd:19:f7:99:d8:f2:fa:86:d0:b1:23:fc:
         d8:61:33:09:ad:d3:70:ad:34:58:e7:a0:44:45:7c:0c:12:ab:
         10:1c:4b:94:ab:c8:c1:ee:fd:e2:4b:58:48:a1:b3:d7:b8:bc:
         4d:27:45:a7:d1:17:3a:58:bc:83:b3:79:e7:0b:01:be:9a:4f:
         65:5d:56:f3:dd:cd:5f:26:4a:e8:57:f8:ec:56:bf:41:8a:b6:
         ec:d1:7b:cd:91:16:bf:41:ef:32:70:af:87:3e:22:1e:4e:16:
         5e:0c:ae:c2:55:e6:5b:0d:49:64:d2:bc:82:7e:85:48:da:b9:
         d6:4c:a6:5b:0e:8c:7d:7f:fc:13:08:22:46:41:76:9b:3c:94:
         bf:04:99:16:f6:81:0d:c2:30:c0:30:32:7b:df:9b:73:b8:12:
         a4:83:90:eb:a8:a1:12:ab:fd:70:42:1c:f0:67:67:c4:d7:bf:
         4d:75:f5:8b:53:95:80:8c:83:c9:cf:4c:8c:d7:0d:7e:97:16:
         96:57:6b:3f:db:e9:96:0e
-----BEGIN CERTIFICATE-----
MIIGrTCCBJWgAwIBAgICJ+0wDQYJKoZIhvcNAQELBQAwgawxCzAJBgNVBAYTAlVT
MQswCQYDVQQIEwJPSDERMA8GA1UEBxMIQ29sdW1idXMxEjAQBgNVBAoTCVZpa2lu
Z1ZQTjEdMBsGA1UECxMUTXlPcmdhbml6YXRpb25hbFVuaXQxFTATBgNVBAMTDFZp
a2luZ1ZQTiBDQTEQMA4GA1UEKRMHRWFzeVJTQTEhMB8GCSqGSIb3DQEJARYSbWVA
bXlob3N0Lm15ZG9tYWluMB4XDTE3MDMwMTIwMzUzMFoXDTI3MDIyNzIwMzUzMFow
HzEdMBsGA1UEAxMUQ2xpZW50MjU2NUNlcnQ3NGVmMjAwggIiMA0GCSqGSIb3DQEB
AQUAA4ICDwAwggIKAoICAQCkzGtzzzIkEXOlZKWTgF0XQN5HaQsG1zjfu0vGnMnl
qnv4CQzsh6qcsY/gJ2jHGWQ6MiKq6pSOULbKJxdFoQ3XgbRX4Fn3nurPehlbj/LF
Bt7IIVFZ4M0w6vYxepTZStMevFnxCHFrl/jXYjylhwaCYE/oX2hDCPUHS+G3c9q7
KAElg0vfm3QvDkz+q1+fCAbmeRu4XXaUJimcxoC5NPXW7vQ/jikD+GgKQ5EkNc3J
b8l8gMclRKfAByKGRuy/epq8Gr3mIHMewS42ougsTf5h+VWrmJ6KAFpBsTvCbCJs
LKjQChxW1jbaCyxilHc8vAF6Gxnb5lTHS/iC3PtQvbV4MgqQ93Ie1niUAHhgWv9X
1VlyA4OdePhLk8cxGG2DbYvo0nQNyYosrNCn8CoC9PPErftc8LPu3696hWNswv25
eHXv1ncnHW2Ync/GN5kN5qxklQDUiGYT4j+fMS0hNV6fyV9MYG1uh9rpq/FDqRPY
nc1WEvDzfCKVAFcYhIf66k7+xRZaJXa5KCwyrFhXHkbePF3sKeBusI42OG7LrC0L
eMZ/JQTkorQ/lzhPVBB3fk5dybkRLrHS9PbPFvFaRodls9zDXE+AkDANw9HtS22r
M6S/qZ+M3dmisvUaZg6tUxi6pg/DlJsoQy+1NTjThGqBJuo9IvK+TRBmW/GuWI6R
2wIDAQABo4IBYzCCAV8wCQYDVR0TBAIwADAtBglghkgBhvhCAQ0EIBYeRWFzeS1S
U0EgR2VuZXJhdGVkIENlcnRpZmljYXRlMB0GA1UdDgQWBBRLhZYQr6aj+K0h7jfk
2kRh8ccrpTCB4QYDVR0jBIHZMIHWgBQSzWAE0qCAnnDtxpm4eyzGUv0ZoaGBsqSB
rzCBrDELMAkGA1UEBhMCVVMxCzAJBgNVBAgTAk9IMREwDwYDVQQHEwhDb2x1bWJ1
czESMBAGA1UEChMJVmlraW5nVlBOMR0wGwYDVQQLExRNeU9yZ2FuaXphdGlvbmFs
VW5pdDEVMBMGA1UEAxMMVmlraW5nVlBOIENBMRAwDgYDVQQpEwdFYXN5UlNBMSEw
HwYJKoZIhvcNAQkBFhJtZUBteWhvc3QubXlkb21haW6CCQDPNYXugL8qPjATBgNV
HSUEDDAKBggrBgEFBQcDAjALBgNVHQ8EBAMCB4AwDQYJKoZIhvcNAQELBQADggIB
AEQ/mycpuMFwLhaWqV2O1+VZCfbmzzbtsfaV6W1ovwmLpMOt/6dzjNgFpYHQ6gOz
89m2nTKXtCAvqryGOoExrJNFYuggW98kazOPlv2XQWkq3Nx6hvzB97sNl1s5S5XI
vh7HvPrf9ZKDjhKCdwGYfaALFJfwAd9VNtyNI07zspWZr+0AWMuSbWFwW7oQI6Kj
spAenxnI8sJfYORUpiwhd7F62oavjTEBT6tn4tLiKWL4HxxobZ/ssbQJ4XpEmbAL
+NMvRJIlNanA3X9iRlPFfZ+vx2M83HC/qWMQw4+qi19R1k86XPa6b6aBOW/Q8QrG
0i4o3vZ3YGr31AIOkLtsr5kCTsaPeTQtC5lTmZYE6O5HfKjdzzkSQJ2HnlV765YA
fJ5SFnJIXPxSjajv5ZkjobwvVCnA/TTL/80Z95nY8vqG0LEj/NhhMwmt03CtNFjn
oERFfAwSqxAcS5SryMHu/eJLWEihs9e4vE0nRafRFzpYvIOzeecLAb6aT2VdVvPd
zV8mSuhX+OxWv0GKtuzRe82RFr9B7zJwr4c+Ih5OFl4MrsJV5lsNSWTSvIJ+hUja
udZMplsOjH1//BMIIkZBdps8lL8EmRb2gQ3CMMAwMnvfm3O4EqSDkOuooRKr/XBC
HPBnZ8TXv0119YtTlYCMg8nPTIzXDX6XFpZXaz/b6ZYO
-----END CERTIFICATE-----
