Certificate:
    Data:
        Version: 3 (0x2)
        Serial Number: 10250 (0x280a)
    Signature Algorithm: sha256WithRSAEncryption
        Issuer: C=US, ST=OH, L=Columbus, O=VikingVPN, OU=MyOrganizationalUnit, CN=VikingVPN CA/name=EasyRSA/emailAddress=me@myhost.mydomain
        Validity
            Not Before: Mar  6 14:38:20 2017 GMT
            Not After : Mar  4 14:38:20 2027 GMT
        Subject: CN=Client1702Cert97356e
        Subject Public Key Info:
            Public Key Algorithm: rsaEncryption
                Public-Key: (4096 bit)
                Modulus:
                    00:a5:38:c5:de:dc:58:f0:42:e9:57:9e:3a:16:70:
                    ac:56:a9:85:48:13:36:b7:5d:20:5b:5e:7f:d5:b9:
                    14:9c:b4:ed:59:38:8d:76:cf:78:d0:07:c2:da:d7:
                    88:1e:6e:18:e0:77:51:67:b9:1a:1f:70:06:a9:08:
                    ec:2b:96:6d:92:82:ea:2d:b5:5d:6f:42:2a:e5:61:
                    ed:02:bc:1b:37:87:b0:a1:d1:97:0f:f6:a2:2e:76:
                    b8:ca:99:ac:5b:d8:ae:0c:39:cb:b6:3e:a3:ef:3b:
                    89:6a:72:b2:4e:e4:4c:b2:bd:28:02:05:37:e7:ad:
                    c5:3f:ee:22:1c:62:6b:e1:58:a9:cd:a7:0f:69:d0:
                    09:94:47:2e:1d:68:16:09:b5:88:31:d2:37:12:a2:
                    c4:90:ae:cd:4e:0d:43:cc:00:c6:07:ef:e8:b1:40:
                    f2:a8:27:a8:df:e6:9b:22:d9:85:68:59:15:8f:26:
                    ef:0d:23:dd:24:ac:bd:5c:ff:42:e0:e5:01:54:b6:
                    f2:93:de:5d:d5:52:45:06:24:2d:7a:a4:0e:17:95:
                    bd:cd:ec:a6:0e:d7:2d:d8:c2:34:d4:c5:6d:6d:4f:
                    10:ec:14:7a:2e:7d:a8:e3:2d:40:ed:29:65:55:23:
                    a6:58:65:72:60:82:08:d1:b2:44:88:47:00:a9:da:
                    ed:09:46:3a:c0:f2:ce:f6:f1:c8:af:7c:36:73:ee:
                    d1:f3:1c:d8:8f:3b:c5:cd:52:64:31:ef:3a:03:6d:
                    d4:11:20:4c:2b:8d:d6:f5:1c:01:57:be:02:8b:dd:
                    6a:e3:3e:13:80:ca:a6:83:36:86:e3:83:9c:ed:4b:
                    d2:24:fd:ee:68:cc:b2:80:1d:6a:bb:e8:71:1c:22:
                    77:33:c5:d3:16:ac:22:2d:6e:ce:73:85:6c:d6:66:
                    ac:1a:9b:09:dd:49:4c:59:c2:15:55:fa:72:6f:c1:
                    8e:14:1d:59:bb:87:37:0e:88:32:6d:b2:08:1a:7d:
                    9b:d4:20:6f:5c:f7:af:f9:05:41:54:bd:de:f6:be:
                    f3:8d:e2:8e:3c:17:8c:98:aa:43:ed:d6:20:94:d1:
                    36:68:b4:56:dc:e1:c8:d3:31:31:3f:6c:77:b4:01:
                    69:47:de:d5:fa:d1:2f:a4:23:2e:c8:d9:8a:00:71:
                    a7:da:20:6c:84:38:13:2c:4e:7e:1f:49:d1:f9:e6:
                    20:14:3f:2b:e7:2b:50:e9:59:d7:91:96:a1:5e:c1:
                    57:61:16:bf:41:ee:8c:5f:fd:0d:6f:5d:6e:b7:25:
                    4e:e5:43:5d:b1:17:59:27:7e:4c:20:2b:ae:57:48:
                    9b:c7:1a:88:62:64:04:c3:47:f2:30:e0:e9:f7:6e:
                    cc:94:53
                Exponent: 65537 (0x10001)
        X509v3 extensions:
            X509v3 Basic Constraints: 
                CA:FALSE
            Netscape Comment: 
                Easy-RSA Generated Certificate
            X509v3 Subject Key Identifier: 
                BD:D2:FB:C9:2C:19:FD:70:C3:31:F3:87:CE:FA:32:7E:B5:8A:D7:F5
            X509v3 Authority Key Identifier: 
                keyid:12:CD:60:04:D2:A0:80:9E:70:ED:C6:99:B8:7B:2C:C6:52:FD:19:A1
                DirName:/C=US/ST=OH/L=Columbus/O=VikingVPN/OU=MyOrganizationalUnit/CN=VikingVPN CA/name=EasyRSA/emailAddress=me@myhost.mydomain
                serial:CF:35:85:EE:80:BF:2A:3E

            X509v3 Extended Key Usage: 
                TLS Web Client Authentication
            X509v3 Key Usage: 
                Digital Signature
    Signature Algorithm: sha256WithRSAEncryption
         6b:ec:76:cf:20:c3:40:f1:a3:d3:ee:6c:b3:60:c3:6b:f3:4a:
         1b:cc:51:2e:41:1e:3e:03:2c:17:c7:70:9f:6b:8f:a6:d0:27:
         86:95:36:10:92:82:e3:f6:01:e7:7a:b8:e0:12:0f:89:7d:be:
         88:f6:41:aa:29:84:f5:32:f1:d0:d6:07:e6:fa:72:f1:63:be:
         99:db:0e:f1:67:ba:86:79:1c:3c:ec:8c:a2:07:be:60:8a:73:
         35:f9:fd:6d:7c:c8:31:d5:f8:32:df:9f:4f:c8:0a:d0:1c:a8:
         1d:81:e3:47:30:f5:aa:ab:b1:52:0a:8f:f2:e7:ba:b7:23:cd:
         63:fb:83:29:b0:54:6a:b3:a3:96:c1:2c:bb:14:ae:45:0e:2b:
         85:10:46:7c:85:da:7e:b3:b5:be:89:a5:72:37:f9:e6:fe:b6:
         51:2d:66:29:35:9b:05:35:1c:4d:4b:2b:96:a6:d6:d0:51:4c:
         fb:b8:f3:fe:65:e6:a1:21:58:8e:2d:80:8a:2a:34:26:94:5d:
         08:57:29:e7:f5:7a:a0:d3:01:15:fe:80:d2:8f:d5:39:9f:37:
         50:62:94:99:89:40:e2:44:88:1e:4a:26:25:16:ae:ed:7d:93:
         30:b1:04:e2:ee:9c:47:df:7c:cf:ca:df:78:95:3d:bc:35:bb:
         7f:fb:84:c9:b9:c9:82:44:62:81:ef:0f:29:8c:80:98:2e:81:
         64:b0:1a:2a:b1:47:8c:ad:7e:e6:1d:58:41:51:bf:1e:9c:93:
         73:a0:19:15:c1:39:47:cc:2d:ec:5f:2a:42:40:70:0b:08:b4:
         1a:8a:3e:5a:79:5b:89:24:0b:de:b5:02:37:1b:ab:d5:24:bc:
         2e:2f:85:d3:c2:a5:ce:bf:29:10:99:7a:7c:57:21:c8:05:2b:
         5c:fe:0d:0f:e2:e6:6e:31:5b:01:a1:8c:e7:e5:8b:1a:e6:4a:
         c3:b3:05:bf:7f:a5:fa:c5:66:f6:6e:26:57:51:eb:ad:24:31:
         69:e5:e7:41:27:7a:4a:25:fb:5e:6c:de:1b:11:bd:f0:bd:a5:
         99:e1:d3:90:3b:71:f1:2c:68:99:96:5c:bb:26:e9:09:19:41:
         04:aa:f6:18:54:9c:ae:34:b8:10:1f:73:11:2e:da:79:42:d3:
         6c:b3:4d:bb:3b:67:ad:89:6e:28:65:da:32:4f:a8:9a:46:e1:
         e9:2d:6c:f5:53:8a:1d:8f:04:85:43:df:df:42:4a:11:d4:ba:
         b5:20:be:93:04:96:ce:69:d5:8c:ad:c7:af:06:3f:67:f9:c8:
         ae:4c:ca:76:d3:d4:86:50:c3:5e:7d:e3:f9:6b:82:20:6d:de:
         18:b4:ed:51:25:20:0c:c0
-----BEGIN CERTIFICATE-----
MIIGrTCCBJWgAwIBAgICKAowDQYJKoZIhvcNAQELBQAwgawxCzAJBgNVBAYTAlVT
MQswCQYDVQQIEwJPSDERMA8GA1UEBxMIQ29sdW1idXMxEjAQBgNVBAoTCVZpa2lu
Z1ZQTjEdMBsGA1UECxMUTXlPcmdhbml6YXRpb25hbFVuaXQxFTATBgNVBAMTDFZp
a2luZ1ZQTiBDQTEQMA4GA1UEKRMHRWFzeVJTQTEhMB8GCSqGSIb3DQEJARYSbWVA
bXlob3N0Lm15ZG9tYWluMB4XDTE3MDMwNjE0MzgyMFoXDTI3MDMwNDE0MzgyMFow
HzEdMBsGA1UEAxMUQ2xpZW50MTcwMkNlcnQ5NzM1NmUwggIiMA0GCSqGSIb3DQEB
AQUAA4ICDwAwggIKAoICAQClOMXe3FjwQulXnjoWcKxWqYVIEza3XSBbXn/VuRSc
tO1ZOI12z3jQB8La14gebhjgd1FnuRofcAapCOwrlm2SguottV1vQirlYe0CvBs3
h7Ch0ZcP9qIudrjKmaxb2K4MOcu2PqPvO4lqcrJO5EyyvSgCBTfnrcU/7iIcYmvh
WKnNpw9p0AmURy4daBYJtYgx0jcSosSQrs1ODUPMAMYH7+ixQPKoJ6jf5psi2YVo
WRWPJu8NI90krL1c/0Lg5QFUtvKT3l3VUkUGJC16pA4Xlb3N7KYO1y3YwjTUxW1t
TxDsFHoufajjLUDtKWVVI6ZYZXJgggjRskSIRwCp2u0JRjrA8s728civfDZz7tHz
HNiPO8XNUmQx7zoDbdQRIEwrjdb1HAFXvgKL3WrjPhOAyqaDNobjg5ztS9Ik/e5o
zLKAHWq76HEcInczxdMWrCItbs5zhWzWZqwamwndSUxZwhVV+nJvwY4UHVm7hzcO
iDJtsggafZvUIG9c96/5BUFUvd72vvON4o48F4yYqkPt1iCU0TZotFbc4cjTMTE/
bHe0AWlH3tX60S+kIy7I2YoAcafaIGyEOBMsTn4fSdH55iAUPyvnK1DpWdeRlqFe
wVdhFr9B7oxf/Q1vXW63JU7lQ12xF1knfkwgK65XSJvHGohiZATDR/Iw4On3bsyU
UwIDAQABo4IBYzCCAV8wCQYDVR0TBAIwADAtBglghkgBhvhCAQ0EIBYeRWFzeS1S
U0EgR2VuZXJhdGVkIENlcnRpZmljYXRlMB0GA1UdDgQWBBS90vvJLBn9cMMx84fO
+jJ+tYrX9TCB4QYDVR0jBIHZMIHWgBQSzWAE0qCAnnDtxpm4eyzGUv0ZoaGBsqSB
rzCBrDELMAkGA1UEBhMCVVMxCzAJBgNVBAgTAk9IMREwDwYDVQQHEwhDb2x1bWJ1
czESMBAGA1UEChMJVmlraW5nVlBOMR0wGwYDVQQLExRNeU9yZ2FuaXphdGlvbmFs
VW5pdDEVMBMGA1UEAxMMVmlraW5nVlBOIENBMRAwDgYDVQQpEwdFYXN5UlNBMSEw
HwYJKoZIhvcNAQkBFhJtZUBteWhvc3QubXlkb21haW6CCQDPNYXugL8qPjATBgNV
HSUEDDAKBggrBgEFBQcDAjALBgNVHQ8EBAMCB4AwDQYJKoZIhvcNAQELBQADggIB
AGvsds8gw0Dxo9PubLNgw2vzShvMUS5BHj4DLBfHcJ9rj6bQJ4aVNhCSguP2Aed6
uOASD4l9voj2QaophPUy8dDWB+b6cvFjvpnbDvFnuoZ5HDzsjKIHvmCKczX5/W18
yDHV+DLfn0/ICtAcqB2B40cw9aqrsVIKj/LnurcjzWP7gymwVGqzo5bBLLsUrkUO
K4UQRnyF2n6ztb6JpXI3+eb+tlEtZik1mwU1HE1LK5am1tBRTPu48/5l5qEhWI4t
gIoqNCaUXQhXKef1eqDTARX+gNKP1TmfN1BilJmJQOJEiB5KJiUWru19kzCxBOLu
nEfffM/K33iVPbw1u3/7hMm5yYJEYoHvDymMgJgugWSwGiqxR4ytfuYdWEFRvx6c
k3OgGRXBOUfMLexfKkJAcAsItBqKPlp5W4kkC961Ajcbq9UkvC4vhdPCpc6/KRCZ
enxXIcgFK1z+DQ/i5m4xWwGhjOflixrmSsOzBb9/pfrFZvZuJldR660kMWnl50En
ekol+15s3hsRvfC9pZnh05A7cfEsaJmWXLsm6QkZQQSq9hhUnK40uBAfcxEu2nlC
02yzTbs7Z62Jbihl2jJPqJpG4ektbPVTih2PBIVD399CShHUurUgvpMEls5p1Yyt
x68GP2f5yK5MynbT1IZQw1594/lrgiBt3hi07VElIAzA
-----END CERTIFICATE-----
