Certificate:
    Data:
        Version: 3 (0x2)
        Serial Number: 10288 (0x2830)
    Signature Algorithm: sha256WithRSAEncryption
        Issuer: C=US, ST=OH, L=Columbus, O=VikingVPN, OU=MyOrganizationalUnit, CN=VikingVPN CA/name=EasyRSA/emailAddress=me@myhost.mydomain
        Validity
            Not Before: Mar 12 23:18:44 2017 GMT
            Not After : Mar 10 23:18:44 2027 GMT
        Subject: CN=Client2766Cert9d1187
        Subject Public Key Info:
            Public Key Algorithm: rsaEncryption
                Public-Key: (4096 bit)
                Modulus:
                    00:9f:44:e6:3b:85:3d:dc:17:f8:7b:ad:1a:d5:00:
                    4b:99:87:42:5a:34:9d:73:d5:70:63:b9:02:e1:9f:
                    10:90:38:ad:8d:55:c6:71:da:44:68:c9:f9:e1:6b:
                    e1:ba:32:38:db:68:2d:3a:b1:cc:12:a7:49:cd:10:
                    9b:23:d9:f5:0a:39:55:c8:94:59:24:0c:68:54:b4:
                    cb:cb:38:c6:31:b7:fd:8f:47:fa:9d:76:45:f3:ea:
                    59:e4:ac:86:69:7b:4a:51:01:9a:29:7a:15:ee:13:
                    b1:9f:9a:ff:b2:34:a0:62:41:f1:f7:7c:92:49:f5:
                    80:41:b4:5f:4b:52:76:04:39:e0:cf:fe:7c:29:4e:
                    66:00:d7:e4:53:1b:fa:6c:07:04:15:dd:de:0e:da:
                    cc:77:7d:4f:66:6c:03:e0:cf:c7:9e:ee:89:7d:4e:
                    af:fc:b3:11:2b:55:fa:a0:97:80:c7:6b:39:f5:ef:
                    ac:da:38:9b:ef:ec:99:e8:6c:2b:4a:87:3a:54:73:
                    47:c8:f1:db:cb:05:21:37:4a:02:73:5f:3a:c7:c7:
                    8c:85:13:34:66:88:13:83:f3:c0:ed:5b:ae:92:e8:
                    ee:5e:36:a5:d5:cd:d3:bb:db:ac:9e:95:a5:c8:12:
                    17:28:47:8d:0f:91:62:e3:0a:97:1b:56:ae:da:4f:
                    03:5e:42:e1:f7:e5:b5:bf:23:b7:91:59:9d:13:aa:
                    ab:5c:a0:f0:f8:65:9a:37:57:6e:01:70:e7:ef:c0:
                    71:7f:0b:ec:ce:28:df:b8:bb:84:57:68:77:7c:3c:
                    fa:4d:63:4d:d4:fa:82:bf:fa:2f:ce:b7:c3:d9:21:
                    e8:1d:22:8a:4b:54:7e:cc:a2:8e:ac:35:9e:3f:dc:
                    57:4e:e0:0e:82:a8:a3:f3:c2:66:ce:4e:86:a4:c2:
                    e2:33:ae:d3:c9:2f:c4:d5:22:f3:b9:99:eb:2f:6d:
                    bc:60:50:ca:b6:2e:f1:61:8e:eb:f4:6e:a5:03:b6:
                    81:7e:9d:1e:ad:bc:a8:de:08:7d:f8:d5:ef:45:7f:
                    f8:2c:a0:1c:5f:61:05:b8:f2:a4:51:3a:bd:7a:34:
                    0c:ec:3c:08:a3:a0:26:ea:98:10:35:66:0d:ac:8c:
                    14:81:00:ed:d3:93:67:36:da:8a:cd:61:42:9f:45:
                    8f:49:39:f7:0e:9c:ee:5e:9f:5b:e3:20:0a:2e:e1:
                    77:e0:76:dd:7a:cf:c3:ca:f0:8e:f8:0d:49:c8:14:
                    6c:bf:65:a6:61:b2:47:ff:cd:13:ee:7c:7e:b3:64:
                    52:8a:5d:10:24:7b:b2:31:7c:cc:c9:f3:fd:5d:48:
                    3e:28:b0:9e:89:5c:3f:1d:f3:7b:18:24:eb:0d:01:
                    e4:fd:79
                Exponent: 65537 (0x10001)
        X509v3 extensions:
            X509v3 Basic Constraints: 
                CA:FALSE
            Netscape Comment: 
                Easy-RSA Generated Certificate
            X509v3 Subject Key Identifier: 
                6B:C7:B3:5E:FE:89:85:49:24:31:6E:CB:25:F9:1B:27:EE:98:FF:76
            X509v3 Authority Key Identifier: 
                keyid:12:CD:60:04:D2:A0:80:9E:70:ED:C6:99:B8:7B:2C:C6:52:FD:19:A1
                DirName:/C=US/ST=OH/L=Columbus/O=VikingVPN/OU=MyOrganizationalUnit/CN=VikingVPN CA/name=EasyRSA/emailAddress=me@myhost.mydomain
                serial:CF:35:85:EE:80:BF:2A:3E

            X509v3 Extended Key Usage: 
                TLS Web Client Authentication
            X509v3 Key Usage: 
                Digital Signature
    Signature Algorithm: sha256WithRSAEncryption
         20:0c:57:9a:f9:88:3c:98:b4:34:4b:45:ba:11:c1:96:0d:2a:
         61:47:09:8a:60:ef:b9:36:a0:6b:1a:fe:d2:d5:05:83:ec:d3:
         de:cf:ab:46:49:be:e5:cf:4d:23:78:82:8e:c7:2e:b2:25:a6:
         03:95:31:87:e4:f4:2f:c5:4f:c6:49:1e:4e:1d:25:4a:9a:54:
         e4:49:56:f1:61:5f:31:a9:37:01:96:d7:cf:c6:b5:d9:dc:62:
         16:f1:0e:06:21:a5:40:a8:88:3f:1e:5f:6b:27:66:14:ab:60:
         23:d2:84:59:8e:5e:ab:2f:c7:d5:ed:6b:a1:17:3c:32:ac:c0:
         ab:30:95:45:0b:0d:e3:98:65:1f:f5:a1:2f:13:ea:9b:de:53:
         e5:9f:f5:f0:6d:42:03:4c:0e:5d:8f:82:27:aa:68:80:00:5a:
         dc:53:a7:a5:fd:03:ad:ff:32:86:41:b3:df:37:4c:2d:43:d9:
         41:9a:a5:9c:40:58:f6:13:5c:dc:f9:21:f3:4b:e6:69:7d:d1:
         1c:3c:c2:9c:41:b1:df:e2:89:0e:d7:a9:83:bb:19:53:3a:7e:
         fe:ce:2b:57:31:1d:f4:bc:77:58:59:74:bf:a0:8d:a1:03:15:
         91:a3:66:ed:b6:ee:86:ce:1f:a3:83:ca:b4:c5:f4:40:06:16:
         f6:c3:bb:1f:e0:21:98:4a:47:e2:c1:72:27:4a:5b:2c:7c:1d:
         f0:0f:4d:db:71:5f:9a:64:22:ac:29:f3:b0:8c:37:4d:d3:c6:
         b9:b0:93:fe:66:9f:92:8f:ce:1b:00:4c:1a:bf:7b:0f:73:34:
         cd:ce:11:fd:68:91:6d:17:fe:0f:55:00:99:16:80:9a:ab:34:
         ca:a6:32:2c:85:9c:2f:34:7c:03:5c:c5:2a:9b:de:e9:9d:2c:
         70:10:5e:02:89:f8:0d:66:e2:c2:3e:54:93:6d:c9:13:a8:ce:
         91:87:a0:f7:a1:17:67:35:d9:1d:71:95:59:94:f9:5f:c5:d3:
         e5:e4:83:f5:49:cc:ae:43:a5:3d:b1:e9:01:a0:57:d7:1d:cf:
         56:87:04:2a:83:83:af:cd:f1:d2:60:12:2b:54:91:19:8e:eb:
         f9:42:10:f4:f0:fa:2f:93:f9:fe:ed:e1:4d:f9:32:70:79:99:
         10:35:37:f5:19:04:8e:b5:82:a8:63:cb:4b:ac:6c:44:0a:4a:
         1c:de:37:df:62:6d:fc:78:59:ef:bc:46:de:05:1f:09:fe:d5:
         bc:6c:32:e9:ed:76:0f:fd:bb:5f:35:22:dc:23:99:79:30:55:
         87:6c:0d:88:77:79:45:88:45:f1:77:22:6b:01:4d:6b:8a:f8:
         ca:fd:51:a7:a4:9f:6d:14
-----BEGIN CERTIFICATE-----
MIIGrTCCBJWgAwIBAgICKDAwDQYJKoZIhvcNAQELBQAwgawxCzAJBgNVBAYTAlVT
MQswCQYDVQQIEwJPSDERMA8GA1UEBxMIQ29sdW1idXMxEjAQBgNVBAoTCVZpa2lu
Z1ZQTjEdMBsGA1UECxMUTXlPcmdhbml6YXRpb25hbFVuaXQxFTATBgNVBAMTDFZp
a2luZ1ZQTiBDQTEQMA4GA1UEKRMHRWFzeVJTQTEhMB8GCSqGSIb3DQEJARYSbWVA
bXlob3N0Lm15ZG9tYWluMB4XDTE3MDMxMjIzMTg0NFoXDTI3MDMxMDIzMTg0NFow
HzEdMBsGA1UEAxMUQ2xpZW50Mjc2NkNlcnQ5ZDExODcwggIiMA0GCSqGSIb3DQEB
AQUAA4ICDwAwggIKAoICAQCfROY7hT3cF/h7rRrVAEuZh0JaNJ1z1XBjuQLhnxCQ
OK2NVcZx2kRoyfnha+G6MjjbaC06scwSp0nNEJsj2fUKOVXIlFkkDGhUtMvLOMYx
t/2PR/qddkXz6lnkrIZpe0pRAZopehXuE7Gfmv+yNKBiQfH3fJJJ9YBBtF9LUnYE
OeDP/nwpTmYA1+RTG/psBwQV3d4O2sx3fU9mbAPgz8ee7ol9Tq/8sxErVfqgl4DH
azn176zaOJvv7JnobCtKhzpUc0fI8dvLBSE3SgJzXzrHx4yFEzRmiBOD88DtW66S
6O5eNqXVzdO726yelaXIEhcoR40PkWLjCpcbVq7aTwNeQuH35bW/I7eRWZ0Tqqtc
oPD4ZZo3V24BcOfvwHF/C+zOKN+4u4RXaHd8PPpNY03U+oK/+i/Ot8PZIegdIopL
VH7Moo6sNZ4/3FdO4A6CqKPzwmbOToakwuIzrtPJL8TVIvO5mesvbbxgUMq2LvFh
juv0bqUDtoF+nR6tvKjeCH341e9Ff/gsoBxfYQW48qRROr16NAzsPAijoCbqmBA1
Zg2sjBSBAO3Tk2c22orNYUKfRY9JOfcOnO5en1vjIAou4Xfgdt16z8PK8I74DUnI
FGy/ZaZhskf/zRPufH6zZFKKXRAke7IxfMzJ8/1dSD4osJ6JXD8d83sYJOsNAeT9
eQIDAQABo4IBYzCCAV8wCQYDVR0TBAIwADAtBglghkgBhvhCAQ0EIBYeRWFzeS1S
U0EgR2VuZXJhdGVkIENlcnRpZmljYXRlMB0GA1UdDgQWBBRrx7Ne/omFSSQxbssl
+Rsn7pj/djCB4QYDVR0jBIHZMIHWgBQSzWAE0qCAnnDtxpm4eyzGUv0ZoaGBsqSB
rzCBrDELMAkGA1UEBhMCVVMxCzAJBgNVBAgTAk9IMREwDwYDVQQHEwhDb2x1bWJ1
czESMBAGA1UEChMJVmlraW5nVlBOMR0wGwYDVQQLExRNeU9yZ2FuaXphdGlvbmFs
VW5pdDEVMBMGA1UEAxMMVmlraW5nVlBOIENBMRAwDgYDVQQpEwdFYXN5UlNBMSEw
HwYJKoZIhvcNAQkBFhJtZUBteWhvc3QubXlkb21haW6CCQDPNYXugL8qPjATBgNV
HSUEDDAKBggrBgEFBQcDAjALBgNVHQ8EBAMCB4AwDQYJKoZIhvcNAQELBQADggIB
ACAMV5r5iDyYtDRLRboRwZYNKmFHCYpg77k2oGsa/tLVBYPs097Pq0ZJvuXPTSN4
go7HLrIlpgOVMYfk9C/FT8ZJHk4dJUqaVORJVvFhXzGpNwGW18/GtdncYhbxDgYh
pUCoiD8eX2snZhSrYCPShFmOXqsvx9Xta6EXPDKswKswlUULDeOYZR/1oS8T6pve
U+Wf9fBtQgNMDl2PgieqaIAAWtxTp6X9A63/MoZBs983TC1D2UGapZxAWPYTXNz5
IfNL5ml90Rw8wpxBsd/iiQ7XqYO7GVM6fv7OK1cxHfS8d1hZdL+gjaEDFZGjZu22
7obOH6ODyrTF9EAGFvbDux/gIZhKR+LBcidKWyx8HfAPTdtxX5pkIqwp87CMN03T
xrmwk/5mn5KPzhsATBq/ew9zNM3OEf1okW0X/g9VAJkWgJqrNMqmMiyFnC80fANc
xSqb3umdLHAQXgKJ+A1m4sI+VJNtyROozpGHoPehF2c12R1xlVmU+V/F0+Xkg/VJ
zK5DpT2x6QGgV9cdz1aHBCqDg6/N8dJgEitUkRmO6/lCEPTw+i+T+f7t4U35MnB5
mRA1N/UZBI61gqhjy0usbEQKShzeN99ibfx4We+8Rt4FHwn+1bxsMuntdg/9u181
ItwjmXkwVYdsDYh3eUWIRfF3ImsBTWuK+Mr9Uaekn20U
-----END CERTIFICATE-----
