Certificate:
    Data:
        Version: 3 (0x2)
        Serial Number: 10298 (0x283a)
    Signature Algorithm: sha256WithRSAEncryption
        Issuer: C=US, ST=OH, L=Columbus, O=VikingVPN, OU=MyOrganizationalUnit, CN=VikingVPN CA/name=EasyRSA/emailAddress=me@myhost.mydomain
        Validity
            Not Before: Mar 14 14:18:49 2017 GMT
            Not After : Mar 12 14:18:49 2027 GMT
        Subject: CN=Client2530Cert37c442
        Subject Public Key Info:
            Public Key Algorithm: rsaEncryption
                Public-Key: (4096 bit)
                Modulus:
                    00:a7:cc:0c:d4:ee:7c:4b:ef:c1:91:25:e5:83:0f:
                    71:6d:f6:cb:97:fa:fb:0b:82:95:a8:09:cb:8a:dd:
                    39:58:1c:ed:23:29:24:45:4d:9b:56:55:8a:39:f6:
                    d0:a1:cb:57:aa:58:47:80:89:7f:b3:8b:fe:b8:6e:
                    e2:00:54:13:09:5a:f8:6e:e3:9b:b0:69:6e:c0:79:
                    b9:28:4e:ea:99:43:89:10:2a:1d:24:d3:cf:be:5e:
                    02:66:6c:64:60:ab:48:98:fe:31:c9:7c:47:5f:a6:
                    44:60:7b:ae:32:af:64:6c:7c:a7:38:21:8f:17:14:
                    b6:fe:8d:2b:7a:eb:ad:89:48:cb:94:aa:ac:b8:a1:
                    a8:89:c0:e7:ae:d1:fa:f9:7b:1d:47:d4:7f:42:d2:
                    99:17:0b:55:66:d9:3e:cc:95:2d:d7:42:63:f7:8d:
                    86:7b:84:12:8a:43:7d:92:b2:49:12:f6:5e:b2:0e:
                    f4:1b:49:f2:c8:0e:a1:b9:8b:0a:c2:c1:75:04:8b:
                    b8:fb:4e:8c:31:0e:0b:7d:18:16:c8:76:24:03:48:
                    8d:cd:49:58:1e:eb:e2:ed:4a:2c:49:12:20:37:6e:
                    67:d7:76:57:76:10:52:f3:c3:7e:c2:65:17:be:74:
                    e6:8d:e3:8c:a5:24:fd:59:ec:4a:61:3d:6c:fd:12:
                    e5:2e:dd:e4:4f:d2:08:b4:71:9e:6a:de:cc:15:df:
                    cf:00:5e:45:75:d0:0c:4e:cc:8c:ec:f4:ff:07:d7:
                    56:e9:9e:19:8d:87:ff:2c:d4:87:4c:85:b4:2e:a0:
                    ea:6b:31:7c:53:46:64:8e:5f:cc:2f:9e:ab:ec:31:
                    a2:36:93:cd:82:85:8f:75:a4:ee:07:ea:67:14:60:
                    6c:45:52:33:51:c4:f8:50:8b:c9:d3:45:98:6e:15:
                    cd:37:b8:d8:de:54:2e:66:2e:09:af:f0:81:f2:15:
                    0f:90:ce:b6:24:f3:30:b0:86:ec:a0:e9:76:61:54:
                    a3:96:91:88:d3:e3:a6:bc:56:14:6a:e9:a1:02:c0:
                    2b:52:eb:97:32:7f:d3:b2:44:00:8c:6b:45:bd:2c:
                    19:56:f5:ac:a4:ec:83:a9:89:13:de:ee:a3:69:d9:
                    0e:ba:f5:00:92:87:d3:67:ae:c3:7f:21:16:ed:6d:
                    69:bf:2b:d8:c1:e5:be:40:42:e3:cb:60:22:38:65:
                    a7:da:4f:b9:3f:41:d5:ae:df:77:f2:e0:ea:7e:7a:
                    c9:d0:47:82:0c:a8:12:11:a5:82:60:6e:c7:6d:a4:
                    be:8c:57:f6:9f:9c:f9:bc:c4:c9:68:0d:02:68:cd:
                    76:8b:0f:85:f1:49:dc:ec:64:c8:50:42:f3:f4:33:
                    46:12:cd
                Exponent: 65537 (0x10001)
        X509v3 extensions:
            X509v3 Basic Constraints: 
                CA:FALSE
            Netscape Comment: 
                Easy-RSA Generated Certificate
            X509v3 Subject Key Identifier: 
                96:23:A0:84:7D:1C:BC:87:68:5C:3A:CF:1F:CF:39:BB:66:E7:9E:23
            X509v3 Authority Key Identifier: 
                keyid:12:CD:60:04:D2:A0:80:9E:70:ED:C6:99:B8:7B:2C:C6:52:FD:19:A1
                DirName:/C=US/ST=OH/L=Columbus/O=VikingVPN/OU=MyOrganizationalUnit/CN=VikingVPN CA/name=EasyRSA/emailAddress=me@myhost.mydomain
                serial:CF:35:85:EE:80:BF:2A:3E

            X509v3 Extended Key Usage: 
                TLS Web Client Authentication
            X509v3 Key Usage: 
                Digital Signature
    Signature Algorithm: sha256WithRSAEncryption
         b3:9a:d2:ab:49:db:bd:8d:a5:11:52:61:5b:03:a9:5b:98:9c:
         80:4f:f2:cc:ae:cf:a1:74:e1:be:7b:2c:1a:2d:4c:b6:ff:34:
         94:e6:86:6e:e5:aa:bc:65:97:38:ec:1b:be:1f:da:d9:16:26:
         fd:a0:60:8b:ac:a0:6b:50:c5:d2:1f:03:54:4b:98:cc:a9:d7:
         7d:51:87:d9:1a:b3:e2:8d:ea:40:5a:52:f6:c2:68:ff:ca:0d:
         02:b7:20:9e:d1:6e:23:4a:c6:6a:39:10:9c:43:cb:30:05:6f:
         41:ba:43:d4:1f:4a:a2:ce:5d:24:5d:32:77:7c:37:da:7a:59:
         42:0a:32:01:e0:80:b3:5b:e1:45:2c:05:6b:f6:f8:0e:65:75:
         11:5a:ca:e4:24:f8:f7:52:12:d9:26:89:30:56:20:74:59:41:
         bd:a4:db:c7:a5:0a:96:1a:16:43:ff:66:38:54:86:7d:fe:95:
         a1:8c:97:0d:63:b7:bd:35:c9:f8:95:11:ae:6c:d6:f1:9a:69:
         ab:00:3a:e0:25:14:16:11:b4:0a:f0:2d:07:83:4b:e1:d8:1a:
         b4:92:c8:bf:4f:51:f6:7a:d0:2f:66:e1:56:da:d7:df:26:2d:
         d8:79:0f:41:74:9b:89:de:a2:22:48:0b:ae:e4:55:34:1d:b3:
         8e:1f:6b:92:c2:43:ee:86:d3:91:8b:41:a8:54:5f:14:f4:0a:
         27:c5:b3:ad:41:af:a8:36:58:77:de:cb:13:d0:21:56:af:c9:
         3d:5a:fd:aa:48:6c:3c:b2:0e:fa:bf:ce:22:94:b7:24:45:fe:
         d8:ef:fb:3b:09:27:0f:7b:ca:b7:c2:0c:ce:5a:5e:21:bd:0d:
         e1:14:6d:35:0c:63:c2:ff:97:23:d8:41:f9:8c:d5:cb:be:a8:
         0d:00:c7:9d:45:4d:1a:e1:d3:a1:8c:40:2d:0c:c4:fe:07:1a:
         43:a3:c0:6a:11:18:bb:7c:97:6a:c2:b8:5d:ca:10:a4:e7:e6:
         8d:6e:87:8a:1c:2f:d5:14:b6:2d:a4:60:7d:4b:0c:77:68:b8:
         d4:b4:be:5c:09:92:ca:37:42:f7:de:17:6d:4c:df:ca:e8:97:
         e3:72:68:f5:0f:9a:50:d1:b0:cb:5a:be:ea:e8:a3:1c:5a:0f:
         3f:fb:7c:98:95:41:1e:4d:a1:8b:42:4c:30:be:b9:04:09:8d:
         69:32:ea:1e:81:d1:57:ab:c8:ec:53:87:b6:87:68:e2:40:d7:
         cd:73:dc:a3:29:78:e4:3b:ac:46:35:b9:5a:fd:a5:0e:42:f8:
         8c:01:78:6a:92:4e:56:79:41:99:21:5e:a2:7f:4d:d9:96:1d:
         36:d2:32:1d:be:c9:1f:f5
-----BEGIN CERTIFICATE-----
MIIGrTCCBJWgAwIBAgICKDowDQYJKoZIhvcNAQELBQAwgawxCzAJBgNVBAYTAlVT
MQswCQYDVQQIEwJPSDERMA8GA1UEBxMIQ29sdW1idXMxEjAQBgNVBAoTCVZpa2lu
Z1ZQTjEdMBsGA1UECxMUTXlPcmdhbml6YXRpb25hbFVuaXQxFTATBgNVBAMTDFZp
a2luZ1ZQTiBDQTEQMA4GA1UEKRMHRWFzeVJTQTEhMB8GCSqGSIb3DQEJARYSbWVA
bXlob3N0Lm15ZG9tYWluMB4XDTE3MDMxNDE0MTg0OVoXDTI3MDMxMjE0MTg0OVow
HzEdMBsGA1UEAxMUQ2xpZW50MjUzMENlcnQzN2M0NDIwggIiMA0GCSqGSIb3DQEB
AQUAA4ICDwAwggIKAoICAQCnzAzU7nxL78GRJeWDD3Ft9suX+vsLgpWoCcuK3TlY
HO0jKSRFTZtWVYo59tChy1eqWEeAiX+zi/64buIAVBMJWvhu45uwaW7AebkoTuqZ
Q4kQKh0k08++XgJmbGRgq0iY/jHJfEdfpkRge64yr2RsfKc4IY8XFLb+jSt6662J
SMuUqqy4oaiJwOeu0fr5ex1H1H9C0pkXC1Vm2T7MlS3XQmP3jYZ7hBKKQ32SskkS
9l6yDvQbSfLIDqG5iwrCwXUEi7j7TowxDgt9GBbIdiQDSI3NSVge6+LtSixJEiA3
bmfXdld2EFLzw37CZRe+dOaN44ylJP1Z7EphPWz9EuUu3eRP0gi0cZ5q3swV388A
XkV10AxOzIzs9P8H11bpnhmNh/8s1IdMhbQuoOprMXxTRmSOX8wvnqvsMaI2k82C
hY91pO4H6mcUYGxFUjNRxPhQi8nTRZhuFc03uNjeVC5mLgmv8IHyFQ+QzrYk8zCw
huyg6XZhVKOWkYjT46a8VhRq6aECwCtS65cyf9OyRACMa0W9LBlW9ayk7IOpiRPe
7qNp2Q669QCSh9NnrsN/IRbtbWm/K9jB5b5AQuPLYCI4ZafaT7k/QdWu33fy4Op+
esnQR4IMqBIRpYJgbsdtpL6MV/afnPm8xMloDQJozXaLD4XxSdzsZMhQQvP0M0YS
zQIDAQABo4IBYzCCAV8wCQYDVR0TBAIwADAtBglghkgBhvhCAQ0EIBYeRWFzeS1S
U0EgR2VuZXJhdGVkIENlcnRpZmljYXRlMB0GA1UdDgQWBBSWI6CEfRy8h2hcOs8f
zzm7ZueeIzCB4QYDVR0jBIHZMIHWgBQSzWAE0qCAnnDtxpm4eyzGUv0ZoaGBsqSB
rzCBrDELMAkGA1UEBhMCVVMxCzAJBgNVBAgTAk9IMREwDwYDVQQHEwhDb2x1bWJ1
czESMBAGA1UEChMJVmlraW5nVlBOMR0wGwYDVQQLExRNeU9yZ2FuaXphdGlvbmFs
VW5pdDEVMBMGA1UEAxMMVmlraW5nVlBOIENBMRAwDgYDVQQpEwdFYXN5UlNBMSEw
HwYJKoZIhvcNAQkBFhJtZUBteWhvc3QubXlkb21haW6CCQDPNYXugL8qPjATBgNV
HSUEDDAKBggrBgEFBQcDAjALBgNVHQ8EBAMCB4AwDQYJKoZIhvcNAQELBQADggIB
ALOa0qtJ272NpRFSYVsDqVuYnIBP8syuz6F04b57LBotTLb/NJTmhm7lqrxllzjs
G74f2tkWJv2gYIusoGtQxdIfA1RLmMyp131Rh9kas+KN6kBaUvbCaP/KDQK3IJ7R
biNKxmo5EJxDyzAFb0G6Q9QfSqLOXSRdMnd8N9p6WUIKMgHggLNb4UUsBWv2+A5l
dRFayuQk+PdSEtkmiTBWIHRZQb2k28elCpYaFkP/ZjhUhn3+laGMlw1jt701yfiV
Ea5s1vGaaasAOuAlFBYRtArwLQeDS+HYGrSSyL9PUfZ60C9m4Vba198mLdh5D0F0
m4neoiJIC67kVTQds44fa5LCQ+6G05GLQahUXxT0CifFs61Br6g2WHfeyxPQIVav
yT1a/apIbDyyDvq/ziKUtyRF/tjv+zsJJw97yrfCDM5aXiG9DeEUbTUMY8L/lyPY
QfmM1cu+qA0Ax51FTRrh06GMQC0MxP4HGkOjwGoRGLt8l2rCuF3KEKTn5o1uh4oc
L9UUti2kYH1LDHdouNS0vlwJkso3QvfeF21M38rol+NyaPUPmlDRsMtavurooxxa
Dz/7fJiVQR5NoYtCTDC+uQQJjWky6h6B0VeryOxTh7aHaOJA181z3KMpeOQ7rEY1
uVr9pQ5C+IwBeGqSTlZ5QZkhXqJ/TdmWHTbSMh2+yR/1
-----END CERTIFICATE-----
