Certificate:
    Data:
        Version: 3 (0x2)
        Serial Number: 10313 (0x2849)
    Signature Algorithm: sha256WithRSAEncryption
        Issuer: C=US, ST=OH, L=Columbus, O=VikingVPN, OU=MyOrganizationalUnit, CN=VikingVPN CA/name=EasyRSA/emailAddress=me@myhost.mydomain
        Validity
            Not Before: Mar 16 06:27:01 2017 GMT
            Not After : Mar 14 06:27:01 2027 GMT
        Subject: CN=Client2296Certad3bc5
        Subject Public Key Info:
            Public Key Algorithm: rsaEncryption
                Public-Key: (4096 bit)
                Modulus:
                    00:e1:48:ad:84:e6:fd:69:92:7e:df:f3:f9:65:85:
                    5a:98:02:0b:42:f9:b4:d2:2b:72:38:9f:29:29:41:
                    ec:83:e7:95:c0:10:74:03:35:1a:ca:4a:de:26:27:
                    81:b6:45:3e:a2:ca:3c:87:1f:f0:dc:05:21:c4:c5:
                    59:1c:9f:ff:55:29:9d:6f:49:60:5c:c6:a5:5a:95:
                    06:12:72:21:fc:4c:f3:4c:aa:88:6c:16:4c:f4:90:
                    70:b7:a1:fc:3f:8c:d8:a9:2e:68:e1:39:94:79:98:
                    01:c0:11:cf:eb:c3:45:41:29:67:16:3e:da:e1:1c:
                    68:03:a2:2c:9f:3a:ec:13:8a:a7:e7:bb:40:a3:9c:
                    41:18:2c:7c:8b:65:32:6d:7b:c9:a9:fa:b6:f3:30:
                    c8:3c:c4:aa:5a:b8:80:05:34:c5:9d:03:e0:b7:ae:
                    68:c2:1f:44:0a:d5:59:25:70:10:76:9b:1c:6c:7c:
                    d2:a5:b9:5c:a2:19:c5:a3:7b:9a:a0:06:47:ef:52:
                    67:fc:d5:1d:f0:41:5b:b0:f0:f4:ff:05:41:c2:32:
                    ca:18:6a:95:c0:a2:22:9d:25:b3:9a:09:40:03:ae:
                    17:3e:e8:ad:aa:85:dc:e0:63:82:1c:8e:22:8e:de:
                    47:7a:6e:bd:82:f7:bd:13:d3:d5:78:f8:00:48:5d:
                    3e:4b:08:3b:e5:e7:31:aa:a4:2d:db:e7:ff:6a:49:
                    70:b4:f4:01:94:3a:6a:17:45:39:1e:ce:25:65:82:
                    a6:7f:58:c3:eb:b6:09:9c:23:89:d1:1a:9a:6b:b9:
                    ca:a9:02:8e:36:99:a5:f9:75:67:60:87:e3:76:5f:
                    c3:82:48:6b:d1:aa:dd:5d:2f:65:b3:03:bf:53:7c:
                    17:32:01:1f:68:f1:8a:4d:27:1b:40:64:b0:f3:bb:
                    ed:69:e6:50:a2:24:20:1c:34:11:9b:e9:4b:ac:50:
                    87:64:8d:7f:8f:f1:c2:5d:0e:ff:d3:94:95:d0:39:
                    68:a8:80:fb:cd:f7:c8:23:6a:ac:84:32:ed:eb:ce:
                    5e:ca:1e:f1:01:8c:0f:82:4c:a0:a9:09:d7:dc:df:
                    c5:a7:15:aa:75:bc:5b:d1:05:77:f9:f9:ca:26:b3:
                    3e:6f:dd:bf:50:54:82:c5:54:d7:36:e7:b1:ba:f5:
                    ac:55:d0:bf:bf:96:91:4f:30:7f:9a:02:e1:c5:2f:
                    a8:58:db:f0:bb:4f:bb:e6:f9:47:10:c1:16:f3:6b:
                    14:af:74:13:c9:98:2f:1e:1a:05:53:ce:7c:03:77:
                    1a:44:72:8a:51:b9:b9:59:c1:51:d3:4d:12:27:90:
                    6a:17:ed:4c:70:03:5d:1c:f2:36:b7:82:b8:8e:ff:
                    ea:05:5b
                Exponent: 65537 (0x10001)
        X509v3 extensions:
            X509v3 Basic Constraints: 
                CA:FALSE
            Netscape Comment: 
                Easy-RSA Generated Certificate
            X509v3 Subject Key Identifier: 
                AB:A7:FE:90:BB:29:A5:73:88:6A:3C:DC:73:D5:37:62:FD:7C:AE:2A
            X509v3 Authority Key Identifier: 
                keyid:12:CD:60:04:D2:A0:80:9E:70:ED:C6:99:B8:7B:2C:C6:52:FD:19:A1
                DirName:/C=US/ST=OH/L=Columbus/O=VikingVPN/OU=MyOrganizationalUnit/CN=VikingVPN CA/name=EasyRSA/emailAddress=me@myhost.mydomain
                serial:CF:35:85:EE:80:BF:2A:3E

            X509v3 Extended Key Usage: 
                TLS Web Client Authentication
            X509v3 Key Usage: 
                Digital Signature
    Signature Algorithm: sha256WithRSAEncryption
         ea:e0:14:e7:76:eb:8c:94:95:b6:01:75:87:98:c0:42:cc:eb:
         bb:a8:33:28:49:e1:cd:fe:0e:0f:ca:15:d0:bd:1a:b2:9e:69:
         4d:18:46:74:42:03:e0:ea:0a:d6:b6:15:fc:a0:e6:05:c9:26:
         3e:16:24:d4:f1:b5:1c:91:c5:bc:c9:54:f7:ef:11:d3:95:ed:
         59:87:05:da:ad:b4:1e:a8:c2:18:ce:a9:71:b4:99:11:3c:af:
         4c:e0:96:dc:d7:27:30:35:7c:f6:5a:81:7f:6a:a1:0e:82:64:
         ca:92:ce:09:15:2b:9e:79:f6:50:21:fe:89:e2:ea:1a:aa:f7:
         06:ae:28:8e:c4:d7:1d:74:59:07:cd:16:2f:bf:39:92:2d:90:
         7d:80:e3:34:43:fa:40:75:ff:e3:34:57:01:dc:3f:61:36:9c:
         6a:ca:36:aa:c2:d5:3c:74:ff:19:e9:6c:8f:0d:8c:4c:af:aa:
         6f:84:6a:b6:f7:84:bb:70:da:56:3f:cc:dc:26:78:cb:a3:fc:
         ac:75:b2:c5:7f:be:47:03:30:d8:7d:81:39:13:2a:7e:50:0d:
         e5:3f:22:c8:8f:3b:bc:98:af:ba:e4:25:b5:fa:de:55:2b:03:
         38:ad:4b:b2:d8:53:3b:e3:7f:be:6a:ba:0a:f1:1a:f0:fc:23:
         b4:ca:ae:a4:c5:91:43:75:f7:d4:37:47:9f:b7:e7:f4:9d:75:
         8b:c8:70:42:63:a6:c0:07:60:a8:12:ca:77:40:41:ca:da:e8:
         8b:7a:39:d9:80:26:c3:d4:ad:70:5a:67:93:d4:54:91:73:b6:
         c3:cd:06:70:ac:ee:b1:b4:f7:04:7c:21:96:44:34:46:18:36:
         db:90:60:5a:48:36:3a:d5:54:4d:d1:10:7f:3d:09:36:6e:1c:
         e5:36:40:74:d7:48:90:94:11:2a:87:76:a4:81:4b:de:08:4d:
         b0:e7:16:fc:b5:b0:36:f3:02:8f:97:74:99:11:53:8c:65:42:
         c5:c0:7e:c5:d3:4c:02:aa:db:1d:80:ff:74:3e:d6:8f:1f:ea:
         56:f4:34:b9:9e:83:6b:37:53:cc:72:7e:98:5f:2a:16:80:bb:
         63:35:a2:08:c7:48:99:48:99:7e:bb:cf:8b:11:5e:2c:5b:3a:
         3e:90:12:98:6b:1f:e5:10:7c:c1:96:1b:5f:8f:4a:09:12:3f:
         bb:00:9d:a5:0c:f2:9c:c1:7e:ed:94:6c:2f:52:26:5d:59:b8:
         48:c5:bb:be:64:23:d8:9e:92:d2:ef:79:28:ad:a8:8d:5a:be:
         05:72:aa:3c:0a:23:aa:cb:03:74:39:a6:be:a2:40:7b:af:6d:
         2f:82:44:e7:77:79:41:e9
-----BEGIN CERTIFICATE-----
MIIGrTCCBJWgAwIBAgICKEkwDQYJKoZIhvcNAQELBQAwgawxCzAJBgNVBAYTAlVT
MQswCQYDVQQIEwJPSDERMA8GA1UEBxMIQ29sdW1idXMxEjAQBgNVBAoTCVZpa2lu
Z1ZQTjEdMBsGA1UECxMUTXlPcmdhbml6YXRpb25hbFVuaXQxFTATBgNVBAMTDFZp
a2luZ1ZQTiBDQTEQMA4GA1UEKRMHRWFzeVJTQTEhMB8GCSqGSIb3DQEJARYSbWVA
bXlob3N0Lm15ZG9tYWluMB4XDTE3MDMxNjA2MjcwMVoXDTI3MDMxNDA2MjcwMVow
HzEdMBsGA1UEAxMUQ2xpZW50MjI5NkNlcnRhZDNiYzUwggIiMA0GCSqGSIb3DQEB
AQUAA4ICDwAwggIKAoICAQDhSK2E5v1pkn7f8/llhVqYAgtC+bTSK3I4nykpQeyD
55XAEHQDNRrKSt4mJ4G2RT6iyjyHH/DcBSHExVkcn/9VKZ1vSWBcxqValQYSciH8
TPNMqohsFkz0kHC3ofw/jNipLmjhOZR5mAHAEc/rw0VBKWcWPtrhHGgDoiyfOuwT
iqfnu0CjnEEYLHyLZTJte8mp+rbzMMg8xKpauIAFNMWdA+C3rmjCH0QK1VklcBB2
mxxsfNKluVyiGcWje5qgBkfvUmf81R3wQVuw8PT/BUHCMsoYapXAoiKdJbOaCUAD
rhc+6K2qhdzgY4IcjiKO3kd6br2C970T09V4+ABIXT5LCDvl5zGqpC3b5/9qSXC0
9AGUOmoXRTkeziVlgqZ/WMPrtgmcI4nRGpprucqpAo42maX5dWdgh+N2X8OCSGvR
qt1dL2WzA79TfBcyAR9o8YpNJxtAZLDzu+1p5lCiJCAcNBGb6UusUIdkjX+P8cJd
Dv/TlJXQOWiogPvN98gjaqyEMu3rzl7KHvEBjA+CTKCpCdfc38WnFap1vFvRBXf5
+comsz5v3b9QVILFVNc257G69axV0L+/lpFPMH+aAuHFL6hY2/C7T7vm+UcQwRbz
axSvdBPJmC8eGgVTznwDdxpEcopRublZwVHTTRInkGoX7UxwA10c8ja3griO/+oF
WwIDAQABo4IBYzCCAV8wCQYDVR0TBAIwADAtBglghkgBhvhCAQ0EIBYeRWFzeS1S
U0EgR2VuZXJhdGVkIENlcnRpZmljYXRlMB0GA1UdDgQWBBSrp/6Quymlc4hqPNxz
1Tdi/XyuKjCB4QYDVR0jBIHZMIHWgBQSzWAE0qCAnnDtxpm4eyzGUv0ZoaGBsqSB
rzCBrDELMAkGA1UEBhMCVVMxCzAJBgNVBAgTAk9IMREwDwYDVQQHEwhDb2x1bWJ1
czESMBAGA1UEChMJVmlraW5nVlBOMR0wGwYDVQQLExRNeU9yZ2FuaXphdGlvbmFs
VW5pdDEVMBMGA1UEAxMMVmlraW5nVlBOIENBMRAwDgYDVQQpEwdFYXN5UlNBMSEw
HwYJKoZIhvcNAQkBFhJtZUBteWhvc3QubXlkb21haW6CCQDPNYXugL8qPjATBgNV
HSUEDDAKBggrBgEFBQcDAjALBgNVHQ8EBAMCB4AwDQYJKoZIhvcNAQELBQADggIB
AOrgFOd264yUlbYBdYeYwELM67uoMyhJ4c3+Dg/KFdC9GrKeaU0YRnRCA+DqCta2
Ffyg5gXJJj4WJNTxtRyRxbzJVPfvEdOV7VmHBdqttB6owhjOqXG0mRE8r0zgltzX
JzA1fPZagX9qoQ6CZMqSzgkVK5559lAh/oni6hqq9wauKI7E1x10WQfNFi+/OZIt
kH2A4zRD+kB1/+M0VwHcP2E2nGrKNqrC1Tx0/xnpbI8NjEyvqm+Earb3hLtw2lY/
zNwmeMuj/Kx1ssV/vkcDMNh9gTkTKn5QDeU/IsiPO7yYr7rkJbX63lUrAzitS7LY
Uzvjf75qugrxGvD8I7TKrqTFkUN199Q3R5+35/SddYvIcEJjpsAHYKgSyndAQcra
6It6OdmAJsPUrXBaZ5PUVJFztsPNBnCs7rG09wR8IZZENEYYNtuQYFpINjrVVE3R
EH89CTZuHOU2QHTXSJCUESqHdqSBS94ITbDnFvy1sDbzAo+XdJkRU4xlQsXAfsXT
TAKq2x2A/3Q+1o8f6lb0NLmeg2s3U8xyfphfKhaAu2M1ogjHSJlImX67z4sRXixb
Oj6QEphrH+UQfMGWG1+PSgkSP7sAnaUM8pzBfu2UbC9SJl1ZuEjFu75kI9iektLv
eSitqI1avgVyqjwKI6rLA3Q5pr6iQHuvbS+CROd3eUHp
-----END CERTIFICATE-----
