Certificate:
    Data:
        Version: 3 (0x2)
        Serial Number: 10318 (0x284e)
    Signature Algorithm: sha256WithRSAEncryption
        Issuer: C=US, ST=OH, L=Columbus, O=VikingVPN, OU=MyOrganizationalUnit, CN=VikingVPN CA/name=EasyRSA/emailAddress=me@myhost.mydomain
        Validity
            Not Before: Mar 17 05:57:16 2017 GMT
            Not After : Mar 15 05:57:16 2027 GMT
        Subject: CN=Client2693Certdc4fe1
        Subject Public Key Info:
            Public Key Algorithm: rsaEncryption
                Public-Key: (4096 bit)
                Modulus:
                    00:b1:6f:b0:26:f9:cd:f4:95:b6:78:d4:52:80:15:
                    0b:f1:40:c7:42:cb:0b:f5:80:da:63:92:bb:cd:bb:
                    ad:8f:c6:1c:2d:45:83:0f:83:92:72:a9:b4:c8:af:
                    2b:1c:50:e5:af:4c:61:dd:18:99:d8:24:74:9b:5e:
                    d5:9a:7a:70:1f:98:e7:b2:f6:a3:86:21:49:c4:9b:
                    56:d6:e4:38:93:a1:8f:34:aa:7f:27:cc:4e:1f:e5:
                    54:2d:a4:be:4d:b8:92:ed:e8:08:8d:bf:bc:02:58:
                    8f:99:48:0f:df:9d:59:b2:27:0b:94:5c:dd:19:be:
                    a1:79:09:42:eb:a9:df:d5:57:7c:97:a8:3c:b3:6c:
                    ad:99:f5:ee:a3:d0:21:4c:dc:c6:f3:a7:39:5e:7f:
                    6c:65:75:8d:5b:17:e1:2f:2b:61:f8:33:9a:2b:39:
                    84:d1:07:17:87:a1:d4:5b:d9:30:09:90:2a:09:fd:
                    d2:46:c8:38:6f:f2:74:7b:6d:31:1c:97:93:42:89:
                    c1:b8:c3:ee:9e:b6:03:f4:91:e6:b2:86:47:b3:d9:
                    23:ad:e4:e4:5f:b9:c1:63:11:97:62:3a:2d:ed:0f:
                    5b:e9:66:72:44:55:92:2f:eb:c7:47:4f:f4:fa:84:
                    8b:cc:3b:2f:3c:5d:59:40:71:0e:56:93:1b:09:78:
                    d8:8f:80:d8:62:07:4d:d5:a3:fe:db:a9:e8:34:fb:
                    9a:3e:74:fe:b1:00:8c:fb:44:93:9e:3c:d8:e1:e3:
                    d0:47:34:0e:b3:c7:95:1a:ff:f0:40:16:dd:bd:a0:
                    7b:8b:3a:ff:69:36:52:f8:48:fb:53:7e:4b:e4:4e:
                    f8:17:01:92:a3:9c:44:69:27:62:bf:09:50:72:ac:
                    99:08:1a:f5:d6:d7:1d:03:9c:a9:71:a3:c2:5f:46:
                    f5:dc:6b:f4:11:f5:35:88:38:08:be:9a:e3:16:2f:
                    fa:10:ab:f1:34:15:61:83:f8:f9:96:16:95:eb:74:
                    de:8e:a0:0e:7e:97:4d:cd:4b:e7:6f:8b:35:6c:3d:
                    26:46:e3:f5:9e:dd:49:dc:40:c4:84:a8:85:93:07:
                    3b:0e:25:5c:f9:13:e2:20:f7:58:b8:e1:d2:af:af:
                    4f:4a:89:ba:fb:77:a2:51:36:bd:4b:de:28:fb:d3:
                    6c:08:5c:9d:58:da:75:83:6f:88:4b:86:c3:77:d4:
                    44:dc:54:ca:4b:60:2e:97:38:f6:52:dc:d9:18:8d:
                    20:37:23:af:ea:d5:96:c7:4b:ff:56:7c:87:a5:49:
                    bf:2f:de:94:a9:e8:b8:25:31:0f:5e:4c:6c:2e:0a:
                    25:38:50:6a:6d:90:ed:11:3e:b2:5f:39:fd:0f:ee:
                    55:8c:e3
                Exponent: 65537 (0x10001)
        X509v3 extensions:
            X509v3 Basic Constraints: 
                CA:FALSE
            Netscape Comment: 
                Easy-RSA Generated Certificate
            X509v3 Subject Key Identifier: 
                84:4E:2C:7E:3F:86:1A:E2:01:81:42:E3:3C:3E:F8:D1:D1:D9:30:D9
            X509v3 Authority Key Identifier: 
                keyid:12:CD:60:04:D2:A0:80:9E:70:ED:C6:99:B8:7B:2C:C6:52:FD:19:A1
                DirName:/C=US/ST=OH/L=Columbus/O=VikingVPN/OU=MyOrganizationalUnit/CN=VikingVPN CA/name=EasyRSA/emailAddress=me@myhost.mydomain
                serial:CF:35:85:EE:80:BF:2A:3E

            X509v3 Extended Key Usage: 
                TLS Web Client Authentication
            X509v3 Key Usage: 
                Digital Signature
    Signature Algorithm: sha256WithRSAEncryption
         8a:7b:96:09:2c:fb:29:41:cb:4b:cd:87:d7:60:bc:51:8e:ab:
         14:72:f0:70:6e:ee:5d:c4:e0:4e:b2:7a:63:f8:3c:40:7a:09:
         65:f3:40:16:c1:46:7f:01:3b:32:cc:56:ea:72:ef:65:26:91:
         b6:2a:3d:76:6a:a4:6b:ee:f6:fe:22:dd:bc:81:d6:f7:c8:37:
         07:a3:d8:78:3f:a9:a3:d6:d6:0d:79:0d:dc:cb:af:39:d3:d4:
         36:97:10:d9:7c:a3:9a:5d:51:36:fd:ff:24:79:b7:c8:87:49:
         83:64:58:48:37:52:c6:66:f4:5e:38:0c:15:20:34:8a:3b:5f:
         26:62:89:51:d8:e6:96:28:db:ed:0c:17:e9:95:5b:9d:04:81:
         6e:56:cb:4d:bf:b5:0a:74:a2:5a:ed:59:12:2d:2c:50:21:a3:
         39:da:a5:8e:6a:11:a2:22:5d:94:c1:67:d4:14:48:fd:45:1b:
         75:8a:5f:1d:9e:03:6c:f2:45:e5:df:9f:28:62:bf:55:2d:63:
         5b:73:a3:ff:92:1a:9a:58:20:7f:05:18:17:8a:dc:c0:14:f2:
         72:3d:08:54:50:f9:68:58:ea:39:a6:d5:fe:cc:d2:70:65:f6:
         1f:da:dd:19:32:20:e2:eb:1a:72:a9:8c:17:9d:1d:b7:76:d2:
         c6:2c:df:26:45:8e:0f:58:ea:85:9f:80:7e:48:49:fb:e5:7b:
         16:83:10:86:25:c5:64:b6:05:70:55:97:01:54:5c:a4:60:b4:
         86:5d:80:ca:d7:90:a3:6d:7a:53:64:8f:89:24:9e:73:8a:c9:
         95:c9:30:16:3e:a8:b7:9b:da:1c:19:8c:fb:68:4f:15:b3:fa:
         25:ae:65:10:ff:ca:a3:40:69:ae:6c:39:e2:fb:24:6a:be:9e:
         a5:04:a3:d4:1e:09:38:6e:06:02:1e:7c:05:d7:e9:fd:74:de:
         38:ae:14:0f:2a:88:e1:d3:a8:f5:8c:6e:50:63:a9:ce:70:dc:
         38:6b:28:3b:a3:90:cd:b0:af:db:d9:8f:25:5d:cd:c6:e7:8a:
         f7:83:96:c1:03:c3:1c:a5:a2:12:ee:1a:ae:0a:4e:b9:5c:fe:
         53:c3:0a:7d:9d:7d:2b:dd:44:d0:0e:ff:21:27:bb:41:10:ac:
         d5:7d:31:2e:08:a3:3b:e6:07:de:ee:bd:13:e3:7e:c9:00:8f:
         a5:cc:c1:bc:71:0b:c6:ad:30:b9:7c:1e:5e:86:ca:34:3d:e9:
         ca:f5:f7:76:61:4d:86:f0:00:23:ac:b1:13:d5:85:64:63:2a:
         8f:37:a6:62:0e:d7:55:37:3e:69:8b:42:81:4c:83:c2:26:36:
         dc:83:26:e3:d3:f1:78:dc
-----BEGIN CERTIFICATE-----
MIIGrTCCBJWgAwIBAgICKE4wDQYJKoZIhvcNAQELBQAwgawxCzAJBgNVBAYTAlVT
MQswCQYDVQQIEwJPSDERMA8GA1UEBxMIQ29sdW1idXMxEjAQBgNVBAoTCVZpa2lu
Z1ZQTjEdMBsGA1UECxMUTXlPcmdhbml6YXRpb25hbFVuaXQxFTATBgNVBAMTDFZp
a2luZ1ZQTiBDQTEQMA4GA1UEKRMHRWFzeVJTQTEhMB8GCSqGSIb3DQEJARYSbWVA
bXlob3N0Lm15ZG9tYWluMB4XDTE3MDMxNzA1NTcxNloXDTI3MDMxNTA1NTcxNlow
HzEdMBsGA1UEAxMUQ2xpZW50MjY5M0NlcnRkYzRmZTEwggIiMA0GCSqGSIb3DQEB
AQUAA4ICDwAwggIKAoICAQCxb7Am+c30lbZ41FKAFQvxQMdCywv1gNpjkrvNu62P
xhwtRYMPg5JyqbTIryscUOWvTGHdGJnYJHSbXtWaenAfmOey9qOGIUnEm1bW5DiT
oY80qn8nzE4f5VQtpL5NuJLt6AiNv7wCWI+ZSA/fnVmyJwuUXN0ZvqF5CULrqd/V
V3yXqDyzbK2Z9e6j0CFM3Mbzpzlef2xldY1bF+EvK2H4M5orOYTRBxeHodRb2TAJ
kCoJ/dJGyDhv8nR7bTEcl5NCicG4w+6etgP0keayhkez2SOt5ORfucFjEZdiOi3t
D1vpZnJEVZIv68dHT/T6hIvMOy88XVlAcQ5WkxsJeNiPgNhiB03Vo/7bqeg0+5o+
dP6xAIz7RJOePNjh49BHNA6zx5Ua//BAFt29oHuLOv9pNlL4SPtTfkvkTvgXAZKj
nERpJ2K/CVByrJkIGvXW1x0DnKlxo8JfRvXca/QR9TWIOAi+muMWL/oQq/E0FWGD
+PmWFpXrdN6OoA5+l03NS+dvizVsPSZG4/We3UncQMSEqIWTBzsOJVz5E+Ig91i4
4dKvr09Kibr7d6JRNr1L3ij702wIXJ1Y2nWDb4hLhsN31ETcVMpLYC6XOPZS3NkY
jSA3I6/q1ZbHS/9WfIelSb8v3pSp6LglMQ9eTGwuCiU4UGptkO0RPrJfOf0P7lWM
4wIDAQABo4IBYzCCAV8wCQYDVR0TBAIwADAtBglghkgBhvhCAQ0EIBYeRWFzeS1S
U0EgR2VuZXJhdGVkIENlcnRpZmljYXRlMB0GA1UdDgQWBBSETix+P4Ya4gGBQuM8
PvjR0dkw2TCB4QYDVR0jBIHZMIHWgBQSzWAE0qCAnnDtxpm4eyzGUv0ZoaGBsqSB
rzCBrDELMAkGA1UEBhMCVVMxCzAJBgNVBAgTAk9IMREwDwYDVQQHEwhDb2x1bWJ1
czESMBAGA1UEChMJVmlraW5nVlBOMR0wGwYDVQQLExRNeU9yZ2FuaXphdGlvbmFs
VW5pdDEVMBMGA1UEAxMMVmlraW5nVlBOIENBMRAwDgYDVQQpEwdFYXN5UlNBMSEw
HwYJKoZIhvcNAQkBFhJtZUBteWhvc3QubXlkb21haW6CCQDPNYXugL8qPjATBgNV
HSUEDDAKBggrBgEFBQcDAjALBgNVHQ8EBAMCB4AwDQYJKoZIhvcNAQELBQADggIB
AIp7lgks+ylBy0vNh9dgvFGOqxRy8HBu7l3E4E6yemP4PEB6CWXzQBbBRn8BOzLM
Vupy72UmkbYqPXZqpGvu9v4i3byB1vfINwej2Hg/qaPW1g15DdzLrznT1DaXENl8
o5pdUTb9/yR5t8iHSYNkWEg3UsZm9F44DBUgNIo7XyZiiVHY5pYo2+0MF+mVW50E
gW5Wy02/tQp0olrtWRItLFAhoznapY5qEaIiXZTBZ9QUSP1FG3WKXx2eA2zyReXf
nyhiv1UtY1tzo/+SGppYIH8FGBeK3MAU8nI9CFRQ+WhY6jmm1f7M0nBl9h/a3Rky
IOLrGnKpjBedHbd20sYs3yZFjg9Y6oWfgH5ISfvlexaDEIYlxWS2BXBVlwFUXKRg
tIZdgMrXkKNtelNkj4kknnOKyZXJMBY+qLeb2hwZjPtoTxWz+iWuZRD/yqNAaa5s
OeL7JGq+nqUEo9QeCThuBgIefAXX6f103jiuFA8qiOHTqPWMblBjqc5w3DhrKDuj
kM2wr9vZjyVdzcbniveDlsEDwxylohLuGq4KTrlc/lPDCn2dfSvdRNAO/yEnu0EQ
rNV9MS4IozvmB97uvRPjfskAj6XMwbxxC8atMLl8Hl6GyjQ96cr193ZhTYbwACOs
sRPVhWRjKo83pmIO11U3PmmLQoFMg8ImNtyDJuPT8Xjc
-----END CERTIFICATE-----
