Certificate:
    Data:
        Version: 3 (0x2)
        Serial Number: 10339 (0x2863)
    Signature Algorithm: sha256WithRSAEncryption
        Issuer: C=US, ST=OH, L=Columbus, O=VikingVPN, OU=MyOrganizationalUnit, CN=VikingVPN CA/name=EasyRSA/emailAddress=me@myhost.mydomain
        Validity
            Not Before: Mar 20 01:27:24 2017 GMT
            Not After : Mar 18 01:27:24 2027 GMT
        Subject: CN=Client2719Certdfbfec
        Subject Public Key Info:
            Public Key Algorithm: rsaEncryption
                Public-Key: (4096 bit)
                Modulus:
                    00:b7:4d:f1:a9:14:5f:41:95:87:eb:b0:ab:e0:4d:
                    12:fe:1b:0e:bc:c0:38:d5:be:62:fd:f9:22:85:76:
                    02:3c:3c:96:f9:fd:c2:35:23:e3:4b:13:61:a7:a4:
                    98:5e:9e:32:0c:db:86:9c:a4:a8:f6:3b:75:17:f5:
                    68:82:8c:ec:3d:6e:28:a4:23:b7:0a:12:d3:d8:1d:
                    9c:31:07:e3:fd:76:84:2e:66:e7:46:d0:78:75:eb:
                    7a:03:50:8a:c5:fa:5d:7e:c2:50:c8:4d:69:4a:5d:
                    26:0f:1a:71:4e:54:d2:9d:3b:72:01:dd:c7:96:a0:
                    59:dd:a1:46:e5:44:6f:23:83:45:a5:75:ae:93:9f:
                    8f:25:66:bf:90:2c:12:98:51:d7:a4:f0:9d:2d:1f:
                    74:fb:18:71:ac:a5:12:f7:14:d7:64:02:a1:1f:42:
                    68:18:91:3c:d7:28:5f:c5:65:91:7a:a2:d0:e4:d8:
                    8f:d9:e1:1a:37:2d:1d:d9:c7:05:ff:37:b4:09:0a:
                    5e:4e:2d:e6:22:0b:6b:a9:6e:81:97:df:b8:d4:5e:
                    c4:a7:e7:87:5f:7c:50:8e:bc:b0:f3:b9:07:f7:c5:
                    02:66:a7:e7:28:67:98:2f:8a:6b:e7:f9:a9:7e:27:
                    1a:64:92:b3:d5:c5:68:e3:2a:3e:ef:08:f9:30:b2:
                    80:24:9a:bf:e4:3e:53:f6:29:71:33:ca:f1:8d:5d:
                    db:81:d6:0b:74:76:8a:42:f2:d3:17:34:8a:21:d5:
                    1f:eb:ff:97:b8:b3:42:c7:16:b8:ca:83:4f:9f:74:
                    e9:c6:d4:62:36:32:18:2f:2b:69:18:1c:b8:dc:13:
                    bd:fe:02:61:f5:1d:29:e2:8d:9c:ea:21:e8:7c:5e:
                    ab:12:7b:da:e1:9a:3d:f5:c5:80:1a:bf:62:3d:3e:
                    74:e0:45:06:75:b6:b4:4e:c0:7e:83:74:05:41:01:
                    b4:da:a5:0d:08:cc:6b:f6:d7:8d:be:53:0e:a9:6a:
                    05:b4:f8:3b:a7:b3:36:de:5b:8a:61:81:74:af:20:
                    27:72:56:74:84:72:4e:92:8d:d8:24:5d:dc:31:f2:
                    90:c8:2d:f8:73:8d:e2:2d:fc:f1:98:1c:03:16:3d:
                    18:e1:83:ee:a1:e2:10:28:2a:cc:a5:9e:41:31:17:
                    51:b9:fe:ac:34:0d:14:b0:9d:9c:4d:fb:c0:21:ff:
                    be:ed:b5:8d:33:53:34:d0:63:7b:7f:6d:63:16:8b:
                    71:66:87:a9:95:bf:98:77:e3:f3:11:6b:d7:77:d8:
                    9b:99:18:dc:3b:d8:bf:91:af:05:5e:05:c0:9b:d6:
                    47:70:01:12:5f:fc:0d:e4:4d:1d:5b:98:d1:52:9b:
                    e3:c1:d1
                Exponent: 65537 (0x10001)
        X509v3 extensions:
            X509v3 Basic Constraints: 
                CA:FALSE
            Netscape Comment: 
                Easy-RSA Generated Certificate
            X509v3 Subject Key Identifier: 
                96:C8:97:42:9E:6D:3C:F2:1C:7E:0D:77:BB:7C:33:08:14:46:BD:BA
            X509v3 Authority Key Identifier: 
                keyid:12:CD:60:04:D2:A0:80:9E:70:ED:C6:99:B8:7B:2C:C6:52:FD:19:A1
                DirName:/C=US/ST=OH/L=Columbus/O=VikingVPN/OU=MyOrganizationalUnit/CN=VikingVPN CA/name=EasyRSA/emailAddress=me@myhost.mydomain
                serial:CF:35:85:EE:80:BF:2A:3E

            X509v3 Extended Key Usage: 
                TLS Web Client Authentication
            X509v3 Key Usage: 
                Digital Signature
    Signature Algorithm: sha256WithRSAEncryption
         1d:aa:11:4d:09:e5:ac:d3:68:ae:06:98:a4:4c:37:64:52:e6:
         f9:99:ae:3a:e3:68:2a:35:62:97:38:35:61:56:ef:92:00:c5:
         61:0a:8c:99:52:4b:e9:5b:df:78:30:45:49:d6:a9:8b:87:5f:
         ae:a7:8f:ec:57:e5:12:a6:a7:fd:c2:ce:78:df:63:e5:52:49:
         16:da:bb:19:75:d4:91:67:6b:5b:64:b2:b4:85:b2:d2:8a:2c:
         55:f3:09:ac:d9:14:06:70:3c:15:7a:5b:a9:03:c7:6a:d3:fe:
         da:dd:93:63:b0:a4:c3:5d:82:65:0a:b0:df:3f:71:ac:00:14:
         57:28:29:f3:a7:4b:5f:bb:b2:b6:31:cb:34:a9:39:58:8d:50:
         f1:14:03:93:52:c5:f4:b3:c8:94:f6:70:5f:3a:e2:df:6d:c6:
         4f:f1:1b:2a:64:b1:e6:98:d6:92:d6:82:3f:b9:3f:40:ac:b9:
         78:72:d1:37:a9:18:48:e8:93:0e:21:86:68:60:b6:c7:6d:2e:
         d6:ab:d6:61:ec:8f:19:2f:5c:46:0f:bc:e4:60:02:37:cd:ec:
         6c:6d:87:46:9d:4e:5d:6b:c8:d8:89:30:d7:b7:b3:04:3e:7c:
         9b:f5:e2:25:9d:66:6c:97:ef:ab:5e:73:b7:1c:16:11:5d:30:
         56:8b:e2:97:71:7b:ad:c1:73:3c:65:96:7f:3a:ff:4a:7c:74:
         e2:fe:b4:35:3c:76:10:58:c6:f9:d2:3b:05:9b:31:af:24:57:
         12:c8:e0:9f:87:a5:c0:38:1d:fc:7a:22:53:ee:a0:3d:a2:8e:
         33:92:c0:fc:b5:d4:18:72:a7:82:de:88:b8:47:9b:6f:1d:7f:
         d0:ad:c4:d9:28:29:bf:24:b7:b5:bf:2d:1f:5d:06:d6:b8:a1:
         fc:51:66:a4:ef:55:55:2e:2f:83:a2:1a:eb:86:e4:8d:ca:42:
         a8:cf:dd:7d:a7:eb:ef:7d:53:07:3b:30:d7:82:23:ce:59:e6:
         4c:be:9d:de:50:3b:f9:cc:c2:73:d3:69:4d:85:82:e7:4c:1c:
         f8:15:36:a9:e7:11:c1:32:0e:04:eb:7c:2d:0b:67:63:69:b5:
         6f:1d:59:b2:dc:66:8c:37:b1:b2:22:e8:3d:df:c1:22:b3:85:
         19:37:35:81:dd:a0:99:c0:93:a9:96:f0:9a:63:d5:a5:7d:e7:
         00:e0:15:ef:70:32:25:12:da:ab:44:b7:e9:15:9f:4a:f6:5c:
         35:b5:54:c7:c7:a0:65:84:bf:12:b7:26:bb:d8:32:48:7e:87:
         bc:36:dc:39:5d:30:66:48:c6:7b:8f:c0:ff:8e:01:64:e7:31:
         9a:26:d9:49:8a:af:7c:b6
-----BEGIN CERTIFICATE-----
MIIGrTCCBJWgAwIBAgICKGMwDQYJKoZIhvcNAQELBQAwgawxCzAJBgNVBAYTAlVT
MQswCQYDVQQIEwJPSDERMA8GA1UEBxMIQ29sdW1idXMxEjAQBgNVBAoTCVZpa2lu
Z1ZQTjEdMBsGA1UECxMUTXlPcmdhbml6YXRpb25hbFVuaXQxFTATBgNVBAMTDFZp
a2luZ1ZQTiBDQTEQMA4GA1UEKRMHRWFzeVJTQTEhMB8GCSqGSIb3DQEJARYSbWVA
bXlob3N0Lm15ZG9tYWluMB4XDTE3MDMyMDAxMjcyNFoXDTI3MDMxODAxMjcyNFow
HzEdMBsGA1UEAxMUQ2xpZW50MjcxOUNlcnRkZmJmZWMwggIiMA0GCSqGSIb3DQEB
AQUAA4ICDwAwggIKAoICAQC3TfGpFF9BlYfrsKvgTRL+Gw68wDjVvmL9+SKFdgI8
PJb5/cI1I+NLE2GnpJhenjIM24acpKj2O3UX9WiCjOw9biikI7cKEtPYHZwxB+P9
doQuZudG0Hh163oDUIrF+l1+wlDITWlKXSYPGnFOVNKdO3IB3ceWoFndoUblRG8j
g0Wlda6Tn48lZr+QLBKYUdek8J0tH3T7GHGspRL3FNdkAqEfQmgYkTzXKF/FZZF6
otDk2I/Z4Ro3LR3ZxwX/N7QJCl5OLeYiC2upboGX37jUXsSn54dffFCOvLDzuQf3
xQJmp+coZ5gvimvn+al+JxpkkrPVxWjjKj7vCPkwsoAkmr/kPlP2KXEzyvGNXduB
1gt0dopC8tMXNIoh1R/r/5e4s0LHFrjKg0+fdOnG1GI2MhgvK2kYHLjcE73+AmH1
HSnijZzqIeh8XqsSe9rhmj31xYAav2I9PnTgRQZ1trROwH6DdAVBAbTapQ0IzGv2
142+Uw6pagW0+DunszbeW4phgXSvICdyVnSEck6SjdgkXdwx8pDILfhzjeIt/PGY
HAMWPRjhg+6h4hAoKsylnkExF1G5/qw0DRSwnZxN+8Ah/77ttY0zUzTQY3t/bWMW
i3Fmh6mVv5h34/MRa9d32JuZGNw72L+RrwVeBcCb1kdwARJf/A3kTR1bmNFSm+PB
0QIDAQABo4IBYzCCAV8wCQYDVR0TBAIwADAtBglghkgBhvhCAQ0EIBYeRWFzeS1S
U0EgR2VuZXJhdGVkIENlcnRpZmljYXRlMB0GA1UdDgQWBBSWyJdCnm088hx+DXe7
fDMIFEa9ujCB4QYDVR0jBIHZMIHWgBQSzWAE0qCAnnDtxpm4eyzGUv0ZoaGBsqSB
rzCBrDELMAkGA1UEBhMCVVMxCzAJBgNVBAgTAk9IMREwDwYDVQQHEwhDb2x1bWJ1
czESMBAGA1UEChMJVmlraW5nVlBOMR0wGwYDVQQLExRNeU9yZ2FuaXphdGlvbmFs
VW5pdDEVMBMGA1UEAxMMVmlraW5nVlBOIENBMRAwDgYDVQQpEwdFYXN5UlNBMSEw
HwYJKoZIhvcNAQkBFhJtZUBteWhvc3QubXlkb21haW6CCQDPNYXugL8qPjATBgNV
HSUEDDAKBggrBgEFBQcDAjALBgNVHQ8EBAMCB4AwDQYJKoZIhvcNAQELBQADggIB
AB2qEU0J5azTaK4GmKRMN2RS5vmZrjrjaCo1Ypc4NWFW75IAxWEKjJlSS+lb33gw
RUnWqYuHX66nj+xX5RKmp/3CznjfY+VSSRbauxl11JFna1tksrSFstKKLFXzCazZ
FAZwPBV6W6kDx2rT/trdk2OwpMNdgmUKsN8/cawAFFcoKfOnS1+7srYxyzSpOViN
UPEUA5NSxfSzyJT2cF864t9txk/xGypkseaY1pLWgj+5P0CsuXhy0TepGEjokw4h
hmhgtsdtLtar1mHsjxkvXEYPvORgAjfN7Gxth0adTl1ryNiJMNe3swQ+fJv14iWd
ZmyX76tec7ccFhFdMFaL4pdxe63Bczxlln86/0p8dOL+tDU8dhBYxvnSOwWbMa8k
VxLI4J+HpcA4Hfx6IlPuoD2ijjOSwPy11Bhyp4LeiLhHm28df9CtxNkoKb8kt7W/
LR9dBta4ofxRZqTvVVUuL4OiGuuG5I3KQqjP3X2n6+99Uwc7MNeCI85Z5ky+nd5Q
O/nMwnPTaU2FgudMHPgVNqnnEcEyDgTrfC0LZ2NptW8dWbLcZow3sbIi6D3fwSKz
hRk3NYHdoJnAk6mW8Jpj1aV95wDgFe9wMiUS2qtEt+kVn0r2XDW1VMfHoGWEvxK3
JrvYMkh+h7w23DldMGZIxnuPwP+OAWTnMZom2UmKr3y2
-----END CERTIFICATE-----
