Certificate:
    Data:
        Version: 3 (0x2)
        Serial Number: 10341 (0x2865)
    Signature Algorithm: sha256WithRSAEncryption
        Issuer: C=US, ST=OH, L=Columbus, O=VikingVPN, OU=MyOrganizationalUnit, CN=VikingVPN CA/name=EasyRSA/emailAddress=me@myhost.mydomain
        Validity
            Not Before: Mar 20 02:01:01 2017 GMT
            Not After : Mar 18 02:01:01 2027 GMT
        Subject: CN=Client2719Certbdd930
        Subject Public Key Info:
            Public Key Algorithm: rsaEncryption
                Public-Key: (4096 bit)
                Modulus:
                    00:b7:93:dd:52:a4:1f:22:f1:61:49:9d:84:58:33:
                    5e:64:73:19:d3:5d:34:4a:bc:db:51:43:ec:c4:96:
                    75:63:fc:e6:29:e6:b4:d8:8f:fe:fc:00:f2:a6:e7:
                    79:d2:62:60:c9:b6:4f:70:60:34:21:39:3a:7a:4c:
                    f0:ba:da:da:1a:96:d8:81:6f:25:e2:1e:07:ab:b2:
                    97:93:44:ba:f6:73:62:08:7c:02:b9:74:5b:37:7c:
                    74:dd:44:d2:43:ea:52:85:3c:a7:d0:d6:03:6f:b5:
                    9b:fe:27:7b:17:8a:31:c1:09:f6:e2:41:f0:1f:f4:
                    7e:3f:64:78:8f:c7:87:60:91:cf:3b:39:52:63:7c:
                    2b:78:54:37:e7:d3:07:da:91:73:1e:ab:2a:cd:47:
                    fd:e8:93:84:0e:f4:b8:be:f0:e8:51:d2:ad:5d:c0:
                    ea:f6:66:ca:b0:f4:e2:fa:d6:a7:b0:00:49:91:01:
                    7a:7a:6d:f3:8e:fe:61:2f:ce:33:b4:7a:e5:d7:d3:
                    5a:b3:6f:a6:f3:f3:a0:90:a1:62:bc:87:f8:de:4c:
                    8f:85:8c:02:ed:04:2e:0e:6b:cd:ac:ad:9d:72:17:
                    f5:8d:05:0a:53:03:52:0a:a2:8b:a7:3c:bb:48:f2:
                    35:1c:18:15:e7:31:24:dc:1a:30:5c:87:66:2d:64:
                    11:f2:c5:86:a3:00:d4:3b:9a:74:c1:33:31:4f:69:
                    4f:b9:67:be:92:de:82:9e:64:6d:80:7f:7f:0a:e6:
                    1a:4e:a2:c4:77:f3:39:05:94:c5:b0:31:97:b2:34:
                    6e:10:85:3d:58:6e:cf:b1:d3:42:e5:d5:58:72:fc:
                    e5:bf:f8:1d:a0:81:8a:fb:cd:34:76:bc:4f:97:ea:
                    03:02:ab:9d:59:ec:51:96:40:66:19:77:25:f3:f2:
                    a0:a9:7b:a7:b9:14:89:a6:7e:9a:72:d1:69:00:36:
                    21:d5:62:c4:86:c4:4a:49:88:ef:d6:a6:f4:5a:d4:
                    5b:27:22:10:23:c7:69:1d:df:88:0c:65:54:11:86:
                    63:36:6f:71:15:56:a0:11:bb:14:45:9d:37:26:29:
                    43:d5:1d:bb:9e:d0:54:94:88:43:4b:ff:d8:30:a0:
                    ec:97:fd:5d:6f:62:63:ad:77:76:b8:10:ff:dd:e5:
                    26:1d:e9:51:01:2a:19:81:ff:56:b6:ea:4e:23:ab:
                    1c:44:90:c7:82:ad:51:78:cc:70:fd:ff:bd:c1:78:
                    1b:3d:d4:cd:56:16:d6:2e:6a:88:a2:6d:5b:81:92:
                    13:7e:bf:4a:8d:b7:e4:99:56:1a:ca:35:3c:2a:23:
                    6a:78:1b:c9:eb:68:73:06:5f:29:e6:bd:f2:28:0e:
                    7f:21:0d
                Exponent: 65537 (0x10001)
        X509v3 extensions:
            X509v3 Basic Constraints: 
                CA:FALSE
            Netscape Comment: 
                Easy-RSA Generated Certificate
            X509v3 Subject Key Identifier: 
                BA:38:B9:EC:AB:36:3A:B6:6A:EE:B2:E6:C2:2F:E6:1F:49:E9:32:6E
            X509v3 Authority Key Identifier: 
                keyid:12:CD:60:04:D2:A0:80:9E:70:ED:C6:99:B8:7B:2C:C6:52:FD:19:A1
                DirName:/C=US/ST=OH/L=Columbus/O=VikingVPN/OU=MyOrganizationalUnit/CN=VikingVPN CA/name=EasyRSA/emailAddress=me@myhost.mydomain
                serial:CF:35:85:EE:80:BF:2A:3E

            X509v3 Extended Key Usage: 
                TLS Web Client Authentication
            X509v3 Key Usage: 
                Digital Signature
    Signature Algorithm: sha256WithRSAEncryption
         e8:e0:e4:03:a8:5b:3f:9f:88:43:bc:55:a0:e3:ae:b0:07:88:
         58:52:41:0d:61:60:51:57:e8:8b:f1:72:6b:51:fe:ad:42:8e:
         d4:c5:3c:d9:1d:5c:64:f4:54:da:95:17:b6:7d:58:fc:b7:44:
         0d:79:e2:fd:ea:7b:92:6f:2b:8a:c4:96:71:c4:b3:0b:ee:38:
         c6:02:63:a7:f1:f5:2e:29:4d:f2:7b:de:3e:3f:40:5c:01:0d:
         8c:86:3d:56:bb:00:bf:a1:df:1a:50:2a:85:33:52:25:00:36:
         e1:4b:b0:45:80:b5:8e:9f:ee:6b:6b:b9:d0:18:02:43:d9:71:
         f3:25:8d:0a:06:97:5b:62:1f:3e:d9:d4:6d:73:64:94:c8:b7:
         5f:05:6f:9c:b0:92:ef:96:0b:31:2b:d6:cb:e0:81:61:ff:c0:
         1e:c2:73:f1:6d:3d:c0:44:49:88:e0:0f:93:f7:9e:97:d8:c4:
         4c:6f:58:81:c9:aa:89:cd:7d:c9:0d:48:9b:14:71:f9:d9:8c:
         38:10:28:75:75:61:21:30:13:3c:cc:26:04:ed:d1:2e:b1:9a:
         35:71:48:6c:6f:a3:9a:59:16:57:b5:75:a3:8f:d1:21:9d:0e:
         c5:e0:d9:b8:cd:74:65:09:44:9e:8d:ed:02:70:53:82:fb:97:
         b6:17:a5:70:ad:bf:79:3a:83:17:09:7b:96:99:93:6b:ea:a7:
         f5:88:75:22:94:ff:fd:33:79:7b:d8:5a:a2:03:10:68:fd:b5:
         de:d9:ef:60:22:f4:e7:c7:b7:34:ad:2c:01:49:c0:a4:b0:31:
         ee:90:d6:9a:59:b3:4c:b7:e3:f0:b9:f0:f6:61:71:3b:2d:9b:
         23:0f:91:e7:69:79:84:ed:f4:28:1c:8d:15:65:1d:d4:13:5e:
         e2:e7:80:12:f1:61:35:9b:fd:17:28:61:d3:77:c7:76:66:37:
         67:21:21:50:4b:bc:55:0d:0a:10:0d:ab:bc:4d:fc:3b:5d:c1:
         14:c3:32:cb:c0:80:34:20:63:e4:70:77:17:62:3e:27:4e:f0:
         ee:08:0f:55:fa:a4:1c:8c:1d:4b:64:91:bc:13:8d:34:28:86:
         74:c3:5c:c2:c9:1a:54:75:07:bf:75:90:02:c5:84:21:7f:71:
         c7:f1:f5:d4:59:1c:a7:4f:50:21:e4:86:ee:09:fc:50:52:e6:
         50:2f:10:19:50:b7:f8:ff:cb:91:ee:d4:67:f3:60:b3:11:18:
         3e:81:80:01:6e:03:a1:dd:af:4e:b9:f2:ef:dc:27:c3:95:23:
         d9:65:dc:e9:70:54:05:92:46:ce:a9:09:41:ee:17:5a:39:97:
         4a:01:77:09:30:d3:69:97
-----BEGIN CERTIFICATE-----
MIIGrTCCBJWgAwIBAgICKGUwDQYJKoZIhvcNAQELBQAwgawxCzAJBgNVBAYTAlVT
MQswCQYDVQQIEwJPSDERMA8GA1UEBxMIQ29sdW1idXMxEjAQBgNVBAoTCVZpa2lu
Z1ZQTjEdMBsGA1UECxMUTXlPcmdhbml6YXRpb25hbFVuaXQxFTATBgNVBAMTDFZp
a2luZ1ZQTiBDQTEQMA4GA1UEKRMHRWFzeVJTQTEhMB8GCSqGSIb3DQEJARYSbWVA
bXlob3N0Lm15ZG9tYWluMB4XDTE3MDMyMDAyMDEwMVoXDTI3MDMxODAyMDEwMVow
HzEdMBsGA1UEAxMUQ2xpZW50MjcxOUNlcnRiZGQ5MzAwggIiMA0GCSqGSIb3DQEB
AQUAA4ICDwAwggIKAoICAQC3k91SpB8i8WFJnYRYM15kcxnTXTRKvNtRQ+zElnVj
/OYp5rTYj/78APKm53nSYmDJtk9wYDQhOTp6TPC62toaltiBbyXiHgerspeTRLr2
c2IIfAK5dFs3fHTdRNJD6lKFPKfQ1gNvtZv+J3sXijHBCfbiQfAf9H4/ZHiPx4dg
kc87OVJjfCt4VDfn0wfakXMeqyrNR/3ok4QO9Li+8OhR0q1dwOr2Zsqw9OL61qew
AEmRAXp6bfOO/mEvzjO0euXX01qzb6bz86CQoWK8h/jeTI+FjALtBC4Oa82srZ1y
F/WNBQpTA1IKoounPLtI8jUcGBXnMSTcGjBch2YtZBHyxYajANQ7mnTBMzFPaU+5
Z76S3oKeZG2Af38K5hpOosR38zkFlMWwMZeyNG4QhT1Ybs+x00Ll1Vhy/OW/+B2g
gYr7zTR2vE+X6gMCq51Z7FGWQGYZdyXz8qCpe6e5FImmfppy0WkANiHVYsSGxEpJ
iO/WpvRa1FsnIhAjx2kd34gMZVQRhmM2b3EVVqARuxRFnTcmKUPVHbue0FSUiENL
/9gwoOyX/V1vYmOtd3a4EP/d5SYd6VEBKhmB/1a26k4jqxxEkMeCrVF4zHD9/73B
eBs91M1WFtYuaoiibVuBkhN+v0qNt+SZVhrKNTwqI2p4G8nraHMGXynmvfIoDn8h
DQIDAQABo4IBYzCCAV8wCQYDVR0TBAIwADAtBglghkgBhvhCAQ0EIBYeRWFzeS1S
U0EgR2VuZXJhdGVkIENlcnRpZmljYXRlMB0GA1UdDgQWBBS6OLnsqzY6tmrusubC
L+YfSekybjCB4QYDVR0jBIHZMIHWgBQSzWAE0qCAnnDtxpm4eyzGUv0ZoaGBsqSB
rzCBrDELMAkGA1UEBhMCVVMxCzAJBgNVBAgTAk9IMREwDwYDVQQHEwhDb2x1bWJ1
czESMBAGA1UEChMJVmlraW5nVlBOMR0wGwYDVQQLExRNeU9yZ2FuaXphdGlvbmFs
VW5pdDEVMBMGA1UEAxMMVmlraW5nVlBOIENBMRAwDgYDVQQpEwdFYXN5UlNBMSEw
HwYJKoZIhvcNAQkBFhJtZUBteWhvc3QubXlkb21haW6CCQDPNYXugL8qPjATBgNV
HSUEDDAKBggrBgEFBQcDAjALBgNVHQ8EBAMCB4AwDQYJKoZIhvcNAQELBQADggIB
AOjg5AOoWz+fiEO8VaDjrrAHiFhSQQ1hYFFX6IvxcmtR/q1CjtTFPNkdXGT0VNqV
F7Z9WPy3RA154v3qe5JvK4rElnHEswvuOMYCY6fx9S4pTfJ73j4/QFwBDYyGPVa7
AL+h3xpQKoUzUiUANuFLsEWAtY6f7mtrudAYAkPZcfMljQoGl1tiHz7Z1G1zZJTI
t18Fb5ywku+WCzEr1svggWH/wB7Cc/FtPcBESYjgD5P3npfYxExvWIHJqonNfckN
SJsUcfnZjDgQKHV1YSEwEzzMJgTt0S6xmjVxSGxvo5pZFle1daOP0SGdDsXg2bjN
dGUJRJ6N7QJwU4L7l7YXpXCtv3k6gxcJe5aZk2vqp/WIdSKU//0zeXvYWqIDEGj9
td7Z72Ai9OfHtzStLAFJwKSwMe6Q1ppZs0y34/C58PZhcTstmyMPkedpeYTt9Cgc
jRVlHdQTXuLngBLxYTWb/RcoYdN3x3ZmN2chIVBLvFUNChANq7xN/DtdwRTDMsvA
gDQgY+RwdxdiPidO8O4ID1X6pByMHUtkkbwTjTQohnTDXMLJGlR1B791kALFhCF/
ccfx9dRZHKdPUCHkhu4J/FBS5lAvEBlQt/j/y5Hu1GfzYLMRGD6BgAFuA6Hdr065
8u/cJ8OVI9ll3OlwVAWSRs6pCUHuF1o5l0oBdwkw02mX
-----END CERTIFICATE-----
