Certificate:
    Data:
        Version: 3 (0x2)
        Serial Number: 10351 (0x286f)
    Signature Algorithm: sha256WithRSAEncryption
        Issuer: C=US, ST=OH, L=Columbus, O=VikingVPN, OU=MyOrganizationalUnit, CN=VikingVPN CA/name=EasyRSA/emailAddress=me@myhost.mydomain
        Validity
            Not Before: Mar 22 05:26:50 2017 GMT
            Not After : Mar 20 05:26:50 2027 GMT
        Subject: CN=Client2783Cert499f9c
        Subject Public Key Info:
            Public Key Algorithm: rsaEncryption
                Public-Key: (4096 bit)
                Modulus:
                    00:c9:8b:7d:4e:75:96:45:a6:b3:8d:ff:7d:98:af:
                    33:e0:d4:68:65:f6:0a:ad:1b:5b:04:d7:c1:bf:8b:
                    59:18:9b:7c:27:88:29:62:1e:a6:fc:63:9c:4b:4f:
                    55:df:43:b5:df:8c:2a:a4:e7:0e:5e:5a:c3:13:3e:
                    19:90:6c:78:64:b9:34:90:a5:c4:81:c1:60:d1:63:
                    35:7f:d2:69:30:b8:18:82:69:49:2e:82:79:68:9b:
                    27:cd:d7:23:ff:5b:fe:30:d3:77:28:0f:d6:2a:b3:
                    ed:f0:56:f5:a7:b5:bb:63:4f:79:bb:03:61:fe:0a:
                    5c:a3:b7:e4:c1:52:33:60:eb:b1:27:14:d7:90:6b:
                    76:e0:d1:74:32:01:12:7e:1a:9b:59:94:c9:48:fd:
                    c2:44:dc:6c:a9:48:74:ce:9a:8e:77:a4:29:6d:9f:
                    66:82:4c:ce:34:85:ff:9d:88:58:bb:3c:d9:0d:de:
                    9b:9d:83:30:d5:4b:f6:a2:29:15:a2:91:f4:5a:e9:
                    f3:f5:67:1d:13:b4:15:b9:97:af:84:a6:0e:31:fb:
                    74:e7:e6:ab:27:0c:25:56:58:26:95:79:83:f2:3c:
                    9b:50:98:7f:2d:e4:a8:4c:34:0b:97:47:e2:0e:ec:
                    ee:a6:a5:2c:88:e5:98:8f:ff:79:3e:c2:9a:d2:53:
                    7e:05:b4:7a:6a:1b:a1:32:6c:61:be:d8:9a:28:a4:
                    91:7a:58:15:8b:7d:d6:2d:90:7a:68:3c:66:f8:f4:
                    e3:a9:f5:52:2c:d4:b5:6b:db:4b:c4:f9:6d:31:ea:
                    21:cc:2b:ac:3a:81:c0:1e:bc:d7:6e:b8:e7:2b:35:
                    cb:77:c4:45:c8:4a:0f:b4:50:b8:97:5b:c8:de:6b:
                    2d:9c:d7:df:49:4d:91:df:c9:72:4b:56:b0:cb:95:
                    f5:47:a9:67:36:89:10:45:dd:92:51:97:7f:af:ec:
                    49:c4:cd:48:68:64:7e:4d:d2:ea:ec:ab:a8:6b:d0:
                    3b:9c:45:14:25:30:9a:aa:1d:c9:d4:07:ce:c4:f2:
                    f2:08:68:36:48:15:de:05:de:07:e6:e1:c5:50:69:
                    87:12:a7:71:6a:5e:cc:55:46:89:7c:d9:a3:23:6b:
                    38:23:27:c3:76:20:1c:38:57:21:65:ed:74:25:c6:
                    de:47:75:85:e8:72:e2:e7:db:ed:19:3d:1e:bf:89:
                    d0:c1:85:ce:a7:31:cd:a7:ef:b6:7a:58:8c:1d:b4:
                    44:2c:10:5a:c1:0d:41:db:99:38:73:9f:0e:c2:06:
                    e8:f4:1d:48:64:3c:c4:31:be:bf:58:8a:4a:a1:95:
                    fd:31:a4:e5:f4:86:f1:1c:5a:b1:c2:7e:bc:2f:bc:
                    8c:71:01
                Exponent: 65537 (0x10001)
        X509v3 extensions:
            X509v3 Basic Constraints: 
                CA:FALSE
            Netscape Comment: 
                Easy-RSA Generated Certificate
            X509v3 Subject Key Identifier: 
                8A:85:E7:E8:87:1C:A7:C8:41:EA:BE:82:BD:B8:3D:54:EE:6F:E6:8F
            X509v3 Authority Key Identifier: 
                keyid:12:CD:60:04:D2:A0:80:9E:70:ED:C6:99:B8:7B:2C:C6:52:FD:19:A1
                DirName:/C=US/ST=OH/L=Columbus/O=VikingVPN/OU=MyOrganizationalUnit/CN=VikingVPN CA/name=EasyRSA/emailAddress=me@myhost.mydomain
                serial:CF:35:85:EE:80:BF:2A:3E

            X509v3 Extended Key Usage: 
                TLS Web Client Authentication
            X509v3 Key Usage: 
                Digital Signature
    Signature Algorithm: sha256WithRSAEncryption
         e9:97:26:81:7f:38:91:0e:ef:39:23:69:82:04:6f:93:63:15:
         2a:4c:0a:03:f3:04:8b:a1:87:56:34:0b:76:35:ff:6a:0e:d6:
         4f:cb:e3:d1:05:24:4d:d3:d1:3c:69:a3:a7:2b:af:b8:ba:bf:
         80:aa:68:96:90:85:2c:38:e7:68:26:27:1d:55:11:bd:cc:36:
         86:eb:4e:9c:47:42:e1:ff:af:df:af:a2:cf:c5:9d:bb:4e:40:
         e7:7a:2a:17:f3:94:01:ba:35:73:ff:9c:b4:ae:0a:ff:c3:e7:
         79:30:86:63:04:9f:16:bb:7b:04:4e:e2:24:28:54:25:33:65:
         1a:0d:8f:76:71:98:ad:ad:de:33:ca:dd:19:13:ec:63:33:42:
         cb:e1:5b:c6:52:40:fc:54:9c:7e:40:39:c8:be:f3:94:b6:2b:
         45:8c:55:d9:6b:67:11:73:51:da:6b:fe:7e:80:93:c4:a7:65:
         3d:56:48:cc:93:5f:85:c7:60:c0:6c:3d:af:bf:00:b4:6b:e8:
         b6:47:3a:a1:ce:5a:83:f7:3e:b6:ff:94:4c:e3:13:21:55:91:
         47:cf:13:85:4f:9e:31:c0:5f:e4:21:1f:26:46:2b:85:98:ac:
         42:01:ad:e6:6a:9f:e8:84:7d:23:71:93:a4:26:2d:d5:34:04:
         2c:4c:87:1a:1d:72:03:6b:07:eb:6b:07:6f:02:49:83:bd:b9:
         7b:e0:b1:28:48:2c:98:76:49:d9:b0:7b:0e:01:8e:9d:34:74:
         f1:dd:d3:4e:c3:f7:dc:5e:89:56:45:45:04:ae:0a:6f:68:3f:
         a1:c9:66:39:1a:54:6f:84:4a:64:3b:e5:fe:0e:f9:66:fe:7b:
         e4:32:e5:f7:84:a2:9d:5e:c2:99:2f:5b:06:d7:6b:68:b4:fe:
         16:80:c6:19:80:15:69:e5:61:fd:03:f8:75:72:8f:b6:d2:3e:
         15:ba:c9:c0:a1:7e:86:79:04:89:38:b6:9c:df:14:61:ba:eb:
         fc:72:cc:cd:01:1c:79:fd:71:9a:56:3a:32:b4:fb:a5:da:92:
         ce:a5:5a:d8:24:52:c3:ff:99:f6:54:69:ac:df:4d:28:99:b8:
         d5:3c:6b:ac:82:53:0f:93:7a:0c:4d:d9:f3:35:33:7b:1f:d8:
         9c:80:6d:7e:50:3e:70:42:35:7d:d2:64:40:3b:f9:6a:42:1b:
         9c:f4:b7:58:db:28:f2:a3:d8:10:b3:6c:4d:99:4d:a5:62:af:
         1c:b8:c9:01:e1:a6:44:b7:1f:8e:b6:1f:89:c2:ca:d8:59:69:
         e0:14:10:87:8a:1f:82:76:91:ba:c5:5c:1d:24:e6:dd:68:8e:
         48:12:ab:04:7c:f2:a0:9a
-----BEGIN CERTIFICATE-----
MIIGrTCCBJWgAwIBAgICKG8wDQYJKoZIhvcNAQELBQAwgawxCzAJBgNVBAYTAlVT
MQswCQYDVQQIEwJPSDERMA8GA1UEBxMIQ29sdW1idXMxEjAQBgNVBAoTCVZpa2lu
Z1ZQTjEdMBsGA1UECxMUTXlPcmdhbml6YXRpb25hbFVuaXQxFTATBgNVBAMTDFZp
a2luZ1ZQTiBDQTEQMA4GA1UEKRMHRWFzeVJTQTEhMB8GCSqGSIb3DQEJARYSbWVA
bXlob3N0Lm15ZG9tYWluMB4XDTE3MDMyMjA1MjY1MFoXDTI3MDMyMDA1MjY1MFow
HzEdMBsGA1UEAxMUQ2xpZW50Mjc4M0NlcnQ0OTlmOWMwggIiMA0GCSqGSIb3DQEB
AQUAA4ICDwAwggIKAoICAQDJi31OdZZFprON/32YrzPg1Ghl9gqtG1sE18G/i1kY
m3wniCliHqb8Y5xLT1XfQ7XfjCqk5w5eWsMTPhmQbHhkuTSQpcSBwWDRYzV/0mkw
uBiCaUkugnlomyfN1yP/W/4w03coD9Yqs+3wVvWntbtjT3m7A2H+Clyjt+TBUjNg
67EnFNeQa3bg0XQyARJ+GptZlMlI/cJE3GypSHTOmo53pCltn2aCTM40hf+diFi7
PNkN3pudgzDVS/aiKRWikfRa6fP1Zx0TtBW5l6+Epg4x+3Tn5qsnDCVWWCaVeYPy
PJtQmH8t5KhMNAuXR+IO7O6mpSyI5ZiP/3k+wprSU34FtHpqG6EybGG+2JoopJF6
WBWLfdYtkHpoPGb49OOp9VIs1LVr20vE+W0x6iHMK6w6gcAevNduuOcrNct3xEXI
Sg+0ULiXW8jeay2c199JTZHfyXJLVrDLlfVHqWc2iRBF3ZJRl3+v7EnEzUhoZH5N
0ursq6hr0DucRRQlMJqqHcnUB87E8vIIaDZIFd4F3gfm4cVQaYcSp3FqXsxVRol8
2aMjazgjJ8N2IBw4VyFl7XQlxt5HdYXocuLn2+0ZPR6/idDBhc6nMc2n77Z6WIwd
tEQsEFrBDUHbmThznw7CBuj0HUhkPMQxvr9Yikqhlf0xpOX0hvEcWrHCfrwvvIxx
AQIDAQABo4IBYzCCAV8wCQYDVR0TBAIwADAtBglghkgBhvhCAQ0EIBYeRWFzeS1S
U0EgR2VuZXJhdGVkIENlcnRpZmljYXRlMB0GA1UdDgQWBBSKhefohxynyEHqvoK9
uD1U7m/mjzCB4QYDVR0jBIHZMIHWgBQSzWAE0qCAnnDtxpm4eyzGUv0ZoaGBsqSB
rzCBrDELMAkGA1UEBhMCVVMxCzAJBgNVBAgTAk9IMREwDwYDVQQHEwhDb2x1bWJ1
czESMBAGA1UEChMJVmlraW5nVlBOMR0wGwYDVQQLExRNeU9yZ2FuaXphdGlvbmFs
VW5pdDEVMBMGA1UEAxMMVmlraW5nVlBOIENBMRAwDgYDVQQpEwdFYXN5UlNBMSEw
HwYJKoZIhvcNAQkBFhJtZUBteWhvc3QubXlkb21haW6CCQDPNYXugL8qPjATBgNV
HSUEDDAKBggrBgEFBQcDAjALBgNVHQ8EBAMCB4AwDQYJKoZIhvcNAQELBQADggIB
AOmXJoF/OJEO7zkjaYIEb5NjFSpMCgPzBIuhh1Y0C3Y1/2oO1k/L49EFJE3T0Txp
o6crr7i6v4CqaJaQhSw452gmJx1VEb3MNobrTpxHQuH/r9+vos/FnbtOQOd6Khfz
lAG6NXP/nLSuCv/D53kwhmMEnxa7ewRO4iQoVCUzZRoNj3ZxmK2t3jPK3RkT7GMz
QsvhW8ZSQPxUnH5AOci+85S2K0WMVdlrZxFzUdpr/n6Ak8SnZT1WSMyTX4XHYMBs
Pa+/ALRr6LZHOqHOWoP3Prb/lEzjEyFVkUfPE4VPnjHAX+QhHyZGK4WYrEIBreZq
n+iEfSNxk6QmLdU0BCxMhxodcgNrB+trB28CSYO9uXvgsShILJh2Sdmwew4Bjp00
dPHd007D99xeiVZFRQSuCm9oP6HJZjkaVG+ESmQ75f4O+Wb+e+Qy5feEop1ewpkv
WwbXa2i0/haAxhmAFWnlYf0D+HVyj7bSPhW6ycChfoZ5BIk4tpzfFGG66/xyzM0B
HHn9cZpWOjK0+6Xaks6lWtgkUsP/mfZUaazfTSiZuNU8a6yCUw+TegxN2fM1M3sf
2JyAbX5QPnBCNX3SZEA7+WpCG5z0t1jbKPKj2BCzbE2ZTaVirxy4yQHhpkS3H462
H4nCythZaeAUEIeKH4J2kbrFXB0k5t1ojkgSqwR88qCa
-----END CERTIFICATE-----
