Certificate:
    Data:
        Version: 3 (0x2)
        Serial Number: 10405 (0x28a5)
    Signature Algorithm: sha256WithRSAEncryption
        Issuer: C=US, ST=OH, L=Columbus, O=VikingVPN, OU=MyOrganizationalUnit, CN=VikingVPN CA/name=EasyRSA/emailAddress=me@myhost.mydomain
        Validity
            Not Before: Mar 27 18:46:53 2017 GMT
            Not After : Mar 25 18:46:53 2027 GMT
        Subject: CN=Client1364Cert78af53
        Subject Public Key Info:
            Public Key Algorithm: rsaEncryption
                Public-Key: (4096 bit)
                Modulus:
                    00:ca:17:32:12:fa:42:8a:51:f5:72:b7:0c:d1:97:
                    42:59:bb:c8:e3:f0:8a:f0:25:c8:d8:76:ed:bd:1f:
                    e4:a2:7f:1d:29:a1:5b:ab:fa:c9:56:a0:5c:ea:18:
                    d2:20:b8:87:63:4e:88:48:06:4e:37:d9:e3:6d:a7:
                    96:c5:85:d2:ca:df:eb:47:8d:63:e2:49:15:79:d4:
                    d4:18:9d:74:56:42:a2:cf:44:99:31:1e:2c:9b:d6:
                    f1:60:d5:fc:c8:6e:5c:61:06:01:bc:5f:8f:c3:cf:
                    22:91:2e:a7:3e:92:76:53:ef:bf:f2:fc:4a:8d:b2:
                    38:3d:d1:9d:c0:8e:52:4a:88:5b:f8:71:0d:77:ce:
                    4c:30:f7:f7:83:1c:d7:96:fc:4e:13:3f:42:22:68:
                    22:d0:69:38:aa:fc:1a:66:ff:7a:cf:31:11:cc:a9:
                    07:48:47:ae:b1:fe:9e:63:f8:17:1c:9d:25:e1:2d:
                    d2:49:1b:a5:25:7c:fe:5d:34:f2:e3:f8:25:25:f2:
                    c2:1a:8b:d0:f8:07:09:a5:a8:81:d5:d5:9a:b7:49:
                    ea:49:dc:97:01:6c:02:28:81:ad:f9:18:11:9c:a9:
                    17:a6:d7:b8:bf:17:77:37:d1:d8:22:e9:b7:09:b8:
                    71:41:94:08:1c:0a:76:74:ad:73:01:17:d9:4f:fd:
                    9c:f0:87:3e:18:f5:8c:77:f9:ae:7f:20:8f:98:25:
                    61:52:3f:36:d6:80:3d:9a:8c:2c:95:cb:66:8e:8e:
                    7c:74:76:5d:e0:ae:be:bc:da:48:09:ee:1d:34:7f:
                    6e:bd:6f:3e:1b:15:60:67:78:b1:5b:60:28:b2:67:
                    16:44:71:1f:0e:6a:06:4d:ae:b5:ae:48:ae:1a:03:
                    eb:91:3e:7f:51:cf:d5:72:7b:a4:6b:ae:c8:61:7e:
                    c7:02:bb:c5:bb:1c:76:26:64:2b:42:06:3a:9a:6e:
                    d6:a5:d6:52:4d:ab:0e:9b:6a:c8:e1:e8:9c:06:60:
                    6c:37:df:f9:7e:78:17:e2:23:af:7b:bb:91:6c:01:
                    07:15:f4:9b:4f:97:3d:fa:9a:c7:06:3b:eb:e3:13:
                    79:dc:c8:37:41:62:a3:7b:29:b8:72:d6:88:8a:c8:
                    b5:4f:5b:82:b7:4d:4d:ff:9c:07:b6:99:75:2c:04:
                    fa:ee:0f:5d:64:b6:29:72:c5:0f:8a:1e:17:48:a6:
                    df:fd:21:c8:0d:56:1b:c3:12:70:db:5b:32:2c:b2:
                    76:a2:da:c6:1a:4c:62:ca:b7:c7:a3:ac:da:2b:82:
                    c7:f3:71:86:fa:ad:cd:41:20:26:24:47:92:d1:c1:
                    38:55:45:9d:f3:5b:c5:ca:68:5d:9a:23:5d:fa:71:
                    05:13:c1
                Exponent: 65537 (0x10001)
        X509v3 extensions:
            X509v3 Basic Constraints: 
                CA:FALSE
            Netscape Comment: 
                Easy-RSA Generated Certificate
            X509v3 Subject Key Identifier: 
                16:FE:A1:0C:46:52:E4:4E:8C:74:31:E7:EF:FC:05:45:4E:C2:52:8D
            X509v3 Authority Key Identifier: 
                keyid:12:CD:60:04:D2:A0:80:9E:70:ED:C6:99:B8:7B:2C:C6:52:FD:19:A1
                DirName:/C=US/ST=OH/L=Columbus/O=VikingVPN/OU=MyOrganizationalUnit/CN=VikingVPN CA/name=EasyRSA/emailAddress=me@myhost.mydomain
                serial:CF:35:85:EE:80:BF:2A:3E

            X509v3 Extended Key Usage: 
                TLS Web Client Authentication
            X509v3 Key Usage: 
                Digital Signature
    Signature Algorithm: sha256WithRSAEncryption
         bc:e8:06:d4:4b:d9:e1:b9:f0:f4:8a:cc:b0:9c:36:f6:3e:e4:
         c8:41:9f:00:db:3b:13:75:53:e5:c1:e2:18:71:df:72:eb:6a:
         a2:cd:14:41:1f:ec:d9:9a:e3:a9:a6:7a:c8:6f:4e:bb:18:a3:
         e5:b9:35:5f:e8:82:f6:9d:98:1b:84:4a:b8:24:b2:7d:bc:62:
         55:48:aa:ee:2f:d0:b7:b3:fe:e4:56:89:f5:1e:94:e0:27:33:
         d9:c6:47:9d:7a:a3:24:99:65:25:4c:a8:c5:d9:aa:9b:ee:33:
         4a:da:be:b7:b7:82:ce:e9:83:14:ff:53:68:1b:aa:8c:7f:a1:
         ef:ac:21:bf:31:c9:89:2d:28:bf:ea:89:64:73:e7:4d:57:54:
         9b:26:e7:fa:d1:b6:5a:da:9f:b4:74:bd:39:e1:d3:cf:87:79:
         77:fb:c4:ab:49:d8:ff:c8:e2:a2:62:43:0b:e4:d7:e7:89:8c:
         d4:47:2f:19:aa:a2:87:99:c7:06:7d:e8:fc:ae:e6:04:33:f5:
         8b:6b:bb:50:d7:38:11:77:4e:61:c2:4f:bd:e9:f1:1c:f6:b5:
         ba:f6:74:c5:27:81:ef:43:8e:85:4d:cc:3c:43:57:6f:59:8b:
         44:a5:d6:3d:5d:9b:10:5c:ca:49:e6:a1:09:c2:74:6c:92:26:
         1e:f1:1b:f4:2a:07:63:15:55:24:01:a3:6a:d9:0d:52:85:e7:
         f1:7d:b8:84:bf:58:0c:f5:a3:68:c8:0c:e0:eb:c8:ef:a5:36:
         63:0a:56:92:d6:52:88:57:1f:e7:a2:53:94:a7:87:b3:b8:aa:
         62:78:b5:28:17:d9:0b:f3:7e:c8:b1:1f:e3:31:7b:87:7a:e1:
         4b:ea:1f:60:57:66:d9:5c:d7:d3:e7:43:4e:0f:f0:a3:61:60:
         78:47:8d:1a:dd:e1:90:d3:7e:e9:e9:5d:72:cd:ff:23:b2:f4:
         d2:58:61:5e:ed:a2:92:f6:cf:cf:34:c0:9c:e0:08:e2:53:d2:
         e5:bd:97:51:56:1d:28:8c:82:d0:3b:be:95:9d:0c:60:15:44:
         8b:34:76:2b:33:fa:bc:6f:ea:e5:44:d8:f0:bf:e8:3f:47:45:
         c5:87:7d:39:45:2b:4f:ae:cc:fe:15:bd:64:e5:3b:01:d7:cb:
         fc:35:12:66:e7:09:d2:79:22:84:46:57:37:77:9b:0a:89:94:
         c5:7a:0a:6c:89:62:07:48:68:0a:bf:32:bf:97:3f:26:80:21:
         2f:63:74:ff:17:42:2b:75:1d:8e:85:0a:c6:bb:fb:df:3e:e0:
         5c:5c:c8:b0:da:66:f2:d9:65:e8:e5:1f:a1:9d:5c:5c:31:03:
         2f:a9:8c:34:96:54:48:87
-----BEGIN CERTIFICATE-----
MIIGrTCCBJWgAwIBAgICKKUwDQYJKoZIhvcNAQELBQAwgawxCzAJBgNVBAYTAlVT
MQswCQYDVQQIEwJPSDERMA8GA1UEBxMIQ29sdW1idXMxEjAQBgNVBAoTCVZpa2lu
Z1ZQTjEdMBsGA1UECxMUTXlPcmdhbml6YXRpb25hbFVuaXQxFTATBgNVBAMTDFZp
a2luZ1ZQTiBDQTEQMA4GA1UEKRMHRWFzeVJTQTEhMB8GCSqGSIb3DQEJARYSbWVA
bXlob3N0Lm15ZG9tYWluMB4XDTE3MDMyNzE4NDY1M1oXDTI3MDMyNTE4NDY1M1ow
HzEdMBsGA1UEAxMUQ2xpZW50MTM2NENlcnQ3OGFmNTMwggIiMA0GCSqGSIb3DQEB
AQUAA4ICDwAwggIKAoICAQDKFzIS+kKKUfVytwzRl0JZu8jj8IrwJcjYdu29H+Si
fx0poVur+slWoFzqGNIguIdjTohIBk432eNtp5bFhdLK3+tHjWPiSRV51NQYnXRW
QqLPRJkxHiyb1vFg1fzIblxhBgG8X4/DzyKRLqc+knZT77/y/EqNsjg90Z3AjlJK
iFv4cQ13zkww9/eDHNeW/E4TP0IiaCLQaTiq/Bpm/3rPMRHMqQdIR66x/p5j+Bcc
nSXhLdJJG6UlfP5dNPLj+CUl8sIai9D4BwmlqIHV1Zq3SepJ3JcBbAIoga35GBGc
qRem17i/F3c30dgi6bcJuHFBlAgcCnZ0rXMBF9lP/Zzwhz4Y9Yx3+a5/II+YJWFS
PzbWgD2ajCyVy2aOjnx0dl3grr682kgJ7h00f269bz4bFWBneLFbYCiyZxZEcR8O
agZNrrWuSK4aA+uRPn9Rz9Vye6RrrshhfscCu8W7HHYmZCtCBjqabtal1lJNqw6b
asjh6JwGYGw33/l+eBfiI697u5FsAQcV9JtPlz36mscGO+vjE3ncyDdBYqN7Kbhy
1oiKyLVPW4K3TU3/nAe2mXUsBPruD11ktilyxQ+KHhdIpt/9IcgNVhvDEnDbWzIs
snai2sYaTGLKt8ejrNorgsfzcYb6rc1BICYkR5LRwThVRZ3zW8XKaF2aI136cQUT
wQIDAQABo4IBYzCCAV8wCQYDVR0TBAIwADAtBglghkgBhvhCAQ0EIBYeRWFzeS1S
U0EgR2VuZXJhdGVkIENlcnRpZmljYXRlMB0GA1UdDgQWBBQW/qEMRlLkTox0Mefv
/AVFTsJSjTCB4QYDVR0jBIHZMIHWgBQSzWAE0qCAnnDtxpm4eyzGUv0ZoaGBsqSB
rzCBrDELMAkGA1UEBhMCVVMxCzAJBgNVBAgTAk9IMREwDwYDVQQHEwhDb2x1bWJ1
czESMBAGA1UEChMJVmlraW5nVlBOMR0wGwYDVQQLExRNeU9yZ2FuaXphdGlvbmFs
VW5pdDEVMBMGA1UEAxMMVmlraW5nVlBOIENBMRAwDgYDVQQpEwdFYXN5UlNBMSEw
HwYJKoZIhvcNAQkBFhJtZUBteWhvc3QubXlkb21haW6CCQDPNYXugL8qPjATBgNV
HSUEDDAKBggrBgEFBQcDAjALBgNVHQ8EBAMCB4AwDQYJKoZIhvcNAQELBQADggIB
ALzoBtRL2eG58PSKzLCcNvY+5MhBnwDbOxN1U+XB4hhx33LraqLNFEEf7Nma46mm
eshvTrsYo+W5NV/ogvadmBuESrgksn28YlVIqu4v0Lez/uRWifUelOAnM9nGR516
oySZZSVMqMXZqpvuM0ravre3gs7pgxT/U2gbqox/oe+sIb8xyYktKL/qiWRz501X
VJsm5/rRtlran7R0vTnh08+HeXf7xKtJ2P/I4qJiQwvk1+eJjNRHLxmqooeZxwZ9
6Pyu5gQz9Ytru1DXOBF3TmHCT73p8Rz2tbr2dMUnge9DjoVNzDxDV29Zi0Sl1j1d
mxBcyknmoQnCdGySJh7xG/QqB2MVVSQBo2rZDVKF5/F9uIS/WAz1o2jIDODryO+l
NmMKVpLWUohXH+eiU5Snh7O4qmJ4tSgX2QvzfsixH+Mxe4d64UvqH2BXZtlc19Pn
Q04P8KNhYHhHjRrd4ZDTfunpXXLN/yOy9NJYYV7topL2z880wJzgCOJT0uW9l1FW
HSiMgtA7vpWdDGAVRIs0disz+rxv6uVE2PC/6D9HRcWHfTlFK0+uzP4VvWTlOwHX
y/w1EmbnCdJ5IoRGVzd3mwqJlMV6CmyJYgdIaAq/Mr+XPyaAIS9jdP8XQit1HY6F
Csa7+98+4FxcyLDaZvLZZejlH6GdXFwxAy+pjDSWVEiH
-----END CERTIFICATE-----
