Certificate:
    Data:
        Version: 3 (0x2)
        Serial Number: 10419 (0x28b3)
    Signature Algorithm: sha256WithRSAEncryption
        Issuer: C=US, ST=OH, L=Columbus, O=VikingVPN, OU=MyOrganizationalUnit, CN=VikingVPN CA/name=EasyRSA/emailAddress=me@myhost.mydomain
        Validity
            Not Before: Mar 29 04:37:26 2017 GMT
            Not After : Mar 27 04:37:26 2027 GMT
        Subject: CN=Client2802Cert0a7c06
        Subject Public Key Info:
            Public Key Algorithm: rsaEncryption
                Public-Key: (4096 bit)
                Modulus:
                    00:f6:ce:1c:51:c4:cf:62:84:96:a8:d6:fc:8d:a5:
                    5c:7a:39:38:72:ed:05:09:bf:17:4b:6e:37:f1:d9:
                    00:1b:59:37:c7:23:42:eb:99:41:70:77:1c:eb:7e:
                    bd:23:17:7a:ea:5e:5f:59:65:ae:9c:d2:7f:d8:85:
                    39:e2:57:54:1c:ab:05:89:3e:43:b2:31:b8:9c:2a:
                    2f:56:fb:9a:e0:f4:aa:75:5f:73:0a:4c:a3:d0:3d:
                    4e:38:ab:41:73:d7:18:46:58:c3:b7:27:45:33:a6:
                    d2:93:31:4e:12:36:a5:49:e1:9e:3e:35:c7:31:69:
                    1a:da:89:e8:15:b5:78:22:9b:c3:61:22:31:c7:b0:
                    0e:dd:3d:59:68:27:c2:7b:77:07:73:41:fd:ac:a0:
                    af:7f:67:8a:e3:78:31:f8:de:85:b0:89:51:79:15:
                    ae:b8:e1:c9:b5:3c:37:c6:f6:a7:3b:17:c5:8b:cb:
                    ef:11:a8:ff:bb:20:92:ce:5b:15:ee:0c:40:bc:70:
                    aa:68:6c:0e:f4:c6:aa:5b:1a:7d:f8:a2:2a:94:e6:
                    71:2f:b9:ec:52:ab:58:0b:a3:83:77:03:47:36:05:
                    1e:39:d6:f6:ea:29:f5:cb:f9:07:fd:09:bc:2d:f8:
                    ba:c5:36:34:83:4b:50:e8:3f:92:9d:a4:7e:89:a0:
                    85:bf:ab:ce:cf:43:3d:40:0c:4c:20:ed:db:89:5e:
                    b0:d7:72:98:7f:76:ad:28:ec:c5:55:1d:86:c0:6c:
                    48:ee:89:27:0a:6d:ae:75:47:27:81:91:73:6b:11:
                    03:9e:fe:6a:3c:c5:d9:dc:ed:26:95:fc:f6:62:11:
                    5c:91:36:09:4f:ab:ba:79:90:da:53:0e:c2:42:e6:
                    73:f0:64:84:35:60:74:6e:9a:8c:7b:b5:6b:27:ea:
                    65:53:1c:6e:0e:e3:d1:56:d5:e7:17:ad:e4:36:53:
                    60:9f:43:8d:cf:d7:15:89:0d:10:66:b2:9f:8d:1f:
                    97:6f:ef:85:23:6c:34:b6:23:9d:40:0e:78:fb:31:
                    40:94:33:7c:61:5f:15:2f:38:c8:ca:e4:af:09:5f:
                    b6:98:e5:37:69:aa:80:b6:26:77:9a:64:60:12:18:
                    6f:c6:63:78:85:83:8d:82:58:50:d7:d0:fd:20:68:
                    d5:83:61:af:f2:70:c8:c5:4c:06:e1:06:40:29:86:
                    ff:19:9d:cd:b3:0a:52:ae:c4:e3:04:a3:6c:a3:13:
                    3b:8f:a9:86:fc:6f:74:4c:50:2c:8c:48:5b:80:08:
                    62:0f:88:20:88:fe:93:39:d7:2f:2f:e3:4e:7b:79:
                    2c:b3:64:d3:7f:0f:71:95:eb:0d:ec:23:7a:9a:9d:
                    86:44:d9
                Exponent: 65537 (0x10001)
        X509v3 extensions:
            X509v3 Basic Constraints: 
                CA:FALSE
            Netscape Comment: 
                Easy-RSA Generated Certificate
            X509v3 Subject Key Identifier: 
                92:E0:72:5E:53:45:72:2E:76:16:CC:D3:05:D5:96:67:55:42:F5:F1
            X509v3 Authority Key Identifier: 
                keyid:12:CD:60:04:D2:A0:80:9E:70:ED:C6:99:B8:7B:2C:C6:52:FD:19:A1
                DirName:/C=US/ST=OH/L=Columbus/O=VikingVPN/OU=MyOrganizationalUnit/CN=VikingVPN CA/name=EasyRSA/emailAddress=me@myhost.mydomain
                serial:CF:35:85:EE:80:BF:2A:3E

            X509v3 Extended Key Usage: 
                TLS Web Client Authentication
            X509v3 Key Usage: 
                Digital Signature
    Signature Algorithm: sha256WithRSAEncryption
         42:14:39:c3:58:14:a6:ae:8b:55:a0:7b:5c:a9:3b:80:af:bd:
         b9:5c:f1:ac:91:20:e1:33:71:5b:a3:0c:24:ae:3e:45:16:57:
         83:e4:1d:8f:94:3f:01:10:ad:cc:69:07:91:03:f9:c4:e0:74:
         0d:7b:85:b5:c1:38:f2:5b:1e:2b:e6:46:d2:77:bd:1b:22:78:
         73:a7:4d:40:f9:c9:50:31:e5:45:3e:cf:42:d8:6e:34:5e:8a:
         ed:15:e9:62:fd:99:75:13:b1:c2:49:5d:fa:50:bb:94:81:1e:
         04:42:0a:73:68:85:e2:34:95:53:1b:3e:b7:37:b7:92:db:c9:
         bd:7e:78:ac:37:38:64:68:8f:b5:2b:1e:e0:0b:ad:f3:06:4a:
         36:60:c1:dd:18:98:59:3f:bd:0f:12:ea:1a:2e:63:95:13:42:
         a6:7d:81:0b:a4:39:15:bf:58:f4:47:30:72:9a:2f:92:56:ee:
         81:17:1c:20:94:35:ea:81:87:14:c7:26:e9:06:d1:04:9a:60:
         25:0e:3e:1c:b4:eb:e1:07:eb:c0:e4:6e:8d:f7:97:b4:80:93:
         d8:c6:da:cd:6e:dd:7d:0b:02:41:c4:29:f5:d9:b6:de:82:f4:
         08:26:3e:5b:a5:0a:e8:ee:82:6f:75:e4:2b:4c:03:25:0d:3e:
         ec:27:fc:61:1d:2b:6a:1a:51:76:77:52:b8:17:ce:d5:96:3b:
         be:b3:5d:60:4e:2c:1d:37:81:9a:8b:fd:3d:77:c0:1d:69:98:
         2f:9c:55:12:a0:1c:ef:b2:19:25:35:fd:e1:5e:f3:96:69:58:
         48:c3:ef:77:ac:09:6d:7f:96:62:ac:43:9b:51:8b:c8:32:ee:
         71:6a:0e:ad:05:93:40:25:0c:d3:96:a2:94:48:1e:59:dd:84:
         c1:8a:8c:58:bf:9b:1a:5a:4b:72:bb:9c:2c:86:b2:ea:83:3a:
         d9:f5:8f:a3:7c:04:67:5d:e0:3f:08:8c:fd:b0:fc:ac:26:2d:
         79:a0:88:73:b7:66:54:8c:73:09:6c:b4:b0:b2:d3:20:9c:64:
         92:48:50:c4:46:c5:42:17:6a:a9:4b:ca:55:50:3a:32:59:3e:
         31:fd:01:7d:bb:a9:fc:24:c5:59:bf:f2:e9:89:8d:21:61:d8:
         44:62:5a:5d:7b:f9:44:f3:91:9d:bc:93:e1:37:43:d2:d7:73:
         39:be:ca:e2:9c:b3:84:a8:8d:26:f2:28:51:5b:ac:4b:2b:48:
         01:90:c1:a7:69:d2:54:b6:30:2d:ab:9c:55:e7:8a:98:05:14:
         5f:c5:bd:d9:57:05:a5:dd:60:b4:39:68:8d:e4:fd:22:26:44:
         82:55:f7:84:21:d1:23:c0
-----BEGIN CERTIFICATE-----
MIIGrTCCBJWgAwIBAgICKLMwDQYJKoZIhvcNAQELBQAwgawxCzAJBgNVBAYTAlVT
MQswCQYDVQQIEwJPSDERMA8GA1UEBxMIQ29sdW1idXMxEjAQBgNVBAoTCVZpa2lu
Z1ZQTjEdMBsGA1UECxMUTXlPcmdhbml6YXRpb25hbFVuaXQxFTATBgNVBAMTDFZp
a2luZ1ZQTiBDQTEQMA4GA1UEKRMHRWFzeVJTQTEhMB8GCSqGSIb3DQEJARYSbWVA
bXlob3N0Lm15ZG9tYWluMB4XDTE3MDMyOTA0MzcyNloXDTI3MDMyNzA0MzcyNlow
HzEdMBsGA1UEAxMUQ2xpZW50MjgwMkNlcnQwYTdjMDYwggIiMA0GCSqGSIb3DQEB
AQUAA4ICDwAwggIKAoICAQD2zhxRxM9ihJao1vyNpVx6OThy7QUJvxdLbjfx2QAb
WTfHI0LrmUFwdxzrfr0jF3rqXl9ZZa6c0n/YhTniV1QcqwWJPkOyMbicKi9W+5rg
9Kp1X3MKTKPQPU44q0Fz1xhGWMO3J0UzptKTMU4SNqVJ4Z4+NccxaRraiegVtXgi
m8NhIjHHsA7dPVloJ8J7dwdzQf2soK9/Z4rjeDH43oWwiVF5Fa644cm1PDfG9qc7
F8WLy+8RqP+7IJLOWxXuDEC8cKpobA70xqpbGn34oiqU5nEvuexSq1gLo4N3A0c2
BR451vbqKfXL+Qf9Cbwt+LrFNjSDS1DoP5KdpH6JoIW/q87PQz1ADEwg7duJXrDX
cph/dq0o7MVVHYbAbEjuiScKba51RyeBkXNrEQOe/mo8xdnc7SaV/PZiEVyRNglP
q7p5kNpTDsJC5nPwZIQ1YHRumox7tWsn6mVTHG4O49FW1ecXreQ2U2CfQ43P1xWJ
DRBmsp+NH5dv74UjbDS2I51ADnj7MUCUM3xhXxUvOMjK5K8JX7aY5TdpqoC2Jnea
ZGASGG/GY3iFg42CWFDX0P0gaNWDYa/ycMjFTAbhBkAphv8Znc2zClKuxOMEo2yj
EzuPqYb8b3RMUCyMSFuACGIPiCCI/pM51y8v4057eSyzZNN/D3GV6w3sI3qanYZE
2QIDAQABo4IBYzCCAV8wCQYDVR0TBAIwADAtBglghkgBhvhCAQ0EIBYeRWFzeS1S
U0EgR2VuZXJhdGVkIENlcnRpZmljYXRlMB0GA1UdDgQWBBSS4HJeU0VyLnYWzNMF
1ZZnVUL18TCB4QYDVR0jBIHZMIHWgBQSzWAE0qCAnnDtxpm4eyzGUv0ZoaGBsqSB
rzCBrDELMAkGA1UEBhMCVVMxCzAJBgNVBAgTAk9IMREwDwYDVQQHEwhDb2x1bWJ1
czESMBAGA1UEChMJVmlraW5nVlBOMR0wGwYDVQQLExRNeU9yZ2FuaXphdGlvbmFs
VW5pdDEVMBMGA1UEAxMMVmlraW5nVlBOIENBMRAwDgYDVQQpEwdFYXN5UlNBMSEw
HwYJKoZIhvcNAQkBFhJtZUBteWhvc3QubXlkb21haW6CCQDPNYXugL8qPjATBgNV
HSUEDDAKBggrBgEFBQcDAjALBgNVHQ8EBAMCB4AwDQYJKoZIhvcNAQELBQADggIB
AEIUOcNYFKaui1Wge1ypO4Cvvblc8ayRIOEzcVujDCSuPkUWV4PkHY+UPwEQrcxp
B5ED+cTgdA17hbXBOPJbHivmRtJ3vRsieHOnTUD5yVAx5UU+z0LYbjReiu0V6WL9
mXUTscJJXfpQu5SBHgRCCnNoheI0lVMbPrc3t5Lbyb1+eKw3OGRoj7UrHuALrfMG
SjZgwd0YmFk/vQ8S6houY5UTQqZ9gQukORW/WPRHMHKaL5JW7oEXHCCUNeqBhxTH
JukG0QSaYCUOPhy06+EH68Dkbo33l7SAk9jG2s1u3X0LAkHEKfXZtt6C9AgmPlul
Cujugm915CtMAyUNPuwn/GEdK2oaUXZ3UrgXztWWO76zXWBOLB03gZqL/T13wB1p
mC+cVRKgHO+yGSU1/eFe85ZpWEjD73esCW1/lmKsQ5tRi8gy7nFqDq0Fk0AlDNOW
opRIHlndhMGKjFi/mxpaS3K7nCyGsuqDOtn1j6N8BGdd4D8IjP2w/KwmLXmgiHO3
ZlSMcwlstLCy0yCcZJJIUMRGxUIXaqlLylVQOjJZPjH9AX27qfwkxVm/8umJjSFh
2ERiWl17+UTzkZ28k+E3Q9LXczm+yuKcs4SojSbyKFFbrEsrSAGQwadp0lS2MC2r
nFXnipgFFF/FvdlXBaXdYLQ5aI3k/SImRIJV94Qh0SPA
-----END CERTIFICATE-----
