Certificate:
    Data:
        Version: 3 (0x2)
        Serial Number: 10450 (0x28d2)
    Signature Algorithm: sha256WithRSAEncryption
        Issuer: C=US, ST=OH, L=Columbus, O=VikingVPN, OU=MyOrganizationalUnit, CN=VikingVPN CA/name=EasyRSA/emailAddress=me@myhost.mydomain
        Validity
            Not Before: Mar 30 19:39:33 2017 GMT
            Not After : Mar 28 19:39:33 2027 GMT
        Subject: CN=Client2804Certd3de0e
        Subject Public Key Info:
            Public Key Algorithm: rsaEncryption
                Public-Key: (4096 bit)
                Modulus:
                    00:a1:f8:d3:a1:c9:8d:a3:77:75:38:f0:b8:6a:a5:
                    1d:85:e2:7e:1e:57:cf:2f:c1:8f:68:b9:f5:49:b3:
                    c4:05:c1:3b:09:8b:07:fe:97:e3:91:fe:e2:5b:4b:
                    13:99:e5:d6:56:5a:a9:73:fc:a4:83:58:c2:fc:62:
                    ac:18:83:13:99:6e:1e:74:45:6c:83:b1:c8:fb:1a:
                    56:fc:3b:ba:8e:66:ae:1c:e1:82:6b:f6:e2:36:6f:
                    7a:01:b9:3f:a7:d8:f3:31:9f:d7:8f:73:d2:91:fd:
                    9e:96:b9:e9:11:91:6c:f8:91:11:bc:ec:e9:8a:ef:
                    59:70:b1:a9:0d:39:74:fa:b4:62:d4:0a:88:c2:b5:
                    a1:5c:4e:08:72:02:9c:65:93:8e:f2:bc:73:60:c5:
                    b1:7b:68:c3:5b:35:e2:0d:37:fc:92:7c:f2:ca:ad:
                    6e:22:84:93:4d:a3:74:c1:47:59:2a:9e:ae:0e:6f:
                    3e:8d:6b:ca:d8:2b:39:ff:6a:8f:e8:f1:62:f0:9f:
                    2b:71:c2:85:15:f4:30:d6:45:d5:ff:04:3a:22:4c:
                    95:86:af:95:6c:fa:35:60:10:32:8a:44:0e:42:9c:
                    a1:68:e7:15:72:89:80:72:ad:a5:74:05:12:0d:a0:
                    89:af:8c:a3:c7:7d:d5:25:e4:3f:dc:41:d2:37:ba:
                    f9:e0:4c:75:9a:df:08:f9:13:4c:a8:b4:de:50:fa:
                    79:06:9c:6a:f5:2c:26:50:0d:6a:30:ae:d6:ff:2c:
                    81:f3:ac:10:ce:fe:90:8b:65:c2:f4:c2:ba:cf:3e:
                    94:2f:c0:43:f9:4f:11:20:ec:06:a8:f6:f2:6f:2b:
                    a6:95:3d:29:7f:68:01:50:e0:38:ad:64:e3:ed:e0:
                    75:71:24:3c:cb:a4:1a:10:3f:d1:7d:2e:a5:b5:71:
                    76:ee:bb:dd:95:be:e1:fa:a5:77:96:79:5a:94:6d:
                    9f:b9:67:91:12:a8:7e:53:d8:9b:3c:7e:fe:11:d5:
                    ef:bb:78:99:ad:11:fe:37:7e:17:08:0d:53:da:66:
                    5b:59:1d:c2:2d:cc:27:2d:8c:f7:11:37:60:86:d9:
                    06:21:5c:81:48:84:b0:ec:4c:96:25:64:67:5d:f5:
                    a6:48:6e:61:c6:5f:7c:5a:58:ae:e8:89:62:be:81:
                    65:ce:94:65:ff:87:26:c8:8c:87:95:2e:00:69:40:
                    2a:5f:62:c2:d1:f1:70:e4:44:93:c2:89:15:a1:44:
                    3a:a6:35:46:3b:b8:d1:17:c4:78:93:56:cf:c5:bd:
                    b5:60:9e:14:a6:ad:7c:47:17:85:5c:92:b3:3b:2d:
                    d7:f4:eb:69:d1:18:e4:b6:7f:01:d1:7c:89:2a:c7:
                    8d:73:13
                Exponent: 65537 (0x10001)
        X509v3 extensions:
            X509v3 Basic Constraints: 
                CA:FALSE
            Netscape Comment: 
                Easy-RSA Generated Certificate
            X509v3 Subject Key Identifier: 
                3F:78:6A:E1:0E:F9:EB:CE:6E:8D:BF:35:3A:80:61:2F:09:68:37:F1
            X509v3 Authority Key Identifier: 
                keyid:12:CD:60:04:D2:A0:80:9E:70:ED:C6:99:B8:7B:2C:C6:52:FD:19:A1
                DirName:/C=US/ST=OH/L=Columbus/O=VikingVPN/OU=MyOrganizationalUnit/CN=VikingVPN CA/name=EasyRSA/emailAddress=me@myhost.mydomain
                serial:CF:35:85:EE:80:BF:2A:3E

            X509v3 Extended Key Usage: 
                TLS Web Client Authentication
            X509v3 Key Usage: 
                Digital Signature
    Signature Algorithm: sha256WithRSAEncryption
         56:01:f4:fa:fc:d2:f7:f5:9a:0a:14:5a:c8:e6:4a:39:b1:19:
         78:1e:df:b0:2a:4c:33:78:1a:80:d7:ef:d0:eb:f1:17:0d:e7:
         1a:63:71:02:e5:3e:c8:62:83:0f:5c:c5:57:45:5c:5d:75:cf:
         81:22:98:ea:70:f2:c1:bc:52:14:f6:79:5b:79:65:55:14:e6:
         63:aa:77:2d:88:70:2d:fc:a3:b6:92:66:74:9f:08:e4:51:78:
         e2:b4:cd:37:01:9e:60:8e:fa:54:7a:29:aa:89:7b:b5:7e:d5:
         c7:2f:b8:4c:74:25:f4:fa:9a:db:4d:40:23:aa:7c:a6:c7:b3:
         7d:63:55:2a:be:fe:a2:12:48:13:28:89:5e:cd:13:48:ae:d2:
         f9:6c:c0:60:de:78:35:99:21:c8:89:ac:58:bd:c8:ce:b2:be:
         e6:28:d2:dd:03:06:7a:81:b8:c0:57:06:c1:08:95:b4:30:37:
         cb:23:38:2a:0f:cf:6c:7d:31:16:76:cb:e2:c5:ba:bd:ae:db:
         8d:4f:78:cf:31:f4:11:7d:bb:89:8c:84:ff:bf:ba:f5:88:db:
         45:c9:14:c1:31:19:46:db:56:ad:ad:d7:a3:a5:17:fc:5e:1d:
         57:08:95:97:06:19:e2:da:26:bc:f0:93:32:53:56:c9:28:d2:
         45:97:ba:5f:2e:17:39:6d:74:f6:8c:e0:ef:8d:82:93:e1:5a:
         9b:bc:21:ab:9b:2b:ff:f7:78:9b:4e:b7:8e:79:f2:ef:b2:80:
         cf:f6:64:bc:37:af:5d:72:e1:16:87:60:af:fc:88:81:62:9f:
         29:1f:e6:b3:f7:f4:f3:45:7d:67:ef:e4:32:80:4a:ce:00:9b:
         ae:6f:86:1c:0a:93:4a:e7:58:42:62:27:f0:25:7f:eb:0a:bc:
         4b:d2:e1:98:d8:23:c1:ef:52:0d:b7:af:30:50:23:99:21:d2:
         a1:70:8f:61:3d:d8:6c:e2:8b:a0:b0:79:0e:5e:93:37:9d:ba:
         1e:90:b1:c6:b1:b0:11:3b:5d:43:2f:00:eb:60:84:20:69:5a:
         a2:bf:1d:5b:3b:4c:70:20:27:1d:58:44:e6:a8:c1:da:6c:f0:
         89:95:f3:6f:dc:d0:c8:58:f5:80:a9:d1:ce:05:91:53:cd:01:
         72:05:66:f3:d1:8c:12:c1:3d:b8:32:63:e0:94:22:b4:66:6f:
         41:1b:05:fb:99:5a:d5:58:73:16:a4:59:65:9e:d4:a9:3e:08:
         e9:b3:35:56:0e:7c:24:cc:c5:3c:16:1f:7f:0e:e2:fd:37:d6:
         58:a0:b1:78:80:3b:49:95:42:bf:45:7f:68:55:56:10:9e:41:
         6b:29:0e:37:73:f6:f2:f3
-----BEGIN CERTIFICATE-----
MIIGrTCCBJWgAwIBAgICKNIwDQYJKoZIhvcNAQELBQAwgawxCzAJBgNVBAYTAlVT
MQswCQYDVQQIEwJPSDERMA8GA1UEBxMIQ29sdW1idXMxEjAQBgNVBAoTCVZpa2lu
Z1ZQTjEdMBsGA1UECxMUTXlPcmdhbml6YXRpb25hbFVuaXQxFTATBgNVBAMTDFZp
a2luZ1ZQTiBDQTEQMA4GA1UEKRMHRWFzeVJTQTEhMB8GCSqGSIb3DQEJARYSbWVA
bXlob3N0Lm15ZG9tYWluMB4XDTE3MDMzMDE5MzkzM1oXDTI3MDMyODE5MzkzM1ow
HzEdMBsGA1UEAxMUQ2xpZW50MjgwNENlcnRkM2RlMGUwggIiMA0GCSqGSIb3DQEB
AQUAA4ICDwAwggIKAoICAQCh+NOhyY2jd3U48LhqpR2F4n4eV88vwY9oufVJs8QF
wTsJiwf+l+OR/uJbSxOZ5dZWWqlz/KSDWML8YqwYgxOZbh50RWyDscj7Glb8O7qO
Zq4c4YJr9uI2b3oBuT+n2PMxn9ePc9KR/Z6WuekRkWz4kRG87OmK71lwsakNOXT6
tGLUCojCtaFcTghyApxlk47yvHNgxbF7aMNbNeINN/ySfPLKrW4ihJNNo3TBR1kq
nq4Obz6Na8rYKzn/ao/o8WLwnytxwoUV9DDWRdX/BDoiTJWGr5Vs+jVgEDKKRA5C
nKFo5xVyiYByraV0BRINoImvjKPHfdUl5D/cQdI3uvngTHWa3wj5E0yotN5Q+nkG
nGr1LCZQDWowrtb/LIHzrBDO/pCLZcL0wrrPPpQvwEP5TxEg7Aao9vJvK6aVPSl/
aAFQ4DitZOPt4HVxJDzLpBoQP9F9LqW1cXbuu92VvuH6pXeWeVqUbZ+5Z5ESqH5T
2Js8fv4R1e+7eJmtEf43fhcIDVPaZltZHcItzCctjPcRN2CG2QYhXIFIhLDsTJYl
ZGdd9aZIbmHGX3xaWK7oiWK+gWXOlGX/hybIjIeVLgBpQCpfYsLR8XDkRJPCiRWh
RDqmNUY7uNEXxHiTVs/FvbVgnhSmrXxHF4VckrM7Ldf062nRGOS2fwHRfIkqx41z
EwIDAQABo4IBYzCCAV8wCQYDVR0TBAIwADAtBglghkgBhvhCAQ0EIBYeRWFzeS1S
U0EgR2VuZXJhdGVkIENlcnRpZmljYXRlMB0GA1UdDgQWBBQ/eGrhDvnrzm6NvzU6
gGEvCWg38TCB4QYDVR0jBIHZMIHWgBQSzWAE0qCAnnDtxpm4eyzGUv0ZoaGBsqSB
rzCBrDELMAkGA1UEBhMCVVMxCzAJBgNVBAgTAk9IMREwDwYDVQQHEwhDb2x1bWJ1
czESMBAGA1UEChMJVmlraW5nVlBOMR0wGwYDVQQLExRNeU9yZ2FuaXphdGlvbmFs
VW5pdDEVMBMGA1UEAxMMVmlraW5nVlBOIENBMRAwDgYDVQQpEwdFYXN5UlNBMSEw
HwYJKoZIhvcNAQkBFhJtZUBteWhvc3QubXlkb21haW6CCQDPNYXugL8qPjATBgNV
HSUEDDAKBggrBgEFBQcDAjALBgNVHQ8EBAMCB4AwDQYJKoZIhvcNAQELBQADggIB
AFYB9Pr80vf1mgoUWsjmSjmxGXge37AqTDN4GoDX79Dr8RcN5xpjcQLlPshigw9c
xVdFXF11z4EimOpw8sG8UhT2eVt5ZVUU5mOqdy2IcC38o7aSZnSfCORReOK0zTcB
nmCO+lR6KaqJe7V+1ccvuEx0JfT6mttNQCOqfKbHs31jVSq+/qISSBMoiV7NE0iu
0vlswGDeeDWZIciJrFi9yM6yvuYo0t0DBnqBuMBXBsEIlbQwN8sjOCoPz2x9MRZ2
y+LFur2u241PeM8x9BF9u4mMhP+/uvWI20XJFMExGUbbVq2t16OlF/xeHVcIlZcG
GeLaJrzwkzJTVsko0kWXul8uFzltdPaM4O+NgpPhWpu8IaubK//3eJtOt4558u+y
gM/2ZLw3r11y4RaHYK/8iIFinykf5rP39PNFfWfv5DKASs4Am65vhhwKk0rnWEJi
J/Alf+sKvEvS4ZjYI8HvUg23rzBQI5kh0qFwj2E92Gzii6CweQ5ekzeduh6Qscax
sBE7XUMvAOtghCBpWqK/HVs7THAgJx1YROaowdps8ImV82/c0MhY9YCp0c4FkVPN
AXIFZvPRjBLBPbgyY+CUIrRmb0EbBfuZWtVYcxakWWWe1Kk+COmzNVYOfCTMxTwW
H38O4v031ligsXiAO0mVQr9Ff2hVVhCeQWspDjdz9vLz
-----END CERTIFICATE-----
