Certificate:
    Data:
        Version: 3 (0x2)
        Serial Number: 10451 (0x28d3)
    Signature Algorithm: sha256WithRSAEncryption
        Issuer: C=US, ST=OH, L=Columbus, O=VikingVPN, OU=MyOrganizationalUnit, CN=VikingVPN CA/name=EasyRSA/emailAddress=me@myhost.mydomain
        Validity
            Not Before: Mar 30 19:40:34 2017 GMT
            Not After : Mar 28 19:40:34 2027 GMT
        Subject: CN=Client2804Cert6687e8
        Subject Public Key Info:
            Public Key Algorithm: rsaEncryption
                Public-Key: (4096 bit)
                Modulus:
                    00:b0:2d:d5:e1:f0:50:64:39:72:21:0f:f6:88:32:
                    12:50:f6:3a:78:19:05:20:7d:da:e1:bf:c3:21:99:
                    cb:73:f9:40:96:dc:2e:59:25:01:ed:2b:e6:6b:7d:
                    e2:7a:6b:8b:2d:83:35:9e:54:b1:a9:18:6e:68:4a:
                    5e:f2:7c:33:a7:8d:04:1b:3c:6e:d1:de:8a:fd:3a:
                    f7:46:35:a6:08:8c:63:c1:d5:7f:e8:23:07:d2:26:
                    bc:09:47:33:99:ea:01:a0:4e:6a:07:82:77:34:74:
                    8e:d6:0b:28:76:93:b2:89:71:d7:02:be:8f:53:2f:
                    1a:ce:ce:bd:1e:ff:1c:17:7d:1d:47:2a:56:33:f0:
                    71:5f:8a:f4:06:d1:03:49:0c:51:1e:f2:19:df:01:
                    f0:c4:1c:b2:c3:25:07:0a:6c:85:d4:d0:33:df:c1:
                    a5:b0:5a:dd:6e:4b:5a:fe:6e:6a:b1:a4:73:07:75:
                    4e:74:73:a2:5e:8e:cb:1d:70:29:83:93:8c:2d:0d:
                    52:3b:0b:9e:52:ba:73:a4:06:c1:ee:ca:24:2b:ab:
                    bf:2b:51:0f:e9:ab:f9:32:ad:85:dc:c4:34:a4:d2:
                    1f:f7:d7:5a:58:04:67:ce:94:14:ed:32:af:62:41:
                    69:0d:4a:dd:80:5a:43:b4:ed:93:60:32:87:0d:96:
                    4a:20:b0:5e:28:5a:39:a9:27:c4:ba:af:4e:9e:27:
                    1e:5b:12:4a:b6:d3:12:f4:e6:bc:04:cb:20:d7:2b:
                    cd:0e:75:10:00:50:ef:ac:a2:48:8b:cb:de:f3:6c:
                    3b:69:d6:b1:8e:47:dc:c2:fa:86:2f:20:7a:16:1d:
                    d4:75:15:3c:d8:ee:39:26:00:c3:62:40:02:b0:90:
                    55:f5:71:35:8f:d9:53:19:48:20:9e:4c:91:bc:66:
                    13:44:8b:eb:e3:9d:2a:f1:9e:ac:90:01:85:f0:dc:
                    9c:22:ce:09:33:26:9d:8e:a4:0c:15:3d:f9:88:c9:
                    20:92:00:25:e9:01:bf:6e:12:80:57:ce:bd:5a:8c:
                    52:ed:ef:bc:6f:b9:7b:a6:c9:e4:74:4f:ba:ec:a4:
                    dd:66:10:e2:3f:03:09:57:c1:e4:ce:da:bf:4b:b6:
                    36:f0:75:32:0b:df:58:38:9e:a2:39:b9:c8:5e:bd:
                    20:28:a0:a9:32:a7:64:28:c1:cb:82:53:f5:e0:8a:
                    92:70:26:e3:b2:23:c7:48:14:72:61:cd:b4:ba:58:
                    b8:76:b4:53:fb:15:b2:ec:93:98:b2:b8:e5:40:01:
                    1f:e3:6f:39:5b:b8:dd:81:7c:97:c8:51:d6:8f:a6:
                    40:cd:c5:af:07:7c:39:08:b9:58:9e:4d:dd:3e:69:
                    97:d8:03
                Exponent: 65537 (0x10001)
        X509v3 extensions:
            X509v3 Basic Constraints: 
                CA:FALSE
            Netscape Comment: 
                Easy-RSA Generated Certificate
            X509v3 Subject Key Identifier: 
                70:3B:D8:ED:60:5A:B4:88:69:32:38:46:F8:BB:B9:0A:CD:2E:23:7E
            X509v3 Authority Key Identifier: 
                keyid:12:CD:60:04:D2:A0:80:9E:70:ED:C6:99:B8:7B:2C:C6:52:FD:19:A1
                DirName:/C=US/ST=OH/L=Columbus/O=VikingVPN/OU=MyOrganizationalUnit/CN=VikingVPN CA/name=EasyRSA/emailAddress=me@myhost.mydomain
                serial:CF:35:85:EE:80:BF:2A:3E

            X509v3 Extended Key Usage: 
                TLS Web Client Authentication
            X509v3 Key Usage: 
                Digital Signature
    Signature Algorithm: sha256WithRSAEncryption
         b9:91:dd:e3:f6:12:bf:e3:d3:7b:42:db:61:61:03:91:09:a5:
         af:c1:f7:ac:5b:21:86:f1:e3:a4:22:bb:6d:a2:d1:e1:74:61:
         62:dd:68:0e:83:a6:bc:e8:df:12:81:e0:33:69:27:f3:f8:a5:
         f4:4a:f7:ff:8c:47:05:41:38:e4:a5:21:a5:70:30:b5:bc:45:
         e0:64:95:c4:f9:2e:9f:ab:b0:99:8a:2d:95:85:12:32:48:21:
         0f:3b:c6:85:60:db:73:1b:f5:3a:91:9d:77:e8:0a:5c:f0:54:
         10:4b:72:8a:b2:b8:b4:7e:ba:8f:af:81:bd:56:a4:14:f8:fb:
         a6:a2:ec:f6:9c:cf:36:a1:e3:0e:d3:33:21:ba:a7:49:ee:ea:
         ab:1d:9e:63:a8:b0:a8:8c:3f:3b:dc:eb:d5:25:52:e2:dd:07:
         55:ce:b8:df:13:dd:ae:9d:84:0c:ba:e3:c2:40:a3:37:33:5c:
         ce:2d:f0:fb:e6:8b:04:1d:ab:50:a3:45:dd:9e:5a:10:2c:57:
         51:c9:55:63:fb:ee:1e:06:62:1a:8b:9d:7f:9c:21:13:ec:84:
         81:b8:db:eb:de:fd:b8:3c:3d:2c:dc:40:be:ab:9c:1c:e8:98:
         12:35:94:60:f4:e8:52:4b:ac:2c:5c:4f:02:d1:01:6f:61:84:
         e1:9e:93:58:55:fc:5c:49:46:a8:8e:51:1c:0b:4c:e1:9b:9c:
         d6:0c:81:24:42:7f:b2:d9:cc:1d:ee:30:86:c4:dc:0e:5c:82:
         7e:68:e2:b9:94:68:e8:5c:13:87:af:61:19:60:c8:81:84:93:
         4f:3b:21:9e:fa:b9:ed:c0:1c:ca:0c:c2:1c:a5:d9:66:c4:92:
         57:95:e0:1d:ce:90:3b:06:90:c3:ad:0e:70:2a:10:c5:f8:d8:
         e9:85:6e:bc:82:fc:de:13:b9:56:f2:66:a4:5c:4d:04:4c:58:
         3f:7a:1f:be:15:c2:c6:57:73:c4:76:7d:9d:03:cf:3b:2c:cb:
         6c:aa:32:67:80:9e:ca:5d:97:01:34:90:ed:7f:71:a4:02:fb:
         20:00:d5:a3:6f:b8:78:fe:ae:26:97:d4:70:0d:22:3b:56:b8:
         85:2d:29:73:02:8c:30:7f:eb:ef:ea:6a:60:78:07:ff:4a:be:
         d7:b3:79:72:47:f8:b3:f2:c1:f4:41:f2:69:a1:0b:d8:f2:30:
         03:03:36:28:d6:e8:61:8e:7f:14:2e:1d:5a:c3:8d:2c:70:c1:
         5b:e2:54:4a:0b:66:f0:64:04:72:49:ca:21:96:e1:7e:9d:19:
         cd:42:9f:72:08:34:28:79:29:ab:f8:06:23:9e:72:a6:9c:35:
         5e:ef:77:7f:fe:1b:b3:12
-----BEGIN CERTIFICATE-----
MIIGrTCCBJWgAwIBAgICKNMwDQYJKoZIhvcNAQELBQAwgawxCzAJBgNVBAYTAlVT
MQswCQYDVQQIEwJPSDERMA8GA1UEBxMIQ29sdW1idXMxEjAQBgNVBAoTCVZpa2lu
Z1ZQTjEdMBsGA1UECxMUTXlPcmdhbml6YXRpb25hbFVuaXQxFTATBgNVBAMTDFZp
a2luZ1ZQTiBDQTEQMA4GA1UEKRMHRWFzeVJTQTEhMB8GCSqGSIb3DQEJARYSbWVA
bXlob3N0Lm15ZG9tYWluMB4XDTE3MDMzMDE5NDAzNFoXDTI3MDMyODE5NDAzNFow
HzEdMBsGA1UEAxMUQ2xpZW50MjgwNENlcnQ2Njg3ZTgwggIiMA0GCSqGSIb3DQEB
AQUAA4ICDwAwggIKAoICAQCwLdXh8FBkOXIhD/aIMhJQ9jp4GQUgfdrhv8Mhmctz
+UCW3C5ZJQHtK+ZrfeJ6a4stgzWeVLGpGG5oSl7yfDOnjQQbPG7R3or9OvdGNaYI
jGPB1X/oIwfSJrwJRzOZ6gGgTmoHgnc0dI7WCyh2k7KJcdcCvo9TLxrOzr0e/xwX
fR1HKlYz8HFfivQG0QNJDFEe8hnfAfDEHLLDJQcKbIXU0DPfwaWwWt1uS1r+bmqx
pHMHdU50c6JejssdcCmDk4wtDVI7C55SunOkBsHuyiQrq78rUQ/pq/kyrYXcxDSk
0h/311pYBGfOlBTtMq9iQWkNSt2AWkO07ZNgMocNlkogsF4oWjmpJ8S6r06eJx5b
Ekq20xL05rwEyyDXK80OdRAAUO+sokiLy97zbDtp1rGOR9zC+oYvIHoWHdR1FTzY
7jkmAMNiQAKwkFX1cTWP2VMZSCCeTJG8ZhNEi+vjnSrxnqyQAYXw3JwizgkzJp2O
pAwVPfmIySCSACXpAb9uEoBXzr1ajFLt77xvuXumyeR0T7rspN1mEOI/AwlXweTO
2r9LtjbwdTIL31g4nqI5uchevSAooKkyp2QowcuCU/XgipJwJuOyI8dIFHJhzbS6
WLh2tFP7FbLsk5iyuOVAAR/jbzlbuN2BfJfIUdaPpkDNxa8HfDkIuVieTd0+aZfY
AwIDAQABo4IBYzCCAV8wCQYDVR0TBAIwADAtBglghkgBhvhCAQ0EIBYeRWFzeS1S
U0EgR2VuZXJhdGVkIENlcnRpZmljYXRlMB0GA1UdDgQWBBRwO9jtYFq0iGkyOEb4
u7kKzS4jfjCB4QYDVR0jBIHZMIHWgBQSzWAE0qCAnnDtxpm4eyzGUv0ZoaGBsqSB
rzCBrDELMAkGA1UEBhMCVVMxCzAJBgNVBAgTAk9IMREwDwYDVQQHEwhDb2x1bWJ1
czESMBAGA1UEChMJVmlraW5nVlBOMR0wGwYDVQQLExRNeU9yZ2FuaXphdGlvbmFs
VW5pdDEVMBMGA1UEAxMMVmlraW5nVlBOIENBMRAwDgYDVQQpEwdFYXN5UlNBMSEw
HwYJKoZIhvcNAQkBFhJtZUBteWhvc3QubXlkb21haW6CCQDPNYXugL8qPjATBgNV
HSUEDDAKBggrBgEFBQcDAjALBgNVHQ8EBAMCB4AwDQYJKoZIhvcNAQELBQADggIB
ALmR3eP2Er/j03tC22FhA5EJpa/B96xbIYbx46Qiu22i0eF0YWLdaA6Dprzo3xKB
4DNpJ/P4pfRK9/+MRwVBOOSlIaVwMLW8ReBklcT5Lp+rsJmKLZWFEjJIIQ87xoVg
23Mb9TqRnXfoClzwVBBLcoqyuLR+uo+vgb1WpBT4+6ai7Paczzah4w7TMyG6p0nu
6qsdnmOosKiMPzvc69UlUuLdB1XOuN8T3a6dhAy648JAozczXM4t8PvmiwQdq1Cj
Rd2eWhAsV1HJVWP77h4GYhqLnX+cIRPshIG42+ve/bg8PSzcQL6rnBzomBI1lGD0
6FJLrCxcTwLRAW9hhOGek1hV/FxJRqiOURwLTOGbnNYMgSRCf7LZzB3uMIbE3A5c
gn5o4rmUaOhcE4evYRlgyIGEk087IZ76ue3AHMoMwhyl2WbEkleV4B3OkDsGkMOt
DnAqEMX42OmFbryC/N4TuVbyZqRcTQRMWD96H74VwsZXc8R2fZ0Dzzssy2yqMmeA
nspdlwE0kO1/caQC+yAA1aNvuHj+riaX1HANIjtWuIUtKXMCjDB/6+/qamB4B/9K
vtezeXJH+LPywfRB8mmhC9jyMAMDNijW6GGOfxQuHVrDjSxwwVviVEoLZvBkBHJJ
yiGW4X6dGc1Cn3IINCh5Kav4BiOecqacNV7vd3/+G7MS
-----END CERTIFICATE-----
