Certificate:
    Data:
        Version: 3 (0x2)
        Serial Number: 10456 (0x28d8)
    Signature Algorithm: sha256WithRSAEncryption
        Issuer: C=US, ST=OH, L=Columbus, O=VikingVPN, OU=MyOrganizationalUnit, CN=VikingVPN CA/name=EasyRSA/emailAddress=me@myhost.mydomain
        Validity
            Not Before: Mar 30 19:44:22 2017 GMT
            Not After : Mar 28 19:44:22 2027 GMT
        Subject: CN=Client2804Certae942f
        Subject Public Key Info:
            Public Key Algorithm: rsaEncryption
                Public-Key: (4096 bit)
                Modulus:
                    00:e5:3c:10:50:bd:3b:34:96:52:fa:fd:ea:b8:2e:
                    3f:00:9e:6e:1e:ff:8f:63:82:35:4c:4a:ed:8f:c2:
                    a1:44:72:84:30:5e:82:da:9e:d3:74:5c:01:a0:73:
                    e5:77:da:cf:96:47:46:06:89:02:36:6d:dc:44:d0:
                    29:48:f5:81:9d:e0:c6:99:5a:68:76:54:b9:58:18:
                    c5:11:7b:08:5b:69:67:6b:2c:c2:f5:67:70:60:13:
                    ce:d3:a3:b4:dc:d5:d7:fc:6c:84:6e:9f:d3:ff:8b:
                    53:84:6c:57:1b:5f:f0:4a:27:73:b6:f2:02:22:ed:
                    31:10:20:04:1b:98:03:e4:f5:10:19:f9:19:ef:0b:
                    a0:52:bf:e6:01:8b:e2:4d:40:46:6e:7b:93:a9:2f:
                    c3:e2:ca:7d:25:e6:31:7b:de:df:41:c5:7c:64:a6:
                    b1:28:dc:4f:8a:b7:e8:f7:c2:83:0f:a0:83:55:45:
                    16:4a:9b:cc:af:90:4a:a9:19:58:59:f3:ee:f6:92:
                    5e:9b:bb:72:6d:de:ab:e0:3b:69:7f:26:e1:b0:78:
                    5e:9a:55:68:b8:7e:64:33:e8:1d:92:37:0a:98:59:
                    b4:17:db:8d:38:d9:70:3e:c1:54:43:e5:ac:ce:81:
                    14:94:01:12:a8:ba:01:42:05:e7:d2:27:aa:3b:97:
                    29:42:bc:25:63:ea:9c:38:1a:82:62:2c:59:b1:92:
                    15:02:98:3a:15:62:28:56:42:e4:1c:05:b8:e1:50:
                    37:3c:ff:3c:27:91:bf:18:f3:cc:7c:cd:df:21:f7:
                    a8:64:7d:3e:6b:9b:ba:3c:fe:ab:f4:b8:43:9f:0f:
                    33:01:f3:16:b5:8a:0a:6e:ce:a5:8a:c4:2d:e5:2a:
                    74:02:9a:19:04:f6:03:d6:3a:5f:0e:b3:1d:72:09:
                    41:12:02:75:8a:14:aa:7e:e5:cc:01:66:32:8c:1c:
                    a5:03:92:df:a5:a9:42:14:be:8c:25:f4:ec:02:02:
                    d8:0e:5b:d6:1d:2f:c6:8a:b0:d2:f6:fe:a3:52:dd:
                    a7:66:02:38:d4:ca:e2:17:7a:30:3b:79:84:df:5f:
                    0d:ac:60:e4:b1:a9:1f:95:ef:f4:8e:94:20:bf:9b:
                    de:f2:26:44:98:e6:9d:6c:30:1a:fa:4e:4f:e6:db:
                    65:74:42:43:84:dd:f2:9c:b7:e7:fb:8b:8e:ad:cc:
                    92:09:df:7c:d3:d0:68:ee:05:63:36:9f:3d:2c:f7:
                    0c:8e:db:2f:30:90:39:a6:32:9e:96:b8:a8:f8:ba:
                    3b:ee:3e:da:89:ef:95:f0:dd:0b:6f:b9:2c:37:c4:
                    5e:40:3b:2c:95:c4:9d:eb:0b:3b:59:db:a1:c2:b6:
                    71:93:67
                Exponent: 65537 (0x10001)
        X509v3 extensions:
            X509v3 Basic Constraints: 
                CA:FALSE
            Netscape Comment: 
                Easy-RSA Generated Certificate
            X509v3 Subject Key Identifier: 
                2D:BC:0E:B8:F4:51:9F:6E:9E:C2:3A:F2:35:5E:6F:7C:05:32:B2:65
            X509v3 Authority Key Identifier: 
                keyid:12:CD:60:04:D2:A0:80:9E:70:ED:C6:99:B8:7B:2C:C6:52:FD:19:A1
                DirName:/C=US/ST=OH/L=Columbus/O=VikingVPN/OU=MyOrganizationalUnit/CN=VikingVPN CA/name=EasyRSA/emailAddress=me@myhost.mydomain
                serial:CF:35:85:EE:80:BF:2A:3E

            X509v3 Extended Key Usage: 
                TLS Web Client Authentication
            X509v3 Key Usage: 
                Digital Signature
    Signature Algorithm: sha256WithRSAEncryption
         4b:1d:dc:97:c6:9a:e9:21:00:c1:8f:e1:11:ca:70:c4:4c:2a:
         32:68:3d:b4:74:1a:7f:4d:31:1a:e9:62:e9:e4:2f:a5:dc:fd:
         f6:1f:13:b7:3c:88:92:46:fb:7e:67:d1:4e:5f:3e:5d:aa:1c:
         4c:41:f3:f8:a7:f8:76:de:cf:40:1a:2c:5b:c3:47:f6:13:70:
         32:94:9c:57:7c:bb:83:87:01:bd:02:e2:bb:8b:3c:12:b1:ce:
         dd:89:59:8f:ff:31:a5:1e:2f:48:a1:ee:a1:5d:3c:66:03:8f:
         33:8f:07:87:b4:02:51:74:ae:c8:40:71:8e:b6:eb:fb:82:3a:
         51:7c:d4:49:1a:05:97:df:4a:e8:75:85:41:bf:50:3f:01:56:
         0a:04:7d:37:2d:f0:7a:c4:72:1e:0b:99:c9:03:01:e2:54:c7:
         fd:53:02:e0:bf:f9:51:9d:30:31:ad:89:ad:de:43:46:dc:56:
         97:09:61:33:33:b8:09:4e:5e:4e:d0:f6:4b:bf:d8:ef:35:6b:
         1e:d9:97:07:56:35:d5:31:65:9e:f4:67:bf:46:18:41:e4:d8:
         fd:01:d6:c2:b5:91:46:6f:25:30:5b:f7:ef:54:54:fb:0d:42:
         af:14:a6:8c:9b:69:88:23:5a:b2:0a:ba:5d:6a:0d:a9:21:0e:
         aa:2e:4d:34:1d:57:2e:d4:4d:b8:fa:54:cd:38:79:27:af:92:
         e3:0b:da:fd:aa:81:7e:75:0e:37:8a:97:c5:7e:1c:44:f8:ad:
         83:cc:ad:e3:84:2d:01:d5:10:f8:35:9a:79:f9:a1:6a:5c:7d:
         a4:9b:17:9e:64:df:10:7e:e7:d8:d5:9d:32:c0:5f:89:3f:5a:
         3c:51:7f:2e:b1:4e:b6:1d:ec:61:9e:74:b4:65:26:11:a8:78:
         c3:f4:84:23:64:21:ab:51:c3:78:80:d3:82:7d:42:f2:66:07:
         a3:d2:19:2e:a5:9f:0c:25:ae:8c:f1:e7:47:86:15:d7:c0:d7:
         66:2b:49:f0:f5:06:71:df:3b:ed:94:3f:1f:b9:9a:ea:1f:14:
         d6:60:5d:52:3f:38:bc:b4:e3:8a:82:04:05:8b:b0:1d:b6:57:
         db:f0:ae:3f:9d:78:79:5d:79:ca:a2:42:e1:e2:fc:d7:c8:24:
         47:36:43:f1:c7:32:3a:6f:0c:44:5c:7b:03:0f:4f:e2:0a:39:
         3c:e7:51:16:dc:b9:9c:3f:f2:e8:b4:18:39:b2:60:72:3c:f9:
         e4:cc:e9:02:61:03:1d:46:19:85:24:9c:db:3d:c5:b3:e5:0a:
         02:17:aa:29:63:2d:a0:7e:38:0c:1f:65:05:82:28:2f:8e:6d:
         e7:1b:a4:9a:2f:0c:c7:a9
-----BEGIN CERTIFICATE-----
MIIGrTCCBJWgAwIBAgICKNgwDQYJKoZIhvcNAQELBQAwgawxCzAJBgNVBAYTAlVT
MQswCQYDVQQIEwJPSDERMA8GA1UEBxMIQ29sdW1idXMxEjAQBgNVBAoTCVZpa2lu
Z1ZQTjEdMBsGA1UECxMUTXlPcmdhbml6YXRpb25hbFVuaXQxFTATBgNVBAMTDFZp
a2luZ1ZQTiBDQTEQMA4GA1UEKRMHRWFzeVJTQTEhMB8GCSqGSIb3DQEJARYSbWVA
bXlob3N0Lm15ZG9tYWluMB4XDTE3MDMzMDE5NDQyMloXDTI3MDMyODE5NDQyMlow
HzEdMBsGA1UEAxMUQ2xpZW50MjgwNENlcnRhZTk0MmYwggIiMA0GCSqGSIb3DQEB
AQUAA4ICDwAwggIKAoICAQDlPBBQvTs0llL6/eq4Lj8Anm4e/49jgjVMSu2PwqFE
coQwXoLantN0XAGgc+V32s+WR0YGiQI2bdxE0ClI9YGd4MaZWmh2VLlYGMURewhb
aWdrLML1Z3BgE87To7Tc1df8bIRun9P/i1OEbFcbX/BKJ3O28gIi7TEQIAQbmAPk
9RAZ+RnvC6BSv+YBi+JNQEZue5OpL8Piyn0l5jF73t9BxXxkprEo3E+Kt+j3woMP
oINVRRZKm8yvkEqpGVhZ8+72kl6bu3Jt3qvgO2l/JuGweF6aVWi4fmQz6B2SNwqY
WbQX24042XA+wVRD5azOgRSUARKougFCBefSJ6o7lylCvCVj6pw4GoJiLFmxkhUC
mDoVYihWQuQcBbjhUDc8/zwnkb8Y88x8zd8h96hkfT5rm7o8/qv0uEOfDzMB8xa1
igpuzqWKxC3lKnQCmhkE9gPWOl8Osx1yCUESAnWKFKp+5cwBZjKMHKUDkt+lqUIU
vowl9OwCAtgOW9YdL8aKsNL2/qNS3admAjjUyuIXejA7eYTfXw2sYOSxqR+V7/SO
lCC/m97yJkSY5p1sMBr6Tk/m22V0QkOE3fKct+f7i46tzJIJ33zT0GjuBWM2nz0s
9wyO2y8wkDmmMp6WuKj4ujvuPtqJ75Xw3QtvuSw3xF5AOyyVxJ3rCztZ26HCtnGT
ZwIDAQABo4IBYzCCAV8wCQYDVR0TBAIwADAtBglghkgBhvhCAQ0EIBYeRWFzeS1S
U0EgR2VuZXJhdGVkIENlcnRpZmljYXRlMB0GA1UdDgQWBBQtvA649FGfbp7COvI1
Xm98BTKyZTCB4QYDVR0jBIHZMIHWgBQSzWAE0qCAnnDtxpm4eyzGUv0ZoaGBsqSB
rzCBrDELMAkGA1UEBhMCVVMxCzAJBgNVBAgTAk9IMREwDwYDVQQHEwhDb2x1bWJ1
czESMBAGA1UEChMJVmlraW5nVlBOMR0wGwYDVQQLExRNeU9yZ2FuaXphdGlvbmFs
VW5pdDEVMBMGA1UEAxMMVmlraW5nVlBOIENBMRAwDgYDVQQpEwdFYXN5UlNBMSEw
HwYJKoZIhvcNAQkBFhJtZUBteWhvc3QubXlkb21haW6CCQDPNYXugL8qPjATBgNV
HSUEDDAKBggrBgEFBQcDAjALBgNVHQ8EBAMCB4AwDQYJKoZIhvcNAQELBQADggIB
AEsd3JfGmukhAMGP4RHKcMRMKjJoPbR0Gn9NMRrpYunkL6Xc/fYfE7c8iJJG+35n
0U5fPl2qHExB8/in+Hbez0AaLFvDR/YTcDKUnFd8u4OHAb0C4ruLPBKxzt2JWY//
MaUeL0ih7qFdPGYDjzOPB4e0AlF0rshAcY626/uCOlF81EkaBZffSuh1hUG/UD8B
VgoEfTct8HrEch4LmckDAeJUx/1TAuC/+VGdMDGtia3eQ0bcVpcJYTMzuAlOXk7Q
9ku/2O81ax7ZlwdWNdUxZZ70Z79GGEHk2P0B1sK1kUZvJTBb9+9UVPsNQq8Upoyb
aYgjWrIKul1qDakhDqouTTQdVy7UTbj6VM04eSevkuML2v2qgX51DjeKl8V+HET4
rYPMreOELQHVEPg1mnn5oWpcfaSbF55k3xB+59jVnTLAX4k/WjxRfy6xTrYd7GGe
dLRlJhGoeMP0hCNkIatRw3iA04J9QvJmB6PSGS6lnwwlrozx50eGFdfA12YrSfD1
BnHfO+2UPx+5muofFNZgXVI/OLy044qCBAWLsB22V9vwrj+deHldecqiQuHi/NfI
JEc2Q/HHMjpvDERcewMPT+IKOTznURbcuZw/8ui0GDmyYHI8+eTM6QJhAx1GGYUk
nNs9xbPlCgIXqiljLaB+OAwfZQWCKC+ObecbpJovDMep
-----END CERTIFICATE-----
