Certificate:
    Data:
        Version: 3 (0x2)
        Serial Number: 10458 (0x28da)
    Signature Algorithm: sha256WithRSAEncryption
        Issuer: C=US, ST=OH, L=Columbus, O=VikingVPN, OU=MyOrganizationalUnit, CN=VikingVPN CA/name=EasyRSA/emailAddress=me@myhost.mydomain
        Validity
            Not Before: Mar 30 21:39:24 2017 GMT
            Not After : Mar 28 21:39:24 2027 GMT
        Subject: CN=Client2804Certab9f8d
        Subject Public Key Info:
            Public Key Algorithm: rsaEncryption
                Public-Key: (4096 bit)
                Modulus:
                    00:e1:a4:de:aa:d3:56:99:c2:d4:89:7c:71:18:95:
                    b1:43:92:7e:6f:16:64:78:8e:38:ec:c8:20:40:fc:
                    5a:79:84:d9:cd:11:cb:11:79:e7:b4:f4:6b:7e:44:
                    90:5a:5e:a8:28:7a:5e:ce:1a:4d:0f:b3:cb:2b:37:
                    c0:5b:af:f1:48:0a:69:7c:37:c8:9d:26:2c:b2:2e:
                    b5:c0:fc:90:90:c9:09:88:79:46:f6:a2:8e:b3:23:
                    c8:85:9d:0a:42:7e:3d:21:14:8e:af:cd:d6:89:35:
                    dc:13:31:0c:e0:94:e0:a3:c9:64:e6:eb:83:96:9b:
                    63:88:ba:ad:5c:6d:3f:8e:2d:c1:33:27:59:bf:ea:
                    97:52:af:54:a7:9c:96:92:de:b1:a5:20:90:83:3b:
                    63:db:18:8d:ae:84:27:5b:78:23:dd:ff:96:ed:4d:
                    7d:e6:00:0d:f0:f3:7a:02:6a:4f:28:a7:5b:ec:b9:
                    74:5c:5e:33:34:37:9c:4b:b8:c1:fc:42:80:94:db:
                    49:2e:12:25:7f:1f:c0:62:b0:97:e5:12:0f:c4:14:
                    75:61:48:28:61:04:84:59:37:ef:aa:01:a5:66:6f:
                    78:95:16:ef:82:ad:12:18:28:bb:7f:1e:f1:a3:d6:
                    2e:b5:49:40:1b:3d:c8:d7:92:6d:74:d1:f6:e4:58:
                    92:be:b6:e5:c0:b3:3a:5e:34:45:21:68:ef:7c:3e:
                    3f:fd:51:c4:d1:15:fb:87:d5:3b:ea:6f:3f:6f:82:
                    3f:b3:cf:99:19:36:ba:94:89:fe:50:f6:f2:17:ca:
                    4a:db:fe:7b:43:e3:f0:b7:b2:31:28:07:17:c6:44:
                    83:d1:c1:5a:df:89:b5:ed:08:c9:4c:06:6b:55:50:
                    98:c3:8b:fa:15:bb:da:3e:b6:cb:89:a8:f8:f9:77:
                    97:a9:9c:50:98:6a:40:ac:f7:46:ac:20:b5:d5:18:
                    60:2f:6a:77:7b:52:03:b0:e6:88:3e:32:0c:1a:3a:
                    ee:46:a7:14:f1:57:ff:51:59:3c:4f:32:53:87:4d:
                    ef:d9:74:7d:d7:cf:f7:c0:47:6f:5f:61:06:6b:77:
                    03:bc:cc:a2:62:72:aa:8b:8c:c0:37:1f:37:85:ec:
                    12:b6:23:e3:0b:b2:df:d9:a3:06:41:8c:58:82:34:
                    dd:7c:2c:8f:2a:e1:16:e7:94:77:51:d8:fb:e9:80:
                    26:e4:26:36:2e:d7:da:05:c0:e1:3a:8d:0a:07:59:
                    b0:f2:cb:9b:fe:91:2c:79:81:fc:77:44:73:c6:4f:
                    82:c5:43:5d:a5:08:2f:0e:7f:a1:eb:1a:f6:5b:0e:
                    08:09:78:2a:c1:1c:35:33:47:1c:e0:de:eb:90:7d:
                    25:fd:2b
                Exponent: 65537 (0x10001)
        X509v3 extensions:
            X509v3 Basic Constraints: 
                CA:FALSE
            Netscape Comment: 
                Easy-RSA Generated Certificate
            X509v3 Subject Key Identifier: 
                5C:EB:BD:7B:75:58:29:D9:FD:9C:A4:C6:62:1D:F7:F2:A9:15:91:F3
            X509v3 Authority Key Identifier: 
                keyid:12:CD:60:04:D2:A0:80:9E:70:ED:C6:99:B8:7B:2C:C6:52:FD:19:A1
                DirName:/C=US/ST=OH/L=Columbus/O=VikingVPN/OU=MyOrganizationalUnit/CN=VikingVPN CA/name=EasyRSA/emailAddress=me@myhost.mydomain
                serial:CF:35:85:EE:80:BF:2A:3E

            X509v3 Extended Key Usage: 
                TLS Web Client Authentication
            X509v3 Key Usage: 
                Digital Signature
    Signature Algorithm: sha256WithRSAEncryption
         70:e6:c7:22:3c:7c:43:ee:78:1e:43:1e:23:bd:ba:94:d5:9e:
         c6:89:3c:39:39:84:28:bb:29:68:56:f8:61:1b:fc:9b:9a:5e:
         31:6a:90:28:d8:34:81:4c:0b:9a:04:07:af:34:68:2d:b5:65:
         b0:0d:64:0b:d7:7b:6f:dc:20:1b:18:26:1d:29:f0:2a:0d:cf:
         1e:8e:61:d6:28:d4:33:c9:57:a0:f3:6a:84:60:50:53:45:69:
         4d:07:3f:57:29:0b:7f:6a:8c:4c:96:2f:81:8f:66:78:32:b5:
         4a:6e:00:dd:4f:7b:fd:40:03:3a:e2:b7:32:af:f1:8b:43:94:
         4f:74:81:7e:c7:f2:80:79:ab:35:d3:07:cd:e9:89:3d:bc:8c:
         0a:a5:64:47:22:73:7f:cf:a1:49:b4:ae:7c:23:9a:05:7d:01:
         e0:5d:4f:f5:8d:a5:2e:20:5f:24:45:96:eb:f5:13:91:47:94:
         05:14:54:0d:c4:93:76:69:48:40:a6:8c:13:9a:0c:16:6f:23:
         5b:c0:68:ab:42:47:1e:28:bb:fd:72:62:e5:d3:d8:1d:f3:2b:
         a5:89:20:e6:b6:8a:d4:64:4a:98:9e:ef:3f:e3:07:74:f6:f1:
         24:9d:95:7b:d5:8a:58:4b:bf:1e:49:76:ad:87:f5:bd:d1:b8:
         71:6a:32:c5:1f:f9:a6:12:40:a1:02:a8:39:66:d8:cf:94:7f:
         63:3e:62:bd:0e:86:5f:86:ef:d3:04:ff:94:9c:da:bc:cc:fc:
         75:9a:fd:60:b2:68:c7:82:17:fb:fa:25:0d:25:f7:95:bd:58:
         05:57:fb:98:de:bd:dd:1a:90:24:92:fe:74:d9:90:90:03:7b:
         29:aa:59:41:dc:09:75:ff:d8:c6:c6:f6:3a:55:58:c9:68:d1:
         14:0e:ed:1e:9e:f6:0b:62:48:2b:b4:7f:54:bd:89:14:06:04:
         5c:e3:89:cc:3a:ea:cc:41:65:d4:8b:79:46:af:57:ce:fd:eb:
         aa:cf:94:28:a7:ee:70:c3:4b:25:18:b9:44:b6:5a:f4:2b:7c:
         7b:0e:34:2c:c8:32:5c:cf:de:34:1c:28:e6:3a:97:67:c2:09:
         51:85:4b:83:46:a6:67:a0:40:d9:0d:8f:b3:43:01:9a:50:54:
         9a:9e:f2:1e:e5:3a:36:84:08:a0:84:ba:db:20:1a:f5:2f:6f:
         31:9f:87:ff:cb:ac:83:90:14:a2:cb:3c:34:f6:0b:c2:4d:14:
         c4:dd:5b:a3:61:03:e4:da:86:e6:65:0b:cf:6d:1d:b7:bd:8e:
         32:ec:d7:04:77:59:ca:a4:fc:30:c2:ff:5b:6a:98:c4:d9:74:
         5c:8d:3a:1b:11:3c:ce:6c
-----BEGIN CERTIFICATE-----
MIIGrTCCBJWgAwIBAgICKNowDQYJKoZIhvcNAQELBQAwgawxCzAJBgNVBAYTAlVT
MQswCQYDVQQIEwJPSDERMA8GA1UEBxMIQ29sdW1idXMxEjAQBgNVBAoTCVZpa2lu
Z1ZQTjEdMBsGA1UECxMUTXlPcmdhbml6YXRpb25hbFVuaXQxFTATBgNVBAMTDFZp
a2luZ1ZQTiBDQTEQMA4GA1UEKRMHRWFzeVJTQTEhMB8GCSqGSIb3DQEJARYSbWVA
bXlob3N0Lm15ZG9tYWluMB4XDTE3MDMzMDIxMzkyNFoXDTI3MDMyODIxMzkyNFow
HzEdMBsGA1UEAxMUQ2xpZW50MjgwNENlcnRhYjlmOGQwggIiMA0GCSqGSIb3DQEB
AQUAA4ICDwAwggIKAoICAQDhpN6q01aZwtSJfHEYlbFDkn5vFmR4jjjsyCBA/Fp5
hNnNEcsReee09Gt+RJBaXqgoel7OGk0Ps8srN8Bbr/FICml8N8idJiyyLrXA/JCQ
yQmIeUb2oo6zI8iFnQpCfj0hFI6vzdaJNdwTMQzglOCjyWTm64OWm2OIuq1cbT+O
LcEzJ1m/6pdSr1SnnJaS3rGlIJCDO2PbGI2uhCdbeCPd/5btTX3mAA3w83oCak8o
p1vsuXRcXjM0N5xLuMH8QoCU20kuEiV/H8BisJflEg/EFHVhSChhBIRZN++qAaVm
b3iVFu+CrRIYKLt/HvGj1i61SUAbPcjXkm100fbkWJK+tuXAszpeNEUhaO98Pj/9
UcTRFfuH1Tvqbz9vgj+zz5kZNrqUif5Q9vIXykrb/ntD4/C3sjEoBxfGRIPRwVrf
ibXtCMlMBmtVUJjDi/oVu9o+tsuJqPj5d5epnFCYakCs90asILXVGGAvand7UgOw
5og+MgwaOu5GpxTxV/9RWTxPMlOHTe/ZdH3Xz/fAR29fYQZrdwO8zKJicqqLjMA3
HzeF7BK2I+MLst/ZowZBjFiCNN18LI8q4RbnlHdR2PvpgCbkJjYu19oFwOE6jQoH
WbDyy5v+kSx5gfx3RHPGT4LFQ12lCC8Of6HrGvZbDggJeCrBHDUzRxzg3uuQfSX9
KwIDAQABo4IBYzCCAV8wCQYDVR0TBAIwADAtBglghkgBhvhCAQ0EIBYeRWFzeS1S
U0EgR2VuZXJhdGVkIENlcnRpZmljYXRlMB0GA1UdDgQWBBRc6717dVgp2f2cpMZi
HffyqRWR8zCB4QYDVR0jBIHZMIHWgBQSzWAE0qCAnnDtxpm4eyzGUv0ZoaGBsqSB
rzCBrDELMAkGA1UEBhMCVVMxCzAJBgNVBAgTAk9IMREwDwYDVQQHEwhDb2x1bWJ1
czESMBAGA1UEChMJVmlraW5nVlBOMR0wGwYDVQQLExRNeU9yZ2FuaXphdGlvbmFs
VW5pdDEVMBMGA1UEAxMMVmlraW5nVlBOIENBMRAwDgYDVQQpEwdFYXN5UlNBMSEw
HwYJKoZIhvcNAQkBFhJtZUBteWhvc3QubXlkb21haW6CCQDPNYXugL8qPjATBgNV
HSUEDDAKBggrBgEFBQcDAjALBgNVHQ8EBAMCB4AwDQYJKoZIhvcNAQELBQADggIB
AHDmxyI8fEPueB5DHiO9upTVnsaJPDk5hCi7KWhW+GEb/JuaXjFqkCjYNIFMC5oE
B680aC21ZbANZAvXe2/cIBsYJh0p8CoNzx6OYdYo1DPJV6DzaoRgUFNFaU0HP1cp
C39qjEyWL4GPZngytUpuAN1Pe/1AAzritzKv8YtDlE90gX7H8oB5qzXTB83piT28
jAqlZEcic3/PoUm0rnwjmgV9AeBdT/WNpS4gXyRFluv1E5FHlAUUVA3Ek3ZpSECm
jBOaDBZvI1vAaKtCRx4ou/1yYuXT2B3zK6WJIOa2itRkSpie7z/jB3T28SSdlXvV
ilhLvx5Jdq2H9b3RuHFqMsUf+aYSQKECqDlm2M+Uf2M+Yr0Ohl+G79ME/5Sc2rzM
/HWa/WCyaMeCF/v6JQ0l95W9WAVX+5jevd0akCSS/nTZkJADeymqWUHcCXX/2MbG
9jpVWMlo0RQO7R6e9gtiSCu0f1S9iRQGBFzjicw66sxBZdSLeUavV87966rPlCin
7nDDSyUYuUS2WvQrfHsONCzIMlzP3jQcKOY6l2fCCVGFS4NGpmegQNkNj7NDAZpQ
VJqe8h7lOjaECKCEutsgGvUvbzGfh//LrIOQFKLLPDT2C8JNFMTdW6NhA+TahuZl
C89tHbe9jjLs1wR3Wcqk/DDC/1tqmMTZdFyNOhsRPM5s
-----END CERTIFICATE-----
