Certificate:
    Data:
        Version: 3 (0x2)
        Serial Number: 10460 (0x28dc)
    Signature Algorithm: sha256WithRSAEncryption
        Issuer: C=US, ST=OH, L=Columbus, O=VikingVPN, OU=MyOrganizationalUnit, CN=VikingVPN CA/name=EasyRSA/emailAddress=me@myhost.mydomain
        Validity
            Not Before: Mar 30 21:41:56 2017 GMT
            Not After : Mar 28 21:41:56 2027 GMT
        Subject: CN=Client2804Cert71637e
        Subject Public Key Info:
            Public Key Algorithm: rsaEncryption
                Public-Key: (4096 bit)
                Modulus:
                    00:a4:e7:c7:5d:a5:e3:04:9a:12:cf:c8:4d:28:70:
                    1c:78:b5:29:8c:c1:36:d5:3e:9a:2c:6b:31:d8:c4:
                    1a:8f:9b:09:7b:e4:07:5a:27:e6:9f:1b:aa:87:1c:
                    92:d6:ed:28:30:e1:94:fc:09:f0:3f:d1:02:60:5d:
                    12:34:00:78:0a:66:e1:4b:2b:84:e0:4b:20:71:15:
                    b6:a0:36:a0:75:43:85:a9:0e:aa:83:17:35:8a:15:
                    c4:9f:6e:15:3f:5a:74:f4:51:55:de:73:4d:64:96:
                    fa:31:ae:f6:ea:b2:00:fa:2c:85:da:f3:a7:78:0b:
                    22:ee:57:f3:70:2e:32:24:bb:63:9a:ee:72:f1:3e:
                    fe:50:1e:09:4c:f1:55:c7:d1:98:c6:6b:1c:99:0b:
                    d0:36:a0:c5:4f:1f:8b:4b:49:c9:dd:e2:18:ae:eb:
                    cf:c0:60:e9:da:79:61:e3:4d:0c:78:30:76:da:aa:
                    6c:2c:d7:65:65:22:a3:1d:6b:c1:74:ad:0d:17:41:
                    ad:76:9f:09:f2:06:65:0d:cd:7c:66:83:2e:58:69:
                    de:ea:e2:58:95:8d:b4:aa:d3:fb:5f:a8:07:05:46:
                    34:09:44:aa:af:db:e4:74:a9:79:89:a4:89:58:f1:
                    1c:aa:38:a1:46:80:7b:e0:8a:31:18:cb:07:89:52:
                    af:0b:15:db:ca:3b:c3:33:4a:af:a0:ae:73:28:e1:
                    28:4e:2b:82:7a:3f:f4:51:e9:19:21:ef:ce:8b:f5:
                    67:a3:03:69:f5:71:9a:e1:91:ae:02:01:da:f5:b3:
                    72:5f:5b:97:f5:b2:31:55:15:09:ef:15:7c:26:70:
                    3a:0c:bf:58:a0:21:52:6c:41:f5:34:53:4e:f3:40:
                    a2:ae:e3:85:1a:2b:ca:a9:3c:1e:c6:15:ec:d1:04:
                    04:b8:f6:3b:09:22:e5:e2:a2:28:d5:19:09:29:85:
                    34:8e:2c:3d:f6:2c:25:5e:1a:4a:2a:72:f8:61:c8:
                    52:7a:9e:37:6b:1b:24:18:00:9a:3d:27:c1:ce:63:
                    77:83:06:26:29:d4:95:ec:44:4a:de:cf:0c:25:11:
                    b2:b5:e7:86:03:53:ac:f3:ed:05:80:f1:ae:4a:ff:
                    e0:54:78:fb:9a:f0:e5:85:af:91:50:69:25:c6:44:
                    74:e4:99:16:1b:bf:db:17:de:49:04:43:ca:3c:59:
                    4e:8f:38:fa:5c:44:5b:ad:5d:05:46:47:fa:fe:c5:
                    86:d6:cf:ce:a4:da:36:fa:c9:5e:9c:d2:7b:c9:68:
                    8e:fd:08:00:05:c2:ba:4d:27:1a:0c:0b:80:46:63:
                    bf:fb:26:5c:95:eb:5e:52:65:8f:54:be:9f:9f:05:
                    46:e2:1d
                Exponent: 65537 (0x10001)
        X509v3 extensions:
            X509v3 Basic Constraints: 
                CA:FALSE
            Netscape Comment: 
                Easy-RSA Generated Certificate
            X509v3 Subject Key Identifier: 
                FD:B8:26:6A:EA:EE:77:38:D7:3D:B3:AA:AB:2A:6B:C5:07:E4:51:33
            X509v3 Authority Key Identifier: 
                keyid:12:CD:60:04:D2:A0:80:9E:70:ED:C6:99:B8:7B:2C:C6:52:FD:19:A1
                DirName:/C=US/ST=OH/L=Columbus/O=VikingVPN/OU=MyOrganizationalUnit/CN=VikingVPN CA/name=EasyRSA/emailAddress=me@myhost.mydomain
                serial:CF:35:85:EE:80:BF:2A:3E

            X509v3 Extended Key Usage: 
                TLS Web Client Authentication
            X509v3 Key Usage: 
                Digital Signature
    Signature Algorithm: sha256WithRSAEncryption
         20:82:70:2c:f7:72:5b:f2:4d:fb:90:40:84:9c:1d:68:5d:d5:
         01:b7:1b:12:02:3c:96:75:6d:de:d4:33:97:66:0f:0f:be:e7:
         e5:81:50:ee:b9:e4:e8:7f:0a:22:ff:30:94:05:14:d9:21:d8:
         de:0b:f0:bc:3b:9d:f7:7b:81:13:5a:e9:67:a4:bc:05:8d:6f:
         5a:ab:40:99:63:4b:1d:ac:09:b8:00:9f:10:39:7b:05:07:bb:
         7a:34:1a:d5:24:9d:9f:21:0a:67:ac:3c:aa:b9:09:dc:39:08:
         7d:e9:45:83:11:46:f3:14:65:ec:20:4d:a8:b3:7b:b0:7a:70:
         ac:14:08:08:52:35:59:f0:d6:8b:18:8c:5f:d3:cc:22:0b:9d:
         0a:a6:ce:53:9a:a0:b9:2f:ea:b2:5b:f6:42:e2:9f:d2:2b:a5:
         d6:a2:e9:35:73:54:ba:9d:a1:1a:1b:b3:a4:68:df:53:0b:fd:
         92:5b:c1:86:38:ce:76:7d:37:7c:56:f7:05:df:b2:d0:4a:15:
         86:dc:12:8d:65:f7:6c:d9:71:ba:0f:77:be:6d:81:36:a3:62:
         f9:e5:48:06:a2:60:54:ee:57:23:37:1a:47:94:f4:74:fa:2f:
         cf:a6:0d:f7:36:16:3c:fb:58:5b:71:3d:4e:bd:92:84:2a:86:
         4e:51:51:03:e7:93:f9:8f:91:a0:83:17:d9:53:bf:90:13:ec:
         39:d9:a6:a7:3f:04:ed:00:1c:65:a1:f4:eb:a1:6c:8a:81:40:
         bc:88:5d:46:0b:b7:0d:0c:11:47:a5:79:6f:d8:82:e3:9b:7e:
         13:41:a1:35:e9:dd:67:9f:6e:fd:2b:f1:7f:bf:52:22:0f:62:
         87:d1:ee:8f:69:a9:60:35:2d:a4:81:52:3e:f0:cd:1a:53:4f:
         a8:3a:0d:9c:e9:e3:65:89:54:7e:2a:6e:e3:1b:72:10:db:02:
         41:5c:4b:2a:f9:d7:62:da:99:49:f9:b0:f6:51:a0:eb:85:58:
         a4:9a:bb:a3:cf:56:42:8c:d9:e6:de:b6:be:84:fd:27:18:a5:
         fd:29:c1:a6:8d:bc:11:fb:e2:0f:50:1a:3f:95:de:36:80:73:
         df:98:83:ed:09:7a:08:48:69:94:7a:86:a6:75:6c:7a:bf:f0:
         ac:d6:2f:f2:bd:ab:ef:42:f9:59:9e:d2:ed:a1:ef:fc:9e:ee:
         e2:c9:2d:c9:c8:31:70:f5:bb:a0:1d:43:e2:7d:6d:96:03:ef:
         a6:d2:c9:cd:71:09:47:f5:df:97:65:7e:db:79:1b:30:d5:54:
         df:1d:68:68:d3:33:37:96:f3:ff:c3:80:18:e0:72:d4:f8:c2:
         b1:f0:f9:d2:3c:d2:fa:f3
-----BEGIN CERTIFICATE-----
MIIGrTCCBJWgAwIBAgICKNwwDQYJKoZIhvcNAQELBQAwgawxCzAJBgNVBAYTAlVT
MQswCQYDVQQIEwJPSDERMA8GA1UEBxMIQ29sdW1idXMxEjAQBgNVBAoTCVZpa2lu
Z1ZQTjEdMBsGA1UECxMUTXlPcmdhbml6YXRpb25hbFVuaXQxFTATBgNVBAMTDFZp
a2luZ1ZQTiBDQTEQMA4GA1UEKRMHRWFzeVJTQTEhMB8GCSqGSIb3DQEJARYSbWVA
bXlob3N0Lm15ZG9tYWluMB4XDTE3MDMzMDIxNDE1NloXDTI3MDMyODIxNDE1Nlow
HzEdMBsGA1UEAxMUQ2xpZW50MjgwNENlcnQ3MTYzN2UwggIiMA0GCSqGSIb3DQEB
AQUAA4ICDwAwggIKAoICAQCk58ddpeMEmhLPyE0ocBx4tSmMwTbVPposazHYxBqP
mwl75AdaJ+afG6qHHJLW7Sgw4ZT8CfA/0QJgXRI0AHgKZuFLK4TgSyBxFbagNqB1
Q4WpDqqDFzWKFcSfbhU/WnT0UVXec01klvoxrvbqsgD6LIXa86d4CyLuV/NwLjIk
u2Oa7nLxPv5QHglM8VXH0ZjGaxyZC9A2oMVPH4tLScnd4hiu68/AYOnaeWHjTQx4
MHbaqmws12VlIqMda8F0rQ0XQa12nwnyBmUNzXxmgy5Yad7q4liVjbSq0/tfqAcF
RjQJRKqv2+R0qXmJpIlY8RyqOKFGgHvgijEYyweJUq8LFdvKO8MzSq+grnMo4ShO
K4J6P/RR6Rkh786L9WejA2n1cZrhka4CAdr1s3JfW5f1sjFVFQnvFXwmcDoMv1ig
IVJsQfU0U07zQKKu44UaK8qpPB7GFezRBAS49jsJIuXioijVGQkphTSOLD32LCVe
GkoqcvhhyFJ6njdrGyQYAJo9J8HOY3eDBiYp1JXsRErezwwlEbK154YDU6zz7QWA
8a5K/+BUePua8OWFr5FQaSXGRHTkmRYbv9sX3kkEQ8o8WU6POPpcRFutXQVGR/r+
xYbWz86k2jb6yV6c0nvJaI79CAAFwrpNJxoMC4BGY7/7JlyV615SZY9Uvp+fBUbi
HQIDAQABo4IBYzCCAV8wCQYDVR0TBAIwADAtBglghkgBhvhCAQ0EIBYeRWFzeS1S
U0EgR2VuZXJhdGVkIENlcnRpZmljYXRlMB0GA1UdDgQWBBT9uCZq6u53ONc9s6qr
KmvFB+RRMzCB4QYDVR0jBIHZMIHWgBQSzWAE0qCAnnDtxpm4eyzGUv0ZoaGBsqSB
rzCBrDELMAkGA1UEBhMCVVMxCzAJBgNVBAgTAk9IMREwDwYDVQQHEwhDb2x1bWJ1
czESMBAGA1UEChMJVmlraW5nVlBOMR0wGwYDVQQLExRNeU9yZ2FuaXphdGlvbmFs
VW5pdDEVMBMGA1UEAxMMVmlraW5nVlBOIENBMRAwDgYDVQQpEwdFYXN5UlNBMSEw
HwYJKoZIhvcNAQkBFhJtZUBteWhvc3QubXlkb21haW6CCQDPNYXugL8qPjATBgNV
HSUEDDAKBggrBgEFBQcDAjALBgNVHQ8EBAMCB4AwDQYJKoZIhvcNAQELBQADggIB
ACCCcCz3clvyTfuQQIScHWhd1QG3GxICPJZ1bd7UM5dmDw++5+WBUO655Oh/CiL/
MJQFFNkh2N4L8Lw7nfd7gRNa6WekvAWNb1qrQJljSx2sCbgAnxA5ewUHu3o0GtUk
nZ8hCmesPKq5Cdw5CH3pRYMRRvMUZewgTaize7B6cKwUCAhSNVnw1osYjF/TzCIL
nQqmzlOaoLkv6rJb9kLin9Irpdai6TVzVLqdoRobs6Ro31ML/ZJbwYY4znZ9N3xW
9wXfstBKFYbcEo1l92zZcboPd75tgTajYvnlSAaiYFTuVyM3GkeU9HT6L8+mDfc2
Fjz7WFtxPU69koQqhk5RUQPnk/mPkaCDF9lTv5AT7DnZpqc/BO0AHGWh9OuhbIqB
QLyIXUYLtw0MEUeleW/YguObfhNBoTXp3Wefbv0r8X+/UiIPYofR7o9pqWA1LaSB
Uj7wzRpTT6g6DZzp42WJVH4qbuMbchDbAkFcSyr512LamUn5sPZRoOuFWKSau6PP
VkKM2ebetr6E/ScYpf0pwaaNvBH74g9QGj+V3jaAc9+Yg+0JeghIaZR6hqZ1bHq/
8KzWL/K9q+9C+Vme0u2h7/ye7uLJLcnIMXD1u6AdQ+J9bZYD76bSyc1xCUf135dl
ftt5GzDVVN8daGjTMzeW8//DgBjgctT4wrHw+dI80vrz
-----END CERTIFICATE-----
