Certificate:
    Data:
        Version: 3 (0x2)
        Serial Number: 10468 (0x28e4)
    Signature Algorithm: sha256WithRSAEncryption
        Issuer: C=US, ST=OH, L=Columbus, O=VikingVPN, OU=MyOrganizationalUnit, CN=VikingVPN CA/name=EasyRSA/emailAddress=me@myhost.mydomain
        Validity
            Not Before: Mar 31 04:27:30 2017 GMT
            Not After : Mar 29 04:27:30 2027 GMT
        Subject: CN=Client2812Certc5b839
        Subject Public Key Info:
            Public Key Algorithm: rsaEncryption
                Public-Key: (4096 bit)
                Modulus:
                    00:ca:78:71:2d:9b:be:c0:9d:86:8b:1d:35:b7:38:
                    55:14:fb:42:36:65:8f:72:d8:31:2e:27:ac:44:86:
                    47:bb:4c:06:6e:dc:81:0b:6d:95:29:c2:dc:1b:90:
                    38:83:f5:98:52:34:20:d2:94:15:c1:16:29:cc:1a:
                    7c:6d:50:8b:a0:1e:7d:ce:4d:4a:c9:9f:b8:62:d6:
                    5a:8d:be:12:7f:76:47:9b:a7:29:52:3f:de:63:1f:
                    9c:2f:3a:94:91:1d:43:c1:0b:cf:a8:e5:a8:9e:85:
                    94:85:90:0f:9a:51:b0:b4:f2:21:88:60:34:c1:5c:
                    4a:22:ce:87:76:eb:44:38:18:3a:68:63:7d:f8:32:
                    1b:52:23:a2:3e:76:ea:53:84:cd:e5:57:b5:dc:21:
                    1f:fc:7b:3e:fc:63:7f:32:34:06:24:91:9c:a2:fc:
                    da:f9:2c:39:df:9b:9b:1a:86:32:de:d8:fa:55:34:
                    01:d3:a2:fc:c1:11:ab:13:b2:de:df:82:aa:13:64:
                    8e:71:51:e2:3f:70:4e:81:f0:98:f0:90:2b:28:92:
                    0d:64:7f:4e:fc:c8:d1:16:ab:11:84:78:13:c4:3c:
                    2a:9e:f2:9c:59:af:87:22:ae:9b:c7:aa:97:64:ff:
                    46:5c:71:9e:fa:94:a9:87:a8:ea:3d:49:62:1f:d3:
                    c7:de:01:d0:f7:e2:a2:c4:16:68:71:9c:5f:ca:c4:
                    6d:d9:a4:fc:a5:17:11:09:c7:93:da:1e:76:ed:9b:
                    ec:e1:69:cc:df:ad:b0:15:2f:67:d7:6f:df:eb:67:
                    97:28:38:92:ea:b7:82:22:3e:c5:17:ec:21:8e:9d:
                    4b:60:6c:e7:65:ca:d2:5d:ee:72:ce:8b:26:4c:b0:
                    26:69:06:bc:7f:65:f8:3e:e4:d3:c6:76:f9:62:12:
                    41:85:99:fd:ba:fc:28:40:2a:80:c3:b0:f3:b4:93:
                    57:63:9f:e8:85:3e:6d:6b:8d:c0:bb:a1:cb:3f:21:
                    21:0b:57:cb:79:82:78:95:ab:3a:01:2c:80:3d:c2:
                    d9:3d:01:eb:c7:c6:5e:14:46:69:88:ef:a8:ce:b5:
                    47:05:33:13:65:a3:4e:69:22:8c:59:c3:21:5b:50:
                    71:4a:a1:ff:05:ac:9c:65:20:65:aa:90:af:0a:55:
                    9b:89:ae:5f:e7:c8:52:86:23:21:99:0a:46:b1:49:
                    93:22:52:0c:9b:e3:cd:16:4e:a1:97:1f:b7:b3:7b:
                    4a:e3:85:5b:29:17:d6:26:5f:bd:e0:b1:0c:6e:53:
                    b5:25:ae:97:39:8c:e5:ee:a9:c2:0e:df:27:7c:ea:
                    aa:a3:ce:1c:f0:72:e2:e4:c8:0f:d4:97:c1:16:8f:
                    74:2c:4d
                Exponent: 65537 (0x10001)
        X509v3 extensions:
            X509v3 Basic Constraints: 
                CA:FALSE
            Netscape Comment: 
                Easy-RSA Generated Certificate
            X509v3 Subject Key Identifier: 
                05:24:8E:40:DA:D0:7F:7F:D7:26:2C:A1:8E:06:FE:C4:98:F5:78:AD
            X509v3 Authority Key Identifier: 
                keyid:12:CD:60:04:D2:A0:80:9E:70:ED:C6:99:B8:7B:2C:C6:52:FD:19:A1
                DirName:/C=US/ST=OH/L=Columbus/O=VikingVPN/OU=MyOrganizationalUnit/CN=VikingVPN CA/name=EasyRSA/emailAddress=me@myhost.mydomain
                serial:CF:35:85:EE:80:BF:2A:3E

            X509v3 Extended Key Usage: 
                TLS Web Client Authentication
            X509v3 Key Usage: 
                Digital Signature
    Signature Algorithm: sha256WithRSAEncryption
         70:b8:f4:90:d5:8c:43:91:a1:99:7f:6b:fb:62:50:6f:db:69:
         05:51:68:11:09:a8:aa:d3:9b:cf:92:70:d5:da:9a:46:ed:d6:
         20:bf:22:65:0c:71:a5:db:d2:89:96:e0:8e:90:2b:25:4e:04:
         23:2a:1a:f9:8f:e2:82:31:a8:d2:0a:24:57:b7:e7:8e:65:5e:
         8b:75:d5:aa:94:79:dc:25:cd:3a:97:41:1a:4f:d6:f7:7e:28:
         ab:4a:b6:64:1a:18:d1:86:1d:e4:8f:16:6c:d2:68:c1:58:8d:
         36:b1:43:91:e9:e5:78:68:65:6c:1c:81:12:31:7e:e3:aa:06:
         c1:f8:25:b0:7a:64:1c:5f:11:0a:4a:77:17:89:d0:ce:fe:b7:
         44:88:af:d7:96:5f:14:5e:9c:d5:3f:59:42:bd:09:75:14:d8:
         77:5d:f2:3e:3c:74:c4:d1:64:30:0c:a7:ad:2a:10:ad:64:d8:
         14:e7:36:9b:91:56:cd:a2:1c:ab:e0:7e:4f:04:58:99:24:2a:
         60:aa:8f:32:af:4b:49:49:ba:63:23:f9:11:05:7e:34:58:97:
         ca:72:ea:86:cb:1f:a1:3d:df:c9:d9:59:2b:1e:aa:2a:6a:13:
         76:78:a2:e8:0f:be:9e:3e:8f:9f:4b:05:81:79:70:17:d6:62:
         b0:4e:d4:09:2e:8b:7e:f4:bf:ca:dd:23:cf:f9:f2:3c:9a:53:
         d6:cd:1d:2e:a0:87:dc:5d:0e:40:6b:f4:9c:53:89:bb:3d:3e:
         33:32:c9:ae:20:89:37:c3:04:b2:ef:19:98:ff:a5:ee:a8:f5:
         49:74:40:4a:0c:c5:ff:65:a8:8d:2d:3a:8b:48:8f:75:3e:05:
         b5:28:53:4a:90:e8:16:9e:cc:4a:02:44:dd:d2:ef:88:f4:80:
         8f:a7:10:d7:34:f3:b8:17:4e:2e:65:07:f7:82:82:11:d1:95:
         78:06:19:9e:fd:f5:96:33:54:c0:2a:b6:75:10:37:af:7d:2b:
         d6:35:b8:1d:16:37:cb:9e:51:fd:15:d7:bf:2d:8c:7c:9d:41:
         da:92:5b:96:a8:69:f3:7c:ee:ba:58:c8:2e:64:aa:3b:1b:c6:
         a4:e3:b1:91:ae:09:75:9a:54:6a:e5:5b:c0:bb:0f:41:7b:22:
         0e:4c:99:61:63:a6:9c:d0:06:58:ef:d5:92:c6:02:f4:04:6d:
         43:74:ed:94:fa:4c:45:46:c3:a6:ec:24:d3:e5:a3:46:b0:a3:
         d6:a7:f7:88:94:d1:49:3e:43:3b:cf:d1:33:69:8b:53:17:fb:
         50:5c:4e:39:a2:6c:a6:b5:07:69:9d:f1:44:42:e1:f1:e6:e1:
         a8:33:f7:cc:7c:d7:a0:8e
-----BEGIN CERTIFICATE-----
MIIGrTCCBJWgAwIBAgICKOQwDQYJKoZIhvcNAQELBQAwgawxCzAJBgNVBAYTAlVT
MQswCQYDVQQIEwJPSDERMA8GA1UEBxMIQ29sdW1idXMxEjAQBgNVBAoTCVZpa2lu
Z1ZQTjEdMBsGA1UECxMUTXlPcmdhbml6YXRpb25hbFVuaXQxFTATBgNVBAMTDFZp
a2luZ1ZQTiBDQTEQMA4GA1UEKRMHRWFzeVJTQTEhMB8GCSqGSIb3DQEJARYSbWVA
bXlob3N0Lm15ZG9tYWluMB4XDTE3MDMzMTA0MjczMFoXDTI3MDMyOTA0MjczMFow
HzEdMBsGA1UEAxMUQ2xpZW50MjgxMkNlcnRjNWI4MzkwggIiMA0GCSqGSIb3DQEB
AQUAA4ICDwAwggIKAoICAQDKeHEtm77AnYaLHTW3OFUU+0I2ZY9y2DEuJ6xEhke7
TAZu3IELbZUpwtwbkDiD9ZhSNCDSlBXBFinMGnxtUIugHn3OTUrJn7hi1lqNvhJ/
dkebpylSP95jH5wvOpSRHUPBC8+o5aiehZSFkA+aUbC08iGIYDTBXEoizod260Q4
GDpoY334MhtSI6I+dupThM3lV7XcIR/8ez78Y38yNAYkkZyi/Nr5LDnfm5sahjLe
2PpVNAHTovzBEasTst7fgqoTZI5xUeI/cE6B8JjwkCsokg1kf078yNEWqxGEeBPE
PCqe8pxZr4cirpvHqpdk/0ZccZ76lKmHqOo9SWIf08feAdD34qLEFmhxnF/KxG3Z
pPylFxEJx5PaHnbtm+zhaczfrbAVL2fXb9/rZ5coOJLqt4IiPsUX7CGOnUtgbOdl
ytJd7nLOiyZMsCZpBrx/Zfg+5NPGdvliEkGFmf26/ChAKoDDsPO0k1djn+iFPm1r
jcC7ocs/ISELV8t5gniVqzoBLIA9wtk9AevHxl4URmmI76jOtUcFMxNlo05pIoxZ
wyFbUHFKof8FrJxlIGWqkK8KVZuJrl/nyFKGIyGZCkaxSZMiUgyb480WTqGXH7ez
e0rjhVspF9YmX73gsQxuU7Ulrpc5jOXuqcIO3yd86qqjzhzwcuLkyA/Ul8EWj3Qs
TQIDAQABo4IBYzCCAV8wCQYDVR0TBAIwADAtBglghkgBhvhCAQ0EIBYeRWFzeS1S
U0EgR2VuZXJhdGVkIENlcnRpZmljYXRlMB0GA1UdDgQWBBQFJI5A2tB/f9cmLKGO
Bv7EmPV4rTCB4QYDVR0jBIHZMIHWgBQSzWAE0qCAnnDtxpm4eyzGUv0ZoaGBsqSB
rzCBrDELMAkGA1UEBhMCVVMxCzAJBgNVBAgTAk9IMREwDwYDVQQHEwhDb2x1bWJ1
czESMBAGA1UEChMJVmlraW5nVlBOMR0wGwYDVQQLExRNeU9yZ2FuaXphdGlvbmFs
VW5pdDEVMBMGA1UEAxMMVmlraW5nVlBOIENBMRAwDgYDVQQpEwdFYXN5UlNBMSEw
HwYJKoZIhvcNAQkBFhJtZUBteWhvc3QubXlkb21haW6CCQDPNYXugL8qPjATBgNV
HSUEDDAKBggrBgEFBQcDAjALBgNVHQ8EBAMCB4AwDQYJKoZIhvcNAQELBQADggIB
AHC49JDVjEORoZl/a/tiUG/baQVRaBEJqKrTm8+ScNXamkbt1iC/ImUMcaXb0omW
4I6QKyVOBCMqGvmP4oIxqNIKJFe3545lXot11aqUedwlzTqXQRpP1vd+KKtKtmQa
GNGGHeSPFmzSaMFYjTaxQ5Hp5XhoZWwcgRIxfuOqBsH4JbB6ZBxfEQpKdxeJ0M7+
t0SIr9eWXxRenNU/WUK9CXUU2Hdd8j48dMTRZDAMp60qEK1k2BTnNpuRVs2iHKvg
fk8EWJkkKmCqjzKvS0lJumMj+REFfjRYl8py6obLH6E938nZWSseqipqE3Z4ougP
vp4+j59LBYF5cBfWYrBO1Akui370v8rdI8/58jyaU9bNHS6gh9xdDkBr9JxTibs9
PjMyya4giTfDBLLvGZj/pe6o9Ul0QEoMxf9lqI0tOotIj3U+BbUoU0qQ6BaezEoC
RN3S74j0gI+nENc087gXTi5lB/eCghHRlXgGGZ799ZYzVMAqtnUQN699K9Y1uB0W
N8ueUf0V178tjHydQdqSW5aoafN87rpYyC5kqjsbxqTjsZGuCXWaVGrlW8C7D0F7
Ig5MmWFjppzQBljv1ZLGAvQEbUN07ZT6TEVGw6bsJNPlo0awo9an94iU0Uk+QzvP
0TNpi1MX+1BcTjmibKa1B2md8URC4fHm4agz98x816CO
-----END CERTIFICATE-----
