Certificate:
    Data:
        Version: 3 (0x2)
        Serial Number: 10487 (0x28f7)
    Signature Algorithm: sha256WithRSAEncryption
        Issuer: C=US, ST=OH, L=Columbus, O=VikingVPN, OU=MyOrganizationalUnit, CN=VikingVPN CA/name=EasyRSA/emailAddress=me@myhost.mydomain
        Validity
            Not Before: Mar 31 23:32:42 2017 GMT
            Not After : Mar 29 23:32:42 2027 GMT
        Subject: CN=Client1919Certb1e6b9
        Subject Public Key Info:
            Public Key Algorithm: rsaEncryption
                Public-Key: (4096 bit)
                Modulus:
                    00:ef:30:8c:59:f5:18:af:99:e8:7b:0d:bb:d4:2e:
                    83:6f:77:47:5a:e6:4b:b8:99:cb:cd:a1:97:e1:5c:
                    ce:c9:30:48:e0:50:1f:e6:db:88:1d:28:5d:1d:47:
                    06:14:2c:31:8e:b2:1f:66:2e:12:c3:05:5d:96:14:
                    41:66:10:31:17:91:57:4b:ed:68:19:b0:78:c9:d2:
                    82:9e:8f:3a:e3:ac:76:f4:47:0f:63:c2:05:5d:d6:
                    c5:e6:4c:ed:03:f9:1f:b9:86:be:e4:54:90:82:5f:
                    ae:fe:d6:22:65:c0:d8:f1:e8:8b:22:6f:fa:a5:1a:
                    cf:25:37:d7:08:41:37:64:e8:0f:69:98:54:1e:29:
                    62:32:f4:b5:06:0a:38:fd:c2:a1:50:bc:43:dd:72:
                    33:74:a0:bc:b5:5c:ec:e1:62:d0:a8:1a:48:b9:76:
                    92:23:7f:02:ab:59:00:f6:61:c9:ed:32:94:47:28:
                    d1:f2:75:a2:6a:85:49:3f:38:d2:fb:a8:81:ec:4f:
                    97:a6:16:81:f3:e1:2b:9e:65:a2:b2:0e:14:5b:27:
                    57:2d:61:10:be:2b:e6:0a:06:51:4c:11:ae:91:c7:
                    62:17:54:16:9f:a9:c3:ce:04:0a:e6:53:d9:0e:41:
                    30:91:f5:76:f2:c4:42:4e:6b:22:23:06:da:40:54:
                    7f:75:8f:c9:c0:df:36:fd:3e:48:57:cd:ba:d6:30:
                    09:27:f4:88:e0:c6:83:3c:a4:d1:f3:ef:45:bd:e3:
                    08:f4:d3:aa:10:4c:59:30:c2:a2:7e:a6:65:c1:ff:
                    77:14:c3:2e:8a:d9:77:23:97:c6:44:d7:9e:12:75:
                    4d:45:69:65:2a:cd:a4:21:1f:91:d5:40:8e:2f:36:
                    40:f5:fe:d6:cf:3f:04:61:05:a2:0b:c2:eb:bb:5a:
                    74:ae:e8:2c:21:b4:16:b8:a3:60:56:0b:3f:b5:49:
                    43:a3:05:a3:73:bd:33:3d:ff:0f:f2:bf:f3:b1:4f:
                    ef:1a:2e:f1:8a:75:82:b0:76:04:c7:bf:00:f2:06:
                    87:e0:8a:79:0c:dc:d7:9a:ba:7e:c6:3d:92:ba:46:
                    e0:2e:aa:f1:bf:c4:b3:52:7c:72:95:e9:e8:42:6e:
                    38:48:a9:9e:dc:f2:0f:97:e2:7b:88:da:87:75:6c:
                    fc:c0:fd:ec:c4:02:83:bd:ba:e3:83:c1:87:28:a4:
                    da:f3:38:7a:7f:52:08:7c:98:c4:a7:31:24:14:51:
                    8a:ab:d8:e7:09:7e:f1:ec:c4:90:6a:4d:58:5a:93:
                    62:b4:38:95:e3:78:aa:15:d1:20:0d:77:3d:4f:fa:
                    ab:07:cd:fe:80:0a:84:55:a4:7e:81:dc:51:9a:84:
                    57:4f:3d
                Exponent: 65537 (0x10001)
        X509v3 extensions:
            X509v3 Basic Constraints: 
                CA:FALSE
            Netscape Comment: 
                Easy-RSA Generated Certificate
            X509v3 Subject Key Identifier: 
                8C:E4:7B:ED:7C:13:F3:75:7D:27:8C:91:F1:BC:BD:0E:B0:C5:06:47
            X509v3 Authority Key Identifier: 
                keyid:12:CD:60:04:D2:A0:80:9E:70:ED:C6:99:B8:7B:2C:C6:52:FD:19:A1
                DirName:/C=US/ST=OH/L=Columbus/O=VikingVPN/OU=MyOrganizationalUnit/CN=VikingVPN CA/name=EasyRSA/emailAddress=me@myhost.mydomain
                serial:CF:35:85:EE:80:BF:2A:3E

            X509v3 Extended Key Usage: 
                TLS Web Client Authentication
            X509v3 Key Usage: 
                Digital Signature
    Signature Algorithm: sha256WithRSAEncryption
         b7:56:80:48:1d:b5:20:0e:d1:9c:27:72:b8:35:3f:37:94:01:
         8d:25:10:21:34:12:64:a4:61:4d:71:78:2a:18:4b:ec:10:8b:
         39:8b:3a:81:a4:2e:f6:91:83:40:11:84:6b:ea:72:21:e5:01:
         e2:06:aa:27:2a:bf:71:6a:d5:f4:a5:c8:fc:dd:b4:0e:df:e3:
         74:79:c1:d5:39:49:29:25:82:12:8e:0d:d0:b9:02:cb:2a:28:
         85:41:a7:7d:2d:1a:2f:d4:9d:95:af:ee:3c:29:af:6b:82:ad:
         78:b6:b3:54:03:d2:69:08:28:31:ea:5f:41:78:09:51:7f:57:
         9b:97:6a:51:e9:de:e3:73:fa:0b:70:d0:90:29:ee:dc:3a:16:
         5c:01:e8:d8:04:7d:87:53:3d:c1:24:19:66:37:81:97:ee:fe:
         53:f3:fb:fa:58:57:20:1c:0a:e8:50:ef:56:7b:90:fc:64:85:
         d8:32:c9:e3:a7:c2:fb:67:a1:d7:24:db:5e:14:34:7d:9c:5a:
         17:d3:82:aa:c0:3f:a4:cc:a7:5b:f0:6d:3d:d5:ed:ca:32:f0:
         ee:e5:e5:32:21:bb:c0:ff:ae:14:e2:74:92:85:49:99:d6:77:
         b2:c5:d8:e4:34:e5:40:96:ab:f0:8c:51:88:d6:25:24:b0:b0:
         4c:d6:3a:eb:70:a6:72:e7:07:0a:f5:ab:75:e2:4e:3c:59:09:
         57:38:8c:41:ed:b6:51:56:b5:bd:f3:a2:b1:e5:81:a1:6d:97:
         4c:45:71:70:0b:06:c6:f7:c3:18:df:bd:1a:f3:bf:f9:d1:b1:
         26:84:ad:3c:79:be:96:18:1f:90:9b:68:3e:ce:7d:a4:76:d2:
         95:9a:44:2e:c1:09:e0:f2:a5:87:01:01:21:09:82:4b:99:cd:
         8c:1d:3d:b4:df:48:b5:51:b8:7c:5b:75:56:bf:3f:73:3e:7c:
         e0:36:c5:80:88:13:1b:c2:a7:62:11:eb:d5:cf:94:e2:13:d4:
         ac:29:f5:9b:ea:48:05:58:42:4f:8a:82:c2:2e:55:1c:6e:3e:
         b7:6e:e6:34:cc:04:14:c3:51:45:ff:ce:47:e3:0c:87:5e:45:
         3a:81:59:72:f9:72:ff:4a:70:c4:2d:a3:30:8b:e8:9d:fb:f5:
         0d:9a:fe:65:1b:34:1e:77:1e:12:d0:38:9a:1a:86:dd:84:e8:
         3c:d8:98:82:2d:fa:02:59:24:94:e6:d8:ff:1a:ef:c1:61:74:
         1c:ea:32:fa:03:b8:e6:14:de:11:d6:34:ac:68:29:da:77:8f:
         b9:d5:1e:33:68:95:44:26:38:47:df:18:0b:61:74:24:fe:58:
         0a:7f:a4:fd:3c:7d:45:49
-----BEGIN CERTIFICATE-----
MIIGrTCCBJWgAwIBAgICKPcwDQYJKoZIhvcNAQELBQAwgawxCzAJBgNVBAYTAlVT
MQswCQYDVQQIEwJPSDERMA8GA1UEBxMIQ29sdW1idXMxEjAQBgNVBAoTCVZpa2lu
Z1ZQTjEdMBsGA1UECxMUTXlPcmdhbml6YXRpb25hbFVuaXQxFTATBgNVBAMTDFZp
a2luZ1ZQTiBDQTEQMA4GA1UEKRMHRWFzeVJTQTEhMB8GCSqGSIb3DQEJARYSbWVA
bXlob3N0Lm15ZG9tYWluMB4XDTE3MDMzMTIzMzI0MloXDTI3MDMyOTIzMzI0Mlow
HzEdMBsGA1UEAxMUQ2xpZW50MTkxOUNlcnRiMWU2YjkwggIiMA0GCSqGSIb3DQEB
AQUAA4ICDwAwggIKAoICAQDvMIxZ9Rivmeh7DbvULoNvd0da5ku4mcvNoZfhXM7J
MEjgUB/m24gdKF0dRwYULDGOsh9mLhLDBV2WFEFmEDEXkVdL7WgZsHjJ0oKejzrj
rHb0Rw9jwgVd1sXmTO0D+R+5hr7kVJCCX67+1iJlwNjx6Isib/qlGs8lN9cIQTdk
6A9pmFQeKWIy9LUGCjj9wqFQvEPdcjN0oLy1XOzhYtCoGki5dpIjfwKrWQD2Ycnt
MpRHKNHydaJqhUk/ONL7qIHsT5emFoHz4SueZaKyDhRbJ1ctYRC+K+YKBlFMEa6R
x2IXVBafqcPOBArmU9kOQTCR9XbyxEJOayIjBtpAVH91j8nA3zb9PkhXzbrWMAkn
9IjgxoM8pNHz70W94wj006oQTFkwwqJ+pmXB/3cUwy6K2Xcjl8ZE154SdU1FaWUq
zaQhH5HVQI4vNkD1/tbPPwRhBaILwuu7WnSu6CwhtBa4o2BWCz+1SUOjBaNzvTM9
/w/yv/OxT+8aLvGKdYKwdgTHvwDyBofginkM3Neaun7GPZK6RuAuqvG/xLNSfHKV
6ehCbjhIqZ7c8g+X4nuI2od1bPzA/ezEAoO9uuODwYcopNrzOHp/Ugh8mMSnMSQU
UYqr2OcJfvHsxJBqTVhak2K0OJXjeKoV0SANdz1P+qsHzf6ACoRVpH6B3FGahFdP
PQIDAQABo4IBYzCCAV8wCQYDVR0TBAIwADAtBglghkgBhvhCAQ0EIBYeRWFzeS1S
U0EgR2VuZXJhdGVkIENlcnRpZmljYXRlMB0GA1UdDgQWBBSM5HvtfBPzdX0njJHx
vL0OsMUGRzCB4QYDVR0jBIHZMIHWgBQSzWAE0qCAnnDtxpm4eyzGUv0ZoaGBsqSB
rzCBrDELMAkGA1UEBhMCVVMxCzAJBgNVBAgTAk9IMREwDwYDVQQHEwhDb2x1bWJ1
czESMBAGA1UEChMJVmlraW5nVlBOMR0wGwYDVQQLExRNeU9yZ2FuaXphdGlvbmFs
VW5pdDEVMBMGA1UEAxMMVmlraW5nVlBOIENBMRAwDgYDVQQpEwdFYXN5UlNBMSEw
HwYJKoZIhvcNAQkBFhJtZUBteWhvc3QubXlkb21haW6CCQDPNYXugL8qPjATBgNV
HSUEDDAKBggrBgEFBQcDAjALBgNVHQ8EBAMCB4AwDQYJKoZIhvcNAQELBQADggIB
ALdWgEgdtSAO0Zwncrg1PzeUAY0lECE0EmSkYU1xeCoYS+wQizmLOoGkLvaRg0AR
hGvqciHlAeIGqicqv3Fq1fSlyPzdtA7f43R5wdU5SSklghKODdC5AssqKIVBp30t
Gi/UnZWv7jwpr2uCrXi2s1QD0mkIKDHqX0F4CVF/V5uXalHp3uNz+gtw0JAp7tw6
FlwB6NgEfYdTPcEkGWY3gZfu/lPz+/pYVyAcCuhQ71Z7kPxkhdgyyeOnwvtnodck
214UNH2cWhfTgqrAP6TMp1vwbT3V7coy8O7l5TIhu8D/rhTidJKFSZnWd7LF2OQ0
5UCWq/CMUYjWJSSwsEzWOutwpnLnBwr1q3XiTjxZCVc4jEHttlFWtb3zorHlgaFt
l0xFcXALBsb3wxjfvRrzv/nRsSaErTx5vpYYH5CbaD7OfaR20pWaRC7BCeDypYcB
ASEJgkuZzYwdPbTfSLVRuHxbdVa/P3M+fOA2xYCIExvCp2IR69XPlOIT1Kwp9Zvq
SAVYQk+KgsIuVRxuPrdu5jTMBBTDUUX/zkfjDIdeRTqBWXL5cv9KcMQtozCL6J37
9Q2a/mUbNB53HhLQOJoaht2E6DzYmIIt+gJZJJTm2P8a78FhdBzqMvoDuOYU3hHW
NKxoKdp3j7nVHjNolUQmOEffGAthdCT+WAp/pP08fUVJ
-----END CERTIFICATE-----
