Certificate:
    Data:
        Version: 3 (0x2)
        Serial Number: 10518 (0x2916)
    Signature Algorithm: sha256WithRSAEncryption
        Issuer: C=US, ST=OH, L=Columbus, O=VikingVPN, OU=MyOrganizationalUnit, CN=VikingVPN CA/name=EasyRSA/emailAddress=me@myhost.mydomain
        Validity
            Not Before: Apr  3 01:00:53 2017 GMT
            Not After : Apr  1 01:00:53 2027 GMT
        Subject: CN=Client2822Cert1ea202
        Subject Public Key Info:
            Public Key Algorithm: rsaEncryption
                Public-Key: (4096 bit)
                Modulus:
                    00:b7:b1:a5:e3:1c:a3:a9:0c:17:6e:a3:4c:77:24:
                    ba:3f:26:23:82:c9:ff:85:60:4d:bb:b0:1b:a5:68:
                    0f:ef:93:d1:20:1a:96:1f:46:eb:80:ad:00:5b:f3:
                    fa:9f:0b:61:de:25:ae:24:07:22:e5:f4:10:a1:79:
                    1d:74:15:47:cb:25:ad:e4:36:bc:e7:e9:13:fe:41:
                    55:6b:14:e1:0c:8a:88:0a:e3:8b:38:5b:65:12:e3:
                    fe:86:72:6f:cd:81:cb:b8:89:5f:56:be:bc:98:87:
                    f4:cb:5a:b2:cc:cd:c0:8b:c4:ed:55:ec:ab:90:f1:
                    26:4d:71:dc:8b:45:7a:23:33:6f:1a:2d:2f:fb:62:
                    cd:31:f4:a2:4d:14:36:4b:73:06:af:80:3f:22:f4:
                    f9:5d:2d:cf:4d:1c:dc:28:ca:72:27:8d:9d:3d:1f:
                    25:33:4d:fb:18:d6:53:44:ec:ac:76:37:c5:88:5d:
                    2b:61:13:4c:79:f8:38:97:1d:af:46:d7:a7:9a:3c:
                    2e:95:82:9d:b4:18:5a:d6:60:d7:6b:5a:1f:0c:7d:
                    fc:95:ed:b4:73:12:4b:71:2a:da:a7:9c:38:21:7c:
                    4e:26:56:0c:44:ce:63:b4:72:67:f5:5d:11:b3:aa:
                    53:2e:9d:e6:2c:a2:25:d9:bb:3e:29:32:cf:42:d7:
                    f0:bd:e7:8c:f2:2b:22:1d:ae:af:06:17:f5:01:ee:
                    c1:c5:d0:90:8a:d5:7b:4c:da:ce:1c:5b:77:97:59:
                    f2:c4:d3:56:4a:1f:62:d8:f9:30:6c:19:28:71:cf:
                    cf:8f:eb:64:ed:85:4b:e6:47:b5:8c:11:f4:7f:75:
                    aa:30:0f:fd:c9:4c:c8:0f:68:cb:8c:1e:a5:94:f8:
                    2c:43:9a:a4:ca:fb:66:be:a3:a8:51:4e:7a:b0:f4:
                    1a:c8:b7:70:e6:58:a9:fa:1e:6e:0c:e4:39:d0:55:
                    09:6b:53:dd:c6:da:20:df:a6:65:a8:6f:58:c6:35:
                    ce:ee:59:11:a2:14:c5:b0:7f:8f:94:8d:04:b0:be:
                    9d:29:3b:06:61:89:80:aa:76:d9:83:ff:7b:18:98:
                    40:a4:23:7a:35:c9:33:5b:fb:7f:52:33:52:9c:f9:
                    c0:48:da:b7:40:7d:96:97:b3:c9:33:92:a7:80:63:
                    99:de:e2:5a:da:5b:23:a6:67:4f:b8:83:02:b5:72:
                    5a:d6:0b:01:45:d3:82:dc:cf:99:40:66:ca:58:8e:
                    8c:42:eb:39:26:05:0f:61:07:64:4f:59:70:cd:7e:
                    df:e1:83:9d:28:55:77:4c:91:fa:d2:82:1f:ea:d8:
                    b8:b7:e7:e8:aa:d1:35:96:28:7c:07:38:40:79:9b:
                    2b:92:df
                Exponent: 65537 (0x10001)
        X509v3 extensions:
            X509v3 Basic Constraints: 
                CA:FALSE
            Netscape Comment: 
                Easy-RSA Generated Certificate
            X509v3 Subject Key Identifier: 
                DD:1C:3A:02:71:65:72:7F:6E:DB:B4:12:3B:0A:4D:83:1F:5F:74:E3
            X509v3 Authority Key Identifier: 
                keyid:12:CD:60:04:D2:A0:80:9E:70:ED:C6:99:B8:7B:2C:C6:52:FD:19:A1
                DirName:/C=US/ST=OH/L=Columbus/O=VikingVPN/OU=MyOrganizationalUnit/CN=VikingVPN CA/name=EasyRSA/emailAddress=me@myhost.mydomain
                serial:CF:35:85:EE:80:BF:2A:3E

            X509v3 Extended Key Usage: 
                TLS Web Client Authentication
            X509v3 Key Usage: 
                Digital Signature
    Signature Algorithm: sha256WithRSAEncryption
         10:8c:13:50:8a:8c:2f:1c:5e:64:52:ce:ec:6c:29:6f:e2:ce:
         44:dc:de:40:9a:de:88:2b:4e:bd:69:4f:62:d8:e3:88:48:c1:
         cc:33:b5:0f:84:93:d7:5e:5d:46:03:6d:c5:0b:e1:f7:88:76:
         61:ba:37:e9:4e:f3:58:47:3b:36:dc:de:37:41:6b:66:d1:67:
         85:40:cb:d9:77:24:b7:0f:a4:72:f1:36:37:8c:51:ef:ed:2f:
         19:2e:38:44:bb:fe:91:0c:1d:9d:80:e8:bd:3f:ee:d4:98:de:
         e7:3b:8b:15:a6:3c:12:6d:28:13:55:94:ea:2c:e4:ee:a0:75:
         e5:47:a7:4f:ae:de:8c:c0:0f:fe:ef:97:1c:14:55:04:d1:92:
         41:30:9d:b4:61:13:c4:df:2d:2c:2e:be:3f:94:ff:11:7f:1d:
         27:a4:94:64:b8:28:4c:6f:2a:a7:cd:c9:f8:0e:58:67:0b:80:
         49:63:62:23:50:89:71:70:c9:f7:b8:58:bb:5f:19:8a:56:c1:
         8b:d8:45:9b:71:a0:f8:b2:f1:e3:cf:14:af:29:2c:dd:c5:b4:
         02:d1:81:c7:a0:78:c0:92:9a:ed:e4:03:17:b3:eb:f2:99:14:
         74:c4:aa:91:2c:4b:2f:cc:1a:f0:8e:ce:5c:e3:2f:7d:6d:28:
         bf:fd:02:07:fb:d0:ab:60:d8:c4:41:9c:71:ab:b4:c2:76:e8:
         bf:85:e7:de:ec:31:1a:55:c2:ca:87:fe:2c:6b:d0:e2:7e:6e:
         19:9c:82:48:49:c1:7d:18:1d:bc:fb:3f:00:b9:5f:7b:71:37:
         cb:8c:39:c3:11:ae:46:21:23:f2:9b:f5:61:54:10:f5:eb:a7:
         5d:88:d8:24:a1:b1:b5:ae:4c:cb:8d:0c:f2:5a:10:be:7c:db:
         e9:7f:9e:14:98:7f:e7:df:1d:72:7b:58:80:a3:2f:a5:50:8a:
         1f:93:0a:44:a1:8d:28:36:14:4c:52:1f:6f:55:77:e1:24:85:
         2d:67:e8:77:51:4f:d3:0e:4c:a6:90:19:ff:7e:fa:b0:ba:c7:
         33:c4:b7:61:f5:a7:0b:e2:58:f5:3c:9c:f4:bf:41:95:01:70:
         6a:32:1d:5a:34:fa:62:45:78:1c:d8:39:c0:a5:7a:82:26:b8:
         45:7e:e5:ef:73:53:ab:ba:a7:dc:fe:ea:5e:e2:6a:d6:ce:6b:
         27:f1:bd:59:6e:19:1a:6c:7c:29:5c:63:13:d1:cb:10:93:63:
         e1:8f:05:05:91:24:8d:eb:15:54:8b:d9:9b:16:54:eb:69:5b:
         07:14:52:c1:66:10:49:08:3a:3f:86:18:0e:82:1b:5c:f2:58:
         c8:3e:bb:b8:70:2a:2a:46
-----BEGIN CERTIFICATE-----
MIIGrTCCBJWgAwIBAgICKRYwDQYJKoZIhvcNAQELBQAwgawxCzAJBgNVBAYTAlVT
MQswCQYDVQQIEwJPSDERMA8GA1UEBxMIQ29sdW1idXMxEjAQBgNVBAoTCVZpa2lu
Z1ZQTjEdMBsGA1UECxMUTXlPcmdhbml6YXRpb25hbFVuaXQxFTATBgNVBAMTDFZp
a2luZ1ZQTiBDQTEQMA4GA1UEKRMHRWFzeVJTQTEhMB8GCSqGSIb3DQEJARYSbWVA
bXlob3N0Lm15ZG9tYWluMB4XDTE3MDQwMzAxMDA1M1oXDTI3MDQwMTAxMDA1M1ow
HzEdMBsGA1UEAxMUQ2xpZW50MjgyMkNlcnQxZWEyMDIwggIiMA0GCSqGSIb3DQEB
AQUAA4ICDwAwggIKAoICAQC3saXjHKOpDBduo0x3JLo/JiOCyf+FYE27sBulaA/v
k9EgGpYfRuuArQBb8/qfC2HeJa4kByLl9BCheR10FUfLJa3kNrzn6RP+QVVrFOEM
iogK44s4W2US4/6Gcm/Ngcu4iV9WvryYh/TLWrLMzcCLxO1V7KuQ8SZNcdyLRXoj
M28aLS/7Ys0x9KJNFDZLcwavgD8i9PldLc9NHNwoynInjZ09HyUzTfsY1lNE7Kx2
N8WIXSthE0x5+DiXHa9G16eaPC6Vgp20GFrWYNdrWh8MffyV7bRzEktxKtqnnDgh
fE4mVgxEzmO0cmf1XRGzqlMuneYsoiXZuz4pMs9C1/C954zyKyIdrq8GF/UB7sHF
0JCK1XtM2s4cW3eXWfLE01ZKH2LY+TBsGShxz8+P62TthUvmR7WMEfR/daowD/3J
TMgPaMuMHqWU+CxDmqTK+2a+o6hRTnqw9BrIt3DmWKn6Hm4M5DnQVQlrU93G2iDf
pmWob1jGNc7uWRGiFMWwf4+UjQSwvp0pOwZhiYCqdtmD/3sYmECkI3o1yTNb+39S
M1Kc+cBI2rdAfZaXs8kzkqeAY5ne4lraWyOmZ0+4gwK1clrWCwFF04Lcz5lAZspY
joxC6zkmBQ9hB2RPWXDNft/hg50oVXdMkfrSgh/q2Li35+iq0TWWKHwHOEB5myuS
3wIDAQABo4IBYzCCAV8wCQYDVR0TBAIwADAtBglghkgBhvhCAQ0EIBYeRWFzeS1S
U0EgR2VuZXJhdGVkIENlcnRpZmljYXRlMB0GA1UdDgQWBBTdHDoCcWVyf27btBI7
Ck2DH1904zCB4QYDVR0jBIHZMIHWgBQSzWAE0qCAnnDtxpm4eyzGUv0ZoaGBsqSB
rzCBrDELMAkGA1UEBhMCVVMxCzAJBgNVBAgTAk9IMREwDwYDVQQHEwhDb2x1bWJ1
czESMBAGA1UEChMJVmlraW5nVlBOMR0wGwYDVQQLExRNeU9yZ2FuaXphdGlvbmFs
VW5pdDEVMBMGA1UEAxMMVmlraW5nVlBOIENBMRAwDgYDVQQpEwdFYXN5UlNBMSEw
HwYJKoZIhvcNAQkBFhJtZUBteWhvc3QubXlkb21haW6CCQDPNYXugL8qPjATBgNV
HSUEDDAKBggrBgEFBQcDAjALBgNVHQ8EBAMCB4AwDQYJKoZIhvcNAQELBQADggIB
ABCME1CKjC8cXmRSzuxsKW/izkTc3kCa3ogrTr1pT2LY44hIwcwztQ+Ek9deXUYD
bcUL4feIdmG6N+lO81hHOzbc3jdBa2bRZ4VAy9l3JLcPpHLxNjeMUe/tLxkuOES7
/pEMHZ2A6L0/7tSY3uc7ixWmPBJtKBNVlOos5O6gdeVHp0+u3ozAD/7vlxwUVQTR
kkEwnbRhE8TfLSwuvj+U/xF/HSeklGS4KExvKqfNyfgOWGcLgEljYiNQiXFwyfe4
WLtfGYpWwYvYRZtxoPiy8ePPFK8pLN3FtALRgcegeMCSmu3kAxez6/KZFHTEqpEs
Sy/MGvCOzlzjL31tKL/9Agf70Ktg2MRBnHGrtMJ26L+F597sMRpVwsqH/ixr0OJ+
bhmcgkhJwX0YHbz7PwC5X3txN8uMOcMRrkYhI/Kb9WFUEPXrp12I2CShsbWuTMuN
DPJaEL582+l/nhSYf+ffHXJ7WICjL6VQih+TCkShjSg2FExSH29Vd+EkhS1n6HdR
T9MOTKaQGf9++rC6xzPEt2H1pwviWPU8nPS/QZUBcGoyHVo0+mJFeBzYOcCleoIm
uEV+5e9zU6u6p9z+6l7iatbOayfxvVluGRpsfClcYxPRyxCTY+GPBQWRJI3rFVSL
2ZsWVOtpWwcUUsFmEEkIOj+GGA6CG1zyWMg+u7hwKipG
-----END CERTIFICATE-----
