Certificate:
    Data:
        Version: 3 (0x2)
        Serial Number: 10542 (0x292e)
    Signature Algorithm: sha256WithRSAEncryption
        Issuer: C=US, ST=OH, L=Columbus, O=VikingVPN, OU=MyOrganizationalUnit, CN=VikingVPN CA/name=EasyRSA/emailAddress=me@myhost.mydomain
        Validity
            Not Before: Apr  5 01:51:50 2017 GMT
            Not After : Apr  3 01:51:50 2027 GMT
        Subject: CN=Client1214Cert8767b1
        Subject Public Key Info:
            Public Key Algorithm: rsaEncryption
                Public-Key: (4096 bit)
                Modulus:
                    00:aa:f1:0d:01:1c:94:84:6a:8d:24:88:ce:5c:d0:
                    7b:d6:7f:3c:f3:f2:59:fa:63:6c:dd:b5:47:56:72:
                    82:2e:aa:ae:f1:7d:39:e2:04:94:ca:00:e8:3e:7a:
                    18:38:85:64:e7:c0:7c:8c:07:35:7c:60:53:ca:0e:
                    c2:27:59:28:22:63:c9:d1:c1:2d:4e:2c:d6:37:c3:
                    8f:cb:a5:e8:12:07:ea:72:2c:7a:13:b0:a4:c9:b0:
                    44:4d:c3:b5:29:fd:17:c0:7d:6d:c0:ef:6a:26:12:
                    5b:c5:a6:c4:21:57:83:d3:d5:29:26:23:0e:48:3c:
                    7b:dc:10:c1:84:cb:53:4c:7a:4e:aa:b9:27:fb:81:
                    9b:c3:d5:9a:81:5b:fa:5d:83:ff:b4:67:24:99:c5:
                    86:a2:ad:32:d8:73:58:b2:87:a6:b2:a6:da:82:e2:
                    42:46:87:11:e1:27:b0:7a:13:72:e6:99:fc:bf:dd:
                    0c:51:a8:de:1c:0c:79:78:41:26:69:12:fb:de:08:
                    8b:b7:e9:99:5e:56:57:31:d0:6e:e7:b7:e4:a7:6b:
                    4b:98:8b:65:1d:5b:9d:66:d0:c3:fe:17:f9:85:29:
                    c9:54:c1:a9:30:12:c8:4c:e4:cf:68:b0:84:ab:dc:
                    c8:2e:c3:ef:c7:27:4b:1d:8a:a8:85:17:f9:f8:d3:
                    95:0a:02:80:7b:b4:40:9d:e3:2c:6b:d8:0c:53:b3:
                    44:c4:d9:d1:ad:16:ec:40:bb:14:5d:84:af:2f:73:
                    f8:58:cf:3b:42:fc:6c:27:d4:b5:d3:09:03:23:8e:
                    17:92:2b:5a:55:c4:46:8c:3e:96:27:30:f3:ce:91:
                    e9:e5:95:cc:94:ec:77:bc:a1:74:6f:d1:6b:60:1b:
                    0d:77:fc:7b:2f:60:bc:57:bc:66:63:8a:0d:71:8d:
                    a3:19:5b:eb:80:71:63:17:c2:c5:9d:fb:51:96:15:
                    7b:da:93:a8:e0:75:95:8b:58:44:5c:71:67:b4:4f:
                    06:89:7d:56:76:38:cd:6b:a3:db:40:13:10:08:d8:
                    18:d0:c8:ee:5f:be:b9:53:a0:16:ec:2b:db:0c:52:
                    74:90:00:65:e2:f7:df:65:19:e5:1b:bf:2b:38:33:
                    37:eb:53:18:98:24:83:e3:00:5d:c6:ab:e0:29:94:
                    b7:4c:da:a3:83:07:7a:1e:a7:fa:2e:47:da:18:11:
                    ef:ed:29:b5:11:cf:70:c2:3f:f4:c7:d7:1d:b9:6a:
                    3c:94:1c:7b:22:e4:4f:78:dc:71:c4:cf:bf:ad:0c:
                    b1:08:91:18:97:7b:af:08:7a:4e:dc:40:88:26:cb:
                    32:58:74:79:16:0a:ec:8a:68:bc:94:8f:86:7b:bd:
                    3f:c6:5d
                Exponent: 65537 (0x10001)
        X509v3 extensions:
            X509v3 Basic Constraints: 
                CA:FALSE
            Netscape Comment: 
                Easy-RSA Generated Certificate
            X509v3 Subject Key Identifier: 
                0D:02:E1:3A:79:2C:00:21:9B:20:36:31:D1:F8:BC:C1:0A:A0:E8:9B
            X509v3 Authority Key Identifier: 
                keyid:12:CD:60:04:D2:A0:80:9E:70:ED:C6:99:B8:7B:2C:C6:52:FD:19:A1
                DirName:/C=US/ST=OH/L=Columbus/O=VikingVPN/OU=MyOrganizationalUnit/CN=VikingVPN CA/name=EasyRSA/emailAddress=me@myhost.mydomain
                serial:CF:35:85:EE:80:BF:2A:3E

            X509v3 Extended Key Usage: 
                TLS Web Client Authentication
            X509v3 Key Usage: 
                Digital Signature
    Signature Algorithm: sha256WithRSAEncryption
         9b:a7:bf:69:ee:c9:c7:2f:6a:d3:ff:de:55:3b:73:a8:e7:6a:
         e3:a2:84:f7:4e:bb:8c:ee:26:32:0c:80:cc:b9:72:d7:96:0d:
         25:88:9a:93:c4:9e:ea:d4:cf:05:16:3f:80:1b:08:8e:0e:b2:
         ca:82:40:e5:eb:d9:17:fc:f8:05:f7:0c:92:4f:49:f2:f2:39:
         31:26:13:44:9f:b1:63:2f:bd:7c:ce:ff:10:d3:6e:d7:aa:a3:
         44:59:15:06:16:91:a6:a4:1f:a8:78:0e:85:ef:8f:b6:53:bb:
         c6:42:ce:43:2e:cd:51:9a:5f:fd:4c:28:7e:68:ee:64:76:12:
         6a:49:6c:27:9a:53:30:38:3d:90:8a:a0:f5:dd:bd:65:8a:41:
         74:92:cc:df:ea:c4:84:fa:30:11:84:91:0b:bf:96:7e:b5:b0:
         05:d9:35:56:62:aa:e1:37:c4:ff:6c:51:82:2d:dd:ec:4d:70:
         17:db:52:b0:b2:3b:4f:99:17:8e:c4:5e:0b:51:d2:78:06:81:
         e5:e9:ff:02:f2:8b:b8:f2:61:23:4a:63:30:90:64:b1:61:a7:
         a3:67:dd:75:de:c4:53:f1:4f:bc:4c:cb:db:97:89:a4:07:0d:
         32:af:6c:f6:83:c0:c0:ef:8c:6c:21:1a:75:52:b4:64:82:8d:
         db:ef:ab:e2:4d:e5:93:70:74:b2:25:b2:de:64:b9:26:62:9a:
         8d:dd:0e:f0:b4:50:07:b6:5e:9c:1c:b6:23:0c:eb:22:51:fc:
         94:f6:4a:9d:ed:1d:7d:27:78:29:98:6f:fe:c3:f5:db:06:10:
         4f:2c:60:71:32:bd:59:2c:90:b4:67:48:16:b4:75:fc:36:73:
         58:21:64:ab:d6:e8:22:a2:a5:88:09:2f:d9:70:ea:f3:32:d4:
         b7:97:e9:94:91:72:b2:28:78:03:4f:9d:91:15:f8:55:5c:84:
         8e:dd:3f:3d:ca:fe:31:ec:f9:07:67:d7:6c:88:a8:77:71:cd:
         e8:71:94:e5:60:82:b0:15:1b:0d:e2:f4:e4:3b:33:e4:a0:88:
         3e:5c:29:1e:2a:b4:dc:51:c9:cc:bc:86:cd:5f:ea:7c:aa:2e:
         d4:76:d9:15:8a:22:2f:d3:0b:24:9a:1a:0b:94:53:f2:45:72:
         45:5d:7f:53:33:13:50:8d:71:43:4f:ad:67:56:e4:55:d7:13:
         22:be:1c:64:fa:04:aa:a1:ac:84:21:ee:b3:06:f3:f8:d7:2a:
         f2:5a:90:e3:29:82:dc:e6:78:3b:06:46:10:7a:25:79:ad:f0:
         f2:75:3e:84:da:65:89:bc:08:e9:cf:e6:87:ac:70:96:eb:38:
         c9:a0:d5:20:e7:c7:c9:38
-----BEGIN CERTIFICATE-----
MIIGrTCCBJWgAwIBAgICKS4wDQYJKoZIhvcNAQELBQAwgawxCzAJBgNVBAYTAlVT
MQswCQYDVQQIEwJPSDERMA8GA1UEBxMIQ29sdW1idXMxEjAQBgNVBAoTCVZpa2lu
Z1ZQTjEdMBsGA1UECxMUTXlPcmdhbml6YXRpb25hbFVuaXQxFTATBgNVBAMTDFZp
a2luZ1ZQTiBDQTEQMA4GA1UEKRMHRWFzeVJTQTEhMB8GCSqGSIb3DQEJARYSbWVA
bXlob3N0Lm15ZG9tYWluMB4XDTE3MDQwNTAxNTE1MFoXDTI3MDQwMzAxNTE1MFow
HzEdMBsGA1UEAxMUQ2xpZW50MTIxNENlcnQ4NzY3YjEwggIiMA0GCSqGSIb3DQEB
AQUAA4ICDwAwggIKAoICAQCq8Q0BHJSEao0kiM5c0HvWfzzz8ln6Y2zdtUdWcoIu
qq7xfTniBJTKAOg+ehg4hWTnwHyMBzV8YFPKDsInWSgiY8nRwS1OLNY3w4/LpegS
B+pyLHoTsKTJsERNw7Up/RfAfW3A72omElvFpsQhV4PT1SkmIw5IPHvcEMGEy1NM
ek6quSf7gZvD1ZqBW/pdg/+0ZySZxYairTLYc1iyh6ayptqC4kJGhxHhJ7B6E3Lm
mfy/3QxRqN4cDHl4QSZpEvveCIu36ZleVlcx0G7nt+Sna0uYi2UdW51m0MP+F/mF
KclUwakwEshM5M9osISr3Mguw+/HJ0sdiqiFF/n405UKAoB7tECd4yxr2AxTs0TE
2dGtFuxAuxRdhK8vc/hYzztC/Gwn1LXTCQMjjheSK1pVxEaMPpYnMPPOkenllcyU
7He8oXRv0WtgGw13/HsvYLxXvGZjig1xjaMZW+uAcWMXwsWd+1GWFXvak6jgdZWL
WERccWe0TwaJfVZ2OM1ro9tAExAI2BjQyO5fvrlToBbsK9sMUnSQAGXi999lGeUb
vys4MzfrUxiYJIPjAF3Gq+AplLdM2qODB3oep/ouR9oYEe/tKbURz3DCP/TH1x25
ajyUHHsi5E943HHEz7+tDLEIkRiXe68Iek7cQIgmyzJYdHkWCuyKaLyUj4Z7vT/G
XQIDAQABo4IBYzCCAV8wCQYDVR0TBAIwADAtBglghkgBhvhCAQ0EIBYeRWFzeS1S
U0EgR2VuZXJhdGVkIENlcnRpZmljYXRlMB0GA1UdDgQWBBQNAuE6eSwAIZsgNjHR
+LzBCqDomzCB4QYDVR0jBIHZMIHWgBQSzWAE0qCAnnDtxpm4eyzGUv0ZoaGBsqSB
rzCBrDELMAkGA1UEBhMCVVMxCzAJBgNVBAgTAk9IMREwDwYDVQQHEwhDb2x1bWJ1
czESMBAGA1UEChMJVmlraW5nVlBOMR0wGwYDVQQLExRNeU9yZ2FuaXphdGlvbmFs
VW5pdDEVMBMGA1UEAxMMVmlraW5nVlBOIENBMRAwDgYDVQQpEwdFYXN5UlNBMSEw
HwYJKoZIhvcNAQkBFhJtZUBteWhvc3QubXlkb21haW6CCQDPNYXugL8qPjATBgNV
HSUEDDAKBggrBgEFBQcDAjALBgNVHQ8EBAMCB4AwDQYJKoZIhvcNAQELBQADggIB
AJunv2nuyccvatP/3lU7c6jnauOihPdOu4zuJjIMgMy5cteWDSWImpPEnurUzwUW
P4AbCI4OssqCQOXr2Rf8+AX3DJJPSfLyOTEmE0SfsWMvvXzO/xDTbteqo0RZFQYW
kaakH6h4DoXvj7ZTu8ZCzkMuzVGaX/1MKH5o7mR2EmpJbCeaUzA4PZCKoPXdvWWK
QXSSzN/qxIT6MBGEkQu/ln61sAXZNVZiquE3xP9sUYIt3exNcBfbUrCyO0+ZF47E
XgtR0ngGgeXp/wLyi7jyYSNKYzCQZLFhp6Nn3XXexFPxT7xMy9uXiaQHDTKvbPaD
wMDvjGwhGnVStGSCjdvvq+JN5ZNwdLIlst5kuSZimo3dDvC0UAe2XpwctiMM6yJR
/JT2Sp3tHX0neCmYb/7D9dsGEE8sYHEyvVkskLRnSBa0dfw2c1ghZKvW6CKipYgJ
L9lw6vMy1LeX6ZSRcrIoeANPnZEV+FVchI7dPz3K/jHs+Qdn12yIqHdxzehxlOVg
grAVGw3i9OQ7M+SgiD5cKR4qtNxRycy8hs1f6nyqLtR22RWKIi/TCySaGguUU/JF
ckVdf1MzE1CNcUNPrWdW5FXXEyK+HGT6BKqhrIQh7rMG8/jXKvJakOMpgtzmeDsG
RhB6JXmt8PJ1PoTaZYm8COnP5oescJbrOMmg1SDnx8k4
-----END CERTIFICATE-----
