Certificate:
    Data:
        Version: 3 (0x2)
        Serial Number: 10552 (0x2938)
    Signature Algorithm: sha256WithRSAEncryption
        Issuer: C=US, ST=OH, L=Columbus, O=VikingVPN, OU=MyOrganizationalUnit, CN=VikingVPN CA/name=EasyRSA/emailAddress=me@myhost.mydomain
        Validity
            Not Before: Apr  5 16:14:27 2017 GMT
            Not After : Apr  3 16:14:27 2027 GMT
        Subject: CN=Client2840Cert7c5416
        Subject Public Key Info:
            Public Key Algorithm: rsaEncryption
                Public-Key: (4096 bit)
                Modulus:
                    00:b5:9e:0d:2e:74:1a:90:34:38:7c:94:3e:20:94:
                    eb:f6:89:96:1a:bc:46:f2:0b:52:18:3b:86:2d:12:
                    af:80:fe:d9:20:36:47:69:b6:78:c5:79:9b:8f:84:
                    71:b1:8d:0a:b3:00:5a:e8:d4:22:12:bb:07:77:0b:
                    bd:41:84:a1:9f:23:1e:75:69:b9:df:59:c9:19:6a:
                    62:8b:5f:b5:ce:eb:e7:a0:d0:d0:db:1b:1c:6d:d5:
                    9f:28:86:2d:7c:58:e6:99:0b:02:6b:03:84:1b:eb:
                    4b:57:5f:19:56:79:97:9d:76:c0:1f:15:42:0f:10:
                    38:18:4b:1f:10:08:9a:34:85:e2:66:0e:35:fa:9f:
                    30:74:12:01:b0:53:a9:7e:59:9b:3c:d8:97:07:22:
                    ff:65:91:a1:05:63:5a:ba:1d:5a:7e:35:51:2e:9e:
                    01:c3:23:f9:bb:bb:be:52:32:72:08:e5:2b:6f:59:
                    6a:da:15:41:4b:eb:bb:b3:6b:47:f5:67:97:1e:e9:
                    00:3f:f6:e8:d2:13:cb:fa:65:5c:27:7d:38:9f:0d:
                    d5:69:0c:8f:a6:1a:19:17:6e:c6:42:d7:26:36:bd:
                    48:1a:61:0e:90:06:42:c1:4a:04:72:4e:0f:1e:38:
                    d1:4e:18:8c:f3:1e:c6:d7:e6:d2:da:5e:81:1c:7f:
                    97:d7:85:13:25:93:1d:48:65:e4:95:c8:9a:54:1f:
                    a7:0d:37:70:7f:00:9e:98:ff:35:cd:de:b1:71:61:
                    df:7a:81:cd:31:4c:51:cc:54:8d:27:d2:57:44:3e:
                    10:96:34:b9:0f:ec:ce:aa:64:12:85:c3:38:be:54:
                    07:5a:18:ca:34:ab:65:ae:39:de:1e:99:2b:1b:8f:
                    29:03:55:cc:ba:72:af:90:3e:29:b8:f4:6e:8b:ce:
                    01:d5:95:1a:76:86:ec:5c:81:78:f2:6f:81:ad:3a:
                    5d:82:97:ad:85:73:f6:2f:4f:05:61:c5:9e:3b:30:
                    35:a4:e0:17:1f:1d:b4:ac:f6:fc:b5:f7:a0:f5:be:
                    35:12:22:6c:0d:45:29:c4:a0:7b:ec:8f:3a:71:46:
                    bc:e3:82:f5:e8:38:dd:be:09:8d:38:b2:e5:87:1d:
                    e8:03:2b:5a:ad:64:e2:c7:e0:76:0f:87:3c:95:ef:
                    5a:27:95:18:e8:5b:6c:43:34:d3:a4:6b:40:ad:ee:
                    dc:82:d3:37:31:c0:6b:7f:47:54:be:38:e7:26:dd:
                    52:1e:40:da:aa:2d:ce:05:fa:0d:6d:f7:c2:89:ac:
                    aa:7a:9a:b2:18:0e:43:52:b9:92:a5:13:f3:5c:a1:
                    c8:07:17:49:a0:e0:24:fc:65:4b:96:66:50:e2:7a:
                    32:b7:df
                Exponent: 65537 (0x10001)
        X509v3 extensions:
            X509v3 Basic Constraints: 
                CA:FALSE
            Netscape Comment: 
                Easy-RSA Generated Certificate
            X509v3 Subject Key Identifier: 
                65:34:DA:D3:FF:DD:08:F7:C9:76:F7:A9:F6:92:1F:30:03:4D:B6:CD
            X509v3 Authority Key Identifier: 
                keyid:12:CD:60:04:D2:A0:80:9E:70:ED:C6:99:B8:7B:2C:C6:52:FD:19:A1
                DirName:/C=US/ST=OH/L=Columbus/O=VikingVPN/OU=MyOrganizationalUnit/CN=VikingVPN CA/name=EasyRSA/emailAddress=me@myhost.mydomain
                serial:CF:35:85:EE:80:BF:2A:3E

            X509v3 Extended Key Usage: 
                TLS Web Client Authentication
            X509v3 Key Usage: 
                Digital Signature
    Signature Algorithm: sha256WithRSAEncryption
         81:ad:65:6b:d7:64:0a:c2:5b:16:b6:e2:a9:f0:55:d8:b7:ea:
         d0:ba:80:ca:21:f2:4b:03:d7:76:fd:aa:7d:77:97:8c:d1:a9:
         76:c8:51:d3:0e:c5:70:46:e6:6b:18:0e:be:b8:ca:92:26:d3:
         19:6d:c3:40:f3:22:50:5c:b5:32:f0:4f:1b:d4:4d:08:b0:09:
         1a:24:3f:34:69:c5:27:f5:e9:2f:aa:64:5f:f1:2e:3e:75:bc:
         2e:3f:47:d1:f5:73:d4:9f:95:93:4f:39:66:d0:21:20:a5:ca:
         fd:7e:0b:27:d9:c5:ca:af:18:cd:dc:ea:63:36:b7:0e:cc:ca:
         a8:16:c9:75:93:9c:13:69:ea:51:5e:a5:f1:c5:d3:b0:b1:72:
         a8:1d:d9:0e:37:90:6b:9f:21:a9:93:0e:92:b8:5a:15:f6:1e:
         47:9f:92:ea:57:d8:60:c5:88:ba:15:7d:4b:99:8b:96:6b:a8:
         77:2c:82:88:79:23:a1:0e:9f:04:17:5c:cb:0d:61:ac:0a:48:
         7b:e0:f2:eb:96:70:6b:4a:b3:24:3c:c6:5b:ca:3e:90:43:5e:
         5b:50:2f:76:07:f4:02:6f:e6:f8:91:2f:fa:8a:b5:d3:a1:8d:
         51:08:84:b6:32:69:fd:80:0b:f7:1d:be:e2:f2:f4:dc:98:b6:
         aa:e5:04:1f:a3:2e:7a:72:2b:28:9d:2a:3c:2f:86:89:52:17:
         c5:ed:2f:1e:03:be:d6:66:d3:18:28:c9:59:c2:91:54:d2:a8:
         52:c9:ca:3a:c7:d1:34:2e:d6:b7:20:e1:30:70:ef:4f:ea:dc:
         0a:9e:f1:a6:b6:64:16:43:ca:f7:6d:86:07:5a:36:0d:ef:d5:
         24:93:5a:63:e6:9c:27:75:80:7b:39:44:81:67:d1:46:39:0d:
         5b:0b:e5:b2:cf:9b:ec:0d:ee:97:fd:a6:86:54:9a:81:4e:89:
         49:0a:3f:9f:36:54:58:86:3a:d6:07:22:c7:c7:78:dc:1e:f4:
         2c:b7:22:55:56:cb:35:1d:10:09:f6:59:bb:5c:ab:b6:44:d0:
         f4:e1:08:b3:73:9a:e7:96:72:2d:6d:2e:2b:07:38:1f:fd:03:
         5a:aa:41:17:ac:ae:b3:05:3e:72:3b:70:19:f4:d2:3d:62:5c:
         af:b6:9e:8e:5e:73:2f:ac:85:14:6e:0c:25:be:1f:c0:44:f9:
         ad:c7:06:77:06:ef:05:ad:0e:b9:82:9e:0e:07:c9:20:2e:48:
         77:13:f0:0d:2f:74:28:e0:37:5c:b7:f8:5a:02:ce:f7:86:6b:
         18:e6:7f:d2:62:c5:db:53:3a:b7:c1:82:ed:11:4c:37:c5:52:
         15:37:4a:99:d4:94:b6:ae
-----BEGIN CERTIFICATE-----
MIIGrTCCBJWgAwIBAgICKTgwDQYJKoZIhvcNAQELBQAwgawxCzAJBgNVBAYTAlVT
MQswCQYDVQQIEwJPSDERMA8GA1UEBxMIQ29sdW1idXMxEjAQBgNVBAoTCVZpa2lu
Z1ZQTjEdMBsGA1UECxMUTXlPcmdhbml6YXRpb25hbFVuaXQxFTATBgNVBAMTDFZp
a2luZ1ZQTiBDQTEQMA4GA1UEKRMHRWFzeVJTQTEhMB8GCSqGSIb3DQEJARYSbWVA
bXlob3N0Lm15ZG9tYWluMB4XDTE3MDQwNTE2MTQyN1oXDTI3MDQwMzE2MTQyN1ow
HzEdMBsGA1UEAxMUQ2xpZW50Mjg0MENlcnQ3YzU0MTYwggIiMA0GCSqGSIb3DQEB
AQUAA4ICDwAwggIKAoICAQC1ng0udBqQNDh8lD4glOv2iZYavEbyC1IYO4YtEq+A
/tkgNkdptnjFeZuPhHGxjQqzAFro1CISuwd3C71BhKGfIx51abnfWckZamKLX7XO
6+eg0NDbGxxt1Z8ohi18WOaZCwJrA4Qb60tXXxlWeZeddsAfFUIPEDgYSx8QCJo0
heJmDjX6nzB0EgGwU6l+WZs82JcHIv9lkaEFY1q6HVp+NVEungHDI/m7u75SMnII
5StvWWraFUFL67uza0f1Z5ce6QA/9ujSE8v6ZVwnfTifDdVpDI+mGhkXbsZC1yY2
vUgaYQ6QBkLBSgRyTg8eONFOGIzzHsbX5tLaXoEcf5fXhRMlkx1IZeSVyJpUH6cN
N3B/AJ6Y/zXN3rFxYd96gc0xTFHMVI0n0ldEPhCWNLkP7M6qZBKFwzi+VAdaGMo0
q2WuOd4emSsbjykDVcy6cq+QPim49G6LzgHVlRp2huxcgXjyb4GtOl2Cl62Fc/Yv
TwVhxZ47MDWk4BcfHbSs9vy196D1vjUSImwNRSnEoHvsjzpxRrzjgvXoON2+CY04
suWHHegDK1qtZOLH4HYPhzyV71onlRjoW2xDNNOka0Ct7tyC0zcxwGt/R1S+OOcm
3VIeQNqqLc4F+g1t98KJrKp6mrIYDkNSuZKlE/NcocgHF0mg4CT8ZUuWZlDiejK3
3wIDAQABo4IBYzCCAV8wCQYDVR0TBAIwADAtBglghkgBhvhCAQ0EIBYeRWFzeS1S
U0EgR2VuZXJhdGVkIENlcnRpZmljYXRlMB0GA1UdDgQWBBRlNNrT/90I98l296n2
kh8wA022zTCB4QYDVR0jBIHZMIHWgBQSzWAE0qCAnnDtxpm4eyzGUv0ZoaGBsqSB
rzCBrDELMAkGA1UEBhMCVVMxCzAJBgNVBAgTAk9IMREwDwYDVQQHEwhDb2x1bWJ1
czESMBAGA1UEChMJVmlraW5nVlBOMR0wGwYDVQQLExRNeU9yZ2FuaXphdGlvbmFs
VW5pdDEVMBMGA1UEAxMMVmlraW5nVlBOIENBMRAwDgYDVQQpEwdFYXN5UlNBMSEw
HwYJKoZIhvcNAQkBFhJtZUBteWhvc3QubXlkb21haW6CCQDPNYXugL8qPjATBgNV
HSUEDDAKBggrBgEFBQcDAjALBgNVHQ8EBAMCB4AwDQYJKoZIhvcNAQELBQADggIB
AIGtZWvXZArCWxa24qnwVdi36tC6gMoh8ksD13b9qn13l4zRqXbIUdMOxXBG5msY
Dr64ypIm0xltw0DzIlBctTLwTxvUTQiwCRokPzRpxSf16S+qZF/xLj51vC4/R9H1
c9SflZNPOWbQISClyv1+CyfZxcqvGM3c6mM2tw7MyqgWyXWTnBNp6lFepfHF07Cx
cqgd2Q43kGufIamTDpK4WhX2HkefkupX2GDFiLoVfUuZi5ZrqHcsgoh5I6EOnwQX
XMsNYawKSHvg8uuWcGtKsyQ8xlvKPpBDXltQL3YH9AJv5viRL/qKtdOhjVEIhLYy
af2AC/cdvuLy9NyYtqrlBB+jLnpyKyidKjwvholSF8XtLx4DvtZm0xgoyVnCkVTS
qFLJyjrH0TQu1rcg4TBw70/q3Aqe8aa2ZBZDyvdthgdaNg3v1SSTWmPmnCd1gHs5
RIFn0UY5DVsL5bLPm+wN7pf9poZUmoFOiUkKP582VFiGOtYHIsfHeNwe9Cy3IlVW
yzUdEAn2Wbtcq7ZE0PThCLNzmueWci1tLisHOB/9A1qqQResrrMFPnI7cBn00j1i
XK+2no5ecy+shRRuDCW+H8BE+a3HBncG7wWtDrmCng4HySAuSHcT8A0vdCjgN1y3
+FoCzveGaxjmf9JixdtTOrfBgu0RTDfFUhU3SpnUlLau
-----END CERTIFICATE-----
