Certificate:
    Data:
        Version: 3 (0x2)
        Serial Number: 10604 (0x296c)
    Signature Algorithm: sha256WithRSAEncryption
        Issuer: C=US, ST=OH, L=Columbus, O=VikingVPN, OU=MyOrganizationalUnit, CN=VikingVPN CA/name=EasyRSA/emailAddress=me@myhost.mydomain
        Validity
            Not Before: Apr  8 17:43:42 2017 GMT
            Not After : Apr  6 17:43:42 2027 GMT
        Subject: CN=Client2854Cert47ce1e
        Subject Public Key Info:
            Public Key Algorithm: rsaEncryption
                Public-Key: (4096 bit)
                Modulus:
                    00:c2:22:40:fe:8b:5b:76:67:f1:f3:2f:bb:d9:13:
                    0c:2e:80:28:dd:6d:29:c7:af:6c:b6:fc:c5:66:8c:
                    a5:5b:e5:82:67:0e:1e:73:da:10:5c:8e:75:21:fe:
                    1f:5e:b1:b8:02:4e:dd:1e:b2:6b:1f:f5:c8:f4:b4:
                    a1:90:c4:85:98:be:76:fd:12:2e:60:ca:d5:c2:02:
                    ca:e8:43:36:1f:6f:ef:91:b3:b5:c1:dd:21:56:14:
                    64:6a:16:00:50:e1:75:e6:b1:f1:6a:16:2b:2f:9a:
                    fd:dc:65:2a:30:e4:8a:aa:2b:17:0d:07:ce:18:e7:
                    00:69:0f:60:66:b1:e9:86:48:29:11:cd:a0:fe:5a:
                    6b:59:8a:db:6b:68:e7:7d:a8:80:ca:d3:c2:07:d9:
                    a4:05:8c:da:e8:d9:ea:87:0d:70:a9:b2:88:97:3b:
                    d1:29:92:8d:23:5b:13:87:dd:33:15:be:bf:85:22:
                    93:eb:b5:98:36:8f:f7:e8:29:b1:e1:26:39:50:8e:
                    d4:8e:5b:1b:2f:6b:b0:29:93:56:6b:a3:c2:71:a0:
                    30:00:8c:03:db:d9:a2:72:e0:a8:35:4a:8f:8e:c9:
                    8f:8e:26:34:c5:e9:68:5b:f4:73:0d:f3:f4:14:80:
                    7a:c1:58:ad:9d:67:51:e3:f4:6d:fd:fa:1c:7e:77:
                    7e:dd:1f:1c:31:a9:1a:39:98:e7:fd:83:f9:77:8a:
                    e0:e0:86:e4:67:e9:9d:5a:e5:61:d8:bb:5f:27:62:
                    9d:bb:f4:a5:55:9f:91:84:3e:31:8d:54:4e:80:b2:
                    9f:64:88:36:e5:8a:a1:6c:cc:fa:96:16:25:79:82:
                    0d:1a:4e:fd:29:2c:28:e7:58:6b:01:24:8b:57:af:
                    54:a7:08:97:eb:02:39:24:f9:2d:b8:b6:30:71:2b:
                    6c:b6:c1:14:10:77:a4:2b:5c:64:ba:c5:35:2b:bc:
                    77:95:05:20:7d:bd:7d:7f:4a:d3:fe:2f:b8:f8:0b:
                    c8:b4:5f:91:9a:a1:7e:8f:84:f2:92:a6:2e:78:bc:
                    7d:97:59:b8:bf:45:1c:5b:41:11:ac:50:8a:5d:71:
                    78:6a:3d:b4:5c:91:2d:03:56:ed:79:17:b3:45:5f:
                    f2:3e:c2:bf:1c:78:e1:3d:f0:f5:78:be:14:54:66:
                    3a:52:f9:2f:ae:94:f6:f8:09:1a:b2:79:42:73:ea:
                    9c:ce:ef:4e:4e:37:5e:4c:c9:50:e4:93:91:8a:e4:
                    e0:9a:dc:88:1b:53:a3:09:69:60:0f:51:cd:c9:37:
                    17:bf:88:36:53:a5:f0:8e:bb:11:09:04:b9:a3:be:
                    00:2a:4b:1e:24:a7:86:e9:5b:5d:39:e0:32:d4:39:
                    c6:bc:3f
                Exponent: 65537 (0x10001)
        X509v3 extensions:
            X509v3 Basic Constraints: 
                CA:FALSE
            Netscape Comment: 
                Easy-RSA Generated Certificate
            X509v3 Subject Key Identifier: 
                AA:55:7E:CA:8A:2C:87:88:58:34:59:9B:65:02:F0:F3:78:3B:7B:D4
            X509v3 Authority Key Identifier: 
                keyid:12:CD:60:04:D2:A0:80:9E:70:ED:C6:99:B8:7B:2C:C6:52:FD:19:A1
                DirName:/C=US/ST=OH/L=Columbus/O=VikingVPN/OU=MyOrganizationalUnit/CN=VikingVPN CA/name=EasyRSA/emailAddress=me@myhost.mydomain
                serial:CF:35:85:EE:80:BF:2A:3E

            X509v3 Extended Key Usage: 
                TLS Web Client Authentication
            X509v3 Key Usage: 
                Digital Signature
    Signature Algorithm: sha256WithRSAEncryption
         7f:60:bf:b4:7b:88:73:43:f5:c0:7e:56:95:fa:7d:f0:71:19:
         4b:ce:86:b6:c2:85:87:a5:d3:d3:47:a5:96:db:bf:7d:c7:1e:
         23:c5:ee:9c:8c:4e:e5:59:d7:b5:8d:31:f7:76:33:e2:d7:5b:
         9d:9b:47:32:45:76:e6:9b:a6:a2:f5:62:e0:5e:fe:f3:5b:07:
         df:20:4b:99:01:58:35:60:b4:57:da:a1:36:92:df:79:4c:9f:
         ef:b3:02:52:5a:8c:32:c5:0c:6b:eb:e5:62:f8:52:28:44:fc:
         c2:fc:a4:ca:5f:fa:52:63:20:c5:74:d6:18:7e:ab:2e:78:c3:
         72:2d:46:30:f0:88:99:ca:be:5c:e2:99:d5:36:b5:c2:be:4a:
         bf:76:ab:12:3e:bd:34:e8:df:4a:76:9a:33:9a:ea:29:d2:1b:
         dc:8b:a6:50:71:84:8d:d2:79:40:82:d9:f7:56:5c:95:2f:f8:
         d1:b1:48:85:dc:9c:9a:2b:96:5d:55:ee:28:99:f9:ec:cd:6d:
         1b:df:33:86:32:8e:53:fb:76:f1:5e:0e:11:8d:7c:58:96:95:
         09:21:60:9a:e3:bb:d6:c4:09:51:af:4f:a9:dd:63:13:d2:7c:
         e7:7c:33:cd:bb:fb:d1:74:7b:63:a4:71:de:b4:9c:e4:ae:c6:
         c8:f4:be:b7:0c:59:3a:86:9b:c4:f9:f0:da:49:9e:8d:b7:c0:
         6a:c4:5a:93:54:69:26:37:e6:8c:af:86:eb:e6:21:c8:94:ca:
         e0:dc:67:44:9d:0f:4a:de:4e:d3:dd:4b:12:41:6c:b5:be:f8:
         7c:83:6a:fd:aa:d9:dc:14:5b:a1:85:c2:c6:0b:ba:e1:c9:62:
         a6:7e:23:35:29:86:9b:99:dd:3c:a8:4c:2a:d0:43:89:a6:0c:
         4a:63:58:47:67:82:cb:7e:df:d5:56:29:4a:98:5d:5c:4a:f1:
         50:4c:4d:2c:06:ab:a0:d4:f8:7d:1f:06:14:6a:0b:46:42:e5:
         a6:67:86:0b:b9:10:56:30:db:99:7a:9a:ab:33:4a:78:a9:ff:
         10:a0:ed:10:31:00:f5:6d:00:f6:51:2a:51:d9:f5:e8:6b:47:
         73:a0:e1:6f:b5:8c:ab:2b:21:97:af:f9:7b:b0:b1:9f:30:e3:
         cc:99:43:0b:07:37:8b:c0:ea:02:09:7c:cb:93:ed:1d:3a:c2:
         5a:cc:cc:6d:70:31:ff:2a:77:21:2d:21:7c:90:c3:1c:ad:96:
         10:c5:7a:0f:69:12:46:36:06:0a:2d:27:e1:2b:1b:fa:fc:05:
         9b:e8:d0:fe:5c:7d:17:c2:23:a8:6e:f7:4b:54:d3:b7:d7:13:
         3e:1e:d5:92:a9:3a:28:b4
-----BEGIN CERTIFICATE-----
MIIGrTCCBJWgAwIBAgICKWwwDQYJKoZIhvcNAQELBQAwgawxCzAJBgNVBAYTAlVT
MQswCQYDVQQIEwJPSDERMA8GA1UEBxMIQ29sdW1idXMxEjAQBgNVBAoTCVZpa2lu
Z1ZQTjEdMBsGA1UECxMUTXlPcmdhbml6YXRpb25hbFVuaXQxFTATBgNVBAMTDFZp
a2luZ1ZQTiBDQTEQMA4GA1UEKRMHRWFzeVJTQTEhMB8GCSqGSIb3DQEJARYSbWVA
bXlob3N0Lm15ZG9tYWluMB4XDTE3MDQwODE3NDM0MloXDTI3MDQwNjE3NDM0Mlow
HzEdMBsGA1UEAxMUQ2xpZW50Mjg1NENlcnQ0N2NlMWUwggIiMA0GCSqGSIb3DQEB
AQUAA4ICDwAwggIKAoICAQDCIkD+i1t2Z/HzL7vZEwwugCjdbSnHr2y2/MVmjKVb
5YJnDh5z2hBcjnUh/h9esbgCTt0esmsf9cj0tKGQxIWYvnb9Ei5gytXCAsroQzYf
b++Rs7XB3SFWFGRqFgBQ4XXmsfFqFisvmv3cZSow5IqqKxcNB84Y5wBpD2BmsemG
SCkRzaD+WmtZittraOd9qIDK08IH2aQFjNro2eqHDXCpsoiXO9Epko0jWxOH3TMV
vr+FIpPrtZg2j/foKbHhJjlQjtSOWxsva7Apk1Zro8JxoDAAjAPb2aJy4Kg1So+O
yY+OJjTF6Whb9HMN8/QUgHrBWK2dZ1Hj9G39+hx+d37dHxwxqRo5mOf9g/l3iuDg
huRn6Z1a5WHYu18nYp279KVVn5GEPjGNVE6Asp9kiDbliqFszPqWFiV5gg0aTv0p
LCjnWGsBJItXr1SnCJfrAjkk+S24tjBxK2y2wRQQd6QrXGS6xTUrvHeVBSB9vX1/
StP+L7j4C8i0X5GaoX6PhPKSpi54vH2XWbi/RRxbQRGsUIpdcXhqPbRckS0DVu15
F7NFX/I+wr8ceOE98PV4vhRUZjpS+S+ulPb4CRqyeUJz6pzO705ON15MyVDkk5GK
5OCa3IgbU6MJaWAPUc3JNxe/iDZTpfCOuxEJBLmjvgAqSx4kp4bpW1054DLUOca8
PwIDAQABo4IBYzCCAV8wCQYDVR0TBAIwADAtBglghkgBhvhCAQ0EIBYeRWFzeS1S
U0EgR2VuZXJhdGVkIENlcnRpZmljYXRlMB0GA1UdDgQWBBSqVX7KiiyHiFg0WZtl
AvDzeDt71DCB4QYDVR0jBIHZMIHWgBQSzWAE0qCAnnDtxpm4eyzGUv0ZoaGBsqSB
rzCBrDELMAkGA1UEBhMCVVMxCzAJBgNVBAgTAk9IMREwDwYDVQQHEwhDb2x1bWJ1
czESMBAGA1UEChMJVmlraW5nVlBOMR0wGwYDVQQLExRNeU9yZ2FuaXphdGlvbmFs
VW5pdDEVMBMGA1UEAxMMVmlraW5nVlBOIENBMRAwDgYDVQQpEwdFYXN5UlNBMSEw
HwYJKoZIhvcNAQkBFhJtZUBteWhvc3QubXlkb21haW6CCQDPNYXugL8qPjATBgNV
HSUEDDAKBggrBgEFBQcDAjALBgNVHQ8EBAMCB4AwDQYJKoZIhvcNAQELBQADggIB
AH9gv7R7iHND9cB+VpX6ffBxGUvOhrbChYel09NHpZbbv33HHiPF7pyMTuVZ17WN
Mfd2M+LXW52bRzJFduabpqL1YuBe/vNbB98gS5kBWDVgtFfaoTaS33lMn++zAlJa
jDLFDGvr5WL4UihE/ML8pMpf+lJjIMV01hh+qy54w3ItRjDwiJnKvlzimdU2tcK+
Sr92qxI+vTTo30p2mjOa6inSG9yLplBxhI3SeUCC2fdWXJUv+NGxSIXcnJorll1V
7iiZ+ezNbRvfM4YyjlP7dvFeDhGNfFiWlQkhYJrju9bECVGvT6ndYxPSfOd8M827
+9F0e2Okcd60nOSuxsj0vrcMWTqGm8T58NpJno23wGrEWpNUaSY35oyvhuvmIciU
yuDcZ0SdD0reTtPdSxJBbLW++HyDav2q2dwUW6GFwsYLuuHJYqZ+IzUphpuZ3Tyo
TCrQQ4mmDEpjWEdngst+39VWKUqYXVxK8VBMTSwGq6DU+H0fBhRqC0ZC5aZnhgu5
EFYw25l6mqszSnip/xCg7RAxAPVtAPZRKlHZ9ehrR3Og4W+1jKsrIZev+XuwsZ8w
48yZQwsHN4vA6gIJfMuT7R06wlrMzG1wMf8qdyEtIXyQwxytlhDFeg9pEkY2Bgot
J+ErG/r8BZvo0P5cfRfCI6hu90tU07fXEz4e1ZKpOii0
-----END CERTIFICATE-----
