Certificate:
    Data:
        Version: 3 (0x2)
        Serial Number: 10612 (0x2974)
    Signature Algorithm: sha256WithRSAEncryption
        Issuer: C=US, ST=OH, L=Columbus, O=VikingVPN, OU=MyOrganizationalUnit, CN=VikingVPN CA/name=EasyRSA/emailAddress=me@myhost.mydomain
        Validity
            Not Before: Apr  9 15:23:44 2017 GMT
            Not After : Apr  7 15:23:44 2027 GMT
        Subject: CN=Client2730Certb869bd
        Subject Public Key Info:
            Public Key Algorithm: rsaEncryption
                Public-Key: (4096 bit)
                Modulus:
                    00:a2:e8:8b:16:f4:43:93:7c:0e:70:21:2b:31:3f:
                    de:3c:2c:f8:5c:58:19:81:8b:b7:4a:4d:a2:15:56:
                    03:da:80:20:10:b8:1c:b5:de:04:64:cc:ca:69:db:
                    ca:d1:5b:67:26:54:4a:6d:a7:f5:4b:7b:25:f8:88:
                    22:dd:ee:1c:0c:b3:ca:57:74:18:ea:29:2b:1f:a5:
                    af:a7:b6:cf:eb:76:26:f9:ca:55:c3:ba:9f:83:ba:
                    06:11:b2:c2:0b:6c:9e:a7:4d:6d:6b:84:5a:1c:52:
                    23:e5:ac:c1:c9:f5:58:ad:fc:d8:b8:6d:43:2f:78:
                    77:9c:3b:88:74:e4:19:fd:a2:3a:df:3f:39:13:7d:
                    cd:64:e2:95:c2:8b:bd:19:74:41:1f:7d:cf:0b:9b:
                    b8:88:5c:fb:7a:40:53:cd:8b:02:cf:91:bf:c6:eb:
                    e5:84:41:ff:dd:9b:33:18:0a:24:6f:f6:6d:d8:1d:
                    98:33:3e:b6:2c:1d:6f:3b:7f:35:0e:a1:a3:11:96:
                    49:80:66:cb:75:97:34:7b:18:3d:74:13:75:f5:5a:
                    c7:92:b2:ef:e5:3f:8b:69:88:b4:a6:3c:ef:c5:2f:
                    0c:61:ac:64:3e:69:0b:aa:f9:ef:be:22:a7:e4:37:
                    93:01:fc:4b:48:a4:65:ba:68:60:ad:f6:07:49:69:
                    10:b6:60:f2:65:e4:14:dd:a7:1a:31:22:58:4c:6e:
                    d4:f5:e1:6e:7e:d9:a5:a3:b8:dd:5b:98:9d:7f:3b:
                    e9:db:c7:dd:17:65:b5:d3:82:9d:d0:31:16:71:cc:
                    f4:22:00:18:c0:cc:42:8a:c2:c9:7f:40:ae:15:c3:
                    6b:57:1f:dc:66:da:4f:35:8b:47:97:03:cf:13:04:
                    b1:b6:93:7c:9d:09:57:09:a9:a2:72:24:64:7a:60:
                    ae:e5:cd:be:d5:f9:73:ac:6e:e6:4c:fc:5d:4b:70:
                    d7:0f:74:dd:0a:b5:9b:84:e8:c1:89:4b:f8:b7:64:
                    dd:86:51:70:97:41:e0:29:d5:92:7c:4e:8f:b7:ba:
                    4e:30:2a:49:3a:4a:12:54:f3:72:b4:32:57:5a:93:
                    fc:f4:53:2d:63:e6:d3:26:96:fb:17:55:50:f6:9c:
                    71:6e:ce:30:00:e6:44:63:49:f5:28:0f:f2:ca:71:
                    61:20:a8:ba:63:ba:f7:e7:eb:aa:58:dc:73:52:4d:
                    a0:b8:7e:af:61:44:4b:f8:6c:87:69:54:32:73:51:
                    e4:fa:d9:1b:69:56:11:2e:af:37:93:96:b8:ed:b7:
                    96:1e:7e:26:82:2d:76:76:0e:aa:46:8b:ce:29:c5:
                    22:3c:d9:52:93:b4:25:1d:0c:85:9b:02:9c:1b:2d:
                    8d:b1:f1
                Exponent: 65537 (0x10001)
        X509v3 extensions:
            X509v3 Basic Constraints: 
                CA:FALSE
            Netscape Comment: 
                Easy-RSA Generated Certificate
            X509v3 Subject Key Identifier: 
                2C:43:86:1D:6C:02:42:0C:8B:90:CC:A2:EA:43:33:B8:70:C9:77:93
            X509v3 Authority Key Identifier: 
                keyid:12:CD:60:04:D2:A0:80:9E:70:ED:C6:99:B8:7B:2C:C6:52:FD:19:A1
                DirName:/C=US/ST=OH/L=Columbus/O=VikingVPN/OU=MyOrganizationalUnit/CN=VikingVPN CA/name=EasyRSA/emailAddress=me@myhost.mydomain
                serial:CF:35:85:EE:80:BF:2A:3E

            X509v3 Extended Key Usage: 
                TLS Web Client Authentication
            X509v3 Key Usage: 
                Digital Signature
    Signature Algorithm: sha256WithRSAEncryption
         a9:6e:41:c4:d2:f2:2c:ac:98:b1:7d:90:46:9e:d0:67:5d:3c:
         ed:4a:b4:59:8e:02:4f:e0:49:1b:95:c9:72:b4:f1:45:95:78:
         4c:48:d3:77:60:95:de:36:43:78:53:45:8c:99:36:83:45:a1:
         3a:22:52:1e:9b:c4:fb:99:13:24:b0:ad:a3:28:9a:20:46:02:
         d4:74:e7:5f:da:88:3f:5b:ca:4c:bd:94:11:5d:c5:ce:7a:c5:
         c6:d4:ab:d3:1e:6a:02:a2:a9:49:86:af:98:32:40:33:85:1e:
         92:97:e2:fc:21:4f:cc:ba:90:91:57:3f:41:50:6e:e2:89:25:
         47:ed:a9:84:cf:57:6d:7a:d0:12:8d:58:1e:f3:c6:8f:5b:87:
         12:f0:55:59:d1:d1:e1:b0:f4:7a:b7:85:25:d4:84:6c:45:5f:
         f4:55:97:8f:87:64:24:8f:2b:e3:b4:8b:17:ee:ef:e3:2e:c6:
         8c:42:2d:9f:9c:b2:38:33:8b:32:60:de:a6:b9:dd:f6:0f:48:
         c1:02:c6:63:d1:0f:d8:72:4a:db:1c:53:92:ac:2f:f2:5c:58:
         35:2c:5e:12:07:01:8c:e1:12:9e:0f:36:15:ba:2b:b3:0f:8c:
         ff:69:f4:72:81:8d:71:e3:8f:d2:48:d8:21:d6:6b:ab:10:1d:
         70:bf:ab:c1:e0:1e:b6:ae:c8:59:45:d3:75:63:fc:eb:52:96:
         e9:3a:68:3f:b4:3a:90:21:45:94:94:17:8f:5d:bc:c0:7e:0c:
         e3:a3:b2:5d:f1:dc:2e:06:67:1e:eb:f3:25:ea:19:99:6b:7a:
         fa:33:b7:80:75:0d:11:83:89:b1:11:23:74:e2:02:d6:91:e4:
         87:dd:b1:b6:66:26:7e:f4:70:00:f6:98:59:5d:2c:90:a2:21:
         ab:fa:62:2c:7f:ca:c3:8d:8a:c8:65:97:1a:69:7e:97:b5:e2:
         6b:f1:24:d3:eb:24:da:46:8b:40:95:51:1c:e6:b3:a0:16:1e:
         2a:52:10:49:90:6f:1b:34:ea:2c:b8:3f:fb:d1:7a:cb:02:21:
         86:8d:ff:b6:f3:a2:a9:2e:30:b4:93:8b:0e:34:ba:8c:b4:aa:
         d8:90:31:2e:1d:3d:cd:88:87:d9:30:4c:67:5d:f3:90:f7:88:
         ff:cc:dc:76:40:4a:6c:16:9c:8c:75:85:f4:57:cf:42:44:75:
         3f:f4:b9:09:0e:10:98:95:da:06:a6:71:d2:dc:8f:97:ad:fc:
         ab:5b:86:df:8a:bd:96:2d:53:59:78:21:02:dd:1e:e4:e1:7f:
         b2:1f:2c:5d:a2:b1:ac:8c:8c:c7:97:77:de:e7:fd:f8:2b:34:
         82:0e:55:c0:cc:2b:87:63
-----BEGIN CERTIFICATE-----
MIIGrTCCBJWgAwIBAgICKXQwDQYJKoZIhvcNAQELBQAwgawxCzAJBgNVBAYTAlVT
MQswCQYDVQQIEwJPSDERMA8GA1UEBxMIQ29sdW1idXMxEjAQBgNVBAoTCVZpa2lu
Z1ZQTjEdMBsGA1UECxMUTXlPcmdhbml6YXRpb25hbFVuaXQxFTATBgNVBAMTDFZp
a2luZ1ZQTiBDQTEQMA4GA1UEKRMHRWFzeVJTQTEhMB8GCSqGSIb3DQEJARYSbWVA
bXlob3N0Lm15ZG9tYWluMB4XDTE3MDQwOTE1MjM0NFoXDTI3MDQwNzE1MjM0NFow
HzEdMBsGA1UEAxMUQ2xpZW50MjczMENlcnRiODY5YmQwggIiMA0GCSqGSIb3DQEB
AQUAA4ICDwAwggIKAoICAQCi6IsW9EOTfA5wISsxP948LPhcWBmBi7dKTaIVVgPa
gCAQuBy13gRkzMpp28rRW2cmVEptp/VLeyX4iCLd7hwMs8pXdBjqKSsfpa+nts/r
dib5ylXDup+DugYRssILbJ6nTW1rhFocUiPlrMHJ9Vit/Ni4bUMveHecO4h05Bn9
ojrfPzkTfc1k4pXCi70ZdEEffc8Lm7iIXPt6QFPNiwLPkb/G6+WEQf/dmzMYCiRv
9m3YHZgzPrYsHW87fzUOoaMRlkmAZst1lzR7GD10E3X1WseSsu/lP4tpiLSmPO/F
LwxhrGQ+aQuq+e++IqfkN5MB/EtIpGW6aGCt9gdJaRC2YPJl5BTdpxoxIlhMbtT1
4W5+2aWjuN1bmJ1/O+nbx90XZbXTgp3QMRZxzPQiABjAzEKKwsl/QK4Vw2tXH9xm
2k81i0eXA88TBLG2k3ydCVcJqaJyJGR6YK7lzb7V+XOsbuZM/F1LcNcPdN0KtZuE
6MGJS/i3ZN2GUXCXQeAp1ZJ8To+3uk4wKkk6ShJU83K0Mldak/z0Uy1j5tMmlvsX
VVD2nHFuzjAA5kRjSfUoD/LKcWEgqLpjuvfn66pY3HNSTaC4fq9hREv4bIdpVDJz
UeT62RtpVhEurzeTlrjtt5YefiaCLXZ2DqpGi84pxSI82VKTtCUdDIWbApwbLY2x
8QIDAQABo4IBYzCCAV8wCQYDVR0TBAIwADAtBglghkgBhvhCAQ0EIBYeRWFzeS1S
U0EgR2VuZXJhdGVkIENlcnRpZmljYXRlMB0GA1UdDgQWBBQsQ4YdbAJCDIuQzKLq
QzO4cMl3kzCB4QYDVR0jBIHZMIHWgBQSzWAE0qCAnnDtxpm4eyzGUv0ZoaGBsqSB
rzCBrDELMAkGA1UEBhMCVVMxCzAJBgNVBAgTAk9IMREwDwYDVQQHEwhDb2x1bWJ1
czESMBAGA1UEChMJVmlraW5nVlBOMR0wGwYDVQQLExRNeU9yZ2FuaXphdGlvbmFs
VW5pdDEVMBMGA1UEAxMMVmlraW5nVlBOIENBMRAwDgYDVQQpEwdFYXN5UlNBMSEw
HwYJKoZIhvcNAQkBFhJtZUBteWhvc3QubXlkb21haW6CCQDPNYXugL8qPjATBgNV
HSUEDDAKBggrBgEFBQcDAjALBgNVHQ8EBAMCB4AwDQYJKoZIhvcNAQELBQADggIB
AKluQcTS8iysmLF9kEae0GddPO1KtFmOAk/gSRuVyXK08UWVeExI03dgld42Q3hT
RYyZNoNFoToiUh6bxPuZEySwraMomiBGAtR051/aiD9byky9lBFdxc56xcbUq9Me
agKiqUmGr5gyQDOFHpKX4vwhT8y6kJFXP0FQbuKJJUftqYTPV2160BKNWB7zxo9b
hxLwVVnR0eGw9Hq3hSXUhGxFX/RVl4+HZCSPK+O0ixfu7+MuxoxCLZ+csjgzizJg
3qa53fYPSMECxmPRD9hyStscU5KsL/JcWDUsXhIHAYzhEp4PNhW6K7MPjP9p9HKB
jXHjj9JI2CHWa6sQHXC/q8HgHrauyFlF03Vj/OtSluk6aD+0OpAhRZSUF49dvMB+
DOOjsl3x3C4GZx7r8yXqGZlrevozt4B1DRGDibERI3TiAtaR5IfdsbZmJn70cAD2
mFldLJCiIav6Yix/ysONishllxppfpe14mvxJNPrJNpGi0CVURzms6AWHipSEEmQ
bxs06iy4P/vRessCIYaN/7bzoqkuMLSTiw40uoy0qtiQMS4dPc2Ih9kwTGdd85D3
iP/M3HZASmwWnIx1hfRXz0JEdT/0uQkOEJiV2gamcdLcj5et/Ktbht+KvZYtU1l4
IQLdHuThf7IfLF2isayMjMeXd97n/fgrNIIOVcDMK4dj
-----END CERTIFICATE-----
