Certificate:
    Data:
        Version: 3 (0x2)
        Serial Number: 10640 (0x2990)
    Signature Algorithm: sha256WithRSAEncryption
        Issuer: C=US, ST=OH, L=Columbus, O=VikingVPN, OU=MyOrganizationalUnit, CN=VikingVPN CA/name=EasyRSA/emailAddress=me@myhost.mydomain
        Validity
            Not Before: Apr 14 00:38:50 2017 GMT
            Not After : Apr 12 00:38:50 2027 GMT
        Subject: CN=Client1540Cert7afbdd
        Subject Public Key Info:
            Public Key Algorithm: rsaEncryption
                Public-Key: (4096 bit)
                Modulus:
                    00:b1:c2:ad:0f:4b:1a:ac:e0:09:23:46:15:71:8c:
                    34:59:46:d7:d7:0b:aa:54:47:d7:83:d7:c1:fd:d8:
                    42:8d:a3:2f:a7:e6:31:92:f2:5a:5a:24:f2:bb:63:
                    24:fd:48:29:5b:d1:64:9f:30:6d:54:9b:8d:84:7f:
                    6f:80:a3:b4:26:59:da:6e:5a:09:65:f7:ee:5a:10:
                    7c:01:a2:91:76:ad:25:2f:b1:e7:48:ac:71:6a:a8:
                    cb:6c:00:8f:c4:5f:44:eb:b0:fa:14:6f:ef:7a:c7:
                    2a:68:ff:75:79:f9:b3:0a:c0:6a:21:47:f3:e4:d7:
                    4d:42:44:4a:2a:17:e6:f6:e9:b7:ae:e6:19:cc:49:
                    d4:d7:69:df:93:2d:fe:d8:89:24:62:ed:ed:ac:65:
                    49:f3:9f:3a:aa:07:de:6b:1b:77:20:dc:ad:f2:f6:
                    1d:ff:4b:9a:aa:c3:3e:66:1e:59:d8:dd:5e:1b:19:
                    27:27:aa:85:20:18:0d:8f:22:e2:45:55:7a:6f:6c:
                    22:c3:81:1b:4c:2c:1d:da:be:d1:a6:a8:08:18:20:
                    f7:25:b4:3f:c1:c8:33:3a:b5:db:16:89:c5:65:4e:
                    d7:fe:f1:4f:1b:51:da:e9:ab:15:fd:bd:af:dc:01:
                    45:0e:63:6a:aa:54:de:11:01:52:b7:5e:5c:49:a4:
                    82:5b:50:17:53:41:97:d2:92:55:49:e0:22:e3:92:
                    44:b2:3c:72:d2:b2:51:aa:1b:ab:8e:e2:e5:a9:b7:
                    63:6c:9a:da:04:a0:14:3a:ba:ee:84:9c:34:a4:84:
                    0a:91:d5:10:b0:89:a9:c0:e9:e7:8a:0c:fd:35:04:
                    2e:ee:72:b2:da:43:68:ca:7a:8e:b1:64:d7:db:dc:
                    59:07:6d:7c:98:c3:35:37:70:cf:9e:78:15:24:8a:
                    cf:69:c2:94:3d:89:e7:ee:ba:a5:55:97:6e:65:1e:
                    2e:c1:52:14:a0:b6:19:e2:7f:db:af:02:6d:3c:a7:
                    bd:3b:a0:e0:4f:1b:95:09:cf:2e:46:2e:af:fa:58:
                    31:32:ec:3a:3f:e7:84:58:0b:9f:da:63:a2:ed:f2:
                    00:d0:2d:6b:a2:4a:60:92:f4:03:3f:53:c0:d9:f5:
                    5c:ff:13:ba:4b:a5:c3:3a:b9:18:18:24:9a:46:01:
                    58:02:a6:f4:10:aa:7e:95:17:6e:a6:a3:f2:db:f3:
                    e5:6f:c9:30:a7:53:47:7f:33:9c:30:18:4a:f0:ed:
                    ee:2a:aa:61:0d:26:15:a1:55:71:84:83:03:bd:7a:
                    21:e6:b8:eb:7d:86:1e:bd:c2:88:66:b0:98:7e:e0:
                    e0:fd:74:7d:48:f8:b3:dc:17:7f:e5:47:d3:45:e5:
                    7d:af:69
                Exponent: 65537 (0x10001)
        X509v3 extensions:
            X509v3 Basic Constraints: 
                CA:FALSE
            Netscape Comment: 
                Easy-RSA Generated Certificate
            X509v3 Subject Key Identifier: 
                AB:89:E6:E6:44:EF:35:3A:8C:9A:CD:2A:CC:33:E4:CA:55:18:ED:41
            X509v3 Authority Key Identifier: 
                keyid:12:CD:60:04:D2:A0:80:9E:70:ED:C6:99:B8:7B:2C:C6:52:FD:19:A1
                DirName:/C=US/ST=OH/L=Columbus/O=VikingVPN/OU=MyOrganizationalUnit/CN=VikingVPN CA/name=EasyRSA/emailAddress=me@myhost.mydomain
                serial:CF:35:85:EE:80:BF:2A:3E

            X509v3 Extended Key Usage: 
                TLS Web Client Authentication
            X509v3 Key Usage: 
                Digital Signature
    Signature Algorithm: sha256WithRSAEncryption
         24:a2:36:6a:90:1e:37:d8:db:7f:3b:ff:9d:4e:cd:a2:e6:37:
         f6:c9:08:ba:f2:c7:2b:ab:73:11:65:df:66:8f:8b:d5:df:c2:
         95:38:bc:16:42:e1:f1:c1:a6:24:86:04:e5:ee:6d:47:f1:a4:
         b1:60:84:d0:54:1e:4d:94:1c:a7:1a:8d:f3:32:27:cf:36:e5:
         43:29:6b:8e:91:78:81:75:47:00:c7:8d:44:42:f2:78:18:d7:
         66:a8:fa:e5:06:ca:bb:7e:4e:17:ca:57:1d:39:53:3a:a0:6d:
         c6:9f:bb:75:0c:5f:95:b9:de:34:29:76:0a:d6:a1:ac:83:52:
         36:10:2d:e7:b0:40:d7:bd:3f:63:22:7b:fd:4d:59:d4:80:17:
         d8:7e:b0:ea:fb:a0:63:36:05:88:62:ea:fe:26:a0:25:9d:27:
         fc:ef:2c:0a:17:de:3b:21:8d:9e:eb:ee:6c:e0:8d:73:51:e6:
         36:28:b4:a3:ba:2e:23:5f:a7:f6:47:be:0b:a3:e8:92:29:bc:
         7a:d1:00:8d:4a:12:d3:27:bc:b7:89:8b:96:1b:ae:0a:2f:f6:
         ab:71:26:d5:04:c3:84:18:4c:82:26:6c:01:6b:1c:d7:c0:0b:
         00:e3:dd:35:83:25:b7:9a:c3:08:1b:c3:d3:dd:c6:49:aa:ac:
         b7:41:44:fe:ea:b9:53:3b:3e:0c:46:79:4d:18:29:97:b2:76:
         b5:37:50:7f:13:29:30:fb:dd:67:e7:90:fb:b0:8f:1e:42:62:
         7d:08:86:5d:21:b3:3b:58:05:ac:30:59:71:47:6e:91:9b:f4:
         89:81:2b:81:07:98:2f:27:b9:bb:2f:72:f1:3b:23:3a:41:c0:
         a1:f5:93:43:e4:a8:98:c0:48:cd:c6:3d:4e:1e:e4:16:62:20:
         8f:eb:c2:c0:9a:4b:5f:99:79:46:0d:64:84:bb:96:ec:b4:4a:
         d3:04:87:ad:14:20:b9:17:e2:f6:02:c0:b4:80:22:3e:e8:ab:
         c4:9f:93:e0:86:39:d6:0e:36:ab:70:46:ce:c6:0c:4d:12:17:
         a2:fd:50:9e:4b:2b:59:1d:b3:d3:08:3e:8f:7c:70:57:c1:b1:
         75:d3:ff:23:79:1b:ff:96:4e:c3:ec:18:eb:51:8d:c2:cb:5b:
         dd:c9:b7:4b:b8:60:79:a4:8f:01:62:dc:de:a7:5a:6d:0a:37:
         2b:2d:69:e6:f7:28:1b:37:9c:0b:a1:ce:14:a7:34:09:ca:87:
         05:5e:06:2d:50:35:ee:a8:29:d1:48:82:57:37:70:f0:38:2f:
         40:db:fb:b6:df:c5:ea:9e:bb:1c:38:96:93:0d:8a:34:e2:f8:
         f4:f8:a7:77:93:ab:f3:49
-----BEGIN CERTIFICATE-----
MIIGrTCCBJWgAwIBAgICKZAwDQYJKoZIhvcNAQELBQAwgawxCzAJBgNVBAYTAlVT
MQswCQYDVQQIEwJPSDERMA8GA1UEBxMIQ29sdW1idXMxEjAQBgNVBAoTCVZpa2lu
Z1ZQTjEdMBsGA1UECxMUTXlPcmdhbml6YXRpb25hbFVuaXQxFTATBgNVBAMTDFZp
a2luZ1ZQTiBDQTEQMA4GA1UEKRMHRWFzeVJTQTEhMB8GCSqGSIb3DQEJARYSbWVA
bXlob3N0Lm15ZG9tYWluMB4XDTE3MDQxNDAwMzg1MFoXDTI3MDQxMjAwMzg1MFow
HzEdMBsGA1UEAxMUQ2xpZW50MTU0MENlcnQ3YWZiZGQwggIiMA0GCSqGSIb3DQEB
AQUAA4ICDwAwggIKAoICAQCxwq0PSxqs4AkjRhVxjDRZRtfXC6pUR9eD18H92EKN
oy+n5jGS8lpaJPK7YyT9SClb0WSfMG1Um42Ef2+Ao7QmWdpuWgll9+5aEHwBopF2
rSUvsedIrHFqqMtsAI/EX0TrsPoUb+96xypo/3V5+bMKwGohR/Pk101CREoqF+b2
6beu5hnMSdTXad+TLf7YiSRi7e2sZUnznzqqB95rG3cg3K3y9h3/S5qqwz5mHlnY
3V4bGScnqoUgGA2PIuJFVXpvbCLDgRtMLB3avtGmqAgYIPcltD/ByDM6tdsWicVl
Ttf+8U8bUdrpqxX9va/cAUUOY2qqVN4RAVK3XlxJpIJbUBdTQZfSklVJ4CLjkkSy
PHLSslGqG6uO4uWpt2NsmtoEoBQ6uu6EnDSkhAqR1RCwianA6eeKDP01BC7ucrLa
Q2jKeo6xZNfb3FkHbXyYwzU3cM+eeBUkis9pwpQ9iefuuqVVl25lHi7BUhSgthni
f9uvAm08p707oOBPG5UJzy5GLq/6WDEy7Do/54RYC5/aY6Lt8gDQLWuiSmCS9AM/
U8DZ9Vz/E7pLpcM6uRgYJJpGAVgCpvQQqn6VF26mo/Lb8+VvyTCnU0d/M5wwGErw
7e4qqmENJhWhVXGEgwO9eiHmuOt9hh69wohmsJh+4OD9dH1I+LPcF3/lR9NF5X2v
aQIDAQABo4IBYzCCAV8wCQYDVR0TBAIwADAtBglghkgBhvhCAQ0EIBYeRWFzeS1S
U0EgR2VuZXJhdGVkIENlcnRpZmljYXRlMB0GA1UdDgQWBBSriebmRO81OoyazSrM
M+TKVRjtQTCB4QYDVR0jBIHZMIHWgBQSzWAE0qCAnnDtxpm4eyzGUv0ZoaGBsqSB
rzCBrDELMAkGA1UEBhMCVVMxCzAJBgNVBAgTAk9IMREwDwYDVQQHEwhDb2x1bWJ1
czESMBAGA1UEChMJVmlraW5nVlBOMR0wGwYDVQQLExRNeU9yZ2FuaXphdGlvbmFs
VW5pdDEVMBMGA1UEAxMMVmlraW5nVlBOIENBMRAwDgYDVQQpEwdFYXN5UlNBMSEw
HwYJKoZIhvcNAQkBFhJtZUBteWhvc3QubXlkb21haW6CCQDPNYXugL8qPjATBgNV
HSUEDDAKBggrBgEFBQcDAjALBgNVHQ8EBAMCB4AwDQYJKoZIhvcNAQELBQADggIB
ACSiNmqQHjfY2387/51OzaLmN/bJCLryxyurcxFl32aPi9XfwpU4vBZC4fHBpiSG
BOXubUfxpLFghNBUHk2UHKcajfMyJ8825UMpa46ReIF1RwDHjURC8ngY12ao+uUG
yrt+ThfKVx05Uzqgbcafu3UMX5W53jQpdgrWoayDUjYQLeewQNe9P2Mie/1NWdSA
F9h+sOr7oGM2BYhi6v4moCWdJ/zvLAoX3jshjZ7r7mzgjXNR5jYotKO6LiNfp/ZH
vguj6JIpvHrRAI1KEtMnvLeJi5Ybrgov9qtxJtUEw4QYTIImbAFrHNfACwDj3TWD
Jbeawwgbw9PdxkmqrLdBRP7quVM7PgxGeU0YKZeydrU3UH8TKTD73WfnkPuwjx5C
Yn0Ihl0hsztYBawwWXFHbpGb9ImBK4EHmC8nubsvcvE7IzpBwKH1k0PkqJjASM3G
PU4e5BZiII/rwsCaS1+ZeUYNZIS7luy0StMEh60UILkX4vYCwLSAIj7oq8Sfk+CG
OdYONqtwRs7GDE0SF6L9UJ5LK1kds9MIPo98cFfBsXXT/yN5G/+WTsPsGOtRjcLL
W93Jt0u4YHmkjwFi3N6nWm0KNystaeb3KBs3nAuhzhSnNAnKhwVeBi1QNe6oKdFI
glc3cPA4L0Db+7bfxeqeuxw4lpMNijTi+PT4p3eTq/NJ
-----END CERTIFICATE-----
