Certificate:
    Data:
        Version: 3 (0x2)
        Serial Number: 10641 (0x2991)
    Signature Algorithm: sha256WithRSAEncryption
        Issuer: C=US, ST=OH, L=Columbus, O=VikingVPN, OU=MyOrganizationalUnit, CN=VikingVPN CA/name=EasyRSA/emailAddress=me@myhost.mydomain
        Validity
            Not Before: Apr 14 00:42:31 2017 GMT
            Not After : Apr 12 00:42:31 2027 GMT
        Subject: CN=Client2861Cert85943d
        Subject Public Key Info:
            Public Key Algorithm: rsaEncryption
                Public-Key: (4096 bit)
                Modulus:
                    00:cc:d2:d3:5b:6b:74:42:9b:24:34:27:08:f7:02:
                    01:4c:d9:fe:b9:f3:b2:0f:d2:35:5e:41:bf:e2:e1:
                    a1:a8:9e:f3:78:fd:c6:45:2c:c7:87:8d:f0:d2:12:
                    dc:c6:4c:7e:b3:b6:46:6c:58:20:ed:03:be:09:15:
                    c1:cf:66:6a:b4:c0:87:ee:ef:2e:29:20:d9:dc:5d:
                    b6:93:4b:53:48:44:7f:75:69:ef:a8:45:d5:1a:2d:
                    fd:9a:3e:25:45:b1:ad:0d:f0:7d:4e:f9:bd:ce:2f:
                    7d:88:f2:3e:10:5d:9c:17:1d:83:3a:f9:7a:e7:23:
                    80:71:2e:89:92:79:7d:cd:d4:60:cf:77:28:d6:d1:
                    6a:62:72:24:f5:26:49:bf:9e:a7:b0:31:4d:0a:12:
                    fa:d8:f1:d3:63:a6:43:49:0c:ac:aa:c9:66:02:c7:
                    3e:bb:2f:24:21:2f:18:be:56:b3:17:33:f7:79:2c:
                    95:75:ed:4e:85:3f:24:42:01:64:c3:d7:ab:39:ed:
                    19:eb:e9:d8:a0:19:3b:48:84:22:1b:b9:9f:4b:55:
                    e0:92:0a:c6:02:f1:84:5d:05:0c:f5:51:5a:45:ed:
                    c9:fc:5b:79:be:65:36:25:d9:30:86:ee:a3:6c:fd:
                    42:8a:3b:e0:c6:9c:be:10:a9:96:f9:1d:e2:08:ab:
                    e7:3f:22:c3:05:fc:e0:c5:76:b0:4d:eb:92:c3:b4:
                    5d:45:69:cc:22:48:ad:ec:30:59:ea:ac:48:fe:2b:
                    43:9a:c0:3e:a4:c1:76:b9:4c:27:dc:8f:c3:43:e8:
                    3e:a5:8a:6b:91:b3:59:a8:49:2c:e1:72:08:fe:39:
                    c4:17:f0:12:05:d9:f8:2f:25:71:da:39:31:aa:e1:
                    4d:8e:20:93:d4:26:a4:3b:f0:86:0a:ae:fa:b2:9c:
                    ce:b1:1e:c3:3c:59:69:fe:2a:59:81:8e:5f:30:22:
                    f4:70:d9:65:d9:49:2d:90:c5:2e:af:7d:1e:19:4f:
                    5a:86:ec:fe:ec:43:3d:18:41:6b:d8:e7:3e:94:79:
                    bf:5b:de:a0:70:0b:3c:61:c0:f0:a0:ed:e1:8a:2b:
                    15:66:17:07:4b:c2:cb:89:c7:45:50:b6:dd:71:a8:
                    3b:8a:e0:e3:9c:b1:c6:73:59:cd:f7:75:53:f0:d0:
                    da:c6:fd:3c:90:01:f0:6c:7d:90:bb:ac:00:a4:77:
                    5a:af:99:de:a4:b7:86:fd:13:dc:9a:34:4f:45:f6:
                    fa:82:5d:a2:db:37:3a:e2:3f:04:48:cd:ee:65:cc:
                    f8:b4:90:58:4a:22:ba:f9:0c:76:dc:99:bc:72:f7:
                    4d:9d:e2:02:28:b3:cb:67:6b:61:a8:52:53:08:33:
                    1c:07:15
                Exponent: 65537 (0x10001)
        X509v3 extensions:
            X509v3 Basic Constraints: 
                CA:FALSE
            Netscape Comment: 
                Easy-RSA Generated Certificate
            X509v3 Subject Key Identifier: 
                B2:40:C2:40:61:6F:90:FC:C7:70:07:F2:4E:F3:A9:B1:06:3E:60:5C
            X509v3 Authority Key Identifier: 
                keyid:12:CD:60:04:D2:A0:80:9E:70:ED:C6:99:B8:7B:2C:C6:52:FD:19:A1
                DirName:/C=US/ST=OH/L=Columbus/O=VikingVPN/OU=MyOrganizationalUnit/CN=VikingVPN CA/name=EasyRSA/emailAddress=me@myhost.mydomain
                serial:CF:35:85:EE:80:BF:2A:3E

            X509v3 Extended Key Usage: 
                TLS Web Client Authentication
            X509v3 Key Usage: 
                Digital Signature
    Signature Algorithm: sha256WithRSAEncryption
         a7:8c:3d:31:ec:de:ee:86:7a:73:5a:41:cd:a1:d9:06:c8:ea:
         88:a5:f4:02:a9:9c:b0:b6:63:7d:1e:24:b3:94:55:73:90:3f:
         34:6c:27:ee:fa:91:c5:eb:75:4a:b0:0d:61:66:27:3e:57:0d:
         26:07:b4:4e:22:5c:f0:58:be:d1:11:0d:0b:46:75:3c:aa:c1:
         19:98:a9:0a:04:88:37:a4:b8:3c:4b:6e:f6:c4:c1:34:32:31:
         a0:b0:a6:b3:cf:c0:ea:9a:19:24:81:31:83:f9:4f:98:3a:03:
         ca:89:d2:5f:b6:b1:65:83:b5:5c:57:9b:62:1f:ce:39:a1:ce:
         05:ac:6b:bb:d0:71:e5:3b:fd:eb:6e:32:f4:2c:4f:9b:75:56:
         62:8a:c4:59:15:3a:8a:57:be:ea:2f:35:0a:2a:ea:1e:85:b4:
         3b:91:77:60:05:5a:d9:af:43:d3:38:64:e7:03:16:25:c2:89:
         12:8c:1a:55:d7:d7:a0:bc:67:c5:8c:73:bf:05:35:28:9f:9e:
         88:49:57:1e:5d:95:23:8c:02:56:81:76:77:23:20:26:d9:01:
         e8:6e:2f:35:64:c9:fc:b0:a8:f8:b5:59:62:26:1c:50:57:79:
         08:cb:b0:11:60:06:91:be:86:f6:b4:ca:ff:9b:93:30:41:64:
         3b:54:6e:c5:ea:de:e6:5a:4c:3d:ea:9e:74:de:da:ff:c0:82:
         3f:7b:cd:7c:82:be:15:e7:ad:8a:1f:84:ad:c6:63:ab:de:4d:
         f5:13:fa:60:bc:d0:c7:45:bf:fc:91:58:a8:fc:b5:93:c0:d2:
         2b:3b:61:33:e4:5d:41:31:71:9f:a4:95:4d:66:30:35:80:af:
         59:d1:de:ac:d6:16:59:85:4c:13:e6:3f:19:b5:b9:5b:ea:83:
         be:fc:f5:79:c3:62:3b:d8:ed:27:2c:46:ab:4e:30:a4:f8:71:
         cc:e0:c2:23:e6:7d:cf:b3:8c:8d:1f:4a:d9:dd:89:ba:69:31:
         68:25:b5:84:8c:c8:44:a3:d2:82:41:e5:9c:77:74:32:80:77:
         9c:31:85:b0:df:4f:8b:bf:4d:ee:48:97:bc:57:a6:1b:ae:e7:
         e2:d2:41:6f:b7:63:67:bd:12:cf:ad:6e:79:5c:f9:70:14:8c:
         6c:19:40:34:c6:94:b8:6b:7b:37:80:2f:31:a9:b8:62:7f:23:
         e2:bb:e9:ea:5c:42:13:a1:ad:f7:e9:4b:83:15:34:a6:24:d3:
         26:7d:f4:70:6c:a6:2a:91:86:d7:ce:12:0d:8b:63:f4:b6:17:
         ac:f3:cd:5c:b7:26:ba:0c:b7:91:fb:b0:d5:89:07:c8:28:11:
         03:fe:fa:53:0f:48:1e:86
-----BEGIN CERTIFICATE-----
MIIGrTCCBJWgAwIBAgICKZEwDQYJKoZIhvcNAQELBQAwgawxCzAJBgNVBAYTAlVT
MQswCQYDVQQIEwJPSDERMA8GA1UEBxMIQ29sdW1idXMxEjAQBgNVBAoTCVZpa2lu
Z1ZQTjEdMBsGA1UECxMUTXlPcmdhbml6YXRpb25hbFVuaXQxFTATBgNVBAMTDFZp
a2luZ1ZQTiBDQTEQMA4GA1UEKRMHRWFzeVJTQTEhMB8GCSqGSIb3DQEJARYSbWVA
bXlob3N0Lm15ZG9tYWluMB4XDTE3MDQxNDAwNDIzMVoXDTI3MDQxMjAwNDIzMVow
HzEdMBsGA1UEAxMUQ2xpZW50Mjg2MUNlcnQ4NTk0M2QwggIiMA0GCSqGSIb3DQEB
AQUAA4ICDwAwggIKAoICAQDM0tNba3RCmyQ0Jwj3AgFM2f6587IP0jVeQb/i4aGo
nvN4/cZFLMeHjfDSEtzGTH6ztkZsWCDtA74JFcHPZmq0wIfu7y4pINncXbaTS1NI
RH91ae+oRdUaLf2aPiVFsa0N8H1O+b3OL32I8j4QXZwXHYM6+XrnI4BxLomSeX3N
1GDPdyjW0WpiciT1Jkm/nqewMU0KEvrY8dNjpkNJDKyqyWYCxz67LyQhLxi+VrMX
M/d5LJV17U6FPyRCAWTD16s57Rnr6digGTtIhCIbuZ9LVeCSCsYC8YRdBQz1UVpF
7cn8W3m+ZTYl2TCG7qNs/UKKO+DGnL4QqZb5HeIIq+c/IsMF/ODFdrBN65LDtF1F
acwiSK3sMFnqrEj+K0OawD6kwXa5TCfcj8ND6D6limuRs1moSSzhcgj+OcQX8BIF
2fgvJXHaOTGq4U2OIJPUJqQ78IYKrvqynM6xHsM8WWn+KlmBjl8wIvRw2WXZSS2Q
xS6vfR4ZT1qG7P7sQz0YQWvY5z6Ueb9b3qBwCzxhwPCg7eGKKxVmFwdLwsuJx0VQ
tt1xqDuK4OOcscZzWc33dVPw0NrG/TyQAfBsfZC7rACkd1qvmd6kt4b9E9yaNE9F
9vqCXaLbNzriPwRIze5lzPi0kFhKIrr5DHbcmbxy902d4gIos8tna2GoUlMIMxwH
FQIDAQABo4IBYzCCAV8wCQYDVR0TBAIwADAtBglghkgBhvhCAQ0EIBYeRWFzeS1S
U0EgR2VuZXJhdGVkIENlcnRpZmljYXRlMB0GA1UdDgQWBBSyQMJAYW+Q/MdwB/JO
86mxBj5gXDCB4QYDVR0jBIHZMIHWgBQSzWAE0qCAnnDtxpm4eyzGUv0ZoaGBsqSB
rzCBrDELMAkGA1UEBhMCVVMxCzAJBgNVBAgTAk9IMREwDwYDVQQHEwhDb2x1bWJ1
czESMBAGA1UEChMJVmlraW5nVlBOMR0wGwYDVQQLExRNeU9yZ2FuaXphdGlvbmFs
VW5pdDEVMBMGA1UEAxMMVmlraW5nVlBOIENBMRAwDgYDVQQpEwdFYXN5UlNBMSEw
HwYJKoZIhvcNAQkBFhJtZUBteWhvc3QubXlkb21haW6CCQDPNYXugL8qPjATBgNV
HSUEDDAKBggrBgEFBQcDAjALBgNVHQ8EBAMCB4AwDQYJKoZIhvcNAQELBQADggIB
AKeMPTHs3u6GenNaQc2h2QbI6oil9AKpnLC2Y30eJLOUVXOQPzRsJ+76kcXrdUqw
DWFmJz5XDSYHtE4iXPBYvtERDQtGdTyqwRmYqQoEiDekuDxLbvbEwTQyMaCwprPP
wOqaGSSBMYP5T5g6A8qJ0l+2sWWDtVxXm2IfzjmhzgWsa7vQceU7/etuMvQsT5t1
VmKKxFkVOopXvuovNQoq6h6FtDuRd2AFWtmvQ9M4ZOcDFiXCiRKMGlXX16C8Z8WM
c78FNSifnohJVx5dlSOMAlaBdncjICbZAehuLzVkyfywqPi1WWImHFBXeQjLsBFg
BpG+hva0yv+bkzBBZDtUbsXq3uZaTD3qnnTe2v/Agj97zXyCvhXnrYofhK3GY6ve
TfUT+mC80MdFv/yRWKj8tZPA0is7YTPkXUExcZ+klU1mMDWAr1nR3qzWFlmFTBPm
Pxm1uVvqg7789XnDYjvY7ScsRqtOMKT4cczgwiPmfc+zjI0fStndibppMWgltYSM
yESj0oJB5Zx3dDKAd5wxhbDfT4u/Te5Il7xXphuu5+LSQW+3Y2e9Es+tbnlc+XAU
jGwZQDTGlLhrezeALzGpuGJ/I+K76epcQhOhrffpS4MVNKYk0yZ99HBspiqRhtfO
Eg2LY/S2F6zzzVy3JroMt5H7sNWJB8goEQP++lMPSB6G
-----END CERTIFICATE-----
