Certificate:
    Data:
        Version: 3 (0x2)
        Serial Number: 10660 (0x29a4)
    Signature Algorithm: sha256WithRSAEncryption
        Issuer: C=US, ST=OH, L=Columbus, O=VikingVPN, OU=MyOrganizationalUnit, CN=VikingVPN CA/name=EasyRSA/emailAddress=me@myhost.mydomain
        Validity
            Not Before: Apr 17 02:59:18 2017 GMT
            Not After : Apr 15 02:59:18 2027 GMT
        Subject: CN=Client2808Cert9a6ee8
        Subject Public Key Info:
            Public Key Algorithm: rsaEncryption
                Public-Key: (4096 bit)
                Modulus:
                    00:ea:71:bc:b2:c4:84:93:0f:2f:95:b5:05:c4:72:
                    5d:b9:55:ec:c6:b2:d1:ca:c9:34:2f:0c:72:6a:92:
                    ea:1c:2a:bf:c3:9a:d3:a4:e5:10:d1:ad:e9:5e:50:
                    ae:05:1c:09:05:64:98:73:23:09:cd:45:7b:5f:2e:
                    00:c6:81:23:23:77:ac:ea:6d:5c:a2:1a:4e:a4:78:
                    3e:b9:57:6d:45:c5:5d:6c:44:2a:ca:e5:26:ba:6c:
                    18:67:0a:2f:d6:bb:b6:67:3d:97:b5:50:7c:1c:d2:
                    c2:96:48:a8:35:eb:c7:7e:3a:07:cf:ef:8d:fb:57:
                    2c:e9:88:52:6e:b6:fe:07:03:58:46:17:3e:08:7d:
                    12:3a:6c:ee:78:b8:71:15:fc:71:3a:80:16:d7:43:
                    3e:f1:bb:50:2d:4c:bf:7c:46:bd:ee:c8:f1:1a:02:
                    f3:7c:83:38:bf:57:7c:75:e5:47:0e:45:e7:3b:cb:
                    ad:99:ec:34:d1:a8:53:0b:cd:66:77:9d:22:41:b1:
                    2c:54:4a:6f:65:af:89:eb:9a:0b:97:15:af:a3:12:
                    ee:ea:f3:7f:fe:79:7d:ff:02:15:a5:46:ea:fe:d8:
                    17:71:39:0f:8b:bf:b8:97:9f:f6:bd:06:76:96:fc:
                    ed:9b:5c:d5:a9:69:78:ba:38:36:0b:25:ee:b0:53:
                    40:b2:5a:68:c4:f2:5e:4c:37:d3:49:1c:bb:0c:db:
                    5e:48:2a:00:cf:81:66:ec:d3:d6:d6:af:74:f7:ef:
                    0e:f7:03:1e:4e:52:13:89:52:5e:bb:a0:c2:36:40:
                    72:8b:99:c2:d3:0e:8a:58:e9:12:5c:13:d9:9a:6a:
                    ce:aa:58:53:b6:43:a1:9b:ef:04:17:98:c9:53:de:
                    af:ff:c9:e4:ca:33:dc:7a:47:fc:38:d4:99:12:25:
                    03:a4:3d:08:18:77:f3:06:bf:3d:18:dd:93:b0:ed:
                    1c:fd:89:24:1e:5c:6e:90:f3:41:8e:a3:f0:24:fb:
                    fb:6b:43:82:3b:35:ae:d4:f9:07:ac:ca:13:66:9b:
                    c4:4e:a4:5c:a5:77:f2:9c:61:d3:b7:12:1a:22:7c:
                    36:ee:ae:bd:3f:81:02:5f:9d:72:13:67:1f:6b:a1:
                    aa:30:d8:f8:72:25:b0:00:fa:e7:e3:b2:e1:a8:90:
                    e1:15:ef:0e:10:f5:51:28:a8:87:d1:01:10:11:44:
                    0b:19:75:d2:8c:09:6a:86:21:96:56:a7:d5:a7:9c:
                    2a:de:08:ed:87:10:73:86:e0:80:47:1a:ea:55:58:
                    6d:bd:35:13:2c:61:9c:8a:51:e6:2d:b6:be:7b:2f:
                    2c:4a:99:f1:ff:c9:a7:46:72:76:e2:45:57:02:40:
                    28:c6:c1
                Exponent: 65537 (0x10001)
        X509v3 extensions:
            X509v3 Basic Constraints: 
                CA:FALSE
            Netscape Comment: 
                Easy-RSA Generated Certificate
            X509v3 Subject Key Identifier: 
                38:E9:97:4F:10:C5:08:8E:23:C2:0D:0E:8C:5E:75:0B:92:7E:61:7D
            X509v3 Authority Key Identifier: 
                keyid:12:CD:60:04:D2:A0:80:9E:70:ED:C6:99:B8:7B:2C:C6:52:FD:19:A1
                DirName:/C=US/ST=OH/L=Columbus/O=VikingVPN/OU=MyOrganizationalUnit/CN=VikingVPN CA/name=EasyRSA/emailAddress=me@myhost.mydomain
                serial:CF:35:85:EE:80:BF:2A:3E

            X509v3 Extended Key Usage: 
                TLS Web Client Authentication
            X509v3 Key Usage: 
                Digital Signature
    Signature Algorithm: sha256WithRSAEncryption
         80:4a:b6:f5:c8:55:6e:53:dc:d0:4e:78:6d:c7:dc:f5:bd:83:
         98:6a:45:c5:15:33:ac:dc:14:bb:a2:4a:53:7c:60:69:47:4b:
         7f:5e:36:7a:53:e4:b0:9b:42:b8:b4:0f:6b:21:0d:fd:8b:83:
         bb:c4:0e:01:59:06:e8:d6:b3:57:cb:23:4a:06:37:6b:4a:d0:
         ca:12:0c:5e:fd:c7:af:30:a3:d4:83:a8:fa:80:f9:3a:7a:b2:
         2f:ff:40:ea:bf:25:8a:9c:a1:aa:4e:77:ef:e4:d9:dd:9d:81:
         5b:87:0c:80:41:c8:e8:78:93:71:dc:92:ea:a3:dc:7f:5d:5f:
         b3:c9:fb:f1:63:ad:a9:aa:b2:48:98:dd:5a:e0:dc:25:b4:a0:
         97:6d:4d:10:51:5c:f7:b7:2d:32:6d:36:cb:e4:70:98:1f:1f:
         81:13:a7:d8:e8:64:03:07:8e:41:5a:59:3c:14:dd:61:cc:b7:
         71:f1:bb:46:f3:6e:15:8f:de:01:0d:8c:35:df:09:25:24:2f:
         4a:e8:57:ba:a7:90:b0:58:b7:6e:b0:f2:fd:f2:93:a7:62:20:
         77:30:21:8f:67:27:35:c9:85:50:36:66:0f:71:e6:fb:be:f8:
         9e:4a:e3:cc:62:f2:20:eb:20:15:81:d9:b4:ec:c3:36:2b:f9:
         10:2f:e8:a5:a0:86:e2:89:1f:d1:93:7d:0c:80:19:3d:10:b6:
         56:a1:6f:19:a6:83:94:a7:b8:15:3c:7e:b9:ee:d9:c8:52:36:
         3e:ec:22:84:a9:10:84:c9:bb:93:3c:64:cb:ea:ae:d9:bf:a3:
         e3:97:b9:50:a8:70:59:82:77:52:4f:f3:ef:a1:97:c4:df:c0:
         9e:c1:8d:0f:f5:58:5d:36:45:e3:2a:e8:ba:93:fd:51:ed:bc:
         40:b7:f8:34:48:36:e2:88:ed:46:e3:d4:d8:53:4e:8b:a6:28:
         82:30:51:0a:bc:ab:ea:86:c4:65:f5:70:b9:19:47:ab:57:26:
         3d:23:e4:1e:45:9a:93:1f:cf:3d:92:52:e6:af:ab:e5:a7:cb:
         05:5d:e4:65:57:65:9b:af:14:e3:ce:a2:60:25:b4:8c:75:12:
         ef:ab:42:c9:47:78:c0:3f:16:c4:59:37:6e:f0:ab:a5:4d:51:
         45:b3:b3:f5:f1:c7:72:8e:a4:76:53:a0:b9:9e:dc:cc:a9:31:
         90:7a:86:57:0f:47:5b:d8:05:2e:fe:3a:eb:22:b0:82:67:86:
         42:7a:ad:1b:c9:3f:d7:b9:29:d4:86:e4:83:92:91:af:1c:5c:
         4d:de:3d:31:fc:69:12:1b:8c:f5:48:e9:75:c7:7f:7c:a5:b0:
         f7:cd:23:28:b1:f5:47:e8
-----BEGIN CERTIFICATE-----
MIIGrTCCBJWgAwIBAgICKaQwDQYJKoZIhvcNAQELBQAwgawxCzAJBgNVBAYTAlVT
MQswCQYDVQQIEwJPSDERMA8GA1UEBxMIQ29sdW1idXMxEjAQBgNVBAoTCVZpa2lu
Z1ZQTjEdMBsGA1UECxMUTXlPcmdhbml6YXRpb25hbFVuaXQxFTATBgNVBAMTDFZp
a2luZ1ZQTiBDQTEQMA4GA1UEKRMHRWFzeVJTQTEhMB8GCSqGSIb3DQEJARYSbWVA
bXlob3N0Lm15ZG9tYWluMB4XDTE3MDQxNzAyNTkxOFoXDTI3MDQxNTAyNTkxOFow
HzEdMBsGA1UEAxMUQ2xpZW50MjgwOENlcnQ5YTZlZTgwggIiMA0GCSqGSIb3DQEB
AQUAA4ICDwAwggIKAoICAQDqcbyyxISTDy+VtQXEcl25VezGstHKyTQvDHJqkuoc
Kr/DmtOk5RDRreleUK4FHAkFZJhzIwnNRXtfLgDGgSMjd6zqbVyiGk6keD65V21F
xV1sRCrK5Sa6bBhnCi/Wu7ZnPZe1UHwc0sKWSKg168d+OgfP7437VyzpiFJutv4H
A1hGFz4IfRI6bO54uHEV/HE6gBbXQz7xu1AtTL98Rr3uyPEaAvN8gzi/V3x15UcO
Rec7y62Z7DTRqFMLzWZ3nSJBsSxUSm9lr4nrmguXFa+jEu7q83/+eX3/AhWlRur+
2BdxOQ+Lv7iXn/a9BnaW/O2bXNWpaXi6ODYLJe6wU0CyWmjE8l5MN9NJHLsM215I
KgDPgWbs09bWr3T37w73Ax5OUhOJUl67oMI2QHKLmcLTDopY6RJcE9maas6qWFO2
Q6Gb7wQXmMlT3q//yeTKM9x6R/w41JkSJQOkPQgYd/MGvz0Y3ZOw7Rz9iSQeXG6Q
80GOo/Ak+/trQ4I7Na7U+QesyhNmm8ROpFyld/KcYdO3EhoifDburr0/gQJfnXIT
Zx9roaow2PhyJbAA+ufjsuGokOEV7w4Q9VEoqIfRARARRAsZddKMCWqGIZZWp9Wn
nCreCO2HEHOG4IBHGupVWG29NRMsYZyKUeYttr57LyxKmfH/yadGcnbiRVcCQCjG
wQIDAQABo4IBYzCCAV8wCQYDVR0TBAIwADAtBglghkgBhvhCAQ0EIBYeRWFzeS1S
U0EgR2VuZXJhdGVkIENlcnRpZmljYXRlMB0GA1UdDgQWBBQ46ZdPEMUIjiPCDQ6M
XnULkn5hfTCB4QYDVR0jBIHZMIHWgBQSzWAE0qCAnnDtxpm4eyzGUv0ZoaGBsqSB
rzCBrDELMAkGA1UEBhMCVVMxCzAJBgNVBAgTAk9IMREwDwYDVQQHEwhDb2x1bWJ1
czESMBAGA1UEChMJVmlraW5nVlBOMR0wGwYDVQQLExRNeU9yZ2FuaXphdGlvbmFs
VW5pdDEVMBMGA1UEAxMMVmlraW5nVlBOIENBMRAwDgYDVQQpEwdFYXN5UlNBMSEw
HwYJKoZIhvcNAQkBFhJtZUBteWhvc3QubXlkb21haW6CCQDPNYXugL8qPjATBgNV
HSUEDDAKBggrBgEFBQcDAjALBgNVHQ8EBAMCB4AwDQYJKoZIhvcNAQELBQADggIB
AIBKtvXIVW5T3NBOeG3H3PW9g5hqRcUVM6zcFLuiSlN8YGlHS39eNnpT5LCbQri0
D2shDf2Lg7vEDgFZBujWs1fLI0oGN2tK0MoSDF79x68wo9SDqPqA+Tp6si//QOq/
JYqcoapOd+/k2d2dgVuHDIBByOh4k3Hckuqj3H9dX7PJ+/FjramqskiY3Vrg3CW0
oJdtTRBRXPe3LTJtNsvkcJgfH4ETp9joZAMHjkFaWTwU3WHMt3Hxu0bzbhWP3gEN
jDXfCSUkL0roV7qnkLBYt26w8v3yk6diIHcwIY9nJzXJhVA2Zg9x5vu++J5K48xi
8iDrIBWB2bTswzYr+RAv6KWghuKJH9GTfQyAGT0Qtlahbxmmg5SnuBU8frnu2chS
Nj7sIoSpEITJu5M8ZMvqrtm/o+OXuVCocFmCd1JP8++hl8TfwJ7BjQ/1WF02ReMq
6LqT/VHtvEC3+DRINuKI7Ubj1NhTToumKIIwUQq8q+qGxGX1cLkZR6tXJj0j5B5F
mpMfzz2SUuavq+WnywVd5GVXZZuvFOPOomAltIx1Eu+rQslHeMA/FsRZN27wq6VN
UUWzs/Xxx3KOpHZToLme3MypMZB6hlcPR1vYBS7+OusisIJnhkJ6rRvJP9e5KdSG
5IOSka8cXE3ePTH8aRIbjPVI6XXHf3ylsPfNIyix9Ufo
-----END CERTIFICATE-----
