Certificate:
    Data:
        Version: 3 (0x2)
        Serial Number: 10717 (0x29dd)
    Signature Algorithm: sha256WithRSAEncryption
        Issuer: C=US, ST=OH, L=Columbus, O=VikingVPN, OU=MyOrganizationalUnit, CN=VikingVPN CA/name=EasyRSA/emailAddress=me@myhost.mydomain
        Validity
            Not Before: Apr 19 20:58:54 2017 GMT
            Not After : Apr 17 20:58:54 2027 GMT
        Subject: CN=Client2874Cert0fb99b
        Subject Public Key Info:
            Public Key Algorithm: rsaEncryption
                Public-Key: (4096 bit)
                Modulus:
                    00:ad:9a:ad:c0:f6:ce:ed:21:5f:58:e2:7b:31:29:
                    a2:2d:f8:66:76:ee:c0:4a:24:0f:a9:96:f5:df:14:
                    2e:4d:9a:62:1f:d3:c0:e9:1b:26:73:7d:64:78:b3:
                    ca:65:8e:d8:3e:b9:e3:63:fc:b9:9e:e1:f0:95:ab:
                    ba:e7:f8:2b:4e:ca:4e:1f:6b:66:22:69:32:af:fc:
                    5a:54:37:d3:80:97:bd:db:28:86:72:45:0d:84:51:
                    a3:fd:a5:bc:dc:ba:5c:7e:68:64:14:0b:2d:3a:b1:
                    e1:17:ca:b6:ab:ad:f6:95:93:f4:ee:9d:96:be:c6:
                    d4:d5:ec:a6:a6:74:b5:5d:7b:2d:47:2f:bb:d1:49:
                    d5:8a:d6:84:11:e4:c9:1e:9e:df:4b:4e:b0:ba:57:
                    e4:65:a0:02:e4:c5:da:31:1c:c0:8e:f3:7b:58:3d:
                    db:f3:e5:e6:4e:b7:7a:3c:df:9b:c8:5f:c7:66:3c:
                    2b:f4:47:d3:9e:f7:14:25:05:f5:75:a7:f9:67:ce:
                    a8:66:fa:a1:a6:37:d6:5f:2a:19:9a:02:29:1b:55:
                    24:fe:f4:0b:98:9c:f4:ee:53:58:29:9a:50:4e:59:
                    e3:2a:68:7e:2a:e9:04:d6:0c:89:e0:c9:38:25:ba:
                    48:ea:a0:c7:ca:c7:62:84:4b:ac:56:55:2c:56:ad:
                    cf:58:12:d3:cd:54:cf:0d:1d:54:9e:01:71:24:14:
                    bb:9f:d1:9b:ea:17:2e:46:5b:e5:05:c1:5e:a5:ed:
                    0e:62:5e:41:db:4e:52:5c:44:fc:2e:81:b9:ac:e6:
                    d5:57:f6:df:f9:83:0e:79:20:77:4e:30:ee:34:bf:
                    e0:6d:a5:db:1b:48:03:80:6d:ef:a6:d5:7f:8c:d7:
                    ae:f8:3e:1b:ac:46:ef:fd:9d:36:03:25:53:58:c5:
                    29:8c:25:fa:cc:9c:b2:15:6f:90:41:20:bb:6c:bd:
                    34:ed:04:79:aa:ec:fd:1c:71:a6:8b:76:90:2b:8d:
                    5a:7e:92:e5:40:38:82:b2:12:0c:4d:99:a4:1c:a5:
                    a2:81:ba:1c:35:6f:2f:04:d8:c0:75:34:69:f5:3b:
                    70:a3:19:38:b1:71:ff:a1:f2:fa:ff:c9:2f:ef:9d:
                    4d:0a:5f:93:0b:be:4a:9a:dd:73:f2:6c:f8:c6:91:
                    d6:69:a7:75:7d:19:55:e3:95:2e:4a:97:3b:b0:74:
                    2f:6a:98:ce:3b:80:1f:a6:35:c3:c2:d5:08:6a:1e:
                    ae:f5:09:2a:4e:a1:07:73:7d:31:5e:fd:f4:71:2d:
                    6a:2f:8a:ee:e8:95:0c:d7:0b:3b:e7:4c:53:81:51:
                    7b:1a:a2:4b:09:bb:3d:67:d8:fe:ed:92:aa:ff:5a:
                    7d:4c:55
                Exponent: 65537 (0x10001)
        X509v3 extensions:
            X509v3 Basic Constraints: 
                CA:FALSE
            Netscape Comment: 
                Easy-RSA Generated Certificate
            X509v3 Subject Key Identifier: 
                B6:FF:54:A3:C1:AD:8E:F4:4C:64:46:42:17:B8:7F:98:A8:E6:43:9D
            X509v3 Authority Key Identifier: 
                keyid:12:CD:60:04:D2:A0:80:9E:70:ED:C6:99:B8:7B:2C:C6:52:FD:19:A1
                DirName:/C=US/ST=OH/L=Columbus/O=VikingVPN/OU=MyOrganizationalUnit/CN=VikingVPN CA/name=EasyRSA/emailAddress=me@myhost.mydomain
                serial:CF:35:85:EE:80:BF:2A:3E

            X509v3 Extended Key Usage: 
                TLS Web Client Authentication
            X509v3 Key Usage: 
                Digital Signature
    Signature Algorithm: sha256WithRSAEncryption
         b3:b6:e9:75:d5:24:9c:c1:ab:87:db:65:9e:24:49:b9:03:64:
         70:98:82:d4:d2:a8:61:ff:42:80:f2:e1:a7:ff:ee:91:6f:a7:
         e3:1a:9d:87:77:37:5b:d1:91:56:d2:af:d9:41:84:cb:22:ef:
         da:c0:d5:b4:41:43:ee:cf:cf:c1:80:92:69:2f:1e:3a:79:70:
         5c:67:41:61:0a:b8:ff:1a:fe:69:6b:a3:34:83:50:62:33:ed:
         87:b1:8e:7e:c1:02:a0:30:d6:1f:8c:7e:97:26:b9:f5:57:72:
         c9:53:08:76:06:c9:8f:0f:e3:f1:6b:cb:90:80:59:47:a6:ea:
         64:5b:c1:cc:9a:b5:83:65:95:96:c5:a8:c8:af:ef:6e:0b:e8:
         84:56:73:81:16:93:da:93:c9:15:18:0a:04:92:dd:1e:94:da:
         f9:79:ed:ef:86:f0:24:05:b5:08:fe:02:e6:f2:5a:28:23:43:
         f0:ee:9d:cc:90:f9:dd:2f:4a:4e:d9:86:61:89:ac:85:d3:c6:
         54:87:aa:33:61:5d:eb:f4:66:b5:18:e1:41:d0:d3:ec:d2:8d:
         9d:9e:fa:54:b3:db:71:bf:28:c5:49:df:48:dd:8b:38:49:0f:
         20:7f:a5:0d:6d:31:a2:64:e3:8b:45:d0:aa:f0:e1:e6:bd:bb:
         d3:30:6d:bc:07:7b:30:a0:b6:98:d0:95:21:c8:f0:3f:3e:79:
         5d:7f:e5:64:5c:6d:42:a3:f9:ec:e9:8c:b5:33:91:ff:9e:5e:
         88:48:15:3f:81:21:a8:dd:a1:93:f9:f1:dc:dd:9c:6b:02:66:
         75:ea:95:76:bc:e3:c8:ac:cd:6e:ce:96:c2:7c:c8:13:88:25:
         15:90:f1:24:9a:25:ee:ca:01:b4:98:b2:35:54:5d:9f:17:61:
         5b:5a:68:28:67:74:b3:28:3c:7d:80:d0:c2:a1:13:1b:c9:a4:
         15:b0:56:3e:45:de:2f:77:58:f2:9a:73:95:8c:c2:f2:78:03:
         3f:53:d6:02:14:52:71:71:be:65:c4:61:33:d3:ed:ca:ee:43:
         7c:85:04:d2:15:08:c5:bf:d7:b6:59:f1:e0:7b:5c:31:b6:64:
         29:7f:21:b4:83:6d:9c:0f:dc:f1:33:ba:f2:f4:cf:5c:c4:30:
         d8:28:4f:1e:6d:3c:c2:6a:0a:a5:55:03:f6:aa:82:70:4b:00:
         a6:cb:5a:d0:06:67:19:2c:50:dc:aa:15:e7:08:e3:0a:a5:ba:
         94:51:5b:ae:9b:0a:23:f1:20:61:15:60:5b:6b:a7:5e:b0:42:
         8c:a7:bd:8f:7f:ad:a5:0c:a0:bf:62:55:de:fb:5a:a3:2d:a4:
         44:30:b8:6c:e7:8e:d2:bb
-----BEGIN CERTIFICATE-----
MIIGrTCCBJWgAwIBAgICKd0wDQYJKoZIhvcNAQELBQAwgawxCzAJBgNVBAYTAlVT
MQswCQYDVQQIEwJPSDERMA8GA1UEBxMIQ29sdW1idXMxEjAQBgNVBAoTCVZpa2lu
Z1ZQTjEdMBsGA1UECxMUTXlPcmdhbml6YXRpb25hbFVuaXQxFTATBgNVBAMTDFZp
a2luZ1ZQTiBDQTEQMA4GA1UEKRMHRWFzeVJTQTEhMB8GCSqGSIb3DQEJARYSbWVA
bXlob3N0Lm15ZG9tYWluMB4XDTE3MDQxOTIwNTg1NFoXDTI3MDQxNzIwNTg1NFow
HzEdMBsGA1UEAxMUQ2xpZW50Mjg3NENlcnQwZmI5OWIwggIiMA0GCSqGSIb3DQEB
AQUAA4ICDwAwggIKAoICAQCtmq3A9s7tIV9Y4nsxKaIt+GZ27sBKJA+plvXfFC5N
mmIf08DpGyZzfWR4s8pljtg+ueNj/Lme4fCVq7rn+CtOyk4fa2YiaTKv/FpUN9OA
l73bKIZyRQ2EUaP9pbzculx+aGQUCy06seEXyrarrfaVk/TunZa+xtTV7KamdLVd
ey1HL7vRSdWK1oQR5Mkent9LTrC6V+RloALkxdoxHMCO83tYPdvz5eZOt3o835vI
X8dmPCv0R9Oe9xQlBfV1p/lnzqhm+qGmN9ZfKhmaAikbVST+9AuYnPTuU1gpmlBO
WeMqaH4q6QTWDIngyTglukjqoMfKx2KES6xWVSxWrc9YEtPNVM8NHVSeAXEkFLuf
0ZvqFy5GW+UFwV6l7Q5iXkHbTlJcRPwugbms5tVX9t/5gw55IHdOMO40v+Btpdsb
SAOAbe+m1X+M1674PhusRu/9nTYDJVNYxSmMJfrMnLIVb5BBILtsvTTtBHmq7P0c
caaLdpArjVp+kuVAOIKyEgxNmaQcpaKBuhw1by8E2MB1NGn1O3CjGTixcf+h8vr/
yS/vnU0KX5MLvkqa3XPybPjGkdZpp3V9GVXjlS5KlzuwdC9qmM47gB+mNcPC1Qhq
Hq71CSpOoQdzfTFe/fRxLWoviu7olQzXCzvnTFOBUXsaoksJuz1n2P7tkqr/Wn1M
VQIDAQABo4IBYzCCAV8wCQYDVR0TBAIwADAtBglghkgBhvhCAQ0EIBYeRWFzeS1S
U0EgR2VuZXJhdGVkIENlcnRpZmljYXRlMB0GA1UdDgQWBBS2/1Sjwa2O9ExkRkIX
uH+YqOZDnTCB4QYDVR0jBIHZMIHWgBQSzWAE0qCAnnDtxpm4eyzGUv0ZoaGBsqSB
rzCBrDELMAkGA1UEBhMCVVMxCzAJBgNVBAgTAk9IMREwDwYDVQQHEwhDb2x1bWJ1
czESMBAGA1UEChMJVmlraW5nVlBOMR0wGwYDVQQLExRNeU9yZ2FuaXphdGlvbmFs
VW5pdDEVMBMGA1UEAxMMVmlraW5nVlBOIENBMRAwDgYDVQQpEwdFYXN5UlNBMSEw
HwYJKoZIhvcNAQkBFhJtZUBteWhvc3QubXlkb21haW6CCQDPNYXugL8qPjATBgNV
HSUEDDAKBggrBgEFBQcDAjALBgNVHQ8EBAMCB4AwDQYJKoZIhvcNAQELBQADggIB
ALO26XXVJJzBq4fbZZ4kSbkDZHCYgtTSqGH/QoDy4af/7pFvp+ManYd3N1vRkVbS
r9lBhMsi79rA1bRBQ+7Pz8GAkmkvHjp5cFxnQWEKuP8a/mlrozSDUGIz7Yexjn7B
AqAw1h+MfpcmufVXcslTCHYGyY8P4/Fry5CAWUem6mRbwcyatYNllZbFqMiv724L
6IRWc4EWk9qTyRUYCgSS3R6U2vl57e+G8CQFtQj+AubyWigjQ/DuncyQ+d0vSk7Z
hmGJrIXTxlSHqjNhXev0ZrUY4UHQ0+zSjZ2e+lSz23G/KMVJ30jdizhJDyB/pQ1t
MaJk44tF0Krw4ea9u9MwbbwHezCgtpjQlSHI8D8+eV1/5WRcbUKj+ezpjLUzkf+e
XohIFT+BIajdoZP58dzdnGsCZnXqlXa848iszW7OlsJ8yBOIJRWQ8SSaJe7KAbSY
sjVUXZ8XYVtaaChndLMoPH2A0MKhExvJpBWwVj5F3i93WPKac5WMwvJ4Az9T1gIU
UnFxvmXEYTPT7cruQ3yFBNIVCMW/17ZZ8eB7XDG2ZCl/IbSDbZwP3PEzuvL0z1zE
MNgoTx5tPMJqCqVVA/aqgnBLAKbLWtAGZxksUNyqFecI4wqlupRRW66bCiPxIGEV
YFtrp16wQoynvY9/raUMoL9iVd77WqMtpEQwuGznjtK7
-----END CERTIFICATE-----
