Certificate:
    Data:
        Version: 3 (0x2)
        Serial Number: 10745 (0x29f9)
    Signature Algorithm: sha256WithRSAEncryption
        Issuer: C=US, ST=OH, L=Columbus, O=VikingVPN, OU=MyOrganizationalUnit, CN=VikingVPN CA/name=EasyRSA/emailAddress=me@myhost.mydomain
        Validity
            Not Before: Apr 21 03:36:00 2017 GMT
            Not After : Apr 19 03:36:00 2027 GMT
        Subject: CN=Client2052Cert2ddb02
        Subject Public Key Info:
            Public Key Algorithm: rsaEncryption
                Public-Key: (4096 bit)
                Modulus:
                    00:b0:11:22:5d:36:4b:e2:15:8e:b4:e5:73:40:00:
                    a1:8c:a4:08:c0:f6:dc:50:38:28:0f:c3:0d:82:d6:
                    6b:ac:fd:d1:5e:22:ce:14:21:7f:c9:61:07:b8:45:
                    6d:d4:4e:7b:bb:9b:ba:df:a1:89:64:4f:53:01:ef:
                    b2:fb:a4:09:4b:e8:36:7a:f8:87:fc:f8:81:fb:62:
                    e3:e3:2b:4d:db:3a:4b:ae:a2:f9:3c:c2:66:26:13:
                    f0:9d:a0:07:18:21:17:51:cd:1c:b0:87:bf:a9:fb:
                    12:4f:25:e2:2b:8b:1c:53:bc:0f:f5:21:a6:85:4d:
                    8e:e0:a2:7e:12:3b:3b:3f:4d:81:f8:55:27:34:7f:
                    62:e2:83:be:2b:ec:7d:9b:41:97:ba:fe:e8:d4:33:
                    f5:26:49:8c:67:9b:a3:cd:9e:62:f1:50:b0:6f:be:
                    70:7d:2a:68:fe:23:f2:1d:d1:e8:d8:e5:0b:8d:d5:
                    1d:3c:13:a0:c7:0d:2f:d0:f1:5f:c9:0b:d5:ba:98:
                    b5:11:79:5d:13:92:55:dd:04:42:61:4a:a5:fe:4a:
                    28:65:65:b1:75:59:92:43:c0:e5:b6:1c:c6:fb:64:
                    04:c7:a1:ea:66:ff:01:78:8b:f7:44:c2:f8:18:01:
                    df:4a:60:14:7f:78:35:e1:af:ef:ac:5c:54:b4:2e:
                    45:87:90:1e:5e:93:92:e6:05:a9:b1:d3:f5:46:f2:
                    fe:2b:e1:83:de:c4:0a:40:e8:fc:c6:b8:24:10:d3:
                    9a:ff:44:3e:01:a2:62:08:ee:ff:06:08:0e:e8:6f:
                    e7:66:42:8c:2b:10:c1:83:d6:1f:2e:06:58:0e:f5:
                    c6:71:a9:71:18:28:1d:04:ab:8c:27:8e:2e:90:c1:
                    b6:16:a3:ff:bc:4d:51:b2:3a:57:f3:aa:ff:cf:32:
                    1a:9f:28:76:38:9f:f1:80:f8:58:29:7e:7b:1b:f7:
                    00:c0:e8:ee:fa:84:e9:2b:5b:fb:12:9c:2c:ff:aa:
                    b7:00:08:fc:25:ae:16:86:93:61:17:11:11:e3:7f:
                    38:30:f4:98:e9:62:93:04:14:c6:48:78:a2:d4:9c:
                    1d:41:7b:87:30:4d:09:51:b2:3d:28:f7:aa:1e:b7:
                    e5:9a:c0:c3:3c:04:8b:c8:88:c3:5a:ec:66:da:f9:
                    41:af:9f:08:c0:27:09:6e:2a:32:e3:8b:84:b0:f8:
                    70:a7:87:db:c2:2a:02:da:32:a8:f9:cf:ca:fa:0d:
                    9f:50:66:f2:4d:25:64:61:ce:33:f0:b2:d2:2a:53:
                    77:fd:22:dc:0e:9e:59:4e:80:d7:b3:77:68:8c:ae:
                    0b:7a:cf:c5:44:21:9e:c1:48:27:db:1b:17:db:e0:
                    25:7f:45
                Exponent: 65537 (0x10001)
        X509v3 extensions:
            X509v3 Basic Constraints: 
                CA:FALSE
            Netscape Comment: 
                Easy-RSA Generated Certificate
            X509v3 Subject Key Identifier: 
                C8:94:D7:61:1D:FC:0D:D0:07:6B:D5:FA:7F:EF:63:E9:25:6E:27:4F
            X509v3 Authority Key Identifier: 
                keyid:12:CD:60:04:D2:A0:80:9E:70:ED:C6:99:B8:7B:2C:C6:52:FD:19:A1
                DirName:/C=US/ST=OH/L=Columbus/O=VikingVPN/OU=MyOrganizationalUnit/CN=VikingVPN CA/name=EasyRSA/emailAddress=me@myhost.mydomain
                serial:CF:35:85:EE:80:BF:2A:3E

            X509v3 Extended Key Usage: 
                TLS Web Client Authentication
            X509v3 Key Usage: 
                Digital Signature
    Signature Algorithm: sha256WithRSAEncryption
         36:81:3a:08:8e:c3:81:60:e2:43:c3:73:99:79:18:bc:2c:40:
         83:6a:e4:e8:ce:23:07:0e:31:3a:50:19:05:13:e3:60:27:e1:
         ba:0b:27:97:34:13:fe:18:ce:59:dc:74:fd:d1:b2:38:f0:38:
         58:e0:f1:3a:99:32:a0:c5:0a:19:cb:16:1f:48:eb:60:76:f3:
         b8:24:fc:02:5d:a6:c0:ed:f3:15:eb:1d:db:41:5b:4a:7b:22:
         d2:05:35:b9:92:29:61:95:1e:61:92:7e:c0:13:14:19:f7:a9:
         c4:3a:aa:59:31:aa:cf:bd:bc:b5:37:59:33:6d:22:04:d8:d5:
         82:be:30:f7:a0:41:a3:5b:08:39:d7:75:87:31:60:51:58:0e:
         00:06:76:3c:79:ea:f5:44:68:b6:72:f9:3c:41:5c:9b:4b:37:
         74:58:b3:0b:0a:c0:2a:75:89:aa:dc:cf:75:61:06:6f:3d:61:
         75:9d:8a:e3:f1:88:b2:26:4d:9b:84:bc:f3:bd:7f:79:6c:5e:
         44:48:0f:29:46:c1:56:1e:a0:e4:c9:d5:6d:4d:db:01:5f:18:
         e6:2d:a5:06:23:ed:e1:89:98:c5:69:c2:3b:b8:c7:20:37:ae:
         2b:d6:f5:d5:4f:ed:e1:fc:75:1e:45:61:5e:24:b7:98:7b:88:
         49:ce:45:ee:03:42:3a:b6:23:57:59:23:f0:a5:02:40:27:f4:
         81:ec:ed:d4:2a:9f:d2:e4:7e:b3:03:e8:cd:8c:1c:d2:d9:88:
         2b:4a:35:a9:97:d6:8e:b4:93:d1:0b:8c:e3:60:43:49:17:6b:
         9e:17:d5:29:a6:db:88:e6:b1:a2:32:fc:84:9a:61:85:b5:0e:
         65:2b:9e:17:fc:99:27:e1:2d:e9:7e:aa:81:43:64:21:54:8f:
         0e:7e:17:3d:20:7f:1d:c5:77:27:2e:81:ae:1b:97:5d:cf:02:
         e8:36:1b:3d:00:3c:10:79:3f:e6:de:5b:e4:a9:64:c8:04:0f:
         47:cf:e7:77:47:d7:ed:71:f3:43:84:4f:03:34:58:47:3c:f2:
         c5:c6:9f:bf:4c:a7:a6:0d:2f:79:8a:cb:e7:68:88:33:d4:8f:
         f8:4f:d0:cc:2f:6c:1f:5a:59:15:0e:d1:24:a1:51:ce:de:3f:
         1e:b6:71:de:16:54:71:ab:cc:dc:9b:80:b4:0a:a6:8b:70:40:
         70:61:81:81:99:bc:a7:81:bf:56:94:2e:21:36:f9:e0:cc:19:
         c7:e9:08:ad:6f:6c:72:23:cb:94:9a:71:b7:21:5b:5b:8a:5d:
         21:e8:59:44:7e:06:0d:2e:68:28:04:7a:fc:05:fb:86:26:9c:
         4f:08:56:c8:c0:b3:2a:37
-----BEGIN CERTIFICATE-----
MIIGrTCCBJWgAwIBAgICKfkwDQYJKoZIhvcNAQELBQAwgawxCzAJBgNVBAYTAlVT
MQswCQYDVQQIEwJPSDERMA8GA1UEBxMIQ29sdW1idXMxEjAQBgNVBAoTCVZpa2lu
Z1ZQTjEdMBsGA1UECxMUTXlPcmdhbml6YXRpb25hbFVuaXQxFTATBgNVBAMTDFZp
a2luZ1ZQTiBDQTEQMA4GA1UEKRMHRWFzeVJTQTEhMB8GCSqGSIb3DQEJARYSbWVA
bXlob3N0Lm15ZG9tYWluMB4XDTE3MDQyMTAzMzYwMFoXDTI3MDQxOTAzMzYwMFow
HzEdMBsGA1UEAxMUQ2xpZW50MjA1MkNlcnQyZGRiMDIwggIiMA0GCSqGSIb3DQEB
AQUAA4ICDwAwggIKAoICAQCwESJdNkviFY605XNAAKGMpAjA9txQOCgPww2C1mus
/dFeIs4UIX/JYQe4RW3UTnu7m7rfoYlkT1MB77L7pAlL6DZ6+If8+IH7YuPjK03b
Okuuovk8wmYmE/CdoAcYIRdRzRywh7+p+xJPJeIrixxTvA/1IaaFTY7gon4SOzs/
TYH4VSc0f2Lig74r7H2bQZe6/ujUM/UmSYxnm6PNnmLxULBvvnB9Kmj+I/Id0ejY
5QuN1R08E6DHDS/Q8V/JC9W6mLUReV0TklXdBEJhSqX+SihlZbF1WZJDwOW2HMb7
ZATHoepm/wF4i/dEwvgYAd9KYBR/eDXhr++sXFS0LkWHkB5ek5LmBamx0/VG8v4r
4YPexApA6PzGuCQQ05r/RD4BomII7v8GCA7ob+dmQowrEMGD1h8uBlgO9cZxqXEY
KB0Eq4wnji6QwbYWo/+8TVGyOlfzqv/PMhqfKHY4n/GA+Fgpfnsb9wDA6O76hOkr
W/sSnCz/qrcACPwlrhaGk2EXERHjfzgw9JjpYpMEFMZIeKLUnB1Be4cwTQlRsj0o
96oet+WawMM8BIvIiMNa7Gba+UGvnwjAJwluKjLji4Sw+HCnh9vCKgLaMqj5z8r6
DZ9QZvJNJWRhzjPwstIqU3f9ItwOnllOgNezd2iMrgt6z8VEIZ7BSCfbGxfb4CV/
RQIDAQABo4IBYzCCAV8wCQYDVR0TBAIwADAtBglghkgBhvhCAQ0EIBYeRWFzeS1S
U0EgR2VuZXJhdGVkIENlcnRpZmljYXRlMB0GA1UdDgQWBBTIlNdhHfwN0Adr1fp/
72PpJW4nTzCB4QYDVR0jBIHZMIHWgBQSzWAE0qCAnnDtxpm4eyzGUv0ZoaGBsqSB
rzCBrDELMAkGA1UEBhMCVVMxCzAJBgNVBAgTAk9IMREwDwYDVQQHEwhDb2x1bWJ1
czESMBAGA1UEChMJVmlraW5nVlBOMR0wGwYDVQQLExRNeU9yZ2FuaXphdGlvbmFs
VW5pdDEVMBMGA1UEAxMMVmlraW5nVlBOIENBMRAwDgYDVQQpEwdFYXN5UlNBMSEw
HwYJKoZIhvcNAQkBFhJtZUBteWhvc3QubXlkb21haW6CCQDPNYXugL8qPjATBgNV
HSUEDDAKBggrBgEFBQcDAjALBgNVHQ8EBAMCB4AwDQYJKoZIhvcNAQELBQADggIB
ADaBOgiOw4Fg4kPDc5l5GLwsQINq5OjOIwcOMTpQGQUT42An4boLJ5c0E/4Yzlnc
dP3RsjjwOFjg8TqZMqDFChnLFh9I62B287gk/AJdpsDt8xXrHdtBW0p7ItIFNbmS
KWGVHmGSfsATFBn3qcQ6qlkxqs+9vLU3WTNtIgTY1YK+MPegQaNbCDnXdYcxYFFY
DgAGdjx56vVEaLZy+TxBXJtLN3RYswsKwCp1iarcz3VhBm89YXWdiuPxiLImTZuE
vPO9f3lsXkRIDylGwVYeoOTJ1W1N2wFfGOYtpQYj7eGJmMVpwju4xyA3rivW9dVP
7eH8dR5FYV4kt5h7iEnORe4DQjq2I1dZI/ClAkAn9IHs7dQqn9LkfrMD6M2MHNLZ
iCtKNamX1o60k9ELjONgQ0kXa54X1Smm24jmsaIy/ISaYYW1DmUrnhf8mSfhLel+
qoFDZCFUjw5+Fz0gfx3Fdycuga4bl13PAug2Gz0APBB5P+beW+SpZMgED0fP53dH
1+1x80OETwM0WEc88sXGn79Mp6YNL3mKy+doiDPUj/hP0MwvbB9aWRUO0SShUc7e
Px62cd4WVHGrzNybgLQKpotwQHBhgYGZvKeBv1aULiE2+eDMGcfpCK1vbHIjy5Sa
cbchW1uKXSHoWUR+Bg0uaCgEevwF+4YmnE8IVsjAsyo3
-----END CERTIFICATE-----
