Certificate:
    Data:
        Version: 3 (0x2)
        Serial Number: 10751 (0x29ff)
    Signature Algorithm: sha256WithRSAEncryption
        Issuer: C=US, ST=OH, L=Columbus, O=VikingVPN, OU=MyOrganizationalUnit, CN=VikingVPN CA/name=EasyRSA/emailAddress=me@myhost.mydomain
        Validity
            Not Before: Apr 21 06:36:18 2017 GMT
            Not After : Apr 19 06:36:18 2027 GMT
        Subject: CN=Client2620Certf68470
        Subject Public Key Info:
            Public Key Algorithm: rsaEncryption
                Public-Key: (4096 bit)
                Modulus:
                    00:c2:01:20:be:a6:4b:01:b0:1d:a6:c3:d3:c2:a2:
                    0d:bd:2e:51:ae:28:9b:c2:31:eb:b1:45:e2:a9:b4:
                    34:30:fc:ef:50:7e:c3:b1:4f:ec:a1:49:3c:0a:2a:
                    d8:d9:ce:af:98:a8:f7:3e:4d:1a:50:6f:ae:53:f1:
                    11:be:5b:16:d7:15:60:5f:7b:2e:f5:77:d1:55:39:
                    cb:73:37:2f:90:da:03:31:b5:cd:a0:dd:d1:78:39:
                    f8:57:03:da:3d:11:d6:21:e2:2f:01:be:e8:84:d0:
                    73:d5:27:eb:97:a8:c3:f1:d6:a3:98:32:cd:8e:41:
                    42:7b:aa:4d:41:6a:ca:c9:a7:fc:73:f3:84:9b:9c:
                    7a:87:0e:79:21:b5:f1:20:52:21:5b:dd:0f:1c:4b:
                    89:5f:a2:8d:ce:ee:48:28:15:3c:d5:d1:40:52:c6:
                    18:22:f7:bd:a1:c8:65:bd:aa:62:6c:c5:0e:d1:6d:
                    6b:f8:2f:83:f5:ab:e1:e7:c7:10:c9:be:f4:3a:91:
                    35:d4:ff:3b:5c:ed:ae:65:25:10:f5:02:99:27:4e:
                    4d:71:3b:10:96:ff:79:79:ae:3e:20:f5:4b:0b:38:
                    41:82:91:b5:5a:b4:c7:02:e8:d8:83:81:f1:e6:43:
                    cf:cf:3e:de:05:cc:2d:b8:90:1c:ca:0e:ec:0f:bd:
                    59:8e:c7:67:63:a6:64:9f:84:19:4a:1a:bc:dd:f9:
                    f2:6f:3f:16:0e:b3:bf:bf:3a:95:8c:51:28:cf:97:
                    3c:e6:9c:2f:0e:b2:b0:be:95:cd:11:e5:bd:89:b2:
                    fc:dc:6d:bb:15:11:1f:f2:97:79:c0:fb:49:0b:5b:
                    a4:77:c4:e9:29:53:88:90:95:63:0c:6c:1d:8f:f3:
                    7b:be:a0:70:3b:8b:35:fb:c2:6d:ac:68:33:6c:36:
                    de:17:98:a7:4a:9c:d5:55:49:9b:0d:ef:9a:84:4c:
                    a5:9a:fc:39:6f:15:41:bb:1c:df:f1:fb:14:1d:8b:
                    9e:e1:31:78:60:f4:24:0f:22:ea:d8:21:a9:08:d1:
                    30:e6:6a:c5:53:b5:00:b8:38:b8:ce:08:94:37:aa:
                    1d:ef:10:67:83:43:08:a4:3b:d0:82:ea:b1:e0:0e:
                    9e:85:da:ee:fe:9c:12:10:c0:d2:99:88:55:db:7d:
                    b4:fe:84:0b:92:dc:26:b6:80:57:2c:f4:70:4c:96:
                    b8:98:23:6b:53:f3:87:d4:41:1a:15:62:0c:bb:ee:
                    9e:11:4b:11:0b:cb:ae:5c:61:20:da:88:04:ab:e5:
                    f7:9c:87:47:43:6e:49:4d:0c:35:f4:6d:63:b4:05:
                    a1:54:4c:1d:63:ee:f9:5a:f5:bf:ad:db:f7:c3:5b:
                    6e:05:b9
                Exponent: 65537 (0x10001)
        X509v3 extensions:
            X509v3 Basic Constraints: 
                CA:FALSE
            Netscape Comment: 
                Easy-RSA Generated Certificate
            X509v3 Subject Key Identifier: 
                E6:01:C8:6C:B1:2D:E0:A3:EA:6D:2A:9F:77:D6:F7:A4:E1:7F:39:AC
            X509v3 Authority Key Identifier: 
                keyid:12:CD:60:04:D2:A0:80:9E:70:ED:C6:99:B8:7B:2C:C6:52:FD:19:A1
                DirName:/C=US/ST=OH/L=Columbus/O=VikingVPN/OU=MyOrganizationalUnit/CN=VikingVPN CA/name=EasyRSA/emailAddress=me@myhost.mydomain
                serial:CF:35:85:EE:80:BF:2A:3E

            X509v3 Extended Key Usage: 
                TLS Web Client Authentication
            X509v3 Key Usage: 
                Digital Signature
    Signature Algorithm: sha256WithRSAEncryption
         c3:87:85:82:ef:49:77:d5:54:ed:90:39:23:11:81:d1:5d:0f:
         5c:79:60:d0:d2:50:01:a6:48:3b:0a:82:c9:f4:af:01:27:6d:
         8a:b0:1a:bd:9f:05:ce:d4:0a:2d:35:e3:39:7a:2d:6c:7c:52:
         c8:20:15:ae:55:9a:93:53:e5:ec:99:33:a4:c1:57:43:b0:3f:
         58:55:ca:c0:a8:56:05:c9:2f:ec:04:1f:67:21:99:13:1f:c4:
         32:d9:8d:e0:57:ee:8d:30:b5:b8:26:ff:9d:05:47:13:02:b2:
         e5:af:66:10:04:e1:23:0e:d8:42:ba:3a:5e:89:9b:29:96:c9:
         62:2c:02:09:2a:67:16:85:48:0e:af:41:bf:dc:d6:aa:85:a3:
         ff:5b:6d:19:25:5f:7a:e5:2a:60:d4:7d:b1:e7:4e:26:ee:27:
         9c:fc:54:7d:9a:13:86:b6:d1:59:43:e7:bb:16:01:80:87:2d:
         fd:22:97:3a:96:59:58:dd:60:8d:4b:41:a1:8f:a4:ad:b4:20:
         54:10:9d:1e:17:c6:1a:83:7d:5e:21:20:93:d5:3c:97:95:7d:
         90:44:b0:8e:d4:84:91:95:3f:67:e2:ba:b9:ac:30:8a:86:3a:
         2c:77:df:5b:78:44:1f:59:d9:47:cf:01:32:b6:e9:51:45:67:
         4e:e4:7d:a3:39:66:5f:ef:43:52:e4:b5:7f:6a:dc:5c:a7:3a:
         47:48:44:02:7a:89:46:8f:07:c6:02:96:ac:eb:ca:5f:84:d8:
         82:d0:c5:0f:ac:40:42:00:9c:82:0d:ef:87:23:7e:3c:0b:48:
         ce:4b:77:5a:db:3f:88:58:1a:01:e0:1b:c4:a0:c5:6b:ca:66:
         26:fd:ad:4a:d2:81:b7:e0:7c:9e:01:1d:e4:8f:57:c4:05:f0:
         27:30:33:f9:eb:e0:d6:20:5b:c3:64:e6:75:29:5f:bf:71:11:
         29:fe:f3:09:96:ac:ea:b8:df:a8:07:31:fd:01:6f:c3:6b:97:
         11:4d:8b:c7:cb:2d:da:2a:be:70:60:c3:32:c4:2b:25:24:a6:
         6a:50:f3:8a:41:3d:c3:56:b1:20:00:11:d5:76:12:9e:fe:8c:
         0e:d5:b9:37:b1:81:bb:86:84:c0:30:44:8e:ce:aa:ea:e6:94:
         e7:8a:cc:52:af:d9:c4:9f:aa:6a:b5:ae:d2:7e:5d:b8:76:81:
         e3:81:1e:f5:fe:ba:6c:0c:e3:de:8a:e7:21:bf:e3:60:86:0b:
         37:6d:a2:1e:1c:b5:d5:ee:64:94:b9:31:9e:58:4d:fe:24:00:
         1b:79:02:65:f6:b9:52:45:34:d4:e8:15:d7:f0:67:0e:19:b2:
         ee:b0:26:bb:ec:f2:67:64
-----BEGIN CERTIFICATE-----
MIIGrTCCBJWgAwIBAgICKf8wDQYJKoZIhvcNAQELBQAwgawxCzAJBgNVBAYTAlVT
MQswCQYDVQQIEwJPSDERMA8GA1UEBxMIQ29sdW1idXMxEjAQBgNVBAoTCVZpa2lu
Z1ZQTjEdMBsGA1UECxMUTXlPcmdhbml6YXRpb25hbFVuaXQxFTATBgNVBAMTDFZp
a2luZ1ZQTiBDQTEQMA4GA1UEKRMHRWFzeVJTQTEhMB8GCSqGSIb3DQEJARYSbWVA
bXlob3N0Lm15ZG9tYWluMB4XDTE3MDQyMTA2MzYxOFoXDTI3MDQxOTA2MzYxOFow
HzEdMBsGA1UEAxMUQ2xpZW50MjYyMENlcnRmNjg0NzAwggIiMA0GCSqGSIb3DQEB
AQUAA4ICDwAwggIKAoICAQDCASC+pksBsB2mw9PCog29LlGuKJvCMeuxReKptDQw
/O9QfsOxT+yhSTwKKtjZzq+YqPc+TRpQb65T8RG+WxbXFWBfey71d9FVOctzNy+Q
2gMxtc2g3dF4OfhXA9o9EdYh4i8BvuiE0HPVJ+uXqMPx1qOYMs2OQUJ7qk1BasrJ
p/xz84SbnHqHDnkhtfEgUiFb3Q8cS4lfoo3O7kgoFTzV0UBSxhgi972hyGW9qmJs
xQ7RbWv4L4P1q+HnxxDJvvQ6kTXU/ztc7a5lJRD1ApknTk1xOxCW/3l5rj4g9UsL
OEGCkbVatMcC6NiDgfHmQ8/PPt4FzC24kBzKDuwPvVmOx2djpmSfhBlKGrzd+fJv
PxYOs7+/OpWMUSjPlzzmnC8OsrC+lc0R5b2JsvzcbbsVER/yl3nA+0kLW6R3xOkp
U4iQlWMMbB2P83u+oHA7izX7wm2saDNsNt4XmKdKnNVVSZsN75qETKWa/DlvFUG7
HN/x+xQdi57hMXhg9CQPIurYIakI0TDmasVTtQC4OLjOCJQ3qh3vEGeDQwikO9CC
6rHgDp6F2u7+nBIQwNKZiFXbfbT+hAuS3Ca2gFcs9HBMlriYI2tT84fUQRoVYgy7
7p4RSxELy65cYSDaiASr5fech0dDbklNDDX0bWO0BaFUTB1j7vla9b+t2/fDW24F
uQIDAQABo4IBYzCCAV8wCQYDVR0TBAIwADAtBglghkgBhvhCAQ0EIBYeRWFzeS1S
U0EgR2VuZXJhdGVkIENlcnRpZmljYXRlMB0GA1UdDgQWBBTmAchssS3go+ptKp93
1vek4X85rDCB4QYDVR0jBIHZMIHWgBQSzWAE0qCAnnDtxpm4eyzGUv0ZoaGBsqSB
rzCBrDELMAkGA1UEBhMCVVMxCzAJBgNVBAgTAk9IMREwDwYDVQQHEwhDb2x1bWJ1
czESMBAGA1UEChMJVmlraW5nVlBOMR0wGwYDVQQLExRNeU9yZ2FuaXphdGlvbmFs
VW5pdDEVMBMGA1UEAxMMVmlraW5nVlBOIENBMRAwDgYDVQQpEwdFYXN5UlNBMSEw
HwYJKoZIhvcNAQkBFhJtZUBteWhvc3QubXlkb21haW6CCQDPNYXugL8qPjATBgNV
HSUEDDAKBggrBgEFBQcDAjALBgNVHQ8EBAMCB4AwDQYJKoZIhvcNAQELBQADggIB
AMOHhYLvSXfVVO2QOSMRgdFdD1x5YNDSUAGmSDsKgsn0rwEnbYqwGr2fBc7UCi01
4zl6LWx8UsggFa5VmpNT5eyZM6TBV0OwP1hVysCoVgXJL+wEH2chmRMfxDLZjeBX
7o0wtbgm/50FRxMCsuWvZhAE4SMO2EK6Ol6JmymWyWIsAgkqZxaFSA6vQb/c1qqF
o/9bbRklX3rlKmDUfbHnTibuJ5z8VH2aE4a20VlD57sWAYCHLf0ilzqWWVjdYI1L
QaGPpK20IFQQnR4XxhqDfV4hIJPVPJeVfZBEsI7UhJGVP2fiurmsMIqGOix331t4
RB9Z2UfPATK26VFFZ07kfaM5Zl/vQ1LktX9q3FynOkdIRAJ6iUaPB8YClqzryl+E
2ILQxQ+sQEIAnIIN74cjfjwLSM5Ld1rbP4hYGgHgG8SgxWvKZib9rUrSgbfgfJ4B
HeSPV8QF8CcwM/nr4NYgW8Nk5nUpX79xESn+8wmWrOq436gHMf0Bb8NrlxFNi8fL
LdoqvnBgwzLEKyUkpmpQ84pBPcNWsSAAEdV2Ep7+jA7VuTexgbuGhMAwRI7Oqurm
lOeKzFKv2cSfqmq1rtJ+Xbh2geOBHvX+umwM496K5yG/42CGCzdtoh4ctdXuZJS5
MZ5YTf4kABt5AmX2uVJFNNToFdfwZw4Zsu6wJrvs8mdk
-----END CERTIFICATE-----
