Certificate:
    Data:
        Version: 3 (0x2)
        Serial Number: 10759 (0x2a07)
    Signature Algorithm: sha256WithRSAEncryption
        Issuer: C=US, ST=OH, L=Columbus, O=VikingVPN, OU=MyOrganizationalUnit, CN=VikingVPN CA/name=EasyRSA/emailAddress=me@myhost.mydomain
        Validity
            Not Before: Apr 22 14:20:32 2017 GMT
            Not After : Apr 20 14:20:32 2027 GMT
        Subject: CN=Client2874Certa98016
        Subject Public Key Info:
            Public Key Algorithm: rsaEncryption
                Public-Key: (4096 bit)
                Modulus:
                    00:a0:79:de:59:3d:32:d6:2d:44:81:95:21:72:6b:
                    e9:99:04:07:d6:da:fa:11:fc:84:ec:63:ab:9f:09:
                    f8:c9:f6:2a:6e:2a:00:4a:bd:96:da:e7:ce:7a:88:
                    b9:88:77:18:af:14:06:b6:76:c0:02:d5:ea:42:a0:
                    cf:f2:de:3f:29:6c:fa:d0:36:85:8a:a9:8b:17:3f:
                    0e:36:44:98:4d:dd:de:cf:50:c3:9c:5c:7b:de:68:
                    be:7b:df:fb:64:b6:7b:83:1f:90:bb:fd:9d:f4:16:
                    13:02:b5:17:23:61:8d:77:9d:f5:96:1f:d6:de:00:
                    f5:c9:5d:0a:19:5b:1b:0b:b6:6b:ad:23:04:ba:80:
                    f1:61:6b:70:1d:98:b7:35:03:26:ea:98:de:e9:48:
                    70:5c:92:2c:58:13:60:b2:f4:f1:8d:65:52:0c:8c:
                    e8:8d:25:cf:6c:a3:9d:47:16:39:7b:d1:1a:81:56:
                    97:29:5b:35:b0:ea:d9:e4:0f:7c:7d:75:17:f1:f6:
                    e6:a0:c6:2f:83:75:d1:b3:7d:62:27:5c:90:39:43:
                    8a:40:91:b8:bf:01:f2:f0:10:f1:70:12:47:c7:1a:
                    1a:70:f0:50:1d:b8:e2:e9:8f:32:3f:e2:7a:5f:07:
                    70:72:d3:e3:9e:c0:05:43:a6:89:9f:4a:15:68:ab:
                    4e:da:01:74:3a:32:3b:78:54:34:60:3d:83:4d:07:
                    34:aa:11:c5:06:53:21:85:03:e6:e5:24:f0:7a:9e:
                    e8:46:11:ba:78:82:f5:ef:72:6b:2f:a1:60:ce:bf:
                    2f:47:00:ed:70:cf:85:1c:6a:66:79:03:d1:05:3f:
                    94:fa:24:15:2e:44:72:3f:fd:27:91:5f:34:ed:ed:
                    aa:ad:22:1f:97:ee:d7:a9:24:7e:88:38:b2:65:6f:
                    18:63:a8:0c:33:63:d1:cc:79:ec:e3:b6:64:f7:7a:
                    fd:b8:2b:6c:37:81:65:33:3b:87:19:67:f0:79:53:
                    7b:42:cb:21:07:b4:75:24:de:e1:cd:12:f8:0c:f3:
                    b1:e6:cb:a7:41:c6:1b:cf:79:14:68:05:b5:93:91:
                    93:74:89:3a:93:5b:b1:9e:af:99:e6:07:d2:4c:5b:
                    bf:bc:69:22:58:df:db:a4:5e:a0:b2:bb:56:0e:75:
                    1b:43:ff:24:4f:2c:69:4c:3b:ba:8d:39:59:c7:25:
                    ba:72:18:85:2b:5e:16:ce:3b:07:64:ac:1a:5c:20:
                    f6:6f:ff:a7:c0:45:c8:bc:b2:c6:36:80:0d:3e:48:
                    bb:b3:6d:51:b1:9d:51:ff:f5:22:c1:c3:25:90:83:
                    8a:57:d7:e0:bc:b8:d2:98:b4:bb:c8:c6:e9:09:47:
                    70:f5:cb
                Exponent: 65537 (0x10001)
        X509v3 extensions:
            X509v3 Basic Constraints: 
                CA:FALSE
            Netscape Comment: 
                Easy-RSA Generated Certificate
            X509v3 Subject Key Identifier: 
                3D:12:43:B5:E1:C7:25:92:FE:A3:13:B7:CF:EA:8B:22:BE:60:02:5F
            X509v3 Authority Key Identifier: 
                keyid:12:CD:60:04:D2:A0:80:9E:70:ED:C6:99:B8:7B:2C:C6:52:FD:19:A1
                DirName:/C=US/ST=OH/L=Columbus/O=VikingVPN/OU=MyOrganizationalUnit/CN=VikingVPN CA/name=EasyRSA/emailAddress=me@myhost.mydomain
                serial:CF:35:85:EE:80:BF:2A:3E

            X509v3 Extended Key Usage: 
                TLS Web Client Authentication
            X509v3 Key Usage: 
                Digital Signature
    Signature Algorithm: sha256WithRSAEncryption
         66:16:5f:bf:79:2c:a4:7d:93:19:49:78:be:56:4c:a3:e7:5e:
         6b:73:d5:6f:7e:14:5f:96:52:7a:fd:1d:3a:55:d2:92:0b:5f:
         fb:7f:f7:81:f8:25:91:44:22:9b:ee:14:68:25:55:b1:70:15:
         48:e2:48:b4:e5:bb:ba:14:ed:4c:0a:f6:36:39:75:ae:50:78:
         86:aa:bc:65:76:73:34:73:24:9c:9e:fe:16:0c:23:d5:5e:f6:
         6f:89:54:93:32:0b:9f:84:d1:ba:f7:d0:c0:55:97:1f:79:32:
         b4:40:e9:93:cd:2c:f9:20:81:7c:56:7f:3e:39:fa:b8:c8:fe:
         f9:46:0e:6f:96:7a:a5:b7:c9:9a:a6:88:5a:bf:d2:6c:49:8b:
         27:f0:64:ff:dd:90:ce:b9:d7:87:97:f1:a5:f5:32:f7:b2:ec:
         63:05:57:23:54:80:a4:4a:79:8a:0d:80:b5:34:f5:cc:1a:3a:
         19:1f:cc:36:fa:2c:d1:69:2c:61:19:2d:37:7c:38:8f:2f:27:
         99:a6:f3:99:fe:7f:1f:79:6d:e0:82:f2:e4:65:3d:de:29:8e:
         e3:11:d6:de:d8:20:aa:a7:d8:39:99:af:81:37:d8:5c:55:f2:
         27:10:1c:d4:7e:5e:3b:ee:33:1b:55:c0:33:8e:09:51:f4:b8:
         6a:b2:b2:f0:95:12:19:dd:6b:72:08:a6:da:1d:9f:07:72:84:
         06:87:59:d5:35:46:eb:87:cb:24:bb:42:82:20:80:fe:e6:23:
         bf:b7:ae:9c:57:91:ec:7d:5c:11:c9:16:8e:3a:cf:66:88:e7:
         7d:24:2e:72:0f:65:b3:1d:b3:d3:28:65:21:00:d4:58:d2:2e:
         e8:11:3e:c3:78:ae:ac:67:9f:5d:6c:78:4c:27:9b:72:65:f6:
         85:10:9f:11:51:55:9f:bb:b5:36:d1:c6:98:5a:0b:5c:c8:05:
         84:e1:29:68:a7:76:15:1c:88:47:5a:9a:e9:31:14:bc:65:4a:
         6c:af:81:98:cd:25:e6:6c:19:86:f9:89:c4:f2:ef:f6:75:ad:
         54:2d:2f:e1:75:bc:a6:8f:31:cf:56:45:8d:ac:e9:14:bb:d6:
         41:99:80:86:9b:87:32:18:d2:44:60:fc:e4:9e:a4:43:43:d3:
         cf:6d:8f:a9:db:09:95:be:49:59:77:9e:a5:82:ea:33:76:00:
         ff:82:ae:0b:57:e7:21:da:b4:ce:f4:a9:e4:a9:f1:f9:f0:23:
         08:b0:f4:c4:5e:ba:75:e4:41:22:33:c8:c4:73:7a:b7:5a:0a:
         1a:2d:6a:a1:29:3f:4e:30:7a:ac:84:c8:84:b6:57:c3:54:1a:
         32:dd:18:eb:47:fd:07:9f
-----BEGIN CERTIFICATE-----
MIIGrTCCBJWgAwIBAgICKgcwDQYJKoZIhvcNAQELBQAwgawxCzAJBgNVBAYTAlVT
MQswCQYDVQQIEwJPSDERMA8GA1UEBxMIQ29sdW1idXMxEjAQBgNVBAoTCVZpa2lu
Z1ZQTjEdMBsGA1UECxMUTXlPcmdhbml6YXRpb25hbFVuaXQxFTATBgNVBAMTDFZp
a2luZ1ZQTiBDQTEQMA4GA1UEKRMHRWFzeVJTQTEhMB8GCSqGSIb3DQEJARYSbWVA
bXlob3N0Lm15ZG9tYWluMB4XDTE3MDQyMjE0MjAzMloXDTI3MDQyMDE0MjAzMlow
HzEdMBsGA1UEAxMUQ2xpZW50Mjg3NENlcnRhOTgwMTYwggIiMA0GCSqGSIb3DQEB
AQUAA4ICDwAwggIKAoICAQCged5ZPTLWLUSBlSFya+mZBAfW2voR/ITsY6ufCfjJ
9ipuKgBKvZba5856iLmIdxivFAa2dsAC1epCoM/y3j8pbPrQNoWKqYsXPw42RJhN
3d7PUMOcXHveaL573/tktnuDH5C7/Z30FhMCtRcjYY13nfWWH9beAPXJXQoZWxsL
tmutIwS6gPFha3AdmLc1AybqmN7pSHBckixYE2Cy9PGNZVIMjOiNJc9so51HFjl7
0RqBVpcpWzWw6tnkD3x9dRfx9uagxi+DddGzfWInXJA5Q4pAkbi/AfLwEPFwEkfH
Ghpw8FAduOLpjzI/4npfB3By0+OewAVDpomfShVoq07aAXQ6Mjt4VDRgPYNNBzSq
EcUGUyGFA+blJPB6nuhGEbp4gvXvcmsvoWDOvy9HAO1wz4UcamZ5A9EFP5T6JBUu
RHI//SeRXzTt7aqtIh+X7tepJH6IOLJlbxhjqAwzY9HMeezjtmT3ev24K2w3gWUz
O4cZZ/B5U3tCyyEHtHUk3uHNEvgM87Hmy6dBxhvPeRRoBbWTkZN0iTqTW7Ger5nm
B9JMW7+8aSJY39ukXqCyu1YOdRtD/yRPLGlMO7qNOVnHJbpyGIUrXhbOOwdkrBpc
IPZv/6fARci8ssY2gA0+SLuzbVGxnVH/9SLBwyWQg4pX1+C8uNKYtLvIxukJR3D1
ywIDAQABo4IBYzCCAV8wCQYDVR0TBAIwADAtBglghkgBhvhCAQ0EIBYeRWFzeS1S
U0EgR2VuZXJhdGVkIENlcnRpZmljYXRlMB0GA1UdDgQWBBQ9EkO14cclkv6jE7fP
6osivmACXzCB4QYDVR0jBIHZMIHWgBQSzWAE0qCAnnDtxpm4eyzGUv0ZoaGBsqSB
rzCBrDELMAkGA1UEBhMCVVMxCzAJBgNVBAgTAk9IMREwDwYDVQQHEwhDb2x1bWJ1
czESMBAGA1UEChMJVmlraW5nVlBOMR0wGwYDVQQLExRNeU9yZ2FuaXphdGlvbmFs
VW5pdDEVMBMGA1UEAxMMVmlraW5nVlBOIENBMRAwDgYDVQQpEwdFYXN5UlNBMSEw
HwYJKoZIhvcNAQkBFhJtZUBteWhvc3QubXlkb21haW6CCQDPNYXugL8qPjATBgNV
HSUEDDAKBggrBgEFBQcDAjALBgNVHQ8EBAMCB4AwDQYJKoZIhvcNAQELBQADggIB
AGYWX795LKR9kxlJeL5WTKPnXmtz1W9+FF+WUnr9HTpV0pILX/t/94H4JZFEIpvu
FGglVbFwFUjiSLTlu7oU7UwK9jY5da5QeIaqvGV2czRzJJye/hYMI9Ve9m+JVJMy
C5+E0br30MBVlx95MrRA6ZPNLPkggXxWfz45+rjI/vlGDm+WeqW3yZqmiFq/0mxJ
iyfwZP/dkM6514eX8aX1Mvey7GMFVyNUgKRKeYoNgLU09cwaOhkfzDb6LNFpLGEZ
LTd8OI8vJ5mm85n+fx95beCC8uRlPd4pjuMR1t7YIKqn2DmZr4E32FxV8icQHNR+
XjvuMxtVwDOOCVH0uGqysvCVEhnda3IIptodnwdyhAaHWdU1RuuHyyS7QoIggP7m
I7+3rpxXkex9XBHJFo46z2aI530kLnIPZbMds9MoZSEA1FjSLugRPsN4rqxnn11s
eEwnm3Jl9oUQnxFRVZ+7tTbRxphaC1zIBYThKWindhUciEdamukxFLxlSmyvgZjN
JeZsGYb5icTy7/Z1rVQtL+F1vKaPMc9WRY2s6RS71kGZgIabhzIY0kRg/OSepEND
089tj6nbCZW+SVl3nqWC6jN2AP+CrgtX5yHatM70qeSp8fnwIwiw9MReunXkQSIz
yMRzerdaChotaqEpP04weqyEyIS2V8NUGjLdGOtH/Qef
-----END CERTIFICATE-----
