Certificate:
    Data:
        Version: 3 (0x2)
        Serial Number: 10776 (0x2a18)
    Signature Algorithm: sha256WithRSAEncryption
        Issuer: C=US, ST=OH, L=Columbus, O=VikingVPN, OU=MyOrganizationalUnit, CN=VikingVPN CA/name=EasyRSA/emailAddress=me@myhost.mydomain
        Validity
            Not Before: Apr 24 06:30:41 2017 GMT
            Not After : Apr 22 06:30:41 2027 GMT
        Subject: CN=Client2307Cert223ce9
        Subject Public Key Info:
            Public Key Algorithm: rsaEncryption
                Public-Key: (4096 bit)
                Modulus:
                    00:be:2e:7e:d1:37:4e:f1:d8:97:a7:a4:33:d4:14:
                    34:14:41:35:68:47:78:e8:8c:32:fc:c7:c7:81:b7:
                    61:3d:c9:f3:e9:e0:be:d8:e2:af:a0:b2:1f:b7:24:
                    2b:a8:a3:0a:65:56:c7:c1:24:fa:6e:3e:d8:66:ec:
                    55:4c:43:e4:73:87:24:f1:ec:13:27:5b:82:92:cc:
                    e1:b4:9d:7a:aa:4f:fe:dd:1f:d3:77:4a:89:e7:f3:
                    1e:96:1e:f3:0c:f6:71:fe:92:6c:81:1d:74:cc:ca:
                    7b:11:d8:62:28:9b:9d:5c:9e:c9:15:14:e9:2f:5c:
                    65:7a:c5:83:d8:23:8e:5f:c2:f5:77:17:0b:23:ae:
                    e2:1b:73:3c:ee:ea:64:24:39:76:b5:b6:67:b8:0d:
                    4d:6f:6d:71:50:fb:98:e3:ca:a1:e3:b0:4e:39:5f:
                    54:b4:a0:7a:41:a0:b4:19:8a:73:b0:e9:f2:4e:0f:
                    3a:04:42:d8:77:c4:d8:2f:e0:f9:e2:5a:ff:11:2d:
                    24:86:d8:9c:1e:a6:72:85:bb:47:c3:8b:4b:1e:db:
                    ea:0a:37:45:17:6c:8f:e0:4d:4f:dc:16:c9:ce:ad:
                    9f:85:ac:2d:14:f2:f1:21:b3:85:e0:e9:c7:eb:75:
                    5a:1f:f5:4e:97:43:00:77:d7:36:2e:40:03:04:ef:
                    7e:78:30:7f:14:40:a9:55:bd:f0:f9:81:a7:cb:86:
                    d1:7e:01:d1:ab:3f:80:66:ab:8c:f1:cb:83:45:5e:
                    33:5e:b9:ba:0e:7e:11:34:cb:bb:7d:84:4b:29:df:
                    4e:cf:55:df:cf:a4:0a:d2:20:3a:60:d6:50:12:a3:
                    14:bb:6d:ab:a6:37:ec:ad:79:e4:2f:fd:f7:3b:e3:
                    06:27:51:09:6d:b8:71:e0:e3:d1:e5:f2:66:a2:b9:
                    38:25:8b:22:b1:51:a5:1f:86:a0:8d:c1:f4:56:fe:
                    78:c5:7e:77:65:c0:db:8c:1d:d2:77:d5:db:a1:29:
                    a7:dd:1e:45:c3:70:11:9b:37:33:60:69:44:ce:08:
                    45:d6:d5:2b:89:62:ff:77:18:0f:09:32:b2:9d:9b:
                    bb:09:e2:9f:62:f8:e2:5f:c0:c6:d8:0a:7b:f6:8a:
                    c5:93:66:ff:f1:1b:b0:58:ae:8a:15:4c:c6:9e:4b:
                    9f:0b:a1:73:cf:58:86:f8:39:e2:35:af:05:ab:66:
                    5d:b2:fc:b9:ec:ef:71:c2:3b:9d:0b:b2:ea:a3:3c:
                    14:b5:4d:6b:f4:01:e1:47:a6:29:4d:8d:84:58:2b:
                    bc:68:3d:3c:bd:bb:1a:ec:5f:82:d0:0e:13:dd:e2:
                    82:54:34:53:0c:d1:fe:cf:11:7b:18:82:59:7d:22:
                    f6:db:7d
                Exponent: 65537 (0x10001)
        X509v3 extensions:
            X509v3 Basic Constraints: 
                CA:FALSE
            Netscape Comment: 
                Easy-RSA Generated Certificate
            X509v3 Subject Key Identifier: 
                55:6C:BE:1B:78:95:51:57:F5:28:18:8A:55:91:C0:60:C8:83:20:47
            X509v3 Authority Key Identifier: 
                keyid:12:CD:60:04:D2:A0:80:9E:70:ED:C6:99:B8:7B:2C:C6:52:FD:19:A1
                DirName:/C=US/ST=OH/L=Columbus/O=VikingVPN/OU=MyOrganizationalUnit/CN=VikingVPN CA/name=EasyRSA/emailAddress=me@myhost.mydomain
                serial:CF:35:85:EE:80:BF:2A:3E

            X509v3 Extended Key Usage: 
                TLS Web Client Authentication
            X509v3 Key Usage: 
                Digital Signature
    Signature Algorithm: sha256WithRSAEncryption
         22:c5:8a:98:79:25:51:34:c8:40:75:d6:39:9d:10:ee:f8:cf:
         0a:55:4a:c1:42:60:cb:29:01:94:99:60:c7:b1:1d:eb:86:d1:
         b2:b4:4f:b2:06:34:cc:92:e6:ff:68:3b:53:59:14:be:30:c6:
         a4:3e:a6:f0:2c:cd:aa:c0:b9:38:68:e8:70:e8:6e:52:52:b6:
         85:68:f0:99:75:44:23:24:7c:e4:0d:68:ab:f7:ba:26:c6:df:
         20:40:b8:22:10:cb:54:32:20:cf:b1:cb:ac:6e:d6:fc:17:7c:
         77:05:b3:94:78:8f:ec:7c:2a:e1:0f:86:17:8a:99:c0:fa:38:
         69:a3:dd:b5:fe:b3:d5:2f:f4:0c:e7:d8:b5:77:96:4d:1b:ed:
         8b:06:f6:f3:36:7c:0d:d8:e2:13:51:22:26:8a:86:f6:36:3d:
         d7:da:53:59:d7:22:1c:77:10:3c:43:0b:63:92:dc:1b:6b:63:
         db:9a:ca:3b:5c:13:ff:31:27:c2:55:d4:bc:32:5b:f6:15:eb:
         0f:68:8e:f9:3c:36:e5:62:54:c3:d4:be:e6:04:97:7e:c8:f6:
         d7:95:4b:5a:5c:a6:71:ae:8e:6b:85:88:c6:f2:3e:97:b9:5d:
         ea:fa:bb:ce:2a:64:f1:e7:6a:c3:a1:08:ab:89:62:17:95:ca:
         0d:47:8e:c2:94:db:c6:21:8f:96:41:2c:a3:ba:7b:f3:9e:89:
         99:14:99:af:5c:28:a5:17:6c:13:bb:bb:9d:ab:4b:e7:73:29:
         c3:5c:c3:9e:06:5d:a6:5f:7b:db:57:ae:07:1b:83:34:84:50:
         3f:09:11:bd:57:54:2f:b8:f9:05:62:c9:8f:0b:9d:1a:e8:7e:
         29:36:e0:18:57:56:95:d2:e7:03:c3:97:cb:a6:50:c3:b4:a6:
         fe:28:5b:71:80:1c:21:ca:7e:fa:bc:ed:39:b7:3a:e2:d1:17:
         bc:d0:f7:0e:ab:30:4e:c2:65:10:66:38:6f:95:25:10:5e:8f:
         2e:57:26:87:4c:55:55:d1:4e:40:53:5e:b0:83:3b:9d:c5:78:
         d1:61:99:64:d8:aa:28:8a:5d:1f:d8:13:b1:27:e8:6a:75:fb:
         f6:53:bc:cb:a3:42:82:ac:94:04:4c:2f:a3:8b:83:f3:84:79:
         d9:2f:1d:76:30:e0:e0:ed:bc:58:41:4c:eb:6a:b1:c1:14:ee:
         8a:e7:da:7a:0c:d9:b6:a8:f8:f2:c3:88:d1:72:9d:26:e7:40:
         01:45:7d:b1:b7:72:d9:66:a8:a6:87:68:97:ee:11:e7:45:0e:
         cd:e6:cf:e0:2f:04:12:17:a1:4a:3d:f6:82:ea:47:a9:11:47:
         2c:29:12:ce:2b:3b:e6:fa
-----BEGIN CERTIFICATE-----
MIIGrTCCBJWgAwIBAgICKhgwDQYJKoZIhvcNAQELBQAwgawxCzAJBgNVBAYTAlVT
MQswCQYDVQQIEwJPSDERMA8GA1UEBxMIQ29sdW1idXMxEjAQBgNVBAoTCVZpa2lu
Z1ZQTjEdMBsGA1UECxMUTXlPcmdhbml6YXRpb25hbFVuaXQxFTATBgNVBAMTDFZp
a2luZ1ZQTiBDQTEQMA4GA1UEKRMHRWFzeVJTQTEhMB8GCSqGSIb3DQEJARYSbWVA
bXlob3N0Lm15ZG9tYWluMB4XDTE3MDQyNDA2MzA0MVoXDTI3MDQyMjA2MzA0MVow
HzEdMBsGA1UEAxMUQ2xpZW50MjMwN0NlcnQyMjNjZTkwggIiMA0GCSqGSIb3DQEB
AQUAA4ICDwAwggIKAoICAQC+Ln7RN07x2JenpDPUFDQUQTVoR3jojDL8x8eBt2E9
yfPp4L7Y4q+gsh+3JCuoowplVsfBJPpuPthm7FVMQ+RzhyTx7BMnW4KSzOG0nXqq
T/7dH9N3Sonn8x6WHvMM9nH+kmyBHXTMynsR2GIom51cnskVFOkvXGV6xYPYI45f
wvV3FwsjruIbczzu6mQkOXa1tme4DU1vbXFQ+5jjyqHjsE45X1S0oHpBoLQZinOw
6fJODzoEQth3xNgv4PniWv8RLSSG2JwepnKFu0fDi0se2+oKN0UXbI/gTU/cFsnO
rZ+FrC0U8vEhs4Xg6cfrdVof9U6XQwB31zYuQAME7354MH8UQKlVvfD5gafLhtF+
AdGrP4Bmq4zxy4NFXjNeuboOfhE0y7t9hEsp307PVd/PpArSIDpg1lASoxS7baum
N+yteeQv/fc74wYnUQltuHHg49Hl8maiuTgliyKxUaUfhqCNwfRW/njFfndlwNuM
HdJ31duhKafdHkXDcBGbNzNgaUTOCEXW1SuJYv93GA8JMrKdm7sJ4p9i+OJfwMbY
Cnv2isWTZv/xG7BYrooVTMaeS58LoXPPWIb4OeI1rwWrZl2y/Lns73HCO50Lsuqj
PBS1TWv0AeFHpilNjYRYK7xoPTy9uxrsX4LQDhPd4oJUNFMM0f7PEXsYgll9Ivbb
fQIDAQABo4IBYzCCAV8wCQYDVR0TBAIwADAtBglghkgBhvhCAQ0EIBYeRWFzeS1S
U0EgR2VuZXJhdGVkIENlcnRpZmljYXRlMB0GA1UdDgQWBBRVbL4beJVRV/UoGIpV
kcBgyIMgRzCB4QYDVR0jBIHZMIHWgBQSzWAE0qCAnnDtxpm4eyzGUv0ZoaGBsqSB
rzCBrDELMAkGA1UEBhMCVVMxCzAJBgNVBAgTAk9IMREwDwYDVQQHEwhDb2x1bWJ1
czESMBAGA1UEChMJVmlraW5nVlBOMR0wGwYDVQQLExRNeU9yZ2FuaXphdGlvbmFs
VW5pdDEVMBMGA1UEAxMMVmlraW5nVlBOIENBMRAwDgYDVQQpEwdFYXN5UlNBMSEw
HwYJKoZIhvcNAQkBFhJtZUBteWhvc3QubXlkb21haW6CCQDPNYXugL8qPjATBgNV
HSUEDDAKBggrBgEFBQcDAjALBgNVHQ8EBAMCB4AwDQYJKoZIhvcNAQELBQADggIB
ACLFiph5JVE0yEB11jmdEO74zwpVSsFCYMspAZSZYMexHeuG0bK0T7IGNMyS5v9o
O1NZFL4wxqQ+pvAszarAuTho6HDoblJStoVo8Jl1RCMkfOQNaKv3uibG3yBAuCIQ
y1QyIM+xy6xu1vwXfHcFs5R4j+x8KuEPhheKmcD6OGmj3bX+s9Uv9Azn2LV3lk0b
7YsG9vM2fA3Y4hNRIiaKhvY2PdfaU1nXIhx3EDxDC2OS3BtrY9uayjtcE/8xJ8JV
1LwyW/YV6w9ojvk8NuViVMPUvuYEl37I9teVS1pcpnGujmuFiMbyPpe5Xer6u84q
ZPHnasOhCKuJYheVyg1HjsKU28Yhj5ZBLKO6e/OeiZkUma9cKKUXbBO7u52rS+dz
KcNcw54GXaZfe9tXrgcbgzSEUD8JEb1XVC+4+QViyY8LnRrofik24BhXVpXS5wPD
l8umUMO0pv4oW3GAHCHKfvq87Tm3OuLRF7zQ9w6rME7CZRBmOG+VJRBejy5XJodM
VVXRTkBTXrCDO53FeNFhmWTYqiiKXR/YE7En6Gp1+/ZTvMujQoKslARML6OLg/OE
edkvHXYw4ODtvFhBTOtqscEU7orn2noM2bao+PLDiNFynSbnQAFFfbG3ctlmqKaH
aJfuEedFDs3mz+AvBBIXoUo99oLqR6kRRywpEs4rO+b6
-----END CERTIFICATE-----
