Certificate:
    Data:
        Version: 3 (0x2)
        Serial Number: 10781 (0x2a1d)
    Signature Algorithm: sha256WithRSAEncryption
        Issuer: C=US, ST=OH, L=Columbus, O=VikingVPN, OU=MyOrganizationalUnit, CN=VikingVPN CA/name=EasyRSA/emailAddress=me@myhost.mydomain
        Validity
            Not Before: Apr 24 19:55:49 2017 GMT
            Not After : Apr 22 19:55:49 2027 GMT
        Subject: CN=Client1643Cert3fd1a1
        Subject Public Key Info:
            Public Key Algorithm: rsaEncryption
                Public-Key: (4096 bit)
                Modulus:
                    00:c9:b2:d9:00:3e:14:27:0b:4f:58:9c:54:47:90:
                    5b:a5:d6:40:a3:5e:8f:5e:80:c9:01:ed:54:6f:b4:
                    27:11:30:e6:e5:3c:dc:18:2e:24:d5:47:ed:a5:b1:
                    5e:73:32:8a:a7:2f:9a:44:78:d9:d1:f6:1b:e1:b1:
                    ff:23:52:4c:6b:c4:3a:ae:fd:52:26:aa:76:6f:b1:
                    64:d1:79:8a:91:de:4e:39:89:1d:1b:23:80:da:1e:
                    4d:32:4c:b9:64:03:27:8f:06:0f:90:69:1b:c9:78:
                    8a:1f:31:a3:9c:79:7a:6a:9d:31:63:12:97:65:57:
                    10:d8:25:36:65:de:19:b1:89:45:5c:8a:11:5e:56:
                    f1:c3:b0:26:80:76:71:a6:a5:a8:18:63:1a:3b:a0:
                    7d:99:bf:88:de:77:94:85:bb:9f:15:03:b7:c9:68:
                    46:77:be:a1:50:5e:9c:24:5f:7b:74:21:23:c0:c5:
                    49:14:e5:4e:4a:f5:4a:bd:fc:8f:50:c3:ff:3b:13:
                    55:aa:cd:6d:2a:06:ac:24:9e:e8:79:8c:10:94:f6:
                    f8:16:2e:ba:c5:82:a6:60:99:08:99:a5:46:7c:e4:
                    a9:ab:bf:b2:94:4e:cf:b6:86:17:3d:3a:a0:ab:fa:
                    2b:54:1c:8c:a6:78:18:19:e9:62:18:75:2e:d6:25:
                    73:89:45:03:17:1f:b1:4e:ab:16:95:f0:f7:51:ae:
                    62:d7:a5:3b:a7:04:85:08:8b:47:48:5f:ba:84:5c:
                    1b:cc:49:c2:49:8e:bb:39:2a:47:e9:ab:d8:8c:bb:
                    a7:57:c6:0c:69:85:d0:62:cc:01:10:21:c8:0d:7c:
                    ca:4c:fb:0a:73:1f:e7:fb:05:7f:85:ee:f5:e6:c5:
                    9f:47:17:33:04:63:01:2f:28:aa:03:8d:f7:93:9f:
                    50:78:8f:23:cf:10:20:87:25:57:95:5d:0d:38:e3:
                    86:b9:af:02:6a:72:d5:3e:96:3e:00:4f:ef:11:40:
                    d5:9a:19:a8:d1:ae:3d:db:cf:04:32:80:62:aa:32:
                    3a:c4:f2:69:35:62:4e:13:f8:30:7d:c1:4b:ea:a7:
                    0e:e4:fc:84:1f:f3:b1:bc:4f:17:6e:87:f6:71:0b:
                    23:50:af:61:c9:53:89:fc:a6:43:d5:00:be:0f:74:
                    50:ef:dc:81:6a:da:08:24:17:81:96:a3:27:b8:9b:
                    0e:57:4e:d7:14:13:be:49:4d:37:0a:9a:24:90:3f:
                    7c:20:67:0e:99:a7:01:61:f2:17:5d:40:b8:1f:f6:
                    df:7d:9c:49:53:ef:8d:17:eb:f7:c1:2d:eb:79:19:
                    4e:5f:82:2c:80:d4:0b:ed:cf:b9:26:e7:62:97:9a:
                    90:a4:3b
                Exponent: 65537 (0x10001)
        X509v3 extensions:
            X509v3 Basic Constraints: 
                CA:FALSE
            Netscape Comment: 
                Easy-RSA Generated Certificate
            X509v3 Subject Key Identifier: 
                0D:B4:1D:B1:F0:2D:4F:EB:F8:0E:67:91:02:8C:22:1A:AD:DD:92:74
            X509v3 Authority Key Identifier: 
                keyid:12:CD:60:04:D2:A0:80:9E:70:ED:C6:99:B8:7B:2C:C6:52:FD:19:A1
                DirName:/C=US/ST=OH/L=Columbus/O=VikingVPN/OU=MyOrganizationalUnit/CN=VikingVPN CA/name=EasyRSA/emailAddress=me@myhost.mydomain
                serial:CF:35:85:EE:80:BF:2A:3E

            X509v3 Extended Key Usage: 
                TLS Web Client Authentication
            X509v3 Key Usage: 
                Digital Signature
    Signature Algorithm: sha256WithRSAEncryption
         1b:45:db:a2:be:be:3e:0a:fd:6d:de:02:95:59:88:a9:49:c9:
         51:15:44:0e:36:6d:ba:b5:11:9f:56:0d:2a:61:1a:35:df:91:
         e2:e0:8e:41:10:bf:de:fa:1c:4f:5e:df:73:c4:b5:59:dd:8a:
         c2:d7:2f:44:8d:c7:fd:d2:85:7c:9e:4d:99:52:dc:bd:44:52:
         8f:13:b7:9d:c1:2d:29:a3:15:cf:67:bd:c1:6d:55:c8:5b:56:
         c0:2f:a3:52:6c:5b:c4:0c:8d:50:b3:d3:42:55:03:83:9c:1c:
         bd:ba:d5:8e:8a:4d:d9:3e:2f:93:4e:7f:99:06:a4:39:48:4e:
         cb:9a:58:e2:82:e8:75:4a:4d:b4:69:6b:e2:2c:73:17:f3:06:
         45:a5:ca:86:6c:a1:ce:31:43:d0:55:c1:61:09:39:1d:9e:c1:
         c1:4c:6b:16:c1:3a:3d:eb:48:2a:78:1c:88:68:79:c4:25:df:
         b9:bc:7e:0a:7c:94:e3:9e:ef:fd:68:af:e8:2a:97:0f:d2:19:
         f6:1c:6c:fe:49:90:ce:f4:b8:ac:7b:c5:18:2d:20:f3:5d:f2:
         2c:73:39:6a:bd:54:d4:ef:c6:d7:51:13:a3:a4:69:7b:36:11:
         b6:57:cc:63:22:70:58:bd:5e:46:36:c4:fc:72:5d:3f:a5:61:
         86:9c:db:38:7b:1d:70:76:9e:fc:73:eb:54:94:7a:63:09:b2:
         21:92:a4:38:af:b5:da:d3:d9:c3:89:38:f0:4e:ba:d9:99:9e:
         91:c7:d0:f8:1f:a8:63:e9:64:62:4a:b9:0c:62:5d:d0:af:b9:
         f1:09:5f:9b:e9:68:49:08:43:c7:50:5a:13:79:d7:71:c6:28:
         59:00:c8:e5:4f:ea:52:80:aa:c6:95:75:ac:f2:d4:05:a3:83:
         67:0b:90:df:20:02:be:9e:99:ba:7e:bf:54:4b:a5:75:1d:c5:
         0d:6e:6b:2e:f5:5d:e0:e5:bc:7c:b1:72:81:30:10:8d:64:b6:
         11:e6:91:73:d0:51:70:4d:10:d0:36:05:30:d4:6c:9b:c6:ac:
         e2:a3:ed:9c:b5:fa:b7:db:9e:a7:35:a4:d4:c6:ae:84:d3:da:
         f9:41:c4:f0:2a:3a:a8:55:70:19:91:62:19:43:8b:22:23:3c:
         9a:e6:35:d0:39:61:15:7d:49:ba:3a:91:f8:15:d9:5d:55:d9:
         36:4a:24:fa:eb:f4:1c:fa:a7:c4:1f:98:07:91:8a:57:b2:0c:
         08:3b:9f:b4:47:2b:f9:67:b9:64:94:31:47:dc:3b:dd:29:69:
         8c:e3:8c:49:d3:36:85:69:28:9a:e0:db:da:7c:81:76:d6:0f:
         32:95:a4:8d:38:b8:db:fd
-----BEGIN CERTIFICATE-----
MIIGrTCCBJWgAwIBAgICKh0wDQYJKoZIhvcNAQELBQAwgawxCzAJBgNVBAYTAlVT
MQswCQYDVQQIEwJPSDERMA8GA1UEBxMIQ29sdW1idXMxEjAQBgNVBAoTCVZpa2lu
Z1ZQTjEdMBsGA1UECxMUTXlPcmdhbml6YXRpb25hbFVuaXQxFTATBgNVBAMTDFZp
a2luZ1ZQTiBDQTEQMA4GA1UEKRMHRWFzeVJTQTEhMB8GCSqGSIb3DQEJARYSbWVA
bXlob3N0Lm15ZG9tYWluMB4XDTE3MDQyNDE5NTU0OVoXDTI3MDQyMjE5NTU0OVow
HzEdMBsGA1UEAxMUQ2xpZW50MTY0M0NlcnQzZmQxYTEwggIiMA0GCSqGSIb3DQEB
AQUAA4ICDwAwggIKAoICAQDJstkAPhQnC09YnFRHkFul1kCjXo9egMkB7VRvtCcR
MOblPNwYLiTVR+2lsV5zMoqnL5pEeNnR9hvhsf8jUkxrxDqu/VImqnZvsWTReYqR
3k45iR0bI4DaHk0yTLlkAyePBg+QaRvJeIofMaOceXpqnTFjEpdlVxDYJTZl3hmx
iUVcihFeVvHDsCaAdnGmpagYYxo7oH2Zv4jed5SFu58VA7fJaEZ3vqFQXpwkX3t0
ISPAxUkU5U5K9Uq9/I9Qw/87E1WqzW0qBqwknuh5jBCU9vgWLrrFgqZgmQiZpUZ8
5Kmrv7KUTs+2hhc9OqCr+itUHIymeBgZ6WIYdS7WJXOJRQMXH7FOqxaV8PdRrmLX
pTunBIUIi0dIX7qEXBvMScJJjrs5Kkfpq9iMu6dXxgxphdBizAEQIcgNfMpM+wpz
H+f7BX+F7vXmxZ9HFzMEYwEvKKoDjfeTn1B4jyPPECCHJVeVXQ0444a5rwJqctU+
lj4AT+8RQNWaGajRrj3bzwQygGKqMjrE8mk1Yk4T+DB9wUvqpw7k/IQf87G8Txdu
h/ZxCyNQr2HJU4n8pkPVAL4PdFDv3IFq2ggkF4GWoye4mw5XTtcUE75JTTcKmiSQ
P3wgZw6ZpwFh8hddQLgf9t99nElT740X6/fBLet5GU5fgiyA1Avtz7km52KXmpCk
OwIDAQABo4IBYzCCAV8wCQYDVR0TBAIwADAtBglghkgBhvhCAQ0EIBYeRWFzeS1S
U0EgR2VuZXJhdGVkIENlcnRpZmljYXRlMB0GA1UdDgQWBBQNtB2x8C1P6/gOZ5EC
jCIard2SdDCB4QYDVR0jBIHZMIHWgBQSzWAE0qCAnnDtxpm4eyzGUv0ZoaGBsqSB
rzCBrDELMAkGA1UEBhMCVVMxCzAJBgNVBAgTAk9IMREwDwYDVQQHEwhDb2x1bWJ1
czESMBAGA1UEChMJVmlraW5nVlBOMR0wGwYDVQQLExRNeU9yZ2FuaXphdGlvbmFs
VW5pdDEVMBMGA1UEAxMMVmlraW5nVlBOIENBMRAwDgYDVQQpEwdFYXN5UlNBMSEw
HwYJKoZIhvcNAQkBFhJtZUBteWhvc3QubXlkb21haW6CCQDPNYXugL8qPjATBgNV
HSUEDDAKBggrBgEFBQcDAjALBgNVHQ8EBAMCB4AwDQYJKoZIhvcNAQELBQADggIB
ABtF26K+vj4K/W3eApVZiKlJyVEVRA42bbq1EZ9WDSphGjXfkeLgjkEQv976HE9e
33PEtVndisLXL0SNx/3ShXyeTZlS3L1EUo8Tt53BLSmjFc9nvcFtVchbVsAvo1Js
W8QMjVCz00JVA4OcHL261Y6KTdk+L5NOf5kGpDlITsuaWOKC6HVKTbRpa+Iscxfz
BkWlyoZsoc4xQ9BVwWEJOR2ewcFMaxbBOj3rSCp4HIhoecQl37m8fgp8lOOe7/1o
r+gqlw/SGfYcbP5JkM70uKx7xRgtIPNd8ixzOWq9VNTvxtdRE6OkaXs2EbZXzGMi
cFi9XkY2xPxyXT+lYYac2zh7HXB2nvxz61SUemMJsiGSpDivtdrT2cOJOPBOutmZ
npHH0PgfqGPpZGJKuQxiXdCvufEJX5vpaEkIQ8dQWhN513HGKFkAyOVP6lKAqsaV
dazy1AWjg2cLkN8gAr6embp+v1RLpXUdxQ1uay71XeDlvHyxcoEwEI1kthHmkXPQ
UXBNENA2BTDUbJvGrOKj7Zy1+rfbnqc1pNTGroTT2vlBxPAqOqhVcBmRYhlDiyIj
PJrmNdA5YRV9Sbo6kfgV2V1V2TZKJPrr9Bz6p8QfmAeRileyDAg7n7RHK/lnuWSU
MUfcO90paYzjjEnTNoVpKJrg29p8gXbWDzKVpI04uNv9
-----END CERTIFICATE-----
