Certificate:
    Data:
        Version: 3 (0x2)
        Serial Number: 10791 (0x2a27)
    Signature Algorithm: sha256WithRSAEncryption
        Issuer: C=US, ST=OH, L=Columbus, O=VikingVPN, OU=MyOrganizationalUnit, CN=VikingVPN CA/name=EasyRSA/emailAddress=me@myhost.mydomain
        Validity
            Not Before: Apr 24 23:13:50 2017 GMT
            Not After : Apr 22 23:13:50 2027 GMT
        Subject: CN=Client2879Certc7e600
        Subject Public Key Info:
            Public Key Algorithm: rsaEncryption
                Public-Key: (4096 bit)
                Modulus:
                    00:ca:a0:39:c6:48:c6:33:ef:7f:26:6d:66:15:b7:
                    c3:14:41:f9:70:34:e9:31:c6:16:8e:4f:f7:48:9a:
                    b4:81:05:ed:97:f2:2f:5b:0d:92:ff:db:22:a1:10:
                    67:04:87:76:05:9b:f9:c2:e9:a6:7e:e1:bf:ff:ac:
                    ec:75:2e:de:22:9a:1f:40:6a:b9:c0:7b:9e:f0:70:
                    5f:c0:57:4e:95:e7:da:17:ef:92:56:69:49:c7:91:
                    b3:45:de:7d:e4:f7:dd:73:59:61:ca:7c:d6:81:bf:
                    e6:dc:e3:27:82:df:63:8c:d3:a2:02:42:3b:18:bb:
                    ea:66:74:84:ab:f9:ef:76:a5:da:c0:c6:5b:07:61:
                    9b:56:d3:6a:5d:e1:04:f8:6f:4b:e5:54:49:32:cc:
                    5d:db:8c:c6:50:38:18:10:4b:c6:d2:75:f7:73:8f:
                    1f:91:94:07:ec:37:37:de:57:72:55:2c:ce:70:86:
                    09:01:10:50:cf:57:bb:9d:cf:19:88:e7:2a:1a:0e:
                    03:8b:45:9e:27:d6:07:b5:d0:46:fc:bb:1e:10:90:
                    87:8b:18:8e:a3:84:2d:1e:8f:4c:2c:87:f3:b4:53:
                    66:9d:66:0f:a3:72:e0:0f:ad:67:05:35:e6:fd:0b:
                    07:71:4e:4d:d9:8f:56:ac:ba:af:49:d1:09:17:f9:
                    dc:dc:d7:85:b7:87:a5:f4:05:eb:c1:30:e6:ac:04:
                    63:6f:b3:08:e7:f4:ab:c6:8c:d5:3e:93:55:46:65:
                    08:74:f5:4e:87:70:74:1e:e7:5c:ac:26:1f:3d:59:
                    e7:3e:4a:d4:c7:1f:8c:a0:0c:b2:a8:b5:63:e8:28:
                    21:0b:d8:db:3b:a4:b4:59:8f:af:c9:ea:66:e7:58:
                    6b:59:5a:f2:ae:93:bd:45:22:6c:4b:b1:ef:b4:e0:
                    bf:ea:67:44:1d:c9:75:e3:f6:4c:23:00:4c:29:d8:
                    69:62:db:ab:31:08:c6:af:f7:ae:30:0c:88:84:53:
                    39:97:25:0b:a6:d7:25:8d:d5:5b:e8:13:3f:31:de:
                    2b:57:7c:b2:05:d3:c3:dd:5d:b2:62:33:6a:be:1f:
                    4a:24:d0:d2:40:0d:da:fb:f4:0f:28:dc:b7:1f:fb:
                    d8:eb:ee:8b:9f:a8:40:d4:60:0f:5b:53:58:e9:73:
                    07:e5:53:ec:6c:3c:75:79:dd:3b:95:97:2d:2c:2d:
                    95:1c:71:81:e7:83:50:3f:20:55:69:9e:46:8d:ff:
                    ec:ad:95:f1:98:e7:55:02:4a:19:c1:d8:83:52:85:
                    e9:6e:3f:7c:fe:b5:83:12:f0:2a:bb:11:68:f6:93:
                    18:bd:63:65:d6:d1:2d:fe:83:5b:56:96:1c:e2:84:
                    44:ec:a9
                Exponent: 65537 (0x10001)
        X509v3 extensions:
            X509v3 Basic Constraints: 
                CA:FALSE
            Netscape Comment: 
                Easy-RSA Generated Certificate
            X509v3 Subject Key Identifier: 
                AC:B1:A0:61:6B:6B:1B:AF:31:DE:2E:4D:5D:D7:01:1E:30:4B:87:40
            X509v3 Authority Key Identifier: 
                keyid:12:CD:60:04:D2:A0:80:9E:70:ED:C6:99:B8:7B:2C:C6:52:FD:19:A1
                DirName:/C=US/ST=OH/L=Columbus/O=VikingVPN/OU=MyOrganizationalUnit/CN=VikingVPN CA/name=EasyRSA/emailAddress=me@myhost.mydomain
                serial:CF:35:85:EE:80:BF:2A:3E

            X509v3 Extended Key Usage: 
                TLS Web Client Authentication
            X509v3 Key Usage: 
                Digital Signature
    Signature Algorithm: sha256WithRSAEncryption
         96:4d:e0:8b:5d:15:37:80:bc:9a:72:f2:4c:03:dc:83:74:7a:
         d0:f5:2b:2e:08:a2:d0:f7:a2:ca:89:f3:25:f0:73:c5:09:23:
         cf:52:06:3e:b2:10:7f:6f:3f:30:6f:dd:3c:21:57:1f:3e:4d:
         89:da:81:c4:57:16:86:c0:1f:9c:da:1c:9d:36:e8:4c:76:58:
         80:68:2e:6b:f1:9f:98:6f:cf:63:57:4a:2e:e3:98:88:2e:3b:
         bf:f8:30:b4:b1:bb:a6:10:92:b1:18:56:76:74:20:55:af:c6:
         36:3b:29:a7:62:2d:d9:1d:d6:2e:a7:5e:52:84:9f:c0:52:46:
         5a:52:2a:20:56:7f:62:0b:bb:44:73:c0:ef:df:6d:ae:84:48:
         31:24:6d:b6:d4:06:12:59:40:ac:4d:04:b5:e9:22:d7:1e:ad:
         7b:3d:0e:97:6e:c4:95:31:4f:f2:c7:20:cc:f1:1a:e6:6b:66:
         ba:57:ec:3f:1c:00:9e:57:65:81:0b:52:e3:86:3a:ad:db:ff:
         73:42:7a:5e:d7:11:41:ab:48:03:be:3e:89:1b:35:0e:06:ae:
         55:d2:22:98:ff:5c:ca:04:3d:39:dd:e5:9c:9c:d6:33:6e:dd:
         d9:76:5b:8e:84:d8:d6:ae:e9:ba:9f:b9:ab:dd:f8:e3:52:a5:
         96:ba:53:b8:47:57:71:99:c3:e4:34:84:bc:97:00:1e:6f:9b:
         f5:07:80:15:d9:97:8c:8e:98:12:0f:92:db:5f:09:dc:31:b1:
         b6:ff:9c:67:51:b0:7e:e5:a2:b0:37:50:af:ed:af:fc:05:c9:
         60:25:23:5d:d3:b3:cb:08:e3:1d:41:81:e3:0e:b2:c9:e5:08:
         d7:6e:ce:93:1e:92:5d:cc:1b:f1:c1:68:26:66:c4:64:48:aa:
         89:b8:2c:d2:05:6d:fe:86:f8:21:be:ef:e6:d4:fa:7a:eb:06:
         a3:41:9e:30:3f:68:92:ee:3a:fb:4d:7f:78:f1:3b:68:94:16:
         d3:c5:52:b0:ed:9d:45:f2:5f:0c:e4:7e:61:b6:f2:44:7f:2d:
         80:72:f1:2d:b4:48:b7:0d:c6:85:85:fd:86:2f:c9:b9:3a:81:
         bc:10:74:6d:cb:09:7b:19:1d:ef:1f:32:43:63:00:54:7b:d5:
         60:c1:10:10:52:55:f1:7c:e3:57:1c:90:05:ef:e8:3a:e4:07:
         ef:0d:27:7b:04:6c:c6:54:6c:7b:5f:0d:ae:e9:5d:9f:94:4e:
         88:40:30:71:38:2d:43:fb:62:82:41:8c:9c:9d:b4:7e:f0:ea:
         ea:a6:bb:f8:23:58:88:d8:25:99:ac:00:d7:a8:bf:5d:57:5c:
         c2:49:08:16:18:07:84:5c
-----BEGIN CERTIFICATE-----
MIIGrTCCBJWgAwIBAgICKicwDQYJKoZIhvcNAQELBQAwgawxCzAJBgNVBAYTAlVT
MQswCQYDVQQIEwJPSDERMA8GA1UEBxMIQ29sdW1idXMxEjAQBgNVBAoTCVZpa2lu
Z1ZQTjEdMBsGA1UECxMUTXlPcmdhbml6YXRpb25hbFVuaXQxFTATBgNVBAMTDFZp
a2luZ1ZQTiBDQTEQMA4GA1UEKRMHRWFzeVJTQTEhMB8GCSqGSIb3DQEJARYSbWVA
bXlob3N0Lm15ZG9tYWluMB4XDTE3MDQyNDIzMTM1MFoXDTI3MDQyMjIzMTM1MFow
HzEdMBsGA1UEAxMUQ2xpZW50Mjg3OUNlcnRjN2U2MDAwggIiMA0GCSqGSIb3DQEB
AQUAA4ICDwAwggIKAoICAQDKoDnGSMYz738mbWYVt8MUQflwNOkxxhaOT/dImrSB
Be2X8i9bDZL/2yKhEGcEh3YFm/nC6aZ+4b//rOx1Lt4imh9AarnAe57wcF/AV06V
59oX75JWaUnHkbNF3n3k991zWWHKfNaBv+bc4yeC32OM06ICQjsYu+pmdISr+e92
pdrAxlsHYZtW02pd4QT4b0vlVEkyzF3bjMZQOBgQS8bSdfdzjx+RlAfsNzfeV3JV
LM5whgkBEFDPV7udzxmI5yoaDgOLRZ4n1ge10Eb8ux4QkIeLGI6jhC0ej0wsh/O0
U2adZg+jcuAPrWcFNeb9CwdxTk3Zj1asuq9J0QkX+dzc14W3h6X0BevBMOasBGNv
swjn9KvGjNU+k1VGZQh09U6HcHQe51ysJh89Wec+StTHH4ygDLKotWPoKCEL2Ns7
pLRZj6/J6mbnWGtZWvKuk71FImxLse+04L/qZ0QdyXXj9kwjAEwp2Gli26sxCMav
964wDIiEUzmXJQum1yWN1VvoEz8x3itXfLIF08PdXbJiM2q+H0ok0NJADdr79A8o
3Lcf+9jr7oufqEDUYA9bU1jpcwflU+xsPHV53TuVly0sLZUccYHng1A/IFVpnkaN
/+ytlfGY51UCShnB2INSheluP3z+tYMS8Cq7EWj2kxi9Y2XW0S3+g1tWlhzihETs
qQIDAQABo4IBYzCCAV8wCQYDVR0TBAIwADAtBglghkgBhvhCAQ0EIBYeRWFzeS1S
U0EgR2VuZXJhdGVkIENlcnRpZmljYXRlMB0GA1UdDgQWBBSssaBha2sbrzHeLk1d
1wEeMEuHQDCB4QYDVR0jBIHZMIHWgBQSzWAE0qCAnnDtxpm4eyzGUv0ZoaGBsqSB
rzCBrDELMAkGA1UEBhMCVVMxCzAJBgNVBAgTAk9IMREwDwYDVQQHEwhDb2x1bWJ1
czESMBAGA1UEChMJVmlraW5nVlBOMR0wGwYDVQQLExRNeU9yZ2FuaXphdGlvbmFs
VW5pdDEVMBMGA1UEAxMMVmlraW5nVlBOIENBMRAwDgYDVQQpEwdFYXN5UlNBMSEw
HwYJKoZIhvcNAQkBFhJtZUBteWhvc3QubXlkb21haW6CCQDPNYXugL8qPjATBgNV
HSUEDDAKBggrBgEFBQcDAjALBgNVHQ8EBAMCB4AwDQYJKoZIhvcNAQELBQADggIB
AJZN4ItdFTeAvJpy8kwD3IN0etD1Ky4IotD3osqJ8yXwc8UJI89SBj6yEH9vPzBv
3TwhVx8+TYnagcRXFobAH5zaHJ026Ex2WIBoLmvxn5hvz2NXSi7jmIguO7/4MLSx
u6YQkrEYVnZ0IFWvxjY7KadiLdkd1i6nXlKEn8BSRlpSKiBWf2ILu0RzwO/fba6E
SDEkbbbUBhJZQKxNBLXpItcerXs9DpduxJUxT/LHIMzxGuZrZrpX7D8cAJ5XZYEL
UuOGOq3b/3NCel7XEUGrSAO+PokbNQ4GrlXSIpj/XMoEPTnd5Zyc1jNu3dl2W46E
2Nau6bqfuavd+ONSpZa6U7hHV3GZw+Q0hLyXAB5vm/UHgBXZl4yOmBIPkttfCdwx
sbb/nGdRsH7lorA3UK/tr/wFyWAlI13Ts8sI4x1BgeMOssnlCNduzpMekl3MG/HB
aCZmxGRIqom4LNIFbf6G+CG+7+bU+nrrBqNBnjA/aJLuOvtNf3jxO2iUFtPFUrDt
nUXyXwzkfmG28kR/LYBy8S20SLcNxoWF/YYvybk6gbwQdG3LCXsZHe8fMkNjAFR7
1WDBEBBSVfF841cckAXv6DrkB+8NJ3sEbMZUbHtfDa7pXZ+UTohAMHE4LUP7YoJB
jJydtH7w6uqmu/gjWIjYJZmsANeov11XXMJJCBYYB4Rc
-----END CERTIFICATE-----
