Certificate:
    Data:
        Version: 3 (0x2)
        Serial Number: 10804 (0x2a34)
    Signature Algorithm: sha256WithRSAEncryption
        Issuer: C=US, ST=OH, L=Columbus, O=VikingVPN, OU=MyOrganizationalUnit, CN=VikingVPN CA/name=EasyRSA/emailAddress=me@myhost.mydomain
        Validity
            Not Before: Apr 25 03:55:16 2017 GMT
            Not After : Apr 23 03:55:16 2027 GMT
        Subject: CN=Client1802Cert2ae04f
        Subject Public Key Info:
            Public Key Algorithm: rsaEncryption
                Public-Key: (4096 bit)
                Modulus:
                    00:c6:49:f0:6b:3b:95:6a:ea:1e:0d:de:21:3e:7a:
                    a0:bc:89:ce:4a:e8:ba:b8:fb:5d:c8:38:04:f1:bf:
                    23:79:ad:40:71:49:e7:07:2a:10:24:67:9f:5b:55:
                    61:eb:de:0a:c7:64:09:92:9f:54:96:86:66:11:5a:
                    15:0c:aa:73:b0:e3:49:1c:f5:39:13:80:a8:ae:97:
                    b2:ed:c0:dc:af:ef:d7:25:31:14:3c:ab:bd:40:c3:
                    22:2e:78:f6:c9:a4:0a:b3:8a:43:f1:6c:04:12:c2:
                    18:85:7c:5f:27:45:de:a4:37:3a:39:a6:66:3f:67:
                    f3:6c:ff:9d:ea:88:9c:b7:14:01:14:08:b4:d8:f1:
                    c4:4c:a7:d2:09:17:07:bf:2d:b2:c1:a6:c9:09:cd:
                    8e:45:d7:6a:45:6a:24:57:a5:96:e8:d7:12:c2:db:
                    67:33:fb:23:94:7f:04:1f:01:0c:80:f4:7f:17:10:
                    5e:39:b0:ef:0e:86:1b:e2:ff:8a:b5:df:38:6f:2b:
                    e6:07:73:40:1b:1d:6c:47:fe:23:f4:02:67:f5:fe:
                    3a:36:34:bb:98:12:49:e8:7d:51:3c:6a:e5:76:47:
                    26:05:7b:e8:96:d3:57:c1:1c:da:69:dc:84:ce:8a:
                    1f:06:1f:29:12:fd:31:62:03:4c:35:28:12:46:8f:
                    0c:ca:5c:fa:f4:9d:2b:bc:54:bc:7d:e4:43:29:b4:
                    39:25:75:4a:b8:0c:89:a2:7e:02:46:bf:f0:18:85:
                    8f:ab:3a:92:b4:03:c2:94:1b:59:54:e2:2c:2b:c6:
                    ae:2b:71:fd:4a:11:06:57:75:5f:fb:21:fc:1f:9d:
                    fb:a2:a3:23:95:01:39:c6:9f:dd:48:e0:55:d0:91:
                    6c:69:85:be:4e:85:60:b2:f9:12:f8:d0:e7:1d:20:
                    0a:1e:47:60:30:3e:37:fe:21:93:8b:5a:26:e8:21:
                    81:82:7e:1e:ca:c2:3a:e2:9f:c9:1c:e8:d3:17:28:
                    fe:a5:20:b3:f8:65:a7:d7:7d:20:4f:91:a5:8b:3a:
                    31:56:00:ac:6d:7a:87:d0:1c:db:d0:b8:5d:5d:5d:
                    ce:41:1a:8b:c0:f1:b2:6d:8a:cc:f3:29:ef:fe:70:
                    83:03:d1:3e:13:1f:30:58:3d:e4:8b:27:f2:6c:bd:
                    6f:55:5d:65:84:ea:2d:be:ea:f1:38:16:f5:46:28:
                    cb:84:e1:aa:ac:1d:bb:2c:cf:a8:17:48:73:a6:45:
                    21:91:e5:5d:a2:c2:57:0f:d1:3c:ba:7e:fb:86:6f:
                    93:48:c3:98:c1:35:48:61:3b:66:10:ac:b9:d3:8d:
                    cc:b1:cc:d3:f0:77:b4:5c:f0:62:fd:84:ba:4a:62:
                    80:92:53
                Exponent: 65537 (0x10001)
        X509v3 extensions:
            X509v3 Basic Constraints: 
                CA:FALSE
            Netscape Comment: 
                Easy-RSA Generated Certificate
            X509v3 Subject Key Identifier: 
                79:9C:D9:38:D2:8A:E5:D0:4E:93:1C:73:16:3E:7B:8F:3A:2D:A5:2C
            X509v3 Authority Key Identifier: 
                keyid:12:CD:60:04:D2:A0:80:9E:70:ED:C6:99:B8:7B:2C:C6:52:FD:19:A1
                DirName:/C=US/ST=OH/L=Columbus/O=VikingVPN/OU=MyOrganizationalUnit/CN=VikingVPN CA/name=EasyRSA/emailAddress=me@myhost.mydomain
                serial:CF:35:85:EE:80:BF:2A:3E

            X509v3 Extended Key Usage: 
                TLS Web Client Authentication
            X509v3 Key Usage: 
                Digital Signature
    Signature Algorithm: sha256WithRSAEncryption
         6f:71:d1:24:c9:69:72:b3:32:ed:0a:cb:4c:1b:cd:d0:12:e6:
         16:a1:25:8c:dc:7c:8b:fd:55:e7:ba:21:7e:38:30:09:88:55:
         b2:9d:24:48:67:cc:ce:0b:7d:8b:62:8c:68:c7:0c:3a:94:50:
         f3:a0:85:76:b4:46:e3:b1:90:a8:48:e3:ed:16:d4:7c:f4:7c:
         31:92:6a:2b:7b:f4:0c:88:dd:a9:cd:51:0e:16:d5:fd:4f:0c:
         be:c7:39:35:e6:16:9c:36:5c:17:53:08:4d:9b:57:21:96:af:
         ad:90:c1:db:8e:d8:8f:10:19:92:72:64:66:84:e0:5a:ff:d9:
         50:a6:41:7c:b6:9a:c0:4d:c9:d0:d4:10:87:85:5c:e7:07:6c:
         6c:2d:28:f2:07:87:0b:98:63:52:14:37:a4:82:1a:51:a3:d9:
         f6:59:0a:97:d3:29:36:65:f4:dc:b6:83:5d:ce:f7:4f:9d:18:
         6c:5b:35:99:ef:22:ef:8c:6f:a9:c8:25:f9:df:5e:74:5f:ad:
         b0:b5:a5:a1:79:b3:04:91:a4:0f:2e:3b:f1:8b:e3:96:43:0b:
         9e:75:72:0b:d2:49:8d:48:af:72:e1:4e:31:19:fa:a5:57:51:
         e3:ef:34:3e:1f:2e:d2:3d:7b:47:7f:d5:fe:e4:45:f1:fc:f3:
         bd:e6:ec:0e:91:1d:77:e9:93:6d:91:82:ef:50:82:cc:35:8b:
         c3:03:37:66:00:54:9e:40:54:84:42:aa:cd:f9:99:de:6e:ed:
         1a:69:5f:f4:4d:1e:87:07:d2:88:f1:b5:0b:a5:85:3e:35:e0:
         0c:dd:69:8d:4a:c5:01:0e:b7:c3:ec:8d:b9:93:3e:c1:e7:2b:
         e6:aa:5e:26:15:4e:0f:72:16:f6:99:fe:e0:db:44:da:c4:ce:
         8e:5c:33:3e:fe:df:19:a8:82:3e:f3:ab:4f:f6:e5:c7:b8:5d:
         f2:ef:fc:34:ce:aa:5b:b9:20:d3:80:ed:9a:41:e9:94:e0:b4:
         b9:ac:a4:c3:88:0a:cb:33:66:da:f2:57:f2:05:72:80:7a:b0:
         5d:e0:b7:a3:44:80:e8:dd:e2:31:78:61:43:dd:6b:5c:bb:38:
         5b:01:02:31:0b:6c:33:97:21:81:06:0e:57:e2:f9:fb:75:e3:
         bc:a5:a1:9b:a5:7d:04:da:55:59:2f:b1:7a:25:c8:9a:a3:49:
         6f:77:5c:24:fe:25:81:03:96:f9:3c:54:91:df:66:4a:4d:09:
         91:10:09:3b:53:8f:c0:58:9f:47:49:ca:e1:9c:0d:83:f4:48:
         2d:a8:da:7b:9c:ea:99:21:0b:be:2a:45:e2:5c:4e:c4:f2:01:
         f7:43:df:d5:6e:c6:94:69
-----BEGIN CERTIFICATE-----
MIIGrTCCBJWgAwIBAgICKjQwDQYJKoZIhvcNAQELBQAwgawxCzAJBgNVBAYTAlVT
MQswCQYDVQQIEwJPSDERMA8GA1UEBxMIQ29sdW1idXMxEjAQBgNVBAoTCVZpa2lu
Z1ZQTjEdMBsGA1UECxMUTXlPcmdhbml6YXRpb25hbFVuaXQxFTATBgNVBAMTDFZp
a2luZ1ZQTiBDQTEQMA4GA1UEKRMHRWFzeVJTQTEhMB8GCSqGSIb3DQEJARYSbWVA
bXlob3N0Lm15ZG9tYWluMB4XDTE3MDQyNTAzNTUxNloXDTI3MDQyMzAzNTUxNlow
HzEdMBsGA1UEAxMUQ2xpZW50MTgwMkNlcnQyYWUwNGYwggIiMA0GCSqGSIb3DQEB
AQUAA4ICDwAwggIKAoICAQDGSfBrO5Vq6h4N3iE+eqC8ic5K6Lq4+13IOATxvyN5
rUBxSecHKhAkZ59bVWHr3grHZAmSn1SWhmYRWhUMqnOw40kc9TkTgKiul7LtwNyv
79clMRQ8q71AwyIuePbJpAqzikPxbAQSwhiFfF8nRd6kNzo5pmY/Z/Ns/53qiJy3
FAEUCLTY8cRMp9IJFwe/LbLBpskJzY5F12pFaiRXpZbo1xLC22cz+yOUfwQfAQyA
9H8XEF45sO8Ohhvi/4q13zhvK+YHc0AbHWxH/iP0Amf1/jo2NLuYEknofVE8auV2
RyYFe+iW01fBHNpp3ITOih8GHykS/TFiA0w1KBJGjwzKXPr0nSu8VLx95EMptDkl
dUq4DImifgJGv/AYhY+rOpK0A8KUG1lU4iwrxq4rcf1KEQZXdV/7IfwfnfuioyOV
ATnGn91I4FXQkWxphb5OhWCy+RL40OcdIAoeR2AwPjf+IZOLWiboIYGCfh7Kwjri
n8kc6NMXKP6lILP4ZafXfSBPkaWLOjFWAKxteofQHNvQuF1dXc5BGovA8bJtiszz
Ke/+cIMD0T4THzBYPeSLJ/JsvW9VXWWE6i2+6vE4FvVGKMuE4aqsHbssz6gXSHOm
RSGR5V2iwlcP0Ty6fvuGb5NIw5jBNUhhO2YQrLnTjcyxzNPwd7Rc8GL9hLpKYoCS
UwIDAQABo4IBYzCCAV8wCQYDVR0TBAIwADAtBglghkgBhvhCAQ0EIBYeRWFzeS1S
U0EgR2VuZXJhdGVkIENlcnRpZmljYXRlMB0GA1UdDgQWBBR5nNk40orl0E6THHMW
PnuPOi2lLDCB4QYDVR0jBIHZMIHWgBQSzWAE0qCAnnDtxpm4eyzGUv0ZoaGBsqSB
rzCBrDELMAkGA1UEBhMCVVMxCzAJBgNVBAgTAk9IMREwDwYDVQQHEwhDb2x1bWJ1
czESMBAGA1UEChMJVmlraW5nVlBOMR0wGwYDVQQLExRNeU9yZ2FuaXphdGlvbmFs
VW5pdDEVMBMGA1UEAxMMVmlraW5nVlBOIENBMRAwDgYDVQQpEwdFYXN5UlNBMSEw
HwYJKoZIhvcNAQkBFhJtZUBteWhvc3QubXlkb21haW6CCQDPNYXugL8qPjATBgNV
HSUEDDAKBggrBgEFBQcDAjALBgNVHQ8EBAMCB4AwDQYJKoZIhvcNAQELBQADggIB
AG9x0STJaXKzMu0Ky0wbzdAS5hahJYzcfIv9Vee6IX44MAmIVbKdJEhnzM4LfYti
jGjHDDqUUPOghXa0RuOxkKhI4+0W1Hz0fDGSait79AyI3anNUQ4W1f1PDL7HOTXm
Fpw2XBdTCE2bVyGWr62QwduO2I8QGZJyZGaE4Fr/2VCmQXy2msBNydDUEIeFXOcH
bGwtKPIHhwuYY1IUN6SCGlGj2fZZCpfTKTZl9Ny2g13O90+dGGxbNZnvIu+Mb6nI
JfnfXnRfrbC1paF5swSRpA8uO/GL45ZDC551cgvSSY1Ir3LhTjEZ+qVXUePvND4f
LtI9e0d/1f7kRfH8873m7A6RHXfpk22Rgu9Qgsw1i8MDN2YAVJ5AVIRCqs35md5u
7RppX/RNHocH0ojxtQulhT414AzdaY1KxQEOt8PsjbmTPsHnK+aqXiYVTg9yFvaZ
/uDbRNrEzo5cMz7+3xmogj7zq0/25ce4XfLv/DTOqlu5INOA7ZpB6ZTgtLmspMOI
CsszZtryV/IFcoB6sF3gt6NEgOjd4jF4YUPda1y7OFsBAjELbDOXIYEGDlfi+ft1
47yloZulfQTaVVkvsXolyJqjSW93XCT+JYEDlvk8VJHfZkpNCZEQCTtTj8BYn0dJ
yuGcDYP0SC2o2nuc6pkhC74qReJcTsTyAfdD39VuxpRp
-----END CERTIFICATE-----
