Certificate:
    Data:
        Version: 3 (0x2)
        Serial Number: 10810 (0x2a3a)
    Signature Algorithm: sha256WithRSAEncryption
        Issuer: C=US, ST=OH, L=Columbus, O=VikingVPN, OU=MyOrganizationalUnit, CN=VikingVPN CA/name=EasyRSA/emailAddress=me@myhost.mydomain
        Validity
            Not Before: Apr 25 15:08:58 2017 GMT
            Not After : Apr 23 15:08:58 2027 GMT
        Subject: CN=Client2882Certf7f245
        Subject Public Key Info:
            Public Key Algorithm: rsaEncryption
                Public-Key: (4096 bit)
                Modulus:
                    00:bb:c1:b1:10:b5:f5:70:77:5b:b1:9d:13:0f:60:
                    d6:23:d3:10:6c:e3:b2:93:46:81:87:3d:2d:26:34:
                    f1:a1:36:67:9f:05:a4:ab:5b:6f:83:a6:03:ee:ff:
                    74:2a:8e:0d:f1:4b:a3:e6:97:2b:ce:6d:c9:a9:f1:
                    2f:3d:34:b9:d9:19:1c:6a:f9:3b:5a:c3:c9:4f:dd:
                    72:c0:6b:58:24:c3:3a:72:96:bc:ad:3a:d1:54:b4:
                    9b:48:73:8a:a4:d4:61:90:7f:66:db:14:81:2c:59:
                    bf:8d:45:de:a1:93:b6:9c:7d:0a:7e:ad:04:8a:45:
                    92:79:f6:4e:94:5b:52:dc:16:80:b1:5d:e0:7e:a1:
                    a2:d7:0b:2b:ff:e7:6b:30:7c:a9:b4:45:d0:f1:36:
                    7b:bf:7e:00:01:cd:6e:3d:88:32:10:25:fe:bb:ea:
                    d8:79:38:af:2a:af:d3:6a:42:73:8d:13:11:95:a1:
                    23:0f:4f:7f:35:d8:55:91:f9:7d:08:fe:54:0d:62:
                    73:a0:48:af:d4:14:20:3f:f5:d3:7e:95:10:4e:67:
                    fb:ae:35:8d:e5:19:01:27:fc:2d:50:b5:9f:00:17:
                    ad:32:df:96:27:89:ff:6f:d6:4a:53:00:c3:9d:d3:
                    c8:0d:21:c9:b1:f9:4e:fb:e1:5b:92:f1:18:02:b0:
                    21:d4:09:b8:2e:f4:7d:ec:f2:98:f0:d8:9f:38:43:
                    50:14:0d:67:77:f8:31:c4:fd:d3:1a:ea:56:79:cd:
                    6e:e9:7b:99:96:74:5e:8c:ff:61:d6:86:fc:d9:63:
                    7c:7f:78:88:65:e7:4d:20:3f:68:c7:9e:af:cb:9f:
                    b2:6f:21:78:19:2d:0a:3e:e9:b5:65:1d:c4:0e:df:
                    f5:3c:44:89:42:7c:a0:2b:a9:83:28:7b:93:66:76:
                    eb:b8:97:3e:7c:84:36:e0:d0:7a:35:92:ca:3e:ee:
                    16:7e:8c:42:45:cd:21:69:6d:bc:03:c2:12:f7:9f:
                    42:10:ed:73:c0:56:f2:4f:40:f5:cf:59:6b:0c:bd:
                    33:52:d5:2a:0a:b4:b8:08:20:51:12:e7:cc:3b:74:
                    37:5e:c6:41:ef:3f:c6:5e:8a:06:07:ed:aa:ce:4d:
                    95:fb:b7:e9:5f:70:6d:7e:93:f1:63:64:bd:2b:3b:
                    20:c1:cd:ce:0b:c2:1d:25:6e:42:32:61:dd:42:5f:
                    25:89:de:a3:72:af:3e:43:fb:39:3c:aa:f7:76:fe:
                    a8:cf:e2:4d:7e:6d:6a:4b:44:ab:9e:90:5b:cd:93:
                    ca:e7:79:d7:85:90:c7:6a:6e:a0:87:d1:7b:e7:6e:
                    c3:26:2e:50:81:bf:25:eb:42:5c:75:38:54:06:c6:
                    ec:54:71
                Exponent: 65537 (0x10001)
        X509v3 extensions:
            X509v3 Basic Constraints: 
                CA:FALSE
            Netscape Comment: 
                Easy-RSA Generated Certificate
            X509v3 Subject Key Identifier: 
                D0:40:A6:49:6F:6E:1B:08:21:D2:22:26:1D:E3:54:DB:D4:51:61:1D
            X509v3 Authority Key Identifier: 
                keyid:12:CD:60:04:D2:A0:80:9E:70:ED:C6:99:B8:7B:2C:C6:52:FD:19:A1
                DirName:/C=US/ST=OH/L=Columbus/O=VikingVPN/OU=MyOrganizationalUnit/CN=VikingVPN CA/name=EasyRSA/emailAddress=me@myhost.mydomain
                serial:CF:35:85:EE:80:BF:2A:3E

            X509v3 Extended Key Usage: 
                TLS Web Client Authentication
            X509v3 Key Usage: 
                Digital Signature
    Signature Algorithm: sha256WithRSAEncryption
         8b:c5:4b:25:03:26:c6:16:13:44:01:0b:f6:62:4c:15:ce:3f:
         f6:6a:e1:6d:e6:48:6a:ec:58:7e:8a:aa:31:78:e2:1c:ba:6d:
         30:73:2d:57:7c:47:64:a5:e2:f6:a9:fc:cd:68:0e:0a:9f:98:
         f6:4d:71:0e:50:6b:3a:24:bb:ae:55:3e:5f:61:33:1c:42:ba:
         7f:f2:19:db:a6:7a:65:65:0e:67:93:de:38:00:10:e9:3e:a7:
         8f:4e:5a:2e:bc:74:2a:45:69:a7:c7:7c:31:10:25:e4:9c:f2:
         01:c2:a6:e1:6b:52:8e:ce:7e:74:3f:22:80:67:82:74:4b:66:
         58:5a:aa:a8:c2:59:61:2d:e7:6d:aa:d1:c2:02:13:77:d4:29:
         9c:de:a2:a8:6e:b5:45:4b:9a:82:e0:72:4c:bf:b7:26:f6:d1:
         51:7e:72:78:f7:34:ce:c9:e7:f9:7e:e3:ad:7e:d2:2c:d7:79:
         fd:03:17:e5:13:6d:6c:4d:cc:78:d6:03:0e:ed:d9:a1:fd:e8:
         60:1c:d8:d6:20:98:ce:57:82:c7:81:27:8d:59:8f:f0:28:5e:
         1a:cf:7e:80:e7:d8:00:d0:c9:51:06:97:5e:a9:a3:fb:c6:47:
         60:e4:3a:8e:c8:8a:45:69:d4:46:0e:84:86:92:48:75:cb:7d:
         a0:d5:10:30:64:34:d5:6b:34:39:52:fb:24:46:ad:cb:bd:c3:
         64:97:1d:49:42:3e:d2:e3:3f:a7:90:cd:68:ce:45:db:30:a3:
         ee:59:a4:02:14:6c:62:b7:2b:49:a7:a2:db:b7:d8:56:d5:01:
         67:6e:c0:50:ec:62:ae:b2:b9:59:89:fc:f7:23:c6:26:0e:99:
         09:84:5c:78:68:31:1c:d4:1c:2d:77:f9:35:23:64:65:cc:71:
         02:e5:14:bd:2c:e8:62:1a:fe:e8:77:c7:7a:ce:92:96:fa:27:
         16:10:93:c3:60:1b:8f:c8:c1:57:7e:eb:01:00:6b:4f:4e:43:
         d7:cb:50:8b:4c:9e:f5:a5:54:b3:17:3b:6d:00:c9:27:56:c4:
         96:8d:4d:0a:9e:43:83:f2:26:2e:9d:07:87:a9:3c:1a:35:9c:
         0b:85:b8:11:6e:e6:93:b4:87:c7:93:0e:86:d7:80:93:2d:e8:
         09:20:f8:c7:8a:23:01:56:ab:ce:36:87:01:d2:5c:b8:e3:3d:
         ab:3f:cd:3d:92:b0:85:94:18:23:bf:67:88:0a:a6:a9:cb:fe:
         4d:07:96:c3:65:57:bb:4f:16:da:3c:50:b3:ec:7b:3a:33:2b:
         3d:b8:cf:12:8c:53:70:7c:d4:d2:fb:9c:95:43:09:e5:d1:66:
         ca:18:2e:1d:4f:0d:13:1f
-----BEGIN CERTIFICATE-----
MIIGrTCCBJWgAwIBAgICKjowDQYJKoZIhvcNAQELBQAwgawxCzAJBgNVBAYTAlVT
MQswCQYDVQQIEwJPSDERMA8GA1UEBxMIQ29sdW1idXMxEjAQBgNVBAoTCVZpa2lu
Z1ZQTjEdMBsGA1UECxMUTXlPcmdhbml6YXRpb25hbFVuaXQxFTATBgNVBAMTDFZp
a2luZ1ZQTiBDQTEQMA4GA1UEKRMHRWFzeVJTQTEhMB8GCSqGSIb3DQEJARYSbWVA
bXlob3N0Lm15ZG9tYWluMB4XDTE3MDQyNTE1MDg1OFoXDTI3MDQyMzE1MDg1OFow
HzEdMBsGA1UEAxMUQ2xpZW50Mjg4MkNlcnRmN2YyNDUwggIiMA0GCSqGSIb3DQEB
AQUAA4ICDwAwggIKAoICAQC7wbEQtfVwd1uxnRMPYNYj0xBs47KTRoGHPS0mNPGh
NmefBaSrW2+DpgPu/3Qqjg3xS6PmlyvObcmp8S89NLnZGRxq+Ttaw8lP3XLAa1gk
wzpylrytOtFUtJtIc4qk1GGQf2bbFIEsWb+NRd6hk7acfQp+rQSKRZJ59k6UW1Lc
FoCxXeB+oaLXCyv/52swfKm0RdDxNnu/fgABzW49iDIQJf676th5OK8qr9NqQnON
ExGVoSMPT3812FWR+X0I/lQNYnOgSK/UFCA/9dN+lRBOZ/uuNY3lGQEn/C1QtZ8A
F60y35Ynif9v1kpTAMOd08gNIcmx+U774VuS8RgCsCHUCbgu9H3s8pjw2J84Q1AU
DWd3+DHE/dMa6lZ5zW7pe5mWdF6M/2HWhvzZY3x/eIhl500gP2jHnq/Ln7JvIXgZ
LQo+6bVlHcQO3/U8RIlCfKArqYMoe5Nmduu4lz58hDbg0Ho1kso+7hZ+jEJFzSFp
bbwDwhL3n0IQ7XPAVvJPQPXPWWsMvTNS1SoKtLgIIFES58w7dDdexkHvP8ZeigYH
7arOTZX7t+lfcG1+k/FjZL0rOyDBzc4Lwh0lbkIyYd1CXyWJ3qNyrz5D+zk8qvd2
/qjP4k1+bWpLRKuekFvNk8rnedeFkMdqbqCH0XvnbsMmLlCBvyXrQlx1OFQGxuxU
cQIDAQABo4IBYzCCAV8wCQYDVR0TBAIwADAtBglghkgBhvhCAQ0EIBYeRWFzeS1S
U0EgR2VuZXJhdGVkIENlcnRpZmljYXRlMB0GA1UdDgQWBBTQQKZJb24bCCHSIiYd
41Tb1FFhHTCB4QYDVR0jBIHZMIHWgBQSzWAE0qCAnnDtxpm4eyzGUv0ZoaGBsqSB
rzCBrDELMAkGA1UEBhMCVVMxCzAJBgNVBAgTAk9IMREwDwYDVQQHEwhDb2x1bWJ1
czESMBAGA1UEChMJVmlraW5nVlBOMR0wGwYDVQQLExRNeU9yZ2FuaXphdGlvbmFs
VW5pdDEVMBMGA1UEAxMMVmlraW5nVlBOIENBMRAwDgYDVQQpEwdFYXN5UlNBMSEw
HwYJKoZIhvcNAQkBFhJtZUBteWhvc3QubXlkb21haW6CCQDPNYXugL8qPjATBgNV
HSUEDDAKBggrBgEFBQcDAjALBgNVHQ8EBAMCB4AwDQYJKoZIhvcNAQELBQADggIB
AIvFSyUDJsYWE0QBC/ZiTBXOP/Zq4W3mSGrsWH6KqjF44hy6bTBzLVd8R2Sl4vap
/M1oDgqfmPZNcQ5Qazoku65VPl9hMxxCun/yGdumemVlDmeT3jgAEOk+p49OWi68
dCpFaafHfDEQJeSc8gHCpuFrUo7OfnQ/IoBngnRLZlhaqqjCWWEt522q0cICE3fU
KZzeoqhutUVLmoLgcky/tyb20VF+cnj3NM7J5/l+461+0izXef0DF+UTbWxNzHjW
Aw7t2aH96GAc2NYgmM5XgseBJ41Zj/AoXhrPfoDn2ADQyVEGl16po/vGR2DkOo7I
ikVp1EYOhIaSSHXLfaDVEDBkNNVrNDlS+yRGrcu9w2SXHUlCPtLjP6eQzWjORdsw
o+5ZpAIUbGK3K0mnotu32FbVAWduwFDsYq6yuVmJ/PcjxiYOmQmEXHhoMRzUHC13
+TUjZGXMcQLlFL0s6GIa/uh3x3rOkpb6JxYQk8NgG4/IwVd+6wEAa09OQ9fLUItM
nvWlVLMXO20AySdWxJaNTQqeQ4PyJi6dB4epPBo1nAuFuBFu5pO0h8eTDobXgJMt
6Akg+MeKIwFWq842hwHSXLjjPas/zT2SsIWUGCO/Z4gKpqnL/k0HlsNlV7tPFto8
ULPsezozKz24zxKMU3B81NL7nJVDCeXRZsoYLh1PDRMf
-----END CERTIFICATE-----
