Certificate:
    Data:
        Version: 3 (0x2)
        Serial Number: 10839 (0x2a57)
    Signature Algorithm: sha256WithRSAEncryption
        Issuer: C=US, ST=OH, L=Columbus, O=VikingVPN, OU=MyOrganizationalUnit, CN=VikingVPN CA/name=EasyRSA/emailAddress=me@myhost.mydomain
        Validity
            Not Before: Apr 29 17:24:36 2017 GMT
            Not After : Apr 27 17:24:36 2027 GMT
        Subject: CN=Client2887Certd4fd49
        Subject Public Key Info:
            Public Key Algorithm: rsaEncryption
                Public-Key: (4096 bit)
                Modulus:
                    00:ae:3a:0b:a0:5a:4d:9d:4c:3c:2b:bb:cf:2b:df:
                    54:5e:a3:82:ab:e7:f2:5b:77:bb:ce:f0:2f:dd:c8:
                    2a:cf:a3:f4:f9:ad:dd:82:4d:f9:03:1f:23:82:8e:
                    83:65:be:66:5c:32:e8:f3:aa:07:92:72:f6:f0:5d:
                    83:f7:57:4c:34:45:0b:2b:84:93:c2:46:82:7d:d8:
                    ce:6e:6d:8a:8d:a3:9e:25:06:9d:f4:4f:04:9f:95:
                    47:e0:46:d6:c3:d8:ad:0b:23:46:e5:ff:59:d1:aa:
                    17:cf:30:4a:68:1b:00:84:f7:f5:08:a4:42:88:f2:
                    70:f8:2a:bd:21:a6:9b:7a:cd:61:36:72:10:6e:b1:
                    67:13:47:e4:87:47:e0:4d:69:f0:85:45:f4:7e:59:
                    65:eb:c1:38:2e:49:7d:bb:ca:ee:2b:3c:60:a3:ca:
                    d2:68:e8:db:69:0c:9d:0c:75:42:b2:d7:54:3a:00:
                    5c:68:e3:61:33:cb:ce:91:25:1c:ce:a3:8c:0e:16:
                    5a:6d:99:d7:5a:2f:d4:ed:af:d2:72:91:c4:9f:cf:
                    11:b9:52:10:f5:aa:44:c6:7b:f3:12:4c:55:b4:98:
                    73:78:c3:6f:36:bd:a8:88:35:f7:5e:55:b0:33:3d:
                    87:0a:8a:0c:9b:a1:91:6e:a8:1d:b9:03:c5:b3:99:
                    ac:df:cc:65:cd:bf:da:25:f6:37:c9:06:bd:21:93:
                    f0:72:e7:02:6c:d4:e1:6e:35:66:c7:d2:89:ee:d6:
                    46:17:1b:cc:8f:1b:7e:30:dd:e6:8b:ff:63:66:e5:
                    e7:97:38:20:39:d6:8a:8d:ef:17:41:a0:91:77:2a:
                    14:24:d4:52:4c:c0:cc:8f:72:96:b1:5d:23:c0:3a:
                    56:8c:e4:02:47:0e:df:7b:c3:43:a2:10:b1:5e:cc:
                    86:c3:46:39:39:a2:65:f5:b8:45:8f:e7:6b:e6:f1:
                    f1:3c:fe:05:fe:cb:2d:27:5e:26:e9:2f:65:f7:1b:
                    04:cf:be:c4:79:4b:d9:08:08:51:cc:67:64:30:e0:
                    43:b9:2f:b1:e1:50:c4:ed:3e:49:b8:22:a8:12:1e:
                    58:af:9d:29:55:5c:49:dc:1a:a2:cd:01:11:95:09:
                    59:cd:60:a1:2e:4c:d3:de:41:e2:cd:96:67:ee:92:
                    bc:f2:2d:7a:dc:37:95:09:b5:c0:2f:54:f5:86:8b:
                    21:3e:f0:94:7a:ee:e5:62:45:c1:e5:1f:e1:f6:dd:
                    f0:1e:35:ab:f5:a9:e9:fc:2f:b1:54:ea:e2:7d:bd:
                    53:11:d0:a4:37:3a:cd:bf:19:8b:af:80:2b:07:3c:
                    5f:1a:44:08:5a:9f:90:42:46:e0:fb:6c:3e:ae:f6:
                    26:20:cb
                Exponent: 65537 (0x10001)
        X509v3 extensions:
            X509v3 Basic Constraints: 
                CA:FALSE
            Netscape Comment: 
                Easy-RSA Generated Certificate
            X509v3 Subject Key Identifier: 
                7E:05:ED:CE:E5:20:59:E6:A6:0E:29:4D:D9:01:4C:A2:D4:D4:75:F4
            X509v3 Authority Key Identifier: 
                keyid:12:CD:60:04:D2:A0:80:9E:70:ED:C6:99:B8:7B:2C:C6:52:FD:19:A1
                DirName:/C=US/ST=OH/L=Columbus/O=VikingVPN/OU=MyOrganizationalUnit/CN=VikingVPN CA/name=EasyRSA/emailAddress=me@myhost.mydomain
                serial:CF:35:85:EE:80:BF:2A:3E

            X509v3 Extended Key Usage: 
                TLS Web Client Authentication
            X509v3 Key Usage: 
                Digital Signature
    Signature Algorithm: sha256WithRSAEncryption
         75:05:a1:df:ab:cc:9a:44:a5:12:2a:49:19:c8:d8:41:78:b9:
         66:f9:72:58:89:0f:f2:9b:54:cc:1b:6e:54:97:ce:fe:e0:1e:
         98:1b:bb:0a:ef:5c:c6:8a:c4:dc:58:db:74:57:83:27:4a:25:
         99:33:0d:f8:a5:0c:17:57:7c:2c:79:70:9e:d0:2f:67:ac:34:
         18:7d:19:c2:bc:f9:be:e1:22:69:c0:74:60:3f:2d:44:72:8b:
         ce:ad:c2:bb:dc:2f:2f:cc:05:b0:b8:0b:df:ff:50:ec:97:c6:
         55:78:47:ba:2a:76:44:b3:b4:96:3b:5a:28:83:ac:0d:e8:73:
         ad:97:3d:25:8d:a2:2d:53:b8:26:ce:25:d8:7c:0b:53:0d:f0:
         21:e0:d1:b2:0f:60:b4:21:9b:65:62:2a:67:d3:cb:47:ae:da:
         10:38:ee:52:45:0f:39:17:62:91:2e:85:39:f3:38:c5:ce:b2:
         ba:44:cb:0d:dd:49:f2:17:4f:3b:2c:2e:e7:f8:e3:43:c3:7d:
         d7:2c:b2:57:14:ea:30:e5:8e:2a:b0:b0:2b:4b:6e:e8:7d:38:
         8f:ef:e4:23:67:18:3f:f7:14:29:d6:7e:7f:a1:48:75:a9:36:
         8e:2f:84:7f:07:66:57:b8:f0:00:78:ea:ec:1f:55:cf:30:4e:
         9e:f8:db:05:9c:7d:86:63:23:43:aa:dd:f1:23:37:ad:9c:eb:
         23:75:5f:d5:09:8f:19:de:f9:44:f3:f6:8d:65:83:99:9c:a2:
         7e:e1:22:53:b8:ca:b0:28:ea:a2:ec:c5:22:42:e4:c7:e5:73:
         3e:c5:2f:b9:2a:d1:fa:77:6a:ff:72:56:1b:4d:6d:0e:9d:35:
         da:72:26:72:77:33:7b:84:e0:bc:aa:a7:9b:4c:cf:ee:54:07:
         2a:be:86:0d:29:9b:a3:17:cd:cc:1c:74:75:1c:81:5d:c3:96:
         63:64:34:67:6b:d2:ad:b7:84:41:db:51:07:50:6b:ef:10:7b:
         e5:92:f3:a1:5e:be:b1:a6:8a:44:8a:d0:2a:cf:3d:7b:eb:5d:
         df:d8:8a:c0:b2:b7:b8:f6:ae:12:43:d5:c7:2d:14:32:72:07:
         b8:e4:e1:0a:61:36:b5:9e:27:ba:e8:7e:01:89:8b:1a:8b:ff:
         12:4f:ae:38:0c:30:a7:45:51:59:ca:3b:92:c1:e5:89:4b:18:
         ab:da:28:77:f4:79:6c:dd:5e:1e:c8:5f:38:1e:6c:fb:79:b6:
         2c:eb:a7:b2:a3:24:64:a2:f9:58:35:a0:7a:e3:8c:2a:72:40:
         9c:97:d1:a4:80:66:2e:ff:08:5c:40:cc:4a:c6:a7:28:94:98:
         fe:3d:f4:c2:c4:8d:ee:ca
-----BEGIN CERTIFICATE-----
MIIGrTCCBJWgAwIBAgICKlcwDQYJKoZIhvcNAQELBQAwgawxCzAJBgNVBAYTAlVT
MQswCQYDVQQIEwJPSDERMA8GA1UEBxMIQ29sdW1idXMxEjAQBgNVBAoTCVZpa2lu
Z1ZQTjEdMBsGA1UECxMUTXlPcmdhbml6YXRpb25hbFVuaXQxFTATBgNVBAMTDFZp
a2luZ1ZQTiBDQTEQMA4GA1UEKRMHRWFzeVJTQTEhMB8GCSqGSIb3DQEJARYSbWVA
bXlob3N0Lm15ZG9tYWluMB4XDTE3MDQyOTE3MjQzNloXDTI3MDQyNzE3MjQzNlow
HzEdMBsGA1UEAxMUQ2xpZW50Mjg4N0NlcnRkNGZkNDkwggIiMA0GCSqGSIb3DQEB
AQUAA4ICDwAwggIKAoICAQCuOgugWk2dTDwru88r31Reo4Kr5/Jbd7vO8C/dyCrP
o/T5rd2CTfkDHyOCjoNlvmZcMujzqgeScvbwXYP3V0w0RQsrhJPCRoJ92M5ubYqN
o54lBp30TwSflUfgRtbD2K0LI0bl/1nRqhfPMEpoGwCE9/UIpEKI8nD4Kr0hppt6
zWE2chBusWcTR+SHR+BNafCFRfR+WWXrwTguSX27yu4rPGCjytJo6NtpDJ0MdUKy
11Q6AFxo42Ezy86RJRzOo4wOFlptmddaL9Ttr9JykcSfzxG5UhD1qkTGe/MSTFW0
mHN4w282vaiINfdeVbAzPYcKigyboZFuqB25A8WzmazfzGXNv9ol9jfJBr0hk/By
5wJs1OFuNWbH0onu1kYXG8yPG34w3eaL/2Nm5eeXOCA51oqN7xdBoJF3KhQk1FJM
wMyPcpaxXSPAOlaM5AJHDt97w0OiELFezIbDRjk5omX1uEWP52vm8fE8/gX+yy0n
XibpL2X3GwTPvsR5S9kICFHMZ2Qw4EO5L7HhUMTtPkm4IqgSHlivnSlVXEncGqLN
ARGVCVnNYKEuTNPeQeLNlmfukrzyLXrcN5UJtcAvVPWGiyE+8JR67uViRcHlH+H2
3fAeNav1qen8L7FU6uJ9vVMR0KQ3Os2/GYuvgCsHPF8aRAhan5BCRuD7bD6u9iYg
ywIDAQABo4IBYzCCAV8wCQYDVR0TBAIwADAtBglghkgBhvhCAQ0EIBYeRWFzeS1S
U0EgR2VuZXJhdGVkIENlcnRpZmljYXRlMB0GA1UdDgQWBBR+Be3O5SBZ5qYOKU3Z
AUyi1NR19DCB4QYDVR0jBIHZMIHWgBQSzWAE0qCAnnDtxpm4eyzGUv0ZoaGBsqSB
rzCBrDELMAkGA1UEBhMCVVMxCzAJBgNVBAgTAk9IMREwDwYDVQQHEwhDb2x1bWJ1
czESMBAGA1UEChMJVmlraW5nVlBOMR0wGwYDVQQLExRNeU9yZ2FuaXphdGlvbmFs
VW5pdDEVMBMGA1UEAxMMVmlraW5nVlBOIENBMRAwDgYDVQQpEwdFYXN5UlNBMSEw
HwYJKoZIhvcNAQkBFhJtZUBteWhvc3QubXlkb21haW6CCQDPNYXugL8qPjATBgNV
HSUEDDAKBggrBgEFBQcDAjALBgNVHQ8EBAMCB4AwDQYJKoZIhvcNAQELBQADggIB
AHUFod+rzJpEpRIqSRnI2EF4uWb5cliJD/KbVMwbblSXzv7gHpgbuwrvXMaKxNxY
23RXgydKJZkzDfilDBdXfCx5cJ7QL2esNBh9GcK8+b7hImnAdGA/LURyi86twrvc
Ly/MBbC4C9//UOyXxlV4R7oqdkSztJY7WiiDrA3oc62XPSWNoi1TuCbOJdh8C1MN
8CHg0bIPYLQhm2ViKmfTy0eu2hA47lJFDzkXYpEuhTnzOMXOsrpEyw3dSfIXTzss
Luf440PDfdcsslcU6jDljiqwsCtLbuh9OI/v5CNnGD/3FCnWfn+hSHWpNo4vhH8H
Zle48AB46uwfVc8wTp742wWcfYZjI0Oq3fEjN62c6yN1X9UJjxne+UTz9o1lg5mc
on7hIlO4yrAo6qLsxSJC5Mflcz7FL7kq0fp3av9yVhtNbQ6dNdpyJnJ3M3uE4Lyq
p5tMz+5UByq+hg0pm6MXzcwcdHUcgV3DlmNkNGdr0q23hEHbUQdQa+8Qe+WS86Fe
vrGmikSK0CrPPXvrXd/YisCyt7j2rhJD1cctFDJyB7jk4QphNrWeJ7rofgGJixqL
/xJPrjgMMKdFUVnKO5LB5YlLGKvaKHf0eWzdXh7IXzgebPt5tizrp7KjJGSi+Vg1
oHrjjCpyQJyX0aSAZi7/CFxAzErGpyiUmP499MLEje7K
-----END CERTIFICATE-----
