Certificate:
    Data:
        Version: 3 (0x2)
        Serial Number: 10840 (0x2a58)
    Signature Algorithm: sha256WithRSAEncryption
        Issuer: C=US, ST=OH, L=Columbus, O=VikingVPN, OU=MyOrganizationalUnit, CN=VikingVPN CA/name=EasyRSA/emailAddress=me@myhost.mydomain
        Validity
            Not Before: Apr 29 18:42:04 2017 GMT
            Not After : Apr 27 18:42:04 2027 GMT
        Subject: CN=Client2889Cert30977f
        Subject Public Key Info:
            Public Key Algorithm: rsaEncryption
                Public-Key: (4096 bit)
                Modulus:
                    00:b1:ea:e9:24:02:bd:2e:cf:6b:18:8b:de:a9:ce:
                    d7:42:86:62:cb:b5:81:00:0b:cf:33:59:25:42:f5:
                    fb:3c:a0:62:93:27:21:da:18:19:6e:a3:48:65:6a:
                    5b:50:4b:c5:2e:ad:84:f3:7c:80:bb:ef:f7:f8:53:
                    7c:40:56:ab:29:51:24:d0:0e:1d:e9:ea:f8:81:32:
                    f9:c1:45:b5:35:d6:da:c0:0c:22:2a:b8:9c:03:bc:
                    cc:37:44:f8:c3:91:9b:ec:b2:a1:97:6b:19:86:53:
                    eb:2e:51:92:16:82:46:f0:46:75:b8:31:df:40:0e:
                    3a:08:15:4a:1d:08:c8:42:fc:f0:d0:d2:a6:61:eb:
                    73:5c:39:0a:61:e2:03:47:b1:c7:f5:8d:22:d2:01:
                    92:0c:8f:fc:b5:3e:9b:89:7f:78:1d:e3:b5:f4:71:
                    9d:17:b9:a5:01:af:62:55:56:f2:7c:65:54:df:6a:
                    95:91:fc:37:55:39:bc:b1:b8:cd:16:f1:50:27:71:
                    aa:85:ab:46:93:3f:f1:58:68:7b:77:83:6f:0d:1c:
                    62:c8:3b:30:1f:a3:54:87:7c:aa:0e:95:a1:de:50:
                    0d:5a:35:1b:a9:14:74:53:43:f6:90:64:93:b8:03:
                    5a:26:4f:4a:4c:94:e9:5f:fe:a4:05:ae:2a:43:48:
                    9e:5b:da:ce:60:fb:d7:6f:5b:4f:ef:83:ab:a2:37:
                    0d:e5:17:e1:05:3d:87:31:a2:d0:87:03:60:9b:57:
                    ca:a9:e7:06:93:8a:1c:6d:3a:6f:46:f2:e7:28:e5:
                    c0:42:12:19:5a:a0:ec:53:b0:c9:81:66:2d:30:01:
                    55:b4:00:1b:79:4b:29:47:ef:9c:4e:7a:cc:21:82:
                    92:84:eb:cf:51:bc:15:af:79:0b:a1:13:05:6a:b2:
                    8b:d2:2d:82:9f:35:a9:92:9e:2f:f7:a5:b5:f2:b8:
                    98:6e:cb:36:f0:8b:6a:d3:54:2a:c8:8c:1f:55:46:
                    23:ba:cf:36:48:57:23:b1:77:90:02:d4:2d:29:09:
                    20:fd:24:18:33:d7:d5:e6:b8:8b:13:a4:ff:8c:dc:
                    e3:1f:8b:8d:27:3f:16:39:e9:b1:f5:34:25:5f:21:
                    ee:68:9c:60:1c:be:10:06:95:86:86:38:97:ed:e7:
                    e2:6f:47:bf:82:3e:22:bf:b9:54:66:19:ca:7a:b7:
                    03:24:2b:92:ae:9b:ba:d4:79:f4:d6:3b:cd:03:c0:
                    a8:3f:2f:d2:7d:cb:d8:36:9b:13:87:eb:91:8b:a8:
                    5b:88:f0:ac:0e:23:0d:a1:6d:07:1d:a4:6f:69:10:
                    9e:a8:93:64:d3:46:66:cb:4f:f4:14:17:9d:bb:37:
                    a4:5f:fd
                Exponent: 65537 (0x10001)
        X509v3 extensions:
            X509v3 Basic Constraints: 
                CA:FALSE
            Netscape Comment: 
                Easy-RSA Generated Certificate
            X509v3 Subject Key Identifier: 
                E6:FA:2A:A5:B0:23:15:05:9E:B5:94:D9:9B:BE:C7:E0:24:ED:F8:FA
            X509v3 Authority Key Identifier: 
                keyid:12:CD:60:04:D2:A0:80:9E:70:ED:C6:99:B8:7B:2C:C6:52:FD:19:A1
                DirName:/C=US/ST=OH/L=Columbus/O=VikingVPN/OU=MyOrganizationalUnit/CN=VikingVPN CA/name=EasyRSA/emailAddress=me@myhost.mydomain
                serial:CF:35:85:EE:80:BF:2A:3E

            X509v3 Extended Key Usage: 
                TLS Web Client Authentication
            X509v3 Key Usage: 
                Digital Signature
    Signature Algorithm: sha256WithRSAEncryption
         87:ad:fe:0f:4b:c2:31:fd:91:aa:9a:ea:41:93:da:90:bd:17:
         ba:83:ed:3c:a8:e3:0a:a5:1e:5e:5c:ff:66:b8:5d:bc:13:16:
         ad:3d:04:f7:f1:12:80:12:de:73:a7:b0:bc:79:7b:84:a1:ea:
         1c:1b:60:90:ef:07:9b:3b:9f:d9:79:01:84:ff:64:1f:00:42:
         3a:4b:98:37:9e:6a:d9:a5:df:b3:c3:42:d0:bb:cd:31:15:dc:
         b2:05:c9:85:97:6f:2a:42:94:32:54:31:a8:dc:96:04:02:ef:
         31:29:40:1e:da:d3:20:69:75:e3:08:c3:90:60:26:5a:d6:f7:
         02:84:9a:4c:4b:3c:f1:71:0d:c0:37:0d:69:f3:e7:35:b7:2e:
         ca:5b:f7:c4:e4:9f:3a:68:97:8e:f2:f6:c6:bb:3b:0b:7a:0a:
         76:53:29:0d:3d:b8:f3:49:06:ce:96:83:3c:da:29:fc:50:6b:
         7a:fd:68:33:59:6c:5b:2f:66:85:ea:d8:e9:5c:71:aa:98:e7:
         a0:7d:d9:56:84:5e:51:06:56:3f:c5:4b:13:2f:9a:79:88:63:
         65:e8:dc:c0:dc:85:01:00:03:43:ae:0a:9e:76:22:78:46:7b:
         9f:82:88:e9:29:cf:b1:db:2c:47:0c:1d:b1:b3:b5:6a:37:7f:
         b5:26:6f:32:7c:82:a1:cc:be:94:b6:49:23:ff:46:60:92:36:
         09:27:9a:11:22:a6:7e:46:18:32:2f:de:d7:9d:36:a5:1c:56:
         7d:4e:1a:64:e7:a1:f4:ef:33:22:59:3b:58:8d:22:e9:0a:77:
         ea:5f:63:ad:ad:28:5b:02:a1:61:8b:77:31:e5:d5:84:59:01:
         68:43:e5:98:50:c3:bc:5e:48:89:17:18:fb:17:a9:81:d6:17:
         4f:ca:74:02:c1:04:5b:3d:db:4d:d5:d3:0a:4f:73:14:2a:d3:
         76:69:12:12:19:f9:2f:89:89:63:25:44:39:d9:10:c4:01:b9:
         67:39:28:68:1f:b4:fb:bc:7a:0c:b3:86:72:0b:c3:42:2c:82:
         f7:9d:a5:1a:e3:4d:9d:a8:92:27:3e:24:9c:5b:b2:a7:ca:e1:
         49:30:a0:59:d2:13:9b:de:b2:96:78:0b:df:7d:76:ec:d9:cb:
         5c:e8:bf:4d:f5:8a:d1:7e:68:b4:cb:ea:a2:44:73:37:09:11:
         bf:a1:60:56:51:d1:4f:25:2a:72:95:74:88:78:87:03:ca:14:
         bc:92:b2:97:c8:82:93:c2:0d:80:ad:d9:2c:55:66:d8:63:68:
         9f:67:83:15:8a:f4:2e:c3:a5:ec:17:53:5b:7f:88:2f:10:03:
         77:0b:e3:07:dd:29:1b:75
-----BEGIN CERTIFICATE-----
MIIGrTCCBJWgAwIBAgICKlgwDQYJKoZIhvcNAQELBQAwgawxCzAJBgNVBAYTAlVT
MQswCQYDVQQIEwJPSDERMA8GA1UEBxMIQ29sdW1idXMxEjAQBgNVBAoTCVZpa2lu
Z1ZQTjEdMBsGA1UECxMUTXlPcmdhbml6YXRpb25hbFVuaXQxFTATBgNVBAMTDFZp
a2luZ1ZQTiBDQTEQMA4GA1UEKRMHRWFzeVJTQTEhMB8GCSqGSIb3DQEJARYSbWVA
bXlob3N0Lm15ZG9tYWluMB4XDTE3MDQyOTE4NDIwNFoXDTI3MDQyNzE4NDIwNFow
HzEdMBsGA1UEAxMUQ2xpZW50Mjg4OUNlcnQzMDk3N2YwggIiMA0GCSqGSIb3DQEB
AQUAA4ICDwAwggIKAoICAQCx6ukkAr0uz2sYi96pztdChmLLtYEAC88zWSVC9fs8
oGKTJyHaGBluo0hlaltQS8UurYTzfIC77/f4U3xAVqspUSTQDh3p6viBMvnBRbU1
1trADCIquJwDvMw3RPjDkZvssqGXaxmGU+suUZIWgkbwRnW4Md9ADjoIFUodCMhC
/PDQ0qZh63NcOQph4gNHscf1jSLSAZIMj/y1PpuJf3gd47X0cZ0XuaUBr2JVVvJ8
ZVTfapWR/DdVObyxuM0W8VAncaqFq0aTP/FYaHt3g28NHGLIOzAfo1SHfKoOlaHe
UA1aNRupFHRTQ/aQZJO4A1omT0pMlOlf/qQFripDSJ5b2s5g+9dvW0/vg6uiNw3l
F+EFPYcxotCHA2CbV8qp5waTihxtOm9G8uco5cBCEhlaoOxTsMmBZi0wAVW0ABt5
SylH75xOeswhgpKE689RvBWveQuhEwVqsovSLYKfNamSni/3pbXyuJhuyzbwi2rT
VCrIjB9VRiO6zzZIVyOxd5AC1C0pCSD9JBgz19XmuIsTpP+M3OMfi40nPxY56bH1
NCVfIe5onGAcvhAGlYaGOJft5+JvR7+CPiK/uVRmGcp6twMkK5Kum7rUefTWO80D
wKg/L9J9y9g2mxOH65GLqFuI8KwOIw2hbQcdpG9pEJ6ok2TTRmbLT/QUF527N6Rf
/QIDAQABo4IBYzCCAV8wCQYDVR0TBAIwADAtBglghkgBhvhCAQ0EIBYeRWFzeS1S
U0EgR2VuZXJhdGVkIENlcnRpZmljYXRlMB0GA1UdDgQWBBTm+iqlsCMVBZ61lNmb
vsfgJO34+jCB4QYDVR0jBIHZMIHWgBQSzWAE0qCAnnDtxpm4eyzGUv0ZoaGBsqSB
rzCBrDELMAkGA1UEBhMCVVMxCzAJBgNVBAgTAk9IMREwDwYDVQQHEwhDb2x1bWJ1
czESMBAGA1UEChMJVmlraW5nVlBOMR0wGwYDVQQLExRNeU9yZ2FuaXphdGlvbmFs
VW5pdDEVMBMGA1UEAxMMVmlraW5nVlBOIENBMRAwDgYDVQQpEwdFYXN5UlNBMSEw
HwYJKoZIhvcNAQkBFhJtZUBteWhvc3QubXlkb21haW6CCQDPNYXugL8qPjATBgNV
HSUEDDAKBggrBgEFBQcDAjALBgNVHQ8EBAMCB4AwDQYJKoZIhvcNAQELBQADggIB
AIet/g9LwjH9kaqa6kGT2pC9F7qD7Tyo4wqlHl5c/2a4XbwTFq09BPfxEoAS3nOn
sLx5e4Sh6hwbYJDvB5s7n9l5AYT/ZB8AQjpLmDeeatml37PDQtC7zTEV3LIFyYWX
bypClDJUMajclgQC7zEpQB7a0yBpdeMIw5BgJlrW9wKEmkxLPPFxDcA3DWnz5zW3
Lspb98Tknzpol47y9sa7Owt6CnZTKQ09uPNJBs6WgzzaKfxQa3r9aDNZbFsvZoXq
2OlccaqY56B92VaEXlEGVj/FSxMvmnmIY2Xo3MDchQEAA0OuCp52InhGe5+CiOkp
z7HbLEcMHbGztWo3f7UmbzJ8gqHMvpS2SSP/RmCSNgknmhEipn5GGDIv3tedNqUc
Vn1OGmTnofTvMyJZO1iNIukKd+pfY62tKFsCoWGLdzHl1YRZAWhD5ZhQw7xeSIkX
GPsXqYHWF0/KdALBBFs9203V0wpPcxQq03ZpEhIZ+S+JiWMlRDnZEMQBuWc5KGgf
tPu8egyzhnILw0IsgvedpRrjTZ2okic+JJxbsqfK4UkwoFnSE5vespZ4C999duzZ
y1zov031itF+aLTL6qJEczcJEb+hYFZR0U8lKnKVdIh4hwPKFLySspfIgpPCDYCt
2SxVZthjaJ9ngxWK9C7DpewXU1t/iC8QA3cL4wfdKRt1
-----END CERTIFICATE-----
