Certificate:
    Data:
        Version: 3 (0x2)
        Serial Number: 10844 (0x2a5c)
    Signature Algorithm: sha256WithRSAEncryption
        Issuer: C=US, ST=OH, L=Columbus, O=VikingVPN, OU=MyOrganizationalUnit, CN=VikingVPN CA/name=EasyRSA/emailAddress=me@myhost.mydomain
        Validity
            Not Before: Apr 30 01:58:07 2017 GMT
            Not After : Apr 28 01:58:07 2027 GMT
        Subject: CN=Client2217Cert7a2dc0
        Subject Public Key Info:
            Public Key Algorithm: rsaEncryption
                Public-Key: (4096 bit)
                Modulus:
                    00:c9:e1:fa:50:fd:3f:e8:9c:4c:ae:db:6a:09:98:
                    91:b8:06:11:6e:37:73:db:7f:58:f5:e1:b6:3c:de:
                    c8:9f:c2:e1:ba:ab:be:6b:0a:ea:95:b3:71:54:77:
                    b0:54:65:c3:a1:d8:d6:3b:be:8f:49:b6:22:68:39:
                    f0:24:fc:38:fb:cc:bd:fe:bc:fe:43:cb:74:be:ae:
                    ad:a1:22:11:b7:ad:2e:b1:61:9b:56:05:cc:9c:f9:
                    97:2c:0e:5c:cc:31:e8:7e:fc:a6:9c:a6:a0:e3:f6:
                    cd:7b:a8:f3:c3:db:99:05:2f:e8:85:bf:ea:06:d4:
                    12:39:62:ff:84:f8:a6:4c:ce:5c:69:63:67:5b:7e:
                    c3:78:b8:37:cf:ec:6b:a3:19:0f:a3:cb:29:91:ef:
                    c8:e1:87:97:4c:ae:b7:25:c5:48:84:66:f3:81:cb:
                    3f:ec:5e:f3:b3:1a:f8:9e:f8:1b:31:20:6a:83:bc:
                    e4:0c:20:c8:e5:0a:a3:80:fb:b5:85:99:7c:d5:d1:
                    77:ee:90:df:66:bf:e0:0a:6c:24:78:74:89:b8:ea:
                    57:32:31:7f:37:34:a3:81:37:d0:41:48:0a:ac:34:
                    c7:14:3b:6d:60:01:56:dc:bd:b3:4c:64:14:ed:af:
                    73:c7:01:4d:3b:94:45:c4:30:e4:e6:62:d2:64:f7:
                    40:53:a3:82:60:f6:0e:7a:e3:a9:68:04:79:99:eb:
                    23:f8:6c:60:b8:42:3c:e3:87:dd:5e:7b:b3:f9:48:
                    62:2b:5b:2d:41:cb:39:b8:1c:3d:3f:5c:d9:65:09:
                    5a:55:5b:b6:f9:02:88:55:00:3f:96:db:1a:0c:f1:
                    46:96:14:29:0e:92:9f:56:b3:d8:0b:cc:57:a0:ae:
                    df:dd:37:f2:d3:01:9e:b7:1a:bd:7e:87:82:63:36:
                    56:71:91:cd:2e:8d:8b:92:3e:94:77:cd:38:35:e6:
                    1b:89:97:56:6b:11:3f:0d:44:0d:ea:5c:4c:4b:6e:
                    b4:7e:f9:34:52:fd:56:34:4f:26:3e:bd:1a:da:91:
                    b8:0c:66:0d:2a:c5:39:1e:0a:6a:ad:e3:8d:b7:42:
                    46:31:82:81:82:27:50:b7:23:58:ea:0a:cc:8f:0f:
                    79:6e:cc:6e:39:c5:64:fc:82:d0:69:3e:96:95:e9:
                    b3:8d:aa:ed:d1:e0:6d:fa:eb:f0:28:16:18:e3:89:
                    02:7e:dd:05:12:0d:5b:83:e0:4e:3d:23:d0:95:90:
                    d3:be:21:38:1b:07:60:36:41:a2:97:f2:a7:cb:e4:
                    e3:b2:36:fc:2b:b7:62:b8:66:5a:62:35:b9:eb:f5:
                    3a:74:e4:53:13:6b:72:e4:20:8d:46:86:f4:84:72:
                    a3:ba:c3
                Exponent: 65537 (0x10001)
        X509v3 extensions:
            X509v3 Basic Constraints: 
                CA:FALSE
            Netscape Comment: 
                Easy-RSA Generated Certificate
            X509v3 Subject Key Identifier: 
                68:BD:97:82:25:93:0B:0A:DE:67:E5:8C:FF:0A:2A:7C:E4:A0:11:3D
            X509v3 Authority Key Identifier: 
                keyid:12:CD:60:04:D2:A0:80:9E:70:ED:C6:99:B8:7B:2C:C6:52:FD:19:A1
                DirName:/C=US/ST=OH/L=Columbus/O=VikingVPN/OU=MyOrganizationalUnit/CN=VikingVPN CA/name=EasyRSA/emailAddress=me@myhost.mydomain
                serial:CF:35:85:EE:80:BF:2A:3E

            X509v3 Extended Key Usage: 
                TLS Web Client Authentication
            X509v3 Key Usage: 
                Digital Signature
    Signature Algorithm: sha256WithRSAEncryption
         67:ab:cc:4c:84:b8:d3:6e:73:aa:7f:b4:01:12:6f:55:59:a6:
         2e:82:a1:3d:b9:13:01:5b:07:6f:4b:43:85:54:a7:48:b8:86:
         9c:1a:a2:c5:96:98:24:b5:b2:8d:89:46:2c:50:59:d2:ee:c9:
         e0:9f:1e:e8:23:ed:0e:cd:de:16:43:4d:b0:1a:ca:f8:1d:e9:
         e0:06:d4:82:7a:02:48:a1:16:2b:6f:87:2f:ad:46:a4:e1:fd:
         29:87:40:28:24:d5:4d:d9:61:4e:de:d1:46:88:c9:e0:c1:5a:
         2c:01:b9:70:93:14:59:ba:1b:35:aa:a1:aa:b5:f7:30:7d:0f:
         b2:37:5e:ed:40:aa:c2:0f:06:f8:34:b9:bd:93:7c:fd:aa:a2:
         1f:02:10:2e:35:da:38:86:7a:95:96:86:fa:a4:19:c3:33:c3:
         ce:1e:13:8b:40:08:65:00:0f:ee:6e:1c:ef:2c:8d:91:f7:f0:
         d5:e2:2b:e6:c9:d2:0c:b3:b4:2b:2b:58:97:68:4a:8b:43:53:
         57:d9:00:0f:3a:52:16:16:fc:09:8f:d2:0c:5e:91:6a:f1:aa:
         8c:94:28:40:74:db:d5:21:0c:aa:63:61:d4:ab:d4:66:9b:57:
         dc:be:2a:95:31:84:87:f9:08:d2:ab:69:30:ce:0b:51:d6:0e:
         73:a3:2f:0f:a0:61:da:02:62:e9:f4:c6:9b:e6:24:ab:2b:b4:
         b8:b5:51:b8:ac:bf:80:3f:02:60:af:90:bc:66:03:7e:ea:08:
         92:cf:b6:c7:27:45:7c:62:a4:ec:66:d3:86:48:fe:70:53:f4:
         70:f9:3d:4c:1f:01:40:f2:4b:8b:b3:68:48:30:85:e7:a3:fe:
         b6:cd:8f:84:3b:bd:44:e5:aa:9d:a7:40:a4:af:fb:1f:12:78:
         56:a0:e3:de:c0:b3:20:02:36:ad:d8:82:ec:2d:7c:ea:fe:6d:
         e8:aa:42:9f:55:e0:84:e0:f6:14:91:c1:fb:fd:4b:ad:67:42:
         b3:09:3c:3c:ac:b0:03:e2:ff:6f:67:51:d1:d9:35:cb:86:06:
         0c:66:e7:e6:04:f0:70:f2:47:a5:78:c1:5c:bb:35:af:8a:ea:
         0e:58:bf:83:2c:71:5f:bf:1a:1c:6f:2a:25:49:41:55:37:e7:
         09:8f:eb:a9:6f:38:4a:2f:85:47:72:3c:ca:03:b5:2b:dd:b7:
         97:b1:51:3e:76:8f:60:ab:22:18:5a:8b:36:29:2e:0e:68:67:
         e4:e1:68:cb:f9:35:a0:27:de:2e:ad:0c:6e:55:13:bd:b3:5b:
         02:38:12:00:79:ba:fc:47:45:69:d6:f6:25:f4:33:61:b7:e6:
         e5:24:85:5a:66:e0:bf:6c
-----BEGIN CERTIFICATE-----
MIIGrTCCBJWgAwIBAgICKlwwDQYJKoZIhvcNAQELBQAwgawxCzAJBgNVBAYTAlVT
MQswCQYDVQQIEwJPSDERMA8GA1UEBxMIQ29sdW1idXMxEjAQBgNVBAoTCVZpa2lu
Z1ZQTjEdMBsGA1UECxMUTXlPcmdhbml6YXRpb25hbFVuaXQxFTATBgNVBAMTDFZp
a2luZ1ZQTiBDQTEQMA4GA1UEKRMHRWFzeVJTQTEhMB8GCSqGSIb3DQEJARYSbWVA
bXlob3N0Lm15ZG9tYWluMB4XDTE3MDQzMDAxNTgwN1oXDTI3MDQyODAxNTgwN1ow
HzEdMBsGA1UEAxMUQ2xpZW50MjIxN0NlcnQ3YTJkYzAwggIiMA0GCSqGSIb3DQEB
AQUAA4ICDwAwggIKAoICAQDJ4fpQ/T/onEyu22oJmJG4BhFuN3Pbf1j14bY83sif
wuG6q75rCuqVs3FUd7BUZcOh2NY7vo9JtiJoOfAk/Dj7zL3+vP5Dy3S+rq2hIhG3
rS6xYZtWBcyc+ZcsDlzMMeh+/KacpqDj9s17qPPD25kFL+iFv+oG1BI5Yv+E+KZM
zlxpY2dbfsN4uDfP7GujGQ+jyymR78jhh5dMrrclxUiEZvOByz/sXvOzGvie+Bsx
IGqDvOQMIMjlCqOA+7WFmXzV0XfukN9mv+AKbCR4dIm46lcyMX83NKOBN9BBSAqs
NMcUO21gAVbcvbNMZBTtr3PHAU07lEXEMOTmYtJk90BTo4Jg9g5646loBHmZ6yP4
bGC4Qjzjh91ee7P5SGIrWy1Byzm4HD0/XNllCVpVW7b5AohVAD+W2xoM8UaWFCkO
kp9Ws9gLzFegrt/dN/LTAZ63Gr1+h4JjNlZxkc0ujYuSPpR3zTg15huJl1ZrET8N
RA3qXExLbrR++TRS/VY0TyY+vRrakbgMZg0qxTkeCmqt4423QkYxgoGCJ1C3I1jq
CsyPD3luzG45xWT8gtBpPpaV6bONqu3R4G366/AoFhjjiQJ+3QUSDVuD4E49I9CV
kNO+ITgbB2A2QaKX8qfL5OOyNvwrt2K4ZlpiNbnr9Tp05FMTa3LkII1GhvSEcqO6
wwIDAQABo4IBYzCCAV8wCQYDVR0TBAIwADAtBglghkgBhvhCAQ0EIBYeRWFzeS1S
U0EgR2VuZXJhdGVkIENlcnRpZmljYXRlMB0GA1UdDgQWBBRovZeCJZMLCt5n5Yz/
Cip85KARPTCB4QYDVR0jBIHZMIHWgBQSzWAE0qCAnnDtxpm4eyzGUv0ZoaGBsqSB
rzCBrDELMAkGA1UEBhMCVVMxCzAJBgNVBAgTAk9IMREwDwYDVQQHEwhDb2x1bWJ1
czESMBAGA1UEChMJVmlraW5nVlBOMR0wGwYDVQQLExRNeU9yZ2FuaXphdGlvbmFs
VW5pdDEVMBMGA1UEAxMMVmlraW5nVlBOIENBMRAwDgYDVQQpEwdFYXN5UlNBMSEw
HwYJKoZIhvcNAQkBFhJtZUBteWhvc3QubXlkb21haW6CCQDPNYXugL8qPjATBgNV
HSUEDDAKBggrBgEFBQcDAjALBgNVHQ8EBAMCB4AwDQYJKoZIhvcNAQELBQADggIB
AGerzEyEuNNuc6p/tAESb1VZpi6CoT25EwFbB29LQ4VUp0i4hpwaosWWmCS1so2J
RixQWdLuyeCfHugj7Q7N3hZDTbAayvgd6eAG1IJ6AkihFitvhy+tRqTh/SmHQCgk
1U3ZYU7e0UaIyeDBWiwBuXCTFFm6GzWqoaq19zB9D7I3Xu1AqsIPBvg0ub2TfP2q
oh8CEC412jiGepWWhvqkGcMzw84eE4tACGUAD+5uHO8sjZH38NXiK+bJ0gyztCsr
WJdoSotDU1fZAA86UhYW/AmP0gxekWrxqoyUKEB029UhDKpjYdSr1GabV9y+KpUx
hIf5CNKraTDOC1HWDnOjLw+gYdoCYun0xpvmJKsrtLi1Ubisv4A/AmCvkLxmA37q
CJLPtscnRXxipOxm04ZI/nBT9HD5PUwfAUDyS4uzaEgwheej/rbNj4Q7vUTlqp2n
QKSv+x8SeFag497AsyACNq3YguwtfOr+beiqQp9V4ITg9hSRwfv9S61nQrMJPDys
sAPi/29nUdHZNcuGBgxm5+YE8HDyR6V4wVy7Na+K6g5Yv4MscV+/GhxvKiVJQVU3
5wmP66lvOEovhUdyPMoDtSvdt5exUT52j2CrIhhaizYpLg5oZ+ThaMv5NaAn3i6t
DG5VE72zWwI4EgB5uvxHRWnW9iX0M2G35uUkhVpm4L9s
-----END CERTIFICATE-----
