Certificate:
    Data:
        Version: 3 (0x2)
        Serial Number: 10865 (0x2a71)
    Signature Algorithm: sha256WithRSAEncryption
        Issuer: C=US, ST=OH, L=Columbus, O=VikingVPN, OU=MyOrganizationalUnit, CN=VikingVPN CA/name=EasyRSA/emailAddress=me@myhost.mydomain
        Validity
            Not Before: May  3 17:18:06 2017 GMT
            Not After : May  1 17:18:06 2027 GMT
        Subject: CN=Client2895Certf6269f
        Subject Public Key Info:
            Public Key Algorithm: rsaEncryption
                Public-Key: (4096 bit)
                Modulus:
                    00:d3:9d:ad:ec:6a:aa:c6:18:a4:8b:43:06:d8:b6:
                    f2:96:d0:0f:de:4d:31:5b:fb:76:74:c7:5b:66:06:
                    70:90:f7:a1:3c:7a:63:25:c3:2f:ec:f1:b5:39:3f:
                    bf:c4:7d:ae:84:a0:a8:26:d1:5f:fc:9d:d2:ee:19:
                    ee:46:bf:88:9d:13:34:7a:fa:91:8d:09:1b:8d:aa:
                    04:55:02:c7:f5:71:00:8a:92:57:26:81:17:bf:fb:
                    66:3e:ed:4a:ea:4e:f0:67:5f:e6:42:89:16:c9:48:
                    93:0b:1a:a1:b6:ff:fe:e7:b4:44:0e:6c:90:a1:46:
                    f5:09:c5:f7:f5:fe:11:c2:01:1f:cc:34:4b:48:3c:
                    e9:25:99:35:c8:e3:65:11:d4:8d:3e:6c:11:bb:f8:
                    0e:c6:25:00:f9:7e:ac:f0:62:40:a2:79:f4:a9:b6:
                    57:38:c9:99:b9:09:b1:82:04:93:0d:99:7e:48:1a:
                    6b:61:36:3f:5b:12:d0:42:80:cb:6f:12:5f:7f:1e:
                    73:15:1e:85:fd:d2:fe:e3:c6:60:55:31:a4:53:fd:
                    44:d8:3e:22:56:13:56:20:6b:f1:32:4a:62:38:d5:
                    df:51:52:ee:07:35:40:84:fb:e5:c5:1e:10:e5:94:
                    6a:6d:43:86:03:b8:1f:75:54:11:fb:9f:78:78:8e:
                    c6:4e:5d:97:c2:b2:c3:94:a0:29:d6:1e:ac:4f:0a:
                    5b:ed:58:3e:39:84:8e:ec:ea:30:f9:75:12:fe:b6:
                    c7:46:6b:3a:41:9d:e3:3d:25:d7:43:f9:d8:79:41:
                    ba:8f:b3:59:f9:0d:7a:e6:2c:ea:05:02:bc:b5:4e:
                    ee:07:40:79:d9:eb:a6:94:bf:3e:22:a5:b2:9a:00:
                    2d:61:5a:5b:13:bf:db:f3:df:98:df:1a:a1:7f:68:
                    55:b7:de:f6:f8:a0:03:98:5e:58:18:b2:28:64:ee:
                    dc:14:51:e4:10:b8:0f:4e:b4:e9:ab:77:d9:77:08:
                    62:12:c7:8d:16:1a:2e:29:c7:0f:32:cf:56:ac:d7:
                    31:5f:62:c8:52:5a:6b:27:df:04:0b:e8:ef:a4:73:
                    f2:55:c5:8b:37:d6:00:52:39:08:fd:c4:5a:43:e2:
                    6a:eb:91:31:ee:a0:05:f7:b0:56:3f:f7:50:f1:3e:
                    fc:33:54:bd:1b:ea:bf:0d:37:38:6c:1b:f0:22:25:
                    60:85:da:4a:cc:28:97:79:4e:76:73:fd:69:a6:8f:
                    c9:84:47:c3:4b:a9:13:8e:79:2c:26:0f:05:51:87:
                    39:24:2e:ee:76:81:e3:7f:a5:d8:e2:bc:74:b9:34:
                    e6:37:57:87:d3:a3:85:05:bc:65:33:c2:e9:78:b1:
                    c5:a4:75
                Exponent: 65537 (0x10001)
        X509v3 extensions:
            X509v3 Basic Constraints: 
                CA:FALSE
            Netscape Comment: 
                Easy-RSA Generated Certificate
            X509v3 Subject Key Identifier: 
                E6:45:D3:2F:25:81:4D:21:87:A3:98:1E:1D:42:7E:F5:23:CF:6E:19
            X509v3 Authority Key Identifier: 
                keyid:12:CD:60:04:D2:A0:80:9E:70:ED:C6:99:B8:7B:2C:C6:52:FD:19:A1
                DirName:/C=US/ST=OH/L=Columbus/O=VikingVPN/OU=MyOrganizationalUnit/CN=VikingVPN CA/name=EasyRSA/emailAddress=me@myhost.mydomain
                serial:CF:35:85:EE:80:BF:2A:3E

            X509v3 Extended Key Usage: 
                TLS Web Client Authentication
            X509v3 Key Usage: 
                Digital Signature
    Signature Algorithm: sha256WithRSAEncryption
         00:1c:4b:6b:7d:17:f5:c0:a0:4c:41:6d:24:5b:1c:06:93:1e:
         63:b7:48:8d:42:8f:9c:15:84:c5:1f:ed:c2:a5:8d:73:87:1f:
         0b:42:54:12:61:7c:7c:15:39:67:2f:9c:6c:42:3a:c9:26:58:
         26:7f:92:03:61:bc:84:5d:2b:7c:0b:cf:9f:2a:1a:e1:d3:b5:
         1c:a4:68:53:ab:ae:8a:73:d6:15:31:13:f9:f0:bd:2b:f7:6a:
         c8:9e:19:68:59:30:2e:8e:58:57:aa:55:3a:f8:cf:07:f1:e2:
         86:db:40:4b:48:54:07:28:2d:e2:58:31:c0:cb:ad:bb:60:d2:
         0d:aa:ab:92:05:59:4c:f9:69:f1:07:f0:34:80:18:a8:7b:81:
         30:9f:d8:5f:b2:67:4d:48:eb:0b:e0:59:57:ae:cc:57:37:4e:
         83:44:5a:ac:b3:05:7d:28:16:a7:41:58:02:04:20:82:69:a5:
         7a:a8:a0:7e:f0:06:cf:01:23:bb:af:d0:85:b2:fc:f4:40:d8:
         de:e3:bc:49:64:fb:65:14:f1:a4:00:d9:dc:3a:7a:74:44:95:
         93:d9:11:3c:3c:03:d0:b0:69:37:c5:19:3e:55:39:56:e9:60:
         08:b0:28:d3:82:2d:06:88:d7:54:89:28:c4:90:c2:a0:e9:66:
         14:5a:b3:3f:ab:aa:f0:0a:0f:47:f7:61:35:16:91:3f:c8:01:
         fb:f9:2a:4d:9a:4d:fa:2d:be:f8:5a:62:34:dc:84:50:df:bb:
         03:3a:9c:c8:bb:ed:57:a5:85:e5:e9:17:06:fe:08:b3:d2:65:
         5d:85:71:40:55:0b:56:9a:47:9a:c1:58:b8:ec:05:b5:c4:8b:
         06:60:ac:08:69:d4:b5:59:83:7c:a7:a5:b7:e1:55:22:85:26:
         53:cc:18:7e:c2:53:f8:c4:2e:98:97:6e:ac:aa:19:1e:b7:fc:
         97:6c:db:db:61:19:c6:4c:2f:98:a5:ff:05:a3:46:35:3e:23:
         46:a9:ef:f2:e8:2a:d7:3d:d2:7d:44:ee:f8:0e:52:73:0a:ed:
         86:d0:da:5d:2c:70:6c:39:db:5d:ad:18:0a:6f:71:d2:cb:36:
         f9:b5:15:f7:f4:56:f9:2e:3c:1d:ec:c7:42:1f:d2:51:4f:8a:
         7c:8c:4b:f4:44:8d:5b:4f:07:a0:4d:69:77:c6:54:6b:0f:31:
         dc:a5:c2:9b:ec:2c:60:63:38:fb:44:bb:67:2b:c2:40:32:bf:
         16:09:bc:b1:89:fa:fb:02:9f:30:10:10:ba:4b:c7:96:20:0f:
         68:d5:7a:ca:a1:05:4f:ff:9c:56:fc:ac:19:72:19:e1:cd:d9:
         4e:6f:c7:33:05:77:69:9d
-----BEGIN CERTIFICATE-----
MIIGrTCCBJWgAwIBAgICKnEwDQYJKoZIhvcNAQELBQAwgawxCzAJBgNVBAYTAlVT
MQswCQYDVQQIEwJPSDERMA8GA1UEBxMIQ29sdW1idXMxEjAQBgNVBAoTCVZpa2lu
Z1ZQTjEdMBsGA1UECxMUTXlPcmdhbml6YXRpb25hbFVuaXQxFTATBgNVBAMTDFZp
a2luZ1ZQTiBDQTEQMA4GA1UEKRMHRWFzeVJTQTEhMB8GCSqGSIb3DQEJARYSbWVA
bXlob3N0Lm15ZG9tYWluMB4XDTE3MDUwMzE3MTgwNloXDTI3MDUwMTE3MTgwNlow
HzEdMBsGA1UEAxMUQ2xpZW50Mjg5NUNlcnRmNjI2OWYwggIiMA0GCSqGSIb3DQEB
AQUAA4ICDwAwggIKAoICAQDTna3saqrGGKSLQwbYtvKW0A/eTTFb+3Z0x1tmBnCQ
96E8emMlwy/s8bU5P7/Efa6EoKgm0V/8ndLuGe5Gv4idEzR6+pGNCRuNqgRVAsf1
cQCKklcmgRe/+2Y+7UrqTvBnX+ZCiRbJSJMLGqG2//7ntEQObJChRvUJxff1/hHC
AR/MNEtIPOklmTXI42UR1I0+bBG7+A7GJQD5fqzwYkCiefSptlc4yZm5CbGCBJMN
mX5IGmthNj9bEtBCgMtvEl9/HnMVHoX90v7jxmBVMaRT/UTYPiJWE1Yga/EySmI4
1d9RUu4HNUCE++XFHhDllGptQ4YDuB91VBH7n3h4jsZOXZfCssOUoCnWHqxPClvt
WD45hI7s6jD5dRL+tsdGazpBneM9JddD+dh5QbqPs1n5DXrmLOoFAry1Tu4HQHnZ
66aUvz4ipbKaAC1hWlsTv9vz35jfGqF/aFW33vb4oAOYXlgYsihk7twUUeQQuA9O
tOmrd9l3CGISx40WGi4pxw8yz1as1zFfYshSWmsn3wQL6O+kc/JVxYs31gBSOQj9
xFpD4mrrkTHuoAX3sFY/91DxPvwzVL0b6r8NNzhsG/AiJWCF2krMKJd5TnZz/Wmm
j8mER8NLqROOeSwmDwVRhzkkLu52geN/pdjivHS5NOY3V4fTo4UFvGUzwul4scWk
dQIDAQABo4IBYzCCAV8wCQYDVR0TBAIwADAtBglghkgBhvhCAQ0EIBYeRWFzeS1S
U0EgR2VuZXJhdGVkIENlcnRpZmljYXRlMB0GA1UdDgQWBBTmRdMvJYFNIYejmB4d
Qn71I89uGTCB4QYDVR0jBIHZMIHWgBQSzWAE0qCAnnDtxpm4eyzGUv0ZoaGBsqSB
rzCBrDELMAkGA1UEBhMCVVMxCzAJBgNVBAgTAk9IMREwDwYDVQQHEwhDb2x1bWJ1
czESMBAGA1UEChMJVmlraW5nVlBOMR0wGwYDVQQLExRNeU9yZ2FuaXphdGlvbmFs
VW5pdDEVMBMGA1UEAxMMVmlraW5nVlBOIENBMRAwDgYDVQQpEwdFYXN5UlNBMSEw
HwYJKoZIhvcNAQkBFhJtZUBteWhvc3QubXlkb21haW6CCQDPNYXugL8qPjATBgNV
HSUEDDAKBggrBgEFBQcDAjALBgNVHQ8EBAMCB4AwDQYJKoZIhvcNAQELBQADggIB
AAAcS2t9F/XAoExBbSRbHAaTHmO3SI1Cj5wVhMUf7cKljXOHHwtCVBJhfHwVOWcv
nGxCOskmWCZ/kgNhvIRdK3wLz58qGuHTtRykaFOrropz1hUxE/nwvSv3asieGWhZ
MC6OWFeqVTr4zwfx4obbQEtIVAcoLeJYMcDLrbtg0g2qq5IFWUz5afEH8DSAGKh7
gTCf2F+yZ01I6wvgWVeuzFc3ToNEWqyzBX0oFqdBWAIEIIJppXqooH7wBs8BI7uv
0IWy/PRA2N7jvElk+2UU8aQA2dw6enRElZPZETw8A9CwaTfFGT5VOVbpYAiwKNOC
LQaI11SJKMSQwqDpZhRasz+rqvAKD0f3YTUWkT/IAfv5Kk2aTfotvvhaYjTchFDf
uwM6nMi77VelheXpFwb+CLPSZV2FcUBVC1aaR5rBWLjsBbXEiwZgrAhp1LVZg3yn
pbfhVSKFJlPMGH7CU/jELpiXbqyqGR63/Jds29thGcZML5il/wWjRjU+I0ap7/Lo
Ktc90n1E7vgOUnMK7YbQ2l0scGw5212tGApvcdLLNvm1Fff0VvkuPB3sx0If0lFP
inyMS/REjVtPB6BNaXfGVGsPMdylwpvsLGBjOPtEu2crwkAyvxYJvLGJ+vsCnzAQ
ELpLx5YgD2jVesqhBU//nFb8rBlyGeHN2U5vxzMFd2md
-----END CERTIFICATE-----
