Certificate:
    Data:
        Version: 3 (0x2)
        Serial Number: 10874 (0x2a7a)
    Signature Algorithm: sha256WithRSAEncryption
        Issuer: C=US, ST=OH, L=Columbus, O=VikingVPN, OU=MyOrganizationalUnit, CN=VikingVPN CA/name=EasyRSA/emailAddress=me@myhost.mydomain
        Validity
            Not Before: May  4 11:57:41 2017 GMT
            Not After : May  2 11:57:41 2027 GMT
        Subject: CN=Client604Certfbe217
        Subject Public Key Info:
            Public Key Algorithm: rsaEncryption
                Public-Key: (4096 bit)
                Modulus:
                    00:db:68:53:33:e8:55:1c:ad:0d:97:4c:84:0a:e2:
                    eb:d7:dd:4f:d0:52:fc:4b:ea:4c:f0:a4:7e:82:7f:
                    11:91:b6:f0:5e:ef:17:bd:e4:c7:bf:0a:1e:44:09:
                    6e:d4:c1:c7:3d:b7:5c:f0:81:24:3a:3e:0a:84:f2:
                    29:e4:32:2b:38:c1:e3:25:8f:1a:d7:6d:f2:da:e2:
                    4f:2b:88:7b:b7:96:43:d6:21:67:85:e5:48:0d:7d:
                    d5:94:08:82:16:cf:a1:27:08:50:14:e3:82:11:53:
                    25:5b:0e:59:67:ae:3d:61:25:b4:67:0e:f4:d8:6a:
                    d2:ab:37:dc:29:d0:70:a3:f3:94:bf:89:72:b9:a5:
                    fa:5b:3b:be:cf:39:53:4b:28:79:c2:c9:af:58:f3:
                    5c:7d:5e:53:4b:84:c1:f3:7f:8f:77:5b:16:57:54:
                    52:3e:41:6b:ed:43:d9:85:cb:f3:cd:b1:99:59:40:
                    f3:77:20:99:24:db:de:27:0b:a8:5b:ab:d7:da:c7:
                    b4:95:eb:9f:e0:23:22:f7:c0:6a:7e:e9:aa:13:db:
                    8d:ff:68:2c:3c:c2:db:2c:aa:c0:60:62:b8:e0:35:
                    70:c9:38:af:0c:20:8c:9e:ce:7c:2f:de:88:c4:ee:
                    4f:e0:95:d9:ed:8f:9e:04:67:b7:6b:6b:bb:23:7d:
                    ad:9d:10:96:7f:ed:94:56:ab:d7:ab:aa:d5:0c:44:
                    06:67:bc:cc:4a:a4:f5:2f:8d:f3:0c:a8:82:46:54:
                    a0:ae:90:dd:7b:9f:60:08:64:4b:26:ac:92:08:1a:
                    46:93:c4:e2:24:45:23:19:3e:dd:d4:49:32:86:37:
                    c8:81:ac:6b:99:f1:23:9a:62:38:16:49:21:9e:7c:
                    a1:70:33:5a:17:11:12:f3:4f:38:a5:6b:fa:63:65:
                    45:5b:74:bb:b4:ce:c4:8d:a8:d1:72:22:a9:cd:87:
                    65:1b:f1:4c:b9:e3:4d:2f:7c:37:d3:14:f3:0b:d8:
                    0c:ec:0d:54:9c:5a:57:a9:7f:df:f3:b1:7c:77:df:
                    b2:c6:1c:17:f4:8e:1e:a0:45:a5:2b:89:ce:ea:21:
                    c7:2e:13:13:31:be:24:02:e8:02:80:5d:d2:82:3d:
                    d0:00:8f:d1:eb:23:89:4c:46:92:a9:f7:f5:d2:cb:
                    dc:01:7b:68:08:74:83:ff:d2:97:6f:33:7c:25:25:
                    73:3b:93:4e:49:d5:d5:f6:e6:47:37:ef:f4:fb:c6:
                    1e:72:aa:9f:9d:6f:c9:42:f2:f5:5b:c2:29:5e:14:
                    6e:be:17:9b:c8:08:0d:ee:b9:d5:c7:2a:86:56:f5:
                    f7:cc:fa:51:76:71:88:fc:22:c4:6d:34:7b:bd:4f:
                    71:a2:35
                Exponent: 65537 (0x10001)
        X509v3 extensions:
            X509v3 Basic Constraints: 
                CA:FALSE
            Netscape Comment: 
                Easy-RSA Generated Certificate
            X509v3 Subject Key Identifier: 
                95:E1:0A:AC:79:E4:35:5E:41:8B:A5:F1:88:F9:7C:6D:B6:4E:EB:3B
            X509v3 Authority Key Identifier: 
                keyid:12:CD:60:04:D2:A0:80:9E:70:ED:C6:99:B8:7B:2C:C6:52:FD:19:A1
                DirName:/C=US/ST=OH/L=Columbus/O=VikingVPN/OU=MyOrganizationalUnit/CN=VikingVPN CA/name=EasyRSA/emailAddress=me@myhost.mydomain
                serial:CF:35:85:EE:80:BF:2A:3E

            X509v3 Extended Key Usage: 
                TLS Web Client Authentication
            X509v3 Key Usage: 
                Digital Signature
    Signature Algorithm: sha256WithRSAEncryption
         87:48:1b:12:03:26:48:60:62:96:ed:14:6c:da:f0:4b:75:c2:
         f7:21:e6:43:cd:e9:39:55:5d:62:7b:74:8d:eb:d2:30:00:96:
         47:fd:13:07:27:14:1f:81:f1:12:1c:32:77:85:bc:47:0e:74:
         cf:1d:b1:b4:01:a6:d2:a9:05:95:0b:08:7b:d2:8b:66:3d:97:
         a6:c5:2b:28:f0:f9:09:b0:07:f7:da:46:22:1f:74:71:c0:27:
         7f:cc:35:4a:05:d4:47:a1:d1:fb:e0:58:c6:32:92:6b:44:7e:
         ca:b9:a3:f5:4d:e1:2e:07:e4:5b:40:74:43:b5:1c:d1:ab:4d:
         57:25:79:b3:5c:a6:9b:96:68:2b:5c:93:05:04:a0:69:5b:dc:
         f1:95:22:34:25:35:6d:83:92:d2:a7:4e:ff:2a:00:16:ec:76:
         a5:11:23:ab:cc:91:41:a8:ff:9a:ec:c3:b8:a1:c5:f0:94:26:
         73:c6:f5:a1:ad:85:95:f4:be:36:42:c2:ef:0d:2b:6e:3a:4f:
         11:50:c7:43:b8:db:2a:0c:32:64:3b:fb:65:4a:15:6d:3c:42:
         12:1a:58:43:75:07:b0:78:dd:0c:3f:96:92:fd:77:5b:fc:4a:
         09:d9:25:7a:76:99:5c:8d:87:31:ce:a3:58:7b:87:19:81:40:
         84:d0:79:5c:fb:1d:c7:cd:00:f9:8b:1a:b2:9d:8d:a5:63:12:
         75:e4:03:02:21:79:f7:a3:41:95:d7:aa:8f:09:00:4e:0e:4b:
         ec:53:c5:0b:11:ce:1d:73:e3:23:3f:3b:d8:48:be:36:3d:d0:
         f5:5e:e6:30:1b:94:d0:e1:b9:1f:30:88:50:9d:f2:00:eb:c2:
         ae:ae:20:06:1c:82:90:34:60:ed:4c:0c:76:17:6a:25:c8:33:
         70:cd:83:5e:ea:8c:db:21:36:18:7e:5e:70:c7:64:50:5c:0c:
         41:5a:0e:cf:b4:9b:21:5e:58:bc:01:67:52:75:77:45:19:5a:
         e4:be:de:41:15:aa:54:48:ca:d1:37:ca:61:4e:8e:14:26:72:
         e4:b8:a7:ea:68:fc:4b:08:bf:0c:70:51:49:07:1a:66:c2:11:
         20:2a:1d:77:d4:d0:da:a8:22:87:13:13:d1:26:52:b3:ce:4f:
         55:62:f0:2a:a2:3d:8a:97:7d:36:5c:07:5a:fb:a9:b9:08:18:
         5e:bc:5e:f3:e1:31:c5:f6:83:08:03:d7:60:69:59:9a:e6:68:
         02:4b:61:5f:85:7c:f2:84:f8:f4:a8:66:5e:af:08:88:62:c5:
         2b:e9:e0:c5:e8:db:99:01:ea:80:71:14:5f:a0:55:30:a3:16:
         a6:18:91:1e:ef:d1:7f:26
-----BEGIN CERTIFICATE-----
MIIGrDCCBJSgAwIBAgICKnowDQYJKoZIhvcNAQELBQAwgawxCzAJBgNVBAYTAlVT
MQswCQYDVQQIEwJPSDERMA8GA1UEBxMIQ29sdW1idXMxEjAQBgNVBAoTCVZpa2lu
Z1ZQTjEdMBsGA1UECxMUTXlPcmdhbml6YXRpb25hbFVuaXQxFTATBgNVBAMTDFZp
a2luZ1ZQTiBDQTEQMA4GA1UEKRMHRWFzeVJTQTEhMB8GCSqGSIb3DQEJARYSbWVA
bXlob3N0Lm15ZG9tYWluMB4XDTE3MDUwNDExNTc0MVoXDTI3MDUwMjExNTc0MVow
HjEcMBoGA1UEAxMTQ2xpZW50NjA0Q2VydGZiZTIxNzCCAiIwDQYJKoZIhvcNAQEB
BQADggIPADCCAgoCggIBANtoUzPoVRytDZdMhAri69fdT9BS/EvqTPCkfoJ/EZG2
8F7vF73kx78KHkQJbtTBxz23XPCBJDo+CoTyKeQyKzjB4yWPGtdt8triTyuIe7eW
Q9YhZ4XlSA191ZQIghbPoScIUBTjghFTJVsOWWeuPWEltGcO9Nhq0qs33CnQcKPz
lL+Jcrml+ls7vs85U0soecLJr1jzXH1eU0uEwfN/j3dbFldUUj5Ba+1D2YXL882x
mVlA83cgmSTb3icLqFur19rHtJXrn+AjIvfAan7pqhPbjf9oLDzC2yyqwGBiuOA1
cMk4rwwgjJ7OfC/eiMTuT+CV2e2PngRnt2truyN9rZ0Qln/tlFar16uq1QxEBme8
zEqk9S+N8wyogkZUoK6Q3XufYAhkSyaskggaRpPE4iRFIxk+3dRJMoY3yIGsa5nx
I5piOBZJIZ58oXAzWhcREvNPOKVr+mNlRVt0u7TOxI2o0XIiqc2HZRvxTLnjTS98
N9MU8wvYDOwNVJxaV6l/3/OxfHffssYcF/SOHqBFpSuJzuohxy4TEzG+JALoAoBd
0oI90ACP0esjiUxGkqn39dLL3AF7aAh0g//Sl28zfCUlczuTTknV1fbmRzfv9PvG
HnKqn51vyULy9VvCKV4Ubr4Xm8gIDe651ccqhlb198z6UXZxiPwixG00e71PcaI1
AgMBAAGjggFjMIIBXzAJBgNVHRMEAjAAMC0GCWCGSAGG+EIBDQQgFh5FYXN5LVJT
QSBHZW5lcmF0ZWQgQ2VydGlmaWNhdGUwHQYDVR0OBBYEFJXhCqx55DVeQYul8Yj5
fG22Tus7MIHhBgNVHSMEgdkwgdaAFBLNYATSoICecO3Gmbh7LMZS/RmhoYGypIGv
MIGsMQswCQYDVQQGEwJVUzELMAkGA1UECBMCT0gxETAPBgNVBAcTCENvbHVtYnVz
MRIwEAYDVQQKEwlWaWtpbmdWUE4xHTAbBgNVBAsTFE15T3JnYW5pemF0aW9uYWxV
bml0MRUwEwYDVQQDEwxWaWtpbmdWUE4gQ0ExEDAOBgNVBCkTB0Vhc3lSU0ExITAf
BgkqhkiG9w0BCQEWEm1lQG15aG9zdC5teWRvbWFpboIJAM81he6Avyo+MBMGA1Ud
JQQMMAoGCCsGAQUFBwMCMAsGA1UdDwQEAwIHgDANBgkqhkiG9w0BAQsFAAOCAgEA
h0gbEgMmSGBilu0UbNrwS3XC9yHmQ83pOVVdYnt0jevSMACWR/0TBycUH4HxEhwy
d4W8Rw50zx2xtAGm0qkFlQsIe9KLZj2XpsUrKPD5CbAH99pGIh90ccAnf8w1SgXU
R6HR++BYxjKSa0R+yrmj9U3hLgfkW0B0Q7Uc0atNVyV5s1ymm5ZoK1yTBQSgaVvc
8ZUiNCU1bYOS0qdO/yoAFux2pREjq8yRQaj/muzDuKHF8JQmc8b1oa2FlfS+NkLC
7w0rbjpPEVDHQ7jbKgwyZDv7ZUoVbTxCEhpYQ3UHsHjdDD+Wkv13W/xKCdklenaZ
XI2HMc6jWHuHGYFAhNB5XPsdx80A+Ysasp2NpWMSdeQDAiF596NBldeqjwkATg5L
7FPFCxHOHXPjIz872Ei+Nj3Q9V7mMBuU0OG5HzCIUJ3yAOvCrq4gBhyCkDRg7UwM
dhdqJcgzcM2DXuqM2yE2GH5ecMdkUFwMQVoOz7SbIV5YvAFnUnV3RRla5L7eQRWq
VEjK0TfKYU6OFCZy5Lin6mj8Swi/DHBRSQcaZsIRICodd9TQ2qgihxMT0SZSs85P
VWLwKqI9ipd9NlwHWvupuQgYXrxe8+ExxfaDCAPXYGlZmuZoAkthX4V88oT49Khm
Xq8IiGLFK+ngxejbmQHqgHEUX6BVMKMWphiRHu/RfyY=
-----END CERTIFICATE-----
