Certificate:
    Data:
        Version: 3 (0x2)
        Serial Number: 10876 (0x2a7c)
    Signature Algorithm: sha256WithRSAEncryption
        Issuer: C=US, ST=OH, L=Columbus, O=VikingVPN, OU=MyOrganizationalUnit, CN=VikingVPN CA/name=EasyRSA/emailAddress=me@myhost.mydomain
        Validity
            Not Before: May  4 15:09:06 2017 GMT
            Not After : May  2 15:09:06 2027 GMT
        Subject: CN=Client1702Cert0d93ad
        Subject Public Key Info:
            Public Key Algorithm: rsaEncryption
                Public-Key: (4096 bit)
                Modulus:
                    00:cd:77:67:44:11:7d:d5:20:ad:16:85:ad:dd:57:
                    15:1f:1f:6a:1f:85:e7:fc:cd:84:dd:ba:24:1b:7a:
                    ca:4f:c6:74:62:fd:11:16:31:a8:88:67:7e:2f:fb:
                    b7:cb:09:07:32:dc:89:84:2b:30:e1:76:dc:46:a1:
                    ca:1a:2d:8e:6d:a5:67:c8:3f:be:e7:98:da:5c:be:
                    0f:d7:c6:26:82:96:d1:a2:db:70:7d:46:95:e6:b2:
                    94:e2:4e:9f:bc:a4:c2:6e:24:ae:f4:67:91:e3:69:
                    f9:55:40:62:f0:97:e1:9f:e3:b4:a2:11:ae:21:e7:
                    85:60:24:53:1c:bd:9b:32:0e:15:d9:2c:de:d3:a4:
                    7c:fe:19:ca:34:bd:35:d9:2f:40:82:50:8b:6d:ec:
                    dd:3e:c3:68:90:48:d7:7f:eb:f7:11:b8:0b:45:80:
                    2f:ab:73:08:b6:d7:89:0b:77:d4:a4:87:1c:de:f5:
                    c6:1b:79:82:3d:d4:e4:05:99:13:8a:70:69:dc:56:
                    06:75:64:1a:6c:e4:10:2b:ee:fc:ad:c5:6d:6e:1c:
                    db:ec:87:6e:75:11:2c:bd:19:fc:01:03:df:2c:f3:
                    20:7c:02:94:19:cb:bd:f9:65:1b:aa:5a:ae:28:a5:
                    81:16:9f:2d:51:5e:c0:7d:b2:f9:cc:32:d7:96:b6:
                    10:16:44:d1:71:12:f5:42:94:f6:44:f3:78:38:da:
                    d0:dd:81:ee:39:5c:ac:56:9f:a7:fb:29:95:7b:2b:
                    16:f5:70:1c:70:26:cf:39:68:3e:27:b6:db:83:f8:
                    0c:1d:10:8e:ce:57:db:30:a5:be:ee:69:4e:ef:5d:
                    a5:4f:11:3c:84:c1:a9:7e:cf:fb:fb:ba:7a:50:29:
                    24:a2:2a:62:70:5a:98:86:2b:d7:f4:38:29:d6:ff:
                    e1:9b:fe:ce:c8:5b:8f:81:4c:2e:8d:0a:ae:80:72:
                    e9:d7:55:36:51:c5:06:14:2d:66:3f:f8:38:f3:bf:
                    f5:b6:0f:be:fd:ff:8e:99:24:c7:39:17:86:ed:68:
                    b1:03:6c:d9:34:d4:dd:ca:6c:21:40:86:22:f3:8f:
                    03:1e:a3:64:5a:3e:96:e3:43:fe:51:23:6d:db:74:
                    99:fc:01:62:cd:4e:73:68:04:16:3c:cf:46:1e:63:
                    4f:de:54:f6:0b:d1:73:7f:e8:ad:89:35:60:ce:19:
                    46:17:a9:bf:ee:17:97:84:fb:5f:21:9d:af:10:02:
                    9f:06:d6:94:56:d6:78:0d:7d:8c:ac:4f:9f:b3:a3:
                    a8:ed:48:68:dc:62:5b:5d:ad:83:cf:d8:9f:05:a4:
                    d5:05:25:dc:4e:4a:35:53:0e:89:ca:0d:1a:33:18:
                    42:9c:4d
                Exponent: 65537 (0x10001)
        X509v3 extensions:
            X509v3 Basic Constraints: 
                CA:FALSE
            Netscape Comment: 
                Easy-RSA Generated Certificate
            X509v3 Subject Key Identifier: 
                FD:16:47:87:A5:F7:0E:21:90:25:F7:28:49:C5:54:A0:94:7B:9E:8C
            X509v3 Authority Key Identifier: 
                keyid:12:CD:60:04:D2:A0:80:9E:70:ED:C6:99:B8:7B:2C:C6:52:FD:19:A1
                DirName:/C=US/ST=OH/L=Columbus/O=VikingVPN/OU=MyOrganizationalUnit/CN=VikingVPN CA/name=EasyRSA/emailAddress=me@myhost.mydomain
                serial:CF:35:85:EE:80:BF:2A:3E

            X509v3 Extended Key Usage: 
                TLS Web Client Authentication
            X509v3 Key Usage: 
                Digital Signature
    Signature Algorithm: sha256WithRSAEncryption
         41:8d:85:51:78:94:8f:ac:10:7c:9c:73:e8:14:bf:38:9d:ac:
         57:6b:18:d1:42:5a:9f:68:eb:1d:9c:9c:f6:b3:ff:b8:94:8f:
         1a:f2:27:c9:79:af:3b:fa:79:4a:84:2b:b7:ce:fd:56:5c:b3:
         9c:29:fd:be:6d:a7:d8:d2:59:d5:80:c4:7e:6c:2e:1c:8c:92:
         36:3b:a3:c8:86:47:9b:dc:a0:93:f2:8e:7a:05:22:66:cb:37:
         ea:d3:d5:80:63:02:a3:39:8d:91:43:ca:ca:fb:ec:99:bd:18:
         4a:37:03:65:d7:6d:03:c3:a4:26:e7:61:eb:d5:08:3d:7e:6c:
         9a:a0:a1:86:27:da:b3:8e:c5:b7:d7:20:5a:2f:0d:f7:77:4a:
         c5:3c:77:5e:81:57:47:23:72:f9:70:eb:6a:92:2d:3e:38:11:
         f0:f9:7f:9b:5c:eb:77:ea:2d:af:01:eb:ab:a7:b1:ca:fb:ac:
         83:d0:c6:9a:d4:db:46:93:56:12:95:eb:0a:4b:ba:e6:81:c0:
         05:31:54:21:10:0f:7b:62:37:ad:3a:2a:5c:0a:e4:cc:ee:d6:
         52:db:10:16:b2:6f:9a:1e:13:e3:6e:df:54:4f:56:80:22:c6:
         23:98:d0:e3:61:66:bd:ce:c9:28:d8:d0:fd:43:ff:df:da:49:
         ef:6b:fd:93:cd:41:9b:6c:c9:fb:2f:05:c3:26:26:2e:9f:4b:
         a2:6c:de:54:f9:a1:2a:38:6b:64:e8:a2:47:d3:33:37:32:59:
         a0:73:78:3d:32:64:9c:37:55:cc:70:d3:82:ef:93:5b:8b:4c:
         c3:b5:44:40:00:a2:8a:a6:0c:d3:ab:04:54:98:67:6e:e2:67:
         32:f9:31:ef:2b:38:64:07:2d:32:92:9a:6b:65:44:12:38:c9:
         a9:15:68:d9:0e:f2:f5:c5:f8:3d:35:0f:44:3e:22:fe:95:7f:
         7f:a2:6c:d2:f5:8a:47:00:0f:a7:fd:49:d2:23:ef:e5:14:be:
         64:e0:01:09:82:f1:f3:12:11:f2:b6:3b:c1:f1:96:05:7f:47:
         e1:79:9c:77:c1:bf:de:07:68:45:de:6c:01:f4:07:fb:d7:4e:
         7a:a2:40:70:d5:d5:d8:27:06:4e:96:fa:98:6f:6f:01:d0:fd:
         de:3a:b1:38:db:f1:a7:79:46:0e:50:90:1a:76:99:2c:55:26:
         51:bf:da:88:68:14:2c:2e:cc:67:27:56:c4:16:2e:c8:87:3f:
         a7:7d:71:f5:0b:07:69:f1:a2:2c:31:9a:95:56:34:6c:e7:04:
         94:56:b2:f8:3e:dc:68:78:28:54:09:68:55:e4:0f:ff:46:6f:
         a1:78:f1:f4:3c:3f:97:30
-----BEGIN CERTIFICATE-----
MIIGrTCCBJWgAwIBAgICKnwwDQYJKoZIhvcNAQELBQAwgawxCzAJBgNVBAYTAlVT
MQswCQYDVQQIEwJPSDERMA8GA1UEBxMIQ29sdW1idXMxEjAQBgNVBAoTCVZpa2lu
Z1ZQTjEdMBsGA1UECxMUTXlPcmdhbml6YXRpb25hbFVuaXQxFTATBgNVBAMTDFZp
a2luZ1ZQTiBDQTEQMA4GA1UEKRMHRWFzeVJTQTEhMB8GCSqGSIb3DQEJARYSbWVA
bXlob3N0Lm15ZG9tYWluMB4XDTE3MDUwNDE1MDkwNloXDTI3MDUwMjE1MDkwNlow
HzEdMBsGA1UEAxMUQ2xpZW50MTcwMkNlcnQwZDkzYWQwggIiMA0GCSqGSIb3DQEB
AQUAA4ICDwAwggIKAoICAQDNd2dEEX3VIK0Wha3dVxUfH2ofhef8zYTduiQbespP
xnRi/REWMaiIZ34v+7fLCQcy3ImEKzDhdtxGocoaLY5tpWfIP77nmNpcvg/XxiaC
ltGi23B9RpXmspTiTp+8pMJuJK70Z5HjaflVQGLwl+Gf47SiEa4h54VgJFMcvZsy
DhXZLN7TpHz+Gco0vTXZL0CCUItt7N0+w2iQSNd/6/cRuAtFgC+rcwi214kLd9Sk
hxze9cYbeYI91OQFmROKcGncVgZ1ZBps5BAr7vytxW1uHNvsh251ESy9GfwBA98s
8yB8ApQZy735ZRuqWq4opYEWny1RXsB9svnMMteWthAWRNFxEvVClPZE83g42tDd
ge45XKxWn6f7KZV7Kxb1cBxwJs85aD4nttuD+AwdEI7OV9swpb7uaU7vXaVPETyE
wal+z/v7unpQKSSiKmJwWpiGK9f0OCnW/+Gb/s7IW4+BTC6NCq6AcunXVTZRxQYU
LWY/+Djzv/W2D779/46ZJMc5F4btaLEDbNk01N3KbCFAhiLzjwMeo2RaPpbjQ/5R
I23bdJn8AWLNTnNoBBY8z0YeY0/eVPYL0XN/6K2JNWDOGUYXqb/uF5eE+18hna8Q
Ap8G1pRW1ngNfYysT5+zo6jtSGjcYltdrYPP2J8FpNUFJdxOSjVTDonKDRozGEKc
TQIDAQABo4IBYzCCAV8wCQYDVR0TBAIwADAtBglghkgBhvhCAQ0EIBYeRWFzeS1S
U0EgR2VuZXJhdGVkIENlcnRpZmljYXRlMB0GA1UdDgQWBBT9FkeHpfcOIZAl9yhJ
xVSglHuejDCB4QYDVR0jBIHZMIHWgBQSzWAE0qCAnnDtxpm4eyzGUv0ZoaGBsqSB
rzCBrDELMAkGA1UEBhMCVVMxCzAJBgNVBAgTAk9IMREwDwYDVQQHEwhDb2x1bWJ1
czESMBAGA1UEChMJVmlraW5nVlBOMR0wGwYDVQQLExRNeU9yZ2FuaXphdGlvbmFs
VW5pdDEVMBMGA1UEAxMMVmlraW5nVlBOIENBMRAwDgYDVQQpEwdFYXN5UlNBMSEw
HwYJKoZIhvcNAQkBFhJtZUBteWhvc3QubXlkb21haW6CCQDPNYXugL8qPjATBgNV
HSUEDDAKBggrBgEFBQcDAjALBgNVHQ8EBAMCB4AwDQYJKoZIhvcNAQELBQADggIB
AEGNhVF4lI+sEHycc+gUvzidrFdrGNFCWp9o6x2cnPaz/7iUjxryJ8l5rzv6eUqE
K7fO/VZcs5wp/b5tp9jSWdWAxH5sLhyMkjY7o8iGR5vcoJPyjnoFImbLN+rT1YBj
AqM5jZFDysr77Jm9GEo3A2XXbQPDpCbnYevVCD1+bJqgoYYn2rOOxbfXIFovDfd3
SsU8d16BV0cjcvlw62qSLT44EfD5f5tc63fqLa8B66unscr7rIPQxprU20aTVhKV
6wpLuuaBwAUxVCEQD3tiN606KlwK5Mzu1lLbEBayb5oeE+Nu31RPVoAixiOY0ONh
Zr3OySjY0P1D/9/aSe9r/ZPNQZtsyfsvBcMmJi6fS6Js3lT5oSo4a2TookfTMzcy
WaBzeD0yZJw3Vcxw04Lvk1uLTMO1REAAooqmDNOrBFSYZ27iZzL5Me8rOGQHLTKS
mmtlRBI4yakVaNkO8vXF+D01D0Q+Iv6Vf3+ibNL1ikcAD6f9SdIj7+UUvmTgAQmC
8fMSEfK2O8HxlgV/R+F5nHfBv94HaEXebAH0B/vXTnqiQHDV1dgnBk6W+phvbwHQ
/d46sTjb8ad5Rg5QkBp2mSxVJlG/2ohoFCwuzGcnVsQWLsiHP6d9cfULB2nxoiwx
mpVWNGznBJRWsvg+3Gh4KFQJaFXkD/9Gb6F48fQ8P5cw
-----END CERTIFICATE-----
