Certificate:
    Data:
        Version: 3 (0x2)
        Serial Number: 10892 (0x2a8c)
    Signature Algorithm: sha256WithRSAEncryption
        Issuer: C=US, ST=OH, L=Columbus, O=VikingVPN, OU=MyOrganizationalUnit, CN=VikingVPN CA/name=EasyRSA/emailAddress=me@myhost.mydomain
        Validity
            Not Before: May  7 00:45:22 2017 GMT
            Not After : May  5 00:45:22 2027 GMT
        Subject: CN=Client2558Cert733aa6
        Subject Public Key Info:
            Public Key Algorithm: rsaEncryption
                Public-Key: (4096 bit)
                Modulus:
                    00:c6:c8:03:97:d2:2c:3c:92:29:d1:0f:a1:df:97:
                    b1:a9:12:8f:ac:08:52:50:57:6c:75:58:32:79:03:
                    62:34:12:51:fa:de:91:07:91:79:06:43:a6:c7:47:
                    32:53:9b:6f:04:ee:57:d8:90:3c:07:8f:80:eb:cf:
                    54:fa:15:21:b6:06:6b:34:a6:c7:82:b1:95:88:64:
                    28:ff:c6:de:46:0e:36:6e:be:d1:3a:e9:cc:9a:ed:
                    f3:4b:cd:05:8f:73:e8:d3:db:f2:8f:77:f6:73:ae:
                    c9:fd:f3:64:57:77:f3:7b:3f:7d:e3:21:d9:cd:e9:
                    3c:1d:fa:22:84:c6:83:be:3b:c4:8a:19:c4:0d:6b:
                    c4:84:07:33:95:00:ab:76:8e:af:99:3d:96:af:23:
                    81:5f:8e:a9:80:81:b6:69:0f:ac:3a:a7:89:e0:36:
                    5e:4e:a6:47:4f:3b:8a:c2:c7:46:ef:b1:22:62:8e:
                    6f:7d:a1:bf:da:9e:ea:40:a7:32:be:4e:d6:c3:86:
                    d6:b0:5e:27:61:8c:46:17:c5:45:73:8d:a2:93:d9:
                    2a:9e:a7:d4:fb:82:4d:4d:6c:b0:1c:6e:16:57:6b:
                    de:9e:e5:ba:ba:60:e4:22:78:2a:6a:d4:9c:07:a1:
                    64:98:79:65:81:97:e0:16:c5:85:31:e8:e6:2a:ce:
                    b2:8c:4b:b4:c8:3e:5f:38:83:6e:12:f1:a4:b5:00:
                    f9:b1:d5:13:85:38:82:66:ca:fd:c6:b0:de:70:be:
                    0b:c9:08:bb:2f:7d:d4:f3:69:27:d8:7f:4a:df:b1:
                    2e:35:db:b7:e7:13:7e:4a:43:7a:3a:e5:14:99:b9:
                    06:21:59:b9:1a:97:e8:1b:5b:fb:2f:a5:c2:85:ee:
                    eb:4d:d8:a0:27:b2:52:80:db:d0:09:95:d7:03:1b:
                    1c:2f:26:04:b9:59:33:fe:b9:1e:b3:c9:23:88:3f:
                    d1:ee:9a:51:1b:95:77:bd:c8:cc:bd:01:d0:d7:26:
                    76:bc:0e:30:bf:47:e0:e3:35:c1:fe:a1:6e:3c:91:
                    49:91:3d:0b:25:eb:7d:47:a6:3b:84:73:77:bf:e8:
                    e1:70:cc:e8:88:6a:b3:b8:59:a2:de:80:97:82:bb:
                    46:ff:c7:fd:b1:ba:29:e2:b3:d3:84:85:b7:bb:f1:
                    ce:63:4c:61:e7:4f:2e:4b:4c:eb:d9:10:13:cd:1c:
                    b5:f0:4e:e4:8d:fe:dc:67:b6:65:37:8f:ec:fd:25:
                    33:3f:34:aa:9a:16:15:7f:53:2d:50:aa:ba:7e:b7:
                    2f:d7:14:da:75:9f:f2:99:22:0b:bc:19:68:32:68:
                    c0:3c:66:6c:66:39:b0:0d:5a:d6:57:92:77:29:1e:
                    6b:cb:77
                Exponent: 65537 (0x10001)
        X509v3 extensions:
            X509v3 Basic Constraints: 
                CA:FALSE
            Netscape Comment: 
                Easy-RSA Generated Certificate
            X509v3 Subject Key Identifier: 
                10:57:CD:1B:36:B5:D7:6F:7A:45:7B:0F:E3:F0:0F:87:F1:DC:8A:A7
            X509v3 Authority Key Identifier: 
                keyid:12:CD:60:04:D2:A0:80:9E:70:ED:C6:99:B8:7B:2C:C6:52:FD:19:A1
                DirName:/C=US/ST=OH/L=Columbus/O=VikingVPN/OU=MyOrganizationalUnit/CN=VikingVPN CA/name=EasyRSA/emailAddress=me@myhost.mydomain
                serial:CF:35:85:EE:80:BF:2A:3E

            X509v3 Extended Key Usage: 
                TLS Web Client Authentication
            X509v3 Key Usage: 
                Digital Signature
    Signature Algorithm: sha256WithRSAEncryption
         73:8a:d0:0d:ac:94:29:c1:70:30:ea:05:9e:5e:5a:ee:48:ae:
         05:8a:91:98:0c:2b:35:ca:fd:fb:67:1f:2b:af:62:d0:0c:05:
         91:1a:04:b8:86:e1:dd:bd:30:2d:b1:a2:2b:cb:63:58:3f:ab:
         fd:48:f8:2c:dd:4e:c4:14:94:74:48:68:99:76:76:da:b7:78:
         5d:fd:24:20:8c:db:c9:41:80:17:c5:7a:98:fb:87:63:80:e8:
         8e:62:a8:ba:81:ae:68:83:51:4e:d3:2e:c9:c0:8f:a4:29:7f:
         f8:f8:f0:c3:36:0c:ea:7b:4a:11:1c:c4:4d:b8:20:f8:f9:28:
         4e:05:87:fe:3f:93:a0:d2:5c:5d:fa:70:b6:07:bb:37:f4:10:
         67:c7:9b:f7:1c:8e:e9:a1:44:39:43:40:4e:81:4d:b2:2a:2e:
         78:63:53:8c:b8:cb:ac:6f:5e:77:f3:c4:d7:3e:2f:27:bc:70:
         43:6d:e6:4c:d4:3d:2b:0f:35:08:1f:3b:09:16:51:75:89:31:
         e2:27:26:0d:0b:aa:d1:ee:0a:58:03:7c:47:76:f6:76:17:7d:
         6f:2b:11:1d:cb:4e:61:ac:bc:5b:e2:d7:8f:58:a3:04:06:7e:
         b0:37:eb:8b:34:77:43:11:27:71:81:53:9a:95:96:82:aa:c3:
         60:0b:72:7c:de:67:14:48:fd:53:f9:2b:01:6a:be:0a:7d:06:
         7f:7b:31:6c:8f:11:2d:44:6c:46:c0:5f:80:a1:3c:a5:29:22:
         c2:d2:76:d1:56:df:96:f6:fe:22:12:6d:b6:3f:5d:f6:2e:e4:
         c3:8c:5a:b1:67:8f:09:fa:49:4a:33:26:5d:2a:04:10:7c:0a:
         94:db:b1:f4:2e:6c:ca:8c:89:23:a3:3d:9d:e9:c4:e8:47:74:
         76:ab:f1:a8:8f:4c:f6:5b:e5:8a:9b:28:4c:cc:10:78:ff:12:
         31:83:7d:7d:5a:f9:67:84:5d:54:5b:66:3b:5a:de:e1:59:1d:
         34:e9:c0:e0:91:01:9e:20:d2:17:8d:1d:dd:dd:4e:5f:18:a8:
         6f:59:5f:c6:11:4c:0b:df:50:e0:28:44:96:3d:18:e1:15:d9:
         f6:0f:ba:57:26:67:29:25:a9:d5:c6:52:ff:38:86:6e:01:69:
         b4:a5:29:0e:43:c3:86:64:d5:78:bc:54:85:3e:3b:e5:2f:84:
         48:63:75:1c:9b:ae:a9:4e:33:b7:fd:ba:93:22:7e:50:a7:09:
         4f:28:a3:77:26:5c:35:e4:ed:50:ca:89:9d:b9:c2:d2:94:e4:
         f1:8a:17:8e:6f:b4:79:95:58:89:8a:f0:0d:38:ab:a2:03:f2:
         7c:e6:bd:91:0b:eb:87:3c
-----BEGIN CERTIFICATE-----
MIIGrTCCBJWgAwIBAgICKowwDQYJKoZIhvcNAQELBQAwgawxCzAJBgNVBAYTAlVT
MQswCQYDVQQIEwJPSDERMA8GA1UEBxMIQ29sdW1idXMxEjAQBgNVBAoTCVZpa2lu
Z1ZQTjEdMBsGA1UECxMUTXlPcmdhbml6YXRpb25hbFVuaXQxFTATBgNVBAMTDFZp
a2luZ1ZQTiBDQTEQMA4GA1UEKRMHRWFzeVJTQTEhMB8GCSqGSIb3DQEJARYSbWVA
bXlob3N0Lm15ZG9tYWluMB4XDTE3MDUwNzAwNDUyMloXDTI3MDUwNTAwNDUyMlow
HzEdMBsGA1UEAxMUQ2xpZW50MjU1OENlcnQ3MzNhYTYwggIiMA0GCSqGSIb3DQEB
AQUAA4ICDwAwggIKAoICAQDGyAOX0iw8kinRD6Hfl7GpEo+sCFJQV2x1WDJ5A2I0
ElH63pEHkXkGQ6bHRzJTm28E7lfYkDwHj4Drz1T6FSG2Bms0pseCsZWIZCj/xt5G
DjZuvtE66cya7fNLzQWPc+jT2/KPd/Zzrsn982RXd/N7P33jIdnN6Twd+iKExoO+
O8SKGcQNa8SEBzOVAKt2jq+ZPZavI4FfjqmAgbZpD6w6p4ngNl5OpkdPO4rCx0bv
sSJijm99ob/anupApzK+TtbDhtawXidhjEYXxUVzjaKT2Sqep9T7gk1NbLAcbhZX
a96e5bq6YOQieCpq1JwHoWSYeWWBl+AWxYUx6OYqzrKMS7TIPl84g24S8aS1APmx
1ROFOIJmyv3GsN5wvgvJCLsvfdTzaSfYf0rfsS4127fnE35KQ3o65RSZuQYhWbka
l+gbW/svpcKF7utN2KAnslKA29AJldcDGxwvJgS5WTP+uR6zySOIP9HumlEblXe9
yMy9AdDXJna8DjC/R+DjNcH+oW48kUmRPQsl631HpjuEc3e/6OFwzOiIarO4WaLe
gJeCu0b/x/2xuinis9OEhbe78c5jTGHnTy5LTOvZEBPNHLXwTuSN/txntmU3j+z9
JTM/NKqaFhV/Uy1Qqrp+ty/XFNp1n/KZIgu8GWgyaMA8ZmxmObANWtZXkncpHmvL
dwIDAQABo4IBYzCCAV8wCQYDVR0TBAIwADAtBglghkgBhvhCAQ0EIBYeRWFzeS1S
U0EgR2VuZXJhdGVkIENlcnRpZmljYXRlMB0GA1UdDgQWBBQQV80bNrXXb3pFew/j
8A+H8dyKpzCB4QYDVR0jBIHZMIHWgBQSzWAE0qCAnnDtxpm4eyzGUv0ZoaGBsqSB
rzCBrDELMAkGA1UEBhMCVVMxCzAJBgNVBAgTAk9IMREwDwYDVQQHEwhDb2x1bWJ1
czESMBAGA1UEChMJVmlraW5nVlBOMR0wGwYDVQQLExRNeU9yZ2FuaXphdGlvbmFs
VW5pdDEVMBMGA1UEAxMMVmlraW5nVlBOIENBMRAwDgYDVQQpEwdFYXN5UlNBMSEw
HwYJKoZIhvcNAQkBFhJtZUBteWhvc3QubXlkb21haW6CCQDPNYXugL8qPjATBgNV
HSUEDDAKBggrBgEFBQcDAjALBgNVHQ8EBAMCB4AwDQYJKoZIhvcNAQELBQADggIB
AHOK0A2slCnBcDDqBZ5eWu5IrgWKkZgMKzXK/ftnHyuvYtAMBZEaBLiG4d29MC2x
oivLY1g/q/1I+CzdTsQUlHRIaJl2dtq3eF39JCCM28lBgBfFepj7h2OA6I5iqLqB
rmiDUU7TLsnAj6Qpf/j48MM2DOp7ShEcxE24IPj5KE4Fh/4/k6DSXF36cLYHuzf0
EGfHm/ccjumhRDlDQE6BTbIqLnhjU4y4y6xvXnfzxNc+Lye8cENt5kzUPSsPNQgf
OwkWUXWJMeInJg0LqtHuClgDfEd29nYXfW8rER3LTmGsvFvi149YowQGfrA364s0
d0MRJ3GBU5qVloKqw2ALcnzeZxRI/VP5KwFqvgp9Bn97MWyPES1EbEbAX4ChPKUp
IsLSdtFW35b2/iISbbY/XfYu5MOMWrFnjwn6SUozJl0qBBB8CpTbsfQubMqMiSOj
PZ3pxOhHdHar8aiPTPZb5YqbKEzMEHj/EjGDfX1a+WeEXVRbZjta3uFZHTTpwOCR
AZ4g0heNHd3dTl8YqG9ZX8YRTAvfUOAoRJY9GOEV2fYPulcmZyklqdXGUv84hm4B
abSlKQ5Dw4Zk1Xi8VIU+O+UvhEhjdRybrqlOM7f9upMiflCnCU8oo3cmXDXk7VDK
iZ25wtKU5PGKF45vtHmVWImK8A04q6ID8nzmvZEL64c8
-----END CERTIFICATE-----
