Certificate:
    Data:
        Version: 3 (0x2)
        Serial Number: 10893 (0x2a8d)
    Signature Algorithm: sha256WithRSAEncryption
        Issuer: C=US, ST=OH, L=Columbus, O=VikingVPN, OU=MyOrganizationalUnit, CN=VikingVPN CA/name=EasyRSA/emailAddress=me@myhost.mydomain
        Validity
            Not Before: May  7 03:29:54 2017 GMT
            Not After : May  5 03:29:54 2027 GMT
        Subject: CN=Client2905Certf23e97
        Subject Public Key Info:
            Public Key Algorithm: rsaEncryption
                Public-Key: (4096 bit)
                Modulus:
                    00:cf:c6:4a:89:85:bc:05:e0:e6:8a:3c:33:fa:7d:
                    5f:49:17:1b:87:41:69:e3:35:82:43:78:de:ca:dd:
                    e5:0b:ec:93:09:9e:26:a5:3d:b7:c7:47:44:07:c8:
                    9b:2d:3e:cb:92:15:45:42:f3:8e:84:3a:07:80:74:
                    57:54:4b:e3:06:5e:c9:64:c2:ea:fe:31:5c:db:8d:
                    67:29:f5:e1:ef:29:d8:9a:d1:3d:8a:91:8c:f2:89:
                    e2:01:61:a6:1e:71:22:34:f4:c2:ce:5a:61:52:96:
                    4b:58:1d:0b:4f:1c:e3:8b:45:b4:ee:f7:f0:fb:e8:
                    d5:c5:01:0b:07:96:3e:01:90:f7:db:bf:37:1a:d7:
                    2c:86:e9:e9:d8:64:75:f8:36:d9:db:68:fc:96:2a:
                    75:2e:86:8c:e7:a5:64:0d:94:5e:22:e3:d2:d0:98:
                    cf:34:04:dd:29:fc:52:10:fa:4e:06:f2:47:f0:33:
                    a0:bb:e6:f9:1d:01:8a:f3:b1:e4:dc:9e:95:de:b2:
                    6c:f1:a9:35:ad:67:27:8a:c0:07:a3:16:fb:18:f9:
                    47:e6:3e:6a:45:9b:e7:27:9b:fd:3f:3d:75:88:31:
                    01:89:eb:f4:0f:03:3b:05:de:25:a7:a2:a1:bd:30:
                    aa:4e:35:b6:39:43:b1:b4:c0:89:3b:3e:20:61:ff:
                    a7:e8:c3:7f:23:52:c5:bc:f9:81:80:f3:fc:2e:cd:
                    2e:e7:f3:d6:20:12:86:b9:3b:0f:be:ef:4c:e8:ec:
                    e9:de:6c:03:3a:3f:71:de:9d:0e:6f:80:86:54:b2:
                    78:54:b1:37:9b:81:cc:06:13:93:94:95:cf:5c:39:
                    9a:ad:6b:06:87:50:82:ca:1c:35:f6:0f:41:8f:88:
                    55:80:8a:5d:74:b6:55:ca:ff:0d:3c:99:4c:dc:c3:
                    22:79:4e:ac:34:f3:c4:71:e4:ba:2d:a8:29:43:30:
                    c3:3c:75:26:a1:d9:cb:03:a9:1a:48:ba:04:51:b9:
                    7f:61:18:ba:9a:f9:c3:84:94:50:4c:d8:4f:c2:ec:
                    18:ef:9b:58:5e:45:c9:d9:76:85:cf:d6:d2:49:6f:
                    eb:53:c8:e0:c9:83:44:69:ce:b7:3c:32:4c:5d:40:
                    54:20:90:34:aa:0e:89:19:b8:c7:f8:04:24:29:59:
                    32:97:e6:4e:ea:86:c1:9a:85:60:14:17:55:ec:98:
                    79:2d:e1:66:6b:84:17:94:fa:16:45:e4:90:ac:a0:
                    8e:ab:41:bd:4b:ef:62:e5:d2:ea:cd:e0:62:fd:ca:
                    f5:ce:e0:79:e4:8e:cf:99:97:82:a2:25:10:c5:45:
                    c3:3a:d2:e7:4f:13:92:f0:28:ad:df:75:b3:14:ef:
                    e5:ea:e9
                Exponent: 65537 (0x10001)
        X509v3 extensions:
            X509v3 Basic Constraints: 
                CA:FALSE
            Netscape Comment: 
                Easy-RSA Generated Certificate
            X509v3 Subject Key Identifier: 
                34:06:E7:49:74:E0:23:BB:FC:4D:45:D9:0C:C4:89:7C:C7:CC:A4:7D
            X509v3 Authority Key Identifier: 
                keyid:12:CD:60:04:D2:A0:80:9E:70:ED:C6:99:B8:7B:2C:C6:52:FD:19:A1
                DirName:/C=US/ST=OH/L=Columbus/O=VikingVPN/OU=MyOrganizationalUnit/CN=VikingVPN CA/name=EasyRSA/emailAddress=me@myhost.mydomain
                serial:CF:35:85:EE:80:BF:2A:3E

            X509v3 Extended Key Usage: 
                TLS Web Client Authentication
            X509v3 Key Usage: 
                Digital Signature
    Signature Algorithm: sha256WithRSAEncryption
         00:5d:26:c1:21:f3:dc:27:e4:bd:7b:85:1b:95:af:80:ca:0f:
         5c:0c:3f:ef:7e:48:58:7f:d5:c1:c6:80:8e:b9:4e:80:7a:1d:
         10:d5:93:ab:c7:11:c8:6f:72:a6:72:0b:59:6e:92:a8:12:00:
         c4:d0:55:ef:31:c8:84:6d:a9:de:ff:a7:02:af:4e:67:b6:d7:
         50:94:59:b6:90:5c:95:1c:65:cf:d7:de:86:44:5f:f1:f5:22:
         9a:96:ca:a9:90:b2:ed:e9:d9:c9:13:fd:f2:15:87:25:30:69:
         c7:59:f2:81:a2:95:5a:4c:e4:27:c0:20:99:fa:22:a8:2c:a8:
         ef:c3:54:6e:72:25:58:73:da:e6:7c:91:a7:d9:1c:ff:43:94:
         81:4e:a6:8c:b6:02:b3:3a:e4:67:c3:21:4b:91:ae:d5:1a:82:
         b7:a1:4e:d8:7e:5d:e4:35:d4:39:60:f5:65:63:6f:80:04:38:
         d9:2c:37:1c:ac:31:01:93:e0:8e:e1:30:bd:99:7a:49:61:3f:
         da:f7:88:2b:c3:8e:67:b5:08:88:a4:78:79:5a:a5:40:80:7b:
         00:02:ed:9e:17:c5:71:e6:47:69:24:25:2d:35:ac:70:93:7d:
         ca:80:f7:6b:d0:d0:9f:a6:1d:45:74:a2:b7:87:60:2f:94:eb:
         1a:43:22:3a:85:02:de:22:14:a0:9c:6e:f1:6c:23:b7:00:6a:
         d8:29:58:bf:67:23:da:8e:b8:84:a3:a0:27:25:bd:dd:83:62:
         95:f0:09:7d:d1:37:cb:a3:84:0f:81:ff:d8:d9:8b:51:48:f5:
         c6:e4:e5:e6:88:eb:58:72:9d:4c:7e:66:cb:d4:e1:db:17:e1:
         75:81:11:44:72:87:84:65:98:64:30:7d:12:e1:60:42:80:34:
         21:fb:e3:e2:6f:18:87:61:9b:f3:90:76:42:89:cc:25:4b:d5:
         86:b2:f1:a7:60:c0:52:f7:00:4f:01:15:5b:36:89:16:92:c8:
         e0:1e:b0:75:f3:df:db:f5:49:c3:cd:a4:e8:be:03:68:71:bd:
         88:40:be:31:ed:a5:87:ff:65:d7:22:58:b7:ac:90:f1:e9:84:
         b3:39:b2:35:31:f4:86:90:56:a7:76:44:49:0b:bc:44:f3:8d:
         4e:32:91:1b:9d:7a:7a:8f:53:11:19:97:69:d2:08:95:2b:9b:
         dc:a8:28:23:d0:90:f9:ee:75:70:a6:0a:07:97:ba:fe:21:2d:
         95:46:14:70:9b:de:34:c4:2a:57:4f:1d:46:3f:03:04:99:36:
         08:73:cc:35:82:09:b7:fc:29:14:20:39:3e:b4:96:16:68:8a:
         05:fc:ad:c7:60:e9:2e:06
-----BEGIN CERTIFICATE-----
MIIGrTCCBJWgAwIBAgICKo0wDQYJKoZIhvcNAQELBQAwgawxCzAJBgNVBAYTAlVT
MQswCQYDVQQIEwJPSDERMA8GA1UEBxMIQ29sdW1idXMxEjAQBgNVBAoTCVZpa2lu
Z1ZQTjEdMBsGA1UECxMUTXlPcmdhbml6YXRpb25hbFVuaXQxFTATBgNVBAMTDFZp
a2luZ1ZQTiBDQTEQMA4GA1UEKRMHRWFzeVJTQTEhMB8GCSqGSIb3DQEJARYSbWVA
bXlob3N0Lm15ZG9tYWluMB4XDTE3MDUwNzAzMjk1NFoXDTI3MDUwNTAzMjk1NFow
HzEdMBsGA1UEAxMUQ2xpZW50MjkwNUNlcnRmMjNlOTcwggIiMA0GCSqGSIb3DQEB
AQUAA4ICDwAwggIKAoICAQDPxkqJhbwF4OaKPDP6fV9JFxuHQWnjNYJDeN7K3eUL
7JMJnialPbfHR0QHyJstPsuSFUVC846EOgeAdFdUS+MGXslkwur+MVzbjWcp9eHv
Kdia0T2KkYzyieIBYaYecSI09MLOWmFSlktYHQtPHOOLRbTu9/D76NXFAQsHlj4B
kPfbvzca1yyG6enYZHX4NtnbaPyWKnUuhoznpWQNlF4i49LQmM80BN0p/FIQ+k4G
8kfwM6C75vkdAYrzseTcnpXesmzxqTWtZyeKwAejFvsY+UfmPmpFm+cnm/0/PXWI
MQGJ6/QPAzsF3iWnoqG9MKpONbY5Q7G0wIk7PiBh/6fow38jUsW8+YGA8/wuzS7n
89YgEoa5Ow++70zo7OnebAM6P3HenQ5vgIZUsnhUsTebgcwGE5OUlc9cOZqtawaH
UILKHDX2D0GPiFWAil10tlXK/w08mUzcwyJ5Tqw088Rx5LotqClDMMM8dSah2csD
qRpIugRRuX9hGLqa+cOElFBM2E/C7Bjvm1heRcnZdoXP1tJJb+tTyODJg0Rpzrc8
MkxdQFQgkDSqDokZuMf4BCQpWTKX5k7qhsGahWAUF1XsmHkt4WZrhBeU+hZF5JCs
oI6rQb1L72Ll0urN4GL9yvXO4Hnkjs+Zl4KiJRDFRcM60udPE5LwKK3fdbMU7+Xq
6QIDAQABo4IBYzCCAV8wCQYDVR0TBAIwADAtBglghkgBhvhCAQ0EIBYeRWFzeS1S
U0EgR2VuZXJhdGVkIENlcnRpZmljYXRlMB0GA1UdDgQWBBQ0BudJdOAju/xNRdkM
xIl8x8ykfTCB4QYDVR0jBIHZMIHWgBQSzWAE0qCAnnDtxpm4eyzGUv0ZoaGBsqSB
rzCBrDELMAkGA1UEBhMCVVMxCzAJBgNVBAgTAk9IMREwDwYDVQQHEwhDb2x1bWJ1
czESMBAGA1UEChMJVmlraW5nVlBOMR0wGwYDVQQLExRNeU9yZ2FuaXphdGlvbmFs
VW5pdDEVMBMGA1UEAxMMVmlraW5nVlBOIENBMRAwDgYDVQQpEwdFYXN5UlNBMSEw
HwYJKoZIhvcNAQkBFhJtZUBteWhvc3QubXlkb21haW6CCQDPNYXugL8qPjATBgNV
HSUEDDAKBggrBgEFBQcDAjALBgNVHQ8EBAMCB4AwDQYJKoZIhvcNAQELBQADggIB
AABdJsEh89wn5L17hRuVr4DKD1wMP+9+SFh/1cHGgI65ToB6HRDVk6vHEchvcqZy
C1lukqgSAMTQVe8xyIRtqd7/pwKvTme211CUWbaQXJUcZc/X3oZEX/H1IpqWyqmQ
su3p2ckT/fIVhyUwacdZ8oGilVpM5CfAIJn6IqgsqO/DVG5yJVhz2uZ8kafZHP9D
lIFOpoy2ArM65GfDIUuRrtUagrehTth+XeQ11Dlg9WVjb4AEONksNxysMQGT4I7h
ML2ZeklhP9r3iCvDjme1CIikeHlapUCAewAC7Z4XxXHmR2kkJS01rHCTfcqA92vQ
0J+mHUV0oreHYC+U6xpDIjqFAt4iFKCcbvFsI7cAatgpWL9nI9qOuISjoCclvd2D
YpXwCX3RN8ujhA+B/9jZi1FI9cbk5eaI61hynUx+ZsvU4dsX4XWBEURyh4RlmGQw
fRLhYEKANCH74+JvGIdhm/OQdkKJzCVL1Yay8adgwFL3AE8BFVs2iRaSyOAesHXz
39v1ScPNpOi+A2hxvYhAvjHtpYf/ZdciWLeskPHphLM5sjUx9IaQVqd2REkLvETz
jU4ykRudenqPUxEZl2nSCJUrm9yoKCPQkPnudXCmCgeXuv4hLZVGFHCb3jTEKldP
HUY/AwSZNghzzDWCCbf8KRQgOT60lhZoigX8rcdg6S4G
-----END CERTIFICATE-----
