Certificate:
    Data:
        Version: 3 (0x2)
        Serial Number: 10896 (0x2a90)
    Signature Algorithm: sha256WithRSAEncryption
        Issuer: C=US, ST=OH, L=Columbus, O=VikingVPN, OU=MyOrganizationalUnit, CN=VikingVPN CA/name=EasyRSA/emailAddress=me@myhost.mydomain
        Validity
            Not Before: May  7 03:58:58 2017 GMT
            Not After : May  5 03:58:58 2027 GMT
        Subject: CN=Client2905Certd1a315
        Subject Public Key Info:
            Public Key Algorithm: rsaEncryption
                Public-Key: (4096 bit)
                Modulus:
                    00:d1:90:0c:b0:19:43:b6:f1:5f:cd:d0:a7:f1:36:
                    a6:99:73:87:24:ee:14:1f:1d:48:a3:93:f6:f7:2e:
                    d3:a4:3e:ea:75:49:28:a2:62:6b:1b:66:44:3e:24:
                    0a:98:24:25:1e:be:c4:ea:ad:03:2a:f6:41:b3:58:
                    f1:01:33:97:34:62:19:7c:5b:3d:f0:b8:95:59:a5:
                    e4:a1:7c:08:e7:3d:cb:14:24:e8:e3:8d:2c:fe:b0:
                    ba:b1:1a:dc:90:c2:c9:6f:a8:2a:69:b6:ab:aa:bc:
                    ef:75:67:1a:c9:73:1e:55:e0:40:8d:dc:32:c7:e0:
                    cc:11:27:0a:83:f2:0d:e2:85:7b:e9:fc:41:f9:4d:
                    3f:27:c7:8b:48:fa:3b:50:41:84:c9:68:8b:28:8a:
                    0f:39:8a:fb:f5:4f:0c:63:88:72:00:6f:78:7e:33:
                    e2:25:de:86:fa:85:4b:20:87:6d:d9:af:74:81:66:
                    6d:d2:37:c1:cc:56:ae:8e:32:b7:32:2e:a0:60:05:
                    da:f9:6b:58:46:ba:81:43:44:8c:2e:10:65:89:7a:
                    86:17:32:a9:46:44:f2:9c:6d:cd:31:4a:4f:3f:b3:
                    89:20:76:9e:76:3b:9c:ed:c2:39:56:3c:24:c8:9f:
                    65:9d:89:c3:e5:6a:cd:9b:11:e1:a6:de:d6:2c:a9:
                    0a:41:6d:ad:08:2b:4b:ad:45:f8:21:c2:54:28:d9:
                    7f:19:0f:33:e7:8a:83:8b:34:30:89:b1:09:6b:c4:
                    62:7a:af:fc:56:18:61:b7:5e:bc:77:94:b0:af:62:
                    22:cf:b7:4e:b4:f3:69:78:3e:81:fb:ef:54:6b:55:
                    97:b2:ec:9c:8c:e9:31:c9:19:65:fc:8b:d0:25:30:
                    16:92:2a:59:43:77:24:69:7c:98:e7:34:a1:07:1d:
                    8b:22:97:47:f0:4b:2c:98:ba:1e:5f:76:e6:57:97:
                    ee:75:22:91:f7:44:49:b2:88:b6:28:0e:0b:d9:bf:
                    6a:e0:08:d0:18:50:3f:38:94:3a:19:ab:b1:4d:ac:
                    41:53:41:4f:9c:dd:61:4e:61:b0:d4:af:de:d1:e9:
                    b4:b1:7f:f5:dc:3c:f7:39:f9:41:ac:e0:03:e9:71:
                    46:20:4d:c0:51:c0:47:d3:b3:42:62:a2:0c:a0:c5:
                    07:d6:d4:17:d4:6a:68:ca:76:a2:e6:bf:3b:17:57:
                    d6:c9:4c:13:12:f3:4b:0e:87:1c:57:2f:6a:1f:3a:
                    cc:df:d4:2b:43:95:b0:06:2c:9b:2a:af:25:e4:5b:
                    2d:93:78:c3:ba:97:6b:76:0d:c5:24:d8:19:2e:06:
                    cf:e4:ba:8d:a0:4b:73:16:80:cf:c0:11:cf:cb:19:
                    ff:85:65
                Exponent: 65537 (0x10001)
        X509v3 extensions:
            X509v3 Basic Constraints: 
                CA:FALSE
            Netscape Comment: 
                Easy-RSA Generated Certificate
            X509v3 Subject Key Identifier: 
                C2:6F:A0:90:03:18:DE:A3:7A:7F:5A:E4:DA:4F:07:FC:22:10:21:C3
            X509v3 Authority Key Identifier: 
                keyid:12:CD:60:04:D2:A0:80:9E:70:ED:C6:99:B8:7B:2C:C6:52:FD:19:A1
                DirName:/C=US/ST=OH/L=Columbus/O=VikingVPN/OU=MyOrganizationalUnit/CN=VikingVPN CA/name=EasyRSA/emailAddress=me@myhost.mydomain
                serial:CF:35:85:EE:80:BF:2A:3E

            X509v3 Extended Key Usage: 
                TLS Web Client Authentication
            X509v3 Key Usage: 
                Digital Signature
    Signature Algorithm: sha256WithRSAEncryption
         91:1e:7c:b9:76:cb:eb:fe:17:ae:5c:95:f4:e3:0f:99:08:c5:
         48:81:f3:fe:89:2e:66:c8:24:6e:31:59:f5:96:d0:b1:dc:f9:
         30:7b:3e:53:c8:cb:04:24:e6:71:e9:81:62:ba:b8:d8:73:82:
         30:c8:5c:05:5b:03:74:2f:be:d3:93:22:76:36:ac:90:48:6d:
         0b:d5:7b:b3:94:2d:3d:46:e3:44:a2:d0:a7:0b:4a:5b:93:a9:
         f6:10:cb:a7:af:83:70:c4:50:6d:79:89:4a:59:94:78:74:c9:
         7f:61:6c:0a:c4:5a:4f:04:f2:1a:21:80:7a:43:d0:48:f8:fa:
         ca:d4:ad:2e:d1:ed:75:9c:bc:59:db:8b:c2:96:64:98:ed:f4:
         8e:a3:98:ea:8a:62:2a:98:71:66:6c:0d:e9:d3:52:00:9f:f0:
         bc:a2:2e:08:5b:d7:b4:fa:50:30:90:2c:b3:da:11:81:09:a9:
         44:0c:11:ee:50:dd:c2:e1:00:9b:37:05:d1:5a:c1:8c:fc:e9:
         6d:b1:30:fe:e9:3d:e7:38:a8:7f:46:ab:a5:04:9e:ed:45:40:
         ae:91:36:e4:7d:d6:60:0f:12:99:a9:db:d4:d2:93:30:a5:25:
         26:e3:74:ef:40:61:2f:c8:82:ba:44:73:5e:1a:fc:f0:6f:5b:
         95:ff:e0:67:63:8d:70:31:af:fa:be:18:3a:4f:1d:7e:07:99:
         db:b9:af:77:ec:5b:96:3f:e1:f9:d8:39:fd:f8:d2:1c:27:81:
         f1:e8:99:60:c3:66:38:6e:26:56:64:5f:4a:30:52:68:71:82:
         a9:57:d2:de:e3:a8:66:e9:a8:9e:7c:32:70:47:f3:74:b0:ab:
         bd:70:e0:75:93:e7:8b:91:53:89:39:25:c0:ca:41:8a:ad:3f:
         9e:f8:ed:33:69:95:a8:c3:de:47:2c:7c:94:79:3d:fc:b0:c4:
         52:57:32:c8:12:63:3b:0b:fa:9f:9f:39:71:4a:14:67:1b:b0:
         63:f1:a7:a8:02:e6:f7:23:74:c4:95:81:ec:0a:f9:59:0c:34:
         ff:8e:41:fa:74:a9:3c:c1:83:76:a7:06:c8:21:6e:11:ad:cb:
         2b:ad:3f:60:46:c9:e2:c0:c0:a7:b0:3d:39:1b:bb:11:07:c8:
         52:ce:7a:ec:fd:9d:12:95:86:0f:85:47:83:5f:88:36:46:91:
         a0:99:90:df:8c:44:9e:b4:e2:56:b0:59:6c:34:bd:82:3f:d6:
         44:62:b6:4b:82:54:3a:56:31:cf:e7:19:bd:d3:b8:c0:ef:c1:
         99:4c:4d:29:9b:1c:5b:d7:86:55:5d:72:0b:49:3d:87:53:95:
         ee:54:e3:65:12:27:d9:40
-----BEGIN CERTIFICATE-----
MIIGrTCCBJWgAwIBAgICKpAwDQYJKoZIhvcNAQELBQAwgawxCzAJBgNVBAYTAlVT
MQswCQYDVQQIEwJPSDERMA8GA1UEBxMIQ29sdW1idXMxEjAQBgNVBAoTCVZpa2lu
Z1ZQTjEdMBsGA1UECxMUTXlPcmdhbml6YXRpb25hbFVuaXQxFTATBgNVBAMTDFZp
a2luZ1ZQTiBDQTEQMA4GA1UEKRMHRWFzeVJTQTEhMB8GCSqGSIb3DQEJARYSbWVA
bXlob3N0Lm15ZG9tYWluMB4XDTE3MDUwNzAzNTg1OFoXDTI3MDUwNTAzNTg1OFow
HzEdMBsGA1UEAxMUQ2xpZW50MjkwNUNlcnRkMWEzMTUwggIiMA0GCSqGSIb3DQEB
AQUAA4ICDwAwggIKAoICAQDRkAywGUO28V/N0KfxNqaZc4ck7hQfHUijk/b3LtOk
Pup1SSiiYmsbZkQ+JAqYJCUevsTqrQMq9kGzWPEBM5c0Yhl8Wz3wuJVZpeShfAjn
PcsUJOjjjSz+sLqxGtyQwslvqCpptquqvO91ZxrJcx5V4ECN3DLH4MwRJwqD8g3i
hXvp/EH5TT8nx4tI+jtQQYTJaIsoig85ivv1TwxjiHIAb3h+M+Il3ob6hUsgh23Z
r3SBZm3SN8HMVq6OMrcyLqBgBdr5a1hGuoFDRIwuEGWJeoYXMqlGRPKcbc0xSk8/
s4kgdp52O5ztwjlWPCTIn2WdicPlas2bEeGm3tYsqQpBba0IK0utRfghwlQo2X8Z
DzPnioOLNDCJsQlrxGJ6r/xWGGG3Xrx3lLCvYiLPt06082l4PoH771RrVZey7JyM
6THJGWX8i9AlMBaSKllDdyRpfJjnNKEHHYsil0fwSyyYuh5fduZXl+51IpH3REmy
iLYoDgvZv2rgCNAYUD84lDoZq7FNrEFTQU+c3WFOYbDUr97R6bSxf/XcPPc5+UGs
4APpcUYgTcBRwEfTs0JiogygxQfW1BfUamjKdqLmvzsXV9bJTBMS80sOhxxXL2of
Oszf1CtDlbAGLJsqryXkWy2TeMO6l2t2DcUk2BkuBs/kuo2gS3MWgM/AEc/LGf+F
ZQIDAQABo4IBYzCCAV8wCQYDVR0TBAIwADAtBglghkgBhvhCAQ0EIBYeRWFzeS1S
U0EgR2VuZXJhdGVkIENlcnRpZmljYXRlMB0GA1UdDgQWBBTCb6CQAxjeo3p/WuTa
Twf8IhAhwzCB4QYDVR0jBIHZMIHWgBQSzWAE0qCAnnDtxpm4eyzGUv0ZoaGBsqSB
rzCBrDELMAkGA1UEBhMCVVMxCzAJBgNVBAgTAk9IMREwDwYDVQQHEwhDb2x1bWJ1
czESMBAGA1UEChMJVmlraW5nVlBOMR0wGwYDVQQLExRNeU9yZ2FuaXphdGlvbmFs
VW5pdDEVMBMGA1UEAxMMVmlraW5nVlBOIENBMRAwDgYDVQQpEwdFYXN5UlNBMSEw
HwYJKoZIhvcNAQkBFhJtZUBteWhvc3QubXlkb21haW6CCQDPNYXugL8qPjATBgNV
HSUEDDAKBggrBgEFBQcDAjALBgNVHQ8EBAMCB4AwDQYJKoZIhvcNAQELBQADggIB
AJEefLl2y+v+F65clfTjD5kIxUiB8/6JLmbIJG4xWfWW0LHc+TB7PlPIywQk5nHp
gWK6uNhzgjDIXAVbA3QvvtOTInY2rJBIbQvVe7OULT1G40Si0KcLSluTqfYQy6ev
g3DEUG15iUpZlHh0yX9hbArEWk8E8hohgHpD0Ej4+srUrS7R7XWcvFnbi8KWZJjt
9I6jmOqKYiqYcWZsDenTUgCf8LyiLghb17T6UDCQLLPaEYEJqUQMEe5Q3cLhAJs3
BdFawYz86W2xMP7pPec4qH9Gq6UEnu1FQK6RNuR91mAPEpmp29TSkzClJSbjdO9A
YS/IgrpEc14a/PBvW5X/4GdjjXAxr/q+GDpPHX4Hmdu5r3fsW5Y/4fnYOf340hwn
gfHomWDDZjhuJlZkX0owUmhxgqlX0t7jqGbpqJ58MnBH83Swq71w4HWT54uRU4k5
JcDKQYqtP5747TNplajD3kcsfJR5PfywxFJXMsgSYzsL+p+fOXFKFGcbsGPxp6gC
5vcjdMSVgewK+VkMNP+OQfp0qTzBg3anBsghbhGtyyutP2BGyeLAwKewPTkbuxEH
yFLOeuz9nRKVhg+FR4NfiDZGkaCZkN+MRJ604lawWWw0vYI/1kRitkuCVDpWMc/n
Gb3TuMDvwZlMTSmbHFvXhlVdcgtJPYdTle5U42USJ9lA
-----END CERTIFICATE-----
