Certificate:
    Data:
        Version: 3 (0x2)
        Serial Number: 10909 (0x2a9d)
    Signature Algorithm: sha256WithRSAEncryption
        Issuer: C=US, ST=OH, L=Columbus, O=VikingVPN, OU=MyOrganizationalUnit, CN=VikingVPN CA/name=EasyRSA/emailAddress=me@myhost.mydomain
        Validity
            Not Before: May  7 22:24:18 2017 GMT
            Not After : May  5 22:24:18 2027 GMT
        Subject: CN=Client2906Certf2641c
        Subject Public Key Info:
            Public Key Algorithm: rsaEncryption
                Public-Key: (4096 bit)
                Modulus:
                    00:ab:17:e0:a8:d9:3e:99:df:16:12:7b:67:ed:8e:
                    74:91:f1:a1:7b:88:5e:6c:c2:3e:94:75:c1:8e:cb:
                    88:d2:c3:78:82:e4:ef:53:e0:06:8c:cd:ee:79:6c:
                    ef:e4:a8:b4:45:89:01:7c:b1:11:66:49:15:cc:4b:
                    3c:11:8e:87:46:2d:3f:00:e8:63:7c:68:56:78:3f:
                    1f:25:ec:37:ff:c4:c9:81:f1:37:63:54:f4:db:7f:
                    6c:ed:e1:af:81:07:54:0d:03:c9:c8:03:6b:a2:f0:
                    c8:72:4b:10:58:a4:d0:51:3a:03:8d:df:21:07:3b:
                    90:b7:5c:87:97:a2:88:aa:b7:37:64:49:5f:0e:52:
                    33:60:24:71:90:6c:6c:d2:d5:99:31:7d:d0:6e:20:
                    f8:ac:ed:2c:25:08:37:4d:87:11:91:4f:b4:ae:e6:
                    88:11:eb:9e:19:41:88:06:0d:06:a3:6a:02:bb:1c:
                    f0:51:74:45:0f:bc:b4:67:ed:de:e9:02:52:7e:a0:
                    32:5d:0b:a9:e7:e1:1c:3c:46:51:d6:fc:ff:e1:4d:
                    2a:f8:9d:73:c9:73:9f:70:5d:78:94:dc:a8:f6:78:
                    ee:8c:4b:cf:d6:c6:55:25:93:0a:6b:a1:be:68:e2:
                    fe:f2:c8:66:ad:20:95:b3:98:46:b2:4c:95:b7:b7:
                    73:7c:64:e7:e6:a5:10:0b:66:eb:22:d9:a1:d2:15:
                    fa:e3:ed:5f:36:18:25:ee:22:95:44:82:f2:6f:99:
                    ca:c1:bb:a3:25:db:e5:dd:b1:e0:57:93:71:ee:96:
                    66:57:98:a4:19:d1:c0:07:7f:80:1e:8e:9d:a7:45:
                    ed:af:d4:10:8f:d4:8e:32:a7:b7:a9:18:3b:44:fe:
                    9b:49:23:ae:31:f5:7f:68:70:6b:28:fd:d8:99:99:
                    55:05:da:c8:3f:b7:8c:ef:ca:8d:1f:9e:e6:f0:63:
                    aa:d6:97:95:90:b8:67:c9:3f:a7:da:05:c4:0a:ff:
                    b7:35:e5:2c:d1:42:9b:b4:37:33:e4:5b:41:88:c9:
                    36:88:3b:62:5d:d6:02:c0:a2:18:7e:16:e4:78:51:
                    e8:e0:bf:a1:1f:dd:33:76:1e:81:74:1f:d3:4a:c6:
                    48:4e:75:7c:00:e5:5e:f7:18:58:e8:c8:92:c9:e6:
                    74:10:03:8b:81:18:04:87:63:f5:1d:ce:2e:56:a9:
                    0d:67:ea:45:90:a1:e2:0b:16:7f:fa:f9:e9:90:c0:
                    45:88:6e:19:2c:46:97:21:41:40:33:75:d0:07:10:
                    d6:f5:b4:46:53:74:1b:c8:69:5c:7a:72:77:70:cc:
                    d6:61:eb:23:bb:db:8d:0f:7e:64:aa:09:09:b4:7d:
                    61:8d:4f
                Exponent: 65537 (0x10001)
        X509v3 extensions:
            X509v3 Basic Constraints: 
                CA:FALSE
            Netscape Comment: 
                Easy-RSA Generated Certificate
            X509v3 Subject Key Identifier: 
                0A:5F:AE:59:D3:1F:37:6B:B8:47:E6:6C:C4:6D:BA:CF:5F:79:8F:24
            X509v3 Authority Key Identifier: 
                keyid:12:CD:60:04:D2:A0:80:9E:70:ED:C6:99:B8:7B:2C:C6:52:FD:19:A1
                DirName:/C=US/ST=OH/L=Columbus/O=VikingVPN/OU=MyOrganizationalUnit/CN=VikingVPN CA/name=EasyRSA/emailAddress=me@myhost.mydomain
                serial:CF:35:85:EE:80:BF:2A:3E

            X509v3 Extended Key Usage: 
                TLS Web Client Authentication
            X509v3 Key Usage: 
                Digital Signature
    Signature Algorithm: sha256WithRSAEncryption
         06:fe:63:b1:85:0c:e8:44:8a:af:50:a9:ed:00:6d:c0:23:a0:
         af:7f:f0:22:fd:5c:84:c4:e8:2c:36:f6:be:ea:54:4a:07:98:
         4f:e6:d0:83:3b:82:3c:2f:c1:97:34:a6:23:f9:3c:03:3d:b5:
         54:68:fa:49:54:76:2b:af:70:c4:16:82:12:4a:91:df:60:75:
         5c:2a:a6:4c:8e:9d:7d:0b:a4:ed:fa:89:6a:e4:0a:4c:5e:4a:
         8e:c4:5f:29:45:e0:d5:6a:5f:22:e0:39:a4:e2:5e:e6:b6:20:
         43:97:6e:38:8e:ff:ab:21:aa:a2:21:dd:cc:a8:85:92:83:75:
         89:6c:4c:4f:09:c4:10:b6:2a:26:0a:ff:c0:a6:be:76:97:41:
         6a:65:23:c5:a8:bc:f1:d5:7d:58:27:4c:4b:8b:50:f6:b6:e1:
         90:86:e1:53:61:d3:84:82:4a:ce:f2:22:fb:a5:e1:55:5e:91:
         bd:2e:03:fa:b0:9b:b5:fe:6b:94:70:b3:d9:c1:72:bf:70:e8:
         39:cc:92:e6:37:40:7c:30:43:99:b3:d8:87:7e:67:31:dc:d0:
         55:3d:4e:f7:c7:ca:ff:89:0f:59:0d:06:dd:5a:1d:0b:29:42:
         6e:eb:31:a9:69:64:02:06:3e:cd:55:18:4c:a1:c6:02:74:a7:
         51:3d:10:fc:93:e9:e1:79:56:5f:5c:3c:60:06:27:7d:99:fc:
         45:74:1f:77:39:61:6e:7d:d4:9f:bc:68:02:fe:80:74:10:36:
         24:4e:77:2a:56:ae:31:91:91:60:e3:20:1d:17:b7:7c:b7:e6:
         d0:fa:89:d8:d0:d5:8d:58:5f:8f:67:af:37:85:43:e2:ff:40:
         f3:c3:cd:8e:26:97:2b:2c:d9:9f:52:95:4d:8f:02:4c:48:c7:
         25:b5:f9:e6:58:23:1f:a2:8f:5e:c1:2b:20:ba:2a:7d:70:e1:
         e8:a6:58:ea:09:36:97:29:e4:54:7a:c7:c9:3d:fc:93:23:3a:
         d7:eb:13:09:50:c3:70:af:e6:15:13:7a:4f:8c:d0:a0:d5:24:
         96:1c:f1:f5:08:59:b6:71:4f:c5:73:8a:33:06:ed:a3:8b:60:
         33:19:c9:1d:7c:8b:9e:83:2e:c2:24:28:30:64:9d:df:0f:00:
         b4:d7:a3:3f:1b:28:0b:52:d8:eb:4b:2e:72:55:c1:7a:54:dc:
         72:5b:4d:fa:b3:3a:c1:a6:df:20:ba:c2:21:55:90:30:ea:ed:
         74:1c:f0:94:68:26:f3:86:7d:1e:f3:35:93:9f:40:5a:60:b3:
         5c:28:1f:ec:d9:27:a2:c2:46:3b:9e:3c:78:d1:3f:d0:18:70:
         e5:6d:d8:15:b7:51:6b:d2
-----BEGIN CERTIFICATE-----
MIIGrTCCBJWgAwIBAgICKp0wDQYJKoZIhvcNAQELBQAwgawxCzAJBgNVBAYTAlVT
MQswCQYDVQQIEwJPSDERMA8GA1UEBxMIQ29sdW1idXMxEjAQBgNVBAoTCVZpa2lu
Z1ZQTjEdMBsGA1UECxMUTXlPcmdhbml6YXRpb25hbFVuaXQxFTATBgNVBAMTDFZp
a2luZ1ZQTiBDQTEQMA4GA1UEKRMHRWFzeVJTQTEhMB8GCSqGSIb3DQEJARYSbWVA
bXlob3N0Lm15ZG9tYWluMB4XDTE3MDUwNzIyMjQxOFoXDTI3MDUwNTIyMjQxOFow
HzEdMBsGA1UEAxMUQ2xpZW50MjkwNkNlcnRmMjY0MWMwggIiMA0GCSqGSIb3DQEB
AQUAA4ICDwAwggIKAoICAQCrF+Co2T6Z3xYSe2ftjnSR8aF7iF5swj6UdcGOy4jS
w3iC5O9T4AaMze55bO/kqLRFiQF8sRFmSRXMSzwRjodGLT8A6GN8aFZ4Px8l7Df/
xMmB8TdjVPTbf2zt4a+BB1QNA8nIA2ui8MhySxBYpNBROgON3yEHO5C3XIeXooiq
tzdkSV8OUjNgJHGQbGzS1ZkxfdBuIPis7SwlCDdNhxGRT7Su5ogR654ZQYgGDQaj
agK7HPBRdEUPvLRn7d7pAlJ+oDJdC6nn4Rw8RlHW/P/hTSr4nXPJc59wXXiU3Kj2
eO6MS8/WxlUlkwprob5o4v7yyGatIJWzmEayTJW3t3N8ZOfmpRALZusi2aHSFfrj
7V82GCXuIpVEgvJvmcrBu6Ml2+XdseBXk3HulmZXmKQZ0cAHf4Aejp2nRe2v1BCP
1I4yp7epGDtE/ptJI64x9X9ocGso/diZmVUF2sg/t4zvyo0fnubwY6rWl5WQuGfJ
P6faBcQK/7c15SzRQpu0NzPkW0GIyTaIO2Jd1gLAohh+FuR4Uejgv6Ef3TN2HoF0
H9NKxkhOdXwA5V73GFjoyJLJ5nQQA4uBGASHY/Udzi5WqQ1n6kWQoeILFn/6+emQ
wEWIbhksRpchQUAzddAHENb1tEZTdBvIaVx6cndwzNZh6yO7240PfmSqCQm0fWGN
TwIDAQABo4IBYzCCAV8wCQYDVR0TBAIwADAtBglghkgBhvhCAQ0EIBYeRWFzeS1S
U0EgR2VuZXJhdGVkIENlcnRpZmljYXRlMB0GA1UdDgQWBBQKX65Z0x83a7hH5mzE
bbrPX3mPJDCB4QYDVR0jBIHZMIHWgBQSzWAE0qCAnnDtxpm4eyzGUv0ZoaGBsqSB
rzCBrDELMAkGA1UEBhMCVVMxCzAJBgNVBAgTAk9IMREwDwYDVQQHEwhDb2x1bWJ1
czESMBAGA1UEChMJVmlraW5nVlBOMR0wGwYDVQQLExRNeU9yZ2FuaXphdGlvbmFs
VW5pdDEVMBMGA1UEAxMMVmlraW5nVlBOIENBMRAwDgYDVQQpEwdFYXN5UlNBMSEw
HwYJKoZIhvcNAQkBFhJtZUBteWhvc3QubXlkb21haW6CCQDPNYXugL8qPjATBgNV
HSUEDDAKBggrBgEFBQcDAjALBgNVHQ8EBAMCB4AwDQYJKoZIhvcNAQELBQADggIB
AAb+Y7GFDOhEiq9Qqe0AbcAjoK9/8CL9XITE6Cw29r7qVEoHmE/m0IM7gjwvwZc0
piP5PAM9tVRo+klUdiuvcMQWghJKkd9gdVwqpkyOnX0LpO36iWrkCkxeSo7EXylF
4NVqXyLgOaTiXua2IEOXbjiO/6shqqIh3cyohZKDdYlsTE8JxBC2KiYK/8CmvnaX
QWplI8WovPHVfVgnTEuLUPa24ZCG4VNh04SCSs7yIvul4VVekb0uA/qwm7X+a5Rw
s9nBcr9w6DnMkuY3QHwwQ5mz2Id+ZzHc0FU9TvfHyv+JD1kNBt1aHQspQm7rMalp
ZAIGPs1VGEyhxgJ0p1E9EPyT6eF5Vl9cPGAGJ32Z/EV0H3c5YW591J+8aAL+gHQQ
NiROdypWrjGRkWDjIB0Xt3y35tD6idjQ1Y1YX49nrzeFQ+L/QPPDzY4mlyss2Z9S
lU2PAkxIxyW1+eZYIx+ij17BKyC6Kn1w4eimWOoJNpcp5FR6x8k9/JMjOtfrEwlQ
w3Cv5hUTek+M0KDVJJYc8fUIWbZxT8VzijMG7aOLYDMZyR18i56DLsIkKDBknd8P
ALTXoz8bKAtS2OtLLnJVwXpU3HJbTfqzOsGm3yC6wiFVkDDq7XQc8JRoJvOGfR7z
NZOfQFpgs1woH+zZJ6LCRjuePHjRP9AYcOVt2BW3UWvS
-----END CERTIFICATE-----
