Certificate:
    Data:
        Version: 3 (0x2)
        Serial Number: 10918 (0x2aa6)
    Signature Algorithm: sha256WithRSAEncryption
        Issuer: C=US, ST=OH, L=Columbus, O=VikingVPN, OU=MyOrganizationalUnit, CN=VikingVPN CA/name=EasyRSA/emailAddress=me@myhost.mydomain
        Validity
            Not Before: May  9 10:42:34 2017 GMT
            Not After : May  7 10:42:34 2027 GMT
        Subject: CN=Client2570Certbb6b57
        Subject Public Key Info:
            Public Key Algorithm: rsaEncryption
                Public-Key: (4096 bit)
                Modulus:
                    00:ae:b7:43:7d:7b:30:3a:39:62:c1:f1:3d:a2:fe:
                    01:75:de:d3:22:9d:ae:a3:cf:74:1a:ca:03:92:51:
                    4e:59:22:74:bd:f8:7b:3c:91:e5:d4:5c:5d:0f:fb:
                    ff:f2:89:79:3f:b0:28:7e:e2:f7:a5:e0:fd:1d:ff:
                    e5:b7:45:34:3a:c1:90:84:02:7f:90:4d:f7:de:4a:
                    42:ab:e0:a7:72:61:14:c7:e2:24:85:d7:ad:76:86:
                    4f:21:cf:e4:5e:d3:2b:21:fd:e0:68:e3:08:a4:0e:
                    ab:ad:4f:13:2f:f7:3c:19:b1:d0:ab:ec:5d:a9:f7:
                    7b:8b:2d:00:5a:32:71:8c:fd:4b:e1:95:40:d5:16:
                    e2:20:79:b4:e3:23:80:50:4c:9c:93:6f:39:fb:19:
                    0a:57:4c:be:12:d6:fa:ae:6d:a3:d9:c8:b4:d4:d5:
                    ac:38:33:26:34:e7:65:a9:d9:82:de:f8:e5:8b:4a:
                    70:ae:f2:f9:f0:27:f9:b1:1e:39:cc:76:44:06:82:
                    4d:ea:98:46:3d:ad:b1:f5:21:64:6f:5f:74:c7:96:
                    a7:5e:37:8b:82:69:46:39:fc:1f:43:95:88:b2:f6:
                    f3:f0:51:23:ab:8f:96:06:6e:8c:29:f5:cc:55:50:
                    10:ca:44:e7:5d:29:5c:53:22:ad:6a:e3:27:2a:3b:
                    b2:c3:3e:d9:ba:61:c7:89:2c:ac:16:11:cc:ad:a1:
                    c9:fd:bc:61:54:a5:e8:b9:63:f4:99:d9:d8:89:00:
                    79:f8:f5:36:ac:6c:3c:18:ff:fe:ee:32:19:da:04:
                    c2:bb:1c:fb:99:82:78:b8:4d:b0:8b:b3:95:c8:c3:
                    24:62:48:b0:5d:16:f4:bb:eb:0b:52:8e:18:08:9e:
                    e5:84:44:26:6a:66:a2:68:08:0c:13:f6:60:60:b1:
                    cb:51:0a:87:e4:5d:bf:92:14:a0:30:f0:7b:87:fc:
                    96:f1:6d:f3:47:78:b3:77:92:ba:4a:eb:36:7f:18:
                    7b:f2:a9:53:bf:ec:0f:62:c0:e1:e4:14:3e:33:48:
                    50:40:ad:d0:eb:fa:96:89:68:96:d9:f2:7c:9c:33:
                    c1:5d:92:6b:66:ae:8a:e1:95:c6:fe:f6:30:53:77:
                    6b:64:1a:6a:c9:a0:6a:ca:0c:46:73:04:25:f5:94:
                    48:f2:47:fe:c3:07:38:c8:1d:69:56:df:01:c8:7b:
                    5e:84:83:c9:36:4c:b4:bc:c3:aa:47:a4:e3:e2:6e:
                    e6:4b:79:4e:96:a1:1a:2b:c2:49:b7:31:0b:19:0f:
                    10:cf:ab:00:cc:ba:b6:41:42:c5:53:9f:78:d4:e4:
                    91:46:b1:ec:6f:bf:44:c4:f5:44:d1:6b:80:88:21:
                    07:19:09
                Exponent: 65537 (0x10001)
        X509v3 extensions:
            X509v3 Basic Constraints: 
                CA:FALSE
            Netscape Comment: 
                Easy-RSA Generated Certificate
            X509v3 Subject Key Identifier: 
                F9:9E:8F:A2:1B:74:6F:FD:01:CA:A2:0A:A8:CD:61:E7:DF:E2:1D:78
            X509v3 Authority Key Identifier: 
                keyid:12:CD:60:04:D2:A0:80:9E:70:ED:C6:99:B8:7B:2C:C6:52:FD:19:A1
                DirName:/C=US/ST=OH/L=Columbus/O=VikingVPN/OU=MyOrganizationalUnit/CN=VikingVPN CA/name=EasyRSA/emailAddress=me@myhost.mydomain
                serial:CF:35:85:EE:80:BF:2A:3E

            X509v3 Extended Key Usage: 
                TLS Web Client Authentication
            X509v3 Key Usage: 
                Digital Signature
    Signature Algorithm: sha256WithRSAEncryption
         6f:df:78:92:71:11:ef:96:48:10:a3:26:5c:b5:24:f8:42:f7:
         a1:2f:ee:c9:f3:62:2f:90:8f:ef:36:4b:3a:21:40:83:68:0f:
         47:e4:b8:34:3c:d4:b3:47:a8:0e:89:ac:f5:91:75:e4:5f:ca:
         22:0e:ee:fa:60:1c:b1:e2:79:98:cd:10:22:67:4e:30:5e:ff:
         8c:88:44:aa:a3:f3:11:5a:36:aa:33:f1:e5:97:bb:02:bf:38:
         b2:e6:22:42:d0:83:75:bf:52:50:f2:38:c1:52:90:47:9a:b4:
         0e:ec:c0:21:4e:f8:e5:6c:bd:30:c3:7d:2d:33:6c:8b:97:0b:
         c9:ab:76:24:a8:cb:98:35:0c:f7:6c:b3:45:4d:92:58:51:be:
         62:8c:f4:14:dc:df:18:2b:c0:56:f1:60:57:59:d0:83:4c:0c:
         7e:0e:38:85:79:61:98:d2:1b:d1:bf:43:95:b2:01:d2:bb:65:
         62:43:de:3c:a6:27:d6:a4:e9:57:8e:b0:6f:24:a1:75:6c:b4:
         f8:bc:3e:b6:60:5b:a7:42:6a:77:e5:5d:e3:e7:92:2c:63:27:
         d8:1e:f2:14:48:4c:17:c6:b0:52:cd:80:27:81:ae:7b:da:4d:
         a2:4a:a7:38:de:97:1e:e5:4d:1c:3a:fd:d4:d1:67:98:04:66:
         cd:14:7b:b5:ca:a1:7e:3a:e7:55:c0:79:82:3c:34:d5:9d:86:
         e1:73:6a:74:bc:9e:03:bc:a5:40:23:66:03:aa:69:9e:53:6e:
         0c:07:bc:8c:2c:d0:20:56:7c:02:eb:dc:ff:e3:9d:67:ff:e7:
         60:a3:5f:62:0f:ea:6b:af:e1:1a:cf:6c:13:e7:a0:63:c0:5a:
         15:25:dc:08:bc:3a:94:3c:f0:e0:76:d4:be:a5:ac:6b:90:c9:
         7d:94:29:a2:2b:ef:ee:68:b0:6c:06:94:b7:09:6a:c6:df:08:
         bb:20:3f:4f:59:4b:97:a9:a6:2c:69:35:16:94:bf:cd:87:4e:
         29:c9:34:0e:56:ac:a4:f4:c1:63:d2:b2:ed:4f:fc:bc:23:f5:
         58:33:e5:01:81:0c:27:1e:2a:f1:07:e5:1a:de:e8:da:e0:a9:
         eb:51:43:21:3c:5b:ea:e7:f3:fa:53:c3:da:29:ec:53:cf:cb:
         e2:93:ce:1b:98:74:a4:54:67:37:41:51:ac:bc:09:7c:c7:15:
         eb:7c:61:7f:c4:0a:90:eb:4a:a7:29:8c:d8:23:13:62:b7:bc:
         b3:41:8d:ae:a7:15:57:7c:1f:56:a3:c8:df:6c:03:23:c6:4c:
         a8:c1:1c:b3:61:3b:fa:29:41:c1:bc:8c:88:b9:cd:90:e2:be:
         f2:c2:12:25:20:f6:be:48
-----BEGIN CERTIFICATE-----
MIIGrTCCBJWgAwIBAgICKqYwDQYJKoZIhvcNAQELBQAwgawxCzAJBgNVBAYTAlVT
MQswCQYDVQQIEwJPSDERMA8GA1UEBxMIQ29sdW1idXMxEjAQBgNVBAoTCVZpa2lu
Z1ZQTjEdMBsGA1UECxMUTXlPcmdhbml6YXRpb25hbFVuaXQxFTATBgNVBAMTDFZp
a2luZ1ZQTiBDQTEQMA4GA1UEKRMHRWFzeVJTQTEhMB8GCSqGSIb3DQEJARYSbWVA
bXlob3N0Lm15ZG9tYWluMB4XDTE3MDUwOTEwNDIzNFoXDTI3MDUwNzEwNDIzNFow
HzEdMBsGA1UEAxMUQ2xpZW50MjU3MENlcnRiYjZiNTcwggIiMA0GCSqGSIb3DQEB
AQUAA4ICDwAwggIKAoICAQCut0N9ezA6OWLB8T2i/gF13tMina6jz3QaygOSUU5Z
InS9+Hs8keXUXF0P+//yiXk/sCh+4vel4P0d/+W3RTQ6wZCEAn+QTffeSkKr4Kdy
YRTH4iSF1612hk8hz+Re0ysh/eBo4wikDqutTxMv9zwZsdCr7F2p93uLLQBaMnGM
/UvhlUDVFuIgebTjI4BQTJyTbzn7GQpXTL4S1vqubaPZyLTU1aw4MyY052Wp2YLe
+OWLSnCu8vnwJ/mxHjnMdkQGgk3qmEY9rbH1IWRvX3THlqdeN4uCaUY5/B9DlYiy
9vPwUSOrj5YGbowp9cxVUBDKROddKVxTIq1q4ycqO7LDPtm6YceJLKwWEcytocn9
vGFUpei5Y/SZ2diJAHn49TasbDwY//7uMhnaBMK7HPuZgni4TbCLs5XIwyRiSLBd
FvS76wtSjhgInuWERCZqZqJoCAwT9mBgsctRCofkXb+SFKAw8HuH/JbxbfNHeLN3
krpK6zZ/GHvyqVO/7A9iwOHkFD4zSFBArdDr+paJaJbZ8nycM8Fdkmtmrorhlcb+
9jBTd2tkGmrJoGrKDEZzBCX1lEjyR/7DBzjIHWlW3wHIe16Eg8k2TLS8w6pHpOPi
buZLeU6WoRorwkm3MQsZDxDPqwDMurZBQsVTn3jU5JFGsexvv0TE9UTRa4CIIQcZ
CQIDAQABo4IBYzCCAV8wCQYDVR0TBAIwADAtBglghkgBhvhCAQ0EIBYeRWFzeS1S
U0EgR2VuZXJhdGVkIENlcnRpZmljYXRlMB0GA1UdDgQWBBT5no+iG3Rv/QHKogqo
zWHn3+IdeDCB4QYDVR0jBIHZMIHWgBQSzWAE0qCAnnDtxpm4eyzGUv0ZoaGBsqSB
rzCBrDELMAkGA1UEBhMCVVMxCzAJBgNVBAgTAk9IMREwDwYDVQQHEwhDb2x1bWJ1
czESMBAGA1UEChMJVmlraW5nVlBOMR0wGwYDVQQLExRNeU9yZ2FuaXphdGlvbmFs
VW5pdDEVMBMGA1UEAxMMVmlraW5nVlBOIENBMRAwDgYDVQQpEwdFYXN5UlNBMSEw
HwYJKoZIhvcNAQkBFhJtZUBteWhvc3QubXlkb21haW6CCQDPNYXugL8qPjATBgNV
HSUEDDAKBggrBgEFBQcDAjALBgNVHQ8EBAMCB4AwDQYJKoZIhvcNAQELBQADggIB
AG/feJJxEe+WSBCjJly1JPhC96Ev7snzYi+Qj+82SzohQINoD0fkuDQ81LNHqA6J
rPWRdeRfyiIO7vpgHLHieZjNECJnTjBe/4yIRKqj8xFaNqoz8eWXuwK/OLLmIkLQ
g3W/UlDyOMFSkEeatA7swCFO+OVsvTDDfS0zbIuXC8mrdiSoy5g1DPdss0VNklhR
vmKM9BTc3xgrwFbxYFdZ0INMDH4OOIV5YZjSG9G/Q5WyAdK7ZWJD3jymJ9ak6VeO
sG8koXVstPi8PrZgW6dCanflXePnkixjJ9ge8hRITBfGsFLNgCeBrnvaTaJKpzje
lx7lTRw6/dTRZ5gEZs0Ue7XKoX4651XAeYI8NNWdhuFzanS8ngO8pUAjZgOqaZ5T
bgwHvIws0CBWfALr3P/jnWf/52CjX2IP6muv4RrPbBPnoGPAWhUl3Ai8OpQ88OB2
1L6lrGuQyX2UKaIr7+5osGwGlLcJasbfCLsgP09ZS5eppixpNRaUv82HTinJNA5W
rKT0wWPSsu1P/Lwj9Vgz5QGBDCceKvEH5Rre6NrgqetRQyE8W+rn8/pTw9op7FPP
y+KTzhuYdKRUZzdBUay8CXzHFet8YX/ECpDrSqcpjNgjE2K3vLNBja6nFVd8H1aj
yN9sAyPGTKjBHLNhO/opQcG8jIi5zZDivvLCEiUg9r5I
-----END CERTIFICATE-----
