Certificate:
    Data:
        Version: 3 (0x2)
        Serial Number: 10935 (0x2ab7)
    Signature Algorithm: sha256WithRSAEncryption
        Issuer: C=US, ST=OH, L=Columbus, O=VikingVPN, OU=MyOrganizationalUnit, CN=VikingVPN CA/name=EasyRSA/emailAddress=me@myhost.mydomain
        Validity
            Not Before: May 12 23:20:17 2017 GMT
            Not After : May 10 23:20:17 2027 GMT
        Subject: CN=Client2823Cert2c3189
        Subject Public Key Info:
            Public Key Algorithm: rsaEncryption
                Public-Key: (4096 bit)
                Modulus:
                    00:e1:0a:dd:df:17:6e:2b:3d:2e:12:43:73:4e:51:
                    98:2c:81:a2:12:9d:9a:5b:f0:bb:f3:f7:46:2e:78:
                    d2:49:f7:d1:6d:27:3b:fc:c1:55:89:a6:9e:d8:e4:
                    01:25:55:2c:e2:ce:e0:78:eb:ac:72:f1:99:8b:15:
                    28:a9:65:bf:2f:76:49:ad:69:0b:34:52:2b:2f:a5:
                    9e:de:57:41:84:2f:17:c2:9b:9f:5e:69:d2:4a:f4:
                    9e:aa:fa:d6:93:cc:1d:a9:2a:a8:22:b7:9e:c4:f9:
                    65:c1:58:c5:db:98:84:f9:13:79:42:a3:fd:0f:93:
                    40:3c:c8:c8:86:2f:b2:d7:ba:ba:65:69:2e:90:b2:
                    89:8b:9a:c0:2e:1d:8a:b1:1f:c7:24:54:a4:b4:a1:
                    8e:24:c2:b7:06:f4:08:a1:6c:4b:13:79:18:e3:db:
                    4f:a9:dd:f1:b8:36:0f:10:f3:a9:c5:a0:4e:9b:20:
                    df:24:f2:7e:ed:37:ee:69:54:a8:31:d1:a4:03:f9:
                    89:60:96:7d:c8:5c:6c:bc:db:f8:0a:44:f5:ce:a2:
                    a5:65:52:8d:85:b9:84:5d:95:c7:45:13:68:3d:fe:
                    00:1e:40:fd:8d:39:55:26:c9:c3:43:0a:c1:fc:26:
                    8d:de:ca:3c:81:f7:3f:ef:eb:f6:37:5b:5e:92:72:
                    9b:e1:ef:4b:91:12:a9:0a:2d:5d:b6:d3:90:80:6d:
                    d9:a7:98:64:0b:c2:5d:b7:3a:4b:2a:15:5a:ea:b7:
                    1e:05:b7:78:ab:84:2d:5e:5d:8c:b5:b3:18:28:3c:
                    b7:99:86:92:77:4a:8e:e4:d2:a3:c7:a9:1e:52:e0:
                    3b:fc:a8:75:83:a2:35:8b:77:51:c2:a7:51:79:88:
                    1d:d8:d0:b7:54:2a:db:37:25:d6:b1:ff:d7:9f:ba:
                    70:1d:bc:7b:db:99:6b:3a:77:f5:ea:f3:1d:8d:40:
                    06:ae:a5:84:dc:cc:59:5e:36:fd:70:20:cf:83:23:
                    ff:08:6c:74:2f:5c:91:6e:77:a9:58:45:b3:ae:2b:
                    f7:fe:d6:5c:fd:da:fb:4b:96:a3:6c:48:a0:54:bd:
                    ed:9a:2b:67:32:53:6a:76:e4:0b:26:cc:ea:f2:4c:
                    7c:e6:92:13:d3:d3:f7:a0:ee:08:37:5b:d6:43:d9:
                    12:65:3b:b1:99:0a:53:67:5c:c6:e7:c2:f9:c6:39:
                    65:f1:8a:b4:fa:e4:dd:0b:a4:0f:97:17:bc:c3:61:
                    3b:40:91:d7:68:c1:7a:f7:8f:da:ce:fd:66:50:0a:
                    c7:dd:a2:f9:b6:f2:2d:a4:fe:a0:f5:0c:28:2f:c0:
                    57:47:c5:12:07:36:81:8f:dd:82:37:e1:06:f2:af:
                    5c:2e:65
                Exponent: 65537 (0x10001)
        X509v3 extensions:
            X509v3 Basic Constraints: 
                CA:FALSE
            Netscape Comment: 
                Easy-RSA Generated Certificate
            X509v3 Subject Key Identifier: 
                EF:56:4A:91:73:DD:64:BF:E9:FB:6C:19:66:E5:A6:C6:FB:0A:2C:3A
            X509v3 Authority Key Identifier: 
                keyid:12:CD:60:04:D2:A0:80:9E:70:ED:C6:99:B8:7B:2C:C6:52:FD:19:A1
                DirName:/C=US/ST=OH/L=Columbus/O=VikingVPN/OU=MyOrganizationalUnit/CN=VikingVPN CA/name=EasyRSA/emailAddress=me@myhost.mydomain
                serial:CF:35:85:EE:80:BF:2A:3E

            X509v3 Extended Key Usage: 
                TLS Web Client Authentication
            X509v3 Key Usage: 
                Digital Signature
    Signature Algorithm: sha256WithRSAEncryption
         29:5a:fb:9d:c7:17:ae:1f:a7:7b:2e:13:77:a7:84:c9:d8:76:
         28:17:49:5a:09:2e:0b:8c:43:b6:27:c1:09:2f:2a:9f:98:68:
         61:d4:ba:d9:1f:69:2f:62:9a:03:72:9d:4b:ac:34:be:33:ea:
         2a:78:a1:4f:5b:42:ef:58:02:da:0d:65:d6:9f:7b:1d:fb:60:
         e4:bb:11:c5:d2:35:58:08:d0:21:5c:17:4d:9b:35:3e:11:89:
         71:56:c2:e1:4d:cf:3e:3a:74:cb:ca:08:4c:b4:87:b8:38:a7:
         1a:f9:92:be:fd:2b:38:cb:2e:99:cc:5d:8f:e4:3f:ba:d5:5f:
         24:ec:c2:7d:2d:11:97:2d:f1:3c:50:83:04:38:8f:06:23:f0:
         8b:f1:3f:09:ed:24:15:6d:78:4a:ff:c7:d5:9e:10:7c:a6:27:
         36:85:0d:96:6a:9d:79:01:bc:b8:ad:4d:da:2f:41:07:33:80:
         ea:4e:7c:4b:c7:79:bb:4e:34:1c:59:97:26:50:a4:2e:af:74:
         03:a1:24:0f:ab:f7:39:d4:a8:c3:27:65:24:2a:96:31:92:2f:
         6f:8e:1a:5a:0f:ca:dd:b1:6f:d3:98:96:73:de:51:1c:20:93:
         14:4c:cb:3e:55:7b:7f:68:4e:72:3c:6d:90:ec:f3:36:9b:af:
         b0:50:7d:af:8a:6b:e6:fc:fb:8e:51:38:8d:0e:50:9d:62:1e:
         2a:25:79:95:1a:6a:5f:87:97:37:97:03:f8:c3:42:0c:f1:95:
         fd:0b:96:82:09:fc:40:bc:40:d8:13:5e:16:c5:60:b8:3f:ca:
         de:d2:4f:16:18:c5:29:b6:ac:7c:a2:a3:3e:91:de:38:cb:09:
         db:b0:52:aa:cb:65:bf:7d:5d:1e:5d:13:e9:22:d0:22:48:51:
         ed:ff:c6:94:d6:35:d0:8a:0d:1c:7d:67:ba:98:d4:81:b7:25:
         af:45:40:dc:56:6d:75:c4:44:20:d1:09:1a:39:5b:87:a1:39:
         89:1f:89:ed:2d:07:5f:e9:7f:94:0b:0d:8a:08:05:c8:e7:e3:
         3b:be:c0:53:e7:e1:d8:bf:b4:37:1c:c9:f7:15:5f:a5:28:32:
         9a:8c:65:93:f1:b6:a2:5f:0c:37:4b:f3:59:f9:d6:ef:ab:05:
         b9:c2:5d:af:d5:b4:c1:10:7f:dd:e7:a6:bb:8f:0a:19:78:7a:
         e7:47:3e:cc:54:1c:75:dc:ea:42:38:c5:8d:90:da:c9:bc:92:
         bf:a1:50:b2:61:3e:fc:f8:82:48:56:08:04:a4:e2:1e:f6:56:
         60:8a:41:ba:2d:9a:29:ea:b4:56:fc:7e:c1:c3:93:f7:cc:ae:
         d3:42:78:ae:79:9d:ea:5b
-----BEGIN CERTIFICATE-----
MIIGrTCCBJWgAwIBAgICKrcwDQYJKoZIhvcNAQELBQAwgawxCzAJBgNVBAYTAlVT
MQswCQYDVQQIEwJPSDERMA8GA1UEBxMIQ29sdW1idXMxEjAQBgNVBAoTCVZpa2lu
Z1ZQTjEdMBsGA1UECxMUTXlPcmdhbml6YXRpb25hbFVuaXQxFTATBgNVBAMTDFZp
a2luZ1ZQTiBDQTEQMA4GA1UEKRMHRWFzeVJTQTEhMB8GCSqGSIb3DQEJARYSbWVA
bXlob3N0Lm15ZG9tYWluMB4XDTE3MDUxMjIzMjAxN1oXDTI3MDUxMDIzMjAxN1ow
HzEdMBsGA1UEAxMUQ2xpZW50MjgyM0NlcnQyYzMxODkwggIiMA0GCSqGSIb3DQEB
AQUAA4ICDwAwggIKAoICAQDhCt3fF24rPS4SQ3NOUZgsgaISnZpb8Lvz90YueNJJ
99FtJzv8wVWJpp7Y5AElVSzizuB466xy8ZmLFSipZb8vdkmtaQs0UisvpZ7eV0GE
LxfCm59eadJK9J6q+taTzB2pKqgit57E+WXBWMXbmIT5E3lCo/0Pk0A8yMiGL7LX
urplaS6QsomLmsAuHYqxH8ckVKS0oY4kwrcG9AihbEsTeRjj20+p3fG4Ng8Q86nF
oE6bIN8k8n7tN+5pVKgx0aQD+Ylgln3IXGy82/gKRPXOoqVlUo2FuYRdlcdFE2g9
/gAeQP2NOVUmycNDCsH8Jo3eyjyB9z/v6/Y3W16Scpvh70uREqkKLV2205CAbdmn
mGQLwl23OksqFVrqtx4Ft3irhC1eXYy1sxgoPLeZhpJ3So7k0qPHqR5S4Dv8qHWD
ojWLd1HCp1F5iB3Y0LdUKts3Jdax/9efunAdvHvbmWs6d/Xq8x2NQAaupYTczFle
Nv1wIM+DI/8IbHQvXJFud6lYRbOuK/f+1lz92vtLlqNsSKBUve2aK2cyU2p25Asm
zOryTHzmkhPT0/eg7gg3W9ZD2RJlO7GZClNnXMbnwvnGOWXxirT65N0LpA+XF7zD
YTtAkddowXr3j9rO/WZQCsfdovm28i2k/qD1DCgvwFdHxRIHNoGP3YI34Qbyr1wu
ZQIDAQABo4IBYzCCAV8wCQYDVR0TBAIwADAtBglghkgBhvhCAQ0EIBYeRWFzeS1S
U0EgR2VuZXJhdGVkIENlcnRpZmljYXRlMB0GA1UdDgQWBBTvVkqRc91kv+n7bBlm
5abG+wosOjCB4QYDVR0jBIHZMIHWgBQSzWAE0qCAnnDtxpm4eyzGUv0ZoaGBsqSB
rzCBrDELMAkGA1UEBhMCVVMxCzAJBgNVBAgTAk9IMREwDwYDVQQHEwhDb2x1bWJ1
czESMBAGA1UEChMJVmlraW5nVlBOMR0wGwYDVQQLExRNeU9yZ2FuaXphdGlvbmFs
VW5pdDEVMBMGA1UEAxMMVmlraW5nVlBOIENBMRAwDgYDVQQpEwdFYXN5UlNBMSEw
HwYJKoZIhvcNAQkBFhJtZUBteWhvc3QubXlkb21haW6CCQDPNYXugL8qPjATBgNV
HSUEDDAKBggrBgEFBQcDAjALBgNVHQ8EBAMCB4AwDQYJKoZIhvcNAQELBQADggIB
ACla+53HF64fp3suE3enhMnYdigXSVoJLguMQ7YnwQkvKp+YaGHUutkfaS9imgNy
nUusNL4z6ip4oU9bQu9YAtoNZdafex37YOS7EcXSNVgI0CFcF02bNT4RiXFWwuFN
zz46dMvKCEy0h7g4pxr5kr79KzjLLpnMXY/kP7rVXyTswn0tEZct8TxQgwQ4jwYj
8IvxPwntJBVteEr/x9WeEHymJzaFDZZqnXkBvLitTdovQQczgOpOfEvHebtONBxZ
lyZQpC6vdAOhJA+r9znUqMMnZSQqljGSL2+OGloPyt2xb9OYlnPeURwgkxRMyz5V
e39oTnI8bZDs8zabr7BQfa+Ka+b8+45ROI0OUJ1iHioleZUaal+HlzeXA/jDQgzx
lf0LloIJ/EC8QNgTXhbFYLg/yt7STxYYxSm2rHyioz6R3jjLCduwUqrLZb99XR5d
E+ki0CJIUe3/xpTWNdCKDRx9Z7qY1IG3Ja9FQNxWbXXERCDRCRo5W4ehOYkfie0t
B1/pf5QLDYoIBcjn4zu+wFPn4di/tDccyfcVX6UoMpqMZZPxtqJfDDdL81n51u+r
BbnCXa/VtMEQf93npruPChl4eudHPsxUHHXc6kI4xY2Q2sm8kr+hULJhPvz4gkhW
CASk4h72VmCKQbotminqtFb8fsHDk/fMrtNCeK55nepb
-----END CERTIFICATE-----
