Certificate:
    Data:
        Version: 3 (0x2)
        Serial Number: 10948 (0x2ac4)
    Signature Algorithm: sha256WithRSAEncryption
        Issuer: C=US, ST=OH, L=Columbus, O=VikingVPN, OU=MyOrganizationalUnit, CN=VikingVPN CA/name=EasyRSA/emailAddress=me@myhost.mydomain
        Validity
            Not Before: May 15 19:48:09 2017 GMT
            Not After : May 13 19:48:09 2027 GMT
        Subject: CN=Client2536Cert2856d0
        Subject Public Key Info:
            Public Key Algorithm: rsaEncryption
                Public-Key: (4096 bit)
                Modulus:
                    00:da:33:43:58:f0:70:05:f6:ad:3d:b3:25:e5:a3:
                    6e:f3:cc:49:b8:f2:46:e3:71:a4:86:e7:97:08:01:
                    0d:30:4b:ec:0e:d6:f7:88:79:60:2c:10:f8:7f:9b:
                    8e:f4:dd:d3:0f:9f:16:92:e0:03:cb:92:60:bc:b0:
                    2c:d2:f6:e3:9a:53:61:fd:2e:0f:8c:80:8c:52:55:
                    55:13:43:ea:bb:cc:bb:bd:b5:45:79:2a:54:e1:ee:
                    cb:bf:51:7f:75:84:bd:73:c1:ec:72:f4:10:91:a1:
                    f5:81:41:a2:d9:30:c5:1d:d1:6c:d9:32:e4:e2:57:
                    d7:b6:af:74:1a:09:22:66:02:4d:9a:36:ea:86:ee:
                    ea:62:79:b9:00:ae:0c:76:12:9f:10:de:45:f6:b9:
                    b0:39:1f:55:7e:88:e8:7e:64:3c:25:b1:34:60:89:
                    42:3f:b2:13:64:0a:aa:4e:51:c1:7f:cc:01:b9:1e:
                    02:85:dc:44:fb:06:49:b4:62:7e:e7:2c:15:37:c6:
                    24:ae:b7:bd:af:55:a6:a0:28:35:dc:b9:c0:26:dc:
                    ba:27:ba:bb:d8:f9:92:f0:41:41:39:72:04:90:80:
                    9a:d7:e3:6e:88:de:a5:ad:72:fc:2a:56:d3:9e:fa:
                    c9:d4:71:db:18:02:4d:ae:db:f8:7f:67:ea:2f:bd:
                    13:be:51:2c:ae:bc:71:52:62:cd:12:60:b8:fd:c6:
                    5a:fe:7e:11:41:0b:2a:d3:ba:2f:1d:29:70:3d:c3:
                    3e:a4:38:b8:93:71:db:3a:7d:1c:1b:9e:2c:88:00:
                    50:bb:35:87:68:78:68:84:29:d0:aa:2a:28:b3:c8:
                    78:5f:84:ed:7d:8f:f5:8e:76:7a:d8:dc:f5:30:40:
                    ec:22:8e:79:4f:af:06:37:49:d9:12:e0:d6:85:56:
                    3c:13:10:6d:33:c0:fe:68:d8:ea:24:c0:ca:7f:18:
                    9b:65:3d:0f:dd:46:e9:1e:54:e6:81:a6:b6:ef:4d:
                    55:7b:a0:59:a5:35:96:cc:af:f5:30:77:82:6c:a4:
                    6f:81:0b:69:1e:ba:1a:9d:c0:9e:d8:1c:45:85:61:
                    c3:90:76:82:bc:70:54:d1:03:a6:28:c2:5c:b7:37:
                    a0:af:43:9d:92:71:99:c3:ea:fb:96:c7:22:3f:39:
                    8d:a8:b4:08:b5:d9:8b:ea:81:4b:e5:c5:33:b2:1b:
                    bc:f3:32:81:7f:dc:8f:2d:cc:a6:fd:f6:b0:ee:55:
                    85:ac:4f:c7:25:e3:a2:d1:22:21:87:8d:28:ea:39:
                    1b:f2:9f:e6:fc:d4:86:64:b0:c7:03:56:38:0a:f2:
                    6a:11:25:c2:8b:3b:93:e5:12:07:82:76:ec:e1:5e:
                    83:f5:c5
                Exponent: 65537 (0x10001)
        X509v3 extensions:
            X509v3 Basic Constraints: 
                CA:FALSE
            Netscape Comment: 
                Easy-RSA Generated Certificate
            X509v3 Subject Key Identifier: 
                E4:FF:FF:67:5B:85:F9:C5:AB:C0:65:67:CC:19:D7:3E:2E:B9:AD:B9
            X509v3 Authority Key Identifier: 
                keyid:12:CD:60:04:D2:A0:80:9E:70:ED:C6:99:B8:7B:2C:C6:52:FD:19:A1
                DirName:/C=US/ST=OH/L=Columbus/O=VikingVPN/OU=MyOrganizationalUnit/CN=VikingVPN CA/name=EasyRSA/emailAddress=me@myhost.mydomain
                serial:CF:35:85:EE:80:BF:2A:3E

            X509v3 Extended Key Usage: 
                TLS Web Client Authentication
            X509v3 Key Usage: 
                Digital Signature
    Signature Algorithm: sha256WithRSAEncryption
         b7:e4:02:c3:6d:73:64:5c:03:60:2e:30:e2:e7:88:b2:f7:66:
         f8:1f:c6:58:d8:7b:29:9d:32:f9:70:e3:66:3e:b0:df:19:cf:
         54:71:6f:f5:4d:fc:6b:a1:bc:07:57:63:57:40:f7:c2:76:ea:
         fa:ad:7f:74:06:f0:41:c4:56:a4:3e:77:61:25:d1:c9:b9:48:
         f8:18:be:9a:cf:7a:49:f8:20:93:5e:07:29:70:c7:b3:86:6e:
         15:7a:4c:2a:52:b9:62:4f:c8:84:b4:a6:d6:f4:15:20:2d:e1:
         7a:86:0d:44:b9:a5:4b:88:36:20:94:20:b0:b5:da:7a:b4:d7:
         23:9c:94:58:88:62:d2:1a:0a:8f:26:c0:5a:24:40:a7:78:a0:
         e2:bb:bc:44:f8:7f:0e:1c:0e:4e:fb:3d:56:aa:63:a4:fc:0b:
         2d:3b:f1:12:38:8e:b8:14:e2:78:b8:5b:5b:88:43:5f:d4:d7:
         66:37:cc:fb:34:76:58:de:04:16:db:7c:b3:52:db:b5:a6:1c:
         5a:86:81:68:b9:18:9b:92:d8:dc:df:30:59:b3:aa:a3:ad:af:
         5b:f7:8f:9f:14:ef:90:10:db:b8:83:31:a7:e4:60:ca:f9:65:
         be:05:22:c2:b6:bc:8e:d1:e7:df:21:09:ee:b4:41:64:68:a7:
         cc:5f:af:a1:0d:e1:a4:9a:0d:e6:fb:52:f3:e5:7d:b3:be:f6:
         a8:75:7c:57:dd:f3:b8:57:1c:8e:02:c6:b4:a6:90:f4:5c:17:
         3f:5f:a9:5e:63:33:4c:ab:59:3d:67:25:7c:86:63:56:39:b2:
         f4:c0:8b:16:a0:2f:e9:9e:84:4c:1f:0a:56:e9:9d:0e:04:0d:
         83:e8:7d:2c:9b:fc:ed:3a:24:54:f1:5f:0c:88:0f:34:67:ac:
         de:65:1c:a9:70:2c:4d:b0:15:6a:6f:df:6a:12:2b:2b:70:e9:
         7c:6b:49:a3:a1:4a:e2:c0:f5:96:d6:c4:b6:52:c1:e9:ba:fe:
         e0:8f:72:8d:eb:48:32:16:69:74:34:16:2b:9c:cf:6b:67:55:
         7a:e3:4c:e3:98:59:13:7a:31:0c:42:59:07:ef:64:70:e0:16:
         85:b4:9a:49:53:ae:ac:dd:aa:c8:a8:4f:27:c2:3e:f0:c8:3d:
         f2:01:7f:23:97:f2:0e:c0:9b:aa:02:98:7f:05:45:7b:93:0e:
         21:3a:af:88:d7:20:72:f6:93:42:68:c1:e1:db:2b:d2:80:18:
         2a:22:4f:37:ce:ec:4b:b0:6e:a8:ef:b7:f2:fc:3b:be:59:36:
         89:ec:ca:81:cd:df:6a:c5:b3:37:9c:9f:f6:47:ca:5e:0c:dd:
         27:ff:f4:fb:4d:0d:ad:58
-----BEGIN CERTIFICATE-----
MIIGrTCCBJWgAwIBAgICKsQwDQYJKoZIhvcNAQELBQAwgawxCzAJBgNVBAYTAlVT
MQswCQYDVQQIEwJPSDERMA8GA1UEBxMIQ29sdW1idXMxEjAQBgNVBAoTCVZpa2lu
Z1ZQTjEdMBsGA1UECxMUTXlPcmdhbml6YXRpb25hbFVuaXQxFTATBgNVBAMTDFZp
a2luZ1ZQTiBDQTEQMA4GA1UEKRMHRWFzeVJTQTEhMB8GCSqGSIb3DQEJARYSbWVA
bXlob3N0Lm15ZG9tYWluMB4XDTE3MDUxNTE5NDgwOVoXDTI3MDUxMzE5NDgwOVow
HzEdMBsGA1UEAxMUQ2xpZW50MjUzNkNlcnQyODU2ZDAwggIiMA0GCSqGSIb3DQEB
AQUAA4ICDwAwggIKAoICAQDaM0NY8HAF9q09syXlo27zzEm48kbjcaSG55cIAQ0w
S+wO1veIeWAsEPh/m4703dMPnxaS4APLkmC8sCzS9uOaU2H9Lg+MgIxSVVUTQ+q7
zLu9tUV5KlTh7su/UX91hL1zwexy9BCRofWBQaLZMMUd0WzZMuTiV9e2r3QaCSJm
Ak2aNuqG7upiebkArgx2Ep8Q3kX2ubA5H1V+iOh+ZDwlsTRgiUI/shNkCqpOUcF/
zAG5HgKF3ET7Bkm0Yn7nLBU3xiSut72vVaagKDXcucAm3LonurvY+ZLwQUE5cgSQ
gJrX426I3qWtcvwqVtOe+snUcdsYAk2u2/h/Z+ovvRO+USyuvHFSYs0SYLj9xlr+
fhFBCyrTui8dKXA9wz6kOLiTcds6fRwbniyIAFC7NYdoeGiEKdCqKiizyHhfhO19
j/WOdnrY3PUwQOwijnlPrwY3SdkS4NaFVjwTEG0zwP5o2OokwMp/GJtlPQ/dRuke
VOaBprbvTVV7oFmlNZbMr/Uwd4JspG+BC2keuhqdwJ7YHEWFYcOQdoK8cFTRA6Yo
wly3N6CvQ52ScZnD6vuWxyI/OY2otAi12YvqgUvlxTOyG7zzMoF/3I8tzKb99rDu
VYWsT8cl46LRIiGHjSjqORvyn+b81IZksMcDVjgK8moRJcKLO5PlEgeCduzhXoP1
xQIDAQABo4IBYzCCAV8wCQYDVR0TBAIwADAtBglghkgBhvhCAQ0EIBYeRWFzeS1S
U0EgR2VuZXJhdGVkIENlcnRpZmljYXRlMB0GA1UdDgQWBBTk//9nW4X5xavAZWfM
Gdc+LrmtuTCB4QYDVR0jBIHZMIHWgBQSzWAE0qCAnnDtxpm4eyzGUv0ZoaGBsqSB
rzCBrDELMAkGA1UEBhMCVVMxCzAJBgNVBAgTAk9IMREwDwYDVQQHEwhDb2x1bWJ1
czESMBAGA1UEChMJVmlraW5nVlBOMR0wGwYDVQQLExRNeU9yZ2FuaXphdGlvbmFs
VW5pdDEVMBMGA1UEAxMMVmlraW5nVlBOIENBMRAwDgYDVQQpEwdFYXN5UlNBMSEw
HwYJKoZIhvcNAQkBFhJtZUBteWhvc3QubXlkb21haW6CCQDPNYXugL8qPjATBgNV
HSUEDDAKBggrBgEFBQcDAjALBgNVHQ8EBAMCB4AwDQYJKoZIhvcNAQELBQADggIB
ALfkAsNtc2RcA2AuMOLniLL3ZvgfxljYeymdMvlw42Y+sN8Zz1Rxb/VN/GuhvAdX
Y1dA98J26vqtf3QG8EHEVqQ+d2El0cm5SPgYvprPekn4IJNeBylwx7OGbhV6TCpS
uWJPyIS0ptb0FSAt4XqGDUS5pUuINiCUILC12nq01yOclFiIYtIaCo8mwFokQKd4
oOK7vET4fw4cDk77PVaqY6T8Cy078RI4jrgU4ni4W1uIQ1/U12Y3zPs0dljeBBbb
fLNS27WmHFqGgWi5GJuS2NzfMFmzqqOtr1v3j58U75AQ27iDMafkYMr5Zb4FIsK2
vI7R598hCe60QWRop8xfr6EN4aSaDeb7UvPlfbO+9qh1fFfd87hXHI4CxrSmkPRc
Fz9fqV5jM0yrWT1nJXyGY1Y5svTAixagL+mehEwfClbpnQ4EDYPofSyb/O06JFTx
XwyIDzRnrN5lHKlwLE2wFWpv32oSKytw6XxrSaOhSuLA9ZbWxLZSwem6/uCPco3r
SDIWaXQ0Fiucz2tnVXrjTOOYWRN6MQxCWQfvZHDgFoW0mklTrqzdqsioTyfCPvDI
PfIBfyOX8g7Am6oCmH8FRXuTDiE6r4jXIHL2k0JoweHbK9KAGCoiTzfO7Euwbqjv
t/L8O75ZNonsyoHN32rFszecn/ZHyl4M3Sf/9PtNDa1Y
-----END CERTIFICATE-----
