Certificate:
    Data:
        Version: 3 (0x2)
        Serial Number: 10972 (0x2adc)
    Signature Algorithm: sha256WithRSAEncryption
        Issuer: C=US, ST=OH, L=Columbus, O=VikingVPN, OU=MyOrganizationalUnit, CN=VikingVPN CA/name=EasyRSA/emailAddress=me@myhost.mydomain
        Validity
            Not Before: May 19 02:21:24 2017 GMT
            Not After : May 17 02:21:24 2027 GMT
        Subject: CN=Client2920Cert6605a8
        Subject Public Key Info:
            Public Key Algorithm: rsaEncryption
                Public-Key: (4096 bit)
                Modulus:
                    00:9e:87:4c:70:0c:89:0b:5c:76:f6:41:0e:89:71:
                    dd:f1:ff:3e:e5:30:e1:a7:e7:60:16:1b:d1:2e:bc:
                    1d:6d:4e:e5:e2:a1:1d:3a:76:d4:e1:b9:85:93:ff:
                    38:32:84:8f:92:c3:d6:ea:3c:51:0b:76:1f:ae:7b:
                    81:43:55:3c:13:30:3c:f1:31:a4:33:96:31:19:7e:
                    f7:a9:ac:39:b3:33:7f:6e:ad:87:ca:0f:da:11:31:
                    d3:fc:5f:d5:50:68:f3:57:ca:12:e6:fb:55:78:7e:
                    c0:6a:01:06:73:15:f9:60:3e:38:10:fa:90:10:63:
                    55:82:77:6e:f2:06:8d:6d:f5:ef:46:86:c4:57:4e:
                    50:4e:f9:2c:e0:b1:61:35:7a:a1:ab:55:d7:8a:06:
                    01:fc:88:58:0b:92:6e:1a:64:fb:25:9d:54:01:25:
                    36:3b:bb:09:eb:f3:05:5d:d8:41:15:60:bc:ee:cb:
                    5e:a3:fb:c6:70:78:b6:44:17:f3:a0:19:34:49:bd:
                    4e:8d:3d:c5:59:d0:bb:c8:52:a3:11:9a:38:00:e1:
                    5e:00:d2:0d:54:e2:fb:2e:fa:64:7d:ec:ee:c3:79:
                    41:13:3c:dd:e8:fa:a8:0a:c5:69:d3:67:28:8c:f4:
                    1b:d8:2f:ce:af:3e:1a:80:2e:50:e8:17:86:e2:8b:
                    ae:a5:44:88:b9:5d:a9:5d:19:1d:3b:0c:72:4e:c8:
                    c8:cc:fa:4c:85:a8:9c:2c:09:eb:4d:96:4f:0b:18:
                    b2:72:59:48:55:45:5b:d7:5c:68:16:3b:62:30:42:
                    85:ee:2a:c1:87:f0:b9:3c:4f:67:ae:a9:7d:2f:a7:
                    a6:63:65:7c:e5:29:a4:46:08:93:74:80:47:aa:a9:
                    11:71:90:b0:62:fc:f5:02:57:5e:5a:55:3b:da:85:
                    a5:cd:5d:d6:ec:35:bb:a7:10:eb:34:d4:95:b3:8f:
                    9d:ba:a2:63:56:dc:6f:60:96:df:3c:fc:3d:c6:dc:
                    9a:5f:61:e2:a7:af:80:d5:1f:d1:30:f1:ce:cf:78:
                    48:b6:e3:99:f6:60:dc:b5:67:ac:82:ef:b3:0c:50:
                    34:6a:d7:c9:66:ba:ef:57:6b:17:d3:c6:38:d0:81:
                    01:76:a3:6f:36:c7:cf:83:cc:e9:5a:55:b4:8b:28:
                    c1:3d:f9:a1:66:c3:27:b8:10:59:75:c0:86:be:07:
                    0c:a2:0f:00:18:f0:0a:ab:64:89:af:05:68:3e:cf:
                    fc:25:e1:0f:ed:20:da:70:57:97:dd:87:9d:1f:9b:
                    f7:fb:52:86:c8:6e:64:8c:45:19:da:a9:d7:f1:94:
                    df:23:73:02:11:a2:39:71:b3:30:56:9f:f3:0e:d9:
                    05:8f:91
                Exponent: 65537 (0x10001)
        X509v3 extensions:
            X509v3 Basic Constraints: 
                CA:FALSE
            Netscape Comment: 
                Easy-RSA Generated Certificate
            X509v3 Subject Key Identifier: 
                6D:68:FD:F9:8C:1F:47:DE:FA:70:EE:1B:09:71:F5:AB:D0:9B:4A:0B
            X509v3 Authority Key Identifier: 
                keyid:12:CD:60:04:D2:A0:80:9E:70:ED:C6:99:B8:7B:2C:C6:52:FD:19:A1
                DirName:/C=US/ST=OH/L=Columbus/O=VikingVPN/OU=MyOrganizationalUnit/CN=VikingVPN CA/name=EasyRSA/emailAddress=me@myhost.mydomain
                serial:CF:35:85:EE:80:BF:2A:3E

            X509v3 Extended Key Usage: 
                TLS Web Client Authentication
            X509v3 Key Usage: 
                Digital Signature
    Signature Algorithm: sha256WithRSAEncryption
         ab:9b:d5:ae:78:81:28:29:3d:a0:72:1f:3c:52:28:b8:bd:9d:
         2a:ef:a5:8e:88:ba:37:43:09:0b:29:16:96:6d:d6:86:eb:1b:
         0b:21:6f:9c:9c:68:df:86:03:ad:cc:23:25:18:27:1b:88:4d:
         7c:18:d7:72:fc:29:23:8b:bc:7b:ce:d0:5b:46:bb:58:e8:53:
         f6:58:93:7b:93:c8:e7:88:88:f4:0f:21:ff:96:cf:7a:fd:37:
         a5:7c:a7:b2:72:4b:5d:8a:53:e2:0b:b7:41:0b:ab:72:83:a8:
         b3:72:2a:e6:01:e8:f4:90:0a:b2:ce:d6:3a:71:7c:e2:80:c0:
         cb:99:5d:7e:d4:ed:67:74:b1:6d:54:2f:36:70:71:f1:ad:4c:
         65:c2:4b:26:84:9a:76:a9:d6:07:8d:3a:24:70:cf:b7:cf:b5:
         0e:c4:5a:22:aa:a2:7b:69:0e:dc:80:07:02:9e:0f:65:eb:25:
         e7:86:6f:af:87:a6:ae:34:a6:9e:79:58:a0:8d:f7:fc:52:b5:
         74:0a:ff:98:04:3d:72:b1:0d:e5:4e:24:83:ea:d5:62:e0:32:
         0f:f1:12:b2:c5:9f:ea:79:e3:9e:72:75:ad:09:fa:33:ad:eb:
         de:d9:be:5e:da:d7:ec:a8:1a:bb:96:af:f4:0d:eb:f4:ae:9c:
         63:dd:58:c8:d2:4c:a9:c5:19:d9:82:86:ea:9c:bd:0a:cc:23:
         76:c3:07:3e:40:5b:a9:72:f6:1d:0d:20:81:54:d3:6e:89:13:
         da:79:2d:6f:9d:32:d2:ab:3b:45:6d:e5:3a:11:f0:f0:b0:c8:
         86:56:b7:7e:3b:c6:40:f5:da:96:cd:fc:71:c7:4e:29:ca:16:
         ba:c7:0c:e3:3f:67:09:89:b3:06:3f:99:0d:7c:b9:a4:5f:b5:
         3e:ac:a4:74:92:e9:22:f1:92:02:a1:09:b3:c6:af:6e:66:47:
         93:92:5c:5a:78:90:ba:6c:91:df:8d:bb:62:f2:bf:ec:a8:3a:
         40:de:61:4e:62:c1:5c:fb:7b:00:0e:c1:ed:95:18:4c:37:0a:
         84:87:26:0d:c7:ef:9b:8a:eb:d0:67:d8:af:83:3e:0f:b0:67:
         30:c7:3c:cd:86:7c:34:82:9f:24:11:b2:7d:cc:fd:b8:76:3a:
         fc:10:58:df:c6:45:9d:19:b9:43:5d:f2:40:e9:5d:7c:53:f8:
         60:00:fb:3d:18:45:88:62:98:13:35:b4:c9:ff:24:b2:5c:c5:
         65:e6:06:37:bf:4c:96:49:3a:6b:99:2f:f2:cf:eb:40:fc:a6:
         95:b4:55:dd:73:5e:d5:3e:4f:79:9d:0e:0b:ff:03:b4:a7:22:
         63:3c:18:b3:f1:6e:ec:52
-----BEGIN CERTIFICATE-----
MIIGrTCCBJWgAwIBAgICKtwwDQYJKoZIhvcNAQELBQAwgawxCzAJBgNVBAYTAlVT
MQswCQYDVQQIEwJPSDERMA8GA1UEBxMIQ29sdW1idXMxEjAQBgNVBAoTCVZpa2lu
Z1ZQTjEdMBsGA1UECxMUTXlPcmdhbml6YXRpb25hbFVuaXQxFTATBgNVBAMTDFZp
a2luZ1ZQTiBDQTEQMA4GA1UEKRMHRWFzeVJTQTEhMB8GCSqGSIb3DQEJARYSbWVA
bXlob3N0Lm15ZG9tYWluMB4XDTE3MDUxOTAyMjEyNFoXDTI3MDUxNzAyMjEyNFow
HzEdMBsGA1UEAxMUQ2xpZW50MjkyMENlcnQ2NjA1YTgwggIiMA0GCSqGSIb3DQEB
AQUAA4ICDwAwggIKAoICAQCeh0xwDIkLXHb2QQ6Jcd3x/z7lMOGn52AWG9EuvB1t
TuXioR06dtThuYWT/zgyhI+Sw9bqPFELdh+ue4FDVTwTMDzxMaQzljEZfveprDmz
M39urYfKD9oRMdP8X9VQaPNXyhLm+1V4fsBqAQZzFflgPjgQ+pAQY1WCd27yBo1t
9e9GhsRXTlBO+SzgsWE1eqGrVdeKBgH8iFgLkm4aZPslnVQBJTY7uwnr8wVd2EEV
YLzuy16j+8ZweLZEF/OgGTRJvU6NPcVZ0LvIUqMRmjgA4V4A0g1U4vsu+mR97O7D
eUETPN3o+qgKxWnTZyiM9BvYL86vPhqALlDoF4bii66lRIi5XaldGR07DHJOyMjM
+kyFqJwsCetNlk8LGLJyWUhVRVvXXGgWO2IwQoXuKsGH8Lk8T2euqX0vp6ZjZXzl
KaRGCJN0gEeqqRFxkLBi/PUCV15aVTvahaXNXdbsNbunEOs01JWzj526omNW3G9g
lt88/D3G3JpfYeKnr4DVH9Ew8c7PeEi245n2YNy1Z6yC77MMUDRq18lmuu9XaxfT
xjjQgQF2o282x8+DzOlaVbSLKME9+aFmwye4EFl1wIa+BwyiDwAY8AqrZImvBWg+
z/wl4Q/tINpwV5fdh50fm/f7UobIbmSMRRnaqdfxlN8jcwIRojlxszBWn/MO2QWP
kQIDAQABo4IBYzCCAV8wCQYDVR0TBAIwADAtBglghkgBhvhCAQ0EIBYeRWFzeS1S
U0EgR2VuZXJhdGVkIENlcnRpZmljYXRlMB0GA1UdDgQWBBRtaP35jB9H3vpw7hsJ
cfWr0JtKCzCB4QYDVR0jBIHZMIHWgBQSzWAE0qCAnnDtxpm4eyzGUv0ZoaGBsqSB
rzCBrDELMAkGA1UEBhMCVVMxCzAJBgNVBAgTAk9IMREwDwYDVQQHEwhDb2x1bWJ1
czESMBAGA1UEChMJVmlraW5nVlBOMR0wGwYDVQQLExRNeU9yZ2FuaXphdGlvbmFs
VW5pdDEVMBMGA1UEAxMMVmlraW5nVlBOIENBMRAwDgYDVQQpEwdFYXN5UlNBMSEw
HwYJKoZIhvcNAQkBFhJtZUBteWhvc3QubXlkb21haW6CCQDPNYXugL8qPjATBgNV
HSUEDDAKBggrBgEFBQcDAjALBgNVHQ8EBAMCB4AwDQYJKoZIhvcNAQELBQADggIB
AKub1a54gSgpPaByHzxSKLi9nSrvpY6IujdDCQspFpZt1obrGwshb5ycaN+GA63M
IyUYJxuITXwY13L8KSOLvHvO0FtGu1joU/ZYk3uTyOeIiPQPIf+Wz3r9N6V8p7Jy
S12KU+ILt0ELq3KDqLNyKuYB6PSQCrLO1jpxfOKAwMuZXX7U7Wd0sW1ULzZwcfGt
TGXCSyaEmnap1geNOiRwz7fPtQ7EWiKqontpDtyABwKeD2XrJeeGb6+Hpq40pp55
WKCN9/xStXQK/5gEPXKxDeVOJIPq1WLgMg/xErLFn+p5455yda0J+jOt697Zvl7a
1+yoGruWr/QN6/SunGPdWMjSTKnFGdmChuqcvQrMI3bDBz5AW6ly9h0NIIFU026J
E9p5LW+dMtKrO0Vt5ToR8PCwyIZWt347xkD12pbN/HHHTinKFrrHDOM/ZwmJswY/
mQ18uaRftT6spHSS6SLxkgKhCbPGr25mR5OSXFp4kLpskd+Nu2Lyv+yoOkDeYU5i
wVz7ewAOwe2VGEw3CoSHJg3H75uK69Bn2K+DPg+wZzDHPM2GfDSCnyQRsn3M/bh2
OvwQWN/GRZ0ZuUNd8kDpXXxT+GAA+z0YRYhimBM1tMn/JLJcxWXmBje/TJZJOmuZ
L/LP60D8ppW0Vd1zXtU+T3mdDgv/A7SnImM8GLPxbuxS
-----END CERTIFICATE-----
