Certificate:
    Data:
        Version: 3 (0x2)
        Serial Number: 10974 (0x2ade)
    Signature Algorithm: sha256WithRSAEncryption
        Issuer: C=US, ST=OH, L=Columbus, O=VikingVPN, OU=MyOrganizationalUnit, CN=VikingVPN CA/name=EasyRSA/emailAddress=me@myhost.mydomain
        Validity
            Not Before: May 19 20:18:04 2017 GMT
            Not After : May 17 20:18:04 2027 GMT
        Subject: CN=Client2921Cert8532ac
        Subject Public Key Info:
            Public Key Algorithm: rsaEncryption
                Public-Key: (4096 bit)
                Modulus:
                    00:d6:33:b8:e1:a7:c8:91:dc:1f:22:33:6f:a6:44:
                    e0:4e:e6:18:5c:f3:c2:6c:e7:d1:38:3b:48:1a:00:
                    ae:c6:ca:25:b6:75:5c:8e:fb:f2:3c:86:b2:11:69:
                    df:26:e0:85:66:01:0e:53:25:53:b0:fe:0c:90:a3:
                    f6:08:3c:d9:e7:28:1f:79:b2:e9:d1:b9:b5:a9:6e:
                    fe:dd:0f:76:63:00:0b:f9:1a:4a:89:47:16:05:67:
                    45:3c:f7:4e:6d:4b:9b:06:61:bc:aa:18:31:57:16:
                    c7:45:05:df:2e:27:3b:bd:1b:d5:2d:33:35:66:cf:
                    e2:7e:f4:ad:23:8a:2f:9a:bc:f5:5f:19:11:44:77:
                    f6:b7:03:06:84:52:cb:0f:f7:ca:8d:80:f5:c9:0a:
                    f0:07:16:3a:93:a6:ca:44:0c:9a:68:b1:bb:7e:c2:
                    e0:e8:cb:9d:f5:5c:b5:0f:78:19:c4:c8:f3:79:14:
                    31:84:70:2e:ea:9d:46:78:1b:c6:88:87:e7:7d:d2:
                    29:cb:0f:93:32:a7:0b:29:72:5f:9f:be:6a:fb:b3:
                    1e:c7:4c:b0:5d:1a:16:d9:9d:9e:82:4a:48:33:8c:
                    a4:2d:f7:02:5e:e0:be:c3:e7:b2:28:12:96:5b:81:
                    bf:8a:84:bf:b2:df:9d:1c:88:ab:47:4b:b6:2a:f5:
                    24:fc:0b:28:70:d0:a2:9a:32:a4:ed:e2:ab:d1:e4:
                    38:e8:f7:fa:f1:b0:c6:67:f0:a8:7b:e2:07:ca:60:
                    f9:03:93:f8:2e:07:03:ca:d7:92:bc:59:7b:7f:f1:
                    22:cb:f1:69:d7:7b:01:e3:59:cb:78:f0:b4:a6:64:
                    5e:b0:77:59:91:fd:5b:f5:26:42:a3:33:71:e1:25:
                    12:b1:c2:5b:58:74:c8:86:61:76:4c:61:b9:eb:5c:
                    0b:f1:1d:d3:5a:8f:25:78:80:3c:f9:df:c8:f7:cc:
                    3a:c8:ae:0c:2d:b2:88:78:2e:05:d5:0d:0d:be:fd:
                    62:87:69:66:6c:37:be:4b:20:27:87:bc:4f:d3:aa:
                    21:3b:40:17:2f:4e:dd:cc:09:8b:a5:ad:2c:9d:6d:
                    b7:4e:ca:05:39:07:71:20:38:33:d5:a3:95:fc:27:
                    43:8e:73:a9:87:57:97:63:4c:a0:bb:55:f8:3c:06:
                    b8:16:77:d3:8c:77:de:e6:9c:48:c4:ec:05:91:81:
                    e7:5c:a8:9b:a0:fc:ed:d3:29:d3:c9:dc:39:45:c0:
                    f0:eb:85:5c:6f:7a:88:a1:8f:bb:9e:85:03:06:94:
                    c7:c7:5a:46:53:f1:6e:ee:69:b0:de:4e:2c:de:ee:
                    f6:d7:46:6d:37:7a:2c:2e:eb:e0:a8:f5:86:b0:cd:
                    62:91:bd
                Exponent: 65537 (0x10001)
        X509v3 extensions:
            X509v3 Basic Constraints: 
                CA:FALSE
            Netscape Comment: 
                Easy-RSA Generated Certificate
            X509v3 Subject Key Identifier: 
                CA:5E:33:76:53:61:01:D2:61:1F:68:59:81:E5:34:3C:9F:C1:05:4C
            X509v3 Authority Key Identifier: 
                keyid:12:CD:60:04:D2:A0:80:9E:70:ED:C6:99:B8:7B:2C:C6:52:FD:19:A1
                DirName:/C=US/ST=OH/L=Columbus/O=VikingVPN/OU=MyOrganizationalUnit/CN=VikingVPN CA/name=EasyRSA/emailAddress=me@myhost.mydomain
                serial:CF:35:85:EE:80:BF:2A:3E

            X509v3 Extended Key Usage: 
                TLS Web Client Authentication
            X509v3 Key Usage: 
                Digital Signature
    Signature Algorithm: sha256WithRSAEncryption
         48:95:b4:00:d3:f0:b8:58:cb:d6:b2:15:67:08:8e:07:72:40:
         6d:60:61:62:10:0a:16:1c:ad:dd:13:c2:52:21:f0:45:c4:b0:
         ee:dc:49:d3:d8:dc:34:be:b5:cc:e0:41:4e:a2:81:5c:07:0d:
         df:3d:6a:0b:b9:04:09:b5:fd:a0:45:c5:b1:f4:4e:07:86:a6:
         53:e6:86:17:cb:75:b5:02:66:28:2c:7c:6d:9e:9b:49:58:58:
         48:d8:34:8e:c2:f1:20:bb:44:ae:88:c1:05:24:38:3e:c5:ba:
         bf:94:b5:c5:39:61:04:96:68:54:a5:3d:50:57:d1:7a:61:0f:
         e5:c7:33:09:e7:cb:bc:19:6f:8a:7b:c6:64:f1:14:02:a8:0c:
         05:99:81:28:02:7a:dc:dd:d8:4d:54:ed:27:75:ae:7e:20:13:
         c7:54:1a:28:e0:81:b1:03:04:56:7c:b8:2b:69:12:bf:8f:78:
         62:b7:19:d7:48:a3:53:71:5b:5d:db:86:75:b0:4f:4d:a9:a0:
         2d:1d:d8:42:0c:6b:22:d8:8b:f5:00:d7:54:cb:54:27:1c:4c:
         37:7b:d6:03:ea:6f:c1:b3:b2:f0:d2:7e:bf:99:2d:1e:4b:21:
         17:52:99:17:7c:08:4e:6e:76:c6:67:89:c6:a7:d1:6c:58:75:
         8e:85:6c:70:43:80:81:ab:9e:32:27:b1:87:26:ae:ad:74:40:
         6e:4e:d1:89:7d:a3:89:95:12:53:1f:b7:de:94:33:e6:27:1f:
         19:81:0c:8b:2e:34:3c:e1:7d:92:2c:09:96:a3:bb:34:c1:39:
         07:57:e1:e1:bf:e1:51:d1:71:c1:fd:e7:5c:01:ad:bd:7e:7e:
         e8:f5:29:f7:99:69:f9:80:62:27:95:22:b6:9d:32:bc:7d:ea:
         6c:ac:76:ea:4e:66:59:74:52:eb:6e:80:9c:3c:8b:ce:1e:a1:
         b7:ba:76:ad:fb:34:36:ed:e8:01:f8:49:da:be:c4:4f:1c:c8:
         d6:72:73:c2:dc:3a:36:ef:17:40:1b:9e:fe:b6:52:d4:0e:c8:
         90:9f:3f:8e:35:3f:ed:36:c5:f0:2d:98:9d:ba:5c:72:d8:6c:
         ff:0d:5e:e5:b5:15:84:65:f8:9d:ea:36:b5:43:b7:f2:1a:d7:
         a8:a9:a0:a2:3e:00:e2:b5:be:73:78:e6:e5:75:12:f2:c1:fb:
         4d:00:c9:12:f8:b5:4e:d1:e2:7b:08:6e:d5:fb:17:d5:e3:ab:
         4a:37:91:bf:2e:35:43:12:16:9e:ac:89:ce:d4:4f:4f:09:a2:
         24:08:d1:4c:0d:93:94:58:6d:bd:98:d3:b9:aa:bc:53:7e:ff:
         7c:28:7c:a7:e0:6a:30:2f
-----BEGIN CERTIFICATE-----
MIIGrTCCBJWgAwIBAgICKt4wDQYJKoZIhvcNAQELBQAwgawxCzAJBgNVBAYTAlVT
MQswCQYDVQQIEwJPSDERMA8GA1UEBxMIQ29sdW1idXMxEjAQBgNVBAoTCVZpa2lu
Z1ZQTjEdMBsGA1UECxMUTXlPcmdhbml6YXRpb25hbFVuaXQxFTATBgNVBAMTDFZp
a2luZ1ZQTiBDQTEQMA4GA1UEKRMHRWFzeVJTQTEhMB8GCSqGSIb3DQEJARYSbWVA
bXlob3N0Lm15ZG9tYWluMB4XDTE3MDUxOTIwMTgwNFoXDTI3MDUxNzIwMTgwNFow
HzEdMBsGA1UEAxMUQ2xpZW50MjkyMUNlcnQ4NTMyYWMwggIiMA0GCSqGSIb3DQEB
AQUAA4ICDwAwggIKAoICAQDWM7jhp8iR3B8iM2+mROBO5hhc88Js59E4O0gaAK7G
yiW2dVyO+/I8hrIRad8m4IVmAQ5TJVOw/gyQo/YIPNnnKB95sunRubWpbv7dD3Zj
AAv5GkqJRxYFZ0U8905tS5sGYbyqGDFXFsdFBd8uJzu9G9UtMzVmz+J+9K0jii+a
vPVfGRFEd/a3AwaEUssP98qNgPXJCvAHFjqTpspEDJposbt+wuDoy531XLUPeBnE
yPN5FDGEcC7qnUZ4G8aIh+d90inLD5Mypwspcl+fvmr7sx7HTLBdGhbZnZ6CSkgz
jKQt9wJe4L7D57IoEpZbgb+KhL+y350ciKtHS7Yq9ST8Cyhw0KKaMqTt4qvR5Djo
9/rxsMZn8Kh74gfKYPkDk/guBwPK15K8WXt/8SLL8WnXewHjWct48LSmZF6wd1mR
/Vv1JkKjM3HhJRKxwltYdMiGYXZMYbnrXAvxHdNajyV4gDz538j3zDrIrgwtsoh4
LgXVDQ2+/WKHaWZsN75LICeHvE/TqiE7QBcvTt3MCYulrSydbbdOygU5B3EgODPV
o5X8J0OOc6mHV5djTKC7Vfg8BrgWd9OMd97mnEjE7AWRgedcqJug/O3TKdPJ3DlF
wPDrhVxveoihj7uehQMGlMfHWkZT8W7uabDeTize7vbXRm03eiwu6+Co9YawzWKR
vQIDAQABo4IBYzCCAV8wCQYDVR0TBAIwADAtBglghkgBhvhCAQ0EIBYeRWFzeS1S
U0EgR2VuZXJhdGVkIENlcnRpZmljYXRlMB0GA1UdDgQWBBTKXjN2U2EB0mEfaFmB
5TQ8n8EFTDCB4QYDVR0jBIHZMIHWgBQSzWAE0qCAnnDtxpm4eyzGUv0ZoaGBsqSB
rzCBrDELMAkGA1UEBhMCVVMxCzAJBgNVBAgTAk9IMREwDwYDVQQHEwhDb2x1bWJ1
czESMBAGA1UEChMJVmlraW5nVlBOMR0wGwYDVQQLExRNeU9yZ2FuaXphdGlvbmFs
VW5pdDEVMBMGA1UEAxMMVmlraW5nVlBOIENBMRAwDgYDVQQpEwdFYXN5UlNBMSEw
HwYJKoZIhvcNAQkBFhJtZUBteWhvc3QubXlkb21haW6CCQDPNYXugL8qPjATBgNV
HSUEDDAKBggrBgEFBQcDAjALBgNVHQ8EBAMCB4AwDQYJKoZIhvcNAQELBQADggIB
AEiVtADT8LhYy9ayFWcIjgdyQG1gYWIQChYcrd0TwlIh8EXEsO7cSdPY3DS+tczg
QU6igVwHDd89agu5BAm1/aBFxbH0TgeGplPmhhfLdbUCZigsfG2em0lYWEjYNI7C
8SC7RK6IwQUkOD7Fur+UtcU5YQSWaFSlPVBX0XphD+XHMwnny7wZb4p7xmTxFAKo
DAWZgSgCetzd2E1U7Sd1rn4gE8dUGijggbEDBFZ8uCtpEr+PeGK3GddIo1NxW13b
hnWwT02poC0d2EIMayLYi/UA11TLVCccTDd71gPqb8GzsvDSfr+ZLR5LIRdSmRd8
CE5udsZnican0WxYdY6FbHBDgIGrnjInsYcmrq10QG5O0Yl9o4mVElMft96UM+Yn
HxmBDIsuNDzhfZIsCZajuzTBOQdX4eG/4VHRccH951wBrb1+fuj1KfeZafmAYieV
IradMrx96mysdupOZll0UutugJw8i84eobe6dq37NDbt6AH4Sdq+xE8cyNZyc8Lc
OjbvF0Abnv62UtQOyJCfP441P+02xfAtmJ26XHLYbP8NXuW1FYRl+J3qNrVDt/Ia
16ipoKI+AOK1vnN45uV1EvLB+00AyRL4tU7R4nsIbtX7F9Xjq0o3kb8uNUMSFp6s
ic7UT08JoiQI0UwNk5RYbb2Y07mqvFN+/3wofKfgajAv
-----END CERTIFICATE-----
