Certificate:
    Data:
        Version: 3 (0x2)
        Serial Number: 10977 (0x2ae1)
    Signature Algorithm: sha256WithRSAEncryption
        Issuer: C=US, ST=OH, L=Columbus, O=VikingVPN, OU=MyOrganizationalUnit, CN=VikingVPN CA/name=EasyRSA/emailAddress=me@myhost.mydomain
        Validity
            Not Before: May 20 11:00:12 2017 GMT
            Not After : May 18 11:00:12 2027 GMT
        Subject: CN=Client2693Cert16ff54
        Subject Public Key Info:
            Public Key Algorithm: rsaEncryption
                Public-Key: (4096 bit)
                Modulus:
                    00:b4:75:1f:34:fd:30:79:dd:e9:c7:ad:e4:5a:cd:
                    32:47:73:01:c8:1f:a6:73:96:42:e0:87:92:9a:e7:
                    34:7e:af:9b:8e:f9:74:10:88:cd:d7:23:41:87:a0:
                    ba:79:e3:43:9e:e8:0b:52:46:1a:60:70:4c:9c:67:
                    53:c5:15:68:e3:f1:7d:37:16:37:bd:92:c7:cc:55:
                    f1:08:7e:87:19:ce:7f:97:3b:eb:8c:94:81:2e:4e:
                    c7:4a:ff:fa:60:75:f2:44:1d:98:4d:fa:95:44:e9:
                    b1:b8:b9:db:42:82:6a:6a:a1:eb:90:2f:d4:15:7f:
                    87:f8:5b:63:a2:91:5f:5a:df:e4:d0:34:5b:5f:8d:
                    77:cf:cc:32:be:b5:55:48:81:0f:c7:d8:8d:cb:1f:
                    1f:ad:3d:36:9d:49:20:06:5c:27:75:98:ce:8d:03:
                    99:e8:0c:5c:10:83:80:73:d2:8c:13:98:0f:bb:e4:
                    b7:97:66:f7:97:ef:c4:33:0a:68:ab:84:d0:61:2f:
                    8b:fc:82:b5:80:1a:f2:20:4a:3c:5c:77:0b:eb:76:
                    cd:ea:57:e6:d0:6f:f4:83:23:82:89:92:93:d8:0a:
                    b3:58:bd:1d:c9:e7:d7:fc:31:5e:84:ee:c1:4f:ae:
                    c1:c5:16:54:90:2d:88:3b:7f:ae:dc:2e:e1:2c:49:
                    08:d3:1e:6a:52:72:be:da:d0:ce:46:53:fc:28:58:
                    5e:7d:84:a6:d8:20:ba:7a:3f:70:86:33:58:dc:ec:
                    2a:ec:c2:fc:33:d7:a6:6a:5c:71:a7:fd:d7:bd:a7:
                    20:f1:e5:b7:53:1e:14:1d:43:00:32:e7:d8:36:9d:
                    58:f1:09:28:6e:90:eb:43:bc:92:8d:42:99:78:23:
                    73:fb:5e:09:93:bd:b6:15:b0:9b:4f:41:1b:69:10:
                    d5:48:fd:35:cc:b3:2d:d0:bf:13:a2:d1:4e:03:20:
                    c5:fb:0a:c8:63:7f:99:0c:e1:f1:be:0c:e2:0f:cb:
                    3b:22:6e:cf:97:19:05:6c:ec:28:d6:b6:4a:06:a6:
                    d9:79:ce:66:8a:c7:f2:91:5c:fe:27:7c:6b:c0:d7:
                    77:5a:d1:b7:29:62:f7:f5:d4:2d:c2:a1:38:3d:86:
                    b6:b7:04:d0:57:38:ff:db:5f:4c:c8:90:81:18:53:
                    8e:25:2a:de:7d:e5:65:9a:55:bc:20:36:05:73:9d:
                    22:df:ed:e2:59:6a:55:ab:f0:70:a5:ea:8f:47:6a:
                    96:77:bc:86:71:31:b0:6c:dd:cf:34:f4:c1:15:c2:
                    47:5f:8d:30:ce:1d:9b:2a:46:09:12:e5:4a:a1:00:
                    fb:f6:06:71:2f:40:f5:7b:1e:90:ca:90:88:3f:1c:
                    a4:73:f5
                Exponent: 65537 (0x10001)
        X509v3 extensions:
            X509v3 Basic Constraints: 
                CA:FALSE
            Netscape Comment: 
                Easy-RSA Generated Certificate
            X509v3 Subject Key Identifier: 
                05:9F:0F:9D:0C:6A:50:14:A8:99:FF:C8:A9:52:50:FB:A1:0F:DB:C0
            X509v3 Authority Key Identifier: 
                keyid:12:CD:60:04:D2:A0:80:9E:70:ED:C6:99:B8:7B:2C:C6:52:FD:19:A1
                DirName:/C=US/ST=OH/L=Columbus/O=VikingVPN/OU=MyOrganizationalUnit/CN=VikingVPN CA/name=EasyRSA/emailAddress=me@myhost.mydomain
                serial:CF:35:85:EE:80:BF:2A:3E

            X509v3 Extended Key Usage: 
                TLS Web Client Authentication
            X509v3 Key Usage: 
                Digital Signature
    Signature Algorithm: sha256WithRSAEncryption
         b8:59:a8:d7:01:c3:99:fe:93:20:59:0a:51:0d:2e:24:c7:6e:
         e3:8c:9c:1e:d2:27:03:04:ab:1b:bd:e7:58:4a:70:bb:6a:0a:
         d0:d5:db:2e:2b:80:4c:b8:c8:f7:7b:32:7d:e7:4e:79:8e:f4:
         6f:c2:8d:25:ce:62:55:21:2f:e9:ad:2e:ad:39:09:d7:66:9b:
         51:c2:76:1e:7f:59:09:4f:01:6c:cd:41:62:7b:fb:6d:1c:b5:
         6b:04:00:0a:ba:ec:77:52:3d:2e:b2:e4:c9:f9:5c:15:8b:11:
         e3:ab:15:69:6a:85:0e:fb:74:96:56:d1:a9:19:5d:f8:5c:16:
         5c:b3:38:40:03:c0:30:4a:84:f0:f7:4e:3e:40:50:3b:41:5a:
         85:2c:cc:cb:ad:5b:a3:9e:f3:69:61:03:a4:1a:cf:df:09:34:
         98:25:92:30:79:c7:51:1f:d0:3d:84:dc:b0:17:a2:6d:89:83:
         14:d9:a1:5c:65:c8:a8:81:5b:ed:e8:f6:3f:c5:43:80:a4:a8:
         1d:17:31:af:16:aa:60:f0:bb:cf:7c:09:9d:2a:de:65:7f:33:
         67:33:ab:e3:d1:9e:9a:8f:99:66:e6:fc:e7:89:3f:8c:7c:0b:
         fa:2b:37:28:b1:fe:48:41:e8:fa:90:63:61:05:e1:e4:20:6b:
         f4:d2:8c:c8:10:0e:9c:ea:40:aa:b0:9a:72:c1:31:a3:30:5c:
         ce:eb:2a:06:b5:a5:96:be:cd:82:c8:58:ab:dd:ac:9f:98:52:
         f0:7a:13:92:4a:9e:d6:c1:b3:f4:8e:db:3a:bd:50:0b:80:6b:
         01:8c:23:84:da:05:80:fc:54:25:e7:b7:5a:6a:4f:37:d5:04:
         6d:e4:b1:27:cb:13:8e:dd:84:d3:1f:76:29:fe:b5:48:c9:5a:
         4a:fa:ff:6f:2e:d0:fd:56:c2:04:db:39:b0:a5:29:1f:ee:ac:
         08:2e:46:16:fb:47:6f:4f:bf:a0:73:c2:9f:5a:37:9c:5c:df:
         8e:99:9d:5c:fd:de:6a:a2:6d:1b:60:57:55:8f:b6:3f:50:7d:
         17:5a:97:64:c8:5c:d6:dc:0f:e7:28:32:a8:6f:a9:8a:96:ff:
         8e:ad:f4:b9:7e:09:e0:26:7d:17:8d:27:cc:dd:76:eb:7d:e9:
         32:36:19:19:c4:91:f5:05:86:9d:b0:9a:fc:32:1d:c4:12:db:
         a3:02:e8:c3:88:31:27:b5:64:bc:67:f1:35:2c:a6:51:ae:e7:
         2a:93:47:7e:41:40:c5:30:1c:b9:3e:29:d5:a8:7f:bd:8f:bf:
         6a:4d:25:f2:15:28:23:b1:d8:a5:8f:7b:da:d7:d8:a6:b2:b6:
         66:8a:a6:72:b7:41:65:9c
-----BEGIN CERTIFICATE-----
MIIGrTCCBJWgAwIBAgICKuEwDQYJKoZIhvcNAQELBQAwgawxCzAJBgNVBAYTAlVT
MQswCQYDVQQIEwJPSDERMA8GA1UEBxMIQ29sdW1idXMxEjAQBgNVBAoTCVZpa2lu
Z1ZQTjEdMBsGA1UECxMUTXlPcmdhbml6YXRpb25hbFVuaXQxFTATBgNVBAMTDFZp
a2luZ1ZQTiBDQTEQMA4GA1UEKRMHRWFzeVJTQTEhMB8GCSqGSIb3DQEJARYSbWVA
bXlob3N0Lm15ZG9tYWluMB4XDTE3MDUyMDExMDAxMloXDTI3MDUxODExMDAxMlow
HzEdMBsGA1UEAxMUQ2xpZW50MjY5M0NlcnQxNmZmNTQwggIiMA0GCSqGSIb3DQEB
AQUAA4ICDwAwggIKAoICAQC0dR80/TB53enHreRazTJHcwHIH6ZzlkLgh5Ka5zR+
r5uO+XQQiM3XI0GHoLp540Oe6AtSRhpgcEycZ1PFFWjj8X03Fje9ksfMVfEIfocZ
zn+XO+uMlIEuTsdK//pgdfJEHZhN+pVE6bG4udtCgmpqoeuQL9QVf4f4W2OikV9a
3+TQNFtfjXfPzDK+tVVIgQ/H2I3LHx+tPTadSSAGXCd1mM6NA5noDFwQg4Bz0owT
mA+75LeXZveX78QzCmirhNBhL4v8grWAGvIgSjxcdwvrds3qV+bQb/SDI4KJkpPY
CrNYvR3J59f8MV6E7sFPrsHFFlSQLYg7f67cLuEsSQjTHmpScr7a0M5GU/woWF59
hKbYILp6P3CGM1jc7Crswvwz16ZqXHGn/de9pyDx5bdTHhQdQwAy59g2nVjxCShu
kOtDvJKNQpl4I3P7XgmTvbYVsJtPQRtpENVI/TXMsy3QvxOi0U4DIMX7Cshjf5kM
4fG+DOIPyzsibs+XGQVs7CjWtkoGptl5zmaKx/KRXP4nfGvA13da0bcpYvf11C3C
oTg9hra3BNBXOP/bX0zIkIEYU44lKt595WWaVbwgNgVznSLf7eJZalWr8HCl6o9H
apZ3vIZxMbBs3c809MEVwkdfjTDOHZsqRgkS5UqhAPv2BnEvQPV7HpDKkIg/HKRz
9QIDAQABo4IBYzCCAV8wCQYDVR0TBAIwADAtBglghkgBhvhCAQ0EIBYeRWFzeS1S
U0EgR2VuZXJhdGVkIENlcnRpZmljYXRlMB0GA1UdDgQWBBQFnw+dDGpQFKiZ/8ip
UlD7oQ/bwDCB4QYDVR0jBIHZMIHWgBQSzWAE0qCAnnDtxpm4eyzGUv0ZoaGBsqSB
rzCBrDELMAkGA1UEBhMCVVMxCzAJBgNVBAgTAk9IMREwDwYDVQQHEwhDb2x1bWJ1
czESMBAGA1UEChMJVmlraW5nVlBOMR0wGwYDVQQLExRNeU9yZ2FuaXphdGlvbmFs
VW5pdDEVMBMGA1UEAxMMVmlraW5nVlBOIENBMRAwDgYDVQQpEwdFYXN5UlNBMSEw
HwYJKoZIhvcNAQkBFhJtZUBteWhvc3QubXlkb21haW6CCQDPNYXugL8qPjATBgNV
HSUEDDAKBggrBgEFBQcDAjALBgNVHQ8EBAMCB4AwDQYJKoZIhvcNAQELBQADggIB
ALhZqNcBw5n+kyBZClENLiTHbuOMnB7SJwMEqxu951hKcLtqCtDV2y4rgEy4yPd7
Mn3nTnmO9G/CjSXOYlUhL+mtLq05Cddmm1HCdh5/WQlPAWzNQWJ7+20ctWsEAAq6
7HdSPS6y5Mn5XBWLEeOrFWlqhQ77dJZW0akZXfhcFlyzOEADwDBKhPD3Tj5AUDtB
WoUszMutW6Oe82lhA6Qaz98JNJglkjB5x1Ef0D2E3LAXom2JgxTZoVxlyKiBW+3o
9j/FQ4CkqB0XMa8WqmDwu898CZ0q3mV/M2czq+PRnpqPmWbm/OeJP4x8C/orNyix
/khB6PqQY2EF4eQga/TSjMgQDpzqQKqwmnLBMaMwXM7rKga1pZa+zYLIWKvdrJ+Y
UvB6E5JKntbBs/SO2zq9UAuAawGMI4TaBYD8VCXnt1pqTzfVBG3ksSfLE47dhNMf
din+tUjJWkr6/28u0P1WwgTbObClKR/urAguRhb7R29Pv6Bzwp9aN5xc346ZnVz9
3mqibRtgV1WPtj9QfRdal2TIXNbcD+coMqhvqYqW/46t9Ll+CeAmfReNJ8zddut9
6TI2GRnEkfUFhp2wmvwyHcQS26MC6MOIMSe1ZLxn8TUsplGu5yqTR35BQMUwHLk+
KdWof72Pv2pNJfIVKCOx2KWPe9rX2KaytmaKpnK3QWWc
-----END CERTIFICATE-----
