Certificate:
    Data:
        Version: 3 (0x2)
        Serial Number: 10996 (0x2af4)
    Signature Algorithm: sha256WithRSAEncryption
        Issuer: C=US, ST=OH, L=Columbus, O=VikingVPN, OU=MyOrganizationalUnit, CN=VikingVPN CA/name=EasyRSA/emailAddress=me@myhost.mydomain
        Validity
            Not Before: May 22 00:58:24 2017 GMT
            Not After : May 20 00:58:24 2027 GMT
        Subject: CN=Client2927Certcc885b
        Subject Public Key Info:
            Public Key Algorithm: rsaEncryption
                Public-Key: (4096 bit)
                Modulus:
                    00:b6:3f:dc:3e:51:92:44:32:c4:d7:88:be:93:8a:
                    39:05:64:74:5b:54:e1:50:fa:df:e2:cc:d3:56:2e:
                    69:13:96:53:6d:d9:ce:ef:ca:3f:1e:79:33:01:1b:
                    07:4d:ae:66:06:a4:ce:83:df:5c:54:cd:5d:06:82:
                    97:48:78:b3:70:5c:58:ae:10:3d:e5:25:1a:d2:58:
                    83:68:bf:22:58:81:a8:50:fd:cd:e3:11:c5:b6:50:
                    17:f0:25:a7:74:1e:50:cf:19:8e:47:7d:00:15:8f:
                    6c:33:4b:a3:96:6d:7a:d1:69:dd:f3:1f:de:a0:04:
                    14:64:3f:51:32:7b:c5:df:33:d8:a8:bc:0e:0d:37:
                    54:fe:1f:69:d3:89:d3:48:f0:3d:66:86:be:aa:89:
                    18:85:31:cd:f5:1f:f9:03:cb:13:f1:e2:c7:56:d3:
                    31:76:f5:96:5b:89:26:1d:f5:05:06:0e:4e:a9:4f:
                    95:47:39:2c:d6:39:5b:28:16:a0:49:e2:b2:d6:23:
                    52:34:8b:84:c0:c6:38:37:f0:91:92:7a:7f:45:59:
                    e2:c8:65:ed:21:a8:01:c2:c5:28:dc:16:cd:d7:61:
                    ae:d8:6e:7d:e1:df:a9:4c:ce:15:7e:99:f3:c9:9c:
                    f5:71:ad:e7:38:c6:76:26:01:4b:db:93:c4:ae:f3:
                    76:dd:91:9f:fc:ec:1c:4f:17:48:d3:25:81:1c:d3:
                    a1:59:79:cb:2a:e9:12:8c:41:10:27:78:21:cc:e5:
                    6d:0e:e7:1d:5e:bd:8d:e0:7b:0c:8d:69:e4:05:b7:
                    e8:f0:16:8e:cd:95:db:73:71:86:23:b3:46:e4:99:
                    9b:04:83:d3:1c:7f:9e:53:4c:5f:e1:23:fc:fd:83:
                    79:8f:75:82:d6:bb:68:61:54:c9:d9:57:6b:54:95:
                    43:49:e9:1b:95:8d:8a:55:6d:3d:d6:8a:f1:5b:ff:
                    08:c6:c1:3e:af:4e:63:56:9f:63:4d:7a:37:64:77:
                    5d:72:63:4d:ee:03:7b:8f:ba:76:4b:69:85:19:e4:
                    13:b8:6b:92:12:36:1c:c7:c0:08:2d:48:01:99:8a:
                    c5:53:d2:82:fb:8f:9e:df:b9:59:66:ab:dc:66:fa:
                    d2:b1:c7:6e:7b:e9:0c:37:70:a8:20:3f:8f:10:be:
                    5c:6a:77:bc:37:26:76:17:46:8d:f9:57:d7:b0:8f:
                    02:f1:00:74:14:90:ba:4f:7c:36:1b:98:30:80:0d:
                    aa:e6:a5:c3:8e:61:e6:e1:e6:49:c7:47:60:b2:04:
                    52:3e:84:ad:24:d0:5b:92:45:07:47:ff:ea:68:9d:
                    9d:41:5f:50:76:51:59:b4:63:e0:01:3a:d0:24:9d:
                    28:40:5b
                Exponent: 65537 (0x10001)
        X509v3 extensions:
            X509v3 Basic Constraints: 
                CA:FALSE
            Netscape Comment: 
                Easy-RSA Generated Certificate
            X509v3 Subject Key Identifier: 
                5F:C7:04:CF:E5:A6:6C:AE:56:84:71:2D:79:0E:BC:93:14:BF:17:07
            X509v3 Authority Key Identifier: 
                keyid:12:CD:60:04:D2:A0:80:9E:70:ED:C6:99:B8:7B:2C:C6:52:FD:19:A1
                DirName:/C=US/ST=OH/L=Columbus/O=VikingVPN/OU=MyOrganizationalUnit/CN=VikingVPN CA/name=EasyRSA/emailAddress=me@myhost.mydomain
                serial:CF:35:85:EE:80:BF:2A:3E

            X509v3 Extended Key Usage: 
                TLS Web Client Authentication
            X509v3 Key Usage: 
                Digital Signature
    Signature Algorithm: sha256WithRSAEncryption
         1b:e1:ad:cd:9c:32:34:6f:1a:31:96:31:dc:da:00:ec:c0:ef:
         5e:a2:13:0c:43:3a:cf:47:f1:18:02:1c:d2:54:ab:db:d8:f9:
         e7:9f:9e:97:9b:09:28:e6:e3:42:5f:c9:97:37:45:5b:c2:2c:
         0f:95:c5:3c:0c:da:3f:4c:4b:8d:f3:ec:76:5d:f6:97:f4:b8:
         4e:08:ff:9e:76:e0:5d:29:a2:d5:b6:05:70:fc:60:1c:9f:ce:
         76:51:83:8b:6b:17:b7:8e:39:07:68:cc:ff:4b:ed:56:b0:b6:
         a8:fd:8f:2f:c6:8d:dd:99:bd:90:c9:85:1f:ce:f3:7e:46:74:
         74:0b:b3:a4:f7:4e:80:4e:0a:6d:32:47:4f:e4:8d:85:83:54:
         dc:94:f8:bf:66:5c:c8:54:1a:a1:f6:e3:c5:9a:66:e5:f8:be:
         b0:b2:e5:ca:03:d0:36:62:c1:db:91:09:4c:d3:1b:52:0a:bc:
         82:89:6a:d4:61:7c:9a:22:59:27:5e:a7:8b:66:cd:54:a8:f7:
         2e:1a:37:ca:0d:1c:29:9c:61:62:11:7f:a8:81:07:0c:da:ce:
         c1:57:e7:c5:49:a6:dd:db:c1:89:ab:1f:50:a7:08:ba:3d:02:
         20:6f:d7:24:96:72:a4:c0:ab:e6:47:09:b0:2c:f1:52:62:d4:
         d3:e0:f2:47:19:a0:22:e2:f9:5b:2e:f0:81:63:2f:d8:9e:1a:
         92:c3:1c:a6:c1:d0:44:f2:7f:42:08:1d:e3:7e:9b:02:f6:e7:
         3f:6f:27:06:db:23:68:38:45:16:53:99:8e:d0:15:9d:98:ae:
         79:d0:4f:75:17:1d:8f:52:9b:81:e6:37:d1:fe:96:cd:00:f8:
         6c:e0:1a:fc:ec:67:bf:6a:97:fe:68:96:e8:28:7b:d5:c2:89:
         89:b2:de:c1:4f:9a:e5:44:57:b7:76:c2:19:f8:23:80:47:01:
         ac:58:57:24:ae:b3:f3:ce:c0:de:9a:76:fb:d1:03:ad:02:10:
         38:8f:d0:20:d7:4a:18:8f:28:c4:75:ab:22:bd:c5:9d:1f:aa:
         21:33:a1:87:63:c7:35:23:9c:8c:b6:f9:10:c5:80:66:b4:f2:
         15:fb:2f:8a:a9:42:11:e2:aa:13:fa:a9:54:3b:b1:26:2f:dd:
         3e:2e:14:fe:27:bf:1d:07:b8:9f:fc:5d:04:89:41:46:45:73:
         b8:48:82:95:de:7a:63:aa:26:de:ae:67:5c:ae:9f:df:d0:28:
         2f:fd:3c:a9:0e:42:5f:7f:19:25:1b:16:36:7c:77:ca:28:9d:
         a4:48:a7:b1:9e:3f:b5:b4:e1:f8:e4:0c:03:9c:77:da:2e:f7:
         20:66:19:a3:ad:6e:44:3e
-----BEGIN CERTIFICATE-----
MIIGrTCCBJWgAwIBAgICKvQwDQYJKoZIhvcNAQELBQAwgawxCzAJBgNVBAYTAlVT
MQswCQYDVQQIEwJPSDERMA8GA1UEBxMIQ29sdW1idXMxEjAQBgNVBAoTCVZpa2lu
Z1ZQTjEdMBsGA1UECxMUTXlPcmdhbml6YXRpb25hbFVuaXQxFTATBgNVBAMTDFZp
a2luZ1ZQTiBDQTEQMA4GA1UEKRMHRWFzeVJTQTEhMB8GCSqGSIb3DQEJARYSbWVA
bXlob3N0Lm15ZG9tYWluMB4XDTE3MDUyMjAwNTgyNFoXDTI3MDUyMDAwNTgyNFow
HzEdMBsGA1UEAxMUQ2xpZW50MjkyN0NlcnRjYzg4NWIwggIiMA0GCSqGSIb3DQEB
AQUAA4ICDwAwggIKAoICAQC2P9w+UZJEMsTXiL6TijkFZHRbVOFQ+t/izNNWLmkT
llNt2c7vyj8eeTMBGwdNrmYGpM6D31xUzV0GgpdIeLNwXFiuED3lJRrSWINovyJY
gahQ/c3jEcW2UBfwJad0HlDPGY5HfQAVj2wzS6OWbXrRad3zH96gBBRkP1Eye8Xf
M9iovA4NN1T+H2nTidNI8D1mhr6qiRiFMc31H/kDyxPx4sdW0zF29ZZbiSYd9QUG
Dk6pT5VHOSzWOVsoFqBJ4rLWI1I0i4TAxjg38JGSen9FWeLIZe0hqAHCxSjcFs3X
Ya7Ybn3h36lMzhV+mfPJnPVxrec4xnYmAUvbk8Su83bdkZ/87BxPF0jTJYEc06FZ
ecsq6RKMQRAneCHM5W0O5x1evY3gewyNaeQFt+jwFo7NldtzcYYjs0bkmZsEg9Mc
f55TTF/hI/z9g3mPdYLWu2hhVMnZV2tUlUNJ6RuVjYpVbT3WivFb/wjGwT6vTmNW
n2NNejdkd11yY03uA3uPunZLaYUZ5BO4a5ISNhzHwAgtSAGZisVT0oL7j57fuVlm
q9xm+tKxx2576Qw3cKggP48Qvlxqd7w3JnYXRo35V9ewjwLxAHQUkLpPfDYbmDCA
DarmpcOOYebh5knHR2CyBFI+hK0k0FuSRQdH/+ponZ1BX1B2UVm0Y+ABOtAknShA
WwIDAQABo4IBYzCCAV8wCQYDVR0TBAIwADAtBglghkgBhvhCAQ0EIBYeRWFzeS1S
U0EgR2VuZXJhdGVkIENlcnRpZmljYXRlMB0GA1UdDgQWBBRfxwTP5aZsrlaEcS15
DryTFL8XBzCB4QYDVR0jBIHZMIHWgBQSzWAE0qCAnnDtxpm4eyzGUv0ZoaGBsqSB
rzCBrDELMAkGA1UEBhMCVVMxCzAJBgNVBAgTAk9IMREwDwYDVQQHEwhDb2x1bWJ1
czESMBAGA1UEChMJVmlraW5nVlBOMR0wGwYDVQQLExRNeU9yZ2FuaXphdGlvbmFs
VW5pdDEVMBMGA1UEAxMMVmlraW5nVlBOIENBMRAwDgYDVQQpEwdFYXN5UlNBMSEw
HwYJKoZIhvcNAQkBFhJtZUBteWhvc3QubXlkb21haW6CCQDPNYXugL8qPjATBgNV
HSUEDDAKBggrBgEFBQcDAjALBgNVHQ8EBAMCB4AwDQYJKoZIhvcNAQELBQADggIB
ABvhrc2cMjRvGjGWMdzaAOzA716iEwxDOs9H8RgCHNJUq9vY+eefnpebCSjm40Jf
yZc3RVvCLA+VxTwM2j9MS43z7HZd9pf0uE4I/5524F0potW2BXD8YByfznZRg4tr
F7eOOQdozP9L7Vawtqj9jy/Gjd2ZvZDJhR/O835GdHQLs6T3ToBOCm0yR0/kjYWD
VNyU+L9mXMhUGqH248WaZuX4vrCy5coD0DZiwduRCUzTG1IKvIKJatRhfJoiWSde
p4tmzVSo9y4aN8oNHCmcYWIRf6iBBwzazsFX58VJpt3bwYmrH1CnCLo9AiBv1ySW
cqTAq+ZHCbAs8VJi1NPg8kcZoCLi+Vsu8IFjL9ieGpLDHKbB0ETyf0IIHeN+mwL2
5z9vJwbbI2g4RRZTmY7QFZ2YrnnQT3UXHY9Sm4HmN9H+ls0A+GzgGvzsZ79ql/5o
lugoe9XCiYmy3sFPmuVEV7d2whn4I4BHAaxYVySus/POwN6advvRA60CEDiP0CDX
ShiPKMR1qyK9xZ0fqiEzoYdjxzUjnIy2+RDFgGa08hX7L4qpQhHiqhP6qVQ7sSYv
3T4uFP4nvx0HuJ/8XQSJQUZFc7hIgpXeemOqJt6uZ1yun9/QKC/9PKkOQl9/GSUb
FjZ8d8oonaRIp7GeP7W04fjkDAOcd9ou9yBmGaOtbkQ+
-----END CERTIFICATE-----
