Certificate:
    Data:
        Version: 3 (0x2)
        Serial Number: 11016 (0x2b08)
    Signature Algorithm: sha256WithRSAEncryption
        Issuer: C=US, ST=OH, L=Columbus, O=VikingVPN, OU=MyOrganizationalUnit, CN=VikingVPN CA/name=EasyRSA/emailAddress=me@myhost.mydomain
        Validity
            Not Before: May 26 05:15:01 2017 GMT
            Not After : May 24 05:15:01 2027 GMT
        Subject: CN=Client627Cert90d144
        Subject Public Key Info:
            Public Key Algorithm: rsaEncryption
                Public-Key: (4096 bit)
                Modulus:
                    00:cb:65:31:06:e6:5f:1b:92:0c:13:b3:7d:6d:fe:
                    82:73:c4:cf:68:80:c4:0f:4a:b9:1f:62:20:d8:4d:
                    92:64:6a:a6:4f:b4:f8:3e:29:27:9c:73:c5:d8:14:
                    31:63:63:48:b2:b8:68:62:20:b3:d3:4c:21:59:de:
                    05:4c:e6:a2:9f:03:ee:83:f2:88:ab:fe:76:68:cd:
                    a2:68:1f:2d:5e:2b:95:5f:1a:d3:cc:55:95:df:b1:
                    c2:1b:20:e1:a1:02:db:6d:4f:3e:db:92:44:e4:ac:
                    6e:a2:3b:a9:53:18:cb:ab:2d:fb:31:e9:65:47:e5:
                    81:6c:22:6d:64:67:53:b9:74:f5:09:39:c8:ae:65:
                    7a:0c:3c:bc:0e:30:b9:67:ab:73:42:4d:0c:15:00:
                    6e:ab:87:5e:03:01:4b:d5:47:fe:e9:d8:0c:a4:77:
                    b7:34:78:b4:c8:5c:57:3a:03:77:16:dc:fe:8c:f4:
                    94:e4:06:93:83:df:b9:a8:5f:a9:22:80:22:eb:32:
                    c9:3b:a4:2b:cf:08:8e:e3:57:af:69:b8:90:3b:d1:
                    bc:ef:01:8d:60:59:3c:7e:7f:c2:ec:5c:6d:9d:42:
                    07:f6:bf:16:1e:72:59:a2:11:1d:67:0b:ca:dc:13:
                    8c:16:a4:cd:35:dc:3d:b0:a9:44:f7:c3:9d:8d:bb:
                    a8:81:36:bd:88:43:08:a1:ce:8a:78:db:56:e1:55:
                    5c:5d:57:1c:0f:e1:bc:44:d7:67:33:39:2f:85:ea:
                    0c:14:d9:4c:8f:ca:9b:4c:f5:8f:1c:b2:39:e8:79:
                    7d:80:ba:29:02:ee:ab:76:af:7a:ea:01:23:83:0d:
                    5a:95:88:3f:5b:c3:d2:e2:b1:e0:28:01:e8:ae:a6:
                    29:3c:5e:05:b8:83:59:ca:b8:6e:ad:cd:b2:e6:75:
                    86:70:c1:ec:ae:a3:ca:19:18:25:57:85:a1:77:f9:
                    38:de:0a:88:54:2f:2a:68:bb:76:55:8c:9a:f4:cd:
                    22:b2:6d:25:54:e8:bd:52:cc:23:69:4c:2f:1c:e6:
                    bd:e3:71:4a:83:99:4c:7a:a4:e7:82:04:d8:84:30:
                    1c:64:b3:41:bc:62:21:50:0a:98:d4:94:cd:c0:70:
                    61:2c:c9:79:5c:58:92:28:81:40:03:a3:5c:a5:55:
                    95:22:a1:7a:90:10:97:1c:67:34:c3:c4:ab:ce:a5:
                    dc:05:3c:ba:6b:7e:37:06:ae:24:76:f9:a5:2c:88:
                    75:22:ee:3a:64:27:72:e5:4c:57:28:4e:43:e8:94:
                    0c:0e:52:bc:88:1d:4e:32:21:d5:14:23:d5:48:f4:
                    a6:34:78:24:ac:fd:04:1a:a9:8e:35:ee:61:47:48:
                    1e:93:71
                Exponent: 65537 (0x10001)
        X509v3 extensions:
            X509v3 Basic Constraints: 
                CA:FALSE
            Netscape Comment: 
                Easy-RSA Generated Certificate
            X509v3 Subject Key Identifier: 
                60:A0:BA:85:5A:F2:0C:A0:D0:19:57:4E:F8:02:39:75:9F:E0:42:37
            X509v3 Authority Key Identifier: 
                keyid:12:CD:60:04:D2:A0:80:9E:70:ED:C6:99:B8:7B:2C:C6:52:FD:19:A1
                DirName:/C=US/ST=OH/L=Columbus/O=VikingVPN/OU=MyOrganizationalUnit/CN=VikingVPN CA/name=EasyRSA/emailAddress=me@myhost.mydomain
                serial:CF:35:85:EE:80:BF:2A:3E

            X509v3 Extended Key Usage: 
                TLS Web Client Authentication
            X509v3 Key Usage: 
                Digital Signature
    Signature Algorithm: sha256WithRSAEncryption
         ba:92:e5:c3:ac:1b:a0:cf:de:91:c2:fa:6c:13:cb:31:3f:fd:
         a2:9c:3d:fd:e6:b6:31:6c:4f:2f:36:db:9b:1f:96:a2:96:60:
         9a:68:fc:70:5a:8b:0f:38:46:f5:af:01:3b:52:77:54:86:79:
         d0:85:4c:82:25:8a:13:63:22:46:67:7d:98:bc:9a:b6:d8:0f:
         91:c9:c6:a4:ec:24:55:d0:eb:2b:81:89:66:82:b9:21:b0:50:
         ca:7b:8a:f6:43:b6:d7:e4:8f:90:42:8c:66:86:28:ae:c2:6a:
         6c:57:4f:92:11:e3:e1:5a:27:bb:4c:21:95:61:0f:fb:07:9d:
         f7:0f:71:ff:2c:6c:ce:79:c4:4c:c3:f0:dd:35:ff:51:79:46:
         f1:f3:76:3a:86:40:3a:6e:52:e8:23:07:f6:69:ad:cd:b4:d6:
         8c:47:60:d3:43:e1:dc:24:ac:4b:42:98:01:c5:ef:0f:2c:5e:
         52:90:0a:78:2c:b4:12:ce:a9:66:2c:2f:ac:f6:76:58:2d:a4:
         f3:cd:f7:dc:ab:b8:1b:cf:92:09:78:34:82:92:44:1b:ec:5a:
         7f:39:65:71:1f:7e:04:57:60:48:08:14:a2:99:b1:5d:48:35:
         c4:e7:54:d7:4e:77:68:ed:66:9e:40:0c:23:18:c8:a3:25:7d:
         b4:47:ae:09:18:f4:b8:f5:6e:df:cb:43:b6:a9:24:20:0e:06:
         10:6a:ff:fa:20:e2:c4:61:74:67:25:2d:f1:57:ed:77:f0:b8:
         0b:a1:46:06:22:4a:43:22:ed:c7:eb:2b:bf:06:ff:3c:1f:ac:
         b2:24:1d:ef:aa:86:db:33:ec:fc:be:7f:8b:9e:79:eb:8d:78:
         d4:ed:11:0e:57:5b:88:4e:5a:d2:e6:3f:01:3e:d1:f3:04:67:
         a9:76:f1:ca:3d:a8:6c:a3:b1:19:52:31:fa:71:7c:f4:33:63:
         44:b2:e8:02:52:e2:03:d7:de:c0:5b:41:0a:93:9a:11:6a:d1:
         f5:7c:db:7d:56:62:35:d3:ae:10:5d:bd:10:11:0f:05:96:0c:
         98:1f:b4:7e:25:80:41:68:18:e4:c8:89:37:15:b0:82:e0:7e:
         0f:54:30:84:d3:a7:25:b6:df:e2:38:ee:55:9b:f0:11:04:38:
         b9:29:1f:42:0f:d1:89:e5:45:01:ce:04:d6:a9:01:29:17:50:
         52:ca:eb:91:53:1d:1a:64:d3:d9:ee:25:b6:86:98:28:6a:9c:
         b1:75:56:22:24:4f:3e:ff:06:51:19:8f:d2:12:aa:97:2b:c5:
         06:40:a9:bc:13:0b:16:a6:39:da:50:b8:96:bd:68:3a:1d:53:
         50:5a:a1:ad:bd:5f:78:69
-----BEGIN CERTIFICATE-----
MIIGrDCCBJSgAwIBAgICKwgwDQYJKoZIhvcNAQELBQAwgawxCzAJBgNVBAYTAlVT
MQswCQYDVQQIEwJPSDERMA8GA1UEBxMIQ29sdW1idXMxEjAQBgNVBAoTCVZpa2lu
Z1ZQTjEdMBsGA1UECxMUTXlPcmdhbml6YXRpb25hbFVuaXQxFTATBgNVBAMTDFZp
a2luZ1ZQTiBDQTEQMA4GA1UEKRMHRWFzeVJTQTEhMB8GCSqGSIb3DQEJARYSbWVA
bXlob3N0Lm15ZG9tYWluMB4XDTE3MDUyNjA1MTUwMVoXDTI3MDUyNDA1MTUwMVow
HjEcMBoGA1UEAxMTQ2xpZW50NjI3Q2VydDkwZDE0NDCCAiIwDQYJKoZIhvcNAQEB
BQADggIPADCCAgoCggIBAMtlMQbmXxuSDBOzfW3+gnPEz2iAxA9KuR9iINhNkmRq
pk+0+D4pJ5xzxdgUMWNjSLK4aGIgs9NMIVneBUzmop8D7oPyiKv+dmjNomgfLV4r
lV8a08xVld+xwhsg4aEC221PPtuSROSsbqI7qVMYy6st+zHpZUflgWwibWRnU7l0
9Qk5yK5legw8vA4wuWerc0JNDBUAbquHXgMBS9VH/unYDKR3tzR4tMhcVzoDdxbc
/oz0lOQGk4PfuahfqSKAIusyyTukK88IjuNXr2m4kDvRvO8BjWBZPH5/wuxcbZ1C
B/a/Fh5yWaIRHWcLytwTjBakzTXcPbCpRPfDnY27qIE2vYhDCKHOinjbVuFVXF1X
HA/hvETXZzM5L4XqDBTZTI/Km0z1jxyyOeh5fYC6KQLuq3aveuoBI4MNWpWIP1vD
0uKx4CgB6K6mKTxeBbiDWcq4bq3NsuZ1hnDB7K6jyhkYJVeFoXf5ON4KiFQvKmi7
dlWMmvTNIrJtJVTovVLMI2lMLxzmveNxSoOZTHqk54IE2IQwHGSzQbxiIVAKmNSU
zcBwYSzJeVxYkiiBQAOjXKVVlSKhepAQlxxnNMPEq86l3AU8umt+NwauJHb5pSyI
dSLuOmQncuVMVyhOQ+iUDA5SvIgdTjIh1RQj1Uj0pjR4JKz9BBqpjjXuYUdIHpNx
AgMBAAGjggFjMIIBXzAJBgNVHRMEAjAAMC0GCWCGSAGG+EIBDQQgFh5FYXN5LVJT
QSBHZW5lcmF0ZWQgQ2VydGlmaWNhdGUwHQYDVR0OBBYEFGCguoVa8gyg0BlXTvgC
OXWf4EI3MIHhBgNVHSMEgdkwgdaAFBLNYATSoICecO3Gmbh7LMZS/RmhoYGypIGv
MIGsMQswCQYDVQQGEwJVUzELMAkGA1UECBMCT0gxETAPBgNVBAcTCENvbHVtYnVz
MRIwEAYDVQQKEwlWaWtpbmdWUE4xHTAbBgNVBAsTFE15T3JnYW5pemF0aW9uYWxV
bml0MRUwEwYDVQQDEwxWaWtpbmdWUE4gQ0ExEDAOBgNVBCkTB0Vhc3lSU0ExITAf
BgkqhkiG9w0BCQEWEm1lQG15aG9zdC5teWRvbWFpboIJAM81he6Avyo+MBMGA1Ud
JQQMMAoGCCsGAQUFBwMCMAsGA1UdDwQEAwIHgDANBgkqhkiG9w0BAQsFAAOCAgEA
upLlw6wboM/ekcL6bBPLMT/9opw9/ea2MWxPLzbbmx+WopZgmmj8cFqLDzhG9a8B
O1J3VIZ50IVMgiWKE2MiRmd9mLyattgPkcnGpOwkVdDrK4GJZoK5IbBQynuK9kO2
1+SPkEKMZoYorsJqbFdPkhHj4Vonu0whlWEP+wed9w9x/yxsznnETMPw3TX/UXlG
8fN2OoZAOm5S6CMH9mmtzbTWjEdg00Ph3CSsS0KYAcXvDyxeUpAKeCy0Es6pZiwv
rPZ2WC2k88333Ku4G8+SCXg0gpJEG+xafzllcR9+BFdgSAgUopmxXUg1xOdU1053
aO1mnkAMIxjIoyV9tEeuCRj0uPVu38tDtqkkIA4GEGr/+iDixGF0ZyUt8Vftd/C4
C6FGBiJKQyLtx+srvwb/PB+ssiQd76qG2zPs/L5/i55564141O0RDldbiE5a0uY/
AT7R8wRnqXbxyj2obKOxGVIx+nF89DNjRLLoAlLiA9fewFtBCpOaEWrR9XzbfVZi
NdOuEF29EBEPBZYMmB+0fiWAQWgY5MiJNxWwguB+D1QwhNOnJbbf4jjuVZvwEQQ4
uSkfQg/RieVFAc4E1qkBKRdQUsrrkVMdGmTT2e4ltoaYKGqcsXVWIiRPPv8GURmP
0hKqlyvFBkCpvBMLFqY52lC4lr1oOh1TUFqhrb1feGk=
-----END CERTIFICATE-----
