Certificate:
    Data:
        Version: 3 (0x2)
        Serial Number: 11031 (0x2b17)
    Signature Algorithm: sha256WithRSAEncryption
        Issuer: C=US, ST=OH, L=Columbus, O=VikingVPN, OU=MyOrganizationalUnit, CN=VikingVPN CA/name=EasyRSA/emailAddress=me@myhost.mydomain
        Validity
            Not Before: May 28 06:51:23 2017 GMT
            Not After : May 26 06:51:23 2027 GMT
        Subject: CN=Client2933Certfe6d63
        Subject Public Key Info:
            Public Key Algorithm: rsaEncryption
                Public-Key: (4096 bit)
                Modulus:
                    00:ad:e0:c7:77:c3:ba:59:aa:b0:78:4b:94:16:27:
                    44:75:fd:50:cf:ef:10:18:9a:71:f4:d4:fc:a7:72:
                    a2:58:90:df:13:07:bd:9f:3a:f0:07:e4:b1:e0:82:
                    84:7a:78:37:44:56:d8:f0:53:e1:0c:71:27:66:f4:
                    40:8f:3c:99:57:f5:e5:a7:5b:6e:47:85:10:2a:18:
                    5a:8a:62:4b:3a:b0:bb:35:0d:58:ff:f6:bb:ce:38:
                    c0:38:ef:eb:1b:d4:44:3b:20:e5:08:8a:15:d5:eb:
                    f6:0d:18:da:89:84:aa:ee:60:69:b9:ad:8d:4a:09:
                    2f:5a:0c:c1:a8:f9:6d:b6:77:e3:53:d0:30:23:f6:
                    ff:6a:99:26:9b:6c:75:66:8b:c5:ef:0b:4f:81:16:
                    53:d2:60:96:6d:c0:fe:83:d4:09:a6:26:80:bc:67:
                    b3:0d:55:f7:f7:d9:43:a1:f8:cf:3e:c9:bb:79:a1:
                    fb:c6:32:b4:d7:23:86:f7:30:85:45:e8:6d:fa:9f:
                    cb:13:0d:a5:38:d5:03:af:16:a0:d7:b9:6e:22:c5:
                    ce:36:9a:a9:00:cc:df:07:a9:90:a2:70:e8:c2:44:
                    72:97:7a:9a:11:4c:9d:d5:7e:ca:18:e7:a5:e5:d7:
                    9d:73:f2:c3:45:f3:81:9f:53:30:be:8a:3c:24:86:
                    8d:dd:86:c2:5e:77:fa:67:02:5c:d9:bb:6c:82:85:
                    5a:80:0c:97:4e:51:14:b4:d1:55:a5:48:b7:1c:7c:
                    c2:80:65:ca:8e:ee:5a:2f:a2:08:46:40:79:05:d8:
                    e1:71:49:f9:27:4a:0a:67:05:a6:b7:39:4e:89:c6:
                    ef:2c:99:67:40:87:bd:0e:1d:c5:68:71:0a:8d:90:
                    f4:65:54:ce:75:7b:52:29:11:b9:9c:a1:ff:bd:91:
                    f6:21:df:65:f8:50:8f:7e:58:e7:f4:26:af:c1:54:
                    81:b3:5f:7f:69:2a:d2:d2:1a:a7:75:bf:33:59:89:
                    6d:fc:a2:97:5c:9e:b2:4c:0b:e4:22:e7:34:c4:ac:
                    26:d9:93:da:12:52:85:e6:56:84:c9:eb:3a:a5:2b:
                    be:47:05:b1:67:31:15:6a:19:65:50:7d:70:ec:96:
                    c0:0f:5b:58:44:15:01:95:0f:31:3a:3b:ab:ae:37:
                    48:dd:14:cb:15:c9:05:34:f5:55:10:2a:33:45:3f:
                    36:a6:5c:a9:c6:1a:6f:05:ea:e5:6f:54:30:9f:ef:
                    8e:10:b3:5e:a1:e2:32:6d:5b:25:e5:77:18:ac:91:
                    34:05:24:59:70:56:df:f7:8b:a1:4d:90:4d:96:1c:
                    4e:6a:68:49:e1:06:32:0a:37:db:e8:32:19:37:90:
                    ee:dc:13
                Exponent: 65537 (0x10001)
        X509v3 extensions:
            X509v3 Basic Constraints: 
                CA:FALSE
            Netscape Comment: 
                Easy-RSA Generated Certificate
            X509v3 Subject Key Identifier: 
                E3:80:26:B7:AD:7D:73:6B:48:EA:1D:38:BF:D1:1E:9B:2C:C9:BA:D5
            X509v3 Authority Key Identifier: 
                keyid:12:CD:60:04:D2:A0:80:9E:70:ED:C6:99:B8:7B:2C:C6:52:FD:19:A1
                DirName:/C=US/ST=OH/L=Columbus/O=VikingVPN/OU=MyOrganizationalUnit/CN=VikingVPN CA/name=EasyRSA/emailAddress=me@myhost.mydomain
                serial:CF:35:85:EE:80:BF:2A:3E

            X509v3 Extended Key Usage: 
                TLS Web Client Authentication
            X509v3 Key Usage: 
                Digital Signature
    Signature Algorithm: sha256WithRSAEncryption
         94:4f:85:ee:ee:b9:7b:e3:69:ef:55:50:6c:30:3b:94:81:0f:
         eb:fe:ba:19:76:be:51:d3:b6:f8:d5:1e:5f:f3:24:8e:8d:01:
         b5:91:d1:52:6c:fc:6b:03:37:20:d8:ee:e8:1e:ae:0a:ce:f0:
         ff:7a:99:a4:a5:ae:90:5d:dd:37:6b:45:5b:ed:41:26:4a:76:
         d3:01:9d:ab:d0:36:95:fb:8d:fb:5d:8b:25:3c:66:9c:f3:ae:
         8d:3a:d0:bd:91:56:b1:31:7c:45:79:32:53:63:e4:12:3e:2f:
         58:84:18:60:7f:f6:84:c3:62:39:3b:df:5f:bb:61:86:63:e7:
         d1:a7:66:8c:99:a6:63:64:19:7f:59:a4:94:12:5d:e7:e0:a1:
         bb:d4:e4:85:3a:14:a3:31:f7:52:96:e7:8e:7c:9d:fe:2f:2d:
         2d:a1:84:d2:4f:16:fa:7d:c6:c2:f6:dd:a7:c0:84:d9:fb:b8:
         14:11:03:46:6d:6b:b8:48:ee:47:4c:a4:72:1b:5a:e0:2d:b1:
         68:b7:e7:d3:86:4f:74:4c:79:92:e6:cc:ca:65:f3:b6:d9:f3:
         d0:b3:43:56:1b:68:4e:11:b6:cf:11:2d:5b:d7:fd:a1:fb:ac:
         63:19:98:81:0d:e5:6d:3e:ba:06:73:77:6b:9b:0b:fb:12:ff:
         6d:10:27:c0:a2:de:ff:45:b6:69:45:0f:c8:e6:a6:dc:5d:f6:
         b4:51:87:42:52:bd:fc:f1:e2:fd:0f:3e:d8:24:0d:fa:6b:5f:
         c2:9f:f9:f1:6c:32:d9:37:57:18:80:6c:47:71:26:36:74:e1:
         40:a0:a5:d0:db:39:ea:fd:2e:43:f8:1a:5a:99:b1:fc:1e:15:
         e0:8d:41:e6:dd:f1:83:ac:49:a6:59:0c:5c:2c:f3:62:97:3a:
         c2:b7:27:09:f5:b3:2a:cb:cd:84:a6:21:2c:74:69:5e:5e:1a:
         6f:6a:20:05:8e:db:f9:94:27:f1:f2:37:4d:8c:74:79:3f:87:
         52:12:a2:e9:fa:74:bb:cb:c0:6b:99:d3:7b:c9:1c:c0:af:9d:
         8c:18:1c:8d:0d:f2:b6:8b:6e:8b:e9:28:28:5b:db:1e:97:cb:
         44:18:a6:43:13:79:85:cd:c8:db:4c:72:21:bd:9f:e5:6a:e8:
         22:e3:c9:74:78:17:bc:5d:b7:98:44:e5:75:76:a4:a1:54:89:
         bb:3b:31:1a:8d:39:70:25:ca:cb:6a:f5:fa:07:01:7c:8c:9a:
         1a:50:1f:e1:bd:c9:88:28:cd:19:a4:c1:37:ea:95:15:ca:4c:
         70:09:19:58:ab:e3:ce:e9:7f:c7:47:46:ae:8c:7e:c5:a6:cd:
         7f:c0:56:45:1e:42:03:97
-----BEGIN CERTIFICATE-----
MIIGrTCCBJWgAwIBAgICKxcwDQYJKoZIhvcNAQELBQAwgawxCzAJBgNVBAYTAlVT
MQswCQYDVQQIEwJPSDERMA8GA1UEBxMIQ29sdW1idXMxEjAQBgNVBAoTCVZpa2lu
Z1ZQTjEdMBsGA1UECxMUTXlPcmdhbml6YXRpb25hbFVuaXQxFTATBgNVBAMTDFZp
a2luZ1ZQTiBDQTEQMA4GA1UEKRMHRWFzeVJTQTEhMB8GCSqGSIb3DQEJARYSbWVA
bXlob3N0Lm15ZG9tYWluMB4XDTE3MDUyODA2NTEyM1oXDTI3MDUyNjA2NTEyM1ow
HzEdMBsGA1UEAxMUQ2xpZW50MjkzM0NlcnRmZTZkNjMwggIiMA0GCSqGSIb3DQEB
AQUAA4ICDwAwggIKAoICAQCt4Md3w7pZqrB4S5QWJ0R1/VDP7xAYmnH01PyncqJY
kN8TB72fOvAH5LHggoR6eDdEVtjwU+EMcSdm9ECPPJlX9eWnW25HhRAqGFqKYks6
sLs1DVj/9rvOOMA47+sb1EQ7IOUIihXV6/YNGNqJhKruYGm5rY1KCS9aDMGo+W22
d+NT0DAj9v9qmSabbHVmi8XvC0+BFlPSYJZtwP6D1AmmJoC8Z7MNVff32UOh+M8+
ybt5ofvGMrTXI4b3MIVF6G36n8sTDaU41QOvFqDXuW4ixc42mqkAzN8HqZCicOjC
RHKXepoRTJ3VfsoY56Xl151z8sNF84GfUzC+ijwkho3dhsJed/pnAlzZu2yChVqA
DJdOURS00VWlSLccfMKAZcqO7lovoghGQHkF2OFxSfknSgpnBaa3OU6Jxu8smWdA
h70OHcVocQqNkPRlVM51e1IpEbmcof+9kfYh32X4UI9+WOf0Jq/BVIGzX39pKtLS
Gqd1vzNZiW38opdcnrJMC+Qi5zTErCbZk9oSUoXmVoTJ6zqlK75HBbFnMRVqGWVQ
fXDslsAPW1hEFQGVDzE6O6uuN0jdFMsVyQU09VUQKjNFPzamXKnGGm8F6uVvVDCf
744Qs16h4jJtWyXldxiskTQFJFlwVt/3i6FNkE2WHE5qaEnhBjIKN9voMhk3kO7c
EwIDAQABo4IBYzCCAV8wCQYDVR0TBAIwADAtBglghkgBhvhCAQ0EIBYeRWFzeS1S
U0EgR2VuZXJhdGVkIENlcnRpZmljYXRlMB0GA1UdDgQWBBTjgCa3rX1za0jqHTi/
0R6bLMm61TCB4QYDVR0jBIHZMIHWgBQSzWAE0qCAnnDtxpm4eyzGUv0ZoaGBsqSB
rzCBrDELMAkGA1UEBhMCVVMxCzAJBgNVBAgTAk9IMREwDwYDVQQHEwhDb2x1bWJ1
czESMBAGA1UEChMJVmlraW5nVlBOMR0wGwYDVQQLExRNeU9yZ2FuaXphdGlvbmFs
VW5pdDEVMBMGA1UEAxMMVmlraW5nVlBOIENBMRAwDgYDVQQpEwdFYXN5UlNBMSEw
HwYJKoZIhvcNAQkBFhJtZUBteWhvc3QubXlkb21haW6CCQDPNYXugL8qPjATBgNV
HSUEDDAKBggrBgEFBQcDAjALBgNVHQ8EBAMCB4AwDQYJKoZIhvcNAQELBQADggIB
AJRPhe7uuXvjae9VUGwwO5SBD+v+uhl2vlHTtvjVHl/zJI6NAbWR0VJs/GsDNyDY
7ugergrO8P96maSlrpBd3TdrRVvtQSZKdtMBnavQNpX7jftdiyU8Zpzzro060L2R
VrExfEV5MlNj5BI+L1iEGGB/9oTDYjk731+7YYZj59GnZoyZpmNkGX9ZpJQSXefg
obvU5IU6FKMx91KW5458nf4vLS2hhNJPFvp9xsL23afAhNn7uBQRA0Zta7hI7kdM
pHIbWuAtsWi359OGT3RMeZLmzMpl87bZ89CzQ1YbaE4Rts8RLVvX/aH7rGMZmIEN
5W0+ugZzd2ubC/sS/20QJ8Ci3v9FtmlFD8jmptxd9rRRh0JSvfzx4v0PPtgkDfpr
X8Kf+fFsMtk3VxiAbEdxJjZ04UCgpdDbOer9LkP4GlqZsfweFeCNQebd8YOsSaZZ
DFws82KXOsK3Jwn1syrLzYSmISx0aV5eGm9qIAWO2/mUJ/HyN02MdHk/h1ISoun6
dLvLwGuZ03vJHMCvnYwYHI0N8raLbovpKChb2x6Xy0QYpkMTeYXNyNtMciG9n+Vq
6CLjyXR4F7xdt5hE5XV2pKFUibs7MRqNOXAlystq9foHAXyMmhpQH+G9yYgozRmk
wTfqlRXKTHAJGVir487pf8dHRq6MfsWmzX/AVkUeQgOX
-----END CERTIFICATE-----
