Certificate:
    Data:
        Version: 3 (0x2)
        Serial Number: 11074 (0x2b42)
    Signature Algorithm: sha256WithRSAEncryption
        Issuer: C=US, ST=OH, L=Columbus, O=VikingVPN, OU=MyOrganizationalUnit, CN=VikingVPN CA/name=EasyRSA/emailAddress=me@myhost.mydomain
        Validity
            Not Before: Jun  3 23:20:55 2017 GMT
            Not After : Jun  1 23:20:55 2027 GMT
        Subject: CN=Client345Certcc0d6c
        Subject Public Key Info:
            Public Key Algorithm: rsaEncryption
                Public-Key: (4096 bit)
                Modulus:
                    00:bc:f1:4b:38:2e:b6:66:aa:40:87:1f:bd:dd:6a:
                    2a:65:67:eb:55:d3:37:d7:f0:f9:12:71:c7:5b:df:
                    ea:de:8e:10:d4:0c:3b:23:d2:4c:df:9b:f9:1f:40:
                    ba:5a:49:6f:79:31:77:79:9c:c2:96:9e:7a:8a:25:
                    5b:47:8f:2b:77:7d:c4:69:17:d8:c3:f8:ca:dd:82:
                    f6:b3:40:9b:7f:a0:e9:b9:83:73:ed:07:45:1b:94:
                    0a:34:bc:a0:24:c6:cc:d3:47:2d:2a:4a:e3:4a:7c:
                    0c:ba:06:ea:ed:15:ff:94:17:2c:d3:dd:33:67:22:
                    ae:68:91:55:89:13:ce:5f:3f:c8:f3:4c:96:e4:86:
                    63:3c:d9:2b:de:9a:54:e5:bf:84:85:47:a3:e6:2d:
                    80:ec:3a:58:dd:93:0b:46:11:6f:1d:d2:3f:8f:c6:
                    6d:22:9f:99:f4:b3:bc:3a:74:ae:ff:8d:96:6d:b8:
                    38:ba:02:81:9f:03:2c:cc:31:3e:a0:42:e8:c2:b8:
                    94:12:fb:ec:a5:42:71:fd:b6:a7:95:09:59:06:fb:
                    0c:00:3a:5d:f9:c3:73:a7:bf:cb:90:c9:03:06:92:
                    b1:b4:c4:f1:7b:b5:9b:58:19:fa:c4:55:09:d1:94:
                    1c:b4:34:b8:71:65:72:9a:ef:db:fe:04:7d:86:0a:
                    3a:4e:75:26:ab:58:0e:b8:19:81:5c:b9:27:f1:64:
                    1c:e3:49:12:ca:86:61:b7:a8:5a:6f:90:3f:15:34:
                    b5:69:b7:cf:3c:50:91:d9:a1:ce:35:0d:32:de:23:
                    b9:da:a0:12:e7:1a:99:68:4b:51:ca:4e:cc:fe:af:
                    c7:83:b2:99:e0:fd:fc:72:81:3a:b5:15:e7:90:ba:
                    e3:44:7a:c2:f3:42:4d:9e:91:97:8c:16:78:dd:e5:
                    66:c6:74:a9:12:24:f1:43:03:19:32:0d:23:7b:f4:
                    6e:6f:cc:d7:50:b9:44:be:8e:5d:88:bd:c9:ce:a2:
                    78:d8:3d:bd:83:01:02:a6:e2:9e:2d:9f:43:1b:a8:
                    ad:b1:4c:a1:bb:8f:3b:b6:53:b5:bd:7c:e7:db:d8:
                    0e:3e:49:ad:86:59:45:f0:59:b5:f3:3e:8a:ed:1e:
                    74:d2:7f:ad:5d:d0:51:ce:ac:4c:7f:36:d8:cd:d8:
                    cf:0a:00:0a:87:88:b2:c3:c2:68:53:4b:11:6d:0b:
                    eb:6e:de:b7:78:61:a9:e5:6f:0d:e9:42:12:ba:4c:
                    14:83:43:53:a3:e4:66:09:7a:08:fe:1d:6d:c2:21:
                    0c:da:4c:96:42:55:b7:2d:12:b4:71:e7:d8:1e:1c:
                    d4:32:7c:9f:94:09:a0:31:7c:b3:aa:8b:7d:97:60:
                    d4:26:c9
                Exponent: 65537 (0x10001)
        X509v3 extensions:
            X509v3 Basic Constraints: 
                CA:FALSE
            Netscape Comment: 
                Easy-RSA Generated Certificate
            X509v3 Subject Key Identifier: 
                47:60:B4:81:15:55:C6:12:08:3B:96:D8:0B:A1:C9:0B:2B:BA:66:46
            X509v3 Authority Key Identifier: 
                keyid:12:CD:60:04:D2:A0:80:9E:70:ED:C6:99:B8:7B:2C:C6:52:FD:19:A1
                DirName:/C=US/ST=OH/L=Columbus/O=VikingVPN/OU=MyOrganizationalUnit/CN=VikingVPN CA/name=EasyRSA/emailAddress=me@myhost.mydomain
                serial:CF:35:85:EE:80:BF:2A:3E

            X509v3 Extended Key Usage: 
                TLS Web Client Authentication
            X509v3 Key Usage: 
                Digital Signature
    Signature Algorithm: sha256WithRSAEncryption
         49:a5:d4:b2:9c:0b:81:48:c5:7d:82:f7:2b:1d:24:70:b3:2f:
         48:a8:35:a3:e0:44:e1:87:34:76:30:7e:8e:93:75:85:c8:b2:
         06:11:d2:bb:a2:84:45:5c:42:e8:51:65:d5:e6:e5:e6:5b:06:
         88:d6:85:92:94:a4:50:89:95:7b:5e:28:ad:ab:f4:1d:b9:ed:
         f7:5b:de:fe:c0:40:92:fa:a1:64:b9:b7:de:a4:92:95:ac:4a:
         c1:0b:26:1b:a4:87:a8:78:d2:76:c7:fa:c7:d6:d9:b5:fc:30:
         2a:38:b0:9e:c9:dd:d9:76:08:d1:37:cd:4a:d7:71:69:c6:46:
         68:cc:bb:a3:fa:0b:a0:27:c9:a0:db:6c:00:5d:4e:5a:20:ac:
         8f:fb:e4:65:0c:aa:40:55:a7:44:b7:90:03:6f:bf:d1:66:23:
         11:66:7a:1c:2d:d4:b2:1f:00:df:a2:4f:3b:a3:80:82:a2:54:
         e5:31:c8:9c:a1:36:d6:9f:45:85:e5:4d:28:b9:c8:b5:ea:68:
         c6:1a:98:3d:a4:fd:a1:2c:ec:bb:ef:0d:94:01:08:8a:7b:2c:
         a6:55:59:cc:c9:1b:a1:4d:3e:b7:f6:b2:81:90:2d:b6:ff:c1:
         df:14:82:c3:01:81:74:c4:d5:2a:04:e4:5d:5a:6e:45:f3:16:
         62:d8:04:32:28:0a:5f:34:3e:94:7e:a8:ad:e8:87:59:bf:b6:
         62:6f:98:dc:db:e9:79:9a:0f:c0:aa:0f:4f:8f:ca:60:77:70:
         90:97:a2:3e:7d:98:6b:d7:da:d9:d6:d1:6a:ab:da:87:24:28:
         be:a2:eb:b8:53:9b:d5:ea:76:07:71:71:85:e4:ec:43:30:9d:
         6c:91:2c:97:3d:ef:c4:11:03:3e:cb:b2:14:76:1c:06:78:8f:
         e4:2f:ed:ed:f6:92:0d:3f:3c:88:ef:35:ed:7c:cd:17:cc:e4:
         75:64:de:e2:84:7b:0d:cb:d6:af:31:0f:c9:6e:74:36:0b:c3:
         eb:f4:cc:92:82:6f:7b:25:eb:f8:f3:22:91:41:08:2f:fd:17:
         36:92:84:c0:43:6b:eb:94:14:0d:f8:4a:16:0d:ec:25:ff:39:
         00:94:6e:74:b6:34:b1:d1:dc:ca:ef:78:0e:1f:b4:f1:02:62:
         01:04:23:f8:bd:cf:83:be:7e:41:8b:af:5a:9c:9a:69:ac:7c:
         71:73:53:30:33:a2:9a:6a:ea:e3:51:90:25:13:e6:61:f7:ae:
         cb:85:65:b8:7c:26:77:a9:74:81:ad:e2:96:7c:0a:7f:45:d0:
         7d:26:b7:5f:cc:5c:6a:81:ca:c3:94:91:e6:1b:d6:91:e4:e2:
         70:1e:ee:f0:5f:6e:58:a3
-----BEGIN CERTIFICATE-----
MIIGrDCCBJSgAwIBAgICK0IwDQYJKoZIhvcNAQELBQAwgawxCzAJBgNVBAYTAlVT
MQswCQYDVQQIEwJPSDERMA8GA1UEBxMIQ29sdW1idXMxEjAQBgNVBAoTCVZpa2lu
Z1ZQTjEdMBsGA1UECxMUTXlPcmdhbml6YXRpb25hbFVuaXQxFTATBgNVBAMTDFZp
a2luZ1ZQTiBDQTEQMA4GA1UEKRMHRWFzeVJTQTEhMB8GCSqGSIb3DQEJARYSbWVA
bXlob3N0Lm15ZG9tYWluMB4XDTE3MDYwMzIzMjA1NVoXDTI3MDYwMTIzMjA1NVow
HjEcMBoGA1UEAxMTQ2xpZW50MzQ1Q2VydGNjMGQ2YzCCAiIwDQYJKoZIhvcNAQEB
BQADggIPADCCAgoCggIBALzxSzgutmaqQIcfvd1qKmVn61XTN9fw+RJxx1vf6t6O
ENQMOyPSTN+b+R9AulpJb3kxd3mcwpaeeoolW0ePK3d9xGkX2MP4yt2C9rNAm3+g
6bmDc+0HRRuUCjS8oCTGzNNHLSpK40p8DLoG6u0V/5QXLNPdM2cirmiRVYkTzl8/
yPNMluSGYzzZK96aVOW/hIVHo+YtgOw6WN2TC0YRbx3SP4/GbSKfmfSzvDp0rv+N
lm24OLoCgZ8DLMwxPqBC6MK4lBL77KVCcf22p5UJWQb7DAA6XfnDc6e/y5DJAwaS
sbTE8Xu1m1gZ+sRVCdGUHLQ0uHFlcprv2/4EfYYKOk51JqtYDrgZgVy5J/FkHONJ
EsqGYbeoWm+QPxU0tWm3zzxQkdmhzjUNMt4judqgEucamWhLUcpOzP6vx4OymeD9
/HKBOrUV55C640R6wvNCTZ6Rl4wWeN3lZsZ0qRIk8UMDGTINI3v0bm/M11C5RL6O
XYi9yc6ieNg9vYMBAqbini2fQxuorbFMobuPO7ZTtb1859vYDj5JrYZZRfBZtfM+
iu0edNJ/rV3QUc6sTH822M3YzwoACoeIssPCaFNLEW0L627et3hhqeVvDelCErpM
FINDU6PkZgl6CP4dbcIhDNpMlkJVty0StHHn2B4c1DJ8n5QJoDF8s6qLfZdg1CbJ
AgMBAAGjggFjMIIBXzAJBgNVHRMEAjAAMC0GCWCGSAGG+EIBDQQgFh5FYXN5LVJT
QSBHZW5lcmF0ZWQgQ2VydGlmaWNhdGUwHQYDVR0OBBYEFEdgtIEVVcYSCDuW2Auh
yQsrumZGMIHhBgNVHSMEgdkwgdaAFBLNYATSoICecO3Gmbh7LMZS/RmhoYGypIGv
MIGsMQswCQYDVQQGEwJVUzELMAkGA1UECBMCT0gxETAPBgNVBAcTCENvbHVtYnVz
MRIwEAYDVQQKEwlWaWtpbmdWUE4xHTAbBgNVBAsTFE15T3JnYW5pemF0aW9uYWxV
bml0MRUwEwYDVQQDEwxWaWtpbmdWUE4gQ0ExEDAOBgNVBCkTB0Vhc3lSU0ExITAf
BgkqhkiG9w0BCQEWEm1lQG15aG9zdC5teWRvbWFpboIJAM81he6Avyo+MBMGA1Ud
JQQMMAoGCCsGAQUFBwMCMAsGA1UdDwQEAwIHgDANBgkqhkiG9w0BAQsFAAOCAgEA
SaXUspwLgUjFfYL3Kx0kcLMvSKg1o+BE4Yc0djB+jpN1hciyBhHSu6KERVxC6FFl
1ebl5lsGiNaFkpSkUImVe14orav0Hbnt91ve/sBAkvqhZLm33qSSlaxKwQsmG6SH
qHjSdsf6x9bZtfwwKjiwnsnd2XYI0TfNStdxacZGaMy7o/oLoCfJoNtsAF1OWiCs
j/vkZQyqQFWnRLeQA2+/0WYjEWZ6HC3Ush8A36JPO6OAgqJU5THInKE21p9FheVN
KLnItepoxhqYPaT9oSzsu+8NlAEIinssplVZzMkboU0+t/aygZAttv/B3xSCwwGB
dMTVKgTkXVpuRfMWYtgEMigKXzQ+lH6oreiHWb+2Ym+Y3NvpeZoPwKoPT4/KYHdw
kJeiPn2Ya9fa2dbRaqvahyQovqLruFOb1ep2B3FxheTsQzCdbJEslz3vxBEDPsuy
FHYcBniP5C/t7faSDT88iO817XzNF8zkdWTe4oR7DcvWrzEPyW50NgvD6/TMkoJv
eyXr+PMikUEIL/0XNpKEwENr65QUDfhKFg3sJf85AJRudLY0sdHcyu94Dh+08QJi
AQQj+L3Pg75+QYuvWpyaaax8cXNTMDOimmrq41GQJRPmYfeuy4VluHwmd6l0ga3i
lnwKf0XQfSa3X8xcaoHKw5SR5hvWkeTicB7u8F9uWKM=
-----END CERTIFICATE-----
