Certificate:
    Data:
        Version: 3 (0x2)
        Serial Number: 11080 (0x2b48)
    Signature Algorithm: sha256WithRSAEncryption
        Issuer: C=US, ST=OH, L=Columbus, O=VikingVPN, OU=MyOrganizationalUnit, CN=VikingVPN CA/name=EasyRSA/emailAddress=me@myhost.mydomain
        Validity
            Not Before: Jun  4 22:54:57 2017 GMT
            Not After : Jun  2 22:54:57 2027 GMT
        Subject: CN=Client2058Cert31d02f
        Subject Public Key Info:
            Public Key Algorithm: rsaEncryption
                Public-Key: (4096 bit)
                Modulus:
                    00:d7:37:45:d4:80:15:a8:86:a5:c4:54:4a:9b:7f:
                    e3:19:93:00:eb:6f:97:12:b5:f8:ec:ea:0b:6f:f8:
                    f8:4d:a3:34:2e:1d:16:50:f6:96:ec:71:57:23:57:
                    a7:c7:8c:68:a3:98:9e:58:43:1e:01:0e:47:15:e1:
                    9b:75:72:e3:83:65:72:5b:5f:f5:3d:a3:58:38:fd:
                    78:ab:c7:ef:4b:10:8f:89:55:ea:bf:94:56:39:f2:
                    2d:10:92:0c:0c:0f:e4:4e:33:28:1c:d9:ff:67:a4:
                    a3:a5:1a:ae:6f:be:f9:e5:f9:30:e8:4b:01:e0:d4:
                    f1:00:af:36:c7:d8:d8:77:86:49:c7:23:f6:b2:ab:
                    7d:ec:49:b8:7f:7c:21:e6:86:a5:98:ca:a2:4c:f5:
                    54:91:40:2b:6a:60:38:f3:9b:43:8c:fc:4e:1c:53:
                    0b:82:f0:f9:0c:e1:e7:7b:2d:58:78:38:00:4c:2b:
                    37:44:4c:bd:af:7b:92:82:92:6a:f5:74:18:96:79:
                    9b:72:2b:f3:2e:56:4e:7d:65:8b:20:5a:1a:a6:d5:
                    2b:ac:d8:f6:77:4b:4c:35:0f:a2:a9:6e:50:7f:f1:
                    17:30:07:dc:d3:77:f4:11:8e:3b:7b:83:78:b7:22:
                    c3:6c:36:40:cd:d4:5d:23:3a:bf:bc:a7:44:c5:ce:
                    de:ab:2e:50:e5:2a:af:3a:8a:2e:4b:15:22:12:06:
                    cf:b6:e8:26:9b:67:84:46:1b:1e:35:39:5f:39:fd:
                    66:c4:a5:e2:89:95:07:7b:36:6a:12:00:6a:1c:01:
                    a4:b3:19:0a:60:87:36:07:19:1f:97:46:2c:fd:b6:
                    05:37:c1:57:07:15:67:e4:38:7d:12:31:7b:5a:43:
                    05:91:b8:ef:68:7a:78:86:c9:5e:fb:50:f3:bd:8e:
                    f3:8b:b1:8f:20:37:78:bc:73:d5:76:21:8c:9a:d5:
                    73:21:17:16:e0:28:23:02:51:6d:21:7f:b3:c2:e8:
                    b8:e8:12:fa:00:ba:49:5e:bc:6d:0b:1a:e5:23:73:
                    28:30:35:5e:98:b8:bb:09:9a:13:ce:49:51:4b:dd:
                    17:6a:52:72:7c:90:b6:93:5d:f5:fd:c2:fe:72:5e:
                    a7:c5:ff:e0:54:c3:25:13:8e:7f:f4:b6:e0:f1:71:
                    de:bf:3d:d0:31:9f:56:65:7e:6d:ff:2b:d1:1f:90:
                    cf:97:2c:af:c4:e4:6a:ae:3d:47:1f:12:c6:ae:31:
                    dc:60:b9:8b:3f:6a:92:fa:bb:93:c1:05:28:d2:cf:
                    d0:e4:4d:27:da:9b:b2:7c:b4:f3:2e:ab:bc:6c:bc:
                    94:fe:d9:3a:90:d7:42:f4:be:00:69:da:51:f9:01:
                    b5:28:7d
                Exponent: 65537 (0x10001)
        X509v3 extensions:
            X509v3 Basic Constraints: 
                CA:FALSE
            Netscape Comment: 
                Easy-RSA Generated Certificate
            X509v3 Subject Key Identifier: 
                8B:A8:8B:4D:C3:24:14:D6:A6:4D:5A:C6:FC:1B:49:7E:DF:B2:3D:5C
            X509v3 Authority Key Identifier: 
                keyid:12:CD:60:04:D2:A0:80:9E:70:ED:C6:99:B8:7B:2C:C6:52:FD:19:A1
                DirName:/C=US/ST=OH/L=Columbus/O=VikingVPN/OU=MyOrganizationalUnit/CN=VikingVPN CA/name=EasyRSA/emailAddress=me@myhost.mydomain
                serial:CF:35:85:EE:80:BF:2A:3E

            X509v3 Extended Key Usage: 
                TLS Web Client Authentication
            X509v3 Key Usage: 
                Digital Signature
    Signature Algorithm: sha256WithRSAEncryption
         7a:4b:0a:78:19:59:25:48:f3:e1:d9:dd:a5:d2:37:2a:0f:d4:
         5e:5d:b7:c7:ce:22:ab:c7:57:a4:7a:27:13:8c:71:ec:f5:2d:
         42:fa:f9:cb:c7:4d:b0:c8:d0:5a:d2:60:58:16:26:9e:81:d1:
         c7:ca:e7:3c:9c:12:b2:93:59:ae:ec:99:18:e5:d2:8b:6b:5f:
         c3:06:b0:b9:e1:88:1f:2a:9e:29:cd:67:e8:4c:d1:ce:e9:81:
         11:5a:05:1a:6c:1f:db:ab:86:50:03:d5:03:22:d9:00:60:6b:
         2f:c9:ea:6d:ae:c7:74:f9:b2:e4:85:9d:bc:1d:f3:3e:6b:95:
         ae:f3:c3:5d:02:3c:74:ac:98:17:57:a0:c4:48:a8:e6:04:ad:
         92:6f:2c:73:8e:7e:e8:c4:11:69:f4:4b:7c:f5:8a:18:15:ff:
         d6:63:fa:0d:61:23:1d:80:60:91:1d:91:ba:b5:3f:ff:3b:a2:
         40:20:7b:e4:2a:f8:1c:a8:4d:46:cf:56:55:57:a1:1b:94:64:
         9c:81:e8:b1:ac:80:89:a7:d9:06:8b:38:5b:e4:85:b5:30:33:
         41:a6:48:f2:ce:0c:63:f3:b1:30:04:16:e0:d6:15:7c:65:8c:
         ac:f8:ff:74:4e:67:cd:87:88:8d:e6:fb:21:cc:38:ec:8c:38:
         4f:a4:22:40:d2:b4:7c:53:de:c9:e0:64:14:8e:96:df:87:f6:
         ec:6c:81:d0:51:89:d6:f1:af:65:d5:7a:de:93:04:ea:56:8e:
         3f:da:08:11:66:b4:56:26:91:b8:40:02:9f:5d:5d:ce:f8:40:
         f1:47:fb:76:f7:a6:a5:6f:04:00:c0:9b:dc:f0:d7:d2:74:e0:
         42:1d:af:0a:9e:4d:b3:81:9a:8f:78:be:23:b1:be:92:82:31:
         c7:89:76:3a:66:0f:21:33:af:07:8c:f5:07:5b:17:c3:44:05:
         fd:b2:fb:0c:ba:ed:1c:08:4a:59:69:2f:72:48:e7:c2:92:c0:
         20:9c:a2:70:7b:a9:11:a2:87:1c:92:96:07:96:85:29:65:41:
         0f:0b:a8:63:e8:85:42:0d:4d:6d:12:d0:a8:08:65:2f:5f:2c:
         7c:28:74:37:b1:6d:33:01:99:76:db:d5:83:7e:a8:b6:33:16:
         63:b4:af:3d:81:17:da:f0:3b:56:ef:6d:dd:c5:39:70:73:26:
         1e:76:eb:65:94:77:70:02:d8:c0:3f:9a:8b:9e:64:42:91:1a:
         51:e6:7e:40:69:16:1c:fe:75:a8:74:2e:9a:d0:ac:da:51:6c:
         e4:e7:df:7c:1b:c6:3a:0e:e9:ba:02:15:82:cc:12:ed:ab:10:
         5e:f4:41:b3:f8:76:f3:aa
-----BEGIN CERTIFICATE-----
MIIGrTCCBJWgAwIBAgICK0gwDQYJKoZIhvcNAQELBQAwgawxCzAJBgNVBAYTAlVT
MQswCQYDVQQIEwJPSDERMA8GA1UEBxMIQ29sdW1idXMxEjAQBgNVBAoTCVZpa2lu
Z1ZQTjEdMBsGA1UECxMUTXlPcmdhbml6YXRpb25hbFVuaXQxFTATBgNVBAMTDFZp
a2luZ1ZQTiBDQTEQMA4GA1UEKRMHRWFzeVJTQTEhMB8GCSqGSIb3DQEJARYSbWVA
bXlob3N0Lm15ZG9tYWluMB4XDTE3MDYwNDIyNTQ1N1oXDTI3MDYwMjIyNTQ1N1ow
HzEdMBsGA1UEAxMUQ2xpZW50MjA1OENlcnQzMWQwMmYwggIiMA0GCSqGSIb3DQEB
AQUAA4ICDwAwggIKAoICAQDXN0XUgBWohqXEVEqbf+MZkwDrb5cStfjs6gtv+PhN
ozQuHRZQ9pbscVcjV6fHjGijmJ5YQx4BDkcV4Zt1cuODZXJbX/U9o1g4/Xirx+9L
EI+JVeq/lFY58i0QkgwMD+ROMygc2f9npKOlGq5vvvnl+TDoSwHg1PEArzbH2Nh3
hknHI/ayq33sSbh/fCHmhqWYyqJM9VSRQCtqYDjzm0OM/E4cUwuC8PkM4ed7LVh4
OABMKzdETL2ve5KCkmr1dBiWeZtyK/MuVk59ZYsgWhqm1Sus2PZ3S0w1D6KpblB/
8RcwB9zTd/QRjjt7g3i3IsNsNkDN1F0jOr+8p0TFzt6rLlDlKq86ii5LFSISBs+2
6CabZ4RGGx41OV85/WbEpeKJlQd7NmoSAGocAaSzGQpghzYHGR+XRiz9tgU3wVcH
FWfkOH0SMXtaQwWRuO9oeniGyV77UPO9jvOLsY8gN3i8c9V2IYya1XMhFxbgKCMC
UW0hf7PC6LjoEvoAuklevG0LGuUjcygwNV6YuLsJmhPOSVFL3RdqUnJ8kLaTXfX9
wv5yXqfF/+BUwyUTjn/0tuDxcd6/PdAxn1Zlfm3/K9EfkM+XLK/E5GquPUcfEsau
MdxguYs/apL6u5PBBSjSz9DkTSfam7J8tPMuq7xsvJT+2TqQ10L0vgBp2lH5AbUo
fQIDAQABo4IBYzCCAV8wCQYDVR0TBAIwADAtBglghkgBhvhCAQ0EIBYeRWFzeS1S
U0EgR2VuZXJhdGVkIENlcnRpZmljYXRlMB0GA1UdDgQWBBSLqItNwyQU1qZNWsb8
G0l+37I9XDCB4QYDVR0jBIHZMIHWgBQSzWAE0qCAnnDtxpm4eyzGUv0ZoaGBsqSB
rzCBrDELMAkGA1UEBhMCVVMxCzAJBgNVBAgTAk9IMREwDwYDVQQHEwhDb2x1bWJ1
czESMBAGA1UEChMJVmlraW5nVlBOMR0wGwYDVQQLExRNeU9yZ2FuaXphdGlvbmFs
VW5pdDEVMBMGA1UEAxMMVmlraW5nVlBOIENBMRAwDgYDVQQpEwdFYXN5UlNBMSEw
HwYJKoZIhvcNAQkBFhJtZUBteWhvc3QubXlkb21haW6CCQDPNYXugL8qPjATBgNV
HSUEDDAKBggrBgEFBQcDAjALBgNVHQ8EBAMCB4AwDQYJKoZIhvcNAQELBQADggIB
AHpLCngZWSVI8+HZ3aXSNyoP1F5dt8fOIqvHV6R6JxOMcez1LUL6+cvHTbDI0FrS
YFgWJp6B0cfK5zycErKTWa7smRjl0otrX8MGsLnhiB8qninNZ+hM0c7pgRFaBRps
H9urhlAD1QMi2QBgay/J6m2ux3T5suSFnbwd8z5rla7zw10CPHSsmBdXoMRIqOYE
rZJvLHOOfujEEWn0S3z1ihgV/9Zj+g1hIx2AYJEdkbq1P/87okAge+Qq+ByoTUbP
VlVXoRuUZJyB6LGsgImn2QaLOFvkhbUwM0GmSPLODGPzsTAEFuDWFXxljKz4/3RO
Z82HiI3m+yHMOOyMOE+kIkDStHxT3sngZBSOlt+H9uxsgdBRidbxr2XVet6TBOpW
jj/aCBFmtFYmkbhAAp9dXc74QPFH+3b3pqVvBADAm9zw19J04EIdrwqeTbOBmo94
viOxvpKCMceJdjpmDyEzrweM9QdbF8NEBf2y+wy67RwISllpL3JI58KSwCCconB7
qRGihxySlgeWhSllQQ8LqGPohUINTW0S0KgIZS9fLHwodDexbTMBmXbb1YN+qLYz
FmO0rz2BF9rwO1bvbd3FOXBzJh5262WUd3AC2MA/moueZEKRGlHmfkBpFhz+dah0
LprQrNpRbOTn33wbxjoO6boCFYLMEu2rEF70QbP4dvOq
-----END CERTIFICATE-----
