Certificate:
    Data:
        Version: 3 (0x2)
        Serial Number: 11081 (0x2b49)
    Signature Algorithm: sha256WithRSAEncryption
        Issuer: C=US, ST=OH, L=Columbus, O=VikingVPN, OU=MyOrganizationalUnit, CN=VikingVPN CA/name=EasyRSA/emailAddress=me@myhost.mydomain
        Validity
            Not Before: Jun  5 15:35:13 2017 GMT
            Not After : Jun  3 15:35:13 2027 GMT
        Subject: CN=Client2773Certf1869e
        Subject Public Key Info:
            Public Key Algorithm: rsaEncryption
                Public-Key: (4096 bit)
                Modulus:
                    00:d0:e5:ca:94:33:52:83:32:8a:88:11:c7:b1:69:
                    80:7a:a3:9d:71:ba:79:e1:13:95:0a:64:69:f8:64:
                    24:89:01:4d:d4:4f:d5:4d:a4:9f:eb:14:26:15:d7:
                    4d:9c:a5:8e:0e:5b:b6:1f:92:f2:f5:c2:40:a2:2a:
                    86:e4:43:01:b1:ca:7e:cc:1b:52:62:8b:32:9f:32:
                    3d:fd:11:b0:9e:ad:11:6a:ed:a8:d8:40:65:3c:fb:
                    b9:71:3d:f7:1b:0b:29:7b:26:ee:62:38:b7:0a:7b:
                    03:0c:27:ea:04:a8:eb:ee:b3:cd:3d:e2:9c:48:9a:
                    b0:1c:29:e2:c8:f7:e4:bf:11:d3:38:4b:fc:59:73:
                    20:b3:22:70:ac:41:c9:bd:f7:b7:21:a4:96:3a:db:
                    a1:b2:f1:51:6c:3b:f6:1b:55:17:a2:0f:73:64:10:
                    83:75:28:df:a4:63:a1:a0:77:58:d1:e7:94:a2:7e:
                    ac:27:01:c0:7f:ac:ac:64:ca:6c:73:25:10:22:78:
                    bb:1d:47:a3:1e:e8:d4:77:1d:e3:32:21:d8:92:31:
                    3c:04:06:30:d4:32:da:8c:7f:9f:53:e8:12:40:87:
                    b1:16:55:21:a5:95:bc:4a:6f:22:2e:99:f6:d1:de:
                    4b:39:47:b0:49:b6:71:8d:b7:27:9e:72:0a:59:7c:
                    fe:20:15:03:d4:82:de:dd:e2:c9:f1:dd:b4:ac:ad:
                    a0:c8:a8:6a:70:ce:e0:60:88:63:41:bb:e2:b7:dd:
                    4c:c0:fd:ee:16:ca:e7:bc:56:50:7f:96:03:c7:7a:
                    85:8f:7d:d0:f9:d1:6a:96:39:3f:65:6b:b4:4d:66:
                    e3:ac:2d:18:3e:27:cc:67:0d:0c:75:e7:25:ac:a1:
                    7a:c2:b8:24:82:16:dd:df:1f:f4:14:ed:88:d2:fd:
                    72:0f:70:2d:b6:bf:1c:c4:f0:29:dd:01:ca:d5:7e:
                    92:49:35:d7:71:7a:41:72:9d:b3:ad:b7:eb:a5:df:
                    ec:0d:5a:90:6d:5d:69:c7:86:56:7e:9f:96:9d:77:
                    57:85:34:42:2d:ef:e4:80:33:a8:37:eb:48:36:a0:
                    af:09:7f:ab:90:7d:4c:85:5f:63:bd:9a:be:c6:84:
                    0d:d4:38:7d:03:52:8a:14:1a:14:58:52:df:c7:e6:
                    39:54:4c:42:6e:70:61:b9:ce:7c:5b:31:77:1d:1c:
                    28:dc:d5:ed:9e:64:5e:43:6f:83:1f:6a:0c:33:e0:
                    85:b5:9d:70:d2:4e:07:b1:16:54:a9:75:4f:05:6d:
                    51:47:72:b8:29:31:9c:58:a8:b4:09:32:3a:c3:74:
                    8f:f9:bc:9d:f4:af:d7:b4:82:cd:27:4d:08:5b:f2:
                    0d:87:3d
                Exponent: 65537 (0x10001)
        X509v3 extensions:
            X509v3 Basic Constraints: 
                CA:FALSE
            Netscape Comment: 
                Easy-RSA Generated Certificate
            X509v3 Subject Key Identifier: 
                B2:AF:47:B8:26:1A:C0:3F:7F:F4:2F:94:4C:2D:6F:1F:3B:EB:13:04
            X509v3 Authority Key Identifier: 
                keyid:12:CD:60:04:D2:A0:80:9E:70:ED:C6:99:B8:7B:2C:C6:52:FD:19:A1
                DirName:/C=US/ST=OH/L=Columbus/O=VikingVPN/OU=MyOrganizationalUnit/CN=VikingVPN CA/name=EasyRSA/emailAddress=me@myhost.mydomain
                serial:CF:35:85:EE:80:BF:2A:3E

            X509v3 Extended Key Usage: 
                TLS Web Client Authentication
            X509v3 Key Usage: 
                Digital Signature
    Signature Algorithm: sha256WithRSAEncryption
         b7:75:28:42:01:39:f3:9c:13:48:11:5a:9a:2d:66:51:4b:a0:
         8f:75:95:bf:76:47:f1:f2:ac:80:06:fd:d3:c6:08:5a:38:53:
         33:a0:ab:20:ca:86:36:bd:91:3b:8b:b9:28:82:0b:57:88:e9:
         ea:81:0e:13:ef:ab:8b:10:96:b4:0b:68:4f:b2:62:ec:76:eb:
         4d:79:9b:94:98:e8:81:0e:bb:60:79:a4:9f:31:d2:13:03:4c:
         64:bf:db:37:ff:57:6e:7f:88:01:2f:0e:7b:f5:14:ae:50:39:
         65:25:f3:19:70:6c:9d:f8:5e:c4:dd:2b:fd:f9:dc:f3:5a:77:
         79:6d:ff:9c:ea:16:9b:fe:c7:65:6d:d7:26:96:37:ba:0c:ec:
         a6:57:b3:73:d3:6e:24:3d:ea:e5:9d:07:ee:e3:ca:22:3b:01:
         ea:d1:5b:ff:75:65:49:5b:5f:33:a5:50:80:3d:14:76:fc:a5:
         c4:ad:23:00:3b:98:25:09:87:ae:48:dd:d7:a7:69:01:46:29:
         88:a0:c1:61:f9:92:a5:7e:f2:71:30:5e:56:f7:df:07:68:d3:
         e1:a8:0a:33:84:69:ea:08:1e:e3:54:17:aa:60:be:66:dc:20:
         f5:78:8d:a7:65:7f:7d:eb:4d:d9:76:e9:67:bc:c4:f8:99:5e:
         14:f6:00:fc:f7:d4:ae:e7:56:7e:27:54:ff:3d:77:ee:54:85:
         96:5e:e4:de:3c:b9:dc:aa:93:ff:ac:a9:62:1d:93:77:cb:27:
         1f:02:a0:e8:c1:43:fb:35:5d:81:9a:b1:e1:66:3e:fd:57:40:
         26:63:be:ca:76:96:99:16:14:48:e3:c7:62:61:d8:76:03:65:
         e8:d5:03:59:3a:c8:e1:43:fe:84:32:7e:fa:f6:f0:90:d8:fd:
         5a:e8:64:be:05:d4:0c:02:c2:92:28:8f:cb:21:1f:75:73:be:
         63:d3:0e:0d:67:cd:84:16:ce:12:9a:ad:ad:4a:96:40:cf:23:
         5c:b1:fc:88:98:21:42:b7:74:0e:23:a8:c0:3e:fd:62:40:de:
         d3:10:31:f2:4a:36:14:ff:60:1c:9d:0a:1c:06:4a:50:d5:d0:
         a8:a8:63:b8:a0:4c:9d:ac:46:c7:1e:b6:34:01:3e:dd:c3:a5:
         ee:d9:79:ef:0e:56:cd:b8:1b:a9:02:b7:48:ff:d3:73:47:95:
         ed:50:25:ab:36:30:13:a3:74:8c:07:bf:e8:4e:19:31:48:42:
         b2:44:28:d4:1a:53:e9:d1:7b:b5:de:77:d1:11:02:1d:a6:5e:
         ea:23:4e:60:3a:ac:43:34:9b:9b:59:ea:2f:f9:54:31:d2:6f:
         fe:a3:2b:dd:c3:83:fd:a1
-----BEGIN CERTIFICATE-----
MIIGrTCCBJWgAwIBAgICK0kwDQYJKoZIhvcNAQELBQAwgawxCzAJBgNVBAYTAlVT
MQswCQYDVQQIEwJPSDERMA8GA1UEBxMIQ29sdW1idXMxEjAQBgNVBAoTCVZpa2lu
Z1ZQTjEdMBsGA1UECxMUTXlPcmdhbml6YXRpb25hbFVuaXQxFTATBgNVBAMTDFZp
a2luZ1ZQTiBDQTEQMA4GA1UEKRMHRWFzeVJTQTEhMB8GCSqGSIb3DQEJARYSbWVA
bXlob3N0Lm15ZG9tYWluMB4XDTE3MDYwNTE1MzUxM1oXDTI3MDYwMzE1MzUxM1ow
HzEdMBsGA1UEAxMUQ2xpZW50Mjc3M0NlcnRmMTg2OWUwggIiMA0GCSqGSIb3DQEB
AQUAA4ICDwAwggIKAoICAQDQ5cqUM1KDMoqIEcexaYB6o51xunnhE5UKZGn4ZCSJ
AU3UT9VNpJ/rFCYV102cpY4OW7YfkvL1wkCiKobkQwGxyn7MG1JiizKfMj39EbCe
rRFq7ajYQGU8+7lxPfcbCyl7Ju5iOLcKewMMJ+oEqOvus8094pxImrAcKeLI9+S/
EdM4S/xZcyCzInCsQcm997chpJY626Gy8VFsO/YbVReiD3NkEIN1KN+kY6Ggd1jR
55SifqwnAcB/rKxkymxzJRAieLsdR6Me6NR3HeMyIdiSMTwEBjDUMtqMf59T6BJA
h7EWVSGllbxKbyIumfbR3ks5R7BJtnGNtyeecgpZfP4gFQPUgt7d4snx3bSsraDI
qGpwzuBgiGNBu+K33UzA/e4Wyue8VlB/lgPHeoWPfdD50WqWOT9la7RNZuOsLRg+
J8xnDQx15yWsoXrCuCSCFt3fH/QU7YjS/XIPcC22vxzE8CndAcrVfpJJNddxekFy
nbOtt+ul3+wNWpBtXWnHhlZ+n5add1eFNEIt7+SAM6g360g2oK8Jf6uQfUyFX2O9
mr7GhA3UOH0DUooUGhRYUt/H5jlUTEJucGG5znxbMXcdHCjc1e2eZF5Db4Mfagwz
4IW1nXDSTgexFlSpdU8FbVFHcrgpMZxYqLQJMjrDdI/5vJ30r9e0gs0nTQhb8g2H
PQIDAQABo4IBYzCCAV8wCQYDVR0TBAIwADAtBglghkgBhvhCAQ0EIBYeRWFzeS1S
U0EgR2VuZXJhdGVkIENlcnRpZmljYXRlMB0GA1UdDgQWBBSyr0e4JhrAP3/0L5RM
LW8fO+sTBDCB4QYDVR0jBIHZMIHWgBQSzWAE0qCAnnDtxpm4eyzGUv0ZoaGBsqSB
rzCBrDELMAkGA1UEBhMCVVMxCzAJBgNVBAgTAk9IMREwDwYDVQQHEwhDb2x1bWJ1
czESMBAGA1UEChMJVmlraW5nVlBOMR0wGwYDVQQLExRNeU9yZ2FuaXphdGlvbmFs
VW5pdDEVMBMGA1UEAxMMVmlraW5nVlBOIENBMRAwDgYDVQQpEwdFYXN5UlNBMSEw
HwYJKoZIhvcNAQkBFhJtZUBteWhvc3QubXlkb21haW6CCQDPNYXugL8qPjATBgNV
HSUEDDAKBggrBgEFBQcDAjALBgNVHQ8EBAMCB4AwDQYJKoZIhvcNAQELBQADggIB
ALd1KEIBOfOcE0gRWpotZlFLoI91lb92R/HyrIAG/dPGCFo4UzOgqyDKhja9kTuL
uSiCC1eI6eqBDhPvq4sQlrQLaE+yYux26015m5SY6IEOu2B5pJ8x0hMDTGS/2zf/
V25/iAEvDnv1FK5QOWUl8xlwbJ34XsTdK/353PNad3lt/5zqFpv+x2Vt1yaWN7oM
7KZXs3PTbiQ96uWdB+7jyiI7AerRW/91ZUlbXzOlUIA9FHb8pcStIwA7mCUJh65I
3denaQFGKYigwWH5kqV+8nEwXlb33wdo0+GoCjOEaeoIHuNUF6pgvmbcIPV4jadl
f33rTdl26We8xPiZXhT2APz31K7nVn4nVP89d+5UhZZe5N48udyqk/+sqWIdk3fL
Jx8CoOjBQ/s1XYGaseFmPv1XQCZjvsp2lpkWFEjjx2Jh2HYDZejVA1k6yOFD/oQy
fvr28JDY/VroZL4F1AwCwpIoj8shH3VzvmPTDg1nzYQWzhKara1KlkDPI1yx/IiY
IUK3dA4jqMA+/WJA3tMQMfJKNhT/YBydChwGSlDV0KioY7igTJ2sRscetjQBPt3D
pe7Zee8OVs24G6kCt0j/03NHle1QJas2MBOjdIwHv+hOGTFIQrJEKNQaU+nRe7Xe
d9ERAh2mXuojTmA6rEM0m5tZ6i/5VDHSb/6jK93Dg/2h
-----END CERTIFICATE-----
