Certificate:
    Data:
        Version: 3 (0x2)
        Serial Number: 11082 (0x2b4a)
    Signature Algorithm: sha256WithRSAEncryption
        Issuer: C=US, ST=OH, L=Columbus, O=VikingVPN, OU=MyOrganizationalUnit, CN=VikingVPN CA/name=EasyRSA/emailAddress=me@myhost.mydomain
        Validity
            Not Before: Jun  5 18:08:41 2017 GMT
            Not After : Jun  3 18:08:41 2027 GMT
        Subject: CN=Client2943Cert10be40
        Subject Public Key Info:
            Public Key Algorithm: rsaEncryption
                Public-Key: (4096 bit)
                Modulus:
                    00:d7:1e:7e:fa:50:b3:67:22:d9:a7:e6:5d:6c:02:
                    36:7b:b2:3e:ad:1e:81:0f:b7:37:33:6c:34:c2:01:
                    4e:db:41:55:3a:08:dd:db:ad:70:88:c3:39:27:17:
                    74:17:82:04:77:06:81:52:93:d6:7f:a0:2c:96:f3:
                    eb:75:e1:42:f0:24:0d:53:84:cc:57:18:7c:43:c7:
                    0d:cc:2e:e3:9c:11:1a:09:10:e4:50:b2:0b:36:84:
                    95:4e:f4:34:37:68:49:58:ad:8f:2d:bb:44:24:b3:
                    eb:89:30:2d:10:ad:9b:8c:e9:48:e0:57:a5:d0:04:
                    4a:70:8d:7f:6d:ec:73:3d:2d:4b:6d:a2:f2:2a:c0:
                    2d:2e:6d:47:0b:1b:ca:5d:d5:1c:92:27:91:eb:97:
                    51:af:49:7e:8f:15:a9:70:36:d8:b4:80:88:8d:be:
                    9a:3a:53:63:68:e5:5a:e4:d6:d8:5f:e0:22:86:60:
                    c5:84:ef:1f:19:87:c1:65:1b:24:74:d8:10:66:13:
                    6e:90:49:4f:8c:59:b0:88:56:da:eb:eb:58:2c:12:
                    a2:01:78:1a:21:62:ea:20:61:34:5b:cc:b2:d3:cb:
                    bd:35:e4:d3:0e:42:6e:71:3c:de:f2:4e:3f:42:9b:
                    0d:74:9d:ff:2f:da:28:42:b1:f0:f5:63:07:4f:8c:
                    72:26:08:0e:52:d8:10:65:b0:cb:05:bc:b7:16:9c:
                    42:e3:df:2c:b1:a9:b2:e3:21:87:e5:9e:8d:f5:ae:
                    0d:e0:b7:55:cc:09:ff:b1:75:6c:5e:2d:71:64:b9:
                    07:ff:df:54:e9:b0:55:ef:0c:e9:21:b0:00:a9:d0:
                    e2:da:a5:1a:ab:b6:f4:0e:2a:5e:22:b9:10:53:36:
                    71:f6:18:55:b6:b2:35:9e:32:e4:50:7d:37:54:76:
                    d5:7c:64:b4:f1:8f:43:71:dc:71:02:43:29:fc:b6:
                    06:a1:a2:32:e6:a7:0b:37:93:cd:00:d2:81:1a:a4:
                    8f:44:54:1e:71:d3:1d:61:e0:d8:11:99:48:5c:f5:
                    83:c4:e6:0f:26:35:41:3d:e5:ac:50:04:ff:e8:06:
                    6a:b0:8f:57:f6:5a:ae:9f:f2:d0:82:fa:62:2d:2d:
                    46:ec:7c:d0:b8:01:cd:c7:56:33:31:4f:0e:c4:29:
                    c8:e0:18:b5:fd:dd:97:99:aa:b0:c9:6c:e0:76:be:
                    10:3f:5f:a3:97:b8:9a:01:b2:19:41:be:f5:74:e1:
                    d1:a3:9c:a0:e4:28:d9:fe:a8:91:67:b5:c4:7a:43:
                    07:72:45:55:25:a5:9a:e4:4d:c4:a1:be:cd:e4:00:
                    81:95:b6:bc:72:9c:3f:1f:e4:4d:26:e3:2f:60:f5:
                    e4:6e:47
                Exponent: 65537 (0x10001)
        X509v3 extensions:
            X509v3 Basic Constraints: 
                CA:FALSE
            Netscape Comment: 
                Easy-RSA Generated Certificate
            X509v3 Subject Key Identifier: 
                6F:4B:56:57:AF:0C:11:26:5D:66:51:C0:55:A1:29:29:79:B2:A8:D9
            X509v3 Authority Key Identifier: 
                keyid:12:CD:60:04:D2:A0:80:9E:70:ED:C6:99:B8:7B:2C:C6:52:FD:19:A1
                DirName:/C=US/ST=OH/L=Columbus/O=VikingVPN/OU=MyOrganizationalUnit/CN=VikingVPN CA/name=EasyRSA/emailAddress=me@myhost.mydomain
                serial:CF:35:85:EE:80:BF:2A:3E

            X509v3 Extended Key Usage: 
                TLS Web Client Authentication
            X509v3 Key Usage: 
                Digital Signature
    Signature Algorithm: sha256WithRSAEncryption
         d4:1a:5f:e5:75:fd:07:2c:79:fd:dc:3c:bf:a0:d8:51:81:08:
         19:80:15:24:63:5f:55:6c:9a:3a:f7:32:3f:00:75:3d:bd:87:
         cd:4a:8d:1a:fd:10:44:76:f9:7d:4c:a9:0a:55:4a:25:cc:48:
         e9:76:4e:91:50:fc:f9:2c:8d:4c:a2:26:59:90:0f:e5:b0:70:
         dc:0a:1a:01:ef:95:7d:cd:f7:78:27:36:9e:4b:34:c7:ac:ad:
         1c:cb:78:c1:24:a3:9e:73:4b:f0:aa:58:32:d3:85:f9:bc:91:
         76:1e:13:c1:d3:57:b3:54:c4:80:9b:a9:40:74:8e:9f:44:40:
         c8:ae:ae:35:06:b9:14:cf:ad:5a:b2:fe:2a:ad:a6:8d:40:ce:
         3f:d7:24:44:a0:24:7e:f9:28:2b:25:78:c5:15:06:7c:05:18:
         91:87:e1:21:4f:69:ed:b9:2e:1b:35:b8:ce:4f:b7:c2:9f:53:
         ab:bb:e0:be:57:3b:f1:14:42:77:ea:da:6a:ee:66:68:0c:e8:
         4a:00:eb:3b:b3:de:60:c9:8d:16:a3:7d:13:76:af:42:26:91:
         dd:bb:c1:2a:e3:66:f5:a8:0f:bb:b1:c0:22:e5:71:21:67:1d:
         13:bb:58:ef:3e:4e:f3:c1:6d:b8:d1:68:5b:5a:2b:b6:08:ef:
         99:97:af:1f:88:9b:da:5e:14:5e:74:cb:da:35:57:7d:50:ff:
         e2:fa:9f:a9:b7:ba:26:5a:f7:60:85:9a:6b:3c:1c:b3:91:e7:
         b7:cc:d1:fb:e7:a1:6c:2f:f8:45:58:41:12:ba:72:35:d6:e5:
         da:5c:da:72:30:a2:1b:63:40:d2:f7:d0:3d:74:07:84:30:d7:
         94:e9:58:14:4c:f7:ef:f3:18:66:59:54:65:90:f3:a4:5e:c5:
         18:21:c5:06:94:05:99:2f:2b:e9:e1:71:b9:72:19:87:e9:f8:
         47:2f:5f:ea:9f:50:96:4f:be:22:80:34:76:1b:f8:e4:19:6b:
         95:f0:83:be:30:3a:4c:71:45:d5:1d:79:8a:db:ad:69:5d:cb:
         5e:b5:d0:df:a9:0a:8a:9a:4a:16:a8:b7:3d:32:9c:c2:5e:8c:
         44:28:68:0f:ab:af:16:75:d8:87:66:71:f2:f6:b5:05:9a:e4:
         de:3c:1a:f2:44:8d:41:1a:85:7a:cd:b5:29:14:c0:18:97:a7:
         b4:4c:f1:eb:a3:f8:10:84:72:3f:d8:f6:19:a7:32:f5:a4:a9:
         a9:26:9d:53:bc:e2:ca:3f:c3:e5:43:f0:12:6c:25:37:fe:4c:
         95:bf:2c:a5:c5:64:23:94:11:c8:1d:10:61:f6:4c:eb:c0:47:
         7b:06:6e:0f:d6:1e:2b:15
-----BEGIN CERTIFICATE-----
MIIGrTCCBJWgAwIBAgICK0owDQYJKoZIhvcNAQELBQAwgawxCzAJBgNVBAYTAlVT
MQswCQYDVQQIEwJPSDERMA8GA1UEBxMIQ29sdW1idXMxEjAQBgNVBAoTCVZpa2lu
Z1ZQTjEdMBsGA1UECxMUTXlPcmdhbml6YXRpb25hbFVuaXQxFTATBgNVBAMTDFZp
a2luZ1ZQTiBDQTEQMA4GA1UEKRMHRWFzeVJTQTEhMB8GCSqGSIb3DQEJARYSbWVA
bXlob3N0Lm15ZG9tYWluMB4XDTE3MDYwNTE4MDg0MVoXDTI3MDYwMzE4MDg0MVow
HzEdMBsGA1UEAxMUQ2xpZW50Mjk0M0NlcnQxMGJlNDAwggIiMA0GCSqGSIb3DQEB
AQUAA4ICDwAwggIKAoICAQDXHn76ULNnItmn5l1sAjZ7sj6tHoEPtzczbDTCAU7b
QVU6CN3brXCIwzknF3QXggR3BoFSk9Z/oCyW8+t14ULwJA1ThMxXGHxDxw3MLuOc
ERoJEORQsgs2hJVO9DQ3aElYrY8tu0Qks+uJMC0QrZuM6UjgV6XQBEpwjX9t7HM9
LUttovIqwC0ubUcLG8pd1RySJ5Hrl1GvSX6PFalwNti0gIiNvpo6U2No5Vrk1thf
4CKGYMWE7x8Zh8FlGyR02BBmE26QSU+MWbCIVtrr61gsEqIBeBohYuogYTRbzLLT
y7015NMOQm5xPN7yTj9Cmw10nf8v2ihCsfD1YwdPjHImCA5S2BBlsMsFvLcWnELj
3yyxqbLjIYflno31rg3gt1XMCf+xdWxeLXFkuQf/31TpsFXvDOkhsACp0OLapRqr
tvQOKl4iuRBTNnH2GFW2sjWeMuRQfTdUdtV8ZLTxj0Nx3HECQyn8tgahojLmpws3
k80A0oEapI9EVB5x0x1h4NgRmUhc9YPE5g8mNUE95axQBP/oBmqwj1f2Wq6f8tCC
+mItLUbsfNC4Ac3HVjMxTw7EKcjgGLX93ZeZqrDJbOB2vhA/X6OXuJoBshlBvvV0
4dGjnKDkKNn+qJFntcR6QwdyRVUlpZrkTcShvs3kAIGVtrxynD8f5E0m4y9g9eRu
RwIDAQABo4IBYzCCAV8wCQYDVR0TBAIwADAtBglghkgBhvhCAQ0EIBYeRWFzeS1S
U0EgR2VuZXJhdGVkIENlcnRpZmljYXRlMB0GA1UdDgQWBBRvS1ZXrwwRJl1mUcBV
oSkpebKo2TCB4QYDVR0jBIHZMIHWgBQSzWAE0qCAnnDtxpm4eyzGUv0ZoaGBsqSB
rzCBrDELMAkGA1UEBhMCVVMxCzAJBgNVBAgTAk9IMREwDwYDVQQHEwhDb2x1bWJ1
czESMBAGA1UEChMJVmlraW5nVlBOMR0wGwYDVQQLExRNeU9yZ2FuaXphdGlvbmFs
VW5pdDEVMBMGA1UEAxMMVmlraW5nVlBOIENBMRAwDgYDVQQpEwdFYXN5UlNBMSEw
HwYJKoZIhvcNAQkBFhJtZUBteWhvc3QubXlkb21haW6CCQDPNYXugL8qPjATBgNV
HSUEDDAKBggrBgEFBQcDAjALBgNVHQ8EBAMCB4AwDQYJKoZIhvcNAQELBQADggIB
ANQaX+V1/Qcsef3cPL+g2FGBCBmAFSRjX1Vsmjr3Mj8AdT29h81KjRr9EER2+X1M
qQpVSiXMSOl2TpFQ/PksjUyiJlmQD+WwcNwKGgHvlX3N93gnNp5LNMesrRzLeMEk
o55zS/CqWDLThfm8kXYeE8HTV7NUxICbqUB0jp9EQMiurjUGuRTPrVqy/iqtpo1A
zj/XJESgJH75KCsleMUVBnwFGJGH4SFPae25Lhs1uM5Pt8KfU6u74L5XO/EUQnfq
2mruZmgM6EoA6zuz3mDJjRajfRN2r0Imkd27wSrjZvWoD7uxwCLlcSFnHRO7WO8+
TvPBbbjRaFtaK7YI75mXrx+Im9peFF50y9o1V31Q/+L6n6m3uiZa92CFmms8HLOR
57fM0fvnoWwv+EVYQRK6cjXW5dpc2nIwohtjQNL30D10B4Qw15TpWBRM9+/zGGZZ
VGWQ86RexRghxQaUBZkvK+nhcblyGYfp+EcvX+qfUJZPviKANHYb+OQZa5Xwg74w
OkxxRdUdeYrbrWldy1610N+pCoqaShaotz0ynMJejEQoaA+rrxZ12IdmcfL2tQWa
5N48GvJEjUEahXrNtSkUwBiXp7RM8euj+BCEcj/Y9hmnMvWkqakmnVO84so/w+VD
8BJsJTf+TJW/LKXFZCOUEcgdEGH2TOvAR3sGbg/WHisV
-----END CERTIFICATE-----
