Certificate:
    Data:
        Version: 3 (0x2)
        Serial Number: 11101 (0x2b5d)
    Signature Algorithm: sha256WithRSAEncryption
        Issuer: C=US, ST=OH, L=Columbus, O=VikingVPN, OU=MyOrganizationalUnit, CN=VikingVPN CA/name=EasyRSA/emailAddress=me@myhost.mydomain
        Validity
            Not Before: Jun  8 23:11:55 2017 GMT
            Not After : Jun  6 23:11:55 2027 GMT
        Subject: CN=Client1615Cert72bdaf
        Subject Public Key Info:
            Public Key Algorithm: rsaEncryption
                Public-Key: (4096 bit)
                Modulus:
                    00:de:67:76:c2:7f:09:e8:8a:35:57:d4:e7:87:3c:
                    d1:24:20:57:38:38:e8:1f:8b:bd:06:fc:19:19:41:
                    ac:9a:16:36:e0:35:df:80:d1:f6:64:18:43:97:16:
                    4b:78:a3:fd:a5:42:f5:b3:00:78:85:39:c8:78:19:
                    81:a4:5d:2d:4d:36:fc:35:d6:c4:2f:48:e8:f0:fd:
                    37:22:2f:2a:15:cf:cf:47:f0:d9:d5:8d:8c:6f:c6:
                    f4:68:1a:47:9b:53:26:cc:fd:c3:c1:98:84:07:8f:
                    35:61:09:ca:80:13:d7:1c:00:a3:75:c5:3a:26:4f:
                    17:8d:fe:b7:01:57:db:30:11:f0:0f:f4:80:1d:4c:
                    6b:e9:9e:3d:be:46:ad:9c:d4:b2:dd:ba:86:1f:e5:
                    9c:c0:41:db:1c:94:76:f5:e0:cb:0a:6b:b3:f8:4e:
                    3b:b6:27:3b:a7:de:4d:88:01:d8:2b:94:2a:ed:0e:
                    16:bc:f4:51:67:1e:ea:6a:66:0b:3b:73:d3:71:01:
                    51:34:11:08:ca:ba:6b:62:2c:60:5d:7d:0c:32:96:
                    34:52:a1:01:d7:2f:ea:25:31:5a:37:1a:78:95:b0:
                    f2:81:6e:f2:17:90:b3:98:a5:84:1f:46:11:0a:54:
                    41:58:db:91:19:4a:b3:ce:7d:ea:c8:d5:db:87:00:
                    c7:8c:07:5f:f9:57:a4:71:a9:7b:ae:22:b2:77:b7:
                    b5:e4:e4:14:7a:c8:40:f0:ff:13:6f:3c:5b:84:7e:
                    05:e5:8a:d8:ea:9c:11:af:a3:1e:b7:13:9d:93:7e:
                    6f:f1:b2:11:a7:c8:e2:6f:e6:ff:fe:44:dc:44:da:
                    74:41:c5:e9:fa:bd:b5:07:6d:d7:f2:cf:10:6b:24:
                    49:9f:ba:01:7a:f4:02:66:7d:8a:54:13:55:4f:f9:
                    33:59:f4:df:08:88:50:50:90:e8:97:a8:89:0a:5e:
                    91:37:33:1d:5c:ed:b9:4d:36:4b:85:be:ce:e8:48:
                    ff:45:88:fb:b9:4b:c6:d7:4d:e8:0b:14:28:10:a4:
                    fe:32:c0:88:20:cd:b6:90:fb:bb:82:cf:2a:23:3c:
                    42:f3:40:10:84:7b:80:52:61:10:dc:e8:9b:85:d1:
                    7c:f2:1b:6f:bb:8a:f4:72:9e:96:cd:2c:dc:58:c8:
                    00:e3:26:53:18:79:b4:72:9f:7d:f8:5b:dc:e4:a1:
                    b7:95:05:29:3d:5c:f2:3e:f8:f7:eb:87:d9:28:58:
                    65:9d:3b:ba:3a:4d:13:1b:6a:61:0a:9c:4e:ef:5d:
                    88:83:93:90:b4:08:74:a1:f5:aa:1c:02:3d:e1:43:
                    e6:7e:08:53:95:30:1b:b7:cf:03:55:bb:8c:8f:bc:
                    ec:cc:9b
                Exponent: 65537 (0x10001)
        X509v3 extensions:
            X509v3 Basic Constraints: 
                CA:FALSE
            Netscape Comment: 
                Easy-RSA Generated Certificate
            X509v3 Subject Key Identifier: 
                6D:F4:19:03:D2:93:FC:27:64:76:7F:15:D7:DE:40:75:2F:B1:9F:BF
            X509v3 Authority Key Identifier: 
                keyid:12:CD:60:04:D2:A0:80:9E:70:ED:C6:99:B8:7B:2C:C6:52:FD:19:A1
                DirName:/C=US/ST=OH/L=Columbus/O=VikingVPN/OU=MyOrganizationalUnit/CN=VikingVPN CA/name=EasyRSA/emailAddress=me@myhost.mydomain
                serial:CF:35:85:EE:80:BF:2A:3E

            X509v3 Extended Key Usage: 
                TLS Web Client Authentication
            X509v3 Key Usage: 
                Digital Signature
    Signature Algorithm: sha256WithRSAEncryption
         b5:9e:0a:e7:38:76:6e:97:63:a8:79:21:a5:d4:f6:52:43:24:
         47:1c:93:8a:14:95:81:9e:31:cd:ae:93:eb:b2:57:5b:dd:2e:
         4c:55:01:6b:38:0a:3a:8d:e4:16:61:8c:fd:28:0a:86:c8:ac:
         6e:8e:ba:d4:df:1e:7c:29:64:78:4b:ed:f9:f2:1e:49:9f:89:
         8d:fc:d3:a5:88:4e:bc:b6:ab:ef:bc:ce:d9:d1:f9:c0:53:e7:
         f1:cd:35:25:2b:10:a9:bd:cf:92:03:10:5a:14:3e:a9:8f:53:
         32:0c:2b:9a:2f:74:8e:04:f1:06:da:16:c8:7f:39:a9:bf:f1:
         d6:ef:30:4c:23:71:4e:f9:04:b2:86:15:56:60:97:54:20:e1:
         3c:99:57:89:cb:a9:e1:39:65:af:48:b6:a3:6d:8a:b5:95:00:
         6d:a0:8d:37:0b:32:dd:01:b4:18:ad:c6:83:8a:ba:5c:1b:72:
         d9:52:06:1a:e8:1f:f6:0c:db:bb:e7:d1:bd:d2:d1:39:a0:7d:
         d4:75:b1:49:69:41:d7:42:2e:d3:d5:d8:1f:a6:b3:60:78:21:
         d0:4b:83:e2:e3:7b:b8:81:d8:41:8f:1b:5a:3c:0f:75:11:be:
         a3:c5:0d:b9:e9:e9:5e:a9:03:a7:18:a5:3c:a5:68:a1:92:10:
         5f:a6:79:00:7b:6f:21:ea:95:c9:61:57:0c:08:26:66:3c:19:
         3f:2e:c4:86:59:3a:1a:d0:e8:4b:8c:3b:4e:f1:54:f4:32:84:
         26:0d:29:b1:7d:f6:03:a2:d0:7b:50:49:f4:7f:20:24:5b:8d:
         0f:91:ef:cd:86:fd:34:6a:4c:e5:80:51:b8:58:85:22:25:3e:
         42:b8:7d:a7:70:99:89:67:39:ee:9f:20:8a:9c:ea:87:0d:e7:
         81:cb:85:a2:71:7c:ae:68:74:c7:90:44:0c:db:ed:8e:63:0b:
         21:80:15:50:a6:5a:69:af:07:6d:ce:06:d4:91:19:6b:21:fe:
         59:dd:13:91:aa:43:0f:7f:b1:ee:d8:56:3b:ce:ea:5b:76:9b:
         e5:9d:eb:06:80:50:3c:c4:d0:52:89:27:bc:84:76:25:56:ec:
         2d:e4:e6:f0:a3:4a:ff:64:d7:38:79:1b:a3:3e:4a:42:98:18:
         3b:90:9f:1e:3e:5f:d7:bc:eb:c8:79:08:ca:81:fe:cc:a4:50:
         6e:6e:a4:49:da:fc:5c:13:1b:60:58:5a:d4:91:65:98:ed:ae:
         87:e8:bd:6c:78:6a:2f:87:a5:9e:63:d2:37:9d:86:23:70:d2:
         7e:66:cd:57:98:63:1b:55:43:4f:10:7d:95:a8:ff:dd:84:c1:
         78:1c:d0:f4:a8:7d:e9:1c
-----BEGIN CERTIFICATE-----
MIIGrTCCBJWgAwIBAgICK10wDQYJKoZIhvcNAQELBQAwgawxCzAJBgNVBAYTAlVT
MQswCQYDVQQIEwJPSDERMA8GA1UEBxMIQ29sdW1idXMxEjAQBgNVBAoTCVZpa2lu
Z1ZQTjEdMBsGA1UECxMUTXlPcmdhbml6YXRpb25hbFVuaXQxFTATBgNVBAMTDFZp
a2luZ1ZQTiBDQTEQMA4GA1UEKRMHRWFzeVJTQTEhMB8GCSqGSIb3DQEJARYSbWVA
bXlob3N0Lm15ZG9tYWluMB4XDTE3MDYwODIzMTE1NVoXDTI3MDYwNjIzMTE1NVow
HzEdMBsGA1UEAxMUQ2xpZW50MTYxNUNlcnQ3MmJkYWYwggIiMA0GCSqGSIb3DQEB
AQUAA4ICDwAwggIKAoICAQDeZ3bCfwnoijVX1OeHPNEkIFc4OOgfi70G/BkZQaya
FjbgNd+A0fZkGEOXFkt4o/2lQvWzAHiFOch4GYGkXS1NNvw11sQvSOjw/TciLyoV
z89H8NnVjYxvxvRoGkebUybM/cPBmIQHjzVhCcqAE9ccAKN1xTomTxeN/rcBV9sw
EfAP9IAdTGvpnj2+Rq2c1LLduoYf5ZzAQdsclHb14MsKa7P4Tju2Jzun3k2IAdgr
lCrtDha89FFnHupqZgs7c9NxAVE0EQjKumtiLGBdfQwyljRSoQHXL+olMVo3GniV
sPKBbvIXkLOYpYQfRhEKVEFY25EZSrPOferI1duHAMeMB1/5V6RxqXuuIrJ3t7Xk
5BR6yEDw/xNvPFuEfgXlitjqnBGvox63E52Tfm/xshGnyOJv5v/+RNxE2nRBxen6
vbUHbdfyzxBrJEmfugF69AJmfYpUE1VP+TNZ9N8IiFBQkOiXqIkKXpE3Mx1c7blN
NkuFvs7oSP9FiPu5S8bXTegLFCgQpP4ywIggzbaQ+7uCzyojPELzQBCEe4BSYRDc
6JuF0XzyG2+7ivRynpbNLNxYyADjJlMYebRyn334W9zkobeVBSk9XPI++Pfrh9ko
WGWdO7o6TRMbamEKnE7vXYiDk5C0CHSh9aocAj3hQ+Z+CFOVMBu3zwNVu4yPvOzM
mwIDAQABo4IBYzCCAV8wCQYDVR0TBAIwADAtBglghkgBhvhCAQ0EIBYeRWFzeS1S
U0EgR2VuZXJhdGVkIENlcnRpZmljYXRlMB0GA1UdDgQWBBRt9BkD0pP8J2R2fxXX
3kB1L7GfvzCB4QYDVR0jBIHZMIHWgBQSzWAE0qCAnnDtxpm4eyzGUv0ZoaGBsqSB
rzCBrDELMAkGA1UEBhMCVVMxCzAJBgNVBAgTAk9IMREwDwYDVQQHEwhDb2x1bWJ1
czESMBAGA1UEChMJVmlraW5nVlBOMR0wGwYDVQQLExRNeU9yZ2FuaXphdGlvbmFs
VW5pdDEVMBMGA1UEAxMMVmlraW5nVlBOIENBMRAwDgYDVQQpEwdFYXN5UlNBMSEw
HwYJKoZIhvcNAQkBFhJtZUBteWhvc3QubXlkb21haW6CCQDPNYXugL8qPjATBgNV
HSUEDDAKBggrBgEFBQcDAjALBgNVHQ8EBAMCB4AwDQYJKoZIhvcNAQELBQADggIB
ALWeCuc4dm6XY6h5IaXU9lJDJEcck4oUlYGeMc2uk+uyV1vdLkxVAWs4CjqN5BZh
jP0oCobIrG6OutTfHnwpZHhL7fnyHkmfiY3806WITry2q++8ztnR+cBT5/HNNSUr
EKm9z5IDEFoUPqmPUzIMK5ovdI4E8QbaFsh/Oam/8dbvMEwjcU75BLKGFVZgl1Qg
4TyZV4nLqeE5Za9ItqNtirWVAG2gjTcLMt0BtBitxoOKulwbctlSBhroH/YM27vn
0b3S0TmgfdR1sUlpQddCLtPV2B+ms2B4IdBLg+Lje7iB2EGPG1o8D3URvqPFDbnp
6V6pA6cYpTylaKGSEF+meQB7byHqlclhVwwIJmY8GT8uxIZZOhrQ6EuMO07xVPQy
hCYNKbF99gOi0HtQSfR/ICRbjQ+R782G/TRqTOWAUbhYhSIlPkK4fadwmYlnOe6f
IIqc6ocN54HLhaJxfK5odMeQRAzb7Y5jCyGAFVCmWmmvB23OBtSRGWsh/lndE5Gq
Qw9/se7YVjvO6lt2m+Wd6waAUDzE0FKJJ7yEdiVW7C3k5vCjSv9k1zh5G6M+SkKY
GDuQnx4+X9e868h5CMqB/sykUG5upEna/FwTG2BYWtSRZZjtrofovWx4ai+HpZ5j
0jedhiNw0n5mzVeYYxtVQ08QfZWo/92EwXgc0PSofekc
-----END CERTIFICATE-----
