Certificate:
    Data:
        Version: 3 (0x2)
        Serial Number: 11128 (0x2b78)
    Signature Algorithm: sha256WithRSAEncryption
        Issuer: C=US, ST=OH, L=Columbus, O=VikingVPN, OU=MyOrganizationalUnit, CN=VikingVPN CA/name=EasyRSA/emailAddress=me@myhost.mydomain
        Validity
            Not Before: Jun 15 19:44:29 2017 GMT
            Not After : Jun 13 19:44:29 2027 GMT
        Subject: CN=Client2693Cert685d6a
        Subject Public Key Info:
            Public Key Algorithm: rsaEncryption
                Public-Key: (4096 bit)
                Modulus:
                    00:c5:0f:bd:d6:2a:38:73:c4:e1:70:a6:a2:44:8b:
                    c0:f5:88:b7:3b:da:5d:83:9b:5c:88:ff:a8:b5:de:
                    8e:a5:aa:d3:fc:1a:31:f7:be:e3:35:86:3f:25:d7:
                    b3:53:ed:69:f8:eb:af:06:a9:c7:89:78:29:7e:07:
                    dc:37:77:7a:67:f9:48:9e:ed:3c:5b:63:d6:fb:92:
                    81:1e:ca:35:ee:be:0f:0a:1e:52:22:f5:33:2f:26:
                    47:1e:65:5c:cb:94:ab:e9:29:2f:5e:13:c8:47:25:
                    78:01:30:c3:d6:65:cf:06:92:3c:47:b2:ce:4e:a8:
                    fe:50:b4:1a:40:0a:d6:13:3a:03:ce:27:bb:48:df:
                    06:06:ef:79:f3:5a:bc:61:8b:dd:75:97:23:d2:53:
                    75:3e:69:70:f9:dc:ce:fa:12:5e:44:28:d6:8e:7a:
                    37:0b:b9:6a:6e:ee:52:a9:3e:a3:f4:38:9d:ad:6b:
                    66:78:a1:19:3a:73:5b:fc:23:6b:d9:46:e1:32:8f:
                    b9:55:80:06:33:4a:cf:ee:76:35:7b:43:d9:66:db:
                    bc:86:91:56:1c:85:ff:fb:23:1d:3f:7e:67:94:fd:
                    3b:6a:db:5e:b3:47:07:d6:d9:d2:d5:90:4f:78:b4:
                    dd:cf:05:ad:17:26:f1:be:92:59:55:a9:52:45:f1:
                    bd:b9:70:14:40:87:75:89:0c:92:69:55:ba:e2:47:
                    15:e6:ae:0e:01:f0:e0:66:4b:9e:39:6f:86:35:41:
                    fd:99:03:77:ac:6d:c5:e4:ff:e3:4d:c7:18:76:5f:
                    61:d0:03:4e:14:4e:83:15:c2:8c:e9:0c:af:13:02:
                    76:67:6b:f4:50:a1:84:60:b9:89:af:46:b5:5f:ff:
                    77:dd:d7:5e:1f:39:c1:f1:4a:91:76:e1:13:36:8b:
                    f6:dd:88:21:a9:cf:bd:41:66:0a:f0:06:a8:70:b7:
                    13:5d:7c:45:c6:b3:13:0d:f5:17:61:79:b0:fc:21:
                    3d:79:fa:ee:93:e7:5e:d3:97:09:94:12:9e:6d:0a:
                    2d:2e:a2:8f:78:48:c0:52:21:1f:05:4e:0f:56:43:
                    c0:b0:d4:c9:70:3f:a8:77:2e:5c:dd:d6:03:9a:0c:
                    9e:3f:a9:f4:04:0a:34:bc:d5:1e:28:f7:d9:ec:e3:
                    46:85:36:df:58:83:7f:9d:ce:78:94:6f:9a:e4:df:
                    e1:c6:18:33:05:38:26:6e:cd:8b:06:59:c7:53:55:
                    47:6c:77:cc:bc:68:97:ff:d3:99:79:f1:bd:05:e6:
                    a2:7f:64:db:99:0d:74:eb:05:40:00:47:15:5e:81:
                    73:08:25:8d:16:a4:1e:43:23:57:60:ef:61:05:cc:
                    5a:f5:11
                Exponent: 65537 (0x10001)
        X509v3 extensions:
            X509v3 Basic Constraints: 
                CA:FALSE
            Netscape Comment: 
                Easy-RSA Generated Certificate
            X509v3 Subject Key Identifier: 
                C0:71:E2:E3:16:6E:BA:00:67:0C:72:F2:3E:A9:36:F6:9A:0C:F0:8E
            X509v3 Authority Key Identifier: 
                keyid:12:CD:60:04:D2:A0:80:9E:70:ED:C6:99:B8:7B:2C:C6:52:FD:19:A1
                DirName:/C=US/ST=OH/L=Columbus/O=VikingVPN/OU=MyOrganizationalUnit/CN=VikingVPN CA/name=EasyRSA/emailAddress=me@myhost.mydomain
                serial:CF:35:85:EE:80:BF:2A:3E

            X509v3 Extended Key Usage: 
                TLS Web Client Authentication
            X509v3 Key Usage: 
                Digital Signature
    Signature Algorithm: sha256WithRSAEncryption
         71:bb:7e:0f:33:59:58:0c:5a:4c:30:e1:ae:57:91:be:68:f9:
         c6:b9:92:2e:d9:76:6e:bd:2e:a9:36:f9:cc:4d:0a:3a:d3:90:
         f3:6a:36:d3:6a:7b:95:15:84:08:be:d5:fb:f7:1c:65:9e:eb:
         f5:cd:16:86:65:aa:14:d9:27:31:0b:01:c7:04:98:ed:85:51:
         49:ac:9c:bd:f5:a7:cb:78:ff:8f:48:9d:b6:4c:8c:ff:ba:63:
         f3:b2:91:06:6d:e4:d3:60:4a:fc:56:4f:b0:32:dd:21:90:87:
         38:56:c5:d5:a0:6a:de:71:f4:de:ec:c6:38:dc:28:a8:ef:03:
         22:e2:ce:f2:69:dc:95:a8:f8:ee:13:cf:90:51:e0:10:82:8c:
         73:1a:a0:56:6c:e9:4a:f6:de:ff:04:ff:41:65:99:88:6f:42:
         18:a0:aa:82:bb:f7:b1:58:59:40:55:94:2f:25:b5:7a:f2:5d:
         96:c9:92:eb:2d:b8:bd:73:19:fa:06:11:63:29:3d:06:1c:08:
         d4:17:32:6a:57:f2:f6:ba:60:43:49:71:dd:46:0a:4a:54:83:
         95:6f:9b:30:d5:96:56:e0:30:eb:a5:01:7d:5f:cc:bc:ee:dc:
         9b:7b:95:a0:08:ec:80:91:4f:c7:3d:32:f1:e7:d9:97:bd:f4:
         c2:d1:bb:8d:ec:3a:50:66:22:3a:9b:c8:72:18:e6:85:b1:38:
         49:75:e8:6f:5b:c4:28:d2:a8:a3:53:5f:ee:a3:31:9e:b2:cc:
         9a:dc:b5:a7:01:1a:27:72:3e:54:87:33:8d:a7:e8:59:1e:51:
         19:87:89:df:1a:ac:8c:54:45:22:46:90:e2:e7:64:4e:8f:20:
         41:f4:86:77:00:91:0c:96:fe:d5:63:fe:ff:75:cd:e7:5e:24:
         eb:fa:b5:21:e2:83:f4:c4:7e:cf:10:e9:0f:ff:6a:6d:6e:8b:
         9c:f4:5d:69:0b:26:3d:ca:04:5a:f3:87:e1:03:87:f6:d4:84:
         7e:37:59:7f:58:3f:e7:7f:85:b0:19:93:a2:36:24:33:65:e8:
         84:91:8d:87:d9:8e:69:cd:8a:b8:30:95:e3:e9:dc:7a:35:ed:
         0a:ea:97:16:fc:14:6e:0e:d1:61:10:61:7e:66:a5:8e:90:3c:
         b2:bf:d8:df:d3:74:49:ab:aa:c8:e8:ec:85:43:e9:8e:9e:58:
         bb:4d:60:05:8b:9b:61:2e:ee:56:cc:78:07:55:4a:47:38:48:
         02:01:78:7f:2b:ce:db:ba:20:22:77:aa:e2:f0:d8:9a:94:c0:
         23:d8:51:84:4d:c2:32:b6:3b:85:2a:e0:f4:4d:40:d5:8a:6a:
         57:32:29:07:21:fa:c0:78
-----BEGIN CERTIFICATE-----
MIIGrTCCBJWgAwIBAgICK3gwDQYJKoZIhvcNAQELBQAwgawxCzAJBgNVBAYTAlVT
MQswCQYDVQQIEwJPSDERMA8GA1UEBxMIQ29sdW1idXMxEjAQBgNVBAoTCVZpa2lu
Z1ZQTjEdMBsGA1UECxMUTXlPcmdhbml6YXRpb25hbFVuaXQxFTATBgNVBAMTDFZp
a2luZ1ZQTiBDQTEQMA4GA1UEKRMHRWFzeVJTQTEhMB8GCSqGSIb3DQEJARYSbWVA
bXlob3N0Lm15ZG9tYWluMB4XDTE3MDYxNTE5NDQyOVoXDTI3MDYxMzE5NDQyOVow
HzEdMBsGA1UEAxMUQ2xpZW50MjY5M0NlcnQ2ODVkNmEwggIiMA0GCSqGSIb3DQEB
AQUAA4ICDwAwggIKAoICAQDFD73WKjhzxOFwpqJEi8D1iLc72l2Dm1yI/6i13o6l
qtP8GjH3vuM1hj8l17NT7Wn4668GqceJeCl+B9w3d3pn+Uie7TxbY9b7koEeyjXu
vg8KHlIi9TMvJkceZVzLlKvpKS9eE8hHJXgBMMPWZc8GkjxHss5OqP5QtBpACtYT
OgPOJ7tI3wYG73nzWrxhi911lyPSU3U+aXD53M76El5EKNaOejcLuWpu7lKpPqP0
OJ2ta2Z4oRk6c1v8I2vZRuEyj7lVgAYzSs/udjV7Q9lm27yGkVYchf/7Ix0/fmeU
/Ttq216zRwfW2dLVkE94tN3PBa0XJvG+kllVqVJF8b25cBRAh3WJDJJpVbriRxXm
rg4B8OBmS545b4Y1Qf2ZA3esbcXk/+NNxxh2X2HQA04UToMVwozpDK8TAnZna/RQ
oYRguYmvRrVf/3fd114fOcHxSpF24RM2i/bdiCGpz71BZgrwBqhwtxNdfEXGsxMN
9RdhebD8IT15+u6T517TlwmUEp5tCi0uoo94SMBSIR8FTg9WQ8Cw1MlwP6h3Llzd
1gOaDJ4/qfQECjS81R4o99ns40aFNt9Yg3+dzniUb5rk3+HGGDMFOCZuzYsGWcdT
VUdsd8y8aJf/05l58b0F5qJ/ZNuZDXTrBUAARxVegXMIJY0WpB5DI1dg72EFzFr1
EQIDAQABo4IBYzCCAV8wCQYDVR0TBAIwADAtBglghkgBhvhCAQ0EIBYeRWFzeS1S
U0EgR2VuZXJhdGVkIENlcnRpZmljYXRlMB0GA1UdDgQWBBTAceLjFm66AGcMcvI+
qTb2mgzwjjCB4QYDVR0jBIHZMIHWgBQSzWAE0qCAnnDtxpm4eyzGUv0ZoaGBsqSB
rzCBrDELMAkGA1UEBhMCVVMxCzAJBgNVBAgTAk9IMREwDwYDVQQHEwhDb2x1bWJ1
czESMBAGA1UEChMJVmlraW5nVlBOMR0wGwYDVQQLExRNeU9yZ2FuaXphdGlvbmFs
VW5pdDEVMBMGA1UEAxMMVmlraW5nVlBOIENBMRAwDgYDVQQpEwdFYXN5UlNBMSEw
HwYJKoZIhvcNAQkBFhJtZUBteWhvc3QubXlkb21haW6CCQDPNYXugL8qPjATBgNV
HSUEDDAKBggrBgEFBQcDAjALBgNVHQ8EBAMCB4AwDQYJKoZIhvcNAQELBQADggIB
AHG7fg8zWVgMWkww4a5Xkb5o+ca5ki7Zdm69Lqk2+cxNCjrTkPNqNtNqe5UVhAi+
1fv3HGWe6/XNFoZlqhTZJzELAccEmO2FUUmsnL31p8t4/49InbZMjP+6Y/OykQZt
5NNgSvxWT7Ay3SGQhzhWxdWgat5x9N7sxjjcKKjvAyLizvJp3JWo+O4Tz5BR4BCC
jHMaoFZs6Ur23v8E/0FlmYhvQhigqoK797FYWUBVlC8ltXryXZbJkustuL1zGfoG
EWMpPQYcCNQXMmpX8va6YENJcd1GCkpUg5VvmzDVllbgMOulAX1fzLzu3Jt7laAI
7ICRT8c9MvHn2Ze99MLRu43sOlBmIjqbyHIY5oWxOEl16G9bxCjSqKNTX+6jMZ6y
zJrctacBGidyPlSHM42n6FkeURmHid8arIxURSJGkOLnZE6PIEH0hncAkQyW/tVj
/v91zedeJOv6tSHig/TEfs8Q6Q//am1ui5z0XWkLJj3KBFrzh+EDh/bUhH43WX9Y
P+d/hbAZk6I2JDNl6ISRjYfZjmnNirgwlePp3Ho17Qrqlxb8FG4O0WEQYX5mpY6Q
PLK/2N/TdEmrqsjo7IVD6Y6eWLtNYAWLm2Eu7lbMeAdVSkc4SAIBeH8rztu6ICJ3
quLw2JqUwCPYUYRNwjK2O4Uq4PRNQNWKalcyKQch+sB4
-----END CERTIFICATE-----
