Certificate:
    Data:
        Version: 3 (0x2)
        Serial Number: 11132 (0x2b7c)
    Signature Algorithm: sha256WithRSAEncryption
        Issuer: C=US, ST=OH, L=Columbus, O=VikingVPN, OU=MyOrganizationalUnit, CN=VikingVPN CA/name=EasyRSA/emailAddress=me@myhost.mydomain
        Validity
            Not Before: Jun 16 07:03:04 2017 GMT
            Not After : Jun 14 07:03:04 2027 GMT
        Subject: CN=Client2957Cert0c7a14
        Subject Public Key Info:
            Public Key Algorithm: rsaEncryption
                Public-Key: (4096 bit)
                Modulus:
                    00:a5:6b:c9:3a:26:da:92:aa:6f:10:06:b7:91:60:
                    39:15:b6:32:28:ee:d6:5f:0e:95:ad:61:7a:a2:11:
                    7b:77:f6:b9:40:b8:25:25:c7:d1:e2:aa:df:09:a7:
                    09:02:0f:72:98:28:cc:11:d8:13:08:46:ef:ee:e2:
                    0f:61:92:8b:26:15:7d:9f:94:69:37:b4:07:69:76:
                    33:fd:8f:1d:60:3d:8b:57:02:16:ea:32:29:63:8b:
                    31:b5:b5:4a:60:41:e8:dd:63:4f:83:49:ca:b7:54:
                    64:88:22:f3:1a:2b:38:a4:ad:82:b2:12:1b:ce:44:
                    20:f0:4e:26:f9:fd:c1:1d:bb:1b:88:9c:be:9b:99:
                    df:8b:88:a7:4c:d1:83:c2:50:9d:81:cb:30:c9:1c:
                    7b:bf:4c:83:61:86:bc:62:68:2a:02:45:5c:ad:5d:
                    c3:e6:9b:52:c9:06:a4:20:98:48:8a:2e:9f:9d:d5:
                    f9:30:07:2f:49:9c:eb:8d:a8:13:57:ab:aa:c2:03:
                    8e:09:86:a4:92:42:94:2d:af:d7:b2:33:26:29:cd:
                    75:b4:9e:42:11:4e:09:73:bd:71:8b:76:85:fc:49:
                    04:56:23:a2:a2:29:a9:38:e1:6c:c2:be:b1:12:32:
                    34:51:5d:43:7e:ed:b9:e2:6c:12:06:94:06:ae:88:
                    1c:cd:76:3d:90:67:5c:fd:95:a8:07:98:0c:ab:c3:
                    97:2c:e1:77:72:b1:65:ad:dd:94:11:b8:32:f7:ea:
                    38:7f:21:4d:57:fa:9c:df:cd:33:a7:55:1e:68:36:
                    08:14:cd:7d:6a:44:c7:d1:c8:58:88:fe:3f:4f:0c:
                    8b:8e:b3:e9:31:7f:4e:f0:d4:8f:63:3f:5c:6c:96:
                    6b:c3:05:ff:ab:22:9b:4b:b3:16:55:2b:0c:a8:a3:
                    90:af:88:9b:8b:95:e4:93:16:97:b9:59:39:9d:65:
                    f4:3b:a3:5c:38:b1:86:d9:ea:c1:53:e5:b7:2c:15:
                    3c:0d:11:7c:8f:3a:2c:08:bd:92:15:c1:83:0c:8b:
                    9a:59:0b:0f:5a:d1:f9:07:1a:2a:a4:e3:89:26:af:
                    32:dd:fc:0b:9a:cf:5c:4e:82:35:8b:4c:4c:37:4f:
                    03:a7:c0:f7:ce:1e:25:6c:4d:83:ad:5e:0a:d4:7d:
                    79:e6:e3:be:a5:7a:0d:3a:b4:8f:82:97:1c:f5:4f:
                    a6:a7:7b:28:42:7d:db:a5:8a:fa:35:ea:64:c9:d2:
                    cd:ab:46:1d:34:6e:11:ed:6d:0e:85:14:74:f1:5c:
                    aa:1d:a3:a3:31:37:e2:78:d7:39:6e:fc:c9:62:08:
                    f3:b0:1c:a4:51:d6:15:c1:fd:aa:82:cd:f9:ac:41:
                    c7:e3:89
                Exponent: 65537 (0x10001)
        X509v3 extensions:
            X509v3 Basic Constraints: 
                CA:FALSE
            Netscape Comment: 
                Easy-RSA Generated Certificate
            X509v3 Subject Key Identifier: 
                E8:6B:EB:4F:7F:74:21:BB:BA:00:C7:39:05:10:33:C1:F4:1B:B5:34
            X509v3 Authority Key Identifier: 
                keyid:12:CD:60:04:D2:A0:80:9E:70:ED:C6:99:B8:7B:2C:C6:52:FD:19:A1
                DirName:/C=US/ST=OH/L=Columbus/O=VikingVPN/OU=MyOrganizationalUnit/CN=VikingVPN CA/name=EasyRSA/emailAddress=me@myhost.mydomain
                serial:CF:35:85:EE:80:BF:2A:3E

            X509v3 Extended Key Usage: 
                TLS Web Client Authentication
            X509v3 Key Usage: 
                Digital Signature
    Signature Algorithm: sha256WithRSAEncryption
         b7:da:20:ea:d0:7e:be:ef:18:34:b1:1e:cb:fb:77:b6:74:15:
         d4:58:52:1d:4a:cd:ef:cb:5f:51:01:bb:7c:50:42:70:a5:05:
         73:08:02:40:41:a7:ee:41:2e:76:d5:21:43:47:db:e7:57:0e:
         61:61:bf:7b:ab:50:07:9a:3f:5c:d9:40:26:5e:36:e1:44:24:
         0c:56:73:a3:65:72:17:ce:e6:04:ae:c1:20:c9:68:17:da:2c:
         2d:58:78:09:b1:55:9e:6a:2d:45:1a:18:e6:1a:51:b9:05:8c:
         5a:c2:6b:1d:5b:d1:33:33:ee:5c:fc:14:55:76:3b:14:11:69:
         ca:b1:f7:10:9a:3e:10:b7:bf:b4:d6:99:38:86:1f:01:68:3a:
         ce:f1:f7:67:b7:93:34:dc:2d:bb:b5:af:d8:c1:1e:3c:00:d1:
         12:a1:eb:eb:f0:e8:5e:7d:4d:1f:6d:bd:2c:01:b8:5d:21:a0:
         9d:4c:90:2e:16:c8:b1:7c:84:c1:38:ff:48:fa:07:a3:f6:3f:
         e1:c3:12:86:46:52:49:8f:ec:fd:85:15:3d:b4:00:e7:f1:b4:
         8d:9d:4e:c9:29:67:0f:35:20:2f:88:56:e9:33:6b:bf:50:f3:
         19:93:91:ac:3d:c6:30:e0:3d:e9:63:f2:99:9d:32:ca:1c:90:
         51:7b:f0:f9:73:b3:2b:2e:83:a0:75:45:4d:5d:c4:aa:cd:da:
         a9:95:22:a0:14:c9:64:f5:9e:a3:0e:0a:c1:0a:7e:94:e2:8d:
         08:f8:ab:d0:df:1e:50:2c:e8:0f:19:7d:41:ba:37:6e:95:72:
         87:2d:04:27:f5:a6:25:a1:ff:02:18:c8:e8:c3:73:ab:94:1c:
         cd:c2:ce:68:3a:5b:5c:ef:6e:cc:41:0b:7c:a8:a6:61:67:4c:
         b3:e2:17:16:5c:e8:42:49:df:9e:60:39:89:3f:c4:6a:d2:95:
         b6:96:89:c4:68:a1:eb:89:bd:2c:25:a5:db:17:e2:db:b5:7a:
         6d:9a:c7:37:ac:87:4d:b0:f9:0e:3b:eb:0f:0c:dd:3b:bc:c1:
         c2:3e:8a:0c:1d:6d:be:e1:9b:1f:85:ac:b4:0a:0f:a7:d9:52:
         85:d3:55:a7:1d:eb:f8:88:e6:16:c7:3f:f3:12:39:89:0f:07:
         39:a1:c1:ab:8c:1a:f1:16:b5:56:2c:05:39:6f:d0:52:18:3d:
         15:7f:d4:49:ef:f7:36:67:8c:ac:d3:b8:86:29:63:00:75:38:
         17:88:53:68:42:5b:74:4f:b6:d2:9c:8f:77:4b:a1:c7:b1:c4:
         4e:c6:4d:1c:63:00:fb:98:59:cd:99:fd:c3:3f:89:7c:0b:26:
         38:d9:85:73:b0:7f:e3:f3
-----BEGIN CERTIFICATE-----
MIIGrTCCBJWgAwIBAgICK3wwDQYJKoZIhvcNAQELBQAwgawxCzAJBgNVBAYTAlVT
MQswCQYDVQQIEwJPSDERMA8GA1UEBxMIQ29sdW1idXMxEjAQBgNVBAoTCVZpa2lu
Z1ZQTjEdMBsGA1UECxMUTXlPcmdhbml6YXRpb25hbFVuaXQxFTATBgNVBAMTDFZp
a2luZ1ZQTiBDQTEQMA4GA1UEKRMHRWFzeVJTQTEhMB8GCSqGSIb3DQEJARYSbWVA
bXlob3N0Lm15ZG9tYWluMB4XDTE3MDYxNjA3MDMwNFoXDTI3MDYxNDA3MDMwNFow
HzEdMBsGA1UEAxMUQ2xpZW50Mjk1N0NlcnQwYzdhMTQwggIiMA0GCSqGSIb3DQEB
AQUAA4ICDwAwggIKAoICAQCla8k6JtqSqm8QBreRYDkVtjIo7tZfDpWtYXqiEXt3
9rlAuCUlx9Hiqt8JpwkCD3KYKMwR2BMIRu/u4g9hkosmFX2flGk3tAdpdjP9jx1g
PYtXAhbqMiljizG1tUpgQejdY0+DScq3VGSIIvMaKzikrYKyEhvORCDwTib5/cEd
uxuInL6bmd+LiKdM0YPCUJ2ByzDJHHu/TINhhrxiaCoCRVytXcPmm1LJBqQgmEiK
Lp+d1fkwBy9JnOuNqBNXq6rCA44JhqSSQpQtr9eyMyYpzXW0nkIRTglzvXGLdoX8
SQRWI6KiKak44WzCvrESMjRRXUN+7bnibBIGlAauiBzNdj2QZ1z9lagHmAyrw5cs
4XdysWWt3ZQRuDL36jh/IU1X+pzfzTOnVR5oNggUzX1qRMfRyFiI/j9PDIuOs+kx
f07w1I9jP1xslmvDBf+rIptLsxZVKwyoo5CviJuLleSTFpe5WTmdZfQ7o1w4sYbZ
6sFT5bcsFTwNEXyPOiwIvZIVwYMMi5pZCw9a0fkHGiqk44kmrzLd/Auaz1xOgjWL
TEw3TwOnwPfOHiVsTYOtXgrUfXnm476leg06tI+Clxz1T6aneyhCfdulivo16mTJ
0s2rRh00bhHtbQ6FFHTxXKodo6MxN+J41zlu/MliCPOwHKRR1hXB/aqCzfmsQcfj
iQIDAQABo4IBYzCCAV8wCQYDVR0TBAIwADAtBglghkgBhvhCAQ0EIBYeRWFzeS1S
U0EgR2VuZXJhdGVkIENlcnRpZmljYXRlMB0GA1UdDgQWBBToa+tPf3Qhu7oAxzkF
EDPB9Bu1NDCB4QYDVR0jBIHZMIHWgBQSzWAE0qCAnnDtxpm4eyzGUv0ZoaGBsqSB
rzCBrDELMAkGA1UEBhMCVVMxCzAJBgNVBAgTAk9IMREwDwYDVQQHEwhDb2x1bWJ1
czESMBAGA1UEChMJVmlraW5nVlBOMR0wGwYDVQQLExRNeU9yZ2FuaXphdGlvbmFs
VW5pdDEVMBMGA1UEAxMMVmlraW5nVlBOIENBMRAwDgYDVQQpEwdFYXN5UlNBMSEw
HwYJKoZIhvcNAQkBFhJtZUBteWhvc3QubXlkb21haW6CCQDPNYXugL8qPjATBgNV
HSUEDDAKBggrBgEFBQcDAjALBgNVHQ8EBAMCB4AwDQYJKoZIhvcNAQELBQADggIB
ALfaIOrQfr7vGDSxHsv7d7Z0FdRYUh1Kze/LX1EBu3xQQnClBXMIAkBBp+5BLnbV
IUNH2+dXDmFhv3urUAeaP1zZQCZeNuFEJAxWc6NlchfO5gSuwSDJaBfaLC1YeAmx
VZ5qLUUaGOYaUbkFjFrCax1b0TMz7lz8FFV2OxQRacqx9xCaPhC3v7TWmTiGHwFo
Os7x92e3kzTcLbu1r9jBHjwA0RKh6+vw6F59TR9tvSwBuF0hoJ1MkC4WyLF8hME4
/0j6B6P2P+HDEoZGUkmP7P2FFT20AOfxtI2dTskpZw81IC+IVukza79Q8xmTkaw9
xjDgPelj8pmdMsockFF78Plzsysug6B1RU1dxKrN2qmVIqAUyWT1nqMOCsEKfpTi
jQj4q9DfHlAs6A8ZfUG6N26VcoctBCf1piWh/wIYyOjDc6uUHM3Czmg6W1zvbsxB
C3yopmFnTLPiFxZc6EJJ355gOYk/xGrSlbaWicRooeuJvSwlpdsX4tu1em2axzes
h02w+Q476w8M3Tu8wcI+igwdbb7hmx+FrLQKD6fZUoXTVacd6/iI5hbHP/MSOYkP
BzmhwauMGvEWtVYsBTlv0FIYPRV/1Env9zZnjKzTuIYpYwB1OBeIU2hCW3RPttKc
j3dLocexxE7GTRxjAPuYWc2Z/cM/iXwLJjjZhXOwf+Pz
-----END CERTIFICATE-----
