Certificate:
    Data:
        Version: 3 (0x2)
        Serial Number: 11143 (0x2b87)
    Signature Algorithm: sha256WithRSAEncryption
        Issuer: C=US, ST=OH, L=Columbus, O=VikingVPN, OU=MyOrganizationalUnit, CN=VikingVPN CA/name=EasyRSA/emailAddress=me@myhost.mydomain
        Validity
            Not Before: Jun 18 22:40:31 2017 GMT
            Not After : Jun 16 22:40:31 2027 GMT
        Subject: CN=Client1708Cert722998
        Subject Public Key Info:
            Public Key Algorithm: rsaEncryption
                Public-Key: (4096 bit)
                Modulus:
                    00:95:42:49:e3:66:d8:28:5c:99:2e:ba:96:cd:18:
                    97:44:b3:0d:79:1a:9a:64:12:d6:ab:92:96:12:6a:
                    33:85:78:70:20:16:20:18:ac:13:50:c4:a6:90:ec:
                    ba:15:a9:ac:d9:12:a5:71:00:c6:20:51:cf:be:d8:
                    bb:e6:2a:32:3b:79:eb:cf:05:47:35:51:75:f8:54:
                    f9:8d:a1:df:a3:df:da:37:30:56:f5:74:70:19:c8:
                    ca:35:ea:68:89:50:b0:da:1f:a8:f5:c4:c4:76:c6:
                    e4:fb:43:76:17:64:f8:bb:f7:08:c6:33:95:a8:78:
                    c1:ff:ef:bd:42:5c:4e:20:ff:b8:f9:ed:66:c3:e4:
                    a5:fe:a4:a9:e4:d0:46:28:51:be:73:96:f3:2a:7c:
                    77:29:36:24:64:a8:26:74:db:02:af:9c:78:da:bf:
                    8a:b9:a1:5b:03:6c:eb:94:2d:48:22:36:bb:26:88:
                    ec:27:ba:27:df:e0:05:13:da:ae:05:56:ef:e6:c9:
                    9b:4d:c7:94:03:9d:92:40:f7:61:2e:6e:7b:ef:27:
                    45:3f:3a:9c:28:d9:c8:ed:cb:9d:b5:8e:87:ad:f8:
                    36:f0:68:52:bb:2e:ab:de:4f:0b:ea:a0:30:57:2d:
                    1d:ba:8c:df:25:e9:66:d5:bf:41:cf:a4:f2:6c:2a:
                    55:d4:97:a5:16:e6:bf:8c:db:dd:84:d9:4e:be:ba:
                    9c:a5:98:85:35:7d:50:3a:c2:81:17:19:37:f2:83:
                    e8:16:93:af:2d:6c:1b:59:7b:f1:1a:ce:60:3b:0b:
                    53:4b:3b:12:e0:66:6d:18:cf:92:23:92:91:fa:53:
                    14:4a:81:8d:88:be:94:e8:db:c6:5c:5d:b7:34:c5:
                    bb:2b:4c:df:63:97:30:b9:08:3a:4d:1e:3a:fa:37:
                    11:9c:64:5d:6b:b7:fa:fb:89:ab:52:23:4f:9b:b0:
                    bc:f6:33:da:28:1d:84:65:dc:f3:1e:66:68:98:ad:
                    ee:14:92:70:a6:e2:f6:32:0b:f4:ae:e9:99:f0:1c:
                    45:d1:48:5f:27:5b:38:ca:38:60:f4:71:3b:9b:eb:
                    dd:45:05:f4:36:a6:fb:d7:8e:3d:ef:f5:31:8d:53:
                    1d:56:bc:33:45:8c:ad:00:b5:01:3a:a5:83:04:01:
                    4e:c2:32:6f:9c:64:72:f3:d8:b2:86:f7:59:c1:86:
                    87:22:2a:9a:be:20:2b:21:89:f5:83:c4:1c:18:0f:
                    5a:5b:93:21:e6:95:4b:71:14:a5:c8:c2:b2:26:e3:
                    ce:3a:dc:21:84:df:8e:00:9b:7e:a3:3c:55:7a:4a:
                    7f:18:61:6e:22:ea:06:65:6f:61:23:e8:dd:76:b9:
                    e4:c7:cd
                Exponent: 65537 (0x10001)
        X509v3 extensions:
            X509v3 Basic Constraints: 
                CA:FALSE
            Netscape Comment: 
                Easy-RSA Generated Certificate
            X509v3 Subject Key Identifier: 
                F7:24:7E:92:D7:C8:F5:EB:1C:65:1D:88:CA:57:A5:BD:B8:F8:FD:D5
            X509v3 Authority Key Identifier: 
                keyid:12:CD:60:04:D2:A0:80:9E:70:ED:C6:99:B8:7B:2C:C6:52:FD:19:A1
                DirName:/C=US/ST=OH/L=Columbus/O=VikingVPN/OU=MyOrganizationalUnit/CN=VikingVPN CA/name=EasyRSA/emailAddress=me@myhost.mydomain
                serial:CF:35:85:EE:80:BF:2A:3E

            X509v3 Extended Key Usage: 
                TLS Web Client Authentication
            X509v3 Key Usage: 
                Digital Signature
    Signature Algorithm: sha256WithRSAEncryption
         8c:38:16:b9:db:86:32:a9:e6:c3:56:0c:e9:f9:89:ea:dd:d4:
         1f:e6:11:da:ea:5f:f7:bf:40:6c:b3:5e:98:4e:81:c1:13:a5:
         38:c1:e2:0b:3c:5f:58:e5:f9:09:06:47:c1:ce:30:29:48:db:
         76:7e:8f:5d:3d:5e:f0:02:1d:46:98:28:24:50:c1:09:80:5a:
         17:05:f6:7a:d7:41:93:b2:4b:2d:e3:af:c7:93:ba:73:dc:74:
         4c:c1:5f:93:b3:38:be:09:11:33:dd:29:d9:2f:3b:e8:8e:f9:
         31:f5:a7:05:6d:dd:1b:6a:fb:75:04:f7:77:25:04:d7:54:d5:
         b9:e6:e4:51:82:40:05:93:fe:bd:2a:48:77:c0:d2:46:d8:a0:
         49:b9:0c:fe:9d:10:6e:6f:6d:ef:4a:00:8a:bc:0c:ea:8d:ec:
         8b:fb:ba:66:d0:51:d1:78:76:1c:72:ac:42:f5:2e:04:b2:5f:
         4b:3b:6e:d3:a5:55:69:26:43:a0:11:f5:fe:0d:2e:9a:35:66:
         74:c1:75:00:15:a9:11:f3:e6:b3:9c:79:5a:30:1b:4c:da:f3:
         68:fc:58:31:78:30:d4:e0:1f:50:ec:7d:5e:4a:c1:fa:90:2b:
         3b:ee:c1:31:4d:9e:ce:32:7a:72:af:5a:02:15:4b:8b:1f:8f:
         7d:6d:90:87:f4:ec:d9:9e:29:18:27:71:f0:ee:32:f5:db:65:
         65:70:8b:2c:e7:a8:0a:26:8b:09:39:cf:5e:b1:bc:a4:fa:8c:
         e1:b1:13:ca:09:3c:70:e3:f3:8b:2f:cf:fe:67:ea:1f:38:df:
         70:21:c0:1a:8c:28:08:42:24:7f:86:42:5a:93:47:17:57:3f:
         68:a4:50:05:dc:d6:a0:7e:ae:5f:b9:52:28:48:47:e9:eb:24:
         47:f4:06:11:d0:d9:39:03:3e:7c:33:eb:3c:ce:72:1c:bc:d0:
         aa:e3:16:8d:e6:39:b1:29:31:e7:28:5a:73:57:a0:60:0a:86:
         46:a5:cd:bb:44:67:ac:fc:24:ff:7c:63:ae:79:a1:f3:66:78:
         1f:40:d8:01:2c:82:64:fb:cf:b2:1b:bd:4d:59:de:f5:cb:ba:
         30:2e:3f:2d:35:bc:79:d6:6f:f0:0f:bf:fd:7d:9d:25:89:06:
         be:7d:e7:74:15:f7:a6:61:cf:95:a3:2a:28:bd:cd:50:b8:8a:
         40:0a:88:d2:b2:e9:4d:56:e6:b9:10:20:a4:6b:3e:e2:49:ab:
         cb:88:e5:d7:af:16:9a:27:8a:ad:40:41:1d:03:40:75:38:8e:
         0e:81:0d:8b:47:5c:77:1d:50:aa:3c:81:ab:88:ae:30:30:c2:
         dc:c5:83:02:b1:7c:79:9f
-----BEGIN CERTIFICATE-----
MIIGrTCCBJWgAwIBAgICK4cwDQYJKoZIhvcNAQELBQAwgawxCzAJBgNVBAYTAlVT
MQswCQYDVQQIEwJPSDERMA8GA1UEBxMIQ29sdW1idXMxEjAQBgNVBAoTCVZpa2lu
Z1ZQTjEdMBsGA1UECxMUTXlPcmdhbml6YXRpb25hbFVuaXQxFTATBgNVBAMTDFZp
a2luZ1ZQTiBDQTEQMA4GA1UEKRMHRWFzeVJTQTEhMB8GCSqGSIb3DQEJARYSbWVA
bXlob3N0Lm15ZG9tYWluMB4XDTE3MDYxODIyNDAzMVoXDTI3MDYxNjIyNDAzMVow
HzEdMBsGA1UEAxMUQ2xpZW50MTcwOENlcnQ3MjI5OTgwggIiMA0GCSqGSIb3DQEB
AQUAA4ICDwAwggIKAoICAQCVQknjZtgoXJkuupbNGJdEsw15GppkEtarkpYSajOF
eHAgFiAYrBNQxKaQ7LoVqazZEqVxAMYgUc++2LvmKjI7eevPBUc1UXX4VPmNod+j
39o3MFb1dHAZyMo16miJULDaH6j1xMR2xuT7Q3YXZPi79wjGM5WoeMH/771CXE4g
/7j57WbD5KX+pKnk0EYoUb5zlvMqfHcpNiRkqCZ02wKvnHjav4q5oVsDbOuULUgi
NrsmiOwnuiff4AUT2q4FVu/myZtNx5QDnZJA92EubnvvJ0U/Opwo2cjty521joet
+DbwaFK7LqveTwvqoDBXLR26jN8l6WbVv0HPpPJsKlXUl6UW5r+M292E2U6+upyl
mIU1fVA6woEXGTfyg+gWk68tbBtZe/EazmA7C1NLOxLgZm0Yz5IjkpH6UxRKgY2I
vpTo28ZcXbc0xbsrTN9jlzC5CDpNHjr6NxGcZF1rt/r7iatSI0+bsLz2M9ooHYRl
3PMeZmiYre4UknCm4vYyC/Su6ZnwHEXRSF8nWzjKOGD0cTub691FBfQ2pvvXjj3v
9TGNUx1WvDNFjK0AtQE6pYMEAU7CMm+cZHLz2LKG91nBhociKpq+ICshifWDxBwY
D1pbkyHmlUtxFKXIwrIm48463CGE344Am36jPFV6Sn8YYW4i6gZlb2Ej6N12ueTH
zQIDAQABo4IBYzCCAV8wCQYDVR0TBAIwADAtBglghkgBhvhCAQ0EIBYeRWFzeS1S
U0EgR2VuZXJhdGVkIENlcnRpZmljYXRlMB0GA1UdDgQWBBT3JH6S18j16xxlHYjK
V6W9uPj91TCB4QYDVR0jBIHZMIHWgBQSzWAE0qCAnnDtxpm4eyzGUv0ZoaGBsqSB
rzCBrDELMAkGA1UEBhMCVVMxCzAJBgNVBAgTAk9IMREwDwYDVQQHEwhDb2x1bWJ1
czESMBAGA1UEChMJVmlraW5nVlBOMR0wGwYDVQQLExRNeU9yZ2FuaXphdGlvbmFs
VW5pdDEVMBMGA1UEAxMMVmlraW5nVlBOIENBMRAwDgYDVQQpEwdFYXN5UlNBMSEw
HwYJKoZIhvcNAQkBFhJtZUBteWhvc3QubXlkb21haW6CCQDPNYXugL8qPjATBgNV
HSUEDDAKBggrBgEFBQcDAjALBgNVHQ8EBAMCB4AwDQYJKoZIhvcNAQELBQADggIB
AIw4FrnbhjKp5sNWDOn5ierd1B/mEdrqX/e/QGyzXphOgcETpTjB4gs8X1jl+QkG
R8HOMClI23Z+j109XvACHUaYKCRQwQmAWhcF9nrXQZOySy3jr8eTunPcdEzBX5Oz
OL4JETPdKdkvO+iO+TH1pwVt3Rtq+3UE93clBNdU1bnm5FGCQAWT/r0qSHfA0kbY
oEm5DP6dEG5vbe9KAIq8DOqN7Iv7umbQUdF4dhxyrEL1LgSyX0s7btOlVWkmQ6AR
9f4NLpo1ZnTBdQAVqRHz5rOceVowG0za82j8WDF4MNTgH1DsfV5KwfqQKzvuwTFN
ns4yenKvWgIVS4sfj31tkIf07NmeKRgncfDuMvXbZWVwiyznqAomiwk5z16xvKT6
jOGxE8oJPHDj84svz/5n6h8433AhwBqMKAhCJH+GQlqTRxdXP2ikUAXc1qB+rl+5
UihIR+nrJEf0BhHQ2TkDPnwz6zzOchy80KrjFo3mObEpMecoWnNXoGAKhkalzbtE
Z6z8JP98Y655ofNmeB9A2AEsgmT7z7IbvU1Z3vXLujAuPy01vHnWb/APv/19nSWJ
Br5953QV96Zhz5WjKii9zVC4ikAKiNKy6U1W5rkQIKRrPuJJq8uI5devFponiq1A
QR0DQHU4jg6BDYtHXHcdUKo8gauIrjAwwtzFgwKxfHmf
-----END CERTIFICATE-----
