Certificate:
    Data:
        Version: 3 (0x2)
        Serial Number: 11158 (0x2b96)
    Signature Algorithm: sha256WithRSAEncryption
        Issuer: C=US, ST=OH, L=Columbus, O=VikingVPN, OU=MyOrganizationalUnit, CN=VikingVPN CA/name=EasyRSA/emailAddress=me@myhost.mydomain
        Validity
            Not Before: Jun 22 05:56:20 2017 GMT
            Not After : Jun 20 05:56:20 2027 GMT
        Subject: CN=Client2963Cert14ee0e
        Subject Public Key Info:
            Public Key Algorithm: rsaEncryption
                Public-Key: (4096 bit)
                Modulus:
                    00:c3:b1:9a:31:58:df:60:b6:19:be:a3:9f:fa:74:
                    e7:40:4a:e3:ab:b9:d2:70:74:5c:a8:6d:70:f8:6f:
                    4f:3a:0b:4d:84:0d:25:25:c5:d1:4d:e5:21:06:62:
                    ae:09:19:1e:24:25:11:d8:62:b2:57:cb:b4:97:65:
                    60:b9:85:54:5e:b9:78:38:92:0b:5e:92:30:a1:41:
                    08:50:7d:c2:38:5e:15:02:b4:38:e3:27:6e:bd:7c:
                    d8:6b:25:22:17:1e:7e:88:8f:f1:3b:05:0b:11:e9:
                    ef:ad:9b:6a:ba:3e:9a:81:6c:33:f4:9f:65:a5:76:
                    33:b5:37:b5:51:09:e0:65:12:6f:ac:2d:7f:4e:3d:
                    06:90:e2:6d:54:c9:c9:85:87:91:37:66:45:59:2f:
                    e8:4c:ad:99:49:88:9b:80:60:88:4e:a2:0d:5e:24:
                    fb:3f:cc:41:e2:9a:f3:77:f4:26:e4:44:41:01:7a:
                    24:09:41:e6:08:23:5b:10:c0:0f:e9:12:52:03:62:
                    d4:9a:b5:dc:40:4e:19:32:55:e9:93:e8:3b:c1:a1:
                    c6:d2:e9:55:1d:2f:a4:c4:0e:31:81:65:e5:05:93:
                    b4:a4:1d:7f:b2:d3:66:24:87:27:29:64:fe:54:87:
                    2f:ff:df:cb:63:8c:9e:b2:43:c1:6e:4e:39:09:05:
                    2b:a6:16:d2:92:5c:3d:15:92:97:54:9b:ea:f8:7b:
                    12:5b:d9:c9:fd:06:c5:f3:08:1e:bd:6d:73:64:e2:
                    fb:84:52:48:05:02:fd:a1:e1:73:22:ad:9e:88:f1:
                    06:ea:05:77:a4:c4:5c:56:b7:8e:2b:20:c8:d4:46:
                    d4:ba:98:dd:35:d5:15:ea:7c:f8:98:e5:7a:33:aa:
                    f3:85:d0:6a:0b:90:02:c4:fd:26:cd:4b:e7:eb:67:
                    16:29:27:fd:30:49:36:92:73:29:84:34:88:bb:e1:
                    d5:26:47:da:16:14:2d:a5:87:e1:55:50:ed:9d:08:
                    db:fd:85:fc:97:23:89:06:2e:42:2e:34:fc:5f:41:
                    1a:6e:4d:f4:68:00:35:18:f1:49:f2:ba:0a:d8:87:
                    66:4c:5b:6e:05:ea:2e:1e:f3:73:85:dc:09:d7:c4:
                    9c:94:59:47:2a:d5:36:be:0b:cb:7c:82:92:51:39:
                    c5:09:7a:0e:7d:86:a6:6d:c0:a6:b8:7e:dd:39:80:
                    81:c2:69:be:4d:28:17:c2:74:a8:ee:35:fc:8b:86:
                    22:1f:ea:2c:98:8c:9d:0a:32:42:ed:0f:b3:65:9d:
                    b1:06:41:48:f3:be:6e:4b:a8:2a:96:95:37:79:8a:
                    72:97:63:2b:26:32:30:9a:f6:64:df:57:ae:89:68:
                    27:b1:0d
                Exponent: 65537 (0x10001)
        X509v3 extensions:
            X509v3 Basic Constraints: 
                CA:FALSE
            Netscape Comment: 
                Easy-RSA Generated Certificate
            X509v3 Subject Key Identifier: 
                62:4F:73:7A:D9:E6:60:C9:EF:F9:BA:B8:74:8B:1D:3E:7B:59:5D:ED
            X509v3 Authority Key Identifier: 
                keyid:12:CD:60:04:D2:A0:80:9E:70:ED:C6:99:B8:7B:2C:C6:52:FD:19:A1
                DirName:/C=US/ST=OH/L=Columbus/O=VikingVPN/OU=MyOrganizationalUnit/CN=VikingVPN CA/name=EasyRSA/emailAddress=me@myhost.mydomain
                serial:CF:35:85:EE:80:BF:2A:3E

            X509v3 Extended Key Usage: 
                TLS Web Client Authentication
            X509v3 Key Usage: 
                Digital Signature
    Signature Algorithm: sha256WithRSAEncryption
         41:21:eb:c4:c3:b7:6a:82:45:57:fd:1f:f1:8a:85:8b:e4:4d:
         a3:1d:50:df:77:db:16:ab:e3:59:26:c9:1d:c8:22:d6:da:4a:
         cb:89:b3:1a:48:89:55:14:ae:fb:48:45:c6:08:5b:33:16:2d:
         f6:7a:ae:cf:56:64:87:55:ea:da:3e:b0:50:61:35:20:0d:9a:
         77:1d:96:ee:76:b4:a7:5e:37:36:61:8d:43:84:c4:3d:65:2b:
         50:53:ae:70:3d:df:72:e5:65:36:44:fd:34:11:7b:a7:c7:57:
         5e:14:57:df:61:fc:dc:8b:ff:e1:9f:69:43:9a:9e:bd:70:88:
         e6:cc:f8:fe:25:9a:d7:04:b0:62:90:74:97:0d:c0:ce:dd:86:
         b7:cb:54:4a:77:96:9e:d0:b9:11:34:26:54:78:55:b7:b5:3c:
         60:33:ef:f7:cb:4d:d8:af:32:f7:02:f7:ee:fd:9f:e5:a1:98:
         fc:50:28:0d:a2:6a:a9:d9:ab:4a:66:62:94:68:37:7a:27:4e:
         41:21:e3:b4:2d:1f:97:a3:c4:fb:1e:f4:e0:62:fa:b7:d0:12:
         e6:03:bd:ec:c2:1a:65:ad:65:eb:31:3b:cc:ee:4e:db:0f:a4:
         27:01:17:24:4a:ef:30:04:5d:c6:28:b9:cf:7d:ce:c2:e9:74:
         a8:aa:1c:73:bd:d2:6d:c8:48:60:2b:ec:a5:f2:00:b5:6d:57:
         cf:ef:9e:5e:f5:5a:98:ac:4c:c0:d3:69:f0:f8:22:fd:78:6f:
         45:a9:61:0d:d1:f5:0e:87:ce:1b:81:66:7c:c4:b3:2f:49:01:
         50:a6:b0:bd:d4:66:60:08:12:a1:df:35:1f:1b:4c:a0:8a:23:
         97:f9:18:f0:de:4f:f2:39:e6:d7:7c:5a:e2:a6:c7:41:97:68:
         1f:c1:87:b0:4f:98:f8:47:3b:b8:0d:71:97:85:c3:34:98:a3:
         59:3b:fc:1e:40:37:ab:7f:d2:5b:3a:ea:9a:ee:b8:af:73:65:
         63:5c:54:97:61:34:a6:7d:4c:7a:a4:b1:74:b1:8f:59:8a:a8:
         0a:a8:89:58:bb:4b:7a:59:a3:fa:8e:67:d3:ce:f7:1a:f7:83:
         4f:0a:ce:04:1b:0b:d4:b2:92:bc:ef:3e:a3:6d:8b:7d:08:50:
         42:f2:85:3b:98:6f:ff:10:de:05:97:66:82:8e:11:f2:10:82:
         1f:f2:22:8d:27:69:5f:7e:0e:b1:d3:0d:c8:d1:11:e2:9b:fd:
         71:24:74:ae:5a:ef:1a:84:2e:b6:e5:67:4c:77:17:f7:3d:a3:
         df:5b:6b:4d:3e:7d:d8:6b:b1:b2:e2:77:40:66:90:26:eb:74:
         9d:5d:a0:fb:60:c1:72:fa
-----BEGIN CERTIFICATE-----
MIIGrTCCBJWgAwIBAgICK5YwDQYJKoZIhvcNAQELBQAwgawxCzAJBgNVBAYTAlVT
MQswCQYDVQQIEwJPSDERMA8GA1UEBxMIQ29sdW1idXMxEjAQBgNVBAoTCVZpa2lu
Z1ZQTjEdMBsGA1UECxMUTXlPcmdhbml6YXRpb25hbFVuaXQxFTATBgNVBAMTDFZp
a2luZ1ZQTiBDQTEQMA4GA1UEKRMHRWFzeVJTQTEhMB8GCSqGSIb3DQEJARYSbWVA
bXlob3N0Lm15ZG9tYWluMB4XDTE3MDYyMjA1NTYyMFoXDTI3MDYyMDA1NTYyMFow
HzEdMBsGA1UEAxMUQ2xpZW50Mjk2M0NlcnQxNGVlMGUwggIiMA0GCSqGSIb3DQEB
AQUAA4ICDwAwggIKAoICAQDDsZoxWN9gthm+o5/6dOdASuOrudJwdFyobXD4b086
C02EDSUlxdFN5SEGYq4JGR4kJRHYYrJXy7SXZWC5hVReuXg4kgtekjChQQhQfcI4
XhUCtDjjJ269fNhrJSIXHn6Ij/E7BQsR6e+tm2q6PpqBbDP0n2WldjO1N7VRCeBl
Em+sLX9OPQaQ4m1UycmFh5E3ZkVZL+hMrZlJiJuAYIhOog1eJPs/zEHimvN39Cbk
REEBeiQJQeYII1sQwA/pElIDYtSatdxAThkyVemT6DvBocbS6VUdL6TEDjGBZeUF
k7SkHX+y02YkhycpZP5Uhy//38tjjJ6yQ8FuTjkJBSumFtKSXD0VkpdUm+r4exJb
2cn9BsXzCB69bXNk4vuEUkgFAv2h4XMirZ6I8QbqBXekxFxWt44rIMjURtS6mN01
1RXqfPiY5XozqvOF0GoLkALE/SbNS+frZxYpJ/0wSTaScymENIi74dUmR9oWFC2l
h+FVUO2dCNv9hfyXI4kGLkIuNPxfQRpuTfRoADUY8UnyugrYh2ZMW24F6i4e83OF
3AnXxJyUWUcq1Ta+C8t8gpJROcUJeg59hqZtwKa4ft05gIHCab5NKBfCdKjuNfyL
hiIf6iyYjJ0KMkLtD7NlnbEGQUjzvm5LqCqWlTd5inKXYysmMjCa9mTfV66JaCex
DQIDAQABo4IBYzCCAV8wCQYDVR0TBAIwADAtBglghkgBhvhCAQ0EIBYeRWFzeS1S
U0EgR2VuZXJhdGVkIENlcnRpZmljYXRlMB0GA1UdDgQWBBRiT3N62eZgye/5urh0
ix0+e1ld7TCB4QYDVR0jBIHZMIHWgBQSzWAE0qCAnnDtxpm4eyzGUv0ZoaGBsqSB
rzCBrDELMAkGA1UEBhMCVVMxCzAJBgNVBAgTAk9IMREwDwYDVQQHEwhDb2x1bWJ1
czESMBAGA1UEChMJVmlraW5nVlBOMR0wGwYDVQQLExRNeU9yZ2FuaXphdGlvbmFs
VW5pdDEVMBMGA1UEAxMMVmlraW5nVlBOIENBMRAwDgYDVQQpEwdFYXN5UlNBMSEw
HwYJKoZIhvcNAQkBFhJtZUBteWhvc3QubXlkb21haW6CCQDPNYXugL8qPjATBgNV
HSUEDDAKBggrBgEFBQcDAjALBgNVHQ8EBAMCB4AwDQYJKoZIhvcNAQELBQADggIB
AEEh68TDt2qCRVf9H/GKhYvkTaMdUN932xar41kmyR3IItbaSsuJsxpIiVUUrvtI
RcYIWzMWLfZ6rs9WZIdV6to+sFBhNSANmncdlu52tKdeNzZhjUOExD1lK1BTrnA9
33LlZTZE/TQRe6fHV14UV99h/NyL/+GfaUOanr1wiObM+P4lmtcEsGKQdJcNwM7d
hrfLVEp3lp7QuRE0JlR4Vbe1PGAz7/fLTdivMvcC9+79n+WhmPxQKA2iaqnZq0pm
YpRoN3onTkEh47QtH5ejxPse9OBi+rfQEuYDvezCGmWtZesxO8zuTtsPpCcBFyRK
7zAEXcYouc99zsLpdKiqHHO90m3ISGAr7KXyALVtV8/vnl71WpisTMDTafD4Iv14
b0WpYQ3R9Q6HzhuBZnzEsy9JAVCmsL3UZmAIEqHfNR8bTKCKI5f5GPDeT/I55td8
WuKmx0GXaB/Bh7BPmPhHO7gNcZeFwzSYo1k7/B5AN6t/0ls66pruuK9zZWNcVJdh
NKZ9THqksXSxj1mKqAqoiVi7S3pZo/qOZ9PO9xr3g08KzgQbC9SykrzvPqNti30I
UELyhTuYb/8Q3gWXZoKOEfIQgh/yIo0naV9+DrHTDcjREeKb/XEkdK5a7xqELrbl
Z0x3F/c9o99ba00+fdhrsbLid0BmkCbrdJ1doPtgwXL6
-----END CERTIFICATE-----
