Certificate:
    Data:
        Version: 3 (0x2)
        Serial Number: 11180 (0x2bac)
    Signature Algorithm: sha256WithRSAEncryption
        Issuer: C=US, ST=OH, L=Columbus, O=VikingVPN, OU=MyOrganizationalUnit, CN=VikingVPN CA/name=EasyRSA/emailAddress=me@myhost.mydomain
        Validity
            Not Before: Jun 24 23:18:02 2017 GMT
            Not After : Jun 22 23:18:02 2027 GMT
        Subject: CN=Client2970Certe11589
        Subject Public Key Info:
            Public Key Algorithm: rsaEncryption
                Public-Key: (4096 bit)
                Modulus:
                    00:af:68:39:41:1c:38:3e:0f:94:d3:83:61:ba:8d:
                    ad:04:a7:d7:9b:e8:3e:db:bf:eb:86:e6:58:fb:40:
                    d2:7c:09:32:5f:5f:ef:51:74:a8:f3:85:3e:db:8d:
                    85:25:af:59:27:c3:a5:50:6d:07:01:a3:88:1c:ed:
                    c6:70:e3:95:3b:d3:a2:e6:d6:72:f5:af:c0:e4:c5:
                    55:fd:7b:d1:24:9e:6d:dd:53:f9:81:ca:ce:eb:87:
                    8c:c9:6d:da:83:72:81:c2:ff:21:ca:f0:36:df:27:
                    fe:11:7b:aa:db:a3:45:37:eb:80:d9:e2:e3:26:7b:
                    ff:cc:f4:21:ea:50:ae:b3:02:0b:a2:cd:bb:0c:b2:
                    cd:c2:55:3f:da:fe:15:25:98:f4:d3:64:b6:fc:13:
                    1c:b7:91:57:f8:83:0b:03:8c:78:46:57:b5:5e:e1:
                    12:cc:ea:bf:1f:27:66:fa:47:d6:83:0b:de:de:a2:
                    6d:f2:54:9d:91:f6:8c:fc:d7:79:b4:5d:d6:c6:6c:
                    ad:a4:f6:04:21:c0:16:26:71:97:c0:1c:f6:df:ba:
                    14:08:75:87:da:6b:44:72:dc:f9:60:f8:0a:cf:d0:
                    62:63:ba:32:3f:fc:3c:94:24:4c:5f:0b:33:33:c2:
                    fc:4b:0d:de:76:8a:df:04:35:d0:ed:b8:f7:8a:86:
                    be:23:e6:e6:37:9e:20:0f:41:5f:3d:c5:00:b3:9d:
                    6e:b9:9a:30:76:0f:c6:a6:20:fd:fc:7e:f6:20:49:
                    f6:5c:45:a7:89:16:d7:2a:b8:6a:25:3e:ab:36:bb:
                    54:09:e8:1c:bd:21:b1:e1:aa:29:79:a3:a3:9a:3d:
                    4b:5f:c1:a8:47:30:c9:bb:9d:48:d3:5c:d4:68:d7:
                    cd:29:90:ef:82:9c:e6:8d:d0:af:30:45:4c:7f:fa:
                    f7:e8:77:09:c1:57:54:32:f7:de:f9:5c:52:d7:8a:
                    30:14:4c:28:e9:6b:b6:63:bf:d3:9e:e5:55:e7:ee:
                    05:a3:26:a7:63:0a:3b:bc:6b:df:90:a1:29:60:a2:
                    05:68:4e:67:4f:4e:32:c2:bb:d2:db:cd:33:f5:cc:
                    12:32:6b:86:35:b6:3e:d7:a3:f5:78:68:f4:b1:01:
                    b9:a0:3b:16:b4:79:21:59:e5:e9:82:1b:f5:7c:6e:
                    9d:e3:ae:4a:ec:af:0d:32:a3:39:0b:75:c2:f8:75:
                    27:6e:80:ee:f2:09:43:59:06:a7:27:8e:4e:4d:2e:
                    10:36:2a:3d:7d:e6:16:f8:7e:6a:de:f8:81:04:a6:
                    70:14:28:3f:3d:24:00:b1:15:8b:f1:25:03:1e:dd:
                    5e:52:fa:a1:1d:02:7f:40:f1:c7:69:33:85:76:a7:
                    ca:f4:29
                Exponent: 65537 (0x10001)
        X509v3 extensions:
            X509v3 Basic Constraints: 
                CA:FALSE
            Netscape Comment: 
                Easy-RSA Generated Certificate
            X509v3 Subject Key Identifier: 
                BC:8D:48:8E:0E:B5:77:E2:F4:41:A7:A1:4D:0D:0A:20:AC:90:9E:15
            X509v3 Authority Key Identifier: 
                keyid:12:CD:60:04:D2:A0:80:9E:70:ED:C6:99:B8:7B:2C:C6:52:FD:19:A1
                DirName:/C=US/ST=OH/L=Columbus/O=VikingVPN/OU=MyOrganizationalUnit/CN=VikingVPN CA/name=EasyRSA/emailAddress=me@myhost.mydomain
                serial:CF:35:85:EE:80:BF:2A:3E

            X509v3 Extended Key Usage: 
                TLS Web Client Authentication
            X509v3 Key Usage: 
                Digital Signature
    Signature Algorithm: sha256WithRSAEncryption
         a6:1f:2e:3d:79:59:9c:d0:ad:82:5b:05:6b:19:3f:f0:10:2d:
         03:54:ff:91:72:f0:19:68:b9:8e:c1:11:92:f0:85:4b:33:1e:
         22:8c:0a:3d:66:a8:22:83:10:49:13:a2:62:b2:04:2f:66:8c:
         33:28:3c:2c:62:1b:40:fb:65:68:0a:63:24:9f:5b:61:77:76:
         7a:04:4f:7b:be:9d:22:0b:8e:12:76:5b:5d:77:07:4b:fd:b5:
         66:9a:15:c6:63:c9:2c:66:68:93:8d:31:db:a3:42:04:41:b3:
         8d:1f:19:55:f9:b1:6e:a9:eb:29:01:ed:58:71:d7:2f:11:ed:
         23:9a:89:b5:38:32:ab:ca:3c:27:cd:96:ca:65:ed:bb:b6:25:
         05:ec:9d:3d:08:dc:60:76:5e:9c:ee:67:27:92:55:c9:6c:01:
         5a:d0:7b:02:44:60:13:9c:31:16:d3:7c:bc:b1:0f:30:e0:75:
         5d:ea:0e:9e:ca:8b:a2:34:ca:cb:27:41:ec:f2:87:d8:f4:bf:
         b4:1c:6f:14:e9:e0:a6:31:bb:c6:d6:b0:63:5d:70:88:58:f4:
         02:3f:a5:34:be:03:fc:2b:e1:47:db:f2:91:1d:7b:a1:9e:c2:
         c3:f1:b9:a2:57:60:88:a2:39:3e:c8:28:96:47:75:d8:ad:89:
         f0:4d:be:2d:aa:ed:c6:f1:62:04:cb:1b:31:7c:bc:2b:75:bc:
         ab:18:5d:bf:1c:ad:bb:d9:53:56:d0:ab:17:f4:91:ab:1a:cb:
         1e:83:96:bb:48:f9:db:c8:80:83:8d:40:e9:a0:2a:0f:53:43:
         d4:f6:6c:d1:7f:f1:4b:11:0a:b2:15:3d:bf:e0:6a:53:29:bb:
         99:19:13:75:d3:7b:67:a5:76:45:9d:63:25:70:01:81:78:43:
         f3:ff:cf:d5:5b:b4:b4:6c:5e:47:ea:0d:79:c5:e9:5e:1f:3e:
         00:de:56:59:53:7e:a0:7d:56:2f:37:6d:95:b7:7e:ff:56:f5:
         a6:47:fd:33:76:fe:19:dd:50:1e:7b:74:59:bd:6d:ba:9a:23:
         37:52:91:cc:65:0a:3d:32:2d:05:71:02:59:dd:0d:68:cd:4d:
         7e:82:cc:9f:ac:65:ab:81:d6:81:c0:78:77:e6:92:a2:b2:a5:
         c3:31:4a:98:d0:95:48:ed:85:6e:51:f1:b4:01:37:42:63:31:
         19:1c:65:cb:88:da:c0:88:9f:fe:13:a0:68:6b:c0:1c:b5:a6:
         c5:85:5b:58:e9:d3:98:ab:4c:46:ce:86:99:13:d0:13:89:e2:
         a9:bf:ad:ae:5c:ce:d9:cd:2c:47:90:1c:00:c7:b0:b9:69:3d:
         35:40:66:62:ce:0c:ba:95
-----BEGIN CERTIFICATE-----
MIIGrTCCBJWgAwIBAgICK6wwDQYJKoZIhvcNAQELBQAwgawxCzAJBgNVBAYTAlVT
MQswCQYDVQQIEwJPSDERMA8GA1UEBxMIQ29sdW1idXMxEjAQBgNVBAoTCVZpa2lu
Z1ZQTjEdMBsGA1UECxMUTXlPcmdhbml6YXRpb25hbFVuaXQxFTATBgNVBAMTDFZp
a2luZ1ZQTiBDQTEQMA4GA1UEKRMHRWFzeVJTQTEhMB8GCSqGSIb3DQEJARYSbWVA
bXlob3N0Lm15ZG9tYWluMB4XDTE3MDYyNDIzMTgwMloXDTI3MDYyMjIzMTgwMlow
HzEdMBsGA1UEAxMUQ2xpZW50Mjk3MENlcnRlMTE1ODkwggIiMA0GCSqGSIb3DQEB
AQUAA4ICDwAwggIKAoICAQCvaDlBHDg+D5TTg2G6ja0Ep9eb6D7bv+uG5lj7QNJ8
CTJfX+9RdKjzhT7bjYUlr1knw6VQbQcBo4gc7cZw45U706Lm1nL1r8DkxVX9e9Ek
nm3dU/mBys7rh4zJbdqDcoHC/yHK8DbfJ/4Re6rbo0U364DZ4uMme//M9CHqUK6z
AguizbsMss3CVT/a/hUlmPTTZLb8Exy3kVf4gwsDjHhGV7Ve4RLM6r8fJ2b6R9aD
C97eom3yVJ2R9oz813m0XdbGbK2k9gQhwBYmcZfAHPbfuhQIdYfaa0Ry3Plg+ArP
0GJjujI//DyUJExfCzMzwvxLDd52it8ENdDtuPeKhr4j5uY3niAPQV89xQCznW65
mjB2D8amIP38fvYgSfZcRaeJFtcquGolPqs2u1QJ6By9IbHhqil5o6OaPUtfwahH
MMm7nUjTXNRo180pkO+CnOaN0K8wRUx/+vfodwnBV1Qy9975XFLXijAUTCjpa7Zj
v9Oe5VXn7gWjJqdjCju8a9+QoSlgogVoTmdPTjLCu9LbzTP1zBIya4Y1tj7Xo/V4
aPSxAbmgOxa0eSFZ5emCG/V8bp3jrkrsrw0yozkLdcL4dSdugO7yCUNZBqcnjk5N
LhA2Kj195hb4fmre+IEEpnAUKD89JACxFYvxJQMe3V5S+qEdAn9A8cdpM4V2p8r0
KQIDAQABo4IBYzCCAV8wCQYDVR0TBAIwADAtBglghkgBhvhCAQ0EIBYeRWFzeS1S
U0EgR2VuZXJhdGVkIENlcnRpZmljYXRlMB0GA1UdDgQWBBS8jUiODrV34vRBp6FN
DQogrJCeFTCB4QYDVR0jBIHZMIHWgBQSzWAE0qCAnnDtxpm4eyzGUv0ZoaGBsqSB
rzCBrDELMAkGA1UEBhMCVVMxCzAJBgNVBAgTAk9IMREwDwYDVQQHEwhDb2x1bWJ1
czESMBAGA1UEChMJVmlraW5nVlBOMR0wGwYDVQQLExRNeU9yZ2FuaXphdGlvbmFs
VW5pdDEVMBMGA1UEAxMMVmlraW5nVlBOIENBMRAwDgYDVQQpEwdFYXN5UlNBMSEw
HwYJKoZIhvcNAQkBFhJtZUBteWhvc3QubXlkb21haW6CCQDPNYXugL8qPjATBgNV
HSUEDDAKBggrBgEFBQcDAjALBgNVHQ8EBAMCB4AwDQYJKoZIhvcNAQELBQADggIB
AKYfLj15WZzQrYJbBWsZP/AQLQNU/5Fy8BlouY7BEZLwhUszHiKMCj1mqCKDEEkT
omKyBC9mjDMoPCxiG0D7ZWgKYySfW2F3dnoET3u+nSILjhJ2W113B0v9tWaaFcZj
ySxmaJONMdujQgRBs40fGVX5sW6p6ykB7Vhx1y8R7SOaibU4MqvKPCfNlspl7bu2
JQXsnT0I3GB2XpzuZyeSVclsAVrQewJEYBOcMRbTfLyxDzDgdV3qDp7Ki6I0yssn
Qezyh9j0v7QcbxTp4KYxu8bWsGNdcIhY9AI/pTS+A/wr4Ufb8pEde6GewsPxuaJX
YIiiOT7IKJZHdditifBNvi2q7cbxYgTLGzF8vCt1vKsYXb8crbvZU1bQqxf0kasa
yx6DlrtI+dvIgIONQOmgKg9TQ9T2bNF/8UsRCrIVPb/galMpu5kZE3XTe2eldkWd
YyVwAYF4Q/P/z9VbtLRsXkfqDXnF6V4fPgDeVllTfqB9Vi83bZW3fv9W9aZH/TN2
/hndUB57dFm9bbqaIzdSkcxlCj0yLQVxAlndDWjNTX6CzJ+sZauB1oHAeHfmkqKy
pcMxSpjQlUjthW5R8bQBN0JjMRkcZcuI2sCIn/4ToGhrwBy1psWFW1jp05irTEbO
hpkT0BOJ4qm/ra5cztnNLEeQHADHsLlpPTVAZmLODLqV
-----END CERTIFICATE-----
