Certificate:
    Data:
        Version: 3 (0x2)
        Serial Number: 11184 (0x2bb0)
    Signature Algorithm: sha256WithRSAEncryption
        Issuer: C=US, ST=OH, L=Columbus, O=VikingVPN, OU=MyOrganizationalUnit, CN=VikingVPN CA/name=EasyRSA/emailAddress=me@myhost.mydomain
        Validity
            Not Before: Jun 25 10:25:57 2017 GMT
            Not After : Jun 23 10:25:57 2027 GMT
        Subject: CN=Client2945Certb6f5af
        Subject Public Key Info:
            Public Key Algorithm: rsaEncryption
                Public-Key: (4096 bit)
                Modulus:
                    00:b3:6f:c0:c4:44:c2:ed:67:d7:23:12:21:bd:0a:
                    dc:32:d6:1d:ee:26:89:7c:d2:18:4d:8c:6f:62:25:
                    8a:75:6c:d9:35:23:e4:38:d5:22:82:16:58:77:c9:
                    b8:47:fd:38:f8:a5:40:a7:ff:80:2f:ec:7d:4a:15:
                    e1:17:7e:a6:c4:c3:03:ce:5a:9d:0f:cb:60:31:71:
                    8e:57:f0:b9:6e:6d:91:fb:6e:78:88:c5:0b:41:e8:
                    91:50:10:ce:7d:3e:23:73:66:7c:76:00:4f:3b:f6:
                    61:a1:4e:cf:00:f7:e2:c8:c0:11:6d:14:47:a3:d1:
                    0e:60:d1:38:b2:76:22:a6:d8:2f:65:40:fa:4b:26:
                    25:ce:a2:45:95:63:17:40:23:f5:0e:80:a8:cd:56:
                    6d:ed:9e:05:9e:4b:c2:6c:63:15:ba:19:18:72:75:
                    27:49:11:31:fd:9d:65:32:77:82:0b:1f:7b:b0:3e:
                    bc:cc:60:57:06:b2:6f:2e:e9:73:ba:3c:e6:25:35:
                    bb:a0:f3:ea:bc:f4:0d:c6:83:54:f3:ac:0c:cb:97:
                    a5:25:de:89:ca:f9:0e:ef:47:d9:34:8b:a3:65:27:
                    a2:09:a3:42:e2:10:ee:c9:b1:e2:81:67:c6:49:e5:
                    fa:ec:f6:5a:3f:a5:2a:7a:c2:f0:63:84:53:2b:b5:
                    14:6a:b1:4b:a3:8d:2a:89:39:4e:90:44:ea:64:ff:
                    94:69:1d:3c:06:0e:e2:7c:56:6c:bf:d8:d3:f9:8e:
                    2b:cf:39:e3:6f:cb:2f:51:d5:ba:eb:2f:bb:db:c6:
                    5a:3b:e2:f1:d2:bc:50:89:da:7e:48:e0:24:cd:11:
                    77:1c:47:3b:72:79:f5:cd:5b:b2:6d:82:71:96:51:
                    f1:80:3c:9d:d1:5f:f2:c7:8d:80:38:cb:19:29:c3:
                    29:2e:68:c5:d5:33:27:c8:d8:a9:b7:d8:19:83:c2:
                    2c:e1:a2:11:24:71:50:5b:3c:a3:63:0c:2c:ec:bd:
                    3b:7b:bd:60:e8:da:18:62:80:ce:24:20:52:ab:f8:
                    09:d9:e5:ad:6a:d3:55:1a:80:d2:74:a5:06:24:86:
                    fc:c2:fa:5f:4e:2f:11:f6:a7:77:70:0b:6c:c1:76:
                    47:ac:56:a0:5d:c4:11:77:7e:02:11:42:34:a6:53:
                    ef:e7:8e:80:67:17:5f:8f:a6:a1:f7:90:cf:6c:f3:
                    76:12:09:e1:98:b2:01:34:f6:15:78:f3:76:dc:2c:
                    5a:1e:84:0a:04:43:b0:3c:38:72:da:7f:85:c3:69:
                    5e:5a:6a:85:eb:f6:7b:de:4d:4c:de:bb:69:91:1a:
                    cd:84:7b:e4:24:8a:27:7e:a3:7a:cc:98:85:ba:67:
                    d9:fe:a9
                Exponent: 65537 (0x10001)
        X509v3 extensions:
            X509v3 Basic Constraints: 
                CA:FALSE
            Netscape Comment: 
                Easy-RSA Generated Certificate
            X509v3 Subject Key Identifier: 
                22:96:6B:54:EC:1D:A9:A8:62:F9:70:A0:1D:06:09:F8:CB:96:8F:43
            X509v3 Authority Key Identifier: 
                keyid:12:CD:60:04:D2:A0:80:9E:70:ED:C6:99:B8:7B:2C:C6:52:FD:19:A1
                DirName:/C=US/ST=OH/L=Columbus/O=VikingVPN/OU=MyOrganizationalUnit/CN=VikingVPN CA/name=EasyRSA/emailAddress=me@myhost.mydomain
                serial:CF:35:85:EE:80:BF:2A:3E

            X509v3 Extended Key Usage: 
                TLS Web Client Authentication
            X509v3 Key Usage: 
                Digital Signature
    Signature Algorithm: sha256WithRSAEncryption
         9f:37:1b:41:73:3d:9e:7d:0d:7f:71:a3:fd:0d:cd:57:a9:02:
         ed:70:70:a8:ba:f0:28:8d:50:8a:80:7e:74:56:14:14:3b:bc:
         dc:b1:d8:4a:f4:50:aa:48:2d:e5:e7:7f:21:6d:b4:de:7b:9e:
         9c:05:8b:9b:f7:78:6b:67:27:74:ce:a6:d7:c3:2d:ba:f7:53:
         0d:e7:c9:ce:04:5e:71:27:b9:b1:6e:73:20:01:4a:a8:c2:3a:
         15:c2:c7:46:8f:ac:ea:fe:61:78:33:73:b4:b0:52:40:27:c0:
         c3:29:6d:8e:3d:af:5e:34:38:b0:ff:d3:63:30:1e:07:c2:1a:
         26:03:d3:e4:00:b4:84:f9:d9:77:dd:78:23:e8:a1:68:80:79:
         1e:97:70:48:d3:3e:cf:1f:d3:4c:ec:68:e7:0c:34:17:9f:c6:
         b1:cf:b8:08:64:b2:fc:6e:7f:df:c9:9a:6c:40:77:3c:46:7e:
         f9:f6:aa:32:45:79:6e:32:94:8a:bd:1a:f1:ac:a3:6b:cd:e1:
         a4:8c:3a:88:1e:f1:1c:32:93:f0:63:bc:48:32:b0:77:73:97:
         8f:fe:a8:26:6b:fa:d3:13:a5:8a:85:a8:c9:7d:f5:1d:d6:18:
         01:a9:2a:01:4c:a0:b4:21:02:cc:02:a7:e5:7a:38:6c:66:ec:
         63:1d:21:09:39:e3:83:12:9c:c7:5d:43:6a:04:a3:02:06:61:
         84:d8:c3:12:bd:50:ed:79:29:60:c3:df:f0:84:d1:7e:86:b1:
         97:0e:91:8b:dc:42:37:89:9d:4e:29:84:1e:dd:d6:9b:88:ac:
         24:e1:cb:e3:3f:33:79:65:4c:f8:e6:4d:64:f5:bf:3a:68:2b:
         89:ef:22:a1:25:bb:89:21:77:df:50:05:30:32:27:fb:e6:da:
         a4:2b:25:f8:5c:e8:68:3c:61:d1:60:55:84:7e:f4:ba:52:9d:
         bd:0c:ad:b1:87:99:fd:d4:2d:59:3d:c1:74:4e:a5:8d:68:04:
         07:9f:fc:fa:0d:81:bf:9d:6d:8c:a5:44:7f:aa:07:f2:91:15:
         87:0a:81:c0:3b:3d:c4:ab:1e:f8:a9:4f:f7:25:5b:f9:c9:af:
         db:ee:52:13:a9:7d:96:ea:b4:63:e8:79:de:93:ec:1f:5a:c0:
         70:2f:56:e1:1e:d1:a5:89:2c:66:f6:95:0b:7b:62:38:6d:cf:
         3d:45:7e:3b:d8:b4:6c:0b:d0:88:c8:aa:44:89:5f:3e:00:50:
         b8:a8:43:91:a7:77:42:45:47:41:6c:42:59:fa:77:13:3d:f9:
         69:4b:26:d2:19:c0:7b:ec:33:39:f1:eb:0b:70:89:3b:b3:61:
         a6:9d:a5:19:0d:e8:55:e1
-----BEGIN CERTIFICATE-----
MIIGrTCCBJWgAwIBAgICK7AwDQYJKoZIhvcNAQELBQAwgawxCzAJBgNVBAYTAlVT
MQswCQYDVQQIEwJPSDERMA8GA1UEBxMIQ29sdW1idXMxEjAQBgNVBAoTCVZpa2lu
Z1ZQTjEdMBsGA1UECxMUTXlPcmdhbml6YXRpb25hbFVuaXQxFTATBgNVBAMTDFZp
a2luZ1ZQTiBDQTEQMA4GA1UEKRMHRWFzeVJTQTEhMB8GCSqGSIb3DQEJARYSbWVA
bXlob3N0Lm15ZG9tYWluMB4XDTE3MDYyNTEwMjU1N1oXDTI3MDYyMzEwMjU1N1ow
HzEdMBsGA1UEAxMUQ2xpZW50Mjk0NUNlcnRiNmY1YWYwggIiMA0GCSqGSIb3DQEB
AQUAA4ICDwAwggIKAoICAQCzb8DERMLtZ9cjEiG9Ctwy1h3uJol80hhNjG9iJYp1
bNk1I+Q41SKCFlh3ybhH/Tj4pUCn/4Av7H1KFeEXfqbEwwPOWp0Py2AxcY5X8Llu
bZH7bniIxQtB6JFQEM59PiNzZnx2AE879mGhTs8A9+LIwBFtFEej0Q5g0TiydiKm
2C9lQPpLJiXOokWVYxdAI/UOgKjNVm3tngWeS8JsYxW6GRhydSdJETH9nWUyd4IL
H3uwPrzMYFcGsm8u6XO6POYlNbug8+q89A3Gg1TzrAzLl6Ul3onK+Q7vR9k0i6Nl
J6IJo0LiEO7JseKBZ8ZJ5frs9lo/pSp6wvBjhFMrtRRqsUujjSqJOU6QROpk/5Rp
HTwGDuJ8Vmy/2NP5jivPOeNvyy9R1brrL7vbxlo74vHSvFCJ2n5I4CTNEXccRzty
efXNW7JtgnGWUfGAPJ3RX/LHjYA4yxkpwykuaMXVMyfI2Km32BmDwizhohEkcVBb
PKNjDCzsvTt7vWDo2hhigM4kIFKr+AnZ5a1q01UagNJ0pQYkhvzC+l9OLxH2p3dw
C2zBdkesVqBdxBF3fgIRQjSmU+/njoBnF1+PpqH3kM9s83YSCeGYsgE09hV483bc
LFoehAoEQ7A8OHLaf4XDaV5aaoXr9nveTUzeu2mRGs2Ee+Qkiid+o3rMmIW6Z9n+
qQIDAQABo4IBYzCCAV8wCQYDVR0TBAIwADAtBglghkgBhvhCAQ0EIBYeRWFzeS1S
U0EgR2VuZXJhdGVkIENlcnRpZmljYXRlMB0GA1UdDgQWBBQilmtU7B2pqGL5cKAd
Bgn4y5aPQzCB4QYDVR0jBIHZMIHWgBQSzWAE0qCAnnDtxpm4eyzGUv0ZoaGBsqSB
rzCBrDELMAkGA1UEBhMCVVMxCzAJBgNVBAgTAk9IMREwDwYDVQQHEwhDb2x1bWJ1
czESMBAGA1UEChMJVmlraW5nVlBOMR0wGwYDVQQLExRNeU9yZ2FuaXphdGlvbmFs
VW5pdDEVMBMGA1UEAxMMVmlraW5nVlBOIENBMRAwDgYDVQQpEwdFYXN5UlNBMSEw
HwYJKoZIhvcNAQkBFhJtZUBteWhvc3QubXlkb21haW6CCQDPNYXugL8qPjATBgNV
HSUEDDAKBggrBgEFBQcDAjALBgNVHQ8EBAMCB4AwDQYJKoZIhvcNAQELBQADggIB
AJ83G0FzPZ59DX9xo/0NzVepAu1wcKi68CiNUIqAfnRWFBQ7vNyx2Er0UKpILeXn
fyFttN57npwFi5v3eGtnJ3TOptfDLbr3Uw3nyc4EXnEnubFucyABSqjCOhXCx0aP
rOr+YXgzc7SwUkAnwMMpbY49r140OLD/02MwHgfCGiYD0+QAtIT52XfdeCPooWiA
eR6XcEjTPs8f00zsaOcMNBefxrHPuAhksvxuf9/JmmxAdzxGfvn2qjJFeW4ylIq9
GvGso2vN4aSMOoge8Rwyk/BjvEgysHdzl4/+qCZr+tMTpYqFqMl99R3WGAGpKgFM
oLQhAswCp+V6OGxm7GMdIQk544MSnMddQ2oEowIGYYTYwxK9UO15KWDD3/CE0X6G
sZcOkYvcQjeJnU4phB7d1puIrCThy+M/M3llTPjmTWT1vzpoK4nvIqElu4khd99Q
BTAyJ/vm2qQrJfhc6Gg8YdFgVYR+9LpSnb0MrbGHmf3ULVk9wXROpY1oBAef/PoN
gb+dbYylRH+qB/KRFYcKgcA7PcSrHvipT/clW/nJr9vuUhOpfZbqtGPoed6T7B9a
wHAvVuEe0aWJLGb2lQt7Yjhtzz1FfjvYtGwL0IjIqkSJXz4AULioQ5Gnd0JFR0Fs
Qln6dxM9+WlLJtIZwHvsMznx6wtwiTuzYaadpRkN6FXh
-----END CERTIFICATE-----
