Certificate:
    Data:
        Version: 3 (0x2)
        Serial Number: 11201 (0x2bc1)
    Signature Algorithm: sha256WithRSAEncryption
        Issuer: C=US, ST=OH, L=Columbus, O=VikingVPN, OU=MyOrganizationalUnit, CN=VikingVPN CA/name=EasyRSA/emailAddress=me@myhost.mydomain
        Validity
            Not Before: Jun 29 13:25:37 2017 GMT
            Not After : Jun 27 13:25:37 2027 GMT
        Subject: CN=Client2693Cert00ab9d
        Subject Public Key Info:
            Public Key Algorithm: rsaEncryption
                Public-Key: (4096 bit)
                Modulus:
                    00:ce:e1:c5:a5:42:d6:c3:45:e5:68:a2:10:34:87:
                    81:4a:fa:52:5c:33:e4:04:6d:4f:d4:b4:c3:77:ba:
                    d6:71:a2:29:08:f2:8b:65:b1:94:dd:d4:d3:c6:9a:
                    cd:ad:18:eb:b9:8f:2e:95:1b:7d:f9:90:0e:dc:44:
                    22:70:e7:28:20:a3:39:25:59:f5:a3:70:d2:1c:c5:
                    99:ac:63:a4:17:6a:3b:45:a4:02:e3:78:b0:9d:8d:
                    d0:26:ff:39:6f:34:f1:e6:a9:ee:5e:e6:a1:38:da:
                    96:f0:8b:a8:14:48:45:07:18:d3:6f:b7:5e:94:7d:
                    39:d2:69:10:a3:3d:9d:c9:d3:f2:b3:52:8b:bd:70:
                    66:df:6d:f4:40:2d:08:fc:f3:4a:9b:8c:b5:b6:96:
                    35:5a:1a:e3:77:3d:c2:fb:1c:f5:44:26:46:5d:54:
                    69:a5:68:d6:b5:4d:70:11:22:f7:53:5f:e7:0f:d2:
                    46:88:5c:13:6f:1f:fc:be:59:e7:9c:5c:f1:e3:97:
                    1f:f0:d3:01:4b:73:84:d6:63:ac:64:3f:35:0b:8e:
                    08:35:b4:07:01:84:27:26:76:2a:16:da:c8:3b:9a:
                    9c:fe:8d:6c:5f:0c:5c:da:0a:9c:96:1b:5f:7f:c1:
                    9f:78:b4:bf:a0:21:69:a0:a4:70:1c:a3:70:ef:70:
                    b1:4f:97:f0:11:4b:95:1e:4d:95:9f:7f:54:bb:08:
                    33:04:8d:fc:25:b0:1a:5a:78:be:c7:f4:d7:00:93:
                    5b:46:ab:e9:f7:df:14:a3:72:e5:82:7b:b7:ac:a6:
                    6a:0c:e6:a6:f8:20:f9:6b:f0:43:4a:9e:2d:8c:55:
                    4e:c5:a8:10:36:96:06:59:e6:fc:f0:77:cb:19:8a:
                    95:d0:82:8a:ef:00:8a:0a:f6:40:d5:20:4c:ad:fd:
                    78:bb:09:0f:26:68:8f:9a:2d:89:a0:cc:37:e6:7a:
                    48:b7:47:f4:bd:9f:d3:c7:5f:d1:46:3f:2a:13:4f:
                    3e:4e:92:03:07:fb:30:bf:db:dc:43:e3:08:e8:13:
                    e0:21:a6:b2:f4:47:9c:f2:2d:6a:55:35:45:ab:09:
                    5e:7f:b7:ce:9a:b3:b2:61:9d:29:f5:47:f2:dd:22:
                    52:bf:1b:eb:34:70:e5:d6:a8:e5:f1:91:76:a8:fe:
                    77:0b:51:ec:03:ac:d6:04:80:c6:60:c0:3e:19:5c:
                    9e:d5:6c:13:2a:5c:02:e9:79:e3:8f:dc:58:f6:d2:
                    4b:78:cf:e7:1f:03:e0:2e:50:61:59:31:80:9b:f8:
                    dd:68:4b:93:4b:b5:9f:07:13:5b:eb:1b:8e:ce:a5:
                    99:84:c2:93:db:1d:83:40:9e:7d:6d:aa:6c:55:25:
                    9f:a2:43
                Exponent: 65537 (0x10001)
        X509v3 extensions:
            X509v3 Basic Constraints: 
                CA:FALSE
            Netscape Comment: 
                Easy-RSA Generated Certificate
            X509v3 Subject Key Identifier: 
                83:41:AD:A9:13:6D:97:BF:97:9D:8C:FF:BC:99:C5:E4:54:70:14:F4
            X509v3 Authority Key Identifier: 
                keyid:12:CD:60:04:D2:A0:80:9E:70:ED:C6:99:B8:7B:2C:C6:52:FD:19:A1
                DirName:/C=US/ST=OH/L=Columbus/O=VikingVPN/OU=MyOrganizationalUnit/CN=VikingVPN CA/name=EasyRSA/emailAddress=me@myhost.mydomain
                serial:CF:35:85:EE:80:BF:2A:3E

            X509v3 Extended Key Usage: 
                TLS Web Client Authentication
            X509v3 Key Usage: 
                Digital Signature
    Signature Algorithm: sha256WithRSAEncryption
         22:f5:3c:9a:bc:6a:a8:0f:21:9a:38:52:8d:57:ed:81:ff:50:
         6a:bc:38:75:2c:b7:9c:0b:df:4c:49:a8:b8:33:4f:fd:4f:a5:
         33:0f:57:7d:43:78:c4:60:9e:fc:4f:11:ac:26:b4:18:b1:cf:
         08:ee:50:f4:98:31:1a:d3:b8:66:e8:8e:6c:53:b0:d5:47:d6:
         74:82:0f:7c:63:80:b7:de:2f:f1:88:63:7a:73:ac:db:5e:9b:
         2a:69:27:93:af:ac:be:01:3b:27:22:7b:f4:f1:8a:2c:57:64:
         fd:bf:31:aa:1a:1f:61:20:57:4a:19:af:70:dd:ba:ae:ff:05:
         b9:fd:8f:8e:0a:2c:12:cd:26:37:85:da:0a:06:49:99:3c:67:
         d2:a1:7c:6f:41:88:58:c8:3b:85:28:f8:2c:50:8f:2a:9d:25:
         69:45:a2:8e:3c:d4:ea:10:21:5d:31:14:82:62:de:2b:a8:5c:
         09:2e:e8:ba:e3:83:e4:81:1f:f1:1a:f5:e1:ae:a0:c5:36:ae:
         c9:fc:c0:e7:ab:3f:d2:b2:e2:b1:f2:80:e1:6d:84:40:18:04:
         2d:44:15:9c:be:a1:39:04:eb:6c:3a:34:64:a3:d7:57:80:c4:
         a5:3d:a5:97:36:6c:b9:9a:87:6e:e4:db:32:94:36:74:24:20:
         bb:ab:2c:32:a4:40:b3:91:4d:65:29:c7:bf:9d:84:4a:37:4b:
         62:ab:ce:b1:bb:bd:b2:75:84:ca:b6:fe:d2:8a:18:b5:37:61:
         94:ea:ed:e6:47:ea:b0:d0:2e:65:79:e1:a9:f3:8c:42:de:a3:
         cf:d7:21:d5:af:a6:70:df:82:28:51:78:12:88:49:60:00:bb:
         a3:5a:cb:3b:43:08:d0:dd:ed:4b:25:b7:ad:50:be:59:69:fe:
         22:1c:83:27:2b:0c:88:b7:b3:a3:84:a1:21:8b:ee:da:dc:3a:
         94:15:46:ea:51:36:e3:73:fa:18:e8:5f:6b:ee:9f:0d:af:ee:
         fd:17:99:96:6e:fb:7f:3b:14:3b:07:75:9a:ab:81:4b:f7:3c:
         e0:ac:d7:a0:5c:df:e1:86:68:8a:7b:4c:b7:7c:ee:e4:17:ae:
         d0:39:c5:66:61:9f:7f:93:04:d5:cb:8b:23:fd:32:1e:56:50:
         0c:58:15:8a:d7:4d:c3:1f:91:72:4f:be:2b:11:98:3d:8e:23:
         2c:8d:64:ac:43:52:87:c0:6c:4c:93:ed:2e:8b:74:db:f4:b7:
         9d:64:1b:d5:f4:ed:9a:b2:d3:a6:62:3b:b2:50:51:b7:f5:79:
         6d:c5:cd:9b:4a:ab:b8:09:3c:ff:65:25:4e:ef:20:45:17:bc:
         d0:4c:bc:03:c8:63:1e:d9
-----BEGIN CERTIFICATE-----
MIIGrTCCBJWgAwIBAgICK8EwDQYJKoZIhvcNAQELBQAwgawxCzAJBgNVBAYTAlVT
MQswCQYDVQQIEwJPSDERMA8GA1UEBxMIQ29sdW1idXMxEjAQBgNVBAoTCVZpa2lu
Z1ZQTjEdMBsGA1UECxMUTXlPcmdhbml6YXRpb25hbFVuaXQxFTATBgNVBAMTDFZp
a2luZ1ZQTiBDQTEQMA4GA1UEKRMHRWFzeVJTQTEhMB8GCSqGSIb3DQEJARYSbWVA
bXlob3N0Lm15ZG9tYWluMB4XDTE3MDYyOTEzMjUzN1oXDTI3MDYyNzEzMjUzN1ow
HzEdMBsGA1UEAxMUQ2xpZW50MjY5M0NlcnQwMGFiOWQwggIiMA0GCSqGSIb3DQEB
AQUAA4ICDwAwggIKAoICAQDO4cWlQtbDReVoohA0h4FK+lJcM+QEbU/UtMN3utZx
oikI8otlsZTd1NPGms2tGOu5jy6VG335kA7cRCJw5yggozklWfWjcNIcxZmsY6QX
ajtFpALjeLCdjdAm/zlvNPHmqe5e5qE42pbwi6gUSEUHGNNvt16UfTnSaRCjPZ3J
0/KzUou9cGbfbfRALQj880qbjLW2ljVaGuN3PcL7HPVEJkZdVGmlaNa1TXARIvdT
X+cP0kaIXBNvH/y+WeecXPHjlx/w0wFLc4TWY6xkPzULjgg1tAcBhCcmdioW2sg7
mpz+jWxfDFzaCpyWG19/wZ94tL+gIWmgpHAco3DvcLFPl/ARS5UeTZWff1S7CDME
jfwlsBpaeL7H9NcAk1tGq+n33xSjcuWCe7espmoM5qb4IPlr8ENKni2MVU7FqBA2
lgZZ5vzwd8sZipXQgorvAIoK9kDVIEyt/Xi7CQ8maI+aLYmgzDfmeki3R/S9n9PH
X9FGPyoTTz5OkgMH+zC/29xD4wjoE+AhprL0R5zyLWpVNUWrCV5/t86as7JhnSn1
R/LdIlK/G+s0cOXWqOXxkXao/ncLUewDrNYEgMZgwD4ZXJ7VbBMqXALpeeOP3Fj2
0kt4z+cfA+AuUGFZMYCb+N1oS5NLtZ8HE1vrG47OpZmEwpPbHYNAnn1tqmxVJZ+i
QwIDAQABo4IBYzCCAV8wCQYDVR0TBAIwADAtBglghkgBhvhCAQ0EIBYeRWFzeS1S
U0EgR2VuZXJhdGVkIENlcnRpZmljYXRlMB0GA1UdDgQWBBSDQa2pE22Xv5edjP+8
mcXkVHAU9DCB4QYDVR0jBIHZMIHWgBQSzWAE0qCAnnDtxpm4eyzGUv0ZoaGBsqSB
rzCBrDELMAkGA1UEBhMCVVMxCzAJBgNVBAgTAk9IMREwDwYDVQQHEwhDb2x1bWJ1
czESMBAGA1UEChMJVmlraW5nVlBOMR0wGwYDVQQLExRNeU9yZ2FuaXphdGlvbmFs
VW5pdDEVMBMGA1UEAxMMVmlraW5nVlBOIENBMRAwDgYDVQQpEwdFYXN5UlNBMSEw
HwYJKoZIhvcNAQkBFhJtZUBteWhvc3QubXlkb21haW6CCQDPNYXugL8qPjATBgNV
HSUEDDAKBggrBgEFBQcDAjALBgNVHQ8EBAMCB4AwDQYJKoZIhvcNAQELBQADggIB
ACL1PJq8aqgPIZo4Uo1X7YH/UGq8OHUst5wL30xJqLgzT/1PpTMPV31DeMRgnvxP
EawmtBixzwjuUPSYMRrTuGbojmxTsNVH1nSCD3xjgLfeL/GIY3pzrNtemyppJ5Ov
rL4BOycie/TxiixXZP2/MaoaH2EgV0oZr3Dduq7/Bbn9j44KLBLNJjeF2goGSZk8
Z9KhfG9BiFjIO4Uo+CxQjyqdJWlFoo481OoQIV0xFIJi3iuoXAku6Lrjg+SBH/Ea
9eGuoMU2rsn8wOerP9Ky4rHygOFthEAYBC1EFZy+oTkE62w6NGSj11eAxKU9pZc2
bLmah27k2zKUNnQkILurLDKkQLORTWUpx7+dhEo3S2KrzrG7vbJ1hMq2/tKKGLU3
YZTq7eZH6rDQLmV54anzjELeo8/XIdWvpnDfgihReBKISWAAu6NayztDCNDd7Usl
t61Qvllp/iIcgycrDIi3s6OEoSGL7trcOpQVRupRNuNz+hjoX2vunw2v7v0XmZZu
+387FDsHdZqrgUv3POCs16Bc3+GGaIp7TLd87uQXrtA5xWZhn3+TBNXLiyP9Mh5W
UAxYFYrXTcMfkXJPvisRmD2OIyyNZKxDUofAbEyT7S6LdNv0t51kG9X07Zqy06Zi
O7JQUbf1eW3FzZtKq7gJPP9lJU7vIEUXvNBMvAPIYx7Z
-----END CERTIFICATE-----
