Certificate:
    Data:
        Version: 3 (0x2)
        Serial Number: 11216 (0x2bd0)
    Signature Algorithm: sha256WithRSAEncryption
        Issuer: C=US, ST=OH, L=Columbus, O=VikingVPN, OU=MyOrganizationalUnit, CN=VikingVPN CA/name=EasyRSA/emailAddress=me@myhost.mydomain
        Validity
            Not Before: Jul  2 15:34:44 2017 GMT
            Not After : Jun 30 15:34:44 2027 GMT
        Subject: CN=Client2528Certccb550
        Subject Public Key Info:
            Public Key Algorithm: rsaEncryption
                Public-Key: (4096 bit)
                Modulus:
                    00:cf:7f:47:a0:b0:6f:b4:98:72:e5:cc:87:df:87:
                    3a:91:3e:f0:dc:c5:d9:a2:6b:c4:91:9c:87:51:6f:
                    e2:40:68:f8:79:71:c3:86:6c:65:3a:51:b9:74:c3:
                    4f:7c:6e:7b:6f:f3:d2:df:3d:ab:24:bc:12:06:a0:
                    75:a4:0f:1b:f8:d7:82:d8:41:3e:91:bd:5d:d0:eb:
                    4c:98:9d:46:34:50:41:73:bc:f6:1b:7e:99:e4:0d:
                    3f:ea:7f:3b:bf:16:17:f6:75:ba:46:de:9b:3a:af:
                    61:e5:6d:16:15:cf:3b:0f:2f:e7:35:e0:ca:94:dc:
                    f7:d2:7e:4c:7e:95:49:3e:48:c9:95:f3:63:96:ff:
                    56:f9:76:3f:0b:b4:c5:85:f4:03:53:91:ba:e7:6a:
                    4b:42:b9:96:a2:a6:75:cf:21:9e:a4:09:e9:ad:d3:
                    42:16:ec:87:20:eb:82:db:b8:d9:0f:7b:fd:23:f7:
                    4c:87:73:c6:1d:2b:51:ee:5a:6b:03:aa:d0:60:c7:
                    40:a4:1c:26:b9:cf:9f:e4:aa:e3:17:55:21:f4:00:
                    f1:91:28:c3:4d:0c:ea:8d:9c:a1:9f:52:fd:43:67:
                    58:77:c1:4f:42:14:7d:1d:92:53:05:70:b8:1e:e6:
                    50:d9:e3:af:b0:0f:ae:25:14:f4:bf:19:70:ed:0b:
                    42:1d:fd:88:4e:22:2a:4e:2a:f8:33:34:cc:3e:03:
                    75:f0:7d:83:8c:20:b1:05:15:2a:1f:d0:6b:24:5f:
                    38:16:87:69:a8:3c:cc:dc:26:45:3e:f9:68:e4:7e:
                    d6:7e:46:73:8a:6b:06:71:83:4e:a7:02:f3:14:d5:
                    0e:8e:6e:73:dd:82:43:9b:60:e7:a7:46:5e:6d:0c:
                    81:10:e2:33:ee:e1:d5:6d:be:5c:ae:10:67:0e:82:
                    a1:04:ae:2e:a3:01:e1:78:30:96:cd:2d:ad:d7:9c:
                    51:a4:8d:9b:c0:ee:a8:17:da:51:75:b3:83:a3:1d:
                    55:cf:a5:02:2d:99:cd:45:49:66:f8:8a:44:d8:b9:
                    32:dd:a8:6b:43:4a:01:dd:e5:04:95:0e:a7:dd:cd:
                    32:35:80:08:35:69:7f:ef:98:fc:64:9a:d1:eb:00:
                    2a:92:3d:31:25:27:d1:0c:e1:d0:59:84:d8:e3:02:
                    8b:2d:f1:91:e6:26:bc:3e:17:83:60:bc:a4:d3:98:
                    39:d2:38:ef:32:58:73:2d:03:8a:57:4b:4c:43:e3:
                    44:88:2d:bf:16:e5:75:4e:87:1e:6d:86:f4:a0:07:
                    93:74:10:8a:82:46:23:d5:55:ed:eb:00:78:87:a3:
                    44:0b:c0:c0:c9:9d:ed:0e:87:3a:db:2a:ee:42:69:
                    fb:f8:93
                Exponent: 65537 (0x10001)
        X509v3 extensions:
            X509v3 Basic Constraints: 
                CA:FALSE
            Netscape Comment: 
                Easy-RSA Generated Certificate
            X509v3 Subject Key Identifier: 
                51:F5:69:9C:3E:29:62:C0:94:14:F4:29:C8:CB:6A:39:1B:F2:E4:24
            X509v3 Authority Key Identifier: 
                keyid:12:CD:60:04:D2:A0:80:9E:70:ED:C6:99:B8:7B:2C:C6:52:FD:19:A1
                DirName:/C=US/ST=OH/L=Columbus/O=VikingVPN/OU=MyOrganizationalUnit/CN=VikingVPN CA/name=EasyRSA/emailAddress=me@myhost.mydomain
                serial:CF:35:85:EE:80:BF:2A:3E

            X509v3 Extended Key Usage: 
                TLS Web Client Authentication
            X509v3 Key Usage: 
                Digital Signature
    Signature Algorithm: sha256WithRSAEncryption
         a0:fe:00:c9:47:23:a9:c8:94:ae:16:42:7e:fa:68:d7:66:cb:
         21:1c:47:d0:ab:8b:ec:51:42:92:37:13:b9:71:da:1c:a6:4d:
         96:78:f2:02:21:14:9a:d0:ea:b7:06:c8:26:fe:78:f9:08:9d:
         a1:9d:21:c2:a7:7f:c3:98:fa:fc:ef:51:dd:2a:51:57:ec:8d:
         60:c3:76:89:eb:f4:41:39:23:22:41:31:a4:50:e0:5e:b0:c6:
         28:27:7f:73:b6:d9:8c:fd:e6:f4:bd:25:f9:e8:a2:5b:4b:e6:
         dc:14:7d:ee:cf:24:83:5b:f8:59:cc:88:31:39:e8:40:da:c4:
         dc:49:17:69:71:f3:c3:4d:24:ff:8d:60:1d:6e:71:dd:a8:68:
         98:f5:4a:97:6e:f3:d8:92:df:1a:e6:63:e8:09:c8:58:a1:eb:
         84:c4:9a:9b:90:d4:ba:48:af:eb:bb:77:bf:20:28:af:61:e4:
         c2:67:90:8d:72:d0:2d:4b:d5:cb:91:7b:83:8c:04:63:95:e1:
         cc:b3:d7:2f:1d:bc:eb:ce:aa:36:10:25:4c:5d:22:97:26:cd:
         8a:3a:b3:18:23:b2:b1:59:99:46:89:f6:9a:f4:0d:b8:3d:aa:
         d3:70:d5:1f:a9:9e:6d:61:20:6a:47:54:03:a6:3b:03:d3:61:
         b7:1a:ee:5a:9c:a4:37:a0:f3:6a:9b:76:39:a9:80:d6:09:f7:
         49:32:46:f3:77:9e:6b:64:43:bf:eb:43:f9:0c:d8:f8:05:2b:
         2a:93:cc:fd:85:fa:11:9c:8b:38:9a:e8:6e:38:7c:9c:8d:b6:
         4f:c9:d8:74:ab:78:f1:b5:b1:d1:d1:5d:60:5f:93:d9:7c:6e:
         f3:f0:81:b3:5a:75:91:39:51:d7:e1:fe:ee:62:1d:ef:a9:d9:
         21:9e:0e:85:34:ab:e6:19:31:49:bc:18:73:c6:8c:f7:c1:3d:
         17:bf:3c:51:b0:c8:a6:94:8a:6c:98:53:66:51:19:70:fa:af:
         c4:c5:31:94:73:5d:41:e4:e0:6a:77:d2:97:ea:89:36:97:a7:
         e7:0b:2d:fd:b0:a4:82:80:68:71:df:96:27:32:bc:44:cd:76:
         b9:55:41:6b:3d:80:0f:0f:15:85:ca:aa:f8:2c:55:bd:bf:01:
         67:7a:f7:2e:6d:14:91:91:18:45:6d:d7:e0:7e:ac:6b:e4:e6:
         37:b3:f2:98:48:4d:49:bb:f2:04:29:99:7e:e5:77:e1:db:36:
         c5:66:36:72:06:aa:40:91:e9:e6:2e:c7:72:b6:e3:b0:11:f0:
         35:e0:e3:a9:52:f6:58:f2:ee:fe:6d:17:a6:f1:c2:7b:48:10:
         01:73:e4:ba:b1:78:46:c9
-----BEGIN CERTIFICATE-----
MIIGrTCCBJWgAwIBAgICK9AwDQYJKoZIhvcNAQELBQAwgawxCzAJBgNVBAYTAlVT
MQswCQYDVQQIEwJPSDERMA8GA1UEBxMIQ29sdW1idXMxEjAQBgNVBAoTCVZpa2lu
Z1ZQTjEdMBsGA1UECxMUTXlPcmdhbml6YXRpb25hbFVuaXQxFTATBgNVBAMTDFZp
a2luZ1ZQTiBDQTEQMA4GA1UEKRMHRWFzeVJTQTEhMB8GCSqGSIb3DQEJARYSbWVA
bXlob3N0Lm15ZG9tYWluMB4XDTE3MDcwMjE1MzQ0NFoXDTI3MDYzMDE1MzQ0NFow
HzEdMBsGA1UEAxMUQ2xpZW50MjUyOENlcnRjY2I1NTAwggIiMA0GCSqGSIb3DQEB
AQUAA4ICDwAwggIKAoICAQDPf0egsG+0mHLlzIffhzqRPvDcxdmia8SRnIdRb+JA
aPh5ccOGbGU6Ubl0w098bntv89LfPaskvBIGoHWkDxv414LYQT6RvV3Q60yYnUY0
UEFzvPYbfpnkDT/qfzu/Fhf2dbpG3ps6r2HlbRYVzzsPL+c14MqU3PfSfkx+lUk+
SMmV82OW/1b5dj8LtMWF9ANTkbrnaktCuZaipnXPIZ6kCemt00IW7Icg64LbuNkP
e/0j90yHc8YdK1HuWmsDqtBgx0CkHCa5z5/kquMXVSH0APGRKMNNDOqNnKGfUv1D
Z1h3wU9CFH0dklMFcLge5lDZ46+wD64lFPS/GXDtC0Id/YhOIipOKvgzNMw+A3Xw
fYOMILEFFSof0GskXzgWh2moPMzcJkU++WjkftZ+RnOKawZxg06nAvMU1Q6ObnPd
gkObYOenRl5tDIEQ4jPu4dVtvlyuEGcOgqEEri6jAeF4MJbNLa3XnFGkjZvA7qgX
2lF1s4OjHVXPpQItmc1FSWb4ikTYuTLdqGtDSgHd5QSVDqfdzTI1gAg1aX/vmPxk
mtHrACqSPTElJ9EM4dBZhNjjAost8ZHmJrw+F4NgvKTTmDnSOO8yWHMtA4pXS0xD
40SILb8W5XVOhx5thvSgB5N0EIqCRiPVVe3rAHiHo0QLwMDJne0OhzrbKu5Cafv4
kwIDAQABo4IBYzCCAV8wCQYDVR0TBAIwADAtBglghkgBhvhCAQ0EIBYeRWFzeS1S
U0EgR2VuZXJhdGVkIENlcnRpZmljYXRlMB0GA1UdDgQWBBRR9WmcPiliwJQU9CnI
y2o5G/LkJDCB4QYDVR0jBIHZMIHWgBQSzWAE0qCAnnDtxpm4eyzGUv0ZoaGBsqSB
rzCBrDELMAkGA1UEBhMCVVMxCzAJBgNVBAgTAk9IMREwDwYDVQQHEwhDb2x1bWJ1
czESMBAGA1UEChMJVmlraW5nVlBOMR0wGwYDVQQLExRNeU9yZ2FuaXphdGlvbmFs
VW5pdDEVMBMGA1UEAxMMVmlraW5nVlBOIENBMRAwDgYDVQQpEwdFYXN5UlNBMSEw
HwYJKoZIhvcNAQkBFhJtZUBteWhvc3QubXlkb21haW6CCQDPNYXugL8qPjATBgNV
HSUEDDAKBggrBgEFBQcDAjALBgNVHQ8EBAMCB4AwDQYJKoZIhvcNAQELBQADggIB
AKD+AMlHI6nIlK4WQn76aNdmyyEcR9Cri+xRQpI3E7lx2hymTZZ48gIhFJrQ6rcG
yCb+ePkInaGdIcKnf8OY+vzvUd0qUVfsjWDDdonr9EE5IyJBMaRQ4F6wxignf3O2
2Yz95vS9JfnooltL5twUfe7PJINb+FnMiDE56EDaxNxJF2lx88NNJP+NYB1ucd2o
aJj1Spdu89iS3xrmY+gJyFih64TEmpuQ1LpIr+u7d78gKK9h5MJnkI1y0C1L1cuR
e4OMBGOV4cyz1y8dvOvOqjYQJUxdIpcmzYo6sxgjsrFZmUaJ9pr0Dbg9qtNw1R+p
nm1hIGpHVAOmOwPTYbca7lqcpDeg82qbdjmpgNYJ90kyRvN3nmtkQ7/rQ/kM2PgF
KyqTzP2F+hGcizia6G44fJyNtk/J2HSrePG1sdHRXWBfk9l8bvPwgbNadZE5Udfh
/u5iHe+p2SGeDoU0q+YZMUm8GHPGjPfBPRe/PFGwyKaUimyYU2ZRGXD6r8TFMZRz
XUHk4Gp30pfqiTaXp+cLLf2wpIKAaHHflicyvETNdrlVQWs9gA8PFYXKqvgsVb2/
AWd69y5tFJGRGEVt1+B+rGvk5jez8phITUm78gQpmX7ld+HbNsVmNnIGqkCR6eYu
x3K247AR8DXg46lS9ljy7v5tF6bxwntIEAFz5LqxeEbJ
-----END CERTIFICATE-----
