Certificate:
    Data:
        Version: 3 (0x2)
        Serial Number: 11220 (0x2bd4)
    Signature Algorithm: sha256WithRSAEncryption
        Issuer: C=US, ST=OH, L=Columbus, O=VikingVPN, OU=MyOrganizationalUnit, CN=VikingVPN CA/name=EasyRSA/emailAddress=me@myhost.mydomain
        Validity
            Not Before: Jul  3 11:13:16 2017 GMT
            Not After : Jul  1 11:13:16 2027 GMT
        Subject: CN=Client2862Certcc45ca
        Subject Public Key Info:
            Public Key Algorithm: rsaEncryption
                Public-Key: (4096 bit)
                Modulus:
                    00:b1:e7:fd:26:59:f4:a5:3c:5e:1b:63:29:7f:b8:
                    2b:26:92:91:16:e0:8a:4c:fb:83:c0:a3:b1:34:8c:
                    db:ed:8a:69:a8:45:fd:ef:51:33:65:4c:1a:c2:72:
                    ed:b9:7f:cc:f7:5f:93:01:a3:c8:bc:62:c6:e3:04:
                    bc:3d:6e:89:69:07:e1:fb:93:f6:32:7a:ff:ac:58:
                    df:b2:a7:ce:1e:c3:5c:1c:90:34:31:57:b6:4f:16:
                    6a:45:3a:2a:fa:82:27:72:d4:0a:95:37:25:09:26:
                    64:c0:7b:77:0b:01:23:5b:c4:fc:80:fa:a0:80:ec:
                    f2:f0:0b:1b:33:d0:90:4b:1c:cc:a3:5e:b9:5b:5f:
                    be:14:a1:bf:b8:65:15:4f:47:93:5a:d9:b6:21:aa:
                    53:ca:67:5d:ae:86:40:13:8f:b7:29:8c:3d:e8:4e:
                    43:ff:e9:df:15:74:25:00:be:79:cf:03:56:d1:88:
                    2d:3b:27:16:ca:94:d9:e6:b2:a4:c4:88:cc:2e:0d:
                    e0:bf:36:40:17:e2:5d:df:27:e8:e7:57:39:98:2a:
                    db:1d:06:95:63:c9:b9:0d:1a:69:65:aa:9e:82:3b:
                    e4:9c:2a:15:a7:0a:c5:72:59:c2:0e:5c:4b:1b:cd:
                    b4:ef:bf:99:f0:f0:ff:2e:8c:a5:f7:25:7c:51:cf:
                    40:e6:06:36:af:76:25:f3:b2:10:e0:4f:ad:33:9b:
                    87:c8:51:53:8a:40:68:8a:bd:d3:06:2f:8f:c6:46:
                    f6:15:de:6e:93:4e:fe:f6:6f:65:53:f2:f6:fa:be:
                    31:62:e7:e9:f0:6b:69:ee:86:f1:b5:48:2c:f2:81:
                    17:3a:12:86:4c:56:b6:50:09:da:c2:29:09:11:92:
                    88:63:e4:3a:1e:74:f2:4b:be:c8:ab:06:31:e3:8e:
                    80:9e:43:a1:cf:df:12:63:12:5a:00:78:46:96:2d:
                    c4:51:a9:d8:ef:f6:03:73:af:ba:22:9e:cb:6a:ca:
                    3b:4e:08:4a:67:b4:b4:3d:95:6b:dd:39:24:99:2a:
                    db:12:51:65:fb:de:fb:c4:df:07:f4:ce:87:85:e8:
                    fb:6f:74:8c:2e:d2:3f:cf:fd:a0:bc:95:d7:14:a0:
                    e7:08:95:de:1a:64:3e:09:6d:a4:87:5c:6c:c6:bf:
                    8e:a2:23:d6:43:c5:88:a3:3b:d7:ee:a1:dc:dc:51:
                    94:7f:f4:d9:8a:3d:17:d1:17:8f:bb:b9:af:ca:8e:
                    34:11:95:19:ec:22:31:1d:26:2f:e5:0d:71:51:2e:
                    0a:66:d1:5e:1c:e3:1f:90:a5:8f:84:e5:20:a8:05:
                    ce:d2:d2:94:1b:d2:46:d5:54:57:cf:0f:6a:f4:74:
                    39:f0:43
                Exponent: 65537 (0x10001)
        X509v3 extensions:
            X509v3 Basic Constraints: 
                CA:FALSE
            Netscape Comment: 
                Easy-RSA Generated Certificate
            X509v3 Subject Key Identifier: 
                C5:88:0E:8E:D2:E9:AC:59:84:EE:33:6A:99:64:87:C5:79:78:70:B3
            X509v3 Authority Key Identifier: 
                keyid:12:CD:60:04:D2:A0:80:9E:70:ED:C6:99:B8:7B:2C:C6:52:FD:19:A1
                DirName:/C=US/ST=OH/L=Columbus/O=VikingVPN/OU=MyOrganizationalUnit/CN=VikingVPN CA/name=EasyRSA/emailAddress=me@myhost.mydomain
                serial:CF:35:85:EE:80:BF:2A:3E

            X509v3 Extended Key Usage: 
                TLS Web Client Authentication
            X509v3 Key Usage: 
                Digital Signature
    Signature Algorithm: sha256WithRSAEncryption
         50:3f:5d:97:cb:4c:95:bb:2c:c5:3f:64:6e:05:c5:85:f8:2c:
         46:a2:20:41:89:51:1b:ef:17:12:3d:16:ae:8b:02:17:13:93:
         21:fb:8e:86:24:17:32:99:53:39:62:fc:30:fb:12:1e:a8:e9:
         8d:fd:27:58:2d:af:b0:10:0d:2c:1d:49:94:f5:cb:83:6f:65:
         11:40:46:9d:84:d8:ba:af:4b:a8:69:91:08:7f:b8:7c:b9:2f:
         73:c9:dc:30:37:7a:3b:39:a0:68:4b:de:5e:0b:67:fe:55:02:
         26:2b:5a:05:47:00:81:7e:bd:64:59:d8:e0:f8:95:f6:b1:51:
         6b:db:65:da:e5:e6:4a:4b:32:e7:8a:34:1d:27:1f:e2:26:06:
         c8:76:41:0d:54:6f:eb:1c:98:71:a4:bd:41:1a:f2:94:b6:a5:
         0a:61:17:6d:c8:49:70:31:99:2d:c5:b5:0b:93:03:5b:2e:09:
         10:4f:f0:5e:8b:0b:79:cd:1d:9b:12:49:4c:96:0a:b0:15:87:
         cf:ab:02:01:50:28:82:08:36:1b:84:ee:4b:a8:16:fd:bf:02:
         c4:b9:e0:92:cb:d4:fd:9f:57:ed:9e:19:ed:b7:11:4e:96:1f:
         2e:41:cc:59:52:e8:9a:37:63:86:50:d1:1d:e5:b0:e2:8e:cd:
         b7:81:08:9a:23:2d:da:02:9e:65:c2:a3:30:a3:53:84:2e:02:
         4a:06:f5:bf:f5:df:6d:54:59:72:aa:ff:7c:d6:20:64:ed:e0:
         1f:06:1c:ac:55:d4:a6:d8:d0:12:7c:67:92:fe:cc:d7:07:87:
         3e:ab:be:1c:ad:de:65:f9:bf:b7:cf:2e:71:e7:ce:4e:bd:2d:
         36:e3:58:ab:a3:46:f8:4c:e1:d8:f9:91:10:6e:ea:51:46:a8:
         9e:ae:15:6b:72:8b:25:c9:0a:fa:69:cf:4e:db:c7:4d:7d:14:
         d3:98:b0:8b:ca:36:59:dd:ed:7d:3a:fa:2b:0c:39:50:9a:aa:
         a7:fb:b6:7b:1c:69:9f:25:ee:bc:38:90:14:58:ed:fa:f3:ed:
         9f:8d:8c:14:2f:e0:ca:32:e9:c8:ec:02:6f:af:53:9f:fa:18:
         f9:02:c3:9b:44:2b:a8:b1:8e:8b:1c:f3:93:2f:4c:49:4b:62:
         67:dc:58:2f:31:f4:5f:25:95:fd:f7:70:f0:5b:23:d1:30:3c:
         a2:db:30:ec:9c:dd:0b:3d:5e:26:10:60:a4:b5:a1:04:5d:e9:
         fd:19:06:41:38:42:2a:39:71:b4:4a:53:e7:99:2a:a7:dd:49:
         5e:03:28:ad:14:bf:d6:6a:65:e0:f3:e1:a6:97:be:81:fd:b6:
         31:66:f8:09:90:ac:a8:02
-----BEGIN CERTIFICATE-----
MIIGrTCCBJWgAwIBAgICK9QwDQYJKoZIhvcNAQELBQAwgawxCzAJBgNVBAYTAlVT
MQswCQYDVQQIEwJPSDERMA8GA1UEBxMIQ29sdW1idXMxEjAQBgNVBAoTCVZpa2lu
Z1ZQTjEdMBsGA1UECxMUTXlPcmdhbml6YXRpb25hbFVuaXQxFTATBgNVBAMTDFZp
a2luZ1ZQTiBDQTEQMA4GA1UEKRMHRWFzeVJTQTEhMB8GCSqGSIb3DQEJARYSbWVA
bXlob3N0Lm15ZG9tYWluMB4XDTE3MDcwMzExMTMxNloXDTI3MDcwMTExMTMxNlow
HzEdMBsGA1UEAxMUQ2xpZW50Mjg2MkNlcnRjYzQ1Y2EwggIiMA0GCSqGSIb3DQEB
AQUAA4ICDwAwggIKAoICAQCx5/0mWfSlPF4bYyl/uCsmkpEW4IpM+4PAo7E0jNvt
immoRf3vUTNlTBrCcu25f8z3X5MBo8i8YsbjBLw9bolpB+H7k/Yyev+sWN+yp84e
w1wckDQxV7ZPFmpFOir6gidy1AqVNyUJJmTAe3cLASNbxPyA+qCA7PLwCxsz0JBL
HMyjXrlbX74Uob+4ZRVPR5Na2bYhqlPKZ12uhkATj7cpjD3oTkP/6d8VdCUAvnnP
A1bRiC07JxbKlNnmsqTEiMwuDeC/NkAX4l3fJ+jnVzmYKtsdBpVjybkNGmllqp6C
O+ScKhWnCsVyWcIOXEsbzbTvv5nw8P8ujKX3JXxRz0DmBjavdiXzshDgT60zm4fI
UVOKQGiKvdMGL4/GRvYV3m6TTv72b2VT8vb6vjFi5+nwa2nuhvG1SCzygRc6EoZM
VrZQCdrCKQkRkohj5DoedPJLvsirBjHjjoCeQ6HP3xJjEloAeEaWLcRRqdjv9gNz
r7oinstqyjtOCEpntLQ9lWvdOSSZKtsSUWX73vvE3wf0zoeF6PtvdIwu0j/P/aC8
ldcUoOcIld4aZD4JbaSHXGzGv46iI9ZDxYijO9fuodzcUZR/9NmKPRfRF4+7ua/K
jjQRlRnsIjEdJi/lDXFRLgpm0V4c4x+QpY+E5SCoBc7S0pQb0kbVVFfPD2r0dDnw
QwIDAQABo4IBYzCCAV8wCQYDVR0TBAIwADAtBglghkgBhvhCAQ0EIBYeRWFzeS1S
U0EgR2VuZXJhdGVkIENlcnRpZmljYXRlMB0GA1UdDgQWBBTFiA6O0umsWYTuM2qZ
ZIfFeXhwszCB4QYDVR0jBIHZMIHWgBQSzWAE0qCAnnDtxpm4eyzGUv0ZoaGBsqSB
rzCBrDELMAkGA1UEBhMCVVMxCzAJBgNVBAgTAk9IMREwDwYDVQQHEwhDb2x1bWJ1
czESMBAGA1UEChMJVmlraW5nVlBOMR0wGwYDVQQLExRNeU9yZ2FuaXphdGlvbmFs
VW5pdDEVMBMGA1UEAxMMVmlraW5nVlBOIENBMRAwDgYDVQQpEwdFYXN5UlNBMSEw
HwYJKoZIhvcNAQkBFhJtZUBteWhvc3QubXlkb21haW6CCQDPNYXugL8qPjATBgNV
HSUEDDAKBggrBgEFBQcDAjALBgNVHQ8EBAMCB4AwDQYJKoZIhvcNAQELBQADggIB
AFA/XZfLTJW7LMU/ZG4FxYX4LEaiIEGJURvvFxI9Fq6LAhcTkyH7joYkFzKZUzli
/DD7Eh6o6Y39J1gtr7AQDSwdSZT1y4NvZRFARp2E2LqvS6hpkQh/uHy5L3PJ3DA3
ejs5oGhL3l4LZ/5VAiYrWgVHAIF+vWRZ2OD4lfaxUWvbZdrl5kpLMueKNB0nH+Im
Bsh2QQ1Ub+scmHGkvUEa8pS2pQphF23ISXAxmS3FtQuTA1suCRBP8F6LC3nNHZsS
SUyWCrAVh8+rAgFQKIIINhuE7kuoFv2/AsS54JLL1P2fV+2eGe23EU6WHy5BzFlS
6Jo3Y4ZQ0R3lsOKOzbeBCJojLdoCnmXCozCjU4QuAkoG9b/1321UWXKq/3zWIGTt
4B8GHKxV1KbY0BJ8Z5L+zNcHhz6rvhyt3mX5v7fPLnHnzk69LTbjWKujRvhM4dj5
kRBu6lFGqJ6uFWtyiyXJCvppz07bx019FNOYsIvKNlnd7X06+isMOVCaqqf7tnsc
aZ8l7rw4kBRY7frz7Z+NjBQv4Moy6cjsAm+vU5/6GPkCw5tEK6ixjosc85MvTElL
YmfcWC8x9F8llf33cPBbI9EwPKLbMOyc3Qs9XiYQYKS1oQRd6f0ZBkE4Qio5cbRK
U+eZKqfdSV4DKK0Uv9ZqZeDz4aaXvoH9tjFm+AmQrKgC
-----END CERTIFICATE-----
