Certificate:
    Data:
        Version: 3 (0x2)
        Serial Number: 11235 (0x2be3)
    Signature Algorithm: sha256WithRSAEncryption
        Issuer: C=US, ST=OH, L=Columbus, O=VikingVPN, OU=MyOrganizationalUnit, CN=VikingVPN CA/name=EasyRSA/emailAddress=me@myhost.mydomain
        Validity
            Not Before: Jul  5 23:46:53 2017 GMT
            Not After : Jul  3 23:46:53 2027 GMT
        Subject: CN=Client2925Cert7fd8d5
        Subject Public Key Info:
            Public Key Algorithm: rsaEncryption
                Public-Key: (4096 bit)
                Modulus:
                    00:a8:4a:03:70:d5:cb:bf:f3:8c:24:ec:0f:50:92:
                    19:98:de:01:b6:2f:6a:20:37:04:80:41:a3:5c:61:
                    13:96:80:aa:68:f1:16:58:89:fe:05:24:ea:3f:5d:
                    26:cd:d0:0a:ac:d8:63:fb:05:92:85:a7:61:d0:21:
                    73:ee:b1:e8:ef:1c:2f:37:a1:1a:56:af:e6:b7:d9:
                    78:50:95:bc:09:26:d1:1e:97:3c:df:1a:8f:a3:48:
                    33:ec:0f:90:8f:4a:32:8c:79:af:ed:22:1c:26:22:
                    e1:77:b4:81:e0:5e:00:09:b5:1e:55:43:15:88:7b:
                    82:7b:75:66:83:e1:49:11:fc:43:fb:24:4a:10:31:
                    83:b0:68:6c:90:ef:2e:9a:2e:a2:f9:a9:b3:01:d4:
                    40:1f:4d:e9:cb:6c:b1:1e:d2:27:aa:e2:a6:f0:fa:
                    e4:e9:4e:ef:36:d5:95:b2:25:2c:c4:54:8a:84:13:
                    23:af:d2:bc:07:3a:12:f8:aa:97:2a:9e:48:8c:60:
                    c4:85:1a:7e:43:cb:5d:82:2a:f6:ed:32:72:e7:22:
                    8d:c1:c1:d7:4a:48:79:91:bc:ce:45:c8:97:86:b8:
                    b2:7f:db:62:bc:6d:60:ef:0d:e8:01:a8:d9:68:b6:
                    91:16:c3:ac:6f:0b:c6:66:fe:bd:3c:33:51:b8:3f:
                    0b:c5:a2:b8:7f:5a:02:be:2c:c6:ca:d7:93:53:9f:
                    e5:46:95:40:4c:93:5a:8c:fa:85:57:10:38:4a:93:
                    03:dd:d4:32:af:1d:1a:76:5d:a5:18:ec:8b:6e:cf:
                    b1:40:25:ff:27:db:35:7b:d5:fb:99:1a:c4:76:2a:
                    f3:fb:84:95:5a:04:d8:b1:39:db:4c:3f:09:ec:be:
                    4f:77:ce:73:71:dd:64:64:bc:45:b0:d5:cb:53:93:
                    4c:60:95:06:29:0e:8f:99:d5:74:e6:c8:dd:95:17:
                    a5:5c:05:59:93:c5:02:85:dd:e0:b7:a9:40:95:19:
                    63:77:3d:df:ea:79:80:34:4a:c7:a2:76:b4:5d:4d:
                    71:75:1f:c6:bf:c3:27:37:a5:44:10:04:92:a4:e6:
                    2b:7e:bc:6a:9b:88:a3:00:b7:ff:7f:f4:f5:a2:d9:
                    91:af:7e:cd:53:51:17:6e:f6:5d:d9:92:d5:8b:c1:
                    55:1d:83:11:ba:8d:38:c4:92:23:10:c3:35:08:d4:
                    18:b9:0b:24:62:48:d4:04:e5:ce:62:cc:aa:eb:9b:
                    11:3c:74:8d:c7:b6:02:84:6b:6d:7d:5a:31:ec:36:
                    bb:79:f3:6a:f3:82:2a:39:14:c2:80:17:2a:51:25:
                    9f:cf:27:0f:21:79:5f:4c:3b:b0:27:10:e0:ba:cc:
                    3e:3b:6f
                Exponent: 65537 (0x10001)
        X509v3 extensions:
            X509v3 Basic Constraints: 
                CA:FALSE
            Netscape Comment: 
                Easy-RSA Generated Certificate
            X509v3 Subject Key Identifier: 
                D3:0B:2D:80:83:69:4B:00:B5:DD:86:F3:31:FE:8D:A0:5C:3A:B6:FC
            X509v3 Authority Key Identifier: 
                keyid:12:CD:60:04:D2:A0:80:9E:70:ED:C6:99:B8:7B:2C:C6:52:FD:19:A1
                DirName:/C=US/ST=OH/L=Columbus/O=VikingVPN/OU=MyOrganizationalUnit/CN=VikingVPN CA/name=EasyRSA/emailAddress=me@myhost.mydomain
                serial:CF:35:85:EE:80:BF:2A:3E

            X509v3 Extended Key Usage: 
                TLS Web Client Authentication
            X509v3 Key Usage: 
                Digital Signature
    Signature Algorithm: sha256WithRSAEncryption
         6f:fa:2d:1c:b3:93:36:40:cf:e5:7d:62:44:91:18:29:2b:87:
         32:c6:0d:61:c8:06:eb:9c:43:13:03:46:91:68:6b:b8:0c:1a:
         d8:54:b4:04:d1:48:54:43:e5:79:70:a6:35:f2:8b:11:55:02:
         21:82:c5:fe:3b:fa:29:2a:f4:cc:b5:ae:c4:35:32:75:f0:44:
         e9:ef:13:de:42:ba:51:86:96:02:2f:54:79:85:41:8a:6a:25:
         75:2c:fd:2a:b6:36:74:0c:34:36:2d:c9:a4:fb:d5:3f:47:7a:
         1b:35:57:85:3f:e9:1c:6e:92:c8:a2:25:45:7e:ec:01:2e:aa:
         6f:2b:e4:01:28:4d:0c:c5:f6:e9:73:c7:cc:12:43:9a:19:ec:
         c4:d9:03:cf:b5:fc:f7:c6:f9:03:a1:69:58:ec:91:b3:92:6b:
         d4:4d:e2:61:78:e5:09:b4:62:2d:0e:84:a6:6f:8a:de:17:80:
         e9:6d:95:ff:30:07:f0:58:75:39:70:34:62:b4:eb:b8:d7:8a:
         67:4a:66:7b:81:2f:d0:86:6c:79:c0:82:a7:eb:8a:27:2b:ba:
         a3:80:22:65:d7:a3:e6:a2:0f:91:b9:1a:1d:0b:26:45:c7:6e:
         a5:4b:7a:38:a5:7d:bb:b7:f3:d9:63:44:e7:02:9d:7f:03:05:
         91:c4:49:9e:ee:05:10:d0:fc:78:03:1d:ad:b7:4d:3f:4b:73:
         99:cb:ab:e6:5f:74:0f:d1:09:29:25:b5:99:54:ed:8c:ba:4e:
         11:6c:43:ec:d9:b0:61:b7:e3:73:c7:aa:19:09:2a:c7:4f:8e:
         b3:8e:b4:06:65:99:2d:04:f8:9a:7e:ba:3b:69:f5:64:b7:ba:
         cb:0d:72:a8:b1:07:5a:ec:a4:c9:19:87:d8:3e:d8:6c:d0:9f:
         84:8d:51:b2:61:1b:f3:34:cf:50:6e:8a:29:e4:a5:54:e5:00:
         fd:f9:c6:58:4b:25:6d:cb:b9:14:07:25:c8:37:61:52:36:2c:
         41:a1:d6:1f:27:f3:e0:99:a5:c7:90:96:18:25:bb:66:a9:81:
         cf:ba:46:5d:b4:02:05:18:d1:60:0c:7a:c2:0a:16:6a:37:42:
         bf:b5:b9:54:a0:60:76:9d:3b:f4:a1:90:ce:ef:f2:0b:09:ed:
         2a:41:2b:30:bc:48:7e:22:56:09:97:68:e7:50:c0:c8:21:f4:
         cf:f3:f1:d8:85:73:f9:c0:98:5c:1a:3a:6c:f3:28:fc:ab:f9:
         d8:76:b5:11:94:0a:86:9c:c5:f4:57:d4:c5:89:57:4c:30:1e:
         4c:5e:68:4c:a7:08:9d:02:c8:ac:3d:77:75:83:6c:0b:29:ab:
         70:3f:26:4d:b1:fb:f2:92
-----BEGIN CERTIFICATE-----
MIIGrTCCBJWgAwIBAgICK+MwDQYJKoZIhvcNAQELBQAwgawxCzAJBgNVBAYTAlVT
MQswCQYDVQQIEwJPSDERMA8GA1UEBxMIQ29sdW1idXMxEjAQBgNVBAoTCVZpa2lu
Z1ZQTjEdMBsGA1UECxMUTXlPcmdhbml6YXRpb25hbFVuaXQxFTATBgNVBAMTDFZp
a2luZ1ZQTiBDQTEQMA4GA1UEKRMHRWFzeVJTQTEhMB8GCSqGSIb3DQEJARYSbWVA
bXlob3N0Lm15ZG9tYWluMB4XDTE3MDcwNTIzNDY1M1oXDTI3MDcwMzIzNDY1M1ow
HzEdMBsGA1UEAxMUQ2xpZW50MjkyNUNlcnQ3ZmQ4ZDUwggIiMA0GCSqGSIb3DQEB
AQUAA4ICDwAwggIKAoICAQCoSgNw1cu/84wk7A9QkhmY3gG2L2ogNwSAQaNcYROW
gKpo8RZYif4FJOo/XSbN0Aqs2GP7BZKFp2HQIXPusejvHC83oRpWr+a32XhQlbwJ
JtEelzzfGo+jSDPsD5CPSjKMea/tIhwmIuF3tIHgXgAJtR5VQxWIe4J7dWaD4UkR
/EP7JEoQMYOwaGyQ7y6aLqL5qbMB1EAfTenLbLEe0ieq4qbw+uTpTu821ZWyJSzE
VIqEEyOv0rwHOhL4qpcqnkiMYMSFGn5Dy12CKvbtMnLnIo3BwddKSHmRvM5FyJeG
uLJ/22K8bWDvDegBqNlotpEWw6xvC8Zm/r08M1G4PwvForh/WgK+LMbK15NTn+VG
lUBMk1qM+oVXEDhKkwPd1DKvHRp2XaUY7Ituz7FAJf8n2zV71fuZGsR2KvP7hJVa
BNixOdtMPwnsvk93znNx3WRkvEWw1ctTk0xglQYpDo+Z1XTmyN2VF6VcBVmTxQKF
3eC3qUCVGWN3Pd/qeYA0SseidrRdTXF1H8a/wyc3pUQQBJKk5it+vGqbiKMAt/9/
9PWi2ZGvfs1TURdu9l3ZktWLwVUdgxG6jTjEkiMQwzUI1Bi5CyRiSNQE5c5izKrr
mxE8dI3HtgKEa219WjHsNrt582rzgio5FMKAFypRJZ/PJw8heV9MO7AnEOC6zD47
bwIDAQABo4IBYzCCAV8wCQYDVR0TBAIwADAtBglghkgBhvhCAQ0EIBYeRWFzeS1S
U0EgR2VuZXJhdGVkIENlcnRpZmljYXRlMB0GA1UdDgQWBBTTCy2Ag2lLALXdhvMx
/o2gXDq2/DCB4QYDVR0jBIHZMIHWgBQSzWAE0qCAnnDtxpm4eyzGUv0ZoaGBsqSB
rzCBrDELMAkGA1UEBhMCVVMxCzAJBgNVBAgTAk9IMREwDwYDVQQHEwhDb2x1bWJ1
czESMBAGA1UEChMJVmlraW5nVlBOMR0wGwYDVQQLExRNeU9yZ2FuaXphdGlvbmFs
VW5pdDEVMBMGA1UEAxMMVmlraW5nVlBOIENBMRAwDgYDVQQpEwdFYXN5UlNBMSEw
HwYJKoZIhvcNAQkBFhJtZUBteWhvc3QubXlkb21haW6CCQDPNYXugL8qPjATBgNV
HSUEDDAKBggrBgEFBQcDAjALBgNVHQ8EBAMCB4AwDQYJKoZIhvcNAQELBQADggIB
AG/6LRyzkzZAz+V9YkSRGCkrhzLGDWHIBuucQxMDRpFoa7gMGthUtATRSFRD5Xlw
pjXyixFVAiGCxf47+ikq9My1rsQ1MnXwROnvE95CulGGlgIvVHmFQYpqJXUs/Sq2
NnQMNDYtyaT71T9Hehs1V4U/6RxuksiiJUV+7AEuqm8r5AEoTQzF9ulzx8wSQ5oZ
7MTZA8+1/PfG+QOhaVjskbOSa9RN4mF45Qm0Yi0OhKZvit4XgOltlf8wB/BYdTlw
NGK067jXimdKZnuBL9CGbHnAgqfriicruqOAImXXo+aiD5G5Gh0LJkXHbqVLejil
fbu389ljROcCnX8DBZHESZ7uBRDQ/HgDHa23TT9Lc5nLq+ZfdA/RCSkltZlU7Yy6
ThFsQ+zZsGG343PHqhkJKsdPjrOOtAZlmS0E+Jp+ujtp9WS3ussNcqixB1rspMkZ
h9g+2GzQn4SNUbJhG/M0z1BuiinkpVTlAP35xlhLJW3LuRQHJcg3YVI2LEGh1h8n
8+CZpceQlhglu2apgc+6Rl20AgUY0WAMesIKFmo3Qr+1uVSgYHadO/ShkM7v8gsJ
7SpBKzC8SH4iVgmXaOdQwMgh9M/z8diFc/nAmFwaOmzzKPyr+dh2tRGUCoacxfRX
1MWJV0wwHkxeaEynCJ0CyKw9d3WDbAspq3A/Jk2x+/KS
-----END CERTIFICATE-----
