Certificate:
    Data:
        Version: 3 (0x2)
        Serial Number: 11268 (0x2c04)
    Signature Algorithm: sha256WithRSAEncryption
        Issuer: C=US, ST=OH, L=Columbus, O=VikingVPN, OU=MyOrganizationalUnit, CN=VikingVPN CA/name=EasyRSA/emailAddress=me@myhost.mydomain
        Validity
            Not Before: Jul  6 22:11:20 2017 GMT
            Not After : Jul  4 22:11:20 2027 GMT
        Subject: CN=Client1552Cert387ad4
        Subject Public Key Info:
            Public Key Algorithm: rsaEncryption
                Public-Key: (4096 bit)
                Modulus:
                    00:de:c5:c4:cf:a5:a5:a1:90:af:38:b1:d2:22:90:
                    77:29:d2:f4:fb:cf:09:74:ce:a0:41:a8:85:de:67:
                    36:c4:82:6f:da:eb:8e:4e:5f:9e:ac:d7:fb:ea:ad:
                    f9:87:fd:06:2a:03:87:ca:31:b1:ea:ad:88:09:30:
                    d3:5f:ac:1c:2c:d6:67:53:a3:67:d6:9d:0a:46:c0:
                    f3:82:f8:3f:59:36:39:d1:29:47:b1:a4:dd:61:86:
                    8c:3b:51:a8:c1:fd:08:19:85:56:d7:d8:6c:ae:76:
                    fd:4f:3a:8b:bf:a1:09:3c:f2:1c:34:8c:ff:93:e8:
                    52:00:04:3e:e6:ed:5d:07:e9:cc:c6:d9:f4:f0:47:
                    df:9c:5f:55:78:c8:a2:4e:47:be:8d:9d:62:27:bd:
                    38:ae:42:28:98:dc:95:43:40:b8:93:57:55:31:36:
                    1c:e2:ae:a2:a5:c3:33:52:15:e7:be:7d:5e:48:3f:
                    20:31:1e:ca:3b:65:05:ae:fc:04:cc:b7:40:19:8c:
                    81:c6:4d:db:7f:f4:4c:07:f8:63:6e:71:aa:3d:f3:
                    b2:a2:12:c6:50:b5:0f:a8:07:25:bf:c1:5f:41:1c:
                    ef:e5:2d:74:7f:35:2d:30:6b:79:77:ed:86:2f:07:
                    16:49:87:bc:09:61:dc:1f:64:54:db:e9:60:da:db:
                    82:8d:ff:29:a5:68:8a:85:49:3d:ee:28:b0:48:82:
                    a7:61:f4:45:59:f0:d5:63:df:84:32:86:d5:a6:a9:
                    fe:1f:2b:8f:6f:40:84:d1:20:ee:2a:ad:96:dc:68:
                    17:c2:b5:a2:20:e2:cc:11:79:56:25:7b:1c:4f:9f:
                    9c:d1:fd:cb:4b:8c:ea:46:79:30:d2:06:ec:2a:5f:
                    7e:d1:d4:de:86:e2:23:8c:b5:29:b2:4c:2b:59:b1:
                    65:0e:51:25:19:fe:8d:72:32:bd:86:70:35:dd:07:
                    03:0d:3e:89:41:ed:91:90:85:11:8e:d7:97:f3:05:
                    2a:21:82:4f:0e:5f:df:76:8f:c3:11:9b:b0:89:2e:
                    34:9f:e0:38:58:65:71:db:ba:e6:4d:fc:ff:9a:83:
                    48:5b:18:b2:3b:fc:f0:97:b2:b9:6e:d2:1e:63:63:
                    9c:54:9c:3c:df:2b:e2:76:bc:c9:c4:a5:b8:08:e1:
                    06:45:1a:e8:99:59:6a:4a:ea:a8:0b:78:9d:94:c8:
                    a0:40:3d:14:cc:3b:2f:a6:e3:59:33:b0:e9:d1:13:
                    af:bf:20:34:04:ca:e3:fa:67:cb:d3:fe:c4:87:fb:
                    15:80:2b:e1:f9:08:e5:55:5c:d6:1a:4b:24:5a:a3:
                    b4:f1:33:1e:1f:5d:bc:49:bf:e8:8a:a2:02:cd:b2:
                    74:d6:ad
                Exponent: 65537 (0x10001)
        X509v3 extensions:
            X509v3 Basic Constraints: 
                CA:FALSE
            Netscape Comment: 
                Easy-RSA Generated Certificate
            X509v3 Subject Key Identifier: 
                13:8A:C5:C8:18:6A:E1:F4:B8:92:72:BD:58:63:69:17:E4:8C:D2:4D
            X509v3 Authority Key Identifier: 
                keyid:12:CD:60:04:D2:A0:80:9E:70:ED:C6:99:B8:7B:2C:C6:52:FD:19:A1
                DirName:/C=US/ST=OH/L=Columbus/O=VikingVPN/OU=MyOrganizationalUnit/CN=VikingVPN CA/name=EasyRSA/emailAddress=me@myhost.mydomain
                serial:CF:35:85:EE:80:BF:2A:3E

            X509v3 Extended Key Usage: 
                TLS Web Client Authentication
            X509v3 Key Usage: 
                Digital Signature
    Signature Algorithm: sha256WithRSAEncryption
         25:16:e4:25:df:6f:79:08:95:b9:9c:ab:5a:2f:2c:29:40:9a:
         55:15:a4:61:a0:21:93:a6:8a:03:c1:8e:9f:f5:02:78:44:c1:
         12:a9:30:79:c1:a0:e6:14:23:8a:6e:ac:d0:36:09:2f:7b:b2:
         67:e7:2d:06:b3:c0:58:b0:7e:2e:4a:8c:c1:3d:28:1c:b3:d9:
         66:89:5a:91:c5:38:6a:7c:bd:59:c3:4f:bb:3d:cb:b4:58:3e:
         e4:ba:a4:b4:d3:ea:a2:5c:5e:cc:cd:ae:b7:3e:92:dc:b8:2e:
         69:5a:3b:98:e3:74:55:f7:ab:08:75:9c:6a:2b:32:54:36:7a:
         ed:73:72:97:8f:75:6f:0e:d3:34:fd:29:de:f5:a4:7d:14:6a:
         1a:a8:a3:dc:b2:f4:c6:c2:e8:b2:8c:5e:5f:bd:6d:94:70:71:
         83:a5:e6:11:ca:de:72:84:c5:54:35:69:b9:d9:89:d1:6c:2b:
         68:84:1e:83:c3:44:cc:b1:0e:26:9f:8c:b6:48:03:18:c6:79:
         1b:69:92:9f:9b:da:eb:0f:38:47:4c:d0:cc:7d:e2:0a:7f:fa:
         f5:fb:56:2a:45:1c:e1:17:1d:16:49:33:bc:11:2e:aa:be:2c:
         7a:d2:d0:d9:7c:3e:93:1f:af:37:5d:63:44:b7:31:16:5f:8e:
         a8:dc:eb:bc:b3:cd:ee:8e:b9:0e:e9:79:29:a4:b6:db:7a:95:
         ca:c5:0c:11:78:9f:64:63:73:76:46:4c:78:92:5e:be:f2:5f:
         7a:b6:02:9e:09:9e:9a:89:dc:11:12:24:5b:18:23:9b:da:c7:
         af:5f:a7:0a:5e:c4:c8:26:d8:35:93:af:8d:0a:07:0a:67:01:
         c0:b5:2f:f0:4a:8f:e3:28:1d:59:1a:73:93:e8:c7:06:88:80:
         ad:fb:3b:0e:ef:85:38:8d:eb:1f:36:75:d0:5d:87:f0:e1:3b:
         38:c1:e1:96:ec:b7:65:95:e8:48:3b:1c:ff:6c:95:b9:f8:be:
         3b:26:3d:11:e3:77:91:1e:21:44:cb:d8:04:cd:21:8a:56:23:
         b9:38:82:f6:68:b0:c1:dd:bf:9e:6d:1d:73:80:be:dc:3c:31:
         95:1c:1f:58:e6:a3:50:63:15:a9:fd:4a:20:96:95:ca:e4:1f:
         30:8b:44:e1:47:b8:29:ee:58:e9:91:ba:f4:b8:fe:19:dc:ed:
         fd:a4:b5:35:25:20:6c:51:64:1a:d0:27:7d:a9:fd:29:e3:21:
         60:49:6a:68:bd:90:8f:3e:a4:94:fe:05:e9:47:ea:ba:ef:52:
         36:bb:94:bf:5e:a2:c4:70:2f:74:47:38:fd:ec:4d:dd:d1:22:
         d3:8a:be:7d:3c:25:ed:97
-----BEGIN CERTIFICATE-----
MIIGrTCCBJWgAwIBAgICLAQwDQYJKoZIhvcNAQELBQAwgawxCzAJBgNVBAYTAlVT
MQswCQYDVQQIEwJPSDERMA8GA1UEBxMIQ29sdW1idXMxEjAQBgNVBAoTCVZpa2lu
Z1ZQTjEdMBsGA1UECxMUTXlPcmdhbml6YXRpb25hbFVuaXQxFTATBgNVBAMTDFZp
a2luZ1ZQTiBDQTEQMA4GA1UEKRMHRWFzeVJTQTEhMB8GCSqGSIb3DQEJARYSbWVA
bXlob3N0Lm15ZG9tYWluMB4XDTE3MDcwNjIyMTEyMFoXDTI3MDcwNDIyMTEyMFow
HzEdMBsGA1UEAxMUQ2xpZW50MTU1MkNlcnQzODdhZDQwggIiMA0GCSqGSIb3DQEB
AQUAA4ICDwAwggIKAoICAQDexcTPpaWhkK84sdIikHcp0vT7zwl0zqBBqIXeZzbE
gm/a645OX56s1/vqrfmH/QYqA4fKMbHqrYgJMNNfrBws1mdTo2fWnQpGwPOC+D9Z
NjnRKUexpN1hhow7UajB/QgZhVbX2Gyudv1POou/oQk88hw0jP+T6FIABD7m7V0H
6czG2fTwR9+cX1V4yKJOR76NnWInvTiuQiiY3JVDQLiTV1UxNhzirqKlwzNSFee+
fV5IPyAxHso7ZQWu/ATMt0AZjIHGTdt/9EwH+GNucao987KiEsZQtQ+oByW/wV9B
HO/lLXR/NS0wa3l37YYvBxZJh7wJYdwfZFTb6WDa24KN/ymlaIqFST3uKLBIgqdh
9EVZ8NVj34QyhtWmqf4fK49vQITRIO4qrZbcaBfCtaIg4swReVYlexxPn5zR/ctL
jOpGeTDSBuwqX37R1N6G4iOMtSmyTCtZsWUOUSUZ/o1yMr2GcDXdBwMNPolB7ZGQ
hRGO15fzBSohgk8OX992j8MRm7CJLjSf4DhYZXHbuuZN/P+ag0hbGLI7/PCXsrlu
0h5jY5xUnDzfK+J2vMnEpbgI4QZFGuiZWWpK6qgLeJ2UyKBAPRTMOy+m41kzsOnR
E6+/IDQEyuP6Z8vT/sSH+xWAK+H5COVVXNYaSyRao7TxMx4fXbxJv+iKogLNsnTW
rQIDAQABo4IBYzCCAV8wCQYDVR0TBAIwADAtBglghkgBhvhCAQ0EIBYeRWFzeS1S
U0EgR2VuZXJhdGVkIENlcnRpZmljYXRlMB0GA1UdDgQWBBQTisXIGGrh9LiScr1Y
Y2kX5IzSTTCB4QYDVR0jBIHZMIHWgBQSzWAE0qCAnnDtxpm4eyzGUv0ZoaGBsqSB
rzCBrDELMAkGA1UEBhMCVVMxCzAJBgNVBAgTAk9IMREwDwYDVQQHEwhDb2x1bWJ1
czESMBAGA1UEChMJVmlraW5nVlBOMR0wGwYDVQQLExRNeU9yZ2FuaXphdGlvbmFs
VW5pdDEVMBMGA1UEAxMMVmlraW5nVlBOIENBMRAwDgYDVQQpEwdFYXN5UlNBMSEw
HwYJKoZIhvcNAQkBFhJtZUBteWhvc3QubXlkb21haW6CCQDPNYXugL8qPjATBgNV
HSUEDDAKBggrBgEFBQcDAjALBgNVHQ8EBAMCB4AwDQYJKoZIhvcNAQELBQADggIB
ACUW5CXfb3kIlbmcq1ovLClAmlUVpGGgIZOmigPBjp/1AnhEwRKpMHnBoOYUI4pu
rNA2CS97smfnLQazwFiwfi5KjME9KByz2WaJWpHFOGp8vVnDT7s9y7RYPuS6pLTT
6qJcXszNrrc+kty4LmlaO5jjdFX3qwh1nGorMlQ2eu1zcpePdW8O0zT9Kd71pH0U
ahqoo9yy9MbC6LKMXl+9bZRwcYOl5hHK3nKExVQ1abnZidFsK2iEHoPDRMyxDiaf
jLZIAxjGeRtpkp+b2usPOEdM0Mx94gp/+vX7VipFHOEXHRZJM7wRLqq+LHrS0Nl8
PpMfrzddY0S3MRZfjqjc67yzze6OuQ7peSmkttt6lcrFDBF4n2Rjc3ZGTHiSXr7y
X3q2Ap4JnpqJ3BESJFsYI5vax69fpwpexMgm2DWTr40KBwpnAcC1L/BKj+MoHVka
c5PoxwaIgK37Ow7vhTiN6x82ddBdh/DhOzjB4Zbst2WV6Eg7HP9slbn4vjsmPRHj
d5EeIUTL2ATNIYpWI7k4gvZosMHdv55tHXOAvtw8MZUcH1jmo1BjFan9SiCWlcrk
HzCLROFHuCnuWOmRuvS4/hnc7f2ktTUlIGxRZBrQJ32p/SnjIWBJami9kI8+pJT+
BelH6rrvUja7lL9eosRwL3RHOP3sTd3RItOKvn08Je2X
-----END CERTIFICATE-----
