Certificate:
    Data:
        Version: 3 (0x2)
        Serial Number: 11269 (0x2c05)
    Signature Algorithm: sha256WithRSAEncryption
        Issuer: C=US, ST=OH, L=Columbus, O=VikingVPN, OU=MyOrganizationalUnit, CN=VikingVPN CA/name=EasyRSA/emailAddress=me@myhost.mydomain
        Validity
            Not Before: Jul  6 22:13:20 2017 GMT
            Not After : Jul  4 22:13:20 2027 GMT
        Subject: CN=Client1552Cert4cdfd5
        Subject Public Key Info:
            Public Key Algorithm: rsaEncryption
                Public-Key: (4096 bit)
                Modulus:
                    00:ab:02:b5:8f:54:d3:d0:8c:43:42:eb:63:d9:2d:
                    6e:d1:6c:1f:14:02:a2:5b:52:84:49:a4:5c:79:fe:
                    c9:bf:65:05:f3:bb:48:f2:d7:aa:5c:3d:6c:31:94:
                    fb:2b:2f:45:1e:d5:cf:51:ed:f9:36:be:d4:8f:fa:
                    1f:76:aa:47:86:c8:42:75:38:ac:ab:cf:df:ac:2b:
                    c4:9f:d0:ed:8b:a9:1c:49:d8:6a:6e:ed:01:81:e1:
                    85:8e:8b:b1:0a:f4:e0:b5:5b:99:30:89:8e:3a:22:
                    9a:4c:cf:23:26:05:c9:5f:90:ae:de:1c:54:fd:91:
                    e8:36:38:8c:e6:01:19:75:02:36:a2:0e:c7:e7:61:
                    23:56:5d:43:ac:78:9d:bb:48:92:47:d7:88:d2:a7:
                    3b:a5:03:56:ff:d2:e5:44:8d:fa:fc:f2:89:8f:a1:
                    04:9d:8a:e4:4c:ee:29:91:64:0b:bf:87:e3:da:cc:
                    fa:4a:c7:ee:b3:c8:cd:9d:c5:07:c8:15:f6:7d:ab:
                    8d:fc:4d:75:8e:91:9c:f7:a5:57:99:2b:2c:c5:db:
                    30:89:3d:cf:8a:be:34:d5:e6:91:9b:e2:41:54:ba:
                    4d:f4:02:59:95:ea:8b:08:82:c6:39:34:d3:51:1f:
                    3e:34:4d:4d:aa:6f:a8:6f:9f:a4:ef:65:de:79:b6:
                    9f:02:13:b4:f5:6e:3c:ee:72:92:0d:33:01:ff:e3:
                    5e:c4:8f:21:c1:de:df:47:85:85:5c:66:d4:a8:f4:
                    8c:c0:bc:ad:7d:4d:0d:c1:41:4b:8b:ce:3c:05:58:
                    34:40:5d:f8:7d:4e:d9:ea:43:3f:0b:7a:e4:b4:12:
                    2f:63:9a:2b:48:50:3f:bf:e6:51:41:51:61:72:32:
                    93:34:ac:ef:00:ef:5f:46:3d:74:d9:28:2c:58:3b:
                    45:f2:6e:d7:60:fa:bd:c7:09:80:e9:5d:21:f3:ef:
                    c3:52:87:ba:dd:97:0a:f2:bc:f3:2f:d1:95:16:90:
                    ec:e8:88:48:d4:dc:84:52:f8:3a:62:91:ce:46:49:
                    de:75:72:43:b2:b3:59:f2:3c:37:c8:7b:c3:4f:b7:
                    7c:ec:bb:ad:5c:11:02:41:97:fe:a8:9d:4e:6e:82:
                    09:64:7b:98:61:52:c9:07:f7:3e:70:ab:31:67:7c:
                    e1:c3:91:dc:54:a8:d0:2a:2e:ba:df:c8:91:ff:92:
                    7b:3c:8b:2a:62:63:87:8c:63:59:43:1d:81:0e:c3:
                    6b:68:a4:98:e7:3f:91:1f:d6:c8:2d:59:6d:23:9c:
                    c7:84:85:7a:41:fb:81:eb:53:a5:97:be:1d:fa:e8:
                    d9:4c:ea:e5:db:5a:70:38:00:28:c2:46:d4:4e:d1:
                    40:40:5d
                Exponent: 65537 (0x10001)
        X509v3 extensions:
            X509v3 Basic Constraints: 
                CA:FALSE
            Netscape Comment: 
                Easy-RSA Generated Certificate
            X509v3 Subject Key Identifier: 
                CA:A2:C4:65:AD:D5:99:D1:85:E0:C5:B0:80:1B:E1:64:45:B0:71:57
            X509v3 Authority Key Identifier: 
                keyid:12:CD:60:04:D2:A0:80:9E:70:ED:C6:99:B8:7B:2C:C6:52:FD:19:A1
                DirName:/C=US/ST=OH/L=Columbus/O=VikingVPN/OU=MyOrganizationalUnit/CN=VikingVPN CA/name=EasyRSA/emailAddress=me@myhost.mydomain
                serial:CF:35:85:EE:80:BF:2A:3E

            X509v3 Extended Key Usage: 
                TLS Web Client Authentication
            X509v3 Key Usage: 
                Digital Signature
    Signature Algorithm: sha256WithRSAEncryption
         d3:c1:86:82:a4:2e:b5:84:eb:b2:b5:d8:e6:99:ab:d2:d0:10:
         c0:b1:51:7f:d9:c4:fb:b7:b7:93:81:97:e9:55:85:5d:9f:e7:
         fb:d5:99:91:d5:1e:50:13:6a:82:d3:84:41:62:d0:4a:31:98:
         ec:32:ab:16:7e:5c:f8:a1:07:e8:a0:31:18:78:99:77:8f:ea:
         b4:9b:ba:97:1a:29:07:12:6d:d7:fd:1b:49:e8:e5:e4:22:2f:
         69:a7:fc:a4:6d:4d:1f:4c:0d:e3:22:4d:cf:2e:f2:a4:16:3c:
         70:f5:f5:42:c7:78:1e:4b:48:90:4f:a4:d0:81:90:96:80:8f:
         a6:d2:32:23:2e:a1:b3:dd:2f:b2:bd:37:41:77:33:45:20:d5:
         97:29:e7:21:5b:5e:37:de:f2:ce:df:10:05:44:96:b3:fe:82:
         56:87:a8:be:6e:86:c6:37:c2:07:d6:68:b7:62:3b:9d:a1:e4:
         28:2f:42:65:24:fa:ed:07:9e:e0:ed:6f:5b:af:f1:4d:a9:10:
         db:69:71:0c:e2:b6:19:95:6a:49:dd:d2:4d:6d:3b:4e:1c:c7:
         92:56:7f:b9:50:10:c5:68:f1:7d:83:08:84:2d:fb:37:fb:f8:
         5f:b0:13:4f:e2:dd:a0:95:f2:02:f1:fa:92:75:01:d0:13:9b:
         15:bc:6d:89:e3:9a:a1:4f:f8:85:36:cf:4d:bf:a4:8b:c0:27:
         dc:9f:58:36:45:07:16:17:f1:bd:3b:62:87:d9:32:f1:ae:99:
         89:2f:66:cb:82:64:10:a4:c4:04:41:ab:38:53:7f:ba:6d:02:
         f2:6a:82:76:90:a6:bb:68:e6:9a:db:b9:a3:cf:25:e8:13:8e:
         8b:29:a5:cc:c6:0e:87:09:f9:35:05:a9:99:07:0f:8d:97:67:
         22:e4:c2:06:97:ae:02:11:7f:c4:03:04:c4:76:53:ed:7f:03:
         85:a2:88:36:50:b9:68:29:c2:b8:f1:a7:27:34:59:bd:00:1c:
         d7:53:20:cd:50:1d:10:42:7f:50:3f:a7:70:70:9e:3c:9d:ed:
         13:71:19:61:30:06:fb:0c:cd:59:00:ee:de:6c:d1:77:cf:bb:
         1b:62:06:de:c0:79:a5:e0:d1:83:84:92:34:15:1c:8d:e9:76:
         54:70:10:f5:b8:c9:cc:e4:6f:95:66:15:4c:7d:5b:95:26:1e:
         8f:7e:89:e8:f3:9b:58:a9:1c:ed:4e:6f:b7:ed:ae:ef:15:bc:
         e1:14:61:5b:56:c5:8b:2a:64:88:25:a8:44:fd:ee:f8:08:96:
         a2:cc:fc:13:99:77:74:21:49:93:c1:ce:47:4d:07:4c:2f:22:
         7a:4e:6c:f9:b7:93:08:ad
-----BEGIN CERTIFICATE-----
MIIGrTCCBJWgAwIBAgICLAUwDQYJKoZIhvcNAQELBQAwgawxCzAJBgNVBAYTAlVT
MQswCQYDVQQIEwJPSDERMA8GA1UEBxMIQ29sdW1idXMxEjAQBgNVBAoTCVZpa2lu
Z1ZQTjEdMBsGA1UECxMUTXlPcmdhbml6YXRpb25hbFVuaXQxFTATBgNVBAMTDFZp
a2luZ1ZQTiBDQTEQMA4GA1UEKRMHRWFzeVJTQTEhMB8GCSqGSIb3DQEJARYSbWVA
bXlob3N0Lm15ZG9tYWluMB4XDTE3MDcwNjIyMTMyMFoXDTI3MDcwNDIyMTMyMFow
HzEdMBsGA1UEAxMUQ2xpZW50MTU1MkNlcnQ0Y2RmZDUwggIiMA0GCSqGSIb3DQEB
AQUAA4ICDwAwggIKAoICAQCrArWPVNPQjENC62PZLW7RbB8UAqJbUoRJpFx5/sm/
ZQXzu0jy16pcPWwxlPsrL0Ue1c9R7fk2vtSP+h92qkeGyEJ1OKyrz9+sK8Sf0O2L
qRxJ2Gpu7QGB4YWOi7EK9OC1W5kwiY46IppMzyMmBclfkK7eHFT9keg2OIzmARl1
AjaiDsfnYSNWXUOseJ27SJJH14jSpzulA1b/0uVEjfr88omPoQSdiuRM7imRZAu/
h+PazPpKx+6zyM2dxQfIFfZ9q438TXWOkZz3pVeZKyzF2zCJPc+KvjTV5pGb4kFU
uk30AlmV6osIgsY5NNNRHz40TU2qb6hvn6TvZd55tp8CE7T1bjzucpINMwH/417E
jyHB3t9HhYVcZtSo9IzAvK19TQ3BQUuLzjwFWDRAXfh9TtnqQz8LeuS0Ei9jmitI
UD+/5lFBUWFyMpM0rO8A719GPXTZKCxYO0Xybtdg+r3HCYDpXSHz78NSh7rdlwry
vPMv0ZUWkOzoiEjU3IRS+Dpikc5GSd51ckOys1nyPDfIe8NPt3zsu61cEQJBl/6o
nU5ugglke5hhUskH9z5wqzFnfOHDkdxUqNAqLrrfyJH/kns8iypiY4eMY1lDHYEO
w2topJjnP5Ef1sgtWW0jnMeEhXpB+4HrU6WXvh366NlM6uXbWnA4ACjCRtRO0UBA
XQIDAQABo4IBYzCCAV8wCQYDVR0TBAIwADAtBglghkgBhvhCAQ0EIBYeRWFzeS1S
U0EgR2VuZXJhdGVkIENlcnRpZmljYXRlMB0GA1UdDgQWBBTKosRlrdWZ0YXgxbCA
G+FkRbBxVzCB4QYDVR0jBIHZMIHWgBQSzWAE0qCAnnDtxpm4eyzGUv0ZoaGBsqSB
rzCBrDELMAkGA1UEBhMCVVMxCzAJBgNVBAgTAk9IMREwDwYDVQQHEwhDb2x1bWJ1
czESMBAGA1UEChMJVmlraW5nVlBOMR0wGwYDVQQLExRNeU9yZ2FuaXphdGlvbmFs
VW5pdDEVMBMGA1UEAxMMVmlraW5nVlBOIENBMRAwDgYDVQQpEwdFYXN5UlNBMSEw
HwYJKoZIhvcNAQkBFhJtZUBteWhvc3QubXlkb21haW6CCQDPNYXugL8qPjATBgNV
HSUEDDAKBggrBgEFBQcDAjALBgNVHQ8EBAMCB4AwDQYJKoZIhvcNAQELBQADggIB
ANPBhoKkLrWE67K12OaZq9LQEMCxUX/ZxPu3t5OBl+lVhV2f5/vVmZHVHlATaoLT
hEFi0EoxmOwyqxZ+XPihB+igMRh4mXeP6rSbupcaKQcSbdf9G0no5eQiL2mn/KRt
TR9MDeMiTc8u8qQWPHD19ULHeB5LSJBPpNCBkJaAj6bSMiMuobPdL7K9N0F3M0Ug
1Zcp5yFbXjfe8s7fEAVElrP+glaHqL5uhsY3wgfWaLdiO52h5CgvQmUk+u0HnuDt
b1uv8U2pENtpcQzithmVaknd0k1tO04cx5JWf7lQEMVo8X2DCIQt+zf7+F+wE0/i
3aCV8gLx+pJ1AdATmxW8bYnjmqFP+IU2z02/pIvAJ9yfWDZFBxYX8b07YofZMvGu
mYkvZsuCZBCkxARBqzhTf7ptAvJqgnaQprto5prbuaPPJegTjosppczGDocJ+TUF
qZkHD42XZyLkwgaXrgIRf8QDBMR2U+1/A4WiiDZQuWgpwrjxpyc0Wb0AHNdTIM1Q
HRBCf1A/p3Bwnjyd7RNxGWEwBvsMzVkA7t5s0XfPuxtiBt7AeaXg0YOEkjQVHI3p
dlRwEPW4yczkb5VmFUx9W5UmHo9+iejzm1ipHO1Ob7ftru8VvOEUYVtWxYsqZIgl
qET97vgIlqLM/BOZd3QhSZPBzkdNB0wvInpObPm3kwit
-----END CERTIFICATE-----
