Certificate:
    Data:
        Version: 3 (0x2)
        Serial Number: 11274 (0x2c0a)
    Signature Algorithm: sha256WithRSAEncryption
        Issuer: C=US, ST=OH, L=Columbus, O=VikingVPN, OU=MyOrganizationalUnit, CN=VikingVPN CA/name=EasyRSA/emailAddress=me@myhost.mydomain
        Validity
            Not Before: Jul  7 10:43:31 2017 GMT
            Not After : Jul  5 10:43:31 2027 GMT
        Subject: CN=Client1346Certd69d68
        Subject Public Key Info:
            Public Key Algorithm: rsaEncryption
                Public-Key: (4096 bit)
                Modulus:
                    00:c0:7a:59:e2:80:a0:a2:c1:cd:d9:83:bb:b0:ce:
                    54:d2:72:28:ac:6f:1f:0e:96:15:53:6f:7f:8c:23:
                    94:8a:d5:3b:02:14:72:01:d3:29:32:8b:bd:4a:c9:
                    f8:60:8b:28:27:59:76:83:20:17:6c:91:5a:36:81:
                    2e:e2:77:48:bd:54:d8:eb:26:41:95:c8:95:85:8c:
                    ce:f8:03:f8:25:d2:07:05:25:6f:71:8d:97:ff:e0:
                    45:a0:5c:54:ca:e8:cc:88:81:a0:87:d3:21:7a:c8:
                    db:85:d8:6b:6d:c4:c7:1f:0f:c6:a4:ae:af:6f:cf:
                    be:c7:a7:b1:19:19:63:e5:00:ec:c8:9c:33:b4:1c:
                    18:96:f7:78:01:db:db:5c:b4:f4:a1:57:32:de:6e:
                    c9:f5:1f:14:7f:3e:08:8a:95:ce:30:aa:99:73:47:
                    25:2b:02:af:db:c3:55:bd:f4:e8:64:f0:f0:2f:1b:
                    bc:be:48:e9:da:00:43:5c:47:1a:ad:fb:6d:8a:f8:
                    c8:5d:48:02:fd:3d:bb:fc:40:bb:8e:52:85:cb:c0:
                    87:90:4a:b4:90:fc:7f:ef:11:d0:ea:23:5e:f1:25:
                    18:c0:7a:a4:36:6c:af:03:16:c4:4c:6d:52:93:3f:
                    9b:88:c5:c5:aa:1c:f4:27:c9:26:22:4a:6d:ff:34:
                    d4:24:b9:78:5a:dc:39:f2:d8:95:2d:24:26:2b:af:
                    7f:86:a8:61:d2:66:47:e0:59:0d:f1:11:8b:fe:16:
                    f7:cd:76:36:29:5d:91:5f:ad:82:49:69:b3:ff:a6:
                    12:ec:35:10:ae:f9:e7:ab:6d:2c:60:7b:b4:7b:c8:
                    4e:23:02:f1:03:3f:5a:ce:b1:01:09:d9:54:20:30:
                    1b:9c:99:fa:7b:42:ac:13:62:23:46:69:df:9c:0f:
                    e3:19:b0:62:fd:8a:a6:f3:ea:f8:81:b8:7f:92:ee:
                    c5:4a:a0:cf:36:db:07:73:62:e6:2c:77:5e:8d:1f:
                    00:b9:c8:19:83:ae:d0:5a:38:e5:3a:51:de:ea:c4:
                    07:a3:e9:e9:0a:bf:64:e1:ec:2d:93:c1:a5:11:cf:
                    6c:4a:5b:df:15:5f:28:7e:a6:61:eb:07:ca:9d:aa:
                    c8:ee:fd:4c:3f:e4:15:25:8c:cb:4f:57:a5:bd:7e:
                    0c:04:a0:44:a8:fc:2f:44:97:88:35:e2:56:ac:1a:
                    dc:9d:07:c0:5a:a8:39:2c:58:b9:84:26:eb:75:73:
                    77:10:a8:e2:00:38:a4:61:24:5d:7d:16:31:8f:c3:
                    d5:72:51:3a:71:8a:7d:05:f6:90:8f:40:5c:69:67:
                    23:90:f8:2a:e1:05:18:cf:f5:9e:2f:6e:cf:c6:9b:
                    73:9d:db
                Exponent: 65537 (0x10001)
        X509v3 extensions:
            X509v3 Basic Constraints: 
                CA:FALSE
            Netscape Comment: 
                Easy-RSA Generated Certificate
            X509v3 Subject Key Identifier: 
                2D:51:35:E6:F0:80:BB:59:9E:95:37:9B:AD:96:D8:AE:F3:12:45:F4
            X509v3 Authority Key Identifier: 
                keyid:12:CD:60:04:D2:A0:80:9E:70:ED:C6:99:B8:7B:2C:C6:52:FD:19:A1
                DirName:/C=US/ST=OH/L=Columbus/O=VikingVPN/OU=MyOrganizationalUnit/CN=VikingVPN CA/name=EasyRSA/emailAddress=me@myhost.mydomain
                serial:CF:35:85:EE:80:BF:2A:3E

            X509v3 Extended Key Usage: 
                TLS Web Client Authentication
            X509v3 Key Usage: 
                Digital Signature
    Signature Algorithm: sha256WithRSAEncryption
         e0:6e:54:7e:28:55:6b:5d:d4:4b:a6:9b:ba:c9:69:fa:05:ed:
         6e:25:d2:47:35:f9:88:6f:87:bb:2d:c7:1a:38:d7:50:77:c1:
         28:98:81:52:ab:87:65:0d:f8:e6:ac:22:df:08:e7:da:6c:b5:
         e2:6b:87:02:8a:e3:3e:8c:ef:46:09:b2:23:df:dc:a3:00:05:
         12:a8:ae:64:5c:5c:fe:ee:1d:8a:09:90:e0:e2:1c:16:c3:f2:
         7f:20:1e:8f:30:c3:00:55:14:c3:4d:9d:44:ea:f7:5b:2f:80:
         a0:ad:7e:08:6f:93:8c:6d:9f:3a:ca:62:21:96:aa:c2:46:67:
         80:b3:0b:b1:62:36:ae:90:8b:47:8a:03:fc:4e:4d:e8:23:bb:
         36:3d:07:b1:67:d4:b3:d9:56:fc:e0:b1:ec:cb:55:ea:01:d7:
         82:96:e7:22:97:70:02:a5:2b:aa:c0:99:75:72:12:33:fb:1a:
         6a:c3:a5:f0:d8:03:75:17:88:8b:86:57:2a:fd:22:e3:d9:55:
         6f:e4:1a:f3:81:84:ad:83:56:6b:c8:0d:a1:a8:b1:f0:db:c5:
         44:0a:43:7a:c4:c0:e8:7f:22:64:c1:df:9f:29:63:09:40:3e:
         3f:e3:ea:d6:80:a5:05:3c:1a:8f:d0:f5:68:e0:7c:9f:f0:1a:
         9b:8e:17:43:f6:f8:d0:31:8e:77:db:3f:23:f5:a4:4a:1e:83:
         ad:a5:de:c0:e6:03:90:a2:b8:64:d3:e4:16:e2:64:08:3f:ca:
         b6:70:35:91:40:e5:11:c2:5e:48:b3:37:f5:4f:07:0f:5c:e3:
         c5:e0:b2:5c:8b:95:84:b0:c3:13:2a:c4:3f:83:bd:87:f3:5c:
         a0:92:52:05:71:8c:71:b4:51:8e:f3:9d:0c:69:7a:fd:00:f7:
         de:a4:c1:e4:a4:d1:7e:d7:dd:c4:f1:c4:9a:32:69:1e:ab:42:
         e0:f8:dd:c0:ad:ed:a0:a0:73:39:ac:c5:78:5c:48:4e:09:65:
         e5:ae:56:da:34:e0:73:28:07:1a:07:c2:42:54:7c:b5:ff:bb:
         41:f3:3c:b3:52:d9:29:1e:23:1e:a4:16:a3:53:2c:c1:83:50:
         94:b3:4a:47:b5:5e:a6:9a:76:c3:87:c0:5c:80:3b:b9:a2:c6:
         8e:6f:07:50:97:1f:92:22:75:7c:44:42:7d:af:ed:25:30:3f:
         8b:38:a6:d5:f9:9a:5b:b8:22:0c:52:d6:1c:c1:88:4e:d6:73:
         08:13:cd:81:42:59:f5:e3:b4:37:0d:fc:a5:35:8b:eb:77:ca:
         33:08:de:df:e3:6d:cb:df:71:42:45:1c:d7:f6:a3:0e:7c:ab:
         de:9a:b5:86:99:1d:cc:31
-----BEGIN CERTIFICATE-----
MIIGrTCCBJWgAwIBAgICLAowDQYJKoZIhvcNAQELBQAwgawxCzAJBgNVBAYTAlVT
MQswCQYDVQQIEwJPSDERMA8GA1UEBxMIQ29sdW1idXMxEjAQBgNVBAoTCVZpa2lu
Z1ZQTjEdMBsGA1UECxMUTXlPcmdhbml6YXRpb25hbFVuaXQxFTATBgNVBAMTDFZp
a2luZ1ZQTiBDQTEQMA4GA1UEKRMHRWFzeVJTQTEhMB8GCSqGSIb3DQEJARYSbWVA
bXlob3N0Lm15ZG9tYWluMB4XDTE3MDcwNzEwNDMzMVoXDTI3MDcwNTEwNDMzMVow
HzEdMBsGA1UEAxMUQ2xpZW50MTM0NkNlcnRkNjlkNjgwggIiMA0GCSqGSIb3DQEB
AQUAA4ICDwAwggIKAoICAQDAelnigKCiwc3Zg7uwzlTSciisbx8OlhVTb3+MI5SK
1TsCFHIB0ykyi71KyfhgiygnWXaDIBdskVo2gS7id0i9VNjrJkGVyJWFjM74A/gl
0gcFJW9xjZf/4EWgXFTK6MyIgaCH0yF6yNuF2GttxMcfD8akrq9vz77Hp7EZGWPl
AOzInDO0HBiW93gB29tctPShVzLebsn1HxR/PgiKlc4wqplzRyUrAq/bw1W99Ohk
8PAvG7y+SOnaAENcRxqt+22K+MhdSAL9Pbv8QLuOUoXLwIeQSrSQ/H/vEdDqI17x
JRjAeqQ2bK8DFsRMbVKTP5uIxcWqHPQnySYiSm3/NNQkuXha3Dny2JUtJCYrr3+G
qGHSZkfgWQ3xEYv+FvfNdjYpXZFfrYJJabP/phLsNRCu+eerbSxge7R7yE4jAvED
P1rOsQEJ2VQgMBucmfp7QqwTYiNGad+cD+MZsGL9iqbz6viBuH+S7sVKoM822wdz
YuYsd16NHwC5yBmDrtBaOOU6Ud7qxAej6ekKv2Th7C2TwaURz2xKW98VXyh+pmHr
B8qdqsju/Uw/5BUljMtPV6W9fgwEoESo/C9El4g14lasGtydB8BaqDksWLmEJut1
c3cQqOIAOKRhJF19FjGPw9VyUTpxin0F9pCPQFxpZyOQ+CrhBRjP9Z4vbs/Gm3Od
2wIDAQABo4IBYzCCAV8wCQYDVR0TBAIwADAtBglghkgBhvhCAQ0EIBYeRWFzeS1S
U0EgR2VuZXJhdGVkIENlcnRpZmljYXRlMB0GA1UdDgQWBBQtUTXm8IC7WZ6VN5ut
ltiu8xJF9DCB4QYDVR0jBIHZMIHWgBQSzWAE0qCAnnDtxpm4eyzGUv0ZoaGBsqSB
rzCBrDELMAkGA1UEBhMCVVMxCzAJBgNVBAgTAk9IMREwDwYDVQQHEwhDb2x1bWJ1
czESMBAGA1UEChMJVmlraW5nVlBOMR0wGwYDVQQLExRNeU9yZ2FuaXphdGlvbmFs
VW5pdDEVMBMGA1UEAxMMVmlraW5nVlBOIENBMRAwDgYDVQQpEwdFYXN5UlNBMSEw
HwYJKoZIhvcNAQkBFhJtZUBteWhvc3QubXlkb21haW6CCQDPNYXugL8qPjATBgNV
HSUEDDAKBggrBgEFBQcDAjALBgNVHQ8EBAMCB4AwDQYJKoZIhvcNAQELBQADggIB
AOBuVH4oVWtd1Eumm7rJafoF7W4l0kc1+Yhvh7stxxo411B3wSiYgVKrh2UN+Oas
It8I59psteJrhwKK4z6M70YJsiPf3KMABRKormRcXP7uHYoJkODiHBbD8n8gHo8w
wwBVFMNNnUTq91svgKCtfghvk4xtnzrKYiGWqsJGZ4CzC7FiNq6Qi0eKA/xOTegj
uzY9B7Fn1LPZVvzgsezLVeoB14KW5yKXcAKlK6rAmXVyEjP7GmrDpfDYA3UXiIuG
Vyr9IuPZVW/kGvOBhK2DVmvIDaGosfDbxUQKQ3rEwOh/ImTB358pYwlAPj/j6taA
pQU8Go/Q9WjgfJ/wGpuOF0P2+NAxjnfbPyP1pEoeg62l3sDmA5CiuGTT5BbiZAg/
yrZwNZFA5RHCXkizN/VPBw9c48XgslyLlYSwwxMqxD+DvYfzXKCSUgVxjHG0UY7z
nQxpev0A996kweSk0X7X3cTxxJoyaR6rQuD43cCt7aCgczmsxXhcSE4JZeWuVto0
4HMoBxoHwkJUfLX/u0HzPLNS2SkeIx6kFqNTLMGDUJSzSke1XqaadsOHwFyAO7mi
xo5vB1CXH5IidXxEQn2v7SUwP4s4ptX5mlu4IgxS1hzBiE7WcwgTzYFCWfXjtDcN
/KU1i+t3yjMI3t/jbcvfcUJFHNf2ow58q96atYaZHcwx
-----END CERTIFICATE-----
