Certificate:
    Data:
        Version: 3 (0x2)
        Serial Number: 11285 (0x2c15)
    Signature Algorithm: sha256WithRSAEncryption
        Issuer: C=US, ST=OH, L=Columbus, O=VikingVPN, OU=MyOrganizationalUnit, CN=VikingVPN CA/name=EasyRSA/emailAddress=me@myhost.mydomain
        Validity
            Not Before: Jul  8 15:11:42 2017 GMT
            Not After : Jul  6 15:11:42 2027 GMT
        Subject: CN=Client2985Cert4a1e92
        Subject Public Key Info:
            Public Key Algorithm: rsaEncryption
                Public-Key: (4096 bit)
                Modulus:
                    00:92:c6:1c:df:c1:c6:1e:51:20:e5:dd:a7:bf:3b:
                    f1:a8:88:61:e6:08:47:d5:37:97:4c:c6:0d:c0:cd:
                    bd:fe:9d:ab:8d:3d:64:02:77:46:a1:4f:8b:1d:1a:
                    61:2e:c2:b2:4d:01:46:60:b3:bd:6c:14:48:56:ef:
                    c7:e1:f2:0e:ff:58:32:18:6d:93:ac:2f:36:e7:9a:
                    cb:95:45:81:d3:f3:37:ff:2d:b5:8e:ae:f8:8d:a2:
                    62:88:82:73:1b:10:ab:30:52:24:b0:9c:07:53:42:
                    9c:a1:10:e5:f3:42:65:a5:54:a6:b5:10:85:4b:f2:
                    4e:b8:87:64:61:5d:a8:99:ec:f6:87:c7:f9:07:b6:
                    d7:2e:61:48:24:6b:51:c8:2d:07:a0:b0:48:23:23:
                    80:2a:40:e4:6d:a6:b6:2d:bd:4b:b7:0f:e4:56:60:
                    4d:e9:38:57:f8:af:3a:56:31:27:b6:98:2f:12:17:
                    1a:db:a0:73:a2:a0:62:d0:c1:f4:76:eb:9e:72:32:
                    7c:23:b6:d8:98:a9:af:d9:04:c8:7b:26:8e:7d:d5:
                    23:ec:07:1a:24:47:ae:9b:11:d5:da:56:aa:75:32:
                    78:69:b4:11:23:5b:78:d6:16:41:67:d7:3c:6b:84:
                    33:34:f7:76:3a:89:33:06:ea:fd:f9:08:ab:14:44:
                    dc:8b:dd:42:6e:2f:24:6d:c6:50:fd:f1:4b:71:6b:
                    ab:53:f9:ef:05:1b:c7:70:b9:a6:8d:43:fa:9e:04:
                    bb:7f:a6:c7:83:02:03:16:cc:11:00:f1:1a:3f:e4:
                    c3:fa:10:2b:5c:a0:4a:75:62:f4:dd:4f:77:1e:66:
                    17:9b:e0:c6:e8:bb:8f:c5:67:9f:5d:0b:2a:14:2b:
                    19:81:aa:a1:08:93:4a:5f:ca:49:78:90:f3:7c:70:
                    b3:ed:7b:8a:09:f0:2e:b6:14:f2:6a:b0:cc:0f:60:
                    45:1e:80:2e:59:61:6c:28:ef:67:11:ff:5d:e2:cb:
                    79:7d:8f:e6:fe:7d:a3:9a:f1:44:8b:0f:cd:76:40:
                    04:bf:80:4a:34:8f:94:fa:89:36:3e:f2:ee:81:0c:
                    a9:18:81:08:4c:9f:1a:be:4b:11:31:31:b5:2b:81:
                    fa:14:81:4d:ef:1c:39:32:b8:e9:ef:3b:a6:83:f7:
                    d8:4f:9c:58:b4:2b:1a:63:e5:5e:68:b1:a4:55:bb:
                    f2:34:56:38:47:95:1e:61:f7:bd:e7:db:59:cc:93:
                    e9:03:a2:ee:14:3c:2a:68:20:8d:b8:6d:0f:4c:71:
                    8d:bc:6a:2e:dd:22:01:9f:74:13:77:b9:c8:f9:3c:
                    37:43:2f:ee:b1:f5:4e:fa:ac:2a:bb:ed:a0:48:89:
                    b2:b1:05
                Exponent: 65537 (0x10001)
        X509v3 extensions:
            X509v3 Basic Constraints: 
                CA:FALSE
            Netscape Comment: 
                Easy-RSA Generated Certificate
            X509v3 Subject Key Identifier: 
                45:A6:25:41:C2:4F:63:F3:60:A8:17:0A:6E:C8:11:F2:D6:B4:27:DE
            X509v3 Authority Key Identifier: 
                keyid:12:CD:60:04:D2:A0:80:9E:70:ED:C6:99:B8:7B:2C:C6:52:FD:19:A1
                DirName:/C=US/ST=OH/L=Columbus/O=VikingVPN/OU=MyOrganizationalUnit/CN=VikingVPN CA/name=EasyRSA/emailAddress=me@myhost.mydomain
                serial:CF:35:85:EE:80:BF:2A:3E

            X509v3 Extended Key Usage: 
                TLS Web Client Authentication
            X509v3 Key Usage: 
                Digital Signature
    Signature Algorithm: sha256WithRSAEncryption
         d6:cf:f6:bd:bc:e9:ed:f1:f2:5e:d5:bd:a4:18:bf:bf:17:f7:
         33:af:9a:5a:a7:98:ac:b2:6c:4c:ad:7d:83:ff:1f:e0:2a:82:
         4c:c7:9f:b0:9b:62:75:c1:e1:bb:f8:30:b5:d4:f1:76:39:56:
         1e:6f:2c:24:d6:1f:b9:b4:73:b4:a1:fe:7a:e1:99:7c:03:ba:
         b6:e9:96:9c:24:64:05:04:e9:f8:c4:0f:c5:5e:07:fb:c8:9c:
         b8:aa:18:b9:a7:3e:7a:aa:55:30:21:ac:50:50:08:3c:25:9b:
         13:03:d0:78:75:8d:ee:82:02:a9:28:20:e4:cc:37:07:b9:aa:
         6d:98:69:2b:38:80:68:b4:31:16:e7:b2:52:12:14:4a:66:84:
         78:e3:e2:b5:2d:43:95:eb:14:f0:ca:bd:dd:33:ad:d9:e3:2b:
         ba:02:b8:21:b7:76:0f:95:2b:55:5b:77:5c:57:b8:2d:2a:d5:
         52:e9:42:1b:65:98:2f:47:a6:70:85:f3:24:fd:4c:6e:bf:29:
         5d:3b:30:71:5a:b4:fc:22:00:1f:30:74:92:da:75:08:5e:67:
         61:23:39:77:15:45:f6:c4:cc:2e:4e:69:0c:90:ee:31:7c:03:
         53:2d:1e:67:8a:9b:2b:22:3c:06:2b:fe:23:39:7f:0a:81:23:
         21:51:89:53:cc:fb:87:ad:70:e5:34:bf:9c:c5:94:87:1f:3d:
         de:14:a7:a9:43:6a:68:f3:3b:2e:c7:e7:2f:75:75:3c:ee:ce:
         bb:1e:3d:5a:44:e6:ee:c9:2a:56:c7:4b:f2:4b:2d:09:da:34:
         82:b1:7d:98:ba:d0:22:59:68:12:76:3d:e8:f1:3a:d2:5a:37:
         9e:64:df:63:23:6d:10:3a:ec:8e:e2:24:66:76:81:05:e3:c8:
         a9:eb:7f:b1:c9:95:5b:8e:27:1c:17:1e:62:97:b4:33:00:e7:
         ba:d0:b5:72:25:c0:c8:1b:99:d2:b5:47:93:77:fa:f5:43:57:
         c8:7b:a0:12:cf:30:58:7e:8a:32:03:4f:49:f9:b6:7a:5a:48:
         ce:ac:b4:dd:13:40:6d:4e:23:46:75:bb:6f:a7:d5:26:89:60:
         b5:24:16:6b:db:36:e5:ef:5c:d8:7d:29:38:29:2a:58:ac:1c:
         0c:ea:db:bc:9b:ff:af:fa:31:ef:20:2f:06:e7:97:e9:f1:98:
         37:83:22:e7:9c:37:a1:e2:f9:0b:c5:af:13:d8:06:11:bf:87:
         05:68:bd:6f:75:62:80:a8:f9:f2:13:ba:dc:32:a0:1d:f5:44:
         39:7b:5c:3a:91:a6:ef:e1:6d:cb:32:58:db:36:d4:46:2b:c9:
         c9:b2:9c:40:ba:c9:8f:70
-----BEGIN CERTIFICATE-----
MIIGrTCCBJWgAwIBAgICLBUwDQYJKoZIhvcNAQELBQAwgawxCzAJBgNVBAYTAlVT
MQswCQYDVQQIEwJPSDERMA8GA1UEBxMIQ29sdW1idXMxEjAQBgNVBAoTCVZpa2lu
Z1ZQTjEdMBsGA1UECxMUTXlPcmdhbml6YXRpb25hbFVuaXQxFTATBgNVBAMTDFZp
a2luZ1ZQTiBDQTEQMA4GA1UEKRMHRWFzeVJTQTEhMB8GCSqGSIb3DQEJARYSbWVA
bXlob3N0Lm15ZG9tYWluMB4XDTE3MDcwODE1MTE0MloXDTI3MDcwNjE1MTE0Mlow
HzEdMBsGA1UEAxMUQ2xpZW50Mjk4NUNlcnQ0YTFlOTIwggIiMA0GCSqGSIb3DQEB
AQUAA4ICDwAwggIKAoICAQCSxhzfwcYeUSDl3ae/O/GoiGHmCEfVN5dMxg3Azb3+
nauNPWQCd0ahT4sdGmEuwrJNAUZgs71sFEhW78fh8g7/WDIYbZOsLzbnmsuVRYHT
8zf/LbWOrviNomKIgnMbEKswUiSwnAdTQpyhEOXzQmWlVKa1EIVL8k64h2RhXaiZ
7PaHx/kHttcuYUgka1HILQegsEgjI4AqQORtprYtvUu3D+RWYE3pOFf4rzpWMSe2
mC8SFxrboHOioGLQwfR2655yMnwjttiYqa/ZBMh7Jo591SPsBxokR66bEdXaVqp1
MnhptBEjW3jWFkFn1zxrhDM093Y6iTMG6v35CKsURNyL3UJuLyRtxlD98Utxa6tT
+e8FG8dwuaaNQ/qeBLt/pseDAgMWzBEA8Ro/5MP6ECtcoEp1YvTdT3ceZheb4Mbo
u4/FZ59dCyoUKxmBqqEIk0pfykl4kPN8cLPte4oJ8C62FPJqsMwPYEUegC5ZYWwo
72cR/13iy3l9j+b+faOa8USLD812QAS/gEo0j5T6iTY+8u6BDKkYgQhMnxq+SxEx
MbUrgfoUgU3vHDkyuOnvO6aD99hPnFi0Kxpj5V5osaRVu/I0VjhHlR5h973n21nM
k+kDou4UPCpoII24bQ9McY28ai7dIgGfdBN3ucj5PDdDL+6x9U76rCq77aBIibKx
BQIDAQABo4IBYzCCAV8wCQYDVR0TBAIwADAtBglghkgBhvhCAQ0EIBYeRWFzeS1S
U0EgR2VuZXJhdGVkIENlcnRpZmljYXRlMB0GA1UdDgQWBBRFpiVBwk9j82CoFwpu
yBHy1rQn3jCB4QYDVR0jBIHZMIHWgBQSzWAE0qCAnnDtxpm4eyzGUv0ZoaGBsqSB
rzCBrDELMAkGA1UEBhMCVVMxCzAJBgNVBAgTAk9IMREwDwYDVQQHEwhDb2x1bWJ1
czESMBAGA1UEChMJVmlraW5nVlBOMR0wGwYDVQQLExRNeU9yZ2FuaXphdGlvbmFs
VW5pdDEVMBMGA1UEAxMMVmlraW5nVlBOIENBMRAwDgYDVQQpEwdFYXN5UlNBMSEw
HwYJKoZIhvcNAQkBFhJtZUBteWhvc3QubXlkb21haW6CCQDPNYXugL8qPjATBgNV
HSUEDDAKBggrBgEFBQcDAjALBgNVHQ8EBAMCB4AwDQYJKoZIhvcNAQELBQADggIB
ANbP9r286e3x8l7VvaQYv78X9zOvmlqnmKyybEytfYP/H+AqgkzHn7CbYnXB4bv4
MLXU8XY5Vh5vLCTWH7m0c7Sh/nrhmXwDurbplpwkZAUE6fjED8VeB/vInLiqGLmn
PnqqVTAhrFBQCDwlmxMD0Hh1je6CAqkoIOTMNwe5qm2YaSs4gGi0MRbnslISFEpm
hHjj4rUtQ5XrFPDKvd0zrdnjK7oCuCG3dg+VK1Vbd1xXuC0q1VLpQhtlmC9HpnCF
8yT9TG6/KV07MHFatPwiAB8wdJLadQheZ2EjOXcVRfbEzC5OaQyQ7jF8A1MtHmeK
mysiPAYr/iM5fwqBIyFRiVPM+4etcOU0v5zFlIcfPd4Up6lDamjzOy7H5y91dTzu
zrsePVpE5u7JKlbHS/JLLQnaNIKxfZi60CJZaBJ2PejxOtJaN55k32MjbRA67I7i
JGZ2gQXjyKnrf7HJlVuOJxwXHmKXtDMA57rQtXIlwMgbmdK1R5N3+vVDV8h7oBLP
MFh+ijIDT0n5tnpaSM6stN0TQG1OI0Z1u2+n1SaJYLUkFmvbNuXvXNh9KTgpKlis
HAzq27yb/6/6Me8gLwbnl+nxmDeDIuecN6Hi+QvFrxPYBhG/hwVovW91YoCo+fIT
utwyoB31RDl7XDqRpu/hbcsyWNs21EYrycmynEC6yY9w
-----END CERTIFICATE-----
