Certificate:
    Data:
        Version: 3 (0x2)
        Serial Number: 11292 (0x2c1c)
    Signature Algorithm: sha256WithRSAEncryption
        Issuer: C=US, ST=OH, L=Columbus, O=VikingVPN, OU=MyOrganizationalUnit, CN=VikingVPN CA/name=EasyRSA/emailAddress=me@myhost.mydomain
        Validity
            Not Before: Jul  9 01:46:43 2017 GMT
            Not After : Jul  7 01:46:43 2027 GMT
        Subject: CN=Client2014Cert355fdd
        Subject Public Key Info:
            Public Key Algorithm: rsaEncryption
                Public-Key: (4096 bit)
                Modulus:
                    00:d3:d9:fd:eb:b2:a3:1e:86:53:57:49:d9:f9:d9:
                    50:e8:a2:3b:c1:0a:53:7e:fd:f6:4b:2e:2c:99:8a:
                    bf:4d:96:35:10:53:34:db:60:5f:23:8e:c0:4b:f9:
                    2f:39:88:8f:5c:7a:0b:4a:ce:2c:28:96:c2:05:b6:
                    03:53:72:39:34:4c:9c:54:b6:95:47:fb:b1:dd:d8:
                    c7:4d:0b:c8:ae:c5:d3:2f:72:2a:01:16:ef:6d:de:
                    22:f9:7c:86:7d:88:2e:13:62:47:2f:25:46:23:ce:
                    ad:14:78:85:0e:3a:5e:6b:c2:c1:8a:5e:3d:6d:dc:
                    cf:22:00:d8:dc:ff:41:33:52:19:c1:18:22:80:d2:
                    c7:6a:d7:63:f1:c4:e8:a9:60:c1:c1:42:07:b7:5e:
                    8e:bc:c9:4c:f7:57:f3:63:f4:9f:be:97:c2:d7:00:
                    b2:f9:a4:73:ef:48:75:c6:69:5d:13:1f:73:23:5d:
                    a0:4c:73:6b:cf:ff:e7:a7:29:97:9b:bd:8f:f1:d4:
                    6c:03:c0:04:2b:0d:39:80:59:8a:b8:f7:61:06:43:
                    be:05:1d:b4:fa:54:0b:79:34:62:51:7e:77:cc:d4:
                    92:d5:ae:0d:13:e9:e9:6a:f7:f0:3c:0a:0b:72:2f:
                    82:12:84:6e:81:a8:a1:2d:87:55:a4:b8:92:88:31:
                    63:44:d1:89:90:83:9a:52:7e:39:20:b5:f1:60:df:
                    51:d0:ed:12:16:2c:1a:13:4e:f1:86:1e:1a:2f:95:
                    6a:20:63:1c:14:a2:d1:5a:ef:e1:05:0f:d1:19:11:
                    c1:c1:89:8c:a0:fd:69:78:e5:06:4e:9b:53:5e:0d:
                    89:43:d6:9b:68:0d:ce:56:5c:4d:23:72:08:51:54:
                    0b:e7:41:f5:dd:21:31:30:57:19:79:08:46:c3:0f:
                    72:ac:68:a2:c0:1e:13:94:03:87:fc:9b:50:c7:57:
                    97:22:15:59:db:9d:4a:20:e6:f8:b9:cd:b7:e5:14:
                    91:b2:87:90:0a:b1:eb:81:b9:62:ea:ab:c2:a1:95:
                    28:ca:34:29:a9:14:de:75:0c:5a:44:8b:13:63:17:
                    f0:51:b1:d4:48:e1:58:4e:7e:20:52:64:06:5f:f9:
                    d3:9a:32:72:4c:08:1f:af:da:96:fb:36:51:55:57:
                    e3:2e:60:26:39:75:bc:58:44:c0:ee:9c:38:07:b7:
                    99:2f:ea:93:e6:c2:3e:20:22:e5:41:5f:f5:03:38:
                    0b:87:32:f7:ce:5b:e9:22:f8:5d:c3:41:26:09:9f:
                    3e:ad:4d:7d:67:4b:d8:05:4d:a2:bd:87:4a:4d:ae:
                    94:22:0b:d8:98:1c:d4:b4:f3:fe:29:9a:00:da:86:
                    cd:58:ef
                Exponent: 65537 (0x10001)
        X509v3 extensions:
            X509v3 Basic Constraints: 
                CA:FALSE
            Netscape Comment: 
                Easy-RSA Generated Certificate
            X509v3 Subject Key Identifier: 
                F4:31:EF:0E:A0:5C:73:AD:60:DA:E1:E5:EE:4C:D7:49:0D:74:B0:F8
            X509v3 Authority Key Identifier: 
                keyid:12:CD:60:04:D2:A0:80:9E:70:ED:C6:99:B8:7B:2C:C6:52:FD:19:A1
                DirName:/C=US/ST=OH/L=Columbus/O=VikingVPN/OU=MyOrganizationalUnit/CN=VikingVPN CA/name=EasyRSA/emailAddress=me@myhost.mydomain
                serial:CF:35:85:EE:80:BF:2A:3E

            X509v3 Extended Key Usage: 
                TLS Web Client Authentication
            X509v3 Key Usage: 
                Digital Signature
    Signature Algorithm: sha256WithRSAEncryption
         66:91:0b:a1:20:32:55:c3:2f:5b:3d:7a:83:62:71:5a:f4:a9:
         b2:67:db:c8:b7:95:88:83:81:73:6a:85:4b:5b:6f:5f:b7:83:
         5c:33:a4:c4:01:cf:84:fd:18:93:0b:62:96:69:1c:20:0e:0a:
         41:3f:97:5d:8f:26:35:64:c9:06:81:8e:96:96:45:f4:05:26:
         05:0a:06:0b:6a:64:5c:d3:30:f2:eb:53:d5:86:40:53:06:4f:
         ed:11:4a:b0:3d:d3:06:6e:a8:dc:00:e3:79:27:b8:99:c8:f7:
         59:c7:c9:a7:35:5c:c1:fe:bf:f3:94:ed:47:f8:fa:62:f7:a0:
         1e:c2:5f:f3:cb:40:15:c7:a5:b0:be:b9:6d:c2:04:7d:ea:6a:
         46:1d:2a:12:77:bd:de:2c:c1:27:88:64:bb:ba:4e:3f:34:83:
         27:bd:de:cf:a3:83:28:8d:4c:cc:5e:58:f3:27:c6:74:dd:a5:
         f0:e0:64:a5:46:25:67:0f:10:c9:a2:86:43:eb:33:6f:ec:35:
         af:3b:ad:ea:ef:50:e6:83:54:dc:e1:5a:79:af:1f:4c:07:04:
         a0:41:2c:1b:c4:2c:d4:d7:c5:98:ca:4c:2f:9b:f9:40:ee:1f:
         af:d2:64:69:8f:23:76:0b:5f:30:dd:60:9a:80:ba:fc:c1:55:
         5e:d6:5a:57:a7:8b:f4:14:c0:f2:6e:30:f9:e7:e5:33:c1:45:
         30:9f:80:9d:fb:46:1a:eb:07:ca:2c:eb:0b:9f:8b:bd:03:4e:
         23:5c:4e:08:07:d8:3c:7e:8a:ea:64:e6:4e:0c:a4:4e:c7:ef:
         f6:89:55:48:3b:29:a7:bc:35:10:27:c5:37:12:7f:d3:3c:64:
         ff:db:90:6b:65:19:d7:e7:8d:eb:db:49:8a:58:0f:d8:4e:69:
         9d:70:32:16:e3:08:49:1f:ed:26:73:43:e3:93:9a:a4:0c:7c:
         f0:6a:45:cf:54:86:38:07:a2:ac:a0:e5:f2:c1:f8:75:36:cf:
         ad:21:53:51:20:89:96:7e:12:b0:5d:92:f9:59:e1:6a:bc:82:
         12:7a:f8:f8:a9:db:0d:0e:21:6d:e7:92:ce:b8:41:82:bb:5b:
         d1:59:8b:14:0f:68:e1:52:18:d0:63:e8:38:bb:34:f3:c8:ea:
         89:47:f9:3f:09:8d:96:00:1e:0f:fb:53:27:04:c4:9b:a0:d5:
         38:be:27:24:56:6b:a8:ef:b1:24:3d:3d:3e:75:33:bd:e9:01:
         12:78:98:db:d9:fd:96:54:8b:92:b5:e8:f1:b6:06:8f:e8:69:
         66:6a:66:7c:ce:89:7a:26:f9:de:6f:ad:58:3f:63:aa:5b:1c:
         ad:36:c7:37:35:48:28:8e
-----BEGIN CERTIFICATE-----
MIIGrTCCBJWgAwIBAgICLBwwDQYJKoZIhvcNAQELBQAwgawxCzAJBgNVBAYTAlVT
MQswCQYDVQQIEwJPSDERMA8GA1UEBxMIQ29sdW1idXMxEjAQBgNVBAoTCVZpa2lu
Z1ZQTjEdMBsGA1UECxMUTXlPcmdhbml6YXRpb25hbFVuaXQxFTATBgNVBAMTDFZp
a2luZ1ZQTiBDQTEQMA4GA1UEKRMHRWFzeVJTQTEhMB8GCSqGSIb3DQEJARYSbWVA
bXlob3N0Lm15ZG9tYWluMB4XDTE3MDcwOTAxNDY0M1oXDTI3MDcwNzAxNDY0M1ow
HzEdMBsGA1UEAxMUQ2xpZW50MjAxNENlcnQzNTVmZGQwggIiMA0GCSqGSIb3DQEB
AQUAA4ICDwAwggIKAoICAQDT2f3rsqMehlNXSdn52VDoojvBClN+/fZLLiyZir9N
ljUQUzTbYF8jjsBL+S85iI9cegtKziwolsIFtgNTcjk0TJxUtpVH+7Hd2MdNC8iu
xdMvcioBFu9t3iL5fIZ9iC4TYkcvJUYjzq0UeIUOOl5rwsGKXj1t3M8iANjc/0Ez
UhnBGCKA0sdq12PxxOipYMHBQge3Xo68yUz3V/Nj9J++l8LXALL5pHPvSHXGaV0T
H3MjXaBMc2vP/+enKZebvY/x1GwDwAQrDTmAWYq492EGQ74FHbT6VAt5NGJRfnfM
1JLVrg0T6elq9/A8CgtyL4IShG6BqKEth1WkuJKIMWNE0YmQg5pSfjkgtfFg31HQ
7RIWLBoTTvGGHhovlWogYxwUotFa7+EFD9EZEcHBiYyg/Wl45QZOm1NeDYlD1pto
Dc5WXE0jcghRVAvnQfXdITEwVxl5CEbDD3KsaKLAHhOUA4f8m1DHV5ciFVnbnUog
5vi5zbflFJGyh5AKseuBuWLqq8KhlSjKNCmpFN51DFpEixNjF/BRsdRI4VhOfiBS
ZAZf+dOaMnJMCB+v2pb7NlFVV+MuYCY5dbxYRMDunDgHt5kv6pPmwj4gIuVBX/UD
OAuHMvfOW+ki+F3DQSYJnz6tTX1nS9gFTaK9h0pNrpQiC9iYHNS08/4pmgDahs1Y
7wIDAQABo4IBYzCCAV8wCQYDVR0TBAIwADAtBglghkgBhvhCAQ0EIBYeRWFzeS1S
U0EgR2VuZXJhdGVkIENlcnRpZmljYXRlMB0GA1UdDgQWBBT0Me8OoFxzrWDa4eXu
TNdJDXSw+DCB4QYDVR0jBIHZMIHWgBQSzWAE0qCAnnDtxpm4eyzGUv0ZoaGBsqSB
rzCBrDELMAkGA1UEBhMCVVMxCzAJBgNVBAgTAk9IMREwDwYDVQQHEwhDb2x1bWJ1
czESMBAGA1UEChMJVmlraW5nVlBOMR0wGwYDVQQLExRNeU9yZ2FuaXphdGlvbmFs
VW5pdDEVMBMGA1UEAxMMVmlraW5nVlBOIENBMRAwDgYDVQQpEwdFYXN5UlNBMSEw
HwYJKoZIhvcNAQkBFhJtZUBteWhvc3QubXlkb21haW6CCQDPNYXugL8qPjATBgNV
HSUEDDAKBggrBgEFBQcDAjALBgNVHQ8EBAMCB4AwDQYJKoZIhvcNAQELBQADggIB
AGaRC6EgMlXDL1s9eoNicVr0qbJn28i3lYiDgXNqhUtbb1+3g1wzpMQBz4T9GJML
YpZpHCAOCkE/l12PJjVkyQaBjpaWRfQFJgUKBgtqZFzTMPLrU9WGQFMGT+0RSrA9
0wZuqNwA43knuJnI91nHyac1XMH+v/OU7Uf4+mL3oB7CX/PLQBXHpbC+uW3CBH3q
akYdKhJ3vd4swSeIZLu6Tj80gye93s+jgyiNTMxeWPMnxnTdpfDgZKVGJWcPEMmi
hkPrM2/sNa87rervUOaDVNzhWnmvH0wHBKBBLBvELNTXxZjKTC+b+UDuH6/SZGmP
I3YLXzDdYJqAuvzBVV7WWleni/QUwPJuMPnn5TPBRTCfgJ37RhrrB8os6wufi70D
TiNcTggH2Dx+iupk5k4MpE7H7/aJVUg7Kae8NRAnxTcSf9M8ZP/bkGtlGdfnjevb
SYpYD9hOaZ1wMhbjCEkf7SZzQ+OTmqQMfPBqRc9UhjgHoqyg5fLB+HU2z60hU1Eg
iZZ+ErBdkvlZ4Wq8ghJ6+Pip2w0OIW3nks64QYK7W9FZixQPaOFSGNBj6Di7NPPI
6olH+T8JjZYAHg/7UycExJug1Ti+JyRWa6jvsSQ9PT51M73pARJ4mNvZ/ZZUi5K1
6PG2Bo/oaWZqZnzOiXom+d5vrVg/Y6pbHK02xzc1SCiO
-----END CERTIFICATE-----
