Certificate:
    Data:
        Version: 3 (0x2)
        Serial Number: 11301 (0x2c25)
    Signature Algorithm: sha256WithRSAEncryption
        Issuer: C=US, ST=OH, L=Columbus, O=VikingVPN, OU=MyOrganizationalUnit, CN=VikingVPN CA/name=EasyRSA/emailAddress=me@myhost.mydomain
        Validity
            Not Before: Jul 10 02:42:05 2017 GMT
            Not After : Jul  8 02:42:05 2027 GMT
        Subject: CN=Client2987Cert466711
        Subject Public Key Info:
            Public Key Algorithm: rsaEncryption
                Public-Key: (4096 bit)
                Modulus:
                    00:b8:23:37:0a:56:b9:02:aa:c2:8c:b6:b8:7e:39:
                    0b:d8:70:1f:5c:0d:47:17:e4:f0:e4:a3:27:93:58:
                    1a:fa:f5:2b:83:9c:a3:f2:5b:8e:e5:61:b0:19:64:
                    aa:8e:d3:0e:66:8f:5d:40:bd:50:3b:03:c4:c6:47:
                    c7:ae:e8:6e:17:f0:db:cc:b7:cf:fc:b4:44:8f:b0:
                    62:14:6c:3c:df:5f:13:74:87:29:d6:35:ad:39:c8:
                    70:66:46:bb:d8:7e:9b:5a:38:40:70:02:5e:72:ca:
                    34:d4:b9:83:24:9a:0c:7d:14:ff:ae:e4:6f:a1:fa:
                    f6:50:88:25:98:8a:be:b0:26:e3:d8:1b:b7:f4:1c:
                    24:5e:10:5a:62:e8:bb:6b:81:79:82:be:97:39:55:
                    64:e2:87:da:67:81:5b:2e:68:77:06:96:cc:a3:4b:
                    4d:42:66:12:4b:63:a5:96:bb:76:98:d9:49:6c:b2:
                    5b:52:dc:de:18:b2:41:ac:b7:b3:20:29:04:08:98:
                    9b:4b:50:c5:98:d5:a7:ab:14:43:ce:e2:83:f6:40:
                    89:4f:56:7e:e8:7c:52:89:d5:47:a1:a6:63:fb:6f:
                    78:1d:f6:4e:3a:a3:42:c6:f0:bf:8e:6c:79:41:95:
                    4a:79:68:23:bc:f0:a4:57:ca:29:10:00:29:9c:73:
                    c0:85:65:1c:76:94:3b:f7:6a:16:d9:d0:c0:19:18:
                    20:1f:28:1c:77:14:e7:60:90:c9:c3:78:ed:25:33:
                    d2:21:22:15:83:bd:fc:dd:16:f5:3f:cc:cf:9a:f0:
                    e7:1f:3a:bb:1a:d5:47:a4:6d:4e:d7:11:42:42:b6:
                    67:e3:d8:ed:61:7c:47:0d:3b:08:57:88:1b:b8:94:
                    cf:6a:57:c9:da:d0:54:8c:49:5c:a8:d3:1d:88:fd:
                    6b:f8:71:de:22:2e:1b:98:37:2b:02:a8:24:e8:6f:
                    05:94:ac:48:97:3e:97:8e:09:22:38:6d:86:6a:58:
                    e8:a0:13:6d:54:0b:3f:8e:51:f2:dc:f1:e5:3e:d2:
                    bf:21:bb:9c:fb:28:aa:bf:bf:78:03:23:76:60:fd:
                    22:49:fb:92:7e:1c:a8:e8:be:a6:c2:30:c3:84:3c:
                    80:c5:10:46:9f:b2:85:68:00:14:8a:84:55:87:3d:
                    a9:17:3f:dd:87:81:e8:f6:d6:de:3e:8d:65:06:28:
                    ce:39:43:0d:df:58:a5:b5:52:c3:d9:24:a8:78:46:
                    cf:f8:47:5c:60:e3:d4:d7:53:66:26:a2:e4:26:ce:
                    99:70:46:b6:c4:6f:0f:c9:ac:53:7b:13:93:0c:ff:
                    fb:6d:90:ce:ee:8d:a6:4f:a9:3a:60:c8:89:41:d2:
                    9a:84:f5
                Exponent: 65537 (0x10001)
        X509v3 extensions:
            X509v3 Basic Constraints: 
                CA:FALSE
            Netscape Comment: 
                Easy-RSA Generated Certificate
            X509v3 Subject Key Identifier: 
                21:10:5A:D6:17:95:83:6B:E9:97:4F:F5:04:5F:42:8D:A4:74:7F:6E
            X509v3 Authority Key Identifier: 
                keyid:12:CD:60:04:D2:A0:80:9E:70:ED:C6:99:B8:7B:2C:C6:52:FD:19:A1
                DirName:/C=US/ST=OH/L=Columbus/O=VikingVPN/OU=MyOrganizationalUnit/CN=VikingVPN CA/name=EasyRSA/emailAddress=me@myhost.mydomain
                serial:CF:35:85:EE:80:BF:2A:3E

            X509v3 Extended Key Usage: 
                TLS Web Client Authentication
            X509v3 Key Usage: 
                Digital Signature
    Signature Algorithm: sha256WithRSAEncryption
         88:28:c9:48:33:44:03:99:53:83:26:13:d8:12:55:73:ba:6c:
         58:6d:48:49:a9:ee:7f:fb:04:22:cf:b4:07:4b:0b:11:c5:28:
         15:a6:87:33:a8:c8:5a:09:f9:c2:4b:ac:b7:ef:c1:78:28:f6:
         09:a9:43:fa:a5:a8:7e:87:79:00:b0:e9:db:f0:1d:89:88:dd:
         78:36:2a:58:26:5d:9a:1d:37:6c:b7:db:68:7f:23:d2:1f:9a:
         03:16:38:71:c2:e1:09:5b:5a:33:16:c7:b7:b6:aa:df:64:54:
         a5:f0:4e:84:bd:e2:2c:fb:08:d2:2d:41:29:ed:bb:b8:6a:1e:
         39:be:fa:a7:e7:94:bf:f5:5b:30:68:cd:f8:10:b0:34:58:59:
         71:b1:c8:9f:75:cb:b1:1c:75:83:39:3b:cf:25:8f:03:d2:66:
         9b:3a:07:3e:7b:7d:ae:e0:09:f3:91:49:87:cb:14:d9:62:c4:
         b1:ea:15:f0:6e:4f:15:f5:e4:dd:f5:ed:3f:0d:60:a9:28:68:
         20:05:fc:a7:74:ba:a4:06:fa:95:a0:23:d7:6f:30:f9:5a:d0:
         45:57:31:0e:72:d6:1a:c7:48:80:76:b9:59:17:0d:f7:87:ab:
         92:03:e5:94:81:68:29:0a:8e:d9:e9:53:2b:3d:d0:a8:ae:fc:
         cd:46:60:2c:a1:c7:fd:f3:f6:b4:ae:ae:ea:97:cb:dc:94:c6:
         2c:30:e9:46:83:d2:03:b4:7a:f2:05:7e:55:d8:4b:b3:be:d5:
         29:f7:c5:46:9c:39:bc:69:25:88:bc:0a:5c:de:61:06:ed:d6:
         1e:4a:84:65:14:db:2a:28:63:83:ef:9b:3d:7e:8f:0c:1f:62:
         f6:67:55:ba:fa:d9:48:64:d6:0d:e2:ee:c7:e1:fe:5d:e5:5d:
         83:d4:e1:09:f2:61:71:04:18:42:02:4c:33:11:e8:58:d8:26:
         56:6e:71:0e:28:63:5b:3c:80:1a:98:22:9a:10:9b:a7:f5:7c:
         b1:3b:b8:40:48:59:d3:30:a8:ea:de:ed:8f:22:e5:b4:ff:72:
         d4:cd:e6:e6:ab:5f:77:0e:03:b5:96:5c:9d:cf:a6:30:b4:f3:
         90:0e:ba:70:26:16:16:84:fe:b1:0a:a3:92:e9:58:84:3b:68:
         dd:f9:a5:be:9c:a5:54:57:1c:b5:d6:ed:10:4d:6a:af:21:a5:
         7c:55:9c:3e:63:41:36:aa:f1:2f:30:75:6b:74:5a:86:7a:72:
         64:e3:82:5c:36:64:4d:e0:07:7d:fa:ed:94:90:3d:fd:02:29:
         7c:e8:a6:89:ff:f9:3c:8d:77:3f:94:62:66:3d:81:63:a0:18:
         41:79:a0:a7:75:60:16:4d
-----BEGIN CERTIFICATE-----
MIIGrTCCBJWgAwIBAgICLCUwDQYJKoZIhvcNAQELBQAwgawxCzAJBgNVBAYTAlVT
MQswCQYDVQQIEwJPSDERMA8GA1UEBxMIQ29sdW1idXMxEjAQBgNVBAoTCVZpa2lu
Z1ZQTjEdMBsGA1UECxMUTXlPcmdhbml6YXRpb25hbFVuaXQxFTATBgNVBAMTDFZp
a2luZ1ZQTiBDQTEQMA4GA1UEKRMHRWFzeVJTQTEhMB8GCSqGSIb3DQEJARYSbWVA
bXlob3N0Lm15ZG9tYWluMB4XDTE3MDcxMDAyNDIwNVoXDTI3MDcwODAyNDIwNVow
HzEdMBsGA1UEAxMUQ2xpZW50Mjk4N0NlcnQ0NjY3MTEwggIiMA0GCSqGSIb3DQEB
AQUAA4ICDwAwggIKAoICAQC4IzcKVrkCqsKMtrh+OQvYcB9cDUcX5PDkoyeTWBr6
9SuDnKPyW47lYbAZZKqO0w5mj11AvVA7A8TGR8eu6G4X8NvMt8/8tESPsGIUbDzf
XxN0hynWNa05yHBmRrvYfptaOEBwAl5yyjTUuYMkmgx9FP+u5G+h+vZQiCWYir6w
JuPYG7f0HCReEFpi6LtrgXmCvpc5VWTih9pngVsuaHcGlsyjS01CZhJLY6WWu3aY
2UlssltS3N4YskGst7MgKQQImJtLUMWY1aerFEPO4oP2QIlPVn7ofFKJ1UehpmP7
b3gd9k46o0LG8L+ObHlBlUp5aCO88KRXyikQACmcc8CFZRx2lDv3ahbZ0MAZGCAf
KBx3FOdgkMnDeO0lM9IhIhWDvfzdFvU/zM+a8OcfOrsa1UekbU7XEUJCtmfj2O1h
fEcNOwhXiBu4lM9qV8na0FSMSVyo0x2I/Wv4cd4iLhuYNysCqCTobwWUrEiXPpeO
CSI4bYZqWOigE21UCz+OUfLc8eU+0r8hu5z7KKq/v3gDI3Zg/SJJ+5J+HKjovqbC
MMOEPIDFEEafsoVoABSKhFWHPakXP92Hgej21t4+jWUGKM45Qw3fWKW1UsPZJKh4
Rs/4R1xg49TXU2YmouQmzplwRrbEbw/JrFN7E5MM//ttkM7ujaZPqTpgyIlB0pqE
9QIDAQABo4IBYzCCAV8wCQYDVR0TBAIwADAtBglghkgBhvhCAQ0EIBYeRWFzeS1S
U0EgR2VuZXJhdGVkIENlcnRpZmljYXRlMB0GA1UdDgQWBBQhEFrWF5WDa+mXT/UE
X0KNpHR/bjCB4QYDVR0jBIHZMIHWgBQSzWAE0qCAnnDtxpm4eyzGUv0ZoaGBsqSB
rzCBrDELMAkGA1UEBhMCVVMxCzAJBgNVBAgTAk9IMREwDwYDVQQHEwhDb2x1bWJ1
czESMBAGA1UEChMJVmlraW5nVlBOMR0wGwYDVQQLExRNeU9yZ2FuaXphdGlvbmFs
VW5pdDEVMBMGA1UEAxMMVmlraW5nVlBOIENBMRAwDgYDVQQpEwdFYXN5UlNBMSEw
HwYJKoZIhvcNAQkBFhJtZUBteWhvc3QubXlkb21haW6CCQDPNYXugL8qPjATBgNV
HSUEDDAKBggrBgEFBQcDAjALBgNVHQ8EBAMCB4AwDQYJKoZIhvcNAQELBQADggIB
AIgoyUgzRAOZU4MmE9gSVXO6bFhtSEmp7n/7BCLPtAdLCxHFKBWmhzOoyFoJ+cJL
rLfvwXgo9gmpQ/qlqH6HeQCw6dvwHYmI3Xg2KlgmXZodN2y322h/I9IfmgMWOHHC
4QlbWjMWx7e2qt9kVKXwToS94iz7CNItQSntu7hqHjm++qfnlL/1WzBozfgQsDRY
WXGxyJ91y7EcdYM5O88ljwPSZps6Bz57fa7gCfORSYfLFNlixLHqFfBuTxX15N31
7T8NYKkoaCAF/Kd0uqQG+pWgI9dvMPla0EVXMQ5y1hrHSIB2uVkXDfeHq5ID5ZSB
aCkKjtnpUys90Kiu/M1GYCyhx/3z9rSuruqXy9yUxiww6UaD0gO0evIFflXYS7O+
1Sn3xUacObxpJYi8ClzeYQbt1h5KhGUU2yooY4Pvmz1+jwwfYvZnVbr62Uhk1g3i
7sfh/l3lXYPU4QnyYXEEGEICTDMR6FjYJlZucQ4oY1s8gBqYIpoQm6f1fLE7uEBI
WdMwqOre7Y8i5bT/ctTN5uarX3cOA7WWXJ3PpjC085AOunAmFhaE/rEKo5LpWIQ7
aN35pb6cpVRXHLXW7RBNaq8hpXxVnD5jQTaq8S8wdWt0WoZ6cmTjglw2ZE3gB336
7ZSQPf0CKXzopon/+TyNdz+UYmY9gWOgGEF5oKd1YBZN
-----END CERTIFICATE-----
