Certificate:
    Data:
        Version: 3 (0x2)
        Serial Number: 11317 (0x2c35)
    Signature Algorithm: sha256WithRSAEncryption
        Issuer: C=US, ST=OH, L=Columbus, O=VikingVPN, OU=MyOrganizationalUnit, CN=VikingVPN CA/name=EasyRSA/emailAddress=me@myhost.mydomain
        Validity
            Not Before: Jul 13 20:33:14 2017 GMT
            Not After : Jul 11 20:33:14 2027 GMT
        Subject: CN=Client2991Certc9a552
        Subject Public Key Info:
            Public Key Algorithm: rsaEncryption
                Public-Key: (4096 bit)
                Modulus:
                    00:c5:51:28:f9:cb:63:19:dd:3d:e0:75:71:1d:ad:
                    81:b3:f2:20:4f:5a:20:ec:93:8d:39:3d:60:10:8d:
                    50:25:40:3c:02:13:3f:81:2a:83:02:75:c0:73:50:
                    ef:47:c3:37:25:e4:f2:3d:41:b2:b4:b0:0f:e8:1a:
                    f5:ed:ec:64:80:8c:23:a2:79:99:72:24:17:a9:ce:
                    9c:bf:4b:56:4c:84:8e:1e:23:5a:15:1f:01:48:00:
                    0e:e1:35:47:77:32:26:0e:f9:ea:ba:2c:38:d1:fb:
                    fc:fa:1a:84:2b:5d:33:02:3c:a0:8d:75:3b:94:0e:
                    38:5e:d7:22:2e:e4:ad:4c:d4:1b:14:9a:a3:87:a7:
                    67:96:d5:d3:32:9e:fd:c9:f3:e3:9c:45:73:7e:e0:
                    8b:ed:40:ca:eb:77:1d:e9:68:dc:b1:30:4d:e9:cd:
                    c8:27:71:01:7a:79:0e:39:42:88:d1:3c:23:19:25:
                    69:39:f9:b3:3a:ff:7b:57:c4:c7:b2:5a:3e:73:3a:
                    b7:19:e7:cc:7a:0e:50:19:4f:e4:82:9f:5c:b8:f7:
                    a1:a4:13:4d:e2:31:93:be:83:f0:b9:b2:b6:98:6c:
                    38:33:de:ea:36:c3:a1:cd:5a:ad:2e:c1:1f:03:e4:
                    c4:0d:e7:47:24:54:6e:18:7e:9b:e0:c1:b1:9c:bc:
                    6e:83:dc:32:3b:71:c1:e3:39:bf:36:3b:d1:16:c3:
                    37:82:3d:a3:99:d8:72:b1:16:1a:e6:5e:4b:3a:28:
                    8d:41:45:71:d1:8f:1e:37:e2:23:61:69:e0:ba:2d:
                    f3:16:29:ff:51:a3:14:85:4b:87:86:af:77:62:bc:
                    b9:6d:3a:59:03:1d:97:5d:4d:3c:49:1d:99:1d:c1:
                    87:fc:38:da:68:17:29:bc:66:15:01:59:32:5c:a1:
                    5e:5b:9c:a0:11:82:fc:65:7f:91:2d:05:c2:31:6d:
                    02:f9:bd:0a:4a:0e:87:dc:7e:e7:46:1c:6b:b9:4d:
                    94:a4:36:03:5c:83:08:38:41:f7:9e:8a:6c:73:87:
                    c5:db:90:48:b4:96:22:c2:11:20:27:c6:16:7e:fc:
                    6a:5f:bb:e9:55:d0:f7:e9:73:ad:28:08:e6:5d:7b:
                    af:d6:29:d8:8b:5c:48:9d:a8:fb:2a:01:ef:c1:95:
                    d6:60:fd:15:b3:ea:cd:1d:c3:7e:ec:30:03:79:b6:
                    8e:f0:82:5c:d2:0e:8f:b8:bf:15:49:c7:ab:80:77:
                    59:5e:76:a1:fc:5e:55:4f:2b:71:53:29:04:33:a6:
                    7d:44:9d:d0:75:e9:cc:d8:8c:ac:4c:08:a3:72:eb:
                    b5:ee:32:9b:e2:39:c3:4c:5a:2e:7f:f5:50:a9:07:
                    41:1f:97
                Exponent: 65537 (0x10001)
        X509v3 extensions:
            X509v3 Basic Constraints: 
                CA:FALSE
            Netscape Comment: 
                Easy-RSA Generated Certificate
            X509v3 Subject Key Identifier: 
                0F:B3:40:E8:FB:35:53:93:7E:2B:4F:A4:3B:4C:CB:75:CF:94:67:7A
            X509v3 Authority Key Identifier: 
                keyid:12:CD:60:04:D2:A0:80:9E:70:ED:C6:99:B8:7B:2C:C6:52:FD:19:A1
                DirName:/C=US/ST=OH/L=Columbus/O=VikingVPN/OU=MyOrganizationalUnit/CN=VikingVPN CA/name=EasyRSA/emailAddress=me@myhost.mydomain
                serial:CF:35:85:EE:80:BF:2A:3E

            X509v3 Extended Key Usage: 
                TLS Web Client Authentication
            X509v3 Key Usage: 
                Digital Signature
    Signature Algorithm: sha256WithRSAEncryption
         a7:a4:91:01:65:ce:e1:4a:10:59:d8:c4:f2:20:2c:87:1f:bd:
         34:a1:d9:41:f5:ff:a1:7b:5b:cf:0e:1a:b7:11:b2:f0:dd:51:
         bb:ee:fc:65:54:d4:cb:e7:ae:8a:c5:25:b1:cd:3c:1c:66:0f:
         59:8d:8d:8e:94:67:13:e2:41:90:e3:d2:7e:fe:71:75:37:8a:
         68:3b:f3:20:5f:41:c5:f1:2a:21:48:c6:07:4f:fa:97:eb:b5:
         a6:13:98:12:9c:de:8a:de:9b:d0:b6:78:11:9f:d8:73:72:8b:
         8a:20:69:28:6a:7d:2a:5a:c0:53:88:fd:2b:49:4e:5b:0c:9d:
         14:7e:cc:62:65:34:bf:d5:d4:22:4c:f0:07:29:fd:27:6f:1c:
         ee:55:6e:70:01:cd:d1:92:18:e9:73:82:c5:c3:8b:98:72:db:
         e0:d4:c0:f5:0d:95:5c:8d:50:87:33:ed:e5:0d:6d:29:5e:0c:
         94:b6:c6:bc:24:a0:1e:5b:b6:4e:b4:57:7e:25:13:49:d4:02:
         f5:57:8c:af:86:a3:3b:ef:ae:b0:9e:f8:86:b0:d0:68:ff:65:
         fc:e5:aa:11:f8:c4:42:01:27:41:85:63:65:22:26:fb:32:28:
         0d:9d:1c:6a:6a:e0:65:e5:67:5e:9d:10:f2:03:34:b8:23:08:
         67:61:39:2b:48:4c:51:2b:70:e3:66:bb:14:3f:6d:48:63:4b:
         86:c1:27:cb:de:74:9d:04:97:3e:09:f0:ac:71:4d:11:cc:e3:
         1a:c1:4b:fc:7a:8b:34:f5:97:2b:86:1e:c7:13:85:b6:0a:49:
         3d:bb:e9:63:e4:dd:a4:f5:e5:f6:44:ea:70:24:d9:a8:e1:3b:
         38:1f:4e:3e:87:7e:bf:a2:22:27:b2:1d:13:8d:e6:95:e3:81:
         2d:ef:94:c4:9a:97:23:a5:40:0c:15:02:f7:52:49:1e:0d:12:
         5b:13:88:0f:5d:79:99:be:ed:b1:a8:82:65:37:26:0d:2c:21:
         1d:d4:82:f8:cf:59:25:da:53:83:dd:3a:aa:16:8a:37:f1:a4:
         9f:5c:bb:8d:c7:f0:18:fb:46:1e:76:fd:60:1c:ae:69:58:99:
         44:c3:0a:69:e5:57:6f:40:a7:e7:05:7b:ab:41:63:92:b6:ad:
         8d:80:f5:b9:6e:83:63:08:3b:97:0f:ef:3e:06:42:80:e1:2e:
         b4:48:08:bb:32:68:01:5d:33:39:6f:03:50:f7:4e:c6:cf:34:
         23:af:c8:32:a8:26:d2:eb:af:b8:c7:43:21:c4:9c:39:95:c9:
         00:35:3f:81:b0:e6:29:3f:18:bb:c7:f9:e7:2f:1c:c1:6b:6e:
         29:ca:0b:5d:d6:bb:66:85
-----BEGIN CERTIFICATE-----
MIIGrTCCBJWgAwIBAgICLDUwDQYJKoZIhvcNAQELBQAwgawxCzAJBgNVBAYTAlVT
MQswCQYDVQQIEwJPSDERMA8GA1UEBxMIQ29sdW1idXMxEjAQBgNVBAoTCVZpa2lu
Z1ZQTjEdMBsGA1UECxMUTXlPcmdhbml6YXRpb25hbFVuaXQxFTATBgNVBAMTDFZp
a2luZ1ZQTiBDQTEQMA4GA1UEKRMHRWFzeVJTQTEhMB8GCSqGSIb3DQEJARYSbWVA
bXlob3N0Lm15ZG9tYWluMB4XDTE3MDcxMzIwMzMxNFoXDTI3MDcxMTIwMzMxNFow
HzEdMBsGA1UEAxMUQ2xpZW50Mjk5MUNlcnRjOWE1NTIwggIiMA0GCSqGSIb3DQEB
AQUAA4ICDwAwggIKAoICAQDFUSj5y2MZ3T3gdXEdrYGz8iBPWiDsk405PWAQjVAl
QDwCEz+BKoMCdcBzUO9Hwzcl5PI9QbK0sA/oGvXt7GSAjCOieZlyJBepzpy/S1ZM
hI4eI1oVHwFIAA7hNUd3MiYO+eq6LDjR+/z6GoQrXTMCPKCNdTuUDjhe1yIu5K1M
1BsUmqOHp2eW1dMynv3J8+OcRXN+4IvtQMrrdx3paNyxME3pzcgncQF6eQ45QojR
PCMZJWk5+bM6/3tXxMeyWj5zOrcZ58x6DlAZT+SCn1y496GkE03iMZO+g/C5sraY
bDgz3uo2w6HNWq0uwR8D5MQN50ckVG4YfpvgwbGcvG6D3DI7ccHjOb82O9EWwzeC
PaOZ2HKxFhrmXks6KI1BRXHRjx434iNhaeC6LfMWKf9RoxSFS4eGr3divLltOlkD
HZddTTxJHZkdwYf8ONpoFym8ZhUBWTJcoV5bnKARgvxlf5EtBcIxbQL5vQpKDofc
fudGHGu5TZSkNgNcgwg4Qfeeimxzh8XbkEi0liLCESAnxhZ+/Gpfu+lV0Pfpc60o
COZde6/WKdiLXEidqPsqAe/BldZg/RWz6s0dw37sMAN5to7wglzSDo+4vxVJx6uA
d1ledqH8XlVPK3FTKQQzpn1EndB16czYjKxMCKNy67XuMpviOcNMWi5/9VCpB0Ef
lwIDAQABo4IBYzCCAV8wCQYDVR0TBAIwADAtBglghkgBhvhCAQ0EIBYeRWFzeS1S
U0EgR2VuZXJhdGVkIENlcnRpZmljYXRlMB0GA1UdDgQWBBQPs0Do+zVTk34rT6Q7
TMt1z5RnejCB4QYDVR0jBIHZMIHWgBQSzWAE0qCAnnDtxpm4eyzGUv0ZoaGBsqSB
rzCBrDELMAkGA1UEBhMCVVMxCzAJBgNVBAgTAk9IMREwDwYDVQQHEwhDb2x1bWJ1
czESMBAGA1UEChMJVmlraW5nVlBOMR0wGwYDVQQLExRNeU9yZ2FuaXphdGlvbmFs
VW5pdDEVMBMGA1UEAxMMVmlraW5nVlBOIENBMRAwDgYDVQQpEwdFYXN5UlNBMSEw
HwYJKoZIhvcNAQkBFhJtZUBteWhvc3QubXlkb21haW6CCQDPNYXugL8qPjATBgNV
HSUEDDAKBggrBgEFBQcDAjALBgNVHQ8EBAMCB4AwDQYJKoZIhvcNAQELBQADggIB
AKekkQFlzuFKEFnYxPIgLIcfvTSh2UH1/6F7W88OGrcRsvDdUbvu/GVU1MvnrorF
JbHNPBxmD1mNjY6UZxPiQZDj0n7+cXU3img78yBfQcXxKiFIxgdP+pfrtaYTmBKc
3orem9C2eBGf2HNyi4ogaShqfSpawFOI/StJTlsMnRR+zGJlNL/V1CJM8Acp/Sdv
HO5VbnABzdGSGOlzgsXDi5hy2+DUwPUNlVyNUIcz7eUNbSleDJS2xrwkoB5btk60
V34lE0nUAvVXjK+GozvvrrCe+Iaw0Gj/ZfzlqhH4xEIBJ0GFY2UiJvsyKA2dHGpq
4GXlZ16dEPIDNLgjCGdhOStITFErcONmuxQ/bUhjS4bBJ8vedJ0Elz4J8KxxTRHM
4xrBS/x6izT1lyuGHscThbYKST276WPk3aT15fZE6nAk2ajhOzgfTj6Hfr+iIiey
HRON5pXjgS3vlMSalyOlQAwVAvdSSR4NElsTiA9deZm+7bGogmU3Jg0sIR3UgvjP
WSXaU4PdOqoWijfxpJ9cu43H8Bj7Rh52/WAcrmlYmUTDCmnlV29Ap+cFe6tBY5K2
rY2A9blug2MIO5cP7z4GQoDhLrRICLsyaAFdMzlvA1D3TsbPNCOvyDKoJtLrr7jH
QyHEnDmVyQA1P4Gw5ik/GLvH+ecvHMFrbinKC13Wu2aF
-----END CERTIFICATE-----
