Certificate:
    Data:
        Version: 3 (0x2)
        Serial Number: 11346 (0x2c52)
    Signature Algorithm: sha256WithRSAEncryption
        Issuer: C=US, ST=OH, L=Columbus, O=VikingVPN, OU=MyOrganizationalUnit, CN=VikingVPN CA/name=EasyRSA/emailAddress=me@myhost.mydomain
        Validity
            Not Before: Jul 17 03:02:21 2017 GMT
            Not After : Jul 15 03:02:21 2027 GMT
        Subject: CN=Client1669Cert06573c
        Subject Public Key Info:
            Public Key Algorithm: rsaEncryption
                Public-Key: (4096 bit)
                Modulus:
                    00:a5:0d:e8:82:6e:72:08:74:f5:77:c2:90:f9:95:
                    61:60:e8:b8:bf:af:1c:93:6c:b3:ff:0f:c5:9e:56:
                    a0:45:92:21:ba:3e:bd:c0:78:9d:72:19:c1:8a:74:
                    00:d7:9b:38:00:33:71:b6:db:e0:45:e1:18:75:57:
                    5f:12:d4:cc:73:87:7a:d4:fb:0f:7d:6f:16:5d:11:
                    4f:36:88:07:e1:41:b0:74:83:4c:13:ce:68:49:d3:
                    84:92:fc:1b:fa:57:d1:c4:fb:50:12:e9:dd:8f:ea:
                    6b:05:38:95:4f:26:fc:d6:66:a5:4e:17:58:af:90:
                    0c:f9:fe:9c:18:50:11:10:bc:d0:f8:40:99:dd:03:
                    1a:c7:22:1f:60:5d:2d:31:2b:5f:21:d3:69:ad:9d:
                    5d:0f:9b:b5:c2:19:ba:f4:ab:aa:73:2c:ee:55:af:
                    af:94:3e:70:49:8c:91:ee:f9:3a:1b:03:d2:45:2d:
                    38:3e:c2:77:72:9d:2d:34:64:b4:42:8a:82:22:1a:
                    ba:68:ea:2e:27:e8:5f:82:60:4e:fd:3c:a3:e0:25:
                    66:42:91:81:9e:3d:18:c0:6c:ce:2b:49:6e:d7:9d:
                    26:fb:8e:36:6f:5e:0b:a9:93:1b:4a:98:57:43:09:
                    b0:70:be:d6:aa:38:2a:8b:b4:aa:bd:97:1f:3c:53:
                    0e:18:a5:5c:da:69:ad:7b:8f:9a:c7:db:68:91:11:
                    08:50:26:2f:db:03:4b:36:c6:c4:40:70:2d:1f:35:
                    77:a9:84:6e:4f:1e:a3:34:7c:c1:ec:33:f8:3c:82:
                    10:82:5d:70:ad:72:26:4f:cf:5f:9d:dd:c5:66:e9:
                    51:ee:93:22:da:5c:06:48:bd:27:04:c2:4e:cc:da:
                    e8:ab:22:32:d2:bf:b6:b6:d1:f4:60:df:c0:8d:45:
                    b8:f5:6f:36:b4:2b:8f:b0:66:ce:d0:97:33:90:30:
                    4b:39:1a:fe:26:0b:41:a1:fc:89:af:e7:3f:c8:10:
                    c0:7c:5c:12:94:86:1f:9c:13:7e:0f:00:e9:07:be:
                    25:07:fb:54:3f:6e:5e:a6:1f:9d:b4:bb:1d:d8:5b:
                    c9:d7:f2:a9:e4:78:bc:32:18:2f:07:66:8f:a4:0e:
                    ef:2b:3b:13:bc:9a:6b:0b:d4:6d:58:7d:23:bb:58:
                    f8:4f:c9:20:e8:7d:3f:43:3f:22:d5:f7:a3:58:cc:
                    06:aa:73:bc:c7:37:29:46:25:12:c2:f8:d2:cd:ec:
                    ca:6c:5e:e3:a2:2a:1b:d3:1a:be:24:f4:77:87:de:
                    32:b7:01:64:a4:a7:78:d9:4c:75:18:57:b0:0c:0d:
                    b1:37:72:78:8c:0a:ec:be:3f:95:8f:e5:db:0f:0d:
                    6f:20:77
                Exponent: 65537 (0x10001)
        X509v3 extensions:
            X509v3 Basic Constraints: 
                CA:FALSE
            Netscape Comment: 
                Easy-RSA Generated Certificate
            X509v3 Subject Key Identifier: 
                6B:2C:93:DC:8F:59:BB:6B:71:16:04:FB:BE:2F:A6:81:0D:BE:51:35
            X509v3 Authority Key Identifier: 
                keyid:12:CD:60:04:D2:A0:80:9E:70:ED:C6:99:B8:7B:2C:C6:52:FD:19:A1
                DirName:/C=US/ST=OH/L=Columbus/O=VikingVPN/OU=MyOrganizationalUnit/CN=VikingVPN CA/name=EasyRSA/emailAddress=me@myhost.mydomain
                serial:CF:35:85:EE:80:BF:2A:3E

            X509v3 Extended Key Usage: 
                TLS Web Client Authentication
            X509v3 Key Usage: 
                Digital Signature
    Signature Algorithm: sha256WithRSAEncryption
         be:48:1a:79:3d:a1:02:a9:05:06:ea:83:c2:3b:44:26:9c:c8:
         15:17:4f:ab:61:4c:13:0b:34:8a:c8:0b:e4:d6:33:1b:1a:89:
         9b:37:bf:a1:70:f9:1f:12:85:6e:80:8e:be:d9:d5:c1:bd:8f:
         d3:83:0c:81:5c:7c:23:e1:9c:1d:03:0a:4b:47:6e:e4:2e:76:
         bb:9d:bb:77:58:07:21:a3:47:04:b6:8b:b0:e3:4b:42:6e:ec:
         41:72:1d:42:b9:56:54:5c:6a:4d:58:61:5c:ff:9d:fb:7d:a2:
         9f:8e:9c:0a:87:a2:7b:f8:d4:9a:1e:f8:12:6f:26:db:69:96:
         28:48:b9:db:ff:fe:a7:5d:67:0e:4b:eb:15:e3:38:87:22:6a:
         92:78:e7:3e:8c:6a:5d:5a:84:ec:5a:7f:a5:b8:35:d3:27:84:
         80:f4:c2:f1:9d:6e:56:9a:2b:33:07:d9:23:80:07:b8:b0:c5:
         de:55:81:7e:92:f7:7c:79:20:a9:2c:09:0a:fb:46:23:7b:17:
         59:41:e5:82:be:37:13:86:e3:ab:a4:23:17:f1:c2:7d:f0:37:
         f0:e9:27:87:f3:a8:1b:9c:dc:13:95:eb:7b:e0:61:0b:a2:2b:
         5d:98:60:a6:ed:9d:58:66:83:32:a2:43:5f:28:55:55:4a:08:
         88:8a:41:0f:be:bc:eb:ca:b2:c3:73:f1:aa:36:68:ea:0b:73:
         a3:f4:c4:34:be:1d:f3:2e:85:a5:3d:15:57:b0:45:3d:e6:f7:
         0d:2f:59:e2:b9:6b:67:60:80:ad:55:77:30:68:25:68:c4:0c:
         9d:9a:58:15:3d:43:ca:76:f8:f3:ab:10:c3:a2:81:4d:ab:6c:
         9d:02:1b:8d:f4:3e:5a:42:05:36:3c:21:44:00:5b:25:8b:79:
         72:9d:d7:c3:3f:5e:bf:47:c5:bf:c7:56:be:bb:1f:fb:72:c7:
         38:73:a5:85:11:fb:52:9f:76:fd:44:57:8e:82:66:51:bb:c7:
         2d:fb:83:ea:9a:45:26:41:9e:92:5a:3e:ac:63:07:70:0e:5a:
         ba:02:ee:70:a0:a4:57:62:03:2d:58:c9:12:2f:36:01:6b:f7:
         54:d0:2e:46:91:b9:be:bb:df:6c:d0:a3:12:2d:bb:0d:7a:e8:
         80:f4:6c:36:3c:54:91:bb:6a:87:82:8d:41:a5:1a:3d:33:ac:
         14:f5:b3:98:9c:16:51:c3:de:34:a8:18:6e:e7:40:c4:0e:94:
         6a:33:d8:ba:8d:d4:5f:63:f6:7e:d0:00:21:61:20:5e:fe:28:
         66:ff:da:24:c2:da:c5:2f:51:b0:89:c0:be:38:90:79:49:9e:
         6c:9f:0e:17:cf:88:9f:2c
-----BEGIN CERTIFICATE-----
MIIGrTCCBJWgAwIBAgICLFIwDQYJKoZIhvcNAQELBQAwgawxCzAJBgNVBAYTAlVT
MQswCQYDVQQIEwJPSDERMA8GA1UEBxMIQ29sdW1idXMxEjAQBgNVBAoTCVZpa2lu
Z1ZQTjEdMBsGA1UECxMUTXlPcmdhbml6YXRpb25hbFVuaXQxFTATBgNVBAMTDFZp
a2luZ1ZQTiBDQTEQMA4GA1UEKRMHRWFzeVJTQTEhMB8GCSqGSIb3DQEJARYSbWVA
bXlob3N0Lm15ZG9tYWluMB4XDTE3MDcxNzAzMDIyMVoXDTI3MDcxNTAzMDIyMVow
HzEdMBsGA1UEAxMUQ2xpZW50MTY2OUNlcnQwNjU3M2MwggIiMA0GCSqGSIb3DQEB
AQUAA4ICDwAwggIKAoICAQClDeiCbnIIdPV3wpD5lWFg6Li/rxyTbLP/D8WeVqBF
kiG6Pr3AeJ1yGcGKdADXmzgAM3G22+BF4Rh1V18S1Mxzh3rU+w99bxZdEU82iAfh
QbB0g0wTzmhJ04SS/Bv6V9HE+1AS6d2P6msFOJVPJvzWZqVOF1ivkAz5/pwYUBEQ
vND4QJndAxrHIh9gXS0xK18h02mtnV0Pm7XCGbr0q6pzLO5Vr6+UPnBJjJHu+Tob
A9JFLTg+wndynS00ZLRCioIiGrpo6i4n6F+CYE79PKPgJWZCkYGePRjAbM4rSW7X
nSb7jjZvXgupkxtKmFdDCbBwvtaqOCqLtKq9lx88Uw4YpVzaaa17j5rH22iREQhQ
Ji/bA0s2xsRAcC0fNXephG5PHqM0fMHsM/g8ghCCXXCtciZPz1+d3cVm6VHukyLa
XAZIvScEwk7M2uirIjLSv7a20fRg38CNRbj1bza0K4+wZs7QlzOQMEs5Gv4mC0Gh
/Imv5z/IEMB8XBKUhh+cE34PAOkHviUH+1Q/bl6mH520ux3YW8nX8qnkeLwyGC8H
Zo+kDu8rOxO8mmsL1G1YfSO7WPhPySDofT9DPyLV96NYzAaqc7zHNylGJRLC+NLN
7MpsXuOiKhvTGr4k9HeH3jK3AWSkp3jZTHUYV7AMDbE3cniMCuy+P5WP5dsPDW8g
dwIDAQABo4IBYzCCAV8wCQYDVR0TBAIwADAtBglghkgBhvhCAQ0EIBYeRWFzeS1S
U0EgR2VuZXJhdGVkIENlcnRpZmljYXRlMB0GA1UdDgQWBBRrLJPcj1m7a3EWBPu+
L6aBDb5RNTCB4QYDVR0jBIHZMIHWgBQSzWAE0qCAnnDtxpm4eyzGUv0ZoaGBsqSB
rzCBrDELMAkGA1UEBhMCVVMxCzAJBgNVBAgTAk9IMREwDwYDVQQHEwhDb2x1bWJ1
czESMBAGA1UEChMJVmlraW5nVlBOMR0wGwYDVQQLExRNeU9yZ2FuaXphdGlvbmFs
VW5pdDEVMBMGA1UEAxMMVmlraW5nVlBOIENBMRAwDgYDVQQpEwdFYXN5UlNBMSEw
HwYJKoZIhvcNAQkBFhJtZUBteWhvc3QubXlkb21haW6CCQDPNYXugL8qPjATBgNV
HSUEDDAKBggrBgEFBQcDAjALBgNVHQ8EBAMCB4AwDQYJKoZIhvcNAQELBQADggIB
AL5IGnk9oQKpBQbqg8I7RCacyBUXT6thTBMLNIrIC+TWMxsaiZs3v6Fw+R8ShW6A
jr7Z1cG9j9ODDIFcfCPhnB0DCktHbuQudrudu3dYByGjRwS2i7DjS0Ju7EFyHUK5
VlRcak1YYVz/nft9op+OnAqHonv41Joe+BJvJttplihIudv//qddZw5L6xXjOIci
apJ45z6Mal1ahOxaf6W4NdMnhID0wvGdblaaKzMH2SOAB7iwxd5VgX6S93x5IKks
CQr7RiN7F1lB5YK+NxOG46ukIxfxwn3wN/DpJ4fzqBuc3BOV63vgYQuiK12YYKbt
nVhmgzKiQ18oVVVKCIiKQQ++vOvKssNz8ao2aOoLc6P0xDS+HfMuhaU9FVewRT3m
9w0vWeK5a2dggK1VdzBoJWjEDJ2aWBU9Q8p2+POrEMOigU2rbJ0CG430PlpCBTY8
IUQAWyWLeXKd18M/Xr9Hxb/HVr67H/tyxzhzpYUR+1Kfdv1EV46CZlG7xy37g+qa
RSZBnpJaPqxjB3AOWroC7nCgpFdiAy1YyRIvNgFr91TQLkaRub6732zQoxItuw16
6ID0bDY8VJG7aoeCjUGlGj0zrBT1s5icFlHD3jSoGG7nQMQOlGoz2LqN1F9j9n7Q
ACFhIF7+KGb/2iTC2sUvUbCJwL44kHlJnmyfDhfPiJ8s
-----END CERTIFICATE-----
