Certificate:
    Data:
        Version: 3 (0x2)
        Serial Number: 11350 (0x2c56)
    Signature Algorithm: sha256WithRSAEncryption
        Issuer: C=US, ST=OH, L=Columbus, O=VikingVPN, OU=MyOrganizationalUnit, CN=VikingVPN CA/name=EasyRSA/emailAddress=me@myhost.mydomain
        Validity
            Not Before: Jul 17 23:31:02 2017 GMT
            Not After : Jul 15 23:31:02 2027 GMT
        Subject: CN=Client2999Certc0680f
        Subject Public Key Info:
            Public Key Algorithm: rsaEncryption
                Public-Key: (4096 bit)
                Modulus:
                    00:d1:5f:93:94:5b:0c:17:d5:fc:d6:99:cf:ee:fb:
                    79:b0:0a:39:68:ae:20:db:5d:96:4a:5e:13:af:e3:
                    af:b5:9c:a0:04:98:36:cb:1e:10:f8:a2:9a:64:4c:
                    a1:18:18:8c:0c:ee:8d:2d:1e:3b:6c:5b:95:1a:8c:
                    66:00:10:b4:e1:7b:b3:22:3a:25:a9:43:01:ed:90:
                    0e:08:77:b2:7e:dc:b7:b8:30:6d:f3:50:c0:78:75:
                    d8:99:a0:05:05:ca:47:ac:08:cb:cc:84:4c:27:d4:
                    0a:56:81:7b:cc:ed:e2:1a:99:8b:02:bc:cf:33:9b:
                    ab:e0:9c:f2:7e:4e:a8:ab:ae:12:b7:74:7a:54:4c:
                    ed:eb:e9:f1:f0:dc:47:03:59:e3:a1:15:6f:86:5a:
                    b5:c3:92:91:12:24:1f:62:3d:94:93:a3:d0:55:6b:
                    94:07:f7:71:56:b9:cb:d2:74:4d:d9:76:81:72:d8:
                    ac:02:bf:e7:94:ae:14:c2:41:08:ed:d1:30:40:77:
                    d3:4d:2a:b3:5a:dc:52:33:ae:bd:ef:3b:2e:25:7b:
                    7c:33:a7:d1:23:d1:de:c6:f9:cb:98:4c:04:f9:da:
                    19:c7:b3:b7:48:a3:65:0f:fb:55:df:b5:a3:25:02:
                    fe:4e:20:58:f0:a4:d0:0b:ff:83:2e:50:b5:1c:42:
                    86:ad:9d:8f:c7:55:b9:30:8c:0f:fa:9b:45:bf:90:
                    ed:21:37:f6:82:ae:31:b0:7d:70:48:f0:45:1e:db:
                    0e:85:0c:37:44:8d:c4:c5:45:a2:89:26:16:1f:53:
                    cb:8b:8a:65:2a:d7:37:94:a7:ce:30:43:8d:03:e6:
                    39:7a:dc:ba:28:d4:6a:2b:94:c3:21:1b:80:7e:0b:
                    45:19:ed:67:b3:1f:fc:57:a8:d2:6f:19:77:19:d7:
                    62:f2:a2:65:33:c9:1f:14:7a:c6:ba:cd:15:d0:2b:
                    89:41:3e:b3:91:63:64:2b:2d:f6:53:0e:e8:95:95:
                    d4:17:41:88:51:c4:9f:c1:ed:87:b3:d9:5d:8d:0a:
                    53:7d:19:e1:ff:96:d5:8d:34:d8:5d:f1:da:3b:f4:
                    39:a7:f6:78:65:3f:49:e9:99:b0:2e:cf:3d:d5:37:
                    01:8d:36:1a:7e:93:ed:95:db:68:bd:a7:18:10:31:
                    c9:42:ab:44:5c:fb:4e:77:78:b6:9c:ad:16:6f:de:
                    13:4b:97:9e:51:1b:de:62:5a:e1:88:2d:7a:ae:07:
                    2c:32:df:9a:d8:2e:57:12:d2:44:78:fe:3c:2e:34:
                    d6:3b:69:46:d1:48:cf:bd:55:e1:7a:5a:62:56:ea:
                    7b:a1:55:89:02:14:42:1f:29:c4:c8:c1:56:94:93:
                    f2:b3:2f
                Exponent: 65537 (0x10001)
        X509v3 extensions:
            X509v3 Basic Constraints: 
                CA:FALSE
            Netscape Comment: 
                Easy-RSA Generated Certificate
            X509v3 Subject Key Identifier: 
                1C:6B:BC:87:ED:E9:39:E0:23:04:46:76:3D:C0:06:CD:18:B4:28:38
            X509v3 Authority Key Identifier: 
                keyid:12:CD:60:04:D2:A0:80:9E:70:ED:C6:99:B8:7B:2C:C6:52:FD:19:A1
                DirName:/C=US/ST=OH/L=Columbus/O=VikingVPN/OU=MyOrganizationalUnit/CN=VikingVPN CA/name=EasyRSA/emailAddress=me@myhost.mydomain
                serial:CF:35:85:EE:80:BF:2A:3E

            X509v3 Extended Key Usage: 
                TLS Web Client Authentication
            X509v3 Key Usage: 
                Digital Signature
    Signature Algorithm: sha256WithRSAEncryption
         4c:dc:ef:f3:9c:43:c9:d4:36:57:a6:a7:10:6f:ec:10:d0:fc:
         2d:e8:31:1e:34:c5:19:3d:a9:6a:35:01:83:d4:04:b9:ab:b8:
         5b:54:d7:3d:df:f3:bf:44:d0:a8:e9:ae:ee:3e:4a:9c:0c:23:
         f8:b7:a1:d2:ec:ec:1d:b9:1f:63:48:64:22:ab:7b:b5:db:2e:
         6c:c6:06:23:62:64:3c:47:6b:8d:2a:10:0f:7d:d1:e0:3f:45:
         29:1c:df:60:0a:cd:0e:bb:6b:d4:3a:45:57:54:0f:90:38:ab:
         24:01:b0:d6:d5:86:85:29:fd:44:ba:e7:54:4f:27:a5:91:39:
         e6:85:c5:ff:7e:b5:83:94:4e:5a:94:3b:f8:92:3f:46:b3:d8:
         55:32:a5:b0:ce:ae:4a:ec:08:53:6a:3d:c6:52:33:18:c2:e8:
         04:fb:54:cd:25:93:1f:71:f0:dc:b6:48:a6:68:72:72:df:c3:
         3b:3e:2d:3d:b0:90:24:77:4b:72:46:fb:c7:79:31:79:7f:7f:
         dd:0f:61:c3:52:dd:83:3e:5f:57:42:21:08:47:c3:ed:ae:63:
         0d:b9:b5:fd:d9:34:42:8b:61:59:6e:c5:1f:f5:b3:b2:c7:75:
         e5:53:3c:ec:3a:39:62:1e:03:83:b1:fb:bb:d1:ef:73:6a:2f:
         a0:6c:8c:d3:b9:17:a4:53:98:96:ed:12:da:df:eb:24:01:7f:
         33:44:49:22:e9:2a:75:62:d6:cb:2c:24:42:4c:6f:31:e1:0a:
         ce:91:13:50:17:47:fa:6c:dc:03:44:dd:b3:1a:bc:ce:54:e1:
         22:87:50:7c:40:36:b0:a8:ec:10:32:df:d8:0b:38:07:9d:50:
         89:c7:e3:58:8f:8f:1b:db:71:7b:c4:14:13:05:e7:78:da:20:
         ec:fc:ca:7b:8f:9c:69:b0:9e:d6:75:52:7a:be:f8:7a:76:11:
         f1:eb:7e:8a:51:b0:b3:99:db:86:b2:37:57:a8:69:36:8d:aa:
         1b:d1:00:9c:2d:8c:9b:9a:94:78:a9:03:90:37:4b:a0:8f:12:
         4b:ca:fb:bf:8b:02:65:e6:b3:75:55:c4:0c:0a:ba:4b:f7:9f:
         02:a3:af:dd:1b:14:51:f2:10:df:e8:76:27:56:06:4c:7c:92:
         41:1f:70:f9:40:88:c6:ee:e2:d9:9a:a9:0d:8d:ca:96:2e:8d:
         63:b0:cc:db:77:1d:1a:83:33:b0:65:7b:d7:fa:ef:1d:98:e3:
         9b:00:cc:09:31:5e:1f:bb:0e:3b:c6:74:71:2f:c2:1c:57:6c:
         1e:46:f3:bf:b0:a1:c3:3d:5f:f1:da:c3:13:06:f8:07:ca:1c:
         b4:2a:64:bb:be:7b:f4:88
-----BEGIN CERTIFICATE-----
MIIGrTCCBJWgAwIBAgICLFYwDQYJKoZIhvcNAQELBQAwgawxCzAJBgNVBAYTAlVT
MQswCQYDVQQIEwJPSDERMA8GA1UEBxMIQ29sdW1idXMxEjAQBgNVBAoTCVZpa2lu
Z1ZQTjEdMBsGA1UECxMUTXlPcmdhbml6YXRpb25hbFVuaXQxFTATBgNVBAMTDFZp
a2luZ1ZQTiBDQTEQMA4GA1UEKRMHRWFzeVJTQTEhMB8GCSqGSIb3DQEJARYSbWVA
bXlob3N0Lm15ZG9tYWluMB4XDTE3MDcxNzIzMzEwMloXDTI3MDcxNTIzMzEwMlow
HzEdMBsGA1UEAxMUQ2xpZW50Mjk5OUNlcnRjMDY4MGYwggIiMA0GCSqGSIb3DQEB
AQUAA4ICDwAwggIKAoICAQDRX5OUWwwX1fzWmc/u+3mwCjloriDbXZZKXhOv46+1
nKAEmDbLHhD4oppkTKEYGIwM7o0tHjtsW5UajGYAELThe7MiOiWpQwHtkA4Id7J+
3Le4MG3zUMB4ddiZoAUFykesCMvMhEwn1ApWgXvM7eIamYsCvM8zm6vgnPJ+Tqir
rhK3dHpUTO3r6fHw3EcDWeOhFW+GWrXDkpESJB9iPZSTo9BVa5QH93FWucvSdE3Z
doFy2KwCv+eUrhTCQQjt0TBAd9NNKrNa3FIzrr3vOy4le3wzp9Ej0d7G+cuYTAT5
2hnHs7dIo2UP+1XftaMlAv5OIFjwpNAL/4MuULUcQoatnY/HVbkwjA/6m0W/kO0h
N/aCrjGwfXBI8EUe2w6FDDdEjcTFRaKJJhYfU8uLimUq1zeUp84wQ40D5jl63Loo
1GorlMMhG4B+C0UZ7WezH/xXqNJvGXcZ12LyomUzyR8Uesa6zRXQK4lBPrORY2Qr
LfZTDuiVldQXQYhRxJ/B7Yez2V2NClN9GeH/ltWNNNhd8do79Dmn9nhlP0npmbAu
zz3VNwGNNhp+k+2V22i9pxgQMclCq0Rc+053eLacrRZv3hNLl55RG95iWuGILXqu
Bywy35rYLlcS0kR4/jwuNNY7aUbRSM+9VeF6WmJW6nuhVYkCFEIfKcTIwVaUk/Kz
LwIDAQABo4IBYzCCAV8wCQYDVR0TBAIwADAtBglghkgBhvhCAQ0EIBYeRWFzeS1S
U0EgR2VuZXJhdGVkIENlcnRpZmljYXRlMB0GA1UdDgQWBBQca7yH7ek54CMERnY9
wAbNGLQoODCB4QYDVR0jBIHZMIHWgBQSzWAE0qCAnnDtxpm4eyzGUv0ZoaGBsqSB
rzCBrDELMAkGA1UEBhMCVVMxCzAJBgNVBAgTAk9IMREwDwYDVQQHEwhDb2x1bWJ1
czESMBAGA1UEChMJVmlraW5nVlBOMR0wGwYDVQQLExRNeU9yZ2FuaXphdGlvbmFs
VW5pdDEVMBMGA1UEAxMMVmlraW5nVlBOIENBMRAwDgYDVQQpEwdFYXN5UlNBMSEw
HwYJKoZIhvcNAQkBFhJtZUBteWhvc3QubXlkb21haW6CCQDPNYXugL8qPjATBgNV
HSUEDDAKBggrBgEFBQcDAjALBgNVHQ8EBAMCB4AwDQYJKoZIhvcNAQELBQADggIB
AEzc7/OcQ8nUNlempxBv7BDQ/C3oMR40xRk9qWo1AYPUBLmruFtU1z3f879E0Kjp
ru4+SpwMI/i3odLs7B25H2NIZCKre7XbLmzGBiNiZDxHa40qEA990eA/RSkc32AK
zQ67a9Q6RVdUD5A4qyQBsNbVhoUp/US651RPJ6WROeaFxf9+tYOUTlqUO/iSP0az
2FUypbDOrkrsCFNqPcZSMxjC6AT7VM0lkx9x8Ny2SKZocnLfwzs+LT2wkCR3S3JG
+8d5MXl/f90PYcNS3YM+X1dCIQhHw+2uYw25tf3ZNEKLYVluxR/1s7LHdeVTPOw6
OWIeA4Ox+7vR73NqL6BsjNO5F6RTmJbtEtrf6yQBfzNESSLpKnVi1sssJEJMbzHh
Cs6RE1AXR/ps3ANE3bMavM5U4SKHUHxANrCo7BAy39gLOAedUInH41iPjxvbcXvE
FBMF53jaIOz8ynuPnGmwntZ1Unq++Hp2EfHrfopRsLOZ24ayN1eoaTaNqhvRAJwt
jJualHipA5A3S6CPEkvK+7+LAmXms3VVxAwKukv3nwKjr90bFFHyEN/odidWBkx8
kkEfcPlAiMbu4tmaqQ2NypYujWOwzNt3HRqDM7Ble9f67x2Y45sAzAkxXh+7DjvG
dHEvwhxXbB5G87+wocM9X/HawxMG+AfKHLQqZLu+e/SI
-----END CERTIFICATE-----
