Certificate:
    Data:
        Version: 3 (0x2)
        Serial Number: 11362 (0x2c62)
    Signature Algorithm: sha256WithRSAEncryption
        Issuer: C=US, ST=OH, L=Columbus, O=VikingVPN, OU=MyOrganizationalUnit, CN=VikingVPN CA/name=EasyRSA/emailAddress=me@myhost.mydomain
        Validity
            Not Before: Jul 20 10:47:14 2017 GMT
            Not After : Jul 18 10:47:14 2027 GMT
        Subject: CN=Client3001Cert6b3050
        Subject Public Key Info:
            Public Key Algorithm: rsaEncryption
                Public-Key: (4096 bit)
                Modulus:
                    00:cf:5c:e9:7c:a7:b7:ab:98:6c:ef:51:d8:95:5a:
                    b2:28:6a:e6:76:e1:fd:10:b5:ef:bf:82:09:ee:38:
                    09:34:d8:d4:09:ed:0d:53:39:07:92:48:42:bf:8c:
                    d0:6c:f7:8c:ca:eb:f7:43:e8:d9:5e:6c:7e:bc:b8:
                    7e:88:58:5d:1b:ab:92:6b:e8:91:c2:e1:89:3b:e6:
                    c6:64:6c:ae:94:8e:0d:32:c0:a8:43:a3:46:24:6a:
                    62:4c:d6:b2:d4:83:b6:49:c0:af:42:4a:5e:7d:f7:
                    14:2c:32:08:1c:a5:a6:94:c2:73:1f:17:85:74:0d:
                    c3:70:7c:83:fa:11:b2:1a:11:c1:af:cf:f2:1b:b6:
                    57:79:91:4f:7d:ec:9c:a6:40:ae:e3:28:8b:a9:3f:
                    c3:e4:29:74:9f:d4:a8:66:cf:48:ad:86:ea:68:f2:
                    9f:c8:ad:c2:0b:04:1d:d6:45:1f:fa:47:1d:3e:d5:
                    82:11:49:0c:89:41:dc:d2:6b:18:c2:bb:3c:e7:f0:
                    33:2e:22:e7:5e:7b:fd:22:c0:8d:8b:47:9f:5c:e0:
                    be:e2:13:76:6b:c7:4b:86:0e:ab:5a:65:df:41:dc:
                    71:3f:bb:c0:9a:b4:60:a8:a0:97:04:ac:3f:74:a3:
                    83:27:05:c5:87:55:94:d0:0e:ae:72:d1:ed:17:0a:
                    64:46:a2:49:eb:39:2c:86:b6:dc:2d:1a:cb:26:68:
                    21:fa:ca:f8:d6:40:e6:8a:79:00:aa:c0:d2:91:d8:
                    cc:54:c1:38:8f:89:0b:28:8b:14:a2:a7:20:13:a8:
                    22:39:30:21:f6:f9:33:5e:14:48:ab:c9:4d:cb:1d:
                    1c:f0:d2:c0:57:46:13:41:b3:a6:1b:0a:0f:7c:78:
                    33:53:ec:a4:c4:3c:bc:bb:b2:ef:0e:68:3e:b0:d6:
                    c6:1f:c3:42:5b:0b:3a:5f:7d:a3:34:2a:3c:e1:91:
                    3e:81:c9:7b:a9:ff:40:13:4c:b8:05:1d:60:8f:21:
                    56:76:00:ee:b5:81:1b:3d:55:91:7d:02:09:47:69:
                    f4:f5:1a:e7:58:4e:3e:aa:fa:8b:a5:03:42:74:79:
                    7e:a7:50:44:92:98:00:68:f4:45:a8:c5:8c:51:ec:
                    ab:e2:9e:b6:66:33:7b:e9:25:e5:43:8f:da:4d:21:
                    a4:0b:d7:6d:01:4a:db:65:8c:f3:df:10:a6:db:f3:
                    38:da:0d:09:ed:73:2d:3d:a4:44:01:58:de:1a:b8:
                    91:a7:80:b2:8a:7e:ef:c5:4f:88:b9:92:9a:57:18:
                    a8:75:ee:e0:c9:08:fe:46:5d:40:66:a4:28:d9:2c:
                    97:70:e7:55:52:27:22:dc:a0:f6:44:1b:a8:11:47:
                    89:08:5f
                Exponent: 65537 (0x10001)
        X509v3 extensions:
            X509v3 Basic Constraints: 
                CA:FALSE
            Netscape Comment: 
                Easy-RSA Generated Certificate
            X509v3 Subject Key Identifier: 
                52:57:F0:EA:B0:96:02:C2:EA:CE:A1:28:BD:59:27:D0:1A:7E:23:32
            X509v3 Authority Key Identifier: 
                keyid:12:CD:60:04:D2:A0:80:9E:70:ED:C6:99:B8:7B:2C:C6:52:FD:19:A1
                DirName:/C=US/ST=OH/L=Columbus/O=VikingVPN/OU=MyOrganizationalUnit/CN=VikingVPN CA/name=EasyRSA/emailAddress=me@myhost.mydomain
                serial:CF:35:85:EE:80:BF:2A:3E

            X509v3 Extended Key Usage: 
                TLS Web Client Authentication
            X509v3 Key Usage: 
                Digital Signature
    Signature Algorithm: sha256WithRSAEncryption
         c5:6a:5b:9b:d5:f3:e7:dd:65:e7:a4:fd:b1:ee:03:a0:e6:b0:
         50:cc:88:1b:60:73:00:b7:98:64:33:aa:cf:ca:98:ad:4e:2f:
         e6:be:30:c5:c3:cf:a9:8b:6c:22:a6:48:57:69:63:10:3c:98:
         2c:f9:c2:ba:8b:63:e9:66:8e:bf:d0:d8:02:ce:66:6b:bf:8a:
         c0:ca:ee:fa:b8:66:d7:a4:95:03:43:85:6b:43:54:45:13:8b:
         38:63:61:a1:2e:59:15:57:f8:27:b7:06:0c:bb:29:66:cf:55:
         62:54:2e:65:be:5f:a1:3b:0b:f0:98:7e:48:14:d3:38:a6:86:
         08:69:f9:43:f7:93:43:54:20:69:e1:71:9f:ec:2a:0d:cb:34:
         6e:19:8e:ed:a7:e2:10:53:9d:04:2a:6e:8d:bd:f9:62:a5:79:
         0e:df:e0:40:d6:17:47:df:82:db:b7:a2:e0:6f:75:df:18:46:
         02:a4:53:ac:d2:f9:cd:88:30:6d:d2:30:82:c5:63:46:04:32:
         41:de:f9:e6:64:9a:35:60:d1:62:a1:a1:23:f7:4c:cc:3c:91:
         64:03:7d:da:4c:07:a7:ee:a6:fe:95:e6:87:8d:a1:1f:77:e4:
         63:d6:26:fb:06:58:53:02:18:a6:96:f0:0f:da:6f:8c:7a:e6:
         de:5c:55:bf:55:35:0f:62:30:c3:3a:ea:23:63:42:d4:b8:9e:
         5e:80:b3:a9:9e:0b:99:8b:cc:ea:7a:a3:a9:05:f0:9f:7c:d8:
         15:ce:ef:45:f7:3f:b5:ca:e1:38:ce:1a:da:2e:28:1e:59:55:
         8c:ca:18:5a:bd:09:3a:0c:b0:2b:1c:42:ba:70:cd:3f:a6:80:
         e8:21:c1:c2:72:cb:b9:4a:ee:ee:a1:a8:5d:c2:6e:b8:ad:ab:
         9f:b0:1b:58:33:d2:86:70:b2:77:d8:92:ce:16:48:64:1c:95:
         56:ad:41:54:be:c4:de:7b:a6:2d:36:c9:6e:d6:5b:cb:19:32:
         80:ab:f3:2f:23:9a:7a:4b:da:29:66:2f:2b:30:ef:92:24:a6:
         1e:c3:23:f6:f9:48:b4:09:0c:eb:f4:e2:7d:8c:98:5a:47:60:
         26:a9:a6:5e:a7:ff:d9:dc:ac:37:1a:99:b7:96:a9:48:d8:e8:
         e8:b5:d8:ef:54:11:ad:25:f3:19:f3:e6:ff:33:5f:25:d1:ad:
         65:a5:2e:c5:a1:1a:27:62:a4:04:c2:1d:77:2c:57:f4:91:bd:
         c2:df:6f:c9:04:a1:08:24:05:5a:34:c1:f3:4b:e3:33:bf:6a:
         1d:7c:d6:ca:bb:fd:79:b2:e4:71:1f:ca:f9:27:87:a5:69:03:
         80:e0:25:32:bd:32:f9:57
-----BEGIN CERTIFICATE-----
MIIGrTCCBJWgAwIBAgICLGIwDQYJKoZIhvcNAQELBQAwgawxCzAJBgNVBAYTAlVT
MQswCQYDVQQIEwJPSDERMA8GA1UEBxMIQ29sdW1idXMxEjAQBgNVBAoTCVZpa2lu
Z1ZQTjEdMBsGA1UECxMUTXlPcmdhbml6YXRpb25hbFVuaXQxFTATBgNVBAMTDFZp
a2luZ1ZQTiBDQTEQMA4GA1UEKRMHRWFzeVJTQTEhMB8GCSqGSIb3DQEJARYSbWVA
bXlob3N0Lm15ZG9tYWluMB4XDTE3MDcyMDEwNDcxNFoXDTI3MDcxODEwNDcxNFow
HzEdMBsGA1UEAxMUQ2xpZW50MzAwMUNlcnQ2YjMwNTAwggIiMA0GCSqGSIb3DQEB
AQUAA4ICDwAwggIKAoICAQDPXOl8p7ermGzvUdiVWrIoauZ24f0Qte+/ggnuOAk0
2NQJ7Q1TOQeSSEK/jNBs94zK6/dD6NlebH68uH6IWF0bq5Jr6JHC4Yk75sZkbK6U
jg0ywKhDo0YkamJM1rLUg7ZJwK9CSl599xQsMggcpaaUwnMfF4V0DcNwfIP6EbIa
EcGvz/Ibtld5kU997JymQK7jKIupP8PkKXSf1Khmz0ithupo8p/IrcILBB3WRR/6
Rx0+1YIRSQyJQdzSaxjCuzzn8DMuIudee/0iwI2LR59c4L7iE3Zrx0uGDqtaZd9B
3HE/u8CatGCooJcErD90o4MnBcWHVZTQDq5y0e0XCmRGoknrOSyGttwtGssmaCH6
yvjWQOaKeQCqwNKR2MxUwTiPiQsoixSipyATqCI5MCH2+TNeFEiryU3LHRzw0sBX
RhNBs6YbCg98eDNT7KTEPLy7su8OaD6w1sYfw0JbCzpffaM0KjzhkT6ByXup/0AT
TLgFHWCPIVZ2AO61gRs9VZF9AglHafT1GudYTj6q+oulA0J0eX6nUESSmABo9EWo
xYxR7KvinrZmM3vpJeVDj9pNIaQL120BSttljPPfEKbb8zjaDQntcy09pEQBWN4a
uJGngLKKfu/FT4i5kppXGKh17uDJCP5GXUBmpCjZLJdw51VSJyLcoPZEG6gRR4kI
XwIDAQABo4IBYzCCAV8wCQYDVR0TBAIwADAtBglghkgBhvhCAQ0EIBYeRWFzeS1S
U0EgR2VuZXJhdGVkIENlcnRpZmljYXRlMB0GA1UdDgQWBBRSV/DqsJYCwurOoSi9
WSfQGn4jMjCB4QYDVR0jBIHZMIHWgBQSzWAE0qCAnnDtxpm4eyzGUv0ZoaGBsqSB
rzCBrDELMAkGA1UEBhMCVVMxCzAJBgNVBAgTAk9IMREwDwYDVQQHEwhDb2x1bWJ1
czESMBAGA1UEChMJVmlraW5nVlBOMR0wGwYDVQQLExRNeU9yZ2FuaXphdGlvbmFs
VW5pdDEVMBMGA1UEAxMMVmlraW5nVlBOIENBMRAwDgYDVQQpEwdFYXN5UlNBMSEw
HwYJKoZIhvcNAQkBFhJtZUBteWhvc3QubXlkb21haW6CCQDPNYXugL8qPjATBgNV
HSUEDDAKBggrBgEFBQcDAjALBgNVHQ8EBAMCB4AwDQYJKoZIhvcNAQELBQADggIB
AMVqW5vV8+fdZeek/bHuA6DmsFDMiBtgcwC3mGQzqs/KmK1OL+a+MMXDz6mLbCKm
SFdpYxA8mCz5wrqLY+lmjr/Q2ALOZmu/isDK7vq4ZteklQNDhWtDVEUTizhjYaEu
WRVX+Ce3Bgy7KWbPVWJULmW+X6E7C/CYfkgU0zimhghp+UP3k0NUIGnhcZ/sKg3L
NG4Zju2n4hBTnQQqbo29+WKleQ7f4EDWF0ffgtu3ouBvdd8YRgKkU6zS+c2IMG3S
MILFY0YEMkHe+eZkmjVg0WKhoSP3TMw8kWQDfdpMB6fupv6V5oeNoR935GPWJvsG
WFMCGKaW8A/ab4x65t5cVb9VNQ9iMMM66iNjQtS4nl6As6meC5mLzOp6o6kF8J98
2BXO70X3P7XK4TjOGtouKB5ZVYzKGFq9CToMsCscQrpwzT+mgOghwcJyy7lK7u6h
qF3Cbritq5+wG1gz0oZwsnfYks4WSGQclVatQVS+xN57pi02yW7WW8sZMoCr8y8j
mnpL2ilmLysw75Ikph7DI/b5SLQJDOv04n2MmFpHYCappl6n/9ncrDcambeWqUjY
6Oi12O9UEa0l8xnz5v8zXyXRrWWlLsWhGidipATCHXcsV/SRvcLfb8kEoQgkBVo0
wfNL4zO/ah181sq7/Xmy5HEfyvknh6VpA4DgJTK9MvlX
-----END CERTIFICATE-----
