Certificate:
    Data:
        Version: 3 (0x2)
        Serial Number: 11370 (0x2c6a)
    Signature Algorithm: sha256WithRSAEncryption
        Issuer: C=US, ST=OH, L=Columbus, O=VikingVPN, OU=MyOrganizationalUnit, CN=VikingVPN CA/name=EasyRSA/emailAddress=me@myhost.mydomain
        Validity
            Not Before: Jul 21 20:08:00 2017 GMT
            Not After : Jul 19 20:08:00 2027 GMT
        Subject: CN=Client2986Certecd043
        Subject Public Key Info:
            Public Key Algorithm: rsaEncryption
                Public-Key: (4096 bit)
                Modulus:
                    00:ca:3a:32:74:e6:75:70:dd:ae:02:52:ad:9c:58:
                    c4:05:a2:4a:cf:4c:1e:df:9b:79:74:b2:c3:26:77:
                    0b:65:cc:7c:bc:6b:31:5f:56:54:fb:49:92:29:87:
                    86:ce:10:87:9c:0f:5a:94:cf:be:c8:68:b9:37:56:
                    17:a8:23:bb:8e:27:04:71:eb:ce:2d:e3:13:7d:15:
                    29:63:d3:65:44:c9:ea:b4:08:5e:d4:82:d2:ba:d6:
                    cc:3b:67:b9:d4:89:96:ce:24:9e:c3:7c:90:9a:4f:
                    98:9c:45:d9:da:d1:11:7d:c0:8a:c0:36:2b:92:43:
                    f7:13:fe:d2:d1:f0:ff:ba:b6:80:74:87:95:86:76:
                    be:00:18:ed:4a:f8:53:d4:db:c0:c1:52:db:f4:48:
                    e2:b2:65:55:40:a9:cb:ae:0d:f8:88:f4:53:ee:77:
                    3a:a0:13:a4:2a:36:24:78:91:8e:75:25:8e:b0:6b:
                    c9:4f:b6:a8:81:b7:37:05:c1:c4:13:33:98:b0:50:
                    6f:c9:b3:99:2a:e8:9a:27:36:6b:e9:ee:68:be:8a:
                    20:ea:4e:ed:cd:d1:48:00:84:9b:9d:12:a7:cf:12:
                    3d:bd:7d:c9:29:64:fa:76:0a:1c:3e:f6:e8:cb:36:
                    c8:65:e8:af:28:61:95:25:05:01:f1:71:41:a0:c8:
                    0d:e7:3c:3a:58:bc:f9:ed:f5:e0:69:3a:c4:73:6a:
                    bf:35:be:2c:45:1a:5f:8f:cc:23:fb:62:16:24:6a:
                    fd:0a:42:1d:00:68:bc:8e:4b:8e:96:b4:81:3f:48:
                    b0:7d:10:de:ed:fb:02:ff:1d:d8:1a:16:a6:ec:aa:
                    d8:46:c1:59:89:4c:61:19:d7:50:9b:7c:b3:0b:ce:
                    47:a9:e4:1a:fd:37:e8:99:b2:9f:c8:a7:8a:8b:62:
                    30:46:a0:1b:0a:f1:27:ed:13:ba:ef:ff:2e:93:6d:
                    da:c1:be:e7:41:e3:33:63:3e:3f:f5:c3:10:2d:48:
                    7c:ba:66:d5:63:9b:27:e7:f1:19:c2:0f:7c:0e:9d:
                    19:c8:0d:63:5d:a2:bd:a9:ff:b1:06:ee:26:ce:c4:
                    33:e7:db:13:9c:9d:1f:bd:b6:2b:25:bf:44:83:6f:
                    ad:f6:15:50:11:bd:2c:9c:d0:05:88:4f:69:a0:29:
                    35:37:62:8f:0c:39:b7:bc:c4:0b:65:c1:d0:24:f8:
                    39:68:16:ba:2e:5d:ef:55:cc:b5:db:4b:c6:e3:4f:
                    a7:f0:09:26:59:ef:5d:8c:c0:30:02:81:0e:1f:8c:
                    10:7e:2b:c4:52:09:3e:d5:af:4e:59:05:b9:84:10:
                    ec:ae:35:fc:3c:fd:f5:76:92:4e:66:64:c2:8f:27:
                    f7:0c:35
                Exponent: 65537 (0x10001)
        X509v3 extensions:
            X509v3 Basic Constraints: 
                CA:FALSE
            Netscape Comment: 
                Easy-RSA Generated Certificate
            X509v3 Subject Key Identifier: 
                CB:C1:60:19:6B:CA:0D:AA:E3:1E:8D:C6:53:F5:31:2C:6F:46:C0:34
            X509v3 Authority Key Identifier: 
                keyid:12:CD:60:04:D2:A0:80:9E:70:ED:C6:99:B8:7B:2C:C6:52:FD:19:A1
                DirName:/C=US/ST=OH/L=Columbus/O=VikingVPN/OU=MyOrganizationalUnit/CN=VikingVPN CA/name=EasyRSA/emailAddress=me@myhost.mydomain
                serial:CF:35:85:EE:80:BF:2A:3E

            X509v3 Extended Key Usage: 
                TLS Web Client Authentication
            X509v3 Key Usage: 
                Digital Signature
    Signature Algorithm: sha256WithRSAEncryption
         3f:b7:ca:65:d3:80:42:3f:21:2a:e7:a2:b0:e4:0f:4d:86:d6:
         a0:22:50:33:82:f5:6a:17:a5:93:52:a2:95:9a:d5:3e:ce:46:
         98:a1:ad:79:c4:6f:7b:0d:87:57:e3:56:91:8c:34:28:c2:6c:
         9d:ad:53:1f:23:89:10:15:34:bf:bb:3a:7e:3d:af:5f:aa:5d:
         20:7d:11:46:58:e7:2a:c6:a4:0e:36:90:36:cf:d2:84:e6:c8:
         43:5f:86:2d:d8:82:7d:45:01:7c:0e:49:33:09:80:5d:e7:c6:
         b9:f1:82:7e:be:96:67:fd:42:74:5e:b1:ef:9b:fc:c6:71:8a:
         0e:c1:df:e4:e8:e2:97:0f:9f:3a:f4:7b:5a:fd:44:3f:69:a7:
         a8:b5:84:24:b4:ff:98:c4:3d:19:50:b8:93:55:1f:e7:7e:c7:
         04:7e:ee:8f:ac:75:41:99:12:8b:d3:71:f8:4b:88:fd:f0:93:
         45:94:18:da:34:8e:1d:9d:43:e9:0d:07:b1:6b:18:20:21:e1:
         12:5f:0e:a9:28:db:ee:15:6f:f6:28:51:21:e7:85:99:d5:37:
         ff:7b:fd:ca:3a:72:c4:0f:45:4e:4c:aa:d5:bc:bd:c5:bd:21:
         86:2d:54:dd:f2:09:19:bb:96:1a:ec:06:f2:3a:78:a9:06:61:
         bd:32:d5:ef:c8:99:93:c4:81:0b:64:68:1f:27:5b:fc:37:5a:
         42:ae:63:a2:36:20:dc:11:f2:5f:22:a2:1e:a0:ef:11:9b:77:
         ca:d6:9c:49:00:41:8c:e0:8c:ca:66:a4:d3:1c:1a:72:18:81:
         21:4a:d9:56:a1:1e:9f:49:1e:8a:31:7f:41:d4:eb:d0:98:14:
         b1:05:99:1c:74:c9:74:a5:32:ca:c6:40:d3:24:0a:79:39:4f:
         42:b0:a9:e6:ad:bd:41:bd:b8:6c:27:c1:22:75:6f:6e:0a:68:
         6a:e4:ae:11:7b:0f:54:55:f0:43:18:52:0c:37:a6:c1:eb:0f:
         cf:dc:d5:08:9c:d9:38:03:4e:f6:96:a1:fb:0a:9b:fe:6e:d3:
         33:e2:33:bf:52:28:d6:f0:71:cd:ed:70:5f:36:3d:c1:da:1f:
         84:4a:ea:7b:79:4f:b4:ad:26:41:08:1a:f8:da:fb:96:ee:26:
         0c:8d:d6:19:85:62:f9:b9:9e:7f:4e:77:90:82:32:b6:eb:6e:
         88:5a:5b:0c:7a:c9:5d:18:6a:f4:eb:d9:9d:f1:67:4a:9e:38:
         ee:22:e8:ea:0b:8d:aa:f4:1e:e2:15:3c:52:32:16:ec:b1:3b:
         35:f4:69:1b:d8:79:08:28:12:3a:5a:26:1b:c3:5d:b5:ae:0a:
         96:c0:cb:27:6e:22:97:f7
-----BEGIN CERTIFICATE-----
MIIGrTCCBJWgAwIBAgICLGowDQYJKoZIhvcNAQELBQAwgawxCzAJBgNVBAYTAlVT
MQswCQYDVQQIEwJPSDERMA8GA1UEBxMIQ29sdW1idXMxEjAQBgNVBAoTCVZpa2lu
Z1ZQTjEdMBsGA1UECxMUTXlPcmdhbml6YXRpb25hbFVuaXQxFTATBgNVBAMTDFZp
a2luZ1ZQTiBDQTEQMA4GA1UEKRMHRWFzeVJTQTEhMB8GCSqGSIb3DQEJARYSbWVA
bXlob3N0Lm15ZG9tYWluMB4XDTE3MDcyMTIwMDgwMFoXDTI3MDcxOTIwMDgwMFow
HzEdMBsGA1UEAxMUQ2xpZW50Mjk4NkNlcnRlY2QwNDMwggIiMA0GCSqGSIb3DQEB
AQUAA4ICDwAwggIKAoICAQDKOjJ05nVw3a4CUq2cWMQFokrPTB7fm3l0ssMmdwtl
zHy8azFfVlT7SZIph4bOEIecD1qUz77IaLk3VheoI7uOJwRx684t4xN9FSlj02VE
yeq0CF7UgtK61sw7Z7nUiZbOJJ7DfJCaT5icRdna0RF9wIrANiuSQ/cT/tLR8P+6
toB0h5WGdr4AGO1K+FPU28DBUtv0SOKyZVVAqcuuDfiI9FPudzqgE6QqNiR4kY51
JY6wa8lPtqiBtzcFwcQTM5iwUG/Js5kq6JonNmvp7mi+iiDqTu3N0UgAhJudEqfP
Ej29fckpZPp2Chw+9ujLNshl6K8oYZUlBQHxcUGgyA3nPDpYvPnt9eBpOsRzar81
vixFGl+PzCP7YhYkav0KQh0AaLyOS46WtIE/SLB9EN7t+wL/HdgaFqbsqthGwVmJ
TGEZ11CbfLMLzkep5Br9N+iZsp/Ip4qLYjBGoBsK8SftE7rv/y6TbdrBvudB4zNj
Pj/1wxAtSHy6ZtVjmyfn8RnCD3wOnRnIDWNdor2p/7EG7ibOxDPn2xOcnR+9tisl
v0SDb632FVARvSyc0AWIT2mgKTU3Yo8MObe8xAtlwdAk+DloFrouXe9VzLXbS8bj
T6fwCSZZ712MwDACgQ4fjBB+K8RSCT7Vr05ZBbmEEOyuNfw8/fV2kk5mZMKPJ/cM
NQIDAQABo4IBYzCCAV8wCQYDVR0TBAIwADAtBglghkgBhvhCAQ0EIBYeRWFzeS1S
U0EgR2VuZXJhdGVkIENlcnRpZmljYXRlMB0GA1UdDgQWBBTLwWAZa8oNquMejcZT
9TEsb0bANDCB4QYDVR0jBIHZMIHWgBQSzWAE0qCAnnDtxpm4eyzGUv0ZoaGBsqSB
rzCBrDELMAkGA1UEBhMCVVMxCzAJBgNVBAgTAk9IMREwDwYDVQQHEwhDb2x1bWJ1
czESMBAGA1UEChMJVmlraW5nVlBOMR0wGwYDVQQLExRNeU9yZ2FuaXphdGlvbmFs
VW5pdDEVMBMGA1UEAxMMVmlraW5nVlBOIENBMRAwDgYDVQQpEwdFYXN5UlNBMSEw
HwYJKoZIhvcNAQkBFhJtZUBteWhvc3QubXlkb21haW6CCQDPNYXugL8qPjATBgNV
HSUEDDAKBggrBgEFBQcDAjALBgNVHQ8EBAMCB4AwDQYJKoZIhvcNAQELBQADggIB
AD+3ymXTgEI/ISrnorDkD02G1qAiUDOC9WoXpZNSopWa1T7ORpihrXnEb3sNh1fj
VpGMNCjCbJ2tUx8jiRAVNL+7On49r1+qXSB9EUZY5yrGpA42kDbP0oTmyENfhi3Y
gn1FAXwOSTMJgF3nxrnxgn6+lmf9QnRese+b/MZxig7B3+To4pcPnzr0e1r9RD9p
p6i1hCS0/5jEPRlQuJNVH+d+xwR+7o+sdUGZEovTcfhLiP3wk0WUGNo0jh2dQ+kN
B7FrGCAh4RJfDqko2+4Vb/YoUSHnhZnVN/97/co6csQPRU5MqtW8vcW9IYYtVN3y
CRm7lhrsBvI6eKkGYb0y1e/ImZPEgQtkaB8nW/w3WkKuY6I2INwR8l8ioh6g7xGb
d8rWnEkAQYzgjMpmpNMcGnIYgSFK2VahHp9JHooxf0HU69CYFLEFmRx0yXSlMsrG
QNMkCnk5T0KwqeatvUG9uGwnwSJ1b24KaGrkrhF7D1RV8EMYUgw3psHrD8/c1Qic
2TgDTvaWofsKm/5u0zPiM79SKNbwcc3tcF82PcHaH4RK6nt5T7StJkEIGvja+5bu
JgyN1hmFYvm5nn9Od5CCMrbrbohaWwx6yV0YavTr2Z3xZ0qeOO4i6OoLjar0HuIV
PFIyFuyxOzX0aRvYeQgoEjpaJhvDXbWuCpbAyyduIpf3
-----END CERTIFICATE-----
