Certificate:
    Data:
        Version: 3 (0x2)
        Serial Number: 11377 (0x2c71)
    Signature Algorithm: sha256WithRSAEncryption
        Issuer: C=US, ST=OH, L=Columbus, O=VikingVPN, OU=MyOrganizationalUnit, CN=VikingVPN CA/name=EasyRSA/emailAddress=me@myhost.mydomain
        Validity
            Not Before: Jul 22 05:51:33 2017 GMT
            Not After : Jul 20 05:51:33 2027 GMT
        Subject: CN=Client3004Certbca6df
        Subject Public Key Info:
            Public Key Algorithm: rsaEncryption
                Public-Key: (4096 bit)
                Modulus:
                    00:e6:79:17:e5:de:99:24:31:12:ef:0a:18:27:7e:
                    2a:58:26:94:89:5c:b3:7e:f2:34:c1:39:91:ac:dc:
                    22:79:49:80:dc:cf:2a:d4:39:4d:9a:f5:a2:ec:01:
                    76:ca:48:4e:80:52:85:23:f8:7c:0d:a8:9a:21:9d:
                    bf:bc:56:91:27:44:ac:09:4c:38:49:5f:dd:0a:2f:
                    3a:bc:09:67:3a:d4:f5:36:9c:01:8f:7f:21:18:46:
                    2f:8a:28:7c:ab:e6:b7:4a:6c:82:c3:1d:66:e5:52:
                    8e:a0:f7:06:2a:ae:cb:26:ad:98:dc:1a:5e:68:47:
                    13:73:c1:6a:f7:6e:a0:34:5a:d4:b2:52:0b:0b:29:
                    5e:57:35:21:90:4d:7b:dd:d3:51:6a:95:9f:7d:69:
                    96:b3:0a:d7:2a:56:c0:f1:b3:d9:04:4b:b4:18:8e:
                    06:70:76:41:c5:b8:25:6d:a9:83:a3:e6:43:1b:4a:
                    7d:0a:d8:69:b3:ff:2f:f1:e0:ac:2c:74:d0:d6:ec:
                    66:3c:17:71:74:90:b7:8f:b4:bb:5c:99:1d:af:ab:
                    c4:ef:04:ef:cb:29:5f:5f:57:7e:54:cc:9d:48:4f:
                    f1:43:56:46:e0:57:a3:c6:9a:95:c7:ce:43:42:39:
                    68:9d:13:c2:87:cd:bd:5e:a9:fe:23:12:c0:bc:d9:
                    fa:d1:f7:83:5a:6f:a3:85:a7:87:ae:b0:6f:27:f7:
                    3e:27:a9:63:6d:b1:f1:9f:46:a9:02:13:63:82:69:
                    f6:5d:37:cf:33:8d:0b:0f:82:7e:21:61:fe:cf:df:
                    7b:c3:ab:13:15:5f:50:5e:62:7a:9e:b9:79:90:1f:
                    82:51:84:3c:e1:74:35:a7:1f:f9:14:d4:a9:65:21:
                    0a:59:d8:c6:e7:e5:23:7d:c4:b7:7a:a5:a6:f9:04:
                    bc:f7:5e:d5:c9:70:cc:e9:e6:77:e3:80:65:f8:79:
                    cb:c9:11:d2:6a:11:0b:59:3e:c3:e7:85:59:4c:dc:
                    02:d6:e1:af:ad:b0:76:2c:f2:da:d6:d2:06:33:ae:
                    84:21:11:14:d1:e0:f5:5f:5f:fe:85:46:a3:61:a4:
                    69:a0:f1:8d:23:c4:93:a5:00:1e:0f:6a:7c:b1:d9:
                    2b:ac:52:ad:e2:96:ba:ae:6d:cb:af:57:6d:10:88:
                    6b:d3:13:fd:72:d3:03:0e:4b:f4:5d:45:50:c5:79:
                    64:10:41:c1:17:c2:6f:47:95:93:dd:d0:d8:04:26:
                    6c:60:32:27:b8:3d:5f:19:9c:f8:f1:91:fc:b5:af:
                    9b:37:f1:f9:a1:1e:6e:b8:22:f0:40:ff:0a:90:98:
                    b1:fd:0b:08:e8:49:17:37:43:6f:0e:6a:4c:09:d0:
                    c9:82:4b
                Exponent: 65537 (0x10001)
        X509v3 extensions:
            X509v3 Basic Constraints: 
                CA:FALSE
            Netscape Comment: 
                Easy-RSA Generated Certificate
            X509v3 Subject Key Identifier: 
                8F:68:A7:90:59:8A:08:D0:8A:6F:85:15:92:FB:F1:1A:F6:21:D6:96
            X509v3 Authority Key Identifier: 
                keyid:12:CD:60:04:D2:A0:80:9E:70:ED:C6:99:B8:7B:2C:C6:52:FD:19:A1
                DirName:/C=US/ST=OH/L=Columbus/O=VikingVPN/OU=MyOrganizationalUnit/CN=VikingVPN CA/name=EasyRSA/emailAddress=me@myhost.mydomain
                serial:CF:35:85:EE:80:BF:2A:3E

            X509v3 Extended Key Usage: 
                TLS Web Client Authentication
            X509v3 Key Usage: 
                Digital Signature
    Signature Algorithm: sha256WithRSAEncryption
         96:2b:37:c0:85:4d:38:45:25:59:c5:d9:92:2c:4a:bc:ce:90:
         d0:ac:ef:91:f8:38:47:e3:82:af:95:be:a4:51:a0:24:b3:8c:
         8e:92:f2:f5:43:f7:3d:f6:19:76:12:7e:0a:4b:40:55:9e:66:
         7d:33:23:9a:19:12:a0:a1:cb:7f:c3:24:3e:bd:51:b2:36:f3:
         9e:1a:6f:1a:cd:ac:70:e2:c6:d8:eb:cf:3d:4f:83:0e:f2:38:
         68:01:30:97:a6:d9:d6:55:d7:90:19:4d:5a:12:3c:20:42:11:
         ae:36:ce:4d:8e:df:f4:ea:a9:c3:3e:23:1f:0c:b0:e3:47:52:
         9e:bc:c2:81:4f:9f:93:2c:25:89:a1:0e:e4:17:86:30:3a:24:
         d5:3f:fe:a9:02:25:29:96:77:72:49:21:20:62:92:8e:b2:ff:
         d3:6f:50:ec:13:e1:70:32:b2:4d:d2:ba:26:ab:e5:19:0e:1e:
         32:0f:7b:2a:ff:0d:4f:5b:21:b8:83:f2:24:b6:79:ad:37:10:
         0d:4b:46:79:47:1b:27:38:35:5b:3c:9d:5a:a3:b5:d1:b4:16:
         44:eb:ce:9f:c1:1b:5a:0f:af:d4:57:78:44:57:71:39:79:a4:
         21:29:8c:d7:3e:cf:36:f4:2c:23:68:7a:41:31:c9:60:d5:2e:
         d8:56:b6:74:5b:f3:5b:03:33:7c:41:5f:25:65:da:06:42:ad:
         bc:8c:3d:5a:fc:83:03:2f:d7:df:c2:06:b5:1e:32:b2:5c:eb:
         5e:c9:fc:f1:24:2b:2b:67:f7:1a:b9:c9:ec:ed:9e:2b:64:16:
         11:40:d9:cd:91:9e:d8:c7:43:1e:7f:aa:6d:7e:1d:2d:7f:5c:
         5a:a5:c2:88:e6:45:97:da:0f:96:14:9a:f0:eb:44:7e:d3:31:
         eb:38:82:8b:28:bc:5e:69:b7:91:e9:01:36:7a:04:b5:d7:cb:
         b3:ba:83:4b:55:99:b9:17:d3:e2:f6:55:fa:19:ca:08:46:b2:
         e0:32:06:fd:ac:9b:84:85:85:9e:fa:ba:13:ab:d8:77:7a:e8:
         0c:58:d1:84:5b:3e:f4:6d:82:88:36:33:d4:60:3b:dd:aa:d2:
         c2:da:e4:f8:dd:ad:03:6a:96:b6:c3:88:d3:ce:5a:bc:ec:4d:
         d1:63:eb:11:57:60:d6:d7:7c:80:8d:f3:e8:41:39:2d:86:30:
         38:ab:35:cb:3b:c6:26:97:8e:ed:64:97:93:77:b2:50:7c:78:
         e5:08:bc:e8:44:f7:e3:d8:d6:4c:43:80:b1:d0:ac:e6:ce:74:
         15:9c:b3:48:ad:67:e4:5b:77:bd:c3:3c:85:35:d8:56:49:75:
         59:3c:be:6f:44:cc:71:7e
-----BEGIN CERTIFICATE-----
MIIGrTCCBJWgAwIBAgICLHEwDQYJKoZIhvcNAQELBQAwgawxCzAJBgNVBAYTAlVT
MQswCQYDVQQIEwJPSDERMA8GA1UEBxMIQ29sdW1idXMxEjAQBgNVBAoTCVZpa2lu
Z1ZQTjEdMBsGA1UECxMUTXlPcmdhbml6YXRpb25hbFVuaXQxFTATBgNVBAMTDFZp
a2luZ1ZQTiBDQTEQMA4GA1UEKRMHRWFzeVJTQTEhMB8GCSqGSIb3DQEJARYSbWVA
bXlob3N0Lm15ZG9tYWluMB4XDTE3MDcyMjA1NTEzM1oXDTI3MDcyMDA1NTEzM1ow
HzEdMBsGA1UEAxMUQ2xpZW50MzAwNENlcnRiY2E2ZGYwggIiMA0GCSqGSIb3DQEB
AQUAA4ICDwAwggIKAoICAQDmeRfl3pkkMRLvChgnfipYJpSJXLN+8jTBOZGs3CJ5
SYDczyrUOU2a9aLsAXbKSE6AUoUj+HwNqJohnb+8VpEnRKwJTDhJX90KLzq8CWc6
1PU2nAGPfyEYRi+KKHyr5rdKbILDHWblUo6g9wYqrssmrZjcGl5oRxNzwWr3bqA0
WtSyUgsLKV5XNSGQTXvd01FqlZ99aZazCtcqVsDxs9kES7QYjgZwdkHFuCVtqYOj
5kMbSn0K2Gmz/y/x4KwsdNDW7GY8F3F0kLePtLtcmR2vq8TvBO/LKV9fV35UzJ1I
T/FDVkbgV6PGmpXHzkNCOWidE8KHzb1eqf4jEsC82frR94Nab6OFp4eusG8n9z4n
qWNtsfGfRqkCE2OCafZdN88zjQsPgn4hYf7P33vDqxMVX1BeYnqeuXmQH4JRhDzh
dDWnH/kU1KllIQpZ2Mbn5SN9xLd6pab5BLz3XtXJcMzp5nfjgGX4ecvJEdJqEQtZ
PsPnhVlM3ALW4a+tsHYs8trW0gYzroQhERTR4PVfX/6FRqNhpGmg8Y0jxJOlAB4P
anyx2SusUq3ilrqubcuvV20QiGvTE/1y0wMOS/RdRVDFeWQQQcEXwm9HlZPd0NgE
JmxgMie4PV8ZnPjxkfy1r5s38fmhHm64IvBA/wqQmLH9CwjoSRc3Q28OakwJ0MmC
SwIDAQABo4IBYzCCAV8wCQYDVR0TBAIwADAtBglghkgBhvhCAQ0EIBYeRWFzeS1S
U0EgR2VuZXJhdGVkIENlcnRpZmljYXRlMB0GA1UdDgQWBBSPaKeQWYoI0IpvhRWS
+/Ea9iHWljCB4QYDVR0jBIHZMIHWgBQSzWAE0qCAnnDtxpm4eyzGUv0ZoaGBsqSB
rzCBrDELMAkGA1UEBhMCVVMxCzAJBgNVBAgTAk9IMREwDwYDVQQHEwhDb2x1bWJ1
czESMBAGA1UEChMJVmlraW5nVlBOMR0wGwYDVQQLExRNeU9yZ2FuaXphdGlvbmFs
VW5pdDEVMBMGA1UEAxMMVmlraW5nVlBOIENBMRAwDgYDVQQpEwdFYXN5UlNBMSEw
HwYJKoZIhvcNAQkBFhJtZUBteWhvc3QubXlkb21haW6CCQDPNYXugL8qPjATBgNV
HSUEDDAKBggrBgEFBQcDAjALBgNVHQ8EBAMCB4AwDQYJKoZIhvcNAQELBQADggIB
AJYrN8CFTThFJVnF2ZIsSrzOkNCs75H4OEfjgq+VvqRRoCSzjI6S8vVD9z32GXYS
fgpLQFWeZn0zI5oZEqChy3/DJD69UbI2854abxrNrHDixtjrzz1Pgw7yOGgBMJem
2dZV15AZTVoSPCBCEa42zk2O3/TqqcM+Ix8MsONHUp68woFPn5MsJYmhDuQXhjA6
JNU//qkCJSmWd3JJISBiko6y/9NvUOwT4XAysk3Suiar5RkOHjIPeyr/DU9bIbiD
8iS2ea03EA1LRnlHGyc4NVs8nVqjtdG0FkTrzp/BG1oPr9RXeERXcTl5pCEpjNc+
zzb0LCNoekExyWDVLthWtnRb81sDM3xBXyVl2gZCrbyMPVr8gwMv19/CBrUeMrJc
617J/PEkKytn9xq5yeztnitkFhFA2c2RntjHQx5/qm1+HS1/XFqlwojmRZfaD5YU
mvDrRH7TMes4gosovF5pt5HpATZ6BLXXy7O6g0tVmbkX0+L2VfoZyghGsuAyBv2s
m4SFhZ76uhOr2Hd66AxY0YRbPvRtgog2M9RgO92q0sLa5PjdrQNqlrbDiNPOWrzs
TdFj6xFXYNbXfICN8+hBOS2GMDirNcs7xiaXju1kl5N3slB8eOUIvOhE9+PY1kxD
gLHQrObOdBWcs0itZ+Rbd73DPIU12FZJdVk8vm9EzHF+
-----END CERTIFICATE-----
