Certificate:
    Data:
        Version: 3 (0x2)
        Serial Number: 11384 (0x2c78)
    Signature Algorithm: sha256WithRSAEncryption
        Issuer: C=US, ST=OH, L=Columbus, O=VikingVPN, OU=MyOrganizationalUnit, CN=VikingVPN CA/name=EasyRSA/emailAddress=me@myhost.mydomain
        Validity
            Not Before: Jul 22 17:24:46 2017 GMT
            Not After : Jul 20 17:24:46 2027 GMT
        Subject: CN=Client3005Cert29bf01
        Subject Public Key Info:
            Public Key Algorithm: rsaEncryption
                Public-Key: (4096 bit)
                Modulus:
                    00:cc:b1:f1:9e:f0:b0:ed:94:d7:6b:05:5d:cf:27:
                    a5:ec:f4:d5:50:0b:9c:0c:ed:82:d3:7b:77:d6:e7:
                    60:22:f5:a0:d0:c8:d6:4f:2f:08:6f:f4:42:78:4b:
                    85:b1:93:d0:c6:17:6f:24:71:4c:55:81:07:ab:45:
                    25:51:94:3f:78:3d:10:9c:0c:a7:e2:f7:10:40:84:
                    a0:c9:50:24:e7:f2:c2:e3:f0:94:e1:50:75:74:0e:
                    63:17:03:d8:14:cd:b4:37:c7:69:76:70:13:3c:aa:
                    6c:6a:85:65:32:88:1a:50:5e:e7:da:b6:43:13:cb:
                    f0:9d:79:97:26:32:99:64:fd:72:0d:a8:f5:c1:e7:
                    6a:a5:09:ef:a5:8d:f4:0b:45:f1:6d:38:44:66:c7:
                    b1:c0:d9:0f:c8:fe:45:4a:bd:ac:85:44:42:ba:50:
                    a1:e1:a5:b8:8d:26:93:82:9c:84:4d:82:07:14:f1:
                    19:54:0e:e6:7d:86:ff:2a:dd:08:63:be:b2:09:c6:
                    87:e2:e0:ad:55:f5:0b:eb:b0:8c:43:bd:3b:48:e3:
                    c4:76:da:ee:cc:3d:2e:5e:33:ad:ac:51:72:60:49:
                    d4:4b:a8:db:40:5f:17:02:fd:d7:e9:8f:7a:29:2d:
                    97:ca:51:df:58:f2:d9:7a:25:92:7a:b7:2e:c8:0e:
                    84:73:eb:d9:cc:71:97:0d:ef:df:cb:4a:29:9e:68:
                    b1:7a:4a:45:87:6d:02:c0:9b:91:48:b7:bb:35:40:
                    32:e7:87:51:79:39:6b:62:cb:53:29:54:e5:39:a1:
                    9f:b6:ca:13:71:d3:7f:fc:70:2c:df:ce:9f:81:06:
                    6d:00:ec:2d:c4:4a:94:21:41:53:0a:af:a3:37:3c:
                    a3:4f:cc:99:19:79:f6:b5:e1:0e:e6:29:bb:2b:6c:
                    c1:e6:70:7c:93:d3:a6:4c:ba:96:4a:42:06:73:40:
                    29:2d:23:a2:79:79:c7:f2:d8:1b:14:9f:0a:4e:77:
                    a3:41:0e:16:43:6c:b9:95:88:df:0d:7c:70:ea:df:
                    60:3e:6c:84:ab:67:36:0e:37:4f:17:df:a7:22:87:
                    ce:c2:d4:7c:4f:12:a6:25:95:bd:eb:29:10:75:55:
                    2d:6d:8c:36:c3:40:d3:26:c6:4e:a0:ad:0d:dd:c9:
                    d7:07:b2:80:b5:19:d9:1a:1c:43:f9:ea:e9:ae:af:
                    3e:1d:5e:6b:0c:4a:a7:7a:a4:2e:42:47:7d:16:e1:
                    3d:73:02:c2:e0:e4:b2:95:d4:11:ac:92:dd:db:e9:
                    37:4f:e2:39:58:56:8a:55:81:1b:ca:39:5e:34:5b:
                    bd:fd:d9:22:bf:31:bd:0b:e7:21:78:01:bf:63:40:
                    d1:f6:f3
                Exponent: 65537 (0x10001)
        X509v3 extensions:
            X509v3 Basic Constraints: 
                CA:FALSE
            Netscape Comment: 
                Easy-RSA Generated Certificate
            X509v3 Subject Key Identifier: 
                66:FE:44:04:F3:B5:74:67:73:8F:1E:AB:1A:CC:F5:CA:55:A7:42:2B
            X509v3 Authority Key Identifier: 
                keyid:12:CD:60:04:D2:A0:80:9E:70:ED:C6:99:B8:7B:2C:C6:52:FD:19:A1
                DirName:/C=US/ST=OH/L=Columbus/O=VikingVPN/OU=MyOrganizationalUnit/CN=VikingVPN CA/name=EasyRSA/emailAddress=me@myhost.mydomain
                serial:CF:35:85:EE:80:BF:2A:3E

            X509v3 Extended Key Usage: 
                TLS Web Client Authentication
            X509v3 Key Usage: 
                Digital Signature
    Signature Algorithm: sha256WithRSAEncryption
         16:4e:f3:55:31:fb:ea:d5:7e:0b:6c:fd:1d:2a:04:83:0f:f5:
         8f:44:ad:39:74:1c:b5:9f:b2:56:8e:71:5e:74:f6:42:b2:8d:
         fc:17:30:ad:3c:ba:28:9a:26:13:6a:ae:4f:34:0d:5e:dc:16:
         b0:c7:e8:89:42:04:ae:76:18:a1:cf:13:fa:4d:4e:c0:df:de:
         a2:b6:56:d7:6f:3d:66:bd:cb:09:30:81:fd:7b:a2:a4:1d:46:
         5c:98:81:04:69:d3:34:0e:84:14:16:0e:72:55:5c:c9:fc:4c:
         25:a7:fd:22:bd:d3:bd:ef:6c:c9:19:a9:f9:03:e3:92:f0:d1:
         ba:0e:fa:66:76:72:ba:d5:59:a1:5a:a8:e0:de:73:30:63:f7:
         e1:0e:3b:84:1e:fa:a3:5d:e3:6e:1f:f7:40:f4:27:df:71:e9:
         4b:1b:ab:67:e0:36:ec:02:c8:60:c5:5d:79:8e:e9:20:b9:bc:
         d4:88:0b:6b:cd:cc:13:57:a7:2e:d8:d6:cd:a1:70:85:98:de:
         ab:d7:a3:ed:30:56:9a:98:87:2c:4a:0a:17:61:f7:61:b4:42:
         4a:70:51:5b:53:96:83:6c:fb:8d:e5:ad:11:c6:07:48:e0:a8:
         81:fd:3b:ec:47:53:81:6b:bf:39:31:bd:e6:1c:de:0e:c7:e9:
         32:1e:c8:85:75:fd:2e:72:d0:4c:48:f8:9e:fc:8f:ab:c5:64:
         af:88:ce:56:aa:ac:a8:20:30:7d:ea:6f:f8:33:04:69:7f:82:
         fd:16:5d:52:08:06:2e:57:66:37:c7:83:56:56:8a:34:c9:20:
         8c:4c:34:b8:35:d3:df:ff:81:56:86:be:a9:00:a1:86:aa:1e:
         dd:1e:63:28:88:40:65:1e:e8:bb:8b:75:17:1a:b0:3d:1b:8f:
         80:c4:01:8f:92:53:9a:9a:27:ab:82:77:49:d0:ba:6b:01:57:
         27:b8:bc:d0:b1:fa:27:96:77:e4:d3:7c:10:e8:21:0d:f5:80:
         79:96:0e:d2:3f:50:05:c5:b0:3e:b4:80:a9:3f:e9:c6:f5:e4:
         cc:b9:31:a2:fa:56:f9:0e:f0:37:22:9c:fe:5e:92:c0:cf:37:
         c7:94:8d:c6:c6:cb:6a:5e:f4:70:69:bd:42:98:a0:07:cf:1b:
         2f:1c:74:bb:fc:e0:78:67:38:5a:7b:3d:d4:39:b1:3f:ec:59:
         92:5b:fe:dc:1b:86:14:14:60:cc:4b:30:e6:35:8d:a7:e2:a3:
         52:dc:9c:49:b2:b8:54:fa:25:b5:d8:88:a9:fb:23:a2:a3:99:
         3e:c5:20:23:0f:67:de:a0:74:4a:ed:6a:c0:0e:39:a2:05:84:
         fa:ca:3c:0b:b2:ca:5d:0f
-----BEGIN CERTIFICATE-----
MIIGrTCCBJWgAwIBAgICLHgwDQYJKoZIhvcNAQELBQAwgawxCzAJBgNVBAYTAlVT
MQswCQYDVQQIEwJPSDERMA8GA1UEBxMIQ29sdW1idXMxEjAQBgNVBAoTCVZpa2lu
Z1ZQTjEdMBsGA1UECxMUTXlPcmdhbml6YXRpb25hbFVuaXQxFTATBgNVBAMTDFZp
a2luZ1ZQTiBDQTEQMA4GA1UEKRMHRWFzeVJTQTEhMB8GCSqGSIb3DQEJARYSbWVA
bXlob3N0Lm15ZG9tYWluMB4XDTE3MDcyMjE3MjQ0NloXDTI3MDcyMDE3MjQ0Nlow
HzEdMBsGA1UEAxMUQ2xpZW50MzAwNUNlcnQyOWJmMDEwggIiMA0GCSqGSIb3DQEB
AQUAA4ICDwAwggIKAoICAQDMsfGe8LDtlNdrBV3PJ6Xs9NVQC5wM7YLTe3fW52Ai
9aDQyNZPLwhv9EJ4S4Wxk9DGF28kcUxVgQerRSVRlD94PRCcDKfi9xBAhKDJUCTn
8sLj8JThUHV0DmMXA9gUzbQ3x2l2cBM8qmxqhWUyiBpQXufatkMTy/CdeZcmMplk
/XINqPXB52qlCe+ljfQLRfFtOERmx7HA2Q/I/kVKvayFREK6UKHhpbiNJpOCnIRN
ggcU8RlUDuZ9hv8q3QhjvrIJxofi4K1V9QvrsIxDvTtI48R22u7MPS5eM62sUXJg
SdRLqNtAXxcC/dfpj3opLZfKUd9Y8tl6JZJ6ty7IDoRz69nMcZcN79/LSimeaLF6
SkWHbQLAm5FIt7s1QDLnh1F5OWtiy1MpVOU5oZ+2yhNx03/8cCzfzp+BBm0A7C3E
SpQhQVMKr6M3PKNPzJkZefa14Q7mKbsrbMHmcHyT06ZMupZKQgZzQCktI6J5ecfy
2BsUnwpOd6NBDhZDbLmViN8NfHDq32A+bISrZzYON08X36cih87C1HxPEqYllb3r
KRB1VS1tjDbDQNMmxk6grQ3dydcHsoC1GdkaHEP56umurz4dXmsMSqd6pC5CR30W
4T1zAsLg5LKV1BGskt3b6TdP4jlYVopVgRvKOV40W7392SK/Mb0L5yF4Ab9jQNH2
8wIDAQABo4IBYzCCAV8wCQYDVR0TBAIwADAtBglghkgBhvhCAQ0EIBYeRWFzeS1S
U0EgR2VuZXJhdGVkIENlcnRpZmljYXRlMB0GA1UdDgQWBBRm/kQE87V0Z3OPHqsa
zPXKVadCKzCB4QYDVR0jBIHZMIHWgBQSzWAE0qCAnnDtxpm4eyzGUv0ZoaGBsqSB
rzCBrDELMAkGA1UEBhMCVVMxCzAJBgNVBAgTAk9IMREwDwYDVQQHEwhDb2x1bWJ1
czESMBAGA1UEChMJVmlraW5nVlBOMR0wGwYDVQQLExRNeU9yZ2FuaXphdGlvbmFs
VW5pdDEVMBMGA1UEAxMMVmlraW5nVlBOIENBMRAwDgYDVQQpEwdFYXN5UlNBMSEw
HwYJKoZIhvcNAQkBFhJtZUBteWhvc3QubXlkb21haW6CCQDPNYXugL8qPjATBgNV
HSUEDDAKBggrBgEFBQcDAjALBgNVHQ8EBAMCB4AwDQYJKoZIhvcNAQELBQADggIB
ABZO81Ux++rVfgts/R0qBIMP9Y9ErTl0HLWfslaOcV509kKyjfwXMK08uiiaJhNq
rk80DV7cFrDH6IlCBK52GKHPE/pNTsDf3qK2VtdvPWa9ywkwgf17oqQdRlyYgQRp
0zQOhBQWDnJVXMn8TCWn/SK9073vbMkZqfkD45Lw0boO+mZ2crrVWaFaqODeczBj
9+EOO4Qe+qNd424f90D0J99x6Usbq2fgNuwCyGDFXXmO6SC5vNSIC2vNzBNXpy7Y
1s2hcIWY3qvXo+0wVpqYhyxKChdh92G0QkpwUVtTloNs+43lrRHGB0jgqIH9O+xH
U4FrvzkxveYc3g7H6TIeyIV1/S5y0ExI+J78j6vFZK+IzlaqrKggMH3qb/gzBGl/
gv0WXVIIBi5XZjfHg1ZWijTJIIxMNLg109//gVaGvqkAoYaqHt0eYyiIQGUe6LuL
dRcasD0bj4DEAY+SU5qaJ6uCd0nQumsBVye4vNCx+ieWd+TTfBDoIQ31gHmWDtI/
UAXFsD60gKk/6cb15My5MaL6VvkO8DcinP5eksDPN8eUjcbGy2pe9HBpvUKYoAfP
Gy8cdLv84HhnOFp7PdQ5sT/sWZJb/twbhhQUYMxLMOY1jafio1LcnEmyuFT6JbXY
iKn7I6KjmT7FICMPZ96gdErtasAOOaIFhPrKPAuyyl0P
-----END CERTIFICATE-----
