Certificate:
    Data:
        Version: 3 (0x2)
        Serial Number: 11394 (0x2c82)
    Signature Algorithm: sha256WithRSAEncryption
        Issuer: C=US, ST=OH, L=Columbus, O=VikingVPN, OU=MyOrganizationalUnit, CN=VikingVPN CA/name=EasyRSA/emailAddress=me@myhost.mydomain
        Validity
            Not Before: Jul 22 22:12:33 2017 GMT
            Not After : Jul 20 22:12:33 2027 GMT
        Subject: CN=Client3005Cert4a81b1
        Subject Public Key Info:
            Public Key Algorithm: rsaEncryption
                Public-Key: (4096 bit)
                Modulus:
                    00:f0:32:0d:29:0e:07:d5:cd:fe:0f:f0:5e:cb:dd:
                    f7:14:80:06:ce:e2:99:69:98:b2:e7:b4:7d:31:9f:
                    fa:26:16:9d:3a:c3:86:79:24:0e:dd:69:4c:95:89:
                    82:3e:09:d2:cb:6e:4a:c7:16:af:cf:70:7b:71:c1:
                    b0:5a:5f:f9:b3:24:d5:a7:17:9b:50:5e:2e:f8:07:
                    79:22:14:39:1f:45:88:19:2f:0a:42:90:02:5b:d1:
                    9d:3f:e2:72:29:7b:7d:a2:50:49:32:29:94:3d:54:
                    1e:c5:f4:2a:b9:2e:28:51:dc:b9:72:96:01:e5:c4:
                    1c:dc:45:67:46:39:28:63:b7:8e:4d:75:e6:1e:82:
                    0d:50:34:95:b0:eb:17:13:2f:dc:8e:72:71:2d:68:
                    22:f7:3e:30:23:b0:fb:be:fb:b7:46:e9:f0:73:97:
                    f6:ed:93:f2:7a:ec:4f:f3:69:4c:bf:ae:18:f8:4f:
                    07:30:75:49:46:dd:b4:ad:17:57:dd:c9:7a:39:76:
                    71:1d:c8:22:8b:fb:e2:52:a7:11:20:17:77:b5:38:
                    96:e3:49:46:4f:eb:d6:17:10:c8:31:6a:a4:c7:97:
                    1a:95:d7:7a:5b:26:6e:3a:5a:6a:7f:60:c4:b7:15:
                    43:89:5d:74:eb:11:78:c0:13:c1:cb:d9:41:cc:12:
                    c6:80:cc:17:56:5e:7e:dc:8f:3f:f1:a4:5e:7e:18:
                    ea:b2:cb:82:a2:f0:0b:9e:de:6c:e1:23:94:a9:71:
                    0d:9e:17:74:12:07:78:08:f2:cf:36:b1:6e:22:0f:
                    7c:25:f8:f8:e6:fb:32:7d:b2:51:bb:69:5f:e6:36:
                    39:bb:6c:b4:d7:9c:52:3d:20:ad:00:81:96:fe:0f:
                    b8:c4:ed:bc:60:41:16:f2:8c:6f:be:b0:90:3f:76:
                    bf:27:27:e9:2d:62:95:e0:86:c1:b8:78:1d:6e:bd:
                    98:12:ab:20:44:b2:52:d1:ef:b3:0d:a1:01:1c:fa:
                    44:22:c5:50:74:4d:69:b9:09:8b:74:b2:e7:92:8b:
                    3b:0e:b5:1b:cd:be:6d:b0:4e:97:9b:8b:b0:45:03:
                    0f:43:26:50:97:a5:53:2b:21:98:6c:48:42:ef:30:
                    0e:8b:6a:a3:df:22:a7:1c:40:1f:62:84:28:de:46:
                    00:e5:33:b2:ce:2a:35:24:41:8f:60:04:74:b4:19:
                    65:fc:b0:c4:40:6a:16:d5:52:8c:a7:a5:de:60:d6:
                    f9:03:8e:71:17:ea:08:08:e8:90:94:38:cf:17:e6:
                    39:d1:62:6f:9e:12:d8:1e:4a:8e:9c:b8:e2:98:d8:
                    b2:eb:55:ee:62:f8:46:7f:1f:a4:50:f5:71:18:08:
                    0f:c2:45
                Exponent: 65537 (0x10001)
        X509v3 extensions:
            X509v3 Basic Constraints: 
                CA:FALSE
            Netscape Comment: 
                Easy-RSA Generated Certificate
            X509v3 Subject Key Identifier: 
                57:4F:F3:A1:3E:FD:C2:E7:C6:E7:90:51:76:91:08:09:0E:D2:EF:BC
            X509v3 Authority Key Identifier: 
                keyid:12:CD:60:04:D2:A0:80:9E:70:ED:C6:99:B8:7B:2C:C6:52:FD:19:A1
                DirName:/C=US/ST=OH/L=Columbus/O=VikingVPN/OU=MyOrganizationalUnit/CN=VikingVPN CA/name=EasyRSA/emailAddress=me@myhost.mydomain
                serial:CF:35:85:EE:80:BF:2A:3E

            X509v3 Extended Key Usage: 
                TLS Web Client Authentication
            X509v3 Key Usage: 
                Digital Signature
    Signature Algorithm: sha256WithRSAEncryption
         9f:4f:18:03:ce:3f:10:8c:1c:8f:19:3b:f1:cc:8f:c4:4d:fb:
         5d:a0:fb:09:6f:a5:e9:ae:4c:a4:0c:15:08:df:2b:7f:9e:b9:
         44:20:14:a7:17:65:b2:3d:74:7d:f9:f9:5c:11:cd:bc:d8:5c:
         f8:4d:f8:39:55:61:87:3d:a1:03:11:2d:9c:f5:09:12:78:24:
         03:1d:51:27:b5:02:ac:8f:8a:77:04:98:49:6f:39:d7:93:67:
         84:19:c4:99:b2:a2:a0:29:e0:65:b9:43:74:83:e3:e7:95:fe:
         2d:40:d6:a1:1e:af:11:56:37:50:dd:42:a3:f8:fc:25:62:a5:
         83:27:07:aa:13:39:7b:31:72:14:33:a4:73:a1:01:49:ba:c3:
         0c:5d:76:f6:1a:48:38:60:6d:20:1a:1d:4d:fc:29:48:78:98:
         59:cb:a4:95:49:04:7a:17:b3:94:98:bc:6d:3d:4a:67:e2:cd:
         46:48:33:93:46:02:20:b5:a1:2f:d1:0d:37:74:8d:67:f3:9a:
         fc:c9:b3:70:55:2c:e5:6d:18:fd:3b:1e:82:f4:56:f2:b1:a4:
         a7:34:9c:3a:6c:8c:79:ef:c3:f6:42:bc:9a:ba:8a:43:93:84:
         53:b6:04:3e:5a:bf:59:4b:57:fb:f1:fd:c3:d5:3c:d6:b3:3e:
         fa:bf:b0:bb:09:32:64:f3:20:81:b6:b0:90:da:b9:96:fd:f5:
         39:aa:57:b1:a4:aa:ac:60:c1:4c:11:93:5b:a6:4a:c1:89:e6:
         4e:c1:4c:85:99:56:08:55:e3:53:a5:a8:6a:92:73:e0:d4:8d:
         e8:e4:14:0b:97:6a:6a:a0:de:81:20:21:f1:35:cf:03:11:f3:
         d8:d6:63:46:d9:8e:fe:01:69:1b:24:c0:28:d4:00:58:b6:e0:
         ec:63:a7:49:9b:08:44:19:32:51:e9:80:b6:eb:48:54:1e:ca:
         05:5a:d9:90:e4:d8:37:87:f7:43:f1:99:32:76:d0:36:70:cf:
         dc:6e:cd:4b:02:94:21:67:1f:21:a9:26:30:09:77:aa:be:91:
         14:18:8d:46:d2:d7:7b:95:27:81:88:2d:89:13:e8:3a:d6:d7:
         75:98:93:67:83:b4:ce:9d:17:af:59:72:58:f5:fa:38:f7:3f:
         6b:31:a7:cb:d1:66:f3:c1:a4:23:98:f2:2b:25:7c:f8:9c:9e:
         a8:97:06:83:58:06:05:c1:1f:e1:82:2a:e8:2c:93:31:ce:c9:
         85:e3:13:16:d0:c1:d1:ce:f2:be:4e:d2:db:16:b3:10:58:1e:
         5d:36:4c:7a:f6:ca:23:57:1a:03:39:75:d1:48:97:db:a0:a0:
         1c:bf:90:fb:33:49:80:29
-----BEGIN CERTIFICATE-----
MIIGrTCCBJWgAwIBAgICLIIwDQYJKoZIhvcNAQELBQAwgawxCzAJBgNVBAYTAlVT
MQswCQYDVQQIEwJPSDERMA8GA1UEBxMIQ29sdW1idXMxEjAQBgNVBAoTCVZpa2lu
Z1ZQTjEdMBsGA1UECxMUTXlPcmdhbml6YXRpb25hbFVuaXQxFTATBgNVBAMTDFZp
a2luZ1ZQTiBDQTEQMA4GA1UEKRMHRWFzeVJTQTEhMB8GCSqGSIb3DQEJARYSbWVA
bXlob3N0Lm15ZG9tYWluMB4XDTE3MDcyMjIyMTIzM1oXDTI3MDcyMDIyMTIzM1ow
HzEdMBsGA1UEAxMUQ2xpZW50MzAwNUNlcnQ0YTgxYjEwggIiMA0GCSqGSIb3DQEB
AQUAA4ICDwAwggIKAoICAQDwMg0pDgfVzf4P8F7L3fcUgAbO4plpmLLntH0xn/om
Fp06w4Z5JA7daUyViYI+CdLLbkrHFq/PcHtxwbBaX/mzJNWnF5tQXi74B3kiFDkf
RYgZLwpCkAJb0Z0/4nIpe32iUEkyKZQ9VB7F9Cq5LihR3LlylgHlxBzcRWdGOShj
t45NdeYegg1QNJWw6xcTL9yOcnEtaCL3PjAjsPu++7dG6fBzl/btk/J67E/zaUy/
rhj4TwcwdUlG3bStF1fdyXo5dnEdyCKL++JSpxEgF3e1OJbjSUZP69YXEMgxaqTH
lxqV13pbJm46Wmp/YMS3FUOJXXTrEXjAE8HL2UHMEsaAzBdWXn7cjz/xpF5+GOqy
y4Ki8Aue3mzhI5SpcQ2eF3QSB3gI8s82sW4iD3wl+Pjm+zJ9slG7aV/mNjm7bLTX
nFI9IK0AgZb+D7jE7bxgQRbyjG++sJA/dr8nJ+ktYpXghsG4eB1uvZgSqyBEslLR
77MNoQEc+kQixVB0TWm5CYt0sueSizsOtRvNvm2wTpebi7BFAw9DJlCXpVMrIZhs
SELvMA6LaqPfIqccQB9ihCjeRgDlM7LOKjUkQY9gBHS0GWX8sMRAahbVUoynpd5g
1vkDjnEX6ggI6JCUOM8X5jnRYm+eEtgeSo6cuOKY2LLrVe5i+EZ/H6RQ9XEYCA/C
RQIDAQABo4IBYzCCAV8wCQYDVR0TBAIwADAtBglghkgBhvhCAQ0EIBYeRWFzeS1S
U0EgR2VuZXJhdGVkIENlcnRpZmljYXRlMB0GA1UdDgQWBBRXT/OhPv3C58bnkFF2
kQgJDtLvvDCB4QYDVR0jBIHZMIHWgBQSzWAE0qCAnnDtxpm4eyzGUv0ZoaGBsqSB
rzCBrDELMAkGA1UEBhMCVVMxCzAJBgNVBAgTAk9IMREwDwYDVQQHEwhDb2x1bWJ1
czESMBAGA1UEChMJVmlraW5nVlBOMR0wGwYDVQQLExRNeU9yZ2FuaXphdGlvbmFs
VW5pdDEVMBMGA1UEAxMMVmlraW5nVlBOIENBMRAwDgYDVQQpEwdFYXN5UlNBMSEw
HwYJKoZIhvcNAQkBFhJtZUBteWhvc3QubXlkb21haW6CCQDPNYXugL8qPjATBgNV
HSUEDDAKBggrBgEFBQcDAjALBgNVHQ8EBAMCB4AwDQYJKoZIhvcNAQELBQADggIB
AJ9PGAPOPxCMHI8ZO/HMj8RN+12g+wlvpemuTKQMFQjfK3+euUQgFKcXZbI9dH35
+VwRzbzYXPhN+DlVYYc9oQMRLZz1CRJ4JAMdUSe1AqyPincEmElvOdeTZ4QZxJmy
oqAp4GW5Q3SD4+eV/i1A1qEerxFWN1DdQqP4/CVipYMnB6oTOXsxchQzpHOhAUm6
wwxddvYaSDhgbSAaHU38KUh4mFnLpJVJBHoXs5SYvG09SmfizUZIM5NGAiC1oS/R
DTd0jWfzmvzJs3BVLOVtGP07HoL0VvKxpKc0nDpsjHnvw/ZCvJq6ikOThFO2BD5a
v1lLV/vx/cPVPNazPvq/sLsJMmTzIIG2sJDauZb99TmqV7GkqqxgwUwRk1umSsGJ
5k7BTIWZVghV41OlqGqSc+DUjejkFAuXamqg3oEgIfE1zwMR89jWY0bZjv4BaRsk
wCjUAFi24Oxjp0mbCEQZMlHpgLbrSFQeygVa2ZDk2DeH90PxmTJ20DZwz9xuzUsC
lCFnHyGpJjAJd6q+kRQYjUbS13uVJ4GILYkT6DrW13WYk2eDtM6dF69Zclj1+jj3
P2sxp8vRZvPBpCOY8islfPicnqiXBoNYBgXBH+GCKugskzHOyYXjExbQwdHO8r5O
0tsWsxBYHl02THr2yiNXGgM5ddFIl9ugoBy/kPszSYAp
-----END CERTIFICATE-----
