Certificate:
    Data:
        Version: 3 (0x2)
        Serial Number: 11432 (0x2ca8)
    Signature Algorithm: sha256WithRSAEncryption
        Issuer: C=US, ST=OH, L=Columbus, O=VikingVPN, OU=MyOrganizationalUnit, CN=VikingVPN CA/name=EasyRSA/emailAddress=me@myhost.mydomain
        Validity
            Not Before: Jul 26 19:51:38 2017 GMT
            Not After : Jul 24 19:51:38 2027 GMT
        Subject: CN=Client3012Cert813222
        Subject Public Key Info:
            Public Key Algorithm: rsaEncryption
                Public-Key: (4096 bit)
                Modulus:
                    00:c2:0f:54:40:f8:ed:4a:46:48:f0:d7:18:89:8e:
                    be:16:62:b1:af:2b:b3:e4:65:f7:0c:e9:88:ab:33:
                    f2:12:f7:24:8f:d9:7d:9f:e8:9a:01:0d:d0:fb:1b:
                    c8:93:75:da:9e:e6:7d:9c:2b:a6:01:34:17:66:a2:
                    c5:59:95:f1:fd:95:8d:01:b1:a1:e3:63:56:d8:5c:
                    02:42:b0:11:fe:72:95:a9:2a:f2:7d:1f:a0:e8:13:
                    7a:4c:b8:2f:51:c1:b2:a2:02:0e:d1:3b:c5:cc:4a:
                    66:dd:4e:98:6d:1d:a6:84:ce:8e:bd:40:b0:19:c2:
                    56:28:51:8a:53:38:c9:14:da:fb:03:b6:7d:eb:12:
                    db:0b:f9:88:22:27:14:80:32:90:86:c0:9d:7e:e9:
                    39:7d:fd:18:7a:76:92:ac:c4:75:e2:b5:c1:9a:41:
                    05:67:fd:b3:81:24:d0:a7:c0:30:e1:f8:7a:65:29:
                    55:02:55:4a:53:61:a1:aa:96:b4:09:cb:a6:f4:c6:
                    19:10:50:5b:59:5f:3e:3a:8f:4e:af:fe:43:7d:93:
                    8e:a3:cf:53:c6:f9:aa:33:2d:9d:25:c3:72:45:f5:
                    d0:d4:28:1b:8e:dc:6c:13:ea:da:bf:11:56:d4:f4:
                    83:f5:1d:1a:0c:9c:f4:13:0c:9f:47:54:5e:6a:f7:
                    f6:66:57:56:7c:b2:06:98:3c:b8:fa:71:59:72:28:
                    ac:08:95:5e:02:ba:bd:c5:3a:36:57:a0:d5:8f:0c:
                    b2:4b:22:30:14:ac:dd:10:58:c6:a2:59:b4:d7:db:
                    ae:7d:f2:23:b8:ff:e5:60:aa:fd:98:90:87:f8:dd:
                    07:e7:4b:ca:7c:de:a7:eb:71:07:d1:85:7b:5f:d4:
                    f5:b7:4e:09:e6:dc:13:d9:de:6e:97:36:14:40:03:
                    39:3e:55:a5:f4:c1:f0:d0:bf:1d:37:91:8a:44:5f:
                    91:13:9f:6a:f5:eb:11:d9:2b:3a:84:03:46:60:7c:
                    56:10:19:43:95:fc:8f:4d:03:1e:57:c4:0c:c1:dd:
                    a8:95:02:74:e4:8b:80:fe:85:4d:d9:04:51:69:11:
                    5c:99:6c:bc:6b:13:3b:37:e8:7f:ad:f4:47:d8:6f:
                    8f:69:72:d1:ab:67:0f:af:41:a6:2d:10:22:0e:6f:
                    5c:d0:05:40:bb:a7:1f:61:36:b8:19:60:75:21:c6:
                    50:59:fb:25:b0:35:c8:82:94:e1:dc:6d:f0:9a:44:
                    6f:02:f3:d1:1c:6a:d3:1f:1d:c7:4f:aa:ef:a7:75:
                    01:9a:75:7d:f8:b7:b3:d2:6c:f1:13:45:95:2b:30:
                    49:56:70:a5:b7:16:e2:52:c6:0a:04:b2:0e:7f:ca:
                    1e:40:b3
                Exponent: 65537 (0x10001)
        X509v3 extensions:
            X509v3 Basic Constraints: 
                CA:FALSE
            Netscape Comment: 
                Easy-RSA Generated Certificate
            X509v3 Subject Key Identifier: 
                19:9A:7B:8C:3F:31:B3:3F:66:92:DC:3F:E9:03:12:A9:09:8A:51:C1
            X509v3 Authority Key Identifier: 
                keyid:12:CD:60:04:D2:A0:80:9E:70:ED:C6:99:B8:7B:2C:C6:52:FD:19:A1
                DirName:/C=US/ST=OH/L=Columbus/O=VikingVPN/OU=MyOrganizationalUnit/CN=VikingVPN CA/name=EasyRSA/emailAddress=me@myhost.mydomain
                serial:CF:35:85:EE:80:BF:2A:3E

            X509v3 Extended Key Usage: 
                TLS Web Client Authentication
            X509v3 Key Usage: 
                Digital Signature
    Signature Algorithm: sha256WithRSAEncryption
         cb:82:4a:27:ee:94:86:42:7c:26:9b:0a:f8:ca:97:d9:50:f8:
         c8:02:11:83:10:7b:9c:ee:8e:f2:c9:e0:1f:d8:7f:2e:d6:58:
         e7:10:9c:2a:8e:52:97:a3:3b:99:2f:2a:13:71:7e:44:9b:fa:
         4b:5c:fb:61:d1:ce:c9:1d:e3:3e:7c:dc:72:40:ad:c5:e9:6a:
         2c:f8:37:17:80:a1:84:c1:67:d6:a3:44:33:26:f5:f4:e4:89:
         c5:d4:77:f3:c3:d2:84:8b:7d:8a:59:27:a2:f7:3c:5d:31:53:
         4c:da:9b:d9:0c:ea:9b:d2:61:9d:a0:58:fc:d4:cc:02:4f:c0:
         c5:d1:8b:8f:23:6d:16:6d:86:32:bd:8b:98:4f:1d:0b:23:64:
         8e:44:19:c9:de:73:72:4d:67:25:5d:2b:bb:fa:27:59:dd:c1:
         04:4e:73:90:73:0e:f8:74:cc:50:cf:b3:d5:c4:03:24:37:9f:
         d6:7e:2d:a7:b0:81:2c:dd:45:91:c5:be:30:29:42:d6:22:6a:
         86:a9:ad:df:69:f8:5c:80:0d:f0:0d:4d:73:f4:cc:0e:25:61:
         ce:a5:bc:fc:44:3a:11:a3:67:da:0b:05:39:d6:a1:82:0b:b1:
         17:2e:35:f1:8b:93:f0:76:8e:6a:4a:24:fc:75:c4:77:f6:e2:
         2e:57:e4:82:eb:9e:a6:e4:99:0c:01:b8:03:b3:94:04:54:7e:
         78:ea:dc:8f:54:12:68:32:6e:a6:fa:f5:5c:3b:49:b4:c3:b7:
         50:11:ac:fd:e6:24:07:d4:43:b0:68:c5:31:05:7a:56:f7:00:
         f5:6b:9f:e5:6f:40:58:51:2a:94:64:e2:41:96:bc:e0:33:9b:
         67:62:52:63:70:3a:8e:d1:36:de:d6:92:89:c2:7f:c5:1e:1b:
         d1:37:51:ce:71:25:9d:b7:d1:07:3f:9d:0d:bc:7d:d8:1c:91:
         19:49:91:5e:f8:23:a9:2a:38:b5:21:95:26:8f:70:51:e8:3a:
         fa:38:de:d6:f9:70:e3:d4:bf:da:88:44:87:9f:98:04:fe:6c:
         9a:9a:53:fa:1b:29:e0:f1:c0:3e:30:f6:35:cf:c1:8f:ef:6a:
         51:0d:89:62:33:ab:74:80:67:c4:7a:c6:76:75:cd:9c:c1:63:
         19:c4:8e:f9:2a:9c:2b:71:87:05:61:43:b7:3e:df:21:89:50:
         5f:f1:43:3a:79:72:5c:8e:a0:ed:d4:b3:9b:d5:b3:b3:c3:23:
         33:c5:f3:81:0a:3c:a1:7f:38:20:cd:72:a5:7c:cd:b1:21:e7:
         e8:af:4d:d7:df:91:cd:2b:6f:81:c2:e9:64:b4:3e:53:ea:77:
         c9:2d:00:cd:87:cf:91:26
-----BEGIN CERTIFICATE-----
MIIGrTCCBJWgAwIBAgICLKgwDQYJKoZIhvcNAQELBQAwgawxCzAJBgNVBAYTAlVT
MQswCQYDVQQIEwJPSDERMA8GA1UEBxMIQ29sdW1idXMxEjAQBgNVBAoTCVZpa2lu
Z1ZQTjEdMBsGA1UECxMUTXlPcmdhbml6YXRpb25hbFVuaXQxFTATBgNVBAMTDFZp
a2luZ1ZQTiBDQTEQMA4GA1UEKRMHRWFzeVJTQTEhMB8GCSqGSIb3DQEJARYSbWVA
bXlob3N0Lm15ZG9tYWluMB4XDTE3MDcyNjE5NTEzOFoXDTI3MDcyNDE5NTEzOFow
HzEdMBsGA1UEAxMUQ2xpZW50MzAxMkNlcnQ4MTMyMjIwggIiMA0GCSqGSIb3DQEB
AQUAA4ICDwAwggIKAoICAQDCD1RA+O1KRkjw1xiJjr4WYrGvK7PkZfcM6YirM/IS
9ySP2X2f6JoBDdD7G8iTddqe5n2cK6YBNBdmosVZlfH9lY0BsaHjY1bYXAJCsBH+
cpWpKvJ9H6DoE3pMuC9RwbKiAg7RO8XMSmbdTphtHaaEzo69QLAZwlYoUYpTOMkU
2vsDtn3rEtsL+YgiJxSAMpCGwJ1+6Tl9/Rh6dpKsxHXitcGaQQVn/bOBJNCnwDDh
+HplKVUCVUpTYaGqlrQJy6b0xhkQUFtZXz46j06v/kN9k46jz1PG+aozLZ0lw3JF
9dDUKBuO3GwT6tq/EVbU9IP1HRoMnPQTDJ9HVF5q9/ZmV1Z8sgaYPLj6cVlyKKwI
lV4Cur3FOjZXoNWPDLJLIjAUrN0QWMaiWbTX26598iO4/+Vgqv2YkIf43QfnS8p8
3qfrcQfRhXtf1PW3Tgnm3BPZ3m6XNhRAAzk+VaX0wfDQvx03kYpEX5ETn2r16xHZ
KzqEA0ZgfFYQGUOV/I9NAx5XxAzB3aiVAnTki4D+hU3ZBFFpEVyZbLxrEzs36H+t
9EfYb49pctGrZw+vQaYtECIOb1zQBUC7px9hNrgZYHUhxlBZ+yWwNciClOHcbfCa
RG8C89EcatMfHcdPqu+ndQGadX34t7PSbPETRZUrMElWcKW3FuJSxgoEsg5/yh5A
swIDAQABo4IBYzCCAV8wCQYDVR0TBAIwADAtBglghkgBhvhCAQ0EIBYeRWFzeS1S
U0EgR2VuZXJhdGVkIENlcnRpZmljYXRlMB0GA1UdDgQWBBQZmnuMPzGzP2aS3D/p
AxKpCYpRwTCB4QYDVR0jBIHZMIHWgBQSzWAE0qCAnnDtxpm4eyzGUv0ZoaGBsqSB
rzCBrDELMAkGA1UEBhMCVVMxCzAJBgNVBAgTAk9IMREwDwYDVQQHEwhDb2x1bWJ1
czESMBAGA1UEChMJVmlraW5nVlBOMR0wGwYDVQQLExRNeU9yZ2FuaXphdGlvbmFs
VW5pdDEVMBMGA1UEAxMMVmlraW5nVlBOIENBMRAwDgYDVQQpEwdFYXN5UlNBMSEw
HwYJKoZIhvcNAQkBFhJtZUBteWhvc3QubXlkb21haW6CCQDPNYXugL8qPjATBgNV
HSUEDDAKBggrBgEFBQcDAjALBgNVHQ8EBAMCB4AwDQYJKoZIhvcNAQELBQADggIB
AMuCSifulIZCfCabCvjKl9lQ+MgCEYMQe5zujvLJ4B/Yfy7WWOcQnCqOUpejO5kv
KhNxfkSb+ktc+2HRzskd4z583HJArcXpaiz4NxeAoYTBZ9ajRDMm9fTkicXUd/PD
0oSLfYpZJ6L3PF0xU0zam9kM6pvSYZ2gWPzUzAJPwMXRi48jbRZthjK9i5hPHQsj
ZI5EGcnec3JNZyVdK7v6J1ndwQROc5BzDvh0zFDPs9XEAyQ3n9Z+LaewgSzdRZHF
vjApQtYiaoaprd9p+FyADfANTXP0zA4lYc6lvPxEOhGjZ9oLBTnWoYILsRcuNfGL
k/B2jmpKJPx1xHf24i5X5ILrnqbkmQwBuAOzlARUfnjq3I9UEmgybqb69Vw7SbTD
t1ARrP3mJAfUQ7BoxTEFelb3APVrn+VvQFhRKpRk4kGWvOAzm2diUmNwOo7RNt7W
konCf8UeG9E3Uc5xJZ230Qc/nQ28fdgckRlJkV74I6kqOLUhlSaPcFHoOvo43tb5
cOPUv9qIRIefmAT+bJqaU/obKeDxwD4w9jXPwY/valENiWIzq3SAZ8R6xnZ1zZzB
YxnEjvkqnCtxhwVhQ7c+3yGJUF/xQzp5clyOoO3Us5vVs7PDIzPF84EKPKF/OCDN
cqV8zbEh5+ivTdffkc0rb4HC6WS0PlPqd8ktAM2Hz5Em
-----END CERTIFICATE-----
