Certificate:
    Data:
        Version: 3 (0x2)
        Serial Number: 11461 (0x2cc5)
    Signature Algorithm: sha256WithRSAEncryption
        Issuer: C=US, ST=OH, L=Columbus, O=VikingVPN, OU=MyOrganizationalUnit, CN=VikingVPN CA/name=EasyRSA/emailAddress=me@myhost.mydomain
        Validity
            Not Before: Aug  2 07:52:30 2017 GMT
            Not After : Jul 31 07:52:30 2027 GMT
        Subject: CN=Client1871Certfe0d45
        Subject Public Key Info:
            Public Key Algorithm: rsaEncryption
                Public-Key: (4096 bit)
                Modulus:
                    00:dd:15:45:21:d5:73:80:b4:6e:dc:b8:d2:c2:e4:
                    f1:d9:08:81:65:b4:3e:1a:1c:ad:88:c9:ca:61:4b:
                    dc:5f:01:d1:73:78:25:31:d5:1a:c5:b1:b8:75:13:
                    59:d5:ca:5c:1d:42:74:ca:5d:f7:61:d8:fe:1e:b3:
                    a5:29:d1:77:91:8d:6f:81:5e:60:61:59:c5:e6:a6:
                    22:a8:10:c0:4f:f3:1b:9f:02:07:96:80:04:68:7f:
                    be:47:89:ca:36:19:03:1f:b6:67:94:00:85:86:fa:
                    f9:ab:b4:97:29:71:38:32:b9:28:78:d5:6d:c1:87:
                    44:da:c1:3f:98:20:88:07:97:a1:46:43:3a:65:b7:
                    09:99:9b:52:ef:37:1b:b2:15:0d:27:ab:00:23:a4:
                    6a:ef:2a:dd:92:21:dd:d3:bd:62:ea:81:1f:74:a0:
                    a3:a2:ad:2e:05:d8:78:da:3c:a1:88:8e:a5:60:4e:
                    c8:80:ac:86:17:b3:a9:26:35:23:a8:5a:2f:a5:c6:
                    f2:cf:1c:6f:a2:62:be:f7:00:f9:c1:9e:ea:f2:53:
                    60:53:53:07:c9:a1:35:e0:60:56:1d:8f:d9:3b:4c:
                    72:c9:83:31:ac:6c:d5:ca:15:b0:23:e3:a0:38:60:
                    06:7e:0d:15:b9:45:39:23:40:52:b1:df:b2:d9:52:
                    7e:ec:10:09:9e:60:9a:d4:d3:25:58:f0:6a:a7:86:
                    ca:d5:1e:ff:51:69:04:86:58:5a:75:72:d9:60:7b:
                    27:7c:e7:43:03:0f:4b:89:79:2e:cd:41:3d:2e:c5:
                    ae:dc:08:61:fe:34:55:70:db:25:cf:b6:8e:fe:31:
                    90:e4:26:5b:6e:7c:49:24:2f:d2:0f:13:d6:e2:ec:
                    14:8e:ad:39:a9:26:0b:0d:04:a0:8f:72:95:be:f4:
                    01:ce:88:e3:63:74:6b:24:72:d1:c5:ec:7e:0e:41:
                    a2:63:bf:7d:cd:43:06:fd:30:92:74:cd:6b:62:6a:
                    2b:0f:67:e1:24:ea:71:db:5b:89:57:8c:bb:c0:0b:
                    93:d5:4f:b4:dc:f7:f0:0c:2a:ec:e3:fc:b5:0a:23:
                    d1:4d:31:14:69:0e:22:24:d8:9e:b2:ec:78:bf:72:
                    6c:52:aa:82:ec:7f:04:f6:08:4b:59:fb:d5:d0:cd:
                    3d:49:dc:b3:66:e6:e6:f1:2f:59:bf:39:3f:6d:40:
                    35:19:77:4a:66:6f:93:a4:9b:af:66:0d:e5:99:4a:
                    70:92:92:ce:bb:d7:7d:e5:2e:a9:21:7a:98:6a:44:
                    29:0a:00:45:73:14:b9:b2:4d:f9:b9:51:de:8a:c6:
                    4c:60:4a:e4:9d:9e:bf:e1:58:51:0d:46:94:0f:a2:
                    7e:e4:e5
                Exponent: 65537 (0x10001)
        X509v3 extensions:
            X509v3 Basic Constraints: 
                CA:FALSE
            Netscape Comment: 
                Easy-RSA Generated Certificate
            X509v3 Subject Key Identifier: 
                7D:24:CE:CA:6B:DF:C1:18:3D:9F:AC:B5:D4:DE:74:B6:92:71:F2:46
            X509v3 Authority Key Identifier: 
                keyid:12:CD:60:04:D2:A0:80:9E:70:ED:C6:99:B8:7B:2C:C6:52:FD:19:A1
                DirName:/C=US/ST=OH/L=Columbus/O=VikingVPN/OU=MyOrganizationalUnit/CN=VikingVPN CA/name=EasyRSA/emailAddress=me@myhost.mydomain
                serial:CF:35:85:EE:80:BF:2A:3E

            X509v3 Extended Key Usage: 
                TLS Web Client Authentication
            X509v3 Key Usage: 
                Digital Signature
    Signature Algorithm: sha256WithRSAEncryption
         2a:bb:d9:70:d2:f5:6a:98:fc:f7:21:74:db:02:ba:a4:34:64:
         f1:03:d8:ff:3f:d8:cf:83:0e:d9:d1:25:96:ea:36:47:fe:96:
         c1:83:1a:9d:7b:a3:6e:d3:a8:59:6a:81:88:e4:c3:28:8f:db:
         04:97:ef:78:17:a4:cd:72:4f:2a:65:d0:c6:83:e7:c4:36:ae:
         19:76:61:dc:2f:2f:3e:8f:53:94:75:b7:33:5f:41:09:11:87:
         f8:e8:fb:9c:4d:61:52:67:b7:74:4c:29:2a:7e:02:db:c9:45:
         0f:8d:dc:00:63:58:9a:0b:bc:d7:42:52:da:2f:51:38:a5:31:
         57:7b:17:30:68:9d:18:87:84:16:4a:a4:7e:a6:57:88:58:6f:
         4d:2b:94:a5:74:a9:75:5d:49:92:50:6f:a5:45:24:0d:89:5e:
         a1:25:24:1a:e3:3a:cb:49:35:a1:ce:50:fc:fd:ba:67:f0:6f:
         33:5a:3f:02:19:c5:b8:79:59:32:d7:83:98:01:cd:69:fb:d8:
         2f:8c:05:41:48:0a:aa:7e:43:84:94:ec:f8:75:83:53:23:a9:
         fc:a3:f5:46:a8:50:4d:f3:e5:71:8a:38:00:8e:2f:31:07:63:
         91:56:ec:90:76:3f:5e:3f:b0:3f:91:a5:f0:0f:83:c7:fb:eb:
         52:d0:bc:72:32:6f:2c:b2:33:f8:26:fa:65:0b:73:56:e0:07:
         82:c9:5e:c9:e1:d3:0a:fd:bc:5a:44:10:39:ad:ae:ef:81:45:
         2c:ed:e1:99:5e:c5:aa:34:b7:93:d2:df:43:f4:85:db:6b:09:
         c4:d6:49:30:6a:78:87:7a:6c:83:86:41:44:f3:c7:72:91:d0:
         7e:7f:45:49:a1:62:81:44:2a:e9:6d:e3:56:03:fd:5f:3b:7d:
         e6:ae:ca:24:58:f0:04:44:37:8b:a3:56:7b:74:72:00:b3:49:
         6a:cd:f2:e1:fa:53:f7:d4:90:f6:8f:75:07:27:7b:7c:27:bc:
         9f:26:bf:d6:b5:23:28:51:92:48:96:04:f2:f2:4a:6f:bb:23:
         ba:65:3c:ac:a9:6d:26:0a:8d:27:f1:da:86:b4:c8:ca:4b:78:
         86:70:43:51:81:96:a6:27:03:06:5b:17:2c:81:e2:a3:cc:85:
         d8:be:b2:b7:86:f2:6e:a2:bd:95:78:de:8f:ed:68:98:80:0a:
         b9:2f:bc:71:ca:3b:fc:80:47:e8:80:d2:f9:45:81:96:b6:99:
         1a:e9:05:e8:de:c0:b1:0f:01:22:14:05:f3:18:c8:5f:31:05:
         81:61:3b:8e:80:62:8c:8f:ef:c9:85:11:d6:6b:a3:e8:ab:4a:
         00:c7:dd:48:c8:9b:ac:e5
-----BEGIN CERTIFICATE-----
MIIGrTCCBJWgAwIBAgICLMUwDQYJKoZIhvcNAQELBQAwgawxCzAJBgNVBAYTAlVT
MQswCQYDVQQIEwJPSDERMA8GA1UEBxMIQ29sdW1idXMxEjAQBgNVBAoTCVZpa2lu
Z1ZQTjEdMBsGA1UECxMUTXlPcmdhbml6YXRpb25hbFVuaXQxFTATBgNVBAMTDFZp
a2luZ1ZQTiBDQTEQMA4GA1UEKRMHRWFzeVJTQTEhMB8GCSqGSIb3DQEJARYSbWVA
bXlob3N0Lm15ZG9tYWluMB4XDTE3MDgwMjA3NTIzMFoXDTI3MDczMTA3NTIzMFow
HzEdMBsGA1UEAxMUQ2xpZW50MTg3MUNlcnRmZTBkNDUwggIiMA0GCSqGSIb3DQEB
AQUAA4ICDwAwggIKAoICAQDdFUUh1XOAtG7cuNLC5PHZCIFltD4aHK2IycphS9xf
AdFzeCUx1RrFsbh1E1nVylwdQnTKXfdh2P4es6Up0XeRjW+BXmBhWcXmpiKoEMBP
8xufAgeWgARof75Hico2GQMftmeUAIWG+vmrtJcpcTgyuSh41W3Bh0TawT+YIIgH
l6FGQzpltwmZm1LvNxuyFQ0nqwAjpGrvKt2SId3TvWLqgR90oKOirS4F2HjaPKGI
jqVgTsiArIYXs6kmNSOoWi+lxvLPHG+iYr73APnBnuryU2BTUwfJoTXgYFYdj9k7
THLJgzGsbNXKFbAj46A4YAZ+DRW5RTkjQFKx37LZUn7sEAmeYJrU0yVY8GqnhsrV
Hv9RaQSGWFp1ctlgeyd850MDD0uJeS7NQT0uxa7cCGH+NFVw2yXPto7+MZDkJltu
fEkkL9IPE9bi7BSOrTmpJgsNBKCPcpW+9AHOiONjdGskctHF7H4OQaJjv33NQwb9
MJJ0zWtiaisPZ+Ek6nHbW4lXjLvAC5PVT7Tc9/AMKuzj/LUKI9FNMRRpDiIk2J6y
7Hi/cmxSqoLsfwT2CEtZ+9XQzT1J3LNm5ubxL1m/OT9tQDUZd0pmb5Okm69mDeWZ
SnCSks67133lLqkhephqRCkKAEVzFLmyTfm5Ud6KxkxgSuSdnr/hWFENRpQPon7k
5QIDAQABo4IBYzCCAV8wCQYDVR0TBAIwADAtBglghkgBhvhCAQ0EIBYeRWFzeS1S
U0EgR2VuZXJhdGVkIENlcnRpZmljYXRlMB0GA1UdDgQWBBR9JM7Ka9/BGD2frLXU
3nS2knHyRjCB4QYDVR0jBIHZMIHWgBQSzWAE0qCAnnDtxpm4eyzGUv0ZoaGBsqSB
rzCBrDELMAkGA1UEBhMCVVMxCzAJBgNVBAgTAk9IMREwDwYDVQQHEwhDb2x1bWJ1
czESMBAGA1UEChMJVmlraW5nVlBOMR0wGwYDVQQLExRNeU9yZ2FuaXphdGlvbmFs
VW5pdDEVMBMGA1UEAxMMVmlraW5nVlBOIENBMRAwDgYDVQQpEwdFYXN5UlNBMSEw
HwYJKoZIhvcNAQkBFhJtZUBteWhvc3QubXlkb21haW6CCQDPNYXugL8qPjATBgNV
HSUEDDAKBggrBgEFBQcDAjALBgNVHQ8EBAMCB4AwDQYJKoZIhvcNAQELBQADggIB
ACq72XDS9WqY/PchdNsCuqQ0ZPED2P8/2M+DDtnRJZbqNkf+lsGDGp17o27TqFlq
gYjkwyiP2wSX73gXpM1yTypl0MaD58Q2rhl2YdwvLz6PU5R1tzNfQQkRh/jo+5xN
YVJnt3RMKSp+AtvJRQ+N3ABjWJoLvNdCUtovUTilMVd7FzBonRiHhBZKpH6mV4hY
b00rlKV0qXVdSZJQb6VFJA2JXqElJBrjOstJNaHOUPz9umfwbzNaPwIZxbh5WTLX
g5gBzWn72C+MBUFICqp+Q4SU7Ph1g1Mjqfyj9UaoUE3z5XGKOACOLzEHY5FW7JB2
P14/sD+RpfAPg8f761LQvHIybyyyM/gm+mULc1bgB4LJXsnh0wr9vFpEEDmtru+B
RSzt4Zlexao0t5PS30P0hdtrCcTWSTBqeId6bIOGQUTzx3KR0H5/RUmhYoFEKult
41YD/V87feauyiRY8AREN4ujVnt0cgCzSWrN8uH6U/fUkPaPdQcne3wnvJ8mv9a1
IyhRkkiWBPLySm+7I7plPKypbSYKjSfx2oa0yMpLeIZwQ1GBlqYnAwZbFyyB4qPM
hdi+sreG8m6ivZV43o/taJiACrkvvHHKO/yAR+iA0vlFgZa2mRrpBejewLEPASIU
BfMYyF8xBYFhO46AYoyP78mFEdZro+irSgDH3UjIm6zl
-----END CERTIFICATE-----
