Certificate:
    Data:
        Version: 3 (0x2)
        Serial Number: 11474 (0x2cd2)
    Signature Algorithm: sha256WithRSAEncryption
        Issuer: C=US, ST=OH, L=Columbus, O=VikingVPN, OU=MyOrganizationalUnit, CN=VikingVPN CA/name=EasyRSA/emailAddress=me@myhost.mydomain
        Validity
            Not Before: Aug  4 21:51:07 2017 GMT
            Not After : Aug  2 21:51:07 2027 GMT
        Subject: CN=Client3028Certd653a2
        Subject Public Key Info:
            Public Key Algorithm: rsaEncryption
                Public-Key: (4096 bit)
                Modulus:
                    00:be:1d:30:51:fc:c6:7c:16:6e:9e:ef:69:99:53:
                    65:1b:5b:cf:49:ce:2c:ba:c0:50:57:39:75:19:3c:
                    ee:84:d0:72:fb:ed:3e:7a:27:7c:2b:bb:35:cb:e2:
                    e7:aa:f8:bd:e6:44:5a:14:0d:40:f1:6d:8a:12:cd:
                    a4:1c:0d:a6:d8:b4:03:3f:2a:d5:ba:30:68:16:e3:
                    9a:eb:57:59:be:44:43:42:d5:50:d9:8a:e8:a6:6f:
                    57:55:0f:ab:28:1d:49:7f:eb:ff:50:da:68:ce:fe:
                    06:20:5f:2e:25:33:8e:94:00:d4:c7:d2:7c:e9:c7:
                    69:85:c2:fa:54:24:3f:3e:a3:70:79:6f:fc:ff:24:
                    52:08:10:19:e0:25:14:cf:9d:7f:83:1a:11:3c:46:
                    c1:ac:a0:17:d8:44:2f:68:fc:36:62:d6:21:46:e0:
                    70:2f:33:7a:5c:4a:d6:ef:52:a2:3c:bf:96:03:ee:
                    9e:b4:3b:22:c8:7e:94:ee:ef:6f:e9:f0:02:0d:d0:
                    fd:31:6f:c4:d4:e2:55:7a:e8:c9:2e:86:39:6c:ef:
                    66:5f:e9:da:47:48:0a:51:31:a4:15:02:65:4d:67:
                    96:fe:1d:58:96:c2:92:21:8c:6a:77:e5:f0:17:85:
                    f6:79:ed:a4:6b:23:78:e3:0d:e5:0b:bb:b4:70:86:
                    71:9b:66:33:de:c6:e2:1a:d0:53:73:15:a3:6f:c3:
                    7b:2c:ea:9d:7e:32:d1:df:4d:59:91:2b:28:52:64:
                    5c:95:37:c9:0a:85:b7:7a:ac:db:17:d0:33:00:f1:
                    10:5a:51:36:2f:74:15:5a:6e:40:76:e2:0b:5d:5a:
                    61:3f:b6:cf:04:88:07:26:bc:4d:ad:19:53:da:c9:
                    5e:29:03:64:29:ac:6c:76:d0:14:dd:1f:62:0d:67:
                    99:4a:72:ac:5b:7d:08:3b:ed:2a:de:b0:1f:e8:2c:
                    f2:6d:81:54:17:f0:5b:3f:69:fe:51:71:a4:50:cd:
                    2b:46:19:91:16:92:5f:9e:2d:32:30:16:fa:22:76:
                    20:36:e0:05:18:20:cb:5b:0f:3b:ff:ed:6a:da:79:
                    e1:db:7b:7a:8b:5d:cc:93:47:57:de:61:3e:5d:67:
                    00:61:67:4f:7c:9f:2a:05:f7:22:d2:0d:48:b1:3a:
                    24:cb:59:de:80:1e:a1:02:9d:48:e9:97:24:02:8a:
                    56:af:5f:00:cf:26:c3:ed:e7:ed:d3:20:08:04:d8:
                    ad:3e:50:7f:17:08:03:77:6a:28:02:c6:64:4f:49:
                    25:86:ab:6d:d6:d5:ef:a0:8f:cb:5b:cb:ce:1b:6f:
                    45:bf:af:fe:e2:aa:a9:02:4b:03:e0:53:8b:58:03:
                    fa:d2:81
                Exponent: 65537 (0x10001)
        X509v3 extensions:
            X509v3 Basic Constraints: 
                CA:FALSE
            Netscape Comment: 
                Easy-RSA Generated Certificate
            X509v3 Subject Key Identifier: 
                78:6B:A4:8B:32:7A:D3:63:7A:13:B2:AA:62:98:86:3D:0A:DC:CD:AE
            X509v3 Authority Key Identifier: 
                keyid:12:CD:60:04:D2:A0:80:9E:70:ED:C6:99:B8:7B:2C:C6:52:FD:19:A1
                DirName:/C=US/ST=OH/L=Columbus/O=VikingVPN/OU=MyOrganizationalUnit/CN=VikingVPN CA/name=EasyRSA/emailAddress=me@myhost.mydomain
                serial:CF:35:85:EE:80:BF:2A:3E

            X509v3 Extended Key Usage: 
                TLS Web Client Authentication
            X509v3 Key Usage: 
                Digital Signature
    Signature Algorithm: sha256WithRSAEncryption
         47:a2:f2:9a:75:c1:4b:2d:3b:b8:5a:86:29:d5:ff:d8:11:1e:
         d2:39:04:c8:22:b1:52:44:9f:69:52:06:36:5a:3c:07:2a:dc:
         c3:df:54:91:b2:ec:fa:a5:1d:ab:49:a6:eb:7d:f6:16:f2:8e:
         66:23:3c:94:f6:48:8d:39:77:92:38:02:36:24:9c:98:f1:fc:
         ee:d4:74:7d:41:19:04:85:94:be:a6:8a:6e:82:2f:81:30:47:
         56:bc:bb:b6:8a:26:97:0f:e1:1b:c0:62:bf:cd:bb:30:d2:68:
         36:d6:12:b1:63:ca:05:21:7c:32:04:f3:d4:66:40:e4:e8:ee:
         33:cc:93:8b:2f:a9:59:da:1f:c1:01:83:90:1e:8a:b5:ab:1a:
         58:c7:cc:2a:3a:ac:b1:f3:53:be:0f:ab:ca:c2:0c:fc:d4:63:
         69:53:7d:e0:38:c0:df:d4:90:30:4e:58:43:ec:71:03:07:17:
         dd:4b:5d:62:aa:4d:3c:06:8b:65:0a:9f:24:7a:89:37:da:37:
         e2:d7:e0:73:a1:14:58:8c:ad:aa:1e:28:13:6b:e4:03:7a:b0:
         d0:de:19:d6:fd:07:73:ad:8f:ad:9d:8a:4b:f3:fc:63:2d:e8:
         74:4c:4b:2f:7d:fd:d6:fa:18:76:53:a2:87:ff:15:fa:04:bb:
         3a:fc:dc:79:71:dc:8a:21:a1:24:51:49:2c:c7:4c:ba:bc:4c:
         b4:e8:70:e9:81:09:23:8b:64:75:80:6f:4f:4b:30:6e:7b:70:
         bd:5c:94:b2:09:8d:79:d7:fa:eb:14:7b:5a:25:1a:f9:f5:9a:
         51:5a:0a:8e:eb:57:a3:77:ed:9e:fe:2a:1d:4a:77:64:24:32:
         df:36:18:67:0d:9d:ad:88:fa:66:fa:92:ee:4e:27:11:35:5a:
         78:11:85:54:7e:5b:5b:ed:ff:19:f7:15:55:0a:48:a6:97:ec:
         07:82:00:3d:38:f2:58:fa:e8:eb:97:92:74:37:07:dc:6f:4f:
         c0:b0:69:0a:92:67:fe:71:67:ae:36:ad:74:e4:8a:2c:ac:cd:
         0c:f5:73:6c:7e:f0:e2:18:a7:29:61:53:dc:ab:ad:37:6d:83:
         e5:ec:4c:ec:d0:49:e9:3c:23:16:76:1c:38:88:97:b9:50:86:
         3f:ee:c0:73:12:2e:36:2b:93:68:71:cd:e5:1f:bc:ce:9f:68:
         ea:f6:13:ee:7c:cc:31:2b:2b:3e:f9:26:1d:d7:4b:91:8a:2c:
         28:1d:17:0c:a1:7f:7f:25:77:48:63:7e:7d:9a:b8:58:57:7a:
         0e:d2:31:a1:33:ba:40:ad:30:f5:52:75:60:06:91:17:b1:4f:
         54:4a:07:13:6a:ed:63:62
-----BEGIN CERTIFICATE-----
MIIGrTCCBJWgAwIBAgICLNIwDQYJKoZIhvcNAQELBQAwgawxCzAJBgNVBAYTAlVT
MQswCQYDVQQIEwJPSDERMA8GA1UEBxMIQ29sdW1idXMxEjAQBgNVBAoTCVZpa2lu
Z1ZQTjEdMBsGA1UECxMUTXlPcmdhbml6YXRpb25hbFVuaXQxFTATBgNVBAMTDFZp
a2luZ1ZQTiBDQTEQMA4GA1UEKRMHRWFzeVJTQTEhMB8GCSqGSIb3DQEJARYSbWVA
bXlob3N0Lm15ZG9tYWluMB4XDTE3MDgwNDIxNTEwN1oXDTI3MDgwMjIxNTEwN1ow
HzEdMBsGA1UEAxMUQ2xpZW50MzAyOENlcnRkNjUzYTIwggIiMA0GCSqGSIb3DQEB
AQUAA4ICDwAwggIKAoICAQC+HTBR/MZ8Fm6e72mZU2UbW89Jziy6wFBXOXUZPO6E
0HL77T56J3wruzXL4ueq+L3mRFoUDUDxbYoSzaQcDabYtAM/KtW6MGgW45rrV1m+
RENC1VDZiuimb1dVD6soHUl/6/9Q2mjO/gYgXy4lM46UANTH0nzpx2mFwvpUJD8+
o3B5b/z/JFIIEBngJRTPnX+DGhE8RsGsoBfYRC9o/DZi1iFG4HAvM3pcStbvUqI8
v5YD7p60OyLIfpTu72/p8AIN0P0xb8TU4lV66Mkuhjls72Zf6dpHSApRMaQVAmVN
Z5b+HViWwpIhjGp35fAXhfZ57aRrI3jjDeULu7RwhnGbZjPexuIa0FNzFaNvw3ss
6p1+MtHfTVmRKyhSZFyVN8kKhbd6rNsX0DMA8RBaUTYvdBVabkB24gtdWmE/ts8E
iAcmvE2tGVPayV4pA2QprGx20BTdH2INZ5lKcqxbfQg77SresB/oLPJtgVQX8Fs/
af5RcaRQzStGGZEWkl+eLTIwFvoidiA24AUYIMtbDzv/7WraeeHbe3qLXcyTR1fe
YT5dZwBhZ098nyoF9yLSDUixOiTLWd6AHqECnUjplyQCilavXwDPJsPt5+3TIAgE
2K0+UH8XCAN3aigCxmRPSSWGq23W1e+gj8tby84bb0W/r/7iqqkCSwPgU4tYA/rS
gQIDAQABo4IBYzCCAV8wCQYDVR0TBAIwADAtBglghkgBhvhCAQ0EIBYeRWFzeS1S
U0EgR2VuZXJhdGVkIENlcnRpZmljYXRlMB0GA1UdDgQWBBR4a6SLMnrTY3oTsqpi
mIY9CtzNrjCB4QYDVR0jBIHZMIHWgBQSzWAE0qCAnnDtxpm4eyzGUv0ZoaGBsqSB
rzCBrDELMAkGA1UEBhMCVVMxCzAJBgNVBAgTAk9IMREwDwYDVQQHEwhDb2x1bWJ1
czESMBAGA1UEChMJVmlraW5nVlBOMR0wGwYDVQQLExRNeU9yZ2FuaXphdGlvbmFs
VW5pdDEVMBMGA1UEAxMMVmlraW5nVlBOIENBMRAwDgYDVQQpEwdFYXN5UlNBMSEw
HwYJKoZIhvcNAQkBFhJtZUBteWhvc3QubXlkb21haW6CCQDPNYXugL8qPjATBgNV
HSUEDDAKBggrBgEFBQcDAjALBgNVHQ8EBAMCB4AwDQYJKoZIhvcNAQELBQADggIB
AEei8pp1wUstO7hahinV/9gRHtI5BMgisVJEn2lSBjZaPAcq3MPfVJGy7PqlHatJ
put99hbyjmYjPJT2SI05d5I4AjYknJjx/O7UdH1BGQSFlL6mim6CL4EwR1a8u7aK
JpcP4RvAYr/NuzDSaDbWErFjygUhfDIE89RmQOTo7jPMk4svqVnaH8EBg5AeirWr
GljHzCo6rLHzU74Pq8rCDPzUY2lTfeA4wN/UkDBOWEPscQMHF91LXWKqTTwGi2UK
nyR6iTfaN+LX4HOhFFiMraoeKBNr5AN6sNDeGdb9B3Otj62dikvz/GMt6HRMSy99
/db6GHZToof/FfoEuzr83Hlx3IohoSRRSSzHTLq8TLTocOmBCSOLZHWAb09LMG57
cL1clLIJjXnX+usUe1olGvn1mlFaCo7rV6N37Z7+Kh1Kd2QkMt82GGcNna2I+mb6
ku5OJxE1WngRhVR+W1vt/xn3FVUKSKaX7AeCAD048lj66OuXknQ3B9xvT8CwaQqS
Z/5xZ642rXTkiiyszQz1c2x+8OIYpylhU9yrrTdtg+XsTOzQSek8IxZ2HDiIl7lQ
hj/uwHMSLjYrk2hxzeUfvM6faOr2E+58zDErKz75Jh3XS5GKLCgdFwyhf38ld0hj
fn2auFhXeg7SMaEzukCtMPVSdWAGkRexT1RKBxNq7WNi
-----END CERTIFICATE-----
