Certificate:
    Data:
        Version: 3 (0x2)
        Serial Number: 11478 (0x2cd6)
    Signature Algorithm: sha256WithRSAEncryption
        Issuer: C=US, ST=OH, L=Columbus, O=VikingVPN, OU=MyOrganizationalUnit, CN=VikingVPN CA/name=EasyRSA/emailAddress=me@myhost.mydomain
        Validity
            Not Before: Aug  5 17:26:12 2017 GMT
            Not After : Aug  3 17:26:12 2027 GMT
        Subject: CN=Client2986Cert6fab37
        Subject Public Key Info:
            Public Key Algorithm: rsaEncryption
                Public-Key: (4096 bit)
                Modulus:
                    00:cf:3b:5b:6c:15:98:f7:b1:ba:69:6a:d3:b9:80:
                    6e:bc:6d:25:97:9f:a4:b4:d0:a8:d1:cd:09:f8:67:
                    a4:49:f7:a8:68:c3:8a:83:dc:7b:83:36:69:d0:9a:
                    fd:c9:47:a8:9b:17:9c:a7:c5:f7:a0:5d:ff:a0:9e:
                    fb:07:47:3d:0e:d1:4b:ff:eb:f1:d9:8c:de:cc:28:
                    6a:8f:ff:23:8f:eb:a5:48:02:c1:16:1f:f6:6c:a8:
                    c2:0f:aa:8d:ed:7c:8b:d7:f6:85:bd:c0:8a:e0:88:
                    94:33:0b:ca:e6:78:0a:63:5f:dd:fb:15:59:0c:7a:
                    10:d8:fa:d3:0e:18:fa:ee:6b:e0:8f:7c:2f:89:e1:
                    f3:5a:06:3e:71:24:13:4a:45:2c:9a:68:8e:92:ea:
                    52:cb:1a:4d:21:aa:11:3b:3a:9e:17:79:8d:30:42:
                    2a:1e:23:8d:ea:4a:4d:8e:32:79:81:c6:a2:d1:ae:
                    69:55:c2:64:45:75:c3:62:c9:be:ab:9a:fa:d9:b1:
                    d0:3e:05:57:df:73:8b:90:1f:ac:09:de:a2:17:01:
                    12:be:6d:fc:62:bc:0a:bd:18:f3:7f:d7:86:c2:75:
                    c4:9e:ca:7c:1c:d3:a8:0b:70:fc:6b:61:08:03:6a:
                    b5:eb:82:39:a7:c7:71:5d:b4:95:c1:e7:d4:8c:40:
                    84:21:7b:46:4b:71:eb:c1:43:a0:ab:dc:a1:fc:c2:
                    7d:a7:63:31:9b:8c:a2:8a:c1:7c:f5:ed:07:4a:67:
                    fa:3e:bd:8d:b5:87:9b:88:2e:d9:94:6a:d8:fb:79:
                    ca:83:3b:8d:38:6b:90:43:a1:e3:89:e6:c5:87:e7:
                    0c:a2:50:38:f3:f5:ce:b0:90:b3:29:ec:04:27:9d:
                    53:ac:05:2f:82:e9:d0:1c:c5:61:de:30:bb:86:79:
                    e7:c5:e9:b3:09:34:d9:5e:52:68:1b:cd:44:7c:19:
                    7a:fe:39:02:cf:39:8a:a1:d1:6c:3c:6a:f3:34:a0:
                    da:7c:f1:75:0a:66:52:4c:77:a9:28:f3:a0:48:10:
                    07:ff:81:eb:86:0a:b9:b1:86:c1:05:ba:c9:49:dd:
                    83:27:ab:16:3c:7d:3e:18:a5:b3:aa:e9:50:8d:24:
                    f9:87:9d:be:54:ff:3b:d1:54:51:e1:eb:8d:de:a3:
                    c2:53:61:12:c6:bf:0c:a5:69:d6:43:c9:5c:f0:fe:
                    fc:4b:13:da:84:9a:c5:c5:25:5f:b2:09:7c:98:71:
                    03:3d:19:e0:9f:4d:01:0e:d4:a6:b0:25:41:08:f5:
                    bb:83:cc:ab:c1:b2:92:df:01:c3:1e:a8:b6:58:e7:
                    1c:7f:6f:cf:18:20:fb:80:a2:57:f8:4c:7c:52:63:
                    15:b1:03
                Exponent: 65537 (0x10001)
        X509v3 extensions:
            X509v3 Basic Constraints: 
                CA:FALSE
            Netscape Comment: 
                Easy-RSA Generated Certificate
            X509v3 Subject Key Identifier: 
                7A:A8:98:43:54:EB:41:3A:50:C3:23:6F:8A:AC:F0:7C:A2:E5:F4:C7
            X509v3 Authority Key Identifier: 
                keyid:12:CD:60:04:D2:A0:80:9E:70:ED:C6:99:B8:7B:2C:C6:52:FD:19:A1
                DirName:/C=US/ST=OH/L=Columbus/O=VikingVPN/OU=MyOrganizationalUnit/CN=VikingVPN CA/name=EasyRSA/emailAddress=me@myhost.mydomain
                serial:CF:35:85:EE:80:BF:2A:3E

            X509v3 Extended Key Usage: 
                TLS Web Client Authentication
            X509v3 Key Usage: 
                Digital Signature
    Signature Algorithm: sha256WithRSAEncryption
         7b:77:ff:94:f3:83:1e:df:05:9b:c0:7c:a9:47:bf:85:8b:b7:
         30:c7:3f:6c:12:d7:5d:55:f7:72:0a:c2:3c:9d:55:6e:47:f3:
         39:19:20:9c:7d:2d:09:91:87:83:2b:c2:70:0a:30:d0:24:80:
         e4:cb:44:39:88:24:11:b4:30:54:ab:f6:9a:23:89:a9:31:7d:
         af:50:fc:f3:d6:76:e5:90:b6:07:a5:52:0f:15:94:72:0b:56:
         19:39:82:0d:16:3d:d6:05:ea:dd:0c:d6:ba:81:60:0c:93:47:
         a8:72:5f:2b:8e:9b:27:e9:1f:a4:48:c5:69:d8:ba:d0:a1:f5:
         f7:a9:99:72:93:33:0f:98:6c:da:bf:7e:82:17:e4:35:a3:c2:
         84:e2:0a:07:a2:42:e2:40:fe:83:51:65:b0:9e:8b:80:29:51:
         57:8b:04:a7:f3:5f:16:a1:23:7f:89:b7:41:1a:53:51:74:84:
         a5:7e:05:d3:d1:6b:57:b2:24:82:37:6e:97:8a:b7:a8:11:08:
         87:ab:c3:8e:3e:39:a8:7c:8e:1e:9d:e2:54:6a:58:18:4d:25:
         ea:37:2c:89:79:2a:12:5b:80:e0:29:82:29:a4:bc:9c:f5:c0:
         f9:5c:4a:07:90:00:d6:0b:1c:3b:c6:91:08:40:44:5a:4d:67:
         21:fd:d1:46:ea:2a:3c:8d:dd:2d:78:a9:45:3f:f6:f8:12:5e:
         6e:34:1b:4f:52:43:86:6e:1c:d2:72:02:82:45:d2:40:d9:3e:
         ac:a6:60:86:ca:83:36:ff:62:8e:5b:f7:b2:c4:62:0a:da:6b:
         08:08:f0:bf:f4:d0:cf:a3:ff:a6:3f:80:30:db:ca:b8:19:ea:
         58:2a:b4:93:a6:a4:3a:d5:a0:d6:32:51:a0:6c:be:29:06:99:
         ea:84:69:c5:16:4d:29:42:7b:fd:33:6d:50:24:9f:98:90:65:
         f5:85:43:fb:b6:63:3b:d4:3f:15:95:70:12:2a:9e:e1:59:d0:
         ee:d8:01:91:9d:49:9e:89:cb:58:6d:9a:d9:57:d0:bf:69:d6:
         c5:d1:4e:a2:31:34:89:2f:b0:98:e5:2f:7b:0f:16:40:05:97:
         f8:54:cd:8d:5a:e6:40:3b:55:ca:c0:c0:d6:b4:f2:05:38:0d:
         89:49:19:b3:50:85:2b:b8:83:a2:46:f5:81:07:f3:cb:bf:1d:
         fb:3a:30:97:e3:e0:fa:97:58:3d:b3:72:c6:e0:0b:9d:59:ca:
         ba:b7:53:f4:8d:91:80:47:7b:60:b2:35:a2:4a:1f:b4:56:39:
         88:44:39:e6:8b:1e:fa:ca:17:a5:38:9c:0e:b0:42:e9:c3:16:
         fb:df:d3:eb:be:d1:16:0f
-----BEGIN CERTIFICATE-----
MIIGrTCCBJWgAwIBAgICLNYwDQYJKoZIhvcNAQELBQAwgawxCzAJBgNVBAYTAlVT
MQswCQYDVQQIEwJPSDERMA8GA1UEBxMIQ29sdW1idXMxEjAQBgNVBAoTCVZpa2lu
Z1ZQTjEdMBsGA1UECxMUTXlPcmdhbml6YXRpb25hbFVuaXQxFTATBgNVBAMTDFZp
a2luZ1ZQTiBDQTEQMA4GA1UEKRMHRWFzeVJTQTEhMB8GCSqGSIb3DQEJARYSbWVA
bXlob3N0Lm15ZG9tYWluMB4XDTE3MDgwNTE3MjYxMloXDTI3MDgwMzE3MjYxMlow
HzEdMBsGA1UEAxMUQ2xpZW50Mjk4NkNlcnQ2ZmFiMzcwggIiMA0GCSqGSIb3DQEB
AQUAA4ICDwAwggIKAoICAQDPO1tsFZj3sbppatO5gG68bSWXn6S00KjRzQn4Z6RJ
96how4qD3HuDNmnQmv3JR6ibF5ynxfegXf+gnvsHRz0O0Uv/6/HZjN7MKGqP/yOP
66VIAsEWH/ZsqMIPqo3tfIvX9oW9wIrgiJQzC8rmeApjX937FVkMehDY+tMOGPru
a+CPfC+J4fNaBj5xJBNKRSyaaI6S6lLLGk0hqhE7Op4XeY0wQioeI43qSk2OMnmB
xqLRrmlVwmRFdcNiyb6rmvrZsdA+BVffc4uQH6wJ3qIXARK+bfxivAq9GPN/14bC
dcSeynwc06gLcPxrYQgDarXrgjmnx3FdtJXB59SMQIQhe0ZLcevBQ6Cr3KH8wn2n
YzGbjKKKwXz17QdKZ/o+vY21h5uILtmUatj7ecqDO404a5BDoeOJ5sWH5wyiUDjz
9c6wkLMp7AQnnVOsBS+C6dAcxWHeMLuGeefF6bMJNNleUmgbzUR8GXr+OQLPOYqh
0Ww8avM0oNp88XUKZlJMd6ko86BIEAf/geuGCrmxhsEFuslJ3YMnqxY8fT4YpbOq
6VCNJPmHnb5U/zvRVFHh643eo8JTYRLGvwyladZDyVzw/vxLE9qEmsXFJV+yCXyY
cQM9GeCfTQEO1KawJUEI9buDzKvBspLfAcMeqLZY5xx/b88YIPuAolf4THxSYxWx
AwIDAQABo4IBYzCCAV8wCQYDVR0TBAIwADAtBglghkgBhvhCAQ0EIBYeRWFzeS1S
U0EgR2VuZXJhdGVkIENlcnRpZmljYXRlMB0GA1UdDgQWBBR6qJhDVOtBOlDDI2+K
rPB8ouX0xzCB4QYDVR0jBIHZMIHWgBQSzWAE0qCAnnDtxpm4eyzGUv0ZoaGBsqSB
rzCBrDELMAkGA1UEBhMCVVMxCzAJBgNVBAgTAk9IMREwDwYDVQQHEwhDb2x1bWJ1
czESMBAGA1UEChMJVmlraW5nVlBOMR0wGwYDVQQLExRNeU9yZ2FuaXphdGlvbmFs
VW5pdDEVMBMGA1UEAxMMVmlraW5nVlBOIENBMRAwDgYDVQQpEwdFYXN5UlNBMSEw
HwYJKoZIhvcNAQkBFhJtZUBteWhvc3QubXlkb21haW6CCQDPNYXugL8qPjATBgNV
HSUEDDAKBggrBgEFBQcDAjALBgNVHQ8EBAMCB4AwDQYJKoZIhvcNAQELBQADggIB
AHt3/5Tzgx7fBZvAfKlHv4WLtzDHP2wS111V93IKwjydVW5H8zkZIJx9LQmRh4Mr
wnAKMNAkgOTLRDmIJBG0MFSr9pojiakxfa9Q/PPWduWQtgelUg8VlHILVhk5gg0W
PdYF6t0M1rqBYAyTR6hyXyuOmyfpH6RIxWnYutCh9fepmXKTMw+YbNq/foIX5DWj
woTiCgeiQuJA/oNRZbCei4ApUVeLBKfzXxahI3+Jt0EaU1F0hKV+BdPRa1eyJII3
bpeKt6gRCIerw44+Oah8jh6d4lRqWBhNJeo3LIl5KhJbgOApgimkvJz1wPlcSgeQ
ANYLHDvGkQhARFpNZyH90UbqKjyN3S14qUU/9vgSXm40G09SQ4ZuHNJyAoJF0kDZ
PqymYIbKgzb/Yo5b97LEYgraawgI8L/00M+j/6Y/gDDbyrgZ6lgqtJOmpDrVoNYy
UaBsvikGmeqEacUWTSlCe/0zbVAkn5iQZfWFQ/u2YzvUPxWVcBIqnuFZ0O7YAZGd
SZ6Jy1htmtlX0L9p1sXRTqIxNIkvsJjlL3sPFkAFl/hUzY1a5kA7VcrAwNa08gU4
DYlJGbNQhSu4g6JG9YEH88u/Hfs6MJfj4PqXWD2zcsbgC51Zyrq3U/SNkYBHe2Cy
NaJKH7RWOYhEOeaLHvrKF6U4nA6wQunDFvvf0+u+0RYP
-----END CERTIFICATE-----
