Certificate:
    Data:
        Version: 3 (0x2)
        Serial Number: 11484 (0x2cdc)
    Signature Algorithm: sha256WithRSAEncryption
        Issuer: C=US, ST=OH, L=Columbus, O=VikingVPN, OU=MyOrganizationalUnit, CN=VikingVPN CA/name=EasyRSA/emailAddress=me@myhost.mydomain
        Validity
            Not Before: Aug  6 09:02:00 2017 GMT
            Not After : Aug  4 09:02:00 2027 GMT
        Subject: CN=Client2967Cert80ed6a
        Subject Public Key Info:
            Public Key Algorithm: rsaEncryption
                Public-Key: (4096 bit)
                Modulus:
                    00:c2:15:22:b2:5e:96:76:f7:4d:49:b9:43:35:f4:
                    20:d7:c5:86:28:f7:2c:f0:e7:4b:79:cb:52:3e:f0:
                    19:6e:3b:98:d6:b2:5c:c3:d6:ba:78:e1:6d:79:1f:
                    4f:77:a7:0d:3b:d9:8c:b8:8e:4d:97:a2:cb:cb:5b:
                    91:22:a8:89:4e:d0:ea:6b:9a:5f:c3:e2:d9:68:fb:
                    74:95:e6:01:1f:d9:47:f2:2e:5a:64:ae:23:8b:74:
                    29:a9:f6:ce:c1:86:df:0b:de:26:a0:2b:1d:80:04:
                    2e:78:ea:db:37:f4:cf:d6:4c:1e:6c:be:89:8b:3b:
                    18:a5:53:21:4a:09:33:9b:73:1d:c5:bc:fd:e0:07:
                    79:87:09:28:dd:75:7e:7d:4f:3c:14:37:3a:f2:e2:
                    8f:c7:5a:87:2f:bc:d1:2d:06:fc:64:61:d1:11:13:
                    7d:29:9a:40:d5:d0:ae:f3:16:6e:00:7a:49:1a:87:
                    66:ea:0b:6f:7c:45:0b:3b:b8:83:df:a4:d7:59:b6:
                    87:0d:c3:ed:29:f7:c6:18:b7:23:6f:a0:4d:25:12:
                    59:b5:70:8d:24:23:4e:90:15:b1:7b:c9:93:02:90:
                    0e:77:2b:73:cb:ce:5d:47:82:18:f5:ff:d5:c1:15:
                    ed:2e:f2:17:4e:a9:2c:23:c9:57:b7:6e:9d:8e:6d:
                    40:ba:87:37:21:1b:c2:47:bc:5d:01:5e:1d:62:3f:
                    32:0b:54:2b:be:45:d2:00:34:72:39:6e:81:28:5c:
                    2f:83:12:ae:c1:f7:f1:3b:67:ba:5e:c0:82:ae:d6:
                    2f:05:0a:d2:47:9d:74:07:a4:40:38:46:9f:76:9c:
                    f9:65:54:e4:08:ec:71:c8:60:c6:f8:a1:bc:6b:04:
                    5c:8a:25:69:0d:43:95:b7:e1:d6:4b:34:1b:55:ff:
                    11:07:fc:03:cd:cc:e7:de:ee:9e:e1:14:be:a8:be:
                    07:8f:2b:1f:6d:25:f9:96:44:10:b7:64:59:6a:bf:
                    91:6f:67:1b:99:3a:d0:3d:63:ac:ce:67:74:86:93:
                    f9:aa:4b:86:3a:2c:f5:15:4d:df:b2:eb:ef:d9:c6:
                    7d:1f:25:53:2c:df:1c:5e:d9:51:4e:5d:46:fe:b3:
                    17:3f:ee:1f:fc:a7:d8:38:3a:27:09:c4:45:ee:6e:
                    28:ce:75:78:ee:79:33:3a:fd:f2:5a:59:e9:49:7d:
                    43:aa:96:dd:52:20:5e:f2:ac:b7:0b:11:e9:b9:7e:
                    b1:ae:fd:8a:84:1b:73:44:37:34:15:e9:3b:a2:6b:
                    3e:a0:e6:f8:12:e0:e4:76:6f:7c:cd:c7:ab:fc:9e:
                    7c:03:59:37:20:0f:b2:fb:f3:aa:e6:4f:79:d3:a9:
                    1c:12:f5
                Exponent: 65537 (0x10001)
        X509v3 extensions:
            X509v3 Basic Constraints: 
                CA:FALSE
            Netscape Comment: 
                Easy-RSA Generated Certificate
            X509v3 Subject Key Identifier: 
                FB:FC:07:C8:FE:89:A5:2E:B3:70:6B:7F:E9:44:DD:F1:DF:7D:D8:67
            X509v3 Authority Key Identifier: 
                keyid:12:CD:60:04:D2:A0:80:9E:70:ED:C6:99:B8:7B:2C:C6:52:FD:19:A1
                DirName:/C=US/ST=OH/L=Columbus/O=VikingVPN/OU=MyOrganizationalUnit/CN=VikingVPN CA/name=EasyRSA/emailAddress=me@myhost.mydomain
                serial:CF:35:85:EE:80:BF:2A:3E

            X509v3 Extended Key Usage: 
                TLS Web Client Authentication
            X509v3 Key Usage: 
                Digital Signature
    Signature Algorithm: sha256WithRSAEncryption
         c4:0c:30:7a:8e:a9:74:9a:68:e7:c1:87:8c:0c:d8:eb:b7:9e:
         97:e4:ab:a5:c2:4d:02:cf:87:44:73:7d:d1:2e:76:6c:4f:ee:
         89:5a:69:b3:bf:f2:4e:85:fd:ca:eb:ba:68:00:98:52:4c:b8:
         89:0c:86:c6:26:db:8d:d8:6b:b8:ba:a9:18:0e:dd:07:91:94:
         a5:88:d6:c5:d0:45:6b:fe:1b:89:60:8e:bf:8a:5f:1a:67:7b:
         f7:f3:ca:50:5f:bb:f5:e7:7b:6d:83:9e:5d:7e:c8:6c:65:5d:
         85:7d:e9:50:74:ea:a5:de:29:88:d4:a8:4c:56:62:e1:55:ab:
         64:1f:87:b9:b5:0f:9f:17:70:51:8a:88:ac:6d:b2:ce:5a:22:
         9f:a1:c3:57:c0:c3:3a:24:e8:3b:19:d5:b2:76:6c:89:ff:d0:
         dd:da:9a:2d:48:fe:1c:42:8f:af:64:39:48:b6:0e:59:df:6d:
         7a:01:cf:78:46:fa:5e:10:fe:38:95:0e:89:29:d8:74:38:af:
         c2:16:83:ca:a8:77:d4:d0:a4:c6:8f:ac:c7:78:17:ea:b9:60:
         f2:fa:cd:38:13:35:97:95:ed:06:ae:12:b6:76:de:ce:9c:ed:
         06:b8:31:27:91:37:b1:25:7c:5c:2b:1a:7d:24:eb:8c:82:7c:
         e7:45:ba:8c:e6:4d:28:12:42:b7:3f:00:22:71:cd:15:7e:e1:
         21:2e:3a:b0:3a:cd:d5:8e:ae:14:74:27:a1:aa:f8:ed:1d:59:
         45:b3:fc:f5:16:92:1b:f6:89:20:9b:28:e2:6e:0a:bb:5e:ac:
         3e:b5:0f:b7:2c:cc:9f:61:9b:be:a7:52:2c:67:96:0d:3c:fc:
         82:ee:d9:7c:9b:42:3f:29:e6:53:c6:3c:ad:97:df:80:77:ec:
         f9:1c:1d:1d:e8:25:f0:11:6f:35:53:0e:88:dd:76:22:94:cb:
         c7:fd:75:b6:5c:cd:4e:66:22:58:61:a4:2d:5d:f3:45:aa:ad:
         46:ca:1c:2e:15:e5:af:1c:61:35:47:5b:50:28:86:48:78:9d:
         c2:b3:1b:33:d0:61:f2:6c:98:fe:2e:ca:88:1b:f7:f9:cd:71:
         df:60:90:87:21:2e:4b:78:2f:3d:55:ad:e1:2a:19:a7:12:b4:
         2c:e9:8f:1e:3e:f5:31:95:bf:ae:40:85:ba:62:39:2b:be:c9:
         76:de:76:78:49:f5:7f:10:18:ac:13:90:6c:e6:4c:ad:84:8b:
         f2:21:74:4a:d6:e2:74:ad:d7:5a:7b:f9:2e:5b:2e:d0:8c:5c:
         47:1f:2b:0e:a6:96:85:f9:c0:2d:7d:e5:18:b4:f2:19:d5:4e:
         2f:14:a7:7a:b4:fa:38:18
-----BEGIN CERTIFICATE-----
MIIGrTCCBJWgAwIBAgICLNwwDQYJKoZIhvcNAQELBQAwgawxCzAJBgNVBAYTAlVT
MQswCQYDVQQIEwJPSDERMA8GA1UEBxMIQ29sdW1idXMxEjAQBgNVBAoTCVZpa2lu
Z1ZQTjEdMBsGA1UECxMUTXlPcmdhbml6YXRpb25hbFVuaXQxFTATBgNVBAMTDFZp
a2luZ1ZQTiBDQTEQMA4GA1UEKRMHRWFzeVJTQTEhMB8GCSqGSIb3DQEJARYSbWVA
bXlob3N0Lm15ZG9tYWluMB4XDTE3MDgwNjA5MDIwMFoXDTI3MDgwNDA5MDIwMFow
HzEdMBsGA1UEAxMUQ2xpZW50Mjk2N0NlcnQ4MGVkNmEwggIiMA0GCSqGSIb3DQEB
AQUAA4ICDwAwggIKAoICAQDCFSKyXpZ2901JuUM19CDXxYYo9yzw50t5y1I+8Blu
O5jWslzD1rp44W15H093pw072Yy4jk2XosvLW5EiqIlO0Oprml/D4tlo+3SV5gEf
2UfyLlpkriOLdCmp9s7Bht8L3iagKx2ABC546ts39M/WTB5svomLOxilUyFKCTOb
cx3FvP3gB3mHCSjddX59TzwUNzry4o/HWocvvNEtBvxkYdERE30pmkDV0K7zFm4A
ekkah2bqC298RQs7uIPfpNdZtocNw+0p98YYtyNvoE0lElm1cI0kI06QFbF7yZMC
kA53K3PLzl1Hghj1/9XBFe0u8hdOqSwjyVe3bp2ObUC6hzchG8JHvF0BXh1iPzIL
VCu+RdIANHI5boEoXC+DEq7B9/E7Z7pewIKu1i8FCtJHnXQHpEA4Rp92nPllVOQI
7HHIYMb4obxrBFyKJWkNQ5W34dZLNBtV/xEH/APNzOfe7p7hFL6ovgePKx9tJfmW
RBC3ZFlqv5FvZxuZOtA9Y6zOZ3SGk/mqS4Y6LPUVTd+y6+/Zxn0fJVMs3xxe2VFO
XUb+sxc/7h/8p9g4OicJxEXubijOdXjueTM6/fJaWelJfUOqlt1SIF7yrLcLEem5
frGu/YqEG3NENzQV6Tuiaz6g5vgS4OR2b3zNx6v8nnwDWTcgD7L786rmT3nTqRwS
9QIDAQABo4IBYzCCAV8wCQYDVR0TBAIwADAtBglghkgBhvhCAQ0EIBYeRWFzeS1S
U0EgR2VuZXJhdGVkIENlcnRpZmljYXRlMB0GA1UdDgQWBBT7/AfI/omlLrNwa3/p
RN3x333YZzCB4QYDVR0jBIHZMIHWgBQSzWAE0qCAnnDtxpm4eyzGUv0ZoaGBsqSB
rzCBrDELMAkGA1UEBhMCVVMxCzAJBgNVBAgTAk9IMREwDwYDVQQHEwhDb2x1bWJ1
czESMBAGA1UEChMJVmlraW5nVlBOMR0wGwYDVQQLExRNeU9yZ2FuaXphdGlvbmFs
VW5pdDEVMBMGA1UEAxMMVmlraW5nVlBOIENBMRAwDgYDVQQpEwdFYXN5UlNBMSEw
HwYJKoZIhvcNAQkBFhJtZUBteWhvc3QubXlkb21haW6CCQDPNYXugL8qPjATBgNV
HSUEDDAKBggrBgEFBQcDAjALBgNVHQ8EBAMCB4AwDQYJKoZIhvcNAQELBQADggIB
AMQMMHqOqXSaaOfBh4wM2Ou3npfkq6XCTQLPh0RzfdEudmxP7olaabO/8k6F/crr
umgAmFJMuIkMhsYm243Ya7i6qRgO3QeRlKWI1sXQRWv+G4lgjr+KXxpne/fzylBf
u/Xne22Dnl1+yGxlXYV96VB06qXeKYjUqExWYuFVq2Qfh7m1D58XcFGKiKxtss5a
Ip+hw1fAwzok6DsZ1bJ2bIn/0N3ami1I/hxCj69kOUi2DlnfbXoBz3hG+l4Q/jiV
Dokp2HQ4r8IWg8qod9TQpMaPrMd4F+q5YPL6zTgTNZeV7QauErZ23s6c7Qa4MSeR
N7ElfFwrGn0k64yCfOdFuozmTSgSQrc/ACJxzRV+4SEuOrA6zdWOrhR0J6Gq+O0d
WUWz/PUWkhv2iSCbKOJuCrterD61D7cszJ9hm76nUixnlg08/ILu2XybQj8p5lPG
PK2X34B37PkcHR3oJfARbzVTDojddiKUy8f9dbZczU5mIlhhpC1d80WqrUbKHC4V
5a8cYTVHW1Aohkh4ncKzGzPQYfJsmP4uyogb9/nNcd9gkIchLkt4Lz1VreEqGacS
tCzpjx4+9TGVv65AhbpiOSu+yXbednhJ9X8QGKwTkGzmTK2Ei/IhdErW4nSt11p7
+S5bLtCMXEcfKw6mloX5wC195Ri08hnVTi8Up3q0+jgY
-----END CERTIFICATE-----
