Certificate:
    Data:
        Version: 3 (0x2)
        Serial Number: 11515 (0x2cfb)
    Signature Algorithm: sha256WithRSAEncryption
        Issuer: C=US, ST=OH, L=Columbus, O=VikingVPN, OU=MyOrganizationalUnit, CN=VikingVPN CA/name=EasyRSA/emailAddress=me@myhost.mydomain
        Validity
            Not Before: Aug 10 00:01:11 2017 GMT
            Not After : Aug  8 00:01:11 2027 GMT
        Subject: CN=Client2821Certa4c9ec
        Subject Public Key Info:
            Public Key Algorithm: rsaEncryption
                Public-Key: (4096 bit)
                Modulus:
                    00:bc:a8:af:a8:a2:b0:37:c6:7f:cd:5d:fd:f8:cb:
                    41:b5:6c:c3:ca:27:a4:90:d9:08:fc:ce:1b:7d:88:
                    35:66:3c:ac:64:96:76:54:2e:2b:89:a0:e1:6b:7a:
                    e4:66:9d:f7:68:09:a1:d5:cd:1f:6c:a6:09:73:e5:
                    50:95:df:74:46:2a:a6:d3:17:58:cc:9b:83:ac:0f:
                    02:48:70:bd:0f:5a:54:b5:7e:3a:dc:55:79:a4:1d:
                    5c:7f:e8:b6:e6:b0:a9:34:c9:73:c6:0a:c7:57:6a:
                    87:57:01:52:b8:84:58:19:0d:7d:df:78:c3:e2:48:
                    49:5f:e9:d8:d2:b4:e3:61:ae:dc:56:d3:c2:89:bd:
                    e2:3a:9e:52:38:c4:af:bc:c1:ba:40:ea:d8:bd:90:
                    32:30:32:a3:dd:36:03:cc:ce:9a:58:70:65:db:b0:
                    f0:c0:8c:2f:21:9c:68:05:67:dd:92:a7:45:14:3b:
                    34:03:8f:d0:e4:16:a0:80:0e:63:3c:60:52:fb:f7:
                    0e:19:40:56:44:f3:fd:53:f4:ec:fb:87:b3:b1:a7:
                    22:f3:3d:a3:58:15:4a:b3:8d:67:ef:7c:73:00:71:
                    e7:49:70:9f:40:70:30:d4:39:4f:0b:fe:e8:31:e6:
                    6e:d7:bc:c2:52:72:19:c6:f0:78:22:02:a7:39:e7:
                    c7:ff:f9:fa:2c:04:cf:66:18:5a:4a:bb:fa:7c:d7:
                    9d:67:f7:0d:9a:08:53:09:14:4f:31:a6:bb:0b:b0:
                    2b:82:d8:4b:09:c6:0a:7e:8a:9f:87:08:e8:54:e5:
                    8e:ef:3b:f8:23:21:05:e5:f0:f4:d0:aa:14:fe:8f:
                    9f:f3:30:e0:85:84:53:5f:2a:60:b8:e6:08:12:9b:
                    0e:bb:70:e8:4e:14:45:d6:66:23:c8:2f:e9:89:4b:
                    2e:22:66:b2:f1:4b:61:16:5d:46:34:4e:94:49:53:
                    b5:74:7b:46:80:1c:57:26:f0:4c:a3:4b:d0:d7:1d:
                    a3:dd:0b:8f:e2:1d:f4:7f:c1:1a:c7:5c:8c:5f:e2:
                    f7:03:01:92:3d:19:47:85:73:c8:88:3d:89:10:85:
                    ab:5c:ad:2a:94:0e:c6:a7:a8:b8:dd:b9:ad:74:b6:
                    7c:21:91:af:9f:6e:e5:af:f3:92:d0:69:d6:c2:f0:
                    0c:f4:3f:05:58:df:e9:5d:ac:b6:06:fd:d5:26:c7:
                    8c:fe:a8:43:2c:ce:8c:52:58:86:70:4f:9f:1f:fb:
                    32:cb:64:13:7a:13:5c:7f:9c:a1:38:0b:3c:14:5e:
                    a8:60:6a:c6:94:a7:8d:22:a9:13:f8:39:b2:1b:e2:
                    05:4e:f8:75:c1:3b:df:a1:40:47:5c:62:1e:78:b3:
                    71:12:09
                Exponent: 65537 (0x10001)
        X509v3 extensions:
            X509v3 Basic Constraints: 
                CA:FALSE
            Netscape Comment: 
                Easy-RSA Generated Certificate
            X509v3 Subject Key Identifier: 
                A5:13:47:E2:FA:8B:24:8C:2F:3A:6F:35:E9:30:21:CD:42:DD:29:BC
            X509v3 Authority Key Identifier: 
                keyid:12:CD:60:04:D2:A0:80:9E:70:ED:C6:99:B8:7B:2C:C6:52:FD:19:A1
                DirName:/C=US/ST=OH/L=Columbus/O=VikingVPN/OU=MyOrganizationalUnit/CN=VikingVPN CA/name=EasyRSA/emailAddress=me@myhost.mydomain
                serial:CF:35:85:EE:80:BF:2A:3E

            X509v3 Extended Key Usage: 
                TLS Web Client Authentication
            X509v3 Key Usage: 
                Digital Signature
    Signature Algorithm: sha256WithRSAEncryption
         e7:b2:8e:71:8c:18:c8:65:21:35:d5:de:35:18:22:05:6a:b7:
         c8:08:4e:fc:ea:58:ac:f4:e3:cc:e1:44:77:05:78:cf:e0:63:
         c2:ca:6b:db:64:40:f2:20:95:72:66:47:a5:50:98:40:b2:c9:
         a7:29:20:b5:19:3c:35:ad:33:d0:f5:96:1b:93:26:74:51:65:
         e0:e7:ce:3a:44:11:ba:19:9b:3c:cb:2d:69:7f:9d:be:ca:ab:
         d5:1f:0a:eb:53:4b:5b:5b:c3:c6:1a:be:d1:81:b9:b5:cd:62:
         2b:3a:82:eb:8e:af:0b:9c:d4:32:82:68:c7:37:11:1a:7b:cf:
         08:1d:cd:44:dc:b4:ae:b0:0f:07:8d:3a:54:55:99:e8:02:42:
         92:7b:5e:db:e5:cf:f8:42:d2:c9:f3:51:d0:f2:e6:d5:3d:62:
         03:99:c4:51:64:7e:27:2a:f2:63:45:96:b2:06:29:c2:77:ed:
         a2:02:e3:bd:60:36:56:d6:ce:ba:22:3c:35:33:dc:62:d1:78:
         fe:bc:63:f7:a4:be:c9:a1:fb:99:a5:2b:0c:88:88:53:d2:d2:
         34:9d:44:f7:c0:92:10:75:e4:bf:53:c9:0a:59:02:a2:06:0b:
         03:c0:df:99:f7:b0:da:c7:66:79:b5:8f:95:2d:ee:86:97:4b:
         1c:ac:45:2b:bb:33:34:3e:14:d0:01:c3:13:40:b3:3f:f4:60:
         d8:45:5c:79:c2:83:26:7c:4f:f9:a5:21:a0:3e:8c:19:92:92:
         f9:c6:a6:5e:ef:e6:57:e6:39:b7:6b:72:8b:53:47:54:d9:37:
         da:4e:8b:1d:e9:55:98:da:86:e7:ee:70:4c:49:3d:d2:0f:7a:
         a2:e3:95:4f:af:11:64:9d:e5:9d:8b:15:65:64:ef:36:7c:a6:
         18:46:ef:2a:93:87:a3:6c:a4:07:b8:a6:3d:b6:6d:1a:64:90:
         fd:43:45:b8:e5:5e:bd:c0:12:20:78:17:7a:d2:ba:8a:d0:f6:
         ff:eb:95:84:d8:a1:91:0f:dd:b7:81:7b:3c:9a:e6:44:9c:e9:
         c8:86:90:71:f2:c1:c6:28:29:10:ee:70:b1:93:2f:7d:a0:49:
         e4:24:23:5c:a3:78:35:d5:e4:96:86:12:dc:50:b5:18:77:d5:
         31:56:85:3e:5c:ed:47:6f:50:18:9b:85:68:f9:18:66:ad:69:
         5c:a4:7c:23:5e:00:95:5c:eb:98:2f:c4:aa:7e:27:07:18:fd:
         a1:da:02:cf:9a:cb:5d:f9:91:73:1c:ca:03:dd:d2:05:da:0a:
         7b:77:0c:08:ad:1e:a3:49:4a:44:8e:2e:39:07:9d:80:e9:ef:
         e1:2a:30:ca:3a:5e:95:52
-----BEGIN CERTIFICATE-----
MIIGrTCCBJWgAwIBAgICLPswDQYJKoZIhvcNAQELBQAwgawxCzAJBgNVBAYTAlVT
MQswCQYDVQQIEwJPSDERMA8GA1UEBxMIQ29sdW1idXMxEjAQBgNVBAoTCVZpa2lu
Z1ZQTjEdMBsGA1UECxMUTXlPcmdhbml6YXRpb25hbFVuaXQxFTATBgNVBAMTDFZp
a2luZ1ZQTiBDQTEQMA4GA1UEKRMHRWFzeVJTQTEhMB8GCSqGSIb3DQEJARYSbWVA
bXlob3N0Lm15ZG9tYWluMB4XDTE3MDgxMDAwMDExMVoXDTI3MDgwODAwMDExMVow
HzEdMBsGA1UEAxMUQ2xpZW50MjgyMUNlcnRhNGM5ZWMwggIiMA0GCSqGSIb3DQEB
AQUAA4ICDwAwggIKAoICAQC8qK+oorA3xn/NXf34y0G1bMPKJ6SQ2Qj8zht9iDVm
PKxklnZULiuJoOFreuRmnfdoCaHVzR9spglz5VCV33RGKqbTF1jMm4OsDwJIcL0P
WlS1fjrcVXmkHVx/6LbmsKk0yXPGCsdXaodXAVK4hFgZDX3feMPiSElf6djStONh
rtxW08KJveI6nlI4xK+8wbpA6ti9kDIwMqPdNgPMzppYcGXbsPDAjC8hnGgFZ92S
p0UUOzQDj9DkFqCADmM8YFL79w4ZQFZE8/1T9Oz7h7OxpyLzPaNYFUqzjWfvfHMA
cedJcJ9AcDDUOU8L/ugx5m7XvMJSchnG8HgiAqc558f/+fosBM9mGFpKu/p8151n
9w2aCFMJFE8xprsLsCuC2EsJxgp+ip+HCOhU5Y7vO/gjIQXl8PTQqhT+j5/zMOCF
hFNfKmC45ggSmw67cOhOFEXWZiPIL+mJSy4iZrLxS2EWXUY0TpRJU7V0e0aAHFcm
8EyjS9DXHaPdC4/iHfR/wRrHXIxf4vcDAZI9GUeFc8iIPYkQhatcrSqUDsanqLjd
ua10tnwhka+fbuWv85LQadbC8Az0PwVY3+ldrLYG/dUmx4z+qEMszoxSWIZwT58f
+zLLZBN6E1x/nKE4CzwUXqhgasaUp40iqRP4ObIb4gVO+HXBO9+hQEdcYh54s3ES
CQIDAQABo4IBYzCCAV8wCQYDVR0TBAIwADAtBglghkgBhvhCAQ0EIBYeRWFzeS1S
U0EgR2VuZXJhdGVkIENlcnRpZmljYXRlMB0GA1UdDgQWBBSlE0fi+oskjC86bzXp
MCHNQt0pvDCB4QYDVR0jBIHZMIHWgBQSzWAE0qCAnnDtxpm4eyzGUv0ZoaGBsqSB
rzCBrDELMAkGA1UEBhMCVVMxCzAJBgNVBAgTAk9IMREwDwYDVQQHEwhDb2x1bWJ1
czESMBAGA1UEChMJVmlraW5nVlBOMR0wGwYDVQQLExRNeU9yZ2FuaXphdGlvbmFs
VW5pdDEVMBMGA1UEAxMMVmlraW5nVlBOIENBMRAwDgYDVQQpEwdFYXN5UlNBMSEw
HwYJKoZIhvcNAQkBFhJtZUBteWhvc3QubXlkb21haW6CCQDPNYXugL8qPjATBgNV
HSUEDDAKBggrBgEFBQcDAjALBgNVHQ8EBAMCB4AwDQYJKoZIhvcNAQELBQADggIB
AOeyjnGMGMhlITXV3jUYIgVqt8gITvzqWKz048zhRHcFeM/gY8LKa9tkQPIglXJm
R6VQmECyyacpILUZPDWtM9D1lhuTJnRRZeDnzjpEEboZmzzLLWl/nb7Kq9UfCutT
S1tbw8YavtGBubXNYis6guuOrwuc1DKCaMc3ERp7zwgdzUTctK6wDweNOlRVmegC
QpJ7Xtvlz/hC0snzUdDy5tU9YgOZxFFkficq8mNFlrIGKcJ37aIC471gNlbWzroi
PDUz3GLReP68Y/ekvsmh+5mlKwyIiFPS0jSdRPfAkhB15L9TyQpZAqIGCwPA35n3
sNrHZnm1j5Ut7oaXSxysRSu7MzQ+FNABwxNAsz/0YNhFXHnCgyZ8T/mlIaA+jBmS
kvnGpl7v5lfmObdrcotTR1TZN9pOix3pVZjahufucExJPdIPeqLjlU+vEWSd5Z2L
FWVk7zZ8phhG7yqTh6NspAe4pj22bRpkkP1DRbjlXr3AEiB4F3rSuorQ9v/rlYTY
oZEP3beBezya5kSc6ciGkHHywcYoKRDucLGTL32gSeQkI1yjeDXV5JaGEtxQtRh3
1TFWhT5c7UdvUBibhWj5GGataVykfCNeAJVc65gvxKp+JwcY/aHaAs+ay135kXMc
ygPd0gXaCnt3DAitHqNJSkSOLjkHnYDp7+EqMMo6XpVS
-----END CERTIFICATE-----
