Certificate:
    Data:
        Version: 3 (0x2)
        Serial Number: 11518 (0x2cfe)
    Signature Algorithm: sha256WithRSAEncryption
        Issuer: C=US, ST=OH, L=Columbus, O=VikingVPN, OU=MyOrganizationalUnit, CN=VikingVPN CA/name=EasyRSA/emailAddress=me@myhost.mydomain
        Validity
            Not Before: Aug 11 09:49:40 2017 GMT
            Not After : Aug  9 09:49:40 2027 GMT
        Subject: CN=Client2953Cert80f349
        Subject Public Key Info:
            Public Key Algorithm: rsaEncryption
                Public-Key: (4096 bit)
                Modulus:
                    00:d3:8c:d4:4f:05:61:ca:d4:4a:b4:ed:35:87:0a:
                    25:97:fd:b7:8b:54:5d:c7:d8:b5:d5:99:6b:ec:9a:
                    dc:f9:e0:f9:5f:93:21:9e:1a:52:4d:96:73:c8:a5:
                    39:bb:d8:76:05:5a:46:93:55:f0:40:90:eb:ca:a4:
                    22:27:ef:51:7b:75:db:1f:1e:09:dc:04:3b:c6:b0:
                    91:9b:a1:7a:9c:eb:07:7f:a8:18:a2:95:61:6e:74:
                    3b:5f:83:ea:8b:b8:68:8d:8e:8f:33:93:3c:6a:3d:
                    f3:97:9a:e4:fb:fd:10:19:aa:eb:92:c6:2c:95:69:
                    98:c7:33:2d:96:a4:61:31:70:44:88:fe:98:bf:37:
                    af:16:99:46:e7:ae:94:d3:43:28:a3:95:1d:51:51:
                    69:64:84:04:fc:6f:53:7a:5d:41:0d:f1:08:3c:77:
                    88:d9:36:11:ff:a7:7a:6b:e3:c9:6c:1d:b3:d0:fa:
                    38:b5:e3:0b:f2:e0:b9:68:6f:75:b5:ee:71:e0:56:
                    3f:82:ac:e8:a2:16:51:3a:27:2c:38:91:f2:9c:23:
                    0f:73:6c:b8:b8:7f:66:1a:b7:95:dc:12:32:2b:dc:
                    81:43:cb:f2:60:8f:20:47:24:c7:4e:f1:f5:ac:b7:
                    cb:94:1e:f1:47:06:02:92:02:24:a2:aa:2e:d0:8b:
                    e5:95:76:37:7a:1b:91:bb:89:cf:fe:e9:9e:f7:62:
                    d5:a3:f4:5d:d8:30:41:70:d8:98:ba:5d:83:9f:5c:
                    c8:19:84:b9:e0:ed:ba:63:2e:ae:d1:dc:16:84:80:
                    78:af:90:e3:15:55:6c:4d:59:4e:38:d3:94:6b:79:
                    b1:79:5d:86:43:8d:79:45:ca:17:6e:85:f8:25:77:
                    02:6f:e6:df:e5:0f:a4:b8:82:d0:77:57:88:6c:a0:
                    a6:8a:1b:71:04:ff:47:34:6e:59:05:4f:6f:5f:9b:
                    c8:f8:d3:8c:f2:cc:a3:7b:0f:ae:f6:e1:33:1f:dc:
                    ea:9d:98:fd:8a:f7:9c:2d:06:b5:c9:b4:49:0f:04:
                    da:61:35:f6:c2:58:00:82:89:ec:a6:40:4e:a1:5d:
                    c1:88:06:fc:02:9b:34:e5:ec:d5:3a:d8:dd:59:9b:
                    39:98:cd:f0:81:57:8b:e1:9a:e5:53:21:9f:2d:db:
                    f1:4c:da:35:33:0a:2f:51:48:c5:06:ef:ac:7b:b8:
                    68:0d:45:05:65:4e:e1:d9:4e:f5:21:05:6e:a0:01:
                    8a:e7:6e:d7:cf:c1:82:42:c4:d3:eb:dd:21:e7:e4:
                    97:95:58:4e:29:3d:6b:5f:27:81:88:bd:c4:22:55:
                    ff:4b:45:ea:b9:fd:e7:f6:e8:29:b0:63:43:ff:a6:
                    5b:7a:5b
                Exponent: 65537 (0x10001)
        X509v3 extensions:
            X509v3 Basic Constraints: 
                CA:FALSE
            Netscape Comment: 
                Easy-RSA Generated Certificate
            X509v3 Subject Key Identifier: 
                DA:25:88:89:9F:10:70:BE:11:F9:F6:94:42:A7:1E:74:AF:97:CB:CC
            X509v3 Authority Key Identifier: 
                keyid:12:CD:60:04:D2:A0:80:9E:70:ED:C6:99:B8:7B:2C:C6:52:FD:19:A1
                DirName:/C=US/ST=OH/L=Columbus/O=VikingVPN/OU=MyOrganizationalUnit/CN=VikingVPN CA/name=EasyRSA/emailAddress=me@myhost.mydomain
                serial:CF:35:85:EE:80:BF:2A:3E

            X509v3 Extended Key Usage: 
                TLS Web Client Authentication
            X509v3 Key Usage: 
                Digital Signature
    Signature Algorithm: sha256WithRSAEncryption
         9c:72:89:7f:db:86:6d:66:46:f0:01:0d:04:c1:cd:c1:56:8b:
         97:f1:0c:06:eb:1b:46:ec:4c:6c:78:91:c4:ea:1b:b9:aa:33:
         4d:48:78:5c:b5:6d:09:0d:28:a3:ab:84:5c:ac:3f:86:7b:de:
         52:1b:de:a1:d4:20:88:93:58:07:44:18:0b:44:e6:e6:6a:62:
         72:01:a0:37:dd:2e:64:0d:ce:0e:31:d6:ca:88:a1:26:19:fc:
         23:76:70:49:f4:f0:96:95:9c:8c:27:7c:f2:bf:e2:91:47:77:
         88:a9:8e:90:82:e4:78:6a:72:1a:7c:7b:59:0a:41:f3:dd:9a:
         e2:28:55:00:28:98:59:85:cb:42:33:17:19:61:31:46:a6:e1:
         16:5c:ff:d6:57:45:fd:d9:6a:42:4c:4c:f3:43:68:07:44:c7:
         fc:89:3f:07:fb:52:11:b1:3c:e1:f3:f5:90:0a:82:43:1f:10:
         cc:8b:1e:48:36:32:94:5c:d9:df:a9:93:e7:f2:77:45:ef:72:
         0c:f9:65:08:29:b9:f8:84:ab:9d:08:fa:6a:6e:fb:e2:a5:5b:
         ff:05:1a:08:74:63:1b:c2:55:e1:ee:42:8c:6f:bf:2d:84:c9:
         1e:1c:33:29:61:e4:9c:f8:b3:ec:b8:24:47:f3:5f:bb:af:36:
         15:8f:31:c2:58:c2:18:a9:4a:86:99:d6:31:db:80:db:22:a0:
         72:54:a2:13:5c:78:c1:86:45:97:f5:6b:33:70:46:5b:dd:45:
         40:13:04:68:e2:58:f9:98:8d:1a:14:5b:d3:c6:ee:19:12:2b:
         3c:9d:0d:07:c1:84:b3:ae:8c:ef:58:d1:0c:e5:fa:88:6b:46:
         de:db:e5:f3:13:c7:6c:c8:9b:d5:51:3c:1a:98:f6:e0:50:d4:
         11:24:d2:d1:6a:da:b1:4d:4b:d7:10:9a:14:0f:8b:39:31:c5:
         fb:3d:05:c0:a8:4e:fa:ea:0b:43:f4:25:bc:26:d8:a3:a3:ac:
         f4:0a:b3:b9:04:18:a2:d7:91:b9:de:03:e5:51:d0:75:41:e8:
         7d:a9:ed:b1:a8:17:1b:58:39:dd:55:36:90:eb:27:70:59:96:
         eb:f7:d3:a7:5f:b0:94:0e:38:e5:ca:ac:5d:95:60:bd:80:be:
         9c:e8:8f:a4:a6:da:1e:16:7e:c1:ef:cf:1f:43:fe:49:2c:a7:
         6c:34:20:36:61:ef:fb:27:26:e1:16:c1:77:07:65:43:54:43:
         40:2e:fe:06:79:b0:b8:27:d1:a0:cd:e3:b3:36:7b:30:f4:e5:
         ed:7f:e4:72:ab:f1:84:95:d5:02:8f:20:4f:b2:db:c4:f6:fc:
         61:a2:83:9e:ed:83:11:43
-----BEGIN CERTIFICATE-----
MIIGrTCCBJWgAwIBAgICLP4wDQYJKoZIhvcNAQELBQAwgawxCzAJBgNVBAYTAlVT
MQswCQYDVQQIEwJPSDERMA8GA1UEBxMIQ29sdW1idXMxEjAQBgNVBAoTCVZpa2lu
Z1ZQTjEdMBsGA1UECxMUTXlPcmdhbml6YXRpb25hbFVuaXQxFTATBgNVBAMTDFZp
a2luZ1ZQTiBDQTEQMA4GA1UEKRMHRWFzeVJTQTEhMB8GCSqGSIb3DQEJARYSbWVA
bXlob3N0Lm15ZG9tYWluMB4XDTE3MDgxMTA5NDk0MFoXDTI3MDgwOTA5NDk0MFow
HzEdMBsGA1UEAxMUQ2xpZW50Mjk1M0NlcnQ4MGYzNDkwggIiMA0GCSqGSIb3DQEB
AQUAA4ICDwAwggIKAoICAQDTjNRPBWHK1Eq07TWHCiWX/beLVF3H2LXVmWvsmtz5
4PlfkyGeGlJNlnPIpTm72HYFWkaTVfBAkOvKpCIn71F7ddsfHgncBDvGsJGboXqc
6wd/qBiilWFudDtfg+qLuGiNjo8zkzxqPfOXmuT7/RAZquuSxiyVaZjHMy2WpGEx
cESI/pi/N68WmUbnrpTTQyijlR1RUWlkhAT8b1N6XUEN8Qg8d4jZNhH/p3pr48ls
HbPQ+ji14wvy4Llob3W17nHgVj+CrOiiFlE6Jyw4kfKcIw9zbLi4f2Yat5XcEjIr
3IFDy/JgjyBHJMdO8fWst8uUHvFHBgKSAiSiqi7Qi+WVdjd6G5G7ic/+6Z73YtWj
9F3YMEFw2Ji6XYOfXMgZhLng7bpjLq7R3BaEgHivkOMVVWxNWU4405RrebF5XYZD
jXlFyhduhfgldwJv5t/lD6S4gtB3V4hsoKaKG3EE/0c0blkFT29fm8j404zyzKN7
D6724TMf3OqdmP2K95wtBrXJtEkPBNphNfbCWACCieymQE6hXcGIBvwCmzTl7NU6
2N1ZmzmYzfCBV4vhmuVTIZ8t2/FM2jUzCi9RSMUG76x7uGgNRQVlTuHZTvUhBW6g
AYrnbtfPwYJCxNPr3SHn5JeVWE4pPWtfJ4GIvcQiVf9LReq5/ef26CmwY0P/plt6
WwIDAQABo4IBYzCCAV8wCQYDVR0TBAIwADAtBglghkgBhvhCAQ0EIBYeRWFzeS1S
U0EgR2VuZXJhdGVkIENlcnRpZmljYXRlMB0GA1UdDgQWBBTaJYiJnxBwvhH59pRC
px50r5fLzDCB4QYDVR0jBIHZMIHWgBQSzWAE0qCAnnDtxpm4eyzGUv0ZoaGBsqSB
rzCBrDELMAkGA1UEBhMCVVMxCzAJBgNVBAgTAk9IMREwDwYDVQQHEwhDb2x1bWJ1
czESMBAGA1UEChMJVmlraW5nVlBOMR0wGwYDVQQLExRNeU9yZ2FuaXphdGlvbmFs
VW5pdDEVMBMGA1UEAxMMVmlraW5nVlBOIENBMRAwDgYDVQQpEwdFYXN5UlNBMSEw
HwYJKoZIhvcNAQkBFhJtZUBteWhvc3QubXlkb21haW6CCQDPNYXugL8qPjATBgNV
HSUEDDAKBggrBgEFBQcDAjALBgNVHQ8EBAMCB4AwDQYJKoZIhvcNAQELBQADggIB
AJxyiX/bhm1mRvABDQTBzcFWi5fxDAbrG0bsTGx4kcTqG7mqM01IeFy1bQkNKKOr
hFysP4Z73lIb3qHUIIiTWAdEGAtE5uZqYnIBoDfdLmQNzg4x1sqIoSYZ/CN2cEn0
8JaVnIwnfPK/4pFHd4ipjpCC5Hhqchp8e1kKQfPdmuIoVQAomFmFy0IzFxlhMUam
4RZc/9ZXRf3ZakJMTPNDaAdEx/yJPwf7UhGxPOHz9ZAKgkMfEMyLHkg2MpRc2d+p
k+fyd0Xvcgz5ZQgpufiEq50I+mpu++KlW/8FGgh0YxvCVeHuQoxvvy2EyR4cMylh
5Jz4s+y4JEfzX7uvNhWPMcJYwhipSoaZ1jHbgNsioHJUohNceMGGRZf1azNwRlvd
RUATBGjiWPmYjRoUW9PG7hkSKzydDQfBhLOujO9Y0Qzl+ohrRt7b5fMTx2zIm9VR
PBqY9uBQ1BEk0tFq2rFNS9cQmhQPizkxxfs9BcCoTvrqC0P0Jbwm2KOjrPQKs7kE
GKLXkbneA+VR0HVB6H2p7bGoFxtYOd1VNpDrJ3BZluv306dfsJQOOOXKrF2VYL2A
vpzoj6Sm2h4WfsHvzx9D/kksp2w0IDZh7/snJuEWwXcHZUNUQ0Au/gZ5sLgn0aDN
47M2ezD05e1/5HKr8YSV1QKPIE+y28T2/GGig57tgxFD
-----END CERTIFICATE-----
