Certificate:
    Data:
        Version: 3 (0x2)
        Serial Number: 11528 (0x2d08)
    Signature Algorithm: sha256WithRSAEncryption
        Issuer: C=US, ST=OH, L=Columbus, O=VikingVPN, OU=MyOrganizationalUnit, CN=VikingVPN CA/name=EasyRSA/emailAddress=me@myhost.mydomain
        Validity
            Not Before: Aug 11 15:45:18 2017 GMT
            Not After : Aug  9 15:45:18 2027 GMT
        Subject: CN=Client3041Certf6971f
        Subject Public Key Info:
            Public Key Algorithm: rsaEncryption
                Public-Key: (4096 bit)
                Modulus:
                    00:b3:7e:21:14:3f:4c:e0:c7:8b:4d:68:ec:60:10:
                    27:ce:b8:02:69:12:24:1d:da:b3:93:13:74:7b:4b:
                    56:2b:1d:7b:66:73:e3:ba:df:2d:b5:91:76:db:07:
                    96:35:3a:5b:f9:3a:6c:86:12:1e:e4:01:93:0c:88:
                    c2:7d:47:26:62:9e:f5:52:47:34:d8:df:ac:23:88:
                    a3:60:f2:71:d7:d3:d4:fa:17:ed:96:6d:3d:36:34:
                    32:4b:1e:c9:2b:e4:2f:85:95:10:0b:4f:51:8d:30:
                    82:8f:1a:bc:6c:14:d1:15:8e:97:21:17:b7:6c:fc:
                    f8:cb:bd:1d:9b:2f:3a:46:8a:f4:82:b1:57:d8:85:
                    b7:31:7d:9e:7d:dd:73:a2:64:97:c3:9a:5f:fb:5e:
                    b8:fc:d9:77:93:89:51:12:c9:c2:14:de:6b:02:a3:
                    26:07:c0:73:07:b3:e0:73:88:ce:eb:df:29:f4:9b:
                    a0:1e:cc:57:82:e7:3e:a6:d4:1f:66:28:78:ac:f3:
                    90:44:2a:d9:2e:ab:a4:d8:4f:4f:f8:9b:ae:96:7d:
                    c6:bf:e2:b4:b7:15:c9:0d:81:55:c3:17:f1:76:d9:
                    df:f2:63:c5:92:47:56:b0:3b:7a:53:f3:2f:48:51:
                    af:23:34:42:e2:84:8f:36:e5:3f:fd:66:7e:cb:51:
                    eb:ef:a9:b5:5c:8e:82:fd:22:ca:3e:4b:9a:f5:37:
                    4f:ed:a3:f2:9a:4d:eb:e4:da:4e:85:90:01:2c:71:
                    2f:ea:1b:05:9a:de:df:db:68:a9:33:25:37:cd:f8:
                    dd:5c:02:4f:c1:e5:da:13:ec:c3:16:33:9c:4a:44:
                    1e:63:80:e9:79:ee:8f:3b:cc:de:bf:a9:c1:6f:38:
                    be:89:b5:37:c9:39:a2:49:df:1b:8d:2a:15:37:63:
                    32:27:a8:a4:67:5f:b1:7b:1b:92:78:c8:7f:f5:91:
                    2c:48:10:cd:af:4d:49:ac:f1:96:bf:75:1b:f8:df:
                    73:ce:b9:c1:cc:08:3a:e4:e6:a9:9c:5c:09:89:24:
                    47:6e:75:f5:b8:fd:68:1c:41:82:54:43:69:35:9b:
                    b2:71:8c:4e:69:fc:00:4e:ad:4f:15:d7:ba:eb:0c:
                    26:d6:ad:aa:14:5c:80:7d:bb:a4:18:16:05:22:eb:
                    8a:7e:be:92:f0:2a:0f:02:5e:ec:38:ed:42:55:7d:
                    2f:6c:67:d2:4b:6c:70:62:ec:5a:69:d3:4b:83:3b:
                    6c:9d:50:59:88:1f:49:22:5d:a3:75:89:48:09:fb:
                    b4:54:26:1a:59:0d:fd:42:5e:7d:e0:31:67:e1:77:
                    68:4c:41:2f:0a:ce:95:ce:84:ef:1e:e9:73:66:6c:
                    ea:9f:a1
                Exponent: 65537 (0x10001)
        X509v3 extensions:
            X509v3 Basic Constraints: 
                CA:FALSE
            Netscape Comment: 
                Easy-RSA Generated Certificate
            X509v3 Subject Key Identifier: 
                4A:DB:0B:73:4B:80:4E:AD:06:53:9E:99:87:97:F8:53:01:EA:58:2B
            X509v3 Authority Key Identifier: 
                keyid:12:CD:60:04:D2:A0:80:9E:70:ED:C6:99:B8:7B:2C:C6:52:FD:19:A1
                DirName:/C=US/ST=OH/L=Columbus/O=VikingVPN/OU=MyOrganizationalUnit/CN=VikingVPN CA/name=EasyRSA/emailAddress=me@myhost.mydomain
                serial:CF:35:85:EE:80:BF:2A:3E

            X509v3 Extended Key Usage: 
                TLS Web Client Authentication
            X509v3 Key Usage: 
                Digital Signature
    Signature Algorithm: sha256WithRSAEncryption
         da:09:59:dd:c4:7d:c6:57:44:6e:26:fd:e1:82:c5:92:78:23:
         04:ca:a2:4e:40:f8:de:71:81:27:5a:aa:a6:d3:1a:b3:de:9b:
         8e:82:50:fd:54:c1:72:2a:4d:8e:99:a4:99:ab:f2:44:10:f8:
         69:5a:d8:1c:1d:2d:19:1a:7e:4c:e0:2a:fe:74:02:d7:3f:6b:
         9a:bb:21:e6:a2:c9:0f:95:c1:aa:aa:18:20:7d:d4:43:f9:cd:
         58:c8:e1:ad:31:53:4c:46:ee:31:0d:c6:a2:21:60:79:95:9a:
         cf:48:95:8d:09:bb:17:fb:11:64:ca:3f:44:e9:ab:27:ba:bf:
         b9:27:c7:f2:20:0e:4b:54:21:b3:9d:fb:40:7e:ab:90:14:57:
         22:94:fe:f0:aa:db:85:da:33:4b:19:81:8b:ab:88:28:cb:ff:
         b1:75:f9:3c:41:b4:ee:86:14:94:41:93:dc:d9:eb:d1:8f:e2:
         d8:d8:81:4d:9d:2c:33:94:ba:6d:00:da:37:b8:56:21:48:01:
         a6:a6:b8:c5:e6:5e:83:90:d2:a6:56:8c:19:ec:34:64:a6:0e:
         89:d5:92:2e:9a:ef:7e:7f:9e:50:11:95:7f:cd:a9:a0:2d:9b:
         23:27:92:4b:fb:dc:fc:75:6b:b6:49:2e:9c:c7:91:2b:bf:1d:
         e9:e5:9d:86:92:17:c9:be:db:4b:d3:13:5c:26:84:c4:e4:ae:
         e3:b9:01:89:c0:90:3c:98:82:24:f0:cf:96:d1:fc:f9:b6:50:
         67:a7:83:76:8b:cb:6e:35:c0:06:d0:da:67:f7:ce:4b:b9:49:
         5f:24:58:65:07:75:a6:0d:b5:85:e0:02:86:eb:c0:d5:f5:cd:
         3d:cd:24:69:52:fa:c2:cc:42:9e:ad:e5:94:f2:f4:5f:5a:68:
         dd:f9:a6:75:c8:cb:84:3a:42:45:57:ec:02:c9:23:4c:06:b0:
         0b:1c:46:e1:37:cd:b1:5f:41:e2:73:49:8f:40:05:d5:80:fc:
         ca:f8:83:95:44:8b:ac:b5:fa:e9:17:7d:33:11:a3:1c:d7:0b:
         87:86:28:a7:d6:7a:55:86:71:0e:7c:e2:9e:a1:cd:66:80:ef:
         2a:8e:78:69:76:02:ff:55:90:3b:4f:e6:cb:9d:47:52:99:c0:
         4f:28:67:14:44:28:06:2c:67:61:43:0d:c3:05:70:a7:ec:ff:
         05:59:0a:ab:d4:bc:33:49:76:05:7b:4f:f5:39:f4:fc:87:39:
         a4:07:4e:fd:ea:3e:06:16:8d:3e:db:6d:96:08:8e:4c:5c:fe:
         76:27:47:9d:de:38:25:50:51:e5:a2:09:e7:3d:0c:eb:6f:5d:
         b2:79:f8:f6:23:58:dd:83
-----BEGIN CERTIFICATE-----
MIIGrTCCBJWgAwIBAgICLQgwDQYJKoZIhvcNAQELBQAwgawxCzAJBgNVBAYTAlVT
MQswCQYDVQQIEwJPSDERMA8GA1UEBxMIQ29sdW1idXMxEjAQBgNVBAoTCVZpa2lu
Z1ZQTjEdMBsGA1UECxMUTXlPcmdhbml6YXRpb25hbFVuaXQxFTATBgNVBAMTDFZp
a2luZ1ZQTiBDQTEQMA4GA1UEKRMHRWFzeVJTQTEhMB8GCSqGSIb3DQEJARYSbWVA
bXlob3N0Lm15ZG9tYWluMB4XDTE3MDgxMTE1NDUxOFoXDTI3MDgwOTE1NDUxOFow
HzEdMBsGA1UEAxMUQ2xpZW50MzA0MUNlcnRmNjk3MWYwggIiMA0GCSqGSIb3DQEB
AQUAA4ICDwAwggIKAoICAQCzfiEUP0zgx4tNaOxgECfOuAJpEiQd2rOTE3R7S1Yr
HXtmc+O63y21kXbbB5Y1Olv5OmyGEh7kAZMMiMJ9RyZinvVSRzTY36wjiKNg8nHX
09T6F+2WbT02NDJLHskr5C+FlRALT1GNMIKPGrxsFNEVjpchF7ds/PjLvR2bLzpG
ivSCsVfYhbcxfZ593XOiZJfDml/7Xrj82XeTiVESycIU3msCoyYHwHMHs+BziM7r
3yn0m6AezFeC5z6m1B9mKHis85BEKtkuq6TYT0/4m66Wfca/4rS3FckNgVXDF/F2
2d/yY8WSR1awO3pT8y9IUa8jNELihI825T/9Zn7LUevvqbVcjoL9Iso+S5r1N0/t
o/KaTevk2k6FkAEscS/qGwWa3t/baKkzJTfN+N1cAk/B5doT7MMWM5xKRB5jgOl5
7o87zN6/qcFvOL6JtTfJOaJJ3xuNKhU3YzInqKRnX7F7G5J4yH/1kSxIEM2vTUms
8Za/dRv433POucHMCDrk5qmcXAmJJEdudfW4/WgcQYJUQ2k1m7JxjE5p/ABOrU8V
17rrDCbWraoUXIB9u6QYFgUi64p+vpLwKg8CXuw47UJVfS9sZ9JLbHBi7Fpp00uD
O2ydUFmIH0kiXaN1iUgJ+7RUJhpZDf1CXn3gMWfhd2hMQS8KzpXOhO8e6XNmbOqf
oQIDAQABo4IBYzCCAV8wCQYDVR0TBAIwADAtBglghkgBhvhCAQ0EIBYeRWFzeS1S
U0EgR2VuZXJhdGVkIENlcnRpZmljYXRlMB0GA1UdDgQWBBRK2wtzS4BOrQZTnpmH
l/hTAepYKzCB4QYDVR0jBIHZMIHWgBQSzWAE0qCAnnDtxpm4eyzGUv0ZoaGBsqSB
rzCBrDELMAkGA1UEBhMCVVMxCzAJBgNVBAgTAk9IMREwDwYDVQQHEwhDb2x1bWJ1
czESMBAGA1UEChMJVmlraW5nVlBOMR0wGwYDVQQLExRNeU9yZ2FuaXphdGlvbmFs
VW5pdDEVMBMGA1UEAxMMVmlraW5nVlBOIENBMRAwDgYDVQQpEwdFYXN5UlNBMSEw
HwYJKoZIhvcNAQkBFhJtZUBteWhvc3QubXlkb21haW6CCQDPNYXugL8qPjATBgNV
HSUEDDAKBggrBgEFBQcDAjALBgNVHQ8EBAMCB4AwDQYJKoZIhvcNAQELBQADggIB
ANoJWd3EfcZXRG4m/eGCxZJ4IwTKok5A+N5xgSdaqqbTGrPem46CUP1UwXIqTY6Z
pJmr8kQQ+Gla2BwdLRkafkzgKv50Atc/a5q7IeaiyQ+VwaqqGCB91EP5zVjI4a0x
U0xG7jENxqIhYHmVms9IlY0Juxf7EWTKP0Tpqye6v7knx/IgDktUIbOd+0B+q5AU
VyKU/vCq24XaM0sZgYuriCjL/7F1+TxBtO6GFJRBk9zZ69GP4tjYgU2dLDOUum0A
2je4ViFIAaamuMXmXoOQ0qZWjBnsNGSmDonVki6a735/nlARlX/NqaAtmyMnkkv7
3Px1a7ZJLpzHkSu/HenlnYaSF8m+20vTE1wmhMTkruO5AYnAkDyYgiTwz5bR/Pm2
UGeng3aLy241wAbQ2mf3zku5SV8kWGUHdaYNtYXgAobrwNX1zT3NJGlS+sLMQp6t
5ZTy9F9aaN35pnXIy4Q6QkVX7ALJI0wGsAscRuE3zbFfQeJzSY9ABdWA/Mr4g5VE
i6y1+ukXfTMRoxzXC4eGKKfWelWGcQ584p6hzWaA7yqOeGl2Av9VkDtP5sudR1KZ
wE8oZxREKAYsZ2FDDcMFcKfs/wVZCqvUvDNJdgV7T/U59PyHOaQHTv3qPgYWjT7b
bZYIjkxc/nYnR53eOCVQUeWiCec9DOtvXbJ5+PYjWN2D
-----END CERTIFICATE-----
