Certificate:
    Data:
        Version: 3 (0x2)
        Serial Number: 11533 (0x2d0d)
    Signature Algorithm: sha256WithRSAEncryption
        Issuer: C=US, ST=OH, L=Columbus, O=VikingVPN, OU=MyOrganizationalUnit, CN=VikingVPN CA/name=EasyRSA/emailAddress=me@myhost.mydomain
        Validity
            Not Before: Aug 12 16:38:44 2017 GMT
            Not After : Aug 10 16:38:44 2027 GMT
        Subject: CN=Client1702Cert21ad5d
        Subject Public Key Info:
            Public Key Algorithm: rsaEncryption
                Public-Key: (4096 bit)
                Modulus:
                    00:ec:a5:60:4d:cb:6a:5d:49:35:e9:a6:b1:2d:a3:
                    76:cf:7b:50:ad:62:cd:40:27:a6:2a:70:a7:19:27:
                    e9:fd:ea:4d:03:6d:a3:d5:1d:4d:b9:d9:db:ce:13:
                    cc:70:02:68:8e:a1:67:23:42:63:a6:94:d8:b0:13:
                    ee:69:5b:c3:32:a5:a2:7f:07:30:dd:26:35:b1:07:
                    bf:b5:13:ac:e4:1d:4e:77:79:dd:75:b2:b0:54:8e:
                    4f:08:f1:aa:4a:08:e9:20:24:4c:91:10:78:15:4e:
                    4d:65:91:51:30:1f:63:67:f7:93:87:66:4b:3a:5a:
                    90:9d:16:0b:73:f9:2a:90:1e:a0:0e:2d:20:90:85:
                    55:ea:d5:3d:2f:b2:b4:00:df:58:13:b8:91:7d:13:
                    be:9d:62:7f:d6:16:0a:e8:d8:56:bb:4e:5f:ee:6f:
                    97:a1:70:7a:cd:17:5e:bd:c0:8a:8b:8c:ea:4a:1b:
                    30:58:b6:03:56:06:21:0d:0b:b2:50:47:0a:6f:a8:
                    ee:6a:29:7c:f9:5c:18:1e:60:0c:c0:32:94:22:e2:
                    e1:ee:91:30:21:d8:cc:94:d5:97:dd:5d:27:92:05:
                    cb:5d:79:5e:8a:ea:68:a0:67:f4:e9:a8:ca:c7:a5:
                    a8:e7:45:db:95:83:2d:af:ec:d6:aa:8d:2c:83:63:
                    97:b4:70:92:61:15:e0:3d:2b:6a:9b:66:ec:eb:ac:
                    86:1e:a6:ff:70:0c:a2:e2:67:b7:52:1f:bd:80:ea:
                    92:b6:73:c4:91:57:ff:49:59:15:f0:a3:4b:dc:a2:
                    31:15:5b:63:54:e3:15:a2:01:4c:a0:2d:be:8c:f9:
                    28:f0:6a:ac:c1:be:1d:5e:41:dd:90:37:8a:4c:22:
                    3e:e5:b5:c4:6c:1e:4a:71:a6:6b:91:69:2b:e4:ae:
                    2d:30:a9:a6:c7:f5:15:ae:c1:57:68:0f:7a:cd:25:
                    cf:be:6d:c2:8b:a9:20:64:a5:af:e7:d4:1d:8e:5f:
                    73:98:a6:97:d7:f6:3a:26:0f:a8:99:30:ad:36:fb:
                    6c:ae:52:a7:82:1c:62:d7:20:65:20:f9:e1:7a:a9:
                    fc:a1:ff:41:f1:e0:36:a5:64:11:eb:5f:f9:8e:81:
                    b5:de:43:e2:fa:85:a5:e4:ed:3a:45:f7:5f:be:f9:
                    d8:b1:c7:e1:e1:50:d4:19:29:0b:c3:c9:ea:fb:19:
                    ea:8c:01:bd:90:8e:43:85:68:8e:34:fd:de:b9:a3:
                    7f:24:d2:69:e1:6c:7f:80:5f:4d:1e:57:89:e9:9d:
                    16:f5:07:7c:35:5d:9d:0a:0b:80:f4:a6:c3:e9:c5:
                    94:50:4d:74:ef:a5:c3:49:c7:21:15:f6:ed:5e:5c:
                    f4:5c:19
                Exponent: 65537 (0x10001)
        X509v3 extensions:
            X509v3 Basic Constraints: 
                CA:FALSE
            Netscape Comment: 
                Easy-RSA Generated Certificate
            X509v3 Subject Key Identifier: 
                8F:87:47:51:07:80:07:CE:A8:81:79:88:A0:8D:05:79:B9:7A:F8:DA
            X509v3 Authority Key Identifier: 
                keyid:12:CD:60:04:D2:A0:80:9E:70:ED:C6:99:B8:7B:2C:C6:52:FD:19:A1
                DirName:/C=US/ST=OH/L=Columbus/O=VikingVPN/OU=MyOrganizationalUnit/CN=VikingVPN CA/name=EasyRSA/emailAddress=me@myhost.mydomain
                serial:CF:35:85:EE:80:BF:2A:3E

            X509v3 Extended Key Usage: 
                TLS Web Client Authentication
            X509v3 Key Usage: 
                Digital Signature
    Signature Algorithm: sha256WithRSAEncryption
         1a:c7:e9:ad:7e:3d:ec:e4:6b:66:8a:25:d3:eb:e6:1b:73:8d:
         90:f2:21:b1:6e:3d:db:aa:7e:a5:b7:cb:c2:d8:72:ad:db:3e:
         3d:de:1e:10:d0:15:b1:fc:40:11:c4:01:9a:18:aa:87:c7:68:
         ca:98:4e:53:f2:79:1a:c5:f5:b2:cd:9e:b1:93:21:e6:ea:91:
         da:40:76:d0:0f:04:65:20:d6:96:95:a2:54:6b:08:75:f1:4b:
         79:ad:0d:49:78:4b:69:7b:56:3b:a0:21:75:4f:24:84:9c:a3:
         c8:ab:d3:cd:48:af:48:3e:af:0c:1c:b5:55:79:fe:c2:42:49:
         f0:07:12:6b:d6:50:a3:20:ae:49:9f:e0:e0:7e:33:a9:97:de:
         ee:95:8b:84:7a:8c:8f:be:d3:ab:d4:ce:57:ac:f4:42:96:dd:
         43:16:7b:91:0a:18:42:1e:c5:6c:5b:72:ad:78:a9:f6:b4:aa:
         a0:ba:46:2b:2a:cd:7c:45:ce:dd:f0:47:88:e0:b4:ab:69:bc:
         3b:38:2e:3f:87:0c:2c:64:49:73:2c:e6:e9:fb:18:be:96:07:
         21:39:5d:5a:91:a3:d7:d3:f6:dc:8a:e1:e2:78:00:a4:cc:91:
         29:7d:28:6f:a7:0f:8a:00:03:dc:62:0c:12:1a:26:5e:2d:b3:
         ff:8d:5f:a6:20:7c:97:6e:0a:a4:87:c4:3f:6d:83:cd:fa:01:
         e1:0a:b0:65:03:aa:a5:1b:34:4f:9e:48:2e:75:1d:79:dd:d7:
         f8:67:25:0c:f4:29:73:33:3c:4b:cd:99:a2:e5:b2:cb:31:ef:
         55:4c:ff:23:d6:9b:d7:51:56:4c:e7:96:40:60:98:a3:18:7f:
         f0:9e:89:e1:56:df:9a:13:7a:d4:d6:51:d8:b4:a6:ff:4f:2d:
         70:47:88:7f:b5:b0:c8:a1:e5:74:9d:8b:3b:62:96:b8:ce:9c:
         59:b0:b7:19:10:51:1c:0d:8b:87:62:ac:02:c4:9c:bb:fd:63:
         1e:51:9c:40:1e:b3:ef:03:6c:95:d8:87:37:1b:5b:ac:86:12:
         c2:ac:75:46:39:13:31:6f:be:a2:4f:71:18:eb:ac:e3:76:50:
         6b:c1:f7:7a:eb:a1:32:c7:17:2e:fe:67:2e:06:b8:11:e8:f4:
         b6:79:df:fd:23:49:fc:d5:ed:02:c8:64:9c:4c:eb:5d:8f:d7:
         56:3b:bc:90:ab:07:d4:3f:c4:bc:dd:fb:20:70:4d:b6:f7:ea:
         43:ab:06:81:b1:f6:c5:72:7c:a0:bb:bc:01:b4:c9:ed:5e:ee:
         08:a7:7b:54:f3:5b:e3:61:81:3e:bf:b2:35:7b:54:89:66:19:
         3c:8d:27:b3:51:a8:1c:22
-----BEGIN CERTIFICATE-----
MIIGrTCCBJWgAwIBAgICLQ0wDQYJKoZIhvcNAQELBQAwgawxCzAJBgNVBAYTAlVT
MQswCQYDVQQIEwJPSDERMA8GA1UEBxMIQ29sdW1idXMxEjAQBgNVBAoTCVZpa2lu
Z1ZQTjEdMBsGA1UECxMUTXlPcmdhbml6YXRpb25hbFVuaXQxFTATBgNVBAMTDFZp
a2luZ1ZQTiBDQTEQMA4GA1UEKRMHRWFzeVJTQTEhMB8GCSqGSIb3DQEJARYSbWVA
bXlob3N0Lm15ZG9tYWluMB4XDTE3MDgxMjE2Mzg0NFoXDTI3MDgxMDE2Mzg0NFow
HzEdMBsGA1UEAxMUQ2xpZW50MTcwMkNlcnQyMWFkNWQwggIiMA0GCSqGSIb3DQEB
AQUAA4ICDwAwggIKAoICAQDspWBNy2pdSTXpprEto3bPe1CtYs1AJ6YqcKcZJ+n9
6k0DbaPVHU252dvOE8xwAmiOoWcjQmOmlNiwE+5pW8MypaJ/BzDdJjWxB7+1E6zk
HU53ed11srBUjk8I8apKCOkgJEyREHgVTk1lkVEwH2Nn95OHZks6WpCdFgtz+SqQ
HqAOLSCQhVXq1T0vsrQA31gTuJF9E76dYn/WFgro2Fa7Tl/ub5ehcHrNF169wIqL
jOpKGzBYtgNWBiENC7JQRwpvqO5qKXz5XBgeYAzAMpQi4uHukTAh2MyU1ZfdXSeS
BctdeV6K6migZ/TpqMrHpajnRduVgy2v7NaqjSyDY5e0cJJhFeA9K2qbZuzrrIYe
pv9wDKLiZ7dSH72A6pK2c8SRV/9JWRXwo0vcojEVW2NU4xWiAUygLb6M+SjwaqzB
vh1eQd2QN4pMIj7ltcRsHkpxpmuRaSvkri0wqabH9RWuwVdoD3rNJc++bcKLqSBk
pa/n1B2OX3OYppfX9jomD6iZMK02+2yuUqeCHGLXIGUg+eF6qfyh/0Hx4DalZBHr
X/mOgbXeQ+L6haXk7TpF91+++dixx+HhUNQZKQvDyer7GeqMAb2QjkOFaI40/d65
o38k0mnhbH+AX00eV4npnRb1B3w1XZ0KC4D0psPpxZRQTXTvpcNJxyEV9u1eXPRc
GQIDAQABo4IBYzCCAV8wCQYDVR0TBAIwADAtBglghkgBhvhCAQ0EIBYeRWFzeS1S
U0EgR2VuZXJhdGVkIENlcnRpZmljYXRlMB0GA1UdDgQWBBSPh0dRB4AHzqiBeYig
jQV5uXr42jCB4QYDVR0jBIHZMIHWgBQSzWAE0qCAnnDtxpm4eyzGUv0ZoaGBsqSB
rzCBrDELMAkGA1UEBhMCVVMxCzAJBgNVBAgTAk9IMREwDwYDVQQHEwhDb2x1bWJ1
czESMBAGA1UEChMJVmlraW5nVlBOMR0wGwYDVQQLExRNeU9yZ2FuaXphdGlvbmFs
VW5pdDEVMBMGA1UEAxMMVmlraW5nVlBOIENBMRAwDgYDVQQpEwdFYXN5UlNBMSEw
HwYJKoZIhvcNAQkBFhJtZUBteWhvc3QubXlkb21haW6CCQDPNYXugL8qPjATBgNV
HSUEDDAKBggrBgEFBQcDAjALBgNVHQ8EBAMCB4AwDQYJKoZIhvcNAQELBQADggIB
ABrH6a1+Pezka2aKJdPr5htzjZDyIbFuPduqfqW3y8LYcq3bPj3eHhDQFbH8QBHE
AZoYqofHaMqYTlPyeRrF9bLNnrGTIebqkdpAdtAPBGUg1paVolRrCHXxS3mtDUl4
S2l7VjugIXVPJISco8ir081Ir0g+rwwctVV5/sJCSfAHEmvWUKMgrkmf4OB+M6mX
3u6Vi4R6jI++06vUzles9EKW3UMWe5EKGEIexWxbcq14qfa0qqC6RisqzXxFzt3w
R4jgtKtpvDs4Lj+HDCxkSXMs5un7GL6WByE5XVqRo9fT9tyK4eJ4AKTMkSl9KG+n
D4oAA9xiDBIaJl4ts/+NX6YgfJduCqSHxD9tg836AeEKsGUDqqUbNE+eSC51HXnd
1/hnJQz0KXMzPEvNmaLlsssx71VM/yPWm9dRVkznlkBgmKMYf/CeieFW35oTetTW
Udi0pv9PLXBHiH+1sMih5XSdiztilrjOnFmwtxkQURwNi4dirALEnLv9Yx5RnEAe
s+8DbJXYhzcbW6yGEsKsdUY5EzFvvqJPcRjrrON2UGvB93rroTLHFy7+Zy4GuBHo
9LZ53/0jSfzV7QLIZJxM612P11Y7vJCrB9Q/xLzd+yBwTbb36kOrBoGx9sVyfKC7
vAG0ye1e7gine1TzW+NhgT6/sjV7VIlmGTyNJ7NRqBwi
-----END CERTIFICATE-----
