Certificate:
    Data:
        Version: 3 (0x2)
        Serial Number: 11535 (0x2d0f)
    Signature Algorithm: sha256WithRSAEncryption
        Issuer: C=US, ST=OH, L=Columbus, O=VikingVPN, OU=MyOrganizationalUnit, CN=VikingVPN CA/name=EasyRSA/emailAddress=me@myhost.mydomain
        Validity
            Not Before: Aug 12 18:01:58 2017 GMT
            Not After : Aug 10 18:01:58 2027 GMT
        Subject: CN=Client3043Cert6ca8ea
        Subject Public Key Info:
            Public Key Algorithm: rsaEncryption
                Public-Key: (4096 bit)
                Modulus:
                    00:b6:47:39:ec:a2:9b:44:ed:5c:68:ea:b7:a6:3c:
                    c2:62:58:00:86:8a:dc:b2:b6:26:05:cb:f8:58:39:
                    82:ab:97:8d:d7:ec:14:f0:4a:51:45:cb:c3:96:9c:
                    77:a1:15:09:9e:9c:2a:be:e1:26:72:0b:e4:53:10:
                    46:87:fa:d3:97:ee:c8:0b:41:79:88:d4:93:9e:f8:
                    82:7e:5b:b7:12:d6:14:e5:2a:97:6e:f2:fc:14:92:
                    27:cb:91:54:03:26:4d:70:d5:09:74:2e:ec:5a:16:
                    d3:85:71:16:06:e4:5d:03:f0:1b:a0:91:89:98:5d:
                    9c:0b:8e:bb:f9:ec:30:97:34:c8:ef:c3:29:ae:2a:
                    eb:40:b3:e8:e5:78:a9:4b:1f:ad:0c:12:5f:bb:ed:
                    63:97:18:97:c3:a1:52:92:23:f6:de:61:2d:6c:d6:
                    a2:a6:04:92:13:6b:f0:72:4c:22:af:d1:76:7d:64:
                    67:42:85:3e:15:e3:27:10:81:51:68:e4:c4:f4:c1:
                    43:58:d1:72:e6:c5:0e:23:03:1e:23:bd:a5:36:9e:
                    52:6b:53:bd:4d:0f:45:ba:7b:a6:6b:cd:8e:27:85:
                    b0:2f:38:93:f3:d5:e9:83:d7:2f:b1:72:7e:b4:09:
                    b5:cb:3e:f8:ce:d9:ff:4d:b7:56:5b:58:d9:1c:a9:
                    95:48:e1:a8:e5:71:5a:97:3e:3b:e3:a4:d9:5c:3b:
                    0e:ec:4e:92:1b:79:f8:a5:44:41:df:64:71:aa:26:
                    1a:58:de:b5:05:2a:55:c4:0b:f5:37:0d:69:1e:07:
                    cc:06:97:37:68:6b:ce:f0:d2:18:29:1d:8f:ca:e9:
                    54:40:56:ed:71:bf:fc:ff:6f:cd:48:15:1a:a2:30:
                    03:1a:c5:62:cb:30:d7:94:bc:59:82:53:7f:39:f1:
                    76:8b:f9:b7:f3:9d:09:10:51:7d:8e:ac:ce:ea:05:
                    74:48:a8:05:be:d9:02:69:09:54:2a:c1:29:e0:5d:
                    d7:f1:1e:17:1d:e3:8c:85:d8:b6:e3:07:ba:53:a1:
                    49:20:72:45:8b:f7:be:72:7f:7e:d6:eb:64:73:ce:
                    4c:31:f7:7e:d2:66:30:0c:08:3e:43:a9:82:4f:ac:
                    14:94:3b:6e:37:04:92:83:3c:c7:a3:c7:bd:31:e4:
                    27:a3:69:87:e7:a6:ae:bd:46:e8:ad:93:4a:65:95:
                    87:e8:90:8d:98:17:75:6c:a9:94:8c:32:56:b2:28:
                    31:8c:f8:c2:4d:06:28:90:0f:d6:98:90:78:b3:9b:
                    b9:20:fe:9d:5b:d7:eb:2a:1d:85:f9:fe:05:ca:e3:
                    75:78:13:96:4a:62:65:9a:47:05:36:fc:17:e3:46:
                    93:a4:7f
                Exponent: 65537 (0x10001)
        X509v3 extensions:
            X509v3 Basic Constraints: 
                CA:FALSE
            Netscape Comment: 
                Easy-RSA Generated Certificate
            X509v3 Subject Key Identifier: 
                1C:53:D0:99:42:65:28:9C:60:B3:55:D3:64:2E:41:56:BE:75:CE:A5
            X509v3 Authority Key Identifier: 
                keyid:12:CD:60:04:D2:A0:80:9E:70:ED:C6:99:B8:7B:2C:C6:52:FD:19:A1
                DirName:/C=US/ST=OH/L=Columbus/O=VikingVPN/OU=MyOrganizationalUnit/CN=VikingVPN CA/name=EasyRSA/emailAddress=me@myhost.mydomain
                serial:CF:35:85:EE:80:BF:2A:3E

            X509v3 Extended Key Usage: 
                TLS Web Client Authentication
            X509v3 Key Usage: 
                Digital Signature
    Signature Algorithm: sha256WithRSAEncryption
         52:98:f9:8c:79:e2:ad:d7:7a:17:8a:fc:ab:d2:b6:bd:f9:e2:
         02:5d:e8:2d:d0:97:13:78:0b:83:a4:2b:2c:47:69:1b:b8:d8:
         76:7e:46:e4:d9:c4:78:92:54:a4:0e:de:70:ea:11:c1:de:1f:
         93:53:31:50:48:47:20:2f:5b:fa:db:a5:40:94:4b:88:0c:f9:
         27:95:4a:dc:c4:31:cd:e3:62:45:b4:40:75:ba:d0:a9:2e:a9:
         25:b2:58:88:53:c1:3e:13:43:e2:be:e9:5c:ac:a4:e4:3d:61:
         b6:ce:ab:a6:2a:c1:2e:31:fc:5a:54:17:7b:e0:79:da:3e:70:
         15:eb:7f:7d:7f:bd:50:c6:84:5c:ba:1f:bc:bb:8c:64:e1:29:
         eb:2a:4c:43:29:c4:0b:f0:80:87:39:ab:f5:c8:f9:80:c5:d4:
         92:d3:e6:cc:a7:c2:d4:43:18:70:74:2e:1e:12:2a:b3:66:16:
         7a:e1:09:6c:71:d3:54:68:78:c1:3c:87:a5:c6:75:d3:d5:de:
         a6:83:6d:8d:49:47:88:0d:93:0b:c5:ca:e6:a0:75:8c:90:80:
         4b:a5:1f:39:5b:cf:08:e8:09:2a:45:21:96:96:b4:9a:10:26:
         ee:aa:fc:5c:54:54:e1:99:5b:7f:e9:02:53:91:a6:1f:db:44:
         0f:5c:87:69:ef:70:ac:07:45:a9:98:9e:6f:69:05:50:ce:21:
         b3:97:19:b1:64:24:f8:58:52:90:1f:53:74:b5:2d:e4:e1:99:
         64:8a:cf:2d:4a:30:ba:79:cf:2a:01:ae:4e:29:ce:73:a9:8e:
         6b:5a:df:8c:ad:0d:83:36:40:b4:17:90:08:35:b5:a2:ed:4d:
         e2:79:89:9e:76:0a:74:9a:28:10:e6:6d:b8:25:56:d3:d3:6a:
         ab:54:9d:90:88:36:39:e8:09:f6:0d:e0:b0:39:b0:84:12:02:
         24:e0:1e:b0:cc:17:9b:70:f0:a4:34:0a:9a:32:6a:4c:49:22:
         9a:bd:17:b3:33:9c:7b:20:e7:ae:e2:18:2f:e4:74:a6:69:23:
         e4:76:e8:c9:fd:11:ae:27:ce:f2:50:41:9b:02:89:36:39:6d:
         f2:05:79:72:40:91:c5:fd:21:2c:fa:e5:9f:9a:4f:7f:a5:ac:
         8b:00:23:44:49:4f:5a:9f:05:d0:df:b5:e5:ba:5c:7a:d7:79:
         76:08:b6:c4:d7:a9:ba:b9:60:fa:f6:88:93:b5:8f:3f:7b:94:
         9f:92:ca:4f:4d:3f:c1:9d:76:bb:c2:c0:00:23:4a:d2:f4:c3:
         6a:d2:d8:3e:e7:07:99:f0:9c:bb:4c:62:fd:e6:cf:5f:bb:61:
         94:e5:88:ac:fe:c9:55:ec
-----BEGIN CERTIFICATE-----
MIIGrTCCBJWgAwIBAgICLQ8wDQYJKoZIhvcNAQELBQAwgawxCzAJBgNVBAYTAlVT
MQswCQYDVQQIEwJPSDERMA8GA1UEBxMIQ29sdW1idXMxEjAQBgNVBAoTCVZpa2lu
Z1ZQTjEdMBsGA1UECxMUTXlPcmdhbml6YXRpb25hbFVuaXQxFTATBgNVBAMTDFZp
a2luZ1ZQTiBDQTEQMA4GA1UEKRMHRWFzeVJTQTEhMB8GCSqGSIb3DQEJARYSbWVA
bXlob3N0Lm15ZG9tYWluMB4XDTE3MDgxMjE4MDE1OFoXDTI3MDgxMDE4MDE1OFow
HzEdMBsGA1UEAxMUQ2xpZW50MzA0M0NlcnQ2Y2E4ZWEwggIiMA0GCSqGSIb3DQEB
AQUAA4ICDwAwggIKAoICAQC2RznsoptE7Vxo6remPMJiWACGityytiYFy/hYOYKr
l43X7BTwSlFFy8OWnHehFQmenCq+4SZyC+RTEEaH+tOX7sgLQXmI1JOe+IJ+W7cS
1hTlKpdu8vwUkifLkVQDJk1w1Ql0LuxaFtOFcRYG5F0D8BugkYmYXZwLjrv57DCX
NMjvwymuKutAs+jleKlLH60MEl+77WOXGJfDoVKSI/beYS1s1qKmBJITa/ByTCKv
0XZ9ZGdChT4V4ycQgVFo5MT0wUNY0XLmxQ4jAx4jvaU2nlJrU71ND0W6e6ZrzY4n
hbAvOJPz1emD1y+xcn60CbXLPvjO2f9Nt1ZbWNkcqZVI4ajlcVqXPjvjpNlcOw7s
TpIbefilREHfZHGqJhpY3rUFKlXEC/U3DWkeB8wGlzdoa87w0hgpHY/K6VRAVu1x
v/z/b81IFRqiMAMaxWLLMNeUvFmCU3858XaL+bfznQkQUX2OrM7qBXRIqAW+2QJp
CVQqwSngXdfxHhcd44yF2LbjB7pToUkgckWL975yf37W62Rzzkwx937SZjAMCD5D
qYJPrBSUO243BJKDPMejx70x5CejaYfnpq69Ruitk0pllYfokI2YF3VsqZSMMlay
KDGM+MJNBiiQD9aYkHizm7kg/p1b1+sqHYX5/gXK43V4E5ZKYmWaRwU2/BfjRpOk
fwIDAQABo4IBYzCCAV8wCQYDVR0TBAIwADAtBglghkgBhvhCAQ0EIBYeRWFzeS1S
U0EgR2VuZXJhdGVkIENlcnRpZmljYXRlMB0GA1UdDgQWBBQcU9CZQmUonGCzVdNk
LkFWvnXOpTCB4QYDVR0jBIHZMIHWgBQSzWAE0qCAnnDtxpm4eyzGUv0ZoaGBsqSB
rzCBrDELMAkGA1UEBhMCVVMxCzAJBgNVBAgTAk9IMREwDwYDVQQHEwhDb2x1bWJ1
czESMBAGA1UEChMJVmlraW5nVlBOMR0wGwYDVQQLExRNeU9yZ2FuaXphdGlvbmFs
VW5pdDEVMBMGA1UEAxMMVmlraW5nVlBOIENBMRAwDgYDVQQpEwdFYXN5UlNBMSEw
HwYJKoZIhvcNAQkBFhJtZUBteWhvc3QubXlkb21haW6CCQDPNYXugL8qPjATBgNV
HSUEDDAKBggrBgEFBQcDAjALBgNVHQ8EBAMCB4AwDQYJKoZIhvcNAQELBQADggIB
AFKY+Yx54q3XeheK/KvStr354gJd6C3QlxN4C4OkKyxHaRu42HZ+RuTZxHiSVKQO
3nDqEcHeH5NTMVBIRyAvW/rbpUCUS4gM+SeVStzEMc3jYkW0QHW60KkuqSWyWIhT
wT4TQ+K+6VyspOQ9YbbOq6YqwS4x/FpUF3vgedo+cBXrf31/vVDGhFy6H7y7jGTh
KesqTEMpxAvwgIc5q/XI+YDF1JLT5synwtRDGHB0Lh4SKrNmFnrhCWxx01RoeME8
h6XGddPV3qaDbY1JR4gNkwvFyuagdYyQgEulHzlbzwjoCSpFIZaWtJoQJu6q/FxU
VOGZW3/pAlORph/bRA9ch2nvcKwHRamYnm9pBVDOIbOXGbFkJPhYUpAfU3S1LeTh
mWSKzy1KMLp5zyoBrk4pznOpjmta34ytDYM2QLQXkAg1taLtTeJ5iZ52CnSaKBDm
bbglVtPTaqtUnZCINjnoCfYN4LA5sIQSAiTgHrDMF5tw8KQ0CpoyakxJIpq9F7Mz
nHsg567iGC/kdKZpI+R26Mn9Ea4nzvJQQZsCiTY5bfIFeXJAkcX9ISz65Z+aT3+l
rIsAI0RJT1qfBdDfteW6XHrXeXYItsTXqbq5YPr2iJO1jz97lJ+Syk9NP8GddrvC
wAAjStL0w2rS2D7nB5nwnLtMYv3mz1+7YZTliKz+yVXs
-----END CERTIFICATE-----
