Certificate:
    Data:
        Version: 3 (0x2)
        Serial Number: 11546 (0x2d1a)
    Signature Algorithm: sha256WithRSAEncryption
        Issuer: C=US, ST=OH, L=Columbus, O=VikingVPN, OU=MyOrganizationalUnit, CN=VikingVPN CA/name=EasyRSA/emailAddress=me@myhost.mydomain
        Validity
            Not Before: Aug 14 03:33:28 2017 GMT
            Not After : Aug 12 03:33:28 2027 GMT
        Subject: CN=Client3044Cert727f84
        Subject Public Key Info:
            Public Key Algorithm: rsaEncryption
                Public-Key: (4096 bit)
                Modulus:
                    00:d9:a0:87:a5:13:37:5a:67:03:9e:44:5e:5f:70:
                    f5:96:46:e9:0b:28:9b:cc:24:65:dd:bd:a2:82:55:
                    21:78:d5:d0:bf:ae:58:ec:32:0d:c6:80:21:bc:93:
                    57:48:a5:28:ab:d4:ee:53:2c:fb:8e:42:d9:10:d3:
                    df:c1:d3:0c:52:d8:2c:f8:36:ca:1a:52:13:0d:e5:
                    3f:8d:ef:2b:6e:56:74:5c:e1:38:22:66:8a:c6:ed:
                    a7:57:e8:e9:10:43:ec:06:9c:78:a5:48:60:eb:5d:
                    44:e2:04:60:e1:bf:92:5c:f8:91:a1:d9:23:ae:ce:
                    9a:23:35:8a:4d:35:24:54:b9:21:0a:41:69:09:95:
                    28:ae:7e:18:5b:72:e7:35:11:45:7d:95:72:39:af:
                    f4:fa:db:1f:cb:65:81:33:89:6d:6f:3c:85:78:37:
                    7a:06:e7:b3:83:63:73:b6:a5:58:62:16:34:de:bc:
                    e6:24:dc:82:6a:6a:d5:79:2d:e9:f6:dc:ef:cc:05:
                    dc:b6:4b:42:55:11:d9:48:8e:85:4d:17:a1:f5:12:
                    40:8a:cc:bc:84:f8:f9:3f:2f:cc:6c:e9:29:c1:b1:
                    28:59:74:a2:30:cb:3b:8f:3b:43:fa:ae:4d:31:22:
                    22:11:ad:3f:09:f3:43:28:9c:c6:08:43:9a:c3:2a:
                    6a:8d:e2:a2:cf:18:9a:97:c0:d6:3e:eb:0c:e5:9d:
                    9f:28:4c:2d:c8:e3:c9:8c:6e:72:15:04:f7:cb:de:
                    48:89:c5:6d:2d:5a:1d:f1:5e:80:07:c5:42:25:71:
                    8f:56:0a:8f:99:d6:ce:2e:40:70:1b:44:a1:a0:45:
                    23:84:d6:54:11:f7:95:2d:36:88:ec:b6:7f:ad:cc:
                    32:8b:f2:2f:dd:2f:c7:37:49:42:06:30:25:23:07:
                    a7:ea:c7:0b:c1:5f:70:52:fe:67:60:9a:06:4e:7e:
                    ce:cf:52:c8:48:bc:ec:00:ae:85:be:ee:f9:be:da:
                    84:0e:5e:fe:68:b7:00:0f:bf:ff:f3:70:29:96:f5:
                    22:7d:26:1e:63:7a:cb:1e:42:82:7f:e2:05:e7:45:
                    51:a3:7c:88:0f:78:fe:78:2c:31:33:ed:a3:4d:9a:
                    f0:07:4d:db:1d:84:a3:f8:d7:aa:38:f6:cf:c0:d9:
                    42:36:83:13:1d:34:da:66:b4:0a:18:95:20:53:62:
                    f6:a0:b7:be:22:79:cd:23:9f:a7:d1:da:a7:3f:bd:
                    2e:7a:c1:2c:ee:0d:ae:f7:d1:e9:06:19:e8:33:cd:
                    8c:76:ab:5b:23:a8:f0:68:49:74:3b:3d:36:47:8e:
                    d1:33:0c:36:90:e4:2c:30:e8:89:84:c7:69:37:a2:
                    77:6d:35
                Exponent: 65537 (0x10001)
        X509v3 extensions:
            X509v3 Basic Constraints: 
                CA:FALSE
            Netscape Comment: 
                Easy-RSA Generated Certificate
            X509v3 Subject Key Identifier: 
                D5:ED:13:69:2E:52:BB:80:40:E0:4E:30:C4:12:DC:E5:DA:E2:27:A6
            X509v3 Authority Key Identifier: 
                keyid:12:CD:60:04:D2:A0:80:9E:70:ED:C6:99:B8:7B:2C:C6:52:FD:19:A1
                DirName:/C=US/ST=OH/L=Columbus/O=VikingVPN/OU=MyOrganizationalUnit/CN=VikingVPN CA/name=EasyRSA/emailAddress=me@myhost.mydomain
                serial:CF:35:85:EE:80:BF:2A:3E

            X509v3 Extended Key Usage: 
                TLS Web Client Authentication
            X509v3 Key Usage: 
                Digital Signature
    Signature Algorithm: sha256WithRSAEncryption
         4a:e3:10:77:a2:d4:04:af:28:cb:cd:2f:d6:87:70:3d:1c:03:
         ca:45:9d:75:96:09:38:f2:47:89:08:bf:f1:4d:cf:7d:1b:f9:
         cd:ae:75:95:6e:00:34:f8:48:0d:bc:36:c3:48:2a:87:ad:08:
         2f:75:6f:d3:ac:13:66:97:d8:39:95:4e:3d:bb:8a:e7:21:cb:
         82:87:52:3c:e6:28:57:82:df:7f:56:19:45:59:8b:94:1f:6d:
         a1:32:e0:49:78:56:8c:b3:8f:46:8f:ec:91:6c:ac:2b:63:72:
         d3:88:a0:9f:b3:d5:39:0e:3c:05:26:61:c6:10:54:5a:c0:4d:
         83:4c:27:18:5d:86:3c:1d:fb:3b:00:b5:ae:0b:18:58:8f:ca:
         72:de:b0:47:d3:bb:d5:83:51:59:88:63:3f:78:93:7f:84:ef:
         36:3e:e6:69:da:04:3d:21:02:42:91:c8:8f:ca:60:34:37:b6:
         6e:1f:51:db:da:6b:fc:a7:b7:5c:85:9b:3f:56:b5:3b:2c:6f:
         51:a4:b1:a4:16:d9:9a:11:3f:f7:94:75:19:ac:47:01:be:63:
         4b:62:c6:2d:ca:42:15:cb:cb:f6:3e:74:56:5b:18:19:b6:83:
         b9:ef:d1:61:72:fb:7e:92:b8:75:16:5f:72:12:76:80:60:e7:
         18:05:8a:fc:13:11:6c:57:4d:1f:f6:2e:c1:22:07:e6:37:de:
         62:99:c7:17:f3:5a:1f:dc:56:3d:94:df:79:a6:e2:05:2c:80:
         97:a9:98:4b:b9:98:0a:e1:b9:5b:75:41:38:c0:08:d7:18:4e:
         da:ba:18:2a:b3:7b:6a:24:34:8a:a3:a9:15:92:2d:e7:a3:17:
         d9:13:e2:8c:c7:8f:63:e7:a8:81:4d:9e:51:10:0c:11:70:65:
         e9:90:0e:00:bb:1b:bc:05:a4:ca:6f:35:40:81:54:47:d9:71:
         a0:ba:9d:03:f2:6f:8e:75:b4:8e:d5:f2:1e:48:6b:f4:90:65:
         f0:02:29:1f:63:55:a6:3b:17:af:3b:98:15:cb:8e:b5:a6:c5:
         fb:4e:9c:1b:71:ee:c4:cc:6b:5f:5b:18:da:81:1d:4f:cb:7b:
         30:73:5a:c9:3a:d1:b6:36:73:ae:b4:cb:9f:33:f5:a1:37:5b:
         50:d6:02:f8:ff:d3:33:a3:16:59:bc:57:8a:96:a8:c7:4e:2e:
         15:07:5f:83:c5:42:68:76:f5:24:8f:04:fb:2c:88:f7:88:aa:
         30:7b:be:5a:f8:0c:94:4b:19:65:2e:0b:dd:0b:e3:71:12:e9:
         0c:c0:80:51:05:35:b5:c6:4a:e1:c2:1c:dc:1d:85:fc:a1:01:
         9f:cb:21:4f:da:77:01:a4
-----BEGIN CERTIFICATE-----
MIIGrTCCBJWgAwIBAgICLRowDQYJKoZIhvcNAQELBQAwgawxCzAJBgNVBAYTAlVT
MQswCQYDVQQIEwJPSDERMA8GA1UEBxMIQ29sdW1idXMxEjAQBgNVBAoTCVZpa2lu
Z1ZQTjEdMBsGA1UECxMUTXlPcmdhbml6YXRpb25hbFVuaXQxFTATBgNVBAMTDFZp
a2luZ1ZQTiBDQTEQMA4GA1UEKRMHRWFzeVJTQTEhMB8GCSqGSIb3DQEJARYSbWVA
bXlob3N0Lm15ZG9tYWluMB4XDTE3MDgxNDAzMzMyOFoXDTI3MDgxMjAzMzMyOFow
HzEdMBsGA1UEAxMUQ2xpZW50MzA0NENlcnQ3MjdmODQwggIiMA0GCSqGSIb3DQEB
AQUAA4ICDwAwggIKAoICAQDZoIelEzdaZwOeRF5fcPWWRukLKJvMJGXdvaKCVSF4
1dC/rljsMg3GgCG8k1dIpSir1O5TLPuOQtkQ09/B0wxS2Cz4NsoaUhMN5T+N7ytu
VnRc4TgiZorG7adX6OkQQ+wGnHilSGDrXUTiBGDhv5Jc+JGh2SOuzpojNYpNNSRU
uSEKQWkJlSiufhhbcuc1EUV9lXI5r/T62x/LZYEziW1vPIV4N3oG57ODY3O2pVhi
FjTevOYk3IJqatV5Len23O/MBdy2S0JVEdlIjoVNF6H1EkCKzLyE+Pk/L8xs6SnB
sShZdKIwyzuPO0P6rk0xIiIRrT8J80MonMYIQ5rDKmqN4qLPGJqXwNY+6wzlnZ8o
TC3I48mMbnIVBPfL3kiJxW0tWh3xXoAHxUIlcY9WCo+Z1s4uQHAbRKGgRSOE1lQR
95UtNojstn+tzDKL8i/dL8c3SUIGMCUjB6fqxwvBX3BS/mdgmgZOfs7PUshIvOwA
roW+7vm+2oQOXv5otwAPv//zcCmW9SJ9Jh5jesseQoJ/4gXnRVGjfIgPeP54LDEz
7aNNmvAHTdsdhKP416o49s/A2UI2gxMdNNpmtAoYlSBTYvagt74iec0jn6fR2qc/
vS56wSzuDa730ekGGegzzYx2q1sjqPBoSXQ7PTZHjtEzDDaQ5Cww6ImEx2k3ondt
NQIDAQABo4IBYzCCAV8wCQYDVR0TBAIwADAtBglghkgBhvhCAQ0EIBYeRWFzeS1S
U0EgR2VuZXJhdGVkIENlcnRpZmljYXRlMB0GA1UdDgQWBBTV7RNpLlK7gEDgTjDE
Etzl2uInpjCB4QYDVR0jBIHZMIHWgBQSzWAE0qCAnnDtxpm4eyzGUv0ZoaGBsqSB
rzCBrDELMAkGA1UEBhMCVVMxCzAJBgNVBAgTAk9IMREwDwYDVQQHEwhDb2x1bWJ1
czESMBAGA1UEChMJVmlraW5nVlBOMR0wGwYDVQQLExRNeU9yZ2FuaXphdGlvbmFs
VW5pdDEVMBMGA1UEAxMMVmlraW5nVlBOIENBMRAwDgYDVQQpEwdFYXN5UlNBMSEw
HwYJKoZIhvcNAQkBFhJtZUBteWhvc3QubXlkb21haW6CCQDPNYXugL8qPjATBgNV
HSUEDDAKBggrBgEFBQcDAjALBgNVHQ8EBAMCB4AwDQYJKoZIhvcNAQELBQADggIB
AErjEHei1ASvKMvNL9aHcD0cA8pFnXWWCTjyR4kIv/FNz30b+c2udZVuADT4SA28
NsNIKoetCC91b9OsE2aX2DmVTj27iuchy4KHUjzmKFeC339WGUVZi5QfbaEy4El4
Voyzj0aP7JFsrCtjctOIoJ+z1TkOPAUmYcYQVFrATYNMJxhdhjwd+zsAta4LGFiP
ynLesEfTu9WDUVmIYz94k3+E7zY+5mnaBD0hAkKRyI/KYDQ3tm4fUdvaa/ynt1yF
mz9WtTssb1GksaQW2ZoRP/eUdRmsRwG+Y0tixi3KQhXLy/Y+dFZbGBm2g7nv0WFy
+36SuHUWX3ISdoBg5xgFivwTEWxXTR/2LsEiB+Y33mKZxxfzWh/cVj2U33mm4gUs
gJepmEu5mArhuVt1QTjACNcYTtq6GCqze2okNIqjqRWSLeejF9kT4ozHj2PnqIFN
nlEQDBFwZemQDgC7G7wFpMpvNUCBVEfZcaC6nQPyb451tI7V8h5Ia/SQZfACKR9j
VaY7F687mBXLjrWmxftOnBtx7sTMa19bGNqBHU/LezBzWsk60bY2c660y58z9aE3
W1DWAvj/0zOjFlm8V4qWqMdOLhUHX4PFQmh29SSPBPssiPeIqjB7vlr4DJRLGWUu
C90L43ES6QzAgFEFNbXGSuHCHNwdhfyhAZ/LIU/adwGk
-----END CERTIFICATE-----
