Certificate:
    Data:
        Version: 3 (0x2)
        Serial Number: 11562 (0x2d2a)
    Signature Algorithm: sha256WithRSAEncryption
        Issuer: C=US, ST=OH, L=Columbus, O=VikingVPN, OU=MyOrganizationalUnit, CN=VikingVPN CA/name=EasyRSA/emailAddress=me@myhost.mydomain
        Validity
            Not Before: Aug 14 22:06:21 2017 GMT
            Not After : Aug 12 22:06:21 2027 GMT
        Subject: CN=Client2676Certdecc02
        Subject Public Key Info:
            Public Key Algorithm: rsaEncryption
                Public-Key: (4096 bit)
                Modulus:
                    00:c1:e8:d3:73:00:b0:dd:14:97:c4:b0:1a:0d:9f:
                    e3:23:86:8f:08:cf:11:03:a5:ea:4f:2c:0a:ac:08:
                    76:e6:b6:ac:f6:bb:b2:5d:e4:cb:4a:29:27:ba:6a:
                    68:ab:82:f2:8a:3f:6d:cd:da:8d:e0:ca:15:9f:8e:
                    55:87:c0:86:e7:8e:79:ff:20:40:4f:65:cc:ba:cd:
                    b6:dd:a1:7b:81:c5:66:0a:17:73:45:c3:21:52:80:
                    ea:29:69:c7:6c:6b:b7:06:6c:be:e8:a4:eb:f9:68:
                    7e:49:93:e7:ba:4d:3b:de:38:3b:1a:41:2f:d6:c7:
                    46:8e:f5:ac:48:6d:55:40:c7:1f:6c:75:cb:f0:25:
                    a0:c3:f2:2e:98:6a:ab:fc:2f:bd:91:d8:5b:46:12:
                    d4:01:a6:1f:b1:9a:4c:11:58:fb:ca:ba:bd:ea:39:
                    9b:24:4a:94:dd:72:85:a9:48:03:4a:e2:17:68:e0:
                    c5:92:02:fb:30:0b:b6:a0:4b:a9:70:62:0e:63:f3:
                    54:c4:a7:19:f1:46:9f:80:44:67:4a:7f:b3:3a:8a:
                    25:15:d2:ae:67:d0:d1:45:d5:8a:e7:d1:f5:30:05:
                    ac:7d:99:a6:f0:62:fd:6d:41:21:00:99:65:c9:60:
                    35:f5:52:4f:58:9e:9e:4c:6a:e0:c1:2b:1c:67:3f:
                    74:db:af:b9:d5:c7:5c:b9:e0:ee:48:bf:ca:f2:af:
                    9a:ce:26:d4:2d:00:9c:43:21:06:df:8d:cd:f0:c6:
                    86:75:d5:6b:82:f9:8d:e7:4b:54:4e:e6:a4:16:67:
                    35:71:27:6c:26:7e:c9:80:64:eb:45:a2:6d:b9:e2:
                    ce:23:0e:09:42:21:6a:67:02:ec:cf:cd:0e:79:ca:
                    e1:d8:a9:7d:2f:20:b0:ed:d7:9a:4c:c4:c9:55:6e:
                    4d:7d:5b:99:56:eb:2b:ef:b2:69:96:1f:09:4a:30:
                    d3:20:c5:26:67:31:d5:b9:01:d6:0c:d4:25:3e:3c:
                    64:30:44:b7:18:d5:09:78:cb:aa:49:5e:7a:bf:09:
                    7b:0c:8a:09:24:df:32:92:5e:26:90:be:f2:68:52:
                    93:9a:22:37:60:96:1c:71:3d:71:70:cd:38:4e:e7:
                    4d:e8:d5:53:52:a3:9f:0c:99:2f:cb:12:fc:77:50:
                    03:97:d8:1a:f8:db:55:4d:49:e3:29:fd:56:f3:f6:
                    bb:32:5e:cb:88:af:ff:b2:e9:1a:d4:ba:d1:78:49:
                    e7:8e:da:33:f1:89:81:c4:db:76:fd:68:fe:e0:49:
                    a0:74:3d:09:b6:33:59:ff:73:ca:3f:e5:cd:ae:9e:
                    71:b7:8c:09:c3:b6:5f:88:93:70:e7:54:24:03:ca:
                    60:1e:9f
                Exponent: 65537 (0x10001)
        X509v3 extensions:
            X509v3 Basic Constraints: 
                CA:FALSE
            Netscape Comment: 
                Easy-RSA Generated Certificate
            X509v3 Subject Key Identifier: 
                F3:A3:6D:28:26:69:61:53:B7:CA:60:CA:F3:7B:88:4B:84:2B:86:78
            X509v3 Authority Key Identifier: 
                keyid:12:CD:60:04:D2:A0:80:9E:70:ED:C6:99:B8:7B:2C:C6:52:FD:19:A1
                DirName:/C=US/ST=OH/L=Columbus/O=VikingVPN/OU=MyOrganizationalUnit/CN=VikingVPN CA/name=EasyRSA/emailAddress=me@myhost.mydomain
                serial:CF:35:85:EE:80:BF:2A:3E

            X509v3 Extended Key Usage: 
                TLS Web Client Authentication
            X509v3 Key Usage: 
                Digital Signature
    Signature Algorithm: sha256WithRSAEncryption
         10:88:d5:50:d9:04:ab:fb:8e:53:36:87:37:f5:0f:c0:4a:cc:
         aa:2a:c3:be:01:29:84:ed:aa:46:bf:3d:be:72:75:a4:65:71:
         fc:8a:25:3a:91:8e:9f:76:69:c4:d0:9c:e6:ec:cd:67:6e:5a:
         5c:e0:92:3a:17:f5:55:b4:54:7d:8a:32:c3:f7:97:09:82:a1:
         a3:17:69:b4:16:cb:f9:19:dd:ef:00:1a:dc:35:42:b1:2e:96:
         5a:1b:7e:dd:b2:0b:59:ed:ce:ee:40:74:3d:dd:fb:2f:c8:27:
         a7:cc:fe:42:34:a3:33:0f:62:fd:91:68:01:b9:7c:8d:8b:95:
         73:4f:03:10:c7:b6:5d:cb:e8:02:74:07:58:7d:c7:bd:29:c0:
         a1:b2:f4:ae:9f:87:f7:9e:c4:3c:04:ea:14:ed:e2:be:c0:0d:
         d6:bd:c8:14:0c:80:d8:6d:7e:46:f3:a5:f0:55:e9:6c:1a:61:
         0d:44:d9:b1:b2:69:40:3d:37:e7:cd:cc:be:c5:2f:d8:d2:db:
         46:9a:d2:29:45:ce:e4:47:ca:23:5d:2e:9f:78:d3:08:2b:ed:
         f0:33:3a:06:fb:f1:71:04:db:e6:af:94:1d:b2:09:b0:c9:89:
         70:97:45:49:14:1e:de:83:7e:a8:d3:77:a9:d3:04:ba:86:da:
         8f:6c:a7:5e:d2:e0:42:c3:67:c3:26:de:9e:2b:2f:2b:d5:43:
         e7:5d:e1:61:ca:69:45:e9:44:e3:fc:d0:f5:94:75:18:3f:d3:
         f4:c1:89:fa:3d:4b:60:74:76:43:a1:17:97:0f:93:6f:29:29:
         94:1e:13:49:03:b2:d7:7d:84:15:83:94:d7:88:d3:83:f2:a7:
         6d:62:00:b4:a2:1b:82:5e:28:b0:ef:38:9f:e8:53:8d:9f:0f:
         3a:fc:2e:f3:d9:fb:d4:9f:26:95:47:2e:3b:83:52:f0:80:5e:
         d5:2c:9d:01:46:aa:ce:e3:76:f4:9d:30:82:af:7c:79:f4:43:
         59:cb:e5:96:8f:9d:9b:ce:c9:33:ea:25:77:85:be:52:58:fc:
         76:c9:7a:4e:71:07:5c:49:a5:ee:44:97:35:05:51:fe:24:43:
         6b:c7:96:e8:54:c8:b7:d0:03:48:8e:d0:34:5a:8a:e1:49:c9:
         86:a5:24:ea:2d:34:37:96:80:f0:26:8f:11:58:c4:81:0f:2b:
         fc:a5:f7:f6:a7:aa:7f:9d:1d:a5:18:79:c8:80:5c:e2:dd:b0:
         0b:f9:86:58:39:d3:17:fa:63:d8:77:9d:0a:b4:e3:6b:62:0e:
         55:50:f9:e0:c0:1a:bd:91:d6:23:79:71:6f:6f:c0:08:26:f6:
         7b:83:82:66:7d:b4:5a:cd
-----BEGIN CERTIFICATE-----
MIIGrTCCBJWgAwIBAgICLSowDQYJKoZIhvcNAQELBQAwgawxCzAJBgNVBAYTAlVT
MQswCQYDVQQIEwJPSDERMA8GA1UEBxMIQ29sdW1idXMxEjAQBgNVBAoTCVZpa2lu
Z1ZQTjEdMBsGA1UECxMUTXlPcmdhbml6YXRpb25hbFVuaXQxFTATBgNVBAMTDFZp
a2luZ1ZQTiBDQTEQMA4GA1UEKRMHRWFzeVJTQTEhMB8GCSqGSIb3DQEJARYSbWVA
bXlob3N0Lm15ZG9tYWluMB4XDTE3MDgxNDIyMDYyMVoXDTI3MDgxMjIyMDYyMVow
HzEdMBsGA1UEAxMUQ2xpZW50MjY3NkNlcnRkZWNjMDIwggIiMA0GCSqGSIb3DQEB
AQUAA4ICDwAwggIKAoICAQDB6NNzALDdFJfEsBoNn+Mjho8IzxEDpepPLAqsCHbm
tqz2u7Jd5MtKKSe6amirgvKKP23N2o3gyhWfjlWHwIbnjnn/IEBPZcy6zbbdoXuB
xWYKF3NFwyFSgOopacdsa7cGbL7opOv5aH5Jk+e6TTveODsaQS/Wx0aO9axIbVVA
xx9sdcvwJaDD8i6Yaqv8L72R2FtGEtQBph+xmkwRWPvKur3qOZskSpTdcoWpSANK
4hdo4MWSAvswC7agS6lwYg5j81TEpxnxRp+ARGdKf7M6iiUV0q5n0NFF1Yrn0fUw
Bax9mabwYv1tQSEAmWXJYDX1Uk9Ynp5MauDBKxxnP3Tbr7nVx1y54O5Iv8ryr5rO
JtQtAJxDIQbfjc3wxoZ11WuC+Y3nS1RO5qQWZzVxJ2wmfsmAZOtFom254s4jDglC
IWpnAuzPzQ55yuHYqX0vILDt15pMxMlVbk19W5lW6yvvsmmWHwlKMNMgxSZnMdW5
AdYM1CU+PGQwRLcY1Ql4y6pJXnq/CXsMigkk3zKSXiaQvvJoUpOaIjdglhxxPXFw
zThO503o1VNSo58MmS/LEvx3UAOX2Br421VNSeMp/Vbz9rsyXsuIr/+y6RrUutF4
SeeO2jPxiYHE23b9aP7gSaB0PQm2M1n/c8o/5c2unnG3jAnDtl+Ik3DnVCQDymAe
nwIDAQABo4IBYzCCAV8wCQYDVR0TBAIwADAtBglghkgBhvhCAQ0EIBYeRWFzeS1S
U0EgR2VuZXJhdGVkIENlcnRpZmljYXRlMB0GA1UdDgQWBBTzo20oJmlhU7fKYMrz
e4hLhCuGeDCB4QYDVR0jBIHZMIHWgBQSzWAE0qCAnnDtxpm4eyzGUv0ZoaGBsqSB
rzCBrDELMAkGA1UEBhMCVVMxCzAJBgNVBAgTAk9IMREwDwYDVQQHEwhDb2x1bWJ1
czESMBAGA1UEChMJVmlraW5nVlBOMR0wGwYDVQQLExRNeU9yZ2FuaXphdGlvbmFs
VW5pdDEVMBMGA1UEAxMMVmlraW5nVlBOIENBMRAwDgYDVQQpEwdFYXN5UlNBMSEw
HwYJKoZIhvcNAQkBFhJtZUBteWhvc3QubXlkb21haW6CCQDPNYXugL8qPjATBgNV
HSUEDDAKBggrBgEFBQcDAjALBgNVHQ8EBAMCB4AwDQYJKoZIhvcNAQELBQADggIB
ABCI1VDZBKv7jlM2hzf1D8BKzKoqw74BKYTtqka/Pb5ydaRlcfyKJTqRjp92acTQ
nObszWduWlzgkjoX9VW0VH2KMsP3lwmCoaMXabQWy/kZ3e8AGtw1QrEullobft2y
C1ntzu5AdD3d+y/IJ6fM/kI0ozMPYv2RaAG5fI2LlXNPAxDHtl3L6AJ0B1h9x70p
wKGy9K6fh/eexDwE6hTt4r7ADda9yBQMgNhtfkbzpfBV6WwaYQ1E2bGyaUA9N+fN
zL7FL9jS20aa0ilFzuRHyiNdLp940wgr7fAzOgb78XEE2+avlB2yCbDJiXCXRUkU
Ht6DfqjTd6nTBLqG2o9sp17S4ELDZ8Mm3p4rLyvVQ+dd4WHKaUXpROP80PWUdRg/
0/TBifo9S2B0dkOhF5cPk28pKZQeE0kDstd9hBWDlNeI04Pyp21iALSiG4JeKLDv
OJ/oU42fDzr8LvPZ+9SfJpVHLjuDUvCAXtUsnQFGqs7jdvSdMIKvfHn0Q1nL5ZaP
nZvOyTPqJXeFvlJY/HbJek5xB1xJpe5ElzUFUf4kQ2vHluhUyLfQA0iO0DRaiuFJ
yYalJOotNDeWgPAmjxFYxIEPK/yl9/anqn+dHaUYeciAXOLdsAv5hlg50xf6Y9h3
nQq042tiDlVQ+eDAGr2R1iN5cW9vwAgm9nuDgmZ9tFrN
-----END CERTIFICATE-----
