Certificate:
    Data:
        Version: 3 (0x2)
        Serial Number: 11577 (0x2d39)
    Signature Algorithm: sha256WithRSAEncryption
        Issuer: C=US, ST=OH, L=Columbus, O=VikingVPN, OU=MyOrganizationalUnit, CN=VikingVPN CA/name=EasyRSA/emailAddress=me@myhost.mydomain
        Validity
            Not Before: Aug 18 11:30:29 2017 GMT
            Not After : Aug 16 11:30:29 2027 GMT
        Subject: CN=Client3052Certd10e4e
        Subject Public Key Info:
            Public Key Algorithm: rsaEncryption
                Public-Key: (4096 bit)
                Modulus:
                    00:9d:d8:8d:67:ab:04:81:e8:87:78:e2:54:b5:a2:
                    bd:bf:a6:af:0a:57:5c:ae:f4:8b:d8:b8:1c:47:a4:
                    63:8a:38:be:75:a5:b3:40:21:a3:d9:3e:69:be:cd:
                    17:5b:25:4e:41:10:84:2f:19:56:fb:d5:25:07:b0:
                    b9:32:38:9f:a7:69:a3:c2:80:c3:8f:99:09:b8:03:
                    f9:b8:12:c3:f4:7c:3a:3d:6c:60:6f:72:8f:89:a1:
                    ee:88:ad:c2:39:d5:b7:de:7e:2b:f2:fc:13:73:cb:
                    b6:6c:99:31:9d:09:7d:80:86:b4:9f:f8:88:de:4b:
                    bc:d0:0e:10:69:6f:49:9e:6e:f5:50:09:91:dc:58:
                    a4:cb:fb:dd:00:77:71:0b:63:44:44:2b:05:ac:31:
                    3f:1f:cd:c6:96:22:de:57:e5:24:e1:ae:45:0b:0a:
                    1c:92:45:5a:66:8c:b2:b3:8f:43:41:f1:b7:ad:f8:
                    96:08:0b:33:c6:0e:86:3e:f2:dd:d5:34:79:df:76:
                    07:8e:98:ea:f4:53:db:ff:5c:54:e8:ff:68:4e:df:
                    05:d7:ea:77:34:c3:cc:2b:f2:14:39:2a:95:46:ee:
                    95:c5:ba:94:d4:40:8e:da:b4:7e:5f:7d:fe:29:90:
                    1c:7f:bb:9a:ca:24:c4:80:48:65:4a:d5:c9:de:e0:
                    76:38:a3:0f:9c:75:b9:1e:74:07:32:2d:e7:77:2d:
                    2d:5a:23:3b:13:19:13:96:e6:f8:f6:5a:e1:f9:2e:
                    ce:23:87:4c:e1:ee:1b:ae:df:64:71:a8:6d:f5:59:
                    87:fa:ca:b1:70:83:a2:0f:cd:e7:72:b9:bc:dc:cd:
                    f5:c0:01:c5:d7:cd:bb:c6:d4:a3:ac:23:98:a3:08:
                    9d:50:b1:2e:0f:4f:c8:69:10:da:b9:d8:dc:87:bb:
                    dd:a1:83:01:fb:98:c3:75:77:85:d2:99:82:15:80:
                    63:c9:4b:fb:b5:2c:ce:7e:e3:09:cf:1f:33:8a:b9:
                    35:c8:46:f7:d8:47:b5:22:bb:09:ba:00:04:04:21:
                    1b:e6:fc:da:96:41:2d:5c:30:61:13:8f:1b:8f:e4:
                    d3:bc:b4:57:c3:3e:35:d8:08:cf:7e:02:e6:b4:29:
                    a1:b0:7d:2d:ed:69:02:31:e5:40:1c:e1:b9:ac:67:
                    a5:aa:83:ce:57:16:49:e7:b0:f4:76:9b:fe:7b:47:
                    26:04:2d:ee:b0:7c:e1:c2:53:8c:b3:ac:2d:95:9f:
                    57:f8:e4:d8:6e:a4:cf:c7:8f:95:9c:32:2c:e0:dc:
                    b2:d8:c9:cf:02:f2:83:09:84:2e:82:b6:51:c4:71:
                    b4:78:55:29:fb:aa:fe:6a:a4:23:d9:e3:fe:95:e9:
                    8e:f1:85
                Exponent: 65537 (0x10001)
        X509v3 extensions:
            X509v3 Basic Constraints: 
                CA:FALSE
            Netscape Comment: 
                Easy-RSA Generated Certificate
            X509v3 Subject Key Identifier: 
                45:81:8C:39:8B:E5:94:A3:F4:48:5A:4C:FF:F8:BF:F8:D5:B1:F5:7D
            X509v3 Authority Key Identifier: 
                keyid:12:CD:60:04:D2:A0:80:9E:70:ED:C6:99:B8:7B:2C:C6:52:FD:19:A1
                DirName:/C=US/ST=OH/L=Columbus/O=VikingVPN/OU=MyOrganizationalUnit/CN=VikingVPN CA/name=EasyRSA/emailAddress=me@myhost.mydomain
                serial:CF:35:85:EE:80:BF:2A:3E

            X509v3 Extended Key Usage: 
                TLS Web Client Authentication
            X509v3 Key Usage: 
                Digital Signature
    Signature Algorithm: sha256WithRSAEncryption
         58:fe:95:1a:51:33:e5:33:f1:2e:28:fc:86:48:c8:21:77:d2:
         02:ac:ee:7c:98:68:69:11:21:4b:97:db:db:5d:3b:b8:97:f3:
         17:49:1b:a7:26:80:42:4d:a8:4a:e4:ed:f8:7d:0b:d6:56:ff:
         70:21:b3:02:d3:2f:0b:92:43:f3:1c:69:51:10:ac:43:ef:ed:
         ee:61:2f:83:b7:40:4a:ba:1a:3a:2a:5b:af:e6:64:d5:b2:2f:
         de:10:a5:db:11:0e:3b:1c:0b:4f:e1:50:99:b2:64:0e:1c:27:
         a5:00:43:05:ec:0f:80:17:7c:d2:5b:66:f2:ff:89:d1:08:1f:
         1b:54:fb:b6:91:18:32:da:4b:31:76:46:f6:ca:6a:bc:51:03:
         91:84:bf:68:57:f8:aa:09:4e:8d:69:1e:3e:1e:2c:e6:6a:c8:
         5b:e5:d7:4f:02:ea:ed:6d:9f:95:16:7d:8f:db:5a:ac:28:01:
         a9:7a:00:7b:a7:68:da:59:91:49:b0:03:6c:41:2c:94:a7:07:
         42:c1:43:2d:3e:2d:7e:26:d8:88:7c:e9:cf:39:b5:d2:1c:30:
         18:eb:ef:a5:14:b3:99:04:78:0d:57:a5:2f:cc:0d:77:53:3d:
         d0:79:c7:ed:c3:e6:3a:3d:a0:68:11:6f:88:75:4e:2e:68:cc:
         51:9e:4f:4d:48:03:97:48:f6:0c:70:ec:c7:05:e0:1c:95:df:
         7c:df:72:61:f7:e2:69:49:c4:d1:b0:9c:dc:f2:04:04:72:bf:
         5a:5d:46:3e:56:51:32:52:8a:60:d4:eb:23:48:aa:08:0b:fd:
         66:27:9f:94:d5:29:ea:3c:b0:d8:d8:9b:ac:89:14:8f:5e:dd:
         38:f3:0a:fe:58:be:9d:3f:95:9b:8b:10:9c:76:1b:32:fc:64:
         02:36:90:08:0a:2c:2d:61:29:0c:64:35:f0:00:9b:72:8b:17:
         a7:66:60:34:c7:00:89:cf:8e:46:2a:85:90:df:47:79:55:93:
         97:fe:ed:8a:c7:ec:04:9c:f5:dd:f2:ef:b4:02:06:9c:34:ba:
         5d:03:29:5b:57:55:6a:95:2c:b6:d8:8f:f9:0b:08:93:d3:34:
         b6:d6:7c:2e:cc:21:91:22:f5:8e:66:3d:e5:c0:e4:ef:48:82:
         57:a6:08:11:a9:18:0a:20:47:78:e1:54:e7:29:67:23:15:d9:
         ed:00:7c:9f:a1:a0:4d:f5:04:31:fc:35:36:83:25:fa:01:85:
         25:c7:66:4e:d1:19:0d:e2:9c:ba:15:cf:ea:6a:ef:d3:df:f4:
         52:d2:ee:4c:09:1d:de:af:ec:4b:57:a5:01:e9:c4:5f:92:7c:
         af:3a:28:e0:d6:16:4b:f8
-----BEGIN CERTIFICATE-----
MIIGrTCCBJWgAwIBAgICLTkwDQYJKoZIhvcNAQELBQAwgawxCzAJBgNVBAYTAlVT
MQswCQYDVQQIEwJPSDERMA8GA1UEBxMIQ29sdW1idXMxEjAQBgNVBAoTCVZpa2lu
Z1ZQTjEdMBsGA1UECxMUTXlPcmdhbml6YXRpb25hbFVuaXQxFTATBgNVBAMTDFZp
a2luZ1ZQTiBDQTEQMA4GA1UEKRMHRWFzeVJTQTEhMB8GCSqGSIb3DQEJARYSbWVA
bXlob3N0Lm15ZG9tYWluMB4XDTE3MDgxODExMzAyOVoXDTI3MDgxNjExMzAyOVow
HzEdMBsGA1UEAxMUQ2xpZW50MzA1MkNlcnRkMTBlNGUwggIiMA0GCSqGSIb3DQEB
AQUAA4ICDwAwggIKAoICAQCd2I1nqwSB6Id44lS1or2/pq8KV1yu9IvYuBxHpGOK
OL51pbNAIaPZPmm+zRdbJU5BEIQvGVb71SUHsLkyOJ+naaPCgMOPmQm4A/m4EsP0
fDo9bGBvco+Joe6IrcI51bfefivy/BNzy7ZsmTGdCX2AhrSf+IjeS7zQDhBpb0me
bvVQCZHcWKTL+90Ad3ELY0REKwWsMT8fzcaWIt5X5SThrkULChySRVpmjLKzj0NB
8bet+JYICzPGDoY+8t3VNHnfdgeOmOr0U9v/XFTo/2hO3wXX6nc0w8wr8hQ5KpVG
7pXFupTUQI7atH5fff4pkBx/u5rKJMSASGVK1cne4HY4ow+cdbkedAcyLed3LS1a
IzsTGROW5vj2WuH5Ls4jh0zh7huu32RxqG31WYf6yrFwg6IPzedyubzczfXAAcXX
zbvG1KOsI5ijCJ1QsS4PT8hpENq52NyHu92hgwH7mMN1d4XSmYIVgGPJS/u1LM5+
4wnPHzOKuTXIRvfYR7Uiuwm6AAQEIRvm/NqWQS1cMGETjxuP5NO8tFfDPjXYCM9+
Aua0KaGwfS3taQIx5UAc4bmsZ6Wqg85XFknnsPR2m/57RyYELe6wfOHCU4yzrC2V
n1f45NhupM/Hj5WcMizg3LLYyc8C8oMJhC6CtlHEcbR4VSn7qv5qpCPZ4/6V6Y7x
hQIDAQABo4IBYzCCAV8wCQYDVR0TBAIwADAtBglghkgBhvhCAQ0EIBYeRWFzeS1S
U0EgR2VuZXJhdGVkIENlcnRpZmljYXRlMB0GA1UdDgQWBBRFgYw5i+WUo/RIWkz/
+L/41bH1fTCB4QYDVR0jBIHZMIHWgBQSzWAE0qCAnnDtxpm4eyzGUv0ZoaGBsqSB
rzCBrDELMAkGA1UEBhMCVVMxCzAJBgNVBAgTAk9IMREwDwYDVQQHEwhDb2x1bWJ1
czESMBAGA1UEChMJVmlraW5nVlBOMR0wGwYDVQQLExRNeU9yZ2FuaXphdGlvbmFs
VW5pdDEVMBMGA1UEAxMMVmlraW5nVlBOIENBMRAwDgYDVQQpEwdFYXN5UlNBMSEw
HwYJKoZIhvcNAQkBFhJtZUBteWhvc3QubXlkb21haW6CCQDPNYXugL8qPjATBgNV
HSUEDDAKBggrBgEFBQcDAjALBgNVHQ8EBAMCB4AwDQYJKoZIhvcNAQELBQADggIB
AFj+lRpRM+Uz8S4o/IZIyCF30gKs7nyYaGkRIUuX29tdO7iX8xdJG6cmgEJNqErk
7fh9C9ZW/3AhswLTLwuSQ/McaVEQrEPv7e5hL4O3QEq6GjoqW6/mZNWyL94QpdsR
DjscC0/hUJmyZA4cJ6UAQwXsD4AXfNJbZvL/idEIHxtU+7aRGDLaSzF2RvbKarxR
A5GEv2hX+KoJTo1pHj4eLOZqyFvl108C6u1tn5UWfY/bWqwoAal6AHunaNpZkUmw
A2xBLJSnB0LBQy0+LX4m2Ih86c85tdIcMBjr76UUs5kEeA1XpS/MDXdTPdB5x+3D
5jo9oGgRb4h1Ti5ozFGeT01IA5dI9gxw7McF4ByV33zfcmH34mlJxNGwnNzyBARy
v1pdRj5WUTJSimDU6yNIqggL/WYnn5TVKeo8sNjYm6yJFI9e3TjzCv5Yvp0/lZuL
EJx2GzL8ZAI2kAgKLC1hKQxkNfAAm3KLF6dmYDTHAInPjkYqhZDfR3lVk5f+7YrH
7ASc9d3y77QCBpw0ul0DKVtXVWqVLLbYj/kLCJPTNLbWfC7MIZEi9Y5mPeXA5O9I
glemCBGpGAogR3jhVOcpZyMV2e0AfJ+hoE31BDH8NTaDJfoBhSXHZk7RGQ3inLoV
z+pq79Pf9FLS7kwJHd6v7EtXpQHpxF+SfK86KODWFkv4
-----END CERTIFICATE-----
