Certificate:
    Data:
        Version: 3 (0x2)
        Serial Number: 11601 (0x2d51)
    Signature Algorithm: sha256WithRSAEncryption
        Issuer: C=US, ST=OH, L=Columbus, O=VikingVPN, OU=MyOrganizationalUnit, CN=VikingVPN CA/name=EasyRSA/emailAddress=me@myhost.mydomain
        Validity
            Not Before: Aug 22 06:30:58 2017 GMT
            Not After : Aug 20 06:30:58 2027 GMT
        Subject: CN=Client3047Cert448580
        Subject Public Key Info:
            Public Key Algorithm: rsaEncryption
                Public-Key: (4096 bit)
                Modulus:
                    00:a4:21:3c:f6:7f:b8:af:df:7a:f1:83:d6:8b:6a:
                    34:50:1b:e8:20:00:40:c6:14:db:10:d3:e7:b1:68:
                    27:45:8f:7e:e2:80:32:b5:0d:7b:b5:5e:5a:fe:1e:
                    d8:2a:c9:c5:a3:b1:dc:7f:0a:3e:eb:69:58:3c:09:
                    9e:be:58:d8:75:08:05:8d:79:c3:47:fc:0d:8e:06:
                    48:1d:e1:31:97:4b:fb:19:88:a8:e3:97:6c:d2:f3:
                    c1:8f:97:74:56:2d:6c:4d:84:04:6e:cc:98:02:cf:
                    26:82:db:0f:63:14:fc:39:68:23:11:30:b1:18:30:
                    4c:d8:5f:a4:c7:ab:a2:d5:a7:e2:43:0d:50:91:72:
                    d9:0c:8b:d7:82:74:78:b4:a7:af:0b:d4:ff:9d:7d:
                    fd:08:ff:da:3f:c1:3e:eb:f1:94:55:b8:24:29:6f:
                    6c:0f:7a:fe:b3:32:2a:3c:5a:25:c7:95:e1:ee:1e:
                    15:b8:11:07:05:ed:16:96:12:bf:5d:7d:73:04:c4:
                    98:83:30:c3:a3:ba:f9:cd:a7:6d:0e:c0:e6:aa:dc:
                    6b:3e:38:60:87:03:69:e1:57:b4:4c:c4:54:9a:e1:
                    39:ce:d9:f1:12:42:39:87:90:28:95:69:43:ba:d3:
                    64:20:3d:f7:6f:98:1a:32:de:f2:7b:f2:a7:e9:b0:
                    7c:af:a5:05:8b:e5:d5:c0:ce:08:00:21:f2:9c:40:
                    8d:bd:14:ea:77:bc:8b:71:14:dd:1c:95:bc:c1:90:
                    37:30:aa:14:bf:be:5b:d2:df:e5:c3:c4:61:f9:6c:
                    ed:e3:cc:8f:4f:f3:28:ae:43:08:e4:45:21:c0:9c:
                    7d:4b:21:15:5a:94:12:44:43:c8:82:f3:0f:7f:ee:
                    74:40:d3:fd:b7:df:92:a3:48:dc:f0:3e:b0:d6:a5:
                    1d:4a:22:6c:47:a9:60:3b:2b:bf:b0:de:ac:22:6c:
                    42:69:c2:e0:cd:4f:35:ef:9e:24:60:90:9a:ce:77:
                    58:01:02:9d:e5:b1:3f:89:42:db:74:d2:f0:20:3e:
                    98:32:11:ad:d3:53:33:f9:ba:5b:a7:b4:ed:1f:c4:
                    0b:54:6b:8e:65:e4:3d:7b:40:b0:1a:40:0e:db:09:
                    1e:ad:ea:f1:96:e8:2a:72:6c:31:be:cd:d2:28:18:
                    5e:bc:19:8d:7c:80:52:f6:ba:d5:4a:10:22:3c:4e:
                    f6:1b:be:80:54:42:3f:7c:85:51:60:60:bb:5c:c9:
                    00:c9:83:c9:ee:ed:10:3f:12:c2:7b:96:a0:c8:4d:
                    a1:bd:a3:e3:f7:a8:59:92:b5:44:ee:ce:27:a0:e2:
                    9b:88:5f:e1:2e:fa:a2:b1:d5:ca:44:ce:65:56:3e:
                    a3:b2:f5
                Exponent: 65537 (0x10001)
        X509v3 extensions:
            X509v3 Basic Constraints: 
                CA:FALSE
            Netscape Comment: 
                Easy-RSA Generated Certificate
            X509v3 Subject Key Identifier: 
                F3:D8:BF:8F:F8:34:57:BF:BA:AF:67:EB:DF:C4:51:94:1D:00:7F:E2
            X509v3 Authority Key Identifier: 
                keyid:12:CD:60:04:D2:A0:80:9E:70:ED:C6:99:B8:7B:2C:C6:52:FD:19:A1
                DirName:/C=US/ST=OH/L=Columbus/O=VikingVPN/OU=MyOrganizationalUnit/CN=VikingVPN CA/name=EasyRSA/emailAddress=me@myhost.mydomain
                serial:CF:35:85:EE:80:BF:2A:3E

            X509v3 Extended Key Usage: 
                TLS Web Client Authentication
            X509v3 Key Usage: 
                Digital Signature
    Signature Algorithm: sha256WithRSAEncryption
         37:d2:0f:22:93:36:c6:d0:ef:6e:28:03:84:31:44:f4:37:19:
         ef:b6:55:6a:e8:53:a1:27:4a:8c:1f:3b:a8:a9:c7:69:f7:fa:
         ef:a1:62:08:dc:55:d8:2f:3c:65:0a:25:d5:8b:cf:d8:3f:bc:
         de:46:31:51:0b:3f:56:25:9f:21:ca:2e:7d:67:aa:b0:96:46:
         75:0a:9a:02:f8:91:95:61:fd:46:b7:96:05:1f:a7:48:ed:1e:
         4e:e8:96:55:6a:5f:a3:7a:7d:29:80:dd:9c:93:54:10:59:66:
         90:8e:0e:ae:3f:87:76:02:a8:59:f5:c7:87:24:0d:48:a5:0d:
         55:26:38:a1:d6:0e:91:24:de:f6:c5:aa:b2:10:e0:ee:12:f7:
         94:43:20:81:d9:2e:41:01:c2:43:5c:11:23:84:db:8b:09:15:
         54:94:40:b5:1d:8d:10:de:11:4a:fc:c7:c3:bd:c6:de:de:d5:
         95:5b:ff:14:58:64:5c:7b:ec:33:e7:c2:1d:34:5f:75:c5:09:
         62:16:91:42:66:75:31:72:f7:40:87:af:fc:cb:94:91:eb:15:
         c0:36:66:ff:c0:4d:ec:4a:30:e5:3e:87:31:85:3e:5d:2d:27:
         5b:0a:9d:51:42:aa:e5:78:b0:9f:27:4a:2d:fd:d0:dd:d4:0e:
         ea:df:fa:f2:44:d8:d8:f5:da:8b:87:c3:70:84:e8:cc:e6:24:
         91:15:a5:37:f1:39:43:a5:43:b8:b9:c0:c6:ea:5a:1d:a7:60:
         80:6d:b3:3c:5b:26:f0:92:fc:cf:06:a3:65:ab:1a:1a:47:57:
         1d:b9:c7:98:ce:c5:74:26:5a:9b:54:47:cc:a2:78:8f:7b:67:
         39:9e:b9:bd:d1:97:7e:ae:4a:3c:38:c3:16:53:fd:92:2a:cb:
         e8:b9:65:8c:3b:0e:84:db:76:77:e3:71:fc:b1:35:12:dc:f3:
         97:f6:70:23:cd:96:b6:06:b9:b5:98:26:dc:54:4e:76:7e:73:
         a9:c0:88:24:e2:c6:4a:18:88:a4:af:6f:13:93:19:75:0b:e6:
         89:48:4d:20:f3:56:72:3a:8e:a6:bb:76:8e:85:f5:c1:2f:cf:
         e3:20:47:60:0d:7d:62:2a:a6:53:61:c1:7b:6d:65:2f:75:c9:
         24:fd:c7:b6:7d:30:a2:d0:5f:e7:27:73:1c:95:de:58:9e:a6:
         9e:3b:9b:f8:2e:c0:bb:26:17:57:bf:56:3a:01:a3:8e:03:5b:
         df:f2:c9:a8:34:1f:c6:ff:39:0f:33:95:88:16:e4:7d:ca:8a:
         2e:76:fd:2f:be:11:a9:4d:b0:a1:b4:42:33:75:4f:71:91:fe:
         7e:89:f3:54:45:6f:57:f3
-----BEGIN CERTIFICATE-----
MIIGrTCCBJWgAwIBAgICLVEwDQYJKoZIhvcNAQELBQAwgawxCzAJBgNVBAYTAlVT
MQswCQYDVQQIEwJPSDERMA8GA1UEBxMIQ29sdW1idXMxEjAQBgNVBAoTCVZpa2lu
Z1ZQTjEdMBsGA1UECxMUTXlPcmdhbml6YXRpb25hbFVuaXQxFTATBgNVBAMTDFZp
a2luZ1ZQTiBDQTEQMA4GA1UEKRMHRWFzeVJTQTEhMB8GCSqGSIb3DQEJARYSbWVA
bXlob3N0Lm15ZG9tYWluMB4XDTE3MDgyMjA2MzA1OFoXDTI3MDgyMDA2MzA1OFow
HzEdMBsGA1UEAxMUQ2xpZW50MzA0N0NlcnQ0NDg1ODAwggIiMA0GCSqGSIb3DQEB
AQUAA4ICDwAwggIKAoICAQCkITz2f7iv33rxg9aLajRQG+ggAEDGFNsQ0+exaCdF
j37igDK1DXu1Xlr+HtgqycWjsdx/Cj7raVg8CZ6+WNh1CAWNecNH/A2OBkgd4TGX
S/sZiKjjl2zS88GPl3RWLWxNhARuzJgCzyaC2w9jFPw5aCMRMLEYMEzYX6THq6LV
p+JDDVCRctkMi9eCdHi0p68L1P+dff0I/9o/wT7r8ZRVuCQpb2wPev6zMio8WiXH
leHuHhW4EQcF7RaWEr9dfXMExJiDMMOjuvnNp20OwOaq3Gs+OGCHA2nhV7RMxFSa
4TnO2fESQjmHkCiVaUO602QgPfdvmBoy3vJ78qfpsHyvpQWL5dXAzggAIfKcQI29
FOp3vItxFN0clbzBkDcwqhS/vlvS3+XDxGH5bO3jzI9P8yiuQwjkRSHAnH1LIRVa
lBJEQ8iC8w9/7nRA0/2335KjSNzwPrDWpR1KImxHqWA7K7+w3qwibEJpwuDNTzXv
niRgkJrOd1gBAp3lsT+JQtt00vAgPpgyEa3TUzP5uluntO0fxAtUa45l5D17QLAa
QA7bCR6t6vGW6CpybDG+zdIoGF68GY18gFL2utVKECI8TvYbvoBUQj98hVFgYLtc
yQDJg8nu7RA/EsJ7lqDITaG9o+P3qFmStUTuzieg4puIX+Eu+qKx1cpEzmVWPqOy
9QIDAQABo4IBYzCCAV8wCQYDVR0TBAIwADAtBglghkgBhvhCAQ0EIBYeRWFzeS1S
U0EgR2VuZXJhdGVkIENlcnRpZmljYXRlMB0GA1UdDgQWBBTz2L+P+DRXv7qvZ+vf
xFGUHQB/4jCB4QYDVR0jBIHZMIHWgBQSzWAE0qCAnnDtxpm4eyzGUv0ZoaGBsqSB
rzCBrDELMAkGA1UEBhMCVVMxCzAJBgNVBAgTAk9IMREwDwYDVQQHEwhDb2x1bWJ1
czESMBAGA1UEChMJVmlraW5nVlBOMR0wGwYDVQQLExRNeU9yZ2FuaXphdGlvbmFs
VW5pdDEVMBMGA1UEAxMMVmlraW5nVlBOIENBMRAwDgYDVQQpEwdFYXN5UlNBMSEw
HwYJKoZIhvcNAQkBFhJtZUBteWhvc3QubXlkb21haW6CCQDPNYXugL8qPjATBgNV
HSUEDDAKBggrBgEFBQcDAjALBgNVHQ8EBAMCB4AwDQYJKoZIhvcNAQELBQADggIB
ADfSDyKTNsbQ724oA4QxRPQ3Ge+2VWroU6EnSowfO6ipx2n3+u+hYgjcVdgvPGUK
JdWLz9g/vN5GMVELP1YlnyHKLn1nqrCWRnUKmgL4kZVh/Ua3lgUfp0jtHk7ollVq
X6N6fSmA3ZyTVBBZZpCODq4/h3YCqFn1x4ckDUilDVUmOKHWDpEk3vbFqrIQ4O4S
95RDIIHZLkEBwkNcESOE24sJFVSUQLUdjRDeEUr8x8O9xt7e1ZVb/xRYZFx77DPn
wh00X3XFCWIWkUJmdTFy90CHr/zLlJHrFcA2Zv/ATexKMOU+hzGFPl0tJ1sKnVFC
quV4sJ8nSi390N3UDurf+vJE2Nj12ouHw3CE6MzmJJEVpTfxOUOlQ7i5wMbqWh2n
YIBtszxbJvCS/M8Go2WrGhpHVx25x5jOxXQmWptUR8yieI97Zzmeub3Rl36uSjw4
wxZT/ZIqy+i5ZYw7DoTbdnfjcfyxNRLc85f2cCPNlrYGubWYJtxUTnZ+c6nAiCTi
xkoYiKSvbxOTGXUL5olITSDzVnI6jqa7do6F9cEvz+MgR2ANfWIqplNhwXttZS91
yST9x7Z9MKLQX+cncxyV3liepp47m/guwLsmF1e/VjoBo44DW9/yyag0H8b/OQ8z
lYgW5H3Kii52/S++EalNsKG0QjN1T3GR/n6J81RFb1fz
-----END CERTIFICATE-----
