Certificate:
    Data:
        Version: 3 (0x2)
        Serial Number: 11632 (0x2d70)
    Signature Algorithm: sha256WithRSAEncryption
        Issuer: C=US, ST=OH, L=Columbus, O=VikingVPN, OU=MyOrganizationalUnit, CN=VikingVPN CA/name=EasyRSA/emailAddress=me@myhost.mydomain
        Validity
            Not Before: Aug 26 04:50:36 2017 GMT
            Not After : Aug 24 04:50:36 2027 GMT
        Subject: CN=Client276Certf56c41
        Subject Public Key Info:
            Public Key Algorithm: rsaEncryption
                Public-Key: (4096 bit)
                Modulus:
                    00:c1:10:6a:5e:77:b1:5d:ff:13:d8:b1:5f:bc:db:
                    1a:6d:36:6d:dc:1e:a2:3c:fd:4b:10:ff:ec:f8:7f:
                    e2:0a:6f:55:63:19:27:4a:58:84:57:b9:89:91:c5:
                    d5:19:1c:c4:43:4e:af:df:84:91:9e:15:86:7c:c7:
                    60:46:cf:b3:1f:23:23:ef:0d:d6:f5:5e:48:d5:0e:
                    43:70:f6:f5:13:ac:c3:83:3a:89:66:2b:10:1b:db:
                    8f:c9:01:f4:2f:72:a4:8c:35:06:50:02:6d:30:d5:
                    22:5b:3a:c6:ff:e7:27:40:e9:70:88:26:ae:78:40:
                    a0:f6:15:d5:98:65:df:ba:bc:1c:4b:1e:b7:f1:c5:
                    b5:c0:5b:b8:57:62:94:e0:e2:91:88:6b:a3:33:02:
                    3b:b5:ad:a1:71:1a:2f:36:2e:33:82:11:39:72:ed:
                    2e:c4:87:22:0b:3e:3c:30:51:f5:2b:74:84:b7:a4:
                    94:99:e0:ec:57:44:6a:25:7f:63:38:0b:75:65:d5:
                    c6:86:1c:db:de:b8:15:51:78:be:6f:c6:78:ee:4c:
                    60:a3:07:21:3f:97:db:94:0b:7d:8b:1c:26:c7:c9:
                    ec:17:59:71:39:4d:60:dd:07:b0:57:2d:1a:d0:99:
                    6f:f7:bc:3b:53:3d:b2:e1:5f:7b:12:bb:a2:aa:ba:
                    a7:8e:82:97:69:f1:46:75:7d:b2:14:42:f0:d4:19:
                    d0:5a:61:db:0b:b2:73:83:74:07:7d:d2:f7:20:99:
                    5a:39:76:b9:1b:67:30:29:e4:8e:44:5e:c8:bd:3c:
                    54:f2:8b:65:59:af:db:0d:44:75:5e:19:b5:67:75:
                    08:63:d5:c1:66:94:80:7e:45:91:2f:52:02:91:94:
                    ff:4b:a1:7f:bc:a6:e2:b6:f3:15:68:a3:67:6c:b9:
                    00:f5:e0:46:b6:2f:3f:d7:dd:5b:44:01:e2:07:ab:
                    54:c1:fc:5b:3c:74:b3:e1:b3:b8:c6:2f:fc:81:f6:
                    6b:c9:52:c3:7a:98:bf:17:9a:be:85:fa:84:e4:d9:
                    bd:fc:6b:7b:26:91:36:34:88:20:57:8b:15:63:40:
                    bf:48:8f:bb:d4:a9:a0:7d:1c:40:ee:57:47:ed:79:
                    9b:32:55:75:ac:e1:aa:3c:09:7c:23:02:5f:ad:61:
                    39:18:15:a9:79:47:cb:42:9b:ef:b0:6a:9e:16:24:
                    df:25:b4:da:61:e7:df:a8:e5:a8:6b:1b:f9:82:c8:
                    8e:8f:01:4a:42:de:72:46:5c:eb:d4:ca:1b:bb:f6:
                    c9:b9:e8:1a:b7:fd:0f:c4:b3:ae:08:83:05:6d:5f:
                    7d:d3:4c:c6:44:ce:50:4d:3a:6e:40:76:80:f7:6f:
                    4b:b9:bd
                Exponent: 65537 (0x10001)
        X509v3 extensions:
            X509v3 Basic Constraints: 
                CA:FALSE
            Netscape Comment: 
                Easy-RSA Generated Certificate
            X509v3 Subject Key Identifier: 
                32:EF:80:44:BE:A9:92:A4:BA:A9:AC:80:80:F7:E5:06:B5:1A:9B:D1
            X509v3 Authority Key Identifier: 
                keyid:12:CD:60:04:D2:A0:80:9E:70:ED:C6:99:B8:7B:2C:C6:52:FD:19:A1
                DirName:/C=US/ST=OH/L=Columbus/O=VikingVPN/OU=MyOrganizationalUnit/CN=VikingVPN CA/name=EasyRSA/emailAddress=me@myhost.mydomain
                serial:CF:35:85:EE:80:BF:2A:3E

            X509v3 Extended Key Usage: 
                TLS Web Client Authentication
            X509v3 Key Usage: 
                Digital Signature
    Signature Algorithm: sha256WithRSAEncryption
         77:c2:5c:62:c7:ba:93:e6:f1:5f:fd:14:e2:59:e4:d6:37:83:
         47:ae:63:b9:f3:1b:71:6b:24:9a:49:1d:6e:06:6c:fa:f0:3a:
         1c:cd:c1:30:af:27:2a:44:c6:4f:f9:07:86:bb:90:e4:eb:08:
         78:2e:76:e7:55:57:e5:3a:88:4e:af:1c:10:0b:26:b4:e5:3e:
         4f:5d:fb:3b:b9:07:e9:a8:3e:93:2c:f0:fc:b6:5d:50:71:5e:
         d2:6d:81:d7:ef:a4:e5:fd:ca:fe:63:46:16:ce:13:3d:3f:3c:
         5a:fa:26:42:6a:87:2d:bb:d1:ae:62:a2:53:15:d9:5c:e6:c9:
         b1:b8:b4:77:99:1f:ce:19:b6:a5:63:f5:98:2a:09:46:3a:75:
         b5:c0:5a:ea:da:07:53:eb:86:7c:a7:08:5e:73:dc:f4:7b:16:
         76:50:04:c8:10:b6:51:a3:a2:7a:cf:80:38:12:a2:2c:0e:af:
         b6:e0:84:81:47:af:73:01:3b:39:23:ff:cf:18:15:67:fe:df:
         51:76:80:87:66:7e:2f:c5:fe:47:98:d3:86:6d:59:cc:18:75:
         a8:2d:ba:1f:aa:cd:50:ea:32:98:4a:fe:a4:fa:25:bd:5d:0c:
         52:2d:90:18:2c:8e:55:f5:bb:13:25:05:aa:e1:63:f9:29:e3:
         53:64:4b:4e:db:c5:bc:99:e8:6b:9e:34:87:4f:c3:06:9d:fc:
         d7:5e:1d:44:f8:f9:5b:c3:4f:2c:a8:3d:91:49:5a:32:6c:78:
         af:d6:2e:c9:9d:77:c8:3c:c4:dc:e3:c5:df:1e:18:e1:f0:46:
         1f:12:ec:a5:10:6a:fd:a1:55:f1:78:b8:c3:79:36:8a:61:00:
         dd:4b:b4:e8:04:f3:e1:be:42:e3:9f:3b:24:1b:ec:ac:f6:01:
         ce:e8:17:ab:33:b7:19:6f:fc:0f:c5:f2:57:bd:28:07:07:58:
         63:0e:a9:1d:ff:9b:9d:bb:07:63:e5:5e:aa:e7:7e:67:51:38:
         ec:92:f1:fa:69:b0:27:0b:f1:d0:28:25:fb:da:4b:e9:69:59:
         35:fc:31:06:4f:3b:9d:fd:e6:54:1b:4a:05:df:ce:f8:cd:ee:
         fa:dc:04:8e:0d:33:8d:9b:94:d0:c4:78:83:ac:36:ec:ce:9e:
         aa:77:c7:59:b2:3d:d3:4d:8f:af:c9:bf:7f:a4:91:10:db:b7:
         2f:42:9c:83:95:ef:1f:9b:81:31:6e:fc:2d:71:bb:50:db:42:
         ce:97:b5:fe:f2:41:bd:da:d0:88:12:a9:54:79:d3:a5:1c:75:
         47:15:79:20:aa:2d:58:b0:7a:07:bf:e5:04:c1:66:ff:cd:12:
         58:d3:4a:aa:47:35:80:fa
-----BEGIN CERTIFICATE-----
MIIGrDCCBJSgAwIBAgICLXAwDQYJKoZIhvcNAQELBQAwgawxCzAJBgNVBAYTAlVT
MQswCQYDVQQIEwJPSDERMA8GA1UEBxMIQ29sdW1idXMxEjAQBgNVBAoTCVZpa2lu
Z1ZQTjEdMBsGA1UECxMUTXlPcmdhbml6YXRpb25hbFVuaXQxFTATBgNVBAMTDFZp
a2luZ1ZQTiBDQTEQMA4GA1UEKRMHRWFzeVJTQTEhMB8GCSqGSIb3DQEJARYSbWVA
bXlob3N0Lm15ZG9tYWluMB4XDTE3MDgyNjA0NTAzNloXDTI3MDgyNDA0NTAzNlow
HjEcMBoGA1UEAxMTQ2xpZW50Mjc2Q2VydGY1NmM0MTCCAiIwDQYJKoZIhvcNAQEB
BQADggIPADCCAgoCggIBAMEQal53sV3/E9ixX7zbGm02bdweojz9SxD/7Ph/4gpv
VWMZJ0pYhFe5iZHF1RkcxENOr9+EkZ4VhnzHYEbPsx8jI+8N1vVeSNUOQ3D29ROs
w4M6iWYrEBvbj8kB9C9ypIw1BlACbTDVIls6xv/nJ0DpcIgmrnhAoPYV1Zhl37q8
HEset/HFtcBbuFdilODikYhrozMCO7WtoXEaLzYuM4IROXLtLsSHIgs+PDBR9St0
hLeklJng7FdEaiV/YzgLdWXVxoYc2964FVF4vm/GeO5MYKMHIT+X25QLfYscJsfJ
7BdZcTlNYN0HsFctGtCZb/e8O1M9suFfexK7oqq6p46Cl2nxRnV9shRC8NQZ0Fph
2wuyc4N0B33S9yCZWjl2uRtnMCnkjkReyL08VPKLZVmv2w1EdV4ZtWd1CGPVwWaU
gH5FkS9SApGU/0uhf7ym4rbzFWijZ2y5APXgRrYvP9fdW0QB4gerVMH8Wzx0s+Gz
uMYv/IH2a8lSw3qYvxeavoX6hOTZvfxreyaRNjSIIFeLFWNAv0iPu9SpoH0cQO5X
R+15mzJVdazhqjwJfCMCX61hORgVqXlHy0Kb77BqnhYk3yW02mHn36jlqGsb+YLI
jo8BSkLeckZc69TKG7v2ybnoGrf9D8SzrgiDBW1ffdNMxkTOUE06bkB2gPdvS7m9
AgMBAAGjggFjMIIBXzAJBgNVHRMEAjAAMC0GCWCGSAGG+EIBDQQgFh5FYXN5LVJT
QSBHZW5lcmF0ZWQgQ2VydGlmaWNhdGUwHQYDVR0OBBYEFDLvgES+qZKkuqmsgID3
5Qa1GpvRMIHhBgNVHSMEgdkwgdaAFBLNYATSoICecO3Gmbh7LMZS/RmhoYGypIGv
MIGsMQswCQYDVQQGEwJVUzELMAkGA1UECBMCT0gxETAPBgNVBAcTCENvbHVtYnVz
MRIwEAYDVQQKEwlWaWtpbmdWUE4xHTAbBgNVBAsTFE15T3JnYW5pemF0aW9uYWxV
bml0MRUwEwYDVQQDEwxWaWtpbmdWUE4gQ0ExEDAOBgNVBCkTB0Vhc3lSU0ExITAf
BgkqhkiG9w0BCQEWEm1lQG15aG9zdC5teWRvbWFpboIJAM81he6Avyo+MBMGA1Ud
JQQMMAoGCCsGAQUFBwMCMAsGA1UdDwQEAwIHgDANBgkqhkiG9w0BAQsFAAOCAgEA
d8JcYse6k+bxX/0U4lnk1jeDR65jufMbcWskmkkdbgZs+vA6HM3BMK8nKkTGT/kH
hruQ5OsIeC5251VX5TqITq8cEAsmtOU+T137O7kH6ag+kyzw/LZdUHFe0m2B1++k
5f3K/mNGFs4TPT88WvomQmqHLbvRrmKiUxXZXObJsbi0d5kfzhm2pWP1mCoJRjp1
tcBa6toHU+uGfKcIXnPc9HsWdlAEyBC2UaOies+AOBKiLA6vtuCEgUevcwE7OSP/
zxgVZ/7fUXaAh2Z+L8X+R5jThm1ZzBh1qC26H6rNUOoymEr+pPolvV0MUi2QGCyO
VfW7EyUFquFj+SnjU2RLTtvFvJnoa540h0/DBp38114dRPj5W8NPLKg9kUlaMmx4
r9YuyZ13yDzE3OPF3x4Y4fBGHxLspRBq/aFV8Xi4w3k2imEA3Uu06ATz4b5C4587
JBvsrPYBzugXqzO3GW/8D8XyV70oBwdYYw6pHf+bnbsHY+Vequd+Z1E47JLx+mmw
Jwvx0Cgl+9pL6WlZNfwxBk87nf3mVBtKBd/O+M3u+twEjg0zjZuU0MR4g6w27M6e
qnfHWbI9002Pr8m/f6SRENu3L0Kcg5XvH5uBMW78LXG7UNtCzpe1/vJBvdrQiBKp
VHnTpRx1RxV5IKotWLB6B7/lBMFm/80SWNNKqkc1gPo=
-----END CERTIFICATE-----
