Certificate:
    Data:
        Version: 3 (0x2)
        Serial Number: 11634 (0x2d72)
    Signature Algorithm: sha256WithRSAEncryption
        Issuer: C=US, ST=OH, L=Columbus, O=VikingVPN, OU=MyOrganizationalUnit, CN=VikingVPN CA/name=EasyRSA/emailAddress=me@myhost.mydomain
        Validity
            Not Before: Aug 26 04:51:02 2017 GMT
            Not After : Aug 24 04:51:02 2027 GMT
        Subject: CN=Client276Certfdc74e
        Subject Public Key Info:
            Public Key Algorithm: rsaEncryption
                Public-Key: (4096 bit)
                Modulus:
                    00:af:db:d5:91:51:69:88:39:fa:8d:38:1c:89:d5:
                    57:e2:4b:1f:64:28:62:f4:87:1b:dc:cf:6f:86:fb:
                    91:cb:b2:ed:80:9d:36:74:c3:16:03:9b:7e:5c:3d:
                    6b:d2:3a:1d:eb:ad:20:fb:d5:d4:d0:d9:cb:47:57:
                    b5:1b:41:fb:ad:b6:69:74:75:65:1f:a1:46:79:ab:
                    c7:7f:05:50:16:49:8d:ef:a4:26:1d:9d:4f:70:31:
                    27:08:9e:43:45:ff:19:a0:5d:8d:55:13:af:22:a8:
                    8c:80:28:40:8b:06:c0:0e:da:f9:4f:00:68:4a:96:
                    bb:f2:71:7c:4c:0a:4b:27:15:45:84:08:67:6c:8b:
                    83:32:97:b5:cb:55:01:aa:78:5b:9e:31:7d:39:0f:
                    6e:10:ea:20:76:fb:1b:05:7b:fb:65:77:4a:2d:c0:
                    fb:7e:28:71:74:85:df:5a:e0:f2:c6:23:2a:f1:c0:
                    27:46:6c:79:54:c3:82:02:53:73:ca:e7:84:79:df:
                    fd:4d:89:08:29:b4:27:8e:cd:96:dd:e9:02:2d:83:
                    78:e7:c5:ce:f2:a3:74:b2:c4:e4:c0:7f:56:0b:4a:
                    81:1a:67:7c:1a:27:ef:82:af:0c:d6:07:bb:d4:8c:
                    a4:fc:9e:ab:0e:87:23:5b:05:8e:45:52:e8:e2:3b:
                    b0:81:e7:e9:20:5b:9f:d5:60:eb:5a:14:ec:75:09:
                    e1:b1:c6:3b:91:f4:4d:15:5e:2c:2a:61:4d:57:26:
                    a9:f7:87:61:3e:ae:14:42:98:52:8d:aa:a0:f2:16:
                    e8:09:ad:fb:f4:9f:db:86:90:95:4c:32:02:64:52:
                    18:6e:6c:5c:86:c2:88:db:66:6d:c7:22:98:44:62:
                    f4:2a:37:be:59:9c:77:fc:81:dc:ee:7d:13:ae:17:
                    25:af:8c:78:42:39:3b:8f:6b:37:b8:ca:bb:d5:90:
                    21:2b:09:15:00:52:c6:de:e9:6a:2e:22:a3:4c:57:
                    22:5a:ad:eb:23:f7:38:0c:83:63:41:00:09:91:67:
                    c8:88:5b:3e:3a:67:72:af:5f:b8:86:41:4d:45:08:
                    a8:27:ec:91:75:d2:52:25:da:a0:6c:ea:6b:3b:40:
                    12:20:06:2d:de:37:2d:c9:0b:ef:b1:69:c8:ec:b1:
                    78:08:61:e0:42:7f:9a:56:a3:80:e6:59:57:82:5a:
                    de:c7:80:94:bc:2d:f2:b8:cb:4c:5e:06:95:2c:be:
                    b5:9d:87:db:7a:fe:91:b1:4e:66:f6:6f:c1:f1:9c:
                    7d:f1:b4:db:b1:5d:f1:a9:7a:96:d1:ee:c1:af:dc:
                    8a:e5:80:f5:bf:e7:05:e2:52:1f:e5:7c:8a:cb:2d:
                    aa:12:89
                Exponent: 65537 (0x10001)
        X509v3 extensions:
            X509v3 Basic Constraints: 
                CA:FALSE
            Netscape Comment: 
                Easy-RSA Generated Certificate
            X509v3 Subject Key Identifier: 
                1E:6B:12:B9:47:61:43:3F:63:4B:A3:E8:5B:48:D4:60:9C:BE:A9:91
            X509v3 Authority Key Identifier: 
                keyid:12:CD:60:04:D2:A0:80:9E:70:ED:C6:99:B8:7B:2C:C6:52:FD:19:A1
                DirName:/C=US/ST=OH/L=Columbus/O=VikingVPN/OU=MyOrganizationalUnit/CN=VikingVPN CA/name=EasyRSA/emailAddress=me@myhost.mydomain
                serial:CF:35:85:EE:80:BF:2A:3E

            X509v3 Extended Key Usage: 
                TLS Web Client Authentication
            X509v3 Key Usage: 
                Digital Signature
    Signature Algorithm: sha256WithRSAEncryption
         1f:42:c0:38:16:4c:c9:1a:03:49:c6:6d:bb:7a:96:d1:2a:10:
         5a:6b:82:08:59:7c:5b:1f:73:85:30:fe:1a:d4:31:9a:30:df:
         d9:02:d0:9a:ab:51:12:ef:87:c2:d5:a6:97:b2:94:30:9f:72:
         3c:21:3d:46:31:6d:a0:fe:b7:dc:36:39:d0:2a:e3:5b:67:4b:
         0b:4c:8f:31:66:b3:b2:22:19:b9:db:57:79:51:6a:d1:30:7f:
         d2:32:ed:71:6b:94:2f:19:a1:43:19:0e:1b:d0:6f:7f:6e:60:
         f4:ff:53:dd:91:2f:7d:2d:7c:cf:47:f1:46:6a:e9:b4:b3:53:
         97:a9:13:59:c0:ce:de:0a:b9:83:a5:ee:04:2d:4c:41:1d:55:
         ff:17:d7:41:da:89:aa:a7:dc:2d:86:59:24:a8:ac:f4:34:f4:
         69:7e:ef:12:7d:98:01:b9:ce:82:1a:ae:fa:ed:8e:3c:06:8a:
         40:0c:f0:a4:28:e4:2b:2d:18:36:4c:7a:3d:5c:8c:29:f5:40:
         30:53:dc:83:83:be:27:5d:06:1e:d1:c9:f2:e9:8f:05:7e:80:
         e9:e8:d4:a7:20:2c:1f:ba:1d:cc:b0:67:93:4c:de:3d:9e:1a:
         00:05:75:d3:90:08:c1:ec:70:d5:3c:88:aa:cc:0e:57:12:2f:
         98:d6:e5:62:fa:d1:a0:2e:b9:44:ce:77:6f:11:7a:d9:6e:01:
         a9:09:e2:d4:f7:c9:22:45:79:cd:80:94:01:77:fd:50:28:30:
         42:6a:51:39:f2:76:0d:a4:ae:05:18:7d:21:d5:4f:81:18:54:
         46:94:22:f2:36:83:ff:46:00:cc:5b:31:d6:cf:a3:9e:9c:d9:
         de:6c:17:0a:fe:24:a8:9d:02:80:cf:c2:50:e6:a7:17:e8:8a:
         de:65:0c:c7:6e:1c:b8:84:5b:6d:1a:44:50:28:4f:c0:74:07:
         0c:99:71:90:82:e6:6f:08:52:65:fe:fa:2d:ba:9b:c9:84:ff:
         1b:c3:cc:a5:78:15:0a:54:3a:4f:45:b6:06:81:8a:cd:5a:e9:
         87:69:e2:f9:a8:f9:93:68:5c:ba:05:20:c3:98:a8:2a:b0:6b:
         56:a7:02:60:42:a1:b2:f6:a7:5d:bb:33:27:61:c1:c1:1e:f6:
         15:22:24:05:32:45:78:f9:bd:fe:bd:47:d5:fc:43:da:03:57:
         50:60:40:e5:24:a3:45:98:d7:46:57:4f:19:cb:9c:c3:39:4c:
         9b:c1:47:0b:00:4d:94:b5:e3:ce:6d:2f:0f:2b:c0:1b:20:cc:
         58:fe:11:60:09:b6:43:58:89:a8:48:8a:32:f2:8e:31:bd:d9:
         86:85:68:7f:1d:81:9a:8f
-----BEGIN CERTIFICATE-----
MIIGrDCCBJSgAwIBAgICLXIwDQYJKoZIhvcNAQELBQAwgawxCzAJBgNVBAYTAlVT
MQswCQYDVQQIEwJPSDERMA8GA1UEBxMIQ29sdW1idXMxEjAQBgNVBAoTCVZpa2lu
Z1ZQTjEdMBsGA1UECxMUTXlPcmdhbml6YXRpb25hbFVuaXQxFTATBgNVBAMTDFZp
a2luZ1ZQTiBDQTEQMA4GA1UEKRMHRWFzeVJTQTEhMB8GCSqGSIb3DQEJARYSbWVA
bXlob3N0Lm15ZG9tYWluMB4XDTE3MDgyNjA0NTEwMloXDTI3MDgyNDA0NTEwMlow
HjEcMBoGA1UEAxMTQ2xpZW50Mjc2Q2VydGZkYzc0ZTCCAiIwDQYJKoZIhvcNAQEB
BQADggIPADCCAgoCggIBAK/b1ZFRaYg5+o04HInVV+JLH2QoYvSHG9zPb4b7kcuy
7YCdNnTDFgObflw9a9I6HeutIPvV1NDZy0dXtRtB+622aXR1ZR+hRnmrx38FUBZJ
je+kJh2dT3AxJwieQ0X/GaBdjVUTryKojIAoQIsGwA7a+U8AaEqWu/JxfEwKSycV
RYQIZ2yLgzKXtctVAap4W54xfTkPbhDqIHb7GwV7+2V3Si3A+34ocXSF31rg8sYj
KvHAJ0ZseVTDggJTc8rnhHnf/U2JCCm0J47Nlt3pAi2DeOfFzvKjdLLE5MB/VgtK
gRpnfBon74KvDNYHu9SMpPyeqw6HI1sFjkVS6OI7sIHn6SBbn9Vg61oU7HUJ4bHG
O5H0TRVeLCphTVcmqfeHYT6uFEKYUo2qoPIW6Amt+/Sf24aQlUwyAmRSGG5sXIbC
iNtmbccimERi9Co3vlmcd/yB3O59E64XJa+MeEI5O49rN7jKu9WQISsJFQBSxt7p
ai4io0xXIlqt6yP3OAyDY0EACZFnyIhbPjpncq9fuIZBTUUIqCfskXXSUiXaoGzq
aztAEiAGLd43LckL77FpyOyxeAhh4EJ/mlajgOZZV4Ja3seAlLwt8rjLTF4GlSy+
tZ2H23r+kbFOZvZvwfGcffG027Fd8al6ltHuwa/ciuWA9b/nBeJSH+V8isstqhKJ
AgMBAAGjggFjMIIBXzAJBgNVHRMEAjAAMC0GCWCGSAGG+EIBDQQgFh5FYXN5LVJT
QSBHZW5lcmF0ZWQgQ2VydGlmaWNhdGUwHQYDVR0OBBYEFB5rErlHYUM/Y0uj6FtI
1GCcvqmRMIHhBgNVHSMEgdkwgdaAFBLNYATSoICecO3Gmbh7LMZS/RmhoYGypIGv
MIGsMQswCQYDVQQGEwJVUzELMAkGA1UECBMCT0gxETAPBgNVBAcTCENvbHVtYnVz
MRIwEAYDVQQKEwlWaWtpbmdWUE4xHTAbBgNVBAsTFE15T3JnYW5pemF0aW9uYWxV
bml0MRUwEwYDVQQDEwxWaWtpbmdWUE4gQ0ExEDAOBgNVBCkTB0Vhc3lSU0ExITAf
BgkqhkiG9w0BCQEWEm1lQG15aG9zdC5teWRvbWFpboIJAM81he6Avyo+MBMGA1Ud
JQQMMAoGCCsGAQUFBwMCMAsGA1UdDwQEAwIHgDANBgkqhkiG9w0BAQsFAAOCAgEA
H0LAOBZMyRoDScZtu3qW0SoQWmuCCFl8Wx9zhTD+GtQxmjDf2QLQmqtREu+HwtWm
l7KUMJ9yPCE9RjFtoP633DY50CrjW2dLC0yPMWazsiIZudtXeVFq0TB/0jLtcWuU
LxmhQxkOG9Bvf25g9P9T3ZEvfS18z0fxRmrptLNTl6kTWcDO3gq5g6XuBC1MQR1V
/xfXQdqJqqfcLYZZJKis9DT0aX7vEn2YAbnOghqu+u2OPAaKQAzwpCjkKy0YNkx6
PVyMKfVAMFPcg4O+J10GHtHJ8umPBX6A6ejUpyAsH7odzLBnk0zePZ4aAAV105AI
wexw1TyIqswOVxIvmNblYvrRoC65RM53bxF62W4BqQni1PfJIkV5zYCUAXf9UCgw
QmpROfJ2DaSuBRh9IdVPgRhURpQi8jaD/0YAzFsx1s+jnpzZ3mwXCv4kqJ0CgM/C
UOanF+iK3mUMx24cuIRbbRpEUChPwHQHDJlxkILmbwhSZf76LbqbyYT/G8PMpXgV
ClQ6T0W2BoGKzVrph2ni+aj5k2hcugUgw5ioKrBrVqcCYEKhsvanXbszJ2HBwR72
FSIkBTJFePm9/r1H1fxD2gNXUGBA5SSjRZjXRldPGcucwzlMm8FHCwBNlLXjzm0v
DyvAGyDMWP4RYAm2Q1iJqEiKMvKOMb3ZhoVofx2Bmo8=
-----END CERTIFICATE-----
