Certificate:
    Data:
        Version: 3 (0x2)
        Serial Number: 11648 (0x2d80)
    Signature Algorithm: sha256WithRSAEncryption
        Issuer: C=US, ST=OH, L=Columbus, O=VikingVPN, OU=MyOrganizationalUnit, CN=VikingVPN CA/name=EasyRSA/emailAddress=me@myhost.mydomain
        Validity
            Not Before: Aug 26 11:42:36 2017 GMT
            Not After : Aug 24 11:42:36 2027 GMT
        Subject: CN=Client2940Cert9dc9d6
        Subject Public Key Info:
            Public Key Algorithm: rsaEncryption
                Public-Key: (4096 bit)
                Modulus:
                    00:bc:e3:1e:7c:ac:71:e4:37:e1:83:d3:16:ca:e1:
                    0f:7b:ba:68:22:0b:42:b2:c4:bc:0f:ed:1a:8e:7d:
                    31:84:e0:5b:38:11:86:49:df:be:fa:81:5a:3b:09:
                    67:50:0e:c2:12:cb:1c:6a:4a:db:6f:a4:28:7d:e7:
                    e6:1c:2e:c7:35:e6:87:83:7d:09:09:12:72:02:9c:
                    c5:16:25:80:be:d8:5d:31:78:b6:d5:98:8c:fe:3c:
                    a7:f2:34:c5:ad:d3:31:58:ee:99:cb:ef:c3:c4:55:
                    3c:c5:ae:ad:9b:18:dd:60:99:5d:5e:d9:54:0e:b1:
                    dd:48:86:32:e5:80:0b:09:81:32:00:bd:c6:04:69:
                    c5:0b:35:01:90:5a:d1:a5:7a:c8:03:f1:7d:4e:d2:
                    f4:d0:28:74:f7:ce:a7:f0:af:50:0f:e1:33:da:40:
                    a9:2d:a1:02:cd:1e:d1:67:90:5b:ec:05:93:d5:b3:
                    e5:d5:19:c3:64:54:06:81:dc:f2:a3:f4:3e:8f:d2:
                    a2:9f:7b:d9:fd:0f:3e:6e:90:c0:51:00:12:92:36:
                    67:b8:1b:61:df:e8:f6:e8:0c:fc:a2:30:0f:2d:ae:
                    48:6e:64:4c:5b:70:b1:b8:b4:29:93:f4:dd:bf:1f:
                    23:e0:37:26:75:3c:a1:9b:59:d1:89:20:82:8d:af:
                    98:d7:2d:b7:15:a4:1c:21:d8:35:bd:5c:1f:7f:7a:
                    54:ff:60:f1:90:8b:01:47:39:9e:65:89:ee:fb:7e:
                    8e:0f:57:eb:e7:eb:13:cc:1e:16:ee:50:d4:f2:ec:
                    be:99:3e:7a:9f:d2:0c:5c:8a:cd:38:81:b0:57:d8:
                    99:d9:af:f5:00:3d:47:56:7b:0c:b6:de:f8:99:96:
                    af:af:7a:f3:e0:b0:2c:e6:68:01:71:ed:04:fb:10:
                    1c:b1:22:f7:6d:00:47:a4:c9:5d:31:ba:a0:1e:db:
                    06:67:79:a4:f4:bf:1a:53:e6:71:1f:1d:88:ec:1d:
                    9a:c9:09:3e:8d:5d:30:cd:92:7b:3e:fa:3c:cd:6c:
                    5c:06:69:49:bc:a3:af:02:f6:74:06:e6:f6:c0:5f:
                    59:9b:1c:ea:9c:81:2c:69:54:dc:39:66:32:4b:7b:
                    81:f0:b8:7a:87:a4:ce:56:31:a0:63:04:42:ce:15:
                    2d:57:39:f4:5c:5a:41:d4:13:43:ad:f9:37:b9:7e:
                    00:fb:8f:ba:cc:e0:af:62:4b:3f:68:dc:20:43:58:
                    53:f6:56:cf:9a:9a:72:ca:e9:a7:fb:34:8d:17:c2:
                    71:71:10:89:f4:47:b2:09:8b:04:a4:87:02:48:91:
                    e1:9a:fa:12:77:2a:7a:16:8f:1e:09:29:24:43:69:
                    47:a8:d5
                Exponent: 65537 (0x10001)
        X509v3 extensions:
            X509v3 Basic Constraints: 
                CA:FALSE
            Netscape Comment: 
                Easy-RSA Generated Certificate
            X509v3 Subject Key Identifier: 
                65:BE:DD:97:D4:1A:58:C0:67:02:A8:14:44:EA:32:EE:AF:F8:2E:4D
            X509v3 Authority Key Identifier: 
                keyid:12:CD:60:04:D2:A0:80:9E:70:ED:C6:99:B8:7B:2C:C6:52:FD:19:A1
                DirName:/C=US/ST=OH/L=Columbus/O=VikingVPN/OU=MyOrganizationalUnit/CN=VikingVPN CA/name=EasyRSA/emailAddress=me@myhost.mydomain
                serial:CF:35:85:EE:80:BF:2A:3E

            X509v3 Extended Key Usage: 
                TLS Web Client Authentication
            X509v3 Key Usage: 
                Digital Signature
    Signature Algorithm: sha256WithRSAEncryption
         57:24:2e:ad:f0:50:b0:72:22:60:75:df:22:c8:04:1d:3c:bc:
         ee:ba:16:53:61:36:ea:cc:8e:a5:2e:dc:d4:b2:20:2d:3b:7c:
         96:50:d1:e6:8a:7f:a8:95:74:50:fd:cf:ca:19:59:22:3d:c4:
         5f:89:a3:9c:06:fc:fa:dc:a3:4f:5e:d3:da:54:a1:69:d3:26:
         47:1d:30:cf:38:35:86:b4:bc:98:d1:ff:0a:5d:12:8c:d2:09:
         73:33:58:2d:5d:2e:15:5b:3b:7b:f8:1d:fc:aa:bc:02:b3:cd:
         03:f2:4f:37:03:56:b1:d7:7c:7a:4e:2b:0a:c6:33:76:0e:fc:
         21:ac:16:8c:e8:ed:34:72:75:89:cd:5e:57:cf:27:ae:da:ee:
         de:dc:9c:29:f2:e3:23:b3:b4:67:ac:3c:6e:3c:c0:99:54:6e:
         5a:9c:a4:ce:2d:21:19:61:be:5d:2a:90:33:8a:e7:64:24:00:
         1a:43:49:76:fc:30:e4:d1:2b:cc:df:4a:50:49:d4:bc:44:fc:
         2a:db:b7:fc:b5:14:1a:cb:a5:fd:c4:b7:1c:05:2c:26:e5:8f:
         87:68:25:43:9c:37:a2:a3:58:c3:23:ba:2b:af:20:99:e3:77:
         11:09:77:7f:48:96:e0:8b:68:df:53:d6:c1:4a:ac:26:81:d6:
         e4:5c:7e:e5:4e:78:4b:25:e7:39:3f:04:57:7b:ad:08:02:26:
         fd:4e:26:2b:49:e4:f4:93:e9:e0:28:d5:a0:c7:5e:f9:dc:87:
         29:e0:22:aa:73:d1:09:0f:eb:a3:76:2a:c6:60:07:57:82:c9:
         a7:76:16:81:8a:77:00:14:50:65:f3:69:54:d8:d0:fb:ac:4e:
         32:1d:1a:df:1f:90:14:6b:79:8a:b2:e7:3a:b0:40:34:49:13:
         68:59:3b:67:22:dd:5c:cc:ad:9d:5b:d3:0b:2c:32:62:b3:ce:
         46:db:60:6d:64:b8:53:70:e7:05:9c:30:3e:f2:ce:90:9d:02:
         6d:06:71:7e:a1:5e:b2:f1:cd:c9:17:a9:4a:55:28:1c:82:a7:
         96:e3:84:15:8e:6f:b1:63:b0:43:32:3d:ea:20:fd:84:95:a3:
         a3:e0:65:6b:28:f2:c1:05:95:0f:5c:e8:a8:90:69:21:37:0c:
         4d:88:3c:e7:ea:f0:7e:64:13:09:0f:52:ee:6f:10:7a:3d:af:
         6d:29:a5:fa:79:e8:03:8e:82:c6:7e:d2:dd:a8:07:13:4e:9c:
         7d:65:40:34:16:fa:e3:61:26:e8:4a:2e:7f:35:d4:79:ec:70:
         6a:4c:f2:4d:17:00:79:cb:5e:a1:81:28:43:95:e9:27:d1:89:
         02:40:67:1a:95:1b:8f:68
-----BEGIN CERTIFICATE-----
MIIGrTCCBJWgAwIBAgICLYAwDQYJKoZIhvcNAQELBQAwgawxCzAJBgNVBAYTAlVT
MQswCQYDVQQIEwJPSDERMA8GA1UEBxMIQ29sdW1idXMxEjAQBgNVBAoTCVZpa2lu
Z1ZQTjEdMBsGA1UECxMUTXlPcmdhbml6YXRpb25hbFVuaXQxFTATBgNVBAMTDFZp
a2luZ1ZQTiBDQTEQMA4GA1UEKRMHRWFzeVJTQTEhMB8GCSqGSIb3DQEJARYSbWVA
bXlob3N0Lm15ZG9tYWluMB4XDTE3MDgyNjExNDIzNloXDTI3MDgyNDExNDIzNlow
HzEdMBsGA1UEAxMUQ2xpZW50Mjk0MENlcnQ5ZGM5ZDYwggIiMA0GCSqGSIb3DQEB
AQUAA4ICDwAwggIKAoICAQC84x58rHHkN+GD0xbK4Q97umgiC0KyxLwP7RqOfTGE
4Fs4EYZJ3776gVo7CWdQDsISyxxqSttvpCh95+YcLsc15oeDfQkJEnICnMUWJYC+
2F0xeLbVmIz+PKfyNMWt0zFY7pnL78PEVTzFrq2bGN1gmV1e2VQOsd1IhjLlgAsJ
gTIAvcYEacULNQGQWtGlesgD8X1O0vTQKHT3zqfwr1AP4TPaQKktoQLNHtFnkFvs
BZPVs+XVGcNkVAaB3PKj9D6P0qKfe9n9Dz5ukMBRABKSNme4G2Hf6PboDPyiMA8t
rkhuZExbcLG4tCmT9N2/HyPgNyZ1PKGbWdGJIIKNr5jXLbcVpBwh2DW9XB9/elT/
YPGQiwFHOZ5lie77fo4PV+vn6xPMHhbuUNTy7L6ZPnqf0gxcis04gbBX2JnZr/UA
PUdWewy23viZlq+vevPgsCzmaAFx7QT7EByxIvdtAEekyV0xuqAe2wZneaT0vxpT
5nEfHYjsHZrJCT6NXTDNkns++jzNbFwGaUm8o68C9nQG5vbAX1mbHOqcgSxpVNw5
ZjJLe4HwuHqHpM5WMaBjBELOFS1XOfRcWkHUE0Ot+Te5fgD7j7rM4K9iSz9o3CBD
WFP2Vs+amnLK6af7NI0XwnFxEIn0R7IJiwSkhwJIkeGa+hJ3KnoWjx4JKSRDaUeo
1QIDAQABo4IBYzCCAV8wCQYDVR0TBAIwADAtBglghkgBhvhCAQ0EIBYeRWFzeS1S
U0EgR2VuZXJhdGVkIENlcnRpZmljYXRlMB0GA1UdDgQWBBRlvt2X1BpYwGcCqBRE
6jLur/guTTCB4QYDVR0jBIHZMIHWgBQSzWAE0qCAnnDtxpm4eyzGUv0ZoaGBsqSB
rzCBrDELMAkGA1UEBhMCVVMxCzAJBgNVBAgTAk9IMREwDwYDVQQHEwhDb2x1bWJ1
czESMBAGA1UEChMJVmlraW5nVlBOMR0wGwYDVQQLExRNeU9yZ2FuaXphdGlvbmFs
VW5pdDEVMBMGA1UEAxMMVmlraW5nVlBOIENBMRAwDgYDVQQpEwdFYXN5UlNBMSEw
HwYJKoZIhvcNAQkBFhJtZUBteWhvc3QubXlkb21haW6CCQDPNYXugL8qPjATBgNV
HSUEDDAKBggrBgEFBQcDAjALBgNVHQ8EBAMCB4AwDQYJKoZIhvcNAQELBQADggIB
AFckLq3wULByImB13yLIBB08vO66FlNhNurMjqUu3NSyIC07fJZQ0eaKf6iVdFD9
z8oZWSI9xF+Jo5wG/Prco09e09pUoWnTJkcdMM84NYa0vJjR/wpdEozSCXMzWC1d
LhVbO3v4HfyqvAKzzQPyTzcDVrHXfHpOKwrGM3YO/CGsFozo7TRydYnNXlfPJ67a
7t7cnCny4yOztGesPG48wJlUblqcpM4tIRlhvl0qkDOK52QkABpDSXb8MOTRK8zf
SlBJ1LxE/Crbt/y1FBrLpf3EtxwFLCblj4doJUOcN6KjWMMjuiuvIJnjdxEJd39I
luCLaN9T1sFKrCaB1uRcfuVOeEsl5zk/BFd7rQgCJv1OJitJ5PST6eAo1aDHXvnc
hyngIqpz0QkP66N2KsZgB1eCyad2FoGKdwAUUGXzaVTY0PusTjIdGt8fkBRreYqy
5zqwQDRJE2hZO2ci3VzMrZ1b0wssMmKzzkbbYG1kuFNw5wWcMD7yzpCdAm0GcX6h
XrLxzckXqUpVKByCp5bjhBWOb7FjsEMyPeog/YSVo6PgZWso8sEFlQ9c6KiQaSE3
DE2IPOfq8H5kEwkPUu5vEHo9r20ppfp56AOOgsZ+0t2oBxNOnH1lQDQW+uNhJuhK
Ln811HnscGpM8k0XAHnLXqGBKEOV6SfRiQJAZxqVG49o
-----END CERTIFICATE-----
