Certificate:
    Data:
        Version: 3 (0x2)
        Serial Number: 11658 (0x2d8a)
    Signature Algorithm: sha256WithRSAEncryption
        Issuer: C=US, ST=OH, L=Columbus, O=VikingVPN, OU=MyOrganizationalUnit, CN=VikingVPN CA/name=EasyRSA/emailAddress=me@myhost.mydomain
        Validity
            Not Before: Aug 26 11:56:09 2017 GMT
            Not After : Aug 24 11:56:09 2027 GMT
        Subject: CN=Client2940Certba162d
        Subject Public Key Info:
            Public Key Algorithm: rsaEncryption
                Public-Key: (4096 bit)
                Modulus:
                    00:ac:14:0b:b0:9e:fd:bc:8b:84:37:fb:33:46:d7:
                    04:71:8f:d9:d0:f0:64:19:7a:e0:3b:0a:29:68:4f:
                    4c:b9:6f:c8:4b:4d:02:9a:d0:da:90:cd:90:27:6f:
                    16:df:f5:2e:5c:ae:65:4a:4e:76:6e:98:cb:b5:a7:
                    f6:e9:eb:ee:1c:aa:ae:c1:12:e8:ce:45:83:29:f2:
                    1d:48:a8:c9:91:da:56:57:5a:86:f8:99:8f:7f:dd:
                    c0:e3:73:1b:7c:16:75:c1:8e:83:ea:94:ae:27:4b:
                    5f:68:f0:d9:27:c7:7a:7f:b1:a1:1f:46:f8:80:8e:
                    56:bb:ef:82:64:7c:a4:71:04:9f:78:7d:56:75:5b:
                    67:92:3a:d9:1a:7a:79:b6:09:28:47:16:46:1a:0a:
                    5a:a8:96:f4:95:eb:c2:0b:b4:ca:7b:2c:71:78:f1:
                    6c:85:87:78:7e:95:3a:99:a7:c6:07:0a:0c:7a:24:
                    74:19:38:26:6e:a0:16:46:c2:40:d8:ae:d5:89:eb:
                    19:5b:fa:65:7c:41:fa:b6:45:47:23:2c:42:70:2d:
                    72:2e:d7:99:52:77:82:79:a9:87:b7:01:93:fe:22:
                    9a:a7:7b:15:83:97:7d:e2:4e:7a:78:9c:cd:23:40:
                    4b:e3:a8:1c:08:c8:a7:40:35:26:0a:e5:6e:7b:ea:
                    60:94:48:50:3e:07:28:21:df:d5:60:38:51:5a:75:
                    5a:f6:ff:75:09:c8:2d:0f:70:53:83:42:ed:a1:70:
                    50:4b:7b:5f:05:73:7e:bf:9a:0d:e7:2a:a2:19:e8:
                    42:e7:de:01:e0:db:42:02:8a:cf:03:d8:d7:b4:96:
                    19:a8:2e:2f:14:c1:04:28:71:84:f9:dc:b7:09:ff:
                    56:3f:ee:02:94:4c:d8:a4:95:aa:c5:61:56:9f:94:
                    8f:67:a5:0a:c4:b0:e2:3d:28:e3:59:ce:fb:29:ab:
                    28:31:8d:62:33:47:5a:e5:98:97:e0:41:e1:3d:ba:
                    14:bf:9b:be:63:ed:63:89:df:31:41:28:ae:df:3a:
                    cc:75:a9:84:47:ef:68:7a:16:42:c7:cf:57:2c:cb:
                    ea:f7:3c:80:57:bd:89:f7:53:a0:01:b4:f7:d4:59:
                    b8:6f:4b:6a:f4:ae:0c:88:76:69:88:f0:34:12:4f:
                    8d:23:79:cb:7c:f4:e0:98:7b:d5:6a:b0:1d:ac:31:
                    b3:bb:45:72:71:44:10:55:5d:fc:ab:bb:bf:f9:0f:
                    14:e9:a5:ee:08:aa:7a:a1:99:3d:e2:11:3c:d9:3e:
                    de:bd:75:87:db:23:d8:97:d1:68:60:bf:97:a1:88:
                    1f:f3:83:91:b1:3a:cb:ee:c3:af:42:8c:4b:b1:c5:
                    ca:7b:ff
                Exponent: 65537 (0x10001)
        X509v3 extensions:
            X509v3 Basic Constraints: 
                CA:FALSE
            Netscape Comment: 
                Easy-RSA Generated Certificate
            X509v3 Subject Key Identifier: 
                74:54:9E:E5:9E:07:FB:5C:0B:5F:D6:B0:2D:48:1D:D7:7C:48:9E:A5
            X509v3 Authority Key Identifier: 
                keyid:12:CD:60:04:D2:A0:80:9E:70:ED:C6:99:B8:7B:2C:C6:52:FD:19:A1
                DirName:/C=US/ST=OH/L=Columbus/O=VikingVPN/OU=MyOrganizationalUnit/CN=VikingVPN CA/name=EasyRSA/emailAddress=me@myhost.mydomain
                serial:CF:35:85:EE:80:BF:2A:3E

            X509v3 Extended Key Usage: 
                TLS Web Client Authentication
            X509v3 Key Usage: 
                Digital Signature
    Signature Algorithm: sha256WithRSAEncryption
         45:c6:18:e9:ec:49:3d:bd:f0:8a:d5:d8:4f:52:18:cd:84:31:
         6e:37:0e:75:f9:91:30:6a:8f:d3:33:b0:dd:80:47:f6:52:c2:
         21:3c:39:5f:43:01:4d:86:21:68:ee:14:38:a9:b6:07:58:fd:
         d4:35:a7:d3:15:3c:04:7d:79:3f:32:2f:ee:72:98:87:10:69:
         6a:20:5f:11:92:62:15:0b:42:91:ff:8d:5c:81:b9:a9:f7:08:
         e5:6a:4a:41:a1:94:cf:d9:8e:df:08:7d:bf:76:2d:49:39:f3:
         04:55:49:2e:6e:31:7c:5b:be:46:37:db:15:bf:dc:8f:92:47:
         f8:fd:ee:48:6c:8f:fc:6b:08:46:c5:08:5f:c7:77:42:cf:34:
         c6:10:68:82:f5:a4:3a:f6:22:f5:86:b8:74:ec:e3:2e:3e:4d:
         f1:00:a8:30:f9:73:3b:ac:56:a6:db:50:63:91:0c:e5:f5:8a:
         85:50:c0:b0:46:78:b8:48:fe:0b:9c:42:92:95:db:ce:3f:a1:
         78:9b:7d:ad:f6:4c:d6:5e:f3:54:15:b6:3e:b7:b4:6b:72:a1:
         38:d3:56:94:30:ff:eb:7c:6a:2b:78:29:d2:92:24:cd:d9:52:
         03:fa:a3:2f:20:21:7c:31:21:7b:f2:68:0d:ec:8b:b4:e5:c1:
         8b:0a:d2:5b:70:a5:77:a6:a1:99:32:49:cc:56:6d:0f:0f:a6:
         d4:2f:93:e1:0a:bc:b3:e3:b2:56:15:58:01:0e:fa:2f:86:0c:
         42:b4:bc:96:09:9d:8f:75:a6:a9:cc:da:c8:88:b5:85:63:1f:
         52:5c:0b:4b:8d:41:4a:a7:9b:bd:76:92:16:03:ac:c6:77:c7:
         d5:7b:31:ee:9c:c6:2a:d2:3c:ad:54:4c:4e:41:2f:04:f9:01:
         96:12:52:ed:b5:d2:e5:11:6a:1c:6b:dc:94:4c:7b:a0:6b:7f:
         15:e2:b2:1f:9a:27:c9:c9:55:43:9c:48:be:f8:ef:22:ec:22:
         d4:32:6f:d8:04:eb:dc:e7:42:18:af:5b:bf:c2:58:08:b2:e7:
         05:04:1a:be:70:40:3c:46:65:7d:30:a0:86:e5:d3:4e:2a:fa:
         aa:99:7c:43:2b:d4:00:a8:98:08:0a:28:09:62:6b:60:8e:84:
         b1:77:49:fc:e7:70:c6:25:89:2e:c8:c7:72:33:ad:37:c4:e4:
         31:63:fe:5d:05:cf:bd:ea:47:8a:52:8d:79:94:8a:3c:a5:fc:
         14:74:24:5a:7b:d4:81:67:85:f4:02:51:1b:20:5d:3b:74:e6:
         18:7b:63:44:13:0c:f5:5b:98:80:9e:ad:69:1d:79:65:6e:8c:
         bc:c4:6c:ca:cd:ae:98:9c
-----BEGIN CERTIFICATE-----
MIIGrTCCBJWgAwIBAgICLYowDQYJKoZIhvcNAQELBQAwgawxCzAJBgNVBAYTAlVT
MQswCQYDVQQIEwJPSDERMA8GA1UEBxMIQ29sdW1idXMxEjAQBgNVBAoTCVZpa2lu
Z1ZQTjEdMBsGA1UECxMUTXlPcmdhbml6YXRpb25hbFVuaXQxFTATBgNVBAMTDFZp
a2luZ1ZQTiBDQTEQMA4GA1UEKRMHRWFzeVJTQTEhMB8GCSqGSIb3DQEJARYSbWVA
bXlob3N0Lm15ZG9tYWluMB4XDTE3MDgyNjExNTYwOVoXDTI3MDgyNDExNTYwOVow
HzEdMBsGA1UEAxMUQ2xpZW50Mjk0MENlcnRiYTE2MmQwggIiMA0GCSqGSIb3DQEB
AQUAA4ICDwAwggIKAoICAQCsFAuwnv28i4Q3+zNG1wRxj9nQ8GQZeuA7CiloT0y5
b8hLTQKa0NqQzZAnbxbf9S5crmVKTnZumMu1p/bp6+4cqq7BEujORYMp8h1IqMmR
2lZXWob4mY9/3cDjcxt8FnXBjoPqlK4nS19o8Nknx3p/saEfRviAjla774JkfKRx
BJ94fVZ1W2eSOtkaenm2CShHFkYaClqolvSV68ILtMp7LHF48WyFh3h+lTqZp8YH
Cgx6JHQZOCZuoBZGwkDYrtWJ6xlb+mV8Qfq2RUcjLEJwLXIu15lSd4J5qYe3AZP+
IpqnexWDl33iTnp4nM0jQEvjqBwIyKdANSYK5W576mCUSFA+Bygh39VgOFFadVr2
/3UJyC0PcFODQu2hcFBLe18Fc36/mg3nKqIZ6ELn3gHg20ICis8D2Ne0lhmoLi8U
wQQocYT53LcJ/1Y/7gKUTNiklarFYVaflI9npQrEsOI9KONZzvspqygxjWIzR1rl
mJfgQeE9uhS/m75j7WOJ3zFBKK7fOsx1qYRH72h6FkLHz1csy+r3PIBXvYn3U6AB
tPfUWbhvS2r0rgyIdmmI8DQST40ject89OCYe9VqsB2sMbO7RXJxRBBVXfyru7/5
DxTppe4IqnqhmT3iETzZPt69dYfbI9iX0Whgv5ehiB/zg5GxOsvuw69CjEuxxcp7
/wIDAQABo4IBYzCCAV8wCQYDVR0TBAIwADAtBglghkgBhvhCAQ0EIBYeRWFzeS1S
U0EgR2VuZXJhdGVkIENlcnRpZmljYXRlMB0GA1UdDgQWBBR0VJ7lngf7XAtf1rAt
SB3XfEiepTCB4QYDVR0jBIHZMIHWgBQSzWAE0qCAnnDtxpm4eyzGUv0ZoaGBsqSB
rzCBrDELMAkGA1UEBhMCVVMxCzAJBgNVBAgTAk9IMREwDwYDVQQHEwhDb2x1bWJ1
czESMBAGA1UEChMJVmlraW5nVlBOMR0wGwYDVQQLExRNeU9yZ2FuaXphdGlvbmFs
VW5pdDEVMBMGA1UEAxMMVmlraW5nVlBOIENBMRAwDgYDVQQpEwdFYXN5UlNBMSEw
HwYJKoZIhvcNAQkBFhJtZUBteWhvc3QubXlkb21haW6CCQDPNYXugL8qPjATBgNV
HSUEDDAKBggrBgEFBQcDAjALBgNVHQ8EBAMCB4AwDQYJKoZIhvcNAQELBQADggIB
AEXGGOnsST298IrV2E9SGM2EMW43DnX5kTBqj9MzsN2AR/ZSwiE8OV9DAU2GIWju
FDiptgdY/dQ1p9MVPAR9eT8yL+5ymIcQaWogXxGSYhULQpH/jVyBuan3COVqSkGh
lM/Zjt8Ifb92LUk58wRVSS5uMXxbvkY32xW/3I+SR/j97khsj/xrCEbFCF/Hd0LP
NMYQaIL1pDr2IvWGuHTs4y4+TfEAqDD5czusVqbbUGORDOX1ioVQwLBGeLhI/guc
QpKV284/oXibfa32TNZe81QVtj63tGtyoTjTVpQw/+t8ait4KdKSJM3ZUgP6oy8g
IXwxIXvyaA3si7TlwYsK0ltwpXemoZkyScxWbQ8PptQvk+EKvLPjslYVWAEO+i+G
DEK0vJYJnY91pqnM2siItYVjH1JcC0uNQUqnm712khYDrMZ3x9V7Me6cxirSPK1U
TE5BLwT5AZYSUu210uURahxr3JRMe6BrfxXish+aJ8nJVUOcSL747yLsItQyb9gE
69znQhivW7/CWAiy5wUEGr5wQDxGZX0woIbl004q+qqZfEMr1AComAgKKAlia2CO
hLF3SfzncMYliS7Ix3IzrTfE5DFj/l0Fz73qR4pSjXmUijyl/BR0JFp71IFnhfQC
URsgXTt05hh7Y0QTDPVbmICerWkdeWVujLzEbMrNrpic
-----END CERTIFICATE-----
