Certificate:
    Data:
        Version: 3 (0x2)
        Serial Number: 11700 (0x2db4)
    Signature Algorithm: sha256WithRSAEncryption
        Issuer: C=US, ST=OH, L=Columbus, O=VikingVPN, OU=MyOrganizationalUnit, CN=VikingVPN CA/name=EasyRSA/emailAddress=me@myhost.mydomain
        Validity
            Not Before: Aug 27 19:11:13 2017 GMT
            Not After : Aug 25 19:11:13 2027 GMT
        Subject: CN=Client3048Cert972fbc
        Subject Public Key Info:
            Public Key Algorithm: rsaEncryption
                Public-Key: (4096 bit)
                Modulus:
                    00:aa:7b:8a:30:52:f0:17:1a:6b:b6:b5:fe:db:85:
                    57:a2:38:32:dd:fa:eb:d1:fe:e7:6b:4b:e3:74:ea:
                    90:51:a8:9a:b6:5d:c7:2f:dc:0c:17:a5:17:b3:f0:
                    37:d3:77:39:4c:a9:22:ce:25:24:9f:74:4b:ac:22:
                    e4:86:87:38:82:e2:4c:2b:c6:41:ec:12:55:f0:21:
                    f2:9f:57:53:49:55:e0:56:15:be:df:d2:7a:5e:3a:
                    8c:7c:9f:ec:a4:89:df:61:ed:9f:9e:bb:db:1f:26:
                    61:9a:04:37:1e:6d:fc:1c:a4:34:2f:a9:b0:b6:2f:
                    11:33:7f:a9:3a:e6:80:cc:fc:a7:34:cf:bb:75:fd:
                    8e:64:36:c0:95:a4:43:6d:a6:e0:84:75:01:c4:26:
                    d6:19:e0:b1:91:0f:03:38:b2:01:af:36:07:4a:62:
                    41:c2:68:23:d5:8a:36:e8:55:d7:d4:85:c8:02:f8:
                    58:49:f0:22:df:62:fe:05:04:bf:7e:20:61:f5:3c:
                    35:a6:bc:6e:31:d2:9d:28:ac:36:a8:18:79:05:0f:
                    b6:64:36:73:f0:e9:95:1c:d1:c2:a9:68:75:1e:52:
                    ba:b1:c8:76:e8:9b:f8:1d:7f:71:e0:55:f5:89:ac:
                    29:78:5f:fb:66:91:0c:93:cd:02:dd:3c:30:42:51:
                    75:76:73:31:40:41:5e:de:7b:c6:08:fe:8d:eb:cf:
                    ce:e7:dd:9c:8c:c1:1b:8a:5c:fd:57:44:2e:fd:27:
                    cd:62:e4:91:a0:22:ad:18:92:63:07:42:dc:5c:a7:
                    45:af:35:6b:02:10:bd:72:19:ba:2d:26:5e:6c:7d:
                    76:af:37:fb:05:7f:30:3c:d8:e0:3d:17:13:ad:5d:
                    b5:06:6a:7e:f1:f4:c1:00:60:21:94:2b:60:ba:2f:
                    df:2f:3e:41:19:99:1c:c8:d6:e4:d3:a1:c6:94:c8:
                    59:49:8e:94:d1:68:67:74:59:b7:f7:fa:21:f2:e9:
                    20:18:6e:4c:1f:39:84:3f:eb:11:49:5b:c7:33:2b:
                    5e:71:f7:60:b2:2d:da:2f:8b:49:17:68:7f:d8:5e:
                    96:46:eb:31:ce:ed:a1:56:17:e3:08:83:01:0a:93:
                    2f:9a:78:6a:98:d0:2c:95:aa:bf:d0:21:ce:86:2e:
                    a5:e2:2a:b4:37:2a:e5:23:c1:19:fe:00:70:44:6e:
                    ca:1f:be:68:43:36:3c:92:f9:c9:bf:00:97:ec:53:
                    24:1f:1e:2c:81:7e:94:ef:08:9e:56:4d:14:d6:b6:
                    48:81:a8:e9:9f:53:67:24:e0:da:23:77:b8:0f:7a:
                    c1:70:b2:a0:37:b2:c8:8a:40:6d:7b:ee:af:51:44:
                    46:6f:b9
                Exponent: 65537 (0x10001)
        X509v3 extensions:
            X509v3 Basic Constraints: 
                CA:FALSE
            Netscape Comment: 
                Easy-RSA Generated Certificate
            X509v3 Subject Key Identifier: 
                F8:A5:A0:A8:D1:D3:A6:EA:11:AB:11:B3:DB:22:7F:BC:67:D7:CD:E2
            X509v3 Authority Key Identifier: 
                keyid:12:CD:60:04:D2:A0:80:9E:70:ED:C6:99:B8:7B:2C:C6:52:FD:19:A1
                DirName:/C=US/ST=OH/L=Columbus/O=VikingVPN/OU=MyOrganizationalUnit/CN=VikingVPN CA/name=EasyRSA/emailAddress=me@myhost.mydomain
                serial:CF:35:85:EE:80:BF:2A:3E

            X509v3 Extended Key Usage: 
                TLS Web Client Authentication
            X509v3 Key Usage: 
                Digital Signature
    Signature Algorithm: sha256WithRSAEncryption
         53:8c:28:07:95:3d:e8:9a:5a:d2:49:83:53:f2:92:b6:38:34:
         7d:e1:9b:9b:c6:a5:a5:e9:a6:b4:a0:fb:eb:4f:80:b0:02:56:
         72:0d:d8:f2:c3:72:d3:ce:10:01:f2:ab:55:07:b0:1f:9b:4e:
         38:9a:fe:0f:71:50:8f:8e:e9:83:62:0b:b9:38:ad:4e:bd:51:
         03:73:26:cf:dd:65:79:3d:ac:47:a7:46:7e:e9:dc:0d:c2:4b:
         76:c0:97:a8:68:5c:de:af:64:0a:dd:d1:9d:c7:d6:2a:82:cc:
         9d:40:2c:1f:66:30:86:06:cf:e5:e6:5a:ae:7f:eb:2c:58:c3:
         7f:46:99:16:41:b7:21:87:ca:89:07:dc:cf:31:d0:57:cb:12:
         23:09:11:5c:3a:ce:24:0b:33:bd:05:3a:66:c9:d8:2c:0d:50:
         a4:05:4e:32:ef:21:06:4a:fb:b4:30:96:f5:67:ee:f1:76:9c:
         8a:49:6e:1c:b7:ed:07:87:02:26:ea:7c:5b:03:05:f5:74:7d:
         f3:4b:ae:c2:c1:c5:c3:14:d8:5d:c8:ff:2e:9f:e6:91:bc:4c:
         eb:67:13:29:4d:27:1c:74:ef:7d:f2:f6:fc:36:70:92:bf:f7:
         f5:8c:b5:1c:86:04:bd:b4:1d:89:e9:1c:be:4d:b3:d2:93:43:
         0e:dd:ba:1f:84:6a:82:56:2f:0a:4d:43:b7:cc:7d:63:33:70:
         53:62:ee:8b:79:58:0f:23:6f:cf:ef:45:58:4f:8f:00:28:a0:
         91:93:d9:32:7c:39:61:6b:a4:04:80:53:9c:3a:78:12:ef:32:
         fb:82:2e:59:e1:e3:47:48:a8:85:5e:46:4f:c2:a4:cc:81:27:
         ec:3f:36:0d:88:e9:ba:5c:f1:12:27:46:bb:2d:14:95:ce:70:
         00:aa:b1:ef:51:a2:9a:76:0c:5f:03:eb:93:c6:f9:ae:d1:e1:
         5c:47:0f:78:b7:ef:03:3d:42:1c:fa:3e:b2:7c:e7:e2:fd:37:
         23:38:02:a6:38:b5:31:2a:60:61:04:f7:83:45:f4:f4:da:04:
         84:50:1b:fe:c7:f6:a3:be:ee:7f:53:93:0b:c3:c3:45:00:ff:
         88:af:f3:3c:a4:07:9c:18:29:84:5a:50:20:61:c3:e5:fa:12:
         b5:8a:9f:59:0c:66:3a:c0:17:36:f4:83:f8:41:6c:6d:fa:02:
         fd:b4:0c:c2:1b:6e:b2:a3:00:72:87:4c:fb:42:00:96:19:b5:
         32:5a:87:f2:58:35:fb:2d:19:72:35:c6:6c:ee:cc:87:80:4c:
         14:d3:d4:3a:d1:20:1c:a3:cc:e0:4c:b5:f9:f9:0b:cd:e2:f8:
         df:ff:da:37:95:45:57:fc
-----BEGIN CERTIFICATE-----
MIIGrTCCBJWgAwIBAgICLbQwDQYJKoZIhvcNAQELBQAwgawxCzAJBgNVBAYTAlVT
MQswCQYDVQQIEwJPSDERMA8GA1UEBxMIQ29sdW1idXMxEjAQBgNVBAoTCVZpa2lu
Z1ZQTjEdMBsGA1UECxMUTXlPcmdhbml6YXRpb25hbFVuaXQxFTATBgNVBAMTDFZp
a2luZ1ZQTiBDQTEQMA4GA1UEKRMHRWFzeVJTQTEhMB8GCSqGSIb3DQEJARYSbWVA
bXlob3N0Lm15ZG9tYWluMB4XDTE3MDgyNzE5MTExM1oXDTI3MDgyNTE5MTExM1ow
HzEdMBsGA1UEAxMUQ2xpZW50MzA0OENlcnQ5NzJmYmMwggIiMA0GCSqGSIb3DQEB
AQUAA4ICDwAwggIKAoICAQCqe4owUvAXGmu2tf7bhVeiODLd+uvR/udrS+N06pBR
qJq2Xccv3AwXpRez8DfTdzlMqSLOJSSfdEusIuSGhziC4kwrxkHsElXwIfKfV1NJ
VeBWFb7f0npeOox8n+ykid9h7Z+eu9sfJmGaBDcebfwcpDQvqbC2LxEzf6k65oDM
/Kc0z7t1/Y5kNsCVpENtpuCEdQHEJtYZ4LGRDwM4sgGvNgdKYkHCaCPVijboVdfU
hcgC+FhJ8CLfYv4FBL9+IGH1PDWmvG4x0p0orDaoGHkFD7ZkNnPw6ZUc0cKpaHUe
UrqxyHbom/gdf3HgVfWJrCl4X/tmkQyTzQLdPDBCUXV2czFAQV7ee8YI/o3rz87n
3ZyMwRuKXP1XRC79J81i5JGgIq0YkmMHQtxcp0WvNWsCEL1yGbotJl5sfXavN/sF
fzA82OA9FxOtXbUGan7x9MEAYCGUK2C6L98vPkEZmRzI1uTTocaUyFlJjpTRaGd0
Wbf3+iHy6SAYbkwfOYQ/6xFJW8czK15x92CyLdovi0kXaH/YXpZG6zHO7aFWF+MI
gwEKky+aeGqY0CyVqr/QIc6GLqXiKrQ3KuUjwRn+AHBEbsofvmhDNjyS+cm/AJfs
UyQfHiyBfpTvCJ5WTRTWtkiBqOmfU2ck4Nojd7gPesFwsqA3ssiKQG177q9RREZv
uQIDAQABo4IBYzCCAV8wCQYDVR0TBAIwADAtBglghkgBhvhCAQ0EIBYeRWFzeS1S
U0EgR2VuZXJhdGVkIENlcnRpZmljYXRlMB0GA1UdDgQWBBT4paCo0dOm6hGrEbPb
In+8Z9fN4jCB4QYDVR0jBIHZMIHWgBQSzWAE0qCAnnDtxpm4eyzGUv0ZoaGBsqSB
rzCBrDELMAkGA1UEBhMCVVMxCzAJBgNVBAgTAk9IMREwDwYDVQQHEwhDb2x1bWJ1
czESMBAGA1UEChMJVmlraW5nVlBOMR0wGwYDVQQLExRNeU9yZ2FuaXphdGlvbmFs
VW5pdDEVMBMGA1UEAxMMVmlraW5nVlBOIENBMRAwDgYDVQQpEwdFYXN5UlNBMSEw
HwYJKoZIhvcNAQkBFhJtZUBteWhvc3QubXlkb21haW6CCQDPNYXugL8qPjATBgNV
HSUEDDAKBggrBgEFBQcDAjALBgNVHQ8EBAMCB4AwDQYJKoZIhvcNAQELBQADggIB
AFOMKAeVPeiaWtJJg1PykrY4NH3hm5vGpaXpprSg++tPgLACVnIN2PLDctPOEAHy
q1UHsB+bTjia/g9xUI+O6YNiC7k4rU69UQNzJs/dZXk9rEenRn7p3A3CS3bAl6ho
XN6vZArd0Z3H1iqCzJ1ALB9mMIYGz+XmWq5/6yxYw39GmRZBtyGHyokH3M8x0FfL
EiMJEVw6ziQLM70FOmbJ2CwNUKQFTjLvIQZK+7QwlvVn7vF2nIpJbhy37QeHAibq
fFsDBfV0ffNLrsLBxcMU2F3I/y6f5pG8TOtnEylNJxx0733y9vw2cJK/9/WMtRyG
BL20HYnpHL5Ns9KTQw7duh+EaoJWLwpNQ7fMfWMzcFNi7ot5WA8jb8/vRVhPjwAo
oJGT2TJ8OWFrpASAU5w6eBLvMvuCLlnh40dIqIVeRk/CpMyBJ+w/Ng2I6bpc8RIn
RrstFJXOcACqse9Ropp2DF8D65PG+a7R4VxHD3i37wM9Qhz6PrJ85+L9NyM4AqY4
tTEqYGEE94NF9PTaBIRQG/7H9qO+7n9TkwvDw0UA/4iv8zykB5wYKYRaUCBhw+X6
ErWKn1kMZjrAFzb0g/hBbG36Av20DMIbbrKjAHKHTPtCAJYZtTJah/JYNfstGXI1
xmzuzIeATBTT1DrRIByjzOBMtfn5C83i+N//2jeVRVf8
-----END CERTIFICATE-----
