Certificate:
    Data:
        Version: 3 (0x2)
        Serial Number: 11724 (0x2dcc)
    Signature Algorithm: sha256WithRSAEncryption
        Issuer: C=US, ST=OH, L=Columbus, O=VikingVPN, OU=MyOrganizationalUnit, CN=VikingVPN CA/name=EasyRSA/emailAddress=me@myhost.mydomain
        Validity
            Not Before: Aug 29 05:40:54 2017 GMT
            Not After : Aug 27 05:40:54 2027 GMT
        Subject: CN=Client3064Cert429693
        Subject Public Key Info:
            Public Key Algorithm: rsaEncryption
                Public-Key: (4096 bit)
                Modulus:
                    00:e7:42:44:77:94:0a:94:35:5b:da:62:b1:58:71:
                    d2:e8:29:12:97:7c:da:75:5d:a1:f9:da:2d:ca:93:
                    14:ba:df:8f:91:9b:8a:0d:31:cb:9f:07:37:9a:25:
                    01:4c:c5:ea:f2:59:ab:2a:f9:49:31:6c:e0:21:bc:
                    d9:09:29:01:a9:73:83:88:a6:11:69:cb:b9:ca:e9:
                    95:32:2c:ce:2a:c9:d4:b0:8c:2d:0b:bd:4e:a4:ee:
                    2c:24:e5:9a:5c:e5:0c:2f:e5:fe:04:77:b3:9e:e3:
                    04:6f:b4:f5:8a:03:de:db:50:d4:c2:dd:2e:4e:48:
                    c1:b0:99:fa:28:9b:21:6c:76:09:54:38:36:8d:9b:
                    84:73:62:83:d9:06:f4:0b:18:2c:63:44:dc:f1:19:
                    66:9c:99:d2:c7:25:b8:c4:b6:69:f0:a8:48:a0:e6:
                    a0:b9:06:66:73:19:c7:03:8d:7d:da:1c:36:fd:b8:
                    7b:a9:cb:83:bf:8c:2b:5a:ec:64:6d:2b:2c:9f:c0:
                    a2:97:14:61:c8:f8:ba:e3:3a:79:7e:13:14:5f:6a:
                    0a:0d:47:7c:71:31:f9:0d:e4:d8:e9:03:a6:96:82:
                    cd:3c:7b:4b:89:06:b2:78:92:fa:76:78:49:5b:82:
                    41:94:ec:84:ea:46:d8:8d:3b:72:d6:61:dc:0a:64:
                    ce:33:2f:f8:f4:0b:d2:f4:b4:ce:34:89:dd:c2:83:
                    8e:b5:93:64:51:fb:6a:ad:0b:c1:07:ec:d5:49:c1:
                    cf:6b:c9:92:a9:d5:bb:4d:35:99:8c:4e:0b:a2:4c:
                    00:5d:56:e5:81:0d:a5:13:ee:5e:d8:0b:66:5d:52:
                    0d:d1:45:25:19:a0:5f:e4:70:76:06:44:c7:04:a4:
                    f3:ba:fd:fe:5a:bd:69:a1:bf:4f:0e:5f:ef:c1:34:
                    c8:b9:8d:8a:67:07:da:a9:31:81:38:a4:c8:23:42:
                    b3:6f:20:0e:bf:34:f6:1f:6b:dd:5f:d5:5f:10:10:
                    a4:a4:98:12:9d:49:2b:df:31:a1:11:31:40:01:4b:
                    21:04:ee:03:14:39:61:db:a9:68:77:70:04:d0:08:
                    37:cc:61:bd:2e:b5:5a:1a:56:ac:15:00:c6:32:f2:
                    2c:a4:20:85:9e:a9:2f:29:20:f7:be:d8:20:c5:e1:
                    7d:30:38:4c:e3:4d:ce:85:c0:4f:9c:30:54:57:e6:
                    8a:c4:58:3e:3b:70:96:52:16:c3:46:54:c3:b1:2c:
                    78:d9:93:b1:0b:e9:d2:88:1a:d6:02:a0:f9:6e:1e:
                    be:8f:1f:e7:88:c0:81:52:9c:fb:58:23:0b:c6:85:
                    95:a9:4c:47:7c:f7:34:45:83:dd:7a:78:02:b1:1a:
                    c2:45:8b
                Exponent: 65537 (0x10001)
        X509v3 extensions:
            X509v3 Basic Constraints: 
                CA:FALSE
            Netscape Comment: 
                Easy-RSA Generated Certificate
            X509v3 Subject Key Identifier: 
                9D:A2:06:DC:35:84:63:88:CE:43:80:84:1B:DA:85:DD:6C:9F:07:D9
            X509v3 Authority Key Identifier: 
                keyid:12:CD:60:04:D2:A0:80:9E:70:ED:C6:99:B8:7B:2C:C6:52:FD:19:A1
                DirName:/C=US/ST=OH/L=Columbus/O=VikingVPN/OU=MyOrganizationalUnit/CN=VikingVPN CA/name=EasyRSA/emailAddress=me@myhost.mydomain
                serial:CF:35:85:EE:80:BF:2A:3E

            X509v3 Extended Key Usage: 
                TLS Web Client Authentication
            X509v3 Key Usage: 
                Digital Signature
    Signature Algorithm: sha256WithRSAEncryption
         6f:2b:51:3c:df:47:74:56:42:47:2f:d7:bc:d1:44:cb:2b:de:
         02:d7:8d:a4:89:bc:77:9f:95:3a:ad:96:eb:5c:88:58:7b:96:
         23:e4:ea:38:e1:e4:47:b7:22:4b:ed:0f:f3:bb:5b:b4:db:8a:
         67:85:76:30:7c:31:bd:e1:7d:c3:e2:d8:5c:59:52:27:68:9d:
         28:3f:a2:7c:61:2f:42:27:9a:8c:37:05:a0:f6:4a:1b:11:6b:
         e9:da:65:89:8d:c9:65:d9:7e:4e:c9:62:5d:1e:90:c3:a9:a5:
         18:01:20:79:3b:16:34:07:7e:a5:ed:be:69:a4:ef:be:23:85:
         17:8b:63:94:90:58:29:63:b2:f6:70:ab:c0:4f:8c:07:17:78:
         41:bb:07:56:c4:1c:ab:08:b3:17:7f:29:5e:e1:e0:ef:60:68:
         2f:85:61:1c:a9:59:97:aa:ff:6e:01:90:6d:c4:72:b5:53:7f:
         24:88:7a:e1:18:35:e6:a8:0e:18:0e:03:03:cc:b9:74:35:e8:
         f7:1c:f7:fe:4d:50:84:1c:97:d6:fa:4f:02:8b:f1:a4:70:51:
         4f:aa:39:b8:2f:58:8a:ee:a0:62:44:f4:3c:97:2b:f7:65:4e:
         3b:1a:dc:ac:84:f4:e3:e8:89:97:f7:8e:1b:8a:04:c9:d4:34:
         a2:10:55:72:b5:fa:45:61:99:8d:01:9f:c5:c9:63:34:d9:57:
         a1:7f:5f:2b:1e:52:eb:91:0c:4f:0e:30:4c:f9:14:2d:c8:11:
         6b:f7:0f:99:ca:dd:ad:78:16:db:58:0f:70:b9:93:b6:17:49:
         21:57:f5:f9:fb:e2:84:d9:ad:ab:3a:57:d7:7b:6a:fc:f2:10:
         3b:35:a6:83:f9:ec:bd:0d:5a:1e:12:06:c8:48:61:fd:09:ed:
         15:2c:92:18:b0:3c:a0:77:c1:6a:d9:18:f6:ea:83:51:03:85:
         8a:69:f1:4e:70:2c:a7:58:ae:63:cf:33:96:a9:ae:05:1c:82:
         fd:04:17:b0:d7:d9:45:dc:eb:4f:2b:90:ef:f3:fb:6f:7c:aa:
         e5:b5:ca:49:87:69:fb:53:23:24:9c:d7:74:bb:da:c2:51:9a:
         91:9b:ee:66:3a:01:a8:c8:67:41:b9:46:bf:d7:10:d5:bb:a6:
         7d:70:fe:9b:5b:15:72:69:8b:41:06:c3:f5:bd:d4:11:2b:82:
         54:5f:e7:9c:6e:ae:8d:7b:5e:94:27:4e:62:4f:23:2b:87:dc:
         49:00:d6:6e:28:34:bf:aa:bd:c9:e7:ef:df:d7:65:f9:b7:d1:
         1e:15:ad:f5:04:10:7b:dc:3e:aa:f9:ea:58:ea:c6:e2:e9:06:
         d3:4f:4f:a1:78:90:7c:b0
-----BEGIN CERTIFICATE-----
MIIGrTCCBJWgAwIBAgICLcwwDQYJKoZIhvcNAQELBQAwgawxCzAJBgNVBAYTAlVT
MQswCQYDVQQIEwJPSDERMA8GA1UEBxMIQ29sdW1idXMxEjAQBgNVBAoTCVZpa2lu
Z1ZQTjEdMBsGA1UECxMUTXlPcmdhbml6YXRpb25hbFVuaXQxFTATBgNVBAMTDFZp
a2luZ1ZQTiBDQTEQMA4GA1UEKRMHRWFzeVJTQTEhMB8GCSqGSIb3DQEJARYSbWVA
bXlob3N0Lm15ZG9tYWluMB4XDTE3MDgyOTA1NDA1NFoXDTI3MDgyNzA1NDA1NFow
HzEdMBsGA1UEAxMUQ2xpZW50MzA2NENlcnQ0Mjk2OTMwggIiMA0GCSqGSIb3DQEB
AQUAA4ICDwAwggIKAoICAQDnQkR3lAqUNVvaYrFYcdLoKRKXfNp1XaH52i3KkxS6
34+Rm4oNMcufBzeaJQFMxeryWasq+UkxbOAhvNkJKQGpc4OIphFpy7nK6ZUyLM4q
ydSwjC0LvU6k7iwk5Zpc5Qwv5f4Ed7Oe4wRvtPWKA97bUNTC3S5OSMGwmfoomyFs
dglUODaNm4RzYoPZBvQLGCxjRNzxGWacmdLHJbjEtmnwqEig5qC5BmZzGccDjX3a
HDb9uHupy4O/jCta7GRtKyyfwKKXFGHI+LrjOnl+ExRfagoNR3xxMfkN5NjpA6aW
gs08e0uJBrJ4kvp2eElbgkGU7ITqRtiNO3LWYdwKZM4zL/j0C9L0tM40id3Cg461
k2RR+2qtC8EH7NVJwc9ryZKp1btNNZmMTguiTABdVuWBDaUT7l7YC2ZdUg3RRSUZ
oF/kcHYGRMcEpPO6/f5avWmhv08OX+/BNMi5jYpnB9qpMYE4pMgjQrNvIA6/NPYf
a91f1V8QEKSkmBKdSSvfMaERMUABSyEE7gMUOWHbqWh3cATQCDfMYb0utVoaVqwV
AMYy8iykIIWeqS8pIPe+2CDF4X0wOEzjTc6FwE+cMFRX5orEWD47cJZSFsNGVMOx
LHjZk7EL6dKIGtYCoPluHr6PH+eIwIFSnPtYIwvGhZWpTEd89zRFg916eAKxGsJF
iwIDAQABo4IBYzCCAV8wCQYDVR0TBAIwADAtBglghkgBhvhCAQ0EIBYeRWFzeS1S
U0EgR2VuZXJhdGVkIENlcnRpZmljYXRlMB0GA1UdDgQWBBSdogbcNYRjiM5DgIQb
2oXdbJ8H2TCB4QYDVR0jBIHZMIHWgBQSzWAE0qCAnnDtxpm4eyzGUv0ZoaGBsqSB
rzCBrDELMAkGA1UEBhMCVVMxCzAJBgNVBAgTAk9IMREwDwYDVQQHEwhDb2x1bWJ1
czESMBAGA1UEChMJVmlraW5nVlBOMR0wGwYDVQQLExRNeU9yZ2FuaXphdGlvbmFs
VW5pdDEVMBMGA1UEAxMMVmlraW5nVlBOIENBMRAwDgYDVQQpEwdFYXN5UlNBMSEw
HwYJKoZIhvcNAQkBFhJtZUBteWhvc3QubXlkb21haW6CCQDPNYXugL8qPjATBgNV
HSUEDDAKBggrBgEFBQcDAjALBgNVHQ8EBAMCB4AwDQYJKoZIhvcNAQELBQADggIB
AG8rUTzfR3RWQkcv17zRRMsr3gLXjaSJvHeflTqtlutciFh7liPk6jjh5Ee3Ikvt
D/O7W7TbimeFdjB8Mb3hfcPi2FxZUidonSg/onxhL0Inmow3BaD2ShsRa+naZYmN
yWXZfk7JYl0ekMOppRgBIHk7FjQHfqXtvmmk774jhReLY5SQWCljsvZwq8BPjAcX
eEG7B1bEHKsIsxd/KV7h4O9gaC+FYRypWZeq/24BkG3EcrVTfySIeuEYNeaoDhgO
AwPMuXQ16Pcc9/5NUIQcl9b6TwKL8aRwUU+qObgvWIruoGJE9DyXK/dlTjsa3KyE
9OPoiZf3jhuKBMnUNKIQVXK1+kVhmY0Bn8XJYzTZV6F/XyseUuuRDE8OMEz5FC3I
EWv3D5nK3a14FttYD3C5k7YXSSFX9fn74oTZras6V9d7avzyEDs1poP57L0NWh4S
BshIYf0J7RUskhiwPKB3wWrZGPbqg1EDhYpp8U5wLKdYrmPPM5aprgUcgv0EF7DX
2UXc608rkO/z+298quW1ykmHaftTIySc13S72sJRmpGb7mY6AajIZ0G5Rr/XENW7
pn1w/ptbFXJpi0EGw/W91BErglRf55xuro17XpQnTmJPIyuH3EkA1m4oNL+qvcnn
79/XZfm30R4VrfUEEHvcPqr56ljqxuLpBtNPT6F4kHyw
-----END CERTIFICATE-----
