Certificate:
    Data:
        Version: 3 (0x2)
        Serial Number: 11734 (0x2dd6)
    Signature Algorithm: sha256WithRSAEncryption
        Issuer: C=US, ST=OH, L=Columbus, O=VikingVPN, OU=MyOrganizationalUnit, CN=VikingVPN CA/name=EasyRSA/emailAddress=me@myhost.mydomain
        Validity
            Not Before: Aug 30 07:49:13 2017 GMT
            Not After : Aug 28 07:49:13 2027 GMT
        Subject: CN=Client2693Cert4a6f36
        Subject Public Key Info:
            Public Key Algorithm: rsaEncryption
                Public-Key: (4096 bit)
                Modulus:
                    00:b2:eb:f1:30:1b:74:cd:e4:8c:26:73:b9:ac:33:
                    73:75:18:3d:05:a1:5d:c7:d7:0a:88:4d:ac:d5:cc:
                    c4:1e:a1:86:6b:7f:c1:79:22:ca:07:c8:b4:ab:67:
                    8b:e2:64:5e:1f:8f:49:23:41:a7:e8:31:8e:c2:50:
                    66:ab:e6:23:d9:21:8a:cb:fd:c8:fe:a4:e5:26:8b:
                    93:2d:d5:12:f6:0c:73:8e:f6:93:06:e3:b9:e1:a1:
                    ed:36:22:1f:f3:2e:df:7c:06:33:d9:78:c4:47:d4:
                    8f:ad:6a:89:04:70:b6:65:77:4c:7c:07:ab:2e:e6:
                    80:77:b0:66:14:2b:9b:ec:96:50:7e:d3:a5:51:70:
                    b5:25:b0:86:b4:35:fa:1e:9f:bf:59:53:fd:73:6c:
                    e0:e2:99:80:04:0e:26:67:41:77:8e:ae:f0:f6:39:
                    9c:2e:34:d5:c4:cc:df:a3:03:75:df:be:7a:89:f4:
                    14:fa:d7:6c:eb:55:27:4e:15:99:d4:f7:2d:30:a6:
                    23:2d:54:a3:67:33:9e:67:3f:d2:f5:63:0b:1f:f4:
                    54:c7:d9:30:b1:e3:07:bd:6b:28:99:c1:40:d1:3d:
                    7b:f1:95:06:ef:e8:14:85:5f:9f:52:88:6f:a4:32:
                    b3:6b:25:59:d7:41:88:10:52:13:bd:92:16:de:f2:
                    2e:75:1e:d4:c4:ec:ac:2b:e8:1d:a1:df:80:5f:58:
                    c8:fe:da:95:8f:3f:f9:37:60:ba:2d:77:d6:29:2c:
                    46:86:60:30:66:63:68:4b:0b:93:6f:1c:88:e6:10:
                    0c:22:0e:9d:22:25:e6:6f:b4:0b:3f:8d:11:a3:c5:
                    53:15:7a:ef:a3:8e:96:5a:2d:0c:be:f8:a2:1f:0d:
                    28:c7:da:1d:cd:81:38:64:23:ee:a4:13:50:dd:26:
                    d1:35:cc:ef:4d:81:c7:62:b2:a5:8b:20:8e:4c:2b:
                    f9:01:96:bc:39:24:b8:83:59:68:1b:82:46:93:15:
                    41:35:a0:e5:df:62:13:17:4e:78:91:35:d0:8a:ae:
                    92:89:40:16:5f:09:88:51:96:53:72:36:a5:a1:93:
                    ed:b2:ed:41:bd:5b:1e:02:f8:01:5e:f0:3f:1b:26:
                    98:9f:2b:14:01:45:97:9a:3b:b9:fe:95:ee:be:ca:
                    8d:25:e2:df:5f:cf:2f:d0:af:13:49:d0:08:70:f5:
                    6f:b7:94:a7:5d:47:0c:85:80:ba:ba:54:55:62:03:
                    58:a9:31:6c:f7:7d:fa:39:30:09:e9:d1:9a:31:e3:
                    c4:95:6e:ff:e7:24:db:be:35:1c:df:67:bc:1c:87:
                    37:46:fb:79:e8:8f:14:f3:76:95:f6:ee:13:26:de:
                    6e:00:89
                Exponent: 65537 (0x10001)
        X509v3 extensions:
            X509v3 Basic Constraints: 
                CA:FALSE
            Netscape Comment: 
                Easy-RSA Generated Certificate
            X509v3 Subject Key Identifier: 
                9B:0C:69:5F:9E:15:32:9B:81:8B:A2:BC:63:26:DE:90:0C:F4:36:43
            X509v3 Authority Key Identifier: 
                keyid:12:CD:60:04:D2:A0:80:9E:70:ED:C6:99:B8:7B:2C:C6:52:FD:19:A1
                DirName:/C=US/ST=OH/L=Columbus/O=VikingVPN/OU=MyOrganizationalUnit/CN=VikingVPN CA/name=EasyRSA/emailAddress=me@myhost.mydomain
                serial:CF:35:85:EE:80:BF:2A:3E

            X509v3 Extended Key Usage: 
                TLS Web Client Authentication
            X509v3 Key Usage: 
                Digital Signature
    Signature Algorithm: sha256WithRSAEncryption
         ce:b6:c6:93:47:c6:86:84:80:11:45:60:42:07:86:ae:d8:be:
         fd:dd:1e:38:cb:67:1a:b5:56:0d:92:ef:18:b8:cf:78:d4:fa:
         4a:d9:93:f3:52:5c:3a:63:da:29:2d:53:9d:c8:fa:25:d0:94:
         3c:00:f6:b5:b3:0e:78:74:c0:83:80:3d:d0:10:e3:fb:3c:99:
         96:e8:d8:5d:d8:a3:38:f9:4e:d5:ed:52:0d:87:bf:86:23:c0:
         bc:dd:6f:7e:fb:35:39:67:3e:c7:c1:a3:18:f3:c3:99:d7:20:
         8a:f4:80:67:d5:0c:22:be:e8:75:7c:7e:e5:29:50:19:0f:03:
         fe:2a:f6:a4:5a:dc:f0:98:a2:80:5c:12:7c:dd:13:dc:e9:3e:
         78:b9:fe:c7:b9:62:b7:c7:ac:23:7c:54:51:ec:7f:76:87:43:
         a0:48:5b:98:40:eb:06:0d:60:38:39:52:26:b2:6a:03:1b:f8:
         56:3e:2f:55:cd:59:34:30:9e:ac:2d:bb:90:6b:c8:56:c0:72:
         1b:91:dd:dc:00:9a:0f:dc:82:ec:30:00:18:57:1b:62:e4:f4:
         79:2b:7e:05:f0:ec:b2:1d:7d:d4:60:2e:7a:e8:fd:4c:70:04:
         1b:d1:c8:b5:00:7f:37:e2:64:97:66:98:27:46:b7:ad:4f:7f:
         67:28:55:0b:0e:5e:2a:fa:1a:10:8d:85:4c:af:f2:9a:61:c5:
         05:57:89:7f:d2:2f:b0:36:a9:d1:30:45:7f:c7:0b:dd:2c:d0:
         87:0f:5d:f5:3f:6d:cc:7a:6e:53:a7:5b:42:cb:db:f9:bf:36:
         25:1f:59:b4:40:30:e5:2b:e7:46:91:72:94:4b:c8:09:73:5e:
         37:b9:f2:31:9c:51:ef:83:99:ac:28:13:7d:14:4a:6b:e9:4a:
         7c:57:a7:b8:7e:af:5d:80:e4:12:f2:66:8d:8a:6e:b4:58:f6:
         06:eb:84:20:2c:cc:f7:ea:17:68:a7:d9:75:12:30:54:a7:39:
         32:b1:15:1d:44:ca:d1:c6:79:c2:a3:57:43:82:bb:38:68:ef:
         3b:ae:5e:93:eb:f6:32:af:d3:93:5a:38:4c:42:9e:92:71:bc:
         da:da:51:bf:56:50:3d:1a:9a:f6:13:1a:53:06:18:8f:2e:fa:
         06:7d:68:c8:d7:0a:33:e5:fe:d4:c3:1b:59:3a:dc:8c:ff:fe:
         61:ee:4c:04:33:70:01:88:bd:76:3d:0c:3f:9d:57:4f:2d:81:
         76:59:8a:7a:85:90:ab:64:37:5a:f0:3c:50:92:8d:ae:04:c7:
         74:9e:b4:ae:f4:55:e5:d3:85:70:4c:11:ad:8a:19:dd:6d:7a:
         8e:de:fd:98:b6:0d:88:71
-----BEGIN CERTIFICATE-----
MIIGrTCCBJWgAwIBAgICLdYwDQYJKoZIhvcNAQELBQAwgawxCzAJBgNVBAYTAlVT
MQswCQYDVQQIEwJPSDERMA8GA1UEBxMIQ29sdW1idXMxEjAQBgNVBAoTCVZpa2lu
Z1ZQTjEdMBsGA1UECxMUTXlPcmdhbml6YXRpb25hbFVuaXQxFTATBgNVBAMTDFZp
a2luZ1ZQTiBDQTEQMA4GA1UEKRMHRWFzeVJTQTEhMB8GCSqGSIb3DQEJARYSbWVA
bXlob3N0Lm15ZG9tYWluMB4XDTE3MDgzMDA3NDkxM1oXDTI3MDgyODA3NDkxM1ow
HzEdMBsGA1UEAxMUQ2xpZW50MjY5M0NlcnQ0YTZmMzYwggIiMA0GCSqGSIb3DQEB
AQUAA4ICDwAwggIKAoICAQCy6/EwG3TN5Iwmc7msM3N1GD0FoV3H1wqITazVzMQe
oYZrf8F5IsoHyLSrZ4viZF4fj0kjQafoMY7CUGar5iPZIYrL/cj+pOUmi5Mt1RL2
DHOO9pMG47nhoe02Ih/zLt98BjPZeMRH1I+taokEcLZld0x8B6su5oB3sGYUK5vs
llB+06VRcLUlsIa0Nfoen79ZU/1zbODimYAEDiZnQXeOrvD2OZwuNNXEzN+jA3Xf
vnqJ9BT612zrVSdOFZnU9y0wpiMtVKNnM55nP9L1Ywsf9FTH2TCx4we9ayiZwUDR
PXvxlQbv6BSFX59SiG+kMrNrJVnXQYgQUhO9khbe8i51HtTE7Kwr6B2h34BfWMj+
2pWPP/k3YLotd9YpLEaGYDBmY2hLC5NvHIjmEAwiDp0iJeZvtAs/jRGjxVMVeu+j
jpZaLQy++KIfDSjH2h3NgThkI+6kE1DdJtE1zO9NgcdisqWLII5MK/kBlrw5JLiD
WWgbgkaTFUE1oOXfYhMXTniRNdCKrpKJQBZfCYhRllNyNqWhk+2y7UG9Wx4C+AFe
8D8bJpifKxQBRZeaO7n+le6+yo0l4t9fzy/QrxNJ0Ahw9W+3lKddRwyFgLq6VFVi
A1ipMWz3ffo5MAnp0Zox48SVbv/nJNu+NRzfZ7wchzdG+3nojxTzdpX27hMm3m4A
iQIDAQABo4IBYzCCAV8wCQYDVR0TBAIwADAtBglghkgBhvhCAQ0EIBYeRWFzeS1S
U0EgR2VuZXJhdGVkIENlcnRpZmljYXRlMB0GA1UdDgQWBBSbDGlfnhUym4GLorxj
Jt6QDPQ2QzCB4QYDVR0jBIHZMIHWgBQSzWAE0qCAnnDtxpm4eyzGUv0ZoaGBsqSB
rzCBrDELMAkGA1UEBhMCVVMxCzAJBgNVBAgTAk9IMREwDwYDVQQHEwhDb2x1bWJ1
czESMBAGA1UEChMJVmlraW5nVlBOMR0wGwYDVQQLExRNeU9yZ2FuaXphdGlvbmFs
VW5pdDEVMBMGA1UEAxMMVmlraW5nVlBOIENBMRAwDgYDVQQpEwdFYXN5UlNBMSEw
HwYJKoZIhvcNAQkBFhJtZUBteWhvc3QubXlkb21haW6CCQDPNYXugL8qPjATBgNV
HSUEDDAKBggrBgEFBQcDAjALBgNVHQ8EBAMCB4AwDQYJKoZIhvcNAQELBQADggIB
AM62xpNHxoaEgBFFYEIHhq7Yvv3dHjjLZxq1Vg2S7xi4z3jU+krZk/NSXDpj2ikt
U53I+iXQlDwA9rWzDnh0wIOAPdAQ4/s8mZbo2F3Yozj5TtXtUg2Hv4YjwLzdb377
NTlnPsfBoxjzw5nXIIr0gGfVDCK+6HV8fuUpUBkPA/4q9qRa3PCYooBcEnzdE9zp
Pni5/se5YrfHrCN8VFHsf3aHQ6BIW5hA6wYNYDg5UiayagMb+FY+L1XNWTQwnqwt
u5BryFbAchuR3dwAmg/cguwwABhXG2Lk9HkrfgXw7LIdfdRgLnro/UxwBBvRyLUA
fzfiZJdmmCdGt61Pf2coVQsOXir6GhCNhUyv8pphxQVXiX/SL7A2qdEwRX/HC90s
0IcPXfU/bcx6blOnW0LL2/m/NiUfWbRAMOUr50aRcpRLyAlzXje58jGcUe+Dmawo
E30USmvpSnxXp7h+r12A5BLyZo2KbrRY9gbrhCAszPfqF2in2XUSMFSnOTKxFR1E
ytHGecKjV0OCuzho7zuuXpPr9jKv05NaOExCnpJxvNraUb9WUD0amvYTGlMGGI8u
+gZ9aMjXCjPl/tTDG1k63Iz//mHuTAQzcAGIvXY9DD+dV08tgXZZinqFkKtkN1rw
PFCSja4Ex3SetK70VeXThXBMEa2KGd1teo7e/Zi2DYhx
-----END CERTIFICATE-----
