Certificate:
    Data:
        Version: 3 (0x2)
        Serial Number: 11759 (0x2def)
    Signature Algorithm: sha256WithRSAEncryption
        Issuer: C=US, ST=OH, L=Columbus, O=VikingVPN, OU=MyOrganizationalUnit, CN=VikingVPN CA/name=EasyRSA/emailAddress=me@myhost.mydomain
        Validity
            Not Before: Sep  2 04:28:37 2017 GMT
            Not After : Aug 31 04:28:37 2027 GMT
        Subject: CN=Client1383Cert66e77c
        Subject Public Key Info:
            Public Key Algorithm: rsaEncryption
                Public-Key: (4096 bit)
                Modulus:
                    00:b7:3f:e6:2f:7a:cc:b8:d0:bc:86:ee:ef:6b:d6:
                    da:42:7f:2d:c9:c6:49:24:bc:62:53:68:9e:b0:aa:
                    0d:d7:6d:f8:df:70:cd:4a:b0:47:4b:25:93:9a:0e:
                    7c:50:4c:cd:bd:4a:ad:16:af:f1:23:22:94:c1:43:
                    94:8c:b0:4f:ce:2b:05:c6:a3:ac:21:55:aa:45:a6:
                    2d:f4:83:e6:15:f4:a4:44:cf:3f:20:d8:a1:2a:66:
                    97:2d:33:98:b1:e4:3a:12:41:11:58:ad:57:1e:e7:
                    7d:92:0e:81:41:0b:f4:9d:46:27:f4:5d:1f:f8:77:
                    1e:ab:c7:46:ff:76:5a:16:5e:5e:ea:40:6b:be:91:
                    1a:a4:d3:87:d3:b2:42:22:45:f0:de:cb:50:19:f3:
                    4b:1c:48:8c:a3:2d:dd:52:b7:c6:8b:5b:d5:80:f3:
                    8e:3b:b9:ae:41:4c:e3:ba:72:c3:77:fd:e9:d2:5f:
                    76:d1:53:94:31:78:ab:9b:2a:61:50:66:8e:69:f6:
                    bf:12:08:80:d2:03:53:7e:5e:b1:2f:e4:68:38:9d:
                    95:bc:0b:62:58:16:b2:73:c2:7a:7f:e5:50:1d:85:
                    d9:80:60:5a:1c:87:4b:73:d1:4a:03:2a:76:24:ed:
                    cb:ff:a7:d2:5f:7c:2b:01:5c:5a:81:6f:0c:c8:ce:
                    d0:37:ec:7a:b8:80:90:a9:cc:a6:b1:ee:72:9c:4c:
                    50:1e:62:b1:f2:35:76:24:17:75:09:ea:bb:e4:12:
                    89:2d:72:43:57:5f:54:be:76:aa:7b:3f:f3:73:3a:
                    06:d1:bc:6f:a3:87:f9:bc:10:99:a5:e6:9a:a3:09:
                    86:d1:ac:f2:47:2b:eb:df:6b:25:be:a9:75:0b:ef:
                    96:d7:07:09:85:c6:d3:93:2d:04:89:78:1f:a1:ef:
                    8b:ae:9c:7c:ea:8c:10:8a:6d:c8:b1:da:9e:d1:ee:
                    9b:c3:d0:f2:f2:bf:4f:5b:8a:58:d2:dd:e1:f0:2c:
                    00:1c:7a:83:5a:18:39:47:7d:8a:8d:bf:81:4f:bc:
                    4e:43:39:19:74:a2:1e:e9:a0:19:b9:5e:82:20:d2:
                    0f:ff:bb:8b:0e:4f:33:b4:30:89:1e:7f:a2:83:3f:
                    69:5e:7d:47:5e:37:35:12:2b:4c:60:81:3d:3e:e6:
                    5a:17:49:62:02:20:c2:db:41:26:17:b6:28:4a:82:
                    26:7e:24:71:0f:74:8a:73:3a:ee:9e:26:16:3e:ed:
                    ba:94:7a:24:e4:9d:9a:8c:b8:53:0d:a1:aa:45:6d:
                    f6:7a:0d:f9:11:0f:7a:ee:00:29:7c:05:f9:31:28:
                    82:51:b8:1c:e3:3a:63:ba:c6:68:ae:25:de:f1:1f:
                    49:d2:71
                Exponent: 65537 (0x10001)
        X509v3 extensions:
            X509v3 Basic Constraints: 
                CA:FALSE
            Netscape Comment: 
                Easy-RSA Generated Certificate
            X509v3 Subject Key Identifier: 
                FE:24:EB:1A:71:D8:2F:66:B7:68:04:F1:BD:EF:CD:CA:B8:29:F6:87
            X509v3 Authority Key Identifier: 
                keyid:12:CD:60:04:D2:A0:80:9E:70:ED:C6:99:B8:7B:2C:C6:52:FD:19:A1
                DirName:/C=US/ST=OH/L=Columbus/O=VikingVPN/OU=MyOrganizationalUnit/CN=VikingVPN CA/name=EasyRSA/emailAddress=me@myhost.mydomain
                serial:CF:35:85:EE:80:BF:2A:3E

            X509v3 Extended Key Usage: 
                TLS Web Client Authentication
            X509v3 Key Usage: 
                Digital Signature
    Signature Algorithm: sha256WithRSAEncryption
         41:bb:0c:6e:e9:47:a6:f0:1a:74:53:9c:38:55:f6:fa:30:77:
         51:f7:78:fb:68:57:60:88:05:f7:99:4e:e3:28:54:b0:e8:87:
         74:09:d7:58:c2:eb:8e:45:ec:c8:37:6d:1b:f9:6c:3a:44:9f:
         15:5c:86:ff:03:e8:de:3f:86:e8:2e:83:51:4d:1f:a9:4e:92:
         21:9d:76:e1:f1:e7:67:58:de:a3:ca:75:2c:60:be:18:28:63:
         b7:07:fb:e9:0b:af:f6:10:81:4a:4b:fb:3d:25:1b:ec:b3:76:
         0a:74:e0:cb:c0:4d:cc:bc:1b:3a:f2:87:ec:1f:58:72:c1:00:
         32:08:9d:05:9f:f9:01:d1:1c:f4:e2:49:21:25:36:2e:c6:66:
         c9:b0:f1:10:2e:1a:9f:3b:14:a7:c7:02:fa:8d:e5:78:65:e2:
         81:0f:9a:5f:21:07:5a:84:94:10:e0:37:16:64:30:80:f1:b9:
         90:b8:96:6e:6b:f0:86:a8:e4:7c:8b:0d:18:b6:0b:69:bd:78:
         50:84:07:56:c3:9c:b2:0c:e8:64:27:68:3f:6f:fe:13:5c:8c:
         84:e5:c3:74:cd:7d:2c:b0:f3:2b:6f:77:db:c6:22:70:d8:8e:
         03:39:48:e8:a3:6c:41:b4:09:59:57:17:ab:8b:14:b7:73:00:
         25:86:19:c9:8c:a9:07:93:5c:50:cc:e6:ac:86:b0:89:cf:5f:
         d6:b2:6a:a8:98:21:ec:1d:35:58:ec:e4:f8:b8:8a:47:d8:11:
         bb:4f:90:d7:11:ac:49:53:5c:c7:dd:3f:67:76:89:ec:29:85:
         f4:ec:4c:93:93:d5:0e:f8:28:01:6d:bb:f7:b8:3c:b5:01:05:
         60:df:94:5b:9a:e3:d8:83:4c:1e:c5:08:04:f1:c1:5c:e6:36:
         58:27:c7:5a:e3:2d:f4:06:77:9d:af:4f:86:8b:63:32:b7:51:
         d7:e4:51:94:ff:e5:f9:ac:79:b1:38:ec:4f:1c:5d:1b:16:40:
         b1:23:73:1c:0f:cc:86:25:da:2f:88:cc:30:cb:ea:8d:7f:8d:
         e2:af:da:9c:dc:fc:68:ab:9e:5e:f6:b0:d2:a8:67:76:20:88:
         25:76:d9:7f:e1:13:4f:a8:99:29:73:61:bc:21:dd:da:93:26:
         8a:e3:2b:97:f0:55:7c:b5:b8:2b:c8:2b:ef:0f:c7:cf:ec:e1:
         f4:30:2c:99:72:39:94:63:10:6e:a4:f0:b2:ee:5d:28:06:e2:
         d1:ba:0a:62:8c:fa:89:94:d2:15:ee:44:f0:c4:18:d4:dd:dc:
         1d:3e:0c:74:cd:7e:b5:b4:1e:aa:5f:14:77:1d:83:4e:f0:ec:
         7e:27:8b:d6:e3:31:3a:0b
-----BEGIN CERTIFICATE-----
MIIGrTCCBJWgAwIBAgICLe8wDQYJKoZIhvcNAQELBQAwgawxCzAJBgNVBAYTAlVT
MQswCQYDVQQIEwJPSDERMA8GA1UEBxMIQ29sdW1idXMxEjAQBgNVBAoTCVZpa2lu
Z1ZQTjEdMBsGA1UECxMUTXlPcmdhbml6YXRpb25hbFVuaXQxFTATBgNVBAMTDFZp
a2luZ1ZQTiBDQTEQMA4GA1UEKRMHRWFzeVJTQTEhMB8GCSqGSIb3DQEJARYSbWVA
bXlob3N0Lm15ZG9tYWluMB4XDTE3MDkwMjA0MjgzN1oXDTI3MDgzMTA0MjgzN1ow
HzEdMBsGA1UEAxMUQ2xpZW50MTM4M0NlcnQ2NmU3N2MwggIiMA0GCSqGSIb3DQEB
AQUAA4ICDwAwggIKAoICAQC3P+Yvesy40LyG7u9r1tpCfy3JxkkkvGJTaJ6wqg3X
bfjfcM1KsEdLJZOaDnxQTM29Sq0Wr/EjIpTBQ5SMsE/OKwXGo6whVapFpi30g+YV
9KREzz8g2KEqZpctM5ix5DoSQRFYrVce532SDoFBC/SdRif0XR/4dx6rx0b/dloW
Xl7qQGu+kRqk04fTskIiRfDey1AZ80scSIyjLd1St8aLW9WA8447ua5BTOO6csN3
/enSX3bRU5QxeKubKmFQZo5p9r8SCIDSA1N+XrEv5Gg4nZW8C2JYFrJzwnp/5VAd
hdmAYFoch0tz0UoDKnYk7cv/p9JffCsBXFqBbwzIztA37Hq4gJCpzKax7nKcTFAe
YrHyNXYkF3UJ6rvkEoktckNXX1S+dqp7P/NzOgbRvG+jh/m8EJml5pqjCYbRrPJH
K+vfayW+qXUL75bXBwmFxtOTLQSJeB+h74uunHzqjBCKbcix2p7R7pvD0PLyv09b
iljS3eHwLAAceoNaGDlHfYqNv4FPvE5DORl0oh7poBm5XoIg0g//u4sOTzO0MIke
f6KDP2lefUdeNzUSK0xggT0+5loXSWICIMLbQSYXtihKgiZ+JHEPdIpzOu6eJhY+
7bqUeiTknZqMuFMNoapFbfZ6DfkRD3ruACl8BfkxKIJRuBzjOmO6xmiuJd7xH0nS
cQIDAQABo4IBYzCCAV8wCQYDVR0TBAIwADAtBglghkgBhvhCAQ0EIBYeRWFzeS1S
U0EgR2VuZXJhdGVkIENlcnRpZmljYXRlMB0GA1UdDgQWBBT+JOsacdgvZrdoBPG9
783KuCn2hzCB4QYDVR0jBIHZMIHWgBQSzWAE0qCAnnDtxpm4eyzGUv0ZoaGBsqSB
rzCBrDELMAkGA1UEBhMCVVMxCzAJBgNVBAgTAk9IMREwDwYDVQQHEwhDb2x1bWJ1
czESMBAGA1UEChMJVmlraW5nVlBOMR0wGwYDVQQLExRNeU9yZ2FuaXphdGlvbmFs
VW5pdDEVMBMGA1UEAxMMVmlraW5nVlBOIENBMRAwDgYDVQQpEwdFYXN5UlNBMSEw
HwYJKoZIhvcNAQkBFhJtZUBteWhvc3QubXlkb21haW6CCQDPNYXugL8qPjATBgNV
HSUEDDAKBggrBgEFBQcDAjALBgNVHQ8EBAMCB4AwDQYJKoZIhvcNAQELBQADggIB
AEG7DG7pR6bwGnRTnDhV9vowd1H3ePtoV2CIBfeZTuMoVLDoh3QJ11jC645F7Mg3
bRv5bDpEnxVchv8D6N4/hugug1FNH6lOkiGdduHx52dY3qPKdSxgvhgoY7cH++kL
r/YQgUpL+z0lG+yzdgp04MvATcy8Gzryh+wfWHLBADIInQWf+QHRHPTiSSElNi7G
Zsmw8RAuGp87FKfHAvqN5Xhl4oEPml8hB1qElBDgNxZkMIDxuZC4lm5r8Iao5HyL
DRi2C2m9eFCEB1bDnLIM6GQnaD9v/hNcjITlw3TNfSyw8ytvd9vGInDYjgM5SOij
bEG0CVlXF6uLFLdzACWGGcmMqQeTXFDM5qyGsInPX9ayaqiYIewdNVjs5Pi4ikfY
EbtPkNcRrElTXMfdP2d2iewphfTsTJOT1Q74KAFtu/e4PLUBBWDflFua49iDTB7F
CATxwVzmNlgnx1rjLfQGd52vT4aLYzK3UdfkUZT/5fmsebE47E8cXRsWQLEjcxwP
zIYl2i+IzDDL6o1/jeKv2pzc/Girnl72sNKoZ3YgiCV22X/hE0+omSlzYbwh3dqT
JorjK5fwVXy1uCvIK+8Px8/s4fQwLJlyOZRjEG6k8LLuXSgG4tG6CmKM+omU0hXu
RPDEGNTd3B0+DHTNfrW0HqpfFHcdg07w7H4ni9bjMToL
-----END CERTIFICATE-----
