Certificate:
    Data:
        Version: 3 (0x2)
        Serial Number: 11764 (0x2df4)
    Signature Algorithm: sha256WithRSAEncryption
        Issuer: C=US, ST=OH, L=Columbus, O=VikingVPN, OU=MyOrganizationalUnit, CN=VikingVPN CA/name=EasyRSA/emailAddress=me@myhost.mydomain
        Validity
            Not Before: Sep  2 21:53:53 2017 GMT
            Not After : Aug 31 21:53:53 2027 GMT
        Subject: CN=Client3074Certb245da
        Subject Public Key Info:
            Public Key Algorithm: rsaEncryption
                Public-Key: (4096 bit)
                Modulus:
                    00:cf:ea:17:00:f9:27:8e:f3:22:ae:e6:23:78:b3:
                    3b:b6:dc:fe:23:bd:03:49:84:18:79:cc:97:09:a3:
                    bd:d4:b3:4f:fa:b1:f2:1a:90:30:67:85:08:21:ca:
                    13:9b:cd:dd:90:c6:07:4f:55:85:e1:2f:2e:86:62:
                    3d:3f:1f:97:b8:28:91:82:6a:df:7a:14:4c:96:8f:
                    6d:1e:25:f6:f9:0e:7d:0e:31:4c:8f:45:aa:ee:a1:
                    4f:11:b6:0c:a6:d1:7f:92:48:64:76:6a:e3:c8:16:
                    e4:9a:9f:40:16:15:de:73:c4:2f:2a:13:d7:3f:8b:
                    03:cc:64:cc:ce:df:fb:c3:dd:b3:45:f3:34:ba:2a:
                    36:70:da:fa:ad:ce:07:b7:c0:37:aa:fb:fe:77:50:
                    21:d7:bd:ae:15:4b:cc:b6:12:e8:07:52:40:a7:4f:
                    8a:1a:39:25:72:2e:c1:5e:4b:0a:ae:b7:af:54:ac:
                    f1:01:a3:8e:ce:a6:e5:89:a3:6c:f5:48:df:ba:58:
                    53:2b:f0:a5:b2:71:e2:7e:3e:0a:8e:a4:30:aa:93:
                    2e:25:55:c7:97:6a:6d:ac:dc:6c:f9:9e:ce:41:38:
                    d8:38:b4:37:b9:d1:77:09:f5:94:b4:f2:02:e2:a1:
                    68:aa:18:59:29:02:8a:1d:65:cb:f2:b2:bb:da:a1:
                    bf:fb:97:22:5b:e6:66:8f:ee:86:d2:bb:af:dc:57:
                    e3:de:fc:36:fc:7e:d6:38:d6:cd:d5:7a:05:97:bc:
                    9f:b7:76:6a:07:fe:c9:4d:72:b1:72:dd:21:52:bc:
                    91:ad:05:df:ae:92:b7:81:0f:27:33:61:2e:09:d2:
                    6b:21:0a:4c:05:f8:fd:b4:45:8a:7a:1d:c0:d6:d6:
                    e2:c1:04:60:47:49:03:81:9d:3a:a0:68:bc:69:ec:
                    a2:f5:2c:07:7c:87:97:c4:6c:2e:78:e2:31:db:0e:
                    ed:da:ed:a3:2e:95:66:17:d0:58:a8:5b:a1:a5:25:
                    fc:ad:ff:33:f9:d2:cb:e2:a2:37:b4:6f:4d:b9:f9:
                    1a:24:da:5f:5c:5e:c7:b8:d5:90:b1:96:6c:9f:85:
                    9f:32:f5:a4:50:71:1d:ff:a9:cd:6e:c8:8e:74:16:
                    b2:b8:a6:dc:b5:90:b9:6f:ad:c4:40:ba:1c:52:24:
                    f4:9d:08:a6:37:ae:aa:c4:65:0f:ec:10:a2:6d:b2:
                    04:89:ab:ec:ed:41:89:39:25:98:82:36:59:84:a3:
                    2e:6c:79:91:a6:13:03:65:aa:f5:cd:f8:98:3e:74:
                    96:e6:be:88:8a:f2:76:7b:e5:fe:77:a4:ef:a1:3f:
                    1f:ab:5d:1f:ee:88:21:76:45:75:9c:68:93:5d:16:
                    23:c9:ad
                Exponent: 65537 (0x10001)
        X509v3 extensions:
            X509v3 Basic Constraints: 
                CA:FALSE
            Netscape Comment: 
                Easy-RSA Generated Certificate
            X509v3 Subject Key Identifier: 
                8E:07:7F:35:A9:F0:FA:58:FE:E0:B8:82:4B:A9:03:17:30:91:0D:08
            X509v3 Authority Key Identifier: 
                keyid:12:CD:60:04:D2:A0:80:9E:70:ED:C6:99:B8:7B:2C:C6:52:FD:19:A1
                DirName:/C=US/ST=OH/L=Columbus/O=VikingVPN/OU=MyOrganizationalUnit/CN=VikingVPN CA/name=EasyRSA/emailAddress=me@myhost.mydomain
                serial:CF:35:85:EE:80:BF:2A:3E

            X509v3 Extended Key Usage: 
                TLS Web Client Authentication
            X509v3 Key Usage: 
                Digital Signature
    Signature Algorithm: sha256WithRSAEncryption
         b8:52:0b:59:d6:06:57:85:6a:30:ac:fe:f7:bb:b4:27:86:05:
         66:5e:a0:53:4d:81:59:da:f5:bf:c9:fe:a5:a7:c5:7c:0a:22:
         b6:cb:a2:f7:97:a4:d6:c4:84:29:ca:57:aa:4b:bd:44:81:66:
         0a:ac:91:b9:4b:ae:3b:d7:13:27:d4:16:c4:c6:59:4d:22:84:
         dc:03:84:54:c2:63:cc:78:7c:66:69:cf:ff:61:fe:4e:38:0c:
         84:64:91:1f:b7:dd:59:4f:98:b4:97:b8:e7:a7:3e:4b:7a:33:
         9e:29:ce:51:bc:ea:56:52:e6:8e:31:4b:24:9a:38:d2:ea:5d:
         14:51:ad:e4:d3:d7:54:29:df:9c:13:32:63:07:06:63:30:7b:
         08:0e:35:36:44:f4:88:22:ec:50:a4:e9:ed:7a:34:17:7b:3a:
         df:ca:10:e7:83:a5:58:3c:32:dc:d3:bb:d8:6e:71:9c:1c:03:
         ec:75:75:6d:aa:3f:e0:d5:be:85:47:6f:7c:1e:77:1a:79:a6:
         d1:0a:73:d4:83:3c:d0:23:4b:7c:e8:97:4f:86:83:45:9c:c8:
         2c:53:2b:3f:96:8a:e4:b4:78:b5:a0:3d:7b:98:d7:8e:9c:e3:
         3d:23:04:e8:04:6b:a6:23:28:a9:6e:88:99:5a:d2:2a:58:b0:
         f1:cb:60:8c:a5:14:54:3b:da:24:b0:7e:36:ff:06:db:f0:92:
         18:b0:12:1a:d3:79:bd:8e:81:75:53:c7:46:64:74:ce:56:8e:
         57:14:28:31:07:10:89:fb:87:35:41:44:14:2f:82:f7:e0:0a:
         8c:de:bf:76:37:24:43:67:eb:a7:10:14:7a:74:46:70:5d:26:
         97:8e:07:bd:4e:9a:4f:a3:72:4a:e6:60:e0:5d:cf:ec:e3:11:
         c1:df:aa:a6:ef:3d:ae:5c:d6:44:4d:34:a1:e2:48:05:c6:94:
         71:84:fb:a6:54:9b:cb:40:2c:0d:1b:24:6b:6f:a9:e2:74:ac:
         57:28:fe:d4:4b:94:d0:b4:eb:0b:3e:ee:15:3d:6a:64:d1:df:
         d6:8c:dd:83:19:50:0b:2b:e4:70:10:6e:10:0c:d1:9c:33:7b:
         5d:0e:23:ee:7c:8e:ab:d6:fe:c8:ca:c1:a8:72:22:b9:d6:41:
         06:fa:e1:5a:bd:1a:28:55:80:3f:46:63:62:36:41:f4:72:63:
         08:4a:5e:40:57:c5:fc:23:95:38:6d:5c:db:22:e7:72:45:5c:
         0c:59:88:d4:7d:e6:96:25:2c:95:11:df:74:d4:59:2f:95:17:
         c4:9e:a2:b6:77:cb:58:d0:bf:bc:ee:9a:66:51:9a:5e:db:7f:
         ea:f3:dd:12:7a:c0:fc:29
-----BEGIN CERTIFICATE-----
MIIGrTCCBJWgAwIBAgICLfQwDQYJKoZIhvcNAQELBQAwgawxCzAJBgNVBAYTAlVT
MQswCQYDVQQIEwJPSDERMA8GA1UEBxMIQ29sdW1idXMxEjAQBgNVBAoTCVZpa2lu
Z1ZQTjEdMBsGA1UECxMUTXlPcmdhbml6YXRpb25hbFVuaXQxFTATBgNVBAMTDFZp
a2luZ1ZQTiBDQTEQMA4GA1UEKRMHRWFzeVJTQTEhMB8GCSqGSIb3DQEJARYSbWVA
bXlob3N0Lm15ZG9tYWluMB4XDTE3MDkwMjIxNTM1M1oXDTI3MDgzMTIxNTM1M1ow
HzEdMBsGA1UEAxMUQ2xpZW50MzA3NENlcnRiMjQ1ZGEwggIiMA0GCSqGSIb3DQEB
AQUAA4ICDwAwggIKAoICAQDP6hcA+SeO8yKu5iN4szu23P4jvQNJhBh5zJcJo73U
s0/6sfIakDBnhQghyhObzd2QxgdPVYXhLy6GYj0/H5e4KJGCat96FEyWj20eJfb5
Dn0OMUyPRaruoU8Rtgym0X+SSGR2auPIFuSan0AWFd5zxC8qE9c/iwPMZMzO3/vD
3bNF8zS6KjZw2vqtzge3wDeq+/53UCHXva4VS8y2EugHUkCnT4oaOSVyLsFeSwqu
t69UrPEBo47OpuWJo2z1SN+6WFMr8KWyceJ+PgqOpDCqky4lVceXam2s3Gz5ns5B
ONg4tDe50XcJ9ZS08gLioWiqGFkpAoodZcvysrvaob/7lyJb5maP7obSu6/cV+Pe
/Db8ftY41s3VegWXvJ+3dmoH/slNcrFy3SFSvJGtBd+ukreBDyczYS4J0mshCkwF
+P20RYp6HcDW1uLBBGBHSQOBnTqgaLxp7KL1LAd8h5fEbC544jHbDu3a7aMulWYX
0FioW6GlJfyt/zP50svioje0b025+Rok2l9cXse41ZCxlmyfhZ8y9aRQcR3/qc1u
yI50FrK4pty1kLlvrcRAuhxSJPSdCKY3rqrEZQ/sEKJtsgSJq+ztQYk5JZiCNlmE
oy5seZGmEwNlqvXN+Jg+dJbmvoiK8nZ75f53pO+hPx+rXR/uiCF2RXWcaJNdFiPJ
rQIDAQABo4IBYzCCAV8wCQYDVR0TBAIwADAtBglghkgBhvhCAQ0EIBYeRWFzeS1S
U0EgR2VuZXJhdGVkIENlcnRpZmljYXRlMB0GA1UdDgQWBBSOB381qfD6WP7guIJL
qQMXMJENCDCB4QYDVR0jBIHZMIHWgBQSzWAE0qCAnnDtxpm4eyzGUv0ZoaGBsqSB
rzCBrDELMAkGA1UEBhMCVVMxCzAJBgNVBAgTAk9IMREwDwYDVQQHEwhDb2x1bWJ1
czESMBAGA1UEChMJVmlraW5nVlBOMR0wGwYDVQQLExRNeU9yZ2FuaXphdGlvbmFs
VW5pdDEVMBMGA1UEAxMMVmlraW5nVlBOIENBMRAwDgYDVQQpEwdFYXN5UlNBMSEw
HwYJKoZIhvcNAQkBFhJtZUBteWhvc3QubXlkb21haW6CCQDPNYXugL8qPjATBgNV
HSUEDDAKBggrBgEFBQcDAjALBgNVHQ8EBAMCB4AwDQYJKoZIhvcNAQELBQADggIB
ALhSC1nWBleFajCs/ve7tCeGBWZeoFNNgVna9b/J/qWnxXwKIrbLoveXpNbEhCnK
V6pLvUSBZgqskblLrjvXEyfUFsTGWU0ihNwDhFTCY8x4fGZpz/9h/k44DIRkkR+3
3VlPmLSXuOenPkt6M54pzlG86lZS5o4xSySaONLqXRRRreTT11Qp35wTMmMHBmMw
ewgONTZE9Igi7FCk6e16NBd7Ot/KEOeDpVg8MtzTu9hucZwcA+x1dW2qP+DVvoVH
b3wedxp5ptEKc9SDPNAjS3zol0+Gg0WcyCxTKz+WiuS0eLWgPXuY146c4z0jBOgE
a6YjKKluiJla0ipYsPHLYIylFFQ72iSwfjb/BtvwkhiwEhrTeb2OgXVTx0ZkdM5W
jlcUKDEHEIn7hzVBRBQvgvfgCozev3Y3JENn66cQFHp0RnBdJpeOB71Omk+jckrm
YOBdz+zjEcHfqqbvPa5c1kRNNKHiSAXGlHGE+6ZUm8tALA0bJGtvqeJ0rFco/tRL
lNC06ws+7hU9amTR39aM3YMZUAsr5HAQbhAM0Zwze10OI+58jqvW/sjKwahyIrnW
QQb64Vq9GihVgD9GY2I2QfRyYwhKXkBXxfwjlThtXNsi53JFXAxZiNR95pYlLJUR
33TUWS+VF8SeorZ3y1jQv7zummZRml7bf+rz3RJ6wPwp
-----END CERTIFICATE-----
