Certificate:
    Data:
        Version: 3 (0x2)
        Serial Number: 11770 (0x2dfa)
    Signature Algorithm: sha256WithRSAEncryption
        Issuer: C=US, ST=OH, L=Columbus, O=VikingVPN, OU=MyOrganizationalUnit, CN=VikingVPN CA/name=EasyRSA/emailAddress=me@myhost.mydomain
        Validity
            Not Before: Sep  3 16:14:39 2017 GMT
            Not After : Sep  1 16:14:39 2027 GMT
        Subject: CN=Client3076Certe9ce0c
        Subject Public Key Info:
            Public Key Algorithm: rsaEncryption
                Public-Key: (4096 bit)
                Modulus:
                    00:de:0c:8a:c7:dc:f7:94:13:10:7c:38:ff:e7:ae:
                    d7:cc:f8:c8:62:38:30:61:2e:96:f8:3c:68:d3:e4:
                    99:38:35:35:7a:c4:2f:1a:99:31:bf:c7:e2:39:1a:
                    85:2a:fb:c8:76:a2:d0:12:e1:7e:7f:1d:de:8d:27:
                    7e:db:96:7e:27:f0:2c:0e:d4:48:c4:7a:68:19:7e:
                    7f:ba:0c:cc:97:65:ed:07:25:df:be:45:b0:d2:c9:
                    b0:c0:c5:ae:19:c7:84:25:9e:a2:9d:01:2a:6e:9d:
                    6c:77:bf:ff:10:24:34:c8:86:2c:34:97:a9:b4:c6:
                    46:01:a2:f2:f3:bb:2f:89:d5:ac:e6:2b:cd:fb:cb:
                    7d:e2:5c:db:5f:82:d5:db:f9:87:27:92:ae:95:9f:
                    51:50:ce:dd:3e:c6:8a:60:6f:b5:31:3b:73:46:47:
                    93:1b:78:63:96:07:b1:d5:24:da:37:26:4e:f0:36:
                    2f:66:e4:93:76:8a:63:88:72:90:2a:9f:31:72:31:
                    86:9a:69:f7:4d:ed:4f:98:87:5e:30:47:33:ac:1a:
                    03:42:6f:12:06:93:fc:e7:02:c1:76:3b:9a:38:57:
                    34:ae:d3:27:fa:1a:2e:54:af:b4:13:09:c3:a6:b6:
                    4a:ed:23:cc:bd:1d:95:6d:c0:a4:ba:81:f4:d5:58:
                    c0:79:2d:f9:37:b1:60:e0:b0:29:75:dc:db:84:9c:
                    6a:62:5f:1d:f3:35:a9:92:64:06:29:20:26:9e:cd:
                    f1:b1:05:59:d0:24:fc:33:4a:47:7c:ba:57:88:c7:
                    dd:f8:71:5a:6a:ed:6d:c2:aa:d1:a8:75:c1:44:68:
                    a9:7b:96:dd:9c:87:11:86:85:ef:83:c0:67:73:6a:
                    2d:f4:43:37:56:09:a1:d5:f3:7c:5b:51:21:ed:be:
                    0a:15:91:be:26:b2:23:f5:e6:48:ae:b5:94:7c:dd:
                    6a:72:09:57:39:fc:62:c0:98:76:4f:d8:0c:97:b1:
                    65:ba:51:9b:e3:b3:31:0e:ef:9a:4b:ed:7f:b1:9d:
                    fc:d9:b4:2d:92:58:88:65:b0:e2:53:85:2b:0c:d0:
                    30:ee:86:05:8c:d6:86:f5:4e:08:85:fb:d3:10:f4:
                    64:cf:46:30:24:f6:ef:61:f3:01:ef:c7:be:07:cd:
                    d0:7f:a3:fa:fb:43:c7:75:6d:6f:13:75:9d:4e:37:
                    86:29:c2:37:96:d2:cc:bc:a2:a4:f4:e6:90:93:a4:
                    e0:59:04:eb:ff:e0:b1:ea:fa:88:8e:6c:11:11:02:
                    a7:fa:4a:91:90:8e:9e:04:96:56:c3:2a:47:04:93:
                    ea:22:06:cb:9c:22:5f:a3:3b:57:fd:b3:a0:a3:ef:
                    ca:cd:9b
                Exponent: 65537 (0x10001)
        X509v3 extensions:
            X509v3 Basic Constraints: 
                CA:FALSE
            Netscape Comment: 
                Easy-RSA Generated Certificate
            X509v3 Subject Key Identifier: 
                A4:4F:8B:B7:B3:C9:63:FB:62:57:81:19:AC:59:79:06:5E:ED:0D:DA
            X509v3 Authority Key Identifier: 
                keyid:12:CD:60:04:D2:A0:80:9E:70:ED:C6:99:B8:7B:2C:C6:52:FD:19:A1
                DirName:/C=US/ST=OH/L=Columbus/O=VikingVPN/OU=MyOrganizationalUnit/CN=VikingVPN CA/name=EasyRSA/emailAddress=me@myhost.mydomain
                serial:CF:35:85:EE:80:BF:2A:3E

            X509v3 Extended Key Usage: 
                TLS Web Client Authentication
            X509v3 Key Usage: 
                Digital Signature
    Signature Algorithm: sha256WithRSAEncryption
         59:5e:9e:2c:85:a2:61:ba:9a:69:10:f7:c6:ee:49:5e:fe:2a:
         9a:8f:f4:f5:c5:cd:f4:91:5b:12:cd:64:73:b4:86:d0:c4:5c:
         36:7e:79:d7:99:99:3e:ed:69:99:94:61:71:d5:d7:62:92:41:
         c5:bd:bf:73:89:3f:48:c0:01:b4:80:ea:ec:0c:bc:f2:6c:98:
         cf:ab:73:36:a8:b4:14:8d:0b:dd:be:f3:ab:b5:51:32:7e:78:
         95:ed:32:f6:4f:72:58:a7:aa:4e:85:ca:b3:96:91:6e:51:1e:
         a8:61:46:f5:4c:54:4b:50:37:67:49:7c:05:48:61:82:71:27:
         fc:2d:19:17:26:29:c1:b1:1f:8f:97:94:90:9f:85:f8:a6:b8:
         18:cb:0f:12:83:ca:6a:fc:99:e4:dd:16:0a:09:80:31:17:5d:
         33:cd:0b:93:a7:d1:45:20:af:64:c5:71:17:32:65:65:03:e9:
         e3:f2:5a:11:0b:16:1a:12:75:59:4c:95:26:a6:22:7d:b6:81:
         8d:f7:98:37:aa:19:71:70:c1:bd:40:19:50:f0:4d:fe:96:89:
         f4:3a:fc:5a:42:24:72:84:24:d9:13:42:aa:a5:65:f6:1a:57:
         7f:81:22:77:7f:7e:bd:d4:04:5c:9f:3b:52:a7:1a:b3:c1:c3:
         a9:41:1e:b8:e7:05:c1:d0:c5:d6:eb:59:5d:d1:97:8d:de:59:
         47:dc:ec:35:2d:7e:ce:ca:4a:5a:54:e7:9b:9c:2a:26:38:79:
         64:cb:87:ca:46:53:a6:3e:9f:3a:26:34:fa:49:7f:99:ad:ea:
         43:0f:2f:40:bf:1c:50:58:bf:12:ef:b9:4e:5a:6a:a7:fd:1b:
         1e:b4:d4:38:fd:e3:61:13:61:fb:9a:6a:ec:11:7d:05:2c:ec:
         a1:7f:02:17:48:cd:c5:92:7c:f9:87:8d:68:8c:ab:52:ca:fa:
         b8:66:38:aa:2a:68:2a:9b:84:33:83:66:e2:ef:18:14:11:1c:
         ef:1e:35:1a:47:ed:df:f3:5c:2c:51:ba:a4:a9:bb:b5:38:12:
         4f:d1:45:37:6d:92:cd:3d:97:96:b9:6d:53:3c:15:ee:54:c6:
         90:4e:88:95:29:10:9b:97:4f:d1:6d:7f:de:dd:70:88:78:12:
         6f:d2:99:94:95:e8:3a:f8:d7:0a:4a:70:ae:63:06:32:40:ab:
         d1:d9:cb:a1:9f:96:e0:46:4a:3d:73:46:b5:da:34:bc:b8:ae:
         af:af:c1:79:2c:3e:d8:15:e1:5b:26:55:a6:70:6f:ba:8f:49:
         ae:e5:f8:59:39:e7:c2:69:ff:35:cb:c4:a1:c1:de:ba:e2:7b:
         d6:29:69:9c:dd:90:f4:2a
-----BEGIN CERTIFICATE-----
MIIGrTCCBJWgAwIBAgICLfowDQYJKoZIhvcNAQELBQAwgawxCzAJBgNVBAYTAlVT
MQswCQYDVQQIEwJPSDERMA8GA1UEBxMIQ29sdW1idXMxEjAQBgNVBAoTCVZpa2lu
Z1ZQTjEdMBsGA1UECxMUTXlPcmdhbml6YXRpb25hbFVuaXQxFTATBgNVBAMTDFZp
a2luZ1ZQTiBDQTEQMA4GA1UEKRMHRWFzeVJTQTEhMB8GCSqGSIb3DQEJARYSbWVA
bXlob3N0Lm15ZG9tYWluMB4XDTE3MDkwMzE2MTQzOVoXDTI3MDkwMTE2MTQzOVow
HzEdMBsGA1UEAxMUQ2xpZW50MzA3NkNlcnRlOWNlMGMwggIiMA0GCSqGSIb3DQEB
AQUAA4ICDwAwggIKAoICAQDeDIrH3PeUExB8OP/nrtfM+MhiODBhLpb4PGjT5Jk4
NTV6xC8amTG/x+I5GoUq+8h2otAS4X5/Hd6NJ37bln4n8CwO1EjEemgZfn+6DMyX
Ze0HJd++RbDSybDAxa4Zx4QlnqKdASpunWx3v/8QJDTIhiw0l6m0xkYBovLzuy+J
1azmK837y33iXNtfgtXb+Ycnkq6Vn1FQzt0+xopgb7UxO3NGR5MbeGOWB7HVJNo3
Jk7wNi9m5JN2imOIcpAqnzFyMYaaafdN7U+Yh14wRzOsGgNCbxIGk/znAsF2O5o4
VzSu0yf6Gi5Ur7QTCcOmtkrtI8y9HZVtwKS6gfTVWMB5Lfk3sWDgsCl13NuEnGpi
Xx3zNamSZAYpICaezfGxBVnQJPwzSkd8uleIx934cVpq7W3CqtGodcFEaKl7lt2c
hxGGhe+DwGdzai30QzdWCaHV83xbUSHtvgoVkb4msiP15kiutZR83WpyCVc5/GLA
mHZP2AyXsWW6UZvjszEO75pL7X+xnfzZtC2SWIhlsOJThSsM0DDuhgWM1ob1TgiF
+9MQ9GTPRjAk9u9h8wHvx74HzdB/o/r7Q8d1bW8TdZ1ON4YpwjeW0sy8oqT05pCT
pOBZBOv/4LHq+oiObBERAqf6SpGQjp4EllbDKkcEk+oiBsucIl+jO1f9s6Cj78rN
mwIDAQABo4IBYzCCAV8wCQYDVR0TBAIwADAtBglghkgBhvhCAQ0EIBYeRWFzeS1S
U0EgR2VuZXJhdGVkIENlcnRpZmljYXRlMB0GA1UdDgQWBBSkT4u3s8lj+2JXgRms
WXkGXu0N2jCB4QYDVR0jBIHZMIHWgBQSzWAE0qCAnnDtxpm4eyzGUv0ZoaGBsqSB
rzCBrDELMAkGA1UEBhMCVVMxCzAJBgNVBAgTAk9IMREwDwYDVQQHEwhDb2x1bWJ1
czESMBAGA1UEChMJVmlraW5nVlBOMR0wGwYDVQQLExRNeU9yZ2FuaXphdGlvbmFs
VW5pdDEVMBMGA1UEAxMMVmlraW5nVlBOIENBMRAwDgYDVQQpEwdFYXN5UlNBMSEw
HwYJKoZIhvcNAQkBFhJtZUBteWhvc3QubXlkb21haW6CCQDPNYXugL8qPjATBgNV
HSUEDDAKBggrBgEFBQcDAjALBgNVHQ8EBAMCB4AwDQYJKoZIhvcNAQELBQADggIB
AFleniyFomG6mmkQ98buSV7+KpqP9PXFzfSRWxLNZHO0htDEXDZ+edeZmT7taZmU
YXHV12KSQcW9v3OJP0jAAbSA6uwMvPJsmM+rczaotBSNC92+86u1UTJ+eJXtMvZP
clinqk6FyrOWkW5RHqhhRvVMVEtQN2dJfAVIYYJxJ/wtGRcmKcGxH4+XlJCfhfim
uBjLDxKDymr8meTdFgoJgDEXXTPNC5On0UUgr2TFcRcyZWUD6ePyWhELFhoSdVlM
lSamIn22gY33mDeqGXFwwb1AGVDwTf6WifQ6/FpCJHKEJNkTQqqlZfYaV3+BInd/
fr3UBFyfO1KnGrPBw6lBHrjnBcHQxdbrWV3Rl43eWUfc7DUtfs7KSlpU55ucKiY4
eWTLh8pGU6Y+nzomNPpJf5mt6kMPL0C/HFBYvxLvuU5aaqf9Gx601Dj942ETYfua
auwRfQUs7KF/AhdIzcWSfPmHjWiMq1LK+rhmOKoqaCqbhDODZuLvGBQRHO8eNRpH
7d/zXCxRuqSpu7U4Ek/RRTdtks09l5a5bVM8Fe5UxpBOiJUpEJuXT9Ftf97dcIh4
Em/SmZSV6Dr41wpKcK5jBjJAq9HZy6GfluBGSj1zRrXaNLy4rq+vwXksPtgV4Vsm
VaZwb7qPSa7l+Fk558Jp/zXLxKHB3rrie9YpaZzdkPQq
-----END CERTIFICATE-----
