Certificate:
    Data:
        Version: 3 (0x2)
        Serial Number: 11779 (0x2e03)
    Signature Algorithm: sha256WithRSAEncryption
        Issuer: C=US, ST=OH, L=Columbus, O=VikingVPN, OU=MyOrganizationalUnit, CN=VikingVPN CA/name=EasyRSA/emailAddress=me@myhost.mydomain
        Validity
            Not Before: Sep  4 06:00:42 2017 GMT
            Not After : Sep  2 06:00:42 2027 GMT
        Subject: CN=Client2988Certb2de6f
        Subject Public Key Info:
            Public Key Algorithm: rsaEncryption
                Public-Key: (4096 bit)
                Modulus:
                    00:b4:31:a1:ca:64:ba:70:4a:b5:d6:95:67:af:1b:
                    15:f4:4b:a6:7f:2f:ff:39:1b:63:d1:d7:1b:4e:01:
                    3a:89:01:32:ef:b7:5e:c4:23:86:f9:8a:bc:86:9d:
                    59:03:67:b7:d0:87:0e:f2:ff:52:36:b2:f0:8d:15:
                    dd:01:72:35:e0:ed:7c:0e:f7:98:72:6d:0e:0e:83:
                    73:9d:01:cc:c6:13:61:3c:44:0f:8f:cc:ca:0a:13:
                    5f:93:b6:8b:16:99:c2:d9:47:cc:b8:67:33:a3:38:
                    5e:a9:45:2e:03:1c:7e:9d:19:1e:5e:c1:e4:b2:bb:
                    3a:ac:dd:5a:9b:96:c4:d3:57:d7:72:89:09:6d:9e:
                    c8:64:23:b5:04:20:92:08:dc:b0:58:35:35:6e:ad:
                    55:27:69:33:f7:40:c7:b7:7b:b7:5b:d8:64:52:dc:
                    41:0e:ca:6b:c7:bb:91:7c:35:6f:a3:6c:d8:a8:89:
                    2e:54:63:6e:fc:bf:ea:5a:60:65:ba:e6:06:e3:35:
                    91:10:5f:94:81:26:e3:34:14:83:2e:b9:ee:d2:2a:
                    eb:7e:73:82:09:e7:92:53:55:e6:97:8c:91:4b:2f:
                    97:e5:78:d6:2e:31:29:ca:5a:29:c4:e3:9e:46:db:
                    24:4e:04:99:b5:00:ca:33:85:1e:28:24:62:e7:25:
                    62:90:6d:bf:ce:4e:b2:9f:8f:f9:80:a7:58:68:e1:
                    9d:f7:36:6b:cc:02:75:35:9e:1b:b6:83:bc:33:ee:
                    f4:7c:11:c8:ec:a0:55:07:72:3b:0f:49:1f:b1:9e:
                    aa:8e:a5:a4:41:37:f6:46:2e:07:7f:a0:2f:58:ed:
                    4a:4e:3a:20:56:a6:a6:9d:1a:7e:03:09:0f:d5:48:
                    bc:3b:51:08:08:07:72:e8:63:cd:20:09:45:70:d7:
                    68:05:5a:27:8c:a0:47:c2:31:70:b6:ef:0e:39:98:
                    a7:6a:bf:42:92:de:a7:98:c0:b6:31:4e:29:49:63:
                    03:2f:5c:b5:5d:ea:8d:91:64:dc:ac:d9:85:2c:f4:
                    bd:80:1a:f1:2d:de:7c:b9:b2:1c:4d:b9:55:c0:c1:
                    a8:93:27:55:6c:6f:74:0b:2f:b8:a5:23:b4:b2:69:
                    0b:97:58:96:4d:6c:e5:7b:b6:f2:eb:db:6c:ec:05:
                    6c:2e:4b:af:98:0d:70:21:ec:d0:66:a8:c1:fa:9a:
                    45:14:b4:5a:bd:3d:15:fe:3e:d9:d4:0f:27:15:d8:
                    bb:23:15:4d:35:fb:11:15:30:92:b2:7c:ba:13:78:
                    b9:4d:af:0c:a0:51:bc:11:af:22:79:50:e1:8b:8b:
                    b2:67:a7:54:90:4b:a2:1e:67:1b:de:c7:77:a1:ba:
                    f9:9a:45
                Exponent: 65537 (0x10001)
        X509v3 extensions:
            X509v3 Basic Constraints: 
                CA:FALSE
            Netscape Comment: 
                Easy-RSA Generated Certificate
            X509v3 Subject Key Identifier: 
                50:F1:F8:E5:9D:90:7B:47:72:C5:01:C2:A6:EF:C1:66:85:46:5C:DD
            X509v3 Authority Key Identifier: 
                keyid:12:CD:60:04:D2:A0:80:9E:70:ED:C6:99:B8:7B:2C:C6:52:FD:19:A1
                DirName:/C=US/ST=OH/L=Columbus/O=VikingVPN/OU=MyOrganizationalUnit/CN=VikingVPN CA/name=EasyRSA/emailAddress=me@myhost.mydomain
                serial:CF:35:85:EE:80:BF:2A:3E

            X509v3 Extended Key Usage: 
                TLS Web Client Authentication
            X509v3 Key Usage: 
                Digital Signature
    Signature Algorithm: sha256WithRSAEncryption
         ea:ab:0d:d1:77:63:d1:70:91:f7:b1:c2:fc:21:c2:a1:3e:a4:
         9e:c3:55:7b:1f:4b:99:59:86:b4:e0:2f:e7:ac:fc:0b:f0:bd:
         d5:a2:17:44:6c:06:b8:a3:12:ff:4c:56:6b:a9:d1:e9:fb:6f:
         66:e9:72:23:1d:3e:a9:23:17:14:be:a6:66:4b:9a:7c:76:94:
         a7:b0:8c:8c:32:f9:38:30:62:a8:25:78:16:f4:db:40:11:84:
         8a:54:d0:88:f6:f3:54:37:ce:07:9f:0f:43:c8:45:53:b7:af:
         c1:e8:31:0f:7a:92:12:02:1e:6b:e5:a8:a1:c0:71:ee:33:97:
         71:1f:fd:8d:d6:57:c3:bd:4b:9a:0d:60:23:07:e6:01:6e:05:
         e1:f1:05:77:2d:03:64:53:b0:96:68:98:db:d7:ef:43:11:a7:
         fc:50:bd:29:a5:d6:93:5c:f6:36:2b:83:5c:79:aa:de:ca:d6:
         38:67:c5:f0:53:06:69:c2:72:a8:1e:e1:c9:50:64:9d:8d:ff:
         5f:e7:cd:15:da:16:84:ff:62:b5:f9:a7:ec:d6:9f:fd:c1:e4:
         7d:c5:eb:16:16:43:02:92:84:7d:07:06:bf:38:97:40:b9:0f:
         7b:52:13:45:45:41:6b:c1:9f:d0:cf:71:ad:78:ff:39:d2:f4:
         60:d1:fc:c6:78:c0:56:60:25:03:0f:f5:aa:b7:c6:26:a4:14:
         fc:be:c1:f5:e0:fa:ee:ce:fb:aa:ca:76:56:58:66:02:29:4a:
         d3:bf:c6:c1:4b:43:be:9a:27:2e:36:37:7a:68:55:1e:7c:a5:
         fa:bc:81:4e:32:fe:93:c4:b5:57:c9:e7:a5:d9:48:8b:da:59:
         9d:30:3e:57:00:85:89:cf:6c:16:c4:95:8c:79:3a:19:01:a4:
         6e:e9:c7:f1:3b:c2:29:16:81:95:08:62:74:b5:30:a7:64:fe:
         e6:e5:9d:97:45:65:e7:47:a1:6e:2b:17:34:b6:d5:ca:2a:db:
         55:60:87:33:bf:96:80:47:94:c0:e9:50:dd:cb:03:44:0e:67:
         e3:fb:08:ef:50:41:ca:fa:65:fb:9b:4b:84:00:84:6f:de:e3:
         6a:1f:3d:cf:02:58:a5:d9:d3:e3:f6:6e:98:45:b5:22:51:b5:
         10:12:d9:bb:3b:e3:93:48:40:f2:65:23:c3:a6:a9:55:a8:95:
         30:89:58:64:6d:ef:f1:41:54:89:83:61:22:b0:d6:ab:d2:a0:
         75:d2:65:15:df:4a:63:99:ea:c9:2b:9a:1c:16:4a:dc:6b:cc:
         c5:f0:dd:92:92:63:51:81:72:e5:d6:a9:09:78:06:b2:92:89:
         1e:6b:e1:15:82:aa:6e:a3
-----BEGIN CERTIFICATE-----
MIIGrTCCBJWgAwIBAgICLgMwDQYJKoZIhvcNAQELBQAwgawxCzAJBgNVBAYTAlVT
MQswCQYDVQQIEwJPSDERMA8GA1UEBxMIQ29sdW1idXMxEjAQBgNVBAoTCVZpa2lu
Z1ZQTjEdMBsGA1UECxMUTXlPcmdhbml6YXRpb25hbFVuaXQxFTATBgNVBAMTDFZp
a2luZ1ZQTiBDQTEQMA4GA1UEKRMHRWFzeVJTQTEhMB8GCSqGSIb3DQEJARYSbWVA
bXlob3N0Lm15ZG9tYWluMB4XDTE3MDkwNDA2MDA0MloXDTI3MDkwMjA2MDA0Mlow
HzEdMBsGA1UEAxMUQ2xpZW50Mjk4OENlcnRiMmRlNmYwggIiMA0GCSqGSIb3DQEB
AQUAA4ICDwAwggIKAoICAQC0MaHKZLpwSrXWlWevGxX0S6Z/L/85G2PR1xtOATqJ
ATLvt17EI4b5iryGnVkDZ7fQhw7y/1I2svCNFd0BcjXg7XwO95hybQ4Og3OdAczG
E2E8RA+PzMoKE1+TtosWmcLZR8y4ZzOjOF6pRS4DHH6dGR5eweSyuzqs3VqblsTT
V9dyiQltnshkI7UEIJII3LBYNTVurVUnaTP3QMe3e7db2GRS3EEOymvHu5F8NW+j
bNioiS5UY278v+paYGW65gbjNZEQX5SBJuM0FIMuue7SKut+c4IJ55JTVeaXjJFL
L5fleNYuMSnKWinE455G2yROBJm1AMozhR4oJGLnJWKQbb/OTrKfj/mAp1ho4Z33
NmvMAnU1nhu2g7wz7vR8EcjsoFUHcjsPSR+xnqqOpaRBN/ZGLgd/oC9Y7UpOOiBW
pqadGn4DCQ/VSLw7UQgIB3LoY80gCUVw12gFWieMoEfCMXC27w45mKdqv0KS3qeY
wLYxTilJYwMvXLVd6o2RZNys2YUs9L2AGvEt3ny5shxNuVXAwaiTJ1Vsb3QLL7il
I7SyaQuXWJZNbOV7tvLr22zsBWwuS6+YDXAh7NBmqMH6mkUUtFq9PRX+PtnUDycV
2LsjFU01+xEVMJKyfLoTeLlNrwygUbwRryJ5UOGLi7Jnp1SQS6IeZxvex3ehuvma
RQIDAQABo4IBYzCCAV8wCQYDVR0TBAIwADAtBglghkgBhvhCAQ0EIBYeRWFzeS1S
U0EgR2VuZXJhdGVkIENlcnRpZmljYXRlMB0GA1UdDgQWBBRQ8fjlnZB7R3LFAcKm
78FmhUZc3TCB4QYDVR0jBIHZMIHWgBQSzWAE0qCAnnDtxpm4eyzGUv0ZoaGBsqSB
rzCBrDELMAkGA1UEBhMCVVMxCzAJBgNVBAgTAk9IMREwDwYDVQQHEwhDb2x1bWJ1
czESMBAGA1UEChMJVmlraW5nVlBOMR0wGwYDVQQLExRNeU9yZ2FuaXphdGlvbmFs
VW5pdDEVMBMGA1UEAxMMVmlraW5nVlBOIENBMRAwDgYDVQQpEwdFYXN5UlNBMSEw
HwYJKoZIhvcNAQkBFhJtZUBteWhvc3QubXlkb21haW6CCQDPNYXugL8qPjATBgNV
HSUEDDAKBggrBgEFBQcDAjALBgNVHQ8EBAMCB4AwDQYJKoZIhvcNAQELBQADggIB
AOqrDdF3Y9FwkfexwvwhwqE+pJ7DVXsfS5lZhrTgL+es/AvwvdWiF0RsBrijEv9M
Vmup0en7b2bpciMdPqkjFxS+pmZLmnx2lKewjIwy+TgwYqgleBb020ARhIpU0Ij2
81Q3zgefD0PIRVO3r8HoMQ96khICHmvlqKHAce4zl3Ef/Y3WV8O9S5oNYCMH5gFu
BeHxBXctA2RTsJZomNvX70MRp/xQvSml1pNc9jYrg1x5qt7K1jhnxfBTBmnCcqge
4clQZJ2N/1/nzRXaFoT/YrX5p+zWn/3B5H3F6xYWQwKShH0HBr84l0C5D3tSE0VF
QWvBn9DPca14/znS9GDR/MZ4wFZgJQMP9aq3xiakFPy+wfXg+u7O+6rKdlZYZgIp
StO/xsFLQ76aJy42N3poVR58pfq8gU4y/pPEtVfJ56XZSIvaWZ0wPlcAhYnPbBbE
lYx5OhkBpG7px/E7wikWgZUIYnS1MKdk/ublnZdFZedHoW4rFzS21coq21VghzO/
loBHlMDpUN3LA0QOZ+P7CO9QQcr6ZfubS4QAhG/e42ofPc8CWKXZ0+P2bphFtSJR
tRAS2bs745NIQPJlI8OmqVWolTCJWGRt7/FBVImDYSKw1qvSoHXSZRXfSmOZ6skr
mhwWStxrzMXw3ZKSY1GBcuXWqQl4BrKSiR5r4RWCqm6j
-----END CERTIFICATE-----
