Certificate:
    Data:
        Version: 3 (0x2)
        Serial Number: 11785 (0x2e09)
    Signature Algorithm: sha256WithRSAEncryption
        Issuer: C=US, ST=OH, L=Columbus, O=VikingVPN, OU=MyOrganizationalUnit, CN=VikingVPN CA/name=EasyRSA/emailAddress=me@myhost.mydomain
        Validity
            Not Before: Sep  5 11:09:46 2017 GMT
            Not After : Sep  3 11:09:46 2027 GMT
        Subject: CN=Client2476Cert6980a5
        Subject Public Key Info:
            Public Key Algorithm: rsaEncryption
                Public-Key: (4096 bit)
                Modulus:
                    00:d9:0f:a8:ba:fe:8e:9a:75:a9:bd:28:b9:92:82:
                    c0:43:0f:50:57:28:3d:6b:fe:f8:0b:e1:aa:a0:de:
                    0f:63:bf:ff:f2:8f:fb:33:3e:4f:7c:58:32:9d:1f:
                    bb:5e:d2:cc:c9:b9:5e:bb:53:02:47:66:04:48:d1:
                    5b:cf:66:95:d3:c6:53:7d:a6:8c:40:88:29:c3:ae:
                    ec:34:26:d1:17:66:83:1a:7b:4e:95:5c:92:9e:ec:
                    15:6c:2c:6e:41:f9:16:01:b7:0b:e5:b7:31:c2:65:
                    ad:f7:44:6f:5f:f5:65:1b:f5:ca:a7:39:0c:31:c0:
                    d6:94:76:ed:5c:3d:49:08:ac:d5:d1:8c:f9:d8:7d:
                    66:5b:33:3a:83:c6:d8:d2:52:0d:2e:23:b3:fc:c7:
                    c8:39:32:70:d4:7f:54:34:b1:0d:81:fe:9f:06:74:
                    a5:62:44:29:4e:a3:9e:17:db:fa:9d:93:5b:72:dd:
                    00:f5:6e:4b:b9:23:2a:3e:7e:80:a8:18:1e:ee:11:
                    65:e4:5a:6e:a3:81:09:6f:83:bb:7f:36:dc:ea:be:
                    35:3d:91:d0:f9:a4:f4:28:75:aa:07:e8:56:e7:e6:
                    e9:56:50:27:99:87:e8:31:c2:12:b6:ee:46:a7:97:
                    9b:b7:b4:24:ff:4a:93:01:59:c8:78:e6:69:a1:cb:
                    30:64:1c:aa:f1:2f:6c:8d:ca:c7:fe:c1:d4:50:78:
                    02:1e:8a:23:a0:22:c9:d0:d5:99:98:d9:19:0e:0b:
                    98:16:91:89:64:28:db:60:f8:c1:f6:96:84:55:b8:
                    a2:c0:b5:0f:74:03:5f:d3:ad:8c:ae:15:54:42:d7:
                    34:6b:51:c1:d1:46:1a:a6:0f:1c:6a:e2:a6:d4:5a:
                    d2:ba:06:02:f4:b2:9e:c0:ef:a5:f3:6a:a4:9a:09:
                    94:82:73:c5:fc:20:ba:c5:95:d9:8e:3e:f8:8c:bc:
                    7a:c6:6a:49:31:12:73:c0:5d:fb:3f:73:30:21:55:
                    d6:2f:72:47:02:13:35:f8:b5:ed:65:b7:09:f2:17:
                    8e:2a:ed:e3:f6:8f:ca:a2:dd:76:b0:d3:a9:ad:e8:
                    14:78:da:4f:a9:5b:c9:8f:e1:99:70:18:fa:0c:e6:
                    9d:72:b0:6d:2d:07:75:e7:e1:4b:ed:19:84:84:c7:
                    a6:14:5a:12:a7:71:5a:6d:56:62:34:d9:9c:a8:75:
                    21:a9:aa:09:59:7e:1a:15:4c:00:73:40:29:fa:85:
                    93:83:83:bb:ae:62:c3:49:39:ba:d0:69:1d:e2:19:
                    26:b6:df:f6:be:d7:3d:8a:16:3e:85:40:e1:49:2c:
                    36:57:99:ec:fe:58:80:f4:64:ea:39:27:29:78:58:
                    03:d6:75
                Exponent: 65537 (0x10001)
        X509v3 extensions:
            X509v3 Basic Constraints: 
                CA:FALSE
            Netscape Comment: 
                Easy-RSA Generated Certificate
            X509v3 Subject Key Identifier: 
                FF:07:6C:B5:9E:6B:E2:D3:6E:1A:66:A3:CD:A0:46:66:F4:78:6B:35
            X509v3 Authority Key Identifier: 
                keyid:12:CD:60:04:D2:A0:80:9E:70:ED:C6:99:B8:7B:2C:C6:52:FD:19:A1
                DirName:/C=US/ST=OH/L=Columbus/O=VikingVPN/OU=MyOrganizationalUnit/CN=VikingVPN CA/name=EasyRSA/emailAddress=me@myhost.mydomain
                serial:CF:35:85:EE:80:BF:2A:3E

            X509v3 Extended Key Usage: 
                TLS Web Client Authentication
            X509v3 Key Usage: 
                Digital Signature
    Signature Algorithm: sha256WithRSAEncryption
         23:3c:e6:b4:58:84:b1:2c:f4:0f:2d:dc:15:49:93:67:74:00:
         40:ec:1c:65:45:83:39:c4:c0:72:1e:b7:a5:27:69:57:ec:0f:
         5b:3e:33:90:cb:53:f2:6b:1c:bc:ae:9a:1a:89:64:94:ac:50:
         bf:1a:d4:c9:63:f0:47:4f:a5:a7:99:e2:2e:bc:e8:ea:99:e8:
         9f:be:86:3f:4c:1b:f6:53:3c:0e:57:1f:04:b6:ee:01:87:2f:
         dc:3d:f0:71:e8:b1:1a:67:2d:5c:06:11:4f:1b:c5:d7:2b:b6:
         f0:b6:8a:15:65:ef:47:08:75:29:74:37:fc:08:a6:ad:09:4d:
         f3:b6:d0:a0:84:e8:1a:b3:f5:6e:04:6c:63:3a:46:b7:f0:8c:
         67:49:6e:98:51:94:ac:75:85:62:81:37:6a:6f:c0:46:7f:2c:
         1c:19:e3:76:81:63:d4:f3:06:06:9d:fd:ef:c8:84:28:f9:d4:
         00:f0:12:e9:5b:03:74:0c:92:63:26:71:04:cd:59:b3:df:ca:
         c6:95:31:53:b4:82:99:87:ca:55:70:b3:af:a7:f8:f6:51:0e:
         32:e2:b4:24:3e:85:59:41:14:06:c0:b7:c4:b3:01:02:e4:3c:
         9b:b3:f2:cd:e5:1a:b4:ec:91:c9:d9:ae:1e:0f:4f:27:47:cc:
         26:08:86:a4:f7:98:29:77:3f:83:97:19:de:01:c8:0f:3d:ae:
         b1:b0:0e:45:a2:81:86:9a:89:87:fc:76:c7:02:68:44:ce:2b:
         44:e4:14:e8:cb:72:ae:07:2d:8c:54:c1:54:23:6f:7f:a4:59:
         1c:f5:1e:d9:81:ae:19:18:21:40:c8:9c:34:34:0a:d7:82:52:
         25:d4:bf:ba:e4:6d:d4:81:43:12:a1:b3:cc:e3:12:c5:b1:a9:
         a1:7e:27:b0:b7:59:e5:b3:63:47:20:a2:0a:84:17:f1:96:5c:
         5d:80:43:a2:69:b6:c1:fb:6b:31:9a:4a:05:6f:4b:19:27:c8:
         bf:11:93:28:bc:30:37:03:ca:94:be:66:29:24:e8:e2:52:58:
         b7:89:a6:71:1b:22:5c:3d:94:d5:2d:01:00:d4:d7:61:f3:da:
         23:41:b6:c2:82:8d:66:45:c5:5c:39:62:d2:34:99:22:72:f2:
         95:55:bf:b5:0b:53:a5:11:14:01:a2:7e:e5:44:13:c8:5d:8e:
         74:90:72:66:05:fe:c1:1d:f2:51:14:0d:cb:fa:1d:53:5a:ba:
         a5:0e:99:fd:08:10:c0:26:27:d5:28:3c:e8:86:4f:b6:a0:fc:
         05:13:67:c6:06:c9:f0:9d:97:c1:28:91:d9:fc:98:cb:62:3c:
         fb:ab:14:b0:f9:0e:4e:1f
-----BEGIN CERTIFICATE-----
MIIGrTCCBJWgAwIBAgICLgkwDQYJKoZIhvcNAQELBQAwgawxCzAJBgNVBAYTAlVT
MQswCQYDVQQIEwJPSDERMA8GA1UEBxMIQ29sdW1idXMxEjAQBgNVBAoTCVZpa2lu
Z1ZQTjEdMBsGA1UECxMUTXlPcmdhbml6YXRpb25hbFVuaXQxFTATBgNVBAMTDFZp
a2luZ1ZQTiBDQTEQMA4GA1UEKRMHRWFzeVJTQTEhMB8GCSqGSIb3DQEJARYSbWVA
bXlob3N0Lm15ZG9tYWluMB4XDTE3MDkwNTExMDk0NloXDTI3MDkwMzExMDk0Nlow
HzEdMBsGA1UEAxMUQ2xpZW50MjQ3NkNlcnQ2OTgwYTUwggIiMA0GCSqGSIb3DQEB
AQUAA4ICDwAwggIKAoICAQDZD6i6/o6adam9KLmSgsBDD1BXKD1r/vgL4aqg3g9j
v//yj/szPk98WDKdH7te0szJuV67UwJHZgRI0VvPZpXTxlN9poxAiCnDruw0JtEX
ZoMae06VXJKe7BVsLG5B+RYBtwvltzHCZa33RG9f9WUb9cqnOQwxwNaUdu1cPUkI
rNXRjPnYfWZbMzqDxtjSUg0uI7P8x8g5MnDUf1Q0sQ2B/p8GdKViRClOo54X2/qd
k1ty3QD1bku5Iyo+foCoGB7uEWXkWm6jgQlvg7t/NtzqvjU9kdD5pPQodaoH6Fbn
5ulWUCeZh+gxwhK27kanl5u3tCT/SpMBWch45mmhyzBkHKrxL2yNysf+wdRQeAIe
iiOgIsnQ1ZmY2RkOC5gWkYlkKNtg+MH2loRVuKLAtQ90A1/TrYyuFVRC1zRrUcHR
RhqmDxxq4qbUWtK6BgL0sp7A76XzaqSaCZSCc8X8ILrFldmOPviMvHrGakkxEnPA
Xfs/czAhVdYvckcCEzX4te1ltwnyF44q7eP2j8qi3Xaw06mt6BR42k+pW8mP4Zlw
GPoM5p1ysG0tB3Xn4UvtGYSEx6YUWhKncVptVmI02ZyodSGpqglZfhoVTABzQCn6
hZODg7uuYsNJObrQaR3iGSa23/a+1z2KFj6FQOFJLDZXmez+WID0ZOo5Jyl4WAPW
dQIDAQABo4IBYzCCAV8wCQYDVR0TBAIwADAtBglghkgBhvhCAQ0EIBYeRWFzeS1S
U0EgR2VuZXJhdGVkIENlcnRpZmljYXRlMB0GA1UdDgQWBBT/B2y1nmvi024aZqPN
oEZm9HhrNTCB4QYDVR0jBIHZMIHWgBQSzWAE0qCAnnDtxpm4eyzGUv0ZoaGBsqSB
rzCBrDELMAkGA1UEBhMCVVMxCzAJBgNVBAgTAk9IMREwDwYDVQQHEwhDb2x1bWJ1
czESMBAGA1UEChMJVmlraW5nVlBOMR0wGwYDVQQLExRNeU9yZ2FuaXphdGlvbmFs
VW5pdDEVMBMGA1UEAxMMVmlraW5nVlBOIENBMRAwDgYDVQQpEwdFYXN5UlNBMSEw
HwYJKoZIhvcNAQkBFhJtZUBteWhvc3QubXlkb21haW6CCQDPNYXugL8qPjATBgNV
HSUEDDAKBggrBgEFBQcDAjALBgNVHQ8EBAMCB4AwDQYJKoZIhvcNAQELBQADggIB
ACM85rRYhLEs9A8t3BVJk2d0AEDsHGVFgznEwHIet6UnaVfsD1s+M5DLU/JrHLyu
mhqJZJSsUL8a1Mlj8EdPpaeZ4i686OqZ6J++hj9MG/ZTPA5XHwS27gGHL9w98HHo
sRpnLVwGEU8bxdcrtvC2ihVl70cIdSl0N/wIpq0JTfO20KCE6Bqz9W4EbGM6Rrfw
jGdJbphRlKx1hWKBN2pvwEZ/LBwZ43aBY9TzBgad/e/IhCj51ADwEulbA3QMkmMm
cQTNWbPfysaVMVO0gpmHylVws6+n+PZRDjLitCQ+hVlBFAbAt8SzAQLkPJuz8s3l
GrTskcnZrh4PTydHzCYIhqT3mCl3P4OXGd4ByA89rrGwDkWigYaaiYf8dscCaETO
K0TkFOjLcq4HLYxUwVQjb3+kWRz1HtmBrhkYIUDInDQ0CteCUiXUv7rkbdSBQxKh
s8zjEsWxqaF+J7C3WeWzY0cgogqEF/GWXF2AQ6JptsH7azGaSgVvSxknyL8Rkyi8
MDcDypS+Zikk6OJSWLeJpnEbIlw9lNUtAQDU12Hz2iNBtsKCjWZFxVw5YtI0mSJy
8pVVv7ULU6URFAGifuVEE8hdjnSQcmYF/sEd8lEUDcv6HVNauqUOmf0IEMAmJ9Uo
POiGT7ag/AUTZ8YGyfCdl8Eokdn8mMtiPPurFLD5Dk4f
-----END CERTIFICATE-----
