Certificate:
    Data:
        Version: 3 (0x2)
        Serial Number: 11816 (0x2e28)
    Signature Algorithm: sha256WithRSAEncryption
        Issuer: C=US, ST=OH, L=Columbus, O=VikingVPN, OU=MyOrganizationalUnit, CN=VikingVPN CA/name=EasyRSA/emailAddress=me@myhost.mydomain
        Validity
            Not Before: Sep 10 02:19:49 2017 GMT
            Not After : Sep  8 02:19:49 2027 GMT
        Subject: CN=Client1027Cert6b29b4
        Subject Public Key Info:
            Public Key Algorithm: rsaEncryption
                Public-Key: (4096 bit)
                Modulus:
                    00:c1:ee:e9:be:a5:27:14:19:99:20:cb:02:d0:ea:
                    0d:66:2b:36:6c:c1:52:a4:30:ba:26:b1:be:79:c3:
                    a6:6c:f1:0f:80:e0:42:56:05:0d:ce:5c:32:34:68:
                    63:63:92:84:c8:b2:b2:65:4e:00:d2:6f:b3:2a:5d:
                    91:3e:b4:e0:1f:40:53:ec:9a:57:ae:2d:8d:76:f6:
                    c2:f5:2f:19:31:91:c8:29:13:ea:6e:22:c7:2e:9a:
                    ef:3b:36:62:8b:b0:b2:0d:e0:f9:49:2d:38:39:e5:
                    2a:52:03:43:7f:54:00:cd:c7:b2:1f:35:8e:9b:24:
                    a2:8d:ca:60:87:5a:a4:62:b1:33:28:05:87:b7:92:
                    e2:33:4f:44:6a:64:a5:57:9c:8f:b3:b5:2a:7c:12:
                    42:09:ae:04:0d:17:08:a1:8e:c5:9b:2f:7b:55:ca:
                    e6:f9:fb:6c:5d:93:05:35:f3:56:4c:ed:0e:1f:f2:
                    18:b2:5c:7f:b4:8f:03:be:9e:e7:f6:03:7c:22:c8:
                    22:44:e4:83:ce:26:83:94:f0:c4:ca:0e:f0:6f:96:
                    12:9b:4d:d1:33:6a:0b:b8:4e:c7:3c:c4:1a:07:cf:
                    72:65:e6:94:43:1a:fe:a2:9b:14:69:25:bb:06:09:
                    a2:bf:b0:26:85:0c:1d:fc:e3:ff:bc:48:1b:d3:93:
                    b7:3f:99:b3:c3:35:58:e6:56:45:4c:cb:4a:c0:3f:
                    8a:8d:af:ff:f0:82:56:c1:90:95:fd:8a:f8:27:b1:
                    b1:28:57:2e:cc:b1:40:f9:24:eb:fe:09:8a:81:ab:
                    19:da:52:5f:a8:fb:f8:d2:21:03:a1:7c:7a:ac:f0:
                    bc:78:e9:fc:6b:40:3e:98:7e:55:70:71:66:a6:2c:
                    c8:c3:24:cd:4e:4a:3c:1d:f4:6d:e6:cd:9b:3e:b7:
                    6f:5f:fe:c0:86:b8:69:9b:1b:41:d7:5f:a7:3f:93:
                    9c:b7:1c:9d:78:03:24:34:59:ad:84:0e:eb:61:3d:
                    ee:ea:cb:32:7f:e6:0a:c2:0f:3f:9f:26:f2:fb:00:
                    be:eb:b6:81:23:17:bf:47:7e:91:e2:0e:f7:35:43:
                    d4:49:d2:a0:6b:27:8e:fb:6b:c3:29:b5:9b:b3:d4:
                    27:5b:47:e6:69:16:bf:26:a4:a7:25:15:a9:23:21:
                    9f:6d:5d:78:1c:e0:08:2e:0d:1c:b1:06:89:cb:3a:
                    12:82:81:05:cb:ff:d8:0e:68:bd:9e:b0:f4:92:4b:
                    10:21:ef:50:e0:26:64:5d:6b:5d:af:af:24:b7:3c:
                    07:f1:bf:a9:bd:15:5f:7f:21:1a:c6:81:e4:a3:40:
                    dc:8d:b6:cd:44:75:d0:8a:e9:26:29:c4:32:9f:79:
                    de:78:47
                Exponent: 65537 (0x10001)
        X509v3 extensions:
            X509v3 Basic Constraints: 
                CA:FALSE
            Netscape Comment: 
                Easy-RSA Generated Certificate
            X509v3 Subject Key Identifier: 
                87:33:F9:2D:71:34:41:3B:DD:16:2C:9D:04:6F:5E:98:FA:DE:25:75
            X509v3 Authority Key Identifier: 
                keyid:12:CD:60:04:D2:A0:80:9E:70:ED:C6:99:B8:7B:2C:C6:52:FD:19:A1
                DirName:/C=US/ST=OH/L=Columbus/O=VikingVPN/OU=MyOrganizationalUnit/CN=VikingVPN CA/name=EasyRSA/emailAddress=me@myhost.mydomain
                serial:CF:35:85:EE:80:BF:2A:3E

            X509v3 Extended Key Usage: 
                TLS Web Client Authentication
            X509v3 Key Usage: 
                Digital Signature
    Signature Algorithm: sha256WithRSAEncryption
         71:a7:aa:44:7a:72:68:b0:24:46:50:ef:20:65:43:81:ba:6e:
         ae:d0:bd:3d:1f:63:37:e2:33:93:1d:e5:19:5e:09:9f:fd:d5:
         f8:bb:21:04:b4:2e:fe:b0:29:2b:02:1c:b4:eb:f7:26:44:2c:
         f8:69:c6:7b:90:91:0d:64:0c:6a:1b:99:5c:c3:da:58:d5:b8:
         d5:c3:57:17:b5:98:74:24:a4:f4:90:5f:2e:4e:3e:41:3d:78:
         52:5b:b4:d4:30:60:94:27:a2:53:98:31:eb:71:c8:42:b8:31:
         9c:c2:e9:9b:bf:46:fa:ae:b3:79:db:1c:91:f1:37:a6:a7:3a:
         99:8f:87:18:e2:9c:41:0b:a3:2c:95:16:35:e6:66:9d:54:af:
         48:00:95:1b:00:0a:04:23:b0:fb:4f:eb:da:fc:2d:1e:5c:98:
         c1:b0:a2:21:fd:b8:2e:a6:67:e5:37:86:d0:de:11:b5:e4:7e:
         e5:ef:05:51:03:19:0e:fa:52:7c:a6:1a:10:4f:02:cf:9f:db:
         bd:cb:60:1d:93:ea:fb:0d:ed:c6:4f:b9:24:b1:8d:03:4f:20:
         ec:0d:9f:09:9c:df:5c:9d:06:35:92:43:c0:f9:22:eb:5f:c4:
         e7:db:ff:7f:21:71:19:f3:d9:7a:f5:11:1a:88:2f:fc:77:ac:
         78:9e:40:d5:67:99:fd:c6:15:27:9f:e2:65:c1:d1:b2:8f:0d:
         35:5d:08:31:68:6c:f3:a6:9f:51:0a:e0:29:38:67:1c:44:fa:
         d5:22:f5:0c:43:d1:3f:8e:74:4e:e7:39:14:bd:49:b5:cd:eb:
         aa:58:01:c9:e3:a7:c0:e5:96:8b:6c:a1:b9:be:00:d0:9e:d0:
         0f:f8:45:5e:96:f0:cb:d6:9f:f6:03:2c:e8:ca:0a:ae:76:7a:
         52:2d:4b:ad:3c:5b:54:15:15:ef:7d:b5:89:a2:4b:f4:1f:5f:
         81:cb:a3:08:ce:8e:ad:d7:18:c6:5d:91:7c:0e:9e:89:e5:18:
         12:ac:b9:41:2c:55:4c:54:53:8a:96:ac:a1:87:41:10:8a:89:
         f8:3d:5b:d5:3b:02:99:09:80:04:57:f8:98:f3:ed:17:b4:2b:
         77:90:13:63:6d:72:9a:db:0d:11:5e:80:35:1a:84:ab:f9:25:
         d8:5e:b7:bf:53:fb:7d:a0:aa:1a:88:f1:de:27:f9:ca:b9:54:
         ea:03:e7:cf:65:ff:58:78:a9:a6:da:14:4c:35:ab:84:86:e2:
         93:9d:a2:64:51:5e:4e:74:b0:32:35:28:68:f6:6c:59:66:9d:
         8b:5f:af:31:db:d8:01:a2:94:95:e3:02:5b:13:3b:c8:04:6f:
         1e:1b:6c:5d:6c:18:9c:58
-----BEGIN CERTIFICATE-----
MIIGrTCCBJWgAwIBAgICLigwDQYJKoZIhvcNAQELBQAwgawxCzAJBgNVBAYTAlVT
MQswCQYDVQQIEwJPSDERMA8GA1UEBxMIQ29sdW1idXMxEjAQBgNVBAoTCVZpa2lu
Z1ZQTjEdMBsGA1UECxMUTXlPcmdhbml6YXRpb25hbFVuaXQxFTATBgNVBAMTDFZp
a2luZ1ZQTiBDQTEQMA4GA1UEKRMHRWFzeVJTQTEhMB8GCSqGSIb3DQEJARYSbWVA
bXlob3N0Lm15ZG9tYWluMB4XDTE3MDkxMDAyMTk0OVoXDTI3MDkwODAyMTk0OVow
HzEdMBsGA1UEAxMUQ2xpZW50MTAyN0NlcnQ2YjI5YjQwggIiMA0GCSqGSIb3DQEB
AQUAA4ICDwAwggIKAoICAQDB7um+pScUGZkgywLQ6g1mKzZswVKkMLomsb55w6Zs
8Q+A4EJWBQ3OXDI0aGNjkoTIsrJlTgDSb7MqXZE+tOAfQFPsmleuLY129sL1Lxkx
kcgpE+puIscumu87NmKLsLIN4PlJLTg55SpSA0N/VADNx7IfNY6bJKKNymCHWqRi
sTMoBYe3kuIzT0RqZKVXnI+ztSp8EkIJrgQNFwihjsWbL3tVyub5+2xdkwU181ZM
7Q4f8hiyXH+0jwO+nuf2A3wiyCJE5IPOJoOU8MTKDvBvlhKbTdEzagu4Tsc8xBoH
z3Jl5pRDGv6imxRpJbsGCaK/sCaFDB384/+8SBvTk7c/mbPDNVjmVkVMy0rAP4qN
r//wglbBkJX9ivgnsbEoVy7MsUD5JOv+CYqBqxnaUl+o+/jSIQOhfHqs8Lx46fxr
QD6YflVwcWamLMjDJM1OSjwd9G3mzZs+t29f/sCGuGmbG0HXX6c/k5y3HJ14AyQ0
Wa2EDuthPe7qyzJ/5grCDz+fJvL7AL7rtoEjF79HfpHiDvc1Q9RJ0qBrJ477a8Mp
tZuz1CdbR+ZpFr8mpKclFakjIZ9tXXgc4AguDRyxBonLOhKCgQXL/9gOaL2esPSS
SxAh71DgJmRda12vryS3PAfxv6m9FV9/IRrGgeSjQNyNts1EddCK6SYpxDKfed54
RwIDAQABo4IBYzCCAV8wCQYDVR0TBAIwADAtBglghkgBhvhCAQ0EIBYeRWFzeS1S
U0EgR2VuZXJhdGVkIENlcnRpZmljYXRlMB0GA1UdDgQWBBSHM/ktcTRBO90WLJ0E
b16Y+t4ldTCB4QYDVR0jBIHZMIHWgBQSzWAE0qCAnnDtxpm4eyzGUv0ZoaGBsqSB
rzCBrDELMAkGA1UEBhMCVVMxCzAJBgNVBAgTAk9IMREwDwYDVQQHEwhDb2x1bWJ1
czESMBAGA1UEChMJVmlraW5nVlBOMR0wGwYDVQQLExRNeU9yZ2FuaXphdGlvbmFs
VW5pdDEVMBMGA1UEAxMMVmlraW5nVlBOIENBMRAwDgYDVQQpEwdFYXN5UlNBMSEw
HwYJKoZIhvcNAQkBFhJtZUBteWhvc3QubXlkb21haW6CCQDPNYXugL8qPjATBgNV
HSUEDDAKBggrBgEFBQcDAjALBgNVHQ8EBAMCB4AwDQYJKoZIhvcNAQELBQADggIB
AHGnqkR6cmiwJEZQ7yBlQ4G6bq7QvT0fYzfiM5Md5RleCZ/91fi7IQS0Lv6wKSsC
HLTr9yZELPhpxnuQkQ1kDGobmVzD2ljVuNXDVxe1mHQkpPSQXy5OPkE9eFJbtNQw
YJQnolOYMetxyEK4MZzC6Zu/Rvqus3nbHJHxN6anOpmPhxjinEELoyyVFjXmZp1U
r0gAlRsACgQjsPtP69r8LR5cmMGwoiH9uC6mZ+U3htDeEbXkfuXvBVEDGQ76Unym
GhBPAs+f273LYB2T6vsN7cZPuSSxjQNPIOwNnwmc31ydBjWSQ8D5IutfxOfb/38h
cRnz2Xr1ERqIL/x3rHieQNVnmf3GFSef4mXB0bKPDTVdCDFobPOmn1EK4Ck4ZxxE
+tUi9QxD0T+OdE7nORS9SbXN66pYAcnjp8Dllotsobm+ANCe0A/4RV6W8MvWn/YD
LOjKCq52elItS608W1QVFe99tYmiS/QfX4HLowjOjq3XGMZdkXwOnonlGBKsuUEs
VUxUU4qWrKGHQRCKifg9W9U7ApkJgARX+Jjz7Re0K3eQE2NtcprbDRFegDUahKv5
Jdhet79T+32gqhqI8d4n+cq5VOoD589l/1h4qabaFEw1q4SG4pOdomRRXk50sDI1
KGj2bFlmnYtfrzHb2AGilJXjAlsTO8gEbx4bbF1sGJxY
-----END CERTIFICATE-----
