Certificate:
    Data:
        Version: 3 (0x2)
        Serial Number: 11817 (0x2e29)
    Signature Algorithm: sha256WithRSAEncryption
        Issuer: C=US, ST=OH, L=Columbus, O=VikingVPN, OU=MyOrganizationalUnit, CN=VikingVPN CA/name=EasyRSA/emailAddress=me@myhost.mydomain
        Validity
            Not Before: Sep 10 04:48:35 2017 GMT
            Not After : Sep  8 04:48:35 2027 GMT
        Subject: CN=Client2488Cert719af9
        Subject Public Key Info:
            Public Key Algorithm: rsaEncryption
                Public-Key: (4096 bit)
                Modulus:
                    00:b9:3c:3a:3d:0d:00:f7:5a:55:85:cb:de:51:75:
                    c3:fc:19:cb:e4:91:a9:cf:1e:54:06:b5:62:51:32:
                    07:f0:1f:32:cb:df:f3:f4:7a:4a:9b:b9:82:a2:d5:
                    ab:22:c3:70:40:c1:6f:61:3f:40:6a:0e:8a:2a:b9:
                    b0:3f:1a:af:f4:81:29:d4:3c:34:f8:f4:d5:88:93:
                    e1:ef:36:8c:25:27:ec:5e:1b:d6:48:c3:25:63:44:
                    8c:53:54:c3:fa:2b:9b:11:c5:59:59:26:a5:8c:b9:
                    c8:59:fa:01:59:fb:25:b4:8d:3b:d4:a7:dd:5f:01:
                    7d:6a:91:d9:e3:59:60:02:c3:a0:da:72:8b:52:f0:
                    a8:dd:22:7d:e4:84:f7:b3:47:d4:a6:f2:a3:00:e0:
                    70:8e:55:40:b1:e7:b6:25:bd:43:2a:3b:00:2b:95:
                    ef:55:93:b1:cd:ce:96:1a:f1:f7:43:f3:cc:82:dc:
                    4b:f7:6a:e2:e7:98:ae:23:15:53:5d:91:31:fb:a5:
                    23:0a:1a:c3:b2:56:e9:7a:95:02:91:db:89:11:29:
                    64:7e:2e:3e:69:d3:dc:cd:88:a1:9b:d8:2a:2a:14:
                    f9:84:3a:9f:51:74:37:26:76:39:b7:dc:2c:0e:a8:
                    3d:53:3e:d1:c7:2b:5f:34:c5:9c:10:d7:0d:e1:50:
                    ca:50:1f:34:b8:19:5a:a3:86:c9:f6:4d:33:13:e6:
                    a1:79:32:99:e4:0e:b6:a0:8c:60:9f:c5:5b:3b:4f:
                    16:e5:f1:ff:0b:da:b7:65:1e:41:1c:32:7f:e7:11:
                    8b:97:60:ca:28:86:cb:10:0e:6b:38:5d:e0:3e:33:
                    45:4b:27:e9:d9:a5:3f:c4:8a:ab:2a:35:3b:9e:6b:
                    34:6c:08:de:27:3f:5c:37:20:a5:be:5b:23:9a:2e:
                    97:a8:5e:0d:ed:46:ab:e3:fe:e5:2d:a1:31:46:c8:
                    a9:a9:a8:59:7f:00:26:6a:85:5e:dc:33:95:c0:6d:
                    2f:0e:bf:0c:9f:6a:20:81:c2:37:e8:3a:f2:ad:c9:
                    1a:86:e0:27:cb:d5:01:da:03:9b:fe:3a:49:b7:bd:
                    8c:f9:dc:c0:e1:52:9d:2a:64:14:17:65:b5:a7:0a:
                    d3:29:e8:b6:58:00:fe:f9:ba:90:00:c1:13:e7:57:
                    14:a4:69:f6:d1:ec:cb:7c:d8:62:63:27:38:61:9d:
                    d8:fc:59:2f:5d:e8:7d:95:88:84:8c:a7:88:15:69:
                    88:af:7d:0d:04:8d:c1:d2:47:2f:51:fa:75:ca:fd:
                    e1:14:b0:a2:be:d9:be:59:37:18:2c:f6:4d:39:09:
                    3b:51:40:8a:32:05:28:b9:12:ec:6b:52:4d:01:9c:
                    3f:89:3b
                Exponent: 65537 (0x10001)
        X509v3 extensions:
            X509v3 Basic Constraints: 
                CA:FALSE
            Netscape Comment: 
                Easy-RSA Generated Certificate
            X509v3 Subject Key Identifier: 
                95:F0:A4:B9:CB:F4:82:45:32:AB:0E:7C:32:AF:40:DA:BF:4D:95:57
            X509v3 Authority Key Identifier: 
                keyid:12:CD:60:04:D2:A0:80:9E:70:ED:C6:99:B8:7B:2C:C6:52:FD:19:A1
                DirName:/C=US/ST=OH/L=Columbus/O=VikingVPN/OU=MyOrganizationalUnit/CN=VikingVPN CA/name=EasyRSA/emailAddress=me@myhost.mydomain
                serial:CF:35:85:EE:80:BF:2A:3E

            X509v3 Extended Key Usage: 
                TLS Web Client Authentication
            X509v3 Key Usage: 
                Digital Signature
    Signature Algorithm: sha256WithRSAEncryption
         c9:6e:c4:45:a4:73:e9:51:67:6e:cf:5e:40:cf:a3:3b:77:db:
         4d:6b:6d:e9:b4:81:27:a8:b5:a3:87:48:c3:34:b4:96:29:6c:
         b5:6c:c8:e6:81:7a:de:8b:f5:cd:fd:69:90:ed:93:11:2c:48:
         15:1a:f2:99:fb:9a:37:2d:5a:aa:16:79:e7:22:4c:70:d0:2e:
         b7:5c:86:c9:88:52:99:76:80:9f:a1:0f:39:47:8e:56:12:d8:
         10:70:74:5c:b9:3a:93:ef:41:a6:53:78:f1:3f:0c:8e:38:62:
         f2:29:d1:c2:1c:91:2e:ce:25:20:4a:4b:91:bf:c3:cf:8f:a5:
         88:2f:e9:b8:7d:27:da:22:ca:09:96:71:88:45:21:a8:13:b9:
         ac:8a:19:2e:85:94:7d:d5:c4:3d:cb:7a:e3:8c:e1:ea:56:51:
         2b:64:42:39:0c:fc:30:7b:d2:14:80:e3:3d:72:47:5a:12:18:
         7b:0e:3b:27:a9:9f:b8:35:d6:9e:94:e5:2b:c5:1c:33:41:45:
         b0:b7:a2:12:a8:c4:ce:c6:06:8e:c2:9a:06:9b:91:61:88:27:
         fd:24:77:97:20:8f:99:88:24:07:5d:e4:4b:09:de:c8:9c:32:
         6f:9c:4d:00:2f:0a:13:23:49:d0:e3:4e:69:53:81:4f:03:51:
         cd:fe:e4:9b:30:b4:c1:03:fd:6b:bd:e9:62:ad:d6:68:dd:d9:
         f7:47:74:5b:81:4c:5a:cf:65:1e:51:c9:96:51:8f:88:df:d9:
         a0:c9:ec:5e:a3:d9:cd:b0:92:86:7c:74:7d:f8:d7:4f:7b:6d:
         b8:d7:db:bd:8a:0f:76:48:60:04:b4:c5:8d:91:b1:98:d5:f5:
         5e:99:87:b4:e4:1e:6e:40:cd:41:d4:62:f0:96:e3:6d:d2:96:
         8c:c2:a9:62:80:5e:af:28:aa:0f:b7:90:e4:f2:c6:5b:b9:a3:
         62:b1:11:78:9e:0b:38:35:39:40:3b:7c:db:e9:53:be:91:4e:
         16:bf:16:a4:99:93:20:40:06:c1:b9:1b:31:89:bb:12:1d:23:
         e7:70:aa:e6:18:95:c9:96:dd:93:61:1c:03:a8:20:f3:27:9b:
         58:a6:12:5a:a9:01:08:61:3d:3b:2f:a3:2f:40:64:28:3c:6d:
         4c:88:a9:0c:ce:a3:4e:26:2c:51:89:a1:69:4f:96:be:ae:24:
         7b:9c:97:d4:db:29:a0:02:e9:fc:72:32:1b:30:ef:27:e4:11:
         45:7b:7f:ca:62:b9:d7:3a:2b:07:4a:52:a0:cb:a3:92:2c:48:
         2b:8e:1b:3f:21:59:b6:77:38:5a:1d:89:ee:c8:0b:4c:c6:e2:
         82:db:91:c1:e5:1e:02:b9
-----BEGIN CERTIFICATE-----
MIIGrTCCBJWgAwIBAgICLikwDQYJKoZIhvcNAQELBQAwgawxCzAJBgNVBAYTAlVT
MQswCQYDVQQIEwJPSDERMA8GA1UEBxMIQ29sdW1idXMxEjAQBgNVBAoTCVZpa2lu
Z1ZQTjEdMBsGA1UECxMUTXlPcmdhbml6YXRpb25hbFVuaXQxFTATBgNVBAMTDFZp
a2luZ1ZQTiBDQTEQMA4GA1UEKRMHRWFzeVJTQTEhMB8GCSqGSIb3DQEJARYSbWVA
bXlob3N0Lm15ZG9tYWluMB4XDTE3MDkxMDA0NDgzNVoXDTI3MDkwODA0NDgzNVow
HzEdMBsGA1UEAxMUQ2xpZW50MjQ4OENlcnQ3MTlhZjkwggIiMA0GCSqGSIb3DQEB
AQUAA4ICDwAwggIKAoICAQC5PDo9DQD3WlWFy95RdcP8GcvkkanPHlQGtWJRMgfw
HzLL3/P0ekqbuYKi1asiw3BAwW9hP0BqDooqubA/Gq/0gSnUPDT49NWIk+HvNowl
J+xeG9ZIwyVjRIxTVMP6K5sRxVlZJqWMuchZ+gFZ+yW0jTvUp91fAX1qkdnjWWAC
w6DacotS8KjdIn3khPezR9Sm8qMA4HCOVUCx57YlvUMqOwArle9Vk7HNzpYa8fdD
88yC3Ev3auLnmK4jFVNdkTH7pSMKGsOyVul6lQKR24kRKWR+Lj5p09zNiKGb2Coq
FPmEOp9RdDcmdjm33CwOqD1TPtHHK180xZwQ1w3hUMpQHzS4GVqjhsn2TTMT5qF5
MpnkDragjGCfxVs7Txbl8f8L2rdlHkEcMn/nEYuXYMoohssQDms4XeA+M0VLJ+nZ
pT/EiqsqNTueazRsCN4nP1w3IKW+WyOaLpeoXg3tRqvj/uUtoTFGyKmpqFl/ACZq
hV7cM5XAbS8OvwyfaiCBwjfoOvKtyRqG4CfL1QHaA5v+Okm3vYz53MDhUp0qZBQX
ZbWnCtMp6LZYAP75upAAwRPnVxSkafbR7Mt82GJjJzhhndj8WS9d6H2ViISMp4gV
aYivfQ0EjcHSRy9R+nXK/eEUsKK+2b5ZNxgs9k05CTtRQIoyBSi5EuxrUk0BnD+J
OwIDAQABo4IBYzCCAV8wCQYDVR0TBAIwADAtBglghkgBhvhCAQ0EIBYeRWFzeS1S
U0EgR2VuZXJhdGVkIENlcnRpZmljYXRlMB0GA1UdDgQWBBSV8KS5y/SCRTKrDnwy
r0Dav02VVzCB4QYDVR0jBIHZMIHWgBQSzWAE0qCAnnDtxpm4eyzGUv0ZoaGBsqSB
rzCBrDELMAkGA1UEBhMCVVMxCzAJBgNVBAgTAk9IMREwDwYDVQQHEwhDb2x1bWJ1
czESMBAGA1UEChMJVmlraW5nVlBOMR0wGwYDVQQLExRNeU9yZ2FuaXphdGlvbmFs
VW5pdDEVMBMGA1UEAxMMVmlraW5nVlBOIENBMRAwDgYDVQQpEwdFYXN5UlNBMSEw
HwYJKoZIhvcNAQkBFhJtZUBteWhvc3QubXlkb21haW6CCQDPNYXugL8qPjATBgNV
HSUEDDAKBggrBgEFBQcDAjALBgNVHQ8EBAMCB4AwDQYJKoZIhvcNAQELBQADggIB
AMluxEWkc+lRZ27PXkDPozt3201rbem0gSeotaOHSMM0tJYpbLVsyOaBet6L9c39
aZDtkxEsSBUa8pn7mjctWqoWeeciTHDQLrdchsmIUpl2gJ+hDzlHjlYS2BBwdFy5
OpPvQaZTePE/DI44YvIp0cIckS7OJSBKS5G/w8+PpYgv6bh9J9oiygmWcYhFIagT
uayKGS6FlH3VxD3LeuOM4epWUStkQjkM/DB70hSA4z1yR1oSGHsOOyepn7g11p6U
5SvFHDNBRbC3ohKoxM7GBo7CmgabkWGIJ/0kd5cgj5mIJAdd5EsJ3sicMm+cTQAv
ChMjSdDjTmlTgU8DUc3+5JswtMED/Wu96WKt1mjd2fdHdFuBTFrPZR5RyZZRj4jf
2aDJ7F6j2c2wkoZ8dH341097bbjX272KD3ZIYAS0xY2RsZjV9V6Zh7TkHm5AzUHU
YvCW423SlozCqWKAXq8oqg+3kOTyxlu5o2KxEXieCzg1OUA7fNvpU76RTha/FqSZ
kyBABsG5GzGJuxIdI+dwquYYlcmW3ZNhHAOoIPMnm1imElqpAQhhPTsvoy9AZCg8
bUyIqQzOo04mLFGJoWlPlr6uJHucl9TbKaAC6fxyMhsw7yfkEUV7f8piudc6KwdK
UqDLo5IsSCuOGz8hWbZ3OFodie7IC0zG4oLbkcHlHgK5
-----END CERTIFICATE-----
