Certificate:
    Data:
        Version: 3 (0x2)
        Serial Number: 11822 (0x2e2e)
    Signature Algorithm: sha256WithRSAEncryption
        Issuer: C=US, ST=OH, L=Columbus, O=VikingVPN, OU=MyOrganizationalUnit, CN=VikingVPN CA/name=EasyRSA/emailAddress=me@myhost.mydomain
        Validity
            Not Before: Sep 11 00:37:13 2017 GMT
            Not After : Sep  9 00:37:13 2027 GMT
        Subject: CN=Client3073Certe7101e
        Subject Public Key Info:
            Public Key Algorithm: rsaEncryption
                Public-Key: (4096 bit)
                Modulus:
                    00:aa:af:bf:9a:f0:ad:c3:97:f5:aa:c3:06:6c:c8:
                    98:0d:ca:55:a5:da:01:fa:3c:f8:c5:fe:36:21:59:
                    35:14:12:c5:92:09:15:6c:29:e0:28:7b:da:50:0d:
                    e0:86:96:d8:98:94:4f:10:12:70:d0:59:23:58:df:
                    50:5c:80:7c:70:0e:51:c8:d9:f2:c5:1a:e2:9a:7d:
                    88:34:93:c1:31:9e:a5:c0:24:f7:92:bc:92:d7:ab:
                    7c:b5:85:46:ca:8b:f4:1f:6f:56:75:90:fc:c2:5c:
                    78:62:59:fd:ce:fd:bb:ff:9c:78:cd:5e:37:1c:89:
                    b5:2b:bd:52:64:eb:ed:7f:3e:75:6d:9e:fc:5a:1c:
                    da:ac:b2:b7:ef:c6:4c:b6:ef:10:cd:cb:9c:4d:2f:
                    b5:28:9d:eb:7b:ba:b6:f5:ba:06:c8:13:82:07:f2:
                    a2:cc:6b:30:76:8a:3e:1c:0b:16:7d:64:42:11:cc:
                    1b:dc:8e:29:fe:54:b7:98:03:0a:89:47:47:2b:a9:
                    dd:12:bb:e1:36:67:fe:e5:ac:a6:54:90:64:ae:42:
                    15:41:5f:d8:01:ce:39:b4:bc:d8:e9:dd:21:d1:19:
                    3f:78:24:1d:de:54:c2:f0:ab:e9:51:1a:6d:fc:7f:
                    41:f7:88:d8:91:71:7c:f3:6a:5f:96:ac:2c:ae:f2:
                    d4:31:bb:0e:32:19:8a:ff:25:b7:8f:7a:e0:43:17:
                    ce:fe:98:44:43:44:30:b1:a8:de:dc:38:44:a8:76:
                    9d:4e:0e:41:3e:05:22:9e:8e:2a:19:d5:df:67:79:
                    b8:45:4b:c4:d9:19:61:3d:d1:1a:49:5a:1e:39:c2:
                    65:40:c8:2d:9b:47:3b:5c:da:9b:12:a0:b0:87:46:
                    27:30:41:dc:03:d7:69:bb:f9:8d:c5:b0:6c:76:da:
                    65:33:7f:06:23:05:1d:f3:e5:b9:3d:09:d2:be:da:
                    a3:c7:1e:ba:a4:ef:4d:92:ee:9d:0e:1c:60:60:67:
                    a3:27:47:71:56:90:e7:ba:79:54:07:d0:39:d9:f3:
                    58:3c:0a:fd:d9:05:98:7b:ed:d6:56:9f:61:bb:70:
                    7b:f5:65:49:56:2b:01:c7:cd:5d:39:ed:08:8c:ab:
                    ba:40:9f:66:5d:64:a3:17:4f:7c:6e:62:94:1d:bd:
                    9f:36:73:5b:98:d3:f1:67:00:5e:66:35:ae:2b:b2:
                    5d:88:21:a7:39:37:cd:f0:a2:b6:2f:5f:0c:8c:72:
                    2f:e4:a3:5e:e4:0c:78:0e:34:07:d6:74:68:4f:6d:
                    d2:b5:5f:d7:a9:66:8a:38:1b:ef:f6:1e:af:c3:c5:
                    aa:89:62:c1:8e:07:ea:ca:57:63:1b:ba:56:9c:b4:
                    39:2d:8d
                Exponent: 65537 (0x10001)
        X509v3 extensions:
            X509v3 Basic Constraints: 
                CA:FALSE
            Netscape Comment: 
                Easy-RSA Generated Certificate
            X509v3 Subject Key Identifier: 
                D4:F6:6E:74:75:BF:D5:00:89:65:14:DF:B7:35:3B:0E:87:04:B8:FA
            X509v3 Authority Key Identifier: 
                keyid:12:CD:60:04:D2:A0:80:9E:70:ED:C6:99:B8:7B:2C:C6:52:FD:19:A1
                DirName:/C=US/ST=OH/L=Columbus/O=VikingVPN/OU=MyOrganizationalUnit/CN=VikingVPN CA/name=EasyRSA/emailAddress=me@myhost.mydomain
                serial:CF:35:85:EE:80:BF:2A:3E

            X509v3 Extended Key Usage: 
                TLS Web Client Authentication
            X509v3 Key Usage: 
                Digital Signature
    Signature Algorithm: sha256WithRSAEncryption
         bd:45:d9:19:85:b1:0f:ee:9a:15:aa:0c:bd:8b:e7:ff:d8:c6:
         31:14:77:d9:93:47:2d:35:b7:93:66:d8:f7:69:16:4c:7f:b0:
         ae:a1:bc:32:31:e8:a0:98:cb:5d:e9:64:99:8b:e9:56:39:9f:
         9e:58:14:9b:aa:cc:54:cf:d0:8d:bd:b9:00:71:63:54:92:ed:
         b2:41:27:9f:a2:69:a7:75:c3:43:48:c7:7e:2f:33:fe:d4:51:
         70:7d:d8:9c:18:6b:22:66:77:34:67:f9:70:48:22:c8:11:01:
         ec:9a:cd:da:37:f8:23:02:14:a3:3c:34:b9:4c:02:9a:ed:50:
         79:54:f2:f1:4c:19:60:af:f8:7a:a4:09:d0:bd:5d:a9:7c:80:
         4e:34:ec:ac:27:e3:c4:3e:72:f9:93:0d:b0:d4:8c:84:d9:5b:
         02:9d:ab:b3:07:fe:5b:1e:f7:a5:a7:dc:1f:0b:fc:d2:63:a2:
         49:ee:55:20:65:e0:f2:1d:80:f6:db:4a:ca:47:58:27:cd:e3:
         27:ed:f5:7d:62:19:51:11:c8:c5:4b:f6:24:dd:6e:11:81:e8:
         4c:33:52:b6:5b:8d:97:59:c6:7a:06:67:d1:0e:63:5c:70:e2:
         ac:95:a0:2d:25:2d:03:73:0d:99:f0:84:d0:14:82:0e:40:fb:
         2c:ea:3e:d8:90:1e:b7:9f:0c:96:38:39:84:cb:76:f2:2d:a4:
         8e:f2:ba:94:8f:fc:f6:11:55:53:f8:3a:91:97:28:af:31:d9:
         2a:2f:6e:e9:40:8f:c7:5d:47:b8:ef:0b:d2:99:a4:9f:f5:c6:
         95:95:4e:2e:dc:c7:d9:f4:b2:b0:e7:68:c9:10:c4:a1:b1:a9:
         df:0d:39:ae:79:3a:ee:69:ad:73:11:b3:d0:c3:f3:cd:47:b1:
         a5:5d:44:f7:e6:8e:5d:dc:78:2b:02:d7:76:05:1e:74:ed:66:
         4d:c5:01:24:cb:6b:4d:bb:91:ef:d8:c2:b1:66:1a:fc:0a:f7:
         84:96:f8:88:93:2f:c7:28:7f:55:1e:77:04:08:06:9f:1c:f2:
         85:fd:be:e0:87:f7:4c:bb:a7:09:09:19:ac:40:30:2c:26:dc:
         a2:a4:19:6c:51:2f:f0:34:cc:0d:e4:8c:18:56:06:57:aa:8c:
         05:88:b6:9c:90:22:44:94:4b:bb:98:d9:61:a0:5b:a8:fb:8a:
         3b:57:f7:15:2f:0f:27:6a:7e:bd:aa:96:9f:3b:bc:72:7d:28:
         ab:ea:2b:a5:c8:b6:a3:64:33:de:ef:c4:be:b7:59:7f:0e:9d:
         26:4a:78:3d:4c:3d:b4:b3:9b:4f:e8:cb:cf:e9:a3:5f:7e:88:
         c6:fa:ed:19:94:66:dd:35
-----BEGIN CERTIFICATE-----
MIIGrTCCBJWgAwIBAgICLi4wDQYJKoZIhvcNAQELBQAwgawxCzAJBgNVBAYTAlVT
MQswCQYDVQQIEwJPSDERMA8GA1UEBxMIQ29sdW1idXMxEjAQBgNVBAoTCVZpa2lu
Z1ZQTjEdMBsGA1UECxMUTXlPcmdhbml6YXRpb25hbFVuaXQxFTATBgNVBAMTDFZp
a2luZ1ZQTiBDQTEQMA4GA1UEKRMHRWFzeVJTQTEhMB8GCSqGSIb3DQEJARYSbWVA
bXlob3N0Lm15ZG9tYWluMB4XDTE3MDkxMTAwMzcxM1oXDTI3MDkwOTAwMzcxM1ow
HzEdMBsGA1UEAxMUQ2xpZW50MzA3M0NlcnRlNzEwMWUwggIiMA0GCSqGSIb3DQEB
AQUAA4ICDwAwggIKAoICAQCqr7+a8K3Dl/WqwwZsyJgNylWl2gH6PPjF/jYhWTUU
EsWSCRVsKeAoe9pQDeCGltiYlE8QEnDQWSNY31BcgHxwDlHI2fLFGuKafYg0k8Ex
nqXAJPeSvJLXq3y1hUbKi/Qfb1Z1kPzCXHhiWf3O/bv/nHjNXjccibUrvVJk6+1/
PnVtnvxaHNqssrfvxky27xDNy5xNL7Uonet7urb1ugbIE4IH8qLMazB2ij4cCxZ9
ZEIRzBvcjin+VLeYAwqJR0crqd0Su+E2Z/7lrKZUkGSuQhVBX9gBzjm0vNjp3SHR
GT94JB3eVMLwq+lRGm38f0H3iNiRcXzzal+WrCyu8tQxuw4yGYr/JbePeuBDF87+
mERDRDCxqN7cOESodp1ODkE+BSKejioZ1d9nebhFS8TZGWE90RpJWh45wmVAyC2b
Rztc2psSoLCHRicwQdwD12m7+Y3FsGx22mUzfwYjBR3z5bk9CdK+2qPHHrqk702S
7p0OHGBgZ6MnR3FWkOe6eVQH0DnZ81g8Cv3ZBZh77dZWn2G7cHv1ZUlWKwHHzV05
7QiMq7pAn2ZdZKMXT3xuYpQdvZ82c1uY0/FnAF5mNa4rsl2IIac5N83worYvXwyM
ci/ko17kDHgONAfWdGhPbdK1X9epZoo4G+/2Hq/DxaqJYsGOB+rKV2MbulactDkt
jQIDAQABo4IBYzCCAV8wCQYDVR0TBAIwADAtBglghkgBhvhCAQ0EIBYeRWFzeS1S
U0EgR2VuZXJhdGVkIENlcnRpZmljYXRlMB0GA1UdDgQWBBTU9m50db/VAIllFN+3
NTsOhwS4+jCB4QYDVR0jBIHZMIHWgBQSzWAE0qCAnnDtxpm4eyzGUv0ZoaGBsqSB
rzCBrDELMAkGA1UEBhMCVVMxCzAJBgNVBAgTAk9IMREwDwYDVQQHEwhDb2x1bWJ1
czESMBAGA1UEChMJVmlraW5nVlBOMR0wGwYDVQQLExRNeU9yZ2FuaXphdGlvbmFs
VW5pdDEVMBMGA1UEAxMMVmlraW5nVlBOIENBMRAwDgYDVQQpEwdFYXN5UlNBMSEw
HwYJKoZIhvcNAQkBFhJtZUBteWhvc3QubXlkb21haW6CCQDPNYXugL8qPjATBgNV
HSUEDDAKBggrBgEFBQcDAjALBgNVHQ8EBAMCB4AwDQYJKoZIhvcNAQELBQADggIB
AL1F2RmFsQ/umhWqDL2L5//YxjEUd9mTRy01t5Nm2PdpFkx/sK6hvDIx6KCYy13p
ZJmL6VY5n55YFJuqzFTP0I29uQBxY1SS7bJBJ5+iaad1w0NIx34vM/7UUXB92JwY
ayJmdzRn+XBIIsgRAeyazdo3+CMCFKM8NLlMAprtUHlU8vFMGWCv+HqkCdC9Xal8
gE407Kwn48Q+cvmTDbDUjITZWwKdq7MH/lse96Wn3B8L/NJjoknuVSBl4PIdgPbb
SspHWCfN4yft9X1iGVERyMVL9iTdbhGB6EwzUrZbjZdZxnoGZ9EOY1xw4qyVoC0l
LQNzDZnwhNAUgg5A+yzqPtiQHrefDJY4OYTLdvItpI7yupSP/PYRVVP4OpGXKK8x
2SovbulAj8ddR7jvC9KZpJ/1xpWVTi7cx9n0srDnaMkQxKGxqd8NOa55Ou5prXMR
s9DD881HsaVdRPfmjl3ceCsC13YFHnTtZk3FASTLa027ke/YwrFmGvwK94SW+IiT
L8cof1UedwQIBp8c8oX9vuCH90y7pwkJGaxAMCwm3KKkGWxRL/A0zA3kjBhWBleq
jAWItpyQIkSUS7uY2WGgW6j7ijtX9xUvDydqfr2qlp87vHJ9KKvqK6XItqNkM97v
xL63WX8OnSZKeD1MPbSzm0/oy8/po19+iMb67RmUZt01
-----END CERTIFICATE-----
