Certificate:
    Data:
        Version: 3 (0x2)
        Serial Number: 11853 (0x2e4d)
    Signature Algorithm: sha256WithRSAEncryption
        Issuer: C=US, ST=OH, L=Columbus, O=VikingVPN, OU=MyOrganizationalUnit, CN=VikingVPN CA/name=EasyRSA/emailAddress=me@myhost.mydomain
        Validity
            Not Before: Sep 17 18:02:58 2017 GMT
            Not After : Sep 15 18:02:58 2027 GMT
        Subject: CN=Client2920Cert65c611
        Subject Public Key Info:
            Public Key Algorithm: rsaEncryption
                Public-Key: (4096 bit)
                Modulus:
                    00:bc:0c:9f:2a:cf:4c:f1:99:52:9a:4a:17:8c:40:
                    8d:f2:3f:c3:26:0d:fc:52:73:1f:ec:5e:32:34:9a:
                    f9:a8:44:ef:ce:4e:52:50:1d:02:b9:fd:09:77:5a:
                    24:e7:56:26:cc:9e:0c:12:5d:d3:d1:b9:b7:10:86:
                    db:2a:53:4d:9e:ba:64:e1:a1:c3:7b:e4:82:5f:84:
                    61:48:e2:46:76:45:d3:3e:94:a5:ef:de:54:83:0c:
                    3a:72:1d:7a:c6:5b:76:f0:47:03:13:66:6b:d5:b5:
                    83:00:30:69:40:8a:82:40:33:13:02:8b:e9:7e:81:
                    be:08:c9:cd:d0:f1:9d:ce:f1:8a:a4:3e:a2:45:df:
                    7f:4b:04:eb:53:7e:82:df:7d:81:ba:23:9c:2d:80:
                    fa:28:b1:f1:dc:51:69:21:eb:18:e9:19:af:4e:6c:
                    30:7d:3c:59:4c:67:e6:51:fd:c8:cd:2d:c3:4d:6e:
                    6f:56:ca:24:5b:a5:4c:a6:7b:ff:48:cf:5b:7e:e1:
                    a6:9b:83:73:93:f7:18:35:b9:b8:f5:65:3d:1d:93:
                    be:bd:f2:de:1a:12:fe:da:4d:a9:2e:be:3d:95:66:
                    84:46:4d:29:78:10:1b:a2:2a:61:2a:99:9c:96:d1:
                    e3:44:22:bf:0a:eb:d5:4e:52:13:15:61:75:8d:a1:
                    3c:00:40:8a:6a:d3:8c:74:e1:e1:ba:98:ec:33:7f:
                    64:59:03:ce:fc:04:5f:8b:b9:3d:6b:e0:44:61:82:
                    63:3c:f5:e0:40:11:ba:05:0f:78:6d:88:a4:08:84:
                    26:5f:7b:df:24:d6:2b:71:73:41:e8:6c:f3:67:f2:
                    28:ab:df:a4:4d:28:55:25:fb:08:93:32:d2:e2:26:
                    b3:fd:94:1d:da:70:7a:d9:d0:43:4f:f8:6e:93:58:
                    63:3b:0e:29:89:04:e7:e7:f8:68:b9:3b:6d:e4:33:
                    6d:8c:89:04:ba:6b:7b:ad:be:02:8d:bf:4d:65:cb:
                    41:7d:88:c5:b7:db:1f:04:af:5c:17:66:4a:45:fd:
                    64:b6:f0:e8:6c:1b:db:28:7e:02:ef:7a:ec:57:96:
                    c4:23:93:d7:88:d6:f5:a3:ed:d2:eb:e7:62:f8:cc:
                    9a:ea:ed:63:56:d2:9e:35:7e:68:fb:76:f6:b7:69:
                    2d:10:39:50:db:2d:60:3e:04:01:e4:78:66:73:12:
                    8d:81:1c:6e:53:2d:f8:cc:23:bb:88:96:1a:2e:b5:
                    0e:d4:98:2e:ce:af:1e:ec:45:04:0a:25:53:43:b3:
                    6f:c2:03:27:cf:f7:fa:c3:27:73:39:4d:81:f7:6b:
                    fb:28:39:10:d0:c0:b4:d2:77:78:b3:83:35:cd:24:
                    24:1a:db
                Exponent: 65537 (0x10001)
        X509v3 extensions:
            X509v3 Basic Constraints: 
                CA:FALSE
            Netscape Comment: 
                Easy-RSA Generated Certificate
            X509v3 Subject Key Identifier: 
                49:31:6A:34:58:82:5A:84:40:B0:34:33:17:65:F3:EB:5A:30:B7:FB
            X509v3 Authority Key Identifier: 
                keyid:12:CD:60:04:D2:A0:80:9E:70:ED:C6:99:B8:7B:2C:C6:52:FD:19:A1
                DirName:/C=US/ST=OH/L=Columbus/O=VikingVPN/OU=MyOrganizationalUnit/CN=VikingVPN CA/name=EasyRSA/emailAddress=me@myhost.mydomain
                serial:CF:35:85:EE:80:BF:2A:3E

            X509v3 Extended Key Usage: 
                TLS Web Client Authentication
            X509v3 Key Usage: 
                Digital Signature
    Signature Algorithm: sha256WithRSAEncryption
         be:04:bb:7a:8b:7a:c4:d3:4b:2a:8c:55:4c:72:9a:e9:d0:e1:
         25:45:58:4f:e8:78:9b:70:15:d3:8a:e7:6b:16:5c:18:a1:23:
         27:e2:83:b0:9d:4b:f5:2b:f8:a7:a5:1c:54:af:75:a6:2c:87:
         13:e6:e4:5d:12:36:db:dd:c1:e4:52:3e:a7:bf:1c:68:55:69:
         05:e7:e6:03:85:59:f0:0d:6a:db:2d:10:63:4f:ef:d2:00:0e:
         61:13:c9:c2:52:53:a9:69:9f:38:33:2c:3e:7d:63:22:24:c6:
         26:28:e3:6c:b7:2c:43:0a:7a:41:15:76:be:64:a6:91:33:5a:
         da:c4:16:a0:60:bf:1f:6b:e9:e6:fe:04:f8:b9:7d:1a:3a:cc:
         c9:8b:35:b5:94:7d:1b:74:ca:be:59:8c:80:f7:e1:c1:2d:8a:
         51:d0:74:95:2a:2c:9f:f1:e3:22:02:b0:67:cd:cf:e0:76:37:
         6a:27:c6:03:f5:fe:46:da:d2:55:3f:d6:3f:2b:6c:b6:43:30:
         1d:f8:3b:1e:65:8c:c9:74:d9:17:97:5c:30:14:44:83:d3:2d:
         24:e8:d5:e4:c0:76:7e:31:99:72:9c:cd:4e:29:4e:1d:86:84:
         51:19:27:31:9f:f4:fa:ba:8c:83:71:63:a4:59:85:be:2a:f3:
         ed:f2:2a:a7:9b:07:07:d5:f4:0c:86:fa:f2:08:c9:5f:aa:81:
         ad:f6:c1:b9:c6:5d:8f:71:e4:9e:c1:3e:ca:c5:cd:22:6a:ca:
         e0:da:ea:a8:8f:ca:21:90:e2:d5:ae:9b:00:04:d4:c8:59:34:
         ef:3f:54:3d:47:3d:33:45:be:e8:85:1a:e8:f7:c5:83:44:65:
         38:5a:3e:5e:3a:ec:b0:8a:67:be:e6:f9:bc:ee:fa:59:65:fe:
         2d:41:92:3a:ba:97:96:6e:2a:e2:74:38:e4:0f:4e:87:de:f2:
         8b:4f:9c:8c:45:89:03:59:18:9d:f3:1a:3f:f0:8d:a2:2c:13:
         ff:db:19:2d:94:04:5b:3e:30:03:79:27:49:00:af:57:55:fb:
         6a:90:24:f9:ff:2d:c3:9d:05:af:57:6d:48:a0:7e:ea:92:40:
         c8:3d:e8:52:74:73:3a:66:48:eb:ac:35:9c:09:df:d6:8d:2e:
         93:e8:bf:e5:a6:b1:59:8d:a6:df:37:9b:a7:08:df:ff:98:ac:
         6c:ff:e9:34:47:e6:c6:98:18:b5:a9:6d:9a:cc:43:ac:0d:f1:
         67:9b:ab:16:92:18:d8:57:8e:05:fa:ec:c9:12:11:a7:54:cb:
         98:a8:e3:db:97:36:d5:87:08:3d:4a:9e:c8:6f:65:89:cf:56:
         1e:f0:52:8a:da:ec:7a:ff
-----BEGIN CERTIFICATE-----
MIIGrTCCBJWgAwIBAgICLk0wDQYJKoZIhvcNAQELBQAwgawxCzAJBgNVBAYTAlVT
MQswCQYDVQQIEwJPSDERMA8GA1UEBxMIQ29sdW1idXMxEjAQBgNVBAoTCVZpa2lu
Z1ZQTjEdMBsGA1UECxMUTXlPcmdhbml6YXRpb25hbFVuaXQxFTATBgNVBAMTDFZp
a2luZ1ZQTiBDQTEQMA4GA1UEKRMHRWFzeVJTQTEhMB8GCSqGSIb3DQEJARYSbWVA
bXlob3N0Lm15ZG9tYWluMB4XDTE3MDkxNzE4MDI1OFoXDTI3MDkxNTE4MDI1OFow
HzEdMBsGA1UEAxMUQ2xpZW50MjkyMENlcnQ2NWM2MTEwggIiMA0GCSqGSIb3DQEB
AQUAA4ICDwAwggIKAoICAQC8DJ8qz0zxmVKaSheMQI3yP8MmDfxScx/sXjI0mvmo
RO/OTlJQHQK5/Ql3WiTnVibMngwSXdPRubcQhtsqU02eumThocN75IJfhGFI4kZ2
RdM+lKXv3lSDDDpyHXrGW3bwRwMTZmvVtYMAMGlAioJAMxMCi+l+gb4Iyc3Q8Z3O
8YqkPqJF339LBOtTfoLffYG6I5wtgPoosfHcUWkh6xjpGa9ObDB9PFlMZ+ZR/cjN
LcNNbm9WyiRbpUyme/9Iz1t+4aabg3OT9xg1ubj1ZT0dk7698t4aEv7aTakuvj2V
ZoRGTSl4EBuiKmEqmZyW0eNEIr8K69VOUhMVYXWNoTwAQIpq04x04eG6mOwzf2RZ
A878BF+LuT1r4ERhgmM89eBAEboFD3htiKQIhCZfe98k1itxc0HobPNn8iir36RN
KFUl+wiTMtLiJrP9lB3acHrZ0ENP+G6TWGM7DimJBOfn+Gi5O23kM22MiQS6a3ut
vgKNv01ly0F9iMW32x8Er1wXZkpF/WS28OhsG9sofgLveuxXlsQjk9eI1vWj7dLr
52L4zJrq7WNW0p41fmj7dva3aS0QOVDbLWA+BAHkeGZzEo2BHG5TLfjMI7uIlhou
tQ7UmC7Orx7sRQQKJVNDs2/CAyfP9/rDJ3M5TYH3a/soORDQwLTSd3izgzXNJCQa
2wIDAQABo4IBYzCCAV8wCQYDVR0TBAIwADAtBglghkgBhvhCAQ0EIBYeRWFzeS1S
U0EgR2VuZXJhdGVkIENlcnRpZmljYXRlMB0GA1UdDgQWBBRJMWo0WIJahECwNDMX
ZfPrWjC3+zCB4QYDVR0jBIHZMIHWgBQSzWAE0qCAnnDtxpm4eyzGUv0ZoaGBsqSB
rzCBrDELMAkGA1UEBhMCVVMxCzAJBgNVBAgTAk9IMREwDwYDVQQHEwhDb2x1bWJ1
czESMBAGA1UEChMJVmlraW5nVlBOMR0wGwYDVQQLExRNeU9yZ2FuaXphdGlvbmFs
VW5pdDEVMBMGA1UEAxMMVmlraW5nVlBOIENBMRAwDgYDVQQpEwdFYXN5UlNBMSEw
HwYJKoZIhvcNAQkBFhJtZUBteWhvc3QubXlkb21haW6CCQDPNYXugL8qPjATBgNV
HSUEDDAKBggrBgEFBQcDAjALBgNVHQ8EBAMCB4AwDQYJKoZIhvcNAQELBQADggIB
AL4Eu3qLesTTSyqMVUxymunQ4SVFWE/oeJtwFdOK52sWXBihIyfig7CdS/Ur+Kel
HFSvdaYshxPm5F0SNtvdweRSPqe/HGhVaQXn5gOFWfANatstEGNP79IADmETycJS
U6lpnzgzLD59YyIkxiYo42y3LEMKekEVdr5kppEzWtrEFqBgvx9r6eb+BPi5fRo6
zMmLNbWUfRt0yr5ZjID34cEtilHQdJUqLJ/x4yICsGfNz+B2N2onxgP1/kba0lU/
1j8rbLZDMB34Ox5ljMl02ReXXDAURIPTLSTo1eTAdn4xmXKczU4pTh2GhFEZJzGf
9Pq6jINxY6RZhb4q8+3yKqebBwfV9AyG+vIIyV+qga32wbnGXY9x5J7BPsrFzSJq
yuDa6qiPyiGQ4tWumwAE1MhZNO8/VD1HPTNFvuiFGuj3xYNEZThaPl467LCKZ77m
+bzu+lll/i1Bkjq6l5ZuKuJ0OOQPTofe8otPnIxFiQNZGJ3zGj/wjaIsE//bGS2U
BFs+MAN5J0kAr1dV+2qQJPn/LcOdBa9XbUigfuqSQMg96FJ0czpmSOusNZwJ39aN
LpPov+WmsVmNpt83m6cI3/+YrGz/6TRH5saYGLWpbZrMQ6wN8WebqxaSGNhXjgX6
7MkSEadUy5io49uXNtWHCD1KnshvZYnPVh7wUora7Hr/
-----END CERTIFICATE-----
