Certificate:
    Data:
        Version: 3 (0x2)
        Serial Number: 11873 (0x2e61)
    Signature Algorithm: sha256WithRSAEncryption
        Issuer: C=US, ST=OH, L=Columbus, O=VikingVPN, OU=MyOrganizationalUnit, CN=VikingVPN CA/name=EasyRSA/emailAddress=me@myhost.mydomain
        Validity
            Not Before: Sep 21 03:22:08 2017 GMT
            Not After : Sep 19 03:22:08 2027 GMT
        Subject: CN=Client604Certc818d0
        Subject Public Key Info:
            Public Key Algorithm: rsaEncryption
                Public-Key: (4096 bit)
                Modulus:
                    00:cd:33:60:54:45:0a:d7:80:fb:bb:1d:da:05:6c:
                    8d:1d:a8:54:db:bc:97:be:f1:a2:a3:a2:af:3b:fd:
                    1c:80:8e:1e:3c:63:44:24:be:d5:44:34:9e:8d:1c:
                    14:f8:03:cb:42:d2:96:fc:74:e5:f7:e4:ee:f8:78:
                    fc:ff:df:6e:60:77:ce:44:6d:70:73:dc:77:52:48:
                    37:00:ac:f3:0a:29:10:2f:ba:51:6e:c9:3c:fb:0a:
                    d8:a1:ee:15:08:e0:b7:8e:32:55:03:b4:17:6e:44:
                    bf:e8:ce:a7:dc:0d:ca:b1:2e:3f:2b:85:91:78:03:
                    0e:2c:62:d6:d1:60:90:e7:95:c1:b2:ae:7e:dc:4d:
                    72:6b:03:2a:e8:db:c8:f4:96:eb:f8:38:78:14:e2:
                    45:a4:41:2b:3a:e0:20:91:a6:ac:aa:5a:f2:94:1e:
                    fe:e7:85:22:68:f3:52:39:1f:c4:28:70:02:50:ea:
                    1f:f8:60:55:07:ee:a3:ab:27:b0:bc:ac:11:75:ae:
                    21:52:47:02:c4:4b:37:8f:63:66:4d:04:29:55:32:
                    96:e8:e6:a7:0b:23:1a:00:2d:58:fb:c7:42:67:d9:
                    67:05:3b:e9:b2:a9:85:fb:af:cb:83:69:01:41:b9:
                    30:f4:b9:28:38:4a:4a:3a:09:81:14:dc:4f:33:02:
                    fd:2c:c6:52:86:fa:08:f4:35:81:e0:92:3e:72:27:
                    fe:72:06:e8:94:b8:74:10:60:53:66:80:ce:df:b0:
                    c8:11:cf:3e:81:65:9a:64:77:a8:86:d3:fe:07:e1:
                    a9:ad:7f:ee:ec:63:26:83:ec:5e:3a:09:cb:12:27:
                    37:43:ad:7e:27:08:8b:44:3e:97:8e:6a:84:5e:ef:
                    18:6f:0f:8c:f9:f0:d2:09:b4:f1:e5:44:c9:92:a7:
                    ca:59:64:ec:80:be:9a:a9:8d:f1:5f:56:b4:a3:67:
                    2e:1d:77:67:d4:bf:d5:59:73:90:03:04:3d:46:81:
                    a3:e2:8a:dc:6c:46:0c:5b:e5:80:80:b1:71:b4:b8:
                    07:3f:41:64:3b:3e:92:d1:14:a6:ee:a9:36:83:36:
                    d5:3c:e5:56:d3:a5:d7:a8:22:c1:e0:4a:71:40:7d:
                    a7:17:11:07:f4:a5:dc:cd:ed:a2:67:da:2f:ee:ba:
                    c6:b9:76:14:3f:b6:3d:83:d1:d5:8d:04:2c:be:77:
                    d9:93:66:fd:b5:e3:a6:94:82:d2:2e:1e:c0:83:94:
                    c4:a4:9c:c5:3d:41:ea:9e:d3:0c:a4:5e:78:48:1d:
                    b6:24:6e:0e:2e:e0:90:8d:29:97:26:05:c2:52:4f:
                    06:72:95:dd:fe:b8:4d:3d:d1:c7:d9:dc:b5:09:f2:
                    72:e1:43
                Exponent: 65537 (0x10001)
        X509v3 extensions:
            X509v3 Basic Constraints: 
                CA:FALSE
            Netscape Comment: 
                Easy-RSA Generated Certificate
            X509v3 Subject Key Identifier: 
                8A:D6:F2:50:AC:D6:07:AE:B8:06:D4:11:6E:44:EB:31:CD:09:27:85
            X509v3 Authority Key Identifier: 
                keyid:12:CD:60:04:D2:A0:80:9E:70:ED:C6:99:B8:7B:2C:C6:52:FD:19:A1
                DirName:/C=US/ST=OH/L=Columbus/O=VikingVPN/OU=MyOrganizationalUnit/CN=VikingVPN CA/name=EasyRSA/emailAddress=me@myhost.mydomain
                serial:CF:35:85:EE:80:BF:2A:3E

            X509v3 Extended Key Usage: 
                TLS Web Client Authentication
            X509v3 Key Usage: 
                Digital Signature
    Signature Algorithm: sha256WithRSAEncryption
         9c:90:45:94:df:2d:e8:b3:46:1c:af:45:40:82:a0:fd:19:73:
         83:bd:85:7d:df:e4:55:4c:25:44:69:9a:70:f7:81:59:a5:cd:
         f7:f4:45:aa:e0:7e:04:26:98:47:74:31:01:96:00:83:9d:d7:
         59:70:52:28:80:27:64:1b:35:7f:8a:c7:ac:23:e8:f1:79:e5:
         bb:de:94:dd:af:14:93:c4:56:a1:25:c8:ad:b1:a0:9f:e8:79:
         46:85:e3:3b:50:b3:6d:ae:05:63:e1:75:38:84:eb:23:08:d9:
         42:ea:8c:a0:80:65:ce:2a:28:bf:04:87:26:d5:16:16:44:ad:
         a4:05:17:77:da:c3:6d:f4:9f:c9:37:fb:08:26:91:8e:c6:dd:
         01:fe:91:f5:98:ea:30:c5:84:39:a9:b6:31:ea:3a:13:7b:2d:
         b9:29:15:af:c6:83:17:7b:15:3a:37:8c:d4:9b:4b:d8:4a:01:
         46:05:cc:02:e0:20:cc:55:6a:35:af:e3:ba:5e:13:e1:95:44:
         89:99:a7:3f:ca:1d:f2:8d:cf:24:22:59:d5:9d:6d:cb:c1:da:
         fd:4e:14:81:fa:8d:d5:23:6a:29:a7:e3:5c:53:cb:13:39:35:
         e8:40:6a:3b:37:a2:70:ef:3f:56:19:59:ea:0d:9f:15:d6:96:
         04:e9:fb:1b:f6:6a:1e:db:e3:22:3d:db:99:a9:95:c2:82:ac:
         ca:53:dd:58:57:26:15:70:c4:f4:07:0b:54:34:4c:c9:f1:61:
         8b:e3:2a:f6:79:64:31:26:9a:ef:2d:e6:bb:6a:ee:b4:d1:76:
         56:6e:82:b7:65:de:25:27:77:d0:a2:6c:fd:cd:81:35:49:ad:
         72:7a:14:50:e0:8f:f9:ce:2b:24:65:17:d9:d8:c0:6b:0b:cf:
         33:39:2f:71:25:06:af:5f:9d:c4:cb:7b:f3:30:52:76:e0:50:
         11:c3:c1:0b:c3:92:54:84:cf:95:51:a8:d5:f4:16:aa:be:34:
         1d:d7:3b:37:52:22:63:a4:ae:75:19:b0:07:72:b4:e6:33:70:
         98:9e:03:f1:14:ac:ee:01:97:40:57:90:be:52:ab:b6:31:b2:
         d9:c5:4f:b3:ad:79:fd:6c:7f:61:92:55:c6:8a:f7:ff:a7:31:
         87:57:43:63:86:18:f7:3b:da:88:1d:8e:e7:51:6b:dc:c9:3b:
         4c:4b:09:1d:28:7c:0a:fc:54:8e:3c:18:35:5c:63:24:fa:8c:
         98:0d:be:a7:cd:74:f1:d6:f3:a7:a2:90:4d:26:d6:40:f9:bd:
         06:5b:74:dd:88:07:32:81:82:9b:b2:a3:50:09:5e:2a:74:99:
         29:b8:e7:66:8a:72:8d:c5
-----BEGIN CERTIFICATE-----
MIIGrDCCBJSgAwIBAgICLmEwDQYJKoZIhvcNAQELBQAwgawxCzAJBgNVBAYTAlVT
MQswCQYDVQQIEwJPSDERMA8GA1UEBxMIQ29sdW1idXMxEjAQBgNVBAoTCVZpa2lu
Z1ZQTjEdMBsGA1UECxMUTXlPcmdhbml6YXRpb25hbFVuaXQxFTATBgNVBAMTDFZp
a2luZ1ZQTiBDQTEQMA4GA1UEKRMHRWFzeVJTQTEhMB8GCSqGSIb3DQEJARYSbWVA
bXlob3N0Lm15ZG9tYWluMB4XDTE3MDkyMTAzMjIwOFoXDTI3MDkxOTAzMjIwOFow
HjEcMBoGA1UEAxMTQ2xpZW50NjA0Q2VydGM4MThkMDCCAiIwDQYJKoZIhvcNAQEB
BQADggIPADCCAgoCggIBAM0zYFRFCteA+7sd2gVsjR2oVNu8l77xoqOirzv9HICO
HjxjRCS+1UQ0no0cFPgDy0LSlvx05ffk7vh4/P/fbmB3zkRtcHPcd1JINwCs8wop
EC+6UW7JPPsK2KHuFQjgt44yVQO0F25Ev+jOp9wNyrEuPyuFkXgDDixi1tFgkOeV
wbKuftxNcmsDKujbyPSW6/g4eBTiRaRBKzrgIJGmrKpa8pQe/ueFImjzUjkfxChw
AlDqH/hgVQfuo6snsLysEXWuIVJHAsRLN49jZk0EKVUylujmpwsjGgAtWPvHQmfZ
ZwU76bKphfuvy4NpAUG5MPS5KDhKSjoJgRTcTzMC/SzGUob6CPQ1geCSPnIn/nIG
6JS4dBBgU2aAzt+wyBHPPoFlmmR3qIbT/gfhqa1/7uxjJoPsXjoJyxInN0OtficI
i0Q+l45qhF7vGG8PjPnw0gm08eVEyZKnyllk7IC+mqmN8V9WtKNnLh13Z9S/1Vlz
kAMEPUaBo+KK3GxGDFvlgICxcbS4Bz9BZDs+ktEUpu6pNoM21TzlVtOl16giweBK
cUB9pxcRB/Sl3M3tomfaL+66xrl2FD+2PYPR1Y0ELL532ZNm/bXjppSC0i4ewIOU
xKScxT1B6p7TDKReeEgdtiRuDi7gkI0plyYFwlJPBnKV3f64TT3Rx9nctQnycuFD
AgMBAAGjggFjMIIBXzAJBgNVHRMEAjAAMC0GCWCGSAGG+EIBDQQgFh5FYXN5LVJT
QSBHZW5lcmF0ZWQgQ2VydGlmaWNhdGUwHQYDVR0OBBYEFIrW8lCs1geuuAbUEW5E
6zHNCSeFMIHhBgNVHSMEgdkwgdaAFBLNYATSoICecO3Gmbh7LMZS/RmhoYGypIGv
MIGsMQswCQYDVQQGEwJVUzELMAkGA1UECBMCT0gxETAPBgNVBAcTCENvbHVtYnVz
MRIwEAYDVQQKEwlWaWtpbmdWUE4xHTAbBgNVBAsTFE15T3JnYW5pemF0aW9uYWxV
bml0MRUwEwYDVQQDEwxWaWtpbmdWUE4gQ0ExEDAOBgNVBCkTB0Vhc3lSU0ExITAf
BgkqhkiG9w0BCQEWEm1lQG15aG9zdC5teWRvbWFpboIJAM81he6Avyo+MBMGA1Ud
JQQMMAoGCCsGAQUFBwMCMAsGA1UdDwQEAwIHgDANBgkqhkiG9w0BAQsFAAOCAgEA
nJBFlN8t6LNGHK9FQIKg/Rlzg72Ffd/kVUwlRGmacPeBWaXN9/RFquB+BCaYR3Qx
AZYAg53XWXBSKIAnZBs1f4rHrCPo8Xnlu96U3a8Uk8RWoSXIrbGgn+h5RoXjO1Cz
ba4FY+F1OITrIwjZQuqMoIBlzioovwSHJtUWFkStpAUXd9rDbfSfyTf7CCaRjsbd
Af6R9ZjqMMWEOam2Meo6E3stuSkVr8aDF3sVOjeM1JtL2EoBRgXMAuAgzFVqNa/j
ul4T4ZVEiZmnP8od8o3PJCJZ1Z1ty8Ha/U4UgfqN1SNqKafjXFPLEzk16EBqOzei
cO8/VhlZ6g2fFdaWBOn7G/ZqHtvjIj3bmamVwoKsylPdWFcmFXDE9AcLVDRMyfFh
i+Mq9nlkMSaa7y3mu2rutNF2Vm6Ct2XeJSd30KJs/c2BNUmtcnoUUOCP+c4rJGUX
2djAawvPMzkvcSUGr1+dxMt78zBSduBQEcPBC8OSVITPlVGo1fQWqr40Hdc7N1Ii
Y6SudRmwB3K05jNwmJ4D8RSs7gGXQFeQvlKrtjGy2cVPs615/Wx/YZJVxor3/6cx
h1dDY4YY9zvaiB2O51Fr3Mk7TEsJHSh8CvxUjjwYNVxjJPqMmA2+p8108dbzp6KQ
TSbWQPm9Blt03YgHMoGCm7KjUAleKnSZKbjnZopyjcU=
-----END CERTIFICATE-----
