Certificate:
    Data:
        Version: 3 (0x2)
        Serial Number: 11881 (0x2e69)
    Signature Algorithm: sha256WithRSAEncryption
        Issuer: C=US, ST=OH, L=Columbus, O=VikingVPN, OU=MyOrganizationalUnit, CN=VikingVPN CA/name=EasyRSA/emailAddress=me@myhost.mydomain
        Validity
            Not Before: Sep 24 22:59:01 2017 GMT
            Not After : Sep 22 22:59:01 2027 GMT
        Subject: CN=Client2967Cert870d18
        Subject Public Key Info:
            Public Key Algorithm: rsaEncryption
                Public-Key: (4096 bit)
                Modulus:
                    00:d4:a8:e8:fe:99:b6:0f:21:99:65:af:a6:8c:6a:
                    99:f2:0e:86:20:cb:80:57:31:da:e3:7c:14:ed:4b:
                    41:6c:be:95:d6:0a:58:74:e8:5d:88:6b:e3:52:0b:
                    03:47:88:54:c1:72:ba:4d:e4:6e:e1:c7:24:0f:e0:
                    6f:69:22:8e:d4:ef:63:fb:82:9b:0a:50:ef:24:5b:
                    43:76:4b:50:7f:23:66:97:bb:2b:0c:18:9d:d0:c2:
                    f1:84:8a:7f:eb:81:7a:4e:d4:5f:eb:b1:ca:19:81:
                    90:01:00:f7:eb:a6:c9:19:2d:70:3e:38:39:a5:41:
                    d3:82:aa:44:0d:76:ff:1c:90:b2:8b:ac:5e:7a:db:
                    b4:eb:3d:fa:0a:15:8b:60:9e:42:8c:e9:a8:1d:fc:
                    d9:28:f5:4b:7a:d1:7a:24:4e:28:0f:b6:91:28:99:
                    84:f8:93:fb:f9:fb:59:4b:a9:12:86:35:0c:8e:5c:
                    b6:91:d5:2f:39:c5:4e:16:b6:f9:f6:81:cc:46:fc:
                    2e:6c:ee:1b:85:f1:97:54:26:95:0b:83:0b:f7:34:
                    18:41:e5:1b:0d:13:d8:5e:64:f8:51:48:40:98:f1:
                    5f:47:5c:50:ac:43:52:d8:44:7c:20:cb:e1:9e:e4:
                    0d:14:f3:db:06:77:63:c3:1d:93:b3:23:38:5e:da:
                    80:c3:58:92:21:1c:16:c8:50:a6:b9:10:04:f7:22:
                    ae:27:26:89:74:3d:d4:0b:6c:4e:11:06:fd:70:3f:
                    b3:7c:81:39:54:39:de:eb:1f:12:be:22:97:06:15:
                    6a:c1:04:8c:fe:2a:a0:48:e3:b9:40:fd:4c:d7:d2:
                    04:c2:0c:8f:48:9e:cb:b7:2e:ba:67:6e:56:70:a5:
                    52:2f:7b:4b:16:55:a9:c5:12:b7:59:ca:ce:ec:ee:
                    da:45:17:79:7f:ba:59:cd:7c:72:de:dc:c0:e8:b8:
                    26:0a:3c:41:c3:2c:b8:01:90:57:84:7c:c0:0c:aa:
                    9a:b1:dd:f6:46:45:d7:46:7c:67:78:f0:66:8f:c6:
                    98:02:6b:3d:95:27:2b:07:e0:92:ee:cc:6c:7d:f2:
                    3c:25:d3:62:af:8d:7b:93:e5:ef:23:0a:66:e9:33:
                    c2:e5:ad:c4:ed:7d:07:f0:02:74:71:86:d5:2c:80:
                    49:e1:3d:a1:d5:c0:19:af:6e:76:a1:f6:fc:75:fc:
                    15:60:ef:a1:58:b9:ef:4d:e4:74:d7:dc:d5:ca:95:
                    ea:cc:ef:3d:14:74:12:9e:12:4f:f0:64:1f:2a:74:
                    b2:33:a7:1b:eb:6f:c0:37:85:27:38:23:e3:3d:1e:
                    68:df:de:ee:f7:11:c3:b6:e5:f3:18:5f:da:dc:41:
                    45:b7:8f
                Exponent: 65537 (0x10001)
        X509v3 extensions:
            X509v3 Basic Constraints: 
                CA:FALSE
            Netscape Comment: 
                Easy-RSA Generated Certificate
            X509v3 Subject Key Identifier: 
                B2:A0:67:EF:1A:BA:3D:67:71:38:8C:4A:C5:C1:BB:1D:79:70:CE:68
            X509v3 Authority Key Identifier: 
                keyid:12:CD:60:04:D2:A0:80:9E:70:ED:C6:99:B8:7B:2C:C6:52:FD:19:A1
                DirName:/C=US/ST=OH/L=Columbus/O=VikingVPN/OU=MyOrganizationalUnit/CN=VikingVPN CA/name=EasyRSA/emailAddress=me@myhost.mydomain
                serial:CF:35:85:EE:80:BF:2A:3E

            X509v3 Extended Key Usage: 
                TLS Web Client Authentication
            X509v3 Key Usage: 
                Digital Signature
    Signature Algorithm: sha256WithRSAEncryption
         0b:06:01:7e:60:f1:89:ef:6f:46:b0:c7:25:fe:70:ba:fe:a9:
         af:ee:ab:30:79:98:30:6b:59:0d:c2:7f:8b:e8:fa:5c:c3:63:
         0b:1c:33:30:bc:a1:60:30:d4:80:7f:53:c8:44:63:62:ac:f7:
         e0:5c:73:45:7a:0a:1e:6c:ef:31:a4:43:3d:2b:41:ee:aa:02:
         23:76:28:7c:63:87:02:4d:ad:d9:a6:13:9b:57:c8:17:ff:87:
         34:c4:51:55:14:3c:3b:42:d7:ba:1c:7a:ec:fe:58:0a:93:df:
         f8:84:6c:59:6e:69:3f:ba:54:a1:a7:f7:68:c4:e0:b5:06:53:
         f0:d5:77:c2:e5:f7:e8:9e:07:6a:f5:3e:38:46:d2:af:47:30:
         17:69:95:b1:1d:46:91:9e:f7:ed:bf:00:e2:2c:89:19:8a:6a:
         70:aa:96:ec:bb:bc:31:a5:66:0b:0c:7c:fc:cc:63:4a:22:09:
         1c:d0:82:3b:f5:30:17:02:92:24:cc:67:56:27:22:83:f0:6a:
         59:56:da:65:a3:80:5f:bf:61:e8:b7:bb:88:45:47:23:99:8a:
         d8:87:4f:58:a1:ac:a8:2e:19:0c:8c:ca:10:f2:96:b7:75:91:
         c7:0d:b3:7b:06:94:22:09:4e:14:b4:fb:29:27:3b:90:5c:bb:
         0b:5d:42:6d:9a:dc:65:a1:21:5a:1b:96:03:3f:45:0e:64:2e:
         9d:ef:7e:eb:79:64:8e:4f:f1:eb:47:f3:bb:4d:1e:98:2e:cc:
         de:f6:7c:0a:90:7e:e0:49:24:f2:2d:93:bf:9b:34:b7:73:4f:
         eb:66:76:fd:cc:19:84:79:12:9c:70:8c:55:a1:6e:be:4e:94:
         40:7c:ae:6e:2b:ca:32:0e:cc:3c:b9:c3:1f:12:b3:dd:f2:f4:
         b0:93:19:0f:81:bb:93:50:fc:f2:48:7d:80:e5:26:69:03:5d:
         4a:1b:9b:ae:72:0a:0c:af:60:4c:97:e7:61:fd:4e:28:7b:54:
         3c:e0:fa:21:26:e9:5f:da:9d:03:2b:bb:ac:7e:58:57:c5:eb:
         e3:65:d4:b6:c3:da:80:dc:a1:00:6f:3f:1d:89:38:ae:77:13:
         10:f3:cf:fa:2a:83:c3:e4:9b:c7:97:4b:fe:39:e9:cb:37:07:
         86:05:a0:ba:3f:84:02:4e:32:62:3e:32:89:04:68:92:8c:62:
         02:52:8c:06:95:20:40:17:ec:3e:67:76:cc:bc:37:13:25:8e:
         90:82:95:66:0c:51:70:e6:f0:c5:26:19:10:6b:a4:cc:68:b6:
         ac:dc:92:be:6d:36:1f:d0:7d:ee:c4:66:4c:06:90:8c:83:0c:
         14:67:b5:14:f9:c7:0f:a9
-----BEGIN CERTIFICATE-----
MIIGrTCCBJWgAwIBAgICLmkwDQYJKoZIhvcNAQELBQAwgawxCzAJBgNVBAYTAlVT
MQswCQYDVQQIEwJPSDERMA8GA1UEBxMIQ29sdW1idXMxEjAQBgNVBAoTCVZpa2lu
Z1ZQTjEdMBsGA1UECxMUTXlPcmdhbml6YXRpb25hbFVuaXQxFTATBgNVBAMTDFZp
a2luZ1ZQTiBDQTEQMA4GA1UEKRMHRWFzeVJTQTEhMB8GCSqGSIb3DQEJARYSbWVA
bXlob3N0Lm15ZG9tYWluMB4XDTE3MDkyNDIyNTkwMVoXDTI3MDkyMjIyNTkwMVow
HzEdMBsGA1UEAxMUQ2xpZW50Mjk2N0NlcnQ4NzBkMTgwggIiMA0GCSqGSIb3DQEB
AQUAA4ICDwAwggIKAoICAQDUqOj+mbYPIZllr6aMapnyDoYgy4BXMdrjfBTtS0Fs
vpXWClh06F2Ia+NSCwNHiFTBcrpN5G7hxyQP4G9pIo7U72P7gpsKUO8kW0N2S1B/
I2aXuysMGJ3QwvGEin/rgXpO1F/rscoZgZABAPfrpskZLXA+ODmlQdOCqkQNdv8c
kLKLrF5627TrPfoKFYtgnkKM6agd/Nko9Ut60XokTigPtpEomYT4k/v5+1lLqRKG
NQyOXLaR1S85xU4Wtvn2gcxG/C5s7huF8ZdUJpULgwv3NBhB5RsNE9heZPhRSECY
8V9HXFCsQ1LYRHwgy+Ge5A0U89sGd2PDHZOzIzhe2oDDWJIhHBbIUKa5EAT3Iq4n
Jol0PdQLbE4RBv1wP7N8gTlUOd7rHxK+IpcGFWrBBIz+KqBI47lA/UzX0gTCDI9I
nsu3LrpnblZwpVIve0sWVanFErdZys7s7tpFF3l/ulnNfHLe3MDouCYKPEHDLLgB
kFeEfMAMqpqx3fZGRddGfGd48GaPxpgCaz2VJysH4JLuzGx98jwl02KvjXuT5e8j
CmbpM8LlrcTtfQfwAnRxhtUsgEnhPaHVwBmvbnah9vx1/BVg76FYue9N5HTX3NXK
lerM7z0UdBKeEk/wZB8qdLIzpxvrb8A3hSc4I+M9Hmjf3u73EcO25fMYX9rcQUW3
jwIDAQABo4IBYzCCAV8wCQYDVR0TBAIwADAtBglghkgBhvhCAQ0EIBYeRWFzeS1S
U0EgR2VuZXJhdGVkIENlcnRpZmljYXRlMB0GA1UdDgQWBBSyoGfvGro9Z3E4jErF
wbsdeXDOaDCB4QYDVR0jBIHZMIHWgBQSzWAE0qCAnnDtxpm4eyzGUv0ZoaGBsqSB
rzCBrDELMAkGA1UEBhMCVVMxCzAJBgNVBAgTAk9IMREwDwYDVQQHEwhDb2x1bWJ1
czESMBAGA1UEChMJVmlraW5nVlBOMR0wGwYDVQQLExRNeU9yZ2FuaXphdGlvbmFs
VW5pdDEVMBMGA1UEAxMMVmlraW5nVlBOIENBMRAwDgYDVQQpEwdFYXN5UlNBMSEw
HwYJKoZIhvcNAQkBFhJtZUBteWhvc3QubXlkb21haW6CCQDPNYXugL8qPjATBgNV
HSUEDDAKBggrBgEFBQcDAjALBgNVHQ8EBAMCB4AwDQYJKoZIhvcNAQELBQADggIB
AAsGAX5g8Ynvb0awxyX+cLr+qa/uqzB5mDBrWQ3Cf4vo+lzDYwscMzC8oWAw1IB/
U8hEY2Ks9+Bcc0V6Ch5s7zGkQz0rQe6qAiN2KHxjhwJNrdmmE5tXyBf/hzTEUVUU
PDtC17oceuz+WAqT3/iEbFluaT+6VKGn92jE4LUGU/DVd8Ll9+ieB2r1PjhG0q9H
MBdplbEdRpGe9+2/AOIsiRmKanCqluy7vDGlZgsMfPzMY0oiCRzQgjv1MBcCkiTM
Z1YnIoPwallW2mWjgF+/Yei3u4hFRyOZitiHT1ihrKguGQyMyhDylrd1kccNs3sG
lCIJThS0+yknO5BcuwtdQm2a3GWhIVoblgM/RQ5kLp3vfut5ZI5P8etH87tNHpgu
zN72fAqQfuBJJPItk7+bNLdzT+tmdv3MGYR5EpxwjFWhbr5OlEB8rm4ryjIOzDy5
wx8Ss93y9LCTGQ+Bu5NQ/PJIfYDlJmkDXUobm65yCgyvYEyX52H9Tih7VDzg+iEm
6V/anQMru6x+WFfF6+Nl1LbD2oDcoQBvPx2JOK53ExDzz/oqg8Pkm8eXS/456cs3
B4YFoLo/hAJOMmI+MokEaJKMYgJSjAaVIEAX7D5ndsy8NxMljpCClWYMUXDm8MUm
GRBrpMxotqzckr5tNh/Qfe7EZkwGkIyDDBRntRT5xw+p
-----END CERTIFICATE-----
