Certificate:
    Data:
        Version: 3 (0x2)
        Serial Number: 11888 (0x2e70)
    Signature Algorithm: sha256WithRSAEncryption
        Issuer: C=US, ST=OH, L=Columbus, O=VikingVPN, OU=MyOrganizationalUnit, CN=VikingVPN CA/name=EasyRSA/emailAddress=me@myhost.mydomain
        Validity
            Not Before: Sep 27 09:48:53 2017 GMT
            Not After : Sep 25 09:48:53 2027 GMT
        Subject: CN=Client3109Cert5d953c
        Subject Public Key Info:
            Public Key Algorithm: rsaEncryption
                Public-Key: (4096 bit)
                Modulus:
                    00:b9:81:40:64:23:3e:e9:ff:a1:25:fe:9b:e3:fc:
                    58:0b:e2:2d:73:87:73:94:d4:16:7f:3e:c7:13:8d:
                    85:01:10:66:27:b9:81:af:1d:93:ef:e5:9b:a5:c8:
                    af:3d:62:0b:8c:34:70:36:c8:ff:61:b1:3d:8a:c7:
                    66:de:b7:7b:7c:dd:ee:84:2e:22:ca:a5:62:30:80:
                    b5:bd:10:90:e7:05:32:b4:f3:da:a9:94:e6:f6:d4:
                    74:cc:b9:90:8c:36:af:81:18:08:13:3b:23:77:e4:
                    fc:a9:d8:ed:bc:6f:fe:f1:c6:21:09:c0:c4:0e:a0:
                    9e:99:f2:f6:66:19:29:1f:ec:0d:b1:85:82:18:6b:
                    63:de:61:f7:e8:4c:00:cc:ec:30:7e:bb:82:f4:d6:
                    fd:b0:12:25:3f:cc:f6:14:af:7f:70:a0:6a:98:b0:
                    e9:50:7d:6f:5d:b7:50:b5:89:07:f9:88:f7:78:f5:
                    e3:79:f8:1f:b9:b7:be:7d:4a:59:6f:b5:73:36:a2:
                    55:2a:09:a9:f4:59:49:23:8d:9e:25:6c:c4:3c:20:
                    21:b1:09:e3:2e:6a:a6:b9:ce:f2:f5:b1:cd:d5:55:
                    00:13:13:31:2f:50:45:c1:f2:67:b0:88:15:e8:a4:
                    32:ef:b3:8d:cb:25:14:f8:54:16:3a:53:44:ef:82:
                    13:be:d5:a3:66:ba:29:d6:ba:6a:eb:6b:0c:de:69:
                    5a:86:7e:72:2e:65:e0:f6:4a:30:1e:f3:37:7b:67:
                    ad:46:61:0a:34:f4:b3:0f:0d:ef:61:0d:85:b8:f3:
                    da:23:a9:41:0e:81:75:77:42:71:ff:2e:e2:15:85:
                    b0:15:4d:73:79:f1:58:74:03:b5:cc:4e:0f:f9:69:
                    9a:8e:5e:d0:d2:e0:7a:31:df:dc:3a:d6:8f:ed:d0:
                    71:36:5f:6b:a1:25:07:28:b8:65:db:2d:05:fd:30:
                    4a:bd:c2:01:78:2a:4b:e2:f8:91:0c:f0:51:03:54:
                    c9:eb:65:af:15:6a:84:e5:68:a3:3a:4f:2c:a7:2a:
                    be:26:d3:3b:fb:03:49:75:4f:e8:84:c7:e9:82:99:
                    b1:1e:b7:77:e0:36:eb:1b:13:4f:0c:9e:97:49:9f:
                    9d:7e:f9:e6:61:07:b1:61:44:0e:3a:be:56:52:ad:
                    45:b4:fe:e2:e5:be:27:b3:81:d7:9b:d6:7c:d7:f8:
                    d9:6c:0f:23:24:11:97:ec:25:24:24:f4:4c:6f:07:
                    f8:d6:cf:1d:69:dd:64:af:bf:db:d5:da:25:d4:6b:
                    d6:6d:e5:f5:20:9d:b4:51:f8:a4:18:4c:51:3a:60:
                    a9:5e:be:08:04:bc:35:58:68:18:35:06:80:08:61:
                    77:36:77
                Exponent: 65537 (0x10001)
        X509v3 extensions:
            X509v3 Basic Constraints: 
                CA:FALSE
            Netscape Comment: 
                Easy-RSA Generated Certificate
            X509v3 Subject Key Identifier: 
                69:5F:5E:19:DF:82:C2:E7:42:F2:47:6D:1A:01:6D:BE:E6:23:9B:F2
            X509v3 Authority Key Identifier: 
                keyid:12:CD:60:04:D2:A0:80:9E:70:ED:C6:99:B8:7B:2C:C6:52:FD:19:A1
                DirName:/C=US/ST=OH/L=Columbus/O=VikingVPN/OU=MyOrganizationalUnit/CN=VikingVPN CA/name=EasyRSA/emailAddress=me@myhost.mydomain
                serial:CF:35:85:EE:80:BF:2A:3E

            X509v3 Extended Key Usage: 
                TLS Web Client Authentication
            X509v3 Key Usage: 
                Digital Signature
    Signature Algorithm: sha256WithRSAEncryption
         d9:53:70:c2:50:ee:51:16:c1:68:f7:9a:48:33:bd:1f:8c:d7:
         d6:0c:6a:57:ad:67:53:5f:3e:42:18:c6:2c:f9:96:28:0e:1e:
         2d:00:24:2e:d8:50:eb:c8:53:39:62:0f:84:94:26:25:0d:cf:
         f6:ed:3f:36:50:80:08:f6:4c:b9:99:f9:1e:ee:88:fe:16:5d:
         7e:71:82:ad:37:04:05:1d:09:f5:5c:6d:85:00:cc:11:ca:22:
         b7:77:d9:3e:d2:0f:61:71:35:51:39:a1:4d:c6:67:31:2d:2a:
         ba:ec:13:e5:f3:7c:a5:67:ae:3a:43:14:9e:47:8f:13:0c:fe:
         63:a9:6d:0e:d4:55:5e:74:2e:21:c5:5e:37:05:53:e9:00:1a:
         2f:fd:25:56:92:bd:00:6d:0a:c9:8a:9e:03:bc:9a:f1:a4:db:
         81:20:98:9f:f1:16:db:b1:12:38:4a:c0:6f:34:45:a5:d0:68:
         7b:22:37:91:f8:62:c1:e1:8b:88:b1:ee:50:9b:75:2a:ec:07:
         45:38:71:3c:e2:2a:65:2f:4f:0b:f2:eb:f7:52:00:50:ac:10:
         5e:af:39:c6:d2:c3:f8:12:85:0c:72:c1:28:c2:e7:d9:e4:54:
         cf:00:fc:7b:f1:53:07:37:b3:ea:63:16:f3:52:f1:42:a7:5b:
         8c:6e:18:6c:e7:d6:a3:d2:0d:59:a4:ee:f8:9c:12:7d:2a:e2:
         8a:22:b1:98:f8:19:3f:f5:df:13:3d:02:dc:d0:24:b1:79:e1:
         d7:f6:06:d7:dd:9e:d1:b1:04:24:e1:c2:34:30:22:47:c9:0f:
         23:35:52:7a:0e:60:14:86:d9:0b:2d:25:ef:9f:c2:f7:e0:44:
         22:0c:ed:a7:c1:16:67:c8:4e:64:76:97:c8:53:c8:ed:d0:28:
         99:43:42:b9:a0:35:c9:1f:ce:42:0e:02:38:0a:ce:0f:64:48:
         ab:fb:8a:04:81:52:02:97:ca:b3:f9:22:f6:36:86:fa:11:84:
         e7:60:b9:97:da:23:59:c9:fc:c3:de:3b:64:5c:bb:33:e4:f6:
         e1:b7:9b:07:16:ee:27:4f:3f:fc:4e:d8:4c:f6:98:ef:de:50:
         09:14:16:5d:94:21:ec:f5:1c:8b:59:34:15:13:dd:ca:ac:6b:
         5a:2f:6b:43:15:74:c6:e4:c9:8f:b9:3d:f4:92:17:f0:9d:ba:
         83:96:e3:c2:11:79:91:2f:0c:46:b1:e2:ab:c0:db:99:1c:26:
         cc:55:c7:71:32:29:e5:bf:42:dc:04:eb:5a:ae:ba:f2:f6:0e:
         32:25:13:cc:f7:39:5a:2b:3f:31:8a:83:9c:77:e5:cf:ed:23:
         7d:5f:d0:49:ac:32:02:2c
-----BEGIN CERTIFICATE-----
MIIGrTCCBJWgAwIBAgICLnAwDQYJKoZIhvcNAQELBQAwgawxCzAJBgNVBAYTAlVT
MQswCQYDVQQIEwJPSDERMA8GA1UEBxMIQ29sdW1idXMxEjAQBgNVBAoTCVZpa2lu
Z1ZQTjEdMBsGA1UECxMUTXlPcmdhbml6YXRpb25hbFVuaXQxFTATBgNVBAMTDFZp
a2luZ1ZQTiBDQTEQMA4GA1UEKRMHRWFzeVJTQTEhMB8GCSqGSIb3DQEJARYSbWVA
bXlob3N0Lm15ZG9tYWluMB4XDTE3MDkyNzA5NDg1M1oXDTI3MDkyNTA5NDg1M1ow
HzEdMBsGA1UEAxMUQ2xpZW50MzEwOUNlcnQ1ZDk1M2MwggIiMA0GCSqGSIb3DQEB
AQUAA4ICDwAwggIKAoICAQC5gUBkIz7p/6El/pvj/FgL4i1zh3OU1BZ/PscTjYUB
EGYnuYGvHZPv5ZulyK89YguMNHA2yP9hsT2Kx2bet3t83e6ELiLKpWIwgLW9EJDn
BTK089qplOb21HTMuZCMNq+BGAgTOyN35Pyp2O28b/7xxiEJwMQOoJ6Z8vZmGSkf
7A2xhYIYa2PeYffoTADM7DB+u4L01v2wEiU/zPYUr39woGqYsOlQfW9dt1C1iQf5
iPd49eN5+B+5t759SllvtXM2olUqCan0WUkjjZ4lbMQ8ICGxCeMuaqa5zvL1sc3V
VQATEzEvUEXB8mewiBXopDLvs43LJRT4VBY6U0TvghO+1aNmuinWumrrawzeaVqG
fnIuZeD2SjAe8zd7Z61GYQo09LMPDe9hDYW489ojqUEOgXV3QnH/LuIVhbAVTXN5
8Vh0A7XMTg/5aZqOXtDS4Hox39w61o/t0HE2X2uhJQcouGXbLQX9MEq9wgF4Kkvi
+JEM8FEDVMnrZa8VaoTlaKM6TyynKr4m0zv7A0l1T+iEx+mCmbEet3fgNusbE08M
npdJn51++eZhB7FhRA46vlZSrUW0/uLlviezgdeb1nzX+NlsDyMkEZfsJSQk9Exv
B/jWzx1p3WSvv9vV2iXUa9Zt5fUgnbRR+KQYTFE6YKlevggEvDVYaBg1BoAIYXc2
dwIDAQABo4IBYzCCAV8wCQYDVR0TBAIwADAtBglghkgBhvhCAQ0EIBYeRWFzeS1S
U0EgR2VuZXJhdGVkIENlcnRpZmljYXRlMB0GA1UdDgQWBBRpX14Z34LC50LyR20a
AW2+5iOb8jCB4QYDVR0jBIHZMIHWgBQSzWAE0qCAnnDtxpm4eyzGUv0ZoaGBsqSB
rzCBrDELMAkGA1UEBhMCVVMxCzAJBgNVBAgTAk9IMREwDwYDVQQHEwhDb2x1bWJ1
czESMBAGA1UEChMJVmlraW5nVlBOMR0wGwYDVQQLExRNeU9yZ2FuaXphdGlvbmFs
VW5pdDEVMBMGA1UEAxMMVmlraW5nVlBOIENBMRAwDgYDVQQpEwdFYXN5UlNBMSEw
HwYJKoZIhvcNAQkBFhJtZUBteWhvc3QubXlkb21haW6CCQDPNYXugL8qPjATBgNV
HSUEDDAKBggrBgEFBQcDAjALBgNVHQ8EBAMCB4AwDQYJKoZIhvcNAQELBQADggIB
ANlTcMJQ7lEWwWj3mkgzvR+M19YMaletZ1NfPkIYxiz5ligOHi0AJC7YUOvIUzli
D4SUJiUNz/btPzZQgAj2TLmZ+R7uiP4WXX5xgq03BAUdCfVcbYUAzBHKIrd32T7S
D2FxNVE5oU3GZzEtKrrsE+XzfKVnrjpDFJ5HjxMM/mOpbQ7UVV50LiHFXjcFU+kA
Gi/9JVaSvQBtCsmKngO8mvGk24EgmJ/xFtuxEjhKwG80RaXQaHsiN5H4YsHhi4ix
7lCbdSrsB0U4cTziKmUvTwvy6/dSAFCsEF6vOcbSw/gShQxywSjC59nkVM8A/Hvx
Uwc3s+pjFvNS8UKnW4xuGGzn1qPSDVmk7vicEn0q4ooisZj4GT/13xM9AtzQJLF5
4df2BtfdntGxBCThwjQwIkfJDyM1UnoOYBSG2QstJe+fwvfgRCIM7afBFmfITmR2
l8hTyO3QKJlDQrmgNckfzkIOAjgKzg9kSKv7igSBUgKXyrP5IvY2hvoRhOdguZfa
I1nJ/MPeO2RcuzPk9uG3mwcW7idPP/xO2Ez2mO/eUAkUFl2UIez1HItZNBUT3cqs
a1ova0MVdMbkyY+5PfSSF/CduoOW48IReZEvDEax4qvA25kcJsxVx3EyKeW/QtwE
61quuvL2DjIlE8z3OVorPzGKg5x35c/tI31f0EmsMgIs
-----END CERTIFICATE-----
