Certificate:
    Data:
        Version: 3 (0x2)
        Serial Number: 11900 (0x2e7c)
    Signature Algorithm: sha256WithRSAEncryption
        Issuer: C=US, ST=OH, L=Columbus, O=VikingVPN, OU=MyOrganizationalUnit, CN=VikingVPN CA/name=EasyRSA/emailAddress=me@myhost.mydomain
        Validity
            Not Before: Sep 29 08:20:54 2017 GMT
            Not After : Sep 27 08:20:54 2027 GMT
        Subject: CN=Client2432Cert5e3812
        Subject Public Key Info:
            Public Key Algorithm: rsaEncryption
                Public-Key: (4096 bit)
                Modulus:
                    00:e1:63:e9:50:2d:07:cd:f4:c1:22:68:ff:a2:2a:
                    ba:a9:a3:63:8c:8c:b9:ce:e5:f5:55:76:7c:5e:b5:
                    a1:a8:4c:1c:25:54:a6:13:6c:5c:dd:6c:83:81:92:
                    ed:26:34:fa:e5:ce:34:c3:5a:ac:55:13:b3:16:9e:
                    5e:2a:4d:8c:c9:0f:6c:b4:b7:22:ff:ee:02:35:7b:
                    81:04:5f:da:38:5a:bb:56:7c:77:3a:15:63:7d:63:
                    d0:4a:0a:79:64:94:71:6a:1e:21:4e:e6:5e:f8:39:
                    e4:37:91:05:71:8f:d3:e3:e1:42:74:57:58:a6:73:
                    ea:7f:fe:2c:7e:ae:44:6d:f4:19:fc:b3:dd:66:fa:
                    31:ab:58:51:55:98:ea:7b:2f:41:17:c8:fb:af:66:
                    a5:a3:a2:f4:c5:cc:96:a0:0b:51:52:ae:08:cd:89:
                    45:79:53:db:c6:6b:37:21:2e:b5:b4:6e:6f:93:c7:
                    e0:ff:a7:40:2d:0d:08:df:a2:ee:ca:b4:cd:d5:ea:
                    b5:2b:0a:9d:1e:2b:c9:98:f1:32:22:f7:b4:fa:01:
                    af:1a:2e:a7:5c:fa:d0:fc:fb:da:84:65:53:f6:46:
                    88:0e:56:87:4b:53:4e:cc:a5:03:5c:42:7c:ce:24:
                    13:6e:b6:fd:77:2b:eb:e5:05:a3:ec:83:f6:56:25:
                    9c:b1:b5:12:09:ad:5a:97:db:a8:3e:76:11:c5:8b:
                    18:0f:ca:d0:a1:11:6d:e0:83:32:23:3a:6a:0a:46:
                    73:03:65:94:fc:ac:6d:3b:2c:03:74:c2:f2:a2:6e:
                    ba:b9:61:7f:cf:6c:6e:a3:1f:e6:4e:f5:3c:d1:91:
                    f4:b9:88:f1:df:ec:70:84:50:1a:09:7f:fd:bc:6d:
                    f8:07:64:69:05:ac:3a:aa:8e:f7:60:ed:95:b9:3d:
                    f3:e4:12:07:38:13:03:c5:2d:f1:ab:83:b1:3d:9a:
                    12:46:f8:b8:80:a9:09:18:ca:5d:9c:e9:c4:ee:5d:
                    0e:73:9b:1b:8c:75:31:29:85:88:7a:79:f0:22:f3:
                    7f:c6:34:7f:69:85:27:2e:7a:c7:b6:bc:63:b5:d8:
                    af:3d:a7:68:db:8c:08:2b:9f:77:02:c2:8d:b1:a3:
                    1d:5c:28:ab:be:c2:c3:16:2b:33:a7:99:52:01:6a:
                    a5:6a:e8:df:6a:1e:9a:de:e7:83:0e:39:d0:d1:96:
                    3d:e9:a4:05:28:27:27:13:f4:d9:fd:cc:52:31:77:
                    b9:2a:b6:bd:d3:ce:85:d9:86:a7:7a:84:ba:f2:72:
                    8e:dd:e7:84:d9:47:01:7d:de:a8:93:31:1a:5a:c4:
                    93:4b:c2:71:73:86:81:6e:e2:7f:3a:d0:47:82:96:
                    0b:e3:85
                Exponent: 65537 (0x10001)
        X509v3 extensions:
            X509v3 Basic Constraints: 
                CA:FALSE
            Netscape Comment: 
                Easy-RSA Generated Certificate
            X509v3 Subject Key Identifier: 
                08:50:D0:2C:E7:AE:03:5B:61:C0:ED:FF:5F:F8:A7:F0:00:D6:19:FA
            X509v3 Authority Key Identifier: 
                keyid:12:CD:60:04:D2:A0:80:9E:70:ED:C6:99:B8:7B:2C:C6:52:FD:19:A1
                DirName:/C=US/ST=OH/L=Columbus/O=VikingVPN/OU=MyOrganizationalUnit/CN=VikingVPN CA/name=EasyRSA/emailAddress=me@myhost.mydomain
                serial:CF:35:85:EE:80:BF:2A:3E

            X509v3 Extended Key Usage: 
                TLS Web Client Authentication
            X509v3 Key Usage: 
                Digital Signature
    Signature Algorithm: sha256WithRSAEncryption
         a1:7a:be:dd:01:73:ca:5e:c0:87:a6:cf:48:16:bf:f8:c5:bc:
         a4:bb:93:39:31:e0:91:d2:5c:3b:91:ac:fb:43:da:73:45:23:
         1e:32:28:6b:a1:d7:7b:92:07:d1:72:26:8d:c5:d8:00:76:df:
         76:19:29:18:b9:c1:0f:28:27:5a:0b:e8:a5:62:3f:f8:5d:f0:
         6e:1b:65:00:2e:8f:72:ac:ee:29:25:e9:9b:ee:dc:14:bc:a7:
         af:3b:37:3d:7d:28:0a:13:6a:e4:f2:04:b9:95:ec:e2:6b:d8:
         dd:d2:9d:66:84:77:b9:04:0e:3b:e0:5d:ec:a5:4e:d2:f8:71:
         e4:ad:b1:a2:e1:94:b7:ce:96:72:55:e7:b7:24:a0:9b:65:3e:
         3a:3c:15:16:d5:e0:44:fc:7d:46:96:f9:63:a1:bb:7e:31:31:
         d1:71:2e:6a:45:69:35:32:a9:71:c0:99:23:d4:44:d6:ab:c4:
         1b:57:19:e4:2a:e9:6d:27:f6:13:db:13:c7:71:8a:5c:0d:e1:
         8c:c9:1f:82:0e:ef:2f:f8:6d:1d:2a:f4:5c:e3:51:a8:46:56:
         12:29:b5:1f:c1:7a:7c:b7:05:e5:3b:e7:a2:82:bc:7f:35:b3:
         3d:f2:c7:d2:1a:ef:31:a3:17:91:7a:ab:8c:64:c8:5c:b5:79:
         f8:54:79:25:2c:55:b2:4e:e5:26:a4:d0:3c:e0:1d:87:c1:78:
         e8:91:34:4b:1a:11:66:ab:2b:58:1d:0d:73:d3:2d:63:b1:ae:
         32:75:4e:ae:e0:9f:bf:9d:e8:72:98:4e:85:f8:a8:ae:7f:8a:
         c2:19:6e:39:e1:99:c0:78:7d:6e:87:e1:bf:ae:95:5f:8e:9f:
         24:71:a8:58:2b:74:0e:61:2c:b3:67:20:23:9a:6b:cf:fd:7c:
         9a:83:b5:e2:7f:04:24:cb:d0:fd:10:98:cf:d6:24:b0:1a:d2:
         22:f5:c3:e7:fa:79:97:cd:ca:04:60:f4:11:c4:45:c6:38:98:
         25:d6:8e:51:89:6a:bd:03:70:c0:f2:d8:5a:1a:39:8a:03:40:
         5b:98:9f:b7:e1:fb:18:52:54:d9:4b:5c:02:6f:82:e1:96:9d:
         d0:63:a7:be:f1:01:98:ed:54:61:d3:1d:cb:a1:c1:bf:a8:c5:
         ea:df:21:d8:da:e4:fc:ac:86:c3:f2:1f:2b:0a:c3:8b:89:61:
         7f:e1:8f:51:2c:87:99:6b:32:12:99:f4:a4:30:68:e1:af:ef:
         25:8d:50:03:39:31:2f:ab:13:c3:c2:20:3d:16:18:d5:b5:8f:
         96:3b:24:1c:1a:79:f6:05:65:78:da:a9:8a:95:01:3b:06:b0:
         63:3f:7c:98:0c:55:55:b6
-----BEGIN CERTIFICATE-----
MIIGrTCCBJWgAwIBAgICLnwwDQYJKoZIhvcNAQELBQAwgawxCzAJBgNVBAYTAlVT
MQswCQYDVQQIEwJPSDERMA8GA1UEBxMIQ29sdW1idXMxEjAQBgNVBAoTCVZpa2lu
Z1ZQTjEdMBsGA1UECxMUTXlPcmdhbml6YXRpb25hbFVuaXQxFTATBgNVBAMTDFZp
a2luZ1ZQTiBDQTEQMA4GA1UEKRMHRWFzeVJTQTEhMB8GCSqGSIb3DQEJARYSbWVA
bXlob3N0Lm15ZG9tYWluMB4XDTE3MDkyOTA4MjA1NFoXDTI3MDkyNzA4MjA1NFow
HzEdMBsGA1UEAxMUQ2xpZW50MjQzMkNlcnQ1ZTM4MTIwggIiMA0GCSqGSIb3DQEB
AQUAA4ICDwAwggIKAoICAQDhY+lQLQfN9MEiaP+iKrqpo2OMjLnO5fVVdnxetaGo
TBwlVKYTbFzdbIOBku0mNPrlzjTDWqxVE7MWnl4qTYzJD2y0tyL/7gI1e4EEX9o4
WrtWfHc6FWN9Y9BKCnlklHFqHiFO5l74OeQ3kQVxj9Pj4UJ0V1imc+p//ix+rkRt
9Bn8s91m+jGrWFFVmOp7L0EXyPuvZqWjovTFzJagC1FSrgjNiUV5U9vGazchLrW0
bm+Tx+D/p0AtDQjfou7KtM3V6rUrCp0eK8mY8TIi97T6Aa8aLqdc+tD8+9qEZVP2
RogOVodLU07MpQNcQnzOJBNutv13K+vlBaPsg/ZWJZyxtRIJrVqX26g+dhHFixgP
ytChEW3ggzIjOmoKRnMDZZT8rG07LAN0wvKibrq5YX/PbG6jH+ZO9TzRkfS5iPHf
7HCEUBoJf/28bfgHZGkFrDqqjvdg7ZW5PfPkEgc4EwPFLfGrg7E9mhJG+LiAqQkY
yl2c6cTuXQ5zmxuMdTEphYh6efAi83/GNH9phScuese2vGO12K89p2jbjAgrn3cC
wo2xox1cKKu+wsMWKzOnmVIBaqVq6N9qHpre54MOOdDRlj3ppAUoJycT9Nn9zFIx
d7kqtr3TzoXZhqd6hLryco7d54TZRwF93qiTMRpaxJNLwnFzhoFu4n860EeClgvj
hQIDAQABo4IBYzCCAV8wCQYDVR0TBAIwADAtBglghkgBhvhCAQ0EIBYeRWFzeS1S
U0EgR2VuZXJhdGVkIENlcnRpZmljYXRlMB0GA1UdDgQWBBQIUNAs564DW2HA7f9f
+KfwANYZ+jCB4QYDVR0jBIHZMIHWgBQSzWAE0qCAnnDtxpm4eyzGUv0ZoaGBsqSB
rzCBrDELMAkGA1UEBhMCVVMxCzAJBgNVBAgTAk9IMREwDwYDVQQHEwhDb2x1bWJ1
czESMBAGA1UEChMJVmlraW5nVlBOMR0wGwYDVQQLExRNeU9yZ2FuaXphdGlvbmFs
VW5pdDEVMBMGA1UEAxMMVmlraW5nVlBOIENBMRAwDgYDVQQpEwdFYXN5UlNBMSEw
HwYJKoZIhvcNAQkBFhJtZUBteWhvc3QubXlkb21haW6CCQDPNYXugL8qPjATBgNV
HSUEDDAKBggrBgEFBQcDAjALBgNVHQ8EBAMCB4AwDQYJKoZIhvcNAQELBQADggIB
AKF6vt0Bc8pewIemz0gWv/jFvKS7kzkx4JHSXDuRrPtD2nNFIx4yKGuh13uSB9Fy
Jo3F2AB233YZKRi5wQ8oJ1oL6KViP/hd8G4bZQAuj3Ks7ikl6Zvu3BS8p687Nz19
KAoTauTyBLmV7OJr2N3SnWaEd7kEDjvgXeylTtL4ceStsaLhlLfOlnJV57ckoJtl
Pjo8FRbV4ET8fUaW+WOhu34xMdFxLmpFaTUyqXHAmSPURNarxBtXGeQq6W0n9hPb
E8dxilwN4YzJH4IO7y/4bR0q9FzjUahGVhIptR/Beny3BeU756KCvH81sz3yx9Ia
7zGjF5F6q4xkyFy1efhUeSUsVbJO5Sak0DzgHYfBeOiRNEsaEWarK1gdDXPTLWOx
rjJ1Tq7gn7+d6HKYToX4qK5/isIZbjnhmcB4fW6H4b+ulV+OnyRxqFgrdA5hLLNn
ICOaa8/9fJqDteJ/BCTL0P0QmM/WJLAa0iL1w+f6eZfNygRg9BHERcY4mCXWjlGJ
ar0DcMDy2FoaOYoDQFuYn7fh+xhSVNlLXAJvguGWndBjp77xAZjtVGHTHcuhwb+o
xerfIdja5PyshsPyHysKw4uJYX/hj1Esh5lrMhKZ9KQwaOGv7yWNUAM5MS+rE8PC
ID0WGNW1j5Y7JBwaefYFZXjaqYqVATsGsGM/fJgMVVW2
-----END CERTIFICATE-----
