Certificate:
    Data:
        Version: 3 (0x2)
        Serial Number: 11910 (0x2e86)
    Signature Algorithm: sha256WithRSAEncryption
        Issuer: C=US, ST=OH, L=Columbus, O=VikingVPN, OU=MyOrganizationalUnit, CN=VikingVPN CA/name=EasyRSA/emailAddress=me@myhost.mydomain
        Validity
            Not Before: Sep 30 13:26:44 2017 GMT
            Not After : Sep 28 13:26:44 2027 GMT
        Subject: CN=Client2866Cert280d30
        Subject Public Key Info:
            Public Key Algorithm: rsaEncryption
                Public-Key: (4096 bit)
                Modulus:
                    00:b6:6b:6b:4b:82:60:7d:25:9c:89:4e:4e:0d:53:
                    57:d9:b5:fb:7a:a1:fd:0e:6f:8b:ad:e2:06:36:11:
                    b3:48:68:7c:3e:5d:9d:de:10:a6:59:1b:e2:d7:5e:
                    39:ef:62:1b:ba:2c:b4:63:aa:44:53:10:8e:5d:8e:
                    f7:50:73:c3:4e:18:c3:58:d2:91:2f:fc:50:35:4c:
                    7e:8c:18:7a:53:ed:cc:47:0d:37:aa:c9:1e:b7:1e:
                    16:2f:0b:27:26:49:9a:e6:90:50:76:bd:ef:f2:b7:
                    69:b0:3e:08:6d:64:81:63:fe:2a:4e:cf:5c:3f:be:
                    7e:bf:8f:e6:03:06:8f:9a:5a:11:e0:ad:64:36:7c:
                    0d:e3:76:28:a9:fa:a1:46:34:a5:1a:8a:9b:bc:99:
                    77:57:7f:fe:33:06:8e:27:8b:6b:8e:36:67:84:34:
                    e0:cb:37:bc:1a:19:a9:7a:b5:3a:b5:1f:fd:37:6a:
                    6c:ed:f7:12:92:27:cb:ce:a0:2c:89:5b:9d:0b:9b:
                    50:11:af:99:39:2e:8c:12:8d:ec:32:b2:df:4b:6e:
                    3f:f8:70:01:2b:80:53:b4:df:17:84:27:98:9f:7e:
                    5d:8b:de:ce:9a:ec:60:93:b1:c0:37:71:36:a9:93:
                    53:4c:1a:27:59:12:fc:ed:7b:11:5b:ed:d6:d2:a5:
                    a5:d8:a6:c9:2a:b3:5a:99:73:4b:34:16:b3:0e:54:
                    27:ed:a0:04:eb:dc:4b:5a:b1:16:e4:e2:7e:6a:8b:
                    c2:38:ed:0a:4f:6d:3a:ad:3f:c2:c5:f5:f4:2a:64:
                    0e:46:e9:75:03:f3:64:6f:d6:af:d8:d0:a5:77:72:
                    26:11:a1:7c:42:7d:8c:c4:cd:9f:b2:46:9b:13:6f:
                    dc:a1:66:22:98:29:cb:3d:a5:3f:dd:2b:71:ca:0b:
                    20:d9:08:fc:ca:87:90:95:0d:c0:66:95:fc:5f:32:
                    93:c9:45:7d:bc:4d:60:07:94:d8:e8:07:98:bc:bd:
                    a3:7d:38:98:e1:d1:cd:bf:b0:26:b2:00:f5:ab:45:
                    20:15:9e:ad:4c:ee:3d:55:d7:36:eb:83:06:57:84:
                    ca:da:23:46:2d:0d:47:ea:7b:98:be:f5:7b:48:33:
                    a5:70:71:29:58:aa:98:4d:c7:09:7a:79:ff:59:a1:
                    95:6c:3f:77:0e:49:d6:b1:7c:0d:b9:96:93:d5:81:
                    a4:f7:7d:22:33:16:1c:4c:96:7f:a3:c5:48:6d:fc:
                    93:f1:51:3f:62:ba:33:eb:eb:5c:72:97:97:44:0a:
                    51:00:3b:df:fd:36:d7:e2:93:7a:4a:51:c6:cc:5a:
                    38:c8:90:c3:9b:bf:93:31:83:ca:28:b0:f6:c5:66:
                    ef:30:65
                Exponent: 65537 (0x10001)
        X509v3 extensions:
            X509v3 Basic Constraints: 
                CA:FALSE
            Netscape Comment: 
                Easy-RSA Generated Certificate
            X509v3 Subject Key Identifier: 
                78:74:AF:09:FA:AC:65:DD:74:B2:F9:EE:B8:C4:E9:8B:8F:95:70:49
            X509v3 Authority Key Identifier: 
                keyid:12:CD:60:04:D2:A0:80:9E:70:ED:C6:99:B8:7B:2C:C6:52:FD:19:A1
                DirName:/C=US/ST=OH/L=Columbus/O=VikingVPN/OU=MyOrganizationalUnit/CN=VikingVPN CA/name=EasyRSA/emailAddress=me@myhost.mydomain
                serial:CF:35:85:EE:80:BF:2A:3E

            X509v3 Extended Key Usage: 
                TLS Web Client Authentication
            X509v3 Key Usage: 
                Digital Signature
    Signature Algorithm: sha256WithRSAEncryption
         d7:34:72:d4:ea:25:d0:b1:73:30:84:88:3e:71:f6:05:7c:47:
         43:75:6f:3e:c2:91:0a:69:51:c9:29:ef:fc:b6:f1:10:df:c4:
         d9:94:89:15:51:f3:2d:e1:b0:66:63:c1:69:80:f1:16:16:1d:
         c4:81:29:18:51:5e:01:87:09:d7:f5:ed:a8:86:2e:67:e3:a5:
         d1:e7:87:c8:2a:25:0a:8a:ac:80:19:5f:64:73:5c:ff:85:4d:
         58:1d:87:ee:2c:a3:dd:ff:50:fc:67:92:b9:8c:f7:62:b4:24:
         a1:c3:0e:c4:c9:7b:d3:25:02:c7:2d:9f:72:c3:53:f0:30:86:
         e2:96:c9:f8:26:d6:dc:e1:34:1e:9f:b9:e4:dc:89:51:18:04:
         55:ff:9b:63:79:45:76:0e:b0:db:c1:0d:ea:f7:e3:cd:fd:f5:
         f6:64:53:a2:19:7d:73:f2:5e:4e:84:56:5a:ad:5c:42:a6:6b:
         c8:98:30:65:f4:d3:00:5b:f9:f3:f9:ab:6a:ab:39:76:75:28:
         c2:11:b5:3f:ce:a0:28:38:5f:ca:28:f0:0b:19:64:58:05:d6:
         c6:b6:d7:e4:b6:bd:cb:80:98:b0:38:25:c0:16:7a:2b:06:92:
         31:1a:ee:a3:40:5b:e2:03:ba:49:97:d6:0d:99:29:6b:b0:d5:
         4c:b8:75:89:b7:88:27:b7:0a:d8:a7:7d:d5:d1:a3:90:59:ea:
         f7:77:3e:2b:32:60:16:7a:c7:ce:6a:86:2b:29:69:9c:67:39:
         da:94:40:e9:30:d8:93:86:db:de:91:0a:40:05:e9:7a:63:17:
         28:15:db:ce:c9:85:34:e0:60:1e:58:9f:ec:2a:e2:f3:42:1d:
         3f:0c:b2:df:83:cc:4c:d7:8c:e0:c0:c8:af:39:be:ef:4d:60:
         1c:02:b9:ca:16:a9:06:a0:5f:b6:cd:22:4f:8a:fe:57:14:12:
         c4:a7:75:d6:49:dc:75:ee:64:bc:b9:00:1b:87:dc:08:fa:4d:
         89:78:38:98:b8:5c:e2:78:53:a2:3f:0c:cc:20:c7:88:f7:44:
         4a:a8:6f:99:e6:2e:ae:fd:7c:78:d1:42:39:68:a2:6c:14:8d:
         df:b5:52:94:a3:79:f3:3b:be:cf:a4:29:bc:86:82:75:90:74:
         c2:51:b4:a8:73:10:82:3e:91:f1:8a:11:f5:0d:37:08:f0:9c:
         67:09:30:d1:2b:0c:4b:b3:58:42:8d:a4:19:e7:b9:bd:8a:d8:
         ec:2c:dd:e3:13:b6:20:1b:09:28:4c:6e:17:bf:8f:0e:5b:8e:
         29:9b:c4:3f:59:8f:2e:da:f1:c0:04:8a:7c:71:58:68:f7:f7:
         5d:42:85:7c:4a:8f:09:3c
-----BEGIN CERTIFICATE-----
MIIGrTCCBJWgAwIBAgICLoYwDQYJKoZIhvcNAQELBQAwgawxCzAJBgNVBAYTAlVT
MQswCQYDVQQIEwJPSDERMA8GA1UEBxMIQ29sdW1idXMxEjAQBgNVBAoTCVZpa2lu
Z1ZQTjEdMBsGA1UECxMUTXlPcmdhbml6YXRpb25hbFVuaXQxFTATBgNVBAMTDFZp
a2luZ1ZQTiBDQTEQMA4GA1UEKRMHRWFzeVJTQTEhMB8GCSqGSIb3DQEJARYSbWVA
bXlob3N0Lm15ZG9tYWluMB4XDTE3MDkzMDEzMjY0NFoXDTI3MDkyODEzMjY0NFow
HzEdMBsGA1UEAxMUQ2xpZW50Mjg2NkNlcnQyODBkMzAwggIiMA0GCSqGSIb3DQEB
AQUAA4ICDwAwggIKAoICAQC2a2tLgmB9JZyJTk4NU1fZtft6of0Ob4ut4gY2EbNI
aHw+XZ3eEKZZG+LXXjnvYhu6LLRjqkRTEI5djvdQc8NOGMNY0pEv/FA1TH6MGHpT
7cxHDTeqyR63HhYvCycmSZrmkFB2ve/yt2mwPghtZIFj/ipOz1w/vn6/j+YDBo+a
WhHgrWQ2fA3jdiip+qFGNKUaipu8mXdXf/4zBo4ni2uONmeENODLN7waGal6tTq1
H/03amzt9xKSJ8vOoCyJW50Lm1ARr5k5LowSjewyst9Lbj/4cAErgFO03xeEJ5if
fl2L3s6a7GCTscA3cTapk1NMGidZEvztexFb7dbSpaXYpskqs1qZc0s0FrMOVCft
oATr3EtasRbk4n5qi8I47QpPbTqtP8LF9fQqZA5G6XUD82Rv1q/Y0KV3ciYRoXxC
fYzEzZ+yRpsTb9yhZiKYKcs9pT/dK3HKCyDZCPzKh5CVDcBmlfxfMpPJRX28TWAH
lNjoB5i8vaN9OJjh0c2/sCayAPWrRSAVnq1M7j1V1zbrgwZXhMraI0YtDUfqe5i+
9XtIM6VwcSlYqphNxwl6ef9ZoZVsP3cOSdaxfA25lpPVgaT3fSIzFhxMln+jxUht
/JPxUT9iujPr61xyl5dEClEAO9/9Ntfik3pKUcbMWjjIkMObv5Mxg8oosPbFZu8w
ZQIDAQABo4IBYzCCAV8wCQYDVR0TBAIwADAtBglghkgBhvhCAQ0EIBYeRWFzeS1S
U0EgR2VuZXJhdGVkIENlcnRpZmljYXRlMB0GA1UdDgQWBBR4dK8J+qxl3XSy+e64
xOmLj5VwSTCB4QYDVR0jBIHZMIHWgBQSzWAE0qCAnnDtxpm4eyzGUv0ZoaGBsqSB
rzCBrDELMAkGA1UEBhMCVVMxCzAJBgNVBAgTAk9IMREwDwYDVQQHEwhDb2x1bWJ1
czESMBAGA1UEChMJVmlraW5nVlBOMR0wGwYDVQQLExRNeU9yZ2FuaXphdGlvbmFs
VW5pdDEVMBMGA1UEAxMMVmlraW5nVlBOIENBMRAwDgYDVQQpEwdFYXN5UlNBMSEw
HwYJKoZIhvcNAQkBFhJtZUBteWhvc3QubXlkb21haW6CCQDPNYXugL8qPjATBgNV
HSUEDDAKBggrBgEFBQcDAjALBgNVHQ8EBAMCB4AwDQYJKoZIhvcNAQELBQADggIB
ANc0ctTqJdCxczCEiD5x9gV8R0N1bz7CkQppUckp7/y28RDfxNmUiRVR8y3hsGZj
wWmA8RYWHcSBKRhRXgGHCdf17aiGLmfjpdHnh8gqJQqKrIAZX2RzXP+FTVgdh+4s
o93/UPxnkrmM92K0JKHDDsTJe9MlAsctn3LDU/AwhuKWyfgm1tzhNB6fueTciVEY
BFX/m2N5RXYOsNvBDer348399fZkU6IZfXPyXk6EVlqtXEKma8iYMGX00wBb+fP5
q2qrOXZ1KMIRtT/OoCg4X8oo8AsZZFgF1sa21+S2vcuAmLA4JcAWeisGkjEa7qNA
W+IDukmX1g2ZKWuw1Uy4dYm3iCe3CtinfdXRo5BZ6vd3PisyYBZ6x85qhispaZxn
OdqUQOkw2JOG296RCkAF6XpjFygV287JhTTgYB5Yn+wq4vNCHT8Mst+DzEzXjODA
yK85vu9NYBwCucoWqQagX7bNIk+K/lcUEsSnddZJ3HXuZLy5ABuH3Aj6TYl4OJi4
XOJ4U6I/DMwgx4j3REqob5nmLq79fHjRQjloomwUjd+1UpSjefM7vs+kKbyGgnWQ
dMJRtKhzEII+kfGKEfUNNwjwnGcJMNErDEuzWEKNpBnnub2K2Ows3eMTtiAbCShM
bhe/jw5bjimbxD9Zjy7a8cAEinxxWGj3911ChXxKjwk8
-----END CERTIFICATE-----
