Certificate:
    Data:
        Version: 3 (0x2)
        Serial Number: 11913 (0x2e89)
    Signature Algorithm: sha256WithRSAEncryption
        Issuer: C=US, ST=OH, L=Columbus, O=VikingVPN, OU=MyOrganizationalUnit, CN=VikingVPN CA/name=EasyRSA/emailAddress=me@myhost.mydomain
        Validity
            Not Before: Oct  1 17:25:21 2017 GMT
            Not After : Sep 29 17:25:21 2027 GMT
        Subject: CN=Client2816Certa9a412
        Subject Public Key Info:
            Public Key Algorithm: rsaEncryption
                Public-Key: (4096 bit)
                Modulus:
                    00:a9:19:21:32:93:5f:85:ae:b3:53:f3:8c:e7:07:
                    b0:62:fe:2d:9e:7e:8f:7d:0a:6f:fb:ad:4d:50:73:
                    28:8c:d1:e5:1d:98:e3:b4:1d:e0:61:13:b4:88:c5:
                    01:e5:2f:ae:47:b3:46:93:c3:5a:35:21:22:8d:8f:
                    fa:55:38:e7:58:6f:b5:75:87:1a:c9:9b:83:bf:fd:
                    03:44:cf:f0:2d:ca:43:fb:a5:54:ba:68:65:ad:ff:
                    ff:7f:00:00:ed:9d:6b:2f:2d:d4:a9:50:61:50:0d:
                    dc:5c:42:dd:20:0e:06:a7:f5:77:65:58:b4:0d:f9:
                    62:3b:b9:6c:72:c2:d6:c8:5d:77:e1:0c:af:54:b2:
                    9e:f2:cd:6d:74:9c:0f:61:f2:d3:04:4a:8f:31:c8:
                    0a:9c:ac:04:e2:f2:af:d3:50:18:21:b4:3d:44:69:
                    60:32:90:84:1a:3e:ef:09:af:5c:ae:86:1d:1c:9e:
                    7f:6e:15:75:31:e8:2b:95:98:b0:2d:ef:c1:59:d1:
                    e2:87:77:c9:08:57:50:d0:15:0a:a7:37:09:99:e1:
                    74:d4:03:2f:75:e8:54:33:b8:ab:da:ea:d6:4d:8c:
                    23:7f:70:d4:6b:cc:56:62:6c:3e:38:7f:71:22:78:
                    7e:d7:a7:d8:e5:9a:84:0e:d0:6b:80:87:36:72:18:
                    3c:43:89:9f:4d:90:be:30:07:b2:17:83:98:4b:05:
                    ad:ef:d9:2e:52:af:3d:88:dd:92:4c:06:56:08:f1:
                    d4:43:01:94:5e:73:9b:fc:25:26:80:3d:0a:f9:50:
                    83:54:5e:2d:c2:93:f9:a7:3a:0e:66:24:dc:57:c7:
                    c1:db:e0:26:a3:f7:89:fc:d2:bc:e4:65:ae:68:c6:
                    84:8d:95:bd:eb:30:d6:10:c6:9b:8d:34:fd:00:a0:
                    a4:a1:21:3e:d9:56:58:f7:81:92:7d:70:a3:33:34:
                    de:c8:2f:03:f1:1c:ea:75:c7:89:e2:35:df:58:52:
                    93:2b:fb:a9:d1:08:1b:6d:e8:67:7e:a5:05:98:6f:
                    5c:6c:f2:51:7d:2c:88:c8:a9:2d:55:97:f3:a3:09:
                    ef:d9:4b:c1:91:b1:0a:e0:13:fb:b4:33:ad:46:41:
                    04:8d:11:1e:b2:f7:ac:6c:5f:9e:c9:c1:a2:5b:c2:
                    9b:5e:0a:63:7b:c5:d0:c3:5b:0b:bf:97:12:a6:da:
                    cf:73:60:da:f9:74:01:08:ce:b2:4e:e3:8a:21:19:
                    3a:2b:0d:c5:3b:fc:c2:53:f9:9f:63:38:61:78:09:
                    a9:ee:81:63:8b:01:1d:1b:52:41:ec:bf:56:ed:06:
                    a7:93:00:f9:6d:80:6c:3c:1b:07:f4:aa:5a:d6:1e:
                    73:30:f7
                Exponent: 65537 (0x10001)
        X509v3 extensions:
            X509v3 Basic Constraints: 
                CA:FALSE
            Netscape Comment: 
                Easy-RSA Generated Certificate
            X509v3 Subject Key Identifier: 
                62:01:DD:D6:7D:A8:BD:8B:AA:02:D1:F3:65:FC:CB:09:E2:C6:13:C5
            X509v3 Authority Key Identifier: 
                keyid:12:CD:60:04:D2:A0:80:9E:70:ED:C6:99:B8:7B:2C:C6:52:FD:19:A1
                DirName:/C=US/ST=OH/L=Columbus/O=VikingVPN/OU=MyOrganizationalUnit/CN=VikingVPN CA/name=EasyRSA/emailAddress=me@myhost.mydomain
                serial:CF:35:85:EE:80:BF:2A:3E

            X509v3 Extended Key Usage: 
                TLS Web Client Authentication
            X509v3 Key Usage: 
                Digital Signature
    Signature Algorithm: sha256WithRSAEncryption
         6d:e5:fb:c9:b5:aa:da:c4:02:ad:d0:b8:31:79:1a:92:e0:1a:
         e6:49:b6:be:48:a6:c2:85:27:b2:12:2b:97:28:b6:f9:46:93:
         fb:3a:8e:e4:05:04:31:7c:68:aa:48:09:d0:9e:5f:1a:89:26:
         5e:ca:25:43:29:81:90:e2:63:48:b2:e2:75:93:43:8d:d7:fd:
         06:94:83:3c:be:ce:c1:10:20:c7:43:b4:ac:b1:02:de:4c:c2:
         ad:ec:bf:a8:4e:7e:52:db:1c:2f:1c:39:ec:ad:ef:92:f0:2c:
         75:f4:3a:fb:3f:62:e3:45:d3:b0:ab:0d:22:bb:38:ef:0e:c4:
         25:ce:92:ac:c4:72:76:15:fb:cc:cd:ae:c6:5a:cd:72:5a:da:
         51:e7:fe:b0:34:9c:be:9e:5c:27:0d:90:4f:fe:1d:8f:fe:ad:
         43:2b:fa:b7:93:6f:d3:18:46:ac:20:e8:3c:84:8e:a0:e9:62:
         88:12:58:d3:5d:f5:23:7d:0d:91:20:6d:b9:0c:28:25:78:c9:
         ff:5f:69:3c:b2:f6:47:16:cc:ba:df:1a:7e:66:00:a2:0f:60:
         eb:a3:1b:0c:56:54:09:42:a5:83:38:eb:f2:1f:ab:45:74:42:
         4d:71:9c:85:e9:ca:6f:7c:d6:ad:cc:7a:fc:1e:c6:cd:8f:99:
         b0:06:52:f0:66:b0:e6:49:25:f1:e9:3d:a9:08:f9:2d:17:80:
         66:39:6f:dc:35:f2:32:bc:e5:f1:c0:03:41:ec:23:d2:22:39:
         74:4e:bc:08:cd:ff:fe:96:eb:bd:72:77:6f:37:c0:00:fd:a0:
         e9:c2:ae:0d:0d:5a:1a:4a:ef:4d:f2:2e:39:6c:87:2b:26:8a:
         8c:55:c0:6d:5b:91:00:42:0c:34:ab:9e:ee:22:4e:21:bd:d0:
         8b:75:d8:7f:47:32:0d:b6:8e:96:2d:85:9c:d4:9d:68:fd:f0:
         d4:7e:67:14:f9:77:df:92:7c:f1:49:a3:a0:09:ef:b0:9f:46:
         13:e3:79:80:1d:60:0f:3e:28:a8:d1:dd:db:18:56:1e:0b:8d:
         c0:c4:67:17:87:cb:18:5c:cc:0b:a0:07:08:b2:49:5e:be:59:
         30:49:6b:b4:80:9d:a9:01:ec:83:3b:cb:6b:99:dc:ed:c9:82:
         58:99:90:4a:d8:f6:ff:35:ff:ab:ad:3e:5c:74:fa:21:4e:c8:
         17:ab:80:d2:ea:6f:e9:36:9b:7e:38:bc:c8:de:ff:d8:e0:c8:
         79:d4:f7:65:0d:49:3d:7e:4f:ab:2a:ab:2d:5d:e4:6f:cc:e0:
         ad:d6:19:b0:80:a8:b5:b7:52:2f:4e:97:a0:68:f0:ce:0f:a9:
         db:ad:e7:e9:60:a3:9a:b3
-----BEGIN CERTIFICATE-----
MIIGrTCCBJWgAwIBAgICLokwDQYJKoZIhvcNAQELBQAwgawxCzAJBgNVBAYTAlVT
MQswCQYDVQQIEwJPSDERMA8GA1UEBxMIQ29sdW1idXMxEjAQBgNVBAoTCVZpa2lu
Z1ZQTjEdMBsGA1UECxMUTXlPcmdhbml6YXRpb25hbFVuaXQxFTATBgNVBAMTDFZp
a2luZ1ZQTiBDQTEQMA4GA1UEKRMHRWFzeVJTQTEhMB8GCSqGSIb3DQEJARYSbWVA
bXlob3N0Lm15ZG9tYWluMB4XDTE3MTAwMTE3MjUyMVoXDTI3MDkyOTE3MjUyMVow
HzEdMBsGA1UEAxMUQ2xpZW50MjgxNkNlcnRhOWE0MTIwggIiMA0GCSqGSIb3DQEB
AQUAA4ICDwAwggIKAoICAQCpGSEyk1+FrrNT84znB7Bi/i2efo99Cm/7rU1QcyiM
0eUdmOO0HeBhE7SIxQHlL65Hs0aTw1o1ISKNj/pVOOdYb7V1hxrJm4O//QNEz/At
ykP7pVS6aGWt//9/AADtnWsvLdSpUGFQDdxcQt0gDgan9XdlWLQN+WI7uWxywtbI
XXfhDK9Usp7yzW10nA9h8tMESo8xyAqcrATi8q/TUBghtD1EaWAykIQaPu8Jr1yu
hh0cnn9uFXUx6CuVmLAt78FZ0eKHd8kIV1DQFQqnNwmZ4XTUAy916FQzuKva6tZN
jCN/cNRrzFZibD44f3EieH7Xp9jlmoQO0GuAhzZyGDxDiZ9NkL4wB7IXg5hLBa3v
2S5Srz2I3ZJMBlYI8dRDAZRec5v8JSaAPQr5UINUXi3Ck/mnOg5mJNxXx8Hb4Caj
94n80rzkZa5oxoSNlb3rMNYQxpuNNP0AoKShIT7ZVlj3gZJ9cKMzNN7ILwPxHOp1
x4niNd9YUpMr+6nRCBtt6Gd+pQWYb1xs8lF9LIjIqS1Vl/OjCe/ZS8GRsQrgE/u0
M61GQQSNER6y96xsX57JwaJbwpteCmN7xdDDWwu/lxKm2s9zYNr5dAEIzrJO44oh
GTorDcU7/MJT+Z9jOGF4CanugWOLAR0bUkHsv1btBqeTAPltgGw8Gwf0qlrWHnMw
9wIDAQABo4IBYzCCAV8wCQYDVR0TBAIwADAtBglghkgBhvhCAQ0EIBYeRWFzeS1S
U0EgR2VuZXJhdGVkIENlcnRpZmljYXRlMB0GA1UdDgQWBBRiAd3Wfai9i6oC0fNl
/MsJ4sYTxTCB4QYDVR0jBIHZMIHWgBQSzWAE0qCAnnDtxpm4eyzGUv0ZoaGBsqSB
rzCBrDELMAkGA1UEBhMCVVMxCzAJBgNVBAgTAk9IMREwDwYDVQQHEwhDb2x1bWJ1
czESMBAGA1UEChMJVmlraW5nVlBOMR0wGwYDVQQLExRNeU9yZ2FuaXphdGlvbmFs
VW5pdDEVMBMGA1UEAxMMVmlraW5nVlBOIENBMRAwDgYDVQQpEwdFYXN5UlNBMSEw
HwYJKoZIhvcNAQkBFhJtZUBteWhvc3QubXlkb21haW6CCQDPNYXugL8qPjATBgNV
HSUEDDAKBggrBgEFBQcDAjALBgNVHQ8EBAMCB4AwDQYJKoZIhvcNAQELBQADggIB
AG3l+8m1qtrEAq3QuDF5GpLgGuZJtr5IpsKFJ7ISK5cotvlGk/s6juQFBDF8aKpI
CdCeXxqJJl7KJUMpgZDiY0iy4nWTQ43X/QaUgzy+zsEQIMdDtKyxAt5Mwq3sv6hO
flLbHC8cOeyt75LwLHX0Ovs/YuNF07CrDSK7OO8OxCXOkqzEcnYV+8zNrsZazXJa
2lHn/rA0nL6eXCcNkE/+HY/+rUMr+reTb9MYRqwg6DyEjqDpYogSWNNd9SN9DZEg
bbkMKCV4yf9faTyy9kcWzLrfGn5mAKIPYOujGwxWVAlCpYM46/Ifq0V0Qk1xnIXp
ym981q3Mevwexs2PmbAGUvBmsOZJJfHpPakI+S0XgGY5b9w18jK85fHAA0HsI9Ii
OXROvAjN//6W671yd283wAD9oOnCrg0NWhpK703yLjlshysmioxVwG1bkQBCDDSr
nu4iTiG90It12H9HMg22jpYthZzUnWj98NR+ZxT5d9+SfPFJo6AJ77CfRhPjeYAd
YA8+KKjR3dsYVh4LjcDEZxeHyxhczAugBwiySV6+WTBJa7SAnakB7IM7y2uZ3O3J
gliZkErY9v81/6utPlx0+iFOyBergNLqb+k2m344vMje/9jgyHnU92UNST1+T6sq
qy1d5G/M4K3WGbCAqLW3Ui9Ol6Bo8M4Pqdut5+lgo5qz
-----END CERTIFICATE-----
