Certificate:
    Data:
        Version: 3 (0x2)
        Serial Number: 11930 (0x2e9a)
    Signature Algorithm: sha256WithRSAEncryption
        Issuer: C=US, ST=OH, L=Columbus, O=VikingVPN, OU=MyOrganizationalUnit, CN=VikingVPN CA/name=EasyRSA/emailAddress=me@myhost.mydomain
        Validity
            Not Before: Oct  6 10:54:09 2017 GMT
            Not After : Oct  4 10:54:09 2027 GMT
        Subject: CN=Client2693Cert6f7b9e
        Subject Public Key Info:
            Public Key Algorithm: rsaEncryption
                Public-Key: (4096 bit)
                Modulus:
                    00:b6:98:f9:e6:18:8d:06:02:c4:45:1c:43:6a:a0:
                    ca:84:b7:03:dc:c2:0d:1f:91:4c:cd:be:e8:b7:84:
                    74:e1:b1:83:15:04:ce:6b:ab:cd:76:a9:58:3c:ba:
                    cd:92:3e:4d:f1:5c:27:7d:d5:e4:37:6d:b8:42:5f:
                    17:77:7d:d6:db:e4:bf:9e:0c:09:f8:73:ba:d1:6c:
                    6c:1b:b1:d3:54:23:79:7b:bf:9f:4f:0c:18:cc:88:
                    87:ed:09:d5:db:cf:55:69:fd:ce:1f:37:35:0a:f9:
                    c6:c4:9f:38:13:24:e1:12:5d:54:57:5c:66:e3:1c:
                    3a:d4:b0:85:7a:bb:6b:18:0e:03:c4:a3:36:c4:f7:
                    6c:f7:ae:8d:a3:05:06:79:b7:ef:e3:1a:db:07:b9:
                    75:d7:6f:07:27:52:bf:1b:a5:a7:a1:3d:7b:14:7f:
                    e2:ee:eb:cd:d9:dc:43:bd:4d:af:0a:e5:ca:fd:22:
                    15:25:26:a5:02:fa:2f:33:6e:f6:57:48:0b:6e:1c:
                    36:e2:3b:a9:24:e1:84:4d:ea:ce:62:6a:d4:44:58:
                    22:20:04:ac:3c:f2:2f:5b:2b:c2:7d:d4:d0:6e:56:
                    8b:d5:a7:e8:5f:ac:9f:3c:c2:79:e7:b8:db:94:ba:
                    4d:c3:ed:be:38:86:6a:a3:9f:b7:8a:0c:fe:d0:7f:
                    e0:c2:0f:19:84:05:1f:09:72:ff:5e:ca:ca:6e:57:
                    6e:ff:ba:5b:c0:dd:11:1a:25:c6:6c:64:78:86:bf:
                    ac:a4:65:d1:b5:20:f4:59:95:33:a5:bc:b3:73:8e:
                    e1:b8:db:b6:02:ab:05:05:78:d5:53:e7:e7:41:d8:
                    7b:c0:0c:d4:fc:44:aa:b6:a0:2c:fe:5d:ef:c8:d3:
                    2d:ee:83:81:35:4e:ff:d0:fa:88:d6:95:99:9b:fb:
                    ef:fe:67:f5:ca:59:61:bb:67:2b:95:77:ea:e3:66:
                    2f:b8:ac:74:a6:4f:43:b5:af:9e:b1:8f:05:ad:ad:
                    18:28:c5:e8:65:06:bc:f6:70:f2:48:79:af:d1:b6:
                    7a:3c:22:25:d0:47:01:be:84:a0:24:13:28:3a:24:
                    a6:5d:d4:ab:d3:f7:38:14:ea:42:3f:fe:66:e7:24:
                    21:7b:7a:68:d4:59:9e:1b:b3:40:ad:a2:57:7d:7e:
                    f9:91:4c:92:dd:37:2f:b9:36:d4:14:a4:89:52:84:
                    15:10:68:6f:36:27:85:29:60:19:97:36:34:ff:13:
                    e8:dd:7b:7e:28:d0:66:7e:d1:02:41:95:9c:06:fd:
                    ee:64:96:18:c5:29:5f:04:28:b0:6c:66:5f:e3:9d:
                    c4:d2:b2:78:8a:66:67:f6:1b:02:6c:ea:dd:bd:0b:
                    56:23:63
                Exponent: 65537 (0x10001)
        X509v3 extensions:
            X509v3 Basic Constraints: 
                CA:FALSE
            Netscape Comment: 
                Easy-RSA Generated Certificate
            X509v3 Subject Key Identifier: 
                4E:A9:CA:AA:9C:67:BB:C9:BE:8D:34:EC:7E:CC:21:C7:01:D4:5E:61
            X509v3 Authority Key Identifier: 
                keyid:12:CD:60:04:D2:A0:80:9E:70:ED:C6:99:B8:7B:2C:C6:52:FD:19:A1
                DirName:/C=US/ST=OH/L=Columbus/O=VikingVPN/OU=MyOrganizationalUnit/CN=VikingVPN CA/name=EasyRSA/emailAddress=me@myhost.mydomain
                serial:CF:35:85:EE:80:BF:2A:3E

            X509v3 Extended Key Usage: 
                TLS Web Client Authentication
            X509v3 Key Usage: 
                Digital Signature
    Signature Algorithm: sha256WithRSAEncryption
         65:20:9d:60:23:6f:bd:a6:51:33:0d:d9:72:ea:8f:fc:ca:fb:
         37:e6:db:87:5d:3b:9d:76:91:8f:a1:83:af:72:6c:69:39:6f:
         d7:b1:4e:6f:4f:6e:49:24:a5:4e:a3:2d:1f:59:ab:09:a4:82:
         04:6e:72:21:10:28:d4:a0:3d:2a:d0:dd:ec:82:95:88:33:b3:
         4b:06:80:da:2a:79:12:d8:70:8a:96:e7:e9:b7:24:be:6a:46:
         3d:7c:87:38:90:3b:95:91:b3:2f:f5:3d:ff:8a:59:71:d3:47:
         f9:2f:8b:3c:c3:e5:d7:9a:6d:ee:3d:f3:e2:9c:87:c5:88:6e:
         ee:5b:b0:ff:d4:d1:84:37:fe:03:2f:64:cf:35:e3:da:9f:da:
         ec:f1:25:60:af:60:dd:48:6d:74:9b:fa:ba:44:ea:1d:89:0c:
         54:b3:8c:6a:13:1b:21:af:2f:12:dc:65:25:cd:c5:39:f4:95:
         8e:a9:6f:81:ae:00:7a:77:e9:2e:b6:43:0d:fa:9d:e6:d4:e0:
         3b:59:3c:73:4c:83:2e:8f:bf:a5:81:a4:21:ee:b9:43:32:2f:
         6b:79:7e:08:d2:e2:f4:45:c6:87:ef:65:bb:e2:c3:6f:ab:c2:
         25:23:0c:90:0f:92:f6:79:d4:4c:67:cb:d6:65:74:ca:48:1b:
         77:c9:52:bb:7f:16:8c:f2:ec:f5:cd:22:94:d9:7b:78:6e:ee:
         52:3b:80:f0:a3:d1:6b:c7:12:e3:7d:51:99:37:1a:80:95:21:
         47:2f:f0:95:d8:33:a1:c5:8a:f7:e5:3e:7e:60:4d:aa:8c:e2:
         7c:61:75:a2:d5:23:7c:ae:5e:ea:e5:28:d8:dd:07:00:80:96:
         39:3d:69:b1:38:9f:d3:33:5c:c8:b3:5d:98:e5:13:55:57:7e:
         51:e3:c7:52:a1:ca:af:82:41:15:89:f0:48:1a:72:02:ed:84:
         7a:e4:68:bf:58:fe:87:fa:8d:2f:97:1d:92:f0:c2:d0:7f:1c:
         b4:7f:ec:88:d8:fa:ae:28:a8:9a:98:d0:66:fd:bb:2b:1e:57:
         22:24:a8:db:a2:e0:70:10:41:9c:84:5b:f0:14:03:66:f2:99:
         77:fc:b7:f4:eb:1e:a4:23:69:da:18:b6:24:5a:a5:38:eb:66:
         63:20:ef:0f:d5:bd:40:2c:cc:6a:eb:ef:29:ce:51:4d:7c:78:
         08:cc:13:51:39:24:03:95:03:4c:33:54:56:6d:a5:27:47:bd:
         cf:05:64:07:28:b2:6b:3a:f4:86:70:91:10:5f:ee:a8:ce:0e:
         74:4f:77:26:31:8a:f7:d8:51:6a:9a:49:d9:07:c7:d4:61:3e:
         89:b1:e4:9a:6b:7b:1d:27
-----BEGIN CERTIFICATE-----
MIIGrTCCBJWgAwIBAgICLpowDQYJKoZIhvcNAQELBQAwgawxCzAJBgNVBAYTAlVT
MQswCQYDVQQIEwJPSDERMA8GA1UEBxMIQ29sdW1idXMxEjAQBgNVBAoTCVZpa2lu
Z1ZQTjEdMBsGA1UECxMUTXlPcmdhbml6YXRpb25hbFVuaXQxFTATBgNVBAMTDFZp
a2luZ1ZQTiBDQTEQMA4GA1UEKRMHRWFzeVJTQTEhMB8GCSqGSIb3DQEJARYSbWVA
bXlob3N0Lm15ZG9tYWluMB4XDTE3MTAwNjEwNTQwOVoXDTI3MTAwNDEwNTQwOVow
HzEdMBsGA1UEAxMUQ2xpZW50MjY5M0NlcnQ2ZjdiOWUwggIiMA0GCSqGSIb3DQEB
AQUAA4ICDwAwggIKAoICAQC2mPnmGI0GAsRFHENqoMqEtwPcwg0fkUzNvui3hHTh
sYMVBM5rq812qVg8us2SPk3xXCd91eQ3bbhCXxd3fdbb5L+eDAn4c7rRbGwbsdNU
I3l7v59PDBjMiIftCdXbz1Vp/c4fNzUK+cbEnzgTJOESXVRXXGbjHDrUsIV6u2sY
DgPEozbE92z3ro2jBQZ5t+/jGtsHuXXXbwcnUr8bpaehPXsUf+Lu683Z3EO9Ta8K
5cr9IhUlJqUC+i8zbvZXSAtuHDbiO6kk4YRN6s5iatREWCIgBKw88i9bK8J91NBu
VovVp+hfrJ88wnnnuNuUuk3D7b44hmqjn7eKDP7Qf+DCDxmEBR8Jcv9eyspuV27/
ulvA3REaJcZsZHiGv6ykZdG1IPRZlTOlvLNzjuG427YCqwUFeNVT5+dB2HvADNT8
RKq2oCz+Xe/I0y3ug4E1Tv/Q+ojWlZmb++/+Z/XKWWG7ZyuVd+rjZi+4rHSmT0O1
r56xjwWtrRgoxehlBrz2cPJIea/Rtno8IiXQRwG+hKAkEyg6JKZd1KvT9zgU6kI/
/mbnJCF7emjUWZ4bs0Ctold9fvmRTJLdNy+5NtQUpIlShBUQaG82J4UpYBmXNjT/
E+jde34o0GZ+0QJBlZwG/e5klhjFKV8EKLBsZl/jncTSsniKZmf2GwJs6t29C1Yj
YwIDAQABo4IBYzCCAV8wCQYDVR0TBAIwADAtBglghkgBhvhCAQ0EIBYeRWFzeS1S
U0EgR2VuZXJhdGVkIENlcnRpZmljYXRlMB0GA1UdDgQWBBROqcqqnGe7yb6NNOx+
zCHHAdReYTCB4QYDVR0jBIHZMIHWgBQSzWAE0qCAnnDtxpm4eyzGUv0ZoaGBsqSB
rzCBrDELMAkGA1UEBhMCVVMxCzAJBgNVBAgTAk9IMREwDwYDVQQHEwhDb2x1bWJ1
czESMBAGA1UEChMJVmlraW5nVlBOMR0wGwYDVQQLExRNeU9yZ2FuaXphdGlvbmFs
VW5pdDEVMBMGA1UEAxMMVmlraW5nVlBOIENBMRAwDgYDVQQpEwdFYXN5UlNBMSEw
HwYJKoZIhvcNAQkBFhJtZUBteWhvc3QubXlkb21haW6CCQDPNYXugL8qPjATBgNV
HSUEDDAKBggrBgEFBQcDAjALBgNVHQ8EBAMCB4AwDQYJKoZIhvcNAQELBQADggIB
AGUgnWAjb72mUTMN2XLqj/zK+zfm24ddO512kY+hg69ybGk5b9exTm9PbkkkpU6j
LR9ZqwmkggRuciEQKNSgPSrQ3eyClYgzs0sGgNoqeRLYcIqW5+m3JL5qRj18hziQ
O5WRsy/1Pf+KWXHTR/kvizzD5deabe498+Kch8WIbu5bsP/U0YQ3/gMvZM8149qf
2uzxJWCvYN1IbXSb+rpE6h2JDFSzjGoTGyGvLxLcZSXNxTn0lY6pb4GuAHp36S62
Qw36nebU4DtZPHNMgy6Pv6WBpCHuuUMyL2t5fgjS4vRFxofvZbviw2+rwiUjDJAP
kvZ51Exny9ZldMpIG3fJUrt/Fozy7PXNIpTZe3hu7lI7gPCj0WvHEuN9UZk3GoCV
IUcv8JXYM6HFivflPn5gTaqM4nxhdaLVI3yuXurlKNjdBwCAljk9abE4n9MzXMiz
XZjlE1VXflHjx1Khyq+CQRWJ8EgacgLthHrkaL9Y/of6jS+XHZLwwtB/HLR/7IjY
+q4oqJqY0Gb9uyseVyIkqNui4HAQQZyEW/AUA2bymXf8t/TrHqQjadoYtiRapTjr
ZmMg7w/VvUAszGrr7ynOUU18eAjME1E5JAOVA0wzVFZtpSdHvc8FZAcosms69IZw
kRBf7qjODnRPdyYxivfYUWqaSdkHx9RhPomx5Jprex0n
-----END CERTIFICATE-----
