Certificate:
    Data:
        Version: 3 (0x2)
        Serial Number: 11991 (0x2ed7)
    Signature Algorithm: sha256WithRSAEncryption
        Issuer: C=US, ST=OH, L=Columbus, O=VikingVPN, OU=MyOrganizationalUnit, CN=VikingVPN CA/name=EasyRSA/emailAddress=me@myhost.mydomain
        Validity
            Not Before: Oct 18 06:17:29 2017 GMT
            Not After : Oct 16 06:17:29 2027 GMT
        Subject: CN=Client2067Cert1eaa4e
        Subject Public Key Info:
            Public Key Algorithm: rsaEncryption
                Public-Key: (4096 bit)
                Modulus:
                    00:98:20:8d:01:b1:dd:84:f4:fb:ea:3b:17:8a:c1:
                    28:ec:20:8a:a4:c1:59:56:1f:99:f8:2b:16:a6:6b:
                    4b:00:6d:6f:79:7a:2c:07:fe:74:1b:a9:d1:ce:df:
                    18:15:ed:53:c7:05:b0:f8:03:0c:37:4f:fa:25:37:
                    b4:9c:d2:06:0b:d9:94:4b:ba:ec:51:b4:3c:ed:69:
                    6d:d8:34:a9:bc:7f:87:36:33:f8:1d:2e:52:f2:1c:
                    45:a4:39:15:ac:0a:ac:de:8d:68:17:d8:7f:1e:50:
                    d1:6d:eb:31:b1:36:a2:fb:f4:1a:cc:ce:70:44:9e:
                    11:12:de:f8:6c:cf:90:dc:e0:b1:b2:33:58:23:77:
                    27:2c:21:76:cb:d9:0c:98:2e:1f:d0:b2:d9:7d:61:
                    5c:af:e7:df:b8:ba:80:8a:85:3e:de:aa:c2:59:8a:
                    c2:85:6c:0a:e1:22:0c:61:38:31:d3:64:fc:64:54:
                    c8:f1:2a:c4:11:cd:60:59:c8:fa:b8:5a:c7:bb:25:
                    9a:a5:cb:39:76:3a:b6:1c:48:fc:04:4b:27:fa:e5:
                    0f:86:da:67:24:fc:ec:6b:a2:76:5c:f9:fc:e9:e2:
                    82:a5:22:1c:8e:47:b5:fd:99:8b:d2:92:4e:78:b6:
                    43:bb:db:de:99:3f:b0:58:e2:2b:15:b3:7e:b5:24:
                    da:69:47:dd:bf:26:51:cb:35:29:d2:73:36:79:40:
                    75:e0:55:a6:b5:7e:9b:42:b1:d8:ae:a6:3d:d9:e8:
                    dc:bd:71:fb:81:cc:0a:95:fb:bf:35:82:6f:08:41:
                    74:7d:0c:98:7c:7f:8d:28:10:89:c8:4b:0d:be:d7:
                    9e:9b:82:42:07:9e:f0:43:f6:60:2c:ef:42:2b:e9:
                    54:22:a0:36:4a:d3:2b:9f:ab:c9:04:0e:4c:2e:31:
                    e6:9f:f0:68:d3:a7:97:ac:f7:08:65:75:f3:e9:64:
                    a9:81:88:51:6f:b8:a3:1b:d8:d4:0e:ab:db:e6:bc:
                    64:b4:f4:fe:d1:cc:da:7d:a1:69:fc:b4:27:f8:9e:
                    6f:41:16:16:84:34:a8:50:3c:f4:2c:7d:27:0b:8d:
                    52:e5:a3:2e:ac:62:23:03:3b:a2:04:31:20:4b:b3:
                    06:40:17:78:cf:d1:8d:c3:87:bf:f7:6f:ca:7f:6c:
                    e0:92:58:dd:fd:df:13:b5:e4:4c:37:2a:bd:fb:97:
                    a0:9d:ba:32:ae:cb:78:6a:32:8e:26:ca:04:99:e8:
                    11:c4:b5:3b:a6:03:21:f7:bf:59:62:7b:4e:0d:82:
                    48:73:c4:c8:aa:5b:e7:32:95:5c:de:a4:49:6d:20:
                    3c:c1:a6:23:a1:50:44:df:e0:17:7c:de:09:06:1f:
                    27:75:09
                Exponent: 65537 (0x10001)
        X509v3 extensions:
            X509v3 Basic Constraints: 
                CA:FALSE
            Netscape Comment: 
                Easy-RSA Generated Certificate
            X509v3 Subject Key Identifier: 
                DE:05:FC:7F:B6:E2:79:F8:BC:18:6C:F5:58:77:CE:85:66:73:AC:01
            X509v3 Authority Key Identifier: 
                keyid:12:CD:60:04:D2:A0:80:9E:70:ED:C6:99:B8:7B:2C:C6:52:FD:19:A1
                DirName:/C=US/ST=OH/L=Columbus/O=VikingVPN/OU=MyOrganizationalUnit/CN=VikingVPN CA/name=EasyRSA/emailAddress=me@myhost.mydomain
                serial:CF:35:85:EE:80:BF:2A:3E

            X509v3 Extended Key Usage: 
                TLS Web Client Authentication
            X509v3 Key Usage: 
                Digital Signature
    Signature Algorithm: sha256WithRSAEncryption
         7d:44:5f:44:2b:fd:30:5f:f7:83:82:31:17:32:b1:6e:06:27:
         b5:1b:a0:81:60:39:6a:2c:ea:ae:de:a8:9a:bb:d6:fb:8d:0f:
         0e:fa:57:95:37:ed:3f:3c:b6:71:3f:b6:c3:eb:4e:77:8b:38:
         de:26:97:53:63:16:32:3e:6d:4f:9b:22:1c:41:57:e4:7a:e0:
         5c:8d:08:4a:27:b1:6d:54:52:e1:c7:46:e7:ab:95:ce:29:e7:
         73:28:0f:a6:25:7a:e5:cc:62:33:e4:24:91:33:d2:12:58:3e:
         36:1f:df:3a:a9:ab:86:fe:62:e8:54:67:e9:56:4c:49:b6:7d:
         86:f3:e0:ce:8d:38:e8:ae:63:2c:c4:c5:c0:ee:96:c5:85:57:
         3e:f3:9d:f8:60:74:a9:01:da:df:a4:6b:2c:42:7b:f0:42:6f:
         25:89:2e:e2:ef:6a:19:63:0f:a2:86:85:77:b0:e6:57:38:e4:
         38:b7:3d:0c:ff:e2:37:83:e6:1e:f4:a4:77:d1:9a:28:91:6d:
         c5:2e:b8:db:4e:12:cd:04:cd:0c:11:2a:c2:39:92:86:9c:a4:
         e5:b6:0b:58:3e:29:5e:4f:7c:8a:34:06:34:94:ca:86:7e:f4:
         c9:99:a5:0e:d5:c7:4f:86:0e:39:e7:f4:1d:0f:72:7a:70:11:
         c7:7c:34:91:f8:88:97:ab:8e:c4:6b:f5:f7:11:37:4e:12:2d:
         76:2d:cb:1b:52:01:ad:e7:91:dd:5f:4c:47:07:58:3f:d8:47:
         ec:58:f9:4f:6e:37:b3:14:86:29:1c:76:82:66:37:cc:ad:6b:
         1c:9b:72:0b:46:97:01:e8:ac:ea:61:41:27:97:be:18:03:6e:
         1c:59:3d:82:7e:73:fe:7d:55:d3:c6:9d:5f:ec:8e:2e:b2:44:
         47:be:e9:7d:6d:37:5f:f1:0d:2f:51:8e:d2:02:b5:29:c6:04:
         40:6b:6e:4a:47:d3:38:de:91:0f:0c:4f:5c:f3:23:7d:b2:3f:
         4f:9e:68:bb:af:0c:b6:55:a0:a0:5e:4b:64:36:72:cf:7a:94:
         03:62:8e:73:1b:8f:53:a7:42:ca:5c:e8:56:de:fe:b9:e8:b6:
         c5:d3:31:52:8c:30:da:84:09:d0:9d:2b:c9:3f:23:0c:d2:65:
         f8:5f:2f:02:46:00:ee:c5:27:46:81:d2:34:fc:dd:1b:f1:88:
         09:97:d2:c3:42:1d:9f:c0:f8:27:6a:a9:59:22:a4:c9:21:cc:
         5e:7c:b4:70:7c:e4:cc:50:a9:3a:4a:c2:a3:6f:5e:4d:07:f3:
         b7:49:81:89:62:d0:ae:f4:1a:f7:90:91:0b:e0:7e:fc:7d:61:
         10:c8:4f:63:ef:ac:05:3f
-----BEGIN CERTIFICATE-----
MIIGrTCCBJWgAwIBAgICLtcwDQYJKoZIhvcNAQELBQAwgawxCzAJBgNVBAYTAlVT
MQswCQYDVQQIEwJPSDERMA8GA1UEBxMIQ29sdW1idXMxEjAQBgNVBAoTCVZpa2lu
Z1ZQTjEdMBsGA1UECxMUTXlPcmdhbml6YXRpb25hbFVuaXQxFTATBgNVBAMTDFZp
a2luZ1ZQTiBDQTEQMA4GA1UEKRMHRWFzeVJTQTEhMB8GCSqGSIb3DQEJARYSbWVA
bXlob3N0Lm15ZG9tYWluMB4XDTE3MTAxODA2MTcyOVoXDTI3MTAxNjA2MTcyOVow
HzEdMBsGA1UEAxMUQ2xpZW50MjA2N0NlcnQxZWFhNGUwggIiMA0GCSqGSIb3DQEB
AQUAA4ICDwAwggIKAoICAQCYII0Bsd2E9PvqOxeKwSjsIIqkwVlWH5n4Kxama0sA
bW95eiwH/nQbqdHO3xgV7VPHBbD4Aww3T/olN7Sc0gYL2ZRLuuxRtDztaW3YNKm8
f4c2M/gdLlLyHEWkORWsCqzejWgX2H8eUNFt6zGxNqL79BrMznBEnhES3vhsz5Dc
4LGyM1gjdycsIXbL2QyYLh/Qstl9YVyv59+4uoCKhT7eqsJZisKFbArhIgxhODHT
ZPxkVMjxKsQRzWBZyPq4Wse7JZqlyzl2OrYcSPwESyf65Q+G2mck/OxronZc+fzp
4oKlIhyOR7X9mYvSkk54tkO7296ZP7BY4isVs361JNppR92/JlHLNSnSczZ5QHXg
Vaa1fptCsdiupj3Z6Ny9cfuBzAqV+781gm8IQXR9DJh8f40oEInISw2+156bgkIH
nvBD9mAs70Ir6VQioDZK0yufq8kEDkwuMeaf8GjTp5es9whldfPpZKmBiFFvuKMb
2NQOq9vmvGS09P7RzNp9oWn8tCf4nm9BFhaENKhQPPQsfScLjVLloy6sYiMDO6IE
MSBLswZAF3jP0Y3Dh7/3b8p/bOCSWN393xO15Ew3Kr37l6CdujKuy3hqMo4mygSZ
6BHEtTumAyH3v1lie04NgkhzxMiqW+cylVzepEltIDzBpiOhUETf4Bd83gkGHyd1
CQIDAQABo4IBYzCCAV8wCQYDVR0TBAIwADAtBglghkgBhvhCAQ0EIBYeRWFzeS1S
U0EgR2VuZXJhdGVkIENlcnRpZmljYXRlMB0GA1UdDgQWBBTeBfx/tuJ5+LwYbPVY
d86FZnOsATCB4QYDVR0jBIHZMIHWgBQSzWAE0qCAnnDtxpm4eyzGUv0ZoaGBsqSB
rzCBrDELMAkGA1UEBhMCVVMxCzAJBgNVBAgTAk9IMREwDwYDVQQHEwhDb2x1bWJ1
czESMBAGA1UEChMJVmlraW5nVlBOMR0wGwYDVQQLExRNeU9yZ2FuaXphdGlvbmFs
VW5pdDEVMBMGA1UEAxMMVmlraW5nVlBOIENBMRAwDgYDVQQpEwdFYXN5UlNBMSEw
HwYJKoZIhvcNAQkBFhJtZUBteWhvc3QubXlkb21haW6CCQDPNYXugL8qPjATBgNV
HSUEDDAKBggrBgEFBQcDAjALBgNVHQ8EBAMCB4AwDQYJKoZIhvcNAQELBQADggIB
AH1EX0Qr/TBf94OCMRcysW4GJ7UboIFgOWos6q7eqJq71vuNDw76V5U37T88tnE/
tsPrTneLON4ml1NjFjI+bU+bIhxBV+R64FyNCEonsW1UUuHHRuerlc4p53MoD6Yl
euXMYjPkJJEz0hJYPjYf3zqpq4b+YuhUZ+lWTEm2fYbz4M6NOOiuYyzExcDulsWF
Vz7znfhgdKkB2t+kayxCe/BCbyWJLuLvahljD6KGhXew5lc45Di3PQz/4jeD5h70
pHfRmiiRbcUuuNtOEs0EzQwRKsI5koacpOW2C1g+KV5PfIo0BjSUyoZ+9MmZpQ7V
x0+GDjnn9B0PcnpwEcd8NJH4iJerjsRr9fcRN04SLXYtyxtSAa3nkd1fTEcHWD/Y
R+xY+U9uN7MUhikcdoJmN8ytaxybcgtGlwHorOphQSeXvhgDbhxZPYJ+c/59VdPG
nV/sji6yREe+6X1tN1/xDS9RjtICtSnGBEBrbkpH0zjekQ8MT1zzI32yP0+eaLuv
DLZVoKBeS2Q2cs96lANijnMbj1OnQspc6Fbe/rnotsXTMVKMMNqECdCdK8k/IwzS
ZfhfLwJGAO7FJ0aB0jT83RvxiAmX0sNCHZ/A+CdqqVkipMkhzF58tHB85MxQqTpK
wqNvXk0H87dJgYli0K70GveQkQvgfvx9YRDIT2PvrAU/
-----END CERTIFICATE-----
