Certificate:
    Data:
        Version: 3 (0x2)
        Serial Number: 11993 (0x2ed9)
    Signature Algorithm: sha256WithRSAEncryption
        Issuer: C=US, ST=OH, L=Columbus, O=VikingVPN, OU=MyOrganizationalUnit, CN=VikingVPN CA/name=EasyRSA/emailAddress=me@myhost.mydomain
        Validity
            Not Before: Oct 18 14:10:57 2017 GMT
            Not After : Oct 16 14:10:57 2027 GMT
        Subject: CN=Client3013Cert53a7c5
        Subject Public Key Info:
            Public Key Algorithm: rsaEncryption
                Public-Key: (4096 bit)
                Modulus:
                    00:ce:d8:9e:22:06:df:2d:98:83:e4:7b:02:7a:38:
                    98:ae:0a:a9:37:74:0c:99:7a:6b:38:7e:df:2f:a6:
                    9c:2f:48:04:bb:7c:2d:85:67:3c:fd:17:42:b2:24:
                    88:0c:0a:56:e0:e3:a9:4f:e1:99:05:b2:94:8c:72:
                    53:9d:fe:54:9f:84:98:76:a3:15:6e:8e:50:01:a3:
                    b3:46:74:04:e9:48:54:1c:75:d8:b3:ae:3c:43:3c:
                    81:e3:31:8b:c6:d8:18:7a:b0:1d:2c:1f:8d:7c:18:
                    0b:a4:69:a1:21:05:fe:36:61:d3:b6:0f:ec:77:05:
                    05:70:50:89:e7:77:33:29:5d:79:2e:81:a6:de:13:
                    eb:75:3b:22:64:da:7e:e7:2c:5d:0f:ca:8b:8d:2e:
                    bc:44:38:a3:85:6a:a3:9a:84:88:e7:2e:c5:78:08:
                    9d:8d:dd:86:b7:38:be:41:a6:e8:ad:1f:23:e3:51:
                    f5:9f:fa:01:32:44:81:d3:22:71:f3:c7:eb:50:7f:
                    df:82:56:70:9f:8e:b6:1a:44:e4:55:7c:c1:bf:1f:
                    17:98:90:a8:2f:a1:b0:30:31:e0:e0:65:ad:8a:5a:
                    1f:aa:49:00:81:88:8b:82:e8:d6:8e:f4:13:fa:01:
                    9d:c7:c1:5c:35:32:09:cf:44:0a:dc:53:ac:72:10:
                    5c:af:60:d3:e7:80:63:72:94:ae:a3:8c:8c:0c:ba:
                    02:57:f1:8b:89:ae:a1:82:76:ea:44:d2:8d:ca:f4:
                    e9:d0:31:e6:8c:eb:03:90:8d:35:14:40:c2:82:22:
                    aa:db:f3:84:64:df:7b:61:98:ef:a3:55:8a:4c:fe:
                    09:0c:52:f6:95:cb:3a:16:df:03:73:ef:ac:0e:cc:
                    d8:08:da:7e:73:35:c2:5f:ee:6a:62:ef:02:01:aa:
                    63:d7:f1:83:99:df:20:91:3d:be:3e:90:43:87:bb:
                    03:bf:de:3e:ec:db:50:21:0d:b3:93:5b:34:88:d4:
                    77:3c:5e:64:00:06:d4:60:44:e3:eb:e3:b4:3a:c1:
                    0d:37:48:b5:14:ad:fd:a2:60:c6:14:a2:2a:58:86:
                    69:84:d5:42:69:ca:68:e2:e6:a8:dd:ce:b2:fd:b5:
                    b6:31:3c:1b:aa:79:b0:a5:4a:6b:34:63:06:af:77:
                    f4:53:da:8f:90:a9:43:75:19:13:4c:97:17:27:f9:
                    3a:b2:38:6b:72:02:50:c4:27:8c:81:c0:df:31:d1:
                    47:8c:7b:90:78:fc:7e:35:f1:5c:84:1b:d7:f9:52:
                    fd:bf:45:78:06:df:ec:69:41:04:96:ab:ef:8b:71:
                    29:b9:7b:65:ad:57:4b:eb:35:28:e2:df:6c:b3:76:
                    ee:a5:43
                Exponent: 65537 (0x10001)
        X509v3 extensions:
            X509v3 Basic Constraints: 
                CA:FALSE
            Netscape Comment: 
                Easy-RSA Generated Certificate
            X509v3 Subject Key Identifier: 
                35:63:C5:56:1A:3E:58:EF:A1:4D:2F:29:5A:CB:12:D4:5A:B8:5B:4A
            X509v3 Authority Key Identifier: 
                keyid:12:CD:60:04:D2:A0:80:9E:70:ED:C6:99:B8:7B:2C:C6:52:FD:19:A1
                DirName:/C=US/ST=OH/L=Columbus/O=VikingVPN/OU=MyOrganizationalUnit/CN=VikingVPN CA/name=EasyRSA/emailAddress=me@myhost.mydomain
                serial:CF:35:85:EE:80:BF:2A:3E

            X509v3 Extended Key Usage: 
                TLS Web Client Authentication
            X509v3 Key Usage: 
                Digital Signature
    Signature Algorithm: sha256WithRSAEncryption
         ca:56:d0:32:65:03:dd:c5:01:03:49:02:2b:f5:80:63:63:ef:
         41:f9:ac:c7:a5:a8:c8:c9:7f:53:a3:9b:bf:2a:78:20:2f:23:
         62:ef:ee:41:bf:ef:9c:5b:30:b0:8d:c5:d3:2a:49:5e:e6:41:
         ab:66:1c:c6:0d:91:a3:46:b2:f2:f6:75:28:2c:4b:08:df:c8:
         a4:4c:2f:96:13:f0:55:62:ad:3b:c0:ed:29:88:f8:05:1f:c1:
         ae:9f:23:20:5c:55:2e:fc:23:cd:58:13:36:9f:9d:93:42:ae:
         64:09:26:c9:33:1b:37:f3:bd:18:1d:cd:36:b8:82:f2:f5:d2:
         f9:27:80:26:ca:16:9c:71:a8:bf:5f:e0:63:81:83:49:84:d5:
         72:e0:6f:db:ce:a8:91:e3:3e:8c:eb:93:28:96:0e:5c:62:66:
         86:12:23:96:5c:97:c6:ef:b2:66:6c:41:ad:49:21:1c:61:95:
         1c:29:4f:9a:14:77:ba:a2:be:09:78:e6:17:d6:c8:3f:ae:7a:
         d4:11:8e:bd:f0:ed:9f:5e:50:ca:59:eb:28:96:19:5c:51:26:
         ac:2c:9b:5d:a0:43:3f:56:68:6f:07:11:8c:93:4e:05:5b:74:
         0b:cc:54:e6:f9:c1:01:60:5f:05:dc:00:cd:0c:de:1f:5b:c2:
         e9:4e:ce:02:c2:d6:8d:24:b9:cc:f5:83:70:db:7c:da:79:cb:
         37:15:02:ed:59:cd:52:8d:4f:8d:e8:cd:fa:9b:46:b6:39:09:
         5b:52:e0:09:c8:a3:50:28:4a:fa:c2:80:86:8d:39:5a:c0:45:
         40:d4:9f:5d:c9:d0:f1:7c:b7:4f:68:4a:93:cb:57:d0:ff:7d:
         7e:1a:d6:d0:71:56:1d:52:f6:56:a7:23:cb:15:c4:3f:84:c5:
         ef:0a:ba:a7:7b:2d:a2:4b:85:0c:63:a8:44:9c:79:1b:5c:16:
         53:ce:8f:35:fb:cb:7b:e9:46:de:27:c6:4c:9d:1b:e9:e3:b4:
         97:a1:73:32:ed:3f:ec:e2:dc:00:9d:9d:7f:ea:16:53:ef:31:
         d7:06:dd:ea:d0:74:a4:14:72:2e:82:cb:c7:c6:cf:ce:83:50:
         92:9b:17:e8:c8:6f:d4:30:86:b1:59:9f:e6:a4:f2:af:99:8b:
         6a:8c:63:bc:6e:ea:22:df:1e:90:4c:97:d2:28:83:32:80:90:
         4f:e9:3a:20:3b:ab:7a:f0:2c:bd:ec:94:09:6d:ef:59:a9:ff:
         58:f8:e2:2e:22:ea:cb:87:b7:a8:8d:0e:af:2a:d9:26:d0:fb:
         6a:1a:75:37:e1:c0:ed:fa:09:92:86:c4:23:fb:8a:d5:05:19:
         59:0a:fe:39:93:f2:1d:1a
-----BEGIN CERTIFICATE-----
MIIGrTCCBJWgAwIBAgICLtkwDQYJKoZIhvcNAQELBQAwgawxCzAJBgNVBAYTAlVT
MQswCQYDVQQIEwJPSDERMA8GA1UEBxMIQ29sdW1idXMxEjAQBgNVBAoTCVZpa2lu
Z1ZQTjEdMBsGA1UECxMUTXlPcmdhbml6YXRpb25hbFVuaXQxFTATBgNVBAMTDFZp
a2luZ1ZQTiBDQTEQMA4GA1UEKRMHRWFzeVJTQTEhMB8GCSqGSIb3DQEJARYSbWVA
bXlob3N0Lm15ZG9tYWluMB4XDTE3MTAxODE0MTA1N1oXDTI3MTAxNjE0MTA1N1ow
HzEdMBsGA1UEAxMUQ2xpZW50MzAxM0NlcnQ1M2E3YzUwggIiMA0GCSqGSIb3DQEB
AQUAA4ICDwAwggIKAoICAQDO2J4iBt8tmIPkewJ6OJiuCqk3dAyZems4ft8vppwv
SAS7fC2FZzz9F0KyJIgMClbg46lP4ZkFspSMclOd/lSfhJh2oxVujlABo7NGdATp
SFQcddizrjxDPIHjMYvG2Bh6sB0sH418GAukaaEhBf42YdO2D+x3BQVwUInndzMp
XXkugabeE+t1OyJk2n7nLF0PyouNLrxEOKOFaqOahIjnLsV4CJ2N3Ya3OL5Bpuit
HyPjUfWf+gEyRIHTInHzx+tQf9+CVnCfjrYaRORVfMG/HxeYkKgvobAwMeDgZa2K
Wh+qSQCBiIuC6NaO9BP6AZ3HwVw1MgnPRArcU6xyEFyvYNPngGNylK6jjIwMugJX
8YuJrqGCdupE0o3K9OnQMeaM6wOQjTUUQMKCIqrb84Rk33thmO+jVYpM/gkMUvaV
yzoW3wNz76wOzNgI2n5zNcJf7mpi7wIBqmPX8YOZ3yCRPb4+kEOHuwO/3j7s21Ah
DbOTWzSI1Hc8XmQABtRgROPr47Q6wQ03SLUUrf2iYMYUoipYhmmE1UJpymji5qjd
zrL9tbYxPBuqebClSms0Ywavd/RT2o+QqUN1GRNMlxcn+TqyOGtyAlDEJ4yBwN8x
0UeMe5B4/H418VyEG9f5Uv2/RXgG3+xpQQSWq++LcSm5e2WtV0vrNSji32yzdu6l
QwIDAQABo4IBYzCCAV8wCQYDVR0TBAIwADAtBglghkgBhvhCAQ0EIBYeRWFzeS1S
U0EgR2VuZXJhdGVkIENlcnRpZmljYXRlMB0GA1UdDgQWBBQ1Y8VWGj5Y76FNLyla
yxLUWrhbSjCB4QYDVR0jBIHZMIHWgBQSzWAE0qCAnnDtxpm4eyzGUv0ZoaGBsqSB
rzCBrDELMAkGA1UEBhMCVVMxCzAJBgNVBAgTAk9IMREwDwYDVQQHEwhDb2x1bWJ1
czESMBAGA1UEChMJVmlraW5nVlBOMR0wGwYDVQQLExRNeU9yZ2FuaXphdGlvbmFs
VW5pdDEVMBMGA1UEAxMMVmlraW5nVlBOIENBMRAwDgYDVQQpEwdFYXN5UlNBMSEw
HwYJKoZIhvcNAQkBFhJtZUBteWhvc3QubXlkb21haW6CCQDPNYXugL8qPjATBgNV
HSUEDDAKBggrBgEFBQcDAjALBgNVHQ8EBAMCB4AwDQYJKoZIhvcNAQELBQADggIB
AMpW0DJlA93FAQNJAiv1gGNj70H5rMelqMjJf1Ojm78qeCAvI2Lv7kG/75xbMLCN
xdMqSV7mQatmHMYNkaNGsvL2dSgsSwjfyKRML5YT8FVirTvA7SmI+AUfwa6fIyBc
VS78I81YEzafnZNCrmQJJskzGzfzvRgdzTa4gvL10vkngCbKFpxxqL9f4GOBg0mE
1XLgb9vOqJHjPozrkyiWDlxiZoYSI5Zcl8bvsmZsQa1JIRxhlRwpT5oUd7qivgl4
5hfWyD+uetQRjr3w7Z9eUMpZ6yiWGVxRJqwsm12gQz9WaG8HEYyTTgVbdAvMVOb5
wQFgXwXcAM0M3h9bwulOzgLC1o0kucz1g3DbfNp5yzcVAu1ZzVKNT43ozfqbRrY5
CVtS4AnIo1AoSvrCgIaNOVrARUDUn13J0PF8t09oSpPLV9D/fX4a1tBxVh1S9lan
I8sVxD+Exe8Kuqd7LaJLhQxjqESceRtcFlPOjzX7y3vpRt4nxkydG+njtJehczLt
P+zi3ACdnX/qFlPvMdcG3erQdKQUci6Cy8fGz86DUJKbF+jIb9QwhrFZn+ak8q+Z
i2qMY7xu6iLfHpBMl9IogzKAkE/pOiA7q3rwLL3slAlt71mp/1j44i4i6suHt6iN
Dq8q2SbQ+2oadTfhwO36CZKGxCP7itUFGVkK/jmT8h0a
-----END CERTIFICATE-----
