Certificate:
    Data:
        Version: 3 (0x2)
        Serial Number: 11996 (0x2edc)
    Signature Algorithm: sha256WithRSAEncryption
        Issuer: C=US, ST=OH, L=Columbus, O=VikingVPN, OU=MyOrganizationalUnit, CN=VikingVPN CA/name=EasyRSA/emailAddress=me@myhost.mydomain
        Validity
            Not Before: Oct 19 04:09:58 2017 GMT
            Not After : Oct 17 04:09:58 2027 GMT
        Subject: CN=Client3130Cert111782
        Subject Public Key Info:
            Public Key Algorithm: rsaEncryption
                Public-Key: (4096 bit)
                Modulus:
                    00:9f:c2:18:2a:10:b3:63:1a:97:8b:85:07:3c:ac:
                    fd:1f:aa:d2:7d:c4:16:65:54:be:4d:77:ae:0b:1a:
                    de:eb:fa:e5:98:8d:dc:9e:36:34:cc:da:7f:dd:83:
                    b8:be:55:23:e3:01:f0:be:7a:44:04:28:5a:93:f5:
                    75:da:79:60:ac:b0:37:a3:51:a9:3a:74:87:03:f8:
                    78:b2:b1:23:f8:15:6c:f8:46:fd:ed:98:4a:23:19:
                    ff:af:fa:0f:db:f3:cf:60:7e:15:b7:1f:d9:9f:7b:
                    31:ad:8f:ec:f8:f7:ab:e0:36:01:fb:98:18:7e:db:
                    95:72:f3:81:4a:4e:ee:98:4b:24:59:57:f3:0c:fb:
                    d9:17:04:7e:d6:9f:ca:0e:ec:38:9b:4a:b4:21:f6:
                    5a:ee:95:c4:3b:59:d7:a0:2f:06:6c:e6:6d:ad:eb:
                    bf:7e:39:4d:1c:9b:e0:af:6d:42:4b:40:e4:c6:d1:
                    97:7e:24:a3:dc:2c:a7:cc:ef:36:be:ca:58:fc:ec:
                    f9:f1:ed:cb:d9:5b:7c:5e:fd:65:61:ab:7e:92:c9:
                    ec:3f:19:55:3f:e0:d7:b6:aa:18:34:21:92:31:7a:
                    0a:14:5b:7a:0b:85:0a:02:2d:c4:3d:e2:9d:f7:90:
                    c6:6d:e7:d8:77:4a:26:14:85:30:f5:9d:45:cf:7c:
                    f0:c5:47:4a:24:d5:95:ce:28:19:80:37:bf:7c:47:
                    eb:c9:c8:71:3e:44:23:f4:f4:63:f1:15:c2:a2:e0:
                    25:fd:86:19:18:3d:d3:40:ed:5d:c1:90:64:e2:70:
                    e2:9a:10:5c:92:f3:83:45:cb:b8:07:d3:cc:0c:ee:
                    1d:70:8e:49:f0:89:ec:85:8e:5e:ee:f5:c9:8e:90:
                    8d:a6:e3:71:f7:f2:20:67:0a:a4:06:9f:60:fc:0c:
                    4d:47:eb:10:39:89:5f:5d:3a:a6:8f:50:45:39:4b:
                    8f:9e:bf:f7:a9:e6:da:d5:e7:f2:e6:97:c0:9e:9f:
                    36:8d:8e:a4:d8:30:c7:c5:74:75:9b:06:e0:c2:b6:
                    db:0d:93:7a:0f:80:2f:a5:3a:a7:96:cd:d6:f7:5d:
                    66:ee:c3:35:86:e6:d0:51:ab:77:26:97:0b:80:c9:
                    03:97:8e:71:8b:7f:e2:cc:a8:d7:eb:7a:1e:4f:01:
                    fe:27:32:34:ff:f7:09:3b:bb:a9:c6:c8:1c:4d:fb:
                    13:b7:fd:4c:14:ef:b3:43:d4:d5:a5:dc:88:10:df:
                    0d:29:fb:1a:bd:34:90:20:17:55:dc:21:20:30:04:
                    61:43:c6:fa:d4:cd:3f:b0:3e:a2:80:35:c7:3e:73:
                    ac:4d:b4:4c:a5:0b:43:9a:df:b0:cd:0b:0c:da:6b:
                    1c:08:c5
                Exponent: 65537 (0x10001)
        X509v3 extensions:
            X509v3 Basic Constraints: 
                CA:FALSE
            Netscape Comment: 
                Easy-RSA Generated Certificate
            X509v3 Subject Key Identifier: 
                E4:A7:CA:FF:40:DD:48:CE:46:3B:88:A6:61:0B:4E:25:46:C3:C9:E8
            X509v3 Authority Key Identifier: 
                keyid:12:CD:60:04:D2:A0:80:9E:70:ED:C6:99:B8:7B:2C:C6:52:FD:19:A1
                DirName:/C=US/ST=OH/L=Columbus/O=VikingVPN/OU=MyOrganizationalUnit/CN=VikingVPN CA/name=EasyRSA/emailAddress=me@myhost.mydomain
                serial:CF:35:85:EE:80:BF:2A:3E

            X509v3 Extended Key Usage: 
                TLS Web Client Authentication
            X509v3 Key Usage: 
                Digital Signature
    Signature Algorithm: sha256WithRSAEncryption
         05:74:2a:b6:80:6f:7a:a0:f3:7a:a1:e5:e9:20:40:7f:ae:64:
         8d:98:9d:20:fd:ac:74:6a:50:ce:b9:01:b4:5c:3c:c2:33:a2:
         05:d6:df:31:05:6a:98:ff:95:d8:e3:49:35:ee:21:d1:56:8b:
         86:5f:e1:c5:87:a3:4c:7c:0f:e0:10:05:cd:8e:82:5f:f2:0a:
         de:03:b1:17:cd:cc:f3:c2:ca:19:55:34:2d:88:fd:b7:9c:e2:
         81:20:1d:4c:d5:5c:6e:d7:49:a1:63:a4:50:2e:a3:82:ea:eb:
         a6:57:2a:4c:52:ff:3f:ec:0c:24:48:17:c6:5f:e3:14:54:70:
         fe:f5:18:2c:19:93:b5:21:5f:c1:e2:9e:a9:0b:3a:7c:c8:9f:
         0c:0c:3f:25:c5:f8:18:97:a7:15:5a:5b:23:5f:a3:ec:65:1e:
         be:0a:e6:86:51:45:30:b6:31:66:2e:53:fb:85:f5:eb:6b:00:
         7c:86:b8:07:a4:05:a9:bf:24:d5:3c:f7:e0:7f:99:2d:cd:5c:
         52:5e:ee:f8:07:8d:c2:b2:db:44:c9:da:4e:62:7a:fe:90:04:
         b6:05:62:96:9b:79:0d:2e:fa:f4:0f:f8:02:d1:42:9d:0d:13:
         2b:5c:18:a6:26:39:1a:87:17:0c:47:4b:d0:53:ef:60:ac:e0:
         1a:72:73:e7:5f:6e:27:01:ff:e9:bb:3f:b2:74:43:83:c7:32:
         7c:27:09:71:7c:a5:52:9d:25:aa:f6:92:39:72:69:7e:a3:c0:
         6d:74:34:e4:01:95:fa:e5:1f:5e:a7:b2:84:ab:2c:04:ef:b5:
         ae:ab:2b:dc:2c:e2:e2:b1:f0:d1:c9:88:92:03:27:bd:de:63:
         35:35:f3:00:be:66:54:da:ce:0c:b0:98:46:62:45:52:62:9f:
         bf:7f:f3:10:37:90:d6:bf:b4:cf:38:d4:0b:f0:2a:9e:27:74:
         3d:de:e9:de:cc:f6:70:89:7e:48:8d:ac:93:a1:66:f1:5a:e5:
         45:5f:ca:8c:29:37:69:8b:b3:38:14:22:f2:bd:aa:44:d5:02:
         b3:00:5b:aa:15:62:b8:65:0c:56:cc:4d:fb:09:e3:1d:e9:0b:
         41:d2:e8:8f:b3:8b:6a:f9:57:51:64:4e:ea:6c:57:e7:be:41:
         ab:a4:35:89:dc:4e:ef:d5:fa:90:00:6b:5e:3a:31:23:29:a0:
         ba:b5:96:3b:53:10:ff:8f:c3:53:52:43:cb:59:f3:13:d8:4b:
         b1:99:55:71:9d:54:6e:56:7f:04:0e:3e:bb:c7:b5:2b:87:7e:
         12:e5:a9:39:d9:23:2a:7f:20:78:9b:14:03:68:ea:00:0e:75:
         26:69:67:c8:12:59:6f:60
-----BEGIN CERTIFICATE-----
MIIGrTCCBJWgAwIBAgICLtwwDQYJKoZIhvcNAQELBQAwgawxCzAJBgNVBAYTAlVT
MQswCQYDVQQIEwJPSDERMA8GA1UEBxMIQ29sdW1idXMxEjAQBgNVBAoTCVZpa2lu
Z1ZQTjEdMBsGA1UECxMUTXlPcmdhbml6YXRpb25hbFVuaXQxFTATBgNVBAMTDFZp
a2luZ1ZQTiBDQTEQMA4GA1UEKRMHRWFzeVJTQTEhMB8GCSqGSIb3DQEJARYSbWVA
bXlob3N0Lm15ZG9tYWluMB4XDTE3MTAxOTA0MDk1OFoXDTI3MTAxNzA0MDk1OFow
HzEdMBsGA1UEAxMUQ2xpZW50MzEzMENlcnQxMTE3ODIwggIiMA0GCSqGSIb3DQEB
AQUAA4ICDwAwggIKAoICAQCfwhgqELNjGpeLhQc8rP0fqtJ9xBZlVL5Nd64LGt7r
+uWYjdyeNjTM2n/dg7i+VSPjAfC+ekQEKFqT9XXaeWCssDejUak6dIcD+HiysSP4
FWz4Rv3tmEojGf+v+g/b889gfhW3H9mfezGtj+z496vgNgH7mBh+25Vy84FKTu6Y
SyRZV/MM+9kXBH7Wn8oO7DibSrQh9lrulcQ7WdegLwZs5m2t679+OU0cm+CvbUJL
QOTG0Zd+JKPcLKfM7za+ylj87Pnx7cvZW3xe/WVhq36Syew/GVU/4Ne2qhg0IZIx
egoUW3oLhQoCLcQ94p33kMZt59h3SiYUhTD1nUXPfPDFR0ok1ZXOKBmAN798R+vJ
yHE+RCP09GPxFcKi4CX9hhkYPdNA7V3BkGTicOKaEFyS84NFy7gH08wM7h1wjknw
ieyFjl7u9cmOkI2m43H38iBnCqQGn2D8DE1H6xA5iV9dOqaPUEU5S4+ev/ep5trV
5/Lml8CenzaNjqTYMMfFdHWbBuDCttsNk3oPgC+lOqeWzdb3XWbuwzWG5tBRq3cm
lwuAyQOXjnGLf+LMqNfreh5PAf4nMjT/9wk7u6nGyBxN+xO3/UwU77ND1NWl3IgQ
3w0p+xq9NJAgF1XcISAwBGFDxvrUzT+wPqKANcc+c6xNtEylC0Oa37DNCwzaaxwI
xQIDAQABo4IBYzCCAV8wCQYDVR0TBAIwADAtBglghkgBhvhCAQ0EIBYeRWFzeS1S
U0EgR2VuZXJhdGVkIENlcnRpZmljYXRlMB0GA1UdDgQWBBTkp8r/QN1IzkY7iKZh
C04lRsPJ6DCB4QYDVR0jBIHZMIHWgBQSzWAE0qCAnnDtxpm4eyzGUv0ZoaGBsqSB
rzCBrDELMAkGA1UEBhMCVVMxCzAJBgNVBAgTAk9IMREwDwYDVQQHEwhDb2x1bWJ1
czESMBAGA1UEChMJVmlraW5nVlBOMR0wGwYDVQQLExRNeU9yZ2FuaXphdGlvbmFs
VW5pdDEVMBMGA1UEAxMMVmlraW5nVlBOIENBMRAwDgYDVQQpEwdFYXN5UlNBMSEw
HwYJKoZIhvcNAQkBFhJtZUBteWhvc3QubXlkb21haW6CCQDPNYXugL8qPjATBgNV
HSUEDDAKBggrBgEFBQcDAjALBgNVHQ8EBAMCB4AwDQYJKoZIhvcNAQELBQADggIB
AAV0KraAb3qg83qh5ekgQH+uZI2YnSD9rHRqUM65AbRcPMIzogXW3zEFapj/ldjj
STXuIdFWi4Zf4cWHo0x8D+AQBc2Ogl/yCt4DsRfNzPPCyhlVNC2I/bec4oEgHUzV
XG7XSaFjpFAuo4Lq66ZXKkxS/z/sDCRIF8Zf4xRUcP71GCwZk7UhX8HinqkLOnzI
nwwMPyXF+BiXpxVaWyNfo+xlHr4K5oZRRTC2MWYuU/uF9etrAHyGuAekBam/JNU8
9+B/mS3NXFJe7vgHjcKy20TJ2k5iev6QBLYFYpabeQ0u+vQP+ALRQp0NEytcGKYm
ORqHFwxHS9BT72Cs4Bpyc+dfbicB/+m7P7J0Q4PHMnwnCXF8pVKdJar2kjlyaX6j
wG10NOQBlfrlH16nsoSrLATvta6rK9ws4uKx8NHJiJIDJ73eYzU18wC+ZlTazgyw
mEZiRVJin79/8xA3kNa/tM841AvwKp4ndD3e6d7M9nCJfkiNrJOhZvFa5UVfyowp
N2mLszgUIvK9qkTVArMAW6oVYrhlDFbMTfsJ4x3pC0HS6I+zi2r5V1FkTupsV+e+
QaukNYncTu/V+pAAa146MSMpoLq1ljtTEP+Pw1NSQ8tZ8xPYS7GZVXGdVG5WfwQO
PrvHtSuHfhLlqTnZIyp/IHibFANo6gAOdSZpZ8gSWW9g
-----END CERTIFICATE-----
