Certificate:
    Data:
        Version: 3 (0x2)
        Serial Number: 11999 (0x2edf)
    Signature Algorithm: sha256WithRSAEncryption
        Issuer: C=US, ST=OH, L=Columbus, O=VikingVPN, OU=MyOrganizationalUnit, CN=VikingVPN CA/name=EasyRSA/emailAddress=me@myhost.mydomain
        Validity
            Not Before: Oct 20 01:34:32 2017 GMT
            Not After : Oct 18 01:34:32 2027 GMT
        Subject: CN=Client2816Cert2a2a18
        Subject Public Key Info:
            Public Key Algorithm: rsaEncryption
                Public-Key: (4096 bit)
                Modulus:
                    00:c9:eb:4b:0b:5d:5d:d3:99:f2:a1:7f:fb:bb:ab:
                    5e:3d:b4:69:37:b6:65:a1:7b:3d:84:83:c4:d4:de:
                    df:f7:93:fb:69:22:cb:8e:9a:5b:13:2f:57:bc:2a:
                    ce:0d:a8:5c:00:45:bf:8b:1f:b0:c7:07:ce:46:c1:
                    69:ec:5f:d8:e3:6e:b5:b2:ff:68:77:d7:df:8c:95:
                    7b:fc:f0:a9:ac:b2:99:88:39:61:1c:f9:f3:77:8e:
                    19:df:7c:2d:ee:27:94:5b:b4:ec:ec:63:6d:da:15:
                    ce:45:1f:6b:7b:dd:b5:9a:88:e5:84:f7:1e:8b:08:
                    2a:67:1a:e8:47:bb:bd:b7:37:bc:66:6c:cd:ae:bb:
                    1c:f7:1e:bb:ab:9d:56:85:01:13:f5:4a:66:e2:c3:
                    98:94:13:22:69:ae:1f:0a:43:81:c1:86:2a:51:a2:
                    57:e0:15:fe:9a:52:87:67:a6:18:f6:f3:06:cd:cf:
                    70:fa:5a:c4:58:c8:36:d4:5c:04:fd:08:25:fa:2c:
                    d2:69:00:29:91:c8:8d:30:7a:81:b5:c3:29:5c:0c:
                    1e:85:62:18:47:64:59:52:a2:e5:f7:1d:d0:14:63:
                    f1:55:b3:b8:4b:1c:8b:49:8b:74:ce:7b:8b:8c:26:
                    a3:7d:ae:d7:d0:7c:76:5e:84:fe:68:90:ec:09:ae:
                    43:cb:87:fa:a4:89:49:7c:d5:69:5d:ce:7a:ce:cb:
                    ec:ca:0a:8d:86:ba:1b:82:44:02:0f:6c:74:07:9b:
                    16:46:4f:ed:d6:c7:5c:f3:33:7f:e1:25:b8:b6:c0:
                    76:80:86:64:a2:37:9f:ab:63:86:b1:17:85:92:63:
                    cf:b8:18:83:21:fa:00:53:8b:cc:36:db:f7:15:d3:
                    f8:00:db:9f:2f:b8:9f:bd:80:70:63:9c:4a:46:8d:
                    38:5f:0b:a3:00:7b:e1:c5:36:72:fb:8b:ba:51:e7:
                    89:47:47:16:58:a2:82:01:3f:93:98:f4:db:8f:7f:
                    7f:75:74:10:65:ef:9a:2f:87:45:42:6f:4a:d0:5f:
                    d3:34:cf:76:26:50:9f:6c:bb:86:6f:eb:eb:ee:2b:
                    dd:9e:17:f8:92:e5:d7:2a:d0:d2:db:50:5e:be:9d:
                    bd:0d:0a:b6:c8:9c:07:1c:2b:19:4d:66:15:e1:7c:
                    16:6a:8e:50:46:28:61:75:06:dc:92:9e:ed:bd:2f:
                    9b:a2:0a:36:14:cc:54:ab:96:25:a1:8c:1f:50:b5:
                    c9:59:67:41:0c:71:f0:23:2d:37:c4:e3:51:fb:1e:
                    b1:33:f5:18:ba:c9:a3:fd:ec:3c:ce:e2:e0:2a:57:
                    f0:fe:77:5b:25:6a:87:3a:64:43:44:67:96:95:d5:
                    9e:13:ef
                Exponent: 65537 (0x10001)
        X509v3 extensions:
            X509v3 Basic Constraints: 
                CA:FALSE
            Netscape Comment: 
                Easy-RSA Generated Certificate
            X509v3 Subject Key Identifier: 
                70:57:D1:2E:04:4C:BE:E6:86:C5:B8:B4:32:D6:4B:30:29:25:40:23
            X509v3 Authority Key Identifier: 
                keyid:12:CD:60:04:D2:A0:80:9E:70:ED:C6:99:B8:7B:2C:C6:52:FD:19:A1
                DirName:/C=US/ST=OH/L=Columbus/O=VikingVPN/OU=MyOrganizationalUnit/CN=VikingVPN CA/name=EasyRSA/emailAddress=me@myhost.mydomain
                serial:CF:35:85:EE:80:BF:2A:3E

            X509v3 Extended Key Usage: 
                TLS Web Client Authentication
            X509v3 Key Usage: 
                Digital Signature
    Signature Algorithm: sha256WithRSAEncryption
         53:bb:1a:c4:78:c1:cf:c5:2d:12:51:01:70:2e:f0:8e:07:37:
         55:f2:86:45:31:ab:11:f7:0e:a6:b6:18:a5:39:e9:86:d7:ee:
         a0:49:fb:70:f8:e5:c8:a1:d5:65:48:30:d8:ef:73:6f:62:eb:
         42:f6:2c:9a:48:98:33:14:e8:50:46:6a:ef:5c:aa:f7:75:04:
         bc:fc:9e:4d:90:f2:e1:a4:42:99:a2:01:58:fb:51:de:8b:74:
         ff:9c:a8:d3:f6:e6:82:fb:55:6a:4a:e0:7d:d9:f2:c9:66:6f:
         8f:06:34:a6:c2:16:9d:68:13:81:85:92:23:87:56:ac:ba:4e:
         01:33:d8:ea:b8:17:7a:7d:0e:6a:37:40:7e:b7:12:6b:ee:5e:
         d2:35:13:54:a6:64:08:0d:46:ba:59:60:bd:3f:4e:cc:a0:6d:
         fb:60:06:02:e1:c1:65:5c:75:04:69:cd:bd:1a:90:32:9f:b9:
         89:cb:c5:5e:f8:80:f9:68:b1:99:e6:dd:9c:a7:de:4e:45:06:
         4d:12:56:f4:13:49:43:a8:ba:08:0a:67:33:09:9a:a9:97:f1:
         80:f2:05:24:2b:c3:32:b6:7d:b5:6d:90:93:6c:3b:93:c6:37:
         13:08:f4:f4:12:da:bf:97:a5:b9:78:2c:56:fd:89:79:a3:78:
         94:bc:ee:09:25:ea:d1:29:a5:39:34:4a:86:02:0c:81:2d:0c:
         ff:61:40:57:9a:7d:c1:f2:2b:a5:3f:4d:50:d1:ed:c1:99:f4:
         80:7b:11:0c:d3:17:11:f3:32:de:a9:38:0a:2a:df:6f:6f:ae:
         1e:a0:a0:44:6d:97:04:29:da:fc:66:d8:bd:92:8a:1c:f5:4c:
         f4:02:42:39:05:2b:b3:98:6b:d5:a8:dc:1f:f7:45:48:99:02:
         77:0a:c3:40:46:f3:ee:d0:5c:dd:8e:ed:eb:5b:a8:2a:1e:3c:
         00:10:86:70:8e:de:39:6e:0e:b4:8d:92:14:1b:33:06:fc:26:
         22:72:97:8a:54:be:3e:96:83:f1:80:6b:37:fa:bb:78:3e:69:
         12:92:f0:7d:f4:53:61:cb:2c:03:98:fb:62:2e:b6:f8:12:e9:
         7a:31:fe:19:2b:aa:11:c0:a2:8b:46:5c:60:f5:9f:20:2c:cb:
         d8:b4:07:9e:b4:a1:43:b6:6d:63:85:c7:40:d8:0b:98:e8:20:
         36:c4:c2:89:6c:b8:c0:51:ff:c8:96:b8:15:25:c9:33:b5:f1:
         70:dc:2c:ef:ba:2d:5e:84:65:1f:c0:34:3e:6c:9d:e8:c0:d0:
         9c:b9:88:0f:a5:2e:2d:43:a0:ea:26:ae:3c:2d:50:90:86:a6:
         15:b7:26:af:f6:35:79:63
-----BEGIN CERTIFICATE-----
MIIGrTCCBJWgAwIBAgICLt8wDQYJKoZIhvcNAQELBQAwgawxCzAJBgNVBAYTAlVT
MQswCQYDVQQIEwJPSDERMA8GA1UEBxMIQ29sdW1idXMxEjAQBgNVBAoTCVZpa2lu
Z1ZQTjEdMBsGA1UECxMUTXlPcmdhbml6YXRpb25hbFVuaXQxFTATBgNVBAMTDFZp
a2luZ1ZQTiBDQTEQMA4GA1UEKRMHRWFzeVJTQTEhMB8GCSqGSIb3DQEJARYSbWVA
bXlob3N0Lm15ZG9tYWluMB4XDTE3MTAyMDAxMzQzMloXDTI3MTAxODAxMzQzMlow
HzEdMBsGA1UEAxMUQ2xpZW50MjgxNkNlcnQyYTJhMTgwggIiMA0GCSqGSIb3DQEB
AQUAA4ICDwAwggIKAoICAQDJ60sLXV3TmfKhf/u7q149tGk3tmWhez2Eg8TU3t/3
k/tpIsuOmlsTL1e8Ks4NqFwARb+LH7DHB85GwWnsX9jjbrWy/2h319+MlXv88Kms
spmIOWEc+fN3jhnffC3uJ5RbtOzsY23aFc5FH2t73bWaiOWE9x6LCCpnGuhHu723
N7xmbM2uuxz3HrurnVaFARP1Smbiw5iUEyJprh8KQ4HBhipRolfgFf6aUodnphj2
8wbNz3D6WsRYyDbUXAT9CCX6LNJpACmRyI0weoG1wylcDB6FYhhHZFlSouX3HdAU
Y/FVs7hLHItJi3TOe4uMJqN9rtfQfHZehP5okOwJrkPLh/qkiUl81WldznrOy+zK
Co2GuhuCRAIPbHQHmxZGT+3Wx1zzM3/hJbi2wHaAhmSiN5+rY4axF4WSY8+4GIMh
+gBTi8w22/cV0/gA258vuJ+9gHBjnEpGjThfC6MAe+HFNnL7i7pR54lHRxZYooIB
P5OY9NuPf391dBBl75ovh0VCb0rQX9M0z3YmUJ9su4Zv6+vuK92eF/iS5dcq0NLb
UF6+nb0NCrbInAccKxlNZhXhfBZqjlBGKGF1BtySnu29L5uiCjYUzFSrliWhjB9Q
tclZZ0EMcfAjLTfE41H7HrEz9Ri6yaP97DzO4uAqV/D+d1slaoc6ZENEZ5aV1Z4T
7wIDAQABo4IBYzCCAV8wCQYDVR0TBAIwADAtBglghkgBhvhCAQ0EIBYeRWFzeS1S
U0EgR2VuZXJhdGVkIENlcnRpZmljYXRlMB0GA1UdDgQWBBRwV9EuBEy+5obFuLQy
1kswKSVAIzCB4QYDVR0jBIHZMIHWgBQSzWAE0qCAnnDtxpm4eyzGUv0ZoaGBsqSB
rzCBrDELMAkGA1UEBhMCVVMxCzAJBgNVBAgTAk9IMREwDwYDVQQHEwhDb2x1bWJ1
czESMBAGA1UEChMJVmlraW5nVlBOMR0wGwYDVQQLExRNeU9yZ2FuaXphdGlvbmFs
VW5pdDEVMBMGA1UEAxMMVmlraW5nVlBOIENBMRAwDgYDVQQpEwdFYXN5UlNBMSEw
HwYJKoZIhvcNAQkBFhJtZUBteWhvc3QubXlkb21haW6CCQDPNYXugL8qPjATBgNV
HSUEDDAKBggrBgEFBQcDAjALBgNVHQ8EBAMCB4AwDQYJKoZIhvcNAQELBQADggIB
AFO7GsR4wc/FLRJRAXAu8I4HN1XyhkUxqxH3Dqa2GKU56YbX7qBJ+3D45cih1WVI
MNjvc29i60L2LJpImDMU6FBGau9cqvd1BLz8nk2Q8uGkQpmiAVj7Ud6LdP+cqNP2
5oL7VWpK4H3Z8slmb48GNKbCFp1oE4GFkiOHVqy6TgEz2Oq4F3p9Dmo3QH63Emvu
XtI1E1SmZAgNRrpZYL0/TsygbftgBgLhwWVcdQRpzb0akDKfuYnLxV74gPlosZnm
3Zyn3k5FBk0SVvQTSUOouggKZzMJmqmX8YDyBSQrwzK2fbVtkJNsO5PGNxMI9PQS
2r+Xpbl4LFb9iXmjeJS87gkl6tEppTk0SoYCDIEtDP9hQFeafcHyK6U/TVDR7cGZ
9IB7EQzTFxHzMt6pOAoq329vrh6goERtlwQp2vxm2L2Sihz1TPQCQjkFK7OYa9Wo
3B/3RUiZAncKw0BG8+7QXN2O7etbqCoePAAQhnCO3jluDrSNkhQbMwb8JiJyl4pU
vj6Wg/GAazf6u3g+aRKS8H30U2HLLAOY+2IutvgS6Xox/hkrqhHAootGXGD1nyAs
y9i0B560oUO2bWOFx0DYC5joIDbEwolsuMBR/8iWuBUlyTO18XDcLO+6LV6EZR/A
ND5snejA0Jy5iA+lLi1DoOomrjwtUJCGphW3Jq/2NXlj
-----END CERTIFICATE-----
