Certificate:
    Data:
        Version: 3 (0x2)
        Serial Number: 12045 (0x2f0d)
    Signature Algorithm: sha256WithRSAEncryption
        Issuer: C=US, ST=OH, L=Columbus, O=VikingVPN, OU=MyOrganizationalUnit, CN=VikingVPN CA/name=EasyRSA/emailAddress=me@myhost.mydomain
        Validity
            Not Before: Oct 30 11:37:58 2017 GMT
            Not After : Oct 28 11:37:58 2027 GMT
        Subject: CN=Client2935Certd20003
        Subject Public Key Info:
            Public Key Algorithm: rsaEncryption
                Public-Key: (4096 bit)
                Modulus:
                    00:db:88:ec:13:f9:ad:35:cb:4e:89:b4:28:b4:6c:
                    23:8f:70:2e:8b:06:b0:05:76:1e:9c:d3:9e:cb:99:
                    f1:8e:de:7d:26:30:be:6f:39:60:ce:29:59:db:51:
                    e5:8d:de:d4:ca:a7:58:04:73:ab:64:e8:d5:9e:ce:
                    db:8e:21:9b:e5:22:69:9c:b6:8c:b1:1f:3a:55:70:
                    e2:a6:7b:0d:e3:96:61:13:3f:11:04:8f:36:5f:25:
                    a6:19:af:56:d2:9f:85:06:64:35:89:b5:28:9c:26:
                    e9:3c:bf:13:d9:bb:c4:93:55:ff:c3:25:0f:c0:bc:
                    60:2f:04:f5:6d:6f:77:6b:c9:6f:c3:c8:74:67:26:
                    e4:5c:26:99:b5:ec:51:8d:d9:3c:b3:ac:5d:ae:fc:
                    da:b6:46:d9:0f:34:19:28:80:4d:52:a9:9c:83:da:
                    14:40:ff:cd:a0:f2:f0:47:31:c9:f6:d6:cb:7d:07:
                    55:5f:c5:60:0e:36:02:f4:be:b9:a0:00:e3:f7:de:
                    6d:a7:f7:d2:3a:89:7b:3a:1d:08:72:68:36:78:fb:
                    c6:31:31:d2:a7:db:e1:45:ac:f4:e3:be:2c:2b:5b:
                    b9:06:c8:f2:6e:7d:d3:8e:b2:d6:ec:f6:b7:49:da:
                    e9:f1:da:ce:f7:2e:2e:a4:b8:3d:ce:12:01:d1:03:
                    92:ca:f2:d4:9d:f9:86:95:5b:bf:be:76:4e:e1:af:
                    6f:f6:65:8f:0f:4a:59:11:64:09:1d:65:db:69:73:
                    52:16:d1:06:d6:36:d9:f6:a0:db:09:f9:59:2f:95:
                    85:d3:f1:4f:90:b3:85:51:57:bd:c4:0e:8a:74:96:
                    43:35:c4:66:b9:82:c8:e4:82:30:1a:e4:ac:ff:96:
                    75:66:f1:51:65:5a:83:ee:da:29:2f:16:bc:86:ff:
                    cc:f8:d4:4b:d9:68:62:6e:b0:14:2e:45:ec:b0:7c:
                    14:7c:e7:19:4f:34:a3:46:af:5e:7f:44:28:8a:30:
                    2a:9b:ae:20:8b:d9:ed:2d:96:a8:0d:48:1b:37:80:
                    1f:c8:7e:d9:e7:40:5d:a9:e5:55:16:3b:a2:af:3f:
                    7f:e3:d3:d6:6e:ca:9a:e4:37:1c:bf:1d:e4:08:7b:
                    03:f5:ac:9d:f9:7e:d6:bb:57:72:4a:bc:e2:7b:64:
                    bb:ba:6e:a5:ba:c6:17:6d:21:49:d6:f9:63:23:fd:
                    57:c5:f4:40:9f:7b:f4:e0:2d:94:eb:94:7f:47:70:
                    e4:c2:f7:d4:e6:08:00:9c:da:c2:5d:bc:ed:c2:bc:
                    0d:75:cf:89:b6:d1:ea:e1:49:74:5e:f8:a1:5e:92:
                    f0:ed:e6:1b:4c:25:c7:c0:e3:9e:86:66:42:0e:d4:
                    91:97:7b
                Exponent: 65537 (0x10001)
        X509v3 extensions:
            X509v3 Basic Constraints: 
                CA:FALSE
            Netscape Comment: 
                Easy-RSA Generated Certificate
            X509v3 Subject Key Identifier: 
                BE:9E:6F:68:56:01:2B:D4:76:D4:B6:39:F9:96:1C:0D:28:01:8F:42
            X509v3 Authority Key Identifier: 
                keyid:12:CD:60:04:D2:A0:80:9E:70:ED:C6:99:B8:7B:2C:C6:52:FD:19:A1
                DirName:/C=US/ST=OH/L=Columbus/O=VikingVPN/OU=MyOrganizationalUnit/CN=VikingVPN CA/name=EasyRSA/emailAddress=me@myhost.mydomain
                serial:CF:35:85:EE:80:BF:2A:3E

            X509v3 Extended Key Usage: 
                TLS Web Client Authentication
            X509v3 Key Usage: 
                Digital Signature
    Signature Algorithm: sha256WithRSAEncryption
         52:1b:d0:11:1c:55:56:5e:26:6d:83:d0:6a:68:ce:c6:99:e2:
         5f:55:6e:8f:07:1f:00:a8:0d:b5:9b:b8:ba:1c:70:1b:bc:a1:
         d8:2b:3b:d4:99:b7:87:53:04:a4:e5:54:8d:8a:69:fc:a4:44:
         40:8b:96:9b:d4:c5:0b:fb:44:1e:92:76:be:4d:56:44:c3:78:
         c2:fb:97:82:aa:0a:e3:5b:28:b1:08:4c:3d:82:3a:c2:01:c1:
         b2:c9:ff:4d:2f:b2:09:3f:ba:c5:38:d9:42:58:08:96:63:e2:
         75:c1:50:65:b3:7e:3d:9f:32:ab:4d:06:6e:b7:c5:bb:d6:14:
         19:de:0b:82:bc:fb:59:d0:e5:66:7d:59:19:8e:22:1e:ae:e9:
         89:45:64:3d:02:00:62:ca:12:ad:b5:71:ef:ed:25:cd:4b:ab:
         2c:d4:32:7e:1c:94:49:7a:2f:81:ca:b0:9e:b8:8c:c2:bc:a9:
         af:b3:f6:11:0d:21:a7:68:fa:be:ba:ca:21:11:85:66:be:48:
         6f:8d:02:db:12:85:29:ee:b2:3f:79:dc:8e:60:ce:6f:9d:64:
         80:e7:62:67:80:5e:74:4b:23:a1:e0:26:62:4d:77:28:79:00:
         c9:c5:a7:da:10:c4:04:f8:20:9f:0c:06:97:8a:d0:25:49:0e:
         dc:62:63:b8:1e:eb:0b:51:6d:5b:00:ad:a5:98:11:fd:ee:2c:
         d8:d4:4d:35:fa:32:cc:72:a3:b6:bf:13:1e:e6:17:99:07:72:
         d2:ca:80:02:30:be:1d:0f:a1:c9:83:55:2c:fd:14:d1:6e:ae:
         d5:00:eb:84:e4:20:07:28:01:0d:cf:86:21:ef:1e:08:4d:da:
         19:3e:3d:c7:0d:35:61:ca:cd:71:7f:1a:82:86:d9:62:81:57:
         37:81:dc:d0:8b:8a:19:a1:a9:91:80:70:59:0e:3d:f7:68:78:
         ff:7b:00:ba:4d:09:dd:2a:0a:f4:a0:ae:4c:3e:9c:a4:ce:76:
         ee:48:dd:cd:95:a6:fe:3a:2b:41:69:48:d5:82:2d:dd:3a:04:
         10:d4:83:5d:27:b4:90:2c:41:8d:8c:53:e1:94:6d:65:dd:58:
         b5:1c:24:df:04:fb:bc:62:d7:81:5d:d3:59:59:1f:20:7d:17:
         55:23:1a:84:3f:8c:69:60:ea:4f:64:ec:64:3d:00:ec:14:ad:
         8b:86:c7:71:6a:f7:1d:90:1d:04:25:a8:24:a6:cf:86:fe:b3:
         ef:bb:5d:75:da:e6:9d:29:8f:60:9e:c2:9c:d8:22:93:2e:2b:
         77:0f:25:9e:1a:3c:ee:98:b5:bf:59:d2:32:8b:ba:9c:70:0a:
         1c:df:58:54:82:fa:f2:a7
-----BEGIN CERTIFICATE-----
MIIGrTCCBJWgAwIBAgICLw0wDQYJKoZIhvcNAQELBQAwgawxCzAJBgNVBAYTAlVT
MQswCQYDVQQIEwJPSDERMA8GA1UEBxMIQ29sdW1idXMxEjAQBgNVBAoTCVZpa2lu
Z1ZQTjEdMBsGA1UECxMUTXlPcmdhbml6YXRpb25hbFVuaXQxFTATBgNVBAMTDFZp
a2luZ1ZQTiBDQTEQMA4GA1UEKRMHRWFzeVJTQTEhMB8GCSqGSIb3DQEJARYSbWVA
bXlob3N0Lm15ZG9tYWluMB4XDTE3MTAzMDExMzc1OFoXDTI3MTAyODExMzc1OFow
HzEdMBsGA1UEAxMUQ2xpZW50MjkzNUNlcnRkMjAwMDMwggIiMA0GCSqGSIb3DQEB
AQUAA4ICDwAwggIKAoICAQDbiOwT+a01y06JtCi0bCOPcC6LBrAFdh6c057LmfGO
3n0mML5vOWDOKVnbUeWN3tTKp1gEc6tk6NWeztuOIZvlImmctoyxHzpVcOKmew3j
lmETPxEEjzZfJaYZr1bSn4UGZDWJtSicJuk8vxPZu8STVf/DJQ/AvGAvBPVtb3dr
yW/DyHRnJuRcJpm17FGN2TyzrF2u/Nq2RtkPNBkogE1SqZyD2hRA/82g8vBHMcn2
1st9B1VfxWAONgL0vrmgAOP33m2n99I6iXs6HQhyaDZ4+8YxMdKn2+FFrPTjviwr
W7kGyPJufdOOstbs9rdJ2unx2s73Li6kuD3OEgHRA5LK8tSd+YaVW7++dk7hr2/2
ZY8PSlkRZAkdZdtpc1IW0QbWNtn2oNsJ+VkvlYXT8U+Qs4VRV73EDop0lkM1xGa5
gsjkgjAa5Kz/lnVm8VFlWoPu2ikvFryG/8z41EvZaGJusBQuReywfBR85xlPNKNG
r15/RCiKMCqbriCL2e0tlqgNSBs3gB/IftnnQF2p5VUWO6KvP3/j09ZuyprkNxy/
HeQIewP1rJ35fta7V3JKvOJ7ZLu6bqW6xhdtIUnW+WMj/VfF9ECfe/TgLZTrlH9H
cOTC99TmCACc2sJdvO3CvA11z4m20erhSXRe+KFekvDt5htMJcfA456GZkIO1JGX
ewIDAQABo4IBYzCCAV8wCQYDVR0TBAIwADAtBglghkgBhvhCAQ0EIBYeRWFzeS1S
U0EgR2VuZXJhdGVkIENlcnRpZmljYXRlMB0GA1UdDgQWBBS+nm9oVgEr1HbUtjn5
lhwNKAGPQjCB4QYDVR0jBIHZMIHWgBQSzWAE0qCAnnDtxpm4eyzGUv0ZoaGBsqSB
rzCBrDELMAkGA1UEBhMCVVMxCzAJBgNVBAgTAk9IMREwDwYDVQQHEwhDb2x1bWJ1
czESMBAGA1UEChMJVmlraW5nVlBOMR0wGwYDVQQLExRNeU9yZ2FuaXphdGlvbmFs
VW5pdDEVMBMGA1UEAxMMVmlraW5nVlBOIENBMRAwDgYDVQQpEwdFYXN5UlNBMSEw
HwYJKoZIhvcNAQkBFhJtZUBteWhvc3QubXlkb21haW6CCQDPNYXugL8qPjATBgNV
HSUEDDAKBggrBgEFBQcDAjALBgNVHQ8EBAMCB4AwDQYJKoZIhvcNAQELBQADggIB
AFIb0BEcVVZeJm2D0GpozsaZ4l9Vbo8HHwCoDbWbuLoccBu8odgrO9SZt4dTBKTl
VI2KafykRECLlpvUxQv7RB6Sdr5NVkTDeML7l4KqCuNbKLEITD2COsIBwbLJ/00v
sgk/usU42UJYCJZj4nXBUGWzfj2fMqtNBm63xbvWFBneC4K8+1nQ5WZ9WRmOIh6u
6YlFZD0CAGLKEq21ce/tJc1LqyzUMn4clEl6L4HKsJ64jMK8qa+z9hENIado+r66
yiERhWa+SG+NAtsShSnusj953I5gzm+dZIDnYmeAXnRLI6HgJmJNdyh5AMnFp9oQ
xAT4IJ8MBpeK0CVJDtxiY7ge6wtRbVsAraWYEf3uLNjUTTX6Msxyo7a/Ex7mF5kH
ctLKgAIwvh0PocmDVSz9FNFurtUA64TkIAcoAQ3PhiHvHghN2hk+PccNNWHKzXF/
GoKG2WKBVzeB3NCLihmhqZGAcFkOPfdoeP97ALpNCd0qCvSgrkw+nKTOdu5I3c2V
pv46K0FpSNWCLd06BBDUg10ntJAsQY2MU+GUbWXdWLUcJN8E+7xi14Fd01lZHyB9
F1UjGoQ/jGlg6k9k7GQ9AOwUrYuGx3Fq9x2QHQQlqCSmz4b+s++7XXXa5p0pj2Ce
wpzYIpMuK3cPJZ4aPO6Ytb9Z0jKLupxwChzfWFSC+vKn
-----END CERTIFICATE-----
