Certificate:
    Data:
        Version: 3 (0x2)
        Serial Number: 12067 (0x2f23)
    Signature Algorithm: sha256WithRSAEncryption
        Issuer: C=US, ST=OH, L=Columbus, O=VikingVPN, OU=MyOrganizationalUnit, CN=VikingVPN CA/name=EasyRSA/emailAddress=me@myhost.mydomain
        Validity
            Not Before: Oct 31 19:33:19 2017 GMT
            Not After : Oct 29 19:33:19 2027 GMT
        Subject: CN=Client1643Certdb7f52
        Subject Public Key Info:
            Public Key Algorithm: rsaEncryption
                Public-Key: (4096 bit)
                Modulus:
                    00:c2:7d:7c:0e:2e:0c:46:ec:7e:23:70:59:83:64:
                    51:d3:71:21:17:28:5c:4a:1f:16:fc:cc:c7:d4:2c:
                    f6:81:51:7e:cc:3c:7f:bc:c0:d7:e9:08:06:b9:6b:
                    f3:1c:c0:e1:31:50:82:22:66:d9:61:10:fc:c2:06:
                    9d:6f:eb:0f:13:61:14:ab:02:be:7b:21:d5:71:40:
                    7c:0c:a3:e4:f2:05:a2:36:04:f7:f6:88:06:7a:95:
                    e8:a1:e5:b2:29:25:88:1a:cc:4f:4f:bd:4b:48:64:
                    93:a2:04:b6:44:77:10:2f:77:be:58:83:66:84:29:
                    e0:d8:af:15:3e:97:4b:38:8f:c5:3e:b8:81:6d:66:
                    08:8f:5c:44:1b:55:fa:44:28:9b:bc:d6:ba:b4:6b:
                    de:2d:bb:c9:7a:73:53:d4:cd:7b:ea:dc:dc:b8:53:
                    a2:81:b2:3f:ff:86:d3:a0:84:61:36:10:29:2b:92:
                    61:98:1d:e7:fb:91:5b:85:3f:1b:cc:26:c9:47:b5:
                    8d:c4:c5:0a:fd:92:59:ce:0c:f6:34:c6:ca:dd:0f:
                    22:91:58:37:a0:68:43:ff:cf:59:c2:46:87:6d:56:
                    c9:f4:50:47:31:a9:25:d0:7e:38:9b:d1:df:a8:b6:
                    9e:b6:82:09:ad:80:87:5a:fb:bd:a2:72:a2:2b:c6:
                    c1:fb:3b:48:56:26:17:d3:fa:a7:1e:2c:4c:97:f4:
                    3b:ab:a5:66:1f:53:70:b7:fc:20:bb:64:62:9e:21:
                    05:c3:14:ab:55:bd:ab:72:20:f2:1c:23:8f:43:dd:
                    a0:5c:e6:0a:94:c3:3f:87:2c:5f:00:46:92:9f:9f:
                    ac:54:cb:72:31:7c:79:8b:6e:29:47:00:a4:71:9b:
                    33:87:f6:fc:82:aa:c0:13:52:bf:9f:22:e1:36:55:
                    0a:91:e4:f6:c3:bf:be:0f:7d:bc:95:3d:2e:de:7d:
                    47:10:8a:37:f2:65:8a:94:a2:58:be:53:4e:17:9c:
                    88:88:d4:dd:75:03:96:e6:c3:c2:57:92:aa:6f:20:
                    f9:23:75:87:00:be:3f:e0:9e:38:d7:72:a0:96:3e:
                    df:b6:f9:1d:92:07:c3:9f:82:8d:c5:4b:c0:be:42:
                    31:36:2f:0d:71:68:10:c3:0e:86:b4:a0:1e:c2:66:
                    58:14:ca:12:44:b5:80:46:ca:06:b2:21:1b:09:8e:
                    5e:46:4a:1c:1f:49:52:14:ad:f0:d4:49:af:a8:47:
                    8a:43:5b:df:af:f2:24:81:cc:d2:3c:a7:97:95:ef:
                    61:52:4c:1e:b2:a7:66:52:fb:5f:28:5b:ee:7b:d3:
                    a3:92:2a:ce:4b:81:5e:5f:ec:85:0f:79:10:c4:8a:
                    1e:9a:d9
                Exponent: 65537 (0x10001)
        X509v3 extensions:
            X509v3 Basic Constraints: 
                CA:FALSE
            Netscape Comment: 
                Easy-RSA Generated Certificate
            X509v3 Subject Key Identifier: 
                2A:46:E3:18:A2:AB:C6:F2:C4:27:A8:18:9C:7A:F3:CD:F9:07:5C:B8
            X509v3 Authority Key Identifier: 
                keyid:12:CD:60:04:D2:A0:80:9E:70:ED:C6:99:B8:7B:2C:C6:52:FD:19:A1
                DirName:/C=US/ST=OH/L=Columbus/O=VikingVPN/OU=MyOrganizationalUnit/CN=VikingVPN CA/name=EasyRSA/emailAddress=me@myhost.mydomain
                serial:CF:35:85:EE:80:BF:2A:3E

            X509v3 Extended Key Usage: 
                TLS Web Client Authentication
            X509v3 Key Usage: 
                Digital Signature
    Signature Algorithm: sha256WithRSAEncryption
         93:21:c8:44:c7:2e:88:c4:49:59:4c:00:3f:8b:3f:da:36:1f:
         03:12:33:5d:ed:f2:15:5f:96:d2:2b:a9:17:00:63:d5:c9:98:
         79:8d:cf:80:66:d1:eb:29:c2:63:05:a0:59:4f:a5:b5:fd:83:
         a1:9e:6e:78:45:aa:e3:52:b0:40:b4:fc:84:d4:99:10:75:de:
         8a:33:ea:70:bc:d8:f4:20:fb:c6:99:7e:47:52:3e:ed:cc:5b:
         9f:b7:a7:b9:13:1e:0f:de:96:62:12:84:42:b0:06:0d:c3:41:
         a8:42:5b:2d:44:46:6c:87:ce:6c:31:b3:8b:d8:32:fc:cb:fa:
         86:f2:27:f4:e0:fb:74:ed:aa:67:4a:63:e7:e8:d6:5b:10:28:
         e7:99:7d:8e:8c:ba:4a:96:09:58:72:34:67:76:a5:39:e3:59:
         4a:9a:84:a9:81:0c:ba:a7:91:8e:6d:79:86:22:c9:93:28:ce:
         a7:44:59:c6:f2:9b:ee:b2:2c:c6:36:82:13:5f:34:43:0c:14:
         f9:d2:a2:e3:c1:dd:d6:c9:da:45:fe:22:e1:1e:65:2d:30:f4:
         41:b5:6f:2b:30:1b:13:41:00:8f:7f:30:e5:48:31:2c:c1:4b:
         5e:83:56:eb:db:86:38:d1:2d:59:d8:e7:6d:e5:31:bd:f0:90:
         f1:f0:93:8b:25:44:eb:17:d2:0a:4a:19:de:72:38:1c:c6:61:
         24:e5:8e:f5:6b:9a:f7:2e:ab:f2:e8:33:c5:c8:e4:2e:2d:c0:
         9f:1c:5f:97:d5:7b:9a:2f:9e:99:f2:a5:86:b9:45:01:62:1d:
         89:33:19:07:3c:da:39:78:ce:e6:bf:b9:b9:af:d3:0f:7f:68:
         b5:ff:b2:2f:61:6c:cc:a9:00:a5:33:b0:7c:41:5c:3f:e8:ef:
         83:cc:4f:bc:25:94:e8:ac:45:5e:fa:e5:5a:a1:43:36:24:9f:
         3f:fa:15:1a:6b:9a:d1:27:da:e2:25:ba:a5:12:25:00:da:b8:
         8c:e6:3f:90:55:c7:25:47:d3:69:dd:26:54:fa:44:bf:69:a5:
         07:c8:5a:1d:db:08:f8:1d:f6:ce:9c:c0:1a:7a:8e:d8:53:0d:
         31:89:91:2e:44:ab:64:7d:0a:a6:b7:7c:c2:fc:a7:9d:59:27:
         56:47:a9:9c:48:c4:d9:e7:71:35:20:d7:ee:c4:f6:da:3e:5f:
         58:35:27:2b:b6:6f:58:0a:90:af:1f:a9:47:b6:c6:20:88:68:
         36:74:92:ab:b3:4c:b0:ab:54:1e:4e:99:08:8d:bd:ff:d7:23:
         de:f2:58:7b:87:f9:19:db:b5:0d:fd:a8:d7:d6:d1:36:78:c7:
         a7:59:47:86:7f:b5:a7:9f
-----BEGIN CERTIFICATE-----
MIIGrTCCBJWgAwIBAgICLyMwDQYJKoZIhvcNAQELBQAwgawxCzAJBgNVBAYTAlVT
MQswCQYDVQQIEwJPSDERMA8GA1UEBxMIQ29sdW1idXMxEjAQBgNVBAoTCVZpa2lu
Z1ZQTjEdMBsGA1UECxMUTXlPcmdhbml6YXRpb25hbFVuaXQxFTATBgNVBAMTDFZp
a2luZ1ZQTiBDQTEQMA4GA1UEKRMHRWFzeVJTQTEhMB8GCSqGSIb3DQEJARYSbWVA
bXlob3N0Lm15ZG9tYWluMB4XDTE3MTAzMTE5MzMxOVoXDTI3MTAyOTE5MzMxOVow
HzEdMBsGA1UEAxMUQ2xpZW50MTY0M0NlcnRkYjdmNTIwggIiMA0GCSqGSIb3DQEB
AQUAA4ICDwAwggIKAoICAQDCfXwOLgxG7H4jcFmDZFHTcSEXKFxKHxb8zMfULPaB
UX7MPH+8wNfpCAa5a/McwOExUIIiZtlhEPzCBp1v6w8TYRSrAr57IdVxQHwMo+Ty
BaI2BPf2iAZ6leih5bIpJYgazE9PvUtIZJOiBLZEdxAvd75Yg2aEKeDYrxU+l0s4
j8U+uIFtZgiPXEQbVfpEKJu81rq0a94tu8l6c1PUzXvq3Ny4U6KBsj//htOghGE2
ECkrkmGYHef7kVuFPxvMJslHtY3ExQr9klnODPY0xsrdDyKRWDegaEP/z1nCRodt
Vsn0UEcxqSXQfjib0d+otp62ggmtgIda+72icqIrxsH7O0hWJhfT+qceLEyX9Dur
pWYfU3C3/CC7ZGKeIQXDFKtVvatyIPIcI49D3aBc5gqUwz+HLF8ARpKfn6xUy3Ix
fHmLbilHAKRxmzOH9vyCqsATUr+fIuE2VQqR5PbDv74PfbyVPS7efUcQijfyZYqU
oli+U04XnIiI1N11A5bmw8JXkqpvIPkjdYcAvj/gnjjXcqCWPt+2+R2SB8Ofgo3F
S8C+QjE2Lw1xaBDDDoa0oB7CZlgUyhJEtYBGygayIRsJjl5GShwfSVIUrfDUSa+o
R4pDW9+v8iSBzNI8p5eV72FSTB6yp2ZS+18oW+5706OSKs5LgV5f7IUPeRDEih6a
2QIDAQABo4IBYzCCAV8wCQYDVR0TBAIwADAtBglghkgBhvhCAQ0EIBYeRWFzeS1S
U0EgR2VuZXJhdGVkIENlcnRpZmljYXRlMB0GA1UdDgQWBBQqRuMYoqvG8sQnqBic
evPN+QdcuDCB4QYDVR0jBIHZMIHWgBQSzWAE0qCAnnDtxpm4eyzGUv0ZoaGBsqSB
rzCBrDELMAkGA1UEBhMCVVMxCzAJBgNVBAgTAk9IMREwDwYDVQQHEwhDb2x1bWJ1
czESMBAGA1UEChMJVmlraW5nVlBOMR0wGwYDVQQLExRNeU9yZ2FuaXphdGlvbmFs
VW5pdDEVMBMGA1UEAxMMVmlraW5nVlBOIENBMRAwDgYDVQQpEwdFYXN5UlNBMSEw
HwYJKoZIhvcNAQkBFhJtZUBteWhvc3QubXlkb21haW6CCQDPNYXugL8qPjATBgNV
HSUEDDAKBggrBgEFBQcDAjALBgNVHQ8EBAMCB4AwDQYJKoZIhvcNAQELBQADggIB
AJMhyETHLojESVlMAD+LP9o2HwMSM13t8hVfltIrqRcAY9XJmHmNz4Bm0espwmMF
oFlPpbX9g6GebnhFquNSsEC0/ITUmRB13ooz6nC82PQg+8aZfkdSPu3MW5+3p7kT
Hg/elmIShEKwBg3DQahCWy1ERmyHzmwxs4vYMvzL+obyJ/Tg+3TtqmdKY+fo1lsQ
KOeZfY6MukqWCVhyNGd2pTnjWUqahKmBDLqnkY5teYYiyZMozqdEWcbym+6yLMY2
ghNfNEMMFPnSouPB3dbJ2kX+IuEeZS0w9EG1byswGxNBAI9/MOVIMSzBS16DVuvb
hjjRLVnY523lMb3wkPHwk4slROsX0gpKGd5yOBzGYSTljvVrmvcuq/LoM8XI5C4t
wJ8cX5fVe5ovnpnypYa5RQFiHYkzGQc82jl4zua/ubmv0w9/aLX/si9hbMypAKUz
sHxBXD/o74PMT7wllOisRV765VqhQzYknz/6FRprmtEn2uIluqUSJQDauIzmP5BV
xyVH02ndJlT6RL9ppQfIWh3bCPgd9s6cwBp6jthTDTGJkS5Eq2R9Cqa3fML8p51Z
J1ZHqZxIxNnncTUg1+7E9to+X1g1Jyu2b1gKkK8fqUe2xiCIaDZ0kquzTLCrVB5O
mQiNvf/XI97yWHuH+RnbtQ39qNfW0TZ4x6dZR4Z/taef
-----END CERTIFICATE-----
