Certificate:
    Data:
        Version: 3 (0x2)
        Serial Number: 12122 (0x2f5a)
    Signature Algorithm: sha256WithRSAEncryption
        Issuer: C=US, ST=OH, L=Columbus, O=VikingVPN, OU=MyOrganizationalUnit, CN=VikingVPN CA/name=EasyRSA/emailAddress=me@myhost.mydomain
        Validity
            Not Before: Nov 20 21:03:24 2017 GMT
            Not After : Nov 18 21:03:24 2027 GMT
        Subject: CN=Client3113Cert14ec3b
        Subject Public Key Info:
            Public Key Algorithm: rsaEncryption
                Public-Key: (4096 bit)
                Modulus:
                    00:f7:d5:fc:d8:4b:25:cf:d2:ca:0b:57:44:d4:60:
                    48:d4:fe:2a:04:45:86:77:16:82:6c:01:03:9b:89:
                    af:ba:69:d3:87:ab:91:89:82:e7:c7:d5:23:be:24:
                    2f:16:ed:69:ef:dc:93:ad:09:ff:c3:e6:4d:5f:1f:
                    a8:99:57:51:fa:b8:a7:76:ac:7c:62:ec:7e:66:dd:
                    57:f8:ac:25:ed:2e:e9:a7:c6:31:68:db:9f:ed:e7:
                    9f:5c:74:8d:4b:e6:ed:58:62:b7:47:05:e0:6e:b9:
                    ce:a2:53:69:74:71:42:6c:b9:da:84:e3:7e:13:f2:
                    5b:3c:56:55:aa:86:75:cf:ed:f3:81:bf:8d:b8:a9:
                    bb:2e:24:1b:a5:f6:b6:b2:65:69:b0:0f:e6:30:b4:
                    13:8d:86:c2:2e:3b:fb:b5:5c:be:29:3f:dc:ad:03:
                    65:b8:a0:4d:c5:db:a3:7e:7f:2d:c2:66:d9:cf:98:
                    3b:b2:f3:fb:ad:12:88:28:11:63:ea:02:6c:7f:5b:
                    1d:0b:c7:b1:46:14:f2:29:21:b7:77:d5:81:be:0c:
                    59:a3:df:bf:75:e5:7a:24:f2:07:67:11:7a:d0:c9:
                    a0:f8:12:3f:16:9d:9a:f0:6b:50:2a:04:18:85:97:
                    55:18:05:a7:cf:25:f8:f4:c6:cd:17:f3:23:a4:ca:
                    f0:94:df:d1:94:2c:fb:71:a0:f6:7d:37:4a:65:0f:
                    07:65:65:30:aa:ea:c5:57:82:e0:9e:25:5a:5a:8e:
                    1e:b7:b3:71:e5:59:11:3e:04:1b:fd:cd:8d:00:c7:
                    a1:43:06:07:40:5b:2b:90:a6:ad:20:7f:8d:7f:fc:
                    29:b9:f3:d5:2d:71:bd:04:fc:0c:39:25:14:89:ab:
                    d4:12:7d:23:b5:6c:89:04:48:9f:c4:27:81:bc:54:
                    cb:93:9b:6e:76:db:4e:e0:36:d3:df:3c:7c:7f:49:
                    0e:19:e8:9f:2f:b8:dd:6b:ce:c7:6a:fe:8c:31:b2:
                    3b:47:ec:6c:14:eb:74:60:f6:a2:ba:c0:3c:17:75:
                    21:04:56:82:7b:93:70:cd:55:0b:19:99:aa:4d:7b:
                    09:8e:7f:ed:61:fe:fc:f9:78:b6:ac:ff:ce:5f:d8:
                    64:86:59:7a:08:2c:ee:d6:a9:e7:e5:ba:51:c2:13:
                    58:68:a5:ce:29:25:91:12:eb:3a:f7:ae:d0:58:93:
                    55:2e:5b:bc:62:71:47:f8:6b:1a:19:74:17:2b:4a:
                    0c:1a:f8:a1:a6:c2:e2:7a:b2:83:ec:29:b1:2e:5a:
                    fb:db:b7:2c:1a:a7:b1:34:29:93:9c:87:7d:a5:09:
                    cc:40:ed:d7:bf:6c:ca:ce:95:b8:7b:cb:ba:1a:34:
                    a4:9a:cb
                Exponent: 65537 (0x10001)
        X509v3 extensions:
            X509v3 Basic Constraints: 
                CA:FALSE
            Netscape Comment: 
                Easy-RSA Generated Certificate
            X509v3 Subject Key Identifier: 
                AA:E2:E7:B4:89:28:81:DC:5C:97:B0:50:5C:5C:2E:3B:AE:0B:99:DF
            X509v3 Authority Key Identifier: 
                keyid:12:CD:60:04:D2:A0:80:9E:70:ED:C6:99:B8:7B:2C:C6:52:FD:19:A1
                DirName:/C=US/ST=OH/L=Columbus/O=VikingVPN/OU=MyOrganizationalUnit/CN=VikingVPN CA/name=EasyRSA/emailAddress=me@myhost.mydomain
                serial:CF:35:85:EE:80:BF:2A:3E

            X509v3 Extended Key Usage: 
                TLS Web Client Authentication
            X509v3 Key Usage: 
                Digital Signature
    Signature Algorithm: sha256WithRSAEncryption
         67:62:c9:59:b7:8a:eb:b2:cb:26:19:38:df:0e:0d:e0:90:35:
         4c:89:d8:1f:95:1c:86:01:81:bc:79:51:4d:f1:fd:e5:b6:fa:
         56:d9:f3:c0:3f:51:34:a0:ba:0c:d1:18:d2:b4:42:12:a4:00:
         13:76:f7:c1:cc:86:64:ee:01:77:00:b0:fa:44:82:08:28:66:
         3e:58:7e:01:d5:ec:06:9c:33:2c:93:01:57:8a:4d:12:fe:b5:
         c2:14:56:ab:32:b0:a8:5c:2d:ba:29:6e:e6:a9:18:51:cf:c5:
         54:1f:0d:00:60:29:27:3e:4b:60:49:a9:1e:22:2b:6d:9c:36:
         0d:7e:12:88:26:a9:d9:40:8c:16:98:ef:93:88:34:ab:37:74:
         d6:36:0b:b5:36:a2:07:d0:df:e9:aa:0c:06:32:54:d1:1b:28:
         d2:7f:ca:e3:50:d0:f2:67:6a:fc:35:7d:f1:f7:21:70:20:1b:
         56:b1:84:91:49:81:f1:f6:2b:2f:84:a0:5a:16:d7:ad:55:96:
         0c:8e:40:bf:08:0d:bb:3d:ea:7f:a8:80:20:8c:9b:43:26:5a:
         91:4e:a0:75:d5:75:23:43:f5:5b:d9:2e:9c:0e:5f:62:b1:5f:
         e4:ca:7d:33:00:02:74:a0:86:6c:0f:ba:96:38:ba:11:5c:a8:
         71:af:38:31:3c:db:4c:42:a9:b7:55:98:64:3a:ab:81:61:e2:
         ab:3b:2e:e2:08:d6:4f:18:b2:05:68:14:77:e1:84:52:e3:c2:
         36:56:6e:ca:fb:fd:1c:c5:d2:ff:ba:d4:57:7c:01:9c:87:36:
         93:9b:c5:cc:c0:ad:bb:3e:33:70:a0:d5:3c:53:9e:cf:9c:ad:
         6e:3c:74:0b:95:cd:b3:73:fc:71:46:b5:23:0c:c2:43:01:bb:
         9c:49:14:ed:e4:b3:64:65:91:92:59:7a:52:13:3e:a1:b2:97:
         8f:3a:90:cc:5b:c4:78:3a:6a:a1:ff:48:eb:ac:19:60:a0:e0:
         ec:fe:3d:f4:75:7f:34:e2:1a:24:ab:6c:4b:e6:9b:c4:92:1f:
         15:75:d0:fc:23:cb:00:58:8f:20:be:5d:f4:e1:3d:5f:30:bc:
         7b:1c:71:b5:c3:48:d6:59:31:07:2c:ea:aa:65:a4:4d:4f:c8:
         b1:39:69:25:9c:27:fe:25:d0:e3:c0:d1:92:cb:4b:ed:9a:e7:
         fc:28:29:e8:a6:b7:f3:18:bb:cb:ae:6e:5f:6d:73:3e:24:69:
         65:ae:7e:17:71:78:30:9b:11:65:bd:62:a5:06:3e:50:ec:1f:
         16:6e:9e:d6:7a:5a:b3:ec:9a:b9:0d:af:ac:ab:10:77:42:df:
         09:05:4e:46:c1:f2:9b:b8
-----BEGIN CERTIFICATE-----
MIIGrTCCBJWgAwIBAgICL1owDQYJKoZIhvcNAQELBQAwgawxCzAJBgNVBAYTAlVT
MQswCQYDVQQIEwJPSDERMA8GA1UEBxMIQ29sdW1idXMxEjAQBgNVBAoTCVZpa2lu
Z1ZQTjEdMBsGA1UECxMUTXlPcmdhbml6YXRpb25hbFVuaXQxFTATBgNVBAMTDFZp
a2luZ1ZQTiBDQTEQMA4GA1UEKRMHRWFzeVJTQTEhMB8GCSqGSIb3DQEJARYSbWVA
bXlob3N0Lm15ZG9tYWluMB4XDTE3MTEyMDIxMDMyNFoXDTI3MTExODIxMDMyNFow
HzEdMBsGA1UEAxMUQ2xpZW50MzExM0NlcnQxNGVjM2IwggIiMA0GCSqGSIb3DQEB
AQUAA4ICDwAwggIKAoICAQD31fzYSyXP0soLV0TUYEjU/ioERYZ3FoJsAQObia+6
adOHq5GJgufH1SO+JC8W7Wnv3JOtCf/D5k1fH6iZV1H6uKd2rHxi7H5m3Vf4rCXt
LumnxjFo25/t559cdI1L5u1YYrdHBeBuuc6iU2l0cUJsudqE434T8ls8VlWqhnXP
7fOBv424qbsuJBul9rayZWmwD+YwtBONhsIuO/u1XL4pP9ytA2W4oE3F26N+fy3C
ZtnPmDuy8/utEogoEWPqAmx/Wx0Lx7FGFPIpIbd31YG+DFmj37915Xok8gdnEXrQ
yaD4Ej8WnZrwa1AqBBiFl1UYBafPJfj0xs0X8yOkyvCU39GULPtxoPZ9N0plDwdl
ZTCq6sVXguCeJVpajh63s3HlWRE+BBv9zY0Ax6FDBgdAWyuQpq0gf41//Cm589Ut
cb0E/Aw5JRSJq9QSfSO1bIkESJ/EJ4G8VMuTm252207gNtPfPHx/SQ4Z6J8vuN1r
zsdq/owxsjtH7GwU63Rg9qK6wDwXdSEEVoJ7k3DNVQsZmapNewmOf+1h/vz5eLas
/85f2GSGWXoILO7WqeflulHCE1hopc4pJZES6zr3rtBYk1UuW7xicUf4axoZdBcr
Sgwa+KGmwuJ6soPsKbEuWvvbtywap7E0KZOch32lCcxA7de/bMrOlbh7y7oaNKSa
ywIDAQABo4IBYzCCAV8wCQYDVR0TBAIwADAtBglghkgBhvhCAQ0EIBYeRWFzeS1S
U0EgR2VuZXJhdGVkIENlcnRpZmljYXRlMB0GA1UdDgQWBBSq4ue0iSiB3FyXsFBc
XC47rguZ3zCB4QYDVR0jBIHZMIHWgBQSzWAE0qCAnnDtxpm4eyzGUv0ZoaGBsqSB
rzCBrDELMAkGA1UEBhMCVVMxCzAJBgNVBAgTAk9IMREwDwYDVQQHEwhDb2x1bWJ1
czESMBAGA1UEChMJVmlraW5nVlBOMR0wGwYDVQQLExRNeU9yZ2FuaXphdGlvbmFs
VW5pdDEVMBMGA1UEAxMMVmlraW5nVlBOIENBMRAwDgYDVQQpEwdFYXN5UlNBMSEw
HwYJKoZIhvcNAQkBFhJtZUBteWhvc3QubXlkb21haW6CCQDPNYXugL8qPjATBgNV
HSUEDDAKBggrBgEFBQcDAjALBgNVHQ8EBAMCB4AwDQYJKoZIhvcNAQELBQADggIB
AGdiyVm3iuuyyyYZON8ODeCQNUyJ2B+VHIYBgbx5UU3x/eW2+lbZ88A/UTSgugzR
GNK0QhKkABN298HMhmTuAXcAsPpEgggoZj5YfgHV7AacMyyTAVeKTRL+tcIUVqsy
sKhcLbopbuapGFHPxVQfDQBgKSc+S2BJqR4iK22cNg1+EogmqdlAjBaY75OINKs3
dNY2C7U2ogfQ3+mqDAYyVNEbKNJ/yuNQ0PJnavw1ffH3IXAgG1axhJFJgfH2Ky+E
oFoW161VlgyOQL8IDbs96n+ogCCMm0MmWpFOoHXVdSND9VvZLpwOX2KxX+TKfTMA
AnSghmwPupY4uhFcqHGvODE820xCqbdVmGQ6q4Fh4qs7LuII1k8YsgVoFHfhhFLj
wjZWbsr7/RzF0v+61Fd8AZyHNpObxczArbs+M3Cg1TxTns+crW48dAuVzbNz/HFG
tSMMwkMBu5xJFO3ks2RlkZJZelITPqGyl486kMxbxHg6aqH/SOusGWCg4Oz+PfR1
fzTiGiSrbEvmm8SSHxV10PwjywBYjyC+XfThPV8wvHsccbXDSNZZMQcs6qplpE1P
yLE5aSWcJ/4l0OPA0ZLLS+2a5/woKeimt/MYu8uubl9tcz4kaWWufhdxeDCbEWW9
YqUGPlDsHxZuntZ6WrPsmrkNr6yrEHdC3wkFTkbB8pu4
-----END CERTIFICATE-----
