Certificate:
    Data:
        Version: 3 (0x2)
        Serial Number: 12174 (0x2f8e)
    Signature Algorithm: sha256WithRSAEncryption
        Issuer: C=US, ST=OH, L=Columbus, O=VikingVPN, OU=MyOrganizationalUnit, CN=VikingVPN CA/name=EasyRSA/emailAddress=me@myhost.mydomain
        Validity
            Not Before: Nov 28 01:46:39 2017 GMT
            Not After : Nov 26 01:46:39 2027 GMT
        Subject: CN=Client3169Cert5402af
        Subject Public Key Info:
            Public Key Algorithm: rsaEncryption
                Public-Key: (4096 bit)
                Modulus:
                    00:e1:54:61:ed:67:85:28:bb:98:02:da:91:9f:ea:
                    a7:c5:34:5a:f7:98:de:d3:e4:77:b9:77:ef:e0:66:
                    78:e6:ee:cd:14:f7:7a:82:63:d9:47:b8:2e:0d:b6:
                    e1:69:2b:3f:6c:c4:e1:78:25:2d:57:6d:4d:f3:5b:
                    53:ef:68:87:bd:52:53:4e:b1:1c:54:ed:a9:a2:19:
                    ed:b0:c3:c3:03:85:e1:5d:ad:ee:6b:9b:bf:ed:1a:
                    5c:88:46:ff:0d:83:24:98:e5:22:c2:82:00:85:4e:
                    76:f3:8b:12:f5:b5:a2:23:f0:4e:f6:9a:db:08:8c:
                    2d:00:ac:29:25:84:ae:1a:ce:54:a6:3f:62:a4:dc:
                    de:71:22:5d:fd:23:59:46:84:1c:c6:80:bd:74:70:
                    15:4a:14:af:d3:1f:79:df:3c:6e:e2:1c:fc:f4:9c:
                    ed:74:fc:0c:de:f4:98:ce:b5:a7:35:81:1c:86:f3:
                    72:92:8b:26:d2:8a:24:09:77:38:f9:17:44:01:7c:
                    30:b7:b1:ca:92:db:39:ed:90:1b:4e:24:0b:23:3b:
                    7e:0d:0f:98:10:89:82:97:9b:d1:d0:18:51:65:f4:
                    22:de:e5:7b:a9:e5:59:0e:fe:12:0c:5d:7b:0a:b9:
                    9c:70:91:f5:6e:38:af:24:a2:2f:f3:83:d9:9c:15:
                    89:11:86:e9:2d:0c:95:93:ad:c4:f3:74:2a:54:d8:
                    31:f1:9c:cf:ca:93:1e:e5:2c:eb:ea:9c:c7:68:8d:
                    63:6a:4b:af:d0:e8:93:82:0d:be:d2:7b:54:01:94:
                    75:f1:3a:bb:2c:0b:db:ad:65:ba:50:a1:b5:23:73:
                    f1:f8:b9:2b:62:a9:d2:e4:4f:de:44:8c:0c:3c:53:
                    4c:67:21:a0:60:53:6b:fa:49:47:72:aa:42:56:cd:
                    78:6f:d1:de:e2:af:45:5e:ae:2f:67:ff:72:ee:0c:
                    8f:36:32:63:a3:d4:c6:ab:96:97:ee:15:32:32:03:
                    3c:c2:b7:02:a5:ba:b5:10:e4:4c:5b:a1:00:d8:d4:
                    f0:53:e3:22:7e:20:a6:86:ea:1e:8e:7a:e4:80:61:
                    70:64:ca:e7:ab:86:82:f8:fb:4c:d3:b6:27:40:d9:
                    cf:ec:1a:93:81:39:8d:9a:18:47:d4:95:c2:1b:b0:
                    09:45:dd:15:cd:9f:d7:35:09:83:be:ff:10:bd:6f:
                    d7:14:0a:3d:0d:57:a0:e5:2c:02:3a:23:e8:fd:7a:
                    a2:2a:6a:6b:e5:97:21:ba:9f:7c:db:f5:99:ff:92:
                    07:12:5a:6e:87:44:60:d5:0d:c4:e9:dc:48:11:e9:
                    8e:19:7d:2b:e8:69:f8:ab:a9:0c:c0:37:66:90:f0:
                    22:9c:4b
                Exponent: 65537 (0x10001)
        X509v3 extensions:
            X509v3 Basic Constraints: 
                CA:FALSE
            Netscape Comment: 
                Easy-RSA Generated Certificate
            X509v3 Subject Key Identifier: 
                59:22:9B:94:AB:9E:FB:16:4E:0A:40:F6:D0:C9:BF:DC:90:26:1E:AB
            X509v3 Authority Key Identifier: 
                keyid:12:CD:60:04:D2:A0:80:9E:70:ED:C6:99:B8:7B:2C:C6:52:FD:19:A1
                DirName:/C=US/ST=OH/L=Columbus/O=VikingVPN/OU=MyOrganizationalUnit/CN=VikingVPN CA/name=EasyRSA/emailAddress=me@myhost.mydomain
                serial:CF:35:85:EE:80:BF:2A:3E

            X509v3 Extended Key Usage: 
                TLS Web Client Authentication
            X509v3 Key Usage: 
                Digital Signature
    Signature Algorithm: sha256WithRSAEncryption
         6b:8e:73:ab:1d:f0:26:52:84:6e:fd:d8:3e:62:60:11:df:c0:
         63:fa:33:10:19:31:30:15:64:f6:1c:83:2c:36:8c:e8:d1:4d:
         af:ff:fc:0a:5b:19:4d:c4:56:03:e2:2e:fa:32:c2:b7:51:a5:
         71:43:f4:9d:81:a1:59:31:75:d8:cb:cc:6f:eb:38:13:66:ba:
         fa:c8:0e:85:8c:97:4e:f9:12:a7:7a:72:35:c2:6c:64:0d:c2:
         ec:54:9f:66:4a:b8:7d:e6:24:1a:cc:6d:13:77:26:0c:09:78:
         96:ca:bf:0e:e8:58:87:c8:1b:a2:4d:4c:5c:a4:f5:b2:51:8a:
         c6:82:ff:0f:49:2e:58:67:e2:4c:cc:ae:37:3a:f9:45:8d:f3:
         34:9e:94:a5:a9:dc:6c:e7:ad:aa:87:b5:4c:b3:c5:c8:6c:36:
         b3:9e:3a:37:37:50:02:10:a8:a6:fd:6c:47:36:af:6c:62:64:
         b6:bb:7d:b2:01:21:f4:64:c3:06:53:72:3f:f7:60:76:48:38:
         f6:40:03:c3:a7:bf:f2:5c:ec:02:2d:a8:75:bd:f5:c1:bd:4d:
         1a:8a:eb:33:24:e1:4c:5b:61:e7:44:37:d6:ff:70:04:ce:af:
         30:36:1f:61:55:68:ec:fb:a8:08:3f:ae:cc:11:f0:38:dc:c2:
         86:74:d9:51:1d:94:82:ff:91:2e:4a:0b:e4:d2:24:de:e4:c9:
         14:e8:f6:e5:ee:0b:46:d1:e0:51:bf:95:3f:24:7c:86:a3:13:
         73:4e:37:82:d0:2b:91:8e:87:e5:16:73:05:b6:1c:fe:1a:21:
         7f:4d:a3:80:87:86:16:b7:a2:d0:a9:57:19:cf:b7:96:00:b9:
         86:45:c8:90:a7:52:77:aa:44:72:3b:ce:f5:12:11:9d:09:c7:
         08:bb:b4:c0:87:1f:d2:7d:94:af:45:d4:c7:9b:37:cb:c4:02:
         4e:20:bf:16:c7:24:57:7c:a7:5d:cc:b4:58:ef:e0:ff:a1:53:
         a9:3f:46:13:e2:82:a3:e6:1c:a5:4b:ec:3c:cf:a7:bc:4f:af:
         f8:73:d4:9c:d8:60:dc:ad:78:14:98:1d:d9:8b:5e:0b:88:a0:
         66:08:6c:d1:09:8c:e2:0c:4e:15:38:f5:91:79:f9:4d:24:77:
         8c:3d:8d:93:30:98:e2:84:b1:46:01:cf:25:46:5a:af:8a:79:
         31:7a:c9:e0:c7:50:b1:67:0d:d4:c1:26:65:9a:c7:c7:40:85:
         ab:ca:7e:99:cc:5b:99:74:ce:04:46:ed:ba:70:92:f4:05:82:
         aa:fe:f0:8e:23:54:ae:a1:9b:d4:a1:5b:34:37:0b:d2:76:9c:
         6c:7b:92:7d:91:a7:88:f5
-----BEGIN CERTIFICATE-----
MIIGrTCCBJWgAwIBAgICL44wDQYJKoZIhvcNAQELBQAwgawxCzAJBgNVBAYTAlVT
MQswCQYDVQQIEwJPSDERMA8GA1UEBxMIQ29sdW1idXMxEjAQBgNVBAoTCVZpa2lu
Z1ZQTjEdMBsGA1UECxMUTXlPcmdhbml6YXRpb25hbFVuaXQxFTATBgNVBAMTDFZp
a2luZ1ZQTiBDQTEQMA4GA1UEKRMHRWFzeVJTQTEhMB8GCSqGSIb3DQEJARYSbWVA
bXlob3N0Lm15ZG9tYWluMB4XDTE3MTEyODAxNDYzOVoXDTI3MTEyNjAxNDYzOVow
HzEdMBsGA1UEAxMUQ2xpZW50MzE2OUNlcnQ1NDAyYWYwggIiMA0GCSqGSIb3DQEB
AQUAA4ICDwAwggIKAoICAQDhVGHtZ4Uou5gC2pGf6qfFNFr3mN7T5He5d+/gZnjm
7s0U93qCY9lHuC4NtuFpKz9sxOF4JS1XbU3zW1PvaIe9UlNOsRxU7amiGe2ww8MD
heFdre5rm7/tGlyIRv8NgySY5SLCggCFTnbzixL1taIj8E72mtsIjC0ArCklhK4a
zlSmP2Kk3N5xIl39I1lGhBzGgL10cBVKFK/TH3nfPG7iHPz0nO10/Aze9JjOtac1
gRyG83KSiybSiiQJdzj5F0QBfDC3scqS2zntkBtOJAsjO34ND5gQiYKXm9HQGFFl
9CLe5Xup5VkO/hIMXXsKuZxwkfVuOK8koi/zg9mcFYkRhuktDJWTrcTzdCpU2DHx
nM/Kkx7lLOvqnMdojWNqS6/Q6JOCDb7Se1QBlHXxOrssC9utZbpQobUjc/H4uSti
qdLkT95EjAw8U0xnIaBgU2v6SUdyqkJWzXhv0d7ir0Veri9n/3LuDI82MmOj1Mar
lpfuFTIyAzzCtwKlurUQ5ExboQDY1PBT4yJ+IKaG6h6OeuSAYXBkyuerhoL4+0zT
tidA2c/sGpOBOY2aGEfUlcIbsAlF3RXNn9c1CYO+/xC9b9cUCj0NV6DlLAI6I+j9
eqIqamvllyG6n3zb9Zn/kgcSWm6HRGDVDcTp3EgR6Y4ZfSvoafirqQzAN2aQ8CKc
SwIDAQABo4IBYzCCAV8wCQYDVR0TBAIwADAtBglghkgBhvhCAQ0EIBYeRWFzeS1S
U0EgR2VuZXJhdGVkIENlcnRpZmljYXRlMB0GA1UdDgQWBBRZIpuUq577Fk4KQPbQ
yb/ckCYeqzCB4QYDVR0jBIHZMIHWgBQSzWAE0qCAnnDtxpm4eyzGUv0ZoaGBsqSB
rzCBrDELMAkGA1UEBhMCVVMxCzAJBgNVBAgTAk9IMREwDwYDVQQHEwhDb2x1bWJ1
czESMBAGA1UEChMJVmlraW5nVlBOMR0wGwYDVQQLExRNeU9yZ2FuaXphdGlvbmFs
VW5pdDEVMBMGA1UEAxMMVmlraW5nVlBOIENBMRAwDgYDVQQpEwdFYXN5UlNBMSEw
HwYJKoZIhvcNAQkBFhJtZUBteWhvc3QubXlkb21haW6CCQDPNYXugL8qPjATBgNV
HSUEDDAKBggrBgEFBQcDAjALBgNVHQ8EBAMCB4AwDQYJKoZIhvcNAQELBQADggIB
AGuOc6sd8CZShG792D5iYBHfwGP6MxAZMTAVZPYcgyw2jOjRTa///ApbGU3EVgPi
LvoywrdRpXFD9J2BoVkxddjLzG/rOBNmuvrIDoWMl075Eqd6cjXCbGQNwuxUn2ZK
uH3mJBrMbRN3JgwJeJbKvw7oWIfIG6JNTFyk9bJRisaC/w9JLlhn4kzMrjc6+UWN
8zSelKWp3GznraqHtUyzxchsNrOeOjc3UAIQqKb9bEc2r2xiZLa7fbIBIfRkwwZT
cj/3YHZIOPZAA8Onv/Jc7AItqHW99cG9TRqK6zMk4UxbYedEN9b/cATOrzA2H2FV
aOz7qAg/rswR8DjcwoZ02VEdlIL/kS5KC+TSJN7kyRTo9uXuC0bR4FG/lT8kfIaj
E3NON4LQK5GOh+UWcwW2HP4aIX9No4CHhha3otCpVxnPt5YAuYZFyJCnUneqRHI7
zvUSEZ0Jxwi7tMCHH9J9lK9F1MebN8vEAk4gvxbHJFd8p13MtFjv4P+hU6k/RhPi
gqPmHKVL7DzPp7xPr/hz1JzYYNyteBSYHdmLXguIoGYIbNEJjOIMThU49ZF5+U0k
d4w9jZMwmOKEsUYBzyVGWq+KeTF6yeDHULFnDdTBJmWax8dAhavKfpnMW5l0zgRG
7bpwkvQFgqr+8I4jVK6hm9ShWzQ3C9J2nGx7kn2Rp4j1
-----END CERTIFICATE-----
