Certificate:
    Data:
        Version: 3 (0x2)
        Serial Number: 12194 (0x2fa2)
    Signature Algorithm: sha256WithRSAEncryption
        Issuer: C=US, ST=OH, L=Columbus, O=VikingVPN, OU=MyOrganizationalUnit, CN=VikingVPN CA/name=EasyRSA/emailAddress=me@myhost.mydomain
        Validity
            Not Before: Nov 29 17:36:36 2017 GMT
            Not After : Nov 27 17:36:36 2027 GMT
        Subject: CN=Client1702Cert6cc587
        Subject Public Key Info:
            Public Key Algorithm: rsaEncryption
                Public-Key: (4096 bit)
                Modulus:
                    00:d5:aa:32:1f:81:2d:b3:09:4e:dd:85:9a:1f:e9:
                    09:10:e1:6b:a7:fa:56:af:0f:c0:e5:7f:52:b2:6e:
                    5f:be:a1:ba:4e:fc:36:3c:50:06:a0:1e:49:1d:46:
                    58:61:16:66:85:0e:30:b9:e8:8c:86:cc:53:19:44:
                    8e:04:a7:fb:2c:ce:e4:91:5b:06:6e:da:34:90:13:
                    51:a5:e4:8a:b3:83:66:91:c4:e9:02:19:e3:99:5c:
                    98:96:a0:6f:04:54:9f:ad:96:a5:91:8f:f9:a9:3f:
                    30:c1:57:b7:76:ba:0c:9c:a2:15:c0:ec:8b:93:42:
                    f7:59:21:83:d8:4d:e1:32:14:01:b3:b9:27:ce:43:
                    ed:b6:1f:2c:d4:0f:7a:5c:81:7a:66:3e:2e:8f:4a:
                    1e:95:e5:3b:8a:e8:b1:b7:1a:a6:51:69:7c:74:79:
                    db:a9:c0:79:2c:d5:9f:cf:d3:40:2a:a6:52:e3:9c:
                    f6:ed:6f:3d:c5:db:a3:9d:95:21:b8:2e:ff:b9:5b:
                    c3:75:4c:b8:09:5f:32:ba:ca:bc:7b:ab:ec:61:f4:
                    87:f8:64:67:87:e0:6a:20:d5:0c:de:19:d4:db:53:
                    50:78:ae:a1:4c:5f:fe:35:e2:73:3e:36:d7:b9:a9:
                    f1:3c:da:b6:c0:d7:fb:2f:70:24:7f:da:8c:42:4a:
                    44:04:db:77:aa:dc:b5:5e:bf:1c:40:f5:a3:61:e5:
                    db:25:72:84:70:e7:fb:eb:7d:99:3a:9f:c6:47:1c:
                    af:7f:5a:df:02:56:82:ae:8d:c1:84:1b:2e:74:ec:
                    8d:64:2a:7f:f6:a8:e2:d7:a9:37:2f:87:ab:32:f4:
                    bb:37:8d:a0:f2:af:97:06:48:0f:02:41:8b:74:87:
                    a5:ec:8d:9d:ab:ce:5b:62:f5:ad:25:09:05:52:03:
                    7d:a2:4f:6e:09:1c:c8:fc:15:85:db:d0:a7:98:3d:
                    7a:f9:4f:69:11:4f:29:47:41:df:a9:3a:64:e0:7e:
                    76:c2:a8:2e:cd:b5:03:51:fc:ba:b0:0e:59:90:5a:
                    4c:fe:b1:d4:56:d6:80:b2:90:7e:a2:42:7a:cd:9d:
                    5e:5f:96:ff:07:01:4e:47:b0:33:d8:1c:6a:3d:0d:
                    50:d2:49:93:32:e7:43:61:4c:88:55:19:c1:54:9c:
                    06:b0:5d:81:de:9b:27:0a:33:df:8e:7a:b2:a3:12:
                    b5:64:ae:5f:7a:a3:79:6a:34:51:6d:65:9f:1e:96:
                    a6:97:a2:d9:8e:1c:ef:3a:26:03:ce:42:92:88:ef:
                    e0:5e:f0:e5:04:14:73:7b:c3:d3:c7:ec:dd:79:c5:
                    97:c1:e9:80:39:1e:ca:55:5d:bd:a2:0f:b3:6a:a6:
                    fb:b4:33
                Exponent: 65537 (0x10001)
        X509v3 extensions:
            X509v3 Basic Constraints: 
                CA:FALSE
            Netscape Comment: 
                Easy-RSA Generated Certificate
            X509v3 Subject Key Identifier: 
                88:16:0C:BF:6F:29:B4:4F:36:30:D6:6D:66:D5:2B:6E:79:EA:2C:50
            X509v3 Authority Key Identifier: 
                keyid:12:CD:60:04:D2:A0:80:9E:70:ED:C6:99:B8:7B:2C:C6:52:FD:19:A1
                DirName:/C=US/ST=OH/L=Columbus/O=VikingVPN/OU=MyOrganizationalUnit/CN=VikingVPN CA/name=EasyRSA/emailAddress=me@myhost.mydomain
                serial:CF:35:85:EE:80:BF:2A:3E

            X509v3 Extended Key Usage: 
                TLS Web Client Authentication
            X509v3 Key Usage: 
                Digital Signature
    Signature Algorithm: sha256WithRSAEncryption
         e5:90:3f:81:4d:32:2a:18:f7:94:c9:dd:8e:e5:0e:41:d4:84:
         af:53:cb:fa:3f:3f:ae:06:4f:68:b1:3a:9d:21:8c:f2:e4:b3:
         4e:30:b8:99:aa:26:7d:91:cb:a2:ef:68:04:8e:08:55:43:9d:
         d6:1c:da:a1:5f:c2:da:ec:be:9a:14:88:01:8e:a4:40:48:96:
         7f:6a:a5:9f:bd:71:e6:ce:cc:dc:69:a5:8f:cb:6e:2e:98:2c:
         a0:3d:b5:76:39:11:35:13:29:8c:57:cb:77:d3:3a:22:fd:26:
         e3:6f:0c:d4:a3:94:0e:cb:b0:b8:7a:52:34:29:f4:62:0b:2b:
         f3:82:e4:19:1e:fe:ef:dc:19:c4:21:7c:a8:90:21:ce:27:27:
         91:17:b4:f6:2f:7c:7e:ab:d3:82:aa:41:6b:17:95:d0:e5:57:
         c4:d9:79:71:3e:1e:37:0a:46:3c:22:8b:8d:6b:a1:bd:db:e5:
         6a:fd:ca:5a:eb:5e:25:95:af:1d:74:92:81:16:72:67:36:4f:
         3a:9c:bb:f3:43:43:4f:6f:73:5b:20:97:53:a4:b7:b6:30:fa:
         45:1e:0d:01:9c:bc:a4:de:10:05:3b:21:32:2f:39:dc:4e:66:
         86:d4:4f:07:69:72:ea:cc:c3:09:ab:55:05:20:99:d6:c1:1b:
         c4:ac:88:69:31:de:c4:ad:45:13:53:62:f3:cd:84:d1:28:da:
         8c:ff:db:b1:8d:80:b3:f1:9a:91:a8:55:8b:55:d3:f0:fe:a6:
         54:70:79:50:eb:03:7e:bd:34:99:17:64:e1:45:fa:29:dc:9e:
         4b:a4:52:1c:ad:af:25:77:d8:a9:d7:25:28:82:db:cb:d2:3a:
         f3:fc:5f:9f:28:53:3d:ae:77:7c:33:81:20:3f:3e:c8:ac:ac:
         dd:9b:43:37:40:42:49:dc:ec:21:c1:19:62:0e:0e:02:1f:c2:
         ee:7d:3f:0c:b3:21:6e:a7:44:e7:b5:f5:3d:5a:a5:a4:49:85:
         ee:0d:32:aa:e2:39:f7:db:81:70:52:c6:28:54:cf:9f:6e:82:
         4f:24:c9:e7:02:0f:32:b9:e4:a2:83:ba:7d:9b:f7:63:67:c5:
         8f:a0:71:07:bd:bf:13:58:8e:f0:48:f2:99:f3:1a:fa:f7:5d:
         f6:0d:ba:79:0f:ec:7b:57:47:ae:ea:6b:77:5a:c8:4e:89:23:
         35:68:8e:97:eb:e6:e1:92:13:7c:12:81:ce:47:48:a8:f0:bc:
         a0:dd:4b:fa:aa:47:4d:23:a8:e3:4a:33:62:1a:40:17:0d:18:
         1f:57:3f:c4:25:74:76:db:3d:7f:b3:6a:b3:a6:2b:c1:a3:1b:
         0e:ef:e9:8a:4c:16:19:64
-----BEGIN CERTIFICATE-----
MIIGrTCCBJWgAwIBAgICL6IwDQYJKoZIhvcNAQELBQAwgawxCzAJBgNVBAYTAlVT
MQswCQYDVQQIEwJPSDERMA8GA1UEBxMIQ29sdW1idXMxEjAQBgNVBAoTCVZpa2lu
Z1ZQTjEdMBsGA1UECxMUTXlPcmdhbml6YXRpb25hbFVuaXQxFTATBgNVBAMTDFZp
a2luZ1ZQTiBDQTEQMA4GA1UEKRMHRWFzeVJTQTEhMB8GCSqGSIb3DQEJARYSbWVA
bXlob3N0Lm15ZG9tYWluMB4XDTE3MTEyOTE3MzYzNloXDTI3MTEyNzE3MzYzNlow
HzEdMBsGA1UEAxMUQ2xpZW50MTcwMkNlcnQ2Y2M1ODcwggIiMA0GCSqGSIb3DQEB
AQUAA4ICDwAwggIKAoICAQDVqjIfgS2zCU7dhZof6QkQ4Wun+lavD8Dlf1Kybl++
obpO/DY8UAagHkkdRlhhFmaFDjC56IyGzFMZRI4Ep/sszuSRWwZu2jSQE1Gl5Iqz
g2aRxOkCGeOZXJiWoG8EVJ+tlqWRj/mpPzDBV7d2ugycohXA7IuTQvdZIYPYTeEy
FAGzuSfOQ+22HyzUD3pcgXpmPi6PSh6V5TuK6LG3GqZRaXx0edupwHks1Z/P00Aq
plLjnPbtbz3F26OdlSG4Lv+5W8N1TLgJXzK6yrx7q+xh9If4ZGeH4Gog1QzeGdTb
U1B4rqFMX/414nM+Nte5qfE82rbA1/svcCR/2oxCSkQE23eq3LVevxxA9aNh5dsl
coRw5/vrfZk6n8ZHHK9/Wt8CVoKujcGEGy507I1kKn/2qOLXqTcvh6sy9Ls3jaDy
r5cGSA8CQYt0h6XsjZ2rzlti9a0lCQVSA32iT24JHMj8FYXb0KeYPXr5T2kRTylH
Qd+pOmTgfnbCqC7NtQNR/LqwDlmQWkz+sdRW1oCykH6iQnrNnV5flv8HAU5HsDPY
HGo9DVDSSZMy50NhTIhVGcFUnAawXYHemycKM9+OerKjErVkrl96o3lqNFFtZZ8e
lqaXotmOHO86JgPOQpKI7+Be8OUEFHN7w9PH7N15xZfB6YA5HspVXb2iD7Nqpvu0
MwIDAQABo4IBYzCCAV8wCQYDVR0TBAIwADAtBglghkgBhvhCAQ0EIBYeRWFzeS1S
U0EgR2VuZXJhdGVkIENlcnRpZmljYXRlMB0GA1UdDgQWBBSIFgy/bym0TzYw1m1m
1StueeosUDCB4QYDVR0jBIHZMIHWgBQSzWAE0qCAnnDtxpm4eyzGUv0ZoaGBsqSB
rzCBrDELMAkGA1UEBhMCVVMxCzAJBgNVBAgTAk9IMREwDwYDVQQHEwhDb2x1bWJ1
czESMBAGA1UEChMJVmlraW5nVlBOMR0wGwYDVQQLExRNeU9yZ2FuaXphdGlvbmFs
VW5pdDEVMBMGA1UEAxMMVmlraW5nVlBOIENBMRAwDgYDVQQpEwdFYXN5UlNBMSEw
HwYJKoZIhvcNAQkBFhJtZUBteWhvc3QubXlkb21haW6CCQDPNYXugL8qPjATBgNV
HSUEDDAKBggrBgEFBQcDAjALBgNVHQ8EBAMCB4AwDQYJKoZIhvcNAQELBQADggIB
AOWQP4FNMioY95TJ3Y7lDkHUhK9Ty/o/P64GT2ixOp0hjPLks04wuJmqJn2Ry6Lv
aASOCFVDndYc2qFfwtrsvpoUiAGOpEBIln9qpZ+9cebOzNxppY/Lbi6YLKA9tXY5
ETUTKYxXy3fTOiL9JuNvDNSjlA7LsLh6UjQp9GILK/OC5Bke/u/cGcQhfKiQIc4n
J5EXtPYvfH6r04KqQWsXldDlV8TZeXE+HjcKRjwii41rob3b5Wr9ylrrXiWVrx10
koEWcmc2Tzqcu/NDQ09vc1sgl1Okt7Yw+kUeDQGcvKTeEAU7ITIvOdxOZobUTwdp
curMwwmrVQUgmdbBG8SsiGkx3sStRRNTYvPNhNEo2oz/27GNgLPxmpGoVYtV0/D+
plRweVDrA369NJkXZOFF+incnkukUhytryV32KnXJSiC28vSOvP8X58oUz2ud3wz
gSA/PsisrN2bQzdAQknc7CHBGWIODgIfwu59PwyzIW6nROe19T1apaRJhe4NMqri
OffbgXBSxihUz59ugk8kyecCDzK55KKDun2b92NnxY+gcQe9vxNYjvBI8pnzGvr3
XfYNunkP7HtXR67qa3dayE6JIzVojpfr5uGSE3wSgc5HSKjwvKDdS/qqR00jqONK
M2IaQBcNGB9XP8QldHbbPX+zarOmK8GjGw7v6YpMFhlk
-----END CERTIFICATE-----
