Certificate:
    Data:
        Version: 3 (0x2)
        Serial Number: 12217 (0x2fb9)
    Signature Algorithm: sha256WithRSAEncryption
        Issuer: C=US, ST=OH, L=Columbus, O=VikingVPN, OU=MyOrganizationalUnit, CN=VikingVPN CA/name=EasyRSA/emailAddress=me@myhost.mydomain
        Validity
            Not Before: Dec  4 01:09:38 2017 GMT
            Not After : Dec  2 01:09:38 2027 GMT
        Subject: CN=Client3081Cert9ae0cd
        Subject Public Key Info:
            Public Key Algorithm: rsaEncryption
                Public-Key: (4096 bit)
                Modulus:
                    00:c9:23:34:61:27:0d:64:9e:17:2c:8a:4d:9b:31:
                    90:ae:d5:bd:b6:49:0a:f3:c0:dd:82:7a:39:8b:db:
                    ea:73:cd:79:81:5a:a1:6f:3d:46:15:f6:4e:f7:a1:
                    eb:90:14:6c:b4:2f:16:ab:81:7a:a8:9d:c7:32:0a:
                    ce:de:61:65:b0:a7:aa:93:f2:93:b5:fe:f9:48:53:
                    02:a6:07:0b:07:1a:e2:68:ac:7e:2b:6d:b0:e2:1b:
                    58:c2:df:2a:b4:d7:0a:19:04:4e:96:eb:9e:77:7d:
                    e8:0d:46:e1:9c:87:5f:07:fc:4d:ef:fe:c8:4f:97:
                    8a:e4:c2:44:72:48:53:e5:96:9b:e5:89:08:04:5e:
                    b7:01:16:2b:ba:3d:77:c9:3d:23:0e:8c:96:16:73:
                    ec:7b:7f:ed:01:b3:26:01:fa:9b:4d:30:69:1c:c8:
                    6d:dc:ad:ce:9a:3a:ec:fa:35:61:7e:dd:14:88:84:
                    27:f7:f7:15:52:54:4c:63:24:e1:c0:5f:a8:06:d6:
                    ac:2e:e5:fd:e8:7d:58:5c:10:41:0c:5f:2b:08:c4:
                    bf:31:03:5d:63:f8:d7:8a:cc:52:c5:7b:1c:d2:7f:
                    bf:79:4a:48:24:44:f6:12:79:46:c2:67:9c:10:52:
                    d5:a2:5f:8a:46:39:03:ed:4c:ca:a6:0d:79:4e:0f:
                    3e:67:6b:eb:38:13:76:2f:7f:ce:2b:12:4b:3e:7e:
                    13:c0:dc:b9:3e:6b:f9:a3:d8:66:8c:73:f0:2e:56:
                    59:7c:4f:dc:27:b4:94:f9:99:6c:80:14:b4:8d:7a:
                    a7:5a:9e:bb:8e:15:56:03:df:6d:38:62:11:d7:de:
                    98:1f:a9:58:3d:d6:23:42:ce:97:fb:b2:52:21:66:
                    b9:a5:b3:a2:47:47:e7:2a:29:2f:0f:68:7f:c8:0a:
                    77:d9:60:d9:f6:4e:b0:40:c1:ad:cd:e4:de:18:40:
                    a7:34:5e:b9:e8:9e:d5:c1:08:a4:3c:48:4e:58:bb:
                    a9:21:be:3c:08:1c:9a:1a:1b:2b:d6:c5:f9:ba:62:
                    0b:27:a5:24:8e:c6:d7:4f:b9:81:43:0d:e1:ed:cd:
                    6d:18:3c:14:58:f0:14:6a:d7:0e:57:1e:23:e5:2e:
                    ce:ab:b7:e7:84:33:43:2c:e8:44:e5:33:5b:e5:6c:
                    b2:c9:2a:ea:cd:66:b0:f8:5e:9f:fd:7b:82:d8:34:
                    44:a9:a0:ac:f3:2d:a3:36:5d:8b:f6:1e:85:5a:3e:
                    78:72:92:ea:32:f2:04:44:a6:97:53:76:91:c5:2e:
                    af:9e:ff:e4:e9:91:ff:5d:fb:87:11:d8:92:b3:a0:
                    f0:9c:cb:48:22:d5:12:e3:45:1e:ec:29:12:f0:76:
                    da:50:ad
                Exponent: 65537 (0x10001)
        X509v3 extensions:
            X509v3 Basic Constraints: 
                CA:FALSE
            Netscape Comment: 
                Easy-RSA Generated Certificate
            X509v3 Subject Key Identifier: 
                6C:41:05:32:72:E4:25:23:21:7F:63:9E:97:48:CA:42:F3:6B:04:52
            X509v3 Authority Key Identifier: 
                keyid:12:CD:60:04:D2:A0:80:9E:70:ED:C6:99:B8:7B:2C:C6:52:FD:19:A1
                DirName:/C=US/ST=OH/L=Columbus/O=VikingVPN/OU=MyOrganizationalUnit/CN=VikingVPN CA/name=EasyRSA/emailAddress=me@myhost.mydomain
                serial:CF:35:85:EE:80:BF:2A:3E

            X509v3 Extended Key Usage: 
                TLS Web Client Authentication
            X509v3 Key Usage: 
                Digital Signature
    Signature Algorithm: sha256WithRSAEncryption
         a5:90:05:e1:e3:88:3a:e4:ee:e1:ed:82:04:cd:0b:28:83:45:
         ae:f7:e3:d4:0f:65:46:b0:ed:a1:d1:87:4f:f3:c7:3d:b3:7b:
         6b:40:f2:be:99:a5:41:3f:29:e2:b3:69:48:49:e8:fa:6f:60:
         ec:23:5a:e6:f1:82:d4:4c:5c:d9:94:7d:a4:07:c9:a0:59:2e:
         cb:8f:0f:a9:f2:45:52:26:71:41:7a:d4:b0:b5:1f:8d:c5:ea:
         bf:63:f4:20:5d:7b:bb:b4:95:86:73:e0:cb:8a:6c:06:ea:26:
         b5:18:a8:65:2d:70:2a:d2:85:bd:b9:cb:de:05:41:55:fb:10:
         f5:40:f8:41:55:5b:6b:15:69:ac:6f:b1:a2:5e:c8:d3:17:d1:
         a5:b4:c3:9d:0b:43:22:1a:96:07:6d:59:89:b4:87:73:aa:a0:
         7d:1f:cd:c0:b6:66:6e:0d:b2:01:b0:77:fe:df:17:ef:e3:36:
         a9:5d:e7:0e:6a:42:5e:6f:25:45:25:29:7d:8b:0f:cb:24:26:
         5f:90:9e:42:d5:3b:02:45:69:b8:fd:83:15:c3:ac:17:77:83:
         1e:f3:3c:d2:53:c7:36:cf:1c:0f:a5:60:48:21:56:8c:da:5b:
         50:42:d6:15:df:ff:ab:ca:82:75:06:d5:0f:c5:8c:fa:56:bc:
         61:00:35:99:79:54:0f:6f:48:1e:76:8c:86:7d:2a:a0:26:9e:
         e9:72:76:7a:a6:17:1d:0c:e3:17:75:d0:f4:39:41:eb:a3:cb:
         00:a4:6c:bb:76:47:01:45:90:5c:8d:83:a9:9e:6c:ad:cf:28:
         ab:bd:26:43:da:33:f2:7b:c5:7d:c9:14:6e:b2:e0:06:a8:48:
         57:a3:6a:40:21:16:fb:32:ef:21:02:2b:fd:ae:e9:5e:8f:ad:
         d8:b5:73:4a:bf:32:b6:a4:b1:d3:14:b8:97:c1:95:4a:51:3c:
         64:fd:7a:ba:bc:cc:8d:c6:34:2a:1e:a0:22:2d:8c:6a:4c:e2:
         02:de:9a:7d:40:7f:fd:f7:8a:3a:3f:04:7b:a5:84:84:e2:d0:
         6d:17:83:68:3d:40:8b:78:ce:0f:72:0a:53:50:4a:86:9a:af:
         85:2a:f6:f1:3e:d2:f0:40:77:88:62:8a:96:48:86:a6:24:ba:
         fb:68:b8:27:7d:c0:f0:f9:96:be:b8:14:96:0f:3a:10:18:ea:
         a1:1f:df:a6:66:df:c0:ba:82:9a:67:98:85:f0:5e:51:42:bb:
         5e:1d:57:88:b2:df:3e:7b:4f:6a:7c:96:cf:5d:b9:3c:b1:ec:
         1f:6f:52:69:c3:e9:0d:0f:bc:b6:ca:92:89:5b:da:ca:c3:e9:
         2d:e5:85:51:42:1e:6b:8c
-----BEGIN CERTIFICATE-----
MIIGrTCCBJWgAwIBAgICL7kwDQYJKoZIhvcNAQELBQAwgawxCzAJBgNVBAYTAlVT
MQswCQYDVQQIEwJPSDERMA8GA1UEBxMIQ29sdW1idXMxEjAQBgNVBAoTCVZpa2lu
Z1ZQTjEdMBsGA1UECxMUTXlPcmdhbml6YXRpb25hbFVuaXQxFTATBgNVBAMTDFZp
a2luZ1ZQTiBDQTEQMA4GA1UEKRMHRWFzeVJTQTEhMB8GCSqGSIb3DQEJARYSbWVA
bXlob3N0Lm15ZG9tYWluMB4XDTE3MTIwNDAxMDkzOFoXDTI3MTIwMjAxMDkzOFow
HzEdMBsGA1UEAxMUQ2xpZW50MzA4MUNlcnQ5YWUwY2QwggIiMA0GCSqGSIb3DQEB
AQUAA4ICDwAwggIKAoICAQDJIzRhJw1knhcsik2bMZCu1b22SQrzwN2CejmL2+pz
zXmBWqFvPUYV9k73oeuQFGy0LxargXqonccyCs7eYWWwp6qT8pO1/vlIUwKmBwsH
GuJorH4rbbDiG1jC3yq01woZBE6W6553fegNRuGch18H/E3v/shPl4rkwkRySFPl
lpvliQgEXrcBFiu6PXfJPSMOjJYWc+x7f+0BsyYB+ptNMGkcyG3crc6aOuz6NWF+
3RSIhCf39xVSVExjJOHAX6gG1qwu5f3ofVhcEEEMXysIxL8xA11j+NeKzFLFexzS
f795SkgkRPYSeUbCZ5wQUtWiX4pGOQPtTMqmDXlODz5na+s4E3Yvf84rEks+fhPA
3Lk+a/mj2GaMc/AuVll8T9wntJT5mWyAFLSNeqdanruOFVYD3204YhHX3pgfqVg9
1iNCzpf7slIhZrmls6JHR+cqKS8PaH/ICnfZYNn2TrBAwa3N5N4YQKc0XrnontXB
CKQ8SE5Yu6khvjwIHJoaGyvWxfm6YgsnpSSOxtdPuYFDDeHtzW0YPBRY8BRq1w5X
HiPlLs6rt+eEM0Ms6ETlM1vlbLLJKurNZrD4Xp/9e4LYNESpoKzzLaM2XYv2HoVa
Pnhykuoy8gREppdTdpHFLq+e/+Tpkf9d+4cR2JKzoPCcy0gi1RLjRR7sKRLwdtpQ
rQIDAQABo4IBYzCCAV8wCQYDVR0TBAIwADAtBglghkgBhvhCAQ0EIBYeRWFzeS1S
U0EgR2VuZXJhdGVkIENlcnRpZmljYXRlMB0GA1UdDgQWBBRsQQUycuQlIyF/Y56X
SMpC82sEUjCB4QYDVR0jBIHZMIHWgBQSzWAE0qCAnnDtxpm4eyzGUv0ZoaGBsqSB
rzCBrDELMAkGA1UEBhMCVVMxCzAJBgNVBAgTAk9IMREwDwYDVQQHEwhDb2x1bWJ1
czESMBAGA1UEChMJVmlraW5nVlBOMR0wGwYDVQQLExRNeU9yZ2FuaXphdGlvbmFs
VW5pdDEVMBMGA1UEAxMMVmlraW5nVlBOIENBMRAwDgYDVQQpEwdFYXN5UlNBMSEw
HwYJKoZIhvcNAQkBFhJtZUBteWhvc3QubXlkb21haW6CCQDPNYXugL8qPjATBgNV
HSUEDDAKBggrBgEFBQcDAjALBgNVHQ8EBAMCB4AwDQYJKoZIhvcNAQELBQADggIB
AKWQBeHjiDrk7uHtggTNCyiDRa7349QPZUaw7aHRh0/zxz2ze2tA8r6ZpUE/KeKz
aUhJ6PpvYOwjWubxgtRMXNmUfaQHyaBZLsuPD6nyRVImcUF61LC1H43F6r9j9CBd
e7u0lYZz4MuKbAbqJrUYqGUtcCrShb25y94FQVX7EPVA+EFVW2sVaaxvsaJeyNMX
0aW0w50LQyIalgdtWYm0h3OqoH0fzcC2Zm4NsgGwd/7fF+/jNqld5w5qQl5vJUUl
KX2LD8skJl+QnkLVOwJFabj9gxXDrBd3gx7zPNJTxzbPHA+lYEghVozaW1BC1hXf
/6vKgnUG1Q/FjPpWvGEANZl5VA9vSB52jIZ9KqAmnulydnqmFx0M4xd10PQ5Qeuj
ywCkbLt2RwFFkFyNg6mebK3PKKu9JkPaM/J7xX3JFG6y4AaoSFejakAhFvsy7yEC
K/2u6V6Prdi1c0q/MraksdMUuJfBlUpRPGT9erq8zI3GNCoeoCItjGpM4gLemn1A
f/33ijo/BHulhITi0G0Xg2g9QIt4zg9yClNQSoaar4Uq9vE+0vBAd4hiipZIhqYk
uvtouCd9wPD5lr64FJYPOhAY6qEf36Zm38C6gppnmIXwXlFCu14dV4iy3z57T2p8
ls9duTyx7B9vUmnD6Q0PvLbKkolb2srD6S3lhVFCHmuM
-----END CERTIFICATE-----
