Certificate:
    Data:
        Version: 3 (0x2)
        Serial Number: 12238 (0x2fce)
    Signature Algorithm: sha256WithRSAEncryption
        Issuer: C=US, ST=OH, L=Columbus, O=VikingVPN, OU=MyOrganizationalUnit, CN=VikingVPN CA/name=EasyRSA/emailAddress=me@myhost.mydomain
        Validity
            Not Before: Dec  8 17:21:59 2017 GMT
            Not After : Dec  6 17:21:59 2027 GMT
        Subject: CN=Client2621Cert1ec2c3
        Subject Public Key Info:
            Public Key Algorithm: rsaEncryption
                Public-Key: (4096 bit)
                Modulus:
                    00:ca:6b:f2:f4:e4:7b:66:63:21:7f:8c:56:e5:54:
                    67:41:03:ee:3c:f2:bf:1b:db:4a:98:b2:72:cd:e7:
                    2f:ef:63:63:29:41:08:23:f7:a2:3d:49:c5:a7:96:
                    02:49:47:d9:b1:3f:55:72:9e:cc:56:91:c2:3c:ef:
                    4b:de:cb:9f:46:1b:35:29:2c:c0:41:a6:0b:87:fd:
                    14:d8:a3:70:e6:f6:bd:7b:18:72:f8:ec:48:fb:84:
                    22:41:6c:51:dc:cc:90:e0:7c:69:5d:2f:3f:08:1b:
                    8a:e0:e7:f9:8c:5e:60:cd:1a:f7:07:ee:ee:6d:2c:
                    e7:2f:89:5d:13:5b:b8:65:1f:4b:1e:22:89:6c:f9:
                    cf:1d:20:b1:fe:79:70:23:0b:bd:67:a0:ac:9b:ea:
                    04:b9:5b:72:ec:16:43:2e:b6:01:5a:b2:bc:ce:e5:
                    2c:1e:9e:ae:06:49:1c:71:3b:d3:9e:45:95:6c:72:
                    1c:c2:cb:3f:a0:54:9b:94:ea:f4:ef:03:dc:4d:ae:
                    13:c7:e6:ba:2d:de:85:99:cd:0a:4e:98:e3:24:ee:
                    26:d8:ef:24:ff:8e:88:4f:a5:0b:ae:e4:78:e9:41:
                    1d:1f:b7:c1:45:91:37:81:d3:5d:66:52:0b:15:d5:
                    73:38:fe:8f:b1:d8:58:b6:d6:bd:21:54:5c:fe:db:
                    2c:82:90:e6:9b:50:30:ca:bd:46:a5:48:d3:ff:2a:
                    e0:24:1d:80:7d:34:d3:7f:6a:e1:68:e1:ff:fb:1d:
                    03:c7:3d:97:4f:1b:96:86:1b:60:0d:d3:e3:c2:d6:
                    48:7f:34:cb:35:db:8d:02:67:92:94:51:39:68:17:
                    06:5d:75:4b:02:57:c1:d2:02:50:45:31:44:83:9c:
                    4d:a7:7d:04:12:5c:91:5b:99:e9:f2:90:29:e2:80:
                    c6:98:7e:9e:7e:b3:5e:56:20:7a:65:2f:5b:01:cd:
                    bd:9d:bc:38:71:07:62:7a:a2:f5:0b:28:f0:34:ed:
                    29:c9:1c:24:ec:74:a2:8d:da:aa:5e:43:37:60:8c:
                    80:d8:d4:6e:d4:42:d6:81:7c:b0:0c:3d:90:9c:49:
                    77:a8:68:ef:82:67:ec:3b:76:89:43:8c:f9:d8:50:
                    a6:2a:5d:18:72:07:a4:e6:df:3e:83:a8:e4:88:19:
                    de:ef:77:cb:e9:82:ce:4f:b5:f2:fe:83:37:a2:8a:
                    45:bc:3d:3e:22:7c:8f:2f:7e:46:29:68:e8:b1:33:
                    9d:8d:47:99:71:4d:65:4d:f2:c3:a4:1e:4d:fe:2f:
                    86:79:da:9b:67:4b:a0:f0:3a:df:72:47:d5:ab:b6:
                    f1:b0:99:0f:48:93:d7:e5:53:1c:ea:e7:2d:09:6a:
                    a8:b7:c3
                Exponent: 65537 (0x10001)
        X509v3 extensions:
            X509v3 Basic Constraints: 
                CA:FALSE
            Netscape Comment: 
                Easy-RSA Generated Certificate
            X509v3 Subject Key Identifier: 
                CB:8A:E5:54:5E:05:50:1F:45:2E:82:80:67:78:A0:E0:79:83:2C:EC
            X509v3 Authority Key Identifier: 
                keyid:12:CD:60:04:D2:A0:80:9E:70:ED:C6:99:B8:7B:2C:C6:52:FD:19:A1
                DirName:/C=US/ST=OH/L=Columbus/O=VikingVPN/OU=MyOrganizationalUnit/CN=VikingVPN CA/name=EasyRSA/emailAddress=me@myhost.mydomain
                serial:CF:35:85:EE:80:BF:2A:3E

            X509v3 Extended Key Usage: 
                TLS Web Client Authentication
            X509v3 Key Usage: 
                Digital Signature
    Signature Algorithm: sha256WithRSAEncryption
         5b:ac:73:af:29:22:dd:b8:d0:4f:6f:b0:28:23:e4:71:11:7b:
         c4:be:6f:42:45:5a:ce:88:82:8c:0d:5b:a6:8a:04:08:ed:c2:
         44:d2:5e:57:df:b9:b2:ea:28:b5:78:2b:53:3c:56:f9:72:fa:
         0d:7e:4e:c9:c3:b8:78:a2:e8:2a:b3:e7:5e:0a:b3:7a:27:12:
         fd:a8:60:b9:cd:a1:db:7d:95:28:a1:f5:27:ad:ea:41:8a:9c:
         73:e7:4d:e4:c4:19:94:34:c9:8a:16:43:97:52:b5:e7:68:b6:
         76:af:db:2c:89:a6:83:dc:67:36:90:57:64:2a:1a:d7:8b:e9:
         1f:2e:38:fc:fc:4b:bd:13:08:ce:14:0e:b8:c8:5c:be:78:6f:
         81:28:fa:43:7c:94:cb:78:0f:98:32:1d:02:02:31:c4:87:0f:
         8d:9d:d2:8f:2b:2b:98:06:e3:ee:6d:83:7c:14:46:ad:c5:42:
         90:54:87:99:01:f5:70:7f:ec:c0:dd:23:95:0e:a2:f9:56:4e:
         0c:94:65:58:20:f8:ae:5b:5f:5b:0d:ba:95:da:5f:dd:26:96:
         3a:59:64:76:e9:67:bc:01:b7:90:01:11:25:c4:79:d7:fd:c7:
         a5:bd:3a:91:97:6c:20:04:2a:c4:af:90:61:46:16:6f:03:8c:
         f2:90:4f:6a:23:ba:d0:df:cf:ef:69:16:8a:65:d9:bb:c2:e9:
         19:b4:f2:5f:85:f3:ac:42:cc:3c:ed:83:ed:4c:3c:32:32:2d:
         cd:e7:d8:d8:5d:63:a0:2c:3a:e8:56:25:44:d3:2c:29:99:4d:
         29:60:0d:e6:77:48:ff:e0:98:57:58:17:ee:2a:c8:4c:73:31:
         e7:36:12:59:ea:c1:c4:50:be:84:ff:aa:1a:c0:21:76:28:5d:
         e2:0d:fe:ab:69:bd:7d:e6:21:35:39:dc:5c:9d:4e:99:89:41:
         e1:b8:ce:4f:2f:26:87:13:1c:b2:8c:e4:6b:83:ff:7d:bb:af:
         1e:4b:66:ac:90:cd:a5:70:bc:4d:6c:76:c6:ac:9f:02:ff:a5:
         71:18:6c:2d:8b:16:04:d7:52:f2:da:b7:00:b7:60:c9:56:ad:
         82:ba:5b:99:52:73:91:82:f2:c5:fd:a5:ef:c0:75:1e:46:63:
         67:d3:10:61:4c:c8:f9:31:20:c4:db:72:d0:91:6d:ff:f5:28:
         f7:18:11:99:d4:f5:a1:7a:71:d9:b0:0a:ae:0b:f3:28:75:d2:
         fc:79:d8:8b:3c:0f:bc:b8:69:e3:10:24:3d:d1:51:09:7c:cf:
         16:0b:7b:22:91:33:68:50:26:b6:3d:81:a9:d0:b0:a9:8e:97:
         b9:5e:ec:0e:be:b2:1d:3f
-----BEGIN CERTIFICATE-----
MIIGrTCCBJWgAwIBAgICL84wDQYJKoZIhvcNAQELBQAwgawxCzAJBgNVBAYTAlVT
MQswCQYDVQQIEwJPSDERMA8GA1UEBxMIQ29sdW1idXMxEjAQBgNVBAoTCVZpa2lu
Z1ZQTjEdMBsGA1UECxMUTXlPcmdhbml6YXRpb25hbFVuaXQxFTATBgNVBAMTDFZp
a2luZ1ZQTiBDQTEQMA4GA1UEKRMHRWFzeVJTQTEhMB8GCSqGSIb3DQEJARYSbWVA
bXlob3N0Lm15ZG9tYWluMB4XDTE3MTIwODE3MjE1OVoXDTI3MTIwNjE3MjE1OVow
HzEdMBsGA1UEAxMUQ2xpZW50MjYyMUNlcnQxZWMyYzMwggIiMA0GCSqGSIb3DQEB
AQUAA4ICDwAwggIKAoICAQDKa/L05HtmYyF/jFblVGdBA+488r8b20qYsnLN5y/v
Y2MpQQgj96I9ScWnlgJJR9mxP1VynsxWkcI870vey59GGzUpLMBBpguH/RTYo3Dm
9r17GHL47Ej7hCJBbFHczJDgfGldLz8IG4rg5/mMXmDNGvcH7u5tLOcviV0TW7hl
H0seIols+c8dILH+eXAjC71noKyb6gS5W3LsFkMutgFasrzO5Swenq4GSRxxO9Oe
RZVschzCyz+gVJuU6vTvA9xNrhPH5rot3oWZzQpOmOMk7ibY7yT/johPpQuu5Hjp
QR0ft8FFkTeB011mUgsV1XM4/o+x2Fi21r0hVFz+2yyCkOabUDDKvUalSNP/KuAk
HYB9NNN/auFo4f/7HQPHPZdPG5aGG2AN0+PC1kh/NMs1240CZ5KUUTloFwZddUsC
V8HSAlBFMUSDnE2nfQQSXJFbmenykCnigMaYfp5+s15WIHplL1sBzb2dvDhxB2J6
ovULKPA07SnJHCTsdKKN2qpeQzdgjIDY1G7UQtaBfLAMPZCcSXeoaO+CZ+w7dolD
jPnYUKYqXRhyB6Tm3z6DqOSIGd7vd8vpgs5PtfL+gzeiikW8PT4ifI8vfkYpaOix
M52NR5lxTWVN8sOkHk3+L4Z52ptnS6DwOt9yR9WrtvGwmQ9Ik9flUxzq5y0Jaqi3
wwIDAQABo4IBYzCCAV8wCQYDVR0TBAIwADAtBglghkgBhvhCAQ0EIBYeRWFzeS1S
U0EgR2VuZXJhdGVkIENlcnRpZmljYXRlMB0GA1UdDgQWBBTLiuVUXgVQH0UugoBn
eKDgeYMs7DCB4QYDVR0jBIHZMIHWgBQSzWAE0qCAnnDtxpm4eyzGUv0ZoaGBsqSB
rzCBrDELMAkGA1UEBhMCVVMxCzAJBgNVBAgTAk9IMREwDwYDVQQHEwhDb2x1bWJ1
czESMBAGA1UEChMJVmlraW5nVlBOMR0wGwYDVQQLExRNeU9yZ2FuaXphdGlvbmFs
VW5pdDEVMBMGA1UEAxMMVmlraW5nVlBOIENBMRAwDgYDVQQpEwdFYXN5UlNBMSEw
HwYJKoZIhvcNAQkBFhJtZUBteWhvc3QubXlkb21haW6CCQDPNYXugL8qPjATBgNV
HSUEDDAKBggrBgEFBQcDAjALBgNVHQ8EBAMCB4AwDQYJKoZIhvcNAQELBQADggIB
AFusc68pIt240E9vsCgj5HERe8S+b0JFWs6IgowNW6aKBAjtwkTSXlffubLqKLV4
K1M8Vvly+g1+TsnDuHii6Cqz514Ks3onEv2oYLnNodt9lSih9Set6kGKnHPnTeTE
GZQ0yYoWQ5dStedotnav2yyJpoPcZzaQV2QqGteL6R8uOPz8S70TCM4UDrjIXL54
b4Eo+kN8lMt4D5gyHQICMcSHD42d0o8rK5gG4+5tg3wURq3FQpBUh5kB9XB/7MDd
I5UOovlWTgyUZVgg+K5bX1sNupXaX90mljpZZHbpZ7wBt5ABESXEedf9x6W9OpGX
bCAEKsSvkGFGFm8DjPKQT2ojutDfz+9pFopl2bvC6Rm08l+F86xCzDztg+1MPDIy
Lc3n2NhdY6AsOuhWJUTTLCmZTSlgDeZ3SP/gmFdYF+4qyExzMec2ElnqwcRQvoT/
qhrAIXYoXeIN/qtpvX3mITU53FydTpmJQeG4zk8vJocTHLKM5GuD/327rx5LZqyQ
zaVwvE1sdsasnwL/pXEYbC2LFgTXUvLatwC3YMlWrYK6W5lSc5GC8sX9pe/AdR5G
Y2fTEGFMyPkxIMTbctCRbf/1KPcYEZnU9aF6cdmwCq4L8yh10vx52Is8D7y4aeMQ
JD3RUQl8zxYLeyKRM2hQJrY9ganQsKmOl7le7A6+sh0/
-----END CERTIFICATE-----
