Certificate:
    Data:
        Version: 3 (0x2)
        Serial Number: 12242 (0x2fd2)
    Signature Algorithm: sha256WithRSAEncryption
        Issuer: C=US, ST=OH, L=Columbus, O=VikingVPN, OU=MyOrganizationalUnit, CN=VikingVPN CA/name=EasyRSA/emailAddress=me@myhost.mydomain
        Validity
            Not Before: Dec  8 17:46:51 2017 GMT
            Not After : Dec  6 17:46:51 2027 GMT
        Subject: CN=Client2621Cert4e3b87
        Subject Public Key Info:
            Public Key Algorithm: rsaEncryption
                Public-Key: (4096 bit)
                Modulus:
                    00:c9:2b:1d:45:27:66:87:7d:e1:7a:6c:e5:7d:b1:
                    c3:f2:4a:60:84:29:c7:b2:dc:dc:c5:91:6a:48:ff:
                    96:81:c3:27:7b:14:2a:b1:77:a3:30:4d:c6:fd:e8:
                    53:2f:02:10:8e:7d:c2:35:c1:1d:f6:0e:db:7c:e5:
                    a8:46:9b:cd:52:4a:e9:f1:14:7e:5e:52:e9:4a:9e:
                    e2:d7:27:9b:d0:d5:2e:f7:6a:f1:12:81:39:93:91:
                    c8:c8:b4:66:c4:10:d1:a6:8e:73:13:1f:ca:f6:cb:
                    31:81:20:d0:f1:81:13:30:85:ae:cc:de:50:f3:16:
                    c0:55:61:37:81:da:9e:13:4c:e2:b3:4a:22:80:01:
                    bd:0a:9d:f2:be:37:5f:3f:8e:ab:35:87:5b:91:ee:
                    32:85:8d:6b:a6:8d:00:a0:83:8d:d6:a2:9b:d9:22:
                    2a:92:d5:42:72:0b:58:bb:e7:55:23:9f:74:19:1f:
                    dc:90:b8:ad:2a:91:51:ba:b4:2f:a7:bf:5b:0a:78:
                    2a:fe:65:72:8d:8d:30:d9:e6:6a:b1:9a:a1:be:fc:
                    9e:bf:48:b2:1c:b4:66:4f:50:3f:9e:90:de:fe:d6:
                    2e:3e:84:00:57:e5:b1:4a:d0:c2:c4:96:43:cf:7e:
                    ca:66:6f:b3:af:28:35:bf:b3:c8:41:9b:51:c4:cc:
                    3a:d6:d4:b5:c8:b7:9a:b2:23:ca:55:aa:54:bf:42:
                    63:27:fd:e1:6e:b3:89:ff:d2:8b:6e:9c:ea:03:8d:
                    56:fa:96:62:b8:df:67:a0:0b:80:67:bf:e9:46:00:
                    e6:ba:ce:45:84:78:52:4d:9c:58:b2:d6:dc:6c:8d:
                    12:e5:61:95:61:0e:f7:63:16:4a:2b:02:6b:15:a5:
                    d7:7c:8f:70:d4:e1:b3:6e:a3:52:f9:e6:c2:5a:06:
                    3b:f7:25:65:02:3f:33:15:6b:ef:7d:8f:6d:62:b7:
                    1d:dc:51:82:6f:7a:2f:36:92:4e:6c:e2:5b:85:93:
                    fa:a0:56:a6:a1:cf:39:9d:dc:d2:fc:90:39:5b:c6:
                    f3:bc:c2:65:86:00:2d:0f:04:9f:20:e3:00:5b:cb:
                    86:f8:18:42:ff:98:ce:0f:22:3b:d2:bd:f0:6a:e2:
                    e3:9a:28:5e:55:4e:0e:55:3e:8c:59:00:38:86:c3:
                    f4:d1:b6:bd:97:25:0f:04:2b:d1:3d:14:8c:2b:e2:
                    0c:e7:f6:c0:20:db:db:4d:67:46:03:49:4a:49:ab:
                    1e:76:92:2a:ff:a5:7d:5b:23:83:2a:39:d2:7c:e1:
                    38:e2:f3:61:fd:24:34:e5:1a:f5:8b:2b:eb:a5:0a:
                    08:4d:e1:67:8d:1d:62:11:ce:36:8d:44:9f:90:b4:
                    20:85:9b
                Exponent: 65537 (0x10001)
        X509v3 extensions:
            X509v3 Basic Constraints: 
                CA:FALSE
            Netscape Comment: 
                Easy-RSA Generated Certificate
            X509v3 Subject Key Identifier: 
                75:83:3F:35:01:22:70:EC:46:4F:B9:AA:BA:55:EE:4A:1C:32:02:16
            X509v3 Authority Key Identifier: 
                keyid:12:CD:60:04:D2:A0:80:9E:70:ED:C6:99:B8:7B:2C:C6:52:FD:19:A1
                DirName:/C=US/ST=OH/L=Columbus/O=VikingVPN/OU=MyOrganizationalUnit/CN=VikingVPN CA/name=EasyRSA/emailAddress=me@myhost.mydomain
                serial:CF:35:85:EE:80:BF:2A:3E

            X509v3 Extended Key Usage: 
                TLS Web Client Authentication
            X509v3 Key Usage: 
                Digital Signature
    Signature Algorithm: sha256WithRSAEncryption
         9d:91:cb:e3:4a:00:4f:90:07:0a:24:8c:ba:0b:cd:5d:cb:1f:
         d2:4d:9c:6e:ab:18:c8:ee:b2:ad:d6:d5:d3:16:91:63:63:b5:
         fc:59:73:78:58:02:87:ed:ac:80:50:3a:21:ab:d6:2b:92:a3:
         45:8f:34:2d:55:c1:5c:da:e2:1e:9f:c4:6a:8b:46:f3:ed:c9:
         5d:34:37:83:87:4f:7b:ae:6f:6c:ce:75:a5:dd:a0:41:de:52:
         0e:fa:06:d0:0f:c2:02:3e:b0:61:e0:b2:88:cf:73:7b:48:00:
         e1:d5:b7:43:67:b1:72:2c:b5:71:86:89:ea:df:a5:73:ad:39:
         73:82:4c:a8:c2:bb:6b:bf:1c:17:98:a0:ff:da:db:b6:98:67:
         aa:b9:b5:78:5e:ca:ed:6b:9a:c4:b4:92:f6:ed:e1:e0:0e:e2:
         91:ff:c9:7e:ba:62:7c:8f:52:e5:25:ef:16:c2:5c:13:6e:18:
         9c:c1:f1:73:d0:4d:84:90:25:3b:22:18:a4:ef:9f:f6:ba:66:
         64:d9:57:d0:8c:0d:07:3e:5f:81:2d:83:89:c9:cc:b3:ee:d4:
         4d:43:6a:68:93:fa:c1:d1:9b:07:5b:46:ae:7d:81:35:b4:b0:
         7e:e4:79:3f:81:76:7a:d9:85:46:db:00:5b:51:66:f1:9f:b9:
         03:82:35:f8:8a:2e:1a:30:6a:79:05:b2:65:08:21:a1:4a:7b:
         cd:8b:95:a7:1c:9a:98:e9:5c:9b:44:b2:72:f3:64:91:1e:06:
         90:53:be:55:99:54:c3:97:fd:e8:cb:c3:d3:54:81:f2:fd:ed:
         d6:8a:9c:6d:5e:eb:9f:04:cb:4c:4d:10:d7:f2:4e:25:89:fe:
         6a:aa:c2:03:cb:53:28:4f:bc:d4:f3:0f:77:5e:ab:ee:6e:14:
         bc:92:ea:67:1e:08:8b:07:8c:17:29:dc:35:70:08:2b:e8:f4:
         ae:96:35:c3:cd:56:e5:ef:df:c1:ca:76:3e:76:5b:c0:52:7f:
         b2:b8:e6:f8:d4:84:52:c6:49:89:08:a3:4b:b3:1e:6d:b1:32:
         62:53:16:f1:8c:58:6c:c8:62:b1:65:26:a9:fe:c1:2c:7f:1c:
         7f:1e:80:39:34:4d:0d:d8:bb:0f:8c:1f:23:7b:03:4a:86:cd:
         0b:d0:5a:3e:9f:e2:59:05:a2:1d:b5:3f:bf:e6:8c:2b:9f:cc:
         5c:b7:a6:c3:59:86:90:97:cf:31:df:64:7e:c3:73:5a:2b:84:
         23:c2:a0:c6:f0:4d:ac:cf:aa:82:d3:06:19:ae:1f:4f:39:72:
         d6:8f:7c:bf:97:bd:d6:74:f6:ac:db:ef:2b:04:37:04:3b:65:
         d0:bf:ce:3c:2a:c0:78:42
-----BEGIN CERTIFICATE-----
MIIGrTCCBJWgAwIBAgICL9IwDQYJKoZIhvcNAQELBQAwgawxCzAJBgNVBAYTAlVT
MQswCQYDVQQIEwJPSDERMA8GA1UEBxMIQ29sdW1idXMxEjAQBgNVBAoTCVZpa2lu
Z1ZQTjEdMBsGA1UECxMUTXlPcmdhbml6YXRpb25hbFVuaXQxFTATBgNVBAMTDFZp
a2luZ1ZQTiBDQTEQMA4GA1UEKRMHRWFzeVJTQTEhMB8GCSqGSIb3DQEJARYSbWVA
bXlob3N0Lm15ZG9tYWluMB4XDTE3MTIwODE3NDY1MVoXDTI3MTIwNjE3NDY1MVow
HzEdMBsGA1UEAxMUQ2xpZW50MjYyMUNlcnQ0ZTNiODcwggIiMA0GCSqGSIb3DQEB
AQUAA4ICDwAwggIKAoICAQDJKx1FJ2aHfeF6bOV9scPySmCEKcey3NzFkWpI/5aB
wyd7FCqxd6MwTcb96FMvAhCOfcI1wR32Dtt85ahGm81SSunxFH5eUulKnuLXJ5vQ
1S73avESgTmTkcjItGbEENGmjnMTH8r2yzGBINDxgRMwha7M3lDzFsBVYTeB2p4T
TOKzSiKAAb0KnfK+N18/jqs1h1uR7jKFjWumjQCgg43WopvZIiqS1UJyC1i751Uj
n3QZH9yQuK0qkVG6tC+nv1sKeCr+ZXKNjTDZ5mqxmqG+/J6/SLIctGZPUD+ekN7+
1i4+hABX5bFK0MLElkPPfspmb7OvKDW/s8hBm1HEzDrW1LXIt5qyI8pVqlS/QmMn
/eFus4n/0otunOoDjVb6lmK432egC4Bnv+lGAOa6zkWEeFJNnFiy1txsjRLlYZVh
DvdjFkorAmsVpdd8j3DU4bNuo1L55sJaBjv3JWUCPzMVa+99j21itx3cUYJvei82
kk5s4luFk/qgVqahzzmd3NL8kDlbxvO8wmWGAC0PBJ8g4wBby4b4GEL/mM4PIjvS
vfBq4uOaKF5VTg5VPoxZADiGw/TRtr2XJQ8EK9E9FIwr4gzn9sAg29tNZ0YDSUpJ
qx52kir/pX1bI4MqOdJ84Tji82H9JDTlGvWLK+ulCghN4WeNHWIRzjaNRJ+QtCCF
mwIDAQABo4IBYzCCAV8wCQYDVR0TBAIwADAtBglghkgBhvhCAQ0EIBYeRWFzeS1S
U0EgR2VuZXJhdGVkIENlcnRpZmljYXRlMB0GA1UdDgQWBBR1gz81ASJw7EZPuaq6
Ve5KHDICFjCB4QYDVR0jBIHZMIHWgBQSzWAE0qCAnnDtxpm4eyzGUv0ZoaGBsqSB
rzCBrDELMAkGA1UEBhMCVVMxCzAJBgNVBAgTAk9IMREwDwYDVQQHEwhDb2x1bWJ1
czESMBAGA1UEChMJVmlraW5nVlBOMR0wGwYDVQQLExRNeU9yZ2FuaXphdGlvbmFs
VW5pdDEVMBMGA1UEAxMMVmlraW5nVlBOIENBMRAwDgYDVQQpEwdFYXN5UlNBMSEw
HwYJKoZIhvcNAQkBFhJtZUBteWhvc3QubXlkb21haW6CCQDPNYXugL8qPjATBgNV
HSUEDDAKBggrBgEFBQcDAjALBgNVHQ8EBAMCB4AwDQYJKoZIhvcNAQELBQADggIB
AJ2Ry+NKAE+QBwokjLoLzV3LH9JNnG6rGMjusq3W1dMWkWNjtfxZc3hYAoftrIBQ
OiGr1iuSo0WPNC1VwVza4h6fxGqLRvPtyV00N4OHT3uub2zOdaXdoEHeUg76BtAP
wgI+sGHgsojPc3tIAOHVt0NnsXIstXGGierfpXOtOXOCTKjCu2u/HBeYoP/a27aY
Z6q5tXheyu1rmsS0kvbt4eAO4pH/yX66YnyPUuUl7xbCXBNuGJzB8XPQTYSQJTsi
GKTvn/a6ZmTZV9CMDQc+X4Etg4nJzLPu1E1DamiT+sHRmwdbRq59gTW0sH7keT+B
dnrZhUbbAFtRZvGfuQOCNfiKLhowankFsmUIIaFKe82LlaccmpjpXJtEsnLzZJEe
BpBTvlWZVMOX/ejLw9NUgfL97daKnG1e658Ey0xNENfyTiWJ/mqqwgPLUyhPvNTz
D3deq+5uFLyS6mceCIsHjBcp3DVwCCvo9K6WNcPNVuXv38HKdj52W8BSf7K45vjU
hFLGSYkIo0uzHm2xMmJTFvGMWGzIYrFlJqn+wSx/HH8egDk0TQ3Yuw+MHyN7A0qG
zQvQWj6f4lkFoh21P7/mjCufzFy3psNZhpCXzzHfZH7Dc1orhCPCoMbwTazPqoLT
BhmuH085ctaPfL+XvdZ09qzb7ysENwQ7ZdC/zjwqwHhC
-----END CERTIFICATE-----
