Certificate:
    Data:
        Version: 3 (0x2)
        Serial Number: 12260 (0x2fe4)
    Signature Algorithm: sha256WithRSAEncryption
        Issuer: C=US, ST=OH, L=Columbus, O=VikingVPN, OU=MyOrganizationalUnit, CN=VikingVPN CA/name=EasyRSA/emailAddress=me@myhost.mydomain
        Validity
            Not Before: Dec 16 15:45:46 2017 GMT
            Not After : Dec 14 15:45:46 2027 GMT
        Subject: CN=Client1702Certdfc990
        Subject Public Key Info:
            Public Key Algorithm: rsaEncryption
                Public-Key: (4096 bit)
                Modulus:
                    00:db:1d:2a:a8:96:f6:c8:7d:8d:e9:33:b2:47:00:
                    5e:fa:f6:e8:6b:2b:74:1d:1f:98:f0:a8:da:fc:8c:
                    fd:df:7a:ae:c9:4f:df:0f:61:00:50:bf:4d:b4:2d:
                    96:60:d1:a1:ab:50:88:aa:ec:cd:82:e4:ac:db:ec:
                    17:45:9d:cc:f7:6c:8d:75:a5:66:55:fb:28:d6:dd:
                    f5:90:ac:2f:c6:a8:00:51:d5:b4:1a:5a:82:a3:4a:
                    bf:6f:46:2a:63:db:36:ce:35:de:50:f6:d4:0d:0b:
                    25:0a:67:14:b5:de:36:2a:c1:2a:53:65:29:56:cc:
                    b7:c2:1e:8e:ae:6c:22:88:9e:ce:7e:3f:57:a9:97:
                    99:34:06:c7:87:8c:d9:24:29:f4:ac:36:f0:d3:12:
                    7d:45:38:6b:d5:9b:14:b4:27:cf:46:dc:b4:3a:38:
                    85:03:45:43:c2:9e:1b:e0:4f:b1:83:0c:4b:3a:c9:
                    ef:cd:45:ca:3f:5c:fd:24:03:33:da:d4:02:67:e4:
                    6f:cd:30:26:89:de:74:d5:0a:ce:c7:73:9b:d4:c7:
                    6a:68:3f:81:8e:00:3f:55:ff:3e:fc:3f:05:a0:80:
                    13:f0:cc:3d:26:ad:5a:22:6a:b5:d3:d2:e2:cc:c0:
                    7e:45:c8:fb:5c:38:69:d4:b4:1d:9a:bc:f3:e5:4f:
                    a8:67:ef:87:16:5d:5a:17:83:fa:21:f3:6e:23:92:
                    71:82:73:24:80:3e:e3:79:31:31:80:a5:ef:24:87:
                    34:6d:ed:3a:4a:a9:c4:74:50:2d:14:93:69:ae:81:
                    2e:46:40:9a:06:06:17:df:47:08:a6:87:9d:5e:5e:
                    bc:91:d7:dc:00:10:e6:64:3d:5f:23:9a:e2:fc:b7:
                    b8:b7:d2:9e:3c:ba:d1:ae:2f:6d:8c:dd:da:bd:eb:
                    c1:7f:f2:0e:f5:f3:28:a1:3b:3c:4c:15:54:93:13:
                    d0:9a:e1:22:31:9e:4d:be:82:dc:37:b8:38:97:4a:
                    5e:63:7b:ef:08:40:aa:d3:ca:fe:da:98:ed:05:ef:
                    90:da:d4:29:cb:f9:1d:8a:91:da:c6:51:e9:17:96:
                    2c:db:b0:9e:be:51:72:e9:bc:1e:e0:64:4a:bc:21:
                    6f:da:f6:bb:96:d2:fe:4f:7b:a6:a3:08:de:57:6c:
                    bf:1b:2d:5e:c3:8e:b8:75:04:1b:d7:c1:29:47:da:
                    be:1d:2b:cd:ac:0e:5f:04:2c:da:84:e0:a5:a2:51:
                    a8:60:fd:32:5f:cf:1e:de:b7:10:88:6b:9d:0b:05:
                    ea:c9:e3:45:e2:2f:b4:c0:33:14:c6:40:5c:d2:b0:
                    04:a3:70:ed:6b:cb:c0:ca:50:46:a4:cb:9e:59:95:
                    8a:fa:1d
                Exponent: 65537 (0x10001)
        X509v3 extensions:
            X509v3 Basic Constraints: 
                CA:FALSE
            Netscape Comment: 
                Easy-RSA Generated Certificate
            X509v3 Subject Key Identifier: 
                2A:AA:DB:AC:BD:87:C9:92:31:1A:B8:DC:B2:8A:A3:C2:AE:EB:5A:54
            X509v3 Authority Key Identifier: 
                keyid:12:CD:60:04:D2:A0:80:9E:70:ED:C6:99:B8:7B:2C:C6:52:FD:19:A1
                DirName:/C=US/ST=OH/L=Columbus/O=VikingVPN/OU=MyOrganizationalUnit/CN=VikingVPN CA/name=EasyRSA/emailAddress=me@myhost.mydomain
                serial:CF:35:85:EE:80:BF:2A:3E

            X509v3 Extended Key Usage: 
                TLS Web Client Authentication
            X509v3 Key Usage: 
                Digital Signature
    Signature Algorithm: sha256WithRSAEncryption
         b3:19:fe:c9:ba:eb:ef:5b:62:46:76:dd:c6:a2:a5:90:07:ae:
         a9:93:52:aa:45:60:5f:db:9d:dc:7e:dc:d0:12:3f:d0:15:d3:
         31:09:0f:5a:e1:a4:f1:3d:a2:98:e6:3b:2b:b9:44:5f:72:c9:
         3c:64:05:80:ea:ac:6a:b8:04:5f:29:30:8e:f2:1b:ef:e8:f7:
         18:88:9b:2e:01:5d:ba:b3:ab:ce:4d:40:48:2d:db:fc:a1:d3:
         fb:98:ee:4b:20:e4:22:7b:0d:9e:40:c6:a8:36:79:e7:62:3e:
         f8:c1:f8:a7:34:d4:36:bf:da:f0:8e:1c:c8:af:57:82:10:a6:
         a2:f8:fa:af:cc:6d:b6:af:12:29:ec:64:64:ee:d3:e2:54:ce:
         ff:27:f6:96:f9:be:86:f8:4d:51:d6:89:bd:b8:f4:15:c7:a8:
         24:b6:b8:97:c0:c3:94:11:3e:3b:9f:17:5c:e4:e1:67:93:f3:
         7e:c5:97:9e:c4:63:4f:0e:83:1c:b2:8d:84:a5:34:86:21:b3:
         66:c2:3f:86:31:9e:0a:92:f1:0b:d6:80:39:5d:f5:5b:26:42:
         c9:54:1f:7f:ba:c7:75:a5:08:95:d7:0b:dd:0a:5f:c3:c9:30:
         dd:a5:4c:8a:3e:80:ff:82:6c:9d:4d:59:92:72:f1:34:31:82:
         4a:db:3c:e6:a9:d2:61:52:ba:e7:ad:2f:ae:b0:ca:3c:38:9f:
         eb:3e:e0:eb:d5:a7:7e:81:6e:ce:aa:f6:77:cb:8e:ab:84:83:
         a9:cc:42:83:1e:ba:1f:c1:f5:da:cf:c8:ce:89:32:88:f4:56:
         f0:93:11:92:dc:7f:89:4f:e4:76:a8:46:63:9d:5d:14:29:b5:
         0b:be:a3:f7:19:c4:10:6c:35:a9:45:33:f8:c9:bd:45:2d:5b:
         24:62:89:f3:93:6e:b1:55:76:c9:0f:71:29:f8:59:37:6c:31:
         8b:74:01:2e:41:4a:5f:90:8b:e4:7e:74:b4:01:3d:87:7f:dc:
         f0:3c:95:44:83:f4:c7:17:7e:5d:be:a0:38:f5:e5:cf:a7:46:
         dc:44:fb:81:94:64:ac:d5:44:94:d5:f2:25:27:79:f8:0c:14:
         e5:5b:7a:3f:34:84:f1:8b:8d:eb:9a:4a:cd:43:d2:69:98:77:
         05:05:42:e8:79:2c:d2:ad:54:a9:96:4e:3e:01:82:e6:3b:58:
         fe:2a:8c:a6:10:02:0d:5d:42:bc:6d:6f:ac:96:8b:17:c8:eb:
         33:c9:dd:a2:11:7d:8d:14:46:a0:94:48:6b:22:61:bc:24:8c:
         d0:b2:25:05:d2:73:7a:7c:8b:28:d5:9e:10:ff:36:b3:8c:21:
         bd:12:eb:ec:8e:92:e5:ed
-----BEGIN CERTIFICATE-----
MIIGrTCCBJWgAwIBAgICL+QwDQYJKoZIhvcNAQELBQAwgawxCzAJBgNVBAYTAlVT
MQswCQYDVQQIEwJPSDERMA8GA1UEBxMIQ29sdW1idXMxEjAQBgNVBAoTCVZpa2lu
Z1ZQTjEdMBsGA1UECxMUTXlPcmdhbml6YXRpb25hbFVuaXQxFTATBgNVBAMTDFZp
a2luZ1ZQTiBDQTEQMA4GA1UEKRMHRWFzeVJTQTEhMB8GCSqGSIb3DQEJARYSbWVA
bXlob3N0Lm15ZG9tYWluMB4XDTE3MTIxNjE1NDU0NloXDTI3MTIxNDE1NDU0Nlow
HzEdMBsGA1UEAxMUQ2xpZW50MTcwMkNlcnRkZmM5OTAwggIiMA0GCSqGSIb3DQEB
AQUAA4ICDwAwggIKAoICAQDbHSqolvbIfY3pM7JHAF769uhrK3QdH5jwqNr8jP3f
eq7JT98PYQBQv020LZZg0aGrUIiq7M2C5Kzb7BdFncz3bI11pWZV+yjW3fWQrC/G
qABR1bQaWoKjSr9vRipj2zbONd5Q9tQNCyUKZxS13jYqwSpTZSlWzLfCHo6ubCKI
ns5+P1epl5k0BseHjNkkKfSsNvDTEn1FOGvVmxS0J89G3LQ6OIUDRUPCnhvgT7GD
DEs6ye/NRco/XP0kAzPa1AJn5G/NMCaJ3nTVCs7Hc5vUx2poP4GOAD9V/z78PwWg
gBPwzD0mrVoiarXT0uLMwH5FyPtcOGnUtB2avPPlT6hn74cWXVoXg/oh824jknGC
cySAPuN5MTGApe8khzRt7TpKqcR0UC0Uk2mugS5GQJoGBhffRwimh51eXryR19wA
EOZkPV8jmuL8t7i30p48utGuL22M3dq968F/8g718yihOzxMFVSTE9Ca4SIxnk2+
gtw3uDiXSl5je+8IQKrTyv7amO0F75Da1CnL+R2KkdrGUekXlizbsJ6+UXLpvB7g
ZEq8IW/a9ruW0v5Pe6ajCN5XbL8bLV7Djrh1BBvXwSlH2r4dK82sDl8ELNqE4KWi
Uahg/TJfzx7etxCIa50LBerJ40XiL7TAMxTGQFzSsASjcO1ry8DKUEaky55ZlYr6
HQIDAQABo4IBYzCCAV8wCQYDVR0TBAIwADAtBglghkgBhvhCAQ0EIBYeRWFzeS1S
U0EgR2VuZXJhdGVkIENlcnRpZmljYXRlMB0GA1UdDgQWBBQqqtusvYfJkjEauNyy
iqPCrutaVDCB4QYDVR0jBIHZMIHWgBQSzWAE0qCAnnDtxpm4eyzGUv0ZoaGBsqSB
rzCBrDELMAkGA1UEBhMCVVMxCzAJBgNVBAgTAk9IMREwDwYDVQQHEwhDb2x1bWJ1
czESMBAGA1UEChMJVmlraW5nVlBOMR0wGwYDVQQLExRNeU9yZ2FuaXphdGlvbmFs
VW5pdDEVMBMGA1UEAxMMVmlraW5nVlBOIENBMRAwDgYDVQQpEwdFYXN5UlNBMSEw
HwYJKoZIhvcNAQkBFhJtZUBteWhvc3QubXlkb21haW6CCQDPNYXugL8qPjATBgNV
HSUEDDAKBggrBgEFBQcDAjALBgNVHQ8EBAMCB4AwDQYJKoZIhvcNAQELBQADggIB
ALMZ/sm66+9bYkZ23caipZAHrqmTUqpFYF/bndx+3NASP9AV0zEJD1rhpPE9opjm
Oyu5RF9yyTxkBYDqrGq4BF8pMI7yG+/o9xiImy4BXbqzq85NQEgt2/yh0/uY7ksg
5CJ7DZ5Axqg2eediPvjB+Kc01Da/2vCOHMivV4IQpqL4+q/MbbavEinsZGTu0+JU
zv8n9pb5vob4TVHWib249BXHqCS2uJfAw5QRPjufF1zk4WeT837Fl57EY08Ogxyy
jYSlNIYhs2bCP4YxngqS8QvWgDld9VsmQslUH3+6x3WlCJXXC90KX8PJMN2lTIo+
gP+CbJ1NWZJy8TQxgkrbPOap0mFSuuetL66wyjw4n+s+4OvVp36Bbs6q9nfLjquE
g6nMQoMeuh/B9drPyM6JMoj0VvCTEZLcf4lP5HaoRmOdXRQptQu+o/cZxBBsNalF
M/jJvUUtWyRiifOTbrFVdskPcSn4WTdsMYt0AS5BSl+Qi+R+dLQBPYd/3PA8lUSD
9McXfl2+oDj15c+nRtxE+4GUZKzVRJTV8iUnefgMFOVbej80hPGLjeuaSs1D0mmY
dwUFQuh5LNKtVKmWTj4BguY7WP4qjKYQAg1dQrxtb6yWixfI6zPJ3aIRfY0URqCU
SGsiYbwkjNCyJQXSc3p8iyjVnhD/NrOMIb0S6+yOkuXt
-----END CERTIFICATE-----
