Certificate:
    Data:
        Version: 3 (0x2)
        Serial Number: 12297 (0x3009)
    Signature Algorithm: sha256WithRSAEncryption
        Issuer: C=US, ST=OH, L=Columbus, O=VikingVPN, OU=MyOrganizationalUnit, CN=VikingVPN CA/name=EasyRSA/emailAddress=me@myhost.mydomain
        Validity
            Not Before: Dec 25 02:03:22 2017 GMT
            Not After : Dec 23 02:03:22 2027 GMT
        Subject: CN=Client3079Cert68280f
        Subject Public Key Info:
            Public Key Algorithm: rsaEncryption
                Public-Key: (4096 bit)
                Modulus:
                    00:bd:da:50:e7:95:59:2f:3a:09:3f:24:8f:31:f3:
                    35:62:b0:c4:0a:5e:b1:98:c6:37:90:0e:9d:be:d0:
                    92:9f:0d:54:db:a4:ba:74:6a:47:a3:18:ee:ca:6d:
                    72:be:7d:5a:8f:17:5a:d0:2b:f3:a9:6f:c1:bc:30:
                    6f:bb:59:26:f2:8a:f1:8e:99:5f:93:35:f2:49:a0:
                    56:26:f4:13:eb:cb:21:3b:f5:f3:27:15:b0:eb:a4:
                    bf:be:a3:6a:78:7c:9f:74:77:2c:62:18:ba:e7:05:
                    2e:97:66:e9:32:8d:a4:3f:a7:e0:d9:30:4f:3d:90:
                    8b:2f:b0:b1:1d:3d:f1:cc:88:14:72:92:fd:eb:eb:
                    3a:0b:6b:a9:a3:09:2e:94:1f:41:8a:db:26:9c:61:
                    26:b8:30:fd:3a:6f:41:18:a1:bf:43:e1:c6:6a:5c:
                    9f:ef:61:43:68:3d:d7:7a:e2:fd:73:70:27:06:3c:
                    9d:7a:73:d1:15:13:5b:38:67:9d:c3:60:c9:91:65:
                    b3:be:2e:2b:8f:14:24:63:e8:48:10:b5:d5:2a:e1:
                    9b:13:b2:16:69:c1:a9:bd:3e:56:c2:1f:b7:10:63:
                    d8:7e:59:ed:32:c7:59:3e:ff:05:fd:89:67:e7:3e:
                    45:80:b7:b8:b8:93:c4:81:ed:02:94:01:4f:dd:8c:
                    9b:0c:c5:91:cc:04:31:14:50:03:f4:95:5b:11:99:
                    bc:95:0a:0c:c7:52:fe:f9:50:55:c5:08:d6:59:27:
                    97:4a:76:cb:ba:da:ab:db:7b:8f:c1:a9:fc:fa:94:
                    1e:f5:bc:3c:72:99:83:67:34:87:75:99:ab:ce:ff:
                    60:d3:f7:b3:57:9b:e8:68:62:50:20:f9:c0:8f:05:
                    b6:91:91:ca:9c:9f:3f:30:07:8d:55:bb:71:8e:d9:
                    50:84:39:b3:eb:80:53:a8:e6:d4:1a:5b:cd:c0:31:
                    88:47:bf:6e:5f:6b:ab:05:a8:ed:38:f0:6b:e2:30:
                    9c:d4:30:36:1c:ea:1e:89:91:dc:b3:f3:c5:21:28:
                    1d:40:54:ce:d6:05:f5:c1:0f:11:28:bf:5f:76:a0:
                    d1:11:76:92:f2:9b:2c:d5:1c:a0:bc:66:d7:aa:f2:
                    33:c5:9e:f3:d7:f4:5b:e4:df:52:28:1f:f5:8c:c9:
                    37:89:86:ae:76:f1:df:a8:b7:99:78:a6:5f:44:ff:
                    a6:d6:b3:25:e7:a0:0b:f7:d9:a8:91:9e:44:0c:1c:
                    a2:27:98:ff:f1:a8:b7:6e:4c:6d:0f:c3:1e:86:58:
                    78:af:36:53:a1:86:0e:45:72:31:70:b2:42:2b:5a:
                    6b:d9:f2:4b:17:94:05:2f:0d:4c:25:91:4f:9a:1d:
                    6c:92:97
                Exponent: 65537 (0x10001)
        X509v3 extensions:
            X509v3 Basic Constraints: 
                CA:FALSE
            Netscape Comment: 
                Easy-RSA Generated Certificate
            X509v3 Subject Key Identifier: 
                0A:36:A9:8A:A6:E2:F6:A3:09:1C:A0:05:88:44:0B:44:3A:E2:50:CA
            X509v3 Authority Key Identifier: 
                keyid:12:CD:60:04:D2:A0:80:9E:70:ED:C6:99:B8:7B:2C:C6:52:FD:19:A1
                DirName:/C=US/ST=OH/L=Columbus/O=VikingVPN/OU=MyOrganizationalUnit/CN=VikingVPN CA/name=EasyRSA/emailAddress=me@myhost.mydomain
                serial:CF:35:85:EE:80:BF:2A:3E

            X509v3 Extended Key Usage: 
                TLS Web Client Authentication
            X509v3 Key Usage: 
                Digital Signature
    Signature Algorithm: sha256WithRSAEncryption
         04:2d:7a:9c:6a:38:87:76:8d:fa:b4:5e:7a:54:73:87:16:a9:
         da:33:d0:46:58:1c:54:b9:c1:0c:88:d2:a3:69:38:07:ed:9e:
         f4:8f:58:ed:d5:24:3d:f6:69:a2:66:6d:26:4d:a4:86:a9:6f:
         65:0e:20:92:6c:5c:a1:6b:b7:d7:2e:db:3f:fb:0d:08:ae:55:
         f8:8e:e9:62:bd:fb:58:79:16:ba:fd:34:0f:f3:75:12:07:c1:
         76:dc:f2:c3:f1:a2:c4:bb:d1:0f:be:26:39:b5:ae:86:61:97:
         3d:18:8b:8d:c5:48:6b:b3:18:08:dc:0f:af:70:fa:d7:f5:06:
         29:98:dc:2b:77:27:11:62:bb:b1:2b:1e:4f:df:ef:2f:6e:3b:
         0f:dc:82:17:45:ed:a4:1b:13:1f:8e:7d:1d:a4:04:c7:6e:d3:
         a7:55:8d:f0:ca:60:62:5c:2c:be:1f:71:50:91:a0:a5:97:24:
         c8:ed:95:97:75:20:fd:4e:00:d9:eb:be:8f:24:dd:9a:7c:bf:
         45:64:0f:39:de:9e:f0:3b:18:e9:4b:00:ce:90:77:64:b4:ff:
         b2:f9:32:6e:22:41:0e:ac:80:4f:62:ca:4b:c1:e6:88:44:72:
         30:10:15:1b:51:f7:1c:94:a7:de:54:b4:c5:51:37:13:a5:e4:
         e8:21:62:c4:b2:1b:aa:8e:3e:1e:b7:da:c9:f2:83:5f:6a:b2:
         b6:9b:e6:55:33:cd:7f:0d:27:df:c4:3f:c0:e7:03:1c:2b:56:
         f7:7a:6d:3a:69:cf:36:c7:a0:56:c0:d2:6c:f0:a7:71:28:a6:
         0c:eb:3c:22:1e:77:9c:52:65:fb:e6:41:3b:f0:2b:eb:9a:27:
         cc:e5:02:93:c3:88:8c:41:66:31:8f:56:d1:d0:3a:9b:33:61:
         32:06:68:cc:7b:6b:0d:ee:b4:e3:e9:5a:fc:99:a5:35:cd:93:
         37:c1:35:12:3e:62:57:89:51:01:05:f9:39:5e:c2:6c:13:bf:
         3f:32:d2:e9:b4:a0:e2:e7:3f:21:c2:51:b9:c3:62:a0:30:b5:
         a6:d3:8e:2b:51:42:02:3d:90:8e:c2:49:53:f1:b0:bc:4e:88:
         bc:86:f1:71:1f:25:9d:b9:de:d8:47:62:ec:8b:b8:8b:33:f2:
         1c:e8:f2:72:dc:76:9d:4e:88:24:49:4c:1d:f2:dc:3e:5c:69:
         0f:cc:2e:43:a3:39:2d:d5:19:27:fa:bf:42:60:ca:95:25:ee:
         84:ed:30:f1:27:a1:86:7a:94:32:0e:0b:af:d9:ec:1c:fc:90:
         b5:3a:0f:5f:fc:66:b7:07:4d:17:0c:f0:5e:1b:00:7a:aa:8f:
         56:3a:d6:3a:11:4f:84:96
-----BEGIN CERTIFICATE-----
MIIGrTCCBJWgAwIBAgICMAkwDQYJKoZIhvcNAQELBQAwgawxCzAJBgNVBAYTAlVT
MQswCQYDVQQIEwJPSDERMA8GA1UEBxMIQ29sdW1idXMxEjAQBgNVBAoTCVZpa2lu
Z1ZQTjEdMBsGA1UECxMUTXlPcmdhbml6YXRpb25hbFVuaXQxFTATBgNVBAMTDFZp
a2luZ1ZQTiBDQTEQMA4GA1UEKRMHRWFzeVJTQTEhMB8GCSqGSIb3DQEJARYSbWVA
bXlob3N0Lm15ZG9tYWluMB4XDTE3MTIyNTAyMDMyMloXDTI3MTIyMzAyMDMyMlow
HzEdMBsGA1UEAxMUQ2xpZW50MzA3OUNlcnQ2ODI4MGYwggIiMA0GCSqGSIb3DQEB
AQUAA4ICDwAwggIKAoICAQC92lDnlVkvOgk/JI8x8zVisMQKXrGYxjeQDp2+0JKf
DVTbpLp0akejGO7KbXK+fVqPF1rQK/Opb8G8MG+7WSbyivGOmV+TNfJJoFYm9BPr
yyE79fMnFbDrpL++o2p4fJ90dyxiGLrnBS6XZukyjaQ/p+DZME89kIsvsLEdPfHM
iBRykv3r6zoLa6mjCS6UH0GK2yacYSa4MP06b0EYob9D4cZqXJ/vYUNoPdd64v1z
cCcGPJ16c9EVE1s4Z53DYMmRZbO+LiuPFCRj6EgQtdUq4ZsTshZpwam9PlbCH7cQ
Y9h+We0yx1k+/wX9iWfnPkWAt7i4k8SB7QKUAU/djJsMxZHMBDEUUAP0lVsRmbyV
CgzHUv75UFXFCNZZJ5dKdsu62qvbe4/Bqfz6lB71vDxymYNnNId1mavO/2DT97NX
m+hoYlAg+cCPBbaRkcqcnz8wB41Vu3GO2VCEObPrgFOo5tQaW83AMYhHv25fa6sF
qO048GviMJzUMDYc6h6Jkdyz88UhKB1AVM7WBfXBDxEov192oNERdpLymyzVHKC8
Zteq8jPFnvPX9Fvk31IoH/WMyTeJhq528d+ot5l4pl9E/6bWsyXnoAv32aiRnkQM
HKInmP/xqLduTG0Pwx6GWHivNlOhhg5FcjFwskIrWmvZ8ksXlAUvDUwlkU+aHWyS
lwIDAQABo4IBYzCCAV8wCQYDVR0TBAIwADAtBglghkgBhvhCAQ0EIBYeRWFzeS1S
U0EgR2VuZXJhdGVkIENlcnRpZmljYXRlMB0GA1UdDgQWBBQKNqmKpuL2owkcoAWI
RAtEOuJQyjCB4QYDVR0jBIHZMIHWgBQSzWAE0qCAnnDtxpm4eyzGUv0ZoaGBsqSB
rzCBrDELMAkGA1UEBhMCVVMxCzAJBgNVBAgTAk9IMREwDwYDVQQHEwhDb2x1bWJ1
czESMBAGA1UEChMJVmlraW5nVlBOMR0wGwYDVQQLExRNeU9yZ2FuaXphdGlvbmFs
VW5pdDEVMBMGA1UEAxMMVmlraW5nVlBOIENBMRAwDgYDVQQpEwdFYXN5UlNBMSEw
HwYJKoZIhvcNAQkBFhJtZUBteWhvc3QubXlkb21haW6CCQDPNYXugL8qPjATBgNV
HSUEDDAKBggrBgEFBQcDAjALBgNVHQ8EBAMCB4AwDQYJKoZIhvcNAQELBQADggIB
AAQtepxqOId2jfq0XnpUc4cWqdoz0EZYHFS5wQyI0qNpOAftnvSPWO3VJD32aaJm
bSZNpIapb2UOIJJsXKFrt9cu2z/7DQiuVfiO6WK9+1h5Frr9NA/zdRIHwXbc8sPx
osS70Q++Jjm1roZhlz0Yi43FSGuzGAjcD69w+tf1BimY3Ct3JxFiu7ErHk/f7y9u
Ow/cghdF7aQbEx+OfR2kBMdu06dVjfDKYGJcLL4fcVCRoKWXJMjtlZd1IP1OANnr
vo8k3Zp8v0VkDznenvA7GOlLAM6Qd2S0/7L5Mm4iQQ6sgE9iykvB5ohEcjAQFRtR
9xyUp95UtMVRNxOl5OghYsSyG6qOPh632snyg19qsrab5lUzzX8NJ9/EP8DnAxwr
Vvd6bTppzzbHoFbA0mzwp3EopgzrPCIed5xSZfvmQTvwK+uaJ8zlApPDiIxBZjGP
VtHQOpszYTIGaMx7aw3utOPpWvyZpTXNkzfBNRI+YleJUQEF+TlewmwTvz8y0um0
oOLnPyHCUbnDYqAwtabTjitRQgI9kI7CSVPxsLxOiLyG8XEfJZ253thHYuyLuIsz
8hzo8nLcdp1OiCRJTB3y3D5caQ/MLkOjOS3VGSf6v0JgypUl7oTtMPEnoYZ6lDIO
C6/Z7Bz8kLU6D1/8ZrcHTRcM8F4bAHqqj1Y61joRT4SW
-----END CERTIFICATE-----
