Certificate:
    Data:
        Version: 3 (0x2)
        Serial Number: 12301 (0x300d)
    Signature Algorithm: sha256WithRSAEncryption
        Issuer: C=US, ST=OH, L=Columbus, O=VikingVPN, OU=MyOrganizationalUnit, CN=VikingVPN CA/name=EasyRSA/emailAddress=me@myhost.mydomain
        Validity
            Not Before: Dec 26 23:55:16 2017 GMT
            Not After : Dec 24 23:55:16 2027 GMT
        Subject: CN=Client1929Cert645220
        Subject Public Key Info:
            Public Key Algorithm: rsaEncryption
                Public-Key: (4096 bit)
                Modulus:
                    00:d8:6d:dc:4d:cb:12:5d:91:78:2f:0f:d1:f6:7c:
                    dc:2e:b3:e2:d8:f8:11:cd:a1:cc:6c:6e:f2:bc:0c:
                    43:eb:2d:5c:73:89:b5:7f:e5:00:c0:b4:6e:da:5a:
                    88:26:c3:8b:39:f7:54:e8:0e:fb:9c:52:1e:51:f7:
                    47:f0:a4:de:a7:24:03:df:ae:06:97:e7:1b:68:36:
                    aa:47:d1:83:3e:4b:af:2f:6f:6a:c4:1f:1e:06:5e:
                    18:3d:07:8c:de:6e:e8:62:3b:f1:4b:e3:e8:a7:f3:
                    99:6d:c2:1f:91:bd:f9:23:fb:a8:9c:79:b3:f2:b8:
                    a2:09:06:33:24:41:cf:5a:61:7a:fc:12:5d:d5:26:
                    7e:e3:2c:37:0f:2c:a2:95:95:9b:b3:86:64:3b:f6:
                    35:dd:0e:e1:91:d1:7a:59:4f:15:2e:0e:a9:da:0a:
                    d9:7a:6e:23:eb:07:02:42:7c:6a:5e:30:e8:7b:51:
                    26:8a:62:f4:ed:81:e9:5f:ba:08:46:7b:84:86:62:
                    a5:bc:6f:79:4c:94:d2:d9:95:4d:42:c9:5f:b9:25:
                    45:61:07:d5:a1:c9:4f:56:78:e7:c6:a1:94:c9:97:
                    06:a0:c3:7b:df:08:19:9f:84:e6:5a:10:ca:b3:5b:
                    bd:f1:d1:ea:3d:55:f5:e7:2e:2a:d9:59:65:99:14:
                    b7:4f:6c:67:fc:05:48:90:3b:44:ec:66:a4:19:cd:
                    f3:83:44:35:b8:e1:71:bc:fc:63:02:27:ee:eb:bb:
                    ee:f7:f5:65:16:54:56:76:a5:63:a4:de:c2:2c:1a:
                    14:85:75:f6:d6:1b:ab:aa:25:78:b7:0e:12:5b:bc:
                    6d:85:95:f9:a7:1e:d3:00:d6:d7:67:4d:2e:e9:92:
                    44:18:02:ee:89:1f:6f:50:d1:aa:a6:95:fd:9d:54:
                    4f:1b:c0:c8:b1:0a:70:30:e8:77:fa:af:bc:29:3d:
                    96:25:83:16:d2:96:d5:27:21:5c:9b:5b:e8:6b:15:
                    ee:0c:9f:5d:2b:e0:3c:e4:e8:00:cb:e3:e9:02:18:
                    31:4c:e1:07:ef:48:ab:38:39:ed:9e:9d:df:30:48:
                    9a:83:21:d0:77:af:c7:11:93:40:ee:ae:b9:e5:3f:
                    22:00:c9:ab:4b:38:5b:aa:31:6b:1b:3a:8c:15:14:
                    df:2b:80:c6:81:b8:69:1f:12:1e:ec:3e:47:e3:15:
                    26:ed:c4:16:5c:16:c2:48:81:f4:14:b4:be:7a:b2:
                    8d:a2:9d:0f:c8:84:29:b3:61:28:9f:d5:17:fe:1e:
                    2a:5d:60:5c:64:36:a4:29:08:ea:c6:18:f2:88:d7:
                    18:e6:e6:7d:47:d0:05:c8:14:45:30:92:7a:c3:af:
                    6c:a9:8d
                Exponent: 65537 (0x10001)
        X509v3 extensions:
            X509v3 Basic Constraints: 
                CA:FALSE
            Netscape Comment: 
                Easy-RSA Generated Certificate
            X509v3 Subject Key Identifier: 
                F5:66:9E:F3:6C:10:BF:F6:89:87:BF:EA:E3:E6:F5:36:F3:5B:53:0A
            X509v3 Authority Key Identifier: 
                keyid:12:CD:60:04:D2:A0:80:9E:70:ED:C6:99:B8:7B:2C:C6:52:FD:19:A1
                DirName:/C=US/ST=OH/L=Columbus/O=VikingVPN/OU=MyOrganizationalUnit/CN=VikingVPN CA/name=EasyRSA/emailAddress=me@myhost.mydomain
                serial:CF:35:85:EE:80:BF:2A:3E

            X509v3 Extended Key Usage: 
                TLS Web Client Authentication
            X509v3 Key Usage: 
                Digital Signature
    Signature Algorithm: sha256WithRSAEncryption
         8d:59:d7:8d:03:1b:1d:a8:a6:57:57:19:df:d5:54:a0:89:f7:
         a2:03:95:30:39:1d:e0:23:db:25:30:72:8d:d1:a5:08:4b:4d:
         45:4c:4c:f8:73:44:36:81:98:7c:83:11:8a:b1:11:db:82:44:
         5a:2e:46:e3:a8:48:21:b5:09:d2:54:31:7e:80:8d:a3:d5:8f:
         e1:9c:b4:ee:4b:6f:7c:5b:b8:77:e7:3c:b0:fe:e5:58:e6:cd:
         5f:50:e9:1c:c6:a6:4a:74:69:4d:02:73:51:cf:e0:93:18:28:
         c3:c3:77:4f:36:74:df:1b:52:10:4f:22:78:0e:5e:8d:9e:3f:
         6c:e7:3b:94:ca:a7:5e:d4:73:fc:d9:5f:5f:6e:5a:81:69:cb:
         e5:a6:4b:c1:a6:3f:f9:0b:e1:8f:9a:bc:c0:e9:c4:8e:4d:bf:
         d3:82:6a:ae:6e:1e:15:0c:34:f0:e3:da:e3:99:c4:24:d8:9f:
         82:50:63:97:14:a9:ab:5a:c5:5e:fc:3f:f1:00:e8:f5:71:fb:
         8a:80:52:94:72:94:6b:b0:b5:cc:25:ed:55:52:a9:f0:5d:cb:
         8f:7f:f1:f8:8c:a8:26:29:aa:13:5c:5e:9b:82:8e:1c:05:6a:
         37:86:39:ef:e7:2b:3a:da:99:9a:a1:11:b0:36:cd:85:a5:a1:
         99:47:8c:4b:ad:b2:c6:62:9c:11:76:df:ad:b8:39:5b:94:03:
         c6:7d:19:20:87:39:18:ba:ff:79:0c:b9:24:8a:35:a2:e3:2b:
         55:8a:af:a1:54:8d:ef:8d:de:51:bc:19:c6:bf:86:a7:7f:13:
         6b:77:bc:97:42:0d:a2:af:b7:8d:b4:f4:87:2d:43:8d:82:4e:
         f0:c6:52:50:d4:9d:0f:f8:c6:18:37:ed:79:c7:33:3b:d1:8c:
         ef:5f:46:f5:3e:03:db:87:85:06:d9:cc:40:8e:fc:b5:c6:cd:
         4a:cb:a9:2a:31:6d:0b:20:ae:7b:ce:b4:40:d1:e7:08:28:4b:
         f6:3a:10:e9:e8:61:f8:11:49:07:3c:d7:ef:d3:2d:6a:47:6b:
         5e:6e:db:a1:4b:08:e2:94:ca:ac:fd:99:51:26:b4:43:95:63:
         b9:f9:32:72:fa:c9:dc:7d:d8:59:d6:7f:0e:df:4f:7f:21:57:
         aa:37:37:58:12:41:0b:39:9a:cc:4d:86:22:87:2d:3a:20:b0:
         d0:ac:fb:1d:18:4a:7b:93:0f:02:a1:33:48:72:83:36:c9:28:
         86:06:5a:15:37:74:38:1c:dd:82:e9:4d:bc:ee:15:90:7e:55:
         ce:e0:25:0a:44:5f:b9:80:d0:f9:00:c8:b7:72:d8:d7:37:41:
         2b:85:69:28:db:86:d5:0b
-----BEGIN CERTIFICATE-----
MIIGrTCCBJWgAwIBAgICMA0wDQYJKoZIhvcNAQELBQAwgawxCzAJBgNVBAYTAlVT
MQswCQYDVQQIEwJPSDERMA8GA1UEBxMIQ29sdW1idXMxEjAQBgNVBAoTCVZpa2lu
Z1ZQTjEdMBsGA1UECxMUTXlPcmdhbml6YXRpb25hbFVuaXQxFTATBgNVBAMTDFZp
a2luZ1ZQTiBDQTEQMA4GA1UEKRMHRWFzeVJTQTEhMB8GCSqGSIb3DQEJARYSbWVA
bXlob3N0Lm15ZG9tYWluMB4XDTE3MTIyNjIzNTUxNloXDTI3MTIyNDIzNTUxNlow
HzEdMBsGA1UEAxMUQ2xpZW50MTkyOUNlcnQ2NDUyMjAwggIiMA0GCSqGSIb3DQEB
AQUAA4ICDwAwggIKAoICAQDYbdxNyxJdkXgvD9H2fNwus+LY+BHNocxsbvK8DEPr
LVxzibV/5QDAtG7aWogmw4s591ToDvucUh5R90fwpN6nJAPfrgaX5xtoNqpH0YM+
S68vb2rEHx4GXhg9B4zebuhiO/FL4+in85ltwh+Rvfkj+6icebPyuKIJBjMkQc9a
YXr8El3VJn7jLDcPLKKVlZuzhmQ79jXdDuGR0XpZTxUuDqnaCtl6biPrBwJCfGpe
MOh7USaKYvTtgelfughGe4SGYqW8b3lMlNLZlU1CyV+5JUVhB9WhyU9WeOfGoZTJ
lwagw3vfCBmfhOZaEMqzW73x0eo9VfXnLirZWWWZFLdPbGf8BUiQO0TsZqQZzfOD
RDW44XG8/GMCJ+7ru+739WUWVFZ2pWOk3sIsGhSFdfbWG6uqJXi3DhJbvG2Flfmn
HtMA1tdnTS7pkkQYAu6JH29Q0aqmlf2dVE8bwMixCnAw6Hf6r7wpPZYlgxbSltUn
IVybW+hrFe4Mn10r4Dzk6ADL4+kCGDFM4QfvSKs4Oe2end8wSJqDIdB3r8cRk0Du
rrnlPyIAyatLOFuqMWsbOowVFN8rgMaBuGkfEh7sPkfjFSbtxBZcFsJIgfQUtL56
so2inQ/IhCmzYSif1Rf+HipdYFxkNqQpCOrGGPKI1xjm5n1H0AXIFEUwknrDr2yp
jQIDAQABo4IBYzCCAV8wCQYDVR0TBAIwADAtBglghkgBhvhCAQ0EIBYeRWFzeS1S
U0EgR2VuZXJhdGVkIENlcnRpZmljYXRlMB0GA1UdDgQWBBT1Zp7zbBC/9omHv+rj
5vU281tTCjCB4QYDVR0jBIHZMIHWgBQSzWAE0qCAnnDtxpm4eyzGUv0ZoaGBsqSB
rzCBrDELMAkGA1UEBhMCVVMxCzAJBgNVBAgTAk9IMREwDwYDVQQHEwhDb2x1bWJ1
czESMBAGA1UEChMJVmlraW5nVlBOMR0wGwYDVQQLExRNeU9yZ2FuaXphdGlvbmFs
VW5pdDEVMBMGA1UEAxMMVmlraW5nVlBOIENBMRAwDgYDVQQpEwdFYXN5UlNBMSEw
HwYJKoZIhvcNAQkBFhJtZUBteWhvc3QubXlkb21haW6CCQDPNYXugL8qPjATBgNV
HSUEDDAKBggrBgEFBQcDAjALBgNVHQ8EBAMCB4AwDQYJKoZIhvcNAQELBQADggIB
AI1Z140DGx2opldXGd/VVKCJ96IDlTA5HeAj2yUwco3RpQhLTUVMTPhzRDaBmHyD
EYqxEduCRFouRuOoSCG1CdJUMX6AjaPVj+GctO5Lb3xbuHfnPLD+5VjmzV9Q6RzG
pkp0aU0Cc1HP4JMYKMPDd082dN8bUhBPIngOXo2eP2znO5TKp17Uc/zZX19uWoFp
y+WmS8GmP/kL4Y+avMDpxI5Nv9OCaq5uHhUMNPDj2uOZxCTYn4JQY5cUqataxV78
P/EA6PVx+4qAUpRylGuwtcwl7VVSqfBdy49/8fiMqCYpqhNcXpuCjhwFajeGOe/n
KzramZqhEbA2zYWloZlHjEutssZinBF23624OVuUA8Z9GSCHORi6/3kMuSSKNaLj
K1WKr6FUje+N3lG8Gca/hqd/E2t3vJdCDaKvt4209IctQ42CTvDGUlDUnQ/4xhg3
7XnHMzvRjO9fRvU+A9uHhQbZzECO/LXGzUrLqSoxbQsgrnvOtEDR5wgoS/Y6EOno
YfgRSQc81+/TLWpHa15u26FLCOKUyqz9mVEmtEOVY7n5MnL6ydx92FnWfw7fT38h
V6o3N1gSQQs5msxNhiKHLTogsNCs+x0YSnuTDwKhM0hygzbJKIYGWhU3dDgc3YLp
TbzuFZB+Vc7gJQpEX7mA0PkAyLdy2Nc3QSuFaSjbhtUL
-----END CERTIFICATE-----
