Certificate:
    Data:
        Version: 3 (0x2)
        Serial Number: 12304 (0x3010)
    Signature Algorithm: sha256WithRSAEncryption
        Issuer: C=US, ST=OH, L=Columbus, O=VikingVPN, OU=MyOrganizationalUnit, CN=VikingVPN CA/name=EasyRSA/emailAddress=me@myhost.mydomain
        Validity
            Not Before: Dec 27 03:25:34 2017 GMT
            Not After : Dec 25 03:25:34 2027 GMT
        Subject: CN=Client3187Cert12a500
        Subject Public Key Info:
            Public Key Algorithm: rsaEncryption
                Public-Key: (4096 bit)
                Modulus:
                    00:b4:94:03:92:6f:06:d6:5e:a4:08:69:3a:fd:76:
                    d5:de:1c:a4:31:e9:0f:cb:91:09:09:8c:68:25:10:
                    af:d6:8e:91:30:d5:80:4d:77:8a:eb:02:4c:af:28:
                    55:5f:0d:97:65:21:1f:9f:e1:5c:de:43:d3:25:d8:
                    e2:cf:f8:cf:e7:03:8b:10:a4:5c:45:de:f6:bb:25:
                    0f:1d:0a:f3:d7:5f:3f:59:e9:2b:42:22:d9:02:93:
                    90:55:35:d2:c6:78:2f:69:05:cf:45:c4:ed:e5:d3:
                    59:e8:71:bb:2f:37:10:19:de:6e:24:e6:76:55:51:
                    67:a3:3b:13:50:9d:de:2e:5d:f1:49:f0:6f:0d:f3:
                    0b:ce:b1:76:b8:49:e5:80:0a:bf:d7:c4:59:d2:bc:
                    c9:34:ea:0a:56:4c:ed:c6:c3:02:a9:8e:d0:b2:44:
                    e9:0c:88:c9:c6:b6:b2:33:e5:a9:18:f2:88:45:23:
                    9f:f4:4f:4f:04:51:66:d9:23:c1:ae:bd:ee:39:30:
                    a8:02:dd:d7:25:f9:8d:fd:88:e5:6d:a1:12:d9:a1:
                    37:ce:1f:b2:c6:e6:e2:c6:4d:45:43:3a:05:91:15:
                    79:db:17:a9:98:c1:4f:2e:de:fc:70:03:28:30:ee:
                    8e:0d:64:12:3a:6b:5b:3e:f1:5e:a5:30:6c:c5:cb:
                    8c:76:e6:11:5e:51:30:38:b9:d8:14:d2:6c:f4:63:
                    a4:fe:0e:df:83:a7:b9:23:ed:67:48:15:a4:40:da:
                    a3:6b:a7:1a:63:91:f7:d4:73:3a:db:3b:d7:5d:b9:
                    ed:95:c6:cb:b4:b8:c4:7f:ab:21:8a:da:fe:25:40:
                    c7:48:68:9f:0c:0b:d4:86:16:7e:4c:99:34:58:14:
                    2d:57:f2:8c:20:4e:db:fa:ee:bc:fd:41:82:14:0e:
                    12:33:a1:0c:7f:5f:e9:71:e9:57:9a:4c:62:13:bb:
                    32:3a:e0:0d:9f:d4:67:6d:49:cd:d3:38:19:02:6b:
                    57:ab:c7:90:a1:1a:13:44:86:60:64:e6:13:a5:64:
                    ef:83:03:46:d8:a8:1c:b5:d9:cf:7d:77:0e:cd:0e:
                    b7:87:a8:9d:d5:99:94:b4:f7:5f:0d:0a:dc:80:01:
                    de:db:08:58:9f:0c:1d:32:6f:70:02:a3:1b:91:1b:
                    1e:f6:a1:54:a5:d8:39:ed:d2:60:76:d8:38:ee:cc:
                    a4:74:27:16:06:7a:38:15:bb:73:06:bd:11:60:7f:
                    31:3c:7a:52:12:c6:a6:31:e4:56:5e:11:9f:72:7d:
                    5c:95:73:5e:0a:ac:01:47:b7:bc:5d:d5:aa:73:e0:
                    56:df:23:28:85:cf:55:e6:72:4b:ac:a7:06:e3:18:
                    f6:5b:b5
                Exponent: 65537 (0x10001)
        X509v3 extensions:
            X509v3 Basic Constraints: 
                CA:FALSE
            Netscape Comment: 
                Easy-RSA Generated Certificate
            X509v3 Subject Key Identifier: 
                E1:9C:01:81:C8:64:AE:E0:8F:84:4D:3B:BA:5D:A8:16:FD:4F:0C:D6
            X509v3 Authority Key Identifier: 
                keyid:12:CD:60:04:D2:A0:80:9E:70:ED:C6:99:B8:7B:2C:C6:52:FD:19:A1
                DirName:/C=US/ST=OH/L=Columbus/O=VikingVPN/OU=MyOrganizationalUnit/CN=VikingVPN CA/name=EasyRSA/emailAddress=me@myhost.mydomain
                serial:CF:35:85:EE:80:BF:2A:3E

            X509v3 Extended Key Usage: 
                TLS Web Client Authentication
            X509v3 Key Usage: 
                Digital Signature
    Signature Algorithm: sha256WithRSAEncryption
         4f:d5:cb:a4:dc:80:fc:b0:f3:6f:b4:38:7e:04:9b:ff:e3:ea:
         08:85:5b:f9:13:fc:42:16:93:31:5c:da:37:01:98:56:18:5e:
         82:db:66:f5:b8:b3:98:ee:3c:ee:fe:98:63:ba:38:3d:1d:de:
         b8:93:d7:ff:7b:7a:08:69:3d:30:e3:eb:ef:a5:59:0d:63:dc:
         a8:fb:61:4b:50:1f:b8:27:3d:b1:4e:eb:ca:01:bb:0e:38:4a:
         7e:4f:fb:2b:2c:7e:fb:ba:8a:33:c9:3a:e9:cf:59:15:23:1f:
         d4:57:d3:a2:47:3c:67:f3:f6:20:db:a7:29:66:8a:72:65:c1:
         b3:5b:14:c0:5d:14:ce:cc:2c:2d:ae:2a:97:d8:7b:cd:b0:76:
         a6:20:b8:fa:0b:98:2d:2d:00:fc:05:6c:a5:3a:26:20:d9:95:
         7b:3f:c5:44:37:21:c8:3e:dd:f4:6a:86:ff:ac:02:93:94:25:
         63:f0:c3:7a:f7:70:c6:7b:a7:2b:7f:a3:f4:6d:e8:3f:58:39:
         d1:d0:91:fd:93:34:46:09:ed:90:bc:18:00:b4:72:e4:22:6f:
         d5:11:1e:69:2c:b7:9d:8c:55:19:d6:75:5f:74:c8:da:40:92:
         fc:6c:92:d9:84:2e:ac:c1:43:c6:e3:d0:95:78:6b:51:00:10:
         9b:0a:4b:54:e5:12:b4:b1:8e:7b:28:5e:fc:0e:b3:9e:b4:98:
         ec:b9:ea:36:4a:5d:fe:83:67:e6:ca:e8:90:48:6d:d0:01:a2:
         db:2b:15:7d:5e:89:7b:06:9d:69:9a:d5:fd:1d:60:c7:f3:d7:
         2d:e5:e4:9d:b1:c6:14:04:f8:9b:d0:57:27:1a:6c:72:eb:22:
         95:57:68:aa:cc:79:01:f9:cf:b1:31:08:88:1e:17:df:a5:37:
         0b:7a:ad:22:1e:11:8b:f0:44:2d:bd:52:4b:19:53:4f:e0:79:
         db:70:57:b2:eb:19:f7:94:73:aa:61:b5:2f:a7:2e:9e:6c:b2:
         f8:f7:ab:1c:d8:74:92:32:2c:dc:96:42:7a:27:e4:5f:b0:74:
         04:23:38:ac:de:56:ab:e2:01:98:3f:e5:1b:4e:55:a4:78:00:
         65:25:a1:3f:f9:d2:d0:ab:b5:b1:e4:33:f5:e7:95:e8:b2:4c:
         9d:30:9d:66:54:fe:1d:0e:91:33:45:59:f3:90:1e:7f:63:35:
         03:31:7c:23:6b:82:fd:06:84:2f:cd:4f:69:1a:7d:ef:38:62:
         df:1c:8e:bc:83:4c:59:7d:e9:21:fb:d1:ad:2a:4c:fd:b6:a3:
         56:8a:18:28:1c:74:b1:a2:e1:48:d1:95:0c:f2:37:10:88:c1:
         a1:b7:cd:7f:32:fb:f0:ca
-----BEGIN CERTIFICATE-----
MIIGrTCCBJWgAwIBAgICMBAwDQYJKoZIhvcNAQELBQAwgawxCzAJBgNVBAYTAlVT
MQswCQYDVQQIEwJPSDERMA8GA1UEBxMIQ29sdW1idXMxEjAQBgNVBAoTCVZpa2lu
Z1ZQTjEdMBsGA1UECxMUTXlPcmdhbml6YXRpb25hbFVuaXQxFTATBgNVBAMTDFZp
a2luZ1ZQTiBDQTEQMA4GA1UEKRMHRWFzeVJTQTEhMB8GCSqGSIb3DQEJARYSbWVA
bXlob3N0Lm15ZG9tYWluMB4XDTE3MTIyNzAzMjUzNFoXDTI3MTIyNTAzMjUzNFow
HzEdMBsGA1UEAxMUQ2xpZW50MzE4N0NlcnQxMmE1MDAwggIiMA0GCSqGSIb3DQEB
AQUAA4ICDwAwggIKAoICAQC0lAOSbwbWXqQIaTr9dtXeHKQx6Q/LkQkJjGglEK/W
jpEw1YBNd4rrAkyvKFVfDZdlIR+f4VzeQ9Ml2OLP+M/nA4sQpFxF3va7JQ8dCvPX
Xz9Z6StCItkCk5BVNdLGeC9pBc9FxO3l01nocbsvNxAZ3m4k5nZVUWejOxNQnd4u
XfFJ8G8N8wvOsXa4SeWACr/XxFnSvMk06gpWTO3GwwKpjtCyROkMiMnGtrIz5akY
8ohFI5/0T08EUWbZI8Guve45MKgC3dcl+Y39iOVtoRLZoTfOH7LG5uLGTUVDOgWR
FXnbF6mYwU8u3vxwAygw7o4NZBI6a1s+8V6lMGzFy4x25hFeUTA4udgU0mz0Y6T+
Dt+Dp7kj7WdIFaRA2qNrpxpjkffUczrbO9ddue2Vxsu0uMR/qyGK2v4lQMdIaJ8M
C9SGFn5MmTRYFC1X8owgTtv67rz9QYIUDhIzoQx/X+lx6VeaTGITuzI64A2f1Gdt
Sc3TOBkCa1erx5ChGhNEhmBk5hOlZO+DA0bYqBy12c99dw7NDreHqJ3VmZS0918N
CtyAAd7bCFifDB0yb3ACoxuRGx72oVSl2Dnt0mB22DjuzKR0JxYGejgVu3MGvRFg
fzE8elISxqYx5FZeEZ9yfVyVc14KrAFHt7xd1apz4FbfIyiFz1XmckuspwbjGPZb
tQIDAQABo4IBYzCCAV8wCQYDVR0TBAIwADAtBglghkgBhvhCAQ0EIBYeRWFzeS1S
U0EgR2VuZXJhdGVkIENlcnRpZmljYXRlMB0GA1UdDgQWBBThnAGByGSu4I+ETTu6
XagW/U8M1jCB4QYDVR0jBIHZMIHWgBQSzWAE0qCAnnDtxpm4eyzGUv0ZoaGBsqSB
rzCBrDELMAkGA1UEBhMCVVMxCzAJBgNVBAgTAk9IMREwDwYDVQQHEwhDb2x1bWJ1
czESMBAGA1UEChMJVmlraW5nVlBOMR0wGwYDVQQLExRNeU9yZ2FuaXphdGlvbmFs
VW5pdDEVMBMGA1UEAxMMVmlraW5nVlBOIENBMRAwDgYDVQQpEwdFYXN5UlNBMSEw
HwYJKoZIhvcNAQkBFhJtZUBteWhvc3QubXlkb21haW6CCQDPNYXugL8qPjATBgNV
HSUEDDAKBggrBgEFBQcDAjALBgNVHQ8EBAMCB4AwDQYJKoZIhvcNAQELBQADggIB
AE/Vy6TcgPyw82+0OH4Em//j6giFW/kT/EIWkzFc2jcBmFYYXoLbZvW4s5juPO7+
mGO6OD0d3riT1/97eghpPTDj6++lWQ1j3Kj7YUtQH7gnPbFO68oBuw44Sn5P+yss
fvu6ijPJOunPWRUjH9RX06JHPGfz9iDbpylminJlwbNbFMBdFM7MLC2uKpfYe82w
dqYguPoLmC0tAPwFbKU6JiDZlXs/xUQ3Icg+3fRqhv+sApOUJWPww3r3cMZ7pyt/
o/Rt6D9YOdHQkf2TNEYJ7ZC8GAC0cuQib9URHmkst52MVRnWdV90yNpAkvxsktmE
LqzBQ8bj0JV4a1EAEJsKS1TlErSxjnsoXvwOs560mOy56jZKXf6DZ+bK6JBIbdAB
otsrFX1eiXsGnWma1f0dYMfz1y3l5J2xxhQE+JvQVycabHLrIpVXaKrMeQH5z7Ex
CIgeF9+lNwt6rSIeEYvwRC29UksZU0/gedtwV7LrGfeUc6phtS+nLp5ssvj3qxzY
dJIyLNyWQnon5F+wdAQjOKzeVqviAZg/5RtOVaR4AGUloT/50tCrtbHkM/Xnleiy
TJ0wnWZU/h0OkTNFWfOQHn9jNQMxfCNrgv0GhC/NT2kafe84Yt8cjryDTFl96SH7
0a0qTP22o1aKGCgcdLGi4UjRlQzyNxCIwaG3zX8y+/DK
-----END CERTIFICATE-----
