Certificate:
    Data:
        Version: 3 (0x2)
        Serial Number: 12316 (0x301c)
    Signature Algorithm: sha256WithRSAEncryption
        Issuer: C=US, ST=OH, L=Columbus, O=VikingVPN, OU=MyOrganizationalUnit, CN=VikingVPN CA/name=EasyRSA/emailAddress=me@myhost.mydomain
        Validity
            Not Before: Dec 29 14:36:38 2017 GMT
            Not After : Dec 27 14:36:38 2027 GMT
        Subject: CN=Client3189Certb65e77
        Subject Public Key Info:
            Public Key Algorithm: rsaEncryption
                Public-Key: (4096 bit)
                Modulus:
                    00:bd:fd:a7:31:dd:3f:29:eb:89:5d:62:06:e1:57:
                    31:2b:0d:f3:22:cf:da:a1:17:1d:64:28:c9:0d:38:
                    e3:ea:17:28:6f:96:77:18:c6:d1:e8:5f:20:f7:19:
                    d4:36:c9:e4:7e:e5:89:e6:a0:58:4e:4d:bd:33:bb:
                    0a:65:86:37:3b:17:af:1a:6d:77:02:9f:8b:35:6a:
                    b5:ea:61:4f:50:2e:e7:0d:28:6a:81:16:43:74:02:
                    01:09:9b:6d:4b:83:a8:a6:e3:2c:e4:a8:5d:47:a1:
                    25:c7:26:e8:7b:13:f4:be:e2:79:2f:90:20:2c:ea:
                    da:50:ba:de:23:68:2f:45:af:ae:a5:15:cf:72:1c:
                    4a:78:cd:d8:9e:cc:e3:b4:88:da:23:0e:63:97:78:
                    21:a6:9f:75:c2:96:f2:35:eb:41:41:1e:b6:28:b6:
                    2d:6e:07:65:33:e6:84:d1:eb:03:f1:fa:45:91:ed:
                    50:2c:a1:85:96:4c:13:b6:db:09:a5:c7:8e:e7:d1:
                    6b:a3:60:b7:6d:50:67:40:a7:81:72:17:03:7b:c5:
                    48:a1:96:83:c5:e1:6b:79:a9:a5:37:22:cc:a3:60:
                    49:33:6a:f0:99:f7:35:91:ef:c1:52:ed:2e:18:c9:
                    aa:f7:24:3d:ba:49:83:fc:69:b4:3e:0c:ff:2f:5d:
                    5b:13:0f:65:47:ee:bc:e5:7e:7e:e7:63:c4:65:bc:
                    45:8b:d5:e7:d4:12:db:10:b4:05:fa:85:86:54:f0:
                    eb:e7:8d:81:e7:33:6d:8a:7c:1f:ab:e8:52:5b:6f:
                    84:2f:3a:38:bb:cb:30:38:b5:ee:da:25:7f:78:43:
                    ec:0a:67:f1:42:35:78:ce:fe:e8:c2:28:47:5c:2a:
                    f5:b4:43:ed:9d:ea:f6:5d:ff:9c:ae:f7:b5:98:05:
                    b0:57:63:53:6f:95:e1:9b:3f:0f:34:9b:08:07:29:
                    34:8e:83:d8:c6:df:60:e3:f5:e3:b2:7f:80:b9:cf:
                    7b:4e:70:d2:9e:d6:57:76:61:cd:35:95:92:2c:d8:
                    d5:ee:e2:c4:0e:fe:a7:b9:7a:ac:f9:71:0d:11:e4:
                    fc:e7:fd:31:4c:31:ab:93:88:78:40:05:7b:96:4e:
                    e8:7d:5d:6e:6a:0f:a0:f5:c9:d5:81:37:b2:ee:9b:
                    f3:5a:2e:9f:0d:e8:37:82:92:c4:b1:62:49:bd:7b:
                    47:d0:b5:19:27:bd:51:a9:6e:7c:2a:91:d2:16:6c:
                    65:ca:aa:60:31:cc:e7:bc:c2:25:c5:03:29:52:38:
                    06:0f:75:9a:18:1d:9d:8d:77:97:bc:c7:27:f4:0a:
                    4a:38:35:b8:69:4d:7b:af:c2:07:37:63:2d:17:e6:
                    bc:df:bd
                Exponent: 65537 (0x10001)
        X509v3 extensions:
            X509v3 Basic Constraints: 
                CA:FALSE
            Netscape Comment: 
                Easy-RSA Generated Certificate
            X509v3 Subject Key Identifier: 
                7A:0F:9A:A9:3C:13:E7:94:12:18:7D:5F:E6:4F:3B:5C:3D:D9:AB:A9
            X509v3 Authority Key Identifier: 
                keyid:12:CD:60:04:D2:A0:80:9E:70:ED:C6:99:B8:7B:2C:C6:52:FD:19:A1
                DirName:/C=US/ST=OH/L=Columbus/O=VikingVPN/OU=MyOrganizationalUnit/CN=VikingVPN CA/name=EasyRSA/emailAddress=me@myhost.mydomain
                serial:CF:35:85:EE:80:BF:2A:3E

            X509v3 Extended Key Usage: 
                TLS Web Client Authentication
            X509v3 Key Usage: 
                Digital Signature
    Signature Algorithm: sha256WithRSAEncryption
         54:ab:e0:64:cf:94:27:21:ae:58:22:c2:4e:9a:3b:9f:2a:0e:
         12:51:2f:44:61:f8:ae:19:9b:c1:19:12:fa:f3:4f:94:ba:b0:
         49:de:f4:90:f6:f1:34:49:93:8a:3b:a5:d9:bf:9f:5c:d3:dd:
         9d:9f:96:1e:cf:f1:c2:03:9c:da:9a:e5:91:99:73:84:76:4c:
         e9:46:3b:5c:e2:95:94:f5:85:b6:5e:45:44:2a:45:c3:03:11:
         fc:88:10:1d:db:9a:b4:df:98:97:6f:35:0a:08:d3:fc:17:35:
         31:b0:20:d0:58:df:7b:d4:c7:b7:8e:9d:55:70:99:c6:a3:11:
         f7:c1:ce:97:04:22:8e:90:69:3c:e7:d4:cc:87:c6:f3:a1:8b:
         6f:8d:fe:d8:7e:fe:e0:7a:23:a5:29:97:11:72:ac:33:24:68:
         67:38:7f:ce:8b:30:64:2b:30:a2:39:5a:44:65:1c:2c:59:69:
         2a:4c:14:f2:c5:59:3c:04:10:27:09:ea:c4:6b:4d:24:89:40:
         80:76:28:08:09:97:25:8a:a0:9b:1a:d4:e2:f5:cc:be:38:d2:
         6d:08:04:d0:b9:b1:c9:16:34:1c:38:c1:b0:fd:09:48:96:6c:
         8a:59:1e:ff:75:48:2e:76:43:45:68:00:bb:8d:c1:ba:07:6d:
         9a:2a:f5:3a:21:39:75:fe:63:4d:8b:b1:64:f2:64:b7:a4:b6:
         d8:80:27:f9:bb:8b:40:df:9c:1e:cb:d3:53:87:39:4f:b7:0c:
         81:76:f3:bd:cf:38:39:59:c5:64:d5:ff:18:30:89:e4:39:0a:
         f1:8a:24:ec:ba:29:94:c8:ef:76:41:0f:34:a7:38:27:22:db:
         2c:ba:02:08:c0:e9:b3:59:5a:6b:f1:24:31:b1:86:b0:5a:ef:
         07:ec:70:b9:6d:ea:1f:6e:b4:cb:ef:3e:d0:a7:26:88:94:32:
         eb:cf:43:ae:6b:22:d4:21:db:80:f1:29:3c:d6:7a:e3:9e:97:
         e1:37:46:f5:c3:65:03:65:2a:6a:e6:1e:22:3f:d0:89:80:e6:
         7d:d0:0d:9e:2d:42:12:2a:f4:88:d1:96:1b:42:5b:75:5a:42:
         08:6c:08:f5:3c:34:f9:aa:af:4f:d2:36:d7:3c:39:c7:ca:9d:
         94:06:92:1b:23:15:30:5a:33:f3:71:d9:53:8b:ad:75:ce:69:
         ef:fb:ba:80:1f:52:89:7d:25:41:66:73:0d:dd:75:9b:94:c4:
         5c:3c:36:df:b5:cc:6c:e9:a9:05:82:4c:de:04:44:65:36:f2:
         56:25:97:42:00:f3:38:3e:63:23:01:06:b6:4d:fd:39:eb:af:
         7b:b9:4d:e6:67:00:0a:77
-----BEGIN CERTIFICATE-----
MIIGrTCCBJWgAwIBAgICMBwwDQYJKoZIhvcNAQELBQAwgawxCzAJBgNVBAYTAlVT
MQswCQYDVQQIEwJPSDERMA8GA1UEBxMIQ29sdW1idXMxEjAQBgNVBAoTCVZpa2lu
Z1ZQTjEdMBsGA1UECxMUTXlPcmdhbml6YXRpb25hbFVuaXQxFTATBgNVBAMTDFZp
a2luZ1ZQTiBDQTEQMA4GA1UEKRMHRWFzeVJTQTEhMB8GCSqGSIb3DQEJARYSbWVA
bXlob3N0Lm15ZG9tYWluMB4XDTE3MTIyOTE0MzYzOFoXDTI3MTIyNzE0MzYzOFow
HzEdMBsGA1UEAxMUQ2xpZW50MzE4OUNlcnRiNjVlNzcwggIiMA0GCSqGSIb3DQEB
AQUAA4ICDwAwggIKAoICAQC9/acx3T8p64ldYgbhVzErDfMiz9qhFx1kKMkNOOPq
FyhvlncYxtHoXyD3GdQ2yeR+5YnmoFhOTb0zuwplhjc7F68abXcCn4s1arXqYU9Q
LucNKGqBFkN0AgEJm21Lg6im4yzkqF1HoSXHJuh7E/S+4nkvkCAs6tpQut4jaC9F
r66lFc9yHEp4zdiezOO0iNojDmOXeCGmn3XClvI160FBHrYoti1uB2Uz5oTR6wPx
+kWR7VAsoYWWTBO22wmlx47n0WujYLdtUGdAp4FyFwN7xUihloPF4Wt5qaU3Isyj
YEkzavCZ9zWR78FS7S4Yyar3JD26SYP8abQ+DP8vXVsTD2VH7rzlfn7nY8RlvEWL
1efUEtsQtAX6hYZU8OvnjYHnM22KfB+r6FJbb4QvOji7yzA4te7aJX94Q+wKZ/FC
NXjO/ujCKEdcKvW0Q+2d6vZd/5yu97WYBbBXY1NvleGbPw80mwgHKTSOg9jG32Dj
9eOyf4C5z3tOcNKe1ld2Yc01lZIs2NXu4sQO/qe5eqz5cQ0R5Pzn/TFMMauTiHhA
BXuWTuh9XW5qD6D1ydWBN7Lum/NaLp8N6DeCksSxYkm9e0fQtRknvVGpbnwqkdIW
bGXKqmAxzOe8wiXFAylSOAYPdZoYHZ2Nd5e8xyf0Cko4NbhpTXuvwgc3Yy0X5rzf
vQIDAQABo4IBYzCCAV8wCQYDVR0TBAIwADAtBglghkgBhvhCAQ0EIBYeRWFzeS1S
U0EgR2VuZXJhdGVkIENlcnRpZmljYXRlMB0GA1UdDgQWBBR6D5qpPBPnlBIYfV/m
TztcPdmrqTCB4QYDVR0jBIHZMIHWgBQSzWAE0qCAnnDtxpm4eyzGUv0ZoaGBsqSB
rzCBrDELMAkGA1UEBhMCVVMxCzAJBgNVBAgTAk9IMREwDwYDVQQHEwhDb2x1bWJ1
czESMBAGA1UEChMJVmlraW5nVlBOMR0wGwYDVQQLExRNeU9yZ2FuaXphdGlvbmFs
VW5pdDEVMBMGA1UEAxMMVmlraW5nVlBOIENBMRAwDgYDVQQpEwdFYXN5UlNBMSEw
HwYJKoZIhvcNAQkBFhJtZUBteWhvc3QubXlkb21haW6CCQDPNYXugL8qPjATBgNV
HSUEDDAKBggrBgEFBQcDAjALBgNVHQ8EBAMCB4AwDQYJKoZIhvcNAQELBQADggIB
AFSr4GTPlCchrlgiwk6aO58qDhJRL0Rh+K4Zm8EZEvrzT5S6sEne9JD28TRJk4o7
pdm/n1zT3Z2flh7P8cIDnNqa5ZGZc4R2TOlGO1zilZT1hbZeRUQqRcMDEfyIEB3b
mrTfmJdvNQoI0/wXNTGwINBY33vUx7eOnVVwmcajEffBzpcEIo6QaTzn1MyHxvOh
i2+N/th+/uB6I6UplxFyrDMkaGc4f86LMGQrMKI5WkRlHCxZaSpMFPLFWTwEECcJ
6sRrTSSJQIB2KAgJlyWKoJsa1OL1zL440m0IBNC5sckWNBw4wbD9CUiWbIpZHv91
SC52Q0VoALuNwboHbZoq9TohOXX+Y02LsWTyZLekttiAJ/m7i0DfnB7L01OHOU+3
DIF2873PODlZxWTV/xgwieQ5CvGKJOy6KZTI73ZBDzSnOCci2yy6AgjA6bNZWmvx
JDGxhrBa7wfscLlt6h9utMvvPtCnJoiUMuvPQ65rItQh24DxKTzWeuOel+E3RvXD
ZQNlKmrmHiI/0ImA5n3QDZ4tQhIq9IjRlhtCW3VaQghsCPU8NPmqr0/SNtc8OcfK
nZQGkhsjFTBaM/Nx2VOLrXXOae/7uoAfUol9JUFmcw3ddZuUxFw8Nt+1zGzpqQWC
TN4ERGU28lYll0IA8zg+YyMBBrZN/Tnrr3u5TeZnAAp3
-----END CERTIFICATE-----
