Certificate:
    Data:
        Version: 3 (0x2)
        Serial Number: 12330 (0x302a)
    Signature Algorithm: sha256WithRSAEncryption
        Issuer: C=US, ST=OH, L=Columbus, O=VikingVPN, OU=MyOrganizationalUnit, CN=VikingVPN CA/name=EasyRSA/emailAddress=me@myhost.mydomain
        Validity
            Not Before: Dec 31 18:10:07 2017 GMT
            Not After : Dec 29 18:10:07 2027 GMT
        Subject: CN=Client2761Certdc1684
        Subject Public Key Info:
            Public Key Algorithm: rsaEncryption
                Public-Key: (4096 bit)
                Modulus:
                    00:d2:e9:7d:33:b6:92:a2:d7:c4:09:84:6b:80:e5:
                    c1:ac:79:cb:be:5c:f0:22:80:0f:b3:18:8a:7e:de:
                    2f:44:7e:7e:27:d4:08:e9:cc:25:53:3f:b2:75:90:
                    c1:86:74:f5:2b:c4:76:83:84:af:03:91:a8:98:af:
                    eb:aa:0d:cb:f0:dc:95:70:4f:06:a6:b9:cb:be:74:
                    42:46:ee:74:74:a2:19:6e:b5:b4:d1:a8:d5:7c:c9:
                    ba:45:ac:7a:e9:ed:5a:05:80:42:7f:e9:7f:a4:d9:
                    cb:a3:77:c6:6e:a6:61:e9:fc:6b:15:11:e6:94:9a:
                    44:8f:38:b0:cb:0f:d6:77:28:60:9c:b4:58:bf:f7:
                    f9:4d:73:75:c7:8f:10:28:d5:cd:da:ba:68:7f:9c:
                    8c:38:85:cb:34:ad:ef:b6:3f:ee:7e:4b:16:2f:c1:
                    48:9d:7a:ba:7f:5a:8f:19:0f:b2:df:07:53:94:e8:
                    c0:d0:ae:20:fb:a8:1a:78:6c:10:1b:19:48:e5:36:
                    0c:c8:92:2b:eb:69:11:d2:cf:43:c2:8c:2b:8e:70:
                    4d:c1:1a:07:d4:9b:03:d4:95:0e:8c:82:44:d7:6f:
                    8f:79:8d:6f:21:4f:cb:47:75:8b:59:ff:b3:fb:2f:
                    e4:ca:84:37:6a:27:f5:50:ab:a1:c1:79:d3:68:2d:
                    37:58:df:89:5e:33:4e:d2:9e:f9:6c:cd:71:89:62:
                    4e:d5:2e:45:e8:ca:f3:2f:d4:64:32:26:fe:58:8e:
                    4d:7f:d0:fd:ed:53:ed:36:82:ef:b0:18:11:c5:90:
                    24:0c:ce:59:32:6c:b5:94:0c:86:50:8f:4a:a9:93:
                    8f:b3:a7:34:2e:d4:46:80:8e:d0:bf:ce:6c:8f:2a:
                    57:fb:2a:05:be:fc:65:a7:6f:22:98:89:25:08:f4:
                    da:f8:07:1a:9c:5d:14:24:48:39:6f:14:7d:d7:5b:
                    fe:8a:75:28:eb:75:43:cf:f7:ff:8d:39:98:fa:7a:
                    a7:c3:1f:49:9a:85:2f:19:8d:5a:ef:43:e1:e2:4f:
                    8a:6a:a6:d5:0a:f2:8e:66:94:62:fe:2c:0a:ee:d6:
                    fb:80:da:7c:67:8e:de:2e:73:ae:cc:67:83:88:80:
                    9e:09:ee:5c:f2:06:78:18:3e:85:94:f5:96:b3:fe:
                    5e:50:4b:15:a5:ef:87:e6:25:4c:e3:3e:f8:2c:c9:
                    17:84:59:11:0f:7a:00:60:9f:71:f3:c6:e1:5e:1f:
                    84:df:db:03:d5:fa:04:5a:1e:8f:6a:f6:86:8c:ec:
                    50:ff:a3:6e:7f:15:af:7d:49:43:c2:7b:68:64:8f:
                    3a:26:a0:8c:bb:5f:af:91:43:51:19:00:6f:8a:d8:
                    99:3c:69
                Exponent: 65537 (0x10001)
        X509v3 extensions:
            X509v3 Basic Constraints: 
                CA:FALSE
            Netscape Comment: 
                Easy-RSA Generated Certificate
            X509v3 Subject Key Identifier: 
                B9:E2:3F:59:19:23:CF:52:C5:ED:29:56:FD:68:FF:B2:09:4A:EF:65
            X509v3 Authority Key Identifier: 
                keyid:12:CD:60:04:D2:A0:80:9E:70:ED:C6:99:B8:7B:2C:C6:52:FD:19:A1
                DirName:/C=US/ST=OH/L=Columbus/O=VikingVPN/OU=MyOrganizationalUnit/CN=VikingVPN CA/name=EasyRSA/emailAddress=me@myhost.mydomain
                serial:CF:35:85:EE:80:BF:2A:3E

            X509v3 Extended Key Usage: 
                TLS Web Client Authentication
            X509v3 Key Usage: 
                Digital Signature
    Signature Algorithm: sha256WithRSAEncryption
         d8:7a:57:41:7b:82:18:99:a4:c5:41:76:71:68:5a:fd:f8:ec:
         a1:a5:a8:4c:79:68:d2:c5:7d:20:dc:0f:bd:31:71:d0:ca:23:
         95:e6:1a:44:eb:4b:cd:b4:f6:ea:09:e8:72:7e:5f:3e:00:24:
         ed:9b:5a:65:82:b8:8f:8d:c5:14:3a:87:27:f1:04:af:2b:b6:
         8f:89:c4:aa:cb:92:37:fc:78:21:b6:97:ce:25:c9:1e:9d:cc:
         c5:d7:4c:14:c9:e0:00:b0:59:9c:07:3a:81:b7:cb:de:c5:bd:
         83:0c:71:04:37:d0:eb:03:37:b5:7e:a4:4a:0c:61:af:37:4a:
         9b:0f:63:e5:da:94:c2:85:a7:6a:ba:ea:77:7f:87:d7:9a:52:
         f5:b2:50:ac:0b:c4:28:d8:be:48:69:57:b2:6c:68:0b:a9:ed:
         7f:47:10:c3:c6:d1:51:7b:b1:93:85:bc:43:80:f7:e7:be:78:
         5c:1b:d4:bf:7e:c3:f7:de:7c:ee:ed:74:4d:f1:e1:c4:01:a2:
         c6:18:51:4f:c6:6c:4d:2e:ef:a0:5c:f8:b0:23:bd:e7:26:a2:
         04:a1:55:3e:b1:03:07:c6:a3:44:69:13:21:b4:8b:fe:0a:bb:
         0a:dc:71:c2:a6:b6:08:82:cc:22:ad:83:d9:e1:c0:19:fc:69:
         8a:ea:16:42:80:73:01:00:03:03:de:c0:dd:c2:32:8f:ca:89:
         23:6a:8b:ee:4b:c9:ec:09:08:da:2e:6f:32:00:5c:b0:37:7f:
         a4:77:fd:46:9c:db:fa:88:da:dc:71:41:31:58:8d:49:0f:05:
         7f:79:c8:22:77:57:df:7e:f7:dc:d2:51:8c:7c:37:c9:58:af:
         d2:20:40:04:f7:73:cb:28:e4:65:58:8b:34:1a:49:6f:21:3c:
         63:d1:cd:66:4e:ec:61:e6:c6:10:73:60:66:af:71:a1:b2:75:
         00:bf:e4:3e:96:88:35:e6:47:d0:a7:65:25:fa:c2:1f:f1:79:
         93:ac:c3:ef:f4:04:ba:77:f5:3a:15:28:af:9d:7f:b6:99:33:
         9d:d8:5b:08:43:15:10:fb:66:74:ce:be:e5:24:d9:bd:9e:06:
         d8:ae:f2:79:e4:19:aa:dc:34:52:7b:d0:4c:ee:00:81:db:f8:
         19:ec:71:f7:cc:ce:31:8b:27:c7:f1:f2:cf:67:d2:17:6b:e6:
         33:56:ac:51:c2:1c:47:79:39:7b:55:59:d7:2f:7b:c6:9f:97:
         aa:93:89:27:96:f8:e7:7d:1b:e8:9f:8d:1d:57:db:f6:e9:47:
         6d:69:3b:1a:0f:8a:09:5d:68:b1:ca:45:4f:db:6b:cf:a2:91:
         bc:e2:89:85:ac:bf:85:a6
-----BEGIN CERTIFICATE-----
MIIGrTCCBJWgAwIBAgICMCowDQYJKoZIhvcNAQELBQAwgawxCzAJBgNVBAYTAlVT
MQswCQYDVQQIEwJPSDERMA8GA1UEBxMIQ29sdW1idXMxEjAQBgNVBAoTCVZpa2lu
Z1ZQTjEdMBsGA1UECxMUTXlPcmdhbml6YXRpb25hbFVuaXQxFTATBgNVBAMTDFZp
a2luZ1ZQTiBDQTEQMA4GA1UEKRMHRWFzeVJTQTEhMB8GCSqGSIb3DQEJARYSbWVA
bXlob3N0Lm15ZG9tYWluMB4XDTE3MTIzMTE4MTAwN1oXDTI3MTIyOTE4MTAwN1ow
HzEdMBsGA1UEAxMUQ2xpZW50Mjc2MUNlcnRkYzE2ODQwggIiMA0GCSqGSIb3DQEB
AQUAA4ICDwAwggIKAoICAQDS6X0ztpKi18QJhGuA5cGsecu+XPAigA+zGIp+3i9E
fn4n1AjpzCVTP7J1kMGGdPUrxHaDhK8DkaiYr+uqDcvw3JVwTwamucu+dEJG7nR0
ohlutbTRqNV8ybpFrHrp7VoFgEJ/6X+k2cujd8ZupmHp/GsVEeaUmkSPOLDLD9Z3
KGCctFi/9/lNc3XHjxAo1c3aumh/nIw4hcs0re+2P+5+SxYvwUiderp/Wo8ZD7Lf
B1OU6MDQriD7qBp4bBAbGUjlNgzIkivraRHSz0PCjCuOcE3BGgfUmwPUlQ6MgkTX
b495jW8hT8tHdYtZ/7P7L+TKhDdqJ/VQq6HBedNoLTdY34leM07SnvlszXGJYk7V
LkXoyvMv1GQyJv5Yjk1/0P3tU+02gu+wGBHFkCQMzlkybLWUDIZQj0qpk4+zpzQu
1EaAjtC/zmyPKlf7KgW+/GWnbyKYiSUI9Nr4BxqcXRQkSDlvFH3XW/6KdSjrdUPP
9/+NOZj6eqfDH0mahS8ZjVrvQ+HiT4pqptUK8o5mlGL+LAru1vuA2nxnjt4uc67M
Z4OIgJ4J7lzyBngYPoWU9Zaz/l5QSxWl74fmJUzjPvgsyReEWREPegBgn3HzxuFe
H4Tf2wPV+gRaHo9q9oaM7FD/o25/Fa99SUPCe2hkjzomoIy7X6+RQ1EZAG+K2Jk8
aQIDAQABo4IBYzCCAV8wCQYDVR0TBAIwADAtBglghkgBhvhCAQ0EIBYeRWFzeS1S
U0EgR2VuZXJhdGVkIENlcnRpZmljYXRlMB0GA1UdDgQWBBS54j9ZGSPPUsXtKVb9
aP+yCUrvZTCB4QYDVR0jBIHZMIHWgBQSzWAE0qCAnnDtxpm4eyzGUv0ZoaGBsqSB
rzCBrDELMAkGA1UEBhMCVVMxCzAJBgNVBAgTAk9IMREwDwYDVQQHEwhDb2x1bWJ1
czESMBAGA1UEChMJVmlraW5nVlBOMR0wGwYDVQQLExRNeU9yZ2FuaXphdGlvbmFs
VW5pdDEVMBMGA1UEAxMMVmlraW5nVlBOIENBMRAwDgYDVQQpEwdFYXN5UlNBMSEw
HwYJKoZIhvcNAQkBFhJtZUBteWhvc3QubXlkb21haW6CCQDPNYXugL8qPjATBgNV
HSUEDDAKBggrBgEFBQcDAjALBgNVHQ8EBAMCB4AwDQYJKoZIhvcNAQELBQADggIB
ANh6V0F7ghiZpMVBdnFoWv347KGlqEx5aNLFfSDcD70xcdDKI5XmGkTrS8209uoJ
6HJ+Xz4AJO2bWmWCuI+NxRQ6hyfxBK8rto+JxKrLkjf8eCG2l84lyR6dzMXXTBTJ
4ACwWZwHOoG3y97FvYMMcQQ30OsDN7V+pEoMYa83SpsPY+XalMKFp2q66nd/h9ea
UvWyUKwLxCjYvkhpV7JsaAup7X9HEMPG0VF7sZOFvEOA9+e+eFwb1L9+w/fefO7t
dE3x4cQBosYYUU/GbE0u76Bc+LAjvecmogShVT6xAwfGo0RpEyG0i/4KuwrcccKm
tgiCzCKtg9nhwBn8aYrqFkKAcwEAAwPewN3CMo/KiSNqi+5LyewJCNoubzIAXLA3
f6R3/Uac2/qI2txxQTFYjUkPBX95yCJ3V99+99zSUYx8N8lYr9IgQAT3c8so5GVY
izQaSW8hPGPRzWZO7GHmxhBzYGavcaGydQC/5D6WiDXmR9CnZSX6wh/xeZOsw+/0
BLp39ToVKK+df7aZM53YWwhDFRD7ZnTOvuUk2b2eBtiu8nnkGarcNFJ70EzuAIHb
+BnscffMzjGLJ8fx8s9n0hdr5jNWrFHCHEd5OXtVWdcve8afl6qTiSeW+Od9G+if
jR1X2/bpR21pOxoPigldaLHKRU/ba8+ikbziiYWsv4Wm
-----END CERTIFICATE-----
