Certificate:
    Data:
        Version: 3 (0x2)
        Serial Number: 12331 (0x302b)
    Signature Algorithm: sha256WithRSAEncryption
        Issuer: C=US, ST=OH, L=Columbus, O=VikingVPN, OU=MyOrganizationalUnit, CN=VikingVPN CA/name=EasyRSA/emailAddress=me@myhost.mydomain
        Validity
            Not Before: Dec 31 18:14:07 2017 GMT
            Not After : Dec 29 18:14:07 2027 GMT
        Subject: CN=Client2761Certe8e37f
        Subject Public Key Info:
            Public Key Algorithm: rsaEncryption
                Public-Key: (4096 bit)
                Modulus:
                    00:cb:6e:3d:04:df:d1:4e:2e:c4:ff:dd:48:2d:6d:
                    18:1d:06:d0:0d:fc:27:af:33:60:b4:48:49:63:61:
                    fc:d6:42:0a:91:7f:dc:6d:0a:21:43:86:af:69:1b:
                    1b:24:4b:63:e8:90:03:4b:60:3b:63:de:a2:6d:ac:
                    6a:4e:58:17:af:c5:55:36:e1:55:f4:96:cc:bb:b4:
                    0a:a3:d7:8c:e8:60:2e:42:91:36:08:b6:04:52:eb:
                    52:1a:ee:3a:d0:c3:c8:e2:41:38:73:df:72:64:b1:
                    5d:a4:81:6a:50:7b:00:0e:4f:dc:32:96:06:13:9c:
                    fa:30:d3:42:97:01:3d:d4:06:04:ef:79:b3:69:74:
                    99:19:7b:94:6a:ed:75:76:08:42:42:8c:86:7d:05:
                    1b:a5:d4:e2:44:fe:02:81:13:34:e5:2a:96:a1:4b:
                    02:96:08:17:cd:f7:a6:85:8a:af:a6:4b:fc:5f:be:
                    76:83:6f:41:36:66:3c:19:ce:19:cd:d5:f1:e7:88:
                    99:92:7e:dc:0c:7a:12:99:2d:df:2f:57:0d:d5:6b:
                    6c:d0:b8:64:10:d7:3e:6b:1d:15:d6:93:93:56:72:
                    1e:c1:6c:a7:ac:c3:de:7a:26:2b:7a:3b:f4:dc:d6:
                    a1:94:99:f4:bc:33:a3:33:fd:e8:47:84:b5:a1:c9:
                    f1:b7:40:e6:51:53:e1:c1:53:6a:b3:e3:74:74:8a:
                    8b:6d:e6:53:39:96:2a:d4:e1:09:20:9b:bd:a0:74:
                    64:d5:63:41:3f:9f:8d:0b:36:11:17:f7:0b:d6:b4:
                    6b:ca:7c:b8:35:b2:69:64:f1:7a:b7:27:89:24:32:
                    1d:f0:b3:10:12:11:e8:14:f2:ce:a2:df:1d:05:db:
                    1b:7c:65:1f:f9:0f:2f:77:19:b5:8b:13:a1:65:4d:
                    6b:d9:d2:fc:a5:23:ef:08:cb:72:2b:37:c2:c5:c9:
                    38:5b:88:df:ed:f6:9c:af:f1:71:b1:ab:4a:fe:e7:
                    76:b4:d6:81:fd:70:1d:7d:15:1f:a0:7e:96:75:f2:
                    cc:18:66:1d:42:06:cf:bb:6e:0b:11:b6:98:93:c2:
                    b6:80:f1:97:3b:0b:38:ff:b3:ee:5f:a7:fc:73:08:
                    b9:2f:3d:b8:68:77:a8:d1:11:20:74:f4:45:34:69:
                    c0:c9:5b:65:0f:a2:d0:b0:86:01:9e:d9:49:e0:44:
                    ea:f6:28:5f:b0:58:9e:b3:6f:d7:92:1f:29:9d:54:
                    fd:4d:cf:07:e0:64:b6:c7:68:41:55:38:c0:3b:de:
                    e0:ec:15:fb:15:a7:b9:a2:37:e0:04:bd:03:d8:e0:
                    9c:32:9a:13:87:d3:b8:e0:81:92:5f:06:2f:24:54:
                    e3:8f:37
                Exponent: 65537 (0x10001)
        X509v3 extensions:
            X509v3 Basic Constraints: 
                CA:FALSE
            Netscape Comment: 
                Easy-RSA Generated Certificate
            X509v3 Subject Key Identifier: 
                A2:EB:09:12:4B:4B:34:A6:84:4F:59:62:A2:69:46:50:64:83:FD:B9
            X509v3 Authority Key Identifier: 
                keyid:12:CD:60:04:D2:A0:80:9E:70:ED:C6:99:B8:7B:2C:C6:52:FD:19:A1
                DirName:/C=US/ST=OH/L=Columbus/O=VikingVPN/OU=MyOrganizationalUnit/CN=VikingVPN CA/name=EasyRSA/emailAddress=me@myhost.mydomain
                serial:CF:35:85:EE:80:BF:2A:3E

            X509v3 Extended Key Usage: 
                TLS Web Client Authentication
            X509v3 Key Usage: 
                Digital Signature
    Signature Algorithm: sha256WithRSAEncryption
         58:3c:64:f4:b3:31:25:20:3d:a3:51:38:b0:37:67:52:98:79:
         e1:6a:69:5e:0a:73:ad:1e:41:b5:7b:ee:b9:2c:88:54:f2:a3:
         42:c8:c5:bb:f9:b6:ea:69:2a:1d:da:39:da:98:35:ff:3b:4c:
         5e:26:66:a7:38:a9:0f:d5:74:65:4f:81:f7:f7:c2:c7:ec:bf:
         11:d2:ec:eb:d5:4d:28:b2:6c:19:ac:b1:fd:bf:a5:f6:e8:e0:
         bf:61:5c:71:a1:a9:39:ac:9e:d2:15:81:b7:59:54:08:5e:86:
         b0:a7:3a:70:0c:cb:43:73:ad:ae:e4:16:a3:74:26:6a:4e:ae:
         d0:c2:fc:48:d7:70:32:db:48:48:a6:b6:66:97:c6:3a:99:8a:
         b5:27:26:3e:4d:6b:54:e8:88:ae:17:48:93:9e:7c:b0:2a:c4:
         bd:66:33:78:a3:9d:26:42:a5:54:cc:61:7b:0b:19:28:71:9a:
         e9:39:4a:a6:52:cd:40:63:98:de:86:51:7b:83:5f:65:0e:78:
         81:9f:15:d6:58:cf:8f:65:28:bd:b5:06:1f:65:04:a1:fc:b1:
         a4:49:39:43:a3:08:62:17:69:ea:67:05:8d:91:0e:87:b0:20:
         e4:88:87:27:83:5f:de:65:b0:50:1e:f7:71:e0:0a:b6:e6:42:
         5e:24:38:d4:7a:d0:f8:63:4d:57:3e:93:1d:60:30:1b:fd:e2:
         0c:85:fc:69:e6:89:16:ff:2f:12:28:b0:20:99:04:9a:ab:aa:
         6f:87:29:36:f8:a4:b4:15:08:1f:73:83:22:c8:49:40:16:25:
         70:bc:06:b1:21:70:9f:e5:d7:65:01:d4:31:f6:3a:67:ea:a3:
         87:71:d5:48:07:4b:78:31:18:ef:df:3a:72:ef:45:8b:0c:f2:
         12:a7:7b:92:16:88:ae:f1:3d:ba:9d:67:3b:75:c7:7e:4d:ed:
         44:18:b8:3e:5b:7c:3e:15:df:94:62:b3:65:aa:39:01:11:82:
         e2:de:03:0d:ba:f3:8e:93:8b:30:51:8d:d1:c8:13:84:58:5b:
         68:9f:11:05:dc:70:2a:cc:87:f2:e4:06:f5:cf:02:3d:47:f7:
         ca:9f:1e:14:9d:dc:61:d9:df:d5:ea:f7:4a:5e:c2:42:e8:19:
         39:a6:69:3c:77:f4:4c:a6:6f:4b:0d:49:5a:3e:6d:56:17:e6:
         a3:a8:9c:d6:69:57:ae:dc:80:9b:84:38:b6:8a:61:e5:ad:70:
         a0:e6:fe:26:e9:1f:94:a5:f8:fa:bb:fb:fb:22:56:b7:05:cb:
         32:c2:8f:fd:d0:69:2e:77:09:3b:29:64:4c:49:f1:e2:17:3a:
         c8:c3:dd:eb:ba:82:03:a5
-----BEGIN CERTIFICATE-----
MIIGrTCCBJWgAwIBAgICMCswDQYJKoZIhvcNAQELBQAwgawxCzAJBgNVBAYTAlVT
MQswCQYDVQQIEwJPSDERMA8GA1UEBxMIQ29sdW1idXMxEjAQBgNVBAoTCVZpa2lu
Z1ZQTjEdMBsGA1UECxMUTXlPcmdhbml6YXRpb25hbFVuaXQxFTATBgNVBAMTDFZp
a2luZ1ZQTiBDQTEQMA4GA1UEKRMHRWFzeVJTQTEhMB8GCSqGSIb3DQEJARYSbWVA
bXlob3N0Lm15ZG9tYWluMB4XDTE3MTIzMTE4MTQwN1oXDTI3MTIyOTE4MTQwN1ow
HzEdMBsGA1UEAxMUQ2xpZW50Mjc2MUNlcnRlOGUzN2YwggIiMA0GCSqGSIb3DQEB
AQUAA4ICDwAwggIKAoICAQDLbj0E39FOLsT/3UgtbRgdBtAN/CevM2C0SEljYfzW
QgqRf9xtCiFDhq9pGxskS2PokANLYDtj3qJtrGpOWBevxVU24VX0lsy7tAqj14zo
YC5CkTYItgRS61Ia7jrQw8jiQThz33JksV2kgWpQewAOT9wylgYTnPow00KXAT3U
BgTvebNpdJkZe5Rq7XV2CEJCjIZ9BRul1OJE/gKBEzTlKpahSwKWCBfN96aFiq+m
S/xfvnaDb0E2ZjwZzhnN1fHniJmSftwMehKZLd8vVw3Va2zQuGQQ1z5rHRXWk5NW
ch7BbKesw956Jit6O/Tc1qGUmfS8M6Mz/ehHhLWhyfG3QOZRU+HBU2qz43R0iott
5lM5lirU4Qkgm72gdGTVY0E/n40LNhEX9wvWtGvKfLg1smlk8Xq3J4kkMh3wsxAS
EegU8s6i3x0F2xt8ZR/5Dy93GbWLE6FlTWvZ0vylI+8Iy3IrN8LFyThbiN/t9pyv
8XGxq0r+53a01oH9cB19FR+gfpZ18swYZh1CBs+7bgsRtpiTwraA8Zc7Czj/s+5f
p/xzCLkvPbhod6jRESB09EU0acDJW2UPotCwhgGe2UngROr2KF+wWJ6zb9eSHymd
VP1NzwfgZLbHaEFVOMA73uDsFfsVp7miN+AEvQPY4JwymhOH07jggZJfBi8kVOOP
NwIDAQABo4IBYzCCAV8wCQYDVR0TBAIwADAtBglghkgBhvhCAQ0EIBYeRWFzeS1S
U0EgR2VuZXJhdGVkIENlcnRpZmljYXRlMB0GA1UdDgQWBBSi6wkSS0s0poRPWWKi
aUZQZIP9uTCB4QYDVR0jBIHZMIHWgBQSzWAE0qCAnnDtxpm4eyzGUv0ZoaGBsqSB
rzCBrDELMAkGA1UEBhMCVVMxCzAJBgNVBAgTAk9IMREwDwYDVQQHEwhDb2x1bWJ1
czESMBAGA1UEChMJVmlraW5nVlBOMR0wGwYDVQQLExRNeU9yZ2FuaXphdGlvbmFs
VW5pdDEVMBMGA1UEAxMMVmlraW5nVlBOIENBMRAwDgYDVQQpEwdFYXN5UlNBMSEw
HwYJKoZIhvcNAQkBFhJtZUBteWhvc3QubXlkb21haW6CCQDPNYXugL8qPjATBgNV
HSUEDDAKBggrBgEFBQcDAjALBgNVHQ8EBAMCB4AwDQYJKoZIhvcNAQELBQADggIB
AFg8ZPSzMSUgPaNROLA3Z1KYeeFqaV4Kc60eQbV77rksiFTyo0LIxbv5tuppKh3a
OdqYNf87TF4mZqc4qQ/VdGVPgff3wsfsvxHS7OvVTSiybBmssf2/pfbo4L9hXHGh
qTmsntIVgbdZVAhehrCnOnAMy0Nzra7kFqN0JmpOrtDC/EjXcDLbSEimtmaXxjqZ
irUnJj5Na1ToiK4XSJOefLAqxL1mM3ijnSZCpVTMYXsLGShxmuk5SqZSzUBjmN6G
UXuDX2UOeIGfFdZYz49lKL21Bh9lBKH8saRJOUOjCGIXaepnBY2RDoewIOSIhyeD
X95lsFAe93HgCrbmQl4kONR60PhjTVc+kx1gMBv94gyF/GnmiRb/LxIosCCZBJqr
qm+HKTb4pLQVCB9zgyLISUAWJXC8BrEhcJ/l12UB1DH2Omfqo4dx1UgHS3gxGO/f
OnLvRYsM8hKne5IWiK7xPbqdZzt1x35N7UQYuD5bfD4V35Ris2WqOQERguLeAw26
846TizBRjdHIE4RYW2ifEQXccCrMh/LkBvXPAj1H98qfHhSd3GHZ39Xq90pewkLo
GTmmaTx39Eymb0sNSVo+bVYX5qOonNZpV67cgJuEOLaKYeWtcKDm/ibpH5Sl+Pq7
+/siVrcFyzLCj/3QaS53CTspZExJ8eIXOsjD3eu6ggOl
-----END CERTIFICATE-----
