Certificate:
    Data:
        Version: 3 (0x2)
        Serial Number: 12349 (0x303d)
    Signature Algorithm: sha256WithRSAEncryption
        Issuer: C=US, ST=OH, L=Columbus, O=VikingVPN, OU=MyOrganizationalUnit, CN=VikingVPN CA/name=EasyRSA/emailAddress=me@myhost.mydomain
        Validity
            Not Before: Jan  3 18:13:44 2018 GMT
            Not After : Jan  1 18:13:44 2028 GMT
        Subject: CN=Client3193Cert5b5fa5
        Subject Public Key Info:
            Public Key Algorithm: rsaEncryption
                Public-Key: (4096 bit)
                Modulus:
                    00:eb:83:a7:df:c3:c6:43:9e:7e:9d:cd:a0:4c:31:
                    5b:53:f8:f8:b4:91:b4:44:43:1d:eb:1c:06:06:9e:
                    6f:55:58:30:8d:50:63:e6:d2:a9:1e:61:b6:21:df:
                    ad:ae:b1:1c:e9:a1:fc:04:e4:e4:b2:3a:f9:04:e9:
                    f6:89:df:d6:b7:e2:a3:f7:59:80:33:14:8f:c3:5c:
                    0a:89:3a:9a:69:8d:30:65:82:7a:17:8b:0f:d2:b7:
                    b7:cf:ab:6b:dc:2c:94:f0:77:ad:76:30:80:b9:ef:
                    7c:f7:c4:6e:49:62:ab:23:32:15:b2:a3:8a:3f:40:
                    62:bd:55:8d:56:7d:bb:76:3e:d6:14:c6:b2:24:49:
                    9d:a3:44:a7:17:a9:47:a1:ef:b4:cf:e4:67:7f:ab:
                    99:97:55:11:b0:7a:36:8c:a1:95:1e:67:d9:db:8c:
                    c9:be:07:d2:28:a8:2e:1c:d2:ba:2f:4d:10:82:bb:
                    45:27:56:b5:7a:25:b5:dc:3f:49:a6:a0:8f:c3:10:
                    91:bc:75:dd:4c:f5:d3:a0:96:01:58:33:2c:d8:4a:
                    38:a0:b2:a6:ef:39:57:23:63:89:c1:95:2f:b6:4c:
                    a4:38:f7:47:d4:38:dc:7b:2f:a6:b8:0b:bf:71:18:
                    be:91:d8:14:50:f6:85:f8:fe:d2:eb:9c:1b:c4:0c:
                    93:90:79:26:37:b3:90:02:89:e3:fe:60:61:7c:5a:
                    be:4b:55:68:1c:5b:e7:4c:55:ac:11:33:be:50:3a:
                    02:df:88:21:0c:38:5b:fd:bc:eb:be:30:6d:b0:da:
                    55:cc:87:8b:51:1e:84:d8:61:a4:00:ab:fb:23:89:
                    a7:60:8c:cf:d8:0c:df:fe:95:be:7a:7b:c1:33:b4:
                    95:55:f4:dc:9e:83:08:42:92:00:29:85:55:a2:8e:
                    c1:68:6d:a0:f8:fa:d9:f8:20:b3:fa:ea:55:0b:7c:
                    0f:75:c4:2e:5d:f5:fb:9d:01:77:44:a2:ef:85:f7:
                    72:b7:2f:41:70:3c:d4:6a:38:3e:5f:b7:fd:72:4c:
                    99:b2:ba:fd:bf:79:06:31:a6:47:d1:c1:4c:32:2d:
                    c3:d2:9e:bc:3e:6a:14:af:21:e4:01:a8:59:59:86:
                    49:97:6c:7a:16:96:af:a1:7f:37:2e:84:5b:65:41:
                    27:c5:a2:d0:44:2e:39:31:11:40:12:32:35:35:ff:
                    bc:55:8c:83:12:3c:42:5c:79:37:19:34:55:53:0e:
                    c7:6b:b7:ba:7a:31:f5:8a:1a:00:4e:3b:f8:9d:df:
                    c0:ba:ea:9a:f2:0e:32:d3:c2:74:22:85:03:bd:bb:
                    31:5c:ea:ad:45:04:18:ad:f3:b2:03:92:60:60:cd:
                    0b:82:c7
                Exponent: 65537 (0x10001)
        X509v3 extensions:
            X509v3 Basic Constraints: 
                CA:FALSE
            Netscape Comment: 
                Easy-RSA Generated Certificate
            X509v3 Subject Key Identifier: 
                DB:06:E8:E4:F4:BC:FF:4C:A1:34:97:61:23:38:CE:02:C2:82:DF:74
            X509v3 Authority Key Identifier: 
                keyid:12:CD:60:04:D2:A0:80:9E:70:ED:C6:99:B8:7B:2C:C6:52:FD:19:A1
                DirName:/C=US/ST=OH/L=Columbus/O=VikingVPN/OU=MyOrganizationalUnit/CN=VikingVPN CA/name=EasyRSA/emailAddress=me@myhost.mydomain
                serial:CF:35:85:EE:80:BF:2A:3E

            X509v3 Extended Key Usage: 
                TLS Web Client Authentication
            X509v3 Key Usage: 
                Digital Signature
    Signature Algorithm: sha256WithRSAEncryption
         da:5e:f7:65:86:2c:ce:c0:43:b5:c2:79:8c:0d:b9:52:01:fa:
         cf:6b:77:59:0b:5e:07:ba:d7:76:08:64:e6:5c:06:cf:90:98:
         59:dd:9d:1a:db:c1:1b:98:3e:dd:5c:cb:91:cf:93:ed:a4:20:
         b6:4b:db:3b:a8:88:25:f5:59:fc:7c:86:e1:a2:cb:af:6b:b4:
         04:ae:dd:ac:4d:c5:db:54:5f:d6:9a:58:37:2e:13:a6:99:46:
         f5:76:7a:ec:1f:b4:7b:69:9f:25:b5:fa:eb:41:94:83:86:00:
         a4:66:b0:6e:93:bf:53:e7:f4:a9:98:07:38:65:66:7a:e5:59:
         28:e7:61:86:46:0f:83:81:20:9d:e2:72:ef:5b:8f:d1:91:a1:
         33:bc:3d:21:fb:d5:8c:b7:6b:af:cf:67:84:54:a3:f4:01:56:
         ca:c0:11:03:1c:14:99:2f:7d:04:4d:d7:7a:4e:60:90:8f:40:
         12:38:3f:25:b1:9e:04:67:0d:45:63:fc:2e:4a:f8:3e:e2:41:
         56:3c:e3:00:15:4a:5f:2e:5f:8b:ef:54:b4:71:de:33:dd:f9:
         de:4a:14:60:f1:90:a8:c3:37:f2:95:f8:29:b8:cd:b5:51:d8:
         b7:49:81:a9:a0:8c:89:a0:d9:1c:3b:d0:f0:dc:ed:32:28:83:
         ba:b8:3b:78:3a:b4:24:51:5f:d8:7a:a0:ef:6d:c9:12:af:88:
         87:81:dc:8a:95:15:68:27:77:83:c4:93:bc:e0:b0:70:14:97:
         c7:5c:0f:f8:1b:36:dd:3d:be:49:b4:b4:ec:5a:ce:0c:cc:2d:
         05:3a:19:55:8f:7b:06:95:78:2c:c0:6e:0a:9c:f1:22:06:78:
         0a:89:7c:2f:49:47:af:c4:af:1a:c6:77:e3:93:ef:22:57:2c:
         18:cf:84:e5:a8:9a:78:f7:37:b7:07:bc:70:c1:a1:0f:e8:83:
         83:a2:9a:f0:ba:f7:b8:14:26:fb:d9:30:71:bc:ca:c7:71:de:
         c3:3a:f6:fd:d9:be:0b:f9:91:fa:2b:0c:20:80:82:5b:62:84:
         bf:88:cf:33:3d:ee:c6:d2:0e:46:1a:24:cc:92:7c:1f:d2:7f:
         c5:df:b0:37:88:d1:6f:4f:d6:9d:37:5d:38:16:77:f5:77:44:
         04:90:a3:6e:e4:17:35:e4:ad:7d:2c:1f:50:e4:a0:25:be:30:
         14:54:e1:c5:d3:6d:df:33:67:d7:e6:cc:4f:31:f5:c7:96:f4:
         11:5c:ee:a3:0b:a1:88:e6:83:35:d4:64:25:07:7c:37:45:54:
         63:a0:6c:be:6e:da:07:3d:2b:43:2d:e7:3c:45:b3:dc:8f:e3:
         1b:ac:ae:13:98:f6:35:77
-----BEGIN CERTIFICATE-----
MIIGrTCCBJWgAwIBAgICMD0wDQYJKoZIhvcNAQELBQAwgawxCzAJBgNVBAYTAlVT
MQswCQYDVQQIEwJPSDERMA8GA1UEBxMIQ29sdW1idXMxEjAQBgNVBAoTCVZpa2lu
Z1ZQTjEdMBsGA1UECxMUTXlPcmdhbml6YXRpb25hbFVuaXQxFTATBgNVBAMTDFZp
a2luZ1ZQTiBDQTEQMA4GA1UEKRMHRWFzeVJTQTEhMB8GCSqGSIb3DQEJARYSbWVA
bXlob3N0Lm15ZG9tYWluMB4XDTE4MDEwMzE4MTM0NFoXDTI4MDEwMTE4MTM0NFow
HzEdMBsGA1UEAxMUQ2xpZW50MzE5M0NlcnQ1YjVmYTUwggIiMA0GCSqGSIb3DQEB
AQUAA4ICDwAwggIKAoICAQDrg6ffw8ZDnn6dzaBMMVtT+Pi0kbREQx3rHAYGnm9V
WDCNUGPm0qkeYbYh362usRzpofwE5OSyOvkE6faJ39a34qP3WYAzFI/DXAqJOppp
jTBlgnoXiw/St7fPq2vcLJTwd612MIC573z3xG5JYqsjMhWyo4o/QGK9VY1Wfbt2
PtYUxrIkSZ2jRKcXqUeh77TP5Gd/q5mXVRGwejaMoZUeZ9nbjMm+B9IoqC4c0rov
TRCCu0UnVrV6JbXcP0mmoI/DEJG8dd1M9dOglgFYMyzYSjigsqbvOVcjY4nBlS+2
TKQ490fUONx7L6a4C79xGL6R2BRQ9oX4/tLrnBvEDJOQeSY3s5ACieP+YGF8Wr5L
VWgcW+dMVawRM75QOgLfiCEMOFv9vOu+MG2w2lXMh4tRHoTYYaQAq/sjiadgjM/Y
DN/+lb56e8EztJVV9NyegwhCkgAphVWijsFobaD4+tn4ILP66lULfA91xC5d9fud
AXdEou+F93K3L0FwPNRqOD5ft/1yTJmyuv2/eQYxpkfRwUwyLcPSnrw+ahSvIeQB
qFlZhkmXbHoWlq+hfzcuhFtlQSfFotBELjkxEUASMjU1/7xVjIMSPEJceTcZNFVT
Dsdrt7p6MfWKGgBOO/id38C66pryDjLTwnQihQO9uzFc6q1FBBit87IDkmBgzQuC
xwIDAQABo4IBYzCCAV8wCQYDVR0TBAIwADAtBglghkgBhvhCAQ0EIBYeRWFzeS1S
U0EgR2VuZXJhdGVkIENlcnRpZmljYXRlMB0GA1UdDgQWBBTbBujk9Lz/TKE0l2Ej
OM4CwoLfdDCB4QYDVR0jBIHZMIHWgBQSzWAE0qCAnnDtxpm4eyzGUv0ZoaGBsqSB
rzCBrDELMAkGA1UEBhMCVVMxCzAJBgNVBAgTAk9IMREwDwYDVQQHEwhDb2x1bWJ1
czESMBAGA1UEChMJVmlraW5nVlBOMR0wGwYDVQQLExRNeU9yZ2FuaXphdGlvbmFs
VW5pdDEVMBMGA1UEAxMMVmlraW5nVlBOIENBMRAwDgYDVQQpEwdFYXN5UlNBMSEw
HwYJKoZIhvcNAQkBFhJtZUBteWhvc3QubXlkb21haW6CCQDPNYXugL8qPjATBgNV
HSUEDDAKBggrBgEFBQcDAjALBgNVHQ8EBAMCB4AwDQYJKoZIhvcNAQELBQADggIB
ANpe92WGLM7AQ7XCeYwNuVIB+s9rd1kLXge613YIZOZcBs+QmFndnRrbwRuYPt1c
y5HPk+2kILZL2zuoiCX1Wfx8huGiy69rtASu3axNxdtUX9aaWDcuE6aZRvV2euwf
tHtpnyW1+utBlIOGAKRmsG6Tv1Pn9KmYBzhlZnrlWSjnYYZGD4OBIJ3icu9bj9GR
oTO8PSH71Yy3a6/PZ4RUo/QBVsrAEQMcFJkvfQRN13pOYJCPQBI4PyWxngRnDUVj
/C5K+D7iQVY84wAVSl8uX4vvVLRx3jPd+d5KFGDxkKjDN/KV+Cm4zbVR2LdJgamg
jImg2Rw70PDc7TIog7q4O3g6tCRRX9h6oO9tyRKviIeB3IqVFWgnd4PEk7zgsHAU
l8dcD/gbNt09vkm0tOxazgzMLQU6GVWPewaVeCzAbgqc8SIGeAqJfC9JR6/ErxrG
d+OT7yJXLBjPhOWomnj3N7cHvHDBoQ/og4OimvC697gUJvvZMHG8ysdx3sM69v3Z
vgv5kforDCCAgltihL+IzzM97sbSDkYaJMySfB/Sf8XfsDeI0W9P1p03XTgWd/V3
RASQo27kFzXkrX0sH1DkoCW+MBRU4cXTbd8zZ9fmzE8x9ceW9BFc7qMLoYjmgzXU
ZCUHfDdFVGOgbL5u2gc9K0Mt5zxFs9yP4xusrhOY9jV3
-----END CERTIFICATE-----
