Certificate:
    Data:
        Version: 3 (0x2)
        Serial Number: 12356 (0x3044)
    Signature Algorithm: sha256WithRSAEncryption
        Issuer: C=US, ST=OH, L=Columbus, O=VikingVPN, OU=MyOrganizationalUnit, CN=VikingVPN CA/name=EasyRSA/emailAddress=me@myhost.mydomain
        Validity
            Not Before: Jan  4 23:15:44 2018 GMT
            Not After : Jan  2 23:15:44 2028 GMT
        Subject: CN=Client2312Certf91622
        Subject Public Key Info:
            Public Key Algorithm: rsaEncryption
                Public-Key: (4096 bit)
                Modulus:
                    00:e1:27:73:f3:39:c0:23:44:74:e5:de:cd:a9:3b:
                    9a:03:a5:a5:16:2e:c3:4e:ab:b9:3b:d5:fb:dc:4f:
                    86:20:da:55:04:29:66:d7:1a:7b:78:da:25:bb:1e:
                    a3:6b:68:b0:63:58:a7:f5:69:92:e9:f5:b7:28:84:
                    26:0c:34:1f:ac:32:9d:fe:da:8a:b0:17:28:d3:29:
                    06:1a:3a:3a:ca:53:51:4a:65:fd:dc:6f:c2:52:77:
                    4c:ba:fd:08:09:6c:1e:2f:d1:fb:2b:98:d3:ca:95:
                    c0:a3:c5:bd:f2:b5:9a:ad:68:d9:69:4d:50:42:6f:
                    02:e4:2c:ea:f9:45:1b:e5:3f:28:d9:ec:7b:7f:cc:
                    b1:ea:41:0a:b2:10:b0:7e:4c:e5:a7:b2:49:eb:18:
                    f2:10:8c:23:a0:f2:7f:b4:e7:01:86:07:5a:4f:b8:
                    ef:9d:5c:09:85:2e:37:a4:92:6b:33:13:8d:e1:63:
                    d4:4b:d9:a9:08:de:0e:ed:93:de:5b:fe:6e:a1:be:
                    de:16:e2:6c:bf:d5:28:d0:9c:92:8e:ac:bc:7d:44:
                    1c:4d:3e:a8:f4:75:38:b5:8d:8b:20:56:e1:fd:68:
                    97:e4:41:22:d0:f2:8e:d0:72:92:02:1a:d0:25:73:
                    75:5e:d4:c1:5a:db:96:af:8e:00:5f:1f:c9:14:c7:
                    7c:77:7d:95:7b:38:8a:73:61:a9:35:df:8c:a2:b5:
                    7f:a5:4f:ee:96:ad:33:46:a7:ef:63:6d:c4:27:63:
                    94:ba:83:34:a5:fc:49:84:13:ec:5c:2f:34:6c:9e:
                    0c:39:3b:44:82:69:da:3b:85:99:e0:43:04:69:25:
                    ee:2c:dc:7b:c6:79:b8:34:01:34:12:cc:da:e6:1f:
                    79:1c:ce:57:eb:74:e5:53:c6:3d:86:33:fe:8b:4b:
                    11:76:52:12:0e:4d:1f:eb:2c:1c:81:da:2a:61:5f:
                    6a:1f:43:74:40:41:e4:35:4b:98:ac:67:0c:ff:e3:
                    d1:cd:33:20:db:0d:4a:c3:7a:ea:08:f1:a0:86:22:
                    3d:58:e9:2f:dd:07:3a:6a:bb:ed:44:cd:3a:1c:78:
                    79:d7:7a:eb:23:ee:64:98:ef:ad:54:c9:b5:1e:40:
                    8d:02:4c:cf:d7:bd:64:d8:89:2c:9d:22:65:29:0c:
                    f4:7d:24:e6:34:1f:b2:81:19:a1:d1:41:c4:3d:cf:
                    13:df:70:b8:b4:ce:cf:04:59:cd:c9:a0:94:3e:33:
                    d0:b9:23:0c:0b:d0:01:8f:eb:c7:49:26:2b:64:60:
                    61:cb:32:2a:5b:55:8d:ce:09:7e:b7:f3:e8:df:9b:
                    11:2c:80:e2:19:1d:15:64:18:08:66:db:e9:d4:61:
                    82:bf:21
                Exponent: 65537 (0x10001)
        X509v3 extensions:
            X509v3 Basic Constraints: 
                CA:FALSE
            Netscape Comment: 
                Easy-RSA Generated Certificate
            X509v3 Subject Key Identifier: 
                C1:BD:BC:57:21:C4:40:1D:18:94:70:D4:A5:29:89:96:19:50:67:F0
            X509v3 Authority Key Identifier: 
                keyid:12:CD:60:04:D2:A0:80:9E:70:ED:C6:99:B8:7B:2C:C6:52:FD:19:A1
                DirName:/C=US/ST=OH/L=Columbus/O=VikingVPN/OU=MyOrganizationalUnit/CN=VikingVPN CA/name=EasyRSA/emailAddress=me@myhost.mydomain
                serial:CF:35:85:EE:80:BF:2A:3E

            X509v3 Extended Key Usage: 
                TLS Web Client Authentication
            X509v3 Key Usage: 
                Digital Signature
    Signature Algorithm: sha256WithRSAEncryption
         73:24:d6:88:eb:5a:e0:36:9d:c6:ae:4d:c3:a4:85:18:f5:f4:
         a6:04:4b:50:70:81:d6:65:fa:8c:8d:9e:20:af:00:33:46:07:
         e5:4d:d7:b8:78:46:bb:35:b5:a1:7a:15:f8:8d:d7:f1:84:e2:
         86:18:11:66:5b:04:b8:a1:41:0b:ac:2b:00:3b:ae:16:3b:74:
         33:e7:a1:45:a6:e4:70:ee:b5:94:f9:9b:95:d4:22:0d:49:c7:
         76:b4:15:e3:d7:0f:cf:44:61:85:4e:0f:2b:ae:2e:b6:7a:f4:
         1b:28:17:2a:86:0a:3a:16:cc:8e:d0:f1:a0:c4:ea:d7:5e:5e:
         b7:1d:e1:b2:d0:6c:4b:73:af:17:93:f9:a1:a1:60:a8:03:65:
         21:52:e8:e6:f6:ae:77:5a:80:80:23:a5:2b:89:49:e7:36:07:
         59:e4:97:c4:f9:73:f6:25:44:02:95:22:27:9f:9b:4c:3e:7e:
         01:bf:4a:55:ae:b1:0e:de:59:28:7b:f8:3e:23:2c:88:77:c2:
         4e:8c:33:fb:2f:f6:c3:f1:93:10:4c:c9:2e:d6:e1:22:f2:87:
         f0:52:5d:59:02:61:ba:d9:35:40:2f:54:b7:b8:04:ca:a6:a9:
         4b:1f:64:d6:69:6d:7b:ab:33:49:11:1d:a4:71:c3:b1:58:c7:
         fb:99:cc:d8:b4:ff:63:da:d1:c0:f6:b5:70:a4:10:e7:23:d4:
         ca:a0:bf:64:02:6d:29:77:88:36:69:14:29:ba:d8:e9:8a:0e:
         03:c2:61:b6:a8:ec:fb:d7:85:fb:78:c2:a3:f0:8c:9d:3e:6a:
         11:88:b2:28:39:c3:60:5f:af:ba:da:14:6a:d3:0f:94:1b:f4:
         09:36:d9:a0:ce:bf:cc:e2:d8:94:54:79:4e:b3:46:d5:f1:15:
         47:1a:73:19:8d:82:c5:1c:0f:f3:77:94:19:cb:42:a5:bb:6c:
         52:e0:56:fe:77:12:65:66:a4:fc:a2:8b:cd:74:b8:64:11:ba:
         f3:52:1c:23:a4:a3:86:62:cd:12:7e:b6:84:9c:e3:b2:7d:82:
         75:3c:9a:40:39:61:dd:f6:fb:8f:19:03:77:f2:0c:79:d1:74:
         64:0f:04:14:29:f8:d0:58:d7:77:67:12:c4:b5:73:a0:d8:66:
         df:10:6e:08:6f:5b:90:41:06:87:35:e1:3c:b4:65:6a:e5:ec:
         3c:91:94:e1:7a:62:3d:19:3a:56:74:d5:df:78:60:f0:20:27:
         4a:14:f3:1a:04:72:65:1e:be:b9:fc:a2:4a:98:b3:77:35:33:
         f3:91:98:a3:4f:d4:84:b8:dc:a4:02:5c:16:21:11:93:76:4f:
         09:f0:f6:eb:7c:ce:06:ac
-----BEGIN CERTIFICATE-----
MIIGrTCCBJWgAwIBAgICMEQwDQYJKoZIhvcNAQELBQAwgawxCzAJBgNVBAYTAlVT
MQswCQYDVQQIEwJPSDERMA8GA1UEBxMIQ29sdW1idXMxEjAQBgNVBAoTCVZpa2lu
Z1ZQTjEdMBsGA1UECxMUTXlPcmdhbml6YXRpb25hbFVuaXQxFTATBgNVBAMTDFZp
a2luZ1ZQTiBDQTEQMA4GA1UEKRMHRWFzeVJTQTEhMB8GCSqGSIb3DQEJARYSbWVA
bXlob3N0Lm15ZG9tYWluMB4XDTE4MDEwNDIzMTU0NFoXDTI4MDEwMjIzMTU0NFow
HzEdMBsGA1UEAxMUQ2xpZW50MjMxMkNlcnRmOTE2MjIwggIiMA0GCSqGSIb3DQEB
AQUAA4ICDwAwggIKAoICAQDhJ3PzOcAjRHTl3s2pO5oDpaUWLsNOq7k71fvcT4Yg
2lUEKWbXGnt42iW7HqNraLBjWKf1aZLp9bcohCYMNB+sMp3+2oqwFyjTKQYaOjrK
U1FKZf3cb8JSd0y6/QgJbB4v0fsrmNPKlcCjxb3ytZqtaNlpTVBCbwLkLOr5RRvl
PyjZ7Ht/zLHqQQqyELB+TOWnsknrGPIQjCOg8n+05wGGB1pPuO+dXAmFLjekkmsz
E43hY9RL2akI3g7tk95b/m6hvt4W4my/1SjQnJKOrLx9RBxNPqj0dTi1jYsgVuH9
aJfkQSLQ8o7QcpICGtAlc3Ve1MFa25avjgBfH8kUx3x3fZV7OIpzYak134yitX+l
T+6WrTNGp+9jbcQnY5S6gzSl/EmEE+xcLzRsngw5O0SCado7hZngQwRpJe4s3HvG
ebg0ATQSzNrmH3kczlfrdOVTxj2GM/6LSxF2UhIOTR/rLByB2iphX2ofQ3RAQeQ1
S5isZwz/49HNMyDbDUrDeuoI8aCGIj1Y6S/dBzpqu+1EzToceHnXeusj7mSY761U
ybUeQI0CTM/XvWTYiSydImUpDPR9JOY0H7KBGaHRQcQ9zxPfcLi0zs8EWc3JoJQ+
M9C5IwwL0AGP68dJJitkYGHLMipbVY3OCX638+jfmxEsgOIZHRVkGAhm2+nUYYK/
IQIDAQABo4IBYzCCAV8wCQYDVR0TBAIwADAtBglghkgBhvhCAQ0EIBYeRWFzeS1S
U0EgR2VuZXJhdGVkIENlcnRpZmljYXRlMB0GA1UdDgQWBBTBvbxXIcRAHRiUcNSl
KYmWGVBn8DCB4QYDVR0jBIHZMIHWgBQSzWAE0qCAnnDtxpm4eyzGUv0ZoaGBsqSB
rzCBrDELMAkGA1UEBhMCVVMxCzAJBgNVBAgTAk9IMREwDwYDVQQHEwhDb2x1bWJ1
czESMBAGA1UEChMJVmlraW5nVlBOMR0wGwYDVQQLExRNeU9yZ2FuaXphdGlvbmFs
VW5pdDEVMBMGA1UEAxMMVmlraW5nVlBOIENBMRAwDgYDVQQpEwdFYXN5UlNBMSEw
HwYJKoZIhvcNAQkBFhJtZUBteWhvc3QubXlkb21haW6CCQDPNYXugL8qPjATBgNV
HSUEDDAKBggrBgEFBQcDAjALBgNVHQ8EBAMCB4AwDQYJKoZIhvcNAQELBQADggIB
AHMk1ojrWuA2ncauTcOkhRj19KYES1BwgdZl+oyNniCvADNGB+VN17h4Rrs1taF6
FfiN1/GE4oYYEWZbBLihQQusKwA7rhY7dDPnoUWm5HDutZT5m5XUIg1Jx3a0FePX
D89EYYVODyuuLrZ69BsoFyqGCjoWzI7Q8aDE6tdeXrcd4bLQbEtzrxeT+aGhYKgD
ZSFS6Ob2rndagIAjpSuJSec2B1nkl8T5c/YlRAKVIiefm0w+fgG/SlWusQ7eWSh7
+D4jLIh3wk6MM/sv9sPxkxBMyS7W4SLyh/BSXVkCYbrZNUAvVLe4BMqmqUsfZNZp
bXurM0kRHaRxw7FYx/uZzNi0/2Pa0cD2tXCkEOcj1Mqgv2QCbSl3iDZpFCm62OmK
DgPCYbao7PvXhft4wqPwjJ0+ahGIsig5w2Bfr7raFGrTD5Qb9Ak22aDOv8zi2JRU
eU6zRtXxFUcacxmNgsUcD/N3lBnLQqW7bFLgVv53EmVmpPyii810uGQRuvNSHCOk
o4ZizRJ+toSc47J9gnU8mkA5Yd32+48ZA3fyDHnRdGQPBBQp+NBY13dnEsS1c6DY
Zt8QbghvW5BBBoc14Ty0ZWrl7DyRlOF6Yj0ZOlZ01d94YPAgJ0oU8xoEcmUevrn8
okqYs3c1M/ORmKNP1IS43KQCXBYhEZN2Twnw9ut8zgas
-----END CERTIFICATE-----
