Certificate:
    Data:
        Version: 3 (0x2)
        Serial Number: 12436 (0x3094)
    Signature Algorithm: sha256WithRSAEncryption
        Issuer: C=US, ST=OH, L=Columbus, O=VikingVPN, OU=MyOrganizationalUnit, CN=VikingVPN CA/name=EasyRSA/emailAddress=me@myhost.mydomain
        Validity
            Not Before: Jan 17 17:58:16 2018 GMT
            Not After : Jan 15 17:58:16 2028 GMT
        Subject: CN=Client2953Cert7b2bc5
        Subject Public Key Info:
            Public Key Algorithm: rsaEncryption
                Public-Key: (4096 bit)
                Modulus:
                    00:c1:47:7b:6c:5e:38:7c:d7:d5:e5:4a:34:23:91:
                    be:7b:47:93:66:3c:6d:bd:3c:c8:f4:64:63:9d:81:
                    42:29:f7:14:cc:f8:21:50:6c:d2:4b:68:cb:e5:aa:
                    c3:77:1f:49:23:bb:ae:4e:ad:8c:6b:d6:74:d8:d6:
                    73:ca:94:f6:88:48:b0:bc:09:03:84:04:8c:16:2c:
                    c0:88:43:fd:e6:69:59:70:76:6a:ab:73:ec:b2:c5:
                    17:29:1a:bd:52:c1:f4:72:15:6d:6e:48:56:6e:07:
                    cb:b6:ae:04:23:2d:6f:2a:e5:da:e1:04:19:d4:37:
                    82:c8:b0:ff:7d:04:12:6e:2b:da:f9:0e:a9:81:d6:
                    59:04:26:62:ef:51:fd:d9:6f:50:2c:83:f6:a4:ed:
                    5a:c6:05:63:31:e6:a7:5a:f1:a9:00:b7:5a:af:4f:
                    fd:bd:b7:89:e9:60:08:68:43:25:e3:81:cd:6f:e2:
                    3c:ee:f0:f0:ab:32:5f:e2:ca:04:01:22:f8:9d:85:
                    9e:0b:5c:d7:09:ec:fe:0e:0f:bf:1f:48:ca:5f:9f:
                    59:ba:45:c9:a0:24:3d:73:18:8e:5d:b4:69:77:b5:
                    3b:87:d7:5c:90:96:c4:38:91:96:ee:9b:fa:2b:67:
                    62:3d:6f:9c:0e:fe:c7:5e:9c:75:94:8b:ed:75:ce:
                    93:f2:03:2d:de:17:ef:73:92:cd:9f:bc:51:b4:76:
                    17:3a:5f:d8:92:bf:e2:a5:6b:20:86:e4:06:f3:e2:
                    86:8e:10:7c:e4:fb:ee:e9:67:e5:09:23:e8:84:e4:
                    28:e1:81:28:34:b4:1a:52:04:28:df:8e:51:00:9b:
                    22:2f:e6:c2:0f:7e:49:aa:48:16:7a:55:63:06:f1:
                    95:17:15:2a:1e:5f:34:2b:a6:77:d6:71:2c:10:46:
                    65:db:17:c9:cb:43:4c:e8:72:89:d9:a5:1b:94:51:
                    56:89:7d:41:59:ef:aa:4f:43:40:b0:8b:ef:59:11:
                    7e:9e:1d:56:71:4f:92:a7:dc:b6:9b:56:0c:fa:d8:
                    c0:2b:ae:f1:6d:67:ac:63:f4:14:18:b5:6f:1a:81:
                    b9:50:ac:5d:03:f2:7d:5e:1a:bf:9f:43:04:82:fe:
                    12:da:cc:e1:55:c4:38:a9:b5:41:77:31:3b:cb:c0:
                    3c:fa:a1:05:be:17:eb:84:e9:1d:b1:a0:a5:0c:97:
                    8c:8d:bb:0f:53:a3:8c:4f:41:5f:49:d0:b5:ff:bd:
                    70:3e:e5:a1:e2:3f:74:76:c3:36:fa:c0:77:02:e5:
                    0d:be:ea:2b:89:91:6b:52:2d:85:a1:3b:3a:76:90:
                    9f:bb:6d:d2:cf:58:90:8d:d4:a2:1b:1d:28:6a:dd:
                    04:41:eb
                Exponent: 65537 (0x10001)
        X509v3 extensions:
            X509v3 Basic Constraints: 
                CA:FALSE
            Netscape Comment: 
                Easy-RSA Generated Certificate
            X509v3 Subject Key Identifier: 
                6A:C3:38:6C:D3:E2:4E:61:1B:74:E4:A6:B6:58:C2:C3:8E:DA:CA:A0
            X509v3 Authority Key Identifier: 
                keyid:12:CD:60:04:D2:A0:80:9E:70:ED:C6:99:B8:7B:2C:C6:52:FD:19:A1
                DirName:/C=US/ST=OH/L=Columbus/O=VikingVPN/OU=MyOrganizationalUnit/CN=VikingVPN CA/name=EasyRSA/emailAddress=me@myhost.mydomain
                serial:CF:35:85:EE:80:BF:2A:3E

            X509v3 Extended Key Usage: 
                TLS Web Client Authentication
            X509v3 Key Usage: 
                Digital Signature
    Signature Algorithm: sha256WithRSAEncryption
         a9:f4:1e:f2:ca:b2:0c:f1:01:6e:19:32:5d:e1:c2:24:57:8b:
         84:b8:aa:b0:99:7a:7f:2d:c1:ef:1f:88:04:95:bb:f0:99:f5:
         b8:6e:6b:12:c1:ac:8e:9c:5d:e2:59:df:ff:e8:cb:08:a7:06:
         30:e6:ab:36:eb:86:68:45:67:1d:26:f7:04:f1:21:fe:56:c4:
         11:0e:13:c3:e2:d5:9b:64:4f:8c:88:3f:33:1c:85:d7:40:22:
         94:2c:a5:6c:71:a1:21:5a:b0:a8:d9:6c:5a:56:77:4e:1a:7f:
         e7:1f:34:19:6c:36:3c:43:e5:1f:cb:68:9e:2f:e6:61:d8:24:
         81:90:47:11:e0:11:57:fe:15:3a:45:56:66:3c:17:a3:2e:f2:
         b0:1b:0b:86:60:62:a8:58:bb:f3:27:a8:51:b2:47:99:a6:a9:
         9b:f1:3d:92:4f:8d:77:0c:6d:92:46:0f:5e:c5:4d:e9:72:7e:
         b7:de:c9:b1:bd:3c:f1:6a:ab:f0:e8:e9:59:79:ad:71:0c:71:
         3f:b8:61:13:f0:d8:a4:ef:05:a1:7e:e6:af:5a:ba:8b:e7:25:
         c2:77:ce:39:20:7f:da:3d:c5:c2:67:b1:f1:97:45:7b:3b:c6:
         c6:51:e0:63:0d:91:24:49:b6:14:2c:9f:9a:25:a7:28:b7:1b:
         b7:6a:55:08:05:ea:74:aa:3d:7a:99:a7:9f:9b:a0:04:41:39:
         d3:2c:ff:93:cf:21:7f:db:aa:34:f4:2e:e6:02:81:d9:14:b4:
         90:bc:08:7f:3c:18:2c:c6:8d:bb:62:05:aa:3d:42:08:b5:5d:
         20:78:c3:df:e4:19:b3:c7:06:bd:42:c6:ba:17:ca:2e:53:57:
         2b:97:2e:6a:4b:74:3f:6b:76:bf:92:51:87:82:43:77:1a:e8:
         72:cf:ca:05:18:c4:dc:e1:58:ff:d8:80:e3:55:10:0b:92:3a:
         cf:f6:71:2b:bf:36:e3:6c:e0:f3:95:68:70:d0:ec:e4:08:9e:
         8e:a0:be:3e:ab:b1:c4:53:86:55:b8:3e:bf:a4:d9:fa:96:b8:
         d2:35:66:67:d4:dc:a5:8c:75:63:47:49:06:7c:51:82:e7:1f:
         b2:69:69:d9:3a:a2:00:8f:59:14:36:6d:40:93:f1:26:a3:63:
         0d:53:ab:a4:80:90:f2:f2:0d:af:f9:d3:18:ce:42:f8:1b:6b:
         27:ca:e5:e0:e8:0c:81:9f:f5:22:82:e5:11:86:e1:6f:71:7b:
         43:39:cd:c4:fa:b4:1a:2a:ca:40:f8:73:9d:e7:f9:03:9d:84:
         12:36:e6:3d:9a:5a:6b:9b:1b:bc:5a:ad:32:25:b7:7c:0f:b0:
         85:bb:f0:dd:af:d1:59:57
-----BEGIN CERTIFICATE-----
MIIGrTCCBJWgAwIBAgICMJQwDQYJKoZIhvcNAQELBQAwgawxCzAJBgNVBAYTAlVT
MQswCQYDVQQIEwJPSDERMA8GA1UEBxMIQ29sdW1idXMxEjAQBgNVBAoTCVZpa2lu
Z1ZQTjEdMBsGA1UECxMUTXlPcmdhbml6YXRpb25hbFVuaXQxFTATBgNVBAMTDFZp
a2luZ1ZQTiBDQTEQMA4GA1UEKRMHRWFzeVJTQTEhMB8GCSqGSIb3DQEJARYSbWVA
bXlob3N0Lm15ZG9tYWluMB4XDTE4MDExNzE3NTgxNloXDTI4MDExNTE3NTgxNlow
HzEdMBsGA1UEAxMUQ2xpZW50Mjk1M0NlcnQ3YjJiYzUwggIiMA0GCSqGSIb3DQEB
AQUAA4ICDwAwggIKAoICAQDBR3tsXjh819XlSjQjkb57R5NmPG29PMj0ZGOdgUIp
9xTM+CFQbNJLaMvlqsN3H0kju65OrYxr1nTY1nPKlPaISLC8CQOEBIwWLMCIQ/3m
aVlwdmqrc+yyxRcpGr1SwfRyFW1uSFZuB8u2rgQjLW8q5drhBBnUN4LIsP99BBJu
K9r5DqmB1lkEJmLvUf3Zb1Asg/ak7VrGBWMx5qda8akAt1qvT/29t4npYAhoQyXj
gc1v4jzu8PCrMl/iygQBIvidhZ4LXNcJ7P4OD78fSMpfn1m6RcmgJD1zGI5dtGl3
tTuH11yQlsQ4kZbum/orZ2I9b5wO/sdenHWUi+11zpPyAy3eF+9zks2fvFG0dhc6
X9iSv+KlayCG5Abz4oaOEHzk++7pZ+UJI+iE5CjhgSg0tBpSBCjfjlEAmyIv5sIP
fkmqSBZ6VWMG8ZUXFSoeXzQrpnfWcSwQRmXbF8nLQ0zoconZpRuUUVaJfUFZ76pP
Q0Cwi+9ZEX6eHVZxT5Kn3LabVgz62MArrvFtZ6xj9BQYtW8agblQrF0D8n1eGr+f
QwSC/hLazOFVxDiptUF3MTvLwDz6oQW+F+uE6R2xoKUMl4yNuw9To4xPQV9J0LX/
vXA+5aHiP3R2wzb6wHcC5Q2+6iuJkWtSLYWhOzp2kJ+7bdLPWJCN1KIbHShq3QRB
6wIDAQABo4IBYzCCAV8wCQYDVR0TBAIwADAtBglghkgBhvhCAQ0EIBYeRWFzeS1S
U0EgR2VuZXJhdGVkIENlcnRpZmljYXRlMB0GA1UdDgQWBBRqwzhs0+JOYRt05Ka2
WMLDjtrKoDCB4QYDVR0jBIHZMIHWgBQSzWAE0qCAnnDtxpm4eyzGUv0ZoaGBsqSB
rzCBrDELMAkGA1UEBhMCVVMxCzAJBgNVBAgTAk9IMREwDwYDVQQHEwhDb2x1bWJ1
czESMBAGA1UEChMJVmlraW5nVlBOMR0wGwYDVQQLExRNeU9yZ2FuaXphdGlvbmFs
VW5pdDEVMBMGA1UEAxMMVmlraW5nVlBOIENBMRAwDgYDVQQpEwdFYXN5UlNBMSEw
HwYJKoZIhvcNAQkBFhJtZUBteWhvc3QubXlkb21haW6CCQDPNYXugL8qPjATBgNV
HSUEDDAKBggrBgEFBQcDAjALBgNVHQ8EBAMCB4AwDQYJKoZIhvcNAQELBQADggIB
AKn0HvLKsgzxAW4ZMl3hwiRXi4S4qrCZen8twe8fiASVu/CZ9bhuaxLBrI6cXeJZ
3//oywinBjDmqzbrhmhFZx0m9wTxIf5WxBEOE8Pi1ZtkT4yIPzMchddAIpQspWxx
oSFasKjZbFpWd04af+cfNBlsNjxD5R/LaJ4v5mHYJIGQRxHgEVf+FTpFVmY8F6Mu
8rAbC4ZgYqhYu/MnqFGyR5mmqZvxPZJPjXcMbZJGD17FTelyfrfeybG9PPFqq/Do
6Vl5rXEMcT+4YRPw2KTvBaF+5q9auovnJcJ3zjkgf9o9xcJnsfGXRXs7xsZR4GMN
kSRJthQsn5olpyi3G7dqVQgF6nSqPXqZp5+boARBOdMs/5PPIX/bqjT0LuYCgdkU
tJC8CH88GCzGjbtiBao9Qgi1XSB4w9/kGbPHBr1CxroXyi5TVyuXLmpLdD9rdr+S
UYeCQ3ca6HLPygUYxNzhWP/YgONVEAuSOs/2cSu/NuNs4POVaHDQ7OQIno6gvj6r
scRThlW4Pr+k2fqWuNI1ZmfU3KWMdWNHSQZ8UYLnH7Jpadk6ogCPWRQ2bUCT8Saj
Yw1Tq6SAkPLyDa/50xjOQvgbayfK5eDoDIGf9SKC5RGG4W9xe0M5zcT6tBoqykD4
c53n+QOdhBI25j2aWmubG7xarTIlt3wPsIW78N2v0VlX
-----END CERTIFICATE-----
