Certificate:
    Data:
        Version: 3 (0x2)
        Serial Number: 12438 (0x3096)
    Signature Algorithm: sha256WithRSAEncryption
        Issuer: C=US, ST=OH, L=Columbus, O=VikingVPN, OU=MyOrganizationalUnit, CN=VikingVPN CA/name=EasyRSA/emailAddress=me@myhost.mydomain
        Validity
            Not Before: Jan 18 04:51:58 2018 GMT
            Not After : Jan 16 04:51:58 2028 GMT
        Subject: CN=Client3207Cert91e9c6
        Subject Public Key Info:
            Public Key Algorithm: rsaEncryption
                Public-Key: (4096 bit)
                Modulus:
                    00:be:c7:8a:5a:64:f0:88:ac:d6:61:81:25:28:35:
                    be:d3:3f:cb:fd:95:01:e9:29:ac:81:27:a3:df:31:
                    54:6d:be:92:43:e6:b8:61:04:48:34:63:06:ac:ac:
                    46:40:66:65:9c:ac:b3:23:3d:97:a0:2d:37:9c:53:
                    a9:bc:ed:eb:5d:cb:48:c4:aa:19:9a:c4:3e:97:e5:
                    ff:e3:0b:89:20:22:74:f8:8a:09:ed:9c:12:72:70:
                    c9:f7:1e:04:e9:5c:5b:a5:20:01:4e:85:cb:c5:8d:
                    71:d1:96:0d:1a:f3:a6:26:ea:61:44:6c:ed:4f:fc:
                    35:54:e7:2d:d9:60:86:74:d7:80:e8:5b:29:c5:62:
                    fb:49:2a:5a:7e:a2:68:65:38:cf:33:ed:81:e1:15:
                    52:80:8f:7f:1b:2c:97:f3:d9:08:ec:27:ad:f0:31:
                    e0:dd:80:fc:bf:90:f1:9f:b9:e8:ff:35:28:4c:ba:
                    ca:08:4c:1d:57:b7:8a:45:1a:39:ec:4d:d4:20:61:
                    e1:16:f7:22:38:6b:75:4f:f1:30:6c:ff:ae:3c:25:
                    b7:ae:03:27:51:ee:f9:94:e1:33:b1:6b:4b:10:6c:
                    29:52:41:e6:a9:ee:b9:cb:ef:ec:ed:c5:9d:f4:d5:
                    bc:98:61:9a:8c:63:90:39:59:10:cf:3a:ea:e6:7f:
                    58:3c:fe:fd:f9:f5:eb:dc:2b:f6:dd:a8:c3:57:04:
                    a7:5c:76:ad:6a:7c:05:cb:b6:70:6a:17:d1:25:10:
                    d4:15:e9:12:03:c6:5c:aa:0b:2d:f9:ab:f1:33:52:
                    a9:e4:dc:01:c7:12:4e:d1:f5:98:50:5f:28:ab:24:
                    35:88:c2:b2:3b:18:9c:b6:2e:31:89:25:2f:9c:ff:
                    bd:54:01:a3:fd:0c:5c:3c:f1:0b:1e:00:86:c3:94:
                    78:9d:16:93:36:09:89:f8:5a:97:c9:db:84:3e:af:
                    3b:10:5e:0b:3d:c2:a7:c2:d0:c2:36:c2:0e:3c:fa:
                    e7:b3:00:e6:a3:b9:42:fc:8b:2d:90:27:bf:1f:a6:
                    38:df:38:a0:ca:74:a2:7c:ba:e6:d2:d6:96:54:44:
                    4c:ce:b5:a2:b4:13:2c:cd:67:c5:c5:6e:7a:d7:c3:
                    54:b8:00:6d:ec:3f:3b:a9:71:9d:b7:f6:6a:de:80:
                    71:67:ba:91:5a:f4:5f:c2:3d:eb:e7:4a:8a:c7:d6:
                    3b:e4:bb:25:a0:1e:59:c1:96:b1:e5:29:ea:d6:7f:
                    01:9c:2c:c7:28:9d:fe:81:c1:ca:b2:57:6d:3f:8b:
                    73:da:cc:62:41:b6:32:a8:44:b7:c7:d1:7e:55:f7:
                    d2:d6:3f:53:e1:23:27:71:83:24:f9:c6:30:84:01:
                    87:11:f5
                Exponent: 65537 (0x10001)
        X509v3 extensions:
            X509v3 Basic Constraints: 
                CA:FALSE
            Netscape Comment: 
                Easy-RSA Generated Certificate
            X509v3 Subject Key Identifier: 
                12:E1:11:7F:D4:03:D6:6E:88:4D:CA:0C:83:0C:73:0B:90:13:3A:A1
            X509v3 Authority Key Identifier: 
                keyid:12:CD:60:04:D2:A0:80:9E:70:ED:C6:99:B8:7B:2C:C6:52:FD:19:A1
                DirName:/C=US/ST=OH/L=Columbus/O=VikingVPN/OU=MyOrganizationalUnit/CN=VikingVPN CA/name=EasyRSA/emailAddress=me@myhost.mydomain
                serial:CF:35:85:EE:80:BF:2A:3E

            X509v3 Extended Key Usage: 
                TLS Web Client Authentication
            X509v3 Key Usage: 
                Digital Signature
    Signature Algorithm: sha256WithRSAEncryption
         27:48:93:0e:88:b5:29:0d:2b:cb:98:79:d3:04:64:81:f1:e2:
         49:46:7c:ec:57:58:bf:6a:7e:61:13:ef:f8:54:ff:af:ac:fc:
         31:93:36:89:9e:b0:61:56:13:67:4e:69:80:f5:f1:38:6e:92:
         a3:4a:50:01:3b:69:f0:c4:25:86:3a:de:ef:b2:4f:06:c9:14:
         a1:f9:81:3a:be:6b:1d:4b:4f:68:03:8b:74:e0:8e:39:5d:bf:
         c9:f0:3b:a7:c3:80:a6:b5:6f:5e:48:35:be:2a:cb:ab:f5:10:
         95:8f:80:7c:df:9f:b6:0c:e6:09:68:f9:d7:69:df:93:64:fb:
         26:b9:46:3e:08:b3:79:f9:65:ae:62:c1:13:b3:09:23:4d:89:
         af:55:8f:31:8f:f4:fd:74:91:33:04:14:72:f4:7d:30:75:87:
         ca:09:ba:7c:f3:45:2f:eb:92:f1:48:51:01:28:cc:45:6b:9e:
         66:ec:9f:3d:54:6c:ec:0f:c2:6e:9c:72:c0:fa:72:c4:49:12:
         b9:e4:30:64:4a:28:10:9c:c9:56:d4:e6:bd:c9:a1:a6:d7:9e:
         9d:86:a3:ba:2f:a3:0d:67:53:5c:80:ba:d1:ae:37:5e:7f:e2:
         99:43:86:c2:35:3b:f8:bd:f8:ef:3f:b2:85:bf:96:ee:73:4f:
         36:9d:0a:16:25:93:dc:49:af:5e:93:4c:37:f5:84:ff:dc:b7:
         0c:73:08:94:f7:9c:2e:c4:66:f5:92:0f:6e:54:98:b3:5d:05:
         4d:8a:c9:a6:75:73:60:f6:2e:d8:b6:63:41:ac:79:64:5c:79:
         f8:81:81:af:11:88:a1:0e:df:58:16:51:0d:90:2d:66:8a:f5:
         06:b0:a5:70:df:52:5f:d4:ad:e7:89:f7:2e:eb:4d:cf:57:1c:
         ce:8a:50:99:7f:df:91:7b:ed:84:52:b1:18:ca:eb:bd:19:b2:
         a3:fc:d7:5a:70:f7:6a:85:11:78:1b:29:75:6e:17:87:51:4a:
         6c:44:68:ab:a2:fc:a0:eb:55:3c:b8:b0:a6:3c:d0:1b:8d:33:
         59:8b:92:fc:7c:3d:d8:45:85:38:db:eb:c7:58:07:c7:67:92:
         13:19:c1:90:70:65:37:55:42:ef:f9:e5:cb:3e:cd:36:82:fc:
         75:56:b9:d4:59:a9:28:ca:25:48:50:a2:14:2d:b9:8b:8a:06:
         69:40:21:a6:80:d4:4a:ea:27:05:75:0f:4d:be:48:3f:b0:bc:
         1d:a5:f7:1c:88:39:f6:15:cb:8f:cc:f4:bf:fb:61:34:11:35:
         37:e0:b2:95:d2:64:3c:8d:21:60:2d:f5:ea:ca:22:7c:90:9e:
         fb:52:ea:94:54:a6:85:6a
-----BEGIN CERTIFICATE-----
MIIGrTCCBJWgAwIBAgICMJYwDQYJKoZIhvcNAQELBQAwgawxCzAJBgNVBAYTAlVT
MQswCQYDVQQIEwJPSDERMA8GA1UEBxMIQ29sdW1idXMxEjAQBgNVBAoTCVZpa2lu
Z1ZQTjEdMBsGA1UECxMUTXlPcmdhbml6YXRpb25hbFVuaXQxFTATBgNVBAMTDFZp
a2luZ1ZQTiBDQTEQMA4GA1UEKRMHRWFzeVJTQTEhMB8GCSqGSIb3DQEJARYSbWVA
bXlob3N0Lm15ZG9tYWluMB4XDTE4MDExODA0NTE1OFoXDTI4MDExNjA0NTE1OFow
HzEdMBsGA1UEAxMUQ2xpZW50MzIwN0NlcnQ5MWU5YzYwggIiMA0GCSqGSIb3DQEB
AQUAA4ICDwAwggIKAoICAQC+x4paZPCIrNZhgSUoNb7TP8v9lQHpKayBJ6PfMVRt
vpJD5rhhBEg0YwasrEZAZmWcrLMjPZegLTecU6m87etdy0jEqhmaxD6X5f/jC4kg
InT4igntnBJycMn3HgTpXFulIAFOhcvFjXHRlg0a86Ym6mFEbO1P/DVU5y3ZYIZ0
14DoWynFYvtJKlp+omhlOM8z7YHhFVKAj38bLJfz2QjsJ63wMeDdgPy/kPGfuej/
NShMusoITB1Xt4pFGjnsTdQgYeEW9yI4a3VP8TBs/648JbeuAydR7vmU4TOxa0sQ
bClSQeap7rnL7+ztxZ301byYYZqMY5A5WRDPOurmf1g8/v359evcK/bdqMNXBKdc
dq1qfAXLtnBqF9ElENQV6RIDxlyqCy35q/EzUqnk3AHHEk7R9ZhQXyirJDWIwrI7
GJy2LjGJJS+c/71UAaP9DFw88QseAIbDlHidFpM2CYn4WpfJ24Q+rzsQXgs9wqfC
0MI2wg48+uezAOajuUL8iy2QJ78fpjjfOKDKdKJ8uubS1pZUREzOtaK0EyzNZ8XF
bnrXw1S4AG3sPzupcZ239mregHFnupFa9F/CPevnSorH1jvkuyWgHlnBlrHlKerW
fwGcLMconf6BwcqyV20/i3PazGJBtjKoRLfH0X5V99LWP1PhIydxgyT5xjCEAYcR
9QIDAQABo4IBYzCCAV8wCQYDVR0TBAIwADAtBglghkgBhvhCAQ0EIBYeRWFzeS1S
U0EgR2VuZXJhdGVkIENlcnRpZmljYXRlMB0GA1UdDgQWBBQS4RF/1APWbohNygyD
DHMLkBM6oTCB4QYDVR0jBIHZMIHWgBQSzWAE0qCAnnDtxpm4eyzGUv0ZoaGBsqSB
rzCBrDELMAkGA1UEBhMCVVMxCzAJBgNVBAgTAk9IMREwDwYDVQQHEwhDb2x1bWJ1
czESMBAGA1UEChMJVmlraW5nVlBOMR0wGwYDVQQLExRNeU9yZ2FuaXphdGlvbmFs
VW5pdDEVMBMGA1UEAxMMVmlraW5nVlBOIENBMRAwDgYDVQQpEwdFYXN5UlNBMSEw
HwYJKoZIhvcNAQkBFhJtZUBteWhvc3QubXlkb21haW6CCQDPNYXugL8qPjATBgNV
HSUEDDAKBggrBgEFBQcDAjALBgNVHQ8EBAMCB4AwDQYJKoZIhvcNAQELBQADggIB
ACdIkw6ItSkNK8uYedMEZIHx4klGfOxXWL9qfmET7/hU/6+s/DGTNomesGFWE2dO
aYD18ThukqNKUAE7afDEJYY63u+yTwbJFKH5gTq+ax1LT2gDi3Tgjjldv8nwO6fD
gKa1b15INb4qy6v1EJWPgHzfn7YM5glo+ddp35Nk+ya5Rj4Is3n5Za5iwROzCSNN
ia9VjzGP9P10kTMEFHL0fTB1h8oJunzzRS/rkvFIUQEozEVrnmbsnz1UbOwPwm6c
csD6csRJErnkMGRKKBCcyVbU5r3JoabXnp2Go7ovow1nU1yAutGuN15/4plDhsI1
O/i9+O8/soW/lu5zTzadChYlk9xJr16TTDf1hP/ctwxzCJT3nC7EZvWSD25UmLNd
BU2KyaZ1c2D2Lti2Y0GseWRcefiBga8RiKEO31gWUQ2QLWaK9QawpXDfUl/UreeJ
9y7rTc9XHM6KUJl/35F77YRSsRjK670ZsqP811pw92qFEXgbKXVuF4dRSmxEaKui
/KDrVTy4sKY80BuNM1mLkvx8PdhFhTjb68dYB8dnkhMZwZBwZTdVQu/55cs+zTaC
/HVWudRZqSjKJUhQohQtuYuKBmlAIaaA1ErqJwV1D02+SD+wvB2l9xyIOfYVy4/M
9L/7YTQRNTfgspXSZDyNIWAt9erKInyQnvtS6pRUpoVq
-----END CERTIFICATE-----
