Certificate:
    Data:
        Version: 3 (0x2)
        Serial Number: 12443 (0x309b)
    Signature Algorithm: sha256WithRSAEncryption
        Issuer: C=US, ST=OH, L=Columbus, O=VikingVPN, OU=MyOrganizationalUnit, CN=VikingVPN CA/name=EasyRSA/emailAddress=me@myhost.mydomain
        Validity
            Not Before: Jan 19 00:52:40 2018 GMT
            Not After : Jan 17 00:52:40 2028 GMT
        Subject: CN=Client3164Certe69678
        Subject Public Key Info:
            Public Key Algorithm: rsaEncryption
                Public-Key: (4096 bit)
                Modulus:
                    00:d9:f4:63:98:70:31:88:2c:4c:34:f7:97:11:f6:
                    f6:2b:14:de:77:c3:fb:83:9e:0d:bc:61:4d:e9:09:
                    1b:d0:55:f2:4e:81:f0:12:29:90:f2:d6:d5:5a:e5:
                    a8:60:80:cc:c4:d1:f9:bd:21:5b:f4:a5:b2:27:34:
                    dc:6c:47:2c:c9:fb:a8:81:fc:f1:f1:3b:e2:f4:49:
                    a5:39:a7:be:a2:2c:b7:68:93:4a:22:84:54:fe:dd:
                    31:ea:fd:b3:33:31:3a:96:ad:d4:22:a3:62:1e:9d:
                    7f:a3:2e:b4:24:ac:b8:32:42:8f:1d:ef:d0:94:df:
                    05:55:2b:eb:86:34:18:1f:23:90:02:7f:63:70:98:
                    62:47:a7:11:70:99:e2:2a:0b:47:ed:ad:8e:6d:24:
                    a9:58:7f:4f:ff:d4:06:3e:35:e5:9e:0d:56:90:ab:
                    cb:30:20:fe:8d:0b:b9:c9:67:6b:7a:34:ee:98:06:
                    8f:16:69:9b:ae:fe:26:d9:e2:c4:f4:43:bd:49:ac:
                    ae:33:f3:18:6f:9f:9e:5a:62:d3:6d:87:09:7d:f5:
                    85:4d:a5:30:4a:b0:6a:9a:2f:88:6d:4e:e9:5a:a0:
                    21:92:19:40:77:70:62:0f:2e:40:2a:b8:8e:7a:43:
                    bb:20:61:33:45:0f:24:8a:fb:77:0d:2d:71:be:0b:
                    95:dd:c3:a6:91:df:10:01:b8:4c:d0:dd:cb:11:e0:
                    92:63:57:09:0b:b1:5a:68:dc:16:b7:c8:3e:35:46:
                    1b:2f:1d:f5:a8:0b:8d:5c:8b:cf:f7:56:4d:b4:01:
                    09:c4:5d:80:53:18:fa:26:81:36:54:9a:5d:5a:bd:
                    9c:d8:2c:dc:20:62:d9:4e:d3:0b:28:3c:0a:76:8a:
                    b0:c3:ce:17:a7:14:8f:8a:c4:cb:af:13:8a:24:ca:
                    14:a8:90:36:21:b3:1c:80:a4:b1:90:76:b6:5e:a1:
                    a8:5c:9a:03:9d:5b:32:1e:be:7c:14:bb:c3:02:1c:
                    cf:0e:a9:a2:b2:4a:3f:cf:fa:db:e1:ce:dc:c7:8a:
                    52:57:f0:9f:f0:22:a5:0c:9c:1e:4b:c4:1b:f5:1c:
                    69:47:13:70:16:54:ab:98:02:1a:8a:2b:f4:42:7a:
                    6d:08:7c:dc:df:f3:14:6d:b4:5e:3d:ec:68:dc:fb:
                    b1:fc:e0:43:bd:88:e9:35:63:27:ca:dc:86:15:52:
                    38:0d:d0:9d:55:81:d3:cb:2e:55:fa:ed:d9:15:8a:
                    7b:84:75:ef:01:63:3e:85:4c:7e:9c:a8:6d:3b:a8:
                    75:36:1c:54:03:df:4a:8a:56:4e:8e:ed:ee:4f:aa:
                    01:95:89:3e:3d:03:37:44:3b:b8:aa:9a:00:13:5d:
                    ed:cb:e3
                Exponent: 65537 (0x10001)
        X509v3 extensions:
            X509v3 Basic Constraints: 
                CA:FALSE
            Netscape Comment: 
                Easy-RSA Generated Certificate
            X509v3 Subject Key Identifier: 
                3F:7E:23:94:D7:13:42:A8:44:52:B3:DE:0D:5D:48:5A:A3:B5:2C:65
            X509v3 Authority Key Identifier: 
                keyid:12:CD:60:04:D2:A0:80:9E:70:ED:C6:99:B8:7B:2C:C6:52:FD:19:A1
                DirName:/C=US/ST=OH/L=Columbus/O=VikingVPN/OU=MyOrganizationalUnit/CN=VikingVPN CA/name=EasyRSA/emailAddress=me@myhost.mydomain
                serial:CF:35:85:EE:80:BF:2A:3E

            X509v3 Extended Key Usage: 
                TLS Web Client Authentication
            X509v3 Key Usage: 
                Digital Signature
    Signature Algorithm: sha256WithRSAEncryption
         07:d1:66:8b:ee:cb:7b:10:5e:89:28:22:61:d1:b0:69:77:65:
         cd:eb:aa:5c:6c:f1:dc:bd:15:2b:fb:b4:da:fc:76:30:2c:48:
         86:ee:48:78:76:80:1d:30:92:49:da:4e:54:56:0d:39:cf:4b:
         50:a3:f7:ad:f0:c8:be:75:77:de:a7:e7:c9:45:8e:06:a0:0f:
         0d:41:cd:3e:3f:14:be:dc:7e:1f:6a:57:b2:0c:31:a7:46:71:
         01:92:38:24:25:b7:2e:cb:a7:51:d7:48:97:d1:bf:62:71:63:
         96:c2:d2:a3:6e:51:79:56:97:e3:d1:a2:b1:1a:3f:2c:64:c6:
         86:b2:14:f6:a2:8c:32:54:4e:b2:ed:92:0d:cf:cc:2d:df:c7:
         60:99:a2:b8:56:c1:1e:43:18:3e:6e:33:e7:a6:4d:0b:88:70:
         d3:2f:79:97:35:ea:cf:f5:85:7e:14:cc:7e:12:d3:ef:1c:b5:
         f4:fb:47:9e:f4:96:ac:96:41:06:83:82:9b:50:a9:e3:8e:3b:
         44:9f:72:1b:c1:89:e5:1b:dd:ab:da:2d:85:2d:bc:76:e1:d4:
         3f:fa:58:94:61:e1:23:01:dc:0d:2a:88:1b:ac:4e:66:ab:4a:
         b1:11:ab:02:9c:3e:e0:85:45:59:de:0d:e0:c0:4e:ed:d7:e9:
         63:96:60:49:53:22:ce:ad:5c:c8:25:c0:eb:b4:18:12:2e:e8:
         61:58:e9:a9:e7:0e:e0:a3:d6:c9:4c:f8:9d:0a:0e:ad:e8:8e:
         f6:7d:55:9d:88:ff:7b:74:bb:db:69:8a:5b:38:fa:dc:e3:4d:
         98:df:4c:c8:2d:9e:bb:ca:e0:55:12:99:7c:09:67:ab:71:7e:
         22:51:46:50:d8:02:4a:0e:33:61:f8:53:3d:60:9e:1a:39:ae:
         7d:5b:e5:04:0f:2c:0f:3b:22:fa:b1:15:05:72:db:b2:be:2e:
         37:26:f4:ce:fe:33:86:20:ef:e8:9e:ce:9f:c3:91:22:71:cf:
         e0:7a:31:32:5b:4b:c9:e5:37:14:9f:9b:75:c5:e6:3d:5d:a7:
         23:28:1d:9c:3b:b0:92:78:35:7b:67:8c:9d:77:43:5c:da:f3:
         17:b1:c0:78:e0:ca:e5:ac:33:be:dc:4f:53:be:8b:68:38:37:
         52:39:0a:e5:a1:e2:af:6c:7e:2c:20:f8:88:c1:6f:4a:a1:c8:
         29:ff:0d:5b:30:3d:96:a5:fc:01:17:80:a6:c7:82:f8:94:5b:
         66:93:43:9c:b9:96:1b:37:93:4e:00:c7:41:59:cb:6e:0d:1c:
         a3:48:69:5c:56:16:08:58:f4:2c:6c:34:64:02:b7:8e:5c:20:
         f4:99:96:dd:37:12:b7:67
-----BEGIN CERTIFICATE-----
MIIGrTCCBJWgAwIBAgICMJswDQYJKoZIhvcNAQELBQAwgawxCzAJBgNVBAYTAlVT
MQswCQYDVQQIEwJPSDERMA8GA1UEBxMIQ29sdW1idXMxEjAQBgNVBAoTCVZpa2lu
Z1ZQTjEdMBsGA1UECxMUTXlPcmdhbml6YXRpb25hbFVuaXQxFTATBgNVBAMTDFZp
a2luZ1ZQTiBDQTEQMA4GA1UEKRMHRWFzeVJTQTEhMB8GCSqGSIb3DQEJARYSbWVA
bXlob3N0Lm15ZG9tYWluMB4XDTE4MDExOTAwNTI0MFoXDTI4MDExNzAwNTI0MFow
HzEdMBsGA1UEAxMUQ2xpZW50MzE2NENlcnRlNjk2NzgwggIiMA0GCSqGSIb3DQEB
AQUAA4ICDwAwggIKAoICAQDZ9GOYcDGILEw095cR9vYrFN53w/uDng28YU3pCRvQ
VfJOgfASKZDy1tVa5ahggMzE0fm9IVv0pbInNNxsRyzJ+6iB/PHxO+L0SaU5p76i
LLdok0oihFT+3THq/bMzMTqWrdQio2IenX+jLrQkrLgyQo8d79CU3wVVK+uGNBgf
I5ACf2NwmGJHpxFwmeIqC0ftrY5tJKlYf0//1AY+NeWeDVaQq8swIP6NC7nJZ2t6
NO6YBo8WaZuu/ibZ4sT0Q71JrK4z8xhvn55aYtNthwl99YVNpTBKsGqaL4htTula
oCGSGUB3cGIPLkAquI56Q7sgYTNFDySK+3cNLXG+C5Xdw6aR3xABuEzQ3csR4JJj
VwkLsVpo3Ba3yD41RhsvHfWoC41ci8/3Vk20AQnEXYBTGPomgTZUml1avZzYLNwg
YtlO0wsoPAp2irDDzhenFI+KxMuvE4okyhSokDYhsxyApLGQdrZeoahcmgOdWzIe
vnwUu8MCHM8OqaKySj/P+tvhztzHilJX8J/wIqUMnB5LxBv1HGlHE3AWVKuYAhqK
K/RCem0IfNzf8xRttF497Gjc+7H84EO9iOk1YyfK3IYVUjgN0J1VgdPLLlX67dkV
inuEde8BYz6FTH6cqG07qHU2HFQD30qKVk6O7e5PqgGViT49AzdEO7iqmgATXe3L
4wIDAQABo4IBYzCCAV8wCQYDVR0TBAIwADAtBglghkgBhvhCAQ0EIBYeRWFzeS1S
U0EgR2VuZXJhdGVkIENlcnRpZmljYXRlMB0GA1UdDgQWBBQ/fiOU1xNCqERSs94N
XUhao7UsZTCB4QYDVR0jBIHZMIHWgBQSzWAE0qCAnnDtxpm4eyzGUv0ZoaGBsqSB
rzCBrDELMAkGA1UEBhMCVVMxCzAJBgNVBAgTAk9IMREwDwYDVQQHEwhDb2x1bWJ1
czESMBAGA1UEChMJVmlraW5nVlBOMR0wGwYDVQQLExRNeU9yZ2FuaXphdGlvbmFs
VW5pdDEVMBMGA1UEAxMMVmlraW5nVlBOIENBMRAwDgYDVQQpEwdFYXN5UlNBMSEw
HwYJKoZIhvcNAQkBFhJtZUBteWhvc3QubXlkb21haW6CCQDPNYXugL8qPjATBgNV
HSUEDDAKBggrBgEFBQcDAjALBgNVHQ8EBAMCB4AwDQYJKoZIhvcNAQELBQADggIB
AAfRZovuy3sQXokoImHRsGl3Zc3rqlxs8dy9FSv7tNr8djAsSIbuSHh2gB0wkkna
TlRWDTnPS1Cj963wyL51d96n58lFjgagDw1BzT4/FL7cfh9qV7IMMadGcQGSOCQl
ty7Lp1HXSJfRv2JxY5bC0qNuUXlWl+PRorEaPyxkxoayFPaijDJUTrLtkg3PzC3f
x2CZorhWwR5DGD5uM+emTQuIcNMveZc16s/1hX4UzH4S0+8ctfT7R570lqyWQQaD
gptQqeOOO0SfchvBieUb3avaLYUtvHbh1D/6WJRh4SMB3A0qiBusTmarSrERqwKc
PuCFRVneDeDATu3X6WOWYElTIs6tXMglwOu0GBIu6GFY6annDuCj1slM+J0KDq3o
jvZ9VZ2I/3t0u9tpils4+tzjTZjfTMgtnrvK4FUSmXwJZ6txfiJRRlDYAkoOM2H4
Uz1gnho5rn1b5QQPLA87IvqxFQVy27K+Ljcm9M7+M4Yg7+iezp/DkSJxz+B6MTJb
S8nlNxSfm3XF5j1dpyMoHZw7sJJ4NXtnjJ13Q1za8xexwHjgyuWsM77cT1O+i2g4
N1I5CuWh4q9sfiwg+IjBb0qhyCn/DVswPZal/AEXgKbHgviUW2aTQ5y5lhs3k04A
x0FZy24NHKNIaVxWFghY9CxsNGQCt45cIPSZlt03Erdn
-----END CERTIFICATE-----
