Certificate:
    Data:
        Version: 3 (0x2)
        Serial Number: 12444 (0x309c)
    Signature Algorithm: sha256WithRSAEncryption
        Issuer: C=US, ST=OH, L=Columbus, O=VikingVPN, OU=MyOrganizationalUnit, CN=VikingVPN CA/name=EasyRSA/emailAddress=me@myhost.mydomain
        Validity
            Not Before: Jan 19 01:26:55 2018 GMT
            Not After : Jan 17 01:26:55 2028 GMT
        Subject: CN=Client2557Cert537b81
        Subject Public Key Info:
            Public Key Algorithm: rsaEncryption
                Public-Key: (4096 bit)
                Modulus:
                    00:cc:31:83:2f:93:04:19:9e:81:91:c5:7c:fc:2e:
                    96:a4:70:23:55:86:49:4f:90:f8:54:47:a4:52:49:
                    b5:cf:28:30:29:be:31:27:aa:5c:f7:62:30:e1:29:
                    0b:b3:34:84:19:39:6d:c1:b1:db:a5:e8:95:5a:16:
                    e5:2d:5a:19:21:97:30:e2:cf:b0:a1:47:c0:30:e8:
                    29:97:0a:b9:5f:51:25:8e:4f:5c:02:0f:ad:75:05:
                    05:52:25:f7:64:ef:b1:89:1c:dd:ef:c2:56:db:0a:
                    c8:30:11:e0:75:fd:37:e9:24:3c:65:86:48:e3:ed:
                    bd:06:c4:47:aa:ff:5e:73:22:0c:f0:17:83:17:a8:
                    31:5e:56:77:77:92:bd:73:c8:6c:a9:5f:71:81:5e:
                    d1:a9:e2:71:6c:1b:dd:2e:aa:a5:ad:0a:ac:ef:b4:
                    f4:3e:5a:3f:d2:35:b5:ed:d2:50:ab:ec:a9:08:77:
                    d0:5c:08:ac:cb:df:a7:58:77:88:e5:0e:c4:52:10:
                    98:af:00:61:04:df:1c:d5:e6:81:0f:d7:b7:93:62:
                    0f:24:b5:cd:1b:87:53:f4:23:e1:60:29:37:47:9e:
                    3b:0b:78:a0:37:2a:e2:22:60:00:81:fd:c2:0e:db:
                    c6:0d:e8:7f:33:fb:81:ee:c6:d6:02:ea:f3:d8:b6:
                    f6:f9:b7:6d:ec:96:05:9e:7e:02:0c:0a:28:f1:49:
                    4e:68:42:8a:06:1b:40:e8:3a:1c:09:c2:6c:c2:a3:
                    13:39:50:eb:c0:73:e0:6e:94:6a:78:72:50:61:5b:
                    a2:b4:60:d5:6c:aa:b1:19:02:cb:57:f0:2c:00:27:
                    df:79:e1:92:e5:66:29:fd:b1:2a:6e:ad:98:ed:93:
                    f0:11:d4:e1:8a:b7:81:05:fd:f1:85:b9:20:11:1a:
                    b6:4e:ef:4b:6c:c7:38:6c:d6:2b:fe:36:5f:70:ab:
                    1c:15:01:02:69:c8:89:4e:5c:43:80:44:86:3c:7f:
                    15:d0:b7:77:33:aa:47:d6:19:b3:2a:a6:d3:7b:35:
                    e1:df:a4:9e:ff:f3:f5:a2:73:c3:66:87:5e:bc:74:
                    cf:0c:6d:ef:28:c9:0d:ab:ca:fe:58:ba:9f:f0:7e:
                    08:0e:98:59:76:ae:c2:50:17:e0:15:54:5e:a9:fd:
                    d9:3c:2c:c5:47:3e:71:f6:2e:14:e8:c0:01:ce:36:
                    e7:3e:16:19:21:4d:d0:d4:1c:83:c7:9a:fc:f9:1a:
                    5c:6b:32:9c:c6:33:8e:fa:47:2a:c0:07:73:95:69:
                    7c:73:09:d7:5f:a4:49:a6:fc:a0:8b:e0:b3:cb:cd:
                    58:40:68:63:bc:e8:a6:d0:ba:29:70:d2:49:c4:22:
                    80:ee:bf
                Exponent: 65537 (0x10001)
        X509v3 extensions:
            X509v3 Basic Constraints: 
                CA:FALSE
            Netscape Comment: 
                Easy-RSA Generated Certificate
            X509v3 Subject Key Identifier: 
                CB:C9:B5:E4:DC:43:F3:47:1B:BA:50:10:EF:AC:25:61:42:1F:B2:57
            X509v3 Authority Key Identifier: 
                keyid:12:CD:60:04:D2:A0:80:9E:70:ED:C6:99:B8:7B:2C:C6:52:FD:19:A1
                DirName:/C=US/ST=OH/L=Columbus/O=VikingVPN/OU=MyOrganizationalUnit/CN=VikingVPN CA/name=EasyRSA/emailAddress=me@myhost.mydomain
                serial:CF:35:85:EE:80:BF:2A:3E

            X509v3 Extended Key Usage: 
                TLS Web Client Authentication
            X509v3 Key Usage: 
                Digital Signature
    Signature Algorithm: sha256WithRSAEncryption
         e7:52:0f:57:0f:7e:03:be:25:d1:d2:63:2a:d5:bd:b2:c4:d8:
         d0:49:ff:c2:58:4a:b5:de:b9:16:34:b0:d8:13:f5:ef:67:ce:
         9a:2a:93:dc:7f:4f:f2:aa:1e:f4:a9:d0:8b:d3:ff:db:68:6a:
         c9:58:6c:b8:65:e8:16:f9:03:d8:54:b2:cb:96:e1:a7:2f:fc:
         7d:67:40:ba:47:b6:9a:dc:b2:2d:95:74:49:25:79:3a:a5:a7:
         68:b7:64:c3:c5:42:e1:42:9c:89:f8:58:06:f4:c9:03:3f:8c:
         52:9b:fb:59:a8:69:ef:89:2f:ef:a4:c6:f2:33:99:c0:93:85:
         36:42:5f:b5:1f:c0:e8:88:24:ee:00:c9:20:a1:5a:1f:4f:30:
         c7:5b:02:b6:fb:26:db:ee:df:fc:fd:42:4d:b9:8c:8f:b0:f9:
         57:42:1e:7f:41:03:62:9f:54:9f:04:f6:be:37:6f:4a:4d:c1:
         fe:d1:7d:5d:66:d9:aa:4a:89:ab:b8:11:46:16:6c:db:51:80:
         bb:1c:a7:ba:9b:f6:06:39:16:8b:4d:23:ea:71:9d:13:be:23:
         f0:6c:b6:a0:3d:5f:85:01:b7:70:e8:fe:3e:59:d9:22:62:f8:
         58:ae:89:bf:3e:9c:cf:a1:62:7b:ea:73:79:9f:82:6c:94:de:
         a7:0d:19:82:67:09:5c:38:2d:76:b5:3c:22:2f:12:e8:e7:8f:
         8b:ca:c7:53:de:cf:99:23:82:fc:54:a4:fe:97:8f:6b:f8:6e:
         c2:97:b9:d4:fb:21:3b:85:34:27:43:b6:14:a2:a7:14:9b:70:
         01:2c:d9:36:9c:07:3a:d6:48:c1:88:fe:25:59:dd:8a:c4:bb:
         f6:a6:bd:d7:cb:e1:aa:59:48:00:3c:fa:55:f1:60:30:54:e2:
         58:f2:87:5b:7e:4b:82:ab:98:c1:8b:58:12:ac:6a:54:67:a3:
         f4:13:d7:73:e8:60:67:ac:01:0b:63:15:ee:6e:d8:b4:7d:96:
         51:19:4d:90:1d:d7:62:f5:34:52:b4:38:07:2a:ca:ee:db:8d:
         d1:2e:8d:19:1a:27:9b:09:c8:02:a1:18:22:5e:78:57:c3:d0:
         c9:73:94:c3:12:a2:fd:36:e8:47:a2:1c:ed:ed:d6:6d:67:b4:
         36:16:0a:60:67:b9:07:3c:9f:a9:d1:ae:cb:15:0c:23:95:55:
         74:79:38:ad:54:81:fa:40:1b:b2:04:ae:87:1d:0a:bd:d5:38:
         59:3f:fd:c8:1e:9b:42:af:21:a3:73:76:c3:7e:ff:ec:4e:18:
         78:81:67:f5:85:63:ff:78:08:46:da:97:df:a1:81:88:45:4b:
         ac:e5:71:43:6a:77:7b:1b
-----BEGIN CERTIFICATE-----
MIIGrTCCBJWgAwIBAgICMJwwDQYJKoZIhvcNAQELBQAwgawxCzAJBgNVBAYTAlVT
MQswCQYDVQQIEwJPSDERMA8GA1UEBxMIQ29sdW1idXMxEjAQBgNVBAoTCVZpa2lu
Z1ZQTjEdMBsGA1UECxMUTXlPcmdhbml6YXRpb25hbFVuaXQxFTATBgNVBAMTDFZp
a2luZ1ZQTiBDQTEQMA4GA1UEKRMHRWFzeVJTQTEhMB8GCSqGSIb3DQEJARYSbWVA
bXlob3N0Lm15ZG9tYWluMB4XDTE4MDExOTAxMjY1NVoXDTI4MDExNzAxMjY1NVow
HzEdMBsGA1UEAxMUQ2xpZW50MjU1N0NlcnQ1MzdiODEwggIiMA0GCSqGSIb3DQEB
AQUAA4ICDwAwggIKAoICAQDMMYMvkwQZnoGRxXz8LpakcCNVhklPkPhUR6RSSbXP
KDApvjEnqlz3YjDhKQuzNIQZOW3Bsdul6JVaFuUtWhkhlzDiz7ChR8Aw6CmXCrlf
USWOT1wCD611BQVSJfdk77GJHN3vwlbbCsgwEeB1/TfpJDxlhkjj7b0GxEeq/15z
IgzwF4MXqDFeVnd3kr1zyGypX3GBXtGp4nFsG90uqqWtCqzvtPQ+Wj/SNbXt0lCr
7KkId9BcCKzL36dYd4jlDsRSEJivAGEE3xzV5oEP17eTYg8ktc0bh1P0I+FgKTdH
njsLeKA3KuIiYACB/cIO28YN6H8z+4HuxtYC6vPYtvb5t23slgWefgIMCijxSU5o
QooGG0DoOhwJwmzCoxM5UOvAc+BulGp4clBhW6K0YNVsqrEZAstX8CwAJ9954ZLl
Zin9sSpurZjtk/AR1OGKt4EF/fGFuSARGrZO70tsxzhs1iv+Nl9wqxwVAQJpyIlO
XEOARIY8fxXQt3czqkfWGbMqptN7NeHfpJ7/8/Wic8Nmh168dM8Mbe8oyQ2ryv5Y
up/wfggOmFl2rsJQF+AVVF6p/dk8LMVHPnH2LhTowAHONuc+FhkhTdDUHIPHmvz5
GlxrMpzGM476RyrAB3OVaXxzCddfpEmm/KCL4LPLzVhAaGO86KbQuilw0knEIoDu
vwIDAQABo4IBYzCCAV8wCQYDVR0TBAIwADAtBglghkgBhvhCAQ0EIBYeRWFzeS1S
U0EgR2VuZXJhdGVkIENlcnRpZmljYXRlMB0GA1UdDgQWBBTLybXk3EPzRxu6UBDv
rCVhQh+yVzCB4QYDVR0jBIHZMIHWgBQSzWAE0qCAnnDtxpm4eyzGUv0ZoaGBsqSB
rzCBrDELMAkGA1UEBhMCVVMxCzAJBgNVBAgTAk9IMREwDwYDVQQHEwhDb2x1bWJ1
czESMBAGA1UEChMJVmlraW5nVlBOMR0wGwYDVQQLExRNeU9yZ2FuaXphdGlvbmFs
VW5pdDEVMBMGA1UEAxMMVmlraW5nVlBOIENBMRAwDgYDVQQpEwdFYXN5UlNBMSEw
HwYJKoZIhvcNAQkBFhJtZUBteWhvc3QubXlkb21haW6CCQDPNYXugL8qPjATBgNV
HSUEDDAKBggrBgEFBQcDAjALBgNVHQ8EBAMCB4AwDQYJKoZIhvcNAQELBQADggIB
AOdSD1cPfgO+JdHSYyrVvbLE2NBJ/8JYSrXeuRY0sNgT9e9nzpoqk9x/T/KqHvSp
0IvT/9toaslYbLhl6Bb5A9hUssuW4acv/H1nQLpHtprcsi2VdEkleTqlp2i3ZMPF
QuFCnIn4WAb0yQM/jFKb+1moae+JL++kxvIzmcCThTZCX7UfwOiIJO4AySChWh9P
MMdbArb7Jtvu3/z9Qk25jI+w+VdCHn9BA2KfVJ8E9r43b0pNwf7RfV1m2apKiau4
EUYWbNtRgLscp7qb9gY5FotNI+pxnRO+I/BstqA9X4UBt3Do/j5Z2SJi+Fiuib8+
nM+hYnvqc3mfgmyU3qcNGYJnCVw4LXa1PCIvEujnj4vKx1Pez5kjgvxUpP6Xj2v4
bsKXudT7ITuFNCdDthSipxSbcAEs2TacBzrWSMGI/iVZ3YrEu/amvdfL4apZSAA8
+lXxYDBU4ljyh1t+S4KrmMGLWBKsalRno/QT13PoYGesAQtjFe5u2LR9llEZTZAd
12L1NFK0OAcqyu7bjdEujRkaJ5sJyAKhGCJeeFfD0MlzlMMSov026EeiHO3t1m1n
tDYWCmBnuQc8n6nRrssVDCOVVXR5OK1UgfpAG7IErocdCr3VOFk//cgem0KvIaNz
dsN+/+xOGHiBZ/WFY/94CEbal9+hgYhFS6zlcUNqd3sb
-----END CERTIFICATE-----
