Certificate:
    Data:
        Version: 3 (0x2)
        Serial Number: 12456 (0x30a8)
    Signature Algorithm: sha256WithRSAEncryption
        Issuer: C=US, ST=OH, L=Columbus, O=VikingVPN, OU=MyOrganizationalUnit, CN=VikingVPN CA/name=EasyRSA/emailAddress=me@myhost.mydomain
        Validity
            Not Before: Jan 20 18:38:00 2018 GMT
            Not After : Jan 18 18:38:00 2028 GMT
        Subject: CN=Client2475Cert9e3b09
        Subject Public Key Info:
            Public Key Algorithm: rsaEncryption
                Public-Key: (4096 bit)
                Modulus:
                    00:bf:28:1b:5a:27:ae:18:e4:5b:e9:e1:a8:47:51:
                    0c:fb:ab:7f:47:52:d5:e1:87:ed:1e:0e:24:76:9c:
                    93:c3:bd:4e:9c:2e:06:f9:89:74:fd:de:0d:a3:af:
                    9d:e6:e5:54:db:00:28:34:0f:72:33:eb:94:af:6e:
                    23:56:aa:27:2a:ce:63:22:a2:2f:7b:b6:64:2e:c2:
                    ee:8c:6c:01:59:e1:44:45:cd:63:47:c7:49:c7:77:
                    4d:42:fa:63:08:30:1c:cf:ed:90:21:b7:a2:c0:db:
                    e3:93:f7:7a:00:c1:ff:56:70:f1:ba:38:42:dc:17:
                    61:ed:44:8f:c1:8b:88:24:b3:82:97:f9:bc:ef:93:
                    56:0b:4c:18:24:8b:da:fc:9c:b1:c6:61:dc:92:de:
                    e7:39:e5:6e:ae:fc:eb:71:40:89:a4:35:d0:99:c7:
                    57:3c:6d:ce:40:44:9f:86:1e:b0:c7:e1:7e:dd:41:
                    b0:5b:a5:22:dd:1a:33:ae:87:3d:20:3b:bc:6b:46:
                    63:bc:e3:65:17:94:1e:62:61:0c:ae:80:1e:77:df:
                    2c:59:5b:be:15:d9:7d:ce:bd:27:a4:d8:f4:46:07:
                    ab:e7:4a:d7:81:13:55:76:3d:82:86:2d:01:87:ef:
                    75:d4:20:ce:ce:26:5d:c1:58:ca:b0:d5:a8:49:bd:
                    c9:17:79:f2:94:87:d1:3f:9b:25:3b:1a:00:45:8f:
                    00:f4:9d:35:84:e1:9a:c1:02:81:fe:60:b0:94:f6:
                    80:09:cb:8e:2e:88:99:24:46:9b:36:a4:a8:ac:93:
                    3b:7c:17:48:62:68:29:d7:f1:0b:ad:37:cf:f1:e0:
                    23:5f:7e:ab:84:29:73:58:a4:69:fb:ae:da:e4:67:
                    a9:96:f7:54:3c:1f:7a:07:e0:33:e4:3d:fa:2a:22:
                    49:63:d4:78:57:b0:fb:c0:f8:55:49:18:ac:3e:c0:
                    29:56:a9:52:02:41:c2:70:07:44:a6:f7:18:04:c5:
                    ab:98:1d:ac:1f:c4:58:29:53:c5:67:e4:e8:b7:7f:
                    15:3e:e2:5f:2f:fb:93:07:f6:6d:82:ee:6e:a5:36:
                    b2:94:32:48:9c:f6:ab:9c:02:9f:3f:20:a1:74:3c:
                    b7:7d:d7:36:a6:76:03:63:27:99:a8:e6:1c:39:22:
                    18:6f:a2:c0:26:56:08:2a:a5:27:1a:6a:b4:7c:0b:
                    55:2b:41:04:af:55:1e:75:70:54:ca:a7:e4:6c:ef:
                    0c:6f:83:d6:46:b6:29:eb:51:d0:fa:16:f1:80:b3:
                    00:e7:04:73:da:08:ba:ce:ee:12:90:0c:2e:59:07:
                    4a:a8:a9:51:6c:76:8f:f7:31:98:4d:50:cd:46:6e:
                    73:1b:f3
                Exponent: 65537 (0x10001)
        X509v3 extensions:
            X509v3 Basic Constraints: 
                CA:FALSE
            Netscape Comment: 
                Easy-RSA Generated Certificate
            X509v3 Subject Key Identifier: 
                AC:A9:9D:5A:64:8A:B4:A2:71:C9:D3:60:9E:62:AF:6A:3D:37:0A:06
            X509v3 Authority Key Identifier: 
                keyid:12:CD:60:04:D2:A0:80:9E:70:ED:C6:99:B8:7B:2C:C6:52:FD:19:A1
                DirName:/C=US/ST=OH/L=Columbus/O=VikingVPN/OU=MyOrganizationalUnit/CN=VikingVPN CA/name=EasyRSA/emailAddress=me@myhost.mydomain
                serial:CF:35:85:EE:80:BF:2A:3E

            X509v3 Extended Key Usage: 
                TLS Web Client Authentication
            X509v3 Key Usage: 
                Digital Signature
    Signature Algorithm: sha256WithRSAEncryption
         78:3d:fd:da:02:98:be:5d:e8:04:4f:0c:b1:77:86:27:97:3c:
         1a:c1:0a:7e:92:b4:52:bd:79:54:76:43:56:f3:1f:fc:57:66:
         21:c4:df:75:d4:13:f2:bb:64:e0:d0:e3:52:f7:91:03:2e:59:
         12:5a:e9:5a:43:eb:35:5a:cf:92:6a:d1:4b:ca:46:42:7e:d3:
         3b:a5:51:a0:7c:36:3f:66:47:11:e8:8c:09:e3:97:ab:88:63:
         e4:07:10:c7:c7:55:d4:d0:84:14:ed:26:fc:a4:00:69:04:6d:
         25:36:15:b7:c5:61:ba:e5:49:47:9d:66:92:cd:db:ac:f6:d5:
         47:19:4a:a7:7b:6d:82:d8:b8:2c:39:2c:38:e7:cd:2b:63:da:
         57:8d:d5:c1:57:e3:64:93:cd:58:f6:a0:23:24:a5:34:ad:b0:
         51:3f:90:66:83:c2:48:79:bd:74:25:7b:c9:bd:82:46:42:61:
         0d:64:30:6d:f5:32:1b:00:0c:50:41:fb:04:73:d2:b3:ae:07:
         a6:63:18:0e:01:01:6e:e9:53:ec:68:f8:36:d3:03:10:57:47:
         5b:04:91:98:ff:d7:7b:2a:dd:b8:13:54:56:cc:49:48:6e:80:
         e3:c7:2a:24:b7:31:49:cc:19:8b:e4:75:35:9b:4b:7e:17:19:
         6e:be:05:04:5e:25:86:a2:9d:79:66:10:bb:0c:a6:73:5e:63:
         6e:3a:d8:96:ae:1f:ff:9b:22:aa:0c:0e:b6:95:f9:55:13:f0:
         ea:f4:d1:f8:d2:50:e5:47:86:af:e6:d0:86:bd:d6:91:a2:22:
         b7:97:a1:53:49:b2:43:25:2b:88:d7:2f:49:6a:89:99:42:c2:
         c6:dd:60:7b:94:b2:da:b7:de:fa:b0:eb:e3:21:01:97:23:14:
         28:fe:47:c3:49:6d:3c:b3:a6:c0:1f:d4:8d:10:46:e8:13:cd:
         c4:87:94:95:aa:a0:92:5a:ac:db:39:b7:3e:d0:3a:93:44:e9:
         a9:7f:b8:52:10:6d:79:66:36:d3:e3:06:46:16:d1:d8:4b:2f:
         f3:8b:61:13:73:ca:9f:46:3d:2a:b7:f0:08:f2:17:31:23:33:
         21:d2:6e:bc:90:dd:d1:e7:dd:5c:9b:b1:d2:71:12:6b:97:88:
         7c:4d:17:53:51:3c:6f:6a:7c:de:78:4a:19:b6:a6:d5:6d:78:
         6a:3e:ae:08:4a:31:c0:0e:48:d6:c9:10:d4:0f:4e:d1:f8:86:
         91:68:10:79:cb:87:91:e6:cc:cf:08:d5:4e:66:a8:75:1e:00:
         05:4f:67:32:77:cb:be:9f:92:22:57:1b:2b:c5:51:63:28:1d:
         2a:45:39:23:96:ee:c7:e2
-----BEGIN CERTIFICATE-----
MIIGrTCCBJWgAwIBAgICMKgwDQYJKoZIhvcNAQELBQAwgawxCzAJBgNVBAYTAlVT
MQswCQYDVQQIEwJPSDERMA8GA1UEBxMIQ29sdW1idXMxEjAQBgNVBAoTCVZpa2lu
Z1ZQTjEdMBsGA1UECxMUTXlPcmdhbml6YXRpb25hbFVuaXQxFTATBgNVBAMTDFZp
a2luZ1ZQTiBDQTEQMA4GA1UEKRMHRWFzeVJTQTEhMB8GCSqGSIb3DQEJARYSbWVA
bXlob3N0Lm15ZG9tYWluMB4XDTE4MDEyMDE4MzgwMFoXDTI4MDExODE4MzgwMFow
HzEdMBsGA1UEAxMUQ2xpZW50MjQ3NUNlcnQ5ZTNiMDkwggIiMA0GCSqGSIb3DQEB
AQUAA4ICDwAwggIKAoICAQC/KBtaJ64Y5Fvp4ahHUQz7q39HUtXhh+0eDiR2nJPD
vU6cLgb5iXT93g2jr53m5VTbACg0D3Iz65SvbiNWqicqzmMioi97tmQuwu6MbAFZ
4URFzWNHx0nHd01C+mMIMBzP7ZAht6LA2+OT93oAwf9WcPG6OELcF2HtRI/Bi4gk
s4KX+bzvk1YLTBgki9r8nLHGYdyS3uc55W6u/OtxQImkNdCZx1c8bc5ARJ+GHrDH
4X7dQbBbpSLdGjOuhz0gO7xrRmO842UXlB5iYQyugB533yxZW74V2X3OvSek2PRG
B6vnSteBE1V2PYKGLQGH73XUIM7OJl3BWMqw1ahJvckXefKUh9E/myU7GgBFjwD0
nTWE4ZrBAoH+YLCU9oAJy44uiJkkRps2pKiskzt8F0hiaCnX8QutN8/x4CNffquE
KXNYpGn7rtrkZ6mW91Q8H3oH4DPkPfoqIklj1HhXsPvA+FVJGKw+wClWqVICQcJw
B0Sm9xgExauYHawfxFgpU8Vn5Oi3fxU+4l8v+5MH9m2C7m6lNrKUMkic9qucAp8/
IKF0PLd91zamdgNjJ5mo5hw5IhhvosAmVggqpScaarR8C1UrQQSvVR51cFTKp+Rs
7wxvg9ZGtinrUdD6FvGAswDnBHPaCLrO7hKQDC5ZB0qoqVFsdo/3MZhNUM1GbnMb
8wIDAQABo4IBYzCCAV8wCQYDVR0TBAIwADAtBglghkgBhvhCAQ0EIBYeRWFzeS1S
U0EgR2VuZXJhdGVkIENlcnRpZmljYXRlMB0GA1UdDgQWBBSsqZ1aZIq0onHJ02Ce
Yq9qPTcKBjCB4QYDVR0jBIHZMIHWgBQSzWAE0qCAnnDtxpm4eyzGUv0ZoaGBsqSB
rzCBrDELMAkGA1UEBhMCVVMxCzAJBgNVBAgTAk9IMREwDwYDVQQHEwhDb2x1bWJ1
czESMBAGA1UEChMJVmlraW5nVlBOMR0wGwYDVQQLExRNeU9yZ2FuaXphdGlvbmFs
VW5pdDEVMBMGA1UEAxMMVmlraW5nVlBOIENBMRAwDgYDVQQpEwdFYXN5UlNBMSEw
HwYJKoZIhvcNAQkBFhJtZUBteWhvc3QubXlkb21haW6CCQDPNYXugL8qPjATBgNV
HSUEDDAKBggrBgEFBQcDAjALBgNVHQ8EBAMCB4AwDQYJKoZIhvcNAQELBQADggIB
AHg9/doCmL5d6ARPDLF3hieXPBrBCn6StFK9eVR2Q1bzH/xXZiHE33XUE/K7ZODQ
41L3kQMuWRJa6VpD6zVaz5Jq0UvKRkJ+0zulUaB8Nj9mRxHojAnjl6uIY+QHEMfH
VdTQhBTtJvykAGkEbSU2FbfFYbrlSUedZpLN26z21UcZSqd7bYLYuCw5LDjnzStj
2leN1cFX42STzVj2oCMkpTStsFE/kGaDwkh5vXQle8m9gkZCYQ1kMG31MhsADFBB
+wRz0rOuB6ZjGA4BAW7pU+xo+DbTAxBXR1sEkZj/13sq3bgTVFbMSUhugOPHKiS3
MUnMGYvkdTWbS34XGW6+BQReJYainXlmELsMpnNeY2462JauH/+bIqoMDraV+VUT
8Or00fjSUOVHhq/m0Ia91pGiIreXoVNJskMlK4jXL0lqiZlCwsbdYHuUstq33vqw
6+MhAZcjFCj+R8NJbTyzpsAf1I0QRugTzcSHlJWqoJJarNs5tz7QOpNE6al/uFIQ
bXlmNtPjBkYW0dhLL/OLYRNzyp9GPSq38AjyFzEjMyHSbryQ3dHn3VybsdJxEmuX
iHxNF1NRPG9qfN54Shm2ptVteGo+rghKMcAOSNbJENQPTtH4hpFoEHnLh5HmzM8I
1U5mqHUeAAVPZzJ3y76fkiJXGyvFUWMoHSpFOSOW7sfi
-----END CERTIFICATE-----
