Certificate:
    Data:
        Version: 3 (0x2)
        Serial Number: 12471 (0x30b7)
    Signature Algorithm: sha256WithRSAEncryption
        Issuer: C=US, ST=OH, L=Columbus, O=VikingVPN, OU=MyOrganizationalUnit, CN=VikingVPN CA/name=EasyRSA/emailAddress=me@myhost.mydomain
        Validity
            Not Before: Jan 23 20:44:22 2018 GMT
            Not After : Jan 21 20:44:22 2028 GMT
        Subject: CN=Client1702Cert51d33f
        Subject Public Key Info:
            Public Key Algorithm: rsaEncryption
                Public-Key: (4096 bit)
                Modulus:
                    00:c9:a0:53:14:cb:43:83:d8:68:f1:12:d9:25:c0:
                    09:b4:a2:e2:92:7b:cd:76:19:ae:54:21:fa:34:aa:
                    18:46:30:79:f7:63:51:b9:cf:3d:7b:02:e2:3b:a9:
                    19:de:76:67:b2:0b:84:c4:cf:85:c3:2c:bc:d4:fd:
                    99:a3:df:b4:ac:e1:2b:3f:ed:72:c4:ec:53:00:ac:
                    23:b8:39:37:c2:63:db:cb:6e:89:4d:db:dc:8d:88:
                    5e:e6:70:af:60:43:1d:f1:c5:16:63:17:53:29:0e:
                    bc:06:a6:89:83:e6:38:03:9e:66:1a:2a:2f:66:b1:
                    4d:2a:b3:5c:82:48:3d:be:56:15:f3:0b:b2:ff:af:
                    eb:6f:05:35:f5:82:6a:43:a9:36:fd:a3:86:56:8f:
                    ea:fc:22:fd:93:4c:29:6e:66:d1:1e:f9:80:98:94:
                    04:e5:74:25:33:dc:ff:30:62:fe:c0:fb:88:2e:40:
                    5b:9e:14:9f:f3:96:68:b4:de:f2:66:a8:d1:af:aa:
                    f6:1c:7e:4c:7c:f2:d6:06:8e:7b:3c:e0:21:a2:33:
                    3d:3e:07:11:eb:48:e6:9d:6e:4f:cf:e8:8f:b3:29:
                    6f:c2:bd:c2:26:71:2f:8c:7b:da:c8:0a:7d:e5:92:
                    ac:60:95:c1:5d:bc:46:19:30:62:e6:aa:0b:a8:e7:
                    41:7e:ba:68:f2:d6:ed:a1:af:91:e9:a7:51:28:ce:
                    c6:67:a4:90:f1:27:5d:e4:83:e1:72:0a:67:42:4b:
                    a3:18:dc:05:ad:66:ef:96:a2:4e:df:df:fc:35:e7:
                    e3:37:8a:38:bb:d0:da:20:f7:81:fb:23:8f:4f:c3:
                    9e:f6:91:f9:cd:ea:d3:17:3c:5c:f0:0e:04:18:4f:
                    42:a0:a7:57:39:36:21:08:d6:c9:2b:7a:b6:e4:87:
                    c4:2f:8a:47:9b:54:5f:91:74:68:35:8e:3a:82:0e:
                    16:cd:58:28:7d:59:c0:4e:dc:ac:dc:f8:95:cd:d2:
                    ba:c2:aa:b5:fa:98:d8:ab:ba:9f:6d:ae:df:dd:81:
                    2b:53:d7:b7:21:4a:18:93:f5:7b:6d:20:96:a1:4c:
                    65:9a:da:77:ee:00:6d:a7:aa:08:82:c4:3e:2c:4e:
                    03:06:ae:6b:f4:d8:99:f1:71:24:7c:37:56:40:ba:
                    08:4d:33:31:56:8f:92:93:69:c8:63:9b:3a:11:2e:
                    73:a7:f5:d7:bb:63:60:23:35:4c:40:e8:63:67:f1:
                    4f:78:c5:d7:0e:0f:cf:e0:13:f8:28:bf:77:f0:1d:
                    ed:56:0d:2b:c2:60:e9:74:61:59:c6:37:7e:23:b8:
                    bb:3e:92:7e:44:ca:a6:47:35:72:9e:e5:8e:cc:79:
                    9e:f9:1f
                Exponent: 65537 (0x10001)
        X509v3 extensions:
            X509v3 Basic Constraints: 
                CA:FALSE
            Netscape Comment: 
                Easy-RSA Generated Certificate
            X509v3 Subject Key Identifier: 
                74:AC:C1:58:10:94:56:6E:89:71:B3:36:C1:A5:61:D8:F8:1B:A9:D6
            X509v3 Authority Key Identifier: 
                keyid:12:CD:60:04:D2:A0:80:9E:70:ED:C6:99:B8:7B:2C:C6:52:FD:19:A1
                DirName:/C=US/ST=OH/L=Columbus/O=VikingVPN/OU=MyOrganizationalUnit/CN=VikingVPN CA/name=EasyRSA/emailAddress=me@myhost.mydomain
                serial:CF:35:85:EE:80:BF:2A:3E

            X509v3 Extended Key Usage: 
                TLS Web Client Authentication
            X509v3 Key Usage: 
                Digital Signature
    Signature Algorithm: sha256WithRSAEncryption
         74:af:ba:6f:09:a0:b6:7a:bf:ba:65:9c:93:22:66:1b:e6:15:
         6a:3d:e5:a4:6d:df:05:58:db:c3:ab:6b:d6:20:15:0d:7b:f5:
         ae:cf:31:32:74:5f:80:7f:4b:f6:e1:30:b7:04:fa:9c:43:fc:
         7b:64:11:d3:df:03:ef:21:b0:be:9d:5a:6f:5a:23:b0:17:14:
         98:1e:82:80:04:fa:45:d1:75:bb:95:f4:af:ca:1e:f1:cf:34:
         60:4c:83:eb:f0:98:1c:0d:07:97:53:f1:67:d4:a3:3f:7a:bf:
         71:e4:cd:69:3d:02:9f:9a:64:c3:5f:74:29:67:d9:4b:9b:a9:
         2f:2a:ac:7d:63:6d:3d:45:58:38:50:cb:99:27:ea:63:00:79:
         27:04:8c:db:b3:28:f0:3c:30:6e:76:94:c3:2b:1c:4b:c7:27:
         dd:c4:b2:ca:d8:75:ee:37:b8:a7:07:c8:e0:4d:d2:c6:a5:5f:
         79:c0:15:07:69:ab:60:81:48:59:df:d6:68:5d:fc:ce:07:4e:
         ac:32:72:42:b0:b9:40:50:ec:38:8f:3e:0d:49:80:91:58:6a:
         a5:47:f8:3c:ee:cb:b6:ad:0a:2a:cc:80:73:0f:22:02:cd:97:
         40:02:7b:07:45:4d:c8:43:d9:5e:bd:21:de:5d:50:ed:8f:ef:
         9c:6f:d8:1a:33:2b:c5:5d:b8:ee:27:13:fd:3a:b9:12:b1:e4:
         f2:c8:5c:42:2b:89:5f:15:0d:06:22:47:02:4c:44:c5:e5:60:
         3d:ea:cd:fa:b9:f7:3d:4a:62:cd:58:10:b3:9d:81:b9:fc:95:
         f2:d3:fd:7c:c2:1a:bd:3b:93:90:9d:b3:e3:6a:ad:64:39:90:
         5c:a3:ec:0f:78:10:50:90:66:dc:fc:7b:de:5c:3f:e6:4e:10:
         13:98:bb:f9:91:3a:ed:10:6b:29:55:bb:06:b5:3b:4b:e2:80:
         cc:62:12:ac:e0:66:f6:b2:75:95:98:95:53:61:55:04:7f:35:
         6a:63:38:a0:f3:92:6c:2c:8c:cb:0b:f1:95:44:59:84:61:95:
         7b:dc:63:fa:67:0e:c3:b6:87:26:3a:31:e9:1d:e9:1f:1f:63:
         83:ce:6f:51:fb:41:aa:70:05:6b:57:6b:48:bd:bc:72:42:0b:
         33:fe:f8:e1:12:94:3d:77:fd:1b:f2:9a:c1:65:7d:d9:09:69:
         16:f1:28:96:c3:cb:d2:d6:9c:94:22:a1:99:5a:01:12:ae:ff:
         55:c6:58:ce:4e:7d:02:c9:46:d5:d0:11:10:96:8d:9b:cd:fb:
         f7:81:5f:bb:e2:29:ed:df:77:80:bc:b0:ac:2e:0d:92:c9:ad:
         fa:c6:20:32:d2:93:da:b2
-----BEGIN CERTIFICATE-----
MIIGrTCCBJWgAwIBAgICMLcwDQYJKoZIhvcNAQELBQAwgawxCzAJBgNVBAYTAlVT
MQswCQYDVQQIEwJPSDERMA8GA1UEBxMIQ29sdW1idXMxEjAQBgNVBAoTCVZpa2lu
Z1ZQTjEdMBsGA1UECxMUTXlPcmdhbml6YXRpb25hbFVuaXQxFTATBgNVBAMTDFZp
a2luZ1ZQTiBDQTEQMA4GA1UEKRMHRWFzeVJTQTEhMB8GCSqGSIb3DQEJARYSbWVA
bXlob3N0Lm15ZG9tYWluMB4XDTE4MDEyMzIwNDQyMloXDTI4MDEyMTIwNDQyMlow
HzEdMBsGA1UEAxMUQ2xpZW50MTcwMkNlcnQ1MWQzM2YwggIiMA0GCSqGSIb3DQEB
AQUAA4ICDwAwggIKAoICAQDJoFMUy0OD2GjxEtklwAm0ouKSe812Ga5UIfo0qhhG
MHn3Y1G5zz17AuI7qRnedmeyC4TEz4XDLLzU/Zmj37Ss4Ss/7XLE7FMArCO4OTfC
Y9vLbolN29yNiF7mcK9gQx3xxRZjF1MpDrwGpomD5jgDnmYaKi9msU0qs1yCSD2+
VhXzC7L/r+tvBTX1gmpDqTb9o4ZWj+r8Iv2TTCluZtEe+YCYlATldCUz3P8wYv7A
+4guQFueFJ/zlmi03vJmqNGvqvYcfkx88tYGjns84CGiMz0+BxHrSOadbk/P6I+z
KW/CvcImcS+Me9rICn3lkqxglcFdvEYZMGLmqguo50F+umjy1u2hr5Hpp1EozsZn
pJDxJ13kg+FyCmdCS6MY3AWtZu+Wok7f3/w15+M3iji70Nog94H7I49Pw572kfnN
6tMXPFzwDgQYT0Kgp1c5NiEI1skrerbkh8QvikebVF+RdGg1jjqCDhbNWCh9WcBO
3Kzc+JXN0rrCqrX6mNirup9trt/dgStT17chShiT9XttIJahTGWa2nfuAG2nqgiC
xD4sTgMGrmv02JnxcSR8N1ZAughNMzFWj5KTachjmzoRLnOn9de7Y2AjNUxA6GNn
8U94xdcOD8/gE/gov3fwHe1WDSvCYOl0YVnGN34juLs+kn5EyqZHNXKe5Y7MeZ75
HwIDAQABo4IBYzCCAV8wCQYDVR0TBAIwADAtBglghkgBhvhCAQ0EIBYeRWFzeS1S
U0EgR2VuZXJhdGVkIENlcnRpZmljYXRlMB0GA1UdDgQWBBR0rMFYEJRWbolxszbB
pWHY+Bup1jCB4QYDVR0jBIHZMIHWgBQSzWAE0qCAnnDtxpm4eyzGUv0ZoaGBsqSB
rzCBrDELMAkGA1UEBhMCVVMxCzAJBgNVBAgTAk9IMREwDwYDVQQHEwhDb2x1bWJ1
czESMBAGA1UEChMJVmlraW5nVlBOMR0wGwYDVQQLExRNeU9yZ2FuaXphdGlvbmFs
VW5pdDEVMBMGA1UEAxMMVmlraW5nVlBOIENBMRAwDgYDVQQpEwdFYXN5UlNBMSEw
HwYJKoZIhvcNAQkBFhJtZUBteWhvc3QubXlkb21haW6CCQDPNYXugL8qPjATBgNV
HSUEDDAKBggrBgEFBQcDAjALBgNVHQ8EBAMCB4AwDQYJKoZIhvcNAQELBQADggIB
AHSvum8JoLZ6v7plnJMiZhvmFWo95aRt3wVY28Ora9YgFQ179a7PMTJ0X4B/S/bh
MLcE+pxD/HtkEdPfA+8hsL6dWm9aI7AXFJgegoAE+kXRdbuV9K/KHvHPNGBMg+vw
mBwNB5dT8WfUoz96v3HkzWk9Ap+aZMNfdCln2UubqS8qrH1jbT1FWDhQy5kn6mMA
eScEjNuzKPA8MG52lMMrHEvHJ93EssrYde43uKcHyOBN0salX3nAFQdpq2CBSFnf
1mhd/M4HTqwyckKwuUBQ7DiPPg1JgJFYaqVH+Dzuy7atCirMgHMPIgLNl0ACewdF
TchD2V69Id5dUO2P75xv2BozK8VduO4nE/06uRKx5PLIXEIriV8VDQYiRwJMRMXl
YD3qzfq59z1KYs1YELOdgbn8lfLT/XzCGr07k5Cds+NqrWQ5kFyj7A94EFCQZtz8
e95cP+ZOEBOYu/mROu0QaylVuwa1O0vigMxiEqzgZvaydZWYlVNhVQR/NWpjOKDz
kmwsjMsL8ZVEWYRhlXvcY/pnDsO2hyY6Mekd6R8fY4POb1H7QapwBWtXa0i9vHJC
CzP++OESlD13/RvymsFlfdkJaRbxKJbDy9LWnJQioZlaARKu/1XGWM5OfQLJRtXQ
ERCWjZvN+/eBX7viKe3fd4C8sKwuDZLJrfrGIDLSk9qy
-----END CERTIFICATE-----
