Certificate:
    Data:
        Version: 3 (0x2)
        Serial Number: 12476 (0x30bc)
    Signature Algorithm: sha256WithRSAEncryption
        Issuer: C=US, ST=OH, L=Columbus, O=VikingVPN, OU=MyOrganizationalUnit, CN=VikingVPN CA/name=EasyRSA/emailAddress=me@myhost.mydomain
        Validity
            Not Before: Jan 25 01:15:03 2018 GMT
            Not After : Jan 23 01:15:03 2028 GMT
        Subject: CN=Client2907Cert1f8f1e
        Subject Public Key Info:
            Public Key Algorithm: rsaEncryption
                Public-Key: (4096 bit)
                Modulus:
                    00:cd:b8:0d:ac:32:d9:33:65:b3:02:06:05:50:fc:
                    66:a2:a3:16:94:7d:e0:35:79:01:c4:d4:86:6f:81:
                    58:3b:40:68:95:1b:4a:a5:eb:72:c7:e0:4a:ad:4f:
                    1f:82:f5:0a:c1:0a:0e:62:5c:a6:56:b1:49:ae:bc:
                    16:b9:13:99:6d:90:56:83:49:59:5c:cb:1a:b8:cb:
                    37:1d:d1:57:7d:2f:a3:bc:e7:6e:4f:80:91:06:e8:
                    a3:15:f1:52:37:43:65:22:7b:92:e3:41:d3:e1:5d:
                    4d:08:d7:26:3c:8e:b9:9d:57:03:5c:3d:94:84:b2:
                    3d:89:9d:fe:27:01:ab:f4:cb:19:db:8c:6a:40:03:
                    09:8d:12:1f:b7:35:33:6b:ec:45:ad:92:70:48:14:
                    a5:90:8f:cc:dc:0a:fd:08:05:3e:16:10:e9:23:59:
                    b1:32:5d:e7:d6:32:8e:42:db:1a:62:d8:6a:d7:16:
                    d3:c4:99:ec:3b:71:98:c9:41:19:bc:8e:35:9e:0c:
                    9e:50:6c:9e:6f:7e:d8:ae:17:b6:c2:fe:cc:73:11:
                    59:a3:24:d2:f5:66:d2:7f:00:cb:4b:8d:16:39:1b:
                    e4:10:f8:7e:7f:ad:73:12:bb:26:bc:5a:14:ab:1a:
                    b8:e7:de:de:84:08:74:58:41:ba:f5:4b:29:24:75:
                    17:4c:92:48:f3:56:48:6d:6e:be:55:41:f1:f5:4f:
                    11:e4:09:a7:ec:86:85:18:68:58:66:6d:64:58:51:
                    95:63:8e:0d:86:a1:41:37:25:1a:a4:7a:ac:96:db:
                    c1:c6:26:1c:2c:7a:97:2d:f8:5e:31:68:bb:25:0e:
                    15:2c:35:51:3d:43:15:24:07:79:c4:44:c3:00:4a:
                    6a:2d:9d:ab:11:f8:bc:75:f1:0e:7f:48:22:c3:5e:
                    da:6d:0b:18:1a:0d:12:65:76:82:ba:48:62:6a:23:
                    4c:2a:2c:79:b1:5d:06:dc:d0:0a:8d:f5:71:7e:a8:
                    37:90:07:3b:d7:30:0e:75:b1:3a:ad:2c:25:11:fc:
                    c5:6e:dd:fe:4f:46:ff:bd:03:9b:bd:cf:ea:ca:95:
                    aa:33:14:75:9a:8e:b0:3a:fc:53:e2:ee:7b:5d:a1:
                    e0:9b:75:9b:a2:03:04:da:0f:6f:fc:c5:d6:ca:9d:
                    3c:9b:ab:9c:4a:8c:82:4e:ed:e2:aa:e7:83:1e:4a:
                    a3:91:7e:60:b5:3f:55:ec:db:07:2d:95:69:00:b1:
                    ff:7c:0a:0b:fd:53:5d:f0:1d:d8:0f:a0:52:6d:79:
                    c0:6f:eb:00:9c:88:ea:d0:1c:2c:24:d9:93:05:43:
                    45:bb:4c:9a:b2:05:26:ce:37:ff:67:91:33:e8:a8:
                    9f:54:97
                Exponent: 65537 (0x10001)
        X509v3 extensions:
            X509v3 Basic Constraints: 
                CA:FALSE
            Netscape Comment: 
                Easy-RSA Generated Certificate
            X509v3 Subject Key Identifier: 
                1F:A8:2C:40:9C:51:6E:51:38:A6:C0:8A:34:B0:9A:ED:1F:CA:A1:63
            X509v3 Authority Key Identifier: 
                keyid:12:CD:60:04:D2:A0:80:9E:70:ED:C6:99:B8:7B:2C:C6:52:FD:19:A1
                DirName:/C=US/ST=OH/L=Columbus/O=VikingVPN/OU=MyOrganizationalUnit/CN=VikingVPN CA/name=EasyRSA/emailAddress=me@myhost.mydomain
                serial:CF:35:85:EE:80:BF:2A:3E

            X509v3 Extended Key Usage: 
                TLS Web Client Authentication
            X509v3 Key Usage: 
                Digital Signature
    Signature Algorithm: sha256WithRSAEncryption
         34:36:b7:07:0e:e0:5b:d9:7b:32:5c:cb:6b:d8:3d:41:02:33:
         9c:64:59:1e:24:56:55:fb:c4:54:43:bf:6d:78:b9:63:1a:51:
         18:bb:87:83:7e:79:f2:06:a6:d0:e7:cd:f8:2b:8a:af:7c:d1:
         0b:a0:eb:c2:dd:a6:67:f1:3f:04:c1:ec:b9:af:f6:23:cd:ac:
         49:4e:a6:83:6f:5f:64:cf:a2:97:da:af:0b:82:56:31:d2:f9:
         40:ff:0e:b3:7c:d9:be:82:72:e8:ee:d6:27:b0:9b:d1:64:0d:
         5d:c9:8d:ed:68:ac:7a:f0:94:75:52:e2:3a:71:5b:45:95:9f:
         db:82:16:b7:3c:fc:27:d5:6d:23:bf:84:70:a8:36:81:19:fc:
         4c:c6:ca:73:1e:af:aa:74:dc:7c:c5:33:8c:0c:e3:cb:8f:ac:
         c7:08:52:a3:f3:f8:df:2c:24:92:fb:52:c2:2b:91:fa:3f:84:
         94:c8:9a:ac:eb:8c:3f:f5:fc:f1:89:58:c1:b4:a9:99:79:ed:
         45:64:4b:31:f3:c1:ed:33:67:6d:25:e3:7f:b3:6e:38:d5:5d:
         66:23:1f:8c:35:df:93:bb:37:10:73:e6:43:6e:06:25:bb:c9:
         2f:a8:93:2a:c5:47:07:d6:bd:2e:5e:25:f3:92:2a:fa:e8:1a:
         db:84:42:e4:39:8b:3e:2b:c9:8c:cb:3e:56:00:56:e6:80:4f:
         9d:c7:c9:3c:b3:4d:5d:fa:e9:02:f7:d5:f1:38:ca:dc:fb:c7:
         e8:17:3f:a8:ff:cc:06:38:24:56:81:3a:93:6b:f0:d5:99:91:
         bb:ad:1e:1a:db:6b:51:fc:20:57:3a:92:e5:8c:f1:ab:4a:2a:
         90:9c:f4:51:b4:be:ae:24:1b:f2:81:d9:fa:19:7d:2d:fe:df:
         36:7e:4c:6f:fb:04:08:32:23:20:bc:7b:55:3a:0d:81:98:f1:
         4b:be:df:ec:df:ca:d2:5f:c1:2c:36:04:69:cf:db:f2:87:ce:
         5e:46:7e:1a:47:c3:04:b4:22:03:04:ef:9e:3f:bc:b2:93:c5:
         97:88:6a:d4:d4:e8:77:e2:73:80:a5:a8:03:73:3a:30:33:14:
         6a:62:49:73:04:74:da:91:f1:72:25:ec:01:ec:5a:14:da:c4:
         97:d1:54:24:89:aa:66:0e:ef:2d:9a:66:08:46:35:35:a9:8c:
         8b:dc:f7:94:41:3c:5e:e7:72:88:0c:8e:09:45:ec:11:f1:31:
         7d:b0:28:c1:88:2d:30:1c:a8:7c:53:5e:50:09:27:d9:33:45:
         39:c4:c0:a9:4b:dc:51:70:66:1e:90:01:c6:35:bb:0e:7a:01:
         3b:ce:05:7c:e1:f7:90:bd
-----BEGIN CERTIFICATE-----
MIIGrTCCBJWgAwIBAgICMLwwDQYJKoZIhvcNAQELBQAwgawxCzAJBgNVBAYTAlVT
MQswCQYDVQQIEwJPSDERMA8GA1UEBxMIQ29sdW1idXMxEjAQBgNVBAoTCVZpa2lu
Z1ZQTjEdMBsGA1UECxMUTXlPcmdhbml6YXRpb25hbFVuaXQxFTATBgNVBAMTDFZp
a2luZ1ZQTiBDQTEQMA4GA1UEKRMHRWFzeVJTQTEhMB8GCSqGSIb3DQEJARYSbWVA
bXlob3N0Lm15ZG9tYWluMB4XDTE4MDEyNTAxMTUwM1oXDTI4MDEyMzAxMTUwM1ow
HzEdMBsGA1UEAxMUQ2xpZW50MjkwN0NlcnQxZjhmMWUwggIiMA0GCSqGSIb3DQEB
AQUAA4ICDwAwggIKAoICAQDNuA2sMtkzZbMCBgVQ/GaioxaUfeA1eQHE1IZvgVg7
QGiVG0ql63LH4EqtTx+C9QrBCg5iXKZWsUmuvBa5E5ltkFaDSVlcyxq4yzcd0Vd9
L6O8525PgJEG6KMV8VI3Q2Uie5LjQdPhXU0I1yY8jrmdVwNcPZSEsj2Jnf4nAav0
yxnbjGpAAwmNEh+3NTNr7EWtknBIFKWQj8zcCv0IBT4WEOkjWbEyXefWMo5C2xpi
2GrXFtPEmew7cZjJQRm8jjWeDJ5QbJ5vftiuF7bC/sxzEVmjJNL1ZtJ/AMtLjRY5
G+QQ+H5/rXMSuya8WhSrGrjn3t6ECHRYQbr1SykkdRdMkkjzVkhtbr5VQfH1TxHk
CafshoUYaFhmbWRYUZVjjg2GoUE3JRqkeqyW28HGJhwsepct+F4xaLslDhUsNVE9
QxUkB3nERMMASmotnasR+Lx18Q5/SCLDXtptCxgaDRJldoK6SGJqI0wqLHmxXQbc
0AqN9XF+qDeQBzvXMA51sTqtLCUR/MVu3f5PRv+9A5u9z+rKlaozFHWajrA6/FPi
7ntdoeCbdZuiAwTaD2/8xdbKnTybq5xKjIJO7eKq54MeSqORfmC1P1Xs2wctlWkA
sf98Cgv9U13wHdgPoFJtecBv6wCciOrQHCwk2ZMFQ0W7TJqyBSbON/9nkTPoqJ9U
lwIDAQABo4IBYzCCAV8wCQYDVR0TBAIwADAtBglghkgBhvhCAQ0EIBYeRWFzeS1S
U0EgR2VuZXJhdGVkIENlcnRpZmljYXRlMB0GA1UdDgQWBBQfqCxAnFFuUTimwIo0
sJrtH8qhYzCB4QYDVR0jBIHZMIHWgBQSzWAE0qCAnnDtxpm4eyzGUv0ZoaGBsqSB
rzCBrDELMAkGA1UEBhMCVVMxCzAJBgNVBAgTAk9IMREwDwYDVQQHEwhDb2x1bWJ1
czESMBAGA1UEChMJVmlraW5nVlBOMR0wGwYDVQQLExRNeU9yZ2FuaXphdGlvbmFs
VW5pdDEVMBMGA1UEAxMMVmlraW5nVlBOIENBMRAwDgYDVQQpEwdFYXN5UlNBMSEw
HwYJKoZIhvcNAQkBFhJtZUBteWhvc3QubXlkb21haW6CCQDPNYXugL8qPjATBgNV
HSUEDDAKBggrBgEFBQcDAjALBgNVHQ8EBAMCB4AwDQYJKoZIhvcNAQELBQADggIB
ADQ2twcO4FvZezJcy2vYPUECM5xkWR4kVlX7xFRDv214uWMaURi7h4N+efIGptDn
zfgriq980Qug68LdpmfxPwTB7Lmv9iPNrElOpoNvX2TPopfarwuCVjHS+UD/DrN8
2b6Ccuju1iewm9FkDV3Jje1orHrwlHVS4jpxW0WVn9uCFrc8/CfVbSO/hHCoNoEZ
/EzGynMer6p03HzFM4wM48uPrMcIUqPz+N8sJJL7UsIrkfo/hJTImqzrjD/1/PGJ
WMG0qZl57UVkSzHzwe0zZ20l43+zbjjVXWYjH4w135O7NxBz5kNuBiW7yS+okyrF
RwfWvS5eJfOSKvroGtuEQuQ5iz4ryYzLPlYAVuaAT53HyTyzTV366QL31fE4ytz7
x+gXP6j/zAY4JFaBOpNr8NWZkbutHhrba1H8IFc6kuWM8atKKpCc9FG0vq4kG/KB
2foZfS3+3zZ+TG/7BAgyIyC8e1U6DYGY8Uu+3+zfytJfwSw2BGnP2/KHzl5GfhpH
wwS0IgME754/vLKTxZeIatTU6Hfic4ClqANzOjAzFGpiSXMEdNqR8XIl7AHsWhTa
xJfRVCSJqmYO7y2aZghGNTWpjIvc95RBPF7ncogMjglF7BHxMX2wKMGILTAcqHxT
XlAJJ9kzRTnEwKlL3FFwZh6QAcY1uw56ATvOBXzh95C9
-----END CERTIFICATE-----
