Certificate:
    Data:
        Version: 3 (0x2)
        Serial Number: 12497 (0x30d1)
    Signature Algorithm: sha256WithRSAEncryption
        Issuer: C=US, ST=OH, L=Columbus, O=VikingVPN, OU=MyOrganizationalUnit, CN=VikingVPN CA/name=EasyRSA/emailAddress=me@myhost.mydomain
        Validity
            Not Before: Jan 30 05:05:49 2018 GMT
            Not After : Jan 28 05:05:49 2028 GMT
        Subject: CN=Client2845Cert32f735
        Subject Public Key Info:
            Public Key Algorithm: rsaEncryption
                Public-Key: (4096 bit)
                Modulus:
                    00:c5:95:c7:f4:dd:fd:de:d0:bf:f3:72:85:13:d1:
                    69:aa:59:c2:b0:93:d3:d3:db:ad:da:f4:de:c1:5c:
                    2a:36:db:80:31:ed:72:ff:0a:6b:d6:40:cb:91:6d:
                    7b:4d:0c:f7:60:3b:09:ae:58:2d:95:bc:7b:3c:22:
                    2f:1e:20:3d:86:33:2d:a9:a6:2d:0c:08:1e:bf:86:
                    bb:55:cf:61:9a:d6:f0:4b:5f:d2:29:32:59:48:95:
                    7e:29:3c:a5:95:85:f5:75:48:4a:4e:43:a7:dd:ba:
                    7c:ff:88:e4:4c:cb:68:b4:1f:5e:2e:59:ff:fb:b5:
                    a5:e3:13:0c:f2:a1:20:23:84:13:b1:d1:a0:5b:7a:
                    62:10:a1:df:6c:98:ec:74:ca:2f:13:69:5e:e3:13:
                    7d:47:0e:0b:37:f9:16:3f:18:b8:da:64:84:f5:22:
                    d4:5e:65:9b:0c:f6:4b:4b:9f:bb:8f:a6:b4:28:db:
                    d4:09:c4:85:a5:5b:1e:d8:78:6a:00:88:52:10:19:
                    9e:cc:2f:92:3c:e0:13:15:2f:82:77:22:51:79:30:
                    65:23:cc:1c:b3:ab:21:f4:75:9e:a7:41:48:00:a8:
                    25:7b:c9:5d:44:bd:0a:b6:ad:51:44:e1:8c:a5:ca:
                    6c:e2:81:ea:f0:9b:04:9e:a3:f6:be:8a:74:58:99:
                    33:0d:a1:0b:d5:2d:52:60:63:52:4e:17:c6:cd:15:
                    5c:51:43:28:df:12:f6:77:eb:49:43:30:18:25:f5:
                    49:ed:a9:b8:ec:e4:5c:7b:11:54:55:24:68:b4:3d:
                    76:01:56:40:0d:fe:50:58:aa:72:43:b9:28:8f:de:
                    93:65:b7:d3:94:72:c9:a4:13:6f:5a:82:99:74:1d:
                    f5:2b:a9:3e:a4:24:9a:72:35:1f:9e:46:80:c2:27:
                    88:25:d2:f0:9b:e6:25:8f:8d:4a:41:4a:8a:54:ea:
                    9c:af:a9:4e:3f:a1:f5:ba:4a:9d:da:42:fb:a1:52:
                    2a:91:6d:40:62:dc:6b:f7:f0:5b:33:df:7e:e7:57:
                    de:17:1a:47:9e:fe:ec:6a:9f:53:f6:ca:57:57:f4:
                    b7:c9:71:ba:7c:87:49:df:0b:77:02:63:df:a3:d5:
                    2d:18:c7:26:40:d2:e0:e5:d6:d0:a9:44:13:e9:ad:
                    3c:12:ad:aa:6c:3a:38:46:15:24:30:e9:95:13:19:
                    b6:3a:86:9c:03:ea:5b:b1:49:d4:d6:b5:f1:78:53:
                    1a:29:34:ef:9e:da:8c:90:7d:1d:f3:b6:aa:d6:52:
                    c0:29:d6:a3:55:ba:e9:bf:b8:60:e2:b4:fb:d7:cb:
                    cd:17:77:51:df:fc:a8:a9:87:37:4e:15:84:aa:9a:
                    77:d4:03
                Exponent: 65537 (0x10001)
        X509v3 extensions:
            X509v3 Basic Constraints: 
                CA:FALSE
            Netscape Comment: 
                Easy-RSA Generated Certificate
            X509v3 Subject Key Identifier: 
                39:9C:38:7C:11:BA:C9:0F:42:40:2E:42:E9:0C:90:8B:76:2B:0A:D6
            X509v3 Authority Key Identifier: 
                keyid:12:CD:60:04:D2:A0:80:9E:70:ED:C6:99:B8:7B:2C:C6:52:FD:19:A1
                DirName:/C=US/ST=OH/L=Columbus/O=VikingVPN/OU=MyOrganizationalUnit/CN=VikingVPN CA/name=EasyRSA/emailAddress=me@myhost.mydomain
                serial:CF:35:85:EE:80:BF:2A:3E

            X509v3 Extended Key Usage: 
                TLS Web Client Authentication
            X509v3 Key Usage: 
                Digital Signature
    Signature Algorithm: sha256WithRSAEncryption
         9f:5f:1d:58:1b:c9:c4:9c:96:16:84:1a:cc:3c:0c:6e:3a:29:
         05:81:8f:18:e0:f4:ee:14:52:d1:ce:cd:ca:38:f6:ea:dc:bd:
         b0:ba:47:9b:e3:05:cd:2b:14:24:eb:1f:d1:b7:b2:74:8a:04:
         46:70:90:f8:e0:76:f1:f4:84:af:61:a6:62:e2:3e:3f:fc:e5:
         45:76:cb:35:bf:df:7e:db:39:92:d0:d1:41:f8:c9:46:f1:f1:
         4b:9b:8b:76:de:1e:94:9b:c0:12:88:31:86:61:99:8b:9e:3a:
         36:49:f7:02:39:aa:86:f1:49:2c:e5:26:04:78:61:8f:41:87:
         bc:67:3a:3e:fc:14:9d:c3:c4:16:67:3f:49:38:76:5b:09:50:
         bb:50:d0:11:51:9b:b9:18:ae:85:c9:40:73:f3:07:cd:ab:56:
         a5:a1:fb:40:01:91:43:21:88:75:f9:af:72:0c:f3:d9:d4:51:
         e7:7e:37:18:a7:7e:28:99:eb:0e:6e:df:4f:be:88:91:2e:b8:
         ed:af:cd:b2:b1:59:2f:e2:8f:69:2b:7d:7d:a4:c9:4e:74:cf:
         8a:a4:86:a3:87:dc:76:69:b3:58:6d:07:ad:da:12:f2:47:fe:
         02:54:e6:3c:ea:6d:52:df:a2:7e:eb:a1:0b:f6:8b:d4:74:f5:
         6f:c1:d9:9b:3b:18:6b:e3:5b:06:e4:03:3a:21:90:6e:f0:c7:
         0f:02:1b:aa:08:93:3d:6d:87:b1:fd:5c:a0:f6:4c:ce:81:39:
         7d:89:d7:ca:eb:81:16:90:dc:0a:ec:84:6a:fc:b1:c9:9b:94:
         55:1e:ba:06:6e:13:b1:7d:be:4a:68:cd:d1:20:a6:75:83:45:
         30:be:a1:f2:5b:49:04:b7:c3:0f:e5:62:58:c1:77:ed:12:c9:
         c1:8d:65:e6:1c:bf:43:9b:db:b3:ad:95:72:22:06:d9:7d:ce:
         36:6d:69:ae:60:3c:47:64:be:ea:9e:2d:e1:44:e1:cd:f5:6c:
         a3:3b:13:ab:41:8a:2a:e3:d5:df:22:91:e3:72:10:b2:fc:ee:
         5b:92:d1:bf:50:59:b1:f1:f2:6b:e7:69:e8:81:ff:54:59:bd:
         71:f9:49:73:3c:d7:a9:cb:8c:f3:3e:e5:ee:62:7a:f7:1a:f2:
         a4:0f:d9:87:2d:f6:36:92:23:3a:4c:fe:fe:99:ac:d3:73:a6:
         7d:e5:c1:05:51:b6:76:53:b7:bd:da:b6:80:8c:b5:8a:62:f9:
         1d:58:dc:c5:09:3e:49:42:cd:1d:2c:83:07:41:f7:ca:63:e4:
         78:31:58:81:24:29:4c:12:c4:05:58:3b:c0:78:1e:d5:e9:4d:
         1c:03:6e:fb:a8:58:fb:10
-----BEGIN CERTIFICATE-----
MIIGrTCCBJWgAwIBAgICMNEwDQYJKoZIhvcNAQELBQAwgawxCzAJBgNVBAYTAlVT
MQswCQYDVQQIEwJPSDERMA8GA1UEBxMIQ29sdW1idXMxEjAQBgNVBAoTCVZpa2lu
Z1ZQTjEdMBsGA1UECxMUTXlPcmdhbml6YXRpb25hbFVuaXQxFTATBgNVBAMTDFZp
a2luZ1ZQTiBDQTEQMA4GA1UEKRMHRWFzeVJTQTEhMB8GCSqGSIb3DQEJARYSbWVA
bXlob3N0Lm15ZG9tYWluMB4XDTE4MDEzMDA1MDU0OVoXDTI4MDEyODA1MDU0OVow
HzEdMBsGA1UEAxMUQ2xpZW50Mjg0NUNlcnQzMmY3MzUwggIiMA0GCSqGSIb3DQEB
AQUAA4ICDwAwggIKAoICAQDFlcf03f3e0L/zcoUT0WmqWcKwk9PT263a9N7BXCo2
24Ax7XL/CmvWQMuRbXtNDPdgOwmuWC2VvHs8Ii8eID2GMy2ppi0MCB6/hrtVz2Ga
1vBLX9IpMllIlX4pPKWVhfV1SEpOQ6fdunz/iORMy2i0H14uWf/7taXjEwzyoSAj
hBOx0aBbemIQod9smOx0yi8TaV7jE31HDgs3+RY/GLjaZIT1ItReZZsM9ktLn7uP
prQo29QJxIWlWx7YeGoAiFIQGZ7ML5I84BMVL4J3IlF5MGUjzByzqyH0dZ6nQUgA
qCV7yV1EvQq2rVFE4YylymzigerwmwSeo/a+inRYmTMNoQvVLVJgY1JOF8bNFVxR
QyjfEvZ360lDMBgl9Untqbjs5Fx7EVRVJGi0PXYBVkAN/lBYqnJDuSiP3pNlt9OU
csmkE29agpl0HfUrqT6kJJpyNR+eRoDCJ4gl0vCb5iWPjUpBSopU6pyvqU4/ofW6
Sp3aQvuhUiqRbUBi3Gv38Fsz337nV94XGkee/uxqn1P2yldX9LfJcbp8h0nfC3cC
Y9+j1S0YxyZA0uDl1tCpRBPprTwSrapsOjhGFSQw6ZUTGbY6hpwD6luxSdTWtfF4
UxopNO+e2oyQfR3ztqrWUsAp1qNVuum/uGDitPvXy80Xd1Hf/KiphzdOFYSqmnfU
AwIDAQABo4IBYzCCAV8wCQYDVR0TBAIwADAtBglghkgBhvhCAQ0EIBYeRWFzeS1S
U0EgR2VuZXJhdGVkIENlcnRpZmljYXRlMB0GA1UdDgQWBBQ5nDh8EbrJD0JALkLp
DJCLdisK1jCB4QYDVR0jBIHZMIHWgBQSzWAE0qCAnnDtxpm4eyzGUv0ZoaGBsqSB
rzCBrDELMAkGA1UEBhMCVVMxCzAJBgNVBAgTAk9IMREwDwYDVQQHEwhDb2x1bWJ1
czESMBAGA1UEChMJVmlraW5nVlBOMR0wGwYDVQQLExRNeU9yZ2FuaXphdGlvbmFs
VW5pdDEVMBMGA1UEAxMMVmlraW5nVlBOIENBMRAwDgYDVQQpEwdFYXN5UlNBMSEw
HwYJKoZIhvcNAQkBFhJtZUBteWhvc3QubXlkb21haW6CCQDPNYXugL8qPjATBgNV
HSUEDDAKBggrBgEFBQcDAjALBgNVHQ8EBAMCB4AwDQYJKoZIhvcNAQELBQADggIB
AJ9fHVgbycSclhaEGsw8DG46KQWBjxjg9O4UUtHOzco49urcvbC6R5vjBc0rFCTr
H9G3snSKBEZwkPjgdvH0hK9hpmLiPj/85UV2yzW/337bOZLQ0UH4yUbx8Uubi3be
HpSbwBKIMYZhmYueOjZJ9wI5qobxSSzlJgR4YY9Bh7xnOj78FJ3DxBZnP0k4dlsJ
ULtQ0BFRm7kYroXJQHPzB82rVqWh+0ABkUMhiHX5r3IM89nUUed+NxinfiiZ6w5u
30++iJEuuO2vzbKxWS/ij2krfX2kyU50z4qkhqOH3HZps1htB63aEvJH/gJU5jzq
bVLfon7roQv2i9R09W/B2Zs7GGvjWwbkAzohkG7wxw8CG6oIkz1th7H9XKD2TM6B
OX2J18rrgRaQ3ArshGr8scmblFUeugZuE7F9vkpozdEgpnWDRTC+ofJbSQS3ww/l
YljBd+0SycGNZeYcv0Ob27OtlXIiBtl9zjZtaa5gPEdkvuqeLeFE4c31bKM7E6tB
iirj1d8ikeNyELL87luS0b9QWbHx8mvnaeiB/1RZvXH5SXM816nLjPM+5e5ievca
8qQP2Yct9jaSIzpM/v6ZrNNzpn3lwQVRtnZTt73atoCMtYpi+R1Y3MUJPklCzR0s
gwdB98pj5HgxWIEkKUwSxAVYO8B4HtXpTRwDbvuoWPsQ
-----END CERTIFICATE-----
