Certificate:
    Data:
        Version: 3 (0x2)
        Serial Number: 12503 (0x30d7)
    Signature Algorithm: sha256WithRSAEncryption
        Issuer: C=US, ST=OH, L=Columbus, O=VikingVPN, OU=MyOrganizationalUnit, CN=VikingVPN CA/name=EasyRSA/emailAddress=me@myhost.mydomain
        Validity
            Not Before: Jan 30 21:01:26 2018 GMT
            Not After : Jan 28 21:01:26 2028 GMT
        Subject: CN=Client1702Cert0ea1dd
        Subject Public Key Info:
            Public Key Algorithm: rsaEncryption
                Public-Key: (4096 bit)
                Modulus:
                    00:bb:c0:25:62:22:af:b6:f0:8d:a2:be:80:f8:66:
                    91:99:ab:a9:b0:ad:74:33:2c:be:db:a5:db:59:d6:
                    bc:e8:20:b2:f7:1a:dd:16:97:ef:95:36:02:3c:8f:
                    e3:27:c0:37:96:31:bc:2b:75:16:f1:e7:ff:3d:4f:
                    fa:01:d5:cc:c5:1a:60:be:a1:45:05:7d:1f:50:e0:
                    53:46:67:79:c9:37:85:e7:c2:c4:08:f3:1b:40:d4:
                    38:34:85:4c:97:7d:59:cb:71:80:dc:01:e7:02:ca:
                    e2:18:78:75:a8:f7:36:41:ed:d8:a8:b7:00:5b:bf:
                    f2:51:d8:13:56:87:4e:b0:0c:33:25:66:90:f2:3b:
                    33:17:32:ac:ce:92:82:59:42:09:14:93:ae:cd:2c:
                    0f:e6:f1:b3:d5:79:ad:42:02:f1:65:27:fb:95:43:
                    43:b0:06:2b:5e:ba:2d:48:79:e2:5e:ec:d5:68:ee:
                    2f:5b:18:f5:2d:81:d1:39:92:9d:c8:2e:5c:c2:35:
                    ff:79:45:a3:5b:aa:f8:10:d9:20:bc:80:d0:b0:d8:
                    10:cc:83:aa:2a:93:b3:e3:1a:af:a4:97:ed:34:63:
                    ee:b5:a2:b5:3f:f8:64:5f:e7:49:55:75:c4:44:60:
                    68:36:94:9e:7a:fc:5e:e8:fa:de:ec:18:19:99:36:
                    bb:10:15:91:64:72:ff:cc:12:0d:23:4c:05:df:25:
                    cd:81:0a:f6:b8:b3:ce:de:a7:c8:75:a0:94:fd:ef:
                    c9:73:e8:cd:39:72:e1:74:87:ea:3a:41:68:1d:28:
                    bf:e2:ab:8d:d9:f7:61:d5:9c:3c:ae:4b:3c:6b:2e:
                    25:af:fb:3e:4c:27:93:c8:51:75:d1:c0:66:04:56:
                    df:76:61:56:fe:08:98:8b:1f:a6:68:90:c9:b7:00:
                    4e:ea:04:31:6b:dd:11:2a:bb:44:69:c3:d6:dd:80:
                    a2:90:03:ab:fa:1e:90:82:ba:9f:1e:2b:30:d9:c1:
                    69:9a:6d:91:82:41:66:fa:94:c9:e0:0a:02:38:b1:
                    c3:c9:da:67:a9:69:18:89:2a:80:61:6f:90:67:98:
                    89:47:3f:b1:ff:e9:fc:3a:cc:11:b1:15:8a:90:c9:
                    66:ae:ce:aa:d3:5d:11:7a:fe:4f:6b:ea:ca:32:82:
                    ad:bb:6e:de:20:f1:b5:72:0c:ce:19:1e:38:ec:0e:
                    d5:83:dc:e8:62:0b:03:ee:39:4a:b9:0e:5c:b7:f1:
                    af:95:1d:b2:0b:18:f8:60:8a:e6:bc:6d:18:d6:a2:
                    47:30:67:12:e2:c0:43:43:48:7c:30:09:5e:a4:76:
                    f7:f7:f1:f3:c0:19:60:76:8f:94:19:27:2d:a2:c7:
                    27:24:f3
                Exponent: 65537 (0x10001)
        X509v3 extensions:
            X509v3 Basic Constraints: 
                CA:FALSE
            Netscape Comment: 
                Easy-RSA Generated Certificate
            X509v3 Subject Key Identifier: 
                AE:A1:41:80:7D:EB:32:06:42:1B:25:E2:11:61:66:84:DD:F2:83:F1
            X509v3 Authority Key Identifier: 
                keyid:12:CD:60:04:D2:A0:80:9E:70:ED:C6:99:B8:7B:2C:C6:52:FD:19:A1
                DirName:/C=US/ST=OH/L=Columbus/O=VikingVPN/OU=MyOrganizationalUnit/CN=VikingVPN CA/name=EasyRSA/emailAddress=me@myhost.mydomain
                serial:CF:35:85:EE:80:BF:2A:3E

            X509v3 Extended Key Usage: 
                TLS Web Client Authentication
            X509v3 Key Usage: 
                Digital Signature
    Signature Algorithm: sha256WithRSAEncryption
         1d:f6:ff:9e:e8:33:24:9f:fb:36:f4:2f:e6:fa:f0:a6:87:06:
         cb:ac:42:5a:4d:0e:52:33:f9:a9:7b:92:3c:e3:39:e8:7d:4d:
         ab:4c:d4:81:ae:32:a1:64:ca:cb:fc:73:ae:83:37:a6:97:61:
         74:25:af:d7:f0:a4:13:75:fb:da:d3:1d:e4:2c:bd:4f:69:ed:
         da:bb:ae:cc:42:74:69:32:f8:3b:a3:18:34:0a:55:01:5a:5d:
         7f:1b:a9:e7:61:38:af:1b:4b:85:91:fe:28:83:70:4c:1c:29:
         cc:93:fb:6b:e6:f0:b7:a8:6e:e0:5d:66:6a:9f:39:83:f4:db:
         7a:03:89:1f:98:16:da:13:9a:e2:f2:5e:9d:fa:94:f8:10:59:
         e4:59:34:28:72:8f:f0:c7:10:cf:81:32:24:89:f3:e6:49:57:
         21:03:9e:e9:08:fb:b8:5f:75:ec:a3:7e:a6:06:21:01:ce:59:
         84:48:30:43:8e:43:80:7e:89:ca:8f:28:78:bd:91:26:67:43:
         87:41:9e:59:ce:00:7b:f7:62:c9:44:7b:be:9e:d6:26:74:5c:
         95:ef:cd:9c:07:ce:02:76:84:07:27:21:1b:b5:d1:48:98:fe:
         9b:01:c3:0d:b9:fc:fb:a1:1d:f8:f4:40:23:a9:ed:be:c9:c0:
         39:cb:35:00:fa:5b:a1:39:ee:87:0f:b1:97:8f:83:6c:85:4d:
         bc:a9:6b:5b:15:09:d2:16:8d:9c:dd:61:9c:62:a6:81:b6:ba:
         9e:55:37:e1:4c:cd:b5:0f:f0:99:44:45:e2:c1:7f:b5:8d:f4:
         02:13:ec:1c:5b:e9:70:75:47:7b:03:9e:58:98:f4:93:1a:86:
         41:7a:ee:18:8c:07:95:ee:20:0c:ce:15:67:5e:be:33:af:dd:
         84:00:fc:99:82:49:60:22:82:dd:a2:c7:d9:7d:8d:17:e2:52:
         d6:d6:e9:71:66:ab:19:66:00:ce:61:91:73:e5:3a:a1:a6:fa:
         3f:d4:85:e0:54:b4:27:79:7c:5e:d7:ee:1b:a5:60:db:30:da:
         8c:b8:58:eb:bd:39:56:85:ec:f2:bc:81:c2:af:75:2b:e9:15:
         ea:e5:bb:89:25:82:d9:1c:b2:d8:69:ec:b4:77:7a:99:b0:2c:
         bd:7a:72:70:97:c3:d7:6a:ce:10:5a:98:3b:80:8c:bb:20:3b:
         af:54:97:2f:02:32:50:51:b8:ed:d5:ba:d0:ac:78:26:f4:46:
         4f:00:df:5c:54:79:f9:89:ed:53:43:49:bf:ae:25:7d:de:38:
         de:f7:d4:eb:64:15:fc:cc:7e:b9:02:b6:2a:41:ee:cc:dd:bd:
         6d:76:93:8c:7d:1e:8c:30
-----BEGIN CERTIFICATE-----
MIIGrTCCBJWgAwIBAgICMNcwDQYJKoZIhvcNAQELBQAwgawxCzAJBgNVBAYTAlVT
MQswCQYDVQQIEwJPSDERMA8GA1UEBxMIQ29sdW1idXMxEjAQBgNVBAoTCVZpa2lu
Z1ZQTjEdMBsGA1UECxMUTXlPcmdhbml6YXRpb25hbFVuaXQxFTATBgNVBAMTDFZp
a2luZ1ZQTiBDQTEQMA4GA1UEKRMHRWFzeVJTQTEhMB8GCSqGSIb3DQEJARYSbWVA
bXlob3N0Lm15ZG9tYWluMB4XDTE4MDEzMDIxMDEyNloXDTI4MDEyODIxMDEyNlow
HzEdMBsGA1UEAxMUQ2xpZW50MTcwMkNlcnQwZWExZGQwggIiMA0GCSqGSIb3DQEB
AQUAA4ICDwAwggIKAoICAQC7wCViIq+28I2ivoD4ZpGZq6mwrXQzLL7bpdtZ1rzo
ILL3Gt0Wl++VNgI8j+MnwDeWMbwrdRbx5/89T/oB1czFGmC+oUUFfR9Q4FNGZ3nJ
N4XnwsQI8xtA1Dg0hUyXfVnLcYDcAecCyuIYeHWo9zZB7diotwBbv/JR2BNWh06w
DDMlZpDyOzMXMqzOkoJZQgkUk67NLA/m8bPVea1CAvFlJ/uVQ0OwBiteui1IeeJe
7NVo7i9bGPUtgdE5kp3ILlzCNf95RaNbqvgQ2SC8gNCw2BDMg6oqk7PjGq+kl+00
Y+61orU/+GRf50lVdcREYGg2lJ56/F7o+t7sGBmZNrsQFZFkcv/MEg0jTAXfJc2B
Cva4s87ep8h1oJT978lz6M05cuF0h+o6QWgdKL/iq43Z92HVnDyuSzxrLiWv+z5M
J5PIUXXRwGYEVt92YVb+CJiLH6ZokMm3AE7qBDFr3REqu0Rpw9bdgKKQA6v6HpCC
up8eKzDZwWmabZGCQWb6lMngCgI4scPJ2mepaRiJKoBhb5BnmIlHP7H/6fw6zBGx
FYqQyWauzqrTXRF6/k9r6soygq27bt4g8bVyDM4ZHjjsDtWD3OhiCwPuOUq5Dly3
8a+VHbILGPhgiua8bRjWokcwZxLiwENDSHwwCV6kdvf38fPAGWB2j5QZJy2ixyck
8wIDAQABo4IBYzCCAV8wCQYDVR0TBAIwADAtBglghkgBhvhCAQ0EIBYeRWFzeS1S
U0EgR2VuZXJhdGVkIENlcnRpZmljYXRlMB0GA1UdDgQWBBSuoUGAfesyBkIbJeIR
YWaE3fKD8TCB4QYDVR0jBIHZMIHWgBQSzWAE0qCAnnDtxpm4eyzGUv0ZoaGBsqSB
rzCBrDELMAkGA1UEBhMCVVMxCzAJBgNVBAgTAk9IMREwDwYDVQQHEwhDb2x1bWJ1
czESMBAGA1UEChMJVmlraW5nVlBOMR0wGwYDVQQLExRNeU9yZ2FuaXphdGlvbmFs
VW5pdDEVMBMGA1UEAxMMVmlraW5nVlBOIENBMRAwDgYDVQQpEwdFYXN5UlNBMSEw
HwYJKoZIhvcNAQkBFhJtZUBteWhvc3QubXlkb21haW6CCQDPNYXugL8qPjATBgNV
HSUEDDAKBggrBgEFBQcDAjALBgNVHQ8EBAMCB4AwDQYJKoZIhvcNAQELBQADggIB
AB32/57oMySf+zb0L+b68KaHBsusQlpNDlIz+al7kjzjOeh9TatM1IGuMqFkysv8
c66DN6aXYXQlr9fwpBN1+9rTHeQsvU9p7dq7rsxCdGky+DujGDQKVQFaXX8bqedh
OK8bS4WR/iiDcEwcKcyT+2vm8LeobuBdZmqfOYP023oDiR+YFtoTmuLyXp36lPgQ
WeRZNChyj/DHEM+BMiSJ8+ZJVyEDnukI+7hfdeyjfqYGIQHOWYRIMEOOQ4B+icqP
KHi9kSZnQ4dBnlnOAHv3YslEe76e1iZ0XJXvzZwHzgJ2hAcnIRu10UiY/psBww25
/PuhHfj0QCOp7b7JwDnLNQD6W6E57ocPsZePg2yFTbypa1sVCdIWjZzdYZxipoG2
up5VN+FMzbUP8JlEReLBf7WN9AIT7Bxb6XB1R3sDnliY9JMahkF67hiMB5XuIAzO
FWdevjOv3YQA/JmCSWAigt2ix9l9jRfiUtbW6XFmqxlmAM5hkXPlOqGm+j/UheBU
tCd5fF7X7hulYNsw2oy4WOu9OVaF7PK8gcKvdSvpFerlu4klgtkcsthp7LR3epmw
LL16cnCXw9dqzhBamDuAjLsgO69Uly8CMlBRuO3VutCseCb0Rk8A31xUefmJ7VND
Sb+uJX3eON731OtkFfzMfrkCtipB7szdvW12k4x9Howw
-----END CERTIFICATE-----
