Certificate:
    Data:
        Version: 3 (0x2)
        Serial Number: 12515 (0x30e3)
    Signature Algorithm: sha256WithRSAEncryption
        Issuer: C=US, ST=OH, L=Columbus, O=VikingVPN, OU=MyOrganizationalUnit, CN=VikingVPN CA/name=EasyRSA/emailAddress=me@myhost.mydomain
        Validity
            Not Before: Feb  1 13:28:51 2018 GMT
            Not After : Jan 30 13:28:51 2028 GMT
        Subject: CN=Client3213Cert372cfd
        Subject Public Key Info:
            Public Key Algorithm: rsaEncryption
                Public-Key: (4096 bit)
                Modulus:
                    00:c5:ef:7d:ba:aa:69:e5:bf:45:5a:6f:10:c9:e9:
                    2f:6d:f5:4f:ce:54:57:03:d5:24:0e:56:c9:af:9a:
                    9c:fc:3c:f7:c9:55:65:85:40:e4:7e:30:b2:8b:2a:
                    c4:ef:be:54:51:3a:02:e8:46:dd:a8:da:9c:69:36:
                    cf:83:fb:75:8e:4c:f2:67:03:f4:fb:1f:86:a9:fb:
                    f3:02:ea:6e:e1:73:fe:38:79:38:9b:1e:01:55:7a:
                    14:00:c9:0e:ce:fe:16:b8:33:77:32:ba:0d:6d:e6:
                    b3:35:e6:d7:44:2a:dc:8d:99:8b:8e:f1:e4:28:75:
                    d4:b4:18:bc:e5:3e:81:5f:7c:b8:d5:86:ba:0e:03:
                    94:a0:90:98:8a:7e:1a:45:21:5d:23:a7:ec:21:95:
                    25:cd:7d:36:d5:b3:69:71:0b:4d:f3:37:8a:8c:33:
                    e2:12:c4:fe:98:8c:48:47:b8:ca:72:7a:3b:51:43:
                    ee:7d:89:a9:2c:82:f2:81:96:e3:da:aa:a3:66:bd:
                    81:f6:49:ba:e1:00:dc:1b:6e:ce:1b:7e:fa:b3:b9:
                    49:2a:56:a8:67:61:b3:55:41:76:e0:16:58:be:ea:
                    fa:9a:64:d3:0b:df:e7:8f:18:ee:7b:c0:08:3c:47:
                    58:12:20:b5:cc:ee:cf:a1:00:c3:9d:34:b5:49:8b:
                    b3:8d:8e:c0:8a:30:e5:6e:f7:5e:cd:b6:30:f0:1b:
                    5d:4c:46:37:6a:34:82:04:8c:a1:da:c2:2a:20:ec:
                    8a:be:60:57:11:8d:41:cf:55:d9:09:b0:cc:f4:1e:
                    66:e3:56:5a:61:68:aa:84:03:59:32:e9:dc:aa:a1:
                    f5:30:06:c6:a9:56:24:f6:fb:92:cb:b7:70:50:06:
                    89:1e:e7:de:91:e8:8c:e6:b4:8b:bd:4e:50:d9:f8:
                    70:5f:f7:ab:a5:b7:60:79:19:be:be:40:ee:7b:e8:
                    77:aa:67:38:c2:3c:56:a5:0e:48:2e:29:c9:27:f8:
                    29:16:f6:88:fd:4c:3d:37:02:c2:ab:f1:84:39:0e:
                    2c:1f:c6:7e:2c:39:42:77:4f:1a:80:ff:ac:bb:b6:
                    07:3d:90:05:0d:73:e2:5c:74:64:c5:70:5f:4f:ee:
                    ad:45:ee:bf:b1:95:25:11:34:21:60:dc:d8:d9:32:
                    2e:d7:85:4f:f6:a6:d8:37:d0:97:48:5b:92:12:84:
                    72:78:ac:da:9b:bf:42:5d:3b:74:4b:b6:a0:dc:44:
                    97:d6:8f:55:d3:38:fc:aa:3c:31:db:b3:6b:46:53:
                    72:58:d7:a7:69:13:00:c6:42:a1:c7:de:92:a3:64:
                    1d:3c:c2:95:57:b3:3e:36:30:a4:3a:14:47:57:23:
                    2a:95:d9
                Exponent: 65537 (0x10001)
        X509v3 extensions:
            X509v3 Basic Constraints: 
                CA:FALSE
            Netscape Comment: 
                Easy-RSA Generated Certificate
            X509v3 Subject Key Identifier: 
                84:B5:E5:D7:39:4B:C0:97:25:F4:21:AE:E7:A9:ED:69:93:2E:9B:5F
            X509v3 Authority Key Identifier: 
                keyid:12:CD:60:04:D2:A0:80:9E:70:ED:C6:99:B8:7B:2C:C6:52:FD:19:A1
                DirName:/C=US/ST=OH/L=Columbus/O=VikingVPN/OU=MyOrganizationalUnit/CN=VikingVPN CA/name=EasyRSA/emailAddress=me@myhost.mydomain
                serial:CF:35:85:EE:80:BF:2A:3E

            X509v3 Extended Key Usage: 
                TLS Web Client Authentication
            X509v3 Key Usage: 
                Digital Signature
    Signature Algorithm: sha256WithRSAEncryption
         05:86:7d:56:9c:76:f3:24:df:93:bf:0a:59:9a:47:4e:8e:f0:
         af:c7:35:64:14:ab:25:4c:08:ce:fb:88:6f:98:08:98:32:34:
         b8:b1:00:be:f1:07:62:c5:7f:62:90:67:63:73:e3:fa:24:c9:
         83:ee:6d:97:c4:4e:81:97:0b:e7:8f:aa:c2:25:6e:46:ed:ae:
         26:ab:81:c6:49:40:53:f6:25:b9:6d:ac:a5:7f:a9:ca:cd:9e:
         b4:c3:8c:fa:a7:fb:73:2d:a2:af:3b:d1:9b:60:16:96:64:88:
         ba:b3:e0:01:87:57:6d:aa:2b:70:37:53:c9:3c:7e:ea:f5:56:
         43:59:89:bf:03:8f:ad:5c:08:d5:b0:a2:a6:15:e9:e8:eb:43:
         22:a3:25:e0:10:b4:8f:d7:77:db:fe:ad:9a:f0:fb:4d:4e:e2:
         57:15:88:fb:0e:74:55:8e:17:e6:89:3b:72:c0:a6:b7:3a:7a:
         38:14:cc:46:22:8b:92:39:63:30:4e:ed:c6:9d:ef:d8:23:17:
         10:6e:70:c3:cc:74:a2:29:03:5b:1e:f3:76:fe:d5:4e:2f:ee:
         97:d8:b8:10:77:06:67:ff:6a:c8:83:ba:e1:e7:c7:d3:d1:48:
         42:e3:2c:fd:a8:5f:17:3e:f3:79:ba:5d:d5:b2:0d:2c:53:45:
         4a:be:a2:19:81:4e:76:c8:40:05:21:a7:dd:55:56:94:bd:bc:
         a7:89:ac:ce:04:70:9e:71:1d:b9:71:e4:ed:6c:4c:8c:2a:f2:
         14:9b:ba:a6:a6:3b:00:73:0d:2b:e0:01:bd:fd:6e:a1:f7:54:
         3d:a1:b3:d7:16:af:19:52:99:f8:01:a2:9c:fb:59:c1:41:9d:
         84:15:24:fe:12:90:c1:b3:ed:c8:6e:7d:55:50:18:46:d2:59:
         ea:ed:d4:a7:85:69:a0:9b:15:70:2b:dd:10:ca:bf:a4:e0:cc:
         37:5a:3e:1e:92:7a:93:fd:23:1d:01:17:f9:fd:5f:e8:86:f4:
         ee:29:64:5a:05:62:22:67:51:48:c9:00:9c:86:0d:51:7a:4c:
         1e:a9:b0:7d:23:01:41:b4:20:96:8f:fc:4e:1a:a1:e5:bd:18:
         9f:1b:84:15:ba:17:de:a5:b4:4a:dc:f4:b3:7e:d9:c8:2d:d9:
         fa:4c:35:ff:3d:e3:dc:7d:16:a0:94:6b:d0:17:c2:6a:ae:73:
         65:76:24:47:5f:66:9c:98:73:ed:1c:ad:bb:72:e2:46:5a:5b:
         37:9d:90:4b:d4:81:8c:9e:cf:2a:4a:70:2b:bf:fc:ed:0a:c0:
         81:31:5d:f7:ec:19:29:13:db:4d:a4:2c:d0:4b:cd:0a:9b:e0:
         22:5b:5a:dd:24:57:2b:af
-----BEGIN CERTIFICATE-----
MIIGrTCCBJWgAwIBAgICMOMwDQYJKoZIhvcNAQELBQAwgawxCzAJBgNVBAYTAlVT
MQswCQYDVQQIEwJPSDERMA8GA1UEBxMIQ29sdW1idXMxEjAQBgNVBAoTCVZpa2lu
Z1ZQTjEdMBsGA1UECxMUTXlPcmdhbml6YXRpb25hbFVuaXQxFTATBgNVBAMTDFZp
a2luZ1ZQTiBDQTEQMA4GA1UEKRMHRWFzeVJTQTEhMB8GCSqGSIb3DQEJARYSbWVA
bXlob3N0Lm15ZG9tYWluMB4XDTE4MDIwMTEzMjg1MVoXDTI4MDEzMDEzMjg1MVow
HzEdMBsGA1UEAxMUQ2xpZW50MzIxM0NlcnQzNzJjZmQwggIiMA0GCSqGSIb3DQEB
AQUAA4ICDwAwggIKAoICAQDF7326qmnlv0VabxDJ6S9t9U/OVFcD1SQOVsmvmpz8
PPfJVWWFQOR+MLKLKsTvvlRROgLoRt2o2pxpNs+D+3WOTPJnA/T7H4ap+/MC6m7h
c/44eTibHgFVehQAyQ7O/ha4M3cyug1t5rM15tdEKtyNmYuO8eQoddS0GLzlPoFf
fLjVhroOA5SgkJiKfhpFIV0jp+whlSXNfTbVs2lxC03zN4qMM+ISxP6YjEhHuMpy
ejtRQ+59iaksgvKBluPaqqNmvYH2SbrhANwbbs4bfvqzuUkqVqhnYbNVQXbgFli+
6vqaZNML3+ePGO57wAg8R1gSILXM7s+hAMOdNLVJi7ONjsCKMOVu917NtjDwG11M
RjdqNIIEjKHawiog7Iq+YFcRjUHPVdkJsMz0HmbjVlphaKqEA1ky6dyqofUwBsap
ViT2+5LLt3BQBoke596R6IzmtIu9TlDZ+HBf96ult2B5Gb6+QO576HeqZzjCPFal
DkguKckn+CkW9oj9TD03AsKr8YQ5Diwfxn4sOUJ3TxqA/6y7tgc9kAUNc+JcdGTF
cF9P7q1F7r+xlSURNCFg3NjZMi7XhU/2ptg30JdIW5IShHJ4rNqbv0JdO3RLtqDc
RJfWj1XTOPyqPDHbs2tGU3JY16dpEwDGQqHH3pKjZB08wpVXsz42MKQ6FEdXIyqV
2QIDAQABo4IBYzCCAV8wCQYDVR0TBAIwADAtBglghkgBhvhCAQ0EIBYeRWFzeS1S
U0EgR2VuZXJhdGVkIENlcnRpZmljYXRlMB0GA1UdDgQWBBSEteXXOUvAlyX0Ia7n
qe1pky6bXzCB4QYDVR0jBIHZMIHWgBQSzWAE0qCAnnDtxpm4eyzGUv0ZoaGBsqSB
rzCBrDELMAkGA1UEBhMCVVMxCzAJBgNVBAgTAk9IMREwDwYDVQQHEwhDb2x1bWJ1
czESMBAGA1UEChMJVmlraW5nVlBOMR0wGwYDVQQLExRNeU9yZ2FuaXphdGlvbmFs
VW5pdDEVMBMGA1UEAxMMVmlraW5nVlBOIENBMRAwDgYDVQQpEwdFYXN5UlNBMSEw
HwYJKoZIhvcNAQkBFhJtZUBteWhvc3QubXlkb21haW6CCQDPNYXugL8qPjATBgNV
HSUEDDAKBggrBgEFBQcDAjALBgNVHQ8EBAMCB4AwDQYJKoZIhvcNAQELBQADggIB
AAWGfVacdvMk35O/ClmaR06O8K/HNWQUqyVMCM77iG+YCJgyNLixAL7xB2LFf2KQ
Z2Nz4/okyYPubZfEToGXC+ePqsIlbkbtriargcZJQFP2JbltrKV/qcrNnrTDjPqn
+3Mtoq870ZtgFpZkiLqz4AGHV22qK3A3U8k8fur1VkNZib8Dj61cCNWwoqYV6ejr
QyKjJeAQtI/Xd9v+rZrw+01O4lcViPsOdFWOF+aJO3LAprc6ejgUzEYii5I5YzBO
7cad79gjFxBucMPMdKIpA1se83b+1U4v7pfYuBB3Bmf/asiDuuHnx9PRSELjLP2o
Xxc+83m6XdWyDSxTRUq+ohmBTnbIQAUhp91VVpS9vKeJrM4EcJ5xHblx5O1sTIwq
8hSbuqamOwBzDSvgAb39bqH3VD2hs9cWrxlSmfgBopz7WcFBnYQVJP4SkMGz7chu
fVVQGEbSWert1KeFaaCbFXAr3RDKv6TgzDdaPh6SepP9Ix0BF/n9X+iG9O4pZFoF
YiJnUUjJAJyGDVF6TB6psH0jAUG0IJaP/E4aoeW9GJ8bhBW6F96ltErc9LN+2cgt
2fpMNf8949x9FqCUa9AXwmquc2V2JEdfZpyYc+0crbty4kZaWzedkEvUgYyezypK
cCu//O0KwIExXffsGSkT202kLNBLzQqb4CJbWt0kVyuv
-----END CERTIFICATE-----
