Certificate:
    Data:
        Version: 3 (0x2)
        Serial Number: 12529 (0x30f1)
    Signature Algorithm: sha256WithRSAEncryption
        Issuer: C=US, ST=OH, L=Columbus, O=VikingVPN, OU=MyOrganizationalUnit, CN=VikingVPN CA/name=EasyRSA/emailAddress=me@myhost.mydomain
        Validity
            Not Before: Feb  7 19:35:28 2018 GMT
            Not After : Feb  5 19:35:28 2028 GMT
        Subject: CN=Client3217Cert1ac0f8
        Subject Public Key Info:
            Public Key Algorithm: rsaEncryption
                Public-Key: (4096 bit)
                Modulus:
                    00:9f:ae:8e:96:3c:3a:5b:d4:31:0b:40:b4:dd:3c:
                    8e:ae:83:11:cf:ca:bb:40:e2:74:54:6e:dd:2e:c8:
                    30:ef:30:1d:fc:6a:f0:ab:ba:67:d2:2a:cb:43:a4:
                    57:4a:29:76:62:a0:ed:c6:15:f0:e4:98:60:81:cc:
                    9a:ae:55:44:c8:90:2e:ad:7f:c1:7e:fe:73:d4:12:
                    43:f5:d6:a3:80:f3:34:89:67:22:07:51:c7:08:4a:
                    2d:66:0f:26:c3:3e:fd:a2:76:90:54:87:ea:31:f2:
                    a6:e1:c8:f1:b2:48:20:b2:18:05:cf:be:4c:63:d9:
                    e6:bf:2b:cf:a2:eb:00:9a:72:78:29:e3:06:fb:a3:
                    bd:8d:79:61:e9:27:b5:66:88:5c:45:28:12:24:9f:
                    89:8e:87:d6:8f:e4:ba:44:84:51:de:07:73:e4:9d:
                    fc:86:f3:12:e1:94:61:ad:75:4c:34:06:67:bc:e6:
                    96:0f:26:cb:b7:23:52:33:8a:0f:d9:e6:e8:c8:66:
                    43:03:85:7a:58:91:d6:8e:22:e2:27:6c:72:91:28:
                    8d:42:95:dc:68:cd:03:f6:e3:7b:96:7c:62:c5:5c:
                    76:95:10:d4:be:d4:9f:e3:6b:7a:ee:18:7f:e9:24:
                    01:08:a8:e5:a0:b5:46:df:15:c6:d7:c6:38:94:ee:
                    71:02:56:19:c7:ba:d2:96:29:0c:9b:99:f9:3c:36:
                    15:fd:c9:7f:bd:51:b5:bf:0e:e6:39:17:87:dc:83:
                    2d:24:03:85:c9:54:7e:9d:cc:35:9c:26:a3:de:a1:
                    90:51:cb:e0:aa:61:77:39:bd:b8:a7:02:cb:f2:a1:
                    cd:5a:78:94:43:f9:d3:7b:f9:75:88:5c:21:49:3d:
                    34:43:02:99:eb:45:cc:5c:ff:47:44:1b:6e:68:ae:
                    bd:ee:8c:f5:32:57:41:9a:00:d3:fd:71:b2:db:d3:
                    1e:91:53:c6:81:89:c1:85:8c:ba:87:17:0d:3a:02:
                    aa:94:f4:6f:3d:99:aa:b3:56:7a:68:85:d4:10:72:
                    1d:ec:e1:ab:cf:68:e3:71:0f:6a:a3:61:68:fb:4e:
                    40:ee:59:5f:08:3d:1e:07:45:df:1d:54:80:51:3f:
                    fb:17:a8:5d:7c:9b:c0:52:81:46:01:53:22:60:b9:
                    64:37:3e:20:ad:2a:54:d3:d0:05:58:35:49:a8:dd:
                    64:67:a4:1f:c8:24:d7:d5:8e:14:9d:6b:b4:cf:3e:
                    6d:09:94:b8:62:02:7d:64:f0:11:bd:c8:88:f5:a5:
                    b5:d1:4a:0a:ad:b1:cb:64:df:47:9e:ee:fb:11:68:
                    f3:ba:4a:21:8e:b3:78:7a:09:3f:21:5f:26:60:d3:
                    c3:67:15
                Exponent: 65537 (0x10001)
        X509v3 extensions:
            X509v3 Basic Constraints: 
                CA:FALSE
            Netscape Comment: 
                Easy-RSA Generated Certificate
            X509v3 Subject Key Identifier: 
                BE:A1:C1:D0:01:0E:5D:FB:4B:35:DC:A3:2F:65:02:00:F7:08:7C:E7
            X509v3 Authority Key Identifier: 
                keyid:12:CD:60:04:D2:A0:80:9E:70:ED:C6:99:B8:7B:2C:C6:52:FD:19:A1
                DirName:/C=US/ST=OH/L=Columbus/O=VikingVPN/OU=MyOrganizationalUnit/CN=VikingVPN CA/name=EasyRSA/emailAddress=me@myhost.mydomain
                serial:CF:35:85:EE:80:BF:2A:3E

            X509v3 Extended Key Usage: 
                TLS Web Client Authentication
            X509v3 Key Usage: 
                Digital Signature
    Signature Algorithm: sha256WithRSAEncryption
         75:13:c6:30:cb:01:3e:e9:7f:6e:44:be:54:75:f7:44:c2:87:
         57:0b:52:55:16:ba:b1:fb:1a:09:28:75:4a:d9:bf:a7:2e:d1:
         4a:11:4c:3c:87:41:08:47:14:20:28:f0:46:ea:9e:23:61:3b:
         82:48:e1:92:67:c5:c1:0d:f1:d6:8a:14:0a:79:3a:88:56:91:
         24:f4:47:27:87:6f:ab:25:7e:03:8c:eb:48:59:33:5b:8d:30:
         fa:2e:e2:31:a0:44:92:39:4a:34:e4:e2:f3:47:ed:29:d4:df:
         11:2e:69:a7:fc:1c:0b:4a:d8:b2:77:b6:5a:4c:e7:75:7c:db:
         ce:f1:14:f4:00:ad:1b:b1:61:52:9b:6f:da:6d:ac:4a:66:f8:
         80:f2:61:71:d5:14:3b:6d:be:eb:cf:b4:8e:25:b6:74:1b:37:
         80:1d:78:55:73:28:75:b2:4f:9a:d7:e1:20:00:60:a2:39:d8:
         c8:a1:29:48:ff:f6:5f:c1:19:af:c7:16:d4:ea:f5:b2:bd:a0:
         44:f9:a0:46:62:db:4e:67:ab:c6:8d:2d:4a:c6:85:89:ba:4d:
         d3:13:1f:f9:14:51:ef:e1:0b:a1:ce:f6:ba:c5:d6:46:d7:0f:
         35:61:83:da:7c:20:5d:da:94:b6:70:6c:e9:0e:52:e8:5f:e8:
         b9:6b:95:42:82:8c:44:29:b5:23:9b:02:e1:59:d3:91:ee:1f:
         21:75:19:28:5a:d0:fc:6b:07:09:33:0e:e8:17:b7:a0:d2:05:
         9e:dd:e4:6b:eb:5c:a5:45:dd:28:b4:a9:90:11:df:88:48:91:
         72:24:f0:92:04:51:c9:06:33:3b:9d:49:fa:1c:70:93:74:ee:
         65:b9:b6:4b:4a:37:8f:47:8c:6b:ca:1c:e9:83:ee:90:7a:4b:
         ef:49:16:d4:b2:20:11:9b:88:bf:da:87:ae:1e:53:fb:03:4b:
         9c:b0:8c:4f:66:28:49:4c:58:2f:ab:07:31:18:e7:44:0a:3c:
         b4:47:de:3b:c5:92:0c:a5:67:7c:42:97:3e:fc:1f:1c:df:c3:
         15:94:df:2e:37:9b:3a:03:78:4b:c5:e7:59:97:e8:0c:40:40:
         14:1c:8f:f0:08:16:29:3b:ef:be:08:6e:6c:51:c7:67:0d:2d:
         2d:37:d8:f6:ca:d8:43:fb:f8:19:75:83:7d:18:e3:09:c4:92:
         6c:18:8b:d6:ed:7e:14:7e:dd:d5:c4:c7:55:76:e9:ee:d1:fa:
         51:fe:03:8c:c2:d0:81:4e:d1:87:bc:cd:b2:ca:bc:2e:62:1a:
         ad:3d:08:ea:3e:e7:c0:ea:8d:a9:97:17:d0:eb:4f:7b:c5:1d:
         d2:3f:61:f0:3b:ae:97:8d
-----BEGIN CERTIFICATE-----
MIIGrTCCBJWgAwIBAgICMPEwDQYJKoZIhvcNAQELBQAwgawxCzAJBgNVBAYTAlVT
MQswCQYDVQQIEwJPSDERMA8GA1UEBxMIQ29sdW1idXMxEjAQBgNVBAoTCVZpa2lu
Z1ZQTjEdMBsGA1UECxMUTXlPcmdhbml6YXRpb25hbFVuaXQxFTATBgNVBAMTDFZp
a2luZ1ZQTiBDQTEQMA4GA1UEKRMHRWFzeVJTQTEhMB8GCSqGSIb3DQEJARYSbWVA
bXlob3N0Lm15ZG9tYWluMB4XDTE4MDIwNzE5MzUyOFoXDTI4MDIwNTE5MzUyOFow
HzEdMBsGA1UEAxMUQ2xpZW50MzIxN0NlcnQxYWMwZjgwggIiMA0GCSqGSIb3DQEB
AQUAA4ICDwAwggIKAoICAQCfro6WPDpb1DELQLTdPI6ugxHPyrtA4nRUbt0uyDDv
MB38avCrumfSKstDpFdKKXZioO3GFfDkmGCBzJquVUTIkC6tf8F+/nPUEkP11qOA
8zSJZyIHUccISi1mDybDPv2idpBUh+ox8qbhyPGySCCyGAXPvkxj2ea/K8+i6wCa
cngp4wb7o72NeWHpJ7VmiFxFKBIkn4mOh9aP5LpEhFHeB3PknfyG8xLhlGGtdUw0
Bme85pYPJsu3I1Izig/Z5ujIZkMDhXpYkdaOIuInbHKRKI1CldxozQP243uWfGLF
XHaVENS+1J/ja3ruGH/pJAEIqOWgtUbfFcbXxjiU7nECVhnHutKWKQybmfk8NhX9
yX+9UbW/DuY5F4fcgy0kA4XJVH6dzDWcJqPeoZBRy+CqYXc5vbinAsvyoc1aeJRD
+dN7+XWIXCFJPTRDApnrRcxc/0dEG25orr3ujPUyV0GaANP9cbLb0x6RU8aBicGF
jLqHFw06AqqU9G89maqzVnpohdQQch3s4avPaONxD2qjYWj7TkDuWV8IPR4HRd8d
VIBRP/sXqF18m8BSgUYBUyJguWQ3PiCtKlTT0AVYNUmo3WRnpB/IJNfVjhSda7TP
Pm0JlLhiAn1k8BG9yIj1pbXRSgqtsctk30ee7vsRaPO6SiGOs3h6CT8hXyZg08Nn
FQIDAQABo4IBYzCCAV8wCQYDVR0TBAIwADAtBglghkgBhvhCAQ0EIBYeRWFzeS1S
U0EgR2VuZXJhdGVkIENlcnRpZmljYXRlMB0GA1UdDgQWBBS+ocHQAQ5d+0s13KMv
ZQIA9wh85zCB4QYDVR0jBIHZMIHWgBQSzWAE0qCAnnDtxpm4eyzGUv0ZoaGBsqSB
rzCBrDELMAkGA1UEBhMCVVMxCzAJBgNVBAgTAk9IMREwDwYDVQQHEwhDb2x1bWJ1
czESMBAGA1UEChMJVmlraW5nVlBOMR0wGwYDVQQLExRNeU9yZ2FuaXphdGlvbmFs
VW5pdDEVMBMGA1UEAxMMVmlraW5nVlBOIENBMRAwDgYDVQQpEwdFYXN5UlNBMSEw
HwYJKoZIhvcNAQkBFhJtZUBteWhvc3QubXlkb21haW6CCQDPNYXugL8qPjATBgNV
HSUEDDAKBggrBgEFBQcDAjALBgNVHQ8EBAMCB4AwDQYJKoZIhvcNAQELBQADggIB
AHUTxjDLAT7pf25EvlR190TCh1cLUlUWurH7GgkodUrZv6cu0UoRTDyHQQhHFCAo
8EbqniNhO4JI4ZJnxcEN8daKFAp5OohWkST0RyeHb6slfgOM60hZM1uNMPou4jGg
RJI5SjTk4vNH7SnU3xEuaaf8HAtK2LJ3tlpM53V8287xFPQArRuxYVKbb9ptrEpm
+IDyYXHVFDttvuvPtI4ltnQbN4AdeFVzKHWyT5rX4SAAYKI52MihKUj/9l/BGa/H
FtTq9bK9oET5oEZi205nq8aNLUrGhYm6TdMTH/kUUe/hC6HO9rrF1kbXDzVhg9p8
IF3alLZwbOkOUuhf6LlrlUKCjEQptSObAuFZ05HuHyF1GSha0PxrBwkzDugXt6DS
BZ7d5GvrXKVF3Si0qZAR34hIkXIk8JIEUckGMzudSfoccJN07mW5tktKN49HjGvK
HOmD7pB6S+9JFtSyIBGbiL/ah64eU/sDS5ywjE9mKElMWC+rBzEY50QKPLRH3jvF
kgylZ3xClz78HxzfwxWU3y43mzoDeEvF51mX6AxAQBQcj/AIFik7774IbmxRx2cN
LS032PbK2EP7+Bl1g30Y4wnEkmwYi9btfhR+3dXEx1V26e7R+lH+A4zC0IFO0Ye8
zbLKvC5iGq09COo+58DqjamXF9DrT3vFHdI/YfA7rpeN
-----END CERTIFICATE-----
