Certificate:
    Data:
        Version: 3 (0x2)
        Serial Number: 12554 (0x310a)
    Signature Algorithm: sha256WithRSAEncryption
        Issuer: C=US, ST=OH, L=Columbus, O=VikingVPN, OU=MyOrganizationalUnit, CN=VikingVPN CA/name=EasyRSA/emailAddress=me@myhost.mydomain
        Validity
            Not Before: Feb 13 19:58:05 2018 GMT
            Not After : Feb 11 19:58:05 2028 GMT
        Subject: CN=Client1702Cert564368
        Subject Public Key Info:
            Public Key Algorithm: rsaEncryption
                Public-Key: (4096 bit)
                Modulus:
                    00:ce:58:19:d1:98:79:34:3d:89:16:77:f8:f4:df:
                    95:51:cf:ba:49:8d:30:04:31:d9:47:63:4a:ee:94:
                    2f:46:71:35:b6:39:7d:37:46:64:d8:66:00:a9:44:
                    41:eb:4a:b8:65:eb:94:5d:b1:33:2a:6c:4b:f0:ff:
                    5d:75:64:b9:00:bc:ad:e3:a3:af:84:e3:d5:f4:ce:
                    39:f2:51:27:09:e5:49:e8:6e:cb:fa:73:aa:3a:b2:
                    ed:0c:92:53:c1:1a:73:9b:cd:88:f6:fc:7b:59:c0:
                    b5:da:a6:cc:ea:47:07:40:42:7c:d1:86:c1:c0:02:
                    18:cc:6a:47:e1:d6:61:c3:3f:c6:ca:7f:54:c2:94:
                    fd:be:02:e3:e7:c4:d7:6a:25:8b:24:b1:ef:b1:6d:
                    4c:3a:79:df:36:ae:77:46:80:b5:15:b8:84:ac:74:
                    cd:ec:f4:5e:b6:cc:44:55:84:a6:26:97:f0:50:aa:
                    34:f7:41:31:af:59:e0:d4:8b:2e:6f:cb:94:53:32:
                    e4:55:ce:d8:92:27:9d:d8:7f:92:7e:5c:53:93:64:
                    4c:73:15:10:03:e2:5b:e1:69:7a:e9:6b:59:f0:77:
                    91:4c:5e:d2:35:97:e2:73:6f:38:8b:9d:4f:e7:7f:
                    ef:17:a7:ff:7b:0c:40:14:51:55:03:8e:99:06:68:
                    6e:c3:c8:40:ba:e8:cd:d6:e3:24:d9:3a:2d:c4:ed:
                    5a:13:fe:8e:94:39:50:e3:e5:4b:14:59:fc:5f:66:
                    7c:cb:63:91:bb:32:17:19:7b:97:55:ac:50:c2:68:
                    dc:a6:ba:41:ab:04:af:e3:be:fa:1d:d6:76:f6:be:
                    63:db:eb:eb:71:d2:ff:7c:42:84:c3:82:5b:0f:c0:
                    6b:64:98:30:eb:23:c7:61:75:3a:1a:d0:c0:60:14:
                    70:cf:c6:f2:9d:e2:e5:23:48:3b:56:c8:a4:c2:bc:
                    f9:32:8c:c6:03:68:78:c9:ce:44:3b:4a:72:9a:9e:
                    44:be:9f:15:df:0f:64:f1:90:ee:5f:a1:2f:ff:97:
                    37:05:a9:ef:04:9e:59:46:6a:e4:37:ef:05:d2:b6:
                    80:3d:71:90:00:61:1e:c7:ef:f6:f9:fb:a0:7f:fa:
                    c8:72:7e:2d:66:fe:f4:f2:51:77:d5:bc:30:e9:b6:
                    74:55:18:82:df:90:8c:34:cf:ce:07:24:8f:d6:4b:
                    fe:74:51:08:cf:7c:ef:32:78:17:d9:a9:e6:30:f6:
                    cd:f6:7c:b1:c9:b7:04:44:87:0d:d9:7f:2a:04:c0:
                    57:86:a9:18:31:30:af:1f:a5:89:4b:93:63:f9:c5:
                    34:75:85:77:f2:9f:03:05:4c:4d:92:c6:7d:f9:64:
                    d7:33:f9
                Exponent: 65537 (0x10001)
        X509v3 extensions:
            X509v3 Basic Constraints: 
                CA:FALSE
            Netscape Comment: 
                Easy-RSA Generated Certificate
            X509v3 Subject Key Identifier: 
                6E:A3:64:0A:DB:12:CA:C8:9D:9D:11:18:1E:4F:B0:4B:5A:77:2E:30
            X509v3 Authority Key Identifier: 
                keyid:12:CD:60:04:D2:A0:80:9E:70:ED:C6:99:B8:7B:2C:C6:52:FD:19:A1
                DirName:/C=US/ST=OH/L=Columbus/O=VikingVPN/OU=MyOrganizationalUnit/CN=VikingVPN CA/name=EasyRSA/emailAddress=me@myhost.mydomain
                serial:CF:35:85:EE:80:BF:2A:3E

            X509v3 Extended Key Usage: 
                TLS Web Client Authentication
            X509v3 Key Usage: 
                Digital Signature
    Signature Algorithm: sha256WithRSAEncryption
         0a:64:5e:e7:78:d3:92:93:0a:58:c4:48:7d:b6:c0:f5:9f:fd:
         ff:e1:c9:fe:81:62:05:46:7f:cb:16:af:e4:8c:3f:77:f0:91:
         e3:1c:85:bf:0b:91:a1:15:fa:9d:7e:d5:a6:c1:3c:be:a5:31:
         1c:45:2a:62:4b:5b:e0:e1:47:19:2b:10:58:5d:48:98:aa:22:
         0e:68:af:89:46:26:05:07:56:8f:aa:c9:88:1f:34:38:59:fa:
         88:66:ab:58:3d:0a:63:a8:01:91:e2:67:bb:fd:cc:55:2f:fa:
         0d:7a:ee:34:fa:60:94:44:f5:68:62:99:d1:a0:d8:81:34:18:
         a1:03:f6:ef:82:cb:2b:65:09:31:33:e0:11:d8:75:04:c1:c5:
         a6:ac:35:0d:87:64:cc:92:40:c4:79:0c:05:0a:9c:db:10:29:
         ec:0f:26:4a:2a:20:0f:a2:1b:3c:85:91:08:0c:bf:98:a4:eb:
         3d:47:11:b7:ab:73:af:d1:73:cc:60:d0:a9:fc:77:7c:fe:3b:
         73:fe:6c:59:09:df:19:70:08:a0:4b:78:7a:fb:d1:7d:e2:42:
         7d:df:c7:d5:1f:90:5f:53:31:1a:f5:d8:ec:11:c7:c8:be:48:
         75:c3:e0:91:b1:bc:94:9c:94:35:0e:77:79:00:1a:7b:88:2f:
         bb:c1:5a:92:6c:06:2c:c9:a5:16:0e:68:ec:4b:39:e9:09:ea:
         53:59:98:a9:94:cf:e1:df:41:ca:dc:81:19:d6:1d:4d:bd:63:
         0a:66:84:c6:d0:60:61:de:b9:11:9b:2f:1d:f4:a0:96:e1:73:
         b4:1d:7b:e9:f5:f7:2b:8f:85:18:74:67:1f:10:8f:63:7c:93:
         64:1a:5f:62:fb:2c:ae:18:a7:81:87:dd:0d:53:cb:77:bf:56:
         51:3b:09:74:e3:29:07:d2:97:99:66:37:aa:e1:60:96:99:00:
         e8:4c:29:ba:e9:c5:c7:41:d3:7f:d3:9e:75:ba:2b:03:ed:8e:
         1f:fc:15:23:f1:f8:be:01:53:45:08:d6:13:67:16:0a:ff:4b:
         c5:0f:bd:98:27:0a:b8:5d:3d:3f:2f:16:5b:cd:16:8d:c2:60:
         93:66:4e:31:04:74:9f:34:d4:36:b2:d6:8b:4e:7e:08:19:13:
         fe:39:98:98:9e:b9:b0:65:32:eb:65:cb:c1:a3:86:b3:99:6f:
         b9:5e:65:06:7c:b4:3f:da:73:45:cd:6e:40:be:18:08:aa:ef:
         61:d8:15:9b:ac:fd:77:d4:db:0e:9c:65:81:95:64:44:8f:13:
         e6:b6:56:2c:7e:19:02:35:ee:53:92:83:70:18:2c:3a:9d:0d:
         b0:c2:29:31:36:87:d1:24
-----BEGIN CERTIFICATE-----
MIIGrTCCBJWgAwIBAgICMQowDQYJKoZIhvcNAQELBQAwgawxCzAJBgNVBAYTAlVT
MQswCQYDVQQIEwJPSDERMA8GA1UEBxMIQ29sdW1idXMxEjAQBgNVBAoTCVZpa2lu
Z1ZQTjEdMBsGA1UECxMUTXlPcmdhbml6YXRpb25hbFVuaXQxFTATBgNVBAMTDFZp
a2luZ1ZQTiBDQTEQMA4GA1UEKRMHRWFzeVJTQTEhMB8GCSqGSIb3DQEJARYSbWVA
bXlob3N0Lm15ZG9tYWluMB4XDTE4MDIxMzE5NTgwNVoXDTI4MDIxMTE5NTgwNVow
HzEdMBsGA1UEAxMUQ2xpZW50MTcwMkNlcnQ1NjQzNjgwggIiMA0GCSqGSIb3DQEB
AQUAA4ICDwAwggIKAoICAQDOWBnRmHk0PYkWd/j035VRz7pJjTAEMdlHY0rulC9G
cTW2OX03RmTYZgCpREHrSrhl65RdsTMqbEvw/111ZLkAvK3jo6+E49X0zjnyUScJ
5Unobsv6c6o6su0MklPBGnObzYj2/HtZwLXapszqRwdAQnzRhsHAAhjMakfh1mHD
P8bKf1TClP2+AuPnxNdqJYskse+xbUw6ed82rndGgLUVuISsdM3s9F62zERVhKYm
l/BQqjT3QTGvWeDUiy5vy5RTMuRVztiSJ53Yf5J+XFOTZExzFRAD4lvhaXrpa1nw
d5FMXtI1l+JzbziLnU/nf+8Xp/97DEAUUVUDjpkGaG7DyEC66M3W4yTZOi3E7VoT
/o6UOVDj5UsUWfxfZnzLY5G7MhcZe5dVrFDCaNymukGrBK/jvvod1nb2vmPb6+tx
0v98QoTDglsPwGtkmDDrI8dhdToa0MBgFHDPxvKd4uUjSDtWyKTCvPkyjMYDaHjJ
zkQ7SnKankS+nxXfD2TxkO5foS//lzcFqe8EnllGauQ37wXStoA9cZAAYR7H7/b5
+6B/+shyfi1m/vTyUXfVvDDptnRVGILfkIw0z84HJI/WS/50UQjPfO8yeBfZqeYw
9s32fLHJtwREhw3ZfyoEwFeGqRgxMK8fpYlLk2P5xTR1hXfynwMFTE2Sxn35ZNcz
+QIDAQABo4IBYzCCAV8wCQYDVR0TBAIwADAtBglghkgBhvhCAQ0EIBYeRWFzeS1S
U0EgR2VuZXJhdGVkIENlcnRpZmljYXRlMB0GA1UdDgQWBBRuo2QK2xLKyJ2dERge
T7BLWncuMDCB4QYDVR0jBIHZMIHWgBQSzWAE0qCAnnDtxpm4eyzGUv0ZoaGBsqSB
rzCBrDELMAkGA1UEBhMCVVMxCzAJBgNVBAgTAk9IMREwDwYDVQQHEwhDb2x1bWJ1
czESMBAGA1UEChMJVmlraW5nVlBOMR0wGwYDVQQLExRNeU9yZ2FuaXphdGlvbmFs
VW5pdDEVMBMGA1UEAxMMVmlraW5nVlBOIENBMRAwDgYDVQQpEwdFYXN5UlNBMSEw
HwYJKoZIhvcNAQkBFhJtZUBteWhvc3QubXlkb21haW6CCQDPNYXugL8qPjATBgNV
HSUEDDAKBggrBgEFBQcDAjALBgNVHQ8EBAMCB4AwDQYJKoZIhvcNAQELBQADggIB
AApkXud405KTCljESH22wPWf/f/hyf6BYgVGf8sWr+SMP3fwkeMchb8LkaEV+p1+
1abBPL6lMRxFKmJLW+DhRxkrEFhdSJiqIg5or4lGJgUHVo+qyYgfNDhZ+ohmq1g9
CmOoAZHiZ7v9zFUv+g167jT6YJRE9WhimdGg2IE0GKED9u+CyytlCTEz4BHYdQTB
xaasNQ2HZMySQMR5DAUKnNsQKewPJkoqIA+iGzyFkQgMv5ik6z1HEberc6/Rc8xg
0Kn8d3z+O3P+bFkJ3xlwCKBLeHr70X3iQn3fx9UfkF9TMRr12OwRx8i+SHXD4JGx
vJSclDUOd3kAGnuIL7vBWpJsBizJpRYOaOxLOekJ6lNZmKmUz+HfQcrcgRnWHU29
YwpmhMbQYGHeuRGbLx30oJbhc7Qde+n19yuPhRh0Zx8Qj2N8k2QaX2L7LK4Yp4GH
3Q1Ty3e/VlE7CXTjKQfSl5lmN6rhYJaZAOhMKbrpxcdB03/TnnW6KwPtjh/8FSPx
+L4BU0UI1hNnFgr/S8UPvZgnCrhdPT8vFlvNFo3CYJNmTjEEdJ801Day1otOfggZ
E/45mJieubBlMutly8GjhrOZb7leZQZ8tD/ac0XNbkC+GAiq72HYFZus/XfU2w6c
ZYGVZESPE+a2Vix+GQI17lOSg3AYLDqdDbDCKTE2h9Ek
-----END CERTIFICATE-----
