Certificate:
    Data:
        Version: 3 (0x2)
        Serial Number: 12555 (0x310b)
    Signature Algorithm: sha256WithRSAEncryption
        Issuer: C=US, ST=OH, L=Columbus, O=VikingVPN, OU=MyOrganizationalUnit, CN=VikingVPN CA/name=EasyRSA/emailAddress=me@myhost.mydomain
        Validity
            Not Before: Feb 13 23:21:42 2018 GMT
            Not After : Feb 11 23:21:42 2028 GMT
        Subject: CN=Client3220Certd42893
        Subject Public Key Info:
            Public Key Algorithm: rsaEncryption
                Public-Key: (4096 bit)
                Modulus:
                    00:bc:b5:e1:c5:49:3b:91:da:96:0d:fe:96:fa:11:
                    de:88:34:17:26:e2:14:08:fe:c6:ff:ce:d1:da:98:
                    f8:39:ad:21:aa:89:24:9f:17:29:27:1f:87:a6:e0:
                    42:e7:47:df:51:1f:10:63:ae:f2:5a:96:22:a6:d9:
                    0b:ff:bf:f2:75:90:f7:f8:87:85:71:ca:6e:5a:2e:
                    ab:ee:59:31:2d:db:c0:7e:1f:3c:b9:24:a8:87:5a:
                    2a:a1:d8:1d:6f:a0:8c:92:06:6f:d3:30:85:40:7e:
                    e8:90:74:4e:86:4d:5c:b4:e2:57:9d:f9:02:9d:3e:
                    f7:78:77:75:7d:2a:9c:aa:16:fa:59:29:36:0b:7d:
                    a7:bd:cb:2c:6d:84:cb:20:52:27:27:80:b1:39:98:
                    c0:c9:cc:f2:64:f7:0b:a7:a3:9b:c1:bc:be:de:d6:
                    f8:c0:e6:c6:00:83:2e:a9:56:10:c1:3d:6e:1a:c0:
                    86:da:50:a3:70:43:87:02:0a:23:f9:22:b3:3e:27:
                    eb:35:05:89:c0:de:e5:21:04:b9:6a:c5:e7:ea:16:
                    01:d1:be:23:92:7d:ba:8c:ca:c9:87:59:3d:29:22:
                    e3:ca:71:e6:72:4c:23:81:8c:9a:8c:32:a5:1c:78:
                    5b:d9:f3:f6:e3:0f:ee:1f:ff:dd:4a:ab:0d:ba:9f:
                    d9:53:f0:f8:2c:58:57:0e:96:d5:24:5e:e7:c7:91:
                    84:5d:fd:06:25:e0:16:7b:38:19:3f:e0:ca:0c:9d:
                    72:cd:4c:04:de:44:2f:08:4d:a0:49:71:35:69:ae:
                    86:5f:9e:ff:04:44:fa:dd:76:ba:51:5d:e6:9e:24:
                    e2:2a:e3:2d:63:53:bb:4d:11:a5:e7:60:0b:5d:fa:
                    4a:a2:b6:7f:af:f3:59:5c:05:70:c2:c7:6b:c0:d3:
                    10:90:77:6c:f7:f7:f4:a9:e6:76:e8:65:00:dc:94:
                    7e:bb:39:27:59:0f:3e:94:d3:84:b2:5a:77:d1:2b:
                    e4:6c:16:d5:2f:07:42:f6:ee:a7:dc:e4:63:f3:96:
                    cc:08:60:26:89:1e:49:5a:bf:e9:67:58:10:20:de:
                    88:df:00:48:d9:af:39:f5:b2:85:9c:af:c2:53:ea:
                    4b:66:12:2e:ff:e6:82:84:57:ab:a2:c7:04:0e:cd:
                    e5:6a:4e:40:6d:7b:5e:60:70:6d:70:1f:45:25:fa:
                    93:3a:77:21:a5:95:68:61:3b:ce:47:ca:53:74:b6:
                    20:c5:b7:41:d3:f9:e5:b8:c1:f1:5b:b9:19:91:20:
                    ac:c4:63:d6:20:59:33:19:8c:25:c0:ed:2a:12:83:
                    68:b4:3b:00:c4:8d:8f:58:84:68:28:33:80:5e:44:
                    d8:e4:97
                Exponent: 65537 (0x10001)
        X509v3 extensions:
            X509v3 Basic Constraints: 
                CA:FALSE
            Netscape Comment: 
                Easy-RSA Generated Certificate
            X509v3 Subject Key Identifier: 
                56:19:49:60:2B:F8:62:AC:2B:BA:8C:AA:B1:43:42:BD:11:13:C1:B4
            X509v3 Authority Key Identifier: 
                keyid:12:CD:60:04:D2:A0:80:9E:70:ED:C6:99:B8:7B:2C:C6:52:FD:19:A1
                DirName:/C=US/ST=OH/L=Columbus/O=VikingVPN/OU=MyOrganizationalUnit/CN=VikingVPN CA/name=EasyRSA/emailAddress=me@myhost.mydomain
                serial:CF:35:85:EE:80:BF:2A:3E

            X509v3 Extended Key Usage: 
                TLS Web Client Authentication
            X509v3 Key Usage: 
                Digital Signature
    Signature Algorithm: sha256WithRSAEncryption
         c0:c3:58:01:bf:9d:55:ff:3e:94:d2:28:54:6d:c1:3e:ee:d5:
         35:80:38:c9:c0:c8:ee:79:cf:3b:a5:da:27:09:fd:46:97:f1:
         5a:5a:27:67:f5:10:65:66:44:a7:86:7a:93:62:0d:84:a9:29:
         9f:ab:e8:ef:98:1c:ce:4f:da:78:f4:78:6d:7f:07:13:48:6a:
         7d:5c:a7:12:f5:f2:79:5d:ef:4a:14:35:75:f4:0f:f2:71:70:
         7c:bc:0a:1d:1b:68:3d:1c:00:29:32:68:0c:9c:52:45:a7:87:
         a7:cb:5c:fb:f8:8e:73:35:60:30:cd:ac:26:e5:47:5b:ee:e1:
         18:8d:10:67:26:38:53:b7:83:14:1e:e9:34:46:17:9d:ac:16:
         57:c4:c5:48:4e:60:2c:2a:dc:ab:ce:b4:2b:f9:f8:0d:e2:87:
         91:f1:29:0a:1c:31:5b:9a:b0:ed:8f:2f:a3:6d:b1:d3:43:93:
         33:1f:3d:24:57:10:9d:b1:6b:21:8b:da:ae:cd:b5:2f:fb:7f:
         c9:a7:80:18:2a:ce:0c:94:9c:0d:1d:98:c4:c7:1e:66:81:6c:
         b3:47:3e:6c:a2:bf:d3:64:a6:9b:f9:a8:02:a7:94:b2:ab:95:
         91:e7:95:33:ef:e4:54:5f:6f:a1:db:b5:27:30:08:91:c5:1f:
         70:cc:29:f5:04:ae:91:e7:fb:3a:a8:41:df:a9:a1:bf:7d:6d:
         65:81:98:5a:ad:d9:db:2a:d2:3f:69:b4:f3:bf:aa:a2:67:48:
         28:b0:a5:46:91:e5:7b:b4:81:1c:86:fc:03:bd:f0:db:e9:f2:
         df:b9:2b:cd:89:c4:10:41:93:3f:66:67:a6:3c:54:64:2a:ed:
         e6:03:89:b0:9b:c0:40:fe:1e:98:a6:0a:6a:11:d3:8b:05:4c:
         0f:e2:41:03:9a:d2:e8:d4:a8:c3:c2:1a:b1:8b:fe:a6:cf:9a:
         42:fb:88:9b:cd:14:3a:b8:35:a0:f5:f4:09:4a:58:12:ed:77:
         e9:44:4c:f0:d9:43:b6:03:f8:e2:10:af:50:79:48:cc:e3:85:
         10:54:32:1a:1a:2e:f2:55:fc:c3:29:cf:57:a2:97:23:62:c5:
         f6:27:94:89:88:6e:c7:ac:8b:84:dc:88:bf:79:7c:88:02:52:
         23:98:e8:b0:ea:68:ec:2d:34:f6:24:3b:bc:44:6d:60:00:69:
         0a:10:6c:57:db:f7:53:63:7f:db:4e:6d:0e:bc:04:3c:4c:bf:
         28:40:5f:ee:43:1c:80:30:a6:c2:31:20:50:f1:ec:06:59:21:
         2d:a2:0b:28:47:e2:11:b4:73:a4:35:90:7a:fd:00:e1:1f:13:
         5c:6a:b6:33:0c:b3:ee:89
-----BEGIN CERTIFICATE-----
MIIGrTCCBJWgAwIBAgICMQswDQYJKoZIhvcNAQELBQAwgawxCzAJBgNVBAYTAlVT
MQswCQYDVQQIEwJPSDERMA8GA1UEBxMIQ29sdW1idXMxEjAQBgNVBAoTCVZpa2lu
Z1ZQTjEdMBsGA1UECxMUTXlPcmdhbml6YXRpb25hbFVuaXQxFTATBgNVBAMTDFZp
a2luZ1ZQTiBDQTEQMA4GA1UEKRMHRWFzeVJTQTEhMB8GCSqGSIb3DQEJARYSbWVA
bXlob3N0Lm15ZG9tYWluMB4XDTE4MDIxMzIzMjE0MloXDTI4MDIxMTIzMjE0Mlow
HzEdMBsGA1UEAxMUQ2xpZW50MzIyMENlcnRkNDI4OTMwggIiMA0GCSqGSIb3DQEB
AQUAA4ICDwAwggIKAoICAQC8teHFSTuR2pYN/pb6Ed6INBcm4hQI/sb/ztHamPg5
rSGqiSSfFyknH4em4ELnR99RHxBjrvJaliKm2Qv/v/J1kPf4h4Vxym5aLqvuWTEt
28B+Hzy5JKiHWiqh2B1voIySBm/TMIVAfuiQdE6GTVy04led+QKdPvd4d3V9Kpyq
FvpZKTYLfae9yyxthMsgUicngLE5mMDJzPJk9wuno5vBvL7e1vjA5sYAgy6pVhDB
PW4awIbaUKNwQ4cCCiP5IrM+J+s1BYnA3uUhBLlqxefqFgHRviOSfbqMysmHWT0p
IuPKceZyTCOBjJqMMqUceFvZ8/bjD+4f/91Kqw26n9lT8PgsWFcOltUkXufHkYRd
/QYl4BZ7OBk/4MoMnXLNTATeRC8ITaBJcTVproZfnv8ERPrddrpRXeaeJOIq4y1j
U7tNEaXnYAtd+kqitn+v81lcBXDCx2vA0xCQd2z39/Sp5nboZQDclH67OSdZDz6U
04SyWnfRK+RsFtUvB0L27qfc5GPzlswIYCaJHklav+lnWBAg3ojfAEjZrzn1soWc
r8JT6ktmEi7/5oKEV6uixwQOzeVqTkBte15gcG1wH0Ul+pM6dyGllWhhO85HylN0
tiDFt0HT+eW4wfFbuRmRIKzEY9YgWTMZjCXA7SoSg2i0OwDEjY9YhGgoM4BeRNjk
lwIDAQABo4IBYzCCAV8wCQYDVR0TBAIwADAtBglghkgBhvhCAQ0EIBYeRWFzeS1S
U0EgR2VuZXJhdGVkIENlcnRpZmljYXRlMB0GA1UdDgQWBBRWGUlgK/hirCu6jKqx
Q0K9ERPBtDCB4QYDVR0jBIHZMIHWgBQSzWAE0qCAnnDtxpm4eyzGUv0ZoaGBsqSB
rzCBrDELMAkGA1UEBhMCVVMxCzAJBgNVBAgTAk9IMREwDwYDVQQHEwhDb2x1bWJ1
czESMBAGA1UEChMJVmlraW5nVlBOMR0wGwYDVQQLExRNeU9yZ2FuaXphdGlvbmFs
VW5pdDEVMBMGA1UEAxMMVmlraW5nVlBOIENBMRAwDgYDVQQpEwdFYXN5UlNBMSEw
HwYJKoZIhvcNAQkBFhJtZUBteWhvc3QubXlkb21haW6CCQDPNYXugL8qPjATBgNV
HSUEDDAKBggrBgEFBQcDAjALBgNVHQ8EBAMCB4AwDQYJKoZIhvcNAQELBQADggIB
AMDDWAG/nVX/PpTSKFRtwT7u1TWAOMnAyO55zzul2icJ/UaX8VpaJ2f1EGVmRKeG
epNiDYSpKZ+r6O+YHM5P2nj0eG1/BxNIan1cpxL18nld70oUNXX0D/JxcHy8Ch0b
aD0cACkyaAycUkWnh6fLXPv4jnM1YDDNrCblR1vu4RiNEGcmOFO3gxQe6TRGF52s
FlfExUhOYCwq3KvOtCv5+A3ih5HxKQocMVuasO2PL6NtsdNDkzMfPSRXEJ2xayGL
2q7NtS/7f8mngBgqzgyUnA0dmMTHHmaBbLNHPmyiv9Nkppv5qAKnlLKrlZHnlTPv
5FRfb6HbtScwCJHFH3DMKfUErpHn+zqoQd+pob99bWWBmFqt2dsq0j9ptPO/qqJn
SCiwpUaR5Xu0gRyG/AO98Nvp8t+5K82JxBBBkz9mZ6Y8VGQq7eYDibCbwED+Hpim
CmoR04sFTA/iQQOa0ujUqMPCGrGL/qbPmkL7iJvNFDq4NaD19AlKWBLtd+lETPDZ
Q7YD+OIQr1B5SMzjhRBUMhoaLvJV/MMpz1eilyNixfYnlImIbsesi4TciL95fIgC
UiOY6LDqaOwtNPYkO7xEbWAAaQoQbFfb91Njf9tObQ68BDxMvyhAX+5DHIAwpsIx
IFDx7AZZIS2iCyhH4hG0c6Q1kHr9AOEfE1xqtjMMs+6J
-----END CERTIFICATE-----
