Certificate:
    Data:
        Version: 3 (0x2)
        Serial Number: 12559 (0x310f)
    Signature Algorithm: sha256WithRSAEncryption
        Issuer: C=US, ST=OH, L=Columbus, O=VikingVPN, OU=MyOrganizationalUnit, CN=VikingVPN CA/name=EasyRSA/emailAddress=me@myhost.mydomain
        Validity
            Not Before: Feb 15 19:00:10 2018 GMT
            Not After : Feb 13 19:00:10 2028 GMT
        Subject: CN=Client3197Cert681bb6
        Subject Public Key Info:
            Public Key Algorithm: rsaEncryption
                Public-Key: (4096 bit)
                Modulus:
                    00:c7:95:d2:22:c0:c0:9d:ac:b2:98:5a:cb:44:e0:
                    e9:cb:19:d9:4e:15:d9:11:f0:fc:e2:e0:b0:6e:84:
                    9e:e6:80:22:dc:bb:65:3d:3e:66:25:7c:a3:b4:fa:
                    61:3e:d5:a2:cb:f4:27:41:f0:7d:5f:89:00:0b:c3:
                    a3:da:93:2e:f6:51:94:10:91:7d:a6:6a:e1:a0:83:
                    a0:e3:90:5d:fc:23:0a:86:f1:10:ec:59:9b:1d:02:
                    de:0e:2b:56:27:fb:2d:a5:e8:54:ee:f2:e8:a2:b7:
                    95:b1:9b:fd:41:eb:44:04:5f:01:51:cf:0c:14:5f:
                    5d:e1:8a:9e:00:a1:71:61:a2:f5:3a:72:a1:96:75:
                    00:95:af:43:6a:91:7d:13:a5:34:c4:8f:05:0e:6e:
                    c5:a8:57:41:2f:a2:dc:02:66:98:4d:22:ca:ad:c0:
                    36:df:6f:5c:f2:2a:87:09:0b:8f:b9:dd:f3:43:23:
                    dd:fe:d5:ba:6d:cc:be:84:1e:8b:77:6b:00:c4:80:
                    6d:52:f7:d3:32:b9:11:53:9e:fb:c2:4c:74:6e:e9:
                    8e:4c:55:d3:9d:d4:9b:b7:1c:df:15:09:c4:6e:3b:
                    5a:a7:70:7c:88:7f:7f:a2:13:ab:86:26:2c:5e:d5:
                    c9:52:4c:d1:4c:61:a6:6e:82:20:ec:6c:d8:0a:fa:
                    67:f4:f9:1c:c7:c8:3f:af:94:a8:ca:f8:78:93:4c:
                    bf:d3:fa:56:77:52:37:c0:bd:7d:83:51:54:e4:c4:
                    2b:3f:fb:03:0e:d0:ea:5b:cf:56:1e:7b:a5:e8:14:
                    3e:0b:ad:70:88:61:75:15:9a:05:e7:20:12:b1:c0:
                    eb:f2:d4:79:ea:ee:06:d0:d1:2b:c5:e4:9f:1b:26:
                    c8:9c:14:84:22:57:1e:93:80:92:40:61:c7:91:e3:
                    c9:09:84:a8:00:4a:d5:bb:9a:1b:5c:4f:95:64:b0:
                    4b:43:d6:13:dd:0d:7d:af:cd:f1:cd:bc:6d:0c:5b:
                    fa:ee:af:33:87:28:45:6a:2f:c2:31:88:b1:0e:12:
                    b2:5f:e8:d0:69:ca:39:5c:43:25:fe:f9:cd:cb:38:
                    07:22:b8:16:a7:da:e1:05:e5:d2:df:cd:04:f2:ab:
                    a2:db:ed:85:25:e0:2a:24:9b:e3:68:1a:1f:1e:7a:
                    6d:8a:ae:fe:ea:ee:17:d1:8f:66:0b:c6:ce:7d:96:
                    67:48:54:60:cd:df:35:a7:cc:ae:d9:4c:af:db:1c:
                    c5:b2:d5:69:9c:37:bf:1b:ca:25:95:1a:9d:fb:2c:
                    f0:5c:bd:5e:c3:f4:d2:e2:73:1f:26:82:8e:f6:95:
                    73:91:43:4f:d3:41:b0:0a:b7:da:3e:8c:0b:0d:e6:
                    d8:2c:a3
                Exponent: 65537 (0x10001)
        X509v3 extensions:
            X509v3 Basic Constraints: 
                CA:FALSE
            Netscape Comment: 
                Easy-RSA Generated Certificate
            X509v3 Subject Key Identifier: 
                2C:7C:01:F8:33:18:7C:BB:09:38:D5:41:D0:E2:0D:D5:67:C8:36:85
            X509v3 Authority Key Identifier: 
                keyid:12:CD:60:04:D2:A0:80:9E:70:ED:C6:99:B8:7B:2C:C6:52:FD:19:A1
                DirName:/C=US/ST=OH/L=Columbus/O=VikingVPN/OU=MyOrganizationalUnit/CN=VikingVPN CA/name=EasyRSA/emailAddress=me@myhost.mydomain
                serial:CF:35:85:EE:80:BF:2A:3E

            X509v3 Extended Key Usage: 
                TLS Web Client Authentication
            X509v3 Key Usage: 
                Digital Signature
    Signature Algorithm: sha256WithRSAEncryption
         51:27:3a:85:b9:30:2f:ea:de:d8:da:fe:fe:01:b4:49:86:16:
         11:f2:f1:90:ce:51:08:e8:bd:08:9e:6a:fa:75:6f:42:d1:46:
         e7:d0:26:c5:45:95:e7:c3:5c:61:0d:c4:62:4d:00:a6:4e:8b:
         cb:ec:91:f2:c4:6e:5d:39:45:7c:d6:9f:23:cd:87:d9:80:23:
         97:cc:c0:76:aa:b1:d7:be:b7:b3:49:d2:cb:af:c1:29:e1:dc:
         bc:ee:e3:f7:6a:74:a1:bd:b2:6c:44:4f:e8:a0:0f:7f:2f:c1:
         21:df:00:b7:c7:e9:58:e3:d9:ec:ad:19:0d:7d:37:4a:51:64:
         52:12:0c:63:9e:25:85:81:29:1b:e4:34:1b:5a:8c:5d:1b:7d:
         99:bd:75:81:a8:08:c2:22:54:8c:b1:ec:d6:6d:8d:39:2d:a5:
         68:40:b8:e5:53:37:3d:12:10:b4:5d:67:73:3c:88:b2:00:14:
         a8:d4:36:8c:32:46:5f:93:ba:2f:40:bc:0a:5b:ff:2a:12:21:
         fa:54:99:b2:8e:97:02:7e:85:e3:15:be:f5:a9:3a:e5:bf:ce:
         19:9a:19:7e:48:29:fd:44:bf:b6:f6:a9:d5:0b:33:67:e0:f9:
         f7:2d:6a:47:f2:de:95:1b:eb:59:54:59:c9:c5:17:57:fc:ca:
         61:51:50:46:57:11:a7:a5:f5:43:6b:bf:b9:40:fe:69:6f:83:
         0c:a8:c1:b8:95:f0:4f:10:14:a1:e9:ad:56:d2:d8:b9:e3:85:
         a2:e3:36:8d:82:cb:c3:09:0e:95:61:a0:07:05:db:e7:d5:76:
         fc:76:3b:3b:b3:8b:0c:08:8e:1a:64:dd:f1:29:cb:38:6f:62:
         62:16:7f:16:cf:57:dc:8b:b6:8b:29:1c:11:ac:a9:6c:e2:66:
         cf:9c:2d:70:bc:30:1a:78:de:90:79:2d:89:d9:0b:c3:f7:87:
         d3:2e:a9:d2:ff:bd:a7:ec:88:e7:f7:86:a6:ca:bd:83:60:22:
         c9:bb:d0:1b:eb:86:16:b4:66:6e:92:85:01:c4:3d:6a:eb:10:
         2e:d9:cb:61:55:04:82:09:c2:96:54:97:6a:e2:1f:51:89:7b:
         17:59:62:85:07:28:20:99:21:8e:37:28:1a:0a:06:d1:92:91:
         d1:d1:e3:db:2c:b1:09:94:40:bd:07:19:a3:98:76:84:d9:df:
         3a:ca:3e:1e:df:eb:4f:c4:09:e0:2f:29:1e:aa:b0:ab:41:b4:
         75:26:55:da:36:af:0e:ab:fe:32:ed:0e:51:f0:23:94:33:52:
         f7:28:d5:71:91:bd:a4:d1:ea:ce:83:3c:05:60:dd:da:93:7b:
         46:5e:38:e2:45:ad:99:c4
-----BEGIN CERTIFICATE-----
MIIGrTCCBJWgAwIBAgICMQ8wDQYJKoZIhvcNAQELBQAwgawxCzAJBgNVBAYTAlVT
MQswCQYDVQQIEwJPSDERMA8GA1UEBxMIQ29sdW1idXMxEjAQBgNVBAoTCVZpa2lu
Z1ZQTjEdMBsGA1UECxMUTXlPcmdhbml6YXRpb25hbFVuaXQxFTATBgNVBAMTDFZp
a2luZ1ZQTiBDQTEQMA4GA1UEKRMHRWFzeVJTQTEhMB8GCSqGSIb3DQEJARYSbWVA
bXlob3N0Lm15ZG9tYWluMB4XDTE4MDIxNTE5MDAxMFoXDTI4MDIxMzE5MDAxMFow
HzEdMBsGA1UEAxMUQ2xpZW50MzE5N0NlcnQ2ODFiYjYwggIiMA0GCSqGSIb3DQEB
AQUAA4ICDwAwggIKAoICAQDHldIiwMCdrLKYWstE4OnLGdlOFdkR8Pzi4LBuhJ7m
gCLcu2U9PmYlfKO0+mE+1aLL9CdB8H1fiQALw6Paky72UZQQkX2mauGgg6DjkF38
IwqG8RDsWZsdAt4OK1Yn+y2l6FTu8uiit5Wxm/1B60QEXwFRzwwUX13hip4AoXFh
ovU6cqGWdQCVr0NqkX0TpTTEjwUObsWoV0EvotwCZphNIsqtwDbfb1zyKocJC4+5
3fNDI93+1bptzL6EHot3awDEgG1S99MyuRFTnvvCTHRu6Y5MVdOd1Ju3HN8VCcRu
O1qncHyIf3+iE6uGJixe1clSTNFMYaZugiDsbNgK+mf0+RzHyD+vlKjK+HiTTL/T
+lZ3UjfAvX2DUVTkxCs/+wMO0Opbz1Yee6XoFD4LrXCIYXUVmgXnIBKxwOvy1Hnq
7gbQ0SvF5J8bJsicFIQiVx6TgJJAYceR48kJhKgAStW7mhtcT5VksEtD1hPdDX2v
zfHNvG0MW/rurzOHKEVqL8IxiLEOErJf6NBpyjlcQyX++c3LOAciuBan2uEF5dLf
zQTyq6Lb7YUl4Cokm+NoGh8eem2Krv7q7hfRj2YLxs59lmdIVGDN3zWnzK7ZTK/b
HMWy1WmcN78byiWVGp37LPBcvV7D9NLicx8mgo72lXORQ0/TQbAKt9o+jAsN5tgs
owIDAQABo4IBYzCCAV8wCQYDVR0TBAIwADAtBglghkgBhvhCAQ0EIBYeRWFzeS1S
U0EgR2VuZXJhdGVkIENlcnRpZmljYXRlMB0GA1UdDgQWBBQsfAH4Mxh8uwk41UHQ
4g3VZ8g2hTCB4QYDVR0jBIHZMIHWgBQSzWAE0qCAnnDtxpm4eyzGUv0ZoaGBsqSB
rzCBrDELMAkGA1UEBhMCVVMxCzAJBgNVBAgTAk9IMREwDwYDVQQHEwhDb2x1bWJ1
czESMBAGA1UEChMJVmlraW5nVlBOMR0wGwYDVQQLExRNeU9yZ2FuaXphdGlvbmFs
VW5pdDEVMBMGA1UEAxMMVmlraW5nVlBOIENBMRAwDgYDVQQpEwdFYXN5UlNBMSEw
HwYJKoZIhvcNAQkBFhJtZUBteWhvc3QubXlkb21haW6CCQDPNYXugL8qPjATBgNV
HSUEDDAKBggrBgEFBQcDAjALBgNVHQ8EBAMCB4AwDQYJKoZIhvcNAQELBQADggIB
AFEnOoW5MC/q3tja/v4BtEmGFhHy8ZDOUQjovQieavp1b0LRRufQJsVFlefDXGEN
xGJNAKZOi8vskfLEbl05RXzWnyPNh9mAI5fMwHaqsde+t7NJ0suvwSnh3Lzu4/dq
dKG9smxET+igD38vwSHfALfH6Vjj2eytGQ19N0pRZFISDGOeJYWBKRvkNBtajF0b
fZm9dYGoCMIiVIyx7NZtjTktpWhAuOVTNz0SELRdZ3M8iLIAFKjUNowyRl+Tui9A
vApb/yoSIfpUmbKOlwJ+heMVvvWpOuW/zhmaGX5IKf1Ev7b2qdULM2fg+fctakfy
3pUb61lUWcnFF1f8ymFRUEZXEael9UNrv7lA/mlvgwyowbiV8E8QFKHprVbS2Lnj
haLjNo2Cy8MJDpVhoAcF2+fVdvx2OzuziwwIjhpk3fEpyzhvYmIWfxbPV9yLtosp
HBGsqWziZs+cLXC8MBp43pB5LYnZC8P3h9MuqdL/vafsiOf3hqbKvYNgIsm70Bvr
hha0Zm6ShQHEPWrrEC7Zy2FVBIIJwpZUl2riH1GJexdZYoUHKCCZIY43KBoKBtGS
kdHR49sssQmUQL0HGaOYdoTZ3zrKPh7f60/ECeAvKR6qsKtBtHUmVdo2rw6r/jLt
DlHwI5QzUvco1XGRvaTR6s6DPAVg3dqTe0ZeOOJFrZnE
-----END CERTIFICATE-----
