Certificate:
    Data:
        Version: 3 (0x2)
        Serial Number: 12566 (0x3116)
    Signature Algorithm: sha256WithRSAEncryption
        Issuer: C=US, ST=OH, L=Columbus, O=VikingVPN, OU=MyOrganizationalUnit, CN=VikingVPN CA/name=EasyRSA/emailAddress=me@myhost.mydomain
        Validity
            Not Before: Feb 16 16:34:06 2018 GMT
            Not After : Feb 14 16:34:06 2028 GMT
        Subject: CN=Client3224Certf759b4
        Subject Public Key Info:
            Public Key Algorithm: rsaEncryption
                Public-Key: (4096 bit)
                Modulus:
                    00:c9:f2:27:59:69:33:c2:96:2a:ce:17:ac:ad:16:
                    18:70:54:07:40:30:ea:3d:2b:97:88:0a:9c:96:e7:
                    8e:b2:37:bd:3f:e0:3c:fb:99:a0:c2:00:04:59:7e:
                    9c:74:fd:71:78:ad:48:da:74:e3:36:aa:04:d3:a9:
                    39:dd:e0:ec:bc:fd:d7:f6:d1:24:5a:3d:bd:cf:ae:
                    c8:5e:be:99:99:8b:c5:f7:f3:da:52:93:24:63:29:
                    d6:f4:63:d3:04:b8:30:75:1a:88:db:38:0f:1e:76:
                    63:5a:89:c4:ec:93:15:fc:ce:fa:4c:1b:c2:ca:5a:
                    78:a4:28:ae:79:29:40:0f:4c:70:ac:2a:9c:98:61:
                    91:b3:40:0b:5a:ed:2e:fb:c0:8a:70:31:86:eb:15:
                    13:68:bb:b6:d3:09:29:2f:e7:d4:15:ab:40:cb:fc:
                    f0:39:79:92:74:e1:18:25:44:c7:64:a4:30:8c:dc:
                    c9:b4:a9:f3:39:e4:c3:0a:1d:ca:99:bb:1b:e0:7e:
                    71:fc:be:64:37:c2:14:bb:b4:37:d1:a1:10:d4:da:
                    75:85:49:c2:2a:2c:b7:3c:91:87:fa:d5:e7:03:3f:
                    6e:1a:b8:9c:d1:30:db:4d:21:60:28:4f:a5:0d:b1:
                    04:08:31:ac:77:ab:c3:07:5d:96:e6:ea:c5:96:cd:
                    18:35:55:94:0a:99:f3:3c:31:6b:ed:9e:a2:15:3a:
                    3e:86:6d:5b:96:5d:f0:d7:6e:b4:24:fa:c3:35:ab:
                    bd:0b:ab:5f:a0:da:72:09:00:a8:90:7d:76:a6:a5:
                    29:ce:74:ae:0c:b2:38:bc:1a:a1:ec:61:91:cd:bb:
                    bf:12:63:f2:bb:a2:c2:4a:86:db:31:cf:e6:5b:2d:
                    ea:5b:11:76:72:73:be:42:12:97:25:3f:d0:1c:bf:
                    30:df:55:1a:7d:57:81:80:d9:90:82:07:4f:97:c8:
                    ec:2f:27:5f:31:89:0c:59:f5:38:30:7d:e8:ab:07:
                    b4:db:fe:1c:4b:47:bb:fc:78:39:10:6a:d6:d9:0e:
                    62:c5:83:1a:c8:d4:de:cc:f0:f9:19:12:70:a1:c5:
                    ea:08:b2:7d:b3:0e:3d:3d:c0:f8:63:12:a9:06:23:
                    9e:21:77:c6:84:8c:16:55:d8:05:8f:65:33:35:57:
                    ac:d0:4a:77:cc:ff:42:cb:42:3b:56:64:df:1c:cb:
                    fc:e5:fe:3a:97:30:86:69:ca:bf:56:ba:ff:67:bb:
                    2d:37:f3:27:08:5e:bb:12:c5:7d:53:b4:1f:1d:42:
                    ab:7e:7a:73:c8:10:e4:26:14:59:5b:0a:26:b0:0b:
                    ba:e1:dd:6f:cf:05:d4:46:41:45:98:86:5e:d4:5b:
                    46:52:83
                Exponent: 65537 (0x10001)
        X509v3 extensions:
            X509v3 Basic Constraints: 
                CA:FALSE
            Netscape Comment: 
                Easy-RSA Generated Certificate
            X509v3 Subject Key Identifier: 
                74:AE:B4:8B:0F:68:B0:B0:F5:5E:7B:7F:CD:BA:C7:0B:61:CD:7D:68
            X509v3 Authority Key Identifier: 
                keyid:12:CD:60:04:D2:A0:80:9E:70:ED:C6:99:B8:7B:2C:C6:52:FD:19:A1
                DirName:/C=US/ST=OH/L=Columbus/O=VikingVPN/OU=MyOrganizationalUnit/CN=VikingVPN CA/name=EasyRSA/emailAddress=me@myhost.mydomain
                serial:CF:35:85:EE:80:BF:2A:3E

            X509v3 Extended Key Usage: 
                TLS Web Client Authentication
            X509v3 Key Usage: 
                Digital Signature
    Signature Algorithm: sha256WithRSAEncryption
         3b:2f:72:ad:35:d6:47:e7:50:e2:2e:1d:02:8a:50:37:7c:1a:
         15:e6:fa:1c:1b:2a:21:5b:9d:22:5e:51:72:ac:19:b4:31:67:
         6b:bd:4d:74:02:7f:79:63:19:d5:9f:08:97:0d:c0:18:0c:38:
         58:2d:0c:f7:dc:b8:cb:8f:d6:68:0c:a4:52:4d:7c:43:94:5c:
         b1:a4:d3:e4:a7:89:a8:09:6a:e3:71:a9:c4:5c:86:63:f3:19:
         0f:54:ca:6d:f6:9d:d3:14:8d:7d:82:12:46:fb:c2:c3:93:ed:
         51:c7:a3:71:76:37:e1:a5:a3:db:e3:9f:33:03:a9:4a:39:10:
         a5:c4:af:95:90:6f:8e:71:44:3a:4b:a8:f6:f4:83:9f:b8:3b:
         6a:a9:be:5d:eb:1f:d9:e5:16:99:14:11:ac:04:1b:6e:19:74:
         63:35:a2:3b:db:ca:4d:f0:da:a4:9c:c5:14:2f:9f:17:af:52:
         2f:9b:ae:2a:40:e7:d6:47:76:4e:83:fd:34:83:3a:be:5b:47:
         53:0c:6a:c3:62:37:93:40:57:00:d0:c8:df:2c:74:4b:5f:a0:
         a9:d7:bb:23:e0:7a:0d:ad:1d:b1:ed:6e:38:3a:d8:e7:54:c8:
         19:dd:36:1a:2c:96:d7:a1:bb:ba:f4:b0:d3:35:7e:32:23:a2:
         0c:0e:44:d7:1e:d6:34:a1:ac:46:0f:65:2b:0c:25:8d:31:ec:
         e9:89:97:cb:f7:4a:cf:10:4e:32:9d:59:c3:45:73:82:d5:33:
         87:40:4d:f8:d2:aa:d7:6f:c1:9e:45:e5:74:e3:4c:6d:97:e3:
         4e:05:40:64:ea:1a:62:f2:1f:e1:58:90:2b:70:71:1c:0e:a1:
         72:9c:1a:a7:f3:18:60:91:5e:bb:0e:a0:71:e3:04:e8:62:f8:
         db:0c:69:62:e1:bb:6b:12:ae:a5:7e:9f:f4:1a:02:cb:ee:34:
         97:40:06:0a:10:fa:62:90:9f:15:da:80:f5:8f:5c:7a:ae:c9:
         38:85:26:78:5e:e9:dd:6e:1f:65:11:18:55:1a:14:0e:86:27:
         3b:6d:28:af:71:3f:04:10:12:b6:75:18:11:48:c6:78:75:b6:
         0b:ec:d9:fd:fc:77:09:72:77:e1:93:d3:63:4c:39:18:0c:93:
         e9:39:fa:8b:43:16:e8:3c:03:be:c5:57:c4:0e:0f:86:18:0a:
         12:b5:db:b2:68:e3:0b:aa:ee:1b:6e:01:2a:3b:8b:b9:8d:24:
         bb:be:18:e6:8d:47:ff:cb:04:4a:00:de:84:ad:0c:5c:ba:29:
         36:05:fd:b6:d1:55:a8:07:04:ca:8a:ce:e1:bd:f2:69:57:a2:
         51:1f:17:70:68:b3:60:37
-----BEGIN CERTIFICATE-----
MIIGrTCCBJWgAwIBAgICMRYwDQYJKoZIhvcNAQELBQAwgawxCzAJBgNVBAYTAlVT
MQswCQYDVQQIEwJPSDERMA8GA1UEBxMIQ29sdW1idXMxEjAQBgNVBAoTCVZpa2lu
Z1ZQTjEdMBsGA1UECxMUTXlPcmdhbml6YXRpb25hbFVuaXQxFTATBgNVBAMTDFZp
a2luZ1ZQTiBDQTEQMA4GA1UEKRMHRWFzeVJTQTEhMB8GCSqGSIb3DQEJARYSbWVA
bXlob3N0Lm15ZG9tYWluMB4XDTE4MDIxNjE2MzQwNloXDTI4MDIxNDE2MzQwNlow
HzEdMBsGA1UEAxMUQ2xpZW50MzIyNENlcnRmNzU5YjQwggIiMA0GCSqGSIb3DQEB
AQUAA4ICDwAwggIKAoICAQDJ8idZaTPClirOF6ytFhhwVAdAMOo9K5eICpyW546y
N70/4Dz7maDCAARZfpx0/XF4rUjadOM2qgTTqTnd4Oy8/df20SRaPb3PrshevpmZ
i8X389pSkyRjKdb0Y9MEuDB1GojbOA8edmNaicTskxX8zvpMG8LKWnikKK55KUAP
THCsKpyYYZGzQAta7S77wIpwMYbrFRNou7bTCSkv59QVq0DL/PA5eZJ04RglRMdk
pDCM3Mm0qfM55MMKHcqZuxvgfnH8vmQ3whS7tDfRoRDU2nWFScIqLLc8kYf61ecD
P24auJzRMNtNIWAoT6UNsQQIMax3q8MHXZbm6sWWzRg1VZQKmfM8MWvtnqIVOj6G
bVuWXfDXbrQk+sM1q70Lq1+g2nIJAKiQfXampSnOdK4Msji8GqHsYZHNu78SY/K7
osJKhtsxz+ZbLepbEXZyc75CEpclP9AcvzDfVRp9V4GA2ZCCB0+XyOwvJ18xiQxZ
9TgwfeirB7Tb/hxLR7v8eDkQatbZDmLFgxrI1N7M8PkZEnChxeoIsn2zDj09wPhj
EqkGI54hd8aEjBZV2AWPZTM1V6zQSnfM/0LLQjtWZN8cy/zl/jqXMIZpyr9Wuv9n
uy038ycIXrsSxX1TtB8dQqt+enPIEOQmFFlbCiawC7rh3W/PBdRGQUWYhl7UW0ZS
gwIDAQABo4IBYzCCAV8wCQYDVR0TBAIwADAtBglghkgBhvhCAQ0EIBYeRWFzeS1S
U0EgR2VuZXJhdGVkIENlcnRpZmljYXRlMB0GA1UdDgQWBBR0rrSLD2iwsPVee3/N
uscLYc19aDCB4QYDVR0jBIHZMIHWgBQSzWAE0qCAnnDtxpm4eyzGUv0ZoaGBsqSB
rzCBrDELMAkGA1UEBhMCVVMxCzAJBgNVBAgTAk9IMREwDwYDVQQHEwhDb2x1bWJ1
czESMBAGA1UEChMJVmlraW5nVlBOMR0wGwYDVQQLExRNeU9yZ2FuaXphdGlvbmFs
VW5pdDEVMBMGA1UEAxMMVmlraW5nVlBOIENBMRAwDgYDVQQpEwdFYXN5UlNBMSEw
HwYJKoZIhvcNAQkBFhJtZUBteWhvc3QubXlkb21haW6CCQDPNYXugL8qPjATBgNV
HSUEDDAKBggrBgEFBQcDAjALBgNVHQ8EBAMCB4AwDQYJKoZIhvcNAQELBQADggIB
ADsvcq011kfnUOIuHQKKUDd8GhXm+hwbKiFbnSJeUXKsGbQxZ2u9TXQCf3ljGdWf
CJcNwBgMOFgtDPfcuMuP1mgMpFJNfEOUXLGk0+SniagJauNxqcRchmPzGQ9Uym32
ndMUjX2CEkb7wsOT7VHHo3F2N+Glo9vjnzMDqUo5EKXEr5WQb45xRDpLqPb0g5+4
O2qpvl3rH9nlFpkUEawEG24ZdGM1ojvbyk3w2qScxRQvnxevUi+bripA59ZHdk6D
/TSDOr5bR1MMasNiN5NAVwDQyN8sdEtfoKnXuyPgeg2tHbHtbjg62OdUyBndNhos
ltehu7r0sNM1fjIjogwORNce1jShrEYPZSsMJY0x7OmJl8v3Ss8QTjKdWcNFc4LV
M4dATfjSqtdvwZ5F5XTjTG2X404FQGTqGmLyH+FYkCtwcRwOoXKcGqfzGGCRXrsO
oHHjBOhi+NsMaWLhu2sSrqV+n/QaAsvuNJdABgoQ+mKQnxXagPWPXHquyTiFJnhe
6d1uH2URGFUaFA6GJzttKK9xPwQQErZ1GBFIxnh1tgvs2f38dwlyd+GT02NMORgM
k+k5+otDFug8A77FV8QOD4YYChK127Jo4wuq7htuASo7i7mNJLu+GOaNR//LBEoA
3oStDFy6KTYF/bbRVagHBMqKzuG98mlXolEfF3Bos2A3
-----END CERTIFICATE-----
