Certificate:
    Data:
        Version: 3 (0x2)
        Serial Number: 12577 (0x3121)
    Signature Algorithm: sha256WithRSAEncryption
        Issuer: C=US, ST=OH, L=Columbus, O=VikingVPN, OU=MyOrganizationalUnit, CN=VikingVPN CA/name=EasyRSA/emailAddress=me@myhost.mydomain
        Validity
            Not Before: Feb 17 20:35:48 2018 GMT
            Not After : Feb 15 20:35:48 2028 GMT
        Subject: CN=Client3227Cert172699
        Subject Public Key Info:
            Public Key Algorithm: rsaEncryption
                Public-Key: (4096 bit)
                Modulus:
                    00:df:ca:f0:a2:0b:2c:3e:59:10:12:75:6f:cf:67:
                    10:04:be:42:9b:8c:3b:cf:66:c7:5c:8d:b5:fa:fa:
                    12:ac:ec:16:12:98:0e:98:4c:31:89:d9:76:76:e7:
                    d2:a5:66:51:d4:13:e2:09:e0:88:1b:51:74:76:08:
                    cd:cc:93:40:c9:54:5e:ef:47:6a:1a:3f:d3:e8:bd:
                    61:ac:21:46:73:07:f5:66:b4:d9:4a:f8:51:42:e3:
                    65:57:da:38:f5:49:5b:57:0c:c2:23:c7:72:f8:cc:
                    36:46:16:49:cd:e2:6a:70:4e:93:88:78:3c:c7:7f:
                    dd:61:4d:e3:81:be:06:8a:22:a6:b6:3b:c2:6a:14:
                    0b:96:fe:2e:36:d4:12:42:9b:fd:6c:87:1d:8c:9b:
                    d9:d3:d9:00:ce:b9:c4:8e:6e:a6:5c:15:cd:84:a7:
                    ec:1b:9a:63:f9:62:a5:85:01:a9:e7:af:3e:31:94:
                    68:34:04:82:21:55:cc:96:6e:53:78:2c:01:f0:d4:
                    3f:8d:ff:22:f3:2a:4e:c2:32:40:3f:1a:5e:a4:5b:
                    f8:d5:d5:80:5c:33:34:e4:a9:b7:31:b5:07:b3:71:
                    70:12:8a:a2:c9:41:73:71:29:95:cb:e5:dd:5f:82:
                    04:90:86:cf:80:ed:88:be:19:b7:a9:09:44:2a:78:
                    53:49:e7:95:99:61:35:2c:b3:3b:ca:be:e6:40:48:
                    f7:44:2e:cd:36:f8:d9:e5:b3:f2:a0:96:c4:dd:be:
                    d5:26:ff:0e:49:e9:a3:28:d6:cb:17:d8:44:24:29:
                    a6:07:1e:ac:93:06:3a:6c:47:26:3e:d3:99:bd:36:
                    39:ad:92:73:78:c9:cd:81:8f:89:72:f5:61:43:89:
                    f7:b2:bb:f7:8f:0d:b2:da:9c:79:0e:f6:b4:3e:1e:
                    52:f2:9e:e8:49:02:d4:dd:68:1c:c9:1e:87:6c:71:
                    72:13:3d:90:ba:25:17:6e:a0:aa:6e:a6:bc:fb:50:
                    ac:dc:f5:89:48:c5:13:30:63:a7:28:9d:b5:6b:64:
                    50:87:7d:e2:4c:91:52:9d:ff:79:cb:32:b9:e9:21:
                    cf:8a:a3:19:b3:50:9a:0b:d4:76:e2:6f:47:da:98:
                    30:ae:cc:f6:25:18:79:68:9d:9e:69:a9:e6:37:f8:
                    9d:e4:40:76:e8:36:df:31:c0:f9:80:ed:bc:1d:19:
                    b8:49:5c:bf:33:4e:f3:d6:96:de:2b:d6:da:79:21:
                    5c:d8:fd:5e:57:48:3c:8f:38:3f:97:6a:e4:7d:b8:
                    56:a6:75:f5:83:bd:00:09:a1:94:3b:93:aa:32:57:
                    92:d3:f7:4e:f3:ac:bc:7f:0f:c6:77:a0:ce:5a:0c:
                    fa:02:c1
                Exponent: 65537 (0x10001)
        X509v3 extensions:
            X509v3 Basic Constraints: 
                CA:FALSE
            Netscape Comment: 
                Easy-RSA Generated Certificate
            X509v3 Subject Key Identifier: 
                CF:73:DB:D2:9B:68:A2:BD:2E:4B:B8:C4:07:2F:6E:F2:7D:65:A7:50
            X509v3 Authority Key Identifier: 
                keyid:12:CD:60:04:D2:A0:80:9E:70:ED:C6:99:B8:7B:2C:C6:52:FD:19:A1
                DirName:/C=US/ST=OH/L=Columbus/O=VikingVPN/OU=MyOrganizationalUnit/CN=VikingVPN CA/name=EasyRSA/emailAddress=me@myhost.mydomain
                serial:CF:35:85:EE:80:BF:2A:3E

            X509v3 Extended Key Usage: 
                TLS Web Client Authentication
            X509v3 Key Usage: 
                Digital Signature
    Signature Algorithm: sha256WithRSAEncryption
         62:e6:91:e5:26:9d:2e:8e:ba:bd:38:86:90:c7:00:bb:8d:a7:
         d5:70:9f:e7:cf:ec:55:84:dd:71:4c:69:6d:91:ec:fd:72:b1:
         3f:74:0c:6c:66:5d:7f:bd:d5:9f:ee:26:42:1b:cf:c2:6b:1e:
         94:fa:ff:0a:78:49:a4:3c:fa:83:bf:2c:66:26:af:89:b0:cd:
         c8:bd:cb:fd:3e:7f:60:28:9c:c8:9f:88:74:8b:94:e7:93:60:
         1c:ec:05:15:a6:50:1f:3c:93:8a:57:0a:f1:3d:dd:29:91:14:
         a4:c0:e0:5c:ba:9c:27:ca:45:46:c1:61:b0:b2:c8:af:27:b7:
         4a:cc:6a:3c:f0:49:fa:a9:a0:28:ad:9f:23:84:ca:54:e5:d0:
         41:75:83:69:30:7d:79:89:ad:5b:39:79:9b:e5:60:dd:43:a2:
         68:75:39:e0:fd:bf:b4:03:c2:98:58:fe:79:0e:25:17:60:ec:
         85:5c:32:70:b5:31:72:5f:13:37:44:3f:2d:2b:17:b7:ea:78:
         c0:95:f8:eb:14:ef:2f:a5:c2:53:26:6b:46:77:3a:d9:a7:03:
         ba:c4:2f:e6:8f:0a:53:9b:e4:71:bf:42:c7:e1:79:ab:b4:b2:
         c4:5d:56:d3:22:70:69:83:30:f5:2e:24:f9:4b:b3:2a:48:b5:
         a2:8d:59:3e:c3:29:af:f9:b2:39:d5:1c:73:44:2a:06:86:70:
         06:2e:f8:80:37:ff:7b:d6:1b:ac:5d:15:39:0d:c3:0f:8f:9f:
         51:58:12:8d:76:14:b2:f0:c4:ad:f0:64:6c:37:7f:9c:68:2a:
         0c:0f:66:21:44:62:a9:4d:43:cd:19:85:c0:7c:8d:b3:71:2d:
         c8:37:e7:aa:15:3d:d9:6b:02:14:5a:a2:d2:6b:6e:0e:ae:c7:
         3a:ce:d3:f0:ed:79:a8:bd:78:34:07:d2:bd:7c:6f:eb:98:ef:
         5e:40:4d:3b:68:2b:e2:54:f4:53:a5:d5:53:fa:5b:f0:ec:be:
         2b:a6:6c:f4:87:fe:a0:2c:f2:f9:0f:a9:6a:59:91:c9:c1:b2:
         cf:1f:60:c8:35:fc:c6:4e:96:b1:d5:72:78:c6:b5:b4:fb:3e:
         6f:cb:86:98:93:6b:56:e7:4f:5a:03:39:6a:e6:9b:7e:ae:1c:
         46:46:dc:55:e3:93:c2:b7:44:5c:f2:2a:c4:7c:3d:b7:d6:5e:
         cf:29:0a:85:93:66:c4:a0:3e:ab:d6:66:9b:d0:28:f7:ef:b9:
         0c:6d:0e:ea:b0:6b:09:8d:7c:32:88:31:d3:15:c2:66:bf:94:
         65:43:1f:2d:a1:09:69:1a:f1:65:3c:0a:dd:de:b1:36:27:46:
         fc:d1:54:fa:e5:aa:02:54
-----BEGIN CERTIFICATE-----
MIIGrTCCBJWgAwIBAgICMSEwDQYJKoZIhvcNAQELBQAwgawxCzAJBgNVBAYTAlVT
MQswCQYDVQQIEwJPSDERMA8GA1UEBxMIQ29sdW1idXMxEjAQBgNVBAoTCVZpa2lu
Z1ZQTjEdMBsGA1UECxMUTXlPcmdhbml6YXRpb25hbFVuaXQxFTATBgNVBAMTDFZp
a2luZ1ZQTiBDQTEQMA4GA1UEKRMHRWFzeVJTQTEhMB8GCSqGSIb3DQEJARYSbWVA
bXlob3N0Lm15ZG9tYWluMB4XDTE4MDIxNzIwMzU0OFoXDTI4MDIxNTIwMzU0OFow
HzEdMBsGA1UEAxMUQ2xpZW50MzIyN0NlcnQxNzI2OTkwggIiMA0GCSqGSIb3DQEB
AQUAA4ICDwAwggIKAoICAQDfyvCiCyw+WRASdW/PZxAEvkKbjDvPZsdcjbX6+hKs
7BYSmA6YTDGJ2XZ259KlZlHUE+IJ4IgbUXR2CM3Mk0DJVF7vR2oaP9PovWGsIUZz
B/VmtNlK+FFC42VX2jj1SVtXDMIjx3L4zDZGFknN4mpwTpOIeDzHf91hTeOBvgaK
Iqa2O8JqFAuW/i421BJCm/1shx2Mm9nT2QDOucSObqZcFc2Ep+wbmmP5YqWFAann
rz4xlGg0BIIhVcyWblN4LAHw1D+N/yLzKk7CMkA/Gl6kW/jV1YBcMzTkqbcxtQez
cXASiqLJQXNxKZXL5d1fggSQhs+A7Yi+GbepCUQqeFNJ55WZYTUsszvKvuZASPdE
Ls02+Nnls/KglsTdvtUm/w5J6aMo1ssX2EQkKaYHHqyTBjpsRyY+05m9NjmtknN4
yc2Bj4ly9WFDifeyu/ePDbLanHkO9rQ+HlLynuhJAtTdaBzJHodscXITPZC6JRdu
oKpuprz7UKzc9YlIxRMwY6conbVrZFCHfeJMkVKd/3nLMrnpIc+KoxmzUJoL1Hbi
b0famDCuzPYlGHlonZ5pqeY3+J3kQHboNt8xwPmA7bwdGbhJXL8zTvPWlt4r1tp5
IVzY/V5XSDyPOD+XauR9uFamdfWDvQAJoZQ7k6oyV5LT907zrLx/D8Z3oM5aDPoC
wQIDAQABo4IBYzCCAV8wCQYDVR0TBAIwADAtBglghkgBhvhCAQ0EIBYeRWFzeS1S
U0EgR2VuZXJhdGVkIENlcnRpZmljYXRlMB0GA1UdDgQWBBTPc9vSm2iivS5LuMQH
L27yfWWnUDCB4QYDVR0jBIHZMIHWgBQSzWAE0qCAnnDtxpm4eyzGUv0ZoaGBsqSB
rzCBrDELMAkGA1UEBhMCVVMxCzAJBgNVBAgTAk9IMREwDwYDVQQHEwhDb2x1bWJ1
czESMBAGA1UEChMJVmlraW5nVlBOMR0wGwYDVQQLExRNeU9yZ2FuaXphdGlvbmFs
VW5pdDEVMBMGA1UEAxMMVmlraW5nVlBOIENBMRAwDgYDVQQpEwdFYXN5UlNBMSEw
HwYJKoZIhvcNAQkBFhJtZUBteWhvc3QubXlkb21haW6CCQDPNYXugL8qPjATBgNV
HSUEDDAKBggrBgEFBQcDAjALBgNVHQ8EBAMCB4AwDQYJKoZIhvcNAQELBQADggIB
AGLmkeUmnS6Our04hpDHALuNp9Vwn+fP7FWE3XFMaW2R7P1ysT90DGxmXX+91Z/u
JkIbz8JrHpT6/wp4SaQ8+oO/LGYmr4mwzci9y/0+f2AonMifiHSLlOeTYBzsBRWm
UB88k4pXCvE93SmRFKTA4Fy6nCfKRUbBYbCyyK8nt0rMajzwSfqpoCitnyOEylTl
0EF1g2kwfXmJrVs5eZvlYN1Domh1OeD9v7QDwphY/nkOJRdg7IVcMnC1MXJfEzdE
Py0rF7fqeMCV+OsU7y+lwlMma0Z3OtmnA7rEL+aPClOb5HG/Qsfheau0ssRdVtMi
cGmDMPUuJPlLsypItaKNWT7DKa/5sjnVHHNEKgaGcAYu+IA3/3vWG6xdFTkNww+P
n1FYEo12FLLwxK3wZGw3f5xoKgwPZiFEYqlNQ80ZhcB8jbNxLcg356oVPdlrAhRa
otJrbg6uxzrO0/Dteai9eDQH0r18b+uY715ATTtoK+JU9FOl1VP6W/DsviumbPSH
/qAs8vkPqWpZkcnBss8fYMg1/MZOlrHVcnjGtbT7Pm/LhpiTa1bnT1oDOWrmm36u
HEZG3FXjk8K3RFzyKsR8PbfWXs8pCoWTZsSgPqvWZpvQKPfvuQxtDuqwawmNfDKI
MdMVwma/lGVDHy2hCWka8WU8Ct3esTYnRvzRVPrlqgJU
-----END CERTIFICATE-----
