Certificate:
    Data:
        Version: 3 (0x2)
        Serial Number: 12579 (0x3123)
    Signature Algorithm: sha256WithRSAEncryption
        Issuer: C=US, ST=OH, L=Columbus, O=VikingVPN, OU=MyOrganizationalUnit, CN=VikingVPN CA/name=EasyRSA/emailAddress=me@myhost.mydomain
        Validity
            Not Before: Feb 17 21:00:51 2018 GMT
            Not After : Feb 15 21:00:51 2028 GMT
        Subject: CN=Client3228Cert4a952e
        Subject Public Key Info:
            Public Key Algorithm: rsaEncryption
                Public-Key: (4096 bit)
                Modulus:
                    00:c6:17:f6:31:bf:a8:42:e6:e3:1a:69:dd:92:78:
                    d0:44:bc:19:f3:35:95:be:20:5e:d2:8e:68:5c:76:
                    de:35:82:4d:1c:1c:89:b4:4c:79:bd:a7:4c:81:c1:
                    b6:19:c6:06:c1:1e:5a:a4:93:4c:ad:7f:a0:3d:03:
                    c5:5f:6e:79:e6:62:0c:92:40:91:c4:a2:0a:51:48:
                    69:ad:15:a2:43:c7:ae:e2:3a:2a:59:00:85:92:a3:
                    41:70:41:7c:be:92:eb:f6:92:f1:72:34:63:0f:0a:
                    0f:8a:93:92:01:44:d1:3a:c2:9b:96:1b:74:b5:f0:
                    03:39:71:8b:e9:db:09:5f:2a:0c:f7:73:25:99:fc:
                    3a:12:85:4c:1d:f7:46:f7:c8:41:9f:17:c6:5a:af:
                    4f:17:cc:bd:79:cf:65:80:15:c0:c7:3d:f0:e6:ce:
                    cb:e9:91:52:08:84:4b:b0:06:e4:90:d1:a7:eb:fe:
                    36:9b:c9:a0:95:33:fa:7d:d7:00:77:e9:fc:9b:2a:
                    ef:f5:11:2e:02:9a:bc:63:ed:23:9c:f4:79:9e:e1:
                    53:af:92:12:a5:dd:14:9f:4c:71:c5:c2:c2:f3:c4:
                    89:f8:e0:8f:6a:d2:f8:ab:51:2f:71:72:d6:f6:1f:
                    88:2b:f7:58:10:07:c0:82:97:3b:82:e5:52:bf:3b:
                    2c:3b:b9:97:99:6d:9c:89:2b:08:6a:95:32:40:92:
                    a8:00:cf:5c:0e:42:5c:83:44:22:ce:be:09:15:e2:
                    58:e4:cf:ef:08:06:28:c7:43:60:34:2e:11:ad:2d:
                    b5:14:e7:b5:8b:73:f1:df:7f:63:59:a3:df:94:9b:
                    fa:e6:ad:61:d7:04:4e:fc:ff:ca:4a:3b:3d:a4:d6:
                    fc:b4:bf:02:79:95:37:09:a1:10:7b:6a:73:fa:c0:
                    33:6d:c2:92:fd:6a:95:00:ec:2e:d5:61:bb:f7:da:
                    08:ab:68:57:ff:25:0e:3d:4a:1e:cd:6b:d8:b6:b1:
                    a1:fb:4a:c7:69:03:c7:eb:5e:ca:69:f9:bb:08:b4:
                    04:b0:1f:45:d1:b3:1c:0f:b5:2c:db:9c:30:e5:d5:
                    af:64:b4:a0:4e:f2:7a:b6:f1:51:07:a3:47:15:35:
                    c2:e7:b0:8c:6e:6c:e5:a3:d7:a9:44:38:02:62:a3:
                    aa:d7:8b:07:4d:23:50:22:ba:ed:1e:d5:cc:66:e6:
                    fa:92:b3:8d:4e:7a:e7:ac:93:4b:ea:37:4b:3e:c1:
                    c8:06:c2:19:75:24:a2:91:03:91:8c:cc:49:23:b1:
                    e9:6b:72:60:d6:ca:48:a1:7b:90:d5:5d:f3:8b:e1:
                    19:57:ac:c0:94:f3:10:4f:f1:d2:59:95:fe:13:9d:
                    16:ad:b3
                Exponent: 65537 (0x10001)
        X509v3 extensions:
            X509v3 Basic Constraints: 
                CA:FALSE
            Netscape Comment: 
                Easy-RSA Generated Certificate
            X509v3 Subject Key Identifier: 
                C9:75:D0:F9:7C:0E:9E:83:3A:94:D1:27:F1:75:D3:F7:E4:EF:85:FE
            X509v3 Authority Key Identifier: 
                keyid:12:CD:60:04:D2:A0:80:9E:70:ED:C6:99:B8:7B:2C:C6:52:FD:19:A1
                DirName:/C=US/ST=OH/L=Columbus/O=VikingVPN/OU=MyOrganizationalUnit/CN=VikingVPN CA/name=EasyRSA/emailAddress=me@myhost.mydomain
                serial:CF:35:85:EE:80:BF:2A:3E

            X509v3 Extended Key Usage: 
                TLS Web Client Authentication
            X509v3 Key Usage: 
                Digital Signature
    Signature Algorithm: sha256WithRSAEncryption
         77:4a:28:dd:a9:83:3c:54:5b:61:92:54:2a:e9:6a:67:40:ef:
         ee:dd:4c:8b:26:f6:87:c9:ca:15:dc:fd:26:3d:d7:f4:4e:78:
         9a:a4:08:ed:69:71:83:7c:4e:8a:36:cc:55:eb:be:30:4e:95:
         85:6e:1b:2d:a1:b8:06:45:da:f6:87:d8:60:06:55:87:c6:48:
         31:b8:43:c2:ac:c1:1d:08:04:e0:7e:ec:e1:6c:45:80:48:e0:
         f6:08:ec:06:81:a4:bb:dd:d7:ba:65:cc:6b:0e:bb:99:ff:8d:
         c4:72:20:e7:26:d9:3d:80:e6:fd:20:6a:35:92:fd:78:67:64:
         35:d4:5a:8d:08:d8:cd:04:c8:00:bf:76:7e:58:c6:84:7d:53:
         6e:2a:67:98:73:0c:fe:dd:46:90:be:27:37:8e:81:d7:44:bc:
         42:59:d1:10:ed:e4:fb:7d:d2:3f:65:85:79:3a:2a:67:5e:e6:
         b6:af:40:76:84:2a:5f:b6:57:1e:b5:6c:24:38:c5:e1:0a:16:
         c9:0e:00:eb:45:dc:8b:8f:74:33:39:ff:aa:c8:26:d0:b8:11:
         35:c3:f0:85:c1:99:69:4d:e3:74:54:b4:60:40:d1:f1:88:03:
         48:fc:cc:4d:58:a7:01:c0:03:fd:1a:7f:c4:b9:bc:e6:96:9f:
         bd:d8:0a:cb:e0:2c:f9:de:2a:6e:21:dc:20:b2:c3:2b:8d:92:
         f6:c4:91:58:af:b8:6c:c0:82:75:22:7f:6b:b1:ca:a8:50:01:
         6b:65:ab:ac:57:2a:17:b1:6e:f9:86:d8:8c:cd:a7:3b:9f:ea:
         15:51:eb:9d:dc:82:7d:c7:66:d6:f5:dc:ea:a3:00:4f:8a:79:
         50:cc:eb:3a:d5:de:3f:6a:12:13:1a:04:a4:71:67:09:f4:87:
         19:89:91:ce:d1:39:6c:68:a2:d1:8e:76:93:7b:92:f7:26:3d:
         ce:75:0c:22:76:6b:58:67:ab:da:be:dc:6b:c1:05:47:83:b0:
         89:23:9b:87:28:95:61:2e:31:dd:10:c9:19:1f:2b:84:a9:27:
         f1:33:7d:59:8d:ee:ed:78:cf:cd:1e:34:49:e2:4d:b4:41:9b:
         8d:95:66:9d:bb:e8:93:52:ea:ea:dc:de:a5:d4:d7:b4:af:7b:
         b5:11:e3:6b:8c:ec:9c:f5:fb:19:4f:0f:ce:b4:ed:40:9e:65:
         c4:b4:3c:e7:ae:a9:28:d0:5c:1c:96:fd:64:20:89:31:95:0e:
         a1:0b:cd:ec:84:1d:e5:07:a2:71:d9:ca:8a:60:c9:ca:ed:be:
         06:7f:af:24:b4:91:08:80:1f:6b:ab:d7:c4:03:a7:0e:47:71:
         ec:6f:8b:c4:c0:7b:f9:62
-----BEGIN CERTIFICATE-----
MIIGrTCCBJWgAwIBAgICMSMwDQYJKoZIhvcNAQELBQAwgawxCzAJBgNVBAYTAlVT
MQswCQYDVQQIEwJPSDERMA8GA1UEBxMIQ29sdW1idXMxEjAQBgNVBAoTCVZpa2lu
Z1ZQTjEdMBsGA1UECxMUTXlPcmdhbml6YXRpb25hbFVuaXQxFTATBgNVBAMTDFZp
a2luZ1ZQTiBDQTEQMA4GA1UEKRMHRWFzeVJTQTEhMB8GCSqGSIb3DQEJARYSbWVA
bXlob3N0Lm15ZG9tYWluMB4XDTE4MDIxNzIxMDA1MVoXDTI4MDIxNTIxMDA1MVow
HzEdMBsGA1UEAxMUQ2xpZW50MzIyOENlcnQ0YTk1MmUwggIiMA0GCSqGSIb3DQEB
AQUAA4ICDwAwggIKAoICAQDGF/Yxv6hC5uMaad2SeNBEvBnzNZW+IF7Sjmhcdt41
gk0cHIm0THm9p0yBwbYZxgbBHlqkk0ytf6A9A8VfbnnmYgySQJHEogpRSGmtFaJD
x67iOipZAIWSo0FwQXy+kuv2kvFyNGMPCg+Kk5IBRNE6wpuWG3S18AM5cYvp2wlf
Kgz3cyWZ/DoShUwd90b3yEGfF8Zar08XzL15z2WAFcDHPfDmzsvpkVIIhEuwBuSQ
0afr/jabyaCVM/p91wB36fybKu/1ES4Cmrxj7SOc9Hme4VOvkhKl3RSfTHHFwsLz
xIn44I9q0virUS9xctb2H4gr91gQB8CClzuC5VK/Oyw7uZeZbZyJKwhqlTJAkqgA
z1wOQlyDRCLOvgkV4ljkz+8IBijHQ2A0LhGtLbUU57WLc/Hff2NZo9+Um/rmrWHX
BE78/8pKOz2k1vy0vwJ5lTcJoRB7anP6wDNtwpL9apUA7C7VYbv32giraFf/JQ49
Sh7Na9i2saH7SsdpA8frXspp+bsItASwH0XRsxwPtSzbnDDl1a9ktKBO8nq28VEH
o0cVNcLnsIxubOWj16lEOAJio6rXiwdNI1Aiuu0e1cxm5vqSs41Oeuesk0vqN0s+
wcgGwhl1JKKRA5GMzEkjselrcmDWykihe5DVXfOL4RlXrMCU8xBP8dJZlf4TnRat
swIDAQABo4IBYzCCAV8wCQYDVR0TBAIwADAtBglghkgBhvhCAQ0EIBYeRWFzeS1S
U0EgR2VuZXJhdGVkIENlcnRpZmljYXRlMB0GA1UdDgQWBBTJddD5fA6egzqU0Sfx
ddP35O+F/jCB4QYDVR0jBIHZMIHWgBQSzWAE0qCAnnDtxpm4eyzGUv0ZoaGBsqSB
rzCBrDELMAkGA1UEBhMCVVMxCzAJBgNVBAgTAk9IMREwDwYDVQQHEwhDb2x1bWJ1
czESMBAGA1UEChMJVmlraW5nVlBOMR0wGwYDVQQLExRNeU9yZ2FuaXphdGlvbmFs
VW5pdDEVMBMGA1UEAxMMVmlraW5nVlBOIENBMRAwDgYDVQQpEwdFYXN5UlNBMSEw
HwYJKoZIhvcNAQkBFhJtZUBteWhvc3QubXlkb21haW6CCQDPNYXugL8qPjATBgNV
HSUEDDAKBggrBgEFBQcDAjALBgNVHQ8EBAMCB4AwDQYJKoZIhvcNAQELBQADggIB
AHdKKN2pgzxUW2GSVCrpamdA7+7dTIsm9ofJyhXc/SY91/ROeJqkCO1pcYN8Too2
zFXrvjBOlYVuGy2huAZF2vaH2GAGVYfGSDG4Q8KswR0IBOB+7OFsRYBI4PYI7AaB
pLvd17plzGsOu5n/jcRyIOcm2T2A5v0gajWS/XhnZDXUWo0I2M0EyAC/dn5YxoR9
U24qZ5hzDP7dRpC+JzeOgddEvEJZ0RDt5Pt90j9lhXk6Kmde5ravQHaEKl+2Vx61
bCQ4xeEKFskOAOtF3IuPdDM5/6rIJtC4ETXD8IXBmWlN43RUtGBA0fGIA0j8zE1Y
pwHAA/0af8S5vOaWn73YCsvgLPneKm4h3CCywyuNkvbEkVivuGzAgnUif2uxyqhQ
AWtlq6xXKhexbvmG2IzNpzuf6hVR653cgn3HZtb13OqjAE+KeVDM6zrV3j9qEhMa
BKRxZwn0hxmJkc7ROWxootGOdpN7kvcmPc51DCJ2a1hnq9q+3GvBBUeDsIkjm4co
lWEuMd0QyRkfK4SpJ/EzfVmN7u14z80eNEniTbRBm42VZp276JNS6urc3qXU17Sv
e7UR42uM7Jz1+xlPD8607UCeZcS0POeuqSjQXByW/WQgiTGVDqELzeyEHeUHonHZ
yopgycrtvgZ/ryS0kQiAH2ur18QDpw5Hcexvi8TAe/li
-----END CERTIFICATE-----
