Certificate:
    Data:
        Version: 3 (0x2)
        Serial Number: 12588 (0x312c)
    Signature Algorithm: sha256WithRSAEncryption
        Issuer: C=US, ST=OH, L=Columbus, O=VikingVPN, OU=MyOrganizationalUnit, CN=VikingVPN CA/name=EasyRSA/emailAddress=me@myhost.mydomain
        Validity
            Not Before: Feb 20 02:21:12 2018 GMT
            Not After : Feb 18 02:21:12 2028 GMT
        Subject: CN=Client3197Certc91a37
        Subject Public Key Info:
            Public Key Algorithm: rsaEncryption
                Public-Key: (4096 bit)
                Modulus:
                    00:bc:7a:ef:c5:28:6f:68:24:ed:09:9c:41:23:76:
                    61:5e:b4:d8:4a:a6:3f:f1:1e:7c:9e:36:f9:02:80:
                    ef:34:69:7b:f5:02:25:22:be:78:e6:17:21:e9:c0:
                    fd:47:cd:d2:39:ca:df:1b:6f:80:8e:b6:f0:b0:58:
                    9b:69:54:7e:8d:17:b7:b4:97:3b:45:96:33:2d:a6:
                    0d:1b:68:94:ae:cd:48:88:05:13:e7:2e:b9:2d:7a:
                    ea:31:76:a7:9a:2f:b4:e7:bb:47:56:0f:a5:41:02:
                    e7:08:f7:cd:eb:8c:14:8d:39:51:73:45:ee:91:a4:
                    1c:49:1f:c0:5c:38:41:5a:aa:50:63:6d:72:d5:06:
                    1f:67:17:c0:66:bd:7a:ad:bc:46:f0:ab:e4:b8:22:
                    55:87:b9:98:d0:a3:08:b0:69:3f:17:7a:56:51:dd:
                    22:18:07:48:29:10:52:e7:8f:1f:4b:68:93:38:79:
                    ad:0a:b1:a2:9c:28:84:34:aa:57:27:9b:b1:9e:2c:
                    b9:c9:9f:93:86:c1:8f:72:fa:9e:85:b2:56:a2:0c:
                    4f:75:4e:78:c5:49:f2:39:79:b1:e7:64:5a:8c:2c:
                    47:a2:41:f5:49:82:da:d7:b9:db:f6:a5:f7:0e:19:
                    a8:f1:4f:32:61:81:61:37:ed:8b:6e:4b:1c:62:fc:
                    28:0c:61:5d:17:12:8e:59:15:8b:25:f5:b1:ef:82:
                    27:be:19:ba:d7:d8:bd:59:de:cb:9e:58:02:1a:66:
                    ed:46:63:ac:bf:f1:48:93:ed:09:dc:6d:3f:58:32:
                    8e:cd:30:ee:9f:2b:26:cf:52:96:ae:c9:9e:26:fc:
                    ad:c9:65:9f:05:cc:21:b0:3d:84:7a:61:66:a1:0f:
                    0f:a6:67:8e:94:ea:44:a4:21:5e:e3:6e:4d:d4:a8:
                    a5:a2:15:e3:dc:37:5a:36:a4:11:18:ab:d0:c5:13:
                    02:b8:7d:60:db:cb:ac:14:01:f9:b5:b5:8e:2a:57:
                    16:e5:7b:b8:8b:c7:2e:24:18:97:da:0e:64:05:ba:
                    5b:d8:8b:32:7d:ec:15:c7:54:76:50:b6:57:a0:83:
                    eb:c4:c1:3f:d8:6d:e8:91:5f:8d:50:61:ba:68:9c:
                    9d:95:0c:30:b2:b4:ea:43:3e:16:0a:70:84:80:56:
                    2d:2a:f1:89:8c:95:33:da:47:f3:9f:f2:d6:24:c7:
                    3c:61:b1:41:ff:44:e0:48:7a:c2:cd:34:bf:3a:0c:
                    bf:91:f8:fb:71:b9:04:8d:4c:ad:2b:93:99:5d:06:
                    13:d5:04:1b:df:19:d2:0f:fb:f0:1f:c3:49:c3:93:
                    fc:06:8b:f1:e2:81:fe:67:00:20:93:70:f3:2a:83:
                    d9:e1:ef
                Exponent: 65537 (0x10001)
        X509v3 extensions:
            X509v3 Basic Constraints: 
                CA:FALSE
            Netscape Comment: 
                Easy-RSA Generated Certificate
            X509v3 Subject Key Identifier: 
                2B:42:05:55:E3:1C:9A:06:59:CA:BD:6B:79:A9:46:4F:00:70:FF:7F
            X509v3 Authority Key Identifier: 
                keyid:12:CD:60:04:D2:A0:80:9E:70:ED:C6:99:B8:7B:2C:C6:52:FD:19:A1
                DirName:/C=US/ST=OH/L=Columbus/O=VikingVPN/OU=MyOrganizationalUnit/CN=VikingVPN CA/name=EasyRSA/emailAddress=me@myhost.mydomain
                serial:CF:35:85:EE:80:BF:2A:3E

            X509v3 Extended Key Usage: 
                TLS Web Client Authentication
            X509v3 Key Usage: 
                Digital Signature
    Signature Algorithm: sha256WithRSAEncryption
         86:04:aa:e4:a9:54:59:48:47:19:02:65:71:80:05:49:fa:60:
         a7:39:4a:cf:02:60:b8:ea:4f:30:5c:a7:dd:38:fd:b3:62:98:
         d1:6c:ce:46:a2:50:3a:8a:05:95:80:02:e5:ec:34:7f:3a:6b:
         4a:a9:bf:0f:68:f6:42:c4:3e:78:27:54:09:ee:2a:54:5e:21:
         97:75:21:f6:cd:9e:92:bf:04:52:a7:d2:90:24:62:d4:fa:d3:
         64:33:96:a5:d3:61:86:fb:5a:c8:ef:b3:83:fd:4a:47:27:9f:
         c6:a6:1c:07:15:c2:b8:62:03:2e:fa:af:ff:fa:c2:dd:6c:6a:
         33:fe:75:e5:01:c4:9c:18:a8:cc:8b:2a:5b:91:8f:43:1e:54:
         76:7a:86:66:8c:af:b7:b1:77:e1:fb:46:ed:6d:f6:01:04:a5:
         46:a0:43:d0:bf:e4:eb:11:aa:2a:77:e8:11:71:7b:50:dc:56:
         fe:7d:a6:30:da:98:97:e1:e7:86:8c:09:aa:f1:92:b8:da:6a:
         82:71:6a:7d:cd:de:5d:68:dd:53:f0:86:09:65:2f:16:ee:03:
         0f:1c:99:b8:41:65:ca:e2:4f:b9:72:1e:28:5d:e0:58:70:7c:
         98:d0:c0:b9:75:b7:9a:53:74:c9:d7:20:8f:05:fd:33:b3:5c:
         0f:d4:b1:e9:35:2e:76:b2:a0:e2:96:e0:c9:af:b2:50:99:d8:
         f0:c3:e2:fe:ec:d7:cf:df:16:a4:ab:a4:25:ce:e2:27:25:c4:
         fe:4b:61:b8:21:e3:a0:5c:de:87:ba:41:78:5f:67:56:b6:90:
         99:05:d8:f7:51:0b:fb:b1:7b:26:62:03:3c:ef:08:ca:b4:bc:
         70:4a:e6:6c:f4:19:6f:91:bb:67:59:a5:c9:48:fe:8b:df:73:
         2f:f8:ba:ca:3f:33:79:44:4e:01:3c:87:1a:09:eb:79:dc:68:
         62:b6:e8:da:58:66:ff:f1:eb:46:8e:41:c4:50:0d:7d:26:35:
         45:22:49:a6:f5:e8:6e:87:3a:f8:0e:f6:81:23:37:79:eb:7f:
         b2:5c:8d:70:3a:1f:a9:f6:a3:e7:39:d6:d9:d0:eb:6f:46:54:
         3a:63:49:8c:97:cb:14:e3:1d:ac:84:be:ab:a3:83:dc:18:09:
         fa:75:fe:3a:07:00:bb:61:38:2a:1d:37:17:f2:3f:fd:5a:18:
         b7:55:d4:54:d7:25:57:ea:df:e5:63:59:94:e1:74:31:86:f8:
         9c:36:00:9e:06:f9:6a:d7:dd:1b:2a:f6:e5:cb:6f:a8:d6:4b:
         19:36:8c:c3:d4:a6:0d:94:34:d8:90:7c:42:c6:ba:3c:9a:37:
         c3:df:25:37:73:d9:ad:ae
-----BEGIN CERTIFICATE-----
MIIGrTCCBJWgAwIBAgICMSwwDQYJKoZIhvcNAQELBQAwgawxCzAJBgNVBAYTAlVT
MQswCQYDVQQIEwJPSDERMA8GA1UEBxMIQ29sdW1idXMxEjAQBgNVBAoTCVZpa2lu
Z1ZQTjEdMBsGA1UECxMUTXlPcmdhbml6YXRpb25hbFVuaXQxFTATBgNVBAMTDFZp
a2luZ1ZQTiBDQTEQMA4GA1UEKRMHRWFzeVJTQTEhMB8GCSqGSIb3DQEJARYSbWVA
bXlob3N0Lm15ZG9tYWluMB4XDTE4MDIyMDAyMjExMloXDTI4MDIxODAyMjExMlow
HzEdMBsGA1UEAxMUQ2xpZW50MzE5N0NlcnRjOTFhMzcwggIiMA0GCSqGSIb3DQEB
AQUAA4ICDwAwggIKAoICAQC8eu/FKG9oJO0JnEEjdmFetNhKpj/xHnyeNvkCgO80
aXv1AiUivnjmFyHpwP1HzdI5yt8bb4COtvCwWJtpVH6NF7e0lztFljMtpg0baJSu
zUiIBRPnLrkteuoxdqeaL7Tnu0dWD6VBAucI983rjBSNOVFzRe6RpBxJH8BcOEFa
qlBjbXLVBh9nF8BmvXqtvEbwq+S4IlWHuZjQowiwaT8XelZR3SIYB0gpEFLnjx9L
aJM4ea0KsaKcKIQ0qlcnm7GeLLnJn5OGwY9y+p6FslaiDE91TnjFSfI5ebHnZFqM
LEeiQfVJgtrXudv2pfcOGajxTzJhgWE37YtuSxxi/CgMYV0XEo5ZFYsl9bHvgie+
GbrX2L1Z3sueWAIaZu1GY6y/8UiT7QncbT9YMo7NMO6fKybPUpauyZ4m/K3JZZ8F
zCGwPYR6YWahDw+mZ46U6kSkIV7jbk3UqKWiFePcN1o2pBEYq9DFEwK4fWDby6wU
Afm1tY4qVxble7iLxy4kGJfaDmQFulvYizJ97BXHVHZQtlegg+vEwT/YbeiRX41Q
YbponJ2VDDCytOpDPhYKcISAVi0q8YmMlTPaR/Of8tYkxzxhsUH/ROBIesLNNL86
DL+R+PtxuQSNTK0rk5ldBhPVBBvfGdIP+/Afw0nDk/wGi/Higf5nACCTcPMqg9nh
7wIDAQABo4IBYzCCAV8wCQYDVR0TBAIwADAtBglghkgBhvhCAQ0EIBYeRWFzeS1S
U0EgR2VuZXJhdGVkIENlcnRpZmljYXRlMB0GA1UdDgQWBBQrQgVV4xyaBlnKvWt5
qUZPAHD/fzCB4QYDVR0jBIHZMIHWgBQSzWAE0qCAnnDtxpm4eyzGUv0ZoaGBsqSB
rzCBrDELMAkGA1UEBhMCVVMxCzAJBgNVBAgTAk9IMREwDwYDVQQHEwhDb2x1bWJ1
czESMBAGA1UEChMJVmlraW5nVlBOMR0wGwYDVQQLExRNeU9yZ2FuaXphdGlvbmFs
VW5pdDEVMBMGA1UEAxMMVmlraW5nVlBOIENBMRAwDgYDVQQpEwdFYXN5UlNBMSEw
HwYJKoZIhvcNAQkBFhJtZUBteWhvc3QubXlkb21haW6CCQDPNYXugL8qPjATBgNV
HSUEDDAKBggrBgEFBQcDAjALBgNVHQ8EBAMCB4AwDQYJKoZIhvcNAQELBQADggIB
AIYEquSpVFlIRxkCZXGABUn6YKc5Ss8CYLjqTzBcp904/bNimNFszkaiUDqKBZWA
AuXsNH86a0qpvw9o9kLEPngnVAnuKlReIZd1IfbNnpK/BFKn0pAkYtT602QzlqXT
YYb7Wsjvs4P9Skcnn8amHAcVwrhiAy76r//6wt1sajP+deUBxJwYqMyLKluRj0Me
VHZ6hmaMr7exd+H7Ru1t9gEEpUagQ9C/5OsRqip36BFxe1DcVv59pjDamJfh54aM
CarxkrjaaoJxan3N3l1o3VPwhgllLxbuAw8cmbhBZcriT7lyHihd4FhwfJjQwLl1
t5pTdMnXII8F/TOzXA/Usek1LnayoOKW4MmvslCZ2PDD4v7s18/fFqSrpCXO4icl
xP5LYbgh46Bc3oe6QXhfZ1a2kJkF2PdRC/uxeyZiAzzvCMq0vHBK5mz0GW+Ru2dZ
pclI/ovfcy/4uso/M3lETgE8hxoJ63ncaGK26NpYZv/x60aOQcRQDX0mNUUiSab1
6G6HOvgO9oEjN3nrf7JcjXA6H6n2o+c51tnQ629GVDpjSYyXyxTjHayEvqujg9wY
Cfp1/joHALthOCodNxfyP/1aGLdV1FTXJVfq3+VjWZThdDGG+Jw2AJ4G+WrX3Rsq
9uXLb6jWSxk2jMPUpg2UNNiQfELGujyaN8PfJTdz2a2u
-----END CERTIFICATE-----
