Certificate:
    Data:
        Version: 3 (0x2)
        Serial Number: 12595 (0x3133)
    Signature Algorithm: sha256WithRSAEncryption
        Issuer: C=US, ST=OH, L=Columbus, O=VikingVPN, OU=MyOrganizationalUnit, CN=VikingVPN CA/name=EasyRSA/emailAddress=me@myhost.mydomain
        Validity
            Not Before: Feb 22 08:52:58 2018 GMT
            Not After : Feb 20 08:52:58 2028 GMT
        Subject: CN=Client2676Cert5ddecd
        Subject Public Key Info:
            Public Key Algorithm: rsaEncryption
                Public-Key: (4096 bit)
                Modulus:
                    00:be:48:b0:05:7d:13:d6:73:9e:30:40:77:7d:e5:
                    cc:a8:c5:3b:4f:cb:dd:07:2e:35:da:fa:25:ff:00:
                    de:4f:d6:b2:7a:f8:2a:cf:71:a9:4c:5d:39:e5:31:
                    03:4f:df:d7:63:82:70:76:91:8d:1e:bf:66:1a:a8:
                    e1:d9:b6:f4:4e:33:7e:2a:eb:65:4e:0e:be:24:8d:
                    6e:b8:27:a0:cd:de:55:da:ef:b0:79:fb:5e:c0:16:
                    57:42:e0:38:ef:8b:48:53:de:5e:81:6c:c9:48:dd:
                    80:9f:aa:2d:8d:1a:fc:43:ee:d7:7d:80:02:00:79:
                    bc:71:d3:4a:ac:bb:51:8a:79:90:3b:b7:fa:2e:93:
                    ee:49:c3:c2:42:9a:8c:21:a2:d3:88:3f:de:a2:0d:
                    33:fc:02:20:d5:ae:b6:9c:63:8e:be:7a:2d:1e:e9:
                    17:db:c3:46:d5:53:99:55:f9:be:75:5e:25:a5:78:
                    0f:5d:25:e5:c2:36:c6:50:55:ff:18:19:23:33:40:
                    32:e9:e2:e2:43:de:f5:44:6c:d6:81:57:7a:54:69:
                    07:9e:74:67:ce:c6:b3:4f:59:b5:06:d4:cf:44:c3:
                    22:4d:72:e3:fc:38:5c:11:2e:59:c5:d1:20:95:fa:
                    8c:a2:29:e7:23:e7:11:0a:5d:a7:62:aa:a1:55:d0:
                    b0:e1:ec:f4:50:ae:78:95:66:55:b2:87:32:dd:4b:
                    dd:ab:21:97:87:b6:d9:6a:9b:66:7e:dc:87:3f:3b:
                    94:d9:36:1d:26:10:7c:cf:6a:1d:cf:72:82:82:fb:
                    9b:83:07:d5:aa:e6:98:4b:a7:8f:26:7e:6c:7c:e2:
                    4b:db:7b:91:4d:d9:1d:87:eb:aa:b6:af:b9:b3:9f:
                    ba:87:b3:c8:86:ce:35:d5:53:e8:b9:05:3e:63:84:
                    49:3d:a6:5d:8d:51:3a:41:72:93:82:47:f8:37:ac:
                    55:49:e1:16:1a:f6:8d:12:e0:9b:d9:80:59:fc:51:
                    f6:54:0f:ec:aa:ad:91:14:4a:d2:7c:08:3d:27:1f:
                    64:80:1f:76:fc:56:dd:a9:79:01:b1:30:5c:c2:92:
                    7b:c9:6e:ea:4b:6f:87:d9:13:30:59:59:0d:26:6c:
                    55:d5:7f:73:86:8a:a5:15:5f:56:bc:05:a3:d7:f7:
                    35:45:b0:f2:af:a9:b0:a3:c5:73:6c:92:6c:42:d5:
                    e0:39:85:79:f9:ad:96:b4:de:48:b3:19:77:b6:01:
                    34:db:0b:13:ee:f8:98:00:10:4f:dd:11:33:d2:0b:
                    cb:92:b6:24:e5:2e:f6:ab:e4:f6:1b:a8:58:3f:3b:
                    84:da:51:fd:f6:49:4d:4d:7b:1c:8c:46:71:dc:24:
                    0c:d3:81
                Exponent: 65537 (0x10001)
        X509v3 extensions:
            X509v3 Basic Constraints: 
                CA:FALSE
            Netscape Comment: 
                Easy-RSA Generated Certificate
            X509v3 Subject Key Identifier: 
                8F:6D:53:7A:48:6E:3A:6B:DD:EB:F2:D9:32:EA:2B:8A:C6:F0:DB:4D
            X509v3 Authority Key Identifier: 
                keyid:12:CD:60:04:D2:A0:80:9E:70:ED:C6:99:B8:7B:2C:C6:52:FD:19:A1
                DirName:/C=US/ST=OH/L=Columbus/O=VikingVPN/OU=MyOrganizationalUnit/CN=VikingVPN CA/name=EasyRSA/emailAddress=me@myhost.mydomain
                serial:CF:35:85:EE:80:BF:2A:3E

            X509v3 Extended Key Usage: 
                TLS Web Client Authentication
            X509v3 Key Usage: 
                Digital Signature
    Signature Algorithm: sha256WithRSAEncryption
         63:31:55:8f:dd:2e:c3:61:b2:53:11:7e:72:b9:2d:8a:83:5f:
         76:20:40:5b:56:b9:19:e0:ed:89:47:b6:99:a5:49:c9:fc:3c:
         28:d7:89:7f:dd:ae:75:c6:20:17:9a:23:70:35:dc:70:a0:1c:
         a0:2a:d9:cc:70:1e:96:cd:e1:be:88:9d:37:a4:53:07:0d:99:
         c7:b8:39:fa:d9:f6:1a:09:f4:9d:5b:ab:00:3e:07:2e:bb:4a:
         24:d4:6d:5d:d1:f4:b1:16:0d:82:c1:48:ae:2c:43:ac:b8:a9:
         e1:b6:45:77:38:93:50:b0:90:f0:40:95:88:22:0b:68:79:91:
         9a:25:42:1a:44:69:aa:3b:19:49:c9:52:75:0f:35:fc:9f:9b:
         38:7d:ec:08:34:b9:3b:25:17:b1:04:e3:cc:ff:a2:e2:24:4b:
         a9:69:00:c8:23:52:2a:de:24:c7:34:59:a3:df:56:1f:68:98:
         5c:c1:4a:d0:27:7e:0c:8f:5e:f1:b7:d1:20:76:9d:15:30:61:
         77:09:55:d5:42:05:96:b2:76:5b:fa:2e:19:f1:7a:97:a8:c6:
         e9:09:e3:8a:4c:94:2e:42:7c:f8:13:27:41:01:32:6c:9c:21:
         b7:9a:fa:49:bb:f1:15:d1:1b:a7:4d:12:26:37:68:ff:e5:a5:
         c8:1e:8a:8f:ad:22:35:8f:b7:f0:dc:02:57:08:42:24:ef:a4:
         f8:b7:26:18:17:64:ad:c8:fa:81:6a:32:5b:8a:ee:17:24:e0:
         5a:4f:e1:8c:86:59:9e:2a:17:b4:97:25:f3:72:65:c4:b9:7d:
         7e:57:dc:fb:c0:df:13:f8:1b:1e:d1:8a:f0:d9:6c:b5:24:9f:
         e0:68:46:c7:9a:68:14:9d:94:70:fe:68:31:eb:0e:89:33:54:
         49:04:d2:86:15:ae:8e:1c:d9:76:1f:0f:73:9f:da:a1:c1:58:
         e3:f9:a5:3c:13:69:0f:0b:d9:b4:4a:5d:1d:f4:49:b2:ec:9e:
         28:85:8e:f8:70:eb:a7:dc:6b:2f:c3:f3:93:3e:07:d5:c7:fb:
         38:5d:39:e7:5d:96:9d:49:e5:25:72:5c:c0:5b:93:78:c4:78:
         03:e2:5c:fd:42:50:c3:b4:39:b6:cc:d8:67:be:90:65:fe:d1:
         42:9b:96:93:9d:da:e9:80:9b:68:98:c9:e2:32:66:01:98:9c:
         94:b3:7a:e4:67:58:ff:ba:3c:7c:e2:9a:bb:e1:b5:99:1b:b5:
         8f:10:f5:ed:eb:b3:d5:8e:90:4c:7c:b4:37:52:8d:e9:ce:4b:
         bc:f7:17:82:b6:82:8b:50:3c:c1:04:cb:63:4a:58:ba:87:52:
         c4:03:c8:a1:22:66:d2:b7
-----BEGIN CERTIFICATE-----
MIIGrTCCBJWgAwIBAgICMTMwDQYJKoZIhvcNAQELBQAwgawxCzAJBgNVBAYTAlVT
MQswCQYDVQQIEwJPSDERMA8GA1UEBxMIQ29sdW1idXMxEjAQBgNVBAoTCVZpa2lu
Z1ZQTjEdMBsGA1UECxMUTXlPcmdhbml6YXRpb25hbFVuaXQxFTATBgNVBAMTDFZp
a2luZ1ZQTiBDQTEQMA4GA1UEKRMHRWFzeVJTQTEhMB8GCSqGSIb3DQEJARYSbWVA
bXlob3N0Lm15ZG9tYWluMB4XDTE4MDIyMjA4NTI1OFoXDTI4MDIyMDA4NTI1OFow
HzEdMBsGA1UEAxMUQ2xpZW50MjY3NkNlcnQ1ZGRlY2QwggIiMA0GCSqGSIb3DQEB
AQUAA4ICDwAwggIKAoICAQC+SLAFfRPWc54wQHd95cyoxTtPy90HLjXa+iX/AN5P
1rJ6+CrPcalMXTnlMQNP39djgnB2kY0ev2YaqOHZtvROM34q62VODr4kjW64J6DN
3lXa77B5+17AFldC4Djvi0hT3l6BbMlI3YCfqi2NGvxD7td9gAIAebxx00qsu1GK
eZA7t/ouk+5Jw8JCmowhotOIP96iDTP8AiDVrracY46+ei0e6Rfbw0bVU5lV+b51
XiWleA9dJeXCNsZQVf8YGSMzQDLp4uJD3vVEbNaBV3pUaQeedGfOxrNPWbUG1M9E
wyJNcuP8OFwRLlnF0SCV+oyiKecj5xEKXadiqqFV0LDh7PRQrniVZlWyhzLdS92r
IZeHttlqm2Z+3Ic/O5TZNh0mEHzPah3PcoKC+5uDB9Wq5phLp48mfmx84kvbe5FN
2R2H66q2r7mzn7qHs8iGzjXVU+i5BT5jhEk9pl2NUTpBcpOCR/g3rFVJ4RYa9o0S
4JvZgFn8UfZUD+yqrZEUStJ8CD0nH2SAH3b8Vt2peQGxMFzCknvJbupLb4fZEzBZ
WQ0mbFXVf3OGiqUVX1a8BaPX9zVFsPKvqbCjxXNskmxC1eA5hXn5rZa03kizGXe2
ATTbCxPu+JgAEE/dETPSC8uStiTlLvar5PYbqFg/O4TaUf32SU1NexyMRnHcJAzT
gQIDAQABo4IBYzCCAV8wCQYDVR0TBAIwADAtBglghkgBhvhCAQ0EIBYeRWFzeS1S
U0EgR2VuZXJhdGVkIENlcnRpZmljYXRlMB0GA1UdDgQWBBSPbVN6SG46a93r8tky
6iuKxvDbTTCB4QYDVR0jBIHZMIHWgBQSzWAE0qCAnnDtxpm4eyzGUv0ZoaGBsqSB
rzCBrDELMAkGA1UEBhMCVVMxCzAJBgNVBAgTAk9IMREwDwYDVQQHEwhDb2x1bWJ1
czESMBAGA1UEChMJVmlraW5nVlBOMR0wGwYDVQQLExRNeU9yZ2FuaXphdGlvbmFs
VW5pdDEVMBMGA1UEAxMMVmlraW5nVlBOIENBMRAwDgYDVQQpEwdFYXN5UlNBMSEw
HwYJKoZIhvcNAQkBFhJtZUBteWhvc3QubXlkb21haW6CCQDPNYXugL8qPjATBgNV
HSUEDDAKBggrBgEFBQcDAjALBgNVHQ8EBAMCB4AwDQYJKoZIhvcNAQELBQADggIB
AGMxVY/dLsNhslMRfnK5LYqDX3YgQFtWuRng7YlHtpmlScn8PCjXiX/drnXGIBea
I3A13HCgHKAq2cxwHpbN4b6InTekUwcNmce4OfrZ9hoJ9J1bqwA+By67SiTUbV3R
9LEWDYLBSK4sQ6y4qeG2RXc4k1CwkPBAlYgiC2h5kZolQhpEaao7GUnJUnUPNfyf
mzh97Ag0uTslF7EE48z/ouIkS6lpAMgjUireJMc0WaPfVh9omFzBStAnfgyPXvG3
0SB2nRUwYXcJVdVCBZaydlv6LhnxepeoxukJ44pMlC5CfPgTJ0EBMmycIbea+km7
8RXRG6dNEiY3aP/lpcgeio+tIjWPt/DcAlcIQiTvpPi3JhgXZK3I+oFqMluK7hck
4FpP4YyGWZ4qF7SXJfNyZcS5fX5X3PvA3xP4Gx7RivDZbLUkn+BoRseaaBSdlHD+
aDHrDokzVEkE0oYVro4c2XYfD3Of2qHBWOP5pTwTaQ8L2bRKXR30SbLsniiFjvhw
66fcay/D85M+B9XH+zhdOeddlp1J5SVyXMBbk3jEeAPiXP1CUMO0ObbM2Ge+kGX+
0UKblpOd2umAm2iYyeIyZgGYnJSzeuRnWP+6PHzimrvhtZkbtY8Q9e3rs9WOkEx8
tDdSjenOS7z3F4K2gotQPMEEy2NKWLqHUsQDyKEiZtK3
-----END CERTIFICATE-----
