Certificate:
    Data:
        Version: 3 (0x2)
        Serial Number: 12621 (0x314d)
    Signature Algorithm: sha256WithRSAEncryption
        Issuer: C=US, ST=OH, L=Columbus, O=VikingVPN, OU=MyOrganizationalUnit, CN=VikingVPN CA/name=EasyRSA/emailAddress=me@myhost.mydomain
        Validity
            Not Before: Feb 26 17:56:40 2018 GMT
            Not After : Feb 24 17:56:40 2028 GMT
        Subject: CN=Client3237Certa07f7a
        Subject Public Key Info:
            Public Key Algorithm: rsaEncryption
                Public-Key: (4096 bit)
                Modulus:
                    00:cc:8f:61:25:3e:08:4a:d9:f1:25:4b:86:f5:ea:
                    84:7b:82:21:95:b9:92:4b:18:2a:d9:97:7c:c3:51:
                    f9:b5:b1:df:75:2d:b5:cc:69:f4:ff:d7:f7:f6:8f:
                    92:41:ee:5f:54:ad:fd:24:d1:c6:0a:73:95:ba:d1:
                    f7:4b:2f:5c:67:d9:1a:fa:05:83:f5:c6:b3:45:48:
                    8f:18:12:78:33:57:1d:b7:2b:23:03:90:a0:01:c0:
                    75:ae:db:31:92:b2:93:05:56:1b:f6:81:af:8e:c7:
                    77:aa:c9:cc:1a:78:56:d9:9d:93:8d:e5:a0:74:eb:
                    a4:e4:38:c0:f7:e2:ac:7e:8d:12:b3:95:64:67:20:
                    b9:57:94:0b:e7:df:ef:70:73:f6:d2:bb:ec:0c:97:
                    8c:e8:26:5d:08:8f:c8:29:b4:da:ba:a2:86:07:35:
                    56:71:15:86:2c:bc:f3:ab:71:98:a9:a1:b8:b5:6d:
                    c6:ee:4a:2d:d4:98:e2:98:be:bf:f0:d0:1b:95:2d:
                    d5:71:8e:53:7e:bd:b9:dd:fc:66:fa:7d:b6:ff:cc:
                    19:86:56:fe:dc:35:52:c2:83:b7:f7:f2:7a:26:19:
                    9e:7f:f3:f4:f9:bb:58:25:b8:63:37:9a:1d:e0:7d:
                    74:e6:30:ff:eb:a2:50:29:03:f4:24:6b:fa:41:15:
                    67:b0:f9:31:64:df:74:a0:1d:34:e3:10:91:9f:38:
                    eb:a7:9e:d5:64:a3:05:11:a2:3a:05:41:19:ff:0a:
                    9b:85:fb:ed:70:f7:95:93:9e:2e:64:5a:06:68:d1:
                    e2:73:e8:55:ee:f4:fc:fd:b6:c4:4b:fc:22:00:31:
                    66:c4:2e:dc:6d:37:57:2f:e9:60:2d:a3:c3:6a:99:
                    67:09:42:11:42:88:52:74:38:f8:a5:e8:89:9e:46:
                    96:5a:4d:9a:d9:77:4b:b9:0c:8c:25:8c:d8:0f:2f:
                    b4:7f:0a:2e:49:6f:13:27:42:d1:6c:a5:6f:9b:a5:
                    44:4b:6f:a3:c4:f2:ed:dc:32:a5:e8:52:2c:9f:f7:
                    2c:ca:96:29:6a:d6:84:5d:0f:34:f2:ea:67:ef:73:
                    ea:2c:2d:39:ec:26:8c:e0:f4:8a:2c:8f:97:74:79:
                    0c:96:35:9e:69:d6:1a:d9:18:21:97:d7:e3:62:94:
                    1f:c2:92:d6:70:79:31:f6:55:b5:50:00:36:cc:32:
                    8c:29:f8:0b:df:f4:4e:11:eb:ee:7b:2b:db:3e:9b:
                    2e:c7:a9:86:bd:e3:1d:f5:db:67:79:84:9e:13:a8:
                    63:ff:ba:77:9d:78:35:10:fd:ee:43:8a:9e:06:03:
                    ec:7a:41:f1:ea:fc:14:ad:98:c1:ee:f4:5a:bd:69:
                    db:b7:ed
                Exponent: 65537 (0x10001)
        X509v3 extensions:
            X509v3 Basic Constraints: 
                CA:FALSE
            Netscape Comment: 
                Easy-RSA Generated Certificate
            X509v3 Subject Key Identifier: 
                B2:1C:45:BE:EA:F2:CE:CB:F1:5B:4D:BB:95:13:4A:5D:CD:C9:81:8A
            X509v3 Authority Key Identifier: 
                keyid:12:CD:60:04:D2:A0:80:9E:70:ED:C6:99:B8:7B:2C:C6:52:FD:19:A1
                DirName:/C=US/ST=OH/L=Columbus/O=VikingVPN/OU=MyOrganizationalUnit/CN=VikingVPN CA/name=EasyRSA/emailAddress=me@myhost.mydomain
                serial:CF:35:85:EE:80:BF:2A:3E

            X509v3 Extended Key Usage: 
                TLS Web Client Authentication
            X509v3 Key Usage: 
                Digital Signature
    Signature Algorithm: sha256WithRSAEncryption
         2a:70:b0:30:fe:69:a5:1b:99:8a:ee:aa:c8:1f:c1:05:b8:2f:
         d1:e9:ce:9d:f3:c4:c5:e3:1b:dc:e1:ac:1c:b4:42:0d:26:81:
         d6:8b:e6:b8:7c:9a:4a:b2:89:1a:58:72:2d:c0:da:3e:62:53:
         78:39:d5:f0:fe:e6:b7:fb:ce:35:8d:5b:f6:fa:ba:ff:af:d0:
         5b:ec:d9:20:40:41:e0:88:43:74:bb:d3:b1:6d:61:d3:01:3b:
         5a:b6:20:1d:23:81:f5:a0:ab:49:1d:76:97:3b:71:93:68:22:
         77:07:21:80:db:44:1d:d6:c5:b0:7a:77:4c:1a:db:a1:f2:3e:
         c6:b1:c5:a3:10:85:7d:7b:b2:ff:f4:7e:78:8a:f2:72:f3:60:
         54:15:87:69:39:37:1b:b9:70:9a:45:ea:51:6b:63:6f:59:04:
         d0:b8:77:b2:0d:c2:96:89:fb:c3:03:36:f1:f1:a2:db:d0:21:
         cb:cd:b0:16:3c:f4:ca:f8:94:b6:3b:4a:0f:91:fb:85:11:43:
         f3:31:b0:a7:17:d6:01:ec:0c:af:45:8b:98:f0:51:86:18:f3:
         36:81:d2:b5:f5:b6:80:42:32:b7:34:ee:62:7a:89:75:74:71:
         2a:be:39:f2:a6:09:b0:20:b5:de:cd:cc:0c:af:c2:e8:0c:17:
         11:3d:6f:62:c6:3d:bf:0f:4d:62:aa:e5:44:78:86:4f:35:6d:
         f5:ad:cb:76:dd:32:21:49:f7:0e:44:25:c0:3f:a0:dc:de:ec:
         35:cd:d2:ba:e9:a7:2e:c9:80:a2:d1:11:9b:f5:0a:24:60:d2:
         9e:55:ef:41:80:da:1d:0d:7f:a3:e8:65:ba:56:e0:ea:73:35:
         7e:7f:34:32:b2:d1:49:90:fd:3a:58:ef:d2:6f:b6:9c:9a:a4:
         07:c4:9c:b3:41:1d:b8:a1:99:98:af:6f:ad:0b:64:11:b2:31:
         6e:8b:30:49:1c:74:df:57:c7:cf:93:a8:c9:eb:ae:a2:ee:e8:
         13:99:8d:c4:72:54:41:d6:01:fe:f6:f0:ff:99:93:63:5b:8f:
         2c:c1:67:1a:98:1f:14:af:56:00:76:77:f4:42:44:78:38:f6:
         87:07:7f:f8:6e:73:6d:2a:7b:2e:6f:b4:bf:12:9f:f8:df:ab:
         9c:67:75:be:f2:90:d5:27:d2:cd:e4:55:8f:c8:7f:9e:04:99:
         e1:4e:3b:4b:20:d2:57:1e:aa:3c:4f:b2:cb:1c:7b:c8:d4:b3:
         58:ef:cb:ae:23:ae:34:ff:6e:87:2b:91:1f:02:a4:37:92:32:
         c0:7a:97:cd:b9:e6:04:17:b1:8c:64:ef:79:90:21:8e:0f:0c:
         cc:d0:e0:5b:92:6a:70:bf
-----BEGIN CERTIFICATE-----
MIIGrTCCBJWgAwIBAgICMU0wDQYJKoZIhvcNAQELBQAwgawxCzAJBgNVBAYTAlVT
MQswCQYDVQQIEwJPSDERMA8GA1UEBxMIQ29sdW1idXMxEjAQBgNVBAoTCVZpa2lu
Z1ZQTjEdMBsGA1UECxMUTXlPcmdhbml6YXRpb25hbFVuaXQxFTATBgNVBAMTDFZp
a2luZ1ZQTiBDQTEQMA4GA1UEKRMHRWFzeVJTQTEhMB8GCSqGSIb3DQEJARYSbWVA
bXlob3N0Lm15ZG9tYWluMB4XDTE4MDIyNjE3NTY0MFoXDTI4MDIyNDE3NTY0MFow
HzEdMBsGA1UEAxMUQ2xpZW50MzIzN0NlcnRhMDdmN2EwggIiMA0GCSqGSIb3DQEB
AQUAA4ICDwAwggIKAoICAQDMj2ElPghK2fElS4b16oR7giGVuZJLGCrZl3zDUfm1
sd91LbXMafT/1/f2j5JB7l9Urf0k0cYKc5W60fdLL1xn2Rr6BYP1xrNFSI8YEngz
Vx23KyMDkKABwHWu2zGSspMFVhv2ga+Ox3eqycwaeFbZnZON5aB066TkOMD34qx+
jRKzlWRnILlXlAvn3+9wc/bSu+wMl4zoJl0Ij8gptNq6ooYHNVZxFYYsvPOrcZip
obi1bcbuSi3UmOKYvr/w0BuVLdVxjlN+vbnd/Gb6fbb/zBmGVv7cNVLCg7f38nom
GZ5/8/T5u1gluGM3mh3gfXTmMP/rolApA/Qka/pBFWew+TFk33SgHTTjEJGfOOun
ntVkowURojoFQRn/CpuF++1w95WTni5kWgZo0eJz6FXu9Pz9tsRL/CIAMWbELtxt
N1cv6WAto8NqmWcJQhFCiFJ0OPil6ImeRpZaTZrZd0u5DIwljNgPL7R/Ci5JbxMn
QtFspW+bpURLb6PE8u3cMqXoUiyf9yzKlilq1oRdDzTy6mfvc+osLTnsJozg9Ios
j5d0eQyWNZ5p1hrZGCGX1+NilB/CktZweTH2VbVQADbMMowp+Avf9E4R6+57K9s+
my7HqYa94x3122d5hJ4TqGP/unedeDUQ/e5Dip4GA+x6QfHq/BStmMHu9Fq9adu3
7QIDAQABo4IBYzCCAV8wCQYDVR0TBAIwADAtBglghkgBhvhCAQ0EIBYeRWFzeS1S
U0EgR2VuZXJhdGVkIENlcnRpZmljYXRlMB0GA1UdDgQWBBSyHEW+6vLOy/FbTbuV
E0pdzcmBijCB4QYDVR0jBIHZMIHWgBQSzWAE0qCAnnDtxpm4eyzGUv0ZoaGBsqSB
rzCBrDELMAkGA1UEBhMCVVMxCzAJBgNVBAgTAk9IMREwDwYDVQQHEwhDb2x1bWJ1
czESMBAGA1UEChMJVmlraW5nVlBOMR0wGwYDVQQLExRNeU9yZ2FuaXphdGlvbmFs
VW5pdDEVMBMGA1UEAxMMVmlraW5nVlBOIENBMRAwDgYDVQQpEwdFYXN5UlNBMSEw
HwYJKoZIhvcNAQkBFhJtZUBteWhvc3QubXlkb21haW6CCQDPNYXugL8qPjATBgNV
HSUEDDAKBggrBgEFBQcDAjALBgNVHQ8EBAMCB4AwDQYJKoZIhvcNAQELBQADggIB
ACpwsDD+aaUbmYruqsgfwQW4L9Hpzp3zxMXjG9zhrBy0Qg0mgdaL5rh8mkqyiRpY
ci3A2j5iU3g51fD+5rf7zjWNW/b6uv+v0Fvs2SBAQeCIQ3S707FtYdMBO1q2IB0j
gfWgq0kddpc7cZNoIncHIYDbRB3WxbB6d0wa26HyPsaxxaMQhX17sv/0fniK8nLz
YFQVh2k5Nxu5cJpF6lFrY29ZBNC4d7INwpaJ+8MDNvHxotvQIcvNsBY89Mr4lLY7
Sg+R+4URQ/MxsKcX1gHsDK9Fi5jwUYYY8zaB0rX1toBCMrc07mJ6iXV0cSq+OfKm
CbAgtd7NzAyvwugMFxE9b2LGPb8PTWKq5UR4hk81bfWty3bdMiFJ9w5EJcA/oNze
7DXN0rrppy7JgKLREZv1CiRg0p5V70GA2h0Nf6PoZbpW4OpzNX5/NDKy0UmQ/TpY
79JvtpyapAfEnLNBHbihmZivb60LZBGyMW6LMEkcdN9Xx8+TqMnrrqLu6BOZjcRy
VEHWAf728P+Zk2NbjyzBZxqYHxSvVgB2d/RCRHg49ocHf/huc20qey5vtL8Sn/jf
q5xndb7ykNUn0s3kVY/If54EmeFOO0sg0lceqjxPsssce8jUs1jvy64jrjT/bocr
kR8CpDeSMsB6l8255gQXsYxk73mQIY4PDMzQ4FuSanC/
-----END CERTIFICATE-----
