Certificate:
    Data:
        Version: 3 (0x2)
        Serial Number: 12634 (0x315a)
    Signature Algorithm: sha256WithRSAEncryption
        Issuer: C=US, ST=OH, L=Columbus, O=VikingVPN, OU=MyOrganizationalUnit, CN=VikingVPN CA/name=EasyRSA/emailAddress=me@myhost.mydomain
        Validity
            Not Before: Feb 28 17:27:54 2018 GMT
            Not After : Feb 26 17:27:54 2028 GMT
        Subject: CN=Client3240Certa05d78
        Subject Public Key Info:
            Public Key Algorithm: rsaEncryption
                Public-Key: (4096 bit)
                Modulus:
                    00:a7:a6:9d:e1:85:ae:42:b9:97:43:62:09:48:fc:
                    6d:7c:6b:12:0f:06:10:87:1b:40:57:ff:79:4a:57:
                    83:95:68:df:44:0e:d7:9e:a0:18:94:33:06:fb:c3:
                    d5:b2:97:67:2e:26:51:e1:fe:00:e3:e4:13:1a:79:
                    c8:00:c4:18:de:d5:72:53:cc:d8:c5:f0:2e:d6:15:
                    cd:54:15:39:c5:5d:92:b7:49:d5:46:49:36:89:02:
                    f5:2e:de:95:1c:6e:2a:c5:8b:8d:a4:49:4d:9c:9f:
                    83:40:44:de:03:49:7a:10:e5:11:6e:3d:c8:f5:03:
                    ae:94:c3:04:08:25:04:c0:31:5c:9a:66:e7:49:fa:
                    a2:da:11:71:8d:7a:28:87:b3:b1:69:9c:3c:2a:e5:
                    e2:25:73:99:65:5d:ff:03:74:92:5c:94:8f:1b:5a:
                    dc:3f:db:47:16:95:f7:a3:51:37:26:c6:1e:aa:72:
                    70:e2:88:29:3d:2b:e5:bb:fc:a8:c2:0a:fa:b4:8c:
                    cb:ee:b8:ce:c3:17:b5:fb:10:7d:3e:53:0f:03:91:
                    f2:7a:8e:88:f5:2b:a4:16:30:5d:54:fa:45:78:a1:
                    c1:81:50:b7:65:93:3a:a8:ce:c4:c3:a0:01:18:b7:
                    7d:de:29:4d:ad:ec:2b:6b:53:ba:8b:22:af:14:5a:
                    6b:0b:65:68:74:6b:f9:4a:88:aa:ec:0c:11:14:af:
                    2e:43:0e:82:dd:16:4f:8e:cd:70:62:9f:8c:97:b7:
                    6a:75:b8:a6:96:2d:3b:e7:51:1c:4f:1f:14:ea:3d:
                    18:f3:3d:11:17:be:97:75:43:b8:9e:e8:05:10:ee:
                    22:1b:e9:fe:e4:46:20:16:47:ef:f0:02:90:6d:1b:
                    ee:8a:11:dd:ad:a5:93:5f:99:23:fd:eb:b7:c8:75:
                    c5:cd:75:cc:29:52:a9:d4:36:fe:84:eb:dd:31:e0:
                    0f:12:a9:ba:9c:4e:77:3d:47:ae:08:ac:1c:6c:b9:
                    c4:fb:d3:e1:7b:06:5c:03:28:8c:3a:d4:e2:9f:42:
                    ee:c5:c6:d3:ca:1c:24:8b:da:26:55:6a:9b:42:0f:
                    4b:d8:14:61:53:48:dc:fb:e6:88:5a:38:9f:8e:90:
                    9e:ad:2c:ce:9f:7d:c4:e1:3a:8a:d8:91:9f:51:d5:
                    94:1d:f2:f9:b5:5c:8e:28:1d:cb:ca:e7:ac:6e:04:
                    36:93:c9:af:07:93:7c:f5:83:dc:f5:50:40:72:f8:
                    b6:7e:43:a6:25:7b:19:d9:2e:f8:e9:1a:28:c7:ca:
                    da:81:48:3c:84:cd:38:77:bc:8a:e8:cc:22:92:23:
                    fc:46:61:82:14:5b:09:2b:fa:e1:d7:54:08:c7:4b:
                    0a:8e:19
                Exponent: 65537 (0x10001)
        X509v3 extensions:
            X509v3 Basic Constraints: 
                CA:FALSE
            Netscape Comment: 
                Easy-RSA Generated Certificate
            X509v3 Subject Key Identifier: 
                FF:2A:CC:68:8A:09:6D:20:CC:6C:9E:01:24:15:CE:49:74:38:43:5B
            X509v3 Authority Key Identifier: 
                keyid:12:CD:60:04:D2:A0:80:9E:70:ED:C6:99:B8:7B:2C:C6:52:FD:19:A1
                DirName:/C=US/ST=OH/L=Columbus/O=VikingVPN/OU=MyOrganizationalUnit/CN=VikingVPN CA/name=EasyRSA/emailAddress=me@myhost.mydomain
                serial:CF:35:85:EE:80:BF:2A:3E

            X509v3 Extended Key Usage: 
                TLS Web Client Authentication
            X509v3 Key Usage: 
                Digital Signature
    Signature Algorithm: sha256WithRSAEncryption
         21:b6:ae:18:ae:ed:86:73:b5:eb:d4:ea:81:79:b3:d0:5c:08:
         68:9f:15:10:54:d5:ec:ee:6b:a3:61:c3:68:ba:dd:08:ee:d0:
         af:f6:ad:ff:b2:3a:2e:71:bf:b6:e0:a6:ca:37:0c:88:b6:69:
         06:c4:0c:5d:aa:6c:27:33:bc:65:89:79:f4:12:68:68:7b:d3:
         c1:41:48:12:51:1f:07:4b:ad:57:03:1d:1b:29:fb:cb:aa:8c:
         06:0d:4b:94:c1:c2:52:58:9d:e9:28:d7:6e:96:39:00:04:a1:
         f8:47:f3:37:cb:68:2b:54:01:41:28:5c:82:08:55:d6:4f:74:
         e0:5f:70:67:b8:f5:83:3f:96:28:39:d1:dc:b1:e2:a6:7c:ca:
         0f:4f:73:11:68:78:a6:44:84:f5:3c:8f:46:ce:ba:e0:60:68:
         fb:89:5e:43:0f:65:81:6a:05:55:d7:c8:ba:29:90:3e:d0:f4:
         a3:14:e4:fd:2e:a1:dc:75:cd:d6:3d:10:1e:0c:33:00:89:0d:
         b5:4d:15:07:bc:76:f6:3b:84:2c:f8:40:92:3e:14:1e:11:65:
         e5:6a:f5:c6:72:9b:e4:15:09:ef:09:5f:2a:45:52:87:ac:83:
         41:5d:f3:22:6a:5a:5d:8f:18:cf:93:1b:5a:61:72:6b:d3:2d:
         05:d8:0e:8b:1c:22:d9:25:9a:88:65:10:04:09:db:7f:90:78:
         5a:30:7a:ee:42:15:f3:14:41:59:e1:d8:85:16:bd:ad:fc:db:
         a4:dd:18:52:29:00:3f:30:0c:a6:f9:5e:77:57:24:42:d7:c0:
         69:69:ec:65:1d:50:b4:fd:db:40:12:e2:1a:e9:56:22:ed:3d:
         64:16:8f:74:99:ec:08:fa:c2:07:48:d8:41:42:a3:3b:e1:6e:
         5e:21:3c:77:db:79:65:7c:ce:04:9c:b3:f7:2e:b7:17:e0:4a:
         90:d3:15:ca:ab:c6:e8:0b:c9:58:16:ee:94:89:21:b9:4a:20:
         80:c7:f7:7b:d9:10:48:4e:ab:e2:3d:6c:aa:5f:3c:33:2a:80:
         ba:55:15:d3:58:a5:19:5a:4b:cd:17:d9:44:17:32:95:c2:57:
         5f:d6:db:ac:1f:f0:76:b3:3e:7f:92:93:f8:fc:a0:b4:f7:d4:
         45:5b:3e:ad:d6:68:c8:eb:23:c3:5d:98:9e:17:16:a2:f0:e2:
         77:d6:6f:c1:cf:ce:e8:94:83:7a:ac:0c:0c:38:44:d6:54:7a:
         aa:74:94:86:ab:84:ba:b6:03:63:7a:ae:9e:ac:63:91:a7:97:
         4c:88:e6:84:f6:e3:3f:4d:0c:86:26:88:e8:27:b3:7f:01:74:
         80:72:a1:d5:f2:cc:d3:f2
-----BEGIN CERTIFICATE-----
MIIGrTCCBJWgAwIBAgICMVowDQYJKoZIhvcNAQELBQAwgawxCzAJBgNVBAYTAlVT
MQswCQYDVQQIEwJPSDERMA8GA1UEBxMIQ29sdW1idXMxEjAQBgNVBAoTCVZpa2lu
Z1ZQTjEdMBsGA1UECxMUTXlPcmdhbml6YXRpb25hbFVuaXQxFTATBgNVBAMTDFZp
a2luZ1ZQTiBDQTEQMA4GA1UEKRMHRWFzeVJTQTEhMB8GCSqGSIb3DQEJARYSbWVA
bXlob3N0Lm15ZG9tYWluMB4XDTE4MDIyODE3Mjc1NFoXDTI4MDIyNjE3Mjc1NFow
HzEdMBsGA1UEAxMUQ2xpZW50MzI0MENlcnRhMDVkNzgwggIiMA0GCSqGSIb3DQEB
AQUAA4ICDwAwggIKAoICAQCnpp3hha5CuZdDYglI/G18axIPBhCHG0BX/3lKV4OV
aN9EDteeoBiUMwb7w9Wyl2cuJlHh/gDj5BMaecgAxBje1XJTzNjF8C7WFc1UFTnF
XZK3SdVGSTaJAvUu3pUcbirFi42kSU2cn4NARN4DSXoQ5RFuPcj1A66UwwQIJQTA
MVyaZudJ+qLaEXGNeiiHs7FpnDwq5eIlc5llXf8DdJJclI8bWtw/20cWlfejUTcm
xh6qcnDiiCk9K+W7/KjCCvq0jMvuuM7DF7X7EH0+Uw8DkfJ6joj1K6QWMF1U+kV4
ocGBULdlkzqozsTDoAEYt33eKU2t7CtrU7qLIq8UWmsLZWh0a/lKiKrsDBEUry5D
DoLdFk+OzXBin4yXt2p1uKaWLTvnURxPHxTqPRjzPREXvpd1Q7ie6AUQ7iIb6f7k
RiAWR+/wApBtG+6KEd2tpZNfmSP967fIdcXNdcwpUqnUNv6E690x4A8SqbqcTnc9
R64IrBxsucT70+F7BlwDKIw61OKfQu7FxtPKHCSL2iZVaptCD0vYFGFTSNz75oha
OJ+OkJ6tLM6ffcThOorYkZ9R1ZQd8vm1XI4oHcvK56xuBDaTya8Hk3z1g9z1UEBy
+LZ+Q6YlexnZLvjpGijHytqBSDyEzTh3vIrozCKSI/xGYYIUWwkr+uHXVAjHSwqO
GQIDAQABo4IBYzCCAV8wCQYDVR0TBAIwADAtBglghkgBhvhCAQ0EIBYeRWFzeS1S
U0EgR2VuZXJhdGVkIENlcnRpZmljYXRlMB0GA1UdDgQWBBT/KsxoigltIMxsngEk
Fc5JdDhDWzCB4QYDVR0jBIHZMIHWgBQSzWAE0qCAnnDtxpm4eyzGUv0ZoaGBsqSB
rzCBrDELMAkGA1UEBhMCVVMxCzAJBgNVBAgTAk9IMREwDwYDVQQHEwhDb2x1bWJ1
czESMBAGA1UEChMJVmlraW5nVlBOMR0wGwYDVQQLExRNeU9yZ2FuaXphdGlvbmFs
VW5pdDEVMBMGA1UEAxMMVmlraW5nVlBOIENBMRAwDgYDVQQpEwdFYXN5UlNBMSEw
HwYJKoZIhvcNAQkBFhJtZUBteWhvc3QubXlkb21haW6CCQDPNYXugL8qPjATBgNV
HSUEDDAKBggrBgEFBQcDAjALBgNVHQ8EBAMCB4AwDQYJKoZIhvcNAQELBQADggIB
ACG2rhiu7YZztevU6oF5s9BcCGifFRBU1ezua6Nhw2i63Qju0K/2rf+yOi5xv7bg
pso3DIi2aQbEDF2qbCczvGWJefQSaGh708FBSBJRHwdLrVcDHRsp+8uqjAYNS5TB
wlJYneko126WOQAEofhH8zfLaCtUAUEoXIIIVdZPdOBfcGe49YM/lig50dyx4qZ8
yg9PcxFoeKZEhPU8j0bOuuBgaPuJXkMPZYFqBVXXyLopkD7Q9KMU5P0uodx1zdY9
EB4MMwCJDbVNFQe8dvY7hCz4QJI+FB4RZeVq9cZym+QVCe8JXypFUoesg0Fd8yJq
Wl2PGM+TG1phcmvTLQXYDoscItklmohlEAQJ23+QeFoweu5CFfMUQVnh2IUWva38
26TdGFIpAD8wDKb5XndXJELXwGlp7GUdULT920AS4hrpViLtPWQWj3SZ7Aj6wgdI
2EFCozvhbl4hPHfbeWV8zgScs/cutxfgSpDTFcqrxugLyVgW7pSJIblKIIDH93vZ
EEhOq+I9bKpfPDMqgLpVFdNYpRlaS80X2UQXMpXCV1/W26wf8HazPn+Sk/j8oLT3
1EVbPq3WaMjrI8NdmJ4XFqLw4nfWb8HPzuiUg3qsDAw4RNZUeqp0lIarhLq2A2N6
rp6sY5Gnl0yI5oT24z9NDIYmiOgns38BdIByodXyzNPy
-----END CERTIFICATE-----
