Certificate:
    Data:
        Version: 3 (0x2)
        Serial Number: 12642 (0x3162)
    Signature Algorithm: sha256WithRSAEncryption
        Issuer: C=US, ST=OH, L=Columbus, O=VikingVPN, OU=MyOrganizationalUnit, CN=VikingVPN CA/name=EasyRSA/emailAddress=me@myhost.mydomain
        Validity
            Not Before: Mar  1 15:56:10 2018 GMT
            Not After : Feb 27 15:56:10 2028 GMT
        Subject: CN=Client3237Certc48f79
        Subject Public Key Info:
            Public Key Algorithm: rsaEncryption
                Public-Key: (4096 bit)
                Modulus:
                    00:ad:1b:90:61:70:7e:16:26:25:a1:8e:2f:cd:17:
                    3f:00:17:62:60:58:12:d4:b8:a0:c0:56:07:43:70:
                    ed:2b:97:ad:81:fe:9b:0f:f5:0c:fc:07:10:8d:88:
                    b9:06:69:0b:3e:88:f7:ed:44:2f:76:df:17:30:05:
                    f1:84:16:9c:e5:91:20:bf:e1:b7:5a:6d:15:12:7b:
                    cb:b4:12:4c:5a:60:4d:a8:a5:1b:61:f3:21:45:de:
                    a0:77:3f:8c:40:fd:2c:c9:48:de:48:5d:2d:1d:6f:
                    17:09:ba:2a:4d:71:9b:30:a6:8a:56:44:f5:90:1f:
                    50:04:81:12:d6:10:26:13:9e:28:22:5e:c4:a7:c2:
                    14:64:95:ac:da:35:61:03:b8:46:40:37:47:90:e1:
                    11:cb:38:95:96:6e:91:c5:db:fc:21:b8:4a:1a:da:
                    8e:d1:9d:cc:41:e0:bb:cf:7c:20:0f:90:6e:4f:99:
                    65:05:eb:b6:c8:a5:63:15:39:58:34:2b:56:95:84:
                    1b:ac:9a:32:41:4d:0d:a6:2c:c5:8c:82:3c:99:62:
                    3e:84:20:82:fa:da:14:98:ab:72:80:13:a6:e9:44:
                    79:1a:b5:fe:51:ff:0a:1a:01:ce:60:33:e2:bb:33:
                    ff:02:b4:03:7c:3f:71:44:73:04:13:8b:e6:94:9c:
                    c4:c5:b4:da:25:25:b9:d7:bc:05:67:ab:2b:f7:d8:
                    6e:71:80:10:03:71:03:cf:d5:70:d3:65:ff:0e:90:
                    c1:b3:3c:d5:5b:62:34:30:7b:26:03:d8:d2:51:6a:
                    e0:86:37:9b:86:55:6d:97:be:b3:01:6b:83:31:98:
                    d6:bd:2c:e4:85:78:e5:3c:e2:f3:de:71:fe:ee:45:
                    da:4d:9e:63:cc:de:1c:9a:9f:ad:a0:44:e6:61:dd:
                    0e:86:d0:63:d6:2a:63:9c:b7:82:68:e7:b3:0c:75:
                    cc:bf:f7:3b:5b:29:c5:cb:a3:2e:49:2a:a2:70:81:
                    b4:d7:e1:e6:6b:4e:47:d2:d8:1d:46:6b:77:f7:52:
                    8c:f3:4c:2e:e0:10:bf:38:76:06:bb:a4:28:b7:f2:
                    49:7d:ab:a5:f9:d8:a6:89:3c:ff:31:42:71:63:2a:
                    2d:ec:30:12:6b:d3:f7:7f:c3:98:3a:c9:b2:3c:af:
                    e5:e4:eb:22:03:ee:bf:3e:4a:d0:6f:57:28:63:62:
                    ab:99:52:8c:b5:64:f7:40:f4:89:cc:a2:8c:6e:da:
                    88:ef:a8:28:d0:49:73:3a:c3:3a:5f:83:5c:9a:c3:
                    6c:58:00:d8:e4:d6:b9:50:ca:49:56:55:32:71:20:
                    79:b5:8d:32:4f:a9:de:46:07:96:4f:d7:5c:bd:50:
                    83:ed:75
                Exponent: 65537 (0x10001)
        X509v3 extensions:
            X509v3 Basic Constraints: 
                CA:FALSE
            Netscape Comment: 
                Easy-RSA Generated Certificate
            X509v3 Subject Key Identifier: 
                94:BA:3F:3E:5F:D6:67:F3:65:3A:7D:3F:2C:6E:11:2B:9B:ED:01:0D
            X509v3 Authority Key Identifier: 
                keyid:12:CD:60:04:D2:A0:80:9E:70:ED:C6:99:B8:7B:2C:C6:52:FD:19:A1
                DirName:/C=US/ST=OH/L=Columbus/O=VikingVPN/OU=MyOrganizationalUnit/CN=VikingVPN CA/name=EasyRSA/emailAddress=me@myhost.mydomain
                serial:CF:35:85:EE:80:BF:2A:3E

            X509v3 Extended Key Usage: 
                TLS Web Client Authentication
            X509v3 Key Usage: 
                Digital Signature
    Signature Algorithm: sha256WithRSAEncryption
         6c:5d:64:b8:bf:57:d2:99:22:f3:bb:a2:ae:d9:85:43:74:85:
         c4:c8:da:1c:99:51:19:6f:af:57:c8:01:ff:77:3d:d6:9f:9c:
         22:3f:81:97:e0:9b:00:5b:8a:b2:40:46:a2:bc:31:1d:d4:de:
         6a:b0:01:37:89:a7:e7:57:5c:ee:3b:9f:b2:b0:c7:a4:aa:93:
         0f:20:76:26:3a:e8:a4:bd:5b:9a:39:4c:fb:12:d5:a7:67:c2:
         34:16:ef:56:21:4d:b5:d9:ab:bd:e7:39:3f:76:71:60:ec:5b:
         72:38:65:7c:73:d2:b1:3e:dc:b7:1c:a8:91:3e:47:dd:37:46:
         f4:49:fa:75:7c:6b:04:e4:21:07:06:06:57:e1:11:9a:e2:b6:
         c6:ae:7b:65:ca:42:0e:d9:c6:68:e8:63:61:a2:4e:cc:8b:d2:
         09:35:98:ac:f8:03:95:ea:c1:5c:a7:ee:95:f5:6f:f9:04:ef:
         51:d4:38:74:7c:d6:2a:5e:91:f1:28:54:24:06:1a:6b:c5:f6:
         60:da:c7:6a:dc:e7:10:42:fb:23:31:44:46:75:ae:50:13:82:
         0d:af:33:d8:b9:49:80:bf:a0:19:1d:40:78:c8:b5:d4:79:ad:
         e7:c0:1a:15:4b:62:6f:20:62:3a:c4:32:1b:ec:ea:14:56:06:
         5f:b7:76:71:9e:b0:84:1e:99:77:ef:9f:f8:e1:ac:b0:16:41:
         64:39:47:e4:b6:06:ee:4e:9a:c5:a8:8b:cd:5e:5a:b3:3f:d7:
         a0:85:07:48:32:4b:b2:f9:8c:e3:39:fd:41:05:14:c5:86:75:
         8b:d2:49:03:55:af:18:4d:fe:80:6e:0a:57:dc:e5:f6:22:df:
         cc:4b:8b:f4:a7:4c:94:c0:92:a5:81:d0:9b:46:0a:c5:36:a4:
         94:cc:93:42:73:13:ff:14:46:e7:75:f1:30:c3:de:9a:1c:9c:
         ce:f1:65:5c:d4:c3:58:f5:e5:a8:0a:a9:64:a0:33:29:b5:4d:
         de:bf:4a:81:2d:43:83:87:7b:f8:cc:38:0e:bf:c1:8a:a0:b9:
         8a:ba:d1:53:ba:95:fe:4f:6a:d5:c6:de:df:2a:57:ea:a2:d0:
         23:8d:f3:5b:d0:b4:56:68:41:7e:19:65:46:db:7a:4b:61:c0:
         46:7c:52:a6:b9:c0:61:26:3e:03:98:b4:61:20:79:f4:13:0f:
         81:3f:ef:d8:50:47:a4:5d:d7:c2:3c:1d:40:4c:fd:f9:b7:10:
         aa:85:8c:eb:31:54:b6:e8:e6:ab:f4:c4:22:2f:be:1a:d0:18:
         57:a6:20:6f:d6:df:bc:eb:f2:31:ec:1f:37:9c:f9:91:1c:5d:
         f9:18:77:64:a3:d1:bd:5e
-----BEGIN CERTIFICATE-----
MIIGrTCCBJWgAwIBAgICMWIwDQYJKoZIhvcNAQELBQAwgawxCzAJBgNVBAYTAlVT
MQswCQYDVQQIEwJPSDERMA8GA1UEBxMIQ29sdW1idXMxEjAQBgNVBAoTCVZpa2lu
Z1ZQTjEdMBsGA1UECxMUTXlPcmdhbml6YXRpb25hbFVuaXQxFTATBgNVBAMTDFZp
a2luZ1ZQTiBDQTEQMA4GA1UEKRMHRWFzeVJTQTEhMB8GCSqGSIb3DQEJARYSbWVA
bXlob3N0Lm15ZG9tYWluMB4XDTE4MDMwMTE1NTYxMFoXDTI4MDIyNzE1NTYxMFow
HzEdMBsGA1UEAxMUQ2xpZW50MzIzN0NlcnRjNDhmNzkwggIiMA0GCSqGSIb3DQEB
AQUAA4ICDwAwggIKAoICAQCtG5BhcH4WJiWhji/NFz8AF2JgWBLUuKDAVgdDcO0r
l62B/psP9Qz8BxCNiLkGaQs+iPftRC923xcwBfGEFpzlkSC/4bdabRUSe8u0Ekxa
YE2opRth8yFF3qB3P4xA/SzJSN5IXS0dbxcJuipNcZswpopWRPWQH1AEgRLWECYT
nigiXsSnwhRklazaNWEDuEZAN0eQ4RHLOJWWbpHF2/whuEoa2o7RncxB4LvPfCAP
kG5PmWUF67bIpWMVOVg0K1aVhBusmjJBTQ2mLMWMgjyZYj6EIIL62hSYq3KAE6bp
RHkatf5R/woaAc5gM+K7M/8CtAN8P3FEcwQTi+aUnMTFtNolJbnXvAVnqyv32G5x
gBADcQPP1XDTZf8OkMGzPNVbYjQweyYD2NJRauCGN5uGVW2XvrMBa4MxmNa9LOSF
eOU84vPecf7uRdpNnmPM3hyan62gROZh3Q6G0GPWKmOct4Jo57MMdcy/9ztbKcXL
oy5JKqJwgbTX4eZrTkfS2B1Ga3f3UozzTC7gEL84dga7pCi38kl9q6X52KaJPP8x
QnFjKi3sMBJr0/d/w5g6ybI8r+Xk6yID7r8+StBvVyhjYquZUoy1ZPdA9InMooxu
2ojvqCjQSXM6wzpfg1yaw2xYANjk1rlQyklWVTJxIHm1jTJPqd5GB5ZP11y9UIPt
dQIDAQABo4IBYzCCAV8wCQYDVR0TBAIwADAtBglghkgBhvhCAQ0EIBYeRWFzeS1S
U0EgR2VuZXJhdGVkIENlcnRpZmljYXRlMB0GA1UdDgQWBBSUuj8+X9Zn82U6fT8s
bhErm+0BDTCB4QYDVR0jBIHZMIHWgBQSzWAE0qCAnnDtxpm4eyzGUv0ZoaGBsqSB
rzCBrDELMAkGA1UEBhMCVVMxCzAJBgNVBAgTAk9IMREwDwYDVQQHEwhDb2x1bWJ1
czESMBAGA1UEChMJVmlraW5nVlBOMR0wGwYDVQQLExRNeU9yZ2FuaXphdGlvbmFs
VW5pdDEVMBMGA1UEAxMMVmlraW5nVlBOIENBMRAwDgYDVQQpEwdFYXN5UlNBMSEw
HwYJKoZIhvcNAQkBFhJtZUBteWhvc3QubXlkb21haW6CCQDPNYXugL8qPjATBgNV
HSUEDDAKBggrBgEFBQcDAjALBgNVHQ8EBAMCB4AwDQYJKoZIhvcNAQELBQADggIB
AGxdZLi/V9KZIvO7oq7ZhUN0hcTI2hyZURlvr1fIAf93PdafnCI/gZfgmwBbirJA
RqK8MR3U3mqwATeJp+dXXO47n7Kwx6Sqkw8gdiY66KS9W5o5TPsS1adnwjQW71Yh
TbXZq73nOT92cWDsW3I4ZXxz0rE+3LccqJE+R903RvRJ+nV8awTkIQcGBlfhEZri
tsaue2XKQg7ZxmjoY2GiTsyL0gk1mKz4A5XqwVyn7pX1b/kE71HUOHR81ipekfEo
VCQGGmvF9mDax2rc5xBC+yMxREZ1rlATgg2vM9i5SYC/oBkdQHjItdR5refAGhVL
Ym8gYjrEMhvs6hRWBl+3dnGesIQemXfvn/jhrLAWQWQ5R+S2Bu5OmsWoi81eWrM/
16CFB0gyS7L5jOM5/UEFFMWGdYvSSQNVrxhN/oBuClfc5fYi38xLi/SnTJTAkqWB
0JtGCsU2pJTMk0JzE/8URud18TDD3pocnM7xZVzUw1j15agKqWSgMym1Td6/SoEt
Q4OHe/jMOA6/wYqguYq60VO6lf5PatXG3t8qV+qi0CON81vQtFZoQX4ZZUbbekth
wEZ8Uqa5wGEmPgOYtGEgefQTD4E/79hQR6Rd18I8HUBM/fm3EKqFjOsxVLbo5qv0
xCIvvhrQGFemIG/W37zr8jHsHzec+ZEcXfkYd2Sj0b1e
-----END CERTIFICATE-----
