Certificate:
    Data:
        Version: 3 (0x2)
        Serial Number: 12643 (0x3163)
    Signature Algorithm: sha256WithRSAEncryption
        Issuer: C=US, ST=OH, L=Columbus, O=VikingVPN, OU=MyOrganizationalUnit, CN=VikingVPN CA/name=EasyRSA/emailAddress=me@myhost.mydomain
        Validity
            Not Before: Mar  1 16:13:35 2018 GMT
            Not After : Feb 27 16:13:35 2028 GMT
        Subject: CN=Client3237Cert3f8c46
        Subject Public Key Info:
            Public Key Algorithm: rsaEncryption
                Public-Key: (4096 bit)
                Modulus:
                    00:f3:43:5b:73:83:5b:92:99:fb:a7:64:11:37:b4:
                    69:ae:1a:b5:5b:7c:b3:96:4b:9b:50:12:c1:53:42:
                    c9:9b:58:78:20:a5:6b:c0:24:fa:39:47:11:e5:00:
                    43:d2:7c:b3:e4:b5:2f:9a:0b:ea:f2:2f:99:f9:1b:
                    9b:11:1f:85:0a:44:38:b5:dd:f8:ea:71:1a:b6:f6:
                    01:3e:39:ad:10:e3:89:5e:95:6d:26:a6:54:9e:58:
                    16:62:ce:18:ee:7a:7c:a7:dd:b3:41:91:ee:fc:2f:
                    6d:ea:d0:f7:27:93:33:ce:93:6e:a8:52:00:56:c8:
                    f6:82:e4:16:8b:fe:b3:71:20:d8:64:8d:4a:55:6f:
                    59:d9:10:63:3d:f8:4f:87:f0:c1:09:41:5c:63:c0:
                    95:e9:8c:01:bb:b3:88:12:a4:16:bb:72:d6:6b:be:
                    25:a3:ad:46:77:37:71:86:5c:29:16:e3:2a:a2:7b:
                    0d:e2:bd:d1:ad:ba:7c:e2:77:82:7b:03:9b:68:d2:
                    1b:bd:57:58:f0:24:04:f8:e1:6c:b2:69:32:ab:b2:
                    ff:60:4a:a0:9f:0e:9f:8d:aa:91:70:c7:21:83:4d:
                    9d:eb:08:82:35:84:20:cc:84:03:75:bd:99:2b:33:
                    b0:9a:aa:8c:ea:6a:7f:01:0b:52:3b:d1:4a:26:6f:
                    b6:98:31:10:85:35:81:a2:07:c2:5e:79:bf:35:97:
                    8a:56:fd:d0:7c:2d:05:e0:5c:0c:48:8d:14:8b:66:
                    09:8f:70:16:df:90:24:70:5a:6b:5d:03:09:92:fd:
                    72:d8:da:3b:8d:e3:ae:2c:f2:4b:c3:58:c7:a2:9f:
                    dc:e4:98:2c:82:a7:10:5c:c5:d2:04:c3:6f:8b:c5:
                    94:17:68:22:cb:37:22:fb:ff:77:40:99:e2:e4:28:
                    7a:c8:68:e2:ff:bf:48:06:b9:01:59:59:0b:b9:dd:
                    6c:34:78:a0:e1:43:eb:0b:d0:3e:27:d0:3a:99:12:
                    d4:12:e7:c4:ce:05:d5:aa:26:54:2b:f7:84:06:f2:
                    c1:13:3b:1d:9a:49:86:13:7e:c1:5a:20:42:21:1c:
                    0b:9e:b3:7b:2b:1c:a6:37:e5:e1:fa:20:a7:7e:30:
                    73:f2:5e:ea:46:69:6b:a8:6e:b2:11:18:98:8d:23:
                    c1:ef:12:48:5f:a1:d4:1e:82:03:05:c9:8f:03:2d:
                    fa:6b:b9:de:17:f8:38:c6:36:a5:88:69:d0:93:09:
                    b5:50:5d:28:bd:d6:ab:7d:c6:c2:41:37:58:72:a7:
                    19:65:a1:31:de:82:e9:ad:ec:36:48:3d:65:93:a1:
                    c4:59:2f:85:ff:1f:64:9c:60:df:96:5f:bc:72:ad:
                    ce:f7:4b
                Exponent: 65537 (0x10001)
        X509v3 extensions:
            X509v3 Basic Constraints: 
                CA:FALSE
            Netscape Comment: 
                Easy-RSA Generated Certificate
            X509v3 Subject Key Identifier: 
                D4:8F:75:EB:78:EB:AC:D7:C4:5B:79:0D:30:C3:A3:A3:EB:1F:5F:D7
            X509v3 Authority Key Identifier: 
                keyid:12:CD:60:04:D2:A0:80:9E:70:ED:C6:99:B8:7B:2C:C6:52:FD:19:A1
                DirName:/C=US/ST=OH/L=Columbus/O=VikingVPN/OU=MyOrganizationalUnit/CN=VikingVPN CA/name=EasyRSA/emailAddress=me@myhost.mydomain
                serial:CF:35:85:EE:80:BF:2A:3E

            X509v3 Extended Key Usage: 
                TLS Web Client Authentication
            X509v3 Key Usage: 
                Digital Signature
    Signature Algorithm: sha256WithRSAEncryption
         cb:59:60:21:e6:dc:97:0f:85:02:f1:11:ae:92:25:19:56:96:
         ad:91:d5:89:24:fb:a3:31:d6:69:46:7e:2e:c5:39:bc:dc:87:
         20:f9:6c:21:c2:c8:53:e6:fd:85:68:00:90:76:05:df:fd:3a:
         cc:37:da:15:da:92:5b:be:5d:2a:a0:18:17:2a:f3:50:ae:61:
         75:93:b1:13:b2:5e:55:3e:67:33:97:19:0a:ad:67:5a:2d:72:
         ee:45:fa:70:06:d3:20:40:39:7e:e6:be:49:d2:94:8b:fe:2a:
         d2:44:43:be:5b:93:fa:71:d6:a5:fc:11:1f:de:ea:7c:0b:ab:
         c9:19:a2:8e:f4:5f:ae:76:32:a1:66:d1:57:06:1d:ad:91:fe:
         01:6f:29:e7:ad:16:38:37:95:ed:8f:c6:b5:80:fb:26:c7:f0:
         b2:3b:be:29:0f:e0:d2:41:9e:09:9c:90:da:ca:2d:96:13:80:
         41:ee:40:af:50:63:39:97:cd:ae:09:03:79:5e:28:68:b3:fe:
         a3:bf:cb:2d:7c:f2:6a:93:db:86:c2:e9:d0:4b:35:cc:88:95:
         b8:25:f4:e7:d3:6b:2b:5e:46:d3:43:8b:32:bf:07:32:1b:06:
         80:ec:60:99:14:56:fa:8f:7d:5f:06:80:58:2f:98:eb:53:6c:
         4a:1b:34:bd:a4:f1:bd:c6:2a:86:4f:b5:c0:a2:4f:c6:cb:85:
         1d:b2:94:cd:61:6f:57:68:a6:8d:56:de:3f:58:d4:37:d8:b2:
         6e:34:1b:15:3b:77:1d:b9:0c:78:75:a1:20:a4:86:4b:46:54:
         22:4a:76:93:0f:fc:cc:2d:5b:f2:ef:60:ae:3d:57:8d:28:c4:
         77:ca:a7:3c:15:5a:c0:62:fb:ed:60:cb:f7:5b:fa:77:ce:f0:
         86:b3:02:10:de:82:08:92:65:18:b7:e4:15:eb:2d:af:6f:26:
         c2:49:43:f4:e7:26:8e:a2:55:1d:22:c6:db:da:ce:10:dd:b6:
         8d:0e:3f:a6:44:10:1a:c2:71:4c:c2:50:f0:55:ee:5e:2a:7f:
         5e:87:ca:3f:7f:0e:92:6e:cd:01:02:b7:b2:f0:d5:49:ae:3f:
         7c:63:ec:8c:8d:19:4a:ba:3b:8b:68:1e:23:7a:13:00:1e:ef:
         78:05:5b:55:45:45:50:0a:fb:36:00:ff:ff:3d:c1:ec:83:7e:
         97:5e:58:e0:68:b3:d8:cd:21:c6:60:a9:08:99:e3:15:50:32:
         a8:bb:0c:84:ba:98:7a:f2:87:0f:24:65:7f:16:11:2e:77:3a:
         87:8e:01:43:9c:1b:41:66:be:2e:58:32:b3:15:8c:c4:c8:07:
         53:00:c8:45:0f:ec:fa:88
-----BEGIN CERTIFICATE-----
MIIGrTCCBJWgAwIBAgICMWMwDQYJKoZIhvcNAQELBQAwgawxCzAJBgNVBAYTAlVT
MQswCQYDVQQIEwJPSDERMA8GA1UEBxMIQ29sdW1idXMxEjAQBgNVBAoTCVZpa2lu
Z1ZQTjEdMBsGA1UECxMUTXlPcmdhbml6YXRpb25hbFVuaXQxFTATBgNVBAMTDFZp
a2luZ1ZQTiBDQTEQMA4GA1UEKRMHRWFzeVJTQTEhMB8GCSqGSIb3DQEJARYSbWVA
bXlob3N0Lm15ZG9tYWluMB4XDTE4MDMwMTE2MTMzNVoXDTI4MDIyNzE2MTMzNVow
HzEdMBsGA1UEAxMUQ2xpZW50MzIzN0NlcnQzZjhjNDYwggIiMA0GCSqGSIb3DQEB
AQUAA4ICDwAwggIKAoICAQDzQ1tzg1uSmfunZBE3tGmuGrVbfLOWS5tQEsFTQsmb
WHggpWvAJPo5RxHlAEPSfLPktS+aC+ryL5n5G5sRH4UKRDi13fjqcRq29gE+Oa0Q
44lelW0mplSeWBZizhjuenyn3bNBke78L23q0PcnkzPOk26oUgBWyPaC5BaL/rNx
INhkjUpVb1nZEGM9+E+H8MEJQVxjwJXpjAG7s4gSpBa7ctZrviWjrUZ3N3GGXCkW
4yqiew3ivdGtunzid4J7A5to0hu9V1jwJAT44WyyaTKrsv9gSqCfDp+NqpFwxyGD
TZ3rCII1hCDMhAN1vZkrM7Caqozqan8BC1I70Uomb7aYMRCFNYGiB8Jeeb81l4pW
/dB8LQXgXAxIjRSLZgmPcBbfkCRwWmtdAwmS/XLY2juN464s8kvDWMein9zkmCyC
pxBcxdIEw2+LxZQXaCLLNyL7/3dAmeLkKHrIaOL/v0gGuQFZWQu53Ww0eKDhQ+sL
0D4n0DqZEtQS58TOBdWqJlQr94QG8sETOx2aSYYTfsFaIEIhHAues3srHKY35eH6
IKd+MHPyXupGaWuobrIRGJiNI8HvEkhfodQeggMFyY8DLfprud4X+DjGNqWIadCT
CbVQXSi91qt9xsJBN1hypxlloTHegumt7DZIPWWTocRZL4X/H2ScYN+WX7xyrc73
SwIDAQABo4IBYzCCAV8wCQYDVR0TBAIwADAtBglghkgBhvhCAQ0EIBYeRWFzeS1S
U0EgR2VuZXJhdGVkIENlcnRpZmljYXRlMB0GA1UdDgQWBBTUj3XreOus18RbeQ0w
w6Oj6x9f1zCB4QYDVR0jBIHZMIHWgBQSzWAE0qCAnnDtxpm4eyzGUv0ZoaGBsqSB
rzCBrDELMAkGA1UEBhMCVVMxCzAJBgNVBAgTAk9IMREwDwYDVQQHEwhDb2x1bWJ1
czESMBAGA1UEChMJVmlraW5nVlBOMR0wGwYDVQQLExRNeU9yZ2FuaXphdGlvbmFs
VW5pdDEVMBMGA1UEAxMMVmlraW5nVlBOIENBMRAwDgYDVQQpEwdFYXN5UlNBMSEw
HwYJKoZIhvcNAQkBFhJtZUBteWhvc3QubXlkb21haW6CCQDPNYXugL8qPjATBgNV
HSUEDDAKBggrBgEFBQcDAjALBgNVHQ8EBAMCB4AwDQYJKoZIhvcNAQELBQADggIB
AMtZYCHm3JcPhQLxEa6SJRlWlq2R1Ykk+6Mx1mlGfi7FObzchyD5bCHCyFPm/YVo
AJB2Bd/9Osw32hXaklu+XSqgGBcq81CuYXWTsROyXlU+ZzOXGQqtZ1otcu5F+nAG
0yBAOX7mvknSlIv+KtJEQ75bk/px1qX8ER/e6nwLq8kZoo70X652MqFm0VcGHa2R
/gFvKeetFjg3le2PxrWA+ybH8LI7vikP4NJBngmckNrKLZYTgEHuQK9QYzmXza4J
A3leKGiz/qO/yy188mqT24bC6dBLNcyIlbgl9OfTayteRtNDizK/BzIbBoDsYJkU
VvqPfV8GgFgvmOtTbEobNL2k8b3GKoZPtcCiT8bLhR2ylM1hb1dopo1W3j9Y1DfY
sm40GxU7dx25DHh1oSCkhktGVCJKdpMP/MwtW/LvYK49V40oxHfKpzwVWsBi++1g
y/db+nfO8IazAhDeggiSZRi35BXrLa9vJsJJQ/TnJo6iVR0ixtvazhDdto0OP6ZE
EBrCcUzCUPBV7l4qf16Hyj9/DpJuzQECt7Lw1UmuP3xj7IyNGUq6O4toHiN6EwAe
73gFW1VFRVAK+zYA//89weyDfpdeWOBos9jNIcZgqQiZ4xVQMqi7DIS6mHryhw8k
ZX8WES53OoeOAUOcG0Fmvi5YMrMVjMTIB1MAyEUP7PqI
-----END CERTIFICATE-----
