Certificate:
    Data:
        Version: 3 (0x2)
        Serial Number: 12644 (0x3164)
    Signature Algorithm: sha256WithRSAEncryption
        Issuer: C=US, ST=OH, L=Columbus, O=VikingVPN, OU=MyOrganizationalUnit, CN=VikingVPN CA/name=EasyRSA/emailAddress=me@myhost.mydomain
        Validity
            Not Before: Mar  1 19:20:38 2018 GMT
            Not After : Feb 27 19:20:38 2028 GMT
        Subject: CN=Client3224Cert5f7ab4
        Subject Public Key Info:
            Public Key Algorithm: rsaEncryption
                Public-Key: (4096 bit)
                Modulus:
                    00:ea:c5:bb:78:25:0f:98:40:2e:c7:4d:b1:d5:61:
                    33:a1:e9:1e:a9:88:3a:a4:37:7f:e0:cb:84:4f:1b:
                    83:8f:53:2c:6a:bd:f1:86:ad:6c:f0:8b:50:64:ce:
                    eb:91:de:6b:5f:f7:17:41:d4:43:12:b8:50:66:92:
                    35:d8:1a:8d:ed:0f:8e:59:7a:ac:4e:6b:c5:9d:85:
                    f4:b4:ab:72:66:50:51:00:0e:05:76:bb:65:c0:62:
                    e5:37:14:3f:62:5a:61:9d:1b:f2:0d:f5:0e:35:9c:
                    a7:60:99:69:e1:48:4f:ec:f5:70:d3:7f:f0:41:e8:
                    18:31:1e:4f:df:51:d8:b5:a2:51:c7:a6:db:f9:c3:
                    0a:b0:2c:c7:04:ba:a1:2a:8c:3b:e1:a9:59:25:c5:
                    fb:b7:c9:e5:e7:70:1a:41:27:90:b2:f3:80:15:06:
                    8f:ea:2f:a4:da:14:aa:fd:8f:b7:8b:45:7b:9b:df:
                    3b:9b:82:f1:7a:98:1f:13:6b:89:66:bf:80:3a:32:
                    64:16:e8:d6:2b:f9:48:e8:76:5c:cc:52:d5:e7:8e:
                    6c:31:4e:c9:05:3b:69:92:50:4f:19:c4:04:49:9d:
                    4a:5c:c6:8a:42:93:7a:fd:64:4e:8e:63:62:7d:ad:
                    d9:4f:bd:8d:7d:f6:66:e5:c2:6e:f4:b4:f5:28:cf:
                    fe:f0:0d:62:1d:52:17:03:46:db:e6:ea:2f:a0:7d:
                    82:07:85:6a:17:4d:c9:24:3a:3a:98:ab:d1:f9:19:
                    09:79:f0:ed:1b:72:fb:b6:20:a3:cc:f0:00:a0:44:
                    e7:11:83:3e:0a:fa:24:de:b5:99:95:3a:8e:d4:da:
                    d3:be:48:7c:09:99:39:1b:58:5a:7d:ce:eb:6f:cc:
                    78:8f:a6:e7:34:2c:19:e3:a5:87:c7:e1:83:09:26:
                    b9:14:43:7a:f5:f0:5e:49:51:82:86:4e:88:28:f5:
                    20:72:40:e2:e8:dc:c3:74:4e:8b:4f:53:68:f7:8b:
                    51:01:5a:84:98:ce:5b:fc:34:b4:a4:bb:3a:72:ba:
                    60:24:96:f7:44:9e:aa:91:84:06:92:fa:a2:f6:1b:
                    38:7a:03:41:7e:da:7b:41:aa:43:f6:a4:fe:e0:33:
                    45:ad:17:44:f6:a1:58:04:20:d3:2c:b3:bd:93:c7:
                    65:29:de:35:0b:65:32:bb:24:49:54:73:fd:e5:76:
                    c3:97:f5:4b:36:37:11:95:ee:21:47:31:fb:7f:42:
                    fc:3f:2f:23:c7:93:a0:fa:2f:88:9c:48:db:f1:92:
                    fb:a7:36:95:32:ba:13:b3:71:ec:32:7c:18:2f:48:
                    9c:72:80:e0:0d:af:63:76:bb:48:62:27:75:6b:6b:
                    37:2c:b3
                Exponent: 65537 (0x10001)
        X509v3 extensions:
            X509v3 Basic Constraints: 
                CA:FALSE
            Netscape Comment: 
                Easy-RSA Generated Certificate
            X509v3 Subject Key Identifier: 
                2C:FD:AC:B2:7F:C7:5C:AA:6F:70:A5:6A:1D:E6:9D:A4:14:52:0D:4C
            X509v3 Authority Key Identifier: 
                keyid:12:CD:60:04:D2:A0:80:9E:70:ED:C6:99:B8:7B:2C:C6:52:FD:19:A1
                DirName:/C=US/ST=OH/L=Columbus/O=VikingVPN/OU=MyOrganizationalUnit/CN=VikingVPN CA/name=EasyRSA/emailAddress=me@myhost.mydomain
                serial:CF:35:85:EE:80:BF:2A:3E

            X509v3 Extended Key Usage: 
                TLS Web Client Authentication
            X509v3 Key Usage: 
                Digital Signature
    Signature Algorithm: sha256WithRSAEncryption
         47:d6:45:d5:e1:1d:48:7f:2a:0c:4c:fa:ef:22:24:34:ed:57:
         bb:2f:af:cc:17:9a:00:8c:21:ad:c3:b7:9f:0e:2e:64:bc:c9:
         aa:80:a0:32:bf:f8:47:e9:25:eb:6c:fc:92:53:6d:80:8e:92:
         5b:a4:cb:6a:b0:60:9b:2d:d4:24:67:d7:6d:df:b1:aa:9e:ba:
         11:f6:4f:92:49:81:c4:5e:c8:40:ab:5d:dd:51:ab:6d:23:5d:
         98:08:5b:f9:93:0c:58:fa:cb:40:d5:cf:c2:92:4e:d6:c0:69:
         a7:3c:ef:fe:e7:3a:3d:0c:d3:69:71:08:aa:b4:af:a7:90:98:
         ac:1c:8e:72:31:14:99:70:7d:37:6f:ad:4f:d2:2c:8f:c6:49:
         cb:94:7d:b0:13:95:5c:48:63:92:4f:4c:f2:01:59:90:58:60:
         ca:42:4a:3c:4d:87:8d:b4:b9:c2:e4:d4:6c:51:05:33:6e:ef:
         ad:3c:57:55:b7:0d:ab:e0:45:75:34:09:65:03:82:73:12:34:
         d0:59:5a:a9:87:cd:23:96:9c:07:38:75:57:72:30:57:70:e0:
         7f:5a:3b:2a:9c:05:27:8a:90:81:50:21:bd:dc:41:b8:cf:ad:
         6a:d3:1c:80:06:8d:94:be:21:2b:29:cc:47:91:88:20:00:90:
         75:72:56:c2:32:b6:30:34:67:78:7c:e1:3c:28:18:be:68:b4:
         79:7e:5c:28:7c:5a:d3:3a:49:ed:02:56:1f:06:b5:d7:aa:d2:
         1b:04:6f:d5:49:1b:a2:9b:c1:11:26:1e:12:c5:d4:bf:74:14:
         27:4e:aa:b3:d5:7f:82:f4:94:9d:42:ac:c0:e7:eb:55:08:81:
         fd:50:0f:08:e8:aa:ea:86:a1:7d:96:f8:93:e3:94:10:fc:cb:
         f1:93:48:81:8f:f0:23:fd:14:6c:48:53:fe:ce:36:61:7c:24:
         51:c4:f8:55:47:e9:e8:4c:9a:c0:3c:59:5b:4a:2e:45:45:a8:
         2b:79:c5:51:03:e2:16:33:2f:ba:ab:16:ff:d8:65:8a:d2:70:
         e3:4a:7e:8a:00:95:ae:b6:76:fd:74:54:32:f9:1b:6d:24:64:
         73:c5:e8:13:48:ca:c6:2e:cc:89:b9:5f:07:08:13:56:25:e7:
         46:6b:a5:c7:7a:28:94:7a:0b:25:aa:db:89:b2:ff:1c:bc:8e:
         bc:29:62:5a:c4:5e:aa:d6:fb:8b:59:19:2e:a0:84:18:f3:47:
         13:d4:6d:d7:62:65:d2:29:02:5c:a8:11:5b:9a:0f:cf:8f:e2:
         53:67:fa:bf:b0:94:55:5f:ab:38:c0:96:bb:e8:25:e2:b9:e6:
         9f:f8:61:b2:e2:2d:1f:ce
-----BEGIN CERTIFICATE-----
MIIGrTCCBJWgAwIBAgICMWQwDQYJKoZIhvcNAQELBQAwgawxCzAJBgNVBAYTAlVT
MQswCQYDVQQIEwJPSDERMA8GA1UEBxMIQ29sdW1idXMxEjAQBgNVBAoTCVZpa2lu
Z1ZQTjEdMBsGA1UECxMUTXlPcmdhbml6YXRpb25hbFVuaXQxFTATBgNVBAMTDFZp
a2luZ1ZQTiBDQTEQMA4GA1UEKRMHRWFzeVJTQTEhMB8GCSqGSIb3DQEJARYSbWVA
bXlob3N0Lm15ZG9tYWluMB4XDTE4MDMwMTE5MjAzOFoXDTI4MDIyNzE5MjAzOFow
HzEdMBsGA1UEAxMUQ2xpZW50MzIyNENlcnQ1ZjdhYjQwggIiMA0GCSqGSIb3DQEB
AQUAA4ICDwAwggIKAoICAQDqxbt4JQ+YQC7HTbHVYTOh6R6piDqkN3/gy4RPG4OP
UyxqvfGGrWzwi1BkzuuR3mtf9xdB1EMSuFBmkjXYGo3tD45ZeqxOa8WdhfS0q3Jm
UFEADgV2u2XAYuU3FD9iWmGdG/IN9Q41nKdgmWnhSE/s9XDTf/BB6BgxHk/fUdi1
olHHptv5wwqwLMcEuqEqjDvhqVklxfu3yeXncBpBJ5Cy84AVBo/qL6TaFKr9j7eL
RXub3zubgvF6mB8Ta4lmv4A6MmQW6NYr+UjodlzMUtXnjmwxTskFO2mSUE8ZxARJ
nUpcxopCk3r9ZE6OY2J9rdlPvY199mblwm70tPUoz/7wDWIdUhcDRtvm6i+gfYIH
hWoXTckkOjqYq9H5GQl58O0bcvu2IKPM8ACgROcRgz4K+iTetZmVOo7U2tO+SHwJ
mTkbWFp9zutvzHiPpuc0LBnjpYfH4YMJJrkUQ3r18F5JUYKGTogo9SByQOLo3MN0
TotPU2j3i1EBWoSYzlv8NLSkuzpyumAklvdEnqqRhAaS+qL2Gzh6A0F+2ntBqkP2
pP7gM0WtF0T2oVgEINMss72Tx2Up3jULZTK7JElUc/3ldsOX9Us2NxGV7iFHMft/
Qvw/LyPHk6D6L4icSNvxkvunNpUyuhOzcewyfBgvSJxygOANr2N2u0hiJ3Vrazcs
swIDAQABo4IBYzCCAV8wCQYDVR0TBAIwADAtBglghkgBhvhCAQ0EIBYeRWFzeS1S
U0EgR2VuZXJhdGVkIENlcnRpZmljYXRlMB0GA1UdDgQWBBQs/ayyf8dcqm9wpWod
5p2kFFINTDCB4QYDVR0jBIHZMIHWgBQSzWAE0qCAnnDtxpm4eyzGUv0ZoaGBsqSB
rzCBrDELMAkGA1UEBhMCVVMxCzAJBgNVBAgTAk9IMREwDwYDVQQHEwhDb2x1bWJ1
czESMBAGA1UEChMJVmlraW5nVlBOMR0wGwYDVQQLExRNeU9yZ2FuaXphdGlvbmFs
VW5pdDEVMBMGA1UEAxMMVmlraW5nVlBOIENBMRAwDgYDVQQpEwdFYXN5UlNBMSEw
HwYJKoZIhvcNAQkBFhJtZUBteWhvc3QubXlkb21haW6CCQDPNYXugL8qPjATBgNV
HSUEDDAKBggrBgEFBQcDAjALBgNVHQ8EBAMCB4AwDQYJKoZIhvcNAQELBQADggIB
AEfWRdXhHUh/KgxM+u8iJDTtV7svr8wXmgCMIa3Dt58OLmS8yaqAoDK/+EfpJets
/JJTbYCOkluky2qwYJst1CRn123fsaqeuhH2T5JJgcReyECrXd1Rq20jXZgIW/mT
DFj6y0DVz8KSTtbAaac87/7nOj0M02lxCKq0r6eQmKwcjnIxFJlwfTdvrU/SLI/G
ScuUfbATlVxIY5JPTPIBWZBYYMpCSjxNh420ucLk1GxRBTNu7608V1W3DavgRXU0
CWUDgnMSNNBZWqmHzSOWnAc4dVdyMFdw4H9aOyqcBSeKkIFQIb3cQbjPrWrTHIAG
jZS+ISspzEeRiCAAkHVyVsIytjA0Z3h84TwoGL5otHl+XCh8WtM6Se0CVh8Gtdeq
0hsEb9VJG6KbwREmHhLF1L90FCdOqrPVf4L0lJ1CrMDn61UIgf1QDwjoquqGoX2W
+JPjlBD8y/GTSIGP8CP9FGxIU/7ONmF8JFHE+FVH6ehMmsA8WVtKLkVFqCt5xVED
4hYzL7qrFv/YZYrScONKfooAla62dv10VDL5G20kZHPF6BNIysYuzIm5XwcIE1Yl
50Zrpcd6KJR6CyWq24my/xy8jrwpYlrEXqrW+4tZGS6ghBjzRxPUbddiZdIpAlyo
EVuaD8+P4lNn+r+wlFVfqzjAlrvoJeK55p/4YbLiLR/O
-----END CERTIFICATE-----
