Certificate:
    Data:
        Version: 3 (0x2)
        Serial Number: 12650 (0x316a)
    Signature Algorithm: sha256WithRSAEncryption
        Issuer: C=US, ST=OH, L=Columbus, O=VikingVPN, OU=MyOrganizationalUnit, CN=VikingVPN CA/name=EasyRSA/emailAddress=me@myhost.mydomain
        Validity
            Not Before: Mar  1 22:01:42 2018 GMT
            Not After : Feb 27 22:01:42 2028 GMT
        Subject: CN=Client3242Certb4128a
        Subject Public Key Info:
            Public Key Algorithm: rsaEncryption
                Public-Key: (4096 bit)
                Modulus:
                    00:b3:a0:80:76:7d:bb:a7:a0:78:96:15:ac:1f:dc:
                    08:62:03:34:dd:c7:82:66:fe:ab:d3:7f:60:a7:18:
                    c5:b9:b7:25:82:65:95:e3:49:3b:23:f1:01:96:96:
                    86:7d:29:f4:86:fe:c5:71:ae:84:64:5a:b2:45:e2:
                    52:25:3b:8c:89:cf:94:dc:f7:cd:fb:fb:a8:28:41:
                    7d:56:f4:0a:e3:c1:70:ca:da:06:3a:a5:af:1d:8d:
                    1a:57:21:bb:31:41:b1:1d:89:9b:5e:0a:50:fc:bd:
                    9a:7a:78:f7:a4:97:e5:5b:98:62:43:aa:5b:27:6c:
                    b0:d9:73:b4:a5:7d:f9:4a:65:8c:ef:af:43:4d:65:
                    ad:9a:45:37:c9:19:e4:e6:c4:3b:6b:ca:23:6b:3f:
                    45:3c:89:83:65:b0:45:87:35:7e:98:9b:42:75:75:
                    ca:e3:5a:0f:91:6b:63:5d:a3:1d:a9:c3:04:a3:36:
                    0d:76:3f:9f:0e:cd:97:f8:f3:66:06:ca:73:e4:ce:
                    f3:b5:d0:5e:04:70:4b:76:de:a6:b4:d5:c3:61:97:
                    01:4b:79:31:3f:8e:4a:92:9f:10:40:c9:bf:f3:9d:
                    10:d4:ee:84:01:37:59:10:9b:20:e2:66:d7:75:e3:
                    d8:16:7a:60:cb:c8:d3:fb:9f:d2:28:93:8b:74:f1:
                    f3:eb:db:ec:0a:cf:83:3e:8a:a1:8c:c8:d3:16:c3:
                    83:12:84:c0:c8:ac:55:fe:25:55:16:51:bb:a1:e4:
                    c8:61:3e:86:a7:3f:d4:d2:17:52:1f:50:5d:96:38:
                    e4:38:6f:a4:81:35:e6:50:c3:54:90:3f:91:02:c2:
                    b7:15:27:8d:c5:5f:9e:a6:06:44:19:7b:76:ef:9f:
                    72:db:b8:57:f0:c2:71:e8:ae:41:d9:c3:fa:9b:6c:
                    a6:a2:1d:85:48:83:40:6e:49:e8:b8:b2:cb:98:ee:
                    82:55:12:62:39:fd:be:d8:05:b6:c6:58:6d:1e:ec:
                    0e:c7:41:a0:71:9f:7c:15:f4:d1:fa:84:75:81:0d:
                    a6:52:ce:2c:96:e4:9e:69:85:02:d3:8e:9b:c3:66:
                    c9:aa:2b:51:c1:75:15:61:74:02:8f:ad:0c:ec:3c:
                    72:23:05:f9:ff:b7:2a:3d:f4:9c:21:2e:83:fe:ce:
                    ad:fa:66:90:6d:74:9c:51:13:f0:47:25:0b:a0:9f:
                    7c:aa:61:9e:09:73:be:e7:62:27:a1:f4:6a:04:5a:
                    44:d3:6c:42:98:d2:53:a7:0e:35:a9:50:12:52:23:
                    a5:f2:ff:32:ba:65:83:ef:2a:06:90:95:c3:e5:b1:
                    ec:5d:05:28:ee:6e:05:50:a5:a0:0c:b6:07:55:e8:
                    8e:6b:4f
                Exponent: 65537 (0x10001)
        X509v3 extensions:
            X509v3 Basic Constraints: 
                CA:FALSE
            Netscape Comment: 
                Easy-RSA Generated Certificate
            X509v3 Subject Key Identifier: 
                A4:FC:AF:9E:6F:EE:78:E5:B4:AF:D9:EC:40:C5:3B:98:77:CE:86:68
            X509v3 Authority Key Identifier: 
                keyid:12:CD:60:04:D2:A0:80:9E:70:ED:C6:99:B8:7B:2C:C6:52:FD:19:A1
                DirName:/C=US/ST=OH/L=Columbus/O=VikingVPN/OU=MyOrganizationalUnit/CN=VikingVPN CA/name=EasyRSA/emailAddress=me@myhost.mydomain
                serial:CF:35:85:EE:80:BF:2A:3E

            X509v3 Extended Key Usage: 
                TLS Web Client Authentication
            X509v3 Key Usage: 
                Digital Signature
    Signature Algorithm: sha256WithRSAEncryption
         98:6a:c2:bd:94:37:e1:94:89:24:4c:48:6f:3a:74:b8:c7:ae:
         3e:db:38:75:a5:77:57:03:1e:43:56:31:fb:41:a9:75:5a:aa:
         d8:49:a5:fd:de:f1:03:f6:2a:bc:16:15:d5:3f:8d:99:55:76:
         04:d6:e5:6d:0f:d4:ab:eb:8a:3e:15:a8:f2:26:9d:47:02:14:
         d5:94:d3:39:61:60:cf:39:cc:71:df:5c:a1:2d:29:7d:84:04:
         c1:eb:95:e2:ef:fc:e6:50:79:4a:db:3c:05:72:07:03:c7:44:
         05:96:3a:df:34:76:32:1b:f0:65:e3:46:e0:11:21:00:63:8e:
         48:ad:7e:10:eb:4e:19:58:43:89:12:45:7c:63:83:4e:fb:e2:
         f0:b8:f6:64:52:4f:29:09:10:7e:de:d9:dd:c7:96:43:7f:54:
         98:08:1a:37:6b:38:26:34:fa:2c:a7:57:93:a0:0b:22:69:3e:
         a2:2d:20:8b:c0:90:c3:11:cd:39:50:64:3b:28:0f:75:03:37:
         c3:09:8d:7d:ea:ce:52:5c:18:17:2d:21:9d:6d:3f:8f:93:81:
         3c:25:af:6f:86:d4:0a:80:41:be:bd:14:7b:d8:79:ae:57:64:
         a5:aa:fd:8a:c4:1b:a2:e0:f5:e8:50:da:a6:cc:a9:be:6d:52:
         ee:86:84:62:86:7f:68:27:81:21:6b:80:58:b2:d7:ab:95:d7:
         a0:88:e7:f0:7f:49:e7:c2:a8:e6:9e:77:43:88:17:f5:d9:31:
         1d:e5:7c:11:3b:6c:0e:ab:9e:d8:e9:e1:cd:d6:95:60:63:92:
         3b:7f:cf:cf:48:39:c0:34:90:c8:52:96:71:6a:94:9f:e8:41:
         42:2f:39:8c:89:7f:53:6f:d6:9b:f1:a6:ea:cf:9d:56:5f:90:
         02:26:8f:dd:06:45:4d:fe:77:2f:07:c7:ea:32:a7:cf:fa:1e:
         a9:31:70:bb:67:28:3d:08:44:54:a9:88:db:8b:ca:87:4d:d3:
         62:72:8f:68:d8:39:19:39:ef:3b:28:3f:42:63:60:f0:64:81:
         fb:d6:53:e6:6e:3a:6d:7b:a3:58:ef:77:0c:f9:6e:0e:23:db:
         d9:3b:16:2a:03:d8:48:e9:fd:5c:1a:99:93:ba:66:3e:9f:97:
         e2:49:b7:fe:0f:21:ec:cf:65:51:81:25:b0:e6:97:9c:c2:c1:
         98:b9:02:07:a9:20:2d:e8:60:85:c9:33:e6:a7:70:29:41:c0:
         5b:e3:fd:6c:6e:4d:ad:4b:a7:94:2f:f1:4e:85:8f:4a:0d:a2:
         04:1f:ad:b1:22:30:2e:4c:8f:ec:b8:74:81:c9:5d:f2:32:1e:
         8d:7d:b6:2a:c9:d1:d9:a7
-----BEGIN CERTIFICATE-----
MIIGrTCCBJWgAwIBAgICMWowDQYJKoZIhvcNAQELBQAwgawxCzAJBgNVBAYTAlVT
MQswCQYDVQQIEwJPSDERMA8GA1UEBxMIQ29sdW1idXMxEjAQBgNVBAoTCVZpa2lu
Z1ZQTjEdMBsGA1UECxMUTXlPcmdhbml6YXRpb25hbFVuaXQxFTATBgNVBAMTDFZp
a2luZ1ZQTiBDQTEQMA4GA1UEKRMHRWFzeVJTQTEhMB8GCSqGSIb3DQEJARYSbWVA
bXlob3N0Lm15ZG9tYWluMB4XDTE4MDMwMTIyMDE0MloXDTI4MDIyNzIyMDE0Mlow
HzEdMBsGA1UEAxMUQ2xpZW50MzI0MkNlcnRiNDEyOGEwggIiMA0GCSqGSIb3DQEB
AQUAA4ICDwAwggIKAoICAQCzoIB2fbunoHiWFawf3AhiAzTdx4Jm/qvTf2CnGMW5
tyWCZZXjSTsj8QGWloZ9KfSG/sVxroRkWrJF4lIlO4yJz5Tc9837+6goQX1W9Arj
wXDK2gY6pa8djRpXIbsxQbEdiZteClD8vZp6ePekl+VbmGJDqlsnbLDZc7SlfflK
ZYzvr0NNZa2aRTfJGeTmxDtryiNrP0U8iYNlsEWHNX6Ym0J1dcrjWg+Ra2Ndox2p
wwSjNg12P58OzZf482YGynPkzvO10F4EcEt23qa01cNhlwFLeTE/jkqSnxBAyb/z
nRDU7oQBN1kQmyDiZtd149gWemDLyNP7n9Iok4t08fPr2+wKz4M+iqGMyNMWw4MS
hMDIrFX+JVUWUbuh5MhhPoanP9TSF1IfUF2WOOQ4b6SBNeZQw1SQP5ECwrcVJ43F
X56mBkQZe3bvn3LbuFfwwnHorkHZw/qbbKaiHYVIg0BuSei4ssuY7oJVEmI5/b7Y
BbbGWG0e7A7HQaBxn3wV9NH6hHWBDaZSziyW5J5phQLTjpvDZsmqK1HBdRVhdAKP
rQzsPHIjBfn/tyo99JwhLoP+zq36ZpBtdJxRE/BHJQugn3yqYZ4Jc77nYieh9GoE
WkTTbEKY0lOnDjWpUBJSI6Xy/zK6ZYPvKgaQlcPlsexdBSjubgVQpaAMtgdV6I5r
TwIDAQABo4IBYzCCAV8wCQYDVR0TBAIwADAtBglghkgBhvhCAQ0EIBYeRWFzeS1S
U0EgR2VuZXJhdGVkIENlcnRpZmljYXRlMB0GA1UdDgQWBBSk/K+eb+545bSv2exA
xTuYd86GaDCB4QYDVR0jBIHZMIHWgBQSzWAE0qCAnnDtxpm4eyzGUv0ZoaGBsqSB
rzCBrDELMAkGA1UEBhMCVVMxCzAJBgNVBAgTAk9IMREwDwYDVQQHEwhDb2x1bWJ1
czESMBAGA1UEChMJVmlraW5nVlBOMR0wGwYDVQQLExRNeU9yZ2FuaXphdGlvbmFs
VW5pdDEVMBMGA1UEAxMMVmlraW5nVlBOIENBMRAwDgYDVQQpEwdFYXN5UlNBMSEw
HwYJKoZIhvcNAQkBFhJtZUBteWhvc3QubXlkb21haW6CCQDPNYXugL8qPjATBgNV
HSUEDDAKBggrBgEFBQcDAjALBgNVHQ8EBAMCB4AwDQYJKoZIhvcNAQELBQADggIB
AJhqwr2UN+GUiSRMSG86dLjHrj7bOHWld1cDHkNWMftBqXVaqthJpf3e8QP2KrwW
FdU/jZlVdgTW5W0P1Kvrij4VqPImnUcCFNWU0zlhYM85zHHfXKEtKX2EBMHrleLv
/OZQeUrbPAVyBwPHRAWWOt80djIb8GXjRuARIQBjjkitfhDrThlYQ4kSRXxjg077
4vC49mRSTykJEH7e2d3HlkN/VJgIGjdrOCY0+iynV5OgCyJpPqItIIvAkMMRzTlQ
ZDsoD3UDN8MJjX3qzlJcGBctIZ1tP4+TgTwlr2+G1AqAQb69FHvYea5XZKWq/YrE
G6Lg9ehQ2qbMqb5tUu6GhGKGf2gngSFrgFiy16uV16CI5/B/SefCqOaed0OIF/XZ
MR3lfBE7bA6rntjp4c3WlWBjkjt/z89IOcA0kMhSlnFqlJ/oQUIvOYyJf1Nv1pvx
purPnVZfkAImj90GRU3+dy8Hx+oyp8/6HqkxcLtnKD0IRFSpiNuLyodN02Jyj2jY
ORk57zsoP0JjYPBkgfvWU+ZuOm17o1jvdwz5bg4j29k7FioD2Ejp/VwamZO6Zj6f
l+JJt/4PIezPZVGBJbDml5zCwZi5AgepIC3oYIXJM+ancClBwFvj/WxuTa1Lp5Qv
8U6Fj0oNogQfrbEiMC5Mj+y4dIHJXfIyHo19tirJ0dmn
-----END CERTIFICATE-----
