Certificate:
    Data:
        Version: 3 (0x2)
        Serial Number: 12659 (0x3173)
    Signature Algorithm: sha256WithRSAEncryption
        Issuer: C=US, ST=OH, L=Columbus, O=VikingVPN, OU=MyOrganizationalUnit, CN=VikingVPN CA/name=EasyRSA/emailAddress=me@myhost.mydomain
        Validity
            Not Before: Mar  2 22:49:56 2018 GMT
            Not After : Feb 28 22:49:56 2028 GMT
        Subject: CN=Client3243Cert9c14e8
        Subject Public Key Info:
            Public Key Algorithm: rsaEncryption
                Public-Key: (4096 bit)
                Modulus:
                    00:a5:10:bf:dc:94:1f:a1:a7:ba:d2:2f:42:2e:07:
                    fb:13:f0:fd:e7:09:64:29:b0:80:7c:00:c2:5d:b0:
                    87:72:ae:ab:e4:df:25:0f:8e:11:9e:7a:47:4c:9e:
                    46:96:7b:80:0e:97:04:88:ce:0b:37:1e:c5:3c:a0:
                    7d:df:b0:bf:80:50:06:d9:27:75:7d:b1:16:d9:d6:
                    a8:8c:46:31:26:9b:21:91:48:26:19:97:9f:f0:23:
                    99:d8:fc:d7:ab:97:11:17:f8:c5:48:f2:54:59:6c:
                    84:b2:d6:b7:8b:4d:f8:a6:47:4b:81:07:d0:4b:a6:
                    7d:47:9f:67:df:6c:81:07:f9:40:11:9b:53:ed:1c:
                    5a:81:82:e7:2c:e3:1a:48:28:33:1c:f2:cf:c4:6d:
                    fb:a9:2c:e1:12:0c:ac:23:d7:7e:0d:18:3a:bb:ac:
                    5d:8d:bf:6b:b9:5b:bc:34:34:8d:1f:5f:96:98:8c:
                    c6:79:21:95:ce:5f:9d:19:d7:8a:94:40:11:3b:9e:
                    82:6e:6b:e9:2e:67:b7:ab:a8:42:36:06:da:c8:d1:
                    1f:84:f8:97:e0:95:d3:83:8a:4c:f0:01:0e:e6:04:
                    d7:ee:2d:a9:c8:8c:7a:5c:fc:9c:44:e6:49:3c:af:
                    f6:8c:dd:5e:98:ea:fe:7d:44:9d:65:0b:6d:d6:8d:
                    a8:11:b9:d9:23:8e:41:79:80:8f:58:65:f8:2d:51:
                    fd:99:58:4d:9f:7d:36:cb:c6:d2:9b:2a:3b:ff:bf:
                    4a:d2:53:79:b7:f8:86:a9:2e:8b:c3:c2:b1:af:79:
                    b6:95:be:c8:c5:5b:cb:6d:b4:59:4c:43:57:91:12:
                    f8:d7:55:28:c5:39:1a:c1:7e:d0:4f:cc:d8:eb:4a:
                    b9:86:13:95:7f:19:65:f4:a2:0d:76:e9:02:d6:87:
                    c6:07:fe:8f:52:b3:1d:b7:b3:5a:8b:b3:47:f6:81:
                    e5:80:e5:c6:ce:f1:44:a2:6c:a7:53:30:7c:6d:a7:
                    4a:f8:1f:82:5b:c3:80:ba:10:fc:db:a2:bb:d3:1b:
                    43:45:58:03:1c:f2:85:64:71:d7:72:ee:3d:44:6e:
                    a9:f0:59:98:49:5b:e8:dc:e4:7d:1d:ef:63:ec:0a:
                    e8:55:b6:88:d4:e4:61:66:f0:0e:5f:07:3e:5f:6c:
                    b3:19:0e:44:4f:51:bd:aa:ba:6d:57:2e:20:f8:86:
                    78:42:06:61:29:62:1f:8c:0e:1e:75:00:3e:66:5f:
                    68:eb:25:5a:e7:1b:76:9e:07:f0:a0:a1:68:f4:05:
                    8f:b0:08:f6:6d:eb:d8:0b:9c:9b:a4:47:00:62:4b:
                    20:6e:f2:72:ae:39:5e:b7:8c:b1:e8:72:19:8a:79:
                    4a:94:43
                Exponent: 65537 (0x10001)
        X509v3 extensions:
            X509v3 Basic Constraints: 
                CA:FALSE
            Netscape Comment: 
                Easy-RSA Generated Certificate
            X509v3 Subject Key Identifier: 
                AD:E6:E1:88:EB:E7:05:69:C5:02:CE:32:8F:D8:2C:B4:1A:2E:86:28
            X509v3 Authority Key Identifier: 
                keyid:12:CD:60:04:D2:A0:80:9E:70:ED:C6:99:B8:7B:2C:C6:52:FD:19:A1
                DirName:/C=US/ST=OH/L=Columbus/O=VikingVPN/OU=MyOrganizationalUnit/CN=VikingVPN CA/name=EasyRSA/emailAddress=me@myhost.mydomain
                serial:CF:35:85:EE:80:BF:2A:3E

            X509v3 Extended Key Usage: 
                TLS Web Client Authentication
            X509v3 Key Usage: 
                Digital Signature
    Signature Algorithm: sha256WithRSAEncryption
         70:ed:c3:e3:53:c8:d7:30:d6:a0:1d:1c:d6:d9:7b:1e:b8:33:
         c4:88:7a:26:53:41:ee:bc:2a:3c:c5:20:49:11:af:77:d7:f4:
         b9:b4:2d:4c:f0:65:b4:96:46:11:b6:73:84:6d:9f:b2:19:5a:
         16:25:3b:9c:20:0a:43:05:b3:f1:73:0b:72:56:52:63:02:4a:
         89:fc:8f:f3:29:7a:0a:bf:a3:6f:67:33:7e:55:78:ff:35:ba:
         6f:cd:04:2d:09:65:80:6e:90:53:5b:17:b7:e3:c7:f5:24:86:
         4a:1c:d4:62:c2:06:4f:3a:67:e3:a5:f1:aa:1f:c8:32:86:8b:
         e6:e8:01:1a:e3:b7:a5:2c:c7:21:b8:0a:22:bb:70:6f:eb:c5:
         c7:88:55:93:3d:c8:22:49:41:a6:a6:ad:f2:4f:6a:a6:83:77:
         c7:72:c7:d4:29:d3:7c:d2:8e:fe:41:e1:5e:98:d4:15:94:8d:
         50:fd:7b:28:b8:0c:3f:b6:e7:55:12:77:77:cb:de:03:6e:0c:
         b5:14:df:06:ad:78:09:8e:06:35:5f:2e:32:8f:f6:eb:25:65:
         1a:73:d4:e2:18:1a:18:00:88:db:04:f5:fc:0f:6f:9f:ef:ef:
         e3:c0:e3:e8:13:8d:3a:07:68:42:5f:c9:00:90:74:67:c7:de:
         1e:e9:d8:e8:e1:0e:d1:18:6a:c1:20:42:e4:a3:f9:34:73:87:
         2e:45:92:1e:34:ab:e0:d6:ab:fc:0d:89:d8:d7:ac:41:66:94:
         5c:25:6e:2a:51:d7:f5:e3:c6:e8:3e:12:ca:42:55:da:97:0b:
         1e:56:1e:a8:a4:60:67:04:f5:0e:cd:f5:33:ae:34:d8:12:0b:
         c7:39:03:2a:15:ad:73:7e:53:30:0d:15:02:d2:9d:d9:9d:82:
         0f:53:6d:b6:dd:28:2f:13:6a:bc:bc:f5:53:90:11:91:15:a9:
         d9:b0:15:97:85:e2:6b:af:43:9f:82:6a:d2:6a:d5:98:32:04:
         24:20:4a:f2:17:f3:f9:b0:0a:c6:65:02:85:d7:fc:fa:dc:fe:
         55:4f:6b:0b:3e:89:18:38:45:9b:00:6d:eb:a8:97:57:79:1b:
         35:e5:46:36:62:9a:97:ba:0b:9d:86:ef:33:9d:a2:b2:ef:35:
         61:cc:df:45:fb:c8:b9:94:21:2b:b9:58:5d:8a:e8:6a:fd:20:
         f9:8b:f0:13:fd:04:dc:f3:99:d1:bb:96:39:ce:01:5a:f1:3e:
         87:ad:ab:13:a1:8c:58:82:67:37:df:70:c9:46:02:ee:32:14:
         01:88:65:23:a1:d4:bf:a6:16:a9:86:f9:c7:c2:71:95:1e:0d:
         8b:5d:13:04:cd:ab:10:5c
-----BEGIN CERTIFICATE-----
MIIGrTCCBJWgAwIBAgICMXMwDQYJKoZIhvcNAQELBQAwgawxCzAJBgNVBAYTAlVT
MQswCQYDVQQIEwJPSDERMA8GA1UEBxMIQ29sdW1idXMxEjAQBgNVBAoTCVZpa2lu
Z1ZQTjEdMBsGA1UECxMUTXlPcmdhbml6YXRpb25hbFVuaXQxFTATBgNVBAMTDFZp
a2luZ1ZQTiBDQTEQMA4GA1UEKRMHRWFzeVJTQTEhMB8GCSqGSIb3DQEJARYSbWVA
bXlob3N0Lm15ZG9tYWluMB4XDTE4MDMwMjIyNDk1NloXDTI4MDIyODIyNDk1Nlow
HzEdMBsGA1UEAxMUQ2xpZW50MzI0M0NlcnQ5YzE0ZTgwggIiMA0GCSqGSIb3DQEB
AQUAA4ICDwAwggIKAoICAQClEL/clB+hp7rSL0IuB/sT8P3nCWQpsIB8AMJdsIdy
rqvk3yUPjhGeekdMnkaWe4AOlwSIzgs3HsU8oH3fsL+AUAbZJ3V9sRbZ1qiMRjEm
myGRSCYZl5/wI5nY/NerlxEX+MVI8lRZbISy1reLTfimR0uBB9BLpn1Hn2ffbIEH
+UARm1PtHFqBgucs4xpIKDMc8s/EbfupLOESDKwj134NGDq7rF2Nv2u5W7w0NI0f
X5aYjMZ5IZXOX50Z14qUQBE7noJua+kuZ7erqEI2BtrI0R+E+JfgldODikzwAQ7m
BNfuLanIjHpc/JxE5kk8r/aM3V6Y6v59RJ1lC23WjagRudkjjkF5gI9YZfgtUf2Z
WE2ffTbLxtKbKjv/v0rSU3m3+IapLovDwrGvebaVvsjFW8tttFlMQ1eREvjXVSjF
ORrBftBPzNjrSrmGE5V/GWX0og126QLWh8YH/o9Ssx23s1qLs0f2geWA5cbO8USi
bKdTMHxtp0r4H4Jbw4C6EPzborvTG0NFWAMc8oVkcddy7j1EbqnwWZhJW+jc5H0d
72PsCuhVtojU5GFm8A5fBz5fbLMZDkRPUb2qum1XLiD4hnhCBmEpYh+MDh51AD5m
X2jrJVrnG3aeB/CgoWj0BY+wCPZt69gLnJukRwBiSyBu8nKuOV63jLHochmKeUqU
QwIDAQABo4IBYzCCAV8wCQYDVR0TBAIwADAtBglghkgBhvhCAQ0EIBYeRWFzeS1S
U0EgR2VuZXJhdGVkIENlcnRpZmljYXRlMB0GA1UdDgQWBBSt5uGI6+cFacUCzjKP
2Cy0Gi6GKDCB4QYDVR0jBIHZMIHWgBQSzWAE0qCAnnDtxpm4eyzGUv0ZoaGBsqSB
rzCBrDELMAkGA1UEBhMCVVMxCzAJBgNVBAgTAk9IMREwDwYDVQQHEwhDb2x1bWJ1
czESMBAGA1UEChMJVmlraW5nVlBOMR0wGwYDVQQLExRNeU9yZ2FuaXphdGlvbmFs
VW5pdDEVMBMGA1UEAxMMVmlraW5nVlBOIENBMRAwDgYDVQQpEwdFYXN5UlNBMSEw
HwYJKoZIhvcNAQkBFhJtZUBteWhvc3QubXlkb21haW6CCQDPNYXugL8qPjATBgNV
HSUEDDAKBggrBgEFBQcDAjALBgNVHQ8EBAMCB4AwDQYJKoZIhvcNAQELBQADggIB
AHDtw+NTyNcw1qAdHNbZex64M8SIeiZTQe68KjzFIEkRr3fX9Lm0LUzwZbSWRhG2
c4Rtn7IZWhYlO5wgCkMFs/FzC3JWUmMCSon8j/Mpegq/o29nM35VeP81um/NBC0J
ZYBukFNbF7fjx/Ukhkoc1GLCBk86Z+Ol8aofyDKGi+boARrjt6UsxyG4CiK7cG/r
xceIVZM9yCJJQaamrfJPaqaDd8dyx9Qp03zSjv5B4V6Y1BWUjVD9eyi4DD+251US
d3fL3gNuDLUU3wateAmOBjVfLjKP9uslZRpz1OIYGhgAiNsE9fwPb5/v7+PA4+gT
jToHaEJfyQCQdGfH3h7p2OjhDtEYasEgQuSj+TRzhy5Fkh40q+DWq/wNidjXrEFm
lFwlbipR1/Xjxug+EspCVdqXCx5WHqikYGcE9Q7N9TOuNNgSC8c5AyoVrXN+UzAN
FQLSndmdgg9TbbbdKC8Tary89VOQEZEVqdmwFZeF4muvQ5+CatJq1ZgyBCQgSvIX
8/mwCsZlAoXX/Prc/lVPaws+iRg4RZsAbeuol1d5GzXlRjZimpe6C52G7zOdorLv
NWHM30X7yLmUISu5WF2K6Gr9IPmL8BP9BNzzmdG7ljnOAVrxPoetqxOhjFiCZzff
cMlGAu4yFAGIZSOh1L+mFqmG+cfCcZUeDYtdEwTNqxBc
-----END CERTIFICATE-----
