Certificate:
    Data:
        Version: 3 (0x2)
        Serial Number: 12682 (0x318a)
    Signature Algorithm: sha256WithRSAEncryption
        Issuer: C=US, ST=OH, L=Columbus, O=VikingVPN, OU=MyOrganizationalUnit, CN=VikingVPN CA/name=EasyRSA/emailAddress=me@myhost.mydomain
        Validity
            Not Before: Mar  3 23:46:50 2018 GMT
            Not After : Feb 29 23:46:50 2028 GMT
        Subject: CN=Client2579Certa8c7e9
        Subject Public Key Info:
            Public Key Algorithm: rsaEncryption
                Public-Key: (4096 bit)
                Modulus:
                    00:da:46:c3:3b:ad:5e:ec:e5:40:6a:cc:18:0c:3a:
                    ed:d5:15:a6:88:a1:74:ab:ee:a9:e5:f0:8f:20:41:
                    30:01:20:6e:d8:27:d3:5b:28:d3:28:fd:45:54:4a:
                    de:45:b4:3f:04:0b:ce:c0:6f:46:7e:b0:a0:f9:1f:
                    4c:86:f0:60:9e:23:f5:84:9a:46:67:4c:bb:98:e8:
                    2a:1a:c9:49:cc:6b:eb:ef:08:50:13:fb:15:5e:4f:
                    1b:a8:1a:a1:f1:ac:29:fb:32:c1:1d:4e:be:63:b3:
                    fa:d1:81:6f:6d:74:1d:9f:3c:03:f3:a5:01:01:c4:
                    b2:1d:b7:b0:da:64:7d:76:28:df:29:36:f4:e2:99:
                    66:8d:e9:91:fc:4c:d6:8f:31:9d:0c:ce:93:f1:fc:
                    de:32:b1:a2:91:91:54:c5:ba:42:7f:dd:a1:85:8d:
                    57:16:89:6d:da:ee:ac:ea:5d:f9:8a:78:13:5b:a3:
                    65:b2:b5:79:00:fb:7b:3d:b9:13:f0:a4:2c:26:55:
                    95:6a:b1:0d:2f:2c:a1:e3:7d:5b:e2:3c:42:15:7e:
                    e2:28:0d:b8:82:31:c6:71:76:15:63:75:3d:77:1b:
                    f6:92:37:b8:19:04:f1:4c:2b:c6:a8:48:ac:aa:75:
                    d7:c4:b6:d6:9f:22:5f:6c:ec:f2:d5:a1:09:0d:0c:
                    0d:32:f9:ad:7e:b1:e3:5a:ee:a1:f4:1f:c4:81:30:
                    da:9f:15:67:ac:45:af:fa:52:30:71:9d:ea:e0:6f:
                    34:74:67:34:37:53:73:02:1b:01:ab:ee:6a:44:c1:
                    cb:06:f6:5c:bb:dc:fd:eb:07:b3:43:5e:da:d7:ff:
                    1f:32:b4:55:56:d7:c0:3b:bb:ea:24:de:54:8d:ba:
                    0b:b2:c0:84:7c:d7:f8:01:ae:5d:40:7b:63:02:38:
                    82:bf:93:19:d6:e5:e3:67:01:23:7f:9d:26:7a:f9:
                    2e:03:23:a2:80:fb:b5:92:02:5b:81:e9:74:3f:79:
                    1c:20:69:a4:fe:56:d7:22:f5:51:52:74:04:7d:55:
                    02:d6:37:2f:91:fb:72:a0:26:8e:1c:ab:34:56:24:
                    d8:09:73:94:8e:df:22:dd:76:bd:9a:87:68:2d:48:
                    e9:aa:79:9a:48:fe:29:cc:89:01:25:dc:de:e3:70:
                    e5:62:75:e5:23:78:5d:bd:59:60:b7:6d:b8:48:0d:
                    4c:c7:10:d1:b9:b7:c2:f6:b8:9d:5e:68:db:d6:0e:
                    21:f5:6b:12:0b:33:2a:e6:b3:bc:b4:84:ac:eb:10:
                    9e:59:69:7a:40:73:ce:eb:b6:44:64:c8:9d:9e:34:
                    e1:1b:64:c5:e2:82:ef:2f:07:b2:bd:a0:a4:ab:1b:
                    d5:0d:51
                Exponent: 65537 (0x10001)
        X509v3 extensions:
            X509v3 Basic Constraints: 
                CA:FALSE
            Netscape Comment: 
                Easy-RSA Generated Certificate
            X509v3 Subject Key Identifier: 
                F4:F7:CC:3D:29:1E:1D:67:94:C8:EB:62:97:32:95:9F:75:BD:E7:4F
            X509v3 Authority Key Identifier: 
                keyid:12:CD:60:04:D2:A0:80:9E:70:ED:C6:99:B8:7B:2C:C6:52:FD:19:A1
                DirName:/C=US/ST=OH/L=Columbus/O=VikingVPN/OU=MyOrganizationalUnit/CN=VikingVPN CA/name=EasyRSA/emailAddress=me@myhost.mydomain
                serial:CF:35:85:EE:80:BF:2A:3E

            X509v3 Extended Key Usage: 
                TLS Web Client Authentication
            X509v3 Key Usage: 
                Digital Signature
    Signature Algorithm: sha256WithRSAEncryption
         4d:53:e3:3d:cb:e8:5f:a8:50:3d:84:51:ee:88:ce:57:37:ba:
         44:c6:91:1b:6e:0b:30:cd:d8:6f:9d:f9:22:d1:d8:bf:b7:a6:
         6b:08:39:55:63:e5:4c:73:18:16:9d:0f:15:28:1c:88:58:72:
         d8:c8:45:31:27:a1:22:82:3c:9c:3b:63:9d:0c:32:12:e3:5b:
         bf:ec:ca:be:62:35:da:fa:14:d4:52:d1:bb:fe:17:0c:54:82:
         fc:06:ee:ed:bd:74:3c:64:f9:ac:c2:14:f0:0d:cb:2c:4a:23:
         af:4d:e8:a3:9b:d3:46:98:fa:85:48:4c:b3:c4:88:e2:b8:b5:
         bc:7b:77:76:5b:36:7d:9e:75:2e:a4:18:4d:f4:ba:d3:cf:f0:
         cc:98:da:fb:52:08:5a:6e:f2:00:52:a4:d9:45:87:dc:22:13:
         d1:a2:ac:87:92:7f:f0:8b:80:25:7b:e4:3e:cb:51:b8:a5:57:
         ed:20:99:aa:bc:90:41:06:48:14:ad:67:7f:34:0b:5e:29:bf:
         ea:85:15:72:2f:f1:c9:54:59:ca:d5:7a:9d:83:4d:dc:27:79:
         6c:37:9d:65:4a:12:7c:bf:75:4f:fd:fe:58:1e:56:de:42:98:
         74:7b:d1:47:d3:bf:f7:9e:7e:3f:10:a7:68:c4:f0:66:75:8a:
         03:0d:b6:cf:ba:43:15:fe:db:c9:47:e0:e5:4a:d5:7b:5b:69:
         b7:f2:7a:c9:eb:28:79:db:a2:d1:03:3f:b7:0e:ff:1a:99:e1:
         e9:41:b8:b9:b6:83:25:a1:fb:cf:80:23:d8:6e:df:82:1b:63:
         25:53:33:86:b5:f8:1a:7d:19:b5:f7:b7:01:00:73:3a:40:e8:
         d5:18:7f:22:bf:a4:71:30:6e:24:61:cf:56:f9:9e:a3:99:d0:
         75:ed:6c:5c:34:c6:9f:bb:d9:a1:e1:3d:6a:14:23:26:50:57:
         fa:72:1f:67:02:3d:53:69:e4:96:af:17:2f:5e:e1:3f:03:76:
         04:a0:df:84:2e:16:2c:57:dd:c9:77:ff:b3:c6:cc:bb:a9:d5:
         7b:16:79:25:a0:48:92:3d:c4:0a:09:35:81:7e:df:c2:2a:b8:
         c6:f1:54:5a:b9:ff:ec:21:d5:b3:9e:1d:6f:2f:5a:40:06:36:
         b7:62:c1:96:1e:b8:01:e0:3a:c0:14:7f:22:89:44:c6:19:b6:
         b6:3d:48:c3:77:c9:d1:72:1e:db:2e:ae:68:cd:03:80:17:71:
         6f:2f:2d:11:27:6e:11:8e:a2:c3:de:4e:e8:60:69:cc:df:ca:
         b2:f8:ee:0e:82:32:35:9e:dd:c2:71:09:16:2f:dc:32:42:24:
         e8:ea:da:ff:ab:9b:9a:69
-----BEGIN CERTIFICATE-----
MIIGrTCCBJWgAwIBAgICMYowDQYJKoZIhvcNAQELBQAwgawxCzAJBgNVBAYTAlVT
MQswCQYDVQQIEwJPSDERMA8GA1UEBxMIQ29sdW1idXMxEjAQBgNVBAoTCVZpa2lu
Z1ZQTjEdMBsGA1UECxMUTXlPcmdhbml6YXRpb25hbFVuaXQxFTATBgNVBAMTDFZp
a2luZ1ZQTiBDQTEQMA4GA1UEKRMHRWFzeVJTQTEhMB8GCSqGSIb3DQEJARYSbWVA
bXlob3N0Lm15ZG9tYWluMB4XDTE4MDMwMzIzNDY1MFoXDTI4MDIyOTIzNDY1MFow
HzEdMBsGA1UEAxMUQ2xpZW50MjU3OUNlcnRhOGM3ZTkwggIiMA0GCSqGSIb3DQEB
AQUAA4ICDwAwggIKAoICAQDaRsM7rV7s5UBqzBgMOu3VFaaIoXSr7qnl8I8gQTAB
IG7YJ9NbKNMo/UVUSt5FtD8EC87Ab0Z+sKD5H0yG8GCeI/WEmkZnTLuY6CoayUnM
a+vvCFAT+xVeTxuoGqHxrCn7MsEdTr5js/rRgW9tdB2fPAPzpQEBxLIdt7DaZH12
KN8pNvTimWaN6ZH8TNaPMZ0MzpPx/N4ysaKRkVTFukJ/3aGFjVcWiW3a7qzqXfmK
eBNbo2WytXkA+3s9uRPwpCwmVZVqsQ0vLKHjfVviPEIVfuIoDbiCMcZxdhVjdT13
G/aSN7gZBPFMK8aoSKyqddfEttafIl9s7PLVoQkNDA0y+a1+seNa7qH0H8SBMNqf
FWesRa/6UjBxnergbzR0ZzQ3U3MCGwGr7mpEwcsG9ly73P3rB7NDXtrX/x8ytFVW
18A7u+ok3lSNuguywIR81/gBrl1Ae2MCOIK/kxnW5eNnASN/nSZ6+S4DI6KA+7WS
AluB6XQ/eRwgaaT+Vtci9VFSdAR9VQLWNy+R+3KgJo4cqzRWJNgJc5SO3yLddr2a
h2gtSOmqeZpI/inMiQEl3N7jcOVideUjeF29WWC3bbhIDUzHENG5t8L2uJ1eaNvW
DiH1axILMyrms7y0hKzrEJ5ZaXpAc87rtkRkyJ2eNOEbZMXigu8vB7K9oKSrG9UN
UQIDAQABo4IBYzCCAV8wCQYDVR0TBAIwADAtBglghkgBhvhCAQ0EIBYeRWFzeS1S
U0EgR2VuZXJhdGVkIENlcnRpZmljYXRlMB0GA1UdDgQWBBT098w9KR4dZ5TI62KX
MpWfdb3nTzCB4QYDVR0jBIHZMIHWgBQSzWAE0qCAnnDtxpm4eyzGUv0ZoaGBsqSB
rzCBrDELMAkGA1UEBhMCVVMxCzAJBgNVBAgTAk9IMREwDwYDVQQHEwhDb2x1bWJ1
czESMBAGA1UEChMJVmlraW5nVlBOMR0wGwYDVQQLExRNeU9yZ2FuaXphdGlvbmFs
VW5pdDEVMBMGA1UEAxMMVmlraW5nVlBOIENBMRAwDgYDVQQpEwdFYXN5UlNBMSEw
HwYJKoZIhvcNAQkBFhJtZUBteWhvc3QubXlkb21haW6CCQDPNYXugL8qPjATBgNV
HSUEDDAKBggrBgEFBQcDAjALBgNVHQ8EBAMCB4AwDQYJKoZIhvcNAQELBQADggIB
AE1T4z3L6F+oUD2EUe6Izlc3ukTGkRtuCzDN2G+d+SLR2L+3pmsIOVVj5UxzGBad
DxUoHIhYctjIRTEnoSKCPJw7Y50MMhLjW7/syr5iNdr6FNRS0bv+FwxUgvwG7u29
dDxk+azCFPANyyxKI69N6KOb00aY+oVITLPEiOK4tbx7d3ZbNn2edS6kGE30utPP
8MyY2vtSCFpu8gBSpNlFh9wiE9GirIeSf/CLgCV75D7LUbilV+0gmaq8kEEGSBSt
Z380C14pv+qFFXIv8clUWcrVep2DTdwneWw3nWVKEny/dU/9/lgeVt5CmHR70UfT
v/eefj8Qp2jE8GZ1igMNts+6QxX+28lH4OVK1XtbabfyesnrKHnbotEDP7cO/xqZ
4elBuLm2gyWh+8+AI9hu34IbYyVTM4a1+Bp9GbX3twEAczpA6NUYfyK/pHEwbiRh
z1b5nqOZ0HXtbFw0xp+72aHhPWoUIyZQV/pyH2cCPVNp5JavFy9e4T8DdgSg34Qu
FixX3cl3/7PGzLup1XsWeSWgSJI9xAoJNYF+38IquMbxVFq5/+wh1bOeHW8vWkAG
NrdiwZYeuAHgOsAUfyKJRMYZtrY9SMN3ydFyHtsurmjNA4AXcW8vLREnbhGOosPe
TuhgaczfyrL47g6CMjWe3cJxCRYv3DJCJOjq2v+rm5pp
-----END CERTIFICATE-----
