Certificate:
    Data:
        Version: 3 (0x2)
        Serial Number: 12685 (0x318d)
    Signature Algorithm: sha256WithRSAEncryption
        Issuer: C=US, ST=OH, L=Columbus, O=VikingVPN, OU=MyOrganizationalUnit, CN=VikingVPN CA/name=EasyRSA/emailAddress=me@myhost.mydomain
        Validity
            Not Before: Mar  3 23:47:10 2018 GMT
            Not After : Feb 29 23:47:10 2028 GMT
        Subject: CN=Client2579Cert5bac5e
        Subject Public Key Info:
            Public Key Algorithm: rsaEncryption
                Public-Key: (4096 bit)
                Modulus:
                    00:9b:5c:cb:12:26:8e:fe:32:52:48:4d:86:84:32:
                    ea:5b:34:4a:1f:54:69:68:14:1a:40:ea:85:8d:10:
                    aa:be:3c:a6:f2:67:a9:86:c5:35:ef:5e:5b:75:a3:
                    87:c7:bb:db:51:19:3a:4d:5b:30:8b:34:e1:73:13:
                    94:e3:98:af:5b:f3:02:36:71:e4:56:43:cd:bf:a5:
                    22:91:9b:d3:53:45:9f:b9:07:80:75:b2:f8:56:0f:
                    a3:25:d0:b8:0e:3f:29:8d:7d:86:30:68:84:88:a9:
                    9a:3c:95:63:d0:2f:01:1b:48:96:d2:9f:dc:7c:d4:
                    3f:c5:06:78:02:7e:ba:2f:60:a5:f9:42:01:9f:d7:
                    cf:6f:5b:e1:64:61:e1:6a:cb:f1:05:1d:5e:38:60:
                    9a:23:a4:a8:a6:6f:25:38:7d:a9:d6:e2:a6:06:0f:
                    35:48:3f:8c:39:e4:85:d3:5a:e1:95:ac:74:3b:99:
                    3a:a2:8f:0f:db:ca:e9:b1:5e:5e:64:83:b0:32:db:
                    74:9f:e7:b3:3c:e5:f0:cb:fb:74:f0:45:c6:0a:59:
                    f6:ba:8b:7d:22:a8:28:81:af:d9:5a:93:84:49:e5:
                    91:ed:ee:02:53:82:da:48:0e:ff:8e:09:1e:37:72:
                    08:0d:f6:d7:e5:a5:ea:94:4e:ca:cd:fd:5a:05:a3:
                    1e:bb:dd:0a:c1:54:ee:c8:f8:ef:fe:22:b9:0a:5b:
                    b0:e6:b8:6c:e5:e4:a7:bd:ee:4c:ee:ac:12:cd:63:
                    3b:fc:81:a3:fd:36:34:ba:4d:fb:d4:6d:26:b4:fa:
                    61:c6:12:e9:02:af:bc:a5:33:85:bb:b1:82:54:5c:
                    7b:33:52:ae:62:6d:a0:a7:66:ab:b4:eb:25:85:c6:
                    17:ca:bd:ff:24:64:c5:81:a7:82:70:28:12:61:d2:
                    3e:12:4f:c0:19:d2:c3:f8:30:f4:8c:15:73:6f:3c:
                    f3:0a:75:6e:6c:b7:53:60:3a:66:80:95:9b:25:97:
                    df:bb:4a:19:7b:ad:e4:ca:93:7b:83:57:f9:22:8a:
                    e2:d4:61:b4:ab:a4:93:5d:e2:b6:70:e0:f6:54:bd:
                    5f:f9:df:89:33:ba:e8:60:1a:62:17:5d:42:e7:d7:
                    63:da:d4:21:25:53:4b:76:67:82:93:58:45:84:36:
                    ba:c3:de:b6:02:72:15:83:8d:d8:e1:cd:15:fb:bc:
                    fa:e0:85:c4:df:34:e0:8c:fa:29:ea:81:1a:b3:3d:
                    8b:a9:a2:e0:85:42:3b:d4:a1:95:c5:67:a3:37:6e:
                    ff:bb:3a:8c:0d:b7:25:b1:e0:1a:38:1a:a7:b1:aa:
                    bc:3d:0f:00:a6:b6:fd:0f:39:19:47:c8:7d:72:55:
                    30:90:49
                Exponent: 65537 (0x10001)
        X509v3 extensions:
            X509v3 Basic Constraints: 
                CA:FALSE
            Netscape Comment: 
                Easy-RSA Generated Certificate
            X509v3 Subject Key Identifier: 
                4C:2A:CB:A9:F7:77:C8:5A:7F:2C:1C:44:9A:E3:F7:B6:13:93:AA:18
            X509v3 Authority Key Identifier: 
                keyid:12:CD:60:04:D2:A0:80:9E:70:ED:C6:99:B8:7B:2C:C6:52:FD:19:A1
                DirName:/C=US/ST=OH/L=Columbus/O=VikingVPN/OU=MyOrganizationalUnit/CN=VikingVPN CA/name=EasyRSA/emailAddress=me@myhost.mydomain
                serial:CF:35:85:EE:80:BF:2A:3E

            X509v3 Extended Key Usage: 
                TLS Web Client Authentication
            X509v3 Key Usage: 
                Digital Signature
    Signature Algorithm: sha256WithRSAEncryption
         cd:f0:09:c4:fc:29:66:0c:72:e7:ac:d4:2d:81:48:27:d7:a8:
         6e:02:ed:89:c2:18:75:cd:09:91:e0:65:9d:6f:9b:ba:05:4c:
         77:e5:3b:49:7d:65:58:a7:b2:1c:5a:b3:66:51:c2:69:2e:86:
         e3:e5:58:b0:a4:e1:81:e5:3d:aa:51:13:c8:d1:7b:23:1a:cb:
         90:ef:e0:8c:1a:aa:7d:22:a0:7a:02:51:ed:ed:df:e6:36:3c:
         bf:c0:4e:d8:37:57:f2:ff:82:51:4e:da:3c:f0:22:ae:40:1b:
         d5:25:88:2f:53:f4:83:4b:92:81:35:ff:f3:ae:5a:9f:76:05:
         92:e7:54:9f:7b:60:97:83:98:0b:dd:3b:30:67:16:26:41:b8:
         92:2b:07:e1:ee:52:85:73:89:cc:7e:3d:56:a1:25:cd:31:22:
         bc:25:e0:81:3e:37:21:93:f8:91:0c:36:17:fd:af:36:b4:b3:
         33:17:fd:8c:67:55:24:d2:fe:ae:d1:e7:e5:6e:c9:b8:91:99:
         96:bc:e1:06:c0:d2:a5:45:d9:9f:cf:a4:17:74:3b:df:62:33:
         f3:db:2a:77:45:51:fd:af:5b:d8:e6:de:13:df:4a:79:16:80:
         88:7e:6f:90:7d:ab:3b:7a:70:6d:de:ea:87:22:00:3c:22:6a:
         e0:43:ed:47:26:0a:42:c9:aa:f6:40:87:ce:b7:d1:2c:2f:7a:
         ec:d9:ef:7e:3b:24:9f:6c:9e:47:f7:a7:9e:92:7f:73:5c:16:
         7b:c1:70:3f:11:66:52:54:36:0f:9b:5a:f8:dc:67:27:6b:02:
         4b:ec:7a:df:3c:63:d3:31:da:bc:e6:6f:57:8f:cf:2d:33:a7:
         6d:1c:65:f4:89:94:4b:4c:1e:09:8b:8f:98:76:d2:24:30:27:
         a6:a1:8b:b0:47:9a:96:c6:27:60:94:06:03:88:d0:75:18:29:
         84:fb:83:5f:0f:34:2e:f4:25:a9:0e:c5:cb:b2:48:1b:87:fd:
         53:bb:3d:d6:11:39:95:ed:01:3f:9f:32:98:a1:e7:7f:00:74:
         a2:e9:51:20:71:35:d8:fb:f9:95:2e:12:04:24:f4:f4:b5:48:
         80:63:e9:02:ed:cf:05:c0:4b:d9:c2:15:b5:c9:6f:86:b7:86:
         aa:f5:9a:7c:88:a5:3a:d3:ae:48:e4:48:2b:91:3c:09:80:9b:
         79:82:94:40:dc:02:a9:84:a8:fa:84:d3:91:20:69:a5:16:9b:
         b0:2c:a6:ad:0f:21:a1:07:92:2b:3a:8e:95:e0:b7:13:c5:72:
         e3:48:c2:c8:9c:b2:31:18:df:36:2d:bc:20:14:16:a5:50:9d:
         bc:c0:d0:9d:1b:50:16:e8
-----BEGIN CERTIFICATE-----
MIIGrTCCBJWgAwIBAgICMY0wDQYJKoZIhvcNAQELBQAwgawxCzAJBgNVBAYTAlVT
MQswCQYDVQQIEwJPSDERMA8GA1UEBxMIQ29sdW1idXMxEjAQBgNVBAoTCVZpa2lu
Z1ZQTjEdMBsGA1UECxMUTXlPcmdhbml6YXRpb25hbFVuaXQxFTATBgNVBAMTDFZp
a2luZ1ZQTiBDQTEQMA4GA1UEKRMHRWFzeVJTQTEhMB8GCSqGSIb3DQEJARYSbWVA
bXlob3N0Lm15ZG9tYWluMB4XDTE4MDMwMzIzNDcxMFoXDTI4MDIyOTIzNDcxMFow
HzEdMBsGA1UEAxMUQ2xpZW50MjU3OUNlcnQ1YmFjNWUwggIiMA0GCSqGSIb3DQEB
AQUAA4ICDwAwggIKAoICAQCbXMsSJo7+MlJITYaEMupbNEofVGloFBpA6oWNEKq+
PKbyZ6mGxTXvXlt1o4fHu9tRGTpNWzCLNOFzE5TjmK9b8wI2ceRWQ82/pSKRm9NT
RZ+5B4B1svhWD6Ml0LgOPymNfYYwaISIqZo8lWPQLwEbSJbSn9x81D/FBngCfrov
YKX5QgGf189vW+FkYeFqy/EFHV44YJojpKimbyU4fanW4qYGDzVIP4w55IXTWuGV
rHQ7mTqijw/byumxXl5kg7Ay23Sf57M85fDL+3TwRcYKWfa6i30iqCiBr9lak4RJ
5ZHt7gJTgtpIDv+OCR43cggN9tflpeqUTsrN/VoFox673QrBVO7I+O/+IrkKW7Dm
uGzl5Ke97kzurBLNYzv8gaP9NjS6TfvUbSa0+mHGEukCr7ylM4W7sYJUXHszUq5i
baCnZqu06yWFxhfKvf8kZMWBp4JwKBJh0j4ST8AZ0sP4MPSMFXNvPPMKdW5st1Ng
OmaAlZsll9+7Shl7reTKk3uDV/kiiuLUYbSrpJNd4rZw4PZUvV/534kzuuhgGmIX
XULn12Pa1CElU0t2Z4KTWEWENrrD3rYCchWDjdjhzRX7vPrghcTfNOCM+inqgRqz
PYupouCFQjvUoZXFZ6M3bv+7OowNtyWx4Bo4Gqexqrw9DwCmtv0PORlHyH1yVTCQ
SQIDAQABo4IBYzCCAV8wCQYDVR0TBAIwADAtBglghkgBhvhCAQ0EIBYeRWFzeS1S
U0EgR2VuZXJhdGVkIENlcnRpZmljYXRlMB0GA1UdDgQWBBRMKsup93fIWn8sHESa
4/e2E5OqGDCB4QYDVR0jBIHZMIHWgBQSzWAE0qCAnnDtxpm4eyzGUv0ZoaGBsqSB
rzCBrDELMAkGA1UEBhMCVVMxCzAJBgNVBAgTAk9IMREwDwYDVQQHEwhDb2x1bWJ1
czESMBAGA1UEChMJVmlraW5nVlBOMR0wGwYDVQQLExRNeU9yZ2FuaXphdGlvbmFs
VW5pdDEVMBMGA1UEAxMMVmlraW5nVlBOIENBMRAwDgYDVQQpEwdFYXN5UlNBMSEw
HwYJKoZIhvcNAQkBFhJtZUBteWhvc3QubXlkb21haW6CCQDPNYXugL8qPjATBgNV
HSUEDDAKBggrBgEFBQcDAjALBgNVHQ8EBAMCB4AwDQYJKoZIhvcNAQELBQADggIB
AM3wCcT8KWYMcues1C2BSCfXqG4C7YnCGHXNCZHgZZ1vm7oFTHflO0l9ZVinshxa
s2ZRwmkuhuPlWLCk4YHlPapRE8jReyMay5Dv4Iwaqn0ioHoCUe3t3+Y2PL/ATtg3
V/L/glFO2jzwIq5AG9UliC9T9INLkoE1//OuWp92BZLnVJ97YJeDmAvdOzBnFiZB
uJIrB+HuUoVzicx+PVahJc0xIrwl4IE+NyGT+JEMNhf9rza0szMX/YxnVSTS/q7R
5+VuybiRmZa84QbA0qVF2Z/PpBd0O99iM/PbKndFUf2vW9jm3hPfSnkWgIh+b5B9
qzt6cG3e6ociADwiauBD7UcmCkLJqvZAh8630SwveuzZ7347JJ9snkf3p56Sf3Nc
FnvBcD8RZlJUNg+bWvjcZydrAkvset88Y9Mx2rzmb1ePzy0zp20cZfSJlEtMHgmL
j5h20iQwJ6ahi7BHmpbGJ2CUBgOI0HUYKYT7g18PNC70JakOxcuySBuH/VO7PdYR
OZXtAT+fMpih538AdKLpUSBxNdj7+ZUuEgQk9PS1SIBj6QLtzwXAS9nCFbXJb4a3
hqr1mnyIpTrTrkjkSCuRPAmAm3mClEDcAqmEqPqE05EgaaUWm7Aspq0PIaEHkis6
jpXgtxPFcuNIwsicsjEY3zYtvCAUFqVQnbzA0J0bUBbo
-----END CERTIFICATE-----
