Certificate:
    Data:
        Version: 3 (0x2)
        Serial Number: 12690 (0x3192)
    Signature Algorithm: sha256WithRSAEncryption
        Issuer: C=US, ST=OH, L=Columbus, O=VikingVPN, OU=MyOrganizationalUnit, CN=VikingVPN CA/name=EasyRSA/emailAddress=me@myhost.mydomain
        Validity
            Not Before: Mar  4 00:13:16 2018 GMT
            Not After : Mar  1 00:13:16 2028 GMT
        Subject: CN=Client2104Cert632c77
        Subject Public Key Info:
            Public Key Algorithm: rsaEncryption
                Public-Key: (4096 bit)
                Modulus:
                    00:ac:40:a5:32:36:69:a7:28:90:b1:0f:32:b9:be:
                    70:45:18:b7:3e:7b:b9:8f:cc:17:9f:ee:ad:66:51:
                    d2:66:94:7c:d2:e0:7d:03:d3:b7:77:01:df:98:f7:
                    84:82:ef:8d:35:05:ab:da:db:bc:c0:cd:ce:c8:9c:
                    fb:b2:60:1b:66:28:f7:6e:68:85:09:7a:2f:22:d1:
                    9d:00:b9:42:17:33:65:37:44:7f:71:5a:03:cf:9d:
                    46:0b:86:a6:dd:b2:d3:01:3e:2a:cf:90:45:82:ee:
                    91:16:ab:1b:23:45:13:46:54:37:76:3e:21:83:74:
                    51:66:f9:5b:de:bc:c8:2d:cf:c5:99:49:6b:b0:3f:
                    0c:96:da:c8:0a:df:74:a2:0c:25:50:30:40:a7:d5:
                    68:7b:23:06:9c:2d:c1:02:01:94:c5:05:cd:51:25:
                    e2:b9:ef:0c:2f:8b:b1:26:d3:59:1a:6f:d6:63:29:
                    83:6c:9f:e8:a8:23:36:38:15:e6:c9:46:f2:8b:59:
                    2f:b7:49:b8:94:7a:3a:08:cc:bc:3e:c7:73:e3:1f:
                    82:d5:e4:56:19:f7:4c:5d:6b:d0:33:22:ce:94:3e:
                    60:1f:59:d2:b0:fa:b2:22:80:eb:95:5e:9a:46:c2:
                    56:25:69:5d:5e:b2:84:b2:77:16:84:3d:10:d3:da:
                    fe:f4:ee:69:55:59:94:0f:82:b6:29:29:b2:49:d4:
                    f1:24:bc:71:1d:e5:b2:f8:a3:7a:b2:72:c5:a2:4e:
                    c5:6e:41:16:d2:ef:8e:27:9d:72:84:c1:12:00:e2:
                    1b:04:2b:8a:ff:68:62:4c:96:13:93:8d:f9:40:56:
                    45:55:10:af:1f:5c:fa:63:5e:da:08:a0:44:8b:ef:
                    06:97:3d:57:72:5a:f1:45:8d:fc:c9:56:7c:50:15:
                    c6:4f:77:96:d6:34:ef:bb:76:f2:86:a0:b8:81:81:
                    73:bf:21:63:fb:29:54:4e:16:f5:c0:6c:ac:d3:30:
                    2d:b1:5a:6e:29:c8:d6:c9:2c:60:3d:cc:25:f9:9a:
                    b7:2e:4f:08:ba:7c:94:07:10:64:35:3e:c5:9c:8e:
                    a4:d7:37:1b:e1:2d:6e:71:b9:26:81:c8:91:e6:37:
                    9f:d4:12:de:c7:a0:7d:14:1b:b8:92:d2:93:e3:c2:
                    a4:34:16:9a:21:ab:fc:75:5d:7a:5a:a9:df:4c:06:
                    2d:6e:ac:a5:c8:ed:3e:a5:4e:1a:ca:06:8d:7c:9e:
                    78:aa:92:37:b0:3a:c3:5a:4a:ea:2f:4e:06:e5:8f:
                    fc:54:e0:45:e2:23:ce:ea:14:da:a1:67:0d:ca:f2:
                    90:8d:c5:b6:a2:e3:0b:d7:1a:42:c4:b5:00:c3:1b:
                    bb:02:0f
                Exponent: 65537 (0x10001)
        X509v3 extensions:
            X509v3 Basic Constraints: 
                CA:FALSE
            Netscape Comment: 
                Easy-RSA Generated Certificate
            X509v3 Subject Key Identifier: 
                17:B2:BC:39:7F:46:CA:4D:3A:62:E7:71:BC:7D:5F:84:E1:02:33:C0
            X509v3 Authority Key Identifier: 
                keyid:12:CD:60:04:D2:A0:80:9E:70:ED:C6:99:B8:7B:2C:C6:52:FD:19:A1
                DirName:/C=US/ST=OH/L=Columbus/O=VikingVPN/OU=MyOrganizationalUnit/CN=VikingVPN CA/name=EasyRSA/emailAddress=me@myhost.mydomain
                serial:CF:35:85:EE:80:BF:2A:3E

            X509v3 Extended Key Usage: 
                TLS Web Client Authentication
            X509v3 Key Usage: 
                Digital Signature
    Signature Algorithm: sha256WithRSAEncryption
         a2:04:53:b7:a0:23:ea:75:63:5d:4d:c3:d9:b3:2a:27:38:86:
         b3:ca:90:1d:d7:a8:d0:05:ae:8a:74:3e:6e:e5:86:c2:66:f0:
         5e:13:89:30:06:d6:09:1c:22:15:68:28:a0:4f:e6:a4:07:a4:
         9d:6b:d7:33:98:ea:58:52:2a:d5:bc:f2:73:13:73:51:80:39:
         23:60:dc:c5:6a:e8:8b:74:80:bf:06:cd:94:35:80:f1:e7:f7:
         95:8c:29:e8:b6:3b:9b:e0:27:5c:40:4c:08:49:1a:eb:bc:75:
         94:89:a4:03:d6:18:80:1c:d9:22:7d:15:3a:0b:e9:27:ac:f8:
         c3:48:1b:c0:51:51:28:13:be:a2:85:40:07:f3:38:3c:ae:22:
         53:c4:33:26:68:10:1f:21:44:fa:69:7f:84:2e:18:90:ff:a8:
         9c:bd:6d:ec:a0:b4:3f:ca:2e:fc:12:68:e7:bf:0f:08:c0:2a:
         0f:b1:75:01:cb:7f:2d:9a:27:01:e2:24:9e:43:8a:e5:af:46:
         04:74:c8:a5:10:e3:ae:3d:e5:6c:66:0e:54:3d:94:c2:b9:2b:
         42:b7:89:8d:ca:5a:33:35:d3:3a:da:a3:3a:d5:1e:96:1d:ad:
         ba:f2:51:16:cf:07:f7:6a:4d:d9:05:35:35:1a:03:24:ea:b8:
         4a:e5:18:59:70:3d:f0:d5:b8:8c:e8:9b:15:0a:bf:e8:7b:c1:
         c1:2b:f0:e4:98:10:1d:e0:3e:b5:56:6d:af:4d:0b:41:10:05:
         91:68:15:de:94:70:78:73:1c:79:c8:58:c9:b3:aa:45:3b:3c:
         53:3e:b8:d6:99:07:83:cc:27:c3:56:20:f0:85:2f:70:83:dc:
         36:47:e1:dd:f4:3e:6c:53:e8:be:57:db:84:9c:d7:f5:d8:db:
         ce:28:75:1f:a8:ac:60:c5:74:af:b6:de:73:db:83:9b:1d:29:
         58:fe:f4:a9:32:d2:be:8e:6c:78:ce:e3:fc:44:61:a4:87:e2:
         f7:85:53:5c:c3:f3:39:82:74:c7:6f:8d:b3:0f:80:59:44:39:
         25:42:57:eb:cc:bd:b0:d3:7d:cc:20:e2:3e:75:84:20:bf:77:
         97:b8:25:c9:32:f8:c6:c9:77:40:d6:8a:13:60:a3:95:15:3b:
         ff:94:21:f7:2e:fc:46:93:27:5d:34:92:7d:02:e3:51:09:8c:
         3e:0c:51:79:c0:56:31:f2:da:16:94:48:7b:0f:65:3f:d8:76:
         49:2f:1c:95:38:01:2d:7a:f5:95:64:e7:80:76:c1:a7:07:aa:
         ed:86:a8:a4:0e:d4:03:71:29:41:b2:f9:99:12:5d:6a:20:ec:
         e7:37:89:f9:b4:f7:3a:a2
-----BEGIN CERTIFICATE-----
MIIGrTCCBJWgAwIBAgICMZIwDQYJKoZIhvcNAQELBQAwgawxCzAJBgNVBAYTAlVT
MQswCQYDVQQIEwJPSDERMA8GA1UEBxMIQ29sdW1idXMxEjAQBgNVBAoTCVZpa2lu
Z1ZQTjEdMBsGA1UECxMUTXlPcmdhbml6YXRpb25hbFVuaXQxFTATBgNVBAMTDFZp
a2luZ1ZQTiBDQTEQMA4GA1UEKRMHRWFzeVJTQTEhMB8GCSqGSIb3DQEJARYSbWVA
bXlob3N0Lm15ZG9tYWluMB4XDTE4MDMwNDAwMTMxNloXDTI4MDMwMTAwMTMxNlow
HzEdMBsGA1UEAxMUQ2xpZW50MjEwNENlcnQ2MzJjNzcwggIiMA0GCSqGSIb3DQEB
AQUAA4ICDwAwggIKAoICAQCsQKUyNmmnKJCxDzK5vnBFGLc+e7mPzBef7q1mUdJm
lHzS4H0D07d3Ad+Y94SC7401Bava27zAzc7InPuyYBtmKPduaIUJei8i0Z0AuUIX
M2U3RH9xWgPPnUYLhqbdstMBPirPkEWC7pEWqxsjRRNGVDd2PiGDdFFm+VvevMgt
z8WZSWuwPwyW2sgK33SiDCVQMECn1Wh7IwacLcECAZTFBc1RJeK57wwvi7Em01ka
b9ZjKYNsn+ioIzY4FebJRvKLWS+3SbiUejoIzLw+x3PjH4LV5FYZ90xda9AzIs6U
PmAfWdKw+rIigOuVXppGwlYlaV1esoSydxaEPRDT2v707mlVWZQPgrYpKbJJ1PEk
vHEd5bL4o3qycsWiTsVuQRbS744nnXKEwRIA4hsEK4r/aGJMlhOTjflAVkVVEK8f
XPpjXtoIoESL7waXPVdyWvFFjfzJVnxQFcZPd5bWNO+7dvKGoLiBgXO/IWP7KVRO
FvXAbKzTMC2xWm4pyNbJLGA9zCX5mrcuTwi6fJQHEGQ1PsWcjqTXNxvhLW5xuSaB
yJHmN5/UEt7HoH0UG7iS0pPjwqQ0Fpohq/x1XXpaqd9MBi1urKXI7T6lThrKBo18
nniqkjewOsNaSuovTgblj/xU4EXiI87qFNqhZw3K8pCNxbai4wvXGkLEtQDDG7sC
DwIDAQABo4IBYzCCAV8wCQYDVR0TBAIwADAtBglghkgBhvhCAQ0EIBYeRWFzeS1S
U0EgR2VuZXJhdGVkIENlcnRpZmljYXRlMB0GA1UdDgQWBBQXsrw5f0bKTTpi53G8
fV+E4QIzwDCB4QYDVR0jBIHZMIHWgBQSzWAE0qCAnnDtxpm4eyzGUv0ZoaGBsqSB
rzCBrDELMAkGA1UEBhMCVVMxCzAJBgNVBAgTAk9IMREwDwYDVQQHEwhDb2x1bWJ1
czESMBAGA1UEChMJVmlraW5nVlBOMR0wGwYDVQQLExRNeU9yZ2FuaXphdGlvbmFs
VW5pdDEVMBMGA1UEAxMMVmlraW5nVlBOIENBMRAwDgYDVQQpEwdFYXN5UlNBMSEw
HwYJKoZIhvcNAQkBFhJtZUBteWhvc3QubXlkb21haW6CCQDPNYXugL8qPjATBgNV
HSUEDDAKBggrBgEFBQcDAjALBgNVHQ8EBAMCB4AwDQYJKoZIhvcNAQELBQADggIB
AKIEU7egI+p1Y11Nw9mzKic4hrPKkB3XqNAFrop0Pm7lhsJm8F4TiTAG1gkcIhVo
KKBP5qQHpJ1r1zOY6lhSKtW88nMTc1GAOSNg3MVq6It0gL8GzZQ1gPHn95WMKei2
O5vgJ1xATAhJGuu8dZSJpAPWGIAc2SJ9FToL6Ses+MNIG8BRUSgTvqKFQAfzODyu
IlPEMyZoEB8hRPppf4QuGJD/qJy9beygtD/KLvwSaOe/DwjAKg+xdQHLfy2aJwHi
JJ5DiuWvRgR0yKUQ46495WxmDlQ9lMK5K0K3iY3KWjM10zraozrVHpYdrbryURbP
B/dqTdkFNTUaAyTquErlGFlwPfDVuIzomxUKv+h7wcEr8OSYEB3gPrVWba9NC0EQ
BZFoFd6UcHhzHHnIWMmzqkU7PFM+uNaZB4PMJ8NWIPCFL3CD3DZH4d30PmxT6L5X
24Sc1/XY284odR+orGDFdK+23nPbg5sdKVj+9Kky0r6ObHjO4/xEYaSH4veFU1zD
8zmCdMdvjbMPgFlEOSVCV+vMvbDTfcwg4j51hCC/d5e4Jcky+MbJd0DWihNgo5UV
O/+UIfcu/EaTJ100kn0C41EJjD4MUXnAVjHy2haUSHsPZT/YdkkvHJU4AS169ZVk
54B2wacHqu2GqKQO1ANxKUGy+ZkSXWog7Oc3ifm09zqi
-----END CERTIFICATE-----
