Certificate:
    Data:
        Version: 3 (0x2)
        Serial Number: 12691 (0x3193)
    Signature Algorithm: sha256WithRSAEncryption
        Issuer: C=US, ST=OH, L=Columbus, O=VikingVPN, OU=MyOrganizationalUnit, CN=VikingVPN CA/name=EasyRSA/emailAddress=me@myhost.mydomain
        Validity
            Not Before: Mar  4 00:13:19 2018 GMT
            Not After : Mar  1 00:13:19 2028 GMT
        Subject: CN=Client2104Certe01269
        Subject Public Key Info:
            Public Key Algorithm: rsaEncryption
                Public-Key: (4096 bit)
                Modulus:
                    00:a7:43:01:85:45:b5:c2:a7:cd:57:4e:67:63:9b:
                    8f:52:ac:88:f6:61:20:4f:39:f9:7a:dc:18:6c:d6:
                    7b:87:33:b2:cb:fd:81:b2:45:8d:f3:4a:c6:49:a1:
                    c4:7c:bf:d8:e7:7e:81:18:25:94:6f:d5:22:10:5a:
                    6f:be:ab:82:23:58:a3:a5:8e:4e:9d:d9:64:60:74:
                    37:fd:91:21:79:8e:01:8b:49:85:56:55:35:61:95:
                    c6:2d:18:04:0f:61:3a:35:d0:ef:0d:e2:d9:22:d7:
                    0d:d0:92:3f:6f:32:2d:62:cd:d7:63:98:65:6d:99:
                    81:ac:e8:dd:e3:fb:45:f7:87:07:86:63:67:55:ee:
                    f3:2c:9a:e2:bb:8e:84:7e:7e:d6:28:d2:cf:7d:50:
                    e7:d2:36:2b:b8:a0:6d:56:16:4b:a5:cd:7e:2f:00:
                    b8:24:83:2e:d3:d3:e3:4f:55:37:ca:85:32:13:be:
                    f5:1c:6c:74:f3:f9:1a:5b:68:8d:96:1f:90:a6:4f:
                    43:91:50:e2:01:00:f9:f3:36:56:3b:eb:d3:04:27:
                    11:97:35:10:f1:00:58:4a:b9:69:62:11:89:8b:2f:
                    12:95:e0:32:5f:21:3f:ac:43:95:ab:e5:f5:5c:2a:
                    9f:ba:10:85:f7:ea:13:b3:26:b2:02:af:22:67:73:
                    d1:0c:96:f3:e9:fd:fa:a1:d7:15:23:c1:96:b6:46:
                    a9:e3:a2:48:65:7d:35:ba:d6:25:bd:74:30:c6:39:
                    10:1b:7c:40:eb:f4:37:ca:30:8e:25:cb:db:65:32:
                    12:f2:36:3a:ef:a2:5e:da:a0:c9:34:91:5d:9f:12:
                    30:20:ac:06:f1:04:48:7c:d2:3f:03:19:cc:24:1f:
                    3f:7b:00:b7:85:95:d6:24:a6:b9:2f:e3:a5:7f:f8:
                    1e:7d:97:a6:ed:49:15:23:00:92:10:65:80:e3:51:
                    b2:b2:81:46:78:91:1b:15:05:da:4b:b9:f6:3a:e1:
                    e6:bc:b6:a9:84:c2:da:83:a5:5f:81:bc:35:73:17:
                    31:44:bc:e1:3b:f0:d6:e8:68:4c:7e:eb:6e:61:b3:
                    89:1a:69:6b:e2:59:f1:00:86:28:93:fa:ed:a3:77:
                    ff:df:67:09:01:b2:08:e5:26:a9:a9:38:a3:7d:2b:
                    3f:4a:da:37:79:0e:9a:c8:99:54:e4:c1:7f:ef:e8:
                    4a:da:5a:2d:5b:73:b8:46:da:8c:bc:96:43:54:85:
                    49:dc:0d:8d:7c:31:6f:95:89:78:f0:74:b4:d2:4d:
                    1e:49:f9:ae:35:cb:1e:8c:aa:d5:de:d7:f0:5b:4f:
                    41:2c:e3:73:82:78:57:96:d6:d3:70:f6:d7:18:cc:
                    41:59:6f
                Exponent: 65537 (0x10001)
        X509v3 extensions:
            X509v3 Basic Constraints: 
                CA:FALSE
            Netscape Comment: 
                Easy-RSA Generated Certificate
            X509v3 Subject Key Identifier: 
                67:E3:DE:7D:B4:84:48:CF:2C:CC:8D:7D:7F:C4:23:87:38:44:44:90
            X509v3 Authority Key Identifier: 
                keyid:12:CD:60:04:D2:A0:80:9E:70:ED:C6:99:B8:7B:2C:C6:52:FD:19:A1
                DirName:/C=US/ST=OH/L=Columbus/O=VikingVPN/OU=MyOrganizationalUnit/CN=VikingVPN CA/name=EasyRSA/emailAddress=me@myhost.mydomain
                serial:CF:35:85:EE:80:BF:2A:3E

            X509v3 Extended Key Usage: 
                TLS Web Client Authentication
            X509v3 Key Usage: 
                Digital Signature
    Signature Algorithm: sha256WithRSAEncryption
         64:fb:80:ce:d4:f3:5e:bb:2d:e6:22:de:c6:a1:0c:db:47:40:
         15:cc:75:80:1c:00:03:e2:18:c1:b1:49:9e:99:69:6f:47:8d:
         3e:bd:85:6a:9a:06:b8:35:cb:d8:2a:d9:de:2f:ef:d1:d7:6d:
         c7:51:79:dd:73:4b:56:ba:12:5d:c7:62:54:0d:af:99:54:68:
         49:45:50:3a:15:65:b4:3a:f1:16:f1:44:90:8e:db:e3:a6:ef:
         88:6c:5a:8e:d4:90:fc:52:0a:13:60:c0:39:5d:f4:ae:49:b4:
         81:35:16:88:c8:30:6f:40:de:67:6c:46:28:66:f1:af:21:cb:
         7e:f7:72:05:c5:9c:6c:ce:e8:f8:8c:4d:7b:36:e5:bd:1a:27:
         9b:f6:a7:9d:c2:e7:b9:cc:2d:6c:ae:13:c6:09:56:71:d5:d1:
         f1:0e:58:6b:0d:7f:7c:a5:10:2c:83:fc:d1:9b:9e:a9:bd:ab:
         72:8a:f7:21:0a:27:d8:c8:fa:53:03:11:f7:0d:93:bb:1a:d3:
         0a:3c:8e:7d:a2:1b:74:9e:5d:bc:f2:fe:f9:5a:1e:cb:36:eb:
         d5:a0:66:c6:eb:4a:3f:11:bc:82:74:96:a7:59:03:ea:07:fc:
         f3:73:7a:c0:b3:49:7f:dc:cd:bd:33:d5:df:b0:47:18:12:ed:
         0c:d9:1a:fb:91:0b:e0:7c:bd:73:58:63:3e:b6:f8:0c:82:c5:
         14:5e:8a:1a:97:f9:ae:3e:a1:59:02:62:0d:75:93:59:78:42:
         24:78:12:9d:95:98:ca:3c:42:e9:e7:95:11:25:06:ff:07:8b:
         28:c1:a1:e2:bc:d2:f4:0a:ab:67:33:9a:96:5b:65:7f:aa:55:
         03:c0:55:99:32:65:87:de:59:3a:06:dd:d7:66:65:e4:44:a8:
         12:72:45:e9:84:59:64:ff:17:4f:c4:08:9b:75:6b:ae:e1:37:
         73:ca:be:27:5d:2a:8d:7c:c2:f3:98:2f:f7:94:c6:d7:63:71:
         3e:34:de:55:b9:8b:9b:a7:28:bc:72:27:be:8e:4c:9f:c5:07:
         db:95:ac:ef:8c:09:40:13:06:ca:c4:25:45:56:75:66:25:ba:
         db:8a:c2:41:23:07:0d:89:ef:77:09:80:04:ce:2e:33:87:53:
         f7:33:e5:60:1d:c9:26:2f:9f:6e:fe:9e:cf:15:fa:45:17:c9:
         bc:66:e8:08:01:17:82:e9:00:6b:e2:8e:2b:3a:79:29:77:96:
         3b:90:f2:f8:6e:f8:00:ac:e0:a0:ef:e3:7c:4b:2c:68:20:7e:
         8e:d8:37:f2:5c:a8:54:ac:b4:b2:6e:6d:99:5a:b9:ff:62:23:
         b6:60:eb:0e:ee:21:3c:1b
-----BEGIN CERTIFICATE-----
MIIGrTCCBJWgAwIBAgICMZMwDQYJKoZIhvcNAQELBQAwgawxCzAJBgNVBAYTAlVT
MQswCQYDVQQIEwJPSDERMA8GA1UEBxMIQ29sdW1idXMxEjAQBgNVBAoTCVZpa2lu
Z1ZQTjEdMBsGA1UECxMUTXlPcmdhbml6YXRpb25hbFVuaXQxFTATBgNVBAMTDFZp
a2luZ1ZQTiBDQTEQMA4GA1UEKRMHRWFzeVJTQTEhMB8GCSqGSIb3DQEJARYSbWVA
bXlob3N0Lm15ZG9tYWluMB4XDTE4MDMwNDAwMTMxOVoXDTI4MDMwMTAwMTMxOVow
HzEdMBsGA1UEAxMUQ2xpZW50MjEwNENlcnRlMDEyNjkwggIiMA0GCSqGSIb3DQEB
AQUAA4ICDwAwggIKAoICAQCnQwGFRbXCp81XTmdjm49SrIj2YSBPOfl63Bhs1nuH
M7LL/YGyRY3zSsZJocR8v9jnfoEYJZRv1SIQWm++q4IjWKOljk6d2WRgdDf9kSF5
jgGLSYVWVTVhlcYtGAQPYTo10O8N4tki1w3Qkj9vMi1izddjmGVtmYGs6N3j+0X3
hweGY2dV7vMsmuK7joR+ftYo0s99UOfSNiu4oG1WFkulzX4vALgkgy7T0+NPVTfK
hTITvvUcbHTz+RpbaI2WH5CmT0ORUOIBAPnzNlY769MEJxGXNRDxAFhKuWliEYmL
LxKV4DJfIT+sQ5Wr5fVcKp+6EIX36hOzJrICryJnc9EMlvPp/fqh1xUjwZa2Rqnj
okhlfTW61iW9dDDGORAbfEDr9DfKMI4ly9tlMhLyNjrvol7aoMk0kV2fEjAgrAbx
BEh80j8DGcwkHz97ALeFldYkprkv46V/+B59l6btSRUjAJIQZYDjUbKygUZ4kRsV
BdpLufY64ea8tqmEwtqDpV+BvDVzFzFEvOE78NboaEx+625hs4kaaWviWfEAhiiT
+u2jd//fZwkBsgjlJqmpOKN9Kz9K2jd5DprImVTkwX/v6EraWi1bc7hG2oy8lkNU
hUncDY18MW+ViXjwdLTSTR5J+a41yx6MqtXe1/BbT0Es43OCeFeW1tNw9tcYzEFZ
bwIDAQABo4IBYzCCAV8wCQYDVR0TBAIwADAtBglghkgBhvhCAQ0EIBYeRWFzeS1S
U0EgR2VuZXJhdGVkIENlcnRpZmljYXRlMB0GA1UdDgQWBBRn4959tIRIzyzMjX1/
xCOHOEREkDCB4QYDVR0jBIHZMIHWgBQSzWAE0qCAnnDtxpm4eyzGUv0ZoaGBsqSB
rzCBrDELMAkGA1UEBhMCVVMxCzAJBgNVBAgTAk9IMREwDwYDVQQHEwhDb2x1bWJ1
czESMBAGA1UEChMJVmlraW5nVlBOMR0wGwYDVQQLExRNeU9yZ2FuaXphdGlvbmFs
VW5pdDEVMBMGA1UEAxMMVmlraW5nVlBOIENBMRAwDgYDVQQpEwdFYXN5UlNBMSEw
HwYJKoZIhvcNAQkBFhJtZUBteWhvc3QubXlkb21haW6CCQDPNYXugL8qPjATBgNV
HSUEDDAKBggrBgEFBQcDAjALBgNVHQ8EBAMCB4AwDQYJKoZIhvcNAQELBQADggIB
AGT7gM7U8167LeYi3sahDNtHQBXMdYAcAAPiGMGxSZ6ZaW9HjT69hWqaBrg1y9gq
2d4v79HXbcdRed1zS1a6El3HYlQNr5lUaElFUDoVZbQ68RbxRJCO2+Om74hsWo7U
kPxSChNgwDld9K5JtIE1FojIMG9A3mdsRihm8a8hy373cgXFnGzO6PiMTXs25b0a
J5v2p53C57nMLWyuE8YJVnHV0fEOWGsNf3ylECyD/NGbnqm9q3KK9yEKJ9jI+lMD
EfcNk7sa0wo8jn2iG3SeXbzy/vlaHss269WgZsbrSj8RvIJ0lqdZA+oH/PNzesCz
SX/czb0z1d+wRxgS7QzZGvuRC+B8vXNYYz62+AyCxRReihqX+a4+oVkCYg11k1l4
QiR4Ep2VmMo8QunnlRElBv8HiyjBoeK80vQKq2czmpZbZX+qVQPAVZkyZYfeWToG
3ddmZeREqBJyRemEWWT/F0/ECJt1a67hN3PKviddKo18wvOYL/eUxtdjcT403lW5
i5unKLxyJ76OTJ/FB9uVrO+MCUATBsrEJUVWdWYlutuKwkEjBw2J73cJgATOLjOH
U/cz5WAdySYvn27+ns8V+kUXybxm6AgBF4LpAGvijis6eSl3ljuQ8vhu+ACs4KDv
43xLLGggfo7YN/JcqFSstLJubZlauf9iI7Zg6w7uITwb
-----END CERTIFICATE-----
