Certificate:
    Data:
        Version: 3 (0x2)
        Serial Number: 12697 (0x3199)
    Signature Algorithm: sha256WithRSAEncryption
        Issuer: C=US, ST=OH, L=Columbus, O=VikingVPN, OU=MyOrganizationalUnit, CN=VikingVPN CA/name=EasyRSA/emailAddress=me@myhost.mydomain
        Validity
            Not Before: Mar  4 23:36:22 2018 GMT
            Not After : Mar  1 23:36:22 2028 GMT
        Subject: CN=Client3186Cert11c0bf
        Subject Public Key Info:
            Public Key Algorithm: rsaEncryption
                Public-Key: (4096 bit)
                Modulus:
                    00:d0:4d:32:05:5f:71:b4:c4:5d:52:a3:8d:d5:ac:
                    9c:ef:8c:3d:df:fc:75:3e:47:72:eb:dd:eb:7a:9d:
                    4d:1c:dd:b5:f2:ac:7f:33:16:c7:ad:48:db:85:85:
                    9a:fc:84:5d:44:13:b5:a5:e2:e1:0a:46:c6:31:a0:
                    14:52:70:3c:7a:74:4e:10:74:50:94:40:86:19:19:
                    1f:d4:2b:59:d2:f1:ba:aa:49:ce:25:fc:8a:3e:e2:
                    39:28:53:c8:4b:c7:a6:62:bc:2e:bf:f9:86:7e:ea:
                    a0:60:81:3d:d7:92:7f:db:b8:58:6e:00:39:eb:ea:
                    9d:b5:2f:fe:65:d3:fe:24:39:52:64:52:b9:bf:c5:
                    7d:d6:b2:c4:01:f3:53:f3:16:07:7f:9a:27:1b:64:
                    11:d8:45:a3:25:c3:aa:e7:f1:23:b3:44:a1:1c:95:
                    79:64:fe:83:85:c6:91:85:16:16:be:42:9f:da:c7:
                    29:0b:8d:71:d5:c6:4b:e4:83:c6:83:98:fc:00:31:
                    58:de:09:ff:2c:08:b7:e7:75:1f:7d:2e:81:c4:a9:
                    5c:c3:22:ce:aa:12:96:c6:1a:87:5c:a5:03:7a:b1:
                    f7:6e:6e:62:65:cd:cf:22:7d:b9:27:5b:df:26:08:
                    49:aa:75:3d:e8:87:8c:f2:df:45:5c:18:8f:b5:4a:
                    55:8e:f5:c0:e1:e6:2b:be:cb:eb:e5:40:4b:43:de:
                    2c:84:4d:01:79:1e:c8:1e:23:26:22:8b:87:b1:77:
                    79:07:7c:73:c2:4d:ce:c6:01:3e:14:4c:c5:2d:ac:
                    23:57:17:0c:0f:6b:57:a1:79:d9:9b:ae:1e:29:f6:
                    0e:40:33:03:ea:86:49:ea:ed:a1:c0:c8:8c:bc:43:
                    61:07:cd:39:fe:0a:ef:43:25:7a:a2:99:38:b3:54:
                    a6:bd:4d:7a:b4:82:a3:cd:94:d2:31:f6:2d:db:b5:
                    3e:41:c0:71:11:3a:5e:b9:f8:f7:5c:60:ab:68:e5:
                    b4:b4:8d:1f:75:9e:d1:88:24:cf:96:9a:01:72:00:
                    50:5e:83:01:a0:51:5a:18:5f:e4:a4:b4:7c:ba:af:
                    b7:0e:a3:b1:ad:d3:9c:ac:6b:6d:5c:2c:7e:a5:27:
                    95:f6:a3:1c:65:f2:ca:fa:b0:96:f9:69:22:a3:68:
                    9a:eb:11:c8:23:b6:6a:32:c0:1c:93:c9:bd:b9:9c:
                    7d:07:1e:5a:4c:57:6d:a3:1b:0e:13:e5:75:2a:94:
                    55:01:27:b5:9e:f4:9c:cd:f9:08:67:59:ae:87:c1:
                    1a:a1:19:64:19:61:70:6d:c1:ba:30:c2:b9:dd:7d:
                    82:9e:ae:b5:f4:cc:c1:2f:b5:af:91:58:8a:09:d7:
                    87:e3:cd
                Exponent: 65537 (0x10001)
        X509v3 extensions:
            X509v3 Basic Constraints: 
                CA:FALSE
            Netscape Comment: 
                Easy-RSA Generated Certificate
            X509v3 Subject Key Identifier: 
                92:13:F0:8B:3E:65:65:B3:37:ED:38:09:48:D6:84:C7:6A:71:50:50
            X509v3 Authority Key Identifier: 
                keyid:12:CD:60:04:D2:A0:80:9E:70:ED:C6:99:B8:7B:2C:C6:52:FD:19:A1
                DirName:/C=US/ST=OH/L=Columbus/O=VikingVPN/OU=MyOrganizationalUnit/CN=VikingVPN CA/name=EasyRSA/emailAddress=me@myhost.mydomain
                serial:CF:35:85:EE:80:BF:2A:3E

            X509v3 Extended Key Usage: 
                TLS Web Client Authentication
            X509v3 Key Usage: 
                Digital Signature
    Signature Algorithm: sha256WithRSAEncryption
         b3:c9:c7:51:95:a0:b0:74:dc:c2:24:d5:c5:39:3c:49:87:88:
         b5:78:fd:9d:5b:0f:a9:38:74:30:8d:ff:b6:34:04:cb:91:51:
         98:a3:33:ae:61:80:23:b7:ea:36:27:26:bb:e2:3f:07:e7:65:
         cc:e2:1f:b5:7f:98:01:0c:8d:72:49:75:63:37:c9:23:c1:40:
         9e:7c:62:ec:b2:9d:9d:2d:53:aa:c4:13:7e:b7:94:f6:19:10:
         60:91:9a:21:45:2b:9a:a8:19:66:a3:e8:7a:38:19:90:e3:d1:
         0f:90:06:ef:80:b6:66:87:11:26:c7:c8:8c:c1:cc:d7:da:0f:
         fa:10:6d:ce:ca:64:76:cf:c7:08:d5:eb:83:f7:1b:26:35:5f:
         d7:8f:84:ab:69:e2:a5:70:1e:6a:d6:c7:58:05:71:db:45:5b:
         17:50:31:a4:7b:7c:d6:83:c3:80:f2:8b:01:6b:15:8d:07:56:
         7b:dd:24:bd:61:4b:2a:5e:a4:93:71:1b:2e:23:87:3a:6d:a0:
         0d:5d:76:f0:96:4c:d9:32:7e:a0:a9:21:20:4d:21:93:76:e0:
         dd:05:54:e2:db:ef:85:30:6a:29:06:d7:cf:52:d5:9a:07:82:
         0d:31:cd:dc:c8:c4:e4:cb:87:6d:0b:b0:92:81:20:7c:1f:e7:
         8f:e0:2c:cc:27:86:44:7a:05:b0:d9:a2:92:25:4c:40:0a:dc:
         01:24:a7:3e:fe:31:88:e3:2c:d2:dc:e1:6b:15:df:a4:e7:f8:
         a9:9e:ee:2e:74:48:77:21:af:b0:dd:9c:fd:93:a1:a4:a7:2a:
         57:a4:ee:e6:ec:10:f1:6f:bb:38:51:f8:7c:03:34:f8:de:aa:
         e9:2c:09:88:54:c0:99:63:75:09:f6:29:48:22:e2:18:2c:c3:
         35:4f:6b:cb:bc:c9:27:32:df:69:f8:fe:1d:9f:35:26:1f:88:
         8b:59:62:55:a8:32:90:9a:90:70:85:1d:d9:e7:f4:03:2e:52:
         00:ad:7d:5e:79:c1:3e:5f:cc:df:14:61:60:08:49:34:c7:18:
         46:30:20:7f:39:aa:c7:bf:07:18:3c:6a:40:5d:76:4f:83:53:
         a5:c0:b6:73:4a:14:6c:80:4f:8c:33:1d:82:32:0a:ac:9f:8f:
         e5:fb:59:19:ec:39:68:ea:b2:06:d5:90:f1:c4:b3:2a:65:35:
         b1:77:55:06:b7:00:d8:eb:e6:f1:17:ed:3b:51:c4:37:99:8e:
         18:1a:3c:53:17:39:1f:d6:80:10:55:8f:49:06:a7:cb:ae:39:
         30:a1:2f:41:34:28:00:ab:2c:1c:2b:18:7c:4e:ed:4a:47:12:
         8a:aa:36:ef:b5:f3:35:e4
-----BEGIN CERTIFICATE-----
MIIGrTCCBJWgAwIBAgICMZkwDQYJKoZIhvcNAQELBQAwgawxCzAJBgNVBAYTAlVT
MQswCQYDVQQIEwJPSDERMA8GA1UEBxMIQ29sdW1idXMxEjAQBgNVBAoTCVZpa2lu
Z1ZQTjEdMBsGA1UECxMUTXlPcmdhbml6YXRpb25hbFVuaXQxFTATBgNVBAMTDFZp
a2luZ1ZQTiBDQTEQMA4GA1UEKRMHRWFzeVJTQTEhMB8GCSqGSIb3DQEJARYSbWVA
bXlob3N0Lm15ZG9tYWluMB4XDTE4MDMwNDIzMzYyMloXDTI4MDMwMTIzMzYyMlow
HzEdMBsGA1UEAxMUQ2xpZW50MzE4NkNlcnQxMWMwYmYwggIiMA0GCSqGSIb3DQEB
AQUAA4ICDwAwggIKAoICAQDQTTIFX3G0xF1So43VrJzvjD3f/HU+R3Lr3et6nU0c
3bXyrH8zFsetSNuFhZr8hF1EE7Wl4uEKRsYxoBRScDx6dE4QdFCUQIYZGR/UK1nS
8bqqSc4l/Io+4jkoU8hLx6ZivC6/+YZ+6qBggT3Xkn/buFhuADnr6p21L/5l0/4k
OVJkUrm/xX3WssQB81PzFgd/micbZBHYRaMlw6rn8SOzRKEclXlk/oOFxpGFFha+
Qp/axykLjXHVxkvkg8aDmPwAMVjeCf8sCLfndR99LoHEqVzDIs6qEpbGGodcpQN6
sfdubmJlzc8ifbknW98mCEmqdT3oh4zy30VcGI+1SlWO9cDh5iu+y+vlQEtD3iyE
TQF5HsgeIyYii4exd3kHfHPCTc7GAT4UTMUtrCNXFwwPa1ehedmbrh4p9g5AMwPq
hknq7aHAyIy8Q2EHzTn+Cu9DJXqimTizVKa9TXq0gqPNlNIx9i3btT5BwHEROl65
+PdcYKto5bS0jR91ntGIJM+WmgFyAFBegwGgUVoYX+SktHy6r7cOo7Gt05ysa21c
LH6lJ5X2oxxl8sr6sJb5aSKjaJrrEcgjtmoywByTyb25nH0HHlpMV22jGw4T5XUq
lFUBJ7We9JzN+QhnWa6HwRqhGWQZYXBtwbowwrndfYKerrX0zMEvta+RWIoJ14fj
zQIDAQABo4IBYzCCAV8wCQYDVR0TBAIwADAtBglghkgBhvhCAQ0EIBYeRWFzeS1S
U0EgR2VuZXJhdGVkIENlcnRpZmljYXRlMB0GA1UdDgQWBBSSE/CLPmVlszftOAlI
1oTHanFQUDCB4QYDVR0jBIHZMIHWgBQSzWAE0qCAnnDtxpm4eyzGUv0ZoaGBsqSB
rzCBrDELMAkGA1UEBhMCVVMxCzAJBgNVBAgTAk9IMREwDwYDVQQHEwhDb2x1bWJ1
czESMBAGA1UEChMJVmlraW5nVlBOMR0wGwYDVQQLExRNeU9yZ2FuaXphdGlvbmFs
VW5pdDEVMBMGA1UEAxMMVmlraW5nVlBOIENBMRAwDgYDVQQpEwdFYXN5UlNBMSEw
HwYJKoZIhvcNAQkBFhJtZUBteWhvc3QubXlkb21haW6CCQDPNYXugL8qPjATBgNV
HSUEDDAKBggrBgEFBQcDAjALBgNVHQ8EBAMCB4AwDQYJKoZIhvcNAQELBQADggIB
ALPJx1GVoLB03MIk1cU5PEmHiLV4/Z1bD6k4dDCN/7Y0BMuRUZijM65hgCO36jYn
JrviPwfnZcziH7V/mAEMjXJJdWM3ySPBQJ58YuyynZ0tU6rEE363lPYZEGCRmiFF
K5qoGWaj6Ho4GZDj0Q+QBu+AtmaHESbHyIzBzNfaD/oQbc7KZHbPxwjV64P3GyY1
X9ePhKtp4qVwHmrWx1gFcdtFWxdQMaR7fNaDw4DyiwFrFY0HVnvdJL1hSypepJNx
Gy4jhzptoA1ddvCWTNkyfqCpISBNIZN24N0FVOLb74UwaikG189S1ZoHgg0xzdzI
xOTLh20LsJKBIHwf54/gLMwnhkR6BbDZopIlTEAK3AEkpz7+MYjjLNLc4WsV36Tn
+Kme7i50SHchr7DdnP2ToaSnKlek7ubsEPFvuzhR+HwDNPjequksCYhUwJljdQn2
KUgi4hgswzVPa8u8yScy32n4/h2fNSYfiItZYlWoMpCakHCFHdnn9AMuUgCtfV55
wT5fzN8UYWAISTTHGEYwIH85qse/Bxg8akBddk+DU6XAtnNKFGyAT4wzHYIyCqyf
j+X7WRnsOWjqsgbVkPHEsyplNbF3VQa3ANjr5vEX7TtRxDeZjhgaPFMXOR/WgBBV
j0kGp8uuOTChL0E0KACrLBwrGHxO7UpHEoqqNu+18zXk
-----END CERTIFICATE-----
