Certificate:
    Data:
        Version: 3 (0x2)
        Serial Number: 12703 (0x319f)
    Signature Algorithm: sha256WithRSAEncryption
        Issuer: C=US, ST=OH, L=Columbus, O=VikingVPN, OU=MyOrganizationalUnit, CN=VikingVPN CA/name=EasyRSA/emailAddress=me@myhost.mydomain
        Validity
            Not Before: Mar  5 03:16:54 2018 GMT
            Not After : Mar  2 03:16:54 2028 GMT
        Subject: CN=Client2104Certfece38
        Subject Public Key Info:
            Public Key Algorithm: rsaEncryption
                Public-Key: (4096 bit)
                Modulus:
                    00:ba:48:e1:3c:34:e0:4f:d8:80:b4:26:04:94:94:
                    49:5c:64:a6:ae:f6:e5:96:19:fd:1b:ca:80:af:39:
                    f7:85:21:b3:8c:21:3d:4a:f4:5a:e8:c5:72:f2:ee:
                    0e:74:71:11:07:9f:b8:97:87:f7:6c:ee:c8:9e:07:
                    1d:fc:88:fe:46:f3:66:a8:91:55:3d:f6:ae:53:ca:
                    da:02:3e:b1:31:c9:5c:e6:05:c2:08:da:4d:88:66:
                    53:88:a7:85:be:69:34:19:0e:d9:8f:cd:47:b5:5b:
                    54:c1:55:60:09:56:39:b5:01:46:3b:c5:ca:86:95:
                    bc:e9:9c:23:9a:69:29:67:49:97:fd:1c:56:39:22:
                    2f:9c:e9:e9:e1:a1:dd:4c:b8:8f:b9:46:b2:65:56:
                    33:29:7c:75:12:63:dc:94:1c:dd:30:91:20:51:64:
                    d0:fb:e8:f6:2d:a0:b1:3c:8d:2a:e2:c9:a7:1f:c1:
                    84:02:85:33:32:0e:cf:df:6a:03:f6:4a:63:8c:77:
                    ea:a5:e5:ad:67:8d:40:59:db:8e:20:0c:9c:1d:d6:
                    a1:21:d3:bb:ec:9b:e7:6a:f9:c2:42:17:93:b5:1f:
                    f8:49:fe:95:b1:f1:4a:b8:96:41:03:a3:18:a2:62:
                    49:97:8d:1e:22:c6:d0:39:17:46:5b:5c:ef:a4:bc:
                    b3:6a:ba:99:d6:64:a9:a8:82:99:dc:a1:73:ff:99:
                    02:cf:39:aa:8b:04:23:14:6a:ed:5c:40:b5:40:80:
                    3d:0e:ff:de:b7:95:44:51:98:2e:08:75:12:56:5c:
                    80:dc:e3:a5:04:62:57:85:10:13:f0:54:a8:48:fe:
                    9c:10:75:d3:9c:0f:a1:e5:2c:2b:d3:b0:4c:52:9a:
                    b4:b7:c9:45:39:a4:b6:84:66:0b:ad:79:ea:52:74:
                    e9:fe:0b:35:c0:39:59:b1:42:31:c8:6f:94:ed:d2:
                    d2:05:dc:35:9c:e2:d8:43:3a:05:be:f6:c8:5c:1f:
                    a1:e2:1b:db:d5:0f:89:64:87:c3:fc:16:6d:c2:94:
                    0b:61:f3:7f:c9:d8:55:39:2a:34:e4:1a:88:bc:43:
                    6f:17:98:b7:0a:e1:25:88:ba:a5:13:c4:21:be:da:
                    7d:70:51:c9:d0:73:ee:11:32:de:38:df:19:34:d0:
                    1f:12:7c:a5:27:ad:56:e7:25:88:46:2b:55:f5:ad:
                    2e:07:fa:af:49:fb:9e:38:e0:19:88:89:ed:88:ce:
                    ee:27:66:b1:42:15:d9:3b:8b:92:3e:7e:71:ac:61:
                    49:54:27:30:98:9c:65:39:74:d7:d8:36:21:03:d4:
                    e5:44:2a:77:d1:14:56:3a:66:2d:dd:28:3c:e1:47:
                    40:a3:b1
                Exponent: 65537 (0x10001)
        X509v3 extensions:
            X509v3 Basic Constraints: 
                CA:FALSE
            Netscape Comment: 
                Easy-RSA Generated Certificate
            X509v3 Subject Key Identifier: 
                C1:EA:E1:97:A6:28:AA:72:8C:7A:CE:C8:70:C0:33:B9:75:09:9A:3D
            X509v3 Authority Key Identifier: 
                keyid:12:CD:60:04:D2:A0:80:9E:70:ED:C6:99:B8:7B:2C:C6:52:FD:19:A1
                DirName:/C=US/ST=OH/L=Columbus/O=VikingVPN/OU=MyOrganizationalUnit/CN=VikingVPN CA/name=EasyRSA/emailAddress=me@myhost.mydomain
                serial:CF:35:85:EE:80:BF:2A:3E

            X509v3 Extended Key Usage: 
                TLS Web Client Authentication
            X509v3 Key Usage: 
                Digital Signature
    Signature Algorithm: sha256WithRSAEncryption
         42:40:4a:77:28:94:74:39:70:8c:7d:10:8a:a1:a4:3d:53:58:
         09:4f:84:ed:ab:22:d2:0a:d0:cb:bc:1a:95:9f:54:1c:e5:92:
         ec:37:af:77:85:b8:66:e6:e0:ad:31:03:18:54:7b:2d:90:67:
         cd:4c:f9:a0:51:f5:2a:22:10:2c:b1:17:dd:10:cb:39:16:cd:
         b3:dd:62:15:b1:09:18:46:d0:14:2d:67:c1:ad:c5:ec:9f:27:
         f8:1a:fd:99:22:9b:55:24:87:bb:bf:7f:69:6b:0d:a8:7d:1e:
         de:e1:ec:f0:d0:65:7e:c1:be:5b:76:1d:a6:ff:ab:58:2c:5c:
         7f:ca:cb:b4:58:52:0a:31:72:46:ff:49:79:0b:cd:5b:ba:d1:
         0b:b8:ea:2a:41:a8:0b:91:9c:7e:2a:ea:a4:bf:6d:5a:1d:6a:
         43:12:2a:6a:7f:c0:9d:87:3d:ab:c8:3d:fa:87:80:80:c4:c2:
         7f:f0:33:d7:0f:3d:b4:be:a8:a5:68:e7:5e:ff:8c:e5:3e:0e:
         1f:05:75:c3:1a:67:b0:46:e7:63:6d:f5:d4:39:25:ff:c9:af:
         ca:50:37:42:97:d6:c9:07:97:f5:fb:dc:18:de:45:1a:3e:c3:
         d3:8d:7c:6e:f2:40:e0:01:f4:4f:1d:b5:b4:2e:95:b7:10:41:
         ab:24:1d:42:b7:02:cf:e9:c8:a5:89:44:05:3a:9b:e5:fc:1c:
         f3:7f:27:c4:d4:0c:4d:f3:71:2c:c2:89:a4:c7:01:53:b9:98:
         e0:85:4b:eb:52:a1:0e:4d:fc:fa:7e:74:a9:7e:0f:17:41:1c:
         0a:1a:01:22:8a:42:e6:21:9c:6e:97:83:35:9f:5f:c7:32:3c:
         a6:cf:16:78:f6:b8:5d:15:97:6b:9c:f4:67:2a:c9:7b:35:40:
         03:24:6e:3b:e3:32:97:77:83:a4:d1:59:cb:8a:ec:c2:0b:7d:
         31:52:bf:67:ce:11:cc:6c:23:09:87:4c:c4:f2:d3:ce:05:30:
         78:b2:1b:dd:03:22:73:b3:3a:c2:c8:cb:77:d3:95:9a:69:2c:
         03:90:1c:a0:4c:0a:82:11:f5:54:3a:00:e6:a9:10:07:8d:1b:
         9f:72:01:79:0a:75:85:83:51:8c:5c:58:ab:c9:32:3c:92:38:
         10:d1:43:23:54:16:9b:81:89:ea:9b:f1:c4:a5:40:47:f6:14:
         2a:5e:5a:62:5f:ad:29:bb:1b:ee:3e:0e:41:41:18:f3:16:c5:
         27:1c:b5:e8:51:38:17:07:4d:0b:22:5c:12:7d:be:21:60:70:
         30:97:6c:af:69:fd:52:7d:bc:1e:a8:bb:9b:cd:29:18:6a:ae:
         58:c4:7c:e0:48:1b:00:e0
-----BEGIN CERTIFICATE-----
MIIGrTCCBJWgAwIBAgICMZ8wDQYJKoZIhvcNAQELBQAwgawxCzAJBgNVBAYTAlVT
MQswCQYDVQQIEwJPSDERMA8GA1UEBxMIQ29sdW1idXMxEjAQBgNVBAoTCVZpa2lu
Z1ZQTjEdMBsGA1UECxMUTXlPcmdhbml6YXRpb25hbFVuaXQxFTATBgNVBAMTDFZp
a2luZ1ZQTiBDQTEQMA4GA1UEKRMHRWFzeVJTQTEhMB8GCSqGSIb3DQEJARYSbWVA
bXlob3N0Lm15ZG9tYWluMB4XDTE4MDMwNTAzMTY1NFoXDTI4MDMwMjAzMTY1NFow
HzEdMBsGA1UEAxMUQ2xpZW50MjEwNENlcnRmZWNlMzgwggIiMA0GCSqGSIb3DQEB
AQUAA4ICDwAwggIKAoICAQC6SOE8NOBP2IC0JgSUlElcZKau9uWWGf0byoCvOfeF
IbOMIT1K9FroxXLy7g50cREHn7iXh/ds7sieBx38iP5G82aokVU99q5TytoCPrEx
yVzmBcII2k2IZlOIp4W+aTQZDtmPzUe1W1TBVWAJVjm1AUY7xcqGlbzpnCOaaSln
SZf9HFY5Ii+c6enhod1MuI+5RrJlVjMpfHUSY9yUHN0wkSBRZND76PYtoLE8jSri
yacfwYQChTMyDs/fagP2SmOMd+ql5a1njUBZ244gDJwd1qEh07vsm+dq+cJCF5O1
H/hJ/pWx8Uq4lkEDoxiiYkmXjR4ixtA5F0ZbXO+kvLNqupnWZKmogpncoXP/mQLP
OaqLBCMUau1cQLVAgD0O/963lURRmC4IdRJWXIDc46UEYleFEBPwVKhI/pwQddOc
D6HlLCvTsExSmrS3yUU5pLaEZguteepSdOn+CzXAOVmxQjHIb5Tt0tIF3DWc4thD
OgW+9shcH6HiG9vVD4lkh8P8Fm3ClAth83/J2FU5KjTkGoi8Q28XmLcK4SWIuqUT
xCG+2n1wUcnQc+4RMt443xk00B8SfKUnrVbnJYhGK1X1rS4H+q9J+5444BmIie2I
zu4nZrFCFdk7i5I+fnGsYUlUJzCYnGU5dNfYNiED1OVEKnfRFFY6Zi3dKDzhR0Cj
sQIDAQABo4IBYzCCAV8wCQYDVR0TBAIwADAtBglghkgBhvhCAQ0EIBYeRWFzeS1S
U0EgR2VuZXJhdGVkIENlcnRpZmljYXRlMB0GA1UdDgQWBBTB6uGXpiiqcox6zshw
wDO5dQmaPTCB4QYDVR0jBIHZMIHWgBQSzWAE0qCAnnDtxpm4eyzGUv0ZoaGBsqSB
rzCBrDELMAkGA1UEBhMCVVMxCzAJBgNVBAgTAk9IMREwDwYDVQQHEwhDb2x1bWJ1
czESMBAGA1UEChMJVmlraW5nVlBOMR0wGwYDVQQLExRNeU9yZ2FuaXphdGlvbmFs
VW5pdDEVMBMGA1UEAxMMVmlraW5nVlBOIENBMRAwDgYDVQQpEwdFYXN5UlNBMSEw
HwYJKoZIhvcNAQkBFhJtZUBteWhvc3QubXlkb21haW6CCQDPNYXugL8qPjATBgNV
HSUEDDAKBggrBgEFBQcDAjALBgNVHQ8EBAMCB4AwDQYJKoZIhvcNAQELBQADggIB
AEJASncolHQ5cIx9EIqhpD1TWAlPhO2rItIK0Mu8GpWfVBzlkuw3r3eFuGbm4K0x
AxhUey2QZ81M+aBR9SoiECyxF90QyzkWzbPdYhWxCRhG0BQtZ8GtxeyfJ/ga/Zki
m1Ukh7u/f2lrDah9Ht7h7PDQZX7Bvlt2Hab/q1gsXH/Ky7RYUgoxckb/SXkLzVu6
0Qu46ipBqAuRnH4q6qS/bVodakMSKmp/wJ2HPavIPfqHgIDEwn/wM9cPPbS+qKVo
517/jOU+Dh8FdcMaZ7BG52Nt9dQ5Jf/Jr8pQN0KX1skHl/X73BjeRRo+w9ONfG7y
QOAB9E8dtbQulbcQQaskHUK3As/pyKWJRAU6m+X8HPN/J8TUDE3zcSzCiaTHAVO5
mOCFS+tSoQ5N/Pp+dKl+DxdBHAoaASKKQuYhnG6XgzWfX8cyPKbPFnj2uF0Vl2uc
9GcqyXs1QAMkbjvjMpd3g6TRWcuK7MILfTFSv2fOEcxsIwmHTMTy084FMHiyG90D
InOzOsLIy3fTlZppLAOQHKBMCoIR9VQ6AOapEAeNG59yAXkKdYWDUYxcWKvJMjyS
OBDRQyNUFpuBieqb8cSlQEf2FCpeWmJfrSm7G+4+DkFBGPMWxScctehROBcHTQsi
XBJ9viFgcDCXbK9p/VJ9vB6ou5vNKRhqrljEfOBIGwDg
-----END CERTIFICATE-----
