Certificate:
    Data:
        Version: 3 (0x2)
        Serial Number: 12706 (0x31a2)
    Signature Algorithm: sha256WithRSAEncryption
        Issuer: C=US, ST=OH, L=Columbus, O=VikingVPN, OU=MyOrganizationalUnit, CN=VikingVPN CA/name=EasyRSA/emailAddress=me@myhost.mydomain
        Validity
            Not Before: Mar  5 19:13:28 2018 GMT
            Not After : Mar  2 19:13:28 2028 GMT
        Subject: CN=Client3246Cert9ba296
        Subject Public Key Info:
            Public Key Algorithm: rsaEncryption
                Public-Key: (4096 bit)
                Modulus:
                    00:a9:36:d1:47:19:bb:d5:82:4a:28:13:0a:0c:5c:
                    1b:70:b9:e3:97:fc:21:ed:83:bf:8c:d1:34:67:41:
                    d5:07:b2:86:64:96:4e:52:81:2f:92:61:38:94:8d:
                    0d:ff:5e:c6:d2:52:99:59:fc:df:4e:fe:df:ac:0b:
                    cb:3d:cc:58:a2:1d:6e:a5:21:76:f6:2b:ec:d2:68:
                    85:84:68:ec:3f:b0:5e:36:dd:ee:85:6c:e7:a3:d8:
                    07:6d:eb:85:9d:30:ee:01:aa:25:6c:79:d6:1e:08:
                    ac:75:b0:20:6a:aa:a7:b5:d2:f6:58:14:89:dd:10:
                    99:d6:00:64:9b:e5:42:8f:89:fd:5c:93:8c:7f:9a:
                    1a:c9:ff:ac:70:98:e8:2f:61:83:76:eb:65:f7:d8:
                    18:5e:01:56:ea:cf:7e:81:25:db:49:48:a8:31:93:
                    1e:9c:c1:cf:2a:4d:1b:22:83:68:3d:91:c6:7b:fd:
                    41:4b:fb:43:00:f4:ec:ef:1e:e8:97:44:74:99:4d:
                    0f:1f:3b:46:78:18:2f:30:73:d8:34:b0:1b:90:69:
                    88:c1:25:7b:cb:a2:03:0c:c7:68:35:f8:bb:07:d5:
                    ad:0b:1c:88:2a:40:ae:ae:f4:b0:b1:4d:58:ae:12:
                    4e:1c:a2:73:03:64:35:12:05:07:ff:fe:fb:5e:93:
                    15:d9:c0:a1:97:fb:66:d9:cc:11:2a:56:1b:1e:08:
                    55:13:6d:78:a0:f5:bd:60:92:5d:8b:92:ea:eb:36:
                    7e:55:ba:df:22:f7:fd:c1:2c:ba:cc:46:18:3d:e4:
                    c6:96:bb:a4:9d:64:7f:cb:2a:bf:83:e1:43:5b:cd:
                    ff:ad:65:9d:b8:c0:82:99:32:7d:b1:6c:21:2c:83:
                    43:13:48:7c:54:83:6e:fa:7c:9f:96:2f:68:a0:0f:
                    44:d0:9f:84:f8:fe:b3:13:8a:36:33:de:6e:e1:09:
                    c1:cd:de:17:f7:22:c4:6c:7f:88:71:79:5f:31:f5:
                    5e:64:d6:59:10:1f:bc:c9:55:96:e3:a1:bf:0c:21:
                    68:42:44:8a:67:5b:7e:66:b7:c9:48:a8:4b:57:e8:
                    42:8b:fb:19:8d:65:f3:4c:e8:e6:17:1e:d4:5f:cf:
                    7f:74:d2:0b:72:ee:96:b4:bd:28:6b:21:fc:3a:e5:
                    b6:47:9f:d2:0e:53:59:22:9b:c7:67:f0:1e:66:86:
                    5c:f5:7a:fa:9f:4b:52:c8:1d:0a:4e:aa:d5:7a:bf:
                    dd:8b:c4:09:d7:43:cd:aa:2b:1d:7d:8a:fb:cd:d7:
                    65:a1:67:a2:47:71:d5:24:45:ea:ea:48:38:7a:9f:
                    61:1c:3c:24:5d:ca:12:4d:6a:35:1a:44:a0:c1:46:
                    03:1c:9f
                Exponent: 65537 (0x10001)
        X509v3 extensions:
            X509v3 Basic Constraints: 
                CA:FALSE
            Netscape Comment: 
                Easy-RSA Generated Certificate
            X509v3 Subject Key Identifier: 
                80:D7:DD:1F:5B:64:80:38:23:21:B9:01:A8:35:FE:EA:8F:2C:DC:7F
            X509v3 Authority Key Identifier: 
                keyid:12:CD:60:04:D2:A0:80:9E:70:ED:C6:99:B8:7B:2C:C6:52:FD:19:A1
                DirName:/C=US/ST=OH/L=Columbus/O=VikingVPN/OU=MyOrganizationalUnit/CN=VikingVPN CA/name=EasyRSA/emailAddress=me@myhost.mydomain
                serial:CF:35:85:EE:80:BF:2A:3E

            X509v3 Extended Key Usage: 
                TLS Web Client Authentication
            X509v3 Key Usage: 
                Digital Signature
    Signature Algorithm: sha256WithRSAEncryption
         6d:7c:c1:42:d3:28:be:d7:66:f7:99:1a:20:99:c3:d2:60:68:
         10:97:5e:be:32:fa:3c:c6:7b:37:3e:cb:de:82:01:48:54:f3:
         07:83:41:99:6e:1d:bd:f9:e0:be:0b:07:23:06:1a:62:e6:60:
         76:73:da:49:18:56:15:0e:44:4a:c2:b7:d5:65:9e:3d:0c:3a:
         f7:6d:12:69:48:5c:78:f6:58:99:6c:7c:fe:b7:a6:f4:af:11:
         34:b5:59:2d:48:53:d9:9a:62:ba:c0:a3:32:35:89:3d:fd:8c:
         19:7c:ce:ff:12:9c:3d:18:a6:f5:68:4a:de:3e:b3:e6:50:4c:
         99:2f:e7:2f:97:6b:67:b3:4c:d4:7e:70:9c:8c:0e:ad:c7:21:
         4b:96:2c:5c:e6:bc:64:4d:d1:7d:46:8f:00:30:51:b5:f8:d4:
         a2:e7:86:f7:66:64:6a:33:17:15:81:fb:e2:50:0d:71:84:ec:
         16:37:bc:7c:ed:b5:c5:6e:f1:f1:a6:cd:db:f0:82:41:c3:5e:
         44:7f:79:03:61:ac:b2:c8:17:f2:f9:7d:db:10:f8:31:6f:d2:
         a4:76:87:1f:fd:7b:49:9b:2f:7b:9b:34:90:58:48:c0:a2:2d:
         0c:4a:72:02:e1:14:88:e3:8c:7c:39:69:5b:6c:e8:57:10:8f:
         b9:45:18:4a:50:5d:0e:a3:1b:c4:7e:10:ef:37:76:d2:b3:3c:
         2d:21:c3:0d:48:ca:55:38:a9:11:a0:e7:a5:fd:9f:38:a1:8d:
         5b:63:8f:63:dc:1d:1a:83:92:25:e0:2f:e5:42:47:b2:62:e4:
         31:70:2b:d3:2d:67:16:d8:28:cf:0a:98:43:83:7e:bc:9d:11:
         c8:89:b2:2b:25:0a:e6:4e:fb:8d:d8:81:6a:16:83:a6:0e:12:
         4a:8d:32:bf:04:b1:4f:41:f7:7d:b4:4e:a3:96:66:09:ba:92:
         8e:31:97:b7:ab:43:d5:76:d5:1d:c1:c6:05:bd:f5:29:7d:8f:
         1d:73:9c:2e:27:df:6f:90:1a:ac:90:53:d0:14:c0:76:e8:52:
         83:99:b4:1d:23:f4:38:6f:61:ec:98:9d:53:37:2f:70:1c:e3:
         fc:47:73:40:02:4a:52:1c:61:07:95:e0:60:7e:43:97:d8:2e:
         c6:3d:8b:7d:b0:b0:26:09:44:e5:ca:0e:9d:f4:87:f7:ee:74:
         08:f3:76:23:02:0e:31:75:7b:66:3d:99:06:02:b5:c3:98:f9:
         18:e2:02:4b:51:35:3d:89:21:29:a5:e7:4e:a4:72:f8:52:24:
         23:d9:3d:2e:4a:9d:c3:be:03:77:5a:14:f5:a6:dd:0d:39:50:
         b5:e7:16:35:1b:ac:1f:d3
-----BEGIN CERTIFICATE-----
MIIGrTCCBJWgAwIBAgICMaIwDQYJKoZIhvcNAQELBQAwgawxCzAJBgNVBAYTAlVT
MQswCQYDVQQIEwJPSDERMA8GA1UEBxMIQ29sdW1idXMxEjAQBgNVBAoTCVZpa2lu
Z1ZQTjEdMBsGA1UECxMUTXlPcmdhbml6YXRpb25hbFVuaXQxFTATBgNVBAMTDFZp
a2luZ1ZQTiBDQTEQMA4GA1UEKRMHRWFzeVJTQTEhMB8GCSqGSIb3DQEJARYSbWVA
bXlob3N0Lm15ZG9tYWluMB4XDTE4MDMwNTE5MTMyOFoXDTI4MDMwMjE5MTMyOFow
HzEdMBsGA1UEAxMUQ2xpZW50MzI0NkNlcnQ5YmEyOTYwggIiMA0GCSqGSIb3DQEB
AQUAA4ICDwAwggIKAoICAQCpNtFHGbvVgkooEwoMXBtwueOX/CHtg7+M0TRnQdUH
soZklk5SgS+SYTiUjQ3/XsbSUplZ/N9O/t+sC8s9zFiiHW6lIXb2K+zSaIWEaOw/
sF423e6FbOej2Adt64WdMO4BqiVsedYeCKx1sCBqqqe10vZYFIndEJnWAGSb5UKP
if1ck4x/mhrJ/6xwmOgvYYN262X32BheAVbqz36BJdtJSKgxkx6cwc8qTRsig2g9
kcZ7/UFL+0MA9OzvHuiXRHSZTQ8fO0Z4GC8wc9g0sBuQaYjBJXvLogMMx2g1+LsH
1a0LHIgqQK6u9LCxTViuEk4conMDZDUSBQf//vtekxXZwKGX+2bZzBEqVhseCFUT
bXig9b1gkl2LkurrNn5Vut8i9/3BLLrMRhg95MaWu6SdZH/LKr+D4UNbzf+tZZ24
wIKZMn2xbCEsg0MTSHxUg276fJ+WL2igD0TQn4T4/rMTijYz3m7hCcHN3hf3IsRs
f4hxeV8x9V5k1lkQH7zJVZbjob8MIWhCRIpnW35mt8lIqEtX6EKL+xmNZfNM6OYX
HtRfz3900gty7pa0vShrIfw65bZHn9IOU1kim8dn8B5mhlz1evqfS1LIHQpOqtV6
v92LxAnXQ82qKx19ivvN12WhZ6JHcdUkRerqSDh6n2EcPCRdyhJNajUaRKDBRgMc
nwIDAQABo4IBYzCCAV8wCQYDVR0TBAIwADAtBglghkgBhvhCAQ0EIBYeRWFzeS1S
U0EgR2VuZXJhdGVkIENlcnRpZmljYXRlMB0GA1UdDgQWBBSA190fW2SAOCMhuQGo
Nf7qjyzcfzCB4QYDVR0jBIHZMIHWgBQSzWAE0qCAnnDtxpm4eyzGUv0ZoaGBsqSB
rzCBrDELMAkGA1UEBhMCVVMxCzAJBgNVBAgTAk9IMREwDwYDVQQHEwhDb2x1bWJ1
czESMBAGA1UEChMJVmlraW5nVlBOMR0wGwYDVQQLExRNeU9yZ2FuaXphdGlvbmFs
VW5pdDEVMBMGA1UEAxMMVmlraW5nVlBOIENBMRAwDgYDVQQpEwdFYXN5UlNBMSEw
HwYJKoZIhvcNAQkBFhJtZUBteWhvc3QubXlkb21haW6CCQDPNYXugL8qPjATBgNV
HSUEDDAKBggrBgEFBQcDAjALBgNVHQ8EBAMCB4AwDQYJKoZIhvcNAQELBQADggIB
AG18wULTKL7XZveZGiCZw9JgaBCXXr4y+jzGezc+y96CAUhU8weDQZluHb354L4L
ByMGGmLmYHZz2kkYVhUORErCt9Vlnj0MOvdtEmlIXHj2WJlsfP63pvSvETS1WS1I
U9maYrrAozI1iT39jBl8zv8SnD0YpvVoSt4+s+ZQTJkv5y+Xa2ezTNR+cJyMDq3H
IUuWLFzmvGRN0X1GjwAwUbX41KLnhvdmZGozFxWB++JQDXGE7BY3vHzttcVu8fGm
zdvwgkHDXkR/eQNhrLLIF/L5fdsQ+DFv0qR2hx/9e0mbL3ubNJBYSMCiLQxKcgLh
FIjjjHw5aVts6FcQj7lFGEpQXQ6jG8R+EO83dtKzPC0hww1IylU4qRGg56X9nzih
jVtjj2PcHRqDkiXgL+VCR7Ji5DFwK9MtZxbYKM8KmEODfrydEciJsislCuZO+43Y
gWoWg6YOEkqNMr8EsU9B9320TqOWZgm6ko4xl7erQ9V21R3BxgW99Sl9jx1znC4n
32+QGqyQU9AUwHboUoOZtB0j9DhvYeyYnVM3L3Ac4/xHc0ACSlIcYQeV4GB+Q5fY
LsY9i32wsCYJROXKDp30h/fudAjzdiMCDjF1e2Y9mQYCtcOY+RjiAktRNT2JISml
506kcvhSJCPZPS5KncO+A3daFPWm3Q05ULXnFjUbrB/T
-----END CERTIFICATE-----
