Certificate:
    Data:
        Version: 3 (0x2)
        Serial Number: 12722 (0x31b2)
    Signature Algorithm: sha256WithRSAEncryption
        Issuer: C=US, ST=OH, L=Columbus, O=VikingVPN, OU=MyOrganizationalUnit, CN=VikingVPN CA/name=EasyRSA/emailAddress=me@myhost.mydomain
        Validity
            Not Before: Mar  8 21:03:51 2018 GMT
            Not After : Mar  5 21:03:51 2028 GMT
        Subject: CN=Client1346Certb23c18
        Subject Public Key Info:
            Public Key Algorithm: rsaEncryption
                Public-Key: (4096 bit)
                Modulus:
                    00:da:c8:7c:89:a0:f5:dd:52:a7:53:4f:f8:fe:ac:
                    8e:29:f1:1b:51:1c:55:3c:8c:14:46:fd:48:a2:92:
                    ac:a2:fe:69:a6:c9:54:cf:41:7e:16:10:84:9d:f9:
                    bc:9a:50:71:fd:d4:33:7e:40:7e:4b:f9:63:6a:5a:
                    c4:93:b1:38:42:0f:87:bd:a3:30:e1:2d:87:6c:f6:
                    bb:ff:c1:c1:6e:b8:15:fe:c8:ae:94:78:f2:d3:c7:
                    16:ed:33:c1:70:52:0d:1f:9e:00:9c:69:db:94:7e:
                    36:f5:da:02:ea:1e:22:eb:f5:12:80:f1:38:71:0f:
                    6a:44:d8:10:99:cb:7e:99:6f:f9:61:85:da:ed:88:
                    3f:22:63:15:7f:d7:02:9b:90:50:83:7d:8c:48:c9:
                    6b:2f:54:9c:ac:35:1f:5b:da:89:b7:16:51:2a:a6:
                    89:fd:44:4d:90:1d:d2:49:42:cc:a8:98:66:50:c4:
                    af:5c:37:06:50:20:b4:71:ca:79:8f:c5:fc:c4:f6:
                    74:65:72:f9:c5:6b:59:46:e2:06:87:c9:6f:f2:ea:
                    46:35:26:2b:42:2d:1c:c1:16:6d:84:8f:cb:95:1e:
                    63:6e:1e:3a:00:42:fa:e5:4d:21:28:d2:24:a9:e9:
                    90:e6:ce:18:c8:ae:b1:19:0d:41:e3:c4:d2:31:4d:
                    3f:63:14:6a:6e:60:f7:fb:38:28:0a:6b:c0:4f:b1:
                    73:ce:f5:99:9d:ac:b3:04:b5:08:b0:50:d8:c3:96:
                    c0:78:48:ff:9f:7d:ac:3e:6a:a9:92:1e:46:ca:27:
                    d6:da:3d:fd:44:d2:f1:8e:2b:a4:83:e5:31:d3:d1:
                    b8:49:12:c8:2a:b1:01:d2:01:c2:cd:51:33:25:67:
                    d9:47:22:50:78:dd:6f:62:cc:41:90:46:9d:0d:7b:
                    be:4c:2e:30:62:7c:97:d0:59:b5:c2:c1:b3:5f:ab:
                    e3:6e:07:dc:22:6c:2d:c9:d9:fa:f7:85:bc:fc:bf:
                    ed:35:ab:2b:99:17:f3:2a:ce:4d:98:bd:6a:4f:46:
                    cf:d0:67:3b:88:8f:e0:50:e4:8f:fc:31:64:20:36:
                    cc:08:c5:ba:8e:f0:46:cd:a5:a0:5b:94:50:2c:bd:
                    a0:7a:4e:e2:a0:4a:e8:60:6d:81:c6:df:af:87:16:
                    6d:55:47:1b:45:c0:aa:25:32:55:de:fd:39:d2:20:
                    6e:d0:62:6d:89:d3:3b:f6:5c:f6:c8:e9:87:57:7c:
                    a9:6e:e3:c6:c3:fa:ad:73:f2:6f:31:56:5e:58:06:
                    af:8f:a3:02:0a:0b:0e:27:68:4e:35:cf:17:52:ee:
                    fc:7e:35:5e:5a:3b:40:c0:f1:f1:71:ac:ce:0d:bb:
                    92:81:91
                Exponent: 65537 (0x10001)
        X509v3 extensions:
            X509v3 Basic Constraints: 
                CA:FALSE
            Netscape Comment: 
                Easy-RSA Generated Certificate
            X509v3 Subject Key Identifier: 
                07:79:44:23:3D:37:2A:96:21:BB:5F:3E:2D:48:0F:B1:15:D4:26:F7
            X509v3 Authority Key Identifier: 
                keyid:12:CD:60:04:D2:A0:80:9E:70:ED:C6:99:B8:7B:2C:C6:52:FD:19:A1
                DirName:/C=US/ST=OH/L=Columbus/O=VikingVPN/OU=MyOrganizationalUnit/CN=VikingVPN CA/name=EasyRSA/emailAddress=me@myhost.mydomain
                serial:CF:35:85:EE:80:BF:2A:3E

            X509v3 Extended Key Usage: 
                TLS Web Client Authentication
            X509v3 Key Usage: 
                Digital Signature
    Signature Algorithm: sha256WithRSAEncryption
         15:59:8e:c6:b8:10:4a:c4:a5:b3:0a:73:c5:d2:ed:db:55:ce:
         67:a0:a4:ca:a8:d1:fd:f8:de:0e:ce:e1:65:cd:b6:72:e5:41:
         17:cb:a5:1f:ad:39:88:35:29:1a:b5:8e:93:c4:90:f8:aa:90:
         91:21:44:12:82:f8:f0:03:a6:a6:19:1b:c4:89:9c:4e:1d:34:
         cb:3b:1c:b6:07:65:45:01:a6:e0:3d:a2:5b:bb:c1:4e:89:cc:
         81:95:fd:7b:93:85:13:f0:bb:9b:a4:99:96:31:60:1e:67:94:
         a2:d1:e3:13:c9:df:88:99:e8:d5:f6:d7:bb:57:71:ed:98:89:
         34:3b:1d:fe:00:af:ef:b2:5f:f3:5f:2f:1a:fa:df:d6:f5:ae:
         c6:f0:55:1d:57:d4:dc:43:23:15:7c:17:80:e2:71:74:d1:f7:
         1d:50:03:ec:ee:73:ee:22:93:4a:97:70:1c:e3:29:ec:98:33:
         0f:7d:2e:91:cb:d7:34:0f:56:69:09:64:75:54:28:0b:2c:e7:
         ee:5f:5c:a7:7c:28:c4:8d:d1:a4:80:66:90:03:7e:26:a6:72:
         08:a1:60:78:cc:72:13:49:18:8a:91:f4:42:16:83:97:53:c6:
         4e:3d:43:d3:cf:88:a2:aa:00:12:b4:3e:3b:7f:d3:04:7e:ea:
         2a:d6:ed:a9:6f:2e:10:64:3a:51:8b:48:9a:88:e1:ac:2f:ea:
         7f:20:80:07:8c:3c:20:ff:0c:69:4b:80:db:9e:af:eb:b4:11:
         3a:71:f8:d0:fa:2a:a7:9f:39:65:c1:62:cd:23:3d:ac:69:18:
         cf:4c:1b:37:81:45:76:3f:5c:07:0f:30:37:9d:bb:09:1a:39:
         f8:a3:39:59:24:26:e6:f8:88:75:23:50:9c:7b:d9:c3:0c:a1:
         ae:26:c9:25:31:30:f3:92:d6:e9:f1:4a:62:c6:cd:67:cd:6a:
         d9:b0:f4:12:84:60:91:a6:3b:0e:96:fd:f8:af:c8:5f:31:c9:
         b8:09:ab:f3:fe:70:e7:22:25:fc:7f:b6:90:1e:e8:29:54:dc:
         74:67:c4:bf:9c:ba:0c:84:fa:53:67:1e:5e:f4:39:07:c2:1e:
         ea:5c:b9:57:33:19:12:e9:0e:43:9a:11:2a:e0:bf:c5:d5:c1:
         2e:49:de:dc:30:ad:19:8a:be:41:ab:40:18:f0:b0:a5:50:fb:
         12:56:e5:c2:c0:35:e0:92:ec:26:9e:81:3e:77:13:1a:cf:eb:
         38:26:cd:6e:c8:a0:9d:56:17:f1:cc:8f:cf:62:99:77:95:1e:
         f1:29:66:3f:0b:93:4f:eb:0e:97:86:75:db:ed:8d:b6:f8:31:
         fb:ee:4b:03:14:ef:75:f1
-----BEGIN CERTIFICATE-----
MIIGrTCCBJWgAwIBAgICMbIwDQYJKoZIhvcNAQELBQAwgawxCzAJBgNVBAYTAlVT
MQswCQYDVQQIEwJPSDERMA8GA1UEBxMIQ29sdW1idXMxEjAQBgNVBAoTCVZpa2lu
Z1ZQTjEdMBsGA1UECxMUTXlPcmdhbml6YXRpb25hbFVuaXQxFTATBgNVBAMTDFZp
a2luZ1ZQTiBDQTEQMA4GA1UEKRMHRWFzeVJTQTEhMB8GCSqGSIb3DQEJARYSbWVA
bXlob3N0Lm15ZG9tYWluMB4XDTE4MDMwODIxMDM1MVoXDTI4MDMwNTIxMDM1MVow
HzEdMBsGA1UEAxMUQ2xpZW50MTM0NkNlcnRiMjNjMTgwggIiMA0GCSqGSIb3DQEB
AQUAA4ICDwAwggIKAoICAQDayHyJoPXdUqdTT/j+rI4p8RtRHFU8jBRG/Uiikqyi
/mmmyVTPQX4WEISd+byaUHH91DN+QH5L+WNqWsSTsThCD4e9ozDhLYds9rv/wcFu
uBX+yK6UePLTxxbtM8FwUg0fngCcaduUfjb12gLqHiLr9RKA8ThxD2pE2BCZy36Z
b/lhhdrtiD8iYxV/1wKbkFCDfYxIyWsvVJysNR9b2om3FlEqpon9RE2QHdJJQsyo
mGZQxK9cNwZQILRxynmPxfzE9nRlcvnFa1lG4gaHyW/y6kY1JitCLRzBFm2Ej8uV
HmNuHjoAQvrlTSEo0iSp6ZDmzhjIrrEZDUHjxNIxTT9jFGpuYPf7OCgKa8BPsXPO
9ZmdrLMEtQiwUNjDlsB4SP+ffaw+aqmSHkbKJ9baPf1E0vGOK6SD5THT0bhJEsgq
sQHSAcLNUTMlZ9lHIlB43W9izEGQRp0Ne75MLjBifJfQWbXCwbNfq+NuB9wibC3J
2fr3hbz8v+01qyuZF/Mqzk2YvWpPRs/QZzuIj+BQ5I/8MWQgNswIxbqO8EbNpaBb
lFAsvaB6TuKgSuhgbYHG36+HFm1VRxtFwKolMlXe/TnSIG7QYm2J0zv2XPbI6YdX
fKlu48bD+q1z8m8xVl5YBq+PowIKCw4naE41zxdS7vx+NV5aO0DA8fFxrM4Nu5KB
kQIDAQABo4IBYzCCAV8wCQYDVR0TBAIwADAtBglghkgBhvhCAQ0EIBYeRWFzeS1S
U0EgR2VuZXJhdGVkIENlcnRpZmljYXRlMB0GA1UdDgQWBBQHeUQjPTcqliG7Xz4t
SA+xFdQm9zCB4QYDVR0jBIHZMIHWgBQSzWAE0qCAnnDtxpm4eyzGUv0ZoaGBsqSB
rzCBrDELMAkGA1UEBhMCVVMxCzAJBgNVBAgTAk9IMREwDwYDVQQHEwhDb2x1bWJ1
czESMBAGA1UEChMJVmlraW5nVlBOMR0wGwYDVQQLExRNeU9yZ2FuaXphdGlvbmFs
VW5pdDEVMBMGA1UEAxMMVmlraW5nVlBOIENBMRAwDgYDVQQpEwdFYXN5UlNBMSEw
HwYJKoZIhvcNAQkBFhJtZUBteWhvc3QubXlkb21haW6CCQDPNYXugL8qPjATBgNV
HSUEDDAKBggrBgEFBQcDAjALBgNVHQ8EBAMCB4AwDQYJKoZIhvcNAQELBQADggIB
ABVZjsa4EErEpbMKc8XS7dtVzmegpMqo0f343g7O4WXNtnLlQRfLpR+tOYg1KRq1
jpPEkPiqkJEhRBKC+PADpqYZG8SJnE4dNMs7HLYHZUUBpuA9olu7wU6JzIGV/XuT
hRPwu5ukmZYxYB5nlKLR4xPJ34iZ6NX217tXce2YiTQ7Hf4Ar++yX/NfLxr639b1
rsbwVR1X1NxDIxV8F4DicXTR9x1QA+zuc+4ik0qXcBzjKeyYMw99LpHL1zQPVmkJ
ZHVUKAss5+5fXKd8KMSN0aSAZpADfiamcgihYHjMchNJGIqR9EIWg5dTxk49Q9PP
iKKqABK0Pjt/0wR+6irW7alvLhBkOlGLSJqI4awv6n8ggAeMPCD/DGlLgNuer+u0
ETpx+ND6KqefOWXBYs0jPaxpGM9MGzeBRXY/XAcPMDeduwkaOfijOVkkJub4iHUj
UJx72cMMoa4mySUxMPOS1unxSmLGzWfNatmw9BKEYJGmOw6W/fivyF8xybgJq/P+
cOciJfx/tpAe6ClU3HRnxL+cugyE+lNnHl70OQfCHupcuVczGRLpDkOaESrgv8XV
wS5J3twwrRmKvkGrQBjwsKVQ+xJW5cLANeCS7CaegT53ExrP6zgmzW7IoJ1WF/HM
j89imXeVHvEpZj8Lk0/rDpeGddvtjbb4MfvuSwMU73Xx
-----END CERTIFICATE-----
