Certificate:
    Data:
        Version: 3 (0x2)
        Serial Number: 12727 (0x31b7)
    Signature Algorithm: sha256WithRSAEncryption
        Issuer: C=US, ST=OH, L=Columbus, O=VikingVPN, OU=MyOrganizationalUnit, CN=VikingVPN CA/name=EasyRSA/emailAddress=me@myhost.mydomain
        Validity
            Not Before: Mar 10 02:09:45 2018 GMT
            Not After : Mar  7 02:09:45 2028 GMT
        Subject: CN=Client1086Certa187ca
        Subject Public Key Info:
            Public Key Algorithm: rsaEncryption
                Public-Key: (4096 bit)
                Modulus:
                    00:c2:69:aa:a6:1b:ff:05:ed:4c:a4:d9:d8:4d:7c:
                    fe:1f:64:59:71:21:e9:71:5b:43:e7:a3:2d:67:24:
                    4c:4d:bd:86:93:2d:a7:dc:c3:55:86:1d:97:30:9c:
                    e8:66:74:16:61:a6:8b:9a:06:0e:ae:35:04:03:d4:
                    5d:28:45:ce:34:47:a9:87:6e:8e:23:d6:0e:cc:10:
                    27:77:ba:60:f2:f1:cb:ea:1b:a0:d9:03:02:6f:98:
                    ce:9e:06:39:63:7a:05:69:51:62:28:b6:86:76:cd:
                    d5:fe:ae:a3:43:11:bd:f3:75:49:c2:ff:a8:5f:43:
                    6c:30:8b:b3:4f:29:2c:34:41:1a:d3:40:1a:ff:91:
                    ea:9b:1f:9a:fb:8a:d1:d7:12:df:ca:97:60:59:8e:
                    21:b2:55:af:e3:63:4a:77:e3:2c:a1:8c:94:14:d7:
                    e7:9f:32:5e:10:00:3f:8c:71:0f:aa:ca:c9:bf:80:
                    d8:27:db:ee:5e:b4:e6:3e:cc:c1:23:4b:3b:09:bf:
                    21:c2:10:bc:06:fa:8b:f9:02:05:46:d9:fa:62:cb:
                    9c:17:73:84:7d:42:dd:47:fe:95:37:6f:f4:33:1a:
                    19:b1:ba:b8:f9:4f:02:1e:70:cd:ba:81:56:47:26:
                    c9:f4:58:40:8f:46:98:97:0f:6a:ba:d9:48:06:78:
                    9d:74:e5:a4:06:43:40:30:48:54:a6:20:93:d6:f1:
                    0f:fc:4f:1c:57:75:c9:14:77:78:c0:97:84:2f:76:
                    23:7e:04:07:3a:c3:e8:3b:6d:7f:82:6d:0b:03:e1:
                    f1:01:6f:7a:51:65:37:07:3e:cf:3d:50:f1:d6:e9:
                    52:70:d6:c9:51:ce:5d:21:31:76:6c:bf:a1:05:28:
                    53:9a:e7:34:04:17:35:32:b4:ed:ac:92:d1:83:f7:
                    27:7c:e0:fa:9a:dd:06:6e:76:81:46:ab:95:7f:db:
                    d6:d5:1e:6d:d3:c8:a7:76:e8:b1:7f:16:54:0f:d6:
                    c1:10:5a:41:91:9b:eb:b2:ee:cb:19:c7:9f:a5:b4:
                    26:bf:19:bc:5f:51:d0:3a:e3:4b:ad:aa:e0:00:d4:
                    2b:6a:de:10:42:c1:8b:f4:90:f3:27:c8:dd:fa:e0:
                    19:50:1c:ff:03:36:dd:18:64:44:d2:98:27:0f:b4:
                    b4:fe:28:8a:0e:6e:03:52:59:3f:03:38:f4:b2:c4:
                    11:2e:56:85:7a:46:c3:c1:fa:3f:09:56:31:6e:2c:
                    9b:be:90:11:5f:fa:56:b6:b0:61:b4:ba:a5:06:8c:
                    b5:ee:31:72:61:b6:c6:58:e8:f0:50:81:70:85:e8:
                    e4:61:75:2c:41:15:a5:2b:8e:06:33:17:bf:6b:9c:
                    27:82:ef
                Exponent: 65537 (0x10001)
        X509v3 extensions:
            X509v3 Basic Constraints: 
                CA:FALSE
            Netscape Comment: 
                Easy-RSA Generated Certificate
            X509v3 Subject Key Identifier: 
                C9:71:5B:12:0B:B6:CF:05:3A:A0:26:CB:3C:35:D6:D0:7D:41:6E:7B
            X509v3 Authority Key Identifier: 
                keyid:12:CD:60:04:D2:A0:80:9E:70:ED:C6:99:B8:7B:2C:C6:52:FD:19:A1
                DirName:/C=US/ST=OH/L=Columbus/O=VikingVPN/OU=MyOrganizationalUnit/CN=VikingVPN CA/name=EasyRSA/emailAddress=me@myhost.mydomain
                serial:CF:35:85:EE:80:BF:2A:3E

            X509v3 Extended Key Usage: 
                TLS Web Client Authentication
            X509v3 Key Usage: 
                Digital Signature
    Signature Algorithm: sha256WithRSAEncryption
         79:92:06:5d:7d:fd:53:f1:fb:8a:19:64:db:e2:8c:e6:fb:0b:
         8b:12:ef:bf:37:5b:5e:31:be:75:36:33:a7:ea:3e:1a:85:f9:
         7e:85:42:d3:0c:78:33:33:20:e1:ec:e9:87:5c:36:94:2f:d0:
         4e:65:ba:1b:27:02:10:11:b4:53:77:65:d9:43:84:6e:cc:4c:
         36:a8:4c:3c:b2:e1:77:5a:f9:2e:6e:f0:59:a3:47:af:6a:3a:
         03:cd:16:93:76:06:10:d9:f1:a4:48:62:cc:e9:ea:7b:57:28:
         40:99:58:73:5f:a4:9c:59:c7:4e:66:76:16:bc:f1:6a:43:99:
         99:bd:33:7f:f4:e8:00:95:19:ef:68:44:b8:32:aa:64:6c:99:
         39:12:e7:66:51:ef:1d:3c:af:27:9d:4a:39:6f:9a:20:57:ad:
         5a:5e:8f:a9:c1:16:86:12:79:fa:6f:61:7e:d7:06:22:43:89:
         97:eb:4f:ec:bc:96:a4:04:95:8f:e0:fa:b8:91:0b:2a:93:2b:
         0b:4f:a9:1a:8d:e0:a8:67:da:49:0b:ec:44:d2:26:fe:05:08:
         f4:b2:cb:90:b4:55:8a:31:43:be:99:13:cd:c1:df:00:09:98:
         11:38:2f:d3:6c:68:2f:5c:a7:95:4b:ed:33:40:bb:04:1e:ea:
         ba:16:5f:a3:4a:f3:6a:4f:1c:0b:fa:28:7a:d8:f1:bc:61:1a:
         d9:7b:07:3f:26:2d:1a:18:18:7f:91:68:cd:4a:e6:85:57:ba:
         0d:c8:6f:9f:13:de:cb:30:bc:6d:c3:49:4b:4e:f5:89:9a:5a:
         9b:3f:50:c8:dd:9f:03:37:6e:8a:b6:ed:95:69:9b:f7:fa:d9:
         fd:5f:4c:03:50:ed:70:a8:4c:05:db:0f:91:cd:3b:a1:04:26:
         fe:de:fe:89:b4:35:e8:95:ae:b1:35:7e:05:4e:2f:92:90:f0:
         82:e5:11:9c:9c:fd:90:a6:92:13:9f:da:ca:62:3e:65:cc:de:
         8c:4b:98:ae:7d:5d:cd:05:9b:6c:9a:9b:c9:76:35:16:74:e7:
         7d:c5:4f:78:0d:89:f8:ce:81:e0:f6:3e:01:99:25:c6:f5:de:
         84:75:0a:42:a8:e0:3f:16:8c:46:ff:f7:3c:20:53:86:3e:5b:
         4a:3e:74:8e:71:87:6c:1d:99:c0:1b:46:3f:c4:b7:ea:5d:ad:
         a3:3c:a1:c6:00:f3:01:4d:af:5a:6a:9e:af:15:48:f7:1e:27:
         aa:16:5e:ac:07:8b:0c:fd:03:b3:43:d9:5a:8e:e5:55:e3:89:
         0c:b1:84:2c:c2:c3:f2:70:86:9c:17:c4:d8:2c:79:f9:8b:bc:
         90:66:4d:6d:8e:62:5f:57
-----BEGIN CERTIFICATE-----
MIIGrTCCBJWgAwIBAgICMbcwDQYJKoZIhvcNAQELBQAwgawxCzAJBgNVBAYTAlVT
MQswCQYDVQQIEwJPSDERMA8GA1UEBxMIQ29sdW1idXMxEjAQBgNVBAoTCVZpa2lu
Z1ZQTjEdMBsGA1UECxMUTXlPcmdhbml6YXRpb25hbFVuaXQxFTATBgNVBAMTDFZp
a2luZ1ZQTiBDQTEQMA4GA1UEKRMHRWFzeVJTQTEhMB8GCSqGSIb3DQEJARYSbWVA
bXlob3N0Lm15ZG9tYWluMB4XDTE4MDMxMDAyMDk0NVoXDTI4MDMwNzAyMDk0NVow
HzEdMBsGA1UEAxMUQ2xpZW50MTA4NkNlcnRhMTg3Y2EwggIiMA0GCSqGSIb3DQEB
AQUAA4ICDwAwggIKAoICAQDCaaqmG/8F7Uyk2dhNfP4fZFlxIelxW0Pnoy1nJExN
vYaTLafcw1WGHZcwnOhmdBZhpouaBg6uNQQD1F0oRc40R6mHbo4j1g7MECd3umDy
8cvqG6DZAwJvmM6eBjljegVpUWIotoZ2zdX+rqNDEb3zdUnC/6hfQ2wwi7NPKSw0
QRrTQBr/keqbH5r7itHXEt/Kl2BZjiGyVa/jY0p34yyhjJQU1+efMl4QAD+McQ+q
ysm/gNgn2+5etOY+zMEjSzsJvyHCELwG+ov5AgVG2fpiy5wXc4R9Qt1H/pU3b/Qz
Ghmxurj5TwIecM26gVZHJsn0WECPRpiXD2q62UgGeJ105aQGQ0AwSFSmIJPW8Q/8
TxxXdckUd3jAl4QvdiN+BAc6w+g7bX+CbQsD4fEBb3pRZTcHPs89UPHW6VJw1slR
zl0hMXZsv6EFKFOa5zQEFzUytO2sktGD9yd84Pqa3QZudoFGq5V/29bVHm3TyKd2
6LF/FlQP1sEQWkGRm+uy7ssZx5+ltCa/GbxfUdA640utquAA1Ctq3hBCwYv0kPMn
yN364BlQHP8DNt0YZETSmCcPtLT+KIoObgNSWT8DOPSyxBEuVoV6RsPB+j8JVjFu
LJu+kBFf+la2sGG0uqUGjLXuMXJhtsZY6PBQgXCF6ORhdSxBFaUrjgYzF79rnCeC
7wIDAQABo4IBYzCCAV8wCQYDVR0TBAIwADAtBglghkgBhvhCAQ0EIBYeRWFzeS1S
U0EgR2VuZXJhdGVkIENlcnRpZmljYXRlMB0GA1UdDgQWBBTJcVsSC7bPBTqgJss8
NdbQfUFuezCB4QYDVR0jBIHZMIHWgBQSzWAE0qCAnnDtxpm4eyzGUv0ZoaGBsqSB
rzCBrDELMAkGA1UEBhMCVVMxCzAJBgNVBAgTAk9IMREwDwYDVQQHEwhDb2x1bWJ1
czESMBAGA1UEChMJVmlraW5nVlBOMR0wGwYDVQQLExRNeU9yZ2FuaXphdGlvbmFs
VW5pdDEVMBMGA1UEAxMMVmlraW5nVlBOIENBMRAwDgYDVQQpEwdFYXN5UlNBMSEw
HwYJKoZIhvcNAQkBFhJtZUBteWhvc3QubXlkb21haW6CCQDPNYXugL8qPjATBgNV
HSUEDDAKBggrBgEFBQcDAjALBgNVHQ8EBAMCB4AwDQYJKoZIhvcNAQELBQADggIB
AHmSBl19/VPx+4oZZNvijOb7C4sS7783W14xvnU2M6fqPhqF+X6FQtMMeDMzIOHs
6YdcNpQv0E5luhsnAhARtFN3ZdlDhG7MTDaoTDyy4Xda+S5u8FmjR69qOgPNFpN2
BhDZ8aRIYszp6ntXKECZWHNfpJxZx05mdha88WpDmZm9M3/06ACVGe9oRLgyqmRs
mTkS52ZR7x08ryedSjlvmiBXrVpej6nBFoYSefpvYX7XBiJDiZfrT+y8lqQElY/g
+riRCyqTKwtPqRqN4Khn2kkL7ETSJv4FCPSyy5C0VYoxQ76ZE83B3wAJmBE4L9Ns
aC9cp5VL7TNAuwQe6roWX6NK82pPHAv6KHrY8bxhGtl7Bz8mLRoYGH+RaM1K5oVX
ug3Ib58T3sswvG3DSUtO9YmaWps/UMjdnwM3boq27ZVpm/f62f1fTANQ7XCoTAXb
D5HNO6EEJv7e/om0NeiVrrE1fgVOL5KQ8ILlEZyc/ZCmkhOf2spiPmXM3oxLmK59
Xc0Fm2yam8l2NRZ0533FT3gNifjOgeD2PgGZJcb13oR1CkKo4D8WjEb/9zwgU4Y+
W0o+dI5xh2wdmcAbRj/Et+pdraM8ocYA8wFNr1pqnq8VSPceJ6oWXqwHiwz9A7ND
2VqO5VXjiQyxhCzCw/JwhpwXxNgsefmLvJBmTW2OYl9X
-----END CERTIFICATE-----
