Certificate:
    Data:
        Version: 3 (0x2)
        Serial Number: 12732 (0x31bc)
    Signature Algorithm: sha256WithRSAEncryption
        Issuer: C=US, ST=OH, L=Columbus, O=VikingVPN, OU=MyOrganizationalUnit, CN=VikingVPN CA/name=EasyRSA/emailAddress=me@myhost.mydomain
        Validity
            Not Before: Mar 10 12:37:54 2018 GMT
            Not After : Mar  7 12:37:54 2028 GMT
        Subject: CN=Client1702Certcf300e
        Subject Public Key Info:
            Public Key Algorithm: rsaEncryption
                Public-Key: (4096 bit)
                Modulus:
                    00:ba:68:38:a3:13:a9:63:3e:cf:67:19:83:ae:2f:
                    d6:2a:a4:e0:83:5b:21:4a:06:79:a0:e6:1e:90:5b:
                    cb:9e:f6:8a:65:ea:b1:d3:56:5c:d9:b5:1a:7b:55:
                    14:3f:ff:64:27:e4:31:0a:35:7e:9f:91:16:e9:d8:
                    86:60:bc:3e:3b:3e:62:17:fb:bc:44:be:ad:7d:c0:
                    3b:8e:15:e9:ae:2d:46:06:1e:45:8c:1f:9b:23:be:
                    a5:84:7d:de:51:81:ef:58:cf:42:8a:bd:42:63:79:
                    78:da:16:44:ea:3e:7c:47:f2:cb:6f:ef:b2:79:99:
                    e1:cc:49:8c:8c:70:69:cf:c0:0b:44:74:da:1c:99:
                    70:1d:0d:80:27:b8:b3:2a:1a:61:51:69:c9:cc:66:
                    95:35:d4:e0:b5:f2:2e:38:9c:09:be:80:b7:fe:d8:
                    e4:76:05:a7:1e:dc:40:a2:64:7e:0d:08:1a:56:d2:
                    7c:82:d0:4b:a5:20:2b:2f:aa:03:4e:58:51:7b:d2:
                    2f:f0:35:b1:5d:6b:52:73:2d:7a:55:e1:b0:9c:16:
                    84:df:e2:db:ff:e8:f1:e0:b0:a0:ad:1a:a9:75:11:
                    e9:72:f8:11:b5:0d:8c:71:f5:81:ed:03:d6:8f:c2:
                    63:e9:2a:65:27:dc:59:1c:51:58:dc:e4:e7:f5:e5:
                    e1:99:83:6c:c0:d4:6b:72:bb:0a:83:a8:e8:7c:ec:
                    68:b2:2f:d5:3d:47:91:e7:95:31:58:a1:39:cc:6e:
                    29:50:0a:67:98:a0:db:57:7a:71:a4:d7:b7:8f:82:
                    d9:3c:86:0c:15:79:bc:f9:97:28:af:2d:4c:95:41:
                    ff:cb:e0:8a:88:a9:2c:b4:00:ef:eb:6e:39:bd:a0:
                    a1:5e:c0:77:ca:b7:eb:ff:1c:2d:7d:15:7e:de:9f:
                    6c:89:4b:a7:79:2f:48:2b:67:10:35:48:ca:d0:57:
                    40:f4:e7:02:5a:35:93:1f:47:df:50:d4:65:fd:5d:
                    8f:f8:19:27:50:b4:6c:53:9e:15:20:32:4e:18:97:
                    a4:f9:96:82:78:f0:c2:cc:cf:33:cf:36:67:6c:fb:
                    5c:18:85:9e:97:3c:d1:5d:e5:af:80:b7:16:52:ad:
                    bc:a5:6a:4e:fb:3c:27:6d:86:76:d9:3d:5d:20:e4:
                    6c:13:1c:02:93:cd:e4:2b:fb:fc:6a:ab:63:c7:82:
                    b5:5a:93:2e:f5:1e:ca:c4:66:72:24:24:f2:1c:d5:
                    54:1f:71:00:f5:27:dd:96:bb:1b:17:fd:c1:a5:11:
                    2a:b2:15:b5:e5:40:e7:c2:6d:c0:cc:76:d1:02:e3:
                    70:44:b9:90:49:01:a7:83:30:87:0f:82:e7:80:9f:
                    27:7f:21
                Exponent: 65537 (0x10001)
        X509v3 extensions:
            X509v3 Basic Constraints: 
                CA:FALSE
            Netscape Comment: 
                Easy-RSA Generated Certificate
            X509v3 Subject Key Identifier: 
                1D:A0:DE:15:D3:9C:94:13:90:9F:DF:47:12:08:E3:A1:35:BC:4C:87
            X509v3 Authority Key Identifier: 
                keyid:12:CD:60:04:D2:A0:80:9E:70:ED:C6:99:B8:7B:2C:C6:52:FD:19:A1
                DirName:/C=US/ST=OH/L=Columbus/O=VikingVPN/OU=MyOrganizationalUnit/CN=VikingVPN CA/name=EasyRSA/emailAddress=me@myhost.mydomain
                serial:CF:35:85:EE:80:BF:2A:3E

            X509v3 Extended Key Usage: 
                TLS Web Client Authentication
            X509v3 Key Usage: 
                Digital Signature
    Signature Algorithm: sha256WithRSAEncryption
         3e:d3:9a:cc:16:d8:e0:3a:c4:db:46:8c:9f:f7:64:ac:c3:ce:
         d8:82:41:2b:47:07:40:a0:04:f9:5c:3d:f7:56:08:fc:06:c9:
         34:80:07:b0:30:76:61:8e:c3:70:3f:24:fd:76:9d:e2:01:2a:
         2d:ea:02:a7:fa:5b:ca:cf:a4:83:66:cd:17:1a:41:7e:ff:b4:
         10:04:33:64:e4:a6:58:0e:00:0f:d5:11:62:b9:01:af:13:28:
         d6:15:62:ef:45:43:c5:25:87:e2:64:23:8c:03:d7:54:d3:95:
         b2:c7:52:11:94:2e:6a:9d:13:03:8b:6a:37:7b:f7:0e:c2:51:
         9b:bd:b3:fe:12:7b:72:80:b6:41:d9:bf:d3:93:86:b8:76:d1:
         7a:b6:12:3a:d9:46:c9:f6:4a:b2:2d:a2:b3:1d:24:37:12:90:
         a2:7e:72:69:1b:37:9a:66:03:a9:68:58:33:b6:f4:f7:c0:8c:
         57:1d:fc:58:05:a5:93:a4:0c:8c:8f:36:b3:7d:d3:2d:5a:ec:
         a8:29:dd:fd:01:d5:97:64:01:5b:ec:73:e1:e3:d0:11:5e:16:
         91:c7:87:73:5f:46:8e:fd:69:8a:0f:e6:c2:f4:4e:56:d4:55:
         0c:18:8a:74:86:12:c8:49:cb:7f:24:92:eb:59:eb:86:bd:64:
         7a:52:d0:c3:8a:e7:8d:c8:62:5b:d8:83:d8:7b:75:cf:5d:82:
         d2:03:d2:94:48:53:7a:a3:b5:40:15:94:61:9e:76:3e:da:23:
         05:28:94:79:8f:0a:b5:ef:2b:1f:12:f5:28:f0:a8:79:2b:20:
         21:fa:93:8b:6f:c6:fb:a3:8f:f4:7e:d2:d1:94:6c:e7:b9:38:
         5a:da:bb:b1:d5:44:79:4e:6d:ab:d8:d7:ef:7e:78:53:38:2b:
         55:4f:c0:92:fe:9f:9f:ad:d3:05:58:6e:22:91:7d:2b:a1:11:
         0f:2e:43:37:03:b1:66:2d:d0:9d:48:4d:9d:2f:73:4f:27:6e:
         7e:6b:5d:b7:1b:6b:95:3a:31:a1:e0:98:a1:d9:ec:59:f3:af:
         83:d2:65:b7:05:5f:61:55:b3:b1:2e:c9:6a:35:1b:03:fd:8a:
         6f:6c:46:ce:63:2a:73:68:ba:7e:8f:04:7d:d6:c1:7a:94:78:
         49:9f:4c:52:35:86:43:68:a1:a8:f1:e4:2a:63:50:21:0b:dd:
         e2:73:6e:ce:c2:d4:2f:33:f5:e5:ac:47:65:de:c4:12:df:dd:
         fe:6c:64:34:b0:b2:c4:bd:6f:83:98:a9:e6:ec:88:ab:e6:77:
         b8:90:6e:cb:b4:73:e9:c5:77:b2:63:9b:ca:ce:5e:90:ad:74:
         5b:e5:b7:94:ad:fb:39:77
-----BEGIN CERTIFICATE-----
MIIGrTCCBJWgAwIBAgICMbwwDQYJKoZIhvcNAQELBQAwgawxCzAJBgNVBAYTAlVT
MQswCQYDVQQIEwJPSDERMA8GA1UEBxMIQ29sdW1idXMxEjAQBgNVBAoTCVZpa2lu
Z1ZQTjEdMBsGA1UECxMUTXlPcmdhbml6YXRpb25hbFVuaXQxFTATBgNVBAMTDFZp
a2luZ1ZQTiBDQTEQMA4GA1UEKRMHRWFzeVJTQTEhMB8GCSqGSIb3DQEJARYSbWVA
bXlob3N0Lm15ZG9tYWluMB4XDTE4MDMxMDEyMzc1NFoXDTI4MDMwNzEyMzc1NFow
HzEdMBsGA1UEAxMUQ2xpZW50MTcwMkNlcnRjZjMwMGUwggIiMA0GCSqGSIb3DQEB
AQUAA4ICDwAwggIKAoICAQC6aDijE6ljPs9nGYOuL9YqpOCDWyFKBnmg5h6QW8ue
9opl6rHTVlzZtRp7VRQ//2Qn5DEKNX6fkRbp2IZgvD47PmIX+7xEvq19wDuOFemu
LUYGHkWMH5sjvqWEfd5Rge9Yz0KKvUJjeXjaFkTqPnxH8stv77J5meHMSYyMcGnP
wAtEdNocmXAdDYAnuLMqGmFRacnMZpU11OC18i44nAm+gLf+2OR2Bace3ECiZH4N
CBpW0nyC0EulICsvqgNOWFF70i/wNbFda1JzLXpV4bCcFoTf4tv/6PHgsKCtGql1
Eely+BG1DYxx9YHtA9aPwmPpKmUn3FkcUVjc5Of15eGZg2zA1GtyuwqDqOh87Giy
L9U9R5HnlTFYoTnMbilQCmeYoNtXenGk17ePgtk8hgwVebz5lyivLUyVQf/L4IqI
qSy0AO/rbjm9oKFewHfKt+v/HC19FX7en2yJS6d5L0grZxA1SMrQV0D05wJaNZMf
R99Q1GX9XY/4GSdQtGxTnhUgMk4Yl6T5loJ48MLMzzPPNmds+1wYhZ6XPNFd5a+A
txZSrbylak77PCdthnbZPV0g5GwTHAKTzeQr+/xqq2PHgrVaky71HsrEZnIkJPIc
1VQfcQD1J92WuxsX/cGlESqyFbXlQOfCbcDMdtEC43BEuZBJAaeDMIcPgueAnyd/
IQIDAQABo4IBYzCCAV8wCQYDVR0TBAIwADAtBglghkgBhvhCAQ0EIBYeRWFzeS1S
U0EgR2VuZXJhdGVkIENlcnRpZmljYXRlMB0GA1UdDgQWBBQdoN4V05yUE5Cf30cS
COOhNbxMhzCB4QYDVR0jBIHZMIHWgBQSzWAE0qCAnnDtxpm4eyzGUv0ZoaGBsqSB
rzCBrDELMAkGA1UEBhMCVVMxCzAJBgNVBAgTAk9IMREwDwYDVQQHEwhDb2x1bWJ1
czESMBAGA1UEChMJVmlraW5nVlBOMR0wGwYDVQQLExRNeU9yZ2FuaXphdGlvbmFs
VW5pdDEVMBMGA1UEAxMMVmlraW5nVlBOIENBMRAwDgYDVQQpEwdFYXN5UlNBMSEw
HwYJKoZIhvcNAQkBFhJtZUBteWhvc3QubXlkb21haW6CCQDPNYXugL8qPjATBgNV
HSUEDDAKBggrBgEFBQcDAjALBgNVHQ8EBAMCB4AwDQYJKoZIhvcNAQELBQADggIB
AD7TmswW2OA6xNtGjJ/3ZKzDztiCQStHB0CgBPlcPfdWCPwGyTSAB7AwdmGOw3A/
JP12neIBKi3qAqf6W8rPpINmzRcaQX7/tBAEM2TkplgOAA/VEWK5Aa8TKNYVYu9F
Q8Ulh+JkI4wD11TTlbLHUhGULmqdEwOLajd79w7CUZu9s/4Se3KAtkHZv9OThrh2
0Xq2EjrZRsn2SrItorMdJDcSkKJ+cmkbN5pmA6loWDO29PfAjFcd/FgFpZOkDIyP
NrN90y1a7Kgp3f0B1ZdkAVvsc+Hj0BFeFpHHh3NfRo79aYoP5sL0TlbUVQwYinSG
EshJy38kkutZ64a9ZHpS0MOK543IYlvYg9h7dc9dgtID0pRIU3qjtUAVlGGedj7a
IwUolHmPCrXvKx8S9SjwqHkrICH6k4tvxvujj/R+0tGUbOe5OFrau7HVRHlObavY
1+9+eFM4K1VPwJL+n5+t0wVYbiKRfSuhEQ8uQzcDsWYt0J1ITZ0vc08nbn5rXbcb
a5U6MaHgmKHZ7Fnzr4PSZbcFX2FVs7EuyWo1GwP9im9sRs5jKnNoun6PBH3WwXqU
eEmfTFI1hkNooajx5CpjUCEL3eJzbs7C1C8z9eWsR2XexBLf3f5sZDSwssS9b4OY
qebsiKvmd7iQbsu0c+nFd7Jjm8rOXpCtdFvlt5St+zl3
-----END CERTIFICATE-----
