Certificate:
    Data:
        Version: 3 (0x2)
        Serial Number: 12766 (0x31de)
    Signature Algorithm: sha256WithRSAEncryption
        Issuer: C=US, ST=OH, L=Columbus, O=VikingVPN, OU=MyOrganizationalUnit, CN=VikingVPN CA/name=EasyRSA/emailAddress=me@myhost.mydomain
        Validity
            Not Before: Mar 19 02:36:49 2018 GMT
            Not After : Mar 16 02:36:49 2028 GMT
        Subject: CN=Client3258Cert0abb70
        Subject Public Key Info:
            Public Key Algorithm: rsaEncryption
                Public-Key: (4096 bit)
                Modulus:
                    00:c4:68:42:01:64:71:c6:0b:fc:da:af:63:42:ad:
                    32:92:3c:19:c8:e0:10:b2:95:0b:db:30:01:b3:de:
                    47:69:ea:b0:dc:6e:5f:1c:a4:a7:d7:b1:ea:aa:d4:
                    fb:ef:d8:d3:19:f7:a5:68:b4:c1:d8:07:05:fc:44:
                    93:cd:c1:6a:3f:39:0d:fe:34:27:95:2a:ca:69:6c:
                    2a:c6:ad:86:a3:5c:cd:fa:8b:ce:51:bb:30:f7:bb:
                    58:fc:9c:03:cf:70:88:43:d6:33:e7:be:1e:2b:b0:
                    4d:02:36:f7:b9:aa:10:15:c0:b3:28:a3:d6:26:20:
                    df:2f:73:dd:88:e0:e5:c1:31:9b:71:30:cc:e0:27:
                    d1:04:6d:a2:c6:70:3c:d9:04:44:eb:4f:f8:cc:46:
                    13:99:ca:82:05:bd:0f:20:7d:05:c0:d5:81:d2:de:
                    ae:35:a7:d5:0d:b2:ce:6d:d6:d2:0b:7b:71:53:01:
                    5b:c9:d1:fd:d5:f9:60:33:30:2d:b2:85:59:5b:41:
                    01:b5:dc:33:31:ea:1a:db:a3:30:f3:b8:5f:7e:a0:
                    b9:99:dc:4f:a6:06:91:9a:07:95:a7:80:6b:a5:af:
                    ea:4e:62:f3:2a:48:67:a6:3b:c5:ab:39:16:5f:a9:
                    b4:74:5d:e3:d3:92:03:33:fc:93:e1:ae:06:e5:43:
                    72:ab:83:12:59:19:8e:4d:db:a0:76:53:00:1d:03:
                    73:a0:c7:6d:5e:a9:97:cf:64:37:b6:02:56:de:34:
                    f8:24:ee:c4:3a:3a:a2:ff:1c:23:7b:3a:96:2d:68:
                    d7:d7:ff:ea:77:57:80:58:32:b5:c0:ff:90:a8:d1:
                    6b:bc:4e:20:a2:04:54:12:59:63:83:b6:98:97:13:
                    8a:a0:17:c3:e1:8e:89:6b:86:fc:6b:b0:ba:1b:29:
                    1f:0e:1e:67:f3:7e:30:5d:f3:19:c3:a1:68:d4:10:
                    9e:a0:e8:05:98:31:15:fb:f7:84:74:7f:34:be:d5:
                    2b:a6:4f:25:1d:d9:c9:17:f2:d1:ff:fe:69:9a:0e:
                    06:0f:10:85:9a:f2:18:2f:48:6d:c0:da:c2:c1:76:
                    35:32:87:18:47:cb:5d:b5:61:2a:28:30:81:23:ad:
                    55:04:d5:e7:41:e4:d4:79:30:76:f1:d8:50:2e:c0:
                    78:d1:d1:85:89:fe:f9:13:e9:a3:1a:3b:65:f4:c6:
                    c9:cb:ee:18:3e:a0:0d:8d:48:d7:5a:ba:55:09:9b:
                    f9:7c:71:3b:c9:85:59:60:7e:d5:65:c1:88:25:82:
                    01:7e:28:3e:91:e7:dc:ea:5a:91:d1:ec:a4:b2:90:
                    af:47:60:d2:3c:37:d5:8c:d3:1a:88:5a:94:35:3f:
                    e1:73:a1
                Exponent: 65537 (0x10001)
        X509v3 extensions:
            X509v3 Basic Constraints: 
                CA:FALSE
            Netscape Comment: 
                Easy-RSA Generated Certificate
            X509v3 Subject Key Identifier: 
                9A:54:D8:E5:50:0E:9A:22:18:10:B0:49:18:43:05:51:D8:2E:86:28
            X509v3 Authority Key Identifier: 
                keyid:12:CD:60:04:D2:A0:80:9E:70:ED:C6:99:B8:7B:2C:C6:52:FD:19:A1
                DirName:/C=US/ST=OH/L=Columbus/O=VikingVPN/OU=MyOrganizationalUnit/CN=VikingVPN CA/name=EasyRSA/emailAddress=me@myhost.mydomain
                serial:CF:35:85:EE:80:BF:2A:3E

            X509v3 Extended Key Usage: 
                TLS Web Client Authentication
            X509v3 Key Usage: 
                Digital Signature
    Signature Algorithm: sha256WithRSAEncryption
         1a:76:e5:cc:3e:b1:bd:0e:70:16:a3:f7:2d:71:01:dc:1f:08:
         fb:af:20:a4:e1:04:92:32:cc:f7:0f:32:05:04:89:f7:47:d8:
         bd:83:6b:ca:79:bc:f0:5e:e0:b2:0f:42:ed:26:f9:d8:7d:04:
         5a:b3:66:6a:82:66:c5:2e:43:a5:c6:93:e5:1c:ac:43:aa:b8:
         03:c1:2c:df:1a:2d:1e:9e:6b:31:41:ed:51:a7:f9:26:8a:fa:
         4c:a0:c1:f2:e7:4a:80:bc:39:17:0f:1c:e0:29:e4:d3:9e:60:
         a2:20:0e:db:a8:f5:62:59:7c:fa:34:d1:ed:a8:7b:de:05:60:
         d1:41:20:ab:cd:00:b5:b2:7b:30:1a:7f:2a:53:0c:3f:68:3f:
         52:b1:fa:b2:7f:b5:b5:35:00:74:f2:01:56:8e:4e:f0:f8:fa:
         d0:69:87:2b:7c:c3:f7:33:e0:ff:ac:ff:b3:d2:26:5e:8e:d9:
         9e:c3:0f:4e:32:1a:ad:c0:15:58:a9:be:14:69:5d:d6:5c:f5:
         01:20:77:f6:e9:95:3f:d2:6e:d3:05:c1:d5:76:b3:f6:6f:5b:
         03:9f:50:fe:ec:b3:25:99:0d:03:31:42:13:ee:3b:55:3c:13:
         4b:d9:e7:3b:8f:13:a1:dd:dc:30:50:f2:33:e7:13:89:f6:54:
         95:a5:1a:01:7b:8a:97:21:ea:d9:ea:c4:d5:3c:8e:2d:7c:a1:
         68:bb:25:ed:c4:54:1a:6d:c3:2b:33:65:31:d8:ce:bc:c9:8a:
         b6:f7:64:61:3b:c7:f7:81:1a:33:78:81:72:aa:e4:98:f7:43:
         2f:33:47:32:11:dc:51:cb:59:b1:97:bb:9d:f8:ae:c9:dd:86:
         d2:90:10:08:f2:e3:70:06:84:f4:ff:5c:77:41:d1:e7:8c:c4:
         3d:d9:b8:02:c6:5a:0f:95:0c:e0:e9:17:a3:5a:76:bd:71:08:
         eb:d4:a3:11:80:8d:d2:5e:74:29:e9:f1:54:ab:5a:38:0a:5c:
         20:0b:b0:9e:45:97:a2:45:f5:c5:4c:31:92:0f:3c:f8:4a:7a:
         84:06:7e:3e:fa:fa:04:87:e0:90:00:20:7f:7a:72:8f:c7:8e:
         95:2f:5a:27:2d:36:73:53:00:43:c6:4f:2b:08:fe:e0:41:b4:
         3e:13:fd:78:7b:12:d7:da:19:2e:0c:5c:8f:b2:65:9a:ba:48:
         83:6c:67:56:63:ab:89:4a:48:86:d8:92:1c:16:ab:51:9f:8f:
         cc:98:02:36:05:0e:7e:b9:13:33:4f:04:2d:e7:ee:d7:ca:11:
         66:dc:fb:3c:57:a0:14:b3:50:75:17:8c:74:03:de:03:39:e3:
         d4:8c:43:8c:6e:55:51:2e
-----BEGIN CERTIFICATE-----
MIIGrTCCBJWgAwIBAgICMd4wDQYJKoZIhvcNAQELBQAwgawxCzAJBgNVBAYTAlVT
MQswCQYDVQQIEwJPSDERMA8GA1UEBxMIQ29sdW1idXMxEjAQBgNVBAoTCVZpa2lu
Z1ZQTjEdMBsGA1UECxMUTXlPcmdhbml6YXRpb25hbFVuaXQxFTATBgNVBAMTDFZp
a2luZ1ZQTiBDQTEQMA4GA1UEKRMHRWFzeVJTQTEhMB8GCSqGSIb3DQEJARYSbWVA
bXlob3N0Lm15ZG9tYWluMB4XDTE4MDMxOTAyMzY0OVoXDTI4MDMxNjAyMzY0OVow
HzEdMBsGA1UEAxMUQ2xpZW50MzI1OENlcnQwYWJiNzAwggIiMA0GCSqGSIb3DQEB
AQUAA4ICDwAwggIKAoICAQDEaEIBZHHGC/zar2NCrTKSPBnI4BCylQvbMAGz3kdp
6rDcbl8cpKfXseqq1Pvv2NMZ96VotMHYBwX8RJPNwWo/OQ3+NCeVKsppbCrGrYaj
XM36i85RuzD3u1j8nAPPcIhD1jPnvh4rsE0CNve5qhAVwLMoo9YmIN8vc92I4OXB
MZtxMMzgJ9EEbaLGcDzZBETrT/jMRhOZyoIFvQ8gfQXA1YHS3q41p9UNss5t1tIL
e3FTAVvJ0f3V+WAzMC2yhVlbQQG13DMx6hrbozDzuF9+oLmZ3E+mBpGaB5WngGul
r+pOYvMqSGemO8WrORZfqbR0XePTkgMz/JPhrgblQ3KrgxJZGY5N26B2UwAdA3Og
x21eqZfPZDe2AlbeNPgk7sQ6OqL/HCN7OpYtaNfX/+p3V4BYMrXA/5Co0Wu8TiCi
BFQSWWODtpiXE4qgF8PhjolrhvxrsLobKR8OHmfzfjBd8xnDoWjUEJ6g6AWYMRX7
94R0fzS+1SumTyUd2ckX8tH//mmaDgYPEIWa8hgvSG3A2sLBdjUyhxhHy121YSoo
MIEjrVUE1edB5NR5MHbx2FAuwHjR0YWJ/vkT6aMaO2X0xsnL7hg+oA2NSNdaulUJ
m/l8cTvJhVlgftVlwYglggF+KD6R59zqWpHR7KSykK9HYNI8N9WM0xqIWpQ1P+Fz
oQIDAQABo4IBYzCCAV8wCQYDVR0TBAIwADAtBglghkgBhvhCAQ0EIBYeRWFzeS1S
U0EgR2VuZXJhdGVkIENlcnRpZmljYXRlMB0GA1UdDgQWBBSaVNjlUA6aIhgQsEkY
QwVR2C6GKDCB4QYDVR0jBIHZMIHWgBQSzWAE0qCAnnDtxpm4eyzGUv0ZoaGBsqSB
rzCBrDELMAkGA1UEBhMCVVMxCzAJBgNVBAgTAk9IMREwDwYDVQQHEwhDb2x1bWJ1
czESMBAGA1UEChMJVmlraW5nVlBOMR0wGwYDVQQLExRNeU9yZ2FuaXphdGlvbmFs
VW5pdDEVMBMGA1UEAxMMVmlraW5nVlBOIENBMRAwDgYDVQQpEwdFYXN5UlNBMSEw
HwYJKoZIhvcNAQkBFhJtZUBteWhvc3QubXlkb21haW6CCQDPNYXugL8qPjATBgNV
HSUEDDAKBggrBgEFBQcDAjALBgNVHQ8EBAMCB4AwDQYJKoZIhvcNAQELBQADggIB
ABp25cw+sb0OcBaj9y1xAdwfCPuvIKThBJIyzPcPMgUEifdH2L2Da8p5vPBe4LIP
Qu0m+dh9BFqzZmqCZsUuQ6XGk+UcrEOquAPBLN8aLR6eazFB7VGn+SaK+kygwfLn
SoC8ORcPHOAp5NOeYKIgDtuo9WJZfPo00e2oe94FYNFBIKvNALWyezAafypTDD9o
P1Kx+rJ/tbU1AHTyAVaOTvD4+tBphyt8w/cz4P+s/7PSJl6O2Z7DD04yGq3AFVip
vhRpXdZc9QEgd/bplT/SbtMFwdV2s/ZvWwOfUP7ssyWZDQMxQhPuO1U8E0vZ5zuP
E6Hd3DBQ8jPnE4n2VJWlGgF7ipch6tnqxNU8ji18oWi7Je3EVBptwyszZTHYzrzJ
irb3ZGE7x/eBGjN4gXKq5Jj3Qy8zRzIR3FHLWbGXu534rsndhtKQEAjy43AGhPT/
XHdB0eeMxD3ZuALGWg+VDODpF6Nadr1xCOvUoxGAjdJedCnp8VSrWjgKXCALsJ5F
l6JF9cVMMZIPPPhKeoQGfj76+gSH4JAAIH96co/HjpUvWictNnNTAEPGTysI/uBB
tD4T/Xh7EtfaGS4MXI+yZZq6SINsZ1Zjq4lKSIbYkhwWq1Gfj8yYAjYFDn65EzNP
BC3n7tfKEWbc+zxXoBSzUHUXjHQD3gM549SMQ4xuVVEu
-----END CERTIFICATE-----
