Certificate:
    Data:
        Version: 3 (0x2)
        Serial Number: 12787 (0x31f3)
    Signature Algorithm: sha256WithRSAEncryption
        Issuer: C=US, ST=OH, L=Columbus, O=VikingVPN, OU=MyOrganizationalUnit, CN=VikingVPN CA/name=EasyRSA/emailAddress=me@myhost.mydomain
        Validity
            Not Before: Mar 24 14:38:59 2018 GMT
            Not After : Mar 21 14:38:59 2028 GMT
        Subject: CN=Client2217Cert85cedd
        Subject Public Key Info:
            Public Key Algorithm: rsaEncryption
                Public-Key: (4096 bit)
                Modulus:
                    00:bd:e6:4a:b7:5e:f1:74:a8:6c:0a:fd:b6:51:e7:
                    b6:82:23:50:aa:7e:cf:5e:49:40:9e:3e:d7:37:fd:
                    d6:4a:34:13:11:61:a2:e5:b5:bb:78:c2:5a:44:87:
                    5e:a1:69:d7:a3:67:ed:c5:29:84:6f:47:2d:07:c4:
                    f3:1e:74:91:07:c6:4c:ca:cd:77:71:8d:eb:3d:a3:
                    11:92:47:49:52:8f:a8:c3:e0:fd:9e:c1:54:90:0e:
                    5a:ba:1f:27:2c:a9:e3:9a:31:f1:f8:8f:ab:74:85:
                    78:21:c4:f4:3a:09:56:e2:f0:ed:ad:fb:31:55:7d:
                    13:a6:d9:52:18:d9:27:2b:c5:b0:3a:b6:5e:20:fa:
                    5e:5f:8c:e8:28:4d:b2:53:a4:d5:63:4a:e0:03:a9:
                    70:78:8e:72:73:40:0f:bb:37:93:04:04:1d:11:fa:
                    2e:f9:8c:0c:b5:36:f6:ac:5a:c0:1e:56:3c:0f:86:
                    b2:b8:50:27:ed:6a:c6:1d:fc:e0:23:d4:07:b9:43:
                    41:52:40:ba:97:52:9d:ca:57:4e:da:f8:f0:36:be:
                    b9:d3:6d:88:40:f3:90:2b:ac:63:cb:c4:eb:0b:37:
                    90:1a:de:6d:54:fc:cd:1f:76:b1:56:50:da:09:85:
                    17:eb:98:b4:95:3e:17:36:1a:9c:f8:56:c5:87:5f:
                    41:76:7a:16:77:f4:90:b8:ae:91:49:bc:25:86:cd:
                    15:2f:8f:1f:cd:2e:7e:6d:0d:fd:83:a9:56:69:d1:
                    10:0b:0f:d6:fd:16:89:ff:4d:e5:8b:e9:44:56:65:
                    37:49:4c:f8:b0:76:00:82:13:ee:2c:df:c9:1b:ae:
                    2e:bd:d4:e9:f8:03:d9:7e:66:cb:73:0e:da:74:3f:
                    27:4d:e3:7d:d1:39:a6:17:ef:47:a6:f7:2e:02:59:
                    e0:b6:39:96:85:d3:a1:6e:a1:12:2e:4c:ad:5e:8e:
                    31:99:de:04:5f:5d:91:2f:53:2d:a7:a9:ff:46:ea:
                    e3:8c:54:91:3e:16:cb:01:51:52:d2:a4:87:88:d1:
                    e1:31:93:ce:3b:55:33:51:a8:c4:36:db:8c:e8:e5:
                    39:f3:1a:90:55:6d:b7:2f:7b:83:0f:31:cb:a9:e6:
                    36:27:ff:c3:bb:86:4c:c1:78:e7:e7:af:57:7a:c7:
                    8d:9c:1b:ba:ee:6e:68:18:1a:d5:a5:dc:e5:e0:f4:
                    e0:1f:ad:0e:9a:0e:ac:ef:1c:42:e8:05:59:45:12:
                    ae:ef:2f:9e:38:75:e3:ec:0a:79:4c:1b:88:0f:5d:
                    a9:70:91:91:32:1d:2c:35:4a:ef:f0:5d:c2:40:a8:
                    32:4a:7f:e9:27:c6:bc:7c:cc:c0:c3:e4:e1:02:8b:
                    0e:26:19
                Exponent: 65537 (0x10001)
        X509v3 extensions:
            X509v3 Basic Constraints: 
                CA:FALSE
            Netscape Comment: 
                Easy-RSA Generated Certificate
            X509v3 Subject Key Identifier: 
                27:BC:7A:91:AF:88:81:13:B3:84:85:90:6D:85:88:8F:A5:E0:0E:76
            X509v3 Authority Key Identifier: 
                keyid:12:CD:60:04:D2:A0:80:9E:70:ED:C6:99:B8:7B:2C:C6:52:FD:19:A1
                DirName:/C=US/ST=OH/L=Columbus/O=VikingVPN/OU=MyOrganizationalUnit/CN=VikingVPN CA/name=EasyRSA/emailAddress=me@myhost.mydomain
                serial:CF:35:85:EE:80:BF:2A:3E

            X509v3 Extended Key Usage: 
                TLS Web Client Authentication
            X509v3 Key Usage: 
                Digital Signature
    Signature Algorithm: sha256WithRSAEncryption
         82:2f:91:1b:28:9e:78:90:69:78:8f:81:2d:15:8a:80:8d:29:
         11:06:3a:ac:3b:95:ca:94:8a:89:98:35:f8:c0:88:6b:20:42:
         df:b5:a9:d0:74:4e:34:39:cc:0c:92:6f:81:96:97:ee:16:38:
         55:ec:3f:c8:68:16:34:e6:2b:7b:04:92:26:eb:68:49:da:65:
         f7:4b:00:e7:cb:e3:50:b7:65:8e:84:32:47:b2:9c:ab:69:ff:
         d3:43:d7:d7:b1:6e:44:ea:65:46:ae:b7:17:56:91:29:60:ad:
         95:0a:b7:1c:ed:56:b1:9a:dd:6e:cb:47:92:6e:c8:44:8c:11:
         87:e2:00:05:35:99:77:84:d9:c0:a7:3a:47:71:5b:d6:9e:3d:
         16:b8:2f:09:46:23:43:93:8c:e1:b0:8d:ca:fb:f4:3b:9b:68:
         6f:fb:20:b8:38:19:83:48:d8:1c:e9:78:23:6e:08:18:9d:de:
         dd:ca:de:a0:5f:ba:bc:05:9f:2f:8d:06:0f:db:99:4a:22:b4:
         c8:4c:9b:2a:6b:b1:df:8e:90:b6:8d:95:60:b7:d7:73:09:2e:
         3f:a8:47:71:6f:a7:ab:e2:41:bb:cd:3c:78:06:b9:00:21:a9:
         0b:13:b1:37:94:67:be:f8:9c:81:86:c2:7b:96:32:0f:4b:2b:
         0d:2c:0a:30:42:14:3f:96:97:ee:7e:75:e8:43:94:dc:7a:51:
         73:a0:ab:13:d6:ad:0e:60:eb:73:1c:c2:7d:da:41:d1:aa:69:
         13:55:8b:99:1f:54:0d:82:19:49:4e:f0:f6:2b:f2:2c:28:15:
         1d:27:d7:8b:b6:36:a8:c0:96:cf:ea:89:00:07:0a:59:ad:3b:
         07:c7:e1:36:95:a7:ae:21:c0:d9:f4:69:1d:af:7a:b5:23:7d:
         63:8e:a9:99:f4:cd:cc:51:4c:35:57:8b:78:d2:fd:c8:f7:6b:
         40:5c:9f:8d:f1:aa:1f:a2:3a:66:f7:ac:14:c2:16:27:c8:53:
         c6:47:fe:be:89:7d:d5:3a:ba:f7:12:e8:8e:a3:ba:dd:28:36:
         a3:01:64:8d:b1:ce:44:fc:79:e6:e9:6f:af:7d:3c:24:12:54:
         81:90:9d:b1:08:82:d2:4a:fd:90:9b:5c:cc:6a:3a:03:c5:ac:
         77:c2:19:7e:fe:9e:4d:f3:da:cc:94:09:e6:fe:88:6c:5f:4b:
         6c:39:1a:05:71:f0:94:4f:44:1a:bc:e6:a1:87:34:bb:e4:08:
         b8:13:8f:96:0b:75:2c:10:d8:fd:de:71:f8:62:d2:04:2a:ae:
         a0:53:8f:dc:e7:47:29:0f:bf:87:bc:95:7b:64:ba:94:e7:29:
         13:68:dd:1e:ab:a2:5d:fe
-----BEGIN CERTIFICATE-----
MIIGrTCCBJWgAwIBAgICMfMwDQYJKoZIhvcNAQELBQAwgawxCzAJBgNVBAYTAlVT
MQswCQYDVQQIEwJPSDERMA8GA1UEBxMIQ29sdW1idXMxEjAQBgNVBAoTCVZpa2lu
Z1ZQTjEdMBsGA1UECxMUTXlPcmdhbml6YXRpb25hbFVuaXQxFTATBgNVBAMTDFZp
a2luZ1ZQTiBDQTEQMA4GA1UEKRMHRWFzeVJTQTEhMB8GCSqGSIb3DQEJARYSbWVA
bXlob3N0Lm15ZG9tYWluMB4XDTE4MDMyNDE0Mzg1OVoXDTI4MDMyMTE0Mzg1OVow
HzEdMBsGA1UEAxMUQ2xpZW50MjIxN0NlcnQ4NWNlZGQwggIiMA0GCSqGSIb3DQEB
AQUAA4ICDwAwggIKAoICAQC95kq3XvF0qGwK/bZR57aCI1Cqfs9eSUCePtc3/dZK
NBMRYaLltbt4wlpEh16hadejZ+3FKYRvRy0HxPMedJEHxkzKzXdxjes9oxGSR0lS
j6jD4P2ewVSQDlq6HycsqeOaMfH4j6t0hXghxPQ6CVbi8O2t+zFVfROm2VIY2Scr
xbA6tl4g+l5fjOgoTbJTpNVjSuADqXB4jnJzQA+7N5MEBB0R+i75jAy1NvasWsAe
VjwPhrK4UCftasYd/OAj1Ae5Q0FSQLqXUp3KV07a+PA2vrnTbYhA85ArrGPLxOsL
N5Aa3m1U/M0fdrFWUNoJhRfrmLSVPhc2Gpz4VsWHX0F2ehZ39JC4rpFJvCWGzRUv
jx/NLn5tDf2DqVZp0RALD9b9Fon/TeWL6URWZTdJTPiwdgCCE+4s38kbri691On4
A9l+ZstzDtp0PydN433ROaYX70em9y4CWeC2OZaF06FuoRIuTK1ejjGZ3gRfXZEv
Uy2nqf9G6uOMVJE+FssBUVLSpIeI0eExk847VTNRqMQ224zo5TnzGpBVbbcve4MP
Mcup5jYn/8O7hkzBeOfnr1d6x42cG7rubmgYGtWl3OXg9OAfrQ6aDqzvHELoBVlF
Eq7vL544dePsCnlMG4gPXalwkZEyHSw1Su/wXcJAqDJKf+knxrx8zMDD5OECiw4m
GQIDAQABo4IBYzCCAV8wCQYDVR0TBAIwADAtBglghkgBhvhCAQ0EIBYeRWFzeS1S
U0EgR2VuZXJhdGVkIENlcnRpZmljYXRlMB0GA1UdDgQWBBQnvHqRr4iBE7OEhZBt
hYiPpeAOdjCB4QYDVR0jBIHZMIHWgBQSzWAE0qCAnnDtxpm4eyzGUv0ZoaGBsqSB
rzCBrDELMAkGA1UEBhMCVVMxCzAJBgNVBAgTAk9IMREwDwYDVQQHEwhDb2x1bWJ1
czESMBAGA1UEChMJVmlraW5nVlBOMR0wGwYDVQQLExRNeU9yZ2FuaXphdGlvbmFs
VW5pdDEVMBMGA1UEAxMMVmlraW5nVlBOIENBMRAwDgYDVQQpEwdFYXN5UlNBMSEw
HwYJKoZIhvcNAQkBFhJtZUBteWhvc3QubXlkb21haW6CCQDPNYXugL8qPjATBgNV
HSUEDDAKBggrBgEFBQcDAjALBgNVHQ8EBAMCB4AwDQYJKoZIhvcNAQELBQADggIB
AIIvkRsonniQaXiPgS0VioCNKREGOqw7lcqUiomYNfjAiGsgQt+1qdB0TjQ5zAyS
b4GWl+4WOFXsP8hoFjTmK3sEkibraEnaZfdLAOfL41C3ZY6EMkeynKtp/9ND19ex
bkTqZUautxdWkSlgrZUKtxztVrGa3W7LR5JuyESMEYfiAAU1mXeE2cCnOkdxW9ae
PRa4LwlGI0OTjOGwjcr79DubaG/7ILg4GYNI2BzpeCNuCBid3t3K3qBfurwFny+N
Bg/bmUoitMhMmyprsd+OkLaNlWC313MJLj+oR3Fvp6viQbvNPHgGuQAhqQsTsTeU
Z774nIGGwnuWMg9LKw0sCjBCFD+Wl+5+dehDlNx6UXOgqxPWrQ5g63Mcwn3aQdGq
aRNVi5kfVA2CGUlO8PYr8iwoFR0n14u2NqjAls/qiQAHClmtOwfH4TaVp64hwNn0
aR2verUjfWOOqZn0zcxRTDVXi3jS/cj3a0Bcn43xqh+iOmb3rBTCFifIU8ZH/r6J
fdU6uvcS6I6jut0oNqMBZI2xzkT8eebpb699PCQSVIGQnbEIgtJK/ZCbXMxqOgPF
rHfCGX7+nk3z2syUCeb+iGxfS2w5GgVx8JRPRBq85qGHNLvkCLgTj5YLdSwQ2P3e
cfhi0gQqrqBTj9znRykPv4e8lXtkupTnKRNo3R6rol3+
-----END CERTIFICATE-----
