Certificate:
    Data:
        Version: 3 (0x2)
        Serial Number: 12813 (0x320d)
    Signature Algorithm: sha256WithRSAEncryption
        Issuer: C=US, ST=OH, L=Columbus, O=VikingVPN, OU=MyOrganizationalUnit, CN=VikingVPN CA/name=EasyRSA/emailAddress=me@myhost.mydomain
        Validity
            Not Before: Mar 29 03:59:57 2018 GMT
            Not After : Mar 26 03:59:57 2028 GMT
        Subject: CN=Client2920Cert424cec
        Subject Public Key Info:
            Public Key Algorithm: rsaEncryption
                Public-Key: (4096 bit)
                Modulus:
                    00:df:13:f9:7a:d8:ce:3f:e5:1c:66:9c:77:c3:6e:
                    95:bb:3d:33:15:cc:89:15:97:93:e2:24:73:72:3d:
                    ee:72:8a:44:a0:e2:24:74:3f:e6:81:1e:e6:c7:49:
                    78:a7:15:99:95:cd:cf:78:08:6e:4d:93:9a:b3:5f:
                    ce:62:2a:1e:95:1f:5f:d7:e3:67:f3:05:90:14:9b:
                    a6:cc:5d:7e:f0:ab:b7:8d:2c:38:a0:64:7b:70:09:
                    4a:44:ac:3a:b0:dd:68:06:75:61:3b:82:e9:12:21:
                    c7:69:77:ee:9d:b1:e4:b0:95:b8:08:4d:82:e6:6b:
                    62:96:22:93:2d:98:68:4e:31:eb:f7:21:eb:b9:94:
                    ef:5a:4d:55:0a:14:19:b4:34:35:04:cd:10:80:34:
                    0d:3c:ba:38:8d:52:07:8d:97:72:36:93:62:84:78:
                    10:4f:e7:e2:a2:7c:0d:8a:57:47:b2:42:84:1d:d1:
                    32:93:cc:96:90:ff:01:7c:e4:51:00:84:d3:d4:3a:
                    f7:f8:63:dc:1f:dc:1f:26:d0:9a:c9:21:dc:0d:ef:
                    9c:c3:06:e3:9f:67:0f:f6:f0:21:f5:f0:d2:2c:7e:
                    37:31:23:6e:c9:a1:19:23:6e:52:55:c4:d4:4b:cf:
                    22:f8:99:ce:4e:99:32:f2:dd:29:1f:ad:d2:88:eb:
                    77:73:2c:43:bb:b1:9f:79:6f:2c:be:0d:ce:6c:ee:
                    09:69:e7:2c:8b:23:d0:07:d2:e0:29:a9:0d:b3:a8:
                    3e:fe:b4:1f:95:15:d6:ff:26:f2:20:c1:44:fa:a3:
                    c2:5f:db:c3:1d:23:06:55:15:89:58:e3:f5:62:39:
                    db:90:6f:5a:c9:05:58:16:32:58:78:ca:ba:3a:22:
                    0f:94:eb:d9:8b:7d:a2:81:83:63:7f:58:5a:dd:4d:
                    08:e8:38:1a:e9:02:5a:b3:f9:22:94:31:36:01:3d:
                    6a:a5:f0:3b:36:11:65:3f:ef:cc:1d:80:a0:0c:13:
                    08:78:d1:4e:d9:ae:dd:06:58:ae:67:47:af:7e:be:
                    4e:a3:6d:ca:e9:b5:61:e9:d4:f5:6d:6d:fd:50:e5:
                    38:80:72:78:30:83:f9:b2:d2:28:6b:8c:7a:33:ac:
                    7b:08:10:95:27:04:c0:50:49:e7:98:5e:e2:94:5e:
                    80:66:42:26:20:f8:1f:bd:cd:95:c6:c9:0b:7e:3c:
                    80:d1:42:01:97:da:a0:16:ba:d1:d7:80:a8:b0:ce:
                    1f:6d:d1:6e:2b:d2:6a:b2:87:ef:17:27:61:82:ba:
                    10:a4:ba:1b:61:62:8a:2a:63:fb:63:ae:cf:4e:45:
                    44:d1:be:39:37:4b:62:25:b9:89:07:38:99:7d:40:
                    96:f3:63
                Exponent: 65537 (0x10001)
        X509v3 extensions:
            X509v3 Basic Constraints: 
                CA:FALSE
            Netscape Comment: 
                Easy-RSA Generated Certificate
            X509v3 Subject Key Identifier: 
                68:CD:51:2B:2B:0E:58:15:DE:91:0E:B9:1E:44:82:76:EB:3A:03:21
            X509v3 Authority Key Identifier: 
                keyid:12:CD:60:04:D2:A0:80:9E:70:ED:C6:99:B8:7B:2C:C6:52:FD:19:A1
                DirName:/C=US/ST=OH/L=Columbus/O=VikingVPN/OU=MyOrganizationalUnit/CN=VikingVPN CA/name=EasyRSA/emailAddress=me@myhost.mydomain
                serial:CF:35:85:EE:80:BF:2A:3E

            X509v3 Extended Key Usage: 
                TLS Web Client Authentication
            X509v3 Key Usage: 
                Digital Signature
    Signature Algorithm: sha256WithRSAEncryption
         c2:68:fb:93:1f:6b:21:9d:06:29:2c:b7:a9:db:8b:95:d4:47:
         4d:3a:f5:42:8b:a4:2e:7e:00:bc:e5:bd:2f:83:46:38:cf:29:
         dd:fd:d2:d6:b5:d3:f9:f0:8a:4a:ae:b3:a9:98:a8:59:15:f7:
         63:68:b3:6f:64:3e:35:bd:17:88:6d:09:b7:a8:d7:45:81:28:
         71:aa:9c:65:26:c2:8e:3d:b2:0e:e8:46:e6:b3:52:1e:7e:73:
         92:d5:4a:cc:10:99:b0:fb:7e:4d:ca:15:33:25:db:d3:99:0b:
         a7:81:a8:af:fa:69:3e:29:a8:c2:ea:12:e1:c2:ac:3c:f1:05:
         ec:a8:55:53:e3:01:b7:b1:bd:23:e3:ec:a8:d2:be:6f:74:38:
         97:c2:c7:4d:91:67:45:9c:a4:ac:77:57:5e:de:7a:24:d5:41:
         db:0c:9b:7e:fd:ba:ba:b8:43:28:98:5d:6f:25:7d:63:a3:67:
         62:fd:95:bb:d3:c8:bd:15:a7:15:2a:5d:a4:ec:f0:6d:28:ee:
         3c:b2:c5:d4:3f:0b:5e:ac:24:4b:fa:68:50:ff:30:41:f0:b2:
         43:d5:88:5d:bd:16:b1:9e:f5:4d:23:f7:ac:7b:be:2d:f3:9f:
         50:23:2b:13:a4:ec:c3:8f:f8:5f:8b:df:98:f4:7c:4b:1f:ff:
         e0:3a:b5:94:ea:7b:58:3e:80:7b:17:61:0d:62:6d:31:24:51:
         5a:e6:57:d2:67:2d:f7:5c:7b:f1:b8:83:29:16:77:20:5d:d4:
         29:cb:16:a7:8f:ee:27:ed:ec:8d:42:94:e3:6f:90:c7:87:d0:
         a9:f1:aa:4d:21:2a:e8:6c:c2:12:da:0e:83:27:b7:4c:78:62:
         b3:04:ca:df:30:61:46:38:29:ea:e7:6e:f1:30:21:9b:29:45:
         11:bd:ef:19:2a:94:6e:84:17:5d:44:9a:a8:37:ba:05:17:79:
         48:d0:a5:66:25:4d:62:cd:67:51:18:b4:e9:49:cb:55:3f:f2:
         8c:30:e6:cd:2c:9c:d6:14:4f:3e:f4:70:9a:01:1c:c8:3d:c9:
         4a:2a:d1:f1:9b:b7:0e:c1:d7:4e:8a:bf:68:b8:dc:8b:9f:87:
         e0:62:fc:9a:61:a1:4b:22:0d:0b:72:28:d1:ba:3d:71:2d:34:
         47:c5:74:3c:97:5b:01:83:22:86:fa:c1:e0:5e:8b:7e:0c:1f:
         ff:9d:b5:7a:97:6b:4c:9b:be:05:7e:c1:d2:96:0f:e2:07:e2:
         e5:80:26:f4:da:94:90:9a:4a:65:a2:87:19:9b:3e:1a:25:83:
         72:79:a9:ea:93:1d:0c:8a:35:ec:17:2e:8e:69:7f:19:b0:17:
         f4:b6:bd:f6:4a:19:98:ad
-----BEGIN CERTIFICATE-----
MIIGrTCCBJWgAwIBAgICMg0wDQYJKoZIhvcNAQELBQAwgawxCzAJBgNVBAYTAlVT
MQswCQYDVQQIEwJPSDERMA8GA1UEBxMIQ29sdW1idXMxEjAQBgNVBAoTCVZpa2lu
Z1ZQTjEdMBsGA1UECxMUTXlPcmdhbml6YXRpb25hbFVuaXQxFTATBgNVBAMTDFZp
a2luZ1ZQTiBDQTEQMA4GA1UEKRMHRWFzeVJTQTEhMB8GCSqGSIb3DQEJARYSbWVA
bXlob3N0Lm15ZG9tYWluMB4XDTE4MDMyOTAzNTk1N1oXDTI4MDMyNjAzNTk1N1ow
HzEdMBsGA1UEAxMUQ2xpZW50MjkyMENlcnQ0MjRjZWMwggIiMA0GCSqGSIb3DQEB
AQUAA4ICDwAwggIKAoICAQDfE/l62M4/5RxmnHfDbpW7PTMVzIkVl5PiJHNyPe5y
ikSg4iR0P+aBHubHSXinFZmVzc94CG5Nk5qzX85iKh6VH1/X42fzBZAUm6bMXX7w
q7eNLDigZHtwCUpErDqw3WgGdWE7gukSIcdpd+6dseSwlbgITYLma2KWIpMtmGhO
Mev3Ieu5lO9aTVUKFBm0NDUEzRCANA08ujiNUgeNl3I2k2KEeBBP5+KifA2KV0ey
QoQd0TKTzJaQ/wF85FEAhNPUOvf4Y9wf3B8m0JrJIdwN75zDBuOfZw/28CH18NIs
fjcxI27JoRkjblJVxNRLzyL4mc5OmTLy3SkfrdKI63dzLEO7sZ95byy+Dc5s7glp
5yyLI9AH0uApqQ2zqD7+tB+VFdb/JvIgwUT6o8Jf28MdIwZVFYlY4/ViOduQb1rJ
BVgWMlh4yro6Ig+U69mLfaKBg2N/WFrdTQjoOBrpAlqz+SKUMTYBPWql8Ds2EWU/
78wdgKAMEwh40U7Zrt0GWK5nR69+vk6jbcrptWHp1PVtbf1Q5TiAcngwg/my0ihr
jHozrHsIEJUnBMBQSeeYXuKUXoBmQiYg+B+9zZXGyQt+PIDRQgGX2qAWutHXgKiw
zh9t0W4r0mqyh+8XJ2GCuhCkuhthYooqY/tjrs9ORUTRvjk3S2IluYkHOJl9QJbz
YwIDAQABo4IBYzCCAV8wCQYDVR0TBAIwADAtBglghkgBhvhCAQ0EIBYeRWFzeS1S
U0EgR2VuZXJhdGVkIENlcnRpZmljYXRlMB0GA1UdDgQWBBRozVErKw5YFd6RDrke
RIJ26zoDITCB4QYDVR0jBIHZMIHWgBQSzWAE0qCAnnDtxpm4eyzGUv0ZoaGBsqSB
rzCBrDELMAkGA1UEBhMCVVMxCzAJBgNVBAgTAk9IMREwDwYDVQQHEwhDb2x1bWJ1
czESMBAGA1UEChMJVmlraW5nVlBOMR0wGwYDVQQLExRNeU9yZ2FuaXphdGlvbmFs
VW5pdDEVMBMGA1UEAxMMVmlraW5nVlBOIENBMRAwDgYDVQQpEwdFYXN5UlNBMSEw
HwYJKoZIhvcNAQkBFhJtZUBteWhvc3QubXlkb21haW6CCQDPNYXugL8qPjATBgNV
HSUEDDAKBggrBgEFBQcDAjALBgNVHQ8EBAMCB4AwDQYJKoZIhvcNAQELBQADggIB
AMJo+5MfayGdBikst6nbi5XUR0069UKLpC5+ALzlvS+DRjjPKd390ta10/nwikqu
s6mYqFkV92Nos29kPjW9F4htCbeo10WBKHGqnGUmwo49sg7oRuazUh5+c5LVSswQ
mbD7fk3KFTMl29OZC6eBqK/6aT4pqMLqEuHCrDzxBeyoVVPjAbexvSPj7KjSvm90
OJfCx02RZ0WcpKx3V17eeiTVQdsMm379urq4QyiYXW8lfWOjZ2L9lbvTyL0VpxUq
XaTs8G0o7jyyxdQ/C16sJEv6aFD/MEHwskPViF29FrGe9U0j96x7vi3zn1AjKxOk
7MOP+F+L35j0fEsf/+A6tZTqe1g+gHsXYQ1ibTEkUVrmV9JnLfdce/G4gykWdyBd
1CnLFqeP7ift7I1ClONvkMeH0Knxqk0hKuhswhLaDoMnt0x4YrMEyt8wYUY4Kern
bvEwIZspRRG97xkqlG6EF11Emqg3ugUXeUjQpWYlTWLNZ1EYtOlJy1U/8oww5s0s
nNYUTz70cJoBHMg9yUoq0fGbtw7B106Kv2i43Iufh+Bi/JphoUsiDQtyKNG6PXEt
NEfFdDyXWwGDIob6weBei34MH/+dtXqXa0ybvgV+wdKWD+IH4uWAJvTalJCaSmWi
hxmbPholg3J5qeqTHQyKNewXLo5pfxmwF/S2vfZKGZit
-----END CERTIFICATE-----
