Certificate:
    Data:
        Version: 3 (0x2)
        Serial Number: 12842 (0x322a)
    Signature Algorithm: sha256WithRSAEncryption
        Issuer: C=US, ST=OH, L=Columbus, O=VikingVPN, OU=MyOrganizationalUnit, CN=VikingVPN CA/name=EasyRSA/emailAddress=me@myhost.mydomain
        Validity
            Not Before: Mar 30 23:38:54 2018 GMT
            Not After : Mar 27 23:38:54 2028 GMT
        Subject: CN=Client2814Certb5aed4
        Subject Public Key Info:
            Public Key Algorithm: rsaEncryption
                Public-Key: (4096 bit)
                Modulus:
                    00:c6:8a:ad:c4:2b:40:ca:b2:1a:3a:78:04:64:71:
                    4d:12:f7:1d:2d:63:ec:a9:c4:e6:5b:31:89:82:9a:
                    25:0d:93:2e:46:49:f2:c2:d5:0c:17:75:ca:b2:1a:
                    23:85:21:de:d3:57:58:31:e3:a4:3e:46:8f:60:bc:
                    3c:11:30:06:63:4b:18:e3:19:3a:46:63:d3:11:9b:
                    25:50:d8:96:e0:0e:06:ff:36:5b:b1:dd:82:40:37:
                    4e:9a:c5:23:ab:8a:81:9c:6c:bf:97:3a:0b:dd:b1:
                    58:d6:16:8f:00:19:ea:28:7a:8d:c2:e8:09:33:32:
                    fc:1e:27:e2:39:24:15:69:e0:b0:40:2d:7a:72:b3:
                    be:3f:61:c0:72:85:d0:cd:f2:f7:73:2c:ec:ae:52:
                    e7:cf:0c:2d:83:ef:28:81:67:a7:9d:90:ed:6d:b8:
                    8c:49:1b:31:c4:dc:f3:a4:e5:67:cb:58:7d:6a:5b:
                    7b:97:ce:8f:fc:58:38:10:42:34:6a:02:44:68:87:
                    04:f9:69:55:7a:66:a0:78:f4:3c:02:24:a8:90:cb:
                    a4:14:0f:57:2d:25:5a:82:af:7e:ae:ea:d8:c4:d5:
                    cd:c8:34:8d:30:07:53:14:1b:dc:63:b0:99:44:2d:
                    fe:d8:e9:da:b8:90:48:20:01:c9:95:c6:b4:8d:9a:
                    65:3b:1c:d5:18:08:3b:a5:a7:62:ce:71:d4:aa:30:
                    04:e5:07:28:92:b5:5e:af:75:7d:0d:79:70:51:27:
                    0a:55:ef:07:04:f4:db:3a:77:7b:e6:ab:73:45:93:
                    05:a7:6e:43:02:c0:d7:ef:0b:cb:1e:39:76:38:93:
                    48:4e:15:97:83:c8:73:51:4a:b7:b0:fe:c8:40:18:
                    d1:01:5a:20:36:60:47:ad:f0:92:d1:5e:d9:ff:be:
                    8c:78:71:7b:3a:31:e6:82:f9:3f:2c:e2:b1:10:99:
                    23:eb:06:20:70:7e:50:de:16:35:96:53:d3:93:d2:
                    ca:cc:65:56:38:3c:d8:ce:40:16:1a:55:db:1f:d4:
                    43:a1:04:3a:74:89:71:18:a8:09:fe:18:5c:74:7d:
                    4f:94:98:61:08:fa:35:32:52:2e:34:49:d6:48:82:
                    18:7b:69:4a:0c:20:1c:5b:4e:dd:35:58:75:dd:5d:
                    61:da:21:d1:56:bb:e8:9f:f9:de:1b:54:9d:be:01:
                    b0:50:7c:af:79:97:65:d5:11:a7:a9:47:da:b2:79:
                    78:e9:c2:19:2b:c4:8a:49:31:53:7c:ca:7d:dd:f4:
                    57:1c:43:dc:15:da:54:84:e0:c6:21:e4:a5:fb:3b:
                    24:3e:e5:8e:93:e5:10:33:e2:50:db:5e:91:3c:a5:
                    00:4a:11
                Exponent: 65537 (0x10001)
        X509v3 extensions:
            X509v3 Basic Constraints: 
                CA:FALSE
            Netscape Comment: 
                Easy-RSA Generated Certificate
            X509v3 Subject Key Identifier: 
                09:C8:A0:D1:45:02:28:04:A6:36:92:FE:0D:F7:73:B2:36:06:78:B4
            X509v3 Authority Key Identifier: 
                keyid:12:CD:60:04:D2:A0:80:9E:70:ED:C6:99:B8:7B:2C:C6:52:FD:19:A1
                DirName:/C=US/ST=OH/L=Columbus/O=VikingVPN/OU=MyOrganizationalUnit/CN=VikingVPN CA/name=EasyRSA/emailAddress=me@myhost.mydomain
                serial:CF:35:85:EE:80:BF:2A:3E

            X509v3 Extended Key Usage: 
                TLS Web Client Authentication
            X509v3 Key Usage: 
                Digital Signature
    Signature Algorithm: sha256WithRSAEncryption
         28:77:5a:3e:a3:e7:e3:f0:79:b3:25:ff:65:50:4e:db:39:77:
         e3:4e:6a:3a:c7:f3:80:96:7a:51:09:95:01:2a:34:72:2b:88:
         5c:6d:23:43:34:e3:76:96:3b:74:c4:2a:e9:ed:8c:69:a6:ad:
         44:5d:2d:67:99:ea:6f:96:78:25:89:8a:fe:b3:b9:fd:75:9e:
         59:00:5c:63:9f:a8:90:29:d0:0f:ab:88:de:7f:c8:ac:7a:54:
         4b:b5:09:b0:83:be:bd:e5:3d:11:fc:10:72:78:61:fb:5f:67:
         8c:b7:af:04:71:3c:c9:f4:0c:bc:4a:5d:90:65:ab:4f:8d:cf:
         3a:2d:b1:ed:b6:a1:91:c7:b4:b3:35:43:74:48:93:6a:5c:df:
         bd:3c:ea:bd:d1:a0:17:fc:f0:ae:68:cd:f5:84:5e:a1:99:49:
         00:9d:8f:56:1c:09:87:a8:c4:8b:e3:9a:8f:86:c3:63:44:7e:
         48:97:36:16:44:35:c4:fa:d3:8b:bf:6c:37:26:e8:c9:9a:3d:
         3e:e5:94:e8:f2:cf:3d:a1:5c:9f:a0:d8:b5:6c:32:6e:e1:60:
         05:4d:4a:41:26:ff:7c:3c:ce:9e:78:90:80:12:8c:07:69:91:
         93:4e:94:2a:de:81:3d:7f:26:ef:e0:a1:ba:dd:7d:b2:5e:88:
         22:ee:8f:c1:03:3d:de:a0:8f:ee:d8:0a:d3:55:c8:c2:b3:5e:
         fd:8e:b9:5b:99:73:ae:cf:5f:3a:5f:1d:df:c6:b3:d5:52:63:
         46:3f:e0:37:cd:24:d2:4a:53:86:2f:d3:66:dd:93:e9:35:71:
         d6:6c:e0:ac:22:f6:f2:d5:d1:ba:11:da:2c:54:09:bb:e5:42:
         16:21:de:c2:61:a2:20:5b:03:4b:d5:6f:a0:fd:57:d4:20:aa:
         e2:4c:a6:7f:b8:19:95:cc:5d:cc:1a:c3:b9:54:70:7b:c4:55:
         59:a3:6a:08:75:e7:ad:78:d7:b3:ec:b6:0a:e1:a7:18:b6:a1:
         97:53:57:ef:3f:99:11:4f:c5:c1:11:65:3e:9c:ce:e1:8c:6e:
         3d:8c:e5:a6:3c:31:9e:ed:06:bb:1a:4a:47:a7:5c:e8:d5:53:
         d4:9f:fc:80:a0:ad:1b:48:64:92:65:07:ed:2f:ba:5a:36:fb:
         85:69:36:13:cf:d4:0c:9e:23:bf:a0:25:d0:be:9d:86:f3:24:
         55:99:f5:ae:c0:e0:29:45:56:63:44:4a:7d:69:44:53:79:7d:
         71:a5:a1:06:9d:84:d8:29:22:89:e3:96:1b:69:e3:95:fc:c0:
         54:48:9c:bf:aa:e0:17:02:cf:e5:9f:39:ce:2b:48:e7:95:59:
         67:97:03:50:81:10:86:34
-----BEGIN CERTIFICATE-----
MIIGrTCCBJWgAwIBAgICMiowDQYJKoZIhvcNAQELBQAwgawxCzAJBgNVBAYTAlVT
MQswCQYDVQQIEwJPSDERMA8GA1UEBxMIQ29sdW1idXMxEjAQBgNVBAoTCVZpa2lu
Z1ZQTjEdMBsGA1UECxMUTXlPcmdhbml6YXRpb25hbFVuaXQxFTATBgNVBAMTDFZp
a2luZ1ZQTiBDQTEQMA4GA1UEKRMHRWFzeVJTQTEhMB8GCSqGSIb3DQEJARYSbWVA
bXlob3N0Lm15ZG9tYWluMB4XDTE4MDMzMDIzMzg1NFoXDTI4MDMyNzIzMzg1NFow
HzEdMBsGA1UEAxMUQ2xpZW50MjgxNENlcnRiNWFlZDQwggIiMA0GCSqGSIb3DQEB
AQUAA4ICDwAwggIKAoICAQDGiq3EK0DKsho6eARkcU0S9x0tY+ypxOZbMYmCmiUN
ky5GSfLC1QwXdcqyGiOFId7TV1gx46Q+Ro9gvDwRMAZjSxjjGTpGY9MRmyVQ2Jbg
Dgb/Nlux3YJAN06axSOrioGcbL+XOgvdsVjWFo8AGeooeo3C6AkzMvweJ+I5JBVp
4LBALXpys74/YcByhdDN8vdzLOyuUufPDC2D7yiBZ6edkO1tuIxJGzHE3POk5WfL
WH1qW3uXzo/8WDgQQjRqAkRohwT5aVV6ZqB49DwCJKiQy6QUD1ctJVqCr36u6tjE
1c3INI0wB1MUG9xjsJlELf7Y6dq4kEggAcmVxrSNmmU7HNUYCDulp2LOcdSqMATl
ByiStV6vdX0NeXBRJwpV7wcE9Ns6d3vmq3NFkwWnbkMCwNfvC8seOXY4k0hOFZeD
yHNRSrew/shAGNEBWiA2YEet8JLRXtn/vox4cXs6MeaC+T8s4rEQmSPrBiBwflDe
FjWWU9OT0srMZVY4PNjOQBYaVdsf1EOhBDp0iXEYqAn+GFx0fU+UmGEI+jUyUi40
SdZIghh7aUoMIBxbTt01WHXdXWHaIdFWu+if+d4bVJ2+AbBQfK95l2XVEaepR9qy
eXjpwhkrxIpJMVN8yn3d9FccQ9wV2lSE4MYh5KX7OyQ+5Y6T5RAz4lDbXpE8pQBK
EQIDAQABo4IBYzCCAV8wCQYDVR0TBAIwADAtBglghkgBhvhCAQ0EIBYeRWFzeS1S
U0EgR2VuZXJhdGVkIENlcnRpZmljYXRlMB0GA1UdDgQWBBQJyKDRRQIoBKY2kv4N
93OyNgZ4tDCB4QYDVR0jBIHZMIHWgBQSzWAE0qCAnnDtxpm4eyzGUv0ZoaGBsqSB
rzCBrDELMAkGA1UEBhMCVVMxCzAJBgNVBAgTAk9IMREwDwYDVQQHEwhDb2x1bWJ1
czESMBAGA1UEChMJVmlraW5nVlBOMR0wGwYDVQQLExRNeU9yZ2FuaXphdGlvbmFs
VW5pdDEVMBMGA1UEAxMMVmlraW5nVlBOIENBMRAwDgYDVQQpEwdFYXN5UlNBMSEw
HwYJKoZIhvcNAQkBFhJtZUBteWhvc3QubXlkb21haW6CCQDPNYXugL8qPjATBgNV
HSUEDDAKBggrBgEFBQcDAjALBgNVHQ8EBAMCB4AwDQYJKoZIhvcNAQELBQADggIB
ACh3Wj6j5+PwebMl/2VQTts5d+NOajrH84CWelEJlQEqNHIriFxtI0M043aWO3TE
KuntjGmmrURdLWeZ6m+WeCWJiv6zuf11nlkAXGOfqJAp0A+riN5/yKx6VEu1CbCD
vr3lPRH8EHJ4YftfZ4y3rwRxPMn0DLxKXZBlq0+Nzzotse22oZHHtLM1Q3RIk2pc
37086r3RoBf88K5ozfWEXqGZSQCdj1YcCYeoxIvjmo+Gw2NEfkiXNhZENcT604u/
bDcm6MmaPT7llOjyzz2hXJ+g2LVsMm7hYAVNSkEm/3w8zp54kIASjAdpkZNOlCre
gT1/Ju/gobrdfbJeiCLuj8EDPd6gj+7YCtNVyMKzXv2OuVuZc67PXzpfHd/Gs9VS
Y0Y/4DfNJNJKU4Yv02bdk+k1cdZs4Kwi9vLV0boR2ixUCbvlQhYh3sJhoiBbA0vV
b6D9V9QgquJMpn+4GZXMXcwaw7lUcHvEVVmjagh1561417Pstgrhpxi2oZdTV+8/
mRFPxcERZT6czuGMbj2M5aY8MZ7tBrsaSkenXOjVU9Sf/ICgrRtIZJJlB+0vulo2
+4VpNhPP1AyeI7+gJdC+nYbzJFWZ9a7A4ClFVmNESn1pRFN5fXGloQadhNgpIonj
lhtp45X8wFRInL+q4BcCz+WfOc4rSOeVWWeXA1CBEIY0
-----END CERTIFICATE-----
