Certificate:
    Data:
        Version: 3 (0x2)
        Serial Number: 12853 (0x3235)
    Signature Algorithm: sha256WithRSAEncryption
        Issuer: C=US, ST=OH, L=Columbus, O=VikingVPN, OU=MyOrganizationalUnit, CN=VikingVPN CA/name=EasyRSA/emailAddress=me@myhost.mydomain
        Validity
            Not Before: Mar 31 18:49:08 2018 GMT
            Not After : Mar 28 18:49:08 2028 GMT
        Subject: CN=Client2836Cert37ad1b
        Subject Public Key Info:
            Public Key Algorithm: rsaEncryption
                Public-Key: (4096 bit)
                Modulus:
                    00:cd:33:93:03:28:77:60:61:da:38:94:24:58:d6:
                    3e:b1:c7:ed:9f:cd:ca:fd:1f:f5:fc:21:86:bc:e3:
                    b9:34:e2:91:c1:e4:d2:17:57:41:3b:83:b7:d2:24:
                    da:68:48:99:17:2b:ee:21:cc:1c:9c:7b:e2:ba:db:
                    bd:c6:b7:7f:9c:92:89:ed:d2:a7:87:01:23:d3:ed:
                    5f:d0:d5:b1:4d:dd:54:f3:df:48:ad:bd:a1:d5:38:
                    e1:be:66:59:77:a2:c8:63:f9:73:b4:31:71:38:4a:
                    b2:7b:47:e4:18:06:19:94:2a:34:6a:e2:bc:88:6d:
                    50:09:09:b8:83:bb:8c:28:ac:82:76:c0:33:a8:1e:
                    eb:9d:0b:9f:23:12:06:34:91:ac:8b:5e:5f:ce:a3:
                    ed:11:19:7f:59:91:4b:8e:a7:ff:cb:b0:69:8b:85:
                    44:98:8e:1f:a7:80:ac:0d:0a:4f:89:cd:85:1d:da:
                    37:c3:8b:3c:7f:2b:16:ed:33:15:6a:32:92:26:20:
                    6b:77:2d:fb:36:e2:70:30:c2:5d:29:f8:12:2d:7b:
                    e4:a3:4a:bc:b1:94:93:02:56:6a:09:dc:60:c0:4d:
                    bd:e8:8b:fe:da:33:87:32:fa:d0:0e:5a:18:93:f0:
                    f1:ae:e6:50:f1:6e:e8:fd:02:08:cb:d8:45:17:24:
                    97:e1:86:94:e6:40:4c:e7:c3:e5:26:5a:bc:26:b0:
                    d9:b8:85:bf:51:11:6f:98:41:fa:b9:1e:4e:8d:13:
                    81:a9:76:21:52:6b:5d:6d:41:41:3a:a7:72:99:82:
                    15:1f:e7:4f:5d:36:8d:f7:fb:60:02:04:61:f5:f7:
                    f6:c2:45:a6:74:1a:c1:f8:3e:1d:9c:01:73:6d:78:
                    41:c9:b5:93:c9:52:c1:2e:ef:ac:3d:a8:e2:6c:9e:
                    a5:a7:78:54:40:9b:ce:aa:c7:b1:9e:10:61:53:1f:
                    d5:f9:fc:f2:c7:a2:6b:c4:05:5e:67:cb:e1:4d:c5:
                    28:68:f7:66:e5:72:69:85:02:2c:3e:ad:df:ed:f7:
                    35:cc:83:b2:7a:20:f8:1f:84:32:e0:0a:dd:29:47:
                    12:01:bf:2e:13:19:be:1f:46:b3:63:90:76:8b:05:
                    9d:a0:2c:3b:b4:b0:c2:f3:96:f4:44:ba:02:89:5d:
                    29:f9:ac:53:5e:05:42:c3:08:c2:f5:98:25:db:76:
                    83:37:26:86:38:3f:cd:81:9b:d0:8d:e7:40:b7:1f:
                    dd:ee:80:46:42:81:35:6c:f4:5a:8a:4c:17:f2:4f:
                    fc:d9:6d:c7:9c:b2:26:b0:27:ca:71:fd:fb:bf:55:
                    55:27:27:86:85:c8:1b:58:73:52:06:a6:71:bb:2c:
                    95:ee:d3
                Exponent: 65537 (0x10001)
        X509v3 extensions:
            X509v3 Basic Constraints: 
                CA:FALSE
            Netscape Comment: 
                Easy-RSA Generated Certificate
            X509v3 Subject Key Identifier: 
                9A:A5:7A:0B:AF:12:19:71:62:03:1E:CE:D0:44:25:FF:16:D0:A6:78
            X509v3 Authority Key Identifier: 
                keyid:12:CD:60:04:D2:A0:80:9E:70:ED:C6:99:B8:7B:2C:C6:52:FD:19:A1
                DirName:/C=US/ST=OH/L=Columbus/O=VikingVPN/OU=MyOrganizationalUnit/CN=VikingVPN CA/name=EasyRSA/emailAddress=me@myhost.mydomain
                serial:CF:35:85:EE:80:BF:2A:3E

            X509v3 Extended Key Usage: 
                TLS Web Client Authentication
            X509v3 Key Usage: 
                Digital Signature
    Signature Algorithm: sha256WithRSAEncryption
         dc:e3:31:61:44:21:35:ed:71:23:22:0c:4c:d7:79:b9:8f:f2:
         0e:4c:da:30:1d:66:56:e9:e0:76:8b:d6:84:7f:11:31:c8:9b:
         e3:d5:29:0f:86:75:87:90:8e:32:67:4d:4b:e1:cd:88:b9:d9:
         ad:34:45:9b:25:ee:56:04:82:de:76:1e:0c:1c:6b:94:fa:be:
         5a:32:d2:95:51:b6:1b:00:69:7f:45:1c:51:42:d1:69:20:5e:
         8c:58:cf:34:77:fa:2d:ba:6f:ac:dd:7f:a4:fa:d4:ef:7d:e7:
         e4:79:f2:3f:46:b3:1c:78:2f:7c:7d:43:cd:b8:34:cc:20:d3:
         cd:bf:22:ba:45:16:24:fe:a6:66:1e:11:b1:b1:04:dd:91:37:
         6a:87:97:3f:4a:82:d3:65:95:e4:c7:9d:89:13:01:13:bd:79:
         54:ad:e6:f1:1c:3c:15:a7:eb:30:2d:ff:81:4b:3d:b1:44:42:
         d1:79:d2:89:ca:e1:23:d7:b9:a0:e4:97:91:b9:4a:2a:1f:9c:
         e3:46:18:3b:08:f9:fd:23:d8:19:12:28:ca:44:5f:e7:f1:c8:
         3a:67:67:98:de:82:94:03:8b:2c:93:a2:11:60:7a:14:f8:b4:
         87:97:e5:68:79:22:0b:7e:c6:49:b3:06:7f:1d:9e:87:62:aa:
         11:d5:90:64:98:81:54:b3:6a:e5:47:ff:4c:23:20:cb:69:4d:
         89:c7:3f:06:5c:34:ab:85:df:cb:f2:09:30:c4:95:df:01:55:
         e3:3c:90:77:54:ea:f6:ed:b1:15:dd:ee:a0:c9:9e:99:9f:23:
         31:bb:f0:6a:f7:02:79:bd:07:c4:c7:c6:ae:aa:60:d4:6f:f2:
         18:15:51:c4:61:bd:50:b5:54:4f:4d:40:c7:c3:ce:3a:11:50:
         8e:f3:6f:a4:d9:32:b3:17:8b:e9:00:4a:e7:57:3e:d8:6f:67:
         e1:f8:0c:bf:37:28:93:29:2b:1e:b7:92:cd:f7:6d:fd:cc:85:
         9e:f6:98:e5:c5:67:e8:3f:f7:53:65:38:d4:43:89:12:ce:df:
         85:1a:2c:6f:17:f7:9f:b7:a2:94:a2:7a:52:04:e6:f8:fe:3e:
         2f:8d:89:38:13:ec:c1:1d:c7:b5:51:c3:bc:6e:1a:87:8b:a5:
         64:68:e7:58:f2:fc:e4:35:e9:8b:7d:34:39:df:05:58:1e:07:
         28:f1:79:83:25:b7:97:26:c2:1e:99:d4:67:27:d2:96:24:c5:
         60:10:a1:95:e7:16:f9:31:0d:9a:ef:b2:88:1d:19:9a:ef:42:
         ad:c5:e2:21:0e:ff:c2:4d:f9:1f:a8:bb:e3:84:f1:10:e2:88:
         c4:63:09:54:5f:ef:0f:56
-----BEGIN CERTIFICATE-----
MIIGrTCCBJWgAwIBAgICMjUwDQYJKoZIhvcNAQELBQAwgawxCzAJBgNVBAYTAlVT
MQswCQYDVQQIEwJPSDERMA8GA1UEBxMIQ29sdW1idXMxEjAQBgNVBAoTCVZpa2lu
Z1ZQTjEdMBsGA1UECxMUTXlPcmdhbml6YXRpb25hbFVuaXQxFTATBgNVBAMTDFZp
a2luZ1ZQTiBDQTEQMA4GA1UEKRMHRWFzeVJTQTEhMB8GCSqGSIb3DQEJARYSbWVA
bXlob3N0Lm15ZG9tYWluMB4XDTE4MDMzMTE4NDkwOFoXDTI4MDMyODE4NDkwOFow
HzEdMBsGA1UEAxMUQ2xpZW50MjgzNkNlcnQzN2FkMWIwggIiMA0GCSqGSIb3DQEB
AQUAA4ICDwAwggIKAoICAQDNM5MDKHdgYdo4lCRY1j6xx+2fzcr9H/X8IYa847k0
4pHB5NIXV0E7g7fSJNpoSJkXK+4hzByce+K6273Gt3+ckont0qeHASPT7V/Q1bFN
3VTz30itvaHVOOG+Zll3oshj+XO0MXE4SrJ7R+QYBhmUKjRq4ryIbVAJCbiDu4wo
rIJ2wDOoHuudC58jEgY0kayLXl/Oo+0RGX9ZkUuOp//LsGmLhUSYjh+ngKwNCk+J
zYUd2jfDizx/KxbtMxVqMpImIGt3Lfs24nAwwl0p+BIte+SjSryxlJMCVmoJ3GDA
Tb3oi/7aM4cy+tAOWhiT8PGu5lDxbuj9AgjL2EUXJJfhhpTmQEznw+UmWrwmsNm4
hb9REW+YQfq5Hk6NE4GpdiFSa11tQUE6p3KZghUf509dNo33+2ACBGH19/bCRaZ0
GsH4Ph2cAXNteEHJtZPJUsEu76w9qOJsnqWneFRAm86qx7GeEGFTH9X5/PLHomvE
BV5ny+FNxSho92blcmmFAiw+rd/t9zXMg7J6IPgfhDLgCt0pRxIBvy4TGb4fRrNj
kHaLBZ2gLDu0sMLzlvREugKJXSn5rFNeBULDCML1mCXbdoM3JoY4P82Bm9CN50C3
H93ugEZCgTVs9FqKTBfyT/zZbcecsiawJ8px/fu/VVUnJ4aFyBtYc1IGpnG7LJXu
0wIDAQABo4IBYzCCAV8wCQYDVR0TBAIwADAtBglghkgBhvhCAQ0EIBYeRWFzeS1S
U0EgR2VuZXJhdGVkIENlcnRpZmljYXRlMB0GA1UdDgQWBBSapXoLrxIZcWIDHs7Q
RCX/FtCmeDCB4QYDVR0jBIHZMIHWgBQSzWAE0qCAnnDtxpm4eyzGUv0ZoaGBsqSB
rzCBrDELMAkGA1UEBhMCVVMxCzAJBgNVBAgTAk9IMREwDwYDVQQHEwhDb2x1bWJ1
czESMBAGA1UEChMJVmlraW5nVlBOMR0wGwYDVQQLExRNeU9yZ2FuaXphdGlvbmFs
VW5pdDEVMBMGA1UEAxMMVmlraW5nVlBOIENBMRAwDgYDVQQpEwdFYXN5UlNBMSEw
HwYJKoZIhvcNAQkBFhJtZUBteWhvc3QubXlkb21haW6CCQDPNYXugL8qPjATBgNV
HSUEDDAKBggrBgEFBQcDAjALBgNVHQ8EBAMCB4AwDQYJKoZIhvcNAQELBQADggIB
ANzjMWFEITXtcSMiDEzXebmP8g5M2jAdZlbp4HaL1oR/ETHIm+PVKQ+GdYeQjjJn
TUvhzYi52a00RZsl7lYEgt52Hgwca5T6vloy0pVRthsAaX9FHFFC0WkgXoxYzzR3
+i26b6zdf6T61O995+R58j9Gsxx4L3x9Q824NMwg082/IrpFFiT+pmYeEbGxBN2R
N2qHlz9KgtNlleTHnYkTARO9eVSt5vEcPBWn6zAt/4FLPbFEQtF50onK4SPXuaDk
l5G5SiofnONGGDsI+f0j2BkSKMpEX+fxyDpnZ5jegpQDiyyTohFgehT4tIeX5Wh5
Igt+xkmzBn8dnodiqhHVkGSYgVSzauVH/0wjIMtpTYnHPwZcNKuF38vyCTDEld8B
VeM8kHdU6vbtsRXd7qDJnpmfIzG78Gr3Anm9B8THxq6qYNRv8hgVUcRhvVC1VE9N
QMfDzjoRUI7zb6TZMrMXi+kASudXPthvZ+H4DL83KJMpKx63ks33bf3MhZ72mOXF
Z+g/91NlONRDiRLO34UaLG8X95+3opSielIE5vj+Pi+NiTgT7MEdx7VRw7xuGoeL
pWRo51jy/OQ16Yt9NDnfBVgeByjxeYMlt5cmwh6Z1Gcn0pYkxWAQoZXnFvkxDZrv
sogdGZrvQq3F4iEO/8JN+R+ou+OE8RDiiMRjCVRf7w9W
-----END CERTIFICATE-----
