Certificate:
    Data:
        Version: 3 (0x2)
        Serial Number: 12858 (0x323a)
    Signature Algorithm: sha256WithRSAEncryption
        Issuer: C=US, ST=OH, L=Columbus, O=VikingVPN, OU=MyOrganizationalUnit, CN=VikingVPN CA/name=EasyRSA/emailAddress=me@myhost.mydomain
        Validity
            Not Before: Apr  1 04:12:44 2018 GMT
            Not After : Mar 29 04:12:44 2028 GMT
        Subject: CN=Client2611Certb3b224
        Subject Public Key Info:
            Public Key Algorithm: rsaEncryption
                Public-Key: (4096 bit)
                Modulus:
                    00:bf:b3:ba:31:e2:e1:c6:4c:2f:4c:a8:f2:2c:c9:
                    9d:ad:59:f9:b8:68:a8:23:82:17:59:e9:16:89:bf:
                    9a:5c:b8:8a:e0:e9:d5:47:4c:cf:b4:df:2b:e5:e6:
                    ef:5b:5e:13:20:1b:b4:3f:83:97:b2:7a:e0:da:47:
                    a6:00:fd:ba:e6:f3:23:27:71:28:cb:e6:68:06:70:
                    07:e0:61:e1:ab:c6:7b:97:0f:8b:d6:a7:3a:93:be:
                    2b:5c:dc:9e:3f:4b:53:94:83:93:09:46:e8:37:1f:
                    61:7e:23:70:dc:b9:64:74:bd:c9:30:de:c9:e2:0b:
                    24:e1:07:bf:80:77:14:ef:32:03:52:8c:42:ce:19:
                    02:3e:68:e3:ee:d6:f8:2c:6a:b7:7a:73:d5:85:41:
                    fd:d5:b1:31:fc:36:1e:cb:9a:f6:5c:0b:40:13:25:
                    16:7e:84:2d:57:a4:b8:7e:6e:96:07:41:9f:98:d2:
                    38:7b:42:c3:b5:c9:ab:98:2b:21:ba:8d:56:f2:84:
                    7a:27:d7:dc:1b:e0:17:6a:85:e0:b4:65:ea:d5:60:
                    2b:06:4c:c6:46:96:1c:e7:a0:40:40:69:c1:50:37:
                    19:76:c0:d9:3d:1f:59:b6:5e:8f:83:cd:7c:f1:01:
                    ea:cb:ad:57:44:f6:5c:83:42:01:03:b4:79:09:92:
                    c8:37:16:07:c2:41:dd:99:9d:68:1a:bd:4d:d5:92:
                    4b:9f:2b:ab:1a:78:f9:d0:e8:44:9b:52:ac:77:75:
                    5c:b9:d1:b4:e1:0b:5f:8f:4d:be:83:f6:87:18:41:
                    b0:9d:ac:93:d9:89:7c:c4:b9:52:22:c2:b9:de:7c:
                    fe:04:3c:2f:cc:09:78:90:24:3d:42:f4:c9:0d:6b:
                    a6:51:8d:8a:fa:cb:a1:86:d9:f3:e0:50:eb:c1:4d:
                    a0:96:02:94:ec:f8:52:12:7d:7d:e8:88:28:a5:63:
                    2c:ef:bd:57:7d:52:50:7a:96:f8:ff:4a:d2:f3:98:
                    79:fe:52:b6:55:53:36:14:a2:d8:6c:dd:1d:37:b1:
                    7b:5c:61:36:b7:ac:22:d6:24:41:9d:ca:ed:ee:d3:
                    4a:17:9f:ab:9b:fe:3c:74:4f:8b:e6:a1:fe:ac:43:
                    76:ea:36:f6:b6:4d:58:31:2d:e0:48:b2:d8:2f:fa:
                    e6:2d:69:e3:4a:89:e0:8b:b2:b8:ca:76:67:37:a0:
                    d4:37:dd:55:98:8e:48:d0:b6:72:ca:63:0c:6f:14:
                    8c:ac:3e:d5:2d:72:63:98:11:6c:de:d3:7c:b3:2b:
                    ad:d4:c3:75:ad:aa:da:c1:12:30:29:3e:a4:63:e3:
                    3c:e1:60:e9:10:6e:28:3e:10:0f:66:41:a1:1b:6b:
                    32:04:ff
                Exponent: 65537 (0x10001)
        X509v3 extensions:
            X509v3 Basic Constraints: 
                CA:FALSE
            Netscape Comment: 
                Easy-RSA Generated Certificate
            X509v3 Subject Key Identifier: 
                49:39:6C:53:B4:41:1F:9E:76:48:3B:AA:2A:76:41:F5:D1:09:2F:83
            X509v3 Authority Key Identifier: 
                keyid:12:CD:60:04:D2:A0:80:9E:70:ED:C6:99:B8:7B:2C:C6:52:FD:19:A1
                DirName:/C=US/ST=OH/L=Columbus/O=VikingVPN/OU=MyOrganizationalUnit/CN=VikingVPN CA/name=EasyRSA/emailAddress=me@myhost.mydomain
                serial:CF:35:85:EE:80:BF:2A:3E

            X509v3 Extended Key Usage: 
                TLS Web Client Authentication
            X509v3 Key Usage: 
                Digital Signature
    Signature Algorithm: sha256WithRSAEncryption
         cc:95:15:06:c0:02:0b:9c:22:f6:cf:e9:2b:e9:bf:db:03:ce:
         12:ff:5d:4b:95:1d:a9:ef:78:6d:5f:ff:2c:d7:ee:a0:fa:9e:
         16:64:1b:6c:68:c5:08:5b:63:ea:ed:0f:6f:f9:f2:5e:d7:f5:
         e2:51:34:d7:29:38:4a:e2:6a:f8:10:18:5b:c0:ee:9d:d7:8f:
         8c:d6:34:27:45:a2:05:15:cc:99:fc:91:9b:47:43:21:1f:4a:
         a6:90:cb:02:17:23:4f:ac:67:12:67:83:cc:9e:79:a2:7d:0a:
         7c:b9:7e:43:80:4f:5c:07:e3:8d:ee:fa:e0:77:5a:fa:6d:1b:
         da:a2:68:19:1d:55:09:d2:0b:44:8a:42:e9:3b:cc:a8:2c:64:
         e8:c6:8d:4d:31:94:0a:ef:f0:cd:9c:b4:84:cf:d1:d4:ad:8c:
         e4:5c:6d:c6:63:5b:9e:23:c4:c7:90:75:80:28:ec:ba:73:66:
         20:8f:7e:a3:75:1f:ae:10:a4:ce:e4:e0:c2:0b:74:11:6a:6c:
         07:6f:03:26:39:fa:6f:94:de:ac:1e:07:89:41:db:24:91:25:
         76:84:7e:a4:42:09:b0:09:d4:64:cd:5d:03:df:39:f9:18:8f:
         f3:b2:7d:75:b6:e7:49:5b:cd:05:f1:10:2c:ef:4d:df:ea:7d:
         1a:73:51:a4:e5:7a:95:44:fb:70:4c:db:03:66:cd:58:81:a6:
         62:23:34:ae:0d:f1:73:42:1a:13:53:37:2a:50:0f:b1:10:f2:
         94:16:3e:f7:04:53:76:50:75:c5:0b:45:2c:0b:d5:85:e5:74:
         8d:97:9f:83:2b:4c:1e:0c:6a:25:32:c1:a9:d9:31:1f:bc:95:
         c6:e6:30:26:7d:47:40:31:dd:81:3b:84:54:e9:a4:ce:c8:1e:
         01:87:f2:bb:1c:b4:bf:9d:8e:73:c4:b2:47:d9:74:00:9b:fa:
         f9:fa:c7:47:f2:be:58:dc:e6:09:f6:9f:a1:74:d3:07:e8:92:
         fc:0f:14:1c:5a:60:c1:58:de:c2:5c:f6:50:73:75:80:89:5a:
         16:3b:42:58:05:aa:ee:89:cc:69:14:d5:25:73:f9:fa:66:51:
         fc:41:74:3d:41:49:11:eb:ba:34:af:a0:15:56:a3:9c:a2:2d:
         c6:20:1b:bb:1a:24:b3:b0:e7:f4:ed:14:6c:46:42:b9:37:e0:
         54:90:9e:16:49:37:bc:ef:28:57:d1:c9:19:2e:74:f2:66:1c:
         e4:b3:37:f0:eb:11:28:91:8f:1a:0c:29:1f:6b:72:d6:e4:fc:
         56:b6:cc:49:ec:f4:6b:8c:07:fa:2e:64:00:b1:9c:d7:f2:74:
         76:af:44:46:24:7e:86:60
-----BEGIN CERTIFICATE-----
MIIGrTCCBJWgAwIBAgICMjowDQYJKoZIhvcNAQELBQAwgawxCzAJBgNVBAYTAlVT
MQswCQYDVQQIEwJPSDERMA8GA1UEBxMIQ29sdW1idXMxEjAQBgNVBAoTCVZpa2lu
Z1ZQTjEdMBsGA1UECxMUTXlPcmdhbml6YXRpb25hbFVuaXQxFTATBgNVBAMTDFZp
a2luZ1ZQTiBDQTEQMA4GA1UEKRMHRWFzeVJTQTEhMB8GCSqGSIb3DQEJARYSbWVA
bXlob3N0Lm15ZG9tYWluMB4XDTE4MDQwMTA0MTI0NFoXDTI4MDMyOTA0MTI0NFow
HzEdMBsGA1UEAxMUQ2xpZW50MjYxMUNlcnRiM2IyMjQwggIiMA0GCSqGSIb3DQEB
AQUAA4ICDwAwggIKAoICAQC/s7ox4uHGTC9MqPIsyZ2tWfm4aKgjghdZ6RaJv5pc
uIrg6dVHTM+03yvl5u9bXhMgG7Q/g5eyeuDaR6YA/brm8yMncSjL5mgGcAfgYeGr
xnuXD4vWpzqTvitc3J4/S1OUg5MJRug3H2F+I3DcuWR0vckw3sniCyThB7+AdxTv
MgNSjELOGQI+aOPu1vgsard6c9WFQf3VsTH8Nh7LmvZcC0ATJRZ+hC1XpLh+bpYH
QZ+Y0jh7QsO1yauYKyG6jVbyhHon19wb4BdqheC0ZerVYCsGTMZGlhznoEBAacFQ
Nxl2wNk9H1m2Xo+DzXzxAerLrVdE9lyDQgEDtHkJksg3FgfCQd2ZnWgavU3Vkkuf
K6saePnQ6ESbUqx3dVy50bThC1+PTb6D9ocYQbCdrJPZiXzEuVIiwrnefP4EPC/M
CXiQJD1C9MkNa6ZRjYr6y6GG2fPgUOvBTaCWApTs+FISfX3oiCilYyzvvVd9UlB6
lvj/StLzmHn+UrZVUzYUoths3R03sXtcYTa3rCLWJEGdyu3u00oXn6ub/jx0T4vm
of6sQ3bqNva2TVgxLeBIstgv+uYtaeNKieCLsrjKdmc3oNQ33VWYjkjQtnLKYwxv
FIysPtUtcmOYEWze03yzK63Uw3WtqtrBEjApPqRj4zzhYOkQbig+EA9mQaEbazIE
/wIDAQABo4IBYzCCAV8wCQYDVR0TBAIwADAtBglghkgBhvhCAQ0EIBYeRWFzeS1S
U0EgR2VuZXJhdGVkIENlcnRpZmljYXRlMB0GA1UdDgQWBBRJOWxTtEEfnnZIO6oq
dkH10QkvgzCB4QYDVR0jBIHZMIHWgBQSzWAE0qCAnnDtxpm4eyzGUv0ZoaGBsqSB
rzCBrDELMAkGA1UEBhMCVVMxCzAJBgNVBAgTAk9IMREwDwYDVQQHEwhDb2x1bWJ1
czESMBAGA1UEChMJVmlraW5nVlBOMR0wGwYDVQQLExRNeU9yZ2FuaXphdGlvbmFs
VW5pdDEVMBMGA1UEAxMMVmlraW5nVlBOIENBMRAwDgYDVQQpEwdFYXN5UlNBMSEw
HwYJKoZIhvcNAQkBFhJtZUBteWhvc3QubXlkb21haW6CCQDPNYXugL8qPjATBgNV
HSUEDDAKBggrBgEFBQcDAjALBgNVHQ8EBAMCB4AwDQYJKoZIhvcNAQELBQADggIB
AMyVFQbAAgucIvbP6Svpv9sDzhL/XUuVHanveG1f/yzX7qD6nhZkG2xoxQhbY+rt
D2/58l7X9eJRNNcpOEriavgQGFvA7p3Xj4zWNCdFogUVzJn8kZtHQyEfSqaQywIX
I0+sZxJng8yeeaJ9Cny5fkOAT1wH443u+uB3WvptG9qiaBkdVQnSC0SKQuk7zKgs
ZOjGjU0xlArv8M2ctITP0dStjORcbcZjW54jxMeQdYAo7LpzZiCPfqN1H64QpM7k
4MILdBFqbAdvAyY5+m+U3qweB4lB2ySRJXaEfqRCCbAJ1GTNXQPfOfkYj/OyfXW2
50lbzQXxECzvTd/qfRpzUaTlepVE+3BM2wNmzViBpmIjNK4N8XNCGhNTNypQD7EQ
8pQWPvcEU3ZQdcULRSwL1YXldI2Xn4MrTB4MaiUywanZMR+8lcbmMCZ9R0Ax3YE7
hFTppM7IHgGH8rsctL+djnPEskfZdACb+vn6x0fyvljc5gn2n6F00wfokvwPFBxa
YMFY3sJc9lBzdYCJWhY7QlgFqu6JzGkU1SVz+fpmUfxBdD1BSRHrujSvoBVWo5yi
LcYgG7saJLOw5/TtFGxGQrk34FSQnhZJN7zvKFfRyRkudPJmHOSzN/DrESiRjxoM
KR9rctbk/Fa2zEns9GuMB/ouZACxnNfydHavREYkfoZg
-----END CERTIFICATE-----
