Certificate:
    Data:
        Version: 3 (0x2)
        Serial Number: 12875 (0x324b)
    Signature Algorithm: sha256WithRSAEncryption
        Issuer: C=US, ST=OH, L=Columbus, O=VikingVPN, OU=MyOrganizationalUnit, CN=VikingVPN CA/name=EasyRSA/emailAddress=me@myhost.mydomain
        Validity
            Not Before: Apr  2 10:12:17 2018 GMT
            Not After : Mar 30 10:12:17 2028 GMT
        Subject: CN=Client1702Certda05f7
        Subject Public Key Info:
            Public Key Algorithm: rsaEncryption
                Public-Key: (4096 bit)
                Modulus:
                    00:da:7e:77:a6:3c:04:76:4a:12:3b:ef:cc:f0:a0:
                    2b:a8:d8:06:a1:ae:b0:29:d7:76:4d:3c:d7:51:c2:
                    36:6c:bd:36:d8:77:25:8a:ad:2a:9e:22:d1:89:77:
                    9d:f9:7d:38:d1:ed:45:46:87:73:9f:aa:36:5f:6c:
                    0f:48:3b:dd:df:e2:3e:30:ee:31:5e:cc:75:0a:eb:
                    fb:d5:ed:d0:c1:5e:66:b9:16:8d:53:94:28:cf:67:
                    db:9d:d9:52:a3:81:c5:ab:07:59:17:af:c5:e6:bc:
                    77:99:a8:98:b0:6b:06:3a:18:c7:39:e4:ed:10:c0:
                    55:b4:bf:5f:c2:2b:57:09:67:80:42:a3:6c:32:d2:
                    d7:12:5b:14:d6:f4:b4:62:99:74:88:8f:44:98:c6:
                    31:12:6e:79:23:d3:09:76:5e:af:96:fa:70:00:9a:
                    c3:f9:13:21:9f:18:ac:ab:4b:16:99:86:b5:ef:6e:
                    09:f2:6b:e3:3f:32:40:04:f6:d7:72:09:cc:b8:00:
                    e1:2b:7e:f9:06:af:9f:e4:77:41:e2:65:d4:5b:42:
                    8b:0f:fd:96:ba:22:11:45:d5:3a:1d:1f:bf:18:a5:
                    ed:60:cc:aa:9d:cf:ba:c8:5d:a9:6a:0c:68:2f:a1:
                    0a:fd:af:1c:0e:3d:8b:ac:d7:cf:c5:82:32:40:8a:
                    3f:15:e8:bf:48:2f:fa:2d:57:d1:68:a2:be:34:0f:
                    56:64:1c:ea:48:ef:72:30:e4:0a:3f:2f:9a:04:47:
                    73:e6:51:9e:83:da:aa:b4:d8:a0:7b:a5:fb:59:ca:
                    68:ab:dd:a4:5e:eb:dc:e5:6e:07:be:39:99:81:21:
                    d5:9c:eb:29:c9:95:ef:0b:c8:12:cd:09:b2:3b:21:
                    56:73:8e:b0:4e:5b:08:c7:7b:8c:45:42:2e:74:85:
                    28:83:08:c9:be:76:8d:b3:bf:42:e3:0f:96:a5:33:
                    b6:5a:8a:4c:b5:86:3b:4c:5d:42:58:3e:ea:86:38:
                    20:b2:e6:a0:0d:4f:ae:66:98:46:4f:ec:64:1c:63:
                    52:e0:d1:25:a2:9f:d5:89:5a:e7:1a:17:3a:58:29:
                    a5:29:fb:71:2e:e2:be:6d:89:b3:5e:71:a5:62:43:
                    11:15:34:75:d3:19:b3:9c:4d:c3:23:8f:b3:0c:18:
                    94:f9:3c:ef:de:3e:12:f6:e3:08:98:38:94:a8:7b:
                    2d:0a:2d:ee:9f:41:3e:0c:d5:b4:86:e0:8c:63:c1:
                    eb:64:2c:66:e3:d2:6d:bc:81:af:da:a0:d6:f5:73:
                    74:49:5f:3e:8d:a3:b6:c1:56:e6:22:d9:31:c3:77:
                    40:99:dc:c3:e5:3b:b5:12:06:52:c8:b2:d5:52:e7:
                    1a:df:83
                Exponent: 65537 (0x10001)
        X509v3 extensions:
            X509v3 Basic Constraints: 
                CA:FALSE
            Netscape Comment: 
                Easy-RSA Generated Certificate
            X509v3 Subject Key Identifier: 
                EF:3F:4C:12:87:1E:D2:D9:10:9F:2C:D4:81:AA:56:22:0B:D6:21:BD
            X509v3 Authority Key Identifier: 
                keyid:12:CD:60:04:D2:A0:80:9E:70:ED:C6:99:B8:7B:2C:C6:52:FD:19:A1
                DirName:/C=US/ST=OH/L=Columbus/O=VikingVPN/OU=MyOrganizationalUnit/CN=VikingVPN CA/name=EasyRSA/emailAddress=me@myhost.mydomain
                serial:CF:35:85:EE:80:BF:2A:3E

            X509v3 Extended Key Usage: 
                TLS Web Client Authentication
            X509v3 Key Usage: 
                Digital Signature
    Signature Algorithm: sha256WithRSAEncryption
         76:36:6e:ac:bc:f0:c2:d2:04:92:40:05:4c:6d:fc:8f:53:5e:
         8a:4d:ce:3c:b2:6d:3d:7b:ce:05:8b:1d:37:87:e5:4b:07:8a:
         29:bc:12:a9:3e:27:1d:1f:9f:21:34:41:2d:1f:e9:b5:72:d1:
         b0:2a:17:58:28:39:23:22:db:de:b1:5d:30:2f:d0:55:ff:59:
         1b:90:e0:1b:f2:ab:bb:a3:06:1d:96:d2:46:8b:4b:c5:35:0d:
         56:0a:fc:35:86:68:62:61:61:f8:16:f7:4b:8e:60:17:47:09:
         b2:b9:5f:c5:8e:72:0f:08:e4:fe:d6:eb:03:72:70:8f:a6:8f:
         7d:f0:ad:05:65:ac:09:32:46:94:a9:5a:60:09:0c:bf:67:73:
         1d:5a:96:6a:ea:84:83:82:e0:7d:6b:ba:90:d6:50:0c:cc:2d:
         ae:41:48:0b:9e:c3:37:a8:36:76:74:8e:99:2e:16:03:10:46:
         c5:5c:24:30:04:76:04:50:c4:a9:31:68:c7:c9:f0:6f:fb:67:
         2c:46:1b:53:5d:b2:54:52:07:91:0a:f7:65:f1:33:d9:31:78:
         f0:00:30:c1:93:75:dd:9e:d0:99:59:cd:1a:cb:30:51:b4:bd:
         46:40:1d:7b:24:bd:fa:cd:ca:d9:16:3e:0b:81:57:02:f0:54:
         4d:bc:cf:65:d4:5c:2e:2d:15:2b:47:a2:93:20:90:f7:e8:2b:
         f1:e7:88:37:12:01:d1:08:fd:be:a5:e6:44:b5:7f:83:17:06:
         da:d9:f4:97:82:85:4c:24:40:e5:a5:de:65:e3:8a:3c:a8:05:
         f3:ff:89:04:2e:cf:3a:ff:93:60:78:a0:bc:f3:ec:f0:4a:22:
         1b:55:54:20:9b:2e:85:e4:7f:80:10:36:73:6e:aa:1c:06:96:
         b4:28:48:e8:62:7f:35:4b:24:f1:81:18:68:47:e1:7a:a4:88:
         e9:ac:2d:c4:b0:59:90:c8:93:2d:76:e8:75:42:6b:50:8e:5b:
         55:db:55:33:90:17:55:d2:2c:66:cb:fe:50:c6:14:96:73:ad:
         ae:40:45:d3:f2:c9:a6:61:78:30:62:21:78:27:77:3a:2d:03:
         74:08:00:c3:2b:77:99:c3:6f:5c:9d:e4:8d:6d:c8:e1:b4:9f:
         56:47:41:17:20:4f:01:c2:a4:7a:de:15:1b:6e:32:78:00:6c:
         82:e0:28:b0:93:d0:4f:f6:3f:5e:3c:f4:f8:18:cb:dd:98:b9:
         ad:39:94:df:90:a7:4d:a3:ab:cc:43:b7:6d:10:81:08:91:1e:
         61:57:1e:59:57:df:4a:2e:24:51:8a:53:05:61:8f:c7:f1:07:
         03:bf:6b:53:4c:8c:a8:0d
-----BEGIN CERTIFICATE-----
MIIGrTCCBJWgAwIBAgICMkswDQYJKoZIhvcNAQELBQAwgawxCzAJBgNVBAYTAlVT
MQswCQYDVQQIEwJPSDERMA8GA1UEBxMIQ29sdW1idXMxEjAQBgNVBAoTCVZpa2lu
Z1ZQTjEdMBsGA1UECxMUTXlPcmdhbml6YXRpb25hbFVuaXQxFTATBgNVBAMTDFZp
a2luZ1ZQTiBDQTEQMA4GA1UEKRMHRWFzeVJTQTEhMB8GCSqGSIb3DQEJARYSbWVA
bXlob3N0Lm15ZG9tYWluMB4XDTE4MDQwMjEwMTIxN1oXDTI4MDMzMDEwMTIxN1ow
HzEdMBsGA1UEAxMUQ2xpZW50MTcwMkNlcnRkYTA1ZjcwggIiMA0GCSqGSIb3DQEB
AQUAA4ICDwAwggIKAoICAQDafnemPAR2ShI778zwoCuo2AahrrAp13ZNPNdRwjZs
vTbYdyWKrSqeItGJd535fTjR7UVGh3OfqjZfbA9IO93f4j4w7jFezHUK6/vV7dDB
Xma5Fo1TlCjPZ9ud2VKjgcWrB1kXr8XmvHeZqJiwawY6GMc55O0QwFW0v1/CK1cJ
Z4BCo2wy0tcSWxTW9LRimXSIj0SYxjESbnkj0wl2Xq+W+nAAmsP5EyGfGKyrSxaZ
hrXvbgnya+M/MkAE9tdyCcy4AOErfvkGr5/kd0HiZdRbQosP/Za6IhFF1TodH78Y
pe1gzKqdz7rIXalqDGgvoQr9rxwOPYus18/FgjJAij8V6L9IL/otV9Foor40D1Zk
HOpI73Iw5Ao/L5oER3PmUZ6D2qq02KB7pftZymir3aRe69zlbge+OZmBIdWc6ynJ
le8LyBLNCbI7IVZzjrBOWwjHe4xFQi50hSiDCMm+do2zv0LjD5alM7Zaiky1hjtM
XUJYPuqGOCCy5qANT65mmEZP7GQcY1Lg0SWin9WJWucaFzpYKaUp+3Eu4r5tibNe
caViQxEVNHXTGbOcTcMjj7MMGJT5PO/ePhL24wiYOJSoey0KLe6fQT4M1bSG4Ixj
wetkLGbj0m28ga/aoNb1c3RJXz6No7bBVuYi2THDd0CZ3MPlO7USBlLIstVS5xrf
gwIDAQABo4IBYzCCAV8wCQYDVR0TBAIwADAtBglghkgBhvhCAQ0EIBYeRWFzeS1S
U0EgR2VuZXJhdGVkIENlcnRpZmljYXRlMB0GA1UdDgQWBBTvP0wShx7S2RCfLNSB
qlYiC9YhvTCB4QYDVR0jBIHZMIHWgBQSzWAE0qCAnnDtxpm4eyzGUv0ZoaGBsqSB
rzCBrDELMAkGA1UEBhMCVVMxCzAJBgNVBAgTAk9IMREwDwYDVQQHEwhDb2x1bWJ1
czESMBAGA1UEChMJVmlraW5nVlBOMR0wGwYDVQQLExRNeU9yZ2FuaXphdGlvbmFs
VW5pdDEVMBMGA1UEAxMMVmlraW5nVlBOIENBMRAwDgYDVQQpEwdFYXN5UlNBMSEw
HwYJKoZIhvcNAQkBFhJtZUBteWhvc3QubXlkb21haW6CCQDPNYXugL8qPjATBgNV
HSUEDDAKBggrBgEFBQcDAjALBgNVHQ8EBAMCB4AwDQYJKoZIhvcNAQELBQADggIB
AHY2bqy88MLSBJJABUxt/I9TXopNzjyybT17zgWLHTeH5UsHiim8Eqk+Jx0fnyE0
QS0f6bVy0bAqF1goOSMi296xXTAv0FX/WRuQ4Bvyq7ujBh2W0kaLS8U1DVYK/DWG
aGJhYfgW90uOYBdHCbK5X8WOcg8I5P7W6wNycI+mj33wrQVlrAkyRpSpWmAJDL9n
cx1almrqhIOC4H1rupDWUAzMLa5BSAuewzeoNnZ0jpkuFgMQRsVcJDAEdgRQxKkx
aMfJ8G/7ZyxGG1NdslRSB5EK92XxM9kxePAAMMGTdd2e0JlZzRrLMFG0vUZAHXsk
vfrNytkWPguBVwLwVE28z2XUXC4tFStHopMgkPfoK/HniDcSAdEI/b6l5kS1f4MX
BtrZ9JeChUwkQOWl3mXjijyoBfP/iQQuzzr/k2B4oLzz7PBKIhtVVCCbLoXkf4AQ
NnNuqhwGlrQoSOhifzVLJPGBGGhH4XqkiOmsLcSwWZDIky126HVCa1COW1XbVTOQ
F1XSLGbL/lDGFJZzra5ARdPyyaZheDBiIXgndzotA3QIAMMrd5nDb1yd5I1tyOG0
n1ZHQRcgTwHCpHreFRtuMngAbILgKLCT0E/2P1489PgYy92Yua05lN+Qp02jq8xD
t20QgQiRHmFXHllX30ouJFGKUwVhj8fxBwO/a1NMjKgN
-----END CERTIFICATE-----
