Certificate:
    Data:
        Version: 3 (0x2)
        Serial Number: 12876 (0x324c)
    Signature Algorithm: sha256WithRSAEncryption
        Issuer: C=US, ST=OH, L=Columbus, O=VikingVPN, OU=MyOrganizationalUnit, CN=VikingVPN CA/name=EasyRSA/emailAddress=me@myhost.mydomain
        Validity
            Not Before: Apr  2 13:05:09 2018 GMT
            Not After : Mar 30 13:05:09 2028 GMT
        Subject: CN=Client3270Cert0ebef6
        Subject Public Key Info:
            Public Key Algorithm: rsaEncryption
                Public-Key: (4096 bit)
                Modulus:
                    00:ba:9c:4f:97:cd:c8:17:cc:5e:f1:90:f7:82:0a:
                    b8:73:75:42:21:6b:84:dc:3e:e1:46:90:78:53:a8:
                    cd:b2:e9:16:aa:88:ae:fc:1b:3c:0f:f9:3f:8b:cf:
                    55:2e:85:53:eb:a0:c2:42:f2:3d:ae:80:56:ab:fd:
                    ff:f2:31:80:9c:64:67:20:ce:97:9d:82:15:48:ba:
                    07:eb:60:2f:fc:84:e8:df:7d:67:79:ee:eb:50:db:
                    18:33:19:14:20:d7:e6:e7:87:9b:45:84:b4:5b:68:
                    95:dd:b1:ab:57:13:40:fd:55:93:0f:11:a4:9d:e7:
                    20:33:d1:2c:83:c0:93:82:66:a7:a0:58:fc:82:05:
                    d6:d2:50:87:cc:68:26:31:f6:75:36:30:9a:7a:5a:
                    62:5d:1c:4a:88:fa:00:69:21:58:53:97:16:8d:d7:
                    0d:6a:7f:1a:6e:68:a6:6d:41:80:c6:77:d7:ca:99:
                    66:a6:8c:0f:9c:4d:60:69:09:41:23:d3:03:57:05:
                    c7:00:05:13:46:62:0f:e6:11:79:f3:b8:2d:2e:71:
                    07:67:f6:36:6d:07:60:58:9d:45:ec:8e:3d:c8:d1:
                    ee:87:db:d8:a4:4c:53:3e:3b:ae:8d:6a:32:c2:db:
                    fc:f8:b0:bc:ef:46:5a:81:ad:08:6d:4e:86:7c:22:
                    00:b1:61:25:79:a8:24:1e:41:f5:56:8f:e5:b1:03:
                    ce:3e:6f:70:3f:3b:41:96:ea:47:6c:5b:13:a1:6a:
                    9d:10:bc:04:67:8c:c0:e3:f4:57:79:a7:dd:d0:0e:
                    0e:75:1f:8e:f9:75:85:98:e0:6c:04:6f:c9:97:08:
                    f0:a2:c5:4a:e0:51:ec:11:df:b4:29:31:cc:d9:d1:
                    e6:18:9c:b9:a8:b4:fb:0d:81:53:9a:5d:fe:33:3d:
                    14:23:17:d9:32:18:97:7a:a6:5d:bc:3e:09:ef:9a:
                    63:7b:e4:49:5f:0c:aa:b5:d6:70:45:81:88:e0:3a:
                    5e:f4:9c:df:62:2d:69:ca:f1:64:95:cd:e0:8e:f9:
                    59:1f:13:b6:4c:c7:7f:1e:88:41:db:d2:93:f6:73:
                    11:91:ed:6e:c2:2a:71:2c:3c:a2:57:0c:34:fc:95:
                    b3:f2:a9:64:5b:9c:09:42:c7:b7:3e:cb:90:a2:8f:
                    20:70:7d:0f:1a:f2:3d:69:bc:b4:ea:b7:3c:74:27:
                    42:20:7d:8b:5a:e2:01:a7:d9:9c:ee:c5:f6:62:3d:
                    6d:7d:74:0f:f6:ed:e6:f2:66:2c:18:40:8e:66:02:
                    a3:c3:65:dd:a4:77:19:89:cb:7d:29:bd:bc:84:04:
                    42:3c:ee:a1:ad:83:9a:92:ce:00:ad:87:ba:a0:aa:
                    e0:4a:89
                Exponent: 65537 (0x10001)
        X509v3 extensions:
            X509v3 Basic Constraints: 
                CA:FALSE
            Netscape Comment: 
                Easy-RSA Generated Certificate
            X509v3 Subject Key Identifier: 
                BC:0F:95:84:93:29:0F:3F:81:82:A9:91:6D:37:B4:36:49:E7:61:C7
            X509v3 Authority Key Identifier: 
                keyid:12:CD:60:04:D2:A0:80:9E:70:ED:C6:99:B8:7B:2C:C6:52:FD:19:A1
                DirName:/C=US/ST=OH/L=Columbus/O=VikingVPN/OU=MyOrganizationalUnit/CN=VikingVPN CA/name=EasyRSA/emailAddress=me@myhost.mydomain
                serial:CF:35:85:EE:80:BF:2A:3E

            X509v3 Extended Key Usage: 
                TLS Web Client Authentication
            X509v3 Key Usage: 
                Digital Signature
    Signature Algorithm: sha256WithRSAEncryption
         dd:79:71:07:5a:29:d4:47:d6:a5:f4:b3:58:77:fd:7d:8c:b2:
         3b:c4:0e:89:45:53:44:df:dd:ff:a2:6c:27:35:bf:5f:c8:fa:
         0c:b6:ec:9b:b1:0c:7f:df:75:8e:bf:dc:28:ae:f6:fe:95:44:
         77:af:0b:f1:15:4e:be:6b:ec:f7:16:ff:b7:40:19:eb:41:3a:
         0b:b0:c6:25:bc:ac:9c:8e:75:8f:ee:da:b1:f7:93:2f:16:c8:
         f6:88:24:7d:3f:ee:3d:17:93:f3:ae:05:f7:e3:74:ec:61:ba:
         76:6f:4f:e8:62:f5:c0:5b:76:67:7b:e8:09:aa:9e:ae:57:53:
         48:64:30:5f:e8:0b:39:47:ce:15:a3:71:d4:b9:c8:f2:7c:88:
         49:88:43:4f:f2:3d:8f:83:b0:6a:c9:a3:f2:d1:7b:3c:69:60:
         47:03:2f:9d:3e:40:c0:52:96:1b:36:1e:cd:e9:ff:53:47:2d:
         0e:63:b1:89:f4:5e:43:11:22:ac:7d:0e:2f:51:61:3d:f7:48:
         56:09:09:c8:07:96:b7:ad:7f:4a:ca:f9:d3:73:f1:75:cc:8c:
         9d:85:a7:42:29:82:d7:78:da:0a:7f:fd:48:d5:2f:9d:39:f1:
         da:cb:e3:be:22:ed:8f:e1:82:3c:ce:ba:72:83:18:ac:aa:7f:
         3f:7f:eb:03:2d:ba:a9:f9:b8:3f:44:c8:80:49:6e:b8:e9:0b:
         11:d4:14:e2:73:b7:f4:af:56:d7:5a:0b:0d:1d:7c:ac:df:f6:
         bf:05:66:7c:55:91:4b:01:0d:cf:af:ff:70:1e:74:bc:39:84:
         70:4f:8e:94:61:46:85:90:b8:1c:a5:4e:5a:c3:27:2b:cb:ac:
         ee:2e:c9:08:27:87:85:10:8f:37:8a:ff:f1:34:9d:41:bb:bb:
         8c:3b:4d:4e:44:21:87:11:2b:cf:0a:7c:26:79:05:26:82:84:
         f1:8b:4f:75:9a:d4:32:c9:f6:47:11:e8:10:ff:8e:2b:f7:ef:
         ac:41:26:51:bd:54:a1:04:f2:17:34:81:91:f6:08:a5:3d:61:
         e2:a6:60:36:70:01:2a:b8:92:d0:54:66:10:51:cd:ab:a1:ea:
         53:68:85:17:af:5c:d1:82:0a:97:ae:ea:69:43:84:68:59:b1:
         8e:ab:4c:04:64:b1:b4:8c:56:bd:c2:02:37:14:a1:f0:90:04:
         72:7c:4a:c1:a9:48:71:46:01:6c:90:3d:88:94:73:62:e9:82:
         12:2e:74:d8:bf:bc:57:72:8b:8b:48:9a:a2:47:98:31:05:bc:
         9d:f5:f6:7d:be:e3:8e:a4:88:aa:6c:0d:58:7a:a0:1d:d6:ea:
         7c:f4:a7:d3:f4:f4:67:fc
-----BEGIN CERTIFICATE-----
MIIGrTCCBJWgAwIBAgICMkwwDQYJKoZIhvcNAQELBQAwgawxCzAJBgNVBAYTAlVT
MQswCQYDVQQIEwJPSDERMA8GA1UEBxMIQ29sdW1idXMxEjAQBgNVBAoTCVZpa2lu
Z1ZQTjEdMBsGA1UECxMUTXlPcmdhbml6YXRpb25hbFVuaXQxFTATBgNVBAMTDFZp
a2luZ1ZQTiBDQTEQMA4GA1UEKRMHRWFzeVJTQTEhMB8GCSqGSIb3DQEJARYSbWVA
bXlob3N0Lm15ZG9tYWluMB4XDTE4MDQwMjEzMDUwOVoXDTI4MDMzMDEzMDUwOVow
HzEdMBsGA1UEAxMUQ2xpZW50MzI3MENlcnQwZWJlZjYwggIiMA0GCSqGSIb3DQEB
AQUAA4ICDwAwggIKAoICAQC6nE+XzcgXzF7xkPeCCrhzdUIha4TcPuFGkHhTqM2y
6RaqiK78GzwP+T+Lz1UuhVProMJC8j2ugFar/f/yMYCcZGcgzpedghVIugfrYC/8
hOjffWd57utQ2xgzGRQg1+bnh5tFhLRbaJXdsatXE0D9VZMPEaSd5yAz0SyDwJOC
ZqegWPyCBdbSUIfMaCYx9nU2MJp6WmJdHEqI+gBpIVhTlxaN1w1qfxpuaKZtQYDG
d9fKmWamjA+cTWBpCUEj0wNXBccABRNGYg/mEXnzuC0ucQdn9jZtB2BYnUXsjj3I
0e6H29ikTFM+O66NajLC2/z4sLzvRlqBrQhtToZ8IgCxYSV5qCQeQfVWj+WxA84+
b3A/O0GW6kdsWxOhap0QvARnjMDj9Fd5p93QDg51H475dYWY4GwEb8mXCPCixUrg
UewR37QpMczZ0eYYnLmotPsNgVOaXf4zPRQjF9kyGJd6pl28PgnvmmN75ElfDKq1
1nBFgYjgOl70nN9iLWnK8WSVzeCO+VkfE7ZMx38eiEHb0pP2cxGR7W7CKnEsPKJX
DDT8lbPyqWRbnAlCx7c+y5CijyBwfQ8a8j1pvLTqtzx0J0IgfYta4gGn2ZzuxfZi
PW19dA/27ebyZiwYQI5mAqPDZd2kdxmJy30pvbyEBEI87qGtg5qSzgCth7qgquBK
iQIDAQABo4IBYzCCAV8wCQYDVR0TBAIwADAtBglghkgBhvhCAQ0EIBYeRWFzeS1S
U0EgR2VuZXJhdGVkIENlcnRpZmljYXRlMB0GA1UdDgQWBBS8D5WEkykPP4GCqZFt
N7Q2SedhxzCB4QYDVR0jBIHZMIHWgBQSzWAE0qCAnnDtxpm4eyzGUv0ZoaGBsqSB
rzCBrDELMAkGA1UEBhMCVVMxCzAJBgNVBAgTAk9IMREwDwYDVQQHEwhDb2x1bWJ1
czESMBAGA1UEChMJVmlraW5nVlBOMR0wGwYDVQQLExRNeU9yZ2FuaXphdGlvbmFs
VW5pdDEVMBMGA1UEAxMMVmlraW5nVlBOIENBMRAwDgYDVQQpEwdFYXN5UlNBMSEw
HwYJKoZIhvcNAQkBFhJtZUBteWhvc3QubXlkb21haW6CCQDPNYXugL8qPjATBgNV
HSUEDDAKBggrBgEFBQcDAjALBgNVHQ8EBAMCB4AwDQYJKoZIhvcNAQELBQADggIB
AN15cQdaKdRH1qX0s1h3/X2MsjvEDolFU0Tf3f+ibCc1v1/I+gy27JuxDH/fdY6/
3Ciu9v6VRHevC/EVTr5r7PcW/7dAGetBOguwxiW8rJyOdY/u2rH3ky8WyPaIJH0/
7j0Xk/OuBffjdOxhunZvT+hi9cBbdmd76Amqnq5XU0hkMF/oCzlHzhWjcdS5yPJ8
iEmIQ0/yPY+DsGrJo/LRezxpYEcDL50+QMBSlhs2Hs3p/1NHLQ5jsYn0XkMRIqx9
Di9RYT33SFYJCcgHlretf0rK+dNz8XXMjJ2Fp0Ipgtd42gp//UjVL5058drL474i
7Y/hgjzOunKDGKyqfz9/6wMtuqn5uD9EyIBJbrjpCxHUFOJzt/SvVtdaCw0dfKzf
9r8FZnxVkUsBDc+v/3AedLw5hHBPjpRhRoWQuBylTlrDJyvLrO4uyQgnh4UQjzeK
//E0nUG7u4w7TU5EIYcRK88KfCZ5BSaChPGLT3Wa1DLJ9kcR6BD/jiv376xBJlG9
VKEE8hc0gZH2CKU9YeKmYDZwASq4ktBUZhBRzauh6lNohRevXNGCCpeu6mlDhGhZ
sY6rTARksbSMVr3CAjcUofCQBHJ8SsGpSHFGAWyQPYiUc2LpghIudNi/vFdyi4tI
mqJHmDEFvJ319n2+446kiKpsDVh6oB3W6nz0p9P09Gf8
-----END CERTIFICATE-----
