Certificate:
    Data:
        Version: 3 (0x2)
        Serial Number: 12884 (0x3254)
    Signature Algorithm: sha256WithRSAEncryption
        Issuer: C=US, ST=OH, L=Columbus, O=VikingVPN, OU=MyOrganizationalUnit, CN=VikingVPN CA/name=EasyRSA/emailAddress=me@myhost.mydomain
        Validity
            Not Before: Apr  3 03:58:58 2018 GMT
            Not After : Mar 31 03:58:58 2028 GMT
        Subject: CN=Client3271Certa158aa
        Subject Public Key Info:
            Public Key Algorithm: rsaEncryption
                Public-Key: (4096 bit)
                Modulus:
                    00:b7:79:ac:47:7c:74:87:26:a2:56:db:b4:8f:97:
                    fa:56:85:a0:f5:b1:26:2f:f9:c1:f6:e4:7f:60:1e:
                    b1:fc:79:d9:f8:3b:32:b9:fb:0f:42:3b:e7:78:22:
                    d7:30:7f:b9:53:c4:ce:08:ec:47:1e:bc:33:76:70:
                    9c:f6:3f:64:f8:98:86:bb:04:0e:4a:a0:e9:9a:12:
                    15:ec:ce:dc:51:1f:d9:61:da:83:61:53:fd:63:6f:
                    ef:29:69:e4:c9:ce:20:10:34:f1:34:b0:4b:e9:0f:
                    45:48:23:23:8f:3b:53:84:61:0f:3d:a3:9f:1f:7f:
                    b7:0b:dc:80:31:a9:6a:83:b8:7e:df:a6:0d:89:08:
                    9a:8e:83:61:c7:2d:47:a8:e9:e9:36:b1:a4:39:d5:
                    ae:60:de:7c:84:1d:79:6e:ce:29:8d:64:9d:ef:8d:
                    c6:94:84:a3:e9:e7:75:b3:a5:bf:c9:98:0b:09:eb:
                    e2:c9:e4:04:42:20:d8:ef:27:85:36:73:03:cf:cb:
                    9d:76:e7:b7:01:43:26:88:9f:8c:f6:a0:08:df:6c:
                    b5:d4:b7:8a:0f:e1:2c:74:91:f8:87:fc:cf:97:a0:
                    66:49:b7:ac:75:b2:9d:22:a6:c9:c6:f2:8d:78:26:
                    af:e8:9d:b6:95:10:d3:f6:8e:12:ad:f3:a7:28:00:
                    29:ff:a1:f9:32:43:84:3b:0f:29:0e:c2:7a:fc:3b:
                    1b:68:6e:37:af:7a:13:22:cd:39:8b:dc:a4:00:5c:
                    45:21:17:b3:b7:65:fd:16:2a:3b:00:c3:46:63:ef:
                    eb:04:48:22:23:33:55:6d:e5:ea:fa:7b:bd:a0:84:
                    b0:f8:8d:f4:c8:8d:6e:92:02:57:b2:ff:e4:84:b4:
                    59:ad:26:48:55:61:25:00:cb:60:9f:47:21:0d:65:
                    5e:6d:ce:81:c2:6d:a6:53:0a:87:51:18:21:07:e7:
                    04:67:17:2b:2c:b4:0c:91:95:79:d9:9c:60:f0:c4:
                    bf:fa:10:c7:b2:8b:d1:16:a5:2e:22:89:0f:3b:58:
                    5a:49:eb:c5:d0:0b:e0:39:91:42:75:5c:44:65:13:
                    11:89:83:75:ba:66:80:f8:04:21:4d:a0:67:4d:80:
                    db:d0:70:93:2d:72:f5:66:2e:3c:b3:20:2f:06:b9:
                    c3:6f:4b:a1:48:93:db:a5:81:67:f7:7a:cd:fc:89:
                    fd:9d:8c:92:35:1d:f6:2b:9a:88:b6:85:e7:e3:36:
                    2c:00:fb:f8:e5:e4:b0:ce:17:53:db:a9:8d:e3:a4:
                    2f:f0:a1:31:70:83:24:2c:5e:5b:a5:cf:36:b3:cd:
                    6b:57:8f:1e:4b:c5:c9:e0:41:b6:e1:f4:74:aa:8d:
                    fd:1c:d1
                Exponent: 65537 (0x10001)
        X509v3 extensions:
            X509v3 Basic Constraints: 
                CA:FALSE
            Netscape Comment: 
                Easy-RSA Generated Certificate
            X509v3 Subject Key Identifier: 
                D6:2D:C3:D1:9C:A5:57:34:DA:52:41:D3:94:BA:C2:95:6A:AD:C4:A3
            X509v3 Authority Key Identifier: 
                keyid:12:CD:60:04:D2:A0:80:9E:70:ED:C6:99:B8:7B:2C:C6:52:FD:19:A1
                DirName:/C=US/ST=OH/L=Columbus/O=VikingVPN/OU=MyOrganizationalUnit/CN=VikingVPN CA/name=EasyRSA/emailAddress=me@myhost.mydomain
                serial:CF:35:85:EE:80:BF:2A:3E

            X509v3 Extended Key Usage: 
                TLS Web Client Authentication
            X509v3 Key Usage: 
                Digital Signature
    Signature Algorithm: sha256WithRSAEncryption
         ab:80:03:2d:50:a7:45:f3:f5:28:f9:93:79:11:9b:42:2a:5c:
         8c:8b:a4:6a:e4:32:e7:00:28:e5:7f:55:73:65:90:d2:9e:ba:
         9f:4c:ab:f3:dc:55:6b:75:1d:35:8c:19:27:5b:30:a0:4d:11:
         da:4a:36:54:9b:15:a8:a1:bc:ae:e5:58:62:39:a1:15:0b:5b:
         92:73:bf:4f:4c:6c:78:af:44:86:78:85:02:69:89:7f:74:43:
         34:8b:a2:b3:a0:38:f9:8d:91:84:8c:dc:fb:d3:71:ef:3b:35:
         38:ab:34:0b:0d:58:e1:b4:f9:cc:ab:6d:64:e4:08:1a:ae:71:
         78:87:33:cd:66:0c:18:e8:12:c1:ee:35:a1:4c:74:63:5a:fd:
         8e:b9:ec:d0:64:3d:41:88:cb:7a:20:87:e4:88:88:85:bd:83:
         ad:e7:74:d5:aa:64:df:31:35:4e:f8:1c:7c:75:26:9e:2c:de:
         80:dc:a8:8d:c4:fc:83:84:da:56:65:4a:16:05:f9:b0:11:35:
         13:c7:f1:ba:c4:b4:99:1a:a6:84:88:d5:31:b7:09:38:11:e1:
         56:b7:c0:e8:76:72:ab:9f:c4:26:e9:f5:cf:2f:b5:1f:0f:46:
         88:72:4a:18:a0:eb:1e:6d:b7:4c:53:0a:59:27:c8:99:20:75:
         9e:bb:ce:78:dd:6b:82:77:5e:c2:25:b4:11:6b:f4:fa:dc:1f:
         db:f7:48:2a:d5:37:0b:62:f7:c4:6d:c0:6b:e2:1c:14:82:3b:
         5a:9f:90:ff:b5:5b:7b:c4:d8:87:88:5b:2f:92:b2:a3:1d:0e:
         5a:44:c1:a5:7d:69:b4:94:ff:e5:71:5b:c1:3e:c7:35:dc:12:
         d7:7c:e3:f4:f8:9b:47:23:2e:80:0f:95:48:7e:ee:51:47:c4:
         30:ad:c4:bf:65:7f:23:54:5d:19:f4:e9:18:1a:b8:83:e3:c9:
         0d:b2:78:13:07:fb:28:f3:a1:7d:4f:10:5c:29:fd:9a:50:bb:
         a7:b1:8c:e5:a7:ec:fe:d1:4e:8d:b4:02:c8:93:8c:9b:c2:66:
         ba:fc:94:b1:f7:38:89:ae:40:7d:ed:bf:e6:53:c4:09:44:a6:
         23:96:d2:0c:a8:7b:48:33:c3:ee:5c:ce:c7:28:8b:4e:c5:37:
         6f:be:2f:2c:0a:8e:a9:a7:59:c8:33:04:8a:b5:21:f2:e2:09:
         eb:85:6d:a1:20:ba:01:8a:d1:6c:ea:36:dd:72:04:36:fe:e2:
         a1:e6:e6:41:b2:2d:b5:ad:80:8f:c6:10:fb:68:99:ce:c2:33:
         50:cf:c2:e9:93:26:64:62:71:3f:66:90:01:37:d1:a2:f6:d5:
         b5:f2:38:d6:8a:12:68:ca
-----BEGIN CERTIFICATE-----
MIIGrTCCBJWgAwIBAgICMlQwDQYJKoZIhvcNAQELBQAwgawxCzAJBgNVBAYTAlVT
MQswCQYDVQQIEwJPSDERMA8GA1UEBxMIQ29sdW1idXMxEjAQBgNVBAoTCVZpa2lu
Z1ZQTjEdMBsGA1UECxMUTXlPcmdhbml6YXRpb25hbFVuaXQxFTATBgNVBAMTDFZp
a2luZ1ZQTiBDQTEQMA4GA1UEKRMHRWFzeVJTQTEhMB8GCSqGSIb3DQEJARYSbWVA
bXlob3N0Lm15ZG9tYWluMB4XDTE4MDQwMzAzNTg1OFoXDTI4MDMzMTAzNTg1OFow
HzEdMBsGA1UEAxMUQ2xpZW50MzI3MUNlcnRhMTU4YWEwggIiMA0GCSqGSIb3DQEB
AQUAA4ICDwAwggIKAoICAQC3eaxHfHSHJqJW27SPl/pWhaD1sSYv+cH25H9gHrH8
edn4OzK5+w9CO+d4Itcwf7lTxM4I7EcevDN2cJz2P2T4mIa7BA5KoOmaEhXsztxR
H9lh2oNhU/1jb+8paeTJziAQNPE0sEvpD0VIIyOPO1OEYQ89o58ff7cL3IAxqWqD
uH7fpg2JCJqOg2HHLUeo6ek2saQ51a5g3nyEHXluzimNZJ3vjcaUhKPp53Wzpb/J
mAsJ6+LJ5ARCINjvJ4U2cwPPy51257cBQyaIn4z2oAjfbLXUt4oP4Sx0kfiH/M+X
oGZJt6x1sp0ipsnG8o14Jq/onbaVENP2jhKt86coACn/ofkyQ4Q7DykOwnr8Oxto
bjevehMizTmL3KQAXEUhF7O3Zf0WKjsAw0Zj7+sESCIjM1Vt5er6e72ghLD4jfTI
jW6SAley/+SEtFmtJkhVYSUAy2CfRyENZV5tzoHCbaZTCodRGCEH5wRnFysstAyR
lXnZnGDwxL/6EMeyi9EWpS4iiQ87WFpJ68XQC+A5kUJ1XERlExGJg3W6ZoD4BCFN
oGdNgNvQcJMtcvVmLjyzIC8GucNvS6FIk9ulgWf3es38if2djJI1HfYrmoi2hefj
NiwA+/jl5LDOF1PbqY3jpC/woTFwgyQsXlulzzazzWtXjx5LxcngQbbh9HSqjf0c
0QIDAQABo4IBYzCCAV8wCQYDVR0TBAIwADAtBglghkgBhvhCAQ0EIBYeRWFzeS1S
U0EgR2VuZXJhdGVkIENlcnRpZmljYXRlMB0GA1UdDgQWBBTWLcPRnKVXNNpSQdOU
usKVaq3EozCB4QYDVR0jBIHZMIHWgBQSzWAE0qCAnnDtxpm4eyzGUv0ZoaGBsqSB
rzCBrDELMAkGA1UEBhMCVVMxCzAJBgNVBAgTAk9IMREwDwYDVQQHEwhDb2x1bWJ1
czESMBAGA1UEChMJVmlraW5nVlBOMR0wGwYDVQQLExRNeU9yZ2FuaXphdGlvbmFs
VW5pdDEVMBMGA1UEAxMMVmlraW5nVlBOIENBMRAwDgYDVQQpEwdFYXN5UlNBMSEw
HwYJKoZIhvcNAQkBFhJtZUBteWhvc3QubXlkb21haW6CCQDPNYXugL8qPjATBgNV
HSUEDDAKBggrBgEFBQcDAjALBgNVHQ8EBAMCB4AwDQYJKoZIhvcNAQELBQADggIB
AKuAAy1Qp0Xz9Sj5k3kRm0IqXIyLpGrkMucAKOV/VXNlkNKeup9Mq/PcVWt1HTWM
GSdbMKBNEdpKNlSbFaihvK7lWGI5oRULW5Jzv09MbHivRIZ4hQJpiX90QzSLorOg
OPmNkYSM3PvTce87NTirNAsNWOG0+cyrbWTkCBqucXiHM81mDBjoEsHuNaFMdGNa
/Y657NBkPUGIy3ogh+SIiIW9g63ndNWqZN8xNU74HHx1Jp4s3oDcqI3E/IOE2lZl
ShYF+bARNRPH8brEtJkapoSI1TG3CTgR4Va3wOh2cqufxCbp9c8vtR8PRohyShig
6x5tt0xTClknyJkgdZ67znjda4J3XsIltBFr9PrcH9v3SCrVNwti98RtwGviHBSC
O1qfkP+1W3vE2IeIWy+SsqMdDlpEwaV9abSU/+VxW8E+xzXcEtd84/T4m0cjLoAP
lUh+7lFHxDCtxL9lfyNUXRn06RgauIPjyQ2yeBMH+yjzoX1PEFwp/ZpQu6exjOWn
7P7RTo20AsiTjJvCZrr8lLH3OImuQH3tv+ZTxAlEpiOW0gyoe0gzw+5czscoi07F
N2++LywKjqmnWcgzBIq1IfLiCeuFbaEgugGK0WzqNt1yBDb+4qHm5kGyLbWtgI/G
EPtomc7CM1DPwumTJmRicT9mkAE30aL21bXyONaKEmjK
-----END CERTIFICATE-----
