Certificate:
    Data:
        Version: 3 (0x2)
        Serial Number: 12891 (0x325b)
    Signature Algorithm: sha256WithRSAEncryption
        Issuer: C=US, ST=OH, L=Columbus, O=VikingVPN, OU=MyOrganizationalUnit, CN=VikingVPN CA/name=EasyRSA/emailAddress=me@myhost.mydomain
        Validity
            Not Before: Apr  3 09:53:02 2018 GMT
            Not After : Mar 31 09:53:02 2028 GMT
        Subject: CN=Client2988Cert2219b1
        Subject Public Key Info:
            Public Key Algorithm: rsaEncryption
                Public-Key: (4096 bit)
                Modulus:
                    00:e9:c7:7f:9a:e7:ed:b4:fc:39:4e:74:83:2c:8d:
                    4d:a2:3d:e1:c4:30:fb:5b:56:18:79:85:e0:b8:cf:
                    a4:11:a7:ef:5a:a8:da:41:c4:26:c5:a3:7b:7d:46:
                    29:5f:c6:15:a9:63:52:34:7f:fe:f4:c3:06:f3:89:
                    0a:ec:cc:3d:90:e6:54:dd:c4:e6:5f:60:7d:3c:10:
                    84:1e:27:da:19:ec:dc:99:4f:ed:c3:18:fd:6e:19:
                    e2:df:6a:41:e7:72:b2:02:c0:c8:86:1d:04:70:fc:
                    5b:79:e1:63:ea:ed:e0:17:08:12:8a:03:b3:92:95:
                    85:69:46:61:e4:b8:eb:95:5d:41:10:7f:2c:76:2b:
                    dd:ad:bc:33:47:4a:8c:de:c8:48:39:5b:10:70:9a:
                    3f:6c:ac:fd:d1:01:7e:26:21:1c:5a:4a:f7:67:29:
                    28:df:58:5b:01:81:7c:3f:59:7a:82:21:94:f0:b9:
                    f8:83:75:81:70:0d:b2:bb:06:63:3b:4f:37:da:a0:
                    40:c4:2d:06:84:3f:80:47:80:29:27:fb:38:db:39:
                    bd:63:24:60:fa:bc:a7:3a:41:08:70:0a:6e:d7:63:
                    06:5d:23:fc:c9:e5:97:fe:65:27:40:34:2d:dc:b6:
                    58:ae:a3:75:4c:fb:32:00:e0:71:5a:97:26:28:b0:
                    21:75:d7:77:8b:7a:c2:a6:33:d0:79:8e:b9:c3:e2:
                    c3:a7:b1:be:30:22:70:67:88:b2:e4:ce:bf:4a:ca:
                    2e:bc:a3:30:11:04:6b:69:f2:68:b9:6b:69:40:fe:
                    37:8d:85:07:ea:e9:e5:64:d7:3b:c4:7b:6d:bc:99:
                    d6:68:9b:72:81:c8:26:2e:8d:d3:99:95:8a:48:9b:
                    a2:9d:e5:0d:d9:10:e0:78:2b:0a:27:38:17:a4:15:
                    20:4c:3c:59:c9:84:7a:55:ad:fc:73:67:2c:3a:d7:
                    0d:d7:79:a8:77:22:d1:d4:bc:28:67:21:61:a3:74:
                    7f:10:3b:7d:d5:19:ea:23:a6:5c:66:7f:ef:ed:1b:
                    58:e5:ec:8a:52:4b:2e:2f:13:8c:23:1e:68:81:7a:
                    74:b4:d5:33:bd:a1:92:32:12:ed:66:32:55:f3:b7:
                    d7:5a:34:2b:d0:1c:17:df:a0:f8:68:d9:e3:56:7f:
                    eb:71:23:a3:50:b1:8a:69:ad:54:d0:b4:ed:63:52:
                    55:3c:fc:df:5f:a1:3a:22:ac:29:cf:49:bb:27:cd:
                    bb:0e:f4:68:dd:e9:54:9b:4a:33:19:58:b7:dd:ac:
                    7a:c4:7d:fc:e4:8e:1f:5c:45:01:2b:d0:e6:13:c3:
                    e9:f4:15:59:36:ab:89:6f:96:28:08:56:c6:7a:35:
                    f2:02:1d
                Exponent: 65537 (0x10001)
        X509v3 extensions:
            X509v3 Basic Constraints: 
                CA:FALSE
            Netscape Comment: 
                Easy-RSA Generated Certificate
            X509v3 Subject Key Identifier: 
                8A:7F:BD:E8:3B:EF:DB:5E:B9:61:56:F0:18:72:EB:6B:4D:BC:4E:2E
            X509v3 Authority Key Identifier: 
                keyid:12:CD:60:04:D2:A0:80:9E:70:ED:C6:99:B8:7B:2C:C6:52:FD:19:A1
                DirName:/C=US/ST=OH/L=Columbus/O=VikingVPN/OU=MyOrganizationalUnit/CN=VikingVPN CA/name=EasyRSA/emailAddress=me@myhost.mydomain
                serial:CF:35:85:EE:80:BF:2A:3E

            X509v3 Extended Key Usage: 
                TLS Web Client Authentication
            X509v3 Key Usage: 
                Digital Signature
    Signature Algorithm: sha256WithRSAEncryption
         74:93:95:9f:dc:11:f6:ed:fa:14:0f:8e:5b:f6:dc:32:d1:4b:
         c3:d0:ba:3f:79:9e:1c:21:f3:a1:3a:e9:37:07:c0:73:ba:ed:
         f1:66:0f:4d:61:fb:52:c2:dd:2d:eb:fe:08:b4:7d:ce:38:d9:
         41:aa:f2:7c:84:c8:69:a0:a0:e8:89:5a:7f:44:4c:70:6a:52:
         9a:3e:5d:d9:17:de:07:f1:a3:c2:fa:0a:7d:ed:4e:71:e7:81:
         2c:48:09:f8:1a:56:84:17:50:43:e1:1f:e7:50:10:2c:0e:2e:
         64:94:1b:2c:f1:47:ee:e7:91:c6:a5:9d:65:7f:65:47:a8:03:
         24:92:a6:d0:f5:fc:99:6d:cd:48:ee:f0:ae:05:05:2a:9e:81:
         c3:73:ab:c6:18:13:d4:7c:aa:28:92:52:95:7f:dc:2a:34:ed:
         70:1e:64:09:7c:f3:af:68:32:a0:a6:e1:5b:77:32:9c:79:7e:
         4c:eb:9a:2f:b5:60:7e:01:5a:b4:a3:02:e1:e5:9f:38:84:b2:
         57:f0:e8:66:56:43:7b:8c:5d:e1:75:55:eb:5d:0e:86:7b:73:
         c1:a0:97:dc:f4:f5:a9:8d:ae:a1:f1:93:ec:1d:8f:d9:fc:93:
         99:4f:21:22:d7:f9:c6:6a:86:dc:a7:ae:f2:0f:46:a8:ac:48:
         a5:31:3a:3b:1a:1e:25:f8:9e:80:73:91:33:bf:38:58:9d:6f:
         54:a5:62:8d:71:c5:a2:73:12:82:52:fa:eb:31:a6:9e:a5:61:
         20:99:0e:c5:cd:04:32:27:c0:af:f0:50:dd:5c:50:0e:35:4f:
         e0:62:dc:9d:d3:df:ec:69:48:a5:aa:48:32:25:af:8d:eb:0f:
         0a:51:ee:0e:71:47:b7:ed:86:0c:49:68:30:88:8b:5e:25:0c:
         a7:ea:2e:2f:69:bf:13:71:de:39:43:1c:1a:c3:2d:e3:a2:e8:
         71:48:82:23:44:3a:31:5d:30:a3:2d:d3:2c:ca:7b:58:53:b5:
         ae:bf:54:db:bf:be:66:22:e1:48:b9:c8:d9:f5:29:aa:77:d5:
         c9:3a:aa:ea:4b:9e:07:55:a2:ed:36:5c:78:12:4d:72:e5:02:
         dc:7c:c8:1c:08:2d:2e:b0:b6:4d:be:a3:07:71:e1:98:57:ee:
         33:04:41:4a:2b:7e:00:c6:ec:b7:6f:48:e5:1f:16:d1:2a:8a:
         1c:77:18:e1:f3:8b:46:5e:37:72:9e:03:5b:87:f9:ac:cd:cc:
         f6:4e:21:7c:8d:00:f7:ae:71:55:1b:2d:42:93:6b:1b:f6:94:
         b7:e2:76:32:e9:1f:64:4d:d8:02:a1:d9:df:35:77:39:54:8d:
         04:48:7e:88:15:72:3b:01
-----BEGIN CERTIFICATE-----
MIIGrTCCBJWgAwIBAgICMlswDQYJKoZIhvcNAQELBQAwgawxCzAJBgNVBAYTAlVT
MQswCQYDVQQIEwJPSDERMA8GA1UEBxMIQ29sdW1idXMxEjAQBgNVBAoTCVZpa2lu
Z1ZQTjEdMBsGA1UECxMUTXlPcmdhbml6YXRpb25hbFVuaXQxFTATBgNVBAMTDFZp
a2luZ1ZQTiBDQTEQMA4GA1UEKRMHRWFzeVJTQTEhMB8GCSqGSIb3DQEJARYSbWVA
bXlob3N0Lm15ZG9tYWluMB4XDTE4MDQwMzA5NTMwMloXDTI4MDMzMTA5NTMwMlow
HzEdMBsGA1UEAxMUQ2xpZW50Mjk4OENlcnQyMjE5YjEwggIiMA0GCSqGSIb3DQEB
AQUAA4ICDwAwggIKAoICAQDpx3+a5+20/DlOdIMsjU2iPeHEMPtbVhh5heC4z6QR
p+9aqNpBxCbFo3t9RilfxhWpY1I0f/70wwbziQrszD2Q5lTdxOZfYH08EIQeJ9oZ
7NyZT+3DGP1uGeLfakHncrICwMiGHQRw/Ft54WPq7eAXCBKKA7OSlYVpRmHkuOuV
XUEQfyx2K92tvDNHSozeyEg5WxBwmj9srP3RAX4mIRxaSvdnKSjfWFsBgXw/WXqC
IZTwufiDdYFwDbK7BmM7TzfaoEDELQaEP4BHgCkn+zjbOb1jJGD6vKc6QQhwCm7X
YwZdI/zJ5Zf+ZSdANC3ctliuo3VM+zIA4HFalyYosCF113eLesKmM9B5jrnD4sOn
sb4wInBniLLkzr9Kyi68ozARBGtp8mi5a2lA/jeNhQfq6eVk1zvEe228mdZom3KB
yCYujdOZlYpIm6Kd5Q3ZEOB4KwonOBekFSBMPFnJhHpVrfxzZyw61w3Xeah3ItHU
vChnIWGjdH8QO33VGeojplxmf+/tG1jl7IpSSy4vE4wjHmiBenS01TO9oZIyEu1m
MlXzt9daNCvQHBffoPho2eNWf+txI6NQsYpprVTQtO1jUlU8/N9foToirCnPSbsn
zbsO9Gjd6VSbSjMZWLfdrHrEffzkjh9cRQEr0OYTw+n0FVk2q4lvligIVsZ6NfIC
HQIDAQABo4IBYzCCAV8wCQYDVR0TBAIwADAtBglghkgBhvhCAQ0EIBYeRWFzeS1S
U0EgR2VuZXJhdGVkIENlcnRpZmljYXRlMB0GA1UdDgQWBBSKf73oO+/bXrlhVvAY
cutrTbxOLjCB4QYDVR0jBIHZMIHWgBQSzWAE0qCAnnDtxpm4eyzGUv0ZoaGBsqSB
rzCBrDELMAkGA1UEBhMCVVMxCzAJBgNVBAgTAk9IMREwDwYDVQQHEwhDb2x1bWJ1
czESMBAGA1UEChMJVmlraW5nVlBOMR0wGwYDVQQLExRNeU9yZ2FuaXphdGlvbmFs
VW5pdDEVMBMGA1UEAxMMVmlraW5nVlBOIENBMRAwDgYDVQQpEwdFYXN5UlNBMSEw
HwYJKoZIhvcNAQkBFhJtZUBteWhvc3QubXlkb21haW6CCQDPNYXugL8qPjATBgNV
HSUEDDAKBggrBgEFBQcDAjALBgNVHQ8EBAMCB4AwDQYJKoZIhvcNAQELBQADggIB
AHSTlZ/cEfbt+hQPjlv23DLRS8PQuj95nhwh86E66TcHwHO67fFmD01h+1LC3S3r
/gi0fc442UGq8nyEyGmgoOiJWn9ETHBqUpo+XdkX3gfxo8L6Cn3tTnHngSxICfga
VoQXUEPhH+dQECwOLmSUGyzxR+7nkcalnWV/ZUeoAySSptD1/JltzUju8K4FBSqe
gcNzq8YYE9R8qiiSUpV/3Co07XAeZAl8869oMqCm4Vt3Mpx5fkzrmi+1YH4BWrSj
AuHlnziEslfw6GZWQ3uMXeF1VetdDoZ7c8Ggl9z09amNrqHxk+wdj9n8k5lPISLX
+cZqhtynrvIPRqisSKUxOjsaHiX4noBzkTO/OFidb1SlYo1xxaJzEoJS+usxpp6l
YSCZDsXNBDInwK/wUN1cUA41T+Bi3J3T3+xpSKWqSDIlr43rDwpR7g5xR7fthgxJ
aDCIi14lDKfqLi9pvxNx3jlDHBrDLeOi6HFIgiNEOjFdMKMt0yzKe1hTta6/VNu/
vmYi4Ui5yNn1Kap31ck6qupLngdVou02XHgSTXLlAtx8yBwILS6wtk2+owdx4ZhX
7jMEQUorfgDG7LdvSOUfFtEqihx3GOHzi0ZeN3KeA1uH+azNzPZOIXyNAPeucVUb
LUKTaxv2lLfidjLpH2RN2AKh2d81dzlUjQRIfogVcjsB
-----END CERTIFICATE-----
