Certificate:
    Data:
        Version: 3 (0x2)
        Serial Number: 12901 (0x3265)
    Signature Algorithm: sha256WithRSAEncryption
        Issuer: C=US, ST=OH, L=Columbus, O=VikingVPN, OU=MyOrganizationalUnit, CN=VikingVPN CA/name=EasyRSA/emailAddress=me@myhost.mydomain
        Validity
            Not Before: Apr  3 18:41:18 2018 GMT
            Not After : Mar 31 18:41:18 2028 GMT
        Subject: CN=Client1702Cert9cd07c
        Subject Public Key Info:
            Public Key Algorithm: rsaEncryption
                Public-Key: (4096 bit)
                Modulus:
                    00:e6:17:42:f0:e5:6e:ee:c1:b8:26:95:09:f5:a2:
                    44:23:b1:5e:56:6f:cf:7e:6b:41:05:23:0d:78:8d:
                    0d:18:d3:15:1b:60:b2:46:79:26:cf:41:f2:92:bc:
                    26:38:e4:de:5c:31:51:08:0f:95:e2:82:98:2d:df:
                    76:e9:9e:ea:06:8b:2a:bd:4c:89:10:54:70:4b:6b:
                    96:ac:f8:40:a6:50:51:42:56:b5:4d:4b:6e:f7:72:
                    4f:0e:5e:04:c3:85:5c:ac:8d:37:66:fc:ba:ea:f9:
                    c6:5b:13:07:62:3c:c7:65:68:82:4c:71:d5:dd:08:
                    60:29:67:4f:e3:00:b4:68:b3:40:1f:61:a8:a9:89:
                    dc:47:59:82:0c:0e:13:13:6c:ab:d8:84:ce:a8:af:
                    7e:35:36:07:27:47:e0:cd:14:0d:b3:e9:6b:8e:bc:
                    00:4a:13:26:c4:68:c2:46:e8:30:9c:e7:0b:c3:73:
                    fc:8e:d9:f8:3e:54:87:f4:d5:b4:f6:43:ab:21:9a:
                    52:1f:78:92:11:a6:30:5b:b8:22:cc:e9:ba:97:78:
                    5e:5f:98:a2:57:b9:2b:77:a8:d6:0a:1a:ff:81:17:
                    9e:07:b4:1d:21:70:e8:ca:27:ce:2d:3b:f5:b7:39:
                    aa:54:98:db:dc:95:d9:95:07:fe:1c:c4:3d:8b:75:
                    ec:b1:a8:99:8c:2e:14:85:fb:ae:a2:a6:d8:73:f5:
                    a5:af:77:4e:5a:2b:b5:e7:0a:1a:af:28:47:55:d6:
                    d4:13:28:2a:7d:93:7a:df:c5:66:7d:d3:06:c6:80:
                    59:b7:17:2f:46:e2:fc:cf:2d:de:c9:37:dd:e1:f6:
                    a2:90:55:42:c6:e7:fc:4a:a3:15:5c:9f:e5:4a:ec:
                    4e:55:43:05:62:f4:03:c8:94:08:5c:cc:cb:b1:4c:
                    9c:9d:9b:da:1c:e2:22:f9:20:78:75:68:e5:37:0b:
                    17:80:92:ee:c3:b4:7d:81:5d:5d:57:d1:19:30:0e:
                    12:13:00:6f:e2:50:1e:e2:bb:0f:51:81:de:ee:da:
                    ef:e7:41:40:a8:1f:cc:96:f5:0c:df:d5:55:d0:9c:
                    1a:19:18:d6:c7:eb:5a:9f:01:36:4c:6c:6f:5a:f3:
                    e1:1e:a5:4e:be:d3:90:0e:6a:74:78:9b:65:f8:99:
                    3d:84:61:0e:fa:68:9a:76:ae:56:ac:93:6a:bb:a3:
                    36:cd:48:06:d3:33:3f:26:4a:da:69:d2:ca:d2:d8:
                    65:8b:c2:3b:fd:09:a2:76:a6:e2:fa:d9:f4:65:5d:
                    66:24:5f:f8:a1:e3:bc:3b:48:75:5b:d9:b5:b6:ef:
                    60:b7:75:e9:99:58:82:79:ca:29:46:5c:0b:73:12:
                    ba:34:df
                Exponent: 65537 (0x10001)
        X509v3 extensions:
            X509v3 Basic Constraints: 
                CA:FALSE
            Netscape Comment: 
                Easy-RSA Generated Certificate
            X509v3 Subject Key Identifier: 
                A8:AE:23:D5:8C:B9:F4:19:A8:82:38:A3:B9:CF:1F:79:46:77:7F:F1
            X509v3 Authority Key Identifier: 
                keyid:12:CD:60:04:D2:A0:80:9E:70:ED:C6:99:B8:7B:2C:C6:52:FD:19:A1
                DirName:/C=US/ST=OH/L=Columbus/O=VikingVPN/OU=MyOrganizationalUnit/CN=VikingVPN CA/name=EasyRSA/emailAddress=me@myhost.mydomain
                serial:CF:35:85:EE:80:BF:2A:3E

            X509v3 Extended Key Usage: 
                TLS Web Client Authentication
            X509v3 Key Usage: 
                Digital Signature
    Signature Algorithm: sha256WithRSAEncryption
         7a:8a:c4:c3:eb:0f:26:12:84:96:66:2b:51:86:c8:e9:b2:23:
         ab:d9:ad:df:e2:65:58:0c:38:89:2a:2d:07:9a:a6:db:4f:65:
         83:f6:24:00:aa:8a:28:d5:5e:a6:2e:54:c4:a3:34:d0:d3:fc:
         7c:a7:dd:54:de:e8:a1:62:f9:65:aa:41:af:57:cc:69:fd:7e:
         de:1f:ae:4e:b7:ef:89:bf:6b:df:88:d5:2d:c2:a6:79:4d:15:
         fa:38:5d:e8:e6:c8:94:a7:35:6a:3f:72:5f:26:9b:77:83:76:
         a5:98:34:11:1c:ad:79:49:a7:d9:4f:b1:93:35:d0:dd:c9:03:
         1d:6b:d9:59:57:9d:5d:2d:82:01:73:27:3f:58:cf:a6:a2:27:
         bf:1b:92:d0:5b:0d:db:79:69:41:67:73:30:8b:5d:b5:a4:68:
         95:b3:1e:71:30:3b:a2:34:18:05:f6:3a:70:d1:e8:6f:ac:1c:
         58:e9:da:87:1c:e9:71:1f:ac:d9:dc:19:b0:0b:aa:f6:11:64:
         a4:c3:2b:00:f2:9d:c1:37:73:1c:33:34:9b:be:ef:db:44:d8:
         a6:db:f9:ef:1b:79:a1:9a:93:3e:3e:a5:a2:44:ff:83:ff:31:
         2f:46:f4:b2:99:e8:06:be:97:8b:0c:25:a1:d3:f9:96:41:ea:
         3b:a3:aa:49:85:d5:91:07:b5:51:d5:42:c9:43:9e:64:3e:0d:
         cb:8e:1d:79:26:41:2d:d1:a5:7d:69:0a:32:bd:75:08:e6:d6:
         f8:ef:8b:03:ff:1e:bf:b8:99:08:43:cf:73:bc:2b:d0:21:83:
         7d:ea:d0:ff:69:48:bf:67:07:1b:c8:4e:b0:91:08:9f:8d:d3:
         24:32:d6:35:9d:15:99:e6:01:26:f1:a5:90:79:be:ce:a3:6b:
         3c:be:88:54:92:aa:ac:66:2c:27:7c:6e:87:b9:8a:ce:c2:5f:
         55:3c:af:8d:e7:2c:cd:4f:e0:1a:58:cb:ac:ca:31:8f:8a:d2:
         c6:f7:64:55:98:fb:6c:74:51:9e:51:f7:a0:e5:e9:69:c0:e9:
         de:d0:04:bc:9d:e4:3d:53:ce:14:ca:5e:e4:2d:67:c1:af:77:
         a6:74:de:2a:21:17:4d:2a:8f:aa:56:df:bf:94:0a:58:ea:ea:
         ce:b6:a6:70:f4:04:e1:3f:1d:ad:58:8b:22:46:89:3d:a6:1b:
         24:73:af:67:62:3b:4c:a8:26:5c:37:4e:95:57:ac:9c:1c:54:
         ee:7a:4a:aa:6f:82:e4:d6:27:b7:6c:f3:e3:eb:97:47:90:90:
         4a:c2:8c:36:76:aa:37:45:77:74:09:11:37:17:2e:ca:b3:d3:
         be:db:5b:58:b8:93:a1:93
-----BEGIN CERTIFICATE-----
MIIGrTCCBJWgAwIBAgICMmUwDQYJKoZIhvcNAQELBQAwgawxCzAJBgNVBAYTAlVT
MQswCQYDVQQIEwJPSDERMA8GA1UEBxMIQ29sdW1idXMxEjAQBgNVBAoTCVZpa2lu
Z1ZQTjEdMBsGA1UECxMUTXlPcmdhbml6YXRpb25hbFVuaXQxFTATBgNVBAMTDFZp
a2luZ1ZQTiBDQTEQMA4GA1UEKRMHRWFzeVJTQTEhMB8GCSqGSIb3DQEJARYSbWVA
bXlob3N0Lm15ZG9tYWluMB4XDTE4MDQwMzE4NDExOFoXDTI4MDMzMTE4NDExOFow
HzEdMBsGA1UEAxMUQ2xpZW50MTcwMkNlcnQ5Y2QwN2MwggIiMA0GCSqGSIb3DQEB
AQUAA4ICDwAwggIKAoICAQDmF0Lw5W7uwbgmlQn1okQjsV5Wb89+a0EFIw14jQ0Y
0xUbYLJGeSbPQfKSvCY45N5cMVEID5Xigpgt33bpnuoGiyq9TIkQVHBLa5as+ECm
UFFCVrVNS273ck8OXgTDhVysjTdm/Lrq+cZbEwdiPMdlaIJMcdXdCGApZ0/jALRo
s0AfYaipidxHWYIMDhMTbKvYhM6or341NgcnR+DNFA2z6WuOvABKEybEaMJG6DCc
5wvDc/yO2fg+VIf01bT2Q6shmlIfeJIRpjBbuCLM6bqXeF5fmKJXuSt3qNYKGv+B
F54HtB0hcOjKJ84tO/W3OapUmNvcldmVB/4cxD2LdeyxqJmMLhSF+66ipthz9aWv
d05aK7XnChqvKEdV1tQTKCp9k3rfxWZ90wbGgFm3Fy9G4vzPLd7JN93h9qKQVULG
5/xKoxVcn+VK7E5VQwVi9APIlAhczMuxTJydm9oc4iL5IHh1aOU3CxeAku7DtH2B
XV1X0RkwDhITAG/iUB7iuw9Rgd7u2u/nQUCoH8yW9Qzf1VXQnBoZGNbH61qfATZM
bG9a8+EepU6+05AOanR4m2X4mT2EYQ76aJp2rlask2q7ozbNSAbTMz8mStpp0srS
2GWLwjv9CaJ2puL62fRlXWYkX/ih47w7SHVb2bW272C3demZWIJ5yilGXAtzEro0
3wIDAQABo4IBYzCCAV8wCQYDVR0TBAIwADAtBglghkgBhvhCAQ0EIBYeRWFzeS1S
U0EgR2VuZXJhdGVkIENlcnRpZmljYXRlMB0GA1UdDgQWBBSoriPVjLn0GaiCOKO5
zx95Rnd/8TCB4QYDVR0jBIHZMIHWgBQSzWAE0qCAnnDtxpm4eyzGUv0ZoaGBsqSB
rzCBrDELMAkGA1UEBhMCVVMxCzAJBgNVBAgTAk9IMREwDwYDVQQHEwhDb2x1bWJ1
czESMBAGA1UEChMJVmlraW5nVlBOMR0wGwYDVQQLExRNeU9yZ2FuaXphdGlvbmFs
VW5pdDEVMBMGA1UEAxMMVmlraW5nVlBOIENBMRAwDgYDVQQpEwdFYXN5UlNBMSEw
HwYJKoZIhvcNAQkBFhJtZUBteWhvc3QubXlkb21haW6CCQDPNYXugL8qPjATBgNV
HSUEDDAKBggrBgEFBQcDAjALBgNVHQ8EBAMCB4AwDQYJKoZIhvcNAQELBQADggIB
AHqKxMPrDyYShJZmK1GGyOmyI6vZrd/iZVgMOIkqLQeapttPZYP2JACqiijVXqYu
VMSjNNDT/Hyn3VTe6KFi+WWqQa9XzGn9ft4frk6374m/a9+I1S3CpnlNFfo4Xejm
yJSnNWo/cl8mm3eDdqWYNBEcrXlJp9lPsZM10N3JAx1r2VlXnV0tggFzJz9Yz6ai
J78bktBbDdt5aUFnczCLXbWkaJWzHnEwO6I0GAX2OnDR6G+sHFjp2occ6XEfrNnc
GbALqvYRZKTDKwDyncE3cxwzNJu+79tE2Kbb+e8beaGakz4+paJE/4P/MS9G9LKZ
6Aa+l4sMJaHT+ZZB6jujqkmF1ZEHtVHVQslDnmQ+DcuOHXkmQS3RpX1pCjK9dQjm
1vjviwP/Hr+4mQhDz3O8K9Ahg33q0P9pSL9nBxvITrCRCJ+N0yQy1jWdFZnmASbx
pZB5vs6jazy+iFSSqqxmLCd8boe5is7CX1U8r43nLM1P4BpYy6zKMY+K0sb3ZFWY
+2x0UZ5R96Dl6WnA6d7QBLyd5D1TzhTKXuQtZ8Gvd6Z03iohF00qj6pW37+UCljq
6s62pnD0BOE/Ha1YiyJGiT2mGyRzr2diO0yoJlw3TpVXrJwcVO56SqpvguTWJ7ds
8+Prl0eQkErCjDZ2qjdFd3QJETcXLsqz077bW1i4k6GT
-----END CERTIFICATE-----
