Certificate:
    Data:
        Version: 3 (0x2)
        Serial Number: 12915 (0x3273)
    Signature Algorithm: sha256WithRSAEncryption
        Issuer: C=US, ST=OH, L=Columbus, O=VikingVPN, OU=MyOrganizationalUnit, CN=VikingVPN CA/name=EasyRSA/emailAddress=me@myhost.mydomain
        Validity
            Not Before: Apr  5 03:44:16 2018 GMT
            Not After : Apr  2 03:44:16 2028 GMT
        Subject: CN=Client2988Cert8139a9
        Subject Public Key Info:
            Public Key Algorithm: rsaEncryption
                Public-Key: (4096 bit)
                Modulus:
                    00:d6:77:a5:a8:66:62:c5:18:a8:8a:f1:2f:b0:74:
                    d4:38:d0:4b:ba:4a:9d:98:a6:5a:5a:3a:77:12:0a:
                    16:90:96:10:4b:f4:08:95:c3:86:d0:3c:6a:ae:7c:
                    29:cd:c9:c6:77:48:7c:99:c7:5e:2a:bb:2f:2c:12:
                    c7:99:3b:66:b8:40:62:c6:d0:04:10:95:f8:bd:3c:
                    54:be:34:04:96:fb:29:42:69:b6:d3:5f:f9:4d:e0:
                    06:bb:47:3c:de:bc:f7:90:7f:6b:c6:e9:8f:3f:20:
                    4d:96:7b:40:f4:66:0b:4f:cc:ec:de:c1:67:1a:e9:
                    88:9f:68:88:20:8a:02:a0:87:39:c3:40:b2:b1:e8:
                    a0:59:9b:53:dd:0c:f4:77:28:03:69:c6:c2:f0:b3:
                    d3:0e:14:87:49:91:eb:91:c6:39:ec:f0:8f:59:c8:
                    f3:b5:b0:02:80:f1:20:b2:3f:76:7f:ca:e5:2b:e1:
                    d7:81:ce:9b:82:2c:41:a4:20:16:1a:91:59:b0:3e:
                    94:7c:f1:61:7a:b2:90:fb:1f:5f:4b:ff:b9:77:97:
                    b8:58:ee:f0:9f:a6:d9:b4:22:8b:20:fe:a7:c1:10:
                    26:56:c8:74:92:69:18:56:66:cb:46:6e:55:14:fe:
                    aa:91:ec:44:30:ec:bd:2f:c5:98:f2:30:aa:31:e3:
                    b3:53:99:aa:3c:bc:05:05:c7:cd:20:d8:a2:3c:d6:
                    b3:c7:c3:bd:cb:4f:6d:50:e7:bf:95:c0:3f:f4:ae:
                    a7:18:31:c2:12:e5:c1:49:51:c7:e9:34:a9:d7:9d:
                    a5:52:01:1e:23:97:d1:1c:5a:61:3c:92:5a:d0:95:
                    c2:9a:46:36:24:54:d9:2b:17:5a:31:e4:21:b9:38:
                    db:8e:34:4c:50:9e:ac:e0:07:e6:26:35:22:63:34:
                    74:cb:b5:e0:ab:7c:f5:e7:60:d9:14:89:ff:8a:39:
                    b1:04:d4:b7:6c:01:d4:c0:f2:85:4e:e9:26:2e:76:
                    d0:c1:5e:6f:5c:0a:a8:97:91:94:a6:fe:58:12:4d:
                    68:eb:15:55:52:7a:7e:33:39:16:2d:5d:ce:dd:83:
                    b6:88:0d:85:b4:10:af:8d:a5:17:de:31:a6:a4:e0:
                    39:7f:62:58:a5:cb:7e:c1:4d:6e:27:d9:fd:ca:ad:
                    f3:f4:90:47:f4:cd:6d:25:4b:0e:fc:be:15:40:b4:
                    cd:cd:d7:53:f0:c5:c0:b8:65:1e:6b:63:65:55:74:
                    dd:ee:ee:d3:1a:04:89:8d:90:9e:e8:ae:bd:1f:f2:
                    42:a6:bb:b3:f3:7d:8d:20:63:a8:ab:92:60:3c:e7:
                    4e:a6:a9:14:a4:e5:c3:86:8b:25:a6:c5:95:e4:fe:
                    45:73:af
                Exponent: 65537 (0x10001)
        X509v3 extensions:
            X509v3 Basic Constraints: 
                CA:FALSE
            Netscape Comment: 
                Easy-RSA Generated Certificate
            X509v3 Subject Key Identifier: 
                52:9D:D8:5B:FC:0D:59:73:8F:E6:4B:11:62:0B:67:B5:C2:9A:B8:3A
            X509v3 Authority Key Identifier: 
                keyid:12:CD:60:04:D2:A0:80:9E:70:ED:C6:99:B8:7B:2C:C6:52:FD:19:A1
                DirName:/C=US/ST=OH/L=Columbus/O=VikingVPN/OU=MyOrganizationalUnit/CN=VikingVPN CA/name=EasyRSA/emailAddress=me@myhost.mydomain
                serial:CF:35:85:EE:80:BF:2A:3E

            X509v3 Extended Key Usage: 
                TLS Web Client Authentication
            X509v3 Key Usage: 
                Digital Signature
    Signature Algorithm: sha256WithRSAEncryption
         1e:26:ec:d0:99:de:62:b0:c4:4c:2b:fb:41:9e:85:4e:dc:e8:
         a5:f7:a4:93:e6:13:21:90:94:bd:8a:b6:ab:38:1a:c1:2c:17:
         69:7d:32:af:6a:1e:0c:da:0b:cb:99:0b:5c:ea:02:25:06:5e:
         6e:03:0e:bb:ef:d0:09:20:a0:50:6f:7d:0d:f3:e6:07:9a:61:
         27:4d:d6:0d:90:2c:68:a2:f9:af:ba:98:26:37:22:a3:83:9d:
         fc:9e:f1:85:32:57:08:5d:01:c1:2f:40:88:36:ba:3a:23:44:
         91:ce:ba:c6:d3:7e:d2:37:78:aa:75:68:8e:b3:d3:4a:9f:73:
         a0:2c:e9:dd:b3:94:3a:ad:82:e7:0b:9d:9f:b9:9e:b4:2f:b2:
         40:96:65:89:7d:76:78:71:66:cd:41:7e:1a:78:8c:87:5a:b6:
         8f:54:3e:4d:88:7a:77:b8:c9:ee:c8:e8:23:b4:ef:a0:5d:88:
         bd:15:dc:34:50:40:7f:41:42:c2:1e:fe:6b:ad:51:a3:3e:26:
         c8:89:f5:78:b2:df:a3:e8:df:31:97:36:4a:d0:cf:65:4b:13:
         0a:f5:a2:e6:29:d1:32:57:7f:67:eb:9d:3c:6a:ad:31:80:02:
         b9:55:28:42:7f:09:4b:2f:5d:82:f7:44:1a:9b:6c:ea:75:b3:
         81:bb:21:91:55:7a:0f:84:26:b8:4e:d0:46:26:db:e4:72:e3:
         42:b4:ec:ab:54:ce:07:cc:ec:e1:92:89:49:ff:1c:c1:ae:7e:
         70:b4:b3:26:57:7a:bb:23:ac:90:29:20:1e:38:20:4e:c3:33:
         83:7a:ad:e1:4b:3e:76:f9:6f:8f:5e:be:7a:b8:8f:4f:ff:92:
         8b:0f:c0:22:6e:6c:92:52:f1:de:42:88:3c:7a:7d:0f:00:da:
         60:76:70:85:63:0c:53:e3:61:fb:1f:2c:7d:87:d4:49:6d:3d:
         49:4b:7a:da:77:a7:aa:95:22:db:f8:52:36:db:5a:ad:d3:a0:
         c4:f7:ec:03:13:6c:70:2b:c9:74:9a:1d:87:87:22:4f:a6:9c:
         b2:74:d9:a5:1e:b0:bd:d8:18:fd:31:ed:e5:85:88:de:7d:cb:
         2d:70:3e:52:eb:20:64:e6:b9:75:2a:3f:31:1a:1a:db:e9:9d:
         de:6f:db:0e:cf:6e:69:1c:45:2e:fe:66:96:ab:3a:0c:43:75:
         aa:6f:d2:72:45:f3:fc:5d:7f:b4:90:48:0c:95:6a:07:fa:3d:
         4a:e8:dc:9a:24:99:e2:46:93:f0:88:3c:7c:2b:15:00:ef:96:
         3b:d4:6f:5f:64:32:cd:2c:dc:bb:d6:90:8f:02:44:64:27:88:
         35:64:cb:6d:03:8f:84:39
-----BEGIN CERTIFICATE-----
MIIGrTCCBJWgAwIBAgICMnMwDQYJKoZIhvcNAQELBQAwgawxCzAJBgNVBAYTAlVT
MQswCQYDVQQIEwJPSDERMA8GA1UEBxMIQ29sdW1idXMxEjAQBgNVBAoTCVZpa2lu
Z1ZQTjEdMBsGA1UECxMUTXlPcmdhbml6YXRpb25hbFVuaXQxFTATBgNVBAMTDFZp
a2luZ1ZQTiBDQTEQMA4GA1UEKRMHRWFzeVJTQTEhMB8GCSqGSIb3DQEJARYSbWVA
bXlob3N0Lm15ZG9tYWluMB4XDTE4MDQwNTAzNDQxNloXDTI4MDQwMjAzNDQxNlow
HzEdMBsGA1UEAxMUQ2xpZW50Mjk4OENlcnQ4MTM5YTkwggIiMA0GCSqGSIb3DQEB
AQUAA4ICDwAwggIKAoICAQDWd6WoZmLFGKiK8S+wdNQ40Eu6Sp2YplpaOncSChaQ
lhBL9AiVw4bQPGqufCnNycZ3SHyZx14quy8sEseZO2a4QGLG0AQQlfi9PFS+NASW
+ylCabbTX/lN4Aa7RzzevPeQf2vG6Y8/IE2We0D0ZgtPzOzewWca6YifaIggigKg
hznDQLKx6KBZm1PdDPR3KANpxsLws9MOFIdJkeuRxjns8I9ZyPO1sAKA8SCyP3Z/
yuUr4deBzpuCLEGkIBYakVmwPpR88WF6spD7H19L/7l3l7hY7vCfptm0Iosg/qfB
ECZWyHSSaRhWZstGblUU/qqR7EQw7L0vxZjyMKox47NTmao8vAUFx80g2KI81rPH
w73LT21Q57+VwD/0rqcYMcIS5cFJUcfpNKnXnaVSAR4jl9EcWmE8klrQlcKaRjYk
VNkrF1ox5CG5ONuONExQnqzgB+YmNSJjNHTLteCrfPXnYNkUif+KObEE1LdsAdTA
8oVO6SYudtDBXm9cCqiXkZSm/lgSTWjrFVVSen4zORYtXc7dg7aIDYW0EK+NpRfe
Maak4Dl/Ylily37BTW4n2f3KrfP0kEf0zW0lSw78vhVAtM3N11PwxcC4ZR5rY2VV
dN3u7tMaBImNkJ7orr0f8kKmu7PzfY0gY6irkmA8506mqRSk5cOGiyWmxZXk/kVz
rwIDAQABo4IBYzCCAV8wCQYDVR0TBAIwADAtBglghkgBhvhCAQ0EIBYeRWFzeS1S
U0EgR2VuZXJhdGVkIENlcnRpZmljYXRlMB0GA1UdDgQWBBRSndhb/A1Zc4/mSxFi
C2e1wpq4OjCB4QYDVR0jBIHZMIHWgBQSzWAE0qCAnnDtxpm4eyzGUv0ZoaGBsqSB
rzCBrDELMAkGA1UEBhMCVVMxCzAJBgNVBAgTAk9IMREwDwYDVQQHEwhDb2x1bWJ1
czESMBAGA1UEChMJVmlraW5nVlBOMR0wGwYDVQQLExRNeU9yZ2FuaXphdGlvbmFs
VW5pdDEVMBMGA1UEAxMMVmlraW5nVlBOIENBMRAwDgYDVQQpEwdFYXN5UlNBMSEw
HwYJKoZIhvcNAQkBFhJtZUBteWhvc3QubXlkb21haW6CCQDPNYXugL8qPjATBgNV
HSUEDDAKBggrBgEFBQcDAjALBgNVHQ8EBAMCB4AwDQYJKoZIhvcNAQELBQADggIB
AB4m7NCZ3mKwxEwr+0GehU7c6KX3pJPmEyGQlL2Ktqs4GsEsF2l9Mq9qHgzaC8uZ
C1zqAiUGXm4DDrvv0AkgoFBvfQ3z5geaYSdN1g2QLGii+a+6mCY3IqODnfye8YUy
VwhdAcEvQIg2ujojRJHOusbTftI3eKp1aI6z00qfc6As6d2zlDqtgucLnZ+5nrQv
skCWZYl9dnhxZs1Bfhp4jIdato9UPk2Iene4ye7I6CO076BdiL0V3DRQQH9BQsIe
/mutUaM+JsiJ9Xiy36Po3zGXNkrQz2VLEwr1ouYp0TJXf2frnTxqrTGAArlVKEJ/
CUsvXYL3RBqbbOp1s4G7IZFVeg+EJrhO0EYm2+Ry40K07KtUzgfM7OGSiUn/HMGu
fnC0syZXersjrJApIB44IE7DM4N6reFLPnb5b49evnq4j0//kosPwCJubJJS8d5C
iDx6fQ8A2mB2cIVjDFPjYfsfLH2H1EltPUlLetp3p6qVItv4UjbbWq3ToMT37AMT
bHAryXSaHYeHIk+mnLJ02aUesL3YGP0x7eWFiN59yy1wPlLrIGTmuXUqPzEaGtvp
nd5v2w7PbmkcRS7+ZparOgxDdapv0nJF8/xdf7SQSAyVagf6PUro3JokmeJGk/CI
PHwrFQDvljvUb19kMs0s3LvWkI8CRGQniDVky20Dj4Q5
-----END CERTIFICATE-----
