Certificate:
    Data:
        Version: 3 (0x2)
        Serial Number: 12930 (0x3282)
    Signature Algorithm: sha256WithRSAEncryption
        Issuer: C=US, ST=OH, L=Columbus, O=VikingVPN, OU=MyOrganizationalUnit, CN=VikingVPN CA/name=EasyRSA/emailAddress=me@myhost.mydomain
        Validity
            Not Before: Apr  7 06:16:25 2018 GMT
            Not After : Apr  4 06:16:25 2028 GMT
        Subject: CN=Client2381Certc1dd2b
        Subject Public Key Info:
            Public Key Algorithm: rsaEncryption
                Public-Key: (4096 bit)
                Modulus:
                    00:ea:91:42:ba:62:cf:ed:b2:8a:f7:89:45:1e:60:
                    31:c4:dc:e7:31:58:80:d9:96:00:a9:c8:7c:97:41:
                    b4:e4:97:cb:78:77:f5:96:7c:53:f3:b6:05:fc:2d:
                    37:6a:03:5e:fd:37:cc:fa:90:5c:4c:7d:a4:34:da:
                    58:95:83:12:da:d9:a4:12:c4:35:16:6a:c6:cc:73:
                    3c:00:d0:c4:18:0f:d9:a8:d4:cc:36:c4:59:a9:41:
                    36:46:71:75:25:f9:ba:88:97:72:eb:54:58:80:a7:
                    54:e7:60:fd:83:46:0a:cc:a1:e5:d0:ea:c4:7f:f9:
                    5b:ac:49:8f:6f:33:0f:fd:3e:e1:87:78:b7:ef:c6:
                    5d:8f:39:1f:3c:85:01:40:f3:7b:c4:1a:4c:b2:c4:
                    06:59:35:36:26:5b:b8:b5:b8:05:7c:e6:57:b2:84:
                    98:e7:7c:71:32:ac:ea:8b:9e:9e:84:b2:40:ef:4b:
                    1e:19:4d:e4:1a:c4:41:ac:df:61:c6:4d:6b:8f:bd:
                    7b:48:71:2c:8a:f4:6c:7b:f8:db:0f:eb:7a:19:7a:
                    f2:08:74:35:10:72:09:bf:50:19:9c:0c:66:9d:3a:
                    8d:a1:fc:bf:c0:6f:b6:ee:b0:81:e4:76:b2:55:0f:
                    b1:c5:1a:7f:37:a4:2b:84:e0:fa:33:29:6b:5d:08:
                    90:65:86:93:5b:bf:b6:da:d6:9c:4e:56:6d:14:0b:
                    01:01:0e:ae:97:b7:b0:ca:55:d8:a1:78:50:b9:a4:
                    13:e1:1e:1a:c2:ba:b5:a1:60:ab:6c:a1:e6:2c:a9:
                    a5:db:fb:54:fc:90:5b:f0:8b:ea:48:b3:38:47:79:
                    ce:9e:6c:b5:7c:cd:8b:de:6d:e5:8e:0b:ca:23:8d:
                    1e:81:9f:65:9f:c0:93:d9:52:0b:7d:d8:d4:23:2a:
                    77:e2:f4:27:c3:94:f6:de:90:11:67:a3:7e:a9:ac:
                    48:5d:0f:2a:d8:af:1a:ee:a3:a2:d9:fe:68:07:5a:
                    88:9a:ef:c0:13:5b:40:a5:9f:22:75:9e:89:6a:4a:
                    17:77:86:5c:9e:23:f1:c4:8f:0d:d7:1e:33:7e:e3:
                    9e:05:2d:3a:e2:93:ed:69:0d:b9:1a:22:01:6f:97:
                    fb:b4:14:63:39:cc:e1:4a:5e:36:0c:ce:29:92:56:
                    aa:c7:39:83:19:4b:3b:42:61:7a:4e:e0:ae:7c:bd:
                    a8:5f:91:67:2f:bc:bb:4b:6a:8b:84:a7:44:7e:95:
                    34:e0:3f:4d:fe:a6:8a:03:62:38:8f:bb:95:73:a6:
                    91:e6:00:9e:50:bf:53:cc:c0:73:3b:39:33:ad:42:
                    b4:ff:3f:82:57:d9:a0:9d:a9:2f:0a:0e:b0:63:fe:
                    32:1e:d9
                Exponent: 65537 (0x10001)
        X509v3 extensions:
            X509v3 Basic Constraints: 
                CA:FALSE
            Netscape Comment: 
                Easy-RSA Generated Certificate
            X509v3 Subject Key Identifier: 
                03:CB:41:20:17:09:9A:AA:0E:2B:0F:32:D6:C2:17:94:75:BB:21:3B
            X509v3 Authority Key Identifier: 
                keyid:12:CD:60:04:D2:A0:80:9E:70:ED:C6:99:B8:7B:2C:C6:52:FD:19:A1
                DirName:/C=US/ST=OH/L=Columbus/O=VikingVPN/OU=MyOrganizationalUnit/CN=VikingVPN CA/name=EasyRSA/emailAddress=me@myhost.mydomain
                serial:CF:35:85:EE:80:BF:2A:3E

            X509v3 Extended Key Usage: 
                TLS Web Client Authentication
            X509v3 Key Usage: 
                Digital Signature
    Signature Algorithm: sha256WithRSAEncryption
         63:75:6e:18:b7:90:f7:62:74:05:f9:b9:e6:46:fe:bf:5e:f3:
         40:b1:88:83:e0:69:03:69:4f:14:ca:91:27:54:5f:b8:05:fa:
         df:b4:fb:55:48:c7:12:f8:2e:6a:b4:32:a4:5a:4f:d7:bb:9c:
         fe:b3:f3:ed:f6:f3:b7:30:fb:c9:0e:1f:ac:9e:52:dd:8d:a3:
         d2:33:46:2e:1a:09:05:f6:24:64:93:49:73:08:c9:a9:d8:5d:
         54:5c:ef:f9:06:bf:8d:c2:50:6b:dc:58:ef:3f:7c:67:f2:02:
         85:42:cd:73:b6:d4:4f:8c:13:47:f0:9d:ac:2b:16:cc:0b:6c:
         7d:1e:4e:94:91:d0:f2:e7:d7:00:f2:e6:e8:ef:a4:55:d8:01:
         6b:48:e6:6b:60:c4:1c:23:92:62:ff:93:95:63:81:82:70:3b:
         f9:32:24:f7:b4:76:24:f9:69:17:69:b8:02:a8:01:ec:df:f9:
         81:3e:7e:c5:4e:4f:fc:1c:97:7a:bd:36:73:33:2f:88:fa:d6:
         99:9b:89:e3:7c:9a:1c:90:4f:c2:57:cf:d8:c1:7e:28:0b:c8:
         e6:09:57:10:59:27:77:0b:cc:55:d4:a5:98:e8:4a:d3:54:f7:
         0d:2e:01:53:a3:36:37:79:8d:55:ca:2d:7f:3d:5b:8f:89:fc:
         8e:f2:94:e5:ff:17:c0:89:9f:bc:16:9b:e6:47:5d:d5:77:24:
         35:35:2a:ff:ec:98:72:7c:4b:ef:eb:c5:a7:cc:c9:1b:97:1f:
         27:28:23:7c:a1:2b:85:4f:2f:3e:60:68:6b:c1:a0:2d:15:c8:
         39:89:4e:91:4c:54:c1:59:e2:01:1f:89:25:49:d8:47:b2:db:
         d8:7b:d1:ce:d1:50:10:d6:fd:e5:f8:58:7c:39:fe:cf:48:91:
         08:6f:a4:82:66:9d:81:1f:4b:9a:24:77:54:7e:f0:87:0b:56:
         3c:1b:dd:62:72:23:53:81:15:75:84:f4:fe:0b:b6:79:f7:7a:
         c2:cc:39:c8:a0:20:7b:b6:75:0b:19:a2:0b:ed:ce:01:a3:2d:
         28:c2:02:13:c7:af:44:a3:33:59:cd:ea:e3:7f:07:53:c6:44:
         ba:c3:6b:46:6c:5e:0e:6f:96:a9:b1:d8:40:f8:b4:1c:49:ff:
         ab:b1:7e:40:dd:03:35:f0:33:39:08:4f:0f:57:a3:5e:db:0f:
         4b:c2:eb:6b:08:8d:8b:82:73:40:37:1e:e0:bc:c4:30:d5:09:
         6c:f8:c2:00:e2:db:1a:b1:42:93:24:48:9c:aa:a0:89:31:c6:
         47:51:d0:dd:5e:26:e9:98:b6:04:af:f6:e7:cf:56:7e:3b:2a:
         9b:1b:03:fb:da:9b:71:16
-----BEGIN CERTIFICATE-----
MIIGrTCCBJWgAwIBAgICMoIwDQYJKoZIhvcNAQELBQAwgawxCzAJBgNVBAYTAlVT
MQswCQYDVQQIEwJPSDERMA8GA1UEBxMIQ29sdW1idXMxEjAQBgNVBAoTCVZpa2lu
Z1ZQTjEdMBsGA1UECxMUTXlPcmdhbml6YXRpb25hbFVuaXQxFTATBgNVBAMTDFZp
a2luZ1ZQTiBDQTEQMA4GA1UEKRMHRWFzeVJTQTEhMB8GCSqGSIb3DQEJARYSbWVA
bXlob3N0Lm15ZG9tYWluMB4XDTE4MDQwNzA2MTYyNVoXDTI4MDQwNDA2MTYyNVow
HzEdMBsGA1UEAxMUQ2xpZW50MjM4MUNlcnRjMWRkMmIwggIiMA0GCSqGSIb3DQEB
AQUAA4ICDwAwggIKAoICAQDqkUK6Ys/tsor3iUUeYDHE3OcxWIDZlgCpyHyXQbTk
l8t4d/WWfFPztgX8LTdqA179N8z6kFxMfaQ02liVgxLa2aQSxDUWasbMczwA0MQY
D9mo1Mw2xFmpQTZGcXUl+bqIl3LrVFiAp1TnYP2DRgrMoeXQ6sR/+VusSY9vMw/9
PuGHeLfvxl2POR88hQFA83vEGkyyxAZZNTYmW7i1uAV85leyhJjnfHEyrOqLnp6E
skDvSx4ZTeQaxEGs32HGTWuPvXtIcSyK9Gx7+NsP63oZevIIdDUQcgm/UBmcDGad
Oo2h/L/Ab7busIHkdrJVD7HFGn83pCuE4PozKWtdCJBlhpNbv7ba1pxOVm0UCwEB
Dq6Xt7DKVdiheFC5pBPhHhrCurWhYKtsoeYsqaXb+1T8kFvwi+pIszhHec6ebLV8
zYvebeWOC8ojjR6Bn2WfwJPZUgt92NQjKnfi9CfDlPbekBFno36prEhdDyrYrxru
o6LZ/mgHWoia78ATW0ClnyJ1nolqShd3hlyeI/HEjw3XHjN+454FLTrik+1pDbka
IgFvl/u0FGM5zOFKXjYMzimSVqrHOYMZSztCYXpO4K58vahfkWcvvLtLaouEp0R+
lTTgP03+pooDYjiPu5VzppHmAJ5Qv1PMwHM7OTOtQrT/P4JX2aCdqS8KDrBj/jIe
2QIDAQABo4IBYzCCAV8wCQYDVR0TBAIwADAtBglghkgBhvhCAQ0EIBYeRWFzeS1S
U0EgR2VuZXJhdGVkIENlcnRpZmljYXRlMB0GA1UdDgQWBBQDy0EgFwmaqg4rDzLW
wheUdbshOzCB4QYDVR0jBIHZMIHWgBQSzWAE0qCAnnDtxpm4eyzGUv0ZoaGBsqSB
rzCBrDELMAkGA1UEBhMCVVMxCzAJBgNVBAgTAk9IMREwDwYDVQQHEwhDb2x1bWJ1
czESMBAGA1UEChMJVmlraW5nVlBOMR0wGwYDVQQLExRNeU9yZ2FuaXphdGlvbmFs
VW5pdDEVMBMGA1UEAxMMVmlraW5nVlBOIENBMRAwDgYDVQQpEwdFYXN5UlNBMSEw
HwYJKoZIhvcNAQkBFhJtZUBteWhvc3QubXlkb21haW6CCQDPNYXugL8qPjATBgNV
HSUEDDAKBggrBgEFBQcDAjALBgNVHQ8EBAMCB4AwDQYJKoZIhvcNAQELBQADggIB
AGN1bhi3kPdidAX5ueZG/r9e80CxiIPgaQNpTxTKkSdUX7gF+t+0+1VIxxL4Lmq0
MqRaT9e7nP6z8+3287cw+8kOH6yeUt2No9IzRi4aCQX2JGSTSXMIyanYXVRc7/kG
v43CUGvcWO8/fGfyAoVCzXO21E+ME0fwnawrFswLbH0eTpSR0PLn1wDy5ujvpFXY
AWtI5mtgxBwjkmL/k5VjgYJwO/kyJPe0diT5aRdpuAKoAezf+YE+fsVOT/wcl3q9
NnMzL4j61pmbieN8mhyQT8JXz9jBfigLyOYJVxBZJ3cLzFXUpZjoStNU9w0uAVOj
Njd5jVXKLX89W4+J/I7ylOX/F8CJn7wWm+ZHXdV3JDU1Kv/smHJ8S+/rxafMyRuX
HycoI3yhK4VPLz5gaGvBoC0VyDmJTpFMVMFZ4gEfiSVJ2Eey29h70c7RUBDW/eX4
WHw5/s9IkQhvpIJmnYEfS5okd1R+8IcLVjwb3WJyI1OBFXWE9P4Ltnn3esLMOcig
IHu2dQsZogvtzgGjLSjCAhPHr0SjM1nN6uN/B1PGRLrDa0ZsXg5vlqmx2ED4tBxJ
/6uxfkDdAzXwMzkITw9Xo17bD0vC62sIjYuCc0A3HuC8xDDVCWz4wgDi2xqxQpMk
SJyqoIkxxkdR0N1eJumYtgSv9ufPVn47KpsbA/vam3EW
-----END CERTIFICATE-----
