Certificate:
    Data:
        Version: 3 (0x2)
        Serial Number: 12936 (0x3288)
    Signature Algorithm: sha256WithRSAEncryption
        Issuer: C=US, ST=OH, L=Columbus, O=VikingVPN, OU=MyOrganizationalUnit, CN=VikingVPN CA/name=EasyRSA/emailAddress=me@myhost.mydomain
        Validity
            Not Before: Apr  7 18:17:54 2018 GMT
            Not After : Apr  4 18:17:54 2028 GMT
        Subject: CN=Client1346Cert40084f
        Subject Public Key Info:
            Public Key Algorithm: rsaEncryption
                Public-Key: (4096 bit)
                Modulus:
                    00:c8:f4:4f:25:3b:8d:1f:ab:1c:90:1e:df:c0:31:
                    63:8f:15:c0:fa:8a:e3:61:d4:b2:3e:2b:ff:2f:55:
                    d6:e3:b7:a2:ba:a2:91:2d:32:ea:e0:2e:a9:09:20:
                    2b:a5:cd:b9:a8:8f:62:a8:7b:d8:9e:88:ea:0a:71:
                    c0:95:07:c7:e4:d5:a6:a9:3d:f1:df:1c:0a:47:91:
                    0d:73:00:57:2b:c0:81:69:ad:f5:06:3c:c9:3d:2f:
                    af:d9:1a:69:d6:f2:dc:d4:38:a4:2b:18:8b:e1:61:
                    5b:e6:f7:f1:c6:71:44:d8:ee:e8:ae:5b:4a:c6:57:
                    49:2d:3d:41:5d:27:07:03:57:d9:15:86:b7:3d:1a:
                    a5:de:ba:b7:1c:bc:1a:2b:e7:d4:38:6c:32:d1:6a:
                    18:c5:2e:de:b1:e7:1c:bc:04:fb:61:d3:85:92:90:
                    cb:81:27:5f:c2:48:fa:78:86:e1:0b:46:05:fb:91:
                    f0:54:17:56:a0:fb:ff:f6:59:17:74:29:05:76:54:
                    70:95:9f:35:73:22:0d:26:e0:6c:9e:c3:8f:79:24:
                    3c:c8:95:11:6e:87:1b:e6:ad:ad:05:89:2b:cd:a4:
                    60:a0:b2:f1:3d:11:ac:89:78:9e:49:1f:ff:58:33:
                    8b:95:ba:80:66:8d:9e:3d:3e:0e:6e:49:99:47:9d:
                    ab:e5:d8:bd:c8:29:1f:fe:fc:78:26:d9:e4:da:97:
                    27:9a:4d:4f:c8:e8:8d:b6:d6:42:d8:91:46:7a:4a:
                    4d:f2:ad:88:70:51:ca:0a:71:ab:8e:01:10:f6:cd:
                    97:27:01:f2:db:0d:04:7f:4d:68:13:89:87:3b:c2:
                    35:1a:b6:33:94:e6:cd:58:e8:69:5a:fc:e7:31:2c:
                    15:a8:4b:da:e1:b4:17:05:c1:0b:8f:51:1e:ae:da:
                    39:88:56:ee:71:d0:09:e9:2e:e2:72:f6:8b:f0:09:
                    59:49:df:f1:8e:b6:d1:7e:9c:d5:7a:47:32:fd:4e:
                    e3:a9:8e:da:db:9c:8c:c8:65:fe:e9:83:5f:d1:f2:
                    21:12:ae:9e:bc:88:3d:09:cc:5d:f3:a2:11:02:b1:
                    ef:e0:3e:ee:1f:ed:74:05:1f:dd:39:0e:60:25:b1:
                    64:72:63:b9:11:56:a6:3a:8d:f5:0d:cc:b5:6b:50:
                    5d:3a:59:9c:05:a2:2a:8f:82:ce:6e:87:a3:6e:d7:
                    6d:15:c0:1d:76:76:eb:50:5f:81:0d:79:e8:f5:4c:
                    27:b6:4f:d8:19:91:b2:ca:a8:4b:77:67:ef:5f:12:
                    30:57:98:c2:72:13:e8:62:8b:92:54:79:8a:fe:f6:
                    40:8f:e8:3f:e6:39:97:c3:c1:6d:53:49:30:be:00:
                    44:75:73
                Exponent: 65537 (0x10001)
        X509v3 extensions:
            X509v3 Basic Constraints: 
                CA:FALSE
            Netscape Comment: 
                Easy-RSA Generated Certificate
            X509v3 Subject Key Identifier: 
                28:6B:4E:7F:84:8F:EB:D3:DD:0F:D9:2A:8F:F0:4C:A4:05:6D:53:DA
            X509v3 Authority Key Identifier: 
                keyid:12:CD:60:04:D2:A0:80:9E:70:ED:C6:99:B8:7B:2C:C6:52:FD:19:A1
                DirName:/C=US/ST=OH/L=Columbus/O=VikingVPN/OU=MyOrganizationalUnit/CN=VikingVPN CA/name=EasyRSA/emailAddress=me@myhost.mydomain
                serial:CF:35:85:EE:80:BF:2A:3E

            X509v3 Extended Key Usage: 
                TLS Web Client Authentication
            X509v3 Key Usage: 
                Digital Signature
    Signature Algorithm: sha256WithRSAEncryption
         33:7a:41:2c:7d:e2:2b:03:39:46:5e:cf:8d:dd:65:ac:05:6f:
         e9:7e:d7:d9:8e:26:41:77:32:ce:2b:48:5d:d4:2a:50:83:0d:
         bb:10:dd:24:8e:1c:b5:3b:e2:ec:49:6b:29:85:5b:d4:3f:bb:
         d0:5f:32:9a:38:87:d7:1c:ab:1e:27:0c:ea:3c:6b:8b:7c:0b:
         11:2a:96:82:bf:74:15:d7:22:44:85:89:e8:9b:9e:bb:78:a1:
         be:a5:01:24:bd:e1:31:0d:39:cd:80:14:47:44:4d:b5:50:65:
         93:33:f2:48:73:1d:73:ae:0e:94:fa:3f:9b:c8:5a:f9:95:8e:
         03:a4:4a:44:59:e7:5e:9f:16:07:a0:b9:58:46:5c:a5:00:99:
         ca:a8:1d:37:92:52:74:5b:57:39:9c:e2:3c:bb:6a:cb:3e:eb:
         67:44:34:d7:34:51:1a:cd:d5:c6:42:7d:0d:bb:ad:a0:4a:19:
         50:99:8b:7e:27:29:0b:d5:f9:37:76:38:55:ca:be:77:d1:49:
         e5:ff:c4:19:40:36:fd:73:39:da:69:78:a5:85:b3:6e:69:6d:
         8d:11:43:74:c1:c1:02:77:92:e5:8a:dc:b3:37:07:62:50:74:
         8f:10:d9:29:78:1f:12:7b:0c:4e:63:6b:b4:9c:af:c4:23:48:
         9a:8e:3a:12:d9:f0:a0:3d:d7:27:52:ad:9c:82:49:5f:51:86:
         0c:c3:58:df:68:e4:1e:3a:fc:63:db:5d:43:ed:76:b2:3c:e6:
         86:d6:6a:41:19:f0:17:81:e4:9a:f4:7f:38:2d:03:51:eb:81:
         b0:59:e4:0e:a2:a3:47:0a:80:aa:0e:d4:f1:47:63:0c:b4:18:
         bd:90:f7:04:4b:bc:85:61:0f:77:6d:5b:74:cb:fb:fa:7f:fe:
         4a:17:ee:9a:a6:cd:7c:a0:61:9c:02:a8:27:3d:c5:85:5b:84:
         50:c3:65:1a:3a:e0:4f:38:99:86:27:ce:17:6f:72:54:cc:dd:
         db:cd:49:42:5b:5c:3f:e0:6b:81:01:af:19:5c:a5:29:5d:db:
         1e:e0:6e:ad:4f:ce:46:83:22:f3:57:a5:82:f4:82:0a:1c:ef:
         9e:4f:de:e7:00:61:c5:7e:45:eb:c4:d4:49:71:eb:c2:2f:ae:
         4d:17:f8:52:d8:62:80:3b:ad:3a:21:74:88:07:d8:3f:c6:1d:
         6e:77:4b:a7:d3:63:c5:44:30:11:0b:24:46:b5:76:d3:bd:45:
         f8:bb:16:1d:82:2b:7b:98:1e:01:65:3e:77:79:ab:32:e5:65:
         19:57:04:a6:57:78:37:7c:34:a8:00:89:90:0e:56:b2:cc:ca:
         06:24:90:90:45:fe:3d:47
-----BEGIN CERTIFICATE-----
MIIGrTCCBJWgAwIBAgICMogwDQYJKoZIhvcNAQELBQAwgawxCzAJBgNVBAYTAlVT
MQswCQYDVQQIEwJPSDERMA8GA1UEBxMIQ29sdW1idXMxEjAQBgNVBAoTCVZpa2lu
Z1ZQTjEdMBsGA1UECxMUTXlPcmdhbml6YXRpb25hbFVuaXQxFTATBgNVBAMTDFZp
a2luZ1ZQTiBDQTEQMA4GA1UEKRMHRWFzeVJTQTEhMB8GCSqGSIb3DQEJARYSbWVA
bXlob3N0Lm15ZG9tYWluMB4XDTE4MDQwNzE4MTc1NFoXDTI4MDQwNDE4MTc1NFow
HzEdMBsGA1UEAxMUQ2xpZW50MTM0NkNlcnQ0MDA4NGYwggIiMA0GCSqGSIb3DQEB
AQUAA4ICDwAwggIKAoICAQDI9E8lO40fqxyQHt/AMWOPFcD6iuNh1LI+K/8vVdbj
t6K6opEtMurgLqkJICulzbmoj2Koe9ieiOoKccCVB8fk1aapPfHfHApHkQ1zAFcr
wIFprfUGPMk9L6/ZGmnW8tzUOKQrGIvhYVvm9/HGcUTY7uiuW0rGV0ktPUFdJwcD
V9kVhrc9GqXeurccvBor59Q4bDLRahjFLt6x5xy8BPth04WSkMuBJ1/CSPp4huEL
RgX7kfBUF1ag+//2WRd0KQV2VHCVnzVzIg0m4Gyew495JDzIlRFuhxvmra0FiSvN
pGCgsvE9EayJeJ5JH/9YM4uVuoBmjZ49Pg5uSZlHnavl2L3IKR/+/Hgm2eTalyea
TU/I6I221kLYkUZ6Sk3yrYhwUcoKcauOARD2zZcnAfLbDQR/TWgTiYc7wjUatjOU
5s1Y6Gla/OcxLBWoS9rhtBcFwQuPUR6u2jmIVu5x0AnpLuJy9ovwCVlJ3/GOttF+
nNV6RzL9TuOpjtrbnIzIZf7pg1/R8iESrp68iD0JzF3zohECse/gPu4f7XQFH905
DmAlsWRyY7kRVqY6jfUNzLVrUF06WZwFoiqPgs5uh6Nu120VwB12dutQX4ENeej1
TCe2T9gZkbLKqEt3Z+9fEjBXmMJyE+hii5JUeYr+9kCP6D/mOZfDwW1TSTC+AER1
cwIDAQABo4IBYzCCAV8wCQYDVR0TBAIwADAtBglghkgBhvhCAQ0EIBYeRWFzeS1S
U0EgR2VuZXJhdGVkIENlcnRpZmljYXRlMB0GA1UdDgQWBBQoa05/hI/r090P2SqP
8EykBW1T2jCB4QYDVR0jBIHZMIHWgBQSzWAE0qCAnnDtxpm4eyzGUv0ZoaGBsqSB
rzCBrDELMAkGA1UEBhMCVVMxCzAJBgNVBAgTAk9IMREwDwYDVQQHEwhDb2x1bWJ1
czESMBAGA1UEChMJVmlraW5nVlBOMR0wGwYDVQQLExRNeU9yZ2FuaXphdGlvbmFs
VW5pdDEVMBMGA1UEAxMMVmlraW5nVlBOIENBMRAwDgYDVQQpEwdFYXN5UlNBMSEw
HwYJKoZIhvcNAQkBFhJtZUBteWhvc3QubXlkb21haW6CCQDPNYXugL8qPjATBgNV
HSUEDDAKBggrBgEFBQcDAjALBgNVHQ8EBAMCB4AwDQYJKoZIhvcNAQELBQADggIB
ADN6QSx94isDOUZez43dZawFb+l+19mOJkF3Ms4rSF3UKlCDDbsQ3SSOHLU74uxJ
aymFW9Q/u9BfMpo4h9ccqx4nDOo8a4t8CxEqloK/dBXXIkSFieibnrt4ob6lASS9
4TENOc2AFEdETbVQZZMz8khzHXOuDpT6P5vIWvmVjgOkSkRZ516fFgeguVhGXKUA
mcqoHTeSUnRbVzmc4jy7ass+62dENNc0URrN1cZCfQ27raBKGVCZi34nKQvV+Td2
OFXKvnfRSeX/xBlANv1zOdppeKWFs25pbY0RQ3TBwQJ3kuWK3LM3B2JQdI8Q2Sl4
HxJ7DE5ja7Scr8QjSJqOOhLZ8KA91ydSrZyCSV9RhgzDWN9o5B46/GPbXUPtdrI8
5obWakEZ8BeB5Jr0fzgtA1HrgbBZ5A6io0cKgKoO1PFHYwy0GL2Q9wRLvIVhD3dt
W3TL+/p//koX7pqmzXygYZwCqCc9xYVbhFDDZRo64E84mYYnzhdvclTM3dvNSUJb
XD/ga4EBrxlcpSld2x7gbq1PzkaDIvNXpYL0ggoc755P3ucAYcV+RevE1Elx68Iv
rk0X+FLYYoA7rTohdIgH2D/GHW53S6fTY8VEMBELJEa1dtO9Rfi7Fh2CK3uYHgFl
Pnd5qzLlZRlXBKZXeDd8NKgAiZAOVrLMygYkkJBF/j1H
-----END CERTIFICATE-----
