Certificate:
    Data:
        Version: 3 (0x2)
        Serial Number: 12939 (0x328b)
    Signature Algorithm: sha256WithRSAEncryption
        Issuer: C=US, ST=OH, L=Columbus, O=VikingVPN, OU=MyOrganizationalUnit, CN=VikingVPN CA/name=EasyRSA/emailAddress=me@myhost.mydomain
        Validity
            Not Before: Apr  7 18:27:55 2018 GMT
            Not After : Apr  4 18:27:55 2028 GMT
        Subject: CN=Client1346Cert3cf018
        Subject Public Key Info:
            Public Key Algorithm: rsaEncryption
                Public-Key: (4096 bit)
                Modulus:
                    00:b8:03:0d:07:9a:55:70:d0:7c:ec:30:33:68:81:
                    26:ca:c4:16:a4:72:82:ad:fd:b1:ac:aa:71:98:56:
                    1d:57:e9:8e:20:8a:33:5b:46:42:bd:de:11:aa:cf:
                    98:9d:0f:ad:93:71:50:88:b9:82:6c:08:41:2e:87:
                    b8:a9:a1:f7:e4:9b:5f:31:74:62:c0:e4:5a:38:7e:
                    f2:55:57:35:fd:1c:4a:4c:bf:1d:c0:5e:c4:08:63:
                    e5:56:d7:da:12:80:8a:d3:cb:7e:72:df:d4:be:95:
                    05:c6:fe:d5:cb:94:70:96:55:b7:aa:b1:93:b6:5c:
                    03:89:73:95:15:aa:e9:e8:f9:72:7d:32:57:a7:01:
                    3d:f2:9b:28:5b:a4:d9:81:0f:04:39:43:a8:7b:8f:
                    16:61:6c:ed:01:aa:11:bf:df:39:df:db:ba:cf:67:
                    3f:46:69:f5:43:d8:40:0a:c0:6b:75:43:ad:98:c5:
                    83:03:99:b6:0c:c6:ce:1b:27:94:cf:7f:de:df:b2:
                    22:c5:fe:ba:18:8f:d2:47:d8:c8:62:1d:e2:3b:25:
                    04:4c:9b:c3:87:52:56:e0:ce:16:46:54:fb:69:d4:
                    2b:ef:f0:20:53:39:e7:24:a6:8c:64:a2:60:82:22:
                    60:b0:af:ef:b0:e1:8f:d5:65:48:3a:72:78:9a:b9:
                    65:1d:4c:ca:fa:93:b0:9c:56:1c:3d:c0:a9:39:72:
                    1b:0e:39:16:27:a1:62:5d:87:0a:35:b5:f3:a9:15:
                    ae:3c:7d:1d:2d:f8:c6:47:18:96:0d:6b:96:33:e3:
                    58:88:ea:e2:fe:1f:73:c0:68:3c:88:1c:5c:a5:ed:
                    43:21:cb:83:cb:fe:ee:ac:57:fa:51:d0:1f:10:9e:
                    16:53:5d:98:20:a8:72:b1:3e:b8:c6:1d:7d:47:d6:
                    62:34:62:89:9c:29:71:c7:5c:40:b6:5a:f3:79:f1:
                    12:7a:3c:75:b2:d1:c1:47:af:f9:58:a6:0c:9b:ee:
                    75:52:10:07:eb:62:e1:0e:47:cf:9b:cb:29:61:db:
                    2e:8f:e6:eb:ac:5b:5c:c6:a8:8e:2a:59:6d:1d:04:
                    a2:f0:2e:35:df:8d:2a:69:72:53:7d:93:04:af:99:
                    1f:e1:1e:49:82:aa:e3:41:d1:22:db:34:4d:0b:6e:
                    71:4f:9b:21:77:61:bd:df:e6:b7:af:bb:e1:85:69:
                    87:13:b7:f1:8d:40:1a:eb:f9:9d:95:54:0d:27:fe:
                    70:f5:81:3c:5b:6b:04:7e:5e:5f:30:16:48:75:6e:
                    46:92:59:02:26:98:4c:48:da:1c:ca:69:03:4b:f3:
                    91:52:e0:00:bd:06:76:95:aa:c5:3b:4a:8b:33:8f:
                    11:e7:01
                Exponent: 65537 (0x10001)
        X509v3 extensions:
            X509v3 Basic Constraints: 
                CA:FALSE
            Netscape Comment: 
                Easy-RSA Generated Certificate
            X509v3 Subject Key Identifier: 
                3B:CE:21:87:04:DB:DB:C3:7C:79:EB:6E:64:C0:FD:48:34:25:EF:82
            X509v3 Authority Key Identifier: 
                keyid:12:CD:60:04:D2:A0:80:9E:70:ED:C6:99:B8:7B:2C:C6:52:FD:19:A1
                DirName:/C=US/ST=OH/L=Columbus/O=VikingVPN/OU=MyOrganizationalUnit/CN=VikingVPN CA/name=EasyRSA/emailAddress=me@myhost.mydomain
                serial:CF:35:85:EE:80:BF:2A:3E

            X509v3 Extended Key Usage: 
                TLS Web Client Authentication
            X509v3 Key Usage: 
                Digital Signature
    Signature Algorithm: sha256WithRSAEncryption
         b8:2f:a4:b8:f3:2b:86:d9:ec:d4:9d:ba:f2:20:3f:25:53:95:
         81:1a:a1:a9:d3:6a:12:9f:9a:f1:af:e0:ae:86:b0:36:a5:9f:
         a5:5e:3c:ec:5d:62:69:9a:51:4f:e8:d6:7f:ea:45:0a:18:c6:
         da:fe:f4:b1:68:ae:eb:2e:be:26:d1:2c:12:a3:02:9a:12:9d:
         34:b4:e2:e6:e3:98:9b:7d:b4:20:04:d7:11:cc:74:7a:6b:79:
         4b:d6:18:c7:1e:03:e1:34:69:e6:7d:39:82:90:39:23:93:ef:
         e1:81:29:58:ef:29:31:24:64:c0:97:fe:9e:f5:6f:42:a3:f5:
         99:35:f5:f0:66:8c:20:46:68:42:95:b0:8c:e9:3c:44:84:89:
         97:c8:3d:26:8c:d4:22:fb:8d:e5:ad:a6:a8:4c:14:57:1d:a3:
         a1:90:2c:33:21:25:e0:2e:50:c4:f5:e5:63:d2:7e:98:67:d4:
         1b:e5:ee:24:53:f2:44:88:be:f4:8a:d4:2e:e4:2f:88:05:1e:
         3d:e3:18:5b:91:9e:6f:38:a6:41:a7:91:a2:71:8d:d4:52:f6:
         21:b9:dd:5c:bd:70:5b:e5:9f:cb:c9:47:1b:e4:4f:1b:9d:94:
         bc:e4:e6:b8:4a:96:a3:34:6e:7d:d8:84:55:90:df:83:64:61:
         7a:b4:18:ee:05:e8:1c:97:3c:68:4a:96:5c:15:c3:10:7f:0a:
         e2:5d:49:4a:e2:43:09:61:5d:33:45:de:55:ec:59:70:93:c7:
         f7:24:77:d0:ea:64:9d:e8:6d:6b:84:52:9f:db:d6:47:36:23:
         24:14:43:b7:a5:c0:3c:71:c8:eb:8c:aa:96:cf:44:70:13:aa:
         ee:0e:f9:d0:2e:2f:35:72:08:7f:4c:6e:a0:42:5f:65:76:74:
         7e:15:65:a1:28:0a:13:25:86:52:b9:0a:71:3e:35:1d:f4:2a:
         17:04:f4:8c:4a:51:7a:c1:2d:63:1b:da:58:7f:c1:d8:dd:64:
         73:7a:3d:f4:d6:c3:19:c9:0a:fd:a8:68:2a:a8:12:1a:e5:04:
         ac:71:9c:cc:7a:95:ca:2a:61:ac:88:ee:60:eb:25:5a:31:e8:
         e9:6a:1d:36:68:1d:46:a7:e1:ef:69:18:dd:5a:d8:bc:f6:ed:
         7d:7c:55:f5:3f:c3:d8:17:88:09:51:c8:52:bf:02:90:3b:0d:
         34:0f:50:18:54:65:5f:da:bc:dc:dc:3f:81:17:2c:ba:7d:d9:
         a3:e2:87:f5:d8:02:4f:70:af:46:c8:0a:da:01:a0:a1:6c:e3:
         95:40:3d:40:f4:b3:37:84:47:b3:71:de:4d:19:70:dd:09:c1:
         a1:ad:33:d5:ef:75:33:ab
-----BEGIN CERTIFICATE-----
MIIGrTCCBJWgAwIBAgICMoswDQYJKoZIhvcNAQELBQAwgawxCzAJBgNVBAYTAlVT
MQswCQYDVQQIEwJPSDERMA8GA1UEBxMIQ29sdW1idXMxEjAQBgNVBAoTCVZpa2lu
Z1ZQTjEdMBsGA1UECxMUTXlPcmdhbml6YXRpb25hbFVuaXQxFTATBgNVBAMTDFZp
a2luZ1ZQTiBDQTEQMA4GA1UEKRMHRWFzeVJTQTEhMB8GCSqGSIb3DQEJARYSbWVA
bXlob3N0Lm15ZG9tYWluMB4XDTE4MDQwNzE4Mjc1NVoXDTI4MDQwNDE4Mjc1NVow
HzEdMBsGA1UEAxMUQ2xpZW50MTM0NkNlcnQzY2YwMTgwggIiMA0GCSqGSIb3DQEB
AQUAA4ICDwAwggIKAoICAQC4Aw0HmlVw0HzsMDNogSbKxBakcoKt/bGsqnGYVh1X
6Y4gijNbRkK93hGqz5idD62TcVCIuYJsCEEuh7ipoffkm18xdGLA5Fo4fvJVVzX9
HEpMvx3AXsQIY+VW19oSgIrTy35y39S+lQXG/tXLlHCWVbeqsZO2XAOJc5UVquno
+XJ9MlenAT3ymyhbpNmBDwQ5Q6h7jxZhbO0BqhG/3znf27rPZz9GafVD2EAKwGt1
Q62YxYMDmbYMxs4bJ5TPf97fsiLF/roYj9JH2MhiHeI7JQRMm8OHUlbgzhZGVPtp
1Cvv8CBTOeckpoxkomCCImCwr++w4Y/VZUg6cniauWUdTMr6k7CcVhw9wKk5chsO
ORYnoWJdhwo1tfOpFa48fR0t+MZHGJYNa5Yz41iI6uL+H3PAaDyIHFyl7UMhy4PL
/u6sV/pR0B8QnhZTXZggqHKxPrjGHX1H1mI0YomcKXHHXEC2WvN58RJ6PHWy0cFH
r/lYpgyb7nVSEAfrYuEOR8+byylh2y6P5uusW1zGqI4qWW0dBKLwLjXfjSppclN9
kwSvmR/hHkmCquNB0SLbNE0LbnFPmyF3Yb3f5revu+GFaYcTt/GNQBrr+Z2VVA0n
/nD1gTxbawR+Xl8wFkh1bkaSWQImmExI2hzKaQNL85FS4AC9BnaVqsU7SoszjxHn
AQIDAQABo4IBYzCCAV8wCQYDVR0TBAIwADAtBglghkgBhvhCAQ0EIBYeRWFzeS1S
U0EgR2VuZXJhdGVkIENlcnRpZmljYXRlMB0GA1UdDgQWBBQ7ziGHBNvbw3x5625k
wP1INCXvgjCB4QYDVR0jBIHZMIHWgBQSzWAE0qCAnnDtxpm4eyzGUv0ZoaGBsqSB
rzCBrDELMAkGA1UEBhMCVVMxCzAJBgNVBAgTAk9IMREwDwYDVQQHEwhDb2x1bWJ1
czESMBAGA1UEChMJVmlraW5nVlBOMR0wGwYDVQQLExRNeU9yZ2FuaXphdGlvbmFs
VW5pdDEVMBMGA1UEAxMMVmlraW5nVlBOIENBMRAwDgYDVQQpEwdFYXN5UlNBMSEw
HwYJKoZIhvcNAQkBFhJtZUBteWhvc3QubXlkb21haW6CCQDPNYXugL8qPjATBgNV
HSUEDDAKBggrBgEFBQcDAjALBgNVHQ8EBAMCB4AwDQYJKoZIhvcNAQELBQADggIB
ALgvpLjzK4bZ7NSduvIgPyVTlYEaoanTahKfmvGv4K6GsDaln6VePOxdYmmaUU/o
1n/qRQoYxtr+9LForusuvibRLBKjApoSnTS04ubjmJt9tCAE1xHMdHpreUvWGMce
A+E0aeZ9OYKQOSOT7+GBKVjvKTEkZMCX/p71b0Kj9Zk19fBmjCBGaEKVsIzpPESE
iZfIPSaM1CL7jeWtpqhMFFcdo6GQLDMhJeAuUMT15WPSfphn1Bvl7iRT8kSIvvSK
1C7kL4gFHj3jGFuRnm84pkGnkaJxjdRS9iG53Vy9cFvln8vJRxvkTxudlLzk5rhK
lqM0bn3YhFWQ34NkYXq0GO4F6ByXPGhKllwVwxB/CuJdSUriQwlhXTNF3lXsWXCT
x/ckd9DqZJ3obWuEUp/b1kc2IyQUQ7elwDxxyOuMqpbPRHATqu4O+dAuLzVyCH9M
bqBCX2V2dH4VZaEoChMlhlK5CnE+NR30KhcE9IxKUXrBLWMb2lh/wdjdZHN6PfTW
wxnJCv2oaCqoEhrlBKxxnMx6lcoqYayI7mDrJVox6OlqHTZoHUan4e9pGN1a2Lz2
7X18VfU/w9gXiAlRyFK/ApA7DTQPUBhUZV/avNzcP4EXLLp92aPih/XYAk9wr0bI
CtoBoKFs45VAPUD0szeER7Nx3k0ZcN0JwaGtM9XvdTOr
-----END CERTIFICATE-----
