Certificate:
    Data:
        Version: 3 (0x2)
        Serial Number: 12953 (0x3299)
    Signature Algorithm: sha256WithRSAEncryption
        Issuer: C=US, ST=OH, L=Columbus, O=VikingVPN, OU=MyOrganizationalUnit, CN=VikingVPN CA/name=EasyRSA/emailAddress=me@myhost.mydomain
        Validity
            Not Before: Apr 10 00:39:49 2018 GMT
            Not After : Apr  7 00:39:49 2028 GMT
        Subject: CN=Client1643Cert71db01
        Subject Public Key Info:
            Public Key Algorithm: rsaEncryption
                Public-Key: (4096 bit)
                Modulus:
                    00:cf:e8:f0:1b:60:7b:ad:3c:b3:db:07:f6:02:08:
                    05:b3:0f:6e:c5:20:ff:46:39:a7:4e:a0:a2:70:db:
                    c0:1c:9d:d4:ce:d9:5c:6f:c9:f5:11:19:68:76:36:
                    7b:7f:82:65:89:3e:99:c6:7b:bc:20:42:35:15:04:
                    33:25:f0:0d:5e:ae:1a:6a:7f:c6:6f:da:91:fe:e5:
                    fe:9a:b8:cd:86:9c:39:58:7f:ed:46:ad:db:d9:41:
                    07:48:7a:30:aa:07:35:fd:50:7e:03:54:bd:aa:7e:
                    cc:f0:f3:14:95:50:dc:df:3f:72:88:83:1f:55:ab:
                    96:04:c6:a5:86:07:37:04:17:02:0b:a8:33:2c:98:
                    b1:56:08:69:69:c6:7d:44:f6:58:f0:6c:48:1f:29:
                    83:3b:f4:3d:90:a8:1c:5e:53:31:a7:bc:b7:9c:22:
                    0d:5a:96:e2:1e:3d:5e:4f:85:5c:d5:2e:23:21:25:
                    94:fb:38:79:ce:bd:40:71:7d:e0:46:76:36:eb:35:
                    0c:99:1a:1c:28:3a:ac:04:a7:e2:91:29:24:85:af:
                    0a:09:7b:d9:b3:01:85:98:d5:92:e5:da:df:ba:7c:
                    ed:ab:d1:e0:60:fa:0b:1d:68:7a:9f:c4:94:7e:b2:
                    68:2a:26:10:a6:55:ba:f4:91:03:61:65:0f:4f:81:
                    a9:d6:03:d8:d3:91:7b:ae:b3:79:5a:3c:58:81:18:
                    0d:10:14:7f:5b:c3:50:3d:f7:81:93:65:29:fb:e7:
                    0e:5c:2d:a1:19:87:44:d6:5d:1f:6b:b7:a5:06:a8:
                    5a:b9:23:03:d2:a7:2c:70:8a:5c:dd:12:9b:9a:f2:
                    ac:77:01:b1:9f:30:31:e7:7c:4d:76:ab:00:f8:6c:
                    5a:8a:2f:f0:32:1c:c5:57:a3:b0:bb:5b:2b:53:bd:
                    05:d9:c5:97:88:b4:45:53:7c:10:6d:19:a9:bd:e9:
                    7f:20:1d:33:f9:52:43:d8:1d:1e:16:39:81:63:a4:
                    3b:9d:e5:f0:5b:41:3b:6f:5e:10:09:89:52:23:7b:
                    4e:ac:c8:7c:d5:df:e0:db:be:4d:33:08:fa:c6:6b:
                    42:d8:6c:65:5e:91:cb:ef:02:e4:3c:3b:0c:a6:0b:
                    e1:44:40:3c:d5:24:5d:fa:30:17:a4:86:61:d1:f7:
                    21:58:5f:ee:24:88:bb:6c:95:04:10:a9:02:be:11:
                    6d:b3:1a:f1:51:77:fd:cf:69:80:42:a1:aa:5b:1c:
                    b8:c0:ca:19:ef:3e:4e:60:2e:7c:6b:6c:79:85:6c:
                    6b:c9:55:9b:02:b2:e6:64:ae:9f:f8:4e:20:03:a4:
                    38:b6:74:64:e8:56:e4:0a:90:a4:a1:87:be:05:1f:
                    0f:0e:3f
                Exponent: 65537 (0x10001)
        X509v3 extensions:
            X509v3 Basic Constraints: 
                CA:FALSE
            Netscape Comment: 
                Easy-RSA Generated Certificate
            X509v3 Subject Key Identifier: 
                9E:1F:FB:F0:EB:92:32:18:09:A9:9C:A4:A8:27:C0:98:36:A5:21:DB
            X509v3 Authority Key Identifier: 
                keyid:12:CD:60:04:D2:A0:80:9E:70:ED:C6:99:B8:7B:2C:C6:52:FD:19:A1
                DirName:/C=US/ST=OH/L=Columbus/O=VikingVPN/OU=MyOrganizationalUnit/CN=VikingVPN CA/name=EasyRSA/emailAddress=me@myhost.mydomain
                serial:CF:35:85:EE:80:BF:2A:3E

            X509v3 Extended Key Usage: 
                TLS Web Client Authentication
            X509v3 Key Usage: 
                Digital Signature
    Signature Algorithm: sha256WithRSAEncryption
         6e:a9:01:1e:3f:ac:8b:80:ca:cb:48:e4:56:f5:4e:4e:59:cd:
         06:34:d8:db:ac:f3:9a:1b:79:a4:74:bf:9c:3b:f1:b7:14:98:
         9b:f9:b5:1b:0b:19:6c:6e:36:ef:cf:6e:e2:b3:3c:8a:55:09:
         47:ec:00:dd:0b:64:da:c7:c2:f2:a2:00:a1:64:5a:2d:6d:06:
         7a:fd:ca:4a:2c:78:22:86:49:6b:11:23:4b:db:b7:ae:12:59:
         0c:5a:89:c3:e9:24:20:5c:dd:a4:cd:da:12:1d:bc:79:e5:00:
         ff:ac:58:ea:60:0d:5b:52:65:d9:25:aa:ba:ad:de:61:eb:11:
         4a:e6:2c:52:0e:25:20:21:32:01:b4:04:33:d2:65:10:d0:31:
         59:20:b2:c3:69:56:6d:10:95:d8:94:50:d0:f8:80:09:16:3f:
         27:74:37:15:b9:ae:0f:dd:03:10:79:f7:da:09:4e:7f:34:41:
         ec:8c:57:be:17:20:88:96:37:1e:a4:f6:a3:3d:e1:33:9c:cd:
         45:5e:f4:81:2b:b3:8e:e5:eb:08:c8:35:1a:23:96:d3:a3:ca:
         5e:44:db:a7:b5:88:84:c1:0a:7c:e1:48:dd:05:8b:6b:a2:59:
         b7:b6:83:3d:1d:71:ba:c3:fc:d3:ba:a0:3c:32:ce:78:d1:d6:
         62:a3:fd:b8:6b:91:e5:50:ed:e9:f0:50:16:38:bf:b9:5e:e9:
         f8:3e:0f:e0:00:66:5d:72:8d:fc:00:06:07:96:0e:54:a9:48:
         4b:dc:35:d1:4d:b7:95:66:5f:da:23:cd:0f:9d:34:9e:60:80:
         7c:c6:86:71:0b:db:85:c7:b3:55:d7:3c:36:2f:b9:76:17:80:
         05:db:36:da:1f:37:e9:05:ad:ee:ff:e1:68:9a:de:86:5d:fb:
         31:a4:03:54:47:e8:08:70:0e:4d:37:08:df:d1:0f:e4:ec:ff:
         73:e4:d9:8b:be:3a:70:1c:2c:de:c4:8b:7c:0c:3d:bf:39:e3:
         c8:2a:4b:62:f0:97:57:1e:75:dd:de:1b:bb:75:14:70:29:18:
         be:58:30:c8:d8:de:07:e8:69:ee:57:9a:b1:48:86:8f:84:15:
         ce:bf:82:52:7e:e2:4f:1b:f8:20:5b:07:32:2e:7d:f0:ba:77:
         db:ff:d3:d9:74:1c:6c:bf:4c:97:6d:a5:b9:db:f1:db:b3:26:
         27:60:c3:11:dd:5b:63:1a:28:05:3c:de:7f:95:d8:ee:51:a5:
         7b:6f:b9:a6:65:db:1d:5e:b1:b4:28:11:85:7a:54:1a:f7:69:
         1c:13:18:2e:e9:29:57:f1:97:4a:b9:09:43:85:43:dc:91:c3:
         9c:95:e1:41:48:bc:8b:30
-----BEGIN CERTIFICATE-----
MIIGrTCCBJWgAwIBAgICMpkwDQYJKoZIhvcNAQELBQAwgawxCzAJBgNVBAYTAlVT
MQswCQYDVQQIEwJPSDERMA8GA1UEBxMIQ29sdW1idXMxEjAQBgNVBAoTCVZpa2lu
Z1ZQTjEdMBsGA1UECxMUTXlPcmdhbml6YXRpb25hbFVuaXQxFTATBgNVBAMTDFZp
a2luZ1ZQTiBDQTEQMA4GA1UEKRMHRWFzeVJTQTEhMB8GCSqGSIb3DQEJARYSbWVA
bXlob3N0Lm15ZG9tYWluMB4XDTE4MDQxMDAwMzk0OVoXDTI4MDQwNzAwMzk0OVow
HzEdMBsGA1UEAxMUQ2xpZW50MTY0M0NlcnQ3MWRiMDEwggIiMA0GCSqGSIb3DQEB
AQUAA4ICDwAwggIKAoICAQDP6PAbYHutPLPbB/YCCAWzD27FIP9GOadOoKJw28Ac
ndTO2VxvyfURGWh2Nnt/gmWJPpnGe7wgQjUVBDMl8A1erhpqf8Zv2pH+5f6auM2G
nDlYf+1GrdvZQQdIejCqBzX9UH4DVL2qfszw8xSVUNzfP3KIgx9Vq5YExqWGBzcE
FwILqDMsmLFWCGlpxn1E9ljwbEgfKYM79D2QqBxeUzGnvLecIg1aluIePV5PhVzV
LiMhJZT7OHnOvUBxfeBGdjbrNQyZGhwoOqwEp+KRKSSFrwoJe9mzAYWY1ZLl2t+6
fO2r0eBg+gsdaHqfxJR+smgqJhCmVbr0kQNhZQ9PganWA9jTkXuus3laPFiBGA0Q
FH9bw1A994GTZSn75w5cLaEZh0TWXR9rt6UGqFq5IwPSpyxwilzdEpua8qx3AbGf
MDHnfE12qwD4bFqKL/AyHMVXo7C7WytTvQXZxZeItEVTfBBtGam96X8gHTP5UkPY
HR4WOYFjpDud5fBbQTtvXhAJiVIje06syHzV3+Dbvk0zCPrGa0LYbGVekcvvAuQ8
OwymC+FEQDzVJF36MBekhmHR9yFYX+4kiLtslQQQqQK+EW2zGvFRd/3PaYBCoapb
HLjAyhnvPk5gLnxrbHmFbGvJVZsCsuZkrp/4TiADpDi2dGToVuQKkKShh74FHw8O
PwIDAQABo4IBYzCCAV8wCQYDVR0TBAIwADAtBglghkgBhvhCAQ0EIBYeRWFzeS1S
U0EgR2VuZXJhdGVkIENlcnRpZmljYXRlMB0GA1UdDgQWBBSeH/vw65IyGAmpnKSo
J8CYNqUh2zCB4QYDVR0jBIHZMIHWgBQSzWAE0qCAnnDtxpm4eyzGUv0ZoaGBsqSB
rzCBrDELMAkGA1UEBhMCVVMxCzAJBgNVBAgTAk9IMREwDwYDVQQHEwhDb2x1bWJ1
czESMBAGA1UEChMJVmlraW5nVlBOMR0wGwYDVQQLExRNeU9yZ2FuaXphdGlvbmFs
VW5pdDEVMBMGA1UEAxMMVmlraW5nVlBOIENBMRAwDgYDVQQpEwdFYXN5UlNBMSEw
HwYJKoZIhvcNAQkBFhJtZUBteWhvc3QubXlkb21haW6CCQDPNYXugL8qPjATBgNV
HSUEDDAKBggrBgEFBQcDAjALBgNVHQ8EBAMCB4AwDQYJKoZIhvcNAQELBQADggIB
AG6pAR4/rIuAystI5Fb1Tk5ZzQY02Nus85obeaR0v5w78bcUmJv5tRsLGWxuNu/P
buKzPIpVCUfsAN0LZNrHwvKiAKFkWi1tBnr9ykoseCKGSWsRI0vbt64SWQxaicPp
JCBc3aTN2hIdvHnlAP+sWOpgDVtSZdklqrqt3mHrEUrmLFIOJSAhMgG0BDPSZRDQ
MVkgssNpVm0QldiUUND4gAkWPyd0NxW5rg/dAxB599oJTn80QeyMV74XIIiWNx6k
9qM94TOczUVe9IErs47l6wjINRojltOjyl5E26e1iITBCnzhSN0Fi2uiWbe2gz0d
cbrD/NO6oDwyznjR1mKj/bhrkeVQ7enwUBY4v7le6fg+D+AAZl1yjfwABgeWDlSp
SEvcNdFNt5VmX9ojzQ+dNJ5ggHzGhnEL24XHs1XXPDYvuXYXgAXbNtofN+kFre7/
4Wia3oZd+zGkA1RH6AhwDk03CN/RD+Ts/3Pk2Yu+OnAcLN7Ei3wMPb8548gqS2Lw
l1cedd3eG7t1FHApGL5YMMjY3gfoae5XmrFIho+EFc6/glJ+4k8b+CBbBzIuffC6
d9v/09l0HGy/TJdtpbnb8duzJidgwxHdW2MaKAU83n+V2O5RpXtvuaZl2x1esbQo
EYV6VBr3aRwTGC7pKVfxl0q5CUOFQ9yRw5yV4UFIvIsw
-----END CERTIFICATE-----
