Certificate:
    Data:
        Version: 3 (0x2)
        Serial Number: 12956 (0x329c)
    Signature Algorithm: sha256WithRSAEncryption
        Issuer: C=US, ST=OH, L=Columbus, O=VikingVPN, OU=MyOrganizationalUnit, CN=VikingVPN CA/name=EasyRSA/emailAddress=me@myhost.mydomain
        Validity
            Not Before: Apr 10 15:11:08 2018 GMT
            Not After : Apr  7 15:11:08 2028 GMT
        Subject: CN=Client1643Certd351b0
        Subject Public Key Info:
            Public Key Algorithm: rsaEncryption
                Public-Key: (4096 bit)
                Modulus:
                    00:a9:21:15:1d:80:6a:66:3e:7e:7a:90:fc:a6:e4:
                    9d:70:50:1c:ab:5d:eb:55:71:98:7d:3d:77:0c:25:
                    66:4b:8a:26:64:34:6e:f7:34:f7:62:9b:39:fe:26:
                    58:27:84:e1:9f:e6:f9:06:b8:66:76:06:d8:ca:08:
                    70:4d:f9:34:8d:28:9d:60:24:05:77:1f:4f:99:a8:
                    4f:1f:ad:f2:41:6d:1d:b4:55:0a:fb:07:bf:8a:52:
                    88:da:ae:14:c2:41:5e:16:5d:0d:60:68:dc:0e:90:
                    10:d8:84:2f:97:3e:d2:22:17:e4:04:a7:73:38:8b:
                    af:a7:e4:d0:3d:cd:99:9c:e1:c8:c4:97:3b:82:5e:
                    43:48:90:06:91:c9:05:e2:e4:3f:de:81:fb:34:35:
                    02:b9:69:5c:cc:30:d9:c5:fa:4c:80:ea:c8:49:70:
                    fb:cf:74:d5:83:be:b2:cf:e3:15:b8:8c:37:25:5e:
                    9d:df:d1:34:2d:6d:d7:d8:32:6c:62:fa:d8:e7:c2:
                    95:7d:31:a7:0a:8d:6e:f0:23:93:bc:9b:d7:66:fc:
                    1f:37:c1:f8:df:65:2a:e3:c1:69:58:db:2a:d2:6c:
                    cf:62:48:74:56:5e:67:0c:30:76:2c:61:17:d5:8c:
                    9d:11:b0:3e:14:eb:9d:8e:c3:ec:a6:35:b9:21:57:
                    7b:fa:c3:07:8f:24:07:f8:55:61:93:4b:48:dc:ff:
                    85:33:b8:f5:d6:50:63:06:81:19:a0:e7:f2:5a:57:
                    84:ce:7e:c0:87:d8:e4:97:2e:d3:9b:8a:f5:2c:ae:
                    f5:b4:8d:f5:5a:f7:fa:28:0c:57:53:94:4d:c4:48:
                    75:c0:80:02:26:19:72:08:22:68:2e:d2:2c:98:94:
                    aa:4d:42:7d:28:7f:59:a3:28:34:04:bd:8c:7b:1e:
                    f6:28:0d:26:b0:32:b4:d6:1d:bc:9c:b7:3e:54:fd:
                    da:54:cb:4c:e2:a3:2f:d3:a3:95:16:67:16:1e:54:
                    b7:b5:a8:84:c3:f2:cd:00:08:a0:ac:27:73:1a:d0:
                    ed:02:94:51:93:f0:20:9d:b6:f7:26:ba:1f:1f:85:
                    87:6b:0f:82:86:a7:47:fe:af:74:0d:c9:2f:f8:2f:
                    51:b0:ed:9b:1b:ed:b3:8b:09:0a:3b:5f:1d:2b:b4:
                    7b:bb:84:38:0a:3e:dc:5a:6a:d1:76:51:87:fd:4b:
                    0f:8c:63:27:3d:29:9d:27:da:a4:e9:50:ad:92:fa:
                    6b:c9:51:a2:dd:c0:3a:ca:db:ae:3d:a1:04:d3:32:
                    8f:c0:52:75:f1:4e:d3:96:e2:0a:73:e9:02:83:4f:
                    ba:8e:e2:e4:42:00:93:6f:07:ea:77:7d:10:e7:f3:
                    2c:2d:75
                Exponent: 65537 (0x10001)
        X509v3 extensions:
            X509v3 Basic Constraints: 
                CA:FALSE
            Netscape Comment: 
                Easy-RSA Generated Certificate
            X509v3 Subject Key Identifier: 
                F6:87:9C:0E:48:3B:73:4C:04:B2:7D:30:BE:65:BB:C0:EC:FD:CD:F6
            X509v3 Authority Key Identifier: 
                keyid:12:CD:60:04:D2:A0:80:9E:70:ED:C6:99:B8:7B:2C:C6:52:FD:19:A1
                DirName:/C=US/ST=OH/L=Columbus/O=VikingVPN/OU=MyOrganizationalUnit/CN=VikingVPN CA/name=EasyRSA/emailAddress=me@myhost.mydomain
                serial:CF:35:85:EE:80:BF:2A:3E

            X509v3 Extended Key Usage: 
                TLS Web Client Authentication
            X509v3 Key Usage: 
                Digital Signature
    Signature Algorithm: sha256WithRSAEncryption
         30:16:12:0f:2b:41:05:ad:9d:15:23:3a:3d:03:03:fc:ea:e8:
         06:82:57:f3:39:b6:7e:0d:b6:4d:63:42:12:d9:dd:60:8c:0c:
         df:b9:2b:85:9d:5c:c7:fa:80:e3:47:fb:92:37:21:49:45:c2:
         ce:90:50:a1:7b:4b:84:30:b3:b9:84:53:33:ba:08:b7:16:e6:
         90:5b:62:77:3c:78:90:62:c4:98:35:d0:eb:4e:72:89:84:60:
         0e:1b:11:50:ae:e1:47:60:23:36:27:c6:eb:05:d9:48:2f:63:
         14:43:e6:0c:cc:ef:36:2c:35:fc:2a:56:b7:29:64:3c:8a:ec:
         f3:54:41:d1:27:39:83:db:0d:0a:ba:17:50:2c:4e:fa:6a:b2:
         b6:44:5b:1f:60:d4:f9:c9:b6:f3:1e:19:2d:f5:7c:2d:6a:bb:
         bc:bf:58:de:f5:e9:a8:14:ab:3d:ac:b3:e2:8d:6d:d0:46:7a:
         a5:f8:0c:e2:2d:76:d0:09:c4:74:94:46:ba:0e:09:fd:7b:4c:
         30:1e:2d:08:71:01:11:7b:67:54:64:d0:43:92:81:2c:28:dc:
         da:0a:f3:15:fe:79:3e:6f:f1:19:58:d5:4f:b5:5c:20:7c:14:
         fb:01:20:4b:53:7c:0f:7b:32:f0:06:bd:ee:3f:bc:58:28:ed:
         90:ea:45:c0:a7:d0:a7:a6:cf:1f:57:5a:e3:93:bc:68:50:e8:
         47:fa:44:41:52:b5:5d:2a:d9:97:47:36:f1:cb:28:90:37:90:
         d0:30:1f:04:93:fd:c4:37:c3:21:f0:8d:e1:cf:86:30:16:81:
         b3:12:1d:54:71:d9:1f:94:e5:33:a6:81:4c:9e:42:36:96:1a:
         6b:c7:21:ed:7c:22:dd:f8:2a:84:39:ad:b2:a2:74:db:a5:fe:
         bb:4f:b2:62:02:9e:db:7f:2a:32:19:54:86:a9:84:9c:c0:28:
         eb:65:9e:55:2d:52:f3:ca:9c:0f:e0:6a:4e:b0:52:e0:3d:d3:
         3c:1a:c8:7e:55:19:db:c9:9a:33:37:cb:1f:8d:4e:24:d1:d1:
         a1:e2:24:36:c5:76:b0:8e:66:62:07:5f:37:e6:93:5d:f2:c2:
         e2:24:0c:55:1b:20:dd:78:ed:34:d0:f2:db:b7:64:b1:24:69:
         38:9f:38:6c:b7:6b:23:2f:2c:16:27:77:d8:42:73:99:53:36:
         df:2f:25:6e:90:0e:ba:c8:3c:75:29:4d:7d:54:da:d9:fe:06:
         f8:6b:56:9e:74:c3:22:d9:21:28:40:48:56:d1:04:bd:b3:ce:
         51:89:a4:4f:e4:55:58:23:e1:72:ea:85:3f:8c:73:46:c6:a5:
         54:a5:48:3f:08:e5:32:22
-----BEGIN CERTIFICATE-----
MIIGrTCCBJWgAwIBAgICMpwwDQYJKoZIhvcNAQELBQAwgawxCzAJBgNVBAYTAlVT
MQswCQYDVQQIEwJPSDERMA8GA1UEBxMIQ29sdW1idXMxEjAQBgNVBAoTCVZpa2lu
Z1ZQTjEdMBsGA1UECxMUTXlPcmdhbml6YXRpb25hbFVuaXQxFTATBgNVBAMTDFZp
a2luZ1ZQTiBDQTEQMA4GA1UEKRMHRWFzeVJTQTEhMB8GCSqGSIb3DQEJARYSbWVA
bXlob3N0Lm15ZG9tYWluMB4XDTE4MDQxMDE1MTEwOFoXDTI4MDQwNzE1MTEwOFow
HzEdMBsGA1UEAxMUQ2xpZW50MTY0M0NlcnRkMzUxYjAwggIiMA0GCSqGSIb3DQEB
AQUAA4ICDwAwggIKAoICAQCpIRUdgGpmPn56kPym5J1wUByrXetVcZh9PXcMJWZL
iiZkNG73NPdimzn+JlgnhOGf5vkGuGZ2BtjKCHBN+TSNKJ1gJAV3H0+ZqE8frfJB
bR20VQr7B7+KUojarhTCQV4WXQ1gaNwOkBDYhC+XPtIiF+QEp3M4i6+n5NA9zZmc
4cjElzuCXkNIkAaRyQXi5D/egfs0NQK5aVzMMNnF+kyA6shJcPvPdNWDvrLP4xW4
jDclXp3f0TQtbdfYMmxi+tjnwpV9MacKjW7wI5O8m9dm/B83wfjfZSrjwWlY2yrS
bM9iSHRWXmcMMHYsYRfVjJ0RsD4U652Ow+ymNbkhV3v6wwePJAf4VWGTS0jc/4Uz
uPXWUGMGgRmg5/JaV4TOfsCH2OSXLtObivUsrvW0jfVa9/ooDFdTlE3ESHXAgAIm
GXIIImgu0iyYlKpNQn0of1mjKDQEvYx7HvYoDSawMrTWHbyctz5U/dpUy0zioy/T
o5UWZxYeVLe1qITD8s0ACKCsJ3Ma0O0ClFGT8CCdtvcmuh8fhYdrD4KGp0f+r3QN
yS/4L1Gw7Zsb7bOLCQo7Xx0rtHu7hDgKPtxaatF2UYf9Sw+MYyc9KZ0n2qTpUK2S
+mvJUaLdwDrK2649oQTTMo/AUnXxTtOW4gpz6QKDT7qO4uRCAJNvB+p3fRDn8ywt
dQIDAQABo4IBYzCCAV8wCQYDVR0TBAIwADAtBglghkgBhvhCAQ0EIBYeRWFzeS1S
U0EgR2VuZXJhdGVkIENlcnRpZmljYXRlMB0GA1UdDgQWBBT2h5wOSDtzTASyfTC+
ZbvA7P3N9jCB4QYDVR0jBIHZMIHWgBQSzWAE0qCAnnDtxpm4eyzGUv0ZoaGBsqSB
rzCBrDELMAkGA1UEBhMCVVMxCzAJBgNVBAgTAk9IMREwDwYDVQQHEwhDb2x1bWJ1
czESMBAGA1UEChMJVmlraW5nVlBOMR0wGwYDVQQLExRNeU9yZ2FuaXphdGlvbmFs
VW5pdDEVMBMGA1UEAxMMVmlraW5nVlBOIENBMRAwDgYDVQQpEwdFYXN5UlNBMSEw
HwYJKoZIhvcNAQkBFhJtZUBteWhvc3QubXlkb21haW6CCQDPNYXugL8qPjATBgNV
HSUEDDAKBggrBgEFBQcDAjALBgNVHQ8EBAMCB4AwDQYJKoZIhvcNAQELBQADggIB
ADAWEg8rQQWtnRUjOj0DA/zq6AaCV/M5tn4Ntk1jQhLZ3WCMDN+5K4WdXMf6gONH
+5I3IUlFws6QUKF7S4Qws7mEUzO6CLcW5pBbYnc8eJBixJg10OtOcomEYA4bEVCu
4UdgIzYnxusF2UgvYxRD5gzM7zYsNfwqVrcpZDyK7PNUQdEnOYPbDQq6F1AsTvpq
srZEWx9g1PnJtvMeGS31fC1qu7y/WN716agUqz2ss+KNbdBGeqX4DOItdtAJxHSU
RroOCf17TDAeLQhxARF7Z1Rk0EOSgSwo3NoK8xX+eT5v8RlY1U+1XCB8FPsBIEtT
fA97MvAGve4/vFgo7ZDqRcCn0Kemzx9XWuOTvGhQ6Ef6REFStV0q2ZdHNvHLKJA3
kNAwHwST/cQ3wyHwjeHPhjAWgbMSHVRx2R+U5TOmgUyeQjaWGmvHIe18It34KoQ5
rbKidNul/rtPsmICntt/KjIZVIaphJzAKOtlnlUtUvPKnA/gak6wUuA90zwayH5V
GdvJmjM3yx+NTiTR0aHiJDbFdrCOZmIHXzfmk13ywuIkDFUbIN147TTQ8tu3ZLEk
aTifOGy3ayMvLBYnd9hCc5lTNt8vJW6QDrrIPHUpTX1U2tn+BvhrVp50wyLZIShA
SFbRBL2zzlGJpE/kVVgj4XLqhT+Mc0bGpVSlSD8I5TIi
-----END CERTIFICATE-----
