Certificate:
    Data:
        Version: 3 (0x2)
        Serial Number: 13038 (0x32ee)
    Signature Algorithm: sha256WithRSAEncryption
        Issuer: C=US, ST=OH, L=Columbus, O=VikingVPN, OU=MyOrganizationalUnit, CN=VikingVPN CA/name=EasyRSA/emailAddress=me@myhost.mydomain
        Validity
            Not Before: Apr 27 06:28:08 2018 GMT
            Not After : Apr 24 06:28:08 2028 GMT
        Subject: CN=Client3287Cert9e63c9
        Subject Public Key Info:
            Public Key Algorithm: rsaEncryption
                Public-Key: (4096 bit)
                Modulus:
                    00:bd:05:08:54:9e:da:a4:5f:e8:b5:fe:08:4b:9d:
                    cf:21:90:31:1d:47:a8:4d:01:26:a0:02:bf:1a:28:
                    80:c2:a3:54:c0:4f:20:b1:95:04:88:14:ea:2e:b8:
                    6c:28:14:c4:6b:f6:15:6b:c8:3d:f1:40:6f:d5:83:
                    99:69:fd:18:5b:cf:1a:35:fe:89:de:51:ca:8f:d8:
                    ea:48:00:27:54:cd:4a:24:0d:76:86:ac:48:5d:f7:
                    eb:2b:5b:cd:a1:15:50:17:69:06:56:38:44:95:6f:
                    2d:ae:35:77:64:0f:31:70:80:c4:14:6c:a1:48:3a:
                    43:28:d1:bd:3a:be:62:d3:1a:81:9e:6a:eb:3a:89:
                    5a:12:ec:47:39:6b:b7:25:b4:12:aa:15:8a:2a:92:
                    7d:cc:6e:bb:4e:19:6a:59:e4:ad:24:64:e1:8c:64:
                    fd:66:c9:59:56:80:65:db:7d:93:50:d9:37:dc:04:
                    a9:73:e4:ba:2e:0d:80:81:c4:1d:93:74:fe:2c:94:
                    16:9a:12:9d:c3:e9:63:77:8c:97:c1:e4:4b:61:f4:
                    88:eb:21:82:f3:71:83:f4:94:cb:f0:44:d8:a5:c1:
                    16:f7:cf:1a:22:f9:4a:fa:25:33:31:26:e4:76:9c:
                    a6:6e:8f:fc:04:40:32:39:73:13:5d:c6:de:71:25:
                    18:98:e0:6c:64:a7:5a:cb:c4:93:95:7d:05:67:4f:
                    aa:c0:fc:f0:21:9c:1a:71:75:0c:f8:06:7d:27:a2:
                    52:e9:20:0d:c0:c0:d4:71:17:bd:54:36:de:67:a0:
                    3c:86:a2:19:61:ea:aa:c3:7f:b6:69:a4:27:b7:ed:
                    65:6f:3f:71:8c:9d:8c:9a:22:de:88:fe:83:ee:c0:
                    43:ab:af:26:f0:ec:ad:c4:86:77:9e:35:80:65:fa:
                    b2:ea:d9:79:de:25:e2:60:0f:a1:d9:4f:75:4c:1e:
                    79:f4:1f:df:cc:80:ec:18:0a:40:3f:50:7e:28:72:
                    72:73:be:72:be:1b:71:95:bc:bb:af:4e:a1:b9:9d:
                    56:7a:dd:80:b5:ce:6b:7b:a1:01:9a:62:6b:64:fa:
                    ff:35:be:80:7a:bb:3c:e7:18:34:72:3e:74:5c:e6:
                    23:da:07:ce:ea:a5:e4:04:80:85:fd:7a:d1:db:9d:
                    7f:2b:e3:e6:13:1d:1d:9b:72:95:1e:a9:5d:50:a3:
                    4a:df:27:2c:4c:4a:08:bc:67:ff:06:aa:a7:f7:77:
                    58:df:ee:24:fe:9c:db:34:7b:96:b4:a1:ff:4a:e5:
                    e3:c5:00:72:02:4c:19:c6:9c:8a:c1:47:ba:65:82:
                    6b:1d:50:5d:3d:18:d5:93:c1:c8:1c:4d:72:cf:1b:
                    06:48:eb
                Exponent: 65537 (0x10001)
        X509v3 extensions:
            X509v3 Basic Constraints: 
                CA:FALSE
            Netscape Comment: 
                Easy-RSA Generated Certificate
            X509v3 Subject Key Identifier: 
                08:29:22:AC:25:5A:2C:92:9A:FF:D9:B9:70:78:4A:98:E8:55:A3:56
            X509v3 Authority Key Identifier: 
                keyid:12:CD:60:04:D2:A0:80:9E:70:ED:C6:99:B8:7B:2C:C6:52:FD:19:A1
                DirName:/C=US/ST=OH/L=Columbus/O=VikingVPN/OU=MyOrganizationalUnit/CN=VikingVPN CA/name=EasyRSA/emailAddress=me@myhost.mydomain
                serial:CF:35:85:EE:80:BF:2A:3E

            X509v3 Extended Key Usage: 
                TLS Web Client Authentication
            X509v3 Key Usage: 
                Digital Signature
    Signature Algorithm: sha256WithRSAEncryption
         06:8b:f3:0d:87:8c:22:86:90:70:fc:43:45:27:d8:91:16:b8:
         ca:11:17:db:00:d1:1c:71:59:fa:d3:b9:41:19:6b:97:27:e1:
         a1:82:b5:c0:41:25:55:bf:ac:4c:b7:1d:11:8a:f0:a9:9e:f5:
         f6:68:64:26:94:59:8e:a8:82:e3:2b:b5:21:af:6d:c2:c2:7e:
         20:e6:50:30:91:a9:c9:20:42:84:66:4e:ef:c6:a3:cb:40:52:
         4f:54:3b:e7:ab:ef:42:06:5e:81:28:b4:0d:ee:a8:aa:95:60:
         17:b9:16:d3:59:b4:b2:be:b1:41:6e:a8:39:a7:a7:94:7b:4c:
         3d:b3:f6:28:6b:29:ee:25:a6:2c:e9:71:3b:99:78:dd:02:83:
         09:b5:d9:d2:fc:55:31:b7:8b:97:9c:e8:22:8b:ba:a1:24:af:
         9f:ff:93:07:e0:9e:de:c4:19:5c:b5:85:4a:d3:d9:86:52:35:
         64:a0:8e:d7:1c:8a:90:4c:85:fc:2f:2f:97:f3:0b:20:45:b3:
         a1:32:f5:47:5a:0f:cd:e9:33:7b:0d:a8:ee:9a:63:2e:e8:c1:
         f3:9f:e0:18:a1:d0:9d:23:f4:b3:a2:5f:db:1d:10:70:7a:1b:
         71:b8:93:eb:0f:a9:55:9d:24:45:3b:1b:da:0c:68:0b:c0:09:
         f8:79:aa:ae:36:fb:11:43:d2:23:bc:c1:27:1d:a3:2f:d4:de:
         e3:8f:8b:6e:c1:4f:d6:dc:3a:f6:42:01:74:50:15:0d:e1:11:
         a2:34:c4:2e:eb:02:7f:f8:a1:1c:52:2c:f0:02:81:92:ec:b6:
         29:ac:7b:6b:0f:ef:81:bc:d9:3d:aa:dd:8d:f0:12:b5:a6:cc:
         ff:46:1f:cb:bb:88:e8:8d:de:a6:4d:a8:55:2e:b1:05:7d:29:
         e5:c8:0e:b4:7b:ff:15:80:b2:05:ee:ba:3c:db:22:15:e3:80:
         0f:7d:d0:b3:40:23:4e:99:85:12:17:b5:7d:73:36:38:19:39:
         e3:ef:28:66:92:3a:ba:86:1d:58:73:3c:f0:ee:45:27:65:44:
         b9:85:c3:a3:bc:cd:32:21:f8:d9:50:67:ec:14:cf:4c:f1:9b:
         1b:b5:79:d8:26:a0:e3:da:23:1e:45:25:85:7b:7b:19:2c:a1:
         5b:1e:37:94:01:6e:d8:cb:20:b3:79:52:36:cc:eb:a5:b7:f1:
         52:44:66:09:76:48:60:78:69:5f:b1:03:af:cf:51:3d:14:32:
         d1:55:60:ff:e9:ea:5a:b1:88:5d:38:5e:28:16:a2:f0:91:33:
         a0:36:c9:c1:ac:f2:42:5a:40:15:ae:bc:22:cd:b1:8a:8d:a6:
         6b:ac:5d:a2:d1:ce:e9:b1
-----BEGIN CERTIFICATE-----
MIIGrTCCBJWgAwIBAgICMu4wDQYJKoZIhvcNAQELBQAwgawxCzAJBgNVBAYTAlVT
MQswCQYDVQQIEwJPSDERMA8GA1UEBxMIQ29sdW1idXMxEjAQBgNVBAoTCVZpa2lu
Z1ZQTjEdMBsGA1UECxMUTXlPcmdhbml6YXRpb25hbFVuaXQxFTATBgNVBAMTDFZp
a2luZ1ZQTiBDQTEQMA4GA1UEKRMHRWFzeVJTQTEhMB8GCSqGSIb3DQEJARYSbWVA
bXlob3N0Lm15ZG9tYWluMB4XDTE4MDQyNzA2MjgwOFoXDTI4MDQyNDA2MjgwOFow
HzEdMBsGA1UEAxMUQ2xpZW50MzI4N0NlcnQ5ZTYzYzkwggIiMA0GCSqGSIb3DQEB
AQUAA4ICDwAwggIKAoICAQC9BQhUntqkX+i1/ghLnc8hkDEdR6hNASagAr8aKIDC
o1TATyCxlQSIFOouuGwoFMRr9hVryD3xQG/Vg5lp/Rhbzxo1/oneUcqP2OpIACdU
zUokDXaGrEhd9+srW82hFVAXaQZWOESVby2uNXdkDzFwgMQUbKFIOkMo0b06vmLT
GoGeaus6iVoS7Ec5a7cltBKqFYoqkn3MbrtOGWpZ5K0kZOGMZP1myVlWgGXbfZNQ
2TfcBKlz5LouDYCBxB2TdP4slBaaEp3D6WN3jJfB5Eth9IjrIYLzcYP0lMvwRNil
wRb3zxoi+Ur6JTMxJuR2nKZuj/wEQDI5cxNdxt5xJRiY4Gxkp1rLxJOVfQVnT6rA
/PAhnBpxdQz4Bn0nolLpIA3AwNRxF71UNt5noDyGohlh6qrDf7ZppCe37WVvP3GM
nYyaIt6I/oPuwEOrrybw7K3EhneeNYBl+rLq2XneJeJgD6HZT3VMHnn0H9/MgOwY
CkA/UH4ocnJzvnK+G3GVvLuvTqG5nVZ63YC1zmt7oQGaYmtk+v81voB6uzznGDRy
PnRc5iPaB87qpeQEgIX9etHbnX8r4+YTHR2bcpUeqV1Qo0rfJyxMSgi8Z/8Gqqf3
d1jf7iT+nNs0e5a0of9K5ePFAHICTBnGnIrBR7plgmsdUF09GNWTwcgcTXLPGwZI
6wIDAQABo4IBYzCCAV8wCQYDVR0TBAIwADAtBglghkgBhvhCAQ0EIBYeRWFzeS1S
U0EgR2VuZXJhdGVkIENlcnRpZmljYXRlMB0GA1UdDgQWBBQIKSKsJVoskpr/2blw
eEqY6FWjVjCB4QYDVR0jBIHZMIHWgBQSzWAE0qCAnnDtxpm4eyzGUv0ZoaGBsqSB
rzCBrDELMAkGA1UEBhMCVVMxCzAJBgNVBAgTAk9IMREwDwYDVQQHEwhDb2x1bWJ1
czESMBAGA1UEChMJVmlraW5nVlBOMR0wGwYDVQQLExRNeU9yZ2FuaXphdGlvbmFs
VW5pdDEVMBMGA1UEAxMMVmlraW5nVlBOIENBMRAwDgYDVQQpEwdFYXN5UlNBMSEw
HwYJKoZIhvcNAQkBFhJtZUBteWhvc3QubXlkb21haW6CCQDPNYXugL8qPjATBgNV
HSUEDDAKBggrBgEFBQcDAjALBgNVHQ8EBAMCB4AwDQYJKoZIhvcNAQELBQADggIB
AAaL8w2HjCKGkHD8Q0Un2JEWuMoRF9sA0RxxWfrTuUEZa5cn4aGCtcBBJVW/rEy3
HRGK8Kme9fZoZCaUWY6oguMrtSGvbcLCfiDmUDCRqckgQoRmTu/Go8tAUk9UO+er
70IGXoEotA3uqKqVYBe5FtNZtLK+sUFuqDmnp5R7TD2z9ihrKe4lpizpcTuZeN0C
gwm12dL8VTG3i5ec6CKLuqEkr5//kwfgnt7EGVy1hUrT2YZSNWSgjtccipBMhfwv
L5fzCyBFs6Ey9UdaD83pM3sNqO6aYy7owfOf4Bih0J0j9LOiX9sdEHB6G3G4k+sP
qVWdJEU7G9oMaAvACfh5qq42+xFD0iO8wScdoy/U3uOPi27BT9bcOvZCAXRQFQ3h
EaI0xC7rAn/4oRxSLPACgZLstimse2sP74G82T2q3Y3wErWmzP9GH8u7iOiN3qZN
qFUusQV9KeXIDrR7/xWAsgXuujzbIhXjgA990LNAI06ZhRIXtX1zNjgZOePvKGaS
OrqGHVhzPPDuRSdlRLmFw6O8zTIh+NlQZ+wUz0zxmxu1edgmoOPaIx5FJYV7exks
oVseN5QBbtjLILN5UjbM66W38VJEZgl2SGB4aV+xA6/PUT0UMtFVYP/p6lqxiF04
XigWovCRM6A2ycGs8kJaQBWuvCLNsYqNpmusXaLRzumx
-----END CERTIFICATE-----
