Certificate:
    Data:
        Version: 3 (0x2)
        Serial Number: 13068 (0x330c)
    Signature Algorithm: sha256WithRSAEncryption
        Issuer: C=US, ST=OH, L=Columbus, O=VikingVPN, OU=MyOrganizationalUnit, CN=VikingVPN CA/name=EasyRSA/emailAddress=me@myhost.mydomain
        Validity
            Not Before: May  2 20:07:48 2018 GMT
            Not After : Apr 29 20:07:48 2028 GMT
        Subject: CN=Client2551Cert078c1f
        Subject Public Key Info:
            Public Key Algorithm: rsaEncryption
                Public-Key: (4096 bit)
                Modulus:
                    00:cc:0c:41:bd:1f:71:39:59:fb:ec:62:b7:b7:6e:
                    80:f3:18:96:11:ae:ff:33:ba:a4:7b:c0:7d:6d:9e:
                    27:70:24:35:c1:06:6c:c0:a3:4e:97:11:0d:c5:19:
                    70:93:3b:5b:2d:df:95:7e:73:97:9d:29:0c:89:80:
                    fe:af:6d:f6:45:f5:28:9b:8a:4b:33:a8:f0:37:de:
                    60:9b:ea:a4:61:08:84:e2:7c:08:dd:54:12:c0:ef:
                    b6:dd:d2:25:75:67:a6:31:1b:36:54:a1:11:cb:00:
                    b0:0b:69:58:69:eb:93:6a:84:dc:78:56:f3:eb:30:
                    cf:9c:1d:f2:f6:2b:05:6a:dc:a4:c5:a0:e1:39:eb:
                    89:13:a1:e2:84:9d:65:eb:72:af:cb:51:97:98:4b:
                    61:d0:5a:bc:0e:d7:ea:cc:66:43:0b:9e:7f:06:5e:
                    ef:86:25:3e:f6:ae:f3:63:39:a2:ab:8e:d5:68:24:
                    91:df:12:22:9a:4f:95:86:b3:25:90:5c:22:33:e4:
                    39:da:1c:50:db:13:c6:6c:3f:21:4d:48:e1:b5:23:
                    da:25:aa:26:98:da:49:09:eb:e6:e5:b4:5e:0a:35:
                    35:ee:65:a2:f9:ae:41:c2:42:4c:f3:e1:f6:63:3a:
                    e8:fe:42:4c:44:18:27:8c:31:fa:6d:1e:be:b8:5b:
                    5b:8e:91:67:bf:51:30:07:37:57:43:1f:20:1b:94:
                    47:4b:c3:2e:9a:dd:52:ff:2e:98:2a:60:a8:df:a1:
                    ee:56:ab:36:05:58:05:3e:48:46:ec:eb:43:3b:1d:
                    cc:1d:12:b3:d5:fd:65:4a:fc:0a:24:85:51:4b:a7:
                    0f:a4:4c:eb:de:4c:f8:0f:ab:c4:66:40:32:a4:6e:
                    85:c5:80:6e:f3:18:7f:2f:6c:1c:4a:16:75:27:bc:
                    06:fa:85:3d:f0:87:c5:0d:f3:da:6c:6c:29:9f:37:
                    38:99:0e:ff:40:84:36:1f:0e:eb:fd:e0:9a:ae:4b:
                    17:b8:01:bb:8c:7e:25:0e:79:f4:85:f4:6b:9c:da:
                    12:12:f1:98:33:85:ae:8a:63:a3:c8:42:60:f6:da:
                    e3:91:c7:ee:a3:46:94:03:10:c8:71:f1:15:91:1c:
                    e4:02:ab:b8:95:7e:c8:12:5a:16:6d:c4:3a:10:ec:
                    03:4a:51:b2:db:ab:45:27:12:82:11:1a:9d:3b:11:
                    18:94:0e:36:27:0e:37:88:64:aa:b0:1f:aa:95:8e:
                    c5:b6:ce:af:4b:53:50:3f:e3:4e:8a:27:0f:d5:5a:
                    b1:25:66:ed:02:81:00:be:bc:20:d9:0d:be:96:90:
                    59:5a:f9:8a:6c:80:f1:c4:d1:aa:fa:a2:0d:ab:1f:
                    6c:b5:47
                Exponent: 65537 (0x10001)
        X509v3 extensions:
            X509v3 Basic Constraints: 
                CA:FALSE
            Netscape Comment: 
                Easy-RSA Generated Certificate
            X509v3 Subject Key Identifier: 
                0C:10:AC:5B:A5:B2:CA:11:FD:4E:32:A0:D8:D0:27:F1:F0:CF:A6:0D
            X509v3 Authority Key Identifier: 
                keyid:12:CD:60:04:D2:A0:80:9E:70:ED:C6:99:B8:7B:2C:C6:52:FD:19:A1
                DirName:/C=US/ST=OH/L=Columbus/O=VikingVPN/OU=MyOrganizationalUnit/CN=VikingVPN CA/name=EasyRSA/emailAddress=me@myhost.mydomain
                serial:CF:35:85:EE:80:BF:2A:3E

            X509v3 Extended Key Usage: 
                TLS Web Client Authentication
            X509v3 Key Usage: 
                Digital Signature
    Signature Algorithm: sha256WithRSAEncryption
         46:c4:e3:14:da:90:23:dc:4c:df:3c:bc:ff:1b:95:8f:9a:42:
         69:3a:7f:f1:f4:a0:f4:48:14:7e:c2:0b:7b:c7:8b:8d:7c:b2:
         2c:88:e2:21:6b:aa:53:df:69:6e:39:6c:99:08:88:ee:d7:de:
         95:71:a9:e9:94:67:b4:ef:9c:51:2d:15:3c:95:93:7d:61:31:
         3a:5c:cf:6c:0b:6e:4f:48:c1:85:4f:4d:7a:87:8c:dd:a0:8c:
         75:98:fd:1c:08:11:c7:69:b2:3d:5a:60:6d:98:be:a6:5e:05:
         96:61:88:af:50:6c:09:07:e6:5b:da:42:6f:c1:9a:3b:8d:fb:
         cf:9a:b5:04:28:41:3f:36:c9:98:4f:84:a3:70:ea:25:d9:c1:
         96:64:f2:15:8b:60:3c:eb:a3:3d:de:c5:11:72:7f:79:28:2b:
         39:3e:7f:89:7a:34:42:9d:5f:09:9b:78:97:1e:fb:5a:30:10:
         f8:c0:92:bb:54:3f:af:38:07:1a:07:1e:ce:94:d3:1a:3b:d1:
         8a:22:60:cb:cd:b2:00:a1:5a:92:0f:0f:70:0f:5b:0e:ef:86:
         56:0a:02:11:f1:b3:dd:2e:1b:86:2e:c6:2a:30:68:75:25:08:
         01:04:64:3f:de:94:c2:18:96:bd:22:7b:0b:db:73:69:66:68:
         bc:f6:fd:78:62:c5:f4:da:b1:69:60:7e:b8:a4:3c:d0:ff:ea:
         26:07:59:c3:4e:ca:fa:81:95:b5:b4:f3:e8:06:ab:7e:5c:d6:
         12:75:62:90:40:80:81:0a:f7:14:d7:7a:d0:a3:a9:5d:d0:c0:
         62:5a:a8:68:99:5f:b6:46:37:71:bb:a7:b2:4a:dd:2e:f9:f4:
         60:e5:ae:c7:52:5e:9d:59:7b:ac:b6:b2:c1:72:0b:a5:af:ba:
         40:f4:5b:77:03:aa:34:aa:11:c0:90:91:0b:b5:8d:76:19:fb:
         14:4a:16:bc:16:ae:74:d5:b2:b2:cc:b9:14:bb:12:99:e8:a6:
         3a:ba:3e:c6:3f:83:1d:e5:c8:57:16:26:fc:a7:71:f3:bb:98:
         64:87:ff:dd:cf:e7:3e:6c:04:45:34:d6:32:95:d0:39:fa:f1:
         8e:b0:4d:02:fa:3d:9f:78:be:ce:db:46:ba:9c:86:3d:55:17:
         c6:99:ce:2d:2e:1b:69:67:c6:a0:b6:88:b3:43:3d:56:ee:37:
         04:e6:93:c5:07:16:4d:82:23:72:3a:eb:2f:1e:4d:58:37:86:
         a5:3e:e1:0d:41:40:b8:68:b8:6e:e3:f3:78:e5:1d:03:79:40:
         ba:8c:9b:87:bf:7d:24:6a:30:e2:89:1a:03:9e:b0:b2:6b:96:
         1c:ea:fc:26:83:9e:b4:d8
-----BEGIN CERTIFICATE-----
MIIGrTCCBJWgAwIBAgICMwwwDQYJKoZIhvcNAQELBQAwgawxCzAJBgNVBAYTAlVT
MQswCQYDVQQIEwJPSDERMA8GA1UEBxMIQ29sdW1idXMxEjAQBgNVBAoTCVZpa2lu
Z1ZQTjEdMBsGA1UECxMUTXlPcmdhbml6YXRpb25hbFVuaXQxFTATBgNVBAMTDFZp
a2luZ1ZQTiBDQTEQMA4GA1UEKRMHRWFzeVJTQTEhMB8GCSqGSIb3DQEJARYSbWVA
bXlob3N0Lm15ZG9tYWluMB4XDTE4MDUwMjIwMDc0OFoXDTI4MDQyOTIwMDc0OFow
HzEdMBsGA1UEAxMUQ2xpZW50MjU1MUNlcnQwNzhjMWYwggIiMA0GCSqGSIb3DQEB
AQUAA4ICDwAwggIKAoICAQDMDEG9H3E5WfvsYre3boDzGJYRrv8zuqR7wH1tnidw
JDXBBmzAo06XEQ3FGXCTO1st35V+c5edKQyJgP6vbfZF9SibikszqPA33mCb6qRh
CITifAjdVBLA77bd0iV1Z6YxGzZUoRHLALALaVhp65NqhNx4VvPrMM+cHfL2KwVq
3KTFoOE564kToeKEnWXrcq/LUZeYS2HQWrwO1+rMZkMLnn8GXu+GJT72rvNjOaKr
jtVoJJHfEiKaT5WGsyWQXCIz5DnaHFDbE8ZsPyFNSOG1I9olqiaY2kkJ6+bltF4K
NTXuZaL5rkHCQkzz4fZjOuj+QkxEGCeMMfptHr64W1uOkWe/UTAHN1dDHyAblEdL
wy6a3VL/LpgqYKjfoe5WqzYFWAU+SEbs60M7HcwdErPV/WVK/AokhVFLpw+kTOve
TPgPq8RmQDKkboXFgG7zGH8vbBxKFnUnvAb6hT3wh8UN89psbCmfNziZDv9AhDYf
Duv94JquSxe4AbuMfiUOefSF9Guc2hIS8Zgzha6KY6PIQmD22uORx+6jRpQDEMhx
8RWRHOQCq7iVfsgSWhZtxDoQ7ANKUbLbq0UnEoIRGp07ERiUDjYnDjeIZKqwH6qV
jsW2zq9LU1A/406KJw/VWrElZu0CgQC+vCDZDb6WkFla+YpsgPHE0ar6og2rH2y1
RwIDAQABo4IBYzCCAV8wCQYDVR0TBAIwADAtBglghkgBhvhCAQ0EIBYeRWFzeS1S
U0EgR2VuZXJhdGVkIENlcnRpZmljYXRlMB0GA1UdDgQWBBQMEKxbpbLKEf1OMqDY
0Cfx8M+mDTCB4QYDVR0jBIHZMIHWgBQSzWAE0qCAnnDtxpm4eyzGUv0ZoaGBsqSB
rzCBrDELMAkGA1UEBhMCVVMxCzAJBgNVBAgTAk9IMREwDwYDVQQHEwhDb2x1bWJ1
czESMBAGA1UEChMJVmlraW5nVlBOMR0wGwYDVQQLExRNeU9yZ2FuaXphdGlvbmFs
VW5pdDEVMBMGA1UEAxMMVmlraW5nVlBOIENBMRAwDgYDVQQpEwdFYXN5UlNBMSEw
HwYJKoZIhvcNAQkBFhJtZUBteWhvc3QubXlkb21haW6CCQDPNYXugL8qPjATBgNV
HSUEDDAKBggrBgEFBQcDAjALBgNVHQ8EBAMCB4AwDQYJKoZIhvcNAQELBQADggIB
AEbE4xTakCPcTN88vP8blY+aQmk6f/H0oPRIFH7CC3vHi418siyI4iFrqlPfaW45
bJkIiO7X3pVxqemUZ7TvnFEtFTyVk31hMTpcz2wLbk9IwYVPTXqHjN2gjHWY/RwI
Ecdpsj1aYG2YvqZeBZZhiK9QbAkH5lvaQm/BmjuN+8+atQQoQT82yZhPhKNw6iXZ
wZZk8hWLYDzroz3exRFyf3koKzk+f4l6NEKdXwmbeJce+1owEPjAkrtUP684BxoH
Hs6U0xo70YoiYMvNsgChWpIPD3APWw7vhlYKAhHxs90uG4YuxiowaHUlCAEEZD/e
lMIYlr0iewvbc2lmaLz2/XhixfTasWlgfrikPND/6iYHWcNOyvqBlbW08+gGq35c
1hJ1YpBAgIEK9xTXetCjqV3QwGJaqGiZX7ZGN3G7p7JK3S759GDlrsdSXp1Ze6y2
ssFyC6WvukD0W3cDqjSqEcCQkQu1jXYZ+xRKFrwWrnTVsrLMuRS7Epnopjq6PsY/
gx3lyFcWJvyncfO7mGSH/93P5z5sBEU01jKV0Dn68Y6wTQL6PZ94vs7bRrqchj1V
F8aZzi0uG2lnxqC2iLNDPVbuNwTmk8UHFk2CI3I66y8eTVg3hqU+4Q1BQLhouG7j
83jlHQN5QLqMm4e/fSRqMOKJGgOesLJrlhzq/CaDnrTY
-----END CERTIFICATE-----
