Certificate:
    Data:
        Version: 3 (0x2)
        Serial Number: 53 (0x35)
    Signature Algorithm: md5WithRSAEncryption
        Issuer: C=US, ST=OH, L=Columbus, O=VikingVPN, OU=MyOrganizationalUnit, CN=VikingVPN CA/name=EasyRSA/emailAddress=me@myhost.mydomain
        Validity
            Not Before: Aug  8 10:57:27 2013 GMT
            Not After : Aug  6 10:57:27 2023 GMT
        Subject: CN=Client40Cert174b3f
        Subject Public Key Info:
            Public Key Algorithm: rsaEncryption
                Public-Key: (4096 bit)
                Modulus:
                    00:db:c0:e5:96:6d:57:22:92:36:a7:8e:99:af:13:
                    6c:f1:18:92:3b:0a:2b:cd:85:8e:1e:71:23:33:02:
                    f0:c1:39:6a:ea:6a:d3:ef:21:9d:5c:46:14:83:77:
                    b4:7c:35:27:00:fe:78:76:9f:c2:42:fa:e4:2f:86:
                    fe:68:49:a5:95:4e:56:d5:47:a6:bc:cb:43:5e:62:
                    71:15:23:36:76:ac:28:22:7b:bd:0a:ea:e0:a8:a2:
                    2b:e5:dc:28:03:d3:79:f3:70:7f:5e:77:0a:95:0d:
                    b4:b8:d8:f2:ce:c2:ec:bc:a2:dd:3d:d8:b5:8d:a0:
                    11:45:af:86:30:8d:7a:0e:28:d2:18:4a:e1:54:61:
                    ed:99:4f:5b:c4:5f:50:71:16:df:0e:5b:20:60:05:
                    d9:7a:fd:46:26:0e:ee:07:79:d2:26:cd:fa:87:cf:
                    7b:1e:8b:3a:b5:29:84:99:72:e1:38:26:67:fc:dc:
                    c3:3e:73:c7:af:0c:b6:3f:f9:3b:3d:42:35:1e:37:
                    07:6d:cb:02:37:81:2a:b2:b0:63:ed:91:dd:00:b8:
                    23:2d:73:3a:6c:d2:d7:18:8c:4d:4c:78:2a:88:b9:
                    ed:23:95:2a:c2:fd:1b:0d:42:4c:16:72:a7:ce:59:
                    2f:ea:9c:ff:b1:63:8f:b3:0f:4d:ea:96:1f:4d:de:
                    1e:90:6c:a1:5a:1a:5a:83:21:d5:d1:76:e1:df:4a:
                    5a:47:80:3d:95:55:b9:76:5f:9c:5a:e3:0c:57:7f:
                    85:e3:78:7e:b5:0f:01:bb:f2:32:dd:d3:74:69:f8:
                    55:98:fc:f2:25:11:c7:08:4f:f7:9c:2c:1a:9c:de:
                    c4:53:af:df:21:1a:ad:0a:16:46:d5:50:b9:7c:11:
                    4a:78:53:d7:ff:97:c4:9a:21:d9:6d:d5:3d:50:54:
                    4e:fe:9f:9e:cc:42:40:ef:b0:24:2d:d0:10:fb:e1:
                    e7:80:9b:a2:36:0c:45:33:f2:25:72:ec:21:c5:f9:
                    9f:63:a0:94:69:12:71:c1:21:33:4a:0e:d4:29:ef:
                    ef:8d:99:0c:04:1f:fc:dd:2e:3c:92:1c:0e:63:cc:
                    20:fe:d0:20:dc:ce:67:19:45:39:51:63:74:6a:29:
                    3a:1b:89:f0:2f:59:ed:31:11:85:ff:7e:d3:da:23:
                    59:6c:30:d0:e6:94:2d:d9:87:1b:d8:40:f7:22:ce:
                    5c:89:be:3c:80:aa:8d:c2:8f:a2:2b:3c:71:ad:6b:
                    05:21:81:7a:e7:7e:db:88:43:dc:f4:17:c4:eb:8e:
                    ce:75:2a:c6:e6:3d:27:7b:28:c0:87:54:15:16:8d:
                    a7:ae:e0:f0:ac:7d:a0:d1:51:ad:af:85:49:e7:49:
                    b7:39:15
                Exponent: 65537 (0x10001)
        X509v3 extensions:
            X509v3 Basic Constraints: 
                CA:FALSE
            Netscape Comment: 
                Easy-RSA Generated Certificate
            X509v3 Subject Key Identifier: 
                9C:51:24:CC:B5:C8:C8:B9:EB:65:AC:08:C5:4A:B0:89:D0:91:C9:81
            X509v3 Authority Key Identifier: 
                keyid:12:CD:60:04:D2:A0:80:9E:70:ED:C6:99:B8:7B:2C:C6:52:FD:19:A1
                DirName:/C=US/ST=OH/L=Columbus/O=VikingVPN/OU=MyOrganizationalUnit/CN=VikingVPN CA/name=EasyRSA/emailAddress=me@myhost.mydomain
                serial:CF:35:85:EE:80:BF:2A:3E

            X509v3 Extended Key Usage: 
                TLS Web Client Authentication
            X509v3 Key Usage: 
                Digital Signature
    Signature Algorithm: md5WithRSAEncryption
         70:64:87:da:bb:0c:bd:da:ba:cc:3c:f6:2b:57:d7:6a:a6:1f:
         36:d6:f0:0b:27:4a:ef:67:04:0c:9d:a0:24:1a:fb:29:79:3e:
         f9:d2:70:b3:d2:6a:18:8e:d5:11:67:e1:08:0e:c4:5c:04:49:
         6c:41:f6:a5:2a:74:eb:02:c6:ee:a5:4c:09:e3:ec:62:dc:45:
         b4:80:01:d9:16:c4:28:bb:30:ca:26:72:80:93:a7:f1:2c:19:
         0c:7c:e1:2e:e2:80:e7:e5:0b:b4:4d:32:f9:f9:d3:04:69:b5:
         ad:db:c6:cf:76:31:80:c0:1b:06:e5:e2:57:1e:b2:6b:19:01:
         33:4e:61:df:3e:67:ef:a5:d1:e1:0b:df:70:31:d9:47:d8:7f:
         b9:6c:df:63:5e:8c:d8:52:f5:22:99:ea:dd:5c:ba:4e:8c:03:
         24:b1:03:56:54:de:88:26:3b:c9:51:23:a2:ec:fd:c2:12:04:
         d2:90:c9:80:62:63:2b:4e:79:7d:9c:a6:45:c6:a7:7b:c5:87:
         85:53:09:7c:dc:2e:f9:a4:51:6e:fc:4a:77:98:ef:71:68:88:
         5f:79:ff:c5:6c:bc:91:7c:0f:b3:47:15:66:b5:a5:78:6f:ee:
         8d:cd:a1:ad:6f:1b:ee:68:71:cd:2d:cb:4c:b8:1b:ba:58:7b:
         d6:ce:fd:30:d0:30:23:6d:37:71:e0:b8:17:36:98:42:34:55:
         b5:19:2a:1b:3b:a4:6f:54:42:7f:71:97:94:85:c0:dc:a2:51:
         36:b4:d5:df:63:0d:94:95:34:c7:02:c1:14:82:1e:1d:25:43:
         1a:36:d0:2d:e7:08:5b:76:f4:c4:22:2c:3e:fb:dd:24:fc:2b:
         0e:54:2c:16:6e:af:8a:46:2f:cd:7e:25:51:31:d2:93:18:1c:
         1f:2c:87:04:73:c8:c1:b5:53:a7:74:75:3e:36:9d:b0:64:81:
         7c:a6:c2:7a:fd:a2:d5:28:8a:17:02:38:fc:07:5d:a8:86:69:
         5c:b8:6f:58:d2:cd:cf:61:76:69:ec:85:9d:0f:53:cf:74:62:
         69:52:b5:9f:50:5d:d1:8f:3c:8d:a9:da:b2:e9:0e:7c:2e:6a:
         f5:61:e7:d3:55:7c:eb:17:7a:6a:cd:ec:ac:5c:e8:a3:11:68:
         b8:27:69:d5:3c:59:0e:a2:21:d9:c3:f7:8f:06:75:d3:a7:b4:
         bf:a7:f8:2e:51:e2:8f:73:2f:bf:d3:5a:71:cb:f4:44:52:0b:
         6e:7b:f6:c5:8e:4c:dc:f9:de:f8:87:85:8b:1d:0a:88:c5:97:
         fd:9e:e6:6f:f8:6d:56:ca:da:a1:c4:2a:14:43:94:9e:58:eb:
         d8:d0:43:62:96:61:72:be
-----BEGIN CERTIFICATE-----
MIIGqjCCBJKgAwIBAgIBNTANBgkqhkiG9w0BAQQFADCBrDELMAkGA1UEBhMCVVMx
CzAJBgNVBAgTAk9IMREwDwYDVQQHEwhDb2x1bWJ1czESMBAGA1UEChMJVmlraW5n
VlBOMR0wGwYDVQQLExRNeU9yZ2FuaXphdGlvbmFsVW5pdDEVMBMGA1UEAxMMVmlr
aW5nVlBOIENBMRAwDgYDVQQpEwdFYXN5UlNBMSEwHwYJKoZIhvcNAQkBFhJtZUBt
eWhvc3QubXlkb21haW4wHhcNMTMwODA4MTA1NzI3WhcNMjMwODA2MTA1NzI3WjAd
MRswGQYDVQQDExJDbGllbnQ0MENlcnQxNzRiM2YwggIiMA0GCSqGSIb3DQEBAQUA
A4ICDwAwggIKAoICAQDbwOWWbVcikjanjpmvE2zxGJI7CivNhY4ecSMzAvDBOWrq
atPvIZ1cRhSDd7R8NScA/nh2n8JC+uQvhv5oSaWVTlbVR6a8y0NeYnEVIzZ2rCgi
e70K6uCooivl3CgD03nzcH9edwqVDbS42PLOwuy8ot092LWNoBFFr4YwjXoOKNIY
SuFUYe2ZT1vEX1BxFt8OWyBgBdl6/UYmDu4HedImzfqHz3seizq1KYSZcuE4Jmf8
3MM+c8evDLY/+Ts9QjUeNwdtywI3gSqysGPtkd0AuCMtczps0tcYjE1MeCqIue0j
lSrC/RsNQkwWcqfOWS/qnP+xY4+zD03qlh9N3h6QbKFaGlqDIdXRduHfSlpHgD2V
Vbl2X5xa4wxXf4XjeH61DwG78jLd03Rp+FWY/PIlEccIT/ecLBqc3sRTr98hGq0K
FkbVULl8EUp4U9f/l8SaIdlt1T1QVE7+n57MQkDvsCQt0BD74eeAm6I2DEUz8iVy
7CHF+Z9joJRpEnHBITNKDtQp7++NmQwEH/zdLjySHA5jzCD+0CDczmcZRTlRY3Rq
KTobifAvWe0xEYX/ftPaI1lsMNDmlC3ZhxvYQPcizlyJvjyAqo3Cj6IrPHGtawUh
gXrnftuIQ9z0F8Trjs51KsbmPSd7KMCHVBUWjaeu4PCsfaDRUa2vhUnnSbc5FQID
AQABo4IBYzCCAV8wCQYDVR0TBAIwADAtBglghkgBhvhCAQ0EIBYeRWFzeS1SU0Eg
R2VuZXJhdGVkIENlcnRpZmljYXRlMB0GA1UdDgQWBBScUSTMtcjIuetlrAjFSrCJ
0JHJgTCB4QYDVR0jBIHZMIHWgBQSzWAE0qCAnnDtxpm4eyzGUv0ZoaGBsqSBrzCB
rDELMAkGA1UEBhMCVVMxCzAJBgNVBAgTAk9IMREwDwYDVQQHEwhDb2x1bWJ1czES
MBAGA1UEChMJVmlraW5nVlBOMR0wGwYDVQQLExRNeU9yZ2FuaXphdGlvbmFsVW5p
dDEVMBMGA1UEAxMMVmlraW5nVlBOIENBMRAwDgYDVQQpEwdFYXN5UlNBMSEwHwYJ
KoZIhvcNAQkBFhJtZUBteWhvc3QubXlkb21haW6CCQDPNYXugL8qPjATBgNVHSUE
DDAKBggrBgEFBQcDAjALBgNVHQ8EBAMCB4AwDQYJKoZIhvcNAQEEBQADggIBAHBk
h9q7DL3ausw89itX12qmHzbW8AsnSu9nBAydoCQa+yl5PvnScLPSahiO1RFn4QgO
xFwESWxB9qUqdOsCxu6lTAnj7GLcRbSAAdkWxCi7MMomcoCTp/EsGQx84S7igOfl
C7RNMvn50wRpta3bxs92MYDAGwbl4lcesmsZATNOYd8+Z++l0eEL33Ax2UfYf7ls
32NejNhS9SKZ6t1cuk6MAySxA1ZU3ogmO8lRI6Ls/cISBNKQyYBiYytOeX2cpkXG
p3vFh4VTCXzcLvmkUW78SneY73FoiF95/8VsvJF8D7NHFWa1pXhv7o3Noa1vG+5o
cc0ty0y4G7pYe9bO/TDQMCNtN3HguBc2mEI0VbUZKhs7pG9UQn9xl5SFwNyiUTa0
1d9jDZSVNMcCwRSCHh0lQxo20C3nCFt29MQiLD773ST8Kw5ULBZur4pGL81+JVEx
0pMYHB8shwRzyMG1U6d0dT42nbBkgXymwnr9otUoihcCOPwHXaiGaVy4b1jSzc9h
dmnshZ0PU890YmlStZ9QXdGPPI2p2rLpDnwuavVh59NVfOsXemrN7Kxc6KMRaLgn
adU8WQ6iIdnD948GddOntL+n+C5R4o9zL7/TWnHL9ERSC2579sWOTNz53viHhYsd
CojFl/2e5m/4bVbK2qHEKhRDlJ5Y69jQQ2KWYXK+
-----END CERTIFICATE-----
