Certificate:
    Data:
        Version: 3 (0x2)
        Serial Number: 60 (0x3c)
    Signature Algorithm: md5WithRSAEncryption
        Issuer: C=US, ST=OH, L=Columbus, O=VikingVPN, OU=MyOrganizationalUnit, CN=VikingVPN CA/name=EasyRSA/emailAddress=me@myhost.mydomain
        Validity
            Not Before: Aug 10 00:10:05 2013 GMT
            Not After : Aug  8 00:10:05 2023 GMT
        Subject: CN=Client20Certf2fb7a
        Subject Public Key Info:
            Public Key Algorithm: rsaEncryption
                Public-Key: (4096 bit)
                Modulus:
                    00:fb:9d:bc:6b:00:57:18:a6:c2:a4:97:ae:6e:85:
                    43:2f:93:fc:ba:51:04:1b:fa:63:aa:c5:1a:ba:b9:
                    21:12:9a:b9:7f:d3:a9:6a:02:03:e8:4d:9e:82:1a:
                    58:a9:06:ea:f2:b2:f3:ee:7b:88:65:01:bb:ab:2a:
                    89:0e:54:86:0b:b0:0d:08:0e:35:36:b2:b5:a7:42:
                    60:1f:de:16:de:58:96:9a:23:54:6a:9e:e0:4e:96:
                    58:20:4b:cb:31:c8:7c:79:c1:5a:07:ac:9e:58:14:
                    d0:32:67:6f:be:07:60:16:09:70:a5:58:d4:5c:a3:
                    0c:84:19:3c:72:06:b6:aa:66:49:ee:af:8b:eb:d8:
                    5f:7e:8a:00:80:69:5f:95:43:e0:48:b2:a5:70:6d:
                    ff:15:dd:ec:9c:b3:56:93:f5:8f:56:09:dc:06:89:
                    46:9c:2c:54:7c:0a:7c:c5:51:96:83:a4:04:35:cc:
                    0c:f7:fc:d3:04:97:5d:9f:22:65:cc:21:c9:36:2a:
                    2e:6f:98:8d:54:94:11:f0:46:59:44:7a:3d:7c:b1:
                    d3:27:ea:e3:d3:05:bc:88:26:c7:7a:6c:ce:4d:bb:
                    82:0f:cf:79:1d:15:2e:cd:42:36:6d:7e:fc:2b:c6:
                    97:b4:b3:e9:7d:bb:bf:a2:c1:6e:db:82:8a:b9:7f:
                    31:7a:b0:09:69:9a:63:f5:86:21:c1:80:6b:5d:40:
                    16:1d:07:db:8a:13:48:b0:8b:d6:f0:ef:46:7e:31:
                    78:97:60:0d:94:d3:d3:44:ee:69:10:cb:ef:94:6e:
                    72:03:d3:18:d1:e4:4c:24:da:87:4e:b9:1f:73:9e:
                    de:60:4c:5a:c9:2a:a7:16:c6:20:a8:7b:e4:53:9b:
                    a3:7d:ce:0f:22:97:d2:4e:21:be:32:1c:61:6e:7f:
                    a6:51:ef:ee:10:9f:87:6b:0c:ed:95:7d:df:a6:a3:
                    e2:34:45:6f:c0:25:4b:4e:5b:e4:6b:26:d8:98:39:
                    64:8d:7f:00:8a:b4:11:e7:1a:09:2b:6b:ce:77:57:
                    90:84:b4:48:27:80:b8:5e:b4:10:9f:68:83:7d:95:
                    a0:3a:2c:0b:a0:6f:11:41:65:4d:b3:2e:b5:71:a6:
                    77:70:47:11:ab:c4:e7:6d:35:77:5e:d3:cc:19:3e:
                    7e:97:f2:e4:35:23:d1:3b:a5:42:bd:80:67:5e:b3:
                    f0:ce:7c:19:85:32:3e:e6:6c:32:20:ad:81:cd:24:
                    49:7c:24:f9:64:13:25:97:11:ee:d7:1d:49:7d:1c:
                    b8:e2:04:59:f0:a2:9f:be:78:56:6e:6d:76:1d:fb:
                    dd:20:8c:4e:4e:52:07:92:3b:06:f5:6d:5e:24:2e:
                    b4:17:3f
                Exponent: 65537 (0x10001)
        X509v3 extensions:
            X509v3 Basic Constraints: 
                CA:FALSE
            Netscape Comment: 
                Easy-RSA Generated Certificate
            X509v3 Subject Key Identifier: 
                C0:B0:2F:06:4F:02:2F:62:19:74:B2:0A:07:DB:EF:1A:44:B2:40:29
            X509v3 Authority Key Identifier: 
                keyid:12:CD:60:04:D2:A0:80:9E:70:ED:C6:99:B8:7B:2C:C6:52:FD:19:A1
                DirName:/C=US/ST=OH/L=Columbus/O=VikingVPN/OU=MyOrganizationalUnit/CN=VikingVPN CA/name=EasyRSA/emailAddress=me@myhost.mydomain
                serial:CF:35:85:EE:80:BF:2A:3E

            X509v3 Extended Key Usage: 
                TLS Web Client Authentication
            X509v3 Key Usage: 
                Digital Signature
    Signature Algorithm: md5WithRSAEncryption
         5d:2b:45:d0:e4:8f:38:d4:46:21:0d:9c:9c:dc:58:f4:42:12:
         db:d6:81:6a:95:8b:0f:ba:df:70:ce:4c:49:00:21:5a:28:ea:
         71:a0:72:b0:16:72:7a:7f:80:e9:84:af:c7:65:b2:a4:4b:cb:
         1e:50:53:78:b1:94:57:b0:bb:de:c4:09:a3:27:eb:17:56:95:
         19:0f:a6:a3:ed:6e:22:c2:39:f0:44:36:8c:8d:db:91:6f:a6:
         b2:7b:a1:a5:69:59:73:76:92:73:75:7f:5e:12:96:82:2a:f9:
         6b:36:08:bb:38:35:10:06:f1:78:2b:60:f3:82:6c:99:5a:fd:
         a7:50:1e:13:7d:60:07:fa:63:c5:f7:0a:bc:2a:8d:e3:59:11:
         d5:01:f1:4c:c5:cc:95:f0:ce:9a:c0:20:48:b2:c4:c9:ca:06:
         1d:4d:d8:17:8a:5c:4c:4b:3d:4d:1c:5d:8a:03:97:49:9a:a3:
         f4:23:08:95:66:10:45:35:9c:d5:5d:5a:01:7d:c2:a6:9b:7e:
         3b:4a:66:d0:ce:36:80:95:6d:58:43:52:7d:7d:db:c2:b6:27:
         19:b6:b4:39:a0:a9:62:df:37:c8:5d:c9:f4:d9:4f:8d:2e:d4:
         de:30:83:4d:b5:72:a6:f7:b2:b4:8e:d2:1f:d1:73:99:68:2e:
         bf:8c:7b:89:9a:f6:ec:f6:88:5b:10:79:16:1a:4f:42:11:3c:
         57:05:a8:e0:0d:97:51:1c:16:8b:b1:cf:a6:2b:b4:37:0b:9e:
         3d:2f:83:1b:ba:42:b4:58:b6:c7:68:73:f3:c9:56:9e:e9:f8:
         80:b0:15:41:c7:75:d5:92:ca:f3:48:69:1f:00:9e:ed:d4:eb:
         f7:8a:80:f3:e5:82:63:63:16:14:af:15:4a:3b:3f:9d:ed:49:
         d2:2e:7d:90:4e:62:3e:40:a7:93:b8:05:00:8c:1c:c4:0f:0a:
         66:ad:d0:08:6a:d1:95:d4:71:27:5e:75:84:cc:16:1b:5d:ce:
         7c:c4:97:79:39:be:bf:4c:52:76:c2:fc:9b:b5:80:4c:c1:b7:
         20:4a:59:4d:84:4c:38:dc:ba:11:3e:5e:c2:c3:1e:d7:d8:3c:
         d9:7b:73:a2:5a:17:8d:96:d5:bc:75:1c:b1:37:bb:15:5d:61:
         42:d5:ef:16:e1:0f:cd:b4:b9:0f:14:b9:d3:39:96:5d:0c:66:
         24:c3:3c:16:2a:9f:41:fd:21:24:ce:3f:48:d0:19:83:b2:d9:
         85:2e:bc:3a:37:5f:8b:ad:6b:c2:dd:e7:08:82:c7:f2:49:bd:
         2a:e5:57:2f:7f:18:7a:2c:7f:95:ee:30:bd:83:9a:31:4e:df:
         48:35:89:ba:f0:1d:a2:df
-----BEGIN CERTIFICATE-----
MIIGqjCCBJKgAwIBAgIBPDANBgkqhkiG9w0BAQQFADCBrDELMAkGA1UEBhMCVVMx
CzAJBgNVBAgTAk9IMREwDwYDVQQHEwhDb2x1bWJ1czESMBAGA1UEChMJVmlraW5n
VlBOMR0wGwYDVQQLExRNeU9yZ2FuaXphdGlvbmFsVW5pdDEVMBMGA1UEAxMMVmlr
aW5nVlBOIENBMRAwDgYDVQQpEwdFYXN5UlNBMSEwHwYJKoZIhvcNAQkBFhJtZUBt
eWhvc3QubXlkb21haW4wHhcNMTMwODEwMDAxMDA1WhcNMjMwODA4MDAxMDA1WjAd
MRswGQYDVQQDExJDbGllbnQyMENlcnRmMmZiN2EwggIiMA0GCSqGSIb3DQEBAQUA
A4ICDwAwggIKAoICAQD7nbxrAFcYpsKkl65uhUMvk/y6UQQb+mOqxRq6uSESmrl/
06lqAgPoTZ6CGlipBurysvPue4hlAburKokOVIYLsA0IDjU2srWnQmAf3hbeWJaa
I1RqnuBOllggS8sxyHx5wVoHrJ5YFNAyZ2++B2AWCXClWNRcowyEGTxyBraqZknu
r4vr2F9+igCAaV+VQ+BIsqVwbf8V3eycs1aT9Y9WCdwGiUacLFR8CnzFUZaDpAQ1
zAz3/NMEl12fImXMIck2Ki5vmI1UlBHwRllEej18sdMn6uPTBbyIJsd6bM5Nu4IP
z3kdFS7NQjZtfvwrxpe0s+l9u7+iwW7bgoq5fzF6sAlpmmP1hiHBgGtdQBYdB9uK
E0iwi9bw70Z+MXiXYA2U09NE7mkQy++UbnID0xjR5Ewk2odOuR9znt5gTFrJKqcW
xiCoe+RTm6N9zg8il9JOIb4yHGFuf6ZR7+4Qn4drDO2Vfd+mo+I0RW/AJUtOW+Rr
JtiYOWSNfwCKtBHnGgkra853V5CEtEgngLhetBCfaIN9laA6LAugbxFBZU2zLrVx
pndwRxGrxOdtNXde08wZPn6X8uQ1I9E7pUK9gGdes/DOfBmFMj7mbDIgrYHNJEl8
JPlkEyWXEe7XHUl9HLjiBFnwop++eFZubXYd+90gjE5OUgeSOwb1bV4kLrQXPwID
AQABo4IBYzCCAV8wCQYDVR0TBAIwADAtBglghkgBhvhCAQ0EIBYeRWFzeS1SU0Eg
R2VuZXJhdGVkIENlcnRpZmljYXRlMB0GA1UdDgQWBBTAsC8GTwIvYhl0sgoH2+8a
RLJAKTCB4QYDVR0jBIHZMIHWgBQSzWAE0qCAnnDtxpm4eyzGUv0ZoaGBsqSBrzCB
rDELMAkGA1UEBhMCVVMxCzAJBgNVBAgTAk9IMREwDwYDVQQHEwhDb2x1bWJ1czES
MBAGA1UEChMJVmlraW5nVlBOMR0wGwYDVQQLExRNeU9yZ2FuaXphdGlvbmFsVW5p
dDEVMBMGA1UEAxMMVmlraW5nVlBOIENBMRAwDgYDVQQpEwdFYXN5UlNBMSEwHwYJ
KoZIhvcNAQkBFhJtZUBteWhvc3QubXlkb21haW6CCQDPNYXugL8qPjATBgNVHSUE
DDAKBggrBgEFBQcDAjALBgNVHQ8EBAMCB4AwDQYJKoZIhvcNAQEEBQADggIBAF0r
RdDkjzjURiENnJzcWPRCEtvWgWqViw+633DOTEkAIVoo6nGgcrAWcnp/gOmEr8dl
sqRLyx5QU3ixlFewu97ECaMn6xdWlRkPpqPtbiLCOfBENoyN25FvprJ7oaVpWXN2
knN1f14SloIq+Ws2CLs4NRAG8XgrYPOCbJla/adQHhN9YAf6Y8X3CrwqjeNZEdUB
8UzFzJXwzprAIEiyxMnKBh1N2BeKXExLPU0cXYoDl0mao/QjCJVmEEU1nNVdWgF9
wqabfjtKZtDONoCVbVhDUn1928K2Jxm2tDmgqWLfN8hdyfTZT40u1N4wg021cqb3
srSO0h/Rc5loLr+Me4ma9uz2iFsQeRYaT0IRPFcFqOANl1EcFouxz6YrtDcLnj0v
gxu6QrRYtsdoc/PJVp7p+ICwFUHHddWSyvNIaR8Anu3U6/eKgPPlgmNjFhSvFUo7
P53tSdIufZBOYj5Ap5O4BQCMHMQPCmat0Ahq0ZXUcSdedYTMFhtdznzEl3k5vr9M
UnbC/Ju1gEzBtyBKWU2ETDjcuhE+XsLDHtfYPNl7c6JaF42W1bx1HLE3uxVdYULV
7xbhD820uQ8UudM5ll0MZiTDPBYqn0H9ISTOP0jQGYOy2YUuvDo3X4uta8Ld5wiC
x/JJvSrlVy9/GHosf5XuML2DmjFO30g1ibrwHaLf
-----END CERTIFICATE-----
