Certificate:
    Data:
        Version: 3 (0x2)
        Serial Number: 71 (0x47)
    Signature Algorithm: md5WithRSAEncryption
        Issuer: C=US, ST=OH, L=Columbus, O=VikingVPN, OU=MyOrganizationalUnit, CN=VikingVPN CA/name=EasyRSA/emailAddress=me@myhost.mydomain
        Validity
            Not Before: Aug 15 08:21:17 2013 GMT
            Not After : Aug 13 08:21:17 2023 GMT
        Subject: CN=Client50Certc14cfb
        Subject Public Key Info:
            Public Key Algorithm: rsaEncryption
                Public-Key: (4096 bit)
                Modulus:
                    00:9a:f3:d6:3d:f0:79:1e:5f:3c:68:92:cd:92:46:
                    8e:d1:b8:f8:64:01:60:b7:62:c4:92:be:19:be:3c:
                    65:c2:c2:96:34:e5:18:86:81:33:41:97:86:57:da:
                    81:87:37:0e:16:4f:60:96:9e:e4:75:01:93:0c:a4:
                    36:77:3f:67:c1:df:5c:17:be:64:03:07:60:79:d6:
                    36:a7:c6:f4:77:af:76:9f:6b:8f:e2:a0:2a:0f:fe:
                    9f:86:ea:f3:9b:2a:0f:53:09:55:2f:d8:f0:81:7e:
                    00:56:4c:b3:4f:87:4b:a6:3b:72:29:31:d2:1b:95:
                    a1:77:07:da:37:64:1e:69:46:f8:32:65:fc:8c:74:
                    2b:22:3b:a1:3e:9c:73:10:55:30:e3:a1:01:d1:57:
                    50:b4:c1:14:0d:8b:28:ba:06:0c:f3:51:65:23:4d:
                    fe:96:72:3e:67:48:b4:ae:7f:40:60:f0:36:04:d3:
                    30:78:09:a5:fe:4d:30:1c:1e:2d:c1:ee:df:25:7c:
                    e6:66:64:23:9e:a5:5f:23:f9:70:1a:67:21:9b:8f:
                    03:22:28:a8:e9:d0:12:d7:3f:df:89:63:74:55:75:
                    c0:aa:68:0f:07:d1:7a:9b:09:c4:7e:b1:06:68:59:
                    cb:55:fb:e8:88:bd:60:23:26:e9:13:1a:40:e6:ac:
                    11:10:81:e1:ce:52:81:48:91:92:c2:01:a5:e0:0a:
                    88:32:a5:51:22:f0:fd:b7:1b:a1:fa:b7:bb:6b:0a:
                    16:a9:f3:90:9b:a0:b6:d8:a7:b1:0b:8f:9b:c8:19:
                    d6:4f:85:4c:33:79:75:a2:4b:4e:1e:b8:cd:50:ae:
                    b4:fa:01:49:f9:75:bf:d3:83:f0:3e:32:90:7c:c2:
                    14:fc:c1:59:a5:e8:ec:05:68:9b:bc:b7:c9:89:4b:
                    ce:9d:65:4c:e4:da:10:5b:bc:14:e6:48:6d:87:fc:
                    a0:95:f9:5f:48:f8:52:68:b8:e0:bb:bd:ff:4f:e8:
                    b7:f3:36:23:28:58:04:ea:0b:46:67:d5:7f:11:5d:
                    d5:1b:0d:ea:fa:a3:b0:48:70:79:5f:c5:2d:62:57:
                    6d:a8:1a:55:a0:7c:ea:40:2d:a2:cf:24:09:c0:41:
                    6c:60:e0:c9:25:38:fd:99:64:08:9f:6c:fb:b0:fa:
                    4b:be:1f:ba:b0:c4:fd:af:38:df:85:1d:39:61:c3:
                    ef:e3:ae:de:8f:14:93:03:23:17:3e:b6:61:ff:e5:
                    50:2f:0d:14:7a:80:9e:ea:5e:99:f9:28:fa:9d:6d:
                    f0:ee:95:05:f8:16:8c:13:b9:29:bb:3c:7c:30:78:
                    9e:fc:d2:3b:a5:38:1f:70:7a:14:b8:f0:f5:c1:6a:
                    34:66:f7
                Exponent: 65537 (0x10001)
        X509v3 extensions:
            X509v3 Basic Constraints: 
                CA:FALSE
            Netscape Comment: 
                Easy-RSA Generated Certificate
            X509v3 Subject Key Identifier: 
                5E:48:0F:AC:EA:71:66:12:95:D1:48:90:6A:D0:98:45:1D:5A:D9:0A
            X509v3 Authority Key Identifier: 
                keyid:12:CD:60:04:D2:A0:80:9E:70:ED:C6:99:B8:7B:2C:C6:52:FD:19:A1
                DirName:/C=US/ST=OH/L=Columbus/O=VikingVPN/OU=MyOrganizationalUnit/CN=VikingVPN CA/name=EasyRSA/emailAddress=me@myhost.mydomain
                serial:CF:35:85:EE:80:BF:2A:3E

            X509v3 Extended Key Usage: 
                TLS Web Client Authentication
            X509v3 Key Usage: 
                Digital Signature
    Signature Algorithm: md5WithRSAEncryption
         cc:03:09:35:93:37:52:55:36:45:d8:2e:ad:39:54:82:a7:a2:
         a6:67:81:96:78:47:16:83:2f:f0:7e:98:34:b9:89:99:65:c7:
         49:b8:24:b6:3d:98:df:d8:52:2b:ec:55:ea:f1:a1:4d:43:5f:
         5e:a6:ee:11:67:86:16:a3:b0:5c:e9:07:69:44:6b:4d:69:2c:
         f5:b4:97:4e:d0:0b:ff:61:e4:47:56:57:69:de:26:8e:f6:ea:
         47:76:52:08:16:10:04:a6:41:12:4d:56:24:94:70:98:17:ac:
         ca:37:3c:24:14:33:22:ab:54:4d:08:b2:87:83:9b:9a:de:8f:
         85:ac:54:e2:d6:43:56:66:75:59:51:7f:55:20:dd:7c:3b:c0:
         fb:23:c9:dc:b2:51:51:68:32:6c:e3:94:8d:50:3c:03:93:2c:
         ff:22:15:84:e5:1b:de:82:6e:4e:21:c0:81:ef:79:cd:22:fc:
         1b:64:fb:0f:42:34:e3:a3:3e:71:4f:57:6b:a8:66:48:0c:8e:
         0b:17:e0:f8:9c:c5:42:7d:a8:d0:3f:97:32:4a:f1:32:32:82:
         03:86:43:87:83:be:2c:e0:e1:a8:de:cb:b9:bb:8e:7a:21:70:
         7b:69:05:92:64:19:4c:d4:14:37:4f:2c:23:95:a6:00:73:2e:
         c6:ba:bf:c9:41:8c:e5:c7:68:cd:c1:7c:57:f2:ee:68:5c:24:
         3c:bb:28:5c:15:1a:32:db:4d:50:95:76:b2:07:56:32:70:93:
         b3:cf:63:09:be:14:fa:6f:61:62:fd:6d:45:05:81:70:33:f3:
         66:80:b7:f4:fa:da:22:a6:2e:d5:92:c0:72:4a:3b:4a:f2:16:
         d4:54:96:9b:b5:e1:2a:fa:1c:56:57:83:cb:ad:72:c3:10:83:
         fe:b6:42:af:54:9b:1e:87:52:8a:ff:62:6b:b0:13:56:77:c5:
         1a:f9:cc:0d:68:86:36:0f:75:a4:67:9b:77:08:1a:65:a6:a5:
         cc:50:e5:fa:5a:dc:33:fa:d3:a3:ee:0b:5f:21:b6:7a:4e:04:
         af:1d:17:cd:df:4d:ba:74:03:b6:6c:d8:7a:4a:37:31:52:2d:
         2a:27:21:72:87:5f:f1:01:51:64:5d:40:b0:df:75:e9:3c:3e:
         10:14:fe:99:f2:06:a8:36:60:93:67:3c:d7:0e:bf:49:af:c0:
         95:d5:8f:f7:87:36:d4:07:44:e5:74:da:a5:87:49:e8:90:8f:
         5a:fa:87:a4:3e:1a:a9:4e:a5:da:5e:67:97:05:ad:52:15:96:
         d4:43:bd:fe:0c:cb:6e:29:ec:90:4d:04:16:cb:4d:80:2e:de:
         d3:c9:47:69:ea:e0:8b:a8
-----BEGIN CERTIFICATE-----
MIIGqjCCBJKgAwIBAgIBRzANBgkqhkiG9w0BAQQFADCBrDELMAkGA1UEBhMCVVMx
CzAJBgNVBAgTAk9IMREwDwYDVQQHEwhDb2x1bWJ1czESMBAGA1UEChMJVmlraW5n
VlBOMR0wGwYDVQQLExRNeU9yZ2FuaXphdGlvbmFsVW5pdDEVMBMGA1UEAxMMVmlr
aW5nVlBOIENBMRAwDgYDVQQpEwdFYXN5UlNBMSEwHwYJKoZIhvcNAQkBFhJtZUBt
eWhvc3QubXlkb21haW4wHhcNMTMwODE1MDgyMTE3WhcNMjMwODEzMDgyMTE3WjAd
MRswGQYDVQQDExJDbGllbnQ1MENlcnRjMTRjZmIwggIiMA0GCSqGSIb3DQEBAQUA
A4ICDwAwggIKAoICAQCa89Y98HkeXzxoks2SRo7RuPhkAWC3YsSSvhm+PGXCwpY0
5RiGgTNBl4ZX2oGHNw4WT2CWnuR1AZMMpDZ3P2fB31wXvmQDB2B51janxvR3r3af
a4/ioCoP/p+G6vObKg9TCVUv2PCBfgBWTLNPh0umO3IpMdIblaF3B9o3ZB5pRvgy
ZfyMdCsiO6E+nHMQVTDjoQHRV1C0wRQNiyi6BgzzUWUjTf6Wcj5nSLSuf0Bg8DYE
0zB4CaX+TTAcHi3B7t8lfOZmZCOepV8j+XAaZyGbjwMiKKjp0BLXP9+JY3RVdcCq
aA8H0XqbCcR+sQZoWctV++iIvWAjJukTGkDmrBEQgeHOUoFIkZLCAaXgCogypVEi
8P23G6H6t7trChap85CboLbYp7ELj5vIGdZPhUwzeXWiS04euM1QrrT6AUn5db/T
g/A+MpB8whT8wVml6OwFaJu8t8mJS86dZUzk2hBbvBTmSG2H/KCV+V9I+FJouOC7
vf9P6LfzNiMoWATqC0Zn1X8RXdUbDer6o7BIcHlfxS1iV22oGlWgfOpALaLPJAnA
QWxg4MklOP2ZZAifbPuw+ku+H7qwxP2vON+FHTlhw+/jrt6PFJMDIxc+tmH/5VAv
DRR6gJ7qXpn5KPqdbfDulQX4FowTuSm7PHwweJ780julOB9wehS48PXBajRm9wID
AQABo4IBYzCCAV8wCQYDVR0TBAIwADAtBglghkgBhvhCAQ0EIBYeRWFzeS1SU0Eg
R2VuZXJhdGVkIENlcnRpZmljYXRlMB0GA1UdDgQWBBReSA+s6nFmEpXRSJBq0JhF
HVrZCjCB4QYDVR0jBIHZMIHWgBQSzWAE0qCAnnDtxpm4eyzGUv0ZoaGBsqSBrzCB
rDELMAkGA1UEBhMCVVMxCzAJBgNVBAgTAk9IMREwDwYDVQQHEwhDb2x1bWJ1czES
MBAGA1UEChMJVmlraW5nVlBOMR0wGwYDVQQLExRNeU9yZ2FuaXphdGlvbmFsVW5p
dDEVMBMGA1UEAxMMVmlraW5nVlBOIENBMRAwDgYDVQQpEwdFYXN5UlNBMSEwHwYJ
KoZIhvcNAQkBFhJtZUBteWhvc3QubXlkb21haW6CCQDPNYXugL8qPjATBgNVHSUE
DDAKBggrBgEFBQcDAjALBgNVHQ8EBAMCB4AwDQYJKoZIhvcNAQEEBQADggIBAMwD
CTWTN1JVNkXYLq05VIKnoqZngZZ4RxaDL/B+mDS5iZllx0m4JLY9mN/YUivsVerx
oU1DX16m7hFnhhajsFzpB2lEa01pLPW0l07QC/9h5EdWV2neJo726kd2UggWEASm
QRJNViSUcJgXrMo3PCQUMyKrVE0IsoeDm5rej4WsVOLWQ1ZmdVlRf1Ug3Xw7wPsj
ydyyUVFoMmzjlI1QPAOTLP8iFYTlG96Cbk4hwIHvec0i/Btk+w9CNOOjPnFPV2uo
ZkgMjgsX4PicxUJ9qNA/lzJK8TIyggOGQ4eDvizg4ajey7m7jnohcHtpBZJkGUzU
FDdPLCOVpgBzLsa6v8lBjOXHaM3BfFfy7mhcJDy7KFwVGjLbTVCVdrIHVjJwk7PP
Ywm+FPpvYWL9bUUFgXAz82aAt/T62iKmLtWSwHJKO0ryFtRUlpu14Sr6HFZXg8ut
csMQg/62Qq9Umx6HUor/YmuwE1Z3xRr5zA1ohjYPdaRnm3cIGmWmpcxQ5fpa3DP6
06PuC18htnpOBK8dF83fTbp0A7Zs2HpKNzFSLSonIXKHX/EBUWRdQLDfdek8PhAU
/pnyBqg2YJNnPNcOv0mvwJXVj/eHNtQHROV02qWHSeiQj1r6h6Q+GqlOpdpeZ5cF
rVIVltRDvf4My24p7JBNBBbLTYAu3tPJR2nq4Iuo
-----END CERTIFICATE-----
