Certificate:
    Data:
        Version: 3 (0x2)
        Serial Number: 77 (0x4d)
    Signature Algorithm: md5WithRSAEncryption
        Issuer: C=US, ST=OH, L=Columbus, O=VikingVPN, OU=MyOrganizationalUnit, CN=VikingVPN CA/name=EasyRSA/emailAddress=me@myhost.mydomain
        Validity
            Not Before: Aug 16 19:32:03 2013 GMT
            Not After : Aug 14 19:32:03 2023 GMT
        Subject: CN=Client53Certa5aafc
        Subject Public Key Info:
            Public Key Algorithm: rsaEncryption
                Public-Key: (4096 bit)
                Modulus:
                    00:b6:d7:66:f5:dd:07:be:c4:e9:5e:14:75:9a:d2:
                    be:cf:73:9d:db:97:f7:3c:fa:91:3c:b5:c5:34:80:
                    a5:10:2e:df:44:fe:b1:8a:31:70:4f:b0:c0:0d:bc:
                    3d:88:48:99:96:fa:16:51:68:8f:0f:13:48:8e:c4:
                    d9:5b:7b:9a:a9:25:18:19:eb:8c:6d:7a:67:78:fe:
                    fc:27:37:94:8a:5d:e6:e1:f9:39:53:ef:cb:de:6f:
                    be:9d:81:7f:a7:f3:44:ae:ab:30:9e:c0:97:c7:27:
                    0a:fc:b6:bf:61:a8:10:bc:e8:d0:89:71:0d:0a:42:
                    2a:bb:0f:23:f6:af:ab:16:bc:66:8c:ab:c3:ab:46:
                    9e:c9:f2:af:70:f0:cf:d2:dc:e3:18:b1:ac:5a:f1:
                    d7:bd:46:d7:1c:2e:78:b5:6d:ac:e3:4c:ff:c0:7e:
                    fb:2b:00:1d:3f:80:83:ca:fe:cd:d0:6a:eb:3b:55:
                    ed:79:d4:f7:9b:d1:56:e0:74:cd:a5:f9:b5:61:85:
                    96:6d:31:3e:23:5e:f9:2d:6f:33:3b:3d:ba:8f:68:
                    40:df:12:a5:35:55:e5:a2:fc:1b:e2:0d:01:55:0b:
                    83:50:cc:e0:0e:f5:f3:69:32:7c:57:56:4b:c6:5a:
                    5a:08:74:37:1b:4f:d4:f0:e3:f6:ef:b6:78:ae:32:
                    e5:be:50:f8:66:92:6f:04:45:70:e5:3e:73:61:17:
                    e4:da:29:fd:83:ff:c8:42:a1:ca:a0:77:1e:d1:64:
                    39:52:2f:15:44:19:61:62:99:0d:8f:b8:98:35:74:
                    a4:eb:88:46:8c:93:dd:aa:19:55:8a:e9:0a:ca:b0:
                    32:8f:4d:b1:82:52:d3:67:40:c0:1c:bc:80:e6:f2:
                    c7:94:5e:3f:27:25:95:b1:2b:9d:71:cb:38:63:e1:
                    1b:2f:4f:ec:78:01:73:45:05:e7:8b:07:9f:33:88:
                    1f:f3:db:b0:c5:90:8f:12:9f:a9:2e:7e:5a:a8:26:
                    e3:20:43:4d:7e:d6:d9:0f:28:b7:18:b3:47:80:de:
                    e8:e0:86:50:04:d7:54:90:ba:ae:2e:ed:ae:7b:a0:
                    c0:48:c0:c9:86:43:4a:3f:53:03:85:67:cd:51:e1:
                    45:f6:ac:a5:9b:93:96:71:3b:96:b1:3a:6f:ed:ce:
                    36:e6:38:11:cb:31:fc:c6:2f:54:5b:fc:99:f8:a9:
                    34:86:c3:51:ef:5e:e9:29:6d:8e:3a:44:d1:d7:aa:
                    6f:df:2c:d1:ac:3b:9e:4b:72:af:35:99:1f:35:70:
                    49:f0:c3:50:40:ef:c6:30:45:2a:f5:80:ed:1e:1f:
                    eb:e9:ed:c8:d9:db:e2:02:65:c0:97:86:57:2f:39:
                    2e:8b:41
                Exponent: 65537 (0x10001)
        X509v3 extensions:
            X509v3 Basic Constraints: 
                CA:FALSE
            Netscape Comment: 
                Easy-RSA Generated Certificate
            X509v3 Subject Key Identifier: 
                E3:AF:C5:DC:C1:7F:52:D9:FC:BE:3A:68:8E:49:BA:6B:31:AA:E1:E3
            X509v3 Authority Key Identifier: 
                keyid:12:CD:60:04:D2:A0:80:9E:70:ED:C6:99:B8:7B:2C:C6:52:FD:19:A1
                DirName:/C=US/ST=OH/L=Columbus/O=VikingVPN/OU=MyOrganizationalUnit/CN=VikingVPN CA/name=EasyRSA/emailAddress=me@myhost.mydomain
                serial:CF:35:85:EE:80:BF:2A:3E

            X509v3 Extended Key Usage: 
                TLS Web Client Authentication
            X509v3 Key Usage: 
                Digital Signature
    Signature Algorithm: md5WithRSAEncryption
         1b:d7:92:11:5f:4f:c8:14:5b:0a:d0:b1:65:0f:56:58:83:ba:
         0b:c0:e3:c2:52:77:54:10:41:5c:da:12:35:0b:51:18:f4:6d:
         de:33:85:49:2f:d0:d3:c4:bd:25:9e:e9:5e:83:e5:6e:80:5c:
         4a:1f:85:cf:81:40:f7:10:30:64:57:99:18:50:df:10:3c:17:
         47:0e:85:bf:5a:37:4b:fd:36:73:dd:7c:3c:10:0c:f7:56:e6:
         a1:e5:a6:fe:0a:a0:7c:6c:8c:0a:67:7f:7d:25:e6:f6:6a:86:
         7a:78:6b:a3:0d:38:d8:3f:e7:38:7c:c4:05:b4:d1:76:91:6b:
         94:68:42:2a:fb:af:a8:a4:3a:10:9a:4c:fc:4e:3b:50:82:b6:
         08:0c:ca:bd:e9:2c:45:b8:9b:fa:7b:ec:cf:b6:b9:1a:0e:5c:
         e7:9b:05:49:c7:23:0e:70:16:ab:2b:06:bc:45:7e:25:f6:18:
         8f:37:c2:00:73:57:ea:1f:c7:df:8a:14:f0:0d:98:0e:93:2d:
         f1:4e:b2:d8:15:1f:c1:72:c2:bb:d2:69:52:4b:3a:69:4a:79:
         01:6a:a9:20:71:b5:0b:14:18:24:ce:c7:b9:67:9e:89:79:a8:
         de:09:7d:42:01:11:ca:1d:43:87:3d:5c:12:f5:80:a3:4b:63:
         cf:f1:e2:12:1b:2c:9a:f3:8c:d6:e4:2a:a6:45:b6:8a:3c:5f:
         f7:83:66:99:18:02:c0:10:e8:d5:d9:5f:d4:e2:00:e3:4b:f9:
         06:95:73:1e:04:97:63:57:94:1d:1e:34:09:b1:44:4e:67:fa:
         e4:7c:28:1d:c5:94:26:d6:20:60:48:ff:ea:b6:36:ed:b9:63:
         17:6b:d4:64:be:f3:f1:ad:5c:41:f6:a0:5d:e2:14:65:09:48:
         3f:0a:9c:b0:4c:bb:ef:d1:57:f7:7f:a9:57:4b:22:ca:c7:02:
         be:61:94:92:d3:e2:71:0b:eb:37:cc:7f:d3:e8:89:95:5b:0f:
         e1:44:10:30:4a:41:d3:f1:53:07:8d:35:0c:ea:15:03:4b:0e:
         a7:7a:53:eb:c6:f8:ec:06:d0:fb:83:1b:51:67:c7:ee:17:84:
         84:21:0d:a9:87:ea:e7:91:75:fc:84:f7:ce:88:a9:fe:fc:9b:
         3d:b3:68:4d:48:e4:19:0f:d7:81:53:e7:aa:2a:4d:cc:e8:7e:
         69:2d:d3:18:c7:24:7e:b4:95:a1:36:30:d1:92:e9:28:69:b8:
         02:1c:ba:00:45:9d:05:83:94:fc:1c:11:ab:f1:45:fa:9b:19:
         85:8e:c9:b0:70:cb:aa:da:0d:61:f5:e4:99:b7:b5:a9:53:78:
         44:42:f2:f9:45:0f:c7:35
-----BEGIN CERTIFICATE-----
MIIGqjCCBJKgAwIBAgIBTTANBgkqhkiG9w0BAQQFADCBrDELMAkGA1UEBhMCVVMx
CzAJBgNVBAgTAk9IMREwDwYDVQQHEwhDb2x1bWJ1czESMBAGA1UEChMJVmlraW5n
VlBOMR0wGwYDVQQLExRNeU9yZ2FuaXphdGlvbmFsVW5pdDEVMBMGA1UEAxMMVmlr
aW5nVlBOIENBMRAwDgYDVQQpEwdFYXN5UlNBMSEwHwYJKoZIhvcNAQkBFhJtZUBt
eWhvc3QubXlkb21haW4wHhcNMTMwODE2MTkzMjAzWhcNMjMwODE0MTkzMjAzWjAd
MRswGQYDVQQDExJDbGllbnQ1M0NlcnRhNWFhZmMwggIiMA0GCSqGSIb3DQEBAQUA
A4ICDwAwggIKAoICAQC212b13Qe+xOleFHWa0r7Pc53bl/c8+pE8tcU0gKUQLt9E
/rGKMXBPsMANvD2ISJmW+hZRaI8PE0iOxNlbe5qpJRgZ64xtemd4/vwnN5SKXebh
+TlT78veb76dgX+n80SuqzCewJfHJwr8tr9hqBC86NCJcQ0KQiq7DyP2r6sWvGaM
q8OrRp7J8q9w8M/S3OMYsaxa8de9RtccLni1bazjTP/AfvsrAB0/gIPK/s3Qaus7
Ve151Peb0VbgdM2l+bVhhZZtMT4jXvktbzM7PbqPaEDfEqU1VeWi/BviDQFVC4NQ
zOAO9fNpMnxXVkvGWloIdDcbT9Tw4/bvtniuMuW+UPhmkm8ERXDlPnNhF+TaKf2D
/8hCocqgdx7RZDlSLxVEGWFimQ2PuJg1dKTriEaMk92qGVWK6QrKsDKPTbGCUtNn
QMAcvIDm8seUXj8nJZWxK51xyzhj4RsvT+x4AXNFBeeLB58ziB/z27DFkI8Sn6ku
flqoJuMgQ01+1tkPKLcYs0eA3ujghlAE11SQuq4u7a57oMBIwMmGQ0o/UwOFZ81R
4UX2rKWbk5ZxO5axOm/tzjbmOBHLMfzGL1Rb/Jn4qTSGw1HvXukpbY46RNHXqm/f
LNGsO55Lcq81mR81cEnww1BA78YwRSr1gO0eH+vp7cjZ2+ICZcCXhlcvOS6LQQID
AQABo4IBYzCCAV8wCQYDVR0TBAIwADAtBglghkgBhvhCAQ0EIBYeRWFzeS1SU0Eg
R2VuZXJhdGVkIENlcnRpZmljYXRlMB0GA1UdDgQWBBTjr8XcwX9S2fy+OmiOSbpr
Marh4zCB4QYDVR0jBIHZMIHWgBQSzWAE0qCAnnDtxpm4eyzGUv0ZoaGBsqSBrzCB
rDELMAkGA1UEBhMCVVMxCzAJBgNVBAgTAk9IMREwDwYDVQQHEwhDb2x1bWJ1czES
MBAGA1UEChMJVmlraW5nVlBOMR0wGwYDVQQLExRNeU9yZ2FuaXphdGlvbmFsVW5p
dDEVMBMGA1UEAxMMVmlraW5nVlBOIENBMRAwDgYDVQQpEwdFYXN5UlNBMSEwHwYJ
KoZIhvcNAQkBFhJtZUBteWhvc3QubXlkb21haW6CCQDPNYXugL8qPjATBgNVHSUE
DDAKBggrBgEFBQcDAjALBgNVHQ8EBAMCB4AwDQYJKoZIhvcNAQEEBQADggIBABvX
khFfT8gUWwrQsWUPVliDugvA48JSd1QQQVzaEjULURj0bd4zhUkv0NPEvSWe6V6D
5W6AXEofhc+BQPcQMGRXmRhQ3xA8F0cOhb9aN0v9NnPdfDwQDPdW5qHlpv4KoHxs
jApnf30l5vZqhnp4a6MNONg/5zh8xAW00XaRa5RoQir7r6ikOhCaTPxOO1CCtggM
yr3pLEW4m/p77M+2uRoOXOebBUnHIw5wFqsrBrxFfiX2GI83wgBzV+ofx9+KFPAN
mA6TLfFOstgVH8FywrvSaVJLOmlKeQFqqSBxtQsUGCTOx7lnnol5qN4JfUIBEcod
Q4c9XBL1gKNLY8/x4hIbLJrzjNbkKqZFtoo8X/eDZpkYAsAQ6NXZX9TiAONL+QaV
cx4El2NXlB0eNAmxRE5n+uR8KB3FlCbWIGBI/+q2Nu25Yxdr1GS+8/GtXEH2oF3i
FGUJSD8KnLBMu+/RV/d/qVdLIsrHAr5hlJLT4nEL6zfMf9PoiZVbD+FEEDBKQdPx
UweNNQzqFQNLDqd6U+vG+OwG0PuDG1Fnx+4XhIQhDamH6ueRdfyE986Iqf78mz2z
aE1I5BkP14FT56oqTczofmkt0xjHJH60laE2MNGS6ShpuAIcugBFnQWDlPwcEavx
RfqbGYWOybBwy6raDWH15Jm3talTeERC8vlFD8c1
-----END CERTIFICATE-----
