Certificate:
    Data:
        Version: 3 (0x2)
        Serial Number: 78 (0x4e)
    Signature Algorithm: md5WithRSAEncryption
        Issuer: C=US, ST=OH, L=Columbus, O=VikingVPN, OU=MyOrganizationalUnit, CN=VikingVPN CA/name=EasyRSA/emailAddress=me@myhost.mydomain
        Validity
            Not Before: Aug 16 20:29:28 2013 GMT
            Not After : Aug 14 20:29:28 2023 GMT
        Subject: CN=Client54Cert787dc8
        Subject Public Key Info:
            Public Key Algorithm: rsaEncryption
                Public-Key: (4096 bit)
                Modulus:
                    00:c5:fd:5e:cf:e4:2b:37:50:b8:13:0d:e8:a9:61:
                    f9:13:b3:5d:38:2d:df:3e:2e:a6:cd:7f:d6:63:f5:
                    94:66:4a:40:84:1a:94:14:85:6f:a6:6e:5c:b5:51:
                    13:1c:4e:e1:ee:16:82:f5:74:31:61:70:79:1e:57:
                    fa:f8:0a:1b:86:d6:07:88:09:20:6c:45:2e:47:9c:
                    c4:f2:c4:62:11:40:ad:08:01:5f:39:10:3f:38:f1:
                    ae:13:fe:5f:a4:72:0c:1e:ac:f0:65:5c:a2:cf:f4:
                    d3:9d:27:6a:76:a6:b6:29:05:77:fc:35:9b:cf:a6:
                    67:29:0a:1f:c9:44:5d:4c:59:ce:87:0e:a7:e4:46:
                    19:62:5c:6d:eb:fa:bb:44:bc:cf:3e:c9:ff:30:43:
                    76:40:ea:77:57:b1:b4:39:92:cd:1b:d3:fe:21:4f:
                    ba:51:90:8f:7c:42:52:df:f3:f4:4b:0f:82:dd:ce:
                    f7:4e:37:6b:e2:5f:8d:29:7c:b3:03:26:63:39:b8:
                    3a:cf:6b:76:ca:bd:90:c6:70:17:97:0e:0b:68:4e:
                    a5:0c:6b:fe:90:3b:54:44:d4:bc:8b:b2:28:0e:93:
                    72:03:78:91:a2:52:88:cd:76:2f:51:15:17:92:de:
                    2f:57:22:21:6b:c6:4b:82:a4:87:86:3d:be:85:1d:
                    7f:7a:81:a3:b2:5a:71:b7:7f:b8:e7:47:10:0b:f9:
                    bb:67:ee:89:89:79:2b:74:8a:ac:e4:e1:e7:5e:55:
                    e8:0a:e6:ca:da:ae:5a:d0:00:69:fc:62:de:00:93:
                    03:3e:7a:8b:a2:6f:96:18:02:67:58:20:19:72:8f:
                    7c:3c:bf:cf:a2:05:2e:02:00:a9:5d:bf:5f:8a:ce:
                    3f:f9:2f:52:e4:21:2f:a6:76:77:dd:2d:16:79:f7:
                    32:73:98:35:ee:77:16:c5:5f:82:ab:ed:1f:06:cb:
                    81:fc:2c:29:c3:f2:2e:97:96:4f:e4:13:54:62:0b:
                    ab:5f:cf:3d:5b:b7:4a:e6:69:5e:fd:64:50:a5:25:
                    b2:ba:cc:ee:ca:a9:1f:3a:dc:ab:71:27:a4:ff:7a:
                    41:c4:e1:45:54:d1:d0:e5:6b:df:c9:11:9c:85:f2:
                    c6:42:de:69:7e:97:90:97:8a:f2:f9:e1:1a:8e:f4:
                    33:ea:e5:c1:a2:b5:26:6e:43:30:4b:d4:d9:4f:83:
                    6a:ed:b2:2a:10:42:00:61:48:56:b7:f2:20:2e:ce:
                    3d:7d:21:b5:c1:c5:4b:2a:b5:77:0f:55:c0:fa:c7:
                    35:02:45:d4:b3:d9:e9:b2:b4:16:ab:f1:b7:31:20:
                    99:6a:ec:53:2d:7a:22:1c:3c:a3:2c:b0:92:30:73:
                    4a:37:07
                Exponent: 65537 (0x10001)
        X509v3 extensions:
            X509v3 Basic Constraints: 
                CA:FALSE
            Netscape Comment: 
                Easy-RSA Generated Certificate
            X509v3 Subject Key Identifier: 
                3F:3E:33:2D:E3:CA:F0:73:8D:F9:68:6E:ED:91:8D:A1:A8:43:67:FE
            X509v3 Authority Key Identifier: 
                keyid:12:CD:60:04:D2:A0:80:9E:70:ED:C6:99:B8:7B:2C:C6:52:FD:19:A1
                DirName:/C=US/ST=OH/L=Columbus/O=VikingVPN/OU=MyOrganizationalUnit/CN=VikingVPN CA/name=EasyRSA/emailAddress=me@myhost.mydomain
                serial:CF:35:85:EE:80:BF:2A:3E

            X509v3 Extended Key Usage: 
                TLS Web Client Authentication
            X509v3 Key Usage: 
                Digital Signature
    Signature Algorithm: md5WithRSAEncryption
         66:bd:40:db:a1:85:50:d7:d4:38:ca:68:85:57:10:b7:e1:36:
         6f:08:66:45:33:ed:40:b2:48:de:ee:95:2e:01:fe:45:18:9d:
         8a:d4:41:0e:b1:f3:fa:35:3e:fc:7d:67:1b:dd:36:7b:be:fd:
         8e:c2:4e:ce:e9:5e:e6:4a:83:62:af:f4:66:c7:eb:8d:90:25:
         24:ec:87:f0:3b:b1:03:ec:0e:99:a5:05:7b:a6:45:f1:e7:a1:
         4e:8d:b3:08:5f:4f:7f:c3:a8:ca:ea:bf:93:aa:80:f2:ac:3f:
         20:66:41:c3:8a:1e:57:09:fc:3b:95:96:d8:bf:4e:80:a5:02:
         56:cf:24:8a:eb:15:83:7a:de:0d:20:67:4c:30:e4:97:aa:e7:
         60:49:65:8c:97:7e:db:1f:a5:42:f9:ba:f5:c8:2c:4b:94:33:
         2c:e1:43:cf:b8:5e:86:9c:98:95:6e:de:20:a8:d4:e8:12:30:
         c9:84:4c:46:38:3d:b8:55:4e:66:4c:07:fd:d8:93:dd:e4:ff:
         5c:fe:c4:5e:0d:6c:cc:39:d5:29:79:24:fc:ef:ba:da:1d:05:
         6c:1e:f9:e6:ef:b0:98:32:c6:01:64:20:c2:f4:f3:9c:56:16:
         d6:79:92:2c:ab:8f:48:e0:bd:f8:69:a2:42:54:d0:23:57:c3:
         6a:0b:a1:43:cd:0a:57:90:e5:a8:48:e5:6e:2d:99:cc:87:e9:
         e9:ac:25:c4:ed:a9:b4:7c:80:1a:fd:f9:c2:3c:ce:11:0d:af:
         91:5f:ad:9a:4d:ce:ba:fd:3f:47:3a:54:1b:3a:ea:d6:c4:5e:
         37:c3:1c:51:b6:70:57:d9:82:6e:03:2d:cc:12:2b:ff:84:d9:
         11:88:c3:58:5c:ec:da:73:58:88:9e:3e:f8:f8:9b:22:82:96:
         ce:3a:b5:93:9b:a1:68:2e:c2:1e:11:10:5c:eb:81:fa:0b:ff:
         a2:d3:0c:1b:ea:cd:0c:01:1d:8d:bb:53:af:ea:70:f3:f3:bd:
         ca:e9:14:72:fc:43:a2:51:e9:d8:e4:be:9c:fe:69:60:ff:3f:
         d2:cd:c7:e5:30:f0:2e:dd:8e:d4:fd:76:92:b0:a9:ac:32:50:
         d9:7a:d1:f7:bc:e5:7d:51:68:8e:6c:a1:c4:56:b8:83:dd:c2:
         39:bc:c9:53:b1:70:8e:de:3a:4c:03:b7:8a:d6:37:4d:9c:0d:
         74:d6:85:e5:6f:a2:ef:c0:76:1a:0f:55:93:45:12:6d:cd:78:
         71:ab:40:d2:15:3c:09:6f:9a:87:f0:be:50:88:c4:15:3a:00:
         a3:35:a8:44:26:70:78:f6:b2:59:59:71:06:66:18:6a:cd:a5:
         2b:cd:7e:82:f0:26:50:e0
-----BEGIN CERTIFICATE-----
MIIGqjCCBJKgAwIBAgIBTjANBgkqhkiG9w0BAQQFADCBrDELMAkGA1UEBhMCVVMx
CzAJBgNVBAgTAk9IMREwDwYDVQQHEwhDb2x1bWJ1czESMBAGA1UEChMJVmlraW5n
VlBOMR0wGwYDVQQLExRNeU9yZ2FuaXphdGlvbmFsVW5pdDEVMBMGA1UEAxMMVmlr
aW5nVlBOIENBMRAwDgYDVQQpEwdFYXN5UlNBMSEwHwYJKoZIhvcNAQkBFhJtZUBt
eWhvc3QubXlkb21haW4wHhcNMTMwODE2MjAyOTI4WhcNMjMwODE0MjAyOTI4WjAd
MRswGQYDVQQDExJDbGllbnQ1NENlcnQ3ODdkYzgwggIiMA0GCSqGSIb3DQEBAQUA
A4ICDwAwggIKAoICAQDF/V7P5Cs3ULgTDeipYfkTs104Ld8+LqbNf9Zj9ZRmSkCE
GpQUhW+mbly1URMcTuHuFoL1dDFhcHkeV/r4ChuG1geICSBsRS5HnMTyxGIRQK0I
AV85ED848a4T/l+kcgwerPBlXKLP9NOdJ2p2prYpBXf8NZvPpmcpCh/JRF1MWc6H
DqfkRhliXG3r+rtEvM8+yf8wQ3ZA6ndXsbQ5ks0b0/4hT7pRkI98QlLf8/RLD4Ld
zvdON2viX40pfLMDJmM5uDrPa3bKvZDGcBeXDgtoTqUMa/6QO1RE1LyLsigOk3ID
eJGiUojNdi9RFReS3i9XIiFrxkuCpIeGPb6FHX96gaOyWnG3f7jnRxAL+btn7omJ
eSt0iqzk4edeVegK5srarlrQAGn8Yt4AkwM+eouib5YYAmdYIBlyj3w8v8+iBS4C
AKldv1+Kzj/5L1LkIS+mdnfdLRZ59zJzmDXudxbFX4Kr7R8Gy4H8LCnD8i6Xlk/k
E1RiC6tfzz1bt0rmaV79ZFClJbK6zO7KqR863KtxJ6T/ekHE4UVU0dDla9/JEZyF
8sZC3ml+l5CXivL54RqO9DPq5cGitSZuQzBL1NlPg2rtsioQQgBhSFa38iAuzj19
IbXBxUsqtXcPVcD6xzUCRdSz2emytBar8bcxIJlq7FMteiIcPKMssJIwc0o3BwID
AQABo4IBYzCCAV8wCQYDVR0TBAIwADAtBglghkgBhvhCAQ0EIBYeRWFzeS1SU0Eg
R2VuZXJhdGVkIENlcnRpZmljYXRlMB0GA1UdDgQWBBQ/PjMt48rwc435aG7tkY2h
qENn/jCB4QYDVR0jBIHZMIHWgBQSzWAE0qCAnnDtxpm4eyzGUv0ZoaGBsqSBrzCB
rDELMAkGA1UEBhMCVVMxCzAJBgNVBAgTAk9IMREwDwYDVQQHEwhDb2x1bWJ1czES
MBAGA1UEChMJVmlraW5nVlBOMR0wGwYDVQQLExRNeU9yZ2FuaXphdGlvbmFsVW5p
dDEVMBMGA1UEAxMMVmlraW5nVlBOIENBMRAwDgYDVQQpEwdFYXN5UlNBMSEwHwYJ
KoZIhvcNAQkBFhJtZUBteWhvc3QubXlkb21haW6CCQDPNYXugL8qPjATBgNVHSUE
DDAKBggrBgEFBQcDAjALBgNVHQ8EBAMCB4AwDQYJKoZIhvcNAQEEBQADggIBAGa9
QNuhhVDX1DjKaIVXELfhNm8IZkUz7UCySN7ulS4B/kUYnYrUQQ6x8/o1Pvx9Zxvd
Nnu+/Y7CTs7pXuZKg2Kv9GbH642QJSTsh/A7sQPsDpmlBXumRfHnoU6NswhfT3/D
qMrqv5OqgPKsPyBmQcOKHlcJ/DuVlti/ToClAlbPJIrrFYN63g0gZ0ww5Jeq52BJ
ZYyXftsfpUL5uvXILEuUMyzhQ8+4XoacmJVu3iCo1OgSMMmETEY4PbhVTmZMB/3Y
k93k/1z+xF4NbMw51Sl5JPzvutodBWwe+ebvsJgyxgFkIML085xWFtZ5kiyrj0jg
vfhpokJU0CNXw2oLoUPNCleQ5ahI5W4tmcyH6emsJcTtqbR8gBr9+cI8zhENr5Ff
rZpNzrr9P0c6VBs66tbEXjfDHFG2cFfZgm4DLcwSK/+E2RGIw1hc7NpzWIiePvj4
myKCls46tZOboWguwh4REFzrgfoL/6LTDBvqzQwBHY27U6/qcPPzvcrpFHL8Q6JR
6djkvpz+aWD/P9LNx+Uw8C7djtT9dpKwqawyUNl60fe85X1RaI5socRWuIPdwjm8
yVOxcI7eOkwDt4rWN02cDXTWheVvou/AdhoPVZNFEm3NeHGrQNIVPAlvmofwvlCI
xBU6AKM1qEQmcHj2sllZcQZmGGrNpSvNfoLwJlDg
-----END CERTIFICATE-----
