Certificate:
    Data:
        Version: 3 (0x2)
        Serial Number: 105 (0x69)
    Signature Algorithm: md5WithRSAEncryption
        Issuer: C=US, ST=OH, L=Columbus, O=VikingVPN, OU=MyOrganizationalUnit, CN=VikingVPN CA/name=EasyRSA/emailAddress=me@myhost.mydomain
        Validity
            Not Before: Sep  1 16:36:05 2013 GMT
            Not After : Aug 30 16:36:05 2023 GMT
        Subject: CN=Client70Cert8a573f
        Subject Public Key Info:
            Public Key Algorithm: rsaEncryption
                Public-Key: (4096 bit)
                Modulus:
                    00:b7:65:f0:87:82:cb:f6:61:e3:1e:37:eb:7d:35:
                    08:88:5d:9f:0a:42:2e:1e:09:01:85:7c:b7:af:ad:
                    22:0b:88:66:d7:40:83:9a:c0:d4:15:5f:db:ea:04:
                    42:ab:75:15:09:34:94:6c:4e:1a:70:12:48:29:1d:
                    7a:81:28:43:bc:b7:7a:32:22:f6:d4:83:ae:1e:35:
                    81:c4:f0:ea:09:db:10:89:08:c3:df:3d:b4:f5:10:
                    13:9c:63:fd:3e:d0:cd:d5:90:b3:bd:04:e2:95:43:
                    f5:d6:20:f7:b1:37:09:29:c1:aa:b0:a7:73:fd:53:
                    36:fe:42:c6:e1:a7:bf:99:2d:dc:a7:44:0e:78:20:
                    fd:14:0b:e5:d0:57:7b:98:9a:55:bb:20:4e:d9:bb:
                    49:74:2a:7a:40:b7:dc:a5:f9:25:c6:df:9a:66:10:
                    b8:fa:45:bb:d0:61:cf:99:2c:47:d8:7a:e6:92:45:
                    e6:6e:87:5a:50:ba:97:7a:c5:b7:bd:a7:25:1d:4d:
                    47:e1:41:77:c0:85:41:39:bf:63:64:4c:44:64:0d:
                    eb:bb:ea:ec:64:e5:13:bf:24:21:71:b3:74:79:83:
                    fc:d5:b7:43:db:97:44:37:38:67:6a:7a:2e:ec:47:
                    77:79:e7:0c:f9:28:2e:a4:98:22:70:5c:60:7a:dc:
                    41:c8:54:91:b3:2f:04:94:30:d8:b8:05:d9:60:0e:
                    75:5e:f8:4b:52:26:52:fa:43:ef:74:fd:e7:9e:ce:
                    77:38:5e:7f:10:04:b1:58:c8:e3:33:c7:c4:3a:36:
                    11:2e:2c:e5:10:e4:9c:df:b8:d8:cd:68:60:5a:e4:
                    3b:08:c0:9e:f5:2c:ff:e7:fe:f6:4c:ca:da:94:4b:
                    28:ff:32:2e:7e:4f:6d:d9:49:3c:1c:38:42:24:cf:
                    3b:e8:4e:51:d6:2d:88:78:80:96:17:c6:4b:6e:d5:
                    59:1d:38:a6:95:71:f1:9a:bc:78:fb:8f:78:bc:7b:
                    55:80:e2:cd:0e:cd:b9:89:16:73:56:99:c8:c3:b8:
                    ab:f9:ea:a5:be:48:06:54:57:ae:69:b2:fe:5d:e4:
                    a7:eb:b1:4a:7e:b9:8e:27:75:6b:1d:56:fd:97:f8:
                    02:40:b9:94:26:4f:41:22:6b:54:21:da:80:ae:6b:
                    47:7c:64:bc:ba:32:31:cf:16:87:5f:20:f6:1f:6c:
                    de:06:23:ab:38:44:a6:b7:38:c3:5c:d9:a8:d4:82:
                    2a:a9:3f:4f:bd:ae:b4:b2:be:0a:50:1e:40:11:50:
                    9c:b9:6b:72:e4:75:ec:36:6d:52:56:32:39:33:a0:
                    2a:a5:f8:72:f5:91:c8:55:a5:2d:93:1d:2f:a6:78:
                    ca:d2:8d
                Exponent: 65537 (0x10001)
        X509v3 extensions:
            X509v3 Basic Constraints: 
                CA:FALSE
            Netscape Comment: 
                Easy-RSA Generated Certificate
            X509v3 Subject Key Identifier: 
                E4:67:13:12:47:04:93:4F:51:CC:C1:7F:AD:23:61:19:7E:51:50:0B
            X509v3 Authority Key Identifier: 
                keyid:12:CD:60:04:D2:A0:80:9E:70:ED:C6:99:B8:7B:2C:C6:52:FD:19:A1
                DirName:/C=US/ST=OH/L=Columbus/O=VikingVPN/OU=MyOrganizationalUnit/CN=VikingVPN CA/name=EasyRSA/emailAddress=me@myhost.mydomain
                serial:CF:35:85:EE:80:BF:2A:3E

            X509v3 Extended Key Usage: 
                TLS Web Client Authentication
            X509v3 Key Usage: 
                Digital Signature
    Signature Algorithm: md5WithRSAEncryption
         de:a3:1a:08:a1:15:b8:ea:c3:05:64:53:fd:11:6f:d1:41:e0:
         5b:87:17:e7:bb:dc:7d:e7:25:ef:12:e0:6c:f4:a3:c8:25:8f:
         65:8a:3c:d4:9b:c6:09:80:8c:07:38:8c:9e:e3:f9:80:c2:67:
         7e:be:5f:fb:78:08:27:b9:40:be:ea:60:f4:52:6c:2b:0f:a7:
         a6:61:88:4c:e4:5c:79:12:52:0e:e3:dd:c8:90:41:6a:22:22:
         c0:44:f9:49:60:24:d3:6f:ae:8a:af:92:30:25:7d:ca:e8:14:
         25:15:dd:79:87:3e:79:6a:5c:3a:22:5d:68:a8:fc:83:da:d4:
         75:39:b8:66:7e:a5:25:49:1f:ac:33:db:ba:e1:c3:cb:95:ea:
         12:ba:a6:c6:47:47:1d:cc:8c:c4:15:50:60:1c:3b:69:4f:fb:
         3a:96:33:23:59:1a:61:e4:03:84:af:52:d6:24:4c:ee:5a:08:
         d4:fb:4b:8f:0d:91:16:80:b4:e6:a2:b6:d7:59:17:fd:d1:82:
         85:06:7c:6f:09:cb:6d:69:6a:91:f6:b5:17:61:4e:07:34:b1:
         60:56:15:d0:ca:a1:ee:ec:f1:8b:6c:36:3c:80:23:be:a6:e7:
         ba:3b:61:2b:23:73:53:ad:48:e1:f7:f1:a8:4e:62:69:90:91:
         c2:d5:af:4f:14:87:a4:b9:d6:f5:1c:c3:32:27:be:6d:c0:9d:
         8d:f7:bb:32:3b:5d:47:4e:14:92:69:34:f8:d9:fd:b5:5b:18:
         13:85:82:46:a6:22:84:44:a0:06:a1:40:e5:a9:0f:71:9a:c5:
         72:55:db:a7:14:12:c9:52:a5:9e:8c:e2:fd:c6:18:e6:e9:ea:
         1b:4b:70:5f:4e:7b:8f:9f:d8:41:2a:8c:e9:a4:0a:b8:42:8e:
         f0:29:4a:bd:2e:e4:be:6f:be:e3:37:30:96:5d:db:ed:2d:d6:
         20:9f:e4:f6:da:a2:cf:4d:89:37:29:a2:e1:2a:1b:ce:01:45:
         5e:71:ea:28:22:2f:af:f3:07:3c:62:2c:0e:47:37:bf:11:23:
         5b:50:ee:73:b1:79:2f:5f:68:0b:ae:ce:91:76:c3:33:14:f7:
         a9:b9:cd:f3:1e:a8:ef:ff:af:9b:89:29:0b:f7:a8:a4:00:18:
         e9:a8:3f:22:63:41:ef:5f:57:c1:af:92:51:ee:7e:12:3f:e6:
         ec:83:c2:33:84:fe:f0:b9:fd:e0:d9:77:39:dd:96:a4:fd:8c:
         60:44:6d:00:cb:bf:50:ee:57:2d:e9:e0:3b:54:19:c0:d5:70:
         25:ab:ab:67:2b:ce:7e:04:25:2f:7f:d4:bb:12:3a:4d:18:ec:
         a1:15:5f:2b:a8:36:01:33
-----BEGIN CERTIFICATE-----
MIIGqjCCBJKgAwIBAgIBaTANBgkqhkiG9w0BAQQFADCBrDELMAkGA1UEBhMCVVMx
CzAJBgNVBAgTAk9IMREwDwYDVQQHEwhDb2x1bWJ1czESMBAGA1UEChMJVmlraW5n
VlBOMR0wGwYDVQQLExRNeU9yZ2FuaXphdGlvbmFsVW5pdDEVMBMGA1UEAxMMVmlr
aW5nVlBOIENBMRAwDgYDVQQpEwdFYXN5UlNBMSEwHwYJKoZIhvcNAQkBFhJtZUBt
eWhvc3QubXlkb21haW4wHhcNMTMwOTAxMTYzNjA1WhcNMjMwODMwMTYzNjA1WjAd
MRswGQYDVQQDExJDbGllbnQ3MENlcnQ4YTU3M2YwggIiMA0GCSqGSIb3DQEBAQUA
A4ICDwAwggIKAoICAQC3ZfCHgsv2YeMeN+t9NQiIXZ8KQi4eCQGFfLevrSILiGbX
QIOawNQVX9vqBEKrdRUJNJRsThpwEkgpHXqBKEO8t3oyIvbUg64eNYHE8OoJ2xCJ
CMPfPbT1EBOcY/0+0M3VkLO9BOKVQ/XWIPexNwkpwaqwp3P9Uzb+Qsbhp7+ZLdyn
RA54IP0UC+XQV3uYmlW7IE7Zu0l0KnpAt9yl+SXG35pmELj6RbvQYc+ZLEfYeuaS
ReZuh1pQupd6xbe9pyUdTUfhQXfAhUE5v2NkTERkDeu76uxk5RO/JCFxs3R5g/zV
t0Pbl0Q3OGdqei7sR3d55wz5KC6kmCJwXGB63EHIVJGzLwSUMNi4BdlgDnVe+EtS
JlL6Q+90/eeeznc4Xn8QBLFYyOMzx8Q6NhEuLOUQ5JzfuNjNaGBa5DsIwJ71LP/n
/vZMytqUSyj/Mi5+T23ZSTwcOEIkzzvoTlHWLYh4gJYXxktu1VkdOKaVcfGavHj7
j3i8e1WA4s0OzbmJFnNWmcjDuKv56qW+SAZUV65psv5d5KfrsUp+uY4ndWsdVv2X
+AJAuZQmT0Eia1Qh2oCua0d8ZLy6MjHPFodfIPYfbN4GI6s4RKa3OMNc2ajUgiqp
P0+9rrSyvgpQHkARUJy5a3Lkdew2bVJWMjkzoCql+HL1kchVpS2THS+meMrSjQID
AQABo4IBYzCCAV8wCQYDVR0TBAIwADAtBglghkgBhvhCAQ0EIBYeRWFzeS1SU0Eg
R2VuZXJhdGVkIENlcnRpZmljYXRlMB0GA1UdDgQWBBTkZxMSRwSTT1HMwX+tI2EZ
flFQCzCB4QYDVR0jBIHZMIHWgBQSzWAE0qCAnnDtxpm4eyzGUv0ZoaGBsqSBrzCB
rDELMAkGA1UEBhMCVVMxCzAJBgNVBAgTAk9IMREwDwYDVQQHEwhDb2x1bWJ1czES
MBAGA1UEChMJVmlraW5nVlBOMR0wGwYDVQQLExRNeU9yZ2FuaXphdGlvbmFsVW5p
dDEVMBMGA1UEAxMMVmlraW5nVlBOIENBMRAwDgYDVQQpEwdFYXN5UlNBMSEwHwYJ
KoZIhvcNAQkBFhJtZUBteWhvc3QubXlkb21haW6CCQDPNYXugL8qPjATBgNVHSUE
DDAKBggrBgEFBQcDAjALBgNVHQ8EBAMCB4AwDQYJKoZIhvcNAQEEBQADggIBAN6j
GgihFbjqwwVkU/0Rb9FB4FuHF+e73H3nJe8S4Gz0o8glj2WKPNSbxgmAjAc4jJ7j
+YDCZ36+X/t4CCe5QL7qYPRSbCsPp6ZhiEzkXHkSUg7j3ciQQWoiIsBE+UlgJNNv
roqvkjAlfcroFCUV3XmHPnlqXDoiXWio/IPa1HU5uGZ+pSVJH6wz27rhw8uV6hK6
psZHRx3MjMQVUGAcO2lP+zqWMyNZGmHkA4SvUtYkTO5aCNT7S48NkRaAtOaittdZ
F/3RgoUGfG8Jy21papH2tRdhTgc0sWBWFdDKoe7s8YtsNjyAI76m57o7YSsjc1Ot
SOH38ahOYmmQkcLVr08Uh6S51vUcwzInvm3AnY33uzI7XUdOFJJpNPjZ/bVbGBOF
gkamIoREoAahQOWpD3GaxXJV26cUEslSpZ6M4v3GGObp6htLcF9Oe4+f2EEqjOmk
CrhCjvApSr0u5L5vvuM3MJZd2+0t1iCf5Pbaos9NiTcpouEqG84BRV5x6igiL6/z
BzxiLA5HN78RI1tQ7nOxeS9faAuuzpF2wzMU96m5zfMeqO//r5uJKQv3qKQAGOmo
PyJjQe9fV8GvklHufhI/5uyDwjOE/vC5/eDZdzndlqT9jGBEbQDLv1DuVy3p4DtU
GcDVcCWrq2crzn4EJS9/1LsSOk0Y7KEVXyuoNgEz
-----END CERTIFICATE-----
