Certificate:
    Data:
        Version: 3 (0x2)
        Serial Number: 108 (0x6c)
    Signature Algorithm: md5WithRSAEncryption
        Issuer: C=US, ST=OH, L=Columbus, O=VikingVPN, OU=MyOrganizationalUnit, CN=VikingVPN CA/name=EasyRSA/emailAddress=me@myhost.mydomain
        Validity
            Not Before: Sep  1 16:45:57 2013 GMT
            Not After : Aug 30 16:45:57 2023 GMT
        Subject: CN=Client70Cert4c2d18
        Subject Public Key Info:
            Public Key Algorithm: rsaEncryption
                Public-Key: (4096 bit)
                Modulus:
                    00:dd:d0:60:89:2b:c0:3e:84:d7:e6:83:6b:ca:a6:
                    69:f6:81:95:de:22:88:88:84:23:a0:bf:c7:75:04:
                    e0:f2:79:bf:fc:34:29:15:ff:e2:4b:3d:a4:e4:ce:
                    37:92:7e:d6:71:09:c0:30:d7:3d:5f:aa:63:7c:d7:
                    8a:60:39:75:e4:6b:17:ff:eb:c1:26:f2:fc:ff:4c:
                    02:7d:a6:9d:b0:5a:58:78:8f:5e:d0:ac:be:52:aa:
                    6c:81:03:77:cd:c3:17:67:b1:f3:03:ac:c3:d0:e8:
                    0c:65:bc:59:72:d0:b9:cd:db:85:17:e2:ed:04:8f:
                    ff:32:43:77:94:dd:85:1f:a8:d8:bb:cd:04:f4:4f:
                    ae:53:5e:3c:af:53:ef:8b:27:56:fd:15:83:57:c2:
                    37:0a:6b:62:29:52:46:18:07:0b:c1:03:05:b6:2c:
                    20:29:03:77:ec:e6:c5:6a:aa:96:73:8b:07:1d:c1:
                    32:c6:28:9c:d2:8c:dc:92:c9:c6:7a:30:b5:a1:18:
                    17:1f:78:30:53:30:4b:c9:f9:e2:8b:a3:14:0f:df:
                    1c:45:71:db:5f:1c:69:ae:3a:ac:df:39:1c:f2:a6:
                    72:6e:1c:e3:14:51:87:3e:eb:08:af:8b:90:b8:8f:
                    d6:da:be:19:f3:5f:d9:14:81:55:db:13:32:9d:35:
                    73:18:df:bb:c6:36:4a:d3:1d:c6:fd:b5:7d:38:51:
                    3c:32:03:74:e0:b2:10:b5:3a:62:76:25:3a:4f:e6:
                    9d:75:b1:5c:d6:d4:b6:4b:04:6e:34:92:d0:59:af:
                    22:ad:59:44:7a:37:68:dc:83:5a:6f:a6:10:80:40:
                    28:fd:e4:15:81:66:a5:92:68:63:c6:2b:a5:b3:4b:
                    23:1e:9d:a6:3e:a1:40:ac:d6:eb:99:d5:a1:fe:c2:
                    fe:bd:b1:16:b1:02:5a:30:d3:36:e4:08:0d:12:ab:
                    5b:e5:8f:6a:47:07:9a:ff:44:45:f8:45:73:cf:b7:
                    cc:4e:a3:b6:b7:a4:a5:6a:41:03:84:21:24:c3:63:
                    2a:47:83:e0:12:bb:21:86:0b:59:7a:28:a5:dd:c6:
                    3c:38:e7:25:b7:5a:28:fc:52:b2:d8:d7:97:02:01:
                    15:d9:f8:44:0b:70:5f:90:92:b4:46:34:e2:ec:54:
                    83:19:53:50:f3:39:5b:75:fc:33:85:af:2c:bf:28:
                    0a:99:8f:58:01:d3:d1:6a:02:1b:10:d3:f8:3e:86:
                    44:61:55:c5:cc:f3:a4:0b:43:c3:13:c7:e3:4c:9f:
                    a6:86:b9:0d:32:80:51:9f:5f:b2:f5:b4:8c:e5:25:
                    2d:df:d7:ab:f0:5e:95:93:a3:f0:c6:01:24:8c:a1:
                    f9:06:55
                Exponent: 65537 (0x10001)
        X509v3 extensions:
            X509v3 Basic Constraints: 
                CA:FALSE
            Netscape Comment: 
                Easy-RSA Generated Certificate
            X509v3 Subject Key Identifier: 
                15:B6:80:67:6F:9F:7D:A7:3A:0A:73:DD:96:C9:0C:CC:C4:EF:68:CD
            X509v3 Authority Key Identifier: 
                keyid:12:CD:60:04:D2:A0:80:9E:70:ED:C6:99:B8:7B:2C:C6:52:FD:19:A1
                DirName:/C=US/ST=OH/L=Columbus/O=VikingVPN/OU=MyOrganizationalUnit/CN=VikingVPN CA/name=EasyRSA/emailAddress=me@myhost.mydomain
                serial:CF:35:85:EE:80:BF:2A:3E

            X509v3 Extended Key Usage: 
                TLS Web Client Authentication
            X509v3 Key Usage: 
                Digital Signature
    Signature Algorithm: md5WithRSAEncryption
         2d:9c:80:06:cb:c3:05:c9:4b:31:e4:51:58:b8:82:ad:51:e4:
         03:f9:a1:31:79:c8:2f:79:09:03:c7:45:9e:69:6d:b7:09:4c:
         51:b5:75:aa:2c:43:0f:34:6e:d9:f8:17:f7:f2:0d:cb:a6:fc:
         4c:bf:47:e1:b8:5b:7b:c6:15:87:82:00:9b:a0:ad:3a:7e:d9:
         6a:17:95:87:01:0f:1b:10:81:5d:61:95:84:5a:55:77:d6:52:
         1f:4b:46:d9:af:6a:3f:56:2f:7c:29:40:b4:53:53:d7:44:43:
         e0:98:1e:c7:00:77:5b:26:0b:64:2e:07:fc:0b:39:46:a8:81:
         5d:9c:ba:ff:cd:fa:db:14:63:16:33:49:4f:c4:bf:ea:a2:91:
         27:03:03:04:90:52:f9:da:68:3b:e2:e0:0f:06:3f:4c:f7:65:
         7c:95:d3:b4:c4:e7:14:aa:f7:a7:b6:b0:52:2a:3b:1f:e5:57:
         08:f5:14:ba:a6:9d:2f:7c:fd:03:0c:14:70:11:59:4b:fe:d1:
         f7:8a:06:9e:48:a8:7e:b2:ba:02:bb:08:ff:a7:91:d7:8d:4e:
         59:4d:6f:74:48:7d:4a:ea:18:3a:f5:7e:75:70:8b:dd:0e:fe:
         0a:14:4d:80:2f:d3:e7:f6:f8:f6:14:e0:c2:f1:54:25:31:7d:
         be:c1:7f:42:61:f0:d2:e7:c0:56:c5:6c:79:fb:e3:2c:77:e1:
         05:b0:f9:55:63:ef:9d:66:4f:43:b3:6d:d2:e4:6e:f7:77:8b:
         d8:2a:d1:a2:e6:7d:49:11:cf:34:4a:a2:ce:79:e9:44:8e:90:
         32:55:f5:e2:29:3e:71:1a:2b:c8:b1:f0:be:56:0b:cc:14:23:
         69:c4:6c:96:a7:35:89:97:20:50:bc:61:29:c1:c9:d4:1a:fb:
         52:c0:ca:b2:bd:a0:e5:04:bd:13:dc:15:44:b9:54:f4:fd:e6:
         c3:c8:74:b4:8c:dc:52:0e:55:5e:30:85:d9:94:75:22:64:69:
         a3:1c:07:3f:b9:22:ac:4d:80:54:47:df:ff:90:29:e6:03:70:
         75:12:ce:24:18:77:d8:53:8d:be:aa:e0:88:54:b3:63:c5:70:
         1e:1a:d3:41:43:47:06:26:7e:c5:96:08:a4:09:11:0c:21:da:
         72:03:a1:61:f6:e8:71:89:fc:44:5c:17:22:1d:35:c7:f6:98:
         72:93:ea:58:68:4c:96:cb:b2:17:70:7b:61:7c:3f:d2:be:f9:
         69:32:a0:b8:bc:d0:82:e1:c5:84:d2:63:b0:36:ce:1f:4e:ac:
         e6:97:c9:af:79:7d:c1:59:70:7f:5b:5e:a6:a1:b2:70:ff:01:
         f1:4a:9d:34:23:cc:30:68
-----BEGIN CERTIFICATE-----
MIIGqjCCBJKgAwIBAgIBbDANBgkqhkiG9w0BAQQFADCBrDELMAkGA1UEBhMCVVMx
CzAJBgNVBAgTAk9IMREwDwYDVQQHEwhDb2x1bWJ1czESMBAGA1UEChMJVmlraW5n
VlBOMR0wGwYDVQQLExRNeU9yZ2FuaXphdGlvbmFsVW5pdDEVMBMGA1UEAxMMVmlr
aW5nVlBOIENBMRAwDgYDVQQpEwdFYXN5UlNBMSEwHwYJKoZIhvcNAQkBFhJtZUBt
eWhvc3QubXlkb21haW4wHhcNMTMwOTAxMTY0NTU3WhcNMjMwODMwMTY0NTU3WjAd
MRswGQYDVQQDExJDbGllbnQ3MENlcnQ0YzJkMTgwggIiMA0GCSqGSIb3DQEBAQUA
A4ICDwAwggIKAoICAQDd0GCJK8A+hNfmg2vKpmn2gZXeIoiIhCOgv8d1BODyeb/8
NCkV/+JLPaTkzjeSftZxCcAw1z1fqmN814pgOXXkaxf/68Em8vz/TAJ9pp2wWlh4
j17QrL5SqmyBA3fNwxdnsfMDrMPQ6AxlvFly0LnN24UX4u0Ej/8yQ3eU3YUfqNi7
zQT0T65TXjyvU++LJ1b9FYNXwjcKa2IpUkYYBwvBAwW2LCApA3fs5sVqqpZziwcd
wTLGKJzSjNySycZ6MLWhGBcfeDBTMEvJ+eKLoxQP3xxFcdtfHGmuOqzfORzypnJu
HOMUUYc+6wivi5C4j9bavhnzX9kUgVXbEzKdNXMY37vGNkrTHcb9tX04UTwyA3Tg
shC1OmJ2JTpP5p11sVzW1LZLBG40ktBZryKtWUR6N2jcg1pvphCAQCj95BWBZqWS
aGPGK6WzSyMenaY+oUCs1uuZ1aH+wv69sRaxAlow0zbkCA0Sq1vlj2pHB5r/REX4
RXPPt8xOo7a3pKVqQQOEISTDYypHg+ASuyGGC1l6KKXdxjw45yW3Wij8UrLY15cC
ARXZ+EQLcF+QkrRGNOLsVIMZU1DzOVt1/DOFryy/KAqZj1gB09FqAhsQ0/g+hkRh
VcXM86QLQ8MTx+NMn6aGuQ0ygFGfX7L1tIzlJS3f16vwXpWTo/DGASSMofkGVQID
AQABo4IBYzCCAV8wCQYDVR0TBAIwADAtBglghkgBhvhCAQ0EIBYeRWFzeS1SU0Eg
R2VuZXJhdGVkIENlcnRpZmljYXRlMB0GA1UdDgQWBBQVtoBnb599pzoKc92WyQzM
xO9ozTCB4QYDVR0jBIHZMIHWgBQSzWAE0qCAnnDtxpm4eyzGUv0ZoaGBsqSBrzCB
rDELMAkGA1UEBhMCVVMxCzAJBgNVBAgTAk9IMREwDwYDVQQHEwhDb2x1bWJ1czES
MBAGA1UEChMJVmlraW5nVlBOMR0wGwYDVQQLExRNeU9yZ2FuaXphdGlvbmFsVW5p
dDEVMBMGA1UEAxMMVmlraW5nVlBOIENBMRAwDgYDVQQpEwdFYXN5UlNBMSEwHwYJ
KoZIhvcNAQkBFhJtZUBteWhvc3QubXlkb21haW6CCQDPNYXugL8qPjATBgNVHSUE
DDAKBggrBgEFBQcDAjALBgNVHQ8EBAMCB4AwDQYJKoZIhvcNAQEEBQADggIBAC2c
gAbLwwXJSzHkUVi4gq1R5AP5oTF5yC95CQPHRZ5pbbcJTFG1daosQw80btn4F/fy
Dcum/Ey/R+G4W3vGFYeCAJugrTp+2WoXlYcBDxsQgV1hlYRaVXfWUh9LRtmvaj9W
L3wpQLRTU9dEQ+CYHscAd1smC2QuB/wLOUaogV2cuv/N+tsUYxYzSU/Ev+qikScD
AwSQUvnaaDvi4A8GP0z3ZXyV07TE5xSq96e2sFIqOx/lVwj1FLqmnS98/QMMFHAR
WUv+0feKBp5IqH6yugK7CP+nkdeNTllNb3RIfUrqGDr1fnVwi90O/goUTYAv0+f2
+PYU4MLxVCUxfb7Bf0Jh8NLnwFbFbHn74yx34QWw+VVj751mT0OzbdLkbvd3i9gq
0aLmfUkRzzRKos556USOkDJV9eIpPnEaK8ix8L5WC8wUI2nEbJanNYmXIFC8YSnB
ydQa+1LAyrK9oOUEvRPcFUS5VPT95sPIdLSM3FIOVV4whdmUdSJkaaMcBz+5IqxN
gFRH3/+QKeYDcHUSziQYd9hTjb6q4IhUs2PFcB4a00FDRwYmfsWWCKQJEQwh2nID
oWH26HGJ/ERcFyIdNcf2mHKT6lhoTJbLshdwe2F8P9K++WkyoLi80ILhxYTSY7A2
zh9OrOaXya95fcFZcH9bXqahsnD/AfFKnTQjzDBo
-----END CERTIFICATE-----
