Certificate:
    Data:
        Version: 3 (0x2)
        Serial Number: 115 (0x73)
    Signature Algorithm: md5WithRSAEncryption
        Issuer: C=US, ST=OH, L=Columbus, O=VikingVPN, OU=MyOrganizationalUnit, CN=VikingVPN CA/name=EasyRSA/emailAddress=me@myhost.mydomain
        Validity
            Not Before: Sep  1 18:34:36 2013 GMT
            Not After : Aug 30 18:34:36 2023 GMT
        Subject: CN=Client1Cert4ecd9b
        Subject Public Key Info:
            Public Key Algorithm: rsaEncryption
                Public-Key: (4096 bit)
                Modulus:
                    00:c5:b3:7f:61:37:14:97:51:84:ba:b3:e0:fe:88:
                    0a:13:4f:f2:a7:83:a3:11:da:0e:25:f8:ca:64:69:
                    95:5b:1d:37:1c:88:94:15:c6:ef:b0:cd:31:fa:24:
                    38:44:f8:db:6b:7b:c6:12:dc:5a:82:61:d8:7b:83:
                    ec:2f:80:6d:d5:03:42:72:40:4b:ae:ff:bd:65:c0:
                    fb:8a:07:a2:1c:5b:fe:57:f7:fa:cb:36:a3:dc:85:
                    79:3b:b4:e3:4f:06:05:32:f5:91:70:45:ad:7f:52:
                    7f:5c:d8:16:f7:2a:af:39:d2:47:2b:45:e1:11:e1:
                    f4:b0:69:25:c6:9f:cc:c0:45:0a:6b:5c:c7:f8:d3:
                    ac:f9:61:ec:78:dd:21:b7:5c:5e:8d:78:e9:81:6a:
                    a7:53:f1:53:4a:2f:c1:65:17:44:3d:dc:3a:ec:50:
                    bd:d3:5e:b4:bf:46:22:2e:6c:e7:8b:30:fa:c1:ab:
                    0c:3d:a6:7b:c6:52:a9:04:4f:c2:63:29:1e:47:0c:
                    7b:c9:03:4b:80:70:8e:2e:1e:a1:e8:e2:a9:60:e0:
                    83:91:77:5c:fa:ba:f2:01:c6:32:cf:b0:ba:80:91:
                    fe:ca:8e:5f:97:96:17:b7:19:cb:e9:b3:7f:2e:50:
                    9a:0e:fb:27:ee:d4:03:4a:f6:07:74:36:7a:ad:9a:
                    3a:cb:08:49:02:7f:02:60:f3:5b:2b:54:e0:e3:3f:
                    46:15:a7:a9:21:02:ff:47:e3:27:5c:c9:13:29:82:
                    73:7c:b2:2a:93:aa:30:c4:f8:b1:f1:95:8d:19:05:
                    fd:7c:48:0e:89:08:e3:e7:8d:5a:6b:b5:b9:90:f2:
                    b5:88:f9:2a:28:b1:a4:3c:27:43:bf:69:85:c4:00:
                    ee:02:a1:a9:3c:63:c0:9e:02:54:8e:09:06:3c:52:
                    fb:a4:f5:f9:39:67:1a:3b:a1:ed:44:0a:b1:9f:52:
                    54:06:08:49:3f:2a:5a:78:41:90:13:5b:08:ce:7c:
                    0f:cb:db:da:ea:d2:cc:57:a4:cd:74:fb:d8:bf:de:
                    85:40:dc:3f:6f:ce:9e:e0:fe:97:30:ea:3f:c6:65:
                    8e:6c:4a:f1:81:5f:46:ae:00:ce:02:10:93:64:8b:
                    82:7c:84:58:3c:36:0c:61:7c:45:c4:18:21:ac:e0:
                    fc:12:21:f0:27:5a:20:b1:b4:52:ba:84:07:c5:f9:
                    8c:39:1e:f5:42:6d:f8:f7:0f:bc:ac:ec:05:6a:ba:
                    e1:b9:46:2e:6d:b1:44:77:7f:db:ec:2a:61:d6:2f:
                    2d:59:f4:50:d9:09:a2:ca:e0:1d:76:6a:c4:71:d0:
                    ec:36:bc:68:f0:fd:2d:a4:82:4d:96:4c:2e:1a:5e:
                    03:1b:2f
                Exponent: 65537 (0x10001)
        X509v3 extensions:
            X509v3 Basic Constraints: 
                CA:FALSE
            Netscape Comment: 
                Easy-RSA Generated Certificate
            X509v3 Subject Key Identifier: 
                58:DB:26:29:B3:91:3C:58:D9:05:A8:36:79:E1:AA:1F:7A:95:A3:9A
            X509v3 Authority Key Identifier: 
                keyid:12:CD:60:04:D2:A0:80:9E:70:ED:C6:99:B8:7B:2C:C6:52:FD:19:A1
                DirName:/C=US/ST=OH/L=Columbus/O=VikingVPN/OU=MyOrganizationalUnit/CN=VikingVPN CA/name=EasyRSA/emailAddress=me@myhost.mydomain
                serial:CF:35:85:EE:80:BF:2A:3E

            X509v3 Extended Key Usage: 
                TLS Web Client Authentication
            X509v3 Key Usage: 
                Digital Signature
    Signature Algorithm: md5WithRSAEncryption
         93:22:c3:01:a7:6b:83:9d:6f:e0:3b:f4:f1:b5:e0:05:be:b3:
         c1:67:21:39:ed:0a:39:19:5f:33:74:84:b7:91:ae:60:f1:f2:
         47:c2:8e:9a:16:91:df:26:92:ee:72:3f:7d:f4:10:1d:7d:b8:
         ee:6d:f5:08:df:8b:2e:98:56:3f:27:29:e5:5e:a0:0d:93:fe:
         11:44:23:f2:cd:4a:6d:8e:e5:f7:30:e6:d7:55:3c:5b:a6:50:
         79:25:55:b4:b8:cc:b0:89:4f:05:40:2a:4e:2c:21:9c:e8:ab:
         69:45:e1:e7:f5:15:21:6a:2d:5f:8c:96:36:b3:4f:71:8e:f6:
         b3:28:15:05:5e:87:cd:2c:ad:68:cc:dc:db:79:70:c4:f6:6e:
         94:9c:9f:62:88:76:9f:ca:25:41:71:c8:3b:50:96:1f:fc:55:
         8d:f5:d7:5e:1b:85:7d:9f:2e:77:6c:8f:1e:01:c2:b3:35:1f:
         e5:3a:35:53:40:85:44:c1:85:22:a5:61:2c:0b:10:48:79:6f:
         57:0e:79:dd:36:3c:9a:ba:2d:57:14:4c:f0:22:13:bf:d2:94:
         6d:81:e0:2e:f8:34:82:ab:32:8a:95:c2:99:00:f5:0e:f3:77:
         70:97:54:1f:59:9d:0d:dc:cf:45:2a:36:17:b2:97:cb:42:8a:
         81:5e:7d:6b:02:8e:72:27:cb:e5:d4:45:b5:d7:2a:23:ee:b7:
         a3:2d:97:f7:6b:6b:8c:96:a5:b9:a9:c7:f6:6e:21:09:c9:6a:
         aa:6d:bc:00:3d:95:ba:f9:88:94:5a:1c:5d:67:b6:b3:27:be:
         59:60:6b:5c:f5:b0:eb:ce:df:1a:9f:7b:85:44:6d:8e:43:c4:
         91:08:0d:f3:5a:61:8c:ae:3a:53:aa:1f:aa:a5:fc:a0:25:56:
         00:15:20:22:85:5f:b5:06:be:77:5f:cd:5e:14:c0:01:02:7b:
         64:d0:fa:9d:c4:b4:91:9b:b0:8b:a4:97:dd:b7:b2:45:44:71:
         20:12:04:1b:08:34:ed:44:e7:56:d7:2a:08:76:84:1f:b3:a2:
         01:4f:b7:0c:47:bd:79:6b:eb:cf:c6:3b:a1:c6:98:e7:0e:9a:
         ea:d1:b3:b1:71:8d:5a:0d:94:cf:21:aa:fc:0b:e7:c3:96:b4:
         85:ab:4c:0c:12:9f:f8:d5:bd:21:22:ed:52:96:c7:c5:60:0a:
         17:c1:6a:7b:66:88:66:76:ed:4e:33:7c:a3:fd:b3:7b:86:16:
         a6:72:8e:a1:87:53:a8:c2:5f:e2:e4:77:bb:af:c9:47:20:4b:
         e2:12:21:d1:82:9c:7f:28:a2:a3:53:da:a2:18:dd:84:f7:d4:
         ba:35:98:08:f2:e7:71:ec
-----BEGIN CERTIFICATE-----
MIIGqTCCBJGgAwIBAgIBczANBgkqhkiG9w0BAQQFADCBrDELMAkGA1UEBhMCVVMx
CzAJBgNVBAgTAk9IMREwDwYDVQQHEwhDb2x1bWJ1czESMBAGA1UEChMJVmlraW5n
VlBOMR0wGwYDVQQLExRNeU9yZ2FuaXphdGlvbmFsVW5pdDEVMBMGA1UEAxMMVmlr
aW5nVlBOIENBMRAwDgYDVQQpEwdFYXN5UlNBMSEwHwYJKoZIhvcNAQkBFhJtZUBt
eWhvc3QubXlkb21haW4wHhcNMTMwOTAxMTgzNDM2WhcNMjMwODMwMTgzNDM2WjAc
MRowGAYDVQQDExFDbGllbnQxQ2VydDRlY2Q5YjCCAiIwDQYJKoZIhvcNAQEBBQAD
ggIPADCCAgoCggIBAMWzf2E3FJdRhLqz4P6IChNP8qeDoxHaDiX4ymRplVsdNxyI
lBXG77DNMfokOET422t7xhLcWoJh2HuD7C+AbdUDQnJAS67/vWXA+4oHohxb/lf3
+ss2o9yFeTu0408GBTL1kXBFrX9Sf1zYFvcqrznSRytF4RHh9LBpJcafzMBFCmtc
x/jTrPlh7HjdIbdcXo146YFqp1PxU0ovwWUXRD3cOuxQvdNetL9GIi5s54sw+sGr
DD2me8ZSqQRPwmMpHkcMe8kDS4Bwji4eoejiqWDgg5F3XPq68gHGMs+wuoCR/sqO
X5eWF7cZy+mzfy5Qmg77J+7UA0r2B3Q2eq2aOssISQJ/AmDzWytU4OM/RhWnqSEC
/0fjJ1zJEymCc3yyKpOqMMT4sfGVjRkF/XxIDokI4+eNWmu1uZDytYj5KiixpDwn
Q79phcQA7gKhqTxjwJ4CVI4JBjxS+6T1+TlnGjuh7UQKsZ9SVAYIST8qWnhBkBNb
CM58D8vb2urSzFekzXT72L/ehUDcP2/OnuD+lzDqP8ZljmxK8YFfRq4AzgIQk2SL
gnyEWDw2DGF8RcQYIazg/BIh8CdaILG0UrqEB8X5jDke9UJt+PcPvKzsBWq64blG
Lm2xRHd/2+wqYdYvLVn0UNkJosrgHXZqxHHQ7Da8aPD9LaSCTZZMLhpeAxsvAgMB
AAGjggFjMIIBXzAJBgNVHRMEAjAAMC0GCWCGSAGG+EIBDQQgFh5FYXN5LVJTQSBH
ZW5lcmF0ZWQgQ2VydGlmaWNhdGUwHQYDVR0OBBYEFFjbJimzkTxY2QWoNnnhqh96
laOaMIHhBgNVHSMEgdkwgdaAFBLNYATSoICecO3Gmbh7LMZS/RmhoYGypIGvMIGs
MQswCQYDVQQGEwJVUzELMAkGA1UECBMCT0gxETAPBgNVBAcTCENvbHVtYnVzMRIw
EAYDVQQKEwlWaWtpbmdWUE4xHTAbBgNVBAsTFE15T3JnYW5pemF0aW9uYWxVbml0
MRUwEwYDVQQDEwxWaWtpbmdWUE4gQ0ExEDAOBgNVBCkTB0Vhc3lSU0ExITAfBgkq
hkiG9w0BCQEWEm1lQG15aG9zdC5teWRvbWFpboIJAM81he6Avyo+MBMGA1UdJQQM
MAoGCCsGAQUFBwMCMAsGA1UdDwQEAwIHgDANBgkqhkiG9w0BAQQFAAOCAgEAkyLD
Aadrg51v4Dv08bXgBb6zwWchOe0KORlfM3SEt5GuYPHyR8KOmhaR3yaS7nI/ffQQ
HX247m31CN+LLphWPycp5V6gDZP+EUQj8s1KbY7l9zDm11U8W6ZQeSVVtLjMsIlP
BUAqTiwhnOiraUXh5/UVIWotX4yWNrNPcY72sygVBV6HzSytaMzc23lwxPZulJyf
Yoh2n8olQXHIO1CWH/xVjfXXXhuFfZ8ud2yPHgHCszUf5To1U0CFRMGFIqVhLAsQ
SHlvVw553TY8mrotVxRM8CITv9KUbYHgLvg0gqsyipXCmQD1DvN3cJdUH1mdDdzP
RSo2F7KXy0KKgV59awKOcifL5dRFtdcqI+63oy2X92trjJaluanH9m4hCclqqm28
AD2VuvmIlFocXWe2sye+WWBrXPWw687fGp97hURtjkPEkQgN81phjK46U6ofqqX8
oCVWABUgIoVftQa+d1/NXhTAAQJ7ZND6ncS0kZuwi6SX3beyRURxIBIEGwg07UTn
VtcqCHaEH7OiAU+3DEe9eWvrz8Y7ocaY5w6a6tGzsXGNWg2UzyGq/Avnw5a0hatM
DBKf+NW9ISLtUpbHxWAKF8Fqe2aIZnbtTjN8o/2ze4YWpnKOoYdTqMJf4uR3u6/J
RyBL4hIh0YKcfyiio1PaohjdhPfUujWYCPLncew=
-----END CERTIFICATE-----
