Certificate:
    Data:
        Version: 3 (0x2)
        Serial Number: 139 (0x8b)
    Signature Algorithm: md5WithRSAEncryption
        Issuer: C=US, ST=OH, L=Columbus, O=VikingVPN, OU=MyOrganizationalUnit, CN=VikingVPN CA/name=EasyRSA/emailAddress=me@myhost.mydomain
        Validity
            Not Before: Sep  7 05:38:01 2013 GMT
            Not After : Sep  5 05:38:01 2023 GMT
        Subject: CN=Client81Cert358979
        Subject Public Key Info:
            Public Key Algorithm: rsaEncryption
                Public-Key: (4096 bit)
                Modulus:
                    00:b7:12:5d:24:0e:a7:2b:c4:d7:db:33:d0:a2:80:
                    db:dd:e1:e1:05:11:72:80:29:d8:1a:bc:dd:02:29:
                    3b:82:8c:65:c4:cb:20:c1:e8:06:a3:57:15:8d:f4:
                    51:a2:fd:d2:1d:51:7f:dc:64:54:0c:b4:77:c9:12:
                    d0:c6:67:1d:a7:be:2f:be:e7:bf:ce:c4:98:dd:68:
                    c4:ee:d0:b6:5e:75:18:cc:e2:09:de:6c:8d:d6:73:
                    30:59:5f:25:c4:c4:8a:7c:bd:47:06:ab:f7:85:eb:
                    0d:29:63:04:d4:89:61:6d:80:7c:95:f4:28:f0:e9:
                    f7:2e:30:a3:9f:55:4d:02:4b:4b:d6:f1:59:f4:c7:
                    1f:56:bb:99:b4:c9:e4:19:0f:a9:2f:b7:94:a1:58:
                    1c:f1:03:f5:8f:0b:17:8f:40:e6:a8:bc:a3:42:92:
                    c3:a7:9c:86:b0:55:8b:d9:f5:fe:d6:68:49:12:cd:
                    7d:d2:4a:25:83:3b:c5:d8:b1:8c:c5:9d:34:b6:5f:
                    ab:1d:45:ad:5e:f6:5a:f4:b2:a1:91:d5:74:73:7e:
                    1a:a1:66:84:47:a7:4e:2c:6d:11:0f:4e:e4:82:39:
                    86:67:1d:94:1c:00:ba:f7:ef:be:64:97:1c:e9:7d:
                    d2:a4:70:f2:36:89:42:8b:c3:d6:3d:45:9c:09:a8:
                    e2:14:e5:ef:da:43:43:58:ca:57:1a:a8:5c:f8:13:
                    6a:84:e6:76:5f:05:bc:82:e4:7d:51:c2:9f:77:18:
                    4d:48:4f:0e:e6:30:23:af:01:9f:20:21:c9:71:6a:
                    aa:3e:98:15:10:60:21:f0:e7:76:dd:2a:35:a9:56:
                    41:a0:57:4b:02:e2:2b:f1:a2:20:cd:8f:de:ac:06:
                    cd:e5:47:d2:03:e1:58:ed:6e:cc:d2:f2:ea:c0:8e:
                    0a:9f:c8:94:28:78:c2:28:c1:fc:5f:db:e8:bb:c5:
                    0f:54:6f:7f:c9:51:13:b0:a5:4d:49:2f:b7:65:76:
                    54:02:9f:98:47:5f:6d:05:f2:54:d0:2f:25:12:e5:
                    48:cb:da:22:67:0c:9c:a1:18:62:30:a1:5d:4a:e3:
                    b3:22:2a:f9:a8:79:b5:49:99:92:eb:12:46:7d:cf:
                    fa:90:0f:a2:19:1f:c2:ba:e1:de:fb:33:1b:93:d7:
                    a1:9e:69:44:cd:6c:b1:7d:9a:7b:0a:f2:3f:04:db:
                    5b:c3:47:53:81:9d:a4:a4:36:7c:9d:9f:c5:40:a8:
                    d7:83:99:30:8e:9c:f8:21:12:47:8d:72:ab:ee:59:
                    7b:50:63:9d:81:f7:7f:21:65:f7:57:1d:f2:13:a7:
                    f2:e2:ea:ff:c5:37:d0:ef:08:84:8d:6d:6b:f0:2f:
                    42:dd:61
                Exponent: 65537 (0x10001)
        X509v3 extensions:
            X509v3 Basic Constraints: 
                CA:FALSE
            Netscape Comment: 
                Easy-RSA Generated Certificate
            X509v3 Subject Key Identifier: 
                AC:24:96:35:10:37:A2:2B:50:3C:3E:46:DA:EB:D9:A5:82:E7:80:7A
            X509v3 Authority Key Identifier: 
                keyid:12:CD:60:04:D2:A0:80:9E:70:ED:C6:99:B8:7B:2C:C6:52:FD:19:A1
                DirName:/C=US/ST=OH/L=Columbus/O=VikingVPN/OU=MyOrganizationalUnit/CN=VikingVPN CA/name=EasyRSA/emailAddress=me@myhost.mydomain
                serial:CF:35:85:EE:80:BF:2A:3E

            X509v3 Extended Key Usage: 
                TLS Web Client Authentication
            X509v3 Key Usage: 
                Digital Signature
    Signature Algorithm: md5WithRSAEncryption
         21:b9:f8:f3:51:26:8a:3c:2e:12:79:7e:2d:09:e9:67:1a:4b:
         9b:45:6f:85:b0:50:09:b0:40:f6:02:ad:06:8e:4c:20:12:0f:
         9e:f6:15:c3:6e:c6:dd:34:c7:95:98:23:53:f5:ab:b2:66:6a:
         76:c8:c9:2b:47:08:78:49:94:7c:68:1c:d2:b3:85:32:68:c0:
         32:6d:32:60:39:13:b3:43:cd:14:e6:c2:58:ab:32:0c:bb:6f:
         fc:ad:3b:d0:b2:aa:b1:7c:00:00:f1:7b:eb:17:f0:a7:fa:9b:
         58:14:b1:47:98:2c:61:13:4f:a9:46:6c:53:30:3a:64:67:50:
         63:b5:d2:3b:e8:4d:2e:c1:6b:87:65:df:de:5d:75:51:41:85:
         63:6d:d8:7b:bc:00:96:02:21:5b:6c:a8:4c:e6:77:a2:7b:ae:
         97:58:16:17:1f:71:21:b0:78:28:eb:cf:3d:3c:43:33:30:e8:
         b4:e7:29:69:8e:58:6e:d9:9d:4b:41:ea:a5:37:46:86:18:f6:
         fb:28:84:7e:92:9d:ef:9a:22:6d:98:f6:37:78:bf:c2:99:30:
         85:5a:31:9d:22:22:bf:0d:c1:de:f6:0d:14:dd:3f:44:19:41:
         ac:66:e4:51:40:1c:d7:01:c6:61:6b:8b:7a:c5:1d:3c:f3:13:
         c1:4a:b6:bc:69:10:e4:eb:28:40:13:f0:df:29:84:20:c1:43:
         7a:ad:9b:a2:d0:57:ac:6d:30:aa:32:5b:ac:5a:68:11:bd:dc:
         af:16:9b:42:d1:cf:30:a9:aa:38:4b:18:5f:68:33:6c:09:58:
         4a:de:51:63:67:bc:7e:60:e4:2b:fc:8a:76:19:b2:2e:7a:f0:
         81:60:5d:91:79:85:d5:19:b7:12:27:b1:f0:e4:7b:02:d5:6b:
         7a:e3:cd:08:b6:e8:21:2c:8b:0b:c4:06:c9:81:64:33:1d:0d:
         de:5b:44:87:65:e9:84:fd:ea:db:84:47:63:ea:df:3f:cd:0e:
         f5:1e:aa:10:10:2e:37:37:ff:2e:3c:7e:97:f6:c4:41:c9:22:
         ce:1c:54:a2:86:95:89:d8:fd:25:75:82:28:70:aa:a1:15:8e:
         77:7e:e6:58:62:f7:c6:f2:8c:cb:59:3c:84:0d:88:62:45:3a:
         f8:fc:0c:c6:f9:2c:49:10:0c:c7:0a:78:03:0e:23:b0:37:a8:
         44:98:c6:f8:6c:23:2d:3f:c1:86:37:7d:54:98:43:60:3a:38:
         35:65:39:66:42:2b:1c:d5:87:c3:d2:5d:d2:7f:76:d1:a3:16:
         3f:19:27:81:5e:1d:40:58:3b:40:e9:81:4f:aa:37:23:1d:9a:
         46:9e:4e:2e:45:f6:64:2b
-----BEGIN CERTIFICATE-----
MIIGqzCCBJOgAwIBAgICAIswDQYJKoZIhvcNAQEEBQAwgawxCzAJBgNVBAYTAlVT
MQswCQYDVQQIEwJPSDERMA8GA1UEBxMIQ29sdW1idXMxEjAQBgNVBAoTCVZpa2lu
Z1ZQTjEdMBsGA1UECxMUTXlPcmdhbml6YXRpb25hbFVuaXQxFTATBgNVBAMTDFZp
a2luZ1ZQTiBDQTEQMA4GA1UEKRMHRWFzeVJTQTEhMB8GCSqGSIb3DQEJARYSbWVA
bXlob3N0Lm15ZG9tYWluMB4XDTEzMDkwNzA1MzgwMVoXDTIzMDkwNTA1MzgwMVow
HTEbMBkGA1UEAxMSQ2xpZW50ODFDZXJ0MzU4OTc5MIICIjANBgkqhkiG9w0BAQEF
AAOCAg8AMIICCgKCAgEAtxJdJA6nK8TX2zPQooDb3eHhBRFygCnYGrzdAik7goxl
xMsgwegGo1cVjfRRov3SHVF/3GRUDLR3yRLQxmcdp74vvue/zsSY3WjE7tC2XnUY
zOIJ3myN1nMwWV8lxMSKfL1HBqv3hesNKWME1IlhbYB8lfQo8On3LjCjn1VNAktL
1vFZ9McfVruZtMnkGQ+pL7eUoVgc8QP1jwsXj0DmqLyjQpLDp5yGsFWL2fX+1mhJ
Es190kolgzvF2LGMxZ00tl+rHUWtXvZa9LKhkdV0c34aoWaER6dOLG0RD07kgjmG
Zx2UHAC69+++ZJcc6X3SpHDyNolCi8PWPUWcCajiFOXv2kNDWMpXGqhc+BNqhOZ2
XwW8guR9UcKfdxhNSE8O5jAjrwGfICHJcWqqPpgVEGAh8Od23So1qVZBoFdLAuIr
8aIgzY/erAbN5UfSA+FY7W7M0vLqwI4Kn8iUKHjCKMH8X9vou8UPVG9/yVETsKVN
SS+3ZXZUAp+YR19tBfJU0C8lEuVIy9oiZwycoRhiMKFdSuOzIir5qHm1SZmS6xJG
fc/6kA+iGR/CuuHe+zMbk9ehnmlEzWyxfZp7CvI/BNtbw0dTgZ2kpDZ8nZ/FQKjX
g5kwjpz4IRJHjXKr7ll7UGOdgfd/IWX3Vx3yE6fy4ur/xTfQ7wiEjW1r8C9C3WEC
AwEAAaOCAWMwggFfMAkGA1UdEwQCMAAwLQYJYIZIAYb4QgENBCAWHkVhc3ktUlNB
IEdlbmVyYXRlZCBDZXJ0aWZpY2F0ZTAdBgNVHQ4EFgQUrCSWNRA3oitQPD5G2uvZ
pYLngHowgeEGA1UdIwSB2TCB1oAUEs1gBNKggJ5w7caZuHssxlL9GaGhgbKkga8w
gawxCzAJBgNVBAYTAlVTMQswCQYDVQQIEwJPSDERMA8GA1UEBxMIQ29sdW1idXMx
EjAQBgNVBAoTCVZpa2luZ1ZQTjEdMBsGA1UECxMUTXlPcmdhbml6YXRpb25hbFVu
aXQxFTATBgNVBAMTDFZpa2luZ1ZQTiBDQTEQMA4GA1UEKRMHRWFzeVJTQTEhMB8G
CSqGSIb3DQEJARYSbWVAbXlob3N0Lm15ZG9tYWluggkAzzWF7oC/Kj4wEwYDVR0l
BAwwCgYIKwYBBQUHAwIwCwYDVR0PBAQDAgeAMA0GCSqGSIb3DQEBBAUAA4ICAQAh
ufjzUSaKPC4SeX4tCelnGkubRW+FsFAJsED2Aq0GjkwgEg+e9hXDbsbdNMeVmCNT
9auyZmp2yMkrRwh4SZR8aBzSs4UyaMAybTJgOROzQ80U5sJYqzIMu2/8rTvQsqqx
fAAA8XvrF/Cn+ptYFLFHmCxhE0+pRmxTMDpkZ1BjtdI76E0uwWuHZd/eXXVRQYVj
bdh7vACWAiFbbKhM5neie66XWBYXH3EhsHgo6889PEMzMOi05ylpjlhu2Z1LQeql
N0aGGPb7KIR+kp3vmiJtmPY3eL/CmTCFWjGdIiK/DcHe9g0U3T9EGUGsZuRRQBzX
AcZha4t6xR088xPBSra8aRDk6yhAE/DfKYQgwUN6rZui0FesbTCqMlusWmgRvdyv
FptC0c8wqao4SxhfaDNsCVhK3lFjZ7x+YOQr/Ip2GbIuevCBYF2ReYXVGbcSJ7Hw
5HsC1Wt6480ItughLIsLxAbJgWQzHQ3eW0SHZemE/erbhEdj6t8/zQ71HqoQEC43
N/8uPH6X9sRBySLOHFSihpWJ2P0ldYIocKqhFY53fuZYYvfG8ozLWTyEDYhiRTr4
/AzG+SxJEAzHCngDDiOwN6hEmMb4bCMtP8GGN31UmENgOjg1ZTlmQisc1YfD0l3S
f3bRoxY/GSeBXh1AWDtA6YFPqjcjHZpGnk4uRfZkKw==
-----END CERTIFICATE-----
