Certificate:
    Data:
        Version: 3 (0x2)
        Serial Number: 142 (0x8e)
    Signature Algorithm: md5WithRSAEncryption
        Issuer: C=US, ST=OH, L=Columbus, O=VikingVPN, OU=MyOrganizationalUnit, CN=VikingVPN CA/name=EasyRSA/emailAddress=me@myhost.mydomain
        Validity
            Not Before: Sep  9 19:41:50 2013 GMT
            Not After : Sep  7 19:41:50 2023 GMT
        Subject: CN=Client83Cert7467a9
        Subject Public Key Info:
            Public Key Algorithm: rsaEncryption
                Public-Key: (4096 bit)
                Modulus:
                    00:b2:14:3e:2a:8f:9e:c6:aa:9d:3a:52:42:4b:fa:
                    66:5a:92:cd:fa:4c:2b:62:fe:c1:75:fd:4b:15:85:
                    3f:eb:56:30:b6:87:1a:3c:f5:c3:aa:d2:e3:5b:cb:
                    17:db:0f:d5:1f:49:9b:bb:f6:95:ae:e3:8e:e4:73:
                    0b:e8:b9:ba:e6:42:61:77:19:10:9d:f1:20:d9:60:
                    2f:96:ab:36:32:1b:c4:c3:45:9d:a5:d0:01:93:af:
                    41:a0:7a:f7:11:17:2a:6a:cb:17:df:41:c0:31:ea:
                    59:af:31:5f:02:2f:73:2c:3a:e8:cf:e3:8f:05:0c:
                    34:c9:5e:89:c0:4f:cd:2a:13:71:11:17:e4:00:1b:
                    02:33:05:da:f8:a6:74:09:2d:e8:06:6d:1f:71:58:
                    c4:60:58:9e:87:a5:f0:a3:06:79:53:ac:64:71:cb:
                    36:43:04:0b:d3:7a:b8:21:fe:ee:ed:33:8a:65:be:
                    5b:17:62:61:7d:9d:a2:d3:66:92:53:f6:6d:2b:f0:
                    c5:3d:d8:a5:4b:ba:e4:a3:5e:3a:e3:f7:25:57:4b:
                    95:23:05:e9:bb:dc:81:9e:12:6b:13:e2:d4:b5:e3:
                    6b:75:8e:78:93:0b:66:68:74:15:16:bc:13:2f:d3:
                    05:e0:9d:04:d0:4f:9b:60:07:3b:64:7a:a5:fa:b1:
                    d3:e0:bf:d3:4c:fa:4f:31:91:b6:ba:9f:27:be:a8:
                    99:56:4a:60:b8:2f:ac:b9:e4:5f:97:51:e8:10:5e:
                    da:de:d0:a7:22:34:9c:14:38:63:a7:58:91:79:15:
                    23:f0:1b:34:e4:4a:f5:30:8b:07:6c:2e:af:40:a8:
                    19:92:12:ac:a2:fc:6e:37:aa:da:f8:e1:ab:b1:3d:
                    58:7d:64:ea:b2:6e:06:ce:18:14:90:e8:e2:ed:3b:
                    a1:fb:2f:e4:f0:54:a3:cb:bc:ff:47:69:c3:69:7d:
                    bf:dc:63:77:5a:23:ce:f3:80:11:56:37:00:8a:d7:
                    e2:64:25:3c:40:64:ab:65:a8:60:f5:65:28:fb:ea:
                    62:5b:06:19:54:7d:69:78:16:4e:1d:7e:27:8c:cb:
                    93:3f:3c:b6:f5:f0:29:48:df:8e:f2:23:7c:75:f5:
                    59:b4:52:9e:d5:c2:bc:74:9f:60:be:a2:cb:96:6d:
                    18:af:20:85:0f:e0:b4:c0:93:5e:df:13:f0:f3:fb:
                    a1:2a:01:33:11:81:d4:10:f2:7c:20:b9:18:49:df:
                    c9:09:e7:41:4a:12:ac:49:89:b3:e4:90:18:a3:b7:
                    c6:04:2d:73:d3:f9:56:f9:da:67:0e:2a:85:6c:e5:
                    25:52:92:e6:1a:dd:09:ce:e1:de:9d:7b:07:24:ec:
                    63:d3:a1
                Exponent: 65537 (0x10001)
        X509v3 extensions:
            X509v3 Basic Constraints: 
                CA:FALSE
            Netscape Comment: 
                Easy-RSA Generated Certificate
            X509v3 Subject Key Identifier: 
                D0:86:BF:FB:22:EC:F7:8E:E0:C2:6C:C0:26:B3:7E:43:84:AD:5F:27
            X509v3 Authority Key Identifier: 
                keyid:12:CD:60:04:D2:A0:80:9E:70:ED:C6:99:B8:7B:2C:C6:52:FD:19:A1
                DirName:/C=US/ST=OH/L=Columbus/O=VikingVPN/OU=MyOrganizationalUnit/CN=VikingVPN CA/name=EasyRSA/emailAddress=me@myhost.mydomain
                serial:CF:35:85:EE:80:BF:2A:3E

            X509v3 Extended Key Usage: 
                TLS Web Client Authentication
            X509v3 Key Usage: 
                Digital Signature
    Signature Algorithm: md5WithRSAEncryption
         98:39:8e:96:04:3f:25:8b:cf:63:4c:a1:b7:56:72:ab:af:03:
         56:fb:06:f9:1d:0f:ab:ed:c0:b0:f5:ba:95:9a:60:cc:08:4c:
         18:0d:e4:2d:57:15:e2:85:27:10:33:b0:ec:52:25:cc:a6:e6:
         c0:f6:d5:d1:a4:15:9f:93:36:6f:b2:83:cf:5c:b4:d1:04:a4:
         94:a5:5a:f8:19:be:d1:f3:02:a3:f8:1e:78:8e:9b:01:b8:64:
         93:b3:34:ff:0b:51:13:42:9a:da:02:a1:d3:61:7b:3f:56:08:
         01:f4:ba:02:94:ad:61:ff:1d:1d:a2:cf:8c:02:f8:99:54:ac:
         fe:51:0a:97:44:b6:7a:5a:fa:88:18:17:26:d7:e3:ef:9b:7c:
         89:73:7a:5f:61:1e:92:c1:54:0d:6d:f6:7c:52:0b:21:a5:5c:
         88:f0:4c:ff:ab:0b:83:26:8a:3a:b7:21:bc:4d:37:37:aa:1a:
         91:ac:bc:07:de:98:93:f4:06:f9:64:a1:09:0b:f7:69:d0:79:
         f2:28:53:5b:a2:db:58:45:54:72:6d:06:20:78:cb:de:49:12:
         29:8a:c7:7a:67:8f:fe:d3:c5:71:a1:78:8d:95:e7:ef:df:8f:
         75:6c:2f:22:3c:89:90:39:7a:24:8f:80:a2:15:37:e6:fa:57:
         71:9e:e1:b2:20:e7:ea:d9:d5:d3:08:3e:4c:9c:e5:33:a4:fe:
         ea:fc:ed:dd:ce:8e:76:f8:60:7c:30:54:13:21:c7:c3:0e:b7:
         ff:95:58:39:d3:4a:61:a3:cb:37:f1:06:95:80:72:39:97:a4:
         70:b1:01:aa:a8:73:26:53:16:89:5a:ec:e2:ba:b9:88:91:35:
         58:2e:78:f2:95:c4:83:0b:22:b5:14:71:5c:cc:10:d3:ff:03:
         81:7c:1c:bb:5d:ee:cf:20:af:c6:7f:f0:12:7b:0d:ad:00:55:
         dc:55:d8:0f:4b:a3:0e:ed:51:94:f8:45:48:4e:96:59:72:fe:
         b3:10:2d:8b:79:2c:5c:3f:b1:59:9d:51:ce:8b:fe:ed:b8:17:
         24:80:aa:0a:6e:7e:4f:9b:71:13:0f:88:7e:58:65:ba:12:c0:
         d8:49:6f:c2:5e:ad:fa:39:4f:35:12:2c:f1:f6:46:14:80:d2:
         c1:16:58:f5:99:9c:1e:63:1e:f5:70:ca:45:d6:95:0f:65:6b:
         46:3a:05:4d:c4:fa:1b:6e:ff:27:11:42:41:de:d8:8a:27:5e:
         88:2b:b2:f4:33:25:03:4b:4e:82:85:39:60:45:04:1e:1c:42:
         be:f1:ec:7b:9d:5c:f7:52:06:3b:5f:06:4f:a6:d1:8f:3d:da:
         43:58:6d:ad:80:cd:43:28
-----BEGIN CERTIFICATE-----
MIIGqzCCBJOgAwIBAgICAI4wDQYJKoZIhvcNAQEEBQAwgawxCzAJBgNVBAYTAlVT
MQswCQYDVQQIEwJPSDERMA8GA1UEBxMIQ29sdW1idXMxEjAQBgNVBAoTCVZpa2lu
Z1ZQTjEdMBsGA1UECxMUTXlPcmdhbml6YXRpb25hbFVuaXQxFTATBgNVBAMTDFZp
a2luZ1ZQTiBDQTEQMA4GA1UEKRMHRWFzeVJTQTEhMB8GCSqGSIb3DQEJARYSbWVA
bXlob3N0Lm15ZG9tYWluMB4XDTEzMDkwOTE5NDE1MFoXDTIzMDkwNzE5NDE1MFow
HTEbMBkGA1UEAxMSQ2xpZW50ODNDZXJ0NzQ2N2E5MIICIjANBgkqhkiG9w0BAQEF
AAOCAg8AMIICCgKCAgEAshQ+Ko+exqqdOlJCS/pmWpLN+kwrYv7Bdf1LFYU/61Yw
tocaPPXDqtLjW8sX2w/VH0mbu/aVruOO5HML6Lm65kJhdxkQnfEg2WAvlqs2MhvE
w0WdpdABk69BoHr3ERcqassX30HAMepZrzFfAi9zLDroz+OPBQw0yV6JwE/NKhNx
ERfkABsCMwXa+KZ0CS3oBm0fcVjEYFieh6XwowZ5U6xkccs2QwQL03q4If7u7TOK
Zb5bF2JhfZ2i02aSU/ZtK/DFPdilS7rko1464/clV0uVIwXpu9yBnhJrE+LUteNr
dY54kwtmaHQVFrwTL9MF4J0E0E+bYAc7ZHql+rHT4L/TTPpPMZG2up8nvqiZVkpg
uC+sueRfl1HoEF7a3tCnIjScFDhjp1iReRUj8Bs05Er1MIsHbC6vQKgZkhKsovxu
N6ra+OGrsT1YfWTqsm4GzhgUkOji7Tuh+y/k8FSjy7z/R2nDaX2/3GN3WiPO84AR
VjcAitfiZCU8QGSrZahg9WUo++piWwYZVH1peBZOHX4njMuTPzy29fApSN+O8iN8
dfVZtFKe1cK8dJ9gvqLLlm0YryCFD+C0wJNe3xPw8/uhKgEzEYHUEPJ8ILkYSd/J
CedBShKsSYmz5JAYo7fGBC1z0/lW+dpnDiqFbOUlUpLmGt0JzuHenXsHJOxj06EC
AwEAAaOCAWMwggFfMAkGA1UdEwQCMAAwLQYJYIZIAYb4QgENBCAWHkVhc3ktUlNB
IEdlbmVyYXRlZCBDZXJ0aWZpY2F0ZTAdBgNVHQ4EFgQU0Ia/+yLs947gwmzAJrN+
Q4StXycwgeEGA1UdIwSB2TCB1oAUEs1gBNKggJ5w7caZuHssxlL9GaGhgbKkga8w
gawxCzAJBgNVBAYTAlVTMQswCQYDVQQIEwJPSDERMA8GA1UEBxMIQ29sdW1idXMx
EjAQBgNVBAoTCVZpa2luZ1ZQTjEdMBsGA1UECxMUTXlPcmdhbml6YXRpb25hbFVu
aXQxFTATBgNVBAMTDFZpa2luZ1ZQTiBDQTEQMA4GA1UEKRMHRWFzeVJTQTEhMB8G
CSqGSIb3DQEJARYSbWVAbXlob3N0Lm15ZG9tYWluggkAzzWF7oC/Kj4wEwYDVR0l
BAwwCgYIKwYBBQUHAwIwCwYDVR0PBAQDAgeAMA0GCSqGSIb3DQEBBAUAA4ICAQCY
OY6WBD8li89jTKG3VnKrrwNW+wb5HQ+r7cCw9bqVmmDMCEwYDeQtVxXihScQM7Ds
UiXMpubA9tXRpBWfkzZvsoPPXLTRBKSUpVr4Gb7R8wKj+B54jpsBuGSTszT/C1ET
QpraAqHTYXs/VggB9LoClK1h/x0dos+MAviZVKz+UQqXRLZ6WvqIGBcm1+Pvm3yJ
c3pfYR6SwVQNbfZ8UgshpVyI8Ez/qwuDJoo6tyG8TTc3qhqRrLwH3piT9Ab5ZKEJ
C/dp0HnyKFNbottYRVRybQYgeMveSRIpisd6Z4/+08VxoXiNlefv3491bC8iPImQ
OXokj4CiFTfm+ldxnuGyIOfq2dXTCD5MnOUzpP7q/O3dzo52+GB8MFQTIcfDDrf/
lVg500pho8s38QaVgHI5l6RwsQGqqHMmUxaJWuziurmIkTVYLnjylcSDCyK1FHFc
zBDT/wOBfBy7Xe7PIK/Gf/ASew2tAFXcVdgPS6MO7VGU+EVITpZZcv6zEC2LeSxc
P7FZnVHOi/7tuBckgKoKbn5Pm3ETD4h+WGW6EsDYSW/CXq36OU81Eizx9kYUgNLB
Flj1mZweYx71cMpF1pUPZWtGOgVNxPobbv8nEUJB3tiKJ16IK7L0MyUDS06ChTlg
RQQeHEK+8ex7nVz3UgY7XwZPptGPPdpDWG2tgM1DKA==
-----END CERTIFICATE-----
