Certificate:
    Data:
        Version: 3 (0x2)
        Serial Number: 152 (0x98)
    Signature Algorithm: md5WithRSAEncryption
        Issuer: C=US, ST=OH, L=Columbus, O=VikingVPN, OU=MyOrganizationalUnit, CN=VikingVPN CA/name=EasyRSA/emailAddress=me@myhost.mydomain
        Validity
            Not Before: Sep 10 23:19:32 2013 GMT
            Not After : Sep  8 23:19:32 2023 GMT
        Subject: CN=Client1Cert6b40ed
        Subject Public Key Info:
            Public Key Algorithm: rsaEncryption
                Public-Key: (4096 bit)
                Modulus:
                    00:ca:3e:19:8e:a4:c8:58:f6:08:a5:19:f6:4b:05:
                    b5:23:38:9e:6f:5b:52:cf:ab:95:e3:a4:c4:8a:0b:
                    b1:f2:66:15:56:fd:9b:7f:69:75:c0:d4:68:fc:2b:
                    79:12:c3:10:97:04:d1:6d:e9:f1:70:7b:14:2a:bc:
                    7d:67:c6:e8:5f:14:5d:71:9d:0a:f6:24:85:aa:5a:
                    69:36:9f:0c:1b:71:f8:90:4e:c2:2e:f6:85:be:c8:
                    9d:f5:d2:c0:46:1b:0d:c9:29:28:6d:74:cd:59:07:
                    88:af:80:75:67:52:47:c1:34:d7:fa:5d:23:ee:2d:
                    80:5b:1c:48:35:6e:30:93:56:e0:28:a5:a3:a9:8e:
                    bb:6e:9d:34:22:fb:d6:79:5f:e8:97:bd:79:3c:fd:
                    96:c9:18:d3:6e:f6:e3:10:35:97:bf:db:bf:d2:5f:
                    16:aa:26:b8:0a:c4:0a:ad:25:a2:7b:0b:6d:8b:df:
                    ab:2b:c3:c3:75:53:24:5a:98:53:b2:34:33:a5:bb:
                    90:70:a0:03:10:d3:73:db:c1:00:be:d9:fd:84:c4:
                    aa:93:0e:ab:e2:e4:f7:d3:43:53:56:7c:6a:a4:99:
                    69:24:55:71:6d:f2:27:c7:6b:a4:73:99:a7:e4:ce:
                    e0:e8:21:d9:e3:63:c3:2e:8f:7f:08:de:09:2b:2b:
                    a4:fd:d2:97:38:76:06:6f:ec:3c:9a:b3:89:4d:b9:
                    4d:e4:c0:9b:c0:cc:d7:08:84:de:d5:30:be:2c:e5:
                    e9:61:63:38:73:db:67:25:41:38:5b:9c:77:01:7f:
                    2b:7a:f5:18:fe:dd:f5:3f:67:36:87:47:27:76:5d:
                    c5:94:f8:28:83:10:a6:09:33:ce:05:c7:c8:14:40:
                    db:1b:6e:04:f9:2c:33:e7:37:eb:29:5a:da:ec:04:
                    f6:e0:40:d0:ee:17:f9:ac:a7:6b:3d:11:c5:e8:66:
                    0b:0c:b6:8f:53:a9:10:cb:02:d1:ee:d2:c0:f6:c2:
                    c8:bc:ee:9c:01:c9:5e:0a:51:00:3e:7a:68:e1:4b:
                    0b:34:42:cc:0b:83:f2:fd:8f:71:76:c1:59:12:e3:
                    d8:03:31:5c:16:d1:be:51:fa:08:08:4d:92:1d:ba:
                    66:e5:41:b5:b6:a4:47:1d:3b:42:9a:38:7f:e3:7c:
                    9b:14:c5:35:8f:02:8e:fb:5a:11:44:bc:54:c9:c8:
                    ae:d4:b6:50:78:0c:48:f7:10:86:f8:92:c8:8a:d2:
                    b5:e7:27:29:75:24:31:e7:2a:d1:f2:e0:b9:3d:c6:
                    ac:cf:01:34:f1:56:b4:80:fc:c0:dd:44:99:20:15:
                    65:a3:cc:51:cb:42:50:16:6c:20:d0:ee:ae:45:36:
                    4d:ab:5b
                Exponent: 65537 (0x10001)
        X509v3 extensions:
            X509v3 Basic Constraints: 
                CA:FALSE
            Netscape Comment: 
                Easy-RSA Generated Certificate
            X509v3 Subject Key Identifier: 
                02:C9:C7:C6:C9:D2:36:89:D1:6E:E5:E1:61:6E:4A:1B:C4:5F:8A:1E
            X509v3 Authority Key Identifier: 
                keyid:12:CD:60:04:D2:A0:80:9E:70:ED:C6:99:B8:7B:2C:C6:52:FD:19:A1
                DirName:/C=US/ST=OH/L=Columbus/O=VikingVPN/OU=MyOrganizationalUnit/CN=VikingVPN CA/name=EasyRSA/emailAddress=me@myhost.mydomain
                serial:CF:35:85:EE:80:BF:2A:3E

            X509v3 Extended Key Usage: 
                TLS Web Client Authentication
            X509v3 Key Usage: 
                Digital Signature
    Signature Algorithm: md5WithRSAEncryption
         8f:d5:a6:5f:5d:b6:0d:2b:32:2c:c9:52:3f:f3:15:11:6f:45:
         85:71:f6:c5:aa:16:23:c6:b8:ce:6f:15:21:a6:11:12:ee:18:
         33:5e:fc:81:51:55:ce:b6:67:36:b9:11:f0:a9:6b:b5:c7:73:
         f3:11:51:6d:71:58:05:19:de:df:b9:e4:74:44:aa:4b:37:d5:
         f9:e5:71:28:a8:36:97:fb:20:90:9b:cc:59:77:59:20:3b:cb:
         7a:a6:36:d3:59:00:75:e6:b3:5e:05:23:4f:26:db:ab:17:d5:
         3e:31:de:1d:88:c1:42:4f:70:5d:98:8e:2e:1a:da:65:3b:17:
         63:ef:ee:61:ff:79:92:a1:1a:c9:5f:b8:4c:18:59:5e:f0:e3:
         b3:9a:49:8c:b6:3e:1c:55:70:42:33:b6:51:9a:58:7d:f2:84:
         cc:7f:b4:e7:9e:91:45:e5:1d:88:54:a2:47:fc:02:99:ff:16:
         44:88:fe:b0:0a:c9:0a:9b:f3:50:85:d8:e1:1f:0a:14:7a:1c:
         f1:b8:00:d2:35:93:14:ec:a1:a2:ad:05:28:bb:ee:3b:52:f0:
         ef:7a:21:17:ff:dc:01:00:de:08:a8:d1:f5:85:f7:a9:97:ce:
         a5:9c:ad:10:fe:4e:0f:9e:e7:8c:f5:9c:ee:4a:30:f3:7c:4d:
         ee:ad:38:f1:95:8a:6a:ff:07:4c:75:d2:a1:56:51:5b:86:29:
         55:65:2a:32:db:fe:5d:f8:f1:7a:7b:11:1d:d6:93:e3:e2:2e:
         7d:80:8f:5a:a6:a6:0c:db:3a:c6:c3:9a:78:eb:36:16:1b:42:
         08:fe:e1:6c:d8:dc:4c:5d:7a:d4:7f:0a:94:5e:37:97:3d:15:
         9c:c5:ee:87:b2:aa:25:73:76:ea:c3:bb:66:33:64:e5:f1:b5:
         1b:aa:c5:e8:ff:41:22:87:6c:9f:60:c6:0c:38:d5:00:5e:85:
         12:f4:ef:01:e1:a4:e7:d0:79:d4:bf:c8:1a:66:86:52:90:d6:
         a0:51:ad:36:48:5d:07:7e:6d:73:0c:29:ec:c8:ed:43:ef:0b:
         88:2b:8c:5e:93:89:79:53:74:05:c7:00:a4:96:1a:da:11:ae:
         e0:5e:40:a4:28:91:57:52:f2:80:ea:8f:b9:04:00:d4:87:43:
         59:93:f9:6e:46:e2:c9:96:85:ee:8d:98:d9:99:31:8d:80:90:
         00:01:3f:35:ee:f7:09:34:00:96:c6:84:f6:21:d3:43:e6:2b:
         28:b4:26:25:a3:bb:aa:06:38:15:18:d0:b4:fe:3c:dd:c0:e2:
         8f:47:80:b2:34:34:07:e6:53:06:1e:11:4a:33:e2:c7:25:9e:
         e4:80:e9:d1:a7:65:d3:0a
-----BEGIN CERTIFICATE-----
MIIGqjCCBJKgAwIBAgICAJgwDQYJKoZIhvcNAQEEBQAwgawxCzAJBgNVBAYTAlVT
MQswCQYDVQQIEwJPSDERMA8GA1UEBxMIQ29sdW1idXMxEjAQBgNVBAoTCVZpa2lu
Z1ZQTjEdMBsGA1UECxMUTXlPcmdhbml6YXRpb25hbFVuaXQxFTATBgNVBAMTDFZp
a2luZ1ZQTiBDQTEQMA4GA1UEKRMHRWFzeVJTQTEhMB8GCSqGSIb3DQEJARYSbWVA
bXlob3N0Lm15ZG9tYWluMB4XDTEzMDkxMDIzMTkzMloXDTIzMDkwODIzMTkzMlow
HDEaMBgGA1UEAxMRQ2xpZW50MUNlcnQ2YjQwZWQwggIiMA0GCSqGSIb3DQEBAQUA
A4ICDwAwggIKAoICAQDKPhmOpMhY9gilGfZLBbUjOJ5vW1LPq5XjpMSKC7HyZhVW
/Zt/aXXA1Gj8K3kSwxCXBNFt6fFwexQqvH1nxuhfFF1xnQr2JIWqWmk2nwwbcfiQ
TsIu9oW+yJ310sBGGw3JKShtdM1ZB4ivgHVnUkfBNNf6XSPuLYBbHEg1bjCTVuAo
paOpjrtunTQi+9Z5X+iXvXk8/ZbJGNNu9uMQNZe/27/SXxaqJrgKxAqtJaJ7C22L
36srw8N1UyRamFOyNDOlu5BwoAMQ03PbwQC+2f2ExKqTDqvi5PfTQ1NWfGqkmWkk
VXFt8ifHa6RzmafkzuDoIdnjY8Muj38I3gkrK6T90pc4dgZv7Dyas4lNuU3kwJvA
zNcIhN7VML4s5elhYzhz22clQThbnHcBfyt69Rj+3fU/ZzaHRyd2XcWU+CiDEKYJ
M84Fx8gUQNsbbgT5LDPnN+spWtrsBPbgQNDuF/msp2s9EcXoZgsMto9TqRDLAtHu
0sD2wsi87pwByV4KUQA+emjhSws0QswLg/L9j3F2wVkS49gDMVwW0b5R+ggITZId
umblQbW2pEcdO0KaOH/jfJsUxTWPAo77WhFEvFTJyK7UtlB4DEj3EIb4ksiK0rXn
Jyl1JDHnKtHy4Lk9xqzPATTxVrSA/MDdRJkgFWWjzFHLQlAWbCDQ7q5FNk2rWwID
AQABo4IBYzCCAV8wCQYDVR0TBAIwADAtBglghkgBhvhCAQ0EIBYeRWFzeS1SU0Eg
R2VuZXJhdGVkIENlcnRpZmljYXRlMB0GA1UdDgQWBBQCycfGydI2idFu5eFhbkob
xF+KHjCB4QYDVR0jBIHZMIHWgBQSzWAE0qCAnnDtxpm4eyzGUv0ZoaGBsqSBrzCB
rDELMAkGA1UEBhMCVVMxCzAJBgNVBAgTAk9IMREwDwYDVQQHEwhDb2x1bWJ1czES
MBAGA1UEChMJVmlraW5nVlBOMR0wGwYDVQQLExRNeU9yZ2FuaXphdGlvbmFsVW5p
dDEVMBMGA1UEAxMMVmlraW5nVlBOIENBMRAwDgYDVQQpEwdFYXN5UlNBMSEwHwYJ
KoZIhvcNAQkBFhJtZUBteWhvc3QubXlkb21haW6CCQDPNYXugL8qPjATBgNVHSUE
DDAKBggrBgEFBQcDAjALBgNVHQ8EBAMCB4AwDQYJKoZIhvcNAQEEBQADggIBAI/V
pl9dtg0rMizJUj/zFRFvRYVx9sWqFiPGuM5vFSGmERLuGDNe/IFRVc62Zza5EfCp
a7XHc/MRUW1xWAUZ3t+55HREqks31fnlcSioNpf7IJCbzFl3WSA7y3qmNtNZAHXm
s14FI08m26sX1T4x3h2IwUJPcF2Yji4a2mU7F2Pv7mH/eZKhGslfuEwYWV7w47Oa
SYy2PhxVcEIztlGaWH3yhMx/tOeekUXlHYhUokf8Apn/FkSI/rAKyQqb81CF2OEf
ChR6HPG4ANI1kxTsoaKtBSi77jtS8O96IRf/3AEA3gio0fWF96mXzqWcrRD+Tg+e
54z1nO5KMPN8Te6tOPGVimr/B0x10qFWUVuGKVVlKjLb/l348Xp7ER3Wk+PiLn2A
j1qmpgzbOsbDmnjrNhYbQgj+4WzY3ExdetR/CpReN5c9FZzF7oeyqiVzdurDu2Yz
ZOXxtRuqxej/QSKHbJ9gxgw41QBehRL07wHhpOfQedS/yBpmhlKQ1qBRrTZIXQd+
bXMMKezI7UPvC4grjF6TiXlTdAXHAKSWGtoRruBeQKQokVdS8oDqj7kEANSHQ1mT
+W5G4smWhe6NmNmZMY2AkAABPzXu9wk0AJbGhPYh00PmKyi0JiWju6oGOBUY0LT+
PN3A4o9HgLI0NAfmUwYeEUoz4sclnuSA6dGnZdMK
-----END CERTIFICATE-----
