Certificate:
    Data:
        Version: 3 (0x2)
        Serial Number: 157 (0x9d)
    Signature Algorithm: md5WithRSAEncryption
        Issuer: C=US, ST=OH, L=Columbus, O=VikingVPN, OU=MyOrganizationalUnit, CN=VikingVPN CA/name=EasyRSA/emailAddress=me@myhost.mydomain
        Validity
            Not Before: Sep 11 00:58:06 2013 GMT
            Not After : Sep  9 00:58:06 2023 GMT
        Subject: CN=Client1Cert697795
        Subject Public Key Info:
            Public Key Algorithm: rsaEncryption
                Public-Key: (4096 bit)
                Modulus:
                    00:b2:4f:e6:20:f8:3b:98:08:0b:0d:1b:e9:89:d5:
                    25:09:ca:8c:21:7c:e3:7f:b5:7b:2e:b5:96:13:1b:
                    90:e8:63:69:ba:07:f2:87:80:41:f5:1b:96:78:b9:
                    0b:32:3c:33:4a:2d:33:a7:8d:e7:db:a5:10:3c:3d:
                    98:af:51:2a:bb:69:bf:ad:2d:69:10:36:c8:65:5a:
                    e1:a5:ac:7b:d4:f0:64:a0:17:2d:b1:96:54:1a:99:
                    d2:4d:f0:e8:8f:eb:2c:bd:d9:bd:43:c2:bb:0a:e9:
                    88:25:35:af:0c:52:39:b9:e1:d4:32:04:05:70:09:
                    89:8b:1c:5e:10:d8:18:90:91:a6:fe:a1:c5:c9:81:
                    84:f3:97:a7:d5:62:9d:74:e5:a2:9a:46:02:1a:c1:
                    5e:a4:e7:c5:59:ac:ed:e7:31:59:e2:f7:61:dd:02:
                    ba:15:ae:d9:8d:db:21:ea:8e:09:2a:bf:f2:72:40:
                    26:ff:ea:87:e0:ef:2f:9a:c5:0d:b0:26:a8:b1:4a:
                    e9:2a:1d:09:ff:04:d5:c3:f4:84:af:62:94:0f:8b:
                    c2:94:33:f3:c8:7e:90:38:6e:ed:ef:75:77:ed:4c:
                    1c:f1:e4:75:a4:7a:c5:b4:88:15:be:d6:52:5a:98:
                    cc:d0:2a:d8:ff:aa:86:4d:a2:30:05:ab:d8:e2:f6:
                    d8:c4:99:1f:ea:a3:9b:34:ff:b6:eb:99:ce:c9:fc:
                    0a:c1:b7:72:ac:8c:6b:95:ca:57:92:59:a5:5c:32:
                    24:b7:db:cf:73:c4:79:cf:bf:61:3d:b5:f7:57:66:
                    31:68:28:15:c9:fe:d0:f7:aa:15:04:c1:a5:26:14:
                    f3:5f:28:ea:02:81:3f:59:72:b2:3e:29:29:2d:2a:
                    c2:22:78:31:33:01:ea:ed:24:54:82:bf:89:c4:8b:
                    06:38:b2:15:ef:8d:d6:69:e2:44:20:52:3e:65:9f:
                    fa:71:bd:29:cb:48:65:91:99:de:fd:b8:9a:75:6a:
                    96:c5:e6:22:94:09:b6:78:82:5e:30:b3:d8:e4:c8:
                    da:bb:a6:d3:f9:03:12:05:d3:92:f9:4c:0b:4e:c5:
                    37:73:04:1a:60:b4:b8:09:c3:6c:e1:ec:08:92:32:
                    2d:4c:31:9b:2f:7a:69:ec:25:1e:1a:ad:ec:ba:83:
                    48:e2:01:b3:3e:d6:34:79:c6:f3:32:e1:2b:85:b0:
                    94:21:9c:1a:6a:3a:db:26:7d:20:d5:68:8d:13:13:
                    16:69:ac:20:86:82:6c:c6:28:5c:e1:0d:fa:45:f0:
                    08:c6:a9:52:5f:39:cf:c7:28:5f:fd:c3:4e:3b:96:
                    ac:07:3d:b6:6c:06:de:fc:b9:19:39:44:6d:5c:2c:
                    60:53:15
                Exponent: 65537 (0x10001)
        X509v3 extensions:
            X509v3 Basic Constraints: 
                CA:FALSE
            Netscape Comment: 
                Easy-RSA Generated Certificate
            X509v3 Subject Key Identifier: 
                68:BE:41:2B:BE:33:EA:01:55:92:4E:4B:10:BB:6E:18:E7:20:F4:6B
            X509v3 Authority Key Identifier: 
                keyid:12:CD:60:04:D2:A0:80:9E:70:ED:C6:99:B8:7B:2C:C6:52:FD:19:A1
                DirName:/C=US/ST=OH/L=Columbus/O=VikingVPN/OU=MyOrganizationalUnit/CN=VikingVPN CA/name=EasyRSA/emailAddress=me@myhost.mydomain
                serial:CF:35:85:EE:80:BF:2A:3E

            X509v3 Extended Key Usage: 
                TLS Web Client Authentication
            X509v3 Key Usage: 
                Digital Signature
    Signature Algorithm: md5WithRSAEncryption
         59:61:8c:97:d3:62:7f:bc:42:d3:ca:45:33:d3:0b:33:b0:91:
         14:24:ee:3b:ac:ef:79:ac:9a:44:71:7e:f2:4b:f8:9d:98:bf:
         fc:40:4c:02:c2:7a:19:ff:18:73:5e:c2:71:7b:d6:73:3a:8b:
         30:86:12:f4:14:3c:cc:34:03:92:e6:1d:dc:ab:e9:97:b7:05:
         c5:75:51:bd:d4:de:e5:bf:79:b5:5c:19:90:1f:8e:e0:8f:0e:
         14:89:45:1e:ae:a1:27:9b:45:5e:ab:55:a8:6c:0d:f4:27:7c:
         9d:82:53:ca:d0:7f:5c:c2:14:39:3d:c9:24:fd:44:bc:6b:ba:
         81:ce:0d:5d:4d:55:cb:21:cd:4d:38:94:9e:1d:73:67:0f:be:
         d5:5a:f4:4f:ef:25:0c:f6:29:e9:aa:97:6c:d2:d5:0b:53:8e:
         e4:86:e0:e4:7c:a2:e5:1d:eb:35:84:ea:d8:9e:cf:65:3f:5a:
         fb:5d:d7:02:d8:41:ab:b1:f0:b1:b2:61:b4:bd:2f:e6:f5:18:
         49:22:cc:c1:d7:c3:4f:ab:c8:bd:5b:52:25:a9:4c:48:b2:da:
         dd:58:96:af:a8:c5:74:46:0c:b3:1f:4c:33:e3:1c:4c:fb:0a:
         25:1d:8b:c9:ea:90:18:c7:ae:2f:a7:80:0b:15:4a:2e:fe:c9:
         2b:28:a3:ce:90:66:64:33:5a:5e:c8:76:c9:5f:de:9f:ab:ae:
         22:78:ff:45:30:09:56:4b:f4:da:7d:53:ae:cf:6b:ed:63:bf:
         a9:a1:17:f4:45:a4:0b:54:24:05:98:bf:18:07:cc:3c:0e:8e:
         79:98:87:9a:64:5d:2e:d9:52:1b:3b:b8:33:96:28:6f:f2:03:
         54:7b:36:f5:69:06:de:86:08:e6:fa:41:fb:a1:a4:4f:63:ff:
         b4:88:54:34:2c:a5:b4:48:10:c4:72:98:8c:d2:d3:67:c1:71:
         b9:bb:da:57:3f:a0:f7:f9:3c:6a:54:bd:2d:64:51:43:65:a4:
         ba:16:ac:b0:a5:45:9e:18:60:e5:97:57:d8:2a:ec:9b:c5:31:
         43:1a:4f:11:58:d4:12:9c:fc:5a:b8:b1:75:28:b9:e3:54:55:
         7b:f5:72:ed:ab:7c:ba:97:fa:7c:95:d0:45:0c:bd:e3:98:c4:
         25:20:6c:ca:87:28:7c:4f:34:55:8b:1c:8f:12:e1:ab:f6:de:
         41:43:72:c1:70:3d:56:3c:7c:94:c3:67:29:47:e1:bf:79:74:
         14:c5:70:1e:2c:ab:92:e4:f5:78:2c:2d:fa:68:79:60:f7:de:
         ca:88:7c:99:5f:50:09:a9:69:13:04:08:ac:84:f8:26:7d:9e:
         83:a9:71:52:ca:71:a0:5e
-----BEGIN CERTIFICATE-----
MIIGqjCCBJKgAwIBAgICAJ0wDQYJKoZIhvcNAQEEBQAwgawxCzAJBgNVBAYTAlVT
MQswCQYDVQQIEwJPSDERMA8GA1UEBxMIQ29sdW1idXMxEjAQBgNVBAoTCVZpa2lu
Z1ZQTjEdMBsGA1UECxMUTXlPcmdhbml6YXRpb25hbFVuaXQxFTATBgNVBAMTDFZp
a2luZ1ZQTiBDQTEQMA4GA1UEKRMHRWFzeVJTQTEhMB8GCSqGSIb3DQEJARYSbWVA
bXlob3N0Lm15ZG9tYWluMB4XDTEzMDkxMTAwNTgwNloXDTIzMDkwOTAwNTgwNlow
HDEaMBgGA1UEAxMRQ2xpZW50MUNlcnQ2OTc3OTUwggIiMA0GCSqGSIb3DQEBAQUA
A4ICDwAwggIKAoICAQCyT+Yg+DuYCAsNG+mJ1SUJyowhfON/tXsutZYTG5DoY2m6
B/KHgEH1G5Z4uQsyPDNKLTOnjefbpRA8PZivUSq7ab+tLWkQNshlWuGlrHvU8GSg
Fy2xllQamdJN8OiP6yy92b1DwrsK6YglNa8MUjm54dQyBAVwCYmLHF4Q2BiQkab+
ocXJgYTzl6fVYp105aKaRgIawV6k58VZrO3nMVni92HdAroVrtmN2yHqjgkqv/Jy
QCb/6ofg7y+axQ2wJqixSukqHQn/BNXD9ISvYpQPi8KUM/PIfpA4bu3vdXftTBzx
5HWkesW0iBW+1lJamMzQKtj/qoZNojAFq9ji9tjEmR/qo5s0/7brmc7J/ArBt3Ks
jGuVyleSWaVcMiS3289zxHnPv2E9tfdXZjFoKBXJ/tD3qhUEwaUmFPNfKOoCgT9Z
crI+KSktKsIieDEzAertJFSCv4nEiwY4shXvjdZp4kQgUj5ln/pxvSnLSGWRmd79
uJp1apbF5iKUCbZ4gl4ws9jkyNq7ptP5AxIF05L5TAtOxTdzBBpgtLgJw2zh7AiS
Mi1MMZsvemnsJR4arey6g0jiAbM+1jR5xvMy4SuFsJQhnBpqOtsmfSDVaI0TExZp
rCCGgmzGKFzhDfpF8AjGqVJfOc/HKF/9w047lqwHPbZsBt78uRk5RG1cLGBTFQID
AQABo4IBYzCCAV8wCQYDVR0TBAIwADAtBglghkgBhvhCAQ0EIBYeRWFzeS1SU0Eg
R2VuZXJhdGVkIENlcnRpZmljYXRlMB0GA1UdDgQWBBRovkErvjPqAVWSTksQu24Y
5yD0azCB4QYDVR0jBIHZMIHWgBQSzWAE0qCAnnDtxpm4eyzGUv0ZoaGBsqSBrzCB
rDELMAkGA1UEBhMCVVMxCzAJBgNVBAgTAk9IMREwDwYDVQQHEwhDb2x1bWJ1czES
MBAGA1UEChMJVmlraW5nVlBOMR0wGwYDVQQLExRNeU9yZ2FuaXphdGlvbmFsVW5p
dDEVMBMGA1UEAxMMVmlraW5nVlBOIENBMRAwDgYDVQQpEwdFYXN5UlNBMSEwHwYJ
KoZIhvcNAQkBFhJtZUBteWhvc3QubXlkb21haW6CCQDPNYXugL8qPjATBgNVHSUE
DDAKBggrBgEFBQcDAjALBgNVHQ8EBAMCB4AwDQYJKoZIhvcNAQEEBQADggIBAFlh
jJfTYn+8QtPKRTPTCzOwkRQk7jus73msmkRxfvJL+J2Yv/xATALCehn/GHNewnF7
1nM6izCGEvQUPMw0A5LmHdyr6Ze3BcV1Ub3U3uW/ebVcGZAfjuCPDhSJRR6uoSeb
RV6rVahsDfQnfJ2CU8rQf1zCFDk9yST9RLxruoHODV1NVcshzU04lJ4dc2cPvtVa
9E/vJQz2Kemql2zS1QtTjuSG4OR8ouUd6zWE6tiez2U/Wvtd1wLYQaux8LGyYbS9
L+b1GEkizMHXw0+ryL1bUiWpTEiy2t1Ylq+oxXRGDLMfTDPjHEz7CiUdi8nqkBjH
ri+ngAsVSi7+ySsoo86QZmQzWl7Idslf3p+rriJ4/0UwCVZL9Np9U67Pa+1jv6mh
F/RFpAtUJAWYvxgHzDwOjnmYh5pkXS7ZUhs7uDOWKG/yA1R7NvVpBt6GCOb6Qfuh
pE9j/7SIVDQspbRIEMRymIzS02fBcbm72lc/oPf5PGpUvS1kUUNlpLoWrLClRZ4Y
YOWXV9gq7JvFMUMaTxFY1BKc/Fq4sXUoueNUVXv1cu2rfLqX+nyV0EUMveOYxCUg
bMqHKHxPNFWLHI8S4av23kFDcsFwPVY8fJTDZylH4b95dBTFcB4sq5Lk9XgsLfpo
eWD33sqIfJlfUAmpaRMECKyE+CZ9noOpcVLKcaBe
-----END CERTIFICATE-----
