Certificate:
    Data:
        Version: 3 (0x2)
        Serial Number: 200 (0xc8)
    Signature Algorithm: md5WithRSAEncryption
        Issuer: C=US, ST=OH, L=Columbus, O=VikingVPN, OU=MyOrganizationalUnit, CN=VikingVPN CA/name=EasyRSA/emailAddress=me@myhost.mydomain
        Validity
            Not Before: Sep 16 09:15:31 2013 GMT
            Not After : Sep 14 09:15:31 2023 GMT
        Subject: CN=Client95Cert793fa5
        Subject Public Key Info:
            Public Key Algorithm: rsaEncryption
                Public-Key: (4096 bit)
                Modulus:
                    00:c1:15:47:cf:7a:99:c0:bd:5c:51:41:6a:a5:7e:
                    d8:f3:b8:6b:d2:0a:ef:3b:57:d4:68:ea:ef:17:36:
                    26:df:a7:d1:90:34:16:c0:c6:53:ab:64:03:84:4f:
                    15:53:e3:52:87:4e:ff:71:25:bb:c1:5b:34:8f:5a:
                    75:38:b3:5f:a3:91:ac:58:9a:0d:17:3f:b8:33:ae:
                    ce:1c:07:2e:b0:0f:cf:b5:9e:ec:c0:6c:1e:b3:6c:
                    ff:9c:86:18:9b:04:f2:a6:92:12:ce:66:4f:36:eb:
                    99:eb:80:6c:a8:03:a0:5a:2f:16:1d:4c:d5:9f:3f:
                    ca:aa:f7:c6:33:07:41:5a:6d:1e:0b:5c:0a:5d:4e:
                    d0:29:d3:2a:05:8b:dd:a0:e4:88:e2:e9:8f:79:88:
                    bc:9e:f3:f3:c8:f5:5c:27:1a:36:d1:23:00:b2:fc:
                    70:db:4e:7b:70:28:12:21:90:6a:e3:ed:5c:6d:89:
                    2a:c6:73:ad:56:ef:75:83:48:37:36:a1:d9:d2:85:
                    1e:b8:17:63:90:3a:0b:d1:fb:fa:55:b9:63:cc:8a:
                    a4:65:12:99:1b:88:6c:06:ff:19:21:d1:18:15:e0:
                    22:d2:30:34:58:6e:c4:09:ff:4c:8c:2d:88:79:bc:
                    47:01:51:15:be:17:44:fc:b1:5c:29:08:01:33:4a:
                    78:88:9b:d5:72:db:9e:d5:78:a2:b0:e0:47:eb:fb:
                    6c:7d:dd:ea:e7:6d:8e:2a:30:2f:f8:01:22:cb:16:
                    a7:bf:e6:92:6b:2b:16:8a:d1:5f:b3:eb:59:4f:33:
                    b9:28:40:97:b8:97:ea:18:9d:88:da:0b:7b:30:47:
                    0d:b0:55:bb:db:6c:d7:94:9e:48:79:ba:d5:a6:d8:
                    b7:15:9a:41:22:6e:0d:58:a8:b3:bd:da:64:61:13:
                    fe:b8:a6:54:be:9b:aa:61:cb:06:9e:c3:b5:dc:38:
                    23:d4:a5:e5:6d:42:1d:77:84:96:05:ad:ef:66:fd:
                    3d:9a:a8:aa:64:bd:a3:d5:f8:eb:55:53:be:a0:9c:
                    fa:c8:35:ee:86:5e:66:8a:83:00:67:d9:b6:f2:c1:
                    0a:0f:c7:45:dc:41:44:48:a3:01:ee:48:ec:69:0b:
                    56:ca:3b:3a:67:31:aa:fc:52:fe:6b:21:b6:0c:97:
                    8a:4b:fa:6b:a4:9b:00:11:46:41:bb:16:cc:2a:51:
                    ae:31:07:12:23:19:dc:74:ad:15:25:d0:25:37:59:
                    81:c7:14:4c:ba:61:f2:87:f3:57:85:de:0f:15:dd:
                    74:37:b8:5c:0c:38:81:7a:09:f0:e6:99:77:79:75:
                    08:ba:25:ad:90:83:c8:fa:7f:d9:73:25:1c:d8:e0:
                    25:e7:0d
                Exponent: 65537 (0x10001)
        X509v3 extensions:
            X509v3 Basic Constraints: 
                CA:FALSE
            Netscape Comment: 
                Easy-RSA Generated Certificate
            X509v3 Subject Key Identifier: 
                AB:00:7E:71:E3:0F:DE:A6:31:5F:BC:8C:D9:69:96:B5:A9:80:80:8F
            X509v3 Authority Key Identifier: 
                keyid:12:CD:60:04:D2:A0:80:9E:70:ED:C6:99:B8:7B:2C:C6:52:FD:19:A1
                DirName:/C=US/ST=OH/L=Columbus/O=VikingVPN/OU=MyOrganizationalUnit/CN=VikingVPN CA/name=EasyRSA/emailAddress=me@myhost.mydomain
                serial:CF:35:85:EE:80:BF:2A:3E

            X509v3 Extended Key Usage: 
                TLS Web Client Authentication
            X509v3 Key Usage: 
                Digital Signature
    Signature Algorithm: md5WithRSAEncryption
         42:b7:4c:3c:d1:3f:46:b9:1a:8d:f3:df:85:3d:36:4c:d5:a9:
         09:3b:41:a8:3f:4e:b5:87:46:f4:96:df:4a:3f:19:6e:9f:21:
         43:2a:ac:0e:09:cc:69:88:f3:cc:bb:f3:f3:ce:44:ec:05:48:
         d3:c9:7d:75:e1:e0:f0:6f:e9:70:c0:4b:99:40:3f:53:3f:64:
         dc:91:4b:8f:ae:64:58:b9:15:1d:fa:d9:82:35:ef:7c:f3:5b:
         9a:95:9f:3e:08:5b:f5:a6:d4:d7:c0:3f:44:98:79:d4:e0:cc:
         1a:66:b4:35:31:c3:69:f6:6b:3c:3f:23:55:53:07:5d:56:28:
         40:b8:6b:a4:8b:87:87:dd:99:05:c3:91:e9:3b:73:8b:e8:1e:
         d9:dc:6f:5e:8e:38:ea:a5:ef:67:72:d2:0e:cc:e8:20:bb:23:
         f3:06:75:8c:89:ac:f3:fd:21:40:08:49:5f:02:a4:e9:88:a2:
         61:75:5a:04:9c:c8:cc:28:3e:64:e7:93:21:f7:ff:0e:81:2a:
         fe:5e:04:96:91:01:d6:a4:ed:1c:b3:9e:bb:18:4f:cb:64:cd:
         f9:ca:02:fc:9c:31:d0:9b:3f:eb:17:f7:d3:f8:a0:df:63:62:
         53:01:d6:42:18:4c:79:4a:bd:06:83:aa:8a:16:8d:1b:e1:7f:
         2f:3b:ac:a0:e2:41:85:42:b7:0a:33:63:68:2d:c6:f3:a5:71:
         33:7a:42:78:e7:57:89:b3:f4:27:ce:1d:7d:d6:92:a1:32:bb:
         1d:67:75:05:f9:bc:6c:b1:0c:23:8b:bb:0e:de:5b:26:ff:74:
         e6:33:c3:57:e7:39:eb:ca:8c:f5:d9:b8:84:cb:2f:f7:82:ad:
         cd:7e:a6:6b:50:e5:e0:7c:fe:c2:be:4d:4a:c4:8a:a4:05:f2:
         76:92:89:51:e6:e7:b0:72:a6:ed:68:59:53:58:a6:f7:38:fd:
         87:7f:08:f2:e2:3c:63:82:0d:63:b2:a6:8d:bc:77:0c:4b:87:
         b9:a8:9a:3d:9a:19:f2:89:7b:96:e5:cb:00:a8:ad:89:18:e9:
         8f:d7:56:d1:8f:a8:32:15:a1:92:c3:36:a1:12:9d:b8:01:c4:
         76:53:d9:b0:3d:e9:df:0a:5d:8a:e7:fc:84:85:e5:60:ef:e0:
         e8:12:ec:f5:3e:d0:8b:38:0b:75:d8:88:74:40:ab:47:de:51:
         fa:ee:98:ac:c6:de:e9:93:3d:12:c7:60:cc:7a:ef:3a:0b:19:
         0b:7f:63:11:f1:d8:b9:98:cc:a2:31:f4:9a:ab:d3:d2:22:8d:
         6d:a5:74:a0:ea:3a:19:8a:69:77:7b:e9:36:2f:9b:ee:2b:38:
         18:34:a8:18:bd:61:02:92
-----BEGIN CERTIFICATE-----
MIIGqzCCBJOgAwIBAgICAMgwDQYJKoZIhvcNAQEEBQAwgawxCzAJBgNVBAYTAlVT
MQswCQYDVQQIEwJPSDERMA8GA1UEBxMIQ29sdW1idXMxEjAQBgNVBAoTCVZpa2lu
Z1ZQTjEdMBsGA1UECxMUTXlPcmdhbml6YXRpb25hbFVuaXQxFTATBgNVBAMTDFZp
a2luZ1ZQTiBDQTEQMA4GA1UEKRMHRWFzeVJTQTEhMB8GCSqGSIb3DQEJARYSbWVA
bXlob3N0Lm15ZG9tYWluMB4XDTEzMDkxNjA5MTUzMVoXDTIzMDkxNDA5MTUzMVow
HTEbMBkGA1UEAxMSQ2xpZW50OTVDZXJ0NzkzZmE1MIICIjANBgkqhkiG9w0BAQEF
AAOCAg8AMIICCgKCAgEAwRVHz3qZwL1cUUFqpX7Y87hr0grvO1fUaOrvFzYm36fR
kDQWwMZTq2QDhE8VU+NSh07/cSW7wVs0j1p1OLNfo5GsWJoNFz+4M67OHAcusA/P
tZ7swGwes2z/nIYYmwTyppISzmZPNuuZ64BsqAOgWi8WHUzVnz/KqvfGMwdBWm0e
C1wKXU7QKdMqBYvdoOSI4umPeYi8nvPzyPVcJxo20SMAsvxw2057cCgSIZBq4+1c
bYkqxnOtVu91g0g3NqHZ0oUeuBdjkDoL0fv6VbljzIqkZRKZG4hsBv8ZIdEYFeAi
0jA0WG7ECf9MjC2IebxHAVEVvhdE/LFcKQgBM0p4iJvVctue1XiisOBH6/tsfd3q
522OKjAv+AEiyxanv+aSaysWitFfs+tZTzO5KECXuJfqGJ2I2gt7MEcNsFW722zX
lJ5IebrVpti3FZpBIm4NWKizvdpkYRP+uKZUvpuqYcsGnsO13Dgj1KXlbUIdd4SW
Ba3vZv09mqiqZL2j1fjrVVO+oJz6yDXuhl5mioMAZ9m28sEKD8dF3EFESKMB7kjs
aQtWyjs6ZzGq/FL+ayG2DJeKS/prpJsAEUZBuxbMKlGuMQcSIxncdK0VJdAlN1mB
xxRMumHyh/NXhd4PFd10N7hcDDiBegnw5pl3eXUIuiWtkIPI+n/ZcyUc2OAl5w0C
AwEAAaOCAWMwggFfMAkGA1UdEwQCMAAwLQYJYIZIAYb4QgENBCAWHkVhc3ktUlNB
IEdlbmVyYXRlZCBDZXJ0aWZpY2F0ZTAdBgNVHQ4EFgQUqwB+ceMP3qYxX7yM2WmW
tamAgI8wgeEGA1UdIwSB2TCB1oAUEs1gBNKggJ5w7caZuHssxlL9GaGhgbKkga8w
gawxCzAJBgNVBAYTAlVTMQswCQYDVQQIEwJPSDERMA8GA1UEBxMIQ29sdW1idXMx
EjAQBgNVBAoTCVZpa2luZ1ZQTjEdMBsGA1UECxMUTXlPcmdhbml6YXRpb25hbFVu
aXQxFTATBgNVBAMTDFZpa2luZ1ZQTiBDQTEQMA4GA1UEKRMHRWFzeVJTQTEhMB8G
CSqGSIb3DQEJARYSbWVAbXlob3N0Lm15ZG9tYWluggkAzzWF7oC/Kj4wEwYDVR0l
BAwwCgYIKwYBBQUHAwIwCwYDVR0PBAQDAgeAMA0GCSqGSIb3DQEBBAUAA4ICAQBC
t0w80T9GuRqN89+FPTZM1akJO0GoP061h0b0lt9KPxlunyFDKqwOCcxpiPPMu/Pz
zkTsBUjTyX114eDwb+lwwEuZQD9TP2TckUuPrmRYuRUd+tmCNe9881ualZ8+CFv1
ptTXwD9EmHnU4MwaZrQ1McNp9ms8PyNVUwddVihAuGuki4eH3ZkFw5HpO3OL6B7Z
3G9ejjjqpe9nctIOzOgguyPzBnWMiazz/SFACElfAqTpiKJhdVoEnMjMKD5k55Mh
9/8OgSr+XgSWkQHWpO0cs567GE/LZM35ygL8nDHQmz/rF/fT+KDfY2JTAdZCGEx5
Sr0Gg6qKFo0b4X8vO6yg4kGFQrcKM2NoLcbzpXEzekJ451eJs/Qnzh191pKhMrsd
Z3UF+bxssQwji7sO3lsm/3TmM8NX5znryoz12biEyy/3gq3NfqZrUOXgfP7Cvk1K
xIqkBfJ2kolR5uewcqbtaFlTWKb3OP2Hfwjy4jxjgg1jsqaNvHcMS4e5qJo9mhny
iXuW5csAqK2JGOmP11bRj6gyFaGSwzahEp24AcR2U9mwPenfCl2K5/yEheVg7+Do
Euz1PtCLOAt12Ih0QKtH3lH67pisxt7pkz0Sx2DMeu86CxkLf2MR8di5mMyiMfSa
q9PSIo1tpXSg6joZiml3e+k2L5vuKzgYNKgYvWECkg==
-----END CERTIFICATE-----
