Certificate:
    Data:
        Version: 3 (0x2)
        Serial Number: 5595 (0x15db)
    Signature Algorithm: md5WithRSAEncryption
        Issuer: C=US, ST=OH, L=Columbus, O=VikingVPN, OU=MyOrganizationalUnit, CN=VikingVPN CA/name=EasyRSA/emailAddress=me@myhost.mydomain
        Validity
            Not Before: Jun 21 14:29:31 2015 GMT
            Not After : Jun 18 14:29:31 2025 GMT
        Subject: CN=Client1776Certb292e3
        Subject Public Key Info:
            Public Key Algorithm: rsaEncryption
                Public-Key: (4096 bit)
                Modulus:
                    00:9a:bf:e0:d6:11:ba:a7:f3:e5:54:d4:5c:3b:a8:
                    34:76:b7:97:61:ac:dc:ac:77:2e:9e:64:cc:90:2b:
                    6b:a2:37:27:a2:11:11:61:93:4b:0e:13:3c:cd:52:
                    27:7d:e3:46:da:44:1a:6f:73:87:cc:30:cd:83:23:
                    cb:50:57:dc:25:24:7b:90:1b:90:50:0e:6e:63:81:
                    22:14:80:9e:e1:d9:42:64:9e:7a:37:37:68:07:4e:
                    bc:ad:1b:db:1a:c3:a0:51:e5:49:11:46:f7:c8:b8:
                    ea:dc:d3:e2:3c:fe:90:4a:f9:58:bc:52:73:20:26:
                    24:44:9d:0a:8f:db:c6:74:e7:cd:1c:71:88:79:1e:
                    e5:a3:2e:0e:1a:d4:5b:9a:8a:bf:78:33:b3:09:5c:
                    7c:f6:49:78:3d:c9:7b:05:ce:3e:17:e8:8f:79:15:
                    85:4c:9d:71:71:1a:c0:3b:ee:40:08:f8:2a:2a:b1:
                    3e:06:00:60:af:68:3d:38:c6:5e:a0:b4:9b:dc:23:
                    d3:5f:59:f9:a8:25:ae:23:d3:57:b5:3f:0f:37:02:
                    6f:10:25:36:98:ab:2e:03:d0:0f:f2:03:59:98:fb:
                    93:c6:d6:db:af:c6:7e:87:1d:fe:2f:c3:16:06:ae:
                    cf:a1:6b:30:ec:f2:ee:69:67:e1:2b:45:e6:71:ef:
                    3b:be:ce:23:bc:4e:2b:29:83:b5:7a:5f:85:81:44:
                    f1:01:ac:2c:cc:15:13:dd:14:c4:61:d9:aa:16:cc:
                    fb:f3:93:f3:17:5e:2e:b2:28:b4:65:6c:e1:6a:72:
                    a9:25:fc:bd:e2:ce:41:5b:0a:62:93:b9:16:eb:7d:
                    73:85:47:a1:fc:52:46:e6:c3:6f:0e:63:a3:05:ef:
                    1d:02:5f:88:29:86:6c:ff:93:cf:6c:be:1f:3f:bc:
                    b6:66:49:1c:9e:10:6f:37:cd:7c:d4:bd:ee:71:48:
                    e5:ef:fa:87:41:b7:ce:41:eb:25:bf:d7:d5:0f:8b:
                    e3:5f:bc:91:61:39:7a:38:b0:5d:2e:13:c9:af:fc:
                    fb:32:97:0e:88:da:93:f9:a9:47:5f:04:0e:dc:ed:
                    45:5e:d7:8e:20:ef:5c:14:ce:35:9d:45:be:1e:ab:
                    6d:29:0c:97:8d:3a:94:11:b0:d4:e8:d3:c7:13:a2:
                    11:53:cb:4c:01:31:91:70:0e:97:85:c4:04:0a:54:
                    a4:65:6b:46:21:96:ed:8b:4e:ee:6f:a1:b1:0d:36:
                    6c:54:05:5a:f1:a0:71:d2:15:d1:74:c7:3a:54:8a:
                    4a:2e:e7:ee:1c:5e:85:44:93:7e:fa:c4:f0:db:a6:
                    d4:d2:11:28:24:f7:b2:52:bf:ff:49:64:95:b5:b7:
                    4b:e6:9d
                Exponent: 65537 (0x10001)
        X509v3 extensions:
            X509v3 Basic Constraints: 
                CA:FALSE
            Netscape Comment: 
                Easy-RSA Generated Certificate
            X509v3 Subject Key Identifier: 
                5A:55:2E:0E:54:3B:0E:44:E2:08:55:1D:B9:B9:A5:5A:25:99:C8:B5
            X509v3 Authority Key Identifier: 
                keyid:12:CD:60:04:D2:A0:80:9E:70:ED:C6:99:B8:7B:2C:C6:52:FD:19:A1
                DirName:/C=US/ST=OH/L=Columbus/O=VikingVPN/OU=MyOrganizationalUnit/CN=VikingVPN CA/name=EasyRSA/emailAddress=me@myhost.mydomain
                serial:CF:35:85:EE:80:BF:2A:3E

            X509v3 Extended Key Usage: 
                TLS Web Client Authentication
            X509v3 Key Usage: 
                Digital Signature
    Signature Algorithm: md5WithRSAEncryption
         5b:19:cc:1c:a3:60:d0:e8:66:94:f1:0e:cd:9d:30:45:de:f4:
         5b:c2:d4:3a:7b:7a:e2:47:4a:90:a9:84:72:3c:d2:d1:d0:89:
         ba:71:0b:b5:fd:6e:2a:a1:8e:13:81:47:61:91:71:bf:22:df:
         d3:55:f4:b9:70:a4:56:0e:b7:a3:7f:7e:03:2b:e3:ec:20:26:
         f0:ed:f3:bf:35:fa:39:f2:92:f1:9c:eb:3c:bc:94:d4:56:5b:
         ed:34:7a:64:75:df:43:b2:1a:85:2e:cf:71:bb:f8:7d:91:2d:
         93:78:e4:7a:92:b3:5e:ec:59:5d:0f:47:aa:a4:af:92:7a:8f:
         96:44:5e:26:d1:1e:fe:23:fa:a8:5e:2f:b4:64:21:43:9d:2d:
         71:22:e8:23:2c:8e:33:6b:63:48:71:87:27:00:b3:be:6e:a5:
         51:2f:6b:93:43:06:41:17:c2:b1:9d:d1:4e:d9:3b:fc:1f:79:
         ed:2b:cf:a9:b1:6e:90:d3:02:e8:85:47:ca:13:9d:ea:ef:db:
         20:18:e8:a2:da:42:82:f6:89:d3:7b:c3:3f:05:a6:bc:5d:36:
         07:de:cb:44:23:26:c7:89:1d:cc:81:34:be:4c:64:b6:c5:e4:
         73:bd:0b:b5:a1:31:b0:d3:d4:2b:9d:ca:19:5d:38:77:60:9f:
         ad:d0:82:94:d4:58:74:93:f8:17:bc:0e:9f:ac:10:3a:ed:ba:
         d3:81:99:6d:23:4d:33:ba:69:ee:0a:9e:fe:ea:19:5f:78:98:
         85:96:1d:7a:3b:03:d6:15:0d:e0:e2:39:ed:26:f7:43:68:ed:
         07:9c:ce:ae:cd:41:80:c3:46:18:f7:b7:38:eb:e3:11:4b:39:
         f2:75:f7:74:39:97:e4:7b:0e:db:3a:b1:e7:f9:1c:56:f7:78:
         7d:71:70:3b:e1:fe:9e:92:8e:34:fc:02:c5:c1:e7:65:1c:5a:
         ce:d8:57:25:64:ce:91:72:e6:22:9f:18:97:4a:94:3b:a2:ff:
         7a:57:bf:9c:92:91:07:b7:65:3d:12:f8:b8:b7:bf:ec:29:ed:
         64:cc:1b:1e:be:fd:a9:2c:b2:f8:68:84:d6:ed:17:2f:a9:39:
         a8:6b:b9:93:13:c5:45:88:f4:8e:3e:b2:d3:8a:81:1b:bf:be:
         ba:9f:fd:21:35:26:82:c2:70:fc:cc:bc:ca:cc:d7:c2:2d:c9:
         9d:5c:5e:e7:9a:37:61:af:70:97:00:57:20:4b:49:85:fa:48:
         b7:57:4e:3f:9c:27:f6:9a:4e:5a:ef:e3:87:6f:eb:3e:2b:d7:
         e2:b3:5d:4c:e8:85:b1:cf:32:b1:94:98:bc:55:fc:da:c2:83:
         80:18:f3:9c:db:95:8b:ed
-----BEGIN CERTIFICATE-----
MIIGrTCCBJWgAwIBAgICFdswDQYJKoZIhvcNAQEEBQAwgawxCzAJBgNVBAYTAlVT
MQswCQYDVQQIEwJPSDERMA8GA1UEBxMIQ29sdW1idXMxEjAQBgNVBAoTCVZpa2lu
Z1ZQTjEdMBsGA1UECxMUTXlPcmdhbml6YXRpb25hbFVuaXQxFTATBgNVBAMTDFZp
a2luZ1ZQTiBDQTEQMA4GA1UEKRMHRWFzeVJTQTEhMB8GCSqGSIb3DQEJARYSbWVA
bXlob3N0Lm15ZG9tYWluMB4XDTE1MDYyMTE0MjkzMVoXDTI1MDYxODE0MjkzMVow
HzEdMBsGA1UEAxMUQ2xpZW50MTc3NkNlcnRiMjkyZTMwggIiMA0GCSqGSIb3DQEB
AQUAA4ICDwAwggIKAoICAQCav+DWEbqn8+VU1Fw7qDR2t5dhrNysdy6eZMyQK2ui
NyeiERFhk0sOEzzNUid940baRBpvc4fMMM2DI8tQV9wlJHuQG5BQDm5jgSIUgJ7h
2UJknno3N2gHTrytG9saw6BR5UkRRvfIuOrc0+I8/pBK+Vi8UnMgJiREnQqP28Z0
580ccYh5HuWjLg4a1Fuair94M7MJXHz2SXg9yXsFzj4X6I95FYVMnXFxGsA77kAI
+CoqsT4GAGCvaD04xl6gtJvcI9NfWfmoJa4j01e1Pw83Am8QJTaYqy4D0A/yA1mY
+5PG1tuvxn6HHf4vwxYGrs+hazDs8u5pZ+ErReZx7zu+ziO8Tispg7V6X4WBRPEB
rCzMFRPdFMRh2aoWzPvzk/MXXi6yKLRlbOFqcqkl/L3izkFbCmKTuRbrfXOFR6H8
Ukbmw28OY6MF7x0CX4gphmz/k89svh8/vLZmSRyeEG83zXzUve5xSOXv+odBt85B
6yW/19UPi+NfvJFhOXo4sF0uE8mv/Psylw6I2pP5qUdfBA7c7UVe144g71wUzjWd
Rb4eq20pDJeNOpQRsNTo08cTohFTy0wBMZFwDpeFxAQKVKRla0Yhlu2LTu5vobEN
NmxUBVrxoHHSFdF0xzpUikou5+4cXoVEk376xPDbptTSESgk97JSv/9JZJW1t0vm
nQIDAQABo4IBYzCCAV8wCQYDVR0TBAIwADAtBglghkgBhvhCAQ0EIBYeRWFzeS1S
U0EgR2VuZXJhdGVkIENlcnRpZmljYXRlMB0GA1UdDgQWBBRaVS4OVDsOROIIVR25
uaVaJZnItTCB4QYDVR0jBIHZMIHWgBQSzWAE0qCAnnDtxpm4eyzGUv0ZoaGBsqSB
rzCBrDELMAkGA1UEBhMCVVMxCzAJBgNVBAgTAk9IMREwDwYDVQQHEwhDb2x1bWJ1
czESMBAGA1UEChMJVmlraW5nVlBOMR0wGwYDVQQLExRNeU9yZ2FuaXphdGlvbmFs
VW5pdDEVMBMGA1UEAxMMVmlraW5nVlBOIENBMRAwDgYDVQQpEwdFYXN5UlNBMSEw
HwYJKoZIhvcNAQkBFhJtZUBteWhvc3QubXlkb21haW6CCQDPNYXugL8qPjATBgNV
HSUEDDAKBggrBgEFBQcDAjALBgNVHQ8EBAMCB4AwDQYJKoZIhvcNAQEEBQADggIB
AFsZzByjYNDoZpTxDs2dMEXe9FvC1Dp7euJHSpCphHI80tHQibpxC7X9biqhjhOB
R2GRcb8i39NV9LlwpFYOt6N/fgMr4+wgJvDt8781+jnykvGc6zy8lNRWW+00emR1
30OyGoUuz3G7+H2RLZN45HqSs17sWV0PR6qkr5J6j5ZEXibRHv4j+qheL7RkIUOd
LXEi6CMsjjNrY0hxhycAs75upVEva5NDBkEXwrGd0U7ZO/wfee0rz6mxbpDTAuiF
R8oTnerv2yAY6KLaQoL2idN7wz8FprxdNgfey0QjJseJHcyBNL5MZLbF5HO9C7Wh
MbDT1CudyhldOHdgn63QgpTUWHST+Be8Dp+sEDrtutOBmW0jTTO6ae4Knv7qGV94
mIWWHXo7A9YVDeDiOe0m90No7Qeczq7NQYDDRhj3tzjr4xFLOfJ193Q5l+R7Dts6
sef5HFb3eH1xcDvh/p6SjjT8AsXB52UcWs7YVyVkzpFy5iKfGJdKlDui/3pXv5yS
kQe3ZT0S+Li3v+wp7WTMGx6+/akssvhohNbtFy+pOahruZMTxUWI9I4+stOKgRu/
vrqf/SE1JoLCcPzMvMrM18ItyZ1cXueaN2GvcJcAVyBLSYX6SLdXTj+cJ/aaTlrv
44dv6z4r1+KzXUzohbHPMrGUmLxV/NrCg4AY85zblYvt
-----END CERTIFICATE-----
