Certificate:
    Data:
        Version: 3 (0x2)
        Serial Number: 10803 (0x2a33)
    Signature Algorithm: sha256WithRSAEncryption
        Issuer: C=US, ST=OH, L=Columbus, O=VikingVPN, OU=MyOrganizationalUnit, CN=VikingVPN CA/name=EasyRSA/emailAddress=me@myhost.mydomain
        Validity
            Not Before: Apr 25 03:52:36 2017 GMT
            Not After : Apr 23 03:52:36 2027 GMT
        Subject: CN=Client3Cert777b1e
        Subject Public Key Info:
            Public Key Algorithm: rsaEncryption
                Public-Key: (4096 bit)
                Modulus:
                    00:ce:ee:48:cc:19:39:72:90:56:0b:61:8b:8c:08:
                    95:59:4c:bb:f2:13:90:4e:f6:e9:7f:dd:3a:be:3a:
                    37:ed:85:0a:ce:76:2c:1f:d6:af:e6:77:2f:c0:28:
                    88:16:52:73:04:dc:d6:58:1f:60:bf:f3:c8:0c:b4:
                    91:8e:eb:44:2f:10:a0:db:ff:80:3c:0a:ef:d6:13:
                    32:b7:17:83:00:b6:eb:a8:f1:c4:4d:2e:9b:23:2d:
                    16:97:ce:6c:3f:79:e4:14:6f:dd:d7:c2:6c:e2:f6:
                    84:b8:ad:f1:7e:15:83:f4:b7:37:87:48:ba:b1:3e:
                    c2:ee:5e:32:70:c1:2e:6b:84:3a:d1:95:31:7c:b6:
                    45:d5:f2:7a:97:16:6f:0a:4e:a1:c8:95:92:16:d2:
                    b8:87:28:ce:e6:f3:e0:59:04:78:e3:3f:ab:ba:0e:
                    62:c4:b0:89:3f:25:fa:c3:7d:b9:69:ea:00:5c:83:
                    e9:18:f4:ee:95:f9:87:bb:f4:8e:42:d6:04:19:08:
                    2a:8d:40:87:41:3c:12:24:d6:49:63:6b:fb:b4:63:
                    87:74:9f:18:60:29:2c:09:54:d3:25:9f:e4:35:02:
                    37:63:d9:e9:c0:a5:13:fc:22:df:1f:b6:80:df:9c:
                    8b:14:05:db:ac:9e:f2:d4:27:05:d5:63:8e:d9:cd:
                    a0:a2:ad:bd:83:60:b7:f1:2a:53:de:62:eb:e1:55:
                    c6:e6:0d:4c:35:cd:98:86:70:80:5c:a4:f9:1f:b8:
                    35:11:cb:d7:93:47:29:b9:8c:58:e8:18:d6:fa:81:
                    da:f3:cf:b4:c8:47:b3:8b:2d:e0:61:6f:4a:08:61:
                    1b:de:30:8f:22:e9:3a:75:f3:b7:38:b2:03:f8:4f:
                    32:50:63:15:4c:ce:c2:e0:e9:ca:b2:01:61:40:6b:
                    72:aa:09:81:b3:70:eb:13:92:10:d5:02:f5:90:ac:
                    9b:2c:1a:ef:cf:34:a4:7b:a1:94:7c:9d:dd:b0:26:
                    3b:9c:f9:99:e5:1c:a3:59:bf:76:51:7b:d3:c2:a5:
                    f2:07:4a:a8:fe:b7:1b:58:e7:d0:26:70:04:92:fc:
                    61:f1:a8:38:e4:a8:30:33:16:f1:b7:1c:05:be:da:
                    4f:d9:25:80:f2:5d:dc:f6:39:63:92:54:9b:be:5b:
                    d2:b9:79:14:d5:9d:5c:f1:36:c1:92:d3:54:00:7c:
                    0a:41:f0:21:2b:c7:2c:2f:47:9c:3c:a7:23:02:c9:
                    db:90:f1:1c:03:4a:e9:4f:02:93:51:e1:2d:b4:d5:
                    30:af:9a:29:ae:58:56:9c:66:56:ba:7f:b3:8a:1f:
                    75:02:8e:86:56:5b:a4:63:1e:68:75:55:3e:f8:fa:
                    b2:ce:bb
                Exponent: 65537 (0x10001)
        X509v3 extensions:
            X509v3 Basic Constraints: 
                CA:FALSE
            Netscape Comment: 
                Easy-RSA Generated Certificate
            X509v3 Subject Key Identifier: 
                A0:5E:35:77:51:0A:10:15:9E:78:63:47:80:97:D2:E7:C6:28:00:AE
            X509v3 Authority Key Identifier: 
                keyid:12:CD:60:04:D2:A0:80:9E:70:ED:C6:99:B8:7B:2C:C6:52:FD:19:A1
                DirName:/C=US/ST=OH/L=Columbus/O=VikingVPN/OU=MyOrganizationalUnit/CN=VikingVPN CA/name=EasyRSA/emailAddress=me@myhost.mydomain
                serial:CF:35:85:EE:80:BF:2A:3E

            X509v3 Extended Key Usage: 
                TLS Web Client Authentication
            X509v3 Key Usage: 
                Digital Signature
    Signature Algorithm: sha256WithRSAEncryption
         28:c7:f0:3e:cf:a1:0c:45:7d:99:d1:5f:56:8b:66:40:b1:d9:
         9a:e0:f6:dc:76:0c:ae:0b:ce:1f:8a:43:4e:64:3a:c1:3d:5f:
         12:4e:5c:16:31:40:5d:c0:60:84:38:40:a1:27:e0:50:b6:f9:
         de:27:f6:fa:4d:df:4a:73:f5:d6:70:1a:69:0b:2b:71:c7:d7:
         4f:da:fb:2b:2c:ff:79:8d:25:1e:e4:b3:f5:d0:64:c2:06:ad:
         ef:e7:f2:45:e9:9c:57:7d:85:ae:19:6f:9a:32:eb:38:a1:4c:
         07:d3:46:30:30:d0:b3:79:47:2a:45:9b:df:23:3d:96:8b:b7:
         e8:dc:1b:4a:3f:3c:99:43:1e:a7:ef:45:75:8d:74:5c:d2:37:
         29:df:4d:06:56:74:57:40:5b:9a:19:85:4d:37:e2:a6:1d:42:
         9c:c3:2c:e4:51:9f:f9:07:90:2b:2b:10:b0:31:d2:11:4e:4c:
         09:f1:8f:38:14:78:5c:45:7f:fc:6f:cf:be:e5:b7:86:af:e7:
         60:34:36:b2:05:fe:82:a3:71:b6:80:07:8c:18:6d:dd:01:8b:
         cd:50:f8:b6:2e:1a:c8:b0:be:c7:da:ad:dc:d1:8f:91:02:59:
         0d:df:be:c0:5b:32:09:f9:9c:dd:9d:f3:07:77:66:40:98:79:
         4d:48:4b:29:cd:19:1d:3b:56:d8:8e:94:fe:2e:b7:bc:9b:0c:
         36:29:93:bd:9d:7f:03:24:dd:82:31:11:2e:5b:b6:7e:cb:9d:
         38:cf:37:70:2b:a2:6b:b6:bd:f5:b9:08:4e:74:25:34:50:7c:
         65:9a:8b:41:ca:a2:7a:e2:d7:85:5f:e8:41:56:3f:ca:37:ec:
         57:67:f7:4d:58:f1:f2:59:0f:f6:4a:f1:7b:fd:a5:8e:df:5b:
         c2:26:bf:65:a9:c8:20:a2:e4:00:29:5e:5d:78:81:b5:03:5f:
         cc:77:6b:f9:4a:b6:be:20:f5:5a:bb:83:9b:be:f6:14:90:af:
         8d:68:a3:a5:92:b6:ca:a0:ee:e7:88:87:3d:8c:94:de:f4:82:
         29:09:d0:ee:16:1e:5b:77:fa:7c:1b:be:05:61:12:f2:e0:0d:
         92:ad:19:2c:e9:14:4a:2b:60:4e:30:85:42:7a:84:e1:5e:9c:
         51:83:2f:10:9c:da:a5:fb:e2:4c:7e:a6:3f:90:e5:44:b1:97:
         77:07:e4:d2:5f:07:ad:bc:c1:bc:23:31:88:9a:11:2d:ba:9e:
         6c:bd:08:7a:91:08:aa:5c:a9:4e:e7:ed:a9:b0:70:a9:8a:81:
         75:3e:52:18:6d:ba:e2:ed:ca:49:bd:20:ec:f1:7b:4e:bb:76:
         8b:99:d8:c7:ff:1f:e4:9b
-----BEGIN CERTIFICATE-----
MIIGqjCCBJKgAwIBAgICKjMwDQYJKoZIhvcNAQELBQAwgawxCzAJBgNVBAYTAlVT
MQswCQYDVQQIEwJPSDERMA8GA1UEBxMIQ29sdW1idXMxEjAQBgNVBAoTCVZpa2lu
Z1ZQTjEdMBsGA1UECxMUTXlPcmdhbml6YXRpb25hbFVuaXQxFTATBgNVBAMTDFZp
a2luZ1ZQTiBDQTEQMA4GA1UEKRMHRWFzeVJTQTEhMB8GCSqGSIb3DQEJARYSbWVA
bXlob3N0Lm15ZG9tYWluMB4XDTE3MDQyNTAzNTIzNloXDTI3MDQyMzAzNTIzNlow
HDEaMBgGA1UEAxMRQ2xpZW50M0NlcnQ3NzdiMWUwggIiMA0GCSqGSIb3DQEBAQUA
A4ICDwAwggIKAoICAQDO7kjMGTlykFYLYYuMCJVZTLvyE5BO9ul/3Tq+OjfthQrO
diwf1q/mdy/AKIgWUnME3NZYH2C/88gMtJGO60QvEKDb/4A8Cu/WEzK3F4MAtuuo
8cRNLpsjLRaXzmw/eeQUb93Xwmzi9oS4rfF+FYP0tzeHSLqxPsLuXjJwwS5rhDrR
lTF8tkXV8nqXFm8KTqHIlZIW0riHKM7m8+BZBHjjP6u6DmLEsIk/JfrDfblp6gBc
g+kY9O6V+Ye79I5C1gQZCCqNQIdBPBIk1klja/u0Y4d0nxhgKSwJVNMln+Q1Ajdj
2enApRP8It8ftoDfnIsUBdusnvLUJwXVY47ZzaCirb2DYLfxKlPeYuvhVcbmDUw1
zZiGcIBcpPkfuDURy9eTRym5jFjoGNb6gdrzz7TIR7OLLeBhb0oIYRveMI8i6Tp1
87c4sgP4TzJQYxVMzsLg6cqyAWFAa3KqCYGzcOsTkhDVAvWQrJssGu/PNKR7oZR8
nd2wJjuc+ZnlHKNZv3ZRe9PCpfIHSqj+txtY59AmcASS/GHxqDjkqDAzFvG3HAW+
2k/ZJYDyXdz2OWOSVJu+W9K5eRTVnVzxNsGS01QAfApB8CErxywvR5w8pyMCyduQ
8RwDSulPApNR4S201TCvmimuWFacZla6f7OKH3UCjoZWW6RjHmh1VT74+rLOuwID
AQABo4IBYzCCAV8wCQYDVR0TBAIwADAtBglghkgBhvhCAQ0EIBYeRWFzeS1SU0Eg
R2VuZXJhdGVkIENlcnRpZmljYXRlMB0GA1UdDgQWBBSgXjV3UQoQFZ54Y0eAl9Ln
xigArjCB4QYDVR0jBIHZMIHWgBQSzWAE0qCAnnDtxpm4eyzGUv0ZoaGBsqSBrzCB
rDELMAkGA1UEBhMCVVMxCzAJBgNVBAgTAk9IMREwDwYDVQQHEwhDb2x1bWJ1czES
MBAGA1UEChMJVmlraW5nVlBOMR0wGwYDVQQLExRNeU9yZ2FuaXphdGlvbmFsVW5p
dDEVMBMGA1UEAxMMVmlraW5nVlBOIENBMRAwDgYDVQQpEwdFYXN5UlNBMSEwHwYJ
KoZIhvcNAQkBFhJtZUBteWhvc3QubXlkb21haW6CCQDPNYXugL8qPjATBgNVHSUE
DDAKBggrBgEFBQcDAjALBgNVHQ8EBAMCB4AwDQYJKoZIhvcNAQELBQADggIBACjH
8D7PoQxFfZnRX1aLZkCx2Zrg9tx2DK4Lzh+KQ05kOsE9XxJOXBYxQF3AYIQ4QKEn
4FC2+d4n9vpN30pz9dZwGmkLK3HH10/a+yss/3mNJR7ks/XQZMIGre/n8kXpnFd9
ha4Zb5oy6zihTAfTRjAw0LN5RypFm98jPZaLt+jcG0o/PJlDHqfvRXWNdFzSNynf
TQZWdFdAW5oZhU034qYdQpzDLORRn/kHkCsrELAx0hFOTAnxjzgUeFxFf/xvz77l
t4av52A0NrIF/oKjcbaAB4wYbd0Bi81Q+LYuGsiwvsfardzRj5ECWQ3fvsBbMgn5
nN2d8wd3ZkCYeU1ISynNGR07VtiOlP4ut7ybDDYpk72dfwMk3YIxES5btn7LnTjP
N3Aromu2vfW5CE50JTRQfGWai0HKonri14Vf6EFWP8o37Fdn901Y8fJZD/ZK8Xv9
pY7fW8Imv2WpyCCi5AApXl14gbUDX8x3a/lKtr4g9Vq7g5u+9hSQr41oo6WStsqg
7ueIhz2MlN70gikJ0O4WHlt3+nwbvgVhEvLgDZKtGSzpFEorYE4whUJ6hOFenFGD
LxCc2qX74kx+pj+Q5USxl3cH5NJfB628wbwjMYiaES26nmy9CHqRCKpcqU7n7amw
cKmKgXU+UhhtuuLtykm9IOzxe067douZ2Mf/H+Sb
-----END CERTIFICATE-----
