Certificate:
    Data:
        Version: 3 (0x2)
        Serial Number: 7962 (0x1f1a)
    Signature Algorithm: md5WithRSAEncryption
        Issuer: C=US, ST=OH, L=Columbus, O=VikingVPN, OU=MyOrganizationalUnit, CN=VikingVPN CA/name=EasyRSA/emailAddress=me@myhost.mydomain
        Validity
            Not Before: May 12 10:22:40 2016 GMT
            Not After : May 10 10:22:40 2026 GMT
        Subject: CN=Client2147Certeeebe7
        Subject Public Key Info:
            Public Key Algorithm: rsaEncryption
                Public-Key: (4096 bit)
                Modulus:
                    00:ef:1a:e0:81:25:29:19:76:f1:06:7d:4c:59:35:
                    3d:d4:43:ea:19:b1:de:96:f5:55:3c:73:8b:37:c3:
                    9a:5f:74:dc:0d:8b:c5:7e:b4:f0:4c:65:71:56:1d:
                    36:2d:68:99:ca:db:64:bd:97:8b:b9:49:70:c8:3e:
                    5b:18:4d:9e:1a:a4:95:a0:02:0c:da:16:3e:6a:11:
                    34:80:3e:1b:15:70:62:66:86:bf:53:6c:b2:0d:96:
                    78:f6:9f:c0:ab:3c:36:83:92:16:7f:72:d8:84:7b:
                    9b:ca:41:ca:3f:df:cb:35:4d:6e:8c:30:cc:26:c4:
                    f5:9f:a6:03:d6:21:e3:08:4c:dd:bc:05:99:82:2e:
                    71:c1:93:34:49:0e:a3:e3:42:8f:b6:f1:dd:bf:55:
                    ce:0e:9d:6a:be:02:5b:4e:45:58:67:b0:02:63:30:
                    c9:6f:e5:d7:39:90:60:20:8b:dd:b4:cf:85:29:3a:
                    4c:72:32:f2:46:2d:6f:59:49:ca:94:07:53:18:9b:
                    79:b8:1b:6f:73:e7:e5:20:89:4f:11:13:3e:59:c9:
                    20:1b:1d:2c:dc:7b:f7:e4:64:49:39:1f:2f:fb:58:
                    7f:29:2f:7a:85:67:a9:ec:28:d9:f5:7d:1b:a2:d9:
                    12:7e:22:c2:fe:97:fb:b1:34:39:e2:80:24:bb:2a:
                    74:69:1e:e7:c1:e8:67:80:15:57:76:dd:1b:26:cb:
                    73:7f:96:1a:ec:29:72:cf:34:2e:d9:38:30:6e:1b:
                    46:e1:fe:8d:ea:5b:46:78:1c:1e:a2:40:2a:96:fe:
                    63:cd:dd:38:cd:73:9f:d8:e7:4f:91:9a:c3:38:7e:
                    98:54:17:9e:b1:53:82:05:36:29:d3:05:7e:08:2b:
                    c4:92:1a:33:13:73:ef:2a:35:82:c6:7f:12:41:5f:
                    06:55:1f:95:d8:d6:0d:39:3f:99:88:07:7f:41:04:
                    c2:c4:52:97:70:8e:06:71:9e:2f:70:ae:25:1f:f1:
                    e6:b5:74:e2:97:1c:58:95:b3:47:e6:f1:e6:19:a5:
                    f2:71:ce:73:a3:80:d0:87:19:08:4a:7f:fa:e6:72:
                    e0:80:13:9e:f6:78:73:28:51:76:8d:1f:50:44:10:
                    02:10:d4:3f:64:3f:15:5a:4a:6a:37:ec:0d:71:cd:
                    81:42:d0:d1:2f:cc:7a:e4:c8:4b:91:c5:54:db:fe:
                    59:06:57:56:99:f6:a9:6a:7f:dc:78:41:87:09:a4:
                    32:23:2b:46:41:06:78:f9:2b:bb:2a:35:48:09:b7:
                    63:62:43:3d:88:89:1d:61:f7:c8:3c:a2:88:7c:0f:
                    ab:6c:6d:00:e1:63:72:93:a3:67:f1:22:5b:e2:e5:
                    a9:20:4d
                Exponent: 65537 (0x10001)
        X509v3 extensions:
            X509v3 Basic Constraints: 
                CA:FALSE
            Netscape Comment: 
                Easy-RSA Generated Certificate
            X509v3 Subject Key Identifier: 
                DB:95:FA:4D:C1:E0:82:83:3D:C1:32:69:2E:F7:85:E2:A1:9D:73:09
            X509v3 Authority Key Identifier: 
                keyid:12:CD:60:04:D2:A0:80:9E:70:ED:C6:99:B8:7B:2C:C6:52:FD:19:A1
                DirName:/C=US/ST=OH/L=Columbus/O=VikingVPN/OU=MyOrganizationalUnit/CN=VikingVPN CA/name=EasyRSA/emailAddress=me@myhost.mydomain
                serial:CF:35:85:EE:80:BF:2A:3E

            X509v3 Extended Key Usage: 
                TLS Web Client Authentication
            X509v3 Key Usage: 
                Digital Signature
    Signature Algorithm: md5WithRSAEncryption
         99:79:08:78:d5:e6:33:da:48:b2:fd:c5:f9:2e:66:f9:58:b2:
         36:5c:2b:aa:27:d2:49:53:83:bd:27:e8:8f:67:61:a5:1a:73:
         28:77:cd:0e:07:3e:64:5d:36:53:ce:e8:a4:ac:3e:4e:3c:10:
         ec:93:b3:ae:74:47:c1:29:cb:a3:71:45:46:10:c5:2c:57:0a:
         4e:84:20:63:a0:0a:8e:04:40:24:c5:6f:7b:f1:a2:3c:81:95:
         96:8e:6d:e5:a9:a4:6b:19:bc:7b:68:8a:f9:0d:50:82:57:4d:
         69:b3:ac:d6:62:a7:98:6e:52:14:64:b6:c7:fc:8a:21:19:cb:
         24:f2:60:94:f3:13:95:3a:fc:2e:44:d3:37:04:a0:ad:89:08:
         e9:82:55:a1:e5:02:4d:db:df:b6:32:8e:4a:b5:b2:94:58:7e:
         de:c8:9e:76:a2:d6:32:e7:1e:8b:d9:80:36:3d:bc:93:83:3a:
         b7:52:cd:61:f1:52:86:6c:54:79:5a:a4:64:5b:b9:26:96:cb:
         05:09:44:29:e9:7d:0d:94:75:94:5c:84:d3:d4:9a:fd:ef:c0:
         96:43:3a:e0:31:c9:41:75:5a:98:13:15:e1:1c:33:51:82:6a:
         70:15:33:a7:f6:c4:cf:e3:b2:ae:f2:04:9b:81:89:09:07:cd:
         a5:55:87:48:3c:6a:9c:fa:67:1b:64:60:90:da:72:a6:05:10:
         9f:d8:41:b3:c5:3f:69:7a:4c:85:c0:0e:f6:16:1f:31:24:bd:
         d5:77:1f:cc:b7:e7:83:13:e6:1c:f9:b5:e5:4f:54:5a:2d:cf:
         34:84:82:e7:33:65:22:3d:da:02:4b:13:56:7f:51:2e:d9:f5:
         79:c1:ec:2c:88:5d:be:eb:01:10:95:2a:10:ba:c8:aa:55:be:
         f6:a6:e5:f0:35:b8:12:5d:e5:0e:a4:40:b9:80:5b:24:2f:9a:
         cd:85:64:5c:f9:5c:91:e1:c3:f8:d7:78:c8:a7:40:a6:81:f1:
         4e:5d:b5:40:2f:42:c7:55:3f:40:15:01:c4:e1:cb:4e:c7:78:
         6c:28:af:0d:47:77:0e:0c:0c:59:05:d0:18:58:9c:8f:47:08:
         e4:a1:c9:0e:9c:cb:e4:2d:b1:b2:4e:6a:bb:83:0a:d8:11:e1:
         38:e0:ab:52:cd:28:37:90:f9:73:14:1f:f4:9e:14:b1:f2:0a:
         f3:06:78:57:e5:f6:2e:d1:01:8a:be:62:f4:b8:0a:39:31:bc:
         85:fc:48:b6:ce:d4:4d:52:5f:08:8a:75:aa:0e:df:87:ce:8d:
         c7:75:45:ca:01:41:cf:b4:1e:2b:53:2c:76:2d:59:d4:c8:03:
         2d:6f:78:97:3f:ea:36:e5
-----BEGIN CERTIFICATE-----
MIIGrTCCBJWgAwIBAgICHxowDQYJKoZIhvcNAQEEBQAwgawxCzAJBgNVBAYTAlVT
MQswCQYDVQQIEwJPSDERMA8GA1UEBxMIQ29sdW1idXMxEjAQBgNVBAoTCVZpa2lu
Z1ZQTjEdMBsGA1UECxMUTXlPcmdhbml6YXRpb25hbFVuaXQxFTATBgNVBAMTDFZp
a2luZ1ZQTiBDQTEQMA4GA1UEKRMHRWFzeVJTQTEhMB8GCSqGSIb3DQEJARYSbWVA
bXlob3N0Lm15ZG9tYWluMB4XDTE2MDUxMjEwMjI0MFoXDTI2MDUxMDEwMjI0MFow
HzEdMBsGA1UEAxMUQ2xpZW50MjE0N0NlcnRlZWViZTcwggIiMA0GCSqGSIb3DQEB
AQUAA4ICDwAwggIKAoICAQDvGuCBJSkZdvEGfUxZNT3UQ+oZsd6W9VU8c4s3w5pf
dNwNi8V+tPBMZXFWHTYtaJnK22S9l4u5SXDIPlsYTZ4apJWgAgzaFj5qETSAPhsV
cGJmhr9TbLINlnj2n8CrPDaDkhZ/ctiEe5vKQco/38s1TW6MMMwmxPWfpgPWIeMI
TN28BZmCLnHBkzRJDqPjQo+28d2/Vc4OnWq+AltORVhnsAJjMMlv5dc5kGAgi920
z4UpOkxyMvJGLW9ZScqUB1MYm3m4G29z5+UgiU8REz5ZySAbHSzce/fkZEk5Hy/7
WH8pL3qFZ6nsKNn1fRui2RJ+IsL+l/uxNDnigCS7KnRpHufB6GeAFVd23Rsmy3N/
lhrsKXLPNC7ZODBuG0bh/o3qW0Z4HB6iQCqW/mPN3TjNc5/Y50+RmsM4fphUF56x
U4IFNinTBX4IK8SSGjMTc+8qNYLGfxJBXwZVH5XY1g05P5mIB39BBMLEUpdwjgZx
ni9wriUf8ea1dOKXHFiVs0fm8eYZpfJxznOjgNCHGQhKf/rmcuCAE572eHMoUXaN
H1BEEAIQ1D9kPxVaSmo37A1xzYFC0NEvzHrkyEuRxVTb/lkGV1aZ9qlqf9x4QYcJ
pDIjK0ZBBnj5K7sqNUgJt2NiQz2IiR1h98g8ooh8D6tsbQDhY3KTo2fxIlvi5akg
TQIDAQABo4IBYzCCAV8wCQYDVR0TBAIwADAtBglghkgBhvhCAQ0EIBYeRWFzeS1S
U0EgR2VuZXJhdGVkIENlcnRpZmljYXRlMB0GA1UdDgQWBBTblfpNweCCgz3BMmku
94XioZ1zCTCB4QYDVR0jBIHZMIHWgBQSzWAE0qCAnnDtxpm4eyzGUv0ZoaGBsqSB
rzCBrDELMAkGA1UEBhMCVVMxCzAJBgNVBAgTAk9IMREwDwYDVQQHEwhDb2x1bWJ1
czESMBAGA1UEChMJVmlraW5nVlBOMR0wGwYDVQQLExRNeU9yZ2FuaXphdGlvbmFs
VW5pdDEVMBMGA1UEAxMMVmlraW5nVlBOIENBMRAwDgYDVQQpEwdFYXN5UlNBMSEw
HwYJKoZIhvcNAQkBFhJtZUBteWhvc3QubXlkb21haW6CCQDPNYXugL8qPjATBgNV
HSUEDDAKBggrBgEFBQcDAjALBgNVHQ8EBAMCB4AwDQYJKoZIhvcNAQEEBQADggIB
AJl5CHjV5jPaSLL9xfkuZvlYsjZcK6on0klTg70n6I9nYaUacyh3zQ4HPmRdNlPO
6KSsPk48EOyTs650R8Epy6NxRUYQxSxXCk6EIGOgCo4EQCTFb3vxojyBlZaObeWp
pGsZvHtoivkNUIJXTWmzrNZip5huUhRktsf8iiEZyyTyYJTzE5U6/C5E0zcEoK2J
COmCVaHlAk3b37Yyjkq1spRYft7Innai1jLnHovZgDY9vJODOrdSzWHxUoZsVHla
pGRbuSaWywUJRCnpfQ2UdZRchNPUmv3vwJZDOuAxyUF1WpgTFeEcM1GCanAVM6f2
xM/jsq7yBJuBiQkHzaVVh0g8apz6ZxtkYJDacqYFEJ/YQbPFP2l6TIXADvYWHzEk
vdV3H8y354MT5hz5teVPVFotzzSEguczZSI92gJLE1Z/US7Z9XnB7CyIXb7rARCV
KhC6yKpVvvam5fA1uBJd5Q6kQLmAWyQvms2FZFz5XJHhw/jXeMinQKaB8U5dtUAv
QsdVP0AVAcThy07HeGworw1Hdw4MDFkF0BhYnI9HCOShyQ6cy+QtsbJOaruDCtgR
4Tjgq1LNKDeQ+XMUH/SeFLHyCvMGeFfl9i7RAYq+YvS4CjkxvIX8SLbO1E1SXwiK
daoO34fOjcd1RcoBQc+0HitTLHYtWdTIAy1veJc/6jbl
-----END CERTIFICATE-----
