Certificate:
    Data:
        Version: 3 (0x2)
        Serial Number: 8791 (0x2257)
    Signature Algorithm: sha256WithRSAEncryption
        Issuer: C=US, ST=OH, L=Columbus, O=VikingVPN, OU=MyOrganizationalUnit, CN=VikingVPN CA/name=EasyRSA/emailAddress=me@myhost.mydomain
        Validity
            Not Before: Aug 15 14:14:50 2016 GMT
            Not After : Aug 13 14:14:50 2026 GMT
        Subject: CN=Client2225Certebdc94
        Subject Public Key Info:
            Public Key Algorithm: rsaEncryption
                Public-Key: (4096 bit)
                Modulus:
                    00:af:d3:70:eb:18:a9:fa:60:ac:5d:91:07:47:6b:
                    11:ba:2f:39:5c:f0:0b:18:40:4d:84:a2:1d:0f:4b:
                    6c:4d:95:58:24:55:8e:93:91:2a:29:0e:d3:96:9e:
                    86:8d:95:10:db:4f:7e:09:75:49:92:d1:f3:4b:8d:
                    e4:ac:c1:73:5a:1c:83:dd:dc:e2:a7:f6:a8:0b:40:
                    68:83:6c:61:1d:75:2b:4a:a8:9b:53:cc:d1:8c:ee:
                    68:28:71:f2:e3:87:43:d7:31:5a:c2:1c:26:14:58:
                    c2:a4:67:30:fd:09:dd:9c:b5:84:c8:70:0a:cf:40:
                    53:33:83:bf:b0:a4:7e:6e:1a:b5:f8:2f:36:72:7f:
                    f2:a9:b6:22:08:87:7b:11:37:d0:dd:47:2a:fb:64:
                    6b:86:2b:f9:2a:5e:b5:bd:49:53:d7:25:a5:09:6f:
                    9b:a1:8e:69:ab:94:4c:e9:e0:a9:ea:cf:c8:c7:b9:
                    f2:a8:34:4c:b1:ab:e2:36:90:52:d8:ad:aa:86:04:
                    49:e0:e2:e3:df:47:b6:a9:11:e2:6a:70:26:b4:e5:
                    9a:c0:7b:99:94:e9:96:f2:80:4f:99:2c:ec:c4:f4:
                    fb:75:6c:62:28:6a:fc:16:b6:e9:59:c2:07:37:70:
                    16:ed:c3:31:d7:4a:be:df:1e:f1:90:d1:45:f0:fb:
                    ab:56:e6:d8:42:35:3c:5d:bc:b0:52:75:ec:3e:c8:
                    bc:4b:98:66:19:a2:ff:d5:db:f7:13:bf:b0:d3:30:
                    47:3b:ff:eb:ff:63:07:f9:e3:78:4f:ac:76:8e:14:
                    03:7b:c9:ef:a5:71:73:7b:7f:6e:e9:c2:17:d4:99:
                    64:80:69:fa:ab:5c:53:cf:0d:e2:c9:a2:96:03:7c:
                    74:49:45:00:5f:4b:54:71:d7:cc:e6:8d:be:c5:76:
                    03:b4:6c:d8:76:b2:d1:85:bb:1a:68:c4:fd:19:b1:
                    95:4f:0e:9e:8a:69:ab:5c:de:9a:03:3b:ff:64:be:
                    9f:79:b1:e7:e9:cd:06:9a:a0:26:fa:15:04:82:5c:
                    1d:74:17:a2:36:4b:40:08:5c:bf:75:df:1f:27:69:
                    d5:e3:32:26:50:91:e0:3f:2c:59:b0:f6:96:3a:81:
                    da:cd:bd:cc:67:3e:ea:28:66:43:34:62:d3:55:30:
                    05:91:72:21:61:0b:49:ff:f4:3b:84:cd:83:50:71:
                    57:23:81:24:79:e0:6b:b4:f2:5b:7e:a7:3d:ab:6b:
                    03:0c:82:1b:37:04:9b:1e:73:5f:0a:ea:b6:db:a7:
                    81:44:ae:85:71:00:68:bc:b5:4a:19:c3:1a:b6:c2:
                    e2:58:19:6a:1a:fb:5b:7b:51:a3:0a:76:ec:00:ef:
                    13:ad:e7
                Exponent: 65537 (0x10001)
        X509v3 extensions:
            X509v3 Basic Constraints: 
                CA:FALSE
            Netscape Comment: 
                Easy-RSA Generated Certificate
            X509v3 Subject Key Identifier: 
                77:F8:25:14:5A:09:E9:9C:F4:A2:61:15:5F:4C:5F:4E:6A:9C:7F:6E
            X509v3 Authority Key Identifier: 
                keyid:12:CD:60:04:D2:A0:80:9E:70:ED:C6:99:B8:7B:2C:C6:52:FD:19:A1
                DirName:/C=US/ST=OH/L=Columbus/O=VikingVPN/OU=MyOrganizationalUnit/CN=VikingVPN CA/name=EasyRSA/emailAddress=me@myhost.mydomain
                serial:CF:35:85:EE:80:BF:2A:3E

            X509v3 Extended Key Usage: 
                TLS Web Client Authentication
            X509v3 Key Usage: 
                Digital Signature
    Signature Algorithm: sha256WithRSAEncryption
         61:5f:ab:e3:68:dd:e4:ef:55:01:60:1b:a8:21:c2:55:cf:95:
         da:32:d9:3c:41:d7:86:3a:cf:bd:d5:fd:fa:5f:65:97:96:57:
         fb:4a:0f:67:d7:1e:5b:4e:12:a6:77:d8:f1:d0:25:e3:3b:bf:
         02:30:82:3b:43:12:3b:60:b1:99:32:f2:5b:a5:ad:7c:c3:5b:
         99:2d:fd:44:02:ab:06:09:5a:d0:11:3d:d2:5e:6e:d4:69:32:
         d8:45:24:10:27:83:ab:92:c1:bb:bc:7d:68:0c:5d:7d:a6:11:
         44:21:17:db:79:0a:be:2b:d0:d7:c8:15:5c:53:f9:99:3e:60:
         3c:56:84:2d:4e:2c:a4:db:08:af:3c:4c:69:eb:c0:a6:aa:6e:
         c2:5b:f2:6d:9b:d5:63:37:fd:a1:98:56:a1:b3:c9:99:6e:06:
         ca:99:c1:dd:22:d8:e0:d2:61:d7:3d:9a:40:fd:09:36:b2:ce:
         b1:57:63:c5:35:bf:c2:cd:c0:0a:f9:d2:29:fc:a2:2b:18:12:
         ab:aa:79:e9:90:27:9f:04:b8:16:71:6a:c9:e9:4a:9a:8f:44:
         9c:f7:17:76:d5:bf:8b:7a:80:89:98:4d:b8:21:db:f2:cf:67:
         42:31:43:51:43:f1:d3:7b:dd:4e:9e:3f:4c:c6:7f:35:c7:fb:
         02:e9:1f:e3:b7:14:fd:49:4d:a3:b5:f3:83:82:96:b6:f1:d6:
         91:a0:3a:67:d4:61:69:30:28:7c:d2:a1:67:d0:06:65:e7:17:
         0b:52:43:09:18:37:54:91:8f:91:6b:ad:be:95:ae:7f:1c:b3:
         52:44:95:59:43:6f:5e:46:63:5a:f0:27:5f:af:8a:f5:94:d6:
         1b:55:0c:09:ae:d8:ba:56:c5:65:5e:ad:01:4a:ac:69:d4:dc:
         ec:77:55:e8:75:bb:4c:24:39:b4:79:29:25:c1:e4:1f:22:83:
         b4:5c:17:3f:1c:a5:16:81:8c:29:0d:e6:af:15:2c:8a:e0:a7:
         6d:fb:dc:e6:15:74:0c:7a:3c:09:00:43:19:35:b4:f2:38:4a:
         3a:36:c7:df:4d:8c:03:08:54:10:8d:a3:e8:6d:1c:72:63:25:
         dd:5b:ef:48:36:aa:cf:cb:6e:75:84:3f:ce:9e:2f:2d:00:a4:
         29:f6:e5:a6:48:33:13:6c:6f:7d:4a:c1:da:bf:74:7d:a0:8e:
         f7:44:6c:2c:cb:a8:35:ac:46:a6:2f:02:35:e8:0a:47:ae:12:
         60:82:19:6c:df:51:91:01:42:e2:b0:04:ff:ab:5a:27:65:fb:
         aa:30:2d:09:19:ea:05:f3:46:34:fd:3a:0e:5f:c4:9e:74:d0:
         05:f0:ff:22:ea:12:85:a0
-----BEGIN CERTIFICATE-----
MIIGrTCCBJWgAwIBAgICIlcwDQYJKoZIhvcNAQELBQAwgawxCzAJBgNVBAYTAlVT
MQswCQYDVQQIEwJPSDERMA8GA1UEBxMIQ29sdW1idXMxEjAQBgNVBAoTCVZpa2lu
Z1ZQTjEdMBsGA1UECxMUTXlPcmdhbml6YXRpb25hbFVuaXQxFTATBgNVBAMTDFZp
a2luZ1ZQTiBDQTEQMA4GA1UEKRMHRWFzeVJTQTEhMB8GCSqGSIb3DQEJARYSbWVA
bXlob3N0Lm15ZG9tYWluMB4XDTE2MDgxNTE0MTQ1MFoXDTI2MDgxMzE0MTQ1MFow
HzEdMBsGA1UEAxMUQ2xpZW50MjIyNUNlcnRlYmRjOTQwggIiMA0GCSqGSIb3DQEB
AQUAA4ICDwAwggIKAoICAQCv03DrGKn6YKxdkQdHaxG6Lzlc8AsYQE2Eoh0PS2xN
lVgkVY6TkSopDtOWnoaNlRDbT34JdUmS0fNLjeSswXNaHIPd3OKn9qgLQGiDbGEd
dStKqJtTzNGM7mgocfLjh0PXMVrCHCYUWMKkZzD9Cd2ctYTIcArPQFMzg7+wpH5u
GrX4LzZyf/KptiIIh3sRN9DdRyr7ZGuGK/kqXrW9SVPXJaUJb5uhjmmrlEzp4Knq
z8jHufKoNEyxq+I2kFLYraqGBEng4uPfR7apEeJqcCa05ZrAe5mU6ZbygE+ZLOzE
9Pt1bGIoavwWtulZwgc3cBbtwzHXSr7fHvGQ0UXw+6tW5thCNTxdvLBSdew+yLxL
mGYZov/V2/cTv7DTMEc7/+v/Ywf543hPrHaOFAN7ye+lcXN7f27pwhfUmWSAafqr
XFPPDeLJopYDfHRJRQBfS1Rx18zmjb7FdgO0bNh2stGFuxpoxP0ZsZVPDp6Kaatc
3poDO/9kvp95sefpzQaaoCb6FQSCXB10F6I2S0AIXL913x8nadXjMiZQkeA/LFmw
9pY6gdrNvcxnPuooZkM0YtNVMAWRciFhC0n/9DuEzYNQcVcjgSR54Gu08lt+pz2r
awMMghs3BJsec18K6rbbp4FEroVxAGi8tUoZwxq2wuJYGWoa+1t7UaMKduwA7xOt
5wIDAQABo4IBYzCCAV8wCQYDVR0TBAIwADAtBglghkgBhvhCAQ0EIBYeRWFzeS1S
U0EgR2VuZXJhdGVkIENlcnRpZmljYXRlMB0GA1UdDgQWBBR3+CUUWgnpnPSiYRVf
TF9Oapx/bjCB4QYDVR0jBIHZMIHWgBQSzWAE0qCAnnDtxpm4eyzGUv0ZoaGBsqSB
rzCBrDELMAkGA1UEBhMCVVMxCzAJBgNVBAgTAk9IMREwDwYDVQQHEwhDb2x1bWJ1
czESMBAGA1UEChMJVmlraW5nVlBOMR0wGwYDVQQLExRNeU9yZ2FuaXphdGlvbmFs
VW5pdDEVMBMGA1UEAxMMVmlraW5nVlBOIENBMRAwDgYDVQQpEwdFYXN5UlNBMSEw
HwYJKoZIhvcNAQkBFhJtZUBteWhvc3QubXlkb21haW6CCQDPNYXugL8qPjATBgNV
HSUEDDAKBggrBgEFBQcDAjALBgNVHQ8EBAMCB4AwDQYJKoZIhvcNAQELBQADggIB
AGFfq+No3eTvVQFgG6ghwlXPldoy2TxB14Y6z73V/fpfZZeWV/tKD2fXHltOEqZ3
2PHQJeM7vwIwgjtDEjtgsZky8lulrXzDW5kt/UQCqwYJWtARPdJebtRpMthFJBAn
g6uSwbu8fWgMXX2mEUQhF9t5Cr4r0NfIFVxT+Zk+YDxWhC1OLKTbCK88TGnrwKaq
bsJb8m2b1WM3/aGYVqGzyZluBsqZwd0i2ODSYdc9mkD9CTayzrFXY8U1v8LNwAr5
0in8oisYEquqeemQJ58EuBZxasnpSpqPRJz3F3bVv4t6gImYTbgh2/LPZ0IxQ1FD
8dN73U6eP0zGfzXH+wLpH+O3FP1JTaO184OClrbx1pGgOmfUYWkwKHzSoWfQBmXn
FwtSQwkYN1SRj5Frrb6Vrn8cs1JElVlDb15GY1rwJ1+vivWU1htVDAmu2LpWxWVe
rQFKrGnU3Ox3Veh1u0wkObR5KSXB5B8ig7RcFz8cpRaBjCkN5q8VLIrgp2373OYV
dAx6PAkAQxk1tPI4Sjo2x99NjAMIVBCNo+htHHJjJd1b70g2qs/LbnWEP86eLy0A
pCn25aZIMxNsb31Kwdq/dH2gjvdEbCzLqDWsRqYvAjXoCkeuEmCCGWzfUZEBQuKw
BP+rWidl+6owLQkZ6gXzRjT9Og5fxJ500AXw/yLqEoWg
-----END CERTIFICATE-----
