Certificate:
    Data:
        Version: 3 (0x2)
        Serial Number: 6867 (0x1ad3)
    Signature Algorithm: md5WithRSAEncryption
        Issuer: C=US, ST=OH, L=Columbus, O=VikingVPN, OU=MyOrganizationalUnit, CN=VikingVPN CA/name=EasyRSA/emailAddress=me@myhost.mydomain
        Validity
            Not Before: Dec  9 08:58:27 2015 GMT
            Not After : Dec  6 08:58:27 2025 GMT
        Subject: CN=Client1210Certb8174b
        Subject Public Key Info:
            Public Key Algorithm: rsaEncryption
                Public-Key: (4096 bit)
                Modulus:
                    00:97:3e:a7:e8:df:da:fa:4f:14:70:7d:c4:bd:b5:
                    6f:9d:eb:6e:21:89:3d:b6:61:ea:c5:d8:e8:9f:92:
                    d7:12:43:10:33:0c:90:28:14:92:9e:3a:21:23:b4:
                    3d:d3:6d:65:3a:5d:df:1c:43:15:81:b4:aa:56:05:
                    1e:52:4e:0b:d4:0d:28:45:5b:5f:30:b7:02:da:bb:
                    db:80:50:9e:24:70:c6:6f:74:ca:73:c0:cf:68:80:
                    15:f3:76:72:48:77:09:ff:0f:40:74:96:50:53:8f:
                    65:66:d6:db:58:cf:18:cf:55:62:46:31:51:84:b2:
                    8a:e4:b0:61:03:70:eb:0c:92:7d:74:14:27:2b:17:
                    00:f8:e6:99:fb:87:71:2f:b7:e4:f1:10:da:c0:80:
                    67:5b:ef:98:75:89:a3:82:bf:cd:57:4b:98:4f:ca:
                    ea:cf:9d:0e:15:9e:cc:b4:49:1f:8b:3c:93:9a:99:
                    88:08:3a:c0:1a:6b:88:69:d1:cf:e4:35:dd:14:aa:
                    46:fd:0b:f0:f3:f1:6d:7e:f4:4e:39:f6:b9:de:db:
                    3f:a9:12:8f:2a:f2:87:14:f4:ab:b6:1a:fd:e0:86:
                    22:ca:7a:45:09:5f:6f:90:98:58:bd:92:cd:2d:ab:
                    b9:93:55:e3:f6:ad:8e:75:bc:df:19:aa:cf:9d:3a:
                    bf:1c:97:72:03:74:16:89:bc:67:a1:d3:a1:22:8b:
                    f7:fb:94:ba:61:f9:66:d7:06:18:86:b3:c0:17:8e:
                    9e:36:d7:d1:64:3a:92:19:f0:6a:7b:b1:a6:1a:45:
                    6e:0b:c9:b7:d4:ce:3d:a3:77:25:7e:e3:73:00:a4:
                    9b:00:6c:e0:0c:0c:90:54:8a:74:05:0c:7f:30:df:
                    01:d9:12:43:91:d8:38:30:b9:b3:57:72:4a:f7:6a:
                    eb:cb:4c:c9:c5:9e:57:cc:e8:74:b4:0b:eb:87:a8:
                    d3:ef:e0:57:91:d8:c7:57:5e:6a:4b:3a:fa:6b:af:
                    28:6d:3c:2f:cc:2e:0c:0e:0a:70:35:73:41:e8:3b:
                    3d:84:55:15:24:ba:1f:61:98:36:cd:96:a8:87:0e:
                    39:ef:c2:da:81:6d:f5:f1:ca:ea:dd:d5:8c:9d:9e:
                    92:75:cb:6b:1b:fe:4f:a3:ab:0a:e0:7c:c6:4e:c3:
                    73:94:23:2d:ac:a9:95:99:47:91:b5:f0:30:66:a5:
                    7a:0d:40:e1:3c:bc:a3:42:93:5a:06:84:36:33:31:
                    cd:69:dc:c2:2f:ee:28:73:b3:5d:26:eb:e2:02:b5:
                    95:91:c2:73:a0:f0:18:64:b2:05:3b:5e:ad:b9:bc:
                    7c:e6:35:5b:8b:35:f8:b4:25:74:0f:fc:dc:bd:49:
                    64:d0:3b
                Exponent: 65537 (0x10001)
        X509v3 extensions:
            X509v3 Basic Constraints: 
                CA:FALSE
            Netscape Comment: 
                Easy-RSA Generated Certificate
            X509v3 Subject Key Identifier: 
                FE:CC:8F:5C:3E:C2:F3:38:B2:AC:D9:25:11:12:AF:97:E2:A1:D0:4F
            X509v3 Authority Key Identifier: 
                keyid:12:CD:60:04:D2:A0:80:9E:70:ED:C6:99:B8:7B:2C:C6:52:FD:19:A1
                DirName:/C=US/ST=OH/L=Columbus/O=VikingVPN/OU=MyOrganizationalUnit/CN=VikingVPN CA/name=EasyRSA/emailAddress=me@myhost.mydomain
                serial:CF:35:85:EE:80:BF:2A:3E

            X509v3 Extended Key Usage: 
                TLS Web Client Authentication
            X509v3 Key Usage: 
                Digital Signature
    Signature Algorithm: md5WithRSAEncryption
         6a:4a:c0:26:5c:c7:b9:8f:39:cf:dc:fe:a3:a8:1d:83:f0:59:
         2b:bc:b7:77:b5:03:a9:fe:a4:47:50:2a:1a:22:2c:26:53:ae:
         cf:c3:71:bf:dc:94:1b:27:b7:44:9a:7a:08:41:80:48:b7:86:
         87:be:c2:08:2c:05:2d:2b:00:00:c8:d4:1f:c5:bf:70:05:25:
         eb:73:81:8c:60:8f:f6:5f:80:e7:af:11:09:19:76:9f:35:c6:
         6f:2a:6f:5f:93:09:67:39:e9:5f:85:af:18:79:cb:83:d1:51:
         92:59:e1:33:22:41:94:18:ca:ad:f5:fb:40:de:56:34:cb:8b:
         ae:c1:ed:af:86:6c:42:e3:2f:71:25:89:23:5d:eb:4e:39:83:
         7a:2d:e9:de:36:bb:28:5d:8c:f2:6b:7d:5d:f8:e8:1a:2c:21:
         a5:cd:c2:6e:19:67:13:bc:b0:e7:93:50:c8:36:b6:b1:5b:c7:
         2c:25:2b:c2:c7:09:dd:a0:4b:f0:6f:76:82:5a:ec:09:bc:0a:
         ab:68:c1:2f:4e:68:94:04:85:12:75:0b:ba:d3:de:8e:b9:6c:
         96:b3:5e:88:ae:1d:e8:06:2e:81:0b:78:85:60:b5:b7:ea:65:
         29:ca:17:99:b6:ec:60:41:c1:c1:a8:1c:ef:d8:b4:04:6c:e4:
         87:1e:5b:c6:e9:df:d1:0c:03:bd:0a:cc:62:df:d7:1c:eb:21:
         b1:c5:5a:e1:50:d8:6f:be:71:33:8d:52:56:c5:94:3d:3f:0e:
         88:86:4f:f2:42:39:eb:0e:a9:91:e3:5e:99:5d:a9:94:86:04:
         ee:93:ec:5b:c8:a2:50:0b:aa:ca:1f:b0:d1:1a:dd:60:e4:94:
         b0:13:90:2f:74:69:18:96:42:b1:6a:a9:33:24:50:84:8b:e1:
         78:89:8e:dc:46:6f:86:ac:4d:19:b0:6a:e0:3e:3a:60:90:5d:
         38:ea:bf:a2:8c:fd:d9:70:85:34:10:fa:5b:9a:83:22:56:e1:
         97:e0:2c:64:c8:16:1e:3b:ba:a4:7b:ff:31:69:0c:c9:ba:6d:
         8b:3c:6c:4f:14:2d:32:a7:ac:f5:5f:5d:02:88:07:be:9e:2d:
         8d:43:c2:1d:53:c8:ee:a4:32:17:1d:d6:a9:ad:fe:3b:d1:cd:
         fa:97:34:9c:9b:90:df:2d:68:5f:9a:f1:2d:5a:6d:59:26:61:
         13:ac:58:87:5c:57:c5:98:7d:dd:83:56:6a:fd:a9:ef:81:b6:
         30:f7:97:87:e9:74:ad:e6:78:98:cc:ea:e5:8b:4a:f8:b5:c2:
         b2:08:fb:d7:21:20:20:ac:a7:b9:19:e0:0e:b3:64:40:58:11:
         82:3a:17:fa:40:10:45:a3
-----BEGIN CERTIFICATE-----
MIIGrTCCBJWgAwIBAgICGtMwDQYJKoZIhvcNAQEEBQAwgawxCzAJBgNVBAYTAlVT
MQswCQYDVQQIEwJPSDERMA8GA1UEBxMIQ29sdW1idXMxEjAQBgNVBAoTCVZpa2lu
Z1ZQTjEdMBsGA1UECxMUTXlPcmdhbml6YXRpb25hbFVuaXQxFTATBgNVBAMTDFZp
a2luZ1ZQTiBDQTEQMA4GA1UEKRMHRWFzeVJTQTEhMB8GCSqGSIb3DQEJARYSbWVA
bXlob3N0Lm15ZG9tYWluMB4XDTE1MTIwOTA4NTgyN1oXDTI1MTIwNjA4NTgyN1ow
HzEdMBsGA1UEAxMUQ2xpZW50MTIxMENlcnRiODE3NGIwggIiMA0GCSqGSIb3DQEB
AQUAA4ICDwAwggIKAoICAQCXPqfo39r6TxRwfcS9tW+d624hiT22YerF2OifktcS
QxAzDJAoFJKeOiEjtD3TbWU6Xd8cQxWBtKpWBR5STgvUDShFW18wtwLau9uAUJ4k
cMZvdMpzwM9ogBXzdnJIdwn/D0B0llBTj2Vm1ttYzxjPVWJGMVGEsorksGEDcOsM
kn10FCcrFwD45pn7h3Evt+TxENrAgGdb75h1iaOCv81XS5hPyurPnQ4Vnsy0SR+L
PJOamYgIOsAaa4hp0c/kNd0Uqkb9C/Dz8W1+9E459rne2z+pEo8q8ocU9Ku2Gv3g
hiLKekUJX2+QmFi9ks0tq7mTVeP2rY51vN8Zqs+dOr8cl3IDdBaJvGeh06Eii/f7
lLph+WbXBhiGs8AXjp4219FkOpIZ8Gp7saYaRW4LybfUzj2jdyV+43MApJsAbOAM
DJBUinQFDH8w3wHZEkOR2DgwubNXckr3auvLTMnFnlfM6HS0C+uHqNPv4FeR2MdX
XmpLOvprryhtPC/MLgwOCnA1c0HoOz2EVRUkuh9hmDbNlqiHDjnvwtqBbfXxyurd
1YydnpJ1y2sb/k+jqwrgfMZOw3OUIy2sqZWZR5G18DBmpXoNQOE8vKNCk1oGhDYz
Mc1p3MIv7ihzs10m6+ICtZWRwnOg8BhksgU7Xq25vHzmNVuLNfi0JXQP/Ny9SWTQ
OwIDAQABo4IBYzCCAV8wCQYDVR0TBAIwADAtBglghkgBhvhCAQ0EIBYeRWFzeS1S
U0EgR2VuZXJhdGVkIENlcnRpZmljYXRlMB0GA1UdDgQWBBT+zI9cPsLzOLKs2SUR
Eq+X4qHQTzCB4QYDVR0jBIHZMIHWgBQSzWAE0qCAnnDtxpm4eyzGUv0ZoaGBsqSB
rzCBrDELMAkGA1UEBhMCVVMxCzAJBgNVBAgTAk9IMREwDwYDVQQHEwhDb2x1bWJ1
czESMBAGA1UEChMJVmlraW5nVlBOMR0wGwYDVQQLExRNeU9yZ2FuaXphdGlvbmFs
VW5pdDEVMBMGA1UEAxMMVmlraW5nVlBOIENBMRAwDgYDVQQpEwdFYXN5UlNBMSEw
HwYJKoZIhvcNAQkBFhJtZUBteWhvc3QubXlkb21haW6CCQDPNYXugL8qPjATBgNV
HSUEDDAKBggrBgEFBQcDAjALBgNVHQ8EBAMCB4AwDQYJKoZIhvcNAQEEBQADggIB
AGpKwCZcx7mPOc/c/qOoHYPwWSu8t3e1A6n+pEdQKhoiLCZTrs/Dcb/clBsnt0Sa
eghBgEi3hoe+wggsBS0rAADI1B/Fv3AFJetzgYxgj/ZfgOevEQkZdp81xm8qb1+T
CWc56V+Frxh5y4PRUZJZ4TMiQZQYyq31+0DeVjTLi67B7a+GbELjL3EliSNd6045
g3ot6d42uyhdjPJrfV346BosIaXNwm4ZZxO8sOeTUMg2trFbxywlK8LHCd2gS/Bv
doJa7Am8CqtowS9OaJQEhRJ1C7rT3o65bJazXoiuHegGLoELeIVgtbfqZSnKF5m2
7GBBwcGoHO/YtARs5IceW8bp39EMA70KzGLf1xzrIbHFWuFQ2G++cTONUlbFlD0/
DoiGT/JCOesOqZHjXpldqZSGBO6T7FvIolALqsofsNEa3WDklLATkC90aRiWQrFq
qTMkUISL4XiJjtxGb4asTRmwauA+OmCQXTjqv6KM/dlwhTQQ+luagyJW4ZfgLGTI
Fh47uqR7/zFpDMm6bYs8bE8ULTKnrPVfXQKIB76eLY1Dwh1TyO6kMhcd1qmt/jvR
zfqXNJybkN8taF+a8S1abVkmYROsWIdcV8WYfd2DVmr9qe+BtjD3l4fpdK3meJjM
6uWLSvi1wrII+9chICCsp7kZ4A6zZEBYEYI6F/pAEEWj
-----END CERTIFICATE-----
