Certificate:
    Data:
        Version: 3 (0x2)
        Serial Number: 11851 (0x2e4b)
    Signature Algorithm: sha256WithRSAEncryption
        Issuer: C=US, ST=OH, L=Columbus, O=VikingVPN, OU=MyOrganizationalUnit, CN=VikingVPN CA/name=EasyRSA/emailAddress=me@myhost.mydomain
        Validity
            Not Before: Sep 17 02:42:32 2017 GMT
            Not After : Sep 15 02:42:32 2027 GMT
        Subject: CN=Client2993Certb7faf3
        Subject Public Key Info:
            Public Key Algorithm: rsaEncryption
                Public-Key: (4096 bit)
                Modulus:
                    00:b9:a2:be:05:84:5f:01:31:e5:7b:ad:d7:d3:07:
                    a3:32:7e:eb:0b:43:6b:22:a1:b0:a8:cc:24:8f:72:
                    18:fa:f8:e8:dd:da:a4:8b:7e:e9:8a:af:78:d8:4c:
                    c6:25:9b:3c:67:c7:f3:d2:bf:52:58:67:79:36:e8:
                    48:b6:38:b8:7d:84:21:43:99:12:37:59:33:db:87:
                    fe:e9:0c:70:6d:ea:74:00:2e:aa:8a:34:ef:0e:7c:
                    b6:e6:b8:69:85:b0:ff:95:3b:55:4a:f3:38:35:c6:
                    cc:b5:b3:a9:3f:dc:06:1f:1a:0e:7b:1a:63:d2:35:
                    d1:de:19:7e:52:64:37:66:59:ef:40:39:44:bd:0f:
                    35:c1:7c:cf:86:15:e3:82:10:d0:bc:6f:3c:a7:8f:
                    29:7a:8f:60:b0:9c:6b:38:72:13:34:dc:64:55:ef:
                    65:c7:24:be:b2:ec:6f:44:36:6a:86:9d:77:a8:52:
                    dc:87:38:82:50:2d:fa:ba:0e:f9:fe:42:db:df:5f:
                    f9:28:19:90:f5:3d:7a:13:f6:46:d0:7c:1b:cd:e4:
                    19:22:ca:47:75:1a:18:19:d6:ea:8c:0e:c5:fb:d7:
                    bd:06:a1:06:7e:04:80:ab:0b:87:d5:d7:a1:1f:c9:
                    2a:e9:e5:f6:23:60:a1:42:91:82:dc:fa:e2:e2:57:
                    c9:6d:3f:7c:77:eb:e9:aa:f2:4e:b0:99:19:54:f1:
                    dc:5e:70:5b:f5:6d:a3:35:7e:91:a0:55:ee:a3:dd:
                    af:b5:48:50:1b:a3:47:e9:07:31:88:01:ef:2c:5f:
                    2a:ae:71:6e:87:42:e4:25:80:88:76:db:4d:d5:cf:
                    18:60:7e:4c:06:43:fd:8c:d8:8b:29:6c:c9:42:2f:
                    91:ae:f8:a8:73:8f:0e:15:95:a8:4b:e7:7c:a7:82:
                    c5:57:94:1f:11:14:47:0d:5e:f6:25:da:27:6e:58:
                    86:39:f9:80:4c:3c:e9:74:f1:02:7b:3b:e6:46:26:
                    f2:3e:d2:5d:08:63:de:89:1e:c4:94:ed:a9:ea:1e:
                    67:a9:20:1a:79:5c:af:ed:7f:97:00:bf:82:bb:26:
                    88:51:a8:c2:01:bf:e0:f4:6d:94:d6:e8:3d:4a:bb:
                    ca:0b:79:a0:df:e6:c8:d2:c2:62:c4:73:d5:35:99:
                    8a:77:52:89:6b:fe:70:29:e3:ef:d6:1c:4f:e7:93:
                    ce:57:b1:10:3d:e5:cc:44:da:24:e7:b5:1b:0d:3b:
                    cf:96:2b:68:db:11:b0:a0:dd:d3:15:da:55:eb:8c:
                    bb:38:aa:7d:a1:8b:87:8c:02:1b:3e:39:70:27:39:
                    f0:02:a1:05:36:0d:d8:4f:6e:0a:92:99:21:28:92:
                    1b:fc:cb
                Exponent: 65537 (0x10001)
        X509v3 extensions:
            X509v3 Basic Constraints: 
                CA:FALSE
            Netscape Comment: 
                Easy-RSA Generated Certificate
            X509v3 Subject Key Identifier: 
                B1:53:36:8E:39:6D:C1:24:A0:B8:7F:87:BE:9A:6C:1E:9B:CC:98:97
            X509v3 Authority Key Identifier: 
                keyid:12:CD:60:04:D2:A0:80:9E:70:ED:C6:99:B8:7B:2C:C6:52:FD:19:A1
                DirName:/C=US/ST=OH/L=Columbus/O=VikingVPN/OU=MyOrganizationalUnit/CN=VikingVPN CA/name=EasyRSA/emailAddress=me@myhost.mydomain
                serial:CF:35:85:EE:80:BF:2A:3E

            X509v3 Extended Key Usage: 
                TLS Web Client Authentication
            X509v3 Key Usage: 
                Digital Signature
    Signature Algorithm: sha256WithRSAEncryption
         bc:20:17:fc:de:6f:c8:cd:43:76:e4:fa:9e:91:ca:61:a5:5b:
         b5:02:28:86:2c:10:53:a7:64:e9:4c:2b:89:cb:a5:8e:03:35:
         e9:18:f2:11:76:91:dc:62:ed:cc:01:49:4b:60:71:8f:dc:e3:
         86:77:92:ff:c1:41:c0:f3:7a:7d:c8:3d:0e:65:12:18:33:c4:
         43:c7:bf:be:37:26:a4:23:6a:26:39:43:1a:09:49:b3:ed:bd:
         b1:93:85:75:43:ba:e7:e9:f2:54:14:9e:42:65:09:a8:d7:d2:
         4d:51:18:9a:5f:e2:00:ed:96:12:1d:37:63:16:ef:57:71:61:
         05:42:10:f2:5e:8f:d9:81:58:00:48:e1:e0:b6:ca:60:cd:ab:
         ea:b3:15:cb:aa:cf:e5:a7:47:e2:21:12:0c:fb:94:1e:2c:fc:
         9b:40:7b:b2:cb:3e:0b:04:75:47:cb:2c:52:b6:5b:e9:e4:52:
         fd:bb:fc:07:77:c6:b2:5c:6d:48:44:94:a1:4f:fb:12:38:eb:
         69:9f:09:72:f3:23:6f:d1:58:69:72:5c:d3:bc:17:05:bb:0f:
         0d:40:c1:aa:9b:74:09:2c:df:dd:98:2c:a8:5a:ae:d3:7d:dc:
         5c:36:a1:0c:58:9c:6a:1d:ff:58:d9:77:f9:62:bc:1e:24:c0:
         e6:19:f0:20:7e:5d:b6:ec:1a:b9:f0:8b:ca:1b:57:93:36:7f:
         9f:cf:42:ad:d8:eb:6d:92:70:e7:93:1c:d4:af:1c:73:06:34:
         46:23:e9:d6:0b:18:02:46:8c:b3:7f:73:64:7f:f2:cf:29:7d:
         dd:ab:24:5d:e5:78:3b:c4:81:12:50:06:61:82:99:bf:4b:30:
         32:70:42:10:dc:79:ea:96:8f:63:ba:f6:cf:6d:99:f9:71:4f:
         ec:51:2b:4d:87:95:42:7b:74:48:dc:20:30:b6:3b:5a:8f:45:
         6d:91:27:b8:12:ad:b9:f6:c9:c4:98:4e:cd:e6:b8:9e:e2:1a:
         21:f0:a1:8c:42:fd:17:f2:a9:e1:6e:26:85:04:f7:85:07:ad:
         be:5c:92:87:c5:85:98:5f:f3:00:fb:dc:8d:53:73:eb:96:ca:
         81:4b:bd:ea:1c:12:1e:79:b8:ea:c9:86:94:42:c5:89:bd:1a:
         fd:f7:c6:47:0c:33:d2:41:26:81:35:59:eb:7c:b3:9b:1a:d5:
         06:91:b4:07:97:b7:ca:3d:48:b1:bd:2a:bf:e5:65:b6:b0:86:
         71:10:62:7a:36:b3:a0:c3:a7:c3:fd:b2:bc:14:16:6f:fd:52:
         9c:ea:1f:08:51:72:e7:62:35:06:37:0f:3f:7f:7a:36:ba:df:
         13:7c:44:53:07:b6:08:41
-----BEGIN CERTIFICATE-----
MIIGrTCCBJWgAwIBAgICLkswDQYJKoZIhvcNAQELBQAwgawxCzAJBgNVBAYTAlVT
MQswCQYDVQQIEwJPSDERMA8GA1UEBxMIQ29sdW1idXMxEjAQBgNVBAoTCVZpa2lu
Z1ZQTjEdMBsGA1UECxMUTXlPcmdhbml6YXRpb25hbFVuaXQxFTATBgNVBAMTDFZp
a2luZ1ZQTiBDQTEQMA4GA1UEKRMHRWFzeVJTQTEhMB8GCSqGSIb3DQEJARYSbWVA
bXlob3N0Lm15ZG9tYWluMB4XDTE3MDkxNzAyNDIzMloXDTI3MDkxNTAyNDIzMlow
HzEdMBsGA1UEAxMUQ2xpZW50Mjk5M0NlcnRiN2ZhZjMwggIiMA0GCSqGSIb3DQEB
AQUAA4ICDwAwggIKAoICAQC5or4FhF8BMeV7rdfTB6MyfusLQ2siobCozCSPchj6
+Ojd2qSLfumKr3jYTMYlmzxnx/PSv1JYZ3k26Ei2OLh9hCFDmRI3WTPbh/7pDHBt
6nQALqqKNO8OfLbmuGmFsP+VO1VK8zg1xsy1s6k/3AYfGg57GmPSNdHeGX5SZDdm
We9AOUS9DzXBfM+GFeOCENC8bzynjyl6j2CwnGs4chM03GRV72XHJL6y7G9ENmqG
nXeoUtyHOIJQLfq6Dvn+QtvfX/koGZD1PXoT9kbQfBvN5Bkiykd1GhgZ1uqMDsX7
170GoQZ+BICrC4fV16EfySrp5fYjYKFCkYLc+uLiV8ltP3x36+mq8k6wmRlU8dxe
cFv1baM1fpGgVe6j3a+1SFAbo0fpBzGIAe8sXyqucW6HQuQlgIh2203VzxhgfkwG
Q/2M2IspbMlCL5Gu+Khzjw4VlahL53yngsVXlB8RFEcNXvYl2iduWIY5+YBMPOl0
8QJ7O+ZGJvI+0l0IY96JHsSU7anqHmepIBp5XK/tf5cAv4K7JohRqMIBv+D0bZTW
6D1Ku8oLeaDf5sjSwmLEc9U1mYp3Uolr/nAp4+/WHE/nk85XsRA95cxE2iTntRsN
O8+WK2jbEbCg3dMV2lXrjLs4qn2hi4eMAhs+OXAnOfACoQU2DdhPbgqSmSEokhv8
ywIDAQABo4IBYzCCAV8wCQYDVR0TBAIwADAtBglghkgBhvhCAQ0EIBYeRWFzeS1S
U0EgR2VuZXJhdGVkIENlcnRpZmljYXRlMB0GA1UdDgQWBBSxUzaOOW3BJKC4f4e+
mmwem8yYlzCB4QYDVR0jBIHZMIHWgBQSzWAE0qCAnnDtxpm4eyzGUv0ZoaGBsqSB
rzCBrDELMAkGA1UEBhMCVVMxCzAJBgNVBAgTAk9IMREwDwYDVQQHEwhDb2x1bWJ1
czESMBAGA1UEChMJVmlraW5nVlBOMR0wGwYDVQQLExRNeU9yZ2FuaXphdGlvbmFs
VW5pdDEVMBMGA1UEAxMMVmlraW5nVlBOIENBMRAwDgYDVQQpEwdFYXN5UlNBMSEw
HwYJKoZIhvcNAQkBFhJtZUBteWhvc3QubXlkb21haW6CCQDPNYXugL8qPjATBgNV
HSUEDDAKBggrBgEFBQcDAjALBgNVHQ8EBAMCB4AwDQYJKoZIhvcNAQELBQADggIB
ALwgF/zeb8jNQ3bk+p6RymGlW7UCKIYsEFOnZOlMK4nLpY4DNekY8hF2kdxi7cwB
SUtgcY/c44Z3kv/BQcDzen3IPQ5lEhgzxEPHv743JqQjaiY5QxoJSbPtvbGThXVD
uufp8lQUnkJlCajX0k1RGJpf4gDtlhIdN2MW71dxYQVCEPJej9mBWABI4eC2ymDN
q+qzFcuqz+WnR+IhEgz7lB4s/JtAe7LLPgsEdUfLLFK2W+nkUv27/Ad3xrJcbUhE
lKFP+xI462mfCXLzI2/RWGlyXNO8FwW7Dw1AwaqbdAks392YLKhartN93Fw2oQxY
nGod/1jZd/livB4kwOYZ8CB+XbbsGrnwi8obV5M2f5/PQq3Y622ScOeTHNSvHHMG
NEYj6dYLGAJGjLN/c2R/8s8pfd2rJF3leDvEgRJQBmGCmb9LMDJwQhDceeqWj2O6
9s9tmflxT+xRK02HlUJ7dEjcIDC2O1qPRW2RJ7gSrbn2ycSYTs3muJ7iGiHwoYxC
/RfyqeFuJoUE94UHrb5ckofFhZhf8wD73I1Tc+uWyoFLveocEh55uOrJhpRCxYm9
Gv33xkcMM9JBJoE1Wet8s5sa1QaRtAeXt8o9SLG9Kr/lZbawhnEQYno2s6DDp8P9
srwUFm/9UpzqHwhRcudiNQY3Dz9/eja63xN8RFMHtghB
-----END CERTIFICATE-----
