Certificate:
    Data:
        Version: 3 (0x2)
        Serial Number: 9645 (0x25ad)
    Signature Algorithm: sha256WithRSAEncryption
        Issuer: C=US, ST=OH, L=Columbus, O=VikingVPN, OU=MyOrganizationalUnit, CN=VikingVPN CA/name=EasyRSA/emailAddress=me@myhost.mydomain
        Validity
            Not Before: Dec  4 15:42:16 2016 GMT
            Not After : Dec  2 15:42:16 2026 GMT
        Subject: CN=Client2571Certa6dd0e
        Subject Public Key Info:
            Public Key Algorithm: rsaEncryption
                Public-Key: (4096 bit)
                Modulus:
                    00:e7:0e:b5:63:a5:dc:26:aa:e9:2a:1e:0c:eb:64:
                    c5:82:7a:e3:04:67:2c:cf:d3:d6:c9:21:3c:44:10:
                    8d:f6:04:de:86:f8:18:ac:e8:1f:e4:e9:bd:19:50:
                    6c:90:94:03:95:d7:7a:fd:fd:cc:cf:0f:ce:a0:af:
                    c0:cc:40:e9:ad:48:75:9d:92:27:c7:16:57:5c:c6:
                    64:e8:59:25:ab:56:6b:9d:3c:2a:61:b9:06:5a:62:
                    a5:38:19:28:8b:06:5d:6f:d0:6f:cc:9e:08:15:4b:
                    b5:ae:35:60:4b:1e:a9:15:e1:4e:bb:85:65:91:fd:
                    dc:02:a2:9c:a5:bf:e0:9d:63:a0:29:8b:e4:26:bb:
                    db:53:7f:6f:26:d4:fe:6f:76:ff:29:c5:03:c6:10:
                    c4:bf:62:ad:16:98:31:50:44:2e:d5:99:c0:01:b5:
                    08:b9:b3:6c:c3:12:af:61:21:08:56:66:be:a9:52:
                    ea:ec:be:c8:3b:7d:9b:df:65:52:8f:c0:90:c9:56:
                    de:60:e7:87:73:e7:e4:ce:29:eb:60:f2:e6:09:a6:
                    ff:26:87:18:1e:f4:b3:a3:07:0a:64:2d:f0:95:90:
                    71:46:e3:ea:c4:8f:99:29:52:13:4a:1e:f8:2e:b3:
                    5c:93:4f:73:51:30:ec:11:b2:2a:82:a4:e8:d4:23:
                    b6:a4:f0:4e:d4:93:37:1e:ab:25:a6:e1:90:ec:fa:
                    22:35:a9:c1:13:0d:2b:15:35:a1:eb:b8:1f:32:a8:
                    d9:2d:df:79:7c:46:9d:8b:39:ed:77:5f:5d:55:81:
                    16:a5:15:12:42:66:5b:3c:5d:3d:5d:85:a3:76:cb:
                    c1:f2:0d:3a:a0:68:56:8a:0d:23:42:58:14:2d:d7:
                    7d:2a:04:44:d0:34:27:8a:f4:20:09:27:be:83:b9:
                    2a:bb:3a:31:d0:f7:80:3b:ed:14:25:eb:16:bc:4a:
                    5f:e4:e5:ca:98:7c:55:ae:00:6a:b2:03:e0:84:c8:
                    91:b9:1a:6e:e9:d9:94:6e:5e:83:75:f4:65:a0:6b:
                    c7:a5:40:6f:68:8a:06:93:fc:b7:a8:79:cf:09:3d:
                    0c:ce:69:ee:c7:27:45:85:be:02:04:35:b4:34:a2:
                    10:fd:e4:e7:fe:d7:91:00:a1:fb:9a:86:49:91:54:
                    b6:52:9c:41:32:0b:73:aa:00:83:b6:26:75:f1:66:
                    4f:a4:f3:58:68:0f:af:b7:33:db:3b:ec:21:61:77:
                    8c:04:0f:e6:7e:e2:ff:59:13:d6:af:da:65:70:9c:
                    69:65:ba:58:5f:8f:a2:03:6b:36:d9:5f:8a:47:0d:
                    df:62:8a:39:db:72:ca:82:6b:3f:e8:7f:3c:4f:65:
                    59:a3:5d
                Exponent: 65537 (0x10001)
        X509v3 extensions:
            X509v3 Basic Constraints: 
                CA:FALSE
            Netscape Comment: 
                Easy-RSA Generated Certificate
            X509v3 Subject Key Identifier: 
                B1:86:57:25:C3:46:CB:02:F2:6F:A4:6C:6C:7C:94:78:F5:79:9F:00
            X509v3 Authority Key Identifier: 
                keyid:12:CD:60:04:D2:A0:80:9E:70:ED:C6:99:B8:7B:2C:C6:52:FD:19:A1
                DirName:/C=US/ST=OH/L=Columbus/O=VikingVPN/OU=MyOrganizationalUnit/CN=VikingVPN CA/name=EasyRSA/emailAddress=me@myhost.mydomain
                serial:CF:35:85:EE:80:BF:2A:3E

            X509v3 Extended Key Usage: 
                TLS Web Client Authentication
            X509v3 Key Usage: 
                Digital Signature
    Signature Algorithm: sha256WithRSAEncryption
         aa:cb:ea:5e:0d:07:be:b6:e7:f1:12:e3:65:93:c8:87:64:5a:
         59:26:fb:c7:5e:8c:78:02:8f:da:02:64:8c:ae:17:1f:7c:76:
         8b:4b:e8:82:f4:59:a8:d2:ff:be:23:d7:1b:32:cf:96:d9:d0:
         a6:cc:73:f3:c3:c6:27:46:f3:f3:00:74:c6:bc:52:8b:a7:1e:
         47:bd:4a:03:ed:d1:b3:91:fb:9a:fc:f3:53:e4:42:5e:90:c1:
         3f:db:8a:8b:48:41:6d:6a:42:bd:58:45:a8:f3:f9:a6:43:2b:
         8a:77:3d:b1:1c:77:f8:8b:9d:10:db:98:06:25:3b:ad:72:1e:
         d0:0e:ab:ee:8d:be:8b:aa:65:2d:55:26:6d:b4:d2:e1:b7:79:
         7b:e7:d6:59:84:37:d1:a3:60:9d:a9:a2:c6:76:8c:a5:d1:5c:
         98:34:a3:82:15:48:8b:7f:1b:76:82:7d:74:5b:42:4f:0e:4d:
         3a:c3:cc:29:11:30:4d:6b:8e:62:65:01:78:23:fb:6e:6f:b5:
         2a:17:d3:3e:05:14:aa:7d:46:4f:3d:d8:1d:bd:86:b0:d7:9c:
         cf:54:6c:ac:3b:55:8a:35:de:1e:6e:d1:79:a9:da:92:06:0b:
         65:17:b3:1f:bb:a8:6e:41:ea:36:07:cf:4f:9e:3e:54:af:81:
         29:20:b0:63:65:78:47:00:c0:d2:77:08:01:3b:45:b6:b5:5d:
         9c:63:94:85:f4:f6:9a:ef:48:8f:cd:c8:ac:25:46:b5:5d:6e:
         0e:74:c3:69:00:9a:68:d0:65:85:8d:72:55:c3:e5:6e:36:b9:
         c1:b1:3c:57:fd:27:07:59:bb:6e:bb:22:3e:1b:16:2b:14:d4:
         2c:37:d8:68:e7:1b:14:33:c9:48:23:2c:5f:72:a6:94:e6:6a:
         c4:e5:ea:a1:1a:85:ab:fa:33:c2:03:21:88:1b:de:8c:4d:1b:
         93:ee:ba:27:2f:7c:ed:ba:fa:80:61:21:6b:e2:41:64:70:d7:
         d2:4f:fa:43:3a:69:b8:6b:8e:f7:70:09:08:1f:4d:47:94:76:
         e9:d6:a4:22:80:48:f2:4a:aa:a8:a4:8c:31:f8:cc:eb:1e:39:
         82:19:f0:80:9d:0d:26:10:9d:b2:3b:47:0b:a7:b8:84:03:58:
         19:56:2f:46:79:4f:a5:1d:92:35:86:48:44:71:f7:07:fd:69:
         0b:3b:1a:74:fd:51:1a:04:0b:43:fa:72:f6:ce:5e:00:f7:ac:
         ac:f0:69:7b:2d:61:b7:26:db:6d:d6:18:2a:c7:77:3b:ba:ce:
         2c:0a:3e:cb:cf:6e:b2:24:98:9d:fd:ae:7b:6b:96:99:55:51:
         83:24:b9:74:86:36:f4:0f
-----BEGIN CERTIFICATE-----
MIIGrTCCBJWgAwIBAgICJa0wDQYJKoZIhvcNAQELBQAwgawxCzAJBgNVBAYTAlVT
MQswCQYDVQQIEwJPSDERMA8GA1UEBxMIQ29sdW1idXMxEjAQBgNVBAoTCVZpa2lu
Z1ZQTjEdMBsGA1UECxMUTXlPcmdhbml6YXRpb25hbFVuaXQxFTATBgNVBAMTDFZp
a2luZ1ZQTiBDQTEQMA4GA1UEKRMHRWFzeVJTQTEhMB8GCSqGSIb3DQEJARYSbWVA
bXlob3N0Lm15ZG9tYWluMB4XDTE2MTIwNDE1NDIxNloXDTI2MTIwMjE1NDIxNlow
HzEdMBsGA1UEAxMUQ2xpZW50MjU3MUNlcnRhNmRkMGUwggIiMA0GCSqGSIb3DQEB
AQUAA4ICDwAwggIKAoICAQDnDrVjpdwmqukqHgzrZMWCeuMEZyzP09bJITxEEI32
BN6G+Bis6B/k6b0ZUGyQlAOV13r9/czPD86gr8DMQOmtSHWdkifHFldcxmToWSWr
VmudPCphuQZaYqU4GSiLBl1v0G/MnggVS7WuNWBLHqkV4U67hWWR/dwCopylv+Cd
Y6Api+Qmu9tTf28m1P5vdv8pxQPGEMS/Yq0WmDFQRC7VmcABtQi5s2zDEq9hIQhW
Zr6pUursvsg7fZvfZVKPwJDJVt5g54dz5+TOKetg8uYJpv8mhxge9LOjBwpkLfCV
kHFG4+rEj5kpUhNKHvgus1yTT3NRMOwRsiqCpOjUI7ak8E7UkzceqyWm4ZDs+iI1
qcETDSsVNaHruB8yqNkt33l8Rp2LOe13X11VgRalFRJCZls8XT1dhaN2y8HyDTqg
aFaKDSNCWBQt130qBETQNCeK9CAJJ76DuSq7OjHQ94A77RQl6xa8Sl/k5cqYfFWu
AGqyA+CEyJG5Gm7p2ZRuXoN19GWga8elQG9oigaT/Leoec8JPQzOae7HJ0WFvgIE
NbQ0ohD95Of+15EAofuahkmRVLZSnEEyC3OqAIO2JnXxZk+k81hoD6+3M9s77CFh
d4wED+Z+4v9ZE9av2mVwnGllulhfj6IDazbZX4pHDd9iijnbcsqCaz/ofzxPZVmj
XQIDAQABo4IBYzCCAV8wCQYDVR0TBAIwADAtBglghkgBhvhCAQ0EIBYeRWFzeS1S
U0EgR2VuZXJhdGVkIENlcnRpZmljYXRlMB0GA1UdDgQWBBSxhlclw0bLAvJvpGxs
fJR49XmfADCB4QYDVR0jBIHZMIHWgBQSzWAE0qCAnnDtxpm4eyzGUv0ZoaGBsqSB
rzCBrDELMAkGA1UEBhMCVVMxCzAJBgNVBAgTAk9IMREwDwYDVQQHEwhDb2x1bWJ1
czESMBAGA1UEChMJVmlraW5nVlBOMR0wGwYDVQQLExRNeU9yZ2FuaXphdGlvbmFs
VW5pdDEVMBMGA1UEAxMMVmlraW5nVlBOIENBMRAwDgYDVQQpEwdFYXN5UlNBMSEw
HwYJKoZIhvcNAQkBFhJtZUBteWhvc3QubXlkb21haW6CCQDPNYXugL8qPjATBgNV
HSUEDDAKBggrBgEFBQcDAjALBgNVHQ8EBAMCB4AwDQYJKoZIhvcNAQELBQADggIB
AKrL6l4NB7625/ES42WTyIdkWlkm+8dejHgCj9oCZIyuFx98dotL6IL0WajS/74j
1xsyz5bZ0KbMc/PDxidG8/MAdMa8UounHke9SgPt0bOR+5r881PkQl6QwT/biotI
QW1qQr1YRajz+aZDK4p3PbEcd/iLnRDbmAYlO61yHtAOq+6NvouqZS1VJm200uG3
eXvn1lmEN9GjYJ2posZ2jKXRXJg0o4IVSIt/G3aCfXRbQk8OTTrDzCkRME1rjmJl
AXgj+25vtSoX0z4FFKp9Rk892B29hrDXnM9UbKw7VYo13h5u0Xmp2pIGC2UXsx+7
qG5B6jYHz0+ePlSvgSkgsGNleEcAwNJ3CAE7Rba1XZxjlIX09prvSI/NyKwlRrVd
bg50w2kAmmjQZYWNclXD5W42ucGxPFf9JwdZu267Ij4bFisU1Cw32GjnGxQzyUgj
LF9yppTmasTl6qEahav6M8IDIYgb3oxNG5PuuicvfO26+oBhIWviQWRw19JP+kM6
abhrjvdwCQgfTUeUdunWpCKASPJKqqikjDH4zOseOYIZ8ICdDSYQnbI7RwunuIQD
WBlWL0Z5T6UdkjWGSERx9wf9aQs7GnT9URoEC0P6cvbOXgD3rKzwaXstYbcm223W
GCrHdzu6ziwKPsvPbrIkmJ39rntrlplVUYMkuXSGNvQP
-----END CERTIFICATE-----
