Certificate:
    Data:
        Version: 3 (0x2)
        Serial Number: 7282 (0x1c72)
    Signature Algorithm: md5WithRSAEncryption
        Issuer: C=US, ST=OH, L=Columbus, O=VikingVPN, OU=MyOrganizationalUnit, CN=VikingVPN CA/name=EasyRSA/emailAddress=me@myhost.mydomain
        Validity
            Not Before: Feb 24 05:57:37 2016 GMT
            Not After : Feb 21 05:57:37 2026 GMT
        Subject: CN=Client879Certb5a338
        Subject Public Key Info:
            Public Key Algorithm: rsaEncryption
                Public-Key: (4096 bit)
                Modulus:
                    00:c3:62:8c:41:b7:5e:64:67:69:34:d4:dd:91:01:
                    8a:25:62:25:95:08:9c:e5:a8:a3:b9:d1:c8:d4:60:
                    52:68:6c:35:37:b3:34:6b:89:3e:2d:2e:3d:c2:25:
                    fe:d9:7a:c4:92:53:0b:f2:96:73:31:59:2b:fc:d5:
                    70:ab:a4:b3:e5:ce:6f:15:1d:40:28:4f:26:b4:53:
                    5a:0a:53:e1:2c:cd:c8:a4:a1:0a:d3:f8:e9:51:ec:
                    93:f8:d1:63:ea:f1:a4:3d:35:43:8b:99:bc:0f:23:
                    fc:65:4d:ef:da:af:e8:ef:19:90:cf:d6:bf:45:09:
                    56:c9:06:f4:20:19:b2:53:db:19:7d:12:00:13:89:
                    a9:6f:6f:d1:79:48:9b:2a:e3:68:08:f3:04:71:45:
                    c3:dd:5d:07:bf:59:73:29:00:5c:ce:2c:50:52:04:
                    13:d9:a0:2e:c4:bb:fe:64:c0:fa:d2:20:90:df:2e:
                    0b:6e:f3:4c:c5:ee:4f:e5:e7:06:3a:65:47:96:34:
                    09:bc:c0:34:44:8b:a7:6c:ea:cf:67:dd:37:c6:7e:
                    30:c4:3a:e6:95:3e:d6:0d:00:d6:a3:e4:65:bf:0d:
                    63:b7:74:49:d2:9b:0b:d1:22:16:02:c2:22:b4:f9:
                    c5:b1:11:2e:09:4c:ad:d4:11:a6:b2:30:7d:43:86:
                    98:dc:28:95:04:65:b4:d4:1d:ee:27:88:19:65:4c:
                    5f:bf:99:55:d0:a1:97:3d:60:5e:b4:8b:16:54:3d:
                    4f:8b:20:b3:95:fd:0c:ef:03:5a:58:05:17:fb:ff:
                    7c:e8:29:3d:9f:53:6d:ce:69:f1:18:76:e5:9b:1e:
                    99:e3:4a:1a:1a:a5:b9:42:31:47:0c:09:72:68:fa:
                    55:a0:81:cf:4e:fa:fd:f5:10:0d:ff:a8:3e:32:f7:
                    57:f7:7a:3b:b6:b8:7f:75:e2:e0:a7:39:b2:a3:e5:
                    34:e7:e0:0e:41:26:86:b3:a5:03:77:06:16:a3:61:
                    6e:6e:42:38:6d:c9:62:bd:69:f2:16:9f:f4:00:e8:
                    30:5b:02:b3:77:59:ab:85:ba:b2:6e:da:93:f2:ae:
                    3b:53:cd:ac:64:02:b7:52:fb:e5:3c:06:97:23:bf:
                    13:4d:4c:b6:5e:cb:3e:f0:5d:31:fd:41:65:58:59:
                    13:89:d7:5e:29:ee:18:11:c2:09:a6:08:cf:4e:59:
                    69:0f:6b:7a:dc:a9:95:69:c1:2a:cb:92:39:f5:4a:
                    42:e7:c8:9d:b0:30:61:96:1f:48:ef:b9:6c:b1:3b:
                    59:c6:41:4c:8c:f9:88:11:e7:7a:dd:bd:de:90:eb:
                    bc:cb:6a:dc:44:4d:00:97:7e:44:09:a9:40:fb:40:
                    44:d4:0d
                Exponent: 65537 (0x10001)
        X509v3 extensions:
            X509v3 Basic Constraints: 
                CA:FALSE
            Netscape Comment: 
                Easy-RSA Generated Certificate
            X509v3 Subject Key Identifier: 
                3C:BC:3D:6C:99:25:42:C0:FC:15:32:63:0F:FE:97:3D:F1:6E:DF:AF
            X509v3 Authority Key Identifier: 
                keyid:12:CD:60:04:D2:A0:80:9E:70:ED:C6:99:B8:7B:2C:C6:52:FD:19:A1
                DirName:/C=US/ST=OH/L=Columbus/O=VikingVPN/OU=MyOrganizationalUnit/CN=VikingVPN CA/name=EasyRSA/emailAddress=me@myhost.mydomain
                serial:CF:35:85:EE:80:BF:2A:3E

            X509v3 Extended Key Usage: 
                TLS Web Client Authentication
            X509v3 Key Usage: 
                Digital Signature
    Signature Algorithm: md5WithRSAEncryption
         a6:9c:4a:e3:44:34:c0:8d:9c:80:c1:45:c8:a8:6f:30:54:4c:
         ac:a8:db:f4:ac:d2:2b:fa:49:55:73:d4:47:8c:9f:b4:1d:1b:
         03:01:43:f1:b4:98:89:74:83:e7:b6:eb:97:b7:41:b4:9b:eb:
         55:81:e4:2a:2c:cf:d9:98:cd:e8:ff:62:16:b7:31:e4:0b:98:
         d9:53:71:37:55:a6:c0:c3:9d:b4:3b:73:21:6a:5f:fb:51:38:
         c2:16:bb:2e:61:4c:40:80:e8:92:ce:db:2f:f1:f4:41:4a:15:
         93:c5:d8:1e:a3:71:92:11:17:9c:03:f9:cc:13:70:d0:01:2c:
         d8:83:0d:9b:bb:98:e0:3a:0b:37:05:37:59:b5:37:9e:84:dd:
         60:6d:d3:53:91:81:57:58:d9:b8:b1:fe:8e:3a:d8:69:d9:a8:
         00:6a:e5:87:bb:74:92:ac:1b:a3:aa:11:47:3b:4a:6e:4b:23:
         bb:56:0f:49:3c:73:e0:a2:e7:94:7a:82:bf:0a:92:5a:93:e7:
         59:8d:5d:21:c1:4f:f2:fe:a1:9b:5d:5e:b1:ca:36:1a:f3:86:
         e0:ef:fd:ff:df:3d:40:a1:b1:bd:d3:bd:94:b1:b1:a5:57:67:
         73:5b:35:74:8b:cf:f9:6b:48:54:9a:05:75:1b:45:a5:ac:01:
         d3:07:98:70:c8:bc:e1:d8:ed:d2:69:88:6d:af:36:16:c6:8f:
         9e:28:22:3c:82:e5:d3:c2:5a:af:9f:f0:89:d8:01:00:23:06:
         ae:17:42:58:b0:b2:7c:44:8a:f9:10:f7:3e:cd:80:48:54:73:
         19:d0:4d:a3:f0:01:bc:9a:7e:b2:cc:3f:47:d8:42:75:50:d4:
         b9:5f:52:27:b9:d7:34:ad:af:4c:98:9c:19:90:8f:aa:4b:f6:
         b4:42:2b:a3:f6:7f:6d:f5:f8:dd:eb:23:bf:57:2e:d9:c0:78:
         ad:d5:3d:69:30:9c:e4:c0:84:29:e4:c1:49:2f:fd:7d:73:08:
         b2:d2:f4:eb:8d:c6:8a:ce:c4:ad:c0:9a:08:98:81:4b:e9:8b:
         2c:ba:0e:33:ba:89:98:cc:b7:18:d5:1b:56:18:13:cc:45:46:
         bf:3f:10:20:fa:4f:43:85:4b:35:96:8b:26:a5:81:fb:65:f8:
         5c:fb:e6:7e:66:74:02:3a:28:2e:dc:e1:de:60:ce:a8:33:1a:
         10:14:0e:d6:72:ef:d0:6f:8d:5c:09:a7:d8:b2:6e:34:e4:48:
         19:17:06:8d:46:80:a9:9f:19:04:dc:37:6c:3a:e7:d5:98:f9:
         f5:e0:6f:6d:5c:00:16:af:08:d2:b5:3e:f4:7f:8e:ce:f1:b3:
         6e:85:fe:3c:3e:6a:aa:76
-----BEGIN CERTIFICATE-----
MIIGrDCCBJSgAwIBAgICHHIwDQYJKoZIhvcNAQEEBQAwgawxCzAJBgNVBAYTAlVT
MQswCQYDVQQIEwJPSDERMA8GA1UEBxMIQ29sdW1idXMxEjAQBgNVBAoTCVZpa2lu
Z1ZQTjEdMBsGA1UECxMUTXlPcmdhbml6YXRpb25hbFVuaXQxFTATBgNVBAMTDFZp
a2luZ1ZQTiBDQTEQMA4GA1UEKRMHRWFzeVJTQTEhMB8GCSqGSIb3DQEJARYSbWVA
bXlob3N0Lm15ZG9tYWluMB4XDTE2MDIyNDA1NTczN1oXDTI2MDIyMTA1NTczN1ow
HjEcMBoGA1UEAxMTQ2xpZW50ODc5Q2VydGI1YTMzODCCAiIwDQYJKoZIhvcNAQEB
BQADggIPADCCAgoCggIBAMNijEG3XmRnaTTU3ZEBiiViJZUInOWoo7nRyNRgUmhs
NTezNGuJPi0uPcIl/tl6xJJTC/KWczFZK/zVcKuks+XObxUdQChPJrRTWgpT4SzN
yKShCtP46VHsk/jRY+rxpD01Q4uZvA8j/GVN79qv6O8ZkM/Wv0UJVskG9CAZslPb
GX0SABOJqW9v0XlImyrjaAjzBHFFw91dB79ZcykAXM4sUFIEE9mgLsS7/mTA+tIg
kN8uC27zTMXuT+XnBjplR5Y0CbzANESLp2zqz2fdN8Z+MMQ65pU+1g0A1qPkZb8N
Y7d0SdKbC9EiFgLCIrT5xbERLglMrdQRprIwfUOGmNwolQRltNQd7ieIGWVMX7+Z
VdChlz1gXrSLFlQ9T4sgs5X9DO8DWlgFF/v/fOgpPZ9Tbc5p8Rh25ZsemeNKGhql
uUIxRwwJcmj6VaCBz076/fUQDf+oPjL3V/d6O7a4f3Xi4Kc5sqPlNOfgDkEmhrOl
A3cGFqNhbm5COG3JYr1p8haf9ADoMFsCs3dZq4W6sm7ak/KuO1PNrGQCt1L75TwG
lyO/E01Mtl7LPvBdMf1BZVhZE4nXXinuGBHCCaYIz05ZaQ9retyplWnBKsuSOfVK
QufInbAwYZYfSO+5bLE7WcZBTIz5iBHnet293pDrvMtq3ERNAJd+RAmpQPtARNQN
AgMBAAGjggFjMIIBXzAJBgNVHRMEAjAAMC0GCWCGSAGG+EIBDQQgFh5FYXN5LVJT
QSBHZW5lcmF0ZWQgQ2VydGlmaWNhdGUwHQYDVR0OBBYEFDy8PWyZJULA/BUyYw/+
lz3xbt+vMIHhBgNVHSMEgdkwgdaAFBLNYATSoICecO3Gmbh7LMZS/RmhoYGypIGv
MIGsMQswCQYDVQQGEwJVUzELMAkGA1UECBMCT0gxETAPBgNVBAcTCENvbHVtYnVz
MRIwEAYDVQQKEwlWaWtpbmdWUE4xHTAbBgNVBAsTFE15T3JnYW5pemF0aW9uYWxV
bml0MRUwEwYDVQQDEwxWaWtpbmdWUE4gQ0ExEDAOBgNVBCkTB0Vhc3lSU0ExITAf
BgkqhkiG9w0BCQEWEm1lQG15aG9zdC5teWRvbWFpboIJAM81he6Avyo+MBMGA1Ud
JQQMMAoGCCsGAQUFBwMCMAsGA1UdDwQEAwIHgDANBgkqhkiG9w0BAQQFAAOCAgEA
ppxK40Q0wI2cgMFFyKhvMFRMrKjb9KzSK/pJVXPUR4yftB0bAwFD8bSYiXSD57br
l7dBtJvrVYHkKizP2ZjN6P9iFrcx5AuY2VNxN1WmwMOdtDtzIWpf+1E4wha7LmFM
QIDoks7bL/H0QUoVk8XYHqNxkhEXnAP5zBNw0AEs2IMNm7uY4DoLNwU3WbU3noTd
YG3TU5GBV1jZuLH+jjrYadmoAGrlh7t0kqwbo6oRRztKbksju1YPSTxz4KLnlHqC
vwqSWpPnWY1dIcFP8v6hm11esco2GvOG4O/9/989QKGxvdO9lLGxpVdnc1s1dIvP
+WtIVJoFdRtFpawB0weYcMi84djt0mmIba82FsaPnigiPILl08Jar5/widgBACMG
rhdCWLCyfESK+RD3Ps2ASFRzGdBNo/ABvJp+ssw/R9hCdVDUuV9SJ7nXNK2vTJic
GZCPqkv2tEIro/Z/bfX43esjv1cu2cB4rdU9aTCc5MCEKeTBSS/9fXMIstL0643G
is7ErcCaCJiBS+mLLLoOM7qJmMy3GNUbVhgTzEVGvz8QIPpPQ4VLNZaLJqWB+2X4
XPvmfmZ0AjooLtzh3mDOqDMaEBQO1nLv0G+NXAmn2LJuNORIGRcGjUaAqZ8ZBNw3
bDrn1Zj59eBvbVwAFq8I0rU+9H+OzvGzboX+PD5qqnY=
-----END CERTIFICATE-----
