Certificate:
    Data:
        Version: 3 (0x2)
        Serial Number: 11846 (0x2e46)
    Signature Algorithm: sha256WithRSAEncryption
        Issuer: C=US, ST=OH, L=Columbus, O=VikingVPN, OU=MyOrganizationalUnit, CN=VikingVPN CA/name=EasyRSA/emailAddress=me@myhost.mydomain
        Validity
            Not Before: Sep 16 15:02:13 2017 GMT
            Not After : Sep 14 15:02:13 2027 GMT
        Subject: CN=Client3097Cert0e91a0
        Subject Public Key Info:
            Public Key Algorithm: rsaEncryption
                Public-Key: (4096 bit)
                Modulus:
                    00:cd:fa:5e:2f:92:b2:5c:ec:9d:03:2f:02:8d:f7:
                    f8:a5:99:e1:6d:a9:20:57:bf:5a:86:8d:58:c2:06:
                    f4:7e:05:9a:8f:b0:2c:a4:3d:f0:18:4c:28:a2:4a:
                    fe:7d:11:af:e7:08:6c:11:90:93:47:f8:c1:fa:0e:
                    1b:ee:38:83:e2:13:bd:c5:a8:08:d4:07:83:80:d8:
                    94:95:13:7c:63:f2:7e:f0:72:8a:99:01:6c:cc:14:
                    ff:a2:f4:de:28:8f:29:8f:7e:ee:c2:52:27:dd:ea:
                    31:1c:18:21:e1:91:99:5a:15:23:b0:e8:67:d9:a3:
                    41:4f:cc:a0:a2:c3:c3:29:59:16:56:7f:23:0e:e0:
                    c8:15:0e:72:05:a8:8f:3d:98:93:91:88:2d:f7:12:
                    6b:b5:4c:bd:11:dc:b6:79:14:c3:b0:17:df:c3:81:
                    81:5a:70:99:6b:17:2d:70:48:91:a2:e6:64:d3:84:
                    60:d8:72:c5:da:e6:4c:fd:16:df:24:2d:21:84:f4:
                    8d:81:23:eb:44:bd:8a:83:46:3a:2e:48:ad:47:a7:
                    64:be:04:3a:63:21:4a:bd:e6:38:e2:e7:c1:3b:7e:
                    c6:92:57:9c:c9:52:1c:0c:07:a1:53:90:6b:f5:e3:
                    9c:d7:34:84:be:78:fa:31:51:f5:19:6a:31:ea:38:
                    e5:13:0d:0e:9a:23:f0:10:cc:df:60:a8:0f:d8:44:
                    4c:2b:aa:82:1c:d2:2b:4e:cd:88:10:87:9e:2a:c7:
                    b5:dd:e9:bd:61:00:d3:43:9a:e9:24:e2:43:19:53:
                    35:70:3c:c1:ae:e9:07:b8:a3:f5:9b:27:f9:30:fb:
                    48:e4:3c:0a:c8:a5:a3:82:c7:db:f2:c8:70:f0:1c:
                    77:5d:f5:36:20:ab:56:5e:84:e0:d7:fe:c0:77:83:
                    92:d3:8e:24:48:32:4f:b4:c5:f2:65:6f:ee:f6:1f:
                    e2:fe:57:8a:2e:29:62:62:1d:42:b3:1b:ed:0e:ad:
                    91:96:8c:84:c8:58:4c:fd:53:3c:87:14:31:a5:25:
                    66:8d:1e:95:22:36:e9:ff:9f:05:3c:2d:c8:27:b0:
                    6f:3e:87:e1:2c:15:7e:ae:9d:04:72:42:54:6a:a6:
                    c2:0d:dc:d8:49:8a:95:9b:8d:bf:46:49:f2:53:4c:
                    30:bb:0b:85:9f:23:3f:5e:ab:fb:5d:35:f4:58:d8:
                    ab:a2:b9:06:8e:a2:28:a6:15:64:69:53:fe:2b:e6:
                    b0:18:19:3b:35:fe:9a:f0:3b:24:25:e1:d0:1b:73:
                    0f:1e:d0:1c:26:79:07:20:61:d9:14:e4:a7:69:48:
                    eb:9f:30:a4:36:e8:bd:0d:b5:ce:6d:23:5f:2b:0b:
                    8c:6a:71
                Exponent: 65537 (0x10001)
        X509v3 extensions:
            X509v3 Basic Constraints: 
                CA:FALSE
            Netscape Comment: 
                Easy-RSA Generated Certificate
            X509v3 Subject Key Identifier: 
                19:FD:16:E3:3A:46:5F:56:64:46:7A:CF:61:76:49:BC:1A:EA:A2:93
            X509v3 Authority Key Identifier: 
                keyid:12:CD:60:04:D2:A0:80:9E:70:ED:C6:99:B8:7B:2C:C6:52:FD:19:A1
                DirName:/C=US/ST=OH/L=Columbus/O=VikingVPN/OU=MyOrganizationalUnit/CN=VikingVPN CA/name=EasyRSA/emailAddress=me@myhost.mydomain
                serial:CF:35:85:EE:80:BF:2A:3E

            X509v3 Extended Key Usage: 
                TLS Web Client Authentication
            X509v3 Key Usage: 
                Digital Signature
    Signature Algorithm: sha256WithRSAEncryption
         c9:f7:5e:6e:dd:e6:bb:d3:80:2e:07:b6:5d:a4:5b:28:06:94:
         c7:f9:7e:18:06:87:98:74:d3:1f:8e:68:8f:b6:56:b2:d7:47:
         81:7d:d7:ba:6f:eb:f9:1e:23:2a:84:2f:d6:b0:b6:b9:86:c3:
         f9:72:c7:83:4d:7e:ed:f8:c7:cd:1b:9a:fe:b4:f8:1c:6e:ba:
         fc:1b:af:80:20:34:3c:0b:5d:d6:16:4f:16:b8:ab:47:97:a5:
         8a:af:28:08:53:6c:35:72:52:15:c6:94:89:8e:06:d3:98:cf:
         51:2e:8c:ce:09:89:45:d5:46:45:56:bc:33:64:77:85:c9:d6:
         b8:2d:6f:47:3e:4e:25:0b:a7:ff:da:80:e4:9b:b3:41:24:6e:
         b9:64:ba:be:9a:a8:b1:80:41:8d:04:f4:81:e3:3e:f1:2e:46:
         25:2e:c6:39:9b:fa:bb:08:79:09:55:d1:fe:11:7f:0e:38:c2:
         52:ca:83:61:8b:3f:83:84:64:ca:5d:5a:03:65:99:d3:c2:e2:
         cf:93:03:4c:d2:0f:db:9b:f1:82:cf:04:f1:5c:78:77:fb:d6:
         eb:68:62:3a:67:f8:b9:e9:b9:15:f3:17:e2:a3:f5:ca:1a:6d:
         df:35:2d:bc:08:2b:bc:73:2e:8d:88:f8:5a:16:4d:b1:d4:38:
         d9:50:60:dc:09:01:b5:be:b9:44:9f:93:3c:13:6c:ea:27:4a:
         02:c3:e3:58:52:1e:4d:67:9b:1c:5d:51:66:53:11:e6:87:d8:
         f9:d0:fa:57:a3:9e:89:5b:61:98:71:6c:49:f2:84:60:ec:5b:
         57:5e:ee:a7:9b:20:d8:a7:02:07:44:14:38:3b:0e:3c:92:2d:
         1d:88:02:e9:d3:54:0c:7d:74:ca:86:c6:a2:3f:c8:d8:a6:d5:
         f5:cf:ab:52:0b:9f:f4:8a:1f:5c:83:6a:7f:dd:90:e4:23:11:
         1f:0c:9e:3d:8f:2b:9f:5e:1c:f9:f8:0a:cc:f4:c2:72:8d:e6:
         60:d5:cd:48:c2:e6:37:1e:c5:c9:40:1c:cb:dd:7e:9f:38:67:
         79:6c:b3:0f:0c:38:f0:f8:c4:08:cd:f6:f6:e0:c6:e4:31:c7:
         2a:5b:69:44:d2:3b:05:42:fa:e9:fc:87:f1:f8:ae:6c:f6:ac:
         f0:56:e4:f4:96:e8:0d:ae:72:c5:2a:d9:f6:3f:88:24:f6:d6:
         79:72:c2:f4:16:11:21:1c:d9:c0:04:a3:2b:ee:95:45:83:f1:
         62:7d:73:b1:3c:c6:8a:7f:3a:42:9e:34:3c:14:05:57:00:47:
         79:ff:2e:4f:3c:f7:06:14:66:83:0a:bd:19:5e:79:56:2a:94:
         9a:6a:50:b8:54:0c:0a:bd
-----BEGIN CERTIFICATE-----
MIIGrTCCBJWgAwIBAgICLkYwDQYJKoZIhvcNAQELBQAwgawxCzAJBgNVBAYTAlVT
MQswCQYDVQQIEwJPSDERMA8GA1UEBxMIQ29sdW1idXMxEjAQBgNVBAoTCVZpa2lu
Z1ZQTjEdMBsGA1UECxMUTXlPcmdhbml6YXRpb25hbFVuaXQxFTATBgNVBAMTDFZp
a2luZ1ZQTiBDQTEQMA4GA1UEKRMHRWFzeVJTQTEhMB8GCSqGSIb3DQEJARYSbWVA
bXlob3N0Lm15ZG9tYWluMB4XDTE3MDkxNjE1MDIxM1oXDTI3MDkxNDE1MDIxM1ow
HzEdMBsGA1UEAxMUQ2xpZW50MzA5N0NlcnQwZTkxYTAwggIiMA0GCSqGSIb3DQEB
AQUAA4ICDwAwggIKAoICAQDN+l4vkrJc7J0DLwKN9/ilmeFtqSBXv1qGjVjCBvR+
BZqPsCykPfAYTCiiSv59Ea/nCGwRkJNH+MH6DhvuOIPiE73FqAjUB4OA2JSVE3xj
8n7wcoqZAWzMFP+i9N4ojymPfu7CUifd6jEcGCHhkZlaFSOw6GfZo0FPzKCiw8Mp
WRZWfyMO4MgVDnIFqI89mJORiC33Emu1TL0R3LZ5FMOwF9/DgYFacJlrFy1wSJGi
5mTThGDYcsXa5kz9Ft8kLSGE9I2BI+tEvYqDRjouSK1Hp2S+BDpjIUq95jji58E7
fsaSV5zJUhwMB6FTkGv145zXNIS+ePoxUfUZajHqOOUTDQ6aI/AQzN9gqA/YREwr
qoIc0itOzYgQh54qx7Xd6b1hANNDmukk4kMZUzVwPMGu6Qe4o/WbJ/kw+0jkPArI
paOCx9vyyHDwHHdd9TYgq1ZehODX/sB3g5LTjiRIMk+0xfJlb+72H+L+V4ouKWJi
HUKzG+0OrZGWjITIWEz9UzyHFDGlJWaNHpUiNun/nwU8LcgnsG8+h+EsFX6unQRy
QlRqpsIN3NhJipWbjb9GSfJTTDC7C4WfIz9eq/tdNfRY2KuiuQaOoiimFWRpU/4r
5rAYGTs1/prwOyQl4dAbcw8e0BwmeQcgYdkU5KdpSOufMKQ26L0Ntc5tI18rC4xq
cQIDAQABo4IBYzCCAV8wCQYDVR0TBAIwADAtBglghkgBhvhCAQ0EIBYeRWFzeS1S
U0EgR2VuZXJhdGVkIENlcnRpZmljYXRlMB0GA1UdDgQWBBQZ/RbjOkZfVmRGes9h
dkm8GuqikzCB4QYDVR0jBIHZMIHWgBQSzWAE0qCAnnDtxpm4eyzGUv0ZoaGBsqSB
rzCBrDELMAkGA1UEBhMCVVMxCzAJBgNVBAgTAk9IMREwDwYDVQQHEwhDb2x1bWJ1
czESMBAGA1UEChMJVmlraW5nVlBOMR0wGwYDVQQLExRNeU9yZ2FuaXphdGlvbmFs
VW5pdDEVMBMGA1UEAxMMVmlraW5nVlBOIENBMRAwDgYDVQQpEwdFYXN5UlNBMSEw
HwYJKoZIhvcNAQkBFhJtZUBteWhvc3QubXlkb21haW6CCQDPNYXugL8qPjATBgNV
HSUEDDAKBggrBgEFBQcDAjALBgNVHQ8EBAMCB4AwDQYJKoZIhvcNAQELBQADggIB
AMn3Xm7d5rvTgC4Htl2kWygGlMf5fhgGh5h00x+OaI+2VrLXR4F917pv6/keIyqE
L9awtrmGw/lyx4NNfu34x80bmv60+Bxuuvwbr4AgNDwLXdYWTxa4q0eXpYqvKAhT
bDVyUhXGlImOBtOYz1EujM4JiUXVRkVWvDNkd4XJ1rgtb0c+TiULp//agOSbs0Ek
brlkur6aqLGAQY0E9IHjPvEuRiUuxjmb+rsIeQlV0f4Rfw44wlLKg2GLP4OEZMpd
WgNlmdPC4s+TA0zSD9ub8YLPBPFceHf71utoYjpn+LnpuRXzF+Kj9coabd81LbwI
K7xzLo2I+FoWTbHUONlQYNwJAbW+uUSfkzwTbOonSgLD41hSHk1nmxxdUWZTEeaH
2PnQ+lejnolbYZhxbEnyhGDsW1de7qebINinAgdEFDg7DjySLR2IAunTVAx9dMqG
xqI/yNim1fXPq1ILn/SKH1yDan/dkOQjER8Mnj2PK59eHPn4Csz0wnKN5mDVzUjC
5jcexclAHMvdfp84Z3lssw8MOPD4xAjN9vbgxuQxxypbaUTSOwVC+un8h/H4rmz2
rPBW5PSW6A2ucsUq2fY/iCT21nlywvQWESEc2cAEoyvulUWD8WJ9c7E8xop/OkKe
NDwUBVcAR3n/Lk889wYUZoMKvRleeVYqlJpqULhUDAq9
-----END CERTIFICATE-----
