Certificate:
    Data:
        Version: 3 (0x2)
        Serial Number: 1840 (0x730)
    Signature Algorithm: md5WithRSAEncryption
        Issuer: C=US, ST=OH, L=Columbus, O=VikingVPN, OU=MyOrganizationalUnit, CN=VikingVPN CA/name=EasyRSA/emailAddress=me@myhost.mydomain
        Validity
            Not Before: May  7 07:14:31 2014 GMT
            Not After : May  4 07:14:31 2024 GMT
        Subject: CN=Client380Certbbd8a7
        Subject Public Key Info:
            Public Key Algorithm: rsaEncryption
                Public-Key: (4096 bit)
                Modulus:
                    00:c9:68:f1:ce:a0:ae:4a:83:a2:5f:12:80:21:3d:
                    6b:62:08:bc:fc:c1:05:5e:86:07:9b:35:5a:8c:ed:
                    f8:43:f5:81:ab:58:02:3a:ed:b1:8b:5f:3a:a4:5d:
                    b2:7a:53:e1:49:1f:84:3e:35:8e:bf:6a:7b:b8:31:
                    72:33:b5:59:52:d5:4d:4a:fe:76:a4:16:09:6d:9c:
                    94:73:4b:6b:60:ce:6c:7f:0f:3e:09:56:02:9a:af:
                    92:f8:5e:05:a5:d0:13:fe:9c:0b:5d:b5:64:4d:2b:
                    d2:c4:4d:27:fb:16:d6:d6:f5:b7:78:fd:0d:08:c8:
                    d2:03:80:5e:f1:3e:b0:e7:a6:f6:7c:c3:5d:21:06:
                    df:e1:18:17:1d:7d:d4:94:e8:cb:ca:b2:bc:6e:25:
                    b2:ff:20:27:a8:8c:0a:aa:ce:da:f3:db:15:58:30:
                    24:1e:a6:a1:ef:4b:e5:44:db:3e:73:63:b1:a9:7c:
                    e3:7e:d8:29:be:28:ce:ef:50:52:c5:73:9e:70:97:
                    d9:79:da:29:14:ae:ad:7f:6f:5a:64:c9:9a:40:4a:
                    d1:67:25:bf:1b:35:66:55:59:ea:40:cb:b8:71:5c:
                    ad:a7:61:b1:c4:75:e7:35:d0:33:8c:e1:3c:e0:1f:
                    22:be:27:71:1e:8a:d9:15:60:e5:37:51:b6:26:a5:
                    18:e0:7a:49:d8:3d:bc:82:ac:ac:51:44:38:2e:7b:
                    84:9c:23:bb:b0:bf:3a:32:3b:69:e2:05:58:60:5d:
                    38:0a:d5:bb:92:7b:07:b5:7b:94:8d:ca:96:70:56:
                    40:f3:c5:c4:1a:f0:9b:14:f6:e6:02:8a:e2:82:b4:
                    08:39:7f:7e:80:38:46:ca:27:e7:79:9c:59:d1:34:
                    1e:9a:a4:eb:03:6d:ee:48:bd:87:bd:21:a9:c5:0a:
                    3b:25:96:cc:68:84:0e:82:af:91:ce:b5:b4:af:94:
                    50:30:56:84:eb:e5:99:93:fe:a1:61:0d:ce:27:ec:
                    e9:3a:1a:3c:d5:c1:ee:c4:3e:c5:eb:3c:7f:5f:f0:
                    e7:0d:6f:df:06:d4:fb:39:84:59:b3:f5:30:cf:ad:
                    65:7e:22:a3:af:00:7c:bd:bb:be:b0:d4:f8:86:01:
                    41:80:60:a4:b1:79:09:19:00:b6:4a:9f:5c:b2:7a:
                    2d:3a:8e:f9:dc:de:26:13:f9:29:6a:45:08:21:dc:
                    aa:f8:0d:1a:35:bd:c7:3b:01:4f:75:67:06:1a:3b:
                    5a:45:55:f9:7b:29:cc:c1:12:dc:8c:59:10:39:7e:
                    ff:c9:31:fc:ab:44:b1:9b:82:f6:1e:f9:45:ec:9a:
                    bf:17:9b:56:1f:b7:1a:3b:cb:fe:f8:25:be:9e:f7:
                    49:b3:d5
                Exponent: 65537 (0x10001)
        X509v3 extensions:
            X509v3 Basic Constraints: 
                CA:FALSE
            Netscape Comment: 
                Easy-RSA Generated Certificate
            X509v3 Subject Key Identifier: 
                95:00:B9:20:CF:09:39:F7:CB:38:9D:32:32:8E:92:8A:BF:D2:19:7D
            X509v3 Authority Key Identifier: 
                keyid:12:CD:60:04:D2:A0:80:9E:70:ED:C6:99:B8:7B:2C:C6:52:FD:19:A1
                DirName:/C=US/ST=OH/L=Columbus/O=VikingVPN/OU=MyOrganizationalUnit/CN=VikingVPN CA/name=EasyRSA/emailAddress=me@myhost.mydomain
                serial:CF:35:85:EE:80:BF:2A:3E

            X509v3 Extended Key Usage: 
                TLS Web Client Authentication
            X509v3 Key Usage: 
                Digital Signature
    Signature Algorithm: md5WithRSAEncryption
         dd:27:7f:7d:7f:a9:58:88:9e:c7:c3:05:96:6b:d0:2c:b1:f5:
         37:83:cd:1d:48:d5:44:90:fc:b5:13:b8:b4:74:a2:56:69:7f:
         3f:85:58:ca:92:d8:b5:77:f1:af:24:ca:ea:32:87:30:52:eb:
         7d:cf:54:ed:d2:99:ea:8b:8a:e3:c4:22:e6:9c:1b:9d:2e:40:
         a9:de:ff:7e:fb:b7:fe:56:e8:2e:fe:6a:68:55:e3:da:cd:c9:
         09:d2:a6:91:49:26:56:fa:8e:44:b0:34:34:0d:3a:ad:a6:85:
         e9:cd:f2:bf:0e:fc:27:40:6d:49:2e:a6:41:b3:8a:29:7d:b6:
         3f:ec:13:e6:59:60:99:83:e8:56:1d:26:6d:ea:c7:7f:aa:7c:
         e1:9e:af:f7:b3:16:88:5f:34:f1:5a:47:2e:ca:42:ea:53:b6:
         88:3d:f8:15:7d:33:bb:b1:d3:74:7e:69:d5:f9:b8:97:74:b1:
         52:87:49:49:1b:bd:79:ef:44:f7:24:60:ba:43:75:2d:8d:b9:
         ad:6d:8f:11:6b:2a:97:8f:f0:a9:15:60:72:6e:91:e3:ca:4b:
         19:3e:e6:a1:98:4f:39:fa:ff:ba:e8:4d:76:69:52:22:37:33:
         08:be:f7:00:26:40:13:78:88:06:bd:31:52:cd:df:3b:8a:3b:
         7e:25:8b:1c:ba:5f:a8:71:c6:14:ac:63:f3:89:cb:49:85:c1:
         60:bf:f7:aa:fe:ec:77:1b:be:28:22:4a:04:eb:2e:64:78:ef:
         35:7b:fe:ae:4c:00:5b:42:0c:04:0e:8e:90:80:3e:49:cd:ed:
         99:01:58:93:b2:d9:d3:9e:c0:4b:35:6a:bc:97:5f:f7:a9:6d:
         c0:a0:28:b1:eb:e6:88:3e:3c:9c:f9:4f:e5:7b:08:d8:64:a5:
         36:4b:ab:bc:00:ce:01:80:ae:6e:e7:9c:2c:71:73:49:6e:86:
         68:df:7b:dc:a4:d7:56:2c:a8:42:65:6b:53:64:59:46:8a:be:
         6a:48:d2:23:2e:3f:eb:ef:cc:1e:ec:fc:9b:5d:bf:c5:13:bf:
         d9:7f:f6:77:35:42:be:f0:20:fe:b2:2a:c5:ba:bb:df:97:64:
         31:50:72:35:97:43:21:a5:17:a8:89:75:d4:68:3f:f8:d7:0d:
         7e:c9:b5:47:ae:d2:5c:9b:ed:fd:a4:27:76:69:24:7a:88:aa:
         33:c8:61:3d:b3:01:f8:fa:91:7e:4a:87:dd:3c:1b:23:bd:d5:
         5c:c2:8c:4c:e8:ca:70:75:ef:08:1f:cb:38:c2:97:1b:8b:10:
         ed:62:2c:cc:86:3d:52:ea:99:7f:23:9a:e7:7c:bb:1b:bc:13:
         75:a0:96:ed:06:24:b5:4f
-----BEGIN CERTIFICATE-----
MIIGrDCCBJSgAwIBAgICBzAwDQYJKoZIhvcNAQEEBQAwgawxCzAJBgNVBAYTAlVT
MQswCQYDVQQIEwJPSDERMA8GA1UEBxMIQ29sdW1idXMxEjAQBgNVBAoTCVZpa2lu
Z1ZQTjEdMBsGA1UECxMUTXlPcmdhbml6YXRpb25hbFVuaXQxFTATBgNVBAMTDFZp
a2luZ1ZQTiBDQTEQMA4GA1UEKRMHRWFzeVJTQTEhMB8GCSqGSIb3DQEJARYSbWVA
bXlob3N0Lm15ZG9tYWluMB4XDTE0MDUwNzA3MTQzMVoXDTI0MDUwNDA3MTQzMVow
HjEcMBoGA1UEAxMTQ2xpZW50MzgwQ2VydGJiZDhhNzCCAiIwDQYJKoZIhvcNAQEB
BQADggIPADCCAgoCggIBAMlo8c6grkqDol8SgCE9a2IIvPzBBV6GB5s1Wozt+EP1
gatYAjrtsYtfOqRdsnpT4UkfhD41jr9qe7gxcjO1WVLVTUr+dqQWCW2clHNLa2DO
bH8PPglWApqvkvheBaXQE/6cC121ZE0r0sRNJ/sW1tb1t3j9DQjI0gOAXvE+sOem
9nzDXSEG3+EYFx191JToy8qyvG4lsv8gJ6iMCqrO2vPbFVgwJB6moe9L5UTbPnNj
sal8437YKb4ozu9QUsVznnCX2XnaKRSurX9vWmTJmkBK0Wclvxs1ZlVZ6kDLuHFc
radhscR15zXQM4zhPOAfIr4ncR6K2RVg5TdRtialGOB6Sdg9vIKsrFFEOC57hJwj
u7C/OjI7aeIFWGBdOArVu5J7B7V7lI3KlnBWQPPFxBrwmxT25gKK4oK0CDl/foA4
Rson53mcWdE0Hpqk6wNt7ki9h70hqcUKOyWWzGiEDoKvkc61tK+UUDBWhOvlmZP+
oWENzifs6ToaPNXB7sQ+xes8f1/w5w1v3wbU+zmEWbP1MM+tZX4io68AfL27vrDU
+IYBQYBgpLF5CRkAtkqfXLJ6LTqO+dzeJhP5KWpFCCHcqvgNGjW9xzsBT3VnBho7
WkVV+XspzMES3IxZEDl+/8kx/KtEsZuC9h75ReyavxebVh+3GjvL/vglvp73SbPV
AgMBAAGjggFjMIIBXzAJBgNVHRMEAjAAMC0GCWCGSAGG+EIBDQQgFh5FYXN5LVJT
QSBHZW5lcmF0ZWQgQ2VydGlmaWNhdGUwHQYDVR0OBBYEFJUAuSDPCTn3yzidMjKO
koq/0hl9MIHhBgNVHSMEgdkwgdaAFBLNYATSoICecO3Gmbh7LMZS/RmhoYGypIGv
MIGsMQswCQYDVQQGEwJVUzELMAkGA1UECBMCT0gxETAPBgNVBAcTCENvbHVtYnVz
MRIwEAYDVQQKEwlWaWtpbmdWUE4xHTAbBgNVBAsTFE15T3JnYW5pemF0aW9uYWxV
bml0MRUwEwYDVQQDEwxWaWtpbmdWUE4gQ0ExEDAOBgNVBCkTB0Vhc3lSU0ExITAf
BgkqhkiG9w0BCQEWEm1lQG15aG9zdC5teWRvbWFpboIJAM81he6Avyo+MBMGA1Ud
JQQMMAoGCCsGAQUFBwMCMAsGA1UdDwQEAwIHgDANBgkqhkiG9w0BAQQFAAOCAgEA
3Sd/fX+pWIiex8MFlmvQLLH1N4PNHUjVRJD8tRO4tHSiVml/P4VYypLYtXfxryTK
6jKHMFLrfc9U7dKZ6ouK48Qi5pwbnS5Aqd7/fvu3/lboLv5qaFXj2s3JCdKmkUkm
VvqORLA0NA06raaF6c3yvw78J0BtSS6mQbOKKX22P+wT5llgmYPoVh0mberHf6p8
4Z6v97MWiF808VpHLspC6lO2iD34FX0zu7HTdH5p1fm4l3SxUodJSRu9ee9E9yRg
ukN1LY25rW2PEWsql4/wqRVgcm6R48pLGT7moZhPOfr/uuhNdmlSIjczCL73ACZA
E3iIBr0xUs3fO4o7fiWLHLpfqHHGFKxj84nLSYXBYL/3qv7sdxu+KCJKBOsuZHjv
NXv+rkwAW0IMBA6OkIA+Sc3tmQFYk7LZ057ASzVqvJdf96ltwKAosevmiD48nPlP
5XsI2GSlNkurvADOAYCubuecLHFzSW6GaN973KTXViyoQmVrU2RZRoq+akjSIy4/
6+/MHuz8m12/xRO/2X/2dzVCvvAg/rIqxbq735dkMVByNZdDIaUXqIl11Gg/+NcN
fsm1R67SXJvt/aQndmkkeoiqM8hhPbMB+PqRfkqH3TwbI73VXMKMTOjKcHXvCB/L
OMKXG4sQ7WIszIY9UuqZfyOa53y7G7wTdaCW7QYktU8=
-----END CERTIFICATE-----
