Certificate:
    Data:
        Version: 3 (0x2)
        Serial Number: 4708 (0x1264)
    Signature Algorithm: md5WithRSAEncryption
        Issuer: C=US, ST=OH, L=Columbus, O=VikingVPN, OU=MyOrganizationalUnit, CN=VikingVPN CA/name=EasyRSA/emailAddress=me@myhost.mydomain
        Validity
            Not Before: Mar  9 14:37:41 2015 GMT
            Not After : Mar  6 14:37:41 2025 GMT
        Subject: CN=Client1355Cert4cbd2d
        Subject Public Key Info:
            Public Key Algorithm: rsaEncryption
                Public-Key: (4096 bit)
                Modulus:
                    00:d1:54:ae:ba:02:1c:22:20:fc:03:25:f5:fb:62:
                    51:3b:e4:6f:d7:5a:ef:6c:79:71:1f:93:ca:2c:1b:
                    df:6f:48:c1:8b:f3:ff:5e:10:eb:c7:ef:90:43:70:
                    56:eb:50:9c:7a:b9:18:96:cd:77:30:18:9d:42:af:
                    82:94:70:40:23:5a:79:7b:cc:70:7e:9f:3f:64:d1:
                    06:97:6f:02:82:24:30:0b:89:17:83:6e:ea:5a:95:
                    ea:f7:54:e3:07:b3:09:09:23:94:3f:fd:2c:34:41:
                    03:54:45:9b:11:d1:b9:b0:4a:ea:53:af:a2:3b:15:
                    52:d8:0f:1e:7b:c5:dc:11:81:f8:ca:3c:cf:69:4e:
                    4a:37:84:d9:77:cc:bf:0a:ee:1a:b3:67:b0:75:88:
                    ee:2e:bf:2d:b3:d8:66:ae:a8:fa:39:e5:c1:1e:7b:
                    15:2d:3b:c7:18:00:e8:f4:fa:e4:9b:0c:d8:c7:64:
                    61:0e:8f:8a:b8:02:b9:5d:76:95:d8:12:e8:34:29:
                    ea:2d:69:5e:ce:a8:d2:65:f5:2f:0f:4f:d9:3c:d1:
                    b6:44:fe:bd:0d:6f:88:37:6c:01:27:3e:4c:70:09:
                    3c:a5:2b:92:c4:c0:4e:39:8d:2e:6c:f9:3f:d2:c1:
                    48:7b:39:2e:f6:61:59:89:3a:63:71:2d:fd:e5:84:
                    47:0b:b7:14:bd:09:b8:df:f1:c6:79:64:75:99:8c:
                    ff:40:f1:a9:f4:74:8c:be:0c:72:2d:98:e6:69:08:
                    9f:a4:14:e8:c1:68:67:1f:fc:55:48:01:96:e7:19:
                    b8:e9:56:94:83:f0:d2:ae:ab:2e:82:ee:43:4d:15:
                    9f:73:de:ca:57:18:df:0d:41:65:cf:5c:6f:b3:d0:
                    71:51:1b:d5:ac:25:62:60:41:3a:cf:84:0c:59:08:
                    71:a2:3e:59:d0:eb:84:e6:9d:57:e2:a5:1b:ec:f2:
                    e4:90:60:b9:e3:c4:5c:37:fe:af:17:d4:ac:95:41:
                    29:0b:86:84:08:fd:21:41:f8:4a:c1:b3:66:be:c3:
                    61:57:d8:2e:1c:f1:bf:d6:93:db:d6:f7:f2:f4:29:
                    fe:80:2f:34:c1:d3:6c:f4:ac:94:fa:db:b8:9c:c3:
                    a9:9c:0d:d2:bb:63:16:2d:75:b7:05:c5:39:84:72:
                    f0:f6:04:7a:37:3e:0a:6c:12:a7:5e:3e:63:e6:ee:
                    b4:fb:ba:a8:83:60:06:8c:f7:de:25:16:59:b9:1f:
                    86:e6:2b:50:a0:4f:68:33:5a:f8:e3:79:c4:4d:03:
                    30:26:18:30:a5:7c:d7:a3:97:2a:72:1d:b1:2e:c5:
                    21:92:b7:27:91:0d:aa:9c:7d:8b:fd:d1:23:28:27:
                    22:ef:a5
                Exponent: 65537 (0x10001)
        X509v3 extensions:
            X509v3 Basic Constraints: 
                CA:FALSE
            Netscape Comment: 
                Easy-RSA Generated Certificate
            X509v3 Subject Key Identifier: 
                B0:C5:AA:55:94:53:E4:CA:6D:67:8A:4E:BB:BC:6B:A2:C9:D8:18:F7
            X509v3 Authority Key Identifier: 
                keyid:12:CD:60:04:D2:A0:80:9E:70:ED:C6:99:B8:7B:2C:C6:52:FD:19:A1
                DirName:/C=US/ST=OH/L=Columbus/O=VikingVPN/OU=MyOrganizationalUnit/CN=VikingVPN CA/name=EasyRSA/emailAddress=me@myhost.mydomain
                serial:CF:35:85:EE:80:BF:2A:3E

            X509v3 Extended Key Usage: 
                TLS Web Client Authentication
            X509v3 Key Usage: 
                Digital Signature
    Signature Algorithm: md5WithRSAEncryption
         a2:94:2d:cf:00:49:d0:ee:39:f1:b1:6e:cd:b6:94:8e:57:72:
         80:7e:90:9e:b2:81:88:2a:c9:30:2a:66:8e:49:5f:53:8b:7b:
         37:1f:30:9f:a3:91:34:da:bb:3b:5a:0c:e3:a4:db:f3:0b:91:
         75:5e:b1:bb:7a:ce:11:f7:04:ba:cb:64:8f:20:42:f5:f9:9d:
         15:95:07:a4:de:c8:65:44:bd:9d:7d:3c:da:57:60:3c:21:1f:
         d3:b7:52:c2:76:8c:ef:a3:db:63:67:d2:cb:06:34:c8:dc:18:
         bf:09:d8:a7:42:00:02:c1:65:f3:d2:ab:e1:00:eb:cf:98:89:
         15:2a:1f:37:99:c3:ad:6e:82:2e:0f:70:ef:93:e1:1a:5d:43:
         03:bb:62:2f:8e:3b:68:15:a1:e9:74:c2:35:27:94:47:29:d1:
         bd:db:99:e9:b1:b2:ca:1b:8c:e7:f4:d1:1c:a7:0e:69:e7:f2:
         93:62:7d:dd:cb:ca:c4:19:5a:fc:18:e5:c7:17:9a:5d:1f:55:
         35:03:0d:ee:3c:af:6f:53:79:c5:6d:07:f7:f8:53:c7:de:12:
         10:55:b9:bb:1f:80:91:ae:41:75:c7:cd:54:84:39:74:00:36:
         a6:3a:55:af:52:87:d9:80:61:b3:9a:36:e5:92:6b:bb:e0:a9:
         4d:25:5e:e7:5d:38:7a:44:a0:99:bb:fc:d3:f8:18:f7:7f:31:
         fb:b1:e4:8e:a2:29:e2:ac:21:88:c1:29:17:22:97:4e:4b:fa:
         51:13:0c:42:ad:31:5c:56:03:c2:19:74:c2:ea:b6:93:04:97:
         b6:5c:87:70:01:e6:60:ae:b7:b4:64:66:ec:6e:f6:df:5c:34:
         61:55:97:55:d1:63:2d:01:e2:7f:e3:74:ca:12:91:5b:f9:ca:
         3f:f5:4c:35:03:4a:05:36:9a:1e:13:d9:ab:61:ba:2e:12:c2:
         a6:b2:6c:4e:9e:29:b6:82:c8:8e:de:3e:1a:cf:35:28:43:e7:
         ab:f5:84:7a:16:c1:84:ac:7e:1f:e3:22:7c:04:20:85:04:91:
         b1:cc:d9:65:b7:7a:38:3b:df:ac:79:c4:a0:95:fc:14:2e:36:
         73:18:d7:b5:ce:2b:08:e5:e6:5e:46:c6:fd:81:25:e5:cf:d0:
         57:8d:26:43:19:fe:3f:5c:33:7f:9f:87:56:e4:75:dd:0d:6f:
         a3:24:59:b3:ed:c7:d4:18:5a:bd:a7:c6:74:16:7d:22:c5:c9:
         53:9d:70:bb:d9:fe:fd:43:d6:38:a9:95:66:04:15:3e:82:d8:
         06:b8:26:44:6f:14:8c:aa:85:16:06:c8:44:1c:87:28:0c:8e:
         29:55:5a:c1:5c:be:07:99
-----BEGIN CERTIFICATE-----
MIIGrTCCBJWgAwIBAgICEmQwDQYJKoZIhvcNAQEEBQAwgawxCzAJBgNVBAYTAlVT
MQswCQYDVQQIEwJPSDERMA8GA1UEBxMIQ29sdW1idXMxEjAQBgNVBAoTCVZpa2lu
Z1ZQTjEdMBsGA1UECxMUTXlPcmdhbml6YXRpb25hbFVuaXQxFTATBgNVBAMTDFZp
a2luZ1ZQTiBDQTEQMA4GA1UEKRMHRWFzeVJTQTEhMB8GCSqGSIb3DQEJARYSbWVA
bXlob3N0Lm15ZG9tYWluMB4XDTE1MDMwOTE0Mzc0MVoXDTI1MDMwNjE0Mzc0MVow
HzEdMBsGA1UEAxMUQ2xpZW50MTM1NUNlcnQ0Y2JkMmQwggIiMA0GCSqGSIb3DQEB
AQUAA4ICDwAwggIKAoICAQDRVK66AhwiIPwDJfX7YlE75G/XWu9seXEfk8osG99v
SMGL8/9eEOvH75BDcFbrUJx6uRiWzXcwGJ1Cr4KUcEAjWnl7zHB+nz9k0QaXbwKC
JDALiReDbupaler3VOMHswkJI5Q//Sw0QQNURZsR0bmwSupTr6I7FVLYDx57xdwR
gfjKPM9pTko3hNl3zL8K7hqzZ7B1iO4uvy2z2GauqPo55cEeexUtO8cYAOj0+uSb
DNjHZGEOj4q4ArlddpXYEug0KeotaV7OqNJl9S8PT9k80bZE/r0Nb4g3bAEnPkxw
CTylK5LEwE45jS5s+T/SwUh7OS72YVmJOmNxLf3lhEcLtxS9Cbjf8cZ5ZHWZjP9A
8an0dIy+DHItmOZpCJ+kFOjBaGcf/FVIAZbnGbjpVpSD8NKuqy6C7kNNFZ9z3spX
GN8NQWXPXG+z0HFRG9WsJWJgQTrPhAxZCHGiPlnQ64TmnVfipRvs8uSQYLnjxFw3
/q8X1KyVQSkLhoQI/SFB+ErBs2a+w2FX2C4c8b/Wk9vW9/L0Kf6ALzTB02z0rJT6
27icw6mcDdK7YxYtdbcFxTmEcvD2BHo3PgpsEqdePmPm7rT7uqiDYAaM994lFlm5
H4bmK1CgT2gzWvjjecRNAzAmGDClfNejlypyHbEuxSGStyeRDaqcfYv90SMoJyLv
pQIDAQABo4IBYzCCAV8wCQYDVR0TBAIwADAtBglghkgBhvhCAQ0EIBYeRWFzeS1S
U0EgR2VuZXJhdGVkIENlcnRpZmljYXRlMB0GA1UdDgQWBBSwxapVlFPkym1nik67
vGuiydgY9zCB4QYDVR0jBIHZMIHWgBQSzWAE0qCAnnDtxpm4eyzGUv0ZoaGBsqSB
rzCBrDELMAkGA1UEBhMCVVMxCzAJBgNVBAgTAk9IMREwDwYDVQQHEwhDb2x1bWJ1
czESMBAGA1UEChMJVmlraW5nVlBOMR0wGwYDVQQLExRNeU9yZ2FuaXphdGlvbmFs
VW5pdDEVMBMGA1UEAxMMVmlraW5nVlBOIENBMRAwDgYDVQQpEwdFYXN5UlNBMSEw
HwYJKoZIhvcNAQkBFhJtZUBteWhvc3QubXlkb21haW6CCQDPNYXugL8qPjATBgNV
HSUEDDAKBggrBgEFBQcDAjALBgNVHQ8EBAMCB4AwDQYJKoZIhvcNAQEEBQADggIB
AKKULc8ASdDuOfGxbs22lI5XcoB+kJ6ygYgqyTAqZo5JX1OLezcfMJ+jkTTauzta
DOOk2/MLkXVesbt6zhH3BLrLZI8gQvX5nRWVB6TeyGVEvZ19PNpXYDwhH9O3UsJ2
jO+j22Nn0ssGNMjcGL8J2KdCAALBZfPSq+EA68+YiRUqHzeZw61ugi4PcO+T4Rpd
QwO7Yi+OO2gVoel0wjUnlEcp0b3bmemxssobjOf00RynDmnn8pNifd3LysQZWvwY
5ccXml0fVTUDDe48r29TecVtB/f4U8feEhBVubsfgJGuQXXHzVSEOXQANqY6Va9S
h9mAYbOaNuWSa7vgqU0lXuddOHpEoJm7/NP4GPd/Mfux5I6iKeKsIYjBKRcil05L
+lETDEKtMVxWA8IZdMLqtpMEl7Zch3AB5mCut7RkZuxu9t9cNGFVl1XRYy0B4n/j
dMoSkVv5yj/1TDUDSgU2mh4T2athui4SwqaybE6eKbaCyI7ePhrPNShD56v1hHoW
wYSsfh/jInwEIIUEkbHM2WW3ejg736x5xKCV/BQuNnMY17XOKwjl5l5Gxv2BJeXP
0FeNJkMZ/j9cM3+fh1bkdd0Nb6MkWbPtx9QYWr2nxnQWfSLFyVOdcLvZ/v1D1jip
lWYEFT6C2Aa4JkRvFIyqhRYGyEQchygMjilVWsFcvgeZ
-----END CERTIFICATE-----
