Certificate:
    Data:
        Version: 3 (0x2)
        Serial Number: 587 (0x24b)
    Signature Algorithm: md5WithRSAEncryption
        Issuer: C=US, ST=OH, L=Columbus, O=VikingVPN, OU=MyOrganizationalUnit, CN=VikingVPN CA/name=EasyRSA/emailAddress=me@myhost.mydomain
        Validity
            Not Before: Dec 15 19:51:53 2013 GMT
            Not After : Dec 13 19:51:53 2023 GMT
        Subject: CN=Client236Cert0dfd13
        Subject Public Key Info:
            Public Key Algorithm: rsaEncryption
                Public-Key: (4096 bit)
                Modulus:
                    00:e0:a6:14:e9:54:f8:0b:5e:b9:d0:a5:0e:86:8f:
                    b8:4f:8d:61:2c:c9:0e:d3:e2:ac:3e:49:d3:f4:3a:
                    e8:a3:2c:6d:f0:e0:8f:41:b7:38:6d:c7:ec:d2:a7:
                    94:5b:82:59:d4:85:d0:bd:58:bd:8e:e2:01:4d:e7:
                    36:9f:3c:fa:0c:ef:30:9f:d7:d5:5a:00:94:4c:dd:
                    ec:c4:8a:d3:61:09:4b:15:08:d9:a8:4c:f2:20:97:
                    dc:04:c3:fe:7e:6c:0b:ce:c2:87:89:5e:36:4a:47:
                    87:44:29:26:2f:c6:4f:2c:8e:cd:3e:9e:76:7d:ad:
                    4f:4c:8e:ef:f6:92:4b:ca:6c:a1:f2:3e:5a:48:5e:
                    df:d3:9e:40:9f:db:46:ea:3d:f0:e5:79:73:51:72:
                    3c:6c:09:5a:2a:7f:62:69:26:d6:a9:7b:24:71:58:
                    9c:2e:6d:37:74:ca:cd:02:15:91:7f:94:59:33:1f:
                    e5:fc:85:a9:12:4e:7f:75:65:8c:23:12:6c:70:80:
                    45:e2:f3:cc:cc:bc:72:62:16:ed:2e:64:14:f2:29:
                    22:7c:69:30:14:4d:12:5f:63:b6:98:d2:e5:91:ae:
                    24:59:76:06:f7:ad:01:82:46:39:6c:44:d0:a0:b5:
                    d6:de:97:9f:a3:67:12:f9:5e:4a:99:89:d3:ae:67:
                    ac:11:7e:f3:ea:b7:b7:89:84:5a:20:a5:44:70:5f:
                    2f:0c:1b:75:7a:a2:53:41:3e:8f:e7:da:88:1c:4d:
                    e3:75:71:f5:a4:fb:35:45:5b:af:f7:e1:b6:9b:fb:
                    0c:95:16:11:5d:08:3c:2f:34:a5:5f:a7:e3:bf:0c:
                    41:d7:b9:0e:bd:8c:cc:29:23:f4:73:c1:a3:21:1f:
                    f8:53:0f:ff:c1:66:26:85:01:5f:84:e0:d0:ec:7b:
                    9a:1c:97:ac:81:8f:a7:01:f9:d0:3c:98:b3:89:73:
                    c5:ab:b2:a6:9f:6c:3f:be:43:a9:09:01:75:36:42:
                    cc:74:52:98:b0:13:11:fa:26:5a:94:89:0d:3f:41:
                    90:d0:50:31:e6:ec:5b:4e:44:d3:d6:73:74:ea:ae:
                    f7:d5:be:1c:98:5e:13:86:f7:ff:d3:ff:f0:30:99:
                    05:f8:47:49:0d:db:4a:3e:b7:e0:bb:ba:92:0f:0c:
                    47:30:c8:11:51:11:4e:ee:cd:43:36:39:51:8d:13:
                    1c:3c:94:9d:5c:f4:76:63:4c:52:43:26:64:5c:78:
                    43:9a:8f:12:7a:7d:e5:d5:8a:2d:e9:fc:81:25:64:
                    2f:0f:03:14:57:79:36:52:56:31:0a:00:2a:1d:65:
                    c2:8f:a6:7a:7b:81:33:a5:69:cd:48:80:ad:da:d7:
                    4b:fb:67
                Exponent: 65537 (0x10001)
        X509v3 extensions:
            X509v3 Basic Constraints: 
                CA:FALSE
            Netscape Comment: 
                Easy-RSA Generated Certificate
            X509v3 Subject Key Identifier: 
                3F:02:83:65:C8:BF:C5:9E:21:9D:72:9B:18:F9:75:91:45:6F:9B:74
            X509v3 Authority Key Identifier: 
                keyid:12:CD:60:04:D2:A0:80:9E:70:ED:C6:99:B8:7B:2C:C6:52:FD:19:A1
                DirName:/C=US/ST=OH/L=Columbus/O=VikingVPN/OU=MyOrganizationalUnit/CN=VikingVPN CA/name=EasyRSA/emailAddress=me@myhost.mydomain
                serial:CF:35:85:EE:80:BF:2A:3E

            X509v3 Extended Key Usage: 
                TLS Web Client Authentication
            X509v3 Key Usage: 
                Digital Signature
    Signature Algorithm: md5WithRSAEncryption
         86:d2:44:88:6a:60:38:63:91:99:46:7a:70:11:83:6e:c5:1f:
         45:b5:a4:9a:82:2a:9d:da:00:0b:5a:33:4c:65:7a:63:ce:f7:
         ee:d2:c0:c6:e8:eb:c3:31:72:65:bc:e9:e7:ee:73:fa:42:5c:
         3a:ce:40:75:09:86:86:e0:0a:61:64:ec:2d:5a:9a:56:27:34:
         74:83:b9:8d:42:b6:dd:9e:cf:92:15:65:64:e2:78:0e:b2:74:
         94:61:cb:63:65:b1:92:73:d2:0d:65:d6:f6:39:d2:fe:2f:5a:
         f2:a5:c1:8f:15:35:1a:a3:9f:8a:31:42:1d:43:f6:31:c7:13:
         fc:30:03:40:eb:8b:f4:24:a7:09:8d:8d:61:59:56:53:cc:7e:
         2d:0f:7e:d6:69:82:ff:19:7f:31:4c:cb:26:b8:f8:bb:06:7f:
         f9:05:7f:35:f7:9e:21:ec:93:4a:af:16:36:bb:d7:b9:8a:fc:
         44:18:34:9b:f6:4e:41:da:68:00:93:35:1a:37:42:77:2e:94:
         01:ae:5d:18:44:94:c8:f8:76:8c:95:4f:e6:f1:ec:49:3e:ab:
         fd:fa:3e:78:56:46:e3:bd:0e:29:7f:3a:bd:39:55:9d:b4:9a:
         3c:30:48:8c:b3:19:87:c8:90:26:bf:da:67:aa:3c:d7:5a:91:
         d6:a1:64:7a:3d:fc:78:b3:f8:03:aa:bf:40:95:d9:c7:be:2b:
         2e:f9:4e:ff:28:0b:c3:a4:f2:bd:77:f9:37:c0:28:51:11:9f:
         68:b5:b1:88:33:d5:51:00:8f:3b:3b:05:4f:f8:73:21:87:c1:
         2d:29:41:f2:c8:af:2e:c6:4d:15:fa:9d:78:c0:fe:e3:68:e6:
         11:36:f6:e1:8c:a5:d7:ae:b5:56:48:5d:37:49:7a:5b:fd:14:
         39:6b:08:46:2c:54:ed:db:65:7a:bf:3e:08:df:df:0f:ea:47:
         bb:08:5f:dc:ad:a4:e0:b7:ff:c0:c4:9e:8f:d9:89:7c:98:20:
         4e:78:dd:da:0e:53:24:4c:a5:df:6f:70:92:50:58:90:63:90:
         4e:d9:5b:ed:7a:cf:1f:28:1b:c1:96:0e:f1:32:68:2b:f7:f0:
         71:fd:3c:82:0d:6e:8a:55:14:ea:f9:7a:f2:4b:0e:be:2e:03:
         3a:37:59:8f:45:f6:0f:48:f8:e8:a7:bd:44:68:0d:b4:92:bc:
         29:2d:05:8a:f1:f2:02:c2:20:46:59:94:81:83:a6:0d:cf:cf:
         6d:18:d0:93:e6:80:63:c7:d4:e7:e8:4d:0f:0b:35:89:de:ee:
         91:92:a5:cb:ba:ef:c5:4c:d7:64:a7:36:88:17:63:69:47:73:
         71:e9:16:f4:fd:8a:9c:67
-----BEGIN CERTIFICATE-----
MIIGrDCCBJSgAwIBAgICAkswDQYJKoZIhvcNAQEEBQAwgawxCzAJBgNVBAYTAlVT
MQswCQYDVQQIEwJPSDERMA8GA1UEBxMIQ29sdW1idXMxEjAQBgNVBAoTCVZpa2lu
Z1ZQTjEdMBsGA1UECxMUTXlPcmdhbml6YXRpb25hbFVuaXQxFTATBgNVBAMTDFZp
a2luZ1ZQTiBDQTEQMA4GA1UEKRMHRWFzeVJTQTEhMB8GCSqGSIb3DQEJARYSbWVA
bXlob3N0Lm15ZG9tYWluMB4XDTEzMTIxNTE5NTE1M1oXDTIzMTIxMzE5NTE1M1ow
HjEcMBoGA1UEAxMTQ2xpZW50MjM2Q2VydDBkZmQxMzCCAiIwDQYJKoZIhvcNAQEB
BQADggIPADCCAgoCggIBAOCmFOlU+AteudClDoaPuE+NYSzJDtPirD5J0/Q66KMs
bfDgj0G3OG3H7NKnlFuCWdSF0L1YvY7iAU3nNp88+gzvMJ/X1VoAlEzd7MSK02EJ
SxUI2ahM8iCX3ATD/n5sC87Ch4leNkpHh0QpJi/GTyyOzT6edn2tT0yO7/aSS8ps
ofI+Wkhe39OeQJ/bRuo98OV5c1FyPGwJWip/Ymkm1ql7JHFYnC5tN3TKzQIVkX+U
WTMf5fyFqRJOf3VljCMSbHCAReLzzMy8cmIW7S5kFPIpInxpMBRNEl9jtpjS5ZGu
JFl2BvetAYJGOWxE0KC11t6Xn6NnEvleSpmJ065nrBF+8+q3t4mEWiClRHBfLwwb
dXqiU0E+j+faiBxN43Vx9aT7NUVbr/fhtpv7DJUWEV0IPC80pV+n478MQde5Dr2M
zCkj9HPBoyEf+FMP/8FmJoUBX4Tg0Ox7mhyXrIGPpwH50DyYs4lzxauypp9sP75D
qQkBdTZCzHRSmLATEfomWpSJDT9BkNBQMebsW05E09ZzdOqu99W+HJheE4b3/9P/
8DCZBfhHSQ3bSj634Lu6kg8MRzDIEVERTu7NQzY5UY0THDyUnVz0dmNMUkMmZFx4
Q5qPEnp95dWKLen8gSVkLw8DFFd5NlJWMQoAKh1lwo+menuBM6VpzUiArdrXS/tn
AgMBAAGjggFjMIIBXzAJBgNVHRMEAjAAMC0GCWCGSAGG+EIBDQQgFh5FYXN5LVJT
QSBHZW5lcmF0ZWQgQ2VydGlmaWNhdGUwHQYDVR0OBBYEFD8Cg2XIv8WeIZ1ymxj5
dZFFb5t0MIHhBgNVHSMEgdkwgdaAFBLNYATSoICecO3Gmbh7LMZS/RmhoYGypIGv
MIGsMQswCQYDVQQGEwJVUzELMAkGA1UECBMCT0gxETAPBgNVBAcTCENvbHVtYnVz
MRIwEAYDVQQKEwlWaWtpbmdWUE4xHTAbBgNVBAsTFE15T3JnYW5pemF0aW9uYWxV
bml0MRUwEwYDVQQDEwxWaWtpbmdWUE4gQ0ExEDAOBgNVBCkTB0Vhc3lSU0ExITAf
BgkqhkiG9w0BCQEWEm1lQG15aG9zdC5teWRvbWFpboIJAM81he6Avyo+MBMGA1Ud
JQQMMAoGCCsGAQUFBwMCMAsGA1UdDwQEAwIHgDANBgkqhkiG9w0BAQQFAAOCAgEA
htJEiGpgOGORmUZ6cBGDbsUfRbWkmoIqndoAC1ozTGV6Y8737tLAxujrwzFyZbzp
5+5z+kJcOs5AdQmGhuAKYWTsLVqaVic0dIO5jUK23Z7PkhVlZOJ4DrJ0lGHLY2Wx
knPSDWXW9jnS/i9a8qXBjxU1GqOfijFCHUP2MccT/DADQOuL9CSnCY2NYVlWU8x+
LQ9+1mmC/xl/MUzLJrj4uwZ/+QV/NfeeIeyTSq8WNrvXuYr8RBg0m/ZOQdpoAJM1
GjdCdy6UAa5dGESUyPh2jJVP5vHsST6r/fo+eFZG470OKX86vTlVnbSaPDBIjLMZ
h8iQJr/aZ6o811qR1qFkej38eLP4A6q/QJXZx74rLvlO/ygLw6TyvXf5N8AoURGf
aLWxiDPVUQCPOzsFT/hzIYfBLSlB8sivLsZNFfqdeMD+42jmETb24Yyl1661Vkhd
N0l6W/0UOWsIRixU7dtler8+CN/fD+pHuwhf3K2k4Lf/wMSej9mJfJggTnjd2g5T
JEyl329wklBYkGOQTtlb7XrPHygbwZYO8TJoK/fwcf08gg1uilUU6vl68ksOvi4D
OjdZj0X2D0j46Ke9RGgNtJK8KS0FivHyAsIgRlmUgYOmDc/PbRjQk+aAY8fU5+hN
Dws1id7ukZKly7rvxUzXZKc2iBdjaUdzcekW9P2KnGc=
-----END CERTIFICATE-----
