Certificate:
    Data:
        Version: 3 (0x2)
        Serial Number: 4166 (0x1046)
    Signature Algorithm: md5WithRSAEncryption
        Issuer: C=US, ST=OH, L=Columbus, O=VikingVPN, OU=MyOrganizationalUnit, CN=VikingVPN CA/name=EasyRSA/emailAddress=me@myhost.mydomain
        Validity
            Not Before: Jan 19 06:11:17 2015 GMT
            Not After : Jan 16 06:11:17 2025 GMT
        Subject: CN=Client1375Certbfe094
        Subject Public Key Info:
            Public Key Algorithm: rsaEncryption
                Public-Key: (4096 bit)
                Modulus:
                    00:c9:a6:f4:1c:31:cb:ff:07:a5:f0:6f:e8:62:6d:
                    ae:82:1a:a4:3d:0d:b4:60:69:49:73:40:50:26:74:
                    68:25:b1:c5:0d:79:e8:17:57:e5:b1:7c:2c:83:92:
                    49:81:0f:8b:59:b3:9a:9e:7d:50:dc:d1:fc:ae:f4:
                    27:97:05:bc:33:aa:52:26:7e:29:1d:2f:6d:f5:2d:
                    6a:84:80:3b:04:3b:75:fc:33:15:49:26:56:a4:ed:
                    4b:d2:32:12:d9:61:e9:75:1c:37:11:83:ca:cb:b1:
                    5e:20:94:be:f7:04:e2:66:1c:79:b2:40:ef:ce:bc:
                    e3:c6:ef:14:75:15:95:9f:c9:b5:07:1b:69:1f:ba:
                    84:3e:c3:e1:6a:df:a8:75:1b:06:a0:ba:66:5f:ec:
                    a7:a1:8c:54:bc:39:5a:0a:7b:3a:72:3a:bd:0b:62:
                    ae:1c:d2:51:11:8a:bb:70:4d:eb:4f:ba:2c:5d:6a:
                    04:06:d4:fb:9e:cc:97:15:05:f5:1b:ab:47:d6:8d:
                    c2:46:7f:28:7e:87:6f:f5:47:3f:ed:41:78:36:ae:
                    da:53:31:06:68:65:0c:ac:3b:9c:68:5a:37:37:a6:
                    9d:9e:4c:95:3c:c6:2d:7e:2f:a6:83:1b:db:e4:86:
                    95:14:36:f2:d8:df:19:f3:88:ff:1b:34:41:dd:8f:
                    93:b7:8f:4e:0b:27:59:8f:d7:e4:d9:cf:24:8b:24:
                    62:27:08:71:bf:19:1b:7c:7b:08:dc:2f:a8:12:64:
                    14:ed:2d:21:49:68:e9:ce:67:3b:fd:cf:9a:4b:17:
                    a0:1a:05:00:42:ad:6d:3e:90:f3:94:27:9f:57:60:
                    c6:54:a1:29:9e:99:ae:a4:99:3c:02:de:6e:4c:81:
                    ba:7b:f6:f0:05:21:13:56:ae:cb:fa:1e:ba:37:d8:
                    55:b5:a0:47:11:f0:a8:f6:7c:c5:1d:a7:08:a4:6a:
                    41:32:67:7e:69:03:41:51:31:0c:1b:c6:61:b6:fa:
                    9b:33:35:b1:0a:65:6a:80:f4:75:aa:3d:29:9f:41:
                    5c:04:47:ca:2f:88:b4:d8:da:e3:86:22:d9:46:fb:
                    67:3d:cf:93:15:67:bf:7a:fd:8c:5b:2f:86:2a:db:
                    02:dd:fc:53:76:40:49:6c:20:f1:fb:31:53:f8:4c:
                    20:e1:f4:21:82:a0:c4:e8:e9:91:98:cd:a9:76:8d:
                    ec:02:1a:1d:06:47:1c:ad:24:d3:d1:9e:8b:9f:c5:
                    1e:59:b0:0f:70:25:66:4f:8d:a1:48:84:90:69:77:
                    20:33:9e:47:c6:d8:0c:93:97:f0:46:43:e0:21:51:
                    92:9c:76:91:b1:d9:55:50:00:ed:ec:92:93:b2:98:
                    2b:41:51
                Exponent: 65537 (0x10001)
        X509v3 extensions:
            X509v3 Basic Constraints: 
                CA:FALSE
            Netscape Comment: 
                Easy-RSA Generated Certificate
            X509v3 Subject Key Identifier: 
                1D:DA:23:B5:34:CF:A4:48:81:B9:FE:B1:98:1E:D7:80:85:BB:23:87
            X509v3 Authority Key Identifier: 
                keyid:12:CD:60:04:D2:A0:80:9E:70:ED:C6:99:B8:7B:2C:C6:52:FD:19:A1
                DirName:/C=US/ST=OH/L=Columbus/O=VikingVPN/OU=MyOrganizationalUnit/CN=VikingVPN CA/name=EasyRSA/emailAddress=me@myhost.mydomain
                serial:CF:35:85:EE:80:BF:2A:3E

            X509v3 Extended Key Usage: 
                TLS Web Client Authentication
            X509v3 Key Usage: 
                Digital Signature
    Signature Algorithm: md5WithRSAEncryption
         d4:6b:52:a7:b7:73:77:93:f7:96:fc:2d:32:00:46:d1:75:e7:
         48:73:58:04:0d:53:f4:c8:6a:ad:74:0f:27:5c:ec:fd:ab:16:
         05:2c:34:e8:99:c1:be:57:c4:60:81:63:3a:42:f1:c9:57:44:
         90:99:23:fa:43:ca:5e:a4:fb:eb:24:da:e2:4f:3c:34:9b:9d:
         ed:fe:22:07:e9:19:09:77:da:9e:79:72:9b:94:b9:7d:e4:36:
         2b:b1:f5:63:4f:71:b3:0c:53:ed:a4:f0:d1:3e:f8:35:3f:93:
         31:66:53:f9:75:ad:ce:16:0f:37:fb:4c:e1:41:88:66:fe:7f:
         35:01:97:f1:4c:8b:cf:ec:92:38:00:cd:d5:09:7e:b8:9d:9e:
         3d:57:ee:77:89:ba:99:2c:d7:c5:23:50:6b:b4:a0:b5:2c:38:
         17:d0:40:c8:fb:1a:26:22:2b:bb:c8:40:fa:4d:08:1d:e4:d0:
         98:64:b1:89:91:81:e9:79:94:f7:51:7a:cb:96:20:73:34:40:
         10:08:e9:c3:ca:17:d4:d8:32:0b:d2:f8:15:b6:f7:ab:aa:34:
         15:5e:ba:5e:09:ee:e6:94:74:3c:43:b7:5b:56:3d:ee:91:11:
         fd:52:7f:17:bd:ac:d3:b6:a5:f8:a4:c5:cd:a3:a0:77:5c:d3:
         45:0a:6d:0a:ed:ec:48:f6:d8:0f:a4:e6:06:16:39:95:1e:40:
         c0:d6:b1:43:ee:0a:81:96:40:31:db:e4:d9:61:c5:8c:72:8f:
         12:8a:3a:b8:2c:9d:d4:7c:a2:20:49:3c:e1:25:32:96:6e:4e:
         3b:ed:ca:ff:37:57:55:1c:f3:6d:e2:3f:17:1a:76:be:ad:f7:
         23:dc:6c:5d:53:78:e5:63:b1:8f:9f:3b:05:cc:77:5f:81:ad:
         47:2e:e7:c3:db:67:4d:82:a7:8f:ce:c2:a3:ec:a5:5e:f0:2b:
         3c:e0:a6:f9:5a:94:47:f1:12:75:e2:71:17:cc:24:87:81:40:
         8a:8d:c7:ed:db:3e:6c:c5:d4:c0:fa:b6:94:20:59:4f:6b:5e:
         18:54:d3:09:e7:50:ed:bb:7a:76:dc:f0:89:fa:42:35:8b:c3:
         bc:77:5e:c4:9d:65:77:3c:ad:0a:ec:0e:87:63:e6:f6:1c:6b:
         75:8e:d6:89:a9:1e:3c:11:c4:34:cd:8d:8e:29:fe:a5:2f:e8:
         86:32:3b:b2:40:4a:ec:a4:ce:e7:43:16:a9:e3:9a:4a:9b:31:
         8a:8a:60:ef:3e:8d:60:42:55:0a:fa:35:06:22:8c:bf:0f:a5:
         c2:67:52:62:c4:7b:81:a6:92:b8:c7:b7:a9:8c:05:3d:e6:c2:
         ac:67:b4:61:aa:85:99:43
-----BEGIN CERTIFICATE-----
MIIGrTCCBJWgAwIBAgICEEYwDQYJKoZIhvcNAQEEBQAwgawxCzAJBgNVBAYTAlVT
MQswCQYDVQQIEwJPSDERMA8GA1UEBxMIQ29sdW1idXMxEjAQBgNVBAoTCVZpa2lu
Z1ZQTjEdMBsGA1UECxMUTXlPcmdhbml6YXRpb25hbFVuaXQxFTATBgNVBAMTDFZp
a2luZ1ZQTiBDQTEQMA4GA1UEKRMHRWFzeVJTQTEhMB8GCSqGSIb3DQEJARYSbWVA
bXlob3N0Lm15ZG9tYWluMB4XDTE1MDExOTA2MTExN1oXDTI1MDExNjA2MTExN1ow
HzEdMBsGA1UEAxMUQ2xpZW50MTM3NUNlcnRiZmUwOTQwggIiMA0GCSqGSIb3DQEB
AQUAA4ICDwAwggIKAoICAQDJpvQcMcv/B6Xwb+hiba6CGqQ9DbRgaUlzQFAmdGgl
scUNeegXV+WxfCyDkkmBD4tZs5qefVDc0fyu9CeXBbwzqlImfikdL231LWqEgDsE
O3X8MxVJJlak7UvSMhLZYel1HDcRg8rLsV4glL73BOJmHHmyQO/OvOPG7xR1FZWf
ybUHG2kfuoQ+w+Fq36h1GwagumZf7KehjFS8OVoKezpyOr0LYq4c0lERirtwTetP
uixdagQG1PuezJcVBfUbq0fWjcJGfyh+h2/1Rz/tQXg2rtpTMQZoZQysO5xoWjc3
pp2eTJU8xi1+L6aDG9vkhpUUNvLY3xnziP8bNEHdj5O3j04LJ1mP1+TZzySLJGIn
CHG/GRt8ewjcL6gSZBTtLSFJaOnOZzv9z5pLF6AaBQBCrW0+kPOUJ59XYMZUoSme
ma6kmTwC3m5Mgbp79vAFIRNWrsv6Hro32FW1oEcR8Kj2fMUdpwikakEyZ35pA0FR
MQwbxmG2+pszNbEKZWqA9HWqPSmfQVwER8oviLTY2uOGItlG+2c9z5MVZ796/Yxb
L4Yq2wLd/FN2QElsIPH7MVP4TCDh9CGCoMTo6ZGYzal2jewCGh0GRxytJNPRnouf
xR5ZsA9wJWZPjaFIhJBpdyAznkfG2AyTl/BGQ+AhUZKcdpGx2VVQAO3skpOymCtB
UQIDAQABo4IBYzCCAV8wCQYDVR0TBAIwADAtBglghkgBhvhCAQ0EIBYeRWFzeS1S
U0EgR2VuZXJhdGVkIENlcnRpZmljYXRlMB0GA1UdDgQWBBQd2iO1NM+kSIG5/rGY
HteAhbsjhzCB4QYDVR0jBIHZMIHWgBQSzWAE0qCAnnDtxpm4eyzGUv0ZoaGBsqSB
rzCBrDELMAkGA1UEBhMCVVMxCzAJBgNVBAgTAk9IMREwDwYDVQQHEwhDb2x1bWJ1
czESMBAGA1UEChMJVmlraW5nVlBOMR0wGwYDVQQLExRNeU9yZ2FuaXphdGlvbmFs
VW5pdDEVMBMGA1UEAxMMVmlraW5nVlBOIENBMRAwDgYDVQQpEwdFYXN5UlNBMSEw
HwYJKoZIhvcNAQkBFhJtZUBteWhvc3QubXlkb21haW6CCQDPNYXugL8qPjATBgNV
HSUEDDAKBggrBgEFBQcDAjALBgNVHQ8EBAMCB4AwDQYJKoZIhvcNAQEEBQADggIB
ANRrUqe3c3eT95b8LTIARtF150hzWAQNU/TIaq10Dydc7P2rFgUsNOiZwb5XxGCB
YzpC8clXRJCZI/pDyl6k++sk2uJPPDSbne3+IgfpGQl32p55cpuUuX3kNiux9WNP
cbMMU+2k8NE++DU/kzFmU/l1rc4WDzf7TOFBiGb+fzUBl/FMi8/skjgAzdUJfrid
nj1X7neJupks18UjUGu0oLUsOBfQQMj7GiYiK7vIQPpNCB3k0JhksYmRgel5lPdR
esuWIHM0QBAI6cPKF9TYMgvS+BW296uqNBVeul4J7uaUdDxDt1tWPe6REf1Sfxe9
rNO2pfikxc2joHdc00UKbQrt7Ej22A+k5gYWOZUeQMDWsUPuCoGWQDHb5NlhxYxy
jxKKOrgsndR8oiBJPOElMpZuTjvtyv83V1Uc823iPxcadr6t9yPcbF1TeOVjsY+f
OwXMd1+BrUcu58PbZ02Cp4/OwqPspV7wKzzgpvlalEfxEnXicRfMJIeBQIqNx+3b
PmzF1MD6tpQgWU9rXhhU0wnnUO27enbc8In6QjWLw7x3XsSdZXc8rQrsDodj5vYc
a3WO1ompHjwRxDTNjY4p/qUv6IYyO7JASuykzudDFqnjmkqbMYqKYO8+jWBCVQr6
NQYijL8PpcJnUmLEe4GmkrjHt6mMBT3mwqxntGGqhZlD
-----END CERTIFICATE-----
