Certificate:
    Data:
        Version: 3 (0x2)
        Serial Number: 10545 (0x2931)
    Signature Algorithm: sha256WithRSAEncryption
        Issuer: C=US, ST=OH, L=Columbus, O=VikingVPN, OU=MyOrganizationalUnit, CN=VikingVPN CA/name=EasyRSA/emailAddress=me@myhost.mydomain
        Validity
            Not Before: Apr  5 12:43:07 2017 GMT
            Not After : Apr  3 12:43:07 2027 GMT
        Subject: CN=Client2837Certb1f36f
        Subject Public Key Info:
            Public Key Algorithm: rsaEncryption
                Public-Key: (4096 bit)
                Modulus:
                    00:c4:f7:16:56:43:32:b2:ef:92:33:db:6b:f9:96:
                    09:51:7f:03:5f:34:73:f6:b0:61:a3:c2:72:8b:08:
                    04:62:ee:fc:8e:6c:35:86:79:41:87:53:6c:76:89:
                    27:6e:17:f2:62:00:86:19:c3:21:a3:6b:d2:64:89:
                    97:88:e1:75:62:d6:2a:58:ed:73:91:e1:b9:4f:40:
                    29:82:04:2a:d9:1d:1b:28:d0:4f:31:f6:7b:e6:1a:
                    bd:77:7b:e6:05:e4:9c:6a:20:97:1a:60:97:2f:88:
                    b3:54:d5:b2:52:53:f6:40:e5:e1:b9:31:77:6d:58:
                    4e:ba:42:9f:ba:02:5a:f1:7a:6e:30:7b:66:1a:0f:
                    54:46:20:71:90:78:a2:c9:bb:48:68:8d:72:3f:3a:
                    2c:92:92:4e:43:09:00:df:d7:d6:d7:21:f5:12:40:
                    c4:a6:52:5b:d7:26:09:c9:7f:31:53:51:af:6a:b1:
                    64:d8:55:84:89:ec:d1:6c:24:52:07:47:fe:7b:0c:
                    4a:ce:9d:de:8f:c7:d5:d4:ed:2a:61:fd:c1:5b:14:
                    6a:2f:71:08:f0:d5:9e:68:ae:f2:b1:c6:ee:3e:a5:
                    ec:70:39:8b:8b:08:1d:c7:7e:96:0a:72:9d:a0:23:
                    f7:76:f6:b8:a3:b4:0e:14:3b:29:0d:d6:a5:97:6e:
                    ee:1c:a6:24:e5:77:82:ad:7f:1a:bc:e3:b3:8f:e3:
                    3e:fa:ad:67:64:96:7b:62:58:25:e3:08:f7:de:73:
                    a2:4a:e1:d3:e8:9d:c6:4a:cf:17:19:c5:7a:5c:90:
                    c4:fc:4e:46:7b:3c:74:fc:36:6b:e9:16:68:bd:b8:
                    46:aa:d1:ed:f3:70:63:3a:43:a7:7c:26:74:51:2a:
                    3d:9a:29:02:a6:ac:2d:0e:54:65:52:f0:a9:c0:cf:
                    41:66:90:57:3e:39:4e:56:8c:a5:d9:e3:8b:64:b1:
                    4e:76:a5:b7:bc:3f:78:66:81:cd:6c:e2:e7:2a:f5:
                    1e:e7:e1:5e:66:7b:56:b2:76:5c:01:49:f4:fc:ec:
                    28:59:56:31:b1:9f:a3:cc:8e:6a:82:fa:37:54:0d:
                    d7:f4:5c:f0:0f:2b:b9:32:cb:8b:c4:15:6e:00:da:
                    a8:31:1f:71:29:83:a5:58:64:72:b3:77:a0:ca:42:
                    ae:6a:3c:54:9f:9d:ed:41:0b:75:0d:f7:3c:69:0c:
                    17:66:fd:a3:47:40:6c:9e:10:41:c4:1b:f3:98:7c:
                    37:b0:f8:fb:e6:45:31:41:27:72:e5:55:2e:5f:a6:
                    ec:05:f1:8d:83:44:6a:61:3e:ab:02:97:15:3b:06:
                    04:4c:cb:80:49:07:43:2a:e9:97:62:ee:65:8a:a8:
                    6d:b0:57
                Exponent: 65537 (0x10001)
        X509v3 extensions:
            X509v3 Basic Constraints: 
                CA:FALSE
            Netscape Comment: 
                Easy-RSA Generated Certificate
            X509v3 Subject Key Identifier: 
                48:6A:F0:73:BB:1A:12:AE:5C:13:F7:17:C5:65:59:71:3E:96:A2:72
            X509v3 Authority Key Identifier: 
                keyid:12:CD:60:04:D2:A0:80:9E:70:ED:C6:99:B8:7B:2C:C6:52:FD:19:A1
                DirName:/C=US/ST=OH/L=Columbus/O=VikingVPN/OU=MyOrganizationalUnit/CN=VikingVPN CA/name=EasyRSA/emailAddress=me@myhost.mydomain
                serial:CF:35:85:EE:80:BF:2A:3E

            X509v3 Extended Key Usage: 
                TLS Web Client Authentication
            X509v3 Key Usage: 
                Digital Signature
    Signature Algorithm: sha256WithRSAEncryption
         2e:f6:c5:7d:4d:6d:17:26:fc:92:23:4a:90:f1:41:cb:df:88:
         7f:a8:dc:fc:a3:57:d7:cf:27:4b:50:38:69:2b:3f:07:7a:71:
         c5:11:ef:89:27:19:53:5d:32:af:fa:63:94:52:23:8a:5b:a1:
         2d:d1:d0:45:49:15:2d:6d:f3:36:79:f9:72:42:a8:0a:77:f7:
         cb:ba:13:b7:67:ad:8f:62:41:b1:a1:39:8a:eb:6c:dd:2d:f3:
         b1:07:3a:ed:79:c4:0a:fa:96:f1:8b:5e:bb:f9:ea:af:92:1b:
         13:d2:cd:21:ea:43:12:57:d2:a6:79:0d:e4:59:20:b7:41:be:
         9c:40:14:79:c9:59:c1:a0:4a:a4:fb:c5:03:70:b8:32:30:bd:
         3b:0a:38:10:64:97:ec:d1:d9:fc:99:c8:5a:03:98:4b:05:bc:
         79:55:20:0d:f2:3e:6e:b3:9b:39:70:a1:4a:06:4f:a5:1c:2a:
         35:9a:f4:c5:9c:b9:2b:1a:c1:93:23:64:09:c6:bd:f3:bf:90:
         8c:fd:5b:85:84:80:d1:cd:6e:90:09:17:81:56:1a:14:ba:1b:
         e0:da:cc:e6:22:59:d2:05:bb:72:13:c4:a6:94:30:7d:9a:49:
         90:99:20:22:7c:7a:ce:cd:99:54:f3:e4:8d:ff:f8:40:72:9e:
         5b:3e:bf:59:ef:c2:d2:d7:04:84:9b:32:b8:92:77:3d:b1:43:
         cf:ad:6c:16:d5:e0:d4:48:b5:3c:03:f9:9f:a2:ff:49:f4:47:
         d1:63:1b:e7:b7:5a:39:0b:a8:4e:39:9b:13:a0:2e:80:31:eb:
         57:6a:98:9b:41:0f:fd:1a:71:13:5f:62:20:bb:ef:f2:bd:cd:
         f9:ca:a7:ae:62:2c:08:2b:b0:e0:d1:ec:da:06:56:42:c3:9b:
         76:d7:99:17:67:75:f1:5c:82:c5:e4:07:e7:2e:41:c1:79:f6:
         52:20:d8:c3:5b:98:1b:e1:50:5b:80:13:eb:75:a6:9c:9f:5d:
         6f:6e:21:65:de:f5:66:3a:9e:e3:04:6b:8d:f6:c8:d8:30:dd:
         d5:ac:5d:64:10:e5:68:16:92:51:b8:2c:1c:15:ef:66:1f:ba:
         5c:f9:aa:d8:14:07:48:8f:9e:82:07:d1:ab:65:a8:51:b8:83:
         4f:3d:5c:de:b2:00:da:a5:d1:ad:37:7a:39:a4:ba:e0:14:69:
         1f:d0:f2:f4:38:0e:2e:b7:7d:3b:3b:25:48:13:e2:2a:ce:4f:
         19:c6:3d:8d:c7:78:82:5f:6c:45:66:31:e1:6d:f4:5f:66:b7:
         87:30:d4:df:77:ca:b3:8c:96:f1:45:f0:07:f2:7f:76:05:be:
         f1:35:94:2e:87:de:35:a4
-----BEGIN CERTIFICATE-----
MIIGrTCCBJWgAwIBAgICKTEwDQYJKoZIhvcNAQELBQAwgawxCzAJBgNVBAYTAlVT
MQswCQYDVQQIEwJPSDERMA8GA1UEBxMIQ29sdW1idXMxEjAQBgNVBAoTCVZpa2lu
Z1ZQTjEdMBsGA1UECxMUTXlPcmdhbml6YXRpb25hbFVuaXQxFTATBgNVBAMTDFZp
a2luZ1ZQTiBDQTEQMA4GA1UEKRMHRWFzeVJTQTEhMB8GCSqGSIb3DQEJARYSbWVA
bXlob3N0Lm15ZG9tYWluMB4XDTE3MDQwNTEyNDMwN1oXDTI3MDQwMzEyNDMwN1ow
HzEdMBsGA1UEAxMUQ2xpZW50MjgzN0NlcnRiMWYzNmYwggIiMA0GCSqGSIb3DQEB
AQUAA4ICDwAwggIKAoICAQDE9xZWQzKy75Iz22v5lglRfwNfNHP2sGGjwnKLCARi
7vyObDWGeUGHU2x2iSduF/JiAIYZwyGja9JkiZeI4XVi1ipY7XOR4blPQCmCBCrZ
HRso0E8x9nvmGr13e+YF5JxqIJcaYJcviLNU1bJSU/ZA5eG5MXdtWE66Qp+6Alrx
em4we2YaD1RGIHGQeKLJu0hojXI/OiySkk5DCQDf19bXIfUSQMSmUlvXJgnJfzFT
Ua9qsWTYVYSJ7NFsJFIHR/57DErOnd6Px9XU7Sph/cFbFGovcQjw1Z5orvKxxu4+
pexwOYuLCB3HfpYKcp2gI/d29rijtA4UOykN1qWXbu4cpiTld4Ktfxq847OP4z76
rWdklntiWCXjCPfec6JK4dPoncZKzxcZxXpckMT8TkZ7PHT8NmvpFmi9uEaq0e3z
cGM6Q6d8JnRRKj2aKQKmrC0OVGVS8KnAz0FmkFc+OU5WjKXZ44tksU52pbe8P3hm
gc1s4ucq9R7n4V5me1aydlwBSfT87ChZVjGxn6PMjmqC+jdUDdf0XPAPK7kyy4vE
FW4A2qgxH3Epg6VYZHKzd6DKQq5qPFSfne1BC3UN9zxpDBdm/aNHQGyeEEHEG/OY
fDew+PvmRTFBJ3LlVS5fpuwF8Y2DRGphPqsClxU7BgRMy4BJB0Mq6Zdi7mWKqG2w
VwIDAQABo4IBYzCCAV8wCQYDVR0TBAIwADAtBglghkgBhvhCAQ0EIBYeRWFzeS1S
U0EgR2VuZXJhdGVkIENlcnRpZmljYXRlMB0GA1UdDgQWBBRIavBzuxoSrlwT9xfF
ZVlxPpaicjCB4QYDVR0jBIHZMIHWgBQSzWAE0qCAnnDtxpm4eyzGUv0ZoaGBsqSB
rzCBrDELMAkGA1UEBhMCVVMxCzAJBgNVBAgTAk9IMREwDwYDVQQHEwhDb2x1bWJ1
czESMBAGA1UEChMJVmlraW5nVlBOMR0wGwYDVQQLExRNeU9yZ2FuaXphdGlvbmFs
VW5pdDEVMBMGA1UEAxMMVmlraW5nVlBOIENBMRAwDgYDVQQpEwdFYXN5UlNBMSEw
HwYJKoZIhvcNAQkBFhJtZUBteWhvc3QubXlkb21haW6CCQDPNYXugL8qPjATBgNV
HSUEDDAKBggrBgEFBQcDAjALBgNVHQ8EBAMCB4AwDQYJKoZIhvcNAQELBQADggIB
AC72xX1NbRcm/JIjSpDxQcvfiH+o3PyjV9fPJ0tQOGkrPwd6ccUR74knGVNdMq/6
Y5RSI4pboS3R0EVJFS1t8zZ5+XJCqAp398u6E7dnrY9iQbGhOYrrbN0t87EHOu15
xAr6lvGLXrv56q+SGxPSzSHqQxJX0qZ5DeRZILdBvpxAFHnJWcGgSqT7xQNwuDIw
vTsKOBBkl+zR2fyZyFoDmEsFvHlVIA3yPm6zmzlwoUoGT6UcKjWa9MWcuSsawZMj
ZAnGvfO/kIz9W4WEgNHNbpAJF4FWGhS6G+DazOYiWdIFu3ITxKaUMH2aSZCZICJ8
es7NmVTz5I3/+EBynls+v1nvwtLXBISbMriSdz2xQ8+tbBbV4NRItTwD+Z+i/0n0
R9FjG+e3WjkLqE45mxOgLoAx61dqmJtBD/0acRNfYiC77/K9zfnKp65iLAgrsODR
7NoGVkLDm3bXmRdndfFcgsXkB+cuQcF59lIg2MNbmBvhUFuAE+t1ppyfXW9uIWXe
9WY6nuMEa432yNgw3dWsXWQQ5WgWklG4LBwV72Yfulz5qtgUB0iPnoIH0atlqFG4
g089XN6yANql0a03ejmkuuAUaR/Q8vQ4Di63fTs7JUgT4irOTxnGPY3HeIJfbEVm
MeFt9F9mt4cw1N93yrOMlvFF8Afyf3YFvvE1lC6H3jWk
-----END CERTIFICATE-----
