Certificate:
    Data:
        Version: 3 (0x2)
        Serial Number: 10609 (0x2971)
    Signature Algorithm: sha256WithRSAEncryption
        Issuer: C=US, ST=OH, L=Columbus, O=VikingVPN, OU=MyOrganizationalUnit, CN=VikingVPN CA/name=EasyRSA/emailAddress=me@myhost.mydomain
        Validity
            Not Before: Apr  8 22:55:28 2017 GMT
            Not After : Apr  6 22:55:28 2027 GMT
        Subject: CN=Client2812Cert2b281d
        Subject Public Key Info:
            Public Key Algorithm: rsaEncryption
                Public-Key: (4096 bit)
                Modulus:
                    00:bc:f9:1a:ac:75:c9:84:77:fc:18:ed:c6:c6:91:
                    4b:55:a7:89:e0:5f:ae:b4:31:a3:ea:79:af:d4:4c:
                    a5:4d:44:dd:61:4c:00:ba:41:d6:43:27:48:c8:2e:
                    83:28:3b:73:40:7b:ce:4f:04:fe:41:b3:73:8f:99:
                    2b:79:e0:9c:c3:07:ec:34:75:f0:c2:c2:ea:56:12:
                    c2:7c:57:81:a4:5c:fc:02:b8:f4:41:db:06:b2:cc:
                    77:c5:76:5f:90:a4:52:b1:76:eb:22:65:5b:ed:10:
                    1c:ed:d3:e8:e5:4a:0d:c8:33:0a:82:c3:33:9c:82:
                    6c:18:6b:a1:62:3f:98:09:46:63:23:84:69:fb:a1:
                    3f:1b:a0:d1:2e:ab:35:8c:44:b0:c2:7e:f5:9b:9a:
                    dd:ec:e6:cc:b6:8b:2c:71:0f:4f:00:5a:91:00:21:
                    5a:5d:65:f9:98:81:f2:7b:b6:fc:fa:5f:ca:1b:a9:
                    46:54:62:4c:97:e4:0c:4c:22:4e:0f:c6:e2:e3:a4:
                    06:61:49:ce:de:a9:89:61:ce:26:18:ec:fa:b9:9d:
                    96:03:b6:45:00:aa:7e:0f:ef:68:69:30:5c:e5:3f:
                    eb:82:48:0d:b9:31:ff:2b:9a:72:90:3a:6f:24:9d:
                    61:c2:83:3f:b8:2e:e6:6d:d1:c4:31:08:28:b6:16:
                    ed:4b:37:7e:8a:a4:16:14:2e:59:77:be:e6:6a:07:
                    cc:97:23:88:29:85:cb:4f:e6:fd:2f:ed:39:e7:7b:
                    1e:7a:c7:fa:2b:07:0e:f1:85:41:d7:60:9b:0d:87:
                    53:05:67:dd:c6:0a:c7:0c:0c:b4:aa:a9:ca:35:01:
                    a3:f3:3f:4f:bb:6b:8a:6e:f0:3d:d7:54:37:9e:c3:
                    68:64:83:b9:de:1f:05:67:2c:21:d6:30:6e:67:14:
                    60:95:96:51:6d:a6:43:82:82:f6:b3:0f:f4:cd:4c:
                    ca:1a:f6:39:ab:ba:4e:0e:db:5b:96:49:92:4f:04:
                    6d:21:7f:b2:8e:ce:39:81:06:82:ba:52:95:90:b0:
                    89:6e:f5:e9:b6:27:23:0f:d5:a9:e2:3e:8e:95:b6:
                    d8:c3:b2:50:af:23:f1:de:53:ac:4c:9e:ab:f3:13:
                    a7:4e:63:00:82:c3:b9:ce:58:81:c7:33:72:a8:7a:
                    36:4f:6c:62:bf:b6:a6:5b:cd:e4:09:62:8b:5c:a7:
                    e4:da:9c:b2:f9:63:00:d9:ab:6c:83:54:1a:13:d1:
                    d3:a4:88:eb:e8:70:a0:18:c0:27:28:b5:94:bc:77:
                    f1:39:34:70:51:3a:da:f5:b0:72:90:44:c9:5c:b6:
                    4f:c2:8a:85:1a:f0:7e:f9:a2:dd:3a:c1:43:43:5d:
                    89:86:d9
                Exponent: 65537 (0x10001)
        X509v3 extensions:
            X509v3 Basic Constraints: 
                CA:FALSE
            Netscape Comment: 
                Easy-RSA Generated Certificate
            X509v3 Subject Key Identifier: 
                9F:8F:92:90:B8:41:84:10:DF:AF:84:07:5F:66:C1:48:ED:41:A8:E0
            X509v3 Authority Key Identifier: 
                keyid:12:CD:60:04:D2:A0:80:9E:70:ED:C6:99:B8:7B:2C:C6:52:FD:19:A1
                DirName:/C=US/ST=OH/L=Columbus/O=VikingVPN/OU=MyOrganizationalUnit/CN=VikingVPN CA/name=EasyRSA/emailAddress=me@myhost.mydomain
                serial:CF:35:85:EE:80:BF:2A:3E

            X509v3 Extended Key Usage: 
                TLS Web Client Authentication
            X509v3 Key Usage: 
                Digital Signature
    Signature Algorithm: sha256WithRSAEncryption
         0f:73:e9:88:c6:d4:12:f7:bb:88:18:6e:77:a9:29:f6:e6:28:
         04:39:56:3d:c8:a5:85:13:ae:5a:19:02:63:b3:94:7c:76:fe:
         8f:df:17:64:71:9c:51:d4:03:33:24:a7:cc:48:f7:8a:bc:74:
         b0:82:e3:24:8b:b1:44:45:72:7c:60:0c:f5:09:aa:ff:43:71:
         10:92:72:e5:a9:d8:c2:cf:6a:e4:36:a2:23:7c:2a:18:3d:98:
         31:6b:20:17:76:84:e7:0d:87:c6:0b:a7:90:1f:a5:3b:78:87:
         fc:6b:79:5f:8f:ff:3c:d1:39:10:6d:9e:d4:8a:b5:df:be:77:
         f9:33:09:5a:0b:03:d0:38:cb:67:f8:ac:aa:c3:31:bb:09:14:
         07:a6:f8:53:59:0c:96:b8:9d:30:69:e8:bd:93:8f:df:41:b8:
         2c:86:dd:b0:ea:9a:35:41:3a:07:76:59:d5:80:82:bd:f5:cc:
         ec:40:63:3e:07:59:a5:74:9d:1e:5b:6d:ea:d3:3a:9d:d0:0d:
         a6:e7:c9:9f:4e:5f:e6:c4:95:ef:ba:a6:8c:e4:1d:40:7f:fc:
         62:56:89:15:90:a3:f5:8a:8e:8b:a8:4b:54:27:6f:73:81:de:
         bf:af:2b:85:3d:e1:39:75:df:ae:d3:63:79:aa:dd:62:63:4a:
         56:eb:61:75:57:ba:d4:c0:57:17:2d:b4:51:e0:97:ba:09:4f:
         3c:3a:0d:28:5e:57:49:37:e0:a3:0e:6e:16:31:b1:e8:b6:be:
         8a:23:79:cb:3d:10:0c:02:bd:34:24:f3:be:e1:2c:63:9b:ce:
         19:41:ad:ad:f6:f6:8e:86:30:d8:23:fa:5a:8f:0d:c7:9d:26:
         74:11:8a:f3:de:a1:db:4a:0f:37:6f:53:55:45:5f:bb:0e:fd:
         2e:e6:6a:72:b8:04:20:0a:32:a1:97:70:f6:4b:a4:ec:26:1b:
         35:65:ac:15:44:85:17:55:04:de:2c:83:53:fa:10:ca:1e:11:
         fb:6d:83:b6:02:7b:51:c3:44:69:7d:64:93:f2:df:6f:c9:82:
         b5:fa:d6:3c:f7:f2:80:9a:be:b7:62:24:3d:9b:06:9a:a7:0c:
         0a:65:0b:0c:f6:d7:5f:fb:fc:79:a7:1d:fc:0d:d4:70:b8:40:
         09:8a:05:b9:2f:97:4e:a3:67:06:44:80:b7:49:f4:96:18:79:
         43:d8:70:c7:06:6e:e0:bc:3b:21:1a:13:05:9a:18:5f:f7:4e:
         77:66:f5:6c:8e:93:e1:df:25:a9:8b:7f:f7:23:d4:e7:33:fd:
         d0:8c:91:8e:e6:0b:46:17:8c:fb:75:35:d5:56:f0:db:7f:17:
         bd:c7:52:99:3e:bb:e4:a8
-----BEGIN CERTIFICATE-----
MIIGrTCCBJWgAwIBAgICKXEwDQYJKoZIhvcNAQELBQAwgawxCzAJBgNVBAYTAlVT
MQswCQYDVQQIEwJPSDERMA8GA1UEBxMIQ29sdW1idXMxEjAQBgNVBAoTCVZpa2lu
Z1ZQTjEdMBsGA1UECxMUTXlPcmdhbml6YXRpb25hbFVuaXQxFTATBgNVBAMTDFZp
a2luZ1ZQTiBDQTEQMA4GA1UEKRMHRWFzeVJTQTEhMB8GCSqGSIb3DQEJARYSbWVA
bXlob3N0Lm15ZG9tYWluMB4XDTE3MDQwODIyNTUyOFoXDTI3MDQwNjIyNTUyOFow
HzEdMBsGA1UEAxMUQ2xpZW50MjgxMkNlcnQyYjI4MWQwggIiMA0GCSqGSIb3DQEB
AQUAA4ICDwAwggIKAoICAQC8+RqsdcmEd/wY7cbGkUtVp4ngX660MaPqea/UTKVN
RN1hTAC6QdZDJ0jILoMoO3NAe85PBP5Bs3OPmSt54JzDB+w0dfDCwupWEsJ8V4Gk
XPwCuPRB2wayzHfFdl+QpFKxdusiZVvtEBzt0+jlSg3IMwqCwzOcgmwYa6FiP5gJ
RmMjhGn7oT8boNEuqzWMRLDCfvWbmt3s5sy2iyxxD08AWpEAIVpdZfmYgfJ7tvz6
X8obqUZUYkyX5AxMIk4PxuLjpAZhSc7eqYlhziYY7Pq5nZYDtkUAqn4P72hpMFzl
P+uCSA25Mf8rmnKQOm8knWHCgz+4LuZt0cQxCCi2Fu1LN36KpBYULll3vuZqB8yX
I4gphctP5v0v7Tnnex56x/orBw7xhUHXYJsNh1MFZ93GCscMDLSqqco1AaPzP0+7
a4pu8D3XVDeew2hkg7neHwVnLCHWMG5nFGCVllFtpkOCgvazD/TNTMoa9jmruk4O
21uWSZJPBG0hf7KOzjmBBoK6UpWQsIlu9em2JyMP1aniPo6VttjDslCvI/HeU6xM
nqvzE6dOYwCCw7nOWIHHM3KoejZPbGK/tqZbzeQJYotcp+TanLL5YwDZq2yDVBoT
0dOkiOvocKAYwCcotZS8d/E5NHBROtr1sHKQRMlctk/CioUa8H75ot06wUNDXYmG
2QIDAQABo4IBYzCCAV8wCQYDVR0TBAIwADAtBglghkgBhvhCAQ0EIBYeRWFzeS1S
U0EgR2VuZXJhdGVkIENlcnRpZmljYXRlMB0GA1UdDgQWBBSfj5KQuEGEEN+vhAdf
ZsFI7UGo4DCB4QYDVR0jBIHZMIHWgBQSzWAE0qCAnnDtxpm4eyzGUv0ZoaGBsqSB
rzCBrDELMAkGA1UEBhMCVVMxCzAJBgNVBAgTAk9IMREwDwYDVQQHEwhDb2x1bWJ1
czESMBAGA1UEChMJVmlraW5nVlBOMR0wGwYDVQQLExRNeU9yZ2FuaXphdGlvbmFs
VW5pdDEVMBMGA1UEAxMMVmlraW5nVlBOIENBMRAwDgYDVQQpEwdFYXN5UlNBMSEw
HwYJKoZIhvcNAQkBFhJtZUBteWhvc3QubXlkb21haW6CCQDPNYXugL8qPjATBgNV
HSUEDDAKBggrBgEFBQcDAjALBgNVHQ8EBAMCB4AwDQYJKoZIhvcNAQELBQADggIB
AA9z6YjG1BL3u4gYbnepKfbmKAQ5Vj3IpYUTrloZAmOzlHx2/o/fF2RxnFHUAzMk
p8xI94q8dLCC4ySLsURFcnxgDPUJqv9DcRCScuWp2MLPauQ2oiN8Khg9mDFrIBd2
hOcNh8YLp5AfpTt4h/xreV+P/zzRORBtntSKtd++d/kzCVoLA9A4y2f4rKrDMbsJ
FAem+FNZDJa4nTBp6L2Tj99BuCyG3bDqmjVBOgd2WdWAgr31zOxAYz4HWaV0nR5b
berTOp3QDabnyZ9OX+bEle+6pozkHUB//GJWiRWQo/WKjouoS1Qnb3OB3r+vK4U9
4Tl1367TY3mq3WJjSlbrYXVXutTAVxcttFHgl7oJTzw6DSheV0k34KMObhYxsei2
voojecs9EAwCvTQk877hLGObzhlBra329o6GMNgj+lqPDcedJnQRivPeodtKDzdv
U1VFX7sO/S7manK4BCAKMqGXcPZLpOwmGzVlrBVEhRdVBN4sg1P6EMoeEfttg7YC
e1HDRGl9ZJPy32/JgrX61jz38oCavrdiJD2bBpqnDAplCwz211/7/HmnHfwN1HC4
QAmKBbkvl06jZwZEgLdJ9JYYeUPYcMcGbuC8OyEaEwWaGF/3Tndm9WyOk+HfJamL
f/cj1Ocz/dCMkY7mC0YXjPt1NdVW8Nt/F73HUpk+u+So
-----END CERTIFICATE-----
