Certificate:
    Data:
        Version: 3 (0x2)
        Serial Number: 9974 (0x26f6)
    Signature Algorithm: sha256WithRSAEncryption
        Issuer: C=US, ST=OH, L=Columbus, O=VikingVPN, OU=MyOrganizationalUnit, CN=VikingVPN CA/name=EasyRSA/emailAddress=me@myhost.mydomain
        Validity
            Not Before: Jan 25 01:26:23 2017 GMT
            Not After : Jan 23 01:26:23 2027 GMT
        Subject: CN=Client2701Cert3c8ff6
        Subject Public Key Info:
            Public Key Algorithm: rsaEncryption
                Public-Key: (4096 bit)
                Modulus:
                    00:aa:30:d9:f0:46:98:7f:af:63:8f:7e:22:8f:a0:
                    af:49:58:14:c3:c3:38:74:cd:ca:da:69:95:3a:bc:
                    84:98:7b:87:33:e6:cf:b3:06:5f:a0:ea:9c:8f:99:
                    5f:0c:b5:79:c4:54:30:8f:73:7e:dc:b6:81:72:d5:
                    f4:f8:de:14:6d:05:67:7a:33:7c:ac:3e:56:a5:95:
                    13:18:dc:9b:db:29:4d:d4:5e:21:22:ce:4b:e9:ae:
                    cd:d1:df:8c:3f:df:83:62:9a:6d:65:29:0d:95:e0:
                    98:98:e4:4f:01:76:2e:ac:e9:54:7a:6e:53:64:70:
                    c9:99:11:f8:5a:21:17:1d:44:ba:46:fd:c7:2c:e4:
                    79:9f:c7:e4:db:27:44:21:4c:ba:27:15:4b:19:c0:
                    d3:98:2b:22:a8:f1:be:32:56:6f:57:e6:30:10:02:
                    f3:96:49:88:a5:85:80:0e:9c:bd:9a:47:66:ac:55:
                    74:b7:f2:82:db:7d:52:00:5f:90:e5:ac:c3:f4:bc:
                    76:71:e5:65:a1:9d:1d:25:da:49:1c:31:66:e3:64:
                    5a:3f:53:f2:55:72:ee:bd:89:9d:5f:76:d9:0d:af:
                    82:82:f7:21:f9:5a:4d:6a:03:23:20:d8:19:2e:2e:
                    e6:e2:da:8b:01:d1:07:40:5b:89:1c:26:e7:20:c8:
                    70:14:5b:d7:23:b4:d8:7d:69:ec:b2:1b:80:15:44:
                    78:6f:dd:fc:ef:2e:f0:e4:46:b6:81:e7:24:fa:4a:
                    c6:c2:37:ce:95:43:e0:cd:ec:d9:47:92:0c:c2:27:
                    5e:32:3e:dd:7d:76:c6:fb:86:7d:39:ab:dc:b7:7a:
                    a0:11:16:5a:cb:23:66:08:8b:7d:d1:bd:22:ca:d1:
                    1e:da:af:87:eb:10:30:21:44:18:97:d3:a9:77:1c:
                    5d:5e:f4:f8:b1:8c:fa:48:e3:12:eb:34:29:3e:57:
                    fb:91:45:47:23:2a:fc:a6:83:49:db:ca:7a:a0:33:
                    90:c2:70:ae:c0:f3:e1:36:16:cb:3d:95:22:b7:ef:
                    58:83:58:96:c5:bb:4e:00:90:cd:c0:72:67:a6:da:
                    c0:af:bb:4f:f4:99:ba:ce:f3:e8:c0:b0:10:a6:cc:
                    dd:0d:c3:14:37:7f:fd:62:e5:e6:ba:61:c3:3c:67:
                    d7:6b:ea:0a:12:b5:40:66:ff:ed:42:60:93:5e:53:
                    f4:78:04:3f:e6:56:1f:3a:b1:eb:dd:92:2c:57:a0:
                    5e:b3:0e:34:f3:1e:fd:41:fc:e7:b2:08:bf:5a:97:
                    94:33:b9:d0:6b:23:9c:9e:ba:20:47:bc:df:9f:e4:
                    4d:7c:dd:62:81:e9:bb:4a:44:d6:9d:82:7c:27:5d:
                    a1:ed:c9
                Exponent: 65537 (0x10001)
        X509v3 extensions:
            X509v3 Basic Constraints: 
                CA:FALSE
            Netscape Comment: 
                Easy-RSA Generated Certificate
            X509v3 Subject Key Identifier: 
                AC:71:B8:1B:FB:B7:6B:7F:43:1A:44:65:E5:4B:EE:E9:52:6A:BE:DB
            X509v3 Authority Key Identifier: 
                keyid:12:CD:60:04:D2:A0:80:9E:70:ED:C6:99:B8:7B:2C:C6:52:FD:19:A1
                DirName:/C=US/ST=OH/L=Columbus/O=VikingVPN/OU=MyOrganizationalUnit/CN=VikingVPN CA/name=EasyRSA/emailAddress=me@myhost.mydomain
                serial:CF:35:85:EE:80:BF:2A:3E

            X509v3 Extended Key Usage: 
                TLS Web Client Authentication
            X509v3 Key Usage: 
                Digital Signature
    Signature Algorithm: sha256WithRSAEncryption
         2f:67:40:30:0f:66:2e:00:6f:bb:74:81:e2:05:18:7c:fc:35:
         e8:ab:1b:6e:41:ad:4c:df:f6:70:b2:dc:9b:7f:c7:a3:73:a7:
         d2:12:cd:31:e8:85:a0:3d:72:6d:fa:b9:3c:3c:45:34:b8:40:
         e7:51:f7:46:d9:84:2f:82:37:94:c4:6e:d2:cf:4c:b1:ba:31:
         30:ac:82:33:09:a8:1d:51:85:3e:3d:50:05:51:96:0f:71:45:
         f4:8f:a3:cc:81:c7:bd:d1:4a:83:de:33:99:ba:cd:1e:c6:ed:
         91:6e:3b:c4:6c:94:6b:b1:5a:f1:65:bd:e5:59:fd:e8:00:e8:
         03:3f:13:fa:e2:95:7d:29:47:6e:67:26:7e:06:4e:a0:b6:c8:
         ba:a9:cc:88:4e:4f:1b:fd:25:b3:ed:2a:97:5c:f0:ad:7d:1f:
         cd:f1:f9:e0:eb:52:31:f2:5f:be:5c:fa:b7:d1:57:8a:36:d1:
         76:f8:26:03:99:55:87:54:21:26:4f:70:77:86:e8:8f:97:47:
         4d:9e:27:e9:4c:6d:a5:5a:d9:46:33:f2:78:64:4d:ca:e3:15:
         4b:3a:c1:87:93:19:e8:5a:56:73:c5:7e:b5:37:51:5a:52:4e:
         e0:19:b8:37:76:2d:66:97:a6:61:2f:84:50:4a:17:31:83:96:
         c3:c6:c8:dd:ea:16:36:a9:f5:b4:97:ec:4f:4b:18:ad:13:10:
         e5:95:84:62:ce:ed:9a:2b:c2:3c:e2:1f:9f:d6:17:a6:48:5b:
         e1:72:0d:23:57:0f:78:8e:eb:b9:5a:a3:b9:5f:59:c2:31:9a:
         17:7a:b0:63:26:fb:87:0b:39:e6:e7:57:03:d1:14:0e:16:cc:
         49:e8:e8:6d:57:d7:a9:22:e2:55:97:be:c0:67:28:cb:de:5c:
         ce:fb:81:e5:b3:e7:17:24:79:c0:10:6b:3d:b1:06:27:4f:9b:
         8b:c8:ae:b5:06:42:70:0f:52:03:6b:64:a0:53:05:ce:d8:5e:
         cd:d3:09:ee:28:89:8a:bf:90:a4:b5:bb:e9:20:92:72:bd:89:
         ac:ad:d1:2c:57:68:46:33:91:da:7d:6c:f7:ff:22:0b:bf:8f:
         e0:72:42:74:51:c5:0f:61:14:81:0f:ab:5a:63:ef:59:09:3a:
         31:61:80:02:b5:1e:5a:53:f1:1c:57:a5:a0:ff:5e:77:42:19:
         e2:f5:fd:0b:de:e0:ce:94:e8:6e:fa:fb:77:98:a9:c5:d4:67:
         c7:fb:94:2e:e4:f9:33:9b:e2:5e:e8:cf:b5:1b:6b:2b:40:7d:
         42:b5:99:f0:3b:ef:cc:f4:24:ca:4b:dd:37:af:3b:14:fe:a7:
         eb:cb:17:16:65:9f:92:60
-----BEGIN CERTIFICATE-----
MIIGrTCCBJWgAwIBAgICJvYwDQYJKoZIhvcNAQELBQAwgawxCzAJBgNVBAYTAlVT
MQswCQYDVQQIEwJPSDERMA8GA1UEBxMIQ29sdW1idXMxEjAQBgNVBAoTCVZpa2lu
Z1ZQTjEdMBsGA1UECxMUTXlPcmdhbml6YXRpb25hbFVuaXQxFTATBgNVBAMTDFZp
a2luZ1ZQTiBDQTEQMA4GA1UEKRMHRWFzeVJTQTEhMB8GCSqGSIb3DQEJARYSbWVA
bXlob3N0Lm15ZG9tYWluMB4XDTE3MDEyNTAxMjYyM1oXDTI3MDEyMzAxMjYyM1ow
HzEdMBsGA1UEAxMUQ2xpZW50MjcwMUNlcnQzYzhmZjYwggIiMA0GCSqGSIb3DQEB
AQUAA4ICDwAwggIKAoICAQCqMNnwRph/r2OPfiKPoK9JWBTDwzh0zcraaZU6vISY
e4cz5s+zBl+g6pyPmV8MtXnEVDCPc37ctoFy1fT43hRtBWd6M3ysPlallRMY3Jvb
KU3UXiEizkvprs3R34w/34Nimm1lKQ2V4JiY5E8Bdi6s6VR6blNkcMmZEfhaIRcd
RLpG/ccs5Hmfx+TbJ0QhTLonFUsZwNOYKyKo8b4yVm9X5jAQAvOWSYilhYAOnL2a
R2asVXS38oLbfVIAX5DlrMP0vHZx5WWhnR0l2kkcMWbjZFo/U/JVcu69iZ1fdtkN
r4KC9yH5Wk1qAyMg2BkuLubi2osB0QdAW4kcJucgyHAUW9cjtNh9aeyyG4AVRHhv
3fzvLvDkRraB5yT6SsbCN86VQ+DN7NlHkgzCJ14yPt19dsb7hn05q9y3eqARFlrL
I2YIi33RvSLK0R7ar4frEDAhRBiX06l3HF1e9PixjPpI4xLrNCk+V/uRRUcjKvym
g0nbynqgM5DCcK7A8+E2Fss9lSK371iDWJbFu04AkM3Acmem2sCvu0/0mbrO8+jA
sBCmzN0NwxQ3f/1i5ea6YcM8Z9dr6goStUBm/+1CYJNeU/R4BD/mVh86sevdkixX
oF6zDjTzHv1B/OeyCL9al5QzudBrI5yeuiBHvN+f5E183WKB6btKRNadgnwnXaHt
yQIDAQABo4IBYzCCAV8wCQYDVR0TBAIwADAtBglghkgBhvhCAQ0EIBYeRWFzeS1S
U0EgR2VuZXJhdGVkIENlcnRpZmljYXRlMB0GA1UdDgQWBBSscbgb+7drf0MaRGXl
S+7pUmq+2zCB4QYDVR0jBIHZMIHWgBQSzWAE0qCAnnDtxpm4eyzGUv0ZoaGBsqSB
rzCBrDELMAkGA1UEBhMCVVMxCzAJBgNVBAgTAk9IMREwDwYDVQQHEwhDb2x1bWJ1
czESMBAGA1UEChMJVmlraW5nVlBOMR0wGwYDVQQLExRNeU9yZ2FuaXphdGlvbmFs
VW5pdDEVMBMGA1UEAxMMVmlraW5nVlBOIENBMRAwDgYDVQQpEwdFYXN5UlNBMSEw
HwYJKoZIhvcNAQkBFhJtZUBteWhvc3QubXlkb21haW6CCQDPNYXugL8qPjATBgNV
HSUEDDAKBggrBgEFBQcDAjALBgNVHQ8EBAMCB4AwDQYJKoZIhvcNAQELBQADggIB
AC9nQDAPZi4Ab7t0geIFGHz8NeirG25BrUzf9nCy3Jt/x6Nzp9ISzTHohaA9cm36
uTw8RTS4QOdR90bZhC+CN5TEbtLPTLG6MTCsgjMJqB1RhT49UAVRlg9xRfSPo8yB
x73RSoPeM5m6zR7G7ZFuO8RslGuxWvFlveVZ/egA6AM/E/rilX0pR25nJn4GTqC2
yLqpzIhOTxv9JbPtKpdc8K19H83x+eDrUjHyX75c+rfRV4o20Xb4JgOZVYdUISZP
cHeG6I+XR02eJ+lMbaVa2UYz8nhkTcrjFUs6wYeTGehaVnPFfrU3UVpSTuAZuDd2
LWaXpmEvhFBKFzGDlsPGyN3qFjap9bSX7E9LGK0TEOWVhGLO7ZorwjziH5/WF6ZI
W+FyDSNXD3iO67lao7lfWcIxmhd6sGMm+4cLOebnVwPRFA4WzEno6G1X16ki4lWX
vsBnKMveXM77geWz5xckecAQaz2xBidPm4vIrrUGQnAPUgNrZKBTBc7YXs3TCe4o
iYq/kKS1u+kgknK9iayt0SxXaEYzkdp9bPf/Igu/j+ByQnRRxQ9hFIEPq1pj71kJ
OjFhgAK1HlpT8RxXpaD/XndCGeL1/Qve4M6U6G76+3eYqcXUZ8f7lC7k+TOb4l7o
z7UbaytAfUK1mfA778z0JMpL3TevOxT+p+vLFxZln5Jg
-----END CERTIFICATE-----
