Certificate:
    Data:
        Version: 3 (0x2)
        Serial Number: 9842 (0x2672)
    Signature Algorithm: sha256WithRSAEncryption
        Issuer: C=US, ST=OH, L=Columbus, O=VikingVPN, OU=MyOrganizationalUnit, CN=VikingVPN CA/name=EasyRSA/emailAddress=me@myhost.mydomain
        Validity
            Not Before: Jan  9 06:07:32 2017 GMT
            Not After : Jan  7 06:07:32 2027 GMT
        Subject: CN=Client2617Certe878b6
        Subject Public Key Info:
            Public Key Algorithm: rsaEncryption
                Public-Key: (4096 bit)
                Modulus:
                    00:ee:15:6c:4d:90:b5:95:db:53:1b:a5:1f:43:5f:
                    20:64:03:59:e4:01:e0:d4:a3:3f:42:d7:31:0d:01:
                    99:4e:af:ef:7d:71:2f:22:45:69:26:d0:28:da:94:
                    52:3d:3f:9d:24:53:f2:93:d5:0a:b6:11:7e:82:ce:
                    e2:33:0c:0a:6a:68:b6:63:61:a0:b5:48:7c:18:87:
                    29:08:02:70:df:d9:0b:46:c6:63:81:6f:ca:f2:28:
                    c1:82:ab:22:19:3f:2f:c8:d3:49:73:56:24:ce:bc:
                    98:e4:a6:61:0c:5d:5c:36:57:5e:21:d3:48:79:1f:
                    03:10:96:d1:23:12:b0:80:9f:75:55:19:d9:75:3b:
                    82:84:b3:fa:0d:e7:33:ed:3f:e2:da:e9:e4:7f:9d:
                    85:85:c1:71:c3:9f:6a:d2:3e:05:f5:ec:2a:bd:e1:
                    12:6c:8b:7e:3e:3d:f4:7f:be:bd:44:98:f1:2e:ab:
                    c8:05:29:96:93:9c:d5:08:96:a6:89:d3:81:a8:a3:
                    47:02:20:f4:3c:00:b1:43:0a:69:7b:6a:dd:2f:21:
                    09:32:00:3d:fa:64:a5:2e:ec:36:ce:c1:fc:9e:2a:
                    56:cd:53:a4:16:27:2d:88:88:fa:61:4f:46:62:c3:
                    2b:26:6b:b7:9b:10:e7:d6:12:40:3f:47:a6:4b:a5:
                    1e:13:44:a3:fc:70:de:e0:94:29:df:73:24:ac:c2:
                    7c:19:46:8a:d8:96:3a:de:73:77:5e:37:77:80:99:
                    08:98:1f:a8:01:df:dc:2d:d8:a5:9e:af:7e:e5:e4:
                    12:42:66:39:ca:0c:c2:9f:10:c6:fe:47:68:c8:cb:
                    57:9e:54:52:9b:b1:6b:ff:4e:f7:05:e5:e4:51:fb:
                    c4:45:72:6c:f7:23:eb:b4:12:ae:3b:a9:e1:21:12:
                    2e:74:4b:32:2c:46:5e:51:a5:79:2a:12:da:38:a7:
                    52:26:09:5c:57:3c:68:f3:d7:5b:99:75:39:23:3b:
                    df:31:36:96:3b:ea:72:f6:77:a6:bf:93:44:e6:39:
                    c3:08:96:e3:c8:9c:73:e4:70:04:81:c8:72:4c:39:
                    14:08:b5:91:14:10:a1:e4:6e:75:1d:bb:5b:05:3b:
                    68:40:a7:c2:e7:94:d7:55:a9:88:37:31:d5:d0:4e:
                    18:b6:a2:a7:03:90:e5:d7:f2:6b:51:2c:35:d6:e1:
                    89:50:e9:07:23:c2:c8:c6:cf:c4:a3:5a:96:79:0d:
                    29:8c:73:06:66:60:da:44:86:11:86:3b:69:34:ab:
                    ae:6d:ad:12:fe:b8:a4:a4:f4:00:47:ed:a4:ae:d3:
                    c3:64:eb:6f:25:84:2d:a2:3e:ad:6b:89:b7:45:6e:
                    ec:f9:7d
                Exponent: 65537 (0x10001)
        X509v3 extensions:
            X509v3 Basic Constraints: 
                CA:FALSE
            Netscape Comment: 
                Easy-RSA Generated Certificate
            X509v3 Subject Key Identifier: 
                F2:BA:E4:30:B3:C9:7D:C8:B0:B6:14:2B:D8:E4:45:1F:D6:29:E3:F7
            X509v3 Authority Key Identifier: 
                keyid:12:CD:60:04:D2:A0:80:9E:70:ED:C6:99:B8:7B:2C:C6:52:FD:19:A1
                DirName:/C=US/ST=OH/L=Columbus/O=VikingVPN/OU=MyOrganizationalUnit/CN=VikingVPN CA/name=EasyRSA/emailAddress=me@myhost.mydomain
                serial:CF:35:85:EE:80:BF:2A:3E

            X509v3 Extended Key Usage: 
                TLS Web Client Authentication
            X509v3 Key Usage: 
                Digital Signature
    Signature Algorithm: sha256WithRSAEncryption
         18:59:1f:b7:0c:f2:f3:ed:2b:d4:90:fb:5f:ab:c4:0b:c8:b9:
         8b:21:fe:a5:69:d0:d1:e3:54:cc:43:a8:d8:69:b1:d5:e4:f5:
         0a:f0:51:39:3d:ac:f5:ab:46:e2:f8:42:0a:28:0b:22:18:7d:
         ac:33:74:a3:a0:25:8f:34:cf:30:c3:4f:8c:6f:1e:1f:d5:e9:
         a4:9a:2a:8a:72:0b:e6:3f:33:d0:03:6f:61:f2:25:73:67:93:
         15:bd:e6:90:7a:2f:0e:4a:12:f7:ea:ce:5c:a3:f5:6e:99:35:
         dd:e4:92:04:eb:29:46:ff:8c:fe:fc:ad:fe:51:42:9e:18:fb:
         cf:8f:82:df:7a:b8:ce:d2:94:9c:17:d3:c1:83:fb:60:d2:82:
         36:10:c5:d1:3a:e3:13:fd:32:fd:d9:74:54:9d:36:a3:70:db:
         c4:99:85:97:dd:ec:ce:4f:00:04:24:c3:84:be:61:4e:b1:a0:
         63:9b:67:2f:06:1b:05:f5:d1:59:ad:07:90:1c:1c:21:20:9e:
         07:d0:20:50:3b:f0:f1:51:e5:21:c0:37:23:31:dc:42:12:8f:
         67:8e:19:9a:32:44:d7:60:50:09:29:c7:34:58:1e:11:93:8b:
         09:bb:2f:38:c9:93:63:e0:22:14:f0:e7:14:c0:5d:a5:02:e9:
         4a:0e:d8:2c:e0:54:0c:63:1a:9f:16:55:70:6e:91:87:11:be:
         1c:23:dc:75:87:8b:e6:1e:ef:40:82:27:64:d3:f3:3e:10:1c:
         65:e0:fa:df:9e:6d:84:3a:c2:5b:2a:9f:e1:e3:c2:3f:8f:9e:
         71:6d:c5:5d:34:cc:c9:dc:21:9e:5d:4d:f7:59:62:6c:56:a3:
         ce:a3:d5:54:12:9b:13:6d:01:69:c3:80:c3:0f:6d:9b:63:67:
         ed:e0:74:97:ca:e0:7d:7b:6c:dd:d4:28:7c:02:d4:f3:d7:b6:
         79:74:92:d5:aa:87:13:14:86:97:5f:6b:da:0d:2e:79:82:f0:
         11:ff:39:15:0a:61:1c:33:1b:1d:16:d0:29:24:c6:1f:ed:6f:
         49:b2:88:9a:3e:5e:4e:e4:da:12:df:d2:99:ef:4a:46:96:1b:
         c6:97:ad:04:1a:95:5b:eb:2d:af:44:6e:68:0f:42:f5:81:52:
         ed:5f:db:a7:c8:29:ea:9a:eb:0f:ba:28:66:a2:05:9a:4e:f3:
         df:a4:7e:8d:26:04:45:af:b2:98:01:3f:ef:c0:0e:d1:80:65:
         9f:7f:1a:bd:32:08:21:5c:d1:c1:7a:c9:10:71:72:c5:33:ad:
         64:b5:83:f9:07:b5:6f:e5:bc:09:f7:47:db:d3:1a:e4:ff:8a:
         d0:e2:d1:dc:ce:88:3d:91
-----BEGIN CERTIFICATE-----
MIIGrTCCBJWgAwIBAgICJnIwDQYJKoZIhvcNAQELBQAwgawxCzAJBgNVBAYTAlVT
MQswCQYDVQQIEwJPSDERMA8GA1UEBxMIQ29sdW1idXMxEjAQBgNVBAoTCVZpa2lu
Z1ZQTjEdMBsGA1UECxMUTXlPcmdhbml6YXRpb25hbFVuaXQxFTATBgNVBAMTDFZp
a2luZ1ZQTiBDQTEQMA4GA1UEKRMHRWFzeVJTQTEhMB8GCSqGSIb3DQEJARYSbWVA
bXlob3N0Lm15ZG9tYWluMB4XDTE3MDEwOTA2MDczMloXDTI3MDEwNzA2MDczMlow
HzEdMBsGA1UEAxMUQ2xpZW50MjYxN0NlcnRlODc4YjYwggIiMA0GCSqGSIb3DQEB
AQUAA4ICDwAwggIKAoICAQDuFWxNkLWV21MbpR9DXyBkA1nkAeDUoz9C1zENAZlO
r+99cS8iRWkm0CjalFI9P50kU/KT1Qq2EX6CzuIzDApqaLZjYaC1SHwYhykIAnDf
2QtGxmOBb8ryKMGCqyIZPy/I00lzViTOvJjkpmEMXVw2V14h00h5HwMQltEjErCA
n3VVGdl1O4KEs/oN5zPtP+La6eR/nYWFwXHDn2rSPgX17Cq94RJsi34+PfR/vr1E
mPEuq8gFKZaTnNUIlqaJ04Goo0cCIPQ8ALFDCml7at0vIQkyAD36ZKUu7DbOwfye
KlbNU6QWJy2IiPphT0Ziwysma7ebEOfWEkA/R6ZLpR4TRKP8cN7glCnfcySswnwZ
RorYljrec3deN3eAmQiYH6gB39wt2KWer37l5BJCZjnKDMKfEMb+R2jIy1eeVFKb
sWv/TvcF5eRR+8RFcmz3I+u0Eq47qeEhEi50SzIsRl5RpXkqEto4p1ImCVxXPGjz
11uZdTkjO98xNpY76nL2d6a/k0TmOcMIluPInHPkcASByHJMORQItZEUEKHkbnUd
u1sFO2hAp8LnlNdVqYg3MdXQThi2oqcDkOXX8mtRLDXW4YlQ6QcjwsjGz8SjWpZ5
DSmMcwZmYNpEhhGGO2k0q65trRL+uKSk9ABH7aSu08Nk628lhC2iPq1ribdFbuz5
fQIDAQABo4IBYzCCAV8wCQYDVR0TBAIwADAtBglghkgBhvhCAQ0EIBYeRWFzeS1S
U0EgR2VuZXJhdGVkIENlcnRpZmljYXRlMB0GA1UdDgQWBBTyuuQws8l9yLC2FCvY
5EUf1inj9zCB4QYDVR0jBIHZMIHWgBQSzWAE0qCAnnDtxpm4eyzGUv0ZoaGBsqSB
rzCBrDELMAkGA1UEBhMCVVMxCzAJBgNVBAgTAk9IMREwDwYDVQQHEwhDb2x1bWJ1
czESMBAGA1UEChMJVmlraW5nVlBOMR0wGwYDVQQLExRNeU9yZ2FuaXphdGlvbmFs
VW5pdDEVMBMGA1UEAxMMVmlraW5nVlBOIENBMRAwDgYDVQQpEwdFYXN5UlNBMSEw
HwYJKoZIhvcNAQkBFhJtZUBteWhvc3QubXlkb21haW6CCQDPNYXugL8qPjATBgNV
HSUEDDAKBggrBgEFBQcDAjALBgNVHQ8EBAMCB4AwDQYJKoZIhvcNAQELBQADggIB
ABhZH7cM8vPtK9SQ+1+rxAvIuYsh/qVp0NHjVMxDqNhpsdXk9QrwUTk9rPWrRuL4
QgooCyIYfawzdKOgJY80zzDDT4xvHh/V6aSaKopyC+Y/M9ADb2HyJXNnkxW95pB6
Lw5KEvfqzlyj9W6ZNd3kkgTrKUb/jP78rf5RQp4Y+8+Pgt96uM7SlJwX08GD+2DS
gjYQxdE64xP9Mv3ZdFSdNqNw28SZhZfd7M5PAAQkw4S+YU6xoGObZy8GGwX10Vmt
B5AcHCEgngfQIFA78PFR5SHANyMx3EISj2eOGZoyRNdgUAkpxzRYHhGTiwm7LzjJ
k2PgIhTw5xTAXaUC6UoO2CzgVAxjGp8WVXBukYcRvhwj3HWHi+Ye70CCJ2TT8z4Q
HGXg+t+ebYQ6wlsqn+Hjwj+PnnFtxV00zMncIZ5dTfdZYmxWo86j1VQSmxNtAWnD
gMMPbZtjZ+3gdJfK4H17bN3UKHwC1PPXtnl0ktWqhxMUhpdfa9oNLnmC8BH/ORUK
YRwzGx0W0Ckkxh/tb0myiJo+Xk7k2hLf0pnvSkaWG8aXrQQalVvrLa9EbmgPQvWB
Uu1f26fIKeqa6w+6KGaiBZpO89+kfo0mBEWvspgBP+/ADtGAZZ9/Gr0yCCFc0cF6
yRBxcsUzrWS1g/kHtW/lvAn3R9vTGuT/itDi0dzOiD2R
-----END CERTIFICATE-----
