Certificate:
    Data:
        Version: 3 (0x2)
        Serial Number: 10722 (0x29e2)
    Signature Algorithm: sha256WithRSAEncryption
        Issuer: C=US, ST=OH, L=Columbus, O=VikingVPN, OU=MyOrganizationalUnit, CN=VikingVPN CA/name=EasyRSA/emailAddress=me@myhost.mydomain
        Validity
            Not Before: Apr 19 21:34:05 2017 GMT
            Not After : Apr 17 21:34:05 2027 GMT
        Subject: CN=Client2190Cert22994b
        Subject Public Key Info:
            Public Key Algorithm: rsaEncryption
                Public-Key: (4096 bit)
                Modulus:
                    00:a0:ac:75:7e:88:04:ca:ea:4b:f8:c6:96:16:ad:
                    c7:78:7a:a6:68:61:15:09:02:8a:53:66:ff:1c:bf:
                    3c:71:57:9e:d6:86:cc:7e:a0:e2:e6:a2:cc:e7:d4:
                    09:4e:2f:01:3d:ef:84:92:95:7c:38:48:a6:51:ed:
                    70:7a:4d:54:91:56:76:7b:c6:41:26:28:9d:c7:7d:
                    41:b7:a4:c3:d0:1d:59:08:c7:7d:7f:0e:29:bf:96:
                    57:77:5d:3f:22:84:00:8c:c4:14:6b:be:82:16:2e:
                    17:13:fa:7e:e5:6b:d4:00:0a:69:a6:02:8b:e3:03:
                    f4:ba:7d:00:1b:a7:a7:11:02:d3:93:57:2b:2c:87:
                    6f:94:11:62:66:f0:17:9f:ba:76:8c:82:3a:66:4a:
                    9b:fd:89:18:9c:9b:1c:39:78:38:e8:98:86:a6:a4:
                    e0:55:53:0a:c3:71:01:19:ce:54:b7:dc:9a:1b:0f:
                    11:98:b8:00:7e:9d:67:65:33:f6:0b:be:7e:b9:0f:
                    46:b1:40:27:2f:92:b6:ef:60:e6:99:10:2b:e0:73:
                    ab:b4:e5:9c:b3:5e:fc:4c:11:11:81:55:c9:b3:7c:
                    46:cb:25:8c:8a:54:27:06:8d:8c:a9:77:41:03:c5:
                    f2:f4:02:72:9c:78:77:31:24:9b:e1:78:49:12:24:
                    67:a9:37:28:9d:cd:4b:bb:9b:cd:6c:50:26:71:3e:
                    77:99:83:74:99:7a:3f:a4:2b:f8:e7:cb:16:91:a1:
                    5b:4e:c4:e7:81:d8:b7:78:dd:cd:d3:84:c5:ff:25:
                    8e:36:84:46:88:05:bf:80:a0:29:52:08:5e:58:b2:
                    cf:b8:93:f9:9a:3a:28:00:ed:c6:48:88:3a:e3:f7:
                    30:36:03:b5:c6:2e:99:14:48:6a:00:47:c7:5a:f1:
                    a7:3b:87:85:ce:79:a3:11:d9:b3:85:1c:f2:1c:a2:
                    ea:ff:83:6a:48:87:65:d2:10:ed:51:18:4a:c8:72:
                    85:c3:71:b0:61:4c:1a:de:c2:aa:74:1f:c2:0a:7a:
                    16:cb:cd:c1:27:57:9a:af:99:99:79:dd:0e:13:3f:
                    48:b4:59:52:43:74:cd:3e:17:68:a7:e4:55:63:7e:
                    d2:fc:f7:41:46:de:2b:ff:59:f8:27:46:68:bd:d8:
                    49:e1:44:c5:1e:ff:5d:5e:1a:ed:37:f8:e2:48:42:
                    d4:9d:58:25:0d:10:e3:e6:ca:65:4b:7a:54:93:3a:
                    06:ad:6b:13:3c:0d:28:07:6f:ab:ea:fd:b0:a3:93:
                    46:50:6a:19:b6:e8:03:a8:27:bf:fb:95:09:ac:14:
                    89:be:2a:40:71:c4:33:ff:cd:a2:f6:16:34:8f:5f:
                    f8:4c:8d
                Exponent: 65537 (0x10001)
        X509v3 extensions:
            X509v3 Basic Constraints: 
                CA:FALSE
            Netscape Comment: 
                Easy-RSA Generated Certificate
            X509v3 Subject Key Identifier: 
                09:56:FB:72:AE:D2:3D:A5:FD:7B:53:13:86:FE:20:CB:A3:57:5F:4D
            X509v3 Authority Key Identifier: 
                keyid:12:CD:60:04:D2:A0:80:9E:70:ED:C6:99:B8:7B:2C:C6:52:FD:19:A1
                DirName:/C=US/ST=OH/L=Columbus/O=VikingVPN/OU=MyOrganizationalUnit/CN=VikingVPN CA/name=EasyRSA/emailAddress=me@myhost.mydomain
                serial:CF:35:85:EE:80:BF:2A:3E

            X509v3 Extended Key Usage: 
                TLS Web Client Authentication
            X509v3 Key Usage: 
                Digital Signature
    Signature Algorithm: sha256WithRSAEncryption
         5d:18:ca:c7:17:0f:35:0e:bc:51:66:1e:01:04:ca:73:51:d2:
         b4:0a:f5:d8:04:48:76:7a:c0:8a:dd:77:65:8c:7e:df:cd:3b:
         9c:52:c9:71:a4:90:9f:cd:8d:c8:d9:94:25:33:1d:65:bb:52:
         a1:76:fc:3b:42:bd:19:b3:67:5a:4e:31:4f:9f:50:33:7d:f4:
         4c:bd:15:6d:34:49:5f:03:a2:e4:89:c0:a9:24:a5:9c:15:d2:
         58:9c:88:b3:9c:66:6c:85:67:86:29:54:ea:ba:af:28:99:e3:
         9e:3a:43:d6:b3:dd:84:b2:17:db:9a:38:03:c1:1a:88:9d:9b:
         7a:02:01:09:4d:32:37:06:96:5f:f8:2e:8f:e4:49:98:6d:91:
         de:fc:05:b6:02:a3:8a:0c:31:04:9b:93:68:4b:fc:e7:2d:9b:
         2c:a1:a0:dd:e8:24:29:17:56:ac:5d:e7:98:58:74:54:ee:5d:
         8b:63:28:c8:3e:f3:83:48:91:95:6b:c2:6a:3a:95:10:53:f5:
         50:e6:9d:c8:e4:7f:e1:49:2f:56:5f:bd:87:9b:65:d7:74:81:
         bf:ef:77:56:24:2f:5a:77:c6:2e:56:02:b8:d8:25:d1:fd:5e:
         bf:6f:e7:e9:f6:bc:55:4c:cb:f0:0a:20:c2:3b:34:9b:98:2d:
         e7:6c:e2:2a:d1:c6:af:0f:44:dd:6a:b0:99:0a:f3:18:95:d3:
         62:dc:97:13:b8:07:ac:95:c2:5e:d6:1c:e4:da:b5:78:05:6c:
         03:6a:7b:fd:61:b5:0b:75:e6:16:71:10:a1:05:27:6c:03:d2:
         70:84:cb:bb:d4:d5:79:52:ef:47:91:a3:35:e4:22:13:ce:49:
         36:e5:df:05:39:7d:14:5e:1f:f9:bb:ae:c2:fd:e7:ac:35:0d:
         13:f6:bb:9a:8f:88:1c:f2:81:66:7f:73:15:7f:13:04:20:17:
         28:a3:cd:35:03:04:b3:5a:0e:e7:18:9c:92:31:d4:95:57:c2:
         d1:3f:a1:44:c7:68:13:4c:da:46:20:9e:69:7c:05:a3:83:64:
         83:46:e9:8c:bb:57:d9:d8:bc:c3:74:cc:b5:2e:03:67:4f:6b:
         32:7b:61:8f:27:cb:e2:70:f2:62:c4:14:9a:26:83:c2:fe:fa:
         64:73:db:7d:f8:bc:8d:02:b6:82:d2:a3:18:36:9f:58:12:f3:
         c1:bf:97:c5:e0:cd:c0:c0:61:c6:69:39:1c:f6:7e:92:89:44:
         22:08:9d:e3:79:4c:78:71:02:c8:1a:8b:6a:80:af:be:31:db:
         0f:d2:51:a4:5d:77:63:7f:64:21:32:fe:eb:ee:ed:e6:96:4e:
         0d:f4:14:58:7c:25:0b:29
-----BEGIN CERTIFICATE-----
MIIGrTCCBJWgAwIBAgICKeIwDQYJKoZIhvcNAQELBQAwgawxCzAJBgNVBAYTAlVT
MQswCQYDVQQIEwJPSDERMA8GA1UEBxMIQ29sdW1idXMxEjAQBgNVBAoTCVZpa2lu
Z1ZQTjEdMBsGA1UECxMUTXlPcmdhbml6YXRpb25hbFVuaXQxFTATBgNVBAMTDFZp
a2luZ1ZQTiBDQTEQMA4GA1UEKRMHRWFzeVJTQTEhMB8GCSqGSIb3DQEJARYSbWVA
bXlob3N0Lm15ZG9tYWluMB4XDTE3MDQxOTIxMzQwNVoXDTI3MDQxNzIxMzQwNVow
HzEdMBsGA1UEAxMUQ2xpZW50MjE5MENlcnQyMjk5NGIwggIiMA0GCSqGSIb3DQEB
AQUAA4ICDwAwggIKAoICAQCgrHV+iATK6kv4xpYWrcd4eqZoYRUJAopTZv8cvzxx
V57Whsx+oOLmoszn1AlOLwE974SSlXw4SKZR7XB6TVSRVnZ7xkEmKJ3HfUG3pMPQ
HVkIx31/Dim/lld3XT8ihACMxBRrvoIWLhcT+n7la9QACmmmAovjA/S6fQAbp6cR
AtOTVyssh2+UEWJm8BefunaMgjpmSpv9iRicmxw5eDjomIampOBVUwrDcQEZzlS3
3JobDxGYuAB+nWdlM/YLvn65D0axQCcvkrbvYOaZECvgc6u05ZyzXvxMERGBVcmz
fEbLJYyKVCcGjYypd0EDxfL0AnKceHcxJJvheEkSJGepNyidzUu7m81sUCZxPneZ
g3SZej+kK/jnyxaRoVtOxOeB2Ld43c3ThMX/JY42hEaIBb+AoClSCF5Yss+4k/ma
OigA7cZIiDrj9zA2A7XGLpkUSGoAR8da8ac7h4XOeaMR2bOFHPIcour/g2pIh2XS
EO1RGErIcoXDcbBhTBrewqp0H8IKehbLzcEnV5qvmZl53Q4TP0i0WVJDdM0+F2in
5FVjftL890FG3iv/WfgnRmi92EnhRMUe/11eGu03+OJIQtSdWCUNEOPmymVLelST
OgataxM8DSgHb6vq/bCjk0ZQahm26AOoJ7/7lQmsFIm+KkBxxDP/zaL2FjSPX/hM
jQIDAQABo4IBYzCCAV8wCQYDVR0TBAIwADAtBglghkgBhvhCAQ0EIBYeRWFzeS1S
U0EgR2VuZXJhdGVkIENlcnRpZmljYXRlMB0GA1UdDgQWBBQJVvtyrtI9pf17UxOG
/iDLo1dfTTCB4QYDVR0jBIHZMIHWgBQSzWAE0qCAnnDtxpm4eyzGUv0ZoaGBsqSB
rzCBrDELMAkGA1UEBhMCVVMxCzAJBgNVBAgTAk9IMREwDwYDVQQHEwhDb2x1bWJ1
czESMBAGA1UEChMJVmlraW5nVlBOMR0wGwYDVQQLExRNeU9yZ2FuaXphdGlvbmFs
VW5pdDEVMBMGA1UEAxMMVmlraW5nVlBOIENBMRAwDgYDVQQpEwdFYXN5UlNBMSEw
HwYJKoZIhvcNAQkBFhJtZUBteWhvc3QubXlkb21haW6CCQDPNYXugL8qPjATBgNV
HSUEDDAKBggrBgEFBQcDAjALBgNVHQ8EBAMCB4AwDQYJKoZIhvcNAQELBQADggIB
AF0YyscXDzUOvFFmHgEEynNR0rQK9dgESHZ6wIrdd2WMft/NO5xSyXGkkJ/NjcjZ
lCUzHWW7UqF2/DtCvRmzZ1pOMU+fUDN99Ey9FW00SV8DouSJwKkkpZwV0liciLOc
ZmyFZ4YpVOq6ryiZ4546Q9az3YSyF9uaOAPBGoidm3oCAQlNMjcGll/4Lo/kSZht
kd78BbYCo4oMMQSbk2hL/OctmyyhoN3oJCkXVqxd55hYdFTuXYtjKMg+84NIkZVr
wmo6lRBT9VDmncjkf+FJL1ZfvYebZdd0gb/vd1YkL1p3xi5WArjYJdH9Xr9v5+n2
vFVMy/AKIMI7NJuYLeds4irRxq8PRN1qsJkK8xiV02LclxO4B6yVwl7WHOTatXgF
bANqe/1htQt15hZxEKEFJ2wD0nCEy7vU1XlS70eRozXkIhPOSTbl3wU5fRReH/m7
rsL956w1DRP2u5qPiBzygWZ/cxV/EwQgFyijzTUDBLNaDucYnJIx1JVXwtE/oUTH
aBNM2kYgnml8BaODZING6Yy7V9nYvMN0zLUuA2dPazJ7YY8ny+Jw8mLEFJomg8L+
+mRz2334vI0CtoLSoxg2n1gS88G/l8XgzcDAYcZpORz2fpKJRCIIneN5THhxAsga
i2qAr74x2w/SUaRdd2N/ZCEy/uvu7eaWTg30FFh8JQsp
-----END CERTIFICATE-----
