Certificate:
    Data:
        Version: 3 (0x2)
        Serial Number: 422 (0x1a6)
    Signature Algorithm: md5WithRSAEncryption
        Issuer: C=US, ST=OH, L=Columbus, O=VikingVPN, OU=MyOrganizationalUnit, CN=VikingVPN CA/name=EasyRSA/emailAddress=me@myhost.mydomain
        Validity
            Not Before: Nov 17 03:06:48 2013 GMT
            Not After : Nov 15 03:06:48 2023 GMT
        Subject: CN=Client186Certe1da6e
        Subject Public Key Info:
            Public Key Algorithm: rsaEncryption
                Public-Key: (4096 bit)
                Modulus:
                    00:9c:e0:ff:d7:de:19:c9:6b:14:08:98:9b:db:60:
                    fb:fa:23:3a:d9:89:b7:f7:ba:f2:bf:fd:ba:1f:52:
                    08:1e:92:9d:73:29:75:e0:44:0f:50:8c:b5:67:7b:
                    58:57:a4:d8:e7:7d:47:ec:5f:9b:98:6d:ad:7f:91:
                    aa:c8:9a:f7:f5:07:6b:12:f6:53:60:0c:a6:1b:6a:
                    cf:5e:2c:3e:86:ae:20:d3:a5:d7:73:ae:95:dc:bd:
                    37:cd:2d:b9:c1:c4:d4:6f:c1:83:5b:43:fd:04:ee:
                    b3:df:5f:a0:58:77:e0:c2:8d:39:a8:09:be:f2:c3:
                    d2:e1:79:e9:0e:b6:85:f7:a3:30:3a:21:c7:a6:20:
                    c5:7d:2f:22:50:69:f3:78:59:b5:0a:fe:ab:b4:e5:
                    eb:11:33:6e:82:2b:84:af:3a:22:31:0d:49:db:25:
                    dd:92:e3:b0:3e:58:ab:34:c5:cf:00:b1:be:53:85:
                    82:ef:e5:50:dc:b6:e0:cb:3a:fb:f1:13:a6:a3:50:
                    a3:27:59:f4:b6:b0:c0:de:4f:12:53:f1:f7:07:24:
                    9d:67:43:a3:f3:fe:9d:41:cd:9d:b1:8a:3d:d5:11:
                    00:bf:bc:0c:34:90:00:ef:79:19:a1:bb:09:49:85:
                    ac:74:ee:54:c2:0d:04:4c:91:1d:81:0d:a0:ac:d3:
                    41:90:70:51:75:66:2e:c7:77:f8:2d:6f:16:f0:c3:
                    bb:cc:03:4a:9a:2d:aa:19:70:b9:7a:c6:91:15:f1:
                    1c:90:7b:c6:9d:98:9c:b9:4e:34:9d:19:8b:83:23:
                    0a:31:67:e0:bf:ac:57:25:45:2d:ea:9a:5e:59:ea:
                    88:64:27:74:b6:cd:94:87:62:65:a1:a9:3e:a0:61:
                    7d:4e:24:a1:90:24:2a:57:c4:3a:b5:b2:95:a7:da:
                    69:74:68:91:2d:33:76:53:88:69:83:f2:48:78:d3:
                    8c:5b:e1:5a:a4:36:70:46:0d:bd:55:4c:9d:fc:2d:
                    75:3a:e2:6b:66:f2:6e:ba:dc:9e:12:2e:f9:82:0b:
                    be:72:5e:a8:4f:37:15:e2:95:b9:bb:d9:ef:32:56:
                    50:f1:22:fe:c9:61:3d:da:d9:25:6f:2f:33:fd:bb:
                    84:7f:23:d1:62:df:67:70:92:17:4d:51:80:b0:bc:
                    0c:62:58:a1:21:10:cb:3f:a9:b5:b6:8f:41:d1:91:
                    2d:09:58:d6:4a:1b:6b:c8:02:5c:c2:71:23:a1:74:
                    90:f0:38:7f:fd:ef:8a:1c:89:e2:97:4f:53:63:e9:
                    78:f5:b7:c3:9e:2e:ea:22:a5:bc:9a:74:6e:4a:43:
                    e0:1a:3a:5b:fe:70:49:1d:7c:cf:20:44:70:dc:6a:
                    28:f6:3d
                Exponent: 65537 (0x10001)
        X509v3 extensions:
            X509v3 Basic Constraints: 
                CA:FALSE
            Netscape Comment: 
                Easy-RSA Generated Certificate
            X509v3 Subject Key Identifier: 
                E8:4C:05:DA:EE:6C:FC:E6:F2:00:FA:16:F2:2E:F3:29:70:3A:C7:22
            X509v3 Authority Key Identifier: 
                keyid:12:CD:60:04:D2:A0:80:9E:70:ED:C6:99:B8:7B:2C:C6:52:FD:19:A1
                DirName:/C=US/ST=OH/L=Columbus/O=VikingVPN/OU=MyOrganizationalUnit/CN=VikingVPN CA/name=EasyRSA/emailAddress=me@myhost.mydomain
                serial:CF:35:85:EE:80:BF:2A:3E

            X509v3 Extended Key Usage: 
                TLS Web Client Authentication
            X509v3 Key Usage: 
                Digital Signature
    Signature Algorithm: md5WithRSAEncryption
         14:96:0e:21:d4:19:0d:6a:fc:34:2b:77:e2:39:6e:53:1b:26:
         d3:0b:d9:d4:3a:f2:5b:b7:59:c2:86:d2:db:63:79:1c:94:7d:
         9f:cd:66:7b:11:1a:ea:1f:a5:81:e6:80:a9:9c:fd:83:c5:7e:
         5b:a5:2d:63:d3:99:81:1d:fc:fd:80:cf:b0:6a:bc:c5:eb:5e:
         8d:73:c4:b8:d7:ee:2b:ef:ab:ae:0a:5b:3f:f1:3b:ef:ad:74:
         af:5c:94:93:e2:a6:da:a3:11:04:66:d0:22:57:61:68:0c:b9:
         f9:d0:df:d9:41:49:c4:81:33:68:dc:70:69:1b:3b:26:d4:cc:
         53:2f:bd:2a:91:c4:6d:ac:21:bc:f4:b2:b5:58:41:40:d9:9b:
         50:48:04:48:df:57:1f:46:15:c5:98:cd:e5:73:c6:48:57:ad:
         7f:9e:41:90:db:42:01:fc:bd:a0:87:6d:92:39:61:d8:a5:dc:
         ab:f7:36:8f:b2:da:1d:5b:85:4d:96:84:f9:03:18:7b:a9:c9:
         11:4f:a8:0a:d4:d9:a7:1d:cd:a8:8a:90:68:c6:d3:49:87:cd:
         1c:40:fa:d3:b2:13:11:8f:bb:c3:fa:ad:f8:db:a0:ec:f5:cf:
         25:c0:0f:ab:4c:17:fc:7f:b9:07:10:60:c7:0b:71:22:e8:83:
         57:be:c1:19:92:cb:53:0b:98:6c:8d:8a:22:e1:67:d2:21:d3:
         56:26:0e:e1:61:f7:17:a8:c2:e1:c4:96:68:89:81:d9:74:16:
         d9:ce:ac:45:a9:05:89:3e:07:5b:d1:40:d7:32:ec:39:e4:44:
         98:85:ab:b5:01:93:e9:d1:56:cc:a4:7a:a0:5c:33:8d:49:ff:
         6d:02:14:e4:97:41:c3:74:b8:4b:1e:07:bf:d2:9a:0d:86:ef:
         5d:29:73:ae:0a:af:82:25:65:ee:7f:e4:15:11:54:85:69:cb:
         07:44:ad:75:fe:91:e6:bf:6c:3e:f6:45:25:fe:ff:92:d7:9c:
         d0:f7:0d:f2:27:c4:2e:0b:3b:f5:17:78:30:92:97:76:2b:23:
         f1:fb:f2:c9:a6:ab:09:1d:f4:1b:f6:41:3e:33:d8:db:d1:3a:
         5e:0d:1b:87:d7:48:70:cf:ae:11:ca:12:f6:87:5a:53:97:d4:
         94:c6:a2:ce:34:f8:a3:e4:96:41:8a:80:8c:d6:bc:03:c8:88:
         a9:ff:d0:84:f1:e0:29:c6:27:61:d3:c8:9e:c7:80:c5:29:8c:
         52:cb:da:5b:ed:60:f7:e6:51:56:68:e5:90:02:aa:a9:21:36:
         2c:ee:2e:75:4d:49:f8:94:07:5d:54:8c:59:0e:9d:0e:b1:27:
         2b:4b:6d:08:ed:d4:40:5e
-----BEGIN CERTIFICATE-----
MIIGrDCCBJSgAwIBAgICAaYwDQYJKoZIhvcNAQEEBQAwgawxCzAJBgNVBAYTAlVT
MQswCQYDVQQIEwJPSDERMA8GA1UEBxMIQ29sdW1idXMxEjAQBgNVBAoTCVZpa2lu
Z1ZQTjEdMBsGA1UECxMUTXlPcmdhbml6YXRpb25hbFVuaXQxFTATBgNVBAMTDFZp
a2luZ1ZQTiBDQTEQMA4GA1UEKRMHRWFzeVJTQTEhMB8GCSqGSIb3DQEJARYSbWVA
bXlob3N0Lm15ZG9tYWluMB4XDTEzMTExNzAzMDY0OFoXDTIzMTExNTAzMDY0OFow
HjEcMBoGA1UEAxMTQ2xpZW50MTg2Q2VydGUxZGE2ZTCCAiIwDQYJKoZIhvcNAQEB
BQADggIPADCCAgoCggIBAJzg/9feGclrFAiYm9tg+/ojOtmJt/e68r/9uh9SCB6S
nXMpdeBED1CMtWd7WFek2Od9R+xfm5htrX+Rqsia9/UHaxL2U2AMphtqz14sPoau
INOl13Ouldy9N80tucHE1G/Bg1tD/QTus99foFh34MKNOagJvvLD0uF56Q62hfej
MDohx6YgxX0vIlBp83hZtQr+q7Tl6xEzboIrhK86IjENSdsl3ZLjsD5YqzTFzwCx
vlOFgu/lUNy24Ms6+/ETpqNQoydZ9LawwN5PElPx9wcknWdDo/P+nUHNnbGKPdUR
AL+8DDSQAO95GaG7CUmFrHTuVMINBEyRHYENoKzTQZBwUXVmLsd3+C1vFvDDu8wD
SpotqhlwuXrGkRXxHJB7xp2YnLlONJ0Zi4MjCjFn4L+sVyVFLeqaXlnqiGQndLbN
lIdiZaGpPqBhfU4koZAkKlfEOrWylafaaXRokS0zdlOIaYPySHjTjFvhWqQ2cEYN
vVVMnfwtdTria2bybrrcnhIu+YILvnJeqE83FeKVubvZ7zJWUPEi/slhPdrZJW8v
M/27hH8j0WLfZ3CSF01RgLC8DGJYoSEQyz+ptbaPQdGRLQlY1koba8gCXMJxI6F0
kPA4f/3vihyJ4pdPU2PpePW3w54u6iKlvJp0bkpD4Bo6W/5wSR18zyBEcNxqKPY9
AgMBAAGjggFjMIIBXzAJBgNVHRMEAjAAMC0GCWCGSAGG+EIBDQQgFh5FYXN5LVJT
QSBHZW5lcmF0ZWQgQ2VydGlmaWNhdGUwHQYDVR0OBBYEFOhMBdrubPzm8gD6FvIu
8ylwOsciMIHhBgNVHSMEgdkwgdaAFBLNYATSoICecO3Gmbh7LMZS/RmhoYGypIGv
MIGsMQswCQYDVQQGEwJVUzELMAkGA1UECBMCT0gxETAPBgNVBAcTCENvbHVtYnVz
MRIwEAYDVQQKEwlWaWtpbmdWUE4xHTAbBgNVBAsTFE15T3JnYW5pemF0aW9uYWxV
bml0MRUwEwYDVQQDEwxWaWtpbmdWUE4gQ0ExEDAOBgNVBCkTB0Vhc3lSU0ExITAf
BgkqhkiG9w0BCQEWEm1lQG15aG9zdC5teWRvbWFpboIJAM81he6Avyo+MBMGA1Ud
JQQMMAoGCCsGAQUFBwMCMAsGA1UdDwQEAwIHgDANBgkqhkiG9w0BAQQFAAOCAgEA
FJYOIdQZDWr8NCt34jluUxsm0wvZ1DryW7dZwobS22N5HJR9n81mexEa6h+lgeaA
qZz9g8V+W6UtY9OZgR38/YDPsGq8xetejXPEuNfuK++rrgpbP/E77610r1yUk+Km
2qMRBGbQIldhaAy5+dDf2UFJxIEzaNxwaRs7JtTMUy+9KpHEbawhvPSytVhBQNmb
UEgESN9XH0YVxZjN5XPGSFetf55BkNtCAfy9oIdtkjlh2KXcq/c2j7LaHVuFTZaE
+QMYe6nJEU+oCtTZpx3NqIqQaMbTSYfNHED607ITEY+7w/qt+Nug7PXPJcAPq0wX
/H+5BxBgxwtxIuiDV77BGZLLUwuYbI2KIuFn0iHTViYO4WH3F6jC4cSWaImB2XQW
2c6sRakFiT4HW9FA1zLsOeREmIWrtQGT6dFWzKR6oFwzjUn/bQIU5JdBw3S4Sx4H
v9KaDYbvXSlzrgqvgiVl7n/kFRFUhWnLB0Stdf6R5r9sPvZFJf7/ktec0PcN8ifE
Lgs79Rd4MJKXdisj8fvyyaarCR30G/ZBPjPY29E6Xg0bh9dIcM+uEcoS9odaU5fU
lMaizjT4o+SWQYqAjNa8A8iIqf/QhPHgKcYnYdPInseAxSmMUsvaW+1g9+ZRVmjl
kAKqqSE2LO4udU1J+JQHXVSMWQ6dDrEnK0ttCO3UQF4=
-----END CERTIFICATE-----
