Certificate:
    Data:
        Version: 3 (0x2)
        Serial Number: 1074 (0x432)
    Signature Algorithm: md5WithRSAEncryption
        Issuer: C=US, ST=OH, L=Columbus, O=VikingVPN, OU=MyOrganizationalUnit, CN=VikingVPN CA/name=EasyRSA/emailAddress=me@myhost.mydomain
        Validity
            Not Before: Feb 17 22:21:48 2014 GMT
            Not After : Feb 15 22:21:48 2024 GMT
        Subject: CN=Client392Cert3d95d8
        Subject Public Key Info:
            Public Key Algorithm: rsaEncryption
                Public-Key: (4096 bit)
                Modulus:
                    00:ab:11:f9:57:d8:42:11:a1:88:d3:3d:8e:7f:3b:
                    be:af:40:66:b1:d5:34:76:8b:46:c4:b4:13:4a:e7:
                    bb:89:21:89:00:b2:f9:f8:c7:7f:62:ca:42:b1:2c:
                    91:7d:2f:d2:06:a2:6a:0a:af:d0:d0:58:ab:69:d2:
                    a1:d4:76:49:0b:22:ec:ba:d3:1c:2b:bc:d9:5a:8f:
                    54:2a:0e:57:66:d7:04:7f:d5:48:ff:a7:7c:2c:2f:
                    89:20:db:d7:40:f4:50:cc:90:b6:dc:63:81:85:c5:
                    79:c8:6c:6f:b7:ab:c0:83:08:00:56:c3:db:a0:db:
                    90:58:59:de:1a:76:35:7b:a9:ad:84:f2:d6:15:e7:
                    af:e6:e0:ff:39:f1:95:38:84:17:46:af:81:b3:54:
                    fa:42:b1:bd:d9:d8:a8:6a:91:a4:9a:2f:93:a6:c1:
                    f1:14:5a:b2:c4:19:9b:03:b3:1b:29:00:a5:30:1b:
                    e2:f4:63:82:3f:29:d0:21:e4:bf:21:33:96:8a:53:
                    a3:af:b9:f4:2a:0a:00:ef:3a:f8:28:78:39:3d:5f:
                    c8:55:27:9f:fc:0b:5d:1f:0a:7c:b5:db:20:64:d2:
                    70:69:de:a5:a9:8a:17:ed:11:9b:2d:1f:43:32:b0:
                    93:77:86:a0:43:ef:26:4d:e6:70:c8:2b:63:e3:35:
                    7c:22:d7:c7:96:97:a0:a9:51:f9:24:97:d1:66:67:
                    38:6e:8f:1a:2d:c9:06:cb:00:52:19:f1:97:90:34:
                    9f:77:e9:68:ba:5d:55:5a:1a:51:e1:ce:7e:de:5c:
                    33:24:be:ba:26:01:ad:15:7d:26:50:de:0c:5b:74:
                    d1:7c:fe:e5:9c:7a:90:1b:11:a0:b3:e1:ca:30:f2:
                    8d:77:1e:01:12:a0:e0:fe:13:19:2d:b4:fb:32:d6:
                    e6:a5:20:ee:09:e7:6c:36:58:a8:d2:cc:43:5b:59:
                    d4:71:b5:6a:2d:04:04:fa:8e:1f:0b:5b:cf:53:c7:
                    a4:73:b9:c8:01:58:bc:94:1d:11:39:6a:67:2a:5a:
                    59:eb:8b:b2:f0:1d:7d:19:f0:4e:bf:f5:d1:61:6d:
                    e7:b1:88:0e:24:7a:36:00:12:9d:3f:c4:99:a8:36:
                    d1:e1:4f:21:5c:cb:1b:43:fe:d3:12:b8:f2:9c:e8:
                    03:bb:f1:ce:c4:e7:90:73:e7:da:a2:4e:56:c7:03:
                    0d:5f:23:ce:35:99:96:56:8e:48:1d:72:d2:94:23:
                    3b:1c:4c:7b:61:c7:e2:35:98:99:5b:e3:96:b3:80:
                    41:f6:3f:9d:3a:fb:02:db:8c:94:7c:09:d3:16:00:
                    7d:05:da:18:44:dc:5c:b5:e3:8a:f0:82:8a:31:56:
                    40:e9:37
                Exponent: 65537 (0x10001)
        X509v3 extensions:
            X509v3 Basic Constraints: 
                CA:FALSE
            Netscape Comment: 
                Easy-RSA Generated Certificate
            X509v3 Subject Key Identifier: 
                37:91:7A:7B:68:AF:8E:B4:DC:10:04:CE:88:55:63:28:B4:A5:E4:50
            X509v3 Authority Key Identifier: 
                keyid:12:CD:60:04:D2:A0:80:9E:70:ED:C6:99:B8:7B:2C:C6:52:FD:19:A1
                DirName:/C=US/ST=OH/L=Columbus/O=VikingVPN/OU=MyOrganizationalUnit/CN=VikingVPN CA/name=EasyRSA/emailAddress=me@myhost.mydomain
                serial:CF:35:85:EE:80:BF:2A:3E

            X509v3 Extended Key Usage: 
                TLS Web Client Authentication
            X509v3 Key Usage: 
                Digital Signature
    Signature Algorithm: md5WithRSAEncryption
         8f:f8:55:72:e7:fa:26:97:31:1e:33:c6:c5:18:3b:eb:d9:03:
         1b:ff:2e:ba:51:58:f8:4d:07:0b:d5:7e:b9:72:80:77:61:ad:
         68:46:c6:e5:f3:55:a6:0f:c9:a0:4f:ef:7a:c9:f7:35:6f:22:
         f3:8b:d8:d0:8f:f2:aa:1a:b8:4f:06:62:c5:25:e0:33:f6:06:
         7c:ff:a5:0d:39:0b:f0:20:15:d2:6a:53:96:72:08:e3:95:c4:
         00:8e:b7:cb:79:d7:c7:7e:0a:05:21:dc:a0:11:b8:54:c8:55:
         70:30:8a:d5:1e:ca:16:59:f0:a3:33:27:6e:27:32:73:3d:de:
         5c:20:84:0b:17:d5:b5:24:03:98:df:d8:d5:91:fe:93:d8:26:
         ba:b1:4e:74:17:e7:bd:38:c6:29:57:9e:52:1f:eb:07:e4:40:
         8e:46:12:71:e7:a2:6e:1e:7e:48:8a:a6:74:b8:7a:0a:d3:3a:
         c2:e2:98:61:00:97:c3:85:ed:da:ef:be:9e:17:4b:1d:7b:15:
         e9:2f:21:e8:1f:bd:d1:84:5d:f4:8a:4f:25:aa:9f:52:3f:85:
         bb:b7:84:a1:b5:5a:70:cb:4c:cc:4a:a0:7e:02:20:29:0d:cc:
         59:2e:99:10:f5:b0:2f:45:6d:2f:4b:d6:a2:56:3f:51:f6:77:
         40:56:3d:16:2b:f0:08:dd:f1:85:ab:f5:31:7d:15:68:75:3f:
         2e:83:28:cb:55:04:68:bb:43:53:a1:b4:5c:65:22:76:60:87:
         82:45:c0:3d:62:8e:70:7b:d3:1f:e9:ef:0d:d6:da:65:65:eb:
         58:2e:43:21:3d:6d:53:d1:39:02:32:29:5a:a6:9b:38:0d:17:
         9e:71:e3:c6:71:d6:21:b6:13:37:e3:28:04:13:46:55:66:f9:
         28:2e:52:d3:ce:a1:11:f9:21:01:23:ee:a7:0c:b6:9c:0c:b6:
         e4:d5:0a:74:5f:4f:2f:6a:c6:25:b5:a7:09:47:45:b4:48:6a:
         a6:51:43:e9:d0:e2:eb:73:ec:0e:78:05:3b:f6:13:a2:8f:1a:
         f9:2d:a0:91:04:e7:a4:a3:eb:f3:71:03:e8:bc:5a:56:9f:b0:
         d6:c6:63:1e:88:6b:2d:25:30:af:3f:1e:6e:53:3b:66:2a:1f:
         cf:0e:f3:01:80:f0:ba:55:86:97:33:02:e0:13:57:22:86:a2:
         ec:e4:dc:76:bd:1a:41:59:8c:7d:82:5b:91:77:f6:37:10:d8:
         51:5a:f8:11:69:4c:b7:f8:f1:79:16:2b:b6:13:c8:72:fa:cd:
         3a:71:0d:dd:0a:e5:e1:15:9c:21:47:35:63:67:7a:f8:1d:3c:
         31:69:22:e2:f3:b2:96:86
-----BEGIN CERTIFICATE-----
MIIGrDCCBJSgAwIBAgICBDIwDQYJKoZIhvcNAQEEBQAwgawxCzAJBgNVBAYTAlVT
MQswCQYDVQQIEwJPSDERMA8GA1UEBxMIQ29sdW1idXMxEjAQBgNVBAoTCVZpa2lu
Z1ZQTjEdMBsGA1UECxMUTXlPcmdhbml6YXRpb25hbFVuaXQxFTATBgNVBAMTDFZp
a2luZ1ZQTiBDQTEQMA4GA1UEKRMHRWFzeVJTQTEhMB8GCSqGSIb3DQEJARYSbWVA
bXlob3N0Lm15ZG9tYWluMB4XDTE0MDIxNzIyMjE0OFoXDTI0MDIxNTIyMjE0OFow
HjEcMBoGA1UEAxMTQ2xpZW50MzkyQ2VydDNkOTVkODCCAiIwDQYJKoZIhvcNAQEB
BQADggIPADCCAgoCggIBAKsR+VfYQhGhiNM9jn87vq9AZrHVNHaLRsS0E0rnu4kh
iQCy+fjHf2LKQrEskX0v0gaiagqv0NBYq2nSodR2SQsi7LrTHCu82VqPVCoOV2bX
BH/VSP+nfCwviSDb10D0UMyQttxjgYXFechsb7erwIMIAFbD26DbkFhZ3hp2NXup
rYTy1hXnr+bg/znxlTiEF0avgbNU+kKxvdnYqGqRpJovk6bB8RRassQZmwOzGykA
pTAb4vRjgj8p0CHkvyEzlopTo6+59CoKAO86+Ch4OT1fyFUnn/wLXR8KfLXbIGTS
cGnepamKF+0Rmy0fQzKwk3eGoEPvJk3mcMgrY+M1fCLXx5aXoKlR+SSX0WZnOG6P
Gi3JBssAUhnxl5A0n3fpaLpdVVoaUeHOft5cMyS+uiYBrRV9JlDeDFt00Xz+5Zx6
kBsRoLPhyjDyjXceARKg4P4TGS20+zLW5qUg7gnnbDZYqNLMQ1tZ1HG1ai0EBPqO
Hwtbz1PHpHO5yAFYvJQdETlqZypaWeuLsvAdfRnwTr/10WFt57GIDiR6NgASnT/E
mag20eFPIVzLG0P+0xK48pzoA7vxzsTnkHPn2qJOVscDDV8jzjWZllaOSB1y0pQj
OxxMe2HH4jWYmVvjlrOAQfY/nTr7AtuMlHwJ0xYAfQXaGETcXLXjivCCijFWQOk3
AgMBAAGjggFjMIIBXzAJBgNVHRMEAjAAMC0GCWCGSAGG+EIBDQQgFh5FYXN5LVJT
QSBHZW5lcmF0ZWQgQ2VydGlmaWNhdGUwHQYDVR0OBBYEFDeRentor4603BAEzohV
Yyi0peRQMIHhBgNVHSMEgdkwgdaAFBLNYATSoICecO3Gmbh7LMZS/RmhoYGypIGv
MIGsMQswCQYDVQQGEwJVUzELMAkGA1UECBMCT0gxETAPBgNVBAcTCENvbHVtYnVz
MRIwEAYDVQQKEwlWaWtpbmdWUE4xHTAbBgNVBAsTFE15T3JnYW5pemF0aW9uYWxV
bml0MRUwEwYDVQQDEwxWaWtpbmdWUE4gQ0ExEDAOBgNVBCkTB0Vhc3lSU0ExITAf
BgkqhkiG9w0BCQEWEm1lQG15aG9zdC5teWRvbWFpboIJAM81he6Avyo+MBMGA1Ud
JQQMMAoGCCsGAQUFBwMCMAsGA1UdDwQEAwIHgDANBgkqhkiG9w0BAQQFAAOCAgEA
j/hVcuf6JpcxHjPGxRg769kDG/8uulFY+E0HC9V+uXKAd2GtaEbG5fNVpg/JoE/v
esn3NW8i84vY0I/yqhq4TwZixSXgM/YGfP+lDTkL8CAV0mpTlnII45XEAI63y3nX
x34KBSHcoBG4VMhVcDCK1R7KFlnwozMnbicycz3eXCCECxfVtSQDmN/Y1ZH+k9gm
urFOdBfnvTjGKVeeUh/rB+RAjkYSceeibh5+SIqmdLh6CtM6wuKYYQCXw4Xt2u++
nhdLHXsV6S8h6B+90YRd9IpPJaqfUj+Fu7eEobVacMtMzEqgfgIgKQ3MWS6ZEPWw
L0VtL0vWolY/UfZ3QFY9FivwCN3xhav1MX0VaHU/LoMoy1UEaLtDU6G0XGUidmCH
gkXAPWKOcHvTH+nvDdbaZWXrWC5DIT1tU9E5AjIpWqabOA0XnnHjxnHWIbYTN+Mo
BBNGVWb5KC5S086hEfkhASPupwy2nAy25NUKdF9PL2rGJbWnCUdFtEhqplFD6dDi
63PsDngFO/YToo8a+S2gkQTnpKPr83ED6LxaVp+w1sZjHohrLSUwrz8eblM7Ziof
zw7zAYDwulWGlzMC4BNXIoai7OTcdr0aQVmMfYJbkXf2NxDYUVr4EWlMt/jxeRYr
thPIcvrNOnEN3Qrl4RWcIUc1Y2d6+B08MWki4vOyloY=
-----END CERTIFICATE-----
