Certificate:
    Data:
        Version: 3 (0x2)
        Serial Number: 9864 (0x2688)
    Signature Algorithm: sha256WithRSAEncryption
        Issuer: C=US, ST=OH, L=Columbus, O=VikingVPN, OU=MyOrganizationalUnit, CN=VikingVPN CA/name=EasyRSA/emailAddress=me@myhost.mydomain
        Validity
            Not Before: Jan 12 02:34:24 2017 GMT
            Not After : Jan 10 02:34:24 2027 GMT
        Subject: CN=Client2357Cert071b6d
        Subject Public Key Info:
            Public Key Algorithm: rsaEncryption
                Public-Key: (4096 bit)
                Modulus:
                    00:93:4a:93:fa:29:ca:c2:20:19:6f:1d:88:99:c2:
                    49:12:a8:de:64:a3:f9:07:e8:86:7a:8d:db:db:67:
                    a3:ea:37:19:5f:71:6a:c0:be:59:71:26:44:86:f9:
                    34:09:9f:9e:b9:f7:99:5d:64:43:91:27:c6:54:c8:
                    f6:e9:3a:03:f9:e8:18:f2:c0:2c:4b:eb:8b:1d:57:
                    b7:dc:73:af:ca:28:bb:89:5f:f4:d9:0b:5a:be:a2:
                    4b:a0:03:63:e7:ac:d1:e4:c8:7c:ae:16:f6:58:b4:
                    a4:c4:9a:ae:11:7e:44:33:a3:13:71:29:67:61:3a:
                    ee:70:e0:7f:b5:7b:15:73:32:e7:59:9b:ad:1b:28:
                    ae:9d:c6:fa:8a:ec:43:bb:22:de:8a:f2:52:e4:a5:
                    78:19:f1:af:a3:cd:31:41:c7:dd:4a:d4:ca:7b:17:
                    03:e9:ed:3d:30:f9:90:2a:1b:7d:8f:ea:a5:2b:2b:
                    38:12:1f:6a:6b:5b:b5:66:a9:92:af:85:47:33:6c:
                    09:aa:6f:21:73:08:cc:59:bb:c6:72:2e:8f:00:98:
                    5f:2d:22:b2:a3:2c:13:7b:8b:ec:85:f0:45:60:9a:
                    6a:93:b4:83:20:ba:6a:68:dc:fc:d4:fb:3b:75:de:
                    c9:3d:8a:a9:0c:06:79:36:d3:68:b1:7d:e9:9b:4f:
                    d2:b6:4a:ae:54:1d:58:99:d7:fb:5e:cc:a3:b8:8d:
                    26:e3:2c:e3:4e:ba:9f:24:9d:2d:ea:56:ae:a3:80:
                    ab:e2:f9:c7:12:b0:7b:ac:fc:72:15:39:3a:50:29:
                    57:39:3c:b2:53:38:ea:c9:8f:52:fb:3b:8c:7c:c9:
                    33:69:16:72:f3:a1:53:28:28:57:f9:1a:6d:2f:13:
                    ac:a0:37:e7:8e:84:5b:80:6e:6e:61:ad:0c:c1:43:
                    10:a7:54:16:9f:b0:7e:15:b7:4c:40:a4:d9:c8:08:
                    81:c6:ee:f8:24:96:d1:bc:f7:18:75:c8:cd:fe:d2:
                    10:d9:64:6d:47:df:96:22:c2:c3:be:1e:82:17:50:
                    12:1d:8c:76:4d:0c:78:36:0c:95:cb:45:46:64:83:
                    3a:e2:aa:9a:1e:d5:6f:ce:ab:37:eb:d5:c1:76:a3:
                    27:5b:a3:43:1c:f7:20:60:75:0a:48:64:f2:91:76:
                    11:79:64:ed:c6:6f:5f:73:47:80:3d:4a:9f:db:a6:
                    13:15:42:0e:5c:41:9d:73:2b:52:ff:50:54:19:12:
                    82:b4:0f:4f:23:78:07:74:44:ba:02:9f:d6:28:a4:
                    c5:b8:68:43:3c:c6:30:94:1c:4f:ef:44:32:52:ac:
                    f8:65:20:4f:73:ab:06:8f:d9:ed:23:81:9c:bd:5a:
                    6a:b1:2d
                Exponent: 65537 (0x10001)
        X509v3 extensions:
            X509v3 Basic Constraints: 
                CA:FALSE
            Netscape Comment: 
                Easy-RSA Generated Certificate
            X509v3 Subject Key Identifier: 
                13:E1:8C:02:40:E0:7F:B3:EF:15:E6:08:9C:F2:AA:CB:38:A0:FE:8B
            X509v3 Authority Key Identifier: 
                keyid:12:CD:60:04:D2:A0:80:9E:70:ED:C6:99:B8:7B:2C:C6:52:FD:19:A1
                DirName:/C=US/ST=OH/L=Columbus/O=VikingVPN/OU=MyOrganizationalUnit/CN=VikingVPN CA/name=EasyRSA/emailAddress=me@myhost.mydomain
                serial:CF:35:85:EE:80:BF:2A:3E

            X509v3 Extended Key Usage: 
                TLS Web Client Authentication
            X509v3 Key Usage: 
                Digital Signature
    Signature Algorithm: sha256WithRSAEncryption
         b6:61:ea:a6:fc:5e:61:23:96:46:20:a8:f7:19:a9:be:e5:bd:
         a5:3b:bd:00:33:7d:19:03:e3:39:d5:e6:29:de:e3:ea:af:ed:
         3d:50:aa:a8:83:ee:39:9f:50:d9:61:c4:c4:01:f6:c2:06:72:
         9b:b9:11:9e:6c:92:43:71:1c:be:fc:c9:f4:20:4b:af:06:a0:
         14:e2:9c:e7:38:9e:b2:ff:71:b1:ca:5f:35:8e:c1:e3:51:8d:
         a2:4b:df:c3:db:be:cf:f7:56:59:df:39:23:c5:fd:00:22:7d:
         64:2c:6c:7c:d8:45:ce:72:82:2a:56:02:f0:dc:ed:0a:bf:71:
         21:f7:9b:89:c1:60:8a:e6:eb:d6:9c:3a:22:dd:da:60:1d:10:
         af:7a:bb:ee:be:cb:99:15:81:91:2c:dd:92:ef:e1:80:cb:fd:
         b7:d1:4a:de:97:bb:71:06:77:f1:41:09:ce:c0:e6:59:a7:c2:
         2d:6d:61:30:fe:cf:a3:0a:e4:c5:b0:7b:fd:94:b0:5d:4b:53:
         24:3d:ed:29:26:81:2b:65:b9:ed:75:aa:c1:94:3b:3f:0a:e8:
         d2:95:0a:f0:e1:91:81:3d:c4:df:a6:4d:70:42:a8:14:60:ba:
         0c:99:52:54:76:31:2f:6b:21:82:dc:0b:5e:ae:26:53:df:84:
         a7:f0:83:7f:6d:0d:89:26:2f:36:30:8b:df:09:d4:33:40:2c:
         52:2d:c7:21:c0:d6:cb:ed:21:d0:14:ca:eb:c7:3d:10:be:12:
         6f:80:08:fd:8e:51:16:2a:6c:63:9e:c0:a1:df:56:30:d1:a9:
         e4:cb:c8:5f:c0:fa:ec:18:40:6e:80:3f:70:a5:64:23:28:68:
         9e:f8:51:82:65:6a:81:86:33:ad:8c:17:70:b9:0f:17:ad:a1:
         f1:61:03:45:d1:95:f5:a8:68:32:58:df:c0:ed:8e:ce:7a:b6:
         72:71:85:fa:4b:c3:32:df:b5:52:2f:75:0b:f7:75:46:a7:dc:
         f3:aa:07:56:59:c8:75:cc:d4:62:60:53:f3:05:69:4c:65:2c:
         87:f3:05:c4:07:51:32:8d:90:cc:38:3f:ec:e6:38:ee:f2:86:
         93:05:a6:1f:08:db:89:6d:49:2b:24:53:d7:04:f8:5d:18:e9:
         97:20:57:cc:4a:58:9e:44:87:8e:35:21:55:7b:08:01:5b:10:
         03:ee:69:62:83:a5:d4:c2:4e:4a:7f:b4:aa:3d:ec:60:fd:2c:
         d6:96:29:00:cd:d8:b1:62:46:23:db:b6:9f:cf:32:34:41:65:
         1c:a3:b9:ac:8c:81:1a:95:4e:4e:74:29:93:01:9d:67:d1:62:
         31:35:bc:70:d8:39:37:e8
-----BEGIN CERTIFICATE-----
MIIGrTCCBJWgAwIBAgICJogwDQYJKoZIhvcNAQELBQAwgawxCzAJBgNVBAYTAlVT
MQswCQYDVQQIEwJPSDERMA8GA1UEBxMIQ29sdW1idXMxEjAQBgNVBAoTCVZpa2lu
Z1ZQTjEdMBsGA1UECxMUTXlPcmdhbml6YXRpb25hbFVuaXQxFTATBgNVBAMTDFZp
a2luZ1ZQTiBDQTEQMA4GA1UEKRMHRWFzeVJTQTEhMB8GCSqGSIb3DQEJARYSbWVA
bXlob3N0Lm15ZG9tYWluMB4XDTE3MDExMjAyMzQyNFoXDTI3MDExMDAyMzQyNFow
HzEdMBsGA1UEAxMUQ2xpZW50MjM1N0NlcnQwNzFiNmQwggIiMA0GCSqGSIb3DQEB
AQUAA4ICDwAwggIKAoICAQCTSpP6KcrCIBlvHYiZwkkSqN5ko/kH6IZ6jdvbZ6Pq
NxlfcWrAvllxJkSG+TQJn56595ldZEORJ8ZUyPbpOgP56BjywCxL64sdV7fcc6/K
KLuJX/TZC1q+okugA2PnrNHkyHyuFvZYtKTEmq4RfkQzoxNxKWdhOu5w4H+1exVz
MudZm60bKK6dxvqK7EO7It6K8lLkpXgZ8a+jzTFBx91K1Mp7FwPp7T0w+ZAqG32P
6qUrKzgSH2prW7VmqZKvhUczbAmqbyFzCMxZu8ZyLo8AmF8tIrKjLBN7i+yF8EVg
mmqTtIMgumpo3PzU+zt13sk9iqkMBnk202ixfembT9K2Sq5UHViZ1/tezKO4jSbj
LONOup8knS3qVq6jgKvi+ccSsHus/HIVOTpQKVc5PLJTOOrJj1L7O4x8yTNpFnLz
oVMoKFf5Gm0vE6ygN+eOhFuAbm5hrQzBQxCnVBafsH4Vt0xApNnICIHG7vgkltG8
9xh1yM3+0hDZZG1H35YiwsO+HoIXUBIdjHZNDHg2DJXLRUZkgzriqpoe1W/Oqzfr
1cF2oydbo0Mc9yBgdQpIZPKRdhF5ZO3Gb19zR4A9Sp/bphMVQg5cQZ1zK1L/UFQZ
EoK0D08jeAd0RLoCn9YopMW4aEM8xjCUHE/vRDJSrPhlIE9zqwaP2e0jgZy9Wmqx
LQIDAQABo4IBYzCCAV8wCQYDVR0TBAIwADAtBglghkgBhvhCAQ0EIBYeRWFzeS1S
U0EgR2VuZXJhdGVkIENlcnRpZmljYXRlMB0GA1UdDgQWBBQT4YwCQOB/s+8V5gic
8qrLOKD+izCB4QYDVR0jBIHZMIHWgBQSzWAE0qCAnnDtxpm4eyzGUv0ZoaGBsqSB
rzCBrDELMAkGA1UEBhMCVVMxCzAJBgNVBAgTAk9IMREwDwYDVQQHEwhDb2x1bWJ1
czESMBAGA1UEChMJVmlraW5nVlBOMR0wGwYDVQQLExRNeU9yZ2FuaXphdGlvbmFs
VW5pdDEVMBMGA1UEAxMMVmlraW5nVlBOIENBMRAwDgYDVQQpEwdFYXN5UlNBMSEw
HwYJKoZIhvcNAQkBFhJtZUBteWhvc3QubXlkb21haW6CCQDPNYXugL8qPjATBgNV
HSUEDDAKBggrBgEFBQcDAjALBgNVHQ8EBAMCB4AwDQYJKoZIhvcNAQELBQADggIB
ALZh6qb8XmEjlkYgqPcZqb7lvaU7vQAzfRkD4znV5ine4+qv7T1QqqiD7jmfUNlh
xMQB9sIGcpu5EZ5skkNxHL78yfQgS68GoBTinOc4nrL/cbHKXzWOweNRjaJL38Pb
vs/3VlnfOSPF/QAifWQsbHzYRc5ygipWAvDc7Qq/cSH3m4nBYIrm69acOiLd2mAd
EK96u+6+y5kVgZEs3ZLv4YDL/bfRSt6Xu3EGd/FBCc7A5lmnwi1tYTD+z6MK5MWw
e/2UsF1LUyQ97SkmgStlue11qsGUOz8K6NKVCvDhkYE9xN+mTXBCqBRgugyZUlR2
MS9rIYLcC16uJlPfhKfwg39tDYkmLzYwi98J1DNALFItxyHA1svtIdAUyuvHPRC+
Em+ACP2OURYqbGOewKHfVjDRqeTLyF/A+uwYQG6AP3ClZCMoaJ74UYJlaoGGM62M
F3C5DxetofFhA0XRlfWoaDJY38Dtjs56tnJxhfpLwzLftVIvdQv3dUan3POqB1ZZ
yHXM1GJgU/MFaUxlLIfzBcQHUTKNkMw4P+zmOO7yhpMFph8I24ltSSskU9cE+F0Y
6ZcgV8xKWJ5Eh441IVV7CAFbEAPuaWKDpdTCTkp/tKo97GD9LNaWKQDN2LFiRiPb
tp/PMjRBZRyjuayMgRqVTk50KZMBnWfRYjE1vHDYOTfo
-----END CERTIFICATE-----
