Certificate:
    Data:
        Version: 3 (0x2)
        Serial Number: 7154 (0x1bf2)
    Signature Algorithm: md5WithRSAEncryption
        Issuer: C=US, ST=OH, L=Columbus, O=VikingVPN, OU=MyOrganizationalUnit, CN=VikingVPN CA/name=EasyRSA/emailAddress=me@myhost.mydomain
        Validity
            Not Before: Feb  8 19:40:50 2016 GMT
            Not After : Feb  5 19:40:50 2026 GMT
        Subject: CN=Client1925Cert99f53b
        Subject Public Key Info:
            Public Key Algorithm: rsaEncryption
                Public-Key: (4096 bit)
                Modulus:
                    00:da:b4:b8:1d:8a:ba:b5:a6:70:c9:41:e8:19:cf:
                    49:d0:78:a1:43:f8:44:89:ae:47:b6:ee:08:75:97:
                    9e:90:d1:aa:82:13:bc:3b:d9:c8:16:ac:3f:93:57:
                    cc:c4:b4:ea:c5:d0:cb:59:3a:b3:2b:d3:1f:b4:0a:
                    8b:ee:40:6d:74:ca:2e:12:b4:db:e0:08:3f:53:15:
                    ce:20:a3:b8:94:e0:0c:e2:6f:e7:ff:07:6f:b3:fa:
                    68:cf:9d:2c:22:39:0e:1c:20:ed:30:02:18:6f:cb:
                    59:d3:72:74:76:22:0c:6c:0b:47:48:f6:d0:6e:a8:
                    2b:c1:c2:0f:f8:e5:de:ff:55:4c:81:95:fc:00:14:
                    6b:65:44:7e:f1:30:a7:d8:4a:d5:16:56:6c:3f:82:
                    7d:e9:87:6d:17:e5:ad:8b:4d:3f:c0:6c:b5:88:6a:
                    06:a1:5a:fc:90:5c:d3:11:4f:de:8f:9f:a7:96:8e:
                    d6:f8:6d:0e:b0:69:7f:79:9d:6b:ff:83:64:9c:7e:
                    30:c2:ea:51:f3:89:e8:de:ec:b9:8b:8d:5b:65:15:
                    e1:1f:53:43:a1:37:7a:f1:05:e3:4b:64:f7:ff:9b:
                    d5:81:75:1f:3f:20:3e:ff:fd:1d:94:ac:47:6d:57:
                    2e:36:51:9b:3a:87:d3:ed:52:60:75:d8:5f:ac:a9:
                    56:63:88:53:21:04:e7:4d:ee:28:16:b5:3a:8d:94:
                    6a:f3:5e:6f:cd:cd:1f:9b:8a:5e:38:34:8a:92:72:
                    92:ea:50:09:54:c3:93:2e:5a:ba:24:4f:06:c5:4e:
                    5a:da:f2:2f:13:63:5d:39:31:6f:30:9d:17:65:72:
                    37:3a:7b:3f:87:26:4b:f2:c7:5d:01:a4:7f:6a:03:
                    96:c7:7f:86:50:bd:26:55:74:2e:c9:e5:67:89:94:
                    56:01:9d:af:f5:8e:09:8d:0b:a7:7d:c1:1e:92:53:
                    c8:fd:30:81:26:a6:ab:52:67:c1:85:1d:cd:1f:95:
                    f8:61:c1:97:50:05:ef:53:dd:61:36:71:94:ae:ff:
                    04:71:6a:e5:4d:c1:89:cc:ed:be:5c:d4:a2:73:b5:
                    df:4d:a3:d7:03:25:cf:3d:43:40:74:7a:27:58:81:
                    a4:9f:66:1b:40:9f:f3:00:04:41:9f:39:f3:05:dd:
                    71:1f:fe:99:86:ec:ee:c7:a3:1a:ac:5d:9c:48:10:
                    d7:d2:35:0d:4b:15:40:3d:15:41:bc:6c:39:86:f9:
                    c0:31:1a:45:17:a5:91:77:1d:65:08:5c:c0:4a:c6:
                    a7:fa:fc:4a:65:97:58:d6:c6:00:75:5b:5c:3d:93:
                    b0:13:6a:ba:6c:7c:eb:a0:6e:28:83:7d:a3:f8:ad:
                    53:34:83
                Exponent: 65537 (0x10001)
        X509v3 extensions:
            X509v3 Basic Constraints: 
                CA:FALSE
            Netscape Comment: 
                Easy-RSA Generated Certificate
            X509v3 Subject Key Identifier: 
                9B:2B:AD:3B:6F:C9:92:67:35:EE:8E:19:AA:38:A5:E2:24:7C:9F:A8
            X509v3 Authority Key Identifier: 
                keyid:12:CD:60:04:D2:A0:80:9E:70:ED:C6:99:B8:7B:2C:C6:52:FD:19:A1
                DirName:/C=US/ST=OH/L=Columbus/O=VikingVPN/OU=MyOrganizationalUnit/CN=VikingVPN CA/name=EasyRSA/emailAddress=me@myhost.mydomain
                serial:CF:35:85:EE:80:BF:2A:3E

            X509v3 Extended Key Usage: 
                TLS Web Client Authentication
            X509v3 Key Usage: 
                Digital Signature
    Signature Algorithm: md5WithRSAEncryption
         42:c3:8a:58:14:51:c6:38:8d:f4:af:22:e4:6e:00:b4:2c:dc:
         d9:5a:f6:dc:29:f8:ff:71:28:b9:f7:1f:04:7c:1d:4a:cd:24:
         70:a5:32:2b:a6:86:9c:1c:b8:8a:ac:63:77:82:c5:27:e6:af:
         43:92:58:ae:e1:82:b9:4d:b3:9b:92:2b:08:71:95:d3:dc:ec:
         be:38:ae:8b:9b:81:f7:c6:b8:1e:a5:f0:95:2c:44:ab:21:f9:
         47:83:6a:32:40:eb:e0:d6:24:fa:45:f0:0e:43:9c:40:35:d0:
         e5:2c:f4:55:52:9d:2e:84:8e:47:61:98:16:a3:6e:64:c1:eb:
         0e:97:2d:5c:c9:a1:5a:5b:87:af:f7:34:9d:80:a0:d0:55:23:
         b9:e7:30:85:17:04:69:07:cc:3f:aa:7b:71:6a:30:ab:02:55:
         07:16:35:55:6b:01:1c:f3:f2:9a:7e:74:78:5f:1c:8c:93:29:
         a6:30:f3:a2:f0:ad:31:6f:f1:98:4b:83:d9:17:2d:1a:b3:be:
         d6:42:20:4e:99:07:d8:3e:00:80:f4:71:cc:e5:5b:75:6d:64:
         ef:74:90:e9:ac:1d:d8:55:bc:bf:50:c7:20:a9:12:75:68:0b:
         98:42:12:b3:9f:6e:ba:51:5f:84:ea:4e:be:73:f7:98:13:06:
         08:b6:0f:82:c6:8d:6d:4e:9f:02:df:2d:3d:cb:f6:b9:ad:cb:
         41:23:ef:36:f6:16:b0:41:6c:dd:8f:d5:6b:29:a7:b9:c9:8b:
         93:6b:83:a5:d9:c4:64:49:92:81:5f:a0:dc:71:c1:94:ea:ac:
         bf:5e:11:4f:80:0c:82:11:25:5a:2d:6e:0b:eb:47:f2:5b:ed:
         0e:f7:0a:b2:02:38:d1:fa:82:3f:08:d8:d5:40:80:c7:a2:09:
         e7:f4:3a:ec:3d:53:e8:d8:35:fd:e3:e6:7b:8e:27:b3:f8:4f:
         6b:3e:68:dc:de:61:4e:fc:5e:a9:46:dc:f9:70:02:f8:a8:ef:
         55:a9:de:f4:08:1e:16:c9:3b:71:c8:c9:25:d4:42:93:48:78:
         ac:3f:a8:f7:31:d2:35:b8:bd:13:04:1a:f0:3b:cb:c8:64:0d:
         2e:0a:01:38:af:0c:85:38:a2:12:7f:0b:9d:f8:17:6e:06:c4:
         1e:5b:8b:77:ee:0c:bd:cd:00:d9:40:05:68:c3:9c:05:5a:f3:
         1b:4a:7e:dc:c5:12:65:89:e9:dd:b0:dc:d2:14:9c:78:26:50:
         05:25:37:8b:e9:89:e6:12:5f:83:8d:08:39:cf:22:8c:c4:ab:
         5c:5c:7a:04:92:c7:06:2e:bd:6d:77:3b:ad:9c:52:ef:63:5a:
         5b:13:72:5a:68:e6:5d:19
-----BEGIN CERTIFICATE-----
MIIGrTCCBJWgAwIBAgICG/IwDQYJKoZIhvcNAQEEBQAwgawxCzAJBgNVBAYTAlVT
MQswCQYDVQQIEwJPSDERMA8GA1UEBxMIQ29sdW1idXMxEjAQBgNVBAoTCVZpa2lu
Z1ZQTjEdMBsGA1UECxMUTXlPcmdhbml6YXRpb25hbFVuaXQxFTATBgNVBAMTDFZp
a2luZ1ZQTiBDQTEQMA4GA1UEKRMHRWFzeVJTQTEhMB8GCSqGSIb3DQEJARYSbWVA
bXlob3N0Lm15ZG9tYWluMB4XDTE2MDIwODE5NDA1MFoXDTI2MDIwNTE5NDA1MFow
HzEdMBsGA1UEAxMUQ2xpZW50MTkyNUNlcnQ5OWY1M2IwggIiMA0GCSqGSIb3DQEB
AQUAA4ICDwAwggIKAoICAQDatLgdirq1pnDJQegZz0nQeKFD+ESJrke27gh1l56Q
0aqCE7w72cgWrD+TV8zEtOrF0MtZOrMr0x+0CovuQG10yi4StNvgCD9TFc4go7iU
4Azib+f/B2+z+mjPnSwiOQ4cIO0wAhhvy1nTcnR2IgxsC0dI9tBuqCvBwg/45d7/
VUyBlfwAFGtlRH7xMKfYStUWVmw/gn3ph20X5a2LTT/AbLWIagahWvyQXNMRT96P
n6eWjtb4bQ6waX95nWv/g2ScfjDC6lHzieje7LmLjVtlFeEfU0OhN3rxBeNLZPf/
m9WBdR8/ID7//R2UrEdtVy42UZs6h9PtUmB12F+sqVZjiFMhBOdN7igWtTqNlGrz
Xm/NzR+bil44NIqScpLqUAlUw5MuWrokTwbFTlra8i8TY105MW8wnRdlcjc6ez+H
Jkvyx10BpH9qA5bHf4ZQvSZVdC7J5WeJlFYBna/1jgmNC6d9wR6SU8j9MIEmpqtS
Z8GFHc0flfhhwZdQBe9T3WE2cZSu/wRxauVNwYnM7b5c1KJztd9No9cDJc89Q0B0
eidYgaSfZhtAn/MABEGfOfMF3XEf/pmG7O7HoxqsXZxIENfSNQ1LFUA9FUG8bDmG
+cAxGkUXpZF3HWUIXMBKxqf6/Epll1jWxgB1W1w9k7ATarpsfOugbiiDfaP4rVM0
gwIDAQABo4IBYzCCAV8wCQYDVR0TBAIwADAtBglghkgBhvhCAQ0EIBYeRWFzeS1S
U0EgR2VuZXJhdGVkIENlcnRpZmljYXRlMB0GA1UdDgQWBBSbK607b8mSZzXujhmq
OKXiJHyfqDCB4QYDVR0jBIHZMIHWgBQSzWAE0qCAnnDtxpm4eyzGUv0ZoaGBsqSB
rzCBrDELMAkGA1UEBhMCVVMxCzAJBgNVBAgTAk9IMREwDwYDVQQHEwhDb2x1bWJ1
czESMBAGA1UEChMJVmlraW5nVlBOMR0wGwYDVQQLExRNeU9yZ2FuaXphdGlvbmFs
VW5pdDEVMBMGA1UEAxMMVmlraW5nVlBOIENBMRAwDgYDVQQpEwdFYXN5UlNBMSEw
HwYJKoZIhvcNAQkBFhJtZUBteWhvc3QubXlkb21haW6CCQDPNYXugL8qPjATBgNV
HSUEDDAKBggrBgEFBQcDAjALBgNVHQ8EBAMCB4AwDQYJKoZIhvcNAQEEBQADggIB
AELDilgUUcY4jfSvIuRuALQs3Nla9twp+P9xKLn3HwR8HUrNJHClMiumhpwcuIqs
Y3eCxSfmr0OSWK7hgrlNs5uSKwhxldPc7L44roubgffGuB6l8JUsRKsh+UeDajJA
6+DWJPpF8A5DnEA10OUs9FVSnS6EjkdhmBajbmTB6w6XLVzJoVpbh6/3NJ2AoNBV
I7nnMIUXBGkHzD+qe3FqMKsCVQcWNVVrARzz8pp+dHhfHIyTKaYw86LwrTFv8ZhL
g9kXLRqzvtZCIE6ZB9g+AID0cczlW3VtZO90kOmsHdhVvL9QxyCpEnVoC5hCErOf
brpRX4TqTr5z95gTBgi2D4LGjW1OnwLfLT3L9rmty0Ej7zb2FrBBbN2P1Wspp7nJ
i5Nrg6XZxGRJkoFfoNxxwZTqrL9eEU+ADIIRJVotbgvrR/Jb7Q73CrICONH6gj8I
2NVAgMeiCef0Ouw9U+jYNf3j5nuOJ7P4T2s+aNzeYU78XqlG3PlwAvio71Wp3vQI
HhbJO3HIySXUQpNIeKw/qPcx0jW4vRMEGvA7y8hkDS4KATivDIU4ohJ/C534F24G
xB5bi3fuDL3NANlABWjDnAVa8xtKftzFEmWJ6d2w3NIUnHgmUAUlN4vpieYSX4ON
CDnPIozEq1xcegSSxwYuvW13O62cUu9jWlsTclpo5l0Z
-----END CERTIFICATE-----
