Certificate:
    Data:
        Version: 3 (0x2)
        Serial Number: 271 (0x10f)
    Signature Algorithm: md5WithRSAEncryption
        Issuer: C=US, ST=OH, L=Columbus, O=VikingVPN, OU=MyOrganizationalUnit, CN=VikingVPN CA/name=EasyRSA/emailAddress=me@myhost.mydomain
        Validity
            Not Before: Oct  7 22:03:19 2013 GMT
            Not After : Oct  5 22:03:19 2023 GMT
        Subject: CN=Client130Certbfecd4
        Subject Public Key Info:
            Public Key Algorithm: rsaEncryption
                Public-Key: (4096 bit)
                Modulus:
                    00:ae:5b:2a:81:3c:85:90:a5:44:10:e2:3e:d1:b6:
                    d1:2e:de:45:df:82:d4:de:e6:05:2d:e0:3a:d6:d8:
                    b5:78:8d:ef:d4:d4:4c:e6:59:c8:76:96:f1:e7:86:
                    7a:2e:cb:4c:c3:f5:7b:09:23:af:b0:6b:a2:be:55:
                    06:6e:f7:c3:65:49:60:50:97:7c:0b:ca:d7:d8:22:
                    c6:97:db:15:69:fd:0d:30:4f:25:34:fa:10:e3:fb:
                    77:d0:f6:7a:f0:21:93:63:ac:f5:30:91:bb:65:56:
                    99:96:44:ee:42:5c:fc:40:af:5c:48:90:d2:7d:95:
                    bc:b9:87:d7:68:1b:f7:67:d3:2a:77:30:50:53:be:
                    33:0a:cb:29:0c:de:12:58:e5:7e:3b:bb:c5:7a:1d:
                    ef:13:93:41:35:ff:5c:31:46:0d:8d:59:dc:64:d0:
                    e4:f1:3b:25:66:60:46:0e:30:18:54:9a:15:40:5f:
                    e1:46:ad:37:33:f5:f5:cb:47:bd:9c:66:06:18:e9:
                    6c:df:69:18:d7:3e:87:94:79:9c:3c:38:c6:31:1a:
                    8b:39:06:70:f0:d2:f9:9a:36:ae:5e:cf:26:d2:18:
                    e9:9b:c4:01:49:88:12:b2:3c:c8:71:af:a6:63:2e:
                    30:77:46:f9:43:7a:d6:af:92:a7:88:29:91:b7:89:
                    e2:23:c6:36:95:f6:69:8a:e5:35:28:65:11:b2:2b:
                    27:0f:90:bf:5c:71:59:13:40:38:98:e8:fc:5f:86:
                    4d:e6:d5:ae:29:74:d8:fd:d3:12:1e:3b:28:92:db:
                    9f:0a:d3:3f:91:e3:ba:7e:f9:7e:69:47:79:96:29:
                    a6:b5:80:f2:a5:c1:7c:3a:d9:b5:fc:f0:8a:6c:e7:
                    e1:3c:21:b6:70:64:58:67:97:48:7e:78:5f:ae:7b:
                    27:8e:38:e5:59:f6:b0:73:c9:cb:52:fe:65:a3:62:
                    1a:ab:13:ac:df:c4:a2:d0:8f:2c:5a:44:ad:6a:15:
                    c3:eb:92:10:90:4d:a2:36:6b:f2:8c:b4:ad:f7:63:
                    b8:ca:8a:87:21:db:55:34:22:4b:1b:4e:b9:ea:9b:
                    a5:8d:b3:fb:14:9e:14:8e:56:19:4d:be:e1:ed:e2:
                    70:e3:47:78:c7:22:ec:a0:c8:42:d3:9a:ce:91:98:
                    5a:83:83:28:fd:e8:db:15:fc:1b:79:3a:34:ef:69:
                    95:cd:6b:a6:5c:e1:26:98:07:92:09:fe:69:0c:d5:
                    29:5b:83:78:58:03:ea:c6:5b:91:e3:81:16:57:9c:
                    b5:9f:a3:64:89:23:f1:2f:56:ac:5a:ae:e6:56:49:
                    09:14:a3:96:fd:f9:15:bc:1c:98:71:ae:54:6b:0a:
                    b3:dd:cf
                Exponent: 65537 (0x10001)
        X509v3 extensions:
            X509v3 Basic Constraints: 
                CA:FALSE
            Netscape Comment: 
                Easy-RSA Generated Certificate
            X509v3 Subject Key Identifier: 
                21:C0:3C:22:3B:3D:B5:36:03:8A:5F:83:BC:F7:58:9F:FA:AF:83:F2
            X509v3 Authority Key Identifier: 
                keyid:12:CD:60:04:D2:A0:80:9E:70:ED:C6:99:B8:7B:2C:C6:52:FD:19:A1
                DirName:/C=US/ST=OH/L=Columbus/O=VikingVPN/OU=MyOrganizationalUnit/CN=VikingVPN CA/name=EasyRSA/emailAddress=me@myhost.mydomain
                serial:CF:35:85:EE:80:BF:2A:3E

            X509v3 Extended Key Usage: 
                TLS Web Client Authentication
            X509v3 Key Usage: 
                Digital Signature
    Signature Algorithm: md5WithRSAEncryption
         a6:72:08:16:1d:5b:a1:bb:53:94:18:99:d5:8d:62:fb:38:fc:
         68:43:67:7b:3e:c1:31:5c:be:30:dd:17:e7:f5:e7:e0:4b:c6:
         1c:f4:91:a3:7c:a0:93:32:eb:7f:05:8f:fd:7b:09:25:19:04:
         34:de:f6:9f:c9:86:60:b0:39:92:2d:b1:e0:2c:41:95:c4:eb:
         84:ff:16:c1:28:6d:a0:40:75:9d:2f:6f:f0:58:77:6d:e7:09:
         27:71:91:dd:d1:34:86:e2:bf:58:65:cc:d4:77:02:79:78:ed:
         04:ce:fa:b7:71:17:ca:23:50:25:af:34:18:5f:45:00:6a:64:
         b1:6f:44:fc:8a:8c:ca:37:f5:37:87:5e:67:e4:48:9a:60:6a:
         67:72:fd:2c:67:22:35:37:fc:f3:52:9a:8f:d4:c4:6b:f9:4b:
         99:d8:51:e7:75:74:8c:c3:9a:de:98:ff:56:2c:1a:2b:bd:1a:
         94:11:d6:64:d0:ac:95:8f:82:ed:a3:25:26:62:8f:ae:8b:49:
         f2:18:0a:1f:43:14:28:34:02:0a:15:a0:9c:b0:d1:b0:f5:13:
         3a:cd:e8:8b:49:3f:c0:66:43:a7:13:90:3f:4f:03:ad:7f:7e:
         62:c6:5c:49:63:78:fe:94:6d:94:46:3c:14:9c:9a:6a:9e:97:
         39:f7:30:db:83:9b:0a:1a:d0:63:f4:13:7a:39:eb:83:b3:5a:
         94:42:53:ce:0d:e1:7d:c9:62:69:ad:e5:02:da:e4:9a:4f:e8:
         9c:6a:f1:2c:2d:04:ae:f1:0a:66:2b:d0:cb:78:f1:9c:66:82:
         af:c4:07:87:55:20:02:82:dc:dc:fb:95:da:0f:6b:fb:a7:3c:
         2f:65:00:91:7b:33:3c:78:67:ea:7e:58:b0:51:30:cd:e1:65:
         30:74:4f:76:77:ac:4c:c6:51:48:0c:23:9c:c2:32:15:6b:e8:
         aa:2e:db:c8:2c:bd:8f:f2:b9:ea:92:f0:c9:03:94:8d:1a:a4:
         a4:d8:94:e0:84:fd:1c:06:1c:4c:db:b6:19:b3:d4:b6:97:6b:
         30:ec:c8:67:92:81:62:93:4a:d5:b7:18:d3:39:c3:66:ec:fd:
         8f:5b:d7:9c:f7:94:c9:d2:3f:69:7c:01:64:b0:2d:9b:d1:88:
         d4:fd:fb:b5:e6:0b:da:29:dc:d5:3d:c8:77:20:87:28:fb:84:
         13:cc:8e:38:b4:80:28:25:ff:50:d4:da:8f:96:53:b1:99:50:
         78:b7:20:46:e1:05:75:83:ff:0f:d5:63:e8:f1:51:18:c9:a9:
         04:81:b8:b9:0a:78:92:2e:83:d0:f1:52:17:3c:7f:64:bd:39:
         38:f6:a1:f9:5a:c5:1d:73
-----BEGIN CERTIFICATE-----
MIIGrDCCBJSgAwIBAgICAQ8wDQYJKoZIhvcNAQEEBQAwgawxCzAJBgNVBAYTAlVT
MQswCQYDVQQIEwJPSDERMA8GA1UEBxMIQ29sdW1idXMxEjAQBgNVBAoTCVZpa2lu
Z1ZQTjEdMBsGA1UECxMUTXlPcmdhbml6YXRpb25hbFVuaXQxFTATBgNVBAMTDFZp
a2luZ1ZQTiBDQTEQMA4GA1UEKRMHRWFzeVJTQTEhMB8GCSqGSIb3DQEJARYSbWVA
bXlob3N0Lm15ZG9tYWluMB4XDTEzMTAwNzIyMDMxOVoXDTIzMTAwNTIyMDMxOVow
HjEcMBoGA1UEAxMTQ2xpZW50MTMwQ2VydGJmZWNkNDCCAiIwDQYJKoZIhvcNAQEB
BQADggIPADCCAgoCggIBAK5bKoE8hZClRBDiPtG20S7eRd+C1N7mBS3gOtbYtXiN
79TUTOZZyHaW8eeGei7LTMP1ewkjr7Bror5VBm73w2VJYFCXfAvK19gixpfbFWn9
DTBPJTT6EOP7d9D2evAhk2Os9TCRu2VWmZZE7kJc/ECvXEiQ0n2VvLmH12gb92fT
KncwUFO+MwrLKQzeEljlfju7xXod7xOTQTX/XDFGDY1Z3GTQ5PE7JWZgRg4wGFSa
FUBf4UatNzP19ctHvZxmBhjpbN9pGNc+h5R5nDw4xjEaizkGcPDS+Zo2rl7PJtIY
6ZvEAUmIErI8yHGvpmMuMHdG+UN61q+Sp4gpkbeJ4iPGNpX2aYrlNShlEbIrJw+Q
v1xxWRNAOJjo/F+GTebVril02P3TEh47KJLbnwrTP5Hjun75fmlHeZYpprWA8qXB
fDrZtfzwimzn4TwhtnBkWGeXSH54X657J4445Vn2sHPJy1L+ZaNiGqsTrN/EotCP
LFpErWoVw+uSEJBNojZr8oy0rfdjuMqKhyHbVTQiSxtOueqbpY2z+xSeFI5WGU2+
4e3icONHeMci7KDIQtOazpGYWoODKP3o2xX8G3k6NO9plc1rplzhJpgHkgn+aQzV
KVuDeFgD6sZbkeOBFlectZ+jZIkj8S9WrFqu5lZJCRSjlv35FbwcmHGuVGsKs93P
AgMBAAGjggFjMIIBXzAJBgNVHRMEAjAAMC0GCWCGSAGG+EIBDQQgFh5FYXN5LVJT
QSBHZW5lcmF0ZWQgQ2VydGlmaWNhdGUwHQYDVR0OBBYEFCHAPCI7PbU2A4pfg7z3
WJ/6r4PyMIHhBgNVHSMEgdkwgdaAFBLNYATSoICecO3Gmbh7LMZS/RmhoYGypIGv
MIGsMQswCQYDVQQGEwJVUzELMAkGA1UECBMCT0gxETAPBgNVBAcTCENvbHVtYnVz
MRIwEAYDVQQKEwlWaWtpbmdWUE4xHTAbBgNVBAsTFE15T3JnYW5pemF0aW9uYWxV
bml0MRUwEwYDVQQDEwxWaWtpbmdWUE4gQ0ExEDAOBgNVBCkTB0Vhc3lSU0ExITAf
BgkqhkiG9w0BCQEWEm1lQG15aG9zdC5teWRvbWFpboIJAM81he6Avyo+MBMGA1Ud
JQQMMAoGCCsGAQUFBwMCMAsGA1UdDwQEAwIHgDANBgkqhkiG9w0BAQQFAAOCAgEA
pnIIFh1bobtTlBiZ1Y1i+zj8aENnez7BMVy+MN0X5/Xn4EvGHPSRo3ygkzLrfwWP
/XsJJRkENN72n8mGYLA5ki2x4CxBlcTrhP8WwShtoEB1nS9v8Fh3becJJ3GR3dE0
huK/WGXM1HcCeXjtBM76t3EXyiNQJa80GF9FAGpksW9E/IqMyjf1N4deZ+RImmBq
Z3L9LGciNTf881Kaj9TEa/lLmdhR53V0jMOa3pj/ViwaK70alBHWZNCslY+C7aMl
JmKProtJ8hgKH0MUKDQCChWgnLDRsPUTOs3oi0k/wGZDpxOQP08DrX9+YsZcSWN4
/pRtlEY8FJyaap6XOfcw24ObChrQY/QTejnrg7NalEJTzg3hfcliaa3lAtrkmk/o
nGrxLC0ErvEKZivQy3jxnGaCr8QHh1UgAoLc3PuV2g9r+6c8L2UAkXszPHhn6n5Y
sFEwzeFlMHRPdnesTMZRSAwjnMIyFWvoqi7byCy9j/K56pLwyQOUjRqkpNiU4IT9
HAYcTNu2GbPUtpdrMOzIZ5KBYpNK1bcY0znDZuz9j1vXnPeUydI/aXwBZLAtm9GI
1P37teYL2inc1T3IdyCHKPuEE8yOOLSAKCX/UNTaj5ZTsZlQeLcgRuEFdYP/D9Vj
6PFRGMmpBIG4uQp4ki6D0PFSFzx/ZL05OPah+VrFHXM=
-----END CERTIFICATE-----
