Certificate:
    Data:
        Version: 3 (0x2)
        Serial Number: 9363 (0x2493)
    Signature Algorithm: sha256WithRSAEncryption
        Issuer: C=US, ST=OH, L=Columbus, O=VikingVPN, OU=MyOrganizationalUnit, CN=VikingVPN CA/name=EasyRSA/emailAddress=me@myhost.mydomain
        Validity
            Not Before: Nov  1 05:58:15 2016 GMT
            Not After : Oct 30 05:58:15 2026 GMT
        Subject: CN=Client2565Cert900bc0
        Subject Public Key Info:
            Public Key Algorithm: rsaEncryption
                Public-Key: (4096 bit)
                Modulus:
                    00:b5:e4:49:d2:bb:58:9c:5e:99:ee:9b:fb:9b:80:
                    34:7b:ee:7b:70:9c:86:44:1a:aa:43:fe:b0:39:c4:
                    28:58:ff:21:52:ce:b7:20:3b:c8:d3:2f:8e:38:b8:
                    dc:d0:d7:48:24:a0:e0:1d:66:43:74:b8:56:a2:c5:
                    ca:7e:b0:5f:86:f7:b2:c8:89:4a:c8:63:7c:ce:cf:
                    3a:d0:fc:92:e7:df:c5:3e:17:9a:be:09:e4:3b:69:
                    69:b5:09:c6:d1:b4:33:41:a6:92:16:8f:e8:8a:94:
                    e6:1e:d8:95:b2:1f:ff:23:34:73:b6:33:29:74:76:
                    77:2e:53:e0:8c:f9:8e:c5:a6:33:b9:27:78:1a:6a:
                    cf:66:52:37:37:ab:26:49:aa:76:00:ed:2e:ed:ff:
                    bb:7f:a0:56:bf:ec:67:ce:d3:9a:d1:f7:91:8b:6c:
                    59:f8:27:c5:2b:7c:58:e7:22:d6:58:3a:07:e1:83:
                    21:47:d3:fc:32:df:2e:bf:61:6d:0a:75:66:a1:6b:
                    50:8c:8f:b9:50:4f:1d:da:17:ca:4c:83:e0:8f:32:
                    06:ed:cd:a2:a6:a6:b0:96:74:08:86:14:27:00:6e:
                    2d:6e:bd:88:e3:75:62:0c:da:a1:93:00:03:cb:f7:
                    45:22:a4:85:26:01:83:e1:ca:af:bd:ef:03:2e:83:
                    1f:dc:6d:93:fe:5c:26:21:3c:ce:2b:e6:0f:08:d9:
                    1e:b9:f8:9b:5b:59:41:96:10:31:d4:40:02:4d:04:
                    49:78:0b:af:83:be:9b:dd:cc:99:84:4a:76:3e:bd:
                    1c:5c:20:5f:5f:62:1b:d8:eb:02:29:e3:ec:97:a5:
                    cb:bc:0e:0f:4b:3e:66:d6:47:13:fa:7d:38:3d:35:
                    db:0e:fd:17:ec:20:8c:a9:1b:61:0d:37:7d:7d:f1:
                    13:7d:83:52:b5:e4:2f:79:ae:a3:d4:4f:cc:14:7c:
                    bb:60:c4:ec:77:9f:8a:97:f3:ab:40:b5:ca:e6:8c:
                    55:f7:4b:0b:78:86:12:cf:58:77:b6:4e:cb:e4:7e:
                    34:5a:46:95:8e:3a:bf:51:ac:ff:f4:b0:1e:c8:07:
                    75:52:3a:8b:38:ba:b5:47:f4:3a:50:55:32:ed:f9:
                    5b:30:10:3f:df:37:f9:86:d9:c5:f2:ed:45:0b:75:
                    eb:22:aa:9b:e8:35:a5:f4:ec:e7:9e:48:58:fb:d6:
                    f1:59:37:64:74:17:da:3b:2b:6a:5b:b4:9a:a8:ca:
                    cb:76:21:ff:87:38:08:54:12:66:7d:90:4a:7f:bc:
                    65:6b:c2:eb:00:53:0e:e0:d5:b8:74:49:96:0c:71:
                    dc:24:5f:4d:bd:45:22:b7:38:36:c5:a5:9a:ba:56:
                    7c:59:2f
                Exponent: 65537 (0x10001)
        X509v3 extensions:
            X509v3 Basic Constraints: 
                CA:FALSE
            Netscape Comment: 
                Easy-RSA Generated Certificate
            X509v3 Subject Key Identifier: 
                FF:A9:55:24:28:A6:3A:D9:E8:0C:4F:AB:BC:5C:20:5D:63:DD:00:58
            X509v3 Authority Key Identifier: 
                keyid:12:CD:60:04:D2:A0:80:9E:70:ED:C6:99:B8:7B:2C:C6:52:FD:19:A1
                DirName:/C=US/ST=OH/L=Columbus/O=VikingVPN/OU=MyOrganizationalUnit/CN=VikingVPN CA/name=EasyRSA/emailAddress=me@myhost.mydomain
                serial:CF:35:85:EE:80:BF:2A:3E

            X509v3 Extended Key Usage: 
                TLS Web Client Authentication
            X509v3 Key Usage: 
                Digital Signature
    Signature Algorithm: sha256WithRSAEncryption
         04:8e:1b:21:44:1a:9b:77:a6:ad:63:ce:80:c4:1f:7d:8a:ca:
         03:6e:2f:6f:12:1b:18:cb:d0:6d:0a:06:d9:9e:fd:e8:70:9d:
         e8:a6:d0:53:95:32:18:56:bd:6d:ae:ae:46:0f:c7:e5:ec:31:
         b4:41:48:73:13:63:dd:a4:5f:7c:56:ff:9f:1e:90:b0:95:fb:
         ad:14:5d:d8:f2:f3:6d:67:06:67:a9:85:24:f0:c3:5d:36:06:
         3c:d6:d5:c7:e8:30:c2:d5:8a:e3:18:64:1d:d1:c7:ba:48:00:
         15:fc:9f:bc:23:8f:da:90:f9:dc:6a:90:f5:62:80:b0:41:e9:
         61:52:7a:10:c4:8d:07:f6:5c:83:4e:e8:bb:d7:9b:b1:a8:09:
         2b:bc:9a:18:4d:bb:38:7e:6d:64:83:69:1a:9b:4c:d4:b7:ea:
         6d:19:c7:52:a1:d0:70:56:7a:18:f1:33:06:a3:ea:b8:c8:74:
         6d:19:fd:91:ec:ac:52:4b:44:a3:f5:1f:b6:18:38:04:46:aa:
         ed:41:52:64:0d:de:27:e1:25:5b:02:06:81:58:a4:60:ae:44:
         df:aa:12:be:ff:10:f1:f2:f0:cd:07:e6:9f:1c:dd:7e:ee:cf:
         bf:67:ab:6f:6c:41:0a:d4:b0:be:6a:78:75:dd:12:fa:56:6e:
         b8:68:64:b4:7b:e4:7a:a2:8e:f7:fb:12:a8:d3:d5:56:fc:89:
         c0:2b:c5:dc:85:59:62:36:ab:b1:70:16:52:91:4e:f8:61:76:
         5f:3c:1d:ed:1f:2f:13:14:f4:8d:c0:5b:57:bc:ea:f9:17:0a:
         eb:53:7e:62:ee:3b:23:0e:c1:bc:08:f8:22:e6:d0:47:65:a3:
         61:87:21:ed:cb:d5:39:e7:73:db:52:4a:ed:09:a4:48:ba:63:
         83:e0:c4:b1:99:43:56:26:09:73:0d:7a:94:ea:e1:74:57:8c:
         51:57:84:fa:19:24:04:8e:3e:1a:c7:28:76:7c:10:ea:f0:4d:
         21:f5:12:c0:5a:df:45:d5:3b:9a:92:a7:e2:c6:70:9e:ee:99:
         e7:dc:d5:54:b9:9d:a0:49:9b:9c:43:d4:d2:0c:8a:83:24:6d:
         2a:de:ec:e7:29:28:cd:9c:2e:df:a7:0d:a3:f2:13:df:50:6c:
         b0:ea:3e:e8:1f:8d:8b:76:82:e5:be:76:28:c0:1a:79:bf:e2:
         cc:4d:30:40:56:ed:38:22:1a:46:77:62:a9:b6:91:7a:d3:19:
         cb:8f:7e:e2:93:86:c8:c7:c7:cc:35:28:cb:0e:13:92:07:30:
         a7:75:ea:51:2d:6c:ac:69:31:f6:6c:fd:b4:d0:e1:f4:4b:93:
         09:c5:b4:25:bd:ae:67:6c
-----BEGIN CERTIFICATE-----
MIIGrTCCBJWgAwIBAgICJJMwDQYJKoZIhvcNAQELBQAwgawxCzAJBgNVBAYTAlVT
MQswCQYDVQQIEwJPSDERMA8GA1UEBxMIQ29sdW1idXMxEjAQBgNVBAoTCVZpa2lu
Z1ZQTjEdMBsGA1UECxMUTXlPcmdhbml6YXRpb25hbFVuaXQxFTATBgNVBAMTDFZp
a2luZ1ZQTiBDQTEQMA4GA1UEKRMHRWFzeVJTQTEhMB8GCSqGSIb3DQEJARYSbWVA
bXlob3N0Lm15ZG9tYWluMB4XDTE2MTEwMTA1NTgxNVoXDTI2MTAzMDA1NTgxNVow
HzEdMBsGA1UEAxMUQ2xpZW50MjU2NUNlcnQ5MDBiYzAwggIiMA0GCSqGSIb3DQEB
AQUAA4ICDwAwggIKAoICAQC15EnSu1icXpnum/ubgDR77ntwnIZEGqpD/rA5xChY
/yFSzrcgO8jTL444uNzQ10gkoOAdZkN0uFaixcp+sF+G97LIiUrIY3zOzzrQ/JLn
38U+F5q+CeQ7aWm1CcbRtDNBppIWj+iKlOYe2JWyH/8jNHO2Myl0dncuU+CM+Y7F
pjO5J3gaas9mUjc3qyZJqnYA7S7t/7t/oFa/7GfO05rR95GLbFn4J8UrfFjnItZY
OgfhgyFH0/wy3y6/YW0KdWaha1CMj7lQTx3aF8pMg+CPMgbtzaKmprCWdAiGFCcA
bi1uvYjjdWIM2qGTAAPL90UipIUmAYPhyq+97wMugx/cbZP+XCYhPM4r5g8I2R65
+JtbWUGWEDHUQAJNBEl4C6+DvpvdzJmESnY+vRxcIF9fYhvY6wIp4+yXpcu8Dg9L
PmbWRxP6fTg9NdsO/RfsIIypG2ENN3198RN9g1K15C95rqPUT8wUfLtgxOx3n4qX
86tAtcrmjFX3Swt4hhLPWHe2TsvkfjRaRpWOOr9RrP/0sB7IB3VSOos4urVH9DpQ
VTLt+VswED/fN/mG2cXy7UULdesiqpvoNaX07OeeSFj71vFZN2R0F9o7K2pbtJqo
yst2If+HOAhUEmZ9kEp/vGVrwusAUw7g1bh0SZYMcdwkX029RSK3ODbFpZq6VnxZ
LwIDAQABo4IBYzCCAV8wCQYDVR0TBAIwADAtBglghkgBhvhCAQ0EIBYeRWFzeS1S
U0EgR2VuZXJhdGVkIENlcnRpZmljYXRlMB0GA1UdDgQWBBT/qVUkKKY62egMT6u8
XCBdY90AWDCB4QYDVR0jBIHZMIHWgBQSzWAE0qCAnnDtxpm4eyzGUv0ZoaGBsqSB
rzCBrDELMAkGA1UEBhMCVVMxCzAJBgNVBAgTAk9IMREwDwYDVQQHEwhDb2x1bWJ1
czESMBAGA1UEChMJVmlraW5nVlBOMR0wGwYDVQQLExRNeU9yZ2FuaXphdGlvbmFs
VW5pdDEVMBMGA1UEAxMMVmlraW5nVlBOIENBMRAwDgYDVQQpEwdFYXN5UlNBMSEw
HwYJKoZIhvcNAQkBFhJtZUBteWhvc3QubXlkb21haW6CCQDPNYXugL8qPjATBgNV
HSUEDDAKBggrBgEFBQcDAjALBgNVHQ8EBAMCB4AwDQYJKoZIhvcNAQELBQADggIB
AASOGyFEGpt3pq1jzoDEH32KygNuL28SGxjL0G0KBtme/ehwneim0FOVMhhWvW2u
rkYPx+XsMbRBSHMTY92kX3xW/58ekLCV+60UXdjy821nBmephSTww102BjzW1cfo
MMLViuMYZB3Rx7pIABX8n7wjj9qQ+dxqkPVigLBB6WFSehDEjQf2XINO6LvXm7Go
CSu8mhhNuzh+bWSDaRqbTNS36m0Zx1Kh0HBWehjxMwaj6rjIdG0Z/ZHsrFJLRKP1
H7YYOARGqu1BUmQN3ifhJVsCBoFYpGCuRN+qEr7/EPHy8M0H5p8c3X7uz79nq29s
QQrUsL5qeHXdEvpWbrhoZLR75Hqijvf7EqjT1Vb8icArxdyFWWI2q7FwFlKRTvhh
dl88He0fLxMU9I3AW1e86vkXCutTfmLuOyMOwbwI+CLm0Edlo2GHIe3L1Tnnc9tS
Su0JpEi6Y4PgxLGZQ1YmCXMNepTq4XRXjFFXhPoZJASOPhrHKHZ8EOrwTSH1EsBa
30XVO5qSp+LGcJ7umefc1VS5naBJm5xD1NIMioMkbSre7OcpKM2cLt+nDaPyE99Q
bLDqPugfjYt2guW+dijAGnm/4sxNMEBW7TgiGkZ3Yqm2kXrTGcuPfuKThsjHx8w1
KMsOE5IHMKd16lEtbKxpMfZs/bTQ4fRLkwnFtCW9rmds
-----END CERTIFICATE-----
