Certificate:
    Data:
        Version: 3 (0x2)
        Serial Number: 3417 (0xd59)
    Signature Algorithm: md5WithRSAEncryption
        Issuer: C=US, ST=OH, L=Columbus, O=VikingVPN, OU=MyOrganizationalUnit, CN=VikingVPN CA/name=EasyRSA/emailAddress=me@myhost.mydomain
        Validity
            Not Before: Nov 17 00:32:43 2014 GMT
            Not After : Nov 14 00:32:43 2024 GMT
        Subject: CN=Client719Cert490c5d
        Subject Public Key Info:
            Public Key Algorithm: rsaEncryption
                Public-Key: (4096 bit)
                Modulus:
                    00:da:46:81:28:f5:a9:33:08:33:ed:53:95:4c:68:
                    66:58:b0:05:5f:6f:c6:71:d8:29:73:e5:f0:cd:a2:
                    6b:e3:5b:c0:d4:ad:6e:8b:74:5e:a8:14:87:8f:1e:
                    da:f7:50:fd:2a:e6:cc:c4:b8:2f:95:cf:66:ca:1a:
                    f8:47:f5:0e:f1:9d:2a:ab:b6:74:c4:72:47:a1:a0:
                    4c:9a:71:a5:7f:54:fb:4b:7a:93:ec:39:ea:ab:13:
                    95:62:84:d9:a9:6e:4e:58:4c:d3:57:4a:92:c0:64:
                    d0:e6:aa:e2:fe:ad:90:bd:14:29:e6:bf:9e:c3:8d:
                    df:77:9f:2d:ac:c1:e3:15:93:8a:58:46:e7:6d:4e:
                    62:5e:de:d7:e6:b5:b0:49:18:79:c6:c3:2e:ad:12:
                    81:74:69:be:9d:ab:ef:d7:2d:ac:ce:54:23:46:7f:
                    30:b9:da:c9:ab:0d:d5:b2:2c:52:36:ba:54:5c:01:
                    23:1c:62:94:76:41:df:51:d3:d3:56:7b:61:65:41:
                    61:78:7d:9b:86:9d:c5:86:ed:58:99:2f:bc:fe:30:
                    35:b4:d8:40:a4:5d:48:b1:74:92:94:df:71:6c:97:
                    07:7d:ff:41:fc:8c:65:38:a0:fd:b5:61:df:2d:aa:
                    d8:0a:77:2d:60:fd:96:6b:4d:65:70:2c:66:0f:0f:
                    8a:c4:34:fa:47:e4:d3:f2:98:0c:d8:fb:1b:60:14:
                    a2:76:78:4f:1e:d9:1c:bb:0c:f7:ca:0d:67:8d:2a:
                    13:22:e1:d2:9f:58:bf:f7:58:33:ef:f8:87:79:a2:
                    02:0a:33:92:9c:2b:8e:59:4e:2f:dd:58:f2:cd:17:
                    4a:67:82:d5:d0:37:22:84:fe:90:64:5a:60:dc:1c:
                    eb:a3:3d:47:d2:63:5a:9f:38:bb:03:05:ce:7a:9e:
                    ea:b2:96:32:fb:cc:52:d4:80:28:39:6d:15:34:0a:
                    68:8f:c8:85:cf:c6:58:98:82:68:84:82:d2:41:d1:
                    92:c5:5f:0a:8e:f5:bd:b6:1a:08:6c:94:8d:92:60:
                    c6:e9:d5:60:58:a4:a8:8e:19:8b:91:d3:92:6a:64:
                    9d:61:3d:7e:93:93:68:92:4d:f1:05:4e:06:89:ad:
                    87:c8:1e:7b:3b:53:1f:e5:c4:a7:8c:64:f7:2b:65:
                    41:09:be:dc:57:ad:47:f1:e4:a6:1a:79:86:26:1b:
                    98:4e:a8:1c:c2:33:85:36:26:1f:75:30:2a:3f:a3:
                    ed:92:86:d1:cd:49:1b:93:fa:69:a6:61:30:89:3a:
                    45:bf:df:3e:79:ca:ea:fa:4b:fc:4a:78:0a:fe:3b:
                    92:84:96:a2:b3:71:ab:2f:1d:00:78:b8:6a:96:2b:
                    8d:2b:6f
                Exponent: 65537 (0x10001)
        X509v3 extensions:
            X509v3 Basic Constraints: 
                CA:FALSE
            Netscape Comment: 
                Easy-RSA Generated Certificate
            X509v3 Subject Key Identifier: 
                C1:A6:AB:7A:93:51:B0:88:9B:B2:46:4A:AE:7D:B6:AC:90:99:21:48
            X509v3 Authority Key Identifier: 
                keyid:12:CD:60:04:D2:A0:80:9E:70:ED:C6:99:B8:7B:2C:C6:52:FD:19:A1
                DirName:/C=US/ST=OH/L=Columbus/O=VikingVPN/OU=MyOrganizationalUnit/CN=VikingVPN CA/name=EasyRSA/emailAddress=me@myhost.mydomain
                serial:CF:35:85:EE:80:BF:2A:3E

            X509v3 Extended Key Usage: 
                TLS Web Client Authentication
            X509v3 Key Usage: 
                Digital Signature
    Signature Algorithm: md5WithRSAEncryption
         72:d1:c5:57:94:f3:df:d0:cb:a2:20:12:ac:59:7e:1c:aa:00:
         f5:69:54:4c:4e:2d:75:3b:7b:8a:9f:43:f5:9b:cc:94:52:e6:
         84:68:1b:c0:e2:ab:9a:36:2f:1d:c6:31:43:fc:3b:7f:44:b2:
         af:9c:2c:1d:fc:d9:04:f3:07:cf:5c:19:e9:bd:cd:18:60:ea:
         86:03:e2:16:da:fa:87:0d:76:8c:a2:1c:0b:36:6c:2c:2a:48:
         2f:fe:02:42:42:1f:ac:82:91:8f:ff:2a:44:5e:86:a7:eb:aa:
         d3:bd:82:b7:3d:12:94:e4:66:a1:f1:42:ed:42:f8:5a:7e:1f:
         6f:5e:46:1f:74:09:05:06:ea:94:bc:e8:08:2c:6f:d4:0c:fe:
         96:64:d2:14:bc:df:bc:b0:da:c7:73:ca:17:c4:cf:17:1b:d7:
         2a:28:b4:cc:78:0e:64:fd:fd:90:d6:ed:eb:74:ea:84:e8:fe:
         27:6d:a0:eb:19:5d:6d:85:c6:39:11:b8:3b:45:c9:6a:a7:ff:
         a8:06:35:1c:6a:48:9a:30:12:01:84:ad:52:53:a4:61:be:37:
         bf:e6:da:89:cc:cc:e3:d6:23:22:51:8b:5a:eb:b8:fb:b1:8b:
         02:42:85:81:08:e7:dd:57:64:52:c6:dc:92:60:cb:44:4d:d1:
         e3:d9:09:80:8f:9c:6e:0a:f7:54:97:6e:4a:b4:e0:4e:8b:95:
         96:b4:64:65:ff:f4:2f:0e:79:65:45:b0:5c:dc:07:7a:b2:54:
         1f:5c:30:fe:28:83:45:f7:26:7b:31:26:2c:d9:e2:c7:0e:78:
         99:98:0a:a2:11:70:c2:6b:ef:9c:84:b6:20:a8:dc:4f:15:98:
         6c:dd:d9:a0:53:76:9c:02:21:e2:bc:51:de:61:5b:70:7c:4e:
         4e:df:2b:93:4b:a8:b3:7b:be:e1:6e:f4:ec:0a:f0:bf:bf:39:
         87:b6:e3:c1:64:16:9c:35:27:a4:07:7b:4e:97:65:aa:27:08:
         ba:9d:6d:63:d6:1e:fa:6f:f1:7f:5d:ae:ee:ba:73:11:a5:f1:
         18:35:30:2a:cb:3f:67:df:5c:2b:fd:49:c1:bc:6a:ab:95:cb:
         a0:32:83:19:29:a8:48:ae:ed:07:f6:59:f5:17:76:c8:f2:78:
         1d:0f:0a:b9:90:f3:b4:0f:b5:1d:69:01:22:7a:aa:08:59:57:
         ad:40:5e:5b:52:c9:49:44:26:a2:f0:10:54:4a:93:7d:f8:9d:
         7a:ee:f3:14:4c:b6:49:00:ba:ce:9e:76:89:ef:da:46:cd:2a:
         64:21:19:8b:fb:c7:ff:28:78:a3:6f:b2:fa:48:07:06:b0:ce:
         94:49:1d:03:4b:b6:35:58
-----BEGIN CERTIFICATE-----
MIIGrDCCBJSgAwIBAgICDVkwDQYJKoZIhvcNAQEEBQAwgawxCzAJBgNVBAYTAlVT
MQswCQYDVQQIEwJPSDERMA8GA1UEBxMIQ29sdW1idXMxEjAQBgNVBAoTCVZpa2lu
Z1ZQTjEdMBsGA1UECxMUTXlPcmdhbml6YXRpb25hbFVuaXQxFTATBgNVBAMTDFZp
a2luZ1ZQTiBDQTEQMA4GA1UEKRMHRWFzeVJTQTEhMB8GCSqGSIb3DQEJARYSbWVA
bXlob3N0Lm15ZG9tYWluMB4XDTE0MTExNzAwMzI0M1oXDTI0MTExNDAwMzI0M1ow
HjEcMBoGA1UEAxMTQ2xpZW50NzE5Q2VydDQ5MGM1ZDCCAiIwDQYJKoZIhvcNAQEB
BQADggIPADCCAgoCggIBANpGgSj1qTMIM+1TlUxoZliwBV9vxnHYKXPl8M2ia+Nb
wNStbot0XqgUh48e2vdQ/SrmzMS4L5XPZsoa+Ef1DvGdKqu2dMRyR6GgTJpxpX9U
+0t6k+w56qsTlWKE2aluTlhM01dKksBk0Oaq4v6tkL0UKea/nsON33efLazB4xWT
ilhG521OYl7e1+a1sEkYecbDLq0SgXRpvp2r79ctrM5UI0Z/MLnayasN1bIsUja6
VFwBIxxilHZB31HT01Z7YWVBYXh9m4adxYbtWJkvvP4wNbTYQKRdSLF0kpTfcWyX
B33/QfyMZTig/bVh3y2q2Ap3LWD9lmtNZXAsZg8PisQ0+kfk0/KYDNj7G2AUonZ4
Tx7ZHLsM98oNZ40qEyLh0p9Yv/dYM+/4h3miAgozkpwrjllOL91Y8s0XSmeC1dA3
IoT+kGRaYNwc66M9R9JjWp84uwMFznqe6rKWMvvMUtSAKDltFTQKaI/Ihc/GWJiC
aISC0kHRksVfCo71vbYaCGyUjZJgxunVYFikqI4Zi5HTkmpknWE9fpOTaJJN8QVO
Bomth8geeztTH+XEp4xk9ytlQQm+3FetR/Hkphp5hiYbmE6oHMIzhTYmH3UwKj+j
7ZKG0c1JG5P6aaZhMIk6Rb/fPnnK6vpL/Ep4Cv47koSWorNxqy8dAHi4apYrjStv
AgMBAAGjggFjMIIBXzAJBgNVHRMEAjAAMC0GCWCGSAGG+EIBDQQgFh5FYXN5LVJT
QSBHZW5lcmF0ZWQgQ2VydGlmaWNhdGUwHQYDVR0OBBYEFMGmq3qTUbCIm7JGSq59
tqyQmSFIMIHhBgNVHSMEgdkwgdaAFBLNYATSoICecO3Gmbh7LMZS/RmhoYGypIGv
MIGsMQswCQYDVQQGEwJVUzELMAkGA1UECBMCT0gxETAPBgNVBAcTCENvbHVtYnVz
MRIwEAYDVQQKEwlWaWtpbmdWUE4xHTAbBgNVBAsTFE15T3JnYW5pemF0aW9uYWxV
bml0MRUwEwYDVQQDEwxWaWtpbmdWUE4gQ0ExEDAOBgNVBCkTB0Vhc3lSU0ExITAf
BgkqhkiG9w0BCQEWEm1lQG15aG9zdC5teWRvbWFpboIJAM81he6Avyo+MBMGA1Ud
JQQMMAoGCCsGAQUFBwMCMAsGA1UdDwQEAwIHgDANBgkqhkiG9w0BAQQFAAOCAgEA
ctHFV5Tz39DLoiASrFl+HKoA9WlUTE4tdTt7ip9D9ZvMlFLmhGgbwOKrmjYvHcYx
Q/w7f0Syr5wsHfzZBPMHz1wZ6b3NGGDqhgPiFtr6hw12jKIcCzZsLCpIL/4CQkIf
rIKRj/8qRF6Gp+uq072Ctz0SlORmofFC7UL4Wn4fb15GH3QJBQbqlLzoCCxv1Az+
lmTSFLzfvLDax3PKF8TPFxvXKii0zHgOZP39kNbt63TqhOj+J22g6xldbYXGORG4
O0XJaqf/qAY1HGpImjASAYStUlOkYb43v+baiczM49YjIlGLWuu4+7GLAkKFgQjn
3VdkUsbckmDLRE3R49kJgI+cbgr3VJduSrTgTouVlrRkZf/0Lw55ZUWwXNwHerJU
H1ww/iiDRfcmezEmLNnixw54mZgKohFwwmvvnIS2IKjcTxWYbN3ZoFN2nAIh4rxR
3mFbcHxOTt8rk0uos3u+4W707Arwv785h7bjwWQWnDUnpAd7TpdlqicIup1tY9Ye
+m/xf12u7rpzEaXxGDUwKss/Z99cK/1Jwbxqq5XLoDKDGSmoSK7tB/ZZ9Rd2yPJ4
HQ8KuZDztA+1HWkBInqqCFlXrUBeW1LJSUQmovAQVEqTffideu7zFEy2SQC6zp52
ie/aRs0qZCEZi/vH/yh4o2+y+kgHBrDOlEkdA0u2NVg=
-----END CERTIFICATE-----
