Certificate:
    Data:
        Version: 3 (0x2)
        Serial Number: 10304 (0x2840)
    Signature Algorithm: sha256WithRSAEncryption
        Issuer: C=US, ST=OH, L=Columbus, O=VikingVPN, OU=MyOrganizationalUnit, CN=VikingVPN CA/name=EasyRSA/emailAddress=me@myhost.mydomain
        Validity
            Not Before: Mar 15 12:25:27 2017 GMT
            Not After : Mar 13 12:25:27 2027 GMT
        Subject: CN=Client2776Cert6e8fe0
        Subject Public Key Info:
            Public Key Algorithm: rsaEncryption
                Public-Key: (4096 bit)
                Modulus:
                    00:c7:90:09:ad:d1:bd:61:01:fb:22:10:d3:ad:64:
                    50:8b:67:61:bf:2b:10:cd:d0:72:15:37:fd:3a:d2:
                    60:cd:d9:47:95:2c:47:0a:0b:68:46:69:d9:30:9a:
                    1d:74:8c:7d:84:bf:b8:3a:de:63:21:12:1a:2e:52:
                    09:29:e7:dd:42:02:9e:e2:f0:2e:89:cf:43:da:c0:
                    92:bc:2e:b8:b1:1f:44:f8:6b:c7:b0:f2:df:f9:b1:
                    2e:fc:c6:32:98:0b:42:95:8a:64:76:a4:0c:e6:02:
                    a4:a3:e9:f8:5b:4f:87:f8:91:01:95:d4:a6:37:b8:
                    7d:94:ec:c5:6a:24:b9:f3:3c:35:2d:a6:2f:27:0d:
                    d4:47:0d:29:32:9e:71:fa:30:0f:c1:a6:8e:d1:3f:
                    6c:eb:76:dd:41:fd:42:68:8d:94:9b:e9:3f:75:81:
                    1a:4c:01:54:70:db:7f:32:a3:d3:0c:b3:c3:92:ce:
                    63:cb:3f:8c:cb:43:78:eb:be:a5:f8:d5:47:56:32:
                    d7:9a:48:9a:3c:2b:03:f4:e0:15:0c:03:bd:ca:d0:
                    79:1f:4b:a9:0a:bc:62:2f:7f:2b:56:fe:45:a0:cc:
                    29:98:e2:8f:09:ad:f4:0b:90:1f:6f:06:72:c9:78:
                    a0:2b:21:4e:3f:13:7d:f4:06:b0:20:6d:08:34:5d:
                    b5:f6:e3:4a:2d:7c:e6:02:4c:f7:eb:60:62:4d:7f:
                    2c:86:ba:84:fd:49:5d:73:c2:59:8d:4c:8f:c2:00:
                    17:53:02:af:cc:f5:96:b5:09:75:8c:18:af:83:e5:
                    07:3d:40:74:b5:32:e6:a6:e9:c7:1e:6e:23:6d:62:
                    1a:13:71:bf:8b:68:94:e1:33:04:0d:b5:86:7b:ce:
                    a4:d6:4b:08:d4:f6:e0:67:db:2f:e5:dd:bf:c6:29:
                    97:7d:9e:3f:c6:37:39:87:ef:be:68:36:88:d1:61:
                    67:03:95:08:59:c3:fa:e9:21:88:f7:61:ee:8b:5f:
                    0b:2a:22:23:9c:72:de:42:f2:02:5c:5a:b3:0e:84:
                    c6:9f:7e:29:b1:fe:50:4d:1e:73:30:84:3d:5f:fa:
                    b5:8a:65:77:14:6d:d0:f7:13:75:80:4c:c9:87:9d:
                    d8:3e:aa:23:1e:86:05:3a:5f:1b:4c:b7:c5:14:01:
                    5e:10:4f:32:e2:5e:31:6e:ef:3c:48:40:e4:c0:59:
                    ea:dc:12:44:d7:e0:0b:4a:0a:b0:42:f2:82:27:b5:
                    b2:28:7d:5e:c8:56:51:28:bb:95:e8:d6:43:55:0b:
                    e5:ec:5c:00:a2:02:bf:a0:b1:93:d5:5b:8b:1c:d6:
                    07:51:7c:bc:18:a0:11:e9:a4:8f:63:c5:74:5f:25:
                    5e:9f:69
                Exponent: 65537 (0x10001)
        X509v3 extensions:
            X509v3 Basic Constraints: 
                CA:FALSE
            Netscape Comment: 
                Easy-RSA Generated Certificate
            X509v3 Subject Key Identifier: 
                3D:E3:CC:08:7D:04:B4:0A:99:D0:A9:8F:D1:31:89:F7:4F:DA:8D:FC
            X509v3 Authority Key Identifier: 
                keyid:12:CD:60:04:D2:A0:80:9E:70:ED:C6:99:B8:7B:2C:C6:52:FD:19:A1
                DirName:/C=US/ST=OH/L=Columbus/O=VikingVPN/OU=MyOrganizationalUnit/CN=VikingVPN CA/name=EasyRSA/emailAddress=me@myhost.mydomain
                serial:CF:35:85:EE:80:BF:2A:3E

            X509v3 Extended Key Usage: 
                TLS Web Client Authentication
            X509v3 Key Usage: 
                Digital Signature
    Signature Algorithm: sha256WithRSAEncryption
         0c:8d:a5:16:14:be:c6:a9:f8:b2:71:a7:af:34:ac:0d:8d:29:
         a7:8c:68:27:ed:fe:08:ff:02:95:12:e0:9b:e0:03:aa:2d:e3:
         f4:37:70:ce:db:95:03:1d:9b:84:db:4c:85:aa:8c:12:a3:cf:
         9a:cc:78:83:fc:02:1b:50:67:6d:f2:11:92:56:64:f9:91:49:
         18:ce:d8:be:7d:d1:c4:fa:9e:9a:d5:a2:a3:4b:cc:66:f9:5e:
         88:60:3a:94:23:80:e8:d6:fb:24:39:7b:80:bb:40:5e:86:2c:
         17:a5:51:87:83:e4:e6:1a:b2:a8:28:91:c8:a0:a8:a1:f1:ef:
         ba:71:53:a6:14:ba:52:a5:3b:88:67:93:cd:68:4a:5f:a1:8c:
         06:62:df:96:49:29:0b:50:c3:6e:4c:e4:d7:11:f0:2d:93:0e:
         88:ce:a8:08:53:b3:5f:31:1a:f5:9c:4f:3b:ba:f0:a5:e5:06:
         a7:91:0e:fb:a6:ca:ae:a2:68:4b:ef:1e:e6:85:6f:02:4b:25:
         df:5b:a5:fc:95:0b:1a:9a:e3:cc:5f:35:18:f8:36:89:de:e4:
         5a:09:74:40:40:45:c4:c8:3c:0b:92:af:8d:5b:db:3f:ec:b8:
         a5:c1:0a:98:c7:ce:9d:2b:86:0a:a6:e4:fa:ad:cb:6a:07:1d:
         d0:c2:6f:e6:6f:5b:70:e6:20:4d:f5:b8:0a:93:5f:a1:df:c6:
         ba:d5:52:fe:9a:da:5b:3b:2d:bc:7b:2b:ce:55:75:cc:24:09:
         9f:98:18:b7:74:d0:93:02:ae:89:ba:b5:76:38:5a:54:b5:57:
         d2:1e:17:d9:1a:c8:55:94:40:09:db:f4:ed:75:29:f9:2c:83:
         6a:27:65:55:ab:10:89:45:59:62:4d:35:99:0e:79:b7:8f:13:
         73:d3:9b:76:09:30:a5:7b:0c:0b:f9:96:0e:71:c7:c8:f3:3b:
         2c:e3:64:6d:c9:09:f5:05:c6:a6:43:92:79:ff:38:7c:78:4b:
         db:25:89:71:0c:23:9e:52:77:c5:be:7b:e8:5e:6f:04:a4:87:
         6d:cf:03:20:33:f8:4a:ec:54:d6:34:d4:30:7e:80:75:2f:cf:
         22:1a:21:0c:de:1f:70:17:45:e1:b9:9d:4f:30:96:6f:5e:19:
         7c:8c:74:2b:d6:d3:8f:a1:fc:0a:fc:38:e0:32:4b:b7:97:e7:
         03:f9:9f:bc:29:eb:f2:49:2b:31:29:65:26:0e:ce:c0:62:be:
         c8:d9:b4:5e:72:b9:68:5e:87:85:ca:73:7b:a5:23:ee:8b:2a:
         a8:04:78:7d:37:de:99:92:04:a2:76:0f:61:c4:44:62:ff:43:
         20:a9:09:26:96:e0:13:27
-----BEGIN CERTIFICATE-----
MIIGrTCCBJWgAwIBAgICKEAwDQYJKoZIhvcNAQELBQAwgawxCzAJBgNVBAYTAlVT
MQswCQYDVQQIEwJPSDERMA8GA1UEBxMIQ29sdW1idXMxEjAQBgNVBAoTCVZpa2lu
Z1ZQTjEdMBsGA1UECxMUTXlPcmdhbml6YXRpb25hbFVuaXQxFTATBgNVBAMTDFZp
a2luZ1ZQTiBDQTEQMA4GA1UEKRMHRWFzeVJTQTEhMB8GCSqGSIb3DQEJARYSbWVA
bXlob3N0Lm15ZG9tYWluMB4XDTE3MDMxNTEyMjUyN1oXDTI3MDMxMzEyMjUyN1ow
HzEdMBsGA1UEAxMUQ2xpZW50Mjc3NkNlcnQ2ZThmZTAwggIiMA0GCSqGSIb3DQEB
AQUAA4ICDwAwggIKAoICAQDHkAmt0b1hAfsiENOtZFCLZ2G/KxDN0HIVN/060mDN
2UeVLEcKC2hGadkwmh10jH2Ev7g63mMhEhouUgkp591CAp7i8C6Jz0PawJK8Lrix
H0T4a8ew8t/5sS78xjKYC0KVimR2pAzmAqSj6fhbT4f4kQGV1KY3uH2U7MVqJLnz
PDUtpi8nDdRHDSkynnH6MA/Bpo7RP2zrdt1B/UJojZSb6T91gRpMAVRw238yo9MM
s8OSzmPLP4zLQ3jrvqX41UdWMteaSJo8KwP04BUMA73K0HkfS6kKvGIvfytW/kWg
zCmY4o8JrfQLkB9vBnLJeKArIU4/E330BrAgbQg0XbX240otfOYCTPfrYGJNfyyG
uoT9SV1zwlmNTI/CABdTAq/M9Za1CXWMGK+D5Qc9QHS1Muam6ccebiNtYhoTcb+L
aJThMwQNtYZ7zqTWSwjU9uBn2y/l3b/GKZd9nj/GNzmH775oNojRYWcDlQhZw/rp
IYj3Ye6LXwsqIiOcct5C8gJcWrMOhMaffimx/lBNHnMwhD1f+rWKZXcUbdD3E3WA
TMmHndg+qiMehgU6XxtMt8UUAV4QTzLiXjFu7zxIQOTAWercEkTX4AtKCrBC8oIn
tbIofV7IVlEou5Xo1kNVC+XsXACiAr+gsZPVW4sc1gdRfLwYoBHppI9jxXRfJV6f
aQIDAQABo4IBYzCCAV8wCQYDVR0TBAIwADAtBglghkgBhvhCAQ0EIBYeRWFzeS1S
U0EgR2VuZXJhdGVkIENlcnRpZmljYXRlMB0GA1UdDgQWBBQ948wIfQS0CpnQqY/R
MYn3T9qN/DCB4QYDVR0jBIHZMIHWgBQSzWAE0qCAnnDtxpm4eyzGUv0ZoaGBsqSB
rzCBrDELMAkGA1UEBhMCVVMxCzAJBgNVBAgTAk9IMREwDwYDVQQHEwhDb2x1bWJ1
czESMBAGA1UEChMJVmlraW5nVlBOMR0wGwYDVQQLExRNeU9yZ2FuaXphdGlvbmFs
VW5pdDEVMBMGA1UEAxMMVmlraW5nVlBOIENBMRAwDgYDVQQpEwdFYXN5UlNBMSEw
HwYJKoZIhvcNAQkBFhJtZUBteWhvc3QubXlkb21haW6CCQDPNYXugL8qPjATBgNV
HSUEDDAKBggrBgEFBQcDAjALBgNVHQ8EBAMCB4AwDQYJKoZIhvcNAQELBQADggIB
AAyNpRYUvsap+LJxp680rA2NKaeMaCft/gj/ApUS4JvgA6ot4/Q3cM7blQMdm4Tb
TIWqjBKjz5rMeIP8AhtQZ23yEZJWZPmRSRjO2L590cT6nprVoqNLzGb5XohgOpQj
gOjW+yQ5e4C7QF6GLBelUYeD5OYasqgokcigqKHx77pxU6YUulKlO4hnk81oSl+h
jAZi35ZJKQtQw25M5NcR8C2TDojOqAhTs18xGvWcTzu68KXlBqeRDvumyq6iaEvv
HuaFbwJLJd9bpfyVCxqa48xfNRj4None5FoJdEBARcTIPAuSr41b2z/suKXBCpjH
zp0rhgqm5Pqty2oHHdDCb+ZvW3DmIE31uAqTX6HfxrrVUv6a2ls7Lbx7K85Vdcwk
CZ+YGLd00JMCrom6tXY4WlS1V9IeF9kayFWUQAnb9O11Kfksg2onZVWrEIlFWWJN
NZkOebePE3PTm3YJMKV7DAv5lg5xx8jzOyzjZG3JCfUFxqZDknn/OHx4S9sliXEM
I55Sd8W+e+hebwSkh23PAyAz+ErsVNY01DB+gHUvzyIaIQzeH3AXReG5nU8wlm9e
GXyMdCvW04+h/Ar8OOAyS7eX5wP5n7wp6/JJKzEpZSYOzsBivsjZtF5yuWheh4XK
c3ulI+6LKqgEeH033pmSBKJ2D2HERGL/QyCpCSaW4BMn
-----END CERTIFICATE-----
