Certificate:
    Data:
        Version: 3 (0x2)
        Serial Number: 8783 (0x224f)
    Signature Algorithm: sha256WithRSAEncryption
        Issuer: C=US, ST=OH, L=Columbus, O=VikingVPN, OU=MyOrganizationalUnit, CN=VikingVPN CA/name=EasyRSA/emailAddress=me@myhost.mydomain
        Validity
            Not Before: Aug 15 14:10:07 2016 GMT
            Not After : Aug 13 14:10:07 2026 GMT
        Subject: CN=Client2225Cert395163
        Subject Public Key Info:
            Public Key Algorithm: rsaEncryption
                Public-Key: (4096 bit)
                Modulus:
                    00:c5:f3:37:55:6e:59:65:34:a5:40:be:65:21:b9:
                    5b:87:3a:8a:01:69:32:dd:da:c0:da:38:93:e9:19:
                    ac:05:78:e9:60:86:38:d9:2f:63:75:bb:88:33:56:
                    ea:15:10:f4:69:a4:07:b7:b0:4c:f2:2a:98:f5:6d:
                    f4:71:c9:98:11:90:d7:8a:99:44:8b:8d:58:40:5b:
                    c9:5d:3b:f9:e0:e3:cd:ad:c9:60:16:12:bb:7c:df:
                    ce:04:9c:b4:28:1e:01:77:78:c2:0b:f6:60:b3:a3:
                    e1:61:61:a4:8c:8b:78:71:d6:26:15:6a:01:da:17:
                    c5:1d:d4:d1:36:ba:73:41:7c:7c:ad:c0:47:20:6c:
                    aa:c0:00:d4:7c:81:02:fa:90:3d:98:25:21:65:57:
                    db:53:6a:7c:d1:3a:e3:01:d9:c5:1a:3e:6d:bc:45:
                    82:de:50:7f:2a:3f:d2:89:7b:e2:41:3b:7c:7d:0a:
                    bc:6a:d9:41:fa:1d:76:03:11:04:16:5d:cd:8b:9e:
                    55:90:23:94:68:ec:22:60:ea:26:4e:02:b1:41:c1:
                    6d:4f:26:31:27:ac:66:ff:63:26:f7:78:e2:c9:c2:
                    b7:a7:99:2a:48:62:dd:55:3c:5d:77:f2:2a:80:4d:
                    4a:2a:80:db:98:3d:8f:69:1e:3c:e3:8d:f1:2a:11:
                    ce:6f:18:c5:8f:0d:45:21:18:5b:b1:37:24:f8:77:
                    91:54:08:c2:4f:5a:20:86:3b:8b:92:40:87:35:0b:
                    ff:01:2d:62:8a:80:a7:fb:37:1a:25:89:4f:83:5e:
                    07:dc:91:aa:65:e6:98:01:e0:67:29:46:c1:ce:2b:
                    c1:8e:04:ca:b6:68:2b:fb:1c:39:64:be:97:45:78:
                    66:8b:62:38:e2:86:02:0f:95:5d:c2:6c:a8:3f:79:
                    ad:ea:b8:4f:5c:65:90:39:a6:77:10:1b:0c:16:fe:
                    6a:13:46:68:4d:02:72:b8:6f:44:ea:30:47:60:42:
                    38:46:1a:39:ac:66:a6:22:d1:8b:10:e5:0f:4f:c7:
                    c7:78:cd:58:ad:44:60:e6:07:c6:27:c3:49:54:32:
                    f5:2c:06:c4:8d:46:eb:ae:7b:0d:2b:2e:d4:33:03:
                    89:27:4e:04:4a:34:04:e7:46:5f:94:10:1f:4a:19:
                    4f:26:7c:ad:5b:35:7c:df:c4:7d:da:e1:a3:ab:ce:
                    a8:a7:ca:84:03:be:41:e5:08:dd:30:c9:6b:82:8a:
                    93:32:bf:86:a9:f8:e2:1c:e1:d5:55:b4:a8:bb:b4:
                    46:e6:d0:e1:64:d2:82:3e:80:44:09:96:5a:ae:59:
                    06:d8:fe:cf:7b:5f:8f:5c:dd:5f:5c:da:07:08:61:
                    f7:0f:af
                Exponent: 65537 (0x10001)
        X509v3 extensions:
            X509v3 Basic Constraints: 
                CA:FALSE
            Netscape Comment: 
                Easy-RSA Generated Certificate
            X509v3 Subject Key Identifier: 
                D1:D1:70:F3:67:09:0D:D2:84:96:CC:E0:44:83:AA:3D:2D:DD:32:40
            X509v3 Authority Key Identifier: 
                keyid:12:CD:60:04:D2:A0:80:9E:70:ED:C6:99:B8:7B:2C:C6:52:FD:19:A1
                DirName:/C=US/ST=OH/L=Columbus/O=VikingVPN/OU=MyOrganizationalUnit/CN=VikingVPN CA/name=EasyRSA/emailAddress=me@myhost.mydomain
                serial:CF:35:85:EE:80:BF:2A:3E

            X509v3 Extended Key Usage: 
                TLS Web Client Authentication
            X509v3 Key Usage: 
                Digital Signature
    Signature Algorithm: sha256WithRSAEncryption
         21:b7:97:b1:51:fc:30:dc:5f:6a:72:55:56:34:86:c3:0a:58:
         1f:76:12:dd:26:b6:5a:2b:a9:0e:74:4d:43:fe:38:b1:cf:70:
         1b:38:50:47:d5:57:af:09:2c:ca:49:a3:16:fa:b4:95:0c:b2:
         96:6c:a4:e0:af:87:6d:f8:1c:5c:50:af:83:a9:72:74:db:67:
         3d:14:d4:71:7e:08:2d:9e:fe:69:11:73:ac:b6:e6:64:38:72:
         ef:89:84:4b:56:29:98:20:6f:26:00:f0:64:de:51:93:36:e9:
         45:22:fc:26:c1:05:bc:ea:dc:4f:6e:fa:b9:29:e3:8d:ca:30:
         6b:3f:57:9d:bb:25:aa:0c:8c:03:35:7f:25:ba:b9:3c:e2:22:
         f3:0a:9c:b7:5e:9b:41:00:83:55:8e:5e:f7:ee:95:5a:52:fd:
         0e:2d:e3:76:eb:87:bf:be:c9:5c:41:9b:18:d4:e0:ae:3f:77:
         7c:31:13:5e:19:c0:7a:15:86:ef:f1:d9:97:e7:6e:e0:5e:25:
         5a:c1:a4:56:2d:e7:51:63:5a:ad:7d:68:08:96:5f:77:e3:ea:
         9d:39:f3:ff:c6:2f:ca:95:55:82:f6:fb:82:b9:99:40:ab:1c:
         19:f0:39:f0:8d:d5:d6:54:8c:19:82:fd:e0:5a:9e:99:93:2a:
         e4:72:01:a5:13:18:07:9a:0d:3d:4f:ca:24:bb:c8:0f:9e:5a:
         26:2a:07:14:56:f7:80:a1:45:0f:e0:29:4b:77:14:b3:c0:5d:
         d5:bf:0e:01:28:85:16:e6:57:84:16:f6:c6:5c:9a:95:3c:5d:
         27:cc:5a:76:2a:3c:75:5d:35:f8:40:86:cb:cb:d7:c9:4a:13:
         0d:8d:3a:f6:34:91:69:03:94:56:c1:1c:15:0a:0c:40:9a:30:
         31:f8:a2:eb:1d:9b:d4:4c:ab:8f:73:68:1e:28:0f:10:26:2c:
         47:f7:5a:e6:cf:b2:64:ac:78:42:fc:55:97:d0:da:67:52:27:
         c0:55:cf:1a:ef:3a:9d:8e:ce:df:f9:31:36:cd:82:ea:cf:8b:
         9b:c2:67:6a:95:be:51:49:bf:e2:80:8f:dc:f5:96:18:44:b3:
         1d:d5:63:e8:65:0f:ed:dd:83:c1:6b:0e:bd:9c:10:c4:31:fc:
         dc:48:0c:a9:8e:63:17:7b:67:4a:e5:2b:af:69:5b:91:7a:31:
         f7:ae:4b:0c:be:25:16:e4:05:c2:cb:08:5f:42:a3:36:e3:1a:
         d0:6b:36:1e:51:8f:df:92:85:93:1e:f5:fd:d4:48:c6:00:c1:
         23:2b:d9:5b:f2:11:e2:69:60:b1:1c:72:5d:47:15:f9:cd:d9:
         2c:20:54:8c:dc:ab:c8:be
-----BEGIN CERTIFICATE-----
MIIGrTCCBJWgAwIBAgICIk8wDQYJKoZIhvcNAQELBQAwgawxCzAJBgNVBAYTAlVT
MQswCQYDVQQIEwJPSDERMA8GA1UEBxMIQ29sdW1idXMxEjAQBgNVBAoTCVZpa2lu
Z1ZQTjEdMBsGA1UECxMUTXlPcmdhbml6YXRpb25hbFVuaXQxFTATBgNVBAMTDFZp
a2luZ1ZQTiBDQTEQMA4GA1UEKRMHRWFzeVJTQTEhMB8GCSqGSIb3DQEJARYSbWVA
bXlob3N0Lm15ZG9tYWluMB4XDTE2MDgxNTE0MTAwN1oXDTI2MDgxMzE0MTAwN1ow
HzEdMBsGA1UEAxMUQ2xpZW50MjIyNUNlcnQzOTUxNjMwggIiMA0GCSqGSIb3DQEB
AQUAA4ICDwAwggIKAoICAQDF8zdVblllNKVAvmUhuVuHOooBaTLd2sDaOJPpGawF
eOlghjjZL2N1u4gzVuoVEPRppAe3sEzyKpj1bfRxyZgRkNeKmUSLjVhAW8ldO/ng
482tyWAWErt8384EnLQoHgF3eMIL9mCzo+FhYaSMi3hx1iYVagHaF8Ud1NE2unNB
fHytwEcgbKrAANR8gQL6kD2YJSFlV9tTanzROuMB2cUaPm28RYLeUH8qP9KJe+JB
O3x9Crxq2UH6HXYDEQQWXc2LnlWQI5Ro7CJg6iZOArFBwW1PJjEnrGb/Yyb3eOLJ
wrenmSpIYt1VPF138iqATUoqgNuYPY9pHjzjjfEqEc5vGMWPDUUhGFuxNyT4d5FU
CMJPWiCGO4uSQIc1C/8BLWKKgKf7NxoliU+DXgfckapl5pgB4GcpRsHOK8GOBMq2
aCv7HDlkvpdFeGaLYjjihgIPlV3CbKg/ea3quE9cZZA5pncQGwwW/moTRmhNAnK4
b0TqMEdgQjhGGjmsZqYi0YsQ5Q9Px8d4zVitRGDmB8Ynw0lUMvUsBsSNRuuuew0r
LtQzA4knTgRKNATnRl+UEB9KGU8mfK1bNXzfxH3a4aOrzqinyoQDvkHlCN0wyWuC
ipMyv4ap+OIc4dVVtKi7tEbm0OFk0oI+gEQJllquWQbY/s97X49c3V9c2gcIYfcP
rwIDAQABo4IBYzCCAV8wCQYDVR0TBAIwADAtBglghkgBhvhCAQ0EIBYeRWFzeS1S
U0EgR2VuZXJhdGVkIENlcnRpZmljYXRlMB0GA1UdDgQWBBTR0XDzZwkN0oSWzOBE
g6o9Ld0yQDCB4QYDVR0jBIHZMIHWgBQSzWAE0qCAnnDtxpm4eyzGUv0ZoaGBsqSB
rzCBrDELMAkGA1UEBhMCVVMxCzAJBgNVBAgTAk9IMREwDwYDVQQHEwhDb2x1bWJ1
czESMBAGA1UEChMJVmlraW5nVlBOMR0wGwYDVQQLExRNeU9yZ2FuaXphdGlvbmFs
VW5pdDEVMBMGA1UEAxMMVmlraW5nVlBOIENBMRAwDgYDVQQpEwdFYXN5UlNBMSEw
HwYJKoZIhvcNAQkBFhJtZUBteWhvc3QubXlkb21haW6CCQDPNYXugL8qPjATBgNV
HSUEDDAKBggrBgEFBQcDAjALBgNVHQ8EBAMCB4AwDQYJKoZIhvcNAQELBQADggIB
ACG3l7FR/DDcX2pyVVY0hsMKWB92Et0mtlorqQ50TUP+OLHPcBs4UEfVV68JLMpJ
oxb6tJUMspZspOCvh234HFxQr4OpcnTbZz0U1HF+CC2e/mkRc6y25mQ4cu+JhEtW
KZggbyYA8GTeUZM26UUi/CbBBbzq3E9u+rkp443KMGs/V527JaoMjAM1fyW6uTzi
IvMKnLdem0EAg1WOXvfulVpS/Q4t43brh7++yVxBmxjU4K4/d3wxE14ZwHoVhu/x
2ZfnbuBeJVrBpFYt51FjWq19aAiWX3fj6p058//GL8qVVYL2+4K5mUCrHBnwOfCN
1dZUjBmC/eBanpmTKuRyAaUTGAeaDT1PyiS7yA+eWiYqBxRW94ChRQ/gKUt3FLPA
XdW/DgEohRbmV4QW9sZcmpU8XSfMWnYqPHVdNfhAhsvL18lKEw2NOvY0kWkDlFbB
HBUKDECaMDH4ousdm9RMq49zaB4oDxAmLEf3WubPsmSseEL8VZfQ2mdSJ8BVzxrv
Op2Ozt/5MTbNgurPi5vCZ2qVvlFJv+KAj9z1lhhEsx3VY+hlD+3dg8FrDr2cEMQx
/NxIDKmOYxd7Z0rlK69pW5F6MfeuSwy+JRbkBcLLCF9CozbjGtBrNh5Rj9+ShZMe
9f3USMYAwSMr2VvyEeJpYLEccl1HFfnN2SwgVIzcq8i+
-----END CERTIFICATE-----
