Certificate:
    Data:
        Version: 3 (0x2)
        Serial Number: 2711 (0xa97)
    Signature Algorithm: md5WithRSAEncryption
        Issuer: C=US, ST=OH, L=Columbus, O=VikingVPN, OU=MyOrganizationalUnit, CN=VikingVPN CA/name=EasyRSA/emailAddress=me@myhost.mydomain
        Validity
            Not Before: Aug 29 17:43:11 2014 GMT
            Not After : Aug 26 17:43:11 2024 GMT
        Subject: CN=Client942Certc64dd6
        Subject Public Key Info:
            Public Key Algorithm: rsaEncryption
                Public-Key: (4096 bit)
                Modulus:
                    00:c1:ae:01:e3:c0:fd:8f:b7:11:8d:48:02:2f:7c:
                    9a:5e:a7:e7:f4:e4:7c:c3:d8:1a:df:e4:f4:4d:7f:
                    93:ac:3e:c3:1d:3e:36:e6:59:80:e8:4d:33:29:77:
                    02:4e:f6:fe:4a:a8:f9:18:a3:f1:23:4d:eb:dd:33:
                    97:61:f5:71:33:36:fb:5d:97:08:72:e4:c2:ff:e2:
                    16:a8:e5:5b:34:8f:4c:50:d8:2c:2b:40:12:1b:e2:
                    91:e8:c1:f1:d4:4d:50:8d:3c:56:34:a2:7e:df:fc:
                    05:0e:7b:a1:dd:2d:c4:7d:92:9b:87:ae:73:db:c8:
                    95:e2:9b:61:55:04:c8:02:9f:33:34:00:d9:c3:cf:
                    0d:0a:5d:62:97:be:77:6d:61:cc:6e:86:7f:9b:3b:
                    3f:53:45:3f:b8:f7:91:99:e7:9a:5f:93:40:93:67:
                    a3:70:e2:be:a5:a3:04:22:39:42:85:6a:9a:0c:f4:
                    a7:d5:70:a8:ad:5d:06:7a:ab:d4:a2:64:c9:6b:76:
                    be:d5:e9:aa:06:ba:4f:44:d6:09:bc:c8:1d:03:ef:
                    67:5b:ef:af:7d:7a:c7:56:64:d9:11:46:7d:9f:24:
                    ba:25:0b:17:d9:9a:77:be:c8:4b:aa:0e:bb:ae:62:
                    58:1a:b0:1e:2d:dd:d5:64:10:23:ac:6b:bf:3b:ab:
                    7f:2f:7b:77:2f:5e:7c:c9:a5:5a:de:33:b7:d3:93:
                    fa:cf:43:90:82:75:f2:79:f5:c9:5c:68:c4:c9:12:
                    da:05:e7:b6:a5:a3:68:9e:fa:c2:54:79:ad:36:39:
                    7b:a4:3a:12:47:6f:59:0b:4e:93:cf:9c:58:97:e0:
                    9f:7f:ba:94:3a:2b:49:e2:01:2d:70:5c:67:f8:2b:
                    17:b0:97:ca:30:ec:61:63:a9:fe:04:00:61:9e:f5:
                    c3:8b:97:38:40:ac:9e:a4:0a:10:fc:f9:73:b5:7a:
                    c0:62:22:d0:6c:c1:23:75:45:fd:26:4c:8f:ab:38:
                    1a:8d:32:43:80:0e:9c:9c:f2:2d:31:38:e4:12:57:
                    38:d1:31:34:68:00:22:e5:2e:04:8a:97:b2:8c:0f:
                    fa:ce:e6:2f:dd:e4:32:4a:a8:a5:d2:6b:80:5b:62:
                    db:82:cb:51:2b:98:bc:d1:0a:80:3a:be:01:73:ef:
                    9a:59:88:f9:77:dd:ef:7c:94:80:50:25:f8:98:d8:
                    a3:32:3a:e4:8b:ef:64:88:d7:1b:8c:a1:dc:9a:57:
                    e6:06:0b:e8:74:ab:2a:a5:ff:82:3e:bf:7f:72:81:
                    36:bb:98:dd:33:8a:9b:58:80:dc:17:02:78:b1:40:
                    c1:32:92:01:ed:37:72:cf:cd:7a:cc:4a:dc:82:a6:
                    95:25:5d
                Exponent: 65537 (0x10001)
        X509v3 extensions:
            X509v3 Basic Constraints: 
                CA:FALSE
            Netscape Comment: 
                Easy-RSA Generated Certificate
            X509v3 Subject Key Identifier: 
                BB:E7:99:AE:88:01:E8:CA:D2:B1:D9:32:27:44:A3:2B:9E:69:D8:6F
            X509v3 Authority Key Identifier: 
                keyid:12:CD:60:04:D2:A0:80:9E:70:ED:C6:99:B8:7B:2C:C6:52:FD:19:A1
                DirName:/C=US/ST=OH/L=Columbus/O=VikingVPN/OU=MyOrganizationalUnit/CN=VikingVPN CA/name=EasyRSA/emailAddress=me@myhost.mydomain
                serial:CF:35:85:EE:80:BF:2A:3E

            X509v3 Extended Key Usage: 
                TLS Web Client Authentication
            X509v3 Key Usage: 
                Digital Signature
    Signature Algorithm: md5WithRSAEncryption
         26:a4:96:14:bd:ca:44:bc:b9:2f:3e:c9:07:d4:9a:0b:ad:26:
         b5:38:c5:40:02:5a:6d:52:9e:5d:42:2d:1d:d7:b8:e4:4b:51:
         95:21:22:6f:77:5e:93:ed:d6:fb:28:a8:df:34:cf:bb:33:f5:
         83:c8:f0:e2:c4:46:94:43:e8:c1:3a:1b:b3:92:e3:43:f5:d9:
         c7:84:26:9b:13:ba:c5:6b:f2:c4:c3:ce:0b:83:81:e3:31:55:
         9b:dc:97:ac:ed:1f:9e:85:1e:7f:0f:cb:37:82:8b:2e:8c:7c:
         d9:58:11:d1:bb:3a:f3:c6:7c:b7:a8:5a:90:0b:7e:c9:1c:b6:
         d0:c4:9e:9c:6c:48:e6:5b:a7:76:e1:09:5c:eb:8d:6e:54:12:
         ab:09:60:13:34:55:d2:c9:4a:3b:0f:d2:ae:03:6c:03:76:d8:
         60:d1:12:c5:40:74:11:b6:84:93:9f:25:15:b7:9d:05:fc:e7:
         e4:19:38:84:e6:95:a3:6e:15:c0:20:b8:eb:bd:52:d7:e7:41:
         1d:8b:52:25:f5:36:4a:4f:fe:83:cb:4e:18:d0:2c:26:82:2a:
         74:78:f5:ad:15:25:c9:0e:86:31:43:29:96:d0:e4:4d:16:53:
         0f:40:a4:9b:d0:9d:a6:92:81:8f:52:78:9b:a3:61:26:67:6c:
         a3:10:1d:ab:ef:bd:80:2a:90:d7:c0:3f:e6:cc:63:9e:c3:49:
         4a:ad:e2:57:9c:1e:a6:10:b3:9e:5b:85:c5:c3:c1:4c:4f:16:
         3b:a6:6b:1c:80:43:69:f0:d6:5a:13:df:34:ba:69:b0:52:5d:
         d0:33:ff:93:60:19:e3:33:37:9c:c9:c3:70:d4:ef:c6:85:86:
         97:e5:57:78:f3:8d:74:ac:42:3c:4c:60:ef:ff:77:65:e0:59:
         45:b4:16:b2:62:db:d2:4c:2f:8b:bd:ec:a6:8d:23:d4:52:cf:
         c4:63:dc:f4:02:79:a9:14:94:bc:01:8f:df:2c:69:28:b9:86:
         d5:49:7b:d7:90:ea:91:41:56:4a:02:70:cb:42:9d:e1:e8:f7:
         e1:bf:48:d0:b4:ac:fe:fd:f8:ec:3f:f8:f0:84:4f:10:97:84:
         e3:04:51:32:40:44:b3:dc:f2:75:6d:f4:52:88:6a:c1:5f:20:
         f4:4a:fa:f4:ef:ce:00:70:29:fa:cf:36:8e:f4:74:e0:ae:d7:
         8f:68:d8:24:05:66:4f:e7:94:10:15:ca:84:3c:23:42:ae:ad:
         0f:1b:bd:3b:90:cc:2f:b3:dd:01:37:69:04:a8:99:36:0a:39:
         f6:a7:a4:6f:e5:5f:ef:b4:33:22:f8:18:87:ea:c2:d3:23:52:
         e2:fb:c4:3f:92:60:90:82
-----BEGIN CERTIFICATE-----
MIIGrDCCBJSgAwIBAgICCpcwDQYJKoZIhvcNAQEEBQAwgawxCzAJBgNVBAYTAlVT
MQswCQYDVQQIEwJPSDERMA8GA1UEBxMIQ29sdW1idXMxEjAQBgNVBAoTCVZpa2lu
Z1ZQTjEdMBsGA1UECxMUTXlPcmdhbml6YXRpb25hbFVuaXQxFTATBgNVBAMTDFZp
a2luZ1ZQTiBDQTEQMA4GA1UEKRMHRWFzeVJTQTEhMB8GCSqGSIb3DQEJARYSbWVA
bXlob3N0Lm15ZG9tYWluMB4XDTE0MDgyOTE3NDMxMVoXDTI0MDgyNjE3NDMxMVow
HjEcMBoGA1UEAxMTQ2xpZW50OTQyQ2VydGM2NGRkNjCCAiIwDQYJKoZIhvcNAQEB
BQADggIPADCCAgoCggIBAMGuAePA/Y+3EY1IAi98ml6n5/TkfMPYGt/k9E1/k6w+
wx0+NuZZgOhNMyl3Ak72/kqo+Rij8SNN690zl2H1cTM2+12XCHLkwv/iFqjlWzSP
TFDYLCtAEhvikejB8dRNUI08VjSift/8BQ57od0txH2Sm4euc9vIleKbYVUEyAKf
MzQA2cPPDQpdYpe+d21hzG6Gf5s7P1NFP7j3kZnnml+TQJNno3DivqWjBCI5QoVq
mgz0p9VwqK1dBnqr1KJkyWt2vtXpqga6T0TWCbzIHQPvZ1vvr316x1Zk2RFGfZ8k
uiULF9mad77IS6oOu65iWBqwHi3d1WQQI6xrvzurfy97dy9efMmlWt4zt9OT+s9D
kIJ18nn1yVxoxMkS2gXntqWjaJ76wlR5rTY5e6Q6EkdvWQtOk8+cWJfgn3+6lDor
SeIBLXBcZ/grF7CXyjDsYWOp/gQAYZ71w4uXOECsnqQKEPz5c7V6wGIi0GzBI3VF
/SZMj6s4Go0yQ4AOnJzyLTE45BJXONExNGgAIuUuBIqXsowP+s7mL93kMkqopdJr
gFti24LLUSuYvNEKgDq+AXPvmlmI+Xfd73yUgFAl+JjYozI65IvvZIjXG4yh3JpX
5gYL6HSrKqX/gj6/f3KBNruY3TOKm1iA3BcCeLFAwTKSAe03cs/NesxK3IKmlSVd
AgMBAAGjggFjMIIBXzAJBgNVHRMEAjAAMC0GCWCGSAGG+EIBDQQgFh5FYXN5LVJT
QSBHZW5lcmF0ZWQgQ2VydGlmaWNhdGUwHQYDVR0OBBYEFLvnma6IAejK0rHZMidE
oyueadhvMIHhBgNVHSMEgdkwgdaAFBLNYATSoICecO3Gmbh7LMZS/RmhoYGypIGv
MIGsMQswCQYDVQQGEwJVUzELMAkGA1UECBMCT0gxETAPBgNVBAcTCENvbHVtYnVz
MRIwEAYDVQQKEwlWaWtpbmdWUE4xHTAbBgNVBAsTFE15T3JnYW5pemF0aW9uYWxV
bml0MRUwEwYDVQQDEwxWaWtpbmdWUE4gQ0ExEDAOBgNVBCkTB0Vhc3lSU0ExITAf
BgkqhkiG9w0BCQEWEm1lQG15aG9zdC5teWRvbWFpboIJAM81he6Avyo+MBMGA1Ud
JQQMMAoGCCsGAQUFBwMCMAsGA1UdDwQEAwIHgDANBgkqhkiG9w0BAQQFAAOCAgEA
JqSWFL3KRLy5Lz7JB9SaC60mtTjFQAJabVKeXUItHde45EtRlSEib3dek+3W+yio
3zTPuzP1g8jw4sRGlEPowTobs5LjQ/XZx4QmmxO6xWvyxMPOC4OB4zFVm9yXrO0f
noUefw/LN4KLLox82VgR0bs688Z8t6hakAt+yRy20MSenGxI5lunduEJXOuNblQS
qwlgEzRV0slKOw/SrgNsA3bYYNESxUB0EbaEk58lFbedBfzn5Bk4hOaVo24VwCC4
671S1+dBHYtSJfU2Sk/+g8tOGNAsJoIqdHj1rRUlyQ6GMUMpltDkTRZTD0Ckm9Cd
ppKBj1J4m6NhJmdsoxAdq++9gCqQ18A/5sxjnsNJSq3iV5wephCznluFxcPBTE8W
O6ZrHIBDafDWWhPfNLppsFJd0DP/k2AZ4zM3nMnDcNTvxoWGl+VXePONdKxCPExg
7/93ZeBZRbQWsmLb0kwvi73spo0j1FLPxGPc9AJ5qRSUvAGP3yxpKLmG1Ul715Dq
kUFWSgJwy0Kd4ej34b9I0LSs/v347D/48IRPEJeE4wRRMkBEs9zydW30UohqwV8g
9Er69O/OAHAp+s82jvR04K7Xj2jYJAVmT+eUEBXKhDwjQq6tDxu9O5DML7PdATdp
BKiZNgo59qekb+Vf77QzIvgYh+rC0yNS4vvEP5JgkII=
-----END CERTIFICATE-----
