Certificate:
    Data:
        Version: 3 (0x2)
        Serial Number: 4147 (0x1033)
    Signature Algorithm: md5WithRSAEncryption
        Issuer: C=US, ST=OH, L=Columbus, O=VikingVPN, OU=MyOrganizationalUnit, CN=VikingVPN CA/name=EasyRSA/emailAddress=me@myhost.mydomain
        Validity
            Not Before: Jan 17 05:30:36 2015 GMT
            Not After : Jan 14 05:30:36 2025 GMT
        Subject: CN=Client1368Cert587b1f
        Subject Public Key Info:
            Public Key Algorithm: rsaEncryption
                Public-Key: (4096 bit)
                Modulus:
                    00:aa:15:11:70:bd:93:f2:9d:dd:cb:79:fb:71:51:
                    3d:5d:cc:3b:32:0e:ec:29:53:9a:a4:ff:a1:43:c8:
                    4c:77:48:f7:b1:44:1b:24:65:e9:49:f9:5b:e9:fd:
                    ef:15:b7:62:dd:15:ad:c8:15:f6:34:08:06:20:d0:
                    3b:d2:87:a7:19:31:5a:f9:7b:d1:dd:db:56:33:7c:
                    26:89:14:b5:02:5f:4f:92:93:ac:dc:41:41:da:15:
                    aa:c2:85:d5:f5:c0:17:21:ae:11:cd:e9:b3:ad:9b:
                    94:de:68:20:db:db:9c:19:a8:74:be:ca:4f:3a:2a:
                    00:71:05:88:53:94:c5:0f:72:b4:50:b9:64:45:b1:
                    2d:4a:d3:5a:5c:1b:4b:5d:68:50:59:c9:63:25:35:
                    ce:2e:35:ea:66:13:d7:ac:40:93:28:8d:65:bf:14:
                    b5:a2:60:9c:d6:28:60:22:a5:22:05:c2:0f:6f:89:
                    52:b4:4b:60:2d:bd:62:9b:b1:7c:76:15:49:80:39:
                    5a:9d:4e:99:15:3f:e6:c0:e9:11:0b:8f:7d:34:d5:
                    c0:31:ab:61:fa:f4:5a:17:60:e6:08:34:31:61:5e:
                    30:fe:ae:7f:d5:fc:40:68:c0:f4:10:3f:41:67:1b:
                    ea:42:df:71:86:e6:35:63:04:b3:ac:14:cc:f3:6b:
                    ab:7f:aa:f3:4f:f4:17:5f:53:ac:df:e9:9e:26:ae:
                    0e:21:56:9d:6f:5e:48:38:31:9d:6e:5d:16:78:ac:
                    ec:76:af:13:be:6e:1a:ec:56:01:b0:ef:f2:61:fc:
                    49:63:93:03:5c:a0:40:83:54:f4:3e:43:03:c2:be:
                    d5:20:c7:81:80:fb:2c:ee:1b:3b:64:ac:fb:0f:59:
                    c5:4d:00:56:0b:cd:ab:e1:4a:e4:64:15:cb:ab:52:
                    35:a6:0d:7b:9c:5a:51:1e:44:f4:49:bc:7d:ff:ef:
                    36:a3:86:58:a5:4b:0d:d8:0b:cc:78:6e:77:87:e2:
                    c0:d3:af:e6:dd:a6:8a:21:a6:f8:e5:76:31:a9:13:
                    33:87:19:85:0b:ab:42:71:7f:ce:6a:17:9f:4f:45:
                    6d:d4:4f:d5:b6:59:fb:d3:08:60:26:ae:ee:7f:d8:
                    3c:26:d6:89:58:0b:29:b5:2a:88:3b:7f:64:16:c9:
                    c8:bf:fb:33:a6:cb:f2:e7:52:5a:0d:c3:5b:4e:58:
                    a4:4c:f5:68:ad:03:04:6f:28:60:20:bb:d7:ff:07:
                    1a:5a:03:15:ae:0a:38:6e:8b:c0:87:55:8a:25:26:
                    dd:23:99:00:53:a0:b0:bf:6c:fc:c6:b5:5e:b8:b5:
                    e3:8a:d2:e8:0b:e1:66:bc:7e:35:23:cb:e9:f8:a2:
                    b2:c5:97
                Exponent: 65537 (0x10001)
        X509v3 extensions:
            X509v3 Basic Constraints: 
                CA:FALSE
            Netscape Comment: 
                Easy-RSA Generated Certificate
            X509v3 Subject Key Identifier: 
                50:72:E6:CF:02:18:47:83:14:3B:E5:72:23:28:57:4B:79:25:CE:40
            X509v3 Authority Key Identifier: 
                keyid:12:CD:60:04:D2:A0:80:9E:70:ED:C6:99:B8:7B:2C:C6:52:FD:19:A1
                DirName:/C=US/ST=OH/L=Columbus/O=VikingVPN/OU=MyOrganizationalUnit/CN=VikingVPN CA/name=EasyRSA/emailAddress=me@myhost.mydomain
                serial:CF:35:85:EE:80:BF:2A:3E

            X509v3 Extended Key Usage: 
                TLS Web Client Authentication
            X509v3 Key Usage: 
                Digital Signature
    Signature Algorithm: md5WithRSAEncryption
         bc:1a:1b:b7:00:c1:09:c2:01:12:61:57:75:b0:c3:bb:7e:dd:
         57:14:eb:01:d7:2d:f0:9f:4a:46:5e:98:a6:7e:04:a8:1e:a6:
         29:25:92:7f:2d:08:1a:d0:71:99:d4:fa:52:d7:f8:f3:67:ee:
         be:63:3d:29:bd:be:bb:cc:fb:88:2d:24:2c:1a:fa:61:f9:5c:
         97:e6:bc:2c:cd:10:f3:a6:79:8d:ae:d3:2b:0b:4d:27:a2:42:
         a0:3b:0d:0c:05:45:9b:dd:24:d8:bb:b2:af:bb:f0:fc:28:fe:
         a8:b7:11:4b:d4:00:ff:0d:71:9b:20:9d:da:3b:bb:34:8b:24:
         31:39:62:49:9f:81:8c:ac:a8:e2:c3:e2:a7:67:c0:f9:a7:32:
         33:6a:9a:b2:9b:f0:4b:9c:16:68:ca:4c:d8:91:d4:bc:de:fc:
         5d:88:cc:3b:d4:f0:e4:4e:2a:16:26:aa:29:83:01:10:bd:3d:
         ec:9d:7a:d3:0c:e2:6a:7c:09:0b:94:cd:83:f8:1a:51:de:0a:
         31:4c:02:30:d8:4b:5a:ee:7e:61:bc:34:6d:c6:48:0a:03:1c:
         55:49:fd:d7:3d:eb:72:c8:75:d1:2d:53:3d:c4:8d:9f:69:8e:
         17:c9:c2:fa:6c:4e:aa:e5:75:96:09:eb:d7:15:e7:9a:5d:d6:
         ce:bb:ca:06:a5:73:dc:60:91:9a:7f:5e:0c:d6:6e:28:65:98:
         1d:7f:d0:76:dd:e5:12:30:ae:dd:a1:9f:8d:39:c3:70:50:20:
         e6:86:75:64:4e:ef:d8:40:14:3a:5c:ef:e6:cd:ed:5c:2b:8d:
         9d:0e:1c:e2:a0:03:51:fd:7d:da:dc:f6:7b:0d:77:b2:b0:04:
         29:28:9d:c8:27:77:71:c0:6b:5b:cd:e6:c3:e5:bc:bc:b9:2b:
         c0:0f:68:20:19:02:9d:31:4a:91:d6:fb:a7:f6:c3:7e:f3:4c:
         f8:9c:45:c2:e7:f1:2a:45:a5:2d:bd:08:2a:59:f1:84:29:fa:
         fe:5d:1c:6b:c4:08:d0:6f:db:a6:9d:da:f3:50:99:13:e5:e4:
         59:74:54:07:62:8b:c8:df:44:1f:2c:83:8c:bb:00:b6:93:a4:
         e2:13:bb:ab:ee:dc:70:bb:02:0a:8c:94:fa:32:ac:7e:56:bb:
         d2:e0:d1:f1:9c:e4:0e:1e:eb:57:8b:de:6d:66:93:d7:90:cd:
         f7:7b:59:61:e7:ad:65:6f:27:81:47:68:c9:fe:52:c2:30:5d:
         d0:f7:76:41:27:e4:cd:cb:85:a7:48:3c:a5:ae:94:c4:42:e7:
         d1:2d:69:68:3e:d7:b9:15:64:c8:96:27:89:db:5f:4c:39:2f:
         b4:6c:0f:08:76:38:38:9a
-----BEGIN CERTIFICATE-----
MIIGrTCCBJWgAwIBAgICEDMwDQYJKoZIhvcNAQEEBQAwgawxCzAJBgNVBAYTAlVT
MQswCQYDVQQIEwJPSDERMA8GA1UEBxMIQ29sdW1idXMxEjAQBgNVBAoTCVZpa2lu
Z1ZQTjEdMBsGA1UECxMUTXlPcmdhbml6YXRpb25hbFVuaXQxFTATBgNVBAMTDFZp
a2luZ1ZQTiBDQTEQMA4GA1UEKRMHRWFzeVJTQTEhMB8GCSqGSIb3DQEJARYSbWVA
bXlob3N0Lm15ZG9tYWluMB4XDTE1MDExNzA1MzAzNloXDTI1MDExNDA1MzAzNlow
HzEdMBsGA1UEAxMUQ2xpZW50MTM2OENlcnQ1ODdiMWYwggIiMA0GCSqGSIb3DQEB
AQUAA4ICDwAwggIKAoICAQCqFRFwvZPynd3LeftxUT1dzDsyDuwpU5qk/6FDyEx3
SPexRBskZelJ+Vvp/e8Vt2LdFa3IFfY0CAYg0DvSh6cZMVr5e9Hd21YzfCaJFLUC
X0+Sk6zcQUHaFarChdX1wBchrhHN6bOtm5TeaCDb25wZqHS+yk86KgBxBYhTlMUP
crRQuWRFsS1K01pcG0tdaFBZyWMlNc4uNepmE9esQJMojWW/FLWiYJzWKGAipSIF
wg9viVK0S2AtvWKbsXx2FUmAOVqdTpkVP+bA6RELj3001cAxq2H69FoXYOYINDFh
XjD+rn/V/EBowPQQP0FnG+pC33GG5jVjBLOsFMzza6t/qvNP9BdfU6zf6Z4mrg4h
Vp1vXkg4MZ1uXRZ4rOx2rxO+bhrsVgGw7/Jh/EljkwNcoECDVPQ+QwPCvtUgx4GA
+yzuGztkrPsPWcVNAFYLzavhSuRkFcurUjWmDXucWlEeRPRJvH3/7zajhlilSw3Y
C8x4bneH4sDTr+bdpoohpvjldjGpEzOHGYULq0Jxf85qF59PRW3UT9W2WfvTCGAm
ru5/2Dwm1olYCym1Kog7f2QWyci/+zOmy/LnUloNw1tOWKRM9WitAwRvKGAgu9f/
BxpaAxWuCjhui8CHVYolJt0jmQBToLC/bPzGtV64teOK0ugL4Wa8fjUjy+n4orLF
lwIDAQABo4IBYzCCAV8wCQYDVR0TBAIwADAtBglghkgBhvhCAQ0EIBYeRWFzeS1S
U0EgR2VuZXJhdGVkIENlcnRpZmljYXRlMB0GA1UdDgQWBBRQcubPAhhHgxQ75XIj
KFdLeSXOQDCB4QYDVR0jBIHZMIHWgBQSzWAE0qCAnnDtxpm4eyzGUv0ZoaGBsqSB
rzCBrDELMAkGA1UEBhMCVVMxCzAJBgNVBAgTAk9IMREwDwYDVQQHEwhDb2x1bWJ1
czESMBAGA1UEChMJVmlraW5nVlBOMR0wGwYDVQQLExRNeU9yZ2FuaXphdGlvbmFs
VW5pdDEVMBMGA1UEAxMMVmlraW5nVlBOIENBMRAwDgYDVQQpEwdFYXN5UlNBMSEw
HwYJKoZIhvcNAQkBFhJtZUBteWhvc3QubXlkb21haW6CCQDPNYXugL8qPjATBgNV
HSUEDDAKBggrBgEFBQcDAjALBgNVHQ8EBAMCB4AwDQYJKoZIhvcNAQEEBQADggIB
ALwaG7cAwQnCARJhV3Www7t+3VcU6wHXLfCfSkZemKZ+BKgepiklkn8tCBrQcZnU
+lLX+PNn7r5jPSm9vrvM+4gtJCwa+mH5XJfmvCzNEPOmeY2u0ysLTSeiQqA7DQwF
RZvdJNi7sq+78Pwo/qi3EUvUAP8NcZsgndo7uzSLJDE5YkmfgYysqOLD4qdnwPmn
MjNqmrKb8EucFmjKTNiR1Lze/F2IzDvU8OROKhYmqimDARC9PeydetMM4mp8CQuU
zYP4GlHeCjFMAjDYS1rufmG8NG3GSAoDHFVJ/dc963LIddEtUz3EjZ9pjhfJwvps
TqrldZYJ69cV55pd1s67ygalc9xgkZp/XgzWbihlmB1/0Hbd5RIwrt2hn405w3BQ
IOaGdWRO79hAFDpc7+bN7VwrjZ0OHOKgA1H9fdrc9nsNd7KwBCkoncgnd3HAa1vN
5sPlvLy5K8APaCAZAp0xSpHW+6f2w37zTPicRcLn8SpFpS29CCpZ8YQp+v5dHGvE
CNBv26ad2vNQmRPl5Fl0VAdii8jfRB8sg4y7ALaTpOITu6vu3HC7AgqMlPoyrH5W
u9Lg0fGc5A4e61eL3m1mk9eQzfd7WWHnrWVvJ4FHaMn+UsIwXdD3dkEn5M3LhadI
PKWulMRC59EtaWg+17kVZMiWJ4nbX0w5L7RsDwh2ODia
-----END CERTIFICATE-----
