Certificate:
    Data:
        Version: 3 (0x2)
        Serial Number: 6448 (0x1930)
    Signature Algorithm: md5WithRSAEncryption
        Issuer: C=US, ST=OH, L=Columbus, O=VikingVPN, OU=MyOrganizationalUnit, CN=VikingVPN CA/name=EasyRSA/emailAddress=me@myhost.mydomain
        Validity
            Not Before: Oct 13 01:07:52 2015 GMT
            Not After : Oct 10 01:07:52 2025 GMT
        Subject: CN=Client1999Cert4af512
        Subject Public Key Info:
            Public Key Algorithm: rsaEncryption
                Public-Key: (4096 bit)
                Modulus:
                    00:c0:a2:7d:91:27:ac:d3:be:f8:a7:9b:34:61:43:
                    1e:8f:91:20:98:9d:e8:06:e8:f6:12:f6:ea:c6:fa:
                    b4:30:e2:33:1e:b1:7e:88:95:8f:08:63:54:80:bd:
                    8a:8d:63:45:70:76:94:b8:45:a0:be:db:9b:ed:b3:
                    ec:7f:c6:60:42:25:b6:1a:9c:72:57:63:1b:d2:5b:
                    1e:93:d8:1d:b7:cc:b4:dd:0a:51:f3:d9:bf:10:e6:
                    c3:9c:14:9d:b4:1d:31:7a:6c:e1:12:76:a3:b1:d7:
                    73:3d:a9:f9:e5:35:70:06:37:8f:57:8a:b2:8d:46:
                    d6:36:d6:40:cc:0c:cc:f9:88:83:44:02:00:c3:f3:
                    ba:36:7c:0f:15:8c:08:f9:6a:f6:da:56:2c:d3:61:
                    59:41:82:53:af:0b:32:c4:f2:62:98:36:64:62:f3:
                    66:bf:8f:f2:c4:2b:12:e3:4a:9a:e0:59:ef:c2:ac:
                    c2:f8:5e:60:ac:8e:94:e2:8f:0a:73:bd:a8:33:38:
                    eb:65:38:37:6a:78:ee:7f:00:1c:35:f9:fc:a5:35:
                    87:60:1b:50:24:c9:f0:a2:b9:66:85:e5:ec:81:d2:
                    68:49:46:b1:75:c0:f5:cf:f5:0f:56:fc:1a:d6:87:
                    28:34:fc:da:a7:b6:90:2c:dd:5e:a6:18:1e:1c:f1:
                    cb:6e:b8:95:1d:c2:83:56:92:67:41:6b:2c:be:3f:
                    87:26:70:5b:11:30:57:46:a7:33:33:ee:54:d2:10:
                    bb:a8:f5:76:98:1d:58:43:52:4f:ac:c0:19:b6:bd:
                    89:e7:b9:65:98:06:cc:cb:75:ac:e7:f8:5d:5d:ed:
                    a7:06:e3:6d:9c:8a:5a:ab:a1:02:a9:cf:1f:99:53:
                    c8:76:2e:9d:ae:96:4e:bf:08:f6:0b:2a:dd:14:38:
                    81:ae:40:c8:d8:38:f9:3f:b7:d5:d3:2a:4e:6b:91:
                    65:3a:d9:6d:9d:bb:55:9d:3a:44:b3:62:01:20:9b:
                    af:da:8c:0d:0b:55:a5:da:4d:da:76:5c:a1:74:29:
                    56:7e:f9:31:e9:c6:3d:f9:5b:c6:4e:a8:5a:1f:b4:
                    05:cb:7c:81:ea:db:20:7c:4b:c8:04:04:0a:a2:cd:
                    fb:30:07:9e:3c:f1:9f:73:63:9d:ac:52:42:49:2b:
                    6b:ba:b7:c4:b3:86:23:38:10:8f:33:cd:0f:2b:a9:
                    6e:cd:43:a3:bf:65:68:de:0c:9d:bb:5d:8e:48:31:
                    1c:c1:18:5a:7d:eb:e4:39:a4:29:5b:7d:3b:f3:ae:
                    1f:1a:21:69:f5:5f:b9:95:d5:97:76:21:6a:f2:11:
                    04:9b:bf:e9:66:3a:81:eb:a9:33:be:43:a7:c4:c9:
                    10:f0:6f
                Exponent: 65537 (0x10001)
        X509v3 extensions:
            X509v3 Basic Constraints: 
                CA:FALSE
            Netscape Comment: 
                Easy-RSA Generated Certificate
            X509v3 Subject Key Identifier: 
                70:7E:3E:C8:60:9C:56:31:88:E7:80:9E:AC:3A:53:AF:A5:F6:B6:EB
            X509v3 Authority Key Identifier: 
                keyid:12:CD:60:04:D2:A0:80:9E:70:ED:C6:99:B8:7B:2C:C6:52:FD:19:A1
                DirName:/C=US/ST=OH/L=Columbus/O=VikingVPN/OU=MyOrganizationalUnit/CN=VikingVPN CA/name=EasyRSA/emailAddress=me@myhost.mydomain
                serial:CF:35:85:EE:80:BF:2A:3E

            X509v3 Extended Key Usage: 
                TLS Web Client Authentication
            X509v3 Key Usage: 
                Digital Signature
    Signature Algorithm: md5WithRSAEncryption
         e2:f4:33:76:ea:0e:43:34:d3:d5:c6:e6:52:a4:02:4f:57:d9:
         9f:06:9e:a6:30:80:e0:03:2f:15:8f:d4:91:5e:a5:0e:c7:50:
         f2:ea:47:64:01:51:be:50:e5:43:18:11:89:53:b2:a8:46:46:
         3c:69:c4:6c:60:e0:77:43:cc:4d:56:28:f5:2e:fc:21:9b:32:
         2a:48:8d:e9:26:7d:60:fd:bb:cd:f5:fc:01:e1:91:07:17:0c:
         bd:6a:6f:87:0b:93:f2:3e:9b:64:36:22:f1:7c:78:f1:3d:1b:
         72:ab:bf:78:34:43:2d:54:12:f2:de:4e:27:07:8b:b3:2e:47:
         53:44:6b:6c:ef:63:3c:38:68:3a:b0:4d:c8:b2:94:c5:85:be:
         51:0e:53:3d:5f:2a:b7:20:ee:40:a1:e4:66:4f:5b:f9:ee:c8:
         bb:2c:72:bb:74:a9:cb:95:85:18:cb:5f:63:e8:f0:f6:81:ac:
         0d:01:08:63:d6:f1:cb:9d:d7:02:ea:11:bd:2b:cd:86:45:d3:
         f7:fe:16:c0:65:83:c9:e3:3a:d6:39:56:e7:3f:09:0f:1a:32:
         2b:98:b8:46:60:a0:33:e6:68:56:17:76:34:19:da:10:b5:a8:
         a4:57:40:c7:72:08:1a:0b:4e:e7:19:5d:7f:b4:13:c7:e5:a8:
         99:97:53:45:a7:eb:30:5a:18:fa:07:06:01:19:c1:11:2f:2e:
         4a:36:55:31:48:91:cd:bb:08:ad:4e:cb:b8:50:86:f2:fe:aa:
         76:09:0c:e2:94:9e:f5:e0:d3:d3:1a:a6:51:a7:7b:9a:9c:f1:
         63:95:fc:ea:02:a5:36:1a:46:6f:4e:08:26:c8:b6:6b:c3:2a:
         71:18:79:d6:9a:dc:9c:57:6b:e9:9e:a5:c2:52:b7:63:9b:96:
         c6:64:4b:c8:fc:0c:c8:2c:b3:84:47:f6:0e:44:52:fa:7d:02:
         20:77:1d:83:40:fb:16:6a:c3:ff:8e:5b:11:5e:01:46:30:94:
         59:17:ab:f9:12:07:de:98:80:ae:25:a4:19:b0:06:0a:f9:94:
         b0:7a:19:be:12:ef:c3:c8:bf:db:a5:f0:b2:a3:00:03:1c:27:
         36:ee:87:02:ca:bd:f7:82:f7:3d:fb:72:a4:1e:41:32:5a:a5:
         21:69:63:8c:a6:3e:03:d7:70:72:43:f1:53:e6:8b:0d:08:b7:
         93:6a:3b:85:70:3d:43:af:f8:78:9f:de:d2:c3:d1:02:b4:61:
         a6:4a:91:db:54:1f:b4:67:71:d2:9c:06:23:ed:4a:a7:06:76:
         25:82:a8:a4:c6:2a:4d:23:a6:d0:b1:f1:70:4f:a8:c4:3e:0f:
         6c:7b:70:79:cd:48:dc:7e
-----BEGIN CERTIFICATE-----
MIIGrTCCBJWgAwIBAgICGTAwDQYJKoZIhvcNAQEEBQAwgawxCzAJBgNVBAYTAlVT
MQswCQYDVQQIEwJPSDERMA8GA1UEBxMIQ29sdW1idXMxEjAQBgNVBAoTCVZpa2lu
Z1ZQTjEdMBsGA1UECxMUTXlPcmdhbml6YXRpb25hbFVuaXQxFTATBgNVBAMTDFZp
a2luZ1ZQTiBDQTEQMA4GA1UEKRMHRWFzeVJTQTEhMB8GCSqGSIb3DQEJARYSbWVA
bXlob3N0Lm15ZG9tYWluMB4XDTE1MTAxMzAxMDc1MloXDTI1MTAxMDAxMDc1Mlow
HzEdMBsGA1UEAxMUQ2xpZW50MTk5OUNlcnQ0YWY1MTIwggIiMA0GCSqGSIb3DQEB
AQUAA4ICDwAwggIKAoICAQDAon2RJ6zTvvinmzRhQx6PkSCYnegG6PYS9urG+rQw
4jMesX6IlY8IY1SAvYqNY0VwdpS4RaC+25vts+x/xmBCJbYanHJXYxvSWx6T2B23
zLTdClHz2b8Q5sOcFJ20HTF6bOESdqOx13M9qfnlNXAGN49XirKNRtY21kDMDMz5
iINEAgDD87o2fA8VjAj5avbaVizTYVlBglOvCzLE8mKYNmRi82a/j/LEKxLjSprg
We/CrML4XmCsjpTijwpzvagzOOtlODdqeO5/ABw1+fylNYdgG1AkyfCiuWaF5eyB
0mhJRrF1wPXP9Q9W/BrWhyg0/NqntpAs3V6mGB4c8ctuuJUdwoNWkmdBayy+P4cm
cFsRMFdGpzMz7lTSELuo9XaYHVhDUk+swBm2vYnnuWWYBszLdazn+F1d7acG422c
ilqroQKpzx+ZU8h2Lp2ulk6/CPYLKt0UOIGuQMjYOPk/t9XTKk5rkWU62W2du1Wd
OkSzYgEgm6/ajA0LVaXaTdp2XKF0KVZ++THpxj35W8ZOqFoftAXLfIHq2yB8S8gE
BAqizfswB5488Z9zY52sUkJJK2u6t8SzhiM4EI8zzQ8rqW7NQ6O/ZWjeDJ27XY5I
MRzBGFp96+Q5pClbfTvzrh8aIWn1X7mV1Zd2IWryEQSbv+lmOoHrqTO+Q6fEyRDw
bwIDAQABo4IBYzCCAV8wCQYDVR0TBAIwADAtBglghkgBhvhCAQ0EIBYeRWFzeS1S
U0EgR2VuZXJhdGVkIENlcnRpZmljYXRlMB0GA1UdDgQWBBRwfj7IYJxWMYjngJ6s
OlOvpfa26zCB4QYDVR0jBIHZMIHWgBQSzWAE0qCAnnDtxpm4eyzGUv0ZoaGBsqSB
rzCBrDELMAkGA1UEBhMCVVMxCzAJBgNVBAgTAk9IMREwDwYDVQQHEwhDb2x1bWJ1
czESMBAGA1UEChMJVmlraW5nVlBOMR0wGwYDVQQLExRNeU9yZ2FuaXphdGlvbmFs
VW5pdDEVMBMGA1UEAxMMVmlraW5nVlBOIENBMRAwDgYDVQQpEwdFYXN5UlNBMSEw
HwYJKoZIhvcNAQkBFhJtZUBteWhvc3QubXlkb21haW6CCQDPNYXugL8qPjATBgNV
HSUEDDAKBggrBgEFBQcDAjALBgNVHQ8EBAMCB4AwDQYJKoZIhvcNAQEEBQADggIB
AOL0M3bqDkM009XG5lKkAk9X2Z8GnqYwgOADLxWP1JFepQ7HUPLqR2QBUb5Q5UMY
EYlTsqhGRjxpxGxg4HdDzE1WKPUu/CGbMipIjekmfWD9u831/AHhkQcXDL1qb4cL
k/I+m2Q2IvF8ePE9G3Krv3g0Qy1UEvLeTicHi7MuR1NEa2zvYzw4aDqwTciylMWF
vlEOUz1fKrcg7kCh5GZPW/nuyLsscrt0qcuVhRjLX2Po8PaBrA0BCGPW8cud1wLq
Eb0rzYZF0/f+FsBlg8njOtY5Vuc/CQ8aMiuYuEZgoDPmaFYXdjQZ2hC1qKRXQMdy
CBoLTucZXX+0E8flqJmXU0Wn6zBaGPoHBgEZwREvLko2VTFIkc27CK1Oy7hQhvL+
qnYJDOKUnvXg09MaplGne5qc8WOV/OoCpTYaRm9OCCbItmvDKnEYedaa3JxXa+me
pcJSt2OblsZkS8j8DMgss4RH9g5EUvp9AiB3HYNA+xZqw/+OWxFeAUYwlFkXq/kS
B96YgK4lpBmwBgr5lLB6Gb4S78PIv9ul8LKjAAMcJzbuhwLKvfeC9z37cqQeQTJa
pSFpY4ymPgPXcHJD8VPmiw0It5NqO4VwPUOv+Hif3tLD0QK0YaZKkdtUH7RncdKc
BiPtSqcGdiWCqKTGKk0jptCx8XBPqMQ+D2x7cHnNSNx+
-----END CERTIFICATE-----
