Certificate:
    Data:
        Version: 3 (0x2)
        Serial Number: 4056 (0xfd8)
    Signature Algorithm: md5WithRSAEncryption
        Issuer: C=US, ST=OH, L=Columbus, O=VikingVPN, OU=MyOrganizationalUnit, CN=VikingVPN CA/name=EasyRSA/emailAddress=me@myhost.mydomain
        Validity
            Not Before: Jan 10 01:29:29 2015 GMT
            Not After : Jan  7 01:29:29 2025 GMT
        Subject: CN=Client1348Cert416493
        Subject Public Key Info:
            Public Key Algorithm: rsaEncryption
                Public-Key: (4096 bit)
                Modulus:
                    00:d9:a8:d6:35:13:5e:91:11:db:b0:8d:3d:4e:e7:
                    f9:8f:8d:b7:64:a6:37:99:10:2c:b8:8d:29:4e:18:
                    48:5e:cb:bc:37:29:1b:c5:08:c4:41:97:f1:7c:8c:
                    55:12:25:0a:99:c1:24:6b:61:94:82:fd:3e:33:e4:
                    52:9e:4b:b0:e5:f4:7a:02:ac:3d:6c:e2:85:db:87:
                    23:59:06:84:77:1c:d1:a0:15:f8:fd:42:a4:f3:fd:
                    8c:2b:33:52:3d:f6:c8:b2:19:8a:84:9f:f8:62:d0:
                    c9:92:ba:8f:89:e9:a8:e1:20:0c:2a:c5:d7:8a:c7:
                    ae:53:d4:e0:33:dd:41:f5:51:96:0f:ac:fe:d9:36:
                    66:f5:c6:7e:dc:2b:c6:a0:6b:45:02:65:db:2e:d3:
                    38:2c:85:ea:2b:dc:45:41:75:27:3e:b7:4e:f4:7f:
                    bd:31:4f:d5:bc:a3:75:9c:bc:b6:32:bb:03:2b:06:
                    df:08:41:b7:7e:e0:51:32:b5:f8:8f:67:ea:e2:26:
                    eb:07:ed:9a:02:f9:bb:39:74:a4:2a:42:d4:5d:42:
                    4a:64:71:94:b6:06:5d:c8:90:8e:19:10:c4:e7:ca:
                    f1:63:81:e3:8a:ee:6b:7a:c9:4f:fc:c0:cc:35:84:
                    b8:95:37:62:72:81:d4:d5:ab:bf:9d:3b:75:11:e6:
                    c6:3b:1d:bb:d2:9c:62:30:92:2c:5e:6d:77:ae:3c:
                    c6:3e:86:94:b8:c6:ac:39:74:c7:02:33:76:fe:09:
                    c4:95:cf:40:71:94:4d:24:b9:b3:8f:c4:c3:1d:17:
                    cc:e1:88:81:22:2a:3d:fd:14:f6:a9:f9:18:69:2f:
                    09:d2:7d:ac:e2:8a:3b:a1:b8:b4:31:53:d8:13:44:
                    31:e0:ee:22:0e:6a:0c:03:5d:e9:c7:f4:bd:eb:c3:
                    a0:56:3f:9a:bc:2e:09:7d:da:34:d9:f6:15:95:6f:
                    0e:42:4a:1a:8c:1a:cf:4b:9b:0c:e8:50:7a:a4:31:
                    b8:31:5a:c4:82:71:6f:92:8f:46:50:7a:65:f8:65:
                    68:15:91:ff:33:61:fa:b7:4c:ea:81:15:d0:b1:19:
                    da:0c:67:ca:ca:7c:e9:a2:1c:99:86:4a:53:75:a5:
                    c5:23:6e:e4:27:85:49:6d:1e:c1:93:c1:1c:d0:78:
                    46:5f:2f:ac:5d:37:d9:07:57:c4:6d:97:10:0f:83:
                    4a:1c:8e:67:66:3a:ec:41:c7:45:27:b5:52:8f:f9:
                    2b:d0:0f:97:39:71:7d:c7:23:bc:7b:db:f3:43:4d:
                    e3:15:1e:b8:35:27:60:4d:74:48:10:de:89:11:08:
                    88:4c:02:c3:71:28:07:fb:d0:a9:50:e0:f9:a0:57:
                    a1:b6:8b
                Exponent: 65537 (0x10001)
        X509v3 extensions:
            X509v3 Basic Constraints: 
                CA:FALSE
            Netscape Comment: 
                Easy-RSA Generated Certificate
            X509v3 Subject Key Identifier: 
                08:CA:19:FF:00:93:94:12:13:DA:DE:D0:4C:C1:5F:15:03:6D:83:19
            X509v3 Authority Key Identifier: 
                keyid:12:CD:60:04:D2:A0:80:9E:70:ED:C6:99:B8:7B:2C:C6:52:FD:19:A1
                DirName:/C=US/ST=OH/L=Columbus/O=VikingVPN/OU=MyOrganizationalUnit/CN=VikingVPN CA/name=EasyRSA/emailAddress=me@myhost.mydomain
                serial:CF:35:85:EE:80:BF:2A:3E

            X509v3 Extended Key Usage: 
                TLS Web Client Authentication
            X509v3 Key Usage: 
                Digital Signature
    Signature Algorithm: md5WithRSAEncryption
         9a:d1:8c:ec:ff:97:77:e2:22:e6:7e:92:b0:c5:bf:1c:43:bf:
         cb:2b:f4:f6:a7:e8:0a:4a:b9:6e:37:27:d1:69:77:ef:df:dc:
         93:21:94:1f:5b:1a:bf:e8:d0:4f:bc:8a:6d:be:87:f4:d4:c3:
         a0:29:60:75:b4:7b:ce:93:80:20:64:8b:8b:86:9f:cb:73:97:
         41:2b:24:b0:d5:ea:37:8b:b7:55:d4:3e:9d:b0:ce:9f:b4:2e:
         ba:3e:63:e3:dc:e1:fd:fa:7f:37:d7:7c:38:d7:cc:68:5b:c5:
         8e:87:08:ff:51:7c:b1:ce:de:c8:15:1b:bf:b8:a1:e8:4d:66:
         7d:77:f3:01:7b:2a:ac:07:6f:eb:be:5b:b0:ff:94:47:88:3e:
         c5:10:31:d2:ad:aa:96:42:86:10:99:ba:e5:d6:35:f6:be:0c:
         24:1d:2e:df:9a:9b:45:78:46:ab:4d:07:25:34:58:79:3e:79:
         67:b6:00:dd:6d:63:4b:aa:08:5b:66:2b:bd:a4:08:c3:21:15:
         02:f4:53:74:41:91:05:ff:96:ed:9c:90:07:04:1f:1e:e6:74:
         7e:6a:a7:96:5c:bc:8d:6f:75:35:c4:69:18:ac:3e:5e:c0:c6:
         2a:ff:bb:0d:31:2e:4d:83:9f:c3:18:29:36:30:db:bd:3c:89:
         0f:74:9f:5b:ae:3c:fc:ac:57:0b:d8:46:4d:84:a7:24:05:b9:
         0a:19:c6:ec:e1:6e:66:f1:3d:0b:4d:02:a1:e0:35:32:9f:be:
         2f:8c:b6:f8:ba:8c:fe:bb:1a:bd:32:3b:a7:bc:92:78:1f:d5:
         d1:5d:56:c0:52:8e:a2:d7:17:20:a6:eb:b3:64:f7:0b:33:ae:
         07:28:3c:23:cf:43:c5:7d:b0:60:23:02:a0:76:32:81:76:1d:
         1e:1d:1c:aa:bf:82:27:c8:19:e5:a3:89:9f:a0:2f:f0:08:ba:
         4f:3b:8b:ce:04:65:e7:41:d6:fc:74:1f:93:9f:5e:f8:f0:f0:
         b4:f5:57:e6:cc:30:a0:45:e6:62:67:82:e6:24:cc:46:a2:91:
         4e:05:d8:3d:f4:64:53:a5:cf:64:42:7c:2b:99:e0:1f:55:ad:
         39:ee:76:4e:56:e2:04:9b:52:a0:c6:e0:d6:f5:0f:6e:1b:68:
         1d:9e:2b:6b:ff:84:c1:45:53:84:ac:bb:e9:49:af:db:e9:2b:
         74:0c:ac:84:14:c8:81:bf:36:4f:36:ca:45:ae:36:40:f6:c6:
         22:e7:c3:64:e2:d1:c6:9b:53:31:c0:b3:8d:7d:7a:1d:71:81:
         00:06:8c:e4:55:79:9c:7e:d9:26:b7:d5:e0:75:b7:76:bf:a1:
         02:4f:e1:1b:de:37:6c:ec
-----BEGIN CERTIFICATE-----
MIIGrTCCBJWgAwIBAgICD9gwDQYJKoZIhvcNAQEEBQAwgawxCzAJBgNVBAYTAlVT
MQswCQYDVQQIEwJPSDERMA8GA1UEBxMIQ29sdW1idXMxEjAQBgNVBAoTCVZpa2lu
Z1ZQTjEdMBsGA1UECxMUTXlPcmdhbml6YXRpb25hbFVuaXQxFTATBgNVBAMTDFZp
a2luZ1ZQTiBDQTEQMA4GA1UEKRMHRWFzeVJTQTEhMB8GCSqGSIb3DQEJARYSbWVA
bXlob3N0Lm15ZG9tYWluMB4XDTE1MDExMDAxMjkyOVoXDTI1MDEwNzAxMjkyOVow
HzEdMBsGA1UEAxMUQ2xpZW50MTM0OENlcnQ0MTY0OTMwggIiMA0GCSqGSIb3DQEB
AQUAA4ICDwAwggIKAoICAQDZqNY1E16REduwjT1O5/mPjbdkpjeZECy4jSlOGEhe
y7w3KRvFCMRBl/F8jFUSJQqZwSRrYZSC/T4z5FKeS7Dl9HoCrD1s4oXbhyNZBoR3
HNGgFfj9QqTz/YwrM1I99siyGYqEn/hi0MmSuo+J6ajhIAwqxdeKx65T1OAz3UH1
UZYPrP7ZNmb1xn7cK8aga0UCZdsu0zgsheor3EVBdSc+t070f70xT9W8o3WcvLYy
uwMrBt8IQbd+4FEytfiPZ+riJusH7ZoC+bs5dKQqQtRdQkpkcZS2Bl3IkI4ZEMTn
yvFjgeOK7mt6yU/8wMw1hLiVN2JygdTVq7+dO3UR5sY7HbvSnGIwkixebXeuPMY+
hpS4xqw5dMcCM3b+CcSVz0BxlE0kubOPxMMdF8zhiIEiKj39FPap+RhpLwnSfazi
ijuhuLQxU9gTRDHg7iIOagwDXenH9L3rw6BWP5q8Lgl92jTZ9hWVbw5CShqMGs9L
mwzoUHqkMbgxWsSCcW+Sj0ZQemX4ZWgVkf8zYfq3TOqBFdCxGdoMZ8rKfOmiHJmG
SlN1pcUjbuQnhUltHsGTwRzQeEZfL6xdN9kHV8RtlxAPg0ocjmdmOuxBx0UntVKP
+SvQD5c5cX3HI7x72/NDTeMVHrg1J2BNdEgQ3okRCIhMAsNxKAf70KlQ4PmgV6G2
iwIDAQABo4IBYzCCAV8wCQYDVR0TBAIwADAtBglghkgBhvhCAQ0EIBYeRWFzeS1S
U0EgR2VuZXJhdGVkIENlcnRpZmljYXRlMB0GA1UdDgQWBBQIyhn/AJOUEhPa3tBM
wV8VA22DGTCB4QYDVR0jBIHZMIHWgBQSzWAE0qCAnnDtxpm4eyzGUv0ZoaGBsqSB
rzCBrDELMAkGA1UEBhMCVVMxCzAJBgNVBAgTAk9IMREwDwYDVQQHEwhDb2x1bWJ1
czESMBAGA1UEChMJVmlraW5nVlBOMR0wGwYDVQQLExRNeU9yZ2FuaXphdGlvbmFs
VW5pdDEVMBMGA1UEAxMMVmlraW5nVlBOIENBMRAwDgYDVQQpEwdFYXN5UlNBMSEw
HwYJKoZIhvcNAQkBFhJtZUBteWhvc3QubXlkb21haW6CCQDPNYXugL8qPjATBgNV
HSUEDDAKBggrBgEFBQcDAjALBgNVHQ8EBAMCB4AwDQYJKoZIhvcNAQEEBQADggIB
AJrRjOz/l3fiIuZ+krDFvxxDv8sr9Pan6ApKuW43J9Fpd+/f3JMhlB9bGr/o0E+8
im2+h/TUw6ApYHW0e86TgCBki4uGn8tzl0ErJLDV6jeLt1XUPp2wzp+0Lro+Y+Pc
4f36fzfXfDjXzGhbxY6HCP9RfLHO3sgVG7+4oehNZn138wF7KqwHb+u+W7D/lEeI
PsUQMdKtqpZChhCZuuXWNfa+DCQdLt+am0V4RqtNByU0WHk+eWe2AN1tY0uqCFtm
K72kCMMhFQL0U3RBkQX/lu2ckAcEHx7mdH5qp5ZcvI1vdTXEaRisPl7Axir/uw0x
Lk2Dn8MYKTYw2708iQ90n1uuPPysVwvYRk2EpyQFuQoZxuzhbmbxPQtNAqHgNTKf
vi+Mtvi6jP67Gr0yO6e8kngf1dFdVsBSjqLXFyCm67Nk9wszrgcoPCPPQ8V9sGAj
AqB2MoF2HR4dHKq/gifIGeWjiZ+gL/AIuk87i84EZedB1vx0H5OfXvjw8LT1V+bM
MKBF5mJnguYkzEaikU4F2D30ZFOlz2RCfCuZ4B9VrTnudk5W4gSbUqDG4Nb1D24b
aB2eK2v/hMFFU4Ssu+lJr9vpK3QMrIQUyIG/Nk82ykWuNkD2xiLnw2Ti0cabUzHA
s419eh1xgQAGjORVeZx+2Sa31eB1t3a/oQJP4RveN2zs
-----END CERTIFICATE-----
