Certificate:
    Data:
        Version: 3 (0x2)
        Serial Number: 10595 (0x2963)
    Signature Algorithm: sha256WithRSAEncryption
        Issuer: C=US, ST=OH, L=Columbus, O=VikingVPN, OU=MyOrganizationalUnit, CN=VikingVPN CA/name=EasyRSA/emailAddress=me@myhost.mydomain
        Validity
            Not Before: Apr  8 12:39:33 2017 GMT
            Not After : Apr  6 12:39:33 2027 GMT
        Subject: CN=Client2693Cert3d4b93
        Subject Public Key Info:
            Public Key Algorithm: rsaEncryption
                Public-Key: (4096 bit)
                Modulus:
                    00:a0:5a:94:0a:d9:91:f5:1a:51:84:b1:72:27:eb:
                    51:fe:7c:42:8a:65:10:fe:ac:3f:cd:7f:7d:21:c5:
                    17:2f:33:e9:7e:8c:ad:f1:fd:98:8f:08:13:55:c3:
                    ef:fc:1e:e6:1e:02:3b:3b:c8:5c:77:52:fd:89:c8:
                    7e:51:c6:0b:38:7d:56:21:a5:ff:fd:4d:5a:9c:a6:
                    16:2a:64:76:a0:b2:fd:9b:c9:5e:b0:c3:5b:e6:d8:
                    ec:6c:4a:94:48:c3:a4:ad:8f:27:65:14:1b:9e:72:
                    57:03:a5:b2:df:60:24:f9:90:f9:a5:d7:95:bf:3e:
                    e2:e1:c1:8d:4d:3d:24:96:d9:86:3f:48:92:5f:60:
                    65:b0:b0:d1:cf:71:fd:eb:11:5e:f1:84:e0:c9:2b:
                    70:28:e8:37:5b:7e:8b:23:0e:28:91:0b:45:92:ff:
                    f7:fc:fd:9c:0c:4b:42:de:8e:d5:b0:c7:38:7e:6d:
                    e7:eb:47:7e:6f:70:b9:55:dd:a1:ee:69:20:db:2c:
                    55:cd:d4:10:bd:29:9f:da:a7:7c:35:f8:7c:2a:4e:
                    42:f0:83:b6:c1:85:62:de:25:d0:01:5a:c0:1a:25:
                    d4:18:4d:37:e6:f7:48:04:c4:3e:8f:61:b7:ce:62:
                    dd:7e:bd:37:c9:2f:c8:1b:77:94:08:da:ad:90:d0:
                    29:26:a9:92:48:10:00:bc:e5:26:c7:26:19:02:89:
                    f7:9a:b3:b5:80:74:1b:b8:6e:19:90:7d:13:71:89:
                    39:51:6e:fe:f3:0d:18:66:ef:40:82:5a:2f:03:93:
                    cc:b2:2d:cc:5e:46:b0:1f:20:6a:8c:e5:73:de:c6:
                    17:7a:cd:8e:e3:3e:8d:02:9d:11:89:da:6b:1f:34:
                    0c:d1:2e:a4:5b:bb:75:ae:9e:83:8c:91:cd:f1:d8:
                    d1:cf:61:e3:24:ca:ea:40:05:40:dd:b5:2f:c9:3a:
                    0c:e0:c6:f6:9b:6d:bc:6e:da:83:58:44:17:ea:ee:
                    15:a0:2e:ec:2a:d2:0a:52:a1:71:27:72:30:f2:57:
                    ab:19:b6:3a:a9:c9:37:a1:c6:43:38:df:85:2e:79:
                    57:3e:98:45:1e:48:df:16:cc:52:6f:ca:0f:39:0a:
                    0d:f6:54:09:e6:d3:0f:75:86:e2:44:f1:da:1d:fe:
                    69:81:07:28:18:f4:a9:e9:7b:2f:22:45:97:4a:00:
                    cb:11:84:52:99:bf:f0:3f:47:f7:b7:9b:1d:59:05:
                    24:c3:ee:c2:a4:83:8e:93:48:ce:31:52:95:35:84:
                    66:d1:9a:86:d4:6e:80:b2:f3:e9:af:41:60:5e:b6:
                    f8:43:a9:77:45:f2:c7:80:b1:ff:ea:85:b6:93:a1:
                    82:34:43
                Exponent: 65537 (0x10001)
        X509v3 extensions:
            X509v3 Basic Constraints: 
                CA:FALSE
            Netscape Comment: 
                Easy-RSA Generated Certificate
            X509v3 Subject Key Identifier: 
                C4:07:87:47:57:F6:4E:33:45:F0:2C:52:86:87:79:DA:B4:94:B9:D9
            X509v3 Authority Key Identifier: 
                keyid:12:CD:60:04:D2:A0:80:9E:70:ED:C6:99:B8:7B:2C:C6:52:FD:19:A1
                DirName:/C=US/ST=OH/L=Columbus/O=VikingVPN/OU=MyOrganizationalUnit/CN=VikingVPN CA/name=EasyRSA/emailAddress=me@myhost.mydomain
                serial:CF:35:85:EE:80:BF:2A:3E

            X509v3 Extended Key Usage: 
                TLS Web Client Authentication
            X509v3 Key Usage: 
                Digital Signature
    Signature Algorithm: sha256WithRSAEncryption
         52:a2:db:9b:56:d4:67:fc:1a:b5:52:3d:fd:24:a2:e2:a2:30:
         58:c7:1c:02:42:75:cc:0b:9a:c5:5e:e8:40:0f:d1:0a:ee:46:
         a5:74:91:c8:70:a7:6f:a9:29:bc:cb:10:66:58:46:a6:0d:3e:
         85:de:b0:c0:98:99:87:8f:c5:97:a8:6e:82:81:21:f8:ed:90:
         a7:ca:7a:38:1f:5d:54:ee:16:ec:c9:8a:3f:67:6f:30:3e:6f:
         c9:b3:1d:d7:21:90:1f:b8:be:23:af:f5:70:47:a4:8a:97:e3:
         1d:44:13:ea:8d:e0:ea:d2:8b:9e:a8:23:66:99:67:dc:61:44:
         49:e2:d8:2d:a6:c2:e7:95:e7:16:e0:8e:0b:14:b2:54:be:12:
         cd:8c:41:80:06:70:b1:35:e1:ca:77:b7:4c:a4:de:34:07:13:
         0c:bf:7f:22:35:fe:fd:58:d9:ea:a0:52:3e:07:b2:58:0e:ce:
         33:ee:58:14:e5:1b:2e:00:25:25:9e:9a:6e:b4:77:f7:9d:f9:
         46:ab:e3:8a:89:dd:d0:92:31:e1:94:38:9b:2d:69:33:6c:2c:
         f4:af:b8:4c:69:b8:5d:11:32:90:82:d6:3f:1d:4d:8c:57:2a:
         d9:c3:90:62:f2:70:03:85:e3:87:f4:90:58:7a:76:a6:be:85:
         2b:d1:d4:58:51:75:2c:b4:d1:de:3d:35:8b:11:94:5d:7f:d3:
         08:8d:a2:a1:f9:5b:10:0b:b7:fb:df:8b:3d:10:eb:11:be:1a:
         c5:f2:56:30:29:8f:f2:f4:ce:50:2f:50:60:86:1b:41:52:fa:
         a1:1d:a4:07:0f:3e:24:c7:2e:0c:35:6d:14:bc:39:87:48:b8:
         c1:cd:1a:c9:ea:a8:9e:b8:86:7c:d0:60:23:66:c9:19:c3:36:
         96:2b:2f:a2:04:21:f0:dc:a1:14:c5:f3:97:2c:f9:0e:53:af:
         ef:38:fe:55:cc:ae:84:74:1d:49:af:5e:7a:44:89:dc:17:b1:
         73:73:28:29:96:f0:14:1b:23:0b:1f:36:e8:df:b0:38:ad:a3:
         e4:a3:f4:96:a8:d2:51:12:2a:4b:4e:f3:cb:4d:71:5a:a0:21:
         80:7d:d8:ae:5b:78:ce:60:35:20:f2:42:0e:84:95:ec:7f:45:
         5b:21:55:6d:bf:75:c9:ce:5d:b3:0e:7a:3a:d7:8d:dc:0c:dc:
         03:ea:85:16:3c:47:aa:f3:c9:7f:36:98:16:cb:77:2e:f9:3c:
         60:c8:06:93:fc:07:03:79:43:c2:d9:0d:a1:67:bc:67:a0:5a:
         49:53:04:67:2f:15:84:f7:9b:a0:74:be:45:5b:de:8a:28:84:
         f1:b2:32:c1:ae:39:0d:b7
-----BEGIN CERTIFICATE-----
MIIGrTCCBJWgAwIBAgICKWMwDQYJKoZIhvcNAQELBQAwgawxCzAJBgNVBAYTAlVT
MQswCQYDVQQIEwJPSDERMA8GA1UEBxMIQ29sdW1idXMxEjAQBgNVBAoTCVZpa2lu
Z1ZQTjEdMBsGA1UECxMUTXlPcmdhbml6YXRpb25hbFVuaXQxFTATBgNVBAMTDFZp
a2luZ1ZQTiBDQTEQMA4GA1UEKRMHRWFzeVJTQTEhMB8GCSqGSIb3DQEJARYSbWVA
bXlob3N0Lm15ZG9tYWluMB4XDTE3MDQwODEyMzkzM1oXDTI3MDQwNjEyMzkzM1ow
HzEdMBsGA1UEAxMUQ2xpZW50MjY5M0NlcnQzZDRiOTMwggIiMA0GCSqGSIb3DQEB
AQUAA4ICDwAwggIKAoICAQCgWpQK2ZH1GlGEsXIn61H+fEKKZRD+rD/Nf30hxRcv
M+l+jK3x/ZiPCBNVw+/8HuYeAjs7yFx3Uv2JyH5Rxgs4fVYhpf/9TVqcphYqZHag
sv2byV6ww1vm2OxsSpRIw6StjydlFBueclcDpbLfYCT5kPml15W/PuLhwY1NPSSW
2YY/SJJfYGWwsNHPcf3rEV7xhODJK3Ao6DdbfosjDiiRC0WS//f8/ZwMS0LejtWw
xzh+befrR35vcLlV3aHuaSDbLFXN1BC9KZ/ap3w1+HwqTkLwg7bBhWLeJdABWsAa
JdQYTTfm90gExD6PYbfOYt1+vTfJL8gbd5QI2q2Q0CkmqZJIEAC85SbHJhkCifea
s7WAdBu4bhmQfRNxiTlRbv7zDRhm70CCWi8Dk8yyLcxeRrAfIGqM5XPexhd6zY7j
Po0CnRGJ2msfNAzRLqRbu3WunoOMkc3x2NHPYeMkyupABUDdtS/JOgzgxvabbbxu
2oNYRBfq7hWgLuwq0gpSoXEncjDyV6sZtjqpyTehxkM434UueVc+mEUeSN8WzFJv
yg85Cg32VAnm0w91huJE8dod/mmBBygY9Knpey8iRZdKAMsRhFKZv/A/R/e3mx1Z
BSTD7sKkg46TSM4xUpU1hGbRmobUboCy8+mvQWBetvhDqXdF8seAsf/qhbaToYI0
QwIDAQABo4IBYzCCAV8wCQYDVR0TBAIwADAtBglghkgBhvhCAQ0EIBYeRWFzeS1S
U0EgR2VuZXJhdGVkIENlcnRpZmljYXRlMB0GA1UdDgQWBBTEB4dHV/ZOM0XwLFKG
h3natJS52TCB4QYDVR0jBIHZMIHWgBQSzWAE0qCAnnDtxpm4eyzGUv0ZoaGBsqSB
rzCBrDELMAkGA1UEBhMCVVMxCzAJBgNVBAgTAk9IMREwDwYDVQQHEwhDb2x1bWJ1
czESMBAGA1UEChMJVmlraW5nVlBOMR0wGwYDVQQLExRNeU9yZ2FuaXphdGlvbmFs
VW5pdDEVMBMGA1UEAxMMVmlraW5nVlBOIENBMRAwDgYDVQQpEwdFYXN5UlNBMSEw
HwYJKoZIhvcNAQkBFhJtZUBteWhvc3QubXlkb21haW6CCQDPNYXugL8qPjATBgNV
HSUEDDAKBggrBgEFBQcDAjALBgNVHQ8EBAMCB4AwDQYJKoZIhvcNAQELBQADggIB
AFKi25tW1Gf8GrVSPf0kouKiMFjHHAJCdcwLmsVe6EAP0QruRqV0kchwp2+pKbzL
EGZYRqYNPoXesMCYmYePxZeoboKBIfjtkKfKejgfXVTuFuzJij9nbzA+b8mzHdch
kB+4viOv9XBHpIqX4x1EE+qN4OrSi56oI2aZZ9xhREni2C2mwueV5xbgjgsUslS+
Es2MQYAGcLE14cp3t0yk3jQHEwy/fyI1/v1Y2eqgUj4HslgOzjPuWBTlGy4AJSWe
mm60d/ed+Uar44qJ3dCSMeGUOJstaTNsLPSvuExpuF0RMpCC1j8dTYxXKtnDkGLy
cAOF44f0kFh6dqa+hSvR1FhRdSy00d49NYsRlF1/0wiNoqH5WxALt/vfiz0Q6xG+
GsXyVjApj/L0zlAvUGCGG0FS+qEdpAcPPiTHLgw1bRS8OYdIuMHNGsnqqJ64hnzQ
YCNmyRnDNpYrL6IEIfDcoRTF85cs+Q5Tr+84/lXMroR0HUmvXnpEidwXsXNzKCmW
8BQbIwsfNujfsDito+Sj9Jao0lESKktO88tNcVqgIYB92K5beM5gNSDyQg6Elex/
RVshVW2/dcnOXbMOejrXjdwM3APqhRY8R6rzyX82mBbLdy75PGDIBpP8BwN5Q8LZ
DaFnvGegWklTBGcvFYT3m6B0vkVb3ooohPGyMsGuOQ23
-----END CERTIFICATE-----
