Certificate:
    Data:
        Version: 3 (0x2)
        Serial Number: 2112 (0x840)
    Signature Algorithm: md5WithRSAEncryption
        Issuer: C=US, ST=OH, L=Columbus, O=VikingVPN, OU=MyOrganizationalUnit, CN=VikingVPN CA/name=EasyRSA/emailAddress=me@myhost.mydomain
        Validity
            Not Before: Jun 16 17:41:15 2014 GMT
            Not After : Jun 13 17:41:15 2024 GMT
        Subject: CN=Client733Cert004b16
        Subject Public Key Info:
            Public Key Algorithm: rsaEncryption
                Public-Key: (4096 bit)
                Modulus:
                    00:bd:b8:f8:9e:e0:b1:f0:29:2e:39:5a:11:88:0e:
                    61:3e:ce:96:2c:3c:c5:34:9a:a7:cf:4b:79:36:3d:
                    4f:17:9a:5f:2c:e9:77:bd:6b:16:03:4a:b6:4b:68:
                    a3:69:a2:26:cd:48:37:a4:94:0f:80:63:8e:43:23:
                    9a:60:6f:3a:4e:e0:24:ec:79:78:2a:9a:e2:cc:aa:
                    cf:24:35:e2:08:bc:ba:78:38:74:20:31:7f:a4:20:
                    f9:f8:31:e9:d8:1a:ae:e8:ed:32:ff:01:02:43:91:
                    6d:00:74:82:69:bc:1f:79:9b:0e:d1:02:ce:9c:95:
                    9e:df:ab:5f:ee:00:37:e4:ea:61:0a:fb:8d:10:61:
                    5c:2a:db:d0:c4:6e:7e:37:d1:c0:48:17:d4:9b:33:
                    b6:5e:6b:59:29:06:e9:ee:7e:7e:fb:50:5a:5a:b4:
                    35:cb:0a:22:5c:f8:4a:ad:dd:10:63:ff:11:61:a9:
                    0f:89:f7:48:34:19:07:3f:9e:61:1b:80:62:e4:18:
                    46:fd:d3:b0:24:6a:92:f4:4b:c9:17:7a:e4:ff:3a:
                    96:49:1d:69:07:e0:bf:e2:aa:e0:dc:60:d7:30:1a:
                    43:3b:57:09:6e:80:89:19:e2:96:ac:b4:66:31:f6:
                    17:0e:d7:45:d5:90:d6:c9:9e:d0:f6:1d:8d:63:6c:
                    88:6b:9a:30:67:f4:b0:dd:16:b8:9d:fc:f2:1c:af:
                    2c:eb:24:c5:4e:37:d3:06:c5:0b:9d:f6:ff:df:ce:
                    6c:59:b9:01:8c:8f:23:b1:48:de:0e:fb:56:a2:36:
                    12:45:33:9c:36:91:f3:ae:0c:4e:f8:9f:03:61:87:
                    94:d8:e5:b2:ca:e6:b5:67:5a:c5:7b:30:e0:0c:6d:
                    66:42:53:f7:a6:58:57:34:1b:29:49:21:19:c6:3e:
                    e7:41:26:1d:5e:c7:07:42:f6:84:0f:3a:97:f5:18:
                    11:2f:9f:e3:f2:75:0a:4f:c0:6c:6b:b6:2e:56:b2:
                    21:77:81:c5:87:76:02:53:eb:78:01:e3:07:34:7e:
                    53:86:dd:b8:fc:ce:b9:8f:ff:c6:01:97:5b:91:68:
                    31:71:95:67:2f:45:50:23:4c:84:3e:80:d9:a8:4e:
                    ce:49:7e:06:11:46:ad:db:a0:fb:46:c7:f3:d0:84:
                    95:65:41:45:0a:0a:74:5e:70:e5:52:79:0b:c9:f5:
                    83:8e:98:4f:8a:99:33:a3:0d:62:1e:e4:a7:95:ce:
                    25:f7:51:38:47:64:4d:81:03:4a:74:73:36:c9:70:
                    91:12:48:8f:0c:bb:5b:2c:26:1c:ae:e5:6a:0d:dd:
                    c0:f5:56:7f:95:d0:8e:d8:19:26:19:08:27:47:da:
                    dc:c2:ad
                Exponent: 65537 (0x10001)
        X509v3 extensions:
            X509v3 Basic Constraints: 
                CA:FALSE
            Netscape Comment: 
                Easy-RSA Generated Certificate
            X509v3 Subject Key Identifier: 
                BA:64:86:48:F2:F5:9E:3A:6E:C9:E6:26:82:3E:34:0B:17:2E:84:18
            X509v3 Authority Key Identifier: 
                keyid:12:CD:60:04:D2:A0:80:9E:70:ED:C6:99:B8:7B:2C:C6:52:FD:19:A1
                DirName:/C=US/ST=OH/L=Columbus/O=VikingVPN/OU=MyOrganizationalUnit/CN=VikingVPN CA/name=EasyRSA/emailAddress=me@myhost.mydomain
                serial:CF:35:85:EE:80:BF:2A:3E

            X509v3 Extended Key Usage: 
                TLS Web Client Authentication
            X509v3 Key Usage: 
                Digital Signature
    Signature Algorithm: md5WithRSAEncryption
         14:7c:fb:e4:d2:9c:70:46:20:ce:1f:c6:1c:b8:e6:0b:f8:f8:
         6a:42:b2:3d:43:6b:be:fd:f2:c6:87:a3:aa:bd:ae:5e:46:65:
         7c:94:9f:11:81:ae:59:77:00:e0:de:60:67:73:4a:a7:23:3b:
         0d:25:32:89:0a:92:c7:8f:24:81:70:5a:d0:eb:99:80:67:ee:
         b6:e9:28:20:8a:52:49:36:65:6f:d3:79:6c:f9:9c:37:04:47:
         90:75:63:b3:69:bc:25:5b:b4:b7:5b:83:08:38:9d:0a:8c:32:
         88:d9:63:a2:b4:f7:70:f3:4f:1c:71:b6:f2:b1:b1:e6:4d:cd:
         ad:ab:85:41:bc:b8:fb:5f:2b:fa:26:ac:6d:43:19:41:c0:6f:
         50:2b:f3:00:88:fe:42:47:d8:2d:a1:1e:5e:db:b3:a2:d7:58:
         2c:85:ea:7f:43:5b:a2:6f:12:43:17:8a:f0:bd:3f:7d:db:70:
         14:4b:4a:cd:0f:28:18:24:ce:e8:14:64:a9:a7:7d:7c:cc:66:
         80:d2:6c:25:5a:38:a3:71:8f:96:d6:34:e2:9f:e7:79:ff:19:
         3e:6f:5b:b1:7b:20:06:af:d4:bd:18:cd:3a:33:2e:e5:d7:60:
         30:68:2a:1b:ba:ac:3f:47:0d:3b:a7:69:6a:6f:ae:0e:0b:6b:
         2d:ed:35:46:ee:01:fb:88:78:20:5a:6c:65:86:0a:dc:e0:9e:
         b1:64:1e:fc:b3:30:b1:a8:04:85:d8:13:01:f8:e4:1e:9d:ef:
         24:0b:f6:6a:be:78:f8:8a:eb:37:d0:b5:37:2d:08:b2:cf:4a:
         c9:df:7d:d2:f7:ab:5f:a0:ac:f8:bf:47:f3:9c:33:5f:2f:19:
         93:ff:83:a0:cb:31:30:87:c3:fa:96:3b:c8:f2:ee:65:54:cd:
         14:72:65:7b:53:e5:44:a2:34:aa:0c:02:e2:c1:6a:3e:fe:a0:
         5a:f0:e2:fb:42:99:34:6f:57:e0:7e:bf:c9:6e:f9:fd:7a:46:
         09:95:87:a4:2b:9d:c1:e0:75:df:2e:08:76:40:18:d1:d6:55:
         91:1f:6f:1d:8c:c7:b1:23:ab:ae:ef:f4:7a:60:dd:a6:49:6f:
         a5:09:53:ce:34:66:2a:1e:60:de:b3:e9:20:b7:8e:02:84:32:
         6a:f8:c1:d9:64:61:f3:89:4d:5a:7a:41:1b:79:a4:cb:34:74:
         62:9e:af:23:d8:1d:9a:33:37:4d:c6:44:6b:67:d9:0b:28:fc:
         7c:6a:5c:3c:30:67:9d:56:69:7c:c1:d0:2f:bd:fb:c9:70:86:
         62:d2:7d:42:a5:5f:4a:18:ba:44:28:43:53:58:7f:ff:ab:d7:
         c2:2b:40:33:8f:09:76:dc
-----BEGIN CERTIFICATE-----
MIIGrDCCBJSgAwIBAgICCEAwDQYJKoZIhvcNAQEEBQAwgawxCzAJBgNVBAYTAlVT
MQswCQYDVQQIEwJPSDERMA8GA1UEBxMIQ29sdW1idXMxEjAQBgNVBAoTCVZpa2lu
Z1ZQTjEdMBsGA1UECxMUTXlPcmdhbml6YXRpb25hbFVuaXQxFTATBgNVBAMTDFZp
a2luZ1ZQTiBDQTEQMA4GA1UEKRMHRWFzeVJTQTEhMB8GCSqGSIb3DQEJARYSbWVA
bXlob3N0Lm15ZG9tYWluMB4XDTE0MDYxNjE3NDExNVoXDTI0MDYxMzE3NDExNVow
HjEcMBoGA1UEAxMTQ2xpZW50NzMzQ2VydDAwNGIxNjCCAiIwDQYJKoZIhvcNAQEB
BQADggIPADCCAgoCggIBAL24+J7gsfApLjlaEYgOYT7Oliw8xTSap89LeTY9Txea
Xyzpd71rFgNKtktoo2miJs1IN6SUD4BjjkMjmmBvOk7gJOx5eCqa4syqzyQ14gi8
ung4dCAxf6Qg+fgx6dgarujtMv8BAkORbQB0gmm8H3mbDtECzpyVnt+rX+4AN+Tq
YQr7jRBhXCrb0MRufjfRwEgX1Jsztl5rWSkG6e5+fvtQWlq0NcsKIlz4Sq3dEGP/
EWGpD4n3SDQZBz+eYRuAYuQYRv3TsCRqkvRLyRd65P86lkkdaQfgv+Kq4Nxg1zAa
QztXCW6AiRnilqy0ZjH2Fw7XRdWQ1sme0PYdjWNsiGuaMGf0sN0WuJ388hyvLOsk
xU430wbFC532/9/ObFm5AYyPI7FI3g77VqI2EkUznDaR864MTvifA2GHlNjlssrm
tWdaxXsw4AxtZkJT96ZYVzQbKUkhGcY+50EmHV7HB0L2hA86l/UYES+f4/J1Ck/A
bGu2LlayIXeBxYd2AlPreAHjBzR+U4bduPzOuY//xgGXW5FoMXGVZy9FUCNMhD6A
2ahOzkl+BhFGrdug+0bH89CElWVBRQoKdF5w5VJ5C8n1g46YT4qZM6MNYh7kp5XO
JfdROEdkTYEDSnRzNslwkRJIjwy7WywmHK7lag3dwPVWf5XQjtgZJhkIJ0fa3MKt
AgMBAAGjggFjMIIBXzAJBgNVHRMEAjAAMC0GCWCGSAGG+EIBDQQgFh5FYXN5LVJT
QSBHZW5lcmF0ZWQgQ2VydGlmaWNhdGUwHQYDVR0OBBYEFLpkhkjy9Z46bsnmJoI+
NAsXLoQYMIHhBgNVHSMEgdkwgdaAFBLNYATSoICecO3Gmbh7LMZS/RmhoYGypIGv
MIGsMQswCQYDVQQGEwJVUzELMAkGA1UECBMCT0gxETAPBgNVBAcTCENvbHVtYnVz
MRIwEAYDVQQKEwlWaWtpbmdWUE4xHTAbBgNVBAsTFE15T3JnYW5pemF0aW9uYWxV
bml0MRUwEwYDVQQDEwxWaWtpbmdWUE4gQ0ExEDAOBgNVBCkTB0Vhc3lSU0ExITAf
BgkqhkiG9w0BCQEWEm1lQG15aG9zdC5teWRvbWFpboIJAM81he6Avyo+MBMGA1Ud
JQQMMAoGCCsGAQUFBwMCMAsGA1UdDwQEAwIHgDANBgkqhkiG9w0BAQQFAAOCAgEA
FHz75NKccEYgzh/GHLjmC/j4akKyPUNrvv3yxoejqr2uXkZlfJSfEYGuWXcA4N5g
Z3NKpyM7DSUyiQqSx48kgXBa0OuZgGfutukoIIpSSTZlb9N5bPmcNwRHkHVjs2m8
JVu0t1uDCDidCowyiNljorT3cPNPHHG28rGx5k3NrauFQby4+18r+iasbUMZQcBv
UCvzAIj+QkfYLaEeXtuzotdYLIXqf0Nbom8SQxeK8L0/fdtwFEtKzQ8oGCTO6BRk
qad9fMxmgNJsJVo4o3GPltY04p/nef8ZPm9bsXsgBq/UvRjNOjMu5ddgMGgqG7qs
P0cNO6dpam+uDgtrLe01Ru4B+4h4IFpsZYYK3OCesWQe/LMwsagEhdgTAfjkHp3v
JAv2ar54+IrrN9C1Ny0Iss9Kyd990verX6Cs+L9H85wzXy8Zk/+DoMsxMIfD+pY7
yPLuZVTNFHJle1PlRKI0qgwC4sFqPv6gWvDi+0KZNG9X4H6/yW75/XpGCZWHpCud
weB13y4IdkAY0dZVkR9vHYzHsSOrru/0emDdpklvpQlTzjRmKh5g3rPpILeOAoQy
avjB2WRh84lNWnpBG3mkyzR0Yp6vI9gdmjM3TcZEa2fZCyj8fGpcPDBnnVZpfMHQ
L737yXCGYtJ9QqVfShi6RChDU1h//6vXwitAM48Jdtw=
-----END CERTIFICATE-----
