Certificate:
    Data:
        Version: 3 (0x2)
        Serial Number: 6501 (0x1965)
    Signature Algorithm: md5WithRSAEncryption
        Issuer: C=US, ST=OH, L=Columbus, O=VikingVPN, OU=MyOrganizationalUnit, CN=VikingVPN CA/name=EasyRSA/emailAddress=me@myhost.mydomain
        Validity
            Not Before: Oct 19 06:06:33 2015 GMT
            Not After : Oct 16 06:06:33 2025 GMT
        Subject: CN=Client1868Cert68f8d1
        Subject Public Key Info:
            Public Key Algorithm: rsaEncryption
                Public-Key: (4096 bit)
                Modulus:
                    00:d0:24:c6:71:50:f3:ee:c1:e2:dc:13:6e:3c:cf:
                    22:86:2f:43:83:3f:fd:8b:e2:ab:1e:14:cf:7f:3c:
                    b1:0d:38:8a:05:9d:1e:9a:70:86:d4:1f:d0:21:ff:
                    59:79:91:68:dd:01:88:64:09:34:ee:ab:73:af:e6:
                    d5:83:72:db:e7:50:ac:eb:07:65:6a:7f:e1:11:d0:
                    23:bb:1d:cb:37:b6:e7:00:bb:c5:91:ed:46:be:c4:
                    08:fc:a4:0e:cb:1e:99:32:5b:11:53:4c:ef:23:b5:
                    44:63:83:22:cf:d8:6b:09:8d:7e:27:c3:74:ad:28:
                    54:45:f0:af:fb:cf:56:4a:6c:ad:40:3d:01:1f:f4:
                    7a:67:13:e4:87:3e:a2:36:b7:49:2c:89:c3:2a:5a:
                    5d:41:21:5e:7e:48:22:e3:57:4e:a4:fa:f4:fb:52:
                    c3:85:45:cb:03:75:fd:d1:26:22:18:83:a6:68:16:
                    22:ef:e5:2a:20:1c:2b:c1:96:03:e4:a5:da:0a:f2:
                    7b:09:04:b4:20:4a:0b:2b:58:cf:da:fa:2c:ff:29:
                    5a:a9:d7:a3:e5:5c:01:94:00:2e:71:92:db:1b:ea:
                    49:2e:99:5a:f1:bb:ca:c0:db:ae:ba:66:5b:2e:27:
                    2e:65:f7:4f:06:67:58:20:e9:7d:f6:f5:ce:9b:ef:
                    c7:fb:5f:dd:59:00:71:7d:94:c8:64:00:65:32:73:
                    e9:25:42:81:a7:b1:f1:84:47:85:80:7c:46:b0:dc:
                    ef:95:0e:4c:b8:d2:ab:3b:81:cb:a7:a7:18:f5:bf:
                    3d:c7:3a:8f:c3:fd:6d:0a:cb:b4:cf:4f:9c:3a:dd:
                    16:af:15:56:1d:eb:8f:cc:61:a2:5e:30:94:42:be:
                    2a:f1:15:32:02:16:7e:a0:87:7d:47:0c:30:20:0a:
                    d7:49:f0:20:1a:78:8a:b8:22:e0:e6:d1:3a:ef:91:
                    a3:db:9c:1c:32:d2:4e:38:1a:23:53:41:d1:09:94:
                    1d:ba:46:e8:73:3d:b5:40:f8:07:0c:90:28:78:21:
                    be:a8:88:27:f8:99:26:f9:72:b9:58:66:26:f0:0e:
                    d0:b7:6d:6c:5e:d5:c0:f4:62:17:ef:10:4b:28:c6:
                    8d:8f:85:2c:4b:af:cc:46:a9:cb:ea:1f:9c:3d:2a:
                    7b:0f:26:1d:e7:29:18:58:cb:8a:5b:19:51:71:0a:
                    22:a9:98:f5:28:75:a0:42:df:01:d7:1d:f3:98:0a:
                    4f:61:36:28:9f:1f:18:d6:b6:18:40:38:aa:29:cc:
                    9f:be:da:40:1e:96:b5:23:38:90:ac:97:a0:99:4d:
                    42:b4:d8:1b:f8:6a:66:1d:1c:f1:a4:5e:37:31:a9:
                    46:e7:f5
                Exponent: 65537 (0x10001)
        X509v3 extensions:
            X509v3 Basic Constraints: 
                CA:FALSE
            Netscape Comment: 
                Easy-RSA Generated Certificate
            X509v3 Subject Key Identifier: 
                A1:8F:B4:BA:AC:CB:B0:45:19:7E:2D:AB:D0:18:0A:A2:B9:A4:85:FD
            X509v3 Authority Key Identifier: 
                keyid:12:CD:60:04:D2:A0:80:9E:70:ED:C6:99:B8:7B:2C:C6:52:FD:19:A1
                DirName:/C=US/ST=OH/L=Columbus/O=VikingVPN/OU=MyOrganizationalUnit/CN=VikingVPN CA/name=EasyRSA/emailAddress=me@myhost.mydomain
                serial:CF:35:85:EE:80:BF:2A:3E

            X509v3 Extended Key Usage: 
                TLS Web Client Authentication
            X509v3 Key Usage: 
                Digital Signature
    Signature Algorithm: md5WithRSAEncryption
         0a:15:54:b1:3f:7d:7d:dc:28:29:33:de:4a:6e:44:93:75:4d:
         4a:b0:75:c4:7a:a4:c6:8c:4e:95:12:67:f1:34:fd:40:09:de:
         94:80:ae:af:f7:75:74:f6:2b:4b:2b:24:c7:10:df:e4:2d:7a:
         b7:3f:99:37:a5:c5:1e:7e:8e:0c:7e:ce:94:8b:a8:48:3a:4f:
         5e:4b:84:80:10:8c:f7:2b:04:88:04:26:f6:08:22:16:3b:24:
         f1:ab:67:4c:a1:35:60:3c:f0:25:85:30:03:87:7e:fd:c6:12:
         32:48:c6:23:53:2b:65:50:a2:d4:a1:e8:14:06:73:4b:26:1e:
         91:b3:04:44:0b:63:d6:ce:71:7a:dc:ff:76:c6:ad:25:de:5f:
         06:b4:87:5a:f2:40:25:9a:fc:5e:42:fb:f9:73:c2:50:75:43:
         7b:a1:30:d4:57:9e:ab:d5:1e:1d:99:96:c7:29:c5:59:c4:f2:
         81:7b:12:97:17:bd:09:2c:eb:25:f0:81:b5:52:63:71:fd:fc:
         72:cb:9e:01:ca:08:5f:45:46:40:2e:ef:e8:9a:ae:57:dc:73:
         54:46:ff:0c:63:1c:1c:e4:08:27:ad:ef:03:c9:c6:9b:ff:93:
         b4:42:4f:51:9e:40:28:42:59:f8:da:42:5e:91:4c:0b:49:83:
         a6:ea:0b:89:15:86:08:07:62:30:b2:5f:07:2d:1e:68:9c:fb:
         7f:77:50:8b:c8:a5:d6:f9:5a:bd:24:49:da:66:38:33:9d:51:
         8c:5d:fe:1e:21:e1:76:9b:2c:a3:e8:a7:a0:ef:a8:d3:eb:56:
         97:ac:06:e6:11:08:7f:68:e9:5e:79:70:c2:f3:c8:dc:2e:05:
         7b:10:00:c0:f8:9a:0b:14:d9:ef:e9:92:f3:e4:18:36:57:83:
         3b:15:21:68:a3:22:94:25:b7:03:ce:d9:b6:f9:07:e2:fc:8e:
         82:24:2a:26:61:1f:92:5c:6a:f4:7e:ae:98:c3:ce:00:91:10:
         67:ce:ea:33:f8:78:ab:6a:ef:bd:06:f3:2d:23:8a:17:2a:05:
         f4:28:a5:68:77:e5:70:00:fd:c0:4d:f5:b0:ed:77:f6:19:fd:
         df:cd:5a:99:e3:1b:10:28:a0:54:81:d4:1b:ec:12:55:01:14:
         09:25:d9:41:3c:01:67:cd:e8:b3:04:dd:b7:b5:69:e1:00:f7:
         b8:11:3e:74:91:fa:1d:84:4b:24:85:54:4e:34:70:dc:8b:14:
         77:c9:3b:32:6a:76:e3:ff:7e:7e:e8:a1:53:e3:ac:97:f1:6f:
         e8:24:44:74:cd:84:bd:d2:75:2f:02:64:30:a3:08:c5:e5:58:
         df:70:93:9e:ae:41:f9:9f
-----BEGIN CERTIFICATE-----
MIIGrTCCBJWgAwIBAgICGWUwDQYJKoZIhvcNAQEEBQAwgawxCzAJBgNVBAYTAlVT
MQswCQYDVQQIEwJPSDERMA8GA1UEBxMIQ29sdW1idXMxEjAQBgNVBAoTCVZpa2lu
Z1ZQTjEdMBsGA1UECxMUTXlPcmdhbml6YXRpb25hbFVuaXQxFTATBgNVBAMTDFZp
a2luZ1ZQTiBDQTEQMA4GA1UEKRMHRWFzeVJTQTEhMB8GCSqGSIb3DQEJARYSbWVA
bXlob3N0Lm15ZG9tYWluMB4XDTE1MTAxOTA2MDYzM1oXDTI1MTAxNjA2MDYzM1ow
HzEdMBsGA1UEAxMUQ2xpZW50MTg2OENlcnQ2OGY4ZDEwggIiMA0GCSqGSIb3DQEB
AQUAA4ICDwAwggIKAoICAQDQJMZxUPPuweLcE248zyKGL0ODP/2L4qseFM9/PLEN
OIoFnR6acIbUH9Ah/1l5kWjdAYhkCTTuq3Ov5tWDctvnUKzrB2Vqf+ER0CO7Hcs3
tucAu8WR7Ua+xAj8pA7LHpkyWxFTTO8jtURjgyLP2GsJjX4nw3StKFRF8K/7z1ZK
bK1APQEf9HpnE+SHPqI2t0ksicMqWl1BIV5+SCLjV06k+vT7UsOFRcsDdf3RJiIY
g6ZoFiLv5SogHCvBlgPkpdoK8nsJBLQgSgsrWM/a+iz/KVqp16PlXAGUAC5xktsb
6kkumVrxu8rA2666ZlsuJy5l908GZ1gg6X329c6b78f7X91ZAHF9lMhkAGUyc+kl
QoGnsfGER4WAfEaw3O+VDky40qs7gcunpxj1vz3HOo/D/W0Ky7TPT5w63RavFVYd
64/MYaJeMJRCvirxFTICFn6gh31HDDAgCtdJ8CAaeIq4IuDm0TrvkaPbnBwy0k44
GiNTQdEJlB26RuhzPbVA+AcMkCh4Ib6oiCf4mSb5crlYZibwDtC3bWxe1cD0Yhfv
EEsoxo2PhSxLr8xGqcvqH5w9KnsPJh3nKRhYy4pbGVFxCiKpmPUodaBC3wHXHfOY
Ck9hNiifHxjWthhAOKopzJ++2kAelrUjOJCsl6CZTUK02Bv4amYdHPGkXjcxqUbn
9QIDAQABo4IBYzCCAV8wCQYDVR0TBAIwADAtBglghkgBhvhCAQ0EIBYeRWFzeS1S
U0EgR2VuZXJhdGVkIENlcnRpZmljYXRlMB0GA1UdDgQWBBShj7S6rMuwRRl+LavQ
GAqiuaSF/TCB4QYDVR0jBIHZMIHWgBQSzWAE0qCAnnDtxpm4eyzGUv0ZoaGBsqSB
rzCBrDELMAkGA1UEBhMCVVMxCzAJBgNVBAgTAk9IMREwDwYDVQQHEwhDb2x1bWJ1
czESMBAGA1UEChMJVmlraW5nVlBOMR0wGwYDVQQLExRNeU9yZ2FuaXphdGlvbmFs
VW5pdDEVMBMGA1UEAxMMVmlraW5nVlBOIENBMRAwDgYDVQQpEwdFYXN5UlNBMSEw
HwYJKoZIhvcNAQkBFhJtZUBteWhvc3QubXlkb21haW6CCQDPNYXugL8qPjATBgNV
HSUEDDAKBggrBgEFBQcDAjALBgNVHQ8EBAMCB4AwDQYJKoZIhvcNAQEEBQADggIB
AAoVVLE/fX3cKCkz3kpuRJN1TUqwdcR6pMaMTpUSZ/E0/UAJ3pSArq/3dXT2K0sr
JMcQ3+Qterc/mTelxR5+jgx+zpSLqEg6T15LhIAQjPcrBIgEJvYIIhY7JPGrZ0yh
NWA88CWFMAOHfv3GEjJIxiNTK2VQotSh6BQGc0smHpGzBEQLY9bOcXrc/3bGrSXe
Xwa0h1ryQCWa/F5C+/lzwlB1Q3uhMNRXnqvVHh2ZlscpxVnE8oF7EpcXvQks6yXw
gbVSY3H9/HLLngHKCF9FRkAu7+iarlfcc1RG/wxjHBzkCCet7wPJxpv/k7RCT1Ge
QChCWfjaQl6RTAtJg6bqC4kVhggHYjCyXwctHmic+393UIvIpdb5Wr0kSdpmODOd
UYxd/h4h4XabLKPop6DvqNPrVpesBuYRCH9o6V55cMLzyNwuBXsQAMD4mgsU2e/p
kvPkGDZXgzsVIWijIpQltwPO2bb5B+L8joIkKiZhH5JcavR+rpjDzgCREGfO6jP4
eKtq770G8y0jihcqBfQopWh35XAA/cBN9bDtd/YZ/d/NWpnjGxAooFSB1BvsElUB
FAkl2UE8AWfN6LME3be1aeEA97gRPnSR+h2ESySFVE40cNyLFHfJOzJqduP/fn7o
oVPjrJfxb+gkRHTNhL3SdS8CZDCjCMXlWN9wk56uQfmf
-----END CERTIFICATE-----
