Certificate:
    Data:
        Version: 3 (0x2)
        Serial Number: 11579 (0x2d3b)
    Signature Algorithm: sha256WithRSAEncryption
        Issuer: C=US, ST=OH, L=Columbus, O=VikingVPN, OU=MyOrganizationalUnit, CN=VikingVPN CA/name=EasyRSA/emailAddress=me@myhost.mydomain
        Validity
            Not Before: Aug 18 20:45:20 2017 GMT
            Not After : Aug 16 20:45:20 2027 GMT
        Subject: CN=Client3053Certf67f22
        Subject Public Key Info:
            Public Key Algorithm: rsaEncryption
                Public-Key: (4096 bit)
                Modulus:
                    00:c7:69:a7:76:d2:f1:89:ef:9a:56:f1:03:a1:b7:
                    44:6a:e7:89:7e:54:90:01:e9:61:65:37:ad:44:8e:
                    9a:f7:ee:17:4c:f8:2c:66:bd:4c:f5:4d:3c:aa:af:
                    4b:ff:ec:00:87:ee:ed:ef:82:1d:e2:45:b1:a3:9b:
                    0b:a0:45:b4:9c:38:de:44:66:fc:bb:8a:b0:d4:a6:
                    48:75:ad:85:29:05:88:4c:f5:6a:86:a2:dd:db:b3:
                    5a:3d:26:82:0d:41:2b:a1:c8:67:72:ac:36:39:8f:
                    38:25:75:6b:3c:52:c0:f8:6d:38:cb:2f:88:b6:0e:
                    b5:91:13:ea:08:9b:60:59:b9:36:fb:cc:a5:f9:27:
                    20:ff:5c:60:29:3e:21:0c:c9:b0:60:bf:52:49:f1:
                    d2:99:7a:a6:b5:5f:49:a5:31:b1:c6:f4:5f:3c:9c:
                    e5:7f:43:95:89:be:44:cb:45:0d:05:ec:a1:df:76:
                    8b:ce:c2:61:15:35:ad:19:1b:9f:3b:85:28:21:f2:
                    fc:23:72:aa:c9:a5:2a:9c:10:57:72:c3:95:80:74:
                    20:89:c6:5e:c7:71:ba:0f:42:30:01:31:c6:14:a1:
                    38:5f:ed:f4:c8:a2:a2:7c:5f:a6:ee:28:0e:3b:dc:
                    a4:e0:c0:e4:84:66:4e:16:c8:ff:13:2a:9b:00:a1:
                    8e:43:7b:90:89:d8:65:e2:61:cd:84:99:2f:24:f7:
                    53:1f:04:ba:5b:e2:48:f9:19:82:f6:69:38:ea:f5:
                    1b:d3:1d:a7:bd:cd:54:bc:d3:03:be:54:27:76:c0:
                    a1:81:9a:07:34:f2:ad:38:49:fb:99:8b:1b:89:70:
                    2f:9b:6a:cb:d6:b1:c9:5a:13:60:8a:cb:c6:5c:10:
                    fd:b4:36:0c:b5:ec:61:55:09:17:9d:4b:59:af:3e:
                    8a:be:fa:34:38:19:63:d5:ea:a9:90:25:6e:31:9c:
                    ef:aa:71:2c:f2:76:ce:de:89:14:ab:48:c8:1a:26:
                    c9:0e:81:78:b1:20:8b:e0:b9:70:4e:9f:a7:85:83:
                    b8:29:fa:fe:6f:de:58:b8:47:40:4e:2f:2f:76:77:
                    f0:2b:73:2d:6f:75:b3:53:c0:a7:07:ad:f2:62:c8:
                    58:1c:45:8c:94:81:e0:e0:df:95:22:ba:e1:e2:f0:
                    71:66:6b:d9:44:98:c4:0a:da:42:c2:3b:2a:9a:4f:
                    27:1b:6f:2c:ba:15:f1:35:c0:4e:56:e8:9f:6d:ac:
                    97:29:e9:5d:6e:06:e4:ac:f1:f4:3b:bb:93:61:3b:
                    d0:d2:b1:2a:39:82:54:4c:e4:08:ce:a3:75:27:d6:
                    e9:fa:9f:76:74:3f:de:83:8c:e5:e7:60:da:68:8b:
                    2c:80:7b
                Exponent: 65537 (0x10001)
        X509v3 extensions:
            X509v3 Basic Constraints: 
                CA:FALSE
            Netscape Comment: 
                Easy-RSA Generated Certificate
            X509v3 Subject Key Identifier: 
                1A:28:6E:49:15:15:42:83:32:65:5D:20:3C:F0:1A:AE:28:54:7F:F9
            X509v3 Authority Key Identifier: 
                keyid:12:CD:60:04:D2:A0:80:9E:70:ED:C6:99:B8:7B:2C:C6:52:FD:19:A1
                DirName:/C=US/ST=OH/L=Columbus/O=VikingVPN/OU=MyOrganizationalUnit/CN=VikingVPN CA/name=EasyRSA/emailAddress=me@myhost.mydomain
                serial:CF:35:85:EE:80:BF:2A:3E

            X509v3 Extended Key Usage: 
                TLS Web Client Authentication
            X509v3 Key Usage: 
                Digital Signature
    Signature Algorithm: sha256WithRSAEncryption
         57:2a:02:fb:85:17:ea:aa:9d:51:6e:6f:06:1e:96:25:53:c5:
         d6:3d:2d:5a:3c:eb:c5:d3:c3:7f:d0:85:b7:78:98:a1:3d:36:
         90:c4:9f:55:a7:e3:5c:49:88:e9:e7:50:e1:30:01:f5:1e:e1:
         66:43:81:45:fa:f1:16:3d:91:6f:38:82:8c:49:3a:f7:e7:9a:
         5c:02:ee:f5:21:f4:31:17:1c:2d:c8:07:98:f5:5a:c8:52:9c:
         1e:9b:37:2e:d6:57:7c:d7:86:53:23:3d:87:b9:f2:37:bc:16:
         83:a0:61:93:33:02:98:56:64:ae:1f:90:b7:c5:36:6a:67:05:
         fb:f6:09:d5:6f:3e:16:b6:16:49:34:0c:c0:34:22:9e:39:2f:
         e0:5a:3a:25:c9:7f:b8:ef:7b:57:9a:17:be:18:00:a3:6e:d7:
         10:61:d5:fb:f7:a6:83:6c:68:97:7c:c0:26:a6:a9:db:4d:0e:
         4f:ab:20:60:45:33:87:cb:7d:2e:88:64:81:75:9f:d1:0b:52:
         98:83:9c:a7:99:57:7f:8c:15:68:34:cc:81:cb:9e:d9:39:72:
         30:3b:16:90:f2:8b:df:23:47:95:a5:d5:05:90:42:45:41:3a:
         75:92:93:ea:f6:1b:22:cf:cf:e8:28:25:e5:58:8e:12:61:69:
         6e:5d:36:1e:3b:dd:61:15:cb:e3:eb:71:e2:e4:d0:03:8a:b7:
         b0:07:b6:3a:a6:c5:f6:cc:90:0c:1d:fb:40:72:6f:72:13:f4:
         13:5a:af:0d:1c:9f:e2:c7:95:a3:c4:55:22:33:43:47:f8:09:
         dd:ab:1a:18:e9:59:b1:46:bc:83:85:ec:e2:31:a5:3d:4a:d1:
         b6:a4:80:60:cb:08:53:f8:58:3e:61:42:99:3f:35:0e:3e:da:
         a4:a5:23:90:68:0f:87:7d:01:13:b4:cd:b9:19:81:55:4b:c7:
         10:fd:bd:c1:57:7d:1c:68:2b:ca:2f:b2:3b:72:c7:8b:bf:af:
         91:e4:a7:fe:94:80:e8:36:71:f6:c6:e9:38:9e:63:c6:71:1f:
         82:07:69:67:8d:66:7f:f9:93:2e:32:6a:be:ee:0f:c6:a9:6f:
         1a:96:19:a4:1d:bd:e8:43:b4:11:68:e8:8a:b7:41:8a:d5:54:
         80:54:bf:f4:98:1b:7b:c3:de:01:58:33:33:10:c3:c4:55:09:
         34:ae:2a:1f:35:e7:49:b8:67:f1:8c:08:58:7a:86:19:30:77:
         a5:55:bd:91:7f:2a:08:a4:d7:ce:03:80:a6:2d:7e:fb:bd:92:
         0c:6d:ba:cd:e8:df:d4:ce:e3:93:bc:a6:a0:b9:2b:c5:60:54:
         26:bf:65:6b:4a:4d:4d:a5
-----BEGIN CERTIFICATE-----
MIIGrTCCBJWgAwIBAgICLTswDQYJKoZIhvcNAQELBQAwgawxCzAJBgNVBAYTAlVT
MQswCQYDVQQIEwJPSDERMA8GA1UEBxMIQ29sdW1idXMxEjAQBgNVBAoTCVZpa2lu
Z1ZQTjEdMBsGA1UECxMUTXlPcmdhbml6YXRpb25hbFVuaXQxFTATBgNVBAMTDFZp
a2luZ1ZQTiBDQTEQMA4GA1UEKRMHRWFzeVJTQTEhMB8GCSqGSIb3DQEJARYSbWVA
bXlob3N0Lm15ZG9tYWluMB4XDTE3MDgxODIwNDUyMFoXDTI3MDgxNjIwNDUyMFow
HzEdMBsGA1UEAxMUQ2xpZW50MzA1M0NlcnRmNjdmMjIwggIiMA0GCSqGSIb3DQEB
AQUAA4ICDwAwggIKAoICAQDHaad20vGJ75pW8QOht0Rq54l+VJAB6WFlN61Ejpr3
7hdM+CxmvUz1TTyqr0v/7ACH7u3vgh3iRbGjmwugRbScON5EZvy7irDUpkh1rYUp
BYhM9WqGot3bs1o9JoINQSuhyGdyrDY5jzgldWs8UsD4bTjLL4i2DrWRE+oIm2BZ
uTb7zKX5JyD/XGApPiEMybBgv1JJ8dKZeqa1X0mlMbHG9F88nOV/Q5WJvkTLRQ0F
7KHfdovOwmEVNa0ZG587hSgh8vwjcqrJpSqcEFdyw5WAdCCJxl7HcboPQjABMcYU
oThf7fTIoqJ8X6buKA473KTgwOSEZk4WyP8TKpsAoY5De5CJ2GXiYc2EmS8k91Mf
BLpb4kj5GYL2aTjq9RvTHae9zVS80wO+VCd2wKGBmgc08q04SfuZixuJcC+basvW
sclaE2CKy8ZcEP20Ngy17GFVCRedS1mvPoq++jQ4GWPV6qmQJW4xnO+qcSzyds7e
iRSrSMgaJskOgXixIIvguXBOn6eFg7gp+v5v3li4R0BOLy92d/Arcy1vdbNTwKcH
rfJiyFgcRYyUgeDg35UiuuHi8HFma9lEmMQK2kLCOyqaTycbbyy6FfE1wE5W6J9t
rJcp6V1uBuSs8fQ7u5NhO9DSsSo5glRM5AjOo3Un1un6n3Z0P96DjOXnYNpoiyyA
ewIDAQABo4IBYzCCAV8wCQYDVR0TBAIwADAtBglghkgBhvhCAQ0EIBYeRWFzeS1S
U0EgR2VuZXJhdGVkIENlcnRpZmljYXRlMB0GA1UdDgQWBBQaKG5JFRVCgzJlXSA8
8BquKFR/+TCB4QYDVR0jBIHZMIHWgBQSzWAE0qCAnnDtxpm4eyzGUv0ZoaGBsqSB
rzCBrDELMAkGA1UEBhMCVVMxCzAJBgNVBAgTAk9IMREwDwYDVQQHEwhDb2x1bWJ1
czESMBAGA1UEChMJVmlraW5nVlBOMR0wGwYDVQQLExRNeU9yZ2FuaXphdGlvbmFs
VW5pdDEVMBMGA1UEAxMMVmlraW5nVlBOIENBMRAwDgYDVQQpEwdFYXN5UlNBMSEw
HwYJKoZIhvcNAQkBFhJtZUBteWhvc3QubXlkb21haW6CCQDPNYXugL8qPjATBgNV
HSUEDDAKBggrBgEFBQcDAjALBgNVHQ8EBAMCB4AwDQYJKoZIhvcNAQELBQADggIB
AFcqAvuFF+qqnVFubwYeliVTxdY9LVo868XTw3/Qhbd4mKE9NpDEn1Wn41xJiOnn
UOEwAfUe4WZDgUX68RY9kW84goxJOvfnmlwC7vUh9DEXHC3IB5j1WshSnB6bNy7W
V3zXhlMjPYe58je8FoOgYZMzAphWZK4fkLfFNmpnBfv2CdVvPha2Fkk0DMA0Ip45
L+BaOiXJf7jve1eaF74YAKNu1xBh1fv3poNsaJd8wCamqdtNDk+rIGBFM4fLfS6I
ZIF1n9ELUpiDnKeZV3+MFWg0zIHLntk5cjA7FpDyi98jR5Wl1QWQQkVBOnWSk+r2
GyLPz+goJeVYjhJhaW5dNh473WEVy+PrceLk0AOKt7AHtjqmxfbMkAwd+0Byb3IT
9BNarw0cn+LHlaPEVSIzQ0f4Cd2rGhjpWbFGvIOF7OIxpT1K0bakgGDLCFP4WD5h
Qpk/NQ4+2qSlI5BoD4d9ARO0zbkZgVVLxxD9vcFXfRxoK8ovsjtyx4u/r5Hkp/6U
gOg2cfbG6TieY8ZxH4IHaWeNZn/5ky4yar7uD8apbxqWGaQdvehDtBFo6Iq3QYrV
VIBUv/SYG3vD3gFYMzMQw8RVCTSuKh8150m4Z/GMCFh6hhkwd6VVvZF/Kgik184D
gKYtfvu9kgxtus3o39TO45O8pqC5K8VgVCa/ZWtKTU2l
-----END CERTIFICATE-----
