Certificate:
    Data:
        Version: 3 (0x2)
        Serial Number: 5100 (0x13ec)
    Signature Algorithm: md5WithRSAEncryption
        Issuer: C=US, ST=OH, L=Columbus, O=VikingVPN, OU=MyOrganizationalUnit, CN=VikingVPN CA/name=EasyRSA/emailAddress=me@myhost.mydomain
        Validity
            Not Before: Apr 27 05:08:32 2015 GMT
            Not After : Apr 24 05:08:32 2025 GMT
        Subject: CN=Client1644Cert5d2b10
        Subject Public Key Info:
            Public Key Algorithm: rsaEncryption
                Public-Key: (4096 bit)
                Modulus:
                    00:b6:4a:ce:22:06:0e:78:da:2c:fd:0a:2f:44:fe:
                    61:68:3d:89:59:76:e1:17:0d:7e:91:00:43:f6:87:
                    ef:03:de:f5:ae:84:5d:92:c0:62:63:96:ae:b2:f3:
                    ad:9c:ee:77:1a:6a:e5:ad:a0:7c:3a:58:51:23:57:
                    6b:8e:6e:ce:71:65:1a:ad:be:55:cd:00:0e:37:78:
                    02:1d:04:9a:8f:67:ba:20:83:d3:12:7c:1b:72:2e:
                    b5:dd:d2:33:f9:a3:32:5b:89:80:43:cd:29:b8:72:
                    a6:74:d9:28:c6:ca:23:10:a2:c3:7c:47:d8:53:27:
                    be:c0:ac:b7:cb:32:62:ab:d7:ce:dc:32:b3:5f:a0:
                    06:ec:28:16:3a:99:66:29:84:8a:03:88:85:b1:f8:
                    52:19:51:6f:56:76:78:f5:c9:8b:35:6f:01:1f:3d:
                    28:2b:aa:13:24:cb:d2:01:fa:bd:a3:e5:61:f6:52:
                    80:65:20:e2:ac:5f:e6:b4:49:1f:e8:9f:0c:c9:9d:
                    29:0d:cc:83:7b:0e:59:70:07:4c:ba:77:aa:1c:7a:
                    77:1f:09:7a:81:18:af:4e:3e:b9:38:64:de:1a:ff:
                    9c:4d:f3:fe:22:b5:08:f5:36:3d:5d:76:40:33:9e:
                    4b:59:ca:ac:83:1a:45:6a:e5:5d:82:b6:6d:8b:d2:
                    6c:52:c5:d9:78:a9:85:07:50:6a:10:72:ad:83:96:
                    18:4e:6b:85:54:97:5a:37:e3:f2:5b:b5:84:8c:8f:
                    61:e1:c6:68:20:bf:b6:c8:49:b6:e6:d3:b4:aa:3a:
                    c3:ca:c6:e2:e4:85:06:73:7a:f5:71:cb:66:a2:6e:
                    a2:d7:1f:69:22:32:86:38:8c:22:2d:a1:70:2f:a0:
                    34:41:62:13:16:7b:4c:8a:42:3e:ce:c5:3f:0e:d5:
                    58:a1:50:4c:fb:de:aa:2a:56:ce:2c:15:82:da:e2:
                    4b:48:79:bd:72:30:58:26:98:c1:2b:1a:9d:ff:49:
                    f7:a6:08:0c:f1:22:54:fd:b7:46:fa:37:cf:68:1d:
                    3c:c7:45:a3:d0:f0:c8:39:0d:f9:e3:8f:f8:df:dd:
                    42:c4:55:ca:8f:11:20:73:1f:82:6b:1c:1e:ba:4e:
                    c5:30:1e:0c:e0:88:5e:32:3a:76:22:8e:6c:90:04:
                    6f:ab:b9:46:90:90:47:13:fc:17:00:4b:3b:51:a4:
                    a2:ca:50:5c:0e:b6:90:94:f7:03:b2:5e:c6:5b:85:
                    94:85:12:fd:c4:94:69:a5:8c:4d:d7:e1:e0:e4:37:
                    33:56:7a:0e:ac:17:ad:b4:be:b2:e0:9f:6a:a4:6b:
                    f5:67:c5:a9:fa:fd:96:c8:d5:03:14:d5:2f:6b:6e:
                    30:fe:01
                Exponent: 65537 (0x10001)
        X509v3 extensions:
            X509v3 Basic Constraints: 
                CA:FALSE
            Netscape Comment: 
                Easy-RSA Generated Certificate
            X509v3 Subject Key Identifier: 
                B3:39:D5:0A:DA:07:9C:18:48:54:0E:0D:FF:0D:43:CA:31:BE:00:45
            X509v3 Authority Key Identifier: 
                keyid:12:CD:60:04:D2:A0:80:9E:70:ED:C6:99:B8:7B:2C:C6:52:FD:19:A1
                DirName:/C=US/ST=OH/L=Columbus/O=VikingVPN/OU=MyOrganizationalUnit/CN=VikingVPN CA/name=EasyRSA/emailAddress=me@myhost.mydomain
                serial:CF:35:85:EE:80:BF:2A:3E

            X509v3 Extended Key Usage: 
                TLS Web Client Authentication
            X509v3 Key Usage: 
                Digital Signature
    Signature Algorithm: md5WithRSAEncryption
         08:de:55:99:db:3c:0e:9f:5b:1a:31:c0:6c:6f:3d:2b:2a:78:
         36:65:1c:b6:71:a0:0f:a2:35:7f:18:92:14:bb:f4:a9:6a:01:
         4c:91:fd:f9:fd:eb:55:c6:19:ee:df:2f:bc:a1:48:f8:3a:cf:
         08:2d:c0:8e:c9:a4:63:f5:be:57:2d:50:99:92:98:48:c7:52:
         60:73:04:1b:78:dc:86:c6:2b:5c:b2:32:36:2d:a9:9b:27:53:
         b4:e3:c8:a8:18:2f:d5:46:b7:03:06:f9:68:7a:79:b9:91:a7:
         dc:98:58:eb:e6:28:98:70:f9:44:ad:94:4c:1a:a7:e4:0e:a2:
         6c:29:03:3e:24:62:72:17:b7:38:b0:6b:f8:34:1d:c4:53:3c:
         73:5b:95:17:4b:9a:04:df:66:fa:7d:bb:e0:ef:36:36:4e:9b:
         1f:37:24:b3:78:6c:74:59:85:91:fe:2e:49:60:a0:86:94:5b:
         5e:f5:89:b1:f2:1e:1b:9b:76:fc:f7:43:81:d3:45:ee:9a:e7:
         ce:7b:ae:2a:24:99:89:bc:82:dd:81:ab:45:0b:50:4e:80:c8:
         8a:dc:f5:ec:8f:1d:02:28:8d:8f:7f:52:24:29:44:b9:f1:d5:
         b9:8f:d6:4d:8e:ce:de:a7:7a:83:58:bd:12:2e:a5:27:04:64:
         ae:d1:b5:4f:ed:96:23:b9:78:88:31:68:9b:5b:8b:6a:97:53:
         f2:01:73:0f:04:ba:89:6a:dd:54:95:fb:b4:4d:36:d5:56:01:
         0c:46:44:29:9e:a8:05:47:68:73:3b:94:52:67:72:26:87:ec:
         c3:88:7d:10:d3:5d:21:41:44:fa:4d:75:69:46:c8:6f:fb:82:
         fe:a1:09:9e:f5:fe:d5:4d:70:cb:0f:c2:a5:23:03:fe:e1:fe:
         cd:68:01:d9:87:39:5c:69:ea:12:8f:1d:c0:6d:2a:da:08:d7:
         5f:61:3f:83:12:57:98:7a:6f:ed:dc:56:3c:08:cb:45:80:51:
         c0:fe:57:08:7e:22:72:10:c8:cd:85:22:87:57:6d:50:2a:b9:
         35:04:3d:c5:ac:74:e9:98:d0:b9:02:5d:fd:77:5d:8f:d1:7f:
         8d:84:4d:69:52:4d:1c:b8:05:1a:8d:48:c0:0d:d4:69:45:80:
         e6:d8:09:cb:6f:d1:22:6a:b4:4e:e0:f8:78:35:f6:21:f9:66:
         51:fe:61:66:82:cf:43:d3:e6:ae:72:8b:4e:cf:ad:60:73:55:
         79:d1:5f:ab:0b:89:dd:21:9e:c8:76:7d:9d:ca:d3:e7:89:75:
         b9:a0:3c:86:23:87:3b:fe:c5:50:d7:36:68:b2:34:98:74:90:
         cf:1d:ac:c5:b0:2b:2e:1d
-----BEGIN CERTIFICATE-----
MIIGrTCCBJWgAwIBAgICE+wwDQYJKoZIhvcNAQEEBQAwgawxCzAJBgNVBAYTAlVT
MQswCQYDVQQIEwJPSDERMA8GA1UEBxMIQ29sdW1idXMxEjAQBgNVBAoTCVZpa2lu
Z1ZQTjEdMBsGA1UECxMUTXlPcmdhbml6YXRpb25hbFVuaXQxFTATBgNVBAMTDFZp
a2luZ1ZQTiBDQTEQMA4GA1UEKRMHRWFzeVJTQTEhMB8GCSqGSIb3DQEJARYSbWVA
bXlob3N0Lm15ZG9tYWluMB4XDTE1MDQyNzA1MDgzMloXDTI1MDQyNDA1MDgzMlow
HzEdMBsGA1UEAxMUQ2xpZW50MTY0NENlcnQ1ZDJiMTAwggIiMA0GCSqGSIb3DQEB
AQUAA4ICDwAwggIKAoICAQC2Ss4iBg542iz9Ci9E/mFoPYlZduEXDX6RAEP2h+8D
3vWuhF2SwGJjlq6y862c7ncaauWtoHw6WFEjV2uObs5xZRqtvlXNAA43eAIdBJqP
Z7ogg9MSfBtyLrXd0jP5ozJbiYBDzSm4cqZ02SjGyiMQosN8R9hTJ77ArLfLMmKr
187cMrNfoAbsKBY6mWYphIoDiIWx+FIZUW9Wdnj1yYs1bwEfPSgrqhMky9IB+r2j
5WH2UoBlIOKsX+a0SR/onwzJnSkNzIN7DllwB0y6d6ocencfCXqBGK9OPrk4ZN4a
/5xN8/4itQj1Nj1ddkAznktZyqyDGkVq5V2Ctm2L0mxSxdl4qYUHUGoQcq2DlhhO
a4VUl1o34/JbtYSMj2Hhxmggv7bISbbm07SqOsPKxuLkhQZzevVxy2aibqLXH2ki
MoY4jCItoXAvoDRBYhMWe0yKQj7OxT8O1VihUEz73qoqVs4sFYLa4ktIeb1yMFgm
mMErGp3/SfemCAzxIlT9t0b6N89oHTzHRaPQ8Mg5Dfnjj/jf3ULEVcqPESBzH4Jr
HB66TsUwHgzgiF4yOnYijmyQBG+ruUaQkEcT/BcASztRpKLKUFwOtpCU9wOyXsZb
hZSFEv3ElGmljE3X4eDkNzNWeg6sF620vrLgn2qka/Vnxan6/ZbI1QMU1S9rbjD+
AQIDAQABo4IBYzCCAV8wCQYDVR0TBAIwADAtBglghkgBhvhCAQ0EIBYeRWFzeS1S
U0EgR2VuZXJhdGVkIENlcnRpZmljYXRlMB0GA1UdDgQWBBSzOdUK2gecGEhUDg3/
DUPKMb4ARTCB4QYDVR0jBIHZMIHWgBQSzWAE0qCAnnDtxpm4eyzGUv0ZoaGBsqSB
rzCBrDELMAkGA1UEBhMCVVMxCzAJBgNVBAgTAk9IMREwDwYDVQQHEwhDb2x1bWJ1
czESMBAGA1UEChMJVmlraW5nVlBOMR0wGwYDVQQLExRNeU9yZ2FuaXphdGlvbmFs
VW5pdDEVMBMGA1UEAxMMVmlraW5nVlBOIENBMRAwDgYDVQQpEwdFYXN5UlNBMSEw
HwYJKoZIhvcNAQkBFhJtZUBteWhvc3QubXlkb21haW6CCQDPNYXugL8qPjATBgNV
HSUEDDAKBggrBgEFBQcDAjALBgNVHQ8EBAMCB4AwDQYJKoZIhvcNAQEEBQADggIB
AAjeVZnbPA6fWxoxwGxvPSsqeDZlHLZxoA+iNX8YkhS79KlqAUyR/fn961XGGe7f
L7yhSPg6zwgtwI7JpGP1vlctUJmSmEjHUmBzBBt43IbGK1yyMjYtqZsnU7TjyKgY
L9VGtwMG+Wh6ebmRp9yYWOvmKJhw+UStlEwap+QOomwpAz4kYnIXtziwa/g0HcRT
PHNblRdLmgTfZvp9u+DvNjZOmx83JLN4bHRZhZH+LklgoIaUW171ibHyHhubdvz3
Q4HTRe6a5857riokmYm8gt2Bq0ULUE6AyIrc9eyPHQIojY9/UiQpRLnx1bmP1k2O
zt6neoNYvRIupScEZK7RtU/tliO5eIgxaJtbi2qXU/IBcw8Euolq3VSV+7RNNtVW
AQxGRCmeqAVHaHM7lFJnciaH7MOIfRDTXSFBRPpNdWlGyG/7gv6hCZ71/tVNcMsP
wqUjA/7h/s1oAdmHOVxp6hKPHcBtKtoI119hP4MSV5h6b+3cVjwIy0WAUcD+Vwh+
InIQyM2FIodXbVAquTUEPcWsdOmY0LkCXf13XY/Rf42ETWlSTRy4BRqNSMAN1GlF
gObYCctv0SJqtE7g+Hg19iH5ZlH+YWaCz0PT5q5yi07PrWBzVXnRX6sLid0hnsh2
fZ3K0+eJdbmgPIYjhzv+xVDXNmiyNJh0kM8drMWwKy4d
-----END CERTIFICATE-----
