Certificate:
    Data:
        Version: 3 (0x2)
        Serial Number: 1311 (0x51f)
    Signature Algorithm: md5WithRSAEncryption
        Issuer: C=US, ST=OH, L=Columbus, O=VikingVPN, OU=MyOrganizationalUnit, CN=VikingVPN CA/name=EasyRSA/emailAddress=me@myhost.mydomain
        Validity
            Not Before: Mar 18 10:38:59 2014 GMT
            Not After : Mar 15 10:38:59 2024 GMT
        Subject: CN=Client486Certe0f4bf
        Subject Public Key Info:
            Public Key Algorithm: rsaEncryption
                Public-Key: (4096 bit)
                Modulus:
                    00:98:63:69:93:ab:9d:39:50:54:a5:90:b3:05:3e:
                    50:fc:c1:9e:84:bf:bb:19:98:21:be:c5:2e:91:b2:
                    10:f9:9d:af:2b:d3:42:fd:0b:cb:f8:ed:fc:ad:be:
                    07:f0:57:a4:54:43:53:e2:51:b6:81:19:10:18:0f:
                    35:cb:39:e1:0b:41:21:00:0e:22:19:1a:bf:9b:3e:
                    49:e6:d9:b3:31:e4:ea:0d:fb:1b:b1:9e:c7:72:59:
                    42:a5:a3:bf:1f:66:9b:ca:a2:40:b0:76:81:87:f4:
                    4c:6c:c0:43:ac:fd:91:0c:15:e7:e6:50:42:7a:87:
                    91:d5:53:8d:08:a9:5d:16:30:f1:2b:f6:e3:07:ca:
                    9c:ad:4f:f5:7d:d5:c1:60:62:71:9a:81:0f:53:ff:
                    14:51:7b:57:0a:e3:14:b4:84:9e:2f:c4:a3:d4:4d:
                    36:40:b8:2c:a5:ac:44:d5:3b:c3:f9:d0:1c:16:76:
                    d1:f5:7f:71:39:0f:c8:94:3c:e8:e7:b6:2b:c2:d6:
                    88:4d:76:3f:f0:9f:ec:e1:d9:1f:c3:69:7a:e2:db:
                    37:b6:a0:d8:38:32:51:02:55:a0:cb:c3:c6:58:f2:
                    4c:eb:77:ed:8d:98:0a:8d:8f:d9:5a:27:ea:af:eb:
                    a3:62:06:27:92:df:1a:5b:27:25:45:5b:d4:7c:95:
                    10:57:b0:c8:97:e0:b2:fa:f2:9f:a6:b6:0f:07:3d:
                    8a:65:ef:6c:79:b3:8a:d2:57:e3:ed:83:8b:18:47:
                    60:8e:10:85:9f:26:0b:b6:de:59:37:fc:2b:51:82:
                    5c:35:bc:ab:72:a0:54:13:ff:72:cc:de:ea:b3:fa:
                    a7:bf:6d:53:8a:77:97:40:5b:49:5a:3a:21:21:ef:
                    61:a0:2d:16:57:c2:72:2d:4c:73:02:56:03:85:80:
                    6c:54:71:f5:2d:72:bf:b1:c9:17:83:04:8f:fb:a8:
                    4d:42:bc:8a:c4:c5:bd:4a:8f:38:96:27:d1:ec:d3:
                    36:00:b0:e9:a5:88:59:42:b0:7b:28:17:90:e8:84:
                    28:32:9a:2b:da:7d:be:c7:95:ea:07:02:62:17:3c:
                    09:d1:fa:69:41:ff:6c:fb:e9:21:b4:94:cc:cb:08:
                    26:07:98:bf:0c:78:9d:d7:f5:9d:c6:ac:e8:33:2d:
                    f5:50:91:28:7a:69:84:fc:5a:42:d5:56:93:ac:bb:
                    28:90:ec:01:36:3a:a0:1a:aa:bf:12:ce:df:04:3d:
                    a2:9d:cf:1a:fa:95:59:d4:26:c4:4c:34:29:0a:70:
                    90:ac:22:44:a2:34:2b:93:0a:e0:d9:6d:18:ed:d4:
                    f2:9c:8b:b8:40:d2:41:ea:77:4f:c4:cd:5d:41:d0:
                    f0:b0:f9
                Exponent: 65537 (0x10001)
        X509v3 extensions:
            X509v3 Basic Constraints: 
                CA:FALSE
            Netscape Comment: 
                Easy-RSA Generated Certificate
            X509v3 Subject Key Identifier: 
                82:6D:DF:36:CD:04:6E:7E:89:5F:72:20:C9:59:35:C5:A7:F2:07:4C
            X509v3 Authority Key Identifier: 
                keyid:12:CD:60:04:D2:A0:80:9E:70:ED:C6:99:B8:7B:2C:C6:52:FD:19:A1
                DirName:/C=US/ST=OH/L=Columbus/O=VikingVPN/OU=MyOrganizationalUnit/CN=VikingVPN CA/name=EasyRSA/emailAddress=me@myhost.mydomain
                serial:CF:35:85:EE:80:BF:2A:3E

            X509v3 Extended Key Usage: 
                TLS Web Client Authentication
            X509v3 Key Usage: 
                Digital Signature
    Signature Algorithm: md5WithRSAEncryption
         6e:32:cd:dd:97:03:a6:d9:89:e0:c3:b8:50:02:34:28:78:88:
         0d:f0:f3:05:5b:95:71:b5:08:3c:03:f6:b0:8d:6b:61:21:1f:
         12:b5:cd:31:45:ee:a2:5b:87:0b:7f:ca:7e:a6:39:0d:a6:da:
         94:d5:55:3d:45:6e:10:78:20:04:34:8a:09:16:13:ad:65:88:
         59:1c:db:56:2a:f3:64:bd:f9:65:a0:0d:2a:4c:cf:91:88:c4:
         ca:f3:4f:9c:4c:ee:f0:6d:3b:c0:b6:47:4b:00:70:68:44:1a:
         6f:5e:7c:0e:15:af:6a:45:d8:0d:ba:8d:8a:79:d8:bd:38:00:
         be:80:d7:8f:7e:a7:66:e8:a4:21:6a:fe:35:a0:be:94:9f:55:
         80:c2:da:5c:44:10:8e:34:d2:66:5c:ec:62:57:64:ea:49:00:
         fe:61:6c:5c:23:45:66:dd:31:2e:f0:56:72:0c:3c:5f:c5:5c:
         ab:1d:96:08:69:d1:c4:9c:bb:49:51:a5:1a:9d:92:5f:76:f4:
         57:24:a2:6d:37:84:b4:f3:e2:0b:fc:c8:77:f4:a3:3b:64:67:
         19:01:d5:9b:60:b3:5b:18:ad:30:8c:4f:41:b0:03:57:ff:5d:
         e6:dc:e1:99:89:ec:4f:51:54:65:b4:e0:dd:d0:4f:a7:f6:4c:
         ca:1c:b2:af:72:a7:62:95:74:5b:ad:6b:59:fb:8b:16:7a:dd:
         d5:9e:fc:af:64:db:1b:27:b8:82:61:0e:0c:dc:e1:c9:8d:e2:
         9a:b7:e4:90:97:36:16:f7:c5:ab:3f:b1:55:0b:80:e7:5b:bd:
         b3:78:79:f0:1f:e2:3d:7d:4f:d7:1d:8f:5f:34:8b:cb:4f:d3:
         d5:98:7e:24:c0:26:d3:bf:e8:ca:8f:90:0d:72:a6:db:bb:00:
         dc:c9:df:47:ea:e1:1e:b1:19:7d:ea:27:8e:c6:8f:4e:94:69:
         15:d1:ff:75:d5:e4:0f:07:8b:87:33:de:73:4f:34:94:7b:96:
         3d:ca:6d:04:eb:ea:3e:8d:5c:e7:e2:81:d1:49:c7:f7:9a:ee:
         e4:3e:c3:04:db:dc:47:aa:91:09:cc:99:6e:2d:ed:8d:89:fd:
         8e:db:1d:dc:03:52:bb:77:cb:5f:d1:3b:12:b1:48:09:39:d4:
         44:62:01:09:d0:c7:ee:8b:27:99:ee:d9:99:6f:fd:ef:54:8e:
         86:52:ee:05:7a:aa:17:ea:c6:24:6f:95:7f:fc:6f:22:7e:7e:
         9d:dd:ec:03:48:e5:59:90:b3:48:1f:4b:d1:00:b3:4e:19:90:
         8d:36:34:05:0f:61:28:87:fb:a4:83:c0:48:17:be:9e:c8:8a:
         59:ef:2a:a1:e3:d2:79:47
-----BEGIN CERTIFICATE-----
MIIGrDCCBJSgAwIBAgICBR8wDQYJKoZIhvcNAQEEBQAwgawxCzAJBgNVBAYTAlVT
MQswCQYDVQQIEwJPSDERMA8GA1UEBxMIQ29sdW1idXMxEjAQBgNVBAoTCVZpa2lu
Z1ZQTjEdMBsGA1UECxMUTXlPcmdhbml6YXRpb25hbFVuaXQxFTATBgNVBAMTDFZp
a2luZ1ZQTiBDQTEQMA4GA1UEKRMHRWFzeVJTQTEhMB8GCSqGSIb3DQEJARYSbWVA
bXlob3N0Lm15ZG9tYWluMB4XDTE0MDMxODEwMzg1OVoXDTI0MDMxNTEwMzg1OVow
HjEcMBoGA1UEAxMTQ2xpZW50NDg2Q2VydGUwZjRiZjCCAiIwDQYJKoZIhvcNAQEB
BQADggIPADCCAgoCggIBAJhjaZOrnTlQVKWQswU+UPzBnoS/uxmYIb7FLpGyEPmd
ryvTQv0Ly/jt/K2+B/BXpFRDU+JRtoEZEBgPNcs54QtBIQAOIhkav5s+SebZszHk
6g37G7Gex3JZQqWjvx9mm8qiQLB2gYf0TGzAQ6z9kQwV5+ZQQnqHkdVTjQipXRYw
8Sv24wfKnK1P9X3VwWBicZqBD1P/FFF7VwrjFLSEni/Eo9RNNkC4LKWsRNU7w/nQ
HBZ20fV/cTkPyJQ86Oe2K8LWiE12P/Cf7OHZH8NpeuLbN7ag2DgyUQJVoMvDxljy
TOt37Y2YCo2P2Von6q/ro2IGJ5LfGlsnJUVb1HyVEFewyJfgsvryn6a2Dwc9imXv
bHmzitJX4+2DixhHYI4QhZ8mC7beWTf8K1GCXDW8q3KgVBP/csze6rP6p79tU4p3
l0BbSVo6ISHvYaAtFlfCci1McwJWA4WAbFRx9S1yv7HJF4MEj/uoTUK8isTFvUqP
OJYn0ezTNgCw6aWIWUKweygXkOiEKDKaK9p9vseV6gcCYhc8CdH6aUH/bPvpIbSU
zMsIJgeYvwx4ndf1ncas6DMt9VCRKHpphPxaQtVWk6y7KJDsATY6oBqqvxLO3wQ9
op3PGvqVWdQmxEw0KQpwkKwiRKI0K5MK4NltGO3U8pyLuEDSQep3T8TNXUHQ8LD5
AgMBAAGjggFjMIIBXzAJBgNVHRMEAjAAMC0GCWCGSAGG+EIBDQQgFh5FYXN5LVJT
QSBHZW5lcmF0ZWQgQ2VydGlmaWNhdGUwHQYDVR0OBBYEFIJt3zbNBG5+iV9yIMlZ
NcWn8gdMMIHhBgNVHSMEgdkwgdaAFBLNYATSoICecO3Gmbh7LMZS/RmhoYGypIGv
MIGsMQswCQYDVQQGEwJVUzELMAkGA1UECBMCT0gxETAPBgNVBAcTCENvbHVtYnVz
MRIwEAYDVQQKEwlWaWtpbmdWUE4xHTAbBgNVBAsTFE15T3JnYW5pemF0aW9uYWxV
bml0MRUwEwYDVQQDEwxWaWtpbmdWUE4gQ0ExEDAOBgNVBCkTB0Vhc3lSU0ExITAf
BgkqhkiG9w0BCQEWEm1lQG15aG9zdC5teWRvbWFpboIJAM81he6Avyo+MBMGA1Ud
JQQMMAoGCCsGAQUFBwMCMAsGA1UdDwQEAwIHgDANBgkqhkiG9w0BAQQFAAOCAgEA
bjLN3ZcDptmJ4MO4UAI0KHiIDfDzBVuVcbUIPAP2sI1rYSEfErXNMUXuoluHC3/K
fqY5DabalNVVPUVuEHggBDSKCRYTrWWIWRzbVirzZL35ZaANKkzPkYjEyvNPnEzu
8G07wLZHSwBwaEQab158DhWvakXYDbqNinnYvTgAvoDXj36nZuikIWr+NaC+lJ9V
gMLaXEQQjjTSZlzsYldk6kkA/mFsXCNFZt0xLvBWcgw8X8Vcqx2WCGnRxJy7SVGl
Gp2SX3b0VySibTeEtPPiC/zId/SjO2RnGQHVm2CzWxitMIxPQbADV/9d5tzhmYns
T1FUZbTg3dBPp/ZMyhyyr3KnYpV0W61rWfuLFnrd1Z78r2TbGye4gmEODNzhyY3i
mrfkkJc2FvfFqz+xVQuA51u9s3h58B/iPX1P1x2PXzSLy0/T1Zh+JMAm07/oyo+Q
DXKm27sA3MnfR+rhHrEZfeonjsaPTpRpFdH/ddXkDweLhzPec080lHuWPcptBOvq
Po1c5+KB0UnH95ru5D7DBNvcR6qRCcyZbi3tjYn9jtsd3ANSu3fLX9E7ErFICTnU
RGIBCdDH7osnme7ZmW/971SOhlLuBXqqF+rGJG+Vf/xvIn5+nd3sA0jlWZCzSB9L
0QCzThmQjTY0BQ9hKIf7pIPASBe+nsiKWe8qoePSeUc=
-----END CERTIFICATE-----
