Certificate:
    Data:
        Version: 3 (0x2)
        Serial Number: 1103 (0x44f)
    Signature Algorithm: md5WithRSAEncryption
        Issuer: C=US, ST=OH, L=Columbus, O=VikingVPN, OU=MyOrganizationalUnit, CN=VikingVPN CA/name=EasyRSA/emailAddress=me@myhost.mydomain
        Validity
            Not Before: Feb 21 06:43:01 2014 GMT
            Not After : Feb 19 06:43:01 2024 GMT
        Subject: CN=Client3Certd73e99
        Subject Public Key Info:
            Public Key Algorithm: rsaEncryption
                Public-Key: (4096 bit)
                Modulus:
                    00:c6:fe:27:dc:26:b8:cd:8a:eb:bf:be:30:a9:d6:
                    ca:c0:1f:04:66:34:af:83:ba:a2:e9:0a:10:ce:66:
                    b5:f8:d4:9e:d4:00:2e:1a:57:8b:5a:2e:e2:fc:39:
                    68:75:d7:6c:e4:4e:31:fb:20:3a:fa:03:f5:f8:35:
                    fa:59:ac:96:f2:7d:5c:08:41:df:12:d7:ff:e2:f4:
                    35:ea:fc:5a:56:18:49:6d:75:be:75:7e:90:a7:d6:
                    3c:b5:24:65:b5:6d:18:ae:77:b0:d7:59:a7:38:c6:
                    15:f0:1c:75:90:d4:67:86:95:a5:b5:8e:a8:74:74:
                    02:f5:47:50:c0:f9:52:f3:fe:a6:41:5e:29:a1:fe:
                    e2:a3:07:5b:90:62:5c:04:60:51:3e:c4:af:b2:5b:
                    01:b2:db:a5:05:3c:dc:56:3e:0c:13:42:dc:4e:90:
                    4c:77:01:6d:84:71:e8:41:e2:f0:e6:3f:67:b8:0a:
                    b7:ab:77:82:44:ad:b3:96:7d:79:c4:62:88:0e:4f:
                    68:0c:42:7a:84:dc:5a:a8:31:39:e1:65:47:a7:9c:
                    1b:95:8b:32:2f:36:cd:c1:e5:85:29:5a:85:11:97:
                    f2:c5:18:03:ec:0a:3f:3b:f7:ad:20:7c:6e:4c:85:
                    e7:bc:00:eb:f1:5b:fa:6d:40:9b:79:a3:c0:e5:3d:
                    34:73:13:45:75:87:88:ff:c2:11:b6:90:33:51:df:
                    39:de:b0:98:31:a2:53:55:84:35:82:66:a5:28:f9:
                    20:f0:c4:f5:2c:53:5a:52:a8:3c:81:63:22:d2:c5:
                    9a:13:0c:59:cf:9f:97:72:70:a7:18:3e:3d:99:58:
                    f5:a4:a6:d8:0c:22:b9:4b:66:a6:a8:e1:a8:5c:73:
                    d1:72:76:21:32:b6:f6:5e:bd:5e:6d:cc:cb:84:a6:
                    1b:72:df:d2:bc:01:1c:20:f2:a3:22:08:fd:64:5a:
                    3b:d8:77:33:e7:8d:b3:c5:15:f7:30:c4:d0:a2:1f:
                    e2:6a:70:bf:32:d2:34:ff:ec:33:97:36:0b:4d:e1:
                    82:c2:8e:da:3c:de:ce:14:e9:4e:8e:36:79:63:a1:
                    e2:17:c4:08:19:c1:94:45:12:0d:a1:bb:e1:ba:00:
                    4d:a2:a4:60:0e:d5:28:05:16:0f:99:79:5a:a3:58:
                    40:83:94:3a:28:cf:01:7f:1a:77:5d:6d:c3:23:1e:
                    33:cb:88:c8:ac:23:b4:5d:99:a6:88:65:f7:2c:d0:
                    b3:06:36:66:3b:00:10:32:8f:31:5e:90:14:15:61:
                    7b:ae:61:94:d2:93:5b:e9:81:bc:d5:94:d7:58:19:
                    33:3a:40:f6:ef:ba:f2:b0:ad:93:eb:d1:fe:e8:1e:
                    e8:53:91
                Exponent: 65537 (0x10001)
        X509v3 extensions:
            X509v3 Basic Constraints: 
                CA:FALSE
            Netscape Comment: 
                Easy-RSA Generated Certificate
            X509v3 Subject Key Identifier: 
                48:19:BA:45:19:46:EF:BE:74:0F:96:C4:F2:8F:77:D4:75:CA:84:43
            X509v3 Authority Key Identifier: 
                keyid:12:CD:60:04:D2:A0:80:9E:70:ED:C6:99:B8:7B:2C:C6:52:FD:19:A1
                DirName:/C=US/ST=OH/L=Columbus/O=VikingVPN/OU=MyOrganizationalUnit/CN=VikingVPN CA/name=EasyRSA/emailAddress=me@myhost.mydomain
                serial:CF:35:85:EE:80:BF:2A:3E

            X509v3 Extended Key Usage: 
                TLS Web Client Authentication
            X509v3 Key Usage: 
                Digital Signature
    Signature Algorithm: md5WithRSAEncryption
         d0:ed:9f:4c:b7:1e:25:6f:a3:c0:59:30:46:1f:8f:1a:32:e1:
         de:58:4d:4c:81:88:5b:e7:1f:a1:64:d9:1b:8f:81:1f:02:d7:
         40:03:bd:44:5d:9d:64:bf:14:85:12:49:81:32:b5:90:89:7f:
         83:81:5b:de:88:fa:49:d6:1e:be:d3:27:d4:79:29:e3:d3:9f:
         f6:60:f9:ed:a4:ba:a4:e3:a4:40:9a:d5:0e:ad:7c:b3:9e:3a:
         3c:b8:94:a2:26:ab:49:95:4d:3a:80:eb:b5:f3:a6:14:cf:f7:
         11:11:b1:21:de:70:23:75:29:b6:7c:2d:32:cb:11:1f:63:4c:
         df:dc:f8:3e:48:55:94:97:16:06:66:8a:cf:80:3f:a3:e4:35:
         b3:23:4a:d5:81:7e:4b:cc:f5:41:85:29:2b:98:80:d9:5f:81:
         2f:a8:43:9a:22:2a:94:a5:e2:1a:08:78:b6:e5:db:4e:29:46:
         06:d5:5f:24:f7:c9:7a:7d:9b:5b:39:c9:7d:5f:c6:11:8c:8b:
         7f:78:3d:b4:7c:bb:75:f3:21:f5:32:83:f2:b3:e6:b2:86:f2:
         c8:53:7d:5e:af:bd:aa:e5:93:82:1f:df:50:0e:8a:b8:15:22:
         4e:f9:2c:8d:e8:35:b6:00:2a:80:76:b8:bf:aa:91:10:d1:40:
         de:f3:66:3f:76:5b:55:0c:b3:4d:eb:95:36:82:8e:9b:37:39:
         81:70:26:c9:54:95:5a:09:71:f5:71:ae:d9:2e:39:40:60:bc:
         a0:da:6b:65:d2:62:8d:f1:22:63:66:a1:a1:4a:cf:b1:86:54:
         ba:6c:c5:46:9c:8a:eb:a5:2a:4f:92:45:97:2c:99:eb:35:9c:
         0a:f1:8c:e5:0f:ed:94:03:b1:11:56:20:2c:c3:b4:8f:b1:3f:
         52:de:c2:ae:f9:88:4a:11:b1:4b:b3:02:2a:6b:d2:38:5e:04:
         8e:0c:98:6d:be:19:50:68:9c:d4:a7:d4:cf:55:31:d0:1e:41:
         df:61:b1:de:54:87:da:d6:79:de:8d:e5:27:f0:42:61:62:e6:
         ec:c0:fd:7b:ed:45:9d:b4:96:0b:b3:00:47:a0:98:d9:ef:16:
         8d:9b:f3:e0:14:e4:32:2e:bd:0f:d6:d1:64:a0:8f:3d:d4:f4:
         f1:8d:79:44:54:3d:44:18:2c:54:7f:94:ff:57:d0:29:5b:73:
         55:ad:2d:d1:d2:9a:5d:2c:6f:ca:30:13:b5:29:99:05:41:ac:
         61:cd:b4:8e:45:b8:e3:e8:c0:4f:a8:0f:b1:56:74:c9:c0:d4:
         b5:39:58:e2:9c:53:57:69:4c:04:ce:fc:94:33:39:2a:b4:fe:
         bc:f2:ff:fd:df:fc:98:40
-----BEGIN CERTIFICATE-----
MIIGqjCCBJKgAwIBAgICBE8wDQYJKoZIhvcNAQEEBQAwgawxCzAJBgNVBAYTAlVT
MQswCQYDVQQIEwJPSDERMA8GA1UEBxMIQ29sdW1idXMxEjAQBgNVBAoTCVZpa2lu
Z1ZQTjEdMBsGA1UECxMUTXlPcmdhbml6YXRpb25hbFVuaXQxFTATBgNVBAMTDFZp
a2luZ1ZQTiBDQTEQMA4GA1UEKRMHRWFzeVJTQTEhMB8GCSqGSIb3DQEJARYSbWVA
bXlob3N0Lm15ZG9tYWluMB4XDTE0MDIyMTA2NDMwMVoXDTI0MDIxOTA2NDMwMVow
HDEaMBgGA1UEAxMRQ2xpZW50M0NlcnRkNzNlOTkwggIiMA0GCSqGSIb3DQEBAQUA
A4ICDwAwggIKAoICAQDG/ifcJrjNiuu/vjCp1srAHwRmNK+DuqLpChDOZrX41J7U
AC4aV4taLuL8OWh112zkTjH7IDr6A/X4NfpZrJbyfVwIQd8S1//i9DXq/FpWGElt
db51fpCn1jy1JGW1bRiud7DXWac4xhXwHHWQ1GeGlaW1jqh0dAL1R1DA+VLz/qZB
Ximh/uKjB1uQYlwEYFE+xK+yWwGy26UFPNxWPgwTQtxOkEx3AW2EcehB4vDmP2e4
Crerd4JErbOWfXnEYogOT2gMQnqE3FqoMTnhZUennBuVizIvNs3B5YUpWoURl/LF
GAPsCj87960gfG5Mhee8AOvxW/ptQJt5o8DlPTRzE0V1h4j/whG2kDNR3znesJgx
olNVhDWCZqUo+SDwxPUsU1pSqDyBYyLSxZoTDFnPn5dycKcYPj2ZWPWkptgMIrlL
Zqao4ahcc9FydiEytvZevV5tzMuEphty39K8ARwg8qMiCP1kWjvYdzPnjbPFFfcw
xNCiH+JqcL8y0jT/7DOXNgtN4YLCjto83s4U6U6ONnljoeIXxAgZwZRFEg2hu+G6
AE2ipGAO1SgFFg+ZeVqjWECDlDoozwF/GnddbcMjHjPLiMisI7RdmaaIZfcs0LMG
NmY7ABAyjzFekBQVYXuuYZTSk1vpgbzVlNdYGTM6QPbvuvKwrZPr0f7oHuhTkQID
AQABo4IBYzCCAV8wCQYDVR0TBAIwADAtBglghkgBhvhCAQ0EIBYeRWFzeS1SU0Eg
R2VuZXJhdGVkIENlcnRpZmljYXRlMB0GA1UdDgQWBBRIGbpFGUbvvnQPlsTyj3fU
dcqEQzCB4QYDVR0jBIHZMIHWgBQSzWAE0qCAnnDtxpm4eyzGUv0ZoaGBsqSBrzCB
rDELMAkGA1UEBhMCVVMxCzAJBgNVBAgTAk9IMREwDwYDVQQHEwhDb2x1bWJ1czES
MBAGA1UEChMJVmlraW5nVlBOMR0wGwYDVQQLExRNeU9yZ2FuaXphdGlvbmFsVW5p
dDEVMBMGA1UEAxMMVmlraW5nVlBOIENBMRAwDgYDVQQpEwdFYXN5UlNBMSEwHwYJ
KoZIhvcNAQkBFhJtZUBteWhvc3QubXlkb21haW6CCQDPNYXugL8qPjATBgNVHSUE
DDAKBggrBgEFBQcDAjALBgNVHQ8EBAMCB4AwDQYJKoZIhvcNAQEEBQADggIBANDt
n0y3HiVvo8BZMEYfjxoy4d5YTUyBiFvnH6Fk2RuPgR8C10ADvURdnWS/FIUSSYEy
tZCJf4OBW96I+knWHr7TJ9R5KePTn/Zg+e2kuqTjpECa1Q6tfLOeOjy4lKImq0mV
TTqA67XzphTP9xERsSHecCN1KbZ8LTLLER9jTN/c+D5IVZSXFgZmis+AP6PkNbMj
StWBfkvM9UGFKSuYgNlfgS+oQ5oiKpSl4hoIeLbl204pRgbVXyT3yXp9m1s5yX1f
xhGMi394PbR8u3XzIfUyg/Kz5rKG8shTfV6vvarlk4If31AOirgVIk75LI3oNbYA
KoB2uL+qkRDRQN7zZj92W1UMs03rlTaCjps3OYFwJslUlVoJcfVxrtkuOUBgvKDa
a2XSYo3xImNmoaFKz7GGVLpsxUaciuulKk+SRZcsmes1nArxjOUP7ZQDsRFWICzD
tI+xP1Lewq75iEoRsUuzAipr0jheBI4MmG2+GVBonNSn1M9VMdAeQd9hsd5Uh9rW
ed6N5SfwQmFi5uzA/XvtRZ20lguzAEegmNnvFo2b8+AU5DIuvQ/W0WSgjz3U9PGN
eURUPUQYLFR/lP9X0Clbc1WtLdHSml0sb8owE7UpmQVBrGHNtI5FuOPowE+oD7FW
dMnA1LU5WOKcU1dpTATO/JQzOSq0/rzy//3f/JhA
-----END CERTIFICATE-----
