Certificate:
    Data:
        Version: 3 (0x2)
        Serial Number: 4924 (0x133c)
    Signature Algorithm: md5WithRSAEncryption
        Issuer: C=US, ST=OH, L=Columbus, O=VikingVPN, OU=MyOrganizationalUnit, CN=VikingVPN CA/name=EasyRSA/emailAddress=me@myhost.mydomain
        Validity
            Not Before: Apr  9 20:10:41 2015 GMT
            Not After : Apr  6 20:10:41 2025 GMT
        Subject: CN=Client560Cert2c6e6d
        Subject Public Key Info:
            Public Key Algorithm: rsaEncryption
                Public-Key: (4096 bit)
                Modulus:
                    00:ad:e2:e7:90:34:da:58:24:05:91:11:35:9e:b3:
                    45:8f:dd:a5:9f:92:c8:4c:30:5f:00:a6:c9:9e:bd:
                    8d:c5:c5:ad:e4:53:ae:17:a8:4c:a8:8d:89:d1:ff:
                    8e:1c:83:48:f6:7c:58:8c:62:2c:54:d3:7e:3e:66:
                    78:3d:c1:4b:25:82:3c:bf:34:38:9c:71:4b:92:4a:
                    86:23:4b:03:88:93:38:a2:0f:22:52:a6:01:66:01:
                    9c:ca:16:a9:95:f8:ad:98:1c:e5:2e:db:dd:2a:7e:
                    9c:06:e7:6c:9d:30:12:be:4a:79:85:93:ac:c2:5d:
                    3a:76:d2:f6:0c:d5:94:0b:f2:73:26:5f:fb:82:98:
                    eb:59:5e:98:0f:f1:80:ec:5b:c9:b5:fd:c5:a4:e3:
                    2a:ba:ce:ff:a3:c8:14:68:ff:43:c8:bb:d9:ad:e5:
                    9d:fe:10:bc:b2:b5:5e:a7:57:c6:24:d3:b2:ca:f5:
                    8c:0a:dd:e3:49:1c:24:14:af:4f:ba:cc:9e:0c:0b:
                    04:de:25:e6:3c:27:a4:5c:1e:61:f1:8d:1d:4e:b9:
                    23:0a:d8:f4:d8:c7:31:35:2a:76:8b:ac:34:f5:55:
                    86:2b:61:9c:96:1a:fa:5e:a4:52:c8:d6:9f:f6:00:
                    68:2f:40:9a:c9:fc:88:c3:33:ba:05:85:17:b9:d3:
                    6e:b7:fd:7a:c9:92:32:ba:5c:74:1f:44:7a:b1:2d:
                    a2:25:1e:16:cc:56:e4:a3:b2:0b:7f:1e:67:e9:72:
                    55:17:f2:2d:d4:77:cf:81:a2:e9:ba:c3:b1:e7:a4:
                    df:7e:00:38:46:7b:1d:e4:43:8c:24:68:e4:e0:c0:
                    87:e6:37:53:5b:b1:34:d7:14:7b:f8:b9:ff:1a:f3:
                    4e:68:4d:dc:92:aa:b9:b4:cd:e0:6e:1e:b6:2f:f0:
                    2f:33:9b:1d:4b:a5:e5:ae:12:03:7a:fb:88:55:8e:
                    0a:62:de:3b:5d:d8:a7:32:5b:f1:97:20:d2:0b:61:
                    20:65:bf:96:b7:67:ab:33:d9:b6:25:66:02:9f:2a:
                    86:e1:6c:78:14:6f:06:08:61:05:c1:96:c6:15:c4:
                    5c:9d:82:f2:e2:06:2e:8d:72:f2:8d:a0:75:16:89:
                    13:99:f6:49:e5:55:9d:e8:77:c8:63:1f:87:26:1e:
                    b0:73:fc:da:9f:ce:7d:67:1b:6d:0d:e2:d0:7b:90:
                    73:d8:ac:1f:1c:d7:5d:a0:49:74:ea:fe:7a:c0:f2:
                    25:98:58:73:02:22:1b:f0:51:57:ef:a4:57:69:15:
                    ee:ab:f8:e6:4e:17:eb:35:d0:6c:bc:33:44:85:96:
                    ca:95:d6:e5:d9:8f:e2:12:7f:f8:47:a0:55:13:2c:
                    1f:8f:27
                Exponent: 65537 (0x10001)
        X509v3 extensions:
            X509v3 Basic Constraints: 
                CA:FALSE
            Netscape Comment: 
                Easy-RSA Generated Certificate
            X509v3 Subject Key Identifier: 
                09:BC:E3:DC:89:BC:D2:2C:9D:3F:21:4C:73:33:CC:CA:9F:A6:E3:0D
            X509v3 Authority Key Identifier: 
                keyid:12:CD:60:04:D2:A0:80:9E:70:ED:C6:99:B8:7B:2C:C6:52:FD:19:A1
                DirName:/C=US/ST=OH/L=Columbus/O=VikingVPN/OU=MyOrganizationalUnit/CN=VikingVPN CA/name=EasyRSA/emailAddress=me@myhost.mydomain
                serial:CF:35:85:EE:80:BF:2A:3E

            X509v3 Extended Key Usage: 
                TLS Web Client Authentication
            X509v3 Key Usage: 
                Digital Signature
    Signature Algorithm: md5WithRSAEncryption
         5b:d8:ac:6f:b6:b2:fa:7a:36:a8:e1:35:cc:35:44:b9:17:ff:
         e9:d2:9b:35:91:c9:fa:11:b3:c4:40:8b:2d:ca:f3:57:ea:b0:
         e5:3c:fa:45:57:c5:6b:22:35:fb:68:17:a6:f1:a7:91:8e:03:
         60:bc:b5:00:23:42:1a:64:e3:35:7b:ed:12:38:0e:e6:97:21:
         0b:b6:a2:80:ca:bc:a7:e3:49:0d:40:27:32:3b:5e:63:3d:81:
         a7:d4:3b:ff:80:ba:c2:29:b4:76:90:d4:24:5c:45:05:a0:1b:
         b8:6b:30:99:3b:c0:2a:5c:b9:9c:00:dd:0d:68:f9:53:2e:d5:
         d7:a8:f5:cf:c4:74:95:88:93:5b:f5:3a:08:84:30:ae:b3:50:
         af:b0:c5:c5:a4:6a:50:7d:b6:9a:dd:1a:70:49:e1:c0:c6:07:
         fc:c7:81:db:0c:34:e9:57:33:2d:25:6e:76:cf:1b:a2:17:f9:
         9d:1c:b5:e3:88:60:37:1b:3c:e7:bb:c9:da:b1:55:06:f6:7a:
         1e:0d:61:97:1d:14:1b:2c:19:f1:8f:25:53:31:df:6c:a7:f7:
         c9:9e:84:39:e1:35:4d:ae:19:13:70:f2:a1:f1:96:d3:d6:72:
         fe:1c:5f:29:c3:39:b7:92:fd:3c:37:6d:b3:ca:7e:9c:3b:bd:
         8c:fe:80:b4:b8:6d:9b:50:ea:aa:77:2b:54:bb:55:4a:23:51:
         7b:8d:c7:7f:80:1e:49:49:00:45:93:1b:d7:4d:da:64:a7:36:
         d1:fd:4e:45:89:2a:a4:2f:fa:10:16:c3:43:42:45:eb:dd:23:
         f1:ab:57:51:a0:38:c8:8c:71:8d:e4:c5:26:d4:c4:d2:ff:50:
         9b:72:d7:96:de:26:98:c7:e3:bb:c9:28:8a:cb:43:87:3d:23:
         b1:04:55:f3:98:43:9c:6a:5c:8d:42:62:67:96:d2:fd:05:5f:
         e7:6b:25:25:d5:04:55:b7:2f:09:33:7e:21:87:4c:b2:7b:12:
         fc:e7:50:20:af:05:b3:65:b6:32:86:ba:09:be:d2:27:d1:ca:
         44:f5:64:3b:89:59:65:7e:bf:6d:05:56:9e:37:8e:81:80:7a:
         8f:34:60:8a:28:c2:4a:64:5d:4d:44:3f:01:76:23:60:d9:02:
         b4:42:e4:ab:9b:48:2b:e7:a5:ed:a5:5f:1f:f0:7c:6b:89:ea:
         e8:46:8f:02:8e:1a:8a:cf:51:2e:09:ef:d9:5f:32:80:8f:2d:
         19:0a:d6:63:ba:b4:0c:07:d4:1f:82:10:af:a6:9a:ea:c7:2c:
         fc:5b:d4:5f:d7:5d:fe:59:33:c9:04:49:3d:67:ef:ea:66:d2:
         cb:3f:ef:92:f0:f8:1c:4d
-----BEGIN CERTIFICATE-----
MIIGrDCCBJSgAwIBAgICEzwwDQYJKoZIhvcNAQEEBQAwgawxCzAJBgNVBAYTAlVT
MQswCQYDVQQIEwJPSDERMA8GA1UEBxMIQ29sdW1idXMxEjAQBgNVBAoTCVZpa2lu
Z1ZQTjEdMBsGA1UECxMUTXlPcmdhbml6YXRpb25hbFVuaXQxFTATBgNVBAMTDFZp
a2luZ1ZQTiBDQTEQMA4GA1UEKRMHRWFzeVJTQTEhMB8GCSqGSIb3DQEJARYSbWVA
bXlob3N0Lm15ZG9tYWluMB4XDTE1MDQwOTIwMTA0MVoXDTI1MDQwNjIwMTA0MVow
HjEcMBoGA1UEAxMTQ2xpZW50NTYwQ2VydDJjNmU2ZDCCAiIwDQYJKoZIhvcNAQEB
BQADggIPADCCAgoCggIBAK3i55A02lgkBZERNZ6zRY/dpZ+SyEwwXwCmyZ69jcXF
reRTrheoTKiNidH/jhyDSPZ8WIxiLFTTfj5meD3BSyWCPL80OJxxS5JKhiNLA4iT
OKIPIlKmAWYBnMoWqZX4rZgc5S7b3Sp+nAbnbJ0wEr5KeYWTrMJdOnbS9gzVlAvy
cyZf+4KY61lemA/xgOxbybX9xaTjKrrO/6PIFGj/Q8i72a3lnf4QvLK1XqdXxiTT
ssr1jArd40kcJBSvT7rMngwLBN4l5jwnpFweYfGNHU65IwrY9NjHMTUqdousNPVV
hithnJYa+l6kUsjWn/YAaC9Amsn8iMMzugWFF7nTbrf9esmSMrpcdB9EerEtoiUe
FsxW5KOyC38eZ+lyVRfyLdR3z4Gi6brDseek334AOEZ7HeRDjCRo5ODAh+Y3U1ux
NNcUe/i5/xrzTmhN3JKqubTN4G4eti/wLzObHUul5a4SA3r7iFWOCmLeO13YpzJb
8Zcg0gthIGW/lrdnqzPZtiVmAp8qhuFseBRvBghhBcGWxhXEXJ2C8uIGLo1y8o2g
dRaJE5n2SeVVneh3yGMfhyYesHP82p/OfWcbbQ3i0HuQc9isHxzXXaBJdOr+esDy
JZhYcwIiG/BRV++kV2kV7qv45k4X6zXQbLwzRIWWypXW5dmP4hJ/+EegVRMsH48n
AgMBAAGjggFjMIIBXzAJBgNVHRMEAjAAMC0GCWCGSAGG+EIBDQQgFh5FYXN5LVJT
QSBHZW5lcmF0ZWQgQ2VydGlmaWNhdGUwHQYDVR0OBBYEFAm849yJvNIsnT8hTHMz
zMqfpuMNMIHhBgNVHSMEgdkwgdaAFBLNYATSoICecO3Gmbh7LMZS/RmhoYGypIGv
MIGsMQswCQYDVQQGEwJVUzELMAkGA1UECBMCT0gxETAPBgNVBAcTCENvbHVtYnVz
MRIwEAYDVQQKEwlWaWtpbmdWUE4xHTAbBgNVBAsTFE15T3JnYW5pemF0aW9uYWxV
bml0MRUwEwYDVQQDEwxWaWtpbmdWUE4gQ0ExEDAOBgNVBCkTB0Vhc3lSU0ExITAf
BgkqhkiG9w0BCQEWEm1lQG15aG9zdC5teWRvbWFpboIJAM81he6Avyo+MBMGA1Ud
JQQMMAoGCCsGAQUFBwMCMAsGA1UdDwQEAwIHgDANBgkqhkiG9w0BAQQFAAOCAgEA
W9isb7ay+no2qOE1zDVEuRf/6dKbNZHJ+hGzxECLLcrzV+qw5Tz6RVfFayI1+2gX
pvGnkY4DYLy1ACNCGmTjNXvtEjgO5pchC7aigMq8p+NJDUAnMjteYz2Bp9Q7/4C6
wim0dpDUJFxFBaAbuGswmTvAKly5nADdDWj5Uy7V16j1z8R0lYiTW/U6CIQwrrNQ
r7DFxaRqUH22mt0acEnhwMYH/MeB2ww06VczLSVuds8bohf5nRy144hgNxs857vJ
2rFVBvZ6Hg1hlx0UGywZ8Y8lUzHfbKf3yZ6EOeE1Ta4ZE3DyofGW09Zy/hxfKcM5
t5L9PDdts8p+nDu9jP6AtLhtm1DqqncrVLtVSiNRe43Hf4AeSUkARZMb103aZKc2
0f1ORYkqpC/6EBbDQ0JF690j8atXUaA4yIxxjeTFJtTE0v9Qm3LXlt4mmMfju8ko
istDhz0jsQRV85hDnGpcjUJiZ5bS/QVf52slJdUEVbcvCTN+IYdMsnsS/OdQIK8F
s2W2Moa6Cb7SJ9HKRPVkO4lZZX6/bQVWnjeOgYB6jzRgiijCSmRdTUQ/AXYjYNkC
tELkq5tIK+el7aVfH/B8a4nq6EaPAo4ais9RLgnv2V8ygI8tGQrWY7q0DAfUH4IQ
r6aa6scs/FvUX9dd/lkzyQRJPWfv6mbSyz/vkvD4HE0=
-----END CERTIFICATE-----
