Certificate:
    Data:
        Version: 3 (0x2)
        Serial Number: 12654 (0x316e)
    Signature Algorithm: sha256WithRSAEncryption
        Issuer: C=US, ST=OH, L=Columbus, O=VikingVPN, OU=MyOrganizationalUnit, CN=VikingVPN CA/name=EasyRSA/emailAddress=me@myhost.mydomain
        Validity
            Not Before: Mar  2 09:12:48 2018 GMT
            Not After : Feb 28 09:12:48 2028 GMT
        Subject: CN=Client3237Certc0e4e5
        Subject Public Key Info:
            Public Key Algorithm: rsaEncryption
                Public-Key: (4096 bit)
                Modulus:
                    00:b8:8a:a4:0d:1a:c8:a0:5f:e1:9e:52:5e:f1:96:
                    58:41:32:03:ec:cc:f6:cd:31:ac:a6:ab:34:ae:f6:
                    73:b3:7a:ff:f4:21:0b:ff:a0:29:a0:9d:9f:67:14:
                    e4:b5:a0:76:a0:31:ab:2c:97:77:08:61:70:0c:e0:
                    27:cc:27:51:b8:6b:cb:59:80:68:ee:4d:58:9b:19:
                    93:da:6e:bf:24:1c:50:a7:68:ac:46:cf:68:9b:02:
                    7a:08:0f:c7:25:3a:85:6c:fd:99:74:bd:0a:c5:61:
                    df:b9:d4:63:1a:ca:6d:d3:ff:71:8f:de:44:bd:50:
                    40:31:aa:49:c1:0c:42:40:5a:47:fc:09:50:1b:89:
                    6b:72:0f:d1:52:b2:e6:06:28:f1:c1:33:56:54:f6:
                    65:80:ad:5d:03:5c:99:9c:9f:ff:a6:cf:1b:32:55:
                    1d:d2:cc:9e:d4:be:65:4b:4b:0e:08:1b:20:ee:a7:
                    47:2a:69:cf:37:82:b8:2c:ab:69:8b:c5:bc:2e:99:
                    76:97:d6:87:20:69:38:0b:1a:09:85:f1:d3:a9:3e:
                    03:8b:d6:df:26:16:83:34:23:4d:05:1c:c2:3b:54:
                    29:a5:2b:64:7e:93:7f:2d:ed:41:44:46:11:9c:b1:
                    db:40:d0:9d:f5:29:43:60:07:92:eb:91:01:09:7f:
                    6b:78:c3:d0:7d:b3:eb:b9:15:47:57:5a:f4:f4:38:
                    df:8d:e5:a4:e6:67:ac:3d:79:fe:db:db:12:a1:c2:
                    9b:86:70:72:54:c1:f8:17:c1:a3:64:a9:44:3c:f2:
                    f5:83:be:aa:29:07:8e:4d:85:8c:42:8e:9a:0d:9d:
                    a1:b3:ce:a0:02:a6:60:47:51:a2:c4:7f:56:a1:a0:
                    70:25:0b:ba:45:a5:28:c7:29:4a:d8:8e:66:cf:93:
                    3b:97:db:e7:41:b3:17:63:9d:be:78:af:72:65:81:
                    6f:af:f7:28:95:e4:b9:ec:db:2b:92:4a:f5:a4:dc:
                    68:ba:69:a8:f0:49:41:d6:a9:06:15:27:fb:bf:08:
                    d9:b0:16:e7:dd:7d:34:66:39:a1:34:8d:22:75:a2:
                    11:87:d5:47:41:b4:bf:fa:5d:9f:06:e6:a0:62:c6:
                    e5:f1:bb:88:cf:92:68:67:92:95:d6:ea:b4:fe:85:
                    74:2d:ca:de:11:d5:78:43:40:ba:76:56:0d:e9:ce:
                    7f:e3:7a:35:ac:a3:c6:7f:b1:4c:e9:6a:f6:de:1a:
                    62:f0:90:ef:90:78:d5:80:61:ac:d6:d1:9b:45:c2:
                    c0:50:7d:84:ee:08:2f:d0:dd:93:46:db:a3:f0:77:
                    2c:66:f1:63:46:8b:84:dc:49:dc:6a:78:44:d3:f9:
                    be:11:0f
                Exponent: 65537 (0x10001)
        X509v3 extensions:
            X509v3 Basic Constraints: 
                CA:FALSE
            Netscape Comment: 
                Easy-RSA Generated Certificate
            X509v3 Subject Key Identifier: 
                83:9F:48:DD:23:88:59:86:35:99:6B:54:08:05:DC:08:67:AA:C4:25
            X509v3 Authority Key Identifier: 
                keyid:12:CD:60:04:D2:A0:80:9E:70:ED:C6:99:B8:7B:2C:C6:52:FD:19:A1
                DirName:/C=US/ST=OH/L=Columbus/O=VikingVPN/OU=MyOrganizationalUnit/CN=VikingVPN CA/name=EasyRSA/emailAddress=me@myhost.mydomain
                serial:CF:35:85:EE:80:BF:2A:3E

            X509v3 Extended Key Usage: 
                TLS Web Client Authentication
            X509v3 Key Usage: 
                Digital Signature
    Signature Algorithm: sha256WithRSAEncryption
         9b:27:17:17:57:c6:76:2f:4c:cf:08:58:1a:18:07:20:dd:01:
         74:d8:9a:af:cc:74:ac:ed:39:ed:4a:10:4f:6d:06:f1:c4:fc:
         bd:1b:b2:70:a4:6b:22:57:d4:02:23:89:96:ca:86:94:de:14:
         d3:e0:3f:0f:62:19:12:c6:a2:45:11:cd:c2:d9:b1:ac:e8:4d:
         25:9d:f4:6f:06:4c:63:fb:68:9c:c7:db:36:36:f2:da:11:0a:
         10:73:c9:cf:f7:80:4a:b9:84:17:1e:c3:aa:9a:04:46:c3:33:
         5c:0f:6d:a2:12:ba:10:7c:de:d2:f5:e2:99:69:bf:41:0d:65:
         e0:7d:e7:be:2e:4f:fc:18:cc:3a:db:9c:1f:f6:80:8e:18:c8:
         9d:2f:78:c5:d9:c1:28:ba:16:f7:05:c2:98:3d:c1:9b:f6:0e:
         74:2f:8e:aa:5e:df:b6:f3:06:7e:7e:54:2e:6c:52:6b:09:86:
         eb:2b:c0:da:0b:db:c3:db:16:2d:0c:80:54:ae:be:2f:93:eb:
         1c:a9:17:3e:df:8d:7c:61:28:23:1b:ca:c1:a2:8d:7e:3b:29:
         25:7c:2a:80:a6:17:43:6b:06:24:c5:b3:de:f4:7e:67:45:34:
         5d:05:c3:65:21:23:37:7c:dc:06:43:01:a4:b4:a9:93:52:5c:
         9d:94:d9:dd:f4:41:0c:25:a2:5b:1f:1b:ec:5a:8d:4f:e0:12:
         e5:5b:6c:e5:59:92:06:b2:bb:48:51:9e:fb:9c:60:3f:0f:b4:
         07:7a:95:e3:55:3b:03:7f:fd:73:a9:f8:61:81:ce:a3:d2:a9:
         04:e3:cf:6c:1c:f0:29:b6:92:aa:37:e2:67:90:2d:a4:dc:eb:
         93:35:75:42:32:88:15:0f:8f:2d:03:28:de:3d:00:4b:7e:c2:
         00:6d:9a:e8:58:9e:57:29:a8:e6:30:f6:23:a4:14:8e:12:28:
         33:7e:f9:bf:98:70:e8:4c:98:2f:4d:4c:2f:ab:6b:cf:d9:24:
         1a:c6:ce:d5:c8:8b:42:61:56:7e:f1:67:a9:9a:c6:45:58:ef:
         51:65:4d:68:5f:94:56:a9:a6:ad:3e:4f:f5:89:67:bd:53:4b:
         6c:63:91:80:19:f1:63:f0:2f:cf:7f:d1:b3:8f:c1:8f:3b:dc:
         06:e2:92:df:1b:58:1e:c3:a0:d6:ca:5f:bd:88:2c:f9:ea:53:
         c8:85:31:d4:0c:a1:0b:c2:4a:04:20:8c:a9:1c:9a:74:b3:68:
         1b:92:7a:28:32:03:ed:3f:67:5f:aa:43:3a:ca:24:57:95:82:
         ac:8b:42:66:f7:0f:52:ab:06:89:fe:f8:c7:f9:0c:44:98:1f:
         17:de:81:7a:df:d9:c9:4f
-----BEGIN CERTIFICATE-----
MIIGrTCCBJWgAwIBAgICMW4wDQYJKoZIhvcNAQELBQAwgawxCzAJBgNVBAYTAlVT
MQswCQYDVQQIEwJPSDERMA8GA1UEBxMIQ29sdW1idXMxEjAQBgNVBAoTCVZpa2lu
Z1ZQTjEdMBsGA1UECxMUTXlPcmdhbml6YXRpb25hbFVuaXQxFTATBgNVBAMTDFZp
a2luZ1ZQTiBDQTEQMA4GA1UEKRMHRWFzeVJTQTEhMB8GCSqGSIb3DQEJARYSbWVA
bXlob3N0Lm15ZG9tYWluMB4XDTE4MDMwMjA5MTI0OFoXDTI4MDIyODA5MTI0OFow
HzEdMBsGA1UEAxMUQ2xpZW50MzIzN0NlcnRjMGU0ZTUwggIiMA0GCSqGSIb3DQEB
AQUAA4ICDwAwggIKAoICAQC4iqQNGsigX+GeUl7xllhBMgPszPbNMaymqzSu9nOz
ev/0IQv/oCmgnZ9nFOS1oHagMassl3cIYXAM4CfMJ1G4a8tZgGjuTVibGZPabr8k
HFCnaKxGz2ibAnoID8clOoVs/Zl0vQrFYd+51GMaym3T/3GP3kS9UEAxqknBDEJA
Wkf8CVAbiWtyD9FSsuYGKPHBM1ZU9mWArV0DXJmcn/+mzxsyVR3SzJ7UvmVLSw4I
GyDup0cqac83grgsq2mLxbwumXaX1ocgaTgLGgmF8dOpPgOL1t8mFoM0I00FHMI7
VCmlK2R+k38t7UFERhGcsdtA0J31KUNgB5LrkQEJf2t4w9B9s+u5FUdXWvT0ON+N
5aTmZ6w9ef7b2xKhwpuGcHJUwfgXwaNkqUQ88vWDvqopB45NhYxCjpoNnaGzzqAC
pmBHUaLEf1ahoHAlC7pFpSjHKUrYjmbPkzuX2+dBsxdjnb54r3JlgW+v9yiV5Lns
2yuSSvWk3Gi6aajwSUHWqQYVJ/u/CNmwFufdfTRmOaE0jSJ1ohGH1UdBtL/6XZ8G
5qBixuXxu4jPkmhnkpXW6rT+hXQtyt4R1XhDQLp2Vg3pzn/jejWso8Z/sUzpavbe
GmLwkO+QeNWAYazW0ZtFwsBQfYTuCC/Q3ZNG26Pwdyxm8WNGi4TcSdxqeETT+b4R
DwIDAQABo4IBYzCCAV8wCQYDVR0TBAIwADAtBglghkgBhvhCAQ0EIBYeRWFzeS1S
U0EgR2VuZXJhdGVkIENlcnRpZmljYXRlMB0GA1UdDgQWBBSDn0jdI4hZhjWZa1QI
BdwIZ6rEJTCB4QYDVR0jBIHZMIHWgBQSzWAE0qCAnnDtxpm4eyzGUv0ZoaGBsqSB
rzCBrDELMAkGA1UEBhMCVVMxCzAJBgNVBAgTAk9IMREwDwYDVQQHEwhDb2x1bWJ1
czESMBAGA1UEChMJVmlraW5nVlBOMR0wGwYDVQQLExRNeU9yZ2FuaXphdGlvbmFs
VW5pdDEVMBMGA1UEAxMMVmlraW5nVlBOIENBMRAwDgYDVQQpEwdFYXN5UlNBMSEw
HwYJKoZIhvcNAQkBFhJtZUBteWhvc3QubXlkb21haW6CCQDPNYXugL8qPjATBgNV
HSUEDDAKBggrBgEFBQcDAjALBgNVHQ8EBAMCB4AwDQYJKoZIhvcNAQELBQADggIB
AJsnFxdXxnYvTM8IWBoYByDdAXTYmq/MdKztOe1KEE9tBvHE/L0bsnCkayJX1AIj
iZbKhpTeFNPgPw9iGRLGokURzcLZsazoTSWd9G8GTGP7aJzH2zY28toRChBzyc/3
gEq5hBcew6qaBEbDM1wPbaISuhB83tL14plpv0ENZeB9574uT/wYzDrbnB/2gI4Y
yJ0veMXZwSi6FvcFwpg9wZv2DnQvjqpe37bzBn5+VC5sUmsJhusrwNoL28PbFi0M
gFSuvi+T6xypFz7fjXxhKCMbysGijX47KSV8KoCmF0NrBiTFs970fmdFNF0Fw2Uh
Izd83AZDAaS0qZNSXJ2U2d30QQwlolsfG+xajU/gEuVbbOVZkgayu0hRnvucYD8P
tAd6leNVOwN//XOp+GGBzqPSqQTjz2wc8Cm2kqo34meQLaTc65M1dUIyiBUPjy0D
KN49AEt+wgBtmuhYnlcpqOYw9iOkFI4SKDN++b+YcOhMmC9NTC+ra8/ZJBrGztXI
i0JhVn7xZ6maxkVY71FlTWhflFappq0+T/WJZ71TS2xjkYAZ8WPwL89/0bOPwY87
3Abikt8bWB7DoNbKX72ILPnqU8iFMdQMoQvCSgQgjKkcmnSzaBuSeigyA+0/Z1+q
QzrKJFeVgqyLQmb3D1KrBon++Mf5DESYHxfegXrf2clP
-----END CERTIFICATE-----
