Certificate:
    Data:
        Version: 3 (0x2)
        Serial Number: 10396 (0x289c)
    Signature Algorithm: sha256WithRSAEncryption
        Issuer: C=US, ST=OH, L=Columbus, O=VikingVPN, OU=MyOrganizationalUnit, CN=VikingVPN CA/name=EasyRSA/emailAddress=me@myhost.mydomain
        Validity
            Not Before: Mar 27 02:02:58 2017 GMT
            Not After : Mar 25 02:02:58 2027 GMT
        Subject: CN=Client2798Cert23d75d
        Subject Public Key Info:
            Public Key Algorithm: rsaEncryption
                Public-Key: (4096 bit)
                Modulus:
                    00:c8:e5:75:54:4d:c7:f1:2a:b8:a3:6e:6b:7c:9e:
                    64:19:83:c7:6a:c3:6f:e4:c8:a5:a1:d2:bf:98:42:
                    33:a1:e9:3b:fe:7f:53:5b:15:02:35:7d:05:59:cd:
                    bb:2a:ef:3f:ea:f5:43:e9:d2:dd:27:fd:f9:49:70:
                    c4:33:15:11:9f:70:d3:71:90:a4:7b:35:e4:a1:c9:
                    38:c7:e1:b9:f1:2a:13:a2:3e:c7:56:82:8e:15:98:
                    e1:5d:66:b1:ad:60:9c:16:1b:b5:13:5f:9d:52:8f:
                    af:d5:27:28:78:b4:61:e2:7e:58:55:c9:1b:85:a7:
                    57:87:89:d2:73:0f:b2:9a:f4:45:8d:25:54:50:67:
                    a0:16:6f:bd:60:ef:6b:0f:2f:c5:00:6e:40:5a:23:
                    51:08:26:b4:14:9a:b8:d9:20:f1:c3:0d:ca:f7:f5:
                    de:ef:8e:32:94:48:af:e6:44:a1:9c:b1:2c:85:1e:
                    fd:d0:a2:1c:29:f3:2c:74:22:0d:b2:10:d4:04:77:
                    35:42:98:59:28:09:dc:0c:82:cc:3a:8c:8e:56:56:
                    5f:4d:01:94:60:96:7d:ed:ba:44:a0:d7:77:45:0c:
                    3c:e8:1d:db:6d:4e:54:0e:fb:0d:0c:cf:df:be:31:
                    1e:ff:ef:e8:e1:64:d2:03:30:6f:1d:b7:64:5b:7c:
                    39:14:d0:1e:af:2e:79:a5:65:40:87:00:23:a2:ec:
                    c7:f1:2d:0a:8b:4d:5c:bb:ae:64:7c:43:f6:ba:20:
                    93:41:54:2e:f1:b5:1d:f9:83:ed:40:95:69:ac:3b:
                    ae:43:a1:17:56:30:fd:bc:13:52:69:24:a0:26:da:
                    88:db:6d:9f:14:41:69:15:80:cc:6d:9b:e5:0b:18:
                    6d:6e:3b:bc:d2:51:f6:74:10:bc:5e:38:1a:48:44:
                    1c:d7:c9:61:eb:47:e5:69:41:80:04:83:7d:ee:24:
                    73:83:7b:bc:0e:53:2e:11:56:3e:92:c3:b0:1c:0d:
                    d1:44:95:7e:bc:58:3c:69:99:c6:b1:ca:2b:4c:cb:
                    1f:12:1d:c8:38:78:5a:8b:93:3c:a8:11:bf:0e:aa:
                    ab:da:69:44:02:f7:0c:68:86:27:53:ea:7c:6f:50:
                    bc:be:a3:9c:dc:a8:3c:d2:61:60:98:32:ae:42:cb:
                    40:4f:7e:a9:c5:47:de:df:69:92:68:56:be:c6:e8:
                    c9:d0:1b:51:1e:a7:3d:76:fb:1e:e5:8a:4f:3d:6e:
                    65:71:86:33:e6:2d:39:a4:0c:6f:1f:ba:83:b9:c2:
                    a9:5b:c5:8a:6f:4d:44:61:76:53:13:60:b5:8f:29:
                    f8:2b:6f:a7:25:9c:25:a2:cf:0a:47:11:3c:f0:46:
                    b3:76:3d
                Exponent: 65537 (0x10001)
        X509v3 extensions:
            X509v3 Basic Constraints: 
                CA:FALSE
            Netscape Comment: 
                Easy-RSA Generated Certificate
            X509v3 Subject Key Identifier: 
                C2:15:67:8F:4E:3A:AC:ED:A2:FB:4D:39:9E:D1:24:93:14:C2:CA:48
            X509v3 Authority Key Identifier: 
                keyid:12:CD:60:04:D2:A0:80:9E:70:ED:C6:99:B8:7B:2C:C6:52:FD:19:A1
                DirName:/C=US/ST=OH/L=Columbus/O=VikingVPN/OU=MyOrganizationalUnit/CN=VikingVPN CA/name=EasyRSA/emailAddress=me@myhost.mydomain
                serial:CF:35:85:EE:80:BF:2A:3E

            X509v3 Extended Key Usage: 
                TLS Web Client Authentication
            X509v3 Key Usage: 
                Digital Signature
    Signature Algorithm: sha256WithRSAEncryption
         26:0a:38:75:e9:ca:70:ab:2b:bd:bf:75:e9:0e:12:41:a1:05:
         e2:96:aa:06:ac:ca:b0:95:04:43:82:8b:d1:0c:4c:23:50:ed:
         6c:72:12:74:c1:21:0a:8e:e3:d4:1e:85:46:c6:3c:4c:92:c9:
         34:ac:72:df:a0:61:b1:39:0c:68:65:10:e9:ef:84:42:ba:6f:
         b5:27:ff:57:85:65:70:59:d7:e7:5a:88:0d:0e:b9:56:62:ff:
         2f:f8:18:f4:bb:9c:db:f7:ba:f3:96:54:d7:77:97:a9:5b:13:
         c0:09:7d:fa:3c:7d:65:37:d3:df:37:c1:6c:d6:eb:9f:6d:b9:
         09:cf:55:ce:6b:d6:20:dd:a1:ec:12:b0:31:33:1d:75:f9:c6:
         6e:4c:a0:ff:07:97:fc:fe:67:0e:40:3e:5c:90:65:bf:fe:f4:
         26:62:c0:3b:4b:8b:c9:79:62:2b:62:f5:eb:ac:1c:ee:22:68:
         95:8f:1b:51:c3:59:25:c7:0d:b5:27:a9:2f:0d:91:16:f9:1a:
         af:55:33:80:b6:ff:e4:f7:f9:2a:62:08:6d:dd:7e:39:ec:e8:
         7d:8e:32:92:5e:94:a5:39:ed:ba:fe:0f:a5:d1:3e:7a:94:ea:
         0b:da:63:50:fd:0b:b0:29:99:60:38:2c:34:76:4f:70:4b:2a:
         8b:84:1f:cd:5d:24:40:c0:96:0d:de:8d:91:79:bf:5c:7c:20:
         73:fe:7e:c1:1b:7d:97:d3:23:9a:70:e4:c2:8f:6c:80:4a:74:
         e7:b2:98:d7:f7:9b:f5:70:f9:3b:55:5e:23:90:28:39:c6:ed:
         65:39:07:e1:de:20:fd:e5:0f:53:d5:5d:b9:4b:9f:5e:fc:d0:
         52:32:af:0a:b5:5d:75:7f:54:ed:87:d9:0f:33:92:32:cb:7b:
         ec:84:bb:c1:54:52:bf:6e:da:2b:5f:27:39:65:5d:9b:39:9d:
         f6:3a:1b:48:6a:2e:21:ec:56:c8:71:7c:fd:ae:fc:e4:29:7c:
         ee:62:17:17:93:2e:35:76:4c:b6:d0:23:ca:5a:88:ff:a9:88:
         90:06:40:7a:7d:f5:7d:40:24:4d:be:6c:72:3f:05:c6:73:b2:
         fd:85:b5:70:fb:c4:f3:db:db:5b:d8:23:d8:14:dc:ad:cc:cc:
         02:51:e1:20:f1:cf:ca:b7:ff:ce:c4:da:1e:87:98:59:fa:7b:
         31:e4:0b:77:72:ae:94:20:c6:bf:f8:49:3e:06:1e:2c:68:44:
         80:12:d3:af:f0:d5:23:4d:f6:3b:76:4d:ea:2e:c9:6d:1a:f1:
         d2:00:6a:24:07:9e:b9:7c:5f:a1:d3:3f:90:ad:0f:4c:25:57:
         fd:73:59:a7:4d:8b:8e:7a
-----BEGIN CERTIFICATE-----
MIIGrTCCBJWgAwIBAgICKJwwDQYJKoZIhvcNAQELBQAwgawxCzAJBgNVBAYTAlVT
MQswCQYDVQQIEwJPSDERMA8GA1UEBxMIQ29sdW1idXMxEjAQBgNVBAoTCVZpa2lu
Z1ZQTjEdMBsGA1UECxMUTXlPcmdhbml6YXRpb25hbFVuaXQxFTATBgNVBAMTDFZp
a2luZ1ZQTiBDQTEQMA4GA1UEKRMHRWFzeVJTQTEhMB8GCSqGSIb3DQEJARYSbWVA
bXlob3N0Lm15ZG9tYWluMB4XDTE3MDMyNzAyMDI1OFoXDTI3MDMyNTAyMDI1OFow
HzEdMBsGA1UEAxMUQ2xpZW50Mjc5OENlcnQyM2Q3NWQwggIiMA0GCSqGSIb3DQEB
AQUAA4ICDwAwggIKAoICAQDI5XVUTcfxKrijbmt8nmQZg8dqw2/kyKWh0r+YQjOh
6Tv+f1NbFQI1fQVZzbsq7z/q9UPp0t0n/flJcMQzFRGfcNNxkKR7NeShyTjH4bnx
KhOiPsdWgo4VmOFdZrGtYJwWG7UTX51Sj6/VJyh4tGHiflhVyRuFp1eHidJzD7Ka
9EWNJVRQZ6AWb71g72sPL8UAbkBaI1EIJrQUmrjZIPHDDcr39d7vjjKUSK/mRKGc
sSyFHv3Qohwp8yx0Ig2yENQEdzVCmFkoCdwMgsw6jI5WVl9NAZRgln3tukSg13dF
DDzoHdttTlQO+w0Mz9++MR7/7+jhZNIDMG8dt2RbfDkU0B6vLnmlZUCHACOi7Mfx
LQqLTVy7rmR8Q/a6IJNBVC7xtR35g+1AlWmsO65DoRdWMP28E1JpJKAm2ojbbZ8U
QWkVgMxtm+ULGG1uO7zSUfZ0ELxeOBpIRBzXyWHrR+VpQYAEg33uJHODe7wOUy4R
Vj6Sw7AcDdFElX68WDxpmcaxyitMyx8SHcg4eFqLkzyoEb8OqqvaaUQC9wxohidT
6nxvULy+o5zcqDzSYWCYMq5Cy0BPfqnFR97faZJoVr7G6MnQG1Eepz12+x7lik89
bmVxhjPmLTmkDG8fuoO5wqlbxYpvTURhdlMTYLWPKfgrb6clnCWizwpHETzwRrN2
PQIDAQABo4IBYzCCAV8wCQYDVR0TBAIwADAtBglghkgBhvhCAQ0EIBYeRWFzeS1S
U0EgR2VuZXJhdGVkIENlcnRpZmljYXRlMB0GA1UdDgQWBBTCFWePTjqs7aL7TTme
0SSTFMLKSDCB4QYDVR0jBIHZMIHWgBQSzWAE0qCAnnDtxpm4eyzGUv0ZoaGBsqSB
rzCBrDELMAkGA1UEBhMCVVMxCzAJBgNVBAgTAk9IMREwDwYDVQQHEwhDb2x1bWJ1
czESMBAGA1UEChMJVmlraW5nVlBOMR0wGwYDVQQLExRNeU9yZ2FuaXphdGlvbmFs
VW5pdDEVMBMGA1UEAxMMVmlraW5nVlBOIENBMRAwDgYDVQQpEwdFYXN5UlNBMSEw
HwYJKoZIhvcNAQkBFhJtZUBteWhvc3QubXlkb21haW6CCQDPNYXugL8qPjATBgNV
HSUEDDAKBggrBgEFBQcDAjALBgNVHQ8EBAMCB4AwDQYJKoZIhvcNAQELBQADggIB
ACYKOHXpynCrK72/dekOEkGhBeKWqgasyrCVBEOCi9EMTCNQ7WxyEnTBIQqO49Qe
hUbGPEySyTSsct+gYbE5DGhlEOnvhEK6b7Un/1eFZXBZ1+daiA0OuVZi/y/4GPS7
nNv3uvOWVNd3l6lbE8AJffo8fWU30983wWzW659tuQnPVc5r1iDdoewSsDEzHXX5
xm5MoP8Hl/z+Zw5APlyQZb/+9CZiwDtLi8l5Yiti9eusHO4iaJWPG1HDWSXHDbUn
qS8NkRb5Gq9VM4C2/+T3+SpiCG3dfjns6H2OMpJelKU57br+D6XRPnqU6gvaY1D9
C7ApmWA4LDR2T3BLKouEH81dJEDAlg3ejZF5v1x8IHP+fsEbfZfTI5pw5MKPbIBK
dOeymNf3m/Vw+TtVXiOQKDnG7WU5B+HeIP3lD1PVXblLn1780FIyrwq1XXV/VO2H
2Q8zkjLLe+yEu8FUUr9u2itfJzllXZs5nfY6G0hqLiHsVshxfP2u/OQpfO5iFxeT
LjV2TLbQI8paiP+piJAGQHp99X1AJE2+bHI/BcZzsv2FtXD7xPPb21vYI9gU3K3M
zAJR4SDxz8q3/87E2h6HmFn6ezHkC3dyrpQgxr/4ST4GHixoRIAS06/w1SNN9jt2
TeouyW0a8dIAaiQHnrl8X6HTP5CtD0wlV/1zWadNi456
-----END CERTIFICATE-----
