Certificate:
    Data:
        Version: 3 (0x2)
        Serial Number: 10921 (0x2aa9)
    Signature Algorithm: sha256WithRSAEncryption
        Issuer: C=US, ST=OH, L=Columbus, O=VikingVPN, OU=MyOrganizationalUnit, CN=VikingVPN CA/name=EasyRSA/emailAddress=me@myhost.mydomain
        Validity
            Not Before: May  9 19:31:22 2017 GMT
            Not After : May  7 19:31:22 2027 GMT
        Subject: CN=Client2909Cert44f847
        Subject Public Key Info:
            Public Key Algorithm: rsaEncryption
                Public-Key: (4096 bit)
                Modulus:
                    00:e2:9f:a6:b7:cf:2e:6f:e3:30:c5:45:e7:bc:23:
                    0b:91:f5:4c:5b:b8:24:23:51:62:39:f9:1e:6a:4f:
                    7e:a1:44:6b:fa:56:7a:43:39:c1:ab:ce:4a:0f:f4:
                    e9:62:25:92:2f:29:a5:4f:d3:ac:3a:fd:7c:73:30:
                    15:f0:09:56:84:c5:d4:5f:15:41:29:e9:c8:b5:5f:
                    8c:43:7b:16:77:d2:1b:55:89:4d:e1:22:da:51:0e:
                    96:ca:8a:c3:0e:c0:3f:7f:e5:09:c9:ef:75:dc:38:
                    4f:f4:51:1d:de:f9:21:83:28:9c:40:18:38:82:9e:
                    1f:4f:4c:79:03:5f:c1:e7:25:5b:26:9e:22:39:b8:
                    04:fc:7c:e1:07:23:1e:45:da:98:87:8a:16:c4:77:
                    50:2c:bb:66:23:50:c1:ae:8c:58:65:66:91:0d:f4:
                    5d:4f:41:c3:ca:09:be:b8:29:40:35:fb:00:a5:3f:
                    9a:f3:7f:cc:87:a2:e7:30:54:86:02:89:e3:ac:35:
                    ce:74:cf:c4:49:5f:96:b0:ef:e9:de:05:81:01:06:
                    8a:2e:f0:a8:f3:46:3c:d7:03:02:f6:cb:4c:a3:67:
                    0c:d8:31:30:66:e2:0e:80:5d:b9:81:f8:7d:ec:d8:
                    1d:29:55:f3:68:1b:fe:74:a8:58:dc:91:60:45:c6:
                    50:41:8a:99:ad:16:50:84:fd:8f:54:cb:dc:d2:9e:
                    90:fa:e1:dd:75:5a:26:33:6c:d8:62:dc:b3:4a:48:
                    7f:de:6b:96:b6:1e:d0:09:0b:49:b6:f8:da:45:b1:
                    d4:e7:eb:29:23:b4:68:e1:2c:c7:38:e4:25:8f:f1:
                    9b:7d:7e:e2:8f:7e:2e:80:67:14:5c:00:2f:2e:a6:
                    7f:34:86:2b:9c:63:cf:c7:48:ca:82:74:05:46:af:
                    34:b9:fb:e3:9c:7d:72:14:42:ba:89:b9:5d:12:2a:
                    8d:55:fd:9b:56:0d:4c:a7:43:51:ce:96:d3:f8:30:
                    5c:7c:af:3b:a6:07:f5:6a:24:ab:76:4a:b2:46:0e:
                    06:ce:43:55:66:48:71:f9:1e:93:05:f6:cb:7a:41:
                    9b:41:ce:3a:f0:b0:a7:5b:5d:66:f0:ce:27:8d:76:
                    bb:7d:e6:04:b7:f4:48:3e:8d:88:fd:d1:88:8c:7f:
                    61:b1:24:ad:ae:94:a9:fd:28:58:27:cd:1f:9a:79:
                    17:7c:66:57:6c:b1:44:0b:6e:36:32:ac:a6:98:46:
                    6b:30:bb:bb:b9:1a:12:c2:15:e5:7d:6b:73:2b:ab:
                    9f:bb:82:32:b5:1c:35:ce:d3:bf:cc:19:1f:3d:ef:
                    1c:c7:45:83:24:a3:82:0c:e5:bc:e2:df:5c:fb:87:
                    5b:66:c7
                Exponent: 65537 (0x10001)
        X509v3 extensions:
            X509v3 Basic Constraints: 
                CA:FALSE
            Netscape Comment: 
                Easy-RSA Generated Certificate
            X509v3 Subject Key Identifier: 
                BC:DB:75:84:6E:6F:00:2D:97:24:0D:D0:A9:E8:58:4C:3A:74:7B:5D
            X509v3 Authority Key Identifier: 
                keyid:12:CD:60:04:D2:A0:80:9E:70:ED:C6:99:B8:7B:2C:C6:52:FD:19:A1
                DirName:/C=US/ST=OH/L=Columbus/O=VikingVPN/OU=MyOrganizationalUnit/CN=VikingVPN CA/name=EasyRSA/emailAddress=me@myhost.mydomain
                serial:CF:35:85:EE:80:BF:2A:3E

            X509v3 Extended Key Usage: 
                TLS Web Client Authentication
            X509v3 Key Usage: 
                Digital Signature
    Signature Algorithm: sha256WithRSAEncryption
         46:cd:0f:e4:05:22:4b:73:bb:46:e3:2c:30:ea:00:1d:d3:d9:
         ba:77:02:57:f8:87:79:87:42:5d:49:93:78:98:f0:ac:6d:08:
         71:3d:91:92:d9:70:d4:60:cc:c0:41:63:11:4a:a8:3b:fb:d5:
         0c:86:61:72:89:27:9f:09:9f:1c:4f:e5:ee:a0:41:d8:64:c1:
         9a:58:06:64:d1:e1:63:b9:94:31:01:d1:52:e9:ee:4b:11:99:
         d5:90:60:11:6d:09:69:aa:f9:fc:15:44:e4:03:7b:fc:14:d4:
         9c:ed:09:49:4c:8d:04:31:f6:8f:03:03:c1:cb:f1:40:6a:35:
         00:84:40:1a:a1:74:5d:c5:9a:09:6d:fb:20:0d:76:16:be:6f:
         d9:c1:a5:aa:b0:d6:cb:e4:07:48:60:90:24:b4:e0:9c:87:89:
         9c:cb:71:2c:22:32:bd:e4:67:5e:d3:2b:df:ba:83:f6:d1:c2:
         e9:a6:c6:70:a6:8a:20:0e:a4:c4:6c:f8:28:21:b7:8e:53:68:
         f4:e4:5e:85:c6:71:26:55:96:0e:4d:b9:ac:72:de:df:3d:85:
         b5:06:3e:3f:03:d0:07:23:d3:6d:e7:04:28:16:86:a3:8b:d9:
         75:b6:0d:1a:09:b6:85:6a:c0:28:76:4a:92:a9:96:a3:63:ea:
         8c:7b:89:9d:a6:93:ab:36:68:6e:73:23:f2:1a:80:08:3a:57:
         0c:74:a2:58:1e:33:8a:73:d6:af:4b:2f:e2:ac:ba:2e:73:08:
         e8:78:b4:d6:f7:76:11:9b:55:f4:00:df:c0:cb:b1:6e:d0:31:
         33:dc:b1:71:1a:37:a8:f0:d1:8e:1d:d9:98:5a:40:7a:f9:68:
         0b:d8:40:8a:9e:b9:9c:49:c6:86:a5:25:3c:53:b5:15:92:c2:
         67:1c:a6:11:bc:5c:2d:73:52:91:90:50:49:d3:3a:e4:0f:03:
         be:f8:b0:c1:49:5a:ac:79:bd:f1:f8:e7:8e:c3:1a:01:c1:e3:
         3b:1a:b0:2a:40:f1:f0:a0:0e:23:7d:62:ec:85:33:f9:28:04:
         5a:c0:2f:7f:46:26:f0:12:e1:94:9b:3a:dd:08:82:05:86:b6:
         79:bb:d0:3f:36:c0:f3:51:3f:d9:f5:e1:31:83:4a:71:d4:db:
         de:4f:e7:d3:1a:a7:5e:12:fc:21:90:41:8d:32:d7:2b:dd:f7:
         7c:39:85:b9:a0:8e:05:7d:1b:33:4f:25:6b:1b:c3:48:8e:9b:
         50:c2:dc:46:97:cc:0f:52:04:6a:77:5d:cb:eb:bb:fe:65:f8:
         55:b9:22:1b:bc:23:2f:39:3d:4b:12:77:68:61:e5:03:57:58:
         65:bb:77:6c:32:48:fe:fa
-----BEGIN CERTIFICATE-----
MIIGrTCCBJWgAwIBAgICKqkwDQYJKoZIhvcNAQELBQAwgawxCzAJBgNVBAYTAlVT
MQswCQYDVQQIEwJPSDERMA8GA1UEBxMIQ29sdW1idXMxEjAQBgNVBAoTCVZpa2lu
Z1ZQTjEdMBsGA1UECxMUTXlPcmdhbml6YXRpb25hbFVuaXQxFTATBgNVBAMTDFZp
a2luZ1ZQTiBDQTEQMA4GA1UEKRMHRWFzeVJTQTEhMB8GCSqGSIb3DQEJARYSbWVA
bXlob3N0Lm15ZG9tYWluMB4XDTE3MDUwOTE5MzEyMloXDTI3MDUwNzE5MzEyMlow
HzEdMBsGA1UEAxMUQ2xpZW50MjkwOUNlcnQ0NGY4NDcwggIiMA0GCSqGSIb3DQEB
AQUAA4ICDwAwggIKAoICAQDin6a3zy5v4zDFRee8IwuR9UxbuCQjUWI5+R5qT36h
RGv6VnpDOcGrzkoP9OliJZIvKaVP06w6/XxzMBXwCVaExdRfFUEp6ci1X4xDexZ3
0htViU3hItpRDpbKisMOwD9/5QnJ73XcOE/0UR3e+SGDKJxAGDiCnh9PTHkDX8Hn
JVsmniI5uAT8fOEHIx5F2piHihbEd1Asu2YjUMGujFhlZpEN9F1PQcPKCb64KUA1
+wClP5rzf8yHoucwVIYCieOsNc50z8RJX5aw7+neBYEBBoou8KjzRjzXAwL2y0yj
ZwzYMTBm4g6AXbmB+H3s2B0pVfNoG/50qFjckWBFxlBBipmtFlCE/Y9Uy9zSnpD6
4d11WiYzbNhi3LNKSH/ea5a2HtAJC0m2+NpFsdTn6ykjtGjhLMc45CWP8Zt9fuKP
fi6AZxRcAC8upn80hiucY8/HSMqCdAVGrzS5++OcfXIUQrqJuV0SKo1V/ZtWDUyn
Q1HOltP4MFx8rzumB/VqJKt2SrJGDgbOQ1VmSHH5HpMF9st6QZtBzjrwsKdbXWbw
zieNdrt95gS39Eg+jYj90YiMf2GxJK2ulKn9KFgnzR+aeRd8ZldssUQLbjYyrKaY
Rmswu7u5GhLCFeV9a3Mrq5+7gjK1HDXO07/MGR897xzHRYMko4IM5bzi31z7h1tm
xwIDAQABo4IBYzCCAV8wCQYDVR0TBAIwADAtBglghkgBhvhCAQ0EIBYeRWFzeS1S
U0EgR2VuZXJhdGVkIENlcnRpZmljYXRlMB0GA1UdDgQWBBS823WEbm8ALZckDdCp
6FhMOnR7XTCB4QYDVR0jBIHZMIHWgBQSzWAE0qCAnnDtxpm4eyzGUv0ZoaGBsqSB
rzCBrDELMAkGA1UEBhMCVVMxCzAJBgNVBAgTAk9IMREwDwYDVQQHEwhDb2x1bWJ1
czESMBAGA1UEChMJVmlraW5nVlBOMR0wGwYDVQQLExRNeU9yZ2FuaXphdGlvbmFs
VW5pdDEVMBMGA1UEAxMMVmlraW5nVlBOIENBMRAwDgYDVQQpEwdFYXN5UlNBMSEw
HwYJKoZIhvcNAQkBFhJtZUBteWhvc3QubXlkb21haW6CCQDPNYXugL8qPjATBgNV
HSUEDDAKBggrBgEFBQcDAjALBgNVHQ8EBAMCB4AwDQYJKoZIhvcNAQELBQADggIB
AEbND+QFIktzu0bjLDDqAB3T2bp3Alf4h3mHQl1Jk3iY8KxtCHE9kZLZcNRgzMBB
YxFKqDv71QyGYXKJJ58JnxxP5e6gQdhkwZpYBmTR4WO5lDEB0VLp7ksRmdWQYBFt
CWmq+fwVROQDe/wU1JztCUlMjQQx9o8DA8HL8UBqNQCEQBqhdF3Fmglt+yANdha+
b9nBpaqw1svkB0hgkCS04JyHiZzLcSwiMr3kZ17TK9+6g/bRwummxnCmiiAOpMRs
+Cght45TaPTkXoXGcSZVlg5Nuaxy3t89hbUGPj8D0Acj023nBCgWhqOL2XW2DRoJ
toVqwCh2SpKplqNj6ox7iZ2mk6s2aG5zI/IagAg6Vwx0olgeM4pz1q9LL+Ksui5z
COh4tNb3dhGbVfQA38DLsW7QMTPcsXEaN6jw0Y4d2ZhaQHr5aAvYQIqeuZxJxoal
JTxTtRWSwmccphG8XC1zUpGQUEnTOuQPA774sMFJWqx5vfH4547DGgHB4zsasCpA
8fCgDiN9YuyFM/koBFrAL39GJvAS4ZSbOt0IggWGtnm70D82wPNRP9n14TGDSnHU
295P59Map14S/CGQQY0y1yvd93w5hbmgjgV9GzNPJWsbw0iOm1DC3EaXzA9SBGp3
Xcvru/5l+FW5Ihu8Iy85PUsSd2hh5QNXWGW7d2wySP76
-----END CERTIFICATE-----
