Certificate:
    Data:
        Version: 3 (0x2)
        Serial Number: 6705 (0x1a31)
    Signature Algorithm: md5WithRSAEncryption
        Issuer: C=US, ST=OH, L=Columbus, O=VikingVPN, OU=MyOrganizationalUnit, CN=VikingVPN CA/name=EasyRSA/emailAddress=me@myhost.mydomain
        Validity
            Not Before: Nov 17 15:14:25 2015 GMT
            Not After : Nov 14 15:14:25 2025 GMT
        Subject: CN=Client2059Cert9a14ab
        Subject Public Key Info:
            Public Key Algorithm: rsaEncryption
                Public-Key: (4096 bit)
                Modulus:
                    00:c0:2e:31:e7:8f:d4:75:95:e0:2d:b2:08:59:19:
                    d8:45:0c:7f:62:c7:bb:cd:59:5e:3f:02:6c:3e:87:
                    57:af:5a:97:9e:8c:29:42:0b:f7:e8:a6:a2:ce:64:
                    0d:f0:25:c7:63:87:17:21:25:5d:97:f6:b7:cf:1c:
                    a4:0e:27:74:b2:a9:be:16:0c:06:b0:08:2a:78:91:
                    6a:df:e6:63:6e:54:e4:d8:4d:92:03:28:93:22:ff:
                    6e:38:05:50:60:ad:84:70:54:e4:c8:e2:c5:84:d2:
                    d8:fd:5e:ca:7a:c9:d0:ee:24:89:60:fc:b3:19:05:
                    cf:fd:f8:2e:7b:40:37:09:b8:89:4a:35:57:57:be:
                    42:9d:f8:d2:b2:49:24:12:73:7d:02:29:43:be:8d:
                    0b:e8:44:c3:9c:a1:89:eb:2e:6d:30:19:31:53:54:
                    ba:c0:9d:7c:76:dd:ba:3a:1f:21:73:db:67:ab:c7:
                    cf:23:d9:fd:4d:b0:06:1e:5f:b6:7b:10:82:2b:86:
                    e7:c7:8f:c6:ec:e5:06:4a:7a:16:2d:ab:30:e8:25:
                    db:8a:b3:31:dc:f2:fc:01:ad:4a:f1:2c:f8:06:ca:
                    13:2c:9f:2c:8f:b1:48:e8:87:53:0e:bd:19:e0:88:
                    72:8f:a0:db:69:4c:db:05:9e:7c:cf:83:d4:be:91:
                    1b:e4:6a:db:b4:c5:fa:bc:e6:2b:5c:49:39:9c:3b:
                    2a:55:e1:38:33:dd:a1:30:e1:e5:52:00:da:ba:57:
                    85:4c:08:29:c4:08:c9:5d:f8:eb:71:cd:7b:35:11:
                    39:f3:ce:56:92:1d:1e:1d:cb:c8:03:00:18:70:e7:
                    57:bb:90:f7:af:95:a3:34:af:3b:e1:97:93:c9:47:
                    5b:88:b7:de:00:f6:2d:e7:a2:d6:6c:b1:4e:3c:c6:
                    19:90:37:0e:2e:cf:5d:58:35:77:f0:d6:73:9d:c2:
                    ce:ae:61:49:e6:70:a0:88:10:0e:1f:d7:62:9a:d1:
                    0b:1d:55:54:41:3c:c7:e6:0e:38:1e:57:70:9c:36:
                    fb:08:9e:9e:22:a6:c9:d4:d7:1f:58:69:9e:f9:d0:
                    3c:8e:b6:10:12:83:0c:75:bf:12:d7:65:bb:ed:b4:
                    bb:4a:9c:15:d9:7a:b8:8e:c0:b8:01:c5:35:ce:1a:
                    2e:df:c0:ff:30:79:52:5f:0c:ab:14:b9:34:00:23:
                    0f:f7:fb:5c:a4:0c:33:f4:10:23:d7:21:70:e7:66:
                    92:0f:71:97:85:4b:f9:c2:29:81:79:5f:e3:d4:9b:
                    53:9f:a0:03:3a:3c:3c:2f:55:18:b9:9a:67:62:84:
                    c2:c4:9b:f4:2d:69:ae:9d:2e:48:ef:b3:a1:09:ea:
                    e0:34:03
                Exponent: 65537 (0x10001)
        X509v3 extensions:
            X509v3 Basic Constraints: 
                CA:FALSE
            Netscape Comment: 
                Easy-RSA Generated Certificate
            X509v3 Subject Key Identifier: 
                54:D6:48:23:AE:E9:3E:5D:7C:87:BD:99:CB:4D:2A:52:10:47:8F:A3
            X509v3 Authority Key Identifier: 
                keyid:12:CD:60:04:D2:A0:80:9E:70:ED:C6:99:B8:7B:2C:C6:52:FD:19:A1
                DirName:/C=US/ST=OH/L=Columbus/O=VikingVPN/OU=MyOrganizationalUnit/CN=VikingVPN CA/name=EasyRSA/emailAddress=me@myhost.mydomain
                serial:CF:35:85:EE:80:BF:2A:3E

            X509v3 Extended Key Usage: 
                TLS Web Client Authentication
            X509v3 Key Usage: 
                Digital Signature
    Signature Algorithm: md5WithRSAEncryption
         0c:60:37:2b:35:fc:35:0a:e5:a1:1a:c9:e3:d2:6a:8f:5e:12:
         a5:a2:d5:10:62:51:ed:1e:5e:40:a1:0b:71:db:16:e7:9c:f4:
         9e:b0:00:b4:c2:12:47:69:1f:4e:03:00:69:c8:74:d9:2d:bb:
         fa:a0:8a:f3:78:5f:b9:31:be:ab:cb:c8:11:5e:bf:e4:ee:f0:
         40:f2:05:d8:bc:4d:da:12:e5:16:5e:c1:cf:ba:97:3a:7d:5a:
         f3:46:5b:6a:78:49:dc:04:3f:e9:5a:3c:5b:52:2c:e9:41:a3:
         8f:21:d2:06:00:12:7a:32:dd:fa:6c:19:67:d7:1a:f8:fe:fe:
         68:e9:04:a4:61:27:27:72:ef:ff:da:77:9b:c0:b6:f6:af:e2:
         bf:9e:8d:d7:2c:1f:49:4f:60:67:8d:2f:70:23:1c:01:c0:77:
         67:6b:ba:90:84:b9:a2:21:3e:9b:27:ef:96:11:4f:0b:07:e5:
         96:b9:64:c0:f1:d1:1f:be:74:86:9c:94:18:83:5b:e2:23:6f:
         a8:a7:de:7c:fe:d1:33:e9:41:2d:2a:3c:c7:13:eb:8f:99:c5:
         3f:1d:2b:be:5e:c3:b5:63:b8:b3:41:a5:6a:cf:4b:52:08:8c:
         b2:74:c5:6a:b2:38:c5:b6:c2:3d:75:c2:63:6d:28:72:e1:b2:
         a8:d3:ce:bf:ed:71:0b:50:20:7e:56:53:99:c1:26:e3:fe:4c:
         f5:63:82:1c:8d:47:2e:ee:29:ef:2f:82:27:20:66:f9:00:b8:
         e6:ec:04:b5:d6:ce:52:db:32:2d:6d:e6:ba:58:99:9c:c0:12:
         fe:0e:91:5c:18:4d:71:ed:39:5c:86:56:7c:6c:6c:fb:f0:8c:
         ad:64:ba:46:b9:dc:ea:a0:a5:96:9f:b3:f7:56:c1:4f:1a:61:
         88:e1:ce:48:e3:f4:f4:3d:e8:03:cd:d6:ab:a8:43:44:91:5e:
         90:1e:02:44:f3:1b:0a:ca:e8:d1:17:05:b8:05:7c:a8:fb:6f:
         bb:d3:3f:44:2b:1d:d9:fa:17:3f:cd:42:11:fb:5e:53:d0:e3:
         1b:f4:fb:bf:38:89:b2:eb:17:b2:4c:5c:58:62:9c:0e:34:27:
         20:21:20:b7:3c:89:dd:5b:12:2a:5c:83:5b:94:0c:0f:90:98:
         e8:6e:54:a1:6c:0a:97:35:cc:29:03:31:d2:37:96:27:43:96:
         bd:11:f8:f3:59:32:0c:a2:a8:2e:de:fa:ec:88:c4:74:85:95:
         05:80:98:a8:6b:ff:a9:1e:25:83:ed:2c:42:46:ad:1b:ea:94:
         80:3f:5d:a4:d2:91:d1:11:c7:64:7d:cb:51:26:f4:ad:b7:38:
         7b:88:47:bf:30:50:d0:18
-----BEGIN CERTIFICATE-----
MIIGrTCCBJWgAwIBAgICGjEwDQYJKoZIhvcNAQEEBQAwgawxCzAJBgNVBAYTAlVT
MQswCQYDVQQIEwJPSDERMA8GA1UEBxMIQ29sdW1idXMxEjAQBgNVBAoTCVZpa2lu
Z1ZQTjEdMBsGA1UECxMUTXlPcmdhbml6YXRpb25hbFVuaXQxFTATBgNVBAMTDFZp
a2luZ1ZQTiBDQTEQMA4GA1UEKRMHRWFzeVJTQTEhMB8GCSqGSIb3DQEJARYSbWVA
bXlob3N0Lm15ZG9tYWluMB4XDTE1MTExNzE1MTQyNVoXDTI1MTExNDE1MTQyNVow
HzEdMBsGA1UEAxMUQ2xpZW50MjA1OUNlcnQ5YTE0YWIwggIiMA0GCSqGSIb3DQEB
AQUAA4ICDwAwggIKAoICAQDALjHnj9R1leAtsghZGdhFDH9ix7vNWV4/Amw+h1ev
WpeejClCC/fopqLOZA3wJcdjhxchJV2X9rfPHKQOJ3Syqb4WDAawCCp4kWrf5mNu
VOTYTZIDKJMi/244BVBgrYRwVOTI4sWE0tj9Xsp6ydDuJIlg/LMZBc/9+C57QDcJ
uIlKNVdXvkKd+NKySSQSc30CKUO+jQvoRMOcoYnrLm0wGTFTVLrAnXx23bo6HyFz
22erx88j2f1NsAYeX7Z7EIIrhufHj8bs5QZKehYtqzDoJduKszHc8vwBrUrxLPgG
yhMsnyyPsUjoh1MOvRngiHKPoNtpTNsFnnzPg9S+kRvkatu0xfq85itcSTmcOypV
4Tgz3aEw4eVSANq6V4VMCCnECMld+OtxzXs1ETnzzlaSHR4dy8gDABhw51e7kPev
laM0rzvhl5PJR1uIt94A9i3notZssU48xhmQNw4uz11YNXfw1nOdws6uYUnmcKCI
EA4f12Ka0QsdVVRBPMfmDjgeV3CcNvsInp4ipsnU1x9YaZ750DyOthASgwx1vxLX
ZbvttLtKnBXZeriOwLgBxTXOGi7fwP8weVJfDKsUuTQAIw/3+1ykDDP0ECPXIXDn
ZpIPcZeFS/nCKYF5X+PUm1OfoAM6PDwvVRi5mmdihMLEm/Qtaa6dLkjvs6EJ6uA0
AwIDAQABo4IBYzCCAV8wCQYDVR0TBAIwADAtBglghkgBhvhCAQ0EIBYeRWFzeS1S
U0EgR2VuZXJhdGVkIENlcnRpZmljYXRlMB0GA1UdDgQWBBRU1kgjruk+XXyHvZnL
TSpSEEePozCB4QYDVR0jBIHZMIHWgBQSzWAE0qCAnnDtxpm4eyzGUv0ZoaGBsqSB
rzCBrDELMAkGA1UEBhMCVVMxCzAJBgNVBAgTAk9IMREwDwYDVQQHEwhDb2x1bWJ1
czESMBAGA1UEChMJVmlraW5nVlBOMR0wGwYDVQQLExRNeU9yZ2FuaXphdGlvbmFs
VW5pdDEVMBMGA1UEAxMMVmlraW5nVlBOIENBMRAwDgYDVQQpEwdFYXN5UlNBMSEw
HwYJKoZIhvcNAQkBFhJtZUBteWhvc3QubXlkb21haW6CCQDPNYXugL8qPjATBgNV
HSUEDDAKBggrBgEFBQcDAjALBgNVHQ8EBAMCB4AwDQYJKoZIhvcNAQEEBQADggIB
AAxgNys1/DUK5aEayePSao9eEqWi1RBiUe0eXkChC3HbFuec9J6wALTCEkdpH04D
AGnIdNktu/qgivN4X7kxvqvLyBFev+Tu8EDyBdi8TdoS5RZewc+6lzp9WvNGW2p4
SdwEP+laPFtSLOlBo48h0gYAEnoy3fpsGWfXGvj+/mjpBKRhJydy7//ad5vAtvav
4r+ejdcsH0lPYGeNL3AjHAHAd2drupCEuaIhPpsn75YRTwsH5Za5ZMDx0R++dIac
lBiDW+Ijb6in3nz+0TPpQS0qPMcT64+ZxT8dK75ew7VjuLNBpWrPS1IIjLJ0xWqy
OMW2wj11wmNtKHLhsqjTzr/tcQtQIH5WU5nBJuP+TPVjghyNRy7uKe8vgicgZvkA
uObsBLXWzlLbMi1t5rpYmZzAEv4OkVwYTXHtOVyGVnxsbPvwjK1kuka53OqgpZaf
s/dWwU8aYYjhzkjj9PQ96APN1quoQ0SRXpAeAkTzGwrK6NEXBbgFfKj7b7vTP0Qr
Hdn6Fz/NQhH7XlPQ4xv0+784ibLrF7JMXFhinA40JyAhILc8id1bEipcg1uUDA+Q
mOhuVKFsCpc1zCkDMdI3lidDlr0R+PNZMgyiqC7e+uyIxHSFlQWAmKhr/6keJYPt
LEJGrRvqlIA/XaTSkdERx2R9y1Em9K23OHuIR78wUNAY
-----END CERTIFICATE-----
