Certificate:
    Data:
        Version: 3 (0x2)
        Serial Number: 11970 (0x2ec2)
    Signature Algorithm: sha256WithRSAEncryption
        Issuer: C=US, ST=OH, L=Columbus, O=VikingVPN, OU=MyOrganizationalUnit, CN=VikingVPN CA/name=EasyRSA/emailAddress=me@myhost.mydomain
        Validity
            Not Before: Oct 15 15:36:18 2017 GMT
            Not After : Oct 13 15:36:18 2027 GMT
        Subject: CN=Client3127Certc84993
        Subject Public Key Info:
            Public Key Algorithm: rsaEncryption
                Public-Key: (4096 bit)
                Modulus:
                    00:d1:a2:ed:7b:3d:1b:f6:ce:9f:62:32:65:20:45:
                    7b:86:7f:d7:e1:30:24:42:31:a5:ee:cc:c7:c2:d3:
                    6f:99:11:82:77:33:a3:c3:dd:0f:bc:39:68:96:08:
                    f1:65:d3:1f:16:f7:66:45:09:65:b9:c3:e6:46:9f:
                    b3:b4:97:0c:a1:de:2a:b0:58:e2:36:67:ff:5d:92:
                    39:56:9c:88:08:28:b0:2c:4c:f1:1d:98:55:ce:05:
                    fe:5b:21:5d:ef:87:2b:d8:13:4d:c7:bf:80:49:37:
                    5d:cc:7c:0f:af:4f:13:6b:c3:d5:eb:53:9a:ad:28:
                    16:3f:7c:72:21:f3:73:36:70:02:1f:1e:8e:52:18:
                    bd:11:25:1a:06:75:65:91:a6:bc:e3:5d:1f:60:73:
                    cc:82:4b:87:de:66:4e:c4:4e:66:21:ac:7d:8c:03:
                    c0:1b:49:4e:56:69:83:aa:cc:ef:47:e1:42:ed:61:
                    bc:96:f2:71:e9:9f:c2:59:64:e7:ed:f9:61:01:9c:
                    90:16:78:f2:86:ce:8f:15:32:b7:aa:07:f4:d8:31:
                    23:30:a2:4a:05:2e:31:60:73:2f:fc:15:cd:e1:bf:
                    78:52:8a:c5:0e:a3:89:76:95:a8:4f:2a:8b:8e:86:
                    a0:e5:d7:19:78:0a:68:85:98:d0:55:77:dc:c6:35:
                    1d:76:25:ac:55:a4:f4:1a:bc:ab:ab:47:16:80:34:
                    fc:13:f1:f6:44:45:03:be:fd:2c:86:ea:91:dc:c7:
                    7c:68:f6:18:20:38:e0:77:c1:2a:7b:3b:10:64:5d:
                    0a:66:36:9e:72:38:39:e5:a7:28:de:ca:5d:41:58:
                    87:6a:ef:98:96:d7:3f:e7:c6:99:d5:91:d9:44:98:
                    d1:0d:8b:9c:2b:94:13:94:f9:a3:ea:1d:06:27:cf:
                    6a:b2:cb:65:60:51:30:99:32:71:af:6b:c8:93:37:
                    a5:c3:72:b5:95:52:55:c7:b5:83:ce:3f:dd:25:18:
                    66:c5:e2:f1:9f:79:0b:b7:b8:22:2f:85:55:9e:b5:
                    23:ab:34:0a:f7:dc:4e:76:ef:2b:b9:fb:e3:fc:9a:
                    57:9b:83:29:29:dc:3c:2c:a7:31:36:ff:fa:6d:e1:
                    d4:28:49:95:4f:1d:ff:ba:95:ed:6b:9c:5c:73:b7:
                    03:33:2d:0d:94:6c:73:d3:e3:dd:e6:28:fe:99:03:
                    4f:07:1f:b2:3c:6e:18:9e:1a:e7:6b:95:98:2f:a3:
                    19:22:c2:92:a9:09:34:27:f9:e0:0d:25:e1:47:ef:
                    b0:0a:0b:7f:98:cb:3e:db:e4:f3:e3:ed:c6:f1:fb:
                    12:3b:19:da:c7:08:7d:c4:b8:e8:d0:85:75:ac:10:
                    24:8f:6b
                Exponent: 65537 (0x10001)
        X509v3 extensions:
            X509v3 Basic Constraints: 
                CA:FALSE
            Netscape Comment: 
                Easy-RSA Generated Certificate
            X509v3 Subject Key Identifier: 
                1B:F7:DA:CF:A2:4A:25:9D:75:F5:9D:F2:2D:E3:BB:AF:38:86:F9:35
            X509v3 Authority Key Identifier: 
                keyid:12:CD:60:04:D2:A0:80:9E:70:ED:C6:99:B8:7B:2C:C6:52:FD:19:A1
                DirName:/C=US/ST=OH/L=Columbus/O=VikingVPN/OU=MyOrganizationalUnit/CN=VikingVPN CA/name=EasyRSA/emailAddress=me@myhost.mydomain
                serial:CF:35:85:EE:80:BF:2A:3E

            X509v3 Extended Key Usage: 
                TLS Web Client Authentication
            X509v3 Key Usage: 
                Digital Signature
    Signature Algorithm: sha256WithRSAEncryption
         72:c1:82:a0:4e:f9:54:c1:cc:f2:bb:2d:d5:49:c0:95:30:96:
         64:75:4a:7f:13:ea:c5:4c:4a:10:d0:61:5e:46:fa:ef:c0:b1:
         a3:51:a8:0c:bd:32:86:ba:3d:35:74:87:a6:61:81:93:57:03:
         13:97:38:5a:ec:0d:05:bb:cb:02:8c:9c:2c:d1:ac:38:a8:de:
         6d:de:1e:c3:a4:82:91:ec:4a:e4:15:1b:99:6d:f2:ee:12:4a:
         d4:60:8e:89:3d:bd:bf:cb:8e:28:7d:27:31:26:a5:1f:8c:1e:
         08:84:f4:07:ea:d3:ac:ae:78:21:dc:ff:42:15:3b:7c:d9:40:
         18:41:44:2e:2a:8d:56:01:c7:fd:81:71:37:28:fa:f4:3b:ed:
         24:ef:70:f0:b6:18:5e:91:4e:c3:8c:bb:a7:71:66:4e:2d:9e:
         f8:92:98:99:29:e0:d8:d2:96:50:94:22:6a:86:3a:95:2e:4f:
         2f:f2:49:2b:d2:3f:02:05:a5:2a:81:32:0e:9a:3d:2f:1e:b5:
         dd:a6:79:a3:df:e2:c6:e3:65:1b:fe:75:cc:82:52:03:22:4d:
         f1:d0:f5:07:21:15:e7:3f:4c:90:e0:63:9a:7d:e1:94:88:03:
         15:ad:4e:5a:5b:28:68:1b:aa:9c:5b:5d:d0:2b:7d:15:47:ef:
         e9:9e:24:fe:8a:db:e3:61:25:36:19:36:0d:90:77:5b:d4:5b:
         1a:dc:5a:76:0f:a3:13:af:7f:14:de:4a:9f:35:d1:47:84:67:
         7c:6b:f5:53:01:2b:14:03:81:81:3a:f7:8a:33:2b:b2:4c:86:
         ab:71:01:73:1d:fe:3d:bd:65:9d:05:24:4d:b5:24:b8:f7:56:
         92:71:23:b0:57:c3:85:5a:e5:ee:ef:d7:2f:55:a4:a4:19:9f:
         6a:ea:fa:d4:fb:f6:7f:19:63:da:1c:ae:50:b3:1a:de:8f:a0:
         ff:76:9e:d0:13:a9:ea:8f:fb:0a:94:f9:ed:f7:47:cb:2b:18:
         0e:64:d2:ce:a7:e2:89:a1:fd:19:25:47:eb:17:20:45:07:32:
         e8:df:0d:9f:34:5a:bd:1e:1e:41:d2:45:1a:44:73:b7:7a:2d:
         52:83:06:1b:4d:72:91:40:d6:19:be:57:71:97:6e:11:02:dd:
         2f:7e:5e:fb:7f:a4:1e:c0:5c:34:1b:de:84:37:b3:e7:1b:5e:
         16:49:ef:1d:86:19:d1:d2:4f:39:38:a3:4f:17:df:83:1a:13:
         ee:10:d6:c6:87:96:05:f9:48:d5:1a:58:73:c8:cc:58:f8:fa:
         c0:97:29:15:c9:9e:93:6f:09:07:9d:a4:32:ba:75:ca:eb:d2:
         81:d9:90:05:75:b3:06:a7
-----BEGIN CERTIFICATE-----
MIIGrTCCBJWgAwIBAgICLsIwDQYJKoZIhvcNAQELBQAwgawxCzAJBgNVBAYTAlVT
MQswCQYDVQQIEwJPSDERMA8GA1UEBxMIQ29sdW1idXMxEjAQBgNVBAoTCVZpa2lu
Z1ZQTjEdMBsGA1UECxMUTXlPcmdhbml6YXRpb25hbFVuaXQxFTATBgNVBAMTDFZp
a2luZ1ZQTiBDQTEQMA4GA1UEKRMHRWFzeVJTQTEhMB8GCSqGSIb3DQEJARYSbWVA
bXlob3N0Lm15ZG9tYWluMB4XDTE3MTAxNTE1MzYxOFoXDTI3MTAxMzE1MzYxOFow
HzEdMBsGA1UEAxMUQ2xpZW50MzEyN0NlcnRjODQ5OTMwggIiMA0GCSqGSIb3DQEB
AQUAA4ICDwAwggIKAoICAQDRou17PRv2zp9iMmUgRXuGf9fhMCRCMaXuzMfC02+Z
EYJ3M6PD3Q+8OWiWCPFl0x8W92ZFCWW5w+ZGn7O0lwyh3iqwWOI2Z/9dkjlWnIgI
KLAsTPEdmFXOBf5bIV3vhyvYE03Hv4BJN13MfA+vTxNrw9XrU5qtKBY/fHIh83M2
cAIfHo5SGL0RJRoGdWWRprzjXR9gc8yCS4feZk7ETmYhrH2MA8AbSU5WaYOqzO9H
4ULtYbyW8nHpn8JZZOft+WEBnJAWePKGzo8VMreqB/TYMSMwokoFLjFgcy/8Fc3h
v3hSisUOo4l2lahPKouOhqDl1xl4CmiFmNBVd9zGNR12JaxVpPQavKurRxaANPwT
8fZERQO+/SyG6pHcx3xo9hggOOB3wSp7OxBkXQpmNp5yODnlpyjeyl1BWIdq75iW
1z/nxpnVkdlEmNENi5wrlBOU+aPqHQYnz2qyy2VgUTCZMnGva8iTN6XDcrWVUlXH
tYPOP90lGGbF4vGfeQu3uCIvhVWetSOrNAr33E527yu5++P8mlebgykp3DwspzE2
//pt4dQoSZVPHf+6le1rnFxztwMzLQ2UbHPT493mKP6ZA08HH7I8bhieGudrlZgv
oxkiwpKpCTQn+eANJeFH77AKC3+Yyz7b5PPj7cbx+xI7GdrHCH3EuOjQhXWsECSP
awIDAQABo4IBYzCCAV8wCQYDVR0TBAIwADAtBglghkgBhvhCAQ0EIBYeRWFzeS1S
U0EgR2VuZXJhdGVkIENlcnRpZmljYXRlMB0GA1UdDgQWBBQb99rPokolnXX1nfIt
47uvOIb5NTCB4QYDVR0jBIHZMIHWgBQSzWAE0qCAnnDtxpm4eyzGUv0ZoaGBsqSB
rzCBrDELMAkGA1UEBhMCVVMxCzAJBgNVBAgTAk9IMREwDwYDVQQHEwhDb2x1bWJ1
czESMBAGA1UEChMJVmlraW5nVlBOMR0wGwYDVQQLExRNeU9yZ2FuaXphdGlvbmFs
VW5pdDEVMBMGA1UEAxMMVmlraW5nVlBOIENBMRAwDgYDVQQpEwdFYXN5UlNBMSEw
HwYJKoZIhvcNAQkBFhJtZUBteWhvc3QubXlkb21haW6CCQDPNYXugL8qPjATBgNV
HSUEDDAKBggrBgEFBQcDAjALBgNVHQ8EBAMCB4AwDQYJKoZIhvcNAQELBQADggIB
AHLBgqBO+VTBzPK7LdVJwJUwlmR1Sn8T6sVMShDQYV5G+u/AsaNRqAy9Moa6PTV0
h6ZhgZNXAxOXOFrsDQW7ywKMnCzRrDio3m3eHsOkgpHsSuQVG5lt8u4SStRgjok9
vb/Ljih9JzEmpR+MHgiE9Afq06yueCHc/0IVO3zZQBhBRC4qjVYBx/2BcTco+vQ7
7STvcPC2GF6RTsOMu6dxZk4tnviSmJkp4NjSllCUImqGOpUuTy/ySSvSPwIFpSqB
Mg6aPS8etd2meaPf4sbjZRv+dcyCUgMiTfHQ9QchFec/TJDgY5p94ZSIAxWtTlpb
KGgbqpxbXdArfRVH7+meJP6K2+NhJTYZNg2Qd1vUWxrcWnYPoxOvfxTeSp810UeE
Z3xr9VMBKxQDgYE694ozK7JMhqtxAXMd/j29ZZ0FJE21JLj3VpJxI7BXw4Va5e7v
1y9VpKQZn2rq+tT79n8ZY9ocrlCzGt6PoP92ntATqeqP+wqU+e33R8srGA5k0s6n
4omh/RklR+sXIEUHMujfDZ80Wr0eHkHSRRpEc7d6LVKDBhtNcpFA1hm+V3GXbhEC
3S9+Xvt/pB7AXDQb3oQ3s+cbXhZJ7x2GGdHSTzk4o08X34MaE+4Q1saHlgX5SNUa
WHPIzFj4+sCXKRXJnpNvCQedpDK6dcrr0oHZkAV1swan
-----END CERTIFICATE-----
