Certificate:
    Data:
        Version: 3 (0x2)
        Serial Number: 1622 (0x656)
    Signature Algorithm: md5WithRSAEncryption
        Issuer: C=US, ST=OH, L=Columbus, O=VikingVPN, OU=MyOrganizationalUnit, CN=VikingVPN CA/name=EasyRSA/emailAddress=me@myhost.mydomain
        Validity
            Not Before: Apr 15 19:10:31 2014 GMT
            Not After : Apr 12 19:10:31 2024 GMT
        Subject: CN=Client585Cert13c04d
        Subject Public Key Info:
            Public Key Algorithm: rsaEncryption
                Public-Key: (4096 bit)
                Modulus:
                    00:e5:4f:b9:24:4f:1b:fd:4b:b3:ec:c6:d5:8b:a3:
                    14:c3:40:e0:b3:90:3e:13:b1:0a:f0:fb:fc:ef:fc:
                    95:e8:50:b0:61:0b:57:c0:9c:38:94:4c:02:ef:63:
                    6d:b5:09:c0:ee:2d:8d:fe:e9:4b:6f:87:9b:7b:7a:
                    87:16:89:89:38:b7:1c:69:a5:05:03:19:90:2f:76:
                    4d:08:6b:1b:64:e0:5e:53:bf:75:96:34:68:55:ce:
                    fe:1f:34:c9:28:5f:7d:9d:24:1a:3a:cb:6b:20:16:
                    2a:9e:2e:3c:a5:82:aa:9d:bc:90:59:83:e9:94:73:
                    62:b4:de:32:88:5c:0b:ba:58:cf:c8:84:68:29:66:
                    6f:42:b7:8b:8a:60:4e:fb:83:e4:0e:f0:9d:c7:1a:
                    66:40:bf:86:e7:ed:91:9d:2b:d2:cf:74:d1:67:fd:
                    d0:2d:87:fd:fb:c2:b7:80:66:43:a0:b9:ca:34:d4:
                    8d:5a:a2:30:7b:21:36:f6:f0:91:3d:81:9b:45:7b:
                    ce:07:8d:fb:c2:d0:10:35:f3:26:91:ad:32:46:06:
                    98:97:0a:dd:d2:54:c2:29:d6:43:2d:e5:67:58:c3:
                    fc:fa:29:2f:8a:cd:7e:e9:c1:f1:dd:70:1c:ce:a3:
                    19:78:0b:c4:84:8e:43:27:d3:8d:fa:d8:fa:9b:c3:
                    9c:20:83:eb:76:8e:7d:04:24:66:b2:6e:49:ee:a1:
                    e6:c6:42:a4:00:8e:b1:5c:bd:9e:62:04:76:71:fb:
                    8c:cf:2a:ea:67:64:8a:5a:c6:8a:a7:ac:21:74:fa:
                    d7:01:3d:26:44:74:f4:80:5d:c7:b7:6d:b9:90:92:
                    62:56:32:c1:10:00:14:0b:c3:e2:36:db:97:ea:87:
                    3a:76:06:22:e5:da:d1:27:31:3a:48:25:44:5b:be:
                    56:3c:f5:aa:85:84:67:fb:00:71:6f:1f:c6:2b:8f:
                    24:d6:a6:1b:40:a0:d5:21:e1:12:24:8c:63:57:d4:
                    f2:d6:50:34:2b:a8:d9:f8:05:37:13:1a:13:a8:0a:
                    df:8f:de:67:3d:2a:8b:21:7d:85:da:73:c3:ce:8e:
                    ee:07:dd:48:92:73:dd:15:61:c2:b7:14:6c:ec:0f:
                    26:7e:be:dd:ff:7b:0e:f5:c8:52:8e:54:de:2d:51:
                    fe:7b:ed:23:83:c2:73:04:c8:60:52:e2:58:d7:8e:
                    be:b5:17:22:de:4e:52:8e:64:37:d5:75:14:6f:a2:
                    d6:cf:58:ea:76:3f:86:33:e3:24:77:78:d4:8f:d8:
                    8c:bf:6e:b8:1b:a8:41:ee:da:b4:dc:4d:91:70:75:
                    f1:3f:7b:41:66:f3:2e:a2:e7:3b:89:7a:2d:df:83:
                    c8:4a:43
                Exponent: 65537 (0x10001)
        X509v3 extensions:
            X509v3 Basic Constraints: 
                CA:FALSE
            Netscape Comment: 
                Easy-RSA Generated Certificate
            X509v3 Subject Key Identifier: 
                B2:3A:0C:45:0E:C6:5D:82:67:61:84:3C:F1:52:4C:E3:0C:8C:79:5A
            X509v3 Authority Key Identifier: 
                keyid:12:CD:60:04:D2:A0:80:9E:70:ED:C6:99:B8:7B:2C:C6:52:FD:19:A1
                DirName:/C=US/ST=OH/L=Columbus/O=VikingVPN/OU=MyOrganizationalUnit/CN=VikingVPN CA/name=EasyRSA/emailAddress=me@myhost.mydomain
                serial:CF:35:85:EE:80:BF:2A:3E

            X509v3 Extended Key Usage: 
                TLS Web Client Authentication
            X509v3 Key Usage: 
                Digital Signature
    Signature Algorithm: md5WithRSAEncryption
         41:b3:bf:a0:50:53:24:45:7b:33:7d:4f:c2:11:a5:68:34:8c:
         cb:d4:cd:cd:66:6c:9b:d8:87:f7:6a:6e:fd:5a:05:2f:f3:18:
         fa:c1:43:71:a3:50:ba:91:77:0b:47:4f:da:8d:a1:1e:b0:34:
         fe:79:a2:40:ba:df:aa:54:33:c5:41:4e:70:de:36:d6:41:0e:
         6e:97:ca:06:29:b2:ae:2c:0c:1e:ad:cb:87:b3:83:9a:ef:12:
         59:a1:12:e1:05:39:fc:ba:4b:12:fd:f6:1d:fb:98:80:bc:de:
         f6:49:a8:60:3a:7c:e3:2f:d0:3d:61:88:80:12:83:d1:ec:c0:
         f6:dd:58:d8:ab:38:47:7a:63:51:11:e0:9f:d7:37:e6:5b:b2:
         c7:ee:b2:2d:2c:73:6e:76:a9:d0:f6:7b:77:e7:e1:b5:2f:32:
         a3:82:0b:d0:c9:49:ff:46:78:07:ea:f7:a2:59:36:ab:4f:56:
         a4:44:58:ef:7f:00:df:e3:56:9f:58:31:47:6f:f8:ae:51:0b:
         9a:3e:1b:c2:d9:cc:06:74:f7:e2:ba:f9:c8:84:1a:9c:83:c1:
         11:d2:aa:4d:8d:d7:e4:0b:06:11:04:8f:11:9a:91:c4:79:49:
         33:5e:e8:2a:cd:9e:61:ce:86:23:4b:33:8c:bd:7f:7d:40:b9:
         70:e7:81:34:10:b4:a2:f6:3c:f8:86:26:23:6d:53:b5:c1:99:
         b0:e8:03:02:33:00:30:63:be:cf:2c:c1:dc:79:2a:5b:c7:ce:
         57:92:c3:7a:02:13:1d:fd:f2:bc:19:e7:52:22:f2:f0:a3:47:
         81:8b:b3:13:2a:c1:0b:a7:29:d6:cd:56:85:03:97:ed:ef:10:
         1d:54:67:3b:1d:a1:7f:6e:ac:f7:93:37:13:51:19:af:d2:8c:
         3e:b1:9e:ff:1f:43:de:2c:be:dd:70:13:59:31:18:fd:96:34:
         72:4d:0e:9a:f1:61:bb:5f:da:01:a1:02:dd:3b:5e:2f:6f:8d:
         b6:7a:73:df:fc:d2:52:0e:79:00:fc:46:02:87:ac:a2:e5:00:
         a3:eb:98:16:b0:ce:54:ee:c2:53:15:55:48:9e:26:0a:b1:48:
         fe:74:ea:af:75:38:38:f4:5d:9a:83:26:ff:f2:bd:2a:fd:71:
         2c:c5:40:22:9b:85:a3:57:da:5d:99:97:f8:da:12:b7:59:45:
         1a:a1:6d:82:1c:5e:9a:e2:ae:be:52:11:dc:df:54:60:f7:45:
         89:2b:85:f8:f0:25:5d:77:7d:28:16:8f:60:99:46:88:2e:30:
         81:b4:a5:1c:6a:e0:7e:86:bb:eb:5a:9d:a3:b2:a6:30:a8:7f:
         b6:4f:0d:17:ff:ad:3a:8a
-----BEGIN CERTIFICATE-----
MIIGrDCCBJSgAwIBAgICBlYwDQYJKoZIhvcNAQEEBQAwgawxCzAJBgNVBAYTAlVT
MQswCQYDVQQIEwJPSDERMA8GA1UEBxMIQ29sdW1idXMxEjAQBgNVBAoTCVZpa2lu
Z1ZQTjEdMBsGA1UECxMUTXlPcmdhbml6YXRpb25hbFVuaXQxFTATBgNVBAMTDFZp
a2luZ1ZQTiBDQTEQMA4GA1UEKRMHRWFzeVJTQTEhMB8GCSqGSIb3DQEJARYSbWVA
bXlob3N0Lm15ZG9tYWluMB4XDTE0MDQxNTE5MTAzMVoXDTI0MDQxMjE5MTAzMVow
HjEcMBoGA1UEAxMTQ2xpZW50NTg1Q2VydDEzYzA0ZDCCAiIwDQYJKoZIhvcNAQEB
BQADggIPADCCAgoCggIBAOVPuSRPG/1Ls+zG1YujFMNA4LOQPhOxCvD7/O/8lehQ
sGELV8CcOJRMAu9jbbUJwO4tjf7pS2+Hm3t6hxaJiTi3HGmlBQMZkC92TQhrG2Tg
XlO/dZY0aFXO/h80yShffZ0kGjrLayAWKp4uPKWCqp28kFmD6ZRzYrTeMohcC7pY
z8iEaClmb0K3i4pgTvuD5A7wnccaZkC/huftkZ0r0s900Wf90C2H/fvCt4BmQ6C5
yjTUjVqiMHshNvbwkT2Bm0V7zgeN+8LQEDXzJpGtMkYGmJcK3dJUwinWQy3lZ1jD
/PopL4rNfunB8d1wHM6jGXgLxISOQyfTjfrY+pvDnCCD63aOfQQkZrJuSe6h5sZC
pACOsVy9nmIEdnH7jM8q6mdkilrGiqesIXT61wE9JkR09IBdx7dtuZCSYlYywRAA
FAvD4jbbl+qHOnYGIuXa0ScxOkglRFu+Vjz1qoWEZ/sAcW8fxiuPJNamG0Cg1SHh
EiSMY1fU8tZQNCuo2fgFNxMaE6gK34/eZz0qiyF9hdpzw86O7gfdSJJz3RVhwrcU
bOwPJn6+3f97DvXIUo5U3i1R/nvtI4PCcwTIYFLiWNeOvrUXIt5OUo5kN9V1FG+i
1s9Y6nY/hjPjJHd41I/YjL9uuBuoQe7atNxNkXB18T97QWbzLqLnO4l6Ld+DyEpD
AgMBAAGjggFjMIIBXzAJBgNVHRMEAjAAMC0GCWCGSAGG+EIBDQQgFh5FYXN5LVJT
QSBHZW5lcmF0ZWQgQ2VydGlmaWNhdGUwHQYDVR0OBBYEFLI6DEUOxl2CZ2GEPPFS
TOMMjHlaMIHhBgNVHSMEgdkwgdaAFBLNYATSoICecO3Gmbh7LMZS/RmhoYGypIGv
MIGsMQswCQYDVQQGEwJVUzELMAkGA1UECBMCT0gxETAPBgNVBAcTCENvbHVtYnVz
MRIwEAYDVQQKEwlWaWtpbmdWUE4xHTAbBgNVBAsTFE15T3JnYW5pemF0aW9uYWxV
bml0MRUwEwYDVQQDEwxWaWtpbmdWUE4gQ0ExEDAOBgNVBCkTB0Vhc3lSU0ExITAf
BgkqhkiG9w0BCQEWEm1lQG15aG9zdC5teWRvbWFpboIJAM81he6Avyo+MBMGA1Ud
JQQMMAoGCCsGAQUFBwMCMAsGA1UdDwQEAwIHgDANBgkqhkiG9w0BAQQFAAOCAgEA
QbO/oFBTJEV7M31PwhGlaDSMy9TNzWZsm9iH92pu/VoFL/MY+sFDcaNQupF3C0dP
2o2hHrA0/nmiQLrfqlQzxUFOcN421kEObpfKBimyriwMHq3Lh7ODmu8SWaES4QU5
/LpLEv32HfuYgLze9kmoYDp84y/QPWGIgBKD0ezA9t1Y2Ks4R3pjURHgn9c35luy
x+6yLSxzbnap0PZ7d+fhtS8yo4IL0MlJ/0Z4B+r3olk2q09WpERY738A3+NWn1gx
R2/4rlELmj4bwtnMBnT34rr5yIQanIPBEdKqTY3X5AsGEQSPEZqRxHlJM17oKs2e
Yc6GI0szjL1/fUC5cOeBNBC0ovY8+IYmI21TtcGZsOgDAjMAMGO+zyzB3HkqW8fO
V5LDegITHf3yvBnnUiLy8KNHgYuzEyrBC6cp1s1WhQOX7e8QHVRnOx2hf26s95M3
E1EZr9KMPrGe/x9D3iy+3XATWTEY/ZY0ck0OmvFhu1/aAaEC3TteL2+Ntnpz3/zS
Ug55APxGAoesouUAo+uYFrDOVO7CUxVVSJ4mCrFI/nTqr3U4OPRdmoMm//K9Kv1x
LMVAIpuFo1faXZmX+NoSt1lFGqFtghxemuKuvlIR3N9UYPdFiSuF+PAlXXd9KBaP
YJlGiC4wgbSlHGrgfoa761qdo7KmMKh/tk8NF/+tOoo=
-----END CERTIFICATE-----
