Certificate:
    Data:
        Version: 3 (0x2)
        Serial Number: 6193 (0x1831)
    Signature Algorithm: md5WithRSAEncryption
        Issuer: C=US, ST=OH, L=Columbus, O=VikingVPN, OU=MyOrganizationalUnit, CN=VikingVPN CA/name=EasyRSA/emailAddress=me@myhost.mydomain
        Validity
            Not Before: Sep  3 02:16:53 2015 GMT
            Not After : Aug 31 02:16:53 2025 GMT
        Subject: CN=Client1944Cert3bef4c
        Subject Public Key Info:
            Public Key Algorithm: rsaEncryption
                Public-Key: (4096 bit)
                Modulus:
                    00:d6:78:58:35:85:49:5a:2c:83:32:ac:d4:39:44:
                    39:7f:8d:e3:ee:49:d5:19:a1:66:7e:3a:72:49:1c:
                    11:87:4b:85:e5:57:9e:0d:1e:f1:fd:cc:78:26:f6:
                    f5:ef:c6:1e:bb:a3:ac:62:6b:31:e6:b5:44:ec:79:
                    99:6b:4b:82:cf:32:c2:91:6c:bf:91:31:6f:7f:39:
                    8e:cd:f6:67:42:4d:9f:1b:59:df:bd:2e:40:e6:7f:
                    de:51:a2:e5:11:25:a1:ff:65:93:54:47:08:04:8a:
                    98:82:f0:87:15:cc:a7:fd:cd:17:7f:5b:27:ba:e7:
                    ba:c4:be:46:4c:f9:19:7e:33:ce:19:24:25:f9:ef:
                    56:0a:d7:46:a8:6b:b1:3a:c5:58:e8:e2:3d:5b:15:
                    ae:07:1c:50:a3:74:f2:e5:f7:cb:42:7f:4a:06:70:
                    e8:bb:97:f2:48:24:91:7c:2b:7c:84:11:39:42:b6:
                    ce:eb:3c:db:fe:b8:78:bb:19:6a:72:cd:04:c5:03:
                    fe:17:e3:82:a1:ec:a6:99:f1:14:91:79:c8:29:53:
                    ee:64:67:a1:b5:4c:d8:09:c6:3e:6e:3b:6f:d8:f2:
                    c0:fa:1d:4a:3b:41:8c:a1:cc:54:16:f2:7f:d2:4f:
                    fd:ec:49:cf:62:52:11:a8:54:b9:24:50:e5:be:f4:
                    a8:1f:3d:3f:42:7f:4d:85:14:b4:b9:ca:51:4d:96:
                    51:34:9c:7e:35:33:92:c0:9f:77:ba:af:3e:c3:84:
                    39:fb:68:8d:f9:c6:ca:ae:42:ac:73:5b:87:cb:8b:
                    e6:ad:e3:cf:7f:94:b4:05:c9:6a:bc:87:f6:52:0f:
                    cd:1a:9a:ca:cb:f0:4e:4a:7b:10:3a:88:fa:dd:77:
                    a1:8c:8e:15:9c:b3:e2:12:1a:cd:4e:ae:25:bf:6f:
                    e8:ce:bf:90:96:9f:f0:a0:92:79:00:66:29:50:27:
                    b4:e7:17:89:b4:bf:c1:b9:6c:76:d1:f6:93:ef:cc:
                    cb:45:8a:a8:a7:c4:38:43:53:7a:87:ef:7c:56:d2:
                    ca:a2:b0:31:1c:34:2d:8a:f5:23:63:2f:89:b7:1e:
                    fa:14:d3:e8:a5:6c:df:5f:cf:9f:af:c5:9a:db:4c:
                    87:b0:0c:b8:08:05:0f:5b:d6:27:ed:30:e2:46:78:
                    bb:a9:a1:f9:8d:67:61:b5:d3:24:86:ca:90:1c:b7:
                    3a:04:cc:86:9c:1d:e4:be:aa:12:b6:e9:94:42:a5:
                    75:81:78:db:36:e8:85:dd:09:e4:94:b6:52:f3:b8:
                    fe:c5:12:66:c4:17:c8:4b:9a:2a:96:62:d9:d0:88:
                    f8:b5:fa:69:43:7b:4b:46:96:9e:b6:37:f3:58:d5:
                    a7:cc:41
                Exponent: 65537 (0x10001)
        X509v3 extensions:
            X509v3 Basic Constraints: 
                CA:FALSE
            Netscape Comment: 
                Easy-RSA Generated Certificate
            X509v3 Subject Key Identifier: 
                86:E8:E6:83:32:E5:EB:F4:CD:37:0A:32:E9:F0:93:BA:2F:78:DF:0A
            X509v3 Authority Key Identifier: 
                keyid:12:CD:60:04:D2:A0:80:9E:70:ED:C6:99:B8:7B:2C:C6:52:FD:19:A1
                DirName:/C=US/ST=OH/L=Columbus/O=VikingVPN/OU=MyOrganizationalUnit/CN=VikingVPN CA/name=EasyRSA/emailAddress=me@myhost.mydomain
                serial:CF:35:85:EE:80:BF:2A:3E

            X509v3 Extended Key Usage: 
                TLS Web Client Authentication
            X509v3 Key Usage: 
                Digital Signature
    Signature Algorithm: md5WithRSAEncryption
         c8:29:4b:6d:7e:b6:21:ac:8c:4e:3e:48:a0:77:df:35:38:63:
         a4:05:ec:de:a7:67:22:a3:27:bb:21:7b:37:57:fa:1b:56:9c:
         ae:02:6f:fc:eb:56:7b:c1:77:aa:37:13:a7:16:7c:08:03:cb:
         52:da:fe:be:e9:59:10:3c:51:fe:0b:f7:26:fc:84:39:5b:2f:
         9f:51:e8:34:ba:58:ce:ff:b1:ea:10:e5:ca:f8:55:fa:3b:26:
         15:55:81:83:82:f8:70:01:92:e5:c6:c6:16:30:30:de:70:a3:
         9f:04:7a:e9:a8:be:c3:a2:99:cb:94:5f:7b:2d:f5:c6:0d:9d:
         21:10:89:14:03:43:cd:e8:6c:c0:5c:29:49:eb:32:e9:56:6f:
         79:a4:fe:85:02:86:a0:d7:a6:02:ed:15:0b:9b:f3:f0:b5:eb:
         c2:d6:9e:18:e6:03:e1:5c:1f:e4:57:3b:23:45:c9:34:4c:0a:
         ed:cc:d3:dc:9e:1c:3e:9f:be:90:52:89:3b:54:38:1e:f8:99:
         db:b1:2b:e4:c1:5e:67:d3:90:9e:b6:db:5f:9b:d8:e2:c0:61:
         bb:87:54:20:a4:95:c3:7d:19:96:f4:74:82:36:92:8f:ee:2e:
         f2:58:56:41:7a:07:06:ef:5f:d4:04:b2:23:50:40:f3:0b:5c:
         c7:03:0a:65:fb:12:64:2d:4b:a2:2b:16:84:70:b2:14:c8:2e:
         82:83:9c:0a:6a:2f:42:5f:0f:d6:e1:ea:c8:fe:84:2c:35:89:
         56:3e:8b:c3:b3:13:56:28:8c:53:63:d6:f2:cb:de:86:eb:d6:
         19:c2:8d:45:6a:84:cf:fc:23:24:c9:1c:7a:5f:2f:5a:e0:18:
         30:9d:53:53:c2:98:46:f2:05:75:77:6d:de:e6:e1:92:88:de:
         9a:4d:e1:53:0f:aa:04:b7:24:e0:ca:7c:44:2c:48:5f:5e:ba:
         b8:7b:1c:bb:b7:48:6d:00:55:80:86:1d:d6:f9:27:26:21:f0:
         d8:27:42:ab:cb:ff:c0:dc:0c:b5:74:cc:02:a9:0f:0d:9e:1e:
         2f:e5:1e:f8:a9:ff:34:dd:6a:09:1f:49:4b:e1:30:25:90:47:
         38:0d:d6:f7:a5:6d:4a:cf:89:35:5e:ad:0c:0e:4a:0e:84:67:
         5d:49:08:3c:f6:48:f0:f9:c4:fc:7d:0c:d5:aa:f1:32:df:0b:
         a5:49:96:d2:4e:bd:a4:92:2c:f5:da:f1:47:c6:77:e1:f3:59:
         cb:b5:47:37:b7:33:b5:13:8b:5e:ee:9c:92:fa:99:48:e0:4d:
         d9:2a:83:ed:e1:57:8d:93:da:3c:08:69:97:38:cb:52:61:2c:
         34:3d:9b:e2:78:6e:e3:c4
-----BEGIN CERTIFICATE-----
MIIGrTCCBJWgAwIBAgICGDEwDQYJKoZIhvcNAQEEBQAwgawxCzAJBgNVBAYTAlVT
MQswCQYDVQQIEwJPSDERMA8GA1UEBxMIQ29sdW1idXMxEjAQBgNVBAoTCVZpa2lu
Z1ZQTjEdMBsGA1UECxMUTXlPcmdhbml6YXRpb25hbFVuaXQxFTATBgNVBAMTDFZp
a2luZ1ZQTiBDQTEQMA4GA1UEKRMHRWFzeVJTQTEhMB8GCSqGSIb3DQEJARYSbWVA
bXlob3N0Lm15ZG9tYWluMB4XDTE1MDkwMzAyMTY1M1oXDTI1MDgzMTAyMTY1M1ow
HzEdMBsGA1UEAxMUQ2xpZW50MTk0NENlcnQzYmVmNGMwggIiMA0GCSqGSIb3DQEB
AQUAA4ICDwAwggIKAoICAQDWeFg1hUlaLIMyrNQ5RDl/jePuSdUZoWZ+OnJJHBGH
S4XlV54NHvH9zHgm9vXvxh67o6xiazHmtUTseZlrS4LPMsKRbL+RMW9/OY7N9mdC
TZ8bWd+9LkDmf95RouURJaH/ZZNURwgEipiC8IcVzKf9zRd/Wye657rEvkZM+Rl+
M84ZJCX571YK10aoa7E6xVjo4j1bFa4HHFCjdPLl98tCf0oGcOi7l/JIJJF8K3yE
ETlCts7rPNv+uHi7GWpyzQTFA/4X44Kh7KaZ8RSRecgpU+5kZ6G1TNgJxj5uO2/Y
8sD6HUo7QYyhzFQW8n/ST/3sSc9iUhGoVLkkUOW+9KgfPT9Cf02FFLS5ylFNllE0
nH41M5LAn3e6rz7DhDn7aI35xsquQqxzW4fLi+at489/lLQFyWq8h/ZSD80amsrL
8E5KexA6iPrdd6GMjhWcs+ISGs1OriW/b+jOv5CWn/CgknkAZilQJ7TnF4m0v8G5
bHbR9pPvzMtFiqinxDhDU3qH73xW0sqisDEcNC2K9SNjL4m3HvoU0+ilbN9fz5+v
xZrbTIewDLgIBQ9b1iftMOJGeLupofmNZ2G10ySGypActzoEzIacHeS+qhK26ZRC
pXWBeNs26IXdCeSUtlLzuP7FEmbEF8hLmiqWYtnQiPi1+mlDe0tGlp62N/NY1afM
QQIDAQABo4IBYzCCAV8wCQYDVR0TBAIwADAtBglghkgBhvhCAQ0EIBYeRWFzeS1S
U0EgR2VuZXJhdGVkIENlcnRpZmljYXRlMB0GA1UdDgQWBBSG6OaDMuXr9M03CjLp
8JO6L3jfCjCB4QYDVR0jBIHZMIHWgBQSzWAE0qCAnnDtxpm4eyzGUv0ZoaGBsqSB
rzCBrDELMAkGA1UEBhMCVVMxCzAJBgNVBAgTAk9IMREwDwYDVQQHEwhDb2x1bWJ1
czESMBAGA1UEChMJVmlraW5nVlBOMR0wGwYDVQQLExRNeU9yZ2FuaXphdGlvbmFs
VW5pdDEVMBMGA1UEAxMMVmlraW5nVlBOIENBMRAwDgYDVQQpEwdFYXN5UlNBMSEw
HwYJKoZIhvcNAQkBFhJtZUBteWhvc3QubXlkb21haW6CCQDPNYXugL8qPjATBgNV
HSUEDDAKBggrBgEFBQcDAjALBgNVHQ8EBAMCB4AwDQYJKoZIhvcNAQEEBQADggIB
AMgpS21+tiGsjE4+SKB33zU4Y6QF7N6nZyKjJ7shezdX+htWnK4Cb/zrVnvBd6o3
E6cWfAgDy1La/r7pWRA8Uf4L9yb8hDlbL59R6DS6WM7/seoQ5cr4Vfo7JhVVgYOC
+HABkuXGxhYwMN5wo58EeumovsOimcuUX3st9cYNnSEQiRQDQ83obMBcKUnrMulW
b3mk/oUChqDXpgLtFQub8/C168LWnhjmA+FcH+RXOyNFyTRMCu3M09yeHD6fvpBS
iTtUOB74mduxK+TBXmfTkJ6221+b2OLAYbuHVCCklcN9GZb0dII2ko/uLvJYVkF6
BwbvX9QEsiNQQPMLXMcDCmX7EmQtS6IrFoRwshTILoKDnApqL0JfD9bh6sj+hCw1
iVY+i8OzE1YojFNj1vLL3obr1hnCjUVqhM/8IyTJHHpfL1rgGDCdU1PCmEbyBXV3
bd7m4ZKI3ppN4VMPqgS3JODKfEQsSF9eurh7HLu3SG0AVYCGHdb5JyYh8NgnQqvL
/8DcDLV0zAKpDw2eHi/lHvip/zTdagkfSUvhMCWQRzgN1velbUrPiTVerQwOSg6E
Z11JCDz2SPD5xPx9DNWq8TLfC6VJltJOvaSSLPXa8UfGd+HzWcu1Rze3M7UTi17u
nJL6mUjgTdkqg+3hV42T2jwIaZc4y1JhLDQ9m+J4buPE
-----END CERTIFICATE-----
