Certificate:
    Data:
        Version: 3 (0x2)
        Serial Number: 7487 (0x1d3f)
    Signature Algorithm: md5WithRSAEncryption
        Issuer: C=US, ST=OH, L=Columbus, O=VikingVPN, OU=MyOrganizationalUnit, CN=VikingVPN CA/name=EasyRSA/emailAddress=me@myhost.mydomain
        Validity
            Not Before: Mar 12 20:54:35 2016 GMT
            Not After : Mar 10 20:54:35 2026 GMT
        Subject: CN=Client368Certca33b9
        Subject Public Key Info:
            Public Key Algorithm: rsaEncryption
                Public-Key: (4096 bit)
                Modulus:
                    00:e4:58:90:82:5d:b3:65:e2:00:91:59:92:cf:55:
                    83:2c:a9:41:b5:c1:df:68:3e:14:2c:fb:b8:4e:38:
                    9b:ea:19:f2:77:c5:c3:58:ec:c0:d3:6a:f3:aa:d0:
                    61:d7:83:dd:46:9e:f2:8f:18:d8:1d:c6:60:21:3f:
                    73:db:12:bd:f2:a9:d6:62:c8:c6:1d:0a:08:ac:6b:
                    3b:0f:c1:4b:4b:02:76:f4:ea:84:4f:91:f5:00:37:
                    73:75:d9:72:d6:89:05:37:85:70:f5:16:07:60:08:
                    32:68:1a:25:98:9a:e4:40:17:1b:0d:68:76:1b:13:
                    b9:d6:8b:e6:56:ab:b5:26:94:5f:02:e5:8f:36:03:
                    29:e7:20:88:fa:ca:dc:7a:3e:40:59:30:54:f4:ed:
                    04:f8:6d:6c:8e:1f:32:f9:20:62:08:c8:40:57:01:
                    be:0e:37:43:cd:ba:35:a4:5d:bb:79:8f:b3:e2:7b:
                    5c:13:d2:47:7d:f4:83:cb:33:61:b2:2b:e6:0f:1a:
                    f4:b4:45:e4:d9:0e:e4:94:e4:3e:d4:1e:af:c0:4c:
                    2e:8c:41:30:c1:ac:02:57:62:43:fa:00:2e:a0:c3:
                    fe:53:e2:95:52:3b:45:f6:11:40:0c:bc:28:5a:6a:
                    05:93:26:f5:67:9b:bc:39:01:90:32:a5:17:aa:ea:
                    0f:a7:c6:24:c3:84:60:de:ab:b0:e3:d6:95:79:04:
                    d5:f5:91:46:30:67:98:db:2f:65:d8:e2:01:a2:3d:
                    f0:c4:0a:a9:7a:32:a6:5a:e6:9e:80:5c:01:e2:85:
                    eb:50:62:e0:54:29:02:91:c5:0d:80:83:1e:88:6b:
                    77:da:69:6d:67:74:3d:7f:3b:f4:aa:e4:68:10:80:
                    8d:6e:b9:d7:2b:1b:0e:68:eb:45:81:b1:fe:02:f3:
                    ef:aa:a1:c1:66:74:a4:8f:92:a9:f0:bb:b5:ac:bf:
                    e7:89:dc:a4:e2:f5:8e:8a:67:9a:aa:68:09:4b:2d:
                    d6:ee:6d:6f:33:e3:9c:ba:fa:1a:9b:d1:21:05:97:
                    9f:f6:f2:b8:c9:03:d1:2a:22:11:e0:c9:bc:0f:53:
                    dc:1b:96:74:29:19:d5:11:33:c9:9f:ac:43:fb:83:
                    34:ca:72:8c:5f:b5:03:e8:40:cd:8b:27:a7:28:75:
                    5d:43:1b:11:f0:07:cf:6b:71:9e:64:53:41:ac:68:
                    4f:cf:f7:99:91:91:d3:92:9e:0a:2d:91:8c:33:7d:
                    47:e1:90:a0:ef:c4:5e:be:23:72:d2:dc:61:18:25:
                    40:54:91:e3:24:1e:2a:b1:fb:20:46:e5:51:7d:2b:
                    0f:54:75:0d:b5:41:48:70:85:b4:d8:81:bc:e5:18:
                    b2:3a:9f
                Exponent: 65537 (0x10001)
        X509v3 extensions:
            X509v3 Basic Constraints: 
                CA:FALSE
            Netscape Comment: 
                Easy-RSA Generated Certificate
            X509v3 Subject Key Identifier: 
                33:8A:84:7E:56:E4:E7:91:DB:50:EA:66:2C:2A:60:76:6E:1A:B5:1C
            X509v3 Authority Key Identifier: 
                keyid:12:CD:60:04:D2:A0:80:9E:70:ED:C6:99:B8:7B:2C:C6:52:FD:19:A1
                DirName:/C=US/ST=OH/L=Columbus/O=VikingVPN/OU=MyOrganizationalUnit/CN=VikingVPN CA/name=EasyRSA/emailAddress=me@myhost.mydomain
                serial:CF:35:85:EE:80:BF:2A:3E

            X509v3 Extended Key Usage: 
                TLS Web Client Authentication
            X509v3 Key Usage: 
                Digital Signature
    Signature Algorithm: md5WithRSAEncryption
         5a:f1:5f:4f:8c:09:8b:8e:29:da:eb:75:2b:ce:5f:14:22:41:
         cc:80:97:98:77:02:99:44:87:15:ec:68:88:13:db:dd:b2:c9:
         b0:6f:1c:45:ca:ff:fa:51:c5:d4:0e:cb:09:53:d5:77:92:d5:
         37:c8:64:6e:35:43:61:df:6b:9f:64:64:ab:8f:ad:1f:46:7b:
         c4:28:2f:bd:6b:62:0e:d8:f7:43:1f:fe:12:92:5f:30:7a:44:
         1d:d1:4a:dd:1e:ec:17:6e:89:7a:d9:88:68:13:ae:cd:46:66:
         54:e7:c3:b2:2b:aa:26:20:9d:8e:b3:cc:90:cf:48:c8:1e:ae:
         f9:a4:74:45:9a:7d:0c:42:b5:ac:a1:a6:26:fa:ca:04:f7:be:
         63:6e:99:60:6f:ff:d9:45:3f:3f:71:9f:87:36:a9:f7:67:b6:
         b6:ac:fd:0f:fc:d1:30:3e:40:bb:79:ab:6a:50:7b:0d:0c:b6:
         a4:7d:a6:3b:7d:44:3f:68:ad:5f:27:15:d8:b8:8e:b6:81:ff:
         ac:97:b6:48:11:74:a9:3f:27:5e:7b:fe:2c:9a:cd:b4:b2:99:
         8b:d8:d3:70:50:70:f5:32:38:1f:14:bc:6a:5a:c8:4d:6e:63:
         d6:dd:9d:7e:8a:f6:48:2f:ea:6f:85:80:54:56:75:eb:b6:10:
         37:a1:3d:c8:d5:2e:fd:3b:6a:87:1d:b5:fe:79:0c:fc:76:fa:
         5c:d9:85:5d:ce:4a:7c:cc:7e:06:f0:5b:67:09:64:9f:13:16:
         54:16:7f:d2:22:84:5f:b4:7a:cf:d8:e5:57:d9:67:c1:51:7f:
         c1:09:da:09:a8:84:5b:27:b3:d9:e8:a2:c9:4b:22:57:47:b9:
         22:85:82:62:ec:58:a0:d6:cc:98:3e:35:9e:62:bb:fa:57:5e:
         22:db:e3:ba:cd:02:66:23:b1:6a:af:48:8b:54:31:fe:5f:e9:
         a0:d0:e7:ce:ae:ab:83:63:23:b5:32:64:57:48:48:ec:fc:1c:
         b7:9e:7a:5f:73:3d:60:5e:ef:bf:39:ff:cf:de:ec:08:56:16:
         8e:c4:88:e3:39:f6:4d:34:00:82:91:e7:bf:df:33:54:b5:1a:
         7a:9b:ff:ae:bf:f7:38:e4:c1:9d:eb:21:78:a5:86:e7:f4:ec:
         2a:96:5e:42:76:42:f4:69:2e:d2:24:ec:a1:b6:45:15:22:e1:
         e3:40:dd:ba:0b:fe:59:70:ce:85:44:a7:d2:46:ab:91:82:1d:
         e9:e5:83:77:f9:40:4a:30:58:04:25:54:ee:43:21:2b:7a:a5:
         c9:59:47:70:f3:62:f1:4c:bf:2f:e2:c2:4a:85:59:20:7f:1d:
         00:52:96:5a:28:43:28:1a
-----BEGIN CERTIFICATE-----
MIIGrDCCBJSgAwIBAgICHT8wDQYJKoZIhvcNAQEEBQAwgawxCzAJBgNVBAYTAlVT
MQswCQYDVQQIEwJPSDERMA8GA1UEBxMIQ29sdW1idXMxEjAQBgNVBAoTCVZpa2lu
Z1ZQTjEdMBsGA1UECxMUTXlPcmdhbml6YXRpb25hbFVuaXQxFTATBgNVBAMTDFZp
a2luZ1ZQTiBDQTEQMA4GA1UEKRMHRWFzeVJTQTEhMB8GCSqGSIb3DQEJARYSbWVA
bXlob3N0Lm15ZG9tYWluMB4XDTE2MDMxMjIwNTQzNVoXDTI2MDMxMDIwNTQzNVow
HjEcMBoGA1UEAxMTQ2xpZW50MzY4Q2VydGNhMzNiOTCCAiIwDQYJKoZIhvcNAQEB
BQADggIPADCCAgoCggIBAORYkIJds2XiAJFZks9VgyypQbXB32g+FCz7uE44m+oZ
8nfFw1jswNNq86rQYdeD3Uae8o8Y2B3GYCE/c9sSvfKp1mLIxh0KCKxrOw/BS0sC
dvTqhE+R9QA3c3XZctaJBTeFcPUWB2AIMmgaJZia5EAXGw1odhsTudaL5lartSaU
XwLljzYDKecgiPrK3Ho+QFkwVPTtBPhtbI4fMvkgYgjIQFcBvg43Q826NaRdu3mP
s+J7XBPSR330g8szYbIr5g8a9LRF5NkO5JTkPtQer8BMLoxBMMGsAldiQ/oALqDD
/lPilVI7RfYRQAy8KFpqBZMm9WebvDkBkDKlF6rqD6fGJMOEYN6rsOPWlXkE1fWR
RjBnmNsvZdjiAaI98MQKqXoyplrmnoBcAeKF61Bi4FQpApHFDYCDHohrd9ppbWd0
PX879KrkaBCAjW651ysbDmjrRYGx/gLz76qhwWZ0pI+SqfC7tay/54ncpOL1jopn
mqpoCUst1u5tbzPjnLr6GpvRIQWXn/byuMkD0SoiEeDJvA9T3BuWdCkZ1REzyZ+s
Q/uDNMpyjF+1A+hAzYsnpyh1XUMbEfAHz2txnmRTQaxoT8/3mZGR05KeCi2RjDN9
R+GQoO/EXr4jctLcYRglQFSR4yQeKrH7IEblUX0rD1R1DbVBSHCFtNiBvOUYsjqf
AgMBAAGjggFjMIIBXzAJBgNVHRMEAjAAMC0GCWCGSAGG+EIBDQQgFh5FYXN5LVJT
QSBHZW5lcmF0ZWQgQ2VydGlmaWNhdGUwHQYDVR0OBBYEFDOKhH5W5OeR21DqZiwq
YHZuGrUcMIHhBgNVHSMEgdkwgdaAFBLNYATSoICecO3Gmbh7LMZS/RmhoYGypIGv
MIGsMQswCQYDVQQGEwJVUzELMAkGA1UECBMCT0gxETAPBgNVBAcTCENvbHVtYnVz
MRIwEAYDVQQKEwlWaWtpbmdWUE4xHTAbBgNVBAsTFE15T3JnYW5pemF0aW9uYWxV
bml0MRUwEwYDVQQDEwxWaWtpbmdWUE4gQ0ExEDAOBgNVBCkTB0Vhc3lSU0ExITAf
BgkqhkiG9w0BCQEWEm1lQG15aG9zdC5teWRvbWFpboIJAM81he6Avyo+MBMGA1Ud
JQQMMAoGCCsGAQUFBwMCMAsGA1UdDwQEAwIHgDANBgkqhkiG9w0BAQQFAAOCAgEA
WvFfT4wJi44p2ut1K85fFCJBzICXmHcCmUSHFexoiBPb3bLJsG8cRcr/+lHF1A7L
CVPVd5LVN8hkbjVDYd9rn2Rkq4+tH0Z7xCgvvWtiDtj3Qx/+EpJfMHpEHdFK3R7s
F26JetmIaBOuzUZmVOfDsiuqJiCdjrPMkM9IyB6u+aR0RZp9DEK1rKGmJvrKBPe+
Y26ZYG//2UU/P3Gfhzap92e2tqz9D/zRMD5Au3mralB7DQy2pH2mO31EP2itXycV
2LiOtoH/rJe2SBF0qT8nXnv+LJrNtLKZi9jTcFBw9TI4HxS8alrITW5j1t2dfor2
SC/qb4WAVFZ167YQN6E9yNUu/Ttqhx21/nkM/Hb6XNmFXc5KfMx+BvBbZwlknxMW
VBZ/0iKEX7R6z9jlV9lnwVF/wQnaCaiEWyez2eiiyUsiV0e5IoWCYuxYoNbMmD41
nmK7+ldeItvjus0CZiOxaq9Ii1Qx/l/poNDnzq6rg2MjtTJkV0hI7Pwct556X3M9
YF7vvzn/z97sCFYWjsSI4zn2TTQAgpHnv98zVLUaepv/rr/3OOTBnesheKWG5/Ts
KpZeQnZC9Gku0iTsobZFFSLh40Ddugv+WXDOhUSn0karkYId6eWDd/lASjBYBCVU
7kMhK3qlyVlHcPNi8Uy/L+LCSoVZIH8dAFKWWihDKBo=
-----END CERTIFICATE-----
