Certificate:
    Data:
        Version: 3 (0x2)
        Serial Number: 2897 (0xb51)
    Signature Algorithm: md5WithRSAEncryption
        Issuer: C=US, ST=OH, L=Columbus, O=VikingVPN, OU=MyOrganizationalUnit, CN=VikingVPN CA/name=EasyRSA/emailAddress=me@myhost.mydomain
        Validity
            Not Before: Sep 19 13:12:57 2014 GMT
            Not After : Sep 16 13:12:57 2024 GMT
        Subject: CN=Client997Cert4278f0
        Subject Public Key Info:
            Public Key Algorithm: rsaEncryption
                Public-Key: (4096 bit)
                Modulus:
                    00:e5:a2:77:88:3b:35:9c:43:5b:2b:d4:a0:a3:b3:
                    5b:53:bd:c8:57:09:85:5c:38:cf:e2:4d:57:25:68:
                    d4:a7:5c:1c:75:86:b0:d5:d1:73:63:87:ed:d6:dd:
                    5c:e5:82:c7:b2:52:69:8f:f6:91:de:bc:61:ba:18:
                    a8:6b:15:7f:c2:c9:b8:ea:f3:f1:88:72:54:5f:0e:
                    a9:5a:ec:e8:0e:dc:96:87:d2:6f:9e:4f:9c:a6:8a:
                    bf:d9:d0:61:e1:75:e3:be:03:8c:a5:58:dd:64:a6:
                    2c:29:48:f4:af:29:d5:23:7f:fe:97:0c:99:a6:49:
                    5b:95:8d:50:91:09:e6:28:53:e0:8b:88:ea:1f:f3:
                    b9:56:45:46:e6:e9:d7:e4:96:1d:0a:2c:c0:30:e1:
                    3d:4a:01:0e:44:8b:ec:a2:4a:2f:37:a4:13:fb:1b:
                    8e:3a:b1:3b:c6:1e:e8:b1:5d:0d:d2:16:c4:7c:7f:
                    b9:27:77:51:1b:1f:70:2b:ec:bb:bc:c7:93:66:97:
                    ad:1b:5b:06:8e:6b:64:59:7a:73:66:89:bb:3a:e7:
                    c8:10:74:a0:ec:89:3a:38:ef:ab:b2:2c:c6:44:56:
                    db:cb:85:fb:9d:cb:01:a7:1b:cc:ff:d9:8e:61:28:
                    7d:da:40:b5:3f:fb:f0:0a:72:30:aa:7d:00:50:ea:
                    de:5e:e6:dd:0d:55:fc:98:e2:c6:b0:d5:24:4c:1c:
                    88:ed:df:a4:90:d0:f2:8a:e5:b4:84:32:65:67:55:
                    93:2e:94:2b:ff:f1:2c:0c:bd:96:bd:92:96:2f:0a:
                    9b:75:fc:99:be:43:c5:b1:8e:05:34:a7:f7:b3:8e:
                    26:54:30:29:63:34:28:6f:b4:cc:66:b3:a7:57:d8:
                    a2:22:ae:c6:58:3c:0b:fd:81:e7:2e:00:ce:7f:fd:
                    fd:23:82:cf:b9:64:c4:85:e3:d3:ab:06:ad:51:2e:
                    37:8a:ba:49:91:55:f3:62:a4:11:43:f6:10:f5:05:
                    ca:83:45:3e:ca:60:92:32:04:9a:c4:67:81:2b:8d:
                    69:e9:f4:10:a7:0b:b2:fe:35:eb:0d:e4:94:94:4d:
                    4a:82:86:ca:64:ce:79:dd:e4:13:05:e1:48:79:50:
                    dd:49:68:65:61:ca:44:2a:d2:fd:95:e6:5b:62:9e:
                    eb:71:c3:3c:3b:f3:97:b0:b6:4e:68:43:8f:d3:d8:
                    b9:65:de:94:65:c0:f2:b2:ca:ef:92:5e:64:14:3c:
                    c8:5a:4b:89:ab:e9:9b:3a:ab:e0:47:62:9b:f0:0c:
                    c1:2b:18:78:b2:e7:60:1c:75:ae:71:50:09:c4:f2:
                    73:cf:fe:57:8a:b3:59:f0:96:98:be:9b:84:72:94:
                    7a:f9:19
                Exponent: 65537 (0x10001)
        X509v3 extensions:
            X509v3 Basic Constraints: 
                CA:FALSE
            Netscape Comment: 
                Easy-RSA Generated Certificate
            X509v3 Subject Key Identifier: 
                DF:D9:75:3B:D4:37:14:95:69:B0:8E:A2:4F:6D:EB:9F:CB:73:B4:36
            X509v3 Authority Key Identifier: 
                keyid:12:CD:60:04:D2:A0:80:9E:70:ED:C6:99:B8:7B:2C:C6:52:FD:19:A1
                DirName:/C=US/ST=OH/L=Columbus/O=VikingVPN/OU=MyOrganizationalUnit/CN=VikingVPN CA/name=EasyRSA/emailAddress=me@myhost.mydomain
                serial:CF:35:85:EE:80:BF:2A:3E

            X509v3 Extended Key Usage: 
                TLS Web Client Authentication
            X509v3 Key Usage: 
                Digital Signature
    Signature Algorithm: md5WithRSAEncryption
         b6:d3:4a:1d:fe:19:89:b1:f8:7f:40:6e:03:58:98:ba:17:37:
         b0:ca:1a:58:29:e0:35:0a:ae:5a:9b:9d:3b:ed:43:e2:1f:3a:
         67:f4:d3:1d:02:c4:d1:df:aa:09:c6:e9:4c:00:cb:9e:ab:24:
         09:4c:4b:5b:ad:2b:1d:f8:0a:96:1b:1e:c0:6e:4a:a1:74:64:
         bf:8a:5d:06:cd:c5:cc:89:b9:dc:d0:b7:aa:02:2b:c3:ad:10:
         63:d4:e1:8a:53:2b:aa:bf:84:21:a2:61:f4:6b:56:5c:9f:68:
         59:3a:59:f8:2e:3c:52:4f:ce:e4:a4:ac:2b:dc:40:53:55:fc:
         33:57:d9:61:39:d6:c0:ce:bd:e8:96:d0:f9:a5:c8:57:a5:f2:
         ae:59:0c:2d:ec:d0:80:c6:c7:71:9b:0d:21:6a:78:49:b4:6e:
         20:da:17:0f:86:b9:ba:32:10:44:ef:16:2b:7d:0a:3c:64:c0:
         9c:0c:0e:9e:cb:eb:50:ee:51:de:74:ec:1e:c7:cf:8c:7d:eb:
         8f:72:40:fc:d1:8c:20:f4:7c:6e:95:0e:b0:ca:71:06:55:64:
         c2:b4:d4:5e:59:63:0c:89:00:f8:f8:a0:22:9c:50:b7:f8:6b:
         65:32:df:14:64:7f:8e:67:2a:20:d7:db:82:33:63:a1:16:33:
         c2:d6:61:f0:9e:39:b7:6a:81:fc:89:28:96:4b:50:58:9a:3d:
         6a:95:ee:6c:bb:b3:74:a6:f0:12:e3:04:49:f5:93:ce:b4:e5:
         14:0e:d2:a4:1a:51:7c:73:4a:15:27:b7:14:5c:34:6d:5d:cf:
         87:fd:70:b1:7f:b3:1a:37:67:d4:58:86:07:f5:33:92:d2:a7:
         18:43:95:f6:da:f3:15:e1:34:e0:da:9f:ba:da:f9:e3:5a:f6:
         75:4f:a6:10:83:77:f8:3f:8a:97:ac:04:4f:92:15:a6:cf:9c:
         07:b6:01:4a:46:cf:68:fa:32:21:dd:52:03:0b:b9:d1:e3:55:
         e8:bf:aa:18:c8:a1:5a:ac:2c:7d:d7:8a:ba:46:bf:a8:67:40:
         bd:61:33:81:d3:2b:f6:bb:ba:67:fa:fd:f4:de:8a:d6:1a:b6:
         e8:44:8b:45:93:63:ea:b9:17:e7:94:9c:60:05:2e:a3:e5:64:
         2a:d7:79:60:25:b8:46:a8:3d:e7:19:ac:b4:07:6a:25:30:23:
         8a:ec:f2:21:45:78:f5:5a:78:59:d7:69:4f:b9:fc:dc:e3:6a:
         d3:e7:7a:10:15:ed:d6:eb:70:68:66:fe:80:a3:4b:4e:67:65:
         45:08:22:21:0e:fd:c8:d7:cd:a4:bb:fe:7a:d3:18:f5:ad:4d:
         22:01:da:61:88:af:ea:02
-----BEGIN CERTIFICATE-----
MIIGrDCCBJSgAwIBAgICC1EwDQYJKoZIhvcNAQEEBQAwgawxCzAJBgNVBAYTAlVT
MQswCQYDVQQIEwJPSDERMA8GA1UEBxMIQ29sdW1idXMxEjAQBgNVBAoTCVZpa2lu
Z1ZQTjEdMBsGA1UECxMUTXlPcmdhbml6YXRpb25hbFVuaXQxFTATBgNVBAMTDFZp
a2luZ1ZQTiBDQTEQMA4GA1UEKRMHRWFzeVJTQTEhMB8GCSqGSIb3DQEJARYSbWVA
bXlob3N0Lm15ZG9tYWluMB4XDTE0MDkxOTEzMTI1N1oXDTI0MDkxNjEzMTI1N1ow
HjEcMBoGA1UEAxMTQ2xpZW50OTk3Q2VydDQyNzhmMDCCAiIwDQYJKoZIhvcNAQEB
BQADggIPADCCAgoCggIBAOWid4g7NZxDWyvUoKOzW1O9yFcJhVw4z+JNVyVo1Kdc
HHWGsNXRc2OH7dbdXOWCx7JSaY/2kd68YboYqGsVf8LJuOrz8YhyVF8OqVrs6A7c
lofSb55PnKaKv9nQYeF1474DjKVY3WSmLClI9K8p1SN//pcMmaZJW5WNUJEJ5ihT
4IuI6h/zuVZFRubp1+SWHQoswDDhPUoBDkSL7KJKLzekE/sbjjqxO8Ye6LFdDdIW
xHx/uSd3URsfcCvsu7zHk2aXrRtbBo5rZFl6c2aJuzrnyBB0oOyJOjjvq7IsxkRW
28uF+53LAacbzP/ZjmEofdpAtT/78ApyMKp9AFDq3l7m3Q1V/JjixrDVJEwciO3f
pJDQ8orltIQyZWdVky6UK//xLAy9lr2Sli8Km3X8mb5DxbGOBTSn97OOJlQwKWM0
KG+0zGazp1fYoiKuxlg8C/2B5y4Azn/9/SOCz7lkxIXj06sGrVEuN4q6SZFV82Kk
EUP2EPUFyoNFPspgkjIEmsRngSuNaen0EKcLsv416w3klJRNSoKGymTOed3kEwXh
SHlQ3UloZWHKRCrS/ZXmW2Ke63HDPDvzl7C2TmhDj9PYuWXelGXA8rLK75JeZBQ8
yFpLiavpmzqr4Edim/AMwSsYeLLnYBx1rnFQCcTyc8/+V4qzWfCWmL6bhHKUevkZ
AgMBAAGjggFjMIIBXzAJBgNVHRMEAjAAMC0GCWCGSAGG+EIBDQQgFh5FYXN5LVJT
QSBHZW5lcmF0ZWQgQ2VydGlmaWNhdGUwHQYDVR0OBBYEFN/ZdTvUNxSVabCOok9t
65/Lc7Q2MIHhBgNVHSMEgdkwgdaAFBLNYATSoICecO3Gmbh7LMZS/RmhoYGypIGv
MIGsMQswCQYDVQQGEwJVUzELMAkGA1UECBMCT0gxETAPBgNVBAcTCENvbHVtYnVz
MRIwEAYDVQQKEwlWaWtpbmdWUE4xHTAbBgNVBAsTFE15T3JnYW5pemF0aW9uYWxV
bml0MRUwEwYDVQQDEwxWaWtpbmdWUE4gQ0ExEDAOBgNVBCkTB0Vhc3lSU0ExITAf
BgkqhkiG9w0BCQEWEm1lQG15aG9zdC5teWRvbWFpboIJAM81he6Avyo+MBMGA1Ud
JQQMMAoGCCsGAQUFBwMCMAsGA1UdDwQEAwIHgDANBgkqhkiG9w0BAQQFAAOCAgEA
ttNKHf4ZibH4f0BuA1iYuhc3sMoaWCngNQquWpudO+1D4h86Z/TTHQLE0d+qCcbp
TADLnqskCUxLW60rHfgKlhsewG5KoXRkv4pdBs3FzIm53NC3qgIrw60QY9ThilMr
qr+EIaJh9GtWXJ9oWTpZ+C48Uk/O5KSsK9xAU1X8M1fZYTnWwM696JbQ+aXIV6Xy
rlkMLezQgMbHcZsNIWp4SbRuINoXD4a5ujIQRO8WK30KPGTAnAwOnsvrUO5R3nTs
HsfPjH3rj3JA/NGMIPR8bpUOsMpxBlVkwrTUXlljDIkA+PigIpxQt/hrZTLfFGR/
jmcqINfbgjNjoRYzwtZh8J45t2qB/IkolktQWJo9apXubLuzdKbwEuMESfWTzrTl
FA7SpBpRfHNKFSe3FFw0bV3Ph/1wsX+zGjdn1FiGB/UzktKnGEOV9trzFeE04Nqf
utr541r2dU+mEIN3+D+Kl6wET5IVps+cB7YBSkbPaPoyId1SAwu50eNV6L+qGMih
WqwsfdeKuka/qGdAvWEzgdMr9ru6Z/r99N6K1hq26ESLRZNj6rkX55ScYAUuo+Vk
Ktd5YCW4Rqg95xmstAdqJTAjiuzyIUV49Vp4WddpT7n83ONq0+d6EBXt1utwaGb+
gKNLTmdlRQgiIQ79yNfNpLv+etMY9a1NIgHaYYiv6gI=
-----END CERTIFICATE-----
