Certificate:
    Data:
        Version: 3 (0x2)
        Serial Number: 3147 (0xc4b)
    Signature Algorithm: md5WithRSAEncryption
        Issuer: C=US, ST=OH, L=Columbus, O=VikingVPN, OU=MyOrganizationalUnit, CN=VikingVPN CA/name=EasyRSA/emailAddress=me@myhost.mydomain
        Validity
            Not Before: Oct 17 23:49:28 2014 GMT
            Not After : Oct 14 23:49:28 2024 GMT
        Subject: CN=Client1083Cert704494
        Subject Public Key Info:
            Public Key Algorithm: rsaEncryption
                Public-Key: (4096 bit)
                Modulus:
                    00:dd:91:f5:60:18:0b:27:a8:f9:4a:b9:ac:d4:b2:
                    11:c8:14:56:b3:a3:9b:8d:34:f7:e1:0f:f3:b3:49:
                    e8:33:d5:ae:a0:c5:38:ef:7d:ba:99:f5:08:7c:c6:
                    ef:5e:52:ae:47:6e:45:7f:00:69:3a:48:ec:38:f1:
                    75:19:fb:99:d1:09:30:5f:20:a6:ac:89:21:1a:c0:
                    00:96:47:10:24:e8:81:52:40:5b:ed:90:d5:6e:b6:
                    0c:35:67:50:eb:c4:35:1f:6a:d6:b1:f1:9e:7e:71:
                    41:18:f5:57:f0:21:91:5c:27:39:4d:07:33:8d:5d:
                    6d:e5:5d:39:81:55:1b:98:6d:8b:27:3e:57:1b:f3:
                    cc:06:13:3a:af:d9:13:20:50:b8:c1:74:8c:14:73:
                    ab:04:77:e2:69:5a:87:07:85:ac:42:bd:0c:be:17:
                    81:69:99:fc:09:c7:ba:76:d9:3b:24:38:98:1a:7e:
                    77:31:d7:a7:f5:63:7d:f7:4a:c7:0a:3b:1f:d0:83:
                    21:ca:1d:aa:9f:99:35:14:a9:70:9d:ee:f9:48:21:
                    ca:ee:c7:d7:34:76:94:9e:b5:c6:28:72:26:ae:f6:
                    f8:85:8b:d2:f7:88:f6:aa:fa:d6:58:3e:65:fc:85:
                    f0:8d:45:19:81:72:fe:38:22:29:13:c1:36:f6:3b:
                    ba:26:4e:8e:8e:a9:d3:6c:30:80:f0:11:3e:85:27:
                    16:f2:57:1f:77:64:21:87:05:0b:6f:56:b1:30:cc:
                    b6:b0:d6:48:c8:31:dc:0e:82:30:f5:aa:87:4a:52:
                    17:f9:ac:47:ca:42:95:9b:a6:2d:3c:2e:0c:0d:cf:
                    4a:f3:28:93:75:b5:cd:97:b9:5f:88:5a:c6:8e:4e:
                    e2:65:89:13:44:6d:4f:be:e9:42:e5:2f:b9:70:97:
                    02:82:74:f2:93:73:84:d6:b0:5f:af:b9:31:46:29:
                    85:d4:e3:f6:8c:2d:f6:14:07:d6:31:af:36:64:a9:
                    cf:70:62:06:c8:9a:7f:61:5d:8f:ee:4b:88:ad:1f:
                    6a:99:2c:fe:ef:6f:d7:b6:9a:f9:5b:38:eb:6f:06:
                    f9:d0:29:1f:4a:48:d0:5f:f2:1c:08:13:79:17:c2:
                    21:94:5f:47:81:4f:ba:0b:6e:05:3a:27:47:33:a3:
                    25:7d:67:0d:65:80:21:d5:4c:3d:51:66:ef:12:05:
                    bf:23:0a:c5:6a:37:a3:4f:5d:7f:3d:e4:61:47:fa:
                    42:e6:a0:bd:0c:fa:bb:08:3e:37:ff:11:30:33:ea:
                    90:fc:3c:96:89:09:e8:e3:7e:5f:b2:08:ec:e6:9c:
                    21:e3:a5:9e:de:f4:03:40:01:60:15:b5:3e:ea:62:
                    55:31:3f
                Exponent: 65537 (0x10001)
        X509v3 extensions:
            X509v3 Basic Constraints: 
                CA:FALSE
            Netscape Comment: 
                Easy-RSA Generated Certificate
            X509v3 Subject Key Identifier: 
                6F:CF:98:F1:55:55:0B:07:72:11:81:06:54:FE:77:7B:70:02:7A:E6
            X509v3 Authority Key Identifier: 
                keyid:12:CD:60:04:D2:A0:80:9E:70:ED:C6:99:B8:7B:2C:C6:52:FD:19:A1
                DirName:/C=US/ST=OH/L=Columbus/O=VikingVPN/OU=MyOrganizationalUnit/CN=VikingVPN CA/name=EasyRSA/emailAddress=me@myhost.mydomain
                serial:CF:35:85:EE:80:BF:2A:3E

            X509v3 Extended Key Usage: 
                TLS Web Client Authentication
            X509v3 Key Usage: 
                Digital Signature
    Signature Algorithm: md5WithRSAEncryption
         6f:e6:74:6f:56:d0:1d:a6:fc:0a:6f:5b:b7:fc:17:1a:43:5e:
         f6:fa:a1:3c:60:ab:6c:a8:7c:cf:ab:1a:ab:0d:bf:62:26:d9:
         62:35:c2:c8:c6:b2:c8:8a:cd:1e:1c:88:01:c6:69:83:18:e7:
         9e:dd:85:86:8b:01:90:73:9b:a5:50:15:a4:31:0c:26:ad:f2:
         c0:f8:9d:8c:0e:d1:fd:ba:51:e1:f5:43:7e:bb:95:fe:8a:04:
         66:af:75:d3:9c:ed:e4:23:0f:9a:82:5a:3e:5b:78:67:8f:b6:
         57:d7:3d:5e:66:2a:ad:eb:80:fd:a6:57:31:01:09:fc:73:45:
         a3:6b:45:86:a1:36:2e:f9:f6:48:44:6a:3e:00:b8:fb:b6:dc:
         64:60:22:27:68:a7:08:08:8e:1b:5b:04:eb:99:07:68:38:13:
         48:6b:d2:ea:f5:bb:e2:2c:a7:80:2c:21:88:25:71:77:37:28:
         42:2f:ad:50:3f:7d:2f:36:cf:be:2c:41:45:bf:2b:c5:93:c9:
         45:94:50:d2:a1:0f:19:f5:88:95:55:3f:57:af:fb:0d:35:b7:
         52:94:e3:64:52:97:67:ed:db:41:00:a7:f7:9c:70:2e:bf:79:
         51:f4:20:c5:b1:3e:9a:6e:5a:0e:21:66:5f:f5:49:82:79:69:
         3b:44:b5:71:e3:c8:2b:bf:dd:c9:51:f3:84:81:3d:51:a1:00:
         a8:fb:3a:6d:84:98:70:f3:e9:d9:60:5f:bf:4e:12:a5:a0:f4:
         13:bb:e1:ff:46:d6:17:6b:db:af:86:98:c8:a2:b0:f1:36:e7:
         99:09:24:0f:b6:01:b3:f9:1d:08:2c:68:b6:52:ab:3e:b5:ed:
         5b:9f:18:f0:1f:f9:47:0b:ba:7a:d9:84:08:8f:61:43:41:e1:
         d0:92:1f:f5:f2:3d:ed:ab:53:e0:cf:26:26:96:d6:1b:f7:ce:
         8c:10:e2:eb:a1:f3:ad:34:91:d9:cc:36:19:3d:b0:d0:41:56:
         01:7a:41:b5:b5:5a:26:c5:af:6e:f4:34:d4:6c:1f:4d:e8:7b:
         68:b2:3f:78:ea:ef:b4:5e:7f:cc:9e:58:c9:51:3b:91:bb:f3:
         23:c4:ed:97:be:0f:86:03:e1:02:94:2e:2e:09:2b:df:0f:12:
         60:a0:59:e5:d1:67:38:d0:03:d6:37:d1:52:fc:55:e5:09:c5:
         40:9c:d1:91:49:92:b5:ee:8a:b0:86:75:94:90:c3:ff:5a:db:
         91:06:b9:84:62:6e:e5:a0:39:0c:8d:5c:56:8c:64:ec:c0:21:
         53:60:f3:c2:07:99:e1:14:69:a5:83:a3:15:aa:f6:b9:ab:18:
         a0:75:51:38:82:94:c9:b7
-----BEGIN CERTIFICATE-----
MIIGrTCCBJWgAwIBAgICDEswDQYJKoZIhvcNAQEEBQAwgawxCzAJBgNVBAYTAlVT
MQswCQYDVQQIEwJPSDERMA8GA1UEBxMIQ29sdW1idXMxEjAQBgNVBAoTCVZpa2lu
Z1ZQTjEdMBsGA1UECxMUTXlPcmdhbml6YXRpb25hbFVuaXQxFTATBgNVBAMTDFZp
a2luZ1ZQTiBDQTEQMA4GA1UEKRMHRWFzeVJTQTEhMB8GCSqGSIb3DQEJARYSbWVA
bXlob3N0Lm15ZG9tYWluMB4XDTE0MTAxNzIzNDkyOFoXDTI0MTAxNDIzNDkyOFow
HzEdMBsGA1UEAxMUQ2xpZW50MTA4M0NlcnQ3MDQ0OTQwggIiMA0GCSqGSIb3DQEB
AQUAA4ICDwAwggIKAoICAQDdkfVgGAsnqPlKuazUshHIFFazo5uNNPfhD/OzSegz
1a6gxTjvfbqZ9Qh8xu9eUq5HbkV/AGk6SOw48XUZ+5nRCTBfIKasiSEawACWRxAk
6IFSQFvtkNVutgw1Z1DrxDUfatax8Z5+cUEY9VfwIZFcJzlNBzONXW3lXTmBVRuY
bYsnPlcb88wGEzqv2RMgULjBdIwUc6sEd+JpWocHhaxCvQy+F4FpmfwJx7p22Tsk
OJgafncx16f1Y333SscKOx/QgyHKHaqfmTUUqXCd7vlIIcrux9c0dpSetcYociau
9viFi9L3iPaq+tZYPmX8hfCNRRmBcv44IikTwTb2O7omTo6OqdNsMIDwET6FJxby
Vx93ZCGHBQtvVrEwzLaw1kjIMdwOgjD1qodKUhf5rEfKQpWbpi08LgwNz0rzKJN1
tc2XuV+IWsaOTuJliRNEbU++6ULlL7lwlwKCdPKTc4TWsF+vuTFGKYXU4/aMLfYU
B9YxrzZkqc9wYgbImn9hXY/uS4itH2qZLP7vb9e2mvlbOOtvBvnQKR9KSNBf8hwI
E3kXwiGUX0eBT7oLbgU6J0czoyV9Zw1lgCHVTD1RZu8SBb8jCsVqN6NPXX895GFH
+kLmoL0M+rsIPjf/ETAz6pD8PJaJCejjfl+yCOzmnCHjpZ7e9ANAAWAVtT7qYlUx
PwIDAQABo4IBYzCCAV8wCQYDVR0TBAIwADAtBglghkgBhvhCAQ0EIBYeRWFzeS1S
U0EgR2VuZXJhdGVkIENlcnRpZmljYXRlMB0GA1UdDgQWBBRvz5jxVVULB3IRgQZU
/nd7cAJ65jCB4QYDVR0jBIHZMIHWgBQSzWAE0qCAnnDtxpm4eyzGUv0ZoaGBsqSB
rzCBrDELMAkGA1UEBhMCVVMxCzAJBgNVBAgTAk9IMREwDwYDVQQHEwhDb2x1bWJ1
czESMBAGA1UEChMJVmlraW5nVlBOMR0wGwYDVQQLExRNeU9yZ2FuaXphdGlvbmFs
VW5pdDEVMBMGA1UEAxMMVmlraW5nVlBOIENBMRAwDgYDVQQpEwdFYXN5UlNBMSEw
HwYJKoZIhvcNAQkBFhJtZUBteWhvc3QubXlkb21haW6CCQDPNYXugL8qPjATBgNV
HSUEDDAKBggrBgEFBQcDAjALBgNVHQ8EBAMCB4AwDQYJKoZIhvcNAQEEBQADggIB
AG/mdG9W0B2m/ApvW7f8FxpDXvb6oTxgq2yofM+rGqsNv2Im2WI1wsjGssiKzR4c
iAHGaYMY557dhYaLAZBzm6VQFaQxDCat8sD4nYwO0f26UeH1Q367lf6KBGavddOc
7eQjD5qCWj5beGePtlfXPV5mKq3rgP2mVzEBCfxzRaNrRYahNi759khEaj4AuPu2
3GRgIidopwgIjhtbBOuZB2g4E0hr0ur1u+Isp4AsIYglcXc3KEIvrVA/fS82z74s
QUW/K8WTyUWUUNKhDxn1iJVVP1ev+w01t1KU42RSl2ft20EAp/eccC6/eVH0IMWx
PppuWg4hZl/1SYJ5aTtEtXHjyCu/3clR84SBPVGhAKj7Om2EmHDz6dlgX79OEqWg
9BO74f9G1hdr26+GmMiisPE255kJJA+2AbP5HQgsaLZSqz617VufGPAf+UcLunrZ
hAiPYUNB4dCSH/XyPe2rU+DPJiaW1hv3zowQ4uuh8600kdnMNhk9sNBBVgF6QbW1
WibFr270NNRsH03oe2iyP3jq77Ref8yeWMlRO5G78yPE7Ze+D4YD4QKULi4JK98P
EmCgWeXRZzjQA9Y30VL8VeUJxUCc0ZFJkrXuirCGdZSQw/9a25EGuYRibuWgOQyN
XFaMZOzAIVNg88IHmeEUaaWDoxWq9rmrGKB1UTiClMm3
-----END CERTIFICATE-----
