Certificate:
    Data:
        Version: 3 (0x2)
        Serial Number: 3316 (0xcf4)
    Signature Algorithm: md5WithRSAEncryption
        Issuer: C=US, ST=OH, L=Columbus, O=VikingVPN, OU=MyOrganizationalUnit, CN=VikingVPN CA/name=EasyRSA/emailAddress=me@myhost.mydomain
        Validity
            Not Before: Nov  9 13:29:43 2014 GMT
            Not After : Nov  6 13:29:43 2024 GMT
        Subject: CN=Client1123Cert4578c3
        Subject Public Key Info:
            Public Key Algorithm: rsaEncryption
                Public-Key: (4096 bit)
                Modulus:
                    00:a8:3d:e1:45:e6:6b:5f:f4:db:77:46:9e:83:5d:
                    ca:37:8a:67:10:07:41:48:a1:df:3b:af:8a:04:f4:
                    8d:1b:42:8b:d7:de:9f:80:45:22:c1:91:96:0f:8d:
                    22:17:d6:b3:2f:9c:55:e0:1c:8c:3a:52:66:56:fe:
                    27:4e:c8:cb:04:b5:88:7a:60:6f:d9:91:f1:29:e5:
                    fc:d5:f1:d5:d8:17:7d:8d:e3:64:b3:46:45:79:1e:
                    9a:1c:63:6a:a7:ee:16:a9:4d:4b:2f:4a:d8:d7:93:
                    38:fb:47:39:ba:22:cb:cb:af:31:e4:56:52:a3:83:
                    23:dc:d8:7c:aa:34:73:27:23:40:9e:f2:af:d0:93:
                    5e:1a:10:9e:3e:ca:5f:03:25:d2:5b:c7:19:25:db:
                    8d:79:f1:47:29:0d:60:94:a3:0b:9f:e8:d6:cd:56:
                    11:bb:9a:88:09:d2:f7:92:66:d3:d0:a3:11:37:de:
                    d5:76:ea:f2:fa:34:ec:fe:3c:d9:d0:f2:9d:91:ae:
                    ff:43:5e:d8:98:3d:3c:f9:99:52:05:f1:2a:ea:fd:
                    71:08:15:32:5e:0c:c7:40:59:a0:e5:cb:cf:9a:30:
                    10:05:ab:82:b8:cf:32:0d:26:a3:21:0e:1f:f5:ad:
                    1f:e6:87:9c:0e:1b:c7:f6:2b:fd:51:c6:b2:5f:44:
                    4a:8a:cf:02:b8:76:4e:f7:77:9c:6b:40:4c:01:b7:
                    23:1b:f4:63:29:b8:7c:39:28:d6:77:58:ae:32:ca:
                    e8:5e:fc:ec:cc:6a:30:73:c6:f1:13:11:f5:05:6f:
                    37:13:5a:e6:12:7a:11:2e:e6:ff:0c:b8:58:2d:b1:
                    7d:90:4a:f5:5b:7d:a2:13:76:f7:c2:a6:64:6a:4b:
                    55:1b:7e:dd:d9:7c:03:56:6b:5d:9a:1e:7d:5f:47:
                    c7:83:41:25:f5:f7:83:6e:9f:21:2c:8e:c6:a4:65:
                    c9:87:a9:57:bb:62:10:4c:7c:31:74:ea:76:9e:b9:
                    d2:af:30:3b:28:65:32:97:5a:a7:c0:4b:d5:79:15:
                    2a:68:36:ff:96:e4:49:6b:b2:5b:2f:da:ca:72:ce:
                    5c:a1:d1:75:54:13:71:ec:e3:40:65:ee:61:fe:bc:
                    64:ec:50:dd:31:41:7f:7d:22:45:e4:63:c4:57:c0:
                    1a:f4:35:91:0b:25:0b:a5:70:d7:57:9c:1a:12:6c:
                    c9:0a:75:6a:b8:86:04:15:e4:6a:f4:e5:c9:f6:45:
                    74:97:a8:39:32:53:b5:d4:2f:d4:33:bd:6c:e1:b5:
                    05:d7:c9:1c:67:b2:de:73:8c:e8:63:5c:b4:5c:dd:
                    1f:47:fd:5c:7e:5f:6d:26:9e:0e:fe:fe:ac:3b:b5:
                    81:2d:eb
                Exponent: 65537 (0x10001)
        X509v3 extensions:
            X509v3 Basic Constraints: 
                CA:FALSE
            Netscape Comment: 
                Easy-RSA Generated Certificate
            X509v3 Subject Key Identifier: 
                86:5A:67:D5:AF:E7:12:02:96:5C:F3:00:DF:67:81:31:D7:6B:30:8A
            X509v3 Authority Key Identifier: 
                keyid:12:CD:60:04:D2:A0:80:9E:70:ED:C6:99:B8:7B:2C:C6:52:FD:19:A1
                DirName:/C=US/ST=OH/L=Columbus/O=VikingVPN/OU=MyOrganizationalUnit/CN=VikingVPN CA/name=EasyRSA/emailAddress=me@myhost.mydomain
                serial:CF:35:85:EE:80:BF:2A:3E

            X509v3 Extended Key Usage: 
                TLS Web Client Authentication
            X509v3 Key Usage: 
                Digital Signature
    Signature Algorithm: md5WithRSAEncryption
         51:1f:d6:1d:43:6a:9a:f9:e6:3c:bf:be:ef:39:48:58:bc:43:
         d3:c9:56:ff:b8:a4:63:cf:7d:a5:e8:a5:3a:93:f3:74:5e:6a:
         c0:69:86:e0:9f:53:d3:f1:45:58:14:f2:92:c5:2d:79:66:5f:
         7a:f9:cb:d7:64:f3:86:e3:76:47:c2:6a:72:cc:62:dc:31:9e:
         75:2a:15:12:ed:0f:ac:bc:90:76:2f:90:16:dd:d2:b7:d3:d2:
         97:d2:c6:4e:62:fc:56:ae:e7:4c:40:df:fa:32:a5:61:d4:73:
         df:b5:ca:d9:89:a3:83:7b:d5:6d:65:62:8d:85:32:e2:90:cc:
         15:d0:44:c2:fd:c8:07:c2:99:08:c6:75:ca:c5:a6:23:cb:04:
         5e:69:1f:9a:6a:86:af:8e:55:50:ab:7d:df:69:81:f4:14:fe:
         0f:e1:95:c5:38:82:46:59:45:ff:fc:19:81:56:f0:0c:fa:4b:
         11:a5:93:60:a8:7f:08:9a:f9:f7:3d:28:a2:1f:7e:78:d1:0e:
         0a:ec:c9:ee:ff:b1:d3:81:a3:d9:ea:90:80:bb:bd:dc:c4:bb:
         04:f9:b9:20:2c:a7:25:28:4e:71:b2:c4:dc:30:a8:b2:65:d7:
         66:63:95:38:ab:85:21:73:72:45:63:54:a3:d6:a1:01:29:27:
         63:dc:5f:02:d8:bb:92:84:b8:00:38:e0:d8:05:f2:d3:7b:f5:
         ee:fd:b9:75:06:ac:a6:c4:2e:c9:22:0c:7e:90:a1:4a:69:d2:
         da:08:4b:24:79:7d:a9:ec:95:b2:a4:18:94:bd:49:e2:12:43:
         d8:11:8a:2c:e7:af:4f:bb:12:91:8c:27:54:a0:a8:9c:f8:94:
         16:b6:ed:36:5c:96:84:fb:18:65:2b:fd:90:bf:3d:1b:d3:19:
         f1:0d:5a:a3:11:af:b0:37:bb:aa:3d:98:c7:13:c2:03:82:4e:
         7a:19:d5:0e:98:5a:a0:a1:7b:41:6e:81:1c:82:b0:9d:83:78:
         ea:50:45:f2:90:51:bd:fc:ad:dd:c1:c4:c6:56:a8:62:b6:73:
         92:12:66:25:bf:82:fb:36:ac:06:28:0b:53:e1:65:55:88:8b:
         85:cd:34:6a:4b:6a:d9:9b:7f:27:2d:0f:33:75:e7:1b:ae:26:
         67:78:ac:0b:0b:26:d0:11:4c:a0:45:fc:40:68:89:1f:9b:ff:
         d8:5f:b8:2f:fb:54:02:84:a5:bc:ea:e9:83:24:83:39:6b:f2:
         92:65:04:fa:07:bf:24:ba:71:f3:73:31:c9:61:21:54:91:e5:
         97:4e:63:45:b5:59:14:3e:13:65:a8:05:ea:da:e0:31:11:af:
         51:e1:dc:3b:a4:94:38:ca
-----BEGIN CERTIFICATE-----
MIIGrTCCBJWgAwIBAgICDPQwDQYJKoZIhvcNAQEEBQAwgawxCzAJBgNVBAYTAlVT
MQswCQYDVQQIEwJPSDERMA8GA1UEBxMIQ29sdW1idXMxEjAQBgNVBAoTCVZpa2lu
Z1ZQTjEdMBsGA1UECxMUTXlPcmdhbml6YXRpb25hbFVuaXQxFTATBgNVBAMTDFZp
a2luZ1ZQTiBDQTEQMA4GA1UEKRMHRWFzeVJTQTEhMB8GCSqGSIb3DQEJARYSbWVA
bXlob3N0Lm15ZG9tYWluMB4XDTE0MTEwOTEzMjk0M1oXDTI0MTEwNjEzMjk0M1ow
HzEdMBsGA1UEAxMUQ2xpZW50MTEyM0NlcnQ0NTc4YzMwggIiMA0GCSqGSIb3DQEB
AQUAA4ICDwAwggIKAoICAQCoPeFF5mtf9Nt3Rp6DXco3imcQB0FIod87r4oE9I0b
QovX3p+ARSLBkZYPjSIX1rMvnFXgHIw6UmZW/idOyMsEtYh6YG/ZkfEp5fzV8dXY
F32N42SzRkV5HpocY2qn7hapTUsvStjXkzj7Rzm6IsvLrzHkVlKjgyPc2HyqNHMn
I0Ce8q/Qk14aEJ4+yl8DJdJbxxkl24158UcpDWCUowuf6NbNVhG7mogJ0veSZtPQ
oxE33tV26vL6NOz+PNnQ8p2Rrv9DXtiYPTz5mVIF8Srq/XEIFTJeDMdAWaDly8+a
MBAFq4K4zzINJqMhDh/1rR/mh5wOG8f2K/1RxrJfREqKzwK4dk73d5xrQEwBtyMb
9GMpuHw5KNZ3WK4yyuhe/OzMajBzxvETEfUFbzcTWuYSehEu5v8MuFgtsX2QSvVb
faITdvfCpmRqS1Ubft3ZfANWa12aHn1fR8eDQSX194NunyEsjsakZcmHqVe7YhBM
fDF06naeudKvMDsoZTKXWqfAS9V5FSpoNv+W5Elrslsv2spyzlyh0XVUE3Hs40Bl
7mH+vGTsUN0xQX99IkXkY8RXwBr0NZELJQulcNdXnBoSbMkKdWq4hgQV5Gr05cn2
RXSXqDkyU7XUL9QzvWzhtQXXyRxnst5zjOhjXLRc3R9H/Vx+X20mng7+/qw7tYEt
6wIDAQABo4IBYzCCAV8wCQYDVR0TBAIwADAtBglghkgBhvhCAQ0EIBYeRWFzeS1S
U0EgR2VuZXJhdGVkIENlcnRpZmljYXRlMB0GA1UdDgQWBBSGWmfVr+cSApZc8wDf
Z4Ex12swijCB4QYDVR0jBIHZMIHWgBQSzWAE0qCAnnDtxpm4eyzGUv0ZoaGBsqSB
rzCBrDELMAkGA1UEBhMCVVMxCzAJBgNVBAgTAk9IMREwDwYDVQQHEwhDb2x1bWJ1
czESMBAGA1UEChMJVmlraW5nVlBOMR0wGwYDVQQLExRNeU9yZ2FuaXphdGlvbmFs
VW5pdDEVMBMGA1UEAxMMVmlraW5nVlBOIENBMRAwDgYDVQQpEwdFYXN5UlNBMSEw
HwYJKoZIhvcNAQkBFhJtZUBteWhvc3QubXlkb21haW6CCQDPNYXugL8qPjATBgNV
HSUEDDAKBggrBgEFBQcDAjALBgNVHQ8EBAMCB4AwDQYJKoZIhvcNAQEEBQADggIB
AFEf1h1Dapr55jy/vu85SFi8Q9PJVv+4pGPPfaXopTqT83ReasBphuCfU9PxRVgU
8pLFLXlmX3r5y9dk84bjdkfCanLMYtwxnnUqFRLtD6y8kHYvkBbd0rfT0pfSxk5i
/Fau50xA3/oypWHUc9+1ytmJo4N71W1lYo2FMuKQzBXQRML9yAfCmQjGdcrFpiPL
BF5pH5pqhq+OVVCrfd9pgfQU/g/hlcU4gkZZRf/8GYFW8Az6SxGlk2Cofwia+fc9
KKIffnjRDgrsye7/sdOBo9nqkIC7vdzEuwT5uSAspyUoTnGyxNwwqLJl12ZjlTir
hSFzckVjVKPWoQEpJ2PcXwLYu5KEuAA44NgF8tN79e79uXUGrKbELskiDH6QoUpp
0toISyR5fanslbKkGJS9SeISQ9gRiiznr0+7EpGMJ1SgqJz4lBa27TZcloT7GGUr
/ZC/PRvTGfENWqMRr7A3u6o9mMcTwgOCTnoZ1Q6YWqChe0FugRyCsJ2DeOpQRfKQ
Ub38rd3BxMZWqGK2c5ISZiW/gvs2rAYoC1PhZVWIi4XNNGpLatmbfyctDzN15xuu
Jmd4rAsLJtARTKBF/EBoiR+b/9hfuC/7VAKEpbzq6YMkgzlr8pJlBPoHvyS6cfNz
MclhIVSR5ZdOY0W1WRQ+E2WoBera4DERr1Hh3DuklDjK
-----END CERTIFICATE-----
