Certificate:
    Data:
        Version: 3 (0x2)
        Serial Number: 4524 (0x11ac)
    Signature Algorithm: md5WithRSAEncryption
        Issuer: C=US, ST=OH, L=Columbus, O=VikingVPN, OU=MyOrganizationalUnit, CN=VikingVPN CA/name=EasyRSA/emailAddress=me@myhost.mydomain
        Validity
            Not Before: Feb 20 20:03:43 2015 GMT
            Not After : Feb 17 20:03:43 2025 GMT
        Subject: CN=Client1466Certa2c258
        Subject Public Key Info:
            Public Key Algorithm: rsaEncryption
                Public-Key: (4096 bit)
                Modulus:
                    00:eb:a0:dd:c6:8b:85:08:cd:d9:bd:27:62:30:59:
                    6e:a3:7a:8b:a5:d4:65:ad:62:d1:d7:7f:01:cf:82:
                    15:a3:fd:38:71:9d:66:a1:3b:23:43:5f:92:dd:2b:
                    27:c0:88:4f:30:ac:09:42:90:0f:36:31:e6:92:b6:
                    74:0c:c5:c1:9a:c6:74:7b:ed:0e:5a:e6:b8:04:e1:
                    2d:40:7c:27:b6:4b:16:9e:42:96:ef:f1:af:4a:a3:
                    bd:4f:d3:be:d9:8b:87:7b:f5:88:c0:ce:5d:83:72:
                    13:55:60:3a:67:16:8e:77:88:ef:0a:45:f9:8c:ac:
                    26:4a:92:48:47:b1:ff:1b:96:da:4e:13:c3:b6:22:
                    de:f6:3e:8e:25:39:ef:ae:a7:34:cc:3e:9d:a9:ef:
                    b0:48:c5:30:52:4d:3c:47:6e:d6:f2:73:25:e0:73:
                    54:10:d4:75:ee:fd:be:e9:2a:ae:70:39:1e:c0:88:
                    1e:93:42:e3:66:bb:bf:40:3c:8e:0b:22:7c:07:ff:
                    2d:c1:98:27:43:52:7d:cb:6c:71:2b:d4:1e:b7:0e:
                    bd:b1:14:b3:65:fa:16:ba:c8:7f:dc:4c:2c:0a:a2:
                    3c:2f:c2:c8:e0:f9:8d:a6:18:f0:2b:1d:b0:44:c7:
                    5e:6c:ea:32:de:51:6f:47:7a:62:f2:fe:ac:90:68:
                    7d:f9:5c:ee:d3:4b:cf:5c:c5:84:d4:36:55:2c:62:
                    14:12:6a:33:6c:0c:b9:a2:b6:1b:3c:df:f8:14:87:
                    04:96:b5:c2:87:56:71:f9:8c:4e:e4:1f:19:d0:c3:
                    7e:5c:2d:78:df:84:96:02:26:7e:68:d2:a6:bf:52:
                    03:b6:12:1f:85:20:b7:ea:58:6b:95:3e:15:00:de:
                    03:e4:f6:f8:bc:20:a6:60:5c:fa:62:8a:3a:20:6b:
                    9f:b8:73:4e:9c:f2:99:68:a7:19:80:52:ae:f2:03:
                    7c:7b:f8:f6:d2:57:9f:e7:84:29:1e:9a:ee:03:5c:
                    ce:10:8a:6a:60:0c:fa:73:a6:f5:df:d3:5c:96:fc:
                    9b:cd:36:75:3e:c1:49:e0:08:38:d8:fb:6f:56:6f:
                    98:0e:4e:a4:ce:61:b2:99:a3:e8:0c:55:cd:23:9a:
                    5d:af:7a:0e:cc:66:a5:3a:48:c9:e0:90:29:ed:0a:
                    92:0d:53:17:d3:e0:e4:49:41:61:7f:21:a6:87:31:
                    5d:c0:49:c5:f5:02:b9:07:3d:2e:8a:b3:f2:44:32:
                    32:c8:a3:fb:ec:59:fb:98:d7:ad:9b:aa:ea:44:f6:
                    69:3f:01:8e:5f:ee:16:b0:b3:11:ac:42:3a:e1:ef:
                    e6:76:4e:49:dc:39:9f:49:6a:cc:02:cd:5f:85:00:
                    d4:c7:0d
                Exponent: 65537 (0x10001)
        X509v3 extensions:
            X509v3 Basic Constraints: 
                CA:FALSE
            Netscape Comment: 
                Easy-RSA Generated Certificate
            X509v3 Subject Key Identifier: 
                79:C9:EC:3E:E7:E9:79:27:57:C8:EC:C0:B9:27:3A:AE:64:17:80:05
            X509v3 Authority Key Identifier: 
                keyid:12:CD:60:04:D2:A0:80:9E:70:ED:C6:99:B8:7B:2C:C6:52:FD:19:A1
                DirName:/C=US/ST=OH/L=Columbus/O=VikingVPN/OU=MyOrganizationalUnit/CN=VikingVPN CA/name=EasyRSA/emailAddress=me@myhost.mydomain
                serial:CF:35:85:EE:80:BF:2A:3E

            X509v3 Extended Key Usage: 
                TLS Web Client Authentication
            X509v3 Key Usage: 
                Digital Signature
    Signature Algorithm: md5WithRSAEncryption
         da:46:42:66:88:23:d2:ad:63:b3:d9:9e:0c:ce:ce:c5:bb:48:
         03:9c:99:cd:a2:12:9e:a7:04:2c:74:5f:58:c8:35:b5:6a:92:
         f6:2a:06:09:1e:37:71:75:b6:d8:af:05:cd:04:13:1c:3f:98:
         5a:07:3f:0a:e3:26:c2:5d:5a:ed:45:ac:7b:ca:a2:de:3b:74:
         29:6c:e0:e0:0f:17:c4:ff:53:e1:e1:7e:72:e7:ec:bb:13:c1:
         9b:3d:ab:30:9a:9c:88:e2:b7:28:fd:a9:0f:30:c9:8f:5c:07:
         c5:78:9c:02:b0:33:ee:a2:53:38:3f:10:1a:0e:e0:4b:42:fd:
         0c:59:fd:ec:5e:3f:3d:49:16:16:bd:27:96:91:1e:e7:21:dd:
         96:70:e2:58:1b:7c:a9:45:b6:9d:96:9f:b3:ae:89:32:60:02:
         df:b9:12:be:55:43:3c:7b:ad:b8:88:bd:6a:c5:0a:2a:0d:06:
         99:b3:fb:58:43:af:5f:10:99:1f:94:2e:da:92:17:30:3a:f6:
         2d:9f:11:66:fc:5a:f9:fa:f3:f4:62:04:d5:f0:d0:ef:3b:d4:
         ee:ba:42:9e:ec:56:8e:19:af:58:c4:41:2c:a1:ec:73:14:63:
         8f:d9:12:1f:68:a8:bb:0d:b8:0e:70:77:76:70:e6:2a:bd:7d:
         4d:44:e2:5a:b1:66:f6:71:12:e4:d4:72:92:a3:c1:0f:11:d2:
         d3:0d:73:2f:31:ec:b8:f7:93:85:4e:eb:81:e7:2f:16:6d:09:
         91:8b:c1:ca:6c:6c:aa:20:7c:b2:8e:53:b6:c0:b4:0b:03:aa:
         ac:e9:4d:1e:11:22:09:96:e1:a2:de:a4:84:17:e9:0e:53:84:
         f0:b6:87:ae:8e:d7:e0:db:2d:03:1b:5e:f3:82:c0:e1:d5:4d:
         5b:77:05:e4:da:b3:2a:b2:de:90:bf:54:a2:0e:18:a5:4d:46:
         6c:cf:22:0e:c2:a8:59:10:2c:34:55:f2:64:d2:ef:80:b1:f9:
         70:55:90:a3:b9:61:5a:dc:a0:4a:46:e6:95:6e:0a:13:c5:06:
         5e:05:ea:78:7b:92:4c:e4:48:eb:54:53:08:6f:0d:43:c2:76:
         2c:e3:0d:6b:e2:57:d5:53:a4:e3:82:1f:86:0e:46:f6:4c:72:
         cc:58:3d:f0:43:d7:64:9c:91:76:e0:10:1d:b5:53:56:02:1f:
         4e:44:e3:b9:7f:ed:78:68:5e:4e:a7:b0:4e:d2:a4:d5:22:f9:
         51:3b:de:df:3b:1a:1c:92:f6:a3:b0:77:2a:fc:f9:71:e2:a7:
         fb:90:ba:cc:d2:fa:a8:dc:5f:6a:b0:04:ed:be:5d:20:95:18:
         3b:f6:79:0f:af:34:9f:5b
-----BEGIN CERTIFICATE-----
MIIGrTCCBJWgAwIBAgICEawwDQYJKoZIhvcNAQEEBQAwgawxCzAJBgNVBAYTAlVT
MQswCQYDVQQIEwJPSDERMA8GA1UEBxMIQ29sdW1idXMxEjAQBgNVBAoTCVZpa2lu
Z1ZQTjEdMBsGA1UECxMUTXlPcmdhbml6YXRpb25hbFVuaXQxFTATBgNVBAMTDFZp
a2luZ1ZQTiBDQTEQMA4GA1UEKRMHRWFzeVJTQTEhMB8GCSqGSIb3DQEJARYSbWVA
bXlob3N0Lm15ZG9tYWluMB4XDTE1MDIyMDIwMDM0M1oXDTI1MDIxNzIwMDM0M1ow
HzEdMBsGA1UEAxMUQ2xpZW50MTQ2NkNlcnRhMmMyNTgwggIiMA0GCSqGSIb3DQEB
AQUAA4ICDwAwggIKAoICAQDroN3Gi4UIzdm9J2IwWW6jeoul1GWtYtHXfwHPghWj
/ThxnWahOyNDX5LdKyfAiE8wrAlCkA82MeaStnQMxcGaxnR77Q5a5rgE4S1AfCe2
SxaeQpbv8a9Ko71P077Zi4d79YjAzl2DchNVYDpnFo53iO8KRfmMrCZKkkhHsf8b
ltpOE8O2It72Po4lOe+upzTMPp2p77BIxTBSTTxHbtbycyXgc1QQ1HXu/b7pKq5w
OR7AiB6TQuNmu79API4LInwH/y3BmCdDUn3LbHEr1B63Dr2xFLNl+ha6yH/cTCwK
ojwvwsjg+Y2mGPArHbBEx15s6jLeUW9HemLy/qyQaH35XO7TS89cxYTUNlUsYhQS
ajNsDLmiths83/gUhwSWtcKHVnH5jE7kHxnQw35cLXjfhJYCJn5o0qa/UgO2Eh+F
ILfqWGuVPhUA3gPk9vi8IKZgXPpiijoga5+4c06c8plopxmAUq7yA3x7+PbSV5/n
hCkemu4DXM4QimpgDPpzpvXf01yW/JvNNnU+wUngCDjY+29Wb5gOTqTOYbKZo+gM
Vc0jml2veg7MZqU6SMngkCntCpINUxfT4ORJQWF/IaaHMV3AScX1ArkHPS6Ks/JE
MjLIo/vsWfuY162bqupE9mk/AY5f7hawsxGsQjrh7+Z2TkncOZ9JaswCzV+FANTH
DQIDAQABo4IBYzCCAV8wCQYDVR0TBAIwADAtBglghkgBhvhCAQ0EIBYeRWFzeS1S
U0EgR2VuZXJhdGVkIENlcnRpZmljYXRlMB0GA1UdDgQWBBR5yew+5+l5J1fI7MC5
JzquZBeABTCB4QYDVR0jBIHZMIHWgBQSzWAE0qCAnnDtxpm4eyzGUv0ZoaGBsqSB
rzCBrDELMAkGA1UEBhMCVVMxCzAJBgNVBAgTAk9IMREwDwYDVQQHEwhDb2x1bWJ1
czESMBAGA1UEChMJVmlraW5nVlBOMR0wGwYDVQQLExRNeU9yZ2FuaXphdGlvbmFs
VW5pdDEVMBMGA1UEAxMMVmlraW5nVlBOIENBMRAwDgYDVQQpEwdFYXN5UlNBMSEw
HwYJKoZIhvcNAQkBFhJtZUBteWhvc3QubXlkb21haW6CCQDPNYXugL8qPjATBgNV
HSUEDDAKBggrBgEFBQcDAjALBgNVHQ8EBAMCB4AwDQYJKoZIhvcNAQEEBQADggIB
ANpGQmaII9KtY7PZngzOzsW7SAOcmc2iEp6nBCx0X1jINbVqkvYqBgkeN3F1ttiv
Bc0EExw/mFoHPwrjJsJdWu1FrHvKot47dCls4OAPF8T/U+HhfnLn7LsTwZs9qzCa
nIjityj9qQ8wyY9cB8V4nAKwM+6iUzg/EBoO4EtC/QxZ/exePz1JFha9J5aRHuch
3ZZw4lgbfKlFtp2Wn7OuiTJgAt+5Er5VQzx7rbiIvWrFCioNBpmz+1hDr18QmR+U
LtqSFzA69i2fEWb8Wvn68/RiBNXw0O871O66Qp7sVo4Zr1jEQSyh7HMUY4/ZEh9o
qLsNuA5wd3Zw5iq9fU1E4lqxZvZxEuTUcpKjwQ8R0tMNcy8x7Lj3k4VO64HnLxZt
CZGLwcpsbKogfLKOU7bAtAsDqqzpTR4RIgmW4aLepIQX6Q5ThPC2h66O1+DbLQMb
XvOCwOHVTVt3BeTasyqy3pC/VKIOGKVNRmzPIg7CqFkQLDRV8mTS74Cx+XBVkKO5
YVrcoEpG5pVuChPFBl4F6nh7kkzkSOtUUwhvDUPCdizjDWviV9VTpOOCH4YORvZM
csxYPfBD12SckXbgEB21U1YCH05E47l/7XhoXk6nsE7SpNUi+VE73t87GhyS9qOw
dyr8+XHip/uQuszS+qjcX2qwBO2+XSCVGDv2eQ+vNJ9b
-----END CERTIFICATE-----
