Certificate:
    Data:
        Version: 3 (0x2)
        Serial Number: 10486 (0x28f6)
    Signature Algorithm: sha256WithRSAEncryption
        Issuer: C=US, ST=OH, L=Columbus, O=VikingVPN, OU=MyOrganizationalUnit, CN=VikingVPN CA/name=EasyRSA/emailAddress=me@myhost.mydomain
        Validity
            Not Before: Mar 31 12:52:37 2017 GMT
            Not After : Mar 29 12:52:37 2027 GMT
        Subject: CN=Client2693Certa5cc74
        Subject Public Key Info:
            Public Key Algorithm: rsaEncryption
                Public-Key: (4096 bit)
                Modulus:
                    00:b3:c8:12:1f:4f:61:fa:f4:08:1e:18:ae:a1:37:
                    ff:9b:e4:0c:aa:9f:0a:1e:6e:06:24:32:89:d0:55:
                    4e:58:50:95:5f:29:4e:f9:ef:cb:5e:6d:51:e5:3a:
                    d2:19:32:1a:2b:0c:c2:0e:7c:e8:9e:5a:aa:86:96:
                    f1:80:90:fa:50:21:2a:0a:3f:0f:f6:a0:4f:bf:d2:
                    1c:81:8b:8c:7f:6d:cc:c1:13:15:df:b1:f1:7c:c4:
                    45:7c:87:49:96:7f:86:95:21:11:03:1b:95:f9:e1:
                    40:e0:33:98:2a:e8:69:34:ab:a9:fa:78:95:c0:32:
                    4a:8e:89:af:1e:9f:8d:6f:53:9e:12:37:7b:cb:47:
                    21:3e:af:f0:44:a9:d9:f6:c9:45:22:23:12:bf:05:
                    a1:70:77:6c:08:ca:2e:71:1b:e8:e7:61:4f:bf:4c:
                    14:da:1b:92:4f:67:7e:49:22:70:ed:c2:7d:d8:b0:
                    18:e8:5f:7e:a5:77:a1:db:7c:97:2c:8e:b7:81:a5:
                    22:a5:2e:3f:b8:ed:7c:a2:20:d9:e4:ce:a1:42:c3:
                    9c:66:33:0c:94:cb:8b:8f:81:c5:05:d0:2b:23:f1:
                    5a:48:65:d7:a9:18:dc:2a:f2:22:c6:c7:dd:da:d1:
                    ff:fe:6b:06:ac:f1:d3:81:ea:31:8d:af:21:76:0d:
                    fa:e9:f8:4b:21:32:0d:7c:17:72:f0:b1:f5:61:19:
                    e7:57:36:66:95:dd:41:a5:c4:84:58:d6:db:6a:d5:
                    2b:71:4e:37:db:37:78:9c:ab:bb:17:ac:ac:19:ff:
                    a5:41:48:31:45:b5:da:e2:1e:22:40:84:78:3a:86:
                    f0:74:61:96:a8:b7:92:27:4a:66:89:49:d0:48:b9:
                    79:5e:06:5e:e5:33:b3:9a:66:71:e9:48:17:f5:e1:
                    41:3c:bd:b0:19:e9:56:ce:1b:29:c1:28:d6:03:e0:
                    49:41:e2:7f:26:b3:11:15:88:86:1c:83:d1:1e:9a:
                    46:42:09:2f:d4:c0:c9:a1:64:10:e8:50:46:67:e2:
                    4c:f4:6f:8a:bc:c6:cd:b0:b4:0f:0c:e2:02:7f:c8:
                    f1:e3:39:2e:fc:bc:d9:84:1e:b2:ae:0d:d9:37:44:
                    49:00:9e:4b:55:1f:df:62:3b:b0:d4:a7:fc:e1:fd:
                    d2:30:7f:65:2e:c4:9b:cb:8d:8a:e1:33:a9:a9:08:
                    1a:36:3d:81:8c:23:a9:9f:48:bd:50:35:ab:bf:ef:
                    c5:6a:70:4e:0f:c6:ec:97:fd:a2:04:aa:f0:4b:c1:
                    9a:8b:46:ff:a1:9b:ba:25:cf:d6:a7:24:87:39:6a:
                    cb:89:b0:44:21:98:dd:98:64:13:e7:6d:05:9d:70:
                    10:23:13
                Exponent: 65537 (0x10001)
        X509v3 extensions:
            X509v3 Basic Constraints: 
                CA:FALSE
            Netscape Comment: 
                Easy-RSA Generated Certificate
            X509v3 Subject Key Identifier: 
                63:7F:94:8D:89:A8:9C:DD:97:19:CA:CD:E9:16:1D:F3:96:33:46:8B
            X509v3 Authority Key Identifier: 
                keyid:12:CD:60:04:D2:A0:80:9E:70:ED:C6:99:B8:7B:2C:C6:52:FD:19:A1
                DirName:/C=US/ST=OH/L=Columbus/O=VikingVPN/OU=MyOrganizationalUnit/CN=VikingVPN CA/name=EasyRSA/emailAddress=me@myhost.mydomain
                serial:CF:35:85:EE:80:BF:2A:3E

            X509v3 Extended Key Usage: 
                TLS Web Client Authentication
            X509v3 Key Usage: 
                Digital Signature
    Signature Algorithm: sha256WithRSAEncryption
         7c:89:a6:c6:13:a8:db:ce:ea:37:33:d3:30:6f:76:59:0d:7d:
         5a:a0:ef:80:5d:7b:b7:e0:46:66:59:54:15:6c:59:9a:42:12:
         33:cf:bb:6a:2e:86:a8:56:94:99:22:3a:da:f3:85:d3:53:1c:
         f6:af:f6:ef:ac:c6:cd:cc:be:d8:c7:c4:2d:e1:40:8a:d1:06:
         33:14:75:7b:b0:1a:0f:d4:fd:20:1a:ec:28:ce:1f:5d:14:4e:
         6a:cb:5c:83:0d:8f:b6:9e:c6:5d:73:fb:95:97:30:0b:48:cf:
         ac:59:dd:1f:cb:1f:40:8a:f0:3d:ac:7f:18:6a:99:41:75:d0:
         51:bf:2d:8f:53:31:4d:10:74:c6:76:65:65:fd:51:41:48:ef:
         4f:c4:d1:04:10:f2:43:02:1a:aa:34:94:e9:21:43:c6:e9:6e:
         c1:8a:5b:23:91:2d:c0:6d:2c:78:25:aa:8a:f5:db:3c:20:35:
         01:05:2f:85:ff:d9:38:d2:6f:7f:a8:8b:ac:b1:ca:85:e8:20:
         8d:4a:42:8f:a7:86:df:58:51:4e:b5:5f:1f:fc:63:f8:2a:b1:
         c8:7b:88:21:00:6b:51:9a:45:6e:7d:8f:8c:eb:cb:be:c4:74:
         6e:17:09:94:8a:e0:2c:41:23:2f:6f:66:34:7b:53:66:e2:66:
         0d:bb:88:65:ad:da:be:a1:d8:6a:84:15:34:6c:74:12:39:10:
         5d:7a:7c:04:f6:92:fa:ef:77:f6:96:24:63:f7:94:08:7d:ea:
         78:7d:74:4b:53:79:96:1e:b1:93:8e:cb:f9:46:2f:cb:b0:ca:
         43:86:4c:1b:88:be:72:ec:e1:a5:6e:cb:f1:ae:9c:5a:2a:27:
         9b:f7:b2:a9:f1:6c:f2:32:30:79:03:a5:c0:1c:75:c0:83:49:
         d0:16:2a:86:bc:22:32:2d:a6:d3:5a:a4:80:22:04:14:88:a0:
         fc:b4:98:96:ce:de:ea:44:73:0e:3d:a0:a1:b7:e3:db:bd:13:
         23:ef:89:b0:9a:c1:d8:f3:57:1c:45:26:e7:f5:ff:c7:51:5d:
         17:c1:21:cd:61:32:e5:5c:6d:59:85:c9:47:a0:f0:89:31:95:
         15:9a:8c:04:61:e6:90:9e:22:49:05:42:46:ee:3e:4b:85:73:
         9b:fa:20:d2:95:c2:fb:61:e3:8f:99:6c:d6:ac:d4:2b:18:c3:
         31:aa:6e:4a:3e:49:d6:8d:29:9f:49:34:b1:34:93:31:20:c7:
         10:da:7f:6d:a3:20:a6:c3:f9:c7:db:11:0b:f4:d3:ac:ca:18:
         0a:59:ba:ba:a8:81:5d:cf:d9:8c:36:da:5f:4d:9b:aa:a8:4d:
         dd:71:17:3f:37:b3:9b:84
-----BEGIN CERTIFICATE-----
MIIGrTCCBJWgAwIBAgICKPYwDQYJKoZIhvcNAQELBQAwgawxCzAJBgNVBAYTAlVT
MQswCQYDVQQIEwJPSDERMA8GA1UEBxMIQ29sdW1idXMxEjAQBgNVBAoTCVZpa2lu
Z1ZQTjEdMBsGA1UECxMUTXlPcmdhbml6YXRpb25hbFVuaXQxFTATBgNVBAMTDFZp
a2luZ1ZQTiBDQTEQMA4GA1UEKRMHRWFzeVJTQTEhMB8GCSqGSIb3DQEJARYSbWVA
bXlob3N0Lm15ZG9tYWluMB4XDTE3MDMzMTEyNTIzN1oXDTI3MDMyOTEyNTIzN1ow
HzEdMBsGA1UEAxMUQ2xpZW50MjY5M0NlcnRhNWNjNzQwggIiMA0GCSqGSIb3DQEB
AQUAA4ICDwAwggIKAoICAQCzyBIfT2H69AgeGK6hN/+b5AyqnwoebgYkMonQVU5Y
UJVfKU7578tebVHlOtIZMhorDMIOfOieWqqGlvGAkPpQISoKPw/2oE+/0hyBi4x/
bczBExXfsfF8xEV8h0mWf4aVIREDG5X54UDgM5gq6Gk0q6n6eJXAMkqOia8en41v
U54SN3vLRyE+r/BEqdn2yUUiIxK/BaFwd2wIyi5xG+jnYU+/TBTaG5JPZ35JInDt
wn3YsBjoX36ld6HbfJcsjreBpSKlLj+47XyiINnkzqFCw5xmMwyUy4uPgcUF0Csj
8VpIZdepGNwq8iLGx93a0f/+awas8dOB6jGNryF2Dfrp+EshMg18F3LwsfVhGedX
NmaV3UGlxIRY1ttq1StxTjfbN3icq7sXrKwZ/6VBSDFFtdriHiJAhHg6hvB0YZao
t5InSmaJSdBIuXleBl7lM7OaZnHpSBf14UE8vbAZ6VbOGynBKNYD4ElB4n8msxEV
iIYcg9EemkZCCS/UwMmhZBDoUEZn4kz0b4q8xs2wtA8M4gJ/yPHjOS78vNmEHrKu
Ddk3REkAnktVH99iO7DUp/zh/dIwf2UuxJvLjYrhM6mpCBo2PYGMI6mfSL1QNau/
78VqcE4PxuyX/aIEqvBLwZqLRv+hm7olz9anJIc5asuJsEQhmN2YZBPnbQWdcBAj
EwIDAQABo4IBYzCCAV8wCQYDVR0TBAIwADAtBglghkgBhvhCAQ0EIBYeRWFzeS1S
U0EgR2VuZXJhdGVkIENlcnRpZmljYXRlMB0GA1UdDgQWBBRjf5SNiaic3ZcZys3p
Fh3zljNGizCB4QYDVR0jBIHZMIHWgBQSzWAE0qCAnnDtxpm4eyzGUv0ZoaGBsqSB
rzCBrDELMAkGA1UEBhMCVVMxCzAJBgNVBAgTAk9IMREwDwYDVQQHEwhDb2x1bWJ1
czESMBAGA1UEChMJVmlraW5nVlBOMR0wGwYDVQQLExRNeU9yZ2FuaXphdGlvbmFs
VW5pdDEVMBMGA1UEAxMMVmlraW5nVlBOIENBMRAwDgYDVQQpEwdFYXN5UlNBMSEw
HwYJKoZIhvcNAQkBFhJtZUBteWhvc3QubXlkb21haW6CCQDPNYXugL8qPjATBgNV
HSUEDDAKBggrBgEFBQcDAjALBgNVHQ8EBAMCB4AwDQYJKoZIhvcNAQELBQADggIB
AHyJpsYTqNvO6jcz0zBvdlkNfVqg74Bde7fgRmZZVBVsWZpCEjPPu2ouhqhWlJki
OtrzhdNTHPav9u+sxs3MvtjHxC3hQIrRBjMUdXuwGg/U/SAa7CjOH10UTmrLXIMN
j7aexl1z+5WXMAtIz6xZ3R/LH0CK8D2sfxhqmUF10FG/LY9TMU0QdMZ2ZWX9UUFI
70/E0QQQ8kMCGqo0lOkhQ8bpbsGKWyORLcBtLHglqor12zwgNQEFL4X/2TjSb3+o
i6yxyoXoII1KQo+nht9YUU61Xx/8Y/gqsch7iCEAa1GaRW59j4zry77EdG4XCZSK
4CxBIy9vZjR7U2biZg27iGWt2r6h2GqEFTRsdBI5EF16fAT2kvrvd/aWJGP3lAh9
6nh9dEtTeZYesZOOy/lGL8uwykOGTBuIvnLs4aVuy/GunFoqJ5v3sqnxbPIyMHkD
pcAcdcCDSdAWKoa8IjItptNapIAiBBSIoPy0mJbO3upEcw49oKG349u9EyPvibCa
wdjzVxxFJuf1/8dRXRfBIc1hMuVcbVmFyUeg8IkxlRWajARh5pCeIkkFQkbuPkuF
c5v6INKVwvth44+ZbNas1CsYwzGqbko+SdaNKZ9JNLE0kzEgxxDaf22jIKbD+cfb
EQv006zKGApZurqogV3P2Yw22l9Nm6qoTd1xFz83s5uE
-----END CERTIFICATE-----
