Certificate:
    Data:
        Version: 3 (0x2)
        Serial Number: 9312 (0x2460)
    Signature Algorithm: sha256WithRSAEncryption
        Issuer: C=US, ST=OH, L=Columbus, O=VikingVPN, OU=MyOrganizationalUnit, CN=VikingVPN CA/name=EasyRSA/emailAddress=me@myhost.mydomain
        Validity
            Not Before: Oct 24 18:36:04 2016 GMT
            Not After : Oct 22 18:36:04 2026 GMT
        Subject: CN=Client2550Cert744e6c
        Subject Public Key Info:
            Public Key Algorithm: rsaEncryption
                Public-Key: (4096 bit)
                Modulus:
                    00:e5:91:aa:56:a1:8c:28:16:3a:ae:fb:19:21:e6:
                    07:59:70:79:55:13:f8:c2:03:7e:a4:2b:b3:fd:99:
                    09:dd:8d:04:c5:fd:c4:a2:94:25:cb:79:6e:78:10:
                    0d:80:63:62:0f:79:28:ad:88:ed:60:3a:6d:96:0a:
                    5b:55:96:80:55:57:4a:09:08:13:54:7f:bf:57:10:
                    cb:5f:1c:90:9a:59:d7:5a:c7:e8:f5:9f:0b:1d:66:
                    d0:31:04:4c:0d:6c:a5:3b:01:ba:0b:e1:d3:2d:40:
                    4b:d0:9d:d8:06:22:1c:24:6c:c4:cb:a5:27:1e:70:
                    64:61:98:e6:79:19:c8:56:34:18:b4:06:59:dd:29:
                    1a:5b:f5:b4:01:d3:f5:1c:19:a0:13:e8:d5:dd:33:
                    1c:0b:88:61:e9:39:b5:b6:36:4d:db:ad:54:c1:28:
                    67:78:c2:39:b0:e1:07:dd:e3:2e:66:c4:64:f2:0a:
                    12:22:03:ec:15:bf:e1:ad:93:8d:2c:86:3a:e7:0e:
                    d1:b8:7e:04:db:64:97:b0:7d:d2:4a:fa:2a:59:32:
                    40:f4:db:8f:cb:bb:77:5f:18:d3:c0:ba:16:17:0c:
                    11:79:9a:7f:d1:85:49:98:30:f7:70:66:71:5f:1b:
                    7c:ef:ba:9f:0b:ba:ba:30:8c:ee:c6:b4:e7:4c:bd:
                    c7:6f:9b:2a:d1:b3:69:8c:e2:09:5a:62:f5:eb:14:
                    18:9b:77:43:db:83:c4:ab:47:09:a1:27:89:cb:8f:
                    d3:dc:88:6a:97:6d:fa:49:f5:5a:27:9f:00:4a:46:
                    21:cd:7a:69:8f:b5:0f:0c:05:3a:49:c2:ff:be:c6:
                    3e:e1:77:8b:d0:21:a3:fb:40:5a:00:d2:78:9e:c6:
                    80:82:ad:22:b7:f2:8e:cf:d3:12:8e:cb:43:aa:b3:
                    27:48:f6:64:08:b5:98:57:f6:e4:e8:85:bb:86:84:
                    13:48:ed:0f:bf:62:71:92:21:7c:a7:be:66:b3:4b:
                    89:e8:df:2c:61:a3:ae:30:b0:06:b4:d2:fe:84:9d:
                    de:d8:b8:2c:e5:a7:79:e3:00:b7:7e:62:5d:36:82:
                    54:ef:e2:c6:ef:40:3e:ba:3c:91:ce:6c:9f:12:a7:
                    9d:2e:0f:7d:0d:4e:e6:b9:1a:f1:5d:4f:2e:9b:71:
                    ae:45:39:38:4c:d1:ac:40:0f:b1:78:21:1d:5e:f8:
                    7f:a3:6b:17:6b:f9:09:94:26:a5:50:a7:df:11:38:
                    76:97:26:f6:cc:e4:6e:1e:11:13:74:ae:3e:ac:f4:
                    46:59:ac:23:bf:c7:c3:e2:95:48:0c:2f:fa:c7:c9:
                    4f:08:20:8c:17:97:b2:34:fd:4f:f4:72:6a:92:7f:
                    e0:66:ed
                Exponent: 65537 (0x10001)
        X509v3 extensions:
            X509v3 Basic Constraints: 
                CA:FALSE
            Netscape Comment: 
                Easy-RSA Generated Certificate
            X509v3 Subject Key Identifier: 
                EB:69:6F:7D:1D:63:1A:7A:91:A2:C4:AA:87:53:1F:7C:DC:D2:E4:6B
            X509v3 Authority Key Identifier: 
                keyid:12:CD:60:04:D2:A0:80:9E:70:ED:C6:99:B8:7B:2C:C6:52:FD:19:A1
                DirName:/C=US/ST=OH/L=Columbus/O=VikingVPN/OU=MyOrganizationalUnit/CN=VikingVPN CA/name=EasyRSA/emailAddress=me@myhost.mydomain
                serial:CF:35:85:EE:80:BF:2A:3E

            X509v3 Extended Key Usage: 
                TLS Web Client Authentication
            X509v3 Key Usage: 
                Digital Signature
    Signature Algorithm: sha256WithRSAEncryption
         dc:b7:dc:06:41:c8:1c:88:7f:b2:6c:c1:81:a4:55:15:f7:75:
         21:51:89:ad:44:e6:79:4f:11:77:34:ac:95:84:35:67:26:e1:
         17:c6:a6:bf:a5:0c:cd:0f:8f:c4:d8:e5:53:4a:54:d8:69:a6:
         81:87:43:17:4a:1a:ef:62:c7:c1:a6:37:3d:14:71:7d:03:68:
         c3:35:d1:07:46:a6:3f:3c:54:77:96:f5:ce:74:67:44:cd:16:
         66:2c:aa:69:31:4a:9a:b4:81:1a:eb:b6:1c:22:4e:69:21:53:
         18:08:ee:60:9d:a9:da:3f:85:3f:d6:44:c7:c3:76:e5:7b:3d:
         67:37:49:99:c0:d0:50:70:5e:34:6c:77:49:62:af:ac:9d:f9:
         8c:ff:6e:22:d1:a4:6f:da:67:9b:0a:29:85:ea:1f:a0:19:84:
         53:15:c7:c2:d0:f8:89:ef:99:a4:d2:93:d9:1a:e5:3f:4e:3b:
         92:8c:f9:5d:64:f1:04:3d:a6:d1:07:dd:15:6e:95:f1:d4:3e:
         6f:30:e4:e3:e5:37:08:83:11:9f:00:8e:2e:7f:75:ed:57:ff:
         b3:26:7a:1d:36:63:19:80:b9:95:15:88:a2:50:e7:6e:e2:aa:
         21:7f:13:0e:9b:70:e6:d2:6e:f6:21:62:7b:d4:32:78:44:89:
         46:29:32:71:de:14:68:6c:09:13:09:a4:2f:0a:78:a1:60:b4:
         79:a7:e5:02:5f:d2:42:6f:98:53:32:1b:c6:7f:2a:f6:43:cf:
         3f:52:ec:92:1f:31:84:e9:04:af:35:df:22:ce:38:e1:b5:88:
         bc:e6:32:17:ac:18:7d:08:db:d5:7d:07:3a:fb:38:a6:0f:ad:
         ed:2c:61:e8:9a:aa:00:a9:e4:98:8d:a2:71:f8:88:17:f0:d6:
         f2:a1:33:38:94:8c:19:8f:e7:60:86:fa:a2:23:b0:31:63:6d:
         33:f3:22:fb:2e:e6:fc:d5:f5:8c:1e:0e:64:f3:4f:52:1d:dc:
         22:f9:ba:65:b5:e7:70:69:65:a7:ad:e8:37:54:ea:06:e6:00:
         be:89:74:22:64:ae:67:26:0d:af:fe:e9:31:88:f2:59:a0:50:
         c9:8d:5c:ea:bb:4c:1e:28:78:46:27:c1:1f:0e:7d:4b:c5:f5:
         d2:50:57:60:81:0f:33:b9:72:fb:d1:50:09:9d:44:5a:f9:76:
         07:a6:13:1a:c9:79:c9:6b:8c:80:de:a9:17:40:41:66:b4:22:
         3b:7b:83:a5:3d:13:0f:b0:fc:23:57:26:28:b8:c4:d1:a4:17:
         79:8c:c5:33:0e:1b:31:b1:c6:7b:92:d1:68:9c:a1:4f:e7:7c:
         02:86:5b:a3:1e:d9:a8:01
-----BEGIN CERTIFICATE-----
MIIGrTCCBJWgAwIBAgICJGAwDQYJKoZIhvcNAQELBQAwgawxCzAJBgNVBAYTAlVT
MQswCQYDVQQIEwJPSDERMA8GA1UEBxMIQ29sdW1idXMxEjAQBgNVBAoTCVZpa2lu
Z1ZQTjEdMBsGA1UECxMUTXlPcmdhbml6YXRpb25hbFVuaXQxFTATBgNVBAMTDFZp
a2luZ1ZQTiBDQTEQMA4GA1UEKRMHRWFzeVJTQTEhMB8GCSqGSIb3DQEJARYSbWVA
bXlob3N0Lm15ZG9tYWluMB4XDTE2MTAyNDE4MzYwNFoXDTI2MTAyMjE4MzYwNFow
HzEdMBsGA1UEAxMUQ2xpZW50MjU1MENlcnQ3NDRlNmMwggIiMA0GCSqGSIb3DQEB
AQUAA4ICDwAwggIKAoICAQDlkapWoYwoFjqu+xkh5gdZcHlVE/jCA36kK7P9mQnd
jQTF/cSilCXLeW54EA2AY2IPeSitiO1gOm2WCltVloBVV0oJCBNUf79XEMtfHJCa
Wddax+j1nwsdZtAxBEwNbKU7AboL4dMtQEvQndgGIhwkbMTLpScecGRhmOZ5GchW
NBi0BlndKRpb9bQB0/UcGaAT6NXdMxwLiGHpObW2Nk3brVTBKGd4wjmw4Qfd4y5m
xGTyChIiA+wVv+Gtk40shjrnDtG4fgTbZJewfdJK+ipZMkD024/Lu3dfGNPAuhYX
DBF5mn/RhUmYMPdwZnFfG3zvup8LurowjO7GtOdMvcdvmyrRs2mM4glaYvXrFBib
d0Pbg8SrRwmhJ4nLj9PciGqXbfpJ9VonnwBKRiHNemmPtQ8MBTpJwv++xj7hd4vQ
IaP7QFoA0niexoCCrSK38o7P0xKOy0OqsydI9mQItZhX9uTohbuGhBNI7Q+/YnGS
IXynvmazS4no3yxho64wsAa00v6End7YuCzlp3njALd+Yl02glTv4sbvQD66PJHO
bJ8Sp50uD30NTua5GvFdTy6bca5FOThM0axAD7F4IR1e+H+jaxdr+QmUJqVQp98R
OHaXJvbM5G4eERN0rj6s9EZZrCO/x8PilUgML/rHyU8IIIwXl7I0/U/0cmqSf+Bm
7QIDAQABo4IBYzCCAV8wCQYDVR0TBAIwADAtBglghkgBhvhCAQ0EIBYeRWFzeS1S
U0EgR2VuZXJhdGVkIENlcnRpZmljYXRlMB0GA1UdDgQWBBTraW99HWMaepGixKqH
Ux983NLkazCB4QYDVR0jBIHZMIHWgBQSzWAE0qCAnnDtxpm4eyzGUv0ZoaGBsqSB
rzCBrDELMAkGA1UEBhMCVVMxCzAJBgNVBAgTAk9IMREwDwYDVQQHEwhDb2x1bWJ1
czESMBAGA1UEChMJVmlraW5nVlBOMR0wGwYDVQQLExRNeU9yZ2FuaXphdGlvbmFs
VW5pdDEVMBMGA1UEAxMMVmlraW5nVlBOIENBMRAwDgYDVQQpEwdFYXN5UlNBMSEw
HwYJKoZIhvcNAQkBFhJtZUBteWhvc3QubXlkb21haW6CCQDPNYXugL8qPjATBgNV
HSUEDDAKBggrBgEFBQcDAjALBgNVHQ8EBAMCB4AwDQYJKoZIhvcNAQELBQADggIB
ANy33AZByByIf7JswYGkVRX3dSFRia1E5nlPEXc0rJWENWcm4RfGpr+lDM0Pj8TY
5VNKVNhppoGHQxdKGu9ix8GmNz0UcX0DaMM10QdGpj88VHeW9c50Z0TNFmYsqmkx
Spq0gRrrthwiTmkhUxgI7mCdqdo/hT/WRMfDduV7PWc3SZnA0FBwXjRsd0lir6yd
+Yz/biLRpG/aZ5sKKYXqH6AZhFMVx8LQ+InvmaTSk9ka5T9OO5KM+V1k8QQ9ptEH
3RVulfHUPm8w5OPlNwiDEZ8Aji5/de1X/7Mmeh02YxmAuZUViKJQ527iqiF/Ew6b
cObSbvYhYnvUMnhEiUYpMnHeFGhsCRMJpC8KeKFgtHmn5QJf0kJvmFMyG8Z/KvZD
zz9S7JIfMYTpBK813yLOOOG1iLzmMhesGH0I29V9Bzr7OKYPre0sYeiaqgCp5JiN
onH4iBfw1vKhMziUjBmP52CG+qIjsDFjbTPzIvsu5vzV9YweDmTzT1Id3CL5umW1
53BpZaet6DdU6gbmAL6JdCJkrmcmDa/+6TGI8lmgUMmNXOq7TB4oeEYnwR8OfUvF
9dJQV2CBDzO5cvvRUAmdRFr5dgemExrJeclrjIDeqRdAQWa0Ijt7g6U9Ew+w/CNX
Jii4xNGkF3mMxTMOGzGxxnuS0WicoU/nfAKGW6Me2agB
-----END CERTIFICATE-----
