Certificate:
    Data:
        Version: 3 (0x2)
        Serial Number: 8605 (0x219d)
    Signature Algorithm: sha256WithRSAEncryption
        Issuer: C=US, ST=OH, L=Columbus, O=VikingVPN, OU=MyOrganizationalUnit, CN=VikingVPN CA/name=EasyRSA/emailAddress=me@myhost.mydomain
        Validity
            Not Before: Jul 31 12:59:47 2016 GMT
            Not After : Jul 29 12:59:47 2026 GMT
        Subject: CN=Client1882Cert7da5e2
        Subject Public Key Info:
            Public Key Algorithm: rsaEncryption
                Public-Key: (4096 bit)
                Modulus:
                    00:99:a4:3f:48:de:be:b1:28:24:81:59:84:91:d1:
                    9c:a4:68:c8:01:b6:02:93:da:c8:e3:8b:6f:9f:9a:
                    25:22:53:f9:3a:ed:e7:b4:94:bc:80:09:b5:89:fb:
                    5c:07:15:a0:ee:64:b5:c5:f8:23:a2:03:4f:93:a6:
                    68:63:8b:e2:de:e8:b2:c2:19:20:16:9c:a9:db:ea:
                    4d:dc:8a:54:47:f7:31:1b:d9:73:c6:da:c7:14:75:
                    7e:96:86:2c:10:8d:dc:7a:6f:47:e4:30:c6:3b:32:
                    f5:54:29:5f:c4:a6:92:3d:b1:ea:a0:d4:2e:06:65:
                    eb:49:68:ac:a7:ca:5d:71:07:9e:06:3f:bb:17:e6:
                    ea:7e:16:2d:ae:2e:3d:4b:b9:36:bf:ac:68:fc:6c:
                    19:86:eb:02:e1:c2:40:ec:58:88:d3:8f:2d:91:c2:
                    1e:fb:ce:d5:45:a3:8b:2a:91:af:a7:ae:03:38:8e:
                    c8:56:a4:47:43:4a:2b:79:2d:ba:e6:66:3d:31:bb:
                    c2:41:06:ea:dd:0f:90:f2:95:92:ba:35:3c:5a:ee:
                    0a:f8:60:71:31:45:2a:0e:c5:c5:d7:1c:9c:c4:2f:
                    a9:28:89:d5:db:ca:a7:b5:7c:cd:cd:38:51:87:3c:
                    5f:d1:16:90:5c:55:54:17:bf:0d:d7:1e:04:f2:73:
                    1d:59:d1:ac:f9:53:36:40:60:e6:78:32:96:30:3b:
                    14:e3:70:2c:05:fd:e4:eb:37:94:34:08:b0:1c:55:
                    45:ba:fc:b0:e3:5e:4d:52:34:07:2b:e7:79:b2:e8:
                    30:d3:5a:8f:77:07:1e:b0:6f:d8:9c:5c:66:3d:4d:
                    6e:39:66:e4:52:a0:f0:30:d2:a9:65:9d:42:7e:5a:
                    dc:ab:07:7d:6e:c1:81:68:d8:75:1e:9e:28:0f:b9:
                    6a:88:02:e8:52:02:f0:46:33:8c:2e:7d:b1:d6:6f:
                    33:93:51:06:4e:fd:ba:55:28:f7:98:5c:73:50:14:
                    08:e2:ae:10:68:00:e4:fd:28:1c:78:0a:96:bf:e7:
                    d2:5f:9a:3b:6d:6d:4b:9f:28:4d:58:58:ad:fe:ed:
                    d3:bc:29:33:d8:71:41:2c:09:f0:0c:e3:4a:24:95:
                    73:ee:37:9b:2d:1f:38:b6:b4:c4:8b:0a:42:c6:ad:
                    14:45:83:68:ec:6c:20:66:e8:13:6d:a9:64:27:77:
                    8b:51:8d:4b:77:42:11:b8:87:78:23:7b:95:d2:40:
                    51:84:45:1a:64:dc:2e:14:f5:ea:9b:3b:ec:8c:99:
                    ee:d4:1e:18:40:de:81:cb:4a:2d:f0:01:7e:cb:b7:
                    e7:2f:f9:d3:a9:2e:9c:09:27:19:76:58:ef:35:20:
                    6c:7d:49
                Exponent: 65537 (0x10001)
        X509v3 extensions:
            X509v3 Basic Constraints: 
                CA:FALSE
            Netscape Comment: 
                Easy-RSA Generated Certificate
            X509v3 Subject Key Identifier: 
                E9:01:DC:B7:70:32:7E:DC:82:39:FD:F8:A6:00:97:B8:DF:20:57:CF
            X509v3 Authority Key Identifier: 
                keyid:12:CD:60:04:D2:A0:80:9E:70:ED:C6:99:B8:7B:2C:C6:52:FD:19:A1
                DirName:/C=US/ST=OH/L=Columbus/O=VikingVPN/OU=MyOrganizationalUnit/CN=VikingVPN CA/name=EasyRSA/emailAddress=me@myhost.mydomain
                serial:CF:35:85:EE:80:BF:2A:3E

            X509v3 Extended Key Usage: 
                TLS Web Client Authentication
            X509v3 Key Usage: 
                Digital Signature
    Signature Algorithm: sha256WithRSAEncryption
         d4:9c:55:fb:6b:91:4d:85:7a:11:46:47:59:4a:30:cb:55:20:
         89:6e:13:18:10:36:2e:d5:c0:c9:36:86:b2:a6:74:8d:bd:4b:
         d3:59:16:6b:47:41:98:2e:f5:79:97:f8:8e:46:85:e7:73:91:
         d3:49:86:38:54:fe:4c:1c:56:c5:5d:d1:4f:ae:a0:58:e4:d3:
         31:79:26:ba:ef:1a:84:1b:0b:50:f0:e2:4e:f0:67:55:41:81:
         87:de:6b:fe:ff:11:b5:d1:6a:54:18:cb:3b:2d:8e:b5:37:6b:
         3d:fd:b7:cb:66:be:3b:f0:26:75:db:28:f8:c4:40:2b:51:85:
         ab:8d:21:22:aa:89:4d:5e:e8:a2:40:0b:9a:5f:24:68:42:9f:
         2b:99:4b:6f:f2:2d:5c:ba:1d:58:97:bf:a4:35:a5:74:71:96:
         9c:fd:ea:c3:63:02:a7:53:fb:24:fa:b6:89:26:7d:46:53:e1:
         12:74:df:52:87:d9:22:13:8c:a0:61:f8:a0:72:62:4b:3d:fc:
         71:18:5e:c3:54:fb:dc:1e:ba:86:8c:d8:98:a1:c6:b0:fa:03:
         9c:c8:c8:02:43:cd:8f:67:80:4a:b1:44:c0:e8:d0:00:41:f9:
         a8:3c:21:dc:46:4b:9d:64:71:d7:a9:51:6f:06:30:08:28:1a:
         85:5e:21:7c:02:9f:a0:cb:17:2c:7a:4a:72:b7:ac:0b:7c:c6:
         c2:ee:55:81:12:c3:9d:da:0d:1a:80:b9:07:75:f6:29:39:20:
         64:71:ac:71:67:92:05:5a:2a:ef:a8:df:8f:57:ee:5d:22:7c:
         1f:e1:dc:75:44:86:aa:34:7e:ac:e7:07:b7:70:f6:6c:6b:8b:
         f2:a7:e7:65:fa:57:61:28:3e:28:33:b3:e1:b6:f3:c7:dd:f4:
         f2:8a:83:b9:0f:57:f0:2b:68:08:1d:ae:8d:63:e6:1a:7e:37:
         92:de:09:41:9f:05:0e:b7:6a:0d:a7:d3:3e:92:c1:95:8d:3d:
         bc:1b:70:a5:2f:d4:98:62:08:df:eb:77:db:b4:28:0b:57:97:
         f0:15:bb:48:7b:5c:cd:b5:fd:4f:a7:d3:4d:55:72:19:f6:04:
         f0:87:4a:2b:55:8b:5e:02:e4:df:d4:9d:0c:3f:28:a1:19:f6:
         ee:8d:df:ee:b3:dc:cf:30:3f:04:9a:c7:3e:43:5b:0a:46:75:
         49:6b:7a:57:95:10:0b:bc:c2:80:d8:1f:f1:87:74:82:60:b5:
         11:60:ce:26:13:80:e6:64:75:69:97:7a:21:62:4c:9e:01:ae:
         df:c4:70:d0:87:7c:c3:e6:ce:ee:b8:ae:49:09:dc:a1:f9:cd:
         03:bb:a8:b1:2c:6d:2b:0a
-----BEGIN CERTIFICATE-----
MIIGrTCCBJWgAwIBAgICIZ0wDQYJKoZIhvcNAQELBQAwgawxCzAJBgNVBAYTAlVT
MQswCQYDVQQIEwJPSDERMA8GA1UEBxMIQ29sdW1idXMxEjAQBgNVBAoTCVZpa2lu
Z1ZQTjEdMBsGA1UECxMUTXlPcmdhbml6YXRpb25hbFVuaXQxFTATBgNVBAMTDFZp
a2luZ1ZQTiBDQTEQMA4GA1UEKRMHRWFzeVJTQTEhMB8GCSqGSIb3DQEJARYSbWVA
bXlob3N0Lm15ZG9tYWluMB4XDTE2MDczMTEyNTk0N1oXDTI2MDcyOTEyNTk0N1ow
HzEdMBsGA1UEAxMUQ2xpZW50MTg4MkNlcnQ3ZGE1ZTIwggIiMA0GCSqGSIb3DQEB
AQUAA4ICDwAwggIKAoICAQCZpD9I3r6xKCSBWYSR0ZykaMgBtgKT2sjji2+fmiUi
U/k67ee0lLyACbWJ+1wHFaDuZLXF+COiA0+Tpmhji+Le6LLCGSAWnKnb6k3cilRH
9zEb2XPG2scUdX6WhiwQjdx6b0fkMMY7MvVUKV/EppI9seqg1C4GZetJaKynyl1x
B54GP7sX5up+Fi2uLj1LuTa/rGj8bBmG6wLhwkDsWIjTjy2Rwh77ztVFo4sqka+n
rgM4jshWpEdDSit5LbrmZj0xu8JBBurdD5DylZK6NTxa7gr4YHExRSoOxcXXHJzE
L6koidXbyqe1fM3NOFGHPF/RFpBcVVQXvw3XHgTycx1Z0az5UzZAYOZ4MpYwOxTj
cCwF/eTrN5Q0CLAcVUW6/LDjXk1SNAcr53my6DDTWo93Bx6wb9icXGY9TW45ZuRS
oPAw0qllnUJ+WtyrB31uwYFo2HUenigPuWqIAuhSAvBGM4wufbHWbzOTUQZO/bpV
KPeYXHNQFAjirhBoAOT9KBx4Cpa/59JfmjttbUufKE1YWK3+7dO8KTPYcUEsCfAM
40oklXPuN5stHzi2tMSLCkLGrRRFg2jsbCBm6BNtqWQnd4tRjUt3QhG4h3gje5XS
QFGERRpk3C4U9eqbO+yMme7UHhhA3oHLSi3wAX7Lt+cv+dOpLpwJJxl2WO81IGx9
SQIDAQABo4IBYzCCAV8wCQYDVR0TBAIwADAtBglghkgBhvhCAQ0EIBYeRWFzeS1S
U0EgR2VuZXJhdGVkIENlcnRpZmljYXRlMB0GA1UdDgQWBBTpAdy3cDJ+3II5/fim
AJe43yBXzzCB4QYDVR0jBIHZMIHWgBQSzWAE0qCAnnDtxpm4eyzGUv0ZoaGBsqSB
rzCBrDELMAkGA1UEBhMCVVMxCzAJBgNVBAgTAk9IMREwDwYDVQQHEwhDb2x1bWJ1
czESMBAGA1UEChMJVmlraW5nVlBOMR0wGwYDVQQLExRNeU9yZ2FuaXphdGlvbmFs
VW5pdDEVMBMGA1UEAxMMVmlraW5nVlBOIENBMRAwDgYDVQQpEwdFYXN5UlNBMSEw
HwYJKoZIhvcNAQkBFhJtZUBteWhvc3QubXlkb21haW6CCQDPNYXugL8qPjATBgNV
HSUEDDAKBggrBgEFBQcDAjALBgNVHQ8EBAMCB4AwDQYJKoZIhvcNAQELBQADggIB
ANScVftrkU2FehFGR1lKMMtVIIluExgQNi7VwMk2hrKmdI29S9NZFmtHQZgu9XmX
+I5GhedzkdNJhjhU/kwcVsVd0U+uoFjk0zF5JrrvGoQbC1Dw4k7wZ1VBgYfea/7/
EbXRalQYyzstjrU3az39t8tmvjvwJnXbKPjEQCtRhauNISKqiU1e6KJAC5pfJGhC
nyuZS2/yLVy6HViXv6Q1pXRxlpz96sNjAqdT+yT6tokmfUZT4RJ031KH2SITjKBh
+KByYks9/HEYXsNU+9weuoaM2JihxrD6A5zIyAJDzY9ngEqxRMDo0ABB+ag8IdxG
S51kcdepUW8GMAgoGoVeIXwCn6DLFyx6SnK3rAt8xsLuVYESw53aDRqAuQd19ik5
IGRxrHFnkgVaKu+o349X7l0ifB/h3HVEhqo0fqznB7dw9mxri/Kn52X6V2EoPigz
s+G288fd9PKKg7kPV/AraAgdro1j5hp+N5LeCUGfBQ63ag2n0z6SwZWNPbwbcKUv
1JhiCN/rd9u0KAtXl/AVu0h7XM21/U+n001Vchn2BPCHSitVi14C5N/UnQw/KKEZ
9u6N3+6z3M8wPwSaxz5DWwpGdUlreleVEAu8woDYH/GHdIJgtRFgziYTgOZkdWmX
eiFiTJ4Brt/EcNCHfMPmzu64rkkJ3KH5zQO7qLEsbSsK
-----END CERTIFICATE-----
