Certificate:
    Data:
        Version: 3 (0x2)
        Serial Number: 1765 (0x6e5)
    Signature Algorithm: md5WithRSAEncryption
        Issuer: C=US, ST=OH, L=Columbus, O=VikingVPN, OU=MyOrganizationalUnit, CN=VikingVPN CA/name=EasyRSA/emailAddress=me@myhost.mydomain
        Validity
            Not Before: Apr 29 21:41:33 2014 GMT
            Not After : Apr 26 21:41:33 2024 GMT
        Subject: CN=Client433Cert1a3f2a
        Subject Public Key Info:
            Public Key Algorithm: rsaEncryption
                Public-Key: (4096 bit)
                Modulus:
                    00:94:37:e9:f7:43:1a:dd:5c:02:1c:59:6e:05:d4:
                    35:e1:30:40:ff:03:54:26:90:43:05:81:d8:79:b2:
                    12:6f:28:87:c7:e2:12:fe:b4:38:69:1c:6e:32:83:
                    7c:33:42:67:ab:4c:12:c2:f3:4b:a2:b9:f9:a4:3a:
                    ff:14:98:a2:20:ec:33:27:51:d8:6e:a7:15:dd:11:
                    79:43:31:4f:e1:1c:86:0d:d9:2f:6a:20:47:f9:18:
                    1c:5c:09:11:c9:3a:2c:c7:e3:0e:65:83:72:1a:77:
                    0a:65:89:e5:e0:61:b3:af:58:97:fa:f8:ab:3a:4f:
                    f2:3e:80:db:a7:73:5e:6f:64:4f:ef:4b:48:48:6c:
                    01:06:e2:6c:3f:cb:90:09:56:01:c5:63:3b:cd:5b:
                    f8:9c:c9:95:b2:0b:44:08:bf:65:48:5a:b8:09:91:
                    10:8d:a2:09:70:03:a7:78:22:a5:4e:95:f0:69:7e:
                    96:23:00:bf:19:d2:38:c0:31:f4:9a:09:98:22:11:
                    c0:1e:75:39:b6:d6:b5:92:38:8a:08:8a:e2:0e:75:
                    f3:78:23:ab:55:77:a8:98:a9:92:d0:c5:f8:d5:b8:
                    96:93:9f:f4:2b:fb:41:bc:af:63:59:1b:ff:ad:d1:
                    9d:2e:04:11:1b:b8:8e:38:f1:d8:de:e6:c7:bb:b3:
                    e9:4c:55:30:20:3e:b0:d0:aa:bb:dd:be:69:97:de:
                    63:3c:ab:6c:ec:8e:12:0c:04:d3:5a:1f:73:30:31:
                    36:9d:cd:0a:0d:57:0b:c5:a5:2e:d6:d2:c7:c8:9b:
                    ad:c1:ef:0f:2e:ba:12:d1:5c:c6:c9:62:7e:45:7f:
                    2b:02:61:db:e0:56:3d:c7:7e:2a:f6:c6:df:98:df:
                    32:1b:02:b2:6c:57:06:84:bb:bf:9f:43:4b:a1:93:
                    f6:62:37:13:a0:44:5d:a7:27:de:87:3e:e6:24:4e:
                    95:ff:c0:ef:61:61:ea:77:e8:f4:5b:4d:bb:45:a2:
                    f7:28:bd:5b:df:28:c0:e5:e5:81:32:ec:e1:6a:ab:
                    b4:dd:9c:d1:05:db:e3:db:c3:aa:7a:aa:68:28:aa:
                    72:42:5d:b0:2c:fa:50:5d:ad:57:76:c7:7e:f4:02:
                    be:94:de:ed:3e:29:53:bb:9a:19:bb:2e:d8:25:2a:
                    bc:6a:cf:44:13:31:fa:55:76:6e:ab:53:44:6f:f8:
                    76:73:fd:e9:10:98:c8:8b:af:7e:7b:fc:d7:95:cd:
                    5f:54:e2:84:29:44:c3:29:85:78:a8:bd:0c:51:c3:
                    96:f2:8a:f9:8b:80:69:95:ce:31:11:5e:c1:ca:0f:
                    c7:3c:52:9b:91:0b:d6:2f:e0:ec:ee:5c:20:a5:a1:
                    c0:b1:cd
                Exponent: 65537 (0x10001)
        X509v3 extensions:
            X509v3 Basic Constraints: 
                CA:FALSE
            Netscape Comment: 
                Easy-RSA Generated Certificate
            X509v3 Subject Key Identifier: 
                8A:6F:F2:62:8A:D4:06:46:84:1C:4D:58:3A:19:81:2C:BB:6B:00:7B
            X509v3 Authority Key Identifier: 
                keyid:12:CD:60:04:D2:A0:80:9E:70:ED:C6:99:B8:7B:2C:C6:52:FD:19:A1
                DirName:/C=US/ST=OH/L=Columbus/O=VikingVPN/OU=MyOrganizationalUnit/CN=VikingVPN CA/name=EasyRSA/emailAddress=me@myhost.mydomain
                serial:CF:35:85:EE:80:BF:2A:3E

            X509v3 Extended Key Usage: 
                TLS Web Client Authentication
            X509v3 Key Usage: 
                Digital Signature
    Signature Algorithm: md5WithRSAEncryption
         5c:d3:a1:94:3c:a2:e1:3e:fb:4f:4b:23:28:66:6b:6b:90:d8:
         da:b8:50:53:a3:87:87:4d:a3:b6:19:12:19:52:e6:b4:44:d4:
         cf:c8:d6:9e:69:8e:89:5a:55:79:1b:98:0f:e4:08:a7:78:37:
         cb:3e:b6:18:64:4d:7d:14:c3:27:8a:54:97:93:44:f6:d3:12:
         6a:b7:aa:6e:06:ba:43:f2:43:16:97:c0:fc:c9:80:65:91:91:
         38:4d:44:c2:0d:0e:98:e4:02:9d:ba:2f:08:7f:29:34:65:4d:
         21:ad:73:29:db:7f:ef:9a:34:02:2b:7d:29:24:b1:56:bd:07:
         d7:f4:b0:e0:ab:e4:0b:ce:b1:0a:59:f5:cb:58:76:79:92:f6:
         4a:fb:56:19:d7:ec:d0:07:a4:5a:8e:ed:bd:f6:c5:2f:90:5c:
         df:7f:b2:65:8a:92:3d:2a:87:38:df:26:3e:22:85:52:2e:76:
         ca:bf:7c:a9:70:88:97:1e:5a:aa:f3:cb:be:8f:1c:73:7e:40:
         d1:f2:0c:67:a3:1d:0b:a7:3d:63:ad:ef:6c:d8:89:a4:3c:61:
         00:02:42:54:ee:57:d1:63:6c:b8:52:2c:90:c7:ea:7e:0e:f5:
         02:67:72:53:f6:ae:17:6a:20:4a:d4:c4:89:ad:d8:b7:06:94:
         c7:c8:27:5c:a5:e0:75:56:2f:4a:96:99:60:08:19:af:97:67:
         6f:c8:52:20:a9:42:dd:53:f7:73:cb:1d:73:73:a1:72:f0:95:
         df:38:3c:fa:4f:1f:8a:18:9a:94:d8:0b:0b:f9:03:6c:29:2b:
         07:bd:46:a6:1a:5a:4a:24:ef:e7:e8:ca:dd:9a:14:d9:db:c2:
         41:b2:61:1f:5a:7e:eb:4c:66:a4:6e:33:7d:1a:2c:26:83:51:
         53:07:ab:d5:7b:da:4e:4c:90:7c:05:dd:42:54:5a:43:ab:b1:
         a8:37:9b:1e:7d:e8:80:12:c0:ba:5b:e1:83:e4:4d:35:83:c3:
         6b:05:23:59:3c:9d:5a:f4:bb:fc:8a:4c:f8:56:bd:79:5d:e8:
         f8:21:f3:5a:80:15:e2:b0:8b:9b:5b:c3:51:30:e7:42:8d:ad:
         e4:19:3d:e1:4e:1e:46:01:6b:46:07:4d:2e:55:fb:bc:c7:cc:
         dd:5f:a6:9c:18:22:40:62:ff:54:f1:64:93:f1:cd:76:e1:45:
         3c:c0:34:d4:9f:b4:01:db:71:af:a0:8f:86:a6:bf:3e:01:0d:
         83:32:7a:19:92:8f:12:12:ce:b8:b2:b5:19:52:55:d3:cd:cd:
         b3:75:6a:a0:aa:b3:fd:5e:33:46:ed:88:d2:39:2b:34:43:ff:
         b7:9a:a3:2c:49:ba:b0:89
-----BEGIN CERTIFICATE-----
MIIGrDCCBJSgAwIBAgICBuUwDQYJKoZIhvcNAQEEBQAwgawxCzAJBgNVBAYTAlVT
MQswCQYDVQQIEwJPSDERMA8GA1UEBxMIQ29sdW1idXMxEjAQBgNVBAoTCVZpa2lu
Z1ZQTjEdMBsGA1UECxMUTXlPcmdhbml6YXRpb25hbFVuaXQxFTATBgNVBAMTDFZp
a2luZ1ZQTiBDQTEQMA4GA1UEKRMHRWFzeVJTQTEhMB8GCSqGSIb3DQEJARYSbWVA
bXlob3N0Lm15ZG9tYWluMB4XDTE0MDQyOTIxNDEzM1oXDTI0MDQyNjIxNDEzM1ow
HjEcMBoGA1UEAxMTQ2xpZW50NDMzQ2VydDFhM2YyYTCCAiIwDQYJKoZIhvcNAQEB
BQADggIPADCCAgoCggIBAJQ36fdDGt1cAhxZbgXUNeEwQP8DVCaQQwWB2HmyEm8o
h8fiEv60OGkcbjKDfDNCZ6tMEsLzS6K5+aQ6/xSYoiDsMydR2G6nFd0ReUMxT+Ec
hg3ZL2ogR/kYHFwJEck6LMfjDmWDchp3CmWJ5eBhs69Yl/r4qzpP8j6A26dzXm9k
T+9LSEhsAQbibD/LkAlWAcVjO81b+JzJlbILRAi/ZUhauAmREI2iCXADp3gipU6V
8Gl+liMAvxnSOMAx9JoJmCIRwB51ObbWtZI4igiK4g5183gjq1V3qJipktDF+NW4
lpOf9Cv7QbyvY1kb/63RnS4EERu4jjjx2N7mx7uz6UxVMCA+sNCqu92+aZfeYzyr
bOyOEgwE01ofczAxNp3NCg1XC8WlLtbSx8ibrcHvDy66EtFcxslifkV/KwJh2+BW
Pcd+KvbG35jfMhsCsmxXBoS7v59DS6GT9mI3E6BEXacn3oc+5iROlf/A72Fh6nfo
9FtNu0Wi9yi9W98owOXlgTLs4WqrtN2c0QXb49vDqnqqaCiqckJdsCz6UF2tV3bH
fvQCvpTe7T4pU7uaGbsu2CUqvGrPRBMx+lV2bqtTRG/4dnP96RCYyIuvfnv815XN
X1TihClEwymFeKi9DFHDlvKK+YuAaZXOMRFewcoPxzxSm5EL1i/g7O5cIKWhwLHN
AgMBAAGjggFjMIIBXzAJBgNVHRMEAjAAMC0GCWCGSAGG+EIBDQQgFh5FYXN5LVJT
QSBHZW5lcmF0ZWQgQ2VydGlmaWNhdGUwHQYDVR0OBBYEFIpv8mKK1AZGhBxNWDoZ
gSy7awB7MIHhBgNVHSMEgdkwgdaAFBLNYATSoICecO3Gmbh7LMZS/RmhoYGypIGv
MIGsMQswCQYDVQQGEwJVUzELMAkGA1UECBMCT0gxETAPBgNVBAcTCENvbHVtYnVz
MRIwEAYDVQQKEwlWaWtpbmdWUE4xHTAbBgNVBAsTFE15T3JnYW5pemF0aW9uYWxV
bml0MRUwEwYDVQQDEwxWaWtpbmdWUE4gQ0ExEDAOBgNVBCkTB0Vhc3lSU0ExITAf
BgkqhkiG9w0BCQEWEm1lQG15aG9zdC5teWRvbWFpboIJAM81he6Avyo+MBMGA1Ud
JQQMMAoGCCsGAQUFBwMCMAsGA1UdDwQEAwIHgDANBgkqhkiG9w0BAQQFAAOCAgEA
XNOhlDyi4T77T0sjKGZra5DY2rhQU6OHh02jthkSGVLmtETUz8jWnmmOiVpVeRuY
D+QIp3g3yz62GGRNfRTDJ4pUl5NE9tMSareqbga6Q/JDFpfA/MmAZZGROE1Ewg0O
mOQCnbovCH8pNGVNIa1zKdt/75o0Ait9KSSxVr0H1/Sw4KvkC86xCln1y1h2eZL2
SvtWGdfs0AekWo7tvfbFL5Bc33+yZYqSPSqHON8mPiKFUi52yr98qXCIlx5aqvPL
vo8cc35A0fIMZ6MdC6c9Y63vbNiJpDxhAAJCVO5X0WNsuFIskMfqfg71AmdyU/au
F2ogStTEia3YtwaUx8gnXKXgdVYvSpaZYAgZr5dnb8hSIKlC3VP3c8sdc3OhcvCV
3zg8+k8fihialNgLC/kDbCkrB71GphpaSiTv5+jK3ZoU2dvCQbJhH1p+60xmpG4z
fRosJoNRUwer1XvaTkyQfAXdQlRaQ6uxqDebHn3ogBLAulvhg+RNNYPDawUjWTyd
WvS7/IpM+Fa9eV3o+CHzWoAV4rCLm1vDUTDnQo2t5Bk94U4eRgFrRgdNLlX7vMfM
3V+mnBgiQGL/VPFkk/HNduFFPMA01J+0Adtxr6CPhqa/PgENgzJ6GZKPEhLOuLK1
GVJV083Ns3VqoKqz/V4zRu2I0jkrNEP/t5qjLEm6sIk=
-----END CERTIFICATE-----
