Certificate:
    Data:
        Version: 3 (0x2)
        Serial Number: 7161 (0x1bf9)
    Signature Algorithm: md5WithRSAEncryption
        Issuer: C=US, ST=OH, L=Columbus, O=VikingVPN, OU=MyOrganizationalUnit, CN=VikingVPN CA/name=EasyRSA/emailAddress=me@myhost.mydomain
        Validity
            Not Before: Feb  9 01:49:11 2016 GMT
            Not After : Feb  6 01:49:11 2026 GMT
        Subject: CN=Client21Certf2860f
        Subject Public Key Info:
            Public Key Algorithm: rsaEncryption
                Public-Key: (4096 bit)
                Modulus:
                    00:a0:c5:dd:ec:f2:0b:22:92:27:7c:3b:1b:d0:4f:
                    72:3f:47:5a:68:f5:99:a2:70:1c:be:91:4d:37:cb:
                    e0:21:a2:45:79:78:96:54:20:47:3e:35:6d:33:58:
                    af:a8:9d:de:2d:80:e9:c1:0f:1c:f8:f0:67:c7:86:
                    0b:4f:77:ac:09:3c:b6:23:42:ae:eb:28:c9:a7:89:
                    ff:98:ef:a4:81:e3:c5:15:61:82:bd:80:5b:f7:56:
                    2b:99:aa:2a:6e:77:89:71:b8:e7:a6:6f:04:79:bf:
                    1b:1b:5f:2c:b7:39:3b:fe:f7:ed:49:09:4e:43:7f:
                    d8:6b:4f:9c:a9:0c:f8:20:a3:f0:b7:46:d4:88:06:
                    39:76:4f:3b:9e:21:6c:5b:6f:92:12:f1:59:e5:98:
                    cf:65:4b:a9:c5:53:8b:a9:76:ae:4f:0c:ec:8b:6a:
                    25:75:16:fd:1a:04:e4:bb:d7:ce:63:67:8b:f9:c3:
                    a6:8a:b9:b4:d4:f7:53:06:2e:3d:af:ae:21:32:ca:
                    4a:43:1b:db:f3:cc:16:05:a8:17:ea:ca:a7:ff:d2:
                    47:de:27:cd:b7:51:30:5d:ef:8e:cb:f1:12:65:17:
                    72:e2:f3:7a:a9:ee:bd:e1:76:76:1d:0f:dd:f1:d9:
                    8a:36:d0:7e:1c:52:37:d2:12:14:0e:ae:6f:43:93:
                    46:45:9e:84:66:7f:21:a8:27:10:de:f3:e5:2c:ee:
                    f2:17:77:e6:54:8d:88:d3:63:75:de:b2:74:26:9d:
                    1f:f4:1c:ed:08:63:05:94:5d:9b:55:92:01:62:6b:
                    1c:24:f5:cf:77:3d:1e:20:bc:82:f9:bc:32:a4:7f:
                    46:d6:0a:8a:9e:c6:7b:3c:53:13:05:4c:8b:3b:fe:
                    b1:d7:b4:8f:18:09:74:ea:6f:f2:19:2e:53:59:14:
                    5c:1f:0b:ed:43:11:c0:69:8a:c1:96:5c:a0:5a:05:
                    59:b7:2d:56:53:e3:49:18:8f:80:02:02:8b:f8:3d:
                    a1:88:ac:20:65:3a:d8:5e:57:87:cd:17:ec:a2:a8:
                    42:4c:a4:3d:51:08:b7:bd:ca:ef:9d:57:e0:be:1e:
                    de:50:0f:ef:65:fb:35:d6:d5:f0:ee:72:97:64:3f:
                    d6:ec:91:23:78:03:af:a4:98:1e:4d:4d:ad:82:ca:
                    56:34:a6:81:5b:a2:a4:b6:0d:f2:57:2b:b0:92:90:
                    68:c3:53:63:49:12:8a:de:fd:53:6d:cf:7d:73:34:
                    62:1a:4b:95:b7:54:0f:33:2d:a3:ec:a0:06:e6:d3:
                    e8:be:37:90:e5:d4:84:09:b4:f6:38:ae:2b:bb:be:
                    0d:ff:35:9d:4c:bc:69:71:11:d6:2f:dc:0a:1a:a2:
                    f7:77:4f
                Exponent: 65537 (0x10001)
        X509v3 extensions:
            X509v3 Basic Constraints: 
                CA:FALSE
            Netscape Comment: 
                Easy-RSA Generated Certificate
            X509v3 Subject Key Identifier: 
                8C:C3:95:DE:67:4C:2A:A0:DD:D8:29:BA:A4:7D:6C:F5:95:12:42:18
            X509v3 Authority Key Identifier: 
                keyid:12:CD:60:04:D2:A0:80:9E:70:ED:C6:99:B8:7B:2C:C6:52:FD:19:A1
                DirName:/C=US/ST=OH/L=Columbus/O=VikingVPN/OU=MyOrganizationalUnit/CN=VikingVPN CA/name=EasyRSA/emailAddress=me@myhost.mydomain
                serial:CF:35:85:EE:80:BF:2A:3E

            X509v3 Extended Key Usage: 
                TLS Web Client Authentication
            X509v3 Key Usage: 
                Digital Signature
    Signature Algorithm: md5WithRSAEncryption
         e8:b0:d4:ac:66:33:6b:2e:91:86:d6:65:3c:55:77:c8:4d:39:
         bb:c8:ac:2f:71:c5:ef:82:92:ae:10:c7:29:bc:42:60:61:cb:
         8e:58:ac:f9:56:86:d7:c5:82:a3:63:06:a2:2e:86:ee:db:16:
         10:c6:e4:c5:ed:64:35:71:d2:20:0a:f6:84:ad:fb:0f:80:c1:
         b2:d7:7c:f3:63:7e:3a:f3:7b:09:e0:cf:1a:17:13:5e:bb:9e:
         6b:2b:7b:bd:c3:5c:99:1c:ec:1e:8d:bb:e7:f0:31:42:b2:d4:
         05:25:9e:46:1e:88:fc:dd:5e:77:b8:9d:35:bc:04:64:e4:a4:
         81:88:9e:4d:d1:da:4d:96:47:d1:b8:d7:d4:71:f8:d3:28:cc:
         51:b0:83:b7:6a:00:96:a4:1e:e0:06:0d:4e:e9:78:97:23:33:
         fd:4a:09:72:5f:d1:20:f4:58:ca:ea:32:cf:63:bf:8f:8c:ed:
         04:a0:9f:77:1c:a1:b4:09:f5:ac:fc:7c:28:4a:78:fd:67:d5:
         cb:3f:fd:26:d1:0b:b4:dd:32:27:04:23:70:c2:8e:1f:5e:08:
         90:2e:74:24:66:97:c8:40:cb:19:2e:73:44:a3:b0:ef:4c:3b:
         aa:92:4a:f4:13:0f:f6:ef:1c:c9:5d:9c:0c:5b:c1:73:f4:34:
         d6:dc:ab:d4:39:83:c8:c8:71:c5:0d:19:32:a3:7d:0b:63:0b:
         66:6f:72:2b:49:30:c1:b5:9a:e8:82:d3:c4:7c:84:5a:e4:b0:
         8c:f3:03:a0:4c:6b:99:b3:78:71:51:7d:dc:d4:a4:1a:e0:eb:
         fd:a9:62:68:83:ae:0a:3a:48:9a:4e:74:b0:bb:8b:9e:d3:18:
         9e:41:f6:40:4c:89:09:71:99:91:fb:4f:9b:79:95:64:ad:3e:
         b9:61:9c:87:80:ab:04:ac:60:f9:46:b3:fc:f1:e4:06:5e:62:
         83:b0:41:26:58:02:db:5f:01:c7:cb:14:9e:1b:97:ef:63:8a:
         19:40:c8:14:ae:00:12:6f:3c:2a:31:46:00:57:13:ca:65:34:
         16:d0:02:e8:98:e1:b6:3b:ad:c2:2e:ad:d6:3d:6d:89:02:85:
         a5:4a:0a:bd:50:a6:9b:cf:35:94:6d:f3:b8:33:62:6e:12:f1:
         1e:18:57:c2:4f:39:a4:20:1a:a8:01:a4:52:12:45:c4:72:50:
         13:e8:ee:4a:6c:05:55:fa:05:6d:f3:bd:2a:68:53:58:6e:c9:
         d5:9d:52:e8:69:6d:a9:52:06:a7:cb:d9:45:a8:1a:67:b4:09:
         03:15:12:09:24:fd:8a:41:11:8e:aa:03:16:7a:62:fa:4a:dd:
         9d:57:2f:93:e2:c0:3c:dc
-----BEGIN CERTIFICATE-----
MIIGqzCCBJOgAwIBAgICG/kwDQYJKoZIhvcNAQEEBQAwgawxCzAJBgNVBAYTAlVT
MQswCQYDVQQIEwJPSDERMA8GA1UEBxMIQ29sdW1idXMxEjAQBgNVBAoTCVZpa2lu
Z1ZQTjEdMBsGA1UECxMUTXlPcmdhbml6YXRpb25hbFVuaXQxFTATBgNVBAMTDFZp
a2luZ1ZQTiBDQTEQMA4GA1UEKRMHRWFzeVJTQTEhMB8GCSqGSIb3DQEJARYSbWVA
bXlob3N0Lm15ZG9tYWluMB4XDTE2MDIwOTAxNDkxMVoXDTI2MDIwNjAxNDkxMVow
HTEbMBkGA1UEAxMSQ2xpZW50MjFDZXJ0ZjI4NjBmMIICIjANBgkqhkiG9w0BAQEF
AAOCAg8AMIICCgKCAgEAoMXd7PILIpInfDsb0E9yP0daaPWZonAcvpFNN8vgIaJF
eXiWVCBHPjVtM1ivqJ3eLYDpwQ8c+PBnx4YLT3esCTy2I0Ku6yjJp4n/mO+kgePF
FWGCvYBb91YrmaoqbneJcbjnpm8Eeb8bG18stzk7/vftSQlOQ3/Ya0+cqQz4IKPw
t0bUiAY5dk87niFsW2+SEvFZ5ZjPZUupxVOLqXauTwzsi2oldRb9GgTku9fOY2eL
+cOmirm01PdTBi49r64hMspKQxvb88wWBagX6sqn/9JH3ifNt1EwXe+Oy/ESZRdy
4vN6qe694XZ2HQ/d8dmKNtB+HFI30hIUDq5vQ5NGRZ6EZn8hqCcQ3vPlLO7yF3fm
VI2I02N13rJ0Jp0f9BztCGMFlF2bVZIBYmscJPXPdz0eILyC+bwypH9G1gqKnsZ7
PFMTBUyLO/6x17SPGAl06m/yGS5TWRRcHwvtQxHAaYrBllygWgVZty1WU+NJGI+A
AgKL+D2hiKwgZTrYXleHzRfsoqhCTKQ9UQi3vcrvnVfgvh7eUA/vZfs11tXw7nKX
ZD/W7JEjeAOvpJgeTU2tgspWNKaBW6Kktg3yVyuwkpBow1NjSRKK3v1Tbc99czRi
GkuVt1QPMy2j7KAG5tPovjeQ5dSECbT2OK4ru74N/zWdTLxpcRHWL9wKGqL3d08C
AwEAAaOCAWMwggFfMAkGA1UdEwQCMAAwLQYJYIZIAYb4QgENBCAWHkVhc3ktUlNB
IEdlbmVyYXRlZCBDZXJ0aWZpY2F0ZTAdBgNVHQ4EFgQUjMOV3mdMKqDd2Cm6pH1s
9ZUSQhgwgeEGA1UdIwSB2TCB1oAUEs1gBNKggJ5w7caZuHssxlL9GaGhgbKkga8w
gawxCzAJBgNVBAYTAlVTMQswCQYDVQQIEwJPSDERMA8GA1UEBxMIQ29sdW1idXMx
EjAQBgNVBAoTCVZpa2luZ1ZQTjEdMBsGA1UECxMUTXlPcmdhbml6YXRpb25hbFVu
aXQxFTATBgNVBAMTDFZpa2luZ1ZQTiBDQTEQMA4GA1UEKRMHRWFzeVJTQTEhMB8G
CSqGSIb3DQEJARYSbWVAbXlob3N0Lm15ZG9tYWluggkAzzWF7oC/Kj4wEwYDVR0l
BAwwCgYIKwYBBQUHAwIwCwYDVR0PBAQDAgeAMA0GCSqGSIb3DQEBBAUAA4ICAQDo
sNSsZjNrLpGG1mU8VXfITTm7yKwvccXvgpKuEMcpvEJgYcuOWKz5VobXxYKjYwai
Lobu2xYQxuTF7WQ1cdIgCvaErfsPgMGy13zzY34683sJ4M8aFxNeu55rK3u9w1yZ
HOwejbvn8DFCstQFJZ5GHoj83V53uJ01vARk5KSBiJ5N0dpNlkfRuNfUcfjTKMxR
sIO3agCWpB7gBg1O6XiXIzP9SglyX9Eg9FjK6jLPY7+PjO0EoJ93HKG0CfWs/Hwo
Snj9Z9XLP/0m0Qu03TInBCNwwo4fXgiQLnQkZpfIQMsZLnNEo7DvTDuqkkr0Ew/2
7xzJXZwMW8Fz9DTW3KvUOYPIyHHFDRkyo30LYwtmb3IrSTDBtZrogtPEfIRa5LCM
8wOgTGuZs3hxUX3c1KQa4Ov9qWJog64KOkiaTnSwu4ue0xieQfZATIkJcZmR+0+b
eZVkrT65YZyHgKsErGD5RrP88eQGXmKDsEEmWALbXwHHyxSeG5fvY4oZQMgUrgAS
bzwqMUYAVxPKZTQW0ALomOG2O63CLq3WPW2JAoWlSgq9UKabzzWUbfO4M2JuEvEe
GFfCTzmkIBqoAaRSEkXEclAT6O5KbAVV+gVt870qaFNYbsnVnVLoaW2pUgany9lF
qBpntAkDFRIJJP2KQRGOqgMWemL6St2dVy+T4sA83A==
-----END CERTIFICATE-----
