Certificate:
    Data:
        Version: 3 (0x2)
        Serial Number: 10553 (0x2939)
    Signature Algorithm: sha256WithRSAEncryption
        Issuer: C=US, ST=OH, L=Columbus, O=VikingVPN, OU=MyOrganizationalUnit, CN=VikingVPN CA/name=EasyRSA/emailAddress=me@myhost.mydomain
        Validity
            Not Before: Apr  5 17:57:43 2017 GMT
            Not After : Apr  3 17:57:43 2027 GMT
        Subject: CN=Client2841Certf72b30
        Subject Public Key Info:
            Public Key Algorithm: rsaEncryption
                Public-Key: (4096 bit)
                Modulus:
                    00:b2:32:4d:3f:51:9d:7a:58:af:08:fa:1a:6f:8b:
                    1f:50:be:89:31:86:9c:39:dd:fb:ec:cb:2c:20:e4:
                    9a:01:a5:a5:bc:6e:0e:42:06:67:8e:52:83:c3:fa:
                    35:19:f2:74:72:0a:09:83:a2:d9:56:18:22:e0:20:
                    73:4b:f5:d9:4d:f0:ec:7f:cd:9b:e2:a5:f0:25:4b:
                    07:af:e2:7a:68:ac:04:fb:e3:f0:ca:cc:d2:85:31:
                    ff:9c:b0:14:74:57:d3:4c:23:ca:79:70:bf:bd:94:
                    2f:0d:71:f6:ca:5d:8f:44:3e:1a:1f:6d:25:e3:3b:
                    bd:06:af:50:9c:c9:ed:04:49:10:bd:17:6a:0f:7e:
                    f0:b9:9c:1e:01:d4:ab:73:ad:15:0f:2f:3e:ab:c1:
                    09:be:89:ca:50:7b:50:79:38:f7:82:ce:e3:e7:49:
                    a0:ef:08:88:2a:db:b9:39:4e:1e:c6:cb:72:f2:19:
                    6a:e9:69:4c:9e:e5:70:4f:ee:13:d2:0b:11:15:b8:
                    84:0a:00:d1:0f:fb:ba:ca:65:02:5d:2e:70:d6:0b:
                    54:26:79:bf:3f:45:9b:24:a1:d6:34:8e:d4:d3:2d:
                    f5:f8:af:16:46:0f:f2:7b:5d:84:5a:e5:13:8d:ce:
                    2c:a8:3b:c2:60:aa:23:50:54:a9:a7:4d:56:5d:1e:
                    ea:58:76:86:68:ea:92:a1:d4:0b:d7:6c:79:0d:f3:
                    58:41:56:f0:c4:39:b7:74:51:fc:27:c0:15:3f:e9:
                    99:74:cf:65:96:33:dd:65:e3:3c:24:55:57:25:34:
                    6e:26:9d:52:1f:b1:95:4e:5d:06:53:1d:42:a7:23:
                    62:41:fd:45:7d:15:f0:65:cc:0b:04:7e:59:0c:c1:
                    61:72:a4:6e:22:9b:26:84:ca:7f:55:dd:21:f2:1d:
                    fa:a5:70:f1:a6:e8:c1:c4:db:9c:96:41:3c:84:4e:
                    4a:e3:a6:5d:e3:2b:e6:0a:6d:70:ad:96:f2:32:c0:
                    5c:4e:86:31:52:9d:dd:df:a3:60:95:82:64:2d:0f:
                    c4:7d:85:dd:40:db:c1:a9:5f:7f:38:30:6c:ff:d0:
                    2b:89:8f:bf:8e:35:ac:82:92:35:4b:51:dd:bd:f5:
                    28:32:88:87:0c:37:4b:34:bd:1f:02:27:6a:b1:5d:
                    b3:c8:ab:91:03:a1:e1:e7:a2:a5:41:1a:29:76:1d:
                    6a:85:55:54:72:2a:4f:38:01:f5:35:ec:63:02:d2:
                    53:81:f9:10:6a:ba:54:7c:89:94:64:5a:15:75:ac:
                    03:fc:50:46:13:b4:d9:ee:8e:7b:a1:51:4d:31:13:
                    a9:06:ed:6f:87:d6:e3:1f:36:c1:65:27:f0:33:0b:
                    5b:d3:3d
                Exponent: 65537 (0x10001)
        X509v3 extensions:
            X509v3 Basic Constraints: 
                CA:FALSE
            Netscape Comment: 
                Easy-RSA Generated Certificate
            X509v3 Subject Key Identifier: 
                00:87:15:88:3B:06:7F:17:1D:9D:3C:03:3B:99:BB:AF:F5:30:1E:0D
            X509v3 Authority Key Identifier: 
                keyid:12:CD:60:04:D2:A0:80:9E:70:ED:C6:99:B8:7B:2C:C6:52:FD:19:A1
                DirName:/C=US/ST=OH/L=Columbus/O=VikingVPN/OU=MyOrganizationalUnit/CN=VikingVPN CA/name=EasyRSA/emailAddress=me@myhost.mydomain
                serial:CF:35:85:EE:80:BF:2A:3E

            X509v3 Extended Key Usage: 
                TLS Web Client Authentication
            X509v3 Key Usage: 
                Digital Signature
    Signature Algorithm: sha256WithRSAEncryption
         4f:c1:de:90:0d:16:4d:fc:54:d3:7e:68:be:9e:4d:f7:ef:e1:
         7c:33:ae:e7:d1:a6:c1:6d:ab:59:5c:57:30:1d:fa:9c:3b:8a:
         59:2c:0f:42:b5:7b:72:be:f7:3b:d7:b5:29:66:54:cb:5f:c3:
         73:a4:c5:67:e9:b3:c1:f2:82:81:64:e2:91:17:50:42:ed:2e:
         ad:00:36:41:03:3c:39:e2:e9:27:55:77:3a:2c:6b:ba:33:1e:
         54:d1:2f:92:3f:5b:13:ca:43:b8:3a:cf:93:61:ae:2a:ba:df:
         ab:76:97:97:f1:59:ac:11:08:45:ef:89:53:c1:62:2f:d3:1c:
         c1:a4:32:2d:be:f4:39:02:8e:5c:cb:c6:41:b0:05:c0:c4:0f:
         3e:56:68:15:87:cd:2a:f0:8e:b3:7a:f2:4b:29:73:ca:e3:d6:
         fc:6f:20:30:71:da:9d:be:8f:38:c7:e5:d8:3a:95:14:19:38:
         7f:5b:b6:2d:03:b8:ec:3f:a4:31:73:ab:99:da:31:a1:00:28:
         fd:c5:ee:78:60:6f:f4:93:eb:a6:26:93:5e:94:22:4b:6a:c0:
         c0:73:97:a9:0c:96:cc:93:eb:75:3e:90:a1:fd:26:d1:32:90:
         16:8c:fe:af:d2:87:f7:7b:c3:eb:9b:90:1f:e7:7d:98:07:26:
         40:64:8f:88:23:cd:fd:cd:36:92:24:e7:49:67:c6:c1:f9:b2:
         ee:cf:46:53:30:01:50:ea:39:cb:82:80:d9:2c:38:90:bf:7c:
         a2:27:e7:ed:cb:50:11:ee:38:ef:84:fd:8e:9d:f8:9a:75:66:
         e7:28:b2:a1:36:c3:eb:1f:fd:63:de:c0:d4:26:c7:d1:2b:80:
         13:aa:d5:14:c8:89:68:f8:ac:98:54:d8:2f:e8:dd:af:ce:83:
         dc:f1:d1:43:0c:1c:73:27:7b:a0:0d:62:8b:0b:55:f3:52:20:
         1d:6c:58:f2:07:5e:69:d6:ad:66:9c:b9:03:13:4c:59:da:d6:
         a3:fc:7a:e5:e0:f1:c6:da:ac:fe:44:b4:2e:bd:c2:19:00:38:
         b5:93:02:e0:c5:3d:7f:5c:3c:d4:50:01:4f:e6:9e:08:d4:f3:
         29:06:a4:2e:2d:3d:38:77:b6:9c:b3:f9:41:56:5b:da:d6:dc:
         40:d2:bd:1f:51:b4:72:4b:a1:48:13:7d:59:0f:e5:5b:6d:ea:
         ae:20:4a:f4:a6:4a:e5:9c:3e:bb:67:9e:44:9c:fd:0b:73:5a:
         4e:ba:8c:39:3f:07:16:ee:b6:d4:3d:e9:4b:d6:06:c2:8e:03:
         8c:3c:13:10:57:10:64:3f:55:c5:18:ae:28:0f:08:4f:bc:76:
         7e:08:e0:98:c6:f8:88:b3
-----BEGIN CERTIFICATE-----
MIIGrTCCBJWgAwIBAgICKTkwDQYJKoZIhvcNAQELBQAwgawxCzAJBgNVBAYTAlVT
MQswCQYDVQQIEwJPSDERMA8GA1UEBxMIQ29sdW1idXMxEjAQBgNVBAoTCVZpa2lu
Z1ZQTjEdMBsGA1UECxMUTXlPcmdhbml6YXRpb25hbFVuaXQxFTATBgNVBAMTDFZp
a2luZ1ZQTiBDQTEQMA4GA1UEKRMHRWFzeVJTQTEhMB8GCSqGSIb3DQEJARYSbWVA
bXlob3N0Lm15ZG9tYWluMB4XDTE3MDQwNTE3NTc0M1oXDTI3MDQwMzE3NTc0M1ow
HzEdMBsGA1UEAxMUQ2xpZW50Mjg0MUNlcnRmNzJiMzAwggIiMA0GCSqGSIb3DQEB
AQUAA4ICDwAwggIKAoICAQCyMk0/UZ16WK8I+hpvix9Qvokxhpw53fvsyywg5JoB
paW8bg5CBmeOUoPD+jUZ8nRyCgmDotlWGCLgIHNL9dlN8Ox/zZvipfAlSwev4npo
rAT74/DKzNKFMf+csBR0V9NMI8p5cL+9lC8NcfbKXY9EPhofbSXjO70Gr1Ccye0E
SRC9F2oPfvC5nB4B1KtzrRUPLz6rwQm+icpQe1B5OPeCzuPnSaDvCIgq27k5Th7G
y3LyGWrpaUye5XBP7hPSCxEVuIQKANEP+7rKZQJdLnDWC1Qmeb8/RZskodY0jtTT
LfX4rxZGD/J7XYRa5RONziyoO8JgqiNQVKmnTVZdHupYdoZo6pKh1AvXbHkN81hB
VvDEObd0UfwnwBU/6Zl0z2WWM91l4zwkVVclNG4mnVIfsZVOXQZTHUKnI2JB/UV9
FfBlzAsEflkMwWFypG4imyaEyn9V3SHyHfqlcPGm6MHE25yWQTyETkrjpl3jK+YK
bXCtlvIywFxOhjFSnd3fo2CVgmQtD8R9hd1A28GpX384MGz/0CuJj7+ONayCkjVL
Ud299SgyiIcMN0s0vR8CJ2qxXbPIq5EDoeHnoqVBGil2HWqFVVRyKk84AfU17GMC
0lOB+RBqulR8iZRkWhV1rAP8UEYTtNnujnuhUU0xE6kG7W+H1uMfNsFlJ/AzC1vT
PQIDAQABo4IBYzCCAV8wCQYDVR0TBAIwADAtBglghkgBhvhCAQ0EIBYeRWFzeS1S
U0EgR2VuZXJhdGVkIENlcnRpZmljYXRlMB0GA1UdDgQWBBQAhxWIOwZ/Fx2dPAM7
mbuv9TAeDTCB4QYDVR0jBIHZMIHWgBQSzWAE0qCAnnDtxpm4eyzGUv0ZoaGBsqSB
rzCBrDELMAkGA1UEBhMCVVMxCzAJBgNVBAgTAk9IMREwDwYDVQQHEwhDb2x1bWJ1
czESMBAGA1UEChMJVmlraW5nVlBOMR0wGwYDVQQLExRNeU9yZ2FuaXphdGlvbmFs
VW5pdDEVMBMGA1UEAxMMVmlraW5nVlBOIENBMRAwDgYDVQQpEwdFYXN5UlNBMSEw
HwYJKoZIhvcNAQkBFhJtZUBteWhvc3QubXlkb21haW6CCQDPNYXugL8qPjATBgNV
HSUEDDAKBggrBgEFBQcDAjALBgNVHQ8EBAMCB4AwDQYJKoZIhvcNAQELBQADggIB
AE/B3pANFk38VNN+aL6eTffv4XwzrufRpsFtq1lcVzAd+pw7ilksD0K1e3K+9zvX
tSlmVMtfw3OkxWfps8HygoFk4pEXUELtLq0ANkEDPDni6SdVdzosa7ozHlTRL5I/
WxPKQ7g6z5Nhriq636t2l5fxWawRCEXviVPBYi/THMGkMi2+9DkCjlzLxkGwBcDE
Dz5WaBWHzSrwjrN68kspc8rj1vxvIDBx2p2+jzjH5dg6lRQZOH9bti0DuOw/pDFz
q5naMaEAKP3F7nhgb/ST66Ymk16UIktqwMBzl6kMlsyT63U+kKH9JtEykBaM/q/S
h/d7w+ubkB/nfZgHJkBkj4gjzf3NNpIk50lnxsH5su7PRlMwAVDqOcuCgNksOJC/
fKIn5+3LUBHuOO+E/Y6d+Jp1ZucosqE2w+sf/WPewNQmx9ErgBOq1RTIiWj4rJhU
2C/o3a/Og9zx0UMMHHMne6ANYosLVfNSIB1sWPIHXmnWrWacuQMTTFna1qP8euXg
8cbarP5EtC69whkAOLWTAuDFPX9cPNRQAU/mngjU8ykGpC4tPTh3tpyz+UFWW9rW
3EDSvR9RtHJLoUgTfVkP5Vtt6q4gSvSmSuWcPrtnnkSc/QtzWk66jDk/BxbuttQ9
6UvWBsKOA4w8ExBXEGQ/VcUYrigPCE+8dn4I4JjG+Iiz
-----END CERTIFICATE-----
