Certificate:
    Data:
        Version: 3 (0x2)
        Serial Number: 1834 (0x72a)
    Signature Algorithm: md5WithRSAEncryption
        Issuer: C=US, ST=OH, L=Columbus, O=VikingVPN, OU=MyOrganizationalUnit, CN=VikingVPN CA/name=EasyRSA/emailAddress=me@myhost.mydomain
        Validity
            Not Before: May  6 05:50:44 2014 GMT
            Not After : May  3 05:50:44 2024 GMT
        Subject: CN=Client639Certf52425
        Subject Public Key Info:
            Public Key Algorithm: rsaEncryption
                Public-Key: (4096 bit)
                Modulus:
                    00:bb:c8:af:c1:15:62:0c:59:cd:6b:62:2f:37:34:
                    3c:bd:64:64:6e:f2:2e:93:3e:0a:dc:a8:72:8f:52:
                    2e:84:87:b6:1f:7f:f8:3b:ea:e8:51:ed:c4:31:59:
                    0c:7f:d4:9d:78:56:5c:4d:a0:05:a4:1c:c5:88:42:
                    16:88:15:35:23:4d:ce:ba:6c:f7:f8:48:97:9a:45:
                    ba:3b:b0:9a:9c:37:34:a5:86:b1:4e:0f:11:74:9d:
                    8b:95:2e:02:23:3e:22:48:41:92:83:89:2a:6a:f3:
                    a7:d3:6d:ad:dc:ed:af:22:63:b1:d5:02:cd:ba:a6:
                    d4:8c:c8:c4:d0:14:90:00:38:cc:4a:57:27:50:52:
                    f9:90:af:cf:cf:1b:07:97:d4:e9:f8:e9:36:d0:76:
                    96:a2:a9:77:97:b7:51:f5:fb:b5:a9:6e:58:96:ae:
                    26:ea:65:d7:db:89:aa:74:6e:11:79:92:73:e9:8c:
                    4c:4a:d7:ca:37:92:21:27:bc:f0:f9:09:b1:a9:b9:
                    ff:54:8a:0c:5d:d4:ea:8c:2c:d6:8b:16:00:b0:37:
                    db:ff:af:0e:ba:52:52:11:f2:1a:0b:31:40:65:c2:
                    8f:92:59:ca:2c:75:76:e2:ee:f9:41:83:fa:46:3f:
                    36:2c:1c:21:64:2f:8a:5a:83:67:34:12:8a:e4:4f:
                    d3:b1:c8:73:25:b8:05:37:68:5b:01:d0:52:ff:a6:
                    b8:c9:c0:16:6f:2a:39:b2:01:2f:18:38:91:d9:61:
                    9d:51:40:a8:5c:44:bc:14:92:87:17:df:f2:e2:f3:
                    1f:d4:7f:d1:ab:72:1b:74:ef:f0:bf:19:4f:e0:df:
                    67:31:ce:e9:2b:b6:81:9f:93:55:c2:46:f8:de:54:
                    4e:33:a3:2b:cd:8e:32:b6:8e:3b:72:53:e2:7c:b7:
                    ac:c6:fb:08:f0:6a:d4:cc:01:56:8e:db:7c:08:f8:
                    f9:df:a8:14:52:ed:3a:ca:42:ce:a8:f7:9b:55:83:
                    02:b0:bd:7f:02:61:9a:ec:d0:37:5a:4d:12:00:cf:
                    73:12:ad:f7:39:b8:25:b6:1b:7f:24:f3:50:16:d6:
                    92:3f:ff:c8:08:32:98:e6:70:73:5e:28:bd:2a:d5:
                    c5:e3:10:57:4e:6c:51:ac:f7:20:e8:d8:d6:15:8f:
                    89:35:ce:5a:79:b7:1e:8e:d1:d3:37:2b:e8:a2:62:
                    7f:40:e1:12:ab:aa:6c:b6:f1:c1:02:27:f9:7a:2f:
                    42:3f:5b:fc:f9:74:b7:39:68:fd:f7:54:b0:d0:57:
                    85:e2:fd:11:94:b3:91:f8:6a:bb:f9:4f:f7:a9:31:
                    de:97:ad:b4:f7:c7:a3:cc:ee:04:a8:f2:6f:a5:64:
                    91:05:9d
                Exponent: 65537 (0x10001)
        X509v3 extensions:
            X509v3 Basic Constraints: 
                CA:FALSE
            Netscape Comment: 
                Easy-RSA Generated Certificate
            X509v3 Subject Key Identifier: 
                BF:D5:3C:51:08:30:82:36:EC:EC:0C:44:FA:E3:24:B4:A3:DB:56:19
            X509v3 Authority Key Identifier: 
                keyid:12:CD:60:04:D2:A0:80:9E:70:ED:C6:99:B8:7B:2C:C6:52:FD:19:A1
                DirName:/C=US/ST=OH/L=Columbus/O=VikingVPN/OU=MyOrganizationalUnit/CN=VikingVPN CA/name=EasyRSA/emailAddress=me@myhost.mydomain
                serial:CF:35:85:EE:80:BF:2A:3E

            X509v3 Extended Key Usage: 
                TLS Web Client Authentication
            X509v3 Key Usage: 
                Digital Signature
    Signature Algorithm: md5WithRSAEncryption
         6a:b6:2c:c0:6e:86:a4:21:ad:c0:a1:e7:e8:d8:17:af:bf:9e:
         52:2a:2b:34:ac:44:e0:68:25:6d:97:6d:ab:4f:54:ec:25:98:
         3d:20:02:17:09:fa:80:43:b1:43:aa:c8:45:f2:94:ff:1a:d2:
         73:27:c4:e8:08:83:de:d6:dc:24:76:1b:91:9b:4c:ad:fd:30:
         18:e6:d4:dc:8a:42:4c:28:64:ae:26:72:18:78:27:5e:e7:18:
         90:6a:30:da:14:47:92:6c:54:3c:5b:8d:d9:82:0a:d9:0f:a7:
         9f:b5:db:77:93:b6:5b:3d:5a:6a:a0:43:9d:bb:35:2a:96:f8:
         3f:c4:41:61:d4:ae:4c:75:1d:24:0a:59:30:45:a6:3a:e2:4f:
         01:a1:f2:e1:b9:ab:8c:fc:68:ff:21:1f:40:dd:bd:a1:9a:8e:
         ea:03:ef:dd:ef:40:96:b2:9c:89:b0:7b:06:ce:8d:39:b1:79:
         d6:fc:e6:46:f1:08:0e:9e:87:70:9c:1e:f0:b7:99:51:9c:5e:
         4a:03:4b:b9:b3:34:02:dc:1a:fc:d5:f2:51:16:07:41:bb:a8:
         18:3b:7e:ad:e5:37:60:7c:ee:2c:5a:f5:df:68:75:d4:8c:96:
         bc:d5:7c:33:0f:81:f7:2b:d2:cd:32:41:5a:fc:8c:1a:01:69:
         d9:39:04:9c:e1:51:25:f1:5d:a5:93:4e:56:90:24:5b:c0:33:
         11:9b:7b:9c:29:73:22:22:4d:db:af:85:0e:2d:93:ae:5a:39:
         d2:25:2d:87:84:ac:7f:f4:22:4d:53:65:da:da:fd:57:5c:37:
         46:02:ba:9c:93:25:e5:71:ea:ba:38:8d:b3:ed:58:35:b9:d5:
         b1:ba:3e:d0:6e:fb:23:a8:6a:8f:7d:43:74:70:f4:3b:66:34:
         b5:8f:0f:b8:ce:38:e1:2a:5d:c0:45:40:15:5f:dd:86:74:00:
         5f:84:49:f4:ba:70:2c:02:e8:62:2d:99:05:b4:dd:86:c1:03:
         d0:36:7f:d7:e7:56:5b:ca:c2:69:16:1b:55:ff:92:07:44:07:
         65:8b:32:91:08:cc:37:db:cc:51:9a:ca:30:c3:e6:b3:bc:10:
         a8:ca:35:03:97:5a:b6:3f:79:e1:97:74:9c:18:5e:03:de:3b:
         28:64:89:45:b6:4b:1b:bb:29:dd:f1:8a:79:07:0a:cd:fc:b3:
         29:01:80:2a:4a:4e:cb:21:80:a5:55:7d:69:38:f6:cf:20:69:
         f6:03:c8:8f:f1:40:f7:d7:e3:d9:1b:85:3b:82:83:66:52:48:
         0c:f7:5c:c3:05:0c:6b:8f:08:10:12:4d:e0:c2:07:58:62:90:
         f5:f6:82:5a:70:61:e8:d9
-----BEGIN CERTIFICATE-----
MIIGrDCCBJSgAwIBAgICByowDQYJKoZIhvcNAQEEBQAwgawxCzAJBgNVBAYTAlVT
MQswCQYDVQQIEwJPSDERMA8GA1UEBxMIQ29sdW1idXMxEjAQBgNVBAoTCVZpa2lu
Z1ZQTjEdMBsGA1UECxMUTXlPcmdhbml6YXRpb25hbFVuaXQxFTATBgNVBAMTDFZp
a2luZ1ZQTiBDQTEQMA4GA1UEKRMHRWFzeVJTQTEhMB8GCSqGSIb3DQEJARYSbWVA
bXlob3N0Lm15ZG9tYWluMB4XDTE0MDUwNjA1NTA0NFoXDTI0MDUwMzA1NTA0NFow
HjEcMBoGA1UEAxMTQ2xpZW50NjM5Q2VydGY1MjQyNTCCAiIwDQYJKoZIhvcNAQEB
BQADggIPADCCAgoCggIBALvIr8EVYgxZzWtiLzc0PL1kZG7yLpM+Ctyoco9SLoSH
th9/+Dvq6FHtxDFZDH/UnXhWXE2gBaQcxYhCFogVNSNNzrps9/hIl5pFujuwmpw3
NKWGsU4PEXSdi5UuAiM+IkhBkoOJKmrzp9NtrdztryJjsdUCzbqm1IzIxNAUkAA4
zEpXJ1BS+ZCvz88bB5fU6fjpNtB2lqKpd5e3UfX7taluWJauJupl19uJqnRuEXmS
c+mMTErXyjeSISe88PkJsam5/1SKDF3U6ows1osWALA32/+vDrpSUhHyGgsxQGXC
j5JZyix1duLu+UGD+kY/NiwcIWQvilqDZzQSiuRP07HIcyW4BTdoWwHQUv+muMnA
Fm8qObIBLxg4kdlhnVFAqFxEvBSShxff8uLzH9R/0atyG3Tv8L8ZT+DfZzHO6Su2
gZ+TVcJG+N5UTjOjK82OMraOO3JT4ny3rMb7CPBq1MwBVo7bfAj4+d+oFFLtOspC
zqj3m1WDArC9fwJhmuzQN1pNEgDPcxKt9zm4JbYbfyTzUBbWkj//yAgymOZwc14o
vSrVxeMQV05sUaz3IOjY1hWPiTXOWnm3Ho7R0zcr6KJif0DhEquqbLbxwQIn+Xov
Qj9b/Pl0tzlo/fdUsNBXheL9EZSzkfhqu/lP96kx3pettPfHo8zuBKjyb6VkkQWd
AgMBAAGjggFjMIIBXzAJBgNVHRMEAjAAMC0GCWCGSAGG+EIBDQQgFh5FYXN5LVJT
QSBHZW5lcmF0ZWQgQ2VydGlmaWNhdGUwHQYDVR0OBBYEFL/VPFEIMII27OwMRPrj
JLSj21YZMIHhBgNVHSMEgdkwgdaAFBLNYATSoICecO3Gmbh7LMZS/RmhoYGypIGv
MIGsMQswCQYDVQQGEwJVUzELMAkGA1UECBMCT0gxETAPBgNVBAcTCENvbHVtYnVz
MRIwEAYDVQQKEwlWaWtpbmdWUE4xHTAbBgNVBAsTFE15T3JnYW5pemF0aW9uYWxV
bml0MRUwEwYDVQQDEwxWaWtpbmdWUE4gQ0ExEDAOBgNVBCkTB0Vhc3lSU0ExITAf
BgkqhkiG9w0BCQEWEm1lQG15aG9zdC5teWRvbWFpboIJAM81he6Avyo+MBMGA1Ud
JQQMMAoGCCsGAQUFBwMCMAsGA1UdDwQEAwIHgDANBgkqhkiG9w0BAQQFAAOCAgEA
arYswG6GpCGtwKHn6NgXr7+eUiorNKxE4GglbZdtq09U7CWYPSACFwn6gEOxQ6rI
RfKU/xrScyfE6AiD3tbcJHYbkZtMrf0wGObU3IpCTChkriZyGHgnXucYkGow2hRH
kmxUPFuN2YIK2Q+nn7Xbd5O2Wz1aaqBDnbs1Kpb4P8RBYdSuTHUdJApZMEWmOuJP
AaHy4bmrjPxo/yEfQN29oZqO6gPv3e9AlrKcibB7Bs6NObF51vzmRvEIDp6HcJwe
8LeZUZxeSgNLubM0Atwa/NXyURYHQbuoGDt+reU3YHzuLFr132h11IyWvNV8Mw+B
9yvSzTJBWvyMGgFp2TkEnOFRJfFdpZNOVpAkW8AzEZt7nClzIiJN26+FDi2Trlo5
0iUth4Ssf/QiTVNl2tr9V1w3RgK6nJMl5XHqujiNs+1YNbnVsbo+0G77I6hqj31D
dHD0O2Y0tY8PuM444SpdwEVAFV/dhnQAX4RJ9LpwLALoYi2ZBbTdhsED0DZ/1+dW
W8rCaRYbVf+SB0QHZYsykQjMN9vMUZrKMMPms7wQqMo1A5datj954Zd0nBheA947
KGSJRbZLG7sp3fGKeQcKzfyzKQGAKkpOyyGApVV9aTj2zyBp9gPIj/FA99fj2RuF
O4KDZlJIDPdcwwUMa48IEBJN4MIHWGKQ9faCWnBh6Nk=
-----END CERTIFICATE-----
