Certificate:
    Data:
        Version: 3 (0x2)
        Serial Number: 4858 (0x12fa)
    Signature Algorithm: md5WithRSAEncryption
        Issuer: C=US, ST=OH, L=Columbus, O=VikingVPN, OU=MyOrganizationalUnit, CN=VikingVPN CA/name=EasyRSA/emailAddress=me@myhost.mydomain
        Validity
            Not Before: Apr  1 18:37:15 2015 GMT
            Not After : Mar 29 18:37:15 2025 GMT
        Subject: CN=Client1581Certb04638
        Subject Public Key Info:
            Public Key Algorithm: rsaEncryption
                Public-Key: (4096 bit)
                Modulus:
                    00:cf:d8:42:0c:88:71:4b:12:8f:3f:7a:41:8b:b0:
                    ce:94:b5:c7:81:3d:1f:93:9e:0d:7e:9a:39:fe:d1:
                    61:0f:f7:aa:3c:12:d5:1d:c8:9e:05:fa:a8:62:5d:
                    e4:31:09:4a:d8:86:9c:c6:9b:da:7d:9e:44:fd:c8:
                    56:7f:1e:fd:f6:78:36:33:bd:4f:46:71:03:8e:38:
                    9f:de:dd:ed:c1:47:c4:fd:c0:6b:42:49:e1:68:81:
                    58:b5:e4:d8:85:d3:86:01:1a:dd:cb:a6:c9:09:c6:
                    95:f5:59:b8:1c:fd:81:a4:36:dd:48:4c:15:bf:4c:
                    49:6f:78:c3:7d:ef:c8:79:c3:54:37:55:c2:37:09:
                    d0:e9:da:30:0e:98:89:f9:fc:db:d7:38:00:e2:fa:
                    f4:be:8c:59:5a:f7:d7:e0:7b:fe:47:3f:bc:d8:d0:
                    c9:44:1c:e4:7e:b2:4a:99:f6:30:a1:ba:cc:d8:d3:
                    19:fe:6a:33:23:a6:35:09:59:44:88:c7:21:ad:e8:
                    48:11:3f:ae:4f:41:20:a3:b5:be:c1:98:99:51:44:
                    06:ad:9b:86:a8:ea:94:82:d7:fc:11:22:71:c3:70:
                    9e:f8:6b:ad:18:e2:99:a7:51:f5:49:54:9c:cd:c9:
                    e2:28:a2:7d:9d:c7:6f:03:d2:cb:27:aa:b4:93:8e:
                    04:14:85:88:98:63:73:ba:04:97:7b:c1:b1:ed:fe:
                    d8:57:5f:ac:4b:e3:2e:fd:00:55:d6:83:64:20:1d:
                    de:f7:3b:48:21:9d:99:10:19:6d:2c:73:a7:0b:59:
                    f2:db:5c:15:35:b5:5f:7a:97:1a:87:65:88:60:3a:
                    79:53:92:28:e8:04:09:8b:2e:d6:ce:0f:fa:53:d2:
                    bf:36:52:04:3a:ee:0a:03:4b:5e:09:ce:83:8b:2a:
                    8a:32:d6:f4:b5:c5:31:8e:92:47:e4:71:8f:38:7a:
                    f2:be:4c:f2:7b:83:db:e2:b1:5f:52:cf:05:4b:44:
                    c1:3e:f4:d3:c0:cd:75:27:c1:da:19:c7:28:53:c1:
                    9d:05:6c:b2:5b:9b:75:3d:1f:11:97:84:fe:cf:a7:
                    74:61:05:51:e4:f1:2c:d6:98:ff:0f:dc:f7:95:08:
                    c3:94:0f:d7:1d:f5:e7:bb:d9:7a:68:fe:10:b3:5c:
                    e0:81:15:e9:4a:ca:7c:3d:4b:c0:e2:ff:20:20:aa:
                    8d:b3:0e:d8:1e:1c:68:f1:30:a6:28:2d:d6:08:18:
                    fb:ce:c4:0a:c6:16:6f:02:06:90:7f:18:b3:fc:e0:
                    92:3e:bc:73:79:67:e3:78:b0:3c:7f:90:cc:d6:e4:
                    3f:ec:78:22:72:e6:31:80:26:bb:49:d8:38:82:0b:
                    72:d5:ef
                Exponent: 65537 (0x10001)
        X509v3 extensions:
            X509v3 Basic Constraints: 
                CA:FALSE
            Netscape Comment: 
                Easy-RSA Generated Certificate
            X509v3 Subject Key Identifier: 
                1A:5F:14:2F:F9:5A:27:EB:69:42:C0:20:9D:58:1E:E4:AD:36:86:03
            X509v3 Authority Key Identifier: 
                keyid:12:CD:60:04:D2:A0:80:9E:70:ED:C6:99:B8:7B:2C:C6:52:FD:19:A1
                DirName:/C=US/ST=OH/L=Columbus/O=VikingVPN/OU=MyOrganizationalUnit/CN=VikingVPN CA/name=EasyRSA/emailAddress=me@myhost.mydomain
                serial:CF:35:85:EE:80:BF:2A:3E

            X509v3 Extended Key Usage: 
                TLS Web Client Authentication
            X509v3 Key Usage: 
                Digital Signature
    Signature Algorithm: md5WithRSAEncryption
         cc:b0:6a:16:6b:d7:73:fb:a4:40:96:0d:5c:77:f4:4d:5c:49:
         54:24:fa:df:f0:59:5b:c2:dc:3a:81:b3:6e:b0:4d:5a:ad:d0:
         3b:fc:da:31:d0:48:dc:79:6a:0d:e3:07:09:08:74:55:af:e0:
         e5:85:5c:04:ac:99:40:d8:19:b1:12:43:22:d0:bf:f5:51:18:
         30:36:f5:c4:44:ff:d5:3c:7f:ba:3a:cc:6e:8b:d0:f2:ea:d0:
         e8:4b:a9:cb:b5:52:97:22:4c:25:02:e5:9c:aa:f0:a1:e5:a1:
         1c:d2:75:1a:17:d0:48:c4:97:1b:f0:32:96:0e:27:a5:5d:01:
         32:23:90:b4:6f:4c:c1:12:38:f9:10:57:cc:70:4d:3e:2c:5e:
         4c:ed:dd:40:44:7f:26:8b:c7:2b:ce:6c:9a:a4:26:a5:4a:3d:
         cf:f5:af:57:63:2f:85:d2:96:e2:57:36:53:e2:d8:e6:2a:fc:
         17:26:6b:ec:1f:d8:f2:fc:b0:e2:90:8c:f8:f2:b3:4d:00:14:
         f1:c4:c6:3c:bf:6d:67:0f:1f:5f:a8:f9:dd:0d:ec:81:5d:14:
         a2:53:ce:60:c2:39:e7:f0:71:c6:56:6c:5b:06:68:99:16:a7:
         3e:18:d1:7f:4d:a1:dd:b8:14:51:6f:a1:2a:6c:72:5b:a7:6e:
         fe:1a:bb:48:fe:e9:73:d4:42:8a:59:b3:5f:07:bc:3b:10:45:
         8b:f8:42:17:6a:13:ab:9d:e6:08:0b:1c:61:bb:7b:d4:a4:d9:
         52:a0:75:90:a2:d5:f2:e8:f3:8b:a4:6c:3e:a7:eb:48:f0:a1:
         11:0b:c6:96:4c:8d:32:82:ea:d4:fd:f4:d6:0a:55:1f:73:dc:
         32:0d:4a:84:c7:e0:d5:9b:0f:5e:29:9d:77:dd:38:2b:22:4d:
         f9:85:4c:72:e0:be:d5:18:17:f0:89:8f:27:25:fa:d9:35:d3:
         02:cd:31:11:e4:86:4b:1a:a7:ba:9b:8f:a4:ee:89:b0:cd:6c:
         12:76:97:90:d9:23:0e:66:cc:5e:d1:98:0e:03:14:a9:95:04:
         d9:a8:e8:34:a6:3c:2c:7d:24:08:ea:bd:a9:b9:95:95:d8:d9:
         a5:13:f7:a1:3a:51:04:2b:c6:59:30:89:f3:e2:17:e1:12:a7:
         f8:70:47:3a:d6:aa:1c:0f:f9:7c:92:07:22:00:8a:fd:22:c9:
         52:83:a4:be:ac:ab:65:f2:c4:96:47:41:ec:d3:c1:27:1f:77:
         b8:d2:91:08:07:98:ee:3b:25:7a:9f:c4:d8:b8:3c:66:79:07:
         f9:b6:bc:d4:98:a3:be:3e:28:ba:db:a1:f2:2c:9d:f5:d0:9d:
         ce:9d:6c:d8:cb:52:30:ba
-----BEGIN CERTIFICATE-----
MIIGrTCCBJWgAwIBAgICEvowDQYJKoZIhvcNAQEEBQAwgawxCzAJBgNVBAYTAlVT
MQswCQYDVQQIEwJPSDERMA8GA1UEBxMIQ29sdW1idXMxEjAQBgNVBAoTCVZpa2lu
Z1ZQTjEdMBsGA1UECxMUTXlPcmdhbml6YXRpb25hbFVuaXQxFTATBgNVBAMTDFZp
a2luZ1ZQTiBDQTEQMA4GA1UEKRMHRWFzeVJTQTEhMB8GCSqGSIb3DQEJARYSbWVA
bXlob3N0Lm15ZG9tYWluMB4XDTE1MDQwMTE4MzcxNVoXDTI1MDMyOTE4MzcxNVow
HzEdMBsGA1UEAxMUQ2xpZW50MTU4MUNlcnRiMDQ2MzgwggIiMA0GCSqGSIb3DQEB
AQUAA4ICDwAwggIKAoICAQDP2EIMiHFLEo8/ekGLsM6UtceBPR+Tng1+mjn+0WEP
96o8EtUdyJ4F+qhiXeQxCUrYhpzGm9p9nkT9yFZ/Hv32eDYzvU9GcQOOOJ/e3e3B
R8T9wGtCSeFogVi15NiF04YBGt3LpskJxpX1Wbgc/YGkNt1ITBW/TElveMN978h5
w1Q3VcI3CdDp2jAOmIn5/NvXOADi+vS+jFla99fge/5HP7zY0MlEHOR+skqZ9jCh
uszY0xn+ajMjpjUJWUSIxyGt6EgRP65PQSCjtb7BmJlRRAatm4ao6pSC1/wRInHD
cJ74a60Y4pmnUfVJVJzNyeIoon2dx28D0ssnqrSTjgQUhYiYY3O6BJd7wbHt/thX
X6xL4y79AFXWg2QgHd73O0ghnZkQGW0sc6cLWfLbXBU1tV96lxqHZYhgOnlTkijo
BAmLLtbOD/pT0r82UgQ67goDS14JzoOLKooy1vS1xTGOkkfkcY84evK+TPJ7g9vi
sV9SzwVLRME+9NPAzXUnwdoZxyhTwZ0FbLJbm3U9HxGXhP7Pp3RhBVHk8SzWmP8P
3PeVCMOUD9cd9ee72Xpo/hCzXOCBFelKynw9S8Di/yAgqo2zDtgeHGjxMKYoLdYI
GPvOxArGFm8CBpB/GLP84JI+vHN5Z+N4sDx/kMzW5D/seCJy5jGAJrtJ2DiCC3LV
7wIDAQABo4IBYzCCAV8wCQYDVR0TBAIwADAtBglghkgBhvhCAQ0EIBYeRWFzeS1S
U0EgR2VuZXJhdGVkIENlcnRpZmljYXRlMB0GA1UdDgQWBBQaXxQv+Von62lCwCCd
WB7krTaGAzCB4QYDVR0jBIHZMIHWgBQSzWAE0qCAnnDtxpm4eyzGUv0ZoaGBsqSB
rzCBrDELMAkGA1UEBhMCVVMxCzAJBgNVBAgTAk9IMREwDwYDVQQHEwhDb2x1bWJ1
czESMBAGA1UEChMJVmlraW5nVlBOMR0wGwYDVQQLExRNeU9yZ2FuaXphdGlvbmFs
VW5pdDEVMBMGA1UEAxMMVmlraW5nVlBOIENBMRAwDgYDVQQpEwdFYXN5UlNBMSEw
HwYJKoZIhvcNAQkBFhJtZUBteWhvc3QubXlkb21haW6CCQDPNYXugL8qPjATBgNV
HSUEDDAKBggrBgEFBQcDAjALBgNVHQ8EBAMCB4AwDQYJKoZIhvcNAQEEBQADggIB
AMywahZr13P7pECWDVx39E1cSVQk+t/wWVvC3DqBs26wTVqt0Dv82jHQSNx5ag3j
BwkIdFWv4OWFXASsmUDYGbESQyLQv/VRGDA29cRE/9U8f7o6zG6L0PLq0OhLqcu1
UpciTCUC5Zyq8KHloRzSdRoX0EjElxvwMpYOJ6VdATIjkLRvTMESOPkQV8xwTT4s
Xkzt3UBEfyaLxyvObJqkJqVKPc/1r1djL4XSluJXNlPi2OYq/Bcma+wf2PL8sOKQ
jPjys00AFPHExjy/bWcPH1+o+d0N7IFdFKJTzmDCOefwccZWbFsGaJkWpz4Y0X9N
od24FFFvoSpsclunbv4au0j+6XPUQopZs18HvDsQRYv4QhdqE6ud5ggLHGG7e9Sk
2VKgdZCi1fLo84ukbD6n60jwoRELxpZMjTKC6tT99NYKVR9z3DINSoTH4NWbD14p
nXfdOCsiTfmFTHLgvtUYF/CJjycl+tk10wLNMRHkhksap7qbj6TuibDNbBJ2l5DZ
Iw5mzF7RmA4DFKmVBNmo6DSmPCx9JAjqvam5lZXY2aUT96E6UQQrxlkwifPiF+ES
p/hwRzrWqhwP+XySByIAiv0iyVKDpL6sq2XyxJZHQezTwScfd7jSkQgHmO47JXqf
xNi4PGZ5B/m2vNSYo74+KLrbofIsnfXQnc6dbNjLUjC6
-----END CERTIFICATE-----
