Certificate:
    Data:
        Version: 3 (0x2)
        Serial Number: 12211 (0x2fb3)
    Signature Algorithm: sha256WithRSAEncryption
        Issuer: C=US, ST=OH, L=Columbus, O=VikingVPN, OU=MyOrganizationalUnit, CN=VikingVPN CA/name=EasyRSA/emailAddress=me@myhost.mydomain
        Validity
            Not Before: Dec  2 22:56:17 2017 GMT
            Not After : Nov 30 22:56:17 2027 GMT
        Subject: CN=Client2845Certcd7cff
        Subject Public Key Info:
            Public Key Algorithm: rsaEncryption
                Public-Key: (4096 bit)
                Modulus:
                    00:e4:a1:53:ec:f5:52:93:3d:34:fe:f1:8f:8f:d7:
                    50:f1:c8:0b:2c:13:69:e1:bc:01:b4:0c:33:f0:75:
                    c4:d4:64:f6:1d:a1:44:f7:1d:14:7f:62:c3:77:f9:
                    bb:76:7a:31:56:9c:58:da:5e:69:9e:e8:53:44:c2:
                    10:1b:da:db:10:59:01:38:7d:0f:6c:ad:9b:57:e9:
                    ef:95:f0:f1:7a:11:98:ba:76:6e:a4:42:51:db:c1:
                    4d:6c:12:39:75:85:57:6e:41:6b:47:98:82:d3:f8:
                    f8:9a:ed:28:eb:03:39:69:36:4c:81:27:a0:45:d6:
                    4e:03:74:c2:95:6e:f1:b7:b9:b2:09:7d:7e:23:3a:
                    17:8c:07:43:e8:67:af:cd:09:b1:00:00:d5:2f:1b:
                    d2:ec:c8:10:8c:61:e0:b7:9e:69:b7:c0:ff:2e:a3:
                    ed:bc:5b:e5:90:d0:6b:32:8e:4f:91:e2:3b:6a:f4:
                    5a:e7:10:f9:4a:a8:82:d0:75:07:7e:7b:e6:cb:c4:
                    27:a1:7d:fa:35:9e:20:53:88:e3:14:8e:a1:66:92:
                    49:72:37:7e:e1:26:99:b3:94:37:2f:9c:1c:61:92:
                    ef:48:e6:6e:65:c2:18:df:d5:bd:53:64:21:67:54:
                    2c:5e:0e:64:47:cf:0a:55:45:0a:8c:4a:53:a4:02:
                    9d:06:32:5a:38:e4:5a:ce:4b:ce:8e:15:e2:93:60:
                    07:59:28:08:96:a3:ac:a4:67:d4:7e:00:1b:33:90:
                    2f:e7:76:af:74:8f:3c:17:0d:b7:df:3b:62:b2:bd:
                    85:12:0d:0c:d5:cd:9a:5e:4d:d8:b8:71:ab:02:56:
                    94:e7:fa:41:68:d8:27:18:3e:c8:79:1e:28:fb:f2:
                    08:16:15:08:8f:49:db:10:7b:66:55:d3:f4:26:f4:
                    e0:03:bd:54:d7:2f:09:0f:eb:05:e2:8d:2d:26:ea:
                    16:10:66:07:c5:19:38:91:1f:8d:b7:dc:4c:e1:e7:
                    60:91:c1:3d:82:48:15:a6:71:1c:35:be:15:d6:35:
                    95:3c:33:7a:ae:48:01:5a:78:6f:ce:8a:38:81:30:
                    09:08:63:08:5d:df:3a:6f:f3:3e:c1:da:26:f9:c1:
                    6f:ef:22:2f:92:85:c3:78:63:3a:e5:f2:dd:3c:5d:
                    99:65:a3:6e:28:c3:65:ff:06:79:ee:b7:06:22:c4:
                    0d:da:fe:57:f3:43:35:c8:0a:04:c7:e5:91:13:07:
                    a1:f8:4a:2e:c5:98:63:e8:35:54:c8:4b:b5:5e:9e:
                    b3:97:4d:e8:93:43:f1:05:76:f1:ab:aa:9c:1c:fd:
                    5c:e2:f5:a7:8d:be:29:38:75:26:af:39:45:fe:ef:
                    5d:7a:1b
                Exponent: 65537 (0x10001)
        X509v3 extensions:
            X509v3 Basic Constraints: 
                CA:FALSE
            Netscape Comment: 
                Easy-RSA Generated Certificate
            X509v3 Subject Key Identifier: 
                C2:29:9F:5C:C4:7B:89:20:97:F0:F5:CF:D3:97:99:4C:0B:09:5E:2D
            X509v3 Authority Key Identifier: 
                keyid:12:CD:60:04:D2:A0:80:9E:70:ED:C6:99:B8:7B:2C:C6:52:FD:19:A1
                DirName:/C=US/ST=OH/L=Columbus/O=VikingVPN/OU=MyOrganizationalUnit/CN=VikingVPN CA/name=EasyRSA/emailAddress=me@myhost.mydomain
                serial:CF:35:85:EE:80:BF:2A:3E

            X509v3 Extended Key Usage: 
                TLS Web Client Authentication
            X509v3 Key Usage: 
                Digital Signature
    Signature Algorithm: sha256WithRSAEncryption
         11:99:e1:11:1a:d9:b6:e7:56:d8:2f:b2:a4:e2:cb:4a:98:9d:
         29:40:a7:b1:cb:43:1f:33:16:f8:37:d7:76:44:0d:b7:49:fa:
         1b:1b:cb:04:4e:45:95:0c:be:02:02:d4:07:ad:40:37:10:b8:
         72:83:fe:3b:c9:98:ee:57:bd:b1:4f:a5:d0:78:da:97:11:83:
         c1:2d:67:36:79:e6:31:a2:b9:26:fb:07:bb:17:4c:b7:56:d1:
         87:7e:7b:6b:91:1f:68:f5:73:71:1d:9e:5d:32:5b:58:dc:ec:
         14:49:dc:c4:c6:6a:7f:3b:bf:c7:48:dd:56:93:e7:c1:97:86:
         5a:79:0f:43:5a:f4:3b:38:48:fc:4b:14:1e:c4:73:9f:2b:a2:
         a9:b1:cd:65:00:4e:e2:c0:c0:c2:98:cf:e5:cb:04:3b:e7:91:
         95:49:00:70:cc:a7:52:c5:3e:f3:d9:5c:34:56:3b:51:7b:bc:
         c6:28:eb:00:3e:b0:06:3c:13:c0:23:53:19:9b:02:d5:50:f0:
         d0:51:7d:2f:25:2e:1e:c8:d5:93:ab:79:69:f5:19:71:07:9d:
         02:63:af:ff:94:76:93:31:a4:16:a0:85:5e:08:0c:f0:74:25:
         9d:6a:24:60:0c:c5:70:79:eb:8b:7f:5c:9f:2e:3d:5d:82:c2:
         4b:91:97:8b:47:8f:4a:1b:f9:e7:8a:b2:07:59:16:c5:8d:5e:
         c0:43:c2:ac:09:70:04:04:88:0e:1f:a8:29:70:3d:93:f6:da:
         18:a2:ad:c0:73:8f:eb:47:6e:d9:f8:93:77:43:83:bb:d7:24:
         b6:07:4a:37:a6:9c:a2:f4:9a:67:51:e3:0d:7d:88:2f:67:80:
         a5:6f:d5:07:e8:4b:5f:67:ab:1c:2d:6b:43:3c:77:c8:cb:5d:
         8b:60:4b:a1:af:7a:46:84:ce:2b:51:50:9d:ba:9c:5f:81:c8:
         ee:5e:1a:52:ce:bd:70:8e:12:7f:e6:0e:cc:87:1a:1d:98:dd:
         a5:e6:2b:92:15:34:07:d1:90:5d:04:23:93:e8:68:a7:cb:82:
         68:cf:e0:a0:db:c4:4d:e3:36:aa:8e:13:f1:2b:f3:dd:fa:56:
         49:cb:5c:db:d0:4f:c9:ed:93:9b:41:37:b8:e8:17:80:62:bc:
         b4:58:a5:55:66:2b:bd:ea:e7:a9:d3:fb:39:36:0f:d8:74:c9:
         81:b9:2f:ba:2a:0f:5a:a0:bf:4a:74:52:0a:65:f0:09:30:f6:
         b3:7c:11:65:99:a7:95:5d:e8:13:20:45:6a:b6:0c:9f:e4:4d:
         df:ea:2e:2e:e8:f1:ad:db:55:d6:2f:c6:d1:da:0a:75:c5:60:
         7f:0f:9d:f4:06:67:2d:d6
-----BEGIN CERTIFICATE-----
MIIGrTCCBJWgAwIBAgICL7MwDQYJKoZIhvcNAQELBQAwgawxCzAJBgNVBAYTAlVT
MQswCQYDVQQIEwJPSDERMA8GA1UEBxMIQ29sdW1idXMxEjAQBgNVBAoTCVZpa2lu
Z1ZQTjEdMBsGA1UECxMUTXlPcmdhbml6YXRpb25hbFVuaXQxFTATBgNVBAMTDFZp
a2luZ1ZQTiBDQTEQMA4GA1UEKRMHRWFzeVJTQTEhMB8GCSqGSIb3DQEJARYSbWVA
bXlob3N0Lm15ZG9tYWluMB4XDTE3MTIwMjIyNTYxN1oXDTI3MTEzMDIyNTYxN1ow
HzEdMBsGA1UEAxMUQ2xpZW50Mjg0NUNlcnRjZDdjZmYwggIiMA0GCSqGSIb3DQEB
AQUAA4ICDwAwggIKAoICAQDkoVPs9VKTPTT+8Y+P11DxyAssE2nhvAG0DDPwdcTU
ZPYdoUT3HRR/YsN3+bt2ejFWnFjaXmme6FNEwhAb2tsQWQE4fQ9srZtX6e+V8PF6
EZi6dm6kQlHbwU1sEjl1hVduQWtHmILT+Pia7SjrAzlpNkyBJ6BF1k4DdMKVbvG3
ubIJfX4jOheMB0PoZ6/NCbEAANUvG9LsyBCMYeC3nmm3wP8uo+28W+WQ0Gsyjk+R
4jtq9FrnEPlKqILQdQd+e+bLxCehffo1niBTiOMUjqFmkklyN37hJpmzlDcvnBxh
ku9I5m5lwhjf1b1TZCFnVCxeDmRHzwpVRQqMSlOkAp0GMlo45FrOS86OFeKTYAdZ
KAiWo6ykZ9R+ABszkC/ndq90jzwXDbffO2KyvYUSDQzVzZpeTdi4casCVpTn+kFo
2CcYPsh5Hij78ggWFQiPSdsQe2ZV0/Qm9OADvVTXLwkP6wXijS0m6hYQZgfFGTiR
H4233Ezh52CRwT2CSBWmcRw1vhXWNZU8M3quSAFaeG/OijiBMAkIYwhd3zpv8z7B
2ib5wW/vIi+ShcN4Yzrl8t08XZllo24ow2X/BnnutwYixA3a/lfzQzXICgTH5ZET
B6H4Si7FmGPoNVTIS7VenrOXTeiTQ/EFdvGrqpwc/Vzi9aeNvik4dSavOUX+7116
GwIDAQABo4IBYzCCAV8wCQYDVR0TBAIwADAtBglghkgBhvhCAQ0EIBYeRWFzeS1S
U0EgR2VuZXJhdGVkIENlcnRpZmljYXRlMB0GA1UdDgQWBBTCKZ9cxHuJIJfw9c/T
l5lMCwleLTCB4QYDVR0jBIHZMIHWgBQSzWAE0qCAnnDtxpm4eyzGUv0ZoaGBsqSB
rzCBrDELMAkGA1UEBhMCVVMxCzAJBgNVBAgTAk9IMREwDwYDVQQHEwhDb2x1bWJ1
czESMBAGA1UEChMJVmlraW5nVlBOMR0wGwYDVQQLExRNeU9yZ2FuaXphdGlvbmFs
VW5pdDEVMBMGA1UEAxMMVmlraW5nVlBOIENBMRAwDgYDVQQpEwdFYXN5UlNBMSEw
HwYJKoZIhvcNAQkBFhJtZUBteWhvc3QubXlkb21haW6CCQDPNYXugL8qPjATBgNV
HSUEDDAKBggrBgEFBQcDAjALBgNVHQ8EBAMCB4AwDQYJKoZIhvcNAQELBQADggIB
ABGZ4REa2bbnVtgvsqTiy0qYnSlAp7HLQx8zFvg313ZEDbdJ+hsbywRORZUMvgIC
1AetQDcQuHKD/jvJmO5XvbFPpdB42pcRg8EtZzZ55jGiuSb7B7sXTLdW0Yd+e2uR
H2j1c3Ednl0yW1jc7BRJ3MTGan87v8dI3VaT58GXhlp5D0Na9Ds4SPxLFB7Ec58r
oqmxzWUATuLAwMKYz+XLBDvnkZVJAHDMp1LFPvPZXDRWO1F7vMYo6wA+sAY8E8Aj
UxmbAtVQ8NBRfS8lLh7I1ZOreWn1GXEHnQJjr/+UdpMxpBaghV4IDPB0JZ1qJGAM
xXB564t/XJ8uPV2CwkuRl4tHj0ob+eeKsgdZFsWNXsBDwqwJcAQEiA4fqClwPZP2
2hiircBzj+tHbtn4k3dDg7vXJLYHSjemnKL0mmdR4w19iC9ngKVv1QfoS19nqxwt
a0M8d8jLXYtgS6GvekaEzitRUJ26nF+ByO5eGlLOvXCOEn/mDsyHGh2Y3aXmK5IV
NAfRkF0EI5PoaKfLgmjP4KDbxE3jNqqOE/Er8936VknLXNvQT8ntk5tBN7joF4Bi
vLRYpVVmK73q56nT+zk2D9h0yYG5L7oqD1qgv0p0Ugpl8Akw9rN8EWWZp5Vd6BMg
RWq2DJ/kTd/qLi7o8a3bVdYvxtHaCnXFYH8PnfQGZy3W
-----END CERTIFICATE-----
