Certificate:
    Data:
        Version: 3 (0x2)
        Serial Number: 9546 (0x254a)
    Signature Algorithm: sha256WithRSAEncryption
        Issuer: C=US, ST=OH, L=Columbus, O=VikingVPN, OU=MyOrganizationalUnit, CN=VikingVPN CA/name=EasyRSA/emailAddress=me@myhost.mydomain
        Validity
            Not Before: Nov 26 02:03:13 2016 GMT
            Not After : Nov 24 02:03:13 2026 GMT
        Subject: CN=Client2605Cert41493f
        Subject Public Key Info:
            Public Key Algorithm: rsaEncryption
                Public-Key: (4096 bit)
                Modulus:
                    00:db:09:84:23:02:ad:eb:54:48:04:fe:0d:c8:b2:
                    be:d6:d9:79:f6:0b:38:a4:86:f1:63:90:68:8c:77:
                    58:c8:4d:43:12:c2:a4:61:16:84:8f:4c:29:d4:47:
                    22:18:41:1b:29:0e:73:f2:fe:13:48:01:32:3c:d5:
                    f4:16:c3:78:c2:03:16:16:08:cd:b0:bb:31:08:f5:
                    2e:4b:f1:4e:13:77:30:23:bb:b1:ed:30:01:fe:51:
                    fd:a6:f7:3f:b5:df:46:ad:c5:42:6b:ae:3a:11:e0:
                    a7:ad:b3:99:97:1a:e8:c2:40:63:13:87:0c:f7:86:
                    32:0d:9b:24:10:61:dc:81:1f:dc:1e:25:7a:de:ad:
                    4d:17:5f:19:f9:17:e7:96:54:d2:21:e5:67:26:03:
                    71:3e:de:8b:33:2d:1a:76:c7:d6:16:05:b0:04:db:
                    d5:49:08:0a:48:f6:66:23:f1:dc:f7:54:ec:53:d9:
                    71:9c:cb:2d:ea:d0:84:07:dc:41:34:f2:0a:41:dc:
                    6a:cf:57:1f:1b:8f:3e:2f:d4:5c:5d:d5:a5:13:ae:
                    ae:bd:88:45:1e:83:98:69:f4:2b:fe:23:c0:f6:ff:
                    ab:3e:a4:73:7b:7d:78:39:c5:e1:60:d5:7a:f7:1c:
                    cc:4a:17:ac:57:6d:db:0f:33:22:05:c2:b0:d7:b8:
                    37:dd:06:23:49:7c:ef:c9:9f:ed:63:6a:3d:d2:bf:
                    89:d0:74:f9:a9:23:1c:49:c3:67:9f:50:4c:c1:3c:
                    99:3b:5f:28:1c:6a:b5:c1:06:6d:5e:ee:53:84:47:
                    88:8a:bf:6e:dc:63:fa:52:2d:a3:62:a3:e7:9f:ce:
                    dc:86:ad:d8:95:44:13:60:06:e8:91:c6:a0:55:d6:
                    c3:f8:57:78:1c:1e:f3:a6:63:eb:a2:46:6b:17:23:
                    de:ed:8b:16:e8:f4:97:45:78:05:dd:02:17:8d:cb:
                    1d:5e:cd:60:17:8a:75:c3:35:6f:b9:9f:50:3a:ee:
                    81:54:d0:4f:5b:32:7f:38:13:f7:0a:55:8e:49:63:
                    f3:08:71:14:f5:d5:b1:ab:f6:a3:4a:80:17:21:2d:
                    32:aa:f4:ba:c7:09:fd:e7:99:e3:87:fb:41:dd:bc:
                    01:65:0d:b3:73:41:07:89:2f:24:62:c5:6a:b1:b4:
                    29:02:c9:f8:fa:f0:85:bf:d4:dc:ca:99:e5:45:45:
                    f1:7a:96:5f:7f:bc:17:f3:bc:16:a1:c6:6f:3f:e4:
                    b5:b4:06:56:87:b1:ed:79:ac:98:98:5e:c0:e1:d6:
                    73:a0:c9:6e:c0:9f:0f:52:b3:4a:8e:f9:d3:da:94:
                    9f:c1:9a:3f:c1:69:25:ee:81:e2:fa:85:dd:04:e0:
                    ff:00:ef
                Exponent: 65537 (0x10001)
        X509v3 extensions:
            X509v3 Basic Constraints: 
                CA:FALSE
            Netscape Comment: 
                Easy-RSA Generated Certificate
            X509v3 Subject Key Identifier: 
                C2:2A:26:0D:02:CE:1C:C2:F8:43:A7:F8:81:D8:28:68:C2:3C:3A:2F
            X509v3 Authority Key Identifier: 
                keyid:12:CD:60:04:D2:A0:80:9E:70:ED:C6:99:B8:7B:2C:C6:52:FD:19:A1
                DirName:/C=US/ST=OH/L=Columbus/O=VikingVPN/OU=MyOrganizationalUnit/CN=VikingVPN CA/name=EasyRSA/emailAddress=me@myhost.mydomain
                serial:CF:35:85:EE:80:BF:2A:3E

            X509v3 Extended Key Usage: 
                TLS Web Client Authentication
            X509v3 Key Usage: 
                Digital Signature
    Signature Algorithm: sha256WithRSAEncryption
         27:e3:db:fb:f6:a9:c7:ef:c8:fe:03:39:09:f5:21:76:78:29:
         ef:e0:5d:7d:00:a5:db:e6:5b:03:34:36:9b:14:52:c0:0f:00:
         7d:c6:f3:a5:cb:d9:82:49:18:6c:f3:24:3a:8b:ef:0a:03:a3:
         41:d6:8c:ba:2c:68:a6:ac:e2:09:39:c5:ab:81:cd:8f:47:f4:
         50:43:60:ae:0e:c3:67:c1:9d:ab:a9:49:4b:7d:02:6f:6a:21:
         4b:c0:9f:3c:83:39:75:0f:3d:0e:d6:b6:cd:2a:78:62:20:9d:
         b1:0c:0a:49:df:3b:dc:f9:3e:ef:59:3c:fa:1f:03:a0:1f:aa:
         91:58:2d:e3:89:b1:b3:de:aa:74:bf:cd:c1:10:01:dd:d1:ce:
         48:b3:19:1d:af:ba:fc:70:e1:2d:75:45:7e:91:db:30:3e:15:
         56:a8:6e:15:f8:7c:e7:d5:9d:84:66:ca:e8:54:31:72:24:1b:
         b0:81:f1:22:a1:e3:5a:3b:23:b4:58:5a:62:54:04:53:d3:04:
         04:c1:57:fa:16:db:e7:ca:93:c3:47:79:35:61:6a:ea:72:28:
         82:54:e4:38:4b:2c:1e:6a:9b:37:e6:31:31:b5:d4:39:5c:15:
         78:56:9c:5b:8d:b8:13:c4:cd:19:b9:27:b1:a9:76:28:18:fb:
         a2:3c:97:96:80:99:09:7c:cd:2f:06:c0:d3:74:63:03:3a:1d:
         49:29:49:3b:fc:cb:bf:d2:87:29:07:5b:4f:a8:72:e8:89:db:
         8b:56:76:63:75:cf:4a:a5:18:19:13:6f:fd:10:bc:ae:8f:01:
         bc:b0:e4:fa:89:ea:6b:64:99:05:af:56:ac:bf:fd:1f:08:fd:
         2a:11:54:63:7d:03:24:5a:99:68:87:63:8f:24:75:ca:94:a3:
         e5:da:fc:d3:ad:99:79:e4:2c:db:e2:8e:88:d0:12:5f:a7:72:
         c0:4f:11:48:15:9c:09:91:c2:b1:97:37:f8:a1:a6:13:47:ff:
         2c:a8:f6:1c:25:b6:bb:00:59:61:45:be:cf:5e:21:e5:37:a3:
         b3:89:c3:9e:54:91:85:95:74:87:a1:59:ac:89:6c:e9:e2:80:
         27:fe:c4:ce:6a:0a:24:7f:73:b3:dd:e7:f0:15:1f:cc:07:df:
         3f:c8:5e:67:43:8d:b5:c8:2b:65:de:07:57:00:73:f5:7f:c3:
         17:cc:1e:bd:bb:d6:82:91:93:e3:2f:df:8e:4a:ed:4d:f4:65:
         58:92:77:a1:8c:2c:9f:7f:ee:4c:7a:d5:6c:d2:01:50:2e:0a:
         d0:5f:09:30:e7:8b:b1:b3:71:25:06:cc:a7:32:2a:66:e3:02:
         ef:a7:36:56:b6:e4:fa:a3
-----BEGIN CERTIFICATE-----
MIIGrTCCBJWgAwIBAgICJUowDQYJKoZIhvcNAQELBQAwgawxCzAJBgNVBAYTAlVT
MQswCQYDVQQIEwJPSDERMA8GA1UEBxMIQ29sdW1idXMxEjAQBgNVBAoTCVZpa2lu
Z1ZQTjEdMBsGA1UECxMUTXlPcmdhbml6YXRpb25hbFVuaXQxFTATBgNVBAMTDFZp
a2luZ1ZQTiBDQTEQMA4GA1UEKRMHRWFzeVJTQTEhMB8GCSqGSIb3DQEJARYSbWVA
bXlob3N0Lm15ZG9tYWluMB4XDTE2MTEyNjAyMDMxM1oXDTI2MTEyNDAyMDMxM1ow
HzEdMBsGA1UEAxMUQ2xpZW50MjYwNUNlcnQ0MTQ5M2YwggIiMA0GCSqGSIb3DQEB
AQUAA4ICDwAwggIKAoICAQDbCYQjAq3rVEgE/g3Isr7W2Xn2CzikhvFjkGiMd1jI
TUMSwqRhFoSPTCnURyIYQRspDnPy/hNIATI81fQWw3jCAxYWCM2wuzEI9S5L8U4T
dzAju7HtMAH+Uf2m9z+130atxUJrrjoR4Kets5mXGujCQGMThwz3hjINmyQQYdyB
H9weJXrerU0XXxn5F+eWVNIh5WcmA3E+3oszLRp2x9YWBbAE29VJCApI9mYj8dz3
VOxT2XGcyy3q0IQH3EE08gpB3GrPVx8bjz4v1Fxd1aUTrq69iEUeg5hp9Cv+I8D2
/6s+pHN7fXg5xeFg1Xr3HMxKF6xXbdsPMyIFwrDXuDfdBiNJfO/Jn+1jaj3Sv4nQ
dPmpIxxJw2efUEzBPJk7XygcarXBBm1e7lOER4iKv27cY/pSLaNio+efztyGrdiV
RBNgBuiRxqBV1sP4V3gcHvOmY+uiRmsXI97tixbo9JdFeAXdAheNyx1ezWAXinXD
NW+5n1A67oFU0E9bMn84E/cKVY5JY/MIcRT11bGr9qNKgBchLTKq9LrHCf3nmeOH
+0HdvAFlDbNzQQeJLyRixWqxtCkCyfj68IW/1NzKmeVFRfF6ll9/vBfzvBahxm8/
5LW0BlaHse15rJiYXsDh1nOgyW7Anw9Ss0qO+dPalJ/Bmj/BaSXugeL6hd0E4P8A
7wIDAQABo4IBYzCCAV8wCQYDVR0TBAIwADAtBglghkgBhvhCAQ0EIBYeRWFzeS1S
U0EgR2VuZXJhdGVkIENlcnRpZmljYXRlMB0GA1UdDgQWBBTCKiYNAs4cwvhDp/iB
2Chowjw6LzCB4QYDVR0jBIHZMIHWgBQSzWAE0qCAnnDtxpm4eyzGUv0ZoaGBsqSB
rzCBrDELMAkGA1UEBhMCVVMxCzAJBgNVBAgTAk9IMREwDwYDVQQHEwhDb2x1bWJ1
czESMBAGA1UEChMJVmlraW5nVlBOMR0wGwYDVQQLExRNeU9yZ2FuaXphdGlvbmFs
VW5pdDEVMBMGA1UEAxMMVmlraW5nVlBOIENBMRAwDgYDVQQpEwdFYXN5UlNBMSEw
HwYJKoZIhvcNAQkBFhJtZUBteWhvc3QubXlkb21haW6CCQDPNYXugL8qPjATBgNV
HSUEDDAKBggrBgEFBQcDAjALBgNVHQ8EBAMCB4AwDQYJKoZIhvcNAQELBQADggIB
ACfj2/v2qcfvyP4DOQn1IXZ4Ke/gXX0ApdvmWwM0NpsUUsAPAH3G86XL2YJJGGzz
JDqL7woDo0HWjLosaKas4gk5xauBzY9H9FBDYK4Ow2fBnaupSUt9Am9qIUvAnzyD
OXUPPQ7Wts0qeGIgnbEMCknfO9z5Pu9ZPPofA6AfqpFYLeOJsbPeqnS/zcEQAd3R
zkizGR2vuvxw4S11RX6R2zA+FVaobhX4fOfVnYRmyuhUMXIkG7CB8SKh41o7I7RY
WmJUBFPTBATBV/oW2+fKk8NHeTVhaupyKIJU5DhLLB5qmzfmMTG11DlcFXhWnFuN
uBPEzRm5J7GpdigY+6I8l5aAmQl8zS8GwNN0YwM6HUkpSTv8y7/ShykHW0+ocuiJ
24tWdmN1z0qlGBkTb/0QvK6PAbyw5PqJ6mtkmQWvVqy//R8I/SoRVGN9AyRamWiH
Y48kdcqUo+Xa/NOtmXnkLNvijojQEl+ncsBPEUgVnAmRwrGXN/ihphNH/yyo9hwl
trsAWWFFvs9eIeU3o7OJw55UkYWVdIehWayJbOnigCf+xM5qCiR/c7Pd5/AVH8wH
3z/IXmdDjbXIK2XeB1cAc/V/wxfMHr271oKRk+Mv345K7U30ZViSd6GMLJ9/7kx6
1WzSAVAuCtBfCTDni7GzcSUGzKcyKmbjAu+nNla25Pqj
-----END CERTIFICATE-----
