Certificate:
    Data:
        Version: 3 (0x2)
        Serial Number: 8350 (0x209e)
    Signature Algorithm: md5WithRSAEncryption
        Issuer: C=US, ST=OH, L=Columbus, O=VikingVPN, OU=MyOrganizationalUnit, CN=VikingVPN CA/name=EasyRSA/emailAddress=me@myhost.mydomain
        Validity
            Not Before: Jun 23 20:11:36 2016 GMT
            Not After : Jun 21 20:11:36 2026 GMT
        Subject: CN=Client2042Cert33d871
        Subject Public Key Info:
            Public Key Algorithm: rsaEncryption
                Public-Key: (4096 bit)
                Modulus:
                    00:eb:7b:08:11:5a:3b:37:28:cc:1e:fb:f6:7c:3c:
                    a7:f3:d2:2e:dd:2b:ae:b6:32:5d:30:1d:5c:d4:14:
                    94:20:f9:08:01:15:6a:dc:4a:d2:64:38:b2:b7:0b:
                    5c:fd:28:b1:dd:7f:14:30:db:1f:ee:20:96:08:ef:
                    ff:9d:b7:41:44:86:aa:d0:99:8d:27:a9:a2:4c:16:
                    94:4b:bb:46:16:4e:00:f0:fc:87:62:53:e4:5f:5f:
                    68:02:be:8b:57:03:c7:89:79:50:fe:2c:2c:15:73:
                    f5:49:a8:5a:5a:dd:0f:a8:2a:de:df:79:84:99:27:
                    63:ec:5f:bb:a5:52:ec:ca:36:7e:85:65:4e:75:be:
                    b3:43:0c:8d:db:88:ce:9e:84:99:26:6e:ed:bf:6e:
                    d2:f0:42:fe:71:e4:70:69:7b:95:34:77:39:29:5e:
                    ca:0e:71:9b:d0:11:f0:c4:d2:0a:b5:c6:3e:ea:c4:
                    91:94:22:07:13:cb:84:ef:48:8c:0c:d8:5c:c2:8e:
                    ee:2d:51:bc:65:fd:e9:a9:a2:d2:1a:c7:a1:9f:2f:
                    83:55:57:15:2b:db:89:ef:dd:99:38:d0:11:e9:24:
                    da:36:61:c9:84:01:5a:2d:ac:9e:62:ff:c6:a8:4c:
                    4d:a7:6d:41:5b:d9:c6:45:ff:1c:1b:73:48:23:4a:
                    88:93:67:e0:90:35:25:1d:4a:35:85:06:6c:db:ff:
                    f8:20:9a:78:3e:59:0e:37:e1:ec:11:9d:44:c0:84:
                    f9:24:c3:97:b7:fc:ad:63:8b:f0:7b:7c:6a:5f:47:
                    7b:66:81:a7:7e:5d:c3:2b:24:fe:92:1e:a4:c2:46:
                    94:f9:34:e2:a9:a4:47:6a:cd:d4:be:11:ac:a6:e2:
                    19:92:8b:5d:8f:bb:b0:c6:80:ce:f2:13:92:ba:08:
                    d6:30:64:52:be:10:96:eb:bb:5b:98:9d:39:c1:27:
                    1f:00:ce:de:06:2e:ad:23:64:cf:12:bb:95:97:de:
                    64:54:fb:3a:ed:ad:c1:b2:1d:a1:88:d1:3a:41:98:
                    e5:59:83:56:0b:61:82:e7:24:24:b2:98:c4:c8:2d:
                    f7:48:55:8c:1f:d0:e3:83:01:99:89:8b:8f:a6:36:
                    5e:b8:0a:10:f8:6c:40:36:5a:19:df:fc:7c:ba:43:
                    0a:c1:38:a5:e3:dc:1f:8a:52:7a:d2:c5:e0:cf:4f:
                    52:38:75:89:1e:a6:c7:65:93:7f:3c:92:16:a4:cd:
                    c7:50:1d:5e:0f:b9:de:19:2d:cf:e6:44:34:87:e9:
                    24:ec:a1:ab:0a:4b:ca:91:12:38:56:02:8e:03:ff:
                    3a:16:cb:4b:b5:21:17:19:af:24:80:6a:4f:4e:2e:
                    75:ab:99
                Exponent: 65537 (0x10001)
        X509v3 extensions:
            X509v3 Basic Constraints: 
                CA:FALSE
            Netscape Comment: 
                Easy-RSA Generated Certificate
            X509v3 Subject Key Identifier: 
                C0:4F:77:CF:39:EE:2B:3C:08:61:45:73:E9:8B:99:DB:5C:11:4A:62
            X509v3 Authority Key Identifier: 
                keyid:12:CD:60:04:D2:A0:80:9E:70:ED:C6:99:B8:7B:2C:C6:52:FD:19:A1
                DirName:/C=US/ST=OH/L=Columbus/O=VikingVPN/OU=MyOrganizationalUnit/CN=VikingVPN CA/name=EasyRSA/emailAddress=me@myhost.mydomain
                serial:CF:35:85:EE:80:BF:2A:3E

            X509v3 Extended Key Usage: 
                TLS Web Client Authentication
            X509v3 Key Usage: 
                Digital Signature
    Signature Algorithm: md5WithRSAEncryption
         4a:23:b6:a0:5d:c7:34:3e:b2:ae:ff:4f:ea:ac:62:c6:fa:2d:
         23:42:e1:26:41:c0:de:17:9f:de:ad:72:27:ad:02:31:9a:bd:
         72:e0:50:f8:4f:f6:0d:a6:dd:61:71:22:20:85:02:b2:44:2e:
         ba:08:ae:4f:e0:7b:76:91:cb:d8:9f:de:19:52:1f:b1:cd:0d:
         ee:ce:ef:72:f3:fc:c1:99:03:10:00:fc:8f:e8:61:54:6d:86:
         29:44:86:f6:fc:1c:68:ac:42:3d:cb:4f:d0:43:16:94:03:f4:
         d0:d9:8f:2c:e8:c0:31:1e:d9:7e:44:f8:be:23:68:c8:2d:8f:
         41:60:89:f9:64:5f:30:18:79:6e:32:c5:d6:28:a4:58:38:f6:
         29:db:40:ea:55:32:97:35:1e:46:5f:b1:ca:fd:5c:d0:76:39:
         b4:35:3e:58:ae:22:d3:49:60:ee:e2:e3:19:89:91:39:91:08:
         f8:c3:a0:e5:92:b2:06:70:28:ef:59:70:d7:f8:99:17:5d:6d:
         91:69:71:08:7a:45:c8:56:6f:17:53:e2:4d:7c:7c:42:00:b8:
         98:15:67:b1:81:c2:50:e0:19:47:31:56:3a:aa:3b:59:40:47:
         7a:29:ed:8e:1d:94:64:de:db:ae:14:0f:67:38:9b:9b:e0:38:
         70:e9:a5:1d:59:b5:bf:5a:95:29:8a:27:d8:6b:67:34:77:70:
         d8:15:22:bc:72:d0:07:38:fc:d2:3f:61:3c:ad:6b:48:44:d6:
         02:f2:56:b6:2d:07:b7:3a:3c:2d:76:25:6e:bb:32:17:d6:ba:
         3d:37:0b:26:fc:f5:80:b8:3f:3e:74:f9:c6:2b:33:55:20:2a:
         c5:e7:36:32:4a:43:92:3c:26:0c:c7:b3:2e:0e:ed:ec:7e:0a:
         be:13:88:26:8d:de:f5:57:23:a2:e0:ea:3e:f7:b5:19:d7:18:
         df:5d:29:ef:f0:ec:08:fc:b6:27:fd:02:69:c1:3a:df:fe:85:
         57:a3:98:7d:f6:08:94:9b:14:37:de:54:a5:83:a1:9e:28:b5:
         0d:57:b4:31:da:59:7e:61:2e:49:de:6d:8d:ff:b1:b4:4c:08:
         b5:c8:53:34:1b:0f:9b:b7:99:33:5f:c2:05:1e:58:66:fe:7f:
         52:9e:5a:dc:0e:81:65:d5:17:c1:7b:53:b3:50:5c:86:d4:54:
         3f:ff:6e:38:65:31:f2:d1:ec:2c:0e:59:d8:f0:7f:e5:fa:e1:
         e7:5d:17:00:a5:66:53:05:71:04:e7:99:55:1c:70:1d:8e:ea:
         fc:dc:ef:c9:3f:9c:62:f2:c6:c7:69:e0:9d:cb:fb:6c:68:3e:
         37:c7:84:97:41:e6:53:ed
-----BEGIN CERTIFICATE-----
MIIGrTCCBJWgAwIBAgICIJ4wDQYJKoZIhvcNAQEEBQAwgawxCzAJBgNVBAYTAlVT
MQswCQYDVQQIEwJPSDERMA8GA1UEBxMIQ29sdW1idXMxEjAQBgNVBAoTCVZpa2lu
Z1ZQTjEdMBsGA1UECxMUTXlPcmdhbml6YXRpb25hbFVuaXQxFTATBgNVBAMTDFZp
a2luZ1ZQTiBDQTEQMA4GA1UEKRMHRWFzeVJTQTEhMB8GCSqGSIb3DQEJARYSbWVA
bXlob3N0Lm15ZG9tYWluMB4XDTE2MDYyMzIwMTEzNloXDTI2MDYyMTIwMTEzNlow
HzEdMBsGA1UEAxMUQ2xpZW50MjA0MkNlcnQzM2Q4NzEwggIiMA0GCSqGSIb3DQEB
AQUAA4ICDwAwggIKAoICAQDrewgRWjs3KMwe+/Z8PKfz0i7dK662Ml0wHVzUFJQg
+QgBFWrcStJkOLK3C1z9KLHdfxQw2x/uIJYI7/+dt0FEhqrQmY0nqaJMFpRLu0YW
TgDw/IdiU+RfX2gCvotXA8eJeVD+LCwVc/VJqFpa3Q+oKt7feYSZJ2PsX7ulUuzK
Nn6FZU51vrNDDI3biM6ehJkmbu2/btLwQv5x5HBpe5U0dzkpXsoOcZvQEfDE0gq1
xj7qxJGUIgcTy4TvSIwM2FzCju4tUbxl/empotIax6GfL4NVVxUr24nv3Zk40BHp
JNo2YcmEAVotrJ5i/8aoTE2nbUFb2cZF/xwbc0gjSoiTZ+CQNSUdSjWFBmzb//gg
mng+WQ434ewRnUTAhPkkw5e3/K1ji/B7fGpfR3tmgad+XcMrJP6SHqTCRpT5NOKp
pEdqzdS+Eaym4hmSi12Pu7DGgM7yE5K6CNYwZFK+EJbru1uYnTnBJx8Azt4GLq0j
ZM8Su5WX3mRU+zrtrcGyHaGI0TpBmOVZg1YLYYLnJCSymMTILfdIVYwf0OODAZmJ
i4+mNl64ChD4bEA2Whnf/Hy6QwrBOKXj3B+KUnrSxeDPT1I4dYkepsdlk388khak
zcdQHV4Pud4ZLc/mRDSH6STsoasKS8qREjhWAo4D/zoWy0u1IRcZrySAak9OLnWr
mQIDAQABo4IBYzCCAV8wCQYDVR0TBAIwADAtBglghkgBhvhCAQ0EIBYeRWFzeS1S
U0EgR2VuZXJhdGVkIENlcnRpZmljYXRlMB0GA1UdDgQWBBTAT3fPOe4rPAhhRXPp
i5nbXBFKYjCB4QYDVR0jBIHZMIHWgBQSzWAE0qCAnnDtxpm4eyzGUv0ZoaGBsqSB
rzCBrDELMAkGA1UEBhMCVVMxCzAJBgNVBAgTAk9IMREwDwYDVQQHEwhDb2x1bWJ1
czESMBAGA1UEChMJVmlraW5nVlBOMR0wGwYDVQQLExRNeU9yZ2FuaXphdGlvbmFs
VW5pdDEVMBMGA1UEAxMMVmlraW5nVlBOIENBMRAwDgYDVQQpEwdFYXN5UlNBMSEw
HwYJKoZIhvcNAQkBFhJtZUBteWhvc3QubXlkb21haW6CCQDPNYXugL8qPjATBgNV
HSUEDDAKBggrBgEFBQcDAjALBgNVHQ8EBAMCB4AwDQYJKoZIhvcNAQEEBQADggIB
AEojtqBdxzQ+sq7/T+qsYsb6LSNC4SZBwN4Xn96tcietAjGavXLgUPhP9g2m3WFx
IiCFArJELroIrk/ge3aRy9if3hlSH7HNDe7O73Lz/MGZAxAA/I/oYVRthilEhvb8
HGisQj3LT9BDFpQD9NDZjyzowDEe2X5E+L4jaMgtj0FgiflkXzAYeW4yxdYopFg4
9inbQOpVMpc1HkZfscr9XNB2ObQ1PliuItNJYO7i4xmJkTmRCPjDoOWSsgZwKO9Z
cNf4mRddbZFpcQh6RchWbxdT4k18fEIAuJgVZ7GBwlDgGUcxVjqqO1lAR3op7Y4d
lGTe264UD2c4m5vgOHDppR1Ztb9alSmKJ9hrZzR3cNgVIrxy0Ac4/NI/YTyta0hE
1gLyVrYtB7c6PC12JW67MhfWuj03Cyb89YC4Pz50+cYrM1UgKsXnNjJKQ5I8JgzH
sy4O7ex+Cr4TiCaN3vVXI6Lg6j73tRnXGN9dKe/w7Aj8tif9AmnBOt/+hVejmH32
CJSbFDfeVKWDoZ4otQ1XtDHaWX5hLknebY3/sbRMCLXIUzQbD5u3mTNfwgUeWGb+
f1KeWtwOgWXVF8F7U7NQXIbUVD//bjhlMfLR7CwOWdjwf+X64eddFwClZlMFcQTn
mVUccB2O6vzc78k/nGLyxsdp4J3L+2xoPjfHhJdB5lPt
-----END CERTIFICATE-----
