Certificate:
    Data:
        Version: 3 (0x2)
        Serial Number: 2487 (0x9b7)
    Signature Algorithm: md5WithRSAEncryption
        Issuer: C=US, ST=OH, L=Columbus, O=VikingVPN, OU=MyOrganizationalUnit, CN=VikingVPN CA/name=EasyRSA/emailAddress=me@myhost.mydomain
        Validity
            Not Before: Aug  8 05:02:41 2014 GMT
            Not After : Aug  5 05:02:41 2024 GMT
        Subject: CN=Client851Certb5511e
        Subject Public Key Info:
            Public Key Algorithm: rsaEncryption
                Public-Key: (4096 bit)
                Modulus:
                    00:c2:fd:c0:53:a1:d9:32:7a:5b:d5:46:91:8a:0e:
                    02:89:a9:9b:2c:21:2e:53:82:b9:80:67:5a:60:49:
                    47:e5:c3:f6:09:4e:5a:36:1b:d8:9c:57:86:53:fe:
                    ad:73:3c:89:7a:10:b4:1d:55:8a:2a:9b:90:f9:1a:
                    dc:8a:03:5b:24:e6:46:b3:e7:0e:a4:44:fa:9e:3f:
                    cc:6f:56:fc:25:fc:76:d7:37:1e:c9:f4:c9:29:ad:
                    ab:88:b9:e4:e6:39:66:58:d3:cc:5d:f4:d1:27:22:
                    bd:53:e8:a2:e2:0c:5b:d1:1b:28:f2:7e:68:ac:ed:
                    28:d3:e8:de:f0:77:92:99:94:24:62:39:99:69:8e:
                    5e:77:12:4d:15:93:82:3b:ca:f1:e8:37:1e:61:56:
                    ef:ac:26:b3:57:b0:7e:ee:e6:fa:b7:76:f9:76:90:
                    d5:bd:5d:13:2e:ed:00:4e:bb:7d:45:a2:5b:8e:ed:
                    5a:7d:2a:2b:fb:c9:82:46:40:87:00:65:34:ac:6e:
                    a6:d6:79:f1:d5:78:7f:29:f8:42:12:d9:c5:b0:60:
                    4c:05:48:87:f3:47:cc:d6:07:21:b8:bc:0e:97:2b:
                    7a:5f:1f:79:40:08:1c:5c:20:7b:15:5a:12:bf:08:
                    bc:c6:00:15:05:79:f5:a9:5a:34:0b:09:73:9a:2e:
                    26:16:47:18:8f:45:e9:1e:24:0a:65:15:57:af:b8:
                    5e:50:dd:9b:b8:d0:a4:24:cd:ff:18:f9:66:9a:b1:
                    df:5d:7c:92:92:f2:0b:cf:34:57:19:d7:e6:32:3f:
                    bf:60:e5:6a:2e:ab:19:f7:86:31:b3:2b:35:dd:93:
                    d3:4a:8b:79:60:5f:4e:87:60:25:01:ee:82:f6:b6:
                    16:2a:1b:a2:f4:89:aa:8e:e0:84:09:84:97:8c:04:
                    37:53:42:1b:af:f3:f2:60:b0:1c:0f:8d:4e:e1:11:
                    dd:b3:2b:f9:74:f0:61:05:88:bd:06:10:1f:b7:30:
                    7d:91:29:25:ff:84:8f:c0:61:fc:13:b9:8d:df:92:
                    e8:8f:db:a9:b0:f2:b2:13:4d:34:f9:30:a6:f3:5c:
                    03:63:b0:de:a9:ed:e5:e8:cf:ff:12:8a:23:8a:05:
                    d1:92:1d:11:13:10:10:08:f2:99:1d:15:42:b3:63:
                    df:a4:6c:84:eb:72:f5:4d:06:f7:48:b4:3c:7e:ab:
                    b8:30:d2:8a:0c:4d:79:fc:fc:e8:d9:a4:b5:4d:af:
                    e7:8d:6a:f8:cb:5d:74:65:5d:34:76:79:84:57:ce:
                    7e:df:0f:c8:e1:ee:cd:e2:d6:3d:49:09:6e:16:e9:
                    56:b6:f9:67:c1:de:bb:01:df:6d:39:7f:a1:72:58:
                    f8:4f:0d
                Exponent: 65537 (0x10001)
        X509v3 extensions:
            X509v3 Basic Constraints: 
                CA:FALSE
            Netscape Comment: 
                Easy-RSA Generated Certificate
            X509v3 Subject Key Identifier: 
                CD:74:E1:71:D6:7C:30:5F:CF:C1:C9:C8:3E:2E:7F:67:1C:E2:09:6D
            X509v3 Authority Key Identifier: 
                keyid:12:CD:60:04:D2:A0:80:9E:70:ED:C6:99:B8:7B:2C:C6:52:FD:19:A1
                DirName:/C=US/ST=OH/L=Columbus/O=VikingVPN/OU=MyOrganizationalUnit/CN=VikingVPN CA/name=EasyRSA/emailAddress=me@myhost.mydomain
                serial:CF:35:85:EE:80:BF:2A:3E

            X509v3 Extended Key Usage: 
                TLS Web Client Authentication
            X509v3 Key Usage: 
                Digital Signature
    Signature Algorithm: md5WithRSAEncryption
         0f:18:12:8e:79:e8:8d:99:05:6d:43:77:f0:1d:35:80:8f:67:
         2c:34:6b:50:95:bf:e5:46:44:3c:5f:e7:5e:ec:23:1c:ef:2c:
         aa:fd:cd:cc:47:da:2d:ea:2f:7f:91:b3:fe:e7:bb:69:be:2e:
         34:b3:46:c0:64:a4:83:8e:fe:12:38:da:ee:c6:c0:b3:d8:45:
         88:f7:a9:8f:b1:f6:f7:92:60:07:90:1c:a9:e3:19:e2:aa:da:
         e5:fe:93:36:dc:c2:72:f1:2a:59:45:92:8c:5d:67:6d:4f:77:
         8b:f4:6f:f8:37:92:9b:a0:05:18:5e:0b:d1:ff:75:41:c7:0e:
         c4:b9:a9:64:f6:eb:31:c6:d6:c3:76:55:a7:ec:b6:41:61:31:
         6a:b5:d1:7c:0e:e0:2d:8a:e8:0e:b8:bf:e0:db:4b:c7:08:a7:
         08:f9:52:89:34:ab:95:13:96:b5:e0:e7:2d:01:32:9e:d0:26:
         83:cd:33:99:85:37:c2:6d:3c:63:40:31:2c:15:61:25:9a:77:
         21:75:1e:92:7e:5d:f8:f5:95:bc:97:21:70:de:4a:c2:ac:f7:
         07:64:f9:fa:90:95:90:56:63:b2:7d:e6:8b:91:7f:66:e6:a6:
         b5:17:65:9e:af:1f:ef:44:52:e5:b0:2e:65:65:c7:32:bd:42:
         50:46:49:b1:7d:c0:c1:08:85:b4:f6:0c:4d:20:10:bc:02:ce:
         51:c9:2b:5e:84:da:7e:9c:a1:44:04:b5:14:1f:58:e0:ee:f4:
         7b:74:9a:f3:dc:f7:c6:7c:e9:06:23:e2:8b:e6:87:ad:3e:f1:
         d5:6b:01:e8:8a:dc:da:37:23:ad:85:db:11:b8:aa:21:9f:53:
         58:d0:96:ec:cd:54:a0:2b:6c:28:44:cc:34:be:2a:ce:67:da:
         67:99:be:86:8c:c8:3a:b7:b8:d6:8d:7f:77:d7:1a:9a:c8:1b:
         c1:89:a9:1c:92:13:23:44:0d:2c:60:b1:59:46:c5:cf:c6:b1:
         2f:9d:24:1d:1f:23:19:19:c8:6a:b9:c2:2f:c4:1e:3b:1e:f9:
         75:5e:4f:b9:08:3b:90:c3:37:64:f9:2b:30:f2:61:db:1c:3c:
         6d:c6:1d:e6:54:6f:fd:40:78:95:13:64:1f:14:8e:40:9e:d0:
         36:37:28:15:09:d6:ad:0b:d3:8d:01:95:bc:c9:a3:c3:8a:a9:
         06:bb:1b:aa:a3:c4:3a:04:3d:31:c3:36:f2:56:f5:b5:a2:67:
         43:d7:44:9f:cb:c0:71:2f:de:4e:53:13:f2:48:9f:67:f1:d4:
         d6:c2:9e:f7:6f:93:75:52:65:f9:c3:39:48:f2:b5:ac:47:cd:
         0f:fe:b4:e2:3d:a2:9d:45
-----BEGIN CERTIFICATE-----
MIIGrDCCBJSgAwIBAgICCbcwDQYJKoZIhvcNAQEEBQAwgawxCzAJBgNVBAYTAlVT
MQswCQYDVQQIEwJPSDERMA8GA1UEBxMIQ29sdW1idXMxEjAQBgNVBAoTCVZpa2lu
Z1ZQTjEdMBsGA1UECxMUTXlPcmdhbml6YXRpb25hbFVuaXQxFTATBgNVBAMTDFZp
a2luZ1ZQTiBDQTEQMA4GA1UEKRMHRWFzeVJTQTEhMB8GCSqGSIb3DQEJARYSbWVA
bXlob3N0Lm15ZG9tYWluMB4XDTE0MDgwODA1MDI0MVoXDTI0MDgwNTA1MDI0MVow
HjEcMBoGA1UEAxMTQ2xpZW50ODUxQ2VydGI1NTExZTCCAiIwDQYJKoZIhvcNAQEB
BQADggIPADCCAgoCggIBAML9wFOh2TJ6W9VGkYoOAompmywhLlOCuYBnWmBJR+XD
9glOWjYb2JxXhlP+rXM8iXoQtB1ViiqbkPka3IoDWyTmRrPnDqRE+p4/zG9W/CX8
dtc3Hsn0ySmtq4i55OY5ZljTzF300ScivVPoouIMW9EbKPJ+aKztKNPo3vB3kpmU
JGI5mWmOXncSTRWTgjvK8eg3HmFW76wms1ewfu7m+rd2+XaQ1b1dEy7tAE67fUWi
W47tWn0qK/vJgkZAhwBlNKxuptZ58dV4fyn4QhLZxbBgTAVIh/NHzNYHIbi8Dpcr
el8feUAIHFwgexVaEr8IvMYAFQV59alaNAsJc5ouJhZHGI9F6R4kCmUVV6+4XlDd
m7jQpCTN/xj5Zpqx3118kpLyC880VxnX5jI/v2Dlai6rGfeGMbMrNd2T00qLeWBf
TodgJQHugva2FiobovSJqo7ghAmEl4wEN1NCG6/z8mCwHA+NTuER3bMr+XTwYQWI
vQYQH7cwfZEpJf+Ej8Bh/BO5jd+S6I/bqbDyshNNNPkwpvNcA2Ow3qnt5ejP/xKK
I4oF0ZIdERMQEAjymR0VQrNj36RshOty9U0G90i0PH6ruDDSigxNefz86NmktU2v
541q+MtddGVdNHZ5hFfOft8PyOHuzeLWPUkJbhbpVrb5Z8HeuwHfbTl/oXJY+E8N
AgMBAAGjggFjMIIBXzAJBgNVHRMEAjAAMC0GCWCGSAGG+EIBDQQgFh5FYXN5LVJT
QSBHZW5lcmF0ZWQgQ2VydGlmaWNhdGUwHQYDVR0OBBYEFM104XHWfDBfz8HJyD4u
f2cc4gltMIHhBgNVHSMEgdkwgdaAFBLNYATSoICecO3Gmbh7LMZS/RmhoYGypIGv
MIGsMQswCQYDVQQGEwJVUzELMAkGA1UECBMCT0gxETAPBgNVBAcTCENvbHVtYnVz
MRIwEAYDVQQKEwlWaWtpbmdWUE4xHTAbBgNVBAsTFE15T3JnYW5pemF0aW9uYWxV
bml0MRUwEwYDVQQDEwxWaWtpbmdWUE4gQ0ExEDAOBgNVBCkTB0Vhc3lSU0ExITAf
BgkqhkiG9w0BCQEWEm1lQG15aG9zdC5teWRvbWFpboIJAM81he6Avyo+MBMGA1Ud
JQQMMAoGCCsGAQUFBwMCMAsGA1UdDwQEAwIHgDANBgkqhkiG9w0BAQQFAAOCAgEA
DxgSjnnojZkFbUN38B01gI9nLDRrUJW/5UZEPF/nXuwjHO8sqv3NzEfaLeovf5Gz
/ue7ab4uNLNGwGSkg47+Ejja7sbAs9hFiPepj7H295JgB5AcqeMZ4qra5f6TNtzC
cvEqWUWSjF1nbU93i/Rv+DeSm6AFGF4L0f91QccOxLmpZPbrMcbWw3ZVp+y2QWEx
arXRfA7gLYroDri/4NtLxwinCPlSiTSrlROWteDnLQEyntAmg80zmYU3wm08Y0Ax
LBVhJZp3IXUekn5d+PWVvJchcN5Kwqz3B2T5+pCVkFZjsn3mi5F/ZuamtRdlnq8f
70RS5bAuZWXHMr1CUEZJsX3AwQiFtPYMTSAQvALOUckrXoTafpyhRAS1FB9Y4O70
e3Sa89z3xnzpBiPii+aHrT7x1WsB6Irc2jcjrYXbEbiqIZ9TWNCW7M1UoCtsKETM
NL4qzmfaZ5m+hozIOre41o1/d9camsgbwYmpHJITI0QNLGCxWUbFz8axL50kHR8j
GRnIarnCL8QeOx75dV5PuQg7kMM3ZPkrMPJh2xw8bcYd5lRv/UB4lRNkHxSOQJ7Q
NjcoFQnWrQvTjQGVvMmjw4qpBrsbqqPEOgQ9McM28lb1taJnQ9dEn8vAcS/eTlMT
8kifZ/HU1sKe92+TdVJl+cM5SPK1rEfND/604j2inUU=
-----END CERTIFICATE-----
