Certificate:
    Data:
        Version: 3 (0x2)
        Serial Number: 4304 (0x10d0)
    Signature Algorithm: md5WithRSAEncryption
        Issuer: C=US, ST=OH, L=Columbus, O=VikingVPN, OU=MyOrganizationalUnit, CN=VikingVPN CA/name=EasyRSA/emailAddress=me@myhost.mydomain
        Validity
            Not Before: Jan 28 00:51:32 2015 GMT
            Not After : Jan 25 00:51:32 2025 GMT
        Subject: CN=Client851Cert07b044
        Subject Public Key Info:
            Public Key Algorithm: rsaEncryption
                Public-Key: (4096 bit)
                Modulus:
                    00:b0:7b:84:80:fa:3e:30:53:4f:6b:b6:1c:3b:82:
                    7b:cc:8e:56:e6:a1:33:7a:3b:02:3c:ce:e3:5f:0f:
                    ca:33:d3:d4:07:31:b0:0f:7d:da:a4:b5:c3:a3:bc:
                    37:82:63:19:cb:d1:b0:ac:50:36:6d:b1:eb:e2:1c:
                    9c:5c:2a:b6:55:69:5e:7c:71:f6:f1:a4:b7:c3:8d:
                    92:70:1c:7d:5a:b0:6b:b7:63:f3:3b:72:b9:65:84:
                    fe:fc:ca:20:de:78:7f:9b:0c:91:8a:4a:86:33:6a:
                    cd:ab:75:79:53:e9:f1:d3:d1:d9:22:31:c2:d8:8d:
                    93:4c:62:bd:da:e4:11:b9:d4:9c:83:4d:00:ef:7c:
                    09:cf:ae:b7:08:bf:c0:e0:39:57:47:e6:ce:4b:1f:
                    4b:e7:07:49:7e:86:15:24:a5:a3:be:be:4f:6d:c2:
                    85:67:c2:59:39:b4:5b:7a:1a:dd:8f:3f:a2:82:cf:
                    d6:91:75:39:52:92:61:b4:67:9f:c5:94:a7:75:f0:
                    6a:1f:8b:ba:c7:4f:ab:a7:6e:a8:a9:54:cd:3a:e0:
                    cf:0c:83:47:85:50:09:e1:4f:ec:2d:08:12:73:55:
                    7a:d6:e6:e5:c1:6e:99:73:54:e4:97:35:72:23:cd:
                    84:7d:7e:f5:7c:c9:96:09:c0:55:f1:33:36:e4:29:
                    60:67:37:42:b7:ae:9a:3e:e7:93:18:d0:b6:0d:91:
                    6c:19:99:a6:75:6f:5c:5f:66:7c:10:0e:19:5c:f2:
                    71:f9:b0:76:60:20:d3:19:04:b9:99:0e:f5:8c:4f:
                    0f:ba:89:9f:26:e6:bc:38:7d:08:98:8a:ef:3a:80:
                    ff:c1:42:05:e4:4f:84:df:c7:8d:85:76:ce:01:f2:
                    2b:88:19:db:99:4d:ed:dd:5e:7d:61:1e:8f:b8:b4:
                    89:e7:0d:79:b4:4f:2c:2f:e2:ce:82:94:b0:83:5e:
                    60:e5:cd:0d:99:d3:33:79:4f:ff:58:1b:d1:55:01:
                    b4:7b:50:81:b9:d3:36:e2:94:aa:14:ca:60:e4:de:
                    d7:6b:3d:e3:06:02:20:8d:d0:7a:a8:e2:eb:0e:ab:
                    c1:64:c6:86:b3:59:34:db:6b:34:bc:4d:27:3f:fe:
                    f4:17:c3:04:3a:8d:9b:92:ef:77:69:cf:0d:63:e9:
                    43:7a:1f:c6:7b:ef:fc:dc:80:f2:98:61:bc:91:f6:
                    38:bf:6a:a3:30:df:27:21:df:c5:c0:c6:17:7c:89:
                    f7:6f:58:81:9e:52:89:e3:68:f7:1b:f7:c6:0e:66:
                    cd:8c:1f:c3:e9:4d:51:cd:01:c3:be:7e:64:18:07:
                    a9:91:d8:b9:82:63:a8:5f:67:6c:64:52:f8:7e:cc:
                    4f:3b:05
                Exponent: 65537 (0x10001)
        X509v3 extensions:
            X509v3 Basic Constraints: 
                CA:FALSE
            Netscape Comment: 
                Easy-RSA Generated Certificate
            X509v3 Subject Key Identifier: 
                4E:E2:33:E1:32:88:83:B4:43:E8:45:E4:67:D1:81:A0:84:68:04:9F
            X509v3 Authority Key Identifier: 
                keyid:12:CD:60:04:D2:A0:80:9E:70:ED:C6:99:B8:7B:2C:C6:52:FD:19:A1
                DirName:/C=US/ST=OH/L=Columbus/O=VikingVPN/OU=MyOrganizationalUnit/CN=VikingVPN CA/name=EasyRSA/emailAddress=me@myhost.mydomain
                serial:CF:35:85:EE:80:BF:2A:3E

            X509v3 Extended Key Usage: 
                TLS Web Client Authentication
            X509v3 Key Usage: 
                Digital Signature
    Signature Algorithm: md5WithRSAEncryption
         7c:f3:50:1b:94:de:04:05:88:f6:7f:c3:b7:d2:ff:9c:f7:52:
         75:cc:95:55:2d:6a:07:bf:19:4d:a7:f3:d9:12:20:2b:e4:76:
         dd:06:04:98:17:e5:29:f5:aa:9a:19:9e:99:f0:42:97:71:7d:
         13:c4:13:63:e1:af:39:80:6d:af:f7:75:58:e8:e4:fd:94:5f:
         6a:55:15:e9:88:3a:27:08:80:cd:77:eb:15:6f:5b:61:4d:a8:
         77:17:e2:03:f8:69:11:f3:19:e1:cc:c0:05:f4:87:f2:50:dd:
         cd:01:43:62:2b:b8:f5:b3:12:ea:c1:39:47:36:e1:a3:79:6f:
         b1:01:d4:fc:a5:8f:61:ec:ea:b1:d8:ec:d9:e4:b8:b4:40:39:
         6a:fd:54:30:34:dc:66:f9:c0:65:a4:b8:b2:26:53:24:41:4e:
         86:33:89:90:1b:28:26:6c:fc:27:fc:58:e8:f2:42:f4:c0:cb:
         16:62:54:77:53:ce:84:ca:16:10:12:3a:ab:b2:27:58:38:fa:
         16:df:82:be:34:b1:15:71:9c:a3:dc:0c:0e:31:a3:0e:15:82:
         d6:bc:68:53:79:e8:e3:56:3b:a0:f2:e5:4a:9d:f7:46:fc:f9:
         3b:55:6c:b8:9a:cd:a3:44:54:78:4d:6d:0b:16:4c:4f:f0:dd:
         5a:5a:51:f6:30:9c:d8:fc:2c:16:57:78:b1:c8:22:0a:fe:10:
         b9:21:45:86:a1:f8:4e:cd:91:6d:22:6d:7e:f4:82:69:cd:20:
         c9:e8:f7:02:fc:f2:6f:06:ac:cd:ce:6c:a2:ec:04:85:86:86:
         e3:86:07:61:98:cc:97:37:e8:6e:27:f7:18:34:77:e7:da:fd:
         02:b0:1f:cd:f1:c4:bc:86:43:a7:7b:d6:30:71:46:98:a1:c9:
         eb:f8:7a:43:d9:7e:19:e2:28:38:b4:fe:c9:a6:5f:3d:66:ff:
         51:78:66:1c:52:a5:d1:fe:59:8d:f0:e8:f4:c9:80:eb:de:d7:
         eb:71:17:8f:5f:70:92:33:41:71:7e:77:90:66:39:7f:99:3d:
         dd:d8:9c:db:55:69:dd:ed:8a:0e:77:92:f1:09:22:06:fd:bb:
         35:b6:9a:a3:13:fc:14:1f:83:c9:be:04:0a:94:e7:b6:da:66:
         bb:5d:35:e3:3b:c6:66:9d:0e:d1:31:ff:bc:75:fd:a1:1e:84:
         ec:85:87:07:f8:fa:78:9e:2a:c7:ad:ce:c2:f2:ff:1b:13:76:
         63:64:fd:1a:a4:bd:7a:5c:5b:e9:9a:0a:dc:d4:3d:07:fe:02:
         ff:1e:75:c6:68:5c:10:df:a7:bd:2f:4b:37:ac:a3:b3:65:17:
         ac:64:41:44:34:e4:04:10
-----BEGIN CERTIFICATE-----
MIIGrDCCBJSgAwIBAgICENAwDQYJKoZIhvcNAQEEBQAwgawxCzAJBgNVBAYTAlVT
MQswCQYDVQQIEwJPSDERMA8GA1UEBxMIQ29sdW1idXMxEjAQBgNVBAoTCVZpa2lu
Z1ZQTjEdMBsGA1UECxMUTXlPcmdhbml6YXRpb25hbFVuaXQxFTATBgNVBAMTDFZp
a2luZ1ZQTiBDQTEQMA4GA1UEKRMHRWFzeVJTQTEhMB8GCSqGSIb3DQEJARYSbWVA
bXlob3N0Lm15ZG9tYWluMB4XDTE1MDEyODAwNTEzMloXDTI1MDEyNTAwNTEzMlow
HjEcMBoGA1UEAxMTQ2xpZW50ODUxQ2VydDA3YjA0NDCCAiIwDQYJKoZIhvcNAQEB
BQADggIPADCCAgoCggIBALB7hID6PjBTT2u2HDuCe8yOVuahM3o7AjzO418PyjPT
1AcxsA992qS1w6O8N4JjGcvRsKxQNm2x6+IcnFwqtlVpXnxx9vGkt8ONknAcfVqw
a7dj8ztyuWWE/vzKIN54f5sMkYpKhjNqzat1eVPp8dPR2SIxwtiNk0xivdrkEbnU
nINNAO98Cc+utwi/wOA5V0fmzksfS+cHSX6GFSSlo76+T23ChWfCWTm0W3oa3Y8/
ooLP1pF1OVKSYbRnn8WUp3Xwah+LusdPq6duqKlUzTrgzwyDR4VQCeFP7C0IEnNV
etbm5cFumXNU5Jc1ciPNhH1+9XzJlgnAVfEzNuQpYGc3Qreumj7nkxjQtg2RbBmZ
pnVvXF9mfBAOGVzycfmwdmAg0xkEuZkO9YxPD7qJnybmvDh9CJiK7zqA/8FCBeRP
hN/HjYV2zgHyK4gZ25lN7d1efWEej7i0iecNebRPLC/izoKUsINeYOXNDZnTM3lP
/1gb0VUBtHtQgbnTNuKUqhTKYOTe12s94wYCII3Qeqji6w6rwWTGhrNZNNtrNLxN
Jz/+9BfDBDqNm5Lvd2nPDWPpQ3ofxnvv/NyA8phhvJH2OL9qozDfJyHfxcDGF3yJ
929YgZ5SieNo9xv3xg5mzYwfw+lNUc0Bw75+ZBgHqZHYuYJjqF9nbGRS+H7MTzsF
AgMBAAGjggFjMIIBXzAJBgNVHRMEAjAAMC0GCWCGSAGG+EIBDQQgFh5FYXN5LVJT
QSBHZW5lcmF0ZWQgQ2VydGlmaWNhdGUwHQYDVR0OBBYEFE7iM+EyiIO0Q+hF5GfR
gaCEaASfMIHhBgNVHSMEgdkwgdaAFBLNYATSoICecO3Gmbh7LMZS/RmhoYGypIGv
MIGsMQswCQYDVQQGEwJVUzELMAkGA1UECBMCT0gxETAPBgNVBAcTCENvbHVtYnVz
MRIwEAYDVQQKEwlWaWtpbmdWUE4xHTAbBgNVBAsTFE15T3JnYW5pemF0aW9uYWxV
bml0MRUwEwYDVQQDEwxWaWtpbmdWUE4gQ0ExEDAOBgNVBCkTB0Vhc3lSU0ExITAf
BgkqhkiG9w0BCQEWEm1lQG15aG9zdC5teWRvbWFpboIJAM81he6Avyo+MBMGA1Ud
JQQMMAoGCCsGAQUFBwMCMAsGA1UdDwQEAwIHgDANBgkqhkiG9w0BAQQFAAOCAgEA
fPNQG5TeBAWI9n/Dt9L/nPdSdcyVVS1qB78ZTafz2RIgK+R23QYEmBflKfWqmhme
mfBCl3F9E8QTY+GvOYBtr/d1WOjk/ZRfalUV6Yg6JwiAzXfrFW9bYU2odxfiA/hp
EfMZ4czABfSH8lDdzQFDYiu49bMS6sE5Rzbho3lvsQHU/KWPYezqsdjs2eS4tEA5
av1UMDTcZvnAZaS4siZTJEFOhjOJkBsoJmz8J/xY6PJC9MDLFmJUd1POhMoWEBI6
q7InWDj6Ft+CvjSxFXGco9wMDjGjDhWC1rxoU3no41Y7oPLlSp33Rvz5O1VsuJrN
o0RUeE1tCxZMT/DdWlpR9jCc2PwsFld4scgiCv4QuSFFhqH4Ts2RbSJtfvSCac0g
yej3Avzybwaszc5souwEhYaG44YHYZjMlzfobif3GDR359r9ArAfzfHEvIZDp3vW
MHFGmKHJ6/h6Q9l+GeIoOLT+yaZfPWb/UXhmHFKl0f5ZjfDo9MmA697X63EXj19w
kjNBcX53kGY5f5k93dic21Vp3e2KDneS8QkiBv27NbaaoxP8FB+Dyb4ECpTnttpm
u1014zvGZp0O0TH/vHX9oR6E7IWHB/j6eJ4qx63OwvL/GxN2Y2T9GqS9elxb6ZoK
3NQ9B/4C/x51xmhcEN+nvS9LN6yjs2UXrGRBRDTkBBA=
-----END CERTIFICATE-----
