Certificate:
    Data:
        Version: 3 (0x2)
        Serial Number: 11234 (0x2be2)
    Signature Algorithm: sha256WithRSAEncryption
        Issuer: C=US, ST=OH, L=Columbus, O=VikingVPN, OU=MyOrganizationalUnit, CN=VikingVPN CA/name=EasyRSA/emailAddress=me@myhost.mydomain
        Validity
            Not Before: Jul  5 19:54:52 2017 GMT
            Not After : Jul  3 19:54:52 2027 GMT
        Subject: CN=Client2919Cert855da2
        Subject Public Key Info:
            Public Key Algorithm: rsaEncryption
                Public-Key: (4096 bit)
                Modulus:
                    00:c9:e1:3e:65:ee:be:4b:9f:47:2e:ee:9d:41:c9:
                    61:c6:b0:9a:e9:40:c2:17:d9:a6:06:42:99:ab:18:
                    82:1e:19:a1:26:46:9c:1f:b2:8f:f0:da:80:fa:cf:
                    96:73:e4:21:c4:35:d9:f4:aa:15:0a:68:fe:aa:6e:
                    76:bb:6b:e5:5c:12:35:65:af:6a:a8:cd:13:1d:cb:
                    b4:e5:a2:8a:62:39:48:ee:76:f8:3e:24:57:e4:0b:
                    ba:81:0f:d7:ae:e0:57:01:28:90:0d:47:7e:a2:c5:
                    4a:2a:14:17:13:50:6d:14:70:29:72:da:9b:2a:99:
                    01:8c:9a:12:a8:db:95:a5:ee:86:c7:e6:0d:59:64:
                    6f:1a:41:7e:08:66:46:c8:0f:ce:12:d3:af:c2:e5:
                    24:d6:d6:54:8e:81:1b:ab:62:59:3f:16:4d:8c:0e:
                    51:2a:24:86:bd:9f:f3:b1:b0:76:3c:64:df:b8:69:
                    ac:ba:33:a8:94:f9:27:ea:45:df:f2:57:f2:a2:21:
                    82:9f:f0:64:eb:42:bf:86:3d:7b:18:ea:52:d4:d0:
                    59:4c:11:3d:bf:e4:15:c2:24:fa:28:7d:01:b9:42:
                    9c:39:2f:67:86:b7:b9:02:1c:74:5d:c9:42:18:72:
                    64:0a:e0:dc:87:7b:88:d6:17:36:a8:d8:2d:05:66:
                    7f:3b:11:82:f8:42:63:c6:79:e8:3a:82:bc:85:bf:
                    eb:2d:88:4e:e3:4f:7b:98:a2:6d:f5:45:12:92:05:
                    8c:c0:23:28:e8:c0:72:2a:1e:01:de:40:b5:44:84:
                    2d:97:8a:fc:94:fc:f4:3c:55:01:2e:4d:60:c9:ff:
                    13:6f:60:1b:50:aa:c1:45:a4:3b:1f:07:86:b0:96:
                    2e:18:e8:a0:f5:fc:b2:c6:7f:1e:0e:8b:13:d5:f1:
                    cb:bd:32:cd:b6:3e:8c:75:14:a1:ea:b5:e5:9d:f9:
                    67:3b:81:de:ff:4c:96:df:a0:82:9f:08:60:44:0a:
                    d4:92:1b:95:e5:7d:f6:7d:49:16:b2:ad:05:06:b4:
                    5f:da:5a:59:01:4d:83:70:89:18:86:ff:22:7c:30:
                    6e:c9:3a:23:52:64:59:e6:a9:00:d0:98:a4:a1:1d:
                    de:27:be:6c:79:b1:8a:75:cf:35:40:62:71:6c:2e:
                    b1:c4:50:e8:64:a0:97:86:6c:58:5c:46:a1:0c:ea:
                    87:f6:a2:4e:e8:35:da:0f:5f:9b:b5:62:12:bc:19:
                    d0:a6:10:b5:9c:26:d7:5a:92:54:6c:c0:44:70:22:
                    18:b6:71:6e:00:56:9a:23:a5:cf:72:de:0f:14:30:
                    86:01:1d:c9:18:e4:b7:17:25:8a:86:03:3d:1e:77:
                    61:d4:c1
                Exponent: 65537 (0x10001)
        X509v3 extensions:
            X509v3 Basic Constraints: 
                CA:FALSE
            Netscape Comment: 
                Easy-RSA Generated Certificate
            X509v3 Subject Key Identifier: 
                FC:7F:AD:5A:DD:71:1E:20:3F:76:F5:44:3C:CA:4B:5D:39:4D:49:3B
            X509v3 Authority Key Identifier: 
                keyid:12:CD:60:04:D2:A0:80:9E:70:ED:C6:99:B8:7B:2C:C6:52:FD:19:A1
                DirName:/C=US/ST=OH/L=Columbus/O=VikingVPN/OU=MyOrganizationalUnit/CN=VikingVPN CA/name=EasyRSA/emailAddress=me@myhost.mydomain
                serial:CF:35:85:EE:80:BF:2A:3E

            X509v3 Extended Key Usage: 
                TLS Web Client Authentication
            X509v3 Key Usage: 
                Digital Signature
    Signature Algorithm: sha256WithRSAEncryption
         63:d8:cc:c1:b0:5d:e8:f0:3b:9a:e2:99:9b:2c:69:2c:95:92:
         6a:0b:65:3d:fb:47:1f:ca:e5:74:e8:60:72:00:74:75:d5:18:
         25:f6:3b:99:0d:0a:a2:9d:08:aa:c1:3b:64:38:91:18:e1:87:
         a2:7f:0f:4d:44:af:28:88:62:85:e3:13:bb:3e:33:5f:94:0f:
         1a:c6:a7:af:9b:de:fb:44:34:20:9c:33:cc:30:16:e5:6b:47:
         34:bf:1c:c4:d5:1d:c3:68:e5:30:44:81:6a:89:a3:29:65:a5:
         c1:bb:31:d3:96:3d:ab:e1:fb:d7:4c:62:2e:6f:02:93:c5:05:
         fc:9c:45:bf:43:89:08:e5:38:f8:d8:a4:6e:68:69:5c:91:34:
         68:9f:e5:27:1c:4c:b1:62:b7:24:24:de:92:72:a0:ad:d6:63:
         72:59:df:a0:85:4e:d1:4b:7d:27:1d:68:17:6c:f5:5b:ec:fe:
         b1:35:b9:e5:63:90:0f:73:cd:bc:9b:1b:26:f9:fa:49:95:e7:
         d4:b4:a4:62:2b:3f:92:44:60:a2:eb:09:83:8b:33:35:56:78:
         b1:45:4e:bf:08:a4:2d:7e:d3:6a:52:15:1c:7a:30:06:4e:c1:
         5b:fc:b0:fb:e9:15:cd:25:d3:05:e0:d7:6b:90:a7:bc:88:7d:
         74:eb:ed:fe:4a:2d:94:25:9e:73:03:b9:7e:c4:8f:97:89:71:
         b1:d5:7d:27:e2:c2:c5:93:ba:aa:7f:f1:5f:6f:8c:29:f7:a1:
         7a:5d:33:92:df:3a:22:1b:82:4e:7f:05:6a:ef:f6:49:e9:3e:
         5a:9a:45:8f:6d:71:03:21:20:d5:05:30:df:c0:f9:41:b5:dc:
         22:29:f0:41:3d:22:54:15:5e:e4:c0:e4:6b:b5:85:37:15:aa:
         5c:f4:ce:7c:5d:74:b2:d6:34:89:69:40:06:25:72:76:85:be:
         15:6a:cd:43:2f:f2:40:5e:0a:d2:c1:a9:c1:3a:8e:b6:13:cb:
         c7:2f:ae:bb:27:07:be:2a:33:b2:7f:b9:87:19:08:b5:47:a5:
         36:ce:81:a4:2c:7e:af:71:eb:6c:e2:14:8f:0d:4d:51:dc:b1:
         8c:f5:42:44:7c:9c:4a:2a:8e:e9:a4:58:b7:11:b8:48:19:b2:
         77:3b:c7:f3:e5:21:4c:10:f7:1d:ed:13:71:32:90:63:c5:e9:
         2a:55:b5:f9:20:c2:44:43:0c:6d:6e:c6:db:49:a0:97:94:76:
         f1:c9:1c:fe:2a:5d:b7:4d:bb:2c:d4:5e:11:47:e7:22:51:aa:
         a7:a6:16:9b:e7:98:76:39:23:01:3c:3a:56:3a:19:e2:5d:be:
         fc:33:cf:65:d3:97:09:f9
-----BEGIN CERTIFICATE-----
MIIGrTCCBJWgAwIBAgICK+IwDQYJKoZIhvcNAQELBQAwgawxCzAJBgNVBAYTAlVT
MQswCQYDVQQIEwJPSDERMA8GA1UEBxMIQ29sdW1idXMxEjAQBgNVBAoTCVZpa2lu
Z1ZQTjEdMBsGA1UECxMUTXlPcmdhbml6YXRpb25hbFVuaXQxFTATBgNVBAMTDFZp
a2luZ1ZQTiBDQTEQMA4GA1UEKRMHRWFzeVJTQTEhMB8GCSqGSIb3DQEJARYSbWVA
bXlob3N0Lm15ZG9tYWluMB4XDTE3MDcwNTE5NTQ1MloXDTI3MDcwMzE5NTQ1Mlow
HzEdMBsGA1UEAxMUQ2xpZW50MjkxOUNlcnQ4NTVkYTIwggIiMA0GCSqGSIb3DQEB
AQUAA4ICDwAwggIKAoICAQDJ4T5l7r5Ln0cu7p1ByWHGsJrpQMIX2aYGQpmrGIIe
GaEmRpwfso/w2oD6z5Zz5CHENdn0qhUKaP6qbna7a+VcEjVlr2qozRMdy7Tloopi
OUjudvg+JFfkC7qBD9eu4FcBKJANR36ixUoqFBcTUG0UcCly2psqmQGMmhKo25Wl
7obH5g1ZZG8aQX4IZkbID84S06/C5STW1lSOgRurYlk/Fk2MDlEqJIa9n/OxsHY8
ZN+4aay6M6iU+SfqRd/yV/KiIYKf8GTrQr+GPXsY6lLU0FlMET2/5BXCJPoofQG5
Qpw5L2eGt7kCHHRdyUIYcmQK4NyHe4jWFzao2C0FZn87EYL4QmPGeeg6gryFv+st
iE7jT3uYom31RRKSBYzAIyjowHIqHgHeQLVEhC2XivyU/PQ8VQEuTWDJ/xNvYBtQ
qsFFpDsfB4awli4Y6KD1/LLGfx4OixPV8cu9Ms22Pox1FKHqteWd+Wc7gd7/TJbf
oIKfCGBECtSSG5XlffZ9SRayrQUGtF/aWlkBTYNwiRiG/yJ8MG7JOiNSZFnmqQDQ
mKShHd4nvmx5sYp1zzVAYnFsLrHEUOhkoJeGbFhcRqEM6of2ok7oNdoPX5u1YhK8
GdCmELWcJtdaklRswERwIhi2cW4AVpojpc9y3g8UMIYBHckY5LcXJYqGAz0ed2HU
wQIDAQABo4IBYzCCAV8wCQYDVR0TBAIwADAtBglghkgBhvhCAQ0EIBYeRWFzeS1S
U0EgR2VuZXJhdGVkIENlcnRpZmljYXRlMB0GA1UdDgQWBBT8f61a3XEeID929UQ8
yktdOU1JOzCB4QYDVR0jBIHZMIHWgBQSzWAE0qCAnnDtxpm4eyzGUv0ZoaGBsqSB
rzCBrDELMAkGA1UEBhMCVVMxCzAJBgNVBAgTAk9IMREwDwYDVQQHEwhDb2x1bWJ1
czESMBAGA1UEChMJVmlraW5nVlBOMR0wGwYDVQQLExRNeU9yZ2FuaXphdGlvbmFs
VW5pdDEVMBMGA1UEAxMMVmlraW5nVlBOIENBMRAwDgYDVQQpEwdFYXN5UlNBMSEw
HwYJKoZIhvcNAQkBFhJtZUBteWhvc3QubXlkb21haW6CCQDPNYXugL8qPjATBgNV
HSUEDDAKBggrBgEFBQcDAjALBgNVHQ8EBAMCB4AwDQYJKoZIhvcNAQELBQADggIB
AGPYzMGwXejwO5rimZssaSyVkmoLZT37Rx/K5XToYHIAdHXVGCX2O5kNCqKdCKrB
O2Q4kRjhh6J/D01EryiIYoXjE7s+M1+UDxrGp6+b3vtENCCcM8wwFuVrRzS/HMTV
HcNo5TBEgWqJoyllpcG7MdOWPavh+9dMYi5vApPFBfycRb9DiQjlOPjYpG5oaVyR
NGif5SccTLFityQk3pJyoK3WY3JZ36CFTtFLfScdaBds9Vvs/rE1ueVjkA9zzbyb
Gyb5+kmV59S0pGIrP5JEYKLrCYOLMzVWeLFFTr8IpC1+02pSFRx6MAZOwVv8sPvp
Fc0l0wXg12uQp7yIfXTr7f5KLZQlnnMDuX7Ej5eJcbHVfSfiwsWTuqp/8V9vjCn3
oXpdM5LfOiIbgk5/BWrv9knpPlqaRY9tcQMhINUFMN/A+UG13CIp8EE9IlQVXuTA
5Gu1hTcVqlz0znxddLLWNIlpQAYlcnaFvhVqzUMv8kBeCtLBqcE6jrYTy8cvrrsn
B74qM7J/uYcZCLVHpTbOgaQsfq9x62ziFI8NTVHcsYz1QkR8nEoqjumkWLcRuEgZ
snc7x/PlIUwQ9x3tE3EykGPF6SpVtfkgwkRDDG1uxttJoJeUdvHJHP4qXbdNuyzU
XhFH5yJRqqemFpvnmHY5IwE8OlY6GeJdvvwzz2XTlwn5
-----END CERTIFICATE-----
