Certificate:
    Data:
        Version: 3 (0x2)
        Serial Number: 4639 (0x121f)
    Signature Algorithm: md5WithRSAEncryption
        Issuer: C=US, ST=OH, L=Columbus, O=VikingVPN, OU=MyOrganizationalUnit, CN=VikingVPN CA/name=EasyRSA/emailAddress=me@myhost.mydomain
        Validity
            Not Before: Mar  3 04:45:59 2015 GMT
            Not After : Feb 28 04:45:59 2025 GMT
        Subject: CN=Client1506Cert2f89fe
        Subject Public Key Info:
            Public Key Algorithm: rsaEncryption
                Public-Key: (4096 bit)
                Modulus:
                    00:ce:e4:3b:5d:ca:46:ca:00:b4:ce:1c:23:5b:ee:
                    1f:c3:fc:2b:25:46:93:33:c0:67:d6:00:5d:e3:4b:
                    08:d1:74:a3:6d:0c:0d:44:ec:d9:d0:b7:38:b9:58:
                    a5:8b:4c:63:e1:63:86:06:f4:fc:7b:98:b4:84:fb:
                    a6:94:7a:41:d1:2f:cb:6d:23:a2:d3:1f:2a:50:5d:
                    41:62:0c:de:2c:b7:34:aa:f0:4d:c4:26:df:c8:ac:
                    0f:26:2b:2f:55:22:16:f6:97:d6:c7:d1:ab:4e:85:
                    e0:9e:69:1a:7b:10:9f:de:b0:16:c8:8c:99:98:bb:
                    e5:f1:34:69:02:42:67:05:ff:e9:df:83:25:52:57:
                    a7:55:e7:6a:6d:2e:6f:da:a4:94:12:c2:0a:ea:70:
                    8d:11:6a:da:f3:33:11:0a:24:1a:93:0d:1d:96:49:
                    af:bf:7c:e7:33:91:42:cc:aa:9a:b8:71:7e:a7:2b:
                    0d:b5:0e:33:4b:4d:49:a8:38:43:6a:6d:4e:98:e8:
                    5d:c4:0a:cb:85:a5:ff:9c:33:cf:e9:2a:7f:7a:5d:
                    da:c6:52:c3:24:2a:71:d1:8c:53:eb:dd:e6:33:24:
                    82:b7:7b:cd:87:d4:38:98:34:24:a9:df:2e:36:d1:
                    7f:3b:f5:14:1f:68:51:fd:3f:c7:fa:78:07:26:2c:
                    57:aa:81:a6:d8:a5:c0:8d:97:62:31:d1:1d:39:67:
                    03:06:e9:d4:f6:ce:f8:d7:ba:71:78:fb:3c:76:c4:
                    d5:37:73:24:bd:76:74:d5:f1:12:31:c5:f7:0a:0e:
                    a5:0f:8d:8c:eb:7b:7e:4e:75:1a:b7:d8:19:40:3f:
                    99:8c:0b:a5:00:6c:48:8e:bc:4e:00:0a:e3:0a:22:
                    f0:40:4a:b5:15:b2:05:70:9e:0f:63:42:a8:6d:bc:
                    1b:32:23:ff:e4:17:a2:db:cb:0e:7d:f1:77:a9:e0:
                    53:5e:57:81:fd:35:47:0f:1b:b5:f1:a0:13:c4:40:
                    82:63:0b:ad:16:39:31:63:bb:04:4c:1b:d0:a2:6d:
                    7e:a6:b3:7b:4a:65:5d:bd:8d:3b:11:35:a6:64:4c:
                    f8:f3:e1:88:cc:5a:40:47:9e:f5:a5:be:68:4c:99:
                    bf:17:f1:81:53:42:61:1c:2c:a6:04:fc:85:d7:c9:
                    2b:0a:74:35:7a:fb:16:9a:87:cf:e0:b3:18:92:c5:
                    9a:7f:70:56:c4:3c:78:69:e6:2d:7e:8a:8d:a6:f2:
                    34:3b:c7:5c:3e:73:42:21:53:e8:4c:cd:9a:9a:42:
                    5b:24:4b:93:3e:83:f0:86:99:0c:61:23:43:c0:16:
                    59:90:ce:95:2e:e8:ca:f1:e8:71:53:31:d6:96:0c:
                    96:90:cd
                Exponent: 65537 (0x10001)
        X509v3 extensions:
            X509v3 Basic Constraints: 
                CA:FALSE
            Netscape Comment: 
                Easy-RSA Generated Certificate
            X509v3 Subject Key Identifier: 
                42:CA:F6:BE:0B:67:76:F6:5E:AC:A9:EF:8A:59:BD:29:8B:DB:EA:7C
            X509v3 Authority Key Identifier: 
                keyid:12:CD:60:04:D2:A0:80:9E:70:ED:C6:99:B8:7B:2C:C6:52:FD:19:A1
                DirName:/C=US/ST=OH/L=Columbus/O=VikingVPN/OU=MyOrganizationalUnit/CN=VikingVPN CA/name=EasyRSA/emailAddress=me@myhost.mydomain
                serial:CF:35:85:EE:80:BF:2A:3E

            X509v3 Extended Key Usage: 
                TLS Web Client Authentication
            X509v3 Key Usage: 
                Digital Signature
    Signature Algorithm: md5WithRSAEncryption
         51:7c:fd:6c:47:4e:3e:55:43:e8:8c:6e:18:fd:cd:95:2f:0a:
         2a:e9:2e:55:21:51:5e:bd:19:9f:be:4b:4b:41:72:b1:15:32:
         50:68:41:82:d9:1d:b6:57:22:d0:08:29:ec:52:1f:bd:94:d1:
         d6:36:94:21:51:41:dd:93:c0:d5:04:0c:03:df:b2:7b:c6:92:
         00:b2:54:48:5d:e1:01:71:28:ec:a5:cd:11:dc:ff:97:00:b0:
         4b:bc:25:12:68:5a:d4:ee:65:68:83:1a:61:ce:b7:61:d7:21:
         d9:0d:f6:a0:b3:03:53:7c:68:74:e0:5b:f8:63:ec:cd:01:20:
         a0:30:32:a7:10:f8:b5:7e:e9:f0:7f:0d:18:a9:7a:3c:93:d2:
         e9:ca:a1:74:92:76:28:d5:b9:8a:89:c1:71:10:40:b3:6e:81:
         1b:ff:11:3c:b2:74:9d:bc:aa:6f:09:44:d6:5f:7c:91:84:cb:
         02:38:bd:42:b9:a2:64:02:68:2c:67:ff:33:43:0e:c2:fe:e0:
         2e:13:5f:79:1e:bc:40:a2:ef:99:eb:3e:31:0f:65:4c:c7:4f:
         73:1d:bd:c8:62:75:68:52:77:7d:15:10:6f:58:07:b1:ba:66:
         17:ec:f0:61:5a:7d:28:85:74:76:c3:9c:67:34:8f:c6:76:7c:
         4c:d9:2a:e9:56:45:05:f3:f1:66:f5:91:ca:fd:60:f4:5b:4a:
         11:a5:f7:0c:22:68:f9:24:d3:60:14:32:2a:8e:64:fc:51:b6:
         3a:fc:fc:5a:14:92:1a:37:dd:4f:b6:00:ae:53:ba:34:ca:e8:
         a7:e7:34:45:7d:1e:f9:61:57:c1:04:3c:d9:6f:3a:12:56:82:
         bd:d5:0f:8c:ec:61:14:db:39:89:19:9b:a8:f7:d8:8c:a4:c0:
         37:f3:f9:26:2e:ae:5f:49:ad:b7:99:2b:a4:df:3e:97:eb:3f:
         5e:ae:f5:5c:b4:25:28:35:13:c0:9c:5d:97:48:3b:51:99:58:
         bf:17:03:74:87:77:77:f7:8f:8d:df:cd:b9:2b:81:2c:4f:4e:
         cb:b2:e7:31:27:ce:2c:6e:fe:0b:f8:bf:0b:83:0c:1f:b2:06:
         19:02:ef:75:c4:e0:0a:9e:6e:69:a1:a9:cc:b3:0c:0c:02:74:
         89:19:f5:2e:0d:02:37:25:3d:67:97:9f:91:a2:3b:51:26:32:
         2d:62:7d:4f:48:7a:7d:a0:82:f3:ba:d0:fa:af:55:22:ca:f5:
         2a:97:5c:86:9c:d9:54:fd:49:e3:0a:2d:90:ab:5c:1a:91:9d:
         5f:51:1a:d4:d5:d3:96:9c:7b:8d:91:79:2e:2c:52:57:03:62:
         8b:ee:b9:d4:a8:70:d5:25
-----BEGIN CERTIFICATE-----
MIIGrTCCBJWgAwIBAgICEh8wDQYJKoZIhvcNAQEEBQAwgawxCzAJBgNVBAYTAlVT
MQswCQYDVQQIEwJPSDERMA8GA1UEBxMIQ29sdW1idXMxEjAQBgNVBAoTCVZpa2lu
Z1ZQTjEdMBsGA1UECxMUTXlPcmdhbml6YXRpb25hbFVuaXQxFTATBgNVBAMTDFZp
a2luZ1ZQTiBDQTEQMA4GA1UEKRMHRWFzeVJTQTEhMB8GCSqGSIb3DQEJARYSbWVA
bXlob3N0Lm15ZG9tYWluMB4XDTE1MDMwMzA0NDU1OVoXDTI1MDIyODA0NDU1OVow
HzEdMBsGA1UEAxMUQ2xpZW50MTUwNkNlcnQyZjg5ZmUwggIiMA0GCSqGSIb3DQEB
AQUAA4ICDwAwggIKAoICAQDO5DtdykbKALTOHCNb7h/D/CslRpMzwGfWAF3jSwjR
dKNtDA1E7NnQtzi5WKWLTGPhY4YG9Px7mLSE+6aUekHRL8ttI6LTHypQXUFiDN4s
tzSq8E3EJt/IrA8mKy9VIhb2l9bH0atOheCeaRp7EJ/esBbIjJmYu+XxNGkCQmcF
/+nfgyVSV6dV52ptLm/apJQSwgrqcI0RatrzMxEKJBqTDR2WSa+/fOczkULMqpq4
cX6nKw21DjNLTUmoOENqbU6Y6F3ECsuFpf+cM8/pKn96XdrGUsMkKnHRjFPr3eYz
JIK3e82H1DiYNCSp3y420X879RQfaFH9P8f6eAcmLFeqgabYpcCNl2Ix0R05ZwMG
6dT2zvjXunF4+zx2xNU3cyS9dnTV8RIxxfcKDqUPjYzre35OdRq32BlAP5mMC6UA
bEiOvE4ACuMKIvBASrUVsgVwng9jQqhtvBsyI//kF6Lbyw598Xep4FNeV4H9NUcP
G7XxoBPEQIJjC60WOTFjuwRMG9CibX6ms3tKZV29jTsRNaZkTPjz4YjMWkBHnvWl
vmhMmb8X8YFTQmEcLKYE/IXXySsKdDV6+xaah8/gsxiSxZp/cFbEPHhp5i1+io2m
8jQ7x1w+c0IhU+hMzZqaQlskS5M+g/CGmQxhI0PAFlmQzpUu6Mrx6HFTMdaWDJaQ
zQIDAQABo4IBYzCCAV8wCQYDVR0TBAIwADAtBglghkgBhvhCAQ0EIBYeRWFzeS1S
U0EgR2VuZXJhdGVkIENlcnRpZmljYXRlMB0GA1UdDgQWBBRCyva+C2d29l6sqe+K
Wb0pi9vqfDCB4QYDVR0jBIHZMIHWgBQSzWAE0qCAnnDtxpm4eyzGUv0ZoaGBsqSB
rzCBrDELMAkGA1UEBhMCVVMxCzAJBgNVBAgTAk9IMREwDwYDVQQHEwhDb2x1bWJ1
czESMBAGA1UEChMJVmlraW5nVlBOMR0wGwYDVQQLExRNeU9yZ2FuaXphdGlvbmFs
VW5pdDEVMBMGA1UEAxMMVmlraW5nVlBOIENBMRAwDgYDVQQpEwdFYXN5UlNBMSEw
HwYJKoZIhvcNAQkBFhJtZUBteWhvc3QubXlkb21haW6CCQDPNYXugL8qPjATBgNV
HSUEDDAKBggrBgEFBQcDAjALBgNVHQ8EBAMCB4AwDQYJKoZIhvcNAQEEBQADggIB
AFF8/WxHTj5VQ+iMbhj9zZUvCirpLlUhUV69GZ++S0tBcrEVMlBoQYLZHbZXItAI
KexSH72U0dY2lCFRQd2TwNUEDAPfsnvGkgCyVEhd4QFxKOylzRHc/5cAsEu8JRJo
WtTuZWiDGmHOt2HXIdkN9qCzA1N8aHTgW/hj7M0BIKAwMqcQ+LV+6fB/DRipejyT
0unKoXSSdijVuYqJwXEQQLNugRv/ETyydJ28qm8JRNZffJGEywI4vUK5omQCaCxn
/zNDDsL+4C4TX3kevECi75nrPjEPZUzHT3MdvchidWhSd30VEG9YB7G6Zhfs8GFa
fSiFdHbDnGc0j8Z2fEzZKulWRQXz8Wb1kcr9YPRbShGl9wwiaPkk02AUMiqOZPxR
tjr8/FoUkho33U+2AK5TujTK6KfnNEV9HvlhV8EEPNlvOhJWgr3VD4zsYRTbOYkZ
m6j32IykwDfz+SYurl9JrbeZK6TfPpfrP16u9Vy0JSg1E8CcXZdIO1GZWL8XA3SH
d3f3j43fzbkrgSxPTsuy5zEnzixu/gv4vwuDDB+yBhkC73XE4AqebmmhqcyzDAwC
dIkZ9S4NAjclPWeXn5GiO1EmMi1ifU9Ien2ggvO60PqvVSLK9SqXXIac2VT9SeMK
LZCrXBqRnV9RGtTV05ace42ReS4sUlcDYovuudSocNUl
-----END CERTIFICATE-----
