Certificate:
    Data:
        Version: 3 (0x2)
        Serial Number: 5458 (0x1552)
    Signature Algorithm: md5WithRSAEncryption
        Issuer: C=US, ST=OH, L=Columbus, O=VikingVPN, OU=MyOrganizationalUnit, CN=VikingVPN CA/name=EasyRSA/emailAddress=me@myhost.mydomain
        Validity
            Not Before: Jun  1 05:12:16 2015 GMT
            Not After : May 29 05:12:16 2025 GMT
        Subject: CN=Client477Cert658cee
        Subject Public Key Info:
            Public Key Algorithm: rsaEncryption
                Public-Key: (4096 bit)
                Modulus:
                    00:bf:ba:9e:b8:1a:10:cd:fd:85:2f:65:f3:47:a2:
                    67:f2:ea:47:15:b0:b4:82:b8:99:1e:72:01:63:73:
                    8a:b3:d4:bb:75:51:fc:2f:56:6a:6b:72:a1:46:45:
                    48:bc:ea:f8:3f:8c:09:b4:c4:3b:40:3b:fc:e1:ae:
                    fe:a3:54:14:e2:35:e1:7e:2a:be:e8:60:6a:69:0a:
                    0d:88:46:63:d9:1f:fb:95:cf:32:f9:2c:1e:9c:e0:
                    26:d5:ce:03:fc:c1:e1:3b:1c:d6:02:64:33:8b:79:
                    e7:45:44:58:ff:e8:c1:3b:dd:11:66:80:52:3f:1e:
                    c9:7c:d2:02:8e:bf:01:00:39:31:52:15:1b:f7:ba:
                    45:77:7b:f2:c9:a3:99:5e:a0:9e:4c:2b:5f:2a:73:
                    fc:a7:87:67:1d:f3:df:c5:1b:77:fa:9c:0f:ab:60:
                    e1:56:45:56:49:4b:28:8c:12:64:8c:3a:5f:cf:99:
                    75:96:94:5c:ab:71:30:39:4e:ba:d5:a3:bf:f2:9b:
                    f8:d3:a5:76:bb:ff:9f:42:0a:f5:32:a3:f0:49:76:
                    54:bf:7d:d6:b0:98:db:ef:cb:84:e3:fc:07:95:3d:
                    32:17:f4:36:b7:d6:1f:96:06:3a:43:92:47:74:3f:
                    a6:5e:fb:e6:35:dd:30:24:a9:82:f8:a3:54:91:ec:
                    ec:6f:2b:02:de:a0:49:55:f1:f2:1b:fa:d7:eb:8d:
                    c9:4c:97:ee:67:99:0e:85:3e:f5:ac:ec:8b:2d:ce:
                    e0:20:12:0e:64:a5:27:85:60:2f:b3:27:0e:ba:b0:
                    34:6a:69:ac:00:31:34:30:c5:85:43:0c:e5:e9:cd:
                    b4:fc:bf:c5:08:6f:cc:b6:5c:cf:7c:0d:98:53:c2:
                    a5:c8:31:76:fe:85:38:28:65:3a:a1:21:a7:8c:ab:
                    97:17:77:4c:7f:eb:ae:02:77:07:11:4a:7c:a5:e3:
                    bc:b4:33:17:e8:c3:22:08:e2:8c:f3:09:cc:40:9c:
                    eb:96:5a:be:09:39:88:45:10:42:2f:62:5b:93:78:
                    51:a1:ab:b2:f2:d9:00:15:d1:74:52:9b:d7:d7:c3:
                    85:ca:1e:49:53:38:cd:d0:63:aa:7d:68:e9:c2:ce:
                    e2:2f:f7:5b:7b:ff:45:68:b9:18:39:d2:9d:9c:90:
                    d1:c0:c4:4d:b5:ce:fc:09:97:c5:7b:1f:5d:21:96:
                    bb:ea:48:ad:96:b4:03:f5:b5:30:b0:59:89:fc:79:
                    c3:9c:f1:fb:da:40:29:5b:c8:26:04:37:eb:f0:05:
                    af:3a:7e:bc:7c:ec:23:41:8e:5a:d1:92:28:b6:09:
                    fe:97:f9:6c:c6:49:9d:b3:09:80:3c:59:ef:40:a6:
                    a8:87:11
                Exponent: 65537 (0x10001)
        X509v3 extensions:
            X509v3 Basic Constraints: 
                CA:FALSE
            Netscape Comment: 
                Easy-RSA Generated Certificate
            X509v3 Subject Key Identifier: 
                75:C6:82:32:43:E6:FD:32:75:DD:76:00:1B:8C:B1:D6:1D:73:13:04
            X509v3 Authority Key Identifier: 
                keyid:12:CD:60:04:D2:A0:80:9E:70:ED:C6:99:B8:7B:2C:C6:52:FD:19:A1
                DirName:/C=US/ST=OH/L=Columbus/O=VikingVPN/OU=MyOrganizationalUnit/CN=VikingVPN CA/name=EasyRSA/emailAddress=me@myhost.mydomain
                serial:CF:35:85:EE:80:BF:2A:3E

            X509v3 Extended Key Usage: 
                TLS Web Client Authentication
            X509v3 Key Usage: 
                Digital Signature
    Signature Algorithm: md5WithRSAEncryption
         06:88:28:a3:f7:51:f2:08:a0:ca:ab:24:fb:64:43:30:52:3b:
         4c:96:39:b7:c9:9d:34:4c:81:e4:3c:0a:8d:d9:ea:72:a8:f2:
         2b:57:c6:e8:a5:d6:d6:c5:5f:45:7e:d9:0b:6e:73:cc:c6:be:
         b4:3e:71:20:9d:19:4f:7d:8d:06:52:9e:d5:de:ee:e4:75:a7:
         d6:88:7e:97:48:95:5e:24:c8:e6:1e:f5:d2:32:9d:7a:0a:d4:
         90:30:ff:c2:e8:f3:b7:22:89:95:7a:9a:6f:94:50:d5:b2:c2:
         bb:c0:e0:74:11:fb:59:fe:3b:04:11:dc:5b:46:05:72:cf:a1:
         01:d6:6d:90:72:d5:26:3b:e4:71:f3:79:0f:4e:a9:35:c3:96:
         cc:e4:cc:a5:64:06:4a:85:b5:8d:1a:aa:cf:30:11:9a:c4:66:
         eb:ef:74:19:90:7a:36:6b:01:05:c6:b3:83:6c:13:72:73:c4:
         05:e8:38:f5:59:5e:2c:e6:10:ea:9f:c7:0e:5b:b2:7c:b3:68:
         f1:85:34:ce:fb:b7:1f:93:d8:a7:a7:ed:0e:f7:43:3f:75:89:
         35:75:c3:e6:75:ac:2a:9b:3d:cd:52:46:3f:ed:d5:15:42:cd:
         0b:58:93:46:11:35:83:97:00:46:ad:66:96:6a:40:f0:29:ac:
         86:65:f6:02:f7:47:0d:7b:86:6a:0e:b6:24:55:d6:dd:b0:ab:
         74:20:66:af:83:98:ed:df:1d:e8:71:48:c5:df:08:87:c7:18:
         4e:2e:98:d4:41:68:df:b5:40:bb:35:81:ab:d7:4d:db:89:a0:
         3e:f3:e6:e6:8b:df:e3:9e:25:6b:20:69:3b:24:d5:43:41:e2:
         9a:78:44:6f:67:2f:b6:28:0e:59:40:6c:aa:6e:25:6f:a1:a2:
         62:df:3f:d8:3c:7a:61:12:7c:23:f2:26:97:d2:76:ff:87:41:
         80:5e:b9:83:db:de:77:a5:95:a8:0e:5d:0e:90:8c:91:87:cc:
         59:12:15:b0:93:36:94:46:62:af:1f:b5:20:e7:a3:cb:43:42:
         ab:68:38:39:72:61:fa:14:1f:90:a6:d4:d0:38:5e:da:b4:fb:
         77:37:4d:4b:7c:d0:72:99:13:83:a8:ac:95:94:95:e4:18:7d:
         1b:cb:79:c1:6b:9a:0b:e7:7e:2b:23:51:6d:ce:74:8b:e1:c3:
         d7:52:44:bf:12:8e:aa:2f:f4:3a:16:b6:71:1f:a5:d7:29:16:
         8d:33:35:b2:6c:e2:cb:f4:ec:c3:37:ba:9f:35:d3:a0:1f:49:
         a7:0f:4e:e6:b1:72:1e:a0:dc:f2:26:eb:56:4b:0a:5c:27:36:
         a8:f8:d3:58:4f:fc:03:26
-----BEGIN CERTIFICATE-----
MIIGrDCCBJSgAwIBAgICFVIwDQYJKoZIhvcNAQEEBQAwgawxCzAJBgNVBAYTAlVT
MQswCQYDVQQIEwJPSDERMA8GA1UEBxMIQ29sdW1idXMxEjAQBgNVBAoTCVZpa2lu
Z1ZQTjEdMBsGA1UECxMUTXlPcmdhbml6YXRpb25hbFVuaXQxFTATBgNVBAMTDFZp
a2luZ1ZQTiBDQTEQMA4GA1UEKRMHRWFzeVJTQTEhMB8GCSqGSIb3DQEJARYSbWVA
bXlob3N0Lm15ZG9tYWluMB4XDTE1MDYwMTA1MTIxNloXDTI1MDUyOTA1MTIxNlow
HjEcMBoGA1UEAxMTQ2xpZW50NDc3Q2VydDY1OGNlZTCCAiIwDQYJKoZIhvcNAQEB
BQADggIPADCCAgoCggIBAL+6nrgaEM39hS9l80eiZ/LqRxWwtIK4mR5yAWNzirPU
u3VR/C9WamtyoUZFSLzq+D+MCbTEO0A7/OGu/qNUFOI14X4qvuhgamkKDYhGY9kf
+5XPMvksHpzgJtXOA/zB4Tsc1gJkM4t550VEWP/owTvdEWaAUj8eyXzSAo6/AQA5
MVIVG/e6RXd78smjmV6gnkwrXypz/KeHZx3z38Ubd/qcD6tg4VZFVklLKIwSZIw6
X8+ZdZaUXKtxMDlOutWjv/Kb+NOldrv/n0IK9TKj8El2VL991rCY2+/LhOP8B5U9
Mhf0NrfWH5YGOkOSR3Q/pl775jXdMCSpgvijVJHs7G8rAt6gSVXx8hv61+uNyUyX
7meZDoU+9azsiy3O4CASDmSlJ4VgL7MnDrqwNGpprAAxNDDFhUMM5enNtPy/xQhv
zLZcz3wNmFPCpcgxdv6FOChlOqEhp4yrlxd3TH/rrgJ3BxFKfKXjvLQzF+jDIgji
jPMJzECc65Zavgk5iEUQQi9iW5N4UaGrsvLZABXRdFKb19fDhcoeSVM4zdBjqn1o
6cLO4i/3W3v/RWi5GDnSnZyQ0cDETbXO/AmXxXsfXSGWu+pIrZa0A/W1MLBZifx5
w5zx+9pAKVvIJgQ36/AFrzp+vHzsI0GOWtGSKLYJ/pf5bMZJnbMJgDxZ70CmqIcR
AgMBAAGjggFjMIIBXzAJBgNVHRMEAjAAMC0GCWCGSAGG+EIBDQQgFh5FYXN5LVJT
QSBHZW5lcmF0ZWQgQ2VydGlmaWNhdGUwHQYDVR0OBBYEFHXGgjJD5v0ydd12ABuM
sdYdcxMEMIHhBgNVHSMEgdkwgdaAFBLNYATSoICecO3Gmbh7LMZS/RmhoYGypIGv
MIGsMQswCQYDVQQGEwJVUzELMAkGA1UECBMCT0gxETAPBgNVBAcTCENvbHVtYnVz
MRIwEAYDVQQKEwlWaWtpbmdWUE4xHTAbBgNVBAsTFE15T3JnYW5pemF0aW9uYWxV
bml0MRUwEwYDVQQDEwxWaWtpbmdWUE4gQ0ExEDAOBgNVBCkTB0Vhc3lSU0ExITAf
BgkqhkiG9w0BCQEWEm1lQG15aG9zdC5teWRvbWFpboIJAM81he6Avyo+MBMGA1Ud
JQQMMAoGCCsGAQUFBwMCMAsGA1UdDwQEAwIHgDANBgkqhkiG9w0BAQQFAAOCAgEA
Bogoo/dR8gigyqsk+2RDMFI7TJY5t8mdNEyB5DwKjdnqcqjyK1fG6KXW1sVfRX7Z
C25zzMa+tD5xIJ0ZT32NBlKe1d7u5HWn1oh+l0iVXiTI5h710jKdegrUkDD/wujz
tyKJlXqab5RQ1bLCu8DgdBH7Wf47BBHcW0YFcs+hAdZtkHLVJjvkcfN5D06pNcOW
zOTMpWQGSoW1jRqqzzARmsRm6+90GZB6NmsBBcazg2wTcnPEBeg49VleLOYQ6p/H
DluyfLNo8YU0zvu3H5PYp6ftDvdDP3WJNXXD5nWsKps9zVJGP+3VFULNC1iTRhE1
g5cARq1mlmpA8CmshmX2AvdHDXuGag62JFXW3bCrdCBmr4OY7d8d6HFIxd8Ih8cY
Ti6Y1EFo37VAuzWBq9dN24mgPvPm5ovf454layBpOyTVQ0HimnhEb2cvtigOWUBs
qm4lb6GiYt8/2Dx6YRJ8I/Iml9J2/4dBgF65g9ved6WVqA5dDpCMkYfMWRIVsJM2
lEZirx+1IOejy0NCq2g4OXJh+hQfkKbU0Dhe2rT7dzdNS3zQcpkTg6islZSV5Bh9
G8t5wWuaC+d+KyNRbc50i+HD11JEvxKOqi/0Oha2cR+l1ykWjTM1smziy/Tswze6
nzXToB9Jpw9O5rFyHqDc8ibrVksKXCc2qPjTWE/8AyY=
-----END CERTIFICATE-----
