Certificate:
    Data:
        Version: 3 (0x2)
        Serial Number: 6932 (0x1b14)
    Signature Algorithm: md5WithRSAEncryption
        Issuer: C=US, ST=OH, L=Columbus, O=VikingVPN, OU=MyOrganizationalUnit, CN=VikingVPN CA/name=EasyRSA/emailAddress=me@myhost.mydomain
        Validity
            Not Before: Dec 20 18:43:18 2015 GMT
            Not After : Dec 17 18:43:18 2025 GMT
        Subject: CN=Client2113Cert33217d
        Subject Public Key Info:
            Public Key Algorithm: rsaEncryption
                Public-Key: (4096 bit)
                Modulus:
                    00:b7:3f:a7:64:a2:7a:c8:42:18:eb:64:62:28:ed:
                    0d:ae:b0:33:14:b3:b5:83:f3:e5:ce:32:41:a4:2a:
                    5f:6b:38:bc:d9:77:01:f1:9a:89:72:fc:2c:3c:aa:
                    6b:47:96:71:0c:6d:43:d5:04:7f:1a:e6:68:59:12:
                    54:55:52:d8:d2:28:7d:78:46:52:c3:2a:91:4c:d5:
                    81:ad:bd:af:6a:d1:ef:55:79:bd:3f:2a:4b:20:cf:
                    48:09:b2:67:88:03:e0:cd:ec:3f:60:0c:1f:13:98:
                    d1:4c:8a:29:80:d3:d7:3f:f6:6c:f0:21:7a:fb:f6:
                    ae:94:71:a0:57:07:13:f1:79:64:48:bf:e2:8b:76:
                    13:59:d6:27:25:17:d9:7d:1f:94:94:fb:cf:d5:15:
                    17:7e:53:e6:6a:22:f1:20:55:93:97:31:73:3d:8d:
                    17:95:2f:41:6c:5f:99:54:f7:25:c0:4a:a4:48:90:
                    43:22:a2:9e:e4:0e:6e:91:c4:4f:7d:b1:1b:db:e9:
                    20:04:85:33:f2:77:2c:85:69:7f:0d:eb:20:f6:a2:
                    59:02:59:03:ce:36:22:f1:ce:f5:e6:31:06:02:09:
                    bf:24:4a:c7:bb:eb:90:50:bd:2e:2f:09:8d:81:5e:
                    48:96:e9:86:60:19:45:e8:03:15:44:09:79:0d:dc:
                    9c:41:2b:6f:8a:7a:24:16:2e:19:31:b4:05:ee:3f:
                    4d:0c:d4:82:d5:2c:48:c4:e4:85:79:4d:63:c5:f4:
                    3e:e3:a5:50:39:5f:1c:2e:c2:3b:c9:42:19:3b:ec:
                    96:ef:69:66:16:bd:44:82:96:a4:ae:60:6f:82:1c:
                    eb:57:67:74:76:e8:c4:4b:98:2c:40:8d:3f:a3:2f:
                    ce:97:54:98:9e:37:9b:45:2d:3d:e1:e0:f7:32:54:
                    f6:25:5f:fd:f2:b1:ca:18:b2:ab:38:29:ca:d7:bd:
                    35:ab:ac:4d:1f:2a:9a:82:02:84:aa:51:a8:ba:4a:
                    2f:56:92:c0:fc:bc:8a:58:a5:7d:87:55:32:a2:cf:
                    d5:3f:fb:82:54:c6:05:c6:63:11:f0:d9:6e:55:c5:
                    68:06:a3:9a:45:f3:0b:cb:88:3f:06:57:cf:79:d0:
                    8d:6a:f6:be:be:1b:64:5c:ce:99:a8:f2:e9:8e:bf:
                    80:09:3f:3d:47:52:4e:3e:61:a4:4f:36:45:5d:07:
                    12:be:b8:ea:4f:50:31:9d:40:a3:a0:51:ab:82:87:
                    dd:fc:0b:96:c3:04:29:7a:02:29:dc:db:39:03:58:
                    50:17:e5:24:13:c2:60:b5:1b:45:d7:05:5f:5e:1a:
                    b1:da:a1:48:d9:6d:d8:39:c7:9f:a2:bb:6c:8a:04:
                    a8:94:a5
                Exponent: 65537 (0x10001)
        X509v3 extensions:
            X509v3 Basic Constraints: 
                CA:FALSE
            Netscape Comment: 
                Easy-RSA Generated Certificate
            X509v3 Subject Key Identifier: 
                4D:5D:1F:D0:D4:55:4D:75:0C:A0:AB:AC:38:BC:78:29:C7:7F:BB:A4
            X509v3 Authority Key Identifier: 
                keyid:12:CD:60:04:D2:A0:80:9E:70:ED:C6:99:B8:7B:2C:C6:52:FD:19:A1
                DirName:/C=US/ST=OH/L=Columbus/O=VikingVPN/OU=MyOrganizationalUnit/CN=VikingVPN CA/name=EasyRSA/emailAddress=me@myhost.mydomain
                serial:CF:35:85:EE:80:BF:2A:3E

            X509v3 Extended Key Usage: 
                TLS Web Client Authentication
            X509v3 Key Usage: 
                Digital Signature
    Signature Algorithm: md5WithRSAEncryption
         34:a6:df:bb:60:75:db:63:17:f1:3f:37:f2:33:8d:af:44:8f:
         91:90:d7:82:73:37:01:5f:12:6a:fc:a7:b3:66:7a:09:11:c0:
         a9:1a:eb:17:23:d1:ef:d4:72:15:76:f0:ef:6c:73:a1:ca:a1:
         d3:44:61:1b:cf:f9:66:13:84:44:4a:5d:bf:55:50:3d:a3:b5:
         96:91:d9:4e:df:71:fc:55:96:8b:83:a2:31:a3:b1:5c:bd:33:
         b2:f7:07:a5:70:32:0b:00:10:cd:8b:e4:e0:77:d6:cb:85:cc:
         c5:38:28:78:a0:fd:64:23:a7:fd:bf:a0:56:3c:93:44:b0:7a:
         95:7b:b3:d9:05:76:99:da:36:35:88:be:39:bd:8a:08:5a:96:
         38:fe:4c:d5:ec:6d:30:25:11:93:aa:43:7b:63:f2:a0:32:0b:
         bc:d7:1c:0a:1f:49:75:4e:bb:09:92:4d:71:17:81:87:27:87:
         48:a9:9e:62:ee:e4:e3:37:12:7c:0b:87:71:e9:7f:dc:2e:7b:
         36:cb:d6:a0:ec:ab:d6:11:34:5c:86:84:60:4b:e0:b3:e1:c5:
         00:1e:4c:6c:44:eb:a7:cd:69:ab:3d:19:76:6b:39:9c:65:aa:
         aa:b6:33:39:c0:d2:93:7b:c3:ab:25:c1:7f:bc:32:97:7c:92:
         3d:75:3f:b3:a0:a5:22:7d:e5:7d:59:03:3b:01:64:68:6d:95:
         94:74:39:ed:d4:f9:7c:db:ca:00:5c:ce:4b:2c:ea:5b:b5:a8:
         0c:bf:63:b0:31:5c:4d:43:74:5c:24:b3:08:67:0a:69:4e:bd:
         6a:9d:14:94:a4:3a:d3:b8:45:b5:f5:70:b6:6e:35:0d:70:5f:
         a0:54:e7:f1:61:d1:f8:87:a0:b2:55:03:18:17:2f:9f:99:10:
         52:59:df:e8:96:2b:97:02:2a:5a:61:de:d3:55:7d:76:73:85:
         a3:e4:5c:6d:4f:31:07:42:72:34:95:d7:21:74:97:94:b6:09:
         9c:4f:a6:fe:04:24:66:a0:de:37:ef:a4:f8:2f:fd:02:ef:4f:
         2f:6c:60:9f:e8:1a:2a:53:72:94:29:be:1c:87:f5:ca:72:81:
         70:16:0d:0c:17:5e:a2:cc:67:40:a2:cb:39:78:f6:00:40:34:
         86:f7:c9:ca:cb:b6:e1:bf:b7:5b:4c:b4:53:25:08:85:11:b3:
         e7:8c:f0:10:b8:bb:89:28:b9:e1:02:82:94:f3:9c:65:00:93:
         a3:ed:4b:4a:33:7b:1f:81:7f:c6:f4:87:3c:91:ea:73:cf:65:
         2c:12:36:12:fe:59:0f:de:b1:84:32:e4:e2:34:67:31:b9:78:
         3e:fb:c1:ff:92:53:14:f2
-----BEGIN CERTIFICATE-----
MIIGrTCCBJWgAwIBAgICGxQwDQYJKoZIhvcNAQEEBQAwgawxCzAJBgNVBAYTAlVT
MQswCQYDVQQIEwJPSDERMA8GA1UEBxMIQ29sdW1idXMxEjAQBgNVBAoTCVZpa2lu
Z1ZQTjEdMBsGA1UECxMUTXlPcmdhbml6YXRpb25hbFVuaXQxFTATBgNVBAMTDFZp
a2luZ1ZQTiBDQTEQMA4GA1UEKRMHRWFzeVJTQTEhMB8GCSqGSIb3DQEJARYSbWVA
bXlob3N0Lm15ZG9tYWluMB4XDTE1MTIyMDE4NDMxOFoXDTI1MTIxNzE4NDMxOFow
HzEdMBsGA1UEAxMUQ2xpZW50MjExM0NlcnQzMzIxN2QwggIiMA0GCSqGSIb3DQEB
AQUAA4ICDwAwggIKAoICAQC3P6dkonrIQhjrZGIo7Q2usDMUs7WD8+XOMkGkKl9r
OLzZdwHxmoly/Cw8qmtHlnEMbUPVBH8a5mhZElRVUtjSKH14RlLDKpFM1YGtva9q
0e9Veb0/Kksgz0gJsmeIA+DN7D9gDB8TmNFMiimA09c/9mzwIXr79q6UcaBXBxPx
eWRIv+KLdhNZ1iclF9l9H5SU+8/VFRd+U+ZqIvEgVZOXMXM9jReVL0FsX5lU9yXA
SqRIkEMiop7kDm6RxE99sRvb6SAEhTPydyyFaX8N6yD2olkCWQPONiLxzvXmMQYC
Cb8kSse765BQvS4vCY2BXkiW6YZgGUXoAxVECXkN3JxBK2+KeiQWLhkxtAXuP00M
1ILVLEjE5IV5TWPF9D7jpVA5XxwuwjvJQhk77JbvaWYWvUSClqSuYG+CHOtXZ3R2
6MRLmCxAjT+jL86XVJieN5tFLT3h4PcyVPYlX/3yscoYsqs4KcrXvTWrrE0fKpqC
AoSqUai6Si9WksD8vIpYpX2HVTKiz9U/+4JUxgXGYxHw2W5VxWgGo5pF8wvLiD8G
V8950I1q9r6+G2Rczpmo8umOv4AJPz1HUk4+YaRPNkVdBxK+uOpPUDGdQKOgUauC
h938C5bDBCl6Ainc2zkDWFAX5SQTwmC1G0XXBV9eGrHaoUjZbdg5x5+iu2yKBKiU
pQIDAQABo4IBYzCCAV8wCQYDVR0TBAIwADAtBglghkgBhvhCAQ0EIBYeRWFzeS1S
U0EgR2VuZXJhdGVkIENlcnRpZmljYXRlMB0GA1UdDgQWBBRNXR/Q1FVNdQygq6w4
vHgpx3+7pDCB4QYDVR0jBIHZMIHWgBQSzWAE0qCAnnDtxpm4eyzGUv0ZoaGBsqSB
rzCBrDELMAkGA1UEBhMCVVMxCzAJBgNVBAgTAk9IMREwDwYDVQQHEwhDb2x1bWJ1
czESMBAGA1UEChMJVmlraW5nVlBOMR0wGwYDVQQLExRNeU9yZ2FuaXphdGlvbmFs
VW5pdDEVMBMGA1UEAxMMVmlraW5nVlBOIENBMRAwDgYDVQQpEwdFYXN5UlNBMSEw
HwYJKoZIhvcNAQkBFhJtZUBteWhvc3QubXlkb21haW6CCQDPNYXugL8qPjATBgNV
HSUEDDAKBggrBgEFBQcDAjALBgNVHQ8EBAMCB4AwDQYJKoZIhvcNAQEEBQADggIB
ADSm37tgddtjF/E/N/Izja9Ej5GQ14JzNwFfEmr8p7NmegkRwKka6xcj0e/UchV2
8O9sc6HKodNEYRvP+WYThERKXb9VUD2jtZaR2U7fcfxVlouDojGjsVy9M7L3B6Vw
MgsAEM2L5OB31suFzMU4KHig/WQjp/2/oFY8k0SwepV7s9kFdpnaNjWIvjm9igha
ljj+TNXsbTAlEZOqQ3tj8qAyC7zXHAofSXVOuwmSTXEXgYcnh0ipnmLu5OM3EnwL
h3Hpf9wuezbL1qDsq9YRNFyGhGBL4LPhxQAeTGxE66fNaas9GXZrOZxlqqq2MznA
0pN7w6slwX+8Mpd8kj11P7OgpSJ95X1ZAzsBZGhtlZR0Oe3U+XzbygBczkss6lu1
qAy/Y7AxXE1DdFwkswhnCmlOvWqdFJSkOtO4RbX1cLZuNQ1wX6BU5/Fh0fiHoLJV
AxgXL5+ZEFJZ3+iWK5cCKlph3tNVfXZzhaPkXG1PMQdCcjSV1yF0l5S2CZxPpv4E
JGag3jfvpPgv/QLvTy9sYJ/oGipTcpQpvhyH9cpygXAWDQwXXqLMZ0Ciyzl49gBA
NIb3ycrLtuG/t1tMtFMlCIURs+eM8BC4u4koueECgpTznGUAk6PtS0ozex+Bf8b0
hzyR6nPPZSwSNhL+WQ/esYQy5OI0ZzG5eD77wf+SUxTy
-----END CERTIFICATE-----
