Certificate:
    Data:
        Version: 3 (0x2)
        Serial Number: 12213 (0x2fb5)
    Signature Algorithm: sha256WithRSAEncryption
        Issuer: C=US, ST=OH, L=Columbus, O=VikingVPN, OU=MyOrganizationalUnit, CN=VikingVPN CA/name=EasyRSA/emailAddress=me@myhost.mydomain
        Validity
            Not Before: Dec  3 07:00:05 2017 GMT
            Not After : Dec  1 07:00:05 2027 GMT
        Subject: CN=Client2823Certb9c455
        Subject Public Key Info:
            Public Key Algorithm: rsaEncryption
                Public-Key: (4096 bit)
                Modulus:
                    00:b9:c3:54:2c:96:a3:69:08:80:9e:7f:f4:1b:a5:
                    75:84:3b:1d:94:9b:c3:d6:ef:71:fd:ae:23:57:2a:
                    df:0c:34:a4:50:8a:db:65:fb:9d:12:40:1b:fc:e0:
                    84:a9:5b:0f:ab:33:43:72:c2:de:82:fa:4b:f7:25:
                    67:bd:44:c0:c5:92:49:fd:73:5c:7f:b3:3c:79:f6:
                    94:e3:aa:b5:a9:8f:e7:71:1d:7d:35:33:23:72:ca:
                    87:f2:9b:61:52:06:e2:44:f7:f1:13:f1:bc:a1:ab:
                    13:1e:46:24:ee:14:fb:c1:14:46:00:23:b3:47:33:
                    4f:ab:c7:5a:77:30:ae:d2:97:17:81:e4:80:1c:86:
                    e1:55:1a:07:e4:78:5c:55:81:75:59:0d:65:d2:e9:
                    1a:65:61:c9:92:81:92:e7:37:9e:0c:03:db:66:cc:
                    22:53:c9:56:ab:77:8c:6c:fe:48:27:42:ce:85:1c:
                    13:d8:bd:4a:07:9c:04:ca:39:0c:17:d0:3b:42:bd:
                    f8:82:ec:e0:d2:a0:28:68:4a:4c:b7:ea:39:60:0f:
                    28:cc:d9:a3:d5:8d:81:93:6a:ef:90:d2:7b:d6:3e:
                    d2:c2:a8:52:28:a6:15:00:78:7c:58:e8:20:ec:0d:
                    fe:e2:a8:36:d9:08:d7:74:a2:9d:9c:ce:85:22:08:
                    20:18:2a:58:49:62:ce:1d:ba:56:64:3e:10:7f:18:
                    91:45:cc:11:86:a0:de:f2:0a:98:b1:45:68:87:0a:
                    ac:1b:fa:28:9f:b1:ac:e7:11:54:31:6f:07:48:49:
                    88:ce:d1:d3:ec:d8:09:ae:3b:99:63:09:43:c6:31:
                    b6:03:23:b0:58:0b:a1:07:f1:0f:91:15:33:15:f0:
                    b3:67:ea:09:58:65:ba:08:3e:85:a4:76:60:fb:0b:
                    82:8f:4c:97:11:16:29:23:38:22:fb:ad:d7:af:b8:
                    c5:63:90:62:b2:62:bb:21:16:74:45:15:2d:de:72:
                    f9:36:4d:13:1f:44:1d:57:02:3d:33:85:40:2b:eb:
                    f5:19:4b:7d:45:ea:ad:4a:e5:b8:39:f2:ce:d9:89:
                    6d:49:3c:b1:4f:bb:81:78:90:a2:ee:71:4a:f0:26:
                    ce:80:83:da:7e:bc:ba:0d:8d:9e:7c:6c:84:42:26:
                    a0:03:8f:45:0d:6b:15:81:92:33:e4:11:48:6b:a4:
                    b4:cd:b5:3a:e0:07:ae:bb:3f:a1:46:52:be:6e:16:
                    96:31:70:45:72:f2:8c:75:ba:90:7f:7d:16:56:a0:
                    fb:90:93:83:67:b4:ea:61:4f:46:df:a1:0b:a4:03:
                    fd:73:41:9d:a3:4d:36:d2:65:b6:49:7f:77:0e:3a:
                    c3:f6:55
                Exponent: 65537 (0x10001)
        X509v3 extensions:
            X509v3 Basic Constraints: 
                CA:FALSE
            Netscape Comment: 
                Easy-RSA Generated Certificate
            X509v3 Subject Key Identifier: 
                79:3E:63:BC:2F:8E:35:51:B1:63:C4:70:FF:4F:F4:1F:3A:71:84:4B
            X509v3 Authority Key Identifier: 
                keyid:12:CD:60:04:D2:A0:80:9E:70:ED:C6:99:B8:7B:2C:C6:52:FD:19:A1
                DirName:/C=US/ST=OH/L=Columbus/O=VikingVPN/OU=MyOrganizationalUnit/CN=VikingVPN CA/name=EasyRSA/emailAddress=me@myhost.mydomain
                serial:CF:35:85:EE:80:BF:2A:3E

            X509v3 Extended Key Usage: 
                TLS Web Client Authentication
            X509v3 Key Usage: 
                Digital Signature
    Signature Algorithm: sha256WithRSAEncryption
         06:2a:57:3d:19:71:24:06:f1:c3:03:b6:22:e3:d4:36:0d:3c:
         6e:a2:ae:41:13:ad:74:e8:dd:5b:80:35:d0:18:33:37:f0:8b:
         61:c1:c7:a3:2a:ab:8e:f1:51:79:24:66:4e:aa:10:71:90:be:
         d3:03:b0:7a:7f:60:fd:17:e8:ad:ba:45:f0:6a:f1:85:8c:9c:
         27:3d:af:41:82:06:75:3f:3c:61:08:c6:b3:90:72:98:aa:f2:
         b4:c7:07:46:47:9f:6e:7b:f3:a7:93:2d:99:3d:65:b2:6e:89:
         8c:92:b9:b4:5d:e5:d0:18:ae:0e:4b:0c:42:31:1c:af:28:41:
         24:29:47:2b:f7:dd:9e:7b:0d:51:46:06:d4:86:2e:c4:a5:fc:
         09:c2:8c:d9:a4:a0:06:fe:e5:c5:c8:c5:31:5a:ef:49:ff:a6:
         fc:0e:81:bd:86:e3:23:c4:f4:27:b7:6e:96:92:fd:50:44:40:
         56:d2:86:2d:de:d4:59:06:20:d7:19:27:26:13:41:c7:34:76:
         68:e1:4f:7d:10:34:70:94:b2:be:f3:e2:cf:be:78:f4:76:0d:
         6d:bf:62:eb:10:fc:29:b1:82:00:02:ee:c8:62:5b:cc:1f:2f:
         e5:2d:02:fb:a9:f0:51:b3:73:b6:9c:f3:f0:a7:6d:8f:bc:f6:
         fb:df:1b:87:12:ec:1c:a0:e9:91:86:75:99:10:66:2e:6c:dc:
         59:8c:ea:44:a3:e3:ca:ee:83:8c:c6:2e:d5:21:24:7c:af:ee:
         9f:83:8f:99:36:1e:fd:f4:45:7f:f2:41:f2:3d:b8:71:52:a2:
         fc:2c:e7:04:b1:3b:65:47:2c:89:f5:a9:c4:27:ed:84:8a:c1:
         fb:3c:54:b2:c2:e8:dc:d0:d1:26:08:1f:38:7f:c4:c6:9e:64:
         c9:e3:ea:74:1a:ae:fd:44:2b:1d:cb:2b:5a:3c:ac:22:86:f6:
         80:a7:a0:75:f2:ef:c2:e3:67:d9:39:a2:d7:07:6b:4a:c9:8d:
         7b:1e:7e:67:88:fb:4a:56:42:44:51:59:0e:a5:9a:e0:81:9b:
         07:1f:e1:85:23:e6:81:c8:ae:a0:9c:28:42:45:f4:36:b4:81:
         01:44:3b:34:a6:65:c8:8b:5f:50:9e:95:16:1c:90:ea:96:dd:
         48:36:29:7f:79:9e:8e:9a:61:aa:72:03:92:fa:21:10:2d:47:
         6e:78:91:ac:36:85:18:71:70:8d:73:55:2a:8a:24:6a:9c:6d:
         2a:1f:4a:cb:af:44:55:b2:3c:b8:2e:0b:51:ed:10:0c:84:88:
         dc:2b:e5:5c:8e:94:dd:14:c5:25:c6:09:92:ee:5d:d0:bd:f3:
         98:30:f4:59:4b:8c:9c:33
-----BEGIN CERTIFICATE-----
MIIGrTCCBJWgAwIBAgICL7UwDQYJKoZIhvcNAQELBQAwgawxCzAJBgNVBAYTAlVT
MQswCQYDVQQIEwJPSDERMA8GA1UEBxMIQ29sdW1idXMxEjAQBgNVBAoTCVZpa2lu
Z1ZQTjEdMBsGA1UECxMUTXlPcmdhbml6YXRpb25hbFVuaXQxFTATBgNVBAMTDFZp
a2luZ1ZQTiBDQTEQMA4GA1UEKRMHRWFzeVJTQTEhMB8GCSqGSIb3DQEJARYSbWVA
bXlob3N0Lm15ZG9tYWluMB4XDTE3MTIwMzA3MDAwNVoXDTI3MTIwMTA3MDAwNVow
HzEdMBsGA1UEAxMUQ2xpZW50MjgyM0NlcnRiOWM0NTUwggIiMA0GCSqGSIb3DQEB
AQUAA4ICDwAwggIKAoICAQC5w1QslqNpCICef/QbpXWEOx2Um8PW73H9riNXKt8M
NKRQittl+50SQBv84ISpWw+rM0Nywt6C+kv3JWe9RMDFkkn9c1x/szx59pTjqrWp
j+dxHX01MyNyyofym2FSBuJE9/ET8byhqxMeRiTuFPvBFEYAI7NHM0+rx1p3MK7S
lxeB5IAchuFVGgfkeFxVgXVZDWXS6RplYcmSgZLnN54MA9tmzCJTyVard4xs/kgn
Qs6FHBPYvUoHnATKOQwX0DtCvfiC7ODSoChoSky36jlgDyjM2aPVjYGTau+Q0nvW
PtLCqFIophUAeHxY6CDsDf7iqDbZCNd0op2czoUiCCAYKlhJYs4dulZkPhB/GJFF
zBGGoN7yCpixRWiHCqwb+iifsaznEVQxbwdISYjO0dPs2AmuO5ljCUPGMbYDI7BY
C6EH8Q+RFTMV8LNn6glYZboIPoWkdmD7C4KPTJcRFikjOCL7rdevuMVjkGKyYrsh
FnRFFS3ecvk2TRMfRB1XAj0zhUAr6/UZS31F6q1K5bg58s7ZiW1JPLFPu4F4kKLu
cUrwJs6Ag9p+vLoNjZ58bIRCJqADj0UNaxWBkjPkEUhrpLTNtTrgB667P6FGUr5u
FpYxcEVy8ox1upB/fRZWoPuQk4NntOphT0bfoQukA/1zQZ2jTTbSZbZJf3cOOsP2
VQIDAQABo4IBYzCCAV8wCQYDVR0TBAIwADAtBglghkgBhvhCAQ0EIBYeRWFzeS1S
U0EgR2VuZXJhdGVkIENlcnRpZmljYXRlMB0GA1UdDgQWBBR5PmO8L441UbFjxHD/
T/QfOnGESzCB4QYDVR0jBIHZMIHWgBQSzWAE0qCAnnDtxpm4eyzGUv0ZoaGBsqSB
rzCBrDELMAkGA1UEBhMCVVMxCzAJBgNVBAgTAk9IMREwDwYDVQQHEwhDb2x1bWJ1
czESMBAGA1UEChMJVmlraW5nVlBOMR0wGwYDVQQLExRNeU9yZ2FuaXphdGlvbmFs
VW5pdDEVMBMGA1UEAxMMVmlraW5nVlBOIENBMRAwDgYDVQQpEwdFYXN5UlNBMSEw
HwYJKoZIhvcNAQkBFhJtZUBteWhvc3QubXlkb21haW6CCQDPNYXugL8qPjATBgNV
HSUEDDAKBggrBgEFBQcDAjALBgNVHQ8EBAMCB4AwDQYJKoZIhvcNAQELBQADggIB
AAYqVz0ZcSQG8cMDtiLj1DYNPG6irkETrXTo3VuANdAYMzfwi2HBx6Mqq47xUXkk
Zk6qEHGQvtMDsHp/YP0X6K26RfBq8YWMnCc9r0GCBnU/PGEIxrOQcpiq8rTHB0ZH
n25786eTLZk9ZbJuiYySubRd5dAYrg5LDEIxHK8oQSQpRyv33Z57DVFGBtSGLsSl
/AnCjNmkoAb+5cXIxTFa70n/pvwOgb2G4yPE9Ce3bpaS/VBEQFbShi3e1FkGINcZ
JyYTQcc0dmjhT30QNHCUsr7z4s++ePR2DW2/YusQ/CmxggAC7shiW8wfL+UtAvup
8FGzc7ac8/CnbY+89vvfG4cS7Byg6ZGGdZkQZi5s3FmM6kSj48rug4zGLtUhJHyv
7p+Dj5k2Hv30RX/yQfI9uHFSovws5wSxO2VHLIn1qcQn7YSKwfs8VLLC6NzQ0SYI
Hzh/xMaeZMnj6nQarv1EKx3LK1o8rCKG9oCnoHXy78LjZ9k5otcHa0rJjXsefmeI
+0pWQkRRWQ6lmuCBmwcf4YUj5oHIrqCcKEJF9Da0gQFEOzSmZciLX1CelRYckOqW
3Ug2KX95no6aYapyA5L6IRAtR254kaw2hRhxcI1zVSqKJGqcbSofSsuvRFWyPLgu
C1HtEAyEiNwr5VyOlN0UxSXGCZLuXdC985gw9FlLjJwz
-----END CERTIFICATE-----
