Certificate:
    Data:
        Version: 3 (0x2)
        Serial Number: 7322 (0x1c9a)
    Signature Algorithm: md5WithRSAEncryption
        Issuer: C=US, ST=OH, L=Columbus, O=VikingVPN, OU=MyOrganizationalUnit, CN=VikingVPN CA/name=EasyRSA/emailAddress=me@myhost.mydomain
        Validity
            Not Before: Feb 27 18:07:25 2016 GMT
            Not After : Feb 24 18:07:25 2026 GMT
        Subject: CN=Client802Certeb187b
        Subject Public Key Info:
            Public Key Algorithm: rsaEncryption
                Public-Key: (4096 bit)
                Modulus:
                    00:bf:71:a1:79:28:5e:45:a9:28:d0:ea:11:10:63:
                    ea:a0:45:70:69:1a:b9:5f:3e:20:d3:8d:2f:7d:38:
                    5d:4d:f8:00:8b:e7:49:cf:83:2a:5b:98:c5:69:f5:
                    f4:64:8c:82:09:db:43:40:5d:92:93:f4:0c:bc:54:
                    4e:82:92:a2:a6:5e:5c:77:56:2d:57:15:ee:bb:c0:
                    2a:a1:5d:8e:7f:5d:54:75:ef:5a:aa:f0:d3:02:e2:
                    f6:32:38:0f:b7:be:f0:3d:69:61:a6:e0:71:a1:c4:
                    fa:c4:ce:7c:bd:f4:1f:9b:6f:72:aa:e5:3b:b0:5a:
                    2f:bb:15:c6:a9:d4:82:8c:d1:38:66:e2:d9:f2:b6:
                    88:ed:8f:05:a6:8e:e4:8d:6b:e6:d6:c9:28:f1:27:
                    a4:ff:10:31:7f:42:43:ed:cb:c6:8a:40:26:d5:23:
                    85:b5:dd:37:fb:0f:78:6a:96:d2:b2:d7:48:e6:96:
                    f9:58:ec:c3:2f:1c:7b:dd:5a:92:f3:a9:f5:c8:08:
                    f7:51:7f:65:d3:b4:99:05:b2:7e:a2:12:36:eb:ad:
                    15:33:15:4d:30:9d:fa:3c:e5:b8:13:96:e9:ad:20:
                    a8:d6:53:07:70:52:1a:64:6b:59:57:36:5c:e0:8f:
                    7b:3d:88:06:dc:3b:01:f6:ee:b8:22:8b:be:ec:c2:
                    14:23:48:7e:07:c5:1c:0a:99:3e:a1:0f:02:cd:40:
                    6f:22:4e:8e:13:1c:59:59:4b:15:6e:b2:85:7d:04:
                    99:8e:ff:8c:b4:93:f9:ae:ea:01:e1:b0:d6:76:dc:
                    8f:22:84:dd:92:80:86:ae:0c:97:57:a7:d9:e4:10:
                    35:76:25:54:ad:7a:80:07:65:0c:13:fb:96:5f:22:
                    f1:7d:b9:90:24:8d:4a:57:bf:a8:94:0d:30:25:b9:
                    cf:5c:5c:1b:41:ce:5a:a8:c2:35:ab:14:d7:9e:a9:
                    5d:38:06:a1:9e:d5:4d:07:2b:00:a9:f5:51:cb:36:
                    33:58:c8:7e:0a:ac:bc:bc:26:f0:11:b2:d1:0f:46:
                    5e:67:a9:96:a5:3a:04:3c:77:3c:23:80:f6:d9:4a:
                    f4:54:4e:57:b2:1d:2a:42:49:50:51:02:5e:ca:b2:
                    10:3d:ae:e7:ef:9e:cd:05:93:e7:bc:cd:42:e4:bc:
                    38:09:71:b3:91:d2:1d:d9:b5:07:7e:56:d6:a1:5b:
                    a8:cd:c8:eb:d2:8a:49:f4:9d:3d:d2:a6:ca:51:92:
                    10:1e:a6:42:71:1c:a9:86:eb:41:7d:35:1e:a6:21:
                    f6:4f:68:96:6d:59:9e:08:df:57:57:7b:e6:2c:eb:
                    a9:2b:84:93:cc:c4:44:4b:ea:07:c8:e2:35:34:73:
                    a5:5f:41
                Exponent: 65537 (0x10001)
        X509v3 extensions:
            X509v3 Basic Constraints: 
                CA:FALSE
            Netscape Comment: 
                Easy-RSA Generated Certificate
            X509v3 Subject Key Identifier: 
                10:FA:D2:6B:47:BD:61:52:D9:BB:08:31:58:81:B2:90:48:CC:92:DA
            X509v3 Authority Key Identifier: 
                keyid:12:CD:60:04:D2:A0:80:9E:70:ED:C6:99:B8:7B:2C:C6:52:FD:19:A1
                DirName:/C=US/ST=OH/L=Columbus/O=VikingVPN/OU=MyOrganizationalUnit/CN=VikingVPN CA/name=EasyRSA/emailAddress=me@myhost.mydomain
                serial:CF:35:85:EE:80:BF:2A:3E

            X509v3 Extended Key Usage: 
                TLS Web Client Authentication
            X509v3 Key Usage: 
                Digital Signature
    Signature Algorithm: md5WithRSAEncryption
         d0:73:84:a5:14:62:80:73:7c:77:67:4e:74:60:d3:cb:cd:da:
         d1:41:21:82:cc:09:80:24:e1:7c:e8:da:5f:bb:c3:30:62:87:
         1e:4c:71:69:68:7a:5e:e7:80:a1:a6:52:51:e7:3e:33:b5:54:
         f3:cb:d6:34:3d:e1:48:2a:bd:1b:0c:13:41:26:a2:4e:82:17:
         72:04:6a:94:1f:fa:6c:32:dd:5e:b9:dc:b7:98:4c:8d:15:6e:
         79:93:2c:e6:9e:91:9e:35:87:b2:20:91:97:c6:3f:67:30:f8:
         6f:c5:77:c3:4d:e3:48:9a:f5:28:98:6c:ee:e8:9d:35:03:fa:
         9c:cd:37:b9:ce:a1:ee:82:41:24:a5:a4:95:74:4d:f7:ad:97:
         c5:36:dc:5f:2a:64:e0:0e:80:77:9d:cf:fa:2b:d8:2e:ae:93:
         e3:ed:c0:41:81:8a:9d:8e:9c:4a:4d:5c:39:9f:2a:0c:5d:29:
         23:bd:cc:35:d7:52:fb:32:81:4a:60:9d:62:2e:2d:49:41:17:
         0b:a1:de:a9:1e:17:77:17:fa:a1:24:fd:62:96:2b:08:37:a4:
         46:fd:da:b2:2b:b4:c0:fa:2c:2f:99:0c:9d:3d:fa:e9:ca:28:
         71:f0:23:38:b6:55:bc:5d:6f:76:39:e9:93:cc:fc:ea:ae:4a:
         5c:0a:04:89:42:72:98:5f:cb:45:6a:1d:ec:af:7a:1b:d4:59:
         23:7a:4f:17:7a:b3:aa:c4:f7:75:db:71:49:8e:d3:06:e3:02:
         db:70:9f:09:0e:87:e4:f4:9f:40:b0:bc:60:da:12:30:cf:0a:
         3a:be:33:a0:ab:90:fd:4b:21:20:98:22:4c:c0:51:d1:cb:34:
         51:11:3b:3c:1e:04:f6:47:a1:9c:f8:a8:4e:3d:5c:f4:28:7e:
         dd:90:b4:1f:fd:66:f3:76:48:2e:89:85:e6:d7:7d:4f:1f:7a:
         b9:95:9e:c6:98:21:60:4e:95:9e:68:03:d9:0b:e0:c2:37:21:
         3a:2c:9b:85:d2:29:66:37:b8:0c:86:66:84:8d:da:14:ec:cc:
         7e:c0:c7:38:1a:03:f8:68:1e:d0:96:8f:87:ce:17:9f:a7:d9:
         60:f6:7a:ad:de:90:b6:d7:89:c1:91:af:03:75:57:a2:a3:6a:
         ae:e9:7e:1d:16:1f:e9:5d:64:56:55:a3:e9:cd:0b:42:7c:e2:
         c0:a3:08:27:c4:6c:a3:9a:88:52:67:8e:b1:93:9c:34:97:08:
         3b:00:9b:41:c5:c2:20:da:53:6d:81:c5:53:1c:ab:6a:dc:b1:
         01:be:ba:48:ef:ee:2c:f9:bd:4a:7c:08:6c:df:d4:4b:ae:cf:
         e0:60:35:2f:e5:31:99:3f
-----BEGIN CERTIFICATE-----
MIIGrDCCBJSgAwIBAgICHJowDQYJKoZIhvcNAQEEBQAwgawxCzAJBgNVBAYTAlVT
MQswCQYDVQQIEwJPSDERMA8GA1UEBxMIQ29sdW1idXMxEjAQBgNVBAoTCVZpa2lu
Z1ZQTjEdMBsGA1UECxMUTXlPcmdhbml6YXRpb25hbFVuaXQxFTATBgNVBAMTDFZp
a2luZ1ZQTiBDQTEQMA4GA1UEKRMHRWFzeVJTQTEhMB8GCSqGSIb3DQEJARYSbWVA
bXlob3N0Lm15ZG9tYWluMB4XDTE2MDIyNzE4MDcyNVoXDTI2MDIyNDE4MDcyNVow
HjEcMBoGA1UEAxMTQ2xpZW50ODAyQ2VydGViMTg3YjCCAiIwDQYJKoZIhvcNAQEB
BQADggIPADCCAgoCggIBAL9xoXkoXkWpKNDqERBj6qBFcGkauV8+INONL304XU34
AIvnSc+DKluYxWn19GSMggnbQ0BdkpP0DLxUToKSoqZeXHdWLVcV7rvAKqFdjn9d
VHXvWqrw0wLi9jI4D7e+8D1pYabgcaHE+sTOfL30H5tvcqrlO7BaL7sVxqnUgozR
OGbi2fK2iO2PBaaO5I1r5tbJKPEnpP8QMX9CQ+3LxopAJtUjhbXdN/sPeGqW0rLX
SOaW+Vjswy8ce91akvOp9cgI91F/ZdO0mQWyfqISNuutFTMVTTCd+jzluBOW6a0g
qNZTB3BSGmRrWVc2XOCPez2IBtw7AfbuuCKLvuzCFCNIfgfFHAqZPqEPAs1AbyJO
jhMcWVlLFW6yhX0EmY7/jLST+a7qAeGw1nbcjyKE3ZKAhq4Ml1en2eQQNXYlVK16
gAdlDBP7ll8i8X25kCSNSle/qJQNMCW5z1xcG0HOWqjCNasU156pXTgGoZ7VTQcr
AKn1Ucs2M1jIfgqsvLwm8BGy0Q9GXmeplqU6BDx3PCOA9tlK9FROV7IdKkJJUFEC
XsqyED2u5++ezQWT57zNQuS8OAlxs5HSHdm1B35W1qFbqM3I69KKSfSdPdKmylGS
EB6mQnEcqYbrQX01HqYh9k9olm1ZngjfV1d75izrqSuEk8zEREvqB8jiNTRzpV9B
AgMBAAGjggFjMIIBXzAJBgNVHRMEAjAAMC0GCWCGSAGG+EIBDQQgFh5FYXN5LVJT
QSBHZW5lcmF0ZWQgQ2VydGlmaWNhdGUwHQYDVR0OBBYEFBD60mtHvWFS2bsIMViB
spBIzJLaMIHhBgNVHSMEgdkwgdaAFBLNYATSoICecO3Gmbh7LMZS/RmhoYGypIGv
MIGsMQswCQYDVQQGEwJVUzELMAkGA1UECBMCT0gxETAPBgNVBAcTCENvbHVtYnVz
MRIwEAYDVQQKEwlWaWtpbmdWUE4xHTAbBgNVBAsTFE15T3JnYW5pemF0aW9uYWxV
bml0MRUwEwYDVQQDEwxWaWtpbmdWUE4gQ0ExEDAOBgNVBCkTB0Vhc3lSU0ExITAf
BgkqhkiG9w0BCQEWEm1lQG15aG9zdC5teWRvbWFpboIJAM81he6Avyo+MBMGA1Ud
JQQMMAoGCCsGAQUFBwMCMAsGA1UdDwQEAwIHgDANBgkqhkiG9w0BAQQFAAOCAgEA
0HOEpRRigHN8d2dOdGDTy83a0UEhgswJgCThfOjaX7vDMGKHHkxxaWh6XueAoaZS
Uec+M7VU88vWND3hSCq9GwwTQSaiToIXcgRqlB/6bDLdXrnct5hMjRVueZMs5p6R
njWHsiCRl8Y/ZzD4b8V3w03jSJr1KJhs7uidNQP6nM03uc6h7oJBJKWklXRN962X
xTbcXypk4A6Ad53P+ivYLq6T4+3AQYGKnY6cSk1cOZ8qDF0pI73MNddS+zKBSmCd
Yi4tSUEXC6HeqR4Xdxf6oST9YpYrCDekRv3asiu0wPosL5kMnT366coocfAjOLZV
vF1vdjnpk8z86q5KXAoEiUJymF/LRWod7K96G9RZI3pPF3qzqsT3ddtxSY7TBuMC
23CfCQ6H5PSfQLC8YNoSMM8KOr4zoKuQ/UshIJgiTMBR0cs0URE7PB4E9kehnPio
Tj1c9Ch+3ZC0H/1m83ZILomF5td9Tx96uZWexpghYE6VnmgD2QvgwjchOiybhdIp
Zje4DIZmhI3aFOzMfsDHOBoD+Gge0JaPh84Xn6fZYPZ6rd6QtteJwZGvA3VXoqNq
rul+HRYf6V1kVlWj6c0LQnziwKMIJ8Rso5qIUmeOsZOcNJcIOwCbQcXCINpTbYHF
UxyratyxAb66SO/uLPm9SnwIbN/US67P4GA1L+UxmT8=
-----END CERTIFICATE-----
