Certificate:
    Data:
        Version: 3 (0x2)
        Serial Number: 6864 (0x1ad0)
    Signature Algorithm: md5WithRSAEncryption
        Issuer: C=US, ST=OH, L=Columbus, O=VikingVPN, OU=MyOrganizationalUnit, CN=VikingVPN CA/name=EasyRSA/emailAddress=me@myhost.mydomain
        Validity
            Not Before: Dec  8 10:21:04 2015 GMT
            Not After : Dec  5 10:21:04 2025 GMT
        Subject: CN=Client2039Certb9c8b0
        Subject Public Key Info:
            Public Key Algorithm: rsaEncryption
                Public-Key: (4096 bit)
                Modulus:
                    00:bd:1d:6d:c4:ac:83:e7:42:99:f4:07:75:70:c9:
                    b7:de:19:1f:68:e6:c3:d2:cd:0c:e8:99:0a:5a:4f:
                    eb:f2:e2:54:a9:da:0c:4a:08:f6:ad:91:08:8b:e6:
                    48:56:e1:8d:09:06:8a:60:d5:05:42:0c:57:cc:a6:
                    7e:ec:be:91:7e:17:63:6e:a2:98:36:a0:68:08:0c:
                    ac:50:25:88:c2:49:11:4b:f4:5f:be:c2:35:e9:78:
                    6e:c5:d6:e5:65:0f:10:c5:f9:b5:d1:5c:6b:d1:c1:
                    3c:cc:76:87:6f:6a:bb:68:8d:43:4e:e9:20:70:5f:
                    a3:f4:2f:26:a0:97:be:0c:1c:25:2c:d2:30:76:3e:
                    cf:b3:c4:ee:eb:fb:a6:1a:2d:d9:1f:ae:c0:c7:19:
                    aa:36:fa:4b:00:ec:25:ba:ab:cb:fa:81:3b:77:e4:
                    09:08:cd:34:82:e2:51:81:c2:be:ae:da:5e:ea:8d:
                    e9:eb:3b:cb:05:11:e9:cd:01:bb:dc:5e:aa:0a:93:
                    2f:1f:60:de:8f:1a:77:24:f5:8b:70:f9:94:e4:22:
                    9c:9a:9b:b0:86:7e:60:77:ea:9b:e9:e9:4e:3d:d1:
                    2e:5c:6b:81:9b:ec:43:db:c7:1e:b6:69:df:e5:fa:
                    0c:cb:a2:18:c3:01:4f:1c:c8:c4:34:52:25:a5:3b:
                    83:bb:01:77:51:8f:f6:2a:c2:b1:4b:91:51:a6:45:
                    9b:59:41:7a:86:01:d8:9b:17:62:b8:b5:be:69:04:
                    ca:0a:f0:9d:a2:0f:b6:c7:18:ce:80:5c:af:47:d4:
                    ca:b7:7a:ac:ee:11:a5:40:ed:f9:f1:95:2b:dd:5b:
                    1d:21:73:93:5d:e5:1d:59:a1:6a:e1:0d:f2:d0:fb:
                    e5:27:f3:e0:ed:88:b3:93:08:d0:de:26:05:cc:61:
                    40:aa:d9:80:ca:03:c5:98:b4:dd:48:4a:a7:09:7c:
                    c1:65:2b:07:e8:12:0f:0c:cc:af:f8:da:89:3e:a2:
                    f3:46:12:f0:54:b5:ab:63:dc:aa:91:f4:18:c0:92:
                    fa:c7:33:a7:a3:c8:0e:64:6b:a7:99:d7:8f:39:a1:
                    58:67:fa:5c:07:f5:88:7f:7a:24:7c:05:ff:b1:9c:
                    81:a0:84:4f:6d:19:9c:b6:3b:00:1d:03:69:d5:45:
                    1e:00:7c:ed:ad:a6:56:54:49:89:04:63:e4:5a:be:
                    1d:99:21:52:a8:65:26:05:49:a3:54:b9:db:25:da:
                    ec:d4:7f:07:e4:84:f3:4e:a0:04:c2:d5:7c:2f:73:
                    e3:fb:14:88:76:bd:da:ac:b4:e6:40:d6:18:41:5d:
                    8b:d3:4a:33:6e:cd:f8:2f:7f:b8:b8:78:a7:f7:d4:
                    fc:d1:43
                Exponent: 65537 (0x10001)
        X509v3 extensions:
            X509v3 Basic Constraints: 
                CA:FALSE
            Netscape Comment: 
                Easy-RSA Generated Certificate
            X509v3 Subject Key Identifier: 
                3F:ED:EF:57:0D:A4:0F:94:FA:DC:F5:B5:94:8F:AB:B1:B8:4A:B2:2F
            X509v3 Authority Key Identifier: 
                keyid:12:CD:60:04:D2:A0:80:9E:70:ED:C6:99:B8:7B:2C:C6:52:FD:19:A1
                DirName:/C=US/ST=OH/L=Columbus/O=VikingVPN/OU=MyOrganizationalUnit/CN=VikingVPN CA/name=EasyRSA/emailAddress=me@myhost.mydomain
                serial:CF:35:85:EE:80:BF:2A:3E

            X509v3 Extended Key Usage: 
                TLS Web Client Authentication
            X509v3 Key Usage: 
                Digital Signature
    Signature Algorithm: md5WithRSAEncryption
         21:7e:44:e0:66:8b:4d:52:79:09:85:11:b1:e6:17:f8:12:80:
         d3:1b:fc:97:d4:1d:db:62:45:83:34:16:eb:dd:22:75:4f:87:
         5d:ff:a8:38:3d:aa:7b:4f:03:8e:24:f8:3e:22:3a:6e:c5:88:
         1f:e4:46:c3:7c:b0:f7:3b:76:a5:18:84:ca:ea:93:88:0e:d6:
         5f:89:5c:cb:24:60:46:bf:9a:a3:56:4a:0c:4f:cb:f9:f2:21:
         f1:ff:39:e7:18:49:cb:cd:f1:e9:0d:ef:ee:82:a8:db:2c:17:
         e7:88:e2:c9:fa:60:de:fb:3d:b9:b6:45:bb:c1:95:b9:cc:64:
         44:9a:88:28:d0:66:63:51:e4:29:e7:5a:a7:b5:5a:a8:42:48:
         18:1b:d1:1e:4c:65:13:cc:52:4e:a0:ee:44:f8:cf:52:9b:d0:
         e1:ab:42:d8:7a:cd:b6:9b:fa:e4:6c:c4:a3:f6:fa:c7:04:26:
         7c:1f:0c:a5:c2:cb:4b:f3:d9:0a:c1:0e:93:5a:d1:09:de:70:
         7c:bc:78:5e:74:a4:4d:8b:27:ba:bf:9b:74:7b:6a:d8:8d:d8:
         d1:25:41:38:1f:fe:44:aa:a1:d3:6a:aa:7e:b4:db:b7:e1:43:
         d6:93:71:18:fd:4b:fc:d8:f6:71:cb:a8:43:1e:3c:6a:f6:40:
         ea:74:32:7d:95:7f:5b:da:88:25:5b:64:b0:2b:40:d1:6f:13:
         09:f8:13:c1:f4:13:7a:45:a3:31:f1:a6:af:5a:27:0e:6a:f7:
         f4:f0:15:cb:c5:17:06:31:da:09:e0:ae:9c:80:2b:e0:3f:f2:
         5a:f0:a3:a4:c7:cb:dd:37:24:cc:0c:8b:11:ca:fb:dc:5c:8e:
         13:23:6a:51:26:d3:ee:00:1e:d6:34:3f:76:ba:3a:da:68:8d:
         59:0e:ed:5e:cd:8b:68:36:62:26:f5:30:73:6a:d0:59:21:ea:
         6e:77:01:fb:a8:a3:57:90:54:30:0e:f8:c7:3d:cd:1c:8a:5f:
         18:da:5e:52:1b:3d:ca:af:1e:c6:97:25:34:db:59:a2:d1:c4:
         d0:5f:c0:8f:c5:9d:37:4f:9b:6a:ef:4c:e7:7a:1c:e3:98:3c:
         9d:a9:b0:6f:5c:ed:0c:a9:f9:00:16:20:67:d4:9a:48:9e:be:
         7c:dd:c9:71:2a:17:99:ff:ff:6e:f5:39:bf:e6:ea:7b:3e:d4:
         b2:a7:44:a8:ce:64:c8:44:d7:f3:90:fd:0e:a3:fd:8f:7d:6c:
         d7:4f:4f:2e:66:94:17:84:79:96:c3:7a:24:be:35:7d:1a:ed:
         3c:ed:84:84:5b:ad:b0:0c:4c:31:df:ab:f8:31:f3:8a:c9:66:
         79:14:8b:9d:b6:dd:b5:14
-----BEGIN CERTIFICATE-----
MIIGrTCCBJWgAwIBAgICGtAwDQYJKoZIhvcNAQEEBQAwgawxCzAJBgNVBAYTAlVT
MQswCQYDVQQIEwJPSDERMA8GA1UEBxMIQ29sdW1idXMxEjAQBgNVBAoTCVZpa2lu
Z1ZQTjEdMBsGA1UECxMUTXlPcmdhbml6YXRpb25hbFVuaXQxFTATBgNVBAMTDFZp
a2luZ1ZQTiBDQTEQMA4GA1UEKRMHRWFzeVJTQTEhMB8GCSqGSIb3DQEJARYSbWVA
bXlob3N0Lm15ZG9tYWluMB4XDTE1MTIwODEwMjEwNFoXDTI1MTIwNTEwMjEwNFow
HzEdMBsGA1UEAxMUQ2xpZW50MjAzOUNlcnRiOWM4YjAwggIiMA0GCSqGSIb3DQEB
AQUAA4ICDwAwggIKAoICAQC9HW3ErIPnQpn0B3VwybfeGR9o5sPSzQzomQpaT+vy
4lSp2gxKCPatkQiL5khW4Y0JBopg1QVCDFfMpn7svpF+F2Nuopg2oGgIDKxQJYjC
SRFL9F++wjXpeG7F1uVlDxDF+bXRXGvRwTzMdodvartojUNO6SBwX6P0Lyagl74M
HCUs0jB2Ps+zxO7r+6YaLdkfrsDHGao2+ksA7CW6q8v6gTt35AkIzTSC4lGBwr6u
2l7qjenrO8sFEenNAbvcXqoKky8fYN6PGnck9Ytw+ZTkIpyam7CGfmB36pvp6U49
0S5ca4Gb7EPbxx62ad/l+gzLohjDAU8cyMQ0UiWlO4O7AXdRj/YqwrFLkVGmRZtZ
QXqGAdibF2K4tb5pBMoK8J2iD7bHGM6AXK9H1Mq3eqzuEaVA7fnxlSvdWx0hc5Nd
5R1ZoWrhDfLQ++Un8+DtiLOTCNDeJgXMYUCq2YDKA8WYtN1ISqcJfMFlKwfoEg8M
zK/42ok+ovNGEvBUtatj3KqR9BjAkvrHM6ejyA5ka6eZ1485oVhn+lwH9Yh/eiR8
Bf+xnIGghE9tGZy2OwAdA2nVRR4AfO2tplZUSYkEY+Ravh2ZIVKoZSYFSaNUudsl
2uzUfwfkhPNOoATC1Xwvc+P7FIh2vdqstOZA1hhBXYvTSjNuzfgvf7i4eKf31PzR
QwIDAQABo4IBYzCCAV8wCQYDVR0TBAIwADAtBglghkgBhvhCAQ0EIBYeRWFzeS1S
U0EgR2VuZXJhdGVkIENlcnRpZmljYXRlMB0GA1UdDgQWBBQ/7e9XDaQPlPrc9bWU
j6uxuEqyLzCB4QYDVR0jBIHZMIHWgBQSzWAE0qCAnnDtxpm4eyzGUv0ZoaGBsqSB
rzCBrDELMAkGA1UEBhMCVVMxCzAJBgNVBAgTAk9IMREwDwYDVQQHEwhDb2x1bWJ1
czESMBAGA1UEChMJVmlraW5nVlBOMR0wGwYDVQQLExRNeU9yZ2FuaXphdGlvbmFs
VW5pdDEVMBMGA1UEAxMMVmlraW5nVlBOIENBMRAwDgYDVQQpEwdFYXN5UlNBMSEw
HwYJKoZIhvcNAQkBFhJtZUBteWhvc3QubXlkb21haW6CCQDPNYXugL8qPjATBgNV
HSUEDDAKBggrBgEFBQcDAjALBgNVHQ8EBAMCB4AwDQYJKoZIhvcNAQEEBQADggIB
ACF+ROBmi01SeQmFEbHmF/gSgNMb/JfUHdtiRYM0FuvdInVPh13/qDg9qntPA44k
+D4iOm7FiB/kRsN8sPc7dqUYhMrqk4gO1l+JXMskYEa/mqNWSgxPy/nyIfH/OecY
ScvN8ekN7+6CqNssF+eI4sn6YN77Pbm2RbvBlbnMZESaiCjQZmNR5CnnWqe1WqhC
SBgb0R5MZRPMUk6g7kT4z1Kb0OGrQth6zbab+uRsxKP2+scEJnwfDKXCy0vz2QrB
DpNa0QnecHy8eF50pE2LJ7q/m3R7atiN2NElQTgf/kSqodNqqn6027fhQ9aTcRj9
S/zY9nHLqEMePGr2QOp0Mn2Vf1vaiCVbZLArQNFvEwn4E8H0E3pFozHxpq9aJw5q
9/TwFcvFFwYx2gngrpyAK+A/8lrwo6THy903JMwMixHK+9xcjhMjalEm0+4AHtY0
P3a6OtpojVkO7V7Ni2g2Yib1MHNq0Fkh6m53Afuoo1eQVDAO+Mc9zRyKXxjaXlIb
PcqvHsaXJTTbWaLRxNBfwI/FnTdPm2rvTOd6HOOYPJ2psG9c7Qyp+QAWIGfUmkie
vnzdyXEqF5n//271Ob/m6ns+1LKnRKjOZMhE1/OQ/Q6j/Y99bNdPTy5mlBeEeZbD
eiS+NX0a7TzthIRbrbAMTDHfq/gx84rJZnkUi5223bUU
-----END CERTIFICATE-----
