Certificate:
    Data:
        Version: 3 (0x2)
        Serial Number: 3938 (0xf62)
    Signature Algorithm: md5WithRSAEncryption
        Issuer: C=US, ST=OH, L=Columbus, O=VikingVPN, OU=MyOrganizationalUnit, CN=VikingVPN CA/name=EasyRSA/emailAddress=me@myhost.mydomain
        Validity
            Not Before: Jan  1 07:24:06 2015 GMT
            Not After : Dec 29 07:24:06 2024 GMT
        Subject: CN=Client1315Cert123d6d
        Subject Public Key Info:
            Public Key Algorithm: rsaEncryption
                Public-Key: (4096 bit)
                Modulus:
                    00:a3:ad:af:aa:a5:37:9e:cd:bf:2b:cf:7b:69:70:
                    e4:8e:54:de:5a:d5:b1:c5:73:80:78:a5:97:a8:2e:
                    e4:b5:35:17:f8:17:c5:37:d5:c7:5d:6f:9f:34:2f:
                    f1:78:fa:ed:d5:8c:05:67:e7:a6:21:fd:87:7e:e4:
                    d4:0f:ee:70:a2:e4:17:5a:6a:b4:96:13:88:47:f3:
                    ee:c7:47:d5:38:fa:9d:51:92:fd:86:98:d3:27:ef:
                    76:9d:65:22:2b:4b:e3:7a:f9:eb:28:60:27:f3:a9:
                    54:b0:e6:13:c1:51:4f:91:09:44:25:fd:a8:9c:ec:
                    1d:5f:1f:e1:1e:ca:fe:8f:8c:db:03:3d:09:8d:33:
                    9e:08:13:57:0f:4d:2d:07:02:3f:74:36:91:09:26:
                    ac:45:64:32:25:4e:47:65:16:f8:67:42:ef:34:f7:
                    3e:57:97:2e:f9:6c:93:c7:9e:9a:b3:a9:37:c3:4e:
                    c7:c0:f4:b6:e8:a9:fc:13:83:03:d1:37:2c:46:e2:
                    7d:d7:92:64:62:09:c8:e7:52:f6:db:dd:7c:cf:53:
                    93:ce:a5:42:50:fe:c5:46:4a:83:ba:6b:45:e4:59:
                    10:f3:80:80:85:89:46:05:e0:95:e3:b8:31:fe:cc:
                    13:4e:9d:b0:12:ef:64:a2:5b:ec:30:0b:0b:41:ac:
                    d8:17:92:ff:f7:41:96:59:83:46:dd:aa:a1:0d:78:
                    3a:f0:a3:27:83:88:f5:8f:44:72:67:6f:b7:0b:7e:
                    ec:07:b3:07:f4:13:95:57:6a:05:ae:52:d1:3e:52:
                    3a:ca:f5:dc:44:1d:4f:82:3c:f7:89:cd:dd:f9:79:
                    14:7a:85:50:89:af:c9:49:48:58:fc:26:f6:bc:24:
                    b4:5f:c1:59:4d:8f:8f:08:b1:e6:6f:b5:82:2f:8f:
                    8f:1c:53:06:1f:8a:26:23:ca:a7:0a:03:6d:b2:a9:
                    63:f1:e3:74:99:bb:bb:7f:4e:ae:12:11:04:b9:4c:
                    a4:e9:db:73:05:2b:b1:34:6f:69:db:74:8e:72:c7:
                    50:85:7b:3d:8a:43:a7:89:7f:e5:71:90:88:61:c2:
                    5a:c4:c5:9d:bd:6a:56:83:3c:63:a5:e9:da:3f:c3:
                    f2:10:d9:dc:ab:11:8d:38:c5:c4:58:84:70:f4:c3:
                    08:58:02:e7:cf:60:56:4f:e3:4e:d8:05:a0:3e:6f:
                    10:79:56:4a:ff:db:2e:46:7a:4d:69:5f:aa:3f:d1:
                    25:62:c7:41:50:21:92:85:ce:b9:9b:12:68:0f:2c:
                    37:9e:21:28:1c:c0:ff:bf:12:f6:97:cb:c6:ba:68:
                    c5:67:8b:68:22:3a:7f:33:87:c8:22:0c:3f:27:f1:
                    17:cb:95
                Exponent: 65537 (0x10001)
        X509v3 extensions:
            X509v3 Basic Constraints: 
                CA:FALSE
            Netscape Comment: 
                Easy-RSA Generated Certificate
            X509v3 Subject Key Identifier: 
                37:D7:BD:FB:19:79:0C:75:B0:24:55:47:A2:CA:A6:F8:CE:D3:3B:BD
            X509v3 Authority Key Identifier: 
                keyid:12:CD:60:04:D2:A0:80:9E:70:ED:C6:99:B8:7B:2C:C6:52:FD:19:A1
                DirName:/C=US/ST=OH/L=Columbus/O=VikingVPN/OU=MyOrganizationalUnit/CN=VikingVPN CA/name=EasyRSA/emailAddress=me@myhost.mydomain
                serial:CF:35:85:EE:80:BF:2A:3E

            X509v3 Extended Key Usage: 
                TLS Web Client Authentication
            X509v3 Key Usage: 
                Digital Signature
    Signature Algorithm: md5WithRSAEncryption
         76:9b:54:e0:29:d9:6e:9c:e5:c6:68:cb:39:57:45:75:5d:79:
         c9:80:de:91:54:27:c1:0d:38:da:4e:9a:75:c3:0f:62:bc:2b:
         a7:17:60:a7:99:d1:18:73:d6:6a:e8:22:69:ba:89:07:ee:41:
         09:76:46:a3:0c:bf:73:2a:9c:8d:7a:a9:3e:71:9a:3b:16:08:
         26:ae:5e:82:bc:6d:c3:4b:d9:7f:b4:dd:f4:89:dc:88:90:11:
         31:be:e7:65:5d:7b:89:bc:c3:35:b0:c0:a1:7e:b5:49:64:6a:
         50:49:e0:83:ec:90:28:ad:93:b2:fa:2b:55:cd:e5:82:c0:33:
         91:a0:1b:06:d5:72:17:70:70:ea:f0:47:8b:d2:9a:0d:95:00:
         05:b5:fc:84:32:0f:e9:ab:0f:01:8f:08:63:ad:d0:85:4b:2e:
         dc:46:9a:3b:1b:1a:81:b9:d9:ab:59:a5:4e:b1:d3:ba:4c:ba:
         2b:dc:0e:fc:32:53:32:e0:eb:17:21:48:fe:65:8a:c6:0f:b4:
         66:da:a8:7a:6f:48:3a:a7:04:8f:35:5b:80:8f:8a:ab:a1:84:
         19:71:89:2c:c7:6e:21:ed:aa:15:0a:e8:f6:62:6a:6c:bd:ec:
         0a:20:b5:b7:1f:23:4d:58:2c:1f:f6:71:cb:f6:3f:49:4c:ef:
         76:0a:d9:e5:d0:bd:e0:ef:86:bc:d8:40:c7:aa:53:05:b3:43:
         e9:22:47:9f:20:37:fa:33:c2:44:e1:1c:8c:bb:1b:61:1d:7e:
         d5:49:81:8d:d6:bc:bd:8f:e3:92:c9:0e:51:5a:33:a5:cb:89:
         79:cb:12:3c:f3:bc:2c:f9:a1:83:8e:15:3c:c7:ac:ed:93:b1:
         98:a2:5c:39:f3:05:28:4e:13:b2:35:dc:bd:2c:43:ce:e3:72:
         f6:c7:9b:22:e5:63:bf:04:1c:72:87:70:8a:dd:6f:55:bf:8a:
         4d:90:0d:3d:d2:01:e1:30:79:8f:a5:fc:9a:9d:ec:54:82:26:
         44:51:02:cd:a3:cc:39:8d:43:34:8a:6f:6b:e5:d0:55:96:63:
         c4:63:cf:9d:bb:94:eb:69:6e:5e:21:f4:67:2e:18:b4:e0:6d:
         7d:9f:19:19:71:45:b9:39:66:5a:3e:fa:c8:26:3c:71:e8:10:
         1b:46:9b:b4:be:74:70:fc:86:40:31:cf:e6:7b:99:63:d6:1b:
         35:72:23:29:45:b7:5a:43:c1:81:a6:bf:10:57:12:b9:b3:02:
         40:a5:b6:e0:d9:ab:30:bd:e4:b6:5e:e4:82:cd:71:c2:9d:a0:
         8b:57:48:18:72:b3:b8:d6:15:da:7a:19:ac:96:df:7b:b9:e1:
         a8:2e:31:6b:6b:68:e5:f5
-----BEGIN CERTIFICATE-----
MIIGrTCCBJWgAwIBAgICD2IwDQYJKoZIhvcNAQEEBQAwgawxCzAJBgNVBAYTAlVT
MQswCQYDVQQIEwJPSDERMA8GA1UEBxMIQ29sdW1idXMxEjAQBgNVBAoTCVZpa2lu
Z1ZQTjEdMBsGA1UECxMUTXlPcmdhbml6YXRpb25hbFVuaXQxFTATBgNVBAMTDFZp
a2luZ1ZQTiBDQTEQMA4GA1UEKRMHRWFzeVJTQTEhMB8GCSqGSIb3DQEJARYSbWVA
bXlob3N0Lm15ZG9tYWluMB4XDTE1MDEwMTA3MjQwNloXDTI0MTIyOTA3MjQwNlow
HzEdMBsGA1UEAxMUQ2xpZW50MTMxNUNlcnQxMjNkNmQwggIiMA0GCSqGSIb3DQEB
AQUAA4ICDwAwggIKAoICAQCjra+qpTeezb8rz3tpcOSOVN5a1bHFc4B4pZeoLuS1
NRf4F8U31cddb580L/F4+u3VjAVn56Yh/Yd+5NQP7nCi5BdaarSWE4hH8+7HR9U4
+p1Rkv2GmNMn73adZSIrS+N6+esoYCfzqVSw5hPBUU+RCUQl/aic7B1fH+Eeyv6P
jNsDPQmNM54IE1cPTS0HAj90NpEJJqxFZDIlTkdlFvhnQu809z5Xly75bJPHnpqz
qTfDTsfA9LboqfwTgwPRNyxG4n3XkmRiCcjnUvbb3XzPU5POpUJQ/sVGSoO6a0Xk
WRDzgICFiUYF4JXjuDH+zBNOnbAS72SiW+wwCwtBrNgXkv/3QZZZg0bdqqENeDrw
oyeDiPWPRHJnb7cLfuwHswf0E5VXagWuUtE+UjrK9dxEHU+CPPeJzd35eRR6hVCJ
r8lJSFj8Jva8JLRfwVlNj48IseZvtYIvj48cUwYfiiYjyqcKA22yqWPx43SZu7t/
Tq4SEQS5TKTp23MFK7E0b2nbdI5yx1CFez2KQ6eJf+VxkIhhwlrExZ29alaDPGOl
6do/w/IQ2dyrEY04xcRYhHD0wwhYAufPYFZP407YBaA+bxB5Vkr/2y5Gek1pX6o/
0SVix0FQIZKFzrmbEmgPLDeeISgcwP+/EvaXy8a6aMVni2giOn8zh8giDD8n8RfL
lQIDAQABo4IBYzCCAV8wCQYDVR0TBAIwADAtBglghkgBhvhCAQ0EIBYeRWFzeS1S
U0EgR2VuZXJhdGVkIENlcnRpZmljYXRlMB0GA1UdDgQWBBQ31737GXkMdbAkVUei
yqb4ztM7vTCB4QYDVR0jBIHZMIHWgBQSzWAE0qCAnnDtxpm4eyzGUv0ZoaGBsqSB
rzCBrDELMAkGA1UEBhMCVVMxCzAJBgNVBAgTAk9IMREwDwYDVQQHEwhDb2x1bWJ1
czESMBAGA1UEChMJVmlraW5nVlBOMR0wGwYDVQQLExRNeU9yZ2FuaXphdGlvbmFs
VW5pdDEVMBMGA1UEAxMMVmlraW5nVlBOIENBMRAwDgYDVQQpEwdFYXN5UlNBMSEw
HwYJKoZIhvcNAQkBFhJtZUBteWhvc3QubXlkb21haW6CCQDPNYXugL8qPjATBgNV
HSUEDDAKBggrBgEFBQcDAjALBgNVHQ8EBAMCB4AwDQYJKoZIhvcNAQEEBQADggIB
AHabVOAp2W6c5cZoyzlXRXVdecmA3pFUJ8ENONpOmnXDD2K8K6cXYKeZ0Rhz1mro
Imm6iQfuQQl2RqMMv3MqnI16qT5xmjsWCCauXoK8bcNL2X+03fSJ3IiQETG+52Vd
e4m8wzWwwKF+tUlkalBJ4IPskCitk7L6K1XN5YLAM5GgGwbVchdwcOrwR4vSmg2V
AAW1/IQyD+mrDwGPCGOt0IVLLtxGmjsbGoG52atZpU6x07pMuivcDvwyUzLg6xch
SP5lisYPtGbaqHpvSDqnBI81W4CPiquhhBlxiSzHbiHtqhUK6PZiamy97Aogtbcf
I01YLB/2ccv2P0lM73YK2eXQveDvhrzYQMeqUwWzQ+kiR58gN/ozwkThHIy7G2Ed
ftVJgY3WvL2P45LJDlFaM6XLiXnLEjzzvCz5oYOOFTzHrO2TsZiiXDnzBShOE7I1
3L0sQ87jcvbHmyLlY78EHHKHcIrdb1W/ik2QDT3SAeEweY+l/Jqd7FSCJkRRAs2j
zDmNQzSKb2vl0FWWY8Rjz527lOtpbl4h9GcuGLTgbX2fGRlxRbk5Zlo++sgmPHHo
EBtGm7S+dHD8hkAxz+Z7mWPWGzVyIylFt1pDwYGmvxBXErmzAkCltuDZqzC95LZe
5ILNccKdoItXSBhys7jWFdp6GayW33u54aguMWtraOX1
-----END CERTIFICATE-----
