Certificate:
    Data:
        Version: 3 (0x2)
        Serial Number: 4131 (0x1023)
    Signature Algorithm: md5WithRSAEncryption
        Issuer: C=US, ST=OH, L=Columbus, O=VikingVPN, OU=MyOrganizationalUnit, CN=VikingVPN CA/name=EasyRSA/emailAddress=me@myhost.mydomain
        Validity
            Not Before: Jan 14 23:30:30 2015 GMT
            Not After : Jan 11 23:30:30 2025 GMT
        Subject: CN=Client1362Cert10364e
        Subject Public Key Info:
            Public Key Algorithm: rsaEncryption
                Public-Key: (4096 bit)
                Modulus:
                    00:dd:61:ac:19:a2:d7:83:ff:54:9f:f7:d5:af:36:
                    e5:6a:7b:01:67:9e:15:8b:2c:4a:2f:de:29:02:2a:
                    d8:07:bf:fe:46:de:02:fc:e1:da:ce:8f:81:73:54:
                    1e:21:64:95:10:51:3c:85:5b:7e:1a:cb:c9:49:76:
                    c7:04:a3:1b:d2:bc:cf:bf:d1:b8:05:6a:27:a6:df:
                    ce:a3:b9:85:23:50:74:95:42:70:fe:5e:cb:26:db:
                    a8:53:32:4d:d0:f0:61:28:7c:3e:6b:76:69:f4:0c:
                    d0:f9:ad:e5:75:5c:c5:62:74:79:44:e3:62:e3:21:
                    2b:0f:4e:fc:95:07:af:d2:70:6e:ae:9c:bb:30:e0:
                    1a:fd:eb:dd:00:e4:cb:12:6c:b3:9b:47:ac:ce:56:
                    77:84:56:2b:2b:69:45:fe:32:df:6b:10:47:d8:fc:
                    e3:ed:3c:fe:12:97:3e:42:57:f6:b4:61:a8:3a:64:
                    ae:ac:a7:8e:f9:7c:b3:43:72:f6:34:b4:db:21:75:
                    b3:f3:1f:fe:8e:4d:bd:54:4c:f7:70:7d:37:65:2a:
                    6a:ed:d6:ac:27:bd:be:d9:55:38:3b:b7:0d:5c:46:
                    cb:40:da:0c:0e:e6:09:d4:5a:6e:81:ea:8e:2d:35:
                    c8:41:62:16:3f:72:9e:0f:49:82:17:cf:08:6c:ab:
                    51:c8:c9:f0:03:c7:79:92:c3:74:23:bf:e2:34:a9:
                    a9:9d:4d:79:08:00:53:c3:e2:b9:70:dc:c6:23:f5:
                    6c:ef:0a:cf:06:22:d2:fc:27:28:71:46:3c:94:33:
                    e2:6c:ed:55:3e:20:9b:1b:88:43:14:ee:97:55:b7:
                    c3:01:96:6a:fd:02:fb:4d:b0:4c:11:29:d8:fe:45:
                    91:3d:89:64:cd:50:f3:0a:94:36:94:fc:1c:c8:bf:
                    82:0d:86:88:99:b7:32:b7:c2:48:4d:1a:be:49:6a:
                    36:1d:a7:ea:2a:c8:a8:fd:7a:39:74:26:8a:d3:dd:
                    d3:c2:05:e9:f7:68:86:fa:54:94:4b:52:31:14:9e:
                    4b:8f:a5:81:36:f1:60:2e:53:c6:af:18:2d:69:05:
                    c6:0f:6d:f3:94:ff:18:c7:ce:44:70:ef:3a:e1:c6:
                    17:c3:f1:7e:6c:7c:ed:19:d0:88:30:e9:16:a0:93:
                    32:24:ae:97:f7:8b:39:67:c2:53:2b:0f:78:7e:08:
                    b0:0a:be:65:99:d8:20:d5:7d:f3:39:d2:08:5e:b0:
                    51:ec:b7:96:0d:4f:77:cb:74:a6:06:f6:cb:c8:84:
                    23:d2:3b:53:92:78:b8:33:6a:2e:38:2c:99:d9:fb:
                    22:5c:75:9a:2a:50:ba:3c:b0:74:ed:53:a4:ca:3e:
                    b5:4f:fb
                Exponent: 65537 (0x10001)
        X509v3 extensions:
            X509v3 Basic Constraints: 
                CA:FALSE
            Netscape Comment: 
                Easy-RSA Generated Certificate
            X509v3 Subject Key Identifier: 
                87:F4:32:5C:D1:73:04:E1:45:BF:2C:B4:5A:65:73:2A:0A:51:FC:76
            X509v3 Authority Key Identifier: 
                keyid:12:CD:60:04:D2:A0:80:9E:70:ED:C6:99:B8:7B:2C:C6:52:FD:19:A1
                DirName:/C=US/ST=OH/L=Columbus/O=VikingVPN/OU=MyOrganizationalUnit/CN=VikingVPN CA/name=EasyRSA/emailAddress=me@myhost.mydomain
                serial:CF:35:85:EE:80:BF:2A:3E

            X509v3 Extended Key Usage: 
                TLS Web Client Authentication
            X509v3 Key Usage: 
                Digital Signature
    Signature Algorithm: md5WithRSAEncryption
         8a:38:63:73:27:e6:f3:7c:d4:f6:38:91:75:04:92:39:41:bb:
         96:88:80:bb:25:ef:41:a6:aa:6e:57:c1:30:d4:1f:2c:5f:06:
         1d:c2:78:2e:fb:d7:02:6d:6c:aa:fb:37:66:6b:6c:2a:04:5b:
         39:47:d8:61:af:b6:e9:c3:4c:26:10:ce:8c:63:0e:c3:cc:8d:
         76:e1:df:b1:52:6c:b6:99:52:56:bf:26:45:0b:a4:05:69:3e:
         42:e2:83:79:86:c1:16:d0:05:36:85:b2:49:67:cf:58:7a:73:
         96:9f:14:91:df:f4:16:bc:95:fd:67:fd:30:c2:ce:d8:af:30:
         8d:f1:1d:bf:4b:be:57:4b:cc:f5:d9:35:17:a0:ac:38:38:70:
         d0:d8:85:6b:f5:59:01:7e:d4:e8:59:ff:7b:18:93:d7:9f:21:
         40:1c:d6:5e:ca:75:58:cb:8e:aa:ce:fe:d9:13:d2:e6:1b:e9:
         fa:5c:de:43:0e:a3:97:ec:22:50:01:2a:5a:b4:6e:f7:bc:eb:
         6f:12:a4:4e:3d:42:4b:8a:31:70:9c:6e:85:d1:ac:70:35:8e:
         d9:fb:3a:ad:2f:e2:ad:eb:6b:29:03:91:33:f2:0b:ff:a8:d0:
         34:55:ae:cb:34:71:3b:fc:97:eb:e4:be:4f:1c:e8:05:82:f8:
         71:bd:d1:a4:e3:d4:e7:e8:ae:08:0b:41:de:77:91:7d:76:fe:
         37:55:6c:29:40:46:1e:a1:84:8a:d1:d8:74:0a:b7:51:cd:8c:
         71:2e:ff:35:23:a9:a9:97:70:b2:97:24:b2:cd:fe:61:23:b0:
         67:44:c4:5f:f1:56:91:d7:7b:cd:e2:aa:e5:27:18:7e:90:e4:
         76:a0:18:ce:01:4f:dc:37:35:c8:bf:dc:ca:24:89:71:16:44:
         82:36:94:6f:65:57:48:55:da:5e:03:79:ac:2d:e3:12:c3:66:
         8d:41:fd:72:f8:e1:aa:aa:72:e7:6e:3b:b1:0a:89:36:8a:e7:
         33:7d:19:3c:2c:54:4a:cc:72:15:de:5c:10:35:ee:70:19:7c:
         22:8a:02:90:8c:aa:b4:84:e7:6b:0d:21:e6:6f:86:8b:8a:6e:
         72:1f:5c:1a:2f:61:2c:74:a0:ce:78:c4:84:24:7a:80:1c:71:
         fc:b4:60:8f:dd:31:ed:40:ee:40:08:6c:52:e5:59:56:6b:92:
         21:3d:c8:d0:e0:fe:35:15:e4:0c:aa:78:f4:9f:d3:75:6b:19:
         e3:45:f0:f1:86:d2:90:6b:ff:ea:67:fc:11:93:bc:c6:45:a0:
         a1:d7:2b:24:40:6a:df:99:80:f0:37:d1:0c:44:f9:0b:c7:21:
         9b:a3:96:41:8e:d7:01:ed
-----BEGIN CERTIFICATE-----
MIIGrTCCBJWgAwIBAgICECMwDQYJKoZIhvcNAQEEBQAwgawxCzAJBgNVBAYTAlVT
MQswCQYDVQQIEwJPSDERMA8GA1UEBxMIQ29sdW1idXMxEjAQBgNVBAoTCVZpa2lu
Z1ZQTjEdMBsGA1UECxMUTXlPcmdhbml6YXRpb25hbFVuaXQxFTATBgNVBAMTDFZp
a2luZ1ZQTiBDQTEQMA4GA1UEKRMHRWFzeVJTQTEhMB8GCSqGSIb3DQEJARYSbWVA
bXlob3N0Lm15ZG9tYWluMB4XDTE1MDExNDIzMzAzMFoXDTI1MDExMTIzMzAzMFow
HzEdMBsGA1UEAxMUQ2xpZW50MTM2MkNlcnQxMDM2NGUwggIiMA0GCSqGSIb3DQEB
AQUAA4ICDwAwggIKAoICAQDdYawZoteD/1Sf99WvNuVqewFnnhWLLEov3ikCKtgH
v/5G3gL84drOj4FzVB4hZJUQUTyFW34ay8lJdscEoxvSvM+/0bgFaiem386juYUj
UHSVQnD+Xssm26hTMk3Q8GEofD5rdmn0DND5reV1XMVidHlE42LjISsPTvyVB6/S
cG6unLsw4Br9690A5MsSbLObR6zOVneEVisraUX+Mt9rEEfY/OPtPP4Slz5CV/a0
Yag6ZK6sp475fLNDcvY0tNshdbPzH/6OTb1UTPdwfTdlKmrt1qwnvb7ZVTg7tw1c
RstA2gwO5gnUWm6B6o4tNchBYhY/cp4PSYIXzwhsq1HIyfADx3mSw3Qjv+I0qamd
TXkIAFPD4rlw3MYj9WzvCs8GItL8JyhxRjyUM+Js7VU+IJsbiEMU7pdVt8MBlmr9
AvtNsEwRKdj+RZE9iWTNUPMKlDaU/BzIv4INhoiZtzK3wkhNGr5JajYdp+oqyKj9
ejl0JorT3dPCBen3aIb6VJRLUjEUnkuPpYE28WAuU8avGC1pBcYPbfOU/xjHzkRw
7zrhxhfD8X5sfO0Z0Igw6RagkzIkrpf3izlnwlMrD3h+CLAKvmWZ2CDVffM50ghe
sFHst5YNT3fLdKYG9svIhCPSO1OSeLgzai44LJnZ+yJcdZoqULo8sHTtU6TKPrVP
+wIDAQABo4IBYzCCAV8wCQYDVR0TBAIwADAtBglghkgBhvhCAQ0EIBYeRWFzeS1S
U0EgR2VuZXJhdGVkIENlcnRpZmljYXRlMB0GA1UdDgQWBBSH9DJc0XME4UW/LLRa
ZXMqClH8djCB4QYDVR0jBIHZMIHWgBQSzWAE0qCAnnDtxpm4eyzGUv0ZoaGBsqSB
rzCBrDELMAkGA1UEBhMCVVMxCzAJBgNVBAgTAk9IMREwDwYDVQQHEwhDb2x1bWJ1
czESMBAGA1UEChMJVmlraW5nVlBOMR0wGwYDVQQLExRNeU9yZ2FuaXphdGlvbmFs
VW5pdDEVMBMGA1UEAxMMVmlraW5nVlBOIENBMRAwDgYDVQQpEwdFYXN5UlNBMSEw
HwYJKoZIhvcNAQkBFhJtZUBteWhvc3QubXlkb21haW6CCQDPNYXugL8qPjATBgNV
HSUEDDAKBggrBgEFBQcDAjALBgNVHQ8EBAMCB4AwDQYJKoZIhvcNAQEEBQADggIB
AIo4Y3Mn5vN81PY4kXUEkjlBu5aIgLsl70Gmqm5XwTDUHyxfBh3CeC771wJtbKr7
N2ZrbCoEWzlH2GGvtunDTCYQzoxjDsPMjXbh37FSbLaZUla/JkULpAVpPkLig3mG
wRbQBTaFsklnz1h6c5afFJHf9Ba8lf1n/TDCztivMI3xHb9LvldLzPXZNRegrDg4
cNDYhWv1WQF+1OhZ/3sYk9efIUAc1l7KdVjLjqrO/tkT0uYb6fpc3kMOo5fsIlAB
Klq0bve8628SpE49QkuKMXCcboXRrHA1jtn7Oq0v4q3raykDkTPyC/+o0DRVrss0
cTv8l+vkvk8c6AWC+HG90aTj1OforggLQd53kX12/jdVbClARh6hhIrR2HQKt1HN
jHEu/zUjqamXcLKXJLLN/mEjsGdExF/xVpHXe83iquUnGH6Q5HagGM4BT9w3Nci/
3MokiXEWRII2lG9lV0hV2l4Deawt4xLDZo1B/XL44aqqcuduO7EKiTaK5zN9GTws
VErMchXeXBA17nAZfCKKApCMqrSE52sNIeZvhouKbnIfXBovYSx0oM54xIQkeoAc
cfy0YI/dMe1A7kAIbFLlWVZrkiE9yNDg/jUV5AyqePSf03VrGeNF8PGG0pBr/+pn
/BGTvMZFoKHXKyRAat+ZgPA30QxE+QvHIZujlkGO1wHt
-----END CERTIFICATE-----
