Certificate:
    Data:
        Version: 3 (0x2)
        Serial Number: 12880 (0x3250)
    Signature Algorithm: sha256WithRSAEncryption
        Issuer: C=US, ST=OH, L=Columbus, O=VikingVPN, OU=MyOrganizationalUnit, CN=VikingVPN CA/name=EasyRSA/emailAddress=me@myhost.mydomain
        Validity
            Not Before: Apr  2 17:53:14 2018 GMT
            Not After : Mar 30 17:53:14 2028 GMT
        Subject: CN=Client2725Cert766361
        Subject Public Key Info:
            Public Key Algorithm: rsaEncryption
                Public-Key: (4096 bit)
                Modulus:
                    00:98:2e:7a:9c:06:8e:44:9b:ad:55:fd:6b:3e:91:
                    9d:d3:d1:b7:6f:ac:51:74:11:d2:9c:18:70:f7:69:
                    52:be:5c:79:51:a6:81:90:c5:ab:c2:5c:35:18:70:
                    63:f4:39:b7:e0:a1:5d:54:54:05:5d:17:79:64:fb:
                    c6:30:80:89:0a:71:a3:bf:9b:16:1f:69:2f:72:ab:
                    b7:96:91:b7:99:da:17:73:fd:3b:31:46:b3:78:11:
                    ea:fd:b4:d9:21:99:24:c4:e2:58:e7:f9:bd:ec:b8:
                    58:23:a1:cf:89:5a:c2:d1:27:62:ca:3a:9b:73:f5:
                    5d:12:0a:ae:9b:09:97:1c:32:07:27:74:d6:81:c0:
                    42:84:6e:4d:0d:1e:3a:be:10:e5:5e:3b:be:ca:f7:
                    8a:fa:17:22:34:75:0f:86:22:fe:06:8d:31:0a:b8:
                    4c:52:01:29:37:81:c8:51:52:48:5c:3b:1a:80:ff:
                    67:97:7c:8e:7a:ca:29:88:a8:64:26:ec:0e:f5:37:
                    52:21:88:06:aa:5a:08:fb:58:49:3b:3c:08:9e:c8:
                    88:70:1b:f3:51:24:3c:6d:2e:25:04:ae:ec:57:c3:
                    19:a5:1c:11:4c:45:3a:6d:22:65:d3:23:f1:75:8d:
                    1f:3b:f6:c4:04:bd:a4:52:b8:73:5d:0f:d6:c5:e0:
                    6f:65:f9:34:47:51:4a:f5:a7:a3:05:7a:0e:c9:23:
                    f4:6b:ac:8c:7d:cf:35:c1:2c:ff:01:ba:2e:c9:33:
                    3f:9e:b0:a5:1f:5c:67:fa:d2:9c:0e:23:6f:1e:45:
                    3a:b1:8f:4c:37:e9:fb:91:c5:91:88:95:7a:4d:f6:
                    46:d0:7b:4f:35:1f:28:88:c4:bc:d3:ba:44:a3:03:
                    8c:2d:5b:71:48:72:e9:cb:52:a6:3f:51:96:3b:49:
                    58:4a:52:18:13:98:61:fe:61:8a:38:4d:21:39:59:
                    8c:60:d2:91:14:22:92:40:c1:ae:de:f5:02:f2:b5:
                    c9:76:fb:45:90:17:6f:b0:d7:48:bc:64:a6:83:44:
                    3a:cb:30:f2:98:a3:5c:88:14:56:4d:be:b6:63:2f:
                    5b:61:9b:cf:04:87:e3:f6:f8:8f:74:72:73:87:27:
                    2d:6e:43:ea:81:16:ec:d0:58:82:a9:93:4e:19:fb:
                    55:71:9c:3a:db:62:7d:61:ac:81:11:48:50:5a:79:
                    5b:ea:9f:28:30:a6:fc:6f:43:9a:f0:43:15:e4:9e:
                    c2:15:7c:83:36:83:0c:cc:2f:e9:9c:ae:23:25:f9:
                    ff:6c:ac:ca:d5:83:00:ee:d8:0a:2e:bb:17:97:79:
                    71:74:4d:87:da:28:39:c3:fb:ba:6f:78:dd:86:06:
                    83:79:35
                Exponent: 65537 (0x10001)
        X509v3 extensions:
            X509v3 Basic Constraints: 
                CA:FALSE
            Netscape Comment: 
                Easy-RSA Generated Certificate
            X509v3 Subject Key Identifier: 
                E2:B2:72:E6:5C:67:B5:F9:CE:12:9B:D7:FC:D4:48:5B:7E:B9:A0:4E
            X509v3 Authority Key Identifier: 
                keyid:12:CD:60:04:D2:A0:80:9E:70:ED:C6:99:B8:7B:2C:C6:52:FD:19:A1
                DirName:/C=US/ST=OH/L=Columbus/O=VikingVPN/OU=MyOrganizationalUnit/CN=VikingVPN CA/name=EasyRSA/emailAddress=me@myhost.mydomain
                serial:CF:35:85:EE:80:BF:2A:3E

            X509v3 Extended Key Usage: 
                TLS Web Client Authentication
            X509v3 Key Usage: 
                Digital Signature
    Signature Algorithm: sha256WithRSAEncryption
         6c:c1:a7:89:40:fd:87:f1:1c:4b:fe:a2:74:5d:59:1b:2e:7e:
         1c:55:a8:0c:b0:45:a2:a7:16:4c:30:80:bd:06:78:f4:c7:5a:
         b7:3a:61:f6:4b:30:e2:b0:1d:15:2b:cf:04:cf:bd:5a:0e:cd:
         a6:dd:b1:b8:29:55:af:29:16:71:eb:90:4f:eb:05:6f:dd:a4:
         98:09:22:c6:44:05:7f:15:a3:a4:5b:3f:b0:cb:2e:90:18:4f:
         17:87:ea:34:38:69:87:1b:d7:02:45:bb:c0:67:c5:a6:c4:54:
         67:cb:34:94:a0:d4:9b:75:a6:06:00:4c:f8:39:fb:90:07:81:
         01:0a:3c:25:6a:ac:8e:2e:f8:f4:60:43:75:b0:0c:fd:84:6c:
         57:f0:ab:58:9c:d8:85:9c:9f:42:d5:ee:8c:51:df:a0:75:3b:
         8a:09:2b:bf:df:29:ca:1e:20:42:57:97:c8:44:0e:6c:1a:01:
         7c:af:f1:45:d0:28:18:89:45:a7:9e:43:90:d5:c3:bc:8d:24:
         80:c9:06:5b:ae:90:f3:0e:88:af:f3:a3:67:49:bb:d5:6a:6b:
         03:e4:6a:b6:bd:01:78:08:9a:17:0c:77:e6:1b:eb:8f:cd:7b:
         f7:21:0b:02:2d:32:6a:56:e4:1c:0c:d9:34:7a:dc:2d:b6:44:
         cb:3b:1e:91:a8:4c:ec:f8:be:c7:52:e5:49:11:96:2e:dc:5c:
         d8:6e:53:8d:cc:d0:8b:15:cb:7e:00:35:38:45:e7:12:34:98:
         90:9e:a4:84:82:4d:ab:44:7d:6e:ec:d5:fd:d6:a5:20:2e:7a:
         8d:bc:36:e3:ff:81:60:5a:32:51:f4:29:7e:6a:c6:0b:6c:54:
         bf:b8:3b:28:2f:f7:aa:92:07:13:1a:a2:71:4d:ba:c3:30:b2:
         a7:0f:c3:56:4a:fc:3a:88:90:29:e1:67:2e:8b:3a:9e:dd:ea:
         b3:b6:56:56:fb:ee:02:06:5f:bc:04:ff:66:1d:11:d6:dc:7b:
         c3:2f:54:73:8d:05:d5:22:28:9e:07:d7:28:c6:21:61:df:b5:
         7f:51:04:54:da:5a:16:89:b9:9a:f0:21:b7:ce:67:87:76:a3:
         2d:87:71:ed:a3:fe:cb:bc:c8:7d:03:59:c6:2a:5f:2c:01:1c:
         a9:cf:85:4a:cc:bd:a9:81:e3:c5:99:f4:3c:4f:b3:00:5b:77:
         4f:1c:0f:59:5c:e9:04:6c:94:84:34:26:9b:c3:d1:05:b9:f8:
         1e:95:4e:73:17:71:7a:5b:b1:ee:29:cf:34:3f:9c:c3:75:64:
         70:01:7e:e5:39:44:dd:f4:c0:e3:43:33:a3:93:28:77:cb:20:
         cd:d7:06:24:2d:1a:ca:89
-----BEGIN CERTIFICATE-----
MIIGrTCCBJWgAwIBAgICMlAwDQYJKoZIhvcNAQELBQAwgawxCzAJBgNVBAYTAlVT
MQswCQYDVQQIEwJPSDERMA8GA1UEBxMIQ29sdW1idXMxEjAQBgNVBAoTCVZpa2lu
Z1ZQTjEdMBsGA1UECxMUTXlPcmdhbml6YXRpb25hbFVuaXQxFTATBgNVBAMTDFZp
a2luZ1ZQTiBDQTEQMA4GA1UEKRMHRWFzeVJTQTEhMB8GCSqGSIb3DQEJARYSbWVA
bXlob3N0Lm15ZG9tYWluMB4XDTE4MDQwMjE3NTMxNFoXDTI4MDMzMDE3NTMxNFow
HzEdMBsGA1UEAxMUQ2xpZW50MjcyNUNlcnQ3NjYzNjEwggIiMA0GCSqGSIb3DQEB
AQUAA4ICDwAwggIKAoICAQCYLnqcBo5Em61V/Ws+kZ3T0bdvrFF0EdKcGHD3aVK+
XHlRpoGQxavCXDUYcGP0ObfgoV1UVAVdF3lk+8YwgIkKcaO/mxYfaS9yq7eWkbeZ
2hdz/TsxRrN4Eer9tNkhmSTE4ljn+b3suFgjoc+JWsLRJ2LKOptz9V0SCq6bCZcc
MgcndNaBwEKEbk0NHjq+EOVeO77K94r6FyI0dQ+GIv4GjTEKuExSASk3gchRUkhc
OxqA/2eXfI56yimIqGQm7A71N1IhiAaqWgj7WEk7PAieyIhwG/NRJDxtLiUEruxX
wxmlHBFMRTptImXTI/F1jR879sQEvaRSuHNdD9bF4G9l+TRHUUr1p6MFeg7JI/Rr
rIx9zzXBLP8Bui7JMz+esKUfXGf60pwOI28eRTqxj0w36fuRxZGIlXpN9kbQe081
HyiIxLzTukSjA4wtW3FIcunLUqY/UZY7SVhKUhgTmGH+YYo4TSE5WYxg0pEUIpJA
wa7e9QLytcl2+0WQF2+w10i8ZKaDRDrLMPKYo1yIFFZNvrZjL1thm88Eh+P2+I90
cnOHJy1uQ+qBFuzQWIKpk04Z+1VxnDrbYn1hrIERSFBaeVvqnygwpvxvQ5rwQxXk
nsIVfIM2gwzML+mcriMl+f9srMrVgwDu2AouuxeXeXF0TYfaKDnD+7pveN2GBoN5
NQIDAQABo4IBYzCCAV8wCQYDVR0TBAIwADAtBglghkgBhvhCAQ0EIBYeRWFzeS1S
U0EgR2VuZXJhdGVkIENlcnRpZmljYXRlMB0GA1UdDgQWBBTisnLmXGe1+c4Sm9f8
1EhbfrmgTjCB4QYDVR0jBIHZMIHWgBQSzWAE0qCAnnDtxpm4eyzGUv0ZoaGBsqSB
rzCBrDELMAkGA1UEBhMCVVMxCzAJBgNVBAgTAk9IMREwDwYDVQQHEwhDb2x1bWJ1
czESMBAGA1UEChMJVmlraW5nVlBOMR0wGwYDVQQLExRNeU9yZ2FuaXphdGlvbmFs
VW5pdDEVMBMGA1UEAxMMVmlraW5nVlBOIENBMRAwDgYDVQQpEwdFYXN5UlNBMSEw
HwYJKoZIhvcNAQkBFhJtZUBteWhvc3QubXlkb21haW6CCQDPNYXugL8qPjATBgNV
HSUEDDAKBggrBgEFBQcDAjALBgNVHQ8EBAMCB4AwDQYJKoZIhvcNAQELBQADggIB
AGzBp4lA/YfxHEv+onRdWRsufhxVqAywRaKnFkwwgL0GePTHWrc6YfZLMOKwHRUr
zwTPvVoOzabdsbgpVa8pFnHrkE/rBW/dpJgJIsZEBX8Vo6RbP7DLLpAYTxeH6jQ4
aYcb1wJFu8BnxabEVGfLNJSg1Jt1pgYATPg5+5AHgQEKPCVqrI4u+PRgQ3WwDP2E
bFfwq1ic2IWcn0LV7oxR36B1O4oJK7/fKcoeIEJXl8hEDmwaAXyv8UXQKBiJRaee
Q5DVw7yNJIDJBluukPMOiK/zo2dJu9VqawPkara9AXgImhcMd+Yb64/Ne/chCwIt
MmpW5BwM2TR63C22RMs7HpGoTOz4vsdS5UkRli7cXNhuU43M0IsVy34ANThF5xI0
mJCepISCTatEfW7s1f3WpSAueo28NuP/gWBaMlH0KX5qxgtsVL+4Oygv96qSBxMa
onFNusMwsqcPw1ZK/DqIkCnhZy6LOp7d6rO2Vlb77gIGX7wE/2YdEdbce8MvVHON
BdUiKJ4H1yjGIWHftX9RBFTaWhaJuZrwIbfOZ4d2oy2Hce2j/su8yH0DWcYqXywB
HKnPhUrMvamB48WZ9DxPswBbd08cD1lc6QRslIQ0JpvD0QW5+B6VTnMXcXpbse4p
zzQ/nMN1ZHABfuU5RN30wONDM6OTKHfLIM3XBiQtGsqJ
-----END CERTIFICATE-----
