Certificate:
    Data:
        Version: 3 (0x2)
        Serial Number: 526 (0x20e)
    Signature Algorithm: md5WithRSAEncryption
        Issuer: C=US, ST=OH, L=Columbus, O=VikingVPN, OU=MyOrganizationalUnit, CN=VikingVPN CA/name=EasyRSA/emailAddress=me@myhost.mydomain
        Validity
            Not Before: Dec  5 15:32:03 2013 GMT
            Not After : Dec  3 15:32:03 2023 GMT
        Subject: CN=Client219Certc577d5
        Subject Public Key Info:
            Public Key Algorithm: rsaEncryption
                Public-Key: (4096 bit)
                Modulus:
                    00:b0:f8:96:48:86:01:e0:5e:c5:3f:30:f0:a4:f9:
                    3e:73:49:25:10:2f:76:f9:cd:6b:42:33:8d:0a:c9:
                    a4:9d:44:72:28:e5:d2:0d:0e:71:b0:38:ab:0d:03:
                    9e:43:35:3f:51:e3:68:4c:cb:bd:cb:01:d6:de:95:
                    5b:67:d4:87:de:09:2e:19:80:16:59:95:87:84:cc:
                    72:f0:85:34:48:cc:6e:f4:e7:c5:ad:6e:5a:e8:69:
                    24:40:ba:4d:f1:e6:8a:7f:21:af:7b:71:20:b3:41:
                    7a:83:bb:ca:5c:ac:c8:74:0b:75:00:94:bc:14:2b:
                    6f:33:15:57:47:ea:1d:b4:92:dc:a2:8c:be:e8:5b:
                    88:53:39:0f:55:ee:9f:90:96:dc:de:ca:66:a2:83:
                    31:78:ba:95:4f:1f:68:77:4b:68:47:84:56:74:f6:
                    6f:25:9c:20:ce:59:89:5f:82:a1:a7:86:12:01:2f:
                    d8:f0:55:af:eb:b9:81:d4:bf:00:ec:61:ee:6b:86:
                    9c:a9:b6:af:31:cd:8f:e5:97:e9:02:04:1a:76:2f:
                    f2:f8:54:c3:47:22:37:69:38:1b:57:17:9c:90:15:
                    dd:76:b2:23:18:7c:24:7a:46:bc:1b:a7:2c:33:47:
                    dc:d4:68:7b:cd:84:34:0b:76:38:db:20:ce:a1:3d:
                    73:43:17:13:bc:27:33:5b:8e:f9:e0:75:7d:8a:3c:
                    1c:3a:a5:49:71:39:06:1d:fc:ae:1d:45:27:6b:df:
                    de:c8:b6:ae:c7:9a:47:f3:82:3f:74:2c:12:cc:58:
                    20:9d:32:57:ec:cd:fb:04:80:06:a7:2a:98:b0:85:
                    17:1a:86:9c:a7:18:bb:b6:22:b4:08:5a:14:28:f4:
                    1a:92:fc:7b:3e:d5:6e:17:84:c3:49:31:52:be:6f:
                    80:d4:71:63:ae:b0:99:d6:82:11:fc:20:02:15:7d:
                    65:1a:14:0e:a5:50:0e:d1:09:be:62:f1:b3:cf:73:
                    80:88:39:ec:8d:f5:ef:1e:43:d7:ea:c8:70:04:fb:
                    0e:87:6b:b1:c1:54:ba:7e:8e:02:92:1d:03:bc:7f:
                    c5:36:3d:59:45:7d:bc:92:81:ce:ba:0d:17:36:6f:
                    f2:0c:cf:88:ae:1a:96:90:8e:c8:1c:20:37:da:28:
                    1f:38:ab:8c:f5:43:25:fa:c1:79:ba:c6:4e:55:cc:
                    a2:34:5f:1c:c0:21:a8:10:48:80:33:4f:09:7b:28:
                    8f:f5:90:f5:87:32:6f:7c:bc:05:9d:c9:88:d3:40:
                    84:e9:f7:82:ba:84:07:6f:63:c0:0a:f7:b9:45:7c:
                    22:8b:11:97:a7:6c:16:18:43:78:ca:97:6f:86:31:
                    4c:53:0f
                Exponent: 65537 (0x10001)
        X509v3 extensions:
            X509v3 Basic Constraints: 
                CA:FALSE
            Netscape Comment: 
                Easy-RSA Generated Certificate
            X509v3 Subject Key Identifier: 
                CD:C4:1E:6B:EC:91:08:32:FE:28:64:61:6B:C9:20:0B:97:63:06:42
            X509v3 Authority Key Identifier: 
                keyid:12:CD:60:04:D2:A0:80:9E:70:ED:C6:99:B8:7B:2C:C6:52:FD:19:A1
                DirName:/C=US/ST=OH/L=Columbus/O=VikingVPN/OU=MyOrganizationalUnit/CN=VikingVPN CA/name=EasyRSA/emailAddress=me@myhost.mydomain
                serial:CF:35:85:EE:80:BF:2A:3E

            X509v3 Extended Key Usage: 
                TLS Web Client Authentication
            X509v3 Key Usage: 
                Digital Signature
    Signature Algorithm: md5WithRSAEncryption
         57:17:11:79:b6:fc:32:f3:bf:71:20:e1:fb:b5:ba:cf:4a:b1:
         97:48:49:5d:54:69:76:db:62:be:42:10:cf:03:5b:42:5f:92:
         4d:8a:1d:f2:fb:ec:a4:20:71:ce:19:c7:7b:59:df:0a:79:2b:
         4d:92:4b:d2:d4:a6:d1:5e:61:b2:8d:fb:14:37:66:b6:66:ae:
         d8:33:b0:6c:2f:58:3d:38:03:0f:7f:38:c4:d9:2c:e4:89:26:
         7d:64:b1:50:72:1a:79:7e:bd:f7:7f:4a:01:6c:f1:5f:74:65:
         92:7b:fe:eb:e9:52:aa:6f:b3:f3:fe:9e:98:11:28:ec:c5:af:
         ff:e6:11:49:d4:b7:a4:3d:f9:75:40:48:b2:ea:a5:9e:d4:86:
         e0:a6:a0:2f:23:82:4e:0d:a1:93:a6:b1:f2:a8:a7:59:08:93:
         99:d7:a0:50:85:0d:48:29:13:80:b7:0a:93:0c:0a:b5:dc:e8:
         5e:9b:5b:38:ee:f3:e1:43:58:22:f5:99:36:26:7c:88:f3:d9:
         4d:28:03:04:14:7d:d3:a4:05:d3:85:4e:ed:6e:4a:a8:01:bc:
         74:3a:a9:72:58:3a:36:93:24:fa:f8:ba:07:b0:f6:2f:bd:31:
         48:d9:71:4a:9f:e7:0e:8d:29:34:c7:25:ae:f7:9b:24:2d:03:
         d2:f4:3f:13:16:bf:60:d7:a0:d6:8d:d1:0f:48:03:b5:83:d1:
         81:ff:fd:f6:a2:05:e6:8c:b7:92:e7:f3:79:65:3f:f8:b9:3b:
         8b:0b:19:73:d9:f1:fd:44:f9:b9:08:18:65:7f:bb:55:44:02:
         c7:52:53:92:6e:5d:33:e3:bf:9f:68:7a:c3:eb:b2:2d:99:54:
         c9:33:0b:d6:8e:17:62:e2:0e:38:00:68:9b:ba:a5:25:96:42:
         74:20:b1:7d:f6:fb:5d:c7:b2:a2:60:60:bc:1c:52:f4:f8:85:
         49:c1:b0:b4:a3:e8:c4:63:30:8f:01:42:8b:b3:9b:37:33:8f:
         ad:8e:d3:e9:7a:41:e2:81:2e:39:ad:d0:d2:1c:6b:ac:11:53:
         c5:7e:42:94:93:81:16:a3:98:6b:23:7c:b7:e4:fd:9b:cc:f9:
         12:21:12:ae:e3:e5:05:bd:dc:c2:7c:19:de:47:68:61:b0:07:
         40:c0:3f:6f:76:4f:9a:f2:e0:0a:39:a3:a0:fc:35:65:98:a6:
         d3:c7:5a:57:54:50:2e:5a:ec:35:04:38:8d:e6:e8:32:3a:b0:
         85:f1:c9:5f:8a:48:11:f8:b5:d6:6a:8f:ea:70:fb:55:cc:b7:
         30:03:ce:43:02:42:46:22:ac:59:57:d2:3f:b8:75:4f:a6:e0:
         7a:73:a3:22:47:8a:36:7e
-----BEGIN CERTIFICATE-----
MIIGrDCCBJSgAwIBAgICAg4wDQYJKoZIhvcNAQEEBQAwgawxCzAJBgNVBAYTAlVT
MQswCQYDVQQIEwJPSDERMA8GA1UEBxMIQ29sdW1idXMxEjAQBgNVBAoTCVZpa2lu
Z1ZQTjEdMBsGA1UECxMUTXlPcmdhbml6YXRpb25hbFVuaXQxFTATBgNVBAMTDFZp
a2luZ1ZQTiBDQTEQMA4GA1UEKRMHRWFzeVJTQTEhMB8GCSqGSIb3DQEJARYSbWVA
bXlob3N0Lm15ZG9tYWluMB4XDTEzMTIwNTE1MzIwM1oXDTIzMTIwMzE1MzIwM1ow
HjEcMBoGA1UEAxMTQ2xpZW50MjE5Q2VydGM1NzdkNTCCAiIwDQYJKoZIhvcNAQEB
BQADggIPADCCAgoCggIBALD4lkiGAeBexT8w8KT5PnNJJRAvdvnNa0IzjQrJpJ1E
cijl0g0OcbA4qw0DnkM1P1HjaEzLvcsB1t6VW2fUh94JLhmAFlmVh4TMcvCFNEjM
bvTnxa1uWuhpJEC6TfHmin8hr3txILNBeoO7ylysyHQLdQCUvBQrbzMVV0fqHbSS
3KKMvuhbiFM5D1Xun5CW3N7KZqKDMXi6lU8faHdLaEeEVnT2byWcIM5ZiV+CoaeG
EgEv2PBVr+u5gdS/AOxh7muGnKm2rzHNj+WX6QIEGnYv8vhUw0ciN2k4G1cXnJAV
3XayIxh8JHpGvBunLDNH3NRoe82ENAt2ONsgzqE9c0MXE7wnM1uO+eB1fYo8HDql
SXE5Bh38rh1FJ2vf3si2rseaR/OCP3QsEsxYIJ0yV+zN+wSABqcqmLCFFxqGnKcY
u7YitAhaFCj0GpL8ez7VbheEw0kxUr5vgNRxY66wmdaCEfwgAhV9ZRoUDqVQDtEJ
vmLxs89zgIg57I317x5D1+rIcAT7DodrscFUun6OApIdA7x/xTY9WUV9vJKBzroN
FzZv8gzPiK4alpCOyBwgN9ooHzirjPVDJfrBebrGTlXMojRfHMAhqBBIgDNPCXso
j/WQ9Ycyb3y8BZ3JiNNAhOn3grqEB29jwAr3uUV8IosRl6dsFhhDeMqXb4YxTFMP
AgMBAAGjggFjMIIBXzAJBgNVHRMEAjAAMC0GCWCGSAGG+EIBDQQgFh5FYXN5LVJT
QSBHZW5lcmF0ZWQgQ2VydGlmaWNhdGUwHQYDVR0OBBYEFM3EHmvskQgy/ihkYWvJ
IAuXYwZCMIHhBgNVHSMEgdkwgdaAFBLNYATSoICecO3Gmbh7LMZS/RmhoYGypIGv
MIGsMQswCQYDVQQGEwJVUzELMAkGA1UECBMCT0gxETAPBgNVBAcTCENvbHVtYnVz
MRIwEAYDVQQKEwlWaWtpbmdWUE4xHTAbBgNVBAsTFE15T3JnYW5pemF0aW9uYWxV
bml0MRUwEwYDVQQDEwxWaWtpbmdWUE4gQ0ExEDAOBgNVBCkTB0Vhc3lSU0ExITAf
BgkqhkiG9w0BCQEWEm1lQG15aG9zdC5teWRvbWFpboIJAM81he6Avyo+MBMGA1Ud
JQQMMAoGCCsGAQUFBwMCMAsGA1UdDwQEAwIHgDANBgkqhkiG9w0BAQQFAAOCAgEA
VxcRebb8MvO/cSDh+7W6z0qxl0hJXVRpdttivkIQzwNbQl+STYod8vvspCBxzhnH
e1nfCnkrTZJL0tSm0V5hso37FDdmtmau2DOwbC9YPTgDD384xNks5IkmfWSxUHIa
eX69939KAWzxX3Rlknv+6+lSqm+z8/6emBEo7MWv/+YRSdS3pD35dUBIsuqlntSG
4KagLyOCTg2hk6ax8qinWQiTmdegUIUNSCkTgLcKkwwKtdzoXptbOO7z4UNYIvWZ
NiZ8iPPZTSgDBBR906QF04VO7W5KqAG8dDqpclg6NpMk+vi6B7D2L70xSNlxSp/n
Do0pNMclrvebJC0D0vQ/Exa/YNeg1o3RD0gDtYPRgf/99qIF5oy3kufzeWU/+Lk7
iwsZc9nx/UT5uQgYZX+7VUQCx1JTkm5dM+O/n2h6w+uyLZlUyTML1o4XYuIOOABo
m7qlJZZCdCCxffb7XceyomBgvBxS9PiFScGwtKPoxGMwjwFCi7ObNzOPrY7T6XpB
4oEuOa3Q0hxrrBFTxX5ClJOBFqOYayN8t+T9m8z5EiESruPlBb3cwnwZ3kdoYbAH
QMA/b3ZPmvLgCjmjoPw1ZZim08daV1RQLlrsNQQ4jeboMjqwhfHJX4pIEfi11mqP
6nD7Vcy3MAPOQwJCRiKsWVfSP7h1T6bgenOjIkeKNn4=
-----END CERTIFICATE-----
