Certificate:
    Data:
        Version: 3 (0x2)
        Serial Number: 1773 (0x6ed)
    Signature Algorithm: md5WithRSAEncryption
        Issuer: C=US, ST=OH, L=Columbus, O=VikingVPN, OU=MyOrganizationalUnit, CN=VikingVPN CA/name=EasyRSA/emailAddress=me@myhost.mydomain
        Validity
            Not Before: Apr 30 10:25:56 2014 GMT
            Not After : Apr 27 10:25:56 2024 GMT
        Subject: CN=Client623Cert32860d
        Subject Public Key Info:
            Public Key Algorithm: rsaEncryption
                Public-Key: (4096 bit)
                Modulus:
                    00:b4:b8:48:f0:93:28:bf:11:9e:2b:54:c2:ef:fe:
                    cd:9a:43:2c:d8:89:9e:84:28:9e:15:80:98:d9:33:
                    f5:88:65:ea:6a:38:df:4e:1d:25:45:db:e3:97:66:
                    aa:4b:16:7a:43:6f:b7:ac:4e:c4:bc:61:c5:ef:3d:
                    7d:40:e4:e8:36:01:de:8a:77:6d:16:7f:95:8d:b5:
                    e5:8b:a9:89:96:8f:75:24:bd:a3:d6:d0:bc:b9:e0:
                    62:bc:4b:17:74:0f:76:62:5d:82:6a:a5:b3:9e:e7:
                    94:2e:87:a7:ba:83:91:37:5e:6e:d1:80:b4:57:3f:
                    05:bb:ca:f1:96:e5:64:4e:c8:0b:7a:14:08:16:e8:
                    21:df:6b:68:e6:17:cc:8d:0b:1b:3e:83:ff:33:1d:
                    42:7f:5e:57:c7:5a:98:28:b1:17:c4:09:e3:fc:f5:
                    c6:11:79:d1:b3:d6:84:ff:4c:1d:60:28:88:d5:1f:
                    47:a0:df:6c:cb:6b:f4:f2:2f:7a:26:51:ff:6a:d9:
                    c0:ac:e9:ef:90:55:9e:3a:2d:79:58:41:29:8e:6c:
                    69:18:47:71:c1:1a:f6:65:08:79:bb:8b:e1:82:2c:
                    8b:49:b9:01:01:c5:d6:5e:ba:fa:8f:64:4c:6e:48:
                    64:bb:21:62:a9:f6:2f:a9:48:0f:63:38:ea:bd:76:
                    9e:a1:f1:d1:75:d1:7b:48:6b:da:a4:c3:84:d1:37:
                    d8:0b:97:f2:9b:de:aa:ce:7e:60:bc:09:d1:42:7a:
                    61:44:23:0c:66:a8:c5:1d:18:43:dd:37:9c:73:29:
                    a8:00:73:87:3f:88:ce:75:f5:44:c1:4e:9e:b9:6b:
                    ac:e9:b7:eb:22:9c:9f:44:bc:ff:59:56:38:3b:10:
                    19:0a:f8:6f:23:29:b4:8f:43:b8:cd:04:60:20:56:
                    20:d8:ca:0c:a5:b7:4c:f5:5f:15:b8:e1:f0:99:5c:
                    cb:58:41:70:7e:5c:26:42:be:a5:8b:1e:cd:d1:5b:
                    09:ed:0d:70:f6:56:93:65:9c:f6:12:74:44:f5:1a:
                    a4:b5:ce:0d:23:28:95:ab:8e:10:0e:28:c0:5a:e7:
                    41:5c:61:09:9b:9b:54:ce:83:fc:41:b6:c7:d7:a1:
                    2d:50:0c:d4:03:da:08:5d:9f:77:9d:6c:6c:19:87:
                    56:57:31:69:24:04:ca:ea:77:60:bf:86:f7:07:57:
                    07:7b:ff:10:83:6e:d2:0b:0c:ec:e5:ae:e1:5a:d6:
                    59:4c:93:02:2c:6d:b3:6b:69:14:d5:dd:58:15:1f:
                    4a:5c:a4:73:95:ee:59:b3:3c:14:8c:7f:38:bb:77:
                    fd:8d:ba:75:71:22:e1:53:c1:7d:70:9a:c7:01:b0:
                    47:df:ef
                Exponent: 65537 (0x10001)
        X509v3 extensions:
            X509v3 Basic Constraints: 
                CA:FALSE
            Netscape Comment: 
                Easy-RSA Generated Certificate
            X509v3 Subject Key Identifier: 
                9F:2C:A2:44:F9:B1:B9:C9:53:F9:02:C8:6B:FD:B6:83:5B:FF:AE:A1
            X509v3 Authority Key Identifier: 
                keyid:12:CD:60:04:D2:A0:80:9E:70:ED:C6:99:B8:7B:2C:C6:52:FD:19:A1
                DirName:/C=US/ST=OH/L=Columbus/O=VikingVPN/OU=MyOrganizationalUnit/CN=VikingVPN CA/name=EasyRSA/emailAddress=me@myhost.mydomain
                serial:CF:35:85:EE:80:BF:2A:3E

            X509v3 Extended Key Usage: 
                TLS Web Client Authentication
            X509v3 Key Usage: 
                Digital Signature
    Signature Algorithm: md5WithRSAEncryption
         80:1b:bf:ab:d0:37:f9:e9:bd:a1:0a:82:c7:71:3f:52:ab:5e:
         4e:89:c9:8b:ca:30:a4:d7:4a:48:7b:74:23:d4:a8:c3:43:09:
         b7:6e:08:6c:a7:46:bc:96:4c:10:39:a7:02:e3:a7:7f:00:2e:
         f3:16:90:65:5e:8b:6f:02:26:0b:f0:b8:36:ca:07:d9:93:a2:
         0a:f6:66:a3:dd:6e:67:2a:27:34:3f:2e:ee:7a:3c:fb:f1:8c:
         bd:9d:39:d9:e5:6f:f9:20:c6:ae:3f:04:00:49:4e:9b:bf:98:
         93:1e:0b:35:2a:8f:74:52:1a:df:0f:ec:8b:f9:b9:02:eb:d1:
         9b:66:fb:75:e2:a0:33:d7:39:bf:e9:19:e5:58:5e:c5:1b:f4:
         c1:bc:c3:41:ed:f6:87:58:33:72:d5:2c:38:e0:0c:1e:62:d2:
         26:bf:7c:f2:05:ae:58:4d:c5:e4:96:25:63:79:b0:37:31:73:
         75:53:67:ef:63:91:ae:9b:e8:38:76:21:04:9f:a1:e0:b8:a1:
         7b:6d:c1:f3:b2:b7:ea:b9:be:83:00:df:9e:c9:b8:9f:4e:ba:
         98:fb:49:58:d1:54:74:80:5f:f9:c2:1b:a0:f0:56:6a:55:73:
         1c:2b:ff:1b:98:0f:6a:82:94:fb:24:5d:d0:15:4e:07:ec:f2:
         d7:5c:e7:c0:52:f9:63:f5:25:8f:f6:a9:c1:41:ee:02:6b:94:
         d9:6b:ff:e8:af:27:cb:b6:28:e6:f3:7f:76:ec:b6:26:68:5f:
         3a:81:75:76:6a:54:fe:ec:86:b6:41:b9:81:de:56:39:8a:fb:
         0c:21:b5:91:d1:15:d0:86:9c:54:84:3c:1c:c7:3c:f8:18:15:
         b0:a5:1e:f5:75:3a:4b:a6:c7:d9:06:4f:05:c0:c2:0f:97:98:
         f9:c1:4c:ee:16:58:ab:a3:9c:3b:e5:5f:e7:42:5d:0c:0a:06:
         19:44:ff:e7:db:2f:c3:18:86:ba:97:a8:59:7c:ee:d9:c0:25:
         e5:29:ec:80:bd:0e:75:81:bb:08:7b:1b:06:6b:8d:a3:24:0d:
         17:1b:34:5e:d1:f2:d3:da:99:b6:f7:d9:6a:6b:e8:6a:7e:f8:
         2e:c2:2b:76:53:ca:1b:46:7b:d8:6e:7c:b3:ae:4b:24:f7:ef:
         80:4f:36:1e:2d:df:a8:19:39:f0:87:c7:8e:81:21:29:ea:8d:
         47:1b:29:27:81:74:ca:da:1d:13:04:f2:ae:3d:b6:7b:c1:5f:
         95:34:19:3d:36:af:9e:89:7a:d0:f5:71:2e:fa:bd:34:81:98:
         5a:53:02:29:0e:5a:47:09:ea:c3:5d:b6:0f:27:cc:d5:4b:ed:
         f6:92:8f:fb:d7:4f:5c:ac
-----BEGIN CERTIFICATE-----
MIIGrDCCBJSgAwIBAgICBu0wDQYJKoZIhvcNAQEEBQAwgawxCzAJBgNVBAYTAlVT
MQswCQYDVQQIEwJPSDERMA8GA1UEBxMIQ29sdW1idXMxEjAQBgNVBAoTCVZpa2lu
Z1ZQTjEdMBsGA1UECxMUTXlPcmdhbml6YXRpb25hbFVuaXQxFTATBgNVBAMTDFZp
a2luZ1ZQTiBDQTEQMA4GA1UEKRMHRWFzeVJTQTEhMB8GCSqGSIb3DQEJARYSbWVA
bXlob3N0Lm15ZG9tYWluMB4XDTE0MDQzMDEwMjU1NloXDTI0MDQyNzEwMjU1Nlow
HjEcMBoGA1UEAxMTQ2xpZW50NjIzQ2VydDMyODYwZDCCAiIwDQYJKoZIhvcNAQEB
BQADggIPADCCAgoCggIBALS4SPCTKL8RnitUwu/+zZpDLNiJnoQonhWAmNkz9Yhl
6mo4304dJUXb45dmqksWekNvt6xOxLxhxe89fUDk6DYB3op3bRZ/lY215YupiZaP
dSS9o9bQvLngYrxLF3QPdmJdgmqls57nlC6Hp7qDkTdebtGAtFc/BbvK8ZblZE7I
C3oUCBboId9raOYXzI0LGz6D/zMdQn9eV8damCixF8QJ4/z1xhF50bPWhP9MHWAo
iNUfR6DfbMtr9PIveiZR/2rZwKzp75BVnjoteVhBKY5saRhHccEa9mUIebuL4YIs
i0m5AQHF1l66+o9kTG5IZLshYqn2L6lID2M46r12nqHx0XXRe0hr2qTDhNE32AuX
8pveqs5+YLwJ0UJ6YUQjDGaoxR0YQ903nHMpqABzhz+IznX1RMFOnrlrrOm36yKc
n0S8/1lWODsQGQr4byMptI9DuM0EYCBWINjKDKW3TPVfFbjh8Jlcy1hBcH5cJkK+
pYsezdFbCe0NcPZWk2Wc9hJ0RPUapLXODSMolauOEA4owFrnQVxhCZubVM6D/EG2
x9ehLVAM1APaCF2fd51sbBmHVlcxaSQEyup3YL+G9wdXB3v/EINu0gsM7OWu4VrW
WUyTAixts2tpFNXdWBUfSlykc5XuWbM8FIx/OLt3/Y26dXEi4VPBfXCaxwGwR9/v
AgMBAAGjggFjMIIBXzAJBgNVHRMEAjAAMC0GCWCGSAGG+EIBDQQgFh5FYXN5LVJT
QSBHZW5lcmF0ZWQgQ2VydGlmaWNhdGUwHQYDVR0OBBYEFJ8sokT5sbnJU/kCyGv9
toNb/66hMIHhBgNVHSMEgdkwgdaAFBLNYATSoICecO3Gmbh7LMZS/RmhoYGypIGv
MIGsMQswCQYDVQQGEwJVUzELMAkGA1UECBMCT0gxETAPBgNVBAcTCENvbHVtYnVz
MRIwEAYDVQQKEwlWaWtpbmdWUE4xHTAbBgNVBAsTFE15T3JnYW5pemF0aW9uYWxV
bml0MRUwEwYDVQQDEwxWaWtpbmdWUE4gQ0ExEDAOBgNVBCkTB0Vhc3lSU0ExITAf
BgkqhkiG9w0BCQEWEm1lQG15aG9zdC5teWRvbWFpboIJAM81he6Avyo+MBMGA1Ud
JQQMMAoGCCsGAQUFBwMCMAsGA1UdDwQEAwIHgDANBgkqhkiG9w0BAQQFAAOCAgEA
gBu/q9A3+em9oQqCx3E/UqteTonJi8owpNdKSHt0I9Sow0MJt24IbKdGvJZMEDmn
AuOnfwAu8xaQZV6LbwImC/C4NsoH2ZOiCvZmo91uZyonND8u7no8+/GMvZ052eVv
+SDGrj8EAElOm7+Ykx4LNSqPdFIa3w/si/m5AuvRm2b7deKgM9c5v+kZ5VhexRv0
wbzDQe32h1gzctUsOOAMHmLSJr988gWuWE3F5JYlY3mwNzFzdVNn72ORrpvoOHYh
BJ+h4Lihe23B87K36rm+gwDfnsm4n066mPtJWNFUdIBf+cIboPBWalVzHCv/G5gP
aoKU+yRd0BVOB+zy11znwFL5Y/Ulj/apwUHuAmuU2Wv/6K8ny7Yo5vN/duy2Jmhf
OoF1dmpU/uyGtkG5gd5WOYr7DCG1kdEV0IacVIQ8HMc8+BgVsKUe9XU6S6bH2QZP
BcDCD5eY+cFM7hZYq6OcO+Vf50JdDAoGGUT/59svwxiGupeoWXzu2cAl5SnsgL0O
dYG7CHsbBmuNoyQNFxs0XtHy09qZtvfZamvoan74LsIrdlPKG0Z72G58s65LJPfv
gE82Hi3fqBk58IfHjoEhKeqNRxspJ4F0ytodEwTyrj22e8FflTQZPTavnol60PVx
Lvq9NIGYWlMCKQ5aRwnqw122DyfM1Uvt9pKP+9dPXKw=
-----END CERTIFICATE-----
