Certificate:
    Data:
        Version: 3 (0x2)
        Serial Number: 7180 (0x1c0c)
    Signature Algorithm: md5WithRSAEncryption
        Issuer: C=US, ST=OH, L=Columbus, O=VikingVPN, OU=MyOrganizationalUnit, CN=VikingVPN CA/name=EasyRSA/emailAddress=me@myhost.mydomain
        Validity
            Not Before: Feb 13 02:45:33 2016 GMT
            Not After : Feb 10 02:45:33 2026 GMT
        Subject: CN=Client2171Cert2a833b
        Subject Public Key Info:
            Public Key Algorithm: rsaEncryption
                Public-Key: (4096 bit)
                Modulus:
                    00:ac:0a:71:b7:e5:54:06:89:41:53:6c:a7:bd:00:
                    42:9e:9e:47:94:09:db:e4:56:a0:cc:51:6b:1f:56:
                    af:b7:64:89:59:1c:32:03:94:29:1b:10:9f:8e:cd:
                    36:74:73:45:21:09:ed:c7:f8:9f:f8:11:37:8f:40:
                    70:aa:9c:03:f3:59:07:dc:01:df:cf:4f:2d:dd:0f:
                    a0:65:75:38:e7:38:58:68:2e:8c:d3:20:49:53:d7:
                    b9:50:69:88:da:ce:7d:35:eb:86:35:60:ec:61:8c:
                    98:97:ae:f6:51:c8:d7:b4:39:f2:62:9d:ae:74:0d:
                    27:ec:bf:3e:91:5d:9b:dd:04:fc:8b:95:61:04:42:
                    b0:58:35:42:a1:41:28:b8:14:7a:b8:76:3e:cf:e0:
                    77:39:77:36:32:54:10:a0:a1:74:0f:56:16:bc:ef:
                    68:82:d8:8f:72:3f:3b:bd:8d:a5:f6:9c:92:ad:0a:
                    04:ef:bc:99:f7:b9:6e:53:68:ce:37:f3:56:7a:a2:
                    1f:26:95:c5:8d:74:d0:dd:a3:68:3f:0a:17:ae:cc:
                    70:c4:22:9c:09:3c:a0:b9:19:0b:83:78:54:9f:52:
                    c4:d6:6b:3a:1c:9f:8d:48:8b:d6:45:11:03:1f:8a:
                    2e:a7:91:89:f3:aa:14:cf:83:d8:c0:92:22:ea:24:
                    29:a9:8d:51:1d:d3:b4:5a:01:b1:d7:f1:dc:da:80:
                    f8:a1:16:ad:ff:38:72:79:52:5a:46:53:7f:78:73:
                    06:90:1c:9e:45:a6:c6:0a:5c:e8:6a:a9:98:97:58:
                    4b:3b:4d:c1:52:28:29:4c:b4:16:2b:d8:4b:05:f4:
                    21:6f:91:a6:f4:59:10:20:6e:13:c8:c1:b0:e1:75:
                    ea:ab:08:d0:9c:ac:cf:69:b1:c2:c0:17:88:77:14:
                    94:48:dd:9d:f1:b8:0f:20:07:74:c8:c4:f2:2a:5e:
                    b1:93:52:4c:d8:9d:7e:fe:13:6f:0f:d3:54:7e:6f:
                    54:c9:11:15:5c:e9:c7:7a:8e:52:33:1e:2a:d4:8f:
                    92:11:3f:d6:c9:00:29:50:ae:a8:b9:89:b8:31:2d:
                    16:8a:75:88:d0:de:e7:f9:45:09:e2:4e:7a:7d:43:
                    87:ad:b8:51:ed:2c:e7:f1:b8:46:7c:e9:67:07:83:
                    fb:6f:ae:b7:11:52:69:7b:5b:d8:00:84:ce:28:ff:
                    88:5a:df:b1:31:49:0c:8e:f8:60:9b:91:84:cd:d6:
                    c3:19:71:6c:62:75:30:38:05:5a:fb:e8:b8:f2:54:
                    0c:0a:c2:c7:4a:10:2a:d9:18:7a:1d:d0:27:17:ac:
                    08:61:46:fe:57:0f:0f:5a:e7:92:a6:e8:d8:5f:89:
                    b0:31:25
                Exponent: 65537 (0x10001)
        X509v3 extensions:
            X509v3 Basic Constraints: 
                CA:FALSE
            Netscape Comment: 
                Easy-RSA Generated Certificate
            X509v3 Subject Key Identifier: 
                D7:16:D0:2A:C4:0B:AA:91:3C:4E:05:CF:04:71:B5:1B:44:F5:62:BC
            X509v3 Authority Key Identifier: 
                keyid:12:CD:60:04:D2:A0:80:9E:70:ED:C6:99:B8:7B:2C:C6:52:FD:19:A1
                DirName:/C=US/ST=OH/L=Columbus/O=VikingVPN/OU=MyOrganizationalUnit/CN=VikingVPN CA/name=EasyRSA/emailAddress=me@myhost.mydomain
                serial:CF:35:85:EE:80:BF:2A:3E

            X509v3 Extended Key Usage: 
                TLS Web Client Authentication
            X509v3 Key Usage: 
                Digital Signature
    Signature Algorithm: md5WithRSAEncryption
         df:ec:2d:6f:75:2d:c9:3d:4b:e3:2c:63:2b:ae:99:6c:44:29:
         1b:43:da:1d:dc:72:5a:ad:1c:75:8a:0c:d1:90:dc:86:01:d4:
         e9:2d:39:34:ba:33:af:b1:06:6d:e2:6c:b1:11:66:a7:81:4a:
         b7:13:1c:c3:7f:b4:a3:40:b5:ee:fb:f0:66:37:20:98:73:f5:
         ab:c7:df:35:b1:f3:9c:b2:b1:c5:0e:49:f7:2d:61:5d:48:5a:
         8d:ab:a3:f4:ab:75:62:3d:87:b4:f6:e8:37:06:bd:94:54:36:
         c5:8a:6e:37:c3:b1:64:11:76:3a:ad:a6:5e:92:a6:47:6d:71:
         41:39:f9:46:ed:be:42:42:84:89:a1:9c:68:1e:de:7d:73:9d:
         84:c0:28:c5:f9:dd:89:7f:04:f0:49:11:55:80:ac:d1:32:70:
         15:64:55:4b:20:1c:10:1a:4d:9b:f1:4b:0c:e3:eb:87:66:8c:
         9d:81:cf:98:79:a4:ce:fd:a5:f6:b4:8e:ed:f0:e0:25:f6:30:
         8b:48:ad:54:b5:8f:f3:4c:e3:2c:30:7f:0c:30:95:91:82:62:
         b2:46:ec:b7:a3:5e:ab:cf:81:7e:96:39:d0:2f:a0:38:f4:90:
         70:11:f8:1b:88:5e:35:d3:84:66:1e:b3:b5:1b:da:7f:9e:26:
         44:ae:2d:97:57:4d:01:f5:48:ab:0b:c4:6d:f3:1f:95:05:14:
         0a:86:ce:db:6b:18:dc:ff:a6:88:62:ab:90:78:1e:84:9d:0f:
         75:7b:0e:ce:af:76:3a:8c:d0:4f:d3:50:6f:58:d3:59:9a:ad:
         43:c5:aa:9e:69:8a:c5:42:e6:6a:d2:86:00:c9:c8:fb:dc:63:
         a4:f3:09:64:5d:62:97:88:e8:10:1c:ea:13:2f:60:3d:27:94:
         3e:e6:8e:35:7f:19:73:20:0c:b7:ee:76:f3:88:0d:c8:31:b6:
         2e:d9:3a:9e:9f:6a:32:c0:0b:57:86:7e:4d:31:c4:c7:84:5a:
         3d:b4:71:20:2d:7a:6a:2b:e7:3d:d7:fd:91:13:35:bd:92:73:
         e1:93:a1:3f:1b:bd:9b:e5:29:47:dd:9e:46:10:30:e9:96:b6:
         a5:98:99:ec:5a:7e:1b:0a:54:6e:9f:f1:32:8d:de:35:39:ed:
         ec:fd:18:9b:b5:83:54:e8:ac:7d:27:73:10:79:92:67:d5:63:
         88:eb:19:71:a6:84:09:e2:b8:fb:ca:2d:cc:ef:3b:01:7f:b1:
         9a:fe:55:5c:d3:32:2f:98:b5:91:04:58:da:1f:b3:45:2f:63:
         76:a9:a8:d9:3a:3a:71:c7:8c:a8:44:9b:85:0c:60:b1:58:90:
         14:26:cb:5c:89:16:b7:96
-----BEGIN CERTIFICATE-----
MIIGrTCCBJWgAwIBAgICHAwwDQYJKoZIhvcNAQEEBQAwgawxCzAJBgNVBAYTAlVT
MQswCQYDVQQIEwJPSDERMA8GA1UEBxMIQ29sdW1idXMxEjAQBgNVBAoTCVZpa2lu
Z1ZQTjEdMBsGA1UECxMUTXlPcmdhbml6YXRpb25hbFVuaXQxFTATBgNVBAMTDFZp
a2luZ1ZQTiBDQTEQMA4GA1UEKRMHRWFzeVJTQTEhMB8GCSqGSIb3DQEJARYSbWVA
bXlob3N0Lm15ZG9tYWluMB4XDTE2MDIxMzAyNDUzM1oXDTI2MDIxMDAyNDUzM1ow
HzEdMBsGA1UEAxMUQ2xpZW50MjE3MUNlcnQyYTgzM2IwggIiMA0GCSqGSIb3DQEB
AQUAA4ICDwAwggIKAoICAQCsCnG35VQGiUFTbKe9AEKenkeUCdvkVqDMUWsfVq+3
ZIlZHDIDlCkbEJ+OzTZ0c0UhCe3H+J/4ETePQHCqnAPzWQfcAd/PTy3dD6BldTjn
OFhoLozTIElT17lQaYjazn0164Y1YOxhjJiXrvZRyNe0OfJina50DSfsvz6RXZvd
BPyLlWEEQrBYNUKhQSi4FHq4dj7P4Hc5dzYyVBCgoXQPVha872iC2I9yPzu9jaX2
nJKtCgTvvJn3uW5TaM4381Z6oh8mlcWNdNDdo2g/CheuzHDEIpwJPKC5GQuDeFSf
UsTWazocn41Ii9ZFEQMfii6nkYnzqhTPg9jAkiLqJCmpjVEd07RaAbHX8dzagPih
Fq3/OHJ5UlpGU394cwaQHJ5FpsYKXOhqqZiXWEs7TcFSKClMtBYr2EsF9CFvkab0
WRAgbhPIwbDhdeqrCNCcrM9pscLAF4h3FJRI3Z3xuA8gB3TIxPIqXrGTUkzYnX7+
E28P01R+b1TJERVc6cd6jlIzHirUj5IRP9bJAClQrqi5ibgxLRaKdYjQ3uf5RQni
Tnp9Q4etuFHtLOfxuEZ86WcHg/tvrrcRUml7W9gAhM4o/4ha37ExSQyO+GCbkYTN
1sMZcWxidTA4BVr76LjyVAwKwsdKECrZGHod0CcXrAhhRv5XDw9a55Km6NhfibAx
JQIDAQABo4IBYzCCAV8wCQYDVR0TBAIwADAtBglghkgBhvhCAQ0EIBYeRWFzeS1S
U0EgR2VuZXJhdGVkIENlcnRpZmljYXRlMB0GA1UdDgQWBBTXFtAqxAuqkTxOBc8E
cbUbRPVivDCB4QYDVR0jBIHZMIHWgBQSzWAE0qCAnnDtxpm4eyzGUv0ZoaGBsqSB
rzCBrDELMAkGA1UEBhMCVVMxCzAJBgNVBAgTAk9IMREwDwYDVQQHEwhDb2x1bWJ1
czESMBAGA1UEChMJVmlraW5nVlBOMR0wGwYDVQQLExRNeU9yZ2FuaXphdGlvbmFs
VW5pdDEVMBMGA1UEAxMMVmlraW5nVlBOIENBMRAwDgYDVQQpEwdFYXN5UlNBMSEw
HwYJKoZIhvcNAQkBFhJtZUBteWhvc3QubXlkb21haW6CCQDPNYXugL8qPjATBgNV
HSUEDDAKBggrBgEFBQcDAjALBgNVHQ8EBAMCB4AwDQYJKoZIhvcNAQEEBQADggIB
AN/sLW91Lck9S+MsYyuumWxEKRtD2h3cclqtHHWKDNGQ3IYB1OktOTS6M6+xBm3i
bLERZqeBSrcTHMN/tKNAte778GY3IJhz9avH3zWx85yyscUOSfctYV1IWo2ro/Sr
dWI9h7T26DcGvZRUNsWKbjfDsWQRdjqtpl6SpkdtcUE5+UbtvkJChImhnGge3n1z
nYTAKMX53Yl/BPBJEVWArNEycBVkVUsgHBAaTZvxSwzj64dmjJ2Bz5h5pM79pfa0
ju3w4CX2MItIrVS1j/NM4ywwfwwwlZGCYrJG7LejXqvPgX6WOdAvoDj0kHAR+BuI
XjXThGYes7Ub2n+eJkSuLZdXTQH1SKsLxG3zH5UFFAqGzttrGNz/pohiq5B4HoSd
D3V7Ds6vdjqM0E/TUG9Y01marUPFqp5pisVC5mrShgDJyPvcY6TzCWRdYpeI6BAc
6hMvYD0nlD7mjjV/GXMgDLfudvOIDcgxti7ZOp6fajLAC1eGfk0xxMeEWj20cSAt
emor5z3X/ZETNb2Sc+GToT8bvZvlKUfdnkYQMOmWtqWYmexafhsKVG6f8TKN3jU5
7ez9GJu1g1TorH0ncxB5kmfVY4jrGXGmhAniuPvKLczvOwF/sZr+VVzTMi+YtZEE
WNofs0UvY3apqNk6OnHHjKhEm4UMYLFYkBQmy1yJFreW
-----END CERTIFICATE-----
