Certificate:
    Data:
        Version: 3 (0x2)
        Serial Number: 8744 (0x2228)
    Signature Algorithm: sha256WithRSAEncryption
        Issuer: C=US, ST=OH, L=Columbus, O=VikingVPN, OU=MyOrganizationalUnit, CN=VikingVPN CA/name=EasyRSA/emailAddress=me@myhost.mydomain
        Validity
            Not Before: Aug 12 06:28:31 2016 GMT
            Not After : Aug 10 06:28:31 2026 GMT
        Subject: CN=Client2464Cert4ce60b
        Subject Public Key Info:
            Public Key Algorithm: rsaEncryption
                Public-Key: (4096 bit)
                Modulus:
                    00:b1:59:16:62:47:d6:75:60:3b:85:a5:73:ea:d7:
                    5f:8d:8e:43:a2:41:a6:71:88:22:20:9f:86:b3:43:
                    f5:4c:0d:1a:53:3f:07:cc:da:8a:10:be:f7:50:0e:
                    58:43:a8:0d:9c:95:57:e0:90:4e:57:9b:db:13:c6:
                    6e:b9:ce:02:39:41:4a:38:28:69:d7:0d:1c:4f:14:
                    5b:16:c0:ca:44:81:cc:14:9c:8e:c4:48:dc:cb:85:
                    f4:03:d9:a7:2d:12:22:a9:ff:ee:15:97:97:e3:04:
                    47:b2:e8:ad:ee:a6:a1:20:84:ec:b8:4a:65:ad:82:
                    e7:b8:fa:71:6e:01:98:46:7b:8c:54:e6:1a:08:b6:
                    80:f3:e1:69:34:7f:6c:1f:63:ee:c8:bb:b1:6e:65:
                    07:12:b9:5f:7f:6e:93:42:8d:cb:ca:f7:fc:51:ce:
                    2f:cc:88:48:3d:a7:62:e4:eb:2d:52:5c:16:84:25:
                    53:99:d8:b2:d5:64:a2:a1:61:fe:71:f3:92:ac:27:
                    d2:08:df:af:e7:0e:a1:67:c9:87:80:41:38:55:0a:
                    48:9f:f4:66:10:1c:77:0d:4e:84:a6:30:3e:53:7e:
                    6c:87:5e:ef:b1:45:2c:af:a6:50:35:d8:6b:69:d2:
                    b9:2b:95:1e:dc:ae:42:70:7a:ba:c8:6c:b3:c2:00:
                    22:f8:45:b3:9d:c1:0a:86:9f:55:98:6c:b0:50:f3:
                    8a:a5:e3:ef:29:98:17:29:1d:4d:e5:9f:7c:82:5c:
                    4a:80:a5:16:46:a5:f6:91:76:91:9a:71:27:66:51:
                    74:cd:6a:3c:9d:1d:cb:9b:12:02:ec:eb:d7:8d:59:
                    ad:3e:18:a4:8b:01:9f:40:a0:c2:11:ec:11:8b:5f:
                    e7:ac:e9:cf:6f:a6:5f:8a:6a:20:6b:30:ce:78:c7:
                    06:40:7a:e8:12:9b:bf:37:08:e1:8a:eb:a8:15:a5:
                    00:73:b9:a2:1c:89:48:b8:28:d2:55:be:5d:69:91:
                    68:38:54:c1:7d:79:bd:d1:f5:f3:0a:a6:4a:11:b8:
                    a7:88:d9:73:f2:a7:70:e4:eb:6f:00:34:bf:c0:d9:
                    94:2c:7f:bd:70:b4:7d:4e:cd:3d:c1:77:0b:2a:dd:
                    48:f1:cb:c5:0a:36:b0:58:3a:e8:64:04:f3:6f:a5:
                    7f:d1:05:59:51:d9:3a:94:6f:41:a9:8a:9d:38:00:
                    8b:26:c3:1b:98:05:e1:fd:06:4e:cd:8a:c9:dc:b6:
                    17:5d:a6:13:7a:c4:bc:92:f8:d6:70:a5:ba:ae:ca:
                    d8:98:86:fe:ba:5e:4a:dc:2f:53:af:d2:e8:a5:a8:
                    ae:4e:1e:cb:12:60:fe:d0:ae:e0:44:9c:3b:64:eb:
                    69:ca:b5
                Exponent: 65537 (0x10001)
        X509v3 extensions:
            X509v3 Basic Constraints: 
                CA:FALSE
            Netscape Comment: 
                Easy-RSA Generated Certificate
            X509v3 Subject Key Identifier: 
                99:32:37:4A:C2:69:A3:6E:97:75:61:71:10:4D:3B:21:26:38:0B:63
            X509v3 Authority Key Identifier: 
                keyid:12:CD:60:04:D2:A0:80:9E:70:ED:C6:99:B8:7B:2C:C6:52:FD:19:A1
                DirName:/C=US/ST=OH/L=Columbus/O=VikingVPN/OU=MyOrganizationalUnit/CN=VikingVPN CA/name=EasyRSA/emailAddress=me@myhost.mydomain
                serial:CF:35:85:EE:80:BF:2A:3E

            X509v3 Extended Key Usage: 
                TLS Web Client Authentication
            X509v3 Key Usage: 
                Digital Signature
    Signature Algorithm: sha256WithRSAEncryption
         10:27:a5:dc:6c:39:84:04:9c:ec:a4:b7:3f:76:25:4d:1a:b6:
         7b:07:a1:2f:3e:80:5b:07:db:80:b1:d4:fd:2c:b6:9d:d0:49:
         89:e6:eb:5a:c4:82:9a:74:f1:eb:0c:d5:40:ae:c6:d6:85:33:
         94:ee:83:b2:d5:52:1b:34:8a:75:71:d3:01:2e:50:81:0e:ee:
         f4:5c:81:4e:37:96:22:84:de:f3:36:4b:d3:92:bf:e6:d8:f3:
         9c:7c:25:1a:e7:e2:bd:e0:f6:b5:6a:94:80:d4:7f:84:6a:25:
         a0:f5:5b:da:60:ae:40:4a:c5:21:fa:f0:a7:01:45:ba:b8:f0:
         6e:d7:52:1c:07:82:cb:01:b6:9c:18:3d:29:c8:93:9f:3e:41:
         73:12:22:0c:c8:a0:13:7b:97:66:3b:73:7f:08:f7:b3:ea:fc:
         87:b4:57:eb:9e:5a:ac:72:3c:d4:94:3b:79:1a:5c:52:1a:ab:
         56:c1:62:69:fc:be:f7:38:bf:51:ee:ed:98:44:6a:0a:d9:5a:
         8a:0d:86:37:8a:f0:3a:30:1d:28:59:d4:2b:1a:9a:0a:02:85:
         a1:1f:3f:26:07:3b:67:33:04:3a:ef:3d:42:0a:b4:2d:dc:f3:
         2d:13:6d:57:28:cc:f5:b8:e2:7c:6c:a2:2a:18:77:3b:a4:a1:
         33:fe:a9:b9:46:c3:cc:1f:1c:79:82:ec:f4:4e:30:a4:a6:86:
         27:69:ec:93:99:da:69:54:04:f3:a8:22:b3:fa:6f:7f:1d:4e:
         42:4f:1c:8c:e6:f0:fa:56:9b:75:e8:90:0a:09:f4:8b:66:51:
         25:5a:5c:c1:87:49:da:e9:0c:1a:fd:30:f3:e4:b1:2f:74:36:
         b2:bc:30:c3:23:2c:95:c8:25:ad:23:1b:ec:f2:7a:c5:26:c7:
         03:9d:2e:6f:33:04:72:a0:02:3a:6a:a8:89:af:5c:9a:63:54:
         86:74:7c:56:3d:e6:36:ce:ec:5f:00:4a:05:54:3a:7d:cb:a3:
         d1:1e:f1:8d:66:36:12:de:2d:d1:f4:6f:35:0a:74:a5:a0:ac:
         89:ab:89:cf:7f:4a:14:a0:bb:45:6c:50:35:79:f6:ab:f8:fc:
         b2:d6:f7:84:0a:34:3b:e7:a5:a9:91:f7:ee:4d:2c:b7:6b:4f:
         3b:57:96:41:7e:37:1b:9e:d1:2e:53:18:21:0b:e2:0c:05:e1:
         5d:21:f0:c2:12:6d:ab:f9:00:8d:57:d5:c9:de:7d:49:53:25:
         fb:0a:48:5a:35:2d:64:95:73:13:7a:2e:13:91:8f:46:d5:7b:
         19:09:b4:b6:6e:e9:2e:d5:47:a0:91:35:a4:36:b9:91:19:21:
         fd:1b:8f:18:0c:fc:a8:2a
-----BEGIN CERTIFICATE-----
MIIGrTCCBJWgAwIBAgICIigwDQYJKoZIhvcNAQELBQAwgawxCzAJBgNVBAYTAlVT
MQswCQYDVQQIEwJPSDERMA8GA1UEBxMIQ29sdW1idXMxEjAQBgNVBAoTCVZpa2lu
Z1ZQTjEdMBsGA1UECxMUTXlPcmdhbml6YXRpb25hbFVuaXQxFTATBgNVBAMTDFZp
a2luZ1ZQTiBDQTEQMA4GA1UEKRMHRWFzeVJTQTEhMB8GCSqGSIb3DQEJARYSbWVA
bXlob3N0Lm15ZG9tYWluMB4XDTE2MDgxMjA2MjgzMVoXDTI2MDgxMDA2MjgzMVow
HzEdMBsGA1UEAxMUQ2xpZW50MjQ2NENlcnQ0Y2U2MGIwggIiMA0GCSqGSIb3DQEB
AQUAA4ICDwAwggIKAoICAQCxWRZiR9Z1YDuFpXPq11+NjkOiQaZxiCIgn4azQ/VM
DRpTPwfM2ooQvvdQDlhDqA2clVfgkE5Xm9sTxm65zgI5QUo4KGnXDRxPFFsWwMpE
gcwUnI7ESNzLhfQD2actEiKp/+4Vl5fjBEey6K3upqEghOy4SmWtgue4+nFuAZhG
e4xU5hoItoDz4Wk0f2wfY+7Iu7FuZQcSuV9/bpNCjcvK9/xRzi/MiEg9p2Lk6y1S
XBaEJVOZ2LLVZKKhYf5x85KsJ9II36/nDqFnyYeAQThVCkif9GYQHHcNToSmMD5T
fmyHXu+xRSyvplA12Gtp0rkrlR7crkJwerrIbLPCACL4RbOdwQqGn1WYbLBQ84ql
4+8pmBcpHU3ln3yCXEqApRZGpfaRdpGacSdmUXTNajydHcubEgLs69eNWa0+GKSL
AZ9AoMIR7BGLX+es6c9vpl+KaiBrMM54xwZAeugSm783COGK66gVpQBzuaIciUi4
KNJVvl1pkWg4VMF9eb3R9fMKpkoRuKeI2XPyp3Dk628ANL/A2ZQsf71wtH1OzT3B
dwsq3Ujxy8UKNrBYOuhkBPNvpX/RBVlR2TqUb0Gpip04AIsmwxuYBeH9Bk7Nisnc
thddphN6xLyS+NZwpbquytiYhv66XkrcL1Ov0uilqK5OHssSYP7QruBEnDtk62nK
tQIDAQABo4IBYzCCAV8wCQYDVR0TBAIwADAtBglghkgBhvhCAQ0EIBYeRWFzeS1S
U0EgR2VuZXJhdGVkIENlcnRpZmljYXRlMB0GA1UdDgQWBBSZMjdKwmmjbpd1YXEQ
TTshJjgLYzCB4QYDVR0jBIHZMIHWgBQSzWAE0qCAnnDtxpm4eyzGUv0ZoaGBsqSB
rzCBrDELMAkGA1UEBhMCVVMxCzAJBgNVBAgTAk9IMREwDwYDVQQHEwhDb2x1bWJ1
czESMBAGA1UEChMJVmlraW5nVlBOMR0wGwYDVQQLExRNeU9yZ2FuaXphdGlvbmFs
VW5pdDEVMBMGA1UEAxMMVmlraW5nVlBOIENBMRAwDgYDVQQpEwdFYXN5UlNBMSEw
HwYJKoZIhvcNAQkBFhJtZUBteWhvc3QubXlkb21haW6CCQDPNYXugL8qPjATBgNV
HSUEDDAKBggrBgEFBQcDAjALBgNVHQ8EBAMCB4AwDQYJKoZIhvcNAQELBQADggIB
ABAnpdxsOYQEnOyktz92JU0atnsHoS8+gFsH24Cx1P0stp3QSYnm61rEgpp08esM
1UCuxtaFM5Tug7LVUhs0inVx0wEuUIEO7vRcgU43liKE3vM2S9OSv+bY85x8JRrn
4r3g9rVqlIDUf4RqJaD1W9pgrkBKxSH68KcBRbq48G7XUhwHgssBtpwYPSnIk58+
QXMSIgzIoBN7l2Y7c38I97Pq/Ie0V+ueWqxyPNSUO3kaXFIaq1bBYmn8vvc4v1Hu
7ZhEagrZWooNhjeK8DowHShZ1CsamgoChaEfPyYHO2czBDrvPUIKtC3c8y0TbVco
zPW44nxsoioYdzukoTP+qblGw8wfHHmC7PROMKSmhidp7JOZ2mlUBPOoIrP6b38d
TkJPHIzm8PpWm3XokAoJ9ItmUSVaXMGHSdrpDBr9MPPksS90NrK8MMMjLJXIJa0j
G+zyesUmxwOdLm8zBHKgAjpqqImvXJpjVIZ0fFY95jbO7F8ASgVUOn3Lo9Ee8Y1m
NhLeLdH0bzUKdKWgrImric9/ShSgu0VsUDV59qv4/LLW94QKNDvnpamR9+5NLLdr
TztXlkF+Nxue0S5TGCEL4gwF4V0h8MISbav5AI1X1cnefUlTJfsKSFo1LWSVcxN6
LhORj0bVexkJtLZu6S7VR6CRNaQ2uZEZIf0bjxgM/Kgq
-----END CERTIFICATE-----
