Certificate:
    Data:
        Version: 3 (0x2)
        Serial Number: 1384 (0x568)
    Signature Algorithm: md5WithRSAEncryption
        Issuer: C=US, ST=OH, L=Columbus, O=VikingVPN, OU=MyOrganizationalUnit, CN=VikingVPN CA/name=EasyRSA/emailAddress=me@myhost.mydomain
        Validity
            Not Before: Mar 25 17:17:25 2014 GMT
            Not After : Mar 22 17:17:25 2024 GMT
        Subject: CN=Client514Cert31f247
        Subject Public Key Info:
            Public Key Algorithm: rsaEncryption
                Public-Key: (4096 bit)
                Modulus:
                    00:a4:33:be:2d:d0:64:87:66:99:14:9f:05:db:36:
                    ad:34:e8:d9:80:fe:ca:a1:ce:78:25:60:b2:31:aa:
                    04:3d:5c:46:a4:e8:78:79:19:ce:b0:31:f2:5b:72:
                    20:a3:50:c4:54:64:33:c8:a7:fb:73:ed:89:99:df:
                    79:f3:5e:02:85:ff:9f:11:db:bd:7b:0f:fb:18:b3:
                    b7:4f:2f:03:d2:8d:b4:db:6a:3a:6a:27:a7:e0:7e:
                    45:15:a8:4e:56:88:e2:95:4a:87:7a:6b:1e:94:0f:
                    55:75:ae:f2:d2:ca:79:a9:91:b0:24:5b:ad:47:24:
                    33:17:a3:4d:51:93:8e:22:15:ce:5d:bd:4a:12:97:
                    9c:95:96:94:d2:88:ac:a7:a2:56:47:eb:1f:69:3c:
                    c6:4c:dc:2e:cd:55:ad:02:a4:dc:7a:62:6d:7f:83:
                    52:f9:be:d4:dc:73:a4:79:4b:43:fe:65:ed:78:e5:
                    87:e6:bd:50:58:19:df:0a:42:05:51:f3:fb:2e:51:
                    fc:60:00:ec:aa:05:20:22:47:f8:ca:9d:8a:f3:fc:
                    19:59:bf:00:d4:17:61:a7:65:e4:e7:9a:0d:f4:9e:
                    32:c4:61:bf:7f:da:75:1a:ec:a4:ce:9e:cf:8b:ba:
                    66:d5:91:67:62:a0:4c:b2:0d:b9:ca:3b:0a:13:1d:
                    ac:80:b3:ef:4d:52:21:be:82:25:5d:0b:c5:f6:8f:
                    26:73:b2:8c:06:19:df:4b:e7:aa:62:ec:2b:1d:4a:
                    3e:e3:cd:6c:76:b4:16:86:37:a1:0d:51:92:d4:8f:
                    ca:16:92:e0:de:0b:61:19:22:c2:f6:ef:2a:18:f7:
                    58:3b:93:57:77:88:2d:e4:c4:66:dd:4b:02:75:b1:
                    02:f5:e5:00:11:60:b7:54:8b:d4:5f:f6:cf:1e:0f:
                    ef:f0:af:97:4d:82:59:37:75:11:84:75:a0:80:df:
                    24:14:0b:76:1a:a3:d2:f4:6b:b0:d0:2b:1b:d4:6d:
                    bd:8f:cf:7f:7f:b1:d6:84:fa:6e:0f:82:c2:64:d6:
                    a5:ff:99:09:3e:d7:57:5f:da:eb:f6:90:da:a8:9d:
                    24:2c:a9:85:54:92:e2:88:28:44:34:96:99:ba:09:
                    15:c2:71:30:ee:31:5d:aa:e9:e7:00:69:ef:38:62:
                    61:7a:45:73:99:aa:b8:21:7a:82:19:20:61:20:6d:
                    95:cf:12:c0:77:cd:a1:20:d5:0b:78:d7:24:ad:45:
                    17:d7:2a:0f:1f:5f:11:d4:1b:25:95:5e:4b:dd:f3:
                    51:00:cb:68:70:97:e1:b0:0d:c2:67:0b:8c:19:a0:
                    96:c7:3a:51:8b:ea:b5:f9:9e:25:e3:7d:ed:f1:1a:
                    c1:b2:2f
                Exponent: 65537 (0x10001)
        X509v3 extensions:
            X509v3 Basic Constraints: 
                CA:FALSE
            Netscape Comment: 
                Easy-RSA Generated Certificate
            X509v3 Subject Key Identifier: 
                47:EC:23:18:BF:F8:46:83:EB:CE:14:87:60:8E:86:BD:4D:05:6D:B2
            X509v3 Authority Key Identifier: 
                keyid:12:CD:60:04:D2:A0:80:9E:70:ED:C6:99:B8:7B:2C:C6:52:FD:19:A1
                DirName:/C=US/ST=OH/L=Columbus/O=VikingVPN/OU=MyOrganizationalUnit/CN=VikingVPN CA/name=EasyRSA/emailAddress=me@myhost.mydomain
                serial:CF:35:85:EE:80:BF:2A:3E

            X509v3 Extended Key Usage: 
                TLS Web Client Authentication
            X509v3 Key Usage: 
                Digital Signature
    Signature Algorithm: md5WithRSAEncryption
         ee:d0:74:62:7e:b5:27:de:55:e3:84:fa:3b:08:39:6f:68:5b:
         6f:8f:72:2d:95:3c:66:91:93:b1:23:81:fc:25:87:60:ef:d7:
         f5:df:e2:e0:55:65:ff:28:2a:66:9e:85:78:62:53:c4:e6:50:
         f3:3f:fb:96:e6:e2:78:48:ae:1c:51:c9:27:df:8a:70:b5:82:
         ef:72:ba:89:00:96:c9:bd:f3:7c:8b:d7:77:78:c8:ff:2e:e6:
         28:b5:c8:a4:05:a4:30:e6:05:ba:86:8c:dd:4f:be:e2:2f:f5:
         2d:18:3b:19:11:a0:02:90:6c:5b:36:21:f3:59:af:03:c7:c5:
         54:30:4d:ed:06:16:6d:e5:aa:81:0e:06:9d:23:7d:3c:91:10:
         46:b5:2f:90:f2:48:fe:61:a5:a3:34:f8:c2:dd:af:47:bf:e9:
         83:13:06:fd:62:bc:24:03:c7:ec:27:ea:2b:f0:b4:90:01:87:
         6c:0e:3d:2e:18:84:47:12:9e:dc:62:54:0d:25:9a:d8:16:51:
         8c:0f:65:fa:44:c2:45:37:4a:2c:76:0d:33:8e:16:38:be:bb:
         6c:35:4f:ee:b2:09:90:b5:7a:74:3a:b3:41:2e:34:b3:18:35:
         76:da:8b:bd:aa:58:c2:45:df:15:ec:99:87:2d:b5:93:b2:be:
         44:c0:05:b3:fd:e8:3b:59:fd:17:f3:fc:ca:cf:eb:d7:8b:24:
         12:e6:45:90:92:3f:81:db:01:e1:76:3c:e1:61:7a:2e:c3:1e:
         1d:78:d6:71:be:56:30:c2:4e:33:ee:63:4d:e5:f8:6f:91:7f:
         7e:47:a4:ae:40:d5:98:6a:8f:3f:37:df:1a:68:31:dc:93:81:
         27:4a:1c:7c:3f:06:57:ab:b2:8e:e7:17:c7:d4:ea:0f:23:fb:
         b6:4a:63:62:e4:82:1e:e7:9d:2e:b1:1d:57:40:a3:e5:4e:87:
         a7:bf:7b:92:19:74:22:6d:32:4e:65:8b:8b:2d:92:d2:e1:7f:
         b6:d8:f3:25:88:f7:fc:ca:8b:80:c5:14:47:43:74:96:45:c3:
         08:4c:c4:23:1c:e2:6a:3c:92:c8:12:33:a9:69:56:5b:c4:c9:
         97:5a:00:bc:4c:6a:b9:40:5b:43:26:f6:58:27:25:2f:da:55:
         da:72:6a:8e:a1:42:fe:03:b0:39:e9:97:42:ed:54:2b:66:2e:
         ca:25:8f:f0:75:08:38:9b:43:e7:99:20:d3:c7:7a:a2:b8:43:
         fc:00:b1:b8:17:54:5e:44:6c:9a:7d:35:c8:37:1c:f8:de:6c:
         81:5a:a6:b3:7f:3f:86:74:62:ec:13:ab:ba:be:0a:e5:18:e3:
         f1:69:76:7a:bc:35:ff:61
-----BEGIN CERTIFICATE-----
MIIGrDCCBJSgAwIBAgICBWgwDQYJKoZIhvcNAQEEBQAwgawxCzAJBgNVBAYTAlVT
MQswCQYDVQQIEwJPSDERMA8GA1UEBxMIQ29sdW1idXMxEjAQBgNVBAoTCVZpa2lu
Z1ZQTjEdMBsGA1UECxMUTXlPcmdhbml6YXRpb25hbFVuaXQxFTATBgNVBAMTDFZp
a2luZ1ZQTiBDQTEQMA4GA1UEKRMHRWFzeVJTQTEhMB8GCSqGSIb3DQEJARYSbWVA
bXlob3N0Lm15ZG9tYWluMB4XDTE0MDMyNTE3MTcyNVoXDTI0MDMyMjE3MTcyNVow
HjEcMBoGA1UEAxMTQ2xpZW50NTE0Q2VydDMxZjI0NzCCAiIwDQYJKoZIhvcNAQEB
BQADggIPADCCAgoCggIBAKQzvi3QZIdmmRSfBds2rTTo2YD+yqHOeCVgsjGqBD1c
RqToeHkZzrAx8ltyIKNQxFRkM8in+3PtiZnfefNeAoX/nxHbvXsP+xizt08vA9KN
tNtqOmonp+B+RRWoTlaI4pVKh3prHpQPVXWu8tLKeamRsCRbrUckMxejTVGTjiIV
zl29ShKXnJWWlNKIrKeiVkfrH2k8xkzcLs1VrQKk3HpibX+DUvm+1NxzpHlLQ/5l
7Xjlh+a9UFgZ3wpCBVHz+y5R/GAA7KoFICJH+MqdivP8GVm/ANQXYadl5OeaDfSe
MsRhv3/adRrspM6ez4u6ZtWRZ2KgTLINuco7ChMdrICz701SIb6CJV0LxfaPJnOy
jAYZ30vnqmLsKx1KPuPNbHa0FoY3oQ1RktSPyhaS4N4LYRkiwvbvKhj3WDuTV3eI
LeTEZt1LAnWxAvXlABFgt1SL1F/2zx4P7/Cvl02CWTd1EYR1oIDfJBQLdhqj0vRr
sNArG9RtvY/Pf3+x1oT6bg+CwmTWpf+ZCT7XV1/a6/aQ2qidJCyphVSS4ogoRDSW
mboJFcJxMO4xXarp5wBp7zhiYXpFc5mquCF6ghkgYSBtlc8SwHfNoSDVC3jXJK1F
F9cqDx9fEdQbJZVeS93zUQDLaHCX4bANwmcLjBmglsc6UYvqtfmeJeN97fEawbIv
AgMBAAGjggFjMIIBXzAJBgNVHRMEAjAAMC0GCWCGSAGG+EIBDQQgFh5FYXN5LVJT
QSBHZW5lcmF0ZWQgQ2VydGlmaWNhdGUwHQYDVR0OBBYEFEfsIxi/+EaD684Uh2CO
hr1NBW2yMIHhBgNVHSMEgdkwgdaAFBLNYATSoICecO3Gmbh7LMZS/RmhoYGypIGv
MIGsMQswCQYDVQQGEwJVUzELMAkGA1UECBMCT0gxETAPBgNVBAcTCENvbHVtYnVz
MRIwEAYDVQQKEwlWaWtpbmdWUE4xHTAbBgNVBAsTFE15T3JnYW5pemF0aW9uYWxV
bml0MRUwEwYDVQQDEwxWaWtpbmdWUE4gQ0ExEDAOBgNVBCkTB0Vhc3lSU0ExITAf
BgkqhkiG9w0BCQEWEm1lQG15aG9zdC5teWRvbWFpboIJAM81he6Avyo+MBMGA1Ud
JQQMMAoGCCsGAQUFBwMCMAsGA1UdDwQEAwIHgDANBgkqhkiG9w0BAQQFAAOCAgEA
7tB0Yn61J95V44T6Owg5b2hbb49yLZU8ZpGTsSOB/CWHYO/X9d/i4FVl/ygqZp6F
eGJTxOZQ8z/7lubieEiuHFHJJ9+KcLWC73K6iQCWyb3zfIvXd3jI/y7mKLXIpAWk
MOYFuoaM3U++4i/1LRg7GRGgApBsWzYh81mvA8fFVDBN7QYWbeWqgQ4GnSN9PJEQ
RrUvkPJI/mGlozT4wt2vR7/pgxMG/WK8JAPH7CfqK/C0kAGHbA49LhiERxKe3GJU
DSWa2BZRjA9l+kTCRTdKLHYNM44WOL67bDVP7rIJkLV6dDqzQS40sxg1dtqLvapY
wkXfFeyZhy21k7K+RMAFs/3oO1n9F/P8ys/r14skEuZFkJI/gdsB4XY84WF6LsMe
HXjWcb5WMMJOM+5jTeX4b5F/fkekrkDVmGqPPzffGmgx3JOBJ0ocfD8GV6uyjucX
x9TqDyP7tkpjYuSCHuedLrEdV0Cj5U6Hp797khl0Im0yTmWLiy2S0uF/ttjzJYj3
/MqLgMUUR0N0lkXDCEzEIxziajySyBIzqWlWW8TJl1oAvExquUBbQyb2WCclL9pV
2nJqjqFC/gOwOemXQu1UK2YuyiWP8HUIOJtD55kg08d6orhD/ACxuBdUXkRsmn01
yDcc+N5sgVqms38/hnRi7BOrur4K5Rjj8Wl2erw1/2E=
-----END CERTIFICATE-----
