Certificate:
    Data:
        Version: 3 (0x2)
        Serial Number: 7687 (0x1e07)
    Signature Algorithm: md5WithRSAEncryption
        Issuer: C=US, ST=OH, L=Columbus, O=VikingVPN, OU=MyOrganizationalUnit, CN=VikingVPN CA/name=EasyRSA/emailAddress=me@myhost.mydomain
        Validity
            Not Before: Apr  7 10:32:13 2016 GMT
            Not After : Apr  5 10:32:13 2026 GMT
        Subject: CN=Client1558Certd4d03e
        Subject Public Key Info:
            Public Key Algorithm: rsaEncryption
                Public-Key: (4096 bit)
                Modulus:
                    00:a5:7b:2e:18:df:24:a5:b0:c3:eb:32:9c:81:91:
                    ec:02:c2:f1:ca:db:d9:db:40:34:a0:ee:18:d3:f7:
                    16:9d:77:a9:2d:4d:f8:c1:05:13:a9:68:e2:93:2e:
                    fe:63:aa:5d:d4:fb:c0:83:51:28:e3:fe:70:3a:51:
                    d8:fa:80:b3:00:b4:b1:fd:30:a2:02:69:a2:35:e8:
                    a6:09:89:77:a8:04:73:18:11:83:8d:24:d3:72:1f:
                    75:21:14:c5:b7:15:1f:a8:d8:ff:f6:78:43:7c:b7:
                    fe:55:95:11:04:4f:27:0e:06:16:34:54:63:2c:4e:
                    ee:c5:60:f0:34:c1:29:53:72:9d:b0:bd:00:4a:6c:
                    6f:b0:d3:db:dd:59:4d:93:09:9b:2c:62:dc:e2:ca:
                    51:8f:e5:d0:31:87:43:c3:38:c3:ea:c5:0a:e3:49:
                    10:45:44:59:a4:46:21:d0:57:77:fe:7b:bb:a6:3e:
                    57:f7:26:b0:5a:1e:a6:a5:34:aa:84:16:db:55:a1:
                    f5:4b:5d:61:72:72:47:ab:bc:0b:fe:2c:6b:5c:24:
                    b7:fd:04:19:c8:60:9d:79:ee:08:8e:70:ed:52:11:
                    98:00:f8:a0:3b:4b:41:f5:cb:86:3f:1f:f9:22:2f:
                    61:18:06:f1:c7:71:5b:a0:e3:31:b9:f3:24:f7:94:
                    b1:6e:c9:2e:07:9a:70:9c:32:68:d6:20:62:ff:c1:
                    ba:5f:b7:33:0b:32:07:2f:c0:90:ec:6b:58:5f:90:
                    e5:62:04:b5:c2:d7:0f:f5:09:b6:35:2c:b5:db:f2:
                    40:ff:ae:9c:34:52:3a:6f:21:7d:5c:93:f7:53:24:
                    3d:72:0a:a6:a4:29:9c:7d:f5:4d:1b:8f:03:50:3f:
                    8e:c6:7f:f9:e0:84:79:22:ce:2c:8c:92:7d:05:7b:
                    3c:03:f5:78:9c:0d:86:2f:5e:3a:84:fe:4d:da:bd:
                    92:04:d9:8d:49:02:d5:ec:15:0f:5f:b7:41:61:84:
                    e9:55:95:c7:ef:04:b2:51:ec:2b:56:2a:24:3d:e3:
                    43:41:dd:9b:ac:ae:8a:a2:c8:32:27:6c:a8:7e:03:
                    12:f0:eb:2c:fe:d7:39:b7:3e:0d:36:a2:d2:67:26:
                    af:33:79:b1:c1:64:ea:bb:f2:29:cf:c1:56:0f:e6:
                    e7:0b:7a:ca:17:c1:95:a8:01:73:c3:e2:11:47:76:
                    8c:b0:50:ee:07:3e:ed:0b:3a:7d:8e:4f:9e:32:bc:
                    37:87:d2:e6:ef:2a:2d:12:03:3a:44:dc:57:af:59:
                    c9:45:f9:67:ee:3f:f9:4d:cb:5b:cc:b4:eb:ae:fd:
                    2a:1e:86:df:9e:43:a3:83:8b:fe:a1:fa:dd:3c:bf:
                    2f:5d:17
                Exponent: 65537 (0x10001)
        X509v3 extensions:
            X509v3 Basic Constraints: 
                CA:FALSE
            Netscape Comment: 
                Easy-RSA Generated Certificate
            X509v3 Subject Key Identifier: 
                8F:A7:1A:91:39:69:8C:01:0E:E8:35:4B:00:54:0B:79:26:36:4F:3C
            X509v3 Authority Key Identifier: 
                keyid:12:CD:60:04:D2:A0:80:9E:70:ED:C6:99:B8:7B:2C:C6:52:FD:19:A1
                DirName:/C=US/ST=OH/L=Columbus/O=VikingVPN/OU=MyOrganizationalUnit/CN=VikingVPN CA/name=EasyRSA/emailAddress=me@myhost.mydomain
                serial:CF:35:85:EE:80:BF:2A:3E

            X509v3 Extended Key Usage: 
                TLS Web Client Authentication
            X509v3 Key Usage: 
                Digital Signature
    Signature Algorithm: md5WithRSAEncryption
         97:a8:84:21:f2:b5:4c:22:f9:a2:56:76:b0:9b:5f:29:b9:a6:
         ee:77:6b:c7:28:75:37:be:1b:6f:33:ec:d6:93:f0:cf:4e:fb:
         d1:3b:6f:8f:18:cc:fa:c8:cb:1f:76:01:58:8f:b5:42:2e:99:
         29:42:15:eb:00:c7:17:d1:33:c9:0a:f0:c9:c3:28:6e:e2:5c:
         85:c1:b3:1d:25:51:e7:a5:35:76:24:e7:4c:39:c4:55:29:c8:
         81:87:98:f4:5a:15:2e:b4:d2:22:14:96:a4:4d:29:86:5b:f5:
         f1:fa:49:50:72:aa:bb:08:70:74:61:18:9f:cf:04:f7:04:18:
         e9:8d:2d:78:64:27:53:94:99:23:ec:b1:88:d7:a5:e1:eb:d7:
         af:25:a6:71:1e:7d:29:ff:0f:a6:14:14:48:8f:3c:24:22:79:
         ea:61:2b:40:9a:5a:69:81:09:09:dd:44:97:0a:ae:b0:dd:7c:
         fb:41:23:55:76:40:8e:fc:97:32:13:9a:e7:68:ff:25:03:4c:
         4d:28:a8:16:4a:28:53:06:63:b7:be:00:ab:cc:fe:c6:45:fb:
         a9:22:85:72:c7:2f:19:33:2c:d9:8b:39:04:4d:ee:34:90:96:
         2c:69:23:2b:0b:10:05:c4:73:9f:94:9d:ba:4e:04:fe:50:6e:
         d2:8c:c7:8c:00:86:6b:09:13:03:ea:1a:50:62:01:5e:e6:e3:
         80:9c:09:b9:c5:db:44:5c:46:9f:e7:9e:da:63:a4:7d:d8:87:
         0d:c4:9f:cb:0c:35:66:a1:b0:ab:73:33:8c:3e:4c:9c:e9:6f:
         de:24:d6:9a:36:bb:d3:98:3a:8d:e9:73:0a:de:29:70:29:32:
         54:10:11:57:a3:3f:94:0c:68:84:44:df:12:f6:8b:9f:63:05:
         dc:29:a2:10:16:43:54:28:c6:19:a0:97:8f:ae:3d:ba:76:8b:
         c7:c6:4e:be:13:90:7b:87:17:09:e2:2d:2e:d4:ad:b0:8d:21:
         5e:3a:f1:fe:ec:cd:bd:da:29:9d:07:6d:81:24:37:79:94:d7:
         8d:43:6b:7d:83:f5:99:90:f0:36:a5:1e:c9:d8:e5:2f:1c:a5:
         b9:4d:04:a9:15:5d:0c:13:87:f6:23:b1:5e:26:eb:f1:08:78:
         f3:1a:f0:e6:1f:f0:80:0e:35:40:8f:1a:90:3c:12:86:90:1c:
         d2:30:a1:65:d4:4b:13:93:8b:10:96:90:1d:7b:46:91:51:84:
         3d:77:e7:8d:2c:47:3c:02:66:da:63:c9:a1:64:4d:2f:21:56:
         8b:fc:3f:34:ba:9f:3b:df:3f:3b:95:8b:8a:0b:7b:c0:bd:9c:
         82:b1:db:14:1c:b2:d7:17
-----BEGIN CERTIFICATE-----
MIIGrTCCBJWgAwIBAgICHgcwDQYJKoZIhvcNAQEEBQAwgawxCzAJBgNVBAYTAlVT
MQswCQYDVQQIEwJPSDERMA8GA1UEBxMIQ29sdW1idXMxEjAQBgNVBAoTCVZpa2lu
Z1ZQTjEdMBsGA1UECxMUTXlPcmdhbml6YXRpb25hbFVuaXQxFTATBgNVBAMTDFZp
a2luZ1ZQTiBDQTEQMA4GA1UEKRMHRWFzeVJTQTEhMB8GCSqGSIb3DQEJARYSbWVA
bXlob3N0Lm15ZG9tYWluMB4XDTE2MDQwNzEwMzIxM1oXDTI2MDQwNTEwMzIxM1ow
HzEdMBsGA1UEAxMUQ2xpZW50MTU1OENlcnRkNGQwM2UwggIiMA0GCSqGSIb3DQEB
AQUAA4ICDwAwggIKAoICAQCley4Y3ySlsMPrMpyBkewCwvHK29nbQDSg7hjT9xad
d6ktTfjBBROpaOKTLv5jql3U+8CDUSjj/nA6Udj6gLMAtLH9MKICaaI16KYJiXeo
BHMYEYONJNNyH3UhFMW3FR+o2P/2eEN8t/5VlREETycOBhY0VGMsTu7FYPA0wSlT
cp2wvQBKbG+w09vdWU2TCZssYtziylGP5dAxh0PDOMPqxQrjSRBFRFmkRiHQV3f+
e7umPlf3JrBaHqalNKqEFttVofVLXWFyckervAv+LGtcJLf9BBnIYJ157giOcO1S
EZgA+KA7S0H1y4Y/H/kiL2EYBvHHcVug4zG58yT3lLFuyS4HmnCcMmjWIGL/wbpf
tzMLMgcvwJDsa1hfkOViBLXC1w/1CbY1LLXb8kD/rpw0UjpvIX1ck/dTJD1yCqak
KZx99U0bjwNQP47Gf/nghHkiziyMkn0FezwD9XicDYYvXjqE/k3avZIE2Y1JAtXs
FQ9ft0FhhOlVlcfvBLJR7CtWKiQ940NB3ZusroqiyDInbKh+AxLw6yz+1zm3Pg02
otJnJq8zebHBZOq78inPwVYP5ucLesoXwZWoAXPD4hFHdoywUO4HPu0LOn2OT54y
vDeH0ubvKi0SAzpE3FevWclF+WfuP/lNy1vMtOuu/Soeht+eQ6ODi/6h+t08vy9d
FwIDAQABo4IBYzCCAV8wCQYDVR0TBAIwADAtBglghkgBhvhCAQ0EIBYeRWFzeS1S
U0EgR2VuZXJhdGVkIENlcnRpZmljYXRlMB0GA1UdDgQWBBSPpxqROWmMAQ7oNUsA
VAt5JjZPPDCB4QYDVR0jBIHZMIHWgBQSzWAE0qCAnnDtxpm4eyzGUv0ZoaGBsqSB
rzCBrDELMAkGA1UEBhMCVVMxCzAJBgNVBAgTAk9IMREwDwYDVQQHEwhDb2x1bWJ1
czESMBAGA1UEChMJVmlraW5nVlBOMR0wGwYDVQQLExRNeU9yZ2FuaXphdGlvbmFs
VW5pdDEVMBMGA1UEAxMMVmlraW5nVlBOIENBMRAwDgYDVQQpEwdFYXN5UlNBMSEw
HwYJKoZIhvcNAQkBFhJtZUBteWhvc3QubXlkb21haW6CCQDPNYXugL8qPjATBgNV
HSUEDDAKBggrBgEFBQcDAjALBgNVHQ8EBAMCB4AwDQYJKoZIhvcNAQEEBQADggIB
AJeohCHytUwi+aJWdrCbXym5pu53a8codTe+G28z7NaT8M9O+9E7b48YzPrIyx92
AViPtUIumSlCFesAxxfRM8kK8MnDKG7iXIXBsx0lUeelNXYk50w5xFUpyIGHmPRa
FS600iIUlqRNKYZb9fH6SVByqrsIcHRhGJ/PBPcEGOmNLXhkJ1OUmSPssYjXpeHr
168lpnEefSn/D6YUFEiPPCQieephK0CaWmmBCQndRJcKrrDdfPtBI1V2QI78lzIT
mudo/yUDTE0oqBZKKFMGY7e+AKvM/sZF+6kihXLHLxkzLNmLOQRN7jSQlixpIysL
EAXEc5+UnbpOBP5QbtKMx4wAhmsJEwPqGlBiAV7m44CcCbnF20RcRp/nntpjpH3Y
hw3En8sMNWahsKtzM4w+TJzpb94k1po2u9OYOo3pcwreKXApMlQQEVejP5QMaIRE
3xL2i59jBdwpohAWQ1Qoxhmgl4+uPbp2i8fGTr4TkHuHFwniLS7UrbCNIV468f7s
zb3aKZ0HbYEkN3mU141Da32D9ZmQ8DalHsnY5S8cpblNBKkVXQwTh/YjsV4m6/EI
ePMa8OYf8IAONUCPGpA8EoaQHNIwoWXUSxOTixCWkB17RpFRhD13540sRzwCZtpj
yaFkTS8hVov8PzS6nzvfPzuVi4oLe8C9nIKx2xQcstcX
-----END CERTIFICATE-----
