Certificate:
    Data:
        Version: 3 (0x2)
        Serial Number: 9297 (0x2451)
    Signature Algorithm: sha256WithRSAEncryption
        Issuer: C=US, ST=OH, L=Columbus, O=VikingVPN, OU=MyOrganizationalUnit, CN=VikingVPN CA/name=EasyRSA/emailAddress=me@myhost.mydomain
        Validity
            Not Before: Oct 22 15:59:50 2016 GMT
            Not After : Oct 20 15:59:50 2026 GMT
        Subject: CN=Client1359Cert9aba08
        Subject Public Key Info:
            Public Key Algorithm: rsaEncryption
                Public-Key: (4096 bit)
                Modulus:
                    00:ac:b8:3d:85:b8:34:cb:07:79:5e:c9:d2:51:13:
                    2b:cd:3b:be:1a:fb:d2:c2:72:ed:d3:b3:69:90:af:
                    a1:64:6d:07:dc:fa:5d:96:8e:c5:ee:66:01:f6:08:
                    d0:8b:ca:ae:1b:67:1a:21:63:08:66:31:1b:51:a9:
                    f7:ce:96:f3:de:44:b7:6f:b7:69:28:1d:d8:53:b7:
                    2c:be:c7:14:26:09:1b:3a:e7:ab:6f:21:ad:fa:83:
                    2d:31:aa:d2:f8:8a:62:ec:c2:36:05:4a:f0:bf:02:
                    22:8f:2f:06:41:2b:6d:ea:47:ac:40:02:09:bb:b0:
                    ed:70:56:9c:a9:24:e4:49:52:e3:72:7a:c8:ae:c2:
                    b0:df:53:5a:6f:09:2d:11:f1:7b:75:90:b2:a0:02:
                    15:e0:3b:aa:3c:0c:eb:6c:08:9c:00:8d:39:85:cb:
                    2e:81:a9:9c:87:70:d1:1b:f8:7c:49:80:33:0c:07:
                    0b:63:53:a5:55:02:80:5e:ea:c9:58:be:59:c1:d5:
                    ec:c8:e3:7f:85:63:9f:62:71:e1:bb:11:f0:a2:66:
                    6d:65:50:fb:cc:61:45:6e:37:6e:94:64:45:cc:f5:
                    3d:15:42:37:6a:27:27:f0:33:54:61:ea:9d:c8:4f:
                    d8:8f:95:68:9f:dc:4c:8f:7b:16:77:3b:83:21:ae:
                    22:53:bf:0e:d3:ac:55:46:ae:b3:c4:63:b2:9b:75:
                    9d:86:70:92:26:ee:38:7b:2b:0c:46:e0:aa:c3:4b:
                    ba:4c:54:96:47:b0:60:9b:55:15:ae:c6:8d:5e:47:
                    c9:d2:bf:9c:97:17:e8:cd:25:57:0e:65:03:75:83:
                    93:33:1e:c5:b9:15:96:ec:8e:be:c3:8b:82:3b:4f:
                    35:ae:6c:a4:64:6e:f0:76:a0:b1:67:c5:69:41:79:
                    17:7a:46:1a:84:98:57:c4:33:02:8e:ef:2e:04:6a:
                    de:b7:39:78:2b:a7:66:5b:46:ec:71:82:bb:76:06:
                    22:61:ee:b3:73:43:fe:81:63:2a:b7:87:1e:01:5a:
                    cd:02:67:ce:6d:46:92:14:8d:6e:00:ee:27:a1:4e:
                    08:b2:ac:79:53:0d:a3:6b:0e:a0:57:e0:2c:2b:b9:
                    50:51:d4:f5:4e:2b:e0:fd:63:ba:41:83:e9:e8:a1:
                    08:44:98:c5:b0:3c:86:eb:38:84:d4:07:c0:fc:a7:
                    bf:63:5e:21:19:7c:42:f4:e5:5b:b5:9c:d0:9c:8b:
                    4a:f6:46:f2:4d:11:1a:00:50:6c:79:3a:f5:d9:04:
                    2d:b8:21:e0:7e:4d:06:c4:6c:c3:47:03:cb:50:c1:
                    7d:58:07:7d:d0:e2:e0:1f:08:3c:93:7c:b0:11:05:
                    17:a8:8f
                Exponent: 65537 (0x10001)
        X509v3 extensions:
            X509v3 Basic Constraints: 
                CA:FALSE
            Netscape Comment: 
                Easy-RSA Generated Certificate
            X509v3 Subject Key Identifier: 
                EC:C2:3C:B7:B6:91:F8:8F:5D:66:54:83:06:C3:04:C4:3F:68:E8:88
            X509v3 Authority Key Identifier: 
                keyid:12:CD:60:04:D2:A0:80:9E:70:ED:C6:99:B8:7B:2C:C6:52:FD:19:A1
                DirName:/C=US/ST=OH/L=Columbus/O=VikingVPN/OU=MyOrganizationalUnit/CN=VikingVPN CA/name=EasyRSA/emailAddress=me@myhost.mydomain
                serial:CF:35:85:EE:80:BF:2A:3E

            X509v3 Extended Key Usage: 
                TLS Web Client Authentication
            X509v3 Key Usage: 
                Digital Signature
    Signature Algorithm: sha256WithRSAEncryption
         c7:2e:98:ef:6c:b2:93:52:80:77:bf:77:58:2c:ff:42:56:80:
         57:69:2b:0e:ff:3c:53:8f:44:41:83:2b:84:e1:c1:c8:29:7d:
         71:0f:e8:2b:55:4c:64:aa:dd:46:37:35:71:17:d7:78:52:fa:
         0e:9a:aa:c0:5a:36:8a:0f:cf:5a:eb:aa:2d:9a:f1:40:e8:28:
         13:73:ea:20:cf:6d:70:24:91:4b:01:08:d6:d3:2b:3c:1d:2a:
         f4:0f:f8:b3:68:95:7a:fc:05:fa:3f:85:7f:da:03:bc:8d:34:
         90:2e:61:6a:e8:ba:f0:c4:00:11:ab:83:3d:b7:bc:fb:36:9a:
         4a:34:22:69:52:b9:f2:de:e4:5a:29:c1:c5:b5:70:aa:50:72:
         ec:14:07:7c:48:13:e6:b8:98:f0:02:2e:b7:eb:47:b8:b9:c2:
         f8:2b:b4:97:f1:0f:60:6a:ec:55:5f:fb:fa:05:30:83:0b:ea:
         69:db:db:09:d8:3e:56:a1:f0:35:d9:84:78:86:2a:cf:28:6d:
         37:87:92:50:6a:a9:9a:60:f4:14:22:43:a0:01:ec:ac:cf:92:
         bd:6c:7f:4d:df:04:ff:b0:24:90:74:d3:cc:29:07:2e:75:9c:
         b6:47:c3:8a:8e:c0:60:8a:b6:6d:dd:21:5b:5f:aa:c5:35:df:
         ba:98:d8:23:73:c7:2e:d4:de:73:ce:e7:39:1f:b2:b2:17:aa:
         d4:3d:e8:58:99:65:e7:81:10:6c:09:ae:0b:71:ec:01:be:9c:
         47:9d:ad:9b:05:a3:ec:29:30:56:74:66:a3:4a:94:b5:80:77:
         9f:ca:25:f7:25:85:62:05:d9:e3:df:02:17:55:79:1d:45:59:
         09:f6:e4:2c:e3:b6:f6:1b:7d:4b:5f:74:a0:cf:6e:0a:3b:a0:
         f6:37:2e:60:63:6e:46:af:a1:41:a3:2c:0c:47:45:d9:21:cd:
         66:37:21:21:d3:39:49:f6:ca:14:2a:68:99:4c:d0:c5:0d:12:
         2a:11:bf:8a:48:07:aa:7d:55:4c:cf:3f:eb:2d:ea:78:96:35:
         5a:0f:86:12:6f:64:b7:30:af:03:75:33:ba:1f:17:29:f4:a9:
         d4:50:b9:59:91:f5:ed:43:4f:a0:0c:67:c8:da:25:04:4e:76:
         2c:61:66:99:b8:e1:c8:2b:84:0b:f6:99:f4:7d:f4:2b:31:28:
         ed:5e:83:b1:3a:5d:9e:eb:ff:77:71:7b:9d:6f:3f:a9:f5:bf:
         96:e3:7b:31:94:05:4f:79:85:ab:09:ba:fd:d5:66:ac:62:0b:
         5c:d4:5b:25:84:59:86:ec:36:11:2a:1f:97:80:fe:14:7a:88:
         69:cf:e9:72:37:8e:d8:1d
-----BEGIN CERTIFICATE-----
MIIGrTCCBJWgAwIBAgICJFEwDQYJKoZIhvcNAQELBQAwgawxCzAJBgNVBAYTAlVT
MQswCQYDVQQIEwJPSDERMA8GA1UEBxMIQ29sdW1idXMxEjAQBgNVBAoTCVZpa2lu
Z1ZQTjEdMBsGA1UECxMUTXlPcmdhbml6YXRpb25hbFVuaXQxFTATBgNVBAMTDFZp
a2luZ1ZQTiBDQTEQMA4GA1UEKRMHRWFzeVJTQTEhMB8GCSqGSIb3DQEJARYSbWVA
bXlob3N0Lm15ZG9tYWluMB4XDTE2MTAyMjE1NTk1MFoXDTI2MTAyMDE1NTk1MFow
HzEdMBsGA1UEAxMUQ2xpZW50MTM1OUNlcnQ5YWJhMDgwggIiMA0GCSqGSIb3DQEB
AQUAA4ICDwAwggIKAoICAQCsuD2FuDTLB3leydJREyvNO74a+9LCcu3Ts2mQr6Fk
bQfc+l2WjsXuZgH2CNCLyq4bZxohYwhmMRtRqffOlvPeRLdvt2koHdhTtyy+xxQm
CRs656tvIa36gy0xqtL4imLswjYFSvC/AiKPLwZBK23qR6xAAgm7sO1wVpypJORJ
UuNyesiuwrDfU1pvCS0R8Xt1kLKgAhXgO6o8DOtsCJwAjTmFyy6BqZyHcNEb+HxJ
gDMMBwtjU6VVAoBe6slYvlnB1ezI43+FY59iceG7EfCiZm1lUPvMYUVuN26UZEXM
9T0VQjdqJyfwM1Rh6p3IT9iPlWif3EyPexZ3O4MhriJTvw7TrFVGrrPEY7KbdZ2G
cJIm7jh7KwxG4KrDS7pMVJZHsGCbVRWuxo1eR8nSv5yXF+jNJVcOZQN1g5MzHsW5
FZbsjr7Di4I7TzWubKRkbvB2oLFnxWlBeRd6RhqEmFfEMwKO7y4Eat63OXgrp2Zb
Ruxxgrt2BiJh7rNzQ/6BYyq3hx4BWs0CZ85tRpIUjW4A7iehTgiyrHlTDaNrDqBX
4CwruVBR1PVOK+D9Y7pBg+nooQhEmMWwPIbrOITUB8D8p79jXiEZfEL05Vu1nNCc
i0r2RvJNERoAUGx5OvXZBC24IeB+TQbEbMNHA8tQwX1YB33Q4uAfCDyTfLARBReo
jwIDAQABo4IBYzCCAV8wCQYDVR0TBAIwADAtBglghkgBhvhCAQ0EIBYeRWFzeS1S
U0EgR2VuZXJhdGVkIENlcnRpZmljYXRlMB0GA1UdDgQWBBTswjy3tpH4j11mVIMG
wwTEP2joiDCB4QYDVR0jBIHZMIHWgBQSzWAE0qCAnnDtxpm4eyzGUv0ZoaGBsqSB
rzCBrDELMAkGA1UEBhMCVVMxCzAJBgNVBAgTAk9IMREwDwYDVQQHEwhDb2x1bWJ1
czESMBAGA1UEChMJVmlraW5nVlBOMR0wGwYDVQQLExRNeU9yZ2FuaXphdGlvbmFs
VW5pdDEVMBMGA1UEAxMMVmlraW5nVlBOIENBMRAwDgYDVQQpEwdFYXN5UlNBMSEw
HwYJKoZIhvcNAQkBFhJtZUBteWhvc3QubXlkb21haW6CCQDPNYXugL8qPjATBgNV
HSUEDDAKBggrBgEFBQcDAjALBgNVHQ8EBAMCB4AwDQYJKoZIhvcNAQELBQADggIB
AMcumO9sspNSgHe/d1gs/0JWgFdpKw7/PFOPREGDK4ThwcgpfXEP6CtVTGSq3UY3
NXEX13hS+g6aqsBaNooPz1rrqi2a8UDoKBNz6iDPbXAkkUsBCNbTKzwdKvQP+LNo
lXr8Bfo/hX/aA7yNNJAuYWrouvDEABGrgz23vPs2mko0ImlSufLe5FopwcW1cKpQ
cuwUB3xIE+a4mPACLrfrR7i5wvgrtJfxD2Bq7FVf+/oFMIML6mnb2wnYPlah8DXZ
hHiGKs8obTeHklBqqZpg9BQiQ6AB7KzPkr1sf03fBP+wJJB008wpBy51nLZHw4qO
wGCKtm3dIVtfqsU137qY2CNzxy7U3nPO5zkfsrIXqtQ96FiZZeeBEGwJrgtx7AG+
nEedrZsFo+wpMFZ0ZqNKlLWAd5/KJfclhWIF2ePfAhdVeR1FWQn25CzjtvYbfUtf
dKDPbgo7oPY3LmBjbkavoUGjLAxHRdkhzWY3ISHTOUn2yhQqaJlM0MUNEioRv4pI
B6p9VUzPP+st6niWNVoPhhJvZLcwrwN1M7ofFyn0qdRQuVmR9e1DT6AMZ8jaJQRO
dixhZpm44cgrhAv2mfR99CsxKO1eg7E6XZ7r/3dxe51vP6n1v5bjezGUBU95hasJ
uv3VZqxiC1zUWyWEWYbsNhEqH5eA/hR6iGnP6XI3jtgd
-----END CERTIFICATE-----
