Certificate:
    Data:
        Version: 3 (0x2)
        Serial Number: 21 (0x15)
    Signature Algorithm: md5WithRSAEncryption
        Issuer: C=US, ST=OH, L=Columbus, O=VikingVPN, OU=MyOrganizationalUnit, CN=VikingVPN CA/name=EasyRSA/emailAddress=me@myhost.mydomain
        Validity
            Not Before: Jul 18 20:34:06 2013 GMT
            Not After : Jul 16 20:34:06 2023 GMT
        Subject: CN=Client23Cert184ab2
        Subject Public Key Info:
            Public Key Algorithm: rsaEncryption
                Public-Key: (4096 bit)
                Modulus:
                    00:e0:78:22:22:4e:41:56:09:4e:d6:61:32:b9:5b:
                    73:c8:c5:6b:c6:f9:5f:11:42:76:09:06:3e:6a:57:
                    e9:d6:6c:e9:f3:25:ac:ca:e8:6b:42:d0:02:b9:79:
                    13:4a:99:75:ca:cb:4a:ed:c8:9d:8e:8e:50:29:7a:
                    45:99:90:04:44:d8:ca:d9:b0:86:cc:31:34:5a:c9:
                    12:c6:01:10:23:51:b8:53:5f:af:e2:b9:c8:f4:d4:
                    bc:53:be:7a:a9:4e:3f:92:2a:a5:dd:b7:d7:e9:98:
                    87:e0:a5:0f:9a:43:e4:db:95:52:1c:d4:0d:07:24:
                    d9:12:a7:c2:ea:2b:2f:82:1c:46:44:8b:95:98:0f:
                    89:91:62:d4:43:18:4c:79:65:18:64:0f:b6:98:6e:
                    74:31:bb:32:08:59:cd:38:cb:97:7d:e3:36:d7:71:
                    a6:de:ab:f1:c5:bc:ff:e4:a9:ca:8a:29:77:30:f9:
                    e6:b1:0e:7d:d3:27:64:67:e2:60:0e:08:24:99:1b:
                    e7:dc:76:4c:ee:5a:67:6b:22:5a:09:85:2e:ff:9c:
                    5e:eb:68:fb:9c:ba:a4:21:cd:ae:a8:b8:68:98:e8:
                    9b:1c:56:93:e4:bc:6c:d0:6f:c1:a8:f9:b5:81:dc:
                    4f:8b:bd:13:ca:41:28:05:60:8a:32:6c:6e:f1:76:
                    4a:a5:1c:95:c5:e2:f3:9c:61:05:e8:9c:3f:60:35:
                    77:cd:78:31:f5:dc:ff:ee:50:fc:fe:8e:ff:20:83:
                    b5:43:0c:a8:35:06:50:12:6e:92:73:e8:88:dd:17:
                    f8:ad:f1:2c:3c:9b:02:a3:90:7c:12:a1:f1:29:dd:
                    c2:f5:88:3d:a3:54:40:d7:16:1d:b3:5e:d6:3c:92:
                    19:49:f7:f8:45:63:81:40:db:1c:6a:3a:0b:6f:02:
                    32:38:ea:6a:32:0e:3f:57:87:36:5f:0b:60:70:45:
                    22:49:fe:d6:e2:c3:fa:7b:88:f1:0b:18:df:75:c4:
                    0a:a9:ab:2c:52:73:40:98:e1:b4:d6:65:04:4d:cb:
                    63:11:90:0c:f6:ab:ba:5d:27:98:9f:cf:4d:fa:4b:
                    8f:e5:e9:93:cd:b5:7b:17:1c:12:0a:23:4a:6d:40:
                    f1:ee:cf:06:09:e9:8e:ea:81:f5:f2:53:99:b7:cc:
                    76:52:0c:76:bd:0e:2c:e5:f6:38:ec:0f:49:1d:66:
                    e8:ff:06:09:e1:94:bd:b2:ae:d3:4a:c1:1f:08:55:
                    c2:17:aa:f0:d9:c7:8a:2e:d0:c9:a6:a7:2f:cb:b9:
                    5c:91:ed:13:a3:a2:9f:5e:f8:37:14:8f:f7:e7:7e:
                    2b:1e:44:9c:27:05:32:8d:ca:3e:d2:1d:2a:74:d2:
                    5c:cf:6f
                Exponent: 65537 (0x10001)
        X509v3 extensions:
            X509v3 Basic Constraints: 
                CA:FALSE
            Netscape Comment: 
                Easy-RSA Generated Certificate
            X509v3 Subject Key Identifier: 
                0A:31:F5:43:FE:57:CE:14:CA:C2:D6:B4:CE:4F:31:49:90:6B:78:86
            X509v3 Authority Key Identifier: 
                keyid:12:CD:60:04:D2:A0:80:9E:70:ED:C6:99:B8:7B:2C:C6:52:FD:19:A1
                DirName:/C=US/ST=OH/L=Columbus/O=VikingVPN/OU=MyOrganizationalUnit/CN=VikingVPN CA/name=EasyRSA/emailAddress=me@myhost.mydomain
                serial:CF:35:85:EE:80:BF:2A:3E

            X509v3 Extended Key Usage: 
                TLS Web Client Authentication
            X509v3 Key Usage: 
                Digital Signature
    Signature Algorithm: md5WithRSAEncryption
         05:cc:d6:7f:4b:02:61:79:2e:eb:db:dd:4c:b6:68:fd:64:d1:
         f6:e0:f9:13:cc:f1:5e:88:a2:b9:78:db:86:11:75:43:cd:83:
         ff:db:aa:08:98:8e:2c:21:93:12:6d:2b:0e:ef:58:53:fa:56:
         98:cc:3e:80:49:6f:63:72:92:6b:b0:2d:fc:a1:e3:39:1a:3d:
         28:6a:41:a6:f1:59:30:e3:eb:aa:d9:14:35:a6:23:1c:31:95:
         06:f6:d5:ad:26:df:88:42:ba:4d:94:08:1d:2c:1f:44:e4:72:
         b7:e7:1b:b1:cf:4e:0f:80:63:e6:a4:c5:29:d2:20:c6:99:74:
         2c:43:f9:85:b1:1c:81:97:6e:f7:a0:c7:3d:b6:13:c2:71:a4:
         18:7f:04:a9:4e:4a:2f:33:e1:41:7f:77:3f:fc:5a:a4:91:d0:
         c0:b7:9c:05:02:94:d1:f8:92:19:54:2c:7f:33:68:f8:d9:9a:
         5d:b7:7d:cc:b4:a2:c8:9c:fb:f1:04:e2:70:28:2a:01:a2:76:
         48:78:38:b5:5a:e8:bc:54:0d:aa:ef:72:f1:a5:45:49:d4:67:
         30:71:fb:d6:6b:a4:46:ed:72:f1:95:ed:fe:62:a4:11:71:21:
         c2:7d:ed:8c:6d:1d:ad:d8:72:fc:ce:d2:b1:6b:7e:cb:78:b7:
         70:a2:ff:4f:16:1d:fe:65:fa:0f:16:d0:3d:66:85:25:c2:f8:
         d0:76:13:28:24:eb:6c:44:00:b6:0a:25:ea:d5:61:d1:fe:ee:
         35:57:22:bc:98:4a:f3:ad:c1:67:fe:8a:65:f2:95:00:f7:4c:
         bc:a0:2a:b7:23:cd:cb:cd:ef:ec:3e:e4:ee:7e:c4:4a:c9:b4:
         37:d2:8c:45:28:0f:99:4f:c4:20:ee:f7:b7:05:20:86:18:ba:
         c6:bb:5b:8f:51:b1:3f:dd:fc:f9:41:19:67:2f:72:3e:12:96:
         f2:9e:92:2a:21:17:b0:27:23:7a:e8:32:55:c8:b1:54:06:a5:
         23:df:3f:6b:96:7c:73:7a:f1:12:26:0a:c7:f2:e4:85:1c:8b:
         5f:50:14:74:1f:19:82:91:2e:ce:f3:56:57:55:fb:52:89:8a:
         c5:2c:8e:b4:6f:11:4d:f1:45:12:45:29:aa:f9:cb:e3:bb:73:
         d9:c3:e5:24:c0:ea:79:a7:4a:ec:b3:5e:83:c7:91:41:9b:b5:
         29:58:44:23:25:85:a1:ce:3d:85:20:5c:c7:12:43:11:2d:6f:
         77:2e:64:cf:97:6b:d8:56:d4:b0:50:28:c4:3a:6e:8d:cf:a2:
         d5:60:4b:76:e3:b4:6c:3b:b6:36:63:db:9c:21:32:a1:98:a0:
         75:66:c7:89:85:ee:d8:5a
-----BEGIN CERTIFICATE-----
MIIGqjCCBJKgAwIBAgIBFTANBgkqhkiG9w0BAQQFADCBrDELMAkGA1UEBhMCVVMx
CzAJBgNVBAgTAk9IMREwDwYDVQQHEwhDb2x1bWJ1czESMBAGA1UEChMJVmlraW5n
VlBOMR0wGwYDVQQLExRNeU9yZ2FuaXphdGlvbmFsVW5pdDEVMBMGA1UEAxMMVmlr
aW5nVlBOIENBMRAwDgYDVQQpEwdFYXN5UlNBMSEwHwYJKoZIhvcNAQkBFhJtZUBt
eWhvc3QubXlkb21haW4wHhcNMTMwNzE4MjAzNDA2WhcNMjMwNzE2MjAzNDA2WjAd
MRswGQYDVQQDExJDbGllbnQyM0NlcnQxODRhYjIwggIiMA0GCSqGSIb3DQEBAQUA
A4ICDwAwggIKAoICAQDgeCIiTkFWCU7WYTK5W3PIxWvG+V8RQnYJBj5qV+nWbOnz
JazK6GtC0AK5eRNKmXXKy0rtyJ2OjlApekWZkARE2MrZsIbMMTRayRLGARAjUbhT
X6/iucj01LxTvnqpTj+SKqXdt9fpmIfgpQ+aQ+TblVIc1A0HJNkSp8LqKy+CHEZE
i5WYD4mRYtRDGEx5ZRhkD7aYbnQxuzIIWc04y5d94zbXcabeq/HFvP/kqcqKKXcw
+eaxDn3TJ2Rn4mAOCCSZG+fcdkzuWmdrIloJhS7/nF7raPucuqQhza6ouGiY6Jsc
VpPkvGzQb8Go+bWB3E+LvRPKQSgFYIoybG7xdkqlHJXF4vOcYQXonD9gNXfNeDH1
3P/uUPz+jv8gg7VDDKg1BlASbpJz6IjdF/it8Sw8mwKjkHwSofEp3cL1iD2jVEDX
Fh2zXtY8khlJ9/hFY4FA2xxqOgtvAjI46moyDj9XhzZfC2BwRSJJ/tbiw/p7iPEL
GN91xAqpqyxSc0CY4bTWZQRNy2MRkAz2q7pdJ5ifz036S4/l6ZPNtXsXHBIKI0pt
QPHuzwYJ6Y7qgfXyU5m3zHZSDHa9Dizl9jjsD0kdZuj/BgnhlL2yrtNKwR8IVcIX
qvDZx4ou0Mmmpy/LuVyR7ROjop9e+DcUj/fnfiseRJwnBTKNyj7SHSp00lzPbwID
AQABo4IBYzCCAV8wCQYDVR0TBAIwADAtBglghkgBhvhCAQ0EIBYeRWFzeS1SU0Eg
R2VuZXJhdGVkIENlcnRpZmljYXRlMB0GA1UdDgQWBBQKMfVD/lfOFMrC1rTOTzFJ
kGt4hjCB4QYDVR0jBIHZMIHWgBQSzWAE0qCAnnDtxpm4eyzGUv0ZoaGBsqSBrzCB
rDELMAkGA1UEBhMCVVMxCzAJBgNVBAgTAk9IMREwDwYDVQQHEwhDb2x1bWJ1czES
MBAGA1UEChMJVmlraW5nVlBOMR0wGwYDVQQLExRNeU9yZ2FuaXphdGlvbmFsVW5p
dDEVMBMGA1UEAxMMVmlraW5nVlBOIENBMRAwDgYDVQQpEwdFYXN5UlNBMSEwHwYJ
KoZIhvcNAQkBFhJtZUBteWhvc3QubXlkb21haW6CCQDPNYXugL8qPjATBgNVHSUE
DDAKBggrBgEFBQcDAjALBgNVHQ8EBAMCB4AwDQYJKoZIhvcNAQEEBQADggIBAAXM
1n9LAmF5Luvb3Uy2aP1k0fbg+RPM8V6Iorl424YRdUPNg//bqgiYjiwhkxJtKw7v
WFP6VpjMPoBJb2NykmuwLfyh4zkaPShqQabxWTDj66rZFDWmIxwxlQb21a0m34hC
uk2UCB0sH0TkcrfnG7HPTg+AY+akxSnSIMaZdCxD+YWxHIGXbvegxz22E8JxpBh/
BKlOSi8z4UF/dz/8WqSR0MC3nAUClNH4khlULH8zaPjZml23fcy0osic+/EE4nAo
KgGidkh4OLVa6LxUDarvcvGlRUnUZzBx+9ZrpEbtcvGV7f5ipBFxIcJ97YxtHa3Y
cvzO0rFrfst4t3Ci/08WHf5l+g8W0D1mhSXC+NB2Eygk62xEALYKJerVYdH+7jVX
IryYSvOtwWf+imXylQD3TLygKrcjzcvN7+w+5O5+xErJtDfSjEUoD5lPxCDu97cF
IIYYusa7W49RsT/d/PlBGWcvcj4SlvKekiohF7AnI3roMlXIsVQGpSPfP2uWfHN6
8RImCsfy5IUci19QFHQfGYKRLs7zVldV+1KJisUsjrRvEU3xRRJFKar5y+O7c9nD
5STA6nmnSuyzXoPHkUGbtSlYRCMlhaHOPYUgXMcSQxEtb3cuZM+Xa9hW1LBQKMQ6
bo3PotVgS3bjtGw7tjZj25whMqGYoHVmx4mF7tha
-----END CERTIFICATE-----
