Certificate:
    Data:
        Version: 3 (0x2)
        Serial Number: 2023 (0x7e7)
    Signature Algorithm: md5WithRSAEncryption
        Issuer: C=US, ST=OH, L=Columbus, O=VikingVPN, OU=MyOrganizationalUnit, CN=VikingVPN CA/name=EasyRSA/emailAddress=me@myhost.mydomain
        Validity
            Not Before: Jun  4 12:54:45 2014 GMT
            Not After : Jun  1 12:54:45 2024 GMT
        Subject: CN=Client698Cert681600
        Subject Public Key Info:
            Public Key Algorithm: rsaEncryption
                Public-Key: (4096 bit)
                Modulus:
                    00:c8:ec:cf:13:a3:d5:18:03:cc:4c:c2:72:c2:47:
                    df:5a:08:d0:43:2e:33:2f:2b:42:2c:de:3b:a2:4c:
                    17:00:7e:42:51:06:57:11:89:9f:d8:9f:c5:f8:29:
                    fd:19:c0:d6:3b:ee:2c:ec:e9:3b:09:74:d0:35:6f:
                    91:73:6e:68:f9:7e:eb:8c:4c:47:1f:67:b0:b5:db:
                    9a:12:be:02:56:e7:55:38:81:6b:9f:4e:a5:fe:e9:
                    9d:4d:5e:71:57:90:5d:9a:87:30:c4:da:8b:ba:45:
                    05:8d:f3:b0:f3:ac:3a:64:8d:77:33:db:c7:23:9f:
                    c2:64:a3:43:a8:70:bb:ed:ea:fc:d0:51:5f:48:90:
                    e8:f5:24:75:b7:33:3f:0c:5c:5b:b5:06:20:6b:5a:
                    43:3f:dd:e4:4f:af:3c:ac:59:8e:d9:d3:c7:33:aa:
                    35:04:dd:eb:ca:b0:0a:0c:da:dc:d8:cd:e1:a5:e6:
                    86:9a:a7:f0:de:7b:cd:41:3a:2b:8e:77:72:a5:03:
                    a4:ac:59:9b:2e:88:0b:ef:c1:fd:70:1d:4a:6a:dd:
                    2f:18:56:0c:86:77:8e:a5:5d:96:0a:4a:b1:e2:31:
                    e8:93:56:e7:c2:59:c1:5d:a3:17:be:92:b6:eb:19:
                    c6:f1:d5:c3:4c:0b:21:0d:a6:f2:73:41:79:6d:c5:
                    5c:d9:27:e6:72:b1:08:60:27:cd:1d:b1:7a:8a:77:
                    07:6c:fd:78:87:54:2d:25:14:22:16:d7:60:81:93:
                    cf:9b:96:e1:1e:83:f6:f8:22:27:f6:46:a3:86:42:
                    be:c7:e4:b0:c1:0e:87:a2:c9:75:79:8c:5f:29:92:
                    15:9f:78:c3:dc:b2:e2:9f:01:05:d8:15:b9:f8:92:
                    e6:18:a1:e6:d1:6e:19:34:d6:7b:99:08:9e:b8:e9:
                    82:95:d3:cf:4e:6e:5d:a9:a5:23:06:4a:59:86:00:
                    c6:c0:3a:df:d8:77:11:90:1e:34:ca:0b:9b:c8:98:
                    97:08:0e:92:78:6b:82:46:f3:80:be:1a:44:47:8d:
                    34:52:a3:5b:a1:16:e8:2d:43:42:71:17:69:e7:9f:
                    c3:b8:31:20:a6:4d:6c:e4:2b:32:9a:6c:d6:cb:33:
                    ed:b4:6f:02:4b:59:d9:11:bc:7c:35:1f:62:5d:a1:
                    5f:90:77:69:37:8d:3d:49:c4:a6:9a:55:6e:2b:f6:
                    50:bd:3f:47:e0:a5:22:41:45:d3:56:e2:95:f7:23:
                    d1:43:b0:a5:8f:57:d0:63:4a:01:6c:1d:cc:fa:01:
                    9a:10:e5:4c:1a:54:98:79:f9:03:2f:7f:be:a8:ad:
                    40:bf:68:c9:2d:59:1e:6d:55:66:97:90:4f:27:a6:
                    1e:2f:e3
                Exponent: 65537 (0x10001)
        X509v3 extensions:
            X509v3 Basic Constraints: 
                CA:FALSE
            Netscape Comment: 
                Easy-RSA Generated Certificate
            X509v3 Subject Key Identifier: 
                92:2D:6F:AA:D1:1E:81:F8:D3:33:CA:65:50:99:98:5A:17:D1:4F:E5
            X509v3 Authority Key Identifier: 
                keyid:12:CD:60:04:D2:A0:80:9E:70:ED:C6:99:B8:7B:2C:C6:52:FD:19:A1
                DirName:/C=US/ST=OH/L=Columbus/O=VikingVPN/OU=MyOrganizationalUnit/CN=VikingVPN CA/name=EasyRSA/emailAddress=me@myhost.mydomain
                serial:CF:35:85:EE:80:BF:2A:3E

            X509v3 Extended Key Usage: 
                TLS Web Client Authentication
            X509v3 Key Usage: 
                Digital Signature
    Signature Algorithm: md5WithRSAEncryption
         4e:60:84:53:ae:9d:ab:11:3e:9d:a4:a9:bb:da:46:8a:1f:94:
         2d:f4:ec:f5:a4:57:b6:d1:72:cc:d2:a0:05:f3:c6:69:c9:3b:
         53:44:9c:5d:dc:cd:6c:1a:39:99:83:58:93:7c:fd:e7:bf:2f:
         52:74:93:cd:1f:e0:93:d2:19:7b:13:1a:e5:b3:ba:72:11:31:
         1e:06:da:41:8f:f2:54:cc:64:88:7e:3e:54:cb:f2:c0:a4:f1:
         ff:16:fd:97:5a:b0:1d:d0:ea:72:4f:bb:53:4f:91:e2:30:4c:
         78:f2:06:5c:35:29:f1:ed:66:9c:cd:fa:65:d3:19:78:56:14:
         5f:f1:1a:6a:13:fa:39:d4:24:44:1d:1b:87:98:a1:65:67:47:
         6f:57:5d:60:5e:97:13:82:1e:99:50:a6:e9:ea:77:e1:39:34:
         ff:58:ef:fb:5c:0e:bc:06:52:52:b9:45:06:88:74:2b:d6:a8:
         46:09:a9:44:bc:a1:0c:b7:b7:38:9c:26:ad:5e:42:31:e4:5e:
         51:c2:c2:fc:35:e6:93:ec:34:06:76:98:ed:5a:b1:58:16:ca:
         95:0b:4e:72:d3:70:ed:09:bb:51:a6:ab:9f:97:ba:42:b9:5c:
         43:62:73:30:22:0e:06:8c:0f:cc:3a:14:a0:7f:c3:c5:f8:40:
         34:1f:62:99:b4:44:ef:3f:3a:84:f2:02:33:fc:f6:68:1b:e9:
         74:fc:b9:38:11:c0:42:d1:36:19:25:27:53:7c:d0:4a:42:cc:
         4b:3d:fb:89:43:db:a2:d0:e1:be:7f:da:6d:e0:41:0e:29:60:
         28:78:26:3d:91:6e:bf:eb:0e:95:75:67:3f:07:72:15:88:2f:
         7d:ca:1c:c8:79:57:15:78:26:14:33:1f:d9:9f:ca:9a:9f:1d:
         10:21:2c:f6:f4:a5:09:bc:3f:26:46:7b:ec:3a:46:7b:8a:c6:
         01:4e:1c:8b:41:45:9f:ed:34:ad:29:e9:78:69:d4:2e:6a:5b:
         c9:af:95:29:2d:04:d9:80:77:92:8a:fe:42:d0:81:59:30:8d:
         2c:2b:13:4c:d1:05:1b:90:37:3e:69:28:22:e7:fc:86:19:c7:
         33:d9:c3:74:14:68:b9:73:be:fc:d7:d2:de:ac:8d:69:a6:7d:
         13:da:8f:49:42:dd:4f:8d:cb:16:47:84:23:55:21:6a:33:f7:
         7d:8f:23:ae:55:5d:35:8b:a4:3a:8f:b6:64:8b:83:e5:25:1a:
         e2:7c:55:30:b3:e5:9c:7a:b1:08:91:41:71:1d:cc:a6:09:5f:
         12:4c:5f:00:86:86:7f:17:17:4d:61:ae:17:b1:34:f0:38:d7:
         31:bc:b1:68:d4:f1:02:14
-----BEGIN CERTIFICATE-----
MIIGrDCCBJSgAwIBAgICB+cwDQYJKoZIhvcNAQEEBQAwgawxCzAJBgNVBAYTAlVT
MQswCQYDVQQIEwJPSDERMA8GA1UEBxMIQ29sdW1idXMxEjAQBgNVBAoTCVZpa2lu
Z1ZQTjEdMBsGA1UECxMUTXlPcmdhbml6YXRpb25hbFVuaXQxFTATBgNVBAMTDFZp
a2luZ1ZQTiBDQTEQMA4GA1UEKRMHRWFzeVJTQTEhMB8GCSqGSIb3DQEJARYSbWVA
bXlob3N0Lm15ZG9tYWluMB4XDTE0MDYwNDEyNTQ0NVoXDTI0MDYwMTEyNTQ0NVow
HjEcMBoGA1UEAxMTQ2xpZW50Njk4Q2VydDY4MTYwMDCCAiIwDQYJKoZIhvcNAQEB
BQADggIPADCCAgoCggIBAMjszxOj1RgDzEzCcsJH31oI0EMuMy8rQizeO6JMFwB+
QlEGVxGJn9ifxfgp/RnA1jvuLOzpOwl00DVvkXNuaPl+64xMRx9nsLXbmhK+Albn
VTiBa59Opf7pnU1ecVeQXZqHMMTai7pFBY3zsPOsOmSNdzPbxyOfwmSjQ6hwu+3q
/NBRX0iQ6PUkdbczPwxcW7UGIGtaQz/d5E+vPKxZjtnTxzOqNQTd68qwCgza3NjN
4aXmhpqn8N57zUE6K453cqUDpKxZmy6IC+/B/XAdSmrdLxhWDIZ3jqVdlgpKseIx
6JNW58JZwV2jF76StusZxvHVw0wLIQ2m8nNBeW3FXNkn5nKxCGAnzR2xeop3B2z9
eIdULSUUIhbXYIGTz5uW4R6D9vgiJ/ZGo4ZCvsfksMEOh6LJdXmMXymSFZ94w9yy
4p8BBdgVufiS5hih5tFuGTTWe5kInrjpgpXTz05uXamlIwZKWYYAxsA639h3EZAe
NMoLm8iYlwgOknhrgkbzgL4aREeNNFKjW6EW6C1DQnEXaeefw7gxIKZNbOQrMpps
1ssz7bRvAktZ2RG8fDUfYl2hX5B3aTeNPUnEpppVbiv2UL0/R+ClIkFF01bilfcj
0UOwpY9X0GNKAWwdzPoBmhDlTBpUmHn5Ay9/vqitQL9oyS1ZHm1VZpeQTyemHi/j
AgMBAAGjggFjMIIBXzAJBgNVHRMEAjAAMC0GCWCGSAGG+EIBDQQgFh5FYXN5LVJT
QSBHZW5lcmF0ZWQgQ2VydGlmaWNhdGUwHQYDVR0OBBYEFJItb6rRHoH40zPKZVCZ
mFoX0U/lMIHhBgNVHSMEgdkwgdaAFBLNYATSoICecO3Gmbh7LMZS/RmhoYGypIGv
MIGsMQswCQYDVQQGEwJVUzELMAkGA1UECBMCT0gxETAPBgNVBAcTCENvbHVtYnVz
MRIwEAYDVQQKEwlWaWtpbmdWUE4xHTAbBgNVBAsTFE15T3JnYW5pemF0aW9uYWxV
bml0MRUwEwYDVQQDEwxWaWtpbmdWUE4gQ0ExEDAOBgNVBCkTB0Vhc3lSU0ExITAf
BgkqhkiG9w0BCQEWEm1lQG15aG9zdC5teWRvbWFpboIJAM81he6Avyo+MBMGA1Ud
JQQMMAoGCCsGAQUFBwMCMAsGA1UdDwQEAwIHgDANBgkqhkiG9w0BAQQFAAOCAgEA
TmCEU66dqxE+naSpu9pGih+ULfTs9aRXttFyzNKgBfPGack7U0ScXdzNbBo5mYNY
k3z9578vUnSTzR/gk9IZexMa5bO6chExHgbaQY/yVMxkiH4+VMvywKTx/xb9l1qw
HdDqck+7U0+R4jBMePIGXDUp8e1mnM36ZdMZeFYUX/EaahP6OdQkRB0bh5ihZWdH
b1ddYF6XE4IemVCm6ep34Tk0/1jv+1wOvAZSUrlFBoh0K9aoRgmpRLyhDLe3OJwm
rV5CMeReUcLC/DXmk+w0BnaY7VqxWBbKlQtOctNw7Qm7Uaarn5e6QrlcQ2JzMCIO
BowPzDoUoH/DxfhANB9imbRE7z86hPICM/z2aBvpdPy5OBHAQtE2GSUnU3zQSkLM
Sz37iUPbotDhvn/abeBBDilgKHgmPZFuv+sOlXVnPwdyFYgvfcocyHlXFXgmFDMf
2Z/Kmp8dECEs9vSlCbw/JkZ77DpGe4rGAU4ci0FFn+00rSnpeGnULmpbya+VKS0E
2YB3kor+QtCBWTCNLCsTTNEFG5A3PmkoIuf8hhnHM9nDdBRouXO+/NfS3qyNaaZ9
E9qPSULdT43LFkeEI1UhajP3fY8jrlVdNYukOo+2ZIuD5SUa4nxVMLPlnHqxCJFB
cR3MpglfEkxfAIaGfxcXTWGuF7E08DjXMbyxaNTxAhQ=
-----END CERTIFICATE-----
