Certificate:
    Data:
        Version: 3 (0x2)
        Serial Number: 6281 (0x1889)
    Signature Algorithm: md5WithRSAEncryption
        Issuer: C=US, ST=OH, L=Columbus, O=VikingVPN, OU=MyOrganizationalUnit, CN=VikingVPN CA/name=EasyRSA/emailAddress=me@myhost.mydomain
        Validity
            Not Before: Sep 16 03:22:12 2015 GMT
            Not After : Sep 13 03:22:12 2025 GMT
        Subject: CN=Client1675Cert2c25f9
        Subject Public Key Info:
            Public Key Algorithm: rsaEncryption
                Public-Key: (4096 bit)
                Modulus:
                    00:98:4a:ff:c6:80:06:9c:e7:7c:c5:52:bf:e4:89:
                    70:9b:73:8a:fd:1e:12:a8:f1:8f:9f:38:cc:67:f3:
                    bb:62:3a:46:05:66:17:4e:50:2e:0c:00:8e:4f:6d:
                    63:99:2f:20:94:03:48:a1:25:45:2e:91:bb:2a:c0:
                    3f:8b:5c:48:cf:32:71:61:22:70:6f:8a:15:40:b9:
                    09:d1:f0:7c:91:4e:09:42:7a:7f:c8:9d:a5:40:46:
                    ab:ef:64:62:a2:e5:7a:e7:eb:37:54:22:a7:4e:91:
                    94:39:2f:5c:8c:1f:93:37:42:6f:a4:49:04:5e:72:
                    0f:30:da:0e:d5:41:1c:dd:63:ed:1e:8e:e6:7c:ae:
                    e1:eb:e3:8d:b2:ec:4e:bf:72:3c:7e:4e:c3:16:c1:
                    7c:a9:cd:6d:fc:d7:9d:47:92:04:ae:f1:34:99:63:
                    38:6f:77:9a:42:33:17:79:1e:ca:b8:66:56:a0:c8:
                    e4:12:4a:92:a5:b6:99:09:0c:db:4c:ef:ec:ca:d3:
                    6d:b4:86:58:54:83:98:31:9b:fd:a9:ea:3f:66:24:
                    a6:dd:02:d5:c7:97:21:d5:31:35:0f:72:b8:09:be:
                    19:00:fd:17:70:a0:a0:9a:70:ff:64:d3:68:4d:14:
                    78:5f:ee:28:aa:c6:41:55:d2:c6:04:2f:9d:24:d9:
                    a3:b8:ca:50:ff:76:ba:ec:32:4d:fc:ba:5c:37:0f:
                    13:30:bb:51:0c:cb:7d:c6:9c:c6:25:bb:70:a5:99:
                    be:8c:e2:9b:4d:dd:2f:1d:f3:40:5f:a6:39:27:4a:
                    72:f5:6f:1d:fe:8f:cc:75:dd:43:de:7e:aa:28:b7:
                    de:40:b1:a6:3a:e2:b9:7c:16:77:99:0f:ba:29:87:
                    a5:e1:c1:5c:55:92:67:94:28:fa:4c:b5:52:35:fc:
                    86:27:50:20:96:56:35:73:3e:d4:b2:f7:6f:0e:7f:
                    f3:a0:5d:8f:29:39:5c:44:fe:77:05:fb:e4:39:1f:
                    bf:d1:0c:86:22:87:7f:c7:9f:54:4e:81:f3:c6:9b:
                    5c:ef:e7:c7:30:f3:0e:72:89:d5:ab:35:d4:48:b4:
                    e8:61:2f:b3:5b:e1:4f:55:8c:de:38:c6:41:02:bf:
                    b3:4b:7b:96:d3:9e:e3:df:a6:7e:71:f0:d6:87:e7:
                    6c:01:e8:c0:3d:36:57:54:8c:b7:9d:b0:71:73:99:
                    30:e7:a7:73:4d:9a:73:14:c7:77:92:47:9e:6c:8b:
                    78:b4:5d:b0:cf:5c:fd:cf:34:7b:06:f6:b3:9a:c0:
                    63:14:03:c8:55:d3:67:43:0f:2a:2e:5e:17:07:91:
                    4c:7e:42:3d:30:cf:89:4d:fd:14:7a:b1:2f:47:60:
                    09:5c:35
                Exponent: 65537 (0x10001)
        X509v3 extensions:
            X509v3 Basic Constraints: 
                CA:FALSE
            Netscape Comment: 
                Easy-RSA Generated Certificate
            X509v3 Subject Key Identifier: 
                F3:66:24:30:47:14:E6:30:6E:F3:97:4C:B5:EB:13:8A:B8:D5:9E:E3
            X509v3 Authority Key Identifier: 
                keyid:12:CD:60:04:D2:A0:80:9E:70:ED:C6:99:B8:7B:2C:C6:52:FD:19:A1
                DirName:/C=US/ST=OH/L=Columbus/O=VikingVPN/OU=MyOrganizationalUnit/CN=VikingVPN CA/name=EasyRSA/emailAddress=me@myhost.mydomain
                serial:CF:35:85:EE:80:BF:2A:3E

            X509v3 Extended Key Usage: 
                TLS Web Client Authentication
            X509v3 Key Usage: 
                Digital Signature
    Signature Algorithm: md5WithRSAEncryption
         55:fe:7c:ce:80:65:31:43:b5:ce:c6:6d:30:75:46:97:50:7b:
         e4:c9:e9:03:d7:4b:ea:cc:33:4f:8d:36:c7:e5:cf:13:8e:1f:
         6f:53:6b:6d:69:83:4d:27:99:92:98:71:4d:af:87:81:b9:92:
         ca:c3:56:c2:e3:64:93:c4:b1:47:4d:4d:2a:8b:42:dd:fc:fe:
         e3:06:d8:d7:82:bb:59:31:4c:e0:88:13:55:09:36:aa:af:48:
         b4:40:df:18:73:5e:36:47:70:49:92:7d:ba:08:35:f4:d4:db:
         40:a5:15:62:1a:ec:af:ba:fe:c1:2c:e9:40:bc:87:b5:63:df:
         44:0e:06:b7:92:8a:c1:4d:7f:25:f5:9b:e3:95:cd:96:2f:8f:
         04:0b:8d:3e:45:34:b9:6a:b5:9a:4e:5d:69:66:9f:b3:9b:40:
         ca:b7:e1:83:28:44:f1:ca:e8:72:4d:e9:97:c3:53:7b:72:c8:
         e2:37:94:78:47:05:30:d0:e9:5e:76:42:8b:42:d7:ec:52:70:
         8f:25:e8:fe:75:da:9d:0d:db:e5:39:c2:ab:53:8f:13:86:a8:
         9d:a9:8e:fe:f1:b4:12:20:f1:ba:e1:28:3f:a1:65:f4:aa:a7:
         36:db:42:ca:ba:93:a1:3a:03:13:8c:f1:c4:e1:75:b3:73:78:
         30:1d:4c:43:bc:4f:57:20:39:a8:91:11:97:46:5b:9c:c3:76:
         01:3f:36:84:2a:f9:19:20:57:31:1a:1e:97:99:68:1c:26:4b:
         3f:23:bb:7b:dd:d5:a4:47:66:d8:fd:26:d9:0c:54:34:e2:99:
         47:6b:83:e5:a8:a0:40:b5:7e:26:00:bb:8e:6c:de:55:3d:c0:
         7b:e4:7c:ac:a9:78:79:b9:d8:44:5f:e7:e6:b4:30:d0:7a:f1:
         88:d1:b7:b6:b5:d2:2f:2a:48:38:d4:c1:f3:d2:25:d0:8a:87:
         36:93:60:e5:7a:7b:bb:8c:70:77:76:b2:35:2d:b3:a1:c7:48:
         6a:72:c4:38:d6:7f:01:27:ab:49:0b:44:55:43:39:11:c8:c7:
         a7:2e:d2:b5:c2:2e:c9:c7:a7:1d:a8:1a:20:3d:3e:fb:7a:bc:
         b0:0c:88:bc:0a:b8:93:07:29:59:74:23:09:9c:a9:7b:e6:c9:
         4c:74:73:aa:7f:6c:37:bb:6b:ce:43:50:bb:1b:54:a2:80:2c:
         75:02:dd:80:18:de:58:fc:bd:cb:d2:cd:85:a0:c1:42:66:dd:
         a8:03:6d:c7:c7:d8:02:73:7c:5c:20:77:f4:02:37:1e:40:ba:
         8b:c1:3f:81:69:3c:f8:66:e2:ef:e3:12:67:3d:bd:6e:9f:de:
         15:bd:a5:87:86:90:72:f7
-----BEGIN CERTIFICATE-----
MIIGrTCCBJWgAwIBAgICGIkwDQYJKoZIhvcNAQEEBQAwgawxCzAJBgNVBAYTAlVT
MQswCQYDVQQIEwJPSDERMA8GA1UEBxMIQ29sdW1idXMxEjAQBgNVBAoTCVZpa2lu
Z1ZQTjEdMBsGA1UECxMUTXlPcmdhbml6YXRpb25hbFVuaXQxFTATBgNVBAMTDFZp
a2luZ1ZQTiBDQTEQMA4GA1UEKRMHRWFzeVJTQTEhMB8GCSqGSIb3DQEJARYSbWVA
bXlob3N0Lm15ZG9tYWluMB4XDTE1MDkxNjAzMjIxMloXDTI1MDkxMzAzMjIxMlow
HzEdMBsGA1UEAxMUQ2xpZW50MTY3NUNlcnQyYzI1ZjkwggIiMA0GCSqGSIb3DQEB
AQUAA4ICDwAwggIKAoICAQCYSv/GgAac53zFUr/kiXCbc4r9HhKo8Y+fOMxn87ti
OkYFZhdOUC4MAI5PbWOZLyCUA0ihJUUukbsqwD+LXEjPMnFhInBvihVAuQnR8HyR
TglCen/InaVARqvvZGKi5Xrn6zdUIqdOkZQ5L1yMH5M3Qm+kSQRecg8w2g7VQRzd
Y+0ejuZ8ruHr442y7E6/cjx+TsMWwXypzW38151HkgSu8TSZYzhvd5pCMxd5Hsq4
ZlagyOQSSpKltpkJDNtM7+zK0220hlhUg5gxm/2p6j9mJKbdAtXHlyHVMTUPcrgJ
vhkA/RdwoKCacP9k02hNFHhf7iiqxkFV0sYEL50k2aO4ylD/drrsMk38ulw3DxMw
u1EMy33GnMYlu3Clmb6M4ptN3S8d80BfpjknSnL1bx3+j8x13UPefqoot95AsaY6
4rl8FneZD7oph6XhwVxVkmeUKPpMtVI1/IYnUCCWVjVzPtSy928Of/OgXY8pOVxE
/ncF++Q5H7/RDIYih3/Hn1ROgfPGm1zv58cw8w5yidWrNdRItOhhL7Nb4U9VjN44
xkECv7NLe5bTnuPfpn5x8NaH52wB6MA9NldUjLedsHFzmTDnp3NNmnMUx3eSR55s
i3i0XbDPXP3PNHsG9rOawGMUA8hV02dDDyouXhcHkUx+Qj0wz4lN/RR6sS9HYAlc
NQIDAQABo4IBYzCCAV8wCQYDVR0TBAIwADAtBglghkgBhvhCAQ0EIBYeRWFzeS1S
U0EgR2VuZXJhdGVkIENlcnRpZmljYXRlMB0GA1UdDgQWBBTzZiQwRxTmMG7zl0y1
6xOKuNWe4zCB4QYDVR0jBIHZMIHWgBQSzWAE0qCAnnDtxpm4eyzGUv0ZoaGBsqSB
rzCBrDELMAkGA1UEBhMCVVMxCzAJBgNVBAgTAk9IMREwDwYDVQQHEwhDb2x1bWJ1
czESMBAGA1UEChMJVmlraW5nVlBOMR0wGwYDVQQLExRNeU9yZ2FuaXphdGlvbmFs
VW5pdDEVMBMGA1UEAxMMVmlraW5nVlBOIENBMRAwDgYDVQQpEwdFYXN5UlNBMSEw
HwYJKoZIhvcNAQkBFhJtZUBteWhvc3QubXlkb21haW6CCQDPNYXugL8qPjATBgNV
HSUEDDAKBggrBgEFBQcDAjALBgNVHQ8EBAMCB4AwDQYJKoZIhvcNAQEEBQADggIB
AFX+fM6AZTFDtc7GbTB1RpdQe+TJ6QPXS+rMM0+NNsflzxOOH29Ta21pg00nmZKY
cU2vh4G5ksrDVsLjZJPEsUdNTSqLQt38/uMG2NeCu1kxTOCIE1UJNqqvSLRA3xhz
XjZHcEmSfboINfTU20ClFWIa7K+6/sEs6UC8h7Vj30QOBreSisFNfyX1m+OVzZYv
jwQLjT5FNLlqtZpOXWlmn7ObQMq34YMoRPHK6HJN6ZfDU3tyyOI3lHhHBTDQ6V52
QotC1+xScI8l6P512p0N2+U5wqtTjxOGqJ2pjv7xtBIg8brhKD+hZfSqpzbbQsq6
k6E6AxOM8cThdbNzeDAdTEO8T1cgOaiREZdGW5zDdgE/NoQq+RkgVzEaHpeZaBwm
Sz8ju3vd1aRHZtj9JtkMVDTimUdrg+WooEC1fiYAu45s3lU9wHvkfKypeHm52ERf
5+a0MNB68YjRt7a10i8qSDjUwfPSJdCKhzaTYOV6e7uMcHd2sjUts6HHSGpyxDjW
fwEnq0kLRFVDORHIx6cu0rXCLsnHpx2oGiA9Pvt6vLAMiLwKuJMHKVl0IwmcqXvm
yUx0c6p/bDe7a85DULsbVKKALHUC3YAY3lj8vcvSzYWgwUJm3agDbcfH2AJzfFwg
d/QCNx5AuovBP4FpPPhm4u/jEmc9vW6f3hW9pYeGkHL3
-----END CERTIFICATE-----
