Certificate:
    Data:
        Version: 3 (0x2)
        Serial Number: 4013 (0xfad)
    Signature Algorithm: md5WithRSAEncryption
        Issuer: C=US, ST=OH, L=Columbus, O=VikingVPN, OU=MyOrganizationalUnit, CN=VikingVPN CA/name=EasyRSA/emailAddress=me@myhost.mydomain
        Validity
            Not Before: Jan  5 01:51:11 2015 GMT
            Not After : Jan  2 01:51:11 2025 GMT
        Subject: CN=Client1327Cert22bb03
        Subject Public Key Info:
            Public Key Algorithm: rsaEncryption
                Public-Key: (4096 bit)
                Modulus:
                    00:b5:a0:60:a5:e3:eb:68:18:a5:c4:84:d8:b2:51:
                    90:41:37:0b:34:06:1b:9f:9e:07:a3:8b:9d:7e:2b:
                    a0:c8:06:61:63:24:3d:65:49:ba:62:31:f2:0e:6d:
                    fc:28:e4:f8:67:36:72:e6:9a:95:63:d6:92:a1:9a:
                    49:ee:59:7b:92:dc:c6:f5:d7:89:fa:ec:8f:3d:51:
                    b3:29:da:e1:a6:a8:dc:45:7c:94:b9:89:83:f6:a4:
                    b9:2d:40:f8:ee:7f:f0:78:ba:d6:ff:1d:ff:92:47:
                    bf:02:fb:04:21:b2:31:9c:df:bb:e9:1d:a5:cd:06:
                    0d:1d:4c:bb:6a:2b:a2:4a:d0:43:d7:bf:25:44:14:
                    8b:fc:55:41:25:16:d7:fe:1d:07:85:c0:ad:8f:85:
                    e3:24:b2:cb:e8:c0:eb:df:b3:49:2f:fa:97:06:42:
                    f4:7c:a8:d5:bb:80:bd:ec:1f:06:52:dc:31:b7:ce:
                    87:d3:c3:d2:16:2d:e0:51:68:43:f2:05:89:28:c6:
                    26:81:fe:ba:6a:05:1b:35:27:d9:b4:38:c7:24:47:
                    d0:14:a3:79:d8:1d:85:77:01:11:64:f8:c0:c6:81:
                    b4:4a:9e:8d:48:78:4e:27:a1:c8:d4:e0:0c:10:7c:
                    73:99:2c:56:bb:73:9c:a5:42:fa:1b:d1:08:d5:ac:
                    1d:21:bf:4f:82:fd:05:81:fa:35:ac:fa:8b:b9:a7:
                    23:b9:06:17:84:3e:58:84:cc:58:a3:26:68:bf:76:
                    a9:d0:42:4b:1b:08:52:db:c2:81:94:45:7b:5b:44:
                    f1:0e:89:b1:01:1a:42:83:a1:86:ba:03:b1:c1:ca:
                    aa:92:d4:50:bb:b4:60:45:cb:b7:6f:53:1f:7b:54:
                    ce:01:57:3d:9b:50:ba:e0:5c:e8:7f:be:80:e1:41:
                    f4:24:d7:8e:98:d1:85:3f:dc:03:ed:52:45:51:ed:
                    ef:55:6f:c8:33:c1:93:9a:38:41:0b:fb:5f:03:81:
                    56:bb:0c:84:e5:83:e5:26:75:bd:56:3b:8d:01:28:
                    ba:bd:18:38:2e:df:70:c3:7d:e0:df:94:60:3a:bd:
                    c6:06:14:29:a7:92:3b:03:ce:9a:e5:51:17:7d:63:
                    fd:83:42:2d:49:87:03:f1:98:4f:22:ed:61:d9:23:
                    73:6b:de:43:b7:bf:0c:8e:28:4c:21:d2:25:3b:e2:
                    a9:40:19:65:e8:ac:22:4c:4a:b3:20:73:c0:75:08:
                    2e:ae:c3:91:38:ac:be:ad:a6:10:42:a8:da:dc:51:
                    75:65:27:98:82:45:90:d5:4f:1a:54:8d:2b:9f:b1:
                    26:b0:f4:91:58:9e:ce:ab:15:00:8f:ad:9b:c0:7c:
                    db:68:95
                Exponent: 65537 (0x10001)
        X509v3 extensions:
            X509v3 Basic Constraints: 
                CA:FALSE
            Netscape Comment: 
                Easy-RSA Generated Certificate
            X509v3 Subject Key Identifier: 
                2C:FB:BF:05:C4:51:7D:3E:2A:46:2D:4A:B2:B0:2A:00:B1:5E:4E:D8
            X509v3 Authority Key Identifier: 
                keyid:12:CD:60:04:D2:A0:80:9E:70:ED:C6:99:B8:7B:2C:C6:52:FD:19:A1
                DirName:/C=US/ST=OH/L=Columbus/O=VikingVPN/OU=MyOrganizationalUnit/CN=VikingVPN CA/name=EasyRSA/emailAddress=me@myhost.mydomain
                serial:CF:35:85:EE:80:BF:2A:3E

            X509v3 Extended Key Usage: 
                TLS Web Client Authentication
            X509v3 Key Usage: 
                Digital Signature
    Signature Algorithm: md5WithRSAEncryption
         8a:c8:c6:40:62:1f:7f:68:95:cc:f9:a6:fa:4f:d3:6f:a4:4a:
         d8:b6:18:10:97:59:83:4c:80:62:92:f0:25:b5:54:27:ae:4b:
         f9:ae:1e:88:be:29:96:02:97:87:32:a3:fc:88:1e:55:36:73:
         c1:f0:4d:84:a1:45:75:48:ed:b3:0d:47:da:68:98:1a:f1:70:
         cf:50:46:be:c3:44:0f:30:6f:e2:a3:6a:d0:a8:02:a8:d6:cb:
         03:6e:4c:3f:da:43:dd:6a:1e:c0:f6:d0:22:bd:f1:c0:fa:f9:
         c9:59:df:94:72:d4:2f:e6:33:5e:c9:e8:9a:7d:6c:32:a5:b3:
         fe:ee:82:cb:d2:f5:1c:f7:ab:47:e4:5b:e4:09:e9:38:78:48:
         de:98:e2:39:40:8f:ff:9f:a7:ea:66:d1:78:67:b6:12:0b:4b:
         8c:b3:3b:ce:e5:99:75:d2:53:43:d7:20:77:42:3f:0b:0d:46:
         83:aa:44:82:66:df:1a:3c:2f:d1:ec:1e:e4:53:b9:18:71:46:
         4d:6f:be:d2:d9:53:67:f6:df:10:4c:ce:d2:18:4f:03:a3:3a:
         da:23:f5:b7:62:45:f7:6e:d4:1c:d4:5b:3b:17:d6:f6:77:1f:
         0e:dc:d6:cf:a1:dd:8e:d1:e1:03:8f:a4:d9:e3:18:c7:37:59:
         a3:af:4c:2a:17:e1:1c:04:ba:7e:f0:9e:ed:9f:88:39:74:16:
         04:dd:83:0c:fc:60:1f:8e:b4:20:21:7a:83:12:a5:00:09:dd:
         95:2f:51:a1:c4:d3:ca:1f:93:c2:75:cb:25:90:23:59:a4:43:
         c2:44:48:e1:e2:83:49:08:53:83:f2:ba:38:eb:cd:ec:92:dc:
         9d:05:d3:7d:cf:06:32:74:b3:fc:d1:16:c5:03:a6:05:33:2e:
         be:e6:f3:96:5f:9b:88:bd:78:dd:0d:ce:0e:df:09:97:e9:15:
         04:20:28:c5:c8:19:c0:85:e9:46:19:29:9e:83:cb:de:da:e3:
         04:9e:2c:67:a2:19:8c:1e:83:e5:20:63:1d:a0:64:a9:5d:3c:
         33:b7:4e:f4:2c:91:e6:59:41:bb:fb:37:29:eb:12:bb:bb:b5:
         b1:53:d9:72:70:51:26:96:8f:fb:36:6b:cc:4b:a1:88:ff:27:
         82:1e:2b:42:ec:ce:b5:3d:1b:4b:fa:07:c3:e6:3d:be:0e:09:
         a6:73:7a:ec:e3:5a:7b:15:59:1e:09:8e:c5:a8:a2:cc:f7:ea:
         5f:fa:cb:9d:d5:08:45:78:99:fd:50:ad:53:92:cf:05:5d:90:
         fc:57:52:e2:6e:ee:ec:84:e1:ab:57:ee:d4:cf:b5:4e:9e:1d:
         57:52:11:52:36:c7:3e:f5
-----BEGIN CERTIFICATE-----
MIIGrTCCBJWgAwIBAgICD60wDQYJKoZIhvcNAQEEBQAwgawxCzAJBgNVBAYTAlVT
MQswCQYDVQQIEwJPSDERMA8GA1UEBxMIQ29sdW1idXMxEjAQBgNVBAoTCVZpa2lu
Z1ZQTjEdMBsGA1UECxMUTXlPcmdhbml6YXRpb25hbFVuaXQxFTATBgNVBAMTDFZp
a2luZ1ZQTiBDQTEQMA4GA1UEKRMHRWFzeVJTQTEhMB8GCSqGSIb3DQEJARYSbWVA
bXlob3N0Lm15ZG9tYWluMB4XDTE1MDEwNTAxNTExMVoXDTI1MDEwMjAxNTExMVow
HzEdMBsGA1UEAxMUQ2xpZW50MTMyN0NlcnQyMmJiMDMwggIiMA0GCSqGSIb3DQEB
AQUAA4ICDwAwggIKAoICAQC1oGCl4+toGKXEhNiyUZBBNws0Bhufngeji51+K6DI
BmFjJD1lSbpiMfIObfwo5PhnNnLmmpVj1pKhmknuWXuS3Mb114n67I89UbMp2uGm
qNxFfJS5iYP2pLktQPjuf/B4utb/Hf+SR78C+wQhsjGc37vpHaXNBg0dTLtqK6JK
0EPXvyVEFIv8VUElFtf+HQeFwK2PheMkssvowOvfs0kv+pcGQvR8qNW7gL3sHwZS
3DG3zofTw9IWLeBRaEPyBYkoxiaB/rpqBRs1J9m0OMckR9AUo3nYHYV3ARFk+MDG
gbRKno1IeE4nocjU4AwQfHOZLFa7c5ylQvob0QjVrB0hv0+C/QWB+jWs+ou5pyO5
BheEPliEzFijJmi/dqnQQksbCFLbwoGURXtbRPEOibEBGkKDoYa6A7HByqqS1FC7
tGBFy7dvUx97VM4BVz2bULrgXOh/voDhQfQk146Y0YU/3APtUkVR7e9Vb8gzwZOa
OEEL+18DgVa7DITlg+Umdb1WO40BKLq9GDgu33DDfeDflGA6vcYGFCmnkjsDzprl
URd9Y/2DQi1JhwPxmE8i7WHZI3Nr3kO3vwyOKEwh0iU74qlAGWXorCJMSrMgc8B1
CC6uw5E4rL6tphBCqNrcUXVlJ5iCRZDVTxpUjSufsSaw9JFYns6rFQCPrZvAfNto
lQIDAQABo4IBYzCCAV8wCQYDVR0TBAIwADAtBglghkgBhvhCAQ0EIBYeRWFzeS1S
U0EgR2VuZXJhdGVkIENlcnRpZmljYXRlMB0GA1UdDgQWBBQs+78FxFF9PipGLUqy
sCoAsV5O2DCB4QYDVR0jBIHZMIHWgBQSzWAE0qCAnnDtxpm4eyzGUv0ZoaGBsqSB
rzCBrDELMAkGA1UEBhMCVVMxCzAJBgNVBAgTAk9IMREwDwYDVQQHEwhDb2x1bWJ1
czESMBAGA1UEChMJVmlraW5nVlBOMR0wGwYDVQQLExRNeU9yZ2FuaXphdGlvbmFs
VW5pdDEVMBMGA1UEAxMMVmlraW5nVlBOIENBMRAwDgYDVQQpEwdFYXN5UlNBMSEw
HwYJKoZIhvcNAQkBFhJtZUBteWhvc3QubXlkb21haW6CCQDPNYXugL8qPjATBgNV
HSUEDDAKBggrBgEFBQcDAjALBgNVHQ8EBAMCB4AwDQYJKoZIhvcNAQEEBQADggIB
AIrIxkBiH39olcz5pvpP02+kSti2GBCXWYNMgGKS8CW1VCeuS/muHoi+KZYCl4cy
o/yIHlU2c8HwTYShRXVI7bMNR9pomBrxcM9QRr7DRA8wb+KjatCoAqjWywNuTD/a
Q91qHsD20CK98cD6+clZ35Ry1C/mM17J6Jp9bDKls/7ugsvS9Rz3q0fkW+QJ6Th4
SN6Y4jlAj/+fp+pm0XhnthILS4yzO87lmXXSU0PXIHdCPwsNRoOqRIJm3xo8L9Hs
HuRTuRhxRk1vvtLZU2f23xBMztIYTwOjOtoj9bdiRfdu1BzUWzsX1vZ3Hw7c1s+h
3Y7R4QOPpNnjGMc3WaOvTCoX4RwEun7wnu2fiDl0FgTdgwz8YB+OtCAheoMSpQAJ
3ZUvUaHE08ofk8J1yyWQI1mkQ8JESOHig0kIU4PyujjrzeyS3J0F033PBjJ0s/zR
FsUDpgUzLr7m85Zfm4i9eN0Nzg7fCZfpFQQgKMXIGcCF6UYZKZ6Dy97a4wSeLGei
GYweg+UgYx2gZKldPDO3TvQskeZZQbv7NynrEru7tbFT2XJwUSaWj/s2a8xLoYj/
J4IeK0LszrU9G0v6B8PmPb4OCaZzeuzjWnsVWR4JjsWoosz36l/6y53VCEV4mf1Q
rVOSzwVdkPxXUuJu7uyE4atX7tTPtU6eHVdSEVI2xz71
-----END CERTIFICATE-----
