Certificate:
    Data:
        Version: 3 (0x2)
        Serial Number: 2056 (0x808)
    Signature Algorithm: md5WithRSAEncryption
        Issuer: C=US, ST=OH, L=Columbus, O=VikingVPN, OU=MyOrganizationalUnit, CN=VikingVPN CA/name=EasyRSA/emailAddress=me@myhost.mydomain
        Validity
            Not Before: Jun  8 07:18:54 2014 GMT
            Not After : Jun  5 07:18:54 2024 GMT
        Subject: CN=Client717Certe3e524
        Subject Public Key Info:
            Public Key Algorithm: rsaEncryption
                Public-Key: (4096 bit)
                Modulus:
                    00:af:87:12:3a:15:d1:a2:e8:45:75:38:a6:20:7a:
                    a0:e2:4f:1d:17:7c:1a:3a:0a:40:7b:7d:d6:f8:bc:
                    9e:3a:b4:04:44:ca:12:26:03:f2:27:ce:60:ae:4a:
                    19:bc:b9:7e:62:0e:7a:53:5e:13:62:1a:d8:9c:7b:
                    1c:ee:82:c8:aa:37:e9:f4:7b:67:cd:9c:0c:7e:bc:
                    cb:a6:26:1b:3b:29:c9:05:0a:03:ec:00:67:76:1b:
                    2f:5b:b5:02:95:78:6a:38:13:ac:c6:ce:d7:b0:7e:
                    f0:2a:b4:0b:da:79:5d:5c:d9:54:b0:89:a6:18:2e:
                    7d:d7:46:64:62:bb:ba:0a:f7:07:8a:4f:a8:63:0a:
                    e4:ff:66:1f:65:c1:0a:e0:1d:8b:24:c1:b6:81:45:
                    c2:91:e7:af:17:79:67:61:6f:62:13:fe:c7:23:39:
                    f7:e9:7e:5b:27:56:ff:0b:93:ee:51:c1:1b:69:53:
                    57:27:13:71:d5:1b:a5:cd:40:a0:81:e2:62:ec:7b:
                    eb:39:b2:66:29:5a:0a:4c:0a:08:e0:66:4a:84:e0:
                    cf:cd:fb:e5:1c:23:36:00:a9:c5:b2:6d:9e:a3:3c:
                    c9:08:c5:6b:a1:65:e4:6d:ab:ae:f0:02:be:f7:e4:
                    1d:4c:a6:44:1e:ea:a2:a0:e6:1a:50:d5:73:3b:8f:
                    22:f0:dc:60:c9:65:61:85:7b:aa:19:d7:1d:0e:1c:
                    d0:bb:f9:03:ca:ae:cc:5e:15:29:e1:1f:da:56:4e:
                    43:82:0c:c2:0c:cc:7c:d0:cf:c3:64:65:f0:02:0e:
                    5e:e6:19:4c:a0:0a:7a:46:4e:0d:4a:22:b8:5c:8c:
                    1d:d7:bf:45:ee:23:ca:82:2a:9b:55:a8:72:3e:1e:
                    28:46:25:1e:2b:fd:4f:a4:d4:fa:69:a7:00:2f:85:
                    f3:a9:74:28:4a:d8:2d:27:04:9f:c2:95:ac:78:e1:
                    59:af:ec:d0:e6:9e:57:ea:e5:23:ee:5f:f6:e3:b7:
                    b9:59:a2:04:bf:85:9e:1b:92:0a:e8:36:58:5b:d3:
                    ac:22:1f:b1:92:ce:98:b5:a9:df:e3:79:94:48:cd:
                    4a:a9:57:31:19:0a:f5:c3:c7:cf:c9:39:50:03:48:
                    28:60:f3:c5:12:26:44:16:d6:3a:19:3e:d9:a1:cb:
                    2e:bc:cd:07:c5:75:da:db:90:69:12:bd:a6:b6:fd:
                    24:f2:39:d6:04:e0:63:c9:87:d5:5b:3a:72:36:e7:
                    14:ed:15:12:77:02:ee:f1:71:49:9d:86:a7:3c:30:
                    31:1d:c3:4e:3e:ee:a3:39:ce:61:38:45:a8:f3:16:
                    1c:88:9f:5d:59:09:9c:3f:70:4e:f7:ff:d3:b4:bb:
                    9d:03:3b
                Exponent: 65537 (0x10001)
        X509v3 extensions:
            X509v3 Basic Constraints: 
                CA:FALSE
            Netscape Comment: 
                Easy-RSA Generated Certificate
            X509v3 Subject Key Identifier: 
                57:CC:AC:9F:84:90:0B:54:0D:1B:C7:FE:EB:47:78:41:16:77:42:BE
            X509v3 Authority Key Identifier: 
                keyid:12:CD:60:04:D2:A0:80:9E:70:ED:C6:99:B8:7B:2C:C6:52:FD:19:A1
                DirName:/C=US/ST=OH/L=Columbus/O=VikingVPN/OU=MyOrganizationalUnit/CN=VikingVPN CA/name=EasyRSA/emailAddress=me@myhost.mydomain
                serial:CF:35:85:EE:80:BF:2A:3E

            X509v3 Extended Key Usage: 
                TLS Web Client Authentication
            X509v3 Key Usage: 
                Digital Signature
    Signature Algorithm: md5WithRSAEncryption
         49:8c:c2:22:c8:30:51:67:57:eb:9d:b5:39:3b:6e:f7:bb:98:
         e5:ce:08:b1:2d:b0:75:55:9f:66:3b:c4:e6:5e:20:e5:3d:f4:
         5e:92:42:c3:24:b0:83:21:e7:ee:25:49:6d:5b:b7:ae:d6:51:
         46:79:22:d7:2f:0f:4d:65:9f:16:20:ee:f0:6e:1b:2b:41:3b:
         04:b9:7c:47:6b:ae:45:69:bc:e1:ef:f7:7a:8f:90:e5:0d:4f:
         1b:53:18:fa:a2:24:df:3c:74:27:34:16:33:e2:88:a7:07:43:
         1a:d6:9d:21:93:cb:a0:96:31:f8:29:9a:05:f4:36:56:5a:f8:
         d3:46:32:d2:de:6a:2b:09:e0:16:5d:ca:2d:25:98:bd:1f:9f:
         af:03:41:6b:fa:06:e8:08:08:a8:0c:f0:c7:6b:9d:80:c3:a8:
         ce:a0:d9:10:87:09:9d:7f:b3:2b:40:25:58:9c:b1:56:cf:02:
         d1:8d:b9:e9:99:63:16:9a:a0:15:ea:e3:df:bd:ef:9e:2b:fd:
         58:83:db:3e:47:c0:9a:77:bf:40:63:03:81:18:4d:45:fc:fe:
         ad:63:03:e6:a6:dd:d0:9c:04:34:b6:6f:f7:fd:6c:e6:97:19:
         67:81:3a:cf:2c:cf:7f:9d:2b:9d:be:e8:29:dd:21:b2:9e:14:
         da:0f:30:ea:ca:0a:fe:96:ca:cf:b6:0e:b8:73:c3:f6:ff:f0:
         36:1a:d8:cd:89:5c:2a:11:d4:69:af:22:39:38:c5:e5:66:97:
         21:95:44:a6:3a:2b:93:8f:e2:ad:86:59:91:66:91:b8:4f:34:
         2e:67:19:05:08:ad:8c:96:2d:06:41:0d:d1:c9:a5:81:03:74:
         2e:a5:e6:d9:92:03:a1:5c:73:50:df:09:75:8f:e7:12:2b:d8:
         12:0d:cf:6a:9f:1c:c5:73:d5:85:cf:c3:2a:a5:4a:a6:f3:b3:
         49:60:61:56:76:a1:e1:21:40:b2:79:6b:e6:4c:8e:48:d3:e1:
         f4:55:7d:8e:b9:36:7d:92:b1:90:58:71:e0:04:32:a3:cd:5a:
         23:f0:18:e6:bd:b6:44:99:e7:64:60:03:fb:c9:02:48:c3:d9:
         ff:0b:6e:a3:16:ec:5d:46:1f:5c:94:85:04:d3:b5:b5:e7:bd:
         c2:2a:80:9f:0a:dc:94:e7:d0:2c:54:cb:82:a6:f4:09:b0:cf:
         64:d4:d0:89:7a:df:9c:16:3a:04:80:10:62:2d:62:e4:71:ae:
         0e:3d:f3:1d:6e:a4:6d:e8:d9:ca:1e:b4:90:98:02:1f:7e:b5:
         f5:78:84:69:8e:9c:f5:e3:2c:dd:78:a0:1b:fd:cf:31:5d:98:
         57:01:ae:86:aa:f2:a4:e8
-----BEGIN CERTIFICATE-----
MIIGrDCCBJSgAwIBAgICCAgwDQYJKoZIhvcNAQEEBQAwgawxCzAJBgNVBAYTAlVT
MQswCQYDVQQIEwJPSDERMA8GA1UEBxMIQ29sdW1idXMxEjAQBgNVBAoTCVZpa2lu
Z1ZQTjEdMBsGA1UECxMUTXlPcmdhbml6YXRpb25hbFVuaXQxFTATBgNVBAMTDFZp
a2luZ1ZQTiBDQTEQMA4GA1UEKRMHRWFzeVJTQTEhMB8GCSqGSIb3DQEJARYSbWVA
bXlob3N0Lm15ZG9tYWluMB4XDTE0MDYwODA3MTg1NFoXDTI0MDYwNTA3MTg1NFow
HjEcMBoGA1UEAxMTQ2xpZW50NzE3Q2VydGUzZTUyNDCCAiIwDQYJKoZIhvcNAQEB
BQADggIPADCCAgoCggIBAK+HEjoV0aLoRXU4piB6oOJPHRd8GjoKQHt91vi8njq0
BETKEiYD8ifOYK5KGby5fmIOelNeE2Ia2Jx7HO6CyKo36fR7Z82cDH68y6YmGzsp
yQUKA+wAZ3YbL1u1ApV4ajgTrMbO17B+8Cq0C9p5XVzZVLCJphgufddGZGK7ugr3
B4pPqGMK5P9mH2XBCuAdiyTBtoFFwpHnrxd5Z2FvYhP+xyM59+l+WydW/wuT7lHB
G2lTVycTcdUbpc1AoIHiYux76zmyZilaCkwKCOBmSoTgz8375RwjNgCpxbJtnqM8
yQjFa6Fl5G2rrvACvvfkHUymRB7qoqDmGlDVczuPIvDcYMllYYV7qhnXHQ4c0Lv5
A8quzF4VKeEf2lZOQ4IMwgzMfNDPw2Rl8AIOXuYZTKAKekZODUoiuFyMHde/Re4j
yoIqm1Wocj4eKEYlHiv9T6TU+mmnAC+F86l0KErYLScEn8KVrHjhWa/s0OaeV+rl
I+5f9uO3uVmiBL+FnhuSCug2WFvTrCIfsZLOmLWp3+N5lEjNSqlXMRkK9cPHz8k5
UANIKGDzxRImRBbWOhk+2aHLLrzNB8V12tuQaRK9prb9JPI51gTgY8mH1Vs6cjbn
FO0VEncC7vFxSZ2GpzwwMR3DTj7uoznOYThFqPMWHIifXVkJnD9wTvf/07S7nQM7
AgMBAAGjggFjMIIBXzAJBgNVHRMEAjAAMC0GCWCGSAGG+EIBDQQgFh5FYXN5LVJT
QSBHZW5lcmF0ZWQgQ2VydGlmaWNhdGUwHQYDVR0OBBYEFFfMrJ+EkAtUDRvH/utH
eEEWd0K+MIHhBgNVHSMEgdkwgdaAFBLNYATSoICecO3Gmbh7LMZS/RmhoYGypIGv
MIGsMQswCQYDVQQGEwJVUzELMAkGA1UECBMCT0gxETAPBgNVBAcTCENvbHVtYnVz
MRIwEAYDVQQKEwlWaWtpbmdWUE4xHTAbBgNVBAsTFE15T3JnYW5pemF0aW9uYWxV
bml0MRUwEwYDVQQDEwxWaWtpbmdWUE4gQ0ExEDAOBgNVBCkTB0Vhc3lSU0ExITAf
BgkqhkiG9w0BCQEWEm1lQG15aG9zdC5teWRvbWFpboIJAM81he6Avyo+MBMGA1Ud
JQQMMAoGCCsGAQUFBwMCMAsGA1UdDwQEAwIHgDANBgkqhkiG9w0BAQQFAAOCAgEA
SYzCIsgwUWdX6521OTtu97uY5c4IsS2wdVWfZjvE5l4g5T30XpJCwySwgyHn7iVJ
bVu3rtZRRnki1y8PTWWfFiDu8G4bK0E7BLl8R2uuRWm84e/3eo+Q5Q1PG1MY+qIk
3zx0JzQWM+KIpwdDGtadIZPLoJYx+CmaBfQ2Vlr400Yy0t5qKwngFl3KLSWYvR+f
rwNBa/oG6AgIqAzwx2udgMOozqDZEIcJnX+zK0AlWJyxVs8C0Y256ZljFpqgFerj
373vniv9WIPbPkfAmne/QGMDgRhNRfz+rWMD5qbd0JwENLZv9/1s5pcZZ4E6zyzP
f50rnb7oKd0hsp4U2g8w6soK/pbKz7YOuHPD9v/wNhrYzYlcKhHUaa8iOTjF5WaX
IZVEpjork4/irYZZkWaRuE80LmcZBQitjJYtBkEN0cmlgQN0LqXm2ZIDoVxzUN8J
dY/nEivYEg3Pap8cxXPVhc/DKqVKpvOzSWBhVnah4SFAsnlr5kyOSNPh9FV9jrk2
fZKxkFhx4AQyo81aI/AY5r22RJnnZGAD+8kCSMPZ/wtuoxbsXUYfXJSFBNO1tee9
wiqAnwrclOfQLFTLgqb0CbDPZNTQiXrfnBY6BIAQYi1i5HGuDj3zHW6kbejZyh60
kJgCH3619XiEaY6c9eMs3XigG/3PMV2YVwGuhqrypOg=
-----END CERTIFICATE-----
