Certificate:
    Data:
        Version: 3 (0x2)
        Serial Number: 5132 (0x140c)
    Signature Algorithm: md5WithRSAEncryption
        Issuer: C=US, ST=OH, L=Columbus, O=VikingVPN, OU=MyOrganizationalUnit, CN=VikingVPN CA/name=EasyRSA/emailAddress=me@myhost.mydomain
        Validity
            Not Before: May  2 21:06:20 2015 GMT
            Not After : Apr 29 21:06:20 2025 GMT
        Subject: CN=Client1649Cert6c567a
        Subject Public Key Info:
            Public Key Algorithm: rsaEncryption
                Public-Key: (4096 bit)
                Modulus:
                    00:ea:6f:2d:f5:81:5d:06:d3:f7:f3:1e:1d:55:ec:
                    86:81:61:4e:85:b4:68:38:73:d3:8c:0b:e1:02:95:
                    cc:46:1b:80:40:96:9d:81:fb:ec:e6:5d:1a:61:1c:
                    ab:38:04:19:c2:44:8a:7c:69:b4:c6:b1:14:a4:99:
                    dc:b5:41:36:f8:4e:66:c0:c9:19:87:0f:a6:75:10:
                    7e:0c:63:ec:83:57:58:ca:89:24:f7:22:13:b6:dc:
                    df:07:7a:2a:bd:90:ca:17:d5:d8:86:6d:e1:ab:7b:
                    4e:19:31:60:30:ff:1a:1f:57:6e:34:f1:c5:33:d0:
                    7f:10:5c:46:ea:24:33:98:d5:76:bc:66:80:6f:55:
                    57:f6:63:76:11:6a:fb:fc:1f:0e:ac:43:55:e8:43:
                    6c:ae:5a:5a:e0:59:fb:d4:bc:b0:52:1e:e6:9f:81:
                    55:8d:1d:38:bd:80:9d:b2:1b:18:e6:e9:a6:02:be:
                    28:98:4a:e7:6e:76:a5:f1:85:70:63:86:2d:aa:90:
                    ec:65:90:d6:0e:03:15:ff:c2:84:e5:06:7b:e0:c5:
                    8e:cc:30:f9:df:54:c7:fa:4c:89:43:2c:65:e0:18:
                    1e:92:90:f5:06:b0:2c:80:81:e1:7f:b8:49:2e:3a:
                    7d:37:77:0f:9b:c2:24:39:8b:85:2d:02:27:5a:98:
                    67:cc:16:0c:d2:35:f4:16:ab:02:c3:a1:20:24:ee:
                    44:15:79:17:1a:7a:8f:dc:b3:8c:84:1e:a6:a0:e7:
                    49:96:8b:66:70:a3:5a:29:aa:c3:98:4c:93:6e:16:
                    55:c2:41:d2:05:c6:70:c6:9a:5c:69:61:61:32:8e:
                    20:0d:03:7e:da:30:f0:dd:44:85:ab:4b:14:b1:32:
                    c6:4e:45:65:33:11:56:4f:38:48:ce:85:7e:ba:a8:
                    2f:79:b9:10:f6:b4:a4:39:0f:3f:3f:4a:39:44:fc:
                    eb:6b:3d:93:be:e7:57:c8:8d:40:59:ac:dd:cb:5b:
                    b1:fc:b2:0c:32:97:db:5b:f0:d2:fb:ee:73:c5:65:
                    fb:39:52:ed:d7:dd:e4:a0:36:eb:f9:86:0c:44:44:
                    60:41:4d:77:28:11:9f:1d:12:83:0e:32:ef:d1:b2:
                    6e:ad:73:11:fc:34:9c:97:10:50:02:bc:e6:4e:8e:
                    bd:11:66:8a:b8:80:8c:42:e9:51:e0:60:f2:c5:d4:
                    50:20:2e:da:85:f1:1b:3f:91:c8:d8:9e:2c:54:66:
                    28:87:1c:49:7b:a5:e6:cd:b8:12:65:15:42:d0:ae:
                    fa:fa:f5:29:7d:0b:7c:24:5f:c3:85:7f:17:53:13:
                    7d:5b:35:0a:76:45:21:21:f1:b1:56:88:30:bb:64:
                    0b:b8:8b
                Exponent: 65537 (0x10001)
        X509v3 extensions:
            X509v3 Basic Constraints: 
                CA:FALSE
            Netscape Comment: 
                Easy-RSA Generated Certificate
            X509v3 Subject Key Identifier: 
                07:73:A3:B0:E8:42:A8:A4:53:8F:66:3C:1A:29:1F:D7:97:74:8F:D7
            X509v3 Authority Key Identifier: 
                keyid:12:CD:60:04:D2:A0:80:9E:70:ED:C6:99:B8:7B:2C:C6:52:FD:19:A1
                DirName:/C=US/ST=OH/L=Columbus/O=VikingVPN/OU=MyOrganizationalUnit/CN=VikingVPN CA/name=EasyRSA/emailAddress=me@myhost.mydomain
                serial:CF:35:85:EE:80:BF:2A:3E

            X509v3 Extended Key Usage: 
                TLS Web Client Authentication
            X509v3 Key Usage: 
                Digital Signature
    Signature Algorithm: md5WithRSAEncryption
         d6:eb:84:04:85:82:7f:5b:f9:c2:5a:ca:84:17:85:6d:b0:b5:
         bc:30:45:2c:f5:66:79:b1:4e:df:2d:36:60:90:3a:df:13:95:
         89:21:13:66:ac:95:00:f5:9f:bb:a8:0f:4d:82:83:81:c3:5c:
         31:c7:0d:18:85:a2:cb:f7:57:9c:a4:56:ea:5d:76:2d:3d:f9:
         32:bd:6f:4e:18:11:25:25:47:a5:fd:f2:41:f3:0c:2e:1a:eb:
         bf:91:48:99:24:85:97:fb:61:ac:7c:16:26:2b:8c:c4:6a:57:
         7c:af:94:cb:22:24:f6:93:9f:cc:3a:78:00:54:c9:0c:73:4f:
         de:29:53:ed:82:d1:11:48:61:26:da:92:6d:3f:6c:a8:66:e1:
         6e:07:cf:7d:0d:95:eb:1e:0a:0f:e9:f7:c5:7c:65:1a:cc:04:
         02:2c:9b:4c:3e:35:98:88:58:55:0e:0d:aa:e3:72:c4:e3:bb:
         6d:dc:b2:4a:8d:64:f8:dc:89:de:7f:ec:40:01:50:ab:82:57:
         59:3e:3f:c7:c9:47:38:4e:2c:a0:0f:61:48:6b:94:bd:15:d9:
         60:8c:93:4d:59:6b:80:6c:22:93:51:bb:c7:79:d1:6b:95:af:
         56:b3:7f:a3:1b:57:73:d9:1b:e2:9f:76:06:89:3f:4e:46:66:
         b8:49:ce:ae:ea:03:33:8c:b1:07:37:36:bc:64:b1:27:fe:32:
         0f:98:b0:5d:12:22:48:3f:2c:00:9c:d3:d5:71:32:62:0d:7a:
         10:0a:1b:a3:d1:ea:01:ef:09:b2:1a:5d:ca:11:d6:a7:f7:f7:
         de:7d:6d:f2:6f:55:3f:54:a2:09:75:05:34:1c:99:75:8c:5f:
         50:02:d1:3a:0e:71:19:7e:85:11:7c:02:8f:94:01:c1:10:94:
         e4:f8:39:1c:9f:25:71:ab:f0:f0:71:1a:dc:b3:f6:6c:6b:e9:
         24:33:19:05:33:8f:a8:31:60:19:d0:4e:7b:2d:ba:75:10:4b:
         23:16:00:6a:b1:14:14:d5:1c:8b:34:55:77:87:7c:dd:1c:df:
         aa:e6:b3:ac:0f:51:7a:39:2a:63:09:0d:66:b4:da:fd:d9:66:
         a9:d6:c4:d3:e0:bf:1c:5c:be:f6:69:3d:93:c0:5a:c4:64:89:
         e2:eb:80:c0:cc:73:b7:0a:67:41:27:13:79:a7:3e:f1:6d:68:
         5d:12:a0:60:5b:80:67:21:64:f2:6e:9a:48:42:69:0d:ab:f4:
         95:d1:8a:38:2c:0c:0b:0b:1d:84:7d:a4:5c:e9:3a:08:74:0a:
         97:dd:c3:e7:9f:8d:28:1f:eb:67:5c:72:ae:a2:ab:2c:f1:e8:
         c4:b5:a2:e5:25:56:ad:3d
-----BEGIN CERTIFICATE-----
MIIGrTCCBJWgAwIBAgICFAwwDQYJKoZIhvcNAQEEBQAwgawxCzAJBgNVBAYTAlVT
MQswCQYDVQQIEwJPSDERMA8GA1UEBxMIQ29sdW1idXMxEjAQBgNVBAoTCVZpa2lu
Z1ZQTjEdMBsGA1UECxMUTXlPcmdhbml6YXRpb25hbFVuaXQxFTATBgNVBAMTDFZp
a2luZ1ZQTiBDQTEQMA4GA1UEKRMHRWFzeVJTQTEhMB8GCSqGSIb3DQEJARYSbWVA
bXlob3N0Lm15ZG9tYWluMB4XDTE1MDUwMjIxMDYyMFoXDTI1MDQyOTIxMDYyMFow
HzEdMBsGA1UEAxMUQ2xpZW50MTY0OUNlcnQ2YzU2N2EwggIiMA0GCSqGSIb3DQEB
AQUAA4ICDwAwggIKAoICAQDqby31gV0G0/fzHh1V7IaBYU6FtGg4c9OMC+EClcxG
G4BAlp2B++zmXRphHKs4BBnCRIp8abTGsRSkmdy1QTb4TmbAyRmHD6Z1EH4MY+yD
V1jKiST3IhO23N8Heiq9kMoX1diGbeGre04ZMWAw/xofV2408cUz0H8QXEbqJDOY
1Xa8ZoBvVVf2Y3YRavv8Hw6sQ1XoQ2yuWlrgWfvUvLBSHuafgVWNHTi9gJ2yGxjm
6aYCviiYSududqXxhXBjhi2qkOxlkNYOAxX/woTlBnvgxY7MMPnfVMf6TIlDLGXg
GB6SkPUGsCyAgeF/uEkuOn03dw+bwiQ5i4UtAidamGfMFgzSNfQWqwLDoSAk7kQV
eRcaeo/cs4yEHqag50mWi2Zwo1opqsOYTJNuFlXCQdIFxnDGmlxpYWEyjiANA37a
MPDdRIWrSxSxMsZORWUzEVZPOEjOhX66qC95uRD2tKQ5Dz8/SjlE/OtrPZO+51fI
jUBZrN3LW7H8sgwyl9tb8NL77nPFZfs5Uu3X3eSgNuv5hgxERGBBTXcoEZ8dEoMO
Mu/Rsm6tcxH8NJyXEFACvOZOjr0RZoq4gIxC6VHgYPLF1FAgLtqF8Rs/kcjYnixU
ZiiHHEl7pebNuBJlFULQrvr69Sl9C3wkX8OFfxdTE31bNQp2RSEh8bFWiDC7ZAu4
iwIDAQABo4IBYzCCAV8wCQYDVR0TBAIwADAtBglghkgBhvhCAQ0EIBYeRWFzeS1S
U0EgR2VuZXJhdGVkIENlcnRpZmljYXRlMB0GA1UdDgQWBBQHc6Ow6EKopFOPZjwa
KR/Xl3SP1zCB4QYDVR0jBIHZMIHWgBQSzWAE0qCAnnDtxpm4eyzGUv0ZoaGBsqSB
rzCBrDELMAkGA1UEBhMCVVMxCzAJBgNVBAgTAk9IMREwDwYDVQQHEwhDb2x1bWJ1
czESMBAGA1UEChMJVmlraW5nVlBOMR0wGwYDVQQLExRNeU9yZ2FuaXphdGlvbmFs
VW5pdDEVMBMGA1UEAxMMVmlraW5nVlBOIENBMRAwDgYDVQQpEwdFYXN5UlNBMSEw
HwYJKoZIhvcNAQkBFhJtZUBteWhvc3QubXlkb21haW6CCQDPNYXugL8qPjATBgNV
HSUEDDAKBggrBgEFBQcDAjALBgNVHQ8EBAMCB4AwDQYJKoZIhvcNAQEEBQADggIB
ANbrhASFgn9b+cJayoQXhW2wtbwwRSz1ZnmxTt8tNmCQOt8TlYkhE2aslQD1n7uo
D02Cg4HDXDHHDRiFosv3V5ykVupddi09+TK9b04YESUlR6X98kHzDC4a67+RSJkk
hZf7Yax8FiYrjMRqV3yvlMsiJPaTn8w6eABUyQxzT94pU+2C0RFIYSbakm0/bKhm
4W4Hz30NleseCg/p98V8ZRrMBAIsm0w+NZiIWFUODarjcsTju23cskqNZPjcid5/
7EABUKuCV1k+P8fJRzhOLKAPYUhrlL0V2WCMk01Za4BsIpNRu8d50WuVr1azf6Mb
V3PZG+KfdgaJP05GZrhJzq7qAzOMsQc3NrxksSf+Mg+YsF0SIkg/LACc09VxMmIN
ehAKG6PR6gHvCbIaXcoR1qf39959bfJvVT9Uogl1BTQcmXWMX1AC0ToOcRl+hRF8
Ao+UAcEQlOT4ORyfJXGr8PBxGtyz9mxr6SQzGQUzj6gxYBnQTnstunUQSyMWAGqx
FBTVHIs0VXeHfN0c36rms6wPUXo5KmMJDWa02v3ZZqnWxNPgvxxcvvZpPZPAWsRk
ieLrgMDMc7cKZ0EnE3mnPvFtaF0SoGBbgGchZPJumkhCaQ2r9JXRijgsDAsLHYR9
pFzpOgh0Cpfdw+efjSgf62dccq6iqyzx6MS1ouUlVq09
-----END CERTIFICATE-----
