Certificate:
    Data:
        Version: 3 (0x2)
        Serial Number: 8156 (0x1fdc)
    Signature Algorithm: md5WithRSAEncryption
        Issuer: C=US, ST=OH, L=Columbus, O=VikingVPN, OU=MyOrganizationalUnit, CN=VikingVPN CA/name=EasyRSA/emailAddress=me@myhost.mydomain
        Validity
            Not Before: Jun  4 13:18:19 2016 GMT
            Not After : Jun  2 13:18:19 2026 GMT
        Subject: CN=Client2368Cert850c76
        Subject Public Key Info:
            Public Key Algorithm: rsaEncryption
                Public-Key: (4096 bit)
                Modulus:
                    00:e4:d0:5c:b0:d8:eb:6e:b6:6c:ef:c3:27:2e:26:
                    93:fa:10:45:35:fa:6a:b6:0d:e8:ad:62:ea:85:0b:
                    d3:05:38:81:cf:cc:29:54:1a:d5:a2:78:ed:00:96:
                    e5:c8:0c:0d:53:87:7f:c1:31:e5:54:fd:51:f1:5d:
                    6e:89:64:fb:78:91:3f:fd:af:c5:61:f7:7b:70:98:
                    35:03:18:38:f5:6f:30:c4:d2:f3:0a:e7:43:24:8b:
                    e9:62:9b:48:72:04:eb:3d:c7:9f:e4:fa:c1:a3:98:
                    1e:2f:aa:23:38:dc:45:c0:21:37:46:37:5d:aa:a5:
                    05:33:c6:73:22:97:c3:96:b4:18:77:61:f7:1e:df:
                    98:4a:22:a8:7c:b2:67:95:c7:f3:13:45:77:a1:99:
                    bb:e9:8e:8b:5e:f7:8f:a3:9a:a3:50:42:11:10:37:
                    9a:cd:94:e6:de:fb:40:e3:76:98:70:f1:57:82:e9:
                    ba:80:59:cd:78:14:68:52:10:36:0d:4c:5c:c6:8c:
                    c5:7f:2e:1f:a9:97:c5:e8:8b:69:a9:68:05:60:ce:
                    5b:5f:68:20:4c:cc:31:b7:59:11:f3:6c:bb:2b:a0:
                    0d:2c:ac:3c:40:6b:2e:f9:ee:1e:f1:c7:27:71:a4:
                    bf:d7:44:b7:2d:c8:fc:28:f8:d8:35:e3:fc:06:76:
                    79:eb:0b:e8:c5:48:4f:17:89:31:25:16:06:8d:6e:
                    80:90:df:df:a5:f4:bb:9c:4b:50:ff:24:0e:a5:b6:
                    67:f7:42:89:df:e3:b4:af:54:ee:85:cb:22:bf:e6:
                    59:5b:d3:d5:7c:b9:7e:84:57:c4:03:bb:c8:e4:ee:
                    c7:84:b5:dd:b8:0d:ad:02:5b:2c:a0:a9:84:43:f5:
                    81:a7:b2:2a:ca:56:10:9c:ef:0e:00:6b:9d:3c:0d:
                    f3:3d:51:fb:7b:de:06:c9:59:7a:0f:2e:b6:82:20:
                    e5:b1:d0:06:80:bb:91:8d:f7:89:4c:5a:eb:da:81:
                    46:76:df:b9:2a:97:93:d3:6a:d7:2c:d3:68:19:9e:
                    09:20:62:c6:be:17:e7:b9:fa:54:e1:b2:f4:00:f6:
                    a3:e2:8e:8d:0a:34:16:8e:83:16:d3:22:80:58:8c:
                    f1:54:56:cb:f1:66:3c:78:a0:a5:80:0e:d9:e8:0b:
                    5f:a4:e6:66:af:e0:fd:60:ff:f1:1d:3d:a0:b7:29:
                    0c:98:ed:f3:fe:b6:1d:a2:1c:17:14:4a:46:d7:8e:
                    e9:4b:72:06:18:ec:fc:34:2a:f1:97:7d:48:db:40:
                    e7:5a:03:78:4b:0e:7e:35:2e:ea:57:9f:9b:33:11:
                    b1:00:8c:44:7a:69:24:ee:1b:8b:37:3f:44:46:df:
                    0e:99:75
                Exponent: 65537 (0x10001)
        X509v3 extensions:
            X509v3 Basic Constraints: 
                CA:FALSE
            Netscape Comment: 
                Easy-RSA Generated Certificate
            X509v3 Subject Key Identifier: 
                1F:EF:6B:D5:08:66:CE:D8:76:A5:55:8E:02:38:B7:9D:0B:FB:BC:FA
            X509v3 Authority Key Identifier: 
                keyid:12:CD:60:04:D2:A0:80:9E:70:ED:C6:99:B8:7B:2C:C6:52:FD:19:A1
                DirName:/C=US/ST=OH/L=Columbus/O=VikingVPN/OU=MyOrganizationalUnit/CN=VikingVPN CA/name=EasyRSA/emailAddress=me@myhost.mydomain
                serial:CF:35:85:EE:80:BF:2A:3E

            X509v3 Extended Key Usage: 
                TLS Web Client Authentication
            X509v3 Key Usage: 
                Digital Signature
    Signature Algorithm: md5WithRSAEncryption
         ae:4c:d2:53:69:38:0f:e1:14:0b:16:ae:8b:9f:8f:2b:f0:10:
         45:ae:dd:e1:f8:60:d6:53:d4:31:d1:26:cc:96:5c:71:ee:63:
         02:4f:c0:45:87:20:f4:d7:f2:00:b9:03:24:dd:c2:2d:0f:c3:
         6f:88:10:16:f4:f9:a7:68:5a:e1:f2:71:72:f5:ec:a8:41:6d:
         2d:79:0f:fc:e4:32:6c:02:2b:38:f6:ca:e5:e1:3a:79:58:1d:
         8d:10:25:84:b8:99:53:f4:50:eb:ce:23:4f:63:f9:dd:f7:52:
         d5:9c:b6:b3:5d:1f:0d:fc:06:ad:35:0c:11:cf:80:78:14:83:
         c2:81:d5:ef:6b:29:33:1d:e9:b2:fe:0c:3d:a2:6e:78:f6:cd:
         12:4a:53:1d:e4:48:d2:9f:c4:1e:5d:13:5e:32:74:be:06:11:
         02:a9:6d:30:88:80:5d:bb:32:63:12:c9:d5:15:0f:d0:21:f1:
         b7:af:c7:d4:35:dd:66:b0:07:7f:1f:ef:d9:7a:e9:b9:c2:b9:
         05:41:16:8e:cf:8f:11:29:7e:36:46:92:b7:23:d8:02:7b:44:
         de:c0:cb:88:4f:4c:88:19:50:cf:34:25:e4:0a:e2:30:36:0e:
         a2:22:ad:48:41:41:d9:f6:0c:b0:cf:bf:0f:de:62:32:54:64:
         1a:0f:61:05:e0:12:6d:95:85:ca:4a:d7:b6:3d:7b:b7:56:3e:
         8b:45:1f:f1:ab:f2:bd:a2:d3:44:a5:f7:7c:32:6d:70:95:17:
         29:a8:31:69:5a:47:09:7a:96:42:c5:d5:a3:b3:6d:58:8a:8b:
         4c:39:44:f2:25:63:3a:de:3e:94:22:08:b9:70:ee:35:92:b4:
         d2:f0:4b:00:54:c2:f3:27:03:b0:32:47:85:29:73:1e:5f:e1:
         82:d1:e4:45:e7:10:79:0c:e7:ca:41:ba:d9:c9:3a:fb:a0:49:
         93:58:21:11:a7:1e:42:16:66:bd:84:ff:e0:7f:87:35:f4:50:
         b8:d1:c7:48:b6:90:09:68:75:b0:3f:28:cc:da:82:a2:37:f3:
         0c:8f:c4:2f:95:e4:da:fa:e8:ff:79:17:dd:d6:26:5a:15:f1:
         f9:8b:c3:3c:6e:31:8c:c5:9e:6a:2a:c4:a8:d6:5d:c5:07:40:
         37:58:b9:f6:8e:ac:14:e9:f9:c4:df:db:01:e2:7e:6a:04:9c:
         31:64:2a:b7:e2:1c:f3:34:19:c9:3f:4a:ac:ab:ec:b5:d4:6d:
         70:4e:25:95:9c:a0:35:78:6e:e1:01:a4:28:4f:2c:e3:05:2c:
         0f:4d:5b:ab:c0:58:f8:35:16:eb:9b:fe:ec:af:d9:60:7a:ad:
         35:d1:11:06:b9:3c:67:70
-----BEGIN CERTIFICATE-----
MIIGrTCCBJWgAwIBAgICH9wwDQYJKoZIhvcNAQEEBQAwgawxCzAJBgNVBAYTAlVT
MQswCQYDVQQIEwJPSDERMA8GA1UEBxMIQ29sdW1idXMxEjAQBgNVBAoTCVZpa2lu
Z1ZQTjEdMBsGA1UECxMUTXlPcmdhbml6YXRpb25hbFVuaXQxFTATBgNVBAMTDFZp
a2luZ1ZQTiBDQTEQMA4GA1UEKRMHRWFzeVJTQTEhMB8GCSqGSIb3DQEJARYSbWVA
bXlob3N0Lm15ZG9tYWluMB4XDTE2MDYwNDEzMTgxOVoXDTI2MDYwMjEzMTgxOVow
HzEdMBsGA1UEAxMUQ2xpZW50MjM2OENlcnQ4NTBjNzYwggIiMA0GCSqGSIb3DQEB
AQUAA4ICDwAwggIKAoICAQDk0Fyw2OtutmzvwycuJpP6EEU1+mq2DeitYuqFC9MF
OIHPzClUGtWieO0AluXIDA1Th3/BMeVU/VHxXW6JZPt4kT/9r8Vh93twmDUDGDj1
bzDE0vMK50Mki+lim0hyBOs9x5/k+sGjmB4vqiM43EXAITdGN12qpQUzxnMil8OW
tBh3Yfce35hKIqh8smeVx/MTRXehmbvpjote94+jmqNQQhEQN5rNlObe+0Djdphw
8VeC6bqAWc14FGhSEDYNTFzGjMV/Lh+pl8Xoi2mpaAVgzltfaCBMzDG3WRHzbLsr
oA0srDxAay757h7xxydxpL/XRLctyPwo+Ng14/wGdnnrC+jFSE8XiTElFgaNboCQ
39+l9LucS1D/JA6ltmf3Qonf47SvVO6FyyK/5llb09V8uX6EV8QDu8jk7seEtd24
Da0CWyygqYRD9YGnsirKVhCc7w4Aa508DfM9Uft73gbJWXoPLraCIOWx0AaAu5GN
94lMWuvagUZ237kql5PTatcs02gZngkgYsa+F+e5+lThsvQA9qPijo0KNBaOgxbT
IoBYjPFUVsvxZjx4oKWADtnoC1+k5mav4P1g//EdPaC3KQyY7fP+th2iHBcUSkbX
julLcgYY7Pw0KvGXfUjbQOdaA3hLDn41LupXn5szEbEAjER6aSTuG4s3P0RG3w6Z
dQIDAQABo4IBYzCCAV8wCQYDVR0TBAIwADAtBglghkgBhvhCAQ0EIBYeRWFzeS1S
U0EgR2VuZXJhdGVkIENlcnRpZmljYXRlMB0GA1UdDgQWBBQf72vVCGbO2HalVY4C
OLedC/u8+jCB4QYDVR0jBIHZMIHWgBQSzWAE0qCAnnDtxpm4eyzGUv0ZoaGBsqSB
rzCBrDELMAkGA1UEBhMCVVMxCzAJBgNVBAgTAk9IMREwDwYDVQQHEwhDb2x1bWJ1
czESMBAGA1UEChMJVmlraW5nVlBOMR0wGwYDVQQLExRNeU9yZ2FuaXphdGlvbmFs
VW5pdDEVMBMGA1UEAxMMVmlraW5nVlBOIENBMRAwDgYDVQQpEwdFYXN5UlNBMSEw
HwYJKoZIhvcNAQkBFhJtZUBteWhvc3QubXlkb21haW6CCQDPNYXugL8qPjATBgNV
HSUEDDAKBggrBgEFBQcDAjALBgNVHQ8EBAMCB4AwDQYJKoZIhvcNAQEEBQADggIB
AK5M0lNpOA/hFAsWroufjyvwEEWu3eH4YNZT1DHRJsyWXHHuYwJPwEWHIPTX8gC5
AyTdwi0Pw2+IEBb0+adoWuHycXL17KhBbS15D/zkMmwCKzj2yuXhOnlYHY0QJYS4
mVP0UOvOI09j+d33UtWctrNdHw38Bq01DBHPgHgUg8KB1e9rKTMd6bL+DD2ibnj2
zRJKUx3kSNKfxB5dE14ydL4GEQKpbTCIgF27MmMSydUVD9Ah8bevx9Q13WawB38f
79l66bnCuQVBFo7PjxEpfjZGkrcj2AJ7RN7Ay4hPTIgZUM80JeQK4jA2DqIirUhB
Qdn2DLDPvw/eYjJUZBoPYQXgEm2VhcpK17Y9e7dWPotFH/Gr8r2i00Sl93wybXCV
FymoMWlaRwl6lkLF1aOzbViKi0w5RPIlYzrePpQiCLlw7jWStNLwSwBUwvMnA7Ay
R4Upcx5f4YLR5EXnEHkM58pButnJOvugSZNYIRGnHkIWZr2E/+B/hzX0ULjRx0i2
kAlodbA/KMzagqI38wyPxC+V5Nr66P95F93WJloV8fmLwzxuMYzFnmoqxKjWXcUH
QDdYufaOrBTp+cTf2wHifmoEnDFkKrfiHPM0Gck/Sqyr7LXUbXBOJZWcoDV4buEB
pChPLOMFLA9NW6vAWPg1Fuub/uyv2WB6rTXREQa5PGdw
-----END CERTIFICATE-----
