Certificate:
    Data:
        Version: 3 (0x2)
        Serial Number: 5596 (0x15dc)
    Signature Algorithm: md5WithRSAEncryption
        Issuer: C=US, ST=OH, L=Columbus, O=VikingVPN, OU=MyOrganizationalUnit, CN=VikingVPN CA/name=EasyRSA/emailAddress=me@myhost.mydomain
        Validity
            Not Before: Jun 21 16:42:20 2015 GMT
            Not After : Jun 18 16:42:20 2025 GMT
        Subject: CN=Client1776Cert3d70a2
        Subject Public Key Info:
            Public Key Algorithm: rsaEncryption
                Public-Key: (4096 bit)
                Modulus:
                    00:e3:6b:76:35:ea:80:b1:d1:66:7d:2d:74:83:1b:
                    32:1b:9b:09:04:86:b9:a1:e3:9c:79:ae:1e:f8:d0:
                    8f:51:3b:03:9c:e0:30:ff:f2:ae:e0:e1:3d:4a:44:
                    83:5c:5a:f4:c9:37:a7:86:6e:b4:2c:9e:66:f2:c4:
                    2f:11:f1:2e:1b:27:6d:49:54:81:17:27:2f:b6:bc:
                    7b:04:54:e9:99:53:ab:b2:ed:fc:b1:3c:64:84:b8:
                    64:81:ca:5d:42:6c:d6:97:ca:a3:85:fe:d4:49:81:
                    bd:09:29:e3:83:67:51:b0:e1:50:15:6e:77:78:b1:
                    d0:38:04:e8:2c:3f:5a:73:60:3f:22:9c:65:09:22:
                    3c:1e:94:98:d0:7c:3b:e2:64:53:4d:1d:f4:35:21:
                    f0:cb:ae:19:0c:28:2a:58:53:14:59:4c:cd:eb:cf:
                    22:c1:af:bc:f0:d0:af:04:17:c4:57:29:52:8d:c2:
                    61:d8:fd:b0:cd:03:e1:79:f7:ce:7d:b8:c6:2a:69:
                    94:24:4a:4c:00:e5:c5:1e:47:bf:7b:15:45:eb:93:
                    37:c0:33:08:09:e6:d1:25:e8:9e:3c:05:ff:94:73:
                    cc:3d:23:37:94:13:ab:06:17:49:ab:94:34:95:78:
                    2d:eb:5f:13:33:bd:ca:d1:39:05:53:fc:ff:eb:1d:
                    37:38:84:12:77:5b:ea:fe:16:a2:f0:cd:4e:ee:a9:
                    2e:e8:bc:2b:64:13:ad:83:63:09:c6:1d:4f:5e:7f:
                    b1:73:80:92:4a:06:3e:83:81:43:25:af:aa:5c:b1:
                    34:68:cc:f0:f7:9c:41:30:27:f2:98:22:99:c9:6d:
                    28:47:8f:13:e4:72:83:93:a6:bf:8a:8d:f7:bd:9a:
                    60:86:cf:e9:79:13:a6:51:03:3e:a8:3e:9a:76:bb:
                    9b:68:81:6b:32:d1:a8:e8:34:73:1d:73:74:49:a3:
                    be:a6:8b:6a:e8:aa:4e:3f:9e:b9:4f:9e:dc:e5:f4:
                    51:80:29:12:5d:f9:90:66:af:03:8a:8b:e0:f5:eb:
                    89:ee:4e:98:52:bb:75:13:20:a8:dc:c8:98:4a:23:
                    7f:6d:20:39:e1:4b:e5:b9:d3:4b:2a:99:5e:66:06:
                    15:2b:9d:f2:65:ec:e5:27:68:dc:1e:10:c9:5f:f2:
                    3f:c7:03:bb:a9:58:d6:db:e1:0d:1c:13:f3:e1:80:
                    ba:c5:9f:22:72:eb:ee:5c:ca:25:1e:b0:e5:f0:d3:
                    c5:48:b7:0c:f5:2a:d4:9d:e1:e9:22:52:50:6c:a4:
                    f2:d2:49:79:f7:e5:60:e3:d9:48:87:9a:5d:82:e0:
                    95:8f:fb:f6:c8:c1:a8:3d:94:3e:98:36:31:ef:0e:
                    10:7c:bd
                Exponent: 65537 (0x10001)
        X509v3 extensions:
            X509v3 Basic Constraints: 
                CA:FALSE
            Netscape Comment: 
                Easy-RSA Generated Certificate
            X509v3 Subject Key Identifier: 
                A1:71:6C:E6:AE:51:64:2F:23:64:D9:54:AB:9C:A2:F7:33:D4:3C:F1
            X509v3 Authority Key Identifier: 
                keyid:12:CD:60:04:D2:A0:80:9E:70:ED:C6:99:B8:7B:2C:C6:52:FD:19:A1
                DirName:/C=US/ST=OH/L=Columbus/O=VikingVPN/OU=MyOrganizationalUnit/CN=VikingVPN CA/name=EasyRSA/emailAddress=me@myhost.mydomain
                serial:CF:35:85:EE:80:BF:2A:3E

            X509v3 Extended Key Usage: 
                TLS Web Client Authentication
            X509v3 Key Usage: 
                Digital Signature
    Signature Algorithm: md5WithRSAEncryption
         38:bd:0f:98:4f:c2:45:2a:63:3c:e3:3c:ab:a9:70:a5:ed:c8:
         32:51:2f:49:c2:c4:5b:43:db:dc:35:dd:30:ba:db:47:9e:0f:
         da:57:c1:31:80:76:5c:2e:4b:33:71:27:ab:73:76:69:fe:38:
         b8:d0:a4:32:3a:57:ac:3f:39:b6:a9:8d:86:eb:58:36:da:12:
         96:8f:68:07:a1:d9:94:83:b2:77:ed:f1:52:11:51:65:eb:65:
         55:5e:da:1d:ac:f9:59:0a:b7:33:39:97:39:a5:b9:6a:9e:6c:
         33:d7:ad:c4:34:82:9b:c7:2e:75:48:ea:0b:8f:23:26:4a:85:
         e5:eb:a6:0b:9a:e5:39:98:71:2d:a8:d2:d5:a4:6d:d4:a3:72:
         fd:e8:ab:80:fc:96:7b:09:78:55:94:ef:35:d2:d5:73:cd:30:
         3c:38:91:af:87:3b:ad:29:e6:7c:2d:92:5e:1e:12:00:80:01:
         aa:2a:b5:9b:cb:7c:77:78:08:e5:bf:e0:e7:d3:6a:1e:1f:a2:
         d2:22:82:fe:d7:38:1c:f9:3b:92:73:8a:fd:94:d8:56:94:dd:
         bd:aa:77:fb:08:62:4c:eb:ed:42:d1:83:05:50:d7:f5:08:09:
         a2:ce:6d:33:1f:bb:09:b2:d9:8c:a0:19:7e:f3:93:0d:8b:54:
         93:32:0c:db:9d:41:55:d3:fe:6f:dc:33:2b:49:57:8b:8a:8f:
         46:22:fa:b0:be:96:6f:25:ba:ac:c5:9a:77:01:ce:ca:a9:3f:
         94:fd:ab:55:3c:90:68:af:86:a7:84:24:b6:9a:56:d9:16:f5:
         01:e4:d5:eb:17:a4:9b:87:6b:cf:66:dd:16:c0:27:29:18:d5:
         68:5b:78:6e:f6:ee:43:cd:91:c5:8a:69:ff:11:01:ea:7b:08:
         25:9d:60:58:91:5e:93:e4:b3:91:1e:a7:09:b0:e5:5b:5e:e0:
         02:9f:74:d1:e7:b1:7c:2c:61:98:b9:a9:3a:39:d9:13:d6:28:
         c4:3f:5f:d3:ed:82:f2:74:6a:50:cc:cd:eb:fb:72:89:23:b7:
         be:ac:60:71:5e:c6:21:dc:4c:ba:e5:95:af:82:0c:c4:0c:23:
         13:f4:0d:be:9a:12:60:63:e3:72:07:be:04:d4:ae:be:73:3b:
         b2:9e:8c:a6:18:aa:2f:f6:04:c7:e6:6e:f1:df:98:b3:88:a1:
         77:82:3d:88:7d:35:63:64:68:63:e0:69:1f:4d:ba:3a:ed:41:
         a0:18:af:55:94:2b:06:75:fc:e2:b8:9c:2d:1d:47:65:9a:88:
         bb:69:04:20:85:08:0e:fc:99:a4:f3:6f:b5:9e:ec:38:a5:96:
         08:93:0c:63:b1:4b:7d:e5
-----BEGIN CERTIFICATE-----
MIIGrTCCBJWgAwIBAgICFdwwDQYJKoZIhvcNAQEEBQAwgawxCzAJBgNVBAYTAlVT
MQswCQYDVQQIEwJPSDERMA8GA1UEBxMIQ29sdW1idXMxEjAQBgNVBAoTCVZpa2lu
Z1ZQTjEdMBsGA1UECxMUTXlPcmdhbml6YXRpb25hbFVuaXQxFTATBgNVBAMTDFZp
a2luZ1ZQTiBDQTEQMA4GA1UEKRMHRWFzeVJTQTEhMB8GCSqGSIb3DQEJARYSbWVA
bXlob3N0Lm15ZG9tYWluMB4XDTE1MDYyMTE2NDIyMFoXDTI1MDYxODE2NDIyMFow
HzEdMBsGA1UEAxMUQ2xpZW50MTc3NkNlcnQzZDcwYTIwggIiMA0GCSqGSIb3DQEB
AQUAA4ICDwAwggIKAoICAQDja3Y16oCx0WZ9LXSDGzIbmwkEhrmh45x5rh740I9R
OwOc4DD/8q7g4T1KRINcWvTJN6eGbrQsnmbyxC8R8S4bJ21JVIEXJy+2vHsEVOmZ
U6uy7fyxPGSEuGSByl1CbNaXyqOF/tRJgb0JKeODZ1Gw4VAVbnd4sdA4BOgsP1pz
YD8inGUJIjwelJjQfDviZFNNHfQ1IfDLrhkMKCpYUxRZTM3rzyLBr7zw0K8EF8RX
KVKNwmHY/bDNA+F59859uMYqaZQkSkwA5cUeR797FUXrkzfAMwgJ5tEl6J48Bf+U
c8w9IzeUE6sGF0mrlDSVeC3rXxMzvcrROQVT/P/rHTc4hBJ3W+r+FqLwzU7uqS7o
vCtkE62DYwnGHU9ef7FzgJJKBj6DgUMlr6pcsTRozPD3nEEwJ/KYIpnJbShHjxPk
coOTpr+Kjfe9mmCGz+l5E6ZRAz6oPpp2u5togWsy0ajoNHMdc3RJo76mi2roqk4/
nrlPntzl9FGAKRJd+ZBmrwOKi+D164nuTphSu3UTIKjcyJhKI39tIDnhS+W500sq
mV5mBhUrnfJl7OUnaNweEMlf8j/HA7upWNbb4Q0cE/PhgLrFnyJy6+5cyiUesOXw
08VItwz1KtSd4ekiUlBspPLSSXn35WDj2UiHml2C4JWP+/bIwag9lD6YNjHvDhB8
vQIDAQABo4IBYzCCAV8wCQYDVR0TBAIwADAtBglghkgBhvhCAQ0EIBYeRWFzeS1S
U0EgR2VuZXJhdGVkIENlcnRpZmljYXRlMB0GA1UdDgQWBBShcWzmrlFkLyNk2VSr
nKL3M9Q88TCB4QYDVR0jBIHZMIHWgBQSzWAE0qCAnnDtxpm4eyzGUv0ZoaGBsqSB
rzCBrDELMAkGA1UEBhMCVVMxCzAJBgNVBAgTAk9IMREwDwYDVQQHEwhDb2x1bWJ1
czESMBAGA1UEChMJVmlraW5nVlBOMR0wGwYDVQQLExRNeU9yZ2FuaXphdGlvbmFs
VW5pdDEVMBMGA1UEAxMMVmlraW5nVlBOIENBMRAwDgYDVQQpEwdFYXN5UlNBMSEw
HwYJKoZIhvcNAQkBFhJtZUBteWhvc3QubXlkb21haW6CCQDPNYXugL8qPjATBgNV
HSUEDDAKBggrBgEFBQcDAjALBgNVHQ8EBAMCB4AwDQYJKoZIhvcNAQEEBQADggIB
ADi9D5hPwkUqYzzjPKupcKXtyDJRL0nCxFtD29w13TC620eeD9pXwTGAdlwuSzNx
J6tzdmn+OLjQpDI6V6w/ObapjYbrWDbaEpaPaAeh2ZSDsnft8VIRUWXrZVVe2h2s
+VkKtzM5lzmluWqebDPXrcQ0gpvHLnVI6guPIyZKheXrpgua5TmYcS2o0tWkbdSj
cv3oq4D8lnsJeFWU7zXS1XPNMDw4ka+HO60p5nwtkl4eEgCAAaoqtZvLfHd4COW/
4OfTah4fotIigv7XOBz5O5Jziv2U2FaU3b2qd/sIYkzr7ULRgwVQ1/UICaLObTMf
uwmy2YygGX7zkw2LVJMyDNudQVXT/m/cMytJV4uKj0Yi+rC+lm8luqzFmncBzsqp
P5T9q1U8kGivhqeEJLaaVtkW9QHk1esXpJuHa89m3RbAJykY1WhbeG727kPNkcWK
af8RAep7CCWdYFiRXpPks5Eepwmw5Vte4AKfdNHnsXwsYZi5qTo52RPWKMQ/X9Pt
gvJ0alDMzev7cokjt76sYHFexiHcTLrlla+CDMQMIxP0Db6aEmBj43IHvgTUrr5z
O7KejKYYqi/2BMfmbvHfmLOIoXeCPYh9NWNkaGPgaR9NujrtQaAYr1WUKwZ1/OK4
nC0dR2WaiLtpBCCFCA78maTzb7We7DillgiTDGOxS33l
-----END CERTIFICATE-----
