Certificate:
    Data:
        Version: 3 (0x2)
        Serial Number: 5995 (0x176b)
    Signature Algorithm: md5WithRSAEncryption
        Issuer: C=US, ST=OH, L=Columbus, O=VikingVPN, OU=MyOrganizationalUnit, CN=VikingVPN CA/name=EasyRSA/emailAddress=me@myhost.mydomain
        Validity
            Not Before: Aug  4 20:19:04 2015 GMT
            Not After : Aug  1 20:19:04 2025 GMT
        Subject: CN=Client1711Cert979e19
        Subject Public Key Info:
            Public Key Algorithm: rsaEncryption
                Public-Key: (4096 bit)
                Modulus:
                    00:c8:3a:3d:be:db:ef:dc:c7:15:19:a8:92:be:83:
                    dd:8e:db:98:f4:ec:00:8e:6a:ae:03:87:4a:90:9d:
                    22:bc:d5:11:d9:ec:c4:49:c3:53:e6:2f:6c:5b:d3:
                    87:51:0b:e7:a1:7b:54:9b:ad:9a:f7:3f:e2:70:81:
                    f7:7d:ab:05:10:56:fe:84:ac:a4:8e:27:a0:e4:24:
                    0d:b8:78:87:2f:b7:26:aa:1a:3a:40:ac:48:88:ac:
                    8e:bd:2a:5f:64:ff:6f:19:54:cc:93:5a:e3:76:c2:
                    e8:fc:3b:3e:0f:29:f2:f7:cf:84:81:cb:78:cb:1b:
                    3d:a5:9d:5e:51:99:c6:8b:62:15:56:94:fd:21:5b:
                    a7:02:2a:d0:0f:cc:8b:b4:31:9d:7d:cb:b2:2c:84:
                    8c:46:4b:bc:c2:b2:38:8e:6e:e2:76:ee:8a:63:4b:
                    bd:35:b1:d8:8f:54:0c:bb:97:66:2a:3c:77:28:35:
                    f6:1b:7a:e0:b5:26:0d:d5:dc:1f:45:31:66:e2:89:
                    a3:ef:28:7b:8d:82:06:74:31:31:c6:41:ff:67:2f:
                    5f:91:54:ab:9e:85:af:b5:f7:db:e6:41:5d:08:d5:
                    58:d4:50:bc:23:b1:74:59:ad:31:38:14:3f:4d:38:
                    28:a7:47:c7:57:36:91:29:7a:94:c1:3e:d6:f2:a4:
                    61:04:fb:32:d5:63:ba:79:be:e0:4c:f4:61:6c:72:
                    e2:bb:dc:17:15:36:eb:fd:a2:da:35:fb:ec:b4:be:
                    18:13:6d:43:24:3c:41:79:ca:c5:08:ae:21:0a:8b:
                    a2:0d:b0:a8:24:a6:f9:bf:c7:26:90:c6:0c:fb:b9:
                    2a:fd:09:75:79:6f:86:54:10:8e:ac:13:33:8a:9c:
                    46:cc:4b:a0:cf:cf:6d:3a:1f:b6:ec:e1:61:3b:1d:
                    3a:d9:6a:e8:2f:78:88:bb:82:bc:5a:27:54:be:ff:
                    92:da:61:06:f1:a8:7b:c6:32:3f:9f:36:e8:28:2f:
                    31:61:45:9e:85:df:ce:69:c6:e8:3e:26:c9:d0:89:
                    7e:6b:50:fe:bc:e6:a7:f3:94:47:da:88:db:52:7f:
                    5f:2f:c9:68:76:13:53:65:0a:5d:a3:59:46:11:c6:
                    9c:91:ab:1c:95:a2:c5:25:fe:b8:2e:ad:99:5c:fc:
                    86:7f:96:02:11:60:78:26:f9:21:32:38:95:1f:3f:
                    1c:6f:f0:88:36:a8:6c:3f:f0:b3:be:ae:51:10:1d:
                    d9:47:f2:28:9a:d5:d1:4a:bb:ef:35:96:93:7a:23:
                    3f:1c:51:29:78:c8:a7:d4:b9:2c:12:33:05:66:6a:
                    8a:8e:69:dc:48:9c:5e:2d:1f:b1:fd:35:7b:67:46:
                    f0:19:ab
                Exponent: 65537 (0x10001)
        X509v3 extensions:
            X509v3 Basic Constraints: 
                CA:FALSE
            Netscape Comment: 
                Easy-RSA Generated Certificate
            X509v3 Subject Key Identifier: 
                0A:24:EC:B8:27:8C:5F:57:CA:1A:C8:74:B9:2B:6A:31:03:B4:C8:4A
            X509v3 Authority Key Identifier: 
                keyid:12:CD:60:04:D2:A0:80:9E:70:ED:C6:99:B8:7B:2C:C6:52:FD:19:A1
                DirName:/C=US/ST=OH/L=Columbus/O=VikingVPN/OU=MyOrganizationalUnit/CN=VikingVPN CA/name=EasyRSA/emailAddress=me@myhost.mydomain
                serial:CF:35:85:EE:80:BF:2A:3E

            X509v3 Extended Key Usage: 
                TLS Web Client Authentication
            X509v3 Key Usage: 
                Digital Signature
    Signature Algorithm: md5WithRSAEncryption
         75:f0:d7:f1:e1:f7:d2:2c:c9:8b:b5:9b:3a:5c:3b:ee:31:a0:
         bb:32:b5:05:d9:18:82:4c:43:fc:b3:0e:52:b4:44:1f:11:14:
         6c:46:23:71:9e:bf:1a:59:fa:8b:10:0f:a8:7a:28:99:e9:f2:
         66:b9:8f:05:8f:43:ee:89:cd:2e:4b:6d:d1:38:19:95:f1:28:
         56:b2:88:1a:89:51:d0:d0:85:35:f0:cd:dc:01:24:cc:99:b5:
         b6:b7:d2:60:a1:60:79:a8:c5:f7:b2:48:cb:dd:73:bd:74:de:
         22:89:ee:a2:0a:48:30:ef:3d:5e:97:09:32:6c:ad:82:c1:0c:
         59:0a:7c:a5:70:61:15:b6:7d:12:9f:80:77:b5:bc:0d:76:1b:
         ff:79:0b:0e:2d:4e:68:d0:94:1b:ba:26:ea:55:63:02:93:1a:
         b6:f9:43:06:ab:ec:af:87:5d:11:f9:71:b2:f2:ac:df:c2:3a:
         1f:f2:1b:d4:fb:7c:21:1b:b3:e8:d8:7b:55:b7:ef:88:8c:d5:
         b4:9b:72:60:a3:94:b0:e6:b2:cb:37:65:ab:b7:88:38:36:25:
         d3:df:e2:b5:83:48:d8:c2:aa:55:79:62:ec:8b:72:b4:4a:fa:
         cf:ba:64:48:72:a0:4d:ab:f5:f9:f4:4f:e8:51:48:97:6d:93:
         17:ce:f2:ba:1d:9a:21:47:74:56:9e:a8:95:8a:e3:aa:89:cd:
         18:39:f4:be:cb:0a:da:f1:4c:ca:82:ed:22:6a:23:26:d0:a7:
         c1:eb:b7:c7:a9:8f:ce:0b:85:dc:bc:f9:2c:64:e6:0e:a4:d6:
         9d:55:62:12:43:26:06:cd:11:5d:d6:50:14:71:5c:da:b3:bb:
         76:10:8c:04:12:09:4f:2d:07:e1:f3:95:04:5b:f6:42:d9:24:
         42:02:88:10:9d:3b:5d:ec:c0:e2:b3:4e:d7:b3:b3:a1:88:7e:
         48:a4:cc:a8:5d:f2:df:ce:46:e0:aa:ad:c1:f0:90:fa:ee:66:
         62:90:1f:5b:63:ce:9e:7e:d8:44:16:a3:ad:33:f5:81:fd:4f:
         19:1f:20:01:b8:8b:ae:e4:9a:55:9c:10:f0:a9:22:51:79:ea:
         21:3f:86:5e:47:1c:ee:11:81:6c:7c:7f:e4:d8:b8:8f:78:20:
         f6:85:18:c9:b7:a4:e8:ff:6c:9c:cc:99:c5:1c:43:f9:e0:27:
         73:19:6d:65:cf:b2:dd:62:ba:be:02:d4:45:c4:5d:25:ca:78:
         71:44:ab:3a:a4:17:dc:94:b4:a0:64:8a:e5:5c:6b:fc:d6:ea:
         2b:f0:66:42:8b:21:63:62:ea:16:c3:1c:1b:dc:9f:f1:85:64:
         57:01:63:2d:a9:c3:5d:8b
-----BEGIN CERTIFICATE-----
MIIGrTCCBJWgAwIBAgICF2swDQYJKoZIhvcNAQEEBQAwgawxCzAJBgNVBAYTAlVT
MQswCQYDVQQIEwJPSDERMA8GA1UEBxMIQ29sdW1idXMxEjAQBgNVBAoTCVZpa2lu
Z1ZQTjEdMBsGA1UECxMUTXlPcmdhbml6YXRpb25hbFVuaXQxFTATBgNVBAMTDFZp
a2luZ1ZQTiBDQTEQMA4GA1UEKRMHRWFzeVJTQTEhMB8GCSqGSIb3DQEJARYSbWVA
bXlob3N0Lm15ZG9tYWluMB4XDTE1MDgwNDIwMTkwNFoXDTI1MDgwMTIwMTkwNFow
HzEdMBsGA1UEAxMUQ2xpZW50MTcxMUNlcnQ5NzllMTkwggIiMA0GCSqGSIb3DQEB
AQUAA4ICDwAwggIKAoICAQDIOj2+2+/cxxUZqJK+g92O25j07ACOaq4Dh0qQnSK8
1RHZ7MRJw1PmL2xb04dRC+ehe1SbrZr3P+Jwgfd9qwUQVv6ErKSOJ6DkJA24eIcv
tyaqGjpArEiIrI69Kl9k/28ZVMyTWuN2wuj8Oz4PKfL3z4SBy3jLGz2lnV5RmcaL
YhVWlP0hW6cCKtAPzIu0MZ19y7IshIxGS7zCsjiObuJ27opjS701sdiPVAy7l2Yq
PHcoNfYbeuC1Jg3V3B9FMWbiiaPvKHuNggZ0MTHGQf9nL1+RVKueha+199vmQV0I
1VjUULwjsXRZrTE4FD9NOCinR8dXNpEpepTBPtbypGEE+zLVY7p5vuBM9GFscuK7
3BcVNuv9oto1++y0vhgTbUMkPEF5ysUIriEKi6INsKgkpvm/xyaQxgz7uSr9CXV5
b4ZUEI6sEzOKnEbMS6DPz206H7bs4WE7HTrZaugveIi7grxaJ1S+/5LaYQbxqHvG
Mj+fNugoLzFhRZ6F385pxug+JsnQiX5rUP685qfzlEfaiNtSf18vyWh2E1NlCl2j
WUYRxpyRqxyVosUl/rgurZlc/IZ/lgIRYHgm+SEyOJUfPxxv8Ig2qGw/8LO+rlEQ
HdlH8iia1dFKu+81lpN6Iz8cUSl4yKfUuSwSMwVmaoqOadxInF4tH7H9NXtnRvAZ
qwIDAQABo4IBYzCCAV8wCQYDVR0TBAIwADAtBglghkgBhvhCAQ0EIBYeRWFzeS1S
U0EgR2VuZXJhdGVkIENlcnRpZmljYXRlMB0GA1UdDgQWBBQKJOy4J4xfV8oayHS5
K2oxA7TISjCB4QYDVR0jBIHZMIHWgBQSzWAE0qCAnnDtxpm4eyzGUv0ZoaGBsqSB
rzCBrDELMAkGA1UEBhMCVVMxCzAJBgNVBAgTAk9IMREwDwYDVQQHEwhDb2x1bWJ1
czESMBAGA1UEChMJVmlraW5nVlBOMR0wGwYDVQQLExRNeU9yZ2FuaXphdGlvbmFs
VW5pdDEVMBMGA1UEAxMMVmlraW5nVlBOIENBMRAwDgYDVQQpEwdFYXN5UlNBMSEw
HwYJKoZIhvcNAQkBFhJtZUBteWhvc3QubXlkb21haW6CCQDPNYXugL8qPjATBgNV
HSUEDDAKBggrBgEFBQcDAjALBgNVHQ8EBAMCB4AwDQYJKoZIhvcNAQEEBQADggIB
AHXw1/Hh99IsyYu1mzpcO+4xoLsytQXZGIJMQ/yzDlK0RB8RFGxGI3GevxpZ+osQ
D6h6KJnp8ma5jwWPQ+6JzS5LbdE4GZXxKFayiBqJUdDQhTXwzdwBJMyZtba30mCh
YHmoxfeySMvdc7103iKJ7qIKSDDvPV6XCTJsrYLBDFkKfKVwYRW2fRKfgHe1vA12
G/95Cw4tTmjQlBu6JupVYwKTGrb5Qwar7K+HXRH5cbLyrN/COh/yG9T7fCEbs+jY
e1W374iM1bSbcmCjlLDmsss3Zau3iDg2JdPf4rWDSNjCqlV5YuyLcrRK+s+6ZEhy
oE2r9fn0T+hRSJdtkxfO8rodmiFHdFaeqJWK46qJzRg59L7LCtrxTMqC7SJqIybQ
p8Hrt8epj84Lhdy8+Sxk5g6k1p1VYhJDJgbNEV3WUBRxXNqzu3YQjAQSCU8tB+Hz
lQRb9kLZJEICiBCdO13swOKzTtezs6GIfkikzKhd8t/ORuCqrcHwkPruZmKQH1tj
zp5+2EQWo60z9YH9TxkfIAG4i67kmlWcEPCpIlF56iE/hl5HHO4RgWx8f+TYuI94
IPaFGMm3pOj/bJzMmcUcQ/ngJ3MZbWXPst1iur4C1EXEXSXKeHFEqzqkF9yUtKBk
iuVca/zW6ivwZkKLIWNi6hbDHBvcn/GFZFcBYy2pw12L
-----END CERTIFICATE-----
