Certificate:
    Data:
        Version: 3 (0x2)
        Serial Number: 8249 (0x2039)
    Signature Algorithm: md5WithRSAEncryption
        Issuer: C=US, ST=OH, L=Columbus, O=VikingVPN, OU=MyOrganizationalUnit, CN=VikingVPN CA/name=EasyRSA/emailAddress=me@myhost.mydomain
        Validity
            Not Before: Jun 11 13:41:13 2016 GMT
            Not After : Jun  9 13:41:13 2026 GMT
        Subject: CN=Client2032Certb2ff86
        Subject Public Key Info:
            Public Key Algorithm: rsaEncryption
                Public-Key: (4096 bit)
                Modulus:
                    00:b5:32:00:3f:ca:d1:04:52:3c:86:ff:40:f7:e7:
                    33:3e:01:2b:2b:5b:84:d9:f8:76:f7:d5:32:35:34:
                    77:d2:dd:4f:a5:c0:58:ba:b8:d0:85:8a:87:a1:73:
                    17:98:9e:a5:cc:8f:5e:e7:76:38:78:7b:dc:ae:84:
                    6f:54:ff:6a:53:ca:d7:fc:cb:99:74:81:2c:7d:20:
                    fe:df:a6:5b:1a:6c:3f:82:39:bf:3a:57:55:b2:79:
                    b8:94:e3:d6:6d:19:80:f4:65:01:46:02:6d:01:69:
                    43:8c:59:b2:77:4d:f8:a7:f8:61:9f:ff:80:a0:14:
                    e1:4a:75:84:03:67:4d:01:e5:01:8a:65:17:b9:43:
                    05:73:4b:99:6b:61:12:a3:36:a5:86:50:82:9d:42:
                    ab:5d:cf:01:49:2f:ca:6a:ec:a8:17:c9:ce:9d:05:
                    36:8e:49:a9:60:7e:0f:9d:cc:a7:e0:f9:2f:9f:04:
                    9b:a6:8d:85:d7:39:c5:15:7c:80:f1:44:a8:f5:06:
                    6b:22:ae:5e:e3:9b:e6:8b:7e:a4:2f:d9:9c:3f:46:
                    a8:36:1a:82:14:6d:c5:1d:d2:5c:20:9b:d4:c6:c2:
                    60:ef:81:51:de:ba:83:95:41:1d:b9:a2:a3:44:ce:
                    a7:3c:80:2f:a5:2b:bc:86:ac:02:21:cc:a9:3f:2a:
                    fe:27:f9:8d:ce:7d:4f:52:89:7a:d8:f3:30:2c:ee:
                    13:cf:6a:1f:34:76:da:01:f8:8e:76:b1:b9:33:e6:
                    89:50:7e:71:ff:d4:ca:0f:32:cf:08:48:d2:fb:74:
                    b9:ee:4d:6a:d0:fa:9b:88:03:28:36:43:2a:9e:22:
                    72:e8:47:39:51:b4:e4:46:b3:fa:a2:cf:4f:0f:6b:
                    90:00:a7:27:91:61:f8:ef:53:0a:17:6c:0d:3a:0d:
                    0a:2d:bb:4e:19:a8:3c:b6:a5:ea:c5:22:c1:09:2d:
                    63:8a:d0:f3:7c:bb:53:3f:a5:50:6c:8c:b5:d7:0d:
                    90:33:05:5d:c6:07:63:a4:0e:6f:21:5b:00:2b:8f:
                    df:d8:11:8b:2c:61:df:4e:21:b1:09:ba:96:7d:91:
                    3b:94:11:51:9d:6d:f1:0f:e2:5d:dd:8d:23:89:aa:
                    0d:e2:ec:76:cc:eb:7e:22:5b:f8:f2:9d:9c:2d:44:
                    0f:83:67:ec:9c:2e:9a:43:aa:8b:30:59:82:5c:0e:
                    41:e0:c3:69:2d:80:49:13:a8:5c:19:d3:2b:90:db:
                    08:a9:22:5c:09:0b:66:ac:d6:88:fc:f1:b4:0c:53:
                    0d:a7:39:42:6a:0a:67:5a:51:c5:40:49:6f:68:2a:
                    11:c3:61:02:d9:05:2a:99:08:4f:46:fe:48:a2:2c:
                    84:fe:b9
                Exponent: 65537 (0x10001)
        X509v3 extensions:
            X509v3 Basic Constraints: 
                CA:FALSE
            Netscape Comment: 
                Easy-RSA Generated Certificate
            X509v3 Subject Key Identifier: 
                A6:A2:37:80:BB:66:B3:4F:C1:E3:DC:5B:2E:5A:9A:1D:3E:67:8B:A7
            X509v3 Authority Key Identifier: 
                keyid:12:CD:60:04:D2:A0:80:9E:70:ED:C6:99:B8:7B:2C:C6:52:FD:19:A1
                DirName:/C=US/ST=OH/L=Columbus/O=VikingVPN/OU=MyOrganizationalUnit/CN=VikingVPN CA/name=EasyRSA/emailAddress=me@myhost.mydomain
                serial:CF:35:85:EE:80:BF:2A:3E

            X509v3 Extended Key Usage: 
                TLS Web Client Authentication
            X509v3 Key Usage: 
                Digital Signature
    Signature Algorithm: md5WithRSAEncryption
         aa:8c:26:99:45:cb:dd:e7:f2:85:e9:41:93:7d:75:ab:c1:d3:
         b4:a0:da:76:a1:57:f4:83:ef:d3:4e:60:b1:dc:79:72:2c:a4:
         73:b2:2e:82:c2:ac:43:d7:ea:ae:96:92:81:e6:c8:3d:86:b0:
         fc:fd:2e:e4:35:de:24:ce:3e:5c:60:29:c8:12:bb:90:c9:92:
         5e:cf:52:d4:ec:7b:71:d8:31:5c:00:32:ea:b4:fe:b6:df:d1:
         1f:1f:f0:76:28:96:23:da:67:d3:c2:b4:6f:4b:a2:69:17:ad:
         f2:0e:d3:5e:a8:47:3a:16:dc:9e:86:1b:1c:62:2a:67:c8:05:
         87:b9:e2:7e:69:54:11:8a:73:71:24:a8:dd:9c:c4:a3:92:06:
         63:2c:c1:59:da:75:6b:23:25:2b:ab:75:25:36:0a:64:9b:f8:
         7f:0c:dd:8a:95:e9:63:7b:cd:76:09:6a:0a:3e:a0:a9:ef:83:
         c9:eb:66:f1:90:90:dd:34:ee:e5:20:f8:86:6d:93:5f:df:2c:
         bb:3e:c5:e1:47:c8:11:a6:be:80:16:71:ba:16:e0:eb:6c:b9:
         8a:e4:4f:fc:14:cd:29:b9:86:47:cd:b0:cf:03:32:ae:b0:62:
         6b:39:c0:25:12:a5:8c:2a:03:c5:ea:be:39:82:86:7e:38:7b:
         35:2d:01:23:08:2b:9c:d6:95:8a:f4:fa:34:85:0c:5b:d4:14:
         69:e1:24:35:79:57:74:f1:71:ec:71:c9:6a:59:87:67:75:3f:
         44:5b:be:12:91:f4:ea:54:0f:1d:4d:ae:92:d1:f8:aa:f4:a0:
         fa:33:45:b4:b9:6e:f1:32:f0:18:bb:6e:4f:fc:60:42:76:a0:
         cd:e8:46:ea:78:26:cd:a5:46:97:78:52:a0:3c:3b:79:5b:e3:
         48:0f:11:6e:e9:23:aa:39:b7:3e:07:ef:72:c6:fe:2c:51:9b:
         87:dd:7f:47:49:b9:58:e1:69:d2:78:f5:57:e4:e1:8c:97:82:
         8a:f5:9c:e0:3e:ac:6b:00:3c:66:74:8c:d8:13:1a:13:14:b7:
         2f:36:fa:9e:b2:b8:cf:71:14:2a:49:8f:87:f0:e5:be:b6:3c:
         66:c2:8a:25:85:a9:b1:57:4e:09:50:a0:0d:1a:6c:51:ed:91:
         69:1d:e5:82:3c:87:38:5c:1e:26:0c:50:f3:e6:34:69:78:86:
         b4:83:75:88:65:e4:83:c9:d9:19:43:ba:cd:5b:74:cd:d7:1c:
         b4:5b:16:14:7d:26:a7:b4:49:6c:e4:5a:61:ee:be:8c:2f:29:
         99:e1:2d:e2:62:3d:39:87:8b:ed:b0:14:cd:58:ce:fd:e5:f6:
         49:33:cb:74:da:26:fd:7b
-----BEGIN CERTIFICATE-----
MIIGrTCCBJWgAwIBAgICIDkwDQYJKoZIhvcNAQEEBQAwgawxCzAJBgNVBAYTAlVT
MQswCQYDVQQIEwJPSDERMA8GA1UEBxMIQ29sdW1idXMxEjAQBgNVBAoTCVZpa2lu
Z1ZQTjEdMBsGA1UECxMUTXlPcmdhbml6YXRpb25hbFVuaXQxFTATBgNVBAMTDFZp
a2luZ1ZQTiBDQTEQMA4GA1UEKRMHRWFzeVJTQTEhMB8GCSqGSIb3DQEJARYSbWVA
bXlob3N0Lm15ZG9tYWluMB4XDTE2MDYxMTEzNDExM1oXDTI2MDYwOTEzNDExM1ow
HzEdMBsGA1UEAxMUQ2xpZW50MjAzMkNlcnRiMmZmODYwggIiMA0GCSqGSIb3DQEB
AQUAA4ICDwAwggIKAoICAQC1MgA/ytEEUjyG/0D35zM+ASsrW4TZ+Hb31TI1NHfS
3U+lwFi6uNCFioehcxeYnqXMj17ndjh4e9yuhG9U/2pTytf8y5l0gSx9IP7fplsa
bD+COb86V1WyebiU49ZtGYD0ZQFGAm0BaUOMWbJ3Tfin+GGf/4CgFOFKdYQDZ00B
5QGKZRe5QwVzS5lrYRKjNqWGUIKdQqtdzwFJL8pq7KgXyc6dBTaOSalgfg+dzKfg
+S+fBJumjYXXOcUVfIDxRKj1Bmsirl7jm+aLfqQv2Zw/Rqg2GoIUbcUd0lwgm9TG
wmDvgVHeuoOVQR25oqNEzqc8gC+lK7yGrAIhzKk/Kv4n+Y3OfU9SiXrY8zAs7hPP
ah80dtoB+I52sbkz5olQfnH/1MoPMs8ISNL7dLnuTWrQ+puIAyg2QyqeInLoRzlR
tORGs/qiz08Pa5AApyeRYfjvUwoXbA06DQotu04ZqDy2perFIsEJLWOK0PN8u1M/
pVBsjLXXDZAzBV3GB2OkDm8hWwArj9/YEYssYd9OIbEJupZ9kTuUEVGdbfEP4l3d
jSOJqg3i7HbM634iW/jynZwtRA+DZ+ycLppDqoswWYJcDkHgw2ktgEkTqFwZ0yuQ
2wipIlwJC2as1oj88bQMUw2nOUJqCmdaUcVASW9oKhHDYQLZBSqZCE9G/kiiLIT+
uQIDAQABo4IBYzCCAV8wCQYDVR0TBAIwADAtBglghkgBhvhCAQ0EIBYeRWFzeS1S
U0EgR2VuZXJhdGVkIENlcnRpZmljYXRlMB0GA1UdDgQWBBSmojeAu2azT8Hj3Fsu
WpodPmeLpzCB4QYDVR0jBIHZMIHWgBQSzWAE0qCAnnDtxpm4eyzGUv0ZoaGBsqSB
rzCBrDELMAkGA1UEBhMCVVMxCzAJBgNVBAgTAk9IMREwDwYDVQQHEwhDb2x1bWJ1
czESMBAGA1UEChMJVmlraW5nVlBOMR0wGwYDVQQLExRNeU9yZ2FuaXphdGlvbmFs
VW5pdDEVMBMGA1UEAxMMVmlraW5nVlBOIENBMRAwDgYDVQQpEwdFYXN5UlNBMSEw
HwYJKoZIhvcNAQkBFhJtZUBteWhvc3QubXlkb21haW6CCQDPNYXugL8qPjATBgNV
HSUEDDAKBggrBgEFBQcDAjALBgNVHQ8EBAMCB4AwDQYJKoZIhvcNAQEEBQADggIB
AKqMJplFy93n8oXpQZN9davB07Sg2nahV/SD79NOYLHceXIspHOyLoLCrEPX6q6W
koHmyD2GsPz9LuQ13iTOPlxgKcgSu5DJkl7PUtTse3HYMVwAMuq0/rbf0R8f8HYo
liPaZ9PCtG9LomkXrfIO016oRzoW3J6GGxxiKmfIBYe54n5pVBGKc3EkqN2cxKOS
BmMswVnadWsjJSurdSU2CmSb+H8M3YqV6WN7zXYJago+oKnvg8nrZvGQkN007uUg
+IZtk1/fLLs+xeFHyBGmvoAWcboW4OtsuYrkT/wUzSm5hkfNsM8DMq6wYms5wCUS
pYwqA8XqvjmChn44ezUtASMIK5zWlYr0+jSFDFvUFGnhJDV5V3TxcexxyWpZh2d1
P0RbvhKR9OpUDx1NrpLR+Kr0oPozRbS5bvEy8Bi7bk/8YEJ2oM3oRup4Js2lRpd4
UqA8O3lb40gPEW7pI6o5tz4H73LG/ixRm4fdf0dJuVjhadJ49Vfk4YyXgor1nOA+
rGsAPGZ0jNgTGhMUty82+p6yuM9xFCpJj4fw5b62PGbCiiWFqbFXTglQoA0abFHt
kWkd5YI8hzhcHiYMUPPmNGl4hrSDdYhl5IPJ2RlDus1bdM3XHLRbFhR9Jqe0SWzk
WmHuvowvKZnhLeJiPTmHi+2wFM1Yzv3l9kkzy3TaJv17
-----END CERTIFICATE-----
