Certificate:
    Data:
        Version: 3 (0x2)
        Serial Number: 10390 (0x2896)
    Signature Algorithm: sha256WithRSAEncryption
        Issuer: C=US, ST=OH, L=Columbus, O=VikingVPN, OU=MyOrganizationalUnit, CN=VikingVPN CA/name=EasyRSA/emailAddress=me@myhost.mydomain
        Validity
            Not Before: Mar 27 00:19:06 2017 GMT
            Not After : Mar 25 00:19:06 2027 GMT
        Subject: CN=Client2719Certabf7b1
        Subject Public Key Info:
            Public Key Algorithm: rsaEncryption
                Public-Key: (4096 bit)
                Modulus:
                    00:bd:f9:64:c7:af:ea:ff:2d:3b:0c:52:e6:12:59:
                    00:9d:88:72:e4:22:65:73:58:77:80:c6:ba:9a:e3:
                    b9:40:71:68:4e:85:ce:48:85:9a:48:ce:8c:0b:df:
                    eb:de:48:fb:bb:52:9e:d5:89:e5:2e:01:22:cd:2c:
                    97:5d:99:a3:0c:fc:d6:ba:b9:bf:0a:67:d0:9a:ba:
                    42:dd:47:3f:04:c8:ea:9b:8f:05:a8:ef:a6:bc:9b:
                    46:5c:08:bb:9b:5a:b3:da:d5:77:23:97:3f:ca:d0:
                    bf:0f:f1:0f:9b:0b:ea:22:5d:83:29:10:75:6c:a4:
                    99:b0:f5:4d:6e:e9:8f:55:f7:5a:74:ad:2b:ce:fb:
                    cd:46:19:c0:f0:c8:83:34:3a:35:53:7f:03:d9:2a:
                    37:50:db:4e:5b:83:34:c4:37:e8:f1:5b:b1:b5:83:
                    db:87:f7:44:37:b3:60:a2:72:cf:7e:39:17:5c:58:
                    e2:2a:87:77:f9:79:16:6d:11:75:0d:0c:c6:ca:56:
                    31:83:1f:7b:2e:0d:60:01:dc:8d:8d:e1:24:0e:53:
                    37:4c:4e:03:a3:ec:52:32:61:5a:ea:56:91:8d:9c:
                    a5:4c:ea:a2:58:1c:21:a5:c2:bb:a2:b7:aa:09:a7:
                    04:62:4d:05:db:37:a5:80:2c:42:a7:d8:ab:bb:2b:
                    6d:1b:65:7a:78:3d:ca:0d:bf:a1:04:c5:66:5c:07:
                    23:8a:92:6d:e1:01:fb:e8:9b:44:cf:88:66:6f:10:
                    06:11:f2:52:8e:4b:d9:8d:74:5e:ce:75:05:cb:ac:
                    55:23:7d:96:5f:4d:14:d7:31:60:61:ca:8c:47:04:
                    77:75:22:62:5b:be:bc:5d:1b:dc:7b:21:2c:9d:04:
                    9c:86:8c:b5:35:d1:68:07:97:4b:74:ff:7a:e8:c2:
                    58:76:c8:9a:47:25:b9:07:6b:80:d8:44:ca:d6:e5:
                    42:41:bb:23:95:e4:57:17:06:e7:8d:ad:e2:b8:53:
                    27:38:6a:f6:4f:b6:7f:0e:24:6f:54:11:e4:21:c1:
                    51:a2:ad:0c:49:8a:6d:01:ee:4d:68:ab:c6:c8:3e:
                    3d:28:ee:15:cb:bf:0c:83:8d:0b:4f:b8:4e:a2:85:
                    a6:4d:ca:20:92:be:07:59:72:0e:ca:b5:e0:b2:1d:
                    14:b4:4b:31:2d:bc:b7:09:e4:b7:a7:13:0b:eb:c6:
                    22:4d:38:27:8b:92:c8:ad:b4:f2:77:a7:2c:d0:f7:
                    ba:89:80:b6:b9:9d:a5:27:7c:e2:0c:d0:0e:f6:b5:
                    9b:f1:b6:51:56:57:1d:94:ee:09:bf:b6:aa:22:7a:
                    55:f2:84:47:e8:a5:bf:d4:7e:ea:d4:69:81:ff:35:
                    b0:0d:bf
                Exponent: 65537 (0x10001)
        X509v3 extensions:
            X509v3 Basic Constraints: 
                CA:FALSE
            Netscape Comment: 
                Easy-RSA Generated Certificate
            X509v3 Subject Key Identifier: 
                02:9C:80:79:3A:6E:B2:47:A2:D2:AC:44:01:E4:8D:C1:DA:3C:B9:67
            X509v3 Authority Key Identifier: 
                keyid:12:CD:60:04:D2:A0:80:9E:70:ED:C6:99:B8:7B:2C:C6:52:FD:19:A1
                DirName:/C=US/ST=OH/L=Columbus/O=VikingVPN/OU=MyOrganizationalUnit/CN=VikingVPN CA/name=EasyRSA/emailAddress=me@myhost.mydomain
                serial:CF:35:85:EE:80:BF:2A:3E

            X509v3 Extended Key Usage: 
                TLS Web Client Authentication
            X509v3 Key Usage: 
                Digital Signature
    Signature Algorithm: sha256WithRSAEncryption
         3f:d8:d4:66:9e:cc:b8:f1:27:41:b1:e3:0d:b0:f0:4e:90:e7:
         e9:fc:66:98:37:c4:79:78:76:cd:70:fb:73:53:27:fa:4f:84:
         02:3c:73:9f:a5:34:58:d8:e0:1e:cb:ed:5a:25:81:51:d4:74:
         e8:d3:1b:e2:9a:d5:ac:7f:67:08:c7:ea:ad:1e:32:8f:e8:dc:
         8a:8f:45:05:cf:10:c5:6e:6e:04:f9:7b:a9:ab:8b:ec:fa:12:
         8a:f4:d3:38:ca:f4:42:e1:e6:1c:41:18:d5:55:82:5e:cc:f2:
         71:3b:0d:ca:9f:8f:f4:8d:90:ba:45:1b:04:8c:9f:48:bc:0b:
         a2:84:d1:58:3a:46:5b:53:4f:28:1b:6c:f7:ee:7a:ed:39:03:
         9f:b7:1f:2a:25:77:11:88:82:02:ca:74:51:2b:cf:9c:c0:0d:
         0d:62:d4:77:8a:73:07:40:b6:03:1b:ad:1e:b5:36:2c:7a:a8:
         71:8f:5a:6a:5f:fe:8e:f6:07:3b:1d:51:cd:26:df:b6:29:28:
         56:5b:07:00:3d:7d:b6:9c:1f:be:23:a0:cd:6b:86:55:ce:1f:
         0f:31:51:0a:67:bc:c9:6a:77:15:7e:fc:50:e0:e5:fc:22:b6:
         14:f5:3f:0d:68:18:47:a9:d0:18:3b:0f:34:84:69:b0:c2:f8:
         2e:e3:2a:5a:0d:fa:a8:c9:6f:a8:20:b2:fe:4a:ff:ae:db:17:
         ba:dd:14:49:2f:45:fe:46:f3:58:8a:9c:27:64:87:72:31:4d:
         5e:a6:33:e5:10:a0:20:1d:2f:08:dc:96:01:89:1f:ad:62:fe:
         00:3b:9f:03:9d:33:21:ad:7c:a8:5d:2b:a6:fc:da:73:ee:0d:
         0c:4e:51:02:19:31:96:15:7f:cb:75:09:f8:1b:a7:aa:ff:ba:
         0d:5c:ec:c8:bb:2a:ec:d4:05:28:df:5e:2c:79:bc:e7:46:7d:
         7c:1d:09:63:4f:3b:be:53:93:c7:76:80:43:54:2e:71:98:e0:
         00:9c:d2:1c:d9:51:7e:4d:cf:1e:c2:67:f0:71:d0:0c:21:76:
         42:84:7e:22:b2:ad:f7:b4:34:3d:e5:c7:05:4a:a4:95:8f:65:
         5b:ba:91:3e:ab:20:41:a8:7a:de:25:f6:d6:63:8a:9b:e1:2b:
         99:91:69:9f:01:b7:b5:b9:7b:ce:f2:b4:fb:0d:57:05:04:f4:
         c1:58:90:30:cc:0d:1b:22:38:e1:36:28:0a:90:1e:5f:95:fc:
         26:30:f4:96:fb:47:76:b2:43:6e:75:c5:9d:ca:a2:e0:33:48:
         56:ee:7b:c8:8e:77:33:c8:9b:37:cb:e0:bc:e2:6e:99:32:5d:
         62:8f:48:54:f9:20:43:a4
-----BEGIN CERTIFICATE-----
MIIGrTCCBJWgAwIBAgICKJYwDQYJKoZIhvcNAQELBQAwgawxCzAJBgNVBAYTAlVT
MQswCQYDVQQIEwJPSDERMA8GA1UEBxMIQ29sdW1idXMxEjAQBgNVBAoTCVZpa2lu
Z1ZQTjEdMBsGA1UECxMUTXlPcmdhbml6YXRpb25hbFVuaXQxFTATBgNVBAMTDFZp
a2luZ1ZQTiBDQTEQMA4GA1UEKRMHRWFzeVJTQTEhMB8GCSqGSIb3DQEJARYSbWVA
bXlob3N0Lm15ZG9tYWluMB4XDTE3MDMyNzAwMTkwNloXDTI3MDMyNTAwMTkwNlow
HzEdMBsGA1UEAxMUQ2xpZW50MjcxOUNlcnRhYmY3YjEwggIiMA0GCSqGSIb3DQEB
AQUAA4ICDwAwggIKAoICAQC9+WTHr+r/LTsMUuYSWQCdiHLkImVzWHeAxrqa47lA
cWhOhc5IhZpIzowL3+veSPu7Up7VieUuASLNLJddmaMM/Na6ub8KZ9CaukLdRz8E
yOqbjwWo76a8m0ZcCLubWrPa1Xcjlz/K0L8P8Q+bC+oiXYMpEHVspJmw9U1u6Y9V
91p0rSvO+81GGcDwyIM0OjVTfwPZKjdQ205bgzTEN+jxW7G1g9uH90Q3s2Cics9+
ORdcWOIqh3f5eRZtEXUNDMbKVjGDH3suDWAB3I2N4SQOUzdMTgOj7FIyYVrqVpGN
nKVM6qJYHCGlwruit6oJpwRiTQXbN6WALEKn2Ku7K20bZXp4PcoNv6EExWZcByOK
km3hAfvom0TPiGZvEAYR8lKOS9mNdF7OdQXLrFUjfZZfTRTXMWBhyoxHBHd1ImJb
vrxdG9x7ISydBJyGjLU10WgHl0t0/3rowlh2yJpHJbkHa4DYRMrW5UJBuyOV5FcX
BueNreK4Uyc4avZPtn8OJG9UEeQhwVGirQxJim0B7k1oq8bIPj0o7hXLvwyDjQtP
uE6ihaZNyiCSvgdZcg7KteCyHRS0SzEtvLcJ5LenEwvrxiJNOCeLksittPJ3pyzQ
97qJgLa5naUnfOIM0A72tZvxtlFWVx2U7gm/tqoielXyhEfopb/UfurUaYH/NbAN
vwIDAQABo4IBYzCCAV8wCQYDVR0TBAIwADAtBglghkgBhvhCAQ0EIBYeRWFzeS1S
U0EgR2VuZXJhdGVkIENlcnRpZmljYXRlMB0GA1UdDgQWBBQCnIB5Om6yR6LSrEQB
5I3B2jy5ZzCB4QYDVR0jBIHZMIHWgBQSzWAE0qCAnnDtxpm4eyzGUv0ZoaGBsqSB
rzCBrDELMAkGA1UEBhMCVVMxCzAJBgNVBAgTAk9IMREwDwYDVQQHEwhDb2x1bWJ1
czESMBAGA1UEChMJVmlraW5nVlBOMR0wGwYDVQQLExRNeU9yZ2FuaXphdGlvbmFs
VW5pdDEVMBMGA1UEAxMMVmlraW5nVlBOIENBMRAwDgYDVQQpEwdFYXN5UlNBMSEw
HwYJKoZIhvcNAQkBFhJtZUBteWhvc3QubXlkb21haW6CCQDPNYXugL8qPjATBgNV
HSUEDDAKBggrBgEFBQcDAjALBgNVHQ8EBAMCB4AwDQYJKoZIhvcNAQELBQADggIB
AD/Y1GaezLjxJ0Gx4w2w8E6Q5+n8Zpg3xHl4ds1w+3NTJ/pPhAI8c5+lNFjY4B7L
7VolgVHUdOjTG+Ka1ax/ZwjH6q0eMo/o3IqPRQXPEMVubgT5e6mri+z6Eor00zjK
9ELh5hxBGNVVgl7M8nE7Dcqfj/SNkLpFGwSMn0i8C6KE0Vg6RltTTygbbPfueu05
A5+3HyoldxGIggLKdFErz5zADQ1i1HeKcwdAtgMbrR61Nix6qHGPWmpf/o72Bzsd
Uc0m37YpKFZbBwA9fbacH74joM1rhlXOHw8xUQpnvMlqdxV+/FDg5fwithT1Pw1o
GEep0Bg7DzSEabDC+C7jKloN+qjJb6ggsv5K/67bF7rdFEkvRf5G81iKnCdkh3Ix
TV6mM+UQoCAdLwjclgGJH61i/gA7nwOdMyGtfKhdK6b82nPuDQxOUQIZMZYVf8t1
Cfgbp6r/ug1c7Mi7KuzUBSjfXix5vOdGfXwdCWNPO75Tk8d2gENULnGY4ACc0hzZ
UX5Nzx7CZ/Bx0AwhdkKEfiKyrfe0ND3lxwVKpJWPZVu6kT6rIEGoet4l9tZjipvh
K5mRaZ8Bt7W5e87ytPsNVwUE9MFYkDDMDRsiOOE2KAqQHl+V/CYw9Jb7R3ayQ251
xZ3KouAzSFbue8iOdzPImzfL4LzibpkyXWKPSFT5IEOk
-----END CERTIFICATE-----
