Certificate:
    Data:
        Version: 3 (0x2)
        Serial Number: 3851 (0xf0b)
    Signature Algorithm: md5WithRSAEncryption
        Issuer: C=US, ST=OH, L=Columbus, O=VikingVPN, OU=MyOrganizationalUnit, CN=VikingVPN CA/name=EasyRSA/emailAddress=me@myhost.mydomain
        Validity
            Not Before: Dec 29 21:20:56 2014 GMT
            Not After : Dec 26 21:20:56 2024 GMT
        Subject: CN=Client801Cert4694de
        Subject Public Key Info:
            Public Key Algorithm: rsaEncryption
                Public-Key: (4096 bit)
                Modulus:
                    00:a8:04:26:ad:24:fd:e6:d6:db:82:79:a7:eb:da:
                    ea:0c:09:bd:03:08:6f:f8:ac:b8:66:e5:ef:ef:59:
                    cb:4b:13:88:2d:7a:f0:a7:1c:50:29:90:68:7b:e0:
                    22:11:d4:ef:16:93:62:43:4a:c4:44:57:8b:a8:af:
                    33:70:78:ab:94:31:b7:5d:3f:9c:95:63:99:b7:33:
                    3c:12:6f:08:e1:69:44:db:06:d3:81:ee:9b:7c:cc:
                    d6:5a:d1:9f:26:77:16:56:a3:3b:f1:1d:cc:f8:d7:
                    9e:64:3d:3c:98:15:94:1f:28:78:d3:89:b1:cb:67:
                    4e:3e:d8:9d:43:d3:cb:03:f5:3a:80:5a:9f:18:d7:
                    50:a0:fd:77:bf:92:22:ba:b5:0e:b3:fb:10:a4:5f:
                    0d:b4:d2:b2:3a:9b:fe:6d:95:e3:fc:93:99:52:e2:
                    17:88:43:be:ec:95:b1:b6:42:3f:6b:0c:2b:96:7f:
                    d0:6a:8a:3a:4b:05:1f:83:ad:d2:77:72:e1:aa:c0:
                    03:33:8b:33:17:26:71:0c:79:3e:3e:e7:82:9f:43:
                    31:ba:96:34:ac:74:22:f7:f3:15:a3:df:67:d0:dc:
                    43:5e:c6:a1:9a:7f:62:53:de:48:43:38:c8:a3:c6:
                    6d:69:85:fb:87:a1:b3:23:3d:5f:24:99:57:8b:5b:
                    c5:cb:c0:61:6f:7f:12:81:38:5e:ac:42:23:3e:44:
                    b0:aa:e3:65:6e:b3:8e:c1:29:a3:43:ae:44:9a:2b:
                    6c:4d:6e:8d:b7:78:3b:9f:6e:f7:4a:bc:ee:c6:51:
                    14:54:81:cb:75:74:c7:9a:cd:e0:82:6b:15:2a:ad:
                    bc:ee:39:9a:1b:58:4e:7d:82:15:66:da:0d:22:63:
                    6b:b0:42:d2:a1:d6:1b:43:6b:f4:5e:93:0f:35:79:
                    52:5b:6c:d4:a9:fc:da:a2:b7:fb:76:3b:cc:3a:5e:
                    74:de:a0:bd:ec:a6:b5:1e:d9:bc:a9:89:56:34:58:
                    41:b5:bd:a8:f9:39:3f:ca:e5:63:4f:91:eb:29:77:
                    28:a4:41:f3:de:26:a7:00:94:4b:2e:13:20:4e:c4:
                    c1:79:db:32:e4:e2:c4:dc:b1:e8:72:12:32:fd:b5:
                    92:aa:70:59:b4:89:c8:e5:30:70:f4:69:44:ba:ba:
                    fd:97:10:ee:f9:a6:3e:ca:aa:83:cf:bd:6f:19:89:
                    d2:15:12:f5:64:f9:92:75:13:6f:3c:0e:ea:20:32:
                    2b:88:94:22:a6:07:a0:4b:fa:6a:b6:00:ec:af:80:
                    00:99:b1:83:99:42:3d:35:b1:6a:bb:0e:ab:89:12:
                    7a:3d:db:2c:89:07:9d:37:57:d3:45:9e:0f:01:a0:
                    2c:18:57
                Exponent: 65537 (0x10001)
        X509v3 extensions:
            X509v3 Basic Constraints: 
                CA:FALSE
            Netscape Comment: 
                Easy-RSA Generated Certificate
            X509v3 Subject Key Identifier: 
                55:79:13:D3:F0:8A:8C:DA:88:C5:F3:BC:FF:8E:5F:D5:1C:28:94:FF
            X509v3 Authority Key Identifier: 
                keyid:12:CD:60:04:D2:A0:80:9E:70:ED:C6:99:B8:7B:2C:C6:52:FD:19:A1
                DirName:/C=US/ST=OH/L=Columbus/O=VikingVPN/OU=MyOrganizationalUnit/CN=VikingVPN CA/name=EasyRSA/emailAddress=me@myhost.mydomain
                serial:CF:35:85:EE:80:BF:2A:3E

            X509v3 Extended Key Usage: 
                TLS Web Client Authentication
            X509v3 Key Usage: 
                Digital Signature
    Signature Algorithm: md5WithRSAEncryption
         26:54:cb:ab:a9:8e:15:f3:a1:3f:63:d5:09:8c:3b:fe:d2:a8:
         56:c8:5f:c2:87:b4:97:77:83:69:fa:42:79:ca:87:8d:d5:98:
         2b:34:7f:9c:bf:38:e1:bd:4b:24:fb:9d:50:e9:24:7f:1c:7b:
         37:13:f4:ea:47:5a:37:43:38:5c:c6:98:22:2e:00:96:39:83:
         52:21:72:43:f8:4b:cb:f7:e1:e8:4a:ac:3b:0f:95:de:96:63:
         3f:17:06:c3:1e:85:62:ef:23:12:57:aa:b2:3a:0f:43:43:2c:
         dc:d5:c7:e0:44:a5:68:e8:e1:92:da:a0:b0:7c:f8:65:64:38:
         00:a9:0b:f1:0f:0f:04:d0:07:57:f4:a7:a2:a9:c7:9a:23:7e:
         72:a5:80:40:cb:ab:bf:c6:2d:a4:8f:61:de:39:c0:68:02:d6:
         7c:7b:a8:ea:ea:5e:b6:fe:85:1d:47:d7:43:a3:52:1a:eb:6c:
         d5:37:fb:cb:59:3a:d8:2f:0c:85:10:36:90:09:25:47:36:5f:
         7b:b4:08:cc:44:86:ce:ab:d6:1a:6b:1e:cf:a0:af:74:2f:57:
         9c:87:f2:56:08:a9:04:08:b1:be:10:e7:ab:16:e8:d5:bd:3e:
         5b:3e:71:66:31:d6:b4:e5:07:19:0d:6e:1b:bc:8f:c1:c2:c9:
         0c:cd:8c:8a:a8:2a:55:79:ba:fa:18:42:e1:21:a0:21:d1:74:
         2c:9e:2f:7a:57:50:e8:23:d5:d1:0e:35:9e:fe:85:b7:60:d6:
         b4:d4:b5:93:ff:1f:5d:62:94:ba:59:4b:ab:6a:d1:cb:10:29:
         01:8a:63:3d:ac:d2:69:e8:bb:98:66:db:1f:f3:e8:88:81:a3:
         ea:3d:88:03:62:9a:35:a0:f8:0f:e9:fe:e0:64:0b:0f:2f:ae:
         52:2e:51:c1:e7:10:b6:66:8a:0a:cd:fa:4a:c0:28:56:58:76:
         23:66:65:8e:25:05:1c:bc:53:11:ab:77:ea:61:3d:55:2f:48:
         6d:52:3a:4c:89:19:f8:c2:fa:32:9f:f5:8f:0b:2a:23:b0:36:
         60:79:60:1e:ec:ea:5e:0e:46:98:74:ed:9a:3b:38:a5:fd:05:
         44:51:42:27:50:c5:d2:3c:17:b5:f4:3e:d4:17:54:ec:04:97:
         e4:53:19:05:ef:fb:15:a8:c6:4f:8b:0a:2f:69:ac:c1:43:4e:
         a3:71:e8:e6:3a:49:45:52:51:20:86:78:ca:2e:03:8b:e2:a4:
         d5:ba:e8:b3:58:f5:1f:83:db:58:ce:7b:1f:af:8d:f5:cb:f7:
         ca:df:0b:69:30:c8:63:5d:c5:2f:6e:75:2a:22:d2:2f:97:39:
         30:21:c5:58:d8:05:08:50
-----BEGIN CERTIFICATE-----
MIIGrDCCBJSgAwIBAgICDwswDQYJKoZIhvcNAQEEBQAwgawxCzAJBgNVBAYTAlVT
MQswCQYDVQQIEwJPSDERMA8GA1UEBxMIQ29sdW1idXMxEjAQBgNVBAoTCVZpa2lu
Z1ZQTjEdMBsGA1UECxMUTXlPcmdhbml6YXRpb25hbFVuaXQxFTATBgNVBAMTDFZp
a2luZ1ZQTiBDQTEQMA4GA1UEKRMHRWFzeVJTQTEhMB8GCSqGSIb3DQEJARYSbWVA
bXlob3N0Lm15ZG9tYWluMB4XDTE0MTIyOTIxMjA1NloXDTI0MTIyNjIxMjA1Nlow
HjEcMBoGA1UEAxMTQ2xpZW50ODAxQ2VydDQ2OTRkZTCCAiIwDQYJKoZIhvcNAQEB
BQADggIPADCCAgoCggIBAKgEJq0k/ebW24J5p+va6gwJvQMIb/isuGbl7+9Zy0sT
iC168KccUCmQaHvgIhHU7xaTYkNKxERXi6ivM3B4q5Qxt10/nJVjmbczPBJvCOFp
RNsG04Hum3zM1lrRnyZ3FlajO/EdzPjXnmQ9PJgVlB8oeNOJsctnTj7YnUPTywP1
OoBanxjXUKD9d7+SIrq1DrP7EKRfDbTSsjqb/m2V4/yTmVLiF4hDvuyVsbZCP2sM
K5Z/0GqKOksFH4Ot0ndy4arAAzOLMxcmcQx5Pj7ngp9DMbqWNKx0IvfzFaPfZ9Dc
Q17GoZp/YlPeSEM4yKPGbWmF+4ehsyM9XySZV4tbxcvAYW9/EoE4XqxCIz5EsKrj
ZW6zjsEpo0OuRJorbE1ujbd4O59u90q87sZRFFSBy3V0x5rN4IJrFSqtvO45mhtY
Tn2CFWbaDSJja7BC0qHWG0Nr9F6TDzV5Ults1Kn82qK3+3Y7zDpedN6gveymtR7Z
vKmJVjRYQbW9qPk5P8rlY0+R6yl3KKRB894mpwCUSy4TIE7EwXnbMuTixNyx6HIS
Mv21kqpwWbSJyOUwcPRpRLq6/ZcQ7vmmPsqqg8+9bxmJ0hUS9WT5knUTbzwO6iAy
K4iUIqYHoEv6arYA7K+AAJmxg5lCPTWxarsOq4kSej3bLIkHnTdX00WeDwGgLBhX
AgMBAAGjggFjMIIBXzAJBgNVHRMEAjAAMC0GCWCGSAGG+EIBDQQgFh5FYXN5LVJT
QSBHZW5lcmF0ZWQgQ2VydGlmaWNhdGUwHQYDVR0OBBYEFFV5E9PwiozaiMXzvP+O
X9UcKJT/MIHhBgNVHSMEgdkwgdaAFBLNYATSoICecO3Gmbh7LMZS/RmhoYGypIGv
MIGsMQswCQYDVQQGEwJVUzELMAkGA1UECBMCT0gxETAPBgNVBAcTCENvbHVtYnVz
MRIwEAYDVQQKEwlWaWtpbmdWUE4xHTAbBgNVBAsTFE15T3JnYW5pemF0aW9uYWxV
bml0MRUwEwYDVQQDEwxWaWtpbmdWUE4gQ0ExEDAOBgNVBCkTB0Vhc3lSU0ExITAf
BgkqhkiG9w0BCQEWEm1lQG15aG9zdC5teWRvbWFpboIJAM81he6Avyo+MBMGA1Ud
JQQMMAoGCCsGAQUFBwMCMAsGA1UdDwQEAwIHgDANBgkqhkiG9w0BAQQFAAOCAgEA
JlTLq6mOFfOhP2PVCYw7/tKoVshfwoe0l3eDafpCecqHjdWYKzR/nL844b1LJPud
UOkkfxx7NxP06kdaN0M4XMaYIi4AljmDUiFyQ/hLy/fh6EqsOw+V3pZjPxcGwx6F
Yu8jEleqsjoPQ0Ms3NXH4ESlaOjhktqgsHz4ZWQ4AKkL8Q8PBNAHV/SnoqnHmiN+
cqWAQMurv8YtpI9h3jnAaALWfHuo6upetv6FHUfXQ6NSGuts1Tf7y1k62C8MhRA2
kAklRzZfe7QIzESGzqvWGmsez6CvdC9XnIfyVgipBAixvhDnqxbo1b0+Wz5xZjHW
tOUHGQ1uG7yPwcLJDM2MiqgqVXm6+hhC4SGgIdF0LJ4veldQ6CPV0Q41nv6Ft2DW
tNS1k/8fXWKUullLq2rRyxApAYpjPazSaei7mGbbH/PoiIGj6j2IA2KaNaD4D+n+
4GQLDy+uUi5RwecQtmaKCs36SsAoVlh2I2ZljiUFHLxTEat36mE9VS9IbVI6TIkZ
+ML6Mp/1jwsqI7A2YHlgHuzqXg5GmHTtmjs4pf0FRFFCJ1DF0jwXtfQ+1BdU7ASX
5FMZBe/7FajGT4sKL2mswUNOo3Ho5jpJRVJRIIZ4yi4Di+Kk1bros1j1H4PbWM57
H6+N9cv3yt8LaTDIY13FL251KiLSL5c5MCHFWNgFCFA=
-----END CERTIFICATE-----
