Certificate:
    Data:
        Version: 3 (0x2)
        Serial Number: 3474 (0xd92)
    Signature Algorithm: md5WithRSAEncryption
        Issuer: C=US, ST=OH, L=Columbus, O=VikingVPN, OU=MyOrganizationalUnit, CN=VikingVPN CA/name=EasyRSA/emailAddress=me@myhost.mydomain
        Validity
            Not Before: Nov 23 18:51:17 2014 GMT
            Not After : Nov 20 18:51:17 2024 GMT
        Subject: CN=Client556Cert5d3aeb
        Subject Public Key Info:
            Public Key Algorithm: rsaEncryption
                Public-Key: (4096 bit)
                Modulus:
                    00:ae:b7:29:ff:e8:0f:ae:14:bd:cc:f3:d3:30:ae:
                    3a:4b:23:41:a7:6a:3c:a5:9a:1d:06:45:ce:a3:ec:
                    f8:9d:53:c5:f6:eb:d7:b9:e9:7f:56:00:98:83:b0:
                    8e:f4:d3:84:59:6f:17:4c:25:ef:fe:c3:b9:c9:0a:
                    f4:8d:8b:8c:74:45:87:02:ea:d5:bc:72:b3:5e:bc:
                    d2:f4:5f:e8:b6:4e:dc:f5:92:30:63:f7:1d:6d:10:
                    05:2c:68:bb:89:36:50:8c:d1:d7:f6:db:12:c4:66:
                    e8:b6:61:e9:ce:fe:3b:9d:78:1e:26:b7:43:89:02:
                    8a:cd:8d:ab:d2:82:47:b0:dd:cb:94:7a:0e:a4:6b:
                    11:2e:b9:8f:c8:84:52:06:05:b8:fd:3f:98:04:7f:
                    05:db:d8:75:95:ab:e4:f8:4c:59:19:b7:46:61:89:
                    7c:bc:6a:6e:52:c5:70:a1:36:dc:93:cd:39:90:da:
                    86:25:0c:7d:78:ee:b7:68:b6:d2:f7:37:3f:cc:88:
                    c1:52:df:94:86:e0:90:df:f6:f8:bc:2e:57:a9:91:
                    05:c7:8a:cd:cd:c0:f8:f8:2f:3a:a9:e0:ed:52:94:
                    2b:e8:9b:99:37:ce:3f:8e:41:7c:56:df:78:aa:9b:
                    9e:60:81:e9:b9:03:03:41:d6:25:a2:27:8a:0c:4a:
                    78:e1:df:82:ac:11:9f:0b:ee:29:e8:ce:84:bc:b0:
                    e3:7e:6d:93:1f:6a:ec:15:b0:15:a7:9f:e7:75:a5:
                    9d:8b:5c:00:44:6e:55:fe:5b:5b:56:ad:5f:2d:2b:
                    e1:43:88:f8:56:c6:6b:cb:32:fe:70:ba:b1:7f:85:
                    4f:1f:1c:83:9b:17:06:99:68:1e:44:e5:12:56:3d:
                    7c:b2:94:7f:a9:02:8e:22:1c:55:5b:cf:2f:d7:4f:
                    53:9f:16:a7:06:2d:48:60:dd:26:f8:34:3a:a5:e9:
                    b3:8d:bc:81:7b:4d:51:d9:c0:a4:99:f3:31:f6:f1:
                    c7:01:c3:0e:3d:cb:0b:52:d0:e0:37:74:5f:d4:a8:
                    b5:5b:9f:3a:94:37:d9:4f:70:95:9a:ae:66:0e:cd:
                    bf:eb:44:8b:14:e7:c9:56:67:92:26:03:5a:fa:63:
                    28:c3:20:93:81:89:78:18:33:f9:63:b6:ce:5e:f2:
                    9c:d0:f8:eb:73:03:c5:f1:28:ca:0b:28:b2:ca:8f:
                    28:68:c1:45:49:61:92:03:68:bf:07:33:d4:a0:5e:
                    8f:42:40:e2:00:78:2b:8f:be:f8:5f:a5:83:d1:d6:
                    ec:08:6b:4e:a5:11:78:d3:3f:57:60:e9:33:bd:f1:
                    31:25:3e:7c:2f:28:33:c9:c2:a4:1a:21:ed:f4:fe:
                    0a:88:41
                Exponent: 65537 (0x10001)
        X509v3 extensions:
            X509v3 Basic Constraints: 
                CA:FALSE
            Netscape Comment: 
                Easy-RSA Generated Certificate
            X509v3 Subject Key Identifier: 
                F1:03:C0:CD:24:CB:90:D3:B9:70:EF:0F:6A:F4:FA:B5:1C:38:D6:B9
            X509v3 Authority Key Identifier: 
                keyid:12:CD:60:04:D2:A0:80:9E:70:ED:C6:99:B8:7B:2C:C6:52:FD:19:A1
                DirName:/C=US/ST=OH/L=Columbus/O=VikingVPN/OU=MyOrganizationalUnit/CN=VikingVPN CA/name=EasyRSA/emailAddress=me@myhost.mydomain
                serial:CF:35:85:EE:80:BF:2A:3E

            X509v3 Extended Key Usage: 
                TLS Web Client Authentication
            X509v3 Key Usage: 
                Digital Signature
    Signature Algorithm: md5WithRSAEncryption
         5a:f7:5d:75:a7:b0:c8:b9:45:9d:84:a5:dc:4a:71:0e:4e:b2:
         e9:2f:e4:c9:44:ed:32:0d:3e:86:52:ab:5d:73:b4:87:1a:d5:
         6d:6e:07:20:c4:77:7f:88:2a:ce:2a:e4:80:f1:64:96:39:e9:
         ad:c7:1d:ac:65:bd:78:3c:73:c6:6d:7b:90:28:67:12:33:91:
         90:c5:dd:92:88:7d:a3:d8:f7:74:4f:e7:2a:c3:6c:49:44:67:
         bd:eb:b1:0c:66:58:5a:76:6d:6f:c5:b2:33:43:a4:41:76:d2:
         62:b7:31:34:1e:38:59:a4:b7:84:d7:41:68:1a:74:af:9f:ee:
         c5:03:9d:db:33:5b:5f:33:e2:cc:42:39:c3:0f:e6:30:08:2b:
         9e:2f:c4:c4:5f:95:18:69:b1:c7:00:34:ba:da:17:14:5b:28:
         1a:ef:82:5d:2a:e9:58:07:64:e6:c3:76:52:89:02:cf:3e:82:
         dd:db:e3:26:a6:8a:9c:d9:6d:43:26:30:f5:4f:64:58:4f:83:
         8a:58:a3:d6:4f:86:57:0a:03:59:bc:a5:49:e6:9b:e1:b6:d9:
         45:62:46:79:d9:f8:86:17:c0:47:db:e0:d4:10:d8:04:29:5e:
         75:b2:94:fb:51:67:50:a9:14:e2:d5:01:c7:0a:9c:4d:27:c3:
         11:76:9b:22:be:0c:37:1e:7f:55:3b:67:67:15:3d:02:f1:34:
         aa:85:bc:36:eb:bb:7a:24:3e:40:ce:77:8d:76:5a:29:42:ae:
         62:5c:36:fc:24:b1:8f:03:65:c1:4e:67:b5:4c:bb:4a:a2:fe:
         be:3f:f2:84:6a:66:a0:92:f1:2e:2a:02:19:95:85:9d:1d:59:
         8c:4b:88:10:4c:f8:9c:59:bb:09:6d:57:d4:d6:cc:71:0c:9a:
         b4:f7:5e:1f:e6:99:bf:84:4d:5b:a3:83:4e:d3:92:96:84:55:
         32:7b:84:38:b6:57:b5:0b:56:eb:77:eb:65:de:7c:bb:bb:b2:
         68:b9:ed:10:2e:88:48:0c:6d:98:5d:df:ae:32:7d:41:49:2d:
         73:b7:6c:02:b0:d4:6b:d1:44:ee:69:19:95:59:ee:46:c4:06:
         4d:63:f9:e0:00:6a:05:fc:a6:be:c7:80:c5:53:59:a6:86:6a:
         f2:3f:a7:db:74:67:2f:b7:f3:d9:d8:cc:29:35:a0:2c:bd:e1:
         e0:51:f6:f4:ef:d1:8f:93:be:40:fc:de:37:60:66:56:73:c9:
         5c:77:87:18:e8:be:da:e0:f5:6b:fb:4d:e7:01:56:04:43:34:
         f9:dd:05:61:89:74:82:62:bd:0b:5c:9b:90:f6:e5:0c:79:58:
         b5:e2:59:21:bb:88:c5:5d
-----BEGIN CERTIFICATE-----
MIIGrDCCBJSgAwIBAgICDZIwDQYJKoZIhvcNAQEEBQAwgawxCzAJBgNVBAYTAlVT
MQswCQYDVQQIEwJPSDERMA8GA1UEBxMIQ29sdW1idXMxEjAQBgNVBAoTCVZpa2lu
Z1ZQTjEdMBsGA1UECxMUTXlPcmdhbml6YXRpb25hbFVuaXQxFTATBgNVBAMTDFZp
a2luZ1ZQTiBDQTEQMA4GA1UEKRMHRWFzeVJTQTEhMB8GCSqGSIb3DQEJARYSbWVA
bXlob3N0Lm15ZG9tYWluMB4XDTE0MTEyMzE4NTExN1oXDTI0MTEyMDE4NTExN1ow
HjEcMBoGA1UEAxMTQ2xpZW50NTU2Q2VydDVkM2FlYjCCAiIwDQYJKoZIhvcNAQEB
BQADggIPADCCAgoCggIBAK63Kf/oD64Uvczz0zCuOksjQadqPKWaHQZFzqPs+J1T
xfbr17npf1YAmIOwjvTThFlvF0wl7/7DuckK9I2LjHRFhwLq1bxys1680vRf6LZO
3PWSMGP3HW0QBSxou4k2UIzR1/bbEsRm6LZh6c7+O514Hia3Q4kCis2Nq9KCR7Dd
y5R6DqRrES65j8iEUgYFuP0/mAR/BdvYdZWr5PhMWRm3RmGJfLxqblLFcKE23JPN
OZDahiUMfXjut2i20vc3P8yIwVLflIbgkN/2+LwuV6mRBceKzc3A+PgvOqng7VKU
K+ibmTfOP45BfFbfeKqbnmCB6bkDA0HWJaInigxKeOHfgqwRnwvuKejOhLyw435t
kx9q7BWwFaef53WlnYtcAERuVf5bW1atXy0r4UOI+FbGa8sy/nC6sX+FTx8cg5sX
BploHkTlElY9fLKUf6kCjiIcVVvPL9dPU58WpwYtSGDdJvg0OqXps428gXtNUdnA
pJnzMfbxxwHDDj3LC1LQ4Dd0X9SotVufOpQ32U9wlZquZg7Nv+tEixTnyVZnkiYD
WvpjKMMgk4GJeBgz+WO2zl7ynND463MDxfEoygsossqPKGjBRUlhkgNovwcz1KBe
j0JA4gB4K4+++F+lg9HW7AhrTqUReNM/V2DpM73xMSU+fC8oM8nCpBoh7fT+CohB
AgMBAAGjggFjMIIBXzAJBgNVHRMEAjAAMC0GCWCGSAGG+EIBDQQgFh5FYXN5LVJT
QSBHZW5lcmF0ZWQgQ2VydGlmaWNhdGUwHQYDVR0OBBYEFPEDwM0ky5DTuXDvD2r0
+rUcONa5MIHhBgNVHSMEgdkwgdaAFBLNYATSoICecO3Gmbh7LMZS/RmhoYGypIGv
MIGsMQswCQYDVQQGEwJVUzELMAkGA1UECBMCT0gxETAPBgNVBAcTCENvbHVtYnVz
MRIwEAYDVQQKEwlWaWtpbmdWUE4xHTAbBgNVBAsTFE15T3JnYW5pemF0aW9uYWxV
bml0MRUwEwYDVQQDEwxWaWtpbmdWUE4gQ0ExEDAOBgNVBCkTB0Vhc3lSU0ExITAf
BgkqhkiG9w0BCQEWEm1lQG15aG9zdC5teWRvbWFpboIJAM81he6Avyo+MBMGA1Ud
JQQMMAoGCCsGAQUFBwMCMAsGA1UdDwQEAwIHgDANBgkqhkiG9w0BAQQFAAOCAgEA
WvdddaewyLlFnYSl3EpxDk6y6S/kyUTtMg0+hlKrXXO0hxrVbW4HIMR3f4gqzirk
gPFkljnprccdrGW9eDxzxm17kChnEjORkMXdkoh9o9j3dE/nKsNsSURnveuxDGZY
WnZtb8WyM0OkQXbSYrcxNB44WaS3hNdBaBp0r5/uxQOd2zNbXzPizEI5ww/mMAgr
ni/ExF+VGGmxxwA0utoXFFsoGu+CXSrpWAdk5sN2UokCzz6C3dvjJqaKnNltQyYw
9U9kWE+Dilij1k+GVwoDWbylSeab4bbZRWJGedn4hhfAR9vg1BDYBCledbKU+1Fn
UKkU4tUBxwqcTSfDEXabIr4MNx5/VTtnZxU9AvE0qoW8Nuu7eiQ+QM53jXZaKUKu
Ylw2/CSxjwNlwU5ntUy7SqL+vj/yhGpmoJLxLioCGZWFnR1ZjEuIEEz4nFm7CW1X
1NbMcQyatPdeH+aZv4RNW6ODTtOSloRVMnuEOLZXtQtW63frZd58u7uyaLntEC6I
SAxtmF3frjJ9QUktc7dsArDUa9FE7mkZlVnuRsQGTWP54ABqBfymvseAxVNZpoZq
8j+n23RnL7fz2djMKTWgLL3h4FH29O/Rj5O+QPzeN2BmVnPJXHeHGOi+2uD1a/tN
5wFWBEM0+d0FYYl0gmK9C1ybkPblDHlYteJZIbuIxV0=
-----END CERTIFICATE-----
