Certificate:
    Data:
        Version: 3 (0x2)
        Serial Number: 3329 (0xd01)
    Signature Algorithm: md5WithRSAEncryption
        Issuer: C=US, ST=OH, L=Columbus, O=VikingVPN, OU=MyOrganizationalUnit, CN=VikingVPN CA/name=EasyRSA/emailAddress=me@myhost.mydomain
        Validity
            Not Before: Nov 10 01:32:26 2014 GMT
            Not After : Nov  7 01:32:26 2024 GMT
        Subject: CN=Client1156Cert4a2554
        Subject Public Key Info:
            Public Key Algorithm: rsaEncryption
                Public-Key: (4096 bit)
                Modulus:
                    00:c4:ed:e5:58:e2:92:6b:93:3a:50:95:ab:69:23:
                    61:66:c7:95:c6:62:52:d1:89:03:0b:91:81:44:c9:
                    58:a4:ee:54:1f:6f:04:3b:12:aa:6a:b2:00:6b:91:
                    4f:f0:1c:b5:b1:a3:de:cb:e6:c9:ba:de:dd:ba:8f:
                    59:55:93:59:a0:11:66:c7:45:be:41:d5:6d:cf:2e:
                    f0:a7:e8:e3:81:4d:3a:33:cb:da:62:b6:ba:12:69:
                    b1:d0:9e:db:f0:e8:a3:a5:49:70:ac:83:cd:94:d0:
                    5d:43:b3:b4:1f:9c:72:02:04:52:1d:9e:71:fd:0e:
                    fd:3c:01:e9:b9:22:f8:70:9c:2a:e4:e7:bd:b9:47:
                    8c:c5:7f:d4:8b:e9:84:5d:f0:bd:59:10:fd:e6:1a:
                    71:21:3d:31:95:48:30:f4:bf:80:f4:ba:ad:c7:f9:
                    12:bd:dd:1c:8d:be:fb:27:8f:b7:50:4f:67:ac:2c:
                    c2:9a:40:7e:7b:b3:9e:cb:6e:9a:a0:92:ae:28:89:
                    e3:c9:73:e2:1a:49:2d:31:e9:2d:39:85:f6:af:d8:
                    c8:77:3d:ee:12:0f:57:a4:fc:ae:d9:d2:65:e1:a7:
                    63:8e:39:b8:8f:c4:8d:55:04:6b:d1:8a:b0:fb:87:
                    d8:a2:e7:b7:97:fb:4b:e7:03:52:a2:0d:16:15:24:
                    6b:37:99:4e:46:39:33:3a:6b:4c:d4:5e:1a:19:7d:
                    31:2c:92:e9:c8:ec:fb:8f:26:a7:92:f0:ee:cf:0a:
                    d0:57:e6:d7:ad:b6:10:11:5a:ea:c7:dd:3d:ef:dc:
                    71:7e:12:e4:b7:ca:d6:94:7d:11:13:c1:01:fd:74:
                    b5:db:ce:21:a4:a0:79:d9:3f:cf:72:cb:ea:f8:d9:
                    46:23:92:5d:4f:49:37:2a:d7:77:64:3e:50:20:ca:
                    17:45:93:a7:43:8a:ed:16:9f:df:e8:8d:60:01:2b:
                    66:d5:3e:0c:cc:dd:a8:f7:42:c4:02:9b:89:d5:af:
                    ea:5a:db:24:b4:0e:c1:96:a1:21:fe:60:c1:40:3f:
                    27:b7:c8:37:de:6f:c7:74:ac:37:5c:4d:46:15:31:
                    63:11:78:c7:6f:02:35:8d:39:fc:16:c5:d8:15:a2:
                    e1:cd:97:c8:08:bd:e5:d1:f7:02:7d:cb:d6:a2:1f:
                    4c:9d:0a:65:89:19:d2:aa:b9:3d:ac:47:c4:f0:14:
                    51:04:12:fc:83:93:f0:8c:57:cf:12:ea:b5:03:55:
                    d4:9c:f4:55:74:5c:36:9f:e5:f1:0c:6c:9d:92:85:
                    37:97:d6:2d:e8:f1:fa:1e:5d:ed:78:d4:2f:7a:ff:
                    2d:73:3e:fe:bd:52:0b:b6:14:61:27:60:61:ed:13:
                    9a:82:59
                Exponent: 65537 (0x10001)
        X509v3 extensions:
            X509v3 Basic Constraints: 
                CA:FALSE
            Netscape Comment: 
                Easy-RSA Generated Certificate
            X509v3 Subject Key Identifier: 
                64:C4:F9:94:E2:BB:6B:2A:E0:B3:58:56:76:AE:45:39:A6:7B:21:27
            X509v3 Authority Key Identifier: 
                keyid:12:CD:60:04:D2:A0:80:9E:70:ED:C6:99:B8:7B:2C:C6:52:FD:19:A1
                DirName:/C=US/ST=OH/L=Columbus/O=VikingVPN/OU=MyOrganizationalUnit/CN=VikingVPN CA/name=EasyRSA/emailAddress=me@myhost.mydomain
                serial:CF:35:85:EE:80:BF:2A:3E

            X509v3 Extended Key Usage: 
                TLS Web Client Authentication
            X509v3 Key Usage: 
                Digital Signature
    Signature Algorithm: md5WithRSAEncryption
         b3:ed:8d:1d:aa:22:1b:1a:19:7d:9c:52:2d:f8:1a:9c:5f:4f:
         6d:d8:0f:a5:6a:a7:3b:2a:d9:5b:8d:b1:24:a0:eb:b4:cd:9b:
         f4:7e:d4:05:d2:b8:fb:fb:1d:cd:49:f3:34:9f:58:db:19:90:
         8b:f6:91:f9:3d:12:a4:2c:78:59:1a:74:37:0d:70:c2:58:f7:
         5f:23:00:f0:0f:de:44:e7:0a:31:91:57:e3:31:20:cb:74:24:
         15:62:a7:cf:19:79:2e:cc:b7:2d:37:3e:b0:84:b9:0d:17:bb:
         11:19:ad:68:cc:81:82:a5:80:33:39:0d:23:87:8e:53:5e:94:
         2d:e1:0a:2c:95:7a:e7:fe:ff:de:eb:d5:1d:5e:6d:e1:67:99:
         ab:cb:47:43:9e:29:47:a5:be:b5:f3:2b:c2:ae:95:ca:45:3a:
         5d:7d:c3:96:38:9b:b5:56:d7:df:ac:48:5b:10:16:d7:82:4e:
         df:ce:60:1a:f7:9e:34:f2:b9:93:88:eb:81:eb:7c:f0:04:35:
         a7:aa:6f:1f:8f:c9:b1:60:de:ae:ab:55:e3:3e:b8:e7:9b:65:
         f2:a6:3b:14:a1:43:75:c8:59:ae:88:11:a1:d9:3b:e8:f4:e6:
         8b:d3:cb:41:2e:d3:38:b6:89:29:7b:df:63:c2:24:9c:b0:59:
         f2:c5:dd:df:b0:7f:3c:15:63:d3:be:69:de:91:01:c9:bf:9f:
         07:2e:d3:86:c0:42:e5:4a:0e:be:69:d1:9a:46:f2:16:b1:c6:
         25:a0:9d:7e:ae:0e:c8:86:68:f2:42:6c:69:04:82:d2:a0:da:
         e5:82:b9:1e:c1:7a:e1:dd:33:93:1f:7c:cc:97:b1:8c:a9:1c:
         65:cd:99:9a:08:53:ed:1c:38:4d:36:3e:21:34:3c:16:47:c5:
         db:9e:82:1b:97:c7:e2:81:03:ed:32:c9:a6:80:59:0f:73:44:
         55:74:e3:44:b9:b0:90:d4:92:93:66:fb:36:d1:67:4c:03:c8:
         48:04:d3:8f:8f:0c:09:59:67:93:09:eb:a8:10:bd:42:b8:53:
         34:29:ae:2c:41:ef:c8:b7:d4:1e:af:d5:5a:88:c7:2f:cc:b4:
         a4:de:a9:36:51:bc:a3:ce:7e:be:36:41:23:13:bb:9c:cd:ba:
         ac:89:35:f2:cb:53:f2:d1:31:e0:a5:40:dd:a5:ee:3e:84:d0:
         05:4b:76:f0:2b:1b:27:24:a6:40:ae:88:0f:74:08:69:e4:56:
         74:5c:32:2c:d6:2f:4c:04:bb:9f:aa:b8:1e:41:ab:4f:5c:dd:
         b2:a6:8e:d5:15:23:6f:f0:22:d7:67:42:49:76:89:38:36:22:
         92:79:80:52:c2:4d:5d:29
-----BEGIN CERTIFICATE-----
MIIGrTCCBJWgAwIBAgICDQEwDQYJKoZIhvcNAQEEBQAwgawxCzAJBgNVBAYTAlVT
MQswCQYDVQQIEwJPSDERMA8GA1UEBxMIQ29sdW1idXMxEjAQBgNVBAoTCVZpa2lu
Z1ZQTjEdMBsGA1UECxMUTXlPcmdhbml6YXRpb25hbFVuaXQxFTATBgNVBAMTDFZp
a2luZ1ZQTiBDQTEQMA4GA1UEKRMHRWFzeVJTQTEhMB8GCSqGSIb3DQEJARYSbWVA
bXlob3N0Lm15ZG9tYWluMB4XDTE0MTExMDAxMzIyNloXDTI0MTEwNzAxMzIyNlow
HzEdMBsGA1UEAxMUQ2xpZW50MTE1NkNlcnQ0YTI1NTQwggIiMA0GCSqGSIb3DQEB
AQUAA4ICDwAwggIKAoICAQDE7eVY4pJrkzpQlatpI2Fmx5XGYlLRiQMLkYFEyVik
7lQfbwQ7EqpqsgBrkU/wHLWxo97L5sm63t26j1lVk1mgEWbHRb5B1W3PLvCn6OOB
TTozy9pitroSabHQntvw6KOlSXCsg82U0F1Ds7QfnHICBFIdnnH9Dv08Aem5Ivhw
nCrk5725R4zFf9SL6YRd8L1ZEP3mGnEhPTGVSDD0v4D0uq3H+RK93RyNvvsnj7dQ
T2esLMKaQH57s57Lbpqgkq4oiePJc+IaSS0x6S05hfav2Mh3Pe4SD1ek/K7Z0mXh
p2OOObiPxI1VBGvRirD7h9ii57eX+0vnA1KiDRYVJGs3mU5GOTM6a0zUXhoZfTEs
kunI7PuPJqeS8O7PCtBX5tetthARWurH3T3v3HF+EuS3ytaUfRETwQH9dLXbziGk
oHnZP89yy+r42UYjkl1PSTcq13dkPlAgyhdFk6dDiu0Wn9/ojWABK2bVPgzM3aj3
QsQCm4nVr+pa2yS0DsGWoSH+YMFAPye3yDfeb8d0rDdcTUYVMWMReMdvAjWNOfwW
xdgVouHNl8gIveXR9wJ9y9aiH0ydCmWJGdKquT2sR8TwFFEEEvyDk/CMV88S6rUD
VdSc9FV0XDaf5fEMbJ2ShTeX1i3o8foeXe141C96/y1zPv69Ugu2FGEnYGHtE5qC
WQIDAQABo4IBYzCCAV8wCQYDVR0TBAIwADAtBglghkgBhvhCAQ0EIBYeRWFzeS1S
U0EgR2VuZXJhdGVkIENlcnRpZmljYXRlMB0GA1UdDgQWBBRkxPmU4rtrKuCzWFZ2
rkU5pnshJzCB4QYDVR0jBIHZMIHWgBQSzWAE0qCAnnDtxpm4eyzGUv0ZoaGBsqSB
rzCBrDELMAkGA1UEBhMCVVMxCzAJBgNVBAgTAk9IMREwDwYDVQQHEwhDb2x1bWJ1
czESMBAGA1UEChMJVmlraW5nVlBOMR0wGwYDVQQLExRNeU9yZ2FuaXphdGlvbmFs
VW5pdDEVMBMGA1UEAxMMVmlraW5nVlBOIENBMRAwDgYDVQQpEwdFYXN5UlNBMSEw
HwYJKoZIhvcNAQkBFhJtZUBteWhvc3QubXlkb21haW6CCQDPNYXugL8qPjATBgNV
HSUEDDAKBggrBgEFBQcDAjALBgNVHQ8EBAMCB4AwDQYJKoZIhvcNAQEEBQADggIB
ALPtjR2qIhsaGX2cUi34GpxfT23YD6Vqpzsq2VuNsSSg67TNm/R+1AXSuPv7Hc1J
8zSfWNsZkIv2kfk9EqQseFkadDcNcMJY918jAPAP3kTnCjGRV+MxIMt0JBVip88Z
eS7Mty03PrCEuQ0XuxEZrWjMgYKlgDM5DSOHjlNelC3hCiyVeuf+/97r1R1ebeFn
mavLR0OeKUelvrXzK8KulcpFOl19w5Y4m7VW19+sSFsQFteCTt/OYBr3njTyuZOI
64HrfPAENaeqbx+PybFg3q6rVeM+uOebZfKmOxShQ3XIWa6IEaHZO+j05ovTy0Eu
0zi2iSl732PCJJywWfLF3d+wfzwVY9O+ad6RAcm/nwcu04bAQuVKDr5p0ZpG8hax
xiWgnX6uDsiGaPJCbGkEgtKg2uWCuR7BeuHdM5MffMyXsYypHGXNmZoIU+0cOE02
PiE0PBZHxdueghuXx+KBA+0yyaaAWQ9zRFV040S5sJDUkpNm+zbRZ0wDyEgE04+P
DAlZZ5MJ66gQvUK4UzQprixB78i31B6v1VqIxy/MtKTeqTZRvKPOfr42QSMTu5zN
uqyJNfLLU/LRMeClQN2l7j6E0AVLdvArGyckpkCuiA90CGnkVnRcMizWL0wEu5+q
uB5Bq09c3bKmjtUVI2/wItdnQkl2iTg2IpJ5gFLCTV0p
-----END CERTIFICATE-----
