Certificate:
    Data:
        Version: 3 (0x2)
        Serial Number: 11782 (0x2e06)
    Signature Algorithm: sha256WithRSAEncryption
        Issuer: C=US, ST=OH, L=Columbus, O=VikingVPN, OU=MyOrganizationalUnit, CN=VikingVPN CA/name=EasyRSA/emailAddress=me@myhost.mydomain
        Validity
            Not Before: Sep  4 22:08:59 2017 GMT
            Not After : Sep  2 22:08:59 2027 GMT
        Subject: CN=Client3081Cert4fd887
        Subject Public Key Info:
            Public Key Algorithm: rsaEncryption
                Public-Key: (4096 bit)
                Modulus:
                    00:e5:30:76:40:a4:93:f2:f8:f3:18:c8:3d:f1:25:
                    8a:24:5c:19:b1:6f:01:d4:5e:3f:5a:76:03:2b:7e:
                    fc:18:68:7e:96:32:ca:82:0b:7a:2f:c9:08:b7:2c:
                    97:fa:e8:fb:ba:a8:2c:bb:37:5c:46:12:f0:61:fd:
                    6d:fe:7b:97:0e:05:25:b7:ef:4a:a3:6c:cb:7d:e7:
                    1d:bb:8f:73:bd:7a:3c:f4:71:ab:0f:d0:44:00:1b:
                    98:20:2c:52:af:a2:1a:d4:a9:eb:0e:9c:0b:21:7c:
                    c9:7b:b2:a9:fc:13:36:00:dd:f0:1f:23:4a:f9:4f:
                    26:30:b7:ec:cf:92:25:40:a6:06:7c:5e:54:ba:06:
                    0d:37:f6:14:f4:2f:99:b3:2e:26:35:8c:ea:14:7b:
                    09:2e:c5:bd:cd:6e:5d:38:28:b0:fe:8b:ee:12:ef:
                    22:af:99:45:28:7e:af:bd:a2:44:61:fa:c8:1a:0f:
                    75:a9:9c:11:23:e5:5b:14:14:23:f7:1f:43:d8:8a:
                    ba:35:4f:ef:cb:66:a2:de:b4:87:31:45:7b:3c:fb:
                    b7:71:ae:00:0e:bb:9c:b1:f1:48:08:9c:7e:b9:64:
                    7d:c8:38:ea:e1:96:0c:68:66:96:3b:53:64:cd:48:
                    94:d4:2d:d7:a8:b7:de:c2:47:12:e6:a9:84:48:93:
                    4a:75:a4:a1:a9:31:c6:02:06:9f:74:79:f5:0a:5b:
                    b3:95:56:50:81:49:db:12:cb:3f:73:fc:11:14:69:
                    4d:55:cf:cd:50:21:98:45:49:77:53:84:aa:84:0f:
                    84:f3:55:6f:0a:cd:ed:25:f4:f4:63:13:67:be:21:
                    52:34:99:81:e7:2d:c8:8b:28:ca:03:e9:01:02:6d:
                    13:2d:c4:e8:bf:47:6a:0d:4d:4e:9c:d2:9d:3c:c9:
                    5a:26:4d:89:96:7c:84:33:e6:e9:2e:39:fa:29:75:
                    a1:98:22:e2:72:5e:00:49:92:ee:2e:3d:dd:6d:40:
                    4d:d1:ad:04:a3:4c:7e:ea:c8:8a:3b:dc:69:67:a3:
                    ef:da:92:41:e6:31:e3:36:65:9e:9f:3b:9b:41:73:
                    81:08:4f:89:8f:f2:8c:6b:a9:2c:2b:42:9d:74:29:
                    72:48:04:4f:c4:2e:03:ca:48:2f:6c:ed:9c:5a:0c:
                    02:cd:eb:22:c3:8a:31:38:ea:29:d8:ad:69:4e:a1:
                    43:01:db:a0:4d:e3:9e:e2:e8:12:51:5f:87:dd:4c:
                    da:6b:3a:a3:d4:78:2e:6d:e8:1e:19:b0:dd:e0:82:
                    35:28:96:d9:a0:12:29:bc:d9:b8:47:48:c0:4e:a3:
                    08:d2:a6:13:15:d2:c2:41:ce:bb:47:ec:19:18:db:
                    5c:44:45
                Exponent: 65537 (0x10001)
        X509v3 extensions:
            X509v3 Basic Constraints: 
                CA:FALSE
            Netscape Comment: 
                Easy-RSA Generated Certificate
            X509v3 Subject Key Identifier: 
                01:D3:B9:79:81:97:0E:0E:3C:7E:B3:CA:7A:E6:CD:37:E4:F7:9E:8B
            X509v3 Authority Key Identifier: 
                keyid:12:CD:60:04:D2:A0:80:9E:70:ED:C6:99:B8:7B:2C:C6:52:FD:19:A1
                DirName:/C=US/ST=OH/L=Columbus/O=VikingVPN/OU=MyOrganizationalUnit/CN=VikingVPN CA/name=EasyRSA/emailAddress=me@myhost.mydomain
                serial:CF:35:85:EE:80:BF:2A:3E

            X509v3 Extended Key Usage: 
                TLS Web Client Authentication
            X509v3 Key Usage: 
                Digital Signature
    Signature Algorithm: sha256WithRSAEncryption
         36:dd:25:0a:9b:28:42:0d:ee:b5:96:38:57:3a:31:64:eb:49:
         00:00:ec:6a:ef:d8:eb:e7:29:66:38:4e:ce:22:03:fc:aa:46:
         20:43:00:71:58:56:fe:da:bf:3f:36:bd:94:42:f0:8e:fd:da:
         1d:7d:ed:c6:87:2d:70:60:83:b3:f4:2f:45:e1:1b:0a:9e:75:
         d8:af:c6:66:77:ed:04:6b:e3:5f:28:dd:7c:59:18:d5:46:47:
         8c:ce:38:03:5b:b6:38:65:44:d1:0d:43:01:78:a4:c0:11:f7:
         df:75:00:86:6f:35:3d:4d:48:82:7e:fd:ea:ab:47:a3:0f:47:
         d3:aa:40:38:3f:e6:2d:23:5f:2b:22:2c:fd:70:25:91:0e:12:
         15:b0:eb:ca:ae:38:7d:1f:b1:11:b7:dd:95:d7:97:ae:00:c5:
         b0:4d:3e:9a:c2:15:94:74:d2:ed:e0:50:7f:34:ba:04:49:a4:
         b8:32:30:6f:84:1e:fd:af:be:e2:71:9f:b6:17:1b:10:8e:c1:
         d2:f5:79:17:d5:03:22:c6:7a:05:b0:52:df:b1:c4:84:a7:cc:
         e0:e9:11:9b:d2:3b:7e:85:5e:e0:1e:25:89:79:38:1e:4b:b5:
         61:8c:14:c4:4f:f9:9d:b8:1e:fa:43:50:1b:30:c9:04:e6:51:
         f2:4a:a9:85:7b:8e:f6:8a:31:8c:c5:e1:65:3b:f4:3e:4c:fe:
         26:6d:93:39:6e:fe:9f:bf:8e:b9:ca:f5:86:ca:cf:96:9e:60:
         a4:7c:3a:7d:40:2a:2a:2f:99:a5:4f:8a:88:7e:cf:8c:fa:23:
         d0:88:ed:3c:10:cd:e5:e1:71:89:3f:3e:bc:cc:36:2d:48:ac:
         2f:cd:08:b6:fa:37:e6:e2:98:c5:a5:03:46:3d:bb:6e:2a:ea:
         9c:86:c3:a8:c0:6a:67:c6:c3:2d:1b:57:55:87:b9:62:75:d9:
         4c:a8:0b:0c:e8:a1:6f:f4:4a:be:90:2c:1f:a7:09:4e:61:4b:
         e3:5b:c8:67:d8:7a:8d:d8:6b:92:1f:3e:be:69:21:59:f0:c5:
         ba:87:81:d4:a4:2c:8d:49:b0:0b:ea:41:30:8d:a6:be:11:b1:
         98:70:50:3b:89:aa:4e:7c:43:73:87:6c:52:e5:4d:3a:88:66:
         f1:4f:3b:98:d5:cc:2a:36:7c:3f:26:61:a1:d4:2d:0c:88:74:
         12:f1:6b:4d:f2:38:57:5a:d9:f1:66:e8:79:0c:7b:48:f4:e3:
         89:14:1b:df:a5:54:55:d6:85:81:d6:a0:40:0a:ea:98:33:c8:
         95:10:f8:d2:21:0a:1a:ac:f7:ff:b2:1a:d0:13:29:71:d2:d0:
         47:2f:79:da:c6:5c:6b:19
-----BEGIN CERTIFICATE-----
MIIGrTCCBJWgAwIBAgICLgYwDQYJKoZIhvcNAQELBQAwgawxCzAJBgNVBAYTAlVT
MQswCQYDVQQIEwJPSDERMA8GA1UEBxMIQ29sdW1idXMxEjAQBgNVBAoTCVZpa2lu
Z1ZQTjEdMBsGA1UECxMUTXlPcmdhbml6YXRpb25hbFVuaXQxFTATBgNVBAMTDFZp
a2luZ1ZQTiBDQTEQMA4GA1UEKRMHRWFzeVJTQTEhMB8GCSqGSIb3DQEJARYSbWVA
bXlob3N0Lm15ZG9tYWluMB4XDTE3MDkwNDIyMDg1OVoXDTI3MDkwMjIyMDg1OVow
HzEdMBsGA1UEAxMUQ2xpZW50MzA4MUNlcnQ0ZmQ4ODcwggIiMA0GCSqGSIb3DQEB
AQUAA4ICDwAwggIKAoICAQDlMHZApJPy+PMYyD3xJYokXBmxbwHUXj9adgMrfvwY
aH6WMsqCC3ovyQi3LJf66Pu6qCy7N1xGEvBh/W3+e5cOBSW370qjbMt95x27j3O9
ejz0casP0EQAG5ggLFKvohrUqesOnAshfMl7sqn8EzYA3fAfI0r5TyYwt+zPkiVA
pgZ8XlS6Bg039hT0L5mzLiY1jOoUewkuxb3Nbl04KLD+i+4S7yKvmUUofq+9okRh
+sgaD3WpnBEj5VsUFCP3H0PYiro1T+/LZqLetIcxRXs8+7dxrgAOu5yx8UgInH65
ZH3IOOrhlgxoZpY7U2TNSJTULdeot97CRxLmqYRIk0p1pKGpMcYCBp90efUKW7OV
VlCBSdsSyz9z/BEUaU1Vz81QIZhFSXdThKqED4TzVW8Kze0l9PRjE2e+IVI0mYHn
LciLKMoD6QECbRMtxOi/R2oNTU6c0p08yVomTYmWfIQz5ukuOfopdaGYIuJyXgBJ
ku4uPd1tQE3RrQSjTH7qyIo73Glno+/akkHmMeM2ZZ6fO5tBc4EIT4mP8oxrqSwr
Qp10KXJIBE/ELgPKSC9s7ZxaDALN6yLDijE46inYrWlOoUMB26BN457i6BJRX4fd
TNprOqPUeC5t6B4ZsN3ggjUoltmgEim82bhHSMBOowjSphMV0sJBzrtH7BkY21xE
RQIDAQABo4IBYzCCAV8wCQYDVR0TBAIwADAtBglghkgBhvhCAQ0EIBYeRWFzeS1S
U0EgR2VuZXJhdGVkIENlcnRpZmljYXRlMB0GA1UdDgQWBBQB07l5gZcODjx+s8p6
5s035PeeizCB4QYDVR0jBIHZMIHWgBQSzWAE0qCAnnDtxpm4eyzGUv0ZoaGBsqSB
rzCBrDELMAkGA1UEBhMCVVMxCzAJBgNVBAgTAk9IMREwDwYDVQQHEwhDb2x1bWJ1
czESMBAGA1UEChMJVmlraW5nVlBOMR0wGwYDVQQLExRNeU9yZ2FuaXphdGlvbmFs
VW5pdDEVMBMGA1UEAxMMVmlraW5nVlBOIENBMRAwDgYDVQQpEwdFYXN5UlNBMSEw
HwYJKoZIhvcNAQkBFhJtZUBteWhvc3QubXlkb21haW6CCQDPNYXugL8qPjATBgNV
HSUEDDAKBggrBgEFBQcDAjALBgNVHQ8EBAMCB4AwDQYJKoZIhvcNAQELBQADggIB
ADbdJQqbKEIN7rWWOFc6MWTrSQAA7Grv2OvnKWY4Ts4iA/yqRiBDAHFYVv7avz82
vZRC8I792h197caHLXBgg7P0L0XhGwqeddivxmZ37QRr418o3XxZGNVGR4zOOANb
tjhlRNENQwF4pMAR9991AIZvNT1NSIJ+/eqrR6MPR9OqQDg/5i0jXysiLP1wJZEO
EhWw68quOH0fsRG33ZXXl64AxbBNPprCFZR00u3gUH80ugRJpLgyMG+EHv2vvuJx
n7YXGxCOwdL1eRfVAyLGegWwUt+xxISnzODpEZvSO36FXuAeJYl5OB5LtWGMFMRP
+Z24HvpDUBswyQTmUfJKqYV7jvaKMYzF4WU79D5M/iZtkzlu/p+/jrnK9YbKz5ae
YKR8On1AKiovmaVPioh+z4z6I9CI7TwQzeXhcYk/PrzMNi1IrC/NCLb6N+bimMWl
A0Y9u24q6pyGw6jAamfGwy0bV1WHuWJ12UyoCwzooW/0Sr6QLB+nCU5hS+NbyGfY
eo3Ya5IfPr5pIVnwxbqHgdSkLI1JsAvqQTCNpr4RsZhwUDuJqk58Q3OHbFLlTTqI
ZvFPO5jVzCo2fD8mYaHULQyIdBLxa03yOFda2fFm6HkMe0j044kUG9+lVFXWhYHW
oEAK6pgzyJUQ+NIhChqs9/+yGtATKXHS0EcvedrGXGsZ
-----END CERTIFICATE-----
