Certificate:
    Data:
        Version: 3 (0x2)
        Serial Number: 6496 (0x1960)
    Signature Algorithm: md5WithRSAEncryption
        Issuer: C=US, ST=OH, L=Columbus, O=VikingVPN, OU=MyOrganizationalUnit, CN=VikingVPN CA/name=EasyRSA/emailAddress=me@myhost.mydomain
        Validity
            Not Before: Oct 19 06:01:05 2015 GMT
            Not After : Oct 16 06:01:05 2025 GMT
        Subject: CN=Client1868Cert069017
        Subject Public Key Info:
            Public Key Algorithm: rsaEncryption
                Public-Key: (4096 bit)
                Modulus:
                    00:a8:c3:f0:07:dd:d7:ef:13:bc:c5:bf:b4:a9:99:
                    86:24:7c:1f:9c:04:cd:f2:49:6f:51:d0:eb:08:13:
                    ec:75:fa:01:e7:4f:c8:8b:dd:ca:42:f3:7b:3b:ac:
                    b3:1a:c0:56:ae:42:19:ad:96:9e:72:86:71:7c:b5:
                    3d:c3:ce:3d:32:7f:90:c7:21:dd:ac:ab:d2:f3:f8:
                    13:24:24:b3:8c:e4:f3:fb:1e:43:58:cc:ac:07:28:
                    e2:6b:3c:45:95:15:2c:76:77:fb:3b:41:e4:59:29:
                    00:fb:a5:26:1d:9b:fc:f6:7f:95:ea:c8:23:4b:ad:
                    3a:e0:00:00:a4:3f:2b:39:78:50:47:bb:95:e1:ed:
                    a9:a0:96:bb:6d:b1:d5:07:40:cf:2a:da:2f:d2:15:
                    07:17:86:bc:ab:8a:ea:b8:b4:ad:b8:a2:30:d1:d0:
                    17:36:15:0f:aa:39:5d:32:5f:bd:c8:5f:78:eb:f2:
                    69:de:5f:11:98:f7:cf:3c:b7:43:a2:3c:f8:f8:23:
                    c8:24:ba:ec:2d:9a:6d:17:08:77:e9:fc:9a:7c:bf:
                    07:4e:4c:27:47:75:81:44:28:c9:58:91:da:03:66:
                    56:c5:5f:02:0b:88:54:48:64:7a:5e:48:b3:b4:96:
                    a9:be:88:61:6c:b1:17:b2:00:28:a2:1a:63:6c:1f:
                    be:07:87:0c:e1:db:3d:aa:9b:cd:2a:dd:d1:8b:c1:
                    1b:2e:60:57:4d:8b:f1:4d:72:59:39:8c:91:51:1b:
                    50:01:6f:39:ce:1c:ba:fa:6c:ab:98:f1:61:f0:5c:
                    5b:41:d7:58:51:d8:2a:5f:7a:70:a2:72:8c:46:23:
                    cf:e1:6d:39:82:90:83:2c:ff:b3:14:ab:b6:b8:c8:
                    3b:ad:bf:13:57:76:f4:e7:06:f3:8f:c3:ca:a1:ae:
                    0c:c4:49:fc:e2:d9:92:65:01:3f:91:2b:65:3a:58:
                    45:08:a9:55:66:7e:6f:cd:38:fc:b9:c5:65:d4:07:
                    34:5b:3a:d0:ee:80:b1:39:78:29:50:ae:2a:a6:96:
                    ca:e8:5a:78:d3:12:4d:33:e5:0e:ca:ce:a5:65:55:
                    cd:2e:78:db:f7:81:e7:b3:9a:8f:cb:ba:51:9e:da:
                    67:38:bd:e8:99:04:f5:36:d4:18:29:66:80:23:99:
                    99:b9:97:2b:48:3d:97:a9:d3:b3:dd:d5:10:0b:7b:
                    68:82:05:be:de:e1:69:10:71:5e:cb:d4:81:a0:97:
                    af:2c:63:86:4a:c1:39:9a:70:4c:2b:6a:e7:9f:f8:
                    0f:32:98:7c:9b:42:38:a6:b6:af:86:f7:6e:26:13:
                    99:79:a1:49:a9:3e:51:84:fd:76:e5:ff:a0:46:de:
                    18:9f:53
                Exponent: 65537 (0x10001)
        X509v3 extensions:
            X509v3 Basic Constraints: 
                CA:FALSE
            Netscape Comment: 
                Easy-RSA Generated Certificate
            X509v3 Subject Key Identifier: 
                E7:5A:D4:95:DE:AA:B4:0B:11:B0:7A:F9:59:42:1C:CC:EE:A6:F5:0F
            X509v3 Authority Key Identifier: 
                keyid:12:CD:60:04:D2:A0:80:9E:70:ED:C6:99:B8:7B:2C:C6:52:FD:19:A1
                DirName:/C=US/ST=OH/L=Columbus/O=VikingVPN/OU=MyOrganizationalUnit/CN=VikingVPN CA/name=EasyRSA/emailAddress=me@myhost.mydomain
                serial:CF:35:85:EE:80:BF:2A:3E

            X509v3 Extended Key Usage: 
                TLS Web Client Authentication
            X509v3 Key Usage: 
                Digital Signature
    Signature Algorithm: md5WithRSAEncryption
         6f:68:04:69:ed:ca:6b:82:41:b4:59:b8:9c:7c:7b:9b:ae:eb:
         5e:fd:1c:44:31:d3:b1:57:76:b8:3f:d6:03:50:03:4a:83:20:
         2a:04:10:1c:54:6f:3d:df:97:29:e4:d6:ed:0f:24:a4:f1:03:
         d9:8c:53:6b:dd:84:96:c8:73:f5:f8:86:b5:87:90:c7:85:64:
         3c:c1:9c:cf:28:7c:e2:bf:13:16:85:53:b3:17:13:70:13:0b:
         6d:96:09:dc:38:db:fc:15:43:2c:c1:fb:5b:03:33:4b:03:7b:
         aa:17:9b:d5:61:ac:65:a7:c5:3b:0a:1d:65:73:8f:47:ac:3d:
         44:1b:87:80:5e:86:9d:a5:2c:88:e7:39:f6:36:c0:9d:f9:da:
         16:7e:b2:5a:2c:b4:d8:4a:9e:9e:18:b5:2b:1f:7b:4e:84:58:
         4b:43:69:55:ca:cf:49:96:26:f1:fe:39:5a:79:48:09:3c:31:
         40:42:8c:28:21:a8:2b:51:de:1c:ec:41:61:59:a6:d3:7d:be:
         3d:d7:98:03:05:b7:96:96:ec:4f:62:21:fa:36:0e:8a:8a:5f:
         33:43:1e:db:c1:e4:d9:fd:50:df:e3:e3:14:dc:c8:fb:c8:21:
         ad:92:5c:6e:a0:a2:1f:64:0d:60:cc:da:d3:8d:3d:43:ab:6b:
         6e:aa:ee:f0:8a:db:ee:2e:a0:ee:87:95:a9:bf:d2:dd:8b:a1:
         b5:e5:6b:74:6c:94:d3:12:50:25:5c:78:a8:6d:6d:c1:fd:43:
         84:e2:fa:20:b1:4e:05:f0:50:11:be:f2:82:6c:c1:32:db:2b:
         b8:b9:45:80:0b:03:b7:42:5a:25:5d:51:f7:ce:31:25:8d:50:
         3b:09:0f:c6:33:50:77:b3:12:8e:9f:40:7c:12:5a:33:d3:56:
         31:80:75:e0:10:df:2f:6c:1d:b6:2b:74:6e:bf:74:4e:ab:ee:
         47:7f:ec:c9:fb:c4:e9:f0:89:85:02:df:80:5b:7a:06:61:bf:
         3b:f4:9f:c8:2a:d0:c4:a5:b7:e0:cd:fb:63:e6:6b:4a:f7:40:
         94:d9:25:72:d8:3b:ad:d7:e9:07:80:e3:bd:4e:c7:ae:ea:d1:
         1e:56:6f:c0:d5:f0:1d:e1:24:52:54:04:27:6c:56:fe:3e:fc:
         59:49:de:d7:df:ab:a8:b4:49:14:8d:43:05:e8:95:89:cd:7d:
         f0:34:14:34:ea:04:4b:6d:c4:28:f3:88:8c:66:2d:49:5b:5e:
         e1:a4:c9:c2:6b:6b:64:4e:13:22:76:bc:7c:7c:a1:53:b8:de:
         e4:1c:37:3a:c1:88:7d:3b:61:46:db:01:e5:c9:16:c2:04:e8:
         a5:91:27:55:0d:00:e4:e6
-----BEGIN CERTIFICATE-----
MIIGrTCCBJWgAwIBAgICGWAwDQYJKoZIhvcNAQEEBQAwgawxCzAJBgNVBAYTAlVT
MQswCQYDVQQIEwJPSDERMA8GA1UEBxMIQ29sdW1idXMxEjAQBgNVBAoTCVZpa2lu
Z1ZQTjEdMBsGA1UECxMUTXlPcmdhbml6YXRpb25hbFVuaXQxFTATBgNVBAMTDFZp
a2luZ1ZQTiBDQTEQMA4GA1UEKRMHRWFzeVJTQTEhMB8GCSqGSIb3DQEJARYSbWVA
bXlob3N0Lm15ZG9tYWluMB4XDTE1MTAxOTA2MDEwNVoXDTI1MTAxNjA2MDEwNVow
HzEdMBsGA1UEAxMUQ2xpZW50MTg2OENlcnQwNjkwMTcwggIiMA0GCSqGSIb3DQEB
AQUAA4ICDwAwggIKAoICAQCow/AH3dfvE7zFv7SpmYYkfB+cBM3ySW9R0OsIE+x1
+gHnT8iL3cpC83s7rLMawFauQhmtlp5yhnF8tT3Dzj0yf5DHId2sq9Lz+BMkJLOM
5PP7HkNYzKwHKOJrPEWVFSx2d/s7QeRZKQD7pSYdm/z2f5XqyCNLrTrgAACkPys5
eFBHu5Xh7amglrttsdUHQM8q2i/SFQcXhryriuq4tK24ojDR0Bc2FQ+qOV0yX73I
X3jr8mneXxGY9888t0OiPPj4I8gkuuwtmm0XCHfp/Jp8vwdOTCdHdYFEKMlYkdoD
ZlbFXwILiFRIZHpeSLO0lqm+iGFssReyACiiGmNsH74Hhwzh2z2qm80q3dGLwRsu
YFdNi/FNclk5jJFRG1ABbznOHLr6bKuY8WHwXFtB11hR2CpfenCicoxGI8/hbTmC
kIMs/7MUq7a4yDutvxNXdvTnBvOPw8qhrgzESfzi2ZJlAT+RK2U6WEUIqVVmfm/N
OPy5xWXUBzRbOtDugLE5eClQriqmlsroWnjTEk0z5Q7KzqVlVc0ueNv3geezmo/L
ulGe2mc4veiZBPU21BgpZoAjmZm5lytIPZep07Pd1RALe2iCBb7e4WkQcV7L1IGg
l68sY4ZKwTmacEwrauef+A8ymHybQjimtq+G924mE5l5oUmpPlGE/Xbl/6BG3hif
UwIDAQABo4IBYzCCAV8wCQYDVR0TBAIwADAtBglghkgBhvhCAQ0EIBYeRWFzeS1S
U0EgR2VuZXJhdGVkIENlcnRpZmljYXRlMB0GA1UdDgQWBBTnWtSV3qq0CxGwevlZ
QhzM7qb1DzCB4QYDVR0jBIHZMIHWgBQSzWAE0qCAnnDtxpm4eyzGUv0ZoaGBsqSB
rzCBrDELMAkGA1UEBhMCVVMxCzAJBgNVBAgTAk9IMREwDwYDVQQHEwhDb2x1bWJ1
czESMBAGA1UEChMJVmlraW5nVlBOMR0wGwYDVQQLExRNeU9yZ2FuaXphdGlvbmFs
VW5pdDEVMBMGA1UEAxMMVmlraW5nVlBOIENBMRAwDgYDVQQpEwdFYXN5UlNBMSEw
HwYJKoZIhvcNAQkBFhJtZUBteWhvc3QubXlkb21haW6CCQDPNYXugL8qPjATBgNV
HSUEDDAKBggrBgEFBQcDAjALBgNVHQ8EBAMCB4AwDQYJKoZIhvcNAQEEBQADggIB
AG9oBGntymuCQbRZuJx8e5uu6179HEQx07FXdrg/1gNQA0qDICoEEBxUbz3flynk
1u0PJKTxA9mMU2vdhJbIc/X4hrWHkMeFZDzBnM8ofOK/ExaFU7MXE3ATC22WCdw4
2/wVQyzB+1sDM0sDe6oXm9VhrGWnxTsKHWVzj0esPUQbh4Behp2lLIjnOfY2wJ35
2hZ+slostNhKnp4YtSsfe06EWEtDaVXKz0mWJvH+OVp5SAk8MUBCjCghqCtR3hzs
QWFZptN9vj3XmAMFt5aW7E9iIfo2DoqKXzNDHtvB5Nn9UN/j4xTcyPvIIa2SXG6g
oh9kDWDM2tONPUOra26q7vCK2+4uoO6Hlam/0t2LobXla3RslNMSUCVceKhtbcH9
Q4Ti+iCxTgXwUBG+8oJswTLbK7i5RYALA7dCWiVdUffOMSWNUDsJD8YzUHezEo6f
QHwSWjPTVjGAdeAQ3y9sHbYrdG6/dE6r7kd/7Mn7xOnwiYUC34BbegZhvzv0n8gq
0MSlt+DN+2Pma0r3QJTZJXLYO63X6QeA471Ox67q0R5Wb8DV8B3hJFJUBCdsVv4+
/FlJ3tffq6i0SRSNQwXolYnNffA0FDTqBEttxCjziIxmLUlbXuGkycJra2ROEyJ2
vHx8oVO43uQcNzrBiH07YUbbAeXJFsIE6KWRJ1UNAOTm
-----END CERTIFICATE-----
