Certificate:
    Data:
        Version: 3 (0x2)
        Serial Number: 2257 (0x8d1)
    Signature Algorithm: md5WithRSAEncryption
        Issuer: C=US, ST=OH, L=Columbus, O=VikingVPN, OU=MyOrganizationalUnit, CN=VikingVPN CA/name=EasyRSA/emailAddress=me@myhost.mydomain
        Validity
            Not Before: Jul 13 21:16:15 2014 GMT
            Not After : Jul 10 21:16:15 2024 GMT
        Subject: CN=Client643Cert2640c5
        Subject Public Key Info:
            Public Key Algorithm: rsaEncryption
                Public-Key: (4096 bit)
                Modulus:
                    00:b1:c9:23:0f:d5:d1:88:7b:b5:11:50:43:ba:7d:
                    ef:ff:26:27:be:00:51:a8:7c:fb:01:19:ee:fa:32:
                    87:ba:05:49:b5:a0:8a:75:6a:01:42:ba:c1:cf:92:
                    37:f8:f6:b8:24:2d:c9:f8:be:d5:85:ad:76:f0:2e:
                    92:5a:ef:02:58:fe:8f:1d:2a:0b:8e:53:92:7e:cd:
                    75:9d:09:c5:41:3e:29:7f:fd:a1:7c:a5:52:73:b0:
                    84:8c:e1:4d:cf:19:21:96:7c:ed:59:22:11:c2:3c:
                    b8:e0:88:67:d6:49:2b:3b:ab:6b:05:8b:89:1b:62:
                    dc:2b:c2:2a:55:8d:7d:f3:f2:7d:10:e1:84:f4:4e:
                    95:78:8f:51:d5:f1:31:5f:0a:93:66:02:77:d4:68:
                    f0:30:f7:ba:37:fb:b3:51:02:a0:2d:b1:e2:1f:0f:
                    78:e9:cd:72:4e:f1:6c:89:4b:f4:eb:d0:03:3f:fb:
                    b5:54:15:c0:e6:34:3d:cf:d3:66:b4:96:3e:f4:76:
                    7c:e2:5c:cb:e6:19:b7:2a:e8:27:95:7a:c2:94:5b:
                    68:de:4a:ce:8a:f7:c7:f0:9b:9c:71:9e:f1:7b:fa:
                    17:fa:f5:ed:d2:a1:62:cd:9c:31:6c:c9:0d:5d:24:
                    a9:84:ad:32:f1:8b:a2:5b:5e:42:eb:f5:d0:40:4c:
                    0e:3d:ff:fb:c1:50:b0:a7:f8:db:60:16:fa:0f:c7:
                    9b:8f:a7:df:77:4d:ae:81:bb:86:f2:0d:d1:d3:64:
                    ea:76:ba:47:b1:05:e8:0c:e0:92:3d:db:cb:cd:21:
                    18:ff:54:7c:02:23:5f:40:36:06:d5:42:c8:80:3e:
                    cc:8a:90:f3:53:4a:60:ee:d5:dc:eb:f3:30:a3:03:
                    4a:fd:71:d6:02:24:25:85:82:63:ca:a4:d6:01:1a:
                    71:ad:fa:29:c2:41:25:2e:51:17:a5:38:95:3e:a2:
                    47:3b:a2:dd:29:3b:9d:ac:e5:a5:2b:1f:d3:42:c1:
                    81:12:6d:a0:e0:27:d9:85:fb:a5:86:f0:e4:c2:8b:
                    2a:88:1b:6e:84:ed:f5:cb:5d:83:40:e7:87:f2:7f:
                    8e:3b:20:ba:46:74:06:67:1a:1c:3f:c9:df:55:9e:
                    8d:1c:ef:b7:ec:68:c6:6b:d2:b3:3a:7a:56:f7:2f:
                    9d:71:a6:33:97:ab:2e:a8:96:7b:04:51:ca:ad:58:
                    24:a2:54:8f:68:bb:98:42:53:d1:f3:72:21:94:44:
                    c8:15:e8:32:ea:cc:ad:38:57:2f:fa:9f:d7:b2:1a:
                    f9:24:4b:28:05:42:36:a4:35:c4:fa:85:a8:07:92:
                    8f:24:45:45:2b:f8:53:53:ef:ac:f5:54:70:34:8a:
                    a0:36:a7
                Exponent: 65537 (0x10001)
        X509v3 extensions:
            X509v3 Basic Constraints: 
                CA:FALSE
            Netscape Comment: 
                Easy-RSA Generated Certificate
            X509v3 Subject Key Identifier: 
                A8:EF:0D:02:DD:3E:87:DE:C0:4C:F5:15:22:F6:02:E2:BB:36:B4:0F
            X509v3 Authority Key Identifier: 
                keyid:12:CD:60:04:D2:A0:80:9E:70:ED:C6:99:B8:7B:2C:C6:52:FD:19:A1
                DirName:/C=US/ST=OH/L=Columbus/O=VikingVPN/OU=MyOrganizationalUnit/CN=VikingVPN CA/name=EasyRSA/emailAddress=me@myhost.mydomain
                serial:CF:35:85:EE:80:BF:2A:3E

            X509v3 Extended Key Usage: 
                TLS Web Client Authentication
            X509v3 Key Usage: 
                Digital Signature
    Signature Algorithm: md5WithRSAEncryption
         1c:0c:08:94:e4:e6:05:dd:16:94:a0:11:9f:f2:e6:c9:dd:f8:
         78:3f:8c:9d:ba:b4:35:46:40:16:ea:5f:0f:28:58:a9:87:ad:
         19:bb:43:10:90:2c:60:04:90:86:04:5c:91:c9:78:46:8e:36:
         8a:84:6c:50:7a:8b:1e:f5:4c:24:62:87:98:74:77:a6:69:1f:
         1a:d2:26:f9:e9:bb:fd:bc:ac:44:41:d3:f0:da:7e:8d:cb:25:
         e3:90:b6:61:3c:12:03:5a:d5:b5:15:d6:68:64:9c:1d:ed:62:
         3f:70:dd:13:b4:60:89:4b:99:5d:46:3d:8e:67:1d:13:24:03:
         79:3e:5c:a0:67:fa:b4:37:37:f8:9e:ee:31:13:80:d8:ba:2d:
         0c:d1:a2:3b:af:62:89:15:8b:c4:d0:cc:63:95:cb:2f:f2:61:
         8e:2f:b9:64:31:51:8e:be:79:89:30:08:d7:73:cf:8d:70:0e:
         6b:7e:df:0b:d8:9d:ac:9a:fb:46:67:db:78:f7:54:81:09:d9:
         5b:03:e8:ee:da:4d:ae:ba:db:5a:06:bb:47:32:84:c3:fd:8d:
         ac:2b:53:c2:e0:21:28:df:8f:33:53:1c:30:90:60:7a:12:27:
         24:27:9b:96:1a:ce:3d:21:e0:e4:fb:56:41:bf:f0:c6:e7:08:
         d6:9f:bc:15:79:c2:41:e1:03:0c:5c:97:40:49:f6:c4:bc:b0:
         88:54:8e:36:8a:b0:26:15:ec:af:03:09:d6:2c:5f:f8:1b:9b:
         6c:e1:76:90:a3:9c:4d:a2:17:21:4d:bf:db:46:c9:9d:54:6b:
         89:a9:cb:84:b9:f3:bc:d4:e7:64:f1:ac:72:3b:4b:8b:77:ba:
         18:85:00:b1:0b:5d:06:b8:21:e4:49:3f:7d:a5:28:f6:c8:34:
         52:78:4c:81:2c:5c:43:31:08:cd:49:f1:1f:94:ec:e2:da:0d:
         8c:0b:88:66:fd:62:17:43:ca:1e:79:83:7d:57:de:43:a7:be:
         a8:18:fb:15:48:6f:33:f4:3e:48:cf:f3:46:47:37:cc:37:60:
         18:78:66:a5:4c:14:06:b5:ac:5c:58:f7:c5:47:11:d3:ca:14:
         77:4c:1a:18:21:8e:59:25:ed:f9:2d:fc:a2:c0:47:fe:40:2e:
         27:48:42:6d:5d:e1:7e:ee:bc:d1:09:72:2e:dc:69:33:a7:ba:
         27:3e:a7:61:73:b4:c3:1a:08:a1:5a:a4:f8:66:77:0a:7c:b7:
         40:bb:39:31:2b:5c:cf:64:2c:62:a9:2d:2b:10:e7:a3:93:e2:
         85:e2:e7:db:a5:99:26:ec:b9:29:67:17:59:ce:2e:4d:90:53:
         e5:e6:75:9f:c2:32:48:5c
-----BEGIN CERTIFICATE-----
MIIGrDCCBJSgAwIBAgICCNEwDQYJKoZIhvcNAQEEBQAwgawxCzAJBgNVBAYTAlVT
MQswCQYDVQQIEwJPSDERMA8GA1UEBxMIQ29sdW1idXMxEjAQBgNVBAoTCVZpa2lu
Z1ZQTjEdMBsGA1UECxMUTXlPcmdhbml6YXRpb25hbFVuaXQxFTATBgNVBAMTDFZp
a2luZ1ZQTiBDQTEQMA4GA1UEKRMHRWFzeVJTQTEhMB8GCSqGSIb3DQEJARYSbWVA
bXlob3N0Lm15ZG9tYWluMB4XDTE0MDcxMzIxMTYxNVoXDTI0MDcxMDIxMTYxNVow
HjEcMBoGA1UEAxMTQ2xpZW50NjQzQ2VydDI2NDBjNTCCAiIwDQYJKoZIhvcNAQEB
BQADggIPADCCAgoCggIBALHJIw/V0Yh7tRFQQ7p97/8mJ74AUah8+wEZ7voyh7oF
SbWginVqAUK6wc+SN/j2uCQtyfi+1YWtdvAuklrvAlj+jx0qC45Tkn7NdZ0JxUE+
KX/9oXylUnOwhIzhTc8ZIZZ87VkiEcI8uOCIZ9ZJKzurawWLiRti3CvCKlWNffPy
fRDhhPROlXiPUdXxMV8Kk2YCd9Ro8DD3ujf7s1ECoC2x4h8PeOnNck7xbIlL9OvQ
Az/7tVQVwOY0Pc/TZrSWPvR2fOJcy+YZtyroJ5V6wpRbaN5Kzor3x/CbnHGe8Xv6
F/r17dKhYs2cMWzJDV0kqYStMvGLolteQuv10EBMDj3/+8FQsKf422AW+g/Hm4+n
33dNroG7hvIN0dNk6na6R7EF6Azgkj3by80hGP9UfAIjX0A2BtVCyIA+zIqQ81NK
YO7V3OvzMKMDSv1x1gIkJYWCY8qk1gEaca36KcJBJS5RF6U4lT6iRzui3Sk7nazl
pSsf00LBgRJtoOAn2YX7pYbw5MKLKogbboTt9ctdg0Dnh/J/jjsgukZ0BmcaHD/J
31WejRzvt+xoxmvSszp6VvcvnXGmM5erLqiWewRRyq1YJKJUj2i7mEJT0fNyIZRE
yBXoMurMrThXL/qf17Ia+SRLKAVCNqQ1xPqFqAeSjyRFRSv4U1PvrPVUcDSKoDan
AgMBAAGjggFjMIIBXzAJBgNVHRMEAjAAMC0GCWCGSAGG+EIBDQQgFh5FYXN5LVJT
QSBHZW5lcmF0ZWQgQ2VydGlmaWNhdGUwHQYDVR0OBBYEFKjvDQLdPofewEz1FSL2
AuK7NrQPMIHhBgNVHSMEgdkwgdaAFBLNYATSoICecO3Gmbh7LMZS/RmhoYGypIGv
MIGsMQswCQYDVQQGEwJVUzELMAkGA1UECBMCT0gxETAPBgNVBAcTCENvbHVtYnVz
MRIwEAYDVQQKEwlWaWtpbmdWUE4xHTAbBgNVBAsTFE15T3JnYW5pemF0aW9uYWxV
bml0MRUwEwYDVQQDEwxWaWtpbmdWUE4gQ0ExEDAOBgNVBCkTB0Vhc3lSU0ExITAf
BgkqhkiG9w0BCQEWEm1lQG15aG9zdC5teWRvbWFpboIJAM81he6Avyo+MBMGA1Ud
JQQMMAoGCCsGAQUFBwMCMAsGA1UdDwQEAwIHgDANBgkqhkiG9w0BAQQFAAOCAgEA
HAwIlOTmBd0WlKARn/Lmyd34eD+Mnbq0NUZAFupfDyhYqYetGbtDEJAsYASQhgRc
kcl4Ro42ioRsUHqLHvVMJGKHmHR3pmkfGtIm+em7/bysREHT8Np+jcsl45C2YTwS
A1rVtRXWaGScHe1iP3DdE7RgiUuZXUY9jmcdEyQDeT5coGf6tDc3+J7uMROA2Lot
DNGiO69iiRWLxNDMY5XLL/Jhji+5ZDFRjr55iTAI13PPjXAOa37fC9idrJr7Rmfb
ePdUgQnZWwPo7tpNrrrbWga7RzKEw/2NrCtTwuAhKN+PM1McMJBgehInJCeblhrO
PSHg5PtWQb/wxucI1p+8FXnCQeEDDFyXQEn2xLywiFSONoqwJhXsrwMJ1ixf+Bub
bOF2kKOcTaIXIU2/20bJnVRrianLhLnzvNTnZPGscjtLi3e6GIUAsQtdBrgh5Ek/
faUo9sg0UnhMgSxcQzEIzUnxH5Ts4toNjAuIZv1iF0PKHnmDfVfeQ6e+qBj7FUhv
M/Q+SM/zRkc3zDdgGHhmpUwUBrWsXFj3xUcR08oUd0waGCGOWSXt+S38osBH/kAu
J0hCbV3hfu680QlyLtxpM6e6Jz6nYXO0wxoIoVqk+GZ3Cny3QLs5MStcz2QsYqkt
KxDno5PiheLn26WZJuy5KWcXWc4uTZBT5eZ1n8IySFw=
-----END CERTIFICATE-----
