Certificate:
    Data:
        Version: 3 (0x2)
        Serial Number: 9612 (0x258c)
    Signature Algorithm: sha256WithRSAEncryption
        Issuer: C=US, ST=OH, L=Columbus, O=VikingVPN, OU=MyOrganizationalUnit, CN=VikingVPN CA/name=EasyRSA/emailAddress=me@myhost.mydomain
        Validity
            Not Before: Dec  2 19:23:59 2016 GMT
            Not After : Nov 30 19:23:59 2026 GMT
        Subject: CN=Client2600Cert658f5d
        Subject Public Key Info:
            Public Key Algorithm: rsaEncryption
                Public-Key: (4096 bit)
                Modulus:
                    00:b8:d8:00:d9:1c:5f:2f:b9:c7:e7:24:b4:e8:5b:
                    8e:84:82:b6:02:78:b8:d8:6a:60:60:8a:62:c7:b0:
                    b9:b2:ee:86:5f:2a:28:89:62:82:57:1d:11:e9:bd:
                    24:ae:13:2c:a6:63:c4:15:03:8b:b1:91:cd:66:77:
                    cf:08:04:f2:2a:93:09:4e:ae:5e:7e:d2:04:49:36:
                    14:d4:04:47:1f:5e:7f:09:0b:80:39:a3:15:41:af:
                    de:d9:d4:89:2b:59:de:14:35:b9:15:81:23:e7:7e:
                    1f:20:1b:65:96:92:a7:21:c2:83:6b:6f:4a:c2:b2:
                    4d:53:81:d9:df:fb:da:ec:08:c6:d7:28:79:e4:81:
                    94:cb:5f:9a:69:8d:dd:a4:b5:38:82:84:c0:6f:67:
                    58:d9:7a:b2:29:49:e5:ec:a8:97:79:9e:f8:e0:df:
                    c3:31:5e:6d:56:68:14:a0:7d:b3:a6:68:79:13:5b:
                    f7:57:82:1a:fd:c3:7a:cb:c9:6d:29:ab:50:64:45:
                    ec:f6:e2:2c:2f:bb:16:a9:ed:fa:f2:76:de:d6:b7:
                    d8:27:cb:bc:9f:ae:38:17:3c:de:3c:91:8a:c4:4b:
                    0d:22:30:1f:46:fe:b9:9f:de:83:2c:97:14:ed:87:
                    98:f7:39:b0:bf:62:e2:14:e4:8f:a8:34:ed:89:ab:
                    66:80:d2:e7:20:97:3d:b9:b9:21:b6:3a:77:8b:89:
                    72:de:39:28:2e:44:ef:ca:56:83:c9:9b:ec:0f:0b:
                    9f:08:8e:fd:63:7f:c8:b9:dc:cd:cf:52:49:e1:bf:
                    d1:aa:10:da:e5:25:14:a2:95:08:a8:6a:50:18:97:
                    9a:1c:ca:99:1e:73:4c:0e:ef:1a:e8:05:f9:3b:e6:
                    99:96:1b:31:61:de:fd:4d:14:45:00:c6:4e:0e:aa:
                    b1:17:b1:5c:dd:bb:33:15:8f:5c:56:52:7c:69:37:
                    2a:bd:a7:06:58:cf:8f:97:f0:5f:9d:30:cc:44:ef:
                    9b:be:94:70:62:b9:07:f5:3f:6c:64:91:35:f3:2e:
                    df:5b:cc:69:c3:20:1d:85:ec:4e:c5:21:7f:be:e4:
                    f0:d3:9c:db:95:1d:6f:70:fc:ea:b3:d1:38:ea:cb:
                    56:b9:0c:cc:ed:40:d3:20:65:3a:62:1e:84:d5:19:
                    39:33:b6:8d:65:65:27:13:d8:19:68:c8:45:3a:aa:
                    c9:39:14:ce:80:16:ff:79:62:66:bd:35:45:b6:fb:
                    85:50:b1:8c:45:42:ba:d6:17:ae:45:5c:eb:af:1b:
                    63:bb:d7:2a:85:09:23:06:8a:24:81:22:0c:cf:b9:
                    ee:c5:b7:d7:de:84:eb:29:98:30:b0:8e:cd:34:4e:
                    01:30:bf
                Exponent: 65537 (0x10001)
        X509v3 extensions:
            X509v3 Basic Constraints: 
                CA:FALSE
            Netscape Comment: 
                Easy-RSA Generated Certificate
            X509v3 Subject Key Identifier: 
                27:EF:D1:08:B6:9D:24:D2:EA:A1:72:8A:A7:1D:F9:7E:8E:49:8F:27
            X509v3 Authority Key Identifier: 
                keyid:12:CD:60:04:D2:A0:80:9E:70:ED:C6:99:B8:7B:2C:C6:52:FD:19:A1
                DirName:/C=US/ST=OH/L=Columbus/O=VikingVPN/OU=MyOrganizationalUnit/CN=VikingVPN CA/name=EasyRSA/emailAddress=me@myhost.mydomain
                serial:CF:35:85:EE:80:BF:2A:3E

            X509v3 Extended Key Usage: 
                TLS Web Client Authentication
            X509v3 Key Usage: 
                Digital Signature
    Signature Algorithm: sha256WithRSAEncryption
         60:5c:6f:e8:63:07:bd:91:9d:90:fc:5b:2c:25:e4:25:25:ac:
         f9:5c:62:e6:c9:85:f6:8c:da:64:b0:13:1b:15:78:38:c9:77:
         39:03:03:2c:55:2b:33:44:47:1c:a1:25:8d:c3:3a:f5:3c:59:
         71:9c:3b:c1:bf:a9:80:8c:7d:9b:db:2f:5e:b9:44:c1:cf:58:
         68:24:bf:ab:b2:b0:2e:fe:08:08:80:21:f6:27:3d:00:ae:36:
         08:d5:a7:10:1f:64:f9:8f:9e:50:9c:60:97:a5:b7:0a:27:c9:
         d0:40:90:ed:07:43:5a:59:b3:fe:86:92:98:78:62:02:0e:d4:
         f6:c1:af:ab:a1:81:ab:9e:5f:5f:d4:b0:e0:22:77:52:49:b4:
         ae:9b:87:30:8c:65:d1:c5:58:c0:29:f8:ed:29:0e:36:33:91:
         37:53:5d:12:76:26:64:e0:91:66:f9:c1:d9:5d:e6:94:62:43:
         22:2f:c0:8e:67:3e:bf:26:90:d5:c4:7d:d1:45:01:8d:7b:ee:
         ab:8f:46:5b:7d:00:60:7d:e5:49:8c:6c:d8:8a:eb:1f:a9:6c:
         82:58:32:c3:93:4f:32:c2:36:91:af:00:8a:aa:19:44:e0:2a:
         c4:f1:81:24:04:48:fd:01:ae:ae:1c:86:e0:67:52:db:5f:a6:
         01:81:0c:46:a6:12:8c:ed:c0:e5:77:8a:cf:6b:80:05:78:ec:
         58:79:47:55:2a:19:89:1c:44:3f:3e:62:ed:f1:87:6f:dc:0c:
         03:56:07:91:2b:b6:e6:46:4a:55:2f:98:b3:2a:41:3c:67:53:
         f4:69:4b:87:7c:4b:a7:0c:8a:67:bb:63:f1:5b:a4:12:63:03:
         00:4f:bb:45:e1:81:5e:4d:ee:6e:c7:99:5f:d3:32:55:11:f4:
         ca:6a:49:18:50:73:f6:b2:fc:a8:c8:77:d5:ca:1f:3c:63:6a:
         dd:16:76:70:cf:c2:dc:47:41:9b:2c:25:ad:05:f8:16:1a:ff:
         da:1f:a9:70:d6:c7:c7:16:18:73:d8:7f:56:11:6c:f2:45:e9:
         cc:8e:23:74:c7:4c:cb:5d:9d:08:2c:cd:c1:65:f4:dc:ef:11:
         62:01:a7:40:ba:79:2a:67:96:55:70:bc:cf:0c:ac:ef:c4:ff:
         2f:95:63:dc:46:94:3d:7c:02:c2:da:ed:88:4e:54:32:28:1f:
         9f:45:35:ee:d0:0a:5e:cf:11:99:2b:68:89:3f:30:df:6f:2c:
         ae:6c:c9:10:9e:87:74:34:a5:78:67:83:28:9a:57:36:11:b9:
         9b:2a:26:fc:7b:3b:60:81:57:85:37:8a:e7:9c:60:c0:75:1c:
         c7:f8:e4:5b:5f:d5:62:f4
-----BEGIN CERTIFICATE-----
MIIGrTCCBJWgAwIBAgICJYwwDQYJKoZIhvcNAQELBQAwgawxCzAJBgNVBAYTAlVT
MQswCQYDVQQIEwJPSDERMA8GA1UEBxMIQ29sdW1idXMxEjAQBgNVBAoTCVZpa2lu
Z1ZQTjEdMBsGA1UECxMUTXlPcmdhbml6YXRpb25hbFVuaXQxFTATBgNVBAMTDFZp
a2luZ1ZQTiBDQTEQMA4GA1UEKRMHRWFzeVJTQTEhMB8GCSqGSIb3DQEJARYSbWVA
bXlob3N0Lm15ZG9tYWluMB4XDTE2MTIwMjE5MjM1OVoXDTI2MTEzMDE5MjM1OVow
HzEdMBsGA1UEAxMUQ2xpZW50MjYwMENlcnQ2NThmNWQwggIiMA0GCSqGSIb3DQEB
AQUAA4ICDwAwggIKAoICAQC42ADZHF8vucfnJLToW46EgrYCeLjYamBgimLHsLmy
7oZfKiiJYoJXHRHpvSSuEyymY8QVA4uxkc1md88IBPIqkwlOrl5+0gRJNhTUBEcf
Xn8JC4A5oxVBr97Z1IkrWd4UNbkVgSPnfh8gG2WWkqchwoNrb0rCsk1Tgdnf+9rs
CMbXKHnkgZTLX5ppjd2ktTiChMBvZ1jZerIpSeXsqJd5nvjg38MxXm1WaBSgfbOm
aHkTW/dXghr9w3rLyW0pq1BkRez24iwvuxap7frydt7Wt9gny7yfrjgXPN48kYrE
Sw0iMB9G/rmf3oMslxTth5j3ObC/YuIU5I+oNO2Jq2aA0ucglz25uSG2OneLiXLe
OSguRO/KVoPJm+wPC58Ijv1jf8i53M3PUknhv9GqENrlJRSilQioalAYl5ocypke
c0wO7xroBfk75pmWGzFh3v1NFEUAxk4OqrEXsVzduzMVj1xWUnxpNyq9pwZYz4+X
8F+dMMxE75u+lHBiuQf1P2xkkTXzLt9bzGnDIB2F7E7FIX++5PDTnNuVHW9w/Oqz
0Tjqy1a5DMztQNMgZTpiHoTVGTkzto1lZScT2BloyEU6qsk5FM6AFv95Yma9NUW2
+4VQsYxFQrrWF65FXOuvG2O71yqFCSMGiiSBIgzPue7Ft9fehOspmDCwjs00TgEw
vwIDAQABo4IBYzCCAV8wCQYDVR0TBAIwADAtBglghkgBhvhCAQ0EIBYeRWFzeS1S
U0EgR2VuZXJhdGVkIENlcnRpZmljYXRlMB0GA1UdDgQWBBQn79EItp0k0uqhcoqn
Hfl+jkmPJzCB4QYDVR0jBIHZMIHWgBQSzWAE0qCAnnDtxpm4eyzGUv0ZoaGBsqSB
rzCBrDELMAkGA1UEBhMCVVMxCzAJBgNVBAgTAk9IMREwDwYDVQQHEwhDb2x1bWJ1
czESMBAGA1UEChMJVmlraW5nVlBOMR0wGwYDVQQLExRNeU9yZ2FuaXphdGlvbmFs
VW5pdDEVMBMGA1UEAxMMVmlraW5nVlBOIENBMRAwDgYDVQQpEwdFYXN5UlNBMSEw
HwYJKoZIhvcNAQkBFhJtZUBteWhvc3QubXlkb21haW6CCQDPNYXugL8qPjATBgNV
HSUEDDAKBggrBgEFBQcDAjALBgNVHQ8EBAMCB4AwDQYJKoZIhvcNAQELBQADggIB
AGBcb+hjB72RnZD8Wywl5CUlrPlcYubJhfaM2mSwExsVeDjJdzkDAyxVKzNERxyh
JY3DOvU8WXGcO8G/qYCMfZvbL165RMHPWGgkv6uysC7+CAiAIfYnPQCuNgjVpxAf
ZPmPnlCcYJeltwonydBAkO0HQ1pZs/6Gkph4YgIO1PbBr6uhgaueX1/UsOAid1JJ
tK6bhzCMZdHFWMAp+O0pDjYzkTdTXRJ2JmTgkWb5wdld5pRiQyIvwI5nPr8mkNXE
fdFFAY177quPRlt9AGB95UmMbNiK6x+pbIJYMsOTTzLCNpGvAIqqGUTgKsTxgSQE
SP0Brq4chuBnUttfpgGBDEamEoztwOV3is9rgAV47Fh5R1UqGYkcRD8+Yu3xh2/c
DANWB5ErtuZGSlUvmLMqQTxnU/RpS4d8S6cMime7Y/FbpBJjAwBPu0XhgV5N7m7H
mV/TMlUR9MpqSRhQc/ay/KjId9XKHzxjat0WdnDPwtxHQZssJa0F+BYa/9ofqXDW
x8cWGHPYf1YRbPJF6cyOI3THTMtdnQgszcFl9NzvEWIBp0C6eSpnllVwvM8MrO/E
/y+VY9xGlD18AsLa7YhOVDIoH59FNe7QCl7PEZkraIk/MN9vLK5syRCeh3Q0pXhn
gyiaVzYRuZsqJvx7O2CBV4U3iuecYMB1HMf45Ftf1WL0
-----END CERTIFICATE-----
