Certificate:
    Data:
        Version: 3 (0x2)
        Serial Number: 10968 (0x2ad8)
    Signature Algorithm: sha256WithRSAEncryption
        Issuer: C=US, ST=OH, L=Columbus, O=VikingVPN, OU=MyOrganizationalUnit, CN=VikingVPN CA/name=EasyRSA/emailAddress=me@myhost.mydomain
        Validity
            Not Before: May 18 23:44:22 2017 GMT
            Not After : May 16 23:44:22 2027 GMT
        Subject: CN=Client1614Certf8f26b
        Subject Public Key Info:
            Public Key Algorithm: rsaEncryption
                Public-Key: (4096 bit)
                Modulus:
                    00:e3:f1:ea:29:9b:26:21:30:07:35:1a:2a:5b:67:
                    82:e2:87:1d:13:1f:e0:ea:f3:59:b8:40:c8:44:ec:
                    06:c6:6b:02:d6:f4:0c:57:34:ff:ee:c8:2a:b8:45:
                    11:8a:2c:4a:32:ef:da:37:81:35:b7:09:0d:c8:fc:
                    3d:fc:2e:cd:d9:7c:00:a0:94:03:fc:22:0b:51:a3:
                    a2:d3:6e:8d:6a:63:2e:63:a2:1e:92:30:11:60:9a:
                    93:b0:32:8e:1d:f8:2e:6f:8f:f1:07:86:2f:25:d7:
                    b8:56:d6:3a:76:7d:02:48:8a:4c:11:10:6f:9e:06:
                    f9:66:f9:bd:44:ea:89:d2:1a:08:5f:f8:05:1c:d3:
                    46:80:24:8a:da:70:af:cb:ed:3d:b3:a8:9c:ce:c3:
                    51:79:c1:de:65:65:a6:a6:28:cb:07:81:c9:b7:7d:
                    9b:ec:36:1d:9a:67:d8:9d:00:0a:16:08:a5:2b:85:
                    49:10:ec:32:f5:75:e1:16:2f:09:9c:71:ce:32:0b:
                    49:f5:84:5f:9c:6e:5b:05:8f:c6:d7:c2:02:5c:21:
                    c7:ea:07:79:ed:b5:d2:67:4d:99:9d:24:66:e8:a1:
                    af:20:46:98:7d:e8:96:e6:ba:03:31:4f:8a:c7:f2:
                    87:7a:47:89:59:a2:52:d6:14:b0:1a:1e:83:ee:9d:
                    c4:31:de:95:e8:bf:03:9b:d6:37:a4:23:bd:63:1e:
                    f2:49:67:e9:e4:7b:49:27:28:49:f5:8b:c3:d0:8d:
                    a9:55:b3:ae:1d:f3:b9:e5:13:21:60:8d:ce:e7:19:
                    76:72:f6:79:aa:e0:86:62:fd:af:39:8b:28:bd:2e:
                    dd:17:e8:5a:11:52:7e:bd:ee:0d:36:81:a9:2f:4d:
                    93:4a:ef:52:75:96:d8:47:a3:a7:9d:b7:2a:9d:f8:
                    32:ce:2e:a2:cf:67:13:bb:82:66:36:b9:b3:bd:39:
                    9b:56:11:05:6f:6e:1d:a0:a4:f8:40:58:e7:2e:84:
                    c2:68:65:b9:85:8e:7b:cf:0e:34:23:06:27:35:b6:
                    d4:4d:b8:53:65:04:48:2a:39:3e:1a:43:fb:a9:56:
                    4a:28:5c:6d:98:86:e6:13:c7:77:d1:17:e6:30:58:
                    8d:ff:b9:96:12:06:4d:28:c3:53:b2:d4:19:4e:21:
                    9e:d8:0a:57:82:1b:26:89:86:30:e1:f1:13:7d:3f:
                    a7:3e:98:bf:2e:3c:77:94:0c:69:77:b8:5b:64:7b:
                    41:ab:d1:6a:bc:d8:8b:0e:ee:8d:03:aa:b4:25:1d:
                    fa:ff:a8:8b:87:06:2e:57:46:83:06:df:40:8f:0a:
                    c1:33:80:2f:38:26:98:84:40:cd:86:c3:be:bf:9c:
                    24:57:41
                Exponent: 65537 (0x10001)
        X509v3 extensions:
            X509v3 Basic Constraints: 
                CA:FALSE
            Netscape Comment: 
                Easy-RSA Generated Certificate
            X509v3 Subject Key Identifier: 
                92:C6:55:B9:92:F7:B7:D2:70:22:1C:31:7B:AA:7A:31:49:B4:89:F4
            X509v3 Authority Key Identifier: 
                keyid:12:CD:60:04:D2:A0:80:9E:70:ED:C6:99:B8:7B:2C:C6:52:FD:19:A1
                DirName:/C=US/ST=OH/L=Columbus/O=VikingVPN/OU=MyOrganizationalUnit/CN=VikingVPN CA/name=EasyRSA/emailAddress=me@myhost.mydomain
                serial:CF:35:85:EE:80:BF:2A:3E

            X509v3 Extended Key Usage: 
                TLS Web Client Authentication
            X509v3 Key Usage: 
                Digital Signature
    Signature Algorithm: sha256WithRSAEncryption
         77:13:17:12:7f:9d:fe:f9:89:94:d2:4c:3c:b6:60:cb:87:ae:
         d9:38:b8:64:70:2c:97:5e:01:8d:70:53:7d:36:15:fc:b3:ca:
         f8:b7:0a:19:a8:26:76:2e:a2:53:6e:c4:6b:10:b9:2b:bd:f4:
         e2:94:d5:a1:a3:b7:c5:33:d2:52:9d:85:05:cd:cb:8b:6d:57:
         84:f5:e4:0d:2a:e8:3c:31:a3:c8:96:69:55:b0:63:15:c7:f5:
         60:f1:63:04:8a:a8:f9:e0:46:9c:5b:a6:27:e5:87:f9:9b:2c:
         e6:03:88:22:01:3c:42:c6:7a:2d:77:71:73:2c:fb:2c:8a:13:
         3e:44:b6:09:6c:32:c8:a3:1c:0c:d5:f3:c2:a4:6c:1c:ee:6d:
         91:3b:6b:5b:da:ae:e8:d4:cd:2e:c2:33:c9:8c:f0:8f:b0:02:
         e5:58:48:71:26:aa:c5:93:33:bc:6d:b6:0f:05:e7:2a:e5:01:
         fc:fa:de:49:d0:df:c2:c5:af:14:5a:8f:be:90:2b:95:4d:df:
         17:5a:9d:b9:2d:1c:7e:65:88:70:23:17:0c:05:ae:76:53:1a:
         bb:c4:7f:c5:64:7f:bf:36:81:da:af:2d:65:6e:ab:d2:22:a9:
         62:96:93:e2:5e:de:f5:ee:c6:8a:56:31:f7:23:c2:5b:d9:4e:
         79:ab:7c:49:6a:ff:4f:1a:03:42:7f:72:52:9c:d7:7e:14:99:
         a7:56:86:8d:95:18:6e:3f:88:4e:52:24:ec:36:89:f5:4d:f6:
         65:aa:ee:6b:35:1a:7d:4d:a7:fa:0f:c9:fc:ea:ac:cf:a9:36:
         06:ca:9a:cd:21:aa:e1:bc:dd:ba:aa:f7:5b:2e:b6:1c:07:5a:
         73:ec:f3:69:2b:25:42:bd:19:4f:f9:65:5f:50:13:ce:79:15:
         82:4b:c0:3b:e7:00:a5:59:ff:03:05:07:a8:8b:87:c3:b2:fe:
         2b:32:06:a8:23:48:aa:49:7e:a8:a5:96:a9:c6:8a:44:94:31:
         6d:11:fd:e4:2e:6c:a5:d3:53:85:a3:ce:71:92:71:da:2d:7c:
         1a:3d:c3:3b:cc:a6:e0:17:69:1b:dc:df:8f:77:73:6c:a5:75:
         17:b5:5e:d0:f3:df:68:82:60:fa:a8:74:a0:2b:9c:61:22:f9:
         9a:32:6f:e4:76:e9:4e:da:1d:03:3f:37:b0:2a:d9:0b:e1:ee:
         90:e7:86:a0:86:8e:d0:43:89:4d:c0:c8:8e:ff:d1:e5:de:ec:
         d8:30:a8:ff:58:e6:44:06:60:e4:f2:2b:dc:88:26:fe:b5:f0:
         4b:3a:e2:20:ef:b2:af:8b:3e:71:99:c5:b9:02:18:de:06:8d:
         0b:93:91:3d:2b:99:c1:ca
-----BEGIN CERTIFICATE-----
MIIGrTCCBJWgAwIBAgICKtgwDQYJKoZIhvcNAQELBQAwgawxCzAJBgNVBAYTAlVT
MQswCQYDVQQIEwJPSDERMA8GA1UEBxMIQ29sdW1idXMxEjAQBgNVBAoTCVZpa2lu
Z1ZQTjEdMBsGA1UECxMUTXlPcmdhbml6YXRpb25hbFVuaXQxFTATBgNVBAMTDFZp
a2luZ1ZQTiBDQTEQMA4GA1UEKRMHRWFzeVJTQTEhMB8GCSqGSIb3DQEJARYSbWVA
bXlob3N0Lm15ZG9tYWluMB4XDTE3MDUxODIzNDQyMloXDTI3MDUxNjIzNDQyMlow
HzEdMBsGA1UEAxMUQ2xpZW50MTYxNENlcnRmOGYyNmIwggIiMA0GCSqGSIb3DQEB
AQUAA4ICDwAwggIKAoICAQDj8eopmyYhMAc1GipbZ4Lihx0TH+Dq81m4QMhE7AbG
awLW9AxXNP/uyCq4RRGKLEoy79o3gTW3CQ3I/D38Ls3ZfACglAP8IgtRo6LTbo1q
Yy5joh6SMBFgmpOwMo4d+C5vj/EHhi8l17hW1jp2fQJIikwREG+eBvlm+b1E6onS
Gghf+AUc00aAJIracK/L7T2zqJzOw1F5wd5lZaamKMsHgcm3fZvsNh2aZ9idAAoW
CKUrhUkQ7DL1deEWLwmccc4yC0n1hF+cblsFj8bXwgJcIcfqB3nttdJnTZmdJGbo
oa8gRph96JbmugMxT4rH8od6R4lZolLWFLAaHoPuncQx3pXovwOb1jekI71jHvJJ
Z+nke0knKEn1i8PQjalVs64d87nlEyFgjc7nGXZy9nmq4IZi/a85iyi9Lt0X6FoR
Un697g02gakvTZNK71J1lthHo6edtyqd+DLOLqLPZxO7gmY2ubO9OZtWEQVvbh2g
pPhAWOcuhMJoZbmFjnvPDjQjBic1ttRNuFNlBEgqOT4aQ/upVkooXG2YhuYTx3fR
F+YwWI3/uZYSBk0ow1Oy1BlOIZ7YCleCGyaJhjDh8RN9P6c+mL8uPHeUDGl3uFtk
e0Gr0Wq82IsO7o0DqrQlHfr/qIuHBi5XRoMG30CPCsEzgC84JpiEQM2Gw76/nCRX
QQIDAQABo4IBYzCCAV8wCQYDVR0TBAIwADAtBglghkgBhvhCAQ0EIBYeRWFzeS1S
U0EgR2VuZXJhdGVkIENlcnRpZmljYXRlMB0GA1UdDgQWBBSSxlW5kve30nAiHDF7
qnoxSbSJ9DCB4QYDVR0jBIHZMIHWgBQSzWAE0qCAnnDtxpm4eyzGUv0ZoaGBsqSB
rzCBrDELMAkGA1UEBhMCVVMxCzAJBgNVBAgTAk9IMREwDwYDVQQHEwhDb2x1bWJ1
czESMBAGA1UEChMJVmlraW5nVlBOMR0wGwYDVQQLExRNeU9yZ2FuaXphdGlvbmFs
VW5pdDEVMBMGA1UEAxMMVmlraW5nVlBOIENBMRAwDgYDVQQpEwdFYXN5UlNBMSEw
HwYJKoZIhvcNAQkBFhJtZUBteWhvc3QubXlkb21haW6CCQDPNYXugL8qPjATBgNV
HSUEDDAKBggrBgEFBQcDAjALBgNVHQ8EBAMCB4AwDQYJKoZIhvcNAQELBQADggIB
AHcTFxJ/nf75iZTSTDy2YMuHrtk4uGRwLJdeAY1wU302Ffyzyvi3ChmoJnYuolNu
xGsQuSu99OKU1aGjt8Uz0lKdhQXNy4ttV4T15A0q6Dwxo8iWaVWwYxXH9WDxYwSK
qPngRpxbpiflh/mbLOYDiCIBPELGei13cXMs+yyKEz5EtglsMsijHAzV88KkbBzu
bZE7a1varujUzS7CM8mM8I+wAuVYSHEmqsWTM7xttg8F5yrlAfz63knQ38LFrxRa
j76QK5VN3xdanbktHH5liHAjFwwFrnZTGrvEf8Vkf782gdqvLWVuq9IiqWKWk+Je
3vXuxopWMfcjwlvZTnmrfElq/08aA0J/clKc134UmadWho2VGG4/iE5SJOw2ifVN
9mWq7ms1Gn1Np/oPyfzqrM+pNgbKms0hquG83bqq91suthwHWnPs82krJUK9GU/5
ZV9QE855FYJLwDvnAKVZ/wMFB6iLh8Oy/isyBqgjSKpJfqillqnGikSUMW0R/eQu
bKXTU4WjznGScdotfBo9wzvMpuAXaRvc3493c2yldRe1XtDz32iCYPqodKArnGEi
+Zoyb+R26U7aHQM/N7Aq2Qvh7pDnhqCGjtBDiU3AyI7/0eXe7NgwqP9Y5kQGYOTy
K9yIJv618Es64iDvsq+LPnGZxbkCGN4GjQuTkT0rmcHK
-----END CERTIFICATE-----
