Certificate:
    Data:
        Version: 3 (0x2)
        Serial Number: 11976 (0x2ec8)
    Signature Algorithm: sha256WithRSAEncryption
        Issuer: C=US, ST=OH, L=Columbus, O=VikingVPN, OU=MyOrganizationalUnit, CN=VikingVPN CA/name=EasyRSA/emailAddress=me@myhost.mydomain
        Validity
            Not Before: Oct 16 03:06:51 2017 GMT
            Not After : Oct 14 03:06:51 2027 GMT
        Subject: CN=Client2829Cert7a290e
        Subject Public Key Info:
            Public Key Algorithm: rsaEncryption
                Public-Key: (4096 bit)
                Modulus:
                    00:bf:3a:de:b3:f3:23:71:f5:6d:39:e0:38:ff:d5:
                    07:f6:66:7e:01:b5:2d:be:90:0a:ca:52:8d:5e:7a:
                    de:ba:51:59:53:75:e1:d4:f3:48:e5:0f:83:46:be:
                    82:fa:b3:53:e0:ec:d4:e0:96:e7:68:96:b7:05:e1:
                    35:7b:a1:6f:7e:f8:ea:46:fb:21:51:ba:81:c5:e5:
                    e8:b2:fb:8e:72:cb:61:6c:5d:fc:07:29:54:97:45:
                    51:bf:5a:65:fd:6a:18:98:dd:2b:19:e5:70:a8:08:
                    d8:1c:64:76:b4:60:c9:be:f9:17:f5:08:98:34:e0:
                    82:a8:a7:d7:bd:2a:5c:d8:41:af:b3:a2:3b:7d:d7:
                    50:50:56:b1:48:ea:7e:82:0d:bf:63:15:4f:b1:2b:
                    59:63:1e:65:ea:d9:20:c2:5d:19:c2:f9:59:f0:8a:
                    9a:67:0c:e7:fc:32:2c:3c:a3:22:ad:59:3a:18:11:
                    ab:88:e1:ee:15:2a:07:68:a9:83:98:ac:81:55:67:
                    b9:15:18:cd:26:b5:43:04:96:f8:91:7f:5a:d7:c5:
                    b0:62:a0:4f:fd:95:ca:43:f0:e6:0c:34:d6:8b:2e:
                    56:e2:fe:1d:7f:ed:17:6c:ff:65:de:4e:f1:5e:79:
                    60:e8:96:3c:a8:af:69:9b:20:12:3c:0c:3b:52:74:
                    09:d2:f6:81:0c:9a:41:ee:88:c3:d7:40:32:aa:fc:
                    6f:f0:04:aa:cb:a6:4b:1c:01:cc:e4:de:34:6d:dd:
                    88:21:5d:90:02:e4:8b:4f:76:e9:ce:22:34:e4:6e:
                    b3:36:7e:11:24:13:e8:9f:27:5d:20:90:ab:d3:87:
                    2f:24:ad:9b:51:9f:de:4d:85:e7:d6:d1:88:5e:9a:
                    5d:cd:a0:bb:5e:ff:fe:12:74:2e:89:fe:58:87:19:
                    45:12:16:2b:4c:11:85:a5:0e:af:5a:50:d8:39:33:
                    e4:d5:44:71:63:da:1b:56:46:49:9c:28:c0:33:ef:
                    0b:14:46:51:00:83:80:4f:61:45:4e:03:27:de:9b:
                    de:f4:dd:9a:26:b8:6a:c8:80:ed:13:be:2d:ad:75:
                    b5:62:2d:dd:0f:7b:cf:be:d9:fb:f6:0c:10:f2:25:
                    40:4d:6a:c1:df:8d:a7:2d:27:38:5b:15:5a:70:65:
                    88:f9:62:69:88:09:a7:54:c5:84:92:74:98:88:cd:
                    72:13:b2:48:83:21:7f:35:3b:da:26:b6:38:3e:4e:
                    2f:34:99:c9:e7:3a:21:66:0f:39:e3:20:26:5f:58:
                    fd:60:55:06:3b:2f:be:e9:6c:9b:2a:26:bf:99:16:
                    7e:12:c8:b2:42:67:e9:8c:1e:0a:94:c4:e5:2e:fe:
                    9f:80:dd
                Exponent: 65537 (0x10001)
        X509v3 extensions:
            X509v3 Basic Constraints: 
                CA:FALSE
            Netscape Comment: 
                Easy-RSA Generated Certificate
            X509v3 Subject Key Identifier: 
                5F:0D:92:E0:72:C6:E9:4F:EE:24:C9:80:88:85:09:2E:86:EC:CE:4A
            X509v3 Authority Key Identifier: 
                keyid:12:CD:60:04:D2:A0:80:9E:70:ED:C6:99:B8:7B:2C:C6:52:FD:19:A1
                DirName:/C=US/ST=OH/L=Columbus/O=VikingVPN/OU=MyOrganizationalUnit/CN=VikingVPN CA/name=EasyRSA/emailAddress=me@myhost.mydomain
                serial:CF:35:85:EE:80:BF:2A:3E

            X509v3 Extended Key Usage: 
                TLS Web Client Authentication
            X509v3 Key Usage: 
                Digital Signature
    Signature Algorithm: sha256WithRSAEncryption
         ca:e8:2c:48:4c:9c:6b:dc:4a:90:96:41:02:76:39:dd:2a:90:
         cf:69:17:5f:81:db:d5:b5:83:cd:77:fa:a7:4f:a3:89:f7:e8:
         48:25:ff:85:f7:b9:18:9a:db:2d:4d:f7:44:78:5e:06:c0:91:
         aa:cf:ee:ab:d0:83:e0:0e:2e:d4:0e:bf:a2:af:5c:f4:0c:2e:
         3b:4e:f3:9b:d8:6a:e0:02:7c:33:38:da:54:73:d7:09:bf:88:
         9c:70:be:de:5d:36:d4:e4:26:5f:ca:1b:3a:71:5d:83:7b:47:
         c5:ef:9a:ae:88:40:9d:1b:e4:d6:0d:80:f0:b6:ff:90:f4:e0:
         71:39:15:4d:ba:00:cf:cc:ce:3e:a3:2b:e7:dd:b3:03:7b:58:
         f7:dd:7b:85:54:04:b6:c3:4c:1d:eb:be:f1:4d:f0:28:7e:c7:
         6d:f3:c9:d2:21:60:7e:15:dd:63:ee:c4:1b:0f:f6:c3:5d:a9:
         69:af:d6:b9:e1:87:20:ad:f7:f3:84:1a:ff:f0:a2:12:85:ee:
         95:aa:3b:20:b6:85:02:23:81:66:c1:e1:a0:f1:a0:29:54:6a:
         2f:81:22:86:ee:fc:9d:03:de:c6:f0:9b:19:f3:3a:f8:5e:6f:
         28:ec:e9:9e:2c:57:b8:c6:df:66:87:c0:8f:04:ae:0d:87:bc:
         c0:6e:6a:0c:03:e9:b3:6f:a7:a6:07:9b:6f:6c:76:85:7d:b8:
         74:c4:81:88:3b:75:3e:a1:42:47:22:fe:cb:99:ba:3f:30:4d:
         b1:14:d1:87:92:a0:f3:b8:23:87:ed:98:6f:83:85:e8:0c:b6:
         09:4c:66:72:e6:20:88:f5:c9:0d:b1:ab:67:d6:e1:df:45:09:
         41:82:2d:b8:4a:66:4d:d7:37:24:ef:8e:45:b3:6b:2c:5a:45:
         3f:6d:b5:53:59:ba:09:14:27:c9:e0:71:81:7a:9c:0a:ee:6f:
         7f:4b:2c:91:bd:ce:b8:35:00:ad:10:4f:8f:91:80:07:31:b8:
         70:78:58:30:f9:a0:cb:07:cb:bc:70:b6:34:78:93:d4:ad:3c:
         e8:bf:96:7d:ab:ea:61:4e:55:51:43:77:6b:f7:ec:05:7a:52:
         f2:02:e9:e5:2c:9a:96:82:b2:1e:52:12:37:c0:81:3c:77:6e:
         e7:5d:cb:09:ab:27:06:8d:3e:99:44:c5:1b:a3:54:c5:fe:7d:
         d3:24:f6:f2:17:46:bc:bd:52:8c:9a:c8:17:e2:20:e5:0b:ec:
         21:20:7d:0d:4f:1b:5e:74:fd:64:99:76:2b:3b:a4:df:02:f7:
         79:d8:90:09:a1:48:91:a0:04:1a:f3:ce:b3:a8:a6:b2:4f:96:
         85:2b:6b:1a:a3:53:af:e2
-----BEGIN CERTIFICATE-----
MIIGrTCCBJWgAwIBAgICLsgwDQYJKoZIhvcNAQELBQAwgawxCzAJBgNVBAYTAlVT
MQswCQYDVQQIEwJPSDERMA8GA1UEBxMIQ29sdW1idXMxEjAQBgNVBAoTCVZpa2lu
Z1ZQTjEdMBsGA1UECxMUTXlPcmdhbml6YXRpb25hbFVuaXQxFTATBgNVBAMTDFZp
a2luZ1ZQTiBDQTEQMA4GA1UEKRMHRWFzeVJTQTEhMB8GCSqGSIb3DQEJARYSbWVA
bXlob3N0Lm15ZG9tYWluMB4XDTE3MTAxNjAzMDY1MVoXDTI3MTAxNDAzMDY1MVow
HzEdMBsGA1UEAxMUQ2xpZW50MjgyOUNlcnQ3YTI5MGUwggIiMA0GCSqGSIb3DQEB
AQUAA4ICDwAwggIKAoICAQC/Ot6z8yNx9W054Dj/1Qf2Zn4BtS2+kArKUo1eet66
UVlTdeHU80jlD4NGvoL6s1Pg7NTgludolrcF4TV7oW9++OpG+yFRuoHF5eiy+45y
y2FsXfwHKVSXRVG/WmX9ahiY3SsZ5XCoCNgcZHa0YMm++Rf1CJg04IKop9e9KlzY
Qa+zojt911BQVrFI6n6CDb9jFU+xK1ljHmXq2SDCXRnC+VnwippnDOf8Miw8oyKt
WToYEauI4e4VKgdoqYOYrIFVZ7kVGM0mtUMElviRf1rXxbBioE/9lcpD8OYMNNaL
Llbi/h1/7Rds/2XeTvFeeWDoljyor2mbIBI8DDtSdAnS9oEMmkHuiMPXQDKq/G/w
BKrLpkscAczk3jRt3YghXZAC5ItPdunOIjTkbrM2fhEkE+ifJ10gkKvThy8krZtR
n95NhefW0Yheml3NoLte//4SdC6J/liHGUUSFitMEYWlDq9aUNg5M+TVRHFj2htW
RkmcKMAz7wsURlEAg4BPYUVOAyfem9703ZomuGrIgO0Tvi2tdbViLd0Pe8++2fv2
DBDyJUBNasHfjactJzhbFVpwZYj5YmmICadUxYSSdJiIzXITskiDIX81O9omtjg+
Ti80mcnnOiFmDznjICZfWP1gVQY7L77pbJsqJr+ZFn4SyLJCZ+mMHgqUxOUu/p+A
3QIDAQABo4IBYzCCAV8wCQYDVR0TBAIwADAtBglghkgBhvhCAQ0EIBYeRWFzeS1S
U0EgR2VuZXJhdGVkIENlcnRpZmljYXRlMB0GA1UdDgQWBBRfDZLgcsbpT+4kyYCI
hQkuhuzOSjCB4QYDVR0jBIHZMIHWgBQSzWAE0qCAnnDtxpm4eyzGUv0ZoaGBsqSB
rzCBrDELMAkGA1UEBhMCVVMxCzAJBgNVBAgTAk9IMREwDwYDVQQHEwhDb2x1bWJ1
czESMBAGA1UEChMJVmlraW5nVlBOMR0wGwYDVQQLExRNeU9yZ2FuaXphdGlvbmFs
VW5pdDEVMBMGA1UEAxMMVmlraW5nVlBOIENBMRAwDgYDVQQpEwdFYXN5UlNBMSEw
HwYJKoZIhvcNAQkBFhJtZUBteWhvc3QubXlkb21haW6CCQDPNYXugL8qPjATBgNV
HSUEDDAKBggrBgEFBQcDAjALBgNVHQ8EBAMCB4AwDQYJKoZIhvcNAQELBQADggIB
AMroLEhMnGvcSpCWQQJ2Od0qkM9pF1+B29W1g813+qdPo4n36Egl/4X3uRia2y1N
90R4XgbAkarP7qvQg+AOLtQOv6KvXPQMLjtO85vYauACfDM42lRz1wm/iJxwvt5d
NtTkJl/KGzpxXYN7R8Xvmq6IQJ0b5NYNgPC2/5D04HE5FU26AM/Mzj6jK+fdswN7
WPfde4VUBLbDTB3rvvFN8Ch+x23zydIhYH4V3WPuxBsP9sNdqWmv1rnhhyCt9/OE
Gv/wohKF7pWqOyC2hQIjgWbB4aDxoClUai+BIobu/J0D3sbwmxnzOvhebyjs6Z4s
V7jG32aHwI8Erg2HvMBuagwD6bNvp6YHm29sdoV9uHTEgYg7dT6hQkci/suZuj8w
TbEU0YeSoPO4I4ftmG+DhegMtglMZnLmIIj1yQ2xq2fW4d9FCUGCLbhKZk3XNyTv
jkWzayxaRT9ttVNZugkUJ8ngcYF6nArub39LLJG9zrg1AK0QT4+RgAcxuHB4WDD5
oMsHy7xwtjR4k9StPOi/ln2r6mFOVVFDd2v37AV6UvIC6eUsmpaCsh5SEjfAgTx3
buddywmrJwaNPplExRujVMX+fdMk9vIXRry9UoyayBfiIOUL7CEgfQ1PG150/WSZ
dis7pN8C93nYkAmhSJGgBBrzzrOoprJPloUraxqjU6/i
-----END CERTIFICATE-----
