Certificate:
    Data:
        Version: 3 (0x2)
        Serial Number: 208 (0xd0)
    Signature Algorithm: md5WithRSAEncryption
        Issuer: C=US, ST=OH, L=Columbus, O=VikingVPN, OU=MyOrganizationalUnit, CN=VikingVPN CA/name=EasyRSA/emailAddress=me@myhost.mydomain
        Validity
            Not Before: Sep 19 14:10:23 2013 GMT
            Not After : Sep 17 14:10:23 2023 GMT
        Subject: CN=Client107Certb77701
        Subject Public Key Info:
            Public Key Algorithm: rsaEncryption
                Public-Key: (4096 bit)
                Modulus:
                    00:c0:00:7d:ec:49:45:9e:24:03:41:13:4f:3e:d7:
                    49:70:0b:db:b1:ee:60:ef:44:f0:a7:f6:ff:36:a1:
                    90:20:fc:c4:57:86:e6:0f:e1:ec:5b:8e:0b:ea:6a:
                    06:74:6f:6e:2c:3c:77:74:ad:b4:16:f9:5b:a5:82:
                    01:bb:e3:d6:c0:01:f5:21:ef:5c:a9:c8:8a:82:25:
                    67:aa:fc:c3:e2:40:0f:0e:c7:fc:f1:dc:5b:99:ec:
                    13:59:03:4b:43:6d:44:14:d8:92:ae:84:f0:9e:f4:
                    c4:ea:2b:a1:47:ee:70:db:ef:44:0e:33:f5:2b:db:
                    df:da:b8:34:61:2c:7b:37:ff:a8:2b:66:1e:2f:a2:
                    cc:f6:17:68:e8:05:9b:db:7e:e6:6b:50:0a:92:f0:
                    59:72:d6:9f:d3:58:f0:b7:8c:4e:c6:d3:f0:fe:f0:
                    2e:91:d1:af:70:20:6c:62:d5:a5:3d:dd:8e:2c:80:
                    a4:38:3a:81:7a:63:85:25:b5:c2:3f:c3:b2:1e:6a:
                    ab:5a:8d:b0:cd:d8:95:0c:85:c0:4d:b4:3a:96:8e:
                    82:4a:e4:34:44:bc:ba:38:f6:7b:89:5e:85:b6:a9:
                    0f:38:0c:a5:2f:06:65:f5:eb:63:c5:fe:1a:3f:35:
                    ec:c2:f5:3a:87:1a:10:af:e8:df:66:53:24:20:42:
                    7a:e7:e8:3c:29:69:3e:ce:02:9a:85:38:15:e3:53:
                    cf:1a:7b:45:57:8c:1a:e8:79:31:b7:3d:34:bc:a8:
                    9e:b0:8d:c8:cd:fb:9b:09:cc:1a:83:70:8a:dc:3b:
                    bb:e3:43:37:81:1a:dc:b6:c2:44:2a:1c:25:86:05:
                    58:e9:ce:8a:b1:cc:28:66:3a:6d:b3:d8:19:46:dd:
                    e1:21:db:c8:25:fc:d0:3e:5b:91:6c:c3:57:81:d9:
                    23:e4:49:61:11:75:bb:90:d1:1d:da:c7:0f:02:4a:
                    5a:ef:53:8f:28:a8:b3:7d:76:c6:aa:d5:77:11:de:
                    6f:0a:f5:84:f5:7a:e0:c0:da:dc:cf:97:ff:32:4c:
                    d5:70:45:5c:21:cc:d4:d3:c7:8f:63:37:c7:bc:49:
                    71:fd:b5:6e:e8:ee:7f:40:e1:18:0d:a4:f8:05:14:
                    ba:75:b0:0b:9b:e6:dc:7d:d1:d3:fc:42:33:6b:59:
                    0f:1d:e3:fe:20:5d:76:e0:4e:33:5f:89:af:eb:11:
                    e5:e7:e5:77:0a:58:e2:a1:90:28:c6:e1:98:9f:81:
                    af:bb:ec:8e:cc:02:c5:18:94:2b:03:15:5e:18:2d:
                    61:cd:f0:22:0a:d4:a8:84:7c:08:40:00:5e:fa:20:
                    44:10:12:39:97:85:09:54:c8:96:b6:68:37:45:26:
                    0c:23:71
                Exponent: 65537 (0x10001)
        X509v3 extensions:
            X509v3 Basic Constraints: 
                CA:FALSE
            Netscape Comment: 
                Easy-RSA Generated Certificate
            X509v3 Subject Key Identifier: 
                CA:52:BD:98:D3:B9:9D:03:81:20:AB:6E:85:06:AE:F5:29:33:5E:1C
            X509v3 Authority Key Identifier: 
                keyid:12:CD:60:04:D2:A0:80:9E:70:ED:C6:99:B8:7B:2C:C6:52:FD:19:A1
                DirName:/C=US/ST=OH/L=Columbus/O=VikingVPN/OU=MyOrganizationalUnit/CN=VikingVPN CA/name=EasyRSA/emailAddress=me@myhost.mydomain
                serial:CF:35:85:EE:80:BF:2A:3E

            X509v3 Extended Key Usage: 
                TLS Web Client Authentication
            X509v3 Key Usage: 
                Digital Signature
    Signature Algorithm: md5WithRSAEncryption
         1a:94:fc:f6:ff:b8:6b:bf:f3:26:e0:d4:d8:94:6e:7b:9c:c7:
         88:f4:08:1e:34:ea:2a:9f:1c:ff:43:1e:14:9d:2e:a3:bc:56:
         55:40:9a:80:c0:5e:47:a7:80:0d:8d:35:6f:28:a1:5f:41:bc:
         4d:93:47:e6:55:ae:5b:4f:05:90:f5:16:bc:da:20:91:c6:85:
         fe:58:26:64:b0:7d:ce:2f:d7:bb:7f:21:a1:49:fa:cd:d1:a0:
         18:8d:a9:54:e9:71:8f:44:70:a8:a8:b6:44:ee:2b:88:9d:5b:
         0d:9f:b6:93:05:5e:dc:a0:aa:dc:a5:18:b4:ff:07:a4:4c:39:
         fc:da:ec:34:c2:df:d8:a6:51:89:24:ec:59:30:a4:45:fe:96:
         1c:07:3a:c2:f2:02:74:c5:58:6d:bf:a5:e6:b3:51:9c:bb:cd:
         6c:63:6a:2a:d7:fb:cc:e3:8c:36:03:13:74:4f:b6:be:ca:62:
         c3:a3:ac:44:25:dd:3c:8b:ce:98:86:84:80:a2:ac:26:17:24:
         e7:30:92:8c:8c:54:58:49:13:98:d0:1d:cb:29:d8:be:6d:b9:
         b8:5e:ed:91:19:00:c1:ca:0b:77:53:e3:5a:87:6b:71:c2:23:
         64:e0:03:88:62:75:fc:0f:7c:f4:d9:2f:72:4e:78:0f:97:88:
         31:79:b0:99:18:93:03:1d:1e:71:53:24:14:2a:ed:5b:73:18:
         1a:cf:85:4d:9f:44:17:41:fd:a5:8f:3f:be:42:df:e5:a4:6e:
         8e:fc:ed:78:31:0e:1a:4b:37:a6:2c:18:77:ed:37:9f:50:90:
         02:3e:ec:36:0f:70:3a:68:81:4b:4b:50:6e:74:ef:00:e3:ae:
         e9:8a:b2:68:5e:cb:7e:7a:4d:cc:e0:c4:ea:d6:e1:fb:e6:e0:
         75:69:30:1a:47:af:db:b3:09:0c:34:32:0a:5f:97:b8:e6:43:
         08:27:d6:df:93:95:4b:4f:89:69:78:e4:8f:54:4a:0c:32:62:
         50:fd:8d:83:32:2e:58:a5:e8:52:e1:f3:2e:e2:91:74:aa:bb:
         c8:14:98:f8:c3:16:31:5e:92:16:56:3a:de:ea:bc:6c:1e:cf:
         da:79:f9:4b:d9:d9:bb:ea:89:75:5b:fc:21:b6:c0:46:1a:0c:
         62:6a:d0:bc:14:5d:ab:e6:b6:cf:0d:51:12:5c:82:c1:96:07:
         43:78:1c:cb:de:07:27:dd:d7:2e:de:b7:5d:c8:1c:30:bd:dc:
         e0:08:1d:18:93:08:07:16:41:64:be:fe:c9:49:e3:6c:55:6c:
         c2:7d:75:bc:71:40:37:7b:1b:10:0d:43:b8:b6:d5:8d:c5:44:
         56:3f:c9:35:3a:58:a7:f7
-----BEGIN CERTIFICATE-----
MIIGrDCCBJSgAwIBAgICANAwDQYJKoZIhvcNAQEEBQAwgawxCzAJBgNVBAYTAlVT
MQswCQYDVQQIEwJPSDERMA8GA1UEBxMIQ29sdW1idXMxEjAQBgNVBAoTCVZpa2lu
Z1ZQTjEdMBsGA1UECxMUTXlPcmdhbml6YXRpb25hbFVuaXQxFTATBgNVBAMTDFZp
a2luZ1ZQTiBDQTEQMA4GA1UEKRMHRWFzeVJTQTEhMB8GCSqGSIb3DQEJARYSbWVA
bXlob3N0Lm15ZG9tYWluMB4XDTEzMDkxOTE0MTAyM1oXDTIzMDkxNzE0MTAyM1ow
HjEcMBoGA1UEAxMTQ2xpZW50MTA3Q2VydGI3NzcwMTCCAiIwDQYJKoZIhvcNAQEB
BQADggIPADCCAgoCggIBAMAAfexJRZ4kA0ETTz7XSXAL27HuYO9E8Kf2/zahkCD8
xFeG5g/h7FuOC+pqBnRvbiw8d3SttBb5W6WCAbvj1sAB9SHvXKnIioIlZ6r8w+JA
Dw7H/PHcW5nsE1kDS0NtRBTYkq6E8J70xOoroUfucNvvRA4z9Svb39q4NGEsezf/
qCtmHi+izPYXaOgFm9t+5mtQCpLwWXLWn9NY8LeMTsbT8P7wLpHRr3AgbGLVpT3d
jiyApDg6gXpjhSW1wj/Dsh5qq1qNsM3YlQyFwE20OpaOgkrkNES8ujj2e4lehbap
DzgMpS8GZfXrY8X+Gj817ML1OocaEK/o32ZTJCBCeufoPClpPs4CmoU4FeNTzxp7
RVeMGuh5Mbc9NLyonrCNyM37mwnMGoNwitw7u+NDN4Ea3LbCRCocJYYFWOnOirHM
KGY6bbPYGUbd4SHbyCX80D5bkWzDV4HZI+RJYRF1u5DRHdrHDwJKWu9Tjyios312
xqrVdxHebwr1hPV64MDa3M+X/zJM1XBFXCHM1NPHj2M3x7xJcf21bujuf0DhGA2k
+AUUunWwC5vm3H3R0/xCM2tZDx3j/iBdduBOM1+Jr+sR5efldwpY4qGQKMbhmJ+B
r7vsjswCxRiUKwMVXhgtYc3wIgrUqIR8CEAAXvogRBASOZeFCVTIlrZoN0UmDCNx
AgMBAAGjggFjMIIBXzAJBgNVHRMEAjAAMC0GCWCGSAGG+EIBDQQgFh5FYXN5LVJT
QSBHZW5lcmF0ZWQgQ2VydGlmaWNhdGUwHQYDVR0OBBYEFMpSvZjTuZ0DgSCrboUG
rvUpM14cMIHhBgNVHSMEgdkwgdaAFBLNYATSoICecO3Gmbh7LMZS/RmhoYGypIGv
MIGsMQswCQYDVQQGEwJVUzELMAkGA1UECBMCT0gxETAPBgNVBAcTCENvbHVtYnVz
MRIwEAYDVQQKEwlWaWtpbmdWUE4xHTAbBgNVBAsTFE15T3JnYW5pemF0aW9uYWxV
bml0MRUwEwYDVQQDEwxWaWtpbmdWUE4gQ0ExEDAOBgNVBCkTB0Vhc3lSU0ExITAf
BgkqhkiG9w0BCQEWEm1lQG15aG9zdC5teWRvbWFpboIJAM81he6Avyo+MBMGA1Ud
JQQMMAoGCCsGAQUFBwMCMAsGA1UdDwQEAwIHgDANBgkqhkiG9w0BAQQFAAOCAgEA
GpT89v+4a7/zJuDU2JRue5zHiPQIHjTqKp8c/0MeFJ0uo7xWVUCagMBeR6eADY01
byihX0G8TZNH5lWuW08FkPUWvNogkcaF/lgmZLB9zi/Xu38hoUn6zdGgGI2pVOlx
j0RwqKi2RO4riJ1bDZ+2kwVe3KCq3KUYtP8HpEw5/NrsNMLf2KZRiSTsWTCkRf6W
HAc6wvICdMVYbb+l5rNRnLvNbGNqKtf7zOOMNgMTdE+2vspiw6OsRCXdPIvOmIaE
gKKsJhck5zCSjIxUWEkTmNAdyynYvm25uF7tkRkAwcoLd1PjWodrccIjZOADiGJ1
/A989Nkvck54D5eIMXmwmRiTAx0ecVMkFCrtW3MYGs+FTZ9EF0H9pY8/vkLf5aRu
jvzteDEOGks3piwYd+03n1CQAj7sNg9wOmiBS0tQbnTvAOOu6YqyaF7LfnpNzODE
6tbh++bgdWkwGkev27MJDDQyCl+XuOZDCCfW35OVS0+JaXjkj1RKDDJiUP2NgzIu
WKXoUuHzLuKRdKq7yBSY+MMWMV6SFlY63uq8bB7P2nn5S9nZu+qJdVv8IbbARhoM
YmrQvBRdq+a2zw1RElyCwZYHQ3gcy94HJ93XLt63XcgcML3c4AgdGJMIBxZBZL7+
yUnjbFVswn11vHFAN3sbEA1DuLbVjcVEVj/JNTpYp/c=
-----END CERTIFICATE-----
