Certificate:
    Data:
        Version: 3 (0x2)
        Serial Number: 7840 (0x1ea0)
    Signature Algorithm: md5WithRSAEncryption
        Issuer: C=US, ST=OH, L=Columbus, O=VikingVPN, OU=MyOrganizationalUnit, CN=VikingVPN CA/name=EasyRSA/emailAddress=me@myhost.mydomain
        Validity
            Not Before: Apr 25 06:36:22 2016 GMT
            Not After : Apr 23 06:36:22 2026 GMT
        Subject: CN=Client2272Cert4cd926
        Subject Public Key Info:
            Public Key Algorithm: rsaEncryption
                Public-Key: (4096 bit)
                Modulus:
                    00:bb:18:48:33:a2:47:79:48:cf:94:ac:ac:07:f3:
                    9e:9b:d0:c6:fc:0b:54:f8:38:c0:b5:51:20:38:c0:
                    cd:b7:a1:34:72:47:0e:d1:9b:a2:db:84:04:fe:5e:
                    2d:72:01:4e:1a:da:8b:1c:0e:fa:76:33:56:53:39:
                    67:50:58:ef:f6:79:c6:85:01:a9:e0:85:cd:0c:46:
                    e7:9a:e6:41:23:3b:c3:d4:3b:6b:41:47:f2:8b:aa:
                    ca:9d:b1:03:6d:b5:3a:11:56:39:87:8c:cf:b1:ac:
                    07:97:6f:dd:77:1b:c5:8b:47:39:cc:10:bf:b8:55:
                    23:00:34:bb:37:46:56:23:32:7a:77:ad:f7:f9:dc:
                    84:63:ec:1b:8a:25:56:af:78:1b:39:c7:d1:20:57:
                    1b:4a:98:e0:34:57:3d:82:30:66:5e:c0:f7:d1:db:
                    7f:26:06:c6:03:35:e3:66:a4:63:e7:f6:06:6b:0f:
                    1b:60:74:89:c7:37:df:cc:a4:23:5a:e3:9d:da:ec:
                    58:87:1f:a2:d8:e7:ae:e7:a8:af:47:18:f4:21:90:
                    d1:bc:88:b3:56:39:7a:fe:47:bb:ce:42:58:3d:e0:
                    9c:65:35:e0:31:ff:f4:e7:db:33:a7:07:be:9f:f5:
                    f4:91:26:36:c3:19:5f:54:03:c9:df:ba:80:0b:f4:
                    f8:55:45:7b:98:51:01:2a:d9:17:02:d4:9b:cf:2c:
                    e8:f7:39:47:52:c6:2b:a9:3f:0f:20:e2:f6:1a:34:
                    39:d1:1c:f5:1e:d8:5a:f8:5d:07:ae:3b:21:af:75:
                    6f:15:e4:a8:dd:f5:36:0a:13:a4:d7:f9:ee:94:fb:
                    4a:97:a1:e5:8c:c1:21:98:04:28:77:e1:eb:dd:78:
                    47:28:42:b8:73:72:ee:59:df:a4:32:f7:e4:d9:06:
                    3a:b6:cf:3b:23:1e:a9:36:e4:e0:cd:70:7e:3c:a9:
                    1c:15:a0:9e:ec:6c:ac:ce:7c:f0:ad:0d:d7:9d:8f:
                    b0:e5:a1:72:7a:34:65:82:39:30:dc:70:bf:68:7a:
                    df:f3:0b:1b:3e:7a:d1:e1:83:67:e3:b5:68:5a:be:
                    db:3c:aa:a3:06:15:08:18:f8:f2:a8:04:d6:55:4a:
                    36:6d:4a:5e:e3:72:89:61:83:84:83:10:30:21:e4:
                    74:8b:dd:ee:7c:62:e9:c0:1c:59:76:84:70:7d:1d:
                    ae:48:16:7a:a8:0b:31:a0:17:a0:2e:05:a6:2c:a1:
                    d5:fc:e4:2a:e3:01:5e:7b:7e:36:d3:9b:de:07:84:
                    07:d6:5c:24:b5:82:53:d4:dc:72:e1:f0:c7:45:5d:
                    98:0d:c0:c4:22:e9:3d:c9:81:5b:22:a1:2d:c0:4a:
                    95:b2:9b
                Exponent: 65537 (0x10001)
        X509v3 extensions:
            X509v3 Basic Constraints: 
                CA:FALSE
            Netscape Comment: 
                Easy-RSA Generated Certificate
            X509v3 Subject Key Identifier: 
                0D:3B:24:4D:03:FC:90:6F:69:48:CE:69:0F:49:4D:11:58:52:B4:90
            X509v3 Authority Key Identifier: 
                keyid:12:CD:60:04:D2:A0:80:9E:70:ED:C6:99:B8:7B:2C:C6:52:FD:19:A1
                DirName:/C=US/ST=OH/L=Columbus/O=VikingVPN/OU=MyOrganizationalUnit/CN=VikingVPN CA/name=EasyRSA/emailAddress=me@myhost.mydomain
                serial:CF:35:85:EE:80:BF:2A:3E

            X509v3 Extended Key Usage: 
                TLS Web Client Authentication
            X509v3 Key Usage: 
                Digital Signature
    Signature Algorithm: md5WithRSAEncryption
         a4:06:9c:b7:7c:ca:57:e6:4d:eb:37:a3:4b:9e:82:06:62:24:
         21:63:61:c4:bb:e3:a7:12:65:e1:93:1f:8e:71:21:45:08:bb:
         9e:72:b1:e5:1e:bf:f3:b6:e5:ef:63:1b:6d:07:ed:29:9f:fb:
         9d:5e:69:57:33:9e:5c:a2:e3:02:02:f5:5f:80:6d:f5:2e:3f:
         a6:6a:40:ec:8b:5c:0d:28:4c:2a:d3:88:2c:cb:9f:39:b7:fa:
         54:4d:95:65:d4:2b:3d:42:d8:a3:df:00:f5:c1:38:f8:a0:69:
         7b:c9:35:0b:2c:5b:23:b3:a8:e9:34:55:6a:1d:3e:0d:c2:79:
         d8:55:bc:0f:34:65:03:c4:d5:b0:67:07:0b:3a:65:9b:fd:69:
         b8:4b:0f:2c:26:b5:f2:d2:1f:48:be:27:2c:29:14:d0:f5:17:
         05:35:cd:29:1f:57:6c:eb:c8:5e:60:a9:c0:f9:52:8f:1c:b2:
         74:51:67:99:8a:7c:69:e9:2b:04:fe:62:0b:5c:b5:c7:64:40:
         9a:2d:cb:ff:e0:28:d6:0c:4d:19:b0:61:23:1f:f9:c7:a9:8b:
         d0:12:36:b4:45:b3:40:f9:f5:4e:1e:48:cf:20:1b:2f:da:7b:
         92:22:02:62:cc:fe:05:92:5d:be:ff:89:cb:27:04:50:28:da:
         46:42:c7:94:97:d0:de:8a:89:c2:1e:20:05:c8:c5:1e:74:e2:
         7d:cd:85:c6:b3:37:53:a6:73:88:d2:44:07:c2:76:ef:0f:6e:
         ee:1e:de:77:eb:19:43:55:ac:36:cd:b4:08:86:e2:e5:6a:f9:
         b7:f2:cd:40:90:27:9e:04:3f:c7:57:d3:c6:dd:86:89:6d:6f:
         45:b3:42:50:ac:76:df:d8:b2:25:00:73:8d:40:cb:a4:dd:84:
         fe:d6:ed:f8:f1:b3:83:6b:fa:10:b7:eb:b5:e3:62:a1:51:3b:
         8e:86:db:45:10:a4:74:57:5d:d0:f3:e6:2d:42:a4:d0:25:ac:
         d6:9a:7f:36:08:50:8a:cb:06:98:69:f8:b8:ff:93:92:ab:be:
         25:84:39:6d:8e:f1:76:49:c5:77:ae:60:46:a0:bd:d1:ee:64:
         63:71:98:d4:cf:e2:58:36:16:23:7d:42:60:c4:52:60:99:bd:
         da:9f:b7:c6:8a:e4:6c:62:46:65:52:ab:14:24:c2:bb:20:6a:
         ce:b5:78:fb:0b:23:ea:30:35:f9:a7:e0:a4:3b:ba:14:8f:48:
         cb:cb:85:c5:c5:c1:3e:36:ea:61:28:89:b6:71:f4:72:33:26:
         87:43:2b:31:f0:59:3c:4c:4a:12:96:b5:71:99:0f:bf:98:07:
         df:14:25:90:d3:21:a8:88
-----BEGIN CERTIFICATE-----
MIIGrTCCBJWgAwIBAgICHqAwDQYJKoZIhvcNAQEEBQAwgawxCzAJBgNVBAYTAlVT
MQswCQYDVQQIEwJPSDERMA8GA1UEBxMIQ29sdW1idXMxEjAQBgNVBAoTCVZpa2lu
Z1ZQTjEdMBsGA1UECxMUTXlPcmdhbml6YXRpb25hbFVuaXQxFTATBgNVBAMTDFZp
a2luZ1ZQTiBDQTEQMA4GA1UEKRMHRWFzeVJTQTEhMB8GCSqGSIb3DQEJARYSbWVA
bXlob3N0Lm15ZG9tYWluMB4XDTE2MDQyNTA2MzYyMloXDTI2MDQyMzA2MzYyMlow
HzEdMBsGA1UEAxMUQ2xpZW50MjI3MkNlcnQ0Y2Q5MjYwggIiMA0GCSqGSIb3DQEB
AQUAA4ICDwAwggIKAoICAQC7GEgzokd5SM+UrKwH856b0Mb8C1T4OMC1USA4wM23
oTRyRw7Rm6LbhAT+Xi1yAU4a2oscDvp2M1ZTOWdQWO/2ecaFAanghc0MRuea5kEj
O8PUO2tBR/KLqsqdsQNttToRVjmHjM+xrAeXb913G8WLRznMEL+4VSMANLs3RlYj
Mnp3rff53IRj7BuKJVaveBs5x9EgVxtKmOA0Vz2CMGZewPfR238mBsYDNeNmpGPn
9gZrDxtgdInHN9/MpCNa453a7FiHH6LY567nqK9HGPQhkNG8iLNWOXr+R7vOQlg9
4JxlNeAx//Tn2zOnB76f9fSRJjbDGV9UA8nfuoAL9PhVRXuYUQEq2RcC1JvPLOj3
OUdSxiupPw8g4vYaNDnRHPUe2Fr4XQeuOyGvdW8V5Kjd9TYKE6TX+e6U+0qXoeWM
wSGYBCh34evdeEcoQrhzcu5Z36Qy9+TZBjq2zzsjHqk25ODNcH48qRwVoJ7sbKzO
fPCtDdedj7DloXJ6NGWCOTDccL9oet/zCxs+etHhg2fjtWhavts8qqMGFQgY+PKo
BNZVSjZtSl7jcolhg4SDEDAh5HSL3e58YunAHFl2hHB9Ha5IFnqoCzGgF6AuBaYs
odX85CrjAV57fjbTm94HhAfWXCS1glPU3HLh8MdFXZgNwMQi6T3JgVsioS3ASpWy
mwIDAQABo4IBYzCCAV8wCQYDVR0TBAIwADAtBglghkgBhvhCAQ0EIBYeRWFzeS1S
U0EgR2VuZXJhdGVkIENlcnRpZmljYXRlMB0GA1UdDgQWBBQNOyRNA/yQb2lIzmkP
SU0RWFK0kDCB4QYDVR0jBIHZMIHWgBQSzWAE0qCAnnDtxpm4eyzGUv0ZoaGBsqSB
rzCBrDELMAkGA1UEBhMCVVMxCzAJBgNVBAgTAk9IMREwDwYDVQQHEwhDb2x1bWJ1
czESMBAGA1UEChMJVmlraW5nVlBOMR0wGwYDVQQLExRNeU9yZ2FuaXphdGlvbmFs
VW5pdDEVMBMGA1UEAxMMVmlraW5nVlBOIENBMRAwDgYDVQQpEwdFYXN5UlNBMSEw
HwYJKoZIhvcNAQkBFhJtZUBteWhvc3QubXlkb21haW6CCQDPNYXugL8qPjATBgNV
HSUEDDAKBggrBgEFBQcDAjALBgNVHQ8EBAMCB4AwDQYJKoZIhvcNAQEEBQADggIB
AKQGnLd8ylfmTes3o0ueggZiJCFjYcS746cSZeGTH45xIUUIu55yseUev/O25e9j
G20H7Smf+51eaVcznlyi4wIC9V+AbfUuP6ZqQOyLXA0oTCrTiCzLnzm3+lRNlWXU
Kz1C2KPfAPXBOPigaXvJNQssWyOzqOk0VWodPg3CedhVvA80ZQPE1bBnBws6ZZv9
abhLDywmtfLSH0i+JywpFND1FwU1zSkfV2zryF5gqcD5Uo8csnRRZ5mKfGnpKwT+
YgtctcdkQJoty//gKNYMTRmwYSMf+cepi9ASNrRFs0D59U4eSM8gGy/ae5IiAmLM
/gWSXb7/icsnBFAo2kZCx5SX0N6KicIeIAXIxR504n3NhcazN1Omc4jSRAfCdu8P
bu4e3nfrGUNVrDbNtAiG4uVq+bfyzUCQJ54EP8dX08bdholtb0WzQlCsdt/YsiUA
c41Ay6TdhP7W7fjxs4Nr+hC367XjYqFRO46G20UQpHRXXdDz5i1CpNAlrNaafzYI
UIrLBphp+Lj/k5KrviWEOW2O8XZJxXeuYEagvdHuZGNxmNTP4lg2FiN9QmDEUmCZ
vdqft8aK5GxiRmVSqxQkwrsgas61ePsLI+owNfmn4KQ7uhSPSMvLhcXFwT426mEo
ibZx9HIzJodDKzHwWTxMShKWtXGZD7+YB98UJZDTIaiI
-----END CERTIFICATE-----
