Certificate:
    Data:
        Version: 3 (0x2)
        Serial Number: 4584 (0x11e8)
    Signature Algorithm: md5WithRSAEncryption
        Issuer: C=US, ST=OH, L=Columbus, O=VikingVPN, OU=MyOrganizationalUnit, CN=VikingVPN CA/name=EasyRSA/emailAddress=me@myhost.mydomain
        Validity
            Not Before: Feb 27 11:18:57 2015 GMT
            Not After : Feb 24 11:18:57 2025 GMT
        Subject: CN=Client1488Certa42234
        Subject Public Key Info:
            Public Key Algorithm: rsaEncryption
                Public-Key: (4096 bit)
                Modulus:
                    00:e7:a3:d9:d2:23:b9:51:1b:fe:68:ba:d9:8d:d6:
                    1e:60:ba:b9:f4:e1:64:c4:de:d2:91:94:b9:98:9b:
                    5e:94:30:76:89:a7:b9:6d:9d:ba:0b:75:d6:16:fb:
                    7d:e7:ac:0e:26:e7:6e:bb:ee:ce:54:4c:56:2f:c4:
                    a2:ed:a1:fa:d6:5a:a0:09:ae:bd:d2:94:d6:18:6c:
                    80:ca:3c:cb:da:07:45:27:0b:9e:5d:7c:5e:42:03:
                    91:08:c7:f1:7e:8a:1e:42:d1:df:df:34:9f:3c:47:
                    f2:29:4b:69:a3:fa:65:a2:34:f9:12:84:a5:04:59:
                    b6:b9:6d:01:91:1f:40:50:04:73:9e:38:03:81:ff:
                    8d:1c:3e:88:ba:68:d6:cf:7a:f7:36:58:02:ea:4e:
                    89:b1:6a:53:f7:a2:0f:9f:fa:49:05:45:bc:e6:56:
                    ce:21:96:4d:b3:4c:2b:48:0f:1e:46:62:07:99:46:
                    56:ed:6c:8a:25:f7:f3:88:cc:68:d5:cc:4f:a7:fe:
                    f6:ca:f0:7b:f5:2d:23:b3:4a:c9:4a:bc:db:8b:8d:
                    e1:de:0a:b3:60:3e:9d:39:0e:43:83:98:e9:79:f8:
                    cb:0a:29:e7:58:2e:c7:f2:95:da:e3:7d:f3:ce:5e:
                    d5:f0:37:c9:06:3c:85:43:8d:e1:02:41:ac:58:e3:
                    14:21:ea:3f:e6:77:74:ad:61:20:3a:83:18:07:c4:
                    00:92:42:ca:e4:de:e1:d0:4a:2e:30:f9:9e:21:10:
                    49:1a:6f:14:20:64:7c:2d:34:d1:40:78:15:9c:26:
                    b6:c2:b0:e9:9a:9a:bb:0c:5b:ff:a0:b3:08:2a:e8:
                    b6:c7:75:f9:f6:56:98:60:98:ff:90:ed:9a:9f:b9:
                    a6:c6:b3:3d:6e:96:10:0a:cf:73:82:b4:7f:56:82:
                    6c:d3:27:2d:4e:1b:38:a8:06:f1:05:88:21:3c:1e:
                    49:ab:77:a8:ff:30:7e:1b:87:c6:58:38:e6:4b:d5:
                    98:0d:9a:77:ef:c5:01:2e:a9:b3:e2:58:43:0e:f1:
                    b6:3e:5b:66:0c:ba:11:7b:e8:4d:64:b0:c1:04:3f:
                    45:33:10:d2:21:73:fd:7b:68:d4:2f:09:b6:68:01:
                    5e:fd:b1:e1:7c:75:6c:97:7c:56:fa:ce:7c:61:b2:
                    ac:06:dc:4b:26:4a:7d:65:0e:a3:2c:bc:a0:e1:3c:
                    b1:b1:25:de:bf:f1:27:13:80:3b:60:6d:9e:e7:48:
                    84:2d:ad:60:95:c1:3a:e7:8a:3e:ff:c0:9d:61:9d:
                    09:f9:7d:38:50:03:1e:b6:4e:03:7d:56:92:d5:5b:
                    e2:1c:63:11:21:19:08:60:31:9d:ad:59:dc:90:a2:
                    90:d3:a3
                Exponent: 65537 (0x10001)
        X509v3 extensions:
            X509v3 Basic Constraints: 
                CA:FALSE
            Netscape Comment: 
                Easy-RSA Generated Certificate
            X509v3 Subject Key Identifier: 
                7D:9F:FB:A2:30:11:22:56:01:C0:05:62:5D:18:EB:25:E0:E3:C3:B3
            X509v3 Authority Key Identifier: 
                keyid:12:CD:60:04:D2:A0:80:9E:70:ED:C6:99:B8:7B:2C:C6:52:FD:19:A1
                DirName:/C=US/ST=OH/L=Columbus/O=VikingVPN/OU=MyOrganizationalUnit/CN=VikingVPN CA/name=EasyRSA/emailAddress=me@myhost.mydomain
                serial:CF:35:85:EE:80:BF:2A:3E

            X509v3 Extended Key Usage: 
                TLS Web Client Authentication
            X509v3 Key Usage: 
                Digital Signature
    Signature Algorithm: md5WithRSAEncryption
         0f:14:87:39:e4:8a:11:37:2b:e4:8b:b5:ad:49:3c:36:2e:5f:
         62:df:42:e6:34:f7:3e:88:a5:63:e5:29:c8:70:87:83:c9:73:
         25:fc:d5:11:92:ca:46:a3:c9:aa:28:df:15:2e:0a:70:3b:f6:
         c4:3d:ba:1b:42:e5:f1:f4:25:9a:7e:98:66:f4:10:5f:be:5e:
         23:80:d5:7e:6c:36:94:c9:74:43:76:2e:07:5c:5c:42:80:ef:
         d8:2c:84:67:72:7f:2e:60:a9:a8:3a:f2:a7:69:4b:c4:8b:24:
         6c:a4:f1:af:21:30:08:c4:b6:de:75:c6:1e:c7:b4:5a:2f:d0:
         03:c0:c8:5f:08:d2:bb:b8:c2:66:fe:13:ff:18:e4:56:ff:9a:
         3f:a6:a4:7b:0e:fc:0f:1a:05:44:71:ea:38:84:af:66:04:ba:
         4e:5f:bb:27:c3:c8:02:be:7c:a1:a1:ca:32:81:30:ad:18:ec:
         6c:a0:78:ab:5b:6b:c9:11:7d:2a:c3:b8:32:9f:b9:5c:84:b1:
         b8:70:a3:69:ad:45:44:d4:53:d2:6f:92:68:f3:28:65:75:27:
         a0:05:22:ba:de:96:62:c0:28:a4:fa:8d:cb:02:dc:00:00:df:
         db:00:21:eb:54:bd:98:f2:bb:ec:3d:ae:f0:f1:b9:c6:2f:c2:
         46:05:74:11:6d:22:ab:14:63:1c:a5:b5:11:11:d3:b9:fb:3f:
         5d:86:5e:05:4c:5d:74:b6:ca:93:6d:18:6e:e6:a4:ac:80:b9:
         57:99:54:07:50:fe:82:d1:a7:46:42:30:5c:aa:ff:1e:cb:ed:
         84:87:23:d5:8e:bd:7f:3b:c6:27:89:24:2d:39:36:02:c2:73:
         00:d0:0f:89:22:20:91:81:ef:20:00:61:14:ac:ca:06:d2:88:
         32:ea:1a:7d:c4:48:db:57:55:ca:59:04:ff:f3:ba:32:5e:3f:
         e1:bf:27:2e:a9:ca:cd:38:e8:f8:08:91:91:67:6c:2a:44:72:
         1e:a0:41:85:dc:3d:f8:30:f4:45:89:6e:39:79:14:7d:4e:73:
         59:c4:3b:b1:15:88:67:34:73:4a:ec:65:e2:f1:02:b9:6f:a1:
         d0:fe:b6:5c:ba:22:72:fa:a6:ec:6f:27:30:15:d8:7c:06:ac:
         eb:46:6b:f5:2c:ff:a1:a6:95:b7:5e:4f:8c:f8:fb:2b:eb:5b:
         40:be:f6:01:d1:98:6a:a9:68:be:53:22:37:c1:a4:f0:45:6d:
         f2:d9:db:08:cc:c9:66:cd:1c:bf:41:5c:ff:c8:f2:26:7c:55:
         28:cd:d8:da:d6:40:3f:7b:19:04:c4:eb:1e:66:df:fb:ef:79:
         68:0c:fd:cd:86:d1:81:30
-----BEGIN CERTIFICATE-----
MIIGrTCCBJWgAwIBAgICEegwDQYJKoZIhvcNAQEEBQAwgawxCzAJBgNVBAYTAlVT
MQswCQYDVQQIEwJPSDERMA8GA1UEBxMIQ29sdW1idXMxEjAQBgNVBAoTCVZpa2lu
Z1ZQTjEdMBsGA1UECxMUTXlPcmdhbml6YXRpb25hbFVuaXQxFTATBgNVBAMTDFZp
a2luZ1ZQTiBDQTEQMA4GA1UEKRMHRWFzeVJTQTEhMB8GCSqGSIb3DQEJARYSbWVA
bXlob3N0Lm15ZG9tYWluMB4XDTE1MDIyNzExMTg1N1oXDTI1MDIyNDExMTg1N1ow
HzEdMBsGA1UEAxMUQ2xpZW50MTQ4OENlcnRhNDIyMzQwggIiMA0GCSqGSIb3DQEB
AQUAA4ICDwAwggIKAoICAQDno9nSI7lRG/5outmN1h5gurn04WTE3tKRlLmYm16U
MHaJp7ltnboLddYW+33nrA4m52677s5UTFYvxKLtofrWWqAJrr3SlNYYbIDKPMva
B0UnC55dfF5CA5EIx/F+ih5C0d/fNJ88R/IpS2mj+mWiNPkShKUEWba5bQGRH0BQ
BHOeOAOB/40cPoi6aNbPevc2WALqTomxalP3og+f+kkFRbzmVs4hlk2zTCtIDx5G
YgeZRlbtbIol9/OIzGjVzE+n/vbK8Hv1LSOzSslKvNuLjeHeCrNgPp05DkODmOl5
+MsKKedYLsfyldrjffPOXtXwN8kGPIVDjeECQaxY4xQh6j/md3StYSA6gxgHxACS
Qsrk3uHQSi4w+Z4hEEkabxQgZHwtNNFAeBWcJrbCsOmamrsMW/+gswgq6LbHdfn2
VphgmP+Q7ZqfuabGsz1ulhAKz3OCtH9WgmzTJy1OGzioBvEFiCE8Hkmrd6j/MH4b
h8ZYOOZL1ZgNmnfvxQEuqbPiWEMO8bY+W2YMuhF76E1ksMEEP0UzENIhc/17aNQv
CbZoAV79seF8dWyXfFb6znxhsqwG3EsmSn1lDqMsvKDhPLGxJd6/8ScTgDtgbZ7n
SIQtrWCVwTrnij7/wJ1hnQn5fThQAx62TgN9VpLVW+IcYxEhGQhgMZ2tWdyQopDT
owIDAQABo4IBYzCCAV8wCQYDVR0TBAIwADAtBglghkgBhvhCAQ0EIBYeRWFzeS1S
U0EgR2VuZXJhdGVkIENlcnRpZmljYXRlMB0GA1UdDgQWBBR9n/uiMBEiVgHABWJd
GOsl4OPDszCB4QYDVR0jBIHZMIHWgBQSzWAE0qCAnnDtxpm4eyzGUv0ZoaGBsqSB
rzCBrDELMAkGA1UEBhMCVVMxCzAJBgNVBAgTAk9IMREwDwYDVQQHEwhDb2x1bWJ1
czESMBAGA1UEChMJVmlraW5nVlBOMR0wGwYDVQQLExRNeU9yZ2FuaXphdGlvbmFs
VW5pdDEVMBMGA1UEAxMMVmlraW5nVlBOIENBMRAwDgYDVQQpEwdFYXN5UlNBMSEw
HwYJKoZIhvcNAQkBFhJtZUBteWhvc3QubXlkb21haW6CCQDPNYXugL8qPjATBgNV
HSUEDDAKBggrBgEFBQcDAjALBgNVHQ8EBAMCB4AwDQYJKoZIhvcNAQEEBQADggIB
AA8UhznkihE3K+SLta1JPDYuX2LfQuY09z6IpWPlKchwh4PJcyX81RGSykajyaoo
3xUuCnA79sQ9uhtC5fH0JZp+mGb0EF++XiOA1X5sNpTJdEN2LgdcXEKA79gshGdy
fy5gqag68qdpS8SLJGyk8a8hMAjEtt51xh7HtFov0APAyF8I0ru4wmb+E/8Y5Fb/
mj+mpHsO/A8aBURx6jiEr2YEuk5fuyfDyAK+fKGhyjKBMK0Y7GygeKtba8kRfSrD
uDKfuVyEsbhwo2mtRUTUU9JvkmjzKGV1J6AFIrrelmLAKKT6jcsC3AAA39sAIetU
vZjyu+w9rvDxucYvwkYFdBFtIqsUYxyltRER07n7P12GXgVMXXS2ypNtGG7mpKyA
uVeZVAdQ/oLRp0ZCMFyq/x7L7YSHI9WOvX87xieJJC05NgLCcwDQD4kiIJGB7yAA
YRSsygbSiDLqGn3ESNtXVcpZBP/zujJeP+G/Jy6pys046PgIkZFnbCpEch6gQYXc
Pfgw9EWJbjl5FH1Oc1nEO7EViGc0c0rsZeLxArlvodD+tly6InL6puxvJzAV2HwG
rOtGa/Us/6GmlbdeT4z4+yvrW0C+9gHRmGqpaL5TIjfBpPBFbfLZ2wjMyWbNHL9B
XP/I8iZ8VSjN2NrWQD97GQTE6x5m3/vveWgM/c2G0YEw
-----END CERTIFICATE-----
