Certificate:
    Data:
        Version: 3 (0x2)
        Serial Number: 66 (0x42)
    Signature Algorithm: md5WithRSAEncryption
        Issuer: C=US, ST=OH, L=Columbus, O=VikingVPN, OU=MyOrganizationalUnit, CN=VikingVPN CA/name=EasyRSA/emailAddress=me@myhost.mydomain
        Validity
            Not Before: Aug 13 22:31:20 2013 GMT
            Not After : Aug 11 22:31:20 2023 GMT
        Subject: CN=Client47Cert231c42
        Subject Public Key Info:
            Public Key Algorithm: rsaEncryption
                Public-Key: (4096 bit)
                Modulus:
                    00:d8:ef:72:b1:e3:07:08:f7:e0:5a:78:a8:95:67:
                    98:b8:8c:dd:71:9c:9d:39:81:ce:55:c6:16:1f:3b:
                    04:ce:c6:9b:57:d8:47:ae:8c:c7:eb:9a:bb:a1:3f:
                    2e:b0:f9:92:43:07:cb:1a:77:ec:1c:2e:a0:89:dc:
                    09:44:07:88:53:86:cb:e0:7f:ac:e8:5f:c4:d0:b1:
                    7e:b8:03:21:14:a9:df:6c:56:9c:bc:ac:54:1e:89:
                    ac:75:85:24:df:0d:d6:31:f8:5f:9b:de:78:25:c9:
                    72:e7:90:bb:d1:96:01:4a:32:69:11:6e:4a:d8:5f:
                    05:9e:dd:62:c9:e5:72:08:73:50:eb:3b:2b:1f:23:
                    2f:05:99:83:34:60:56:87:93:50:2c:29:5e:d4:1c:
                    24:99:83:a4:a9:f8:28:a4:dc:bf:ed:ed:79:40:ca:
                    e3:ea:d0:77:72:db:5b:ff:88:c3:8c:55:12:c6:8a:
                    7b:13:89:85:b3:d7:9a:0e:4b:26:ae:32:8f:a1:8f:
                    0d:41:d9:f9:12:f3:8f:3f:76:b2:fe:39:5a:69:e3:
                    89:a5:9e:b5:31:8c:23:41:4c:17:0a:c7:5f:68:a3:
                    44:d3:08:57:88:01:ab:be:d2:21:e8:e3:26:5d:2a:
                    b1:7b:7c:39:27:df:41:f0:cc:ef:d0:d5:31:e5:38:
                    82:ed:1f:15:b8:21:bf:69:6b:90:6a:9f:27:a9:7a:
                    41:2a:3a:ce:d2:ab:19:31:d6:a2:ff:23:15:1e:34:
                    02:02:72:a7:f5:6f:78:11:89:ce:76:c2:23:87:24:
                    e7:b7:b3:fd:9d:4b:bf:d3:1e:97:40:60:aa:d3:3a:
                    29:0d:5c:6a:c4:11:91:7f:e4:30:f4:11:d0:ae:3e:
                    a9:fd:a0:57:57:40:07:13:f6:69:2e:36:20:ea:f5:
                    aa:19:99:46:6d:49:18:7c:1f:9f:10:a0:5a:94:a8:
                    15:dc:df:bb:8d:a8:1b:b9:44:45:f8:f1:1f:08:2c:
                    c7:ad:07:b4:6c:9a:15:1b:4c:09:27:e5:57:ca:48:
                    09:cb:4e:cc:bc:3d:96:8f:08:16:12:cd:d9:1a:87:
                    d9:4f:53:e5:25:68:38:17:0a:ec:2a:9e:64:4e:b8:
                    76:31:2a:7b:f5:16:45:d7:3a:15:a7:b7:06:33:df:
                    2b:91:27:5c:4f:f4:b2:0a:99:44:6c:79:dd:7f:6e:
                    df:5e:e2:ce:0b:90:21:22:c1:c9:6c:af:6e:8c:1e:
                    18:2f:af:78:2f:cf:16:e9:fb:67:2a:41:0b:ff:6d:
                    a6:3d:2e:1d:5d:54:05:28:2c:e0:71:7b:4b:08:46:
                    74:56:0d:70:4a:99:2d:e4:b4:35:e8:37:7e:c8:2b:
                    17:04:47
                Exponent: 65537 (0x10001)
        X509v3 extensions:
            X509v3 Basic Constraints: 
                CA:FALSE
            Netscape Comment: 
                Easy-RSA Generated Certificate
            X509v3 Subject Key Identifier: 
                B3:D6:EF:52:40:16:83:AE:D5:A9:AA:55:E6:8D:F3:FA:1F:21:12:9B
            X509v3 Authority Key Identifier: 
                keyid:12:CD:60:04:D2:A0:80:9E:70:ED:C6:99:B8:7B:2C:C6:52:FD:19:A1
                DirName:/C=US/ST=OH/L=Columbus/O=VikingVPN/OU=MyOrganizationalUnit/CN=VikingVPN CA/name=EasyRSA/emailAddress=me@myhost.mydomain
                serial:CF:35:85:EE:80:BF:2A:3E

            X509v3 Extended Key Usage: 
                TLS Web Client Authentication
            X509v3 Key Usage: 
                Digital Signature
    Signature Algorithm: md5WithRSAEncryption
         4f:42:44:43:a8:19:8c:94:b1:bd:47:fa:25:64:41:39:c0:22:
         54:d2:89:8b:bd:1a:2b:d7:10:80:01:bf:d0:62:92:5c:d5:28:
         f8:0e:64:61:6d:77:b9:3a:a4:8a:38:95:32:8e:ee:ec:1a:22:
         bb:4b:6e:6d:dc:cb:0a:d2:5a:06:cd:11:d3:01:bf:25:c7:73:
         ae:75:b8:d4:19:23:85:40:83:94:57:c4:be:5c:96:9b:3e:6e:
         fb:d7:cf:93:d3:cd:97:93:d3:42:ef:67:c5:fc:24:47:20:a5:
         9d:c2:a2:10:2a:3b:af:9b:74:18:60:ef:23:c2:18:92:e8:43:
         e3:66:1d:81:00:d4:0b:53:34:09:c1:ea:54:fe:30:8b:41:f8:
         be:5a:16:3a:e4:24:0c:95:ea:e9:f3:e8:91:13:ac:3c:29:3c:
         eb:ab:a3:08:03:16:61:be:e2:ac:4d:69:de:79:25:cc:d2:2b:
         b5:d2:74:37:95:ff:94:2d:48:bc:fc:be:be:17:35:53:a4:43:
         b7:84:55:cd:d5:8e:72:92:ad:00:d9:79:45:db:48:03:42:17:
         56:b0:13:dc:a2:09:07:24:b7:40:3f:d4:ba:2a:a1:61:f3:c7:
         db:ee:2a:47:2e:82:9b:af:d5:2a:ba:0f:59:87:83:d5:b6:f2:
         d4:c0:86:d9:39:70:43:c1:18:11:0d:0b:9e:b6:c7:01:6d:8e:
         ad:94:fb:bb:ec:34:6d:ef:65:c7:18:e7:da:b7:49:31:83:a5:
         50:a1:ee:57:e1:00:5b:f0:d9:3b:07:87:0d:ae:a5:48:00:55:
         97:ef:f1:c3:7b:b8:3c:78:04:60:c2:e7:1e:18:fd:ab:9b:54:
         aa:d0:0f:11:d4:e8:03:43:f0:dd:31:0e:96:9e:8d:d8:7d:9a:
         57:92:87:0f:ed:db:f1:d1:a3:cb:83:66:a6:5f:fb:32:d1:7e:
         9f:5d:6b:43:8f:b7:ab:fe:8d:c2:02:81:0e:cf:de:ae:89:50:
         ce:6d:1a:f6:74:ad:0d:6d:52:95:a8:f9:94:16:ae:ab:e4:b0:
         be:90:2a:73:1d:16:81:0d:fd:d0:71:c9:ce:a0:d7:30:0b:2f:
         76:46:97:ce:1b:7f:3a:ea:ac:68:98:fc:e8:fe:18:fe:f5:a7:
         93:ae:39:40:7c:00:05:81:94:cb:c7:19:c1:f3:13:70:70:b2:
         9c:46:89:6e:85:03:53:24:e3:57:74:71:db:a0:64:74:2a:a9:
         6f:26:cf:16:0d:72:cd:46:62:14:8a:11:58:e9:b7:b4:8e:c8:
         1e:b2:46:87:4c:94:90:71:8e:ab:5e:f0:14:43:81:66:8f:85:
         ce:c9:8b:1e:ed:f8:e0:e2
-----BEGIN CERTIFICATE-----
MIIGqjCCBJKgAwIBAgIBQjANBgkqhkiG9w0BAQQFADCBrDELMAkGA1UEBhMCVVMx
CzAJBgNVBAgTAk9IMREwDwYDVQQHEwhDb2x1bWJ1czESMBAGA1UEChMJVmlraW5n
VlBOMR0wGwYDVQQLExRNeU9yZ2FuaXphdGlvbmFsVW5pdDEVMBMGA1UEAxMMVmlr
aW5nVlBOIENBMRAwDgYDVQQpEwdFYXN5UlNBMSEwHwYJKoZIhvcNAQkBFhJtZUBt
eWhvc3QubXlkb21haW4wHhcNMTMwODEzMjIzMTIwWhcNMjMwODExMjIzMTIwWjAd
MRswGQYDVQQDExJDbGllbnQ0N0NlcnQyMzFjNDIwggIiMA0GCSqGSIb3DQEBAQUA
A4ICDwAwggIKAoICAQDY73Kx4wcI9+BaeKiVZ5i4jN1xnJ05gc5VxhYfOwTOxptX
2EeujMfrmruhPy6w+ZJDB8sad+wcLqCJ3AlEB4hThsvgf6zoX8TQsX64AyEUqd9s
Vpy8rFQeiax1hSTfDdYx+F+b3nglyXLnkLvRlgFKMmkRbkrYXwWe3WLJ5XIIc1Dr
OysfIy8FmYM0YFaHk1AsKV7UHCSZg6Sp+Cik3L/t7XlAyuPq0Hdy21v/iMOMVRLG
insTiYWz15oOSyauMo+hjw1B2fkS848/drL+OVpp44mlnrUxjCNBTBcKx19oo0TT
CFeIAau+0iHo4yZdKrF7fDkn30HwzO/Q1THlOILtHxW4Ib9pa5BqnyepekEqOs7S
qxkx1qL/IxUeNAICcqf1b3gRic52wiOHJOe3s/2dS7/THpdAYKrTOikNXGrEEZF/
5DD0EdCuPqn9oFdXQAcT9mkuNiDq9aoZmUZtSRh8H58QoFqUqBXc37uNqBu5REX4
8R8ILMetB7RsmhUbTAkn5VfKSAnLTsy8PZaPCBYSzdkah9lPU+UlaDgXCuwqnmRO
uHYxKnv1FkXXOhWntwYz3yuRJ1xP9LIKmURsed1/bt9e4s4LkCEiwclsr26MHhgv
r3gvzxbp+2cqQQv/baY9Lh1dVAUoLOBxe0sIRnRWDXBKmS3ktDXoN37IKxcERwID
AQABo4IBYzCCAV8wCQYDVR0TBAIwADAtBglghkgBhvhCAQ0EIBYeRWFzeS1SU0Eg
R2VuZXJhdGVkIENlcnRpZmljYXRlMB0GA1UdDgQWBBSz1u9SQBaDrtWpqlXmjfP6
HyESmzCB4QYDVR0jBIHZMIHWgBQSzWAE0qCAnnDtxpm4eyzGUv0ZoaGBsqSBrzCB
rDELMAkGA1UEBhMCVVMxCzAJBgNVBAgTAk9IMREwDwYDVQQHEwhDb2x1bWJ1czES
MBAGA1UEChMJVmlraW5nVlBOMR0wGwYDVQQLExRNeU9yZ2FuaXphdGlvbmFsVW5p
dDEVMBMGA1UEAxMMVmlraW5nVlBOIENBMRAwDgYDVQQpEwdFYXN5UlNBMSEwHwYJ
KoZIhvcNAQkBFhJtZUBteWhvc3QubXlkb21haW6CCQDPNYXugL8qPjATBgNVHSUE
DDAKBggrBgEFBQcDAjALBgNVHQ8EBAMCB4AwDQYJKoZIhvcNAQEEBQADggIBAE9C
REOoGYyUsb1H+iVkQTnAIlTSiYu9GivXEIABv9BiklzVKPgOZGFtd7k6pIo4lTKO
7uwaIrtLbm3cywrSWgbNEdMBvyXHc651uNQZI4VAg5RXxL5clps+bvvXz5PTzZeT
00LvZ8X8JEcgpZ3CohAqO6+bdBhg7yPCGJLoQ+NmHYEA1AtTNAnB6lT+MItB+L5a
FjrkJAyV6unz6JETrDwpPOurowgDFmG+4qxNad55JczSK7XSdDeV/5QtSLz8vr4X
NVOkQ7eEVc3VjnKSrQDZeUXbSANCF1awE9yiCQckt0A/1LoqoWHzx9vuKkcugpuv
1Sq6D1mHg9W28tTAhtk5cEPBGBENC562xwFtjq2U+7vsNG3vZccY59q3STGDpVCh
7lfhAFvw2TsHhw2upUgAVZfv8cN7uDx4BGDC5x4Y/aubVKrQDxHU6AND8N0xDpae
jdh9mleShw/t2/HRo8uDZqZf+zLRfp9da0OPt6v+jcICgQ7P3q6JUM5tGvZ0rQ1t
UpWo+ZQWrqvksL6QKnMdFoEN/dBxyc6g1zALL3ZGl84bfzrqrGiY/Oj+GP71p5Ou
OUB8AAWBlMvHGcHzE3BwspxGiW6FA1Mk41d0cdugZHQqqW8mzxYNcs1GYhSKEVjp
t7SOyB6yRodMlJBxjqte8BRDgWaPhc7Jix7t+ODi
-----END CERTIFICATE-----
