Certificate:
    Data:
        Version: 3 (0x2)
        Serial Number: 6153 (0x1809)
    Signature Algorithm: md5WithRSAEncryption
        Issuer: C=US, ST=OH, L=Columbus, O=VikingVPN, OU=MyOrganizationalUnit, CN=VikingVPN CA/name=EasyRSA/emailAddress=me@myhost.mydomain
        Validity
            Not Before: Aug 27 07:58:19 2015 GMT
            Not After : Aug 24 07:58:19 2025 GMT
        Subject: CN=Client1056Certccb74b
        Subject Public Key Info:
            Public Key Algorithm: rsaEncryption
                Public-Key: (4096 bit)
                Modulus:
                    00:a4:dc:1c:70:a5:5c:77:92:90:3f:55:1c:b7:f7:
                    57:28:41:5f:90:12:22:10:8d:1e:63:a2:e9:ee:b4:
                    3e:4f:af:81:4d:27:43:15:90:47:f6:71:24:54:f7:
                    0c:91:4a:dd:19:b3:3a:31:b2:5c:c8:6f:10:ab:0c:
                    16:f5:20:f4:9c:25:4a:fa:60:0f:88:13:e8:73:ca:
                    e5:f8:fb:31:9b:1b:55:c7:64:d7:f4:04:9c:48:c0:
                    2f:b7:72:f9:46:f8:67:86:22:ca:c9:13:a8:8d:75:
                    fe:d5:8f:1f:f6:78:06:0e:39:df:09:ea:ea:ed:64:
                    6c:e9:a0:a0:53:f3:4c:93:fb:2b:1b:f0:f4:66:b1:
                    f2:5b:1f:aa:5d:c6:19:dc:28:6f:fa:b5:6b:ae:8f:
                    fe:be:41:1a:64:67:b0:a9:c6:ad:13:17:fa:f9:2b:
                    b4:31:9f:00:20:46:10:73:cd:83:dc:c8:4a:26:6d:
                    f2:98:00:b1:d2:65:0d:94:e5:8d:f5:10:47:6a:f2:
                    50:ec:70:8b:dd:9d:ce:c7:65:5c:d2:c1:54:53:37:
                    82:9b:56:cc:48:b5:32:be:03:33:a8:b5:96:2a:71:
                    31:c9:6a:7f:b2:1e:65:30:d7:9a:e0:c4:cc:1a:c7:
                    81:d5:a4:11:ce:ae:07:f8:85:3c:7f:3d:d1:04:9c:
                    1a:47:25:a9:13:0b:97:b5:23:8c:2f:71:64:93:5a:
                    a3:17:a0:a2:a4:53:f7:50:a7:b4:9b:40:ef:46:39:
                    84:06:68:42:63:41:87:3e:5d:c3:23:1c:44:3a:e9:
                    02:e3:52:2c:78:37:34:b4:2a:a3:74:f1:3b:15:70:
                    52:22:31:12:8b:1d:00:fc:1a:3c:23:29:ba:cf:9d:
                    31:74:d3:fd:cf:99:f5:24:7f:15:b9:3c:e3:47:71:
                    80:8e:00:2a:55:43:7d:a0:1d:66:60:2d:3d:53:91:
                    6e:73:ee:82:bd:3b:a8:11:19:81:b3:99:ee:5a:d2:
                    42:1d:3c:10:15:2f:97:64:03:63:e3:92:92:27:29:
                    ad:ce:d0:f7:8b:18:60:ad:b4:f5:22:d9:02:19:dd:
                    f6:8f:1e:f3:aa:39:62:45:6c:47:7d:0b:5b:9b:75:
                    63:22:a6:4e:92:5a:62:1e:be:ef:8f:71:a2:83:74:
                    02:14:09:60:25:a8:37:40:d7:cb:41:ed:74:c7:d1:
                    70:e3:ac:5c:55:29:a0:0e:73:59:90:8c:32:c8:d2:
                    0e:ea:0a:f9:50:36:5b:22:4a:06:fc:29:be:fe:7d:
                    44:be:24:2e:bd:ff:5d:35:f2:de:33:1e:c8:0f:b8:
                    16:84:29:5a:59:1e:6a:2a:bf:e7:93:8b:1c:33:8d:
                    30:5e:19
                Exponent: 65537 (0x10001)
        X509v3 extensions:
            X509v3 Basic Constraints: 
                CA:FALSE
            Netscape Comment: 
                Easy-RSA Generated Certificate
            X509v3 Subject Key Identifier: 
                43:34:44:03:54:D3:D6:D8:73:43:01:E9:1E:F2:25:38:CD:86:B6:79
            X509v3 Authority Key Identifier: 
                keyid:12:CD:60:04:D2:A0:80:9E:70:ED:C6:99:B8:7B:2C:C6:52:FD:19:A1
                DirName:/C=US/ST=OH/L=Columbus/O=VikingVPN/OU=MyOrganizationalUnit/CN=VikingVPN CA/name=EasyRSA/emailAddress=me@myhost.mydomain
                serial:CF:35:85:EE:80:BF:2A:3E

            X509v3 Extended Key Usage: 
                TLS Web Client Authentication
            X509v3 Key Usage: 
                Digital Signature
    Signature Algorithm: md5WithRSAEncryption
         0d:95:56:ca:04:34:4b:cf:e9:74:da:dd:52:c0:1f:5b:a9:f7:
         93:cc:ab:ab:75:76:40:99:a3:fd:a2:24:85:47:85:1a:3c:e9:
         bc:e2:af:57:42:a1:72:df:3d:c0:6e:1c:73:5b:bd:97:49:28:
         43:9e:14:04:45:31:1d:c8:a1:c8:1b:1b:95:2a:94:2c:44:c2:
         6f:59:a6:7c:09:f3:50:57:b4:ad:7b:17:45:47:c8:65:82:40:
         13:a1:73:44:39:01:64:7a:e7:ab:7b:75:87:de:4f:ee:8d:d0:
         0c:48:6c:2e:ff:d6:c0:9a:0e:07:1b:82:4c:26:77:57:19:7c:
         59:16:0c:87:44:62:d9:6a:c7:64:60:2a:a2:31:df:bc:18:69:
         5d:d2:64:3c:19:1d:b6:69:cf:44:ad:71:49:34:51:b9:a4:83:
         77:f1:74:26:c1:05:35:cf:ff:91:eb:e8:fc:ff:0c:ba:d9:5d:
         a3:35:39:e7:99:78:48:9e:93:53:9f:94:3a:61:86:72:6d:21:
         b0:7a:e4:37:42:a7:a4:a7:41:1b:9d:ea:cb:7e:aa:5f:82:03:
         f5:d9:00:a6:3d:4e:65:a5:ec:b8:e3:df:db:7e:05:f3:fc:5a:
         ff:8f:8b:ac:64:aa:67:33:b6:d7:2e:6f:18:55:2e:68:ff:37:
         6b:a6:b5:9a:d3:4d:b1:cb:b9:19:3f:6e:1c:db:6b:e2:ad:e8:
         28:4b:7b:e4:a3:57:8d:56:10:da:15:20:41:d4:14:16:03:d0:
         1a:12:b2:f6:73:8a:89:94:67:12:09:4d:8c:f2:51:a1:16:a0:
         b9:6c:2c:35:d3:2a:cb:4c:64:72:7b:00:4d:c6:eb:9a:6f:07:
         f3:1d:18:f4:32:44:de:f4:38:2b:1e:a6:5e:f6:27:f7:31:74:
         97:3e:9f:e0:61:7f:40:0c:df:76:38:68:1d:54:fe:83:fc:e9:
         46:15:6b:08:5a:81:56:14:86:76:58:50:3e:fb:8c:ad:5b:6e:
         ba:c9:ba:a4:72:a5:e8:5c:79:08:db:85:6e:d1:f4:68:3e:30:
         19:b6:11:f9:7f:8c:e6:87:2d:d9:da:c1:8d:96:18:61:e1:d9:
         c0:62:fe:c2:98:b4:41:6c:fd:11:ab:17:ff:a4:ce:66:dc:78:
         4e:2a:5b:2d:fd:1a:ed:ba:83:b3:82:56:93:97:16:c9:62:04:
         9b:48:de:64:1f:27:ef:3c:44:93:ea:8a:a4:3c:4e:64:a7:d9:
         2e:f3:67:c0:ca:e1:20:c8:7c:5e:2d:32:c1:88:e2:cb:6c:93:
         1f:cd:05:fa:19:e5:6b:c1:6f:ef:c0:d7:29:99:2c:d9:23:f7:
         14:6a:c6:a5:6c:f4:a0:8e
-----BEGIN CERTIFICATE-----
MIIGrTCCBJWgAwIBAgICGAkwDQYJKoZIhvcNAQEEBQAwgawxCzAJBgNVBAYTAlVT
MQswCQYDVQQIEwJPSDERMA8GA1UEBxMIQ29sdW1idXMxEjAQBgNVBAoTCVZpa2lu
Z1ZQTjEdMBsGA1UECxMUTXlPcmdhbml6YXRpb25hbFVuaXQxFTATBgNVBAMTDFZp
a2luZ1ZQTiBDQTEQMA4GA1UEKRMHRWFzeVJTQTEhMB8GCSqGSIb3DQEJARYSbWVA
bXlob3N0Lm15ZG9tYWluMB4XDTE1MDgyNzA3NTgxOVoXDTI1MDgyNDA3NTgxOVow
HzEdMBsGA1UEAxMUQ2xpZW50MTA1NkNlcnRjY2I3NGIwggIiMA0GCSqGSIb3DQEB
AQUAA4ICDwAwggIKAoICAQCk3BxwpVx3kpA/VRy391coQV+QEiIQjR5jounutD5P
r4FNJ0MVkEf2cSRU9wyRSt0ZszoxslzIbxCrDBb1IPScJUr6YA+IE+hzyuX4+zGb
G1XHZNf0BJxIwC+3cvlG+GeGIsrJE6iNdf7Vjx/2eAYOOd8J6urtZGzpoKBT80yT
+ysb8PRmsfJbH6pdxhncKG/6tWuuj/6+QRpkZ7Cpxq0TF/r5K7QxnwAgRhBzzYPc
yEombfKYALHSZQ2U5Y31EEdq8lDscIvdnc7HZVzSwVRTN4KbVsxItTK+AzOotZYq
cTHJan+yHmUw15rgxMwax4HVpBHOrgf4hTx/PdEEnBpHJakTC5e1I4wvcWSTWqMX
oKKkU/dQp7SbQO9GOYQGaEJjQYc+XcMjHEQ66QLjUix4NzS0KqN08TsVcFIiMRKL
HQD8GjwjKbrPnTF00/3PmfUkfxW5PONHcYCOACpVQ32gHWZgLT1TkW5z7oK9O6gR
GYGzme5a0kIdPBAVL5dkA2PjkpInKa3O0PeLGGCttPUi2QIZ3faPHvOqOWJFbEd9
C1ubdWMipk6SWmIevu+PcaKDdAIUCWAlqDdA18tB7XTH0XDjrFxVKaAOc1mQjDLI
0g7qCvlQNlsiSgb8Kb7+fUS+JC69/1018t4zHsgPuBaEKVpZHmoqv+eTixwzjTBe
GQIDAQABo4IBYzCCAV8wCQYDVR0TBAIwADAtBglghkgBhvhCAQ0EIBYeRWFzeS1S
U0EgR2VuZXJhdGVkIENlcnRpZmljYXRlMB0GA1UdDgQWBBRDNEQDVNPW2HNDAeke
8iU4zYa2eTCB4QYDVR0jBIHZMIHWgBQSzWAE0qCAnnDtxpm4eyzGUv0ZoaGBsqSB
rzCBrDELMAkGA1UEBhMCVVMxCzAJBgNVBAgTAk9IMREwDwYDVQQHEwhDb2x1bWJ1
czESMBAGA1UEChMJVmlraW5nVlBOMR0wGwYDVQQLExRNeU9yZ2FuaXphdGlvbmFs
VW5pdDEVMBMGA1UEAxMMVmlraW5nVlBOIENBMRAwDgYDVQQpEwdFYXN5UlNBMSEw
HwYJKoZIhvcNAQkBFhJtZUBteWhvc3QubXlkb21haW6CCQDPNYXugL8qPjATBgNV
HSUEDDAKBggrBgEFBQcDAjALBgNVHQ8EBAMCB4AwDQYJKoZIhvcNAQEEBQADggIB
AA2VVsoENEvP6XTa3VLAH1up95PMq6t1dkCZo/2iJIVHhRo86bzir1dCoXLfPcBu
HHNbvZdJKEOeFARFMR3IocgbG5UqlCxEwm9ZpnwJ81BXtK17F0VHyGWCQBOhc0Q5
AWR656t7dYfeT+6N0AxIbC7/1sCaDgcbgkwmd1cZfFkWDIdEYtlqx2RgKqIx37wY
aV3SZDwZHbZpz0StcUk0Ubmkg3fxdCbBBTXP/5Hr6Pz/DLrZXaM1OeeZeEiek1Of
lDphhnJtIbB65DdCp6SnQRud6st+ql+CA/XZAKY9TmWl7Ljj39t+BfP8Wv+Pi6xk
qmczttcubxhVLmj/N2umtZrTTbHLuRk/bhzba+Kt6ChLe+SjV41WENoVIEHUFBYD
0BoSsvZziomUZxIJTYzyUaEWoLlsLDXTKstMZHJ7AE3G65pvB/MdGPQyRN70OCse
pl72J/cxdJc+n+Bhf0AM33Y4aB1U/oP86UYVawhagVYUhnZYUD77jK1bbrrJuqRy
pehceQjbhW7R9Gg+MBm2Efl/jOaHLdnawY2WGGHh2cBi/sKYtEFs/RGrF/+kzmbc
eE4qWy39Gu26g7OCVpOXFsliBJtI3mQfJ+88RJPqiqQ8TmSn2S7zZ8DK4SDIfF4t
MsGI4stskx/NBfoZ5WvBb+/A1ymZLNkj9xRqxqVs9KCO
-----END CERTIFICATE-----
