Certificate:
    Data:
        Version: 3 (0x2)
        Serial Number: 8882 (0x22b2)
    Signature Algorithm: sha256WithRSAEncryption
        Issuer: C=US, ST=OH, L=Columbus, O=VikingVPN, OU=MyOrganizationalUnit, CN=VikingVPN CA/name=EasyRSA/emailAddress=me@myhost.mydomain
        Validity
            Not Before: Aug 23 03:41:56 2016 GMT
            Not After : Aug 21 03:41:56 2026 GMT
        Subject: CN=Client2484Certaad9ea
        Subject Public Key Info:
            Public Key Algorithm: rsaEncryption
                Public-Key: (4096 bit)
                Modulus:
                    00:ba:0c:8e:b8:a9:63:8d:0f:3e:32:02:e2:45:92:
                    5d:00:df:64:d3:ee:cd:aa:89:68:70:8d:2d:00:ba:
                    92:76:d1:a1:c8:ed:a6:d0:3c:2c:75:4d:66:e7:eb:
                    6a:67:83:25:9e:42:dc:82:ad:4c:2b:08:24:44:cd:
                    3b:16:90:11:93:f1:f0:88:75:f3:15:4d:38:0b:3f:
                    c7:c0:98:f8:52:8e:1a:84:bd:89:91:dc:a9:35:ad:
                    54:6f:3a:b5:00:a0:3a:fb:28:61:00:41:d8:2b:3c:
                    b0:9a:a9:2b:f9:eb:87:62:60:33:8a:1f:9c:83:e3:
                    f9:39:20:09:34:7a:44:0a:00:fa:d0:f3:0d:fe:1b:
                    f3:e1:6b:79:ac:0e:0a:04:4e:f1:db:52:f7:07:18:
                    4d:9b:10:68:f1:d7:c7:c0:11:c0:5d:aa:f3:8c:3d:
                    d9:19:e1:a6:aa:46:ae:5c:20:18:96:80:df:77:72:
                    c2:4d:5b:a8:c3:58:8b:3c:12:07:a8:36:2b:8f:64:
                    cf:cd:5c:99:94:18:14:b4:14:10:0f:54:a1:3a:4d:
                    8a:c5:4c:6b:62:5a:eb:3b:48:36:0b:8b:8b:42:58:
                    92:d2:4f:e2:be:79:bb:c9:e3:aa:8d:f3:42:de:b3:
                    f2:5c:cf:28:0a:a5:0f:35:6a:32:9e:d3:4c:00:2f:
                    72:b4:38:88:83:d8:22:49:cd:4d:75:6a:24:68:03:
                    5e:c0:e5:12:7e:c9:72:96:90:e9:62:06:e4:cb:87:
                    72:40:20:e6:33:ab:c4:db:1f:6e:11:9d:5c:bf:73:
                    09:51:2d:5a:97:95:8c:e0:ca:b9:78:7e:71:72:04:
                    31:22:f1:19:b1:f1:01:78:2d:b2:ed:f7:4f:5b:6e:
                    78:72:ae:5e:3c:2d:35:b4:db:30:8a:64:5d:d7:04:
                    8e:a6:7d:56:d4:73:62:be:a5:aa:69:14:21:23:f9:
                    04:08:8b:f5:ad:6a:5e:59:69:23:94:21:af:60:7f:
                    d3:48:5c:70:c3:e2:76:c1:95:58:1a:b0:26:a0:1a:
                    ad:6a:fb:0b:0f:16:05:44:62:8e:76:a0:c8:d0:35:
                    92:64:eb:8c:b5:e6:d7:e4:a0:b6:90:e0:95:b4:ff:
                    35:43:fd:c4:97:4b:c7:a6:d2:0a:74:3d:4a:07:9e:
                    fb:23:20:61:f4:32:8c:6f:1f:b2:9e:01:f7:06:06:
                    9a:8f:16:58:04:37:17:35:d7:79:20:17:43:eb:c4:
                    3e:d5:4d:a2:05:9b:9d:9f:5d:d4:15:07:e7:06:ff:
                    32:9a:b6:a9:1e:2b:a7:10:16:cc:05:e4:17:61:f2:
                    81:f3:ae:4a:36:bb:03:44:39:ee:5f:10:fc:13:33:
                    e7:c4:59
                Exponent: 65537 (0x10001)
        X509v3 extensions:
            X509v3 Basic Constraints: 
                CA:FALSE
            Netscape Comment: 
                Easy-RSA Generated Certificate
            X509v3 Subject Key Identifier: 
                EB:60:4B:1B:A9:A5:CE:D3:D9:9C:61:51:26:5F:F9:72:85:B0:68:AD
            X509v3 Authority Key Identifier: 
                keyid:12:CD:60:04:D2:A0:80:9E:70:ED:C6:99:B8:7B:2C:C6:52:FD:19:A1
                DirName:/C=US/ST=OH/L=Columbus/O=VikingVPN/OU=MyOrganizationalUnit/CN=VikingVPN CA/name=EasyRSA/emailAddress=me@myhost.mydomain
                serial:CF:35:85:EE:80:BF:2A:3E

            X509v3 Extended Key Usage: 
                TLS Web Client Authentication
            X509v3 Key Usage: 
                Digital Signature
    Signature Algorithm: sha256WithRSAEncryption
         58:c6:f9:11:37:57:0f:c0:1d:0a:5e:b6:b7:aa:13:13:08:57:
         62:0a:a1:e9:fb:ab:57:6f:9b:f1:e7:74:28:4e:e1:c4:e5:16:
         ee:6e:ad:72:98:f1:5c:27:08:e4:38:52:37:38:46:d5:47:26:
         09:24:a5:09:76:88:2b:79:6d:61:62:d9:a2:4d:ec:59:a6:aa:
         49:ba:8e:1f:01:b8:61:a7:63:0a:b3:49:69:ec:72:30:3d:2b:
         25:63:51:11:21:87:80:09:51:43:d1:6b:1e:18:32:0c:59:af:
         18:e5:b5:40:c1:5a:63:95:35:4d:fd:a9:11:59:78:32:64:71:
         82:be:e6:8f:f3:3a:59:34:f5:78:03:a3:56:a8:85:49:5b:20:
         46:58:f6:fc:dc:58:13:85:a1:7e:45:e3:01:9c:6e:9b:49:f1:
         7b:b7:d4:0e:48:af:13:03:0f:9c:c4:23:6a:96:6d:e0:ac:67:
         f4:88:be:ab:94:13:22:60:3e:5f:b8:00:d1:9a:45:00:e0:69:
         83:41:ea:aa:e4:49:9b:41:76:bd:f2:4f:d1:c3:1d:28:8a:a6:
         eb:96:1a:d4:b8:03:8e:35:c7:04:e0:05:8a:1a:70:8a:a5:83:
         26:4f:31:74:1c:6d:93:df:e7:ce:02:83:82:1c:d5:89:bb:3d:
         7d:23:f0:74:94:82:63:9a:5a:16:f4:90:23:62:21:b9:8a:3e:
         96:e9:36:2f:a6:16:eb:86:94:c1:04:97:9a:4b:c9:ef:9e:f3:
         ac:b7:4e:0e:45:e6:8d:2f:56:04:a0:d6:1f:0d:a5:d0:39:23:
         75:f4:f1:05:f7:fb:b9:45:01:ad:1c:b0:e3:03:cf:10:21:c3:
         7b:cd:09:b0:85:49:ab:77:fa:06:d5:ae:e4:9f:7d:3a:36:4d:
         4a:fc:ad:07:0e:2a:5a:b8:b9:20:79:c6:bf:46:de:d0:a8:4f:
         f0:2c:fd:6a:e9:f9:a1:47:b8:c1:b1:10:a3:43:12:7a:ea:02:
         40:5b:03:cf:6e:66:11:74:95:27:f5:ba:10:33:f1:8c:aa:59:
         e7:01:36:8b:76:f2:87:40:ad:6f:a1:b2:57:27:88:f2:58:e1:
         83:e2:43:66:a0:51:8e:a6:1e:2d:f5:c9:13:ae:64:95:b6:5a:
         18:ae:f9:d8:42:e5:67:86:91:2f:1a:08:6f:94:e3:a7:5b:be:
         a1:f1:07:a4:32:2d:15:71:3a:96:99:2f:81:c0:eb:16:8a:ff:
         3f:16:43:ad:d3:62:78:5a:21:02:6f:ed:fc:a5:7a:3c:da:86:
         98:2f:c9:aa:6d:b9:f5:be:67:af:91:b4:84:81:a4:35:c7:08:
         99:19:ad:8d:cf:f2:65:d2
-----BEGIN CERTIFICATE-----
MIIGrTCCBJWgAwIBAgICIrIwDQYJKoZIhvcNAQELBQAwgawxCzAJBgNVBAYTAlVT
MQswCQYDVQQIEwJPSDERMA8GA1UEBxMIQ29sdW1idXMxEjAQBgNVBAoTCVZpa2lu
Z1ZQTjEdMBsGA1UECxMUTXlPcmdhbml6YXRpb25hbFVuaXQxFTATBgNVBAMTDFZp
a2luZ1ZQTiBDQTEQMA4GA1UEKRMHRWFzeVJTQTEhMB8GCSqGSIb3DQEJARYSbWVA
bXlob3N0Lm15ZG9tYWluMB4XDTE2MDgyMzAzNDE1NloXDTI2MDgyMTAzNDE1Nlow
HzEdMBsGA1UEAxMUQ2xpZW50MjQ4NENlcnRhYWQ5ZWEwggIiMA0GCSqGSIb3DQEB
AQUAA4ICDwAwggIKAoICAQC6DI64qWONDz4yAuJFkl0A32TT7s2qiWhwjS0AupJ2
0aHI7abQPCx1TWbn62pngyWeQtyCrUwrCCREzTsWkBGT8fCIdfMVTTgLP8fAmPhS
jhqEvYmR3Kk1rVRvOrUAoDr7KGEAQdgrPLCaqSv564diYDOKH5yD4/k5IAk0ekQK
APrQ8w3+G/Pha3msDgoETvHbUvcHGE2bEGjx18fAEcBdqvOMPdkZ4aaqRq5cIBiW
gN93csJNW6jDWIs8EgeoNiuPZM/NXJmUGBS0FBAPVKE6TYrFTGtiWus7SDYLi4tC
WJLST+K+ebvJ46qN80Les/JczygKpQ81ajKe00wAL3K0OIiD2CJJzU11aiRoA17A
5RJ+yXKWkOliBuTLh3JAIOYzq8TbH24RnVy/cwlRLVqXlYzgyrl4fnFyBDEi8Rmx
8QF4LbLt909bbnhyrl48LTW02zCKZF3XBI6mfVbUc2K+pappFCEj+QQIi/Wtal5Z
aSOUIa9gf9NIXHDD4nbBlVgasCagGq1q+wsPFgVEYo52oMjQNZJk64y15tfkoLaQ
4JW0/zVD/cSXS8em0gp0PUoHnvsjIGH0MoxvH7KeAfcGBpqPFlgENxc113kgF0Pr
xD7VTaIFm52fXdQVB+cG/zKatqkeK6cQFswF5Bdh8oHzrko2uwNEOe5fEPwTM+fE
WQIDAQABo4IBYzCCAV8wCQYDVR0TBAIwADAtBglghkgBhvhCAQ0EIBYeRWFzeS1S
U0EgR2VuZXJhdGVkIENlcnRpZmljYXRlMB0GA1UdDgQWBBTrYEsbqaXO09mcYVEm
X/lyhbBorTCB4QYDVR0jBIHZMIHWgBQSzWAE0qCAnnDtxpm4eyzGUv0ZoaGBsqSB
rzCBrDELMAkGA1UEBhMCVVMxCzAJBgNVBAgTAk9IMREwDwYDVQQHEwhDb2x1bWJ1
czESMBAGA1UEChMJVmlraW5nVlBOMR0wGwYDVQQLExRNeU9yZ2FuaXphdGlvbmFs
VW5pdDEVMBMGA1UEAxMMVmlraW5nVlBOIENBMRAwDgYDVQQpEwdFYXN5UlNBMSEw
HwYJKoZIhvcNAQkBFhJtZUBteWhvc3QubXlkb21haW6CCQDPNYXugL8qPjATBgNV
HSUEDDAKBggrBgEFBQcDAjALBgNVHQ8EBAMCB4AwDQYJKoZIhvcNAQELBQADggIB
AFjG+RE3Vw/AHQpetreqExMIV2IKoen7q1dvm/HndChO4cTlFu5urXKY8VwnCOQ4
Ujc4RtVHJgkkpQl2iCt5bWFi2aJN7Fmmqkm6jh8BuGGnYwqzSWnscjA9KyVjUREh
h4AJUUPRax4YMgxZrxjltUDBWmOVNU39qRFZeDJkcYK+5o/zOlk09XgDo1aohUlb
IEZY9vzcWBOFoX5F4wGcbptJ8Xu31A5IrxMDD5zEI2qWbeCsZ/SIvquUEyJgPl+4
ANGaRQDgaYNB6qrkSZtBdr3yT9HDHSiKpuuWGtS4A441xwTgBYoacIqlgyZPMXQc
bZPf584Cg4Ic1Ym7PX0j8HSUgmOaWhb0kCNiIbmKPpbpNi+mFuuGlMEEl5pLye+e
86y3Tg5F5o0vVgSg1h8NpdA5I3X08QX3+7lFAa0csOMDzxAhw3vNCbCFSat3+gbV
ruSffTo2TUr8rQcOKlq4uSB5xr9G3tCoT/As/Wrp+aFHuMGxEKNDEnrqAkBbA89u
ZhF0lSf1uhAz8YyqWecBNot28odArW+hslcniPJY4YPiQ2agUY6mHi31yROuZJW2
Whiu+dhC5WeGkS8aCG+U46dbvqHxB6QyLRVxOpaZL4HA6xaK/z8WQ63TYnhaIQJv
7fylejzahpgvyaptufW+Z6+RtISBpDXHCJkZrY3P8mXS
-----END CERTIFICATE-----
