Certificate:
    Data:
        Version: 3 (0x2)
        Serial Number: 6308 (0x18a4)
    Signature Algorithm: md5WithRSAEncryption
        Issuer: C=US, ST=OH, L=Columbus, O=VikingVPN, OU=MyOrganizationalUnit, CN=VikingVPN CA/name=EasyRSA/emailAddress=me@myhost.mydomain
        Validity
            Not Before: Sep 20 01:51:51 2015 GMT
            Not After : Sep 17 01:51:51 2025 GMT
        Subject: CN=Client1364Cert85f4c1
        Subject Public Key Info:
            Public Key Algorithm: rsaEncryption
                Public-Key: (4096 bit)
                Modulus:
                    00:cc:9d:5b:43:31:98:78:83:ae:e1:db:d2:4d:ac:
                    31:e4:35:a5:f1:30:87:a1:e5:74:1b:3b:6a:c0:d0:
                    bf:21:80:ed:d5:46:07:f3:91:aa:9c:f5:57:b9:7f:
                    ed:ff:dd:38:ed:75:06:54:db:c9:58:43:ee:b5:76:
                    47:17:c3:e1:a1:88:bf:82:be:a0:6c:a4:ac:7a:c2:
                    39:88:1b:8d:a2:fd:22:2d:c2:f5:10:ba:bb:ab:fe:
                    0f:ea:73:be:ff:23:9d:04:89:d5:55:8b:74:64:fd:
                    92:9e:77:be:f4:42:af:09:76:fc:31:dd:dd:c2:4b:
                    81:c8:c8:7a:2a:bc:5e:93:1a:98:64:cb:e3:a3:18:
                    13:76:bf:7f:59:5b:43:09:69:97:59:47:44:6b:ae:
                    47:a9:50:e2:d0:56:03:0a:16:87:3e:38:00:3a:47:
                    de:eb:5c:96:51:9a:ac:06:73:a6:c7:35:b1:dd:71:
                    d3:b6:fe:2e:f3:d5:8c:1c:05:30:62:77:67:77:c2:
                    5b:86:21:f1:a0:b0:aa:49:30:be:3f:e6:6b:e0:b9:
                    e5:7a:a3:45:87:7b:58:b0:82:9d:70:dd:fe:fb:5f:
                    4c:36:34:95:c9:f8:d7:1a:c7:fa:1e:a2:19:80:bf:
                    8a:25:35:d4:f9:7a:91:1a:d6:f9:45:1a:d9:07:0a:
                    c3:d8:12:da:e9:d8:32:90:8e:1a:ea:41:ca:35:b1:
                    98:a4:61:43:9d:11:b2:81:5f:e9:7e:0b:b8:73:52:
                    52:b1:47:09:23:a9:31:a5:cd:99:45:5f:8d:24:4d:
                    73:76:7f:b0:9d:83:7b:df:50:d2:12:25:25:3d:4a:
                    4c:85:72:21:19:5e:db:c5:5b:44:66:31:0d:a9:97:
                    ee:2d:69:d6:d2:9d:3a:ba:86:60:11:6b:42:f0:13:
                    c1:83:57:8b:21:2f:02:49:25:9b:06:2b:b4:fa:52:
                    41:3b:db:15:b7:27:e9:40:f5:31:bd:96:18:42:ae:
                    ee:9f:2d:37:a4:e1:53:12:32:f9:47:51:27:48:27:
                    29:84:8d:a3:54:3e:f8:a6:41:e9:7a:46:9a:9b:da:
                    a7:3b:ab:eb:7c:67:3b:5d:aa:b1:ca:9c:18:25:2d:
                    b4:b3:44:4f:e7:8f:bc:b5:5f:d3:84:24:f6:a4:f2:
                    89:90:90:f0:73:c8:4b:b5:dd:e0:6d:10:4a:a6:a4:
                    5d:de:64:6b:83:54:0f:5b:6d:16:0e:6b:07:aa:49:
                    0b:c8:5b:cd:42:4c:a9:43:4e:8b:36:b1:c4:b8:62:
                    b7:1d:4a:05:81:cf:b3:c1:0b:59:25:dd:7c:1d:f9:
                    cd:34:b9:98:38:2b:4e:c6:42:9d:16:af:79:1a:3e:
                    8e:f0:dd
                Exponent: 65537 (0x10001)
        X509v3 extensions:
            X509v3 Basic Constraints: 
                CA:FALSE
            Netscape Comment: 
                Easy-RSA Generated Certificate
            X509v3 Subject Key Identifier: 
                CD:61:11:A8:C2:1F:55:FB:A9:43:DD:C0:3F:A3:44:B4:DB:9F:BD:CB
            X509v3 Authority Key Identifier: 
                keyid:12:CD:60:04:D2:A0:80:9E:70:ED:C6:99:B8:7B:2C:C6:52:FD:19:A1
                DirName:/C=US/ST=OH/L=Columbus/O=VikingVPN/OU=MyOrganizationalUnit/CN=VikingVPN CA/name=EasyRSA/emailAddress=me@myhost.mydomain
                serial:CF:35:85:EE:80:BF:2A:3E

            X509v3 Extended Key Usage: 
                TLS Web Client Authentication
            X509v3 Key Usage: 
                Digital Signature
    Signature Algorithm: md5WithRSAEncryption
         b9:70:90:66:88:68:55:36:96:d6:94:19:9a:b2:2e:14:20:62:
         60:ad:d2:93:8b:ec:af:6f:ef:57:a2:9c:c8:11:eb:5c:3b:86:
         85:42:dc:75:90:3f:4e:1d:3e:50:2a:52:6e:9b:96:23:38:c2:
         fc:16:58:1f:a6:65:75:6e:aa:03:06:cf:93:56:34:49:2c:7a:
         04:5d:ef:67:17:7b:4e:52:29:53:19:ec:f9:2b:a6:97:97:0e:
         fa:52:22:bb:d9:0b:b8:81:25:e0:eb:1c:07:9a:07:b5:9b:8b:
         22:21:03:89:3c:b2:3d:4f:61:f1:07:c5:24:70:c9:e4:ef:6a:
         70:44:33:6d:9b:38:7c:48:1d:dd:d1:b0:51:b0:f7:ec:62:f9:
         35:41:84:15:9d:79:9b:0a:c0:5e:d7:9c:4f:7d:6b:dc:98:c2:
         82:14:dd:cb:16:88:38:7b:62:e9:32:72:2c:b9:35:6e:8e:58:
         55:52:6b:a0:06:b1:43:00:be:03:47:8e:c6:3e:22:8d:b1:56:
         14:a4:99:43:9f:99:7d:9c:6e:48:05:64:af:7b:22:15:7d:eb:
         3b:0b:9b:c4:5c:7e:ed:c8:d0:39:34:0d:73:3e:e8:d4:d0:5f:
         9d:da:93:4e:95:79:45:7c:0b:46:33:5c:7a:4a:87:1d:57:8e:
         f6:02:76:61:25:16:d5:2c:e2:13:a8:4e:57:25:92:97:f8:eb:
         6e:e1:09:72:f5:23:51:75:a1:65:08:ee:93:74:33:d3:e4:5d:
         69:01:74:28:96:a9:b8:a0:28:3e:53:27:48:26:53:91:eb:87:
         e2:b8:fd:a4:dd:86:4e:cf:b6:58:93:48:61:46:97:62:bd:6e:
         f2:a4:bb:a3:51:5f:74:3e:e0:35:b3:6f:6a:c0:c4:d7:40:1e:
         eb:04:0a:c1:25:cc:c1:eb:16:da:46:4d:34:92:e8:2f:f7:eb:
         b7:c6:58:e2:b7:1b:0d:f1:03:2f:14:c1:6e:d2:15:03:f3:08:
         4e:e0:3e:e5:e0:0d:4a:a0:d2:c4:2d:3a:93:7c:6f:36:70:e6:
         86:0c:e3:e4:7e:a2:82:3d:05:25:f4:6e:de:ec:bb:ca:07:8b:
         23:2b:65:08:23:ff:86:e8:c7:7e:b4:71:fb:10:90:a0:4d:5a:
         9f:00:99:b9:aa:7e:a4:b3:b9:72:9c:38:56:09:bd:2e:83:28:
         13:00:34:d0:07:9c:75:4e:aa:c5:26:a2:3d:4f:15:c3:33:e6:
         b2:b0:14:94:01:39:24:a8:9a:8f:a8:13:b2:6c:03:d0:ac:8f:
         ff:5b:87:89:92:d0:be:2c:1d:76:be:64:54:82:91:24:36:b1:
         09:47:04:06:51:3e:f8:14
-----BEGIN CERTIFICATE-----
MIIGrTCCBJWgAwIBAgICGKQwDQYJKoZIhvcNAQEEBQAwgawxCzAJBgNVBAYTAlVT
MQswCQYDVQQIEwJPSDERMA8GA1UEBxMIQ29sdW1idXMxEjAQBgNVBAoTCVZpa2lu
Z1ZQTjEdMBsGA1UECxMUTXlPcmdhbml6YXRpb25hbFVuaXQxFTATBgNVBAMTDFZp
a2luZ1ZQTiBDQTEQMA4GA1UEKRMHRWFzeVJTQTEhMB8GCSqGSIb3DQEJARYSbWVA
bXlob3N0Lm15ZG9tYWluMB4XDTE1MDkyMDAxNTE1MVoXDTI1MDkxNzAxNTE1MVow
HzEdMBsGA1UEAxMUQ2xpZW50MTM2NENlcnQ4NWY0YzEwggIiMA0GCSqGSIb3DQEB
AQUAA4ICDwAwggIKAoICAQDMnVtDMZh4g67h29JNrDHkNaXxMIeh5XQbO2rA0L8h
gO3VRgfzkaqc9Ve5f+3/3TjtdQZU28lYQ+61dkcXw+GhiL+CvqBspKx6wjmIG42i
/SItwvUQurur/g/qc77/I50EidVVi3Rk/ZKed770Qq8Jdvwx3d3CS4HIyHoqvF6T
Gphky+OjGBN2v39ZW0MJaZdZR0RrrkepUOLQVgMKFoc+OAA6R97rXJZRmqwGc6bH
NbHdcdO2/i7z1YwcBTBid2d3wluGIfGgsKpJML4/5mvgueV6o0WHe1iwgp1w3f77
X0w2NJXJ+Ncax/oeohmAv4olNdT5epEa1vlFGtkHCsPYEtrp2DKQjhrqQco1sZik
YUOdEbKBX+l+C7hzUlKxRwkjqTGlzZlFX40kTXN2f7Cdg3vfUNISJSU9SkyFciEZ
XtvFW0RmMQ2pl+4tadbSnTq6hmARa0LwE8GDV4shLwJJJZsGK7T6UkE72xW3J+lA
9TG9lhhCru6fLTek4VMSMvlHUSdIJymEjaNUPvimQel6Rpqb2qc7q+t8ZztdqrHK
nBglLbSzRE/nj7y1X9OEJPak8omQkPBzyEu13eBtEEqmpF3eZGuDVA9bbRYOaweq
SQvIW81CTKlDTos2scS4YrcdSgWBz7PBC1kl3Xwd+c00uZg4K07GQp0Wr3kaPo7w
3QIDAQABo4IBYzCCAV8wCQYDVR0TBAIwADAtBglghkgBhvhCAQ0EIBYeRWFzeS1S
U0EgR2VuZXJhdGVkIENlcnRpZmljYXRlMB0GA1UdDgQWBBTNYRGowh9V+6lD3cA/
o0S025+9yzCB4QYDVR0jBIHZMIHWgBQSzWAE0qCAnnDtxpm4eyzGUv0ZoaGBsqSB
rzCBrDELMAkGA1UEBhMCVVMxCzAJBgNVBAgTAk9IMREwDwYDVQQHEwhDb2x1bWJ1
czESMBAGA1UEChMJVmlraW5nVlBOMR0wGwYDVQQLExRNeU9yZ2FuaXphdGlvbmFs
VW5pdDEVMBMGA1UEAxMMVmlraW5nVlBOIENBMRAwDgYDVQQpEwdFYXN5UlNBMSEw
HwYJKoZIhvcNAQkBFhJtZUBteWhvc3QubXlkb21haW6CCQDPNYXugL8qPjATBgNV
HSUEDDAKBggrBgEFBQcDAjALBgNVHQ8EBAMCB4AwDQYJKoZIhvcNAQEEBQADggIB
ALlwkGaIaFU2ltaUGZqyLhQgYmCt0pOL7K9v71einMgR61w7hoVC3HWQP04dPlAq
Um6bliM4wvwWWB+mZXVuqgMGz5NWNEksegRd72cXe05SKVMZ7PkrppeXDvpSIrvZ
C7iBJeDrHAeaB7WbiyIhA4k8sj1PYfEHxSRwyeTvanBEM22bOHxIHd3RsFGw9+xi
+TVBhBWdeZsKwF7XnE99a9yYwoIU3csWiDh7Yukyciy5NW6OWFVSa6AGsUMAvgNH
jsY+Io2xVhSkmUOfmX2cbkgFZK97IhV96zsLm8Rcfu3I0Dk0DXM+6NTQX53ak06V
eUV8C0YzXHpKhx1XjvYCdmElFtUs4hOoTlclkpf4627hCXL1I1F1oWUI7pN0M9Pk
XWkBdCiWqbigKD5TJ0gmU5Hrh+K4/aTdhk7PtliTSGFGl2K9bvKku6NRX3Q+4DWz
b2rAxNdAHusECsElzMHrFtpGTTSS6C/367fGWOK3Gw3xAy8UwW7SFQPzCE7gPuXg
DUqg0sQtOpN8bzZw5oYM4+R+ooI9BSX0bt7su8oHiyMrZQgj/4box360cfsQkKBN
Wp8AmbmqfqSzuXKcOFYJvS6DKBMANNAHnHVOqsUmoj1PFcMz5rKwFJQBOSSomo+o
E7JsA9Csj/9bh4mS0L4sHXa+ZFSCkSQ2sQlHBAZRPvgU
-----END CERTIFICATE-----
