Certificate:
    Data:
        Version: 3 (0x2)
        Serial Number: 9765 (0x2625)
    Signature Algorithm: sha256WithRSAEncryption
        Issuer: C=US, ST=OH, L=Columbus, O=VikingVPN, OU=MyOrganizationalUnit, CN=VikingVPN CA/name=EasyRSA/emailAddress=me@myhost.mydomain
        Validity
            Not Before: Dec 26 06:16:23 2016 GMT
            Not After : Dec 24 06:16:23 2026 GMT
        Subject: CN=Client2655Certb456d2
        Subject Public Key Info:
            Public Key Algorithm: rsaEncryption
                Public-Key: (4096 bit)
                Modulus:
                    00:dc:8b:77:52:cf:06:52:d7:5d:58:3c:70:7b:b7:
                    fe:69:f7:bc:04:fe:f5:77:69:5f:f3:99:2a:71:5d:
                    d0:ac:99:48:43:68:ee:dc:e5:c0:58:6f:ae:eb:f1:
                    4b:0a:3f:5d:de:e3:f1:e0:d3:62:51:f7:e6:d6:e2:
                    be:c2:63:f7:d4:04:a6:a7:c1:38:10:0e:85:eb:17:
                    ff:37:93:20:8a:70:ba:6f:50:2b:6c:96:b7:d6:64:
                    1e:38:e6:d7:fc:61:70:bc:15:2f:3e:d4:b7:e2:fe:
                    23:cf:38:22:09:6a:e5:92:1e:a9:f3:05:9e:e4:ad:
                    49:00:2f:c0:55:69:62:14:8d:da:c5:44:4c:79:7c:
                    4d:51:74:3e:35:99:4e:1e:f5:43:ff:e7:e6:a4:d4:
                    2e:9e:0c:da:00:7b:b8:74:a1:90:86:9b:00:cc:a1:
                    69:4d:24:39:d8:67:0d:93:d2:68:47:0e:37:e8:b7:
                    dc:b4:98:4c:e1:4c:96:75:9d:55:de:b0:9a:37:1d:
                    fc:69:5e:82:75:46:65:0f:f1:65:99:f9:75:a8:66:
                    91:1a:36:99:27:d8:fd:20:ba:d2:66:ff:13:a2:48:
                    d5:93:c8:b9:d7:02:04:a3:48:b8:80:c5:18:e9:a3:
                    37:07:7f:c6:8f:b5:13:62:55:cc:9f:59:b0:6e:89:
                    84:e0:8f:47:b3:83:b6:d5:93:73:90:d1:0c:f4:a4:
                    f4:e5:1f:77:b8:45:29:3b:32:da:20:36:ba:77:45:
                    8e:84:ac:a7:68:b6:6b:a4:c9:12:c8:33:61:34:25:
                    72:7d:07:b9:07:bc:88:71:93:81:f1:37:4e:57:c0:
                    51:20:15:3c:2d:87:87:85:1d:2b:01:b4:d5:54:1f:
                    a7:ac:e8:19:ba:aa:2e:29:f3:a0:8d:f7:4e:eb:ca:
                    fe:13:b3:b0:19:87:b1:05:6c:7e:eb:7a:05:43:77:
                    1a:1e:37:3d:cc:f0:50:04:37:98:cc:08:14:c5:d9:
                    a6:b4:c6:d4:b7:f5:20:1c:a7:72:07:e1:f0:17:1f:
                    29:68:d9:c9:a8:18:29:00:5e:5b:1a:bf:14:fe:b7:
                    14:b1:71:32:1e:e6:b9:b7:33:35:a6:7e:fd:f8:62:
                    87:d1:60:20:6f:5a:5c:fc:93:20:db:f4:19:8d:f3:
                    52:8d:da:72:c5:1f:10:51:c2:3b:b1:cc:fb:7b:37:
                    26:91:3c:47:53:3a:2a:a6:64:48:ef:24:eb:f0:bb:
                    a0:3e:16:e6:c2:0c:6e:97:99:d0:7d:08:1e:2d:b9:
                    95:a8:f6:2e:20:d4:e2:2f:65:5a:3c:27:39:f6:f2:
                    a3:e0:90:bd:b0:7d:9d:8c:e9:fa:35:8d:25:75:37:
                    75:63:11
                Exponent: 65537 (0x10001)
        X509v3 extensions:
            X509v3 Basic Constraints: 
                CA:FALSE
            Netscape Comment: 
                Easy-RSA Generated Certificate
            X509v3 Subject Key Identifier: 
                9D:F1:61:D8:08:8A:07:E8:DF:4C:D7:75:F7:A2:6F:7F:9B:14:18:D9
            X509v3 Authority Key Identifier: 
                keyid:12:CD:60:04:D2:A0:80:9E:70:ED:C6:99:B8:7B:2C:C6:52:FD:19:A1
                DirName:/C=US/ST=OH/L=Columbus/O=VikingVPN/OU=MyOrganizationalUnit/CN=VikingVPN CA/name=EasyRSA/emailAddress=me@myhost.mydomain
                serial:CF:35:85:EE:80:BF:2A:3E

            X509v3 Extended Key Usage: 
                TLS Web Client Authentication
            X509v3 Key Usage: 
                Digital Signature
    Signature Algorithm: sha256WithRSAEncryption
         e6:69:a6:95:07:d0:03:48:14:0a:1f:1c:1b:68:0a:5f:72:0f:
         c9:a5:36:68:6e:61:26:d2:92:34:2d:3e:99:3a:8f:ba:71:e2:
         36:3b:df:fb:89:15:04:b9:7b:9c:09:75:fd:73:eb:72:92:c9:
         0f:22:31:b1:16:c2:8a:45:1e:f1:cd:59:fd:30:8f:b0:57:33:
         9b:fa:a3:c6:ff:86:f8:0e:90:dd:1b:99:61:ad:45:26:d8:cb:
         e7:b7:61:63:04:e5:20:62:31:23:61:a8:6e:2e:b1:66:d4:28:
         a8:1c:ae:55:d5:93:ad:f5:ef:d9:10:4b:b8:03:29:07:d4:78:
         69:84:79:9c:d6:f4:9d:84:fc:84:95:b0:75:f7:ca:26:b9:5c:
         bf:0c:24:44:ac:cf:e2:8b:93:c6:37:19:c0:6c:bd:78:dd:4d:
         96:5f:da:c2:44:be:56:d0:b3:85:e0:50:a4:13:e3:1f:05:b8:
         0c:40:37:07:8b:d8:0c:e9:20:4f:de:c7:7f:bf:d9:91:57:2c:
         e6:60:a0:0a:7b:d8:c9:35:74:1b:8c:99:61:86:88:f3:cc:22:
         a6:89:f1:69:a6:33:ea:fd:98:1d:3f:80:e2:71:9b:40:9a:9d:
         96:9d:e5:06:9c:09:a8:b5:f7:a9:f5:e1:b5:c6:60:c3:01:ac:
         2b:d5:20:f1:2a:bf:fe:43:fb:f9:62:a4:10:b1:56:e6:6f:fe:
         4a:1f:e7:ad:06:d8:c8:05:76:16:be:8f:3c:c5:15:4f:eb:cb:
         0d:49:a0:9b:f1:d6:89:c4:d2:1c:10:80:16:42:9b:e3:2d:26:
         26:06:94:83:6e:c5:22:a1:a3:53:c1:ae:88:82:05:63:6c:82:
         b6:b9:85:36:c0:6d:34:4a:bd:f9:92:8b:fa:68:79:0b:08:b4:
         03:93:76:90:75:45:c6:c2:83:fc:8f:b1:16:f3:a1:8d:db:70:
         73:0f:95:3d:7f:15:a1:25:b8:a9:b8:6e:56:57:fd:dc:7d:76:
         a4:94:4b:4e:4b:0b:ab:a5:fe:07:05:8f:20:ef:bf:52:48:8c:
         96:6f:7c:42:6b:9b:89:d9:e5:65:31:ab:18:8c:35:a0:a1:8b:
         77:cb:06:3f:a1:0f:62:0e:bd:6d:16:6a:5a:fb:3e:70:c6:49:
         c7:2c:21:2a:78:5a:74:25:1a:fb:35:e7:8b:8e:df:9d:7d:d2:
         9f:25:6b:34:56:2f:79:38:e1:de:92:75:84:f6:05:6a:8f:fc:
         f6:1a:9a:35:da:8a:db:29:bb:60:a4:53:c6:0b:69:2e:09:1d:
         cf:50:c8:0b:5e:22:96:26:49:7b:2e:d3:83:cb:c7:c3:f4:c3:
         db:75:b5:e2:a2:89:24:8e
-----BEGIN CERTIFICATE-----
MIIGrTCCBJWgAwIBAgICJiUwDQYJKoZIhvcNAQELBQAwgawxCzAJBgNVBAYTAlVT
MQswCQYDVQQIEwJPSDERMA8GA1UEBxMIQ29sdW1idXMxEjAQBgNVBAoTCVZpa2lu
Z1ZQTjEdMBsGA1UECxMUTXlPcmdhbml6YXRpb25hbFVuaXQxFTATBgNVBAMTDFZp
a2luZ1ZQTiBDQTEQMA4GA1UEKRMHRWFzeVJTQTEhMB8GCSqGSIb3DQEJARYSbWVA
bXlob3N0Lm15ZG9tYWluMB4XDTE2MTIyNjA2MTYyM1oXDTI2MTIyNDA2MTYyM1ow
HzEdMBsGA1UEAxMUQ2xpZW50MjY1NUNlcnRiNDU2ZDIwggIiMA0GCSqGSIb3DQEB
AQUAA4ICDwAwggIKAoICAQDci3dSzwZS111YPHB7t/5p97wE/vV3aV/zmSpxXdCs
mUhDaO7c5cBYb67r8UsKP13e4/Hg02JR9+bW4r7CY/fUBKanwTgQDoXrF/83kyCK
cLpvUCtslrfWZB445tf8YXC8FS8+1Lfi/iPPOCIJauWSHqnzBZ7krUkAL8BVaWIU
jdrFREx5fE1RdD41mU4e9UP/5+ak1C6eDNoAe7h0oZCGmwDMoWlNJDnYZw2T0mhH
Djfot9y0mEzhTJZ1nVXesJo3HfxpXoJ1RmUP8WWZ+XWoZpEaNpkn2P0gutJm/xOi
SNWTyLnXAgSjSLiAxRjpozcHf8aPtRNiVcyfWbBuiYTgj0ezg7bVk3OQ0Qz0pPTl
H3e4RSk7MtogNrp3RY6ErKdotmukyRLIM2E0JXJ9B7kHvIhxk4HxN05XwFEgFTwt
h4eFHSsBtNVUH6es6Bm6qi4p86CN907ryv4Ts7AZh7EFbH7regVDdxoeNz3M8FAE
N5jMCBTF2aa0xtS39SAcp3IH4fAXHylo2cmoGCkAXlsavxT+txSxcTIe5rm3MzWm
fv34YofRYCBvWlz8kyDb9BmN81KN2nLFHxBRwjuxzPt7NyaRPEdTOiqmZEjvJOvw
u6A+FubCDG6XmdB9CB4tuZWo9i4g1OIvZVo8Jzn28qPgkL2wfZ2M6fo1jSV1N3Vj
EQIDAQABo4IBYzCCAV8wCQYDVR0TBAIwADAtBglghkgBhvhCAQ0EIBYeRWFzeS1S
U0EgR2VuZXJhdGVkIENlcnRpZmljYXRlMB0GA1UdDgQWBBSd8WHYCIoH6N9M13X3
om9/mxQY2TCB4QYDVR0jBIHZMIHWgBQSzWAE0qCAnnDtxpm4eyzGUv0ZoaGBsqSB
rzCBrDELMAkGA1UEBhMCVVMxCzAJBgNVBAgTAk9IMREwDwYDVQQHEwhDb2x1bWJ1
czESMBAGA1UEChMJVmlraW5nVlBOMR0wGwYDVQQLExRNeU9yZ2FuaXphdGlvbmFs
VW5pdDEVMBMGA1UEAxMMVmlraW5nVlBOIENBMRAwDgYDVQQpEwdFYXN5UlNBMSEw
HwYJKoZIhvcNAQkBFhJtZUBteWhvc3QubXlkb21haW6CCQDPNYXugL8qPjATBgNV
HSUEDDAKBggrBgEFBQcDAjALBgNVHQ8EBAMCB4AwDQYJKoZIhvcNAQELBQADggIB
AOZpppUH0ANIFAofHBtoCl9yD8mlNmhuYSbSkjQtPpk6j7px4jY73/uJFQS5e5wJ
df1z63KSyQ8iMbEWwopFHvHNWf0wj7BXM5v6o8b/hvgOkN0bmWGtRSbYy+e3YWME
5SBiMSNhqG4usWbUKKgcrlXVk63179kQS7gDKQfUeGmEeZzW9J2E/ISVsHX3yia5
XL8MJESsz+KLk8Y3GcBsvXjdTZZf2sJEvlbQs4XgUKQT4x8FuAxANweL2AzpIE/e
x3+/2ZFXLOZgoAp72Mk1dBuMmWGGiPPMIqaJ8WmmM+r9mB0/gOJxm0CanZad5Qac
Cai196n14bXGYMMBrCvVIPEqv/5D+/lipBCxVuZv/kof560G2MgFdha+jzzFFU/r
yw1JoJvx1onE0hwQgBZCm+MtJiYGlINuxSKho1PBroiCBWNsgra5hTbAbTRKvfmS
i/poeQsItAOTdpB1RcbCg/yPsRbzoY3bcHMPlT1/FaEluKm4blZX/dx9dqSUS05L
C6ul/gcFjyDvv1JIjJZvfEJrm4nZ5WUxqxiMNaChi3fLBj+hD2IOvW0Walr7PnDG
SccsISp4WnQlGvs154uO35190p8lazRWL3k44d6SdYT2BWqP/PYamjXaitspu2Ck
U8YLaS4JHc9QyAteIpYmSXsu04PLx8P0w9t1teKiiSSO
-----END CERTIFICATE-----
