Certificate:
    Data:
        Version: 3 (0x2)
        Serial Number: 10802 (0x2a32)
    Signature Algorithm: sha256WithRSAEncryption
        Issuer: C=US, ST=OH, L=Columbus, O=VikingVPN, OU=MyOrganizationalUnit, CN=VikingVPN CA/name=EasyRSA/emailAddress=me@myhost.mydomain
        Validity
            Not Before: Apr 25 03:51:33 2017 GMT
            Not After : Apr 23 03:51:33 2027 GMT
        Subject: CN=Client3Cert96933a
        Subject Public Key Info:
            Public Key Algorithm: rsaEncryption
                Public-Key: (4096 bit)
                Modulus:
                    00:e0:3a:59:21:34:8b:20:e3:36:ad:67:41:3a:61:
                    a6:a0:a1:ce:42:ca:92:ad:5a:73:e1:9b:5f:1b:ec:
                    80:c2:ea:52:8b:19:ba:b8:a7:c3:ba:75:6a:0c:4a:
                    71:d4:9a:94:de:00:49:09:be:e9:d4:5f:e6:cb:53:
                    7e:58:41:5e:9b:fb:c7:88:6f:8f:b0:8c:30:39:84:
                    db:0e:99:3b:fd:07:b1:f3:56:08:64:64:89:3f:e8:
                    f3:27:0b:eb:2f:1c:28:f7:9e:99:6f:ef:21:a1:57:
                    21:22:ad:81:fa:22:93:12:56:8d:71:92:61:55:4e:
                    68:e5:e5:47:cd:61:6c:19:73:07:03:00:aa:2e:b8:
                    5f:0f:78:a6:7f:ab:a7:28:f5:94:57:63:b9:d4:63:
                    97:32:1c:e1:eb:cb:9b:bc:7a:5b:b5:ab:47:d4:20:
                    21:ba:79:a0:0f:b3:84:38:53:d4:1c:dc:0a:9c:93:
                    7a:16:bb:66:fc:0a:20:11:5a:63:9a:35:7a:da:ea:
                    e5:01:0a:67:c2:4c:09:de:be:6b:9b:2e:31:c5:e8:
                    c8:d6:3b:1b:6e:e7:28:5b:10:12:86:fd:c7:8d:2c:
                    eb:fa:e9:b0:fd:61:fe:a7:30:f2:5c:3d:07:68:b6:
                    dc:c2:a9:ab:34:a9:d9:a4:2f:3b:36:07:5d:68:2e:
                    a8:80:a2:0c:1d:3d:bc:d2:5a:da:11:7d:88:11:dd:
                    0b:be:ba:a1:a6:ed:cd:72:bb:02:1f:68:87:85:f1:
                    2c:36:52:a8:d0:f2:f4:53:7e:84:d8:84:0e:ba:7d:
                    54:bf:21:86:25:4e:5a:f5:41:c4:55:e4:ce:a4:1d:
                    c4:02:9b:43:04:a5:7a:be:36:aa:d2:98:c2:a0:1f:
                    0f:9d:07:f9:cd:91:9d:0d:e7:3d:df:da:33:0f:80:
                    2a:85:ae:24:55:e9:47:e8:c5:fb:21:b1:7a:6e:c0:
                    68:2e:6b:ea:61:0f:9c:88:e5:87:c0:11:3e:16:4d:
                    df:e1:9a:8a:1d:a8:9a:d5:e5:d0:8f:f2:fc:8f:ec:
                    c6:3e:df:94:cb:e8:f8:b1:39:bb:07:36:49:b6:fc:
                    b6:4b:ec:ec:28:f8:db:20:bd:82:4c:57:2c:88:39:
                    a8:e8:8f:cf:33:8a:63:81:b8:e2:56:66:80:a4:2e:
                    ea:0c:b7:de:65:4c:60:9e:a9:b7:8e:74:2a:63:cd:
                    42:6f:dd:4b:7d:50:42:96:59:ba:f6:e5:24:16:e5:
                    64:26:28:cd:23:0e:e3:18:6c:93:66:e0:bf:be:5f:
                    48:a2:67:16:ef:a4:f0:75:ed:42:1d:72:7c:3a:99:
                    c3:df:cb:4b:8d:53:5d:a6:66:52:28:79:07:fa:1c:
                    10:9b:f1
                Exponent: 65537 (0x10001)
        X509v3 extensions:
            X509v3 Basic Constraints: 
                CA:FALSE
            Netscape Comment: 
                Easy-RSA Generated Certificate
            X509v3 Subject Key Identifier: 
                AF:D7:D3:91:A3:B4:37:A4:50:9B:40:ED:17:E2:95:EB:4B:A6:46:64
            X509v3 Authority Key Identifier: 
                keyid:12:CD:60:04:D2:A0:80:9E:70:ED:C6:99:B8:7B:2C:C6:52:FD:19:A1
                DirName:/C=US/ST=OH/L=Columbus/O=VikingVPN/OU=MyOrganizationalUnit/CN=VikingVPN CA/name=EasyRSA/emailAddress=me@myhost.mydomain
                serial:CF:35:85:EE:80:BF:2A:3E

            X509v3 Extended Key Usage: 
                TLS Web Client Authentication
            X509v3 Key Usage: 
                Digital Signature
    Signature Algorithm: sha256WithRSAEncryption
         e9:59:4e:9e:4e:bc:7e:b5:f3:cb:84:c1:51:bc:dc:3e:0f:72:
         56:ef:58:92:d5:a2:41:3d:6a:3d:ed:8a:20:28:c0:47:46:09:
         94:6a:37:db:d2:7e:17:cf:54:e8:92:e1:88:29:87:d5:be:fe:
         46:b2:50:93:1c:81:93:62:69:ef:27:c8:b3:4e:c8:76:dc:61:
         0c:a8:fe:d6:1b:38:8c:91:f9:2c:96:d2:01:7a:6b:01:e3:fb:
         09:e8:6d:db:e4:e5:62:25:2d:8f:70:6f:fd:a0:35:81:b8:80:
         54:06:72:71:c2:bc:bc:c3:dd:df:8a:49:35:be:2c:12:98:c1:
         c5:01:5f:63:55:c3:7e:90:aa:c0:11:99:81:ce:24:ce:f8:f8:
         c4:d2:30:3d:73:2c:6f:9b:08:f2:2d:3d:68:0e:e6:99:4d:c0:
         3d:cd:dc:4a:ed:12:62:77:e1:37:4f:47:d0:b7:fb:f7:b0:a0:
         7a:64:ab:98:dd:48:d9:c6:0d:fa:f1:32:ca:29:c2:f8:8b:85:
         73:46:32:ce:da:cd:28:c7:fa:52:4e:c4:70:0f:c7:58:f9:a5:
         ee:8d:07:84:e5:f9:a8:bb:a5:25:9f:6a:ae:86:27:97:32:3e:
         ca:9b:e9:44:96:58:c1:8d:3f:a1:8a:c5:72:ae:3c:f8:32:6c:
         83:ad:71:44:f9:bc:af:8c:3f:c9:75:28:98:bd:e3:40:ff:00:
         9a:65:33:07:32:2c:5f:80:16:b3:a8:73:1c:69:91:44:1a:1f:
         47:ac:27:77:d9:a1:3e:70:9f:25:62:ce:8f:e0:07:71:78:bd:
         a0:f1:a8:99:d6:19:6e:fb:a9:8b:b9:8e:45:f2:18:55:26:73:
         04:39:ac:15:57:73:28:cb:c3:48:47:74:fb:ec:79:8e:3b:09:
         7e:cb:1a:06:d7:61:5b:b7:d1:b8:5d:b1:59:8c:bc:b4:29:8d:
         a8:34:36:90:b7:51:8c:d1:09:54:fd:ba:18:3d:f1:17:db:d7:
         f3:11:f0:73:d5:ab:9f:19:a2:fc:c2:95:bf:93:b9:8c:e8:13:
         d1:d7:19:55:e3:82:8f:a5:92:88:a2:77:71:3b:25:da:6a:57:
         38:e0:96:8f:82:b2:cf:13:22:03:ec:59:88:c0:0f:84:d9:25:
         4b:af:77:1c:72:0a:61:25:68:82:29:bc:33:f9:79:bd:74:f9:
         fd:32:30:f6:2f:60:72:c2:a7:1b:02:34:f9:b1:66:a4:7d:cc:
         50:72:ac:fe:74:cb:f3:12:6e:06:9a:01:b8:ec:1f:0c:3e:80:
         ce:53:d5:b8:d3:7f:a6:bf:52:6e:a8:91:1b:6e:93:1a:04:1a:
         0a:5c:65:b4:a0:04:20:88
-----BEGIN CERTIFICATE-----
MIIGqjCCBJKgAwIBAgICKjIwDQYJKoZIhvcNAQELBQAwgawxCzAJBgNVBAYTAlVT
MQswCQYDVQQIEwJPSDERMA8GA1UEBxMIQ29sdW1idXMxEjAQBgNVBAoTCVZpa2lu
Z1ZQTjEdMBsGA1UECxMUTXlPcmdhbml6YXRpb25hbFVuaXQxFTATBgNVBAMTDFZp
a2luZ1ZQTiBDQTEQMA4GA1UEKRMHRWFzeVJTQTEhMB8GCSqGSIb3DQEJARYSbWVA
bXlob3N0Lm15ZG9tYWluMB4XDTE3MDQyNTAzNTEzM1oXDTI3MDQyMzAzNTEzM1ow
HDEaMBgGA1UEAxMRQ2xpZW50M0NlcnQ5NjkzM2EwggIiMA0GCSqGSIb3DQEBAQUA
A4ICDwAwggIKAoICAQDgOlkhNIsg4zatZ0E6Yaagoc5CypKtWnPhm18b7IDC6lKL
Gbq4p8O6dWoMSnHUmpTeAEkJvunUX+bLU35YQV6b+8eIb4+wjDA5hNsOmTv9B7Hz
VghkZIk/6PMnC+svHCj3nplv7yGhVyEirYH6IpMSVo1xkmFVTmjl5UfNYWwZcwcD
AKouuF8PeKZ/q6co9ZRXY7nUY5cyHOHry5u8elu1q0fUICG6eaAPs4Q4U9Qc3Aqc
k3oWu2b8CiARWmOaNXra6uUBCmfCTAnevmubLjHF6MjWOxtu5yhbEBKG/ceNLOv6
6bD9Yf6nMPJcPQdottzCqas0qdmkLzs2B11oLqiAogwdPbzSWtoRfYgR3Qu+uqGm
7c1yuwIfaIeF8Sw2UqjQ8vRTfoTYhA66fVS/IYYlTlr1QcRV5M6kHcQCm0MEpXq+
NqrSmMKgHw+dB/nNkZ0N5z3f2jMPgCqFriRV6UfoxfshsXpuwGgua+phD5yI5YfA
ET4WTd/hmoodqJrV5dCP8vyP7MY+35TL6PixObsHNkm2/LZL7Owo+NsgvYJMVyyI
Oajoj88zimOBuOJWZoCkLuoMt95lTGCeqbeOdCpjzUJv3Ut9UEKWWbr25SQW5WQm
KM0jDuMYbJNm4L++X0iiZxbvpPB17UIdcnw6mcPfy0uNU12mZlIoeQf6HBCb8QID
AQABo4IBYzCCAV8wCQYDVR0TBAIwADAtBglghkgBhvhCAQ0EIBYeRWFzeS1SU0Eg
R2VuZXJhdGVkIENlcnRpZmljYXRlMB0GA1UdDgQWBBSv19ORo7Q3pFCbQO0X4pXr
S6ZGZDCB4QYDVR0jBIHZMIHWgBQSzWAE0qCAnnDtxpm4eyzGUv0ZoaGBsqSBrzCB
rDELMAkGA1UEBhMCVVMxCzAJBgNVBAgTAk9IMREwDwYDVQQHEwhDb2x1bWJ1czES
MBAGA1UEChMJVmlraW5nVlBOMR0wGwYDVQQLExRNeU9yZ2FuaXphdGlvbmFsVW5p
dDEVMBMGA1UEAxMMVmlraW5nVlBOIENBMRAwDgYDVQQpEwdFYXN5UlNBMSEwHwYJ
KoZIhvcNAQkBFhJtZUBteWhvc3QubXlkb21haW6CCQDPNYXugL8qPjATBgNVHSUE
DDAKBggrBgEFBQcDAjALBgNVHQ8EBAMCB4AwDQYJKoZIhvcNAQELBQADggIBAOlZ
Tp5OvH6188uEwVG83D4PclbvWJLVokE9aj3tiiAowEdGCZRqN9vSfhfPVOiS4Ygp
h9W+/kayUJMcgZNiae8nyLNOyHbcYQyo/tYbOIyR+SyW0gF6awHj+wnobdvk5WIl
LY9wb/2gNYG4gFQGcnHCvLzD3d+KSTW+LBKYwcUBX2NVw36QqsARmYHOJM74+MTS
MD1zLG+bCPItPWgO5plNwD3N3ErtEmJ34TdPR9C3+/ewoHpkq5jdSNnGDfrxMsop
wviLhXNGMs7azSjH+lJOxHAPx1j5pe6NB4Tl+ai7pSWfaq6GJ5cyPsqb6USWWMGN
P6GKxXKuPPgybIOtcUT5vK+MP8l1KJi940D/AJplMwcyLF+AFrOocxxpkUQaH0es
J3fZoT5wnyVizo/gB3F4vaDxqJnWGW77qYu5jkXyGFUmcwQ5rBVXcyjLw0hHdPvs
eY47CX7LGgbXYVu30bhdsVmMvLQpjag0NpC3UYzRCVT9uhg98Rfb1/MR8HPVq58Z
ovzClb+TuYzoE9HXGVXjgo+lkoiid3E7JdpqVzjglo+Css8TIgPsWYjAD4TZJUuv
dxxyCmElaIIpvDP5eb10+f0yMPYvYHLCpxsCNPmxZqR9zFByrP50y/MSbgaaAbjs
Hww+gM5T1bjTf6a/Um6okRtukxoEGgpcZbSgBCCI
-----END CERTIFICATE-----
