Certificate:
    Data:
        Version: 3 (0x2)
        Serial Number: 8909 (0x22cd)
    Signature Algorithm: sha256WithRSAEncryption
        Issuer: C=US, ST=OH, L=Columbus, O=VikingVPN, OU=MyOrganizationalUnit, CN=VikingVPN CA/name=EasyRSA/emailAddress=me@myhost.mydomain
        Validity
            Not Before: Aug 27 00:26:39 2016 GMT
            Not After : Aug 25 00:26:39 2026 GMT
        Subject: CN=Client1964Certcd8e64
        Subject Public Key Info:
            Public Key Algorithm: rsaEncryption
                Public-Key: (4096 bit)
                Modulus:
                    00:c9:4a:e4:bb:19:10:dd:52:91:6b:56:1b:e7:85:
                    bf:5f:26:8a:02:d1:32:9b:14:eb:57:b1:5e:80:e9:
                    74:e4:db:57:f5:83:4d:90:9f:63:77:31:8d:55:63:
                    4e:3c:3d:68:42:03:38:1c:02:fd:a8:99:f1:7c:37:
                    5f:9a:a2:65:8d:a6:c7:49:f8:6b:13:3f:8e:8c:d7:
                    30:1c:e1:50:29:b9:44:fb:ce:20:e9:f7:07:1b:bb:
                    ce:5d:e7:a1:70:14:1f:aa:bb:38:42:21:61:d7:80:
                    65:e4:34:47:10:86:8d:f2:c9:9e:b4:19:06:17:87:
                    55:de:f5:9b:6d:5b:b1:ec:c5:de:43:b8:89:d4:d3:
                    75:e1:bd:e3:45:69:12:fe:18:5d:2c:49:94:34:53:
                    3c:ce:3a:40:29:8c:ec:f2:77:f3:1d:2d:72:1e:4e:
                    09:b0:cd:33:02:72:d2:2a:af:3e:9b:79:62:59:ee:
                    d3:21:db:bc:0d:5d:f0:95:06:15:4d:45:4b:dd:ca:
                    70:07:16:b7:da:49:64:c2:1a:1f:23:d6:70:7e:47:
                    d3:d5:ab:3d:ee:c3:c9:4b:b0:dc:72:87:8e:8a:6d:
                    b3:36:7c:f4:bb:4d:ea:a1:05:ee:7e:39:2e:3e:35:
                    9c:3a:9a:a2:b9:05:06:e2:cc:94:16:f2:04:72:a6:
                    61:83:a7:4e:9e:aa:de:be:04:9a:f8:1b:37:3a:7c:
                    bd:93:db:05:ff:86:12:6d:8a:fc:c1:b3:01:e3:b8:
                    34:95:65:60:3e:da:0f:af:46:53:16:a4:3f:22:a3:
                    b1:7c:a9:ec:a1:97:14:08:e9:e5:dc:b1:59:a7:9f:
                    9d:cf:3c:7b:1b:0c:85:d9:9c:27:bd:45:ab:77:99:
                    e1:f5:c8:c5:a0:ec:75:6b:bb:70:93:46:5f:fa:55:
                    cd:26:c1:c4:43:d0:3b:b8:11:af:c1:82:5f:c8:41:
                    14:e0:37:2f:3d:e9:4a:eb:c7:60:61:59:fb:8e:66:
                    16:9e:5b:73:72:1f:5c:24:c6:38:59:c6:bd:4e:26:
                    4e:4c:76:33:ab:e4:8e:8e:92:69:55:88:d3:7c:8e:
                    4b:98:a8:8c:31:f9:f6:76:b5:15:42:45:96:07:c1:
                    80:93:98:b4:7d:c7:aa:05:59:db:ae:fa:18:f0:01:
                    29:68:08:d6:f2:44:4a:47:c2:75:e6:a9:78:d1:0a:
                    cf:73:42:b3:80:d2:d7:51:62:16:77:7c:b8:fb:65:
                    74:cb:03:03:1a:49:e8:e3:f9:b6:25:c0:e6:02:5b:
                    8a:e6:fe:8a:67:92:c7:df:9a:1d:b4:5d:c9:fc:2a:
                    c0:dd:16:3e:e7:ac:f6:8c:34:f7:1c:7f:36:17:28:
                    0f:37:7f
                Exponent: 65537 (0x10001)
        X509v3 extensions:
            X509v3 Basic Constraints: 
                CA:FALSE
            Netscape Comment: 
                Easy-RSA Generated Certificate
            X509v3 Subject Key Identifier: 
                E7:C0:F0:77:49:CF:98:10:E2:3D:FD:C2:12:AF:0D:3C:5B:EF:B1:EC
            X509v3 Authority Key Identifier: 
                keyid:12:CD:60:04:D2:A0:80:9E:70:ED:C6:99:B8:7B:2C:C6:52:FD:19:A1
                DirName:/C=US/ST=OH/L=Columbus/O=VikingVPN/OU=MyOrganizationalUnit/CN=VikingVPN CA/name=EasyRSA/emailAddress=me@myhost.mydomain
                serial:CF:35:85:EE:80:BF:2A:3E

            X509v3 Extended Key Usage: 
                TLS Web Client Authentication
            X509v3 Key Usage: 
                Digital Signature
    Signature Algorithm: sha256WithRSAEncryption
         ad:94:95:45:e5:42:ae:e8:ba:69:97:84:60:bd:b8:a3:c7:95:
         88:9f:6d:44:09:a7:ae:da:63:d7:b3:a6:de:48:ee:25:09:42:
         47:62:c8:3a:18:44:35:2d:c5:f2:f5:3e:5a:2d:49:ea:a0:65:
         88:5d:b8:80:75:3b:b4:fa:77:ec:94:b7:51:d7:80:26:44:0d:
         b3:cf:e5:7f:3e:b8:fe:25:b5:ec:b9:3e:7b:9d:8e:79:e9:7c:
         e2:06:2b:6f:61:59:e2:ae:54:59:cf:14:3d:4a:14:aa:53:a0:
         06:2f:02:9d:57:7f:15:64:e3:7f:87:47:ef:17:3f:b2:c4:6a:
         49:2a:db:87:c8:6e:87:19:99:cf:a7:07:70:db:91:06:28:97:
         78:5f:a5:e9:59:34:a1:a4:5a:05:66:d0:46:4c:07:c8:3a:9c:
         84:2e:f2:0b:64:a1:1a:70:fd:8b:72:5a:0c:81:65:45:ef:6b:
         bf:61:ed:e0:91:9b:11:a0:bb:03:a8:e4:ae:f2:bf:34:09:14:
         44:ac:eb:6a:13:09:f5:98:a4:12:65:c4:cc:2f:9a:a4:71:ab:
         73:c2:02:07:97:6f:80:b8:82:a5:30:bd:7d:06:9c:87:c3:4e:
         aa:5e:6b:b7:1d:54:3b:44:eb:eb:3d:7c:3c:f5:3c:8a:40:12:
         29:42:83:b9:09:2b:91:36:3d:b2:f8:7d:2d:46:14:39:9e:6f:
         e6:17:6a:92:9d:9e:b9:ae:3e:10:4d:5b:96:18:3a:be:87:85:
         0a:6f:b9:f6:af:16:aa:17:a5:cb:cd:92:9f:d7:62:20:74:a1:
         47:18:f1:d9:ae:dc:d7:fa:51:ec:2a:e8:02:7c:b4:36:8f:15:
         78:45:01:46:e9:4f:de:a6:34:b7:05:4a:5d:d6:b0:4f:5b:16:
         af:df:51:90:3f:f8:48:81:af:d0:4e:aa:c6:36:df:55:b3:90:
         66:43:54:2e:60:05:aa:79:7a:8e:63:a7:57:e8:18:24:59:95:
         b7:ba:78:4f:f2:ae:f1:a0:fb:54:d6:ad:f1:21:a1:9c:ce:a0:
         fb:a7:fa:cb:c8:a6:22:df:d0:e7:a1:5c:49:94:18:e6:d6:78:
         3b:6d:47:b0:fb:2c:bc:7e:7d:8c:45:69:b8:fa:3c:73:c3:14:
         d5:72:40:fd:cf:84:f2:44:46:56:27:40:80:90:da:8d:9d:c3:
         8f:a4:44:45:27:95:69:ad:70:33:66:b6:9a:37:af:21:fe:a6:
         1b:60:e1:8a:fd:0b:3f:b0:5d:ce:84:60:f8:ae:9e:49:aa:be:
         4b:be:ba:e0:06:a5:3b:eb:45:30:37:75:34:e6:f9:07:df:4f:
         b4:da:c1:c6:11:9a:fc:da
-----BEGIN CERTIFICATE-----
MIIGrTCCBJWgAwIBAgICIs0wDQYJKoZIhvcNAQELBQAwgawxCzAJBgNVBAYTAlVT
MQswCQYDVQQIEwJPSDERMA8GA1UEBxMIQ29sdW1idXMxEjAQBgNVBAoTCVZpa2lu
Z1ZQTjEdMBsGA1UECxMUTXlPcmdhbml6YXRpb25hbFVuaXQxFTATBgNVBAMTDFZp
a2luZ1ZQTiBDQTEQMA4GA1UEKRMHRWFzeVJTQTEhMB8GCSqGSIb3DQEJARYSbWVA
bXlob3N0Lm15ZG9tYWluMB4XDTE2MDgyNzAwMjYzOVoXDTI2MDgyNTAwMjYzOVow
HzEdMBsGA1UEAxMUQ2xpZW50MTk2NENlcnRjZDhlNjQwggIiMA0GCSqGSIb3DQEB
AQUAA4ICDwAwggIKAoICAQDJSuS7GRDdUpFrVhvnhb9fJooC0TKbFOtXsV6A6XTk
21f1g02Qn2N3MY1VY048PWhCAzgcAv2omfF8N1+aomWNpsdJ+GsTP46M1zAc4VAp
uUT7ziDp9wcbu85d56FwFB+quzhCIWHXgGXkNEcQho3yyZ60GQYXh1Xe9ZttW7Hs
xd5DuInU03XhveNFaRL+GF0sSZQ0UzzOOkApjOzyd/MdLXIeTgmwzTMCctIqrz6b
eWJZ7tMh27wNXfCVBhVNRUvdynAHFrfaSWTCGh8j1nB+R9PVqz3uw8lLsNxyh46K
bbM2fPS7TeqhBe5+OS4+NZw6mqK5BQbizJQW8gRypmGDp06eqt6+BJr4Gzc6fL2T
2wX/hhJtivzBswHjuDSVZWA+2g+vRlMWpD8io7F8qeyhlxQI6eXcsVmnn53PPHsb
DIXZnCe9Rat3meH1yMWg7HVru3CTRl/6Vc0mwcRD0Du4Ea/Bgl/IQRTgNy896Urr
x2BhWfuOZhaeW3NyH1wkxjhZxr1OJk5MdjOr5I6OkmlViNN8jkuYqIwx+fZ2tRVC
RZYHwYCTmLR9x6oFWduu+hjwASloCNbyREpHwnXmqXjRCs9zQrOA0tdRYhZ3fLj7
ZXTLAwMaSejj+bYlwOYCW4rm/opnksffmh20Xcn8KsDdFj7nrPaMNPccfzYXKA83
fwIDAQABo4IBYzCCAV8wCQYDVR0TBAIwADAtBglghkgBhvhCAQ0EIBYeRWFzeS1S
U0EgR2VuZXJhdGVkIENlcnRpZmljYXRlMB0GA1UdDgQWBBTnwPB3Sc+YEOI9/cIS
rw08W++x7DCB4QYDVR0jBIHZMIHWgBQSzWAE0qCAnnDtxpm4eyzGUv0ZoaGBsqSB
rzCBrDELMAkGA1UEBhMCVVMxCzAJBgNVBAgTAk9IMREwDwYDVQQHEwhDb2x1bWJ1
czESMBAGA1UEChMJVmlraW5nVlBOMR0wGwYDVQQLExRNeU9yZ2FuaXphdGlvbmFs
VW5pdDEVMBMGA1UEAxMMVmlraW5nVlBOIENBMRAwDgYDVQQpEwdFYXN5UlNBMSEw
HwYJKoZIhvcNAQkBFhJtZUBteWhvc3QubXlkb21haW6CCQDPNYXugL8qPjATBgNV
HSUEDDAKBggrBgEFBQcDAjALBgNVHQ8EBAMCB4AwDQYJKoZIhvcNAQELBQADggIB
AK2UlUXlQq7oummXhGC9uKPHlYifbUQJp67aY9ezpt5I7iUJQkdiyDoYRDUtxfL1
PlotSeqgZYhduIB1O7T6d+yUt1HXgCZEDbPP5X8+uP4ltey5PnudjnnpfOIGK29h
WeKuVFnPFD1KFKpToAYvAp1XfxVk43+HR+8XP7LEakkq24fIbocZmc+nB3DbkQYo
l3hfpelZNKGkWgVm0EZMB8g6nIQu8gtkoRpw/YtyWgyBZUXva79h7eCRmxGguwOo
5K7yvzQJFESs62oTCfWYpBJlxMwvmqRxq3PCAgeXb4C4gqUwvX0GnIfDTqpea7cd
VDtE6+s9fDz1PIpAEilCg7kJK5E2PbL4fS1GFDmeb+YXapKdnrmuPhBNW5YYOr6H
hQpvufavFqoXpcvNkp/XYiB0oUcY8dmu3Nf6Uewq6AJ8tDaPFXhFAUbpT96mNLcF
Sl3WsE9bFq/fUZA/+EiBr9BOqsY231WzkGZDVC5gBap5eo5jp1foGCRZlbe6eE/y
rvGg+1TWrfEhoZzOoPun+svIpiLf0OehXEmUGObWeDttR7D7LLx+fYxFabj6PHPD
FNVyQP3PhPJERlYnQICQ2o2dw4+kREUnlWmtcDNmtpo3ryH+phtg4Yr9Cz+wXc6E
YPiunkmqvku+uuAGpTvrRTA3dTTm+QffT7TawcYRmvza
-----END CERTIFICATE-----
