Certificate:
    Data:
        Version: 3 (0x2)
        Serial Number: 9641 (0x25a9)
    Signature Algorithm: sha256WithRSAEncryption
        Issuer: C=US, ST=OH, L=Columbus, O=VikingVPN, OU=MyOrganizationalUnit, CN=VikingVPN CA/name=EasyRSA/emailAddress=me@myhost.mydomain
        Validity
            Not Before: Dec  4 13:31:52 2016 GMT
            Not After : Dec  2 13:31:52 2026 GMT
        Subject: CN=Client1882Certd6ca6e
        Subject Public Key Info:
            Public Key Algorithm: rsaEncryption
                Public-Key: (4096 bit)
                Modulus:
                    00:db:e0:64:bd:66:76:2b:ad:18:b0:d0:25:b0:37:
                    f9:c3:2c:f0:f1:4b:a5:85:3e:d1:c7:bf:c1:b3:41:
                    4d:53:52:03:7a:e3:47:9f:14:fe:af:47:90:e2:94:
                    ac:fd:8b:3e:05:ca:b8:27:e8:05:4a:a1:36:1e:a9:
                    a7:4d:b8:c7:e3:6a:bb:61:1a:49:c7:70:a8:38:0a:
                    6c:b7:ad:fd:58:61:ef:34:52:85:27:ac:2a:54:9b:
                    77:42:2e:80:6d:b7:b3:70:6b:7c:b5:da:20:80:0d:
                    81:c6:3a:31:cf:dd:9e:a0:f8:20:d5:cc:67:b5:dd:
                    aa:e8:c2:98:b4:c3:96:83:57:dd:ff:e3:f7:2b:0e:
                    34:da:10:3d:c6:6d:81:51:1a:1a:f3:af:5a:55:4a:
                    af:86:5e:53:4a:a5:d3:d6:98:50:42:fb:f2:e8:08:
                    72:f5:5d:88:b8:27:95:c5:0a:9c:d8:25:b2:a8:37:
                    1f:08:cd:34:a3:c9:d0:a0:93:68:e7:2c:f0:b7:1b:
                    41:d6:c1:cb:98:c6:38:9a:d9:c2:c5:68:18:96:b9:
                    4b:26:3a:c9:7d:b2:c8:7d:87:45:55:a8:55:42:fb:
                    0c:f0:98:6c:2c:3b:d0:b2:3c:b9:1d:67:15:3c:48:
                    ed:52:fd:ab:6a:b8:ec:1b:13:f4:fe:c3:01:e7:ed:
                    9a:6f:97:23:71:1a:df:9c:35:1f:4b:fa:b5:ce:dc:
                    54:40:14:4f:11:b2:14:d6:33:ef:71:59:17:1c:41:
                    b3:66:c0:8b:b3:a0:a6:96:96:1f:c2:62:1c:65:be:
                    df:dd:c9:6a:8c:71:77:c9:15:66:da:70:e3:32:4b:
                    eb:62:cc:55:7d:2c:e9:a5:53:ec:d4:76:9a:0a:f8:
                    58:ad:5b:74:13:8d:f0:e2:62:cc:22:6d:3c:45:76:
                    9f:ee:c5:b3:67:4e:90:9b:5d:f4:c9:d1:87:1b:ef:
                    a3:db:0f:cd:24:90:a3:d9:0b:33:d1:30:d3:2c:fe:
                    8b:69:c4:15:28:5c:5a:8a:47:ee:e2:60:7c:23:e5:
                    4c:f5:69:70:34:d3:61:01:9e:fa:d2:9e:7a:b5:a6:
                    0d:fd:5b:50:dd:f2:fc:43:05:4b:a4:87:8e:6f:43:
                    33:64:6f:55:3a:4f:71:54:a7:a1:9b:e1:e5:72:a8:
                    9b:d0:16:a9:af:2e:98:45:e0:02:e4:70:0c:51:6f:
                    07:50:6c:dd:1f:72:6f:d1:05:27:e4:8c:7a:3b:c4:
                    47:b3:f9:b2:57:ca:48:dd:d9:33:dc:77:25:87:5f:
                    2b:d8:85:71:d6:56:83:30:c0:30:f1:18:8d:c5:b3:
                    13:dc:b8:ad:d3:a4:80:a1:e5:22:75:1f:83:2e:8d:
                    77:c2:0d
                Exponent: 65537 (0x10001)
        X509v3 extensions:
            X509v3 Basic Constraints: 
                CA:FALSE
            Netscape Comment: 
                Easy-RSA Generated Certificate
            X509v3 Subject Key Identifier: 
                33:AD:62:4A:C5:16:5D:84:4A:12:AB:A2:21:68:1D:DC:64:55:A2:12
            X509v3 Authority Key Identifier: 
                keyid:12:CD:60:04:D2:A0:80:9E:70:ED:C6:99:B8:7B:2C:C6:52:FD:19:A1
                DirName:/C=US/ST=OH/L=Columbus/O=VikingVPN/OU=MyOrganizationalUnit/CN=VikingVPN CA/name=EasyRSA/emailAddress=me@myhost.mydomain
                serial:CF:35:85:EE:80:BF:2A:3E

            X509v3 Extended Key Usage: 
                TLS Web Client Authentication
            X509v3 Key Usage: 
                Digital Signature
    Signature Algorithm: sha256WithRSAEncryption
         42:d1:99:e3:ce:5c:ec:41:a6:23:bb:4d:b7:cf:1b:e5:16:1a:
         c2:17:2d:08:69:24:e8:45:22:22:88:ef:11:34:fd:cb:59:e0:
         ea:1b:0a:9a:fc:16:8d:20:d5:d4:53:82:d5:4c:85:fc:3e:f1:
         63:62:4e:ce:a8:fe:e7:eb:cb:95:c6:cb:6f:7e:47:cb:21:49:
         cf:9a:3c:95:de:9c:6e:51:21:76:b3:c3:79:9d:c2:ea:98:39:
         f7:8a:2d:e0:e8:e5:e6:af:a8:46:99:a9:43:9e:7b:b8:3d:5b:
         e4:b3:81:37:3d:7b:0d:71:ef:f4:b7:a3:59:a0:04:3e:79:e1:
         16:b6:d0:fc:87:71:77:d2:93:3e:c9:59:63:35:37:84:b5:57:
         f9:bf:94:c8:02:ab:c7:2a:ad:bc:3a:de:f8:8b:2b:84:eb:d4:
         f2:7f:51:c9:43:19:a2:ac:a0:0d:df:f0:22:f6:a4:6c:e7:b1:
         1b:39:6a:a0:3f:89:f9:06:2e:70:ef:a2:23:b9:ad:ba:89:d7:
         86:5b:2b:3e:1f:2d:21:55:f9:19:ec:21:f8:c6:fd:7c:c6:dd:
         eb:6b:cc:0d:48:01:8d:71:bb:1b:30:02:97:1b:fb:20:fe:2b:
         b8:49:87:81:9b:23:bb:65:fd:6c:41:bd:e6:6b:dd:fa:1c:b7:
         d9:a5:61:38:89:91:1a:ce:8d:8a:d9:11:7f:2b:b7:63:40:aa:
         02:10:81:6b:a0:14:06:55:57:f9:c4:d5:ef:7e:dd:ab:fe:d9:
         c5:8a:4e:6c:69:2f:4f:f9:1c:7c:04:a6:24:98:fd:f6:fb:94:
         3f:d0:e7:14:ac:53:24:df:30:8b:65:46:dc:78:a6:a9:05:67:
         39:ff:ce:18:8e:02:08:6b:bc:ee:bd:87:fe:67:db:82:a4:16:
         e5:af:4b:fa:3c:d5:1a:65:bf:58:11:43:cb:62:ac:43:c9:b3:
         78:76:62:21:dc:0d:bf:b8:8a:ba:b6:7c:fe:b2:e1:a9:58:c8:
         69:70:1a:54:87:ab:ae:11:a0:89:cc:54:a0:f0:08:25:7a:2d:
         5a:36:d4:ce:1d:3f:5c:d8:6b:75:fe:6f:90:21:eb:c7:79:e7:
         2c:eb:2c:ba:ac:f1:fd:43:25:85:0f:8c:21:12:90:5b:ed:8b:
         d6:18:de:50:90:c6:0f:fd:1c:f1:24:70:17:5b:70:0c:c8:98:
         8b:a8:7b:1a:ea:6f:7d:a8:e4:60:fb:b1:3e:d4:38:4b:36:60:
         3d:03:cd:e7:da:ef:e5:df:e7:56:ae:35:3d:ac:76:6b:5e:31:
         e3:e9:21:7c:ea:ec:5c:44:2e:c1:4b:b0:04:e6:5d:b2:e3:91:
         88:10:2e:04:02:39:c7:68
-----BEGIN CERTIFICATE-----
MIIGrTCCBJWgAwIBAgICJakwDQYJKoZIhvcNAQELBQAwgawxCzAJBgNVBAYTAlVT
MQswCQYDVQQIEwJPSDERMA8GA1UEBxMIQ29sdW1idXMxEjAQBgNVBAoTCVZpa2lu
Z1ZQTjEdMBsGA1UECxMUTXlPcmdhbml6YXRpb25hbFVuaXQxFTATBgNVBAMTDFZp
a2luZ1ZQTiBDQTEQMA4GA1UEKRMHRWFzeVJTQTEhMB8GCSqGSIb3DQEJARYSbWVA
bXlob3N0Lm15ZG9tYWluMB4XDTE2MTIwNDEzMzE1MloXDTI2MTIwMjEzMzE1Mlow
HzEdMBsGA1UEAxMUQ2xpZW50MTg4MkNlcnRkNmNhNmUwggIiMA0GCSqGSIb3DQEB
AQUAA4ICDwAwggIKAoICAQDb4GS9ZnYrrRiw0CWwN/nDLPDxS6WFPtHHv8GzQU1T
UgN640efFP6vR5DilKz9iz4Fyrgn6AVKoTYeqadNuMfjarthGknHcKg4Cmy3rf1Y
Ye80UoUnrCpUm3dCLoBtt7Nwa3y12iCADYHGOjHP3Z6g+CDVzGe13arowpi0w5aD
V93/4/crDjTaED3GbYFRGhrzr1pVSq+GXlNKpdPWmFBC+/LoCHL1XYi4J5XFCpzY
JbKoNx8IzTSjydCgk2jnLPC3G0HWwcuYxjia2cLFaBiWuUsmOsl9ssh9h0VVqFVC
+wzwmGwsO9CyPLkdZxU8SO1S/atquOwbE/T+wwHn7ZpvlyNxGt+cNR9L+rXO3FRA
FE8RshTWM+9xWRccQbNmwIuzoKaWlh/CYhxlvt/dyWqMcXfJFWbacOMyS+tizFV9
LOmlU+zUdpoK+FitW3QTjfDiYswibTxFdp/uxbNnTpCbXfTJ0Ycb76PbD80kkKPZ
CzPRMNMs/otpxBUoXFqKR+7iYHwj5Uz1aXA002EBnvrSnnq1pg39W1Dd8vxDBUuk
h45vQzNkb1U6T3FUp6Gb4eVyqJvQFqmvLphF4ALkcAxRbwdQbN0fcm/RBSfkjHo7
xEez+bJXykjd2TPcdyWHXyvYhXHWVoMwwDDxGI3FsxPcuK3TpICh5SJ1H4MujXfC
DQIDAQABo4IBYzCCAV8wCQYDVR0TBAIwADAtBglghkgBhvhCAQ0EIBYeRWFzeS1S
U0EgR2VuZXJhdGVkIENlcnRpZmljYXRlMB0GA1UdDgQWBBQzrWJKxRZdhEoSq6Ih
aB3cZFWiEjCB4QYDVR0jBIHZMIHWgBQSzWAE0qCAnnDtxpm4eyzGUv0ZoaGBsqSB
rzCBrDELMAkGA1UEBhMCVVMxCzAJBgNVBAgTAk9IMREwDwYDVQQHEwhDb2x1bWJ1
czESMBAGA1UEChMJVmlraW5nVlBOMR0wGwYDVQQLExRNeU9yZ2FuaXphdGlvbmFs
VW5pdDEVMBMGA1UEAxMMVmlraW5nVlBOIENBMRAwDgYDVQQpEwdFYXN5UlNBMSEw
HwYJKoZIhvcNAQkBFhJtZUBteWhvc3QubXlkb21haW6CCQDPNYXugL8qPjATBgNV
HSUEDDAKBggrBgEFBQcDAjALBgNVHQ8EBAMCB4AwDQYJKoZIhvcNAQELBQADggIB
AELRmePOXOxBpiO7TbfPG+UWGsIXLQhpJOhFIiKI7xE0/ctZ4OobCpr8Fo0g1dRT
gtVMhfw+8WNiTs6o/ufry5XGy29+R8shSc+aPJXenG5RIXazw3mdwuqYOfeKLeDo
5eavqEaZqUOee7g9W+SzgTc9ew1x7/S3o1mgBD554Ra20PyHcXfSkz7JWWM1N4S1
V/m/lMgCq8cqrbw63viLK4Tr1PJ/UclDGaKsoA3f8CL2pGznsRs5aqA/ifkGLnDv
oiO5rbqJ14ZbKz4fLSFV+RnsIfjG/XzG3etrzA1IAY1xuxswApcb+yD+K7hJh4Gb
I7tl/WxBveZr3foct9mlYTiJkRrOjYrZEX8rt2NAqgIQgWugFAZVV/nE1e9+3av+
2cWKTmxpL0/5HHwEpiSY/fb7lD/Q5xSsUyTfMItlRtx4pqkFZzn/zhiOAghrvO69
h/5n24KkFuWvS/o81Rplv1gRQ8tirEPJs3h2YiHcDb+4irq2fP6y4alYyGlwGlSH
q64RoInMVKDwCCV6LVo21M4dP1zYa3X+b5Ah68d55yzrLLqs8f1DJYUPjCESkFvt
i9YY3lCQxg/9HPEkcBdbcAzImIuoexrqb32o5GD7sT7UOEs2YD0Dzefa7+Xf51au
NT2sdmteMePpIXzq7FxELsFLsATmXbLjkYgQLgQCOcdo
-----END CERTIFICATE-----
