Certificate:
    Data:
        Version: 3 (0x2)
        Serial Number: 11380 (0x2c74)
    Signature Algorithm: sha256WithRSAEncryption
        Issuer: C=US, ST=OH, L=Columbus, O=VikingVPN, OU=MyOrganizationalUnit, CN=VikingVPN CA/name=EasyRSA/emailAddress=me@myhost.mydomain
        Validity
            Not Before: Jul 22 10:18:28 2017 GMT
            Not After : Jul 20 10:18:28 2027 GMT
        Subject: CN=Client2693Cert9ec0e2
        Subject Public Key Info:
            Public Key Algorithm: rsaEncryption
                Public-Key: (4096 bit)
                Modulus:
                    00:da:ae:df:38:40:ac:38:b3:bf:6c:12:f5:7b:d1:
                    8f:b7:9e:5b:38:5b:45:54:53:49:64:1e:1e:6f:b7:
                    c8:8c:cc:47:48:c7:9e:8e:93:a5:1e:61:83:d0:33:
                    ec:e9:23:a2:2d:70:5f:79:57:25:2e:65:52:f7:b9:
                    34:7e:5d:32:28:ea:21:0f:c4:25:19:6c:a2:6e:7e:
                    5f:11:83:8b:7c:20:01:45:3d:77:d0:e0:b0:35:39:
                    a3:25:07:ac:6f:2c:64:a4:4c:24:f4:5d:56:9b:70:
                    08:1e:bd:f9:aa:8f:24:96:42:9c:79:f1:02:da:2a:
                    8b:c3:6e:79:85:3b:5c:1d:51:05:2c:63:d8:a5:de:
                    fe:ff:7f:d3:50:97:ec:5b:01:70:62:0c:ae:79:03:
                    42:1c:ae:50:8a:53:7e:b1:51:c9:1a:ec:91:87:80:
                    04:86:7a:7c:fc:44:e9:e8:17:47:70:dc:33:ee:dd:
                    26:4c:f8:9b:76:0d:c1:24:eb:54:e2:26:2d:4b:c0:
                    62:3c:06:35:09:8a:99:86:74:a8:18:72:24:87:3f:
                    ef:7f:2a:62:0c:d2:22:cc:80:24:97:7f:e2:e4:df:
                    82:ba:e9:f6:cf:64:63:2e:29:f2:9e:ff:cf:f1:0b:
                    f2:e1:3c:03:38:a9:fe:b7:42:32:eb:18:47:44:93:
                    95:06:ce:b5:ac:57:f3:85:77:2d:e6:d5:2e:01:88:
                    6c:1a:76:a7:f7:dc:71:a2:71:05:e7:03:43:e4:f1:
                    47:e8:b6:a0:0c:4e:13:c3:7b:f6:03:54:0f:12:b1:
                    1a:33:2c:33:f1:c8:2a:bd:61:c5:79:8a:72:c5:e2:
                    34:57:fb:e8:81:5f:48:d1:6b:ae:41:e0:b6:53:58:
                    98:53:e5:16:90:59:bb:38:ba:47:ba:2a:de:9b:10:
                    40:c0:71:94:da:b0:c5:13:fc:bc:9c:5b:31:97:dd:
                    e2:41:f9:da:89:7b:83:05:5d:25:36:16:b3:8d:19:
                    83:44:81:c9:f6:28:6c:5f:57:0b:53:c8:f7:99:db:
                    6b:a7:cb:2c:4e:a8:3e:a3:d2:23:eb:1c:fb:00:6d:
                    67:25:0f:04:8f:50:7d:ed:26:e2:4d:19:03:3d:e0:
                    22:ee:a1:96:20:2c:ec:2b:f1:78:ef:3d:63:d1:25:
                    10:70:29:90:21:e6:e0:06:48:cd:75:c2:78:56:a9:
                    20:16:00:95:0f:50:95:fc:81:e9:0f:16:2a:9c:3b:
                    3d:98:6d:89:e1:2d:03:92:7f:86:0d:63:77:4a:0b:
                    69:40:ec:41:56:ca:19:0c:8e:b0:97:7a:8b:a4:1a:
                    9f:96:b5:d8:6f:29:0d:f6:66:86:79:7c:69:a3:12:
                    ab:c8:bb
                Exponent: 65537 (0x10001)
        X509v3 extensions:
            X509v3 Basic Constraints: 
                CA:FALSE
            Netscape Comment: 
                Easy-RSA Generated Certificate
            X509v3 Subject Key Identifier: 
                5B:84:06:83:EE:54:68:71:6A:DC:10:47:0E:70:FD:77:80:9F:F8:BB
            X509v3 Authority Key Identifier: 
                keyid:12:CD:60:04:D2:A0:80:9E:70:ED:C6:99:B8:7B:2C:C6:52:FD:19:A1
                DirName:/C=US/ST=OH/L=Columbus/O=VikingVPN/OU=MyOrganizationalUnit/CN=VikingVPN CA/name=EasyRSA/emailAddress=me@myhost.mydomain
                serial:CF:35:85:EE:80:BF:2A:3E

            X509v3 Extended Key Usage: 
                TLS Web Client Authentication
            X509v3 Key Usage: 
                Digital Signature
    Signature Algorithm: sha256WithRSAEncryption
         d3:bf:3a:33:b5:ba:99:8c:99:9d:61:ad:7d:e2:17:8f:f7:ae:
         3f:35:b3:e6:97:94:87:74:74:86:08:4f:9a:7f:7a:2b:0c:1b:
         a2:2a:02:5b:a2:2f:cb:21:21:5d:a0:db:81:bc:ea:a5:b7:0c:
         02:20:d4:f8:c5:ac:9a:a7:5a:d0:50:55:a0:ea:c7:37:70:09:
         ff:09:aa:11:19:fb:f8:da:e4:40:58:29:54:b1:c9:f9:c2:64:
         3a:4a:73:bb:be:f0:07:5a:5e:b8:3c:2b:18:f7:f5:ce:8d:ec:
         27:19:77:5f:7d:56:19:35:c1:2b:c0:4d:25:9a:6c:fe:2b:1c:
         d2:9c:8c:a9:0f:04:cc:e6:db:11:2b:f3:71:4e:ce:c0:f1:2b:
         6d:8f:29:e8:1c:e6:ed:45:8e:02:3f:c4:e9:06:8c:12:b6:82:
         b0:71:3f:53:2c:0c:29:a6:09:c6:cc:8b:6f:1e:ea:29:73:a0:
         b1:84:ac:0e:5a:53:ef:54:ab:56:79:91:c8:ea:ee:94:8d:f9:
         e7:17:4f:05:4c:a4:9f:fa:e2:be:bc:d5:f5:24:d4:9b:e5:ac:
         b9:22:b4:64:05:9f:96:77:59:49:41:37:93:4e:31:69:d2:e2:
         8f:d1:61:6e:a8:d9:ee:5c:51:45:f3:d8:af:bb:b8:92:0a:72:
         e1:53:32:4f:17:7b:49:ab:11:e8:73:9d:1f:eb:61:4b:95:1a:
         13:9f:af:3b:e6:c6:ce:d3:eb:74:da:bb:a8:68:ad:6b:2c:91:
         aa:81:f2:39:cc:4a:f5:7b:69:b6:15:47:d8:37:2d:dd:bb:e5:
         75:14:2c:2a:2c:f9:85:1a:1e:87:eb:d7:43:1b:47:57:fa:14:
         92:f7:b7:be:ea:a3:bc:f6:d0:9f:57:00:7b:5f:cd:1b:d1:45:
         c3:6c:fd:35:80:0a:1a:c1:91:ca:1a:b2:d0:73:de:e6:f1:a0:
         87:ab:74:17:f7:fe:b3:95:6a:f7:aa:85:5f:47:cb:96:79:cf:
         1e:03:0f:0d:a1:d3:f6:50:e0:e0:9b:e9:18:a3:86:ce:2c:89:
         ca:de:c6:71:59:59:25:cc:41:4e:bd:fc:08:79:2a:c8:9c:7d:
         85:d7:3d:44:73:f4:13:b0:3a:c2:05:ad:65:a4:c3:ea:76:30:
         06:3b:82:e2:08:2b:55:f0:e8:de:dd:ba:ff:d9:5f:57:b5:9b:
         ee:d7:0e:91:55:c6:c7:bc:59:bb:d2:53:5d:54:34:6d:f9:59:
         31:53:82:56:8c:06:f1:9c:a2:4d:b6:16:54:e5:b2:61:28:52:
         da:b2:79:9c:49:7a:4d:c6:ea:5d:74:3b:2d:8b:e0:ac:ad:85:
         fc:4f:90:ed:5a:50:78:cb
-----BEGIN CERTIFICATE-----
MIIGrTCCBJWgAwIBAgICLHQwDQYJKoZIhvcNAQELBQAwgawxCzAJBgNVBAYTAlVT
MQswCQYDVQQIEwJPSDERMA8GA1UEBxMIQ29sdW1idXMxEjAQBgNVBAoTCVZpa2lu
Z1ZQTjEdMBsGA1UECxMUTXlPcmdhbml6YXRpb25hbFVuaXQxFTATBgNVBAMTDFZp
a2luZ1ZQTiBDQTEQMA4GA1UEKRMHRWFzeVJTQTEhMB8GCSqGSIb3DQEJARYSbWVA
bXlob3N0Lm15ZG9tYWluMB4XDTE3MDcyMjEwMTgyOFoXDTI3MDcyMDEwMTgyOFow
HzEdMBsGA1UEAxMUQ2xpZW50MjY5M0NlcnQ5ZWMwZTIwggIiMA0GCSqGSIb3DQEB
AQUAA4ICDwAwggIKAoICAQDart84QKw4s79sEvV70Y+3nls4W0VUU0lkHh5vt8iM
zEdIx56Ok6UeYYPQM+zpI6ItcF95VyUuZVL3uTR+XTIo6iEPxCUZbKJufl8Rg4t8
IAFFPXfQ4LA1OaMlB6xvLGSkTCT0XVabcAgevfmqjySWQpx58QLaKovDbnmFO1wd
UQUsY9il3v7/f9NQl+xbAXBiDK55A0IcrlCKU36xUcka7JGHgASGenz8ROnoF0dw
3DPu3SZM+Jt2DcEk61TiJi1LwGI8BjUJipmGdKgYciSHP+9/KmIM0iLMgCSXf+Lk
34K66fbPZGMuKfKe/8/xC/LhPAM4qf63QjLrGEdEk5UGzrWsV/OFdy3m1S4BiGwa
dqf33HGicQXnA0Pk8UfotqAMThPDe/YDVA8SsRozLDPxyCq9YcV5inLF4jRX++iB
X0jRa65B4LZTWJhT5RaQWbs4uke6Kt6bEEDAcZTasMUT/LycWzGX3eJB+dqJe4MF
XSU2FrONGYNEgcn2KGxfVwtTyPeZ22unyyxOqD6j0iPrHPsAbWclDwSPUH3tJuJN
GQM94CLuoZYgLOwr8XjvPWPRJRBwKZAh5uAGSM11wnhWqSAWAJUPUJX8gekPFiqc
Oz2YbYnhLQOSf4YNY3dKC2lA7EFWyhkMjrCXeoukGp+WtdhvKQ32ZoZ5fGmjEqvI
uwIDAQABo4IBYzCCAV8wCQYDVR0TBAIwADAtBglghkgBhvhCAQ0EIBYeRWFzeS1S
U0EgR2VuZXJhdGVkIENlcnRpZmljYXRlMB0GA1UdDgQWBBRbhAaD7lRocWrcEEcO
cP13gJ/4uzCB4QYDVR0jBIHZMIHWgBQSzWAE0qCAnnDtxpm4eyzGUv0ZoaGBsqSB
rzCBrDELMAkGA1UEBhMCVVMxCzAJBgNVBAgTAk9IMREwDwYDVQQHEwhDb2x1bWJ1
czESMBAGA1UEChMJVmlraW5nVlBOMR0wGwYDVQQLExRNeU9yZ2FuaXphdGlvbmFs
VW5pdDEVMBMGA1UEAxMMVmlraW5nVlBOIENBMRAwDgYDVQQpEwdFYXN5UlNBMSEw
HwYJKoZIhvcNAQkBFhJtZUBteWhvc3QubXlkb21haW6CCQDPNYXugL8qPjATBgNV
HSUEDDAKBggrBgEFBQcDAjALBgNVHQ8EBAMCB4AwDQYJKoZIhvcNAQELBQADggIB
ANO/OjO1upmMmZ1hrX3iF4/3rj81s+aXlId0dIYIT5p/eisMG6IqAluiL8shIV2g
24G86qW3DAIg1PjFrJqnWtBQVaDqxzdwCf8JqhEZ+/ja5EBYKVSxyfnCZDpKc7u+
8AdaXrg8Kxj39c6N7CcZd199Vhk1wSvATSWabP4rHNKcjKkPBMzm2xEr83FOzsDx
K22PKegc5u1FjgI/xOkGjBK2grBxP1MsDCmmCcbMi28e6ilzoLGErA5aU+9Uq1Z5
kcjq7pSN+ecXTwVMpJ/64r681fUk1JvlrLkitGQFn5Z3WUlBN5NOMWnS4o/RYW6o
2e5cUUXz2K+7uJIKcuFTMk8Xe0mrEehznR/rYUuVGhOfrzvmxs7T63Tau6horWss
kaqB8jnMSvV7abYVR9g3Ld275XUULCos+YUaHofr10MbR1f6FJL3t77qo7z20J9X
AHtfzRvRRcNs/TWAChrBkcoastBz3ubxoIerdBf3/rOVaveqhV9Hy5Z5zx4DDw2h
0/ZQ4OCb6Rijhs4sicrexnFZWSXMQU69/Ah5KsicfYXXPURz9BOwOsIFrWWkw+p2
MAY7guIIK1Xw6N7duv/ZX1e1m+7XDpFVxse8WbvSU11UNG35WTFTglaMBvGcok22
FlTlsmEoUtqyeZxJek3G6l10Oy2L4KythfxPkO1aUHjL
-----END CERTIFICATE-----
