Certificate:
    Data:
        Version: 3 (0x2)
        Serial Number: 5403 (0x151b)
    Signature Algorithm: md5WithRSAEncryption
        Issuer: C=US, ST=OH, L=Columbus, O=VikingVPN, OU=MyOrganizationalUnit, CN=VikingVPN CA/name=EasyRSA/emailAddress=me@myhost.mydomain
        Validity
            Not Before: May 27 11:48:27 2015 GMT
            Not After : May 24 11:48:27 2025 GMT
        Subject: CN=Client1717Cert299c69
        Subject Public Key Info:
            Public Key Algorithm: rsaEncryption
                Public-Key: (4096 bit)
                Modulus:
                    00:ea:0e:67:21:d0:c5:70:79:74:5c:62:df:3a:a8:
                    f5:c7:27:98:9c:9e:3b:27:c0:13:38:e5:48:00:c8:
                    f8:a4:46:42:85:50:1f:04:53:80:6b:af:50:62:60:
                    9f:59:53:16:26:88:d9:ac:b2:06:b0:8c:c4:df:45:
                    c6:08:26:87:c0:fd:d1:5e:7b:f7:35:71:d7:2e:14:
                    b8:2a:c6:2c:e4:bf:d9:0e:6f:2d:71:b1:d2:86:f9:
                    73:91:48:82:e5:67:33:19:35:77:f9:0e:8b:8c:0c:
                    02:eb:1e:85:e3:c0:86:17:7b:f6:e3:42:29:8f:18:
                    ec:58:f0:d2:14:7b:8a:50:f6:a0:e7:39:a8:2b:84:
                    07:4c:2d:0e:7b:91:0b:78:1c:eb:4f:77:1f:bf:ba:
                    ef:b0:ba:26:f6:bc:70:19:52:3c:c1:42:1b:01:5b:
                    ac:27:ee:ce:05:98:28:3e:69:d1:cf:d1:43:1c:3e:
                    20:5e:a4:49:e7:e4:9d:e6:69:8b:6d:3b:89:ae:97:
                    c7:04:7d:51:08:f7:ea:90:56:16:58:b7:f7:9a:85:
                    57:f9:95:ae:bf:f3:82:4b:04:c6:49:05:ef:ea:5e:
                    1a:6e:c0:82:35:59:02:5e:af:64:69:5a:5d:0d:49:
                    a5:b0:36:0c:b9:10:fa:a0:4a:ee:db:32:47:a0:5f:
                    e2:87:cf:e9:75:18:25:d1:dd:81:27:cd:ee:b6:84:
                    66:86:2c:a9:9f:55:8a:97:5a:77:fa:60:65:36:72:
                    df:ec:02:67:67:6a:a6:5d:b7:77:5e:97:3d:cd:11:
                    d5:28:1e:43:68:32:69:14:ba:78:8a:5e:6c:70:a6:
                    e8:e9:6e:ac:3c:94:ca:ff:c8:44:49:40:05:83:49:
                    18:e9:c9:47:3a:a5:1a:8c:b3:cc:9d:1e:c2:29:0b:
                    51:9c:ff:34:40:0d:a3:6f:99:e1:9f:84:3c:ba:7e:
                    bb:31:cc:49:78:f4:3f:97:33:ff:93:f7:41:e0:12:
                    7a:2c:b0:71:b4:e4:f9:94:9a:0f:d5:bd:94:19:83:
                    c8:f2:7d:20:51:13:a7:66:29:43:22:1a:72:3f:3f:
                    9e:73:c4:9f:19:0e:79:2d:64:3b:ad:5b:da:ca:fc:
                    66:93:a9:c6:43:76:a8:b4:1a:dd:7c:25:85:92:1e:
                    07:cb:b0:90:61:fe:fc:3c:19:3e:09:86:b4:ba:30:
                    d7:7d:4b:b2:2e:01:7c:d0:5f:05:b8:f0:9a:99:85:
                    4b:1b:e8:08:a2:a6:13:e7:b1:45:20:86:42:f7:b4:
                    ed:1a:f9:6a:cf:18:58:01:68:49:90:d3:24:1c:da:
                    74:be:2a:da:e8:04:fe:b4:7f:e5:ad:ee:e9:e6:89:
                    dc:65:ab
                Exponent: 65537 (0x10001)
        X509v3 extensions:
            X509v3 Basic Constraints: 
                CA:FALSE
            Netscape Comment: 
                Easy-RSA Generated Certificate
            X509v3 Subject Key Identifier: 
                77:4F:AE:E6:D2:1D:12:4B:A3:3E:56:8C:C7:85:E5:1F:1F:32:12:BE
            X509v3 Authority Key Identifier: 
                keyid:12:CD:60:04:D2:A0:80:9E:70:ED:C6:99:B8:7B:2C:C6:52:FD:19:A1
                DirName:/C=US/ST=OH/L=Columbus/O=VikingVPN/OU=MyOrganizationalUnit/CN=VikingVPN CA/name=EasyRSA/emailAddress=me@myhost.mydomain
                serial:CF:35:85:EE:80:BF:2A:3E

            X509v3 Extended Key Usage: 
                TLS Web Client Authentication
            X509v3 Key Usage: 
                Digital Signature
    Signature Algorithm: md5WithRSAEncryption
         91:d3:8d:68:36:e6:d4:b6:e3:6b:e2:c8:2c:7f:94:5d:a5:7c:
         d2:d5:34:4c:3b:2f:8a:f7:5a:47:79:e9:99:c1:f5:38:a3:40:
         4c:b0:1f:f1:e5:bb:11:b2:19:bc:1c:51:40:08:63:f6:ce:3f:
         fd:49:83:ea:7a:2a:7c:a6:4f:9b:1e:52:16:09:03:11:14:aa:
         e6:ce:95:67:44:90:e9:72:b4:b1:a4:5f:84:21:9c:a9:83:f1:
         87:ec:dd:9e:52:d2:15:33:a9:64:79:e6:32:57:78:d5:25:bb:
         18:d9:4a:bc:8b:63:34:ef:f6:3c:a4:89:03:6a:a7:a0:cf:5c:
         44:3b:b2:89:b3:e4:80:07:0c:74:39:25:38:be:19:9b:50:ff:
         6e:0d:59:f2:97:ba:e8:e3:11:7d:28:cc:ec:14:98:98:e5:87:
         84:43:ea:b9:bd:76:47:46:31:fb:57:c8:8b:9e:89:73:aa:8b:
         2b:7f:47:f3:63:c3:b5:17:81:7a:a5:20:3c:32:f4:8a:a8:1e:
         b2:00:19:29:41:b4:09:1f:f8:60:57:d4:fb:b6:7a:60:70:43:
         f4:c3:34:6f:4b:25:ee:43:18:3b:01:4e:70:50:24:f7:46:35:
         80:7b:de:e1:7d:32:8b:11:0a:d8:94:aa:05:de:99:14:21:34:
         8f:da:de:a2:0f:84:08:a8:39:60:86:87:fe:df:1a:7e:6a:25:
         6c:46:28:d1:f6:b2:f3:89:a9:8d:33:f6:a3:41:49:01:96:cb:
         73:0d:3e:a7:18:ec:88:f3:91:52:d5:44:17:af:28:30:67:c9:
         85:92:80:61:bf:06:4f:09:84:eb:2a:94:cb:af:65:0c:38:d4:
         2b:95:76:ee:f7:c3:16:50:58:c2:f1:c1:c6:39:dc:f4:23:d6:
         83:92:04:6c:31:6c:d3:1c:23:07:74:f3:35:c5:16:cd:f6:40:
         f8:6f:30:ab:67:90:a2:5e:5e:6f:ec:ba:a2:d0:02:b9:e0:c0:
         c8:eb:2f:ad:7e:3b:7b:40:76:3e:7d:bd:ca:7e:0e:33:7c:0a:
         03:89:e0:a8:00:f5:6a:7b:21:ee:22:68:bc:26:6f:a4:4f:88:
         b0:ef:82:13:75:38:55:8b:8a:f1:9a:21:61:a1:df:23:b6:02:
         38:53:67:c7:46:e0:f8:f4:cd:c5:9e:8d:e4:b7:f1:fa:b2:c4:
         df:b2:03:c6:f6:26:2d:89:6f:b3:24:77:63:b9:b5:45:2a:00:
         1a:74:d3:23:c9:47:cf:3b:25:1f:fc:f6:c0:4e:f7:3a:77:fe:
         e1:dd:50:76:46:3f:9f:e1:b3:76:aa:21:27:a4:13:1b:b0:4c:
         35:b2:a4:36:76:65:b0:e0
-----BEGIN CERTIFICATE-----
MIIGrTCCBJWgAwIBAgICFRswDQYJKoZIhvcNAQEEBQAwgawxCzAJBgNVBAYTAlVT
MQswCQYDVQQIEwJPSDERMA8GA1UEBxMIQ29sdW1idXMxEjAQBgNVBAoTCVZpa2lu
Z1ZQTjEdMBsGA1UECxMUTXlPcmdhbml6YXRpb25hbFVuaXQxFTATBgNVBAMTDFZp
a2luZ1ZQTiBDQTEQMA4GA1UEKRMHRWFzeVJTQTEhMB8GCSqGSIb3DQEJARYSbWVA
bXlob3N0Lm15ZG9tYWluMB4XDTE1MDUyNzExNDgyN1oXDTI1MDUyNDExNDgyN1ow
HzEdMBsGA1UEAxMUQ2xpZW50MTcxN0NlcnQyOTljNjkwggIiMA0GCSqGSIb3DQEB
AQUAA4ICDwAwggIKAoICAQDqDmch0MVweXRcYt86qPXHJ5icnjsnwBM45UgAyPik
RkKFUB8EU4Brr1BiYJ9ZUxYmiNmssgawjMTfRcYIJofA/dFee/c1cdcuFLgqxizk
v9kOby1xsdKG+XORSILlZzMZNXf5DouMDALrHoXjwIYXe/bjQimPGOxY8NIUe4pQ
9qDnOagrhAdMLQ57kQt4HOtPdx+/uu+wuib2vHAZUjzBQhsBW6wn7s4FmCg+adHP
0UMcPiBepEnn5J3maYttO4mul8cEfVEI9+qQVhZYt/eahVf5la6/84JLBMZJBe/q
XhpuwII1WQJer2RpWl0NSaWwNgy5EPqgSu7bMkegX+KHz+l1GCXR3YEnze62hGaG
LKmfVYqXWnf6YGU2ct/sAmdnaqZdt3delz3NEdUoHkNoMmkUuniKXmxwpujpbqw8
lMr/yERJQAWDSRjpyUc6pRqMs8ydHsIpC1Gc/zRADaNvmeGfhDy6frsxzEl49D+X
M/+T90HgEnossHG05PmUmg/VvZQZg8jyfSBRE6dmKUMiGnI/P55zxJ8ZDnktZDut
W9rK/GaTqcZDdqi0Gt18JYWSHgfLsJBh/vw8GT4JhrS6MNd9S7IuAXzQXwW48JqZ
hUsb6AiiphPnsUUghkL3tO0a+WrPGFgBaEmQ0yQc2nS+KtroBP60f+Wt7unmidxl
qwIDAQABo4IBYzCCAV8wCQYDVR0TBAIwADAtBglghkgBhvhCAQ0EIBYeRWFzeS1S
U0EgR2VuZXJhdGVkIENlcnRpZmljYXRlMB0GA1UdDgQWBBR3T67m0h0SS6M+VozH
heUfHzISvjCB4QYDVR0jBIHZMIHWgBQSzWAE0qCAnnDtxpm4eyzGUv0ZoaGBsqSB
rzCBrDELMAkGA1UEBhMCVVMxCzAJBgNVBAgTAk9IMREwDwYDVQQHEwhDb2x1bWJ1
czESMBAGA1UEChMJVmlraW5nVlBOMR0wGwYDVQQLExRNeU9yZ2FuaXphdGlvbmFs
VW5pdDEVMBMGA1UEAxMMVmlraW5nVlBOIENBMRAwDgYDVQQpEwdFYXN5UlNBMSEw
HwYJKoZIhvcNAQkBFhJtZUBteWhvc3QubXlkb21haW6CCQDPNYXugL8qPjATBgNV
HSUEDDAKBggrBgEFBQcDAjALBgNVHQ8EBAMCB4AwDQYJKoZIhvcNAQEEBQADggIB
AJHTjWg25tS242viyCx/lF2lfNLVNEw7L4r3Wkd56ZnB9TijQEywH/HluxGyGbwc
UUAIY/bOP/1Jg+p6KnymT5seUhYJAxEUqubOlWdEkOlytLGkX4QhnKmD8Yfs3Z5S
0hUzqWR55jJXeNUluxjZSryLYzTv9jykiQNqp6DPXEQ7somz5IAHDHQ5JTi+GZtQ
/24NWfKXuujjEX0ozOwUmJjlh4RD6rm9dkdGMftXyIueiXOqiyt/R/Njw7UXgXql
IDwy9IqoHrIAGSlBtAkf+GBX1Pu2emBwQ/TDNG9LJe5DGDsBTnBQJPdGNYB73uF9
MosRCtiUqgXemRQhNI/a3qIPhAioOWCGh/7fGn5qJWxGKNH2svOJqY0z9qNBSQGW
y3MNPqcY7IjzkVLVRBevKDBnyYWSgGG/Bk8JhOsqlMuvZQw41CuVdu73wxZQWMLx
wcY53PQj1oOSBGwxbNMcIwd08zXFFs32QPhvMKtnkKJeXm/suqLQArngwMjrL61+
O3tAdj59vcp+DjN8CgOJ4KgA9Wp7Ie4iaLwmb6RPiLDvghN1OFWLivGaIWGh3yO2
AjhTZ8dG4Pj0zcWejeS38fqyxN+yA8b2Ji2Jb7Mkd2O5tUUqABp00yPJR887JR/8
9sBO9zp3/uHdUHZGP5/hs3aqISekExuwTDWypDZ2ZbDg
-----END CERTIFICATE-----
