Certificate:
    Data:
        Version: 3 (0x2)
        Serial Number: 7648 (0x1de0)
    Signature Algorithm: md5WithRSAEncryption
        Issuer: C=US, ST=OH, L=Columbus, O=VikingVPN, OU=MyOrganizationalUnit, CN=VikingVPN CA/name=EasyRSA/emailAddress=me@myhost.mydomain
        Validity
            Not Before: Apr  2 11:27:30 2016 GMT
            Not After : Mar 31 11:27:30 2026 GMT
        Subject: CN=Client1218Certc8995f
        Subject Public Key Info:
            Public Key Algorithm: rsaEncryption
                Public-Key: (4096 bit)
                Modulus:
                    00:bc:69:35:9d:3e:dd:45:98:81:63:6c:90:78:d2:
                    71:d2:a3:4b:e1:31:02:06:3f:2a:02:18:02:9e:3b:
                    87:3e:b9:c5:c8:c0:d4:e1:5f:ac:74:53:0a:95:40:
                    9b:5e:48:84:0d:41:a1:b8:be:0c:85:66:8c:38:48:
                    95:6a:aa:cf:1e:78:a1:fa:d3:c1:c5:fa:10:f0:7c:
                    a8:65:c1:f3:b1:1f:c6:ea:cb:c6:8f:4c:30:5a:6f:
                    a9:7e:e0:82:4e:f1:b9:33:eb:a9:6b:8c:15:c2:68:
                    a0:c3:a5:24:03:f1:70:f2:9b:50:5a:35:a5:1b:71:
                    3c:1b:8b:86:23:bf:c7:4f:a7:a2:e3:56:5a:e4:7b:
                    c8:07:db:e2:ae:81:46:75:30:bb:5d:c6:6a:66:38:
                    e2:e1:9e:3f:15:ef:6e:37:38:75:06:3c:07:aa:e0:
                    26:78:08:cc:c4:c1:eb:6e:26:67:da:05:8c:08:17:
                    b5:00:36:7e:af:d8:52:51:37:67:1c:08:5d:22:ce:
                    78:b8:fd:ec:a1:68:89:4b:72:f7:bb:94:08:60:58:
                    55:e2:58:a7:12:46:c4:77:f4:95:69:72:24:b1:3e:
                    57:a1:bc:18:17:0b:73:ba:61:8b:73:7d:83:cb:27:
                    8f:b3:cd:da:85:42:1d:fe:2a:40:b8:f8:39:5a:95:
                    ef:50:c4:68:9a:23:22:95:4d:b4:bb:0d:4b:7d:0e:
                    7c:32:8c:fa:c2:40:02:ff:e7:db:15:f8:07:bb:8d:
                    2d:3b:79:e2:47:63:4d:a5:85:89:f4:cd:dd:b6:f7:
                    48:7c:7d:ab:27:af:da:9b:66:60:48:d3:7a:f4:33:
                    02:02:dd:a2:ae:f6:23:21:58:e5:4c:e1:db:35:11:
                    8c:d2:d7:18:6c:84:8e:74:12:31:8f:e6:bb:0b:b0:
                    b1:78:31:a1:90:c2:70:97:d8:e1:b4:ef:7a:c3:e4:
                    07:6c:53:4c:83:48:3e:8a:cb:ab:29:68:fa:d3:e7:
                    c5:8d:c8:dd:d9:70:8a:95:5c:cb:31:dc:08:a5:08:
                    2d:b9:31:96:b7:a7:1a:bf:4a:69:b7:83:04:9f:5a:
                    56:69:7a:54:fc:aa:ce:fd:46:d7:c7:05:eb:02:15:
                    5d:e9:1a:a4:35:fd:d7:57:09:c8:95:cc:0c:cc:88:
                    f0:b0:ce:b2:9b:50:d8:bf:05:a1:2e:ba:63:14:8a:
                    af:4e:e5:33:c2:86:bc:9b:72:cc:96:16:e0:5f:b3:
                    4a:90:e7:bb:b3:8a:b3:42:33:c9:f5:11:35:f1:f1:
                    8a:09:72:03:25:f7:0e:df:84:22:62:9a:c0:1e:86:
                    3e:99:48:56:63:71:05:1c:0d:70:49:d1:14:6a:5c:
                    b3:06:bb
                Exponent: 65537 (0x10001)
        X509v3 extensions:
            X509v3 Basic Constraints: 
                CA:FALSE
            Netscape Comment: 
                Easy-RSA Generated Certificate
            X509v3 Subject Key Identifier: 
                F0:14:4F:4B:4C:D7:7C:C6:48:18:78:C4:A5:AF:6E:AF:19:E6:3A:97
            X509v3 Authority Key Identifier: 
                keyid:12:CD:60:04:D2:A0:80:9E:70:ED:C6:99:B8:7B:2C:C6:52:FD:19:A1
                DirName:/C=US/ST=OH/L=Columbus/O=VikingVPN/OU=MyOrganizationalUnit/CN=VikingVPN CA/name=EasyRSA/emailAddress=me@myhost.mydomain
                serial:CF:35:85:EE:80:BF:2A:3E

            X509v3 Extended Key Usage: 
                TLS Web Client Authentication
            X509v3 Key Usage: 
                Digital Signature
    Signature Algorithm: md5WithRSAEncryption
         2b:47:bf:94:98:52:a3:36:d0:0e:e5:bd:e6:3a:2d:a9:df:fe:
         98:19:02:c8:bb:5e:14:35:f2:9c:95:1b:33:ac:fe:1e:bf:d0:
         ca:02:e6:93:5d:fb:db:c0:8f:4f:26:b3:04:ff:8f:b3:f5:7b:
         14:ce:33:ac:51:49:e2:a4:ab:e8:af:a5:95:7c:c2:89:b2:ce:
         a1:97:b7:2f:89:3a:e2:d9:fa:a2:f8:7a:1b:f3:3a:4b:a1:ea:
         33:12:6f:3c:b8:7d:b7:2d:d5:b2:a8:52:79:33:b6:ce:89:02:
         5d:24:79:d6:14:1d:02:85:f0:4c:47:7f:70:4d:82:46:88:43:
         5d:cf:2a:7b:89:31:22:61:93:3d:14:3f:3a:7c:0b:32:90:45:
         b3:7d:f4:53:f4:c9:6c:27:34:69:62:2a:6c:5a:f5:88:77:27:
         08:10:60:bf:af:b5:8b:2a:1f:b2:6a:55:74:a9:57:2e:25:ca:
         15:4a:59:b9:29:5b:21:3e:bb:5f:cf:0b:be:eb:4d:f1:86:7d:
         34:e8:3c:a5:79:57:10:03:8b:0b:86:71:0b:00:07:c7:42:8e:
         c8:49:d2:81:73:ca:d3:77:5b:88:18:79:06:20:62:6c:c5:4c:
         b1:6f:af:7b:3f:b8:76:93:0a:cd:76:9d:17:cf:5d:96:fc:22:
         2e:27:37:4f:ef:81:36:2f:54:fc:29:3c:9c:36:a7:43:91:62:
         10:c8:a6:c0:93:28:f5:7c:c3:1f:36:5e:0c:ca:3f:29:ff:86:
         69:e0:cd:08:03:2d:a8:cc:3d:3e:1c:f9:a4:04:60:92:9d:8a:
         8a:2b:dc:cd:f5:c8:be:87:5b:04:84:bd:d3:a3:8d:ff:b7:a4:
         8a:e9:79:39:2c:66:f8:a2:e4:e7:b7:15:1c:d0:d6:84:e8:08:
         91:a5:08:9f:a8:0a:3a:0c:6e:b0:ed:e7:fa:ac:58:bb:52:99:
         b8:b2:3c:18:79:9a:31:88:65:59:ca:29:0d:6a:c1:2e:10:8b:
         1d:04:6a:5b:3b:dd:d2:8d:f6:e8:71:8c:dd:63:54:88:4e:f4:
         8a:61:63:04:f8:cc:df:50:ce:84:44:9c:31:7a:53:f5:96:5a:
         8b:cf:21:60:dd:08:fb:c1:ba:d1:d5:2d:8f:c7:e8:5c:8d:80:
         06:e8:aa:e7:4d:e5:44:e0:df:aa:e2:1f:02:56:ae:44:04:56:
         f2:dd:af:12:82:a7:c3:13:8c:7f:f5:e5:b1:5f:72:0a:d3:2b:
         25:3c:33:a0:ad:4b:1d:54:31:cb:77:89:34:c4:b1:1c:c6:62:
         2e:6b:e5:89:88:9b:5b:26:16:03:39:8a:7e:5a:48:ed:3c:d1:
         3d:2e:c6:8c:33:1e:fe:62
-----BEGIN CERTIFICATE-----
MIIGrTCCBJWgAwIBAgICHeAwDQYJKoZIhvcNAQEEBQAwgawxCzAJBgNVBAYTAlVT
MQswCQYDVQQIEwJPSDERMA8GA1UEBxMIQ29sdW1idXMxEjAQBgNVBAoTCVZpa2lu
Z1ZQTjEdMBsGA1UECxMUTXlPcmdhbml6YXRpb25hbFVuaXQxFTATBgNVBAMTDFZp
a2luZ1ZQTiBDQTEQMA4GA1UEKRMHRWFzeVJTQTEhMB8GCSqGSIb3DQEJARYSbWVA
bXlob3N0Lm15ZG9tYWluMB4XDTE2MDQwMjExMjczMFoXDTI2MDMzMTExMjczMFow
HzEdMBsGA1UEAxMUQ2xpZW50MTIxOENlcnRjODk5NWYwggIiMA0GCSqGSIb3DQEB
AQUAA4ICDwAwggIKAoICAQC8aTWdPt1FmIFjbJB40nHSo0vhMQIGPyoCGAKeO4c+
ucXIwNThX6x0UwqVQJteSIQNQaG4vgyFZow4SJVqqs8eeKH608HF+hDwfKhlwfOx
H8bqy8aPTDBab6l+4IJO8bkz66lrjBXCaKDDpSQD8XDym1BaNaUbcTwbi4Yjv8dP
p6LjVlrke8gH2+KugUZ1MLtdxmpmOOLhnj8V7243OHUGPAeq4CZ4CMzEwetuJmfa
BYwIF7UANn6v2FJRN2ccCF0izni4/eyhaIlLcve7lAhgWFXiWKcSRsR39JVpciSx
PlehvBgXC3O6YYtzfYPLJ4+zzdqFQh3+KkC4+Dlale9QxGiaIyKVTbS7DUt9Dnwy
jPrCQAL/59sV+Ae7jS07eeJHY02lhYn0zd2290h8fasnr9qbZmBI03r0MwIC3aKu
9iMhWOVM4ds1EYzS1xhshI50EjGP5rsLsLF4MaGQwnCX2OG073rD5AdsU0yDSD6K
y6spaPrT58WNyN3ZcIqVXMsx3AilCC25MZa3pxq/Smm3gwSfWlZpelT8qs79RtfH
BesCFV3pGqQ1/ddXCciVzAzMiPCwzrKbUNi/BaEuumMUiq9O5TPChrybcsyWFuBf
s0qQ57uzirNCM8n1ETXx8YoJcgMl9w7fhCJimsAehj6ZSFZjcQUcDXBJ0RRqXLMG
uwIDAQABo4IBYzCCAV8wCQYDVR0TBAIwADAtBglghkgBhvhCAQ0EIBYeRWFzeS1S
U0EgR2VuZXJhdGVkIENlcnRpZmljYXRlMB0GA1UdDgQWBBTwFE9LTNd8xkgYeMSl
r26vGeY6lzCB4QYDVR0jBIHZMIHWgBQSzWAE0qCAnnDtxpm4eyzGUv0ZoaGBsqSB
rzCBrDELMAkGA1UEBhMCVVMxCzAJBgNVBAgTAk9IMREwDwYDVQQHEwhDb2x1bWJ1
czESMBAGA1UEChMJVmlraW5nVlBOMR0wGwYDVQQLExRNeU9yZ2FuaXphdGlvbmFs
VW5pdDEVMBMGA1UEAxMMVmlraW5nVlBOIENBMRAwDgYDVQQpEwdFYXN5UlNBMSEw
HwYJKoZIhvcNAQkBFhJtZUBteWhvc3QubXlkb21haW6CCQDPNYXugL8qPjATBgNV
HSUEDDAKBggrBgEFBQcDAjALBgNVHQ8EBAMCB4AwDQYJKoZIhvcNAQEEBQADggIB
ACtHv5SYUqM20A7lveY6Lanf/pgZAsi7XhQ18pyVGzOs/h6/0MoC5pNd+9vAj08m
swT/j7P1exTOM6xRSeKkq+ivpZV8womyzqGXty+JOuLZ+qL4ehvzOkuh6jMSbzy4
fbct1bKoUnkzts6JAl0kedYUHQKF8ExHf3BNgkaIQ13PKnuJMSJhkz0UPzp8CzKQ
RbN99FP0yWwnNGliKmxa9Yh3JwgQYL+vtYsqH7JqVXSpVy4lyhVKWbkpWyE+u1/P
C77rTfGGfTToPKV5VxADiwuGcQsAB8dCjshJ0oFzytN3W4gYeQYgYmzFTLFvr3s/
uHaTCs12nRfPXZb8Ii4nN0/vgTYvVPwpPJw2p0ORYhDIpsCTKPV8wx82XgzKPyn/
hmngzQgDLajMPT4c+aQEYJKdioor3M31yL6HWwSEvdOjjf+3pIrpeTksZvii5Oe3
FRzQ1oToCJGlCJ+oCjoMbrDt5/qsWLtSmbiyPBh5mjGIZVnKKQ1qwS4Qix0Eals7
3dKN9uhxjN1jVIhO9IphYwT4zN9QzoREnDF6U/WWWovPIWDdCPvButHVLY/H6FyN
gAboqudN5UTg36riHwJWrkQEVvLdrxKCp8MTjH/15bFfcgrTKyU8M6CtSx1UMct3
iTTEsRzGYi5r5YmIm1smFgM5in5aSO080T0uxowzHv5i
-----END CERTIFICATE-----
