Certificate:
    Data:
        Version: 3 (0x2)
        Serial Number: 919 (0x397)
    Signature Algorithm: md5WithRSAEncryption
        Issuer: C=US, ST=OH, L=Columbus, O=VikingVPN, OU=MyOrganizationalUnit, CN=VikingVPN CA/name=EasyRSA/emailAddress=me@myhost.mydomain
        Validity
            Not Before: Feb  2 02:32:35 2014 GMT
            Not After : Jan 31 02:32:35 2024 GMT
        Subject: CN=Client336Cert24b62f
        Subject Public Key Info:
            Public Key Algorithm: rsaEncryption
                Public-Key: (4096 bit)
                Modulus:
                    00:a7:fa:6f:2d:98:0e:30:92:b6:d2:4d:ee:b8:7c:
                    7b:70:b2:ec:ff:16:0b:d7:aa:58:68:8a:e2:f9:31:
                    5d:c8:53:37:1d:07:e3:7b:4c:94:dc:c4:30:4d:65:
                    19:61:99:0c:39:e7:e2:60:27:c5:ef:03:7f:b8:eb:
                    d8:a0:54:6d:3e:65:c6:a1:f9:ea:41:11:f7:92:2a:
                    9b:fb:3a:c7:da:d0:bc:b7:45:c6:39:a7:03:20:4e:
                    de:89:94:92:1e:1a:5d:68:0a:a2:43:fb:77:4b:91:
                    28:8f:22:b2:44:d0:b0:db:20:8d:17:17:43:08:17:
                    da:82:5d:6f:e2:ca:57:e4:39:c5:b0:c2:6d:2e:d9:
                    98:d5:26:40:a7:ff:88:ea:e1:ac:a2:7e:b3:6e:11:
                    c0:51:39:f8:76:1f:20:43:32:17:1c:c4:35:37:21:
                    e6:2c:98:ad:83:4e:f7:30:c5:62:39:2b:6c:f8:d8:
                    76:d4:c6:3e:ac:36:34:bf:6a:06:8f:bd:ed:b4:33:
                    85:13:f5:de:b3:f5:52:e7:26:b3:85:98:4d:4f:44:
                    48:68:1a:18:a9:3d:66:c9:75:bc:04:69:e0:f7:c0:
                    e2:38:69:d4:31:da:cd:fb:07:48:20:1f:b7:3d:c9:
                    4b:ec:8c:c8:d6:2b:e9:32:53:b6:72:a7:c9:4a:79:
                    70:08:b2:ae:26:3a:92:15:9f:07:e0:14:73:c7:18:
                    ea:43:9c:e7:94:75:4f:0f:13:f0:28:f6:e9:4b:00:
                    46:d2:78:dc:48:48:e9:6f:64:da:15:f8:0e:21:a9:
                    98:c3:4e:ff:80:39:5a:87:28:fd:20:24:fe:19:dd:
                    fa:78:e9:08:9f:5f:10:9e:7e:f6:52:e4:50:c0:de:
                    39:01:24:25:2f:25:c6:0c:34:38:77:3f:3b:5f:2f:
                    4f:ad:fc:04:dc:e4:c5:f5:96:d4:c9:4b:e1:90:0f:
                    88:6a:9b:04:e5:18:64:bf:f2:a7:b1:cd:be:d1:30:
                    e9:92:bd:71:a5:a7:0a:fa:bc:29:a7:7f:01:16:e5:
                    16:e3:93:a8:64:d7:17:1a:33:dc:51:fd:f0:4c:de:
                    22:ea:39:cc:bb:a2:fb:e6:26:34:44:de:db:08:2a:
                    49:38:42:d2:4c:fc:14:cc:c2:9d:54:a3:d1:dd:37:
                    5f:d5:a9:24:4e:de:0e:1a:ca:d4:a1:a7:df:6b:c0:
                    d3:6a:23:c1:7c:61:4a:4b:a4:e3:2a:ff:1a:29:36:
                    2d:0c:be:30:9c:d8:23:f5:69:d1:c9:3e:b4:06:9d:
                    d4:9e:37:72:b6:62:7d:e0:0b:33:77:8a:ff:c6:65:
                    46:93:ee:86:f0:e4:f2:31:09:2e:19:be:ef:a3:ae:
                    c8:22:7b
                Exponent: 65537 (0x10001)
        X509v3 extensions:
            X509v3 Basic Constraints: 
                CA:FALSE
            Netscape Comment: 
                Easy-RSA Generated Certificate
            X509v3 Subject Key Identifier: 
                EF:F5:68:45:A9:A4:C7:B3:3C:1E:93:39:9B:73:2C:44:C3:76:F1:B6
            X509v3 Authority Key Identifier: 
                keyid:12:CD:60:04:D2:A0:80:9E:70:ED:C6:99:B8:7B:2C:C6:52:FD:19:A1
                DirName:/C=US/ST=OH/L=Columbus/O=VikingVPN/OU=MyOrganizationalUnit/CN=VikingVPN CA/name=EasyRSA/emailAddress=me@myhost.mydomain
                serial:CF:35:85:EE:80:BF:2A:3E

            X509v3 Extended Key Usage: 
                TLS Web Client Authentication
            X509v3 Key Usage: 
                Digital Signature
    Signature Algorithm: md5WithRSAEncryption
         c8:45:1a:6f:af:51:5a:6c:ce:5b:de:13:12:f7:6b:bd:db:04:
         9a:65:cc:82:93:cb:d0:0d:27:9d:1b:ee:44:ef:e9:91:61:48:
         bc:98:9c:b2:31:76:4f:4e:63:5b:4c:05:36:62:3f:c6:e5:64:
         cc:14:4d:c2:66:e8:d3:02:f3:53:7c:2d:04:fc:f1:2d:4d:ea:
         4f:2d:c0:12:d7:0e:18:f5:1d:70:fd:8f:8a:d3:de:d1:ea:c1:
         61:80:18:3f:a4:24:11:1e:f9:cb:2b:cd:a3:95:5d:bc:44:1f:
         ef:2c:00:3c:40:db:a3:8a:4e:7d:e1:7a:76:47:67:72:b8:c4:
         e2:39:d1:61:4b:4a:70:c6:75:85:e0:2a:27:ae:9f:54:3e:9d:
         71:b8:a6:b1:29:7f:d8:ab:22:0a:cf:d5:9e:c2:cb:f7:c1:b3:
         56:7d:c9:c0:a1:62:b1:14:d4:f3:ba:6b:d7:80:ea:94:9e:0f:
         4d:17:54:fd:34:95:88:b5:56:ff:66:ae:13:a6:0a:f8:85:8d:
         cf:30:e2:e3:3c:d9:ba:57:be:08:f9:a8:32:1f:88:fe:d5:fb:
         ef:bb:bf:c7:a7:8a:11:52:12:dd:e3:c5:9d:42:92:2e:c4:8d:
         e2:ab:a3:bf:cd:d1:cf:c8:72:49:5a:5b:ec:26:18:09:82:55:
         45:33:a1:63:a5:59:c6:98:2b:15:e1:87:72:01:c8:66:a1:bb:
         e4:55:b4:78:16:c1:c3:c4:37:b7:b6:af:a0:c3:95:35:b1:22:
         ff:26:cf:68:33:1f:3c:ad:e2:24:60:f9:bd:bb:39:bd:e9:b5:
         58:23:9b:ec:20:5b:9d:61:73:a8:78:bc:6a:a0:b1:c8:a4:e4:
         e6:16:9d:92:c8:a8:26:0c:2c:28:e5:b4:fd:35:5e:a0:55:ac:
         8e:5d:17:47:0a:b8:4a:8d:63:b3:fd:eb:4d:1c:ae:89:8a:9f:
         d7:e8:53:cb:7d:b9:d6:87:05:71:80:1f:e7:c7:d6:53:7e:5c:
         0b:3e:ce:e6:20:92:d2:af:3d:2f:02:9a:1c:54:0a:e9:b0:69:
         28:b0:e3:c8:bf:64:23:6b:75:de:f5:62:54:dd:92:32:03:18:
         ab:4a:ca:d0:7e:df:6d:a0:72:2d:c4:d9:95:1a:0a:8e:d4:94:
         ac:af:ba:cd:56:92:c3:35:06:82:37:10:02:2b:49:4b:72:1a:
         ef:cf:c4:af:18:73:01:e8:a1:33:c8:4d:14:d0:e4:ee:7e:97:
         9f:f0:de:68:2f:89:f3:e3:ae:f1:29:52:2d:6f:f1:c8:13:ab:
         c2:f2:42:89:09:65:7d:c4:ee:0d:86:ac:d3:1e:fe:0d:c4:62:
         ae:8c:e2:8d:37:ee:38:48
-----BEGIN CERTIFICATE-----
MIIGrDCCBJSgAwIBAgICA5cwDQYJKoZIhvcNAQEEBQAwgawxCzAJBgNVBAYTAlVT
MQswCQYDVQQIEwJPSDERMA8GA1UEBxMIQ29sdW1idXMxEjAQBgNVBAoTCVZpa2lu
Z1ZQTjEdMBsGA1UECxMUTXlPcmdhbml6YXRpb25hbFVuaXQxFTATBgNVBAMTDFZp
a2luZ1ZQTiBDQTEQMA4GA1UEKRMHRWFzeVJTQTEhMB8GCSqGSIb3DQEJARYSbWVA
bXlob3N0Lm15ZG9tYWluMB4XDTE0MDIwMjAyMzIzNVoXDTI0MDEzMTAyMzIzNVow
HjEcMBoGA1UEAxMTQ2xpZW50MzM2Q2VydDI0YjYyZjCCAiIwDQYJKoZIhvcNAQEB
BQADggIPADCCAgoCggIBAKf6by2YDjCSttJN7rh8e3Cy7P8WC9eqWGiK4vkxXchT
Nx0H43tMlNzEME1lGWGZDDnn4mAnxe8Df7jr2KBUbT5lxqH56kER95Iqm/s6x9rQ
vLdFxjmnAyBO3omUkh4aXWgKokP7d0uRKI8iskTQsNsgjRcXQwgX2oJdb+LKV+Q5
xbDCbS7ZmNUmQKf/iOrhrKJ+s24RwFE5+HYfIEMyFxzENTch5iyYrYNO9zDFYjkr
bPjYdtTGPqw2NL9qBo+97bQzhRP13rP1Uucms4WYTU9ESGgaGKk9Zsl1vARp4PfA
4jhp1DHazfsHSCAftz3JS+yMyNYr6TJTtnKnyUp5cAiyriY6khWfB+AUc8cY6kOc
55R1Tw8T8Cj26UsARtJ43EhI6W9k2hX4DiGpmMNO/4A5Woco/SAk/hnd+njpCJ9f
EJ5+9lLkUMDeOQEkJS8lxgw0OHc/O18vT638BNzkxfWW1MlL4ZAPiGqbBOUYZL/y
p7HNvtEw6ZK9caWnCvq8Kad/ARblFuOTqGTXFxoz3FH98EzeIuo5zLui++YmNETe
2wgqSThC0kz8FMzCnVSj0d03X9WpJE7eDhrK1KGn32vA02ojwXxhSkuk4yr/Gik2
LQy+MJzYI/Vp0ck+tAad1J43crZifeALM3eK/8ZlRpPuhvDk8jEJLhm+76OuyCJ7
AgMBAAGjggFjMIIBXzAJBgNVHRMEAjAAMC0GCWCGSAGG+EIBDQQgFh5FYXN5LVJT
QSBHZW5lcmF0ZWQgQ2VydGlmaWNhdGUwHQYDVR0OBBYEFO/1aEWppMezPB6TOZtz
LETDdvG2MIHhBgNVHSMEgdkwgdaAFBLNYATSoICecO3Gmbh7LMZS/RmhoYGypIGv
MIGsMQswCQYDVQQGEwJVUzELMAkGA1UECBMCT0gxETAPBgNVBAcTCENvbHVtYnVz
MRIwEAYDVQQKEwlWaWtpbmdWUE4xHTAbBgNVBAsTFE15T3JnYW5pemF0aW9uYWxV
bml0MRUwEwYDVQQDEwxWaWtpbmdWUE4gQ0ExEDAOBgNVBCkTB0Vhc3lSU0ExITAf
BgkqhkiG9w0BCQEWEm1lQG15aG9zdC5teWRvbWFpboIJAM81he6Avyo+MBMGA1Ud
JQQMMAoGCCsGAQUFBwMCMAsGA1UdDwQEAwIHgDANBgkqhkiG9w0BAQQFAAOCAgEA
yEUab69RWmzOW94TEvdrvdsEmmXMgpPL0A0nnRvuRO/pkWFIvJicsjF2T05jW0wF
NmI/xuVkzBRNwmbo0wLzU3wtBPzxLU3qTy3AEtcOGPUdcP2PitPe0erBYYAYP6Qk
ER75yyvNo5VdvEQf7ywAPEDbo4pOfeF6dkdncrjE4jnRYUtKcMZ1heAqJ66fVD6d
cbimsSl/2KsiCs/VnsLL98GzVn3JwKFisRTU87pr14DqlJ4PTRdU/TSViLVW/2au
E6YK+IWNzzDi4zzZule+CPmoMh+I/tX777u/x6eKEVIS3ePFnUKSLsSN4qujv83R
z8hySVpb7CYYCYJVRTOhY6VZxpgrFeGHcgHIZqG75FW0eBbBw8Q3t7avoMOVNbEi
/ybPaDMfPK3iJGD5vbs5vem1WCOb7CBbnWFzqHi8aqCxyKTk5hadksioJgwsKOW0
/TVeoFWsjl0XRwq4So1js/3rTRyuiYqf1+hTy3251ocFcYAf58fWU35cCz7O5iCS
0q89LwKaHFQK6bBpKLDjyL9kI2t13vViVN2SMgMYq0rK0H7fbaByLcTZlRoKjtSU
rK+6zVaSwzUGgjcQAitJS3Ia78/ErxhzAeihM8hNFNDk7n6Xn/DeaC+J8+Ou8SlS
LW/xyBOrwvJCiQllfcTuDYas0x7+DcRirozijTfuOEg=
-----END CERTIFICATE-----
