Certificate:
    Data:
        Version: 3 (0x2)
        Serial Number: 11205 (0x2bc5)
    Signature Algorithm: sha256WithRSAEncryption
        Issuer: C=US, ST=OH, L=Columbus, O=VikingVPN, OU=MyOrganizationalUnit, CN=VikingVPN CA/name=EasyRSA/emailAddress=me@myhost.mydomain
        Validity
            Not Before: Jun 30 01:21:34 2017 GMT
            Not After : Jun 28 01:21:34 2027 GMT
        Subject: CN=Client2976Certf2d230
        Subject Public Key Info:
            Public Key Algorithm: rsaEncryption
                Public-Key: (4096 bit)
                Modulus:
                    00:ed:b0:b5:76:7e:0e:45:3d:8b:4f:cd:c2:d6:01:
                    89:45:d9:6a:9b:f5:b5:66:19:be:d3:bd:07:29:ba:
                    2f:aa:6d:13:3b:f7:8f:50:a2:a6:e4:d7:99:7b:14:
                    de:74:0c:de:6d:ed:93:ea:1c:f6:5c:6b:0b:34:60:
                    2d:a9:2d:9f:bc:d1:af:31:cd:ef:b3:b7:99:f4:79:
                    a7:0c:60:12:68:0a:ba:cb:7d:a8:08:a5:55:d0:d9:
                    65:4a:15:c4:d5:49:87:7a:17:7d:3b:ff:4d:53:d0:
                    2f:80:ea:33:ad:cd:3c:8e:72:57:2a:5e:7c:c1:b7:
                    85:72:0f:48:a8:ea:8b:28:ad:a0:06:2f:ae:48:5c:
                    a9:9a:3a:7f:e6:b3:6a:55:5a:fb:41:3c:9f:ff:fd:
                    42:69:30:87:4c:b1:10:c9:1d:c4:52:3a:2e:e2:09:
                    5a:f6:b5:83:7c:1a:11:da:d1:04:5f:6e:c7:b7:25:
                    84:70:70:94:ce:0a:e3:db:b0:c9:55:50:2a:31:0f:
                    bb:e1:e4:7b:33:0c:ad:20:4b:30:aa:10:9b:4e:39:
                    42:41:f3:ff:b8:ac:c1:ce:e4:23:15:51:8a:65:68:
                    67:ec:f9:a6:ec:d2:a4:36:b7:d8:0c:77:34:e2:04:
                    dc:b1:60:83:f5:a1:4e:91:94:cb:b9:84:55:48:d4:
                    96:97:c7:8e:80:f7:d8:9e:a3:33:9d:7c:bd:e8:42:
                    ac:57:9f:21:b5:56:d5:38:6f:3c:be:71:0a:c5:e8:
                    6c:41:51:17:66:87:42:bd:6d:af:61:d9:59:0a:d0:
                    ba:d0:05:d7:5b:27:33:4c:8a:db:7a:b0:94:27:b4:
                    87:f0:6a:c0:98:17:85:06:08:a7:96:80:a3:74:5d:
                    eb:e2:5e:e1:41:f8:73:a2:77:d4:c4:21:6e:1b:62:
                    a4:43:53:3e:a6:6f:67:39:09:85:60:91:a0:8c:a4:
                    07:b7:d1:eb:0d:28:05:f7:82:8d:71:f9:c3:57:20:
                    56:dd:29:e4:30:68:db:98:14:c3:83:ae:f3:9e:ec:
                    e9:6c:9a:7a:28:57:48:d5:9e:f8:5d:59:22:69:d9:
                    70:c7:49:d2:6d:b9:27:d2:b3:9e:ae:6b:f7:07:8b:
                    94:9a:d2:16:9f:60:fd:61:ab:9e:65:ff:f9:bc:ca:
                    23:f7:e4:77:e8:48:0a:11:33:06:18:b5:17:18:c4:
                    5d:4b:77:60:29:d4:fd:d3:09:c7:b2:8a:90:2c:91:
                    3d:31:06:34:4e:e1:52:17:6c:b0:29:70:2c:5a:13:
                    eb:24:b4:f0:aa:dd:31:cd:69:34:62:ce:0a:7c:03:
                    0f:85:b5:14:fd:7e:95:63:c4:3d:25:b4:0b:2f:1e:
                    20:c3:27
                Exponent: 65537 (0x10001)
        X509v3 extensions:
            X509v3 Basic Constraints: 
                CA:FALSE
            Netscape Comment: 
                Easy-RSA Generated Certificate
            X509v3 Subject Key Identifier: 
                E6:A3:F3:E4:75:47:9D:2D:2B:57:CB:2B:63:ED:41:07:BB:AD:69:60
            X509v3 Authority Key Identifier: 
                keyid:12:CD:60:04:D2:A0:80:9E:70:ED:C6:99:B8:7B:2C:C6:52:FD:19:A1
                DirName:/C=US/ST=OH/L=Columbus/O=VikingVPN/OU=MyOrganizationalUnit/CN=VikingVPN CA/name=EasyRSA/emailAddress=me@myhost.mydomain
                serial:CF:35:85:EE:80:BF:2A:3E

            X509v3 Extended Key Usage: 
                TLS Web Client Authentication
            X509v3 Key Usage: 
                Digital Signature
    Signature Algorithm: sha256WithRSAEncryption
         aa:5d:42:76:dd:bd:31:bd:61:3b:eb:e7:4a:14:54:61:1c:46:
         25:9b:cb:56:db:ab:06:db:6f:2a:10:34:69:88:00:d0:47:35:
         93:51:17:57:0e:ab:93:fe:98:f8:ee:7e:2c:a0:90:56:ab:39:
         47:dd:90:1e:ba:5b:83:14:ea:9b:59:1b:73:0e:97:a7:89:3f:
         98:73:fc:6c:10:cf:55:63:1f:40:63:9b:ec:2c:43:44:09:f5:
         ed:29:f7:fc:4c:0d:7a:26:e2:22:27:24:16:aa:25:43:24:79:
         a9:db:e6:c6:ac:c6:d9:61:a0:8c:fc:1a:f7:4f:c7:24:e4:ac:
         29:c6:b2:90:35:68:94:5d:81:ae:1d:ac:09:dc:9b:75:93:8f:
         b3:ad:50:96:e5:b6:e0:0c:36:53:ef:25:fb:5b:d4:51:89:20:
         5f:54:02:76:6e:b9:fe:ab:30:ea:a1:db:30:c1:b2:ea:b1:48:
         51:29:32:1a:2a:51:3d:6d:33:6d:94:7d:b9:a0:5d:eb:9b:79:
         cc:81:c8:ae:08:bb:f1:44:c4:28:ff:ab:e4:c3:7a:94:1c:fc:
         28:e3:9a:3e:61:7b:89:0d:43:21:89:ca:9a:03:24:2d:18:c0:
         7e:9e:4b:b6:51:fc:8d:c2:82:1e:43:c1:7c:45:6c:ad:68:83:
         02:19:93:d7:c3:ec:d1:32:46:4d:49:90:05:00:ff:74:f6:ae:
         66:51:a4:db:dc:94:09:8a:d1:7b:38:7b:75:7a:9c:a7:1a:56:
         d2:b5:c7:15:f6:8d:68:07:c9:fd:76:ea:e4:ed:dc:31:0a:3e:
         e4:46:cf:1a:0c:4c:43:6d:b0:fe:e1:08:7f:4b:b0:50:c9:a4:
         bf:bd:2e:b5:21:40:79:0c:bd:86:d1:74:30:d7:ed:3e:97:ae:
         5d:d3:2f:38:40:ff:c3:34:1c:c0:bd:bb:53:66:52:e1:01:e5:
         79:a7:9b:c8:75:90:57:ff:73:b4:b3:27:07:0a:64:1b:c6:09:
         c9:5c:f2:27:0f:11:7a:ac:50:12:9b:d8:cc:92:c9:cc:56:b1:
         43:65:f7:9d:90:bf:52:1e:0a:4f:e4:69:65:55:9d:9e:db:ba:
         4f:d2:7e:34:7a:17:4b:7b:d4:b5:b2:b9:2a:88:ed:4c:90:e9:
         09:14:f5:fb:c7:51:ae:69:e9:8e:b6:23:6d:38:f4:9c:6f:fb:
         c0:a8:f1:57:39:cc:82:6b:f5:66:26:ac:a4:64:58:0c:c2:49:
         52:40:18:9c:b5:d7:bb:05:49:a4:14:44:0b:5f:f3:e6:c7:31:
         fa:cd:71:26:23:0b:bb:3f:ae:30:a4:e0:39:70:6d:4d:db:bd:
         ac:02:2a:a1:69:e4:a1:38
-----BEGIN CERTIFICATE-----
MIIGrTCCBJWgAwIBAgICK8UwDQYJKoZIhvcNAQELBQAwgawxCzAJBgNVBAYTAlVT
MQswCQYDVQQIEwJPSDERMA8GA1UEBxMIQ29sdW1idXMxEjAQBgNVBAoTCVZpa2lu
Z1ZQTjEdMBsGA1UECxMUTXlPcmdhbml6YXRpb25hbFVuaXQxFTATBgNVBAMTDFZp
a2luZ1ZQTiBDQTEQMA4GA1UEKRMHRWFzeVJTQTEhMB8GCSqGSIb3DQEJARYSbWVA
bXlob3N0Lm15ZG9tYWluMB4XDTE3MDYzMDAxMjEzNFoXDTI3MDYyODAxMjEzNFow
HzEdMBsGA1UEAxMUQ2xpZW50Mjk3NkNlcnRmMmQyMzAwggIiMA0GCSqGSIb3DQEB
AQUAA4ICDwAwggIKAoICAQDtsLV2fg5FPYtPzcLWAYlF2Wqb9bVmGb7TvQcpui+q
bRM7949Qoqbk15l7FN50DN5t7ZPqHPZcaws0YC2pLZ+80a8xze+zt5n0eacMYBJo
CrrLfagIpVXQ2WVKFcTVSYd6F307/01T0C+A6jOtzTyOclcqXnzBt4VyD0io6oso
raAGL65IXKmaOn/ms2pVWvtBPJ///UJpMIdMsRDJHcRSOi7iCVr2tYN8GhHa0QRf
bse3JYRwcJTOCuPbsMlVUCoxD7vh5HszDK0gSzCqEJtOOUJB8/+4rMHO5CMVUYpl
aGfs+abs0qQ2t9gMdzTiBNyxYIP1oU6RlMu5hFVI1JaXx46A99ieozOdfL3oQqxX
nyG1VtU4bzy+cQrF6GxBURdmh0K9ba9h2VkK0LrQBddbJzNMitt6sJQntIfwasCY
F4UGCKeWgKN0XeviXuFB+HOid9TEIW4bYqRDUz6mb2c5CYVgkaCMpAe30esNKAX3
go1x+cNXIFbdKeQwaNuYFMODrvOe7OlsmnooV0jVnvhdWSJp2XDHSdJtuSfSs56u
a/cHi5Sa0hafYP1hq55l//m8yiP35HfoSAoRMwYYtRcYxF1Ld2Ap1P3TCceyipAs
kT0xBjRO4VIXbLApcCxaE+sktPCq3THNaTRizgp8Aw+FtRT9fpVjxD0ltAsvHiDD
JwIDAQABo4IBYzCCAV8wCQYDVR0TBAIwADAtBglghkgBhvhCAQ0EIBYeRWFzeS1S
U0EgR2VuZXJhdGVkIENlcnRpZmljYXRlMB0GA1UdDgQWBBTmo/PkdUedLStXyytj
7UEHu61pYDCB4QYDVR0jBIHZMIHWgBQSzWAE0qCAnnDtxpm4eyzGUv0ZoaGBsqSB
rzCBrDELMAkGA1UEBhMCVVMxCzAJBgNVBAgTAk9IMREwDwYDVQQHEwhDb2x1bWJ1
czESMBAGA1UEChMJVmlraW5nVlBOMR0wGwYDVQQLExRNeU9yZ2FuaXphdGlvbmFs
VW5pdDEVMBMGA1UEAxMMVmlraW5nVlBOIENBMRAwDgYDVQQpEwdFYXN5UlNBMSEw
HwYJKoZIhvcNAQkBFhJtZUBteWhvc3QubXlkb21haW6CCQDPNYXugL8qPjATBgNV
HSUEDDAKBggrBgEFBQcDAjALBgNVHQ8EBAMCB4AwDQYJKoZIhvcNAQELBQADggIB
AKpdQnbdvTG9YTvr50oUVGEcRiWby1bbqwbbbyoQNGmIANBHNZNRF1cOq5P+mPju
fiygkFarOUfdkB66W4MU6ptZG3MOl6eJP5hz/GwQz1VjH0Bjm+wsQ0QJ9e0p9/xM
DXom4iInJBaqJUMkeanb5sasxtlhoIz8GvdPxyTkrCnGspA1aJRdga4drAncm3WT
j7OtUJbltuAMNlPvJftb1FGJIF9UAnZuuf6rMOqh2zDBsuqxSFEpMhoqUT1tM22U
fbmgXeubecyByK4Iu/FExCj/q+TDepQc/Cjjmj5he4kNQyGJypoDJC0YwH6eS7ZR
/I3Cgh5DwXxFbK1ogwIZk9fD7NEyRk1JkAUA/3T2rmZRpNvclAmK0Xs4e3V6nKca
VtK1xxX2jWgHyf126uTt3DEKPuRGzxoMTENtsP7hCH9LsFDJpL+9LrUhQHkMvYbR
dDDX7T6Xrl3TLzhA/8M0HMC9u1NmUuEB5Xmnm8h1kFf/c7SzJwcKZBvGCclc8icP
EXqsUBKb2MySycxWsUNl952Qv1IeCk/kaWVVnZ7buk/SfjR6F0t71LWyuSqI7UyQ
6QkU9fvHUa5p6Y62I2049Jxv+8Co8Vc5zIJr9WYmrKRkWAzCSVJAGJy117sFSaQU
RAtf8+bHMfrNcSYjC7s/rjCk4DlwbU3bvawCKqFp5KE4
-----END CERTIFICATE-----
