Certificate:
    Data:
        Version: 3 (0x2)
        Serial Number: 4855 (0x12f7)
    Signature Algorithm: md5WithRSAEncryption
        Issuer: C=US, ST=OH, L=Columbus, O=VikingVPN, OU=MyOrganizationalUnit, CN=VikingVPN CA/name=EasyRSA/emailAddress=me@myhost.mydomain
        Validity
            Not Before: Apr  1 14:17:15 2015 GMT
            Not After : Mar 29 14:17:15 2025 GMT
        Subject: CN=Client617Cert064de2
        Subject Public Key Info:
            Public Key Algorithm: rsaEncryption
                Public-Key: (4096 bit)
                Modulus:
                    00:c3:5d:83:38:cb:9d:c9:36:86:b6:05:f0:c8:41:
                    04:dd:a9:f0:e0:89:af:c1:2b:d8:86:4f:0c:2c:a3:
                    f0:d6:b5:a9:f9:44:90:92:eb:61:2d:83:e4:e5:f2:
                    ca:7b:13:60:15:85:ad:f3:97:f0:ac:44:aa:91:4b:
                    83:c0:14:16:db:fb:dd:2a:80:25:35:72:6e:6f:df:
                    5a:0b:d2:84:f5:d2:fe:16:33:23:24:02:a5:fe:29:
                    da:23:aa:18:fb:c2:e7:db:43:34:b8:99:0c:85:bd:
                    2a:8a:19:3e:d9:2a:54:83:19:07:9a:13:fa:9d:f7:
                    d4:ab:f4:4e:bb:50:2d:64:07:91:13:d1:e1:84:6f:
                    67:01:97:9a:ae:7c:bd:d7:25:21:ff:d7:7d:a4:cb:
                    a0:de:9d:dd:cf:d0:27:16:56:b0:58:31:78:ae:cc:
                    3a:9d:ce:7a:e2:61:c1:aa:5d:55:d4:be:73:68:3e:
                    66:93:42:2a:5a:dc:cf:82:73:a8:61:98:4f:ce:c8:
                    1f:2e:85:44:ca:c7:1b:cf:73:ab:99:51:3b:26:c7:
                    a2:3f:3b:52:98:d0:55:05:a1:98:66:9b:bb:7e:bb:
                    80:67:04:c4:5d:5c:f7:11:d2:a6:7b:eb:62:ba:de:
                    52:54:4d:22:6e:c2:7d:d9:38:4c:9b:e7:99:b5:b9:
                    1a:31:23:26:d5:4e:7c:be:fb:5b:89:11:3a:ba:14:
                    0e:d9:14:10:3a:17:46:e3:b5:31:b1:04:52:1b:f4:
                    2b:f2:af:62:01:fd:f5:b5:a8:fe:00:ca:a5:24:3a:
                    7b:27:e1:be:1a:3c:72:a2:2e:d9:72:d3:96:1a:07:
                    d4:1a:f9:5c:ce:fc:d9:62:72:ab:36:79:a7:73:c8:
                    65:82:ad:a2:04:c5:1a:11:1e:55:6b:9a:17:8c:30:
                    4c:88:27:45:c9:04:9a:07:b2:e6:02:46:b9:8a:f3:
                    a8:9f:1c:ba:2a:80:22:67:46:f8:e6:a8:98:3e:72:
                    12:2a:82:34:bd:82:d9:79:f7:38:fc:94:36:b7:a9:
                    81:f2:93:b5:69:43:c6:db:70:dd:20:9f:dd:4a:8c:
                    d2:0c:ea:7a:84:dd:0e:c5:12:13:87:a0:32:5f:00:
                    9c:8e:99:47:76:0f:05:ce:30:35:5e:1a:55:b5:2d:
                    14:d1:48:67:97:f8:2e:a8:1d:a4:b6:59:9a:1f:63:
                    f6:73:06:72:ce:a2:9c:e2:26:a1:e9:97:54:0f:06:
                    59:b5:53:56:a2:2f:7d:03:e3:60:59:cf:f7:e8:e3:
                    1e:5c:03:fe:4e:80:49:df:a1:84:63:1a:18:90:53:
                    87:2f:4f:82:7b:d4:41:ae:75:02:e1:97:8e:84:7d:
                    d4:e0:11
                Exponent: 65537 (0x10001)
        X509v3 extensions:
            X509v3 Basic Constraints: 
                CA:FALSE
            Netscape Comment: 
                Easy-RSA Generated Certificate
            X509v3 Subject Key Identifier: 
                77:10:E8:7A:9B:90:31:02:B6:16:C4:FD:01:A1:0F:2D:3C:73:B1:3A
            X509v3 Authority Key Identifier: 
                keyid:12:CD:60:04:D2:A0:80:9E:70:ED:C6:99:B8:7B:2C:C6:52:FD:19:A1
                DirName:/C=US/ST=OH/L=Columbus/O=VikingVPN/OU=MyOrganizationalUnit/CN=VikingVPN CA/name=EasyRSA/emailAddress=me@myhost.mydomain
                serial:CF:35:85:EE:80:BF:2A:3E

            X509v3 Extended Key Usage: 
                TLS Web Client Authentication
            X509v3 Key Usage: 
                Digital Signature
    Signature Algorithm: md5WithRSAEncryption
         47:98:9d:7d:d5:98:71:fe:13:ec:cf:be:2a:58:96:13:25:05:
         25:09:43:a8:e8:40:61:d6:44:fe:45:63:85:0a:43:cb:b3:1a:
         19:cb:6f:16:24:c9:9b:2b:a1:6b:f6:31:8d:50:b3:f6:30:d1:
         5c:e8:cb:1f:78:ac:32:97:04:3e:04:cb:12:b2:b7:ad:81:52:
         ab:01:58:69:18:71:f0:a1:65:8a:9e:88:60:01:45:e8:34:4c:
         96:d4:95:81:ba:95:1c:d0:75:5b:ef:e2:d7:09:4a:a3:c9:d3:
         c6:f7:bd:af:d0:07:a6:8f:05:56:59:79:ba:14:40:93:a5:be:
         92:a8:33:c8:98:96:85:fd:1c:fe:c9:6a:29:78:83:f5:95:2b:
         9a:61:b0:54:bc:21:bf:5e:a7:9a:f0:df:27:54:e0:f8:d5:be:
         69:0a:ae:1a:e1:1c:4a:0f:0c:1c:33:c1:7e:70:d3:a9:09:ba:
         75:d9:82:15:41:1d:76:d7:77:92:86:a1:e1:64:e5:86:9e:db:
         0a:24:d7:4a:94:28:e7:36:c8:a1:4a:c4:0c:e4:07:8a:37:36:
         ce:43:f3:f4:ef:2c:f5:2c:fb:5e:ec:6f:87:a0:4e:87:40:65:
         8a:f6:a0:2f:61:76:bd:a8:6e:e1:1b:ae:a6:9b:f4:0a:28:f5:
         aa:57:88:d5:81:4c:f9:1c:26:8e:64:20:b1:0d:01:87:d8:e8:
         61:cb:ef:ee:dd:6a:0a:59:7e:12:76:48:2e:3e:fb:97:c1:68:
         f4:f5:76:15:91:ca:df:8a:7d:45:15:ed:77:25:0d:d9:25:b7:
         ec:36:82:3f:97:2e:fd:bb:91:e8:69:85:4a:d2:5e:56:58:78:
         af:a8:6c:97:75:b8:79:1e:43:d8:35:93:b7:c4:9e:62:dc:36:
         68:f2:2c:cd:7f:94:38:f9:2d:d2:05:45:b2:21:c0:49:fe:ea:
         72:54:e4:d3:77:de:c4:86:ab:c5:db:ff:0c:65:63:25:c5:50:
         aa:b0:64:71:8d:1b:4b:06:2f:09:bf:f7:88:30:a4:1b:e1:6c:
         8e:d1:aa:be:56:0c:cc:3f:a2:9c:67:3f:38:b9:6f:d2:d2:2d:
         63:80:be:f4:02:d1:10:15:3c:6e:51:70:95:e0:4c:6d:44:89:
         96:02:71:5e:08:1e:31:9e:3d:a9:45:93:74:6f:4f:c8:9f:e2:
         58:31:03:31:3f:8b:fa:2b:1d:d8:89:67:8e:22:7e:9c:62:29:
         6c:39:ed:38:7a:32:ed:62:19:df:92:1a:7d:92:5a:66:3a:c2:
         04:42:44:b9:be:5f:87:f4:7c:32:87:3b:46:7a:ae:c1:6e:85:
         e5:84:3a:80:25:85:72:a0
-----BEGIN CERTIFICATE-----
MIIGrDCCBJSgAwIBAgICEvcwDQYJKoZIhvcNAQEEBQAwgawxCzAJBgNVBAYTAlVT
MQswCQYDVQQIEwJPSDERMA8GA1UEBxMIQ29sdW1idXMxEjAQBgNVBAoTCVZpa2lu
Z1ZQTjEdMBsGA1UECxMUTXlPcmdhbml6YXRpb25hbFVuaXQxFTATBgNVBAMTDFZp
a2luZ1ZQTiBDQTEQMA4GA1UEKRMHRWFzeVJTQTEhMB8GCSqGSIb3DQEJARYSbWVA
bXlob3N0Lm15ZG9tYWluMB4XDTE1MDQwMTE0MTcxNVoXDTI1MDMyOTE0MTcxNVow
HjEcMBoGA1UEAxMTQ2xpZW50NjE3Q2VydDA2NGRlMjCCAiIwDQYJKoZIhvcNAQEB
BQADggIPADCCAgoCggIBAMNdgzjLnck2hrYF8MhBBN2p8OCJr8Er2IZPDCyj8Na1
qflEkJLrYS2D5OXyynsTYBWFrfOX8KxEqpFLg8AUFtv73SqAJTVybm/fWgvShPXS
/hYzIyQCpf4p2iOqGPvC59tDNLiZDIW9KooZPtkqVIMZB5oT+p331Kv0TrtQLWQH
kRPR4YRvZwGXmq58vdclIf/XfaTLoN6d3c/QJxZWsFgxeK7MOp3OeuJhwapdVdS+
c2g+ZpNCKlrcz4JzqGGYT87IHy6FRMrHG89zq5lROybHoj87UpjQVQWhmGabu367
gGcExF1c9xHSpnvrYrreUlRNIm7Cfdk4TJvnmbW5GjEjJtVOfL77W4kROroUDtkU
EDoXRuO1MbEEUhv0K/KvYgH99bWo/gDKpSQ6eyfhvho8cqIu2XLTlhoH1Br5XM78
2WJyqzZ5p3PIZYKtogTFGhEeVWuaF4wwTIgnRckEmgey5gJGuYrzqJ8cuiqAImdG
+OaomD5yEiqCNL2C2Xn3OPyUNrepgfKTtWlDxttw3SCf3UqM0gzqeoTdDsUSE4eg
Ml8AnI6ZR3YPBc4wNV4aVbUtFNFIZ5f4LqgdpLZZmh9j9nMGcs6inOImoemXVA8G
WbVTVqIvfQPjYFnP9+jjHlwD/k6ASd+hhGMaGJBThy9PgnvUQa51AuGXjoR91OAR
AgMBAAGjggFjMIIBXzAJBgNVHRMEAjAAMC0GCWCGSAGG+EIBDQQgFh5FYXN5LVJT
QSBHZW5lcmF0ZWQgQ2VydGlmaWNhdGUwHQYDVR0OBBYEFHcQ6HqbkDECthbE/QGh
Dy08c7E6MIHhBgNVHSMEgdkwgdaAFBLNYATSoICecO3Gmbh7LMZS/RmhoYGypIGv
MIGsMQswCQYDVQQGEwJVUzELMAkGA1UECBMCT0gxETAPBgNVBAcTCENvbHVtYnVz
MRIwEAYDVQQKEwlWaWtpbmdWUE4xHTAbBgNVBAsTFE15T3JnYW5pemF0aW9uYWxV
bml0MRUwEwYDVQQDEwxWaWtpbmdWUE4gQ0ExEDAOBgNVBCkTB0Vhc3lSU0ExITAf
BgkqhkiG9w0BCQEWEm1lQG15aG9zdC5teWRvbWFpboIJAM81he6Avyo+MBMGA1Ud
JQQMMAoGCCsGAQUFBwMCMAsGA1UdDwQEAwIHgDANBgkqhkiG9w0BAQQFAAOCAgEA
R5idfdWYcf4T7M++KliWEyUFJQlDqOhAYdZE/kVjhQpDy7MaGctvFiTJmyuha/Yx
jVCz9jDRXOjLH3isMpcEPgTLErK3rYFSqwFYaRhx8KFlip6IYAFF6DRMltSVgbqV
HNB1W+/i1wlKo8nTxve9r9AHpo8FVll5uhRAk6W+kqgzyJiWhf0c/slqKXiD9ZUr
mmGwVLwhv16nmvDfJ1Tg+NW+aQquGuEcSg8MHDPBfnDTqQm6ddmCFUEddtd3koah
4WTlhp7bCiTXSpQo5zbIoUrEDOQHijc2zkPz9O8s9Sz7Xuxvh6BOh0BlivagL2F2
vahu4Ruuppv0Cij1qleI1YFM+RwmjmQgsQ0Bh9joYcvv7t1qCll+EnZILj77l8Fo
9PV2FZHK34p9RRXtdyUN2SW37DaCP5cu/buR6GmFStJeVlh4r6hsl3W4eR5D2DWT
t8SeYtw2aPIszX+UOPkt0gVFsiHASf7qclTk03fexIarxdv/DGVjJcVQqrBkcY0b
SwYvCb/3iDCkG+FsjtGqvlYMzD+inGc/OLlv0tItY4C+9ALREBU8blFwleBMbUSJ
lgJxXggeMZ49qUWTdG9PyJ/iWDEDMT+L+isd2IlnjiJ+nGIpbDntOHoy7WIZ35Ia
fZJaZjrCBEJEub5fh/R8Moc7RnquwW6F5YQ6gCWFcqA=
-----END CERTIFICATE-----
