Certificate:
    Data:
        Version: 3 (0x2)
        Serial Number: 7143 (0x1be7)
    Signature Algorithm: md5WithRSAEncryption
        Issuer: C=US, ST=OH, L=Columbus, O=VikingVPN, OU=MyOrganizationalUnit, CN=VikingVPN CA/name=EasyRSA/emailAddress=me@myhost.mydomain
        Validity
            Not Before: Feb  6 05:46:01 2016 GMT
            Not After : Feb  3 05:46:01 2026 GMT
        Subject: CN=Client1643Certf0a3fe
        Subject Public Key Info:
            Public Key Algorithm: rsaEncryption
                Public-Key: (4096 bit)
                Modulus:
                    00:e8:b2:79:61:5c:ec:70:59:75:f0:49:dc:73:05:
                    42:64:52:04:22:01:12:d8:2b:86:bf:e9:06:f5:91:
                    d5:26:fe:3b:91:b4:90:09:56:5c:f0:f5:ab:46:bf:
                    b0:a4:fa:cd:90:05:d9:1a:54:d1:0c:1b:4e:36:fc:
                    7e:34:1f:fb:88:8b:11:1e:30:c3:07:f4:ef:1d:6e:
                    8a:10:b2:b1:92:04:3c:86:80:e5:94:83:8d:e8:53:
                    d0:bf:4f:3f:b5:71:80:ef:1e:57:77:01:12:b5:36:
                    e2:00:29:bc:bd:8e:2c:59:db:a6:07:bb:a2:f1:7c:
                    57:be:9d:15:08:0a:70:67:6f:b2:40:08:bf:12:98:
                    d6:c9:92:1f:97:bc:8f:55:4e:1a:2d:1c:e3:30:24:
                    65:d4:34:85:ab:0b:d8:5a:32:5c:d1:9a:43:72:6d:
                    ce:10:e7:8a:b9:04:cf:92:b0:d9:0c:a4:db:8e:74:
                    11:27:8b:bd:72:b4:3e:b3:ca:87:cd:6a:ea:e5:17:
                    08:6c:cc:61:23:05:0d:09:71:d2:cc:1d:09:1b:19:
                    8d:ce:91:60:48:ef:4e:f4:7b:91:71:09:41:d9:b3:
                    bd:b2:06:9b:11:4c:d8:cb:ec:d5:fb:26:cb:c7:a7:
                    70:15:6f:01:c1:11:61:a7:ab:07:06:ef:4a:7c:8a:
                    27:5d:3a:d6:d9:02:06:57:4c:b3:b0:83:58:6d:2e:
                    c4:5f:68:25:64:88:3e:ef:ac:3e:2b:a0:22:b9:d6:
                    89:28:a3:41:47:82:3e:ae:a3:78:6c:87:68:f6:52:
                    4d:9f:42:f1:14:32:fa:8b:7b:13:07:9f:b8:28:b3:
                    db:3d:9b:24:4e:c9:9b:c0:7a:d1:63:ee:99:9a:a4:
                    00:fe:8a:a4:30:df:a0:73:fe:6c:98:12:73:de:77:
                    a1:0c:90:b5:0e:b9:ac:e3:e9:52:d7:05:34:5d:5c:
                    3d:29:d5:c9:31:e5:1e:93:53:8a:a0:a0:4e:6a:58:
                    e0:c7:42:14:bf:a5:ee:fa:44:f3:17:26:fb:ff:48:
                    e2:27:8c:ef:2b:d5:57:5a:a5:35:21:77:22:c5:61:
                    02:ef:9e:57:82:99:0b:78:14:39:5b:de:bd:9f:13:
                    d3:05:f4:fb:3d:f8:1f:08:5a:50:a2:71:92:8e:72:
                    1f:a0:7a:e6:02:40:14:1d:e8:91:6d:48:2e:37:cf:
                    a1:56:ed:d2:ba:55:94:3c:c6:69:92:73:e9:73:03:
                    6d:44:21:0e:5d:38:0c:1d:0f:b0:1b:32:59:94:af:
                    e0:93:b5:d4:4f:be:29:be:0c:2f:85:34:60:38:50:
                    cd:e8:42:9f:fd:c8:35:48:1a:c7:7d:bb:a4:98:c8:
                    87:12:03
                Exponent: 65537 (0x10001)
        X509v3 extensions:
            X509v3 Basic Constraints: 
                CA:FALSE
            Netscape Comment: 
                Easy-RSA Generated Certificate
            X509v3 Subject Key Identifier: 
                C0:80:63:11:57:1D:46:9C:30:7D:E4:2A:C1:46:F0:BB:2D:06:7C:8F
            X509v3 Authority Key Identifier: 
                keyid:12:CD:60:04:D2:A0:80:9E:70:ED:C6:99:B8:7B:2C:C6:52:FD:19:A1
                DirName:/C=US/ST=OH/L=Columbus/O=VikingVPN/OU=MyOrganizationalUnit/CN=VikingVPN CA/name=EasyRSA/emailAddress=me@myhost.mydomain
                serial:CF:35:85:EE:80:BF:2A:3E

            X509v3 Extended Key Usage: 
                TLS Web Client Authentication
            X509v3 Key Usage: 
                Digital Signature
    Signature Algorithm: md5WithRSAEncryption
         5c:71:ec:5c:af:da:14:0d:6c:f0:02:16:62:a5:1e:3a:31:bd:
         42:e5:48:53:55:3e:72:d3:f4:a4:67:4d:44:b2:4b:ac:55:49:
         14:bd:c9:3a:82:cc:f8:43:c9:b0:39:b5:0d:45:5f:f7:34:40:
         91:3e:96:4e:ca:f8:39:51:df:f5:d0:16:1d:e3:9e:a5:32:b4:
         6a:90:e2:f3:45:ec:9f:8e:d4:f6:a5:50:14:f2:5d:5a:3a:9f:
         4a:ef:39:fb:81:99:85:72:71:56:dd:9d:5e:e2:3e:c2:93:f3:
         b6:a7:37:39:d9:0d:e8:88:c7:9e:32:e7:70:2a:8d:95:14:5b:
         14:4c:e5:76:28:11:c5:21:e1:ed:50:31:6a:50:03:5f:27:9f:
         a8:de:be:4f:56:f5:89:7f:21:4f:0a:44:d2:81:7c:d2:b3:56:
         ff:6b:9f:5d:14:1a:0a:00:f8:9c:d8:5a:fe:45:00:d2:98:c5:
         b5:b2:0e:87:28:59:b6:89:2f:0f:0e:82:46:b1:6c:38:23:13:
         84:e2:28:18:62:e0:85:7f:a8:6d:96:09:88:3e:d3:54:bc:51:
         0f:82:6d:a2:6a:60:ef:2e:67:36:f0:32:cd:dc:d5:81:6b:bb:
         21:2b:28:0c:e1:70:42:49:f4:3b:63:ad:bf:3b:02:4f:00:c3:
         ef:39:86:db:22:41:c9:11:93:f2:1a:d6:54:41:ff:d6:2b:f9:
         57:f3:44:b6:bf:12:15:2a:a6:fe:a1:b0:d6:5c:3c:d7:d4:f4:
         f9:8c:1f:1e:a7:73:1e:69:f7:27:bb:a7:b2:fa:8a:57:a2:52:
         a2:eb:aa:b2:c8:35:43:8b:d0:b7:ce:41:cf:f3:38:af:2d:13:
         3b:9e:2d:3e:f4:ef:85:d1:0b:cd:fe:78:c1:a4:64:97:c4:3a:
         f5:d2:cd:e4:fd:4f:c2:80:b2:ae:d6:e4:49:44:44:4c:4d:04:
         22:f4:f5:91:e3:74:e7:c5:f6:aa:54:e0:39:8f:8f:50:0a:a0:
         98:6a:46:1f:b5:c1:02:2c:fc:8e:e6:36:47:c7:da:04:b6:ad:
         f8:16:d1:63:f7:ca:b4:cf:47:3b:26:70:53:14:08:d6:8f:4c:
         33:a4:8f:68:f5:c8:13:42:8e:2c:d9:4e:82:d5:8c:6f:3c:98:
         7f:58:c8:ca:60:b2:5f:23:bc:56:8e:27:af:7e:23:93:78:b6:
         34:e5:7e:ba:a2:1f:07:a7:bf:93:66:60:44:02:54:f9:eb:b2:
         f1:b0:ff:07:1c:2a:22:4b:44:be:17:a4:e2:39:5b:18:e6:1c:
         93:be:ee:4b:6e:53:3f:d4:f6:b6:5f:56:13:27:9d:e2:20:94:
         d5:b0:44:05:30:39:90:4f
-----BEGIN CERTIFICATE-----
MIIGrTCCBJWgAwIBAgICG+cwDQYJKoZIhvcNAQEEBQAwgawxCzAJBgNVBAYTAlVT
MQswCQYDVQQIEwJPSDERMA8GA1UEBxMIQ29sdW1idXMxEjAQBgNVBAoTCVZpa2lu
Z1ZQTjEdMBsGA1UECxMUTXlPcmdhbml6YXRpb25hbFVuaXQxFTATBgNVBAMTDFZp
a2luZ1ZQTiBDQTEQMA4GA1UEKRMHRWFzeVJTQTEhMB8GCSqGSIb3DQEJARYSbWVA
bXlob3N0Lm15ZG9tYWluMB4XDTE2MDIwNjA1NDYwMVoXDTI2MDIwMzA1NDYwMVow
HzEdMBsGA1UEAxMUQ2xpZW50MTY0M0NlcnRmMGEzZmUwggIiMA0GCSqGSIb3DQEB
AQUAA4ICDwAwggIKAoICAQDosnlhXOxwWXXwSdxzBUJkUgQiARLYK4a/6Qb1kdUm
/juRtJAJVlzw9atGv7Ck+s2QBdkaVNEMG042/H40H/uIixEeMMMH9O8dbooQsrGS
BDyGgOWUg43oU9C/Tz+1cYDvHld3ARK1NuIAKby9jixZ26YHu6LxfFe+nRUICnBn
b7JACL8SmNbJkh+XvI9VThotHOMwJGXUNIWrC9haMlzRmkNybc4Q54q5BM+SsNkM
pNuOdBEni71ytD6zyofNaurlFwhszGEjBQ0JcdLMHQkbGY3OkWBI7070e5FxCUHZ
s72yBpsRTNjL7NX7JsvHp3AVbwHBEWGnqwcG70p8iiddOtbZAgZXTLOwg1htLsRf
aCVkiD7vrD4roCK51okoo0FHgj6uo3hsh2j2Uk2fQvEUMvqLexMHn7gos9s9myRO
yZvAetFj7pmapAD+iqQw36Bz/myYEnPed6EMkLUOuazj6VLXBTRdXD0p1ckx5R6T
U4qgoE5qWODHQhS/pe76RPMXJvv/SOInjO8r1VdapTUhdyLFYQLvnleCmQt4FDlb
3r2fE9MF9Ps9+B8IWlCicZKOch+geuYCQBQd6JFtSC43z6FW7dK6VZQ8xmmSc+lz
A21EIQ5dOAwdD7AbMlmUr+CTtdRPvim+DC+FNGA4UM3oQp/9yDVIGsd9u6SYyIcS
AwIDAQABo4IBYzCCAV8wCQYDVR0TBAIwADAtBglghkgBhvhCAQ0EIBYeRWFzeS1S
U0EgR2VuZXJhdGVkIENlcnRpZmljYXRlMB0GA1UdDgQWBBTAgGMRVx1GnDB95CrB
RvC7LQZ8jzCB4QYDVR0jBIHZMIHWgBQSzWAE0qCAnnDtxpm4eyzGUv0ZoaGBsqSB
rzCBrDELMAkGA1UEBhMCVVMxCzAJBgNVBAgTAk9IMREwDwYDVQQHEwhDb2x1bWJ1
czESMBAGA1UEChMJVmlraW5nVlBOMR0wGwYDVQQLExRNeU9yZ2FuaXphdGlvbmFs
VW5pdDEVMBMGA1UEAxMMVmlraW5nVlBOIENBMRAwDgYDVQQpEwdFYXN5UlNBMSEw
HwYJKoZIhvcNAQkBFhJtZUBteWhvc3QubXlkb21haW6CCQDPNYXugL8qPjATBgNV
HSUEDDAKBggrBgEFBQcDAjALBgNVHQ8EBAMCB4AwDQYJKoZIhvcNAQEEBQADggIB
AFxx7Fyv2hQNbPACFmKlHjoxvULlSFNVPnLT9KRnTUSyS6xVSRS9yTqCzPhDybA5
tQ1FX/c0QJE+lk7K+DlR3/XQFh3jnqUytGqQ4vNF7J+O1PalUBTyXVo6n0rvOfuB
mYVycVbdnV7iPsKT87anNznZDeiIx54y53AqjZUUWxRM5XYoEcUh4e1QMWpQA18n
n6jevk9W9Yl/IU8KRNKBfNKzVv9rn10UGgoA+JzYWv5FANKYxbWyDocoWbaJLw8O
gkaxbDgjE4TiKBhi4IV/qG2WCYg+01S8UQ+CbaJqYO8uZzbwMs3c1YFruyErKAzh
cEJJ9Dtjrb87Ak8Aw+85htsiQckRk/Ia1lRB/9Yr+VfzRLa/EhUqpv6hsNZcPNfU
9PmMHx6ncx5p9ye7p7L6ileiUqLrqrLINUOL0LfOQc/zOK8tEzueLT7074XRC83+
eMGkZJfEOvXSzeT9T8KAsq7W5ElERExNBCL09ZHjdOfF9qpU4DmPj1AKoJhqRh+1
wQIs/I7mNkfH2gS2rfgW0WP3yrTPRzsmcFMUCNaPTDOkj2j1yBNCjizZToLVjG88
mH9YyMpgsl8jvFaOJ69+I5N4tjTlfrqiHwenv5NmYEQCVPnrsvGw/wccKiJLRL4X
pOI5WxjmHJO+7ktuUz/U9rZfVhMnneIglNWwRAUwOZBP
-----END CERTIFICATE-----
