Certificate:
    Data:
        Version: 3 (0x2)
        Serial Number: 7795 (0x1e73)
    Signature Algorithm: md5WithRSAEncryption
        Issuer: C=US, ST=OH, L=Columbus, O=VikingVPN, OU=MyOrganizationalUnit, CN=VikingVPN CA/name=EasyRSA/emailAddress=me@myhost.mydomain
        Validity
            Not Before: Apr 20 01:18:16 2016 GMT
            Not After : Apr 18 01:18:16 2026 GMT
        Subject: CN=Client2263Cert03b0e6
        Subject Public Key Info:
            Public Key Algorithm: rsaEncryption
                Public-Key: (4096 bit)
                Modulus:
                    00:dd:f5:c2:a3:75:20:7d:b9:da:54:c6:16:50:0f:
                    ad:bf:5a:66:a9:61:ff:45:fc:86:d3:11:56:80:95:
                    09:0b:1d:5f:54:20:65:bd:fc:6a:7f:1f:37:61:29:
                    6b:df:de:96:5a:00:1d:23:a7:9d:92:0f:91:fd:14:
                    04:87:59:24:02:b6:85:ba:05:69:51:74:3f:d3:0d:
                    13:c1:c9:2c:d3:bd:ea:51:f7:9c:c8:84:51:d7:06:
                    4e:ee:e0:30:87:9e:38:9c:4c:23:9a:5e:98:d6:e7:
                    3d:58:1c:48:5a:75:a7:de:e3:26:45:57:95:63:1d:
                    4f:ac:b7:30:16:3d:36:58:e9:c5:18:b8:76:bd:f1:
                    9b:5d:62:98:d4:94:e9:b0:dd:bf:71:10:a1:23:12:
                    d0:f8:20:17:09:52:68:19:7f:2a:08:f1:0f:27:19:
                    45:9e:b1:2a:2b:f6:13:92:ab:f2:78:0f:87:41:fe:
                    ee:06:22:60:36:92:f1:51:d6:62:f7:19:9e:86:81:
                    42:c3:34:00:55:65:19:5c:01:fa:fe:5e:44:3a:29:
                    80:ca:60:62:80:8d:c1:bf:7c:2a:77:c7:24:49:ef:
                    c4:17:3e:83:62:1d:7a:5f:93:64:93:73:9b:5f:11:
                    13:5f:19:f6:1e:3a:6e:6f:c7:f0:d0:e9:be:1e:1d:
                    0e:65:99:f0:06:9e:80:fe:d3:5b:f3:d1:05:f3:17:
                    36:e4:2b:d0:78:35:1e:37:9a:98:38:45:38:58:21:
                    6e:ae:da:c5:22:e9:f0:32:2a:b6:05:22:0d:0b:7a:
                    6d:51:56:22:39:ed:c5:9c:94:3c:49:a1:c5:8e:8d:
                    7c:4a:63:ed:05:b8:6c:ce:8b:f8:ba:33:6d:7e:27:
                    9e:59:f4:1e:fb:91:1a:c9:9b:e2:a8:20:40:97:b9:
                    c3:0f:11:23:4a:03:40:55:ac:18:0c:ec:5a:a7:77:
                    0e:57:2b:8e:bb:94:ba:f9:71:57:8c:d6:59:24:32:
                    c5:12:55:f7:49:70:cf:76:25:03:53:ad:71:90:65:
                    a8:b4:34:30:49:3d:a4:ad:3c:33:b5:b5:db:27:ff:
                    04:bb:92:8a:4c:f3:8d:92:14:3b:04:c9:03:99:34:
                    82:0b:4a:f7:ad:8c:7d:0c:00:d0:9f:ff:76:2c:04:
                    0b:71:f1:97:8c:ab:ec:a5:97:f3:a1:55:4c:63:d1:
                    4c:f2:70:5b:cf:0f:09:62:42:e3:da:50:6c:50:0d:
                    59:2f:8c:07:b9:ac:a5:b3:fe:b9:27:80:c7:63:40:
                    b3:eb:66:a6:35:8a:7b:94:59:52:d8:e2:53:eb:f8:
                    59:9f:0c:56:52:b9:09:8f:22:be:57:df:73:a3:6a:
                    ff:9b:b3
                Exponent: 65537 (0x10001)
        X509v3 extensions:
            X509v3 Basic Constraints: 
                CA:FALSE
            Netscape Comment: 
                Easy-RSA Generated Certificate
            X509v3 Subject Key Identifier: 
                87:41:6D:98:59:FA:D6:BD:66:DC:9C:4D:7A:56:78:22:BF:69:5E:A0
            X509v3 Authority Key Identifier: 
                keyid:12:CD:60:04:D2:A0:80:9E:70:ED:C6:99:B8:7B:2C:C6:52:FD:19:A1
                DirName:/C=US/ST=OH/L=Columbus/O=VikingVPN/OU=MyOrganizationalUnit/CN=VikingVPN CA/name=EasyRSA/emailAddress=me@myhost.mydomain
                serial:CF:35:85:EE:80:BF:2A:3E

            X509v3 Extended Key Usage: 
                TLS Web Client Authentication
            X509v3 Key Usage: 
                Digital Signature
    Signature Algorithm: md5WithRSAEncryption
         e4:a0:01:07:06:42:04:22:67:39:d7:02:97:f3:b5:32:a9:1a:
         3f:94:4f:ab:77:6c:06:f5:3e:75:d1:31:8f:4c:a1:28:12:70:
         55:d6:ab:29:17:7a:16:68:e8:0a:a7:3e:95:cd:bf:44:08:29:
         f6:84:b5:14:2b:e5:cb:f1:32:72:49:a2:31:a8:1e:13:18:68:
         c5:58:4d:56:a0:b9:14:65:02:96:b3:f3:c3:5c:b0:01:8d:a8:
         36:91:49:50:bd:7e:0e:5a:38:b6:ea:bf:c1:bc:75:b0:19:19:
         c3:31:50:8d:d9:a3:f5:35:d9:fa:b7:d8:23:49:72:59:91:97:
         6c:59:29:fb:33:a7:c0:c5:b3:73:46:74:09:c2:aa:11:37:7b:
         10:25:46:27:12:01:03:48:28:73:62:72:d8:21:dd:b4:87:69:
         05:dc:1c:59:4a:c1:a2:31:39:23:8d:06:66:2c:a6:cd:42:f1:
         4d:de:de:8b:89:40:b4:a4:25:61:9c:e2:ac:9d:37:9b:e2:48:
         61:01:03:be:0b:c5:a2:1f:01:2d:05:ea:78:4e:12:33:1c:68:
         3b:fd:2e:a9:90:3a:cf:31:1c:6d:21:46:31:a6:a4:60:e1:1e:
         40:8f:a5:b6:69:1c:ca:50:3f:4b:e8:a5:34:18:95:83:ef:92:
         28:64:74:9a:71:fa:93:f6:72:30:fa:a9:79:2a:9e:bf:e6:08:
         5f:54:01:33:46:a0:5b:99:3f:6d:9e:e5:da:8e:26:40:00:8f:
         6c:d2:13:cb:3f:57:f8:08:e5:3c:7a:c2:bf:db:e6:3e:b6:07:
         84:e7:f3:a7:d9:9a:47:8a:28:58:b0:96:32:63:2f:b2:44:14:
         9c:4b:c2:26:8c:21:89:74:5f:01:af:70:36:91:3d:f9:7d:3e:
         8e:81:14:41:c1:73:7a:c8:9c:12:82:b1:aa:b8:60:45:a9:78:
         d3:66:a7:db:b2:a2:f7:b9:d4:ef:ce:85:20:54:51:29:54:52:
         21:24:25:84:cd:ca:5d:61:97:17:01:1b:a8:4b:72:ab:ec:a2:
         94:9b:04:9d:24:33:24:84:e6:fb:51:83:00:f2:b2:79:b0:d2:
         69:5a:5e:cd:0d:e0:f5:05:d5:a2:c9:ef:0a:96:fb:2f:f3:e1:
         8e:32:46:26:11:39:0a:e3:96:5e:28:9b:42:1b:a5:14:04:39:
         73:08:a3:a5:d3:b7:27:83:a5:26:68:2d:39:5f:29:f0:5f:57:
         7c:54:61:52:43:a6:66:23:c4:4f:c5:0d:b3:bb:5c:48:c4:b9:
         6f:9d:ff:86:a7:5d:0d:13:ea:3a:6a:41:ce:d0:b7:bc:46:cf:
         1f:ec:8b:31:65:0f:7c:82
-----BEGIN CERTIFICATE-----
MIIGrTCCBJWgAwIBAgICHnMwDQYJKoZIhvcNAQEEBQAwgawxCzAJBgNVBAYTAlVT
MQswCQYDVQQIEwJPSDERMA8GA1UEBxMIQ29sdW1idXMxEjAQBgNVBAoTCVZpa2lu
Z1ZQTjEdMBsGA1UECxMUTXlPcmdhbml6YXRpb25hbFVuaXQxFTATBgNVBAMTDFZp
a2luZ1ZQTiBDQTEQMA4GA1UEKRMHRWFzeVJTQTEhMB8GCSqGSIb3DQEJARYSbWVA
bXlob3N0Lm15ZG9tYWluMB4XDTE2MDQyMDAxMTgxNloXDTI2MDQxODAxMTgxNlow
HzEdMBsGA1UEAxMUQ2xpZW50MjI2M0NlcnQwM2IwZTYwggIiMA0GCSqGSIb3DQEB
AQUAA4ICDwAwggIKAoICAQDd9cKjdSB9udpUxhZQD62/WmapYf9F/IbTEVaAlQkL
HV9UIGW9/Gp/HzdhKWvf3pZaAB0jp52SD5H9FASHWSQCtoW6BWlRdD/TDRPBySzT
vepR95zIhFHXBk7u4DCHnjicTCOaXpjW5z1YHEhadafe4yZFV5VjHU+stzAWPTZY
6cUYuHa98ZtdYpjUlOmw3b9xEKEjEtD4IBcJUmgZfyoI8Q8nGUWesSor9hOSq/J4
D4dB/u4GImA2kvFR1mL3GZ6GgULDNABVZRlcAfr+XkQ6KYDKYGKAjcG/fCp3xyRJ
78QXPoNiHXpfk2STc5tfERNfGfYeOm5vx/DQ6b4eHQ5lmfAGnoD+01vz0QXzFzbk
K9B4NR43mpg4RThYIW6u2sUi6fAyKrYFIg0Lem1RViI57cWclDxJocWOjXxKY+0F
uGzOi/i6M21+J55Z9B77kRrJm+KoIECXucMPESNKA0BVrBgM7Fqndw5XK467lLr5
cVeM1lkkMsUSVfdJcM92JQNTrXGQZai0NDBJPaStPDO1tdsn/wS7kopM842SFDsE
yQOZNIILSvetjH0MANCf/3YsBAtx8ZeMq+yll/OhVUxj0UzycFvPDwliQuPaUGxQ
DVkvjAe5rKWz/rkngMdjQLPrZqY1inuUWVLY4lPr+FmfDFZSuQmPIr5X33Ojav+b
swIDAQABo4IBYzCCAV8wCQYDVR0TBAIwADAtBglghkgBhvhCAQ0EIBYeRWFzeS1S
U0EgR2VuZXJhdGVkIENlcnRpZmljYXRlMB0GA1UdDgQWBBSHQW2YWfrWvWbcnE16
Vngiv2leoDCB4QYDVR0jBIHZMIHWgBQSzWAE0qCAnnDtxpm4eyzGUv0ZoaGBsqSB
rzCBrDELMAkGA1UEBhMCVVMxCzAJBgNVBAgTAk9IMREwDwYDVQQHEwhDb2x1bWJ1
czESMBAGA1UEChMJVmlraW5nVlBOMR0wGwYDVQQLExRNeU9yZ2FuaXphdGlvbmFs
VW5pdDEVMBMGA1UEAxMMVmlraW5nVlBOIENBMRAwDgYDVQQpEwdFYXN5UlNBMSEw
HwYJKoZIhvcNAQkBFhJtZUBteWhvc3QubXlkb21haW6CCQDPNYXugL8qPjATBgNV
HSUEDDAKBggrBgEFBQcDAjALBgNVHQ8EBAMCB4AwDQYJKoZIhvcNAQEEBQADggIB
AOSgAQcGQgQiZznXApfztTKpGj+UT6t3bAb1PnXRMY9MoSgScFXWqykXehZo6Aqn
PpXNv0QIKfaEtRQr5cvxMnJJojGoHhMYaMVYTVaguRRlApaz88NcsAGNqDaRSVC9
fg5aOLbqv8G8dbAZGcMxUI3Zo/U12fq32CNJclmRl2xZKfszp8DFs3NGdAnCqhE3
exAlRicSAQNIKHNictgh3bSHaQXcHFlKwaIxOSONBmYsps1C8U3e3ouJQLSkJWGc
4qydN5viSGEBA74LxaIfAS0F6nhOEjMcaDv9LqmQOs8xHG0hRjGmpGDhHkCPpbZp
HMpQP0vopTQYlYPvkihkdJpx+pP2cjD6qXkqnr/mCF9UATNGoFuZP22e5dqOJkAA
j2zSE8s/V/gI5Tx6wr/b5j62B4Tn86fZmkeKKFiwljJjL7JEFJxLwiaMIYl0XwGv
cDaRPfl9Po6BFEHBc3rInBKCsaq4YEWpeNNmp9uyove51O/OhSBUUSlUUiEkJYTN
yl1hlxcBG6hLcqvsopSbBJ0kMySE5vtRgwDysnmw0mlaXs0N4PUF1aLJ7wqW+y/z
4Y4yRiYROQrjll4om0IbpRQEOXMIo6XTtyeDpSZoLTlfKfBfV3xUYVJDpmYjxE/F
DbO7XEjEuW+d/4anXQ0T6jpqQc7Qt7xGzx/sizFlD3yC
-----END CERTIFICATE-----
