Certificate:
    Data:
        Version: 3 (0x2)
        Serial Number: 3621 (0xe25)
    Signature Algorithm: md5WithRSAEncryption
        Issuer: C=US, ST=OH, L=Columbus, O=VikingVPN, OU=MyOrganizationalUnit, CN=VikingVPN CA/name=EasyRSA/emailAddress=me@myhost.mydomain
        Validity
            Not Before: Dec  5 07:33:12 2014 GMT
            Not After : Dec  2 07:33:12 2024 GMT
        Subject: CN=Client840Cert3d4541
        Subject Public Key Info:
            Public Key Algorithm: rsaEncryption
                Public-Key: (4096 bit)
                Modulus:
                    00:cd:38:fc:4d:be:61:54:e6:d8:c7:a3:12:0f:eb:
                    40:57:a8:64:52:af:d9:bd:3c:e9:6b:07:01:dc:cd:
                    d9:66:c8:ac:79:5f:02:7c:88:d8:89:28:c0:d9:7b:
                    cb:4d:21:d6:81:9a:c4:47:04:45:91:f5:9d:6b:fc:
                    ef:15:4f:34:8e:6a:bb:67:ed:95:aa:1c:03:a7:1d:
                    c0:aa:22:7b:06:a7:c5:c9:b2:2b:84:30:c8:6a:49:
                    a4:84:62:09:3c:66:4e:35:1d:93:5e:1d:8e:b6:60:
                    1b:52:87:ed:c5:ac:42:c8:9c:d8:49:e7:28:81:cc:
                    cc:b0:17:32:22:eb:26:ff:6d:69:c2:7c:0c:b0:b4:
                    4f:f4:86:ac:c2:6f:e6:83:c1:92:6f:e3:54:fc:fd:
                    41:ab:25:3f:44:21:c8:f1:79:96:64:f6:3d:5a:17:
                    29:e7:a9:08:31:30:b5:9c:e8:75:80:9d:d8:df:54:
                    e0:47:89:25:54:b8:c9:3a:12:ee:85:14:e9:c0:82:
                    56:46:6e:43:cb:a7:72:ed:85:67:b5:c0:87:6c:71:
                    e0:44:79:da:c7:d7:8e:44:6d:78:ad:ad:f9:ee:a4:
                    20:ba:b9:b3:63:63:f7:79:25:6e:3f:59:be:20:4c:
                    20:51:c5:2b:9c:bd:da:47:ef:eb:e9:3f:0f:60:ce:
                    d1:63:67:e8:0a:57:a0:5e:1d:43:1d:43:76:f9:16:
                    cb:0a:d4:d5:38:1c:3c:a8:00:ca:45:41:c8:0b:6d:
                    cf:ea:9f:60:47:07:ff:0a:8a:38:6a:ff:69:30:8c:
                    ad:eb:5d:9b:fc:10:b1:b8:63:98:35:b6:ad:67:60:
                    0e:70:13:0d:62:bc:a3:d7:fd:ce:e6:37:06:6e:a9:
                    74:5c:5c:2b:1a:60:d1:7f:b3:bf:4f:25:28:bb:ef:
                    01:b1:ed:f3:2b:7c:e3:3b:28:f1:00:03:63:af:c7:
                    3b:c1:c0:8c:db:fa:0f:39:35:0a:15:12:b7:89:d6:
                    a5:57:06:93:22:23:21:35:bc:03:d8:c2:3a:1b:fb:
                    4c:56:36:3f:42:d9:7d:5e:15:55:a3:94:52:f3:62:
                    c2:01:93:ff:59:fa:93:05:9a:4d:f3:bb:a1:b5:85:
                    b8:ed:86:3e:81:7b:01:a1:65:38:81:ea:a6:01:58:
                    be:2b:62:7b:c2:23:dc:d4:f3:8c:86:3f:00:5a:3b:
                    8e:5a:a1:9f:2f:53:d3:d4:41:2b:69:d7:99:be:e5:
                    12:25:a2:9d:0e:32:86:b6:37:69:59:9e:f4:f0:ba:
                    5b:7b:71:a6:50:ec:2f:28:8c:8a:e2:63:d8:cc:dc:
                    b4:6f:6c:3e:76:27:9c:05:f1:05:b6:5d:c0:6d:67:
                    e1:ef:ab
                Exponent: 65537 (0x10001)
        X509v3 extensions:
            X509v3 Basic Constraints: 
                CA:FALSE
            Netscape Comment: 
                Easy-RSA Generated Certificate
            X509v3 Subject Key Identifier: 
                2E:82:DE:F5:FD:9D:FB:BD:C4:4E:F4:18:80:9F:18:4D:98:FB:30:DE
            X509v3 Authority Key Identifier: 
                keyid:12:CD:60:04:D2:A0:80:9E:70:ED:C6:99:B8:7B:2C:C6:52:FD:19:A1
                DirName:/C=US/ST=OH/L=Columbus/O=VikingVPN/OU=MyOrganizationalUnit/CN=VikingVPN CA/name=EasyRSA/emailAddress=me@myhost.mydomain
                serial:CF:35:85:EE:80:BF:2A:3E

            X509v3 Extended Key Usage: 
                TLS Web Client Authentication
            X509v3 Key Usage: 
                Digital Signature
    Signature Algorithm: md5WithRSAEncryption
         03:68:99:e6:f9:15:10:89:d3:7f:55:76:5d:84:18:c0:12:1a:
         59:50:17:37:e7:b3:17:23:76:fc:95:c0:04:01:eb:34:18:10:
         c6:40:d8:c4:25:9d:47:f0:01:18:ad:d0:aa:c0:4c:c3:ab:52:
         a6:59:b3:c0:75:33:2a:5c:08:ba:4e:c2:b2:e3:ee:b6:7e:3f:
         2b:ae:fe:0a:3f:fe:aa:c3:7c:e0:01:2e:1d:16:05:aa:7b:93:
         13:e2:bc:a5:35:ac:75:dd:c2:22:92:a2:a5:65:4a:28:6c:85:
         04:67:8e:4b:e1:68:ab:39:54:f3:9b:65:cd:3a:dc:eb:9a:b2:
         a1:4c:2a:52:98:82:0e:17:67:28:aa:c6:fa:71:90:a1:d2:ac:
         2a:b5:1f:4e:21:4c:02:29:07:d4:e0:f8:03:ef:9f:4f:5e:ad:
         dc:1f:31:21:26:00:bb:fd:87:41:ef:26:d0:c3:a9:6f:45:13:
         02:a2:06:d7:f1:9c:82:b2:dd:49:83:d5:27:5e:a5:42:24:7a:
         8b:a0:81:ca:ff:16:17:98:9f:11:7c:d6:f3:ee:1e:57:37:c2:
         8a:4f:80:50:55:04:ac:40:34:c3:a6:50:4e:40:9b:be:78:fa:
         8d:85:96:b8:c9:5d:09:2d:80:b0:a1:81:e5:fa:38:05:46:b9:
         15:8f:4d:db:9e:ba:49:a5:61:be:75:21:37:f9:da:2f:6d:03:
         0f:c4:3d:d2:b1:be:06:af:9f:5d:56:fe:ce:ff:aa:b8:a8:47:
         1e:f7:3f:c2:ae:9b:9f:4e:af:7b:e4:5f:80:b8:e0:94:5f:0d:
         7f:74:7f:c2:9e:5a:8d:e4:73:ee:66:b4:4c:12:ab:47:73:6c:
         48:92:11:64:7b:c9:a6:cf:4e:0e:e7:14:4d:db:ed:c4:9d:ab:
         5a:aa:a0:60:02:bf:70:b8:ad:5e:bb:18:65:7c:49:41:68:dc:
         81:48:e0:90:e9:84:00:32:82:7d:67:c4:d4:49:a0:f7:65:da:
         1c:33:0b:87:6f:94:c9:88:6e:95:d0:06:b1:47:c0:46:80:7c:
         4b:a0:9a:7f:86:80:34:3c:aa:a9:6e:14:3a:72:94:2b:fe:1a:
         79:48:01:b5:db:23:bd:5e:7d:7f:71:0e:e5:4b:72:22:75:31:
         73:08:54:aa:25:a0:5b:37:0a:25:d0:e4:c5:b7:48:d8:83:66:
         8c:76:7a:d4:73:64:be:d6:3c:b3:df:fa:23:41:63:c0:08:f3:
         03:47:28:93:08:55:84:0d:e3:c7:3a:f3:9a:c5:e0:73:e5:77:
         59:d7:6b:e7:82:8c:78:c4:91:de:dd:c3:88:79:47:ec:e9:c5:
         83:95:20:ee:1f:29:b2:ee
-----BEGIN CERTIFICATE-----
MIIGrDCCBJSgAwIBAgICDiUwDQYJKoZIhvcNAQEEBQAwgawxCzAJBgNVBAYTAlVT
MQswCQYDVQQIEwJPSDERMA8GA1UEBxMIQ29sdW1idXMxEjAQBgNVBAoTCVZpa2lu
Z1ZQTjEdMBsGA1UECxMUTXlPcmdhbml6YXRpb25hbFVuaXQxFTATBgNVBAMTDFZp
a2luZ1ZQTiBDQTEQMA4GA1UEKRMHRWFzeVJTQTEhMB8GCSqGSIb3DQEJARYSbWVA
bXlob3N0Lm15ZG9tYWluMB4XDTE0MTIwNTA3MzMxMloXDTI0MTIwMjA3MzMxMlow
HjEcMBoGA1UEAxMTQ2xpZW50ODQwQ2VydDNkNDU0MTCCAiIwDQYJKoZIhvcNAQEB
BQADggIPADCCAgoCggIBAM04/E2+YVTm2MejEg/rQFeoZFKv2b086WsHAdzN2WbI
rHlfAnyI2IkowNl7y00h1oGaxEcERZH1nWv87xVPNI5qu2ftlaocA6cdwKoiewan
xcmyK4QwyGpJpIRiCTxmTjUdk14djrZgG1KH7cWsQsic2EnnKIHMzLAXMiLrJv9t
acJ8DLC0T/SGrMJv5oPBkm/jVPz9QaslP0QhyPF5lmT2PVoXKeepCDEwtZzodYCd
2N9U4EeJJVS4yToS7oUU6cCCVkZuQ8uncu2FZ7XAh2xx4ER52sfXjkRteK2t+e6k
ILq5s2Nj93klbj9ZviBMIFHFK5y92kfv6+k/D2DO0WNn6ApXoF4dQx1DdvkWywrU
1TgcPKgAykVByAttz+qfYEcH/wqKOGr/aTCMretdm/wQsbhjmDW2rWdgDnATDWK8
o9f9zuY3Bm6pdFxcKxpg0X+zv08lKLvvAbHt8yt84zso8QADY6/HO8HAjNv6Dzk1
ChUSt4nWpVcGkyIjITW8A9jCOhv7TFY2P0LZfV4VVaOUUvNiwgGT/1n6kwWaTfO7
obWFuO2GPoF7AaFlOIHqpgFYvitie8Ij3NTzjIY/AFo7jlqhny9T09RBK2nXmb7l
EiWinQ4yhrY3aVme9PC6W3txplDsLyiMiuJj2MzctG9sPnYnnAXxBbZdwG1n4e+r
AgMBAAGjggFjMIIBXzAJBgNVHRMEAjAAMC0GCWCGSAGG+EIBDQQgFh5FYXN5LVJT
QSBHZW5lcmF0ZWQgQ2VydGlmaWNhdGUwHQYDVR0OBBYEFC6C3vX9nfu9xE70GICf
GE2Y+zDeMIHhBgNVHSMEgdkwgdaAFBLNYATSoICecO3Gmbh7LMZS/RmhoYGypIGv
MIGsMQswCQYDVQQGEwJVUzELMAkGA1UECBMCT0gxETAPBgNVBAcTCENvbHVtYnVz
MRIwEAYDVQQKEwlWaWtpbmdWUE4xHTAbBgNVBAsTFE15T3JnYW5pemF0aW9uYWxV
bml0MRUwEwYDVQQDEwxWaWtpbmdWUE4gQ0ExEDAOBgNVBCkTB0Vhc3lSU0ExITAf
BgkqhkiG9w0BCQEWEm1lQG15aG9zdC5teWRvbWFpboIJAM81he6Avyo+MBMGA1Ud
JQQMMAoGCCsGAQUFBwMCMAsGA1UdDwQEAwIHgDANBgkqhkiG9w0BAQQFAAOCAgEA
A2iZ5vkVEInTf1V2XYQYwBIaWVAXN+ezFyN2/JXABAHrNBgQxkDYxCWdR/ABGK3Q
qsBMw6tSplmzwHUzKlwIuk7CsuPutn4/K67+Cj/+qsN84AEuHRYFqnuTE+K8pTWs
dd3CIpKipWVKKGyFBGeOS+FoqzlU85tlzTrc65qyoUwqUpiCDhdnKKrG+nGQodKs
KrUfTiFMAikH1OD4A++fT16t3B8xISYAu/2HQe8m0MOpb0UTAqIG1/GcgrLdSYPV
J16lQiR6i6CByv8WF5ifEXzW8+4eVzfCik+AUFUErEA0w6ZQTkCbvnj6jYWWuMld
CS2AsKGB5fo4BUa5FY9N2566SaVhvnUhN/naL20DD8Q90rG+Bq+fXVb+zv+quKhH
Hvc/wq6bn06ve+RfgLjglF8Nf3R/wp5ajeRz7ma0TBKrR3NsSJIRZHvJps9ODucU
TdvtxJ2rWqqgYAK/cLitXrsYZXxJQWjcgUjgkOmEADKCfWfE1Emg92XaHDMLh2+U
yYhuldAGsUfARoB8S6Caf4aANDyqqW4UOnKUK/4aeUgBtdsjvV59f3EO5UtyInUx
cwhUqiWgWzcKJdDkxbdI2INmjHZ61HNkvtY8s9/6I0FjwAjzA0cokwhVhA3jxzrz
msXgc+V3Wddr54KMeMSR3t3DiHlH7OnFg5Ug7h8psu4=
-----END CERTIFICATE-----
