Certificate:
    Data:
        Version: 3 (0x2)
        Serial Number: 10669 (0x29ad)
    Signature Algorithm: sha256WithRSAEncryption
        Issuer: C=US, ST=OH, L=Columbus, O=VikingVPN, OU=MyOrganizationalUnit, CN=VikingVPN CA/name=EasyRSA/emailAddress=me@myhost.mydomain
        Validity
            Not Before: Apr 18 02:57:31 2017 GMT
            Not After : Apr 16 02:57:31 2027 GMT
        Subject: CN=Client2052Cert4bbe9d
        Subject Public Key Info:
            Public Key Algorithm: rsaEncryption
                Public-Key: (4096 bit)
                Modulus:
                    00:b1:50:bd:e9:ba:d3:21:18:1a:4b:56:6b:f4:15:
                    0f:08:cd:7a:17:a3:da:06:50:50:28:53:92:e7:6e:
                    67:6e:19:57:cc:1c:37:54:80:8b:30:d0:e9:8e:53:
                    5e:2e:48:9f:4e:a9:bc:f5:bd:e1:cb:73:4f:21:d7:
                    2f:b3:4e:22:89:7e:86:e7:1b:a9:b4:d7:a9:1e:2f:
                    ed:75:4a:dc:9a:28:32:18:95:37:ab:63:dd:01:37:
                    7e:1d:55:0b:f2:2f:f1:e8:d3:a1:7b:53:3e:cb:6c:
                    83:8d:11:05:7f:5b:37:30:b2:1e:a1:6b:b4:10:b2:
                    58:ed:de:51:25:9d:14:ed:69:3d:c9:32:12:a9:0b:
                    b2:28:3e:a6:54:fd:5d:91:ef:ab:82:d7:13:a5:30:
                    5b:65:3a:89:f4:dd:8a:1a:3b:de:71:6f:74:ea:a9:
                    d1:08:7f:46:c7:09:70:7c:ea:c0:dd:05:d3:6f:19:
                    c2:bb:e5:9f:fd:f8:52:3b:58:50:ea:fd:43:2e:7e:
                    5c:e4:a1:a4:b6:62:f6:b4:7c:83:18:32:ca:80:1a:
                    cd:da:f0:3d:19:96:9e:ce:e9:d3:e0:3c:c5:09:ac:
                    b1:71:ae:a8:a4:3d:82:ce:f8:dc:a9:2d:7b:56:8f:
                    1c:db:dc:f0:dd:fc:47:c3:7c:ac:a4:2d:51:7d:0f:
                    42:23:47:30:d4:57:2c:fc:c3:ab:e7:82:ae:9c:6c:
                    48:72:f5:d3:91:91:33:17:00:0b:4b:ba:13:55:2d:
                    3b:6c:30:fc:1f:d3:d3:9e:41:de:f0:72:eb:67:af:
                    80:49:fc:06:a4:69:45:be:d4:c7:1b:1b:d5:44:9e:
                    33:bb:9c:df:d3:59:0a:fb:cf:02:f0:c4:8b:44:0d:
                    8f:c8:84:1c:54:67:db:f9:eb:f0:1f:56:71:40:1a:
                    ef:4a:4e:55:25:10:dd:7a:6b:66:c0:06:f7:19:21:
                    fb:c2:45:bc:9e:fb:aa:b7:65:d2:23:ca:a7:de:60:
                    c4:25:0c:03:be:a0:69:81:41:d9:53:b9:13:bd:38:
                    6d:3a:e8:ca:0a:bc:6b:3e:8d:c2:62:f8:83:7c:9e:
                    1a:a0:50:f9:04:b6:bb:85:b2:bc:3b:4b:2f:7b:4d:
                    cc:5d:ac:16:09:e5:b3:81:ad:a6:b5:88:3f:16:74:
                    8b:65:04:e2:d2:d6:ca:36:b6:af:f0:8f:f2:4e:58:
                    70:73:a4:19:75:96:a6:81:4e:7d:b8:74:fb:63:5c:
                    78:a9:e0:20:15:37:5e:ab:62:0d:4f:d4:58:82:03:
                    cb:8a:f6:fa:fb:68:af:11:d2:c5:d8:42:d6:f7:b1:
                    97:93:d6:1a:da:68:17:92:33:68:62:fc:b7:b5:05:
                    76:80:af
                Exponent: 65537 (0x10001)
        X509v3 extensions:
            X509v3 Basic Constraints: 
                CA:FALSE
            Netscape Comment: 
                Easy-RSA Generated Certificate
            X509v3 Subject Key Identifier: 
                3C:8B:F1:31:EE:57:79:63:D3:21:01:C3:C1:28:5F:27:58:0D:68:28
            X509v3 Authority Key Identifier: 
                keyid:12:CD:60:04:D2:A0:80:9E:70:ED:C6:99:B8:7B:2C:C6:52:FD:19:A1
                DirName:/C=US/ST=OH/L=Columbus/O=VikingVPN/OU=MyOrganizationalUnit/CN=VikingVPN CA/name=EasyRSA/emailAddress=me@myhost.mydomain
                serial:CF:35:85:EE:80:BF:2A:3E

            X509v3 Extended Key Usage: 
                TLS Web Client Authentication
            X509v3 Key Usage: 
                Digital Signature
    Signature Algorithm: sha256WithRSAEncryption
         93:d3:e9:37:7a:8a:7f:e1:86:88:aa:db:75:21:8a:c8:bd:c6:
         82:f2:79:87:45:cc:d3:7d:6d:9f:3e:05:9f:d2:e1:f9:25:cc:
         7e:85:16:5e:f8:a0:b4:e5:db:f0:b3:96:79:16:0f:50:08:90:
         e2:de:85:7b:fb:91:4f:3c:7f:48:0a:32:7c:1d:65:0e:1b:82:
         e4:16:57:c9:fb:81:6a:03:bf:fd:8b:32:be:96:dd:b5:63:54:
         89:76:b4:c8:93:47:21:dd:5d:49:a2:07:d4:8d:9f:bd:88:d7:
         8d:12:3c:7d:da:ae:68:dd:54:4b:e5:0f:c8:e6:ac:e3:80:81:
         a7:27:68:82:8e:50:68:7d:43:27:04:4c:15:57:c3:11:c4:ea:
         a6:28:ae:11:d1:39:05:57:cc:4a:ad:d7:d4:cf:53:36:21:4d:
         9e:db:8b:ae:0c:79:3b:48:f6:c1:dc:ac:aa:13:bd:2a:97:e5:
         cc:7e:3b:c3:88:ea:69:a7:34:6e:8e:6a:7d:95:5a:68:b4:a9:
         bd:78:10:82:b5:8e:7e:e0:e7:bf:46:1a:e1:f2:bf:a6:b7:3f:
         ca:40:44:f3:18:0e:5e:13:d3:c8:b9:59:44:27:a4:c6:f3:6b:
         63:6a:e3:2b:2c:4d:c5:7d:3c:fe:77:48:ea:02:89:8c:08:a9:
         6f:53:7d:e5:1e:8d:93:c8:92:f7:ba:b3:01:ef:19:e8:56:07:
         d8:d2:f5:ce:9e:c0:51:b3:f4:0f:41:68:63:06:6e:16:1f:67:
         53:07:44:47:20:a8:30:84:b4:29:9b:5d:45:c7:89:e5:33:ef:
         66:15:26:84:e9:c4:66:aa:c5:39:5e:1c:42:24:19:46:16:15:
         70:47:3f:c6:ed:28:40:5e:4d:6d:e9:2e:45:ce:2c:22:16:d2:
         a1:d0:59:fd:ea:8b:e7:58:b3:24:41:4b:36:f0:8b:a8:d6:e5:
         53:7b:cb:88:42:82:41:57:17:25:e3:c5:c4:23:81:f4:59:3e:
         7e:4a:6a:9d:21:fc:25:82:8b:e1:00:55:df:a8:5f:49:71:fd:
         55:20:1e:90:eb:ce:6a:b3:c0:38:03:15:ed:a3:fb:59:82:90:
         2b:c4:ae:b3:ed:bc:48:82:82:42:03:cf:ce:8d:18:d0:1e:2f:
         f6:22:f3:1a:2b:aa:af:bd:48:1c:ea:19:a4:6d:c8:d0:b6:6d:
         b0:8e:d6:1f:b6:af:44:7b:fe:ae:bf:84:a5:81:6c:6f:04:51:
         e5:6a:2c:c3:f5:55:93:00:c1:de:01:6c:c7:45:d5:0e:d2:dd:
         35:f9:c9:94:df:99:8d:b4:0e:59:03:1d:d7:19:21:87:d8:71:
         d0:01:7b:90:87:9f:be:92
-----BEGIN CERTIFICATE-----
MIIGrTCCBJWgAwIBAgICKa0wDQYJKoZIhvcNAQELBQAwgawxCzAJBgNVBAYTAlVT
MQswCQYDVQQIEwJPSDERMA8GA1UEBxMIQ29sdW1idXMxEjAQBgNVBAoTCVZpa2lu
Z1ZQTjEdMBsGA1UECxMUTXlPcmdhbml6YXRpb25hbFVuaXQxFTATBgNVBAMTDFZp
a2luZ1ZQTiBDQTEQMA4GA1UEKRMHRWFzeVJTQTEhMB8GCSqGSIb3DQEJARYSbWVA
bXlob3N0Lm15ZG9tYWluMB4XDTE3MDQxODAyNTczMVoXDTI3MDQxNjAyNTczMVow
HzEdMBsGA1UEAxMUQ2xpZW50MjA1MkNlcnQ0YmJlOWQwggIiMA0GCSqGSIb3DQEB
AQUAA4ICDwAwggIKAoICAQCxUL3putMhGBpLVmv0FQ8IzXoXo9oGUFAoU5Lnbmdu
GVfMHDdUgIsw0OmOU14uSJ9Oqbz1veHLc08h1y+zTiKJfobnG6m016keL+11Stya
KDIYlTerY90BN34dVQvyL/Ho06F7Uz7LbIONEQV/Wzcwsh6ha7QQsljt3lElnRTt
aT3JMhKpC7IoPqZU/V2R76uC1xOlMFtlOon03YoaO95xb3TqqdEIf0bHCXB86sDd
BdNvGcK75Z/9+FI7WFDq/UMuflzkoaS2Yva0fIMYMsqAGs3a8D0Zlp7O6dPgPMUJ
rLFxrqikPYLO+NypLXtWjxzb3PDd/EfDfKykLVF9D0IjRzDUVyz8w6vngq6cbEhy
9dORkTMXAAtLuhNVLTtsMPwf09OeQd7wcutnr4BJ/AakaUW+1McbG9VEnjO7nN/T
WQr7zwLwxItEDY/IhBxUZ9v56/AfVnFAGu9KTlUlEN16a2bABvcZIfvCRbye+6q3
ZdIjyqfeYMQlDAO+oGmBQdlTuRO9OG066MoKvGs+jcJi+IN8nhqgUPkEtruFsrw7
Sy97TcxdrBYJ5bOBraa1iD8WdItlBOLS1so2tq/wj/JOWHBzpBl1lqaBTn24dPtj
XHip4CAVN16rYg1P1FiCA8uK9vr7aK8R0sXYQtb3sZeT1hraaBeSM2hi/Le1BXaA
rwIDAQABo4IBYzCCAV8wCQYDVR0TBAIwADAtBglghkgBhvhCAQ0EIBYeRWFzeS1S
U0EgR2VuZXJhdGVkIENlcnRpZmljYXRlMB0GA1UdDgQWBBQ8i/Ex7ld5Y9MhAcPB
KF8nWA1oKDCB4QYDVR0jBIHZMIHWgBQSzWAE0qCAnnDtxpm4eyzGUv0ZoaGBsqSB
rzCBrDELMAkGA1UEBhMCVVMxCzAJBgNVBAgTAk9IMREwDwYDVQQHEwhDb2x1bWJ1
czESMBAGA1UEChMJVmlraW5nVlBOMR0wGwYDVQQLExRNeU9yZ2FuaXphdGlvbmFs
VW5pdDEVMBMGA1UEAxMMVmlraW5nVlBOIENBMRAwDgYDVQQpEwdFYXN5UlNBMSEw
HwYJKoZIhvcNAQkBFhJtZUBteWhvc3QubXlkb21haW6CCQDPNYXugL8qPjATBgNV
HSUEDDAKBggrBgEFBQcDAjALBgNVHQ8EBAMCB4AwDQYJKoZIhvcNAQELBQADggIB
AJPT6Td6in/hhoiq23Uhisi9xoLyeYdFzNN9bZ8+BZ/S4fklzH6FFl74oLTl2/Cz
lnkWD1AIkOLehXv7kU88f0gKMnwdZQ4bguQWV8n7gWoDv/2LMr6W3bVjVIl2tMiT
RyHdXUmiB9SNn72I140SPH3armjdVEvlD8jmrOOAgacnaIKOUGh9QycETBVXwxHE
6qYorhHROQVXzEqt19TPUzYhTZ7bi64MeTtI9sHcrKoTvSqX5cx+O8OI6mmnNG6O
an2VWmi0qb14EIK1jn7g579GGuHyv6a3P8pARPMYDl4T08i5WUQnpMbza2Nq4yss
TcV9PP53SOoCiYwIqW9TfeUejZPIkve6swHvGehWB9jS9c6ewFGz9A9BaGMGbhYf
Z1MHREcgqDCEtCmbXUXHieUz72YVJoTpxGaqxTleHEIkGUYWFXBHP8btKEBeTW3p
LkXOLCIW0qHQWf3qi+dYsyRBSzbwi6jW5VN7y4hCgkFXFyXjxcQjgfRZPn5Kap0h
/CWCi+EAVd+oX0lx/VUgHpDrzmqzwDgDFe2j+1mCkCvErrPtvEiCgkIDz86NGNAe
L/Yi8xorqq+9SBzqGaRtyNC2bbCO1h+2r0R7/q6/hKWBbG8EUeVqLMP1VZMAwd4B
bMdF1Q7S3TX5yZTfmY20DlkDHdcZIYfYcdABe5CHn76S
-----END CERTIFICATE-----
