Certificate:
    Data:
        Version: 3 (0x2)
        Serial Number: 3566 (0xdee)
    Signature Algorithm: md5WithRSAEncryption
        Issuer: C=US, ST=OH, L=Columbus, O=VikingVPN, OU=MyOrganizationalUnit, CN=VikingVPN CA/name=EasyRSA/emailAddress=me@myhost.mydomain
        Validity
            Not Before: Dec  1 11:06:33 2014 GMT
            Not After : Nov 28 11:06:33 2024 GMT
        Subject: CN=Client1223Certa6c870
        Subject Public Key Info:
            Public Key Algorithm: rsaEncryption
                Public-Key: (4096 bit)
                Modulus:
                    00:c7:16:44:db:8f:d9:f7:bd:9f:d3:7f:68:2d:6e:
                    90:e6:b1:70:73:20:49:a4:e4:49:0d:86:32:0b:11:
                    92:c6:76:7b:98:27:75:da:6c:9c:cd:15:69:cd:f7:
                    8c:7c:2e:a8:42:ef:7f:69:3a:64:c5:54:22:ac:e8:
                    52:c1:dd:82:94:59:e1:25:dc:59:21:ca:c9:7b:fe:
                    f1:49:62:92:5e:f2:0b:89:fd:0d:19:51:a1:34:5a:
                    ab:11:8c:e9:2d:19:04:0b:2b:48:18:3c:52:33:20:
                    40:81:5a:b8:e0:0a:55:54:74:e2:2a:4f:96:07:83:
                    a0:ce:3c:bb:fb:4c:da:a5:01:2c:46:c5:1b:f6:63:
                    99:19:b5:59:09:d0:cd:c3:ba:3b:01:03:a8:3f:70:
                    9d:4a:df:b4:bb:5f:8a:2d:25:86:04:98:62:b9:ea:
                    ab:33:b7:00:f2:73:4e:fa:a5:e9:e0:9e:4e:76:2d:
                    18:01:f0:23:f9:05:72:a3:58:4c:a4:99:33:cd:55:
                    03:79:5c:8c:9b:9f:bf:32:79:c8:a3:7b:89:35:a4:
                    07:b2:13:be:0c:8e:1b:a3:36:78:f7:a5:29:9e:a5:
                    5f:07:0c:0c:22:b0:13:84:2d:68:57:05:50:a5:a7:
                    e8:cc:cc:f1:6f:15:87:a2:48:4e:71:d9:c5:01:43:
                    f2:fb:e5:00:07:39:71:9b:4a:7a:ab:28:b1:a0:de:
                    87:f6:75:9f:01:07:64:44:c1:e0:6c:3b:a8:7b:53:
                    aa:5c:a4:76:c8:6f:48:42:b9:c5:cb:a4:a4:a1:8c:
                    9c:2c:bf:c6:02:41:94:fd:e8:ba:76:d6:cd:9b:22:
                    77:ff:7a:1a:1a:a0:bd:1b:63:3c:05:55:bf:f2:8f:
                    a7:1b:fa:7d:3c:b9:67:46:57:04:92:13:6f:ed:7d:
                    f5:66:6a:91:b0:e7:e3:47:b2:1b:9b:48:3e:24:b3:
                    70:72:68:ab:11:15:4f:40:3e:51:8d:5f:66:16:0d:
                    a9:bf:93:8a:b3:94:bb:9f:d0:ac:65:49:59:6b:47:
                    26:1f:f1:39:45:67:af:d4:ab:e1:e9:10:de:04:f8:
                    70:eb:2a:22:e5:d1:31:71:28:6f:04:19:82:24:05:
                    cf:b6:4f:b9:9a:ec:b1:d5:f3:7d:eb:22:d6:b0:36:
                    ef:a5:2c:73:20:e6:aa:42:5a:bc:f0:57:ce:aa:bb:
                    e9:17:8b:78:e1:f7:a1:22:c1:0f:df:ff:cf:f2:98:
                    01:e3:0d:ba:e3:e3:60:1e:ed:e5:74:c3:ea:8f:6e:
                    ad:4f:a1:6b:a8:86:55:53:bb:be:57:a4:32:57:fc:
                    b1:b9:64:51:de:ef:4e:08:d5:c6:f4:5a:6b:50:f1:
                    df:e2:13
                Exponent: 65537 (0x10001)
        X509v3 extensions:
            X509v3 Basic Constraints: 
                CA:FALSE
            Netscape Comment: 
                Easy-RSA Generated Certificate
            X509v3 Subject Key Identifier: 
                92:69:44:C3:F4:96:D1:2B:B8:7E:59:41:BF:A3:1B:AA:7F:91:BA:EA
            X509v3 Authority Key Identifier: 
                keyid:12:CD:60:04:D2:A0:80:9E:70:ED:C6:99:B8:7B:2C:C6:52:FD:19:A1
                DirName:/C=US/ST=OH/L=Columbus/O=VikingVPN/OU=MyOrganizationalUnit/CN=VikingVPN CA/name=EasyRSA/emailAddress=me@myhost.mydomain
                serial:CF:35:85:EE:80:BF:2A:3E

            X509v3 Extended Key Usage: 
                TLS Web Client Authentication
            X509v3 Key Usage: 
                Digital Signature
    Signature Algorithm: md5WithRSAEncryption
         36:ae:9a:53:69:01:cb:92:5d:d2:4a:cb:61:17:6a:bb:91:e8:
         37:2e:a0:77:16:bb:dd:f5:a1:20:e0:8f:15:4d:d6:4f:7a:bf:
         0b:6e:af:13:f6:79:47:21:a5:c3:c7:1f:60:98:52:2d:da:a8:
         ee:4c:cd:1c:b7:6b:a0:01:d2:59:e5:7b:e1:ed:5b:5f:26:f7:
         6a:a7:52:b0:f2:d0:df:d8:c9:37:64:c1:16:eb:13:f1:5e:90:
         6b:cc:d5:91:d4:a8:84:e8:e2:97:23:be:03:86:c4:55:8c:56:
         d6:33:5f:41:6c:4c:01:8b:22:f0:d2:8e:d4:8c:e0:7c:98:2a:
         2d:cb:c2:56:59:45:7b:8d:79:89:4f:0e:81:4f:30:45:c9:46:
         4e:25:bd:07:c8:3d:2f:bc:23:7a:5f:9a:d2:14:78:10:24:c3:
         a3:91:15:12:da:b3:fe:a3:01:91:22:6d:0b:a1:05:68:df:d2:
         ad:b7:fc:a9:bb:4d:7f:d2:85:fd:b6:1a:43:13:6a:e8:db:12:
         c4:e3:e2:3f:c6:4e:e3:6e:5e:03:7c:b5:5d:58:b0:a1:02:f7:
         ee:7e:b7:d1:e5:e8:32:19:aa:e4:2b:00:b4:ae:1e:29:6f:b6:
         5d:af:c0:54:dd:40:f4:c1:6d:c9:d7:09:92:bd:3d:19:9f:4b:
         2b:62:cd:db:3f:e6:51:3f:f9:13:f0:52:97:d0:26:87:fd:46:
         ad:f6:15:69:a6:7d:cd:b0:ac:14:cf:b3:63:29:15:5b:7f:71:
         d5:10:18:9b:85:35:a5:86:95:05:2b:0c:d8:1f:af:76:5a:e5:
         8d:11:70:84:ab:2b:a3:32:f7:cd:7b:c3:1c:99:24:90:6f:5a:
         52:d0:5b:55:27:7c:55:a7:5b:e4:56:69:69:9d:f6:f9:f8:f7:
         68:ca:52:e8:0f:35:bd:8d:67:07:af:83:b2:09:12:d4:af:cf:
         8a:08:68:75:e7:2b:8d:ff:01:3a:c7:2e:2d:17:07:6d:6e:0c:
         c4:f9:0a:b4:ec:35:be:e9:9a:2a:15:5a:b0:47:d8:8c:ec:41:
         6c:5a:91:25:c8:ce:a5:99:d0:43:9d:04:42:1a:25:91:0e:b6:
         ef:28:b8:fe:a8:03:25:bd:1b:ea:b7:d4:8a:76:91:1f:3d:b1:
         5d:4b:e8:a9:fb:1f:84:8d:bd:c2:00:d7:90:79:cd:92:f2:cb:
         08:da:d9:7f:9a:80:47:77:97:2a:9b:d7:d4:c2:5f:f9:bc:88:
         dc:ae:4c:16:cc:32:87:4c:82:b3:d4:23:fb:98:b2:d3:b2:31:
         da:8b:27:73:a2:a1:eb:10:af:1a:c0:e1:ab:33:08:66:ad:5a:
         a8:c6:06:c4:ea:2f:31:e5
-----BEGIN CERTIFICATE-----
MIIGrTCCBJWgAwIBAgICDe4wDQYJKoZIhvcNAQEEBQAwgawxCzAJBgNVBAYTAlVT
MQswCQYDVQQIEwJPSDERMA8GA1UEBxMIQ29sdW1idXMxEjAQBgNVBAoTCVZpa2lu
Z1ZQTjEdMBsGA1UECxMUTXlPcmdhbml6YXRpb25hbFVuaXQxFTATBgNVBAMTDFZp
a2luZ1ZQTiBDQTEQMA4GA1UEKRMHRWFzeVJTQTEhMB8GCSqGSIb3DQEJARYSbWVA
bXlob3N0Lm15ZG9tYWluMB4XDTE0MTIwMTExMDYzM1oXDTI0MTEyODExMDYzM1ow
HzEdMBsGA1UEAxMUQ2xpZW50MTIyM0NlcnRhNmM4NzAwggIiMA0GCSqGSIb3DQEB
AQUAA4ICDwAwggIKAoICAQDHFkTbj9n3vZ/Tf2gtbpDmsXBzIEmk5EkNhjILEZLG
dnuYJ3XabJzNFWnN94x8LqhC739pOmTFVCKs6FLB3YKUWeEl3Fkhysl7/vFJYpJe
8guJ/Q0ZUaE0WqsRjOktGQQLK0gYPFIzIECBWrjgClVUdOIqT5YHg6DOPLv7TNql
ASxGxRv2Y5kZtVkJ0M3DujsBA6g/cJ1K37S7X4otJYYEmGK56qsztwDyc076peng
nk52LRgB8CP5BXKjWEykmTPNVQN5XIybn78yecije4k1pAeyE74MjhujNnj3pSme
pV8HDAwisBOELWhXBVClp+jMzPFvFYeiSE5x2cUBQ/L75QAHOXGbSnqrKLGg3of2
dZ8BB2REweBsO6h7U6pcpHbIb0hCucXLpKShjJwsv8YCQZT96Lp21s2bInf/ehoa
oL0bYzwFVb/yj6cb+n08uWdGVwSSE2/tffVmapGw5+NHshubSD4ks3ByaKsRFU9A
PlGNX2YWDam/k4qzlLuf0KxlSVlrRyYf8TlFZ6/Uq+HpEN4E+HDrKiLl0TFxKG8E
GYIkBc+2T7ma7LHV833rItawNu+lLHMg5qpCWrzwV86qu+kXi3jh96EiwQ/f/8/y
mAHjDbrj42Ae7eV0w+qPbq1PoWuohlVTu75XpDJX/LG5ZFHe704I1cb0WmtQ8d/i
EwIDAQABo4IBYzCCAV8wCQYDVR0TBAIwADAtBglghkgBhvhCAQ0EIBYeRWFzeS1S
U0EgR2VuZXJhdGVkIENlcnRpZmljYXRlMB0GA1UdDgQWBBSSaUTD9JbRK7h+WUG/
oxuqf5G66jCB4QYDVR0jBIHZMIHWgBQSzWAE0qCAnnDtxpm4eyzGUv0ZoaGBsqSB
rzCBrDELMAkGA1UEBhMCVVMxCzAJBgNVBAgTAk9IMREwDwYDVQQHEwhDb2x1bWJ1
czESMBAGA1UEChMJVmlraW5nVlBOMR0wGwYDVQQLExRNeU9yZ2FuaXphdGlvbmFs
VW5pdDEVMBMGA1UEAxMMVmlraW5nVlBOIENBMRAwDgYDVQQpEwdFYXN5UlNBMSEw
HwYJKoZIhvcNAQkBFhJtZUBteWhvc3QubXlkb21haW6CCQDPNYXugL8qPjATBgNV
HSUEDDAKBggrBgEFBQcDAjALBgNVHQ8EBAMCB4AwDQYJKoZIhvcNAQEEBQADggIB
ADaumlNpAcuSXdJKy2EXaruR6DcuoHcWu931oSDgjxVN1k96vwturxP2eUchpcPH
H2CYUi3aqO5MzRy3a6AB0lnle+HtW18m92qnUrDy0N/YyTdkwRbrE/FekGvM1ZHU
qITo4pcjvgOGxFWMVtYzX0FsTAGLIvDSjtSM4HyYKi3LwlZZRXuNeYlPDoFPMEXJ
Rk4lvQfIPS+8I3pfmtIUeBAkw6ORFRLas/6jAZEibQuhBWjf0q23/Km7TX/Shf22
GkMTaujbEsTj4j/GTuNuXgN8tV1YsKEC9+5+t9Hl6DIZquQrALSuHilvtl2vwFTd
QPTBbcnXCZK9PRmfSytizds/5lE/+RPwUpfQJof9Rq32FWmmfc2wrBTPs2MpFVt/
cdUQGJuFNaWGlQUrDNgfr3Za5Y0RcISrK6My9817wxyZJJBvWlLQW1UnfFWnW+RW
aWmd9vn492jKUugPNb2NZwevg7IJEtSvz4oIaHXnK43/ATrHLi0XB21uDMT5CrTs
Nb7pmioVWrBH2IzsQWxakSXIzqWZ0EOdBEIaJZEOtu8ouP6oAyW9G+q31Ip2kR89
sV1L6Kn7H4SNvcIA15B5zZLyywja2X+agEd3lyqb19TCX/m8iNyuTBbMModMgrPU
I/uYstOyMdqLJ3OioesQrxrA4aszCGatWqjGBsTqLzHl
-----END CERTIFICATE-----
