Certificate:
    Data:
        Version: 3 (0x2)
        Serial Number: 4976 (0x1370)
    Signature Algorithm: md5WithRSAEncryption
        Issuer: C=US, ST=OH, L=Columbus, O=VikingVPN, OU=MyOrganizationalUnit, CN=VikingVPN CA/name=EasyRSA/emailAddress=me@myhost.mydomain
        Validity
            Not Before: Apr 16 23:08:14 2015 GMT
            Not After : Apr 13 23:08:14 2025 GMT
        Subject: CN=Client1364Cert91516b
        Subject Public Key Info:
            Public Key Algorithm: rsaEncryption
                Public-Key: (4096 bit)
                Modulus:
                    00:d3:b9:6a:29:56:c3:55:54:a3:e3:28:b8:6f:ed:
                    05:64:8b:c2:94:56:4a:67:c1:91:44:77:21:97:08:
                    21:88:aa:80:61:03:64:7a:fb:30:66:59:2c:55:e7:
                    9e:fa:3d:9c:be:1f:6a:ad:fb:b8:58:9e:a9:d3:ee:
                    4c:4d:4b:cf:70:38:66:01:86:c7:5a:47:29:38:7f:
                    70:d9:b8:bc:85:f6:77:7c:59:23:f6:36:d5:b3:79:
                    eb:52:2a:dc:e0:d6:25:74:b4:05:c5:83:79:3f:85:
                    ef:69:0e:7d:ce:ca:10:e2:25:a5:70:bd:9b:99:ac:
                    40:26:48:f8:1f:51:d3:a7:e1:2b:bf:ae:21:60:4f:
                    15:f9:0b:fb:a7:89:86:a8:c5:b2:9d:56:e9:26:7a:
                    dc:43:53:04:d6:f6:76:b6:61:58:53:4d:bb:cd:cf:
                    99:cb:f9:d4:c0:6b:69:0a:3b:bf:10:81:e1:7a:cb:
                    e2:ca:19:98:b5:0f:84:72:1e:42:02:9a:84:e1:81:
                    03:bf:51:3c:96:d0:df:3c:ea:9e:cd:2d:fa:0b:67:
                    81:4c:cc:37:8f:42:30:03:bf:d2:4c:a8:17:15:ee:
                    d9:ee:fc:81:4f:08:9b:d5:85:29:e3:4b:19:95:e4:
                    fa:0b:a6:c7:72:0c:92:70:d3:f4:1e:5a:40:79:8f:
                    d3:69:55:6e:ea:2e:47:cd:6a:f2:75:e6:12:0f:6d:
                    06:c2:65:a6:c6:12:8f:ad:80:e5:49:3a:d8:33:39:
                    df:82:58:3b:36:4e:b9:1f:b3:3e:26:fe:d9:3d:e9:
                    22:9d:63:6f:f8:c8:e3:2b:3f:c6:7e:4b:93:20:22:
                    8a:81:0b:e2:b2:eb:36:96:12:7d:92:ee:31:40:06:
                    c8:53:36:16:84:d1:af:00:ca:85:64:43:82:84:93:
                    c1:fd:ef:94:ad:19:5e:a2:58:f7:e3:d0:7d:a3:6a:
                    cf:4a:6c:75:11:f2:f3:1f:10:dd:34:89:20:a9:84:
                    18:f4:5b:f8:38:e4:93:10:68:1c:8e:8d:3f:a3:e8:
                    58:be:e9:4d:60:12:20:b6:90:4b:65:b3:f2:12:f1:
                    1c:ab:01:0f:b8:ef:31:b9:57:7d:92:70:ff:a5:91:
                    ae:c6:b3:ad:28:5e:ed:35:77:8f:9c:19:61:f3:1a:
                    bf:65:3a:49:f3:66:97:9e:f9:d8:0b:b8:0b:1c:d8:
                    7c:9e:1e:52:b7:5a:78:6c:af:4e:5d:41:d8:da:df:
                    5c:d7:33:5c:a3:7a:2c:8e:0d:cb:ad:2c:33:5d:a6:
                    3b:0f:23:db:9d:a9:7d:a9:b4:66:8f:2d:1b:68:fa:
                    40:ab:c1:2c:4c:7f:73:bd:4b:7b:aa:1c:f1:76:34:
                    25:7a:af
                Exponent: 65537 (0x10001)
        X509v3 extensions:
            X509v3 Basic Constraints: 
                CA:FALSE
            Netscape Comment: 
                Easy-RSA Generated Certificate
            X509v3 Subject Key Identifier: 
                88:BB:07:A5:97:E9:00:13:6C:2F:C3:41:A4:E7:D4:5D:0E:FF:96:86
            X509v3 Authority Key Identifier: 
                keyid:12:CD:60:04:D2:A0:80:9E:70:ED:C6:99:B8:7B:2C:C6:52:FD:19:A1
                DirName:/C=US/ST=OH/L=Columbus/O=VikingVPN/OU=MyOrganizationalUnit/CN=VikingVPN CA/name=EasyRSA/emailAddress=me@myhost.mydomain
                serial:CF:35:85:EE:80:BF:2A:3E

            X509v3 Extended Key Usage: 
                TLS Web Client Authentication
            X509v3 Key Usage: 
                Digital Signature
    Signature Algorithm: md5WithRSAEncryption
         2d:65:6a:f8:9c:76:ca:b0:26:0d:30:66:17:ef:91:65:bd:09:
         03:49:a7:7e:08:0e:ff:9e:9a:20:b7:22:fb:8f:b1:ae:b0:30:
         31:e1:98:45:d8:a8:c6:e0:ca:15:f8:12:6b:dd:17:05:44:42:
         1a:67:52:9a:58:bc:95:59:8d:64:69:e6:48:bc:a0:e2:70:b6:
         b9:0c:bb:06:e6:6b:76:32:4c:82:8e:e3:9c:42:9c:b0:cb:3d:
         e8:68:48:96:d9:4f:3c:ee:25:79:b0:07:10:42:bc:9e:f1:ee:
         ff:b7:15:b8:b8:46:14:06:e0:31:6d:a4:4f:80:b4:7e:6c:94:
         b7:6e:d5:04:29:6b:23:8f:78:6c:69:f6:36:1d:ce:5d:6a:f6:
         2f:9f:ef:e0:eb:17:67:86:2d:90:b4:6f:5d:bf:7a:97:9a:79:
         96:e6:e6:b1:82:c3:11:5e:06:fa:9e:21:55:33:e9:3a:b1:c9:
         96:c1:c1:b9:80:63:0a:da:68:f5:c5:7c:cc:f8:08:85:fe:e5:
         19:82:00:a2:2f:51:b5:4a:98:f4:f5:78:c0:43:db:54:de:9e:
         a5:32:88:91:25:5a:2d:0b:3d:3a:39:e7:da:92:dd:e6:88:55:
         0b:34:76:9b:d2:bc:4d:4d:62:ec:41:b2:29:c9:bb:3e:62:98:
         9e:58:62:bd:40:31:4a:f7:60:ea:66:9b:ff:11:60:ee:b1:2a:
         fe:82:e0:1a:4d:0b:df:54:24:4e:52:e2:56:c8:3e:69:48:4e:
         b7:f0:13:df:16:f6:5f:15:f9:5d:52:8b:f7:d5:06:0c:a4:2d:
         3f:81:a9:e5:21:1f:15:48:e3:40:e9:66:4b:ea:4a:a3:33:d4:
         28:72:76:4d:93:d7:a1:0a:79:a4:a0:a5:ed:cf:f6:09:cb:cd:
         fa:f0:68:1c:b0:09:69:6c:e1:74:f7:5a:74:81:c2:4d:16:ca:
         01:ed:fe:df:c1:c6:35:61:67:93:83:90:fc:f8:f0:8d:f1:09:
         3b:b7:b1:dc:b3:9f:0c:71:15:16:c1:c8:a4:ca:df:c8:1d:f7:
         5d:a6:f6:57:6e:12:7c:49:db:ce:4d:39:bc:70:94:06:c3:ef:
         7f:f0:85:5f:0a:c5:a1:8f:e7:2f:ec:f6:de:c5:d4:9a:66:e7:
         02:34:c8:c1:c0:70:43:84:14:7c:9f:e9:2c:d4:68:f4:66:8b:
         0e:0e:a2:83:b9:4f:9a:b3:92:75:39:54:37:fb:21:df:ad:9f:
         8e:2b:49:27:8d:cf:ce:37:39:7a:3d:98:6b:5f:5a:2e:bd:ce:
         7a:96:87:58:bf:a7:a4:ef:96:d3:25:b8:bb:0a:c7:b2:b2:53:
         58:84:ab:7b:38:1d:be:ae
-----BEGIN CERTIFICATE-----
MIIGrTCCBJWgAwIBAgICE3AwDQYJKoZIhvcNAQEEBQAwgawxCzAJBgNVBAYTAlVT
MQswCQYDVQQIEwJPSDERMA8GA1UEBxMIQ29sdW1idXMxEjAQBgNVBAoTCVZpa2lu
Z1ZQTjEdMBsGA1UECxMUTXlPcmdhbml6YXRpb25hbFVuaXQxFTATBgNVBAMTDFZp
a2luZ1ZQTiBDQTEQMA4GA1UEKRMHRWFzeVJTQTEhMB8GCSqGSIb3DQEJARYSbWVA
bXlob3N0Lm15ZG9tYWluMB4XDTE1MDQxNjIzMDgxNFoXDTI1MDQxMzIzMDgxNFow
HzEdMBsGA1UEAxMUQ2xpZW50MTM2NENlcnQ5MTUxNmIwggIiMA0GCSqGSIb3DQEB
AQUAA4ICDwAwggIKAoICAQDTuWopVsNVVKPjKLhv7QVki8KUVkpnwZFEdyGXCCGI
qoBhA2R6+zBmWSxV5576PZy+H2qt+7hYnqnT7kxNS89wOGYBhsdaRyk4f3DZuLyF
9nd8WSP2NtWzeetSKtzg1iV0tAXFg3k/he9pDn3OyhDiJaVwvZuZrEAmSPgfUdOn
4Su/riFgTxX5C/uniYaoxbKdVukmetxDUwTW9na2YVhTTbvNz5nL+dTAa2kKO78Q
geF6y+LKGZi1D4RyHkICmoThgQO/UTyW0N886p7NLfoLZ4FMzDePQjADv9JMqBcV
7tnu/IFPCJvVhSnjSxmV5PoLpsdyDJJw0/QeWkB5j9NpVW7qLkfNavJ15hIPbQbC
ZabGEo+tgOVJOtgzOd+CWDs2Trkfsz4m/tk96SKdY2/4yOMrP8Z+S5MgIoqBC+Ky
6zaWEn2S7jFABshTNhaE0a8AyoVkQ4KEk8H975StGV6iWPfj0H2jas9KbHUR8vMf
EN00iSCphBj0W/g45JMQaByOjT+j6Fi+6U1gEiC2kEtls/IS8RyrAQ+47zG5V32S
cP+lka7Gs60oXu01d4+cGWHzGr9lOknzZpee+dgLuAsc2HyeHlK3Wnhsr05dQdja
31zXM1yjeiyODcutLDNdpjsPI9udqX2ptGaPLRto+kCrwSxMf3O9S3uqHPF2NCV6
rwIDAQABo4IBYzCCAV8wCQYDVR0TBAIwADAtBglghkgBhvhCAQ0EIBYeRWFzeS1S
U0EgR2VuZXJhdGVkIENlcnRpZmljYXRlMB0GA1UdDgQWBBSIuwell+kAE2wvw0Gk
59RdDv+WhjCB4QYDVR0jBIHZMIHWgBQSzWAE0qCAnnDtxpm4eyzGUv0ZoaGBsqSB
rzCBrDELMAkGA1UEBhMCVVMxCzAJBgNVBAgTAk9IMREwDwYDVQQHEwhDb2x1bWJ1
czESMBAGA1UEChMJVmlraW5nVlBOMR0wGwYDVQQLExRNeU9yZ2FuaXphdGlvbmFs
VW5pdDEVMBMGA1UEAxMMVmlraW5nVlBOIENBMRAwDgYDVQQpEwdFYXN5UlNBMSEw
HwYJKoZIhvcNAQkBFhJtZUBteWhvc3QubXlkb21haW6CCQDPNYXugL8qPjATBgNV
HSUEDDAKBggrBgEFBQcDAjALBgNVHQ8EBAMCB4AwDQYJKoZIhvcNAQEEBQADggIB
AC1lavicdsqwJg0wZhfvkWW9CQNJp34IDv+emiC3IvuPsa6wMDHhmEXYqMbgyhX4
EmvdFwVEQhpnUppYvJVZjWRp5ki8oOJwtrkMuwbma3YyTIKO45xCnLDLPehoSJbZ
TzzuJXmwBxBCvJ7x7v+3Fbi4RhQG4DFtpE+AtH5slLdu1QQpayOPeGxp9jYdzl1q
9i+f7+DrF2eGLZC0b12/epeaeZbm5rGCwxFeBvqeIVUz6TqxyZbBwbmAYwraaPXF
fMz4CIX+5RmCAKIvUbVKmPT1eMBD21TenqUyiJElWi0LPTo559qS3eaIVQs0dpvS
vE1NYuxBsinJuz5imJ5YYr1AMUr3YOpmm/8RYO6xKv6C4BpNC99UJE5S4lbIPmlI
TrfwE98W9l8V+V1Si/fVBgykLT+BqeUhHxVI40DpZkvqSqMz1Chydk2T16EKeaSg
pe3P9gnLzfrwaBywCWls4XT3WnSBwk0WygHt/t/BxjVhZ5ODkPz48I3xCTu3sdyz
nwxxFRbByKTK38gd912m9lduEnxJ285NObxwlAbD73/whV8KxaGP5y/s9t7F1Jpm
5wI0yMHAcEOEFHyf6SzUaPRmiw4OooO5T5qzknU5VDf7Id+tn44rSSeNz843OXo9
mGtfWi69znqWh1i/p6TvltMluLsKx7KyU1iEq3s4Hb6u
-----END CERTIFICATE-----
