Certificate:
    Data:
        Version: 3 (0x2)
        Serial Number: 162 (0xa2)
    Signature Algorithm: md5WithRSAEncryption
        Issuer: C=US, ST=OH, L=Columbus, O=VikingVPN, OU=MyOrganizationalUnit, CN=VikingVPN CA/name=EasyRSA/emailAddress=me@myhost.mydomain
        Validity
            Not Before: Sep 11 02:59:55 2013 GMT
            Not After : Sep  9 02:59:55 2023 GMT
        Subject: CN=Client88Certcff02e
        Subject Public Key Info:
            Public Key Algorithm: rsaEncryption
                Public-Key: (4096 bit)
                Modulus:
                    00:e1:73:8a:9c:c3:ea:57:7a:ad:30:2d:45:3e:8e:
                    a1:cd:be:cd:8c:18:a0:47:f5:8a:42:84:7d:40:b0:
                    df:92:06:fe:66:98:44:b2:d1:29:ce:95:ef:4d:62:
                    f7:21:d7:07:bb:26:dd:c1:21:d7:b1:15:7e:92:80:
                    5c:7c:7f:14:f1:eb:f6:a2:8b:41:40:96:45:90:36:
                    e6:13:48:a8:ed:4a:4f:c8:ae:da:ec:33:b1:af:0f:
                    42:9d:88:2f:d4:44:8a:cd:f9:fa:4a:44:38:74:5c:
                    a7:e4:97:ed:8b:02:5f:c5:4f:ed:25:9f:9c:97:07:
                    81:b0:32:9f:dd:36:3c:7f:20:d5:54:c8:5f:6d:c1:
                    ba:f5:00:4f:02:92:fb:8a:5b:17:1e:62:7c:45:3a:
                    5c:ce:99:d6:c5:b8:e9:fe:c3:b8:bf:d9:97:18:f2:
                    21:a0:7d:3a:69:ee:56:cc:c0:2f:e1:1d:40:43:56:
                    4b:22:f1:5d:50:52:b0:61:a1:f5:13:16:bf:41:3c:
                    8d:15:fd:89:87:9d:52:ed:df:f2:67:c5:69:36:c8:
                    86:00:be:52:22:82:cc:26:8c:3d:0a:02:f2:a3:0e:
                    3b:d8:f7:75:95:e0:6b:21:61:5f:a7:97:bc:0b:d2:
                    b2:df:1d:46:44:08:9e:a6:1a:4e:5e:2f:39:06:ab:
                    30:7e:d3:c7:f8:f5:e1:b4:25:5b:27:91:ac:56:70:
                    9e:c8:25:48:8c:ed:98:4d:87:f8:6f:62:df:7b:35:
                    7e:cd:c8:2a:0c:df:39:e5:d2:b5:cf:93:52:ad:73:
                    52:55:8c:d3:94:56:c7:e6:ce:e7:ec:64:7f:65:55:
                    12:01:7f:12:0a:a6:56:76:bd:e8:da:5b:75:96:c6:
                    bc:9a:82:f5:7e:7c:78:99:75:ee:41:4e:0f:c3:6b:
                    a9:9a:bb:91:db:27:db:fa:28:30:cb:5b:00:4d:d6:
                    8c:a7:50:d6:c9:f6:11:31:5c:c1:66:3f:ec:dd:f3:
                    09:73:e1:ae:21:d2:77:fd:b4:4c:1a:8e:70:e0:47:
                    4f:72:b9:cd:90:1e:cb:8a:7b:8d:99:88:e9:6e:74:
                    e2:ba:d2:f7:2b:bf:46:ec:af:38:ba:fb:aa:a1:d4:
                    85:f9:00:f1:46:db:4c:f8:76:c3:2c:ab:ed:bb:b1:
                    3f:00:66:9e:e0:78:04:f3:6c:e4:73:90:7a:85:cd:
                    75:14:be:ee:62:2b:7e:fa:6e:c2:fb:99:bc:1a:a4:
                    f8:2a:2d:94:d1:d5:d4:a0:82:92:1c:53:dd:f0:9a:
                    a1:31:63:47:8e:5e:17:28:3d:1a:11:a9:7d:d8:d6:
                    7b:d7:4b:a7:36:72:f2:65:f5:28:79:53:05:44:d6:
                    9a:9f:db
                Exponent: 65537 (0x10001)
        X509v3 extensions:
            X509v3 Basic Constraints: 
                CA:FALSE
            Netscape Comment: 
                Easy-RSA Generated Certificate
            X509v3 Subject Key Identifier: 
                8E:F9:47:1E:61:DA:10:E2:3C:92:5D:8D:C2:16:CF:97:C2:21:14:5D
            X509v3 Authority Key Identifier: 
                keyid:12:CD:60:04:D2:A0:80:9E:70:ED:C6:99:B8:7B:2C:C6:52:FD:19:A1
                DirName:/C=US/ST=OH/L=Columbus/O=VikingVPN/OU=MyOrganizationalUnit/CN=VikingVPN CA/name=EasyRSA/emailAddress=me@myhost.mydomain
                serial:CF:35:85:EE:80:BF:2A:3E

            X509v3 Extended Key Usage: 
                TLS Web Client Authentication
            X509v3 Key Usage: 
                Digital Signature
    Signature Algorithm: md5WithRSAEncryption
         22:06:09:64:db:9f:24:fc:bf:23:fe:18:b2:f2:2f:37:cc:bf:
         1d:7a:ed:0d:fa:14:27:e3:79:ea:3d:c3:c8:62:76:1e:b9:76:
         66:7d:be:0d:6e:3a:0b:0d:01:bd:5f:ff:b1:a2:8e:ed:34:a8:
         63:ed:5b:56:d5:a1:72:05:50:4d:b6:5a:4d:eb:66:82:51:74:
         00:de:e3:03:3b:d2:fd:05:28:ef:f8:61:e4:10:ce:8b:cf:4c:
         8e:6f:a5:47:6a:b9:ca:cb:fa:ef:37:57:ec:34:fb:12:09:e5:
         2d:d4:ed:92:c6:28:d2:21:c5:66:9c:0d:dd:30:47:ad:a1:33:
         12:41:9a:20:20:59:f8:cf:10:80:9b:5d:49:90:2b:f8:76:a0:
         2c:9b:9c:e4:d7:0e:14:c7:65:18:90:c6:9d:e3:88:08:e9:2b:
         46:92:d7:3a:05:38:28:29:e5:a0:32:c0:8e:d4:db:92:05:db:
         91:4d:e7:87:02:cf:f5:07:46:11:6b:dd:61:94:41:5d:89:9d:
         7f:c1:ee:fc:23:db:98:86:0e:85:26:52:0f:42:11:3e:49:4c:
         f9:cb:76:29:4e:e1:28:b9:f3:0d:d4:01:cd:aa:87:5d:ce:33:
         7b:81:f2:fd:3e:62:0b:22:24:08:d4:a5:2d:54:45:63:8f:10:
         ff:fc:08:80:97:9d:1a:3e:3f:07:33:b1:6f:9b:cd:e0:d1:ce:
         32:5c:7e:bf:f1:57:a3:78:1c:5d:e8:a9:26:02:16:3f:db:e1:
         eb:93:d9:a7:7d:e5:85:d0:4c:04:89:8e:a2:77:a6:dd:9c:aa:
         9b:0d:97:c0:56:d3:78:7c:9f:d5:28:93:70:14:8d:20:5f:e8:
         3c:3c:73:1d:e3:fa:85:35:c2:0e:d3:ef:83:00:bf:ed:e2:00:
         8d:08:13:7d:6d:fe:47:fc:e1:db:15:53:36:56:0f:4b:6f:88:
         9d:42:78:eb:44:45:ce:4c:c7:ed:e3:a2:ba:04:ac:46:36:46:
         51:a8:b9:52:17:04:c9:58:69:64:1c:99:c2:32:0a:e1:21:90:
         9e:fb:74:78:d5:62:5d:77:7f:93:a3:44:4d:dd:4d:e8:5a:14:
         18:21:3d:c4:d0:3b:bb:a9:cd:ae:1e:77:70:3a:07:e8:07:f2:
         a5:d7:7c:c9:b3:a7:4a:06:9e:00:3f:94:a4:92:de:24:17:60:
         32:69:e8:42:bc:a6:cd:f3:66:e5:95:9c:a1:42:9f:76:43:f4:
         9c:2f:45:0d:c6:0b:a5:aa:b2:62:69:81:85:d0:61:74:d1:9c:
         b4:d1:2e:a4:72:ba:9a:6e:fe:f7:9e:a2:66:b9:ba:3c:8e:84:
         4c:59:94:f1:ab:b5:80:bd
-----BEGIN CERTIFICATE-----
MIIGqzCCBJOgAwIBAgICAKIwDQYJKoZIhvcNAQEEBQAwgawxCzAJBgNVBAYTAlVT
MQswCQYDVQQIEwJPSDERMA8GA1UEBxMIQ29sdW1idXMxEjAQBgNVBAoTCVZpa2lu
Z1ZQTjEdMBsGA1UECxMUTXlPcmdhbml6YXRpb25hbFVuaXQxFTATBgNVBAMTDFZp
a2luZ1ZQTiBDQTEQMA4GA1UEKRMHRWFzeVJTQTEhMB8GCSqGSIb3DQEJARYSbWVA
bXlob3N0Lm15ZG9tYWluMB4XDTEzMDkxMTAyNTk1NVoXDTIzMDkwOTAyNTk1NVow
HTEbMBkGA1UEAxMSQ2xpZW50ODhDZXJ0Y2ZmMDJlMIICIjANBgkqhkiG9w0BAQEF
AAOCAg8AMIICCgKCAgEA4XOKnMPqV3qtMC1FPo6hzb7NjBigR/WKQoR9QLDfkgb+
ZphEstEpzpXvTWL3IdcHuybdwSHXsRV+koBcfH8U8ev2ootBQJZFkDbmE0io7UpP
yK7a7DOxrw9CnYgv1ESKzfn6SkQ4dFyn5JftiwJfxU/tJZ+clweBsDKf3TY8fyDV
VMhfbcG69QBPApL7ilsXHmJ8RTpczpnWxbjp/sO4v9mXGPIhoH06ae5WzMAv4R1A
Q1ZLIvFdUFKwYaH1Exa/QTyNFf2Jh51S7d/yZ8VpNsiGAL5SIoLMJow9CgLyow47
2Pd1leBrIWFfp5e8C9Ky3x1GRAiephpOXi85BqswftPH+PXhtCVbJ5GsVnCeyCVI
jO2YTYf4b2LfezV+zcgqDN855dK1z5NSrXNSVYzTlFbH5s7n7GR/ZVUSAX8SCqZW
dr3o2lt1lsa8moL1fnx4mXXuQU4Pw2upmruR2yfb+igwy1sATdaMp1DWyfYRMVzB
Zj/s3fMJc+GuIdJ3/bRMGo5w4EdPcrnNkB7LinuNmYjpbnTiutL3K79G7K84uvuq
odSF+QDxRttM+HbDLKvtu7E/AGae4HgE82zkc5B6hc11FL7uYit++m7C+5m8GqT4
Ki2U0dXUoIKSHFPd8JqhMWNHjl4XKD0aEal92NZ710unNnLyZfUoeVMFRNaan9sC
AwEAAaOCAWMwggFfMAkGA1UdEwQCMAAwLQYJYIZIAYb4QgENBCAWHkVhc3ktUlNB
IEdlbmVyYXRlZCBDZXJ0aWZpY2F0ZTAdBgNVHQ4EFgQUjvlHHmHaEOI8kl2NwhbP
l8IhFF0wgeEGA1UdIwSB2TCB1oAUEs1gBNKggJ5w7caZuHssxlL9GaGhgbKkga8w
gawxCzAJBgNVBAYTAlVTMQswCQYDVQQIEwJPSDERMA8GA1UEBxMIQ29sdW1idXMx
EjAQBgNVBAoTCVZpa2luZ1ZQTjEdMBsGA1UECxMUTXlPcmdhbml6YXRpb25hbFVu
aXQxFTATBgNVBAMTDFZpa2luZ1ZQTiBDQTEQMA4GA1UEKRMHRWFzeVJTQTEhMB8G
CSqGSIb3DQEJARYSbWVAbXlob3N0Lm15ZG9tYWluggkAzzWF7oC/Kj4wEwYDVR0l
BAwwCgYIKwYBBQUHAwIwCwYDVR0PBAQDAgeAMA0GCSqGSIb3DQEBBAUAA4ICAQAi
Bglk258k/L8j/hiy8i83zL8deu0N+hQn43nqPcPIYnYeuXZmfb4NbjoLDQG9X/+x
oo7tNKhj7VtW1aFyBVBNtlpN62aCUXQA3uMDO9L9BSjv+GHkEM6Lz0yOb6VHarnK
y/rvN1fsNPsSCeUt1O2SxijSIcVmnA3dMEetoTMSQZogIFn4zxCAm11JkCv4dqAs
m5zk1w4Ux2UYkMad44gI6StGktc6BTgoKeWgMsCO1NuSBduRTeeHAs/1B0YRa91h
lEFdiZ1/we78I9uYhg6FJlIPQhE+SUz5y3YpTuEoufMN1AHNqoddzjN7gfL9PmIL
IiQI1KUtVEVjjxD//AiAl50aPj8HM7Fvm83g0c4yXH6/8VejeBxd6KkmAhY/2+Hr
k9mnfeWF0EwEiY6id6bdnKqbDZfAVtN4fJ/VKJNwFI0gX+g8PHMd4/qFNcIO0++D
AL/t4gCNCBN9bf5H/OHbFVM2Vg9Lb4idQnjrREXOTMft46K6BKxGNkZRqLlSFwTJ
WGlkHJnCMgrhIZCe+3R41WJdd3+To0RN3U3oWhQYIT3E0Du7qc2uHndwOgfoB/Kl
13zJs6dKBp4AP5Skkt4kF2AyaehCvKbN82bllZyhQp92Q/ScL0UNxgulqrJiaYGF
0GF00Zy00S6kcrqabv73nqJmubo8joRMWZTxq7WAvQ==
-----END CERTIFICATE-----
