Certificate:
    Data:
        Version: 3 (0x2)
        Serial Number: 4002 (0xfa2)
    Signature Algorithm: md5WithRSAEncryption
        Issuer: C=US, ST=OH, L=Columbus, O=VikingVPN, OU=MyOrganizationalUnit, CN=VikingVPN CA/name=EasyRSA/emailAddress=me@myhost.mydomain
        Validity
            Not Before: Jan  3 21:44:29 2015 GMT
            Not After : Dec 31 21:44:29 2024 GMT
        Subject: CN=Client898Cert2b863d
        Subject Public Key Info:
            Public Key Algorithm: rsaEncryption
                Public-Key: (4096 bit)
                Modulus:
                    00:da:03:aa:d0:0e:69:12:96:69:3e:a5:3c:25:4a:
                    d6:62:d5:cf:90:b8:96:71:fc:3e:23:b7:ea:bc:00:
                    e1:d4:ca:81:58:04:c1:75:a4:ef:f1:69:a5:c8:73:
                    9e:0b:02:eb:7f:18:60:41:9a:f3:1c:86:ef:73:5f:
                    e8:1f:1e:54:20:c7:be:22:11:6b:0a:69:c7:18:e4:
                    3a:99:f5:73:8c:b4:c4:90:a9:bd:0f:9a:fa:8c:f6:
                    51:16:a3:04:27:20:08:0a:38:cb:32:1d:ba:32:8a:
                    30:90:28:3f:ec:ed:80:d1:0d:60:8d:fd:bf:f8:4b:
                    06:46:cf:89:34:08:c0:6b:53:d2:a6:fa:e3:4b:4e:
                    fd:4b:74:da:cd:4b:90:be:0a:e5:4d:e7:70:52:55:
                    e9:29:24:d3:13:43:51:d8:6b:31:7a:43:22:77:de:
                    fa:49:2e:44:ef:67:50:a1:c7:b9:20:ca:0c:68:41:
                    79:15:ce:4c:92:5e:26:a1:01:07:09:3f:da:78:9d:
                    5b:82:82:7e:0a:40:76:f3:8a:e6:a3:35:fe:bd:1f:
                    c8:fb:64:9d:cb:3a:34:2f:03:29:2f:fc:81:e0:99:
                    76:fd:41:4e:c5:a4:1d:e2:11:56:6d:12:62:60:55:
                    65:37:05:b1:79:56:0e:36:1e:c9:d4:3e:3d:ae:54:
                    37:c7:a5:d1:7e:9f:bc:8e:e7:a5:56:d9:f9:52:0c:
                    93:6f:b6:6c:c9:f2:5b:e0:8f:8c:bf:08:e1:af:e3:
                    0c:24:08:fa:18:53:22:b0:32:33:15:a4:3e:55:28:
                    56:8f:92:f9:17:eb:1c:5e:35:aa:3d:5b:26:d3:e3:
                    5b:f8:dd:22:c7:9e:54:7e:59:0c:98:e3:60:16:d9:
                    e2:e9:db:6c:15:38:b5:ce:f4:b4:83:78:4b:2c:fb:
                    8e:95:2b:07:36:cb:46:a6:db:5b:38:bb:11:15:e3:
                    6c:da:c6:46:16:40:60:94:bf:08:d0:e5:78:40:a9:
                    b1:ee:80:1b:36:94:64:18:58:88:d3:8e:f2:0a:26:
                    e1:04:9a:52:f6:55:b6:1d:53:c7:3e:ad:ef:ee:90:
                    e9:40:75:93:2d:f8:a5:e9:4c:f0:8a:52:bc:ea:a8:
                    c7:cc:f1:2f:83:1e:e6:74:24:34:35:fb:af:b4:0b:
                    66:fc:3e:03:46:be:5d:2a:10:50:3f:a9:26:21:13:
                    31:60:c9:10:23:d3:f1:70:e0:02:ea:72:fe:43:8f:
                    4f:a1:41:f7:e3:27:6b:49:a0:66:5d:49:ad:4c:aa:
                    07:28:58:c6:70:0c:a5:2b:eb:0f:b8:44:f5:d5:7b:
                    f3:b3:c5:b5:6f:2b:c0:80:27:21:6e:0c:64:3c:75:
                    ef:b0:4b
                Exponent: 65537 (0x10001)
        X509v3 extensions:
            X509v3 Basic Constraints: 
                CA:FALSE
            Netscape Comment: 
                Easy-RSA Generated Certificate
            X509v3 Subject Key Identifier: 
                85:5B:60:DD:11:D1:6A:28:9F:01:74:BF:21:F0:63:E2:BD:89:F9:B2
            X509v3 Authority Key Identifier: 
                keyid:12:CD:60:04:D2:A0:80:9E:70:ED:C6:99:B8:7B:2C:C6:52:FD:19:A1
                DirName:/C=US/ST=OH/L=Columbus/O=VikingVPN/OU=MyOrganizationalUnit/CN=VikingVPN CA/name=EasyRSA/emailAddress=me@myhost.mydomain
                serial:CF:35:85:EE:80:BF:2A:3E

            X509v3 Extended Key Usage: 
                TLS Web Client Authentication
            X509v3 Key Usage: 
                Digital Signature
    Signature Algorithm: md5WithRSAEncryption
         24:88:4f:4d:24:23:02:70:e5:7f:04:93:3b:1a:6d:af:47:fc:
         0b:08:a3:49:a3:0a:09:cb:1f:a2:c6:58:4b:f9:fd:d3:d1:f1:
         48:8a:59:93:8f:b3:2a:f9:c9:9e:75:e2:73:1f:f4:2c:83:cb:
         69:d5:50:c5:db:e8:15:a6:60:de:50:8a:c6:6d:a8:7e:5e:ac:
         11:e9:52:be:c2:bf:a6:de:42:73:71:e8:93:a3:da:94:2a:29:
         0f:36:9e:20:8b:82:c6:fe:86:50:b1:18:9a:7c:32:a5:4b:dc:
         77:e7:94:57:c7:5c:a8:90:45:f5:25:4a:65:94:cd:dc:32:44:
         9e:66:17:95:20:7b:16:21:3f:28:d4:47:3d:2f:25:24:ce:6c:
         ea:b9:07:18:6d:7b:19:12:01:0e:e4:32:09:66:70:fb:f5:d6:
         d5:8f:c0:16:36:7c:a8:ed:b4:8d:81:e6:0e:4d:23:53:6a:2e:
         24:71:f8:8b:db:b4:78:04:65:58:5a:37:bd:72:89:14:04:ba:
         cb:58:6b:eb:0f:5f:c5:59:b8:67:4d:f0:00:77:87:a8:37:43:
         a2:81:16:2b:d2:6f:bd:98:6b:d8:c6:c3:c4:1e:4e:f4:b6:a0:
         5d:78:d6:59:b6:84:c4:68:26:e2:50:0d:06:28:e6:37:3f:a2:
         e8:48:f5:a7:b0:df:e8:83:15:dd:d3:cd:12:17:5d:92:98:02:
         3a:6d:16:64:57:ce:0c:c5:5f:bb:fd:c1:f5:f6:68:56:81:2c:
         cf:a0:f1:e5:48:22:35:56:db:e3:ed:5d:af:89:c1:c1:6a:5e:
         bb:a0:ee:0a:4d:b4:6e:8d:36:f1:18:b4:51:23:12:9c:5e:35:
         44:0a:aa:64:d4:10:03:21:d8:d1:61:06:fc:9b:8d:3e:1a:7c:
         57:0f:85:f7:20:d4:fa:0d:7e:0b:3c:a1:68:21:65:16:46:7a:
         af:f8:95:46:df:9d:de:67:23:73:b3:77:4c:5c:73:3c:c4:cf:
         1a:bf:3f:a4:ed:c5:26:08:a3:76:bf:55:0f:2f:51:b5:e1:76:
         78:fc:9d:a5:59:d0:95:4f:61:1e:e7:5c:6b:b7:be:fe:8e:c7:
         f9:4a:48:bd:82:ae:aa:ca:f8:cb:cd:43:66:93:2e:5d:a2:f8:
         39:c9:00:d3:41:8e:11:85:d1:73:79:d7:c1:c4:c3:ad:a7:af:
         fe:dc:3e:7d:2e:d7:f9:05:92:00:92:e3:07:48:94:cf:b0:d0:
         82:1a:05:5d:71:87:76:05:2e:fa:4b:36:37:c7:ab:0f:50:2c:
         31:6e:bf:f8:0a:02:92:fa:5b:ac:a2:d3:cf:e4:20:db:b6:8b:
         36:af:e2:3a:a2:fd:42:f5
-----BEGIN CERTIFICATE-----
MIIGrDCCBJSgAwIBAgICD6IwDQYJKoZIhvcNAQEEBQAwgawxCzAJBgNVBAYTAlVT
MQswCQYDVQQIEwJPSDERMA8GA1UEBxMIQ29sdW1idXMxEjAQBgNVBAoTCVZpa2lu
Z1ZQTjEdMBsGA1UECxMUTXlPcmdhbml6YXRpb25hbFVuaXQxFTATBgNVBAMTDFZp
a2luZ1ZQTiBDQTEQMA4GA1UEKRMHRWFzeVJTQTEhMB8GCSqGSIb3DQEJARYSbWVA
bXlob3N0Lm15ZG9tYWluMB4XDTE1MDEwMzIxNDQyOVoXDTI0MTIzMTIxNDQyOVow
HjEcMBoGA1UEAxMTQ2xpZW50ODk4Q2VydDJiODYzZDCCAiIwDQYJKoZIhvcNAQEB
BQADggIPADCCAgoCggIBANoDqtAOaRKWaT6lPCVK1mLVz5C4lnH8PiO36rwA4dTK
gVgEwXWk7/FppchzngsC638YYEGa8xyG73Nf6B8eVCDHviIRawppxxjkOpn1c4y0
xJCpvQ+a+oz2URajBCcgCAo4yzIdujKKMJAoP+ztgNENYI39v/hLBkbPiTQIwGtT
0qb640tO/Ut02s1LkL4K5U3ncFJV6Skk0xNDUdhrMXpDInfe+kkuRO9nUKHHuSDK
DGhBeRXOTJJeJqEBBwk/2nidW4KCfgpAdvOK5qM1/r0fyPtkncs6NC8DKS/8geCZ
dv1BTsWkHeIRVm0SYmBVZTcFsXlWDjYeydQ+Pa5UN8el0X6fvI7npVbZ+VIMk2+2
bMnyW+CPjL8I4a/jDCQI+hhTIrAyMxWkPlUoVo+S+RfrHF41qj1bJtPjW/jdIsee
VH5ZDJjjYBbZ4unbbBU4tc70tIN4Syz7jpUrBzbLRqbbWzi7ERXjbNrGRhZAYJS/
CNDleECpse6AGzaUZBhYiNOO8gom4QSaUvZVth1Txz6t7+6Q6UB1ky34pelM8IpS
vOqox8zxL4Me5nQkNDX7r7QLZvw+A0a+XSoQUD+pJiETMWDJECPT8XDgAupy/kOP
T6FB9+Mna0mgZl1JrUyqByhYxnAMpSvrD7hE9dV787PFtW8rwIAnIW4MZDx177BL
AgMBAAGjggFjMIIBXzAJBgNVHRMEAjAAMC0GCWCGSAGG+EIBDQQgFh5FYXN5LVJT
QSBHZW5lcmF0ZWQgQ2VydGlmaWNhdGUwHQYDVR0OBBYEFIVbYN0R0WoonwF0vyHw
Y+K9ifmyMIHhBgNVHSMEgdkwgdaAFBLNYATSoICecO3Gmbh7LMZS/RmhoYGypIGv
MIGsMQswCQYDVQQGEwJVUzELMAkGA1UECBMCT0gxETAPBgNVBAcTCENvbHVtYnVz
MRIwEAYDVQQKEwlWaWtpbmdWUE4xHTAbBgNVBAsTFE15T3JnYW5pemF0aW9uYWxV
bml0MRUwEwYDVQQDEwxWaWtpbmdWUE4gQ0ExEDAOBgNVBCkTB0Vhc3lSU0ExITAf
BgkqhkiG9w0BCQEWEm1lQG15aG9zdC5teWRvbWFpboIJAM81he6Avyo+MBMGA1Ud
JQQMMAoGCCsGAQUFBwMCMAsGA1UdDwQEAwIHgDANBgkqhkiG9w0BAQQFAAOCAgEA
JIhPTSQjAnDlfwSTOxptr0f8CwijSaMKCcsfosZYS/n909HxSIpZk4+zKvnJnnXi
cx/0LIPLadVQxdvoFaZg3lCKxm2ofl6sEelSvsK/pt5Cc3Hok6PalCopDzaeIIuC
xv6GULEYmnwypUvcd+eUV8dcqJBF9SVKZZTN3DJEnmYXlSB7FiE/KNRHPS8lJM5s
6rkHGG17GRIBDuQyCWZw+/XW1Y/AFjZ8qO20jYHmDk0jU2ouJHH4i9u0eARlWFo3
vXKJFAS6y1hr6w9fxVm4Z03wAHeHqDdDooEWK9JvvZhr2MbDxB5O9LagXXjWWbaE
xGgm4lANBijmNz+i6Ej1p7Df6IMV3dPNEhddkpgCOm0WZFfODMVfu/3B9fZoVoEs
z6Dx5UgiNVbb4+1dr4nBwWpeu6DuCk20bo028Ri0USMSnF41RAqqZNQQAyHY0WEG
/JuNPhp8Vw+F9yDU+g1+CzyhaCFlFkZ6r/iVRt+d3mcjc7N3TFxzPMTPGr8/pO3F
Jgijdr9VDy9RteF2ePydpVnQlU9hHudca7e+/o7H+UpIvYKuqsr4y81DZpMuXaL4
OckA00GOEYXRc3nXwcTDraev/tw+fS7X+QWSAJLjB0iUz7DQghoFXXGHdgUu+ks2
N8erD1AsMW6/+AoCkvpbrKLTz+Qg27aLNq/iOqL9QvU=
-----END CERTIFICATE-----
