Certificate:
    Data:
        Version: 3 (0x2)
        Serial Number: 2703 (0xa8f)
    Signature Algorithm: md5WithRSAEncryption
        Issuer: C=US, ST=OH, L=Columbus, O=VikingVPN, OU=MyOrganizationalUnit, CN=VikingVPN CA/name=EasyRSA/emailAddress=me@myhost.mydomain
        Validity
            Not Before: Aug 28 15:50:52 2014 GMT
            Not After : Aug 25 15:50:52 2024 GMT
        Subject: CN=Client940Certcbd22d
        Subject Public Key Info:
            Public Key Algorithm: rsaEncryption
                Public-Key: (4096 bit)
                Modulus:
                    00:ce:86:eb:ac:e4:f4:3a:e4:4e:5f:28:a8:0c:25:
                    32:b5:42:22:e0:1c:21:a5:87:8b:ea:8f:c3:5d:a4:
                    4a:b4:30:3b:18:85:ad:ee:2f:2e:c2:8e:e8:ee:73:
                    33:39:59:19:69:1a:48:8a:12:52:64:cd:51:62:f2:
                    7c:a8:1d:f8:4d:bc:66:62:73:38:7d:7d:79:7e:63:
                    48:3a:a4:5e:a9:1b:49:70:1a:c8:37:f1:0c:f0:12:
                    e4:a7:ff:2e:df:41:6a:02:5c:b7:8e:39:c2:ec:f9:
                    02:d1:cc:61:a8:53:d2:9f:71:70:df:a1:e7:44:f7:
                    8c:41:be:e8:93:43:7d:cd:1a:2a:e6:05:be:13:d8:
                    d7:4c:e1:89:21:df:a0:6b:46:40:cd:88:a7:ef:e8:
                    3a:24:c2:24:21:f0:ac:47:2c:99:3a:aa:94:b8:72:
                    d4:84:09:10:2c:93:b1:8a:36:95:42:c4:5f:e5:a7:
                    f9:fe:06:01:af:a9:20:da:e4:f3:8d:68:64:c9:60:
                    85:27:f7:c1:e8:33:22:3a:c8:4b:6d:d6:06:97:07:
                    18:2f:a6:4f:69:48:6e:9f:e7:8f:cc:e5:76:21:8d:
                    fc:7e:69:23:c0:43:93:c0:da:c9:6c:a7:70:46:7a:
                    03:d2:4c:e5:2e:15:67:24:a4:55:12:d3:84:c3:ab:
                    32:e4:8d:cf:77:06:0d:20:9c:bf:58:8b:a5:2a:f6:
                    20:5c:78:58:0b:34:77:a5:cf:48:df:25:b9:ce:99:
                    68:63:25:a4:29:06:12:bd:a3:d7:30:25:a9:2c:93:
                    52:ee:a8:b7:20:cc:77:1f:2c:82:b7:5a:58:c0:5c:
                    6b:dd:88:fe:ee:5c:ba:49:81:bc:a4:0c:3e:9f:07:
                    4d:b3:2e:a2:23:68:7b:1f:db:ac:d3:1d:b4:59:eb:
                    98:fd:3a:46:c0:6b:34:45:ad:91:b4:f2:f9:6f:2c:
                    2a:ed:53:89:8d:30:ac:9b:e7:11:d7:c6:ef:4f:6a:
                    09:83:32:24:55:ca:a0:2e:22:ca:db:25:1f:44:4c:
                    72:af:34:d2:0a:db:fe:1b:8d:83:52:cb:fd:8e:fc:
                    07:18:88:ca:8e:82:84:e9:98:71:fd:d6:f7:ea:7d:
                    3e:85:b5:cb:f6:34:50:aa:16:80:f2:88:20:ec:ce:
                    24:e9:88:2c:be:02:f6:cd:2a:ae:96:47:0f:25:ad:
                    63:e3:d5:16:6c:5c:62:04:58:99:7a:fc:94:db:bb:
                    08:4c:c3:7b:7e:8d:38:7d:32:e1:77:11:e6:d0:16:
                    98:20:df:16:9d:dc:c6:b8:93:31:02:7c:ad:5a:74:
                    d3:47:43:80:de:06:ea:9a:b1:a7:54:50:a4:d1:60:
                    ef:40:d5
                Exponent: 65537 (0x10001)
        X509v3 extensions:
            X509v3 Basic Constraints: 
                CA:FALSE
            Netscape Comment: 
                Easy-RSA Generated Certificate
            X509v3 Subject Key Identifier: 
                C6:73:B3:7A:6F:42:C8:2C:1B:AD:7A:FE:44:D3:8A:22:36:C1:99:7C
            X509v3 Authority Key Identifier: 
                keyid:12:CD:60:04:D2:A0:80:9E:70:ED:C6:99:B8:7B:2C:C6:52:FD:19:A1
                DirName:/C=US/ST=OH/L=Columbus/O=VikingVPN/OU=MyOrganizationalUnit/CN=VikingVPN CA/name=EasyRSA/emailAddress=me@myhost.mydomain
                serial:CF:35:85:EE:80:BF:2A:3E

            X509v3 Extended Key Usage: 
                TLS Web Client Authentication
            X509v3 Key Usage: 
                Digital Signature
    Signature Algorithm: md5WithRSAEncryption
         b4:24:09:e0:e2:5e:e7:33:8e:2a:3c:a9:3d:ac:ee:74:3a:59:
         70:48:be:e8:ad:07:d4:b2:2b:8e:d1:51:ae:dc:8b:08:92:c9:
         99:2b:3c:95:6f:4b:0c:8c:32:5b:97:91:b5:65:ab:5c:d1:37:
         f6:45:e5:b7:d0:4c:b4:c6:fa:45:c8:42:9c:87:07:60:df:8c:
         1f:8d:4d:f9:35:2b:15:d5:14:f5:3e:5d:f2:cd:59:3b:bb:c1:
         29:23:94:08:4d:04:03:48:a1:d1:4e:4b:d9:68:68:e4:37:e2:
         73:08:d7:65:77:17:92:b5:f2:7c:ff:e1:f8:25:25:fa:a2:f2:
         f3:a9:59:43:85:1a:ae:84:e4:8a:40:50:bb:70:c9:2a:47:0f:
         c0:7f:1b:66:af:77:5d:34:b7:e8:57:30:5a:ce:e7:cb:9a:ce:
         9c:94:f5:d8:b0:16:45:35:5b:b6:44:27:81:ed:0a:c3:1e:ad:
         6c:07:4f:73:0f:ba:59:f6:70:28:3c:04:15:92:7c:cb:19:e2:
         ed:7b:63:82:2d:2a:65:f8:69:41:13:a6:55:29:3a:27:c7:27:
         08:d2:9e:5b:76:4d:b6:4d:bf:4b:f8:e9:dd:e1:8d:65:7f:b3:
         9c:60:e9:d5:51:29:96:55:39:d3:ec:e6:3e:2b:87:1c:77:d1:
         f8:f5:69:5a:6f:05:02:35:ca:cc:52:0b:1c:5a:ce:36:e1:82:
         32:c7:8e:81:33:f4:54:ff:e4:12:fa:97:35:12:09:44:87:ec:
         8f:b6:70:e1:31:11:a5:f6:ad:41:1b:53:bb:80:07:aa:7a:42:
         14:eb:75:ba:c0:43:60:96:bb:39:4d:a3:87:33:4b:de:25:33:
         57:e4:0e:1d:f5:6d:2b:68:fd:d3:45:7c:b3:e9:22:b1:7d:d7:
         d7:5e:18:b0:5c:89:64:40:bb:62:95:b1:41:66:58:a2:af:e1:
         74:36:18:0b:f6:24:be:94:9e:fc:e6:34:15:55:bb:4f:74:e7:
         58:18:59:20:14:25:4f:75:aa:21:e7:18:b2:7d:3e:8f:f4:2b:
         30:53:bb:9a:df:a4:ca:c5:9c:18:41:7f:83:7f:82:2d:49:f5:
         00:7e:66:34:c3:ad:3a:d2:82:80:3a:89:9c:4e:7d:de:8e:78:
         e5:2c:9e:35:bf:57:d2:91:49:fb:1b:37:a6:3a:c2:7b:5b:77:
         eb:87:27:08:3e:0e:ac:c6:a1:06:32:c1:17:8c:63:9a:d1:e9:
         91:06:93:8c:31:dc:1f:3c:d0:dc:0e:37:57:2f:4a:e7:95:cf:
         c8:23:d4:43:14:bd:4e:c5:87:00:94:42:15:6c:cd:d7:b2:7b:
         33:13:aa:5f:e6:e6:52:1f
-----BEGIN CERTIFICATE-----
MIIGrDCCBJSgAwIBAgICCo8wDQYJKoZIhvcNAQEEBQAwgawxCzAJBgNVBAYTAlVT
MQswCQYDVQQIEwJPSDERMA8GA1UEBxMIQ29sdW1idXMxEjAQBgNVBAoTCVZpa2lu
Z1ZQTjEdMBsGA1UECxMUTXlPcmdhbml6YXRpb25hbFVuaXQxFTATBgNVBAMTDFZp
a2luZ1ZQTiBDQTEQMA4GA1UEKRMHRWFzeVJTQTEhMB8GCSqGSIb3DQEJARYSbWVA
bXlob3N0Lm15ZG9tYWluMB4XDTE0MDgyODE1NTA1MloXDTI0MDgyNTE1NTA1Mlow
HjEcMBoGA1UEAxMTQ2xpZW50OTQwQ2VydGNiZDIyZDCCAiIwDQYJKoZIhvcNAQEB
BQADggIPADCCAgoCggIBAM6G66zk9DrkTl8oqAwlMrVCIuAcIaWHi+qPw12kSrQw
OxiFre4vLsKO6O5zMzlZGWkaSIoSUmTNUWLyfKgd+E28ZmJzOH19eX5jSDqkXqkb
SXAayDfxDPAS5Kf/Lt9BagJct445wuz5AtHMYahT0p9xcN+h50T3jEG+6JNDfc0a
KuYFvhPY10zhiSHfoGtGQM2Ip+/oOiTCJCHwrEcsmTqqlLhy1IQJECyTsYo2lULE
X+Wn+f4GAa+pINrk841oZMlghSf3wegzIjrIS23WBpcHGC+mT2lIbp/nj8zldiGN
/H5pI8BDk8DayWyncEZ6A9JM5S4VZySkVRLThMOrMuSNz3cGDSCcv1iLpSr2IFx4
WAs0d6XPSN8luc6ZaGMlpCkGEr2j1zAlqSyTUu6otyDMdx8sgrdaWMBca92I/u5c
ukmBvKQMPp8HTbMuoiNoex/brNMdtFnrmP06RsBrNEWtkbTy+W8sKu1TiY0wrJvn
EdfG709qCYMyJFXKoC4iytslH0RMcq800grb/huNg1LL/Y78BxiIyo6ChOmYcf3W
9+p9PoW1y/Y0UKoWgPKIIOzOJOmILL4C9s0qrpZHDyWtY+PVFmxcYgRYmXr8lNu7
CEzDe36NOH0y4XcR5tAWmCDfFp3cxriTMQJ8rVp000dDgN4G6pqxp1RQpNFg70DV
AgMBAAGjggFjMIIBXzAJBgNVHRMEAjAAMC0GCWCGSAGG+EIBDQQgFh5FYXN5LVJT
QSBHZW5lcmF0ZWQgQ2VydGlmaWNhdGUwHQYDVR0OBBYEFMZzs3pvQsgsG616/kTT
iiI2wZl8MIHhBgNVHSMEgdkwgdaAFBLNYATSoICecO3Gmbh7LMZS/RmhoYGypIGv
MIGsMQswCQYDVQQGEwJVUzELMAkGA1UECBMCT0gxETAPBgNVBAcTCENvbHVtYnVz
MRIwEAYDVQQKEwlWaWtpbmdWUE4xHTAbBgNVBAsTFE15T3JnYW5pemF0aW9uYWxV
bml0MRUwEwYDVQQDEwxWaWtpbmdWUE4gQ0ExEDAOBgNVBCkTB0Vhc3lSU0ExITAf
BgkqhkiG9w0BCQEWEm1lQG15aG9zdC5teWRvbWFpboIJAM81he6Avyo+MBMGA1Ud
JQQMMAoGCCsGAQUFBwMCMAsGA1UdDwQEAwIHgDANBgkqhkiG9w0BAQQFAAOCAgEA
tCQJ4OJe5zOOKjypPazudDpZcEi+6K0H1LIrjtFRrtyLCJLJmSs8lW9LDIwyW5eR
tWWrXNE39kXlt9BMtMb6RchCnIcHYN+MH41N+TUrFdUU9T5d8s1ZO7vBKSOUCE0E
A0ih0U5L2Who5DficwjXZXcXkrXyfP/h+CUl+qLy86lZQ4UaroTkikBQu3DJKkcP
wH8bZq93XTS36FcwWs7ny5rOnJT12LAWRTVbtkQnge0Kwx6tbAdPcw+6WfZwKDwE
FZJ8yxni7Xtjgi0qZfhpQROmVSk6J8cnCNKeW3ZNtk2/S/jp3eGNZX+znGDp1VEp
llU50+zmPiuHHHfR+PVpWm8FAjXKzFILHFrONuGCMseOgTP0VP/kEvqXNRIJRIfs
j7Zw4TERpfatQRtTu4AHqnpCFOt1usBDYJa7OU2jhzNL3iUzV+QOHfVtK2j900V8
s+kisX3X114YsFyJZEC7YpWxQWZYoq/hdDYYC/YkvpSe/OY0FVW7T3TnWBhZIBQl
T3WqIecYsn0+j/QrMFO7mt+kysWcGEF/g3+CLUn1AH5mNMOtOtKCgDqJnE593o54
5SyeNb9X0pFJ+xs3pjrCe1t364cnCD4OrMahBjLBF4xjmtHpkQaTjDHcHzzQ3A43
Vy9K55XPyCPUQxS9TsWHAJRCFWzN17J7MxOqX+bmUh8=
-----END CERTIFICATE-----
