Certificate:
    Data:
        Version: 3 (0x2)
        Serial Number: 7859 (0x1eb3)
    Signature Algorithm: md5WithRSAEncryption
        Issuer: C=US, ST=OH, L=Columbus, O=VikingVPN, OU=MyOrganizationalUnit, CN=VikingVPN CA/name=EasyRSA/emailAddress=me@myhost.mydomain
        Validity
            Not Before: Apr 28 02:05:17 2016 GMT
            Not After : Apr 26 02:05:17 2026 GMT
        Subject: CN=Client2278Certdb8a2c
        Subject Public Key Info:
            Public Key Algorithm: rsaEncryption
                Public-Key: (4096 bit)
                Modulus:
                    00:a4:9f:cd:41:5b:1a:21:bc:5d:99:30:0d:04:f4:
                    09:00:25:03:24:b3:6b:6c:97:98:06:69:4f:37:9b:
                    f1:de:28:91:6c:96:f2:d9:bc:fe:b8:f4:3b:01:91:
                    f9:f7:8d:d0:e1:9f:58:99:3f:57:31:df:2a:5f:fa:
                    b9:ae:bf:13:2d:34:33:b0:6a:8b:0f:d3:48:a7:39:
                    c1:56:e2:9f:55:71:a7:d1:a7:82:c9:f1:8d:14:35:
                    96:00:05:ea:6c:aa:bc:1e:04:9c:e7:78:f2:a8:75:
                    5d:8c:d2:a3:a8:c5:93:1f:5a:e9:b5:33:1c:42:83:
                    76:04:a6:b5:34:29:67:d7:73:48:d6:67:dc:c5:d5:
                    13:68:40:dc:20:88:a7:a5:bb:19:cf:1c:de:b6:f4:
                    5b:9e:36:99:67:cf:b6:a7:f3:00:1b:27:e2:89:56:
                    5c:9b:0c:2b:df:36:a5:fd:59:bd:90:7f:65:92:80:
                    91:9e:86:3b:2c:b0:1b:96:c5:83:83:2f:7f:1a:4e:
                    e9:24:fc:e7:ab:13:9e:4c:09:7e:8a:df:a8:ac:be:
                    48:4b:3c:c7:b7:bc:e6:89:5d:74:25:62:cf:4a:7b:
                    3c:23:ec:6b:21:0b:37:02:f3:92:f1:9f:99:38:40:
                    5b:18:35:e7:7b:8a:08:48:34:76:d7:1d:05:3e:51:
                    fb:49:53:cf:8f:a7:6a:b8:bf:20:1c:56:30:d1:92:
                    ee:5d:ab:bd:d3:2e:5b:fa:a7:15:23:9f:11:b7:aa:
                    ff:1f:d0:79:b3:50:86:52:c8:4a:44:7b:32:2c:36:
                    dc:95:92:e1:0d:fa:a2:e0:6f:9d:42:b3:4d:aa:c8:
                    a5:af:66:c4:8c:a5:95:b0:b7:8d:52:52:27:48:08:
                    a2:8b:66:31:e5:a2:1e:13:e2:7b:d2:cc:5c:07:6e:
                    f3:8d:ec:ac:23:98:e6:12:6b:60:75:a9:dd:11:4a:
                    ec:f8:d0:c8:0e:2d:95:51:e7:ce:27:b1:47:43:6a:
                    7e:6f:5f:ec:cf:e3:13:f1:4c:73:0c:9d:3b:89:de:
                    8c:be:3e:ff:85:78:a1:d8:c5:bc:ab:c9:4f:34:ed:
                    23:2f:7a:1a:70:47:c9:59:33:28:64:47:2c:2b:af:
                    66:0a:15:a0:21:22:07:7a:49:61:c7:a4:37:0a:1e:
                    60:ce:99:39:80:e0:64:46:04:de:80:22:93:29:2d:
                    55:48:01:36:36:8b:34:05:52:62:71:81:10:b4:9a:
                    21:f2:ab:a6:f8:3d:8f:ff:b9:53:fe:8e:87:73:a6:
                    5d:4a:c5:da:88:3b:a7:4c:62:ff:dc:64:c3:f8:df:
                    f4:b4:96:a6:e7:13:26:f1:29:29:d2:b2:24:a1:91:
                    2e:95:5b
                Exponent: 65537 (0x10001)
        X509v3 extensions:
            X509v3 Basic Constraints: 
                CA:FALSE
            Netscape Comment: 
                Easy-RSA Generated Certificate
            X509v3 Subject Key Identifier: 
                9C:5A:F2:7A:D7:63:F8:CA:5F:3E:51:89:A9:E4:3B:BC:02:33:62:1F
            X509v3 Authority Key Identifier: 
                keyid:12:CD:60:04:D2:A0:80:9E:70:ED:C6:99:B8:7B:2C:C6:52:FD:19:A1
                DirName:/C=US/ST=OH/L=Columbus/O=VikingVPN/OU=MyOrganizationalUnit/CN=VikingVPN CA/name=EasyRSA/emailAddress=me@myhost.mydomain
                serial:CF:35:85:EE:80:BF:2A:3E

            X509v3 Extended Key Usage: 
                TLS Web Client Authentication
            X509v3 Key Usage: 
                Digital Signature
    Signature Algorithm: md5WithRSAEncryption
         08:d2:b1:10:52:a5:dc:54:13:ba:7b:cb:a0:a8:55:7e:df:b0:
         1c:f0:8a:aa:a5:e9:b1:d2:c6:98:69:4c:96:67:67:5f:b7:b6:
         65:6c:33:43:5e:67:17:04:20:ac:ea:25:51:2c:23:00:83:a4:
         c7:15:04:3d:b4:3c:0f:3d:28:1c:ae:69:a4:7e:03:ed:b7:8a:
         b0:c2:df:14:eb:6b:26:66:29:15:1b:b1:03:9a:4a:90:97:6d:
         b5:e9:c3:4e:48:46:8b:15:d5:df:d0:89:39:f1:ff:39:cc:62:
         0e:60:49:70:e2:22:f7:12:78:5a:05:b1:4b:6d:e0:a1:fb:b2:
         c3:ae:db:6d:14:16:32:07:ad:79:02:fc:16:2d:12:ea:b5:60:
         cd:0f:31:8b:6e:96:e7:16:44:79:4a:2f:43:b9:b7:bc:49:d7:
         24:72:64:ed:7a:70:98:3e:d0:bf:11:8c:63:f2:33:3e:93:2a:
         03:ba:0c:df:13:5c:82:c3:1e:93:f3:4e:77:e7:db:40:cc:e8:
         65:7f:42:c1:56:de:bf:fd:08:21:b6:13:33:13:7e:9d:9e:ed:
         20:50:04:af:48:d7:86:6a:2a:f3:3d:f8:ed:aa:2b:59:5d:e9:
         b3:42:da:f4:f9:ed:29:19:cf:b2:c2:ed:8a:27:26:ed:2e:4f:
         28:be:a4:16:79:73:d9:69:d7:a0:7c:5f:1f:28:41:4e:c3:be:
         d4:de:d2:c3:05:cc:0d:62:aa:bd:8a:25:69:e7:aa:5e:33:1f:
         25:f1:bb:2c:5d:2a:72:b6:c6:96:44:01:aa:e5:99:5b:e9:aa:
         fb:3c:af:23:49:45:3a:12:9f:f3:fb:5c:76:0d:07:19:99:0c:
         19:0a:1e:4d:ac:a0:1d:1a:71:26:de:71:0f:7a:71:e7:a6:96:
         55:61:94:99:19:82:e3:e6:7b:f5:40:70:e7:5b:9d:a1:ad:2c:
         7a:99:05:86:16:7b:7d:64:4f:47:2f:35:73:6c:06:21:4f:e9:
         67:11:0f:5b:59:52:16:3d:ae:77:d6:aa:99:db:46:ab:cd:64:
         00:3e:23:ef:d8:b6:fa:95:c6:ee:af:15:5e:26:46:82:ff:76:
         c9:0f:96:ed:83:99:06:95:7a:75:85:b7:fb:98:8f:73:0f:ca:
         08:1f:18:2c:fd:13:b0:c4:dc:41:d5:0a:17:36:28:ac:2c:d1:
         95:62:c0:ef:56:45:28:33:2b:6a:d6:e7:5b:6f:a1:74:24:3c:
         de:5f:c8:8d:a3:95:fe:12:56:35:1f:73:af:6b:77:3e:94:cd:
         a1:85:20:e7:04:a9:9b:91:7c:f2:8f:97:6a:d6:a4:e2:16:3e:
         6a:ae:bb:e9:72:23:a7:90
-----BEGIN CERTIFICATE-----
MIIGrTCCBJWgAwIBAgICHrMwDQYJKoZIhvcNAQEEBQAwgawxCzAJBgNVBAYTAlVT
MQswCQYDVQQIEwJPSDERMA8GA1UEBxMIQ29sdW1idXMxEjAQBgNVBAoTCVZpa2lu
Z1ZQTjEdMBsGA1UECxMUTXlPcmdhbml6YXRpb25hbFVuaXQxFTATBgNVBAMTDFZp
a2luZ1ZQTiBDQTEQMA4GA1UEKRMHRWFzeVJTQTEhMB8GCSqGSIb3DQEJARYSbWVA
bXlob3N0Lm15ZG9tYWluMB4XDTE2MDQyODAyMDUxN1oXDTI2MDQyNjAyMDUxN1ow
HzEdMBsGA1UEAxMUQ2xpZW50MjI3OENlcnRkYjhhMmMwggIiMA0GCSqGSIb3DQEB
AQUAA4ICDwAwggIKAoICAQCkn81BWxohvF2ZMA0E9AkAJQMks2tsl5gGaU83m/He
KJFslvLZvP649DsBkfn3jdDhn1iZP1cx3ypf+rmuvxMtNDOwaosP00inOcFW4p9V
cafRp4LJ8Y0UNZYABepsqrweBJznePKodV2M0qOoxZMfWum1MxxCg3YEprU0KWfX
c0jWZ9zF1RNoQNwgiKeluxnPHN629FueNplnz7an8wAbJ+KJVlybDCvfNqX9Wb2Q
f2WSgJGehjsssBuWxYODL38aTukk/OerE55MCX6K36isvkhLPMe3vOaJXXQlYs9K
ezwj7GshCzcC85Lxn5k4QFsYNed7ighINHbXHQU+UftJU8+Pp2q4vyAcVjDRku5d
q73TLlv6pxUjnxG3qv8f0HmzUIZSyEpEezIsNtyVkuEN+qLgb51Cs02qyKWvZsSM
pZWwt41SUidICKKLZjHloh4T4nvSzFwHbvON7KwjmOYSa2B1qd0RSuz40MgOLZVR
584nsUdDan5vX+zP4xPxTHMMnTuJ3oy+Pv+FeKHYxbyryU807SMvehpwR8lZMyhk
Rywrr2YKFaAhIgd6SWHHpDcKHmDOmTmA4GRGBN6AIpMpLVVIATY2izQFUmJxgRC0
miHyq6b4PY//uVP+jodzpl1KxdqIO6dMYv/cZMP43/S0lqbnEybxKSnSsiShkS6V
WwIDAQABo4IBYzCCAV8wCQYDVR0TBAIwADAtBglghkgBhvhCAQ0EIBYeRWFzeS1S
U0EgR2VuZXJhdGVkIENlcnRpZmljYXRlMB0GA1UdDgQWBBScWvJ612P4yl8+UYmp
5Du8AjNiHzCB4QYDVR0jBIHZMIHWgBQSzWAE0qCAnnDtxpm4eyzGUv0ZoaGBsqSB
rzCBrDELMAkGA1UEBhMCVVMxCzAJBgNVBAgTAk9IMREwDwYDVQQHEwhDb2x1bWJ1
czESMBAGA1UEChMJVmlraW5nVlBOMR0wGwYDVQQLExRNeU9yZ2FuaXphdGlvbmFs
VW5pdDEVMBMGA1UEAxMMVmlraW5nVlBOIENBMRAwDgYDVQQpEwdFYXN5UlNBMSEw
HwYJKoZIhvcNAQkBFhJtZUBteWhvc3QubXlkb21haW6CCQDPNYXugL8qPjATBgNV
HSUEDDAKBggrBgEFBQcDAjALBgNVHQ8EBAMCB4AwDQYJKoZIhvcNAQEEBQADggIB
AAjSsRBSpdxUE7p7y6CoVX7fsBzwiqql6bHSxphpTJZnZ1+3tmVsM0NeZxcEIKzq
JVEsIwCDpMcVBD20PA89KByuaaR+A+23irDC3xTrayZmKRUbsQOaSpCXbbXpw05I
RosV1d/QiTnx/znMYg5gSXDiIvcSeFoFsUtt4KH7ssOu220UFjIHrXkC/BYtEuq1
YM0PMYtulucWRHlKL0O5t7xJ1yRyZO16cJg+0L8RjGPyMz6TKgO6DN8TXILDHpPz
Tnfn20DM6GV/QsFW3r/9CCG2EzMTfp2e7SBQBK9I14ZqKvM9+O2qK1ld6bNC2vT5
7SkZz7LC7YonJu0uTyi+pBZ5c9lp16B8Xx8oQU7DvtTe0sMFzA1iqr2KJWnnql4z
HyXxuyxdKnK2xpZEAarlmVvpqvs8ryNJRToSn/P7XHYNBxmZDBkKHk2soB0acSbe
cQ96ceemllVhlJkZguPme/VAcOdbnaGtLHqZBYYWe31kT0cvNXNsBiFP6WcRD1tZ
UhY9rnfWqpnbRqvNZAA+I+/YtvqVxu6vFV4mRoL/dskPlu2DmQaVenWFt/uYj3MP
yggfGCz9E7DE3EHVChc2KKws0ZViwO9WRSgzK2rW51tvoXQkPN5fyI2jlf4SVjUf
c69rdz6UzaGFIOcEqZuRfPKPl2rWpOIWPmquu+lyI6eQ
-----END CERTIFICATE-----
