Certificate:
    Data:
        Version: 3 (0x2)
        Serial Number: 7959 (0x1f17)
    Signature Algorithm: md5WithRSAEncryption
        Issuer: C=US, ST=OH, L=Columbus, O=VikingVPN, OU=MyOrganizationalUnit, CN=VikingVPN CA/name=EasyRSA/emailAddress=me@myhost.mydomain
        Validity
            Not Before: May 12 10:08:27 2016 GMT
            Not After : May 10 10:08:27 2026 GMT
        Subject: CN=Client2147Certe24b30
        Subject Public Key Info:
            Public Key Algorithm: rsaEncryption
                Public-Key: (4096 bit)
                Modulus:
                    00:9f:b8:3c:84:51:aa:0f:8f:b9:14:79:8f:21:19:
                    28:db:2c:5c:2f:32:bb:92:d8:0d:9c:3b:36:23:85:
                    fb:d1:58:ae:f1:b7:3f:b8:1d:93:8e:cf:cf:b8:69:
                    fd:96:fc:be:e3:9b:61:93:b8:e6:04:20:68:f2:e5:
                    3a:27:e5:a5:07:46:b4:69:62:c4:17:ce:70:00:8e:
                    e9:81:6f:24:5f:be:58:27:8d:52:94:13:0b:3b:aa:
                    66:60:7e:04:ec:5b:d5:ea:07:a0:ee:e2:9f:c2:33:
                    78:51:92:57:56:12:e1:21:08:90:60:cd:4c:95:cc:
                    f7:54:a8:31:b2:c3:5f:f5:e6:12:8d:01:9f:d4:85:
                    90:94:0e:80:20:58:f5:e8:82:3b:1d:23:09:a6:3a:
                    0d:52:64:71:fa:9a:9c:89:18:a5:93:c4:f3:de:98:
                    85:ac:b5:af:d2:f5:38:85:03:c8:93:52:e1:68:e3:
                    07:63:35:08:b4:29:f7:5b:c7:de:c8:46:e6:7a:49:
                    d7:b3:db:80:27:5d:6c:28:ca:69:71:22:64:70:94:
                    a3:c4:51:24:49:80:70:f9:0a:34:4c:13:17:aa:d6:
                    3a:f6:55:29:84:b6:de:65:a0:fc:5c:26:dd:4f:8f:
                    0a:56:68:df:ba:51:69:ce:2b:69:e1:5b:8e:05:af:
                    75:47:79:f9:67:bc:ce:a5:58:0f:15:74:8c:68:4e:
                    a5:0d:bc:9f:96:ad:8d:ba:6b:6d:b2:83:34:43:9f:
                    f3:a6:bb:34:eb:62:04:e0:82:4e:36:d3:03:2c:bc:
                    98:a0:1f:ea:fd:0e:13:05:8b:8b:3a:0c:10:a2:26:
                    76:7a:8c:57:08:4e:17:8f:3a:fd:1f:2a:5b:1f:b8:
                    f4:ed:a2:99:96:61:ba:e1:a5:0a:ba:4a:4e:53:f7:
                    a9:bd:36:d8:33:5f:19:dc:2f:9f:78:2b:7e:84:b3:
                    54:31:5a:4d:ed:bb:47:0b:c7:23:3c:3e:a3:fa:da:
                    8c:16:46:fc:de:0e:cc:36:ec:2d:72:2e:8d:86:4c:
                    2c:a8:38:80:f9:6d:10:39:5c:f7:df:19:84:48:5f:
                    47:c9:0f:e7:4c:61:df:7e:f5:4f:a3:67:63:c2:9e:
                    5b:03:a5:ed:10:7f:0b:3a:82:24:a8:c6:03:23:86:
                    8c:c7:64:36:b7:81:a0:eb:54:72:f6:0a:e9:af:92:
                    1c:52:95:41:2f:16:37:d3:7f:5c:4e:5e:d0:7e:80:
                    b4:1b:c8:8f:a8:fe:30:ab:d1:b4:4b:ba:9d:35:23:
                    e8:e4:43:9a:2b:0d:5d:5f:76:06:22:35:10:25:4b:
                    bc:13:ef:1f:6e:46:6f:1f:fb:11:0a:ea:1b:11:20:
                    96:97:e7
                Exponent: 65537 (0x10001)
        X509v3 extensions:
            X509v3 Basic Constraints: 
                CA:FALSE
            Netscape Comment: 
                Easy-RSA Generated Certificate
            X509v3 Subject Key Identifier: 
                A8:73:D5:63:2B:BA:DD:76:D9:BF:CC:75:86:87:10:C9:19:91:9F:9D
            X509v3 Authority Key Identifier: 
                keyid:12:CD:60:04:D2:A0:80:9E:70:ED:C6:99:B8:7B:2C:C6:52:FD:19:A1
                DirName:/C=US/ST=OH/L=Columbus/O=VikingVPN/OU=MyOrganizationalUnit/CN=VikingVPN CA/name=EasyRSA/emailAddress=me@myhost.mydomain
                serial:CF:35:85:EE:80:BF:2A:3E

            X509v3 Extended Key Usage: 
                TLS Web Client Authentication
            X509v3 Key Usage: 
                Digital Signature
    Signature Algorithm: md5WithRSAEncryption
         7e:da:05:8c:37:4b:fb:6c:e2:c0:7d:07:29:6a:26:26:6b:1a:
         93:07:a3:0f:9b:9b:17:e7:3f:6e:92:7d:91:0b:10:6e:c0:e3:
         c3:a5:25:25:5a:a5:83:8c:4c:1b:6e:7f:48:cc:a2:db:12:0d:
         60:ca:7b:af:c8:a5:27:63:de:86:74:7c:49:3f:26:18:b7:9c:
         30:3c:4f:38:ba:cc:66:05:e6:7d:20:12:83:44:bc:49:29:df:
         1f:c6:66:bf:76:f9:cd:fa:e6:00:c5:ee:b5:d9:88:8c:2d:c9:
         d0:c8:6f:18:c2:e2:69:4e:4c:48:6e:96:df:e7:2b:a8:c2:64:
         43:69:82:53:6e:eb:57:eb:84:4b:73:a9:e0:30:30:36:50:71:
         42:22:29:0e:58:59:37:dc:a5:55:22:b3:3a:a3:13:98:a9:de:
         2b:d4:4a:f6:c9:ce:cb:e3:54:e8:70:00:fa:0d:9d:f3:6c:75:
         fb:75:42:98:14:4c:e1:9f:ce:ed:e5:55:2b:4a:4b:c5:e8:5f:
         f6:6b:c5:11:1e:ec:95:03:54:dc:84:d5:48:14:d3:39:46:51:
         8c:8f:21:fc:1f:78:4d:3f:2b:2b:8c:5c:f9:75:4a:7c:76:47:
         0f:1c:03:7a:3c:9e:5b:ea:9f:83:47:3d:bb:d3:a6:48:57:ca:
         d9:97:f9:ce:ae:37:d2:0c:42:5e:2b:65:34:0c:35:95:93:8e:
         01:83:91:98:01:82:f7:cb:03:20:2b:6e:d2:b5:61:a0:53:ee:
         a1:77:91:2b:5d:b4:23:83:c7:7a:94:68:3c:b9:1b:b0:ab:09:
         e9:4c:96:0f:95:32:b9:56:c1:43:26:ff:a0:ed:24:39:23:a5:
         8c:31:bc:ba:21:53:43:09:70:b1:4b:10:82:84:46:0d:5c:f0:
         67:49:2e:0b:bb:3f:41:c7:38:99:c7:ce:98:52:8a:fa:ee:7d:
         c9:f0:6a:1e:db:ed:09:31:44:c7:fc:cb:fe:69:13:52:0e:84:
         69:18:ff:b6:50:ef:e8:98:98:4c:52:ad:2f:71:58:c1:ac:ec:
         86:69:b2:77:dc:85:47:19:72:57:64:9d:7f:e2:ff:d0:66:15:
         63:f5:73:8a:85:79:ad:76:fd:01:03:b1:fe:cc:36:97:dd:58:
         e6:03:ba:5e:cc:be:45:e9:cb:27:67:e3:95:da:37:a3:67:6d:
         46:29:34:db:21:a4:3d:1f:26:43:be:96:50:a6:ab:10:96:3b:
         c4:f7:59:34:58:c2:84:4e:3c:78:0d:14:24:05:71:0e:1b:b7:
         0a:a1:4a:a1:f5:99:15:3c:dc:5a:17:dc:d0:7d:6a:af:6f:7f:
         ce:0e:1e:13:e8:94:19:39
-----BEGIN CERTIFICATE-----
MIIGrTCCBJWgAwIBAgICHxcwDQYJKoZIhvcNAQEEBQAwgawxCzAJBgNVBAYTAlVT
MQswCQYDVQQIEwJPSDERMA8GA1UEBxMIQ29sdW1idXMxEjAQBgNVBAoTCVZpa2lu
Z1ZQTjEdMBsGA1UECxMUTXlPcmdhbml6YXRpb25hbFVuaXQxFTATBgNVBAMTDFZp
a2luZ1ZQTiBDQTEQMA4GA1UEKRMHRWFzeVJTQTEhMB8GCSqGSIb3DQEJARYSbWVA
bXlob3N0Lm15ZG9tYWluMB4XDTE2MDUxMjEwMDgyN1oXDTI2MDUxMDEwMDgyN1ow
HzEdMBsGA1UEAxMUQ2xpZW50MjE0N0NlcnRlMjRiMzAwggIiMA0GCSqGSIb3DQEB
AQUAA4ICDwAwggIKAoICAQCfuDyEUaoPj7kUeY8hGSjbLFwvMruS2A2cOzYjhfvR
WK7xtz+4HZOOz8+4af2W/L7jm2GTuOYEIGjy5Ton5aUHRrRpYsQXznAAjumBbyRf
vlgnjVKUEws7qmZgfgTsW9XqB6Du4p/CM3hRkldWEuEhCJBgzUyVzPdUqDGyw1/1
5hKNAZ/UhZCUDoAgWPXogjsdIwmmOg1SZHH6mpyJGKWTxPPemIWsta/S9TiFA8iT
UuFo4wdjNQi0Kfdbx97IRuZ6Sdez24AnXWwoymlxImRwlKPEUSRJgHD5CjRMExeq
1jr2VSmEtt5loPxcJt1PjwpWaN+6UWnOK2nhW44Fr3VHeflnvM6lWA8VdIxoTqUN
vJ+WrY26a22ygzRDn/OmuzTrYgTggk420wMsvJigH+r9DhMFi4s6DBCiJnZ6jFcI
ThePOv0fKlsfuPTtopmWYbrhpQq6Sk5T96m9NtgzXxncL594K36Es1QxWk3tu0cL
xyM8PqP62owWRvzeDsw27C1yLo2GTCyoOID5bRA5XPffGYRIX0fJD+dMYd9+9U+j
Z2PCnlsDpe0Qfws6giSoxgMjhozHZDa3gaDrVHL2CumvkhxSlUEvFjfTf1xOXtB+
gLQbyI+o/jCr0bRLup01I+jkQ5orDV1fdgYiNRAlS7wT7x9uRm8f+xEK6hsRIJaX
5wIDAQABo4IBYzCCAV8wCQYDVR0TBAIwADAtBglghkgBhvhCAQ0EIBYeRWFzeS1S
U0EgR2VuZXJhdGVkIENlcnRpZmljYXRlMB0GA1UdDgQWBBSoc9VjK7rddtm/zHWG
hxDJGZGfnTCB4QYDVR0jBIHZMIHWgBQSzWAE0qCAnnDtxpm4eyzGUv0ZoaGBsqSB
rzCBrDELMAkGA1UEBhMCVVMxCzAJBgNVBAgTAk9IMREwDwYDVQQHEwhDb2x1bWJ1
czESMBAGA1UEChMJVmlraW5nVlBOMR0wGwYDVQQLExRNeU9yZ2FuaXphdGlvbmFs
VW5pdDEVMBMGA1UEAxMMVmlraW5nVlBOIENBMRAwDgYDVQQpEwdFYXN5UlNBMSEw
HwYJKoZIhvcNAQkBFhJtZUBteWhvc3QubXlkb21haW6CCQDPNYXugL8qPjATBgNV
HSUEDDAKBggrBgEFBQcDAjALBgNVHQ8EBAMCB4AwDQYJKoZIhvcNAQEEBQADggIB
AH7aBYw3S/ts4sB9BylqJiZrGpMHow+bmxfnP26SfZELEG7A48OlJSVapYOMTBtu
f0jMotsSDWDKe6/IpSdj3oZ0fEk/Jhi3nDA8Tzi6zGYF5n0gEoNEvEkp3x/GZr92
+c365gDF7rXZiIwtydDIbxjC4mlOTEhult/nK6jCZENpglNu61frhEtzqeAwMDZQ
cUIiKQ5YWTfcpVUiszqjE5ip3ivUSvbJzsvjVOhwAPoNnfNsdft1QpgUTOGfzu3l
VStKS8XoX/ZrxREe7JUDVNyE1UgU0zlGUYyPIfwfeE0/KyuMXPl1Snx2Rw8cA3o8
nlvqn4NHPbvTpkhXytmX+c6uN9IMQl4rZTQMNZWTjgGDkZgBgvfLAyArbtK1YaBT
7qF3kStdtCODx3qUaDy5G7CrCelMlg+VMrlWwUMm/6DtJDkjpYwxvLohU0MJcLFL
EIKERg1c8GdJLgu7P0HHOJnHzphSivrufcnwah7b7QkxRMf8y/5pE1IOhGkY/7ZQ
7+iYmExSrS9xWMGs7IZpsnfchUcZcldknX/i/9BmFWP1c4qFea12/QEDsf7MNpfd
WOYDul7MvkXpyydn45XaN6NnbUYpNNshpD0fJkO+llCmqxCWO8T3WTRYwoROPHgN
FCQFcQ4btwqhSqH1mRU83FoX3NB9aq9vf84OHhPolBk5
-----END CERTIFICATE-----
