Certificate:
    Data:
        Version: 3 (0x2)
        Serial Number: 243 (0xf3)
    Signature Algorithm: md5WithRSAEncryption
        Issuer: C=US, ST=OH, L=Columbus, O=VikingVPN, OU=MyOrganizationalUnit, CN=VikingVPN CA/name=EasyRSA/emailAddress=me@myhost.mydomain
        Validity
            Not Before: Sep 28 09:50:45 2013 GMT
            Not After : Sep 26 09:50:45 2023 GMT
        Subject: CN=Client49Cert9ebc52
        Subject Public Key Info:
            Public Key Algorithm: rsaEncryption
                Public-Key: (4096 bit)
                Modulus:
                    00:b5:ba:f4:10:6e:e2:eb:09:05:e1:de:92:60:89:
                    a6:1b:ef:20:cf:09:83:fa:2b:bb:dd:52:2e:e4:1c:
                    f9:7d:d9:a5:86:26:74:3a:c4:50:a3:08:1a:67:6a:
                    b7:94:9b:49:b5:51:a4:04:46:9f:74:7a:04:48:f5:
                    c8:f8:af:f4:c0:f1:2f:d2:bd:05:c0:fc:91:65:44:
                    cf:5f:45:28:5e:05:ed:6b:89:f3:b7:16:df:95:ec:
                    cf:28:34:5f:d1:2b:2d:09:05:5e:73:bf:4e:3e:c1:
                    87:28:57:a2:d6:38:f2:a3:14:50:a1:5f:92:ea:19:
                    ec:d4:93:d8:d7:5c:24:11:de:0a:bc:19:7e:6d:93:
                    cf:26:28:39:bb:27:6e:5d:9d:6d:34:4f:a8:10:f3:
                    bb:a8:0d:79:59:60:b6:95:63:a4:4f:68:ae:03:70:
                    8a:3e:55:24:8e:42:27:61:ed:dc:c5:2f:22:89:c1:
                    c1:c5:57:f4:67:03:ce:11:e6:cf:32:50:c7:28:7f:
                    82:b2:31:72:bd:fb:91:c6:72:87:e5:ea:da:28:62:
                    67:49:fa:46:60:6c:fa:82:96:d2:51:c9:6e:46:d4:
                    3c:96:8b:3c:74:71:32:5d:a3:09:54:6d:b2:dd:af:
                    e9:63:07:65:02:50:1e:7e:e6:66:a8:de:e4:4b:95:
                    72:b7:75:d3:fe:de:fe:c4:32:12:f1:1f:5f:23:cd:
                    4e:91:66:c0:71:0f:6a:9c:d0:d2:ba:da:5d:27:83:
                    fd:cd:e4:ff:27:3e:65:dd:38:c1:bd:4d:ab:28:ea:
                    12:79:30:ca:93:74:3c:5b:98:d2:18:18:84:65:4e:
                    12:97:65:f8:a2:2c:b0:27:44:56:f8:dd:80:ed:d9:
                    e7:e2:04:8f:e6:9b:47:1a:1c:e1:4f:cc:d8:3a:1b:
                    15:04:f7:88:8e:7a:19:42:e5:a9:ea:0a:f1:c1:cd:
                    57:11:70:a6:9b:4e:61:6e:ef:ba:08:30:f4:ba:bc:
                    49:dc:01:26:cc:05:93:a4:31:4a:92:25:6b:37:1b:
                    95:4e:e7:f1:c6:3a:d6:ae:c3:dd:ea:69:c8:51:7e:
                    aa:f4:61:14:64:5e:70:73:4b:0d:b1:d8:4f:21:9a:
                    bc:34:29:f7:df:1a:b6:9e:72:2a:1c:8c:29:cf:97:
                    7d:58:6a:08:e9:3e:9c:ff:cf:b1:0c:1e:27:1d:90:
                    1b:e9:13:bb:37:51:d0:ef:6e:41:44:c1:2e:17:64:
                    ea:e9:1d:2a:e7:cc:05:a4:2f:c0:29:e4:2c:ed:bb:
                    7d:39:bf:bd:34:bf:45:5a:55:b6:21:6e:21:4e:ee:
                    dc:9c:12:d1:84:32:e6:d3:c9:ed:7c:a7:a9:d0:6b:
                    4d:fe:41
                Exponent: 65537 (0x10001)
        X509v3 extensions:
            X509v3 Basic Constraints: 
                CA:FALSE
            Netscape Comment: 
                Easy-RSA Generated Certificate
            X509v3 Subject Key Identifier: 
                23:14:ED:F8:8C:8C:A0:C8:B0:A5:14:5C:88:6F:6B:D5:57:8F:0F:48
            X509v3 Authority Key Identifier: 
                keyid:12:CD:60:04:D2:A0:80:9E:70:ED:C6:99:B8:7B:2C:C6:52:FD:19:A1
                DirName:/C=US/ST=OH/L=Columbus/O=VikingVPN/OU=MyOrganizationalUnit/CN=VikingVPN CA/name=EasyRSA/emailAddress=me@myhost.mydomain
                serial:CF:35:85:EE:80:BF:2A:3E

            X509v3 Extended Key Usage: 
                TLS Web Client Authentication
            X509v3 Key Usage: 
                Digital Signature
    Signature Algorithm: md5WithRSAEncryption
         3b:3d:ef:fc:9c:12:dd:e3:51:d7:ce:3c:ee:59:7e:49:bb:66:
         b7:ec:4b:32:87:5e:ec:f1:f0:12:99:20:6a:0b:0f:c4:95:be:
         a5:4e:40:95:fa:d0:2e:e3:af:d5:fb:2d:84:58:1c:61:33:d1:
         38:5f:31:a4:b1:a4:a0:d8:91:02:94:a1:e5:05:ff:f8:7f:44:
         fc:3c:09:fb:da:70:bf:f7:29:07:52:08:ac:01:6b:f7:29:f3:
         56:e0:14:e9:dc:0f:de:90:93:47:c3:59:dc:8d:73:b2:e0:f9:
         46:a7:32:4e:72:ea:e1:75:19:71:fc:13:dc:0e:f0:b1:25:eb:
         9e:8c:ce:d5:ed:a0:38:ab:e3:e4:aa:d4:4d:2c:d3:60:b1:b0:
         a6:80:24:a9:e5:e7:c1:44:b4:b0:10:a1:8e:d0:0d:fb:82:86:
         53:a9:6b:52:0c:e9:77:4f:f9:c8:8c:cf:fd:6d:86:e2:6d:c0:
         77:69:2b:c7:0a:a1:40:8d:87:de:d2:22:e0:1a:38:40:61:5b:
         52:91:f1:d6:d7:bf:41:49:8e:e5:80:15:67:41:66:80:01:02:
         7c:d3:42:f9:8b:fc:7a:6c:a3:c5:bb:66:6f:0d:95:34:14:68:
         37:dc:20:99:16:b3:a8:cb:75:0c:ef:19:bd:77:ab:ed:06:3d:
         73:00:80:0c:e4:64:6a:22:62:c1:82:92:f7:d5:ee:53:82:ce:
         3c:58:bd:f8:e2:23:ac:af:9e:f6:0e:ea:2c:d9:05:c5:02:d3:
         b0:cd:44:2e:33:74:de:b9:d2:71:0f:6f:13:f2:2f:39:29:01:
         41:f0:83:37:1d:06:39:de:6c:36:b6:b0:2d:6d:38:ad:57:25:
         6b:4f:32:b4:b1:f2:2d:53:c6:08:28:fe:75:a4:95:0b:dd:01:
         6e:40:ec:45:12:12:0e:2b:7c:f5:73:8b:de:73:17:0f:6a:31:
         16:0b:4a:fa:ac:c8:d2:f7:87:35:b2:33:a4:73:ea:63:75:1d:
         1c:66:80:8a:de:41:02:a6:e1:26:5f:91:12:c3:db:43:9d:b1:
         6a:ed:1c:27:7f:38:82:f7:6e:98:39:88:44:74:3e:22:1a:4d:
         fb:e1:64:d3:38:b8:ea:65:e4:c9:30:d3:df:5a:5a:ba:fd:35:
         92:a5:28:50:09:ab:6a:5a:4f:ce:9a:bc:86:f6:50:24:e0:58:
         c0:bf:ce:fb:ff:f0:6a:06:24:19:3e:20:0b:40:ac:00:dc:5a:
         5f:4c:02:5b:39:96:b7:67:6d:31:5f:6c:6f:5e:7b:52:62:8f:
         d2:46:98:4a:8c:1b:4a:52:8d:78:3b:6c:58:b3:7e:f3:53:0b:
         19:74:cc:a5:d0:ae:55:db
-----BEGIN CERTIFICATE-----
MIIGqzCCBJOgAwIBAgICAPMwDQYJKoZIhvcNAQEEBQAwgawxCzAJBgNVBAYTAlVT
MQswCQYDVQQIEwJPSDERMA8GA1UEBxMIQ29sdW1idXMxEjAQBgNVBAoTCVZpa2lu
Z1ZQTjEdMBsGA1UECxMUTXlPcmdhbml6YXRpb25hbFVuaXQxFTATBgNVBAMTDFZp
a2luZ1ZQTiBDQTEQMA4GA1UEKRMHRWFzeVJTQTEhMB8GCSqGSIb3DQEJARYSbWVA
bXlob3N0Lm15ZG9tYWluMB4XDTEzMDkyODA5NTA0NVoXDTIzMDkyNjA5NTA0NVow
HTEbMBkGA1UEAxMSQ2xpZW50NDlDZXJ0OWViYzUyMIICIjANBgkqhkiG9w0BAQEF
AAOCAg8AMIICCgKCAgEAtbr0EG7i6wkF4d6SYImmG+8gzwmD+iu73VIu5Bz5fdml
hiZ0OsRQowgaZ2q3lJtJtVGkBEafdHoESPXI+K/0wPEv0r0FwPyRZUTPX0UoXgXt
a4nztxbflezPKDRf0SstCQVec79OPsGHKFei1jjyoxRQoV+S6hns1JPY11wkEd4K
vBl+bZPPJig5uyduXZ1tNE+oEPO7qA15WWC2lWOkT2iuA3CKPlUkjkInYe3cxS8i
icHBxVf0ZwPOEebPMlDHKH+CsjFyvfuRxnKH5eraKGJnSfpGYGz6gpbSUcluRtQ8
los8dHEyXaMJVG2y3a/pYwdlAlAefuZmqN7kS5Vyt3XT/t7+xDIS8R9fI81OkWbA
cQ9qnNDSutpdJ4P9zeT/Jz5l3TjBvU2rKOoSeTDKk3Q8W5jSGBiEZU4Sl2X4oiyw
J0RW+N2A7dnn4gSP5ptHGhzhT8zYOhsVBPeIjnoZQuWp6grxwc1XEXCmm05hbu+6
CDD0urxJ3AEmzAWTpDFKkiVrNxuVTufxxjrWrsPd6mnIUX6q9GEUZF5wc0sNsdhP
IZq8NCn33xq2nnIqHIwpz5d9WGoI6T6c/8+xDB4nHZAb6RO7N1HQ725BRMEuF2Tq
6R0q58wFpC/AKeQs7bt9Ob+9NL9FWlW2IW4hTu7cnBLRhDLm08ntfKep0GtN/kEC
AwEAAaOCAWMwggFfMAkGA1UdEwQCMAAwLQYJYIZIAYb4QgENBCAWHkVhc3ktUlNB
IEdlbmVyYXRlZCBDZXJ0aWZpY2F0ZTAdBgNVHQ4EFgQUIxTt+IyMoMiwpRRciG9r
1VePD0gwgeEGA1UdIwSB2TCB1oAUEs1gBNKggJ5w7caZuHssxlL9GaGhgbKkga8w
gawxCzAJBgNVBAYTAlVTMQswCQYDVQQIEwJPSDERMA8GA1UEBxMIQ29sdW1idXMx
EjAQBgNVBAoTCVZpa2luZ1ZQTjEdMBsGA1UECxMUTXlPcmdhbml6YXRpb25hbFVu
aXQxFTATBgNVBAMTDFZpa2luZ1ZQTiBDQTEQMA4GA1UEKRMHRWFzeVJTQTEhMB8G
CSqGSIb3DQEJARYSbWVAbXlob3N0Lm15ZG9tYWluggkAzzWF7oC/Kj4wEwYDVR0l
BAwwCgYIKwYBBQUHAwIwCwYDVR0PBAQDAgeAMA0GCSqGSIb3DQEBBAUAA4ICAQA7
Pe/8nBLd41HXzjzuWX5Ju2a37Esyh17s8fASmSBqCw/Elb6lTkCV+tAu46/V+y2E
WBxhM9E4XzGksaSg2JEClKHlBf/4f0T8PAn72nC/9ykHUgisAWv3KfNW4BTp3A/e
kJNHw1ncjXOy4PlGpzJOcurhdRlx/BPcDvCxJeuejM7V7aA4q+PkqtRNLNNgsbCm
gCSp5efBRLSwEKGO0A37goZTqWtSDOl3T/nIjM/9bYbibcB3aSvHCqFAjYfe0iLg
GjhAYVtSkfHW179BSY7lgBVnQWaAAQJ800L5i/x6bKPFu2ZvDZU0FGg33CCZFrOo
y3UM7xm9d6vtBj1zAIAM5GRqImLBgpL31e5Tgs48WL344iOsr572Duos2QXFAtOw
zUQuM3TeudJxD28T8i85KQFB8IM3HQY53mw2trAtbTitVyVrTzK0sfItU8YIKP51
pJUL3QFuQOxFEhIOK3z1c4vecxcPajEWC0r6rMjS94c1sjOkc+pjdR0cZoCK3kEC
puEmX5ESw9tDnbFq7RwnfziC926YOYhEdD4iGk374WTTOLjqZeTJMNPfWlq6/TWS
pShQCatqWk/OmryG9lAk4FjAv877//BqBiQZPiALQKwA3FpfTAJbOZa3Z20xX2xv
XntSYo/SRphKjBtKUo14O2xYs37zUwsZdMyl0K5V2w==
-----END CERTIFICATE-----
