Certificate:
    Data:
        Version: 3 (0x2)
        Serial Number: 148 (0x94)
    Signature Algorithm: md5WithRSAEncryption
        Issuer: C=US, ST=OH, L=Columbus, O=VikingVPN, OU=MyOrganizationalUnit, CN=VikingVPN CA/name=EasyRSA/emailAddress=me@myhost.mydomain
        Validity
            Not Before: Sep 10 22:59:06 2013 GMT
            Not After : Sep  8 22:59:06 2023 GMT
        Subject: CN=Client87Cert173cbf
        Subject Public Key Info:
            Public Key Algorithm: rsaEncryption
                Public-Key: (4096 bit)
                Modulus:
                    00:c5:ef:52:88:74:1f:0c:e8:bd:b4:98:1a:8c:30:
                    00:48:6d:21:a6:7f:42:18:60:b9:40:c3:14:7b:7b:
                    b3:8d:1f:ae:57:3e:f4:49:24:da:6f:2c:dc:5f:16:
                    03:9a:e1:a0:27:22:70:10:47:b1:65:b6:a2:e3:ff:
                    51:a8:35:5c:d6:39:7c:bb:7e:8d:d8:fa:2f:61:3f:
                    d0:ce:73:55:b0:a7:76:95:2c:2c:13:5e:ca:ea:17:
                    3d:81:13:37:65:a5:d1:3f:e2:0b:c0:99:31:40:bc:
                    7a:ec:2e:49:8d:f3:cf:93:dc:49:29:16:75:35:2a:
                    79:63:da:c3:b5:18:b8:33:4e:e0:e7:02:91:0d:8a:
                    d3:4a:e8:c5:04:35:71:84:e8:8d:8e:b2:e2:3c:bd:
                    43:08:75:2c:0e:b4:6c:07:31:cd:a2:5b:56:a0:3e:
                    5b:28:5f:bd:2c:1f:28:1d:04:55:ba:ac:1e:49:8b:
                    5d:bf:4b:11:36:8c:f1:ed:ff:99:9d:76:3b:49:1f:
                    58:bb:7a:b2:c6:03:03:6e:62:0e:0f:26:a3:9e:04:
                    77:5f:10:60:8e:b2:1c:81:48:30:b5:ac:a2:e2:24:
                    89:06:2f:33:73:a1:dc:14:3f:d1:04:c5:bb:a9:0a:
                    b9:18:47:2e:dd:b2:7b:e8:f9:39:9b:f1:d0:ec:be:
                    75:c8:e9:d7:0b:c9:72:25:bd:b6:98:e4:38:fd:58:
                    9d:87:86:c9:c8:e7:8b:3f:12:c1:84:28:0f:c8:a8:
                    17:e7:13:12:72:d0:55:b9:de:de:c7:7a:ae:2f:33:
                    09:24:4f:23:0f:75:75:8b:d8:39:7c:70:3c:ad:04:
                    52:6d:b8:96:aa:59:53:50:b3:04:38:55:1e:7c:c9:
                    bb:36:27:c3:ec:9d:b7:09:0b:33:f3:1f:05:1d:e5:
                    cd:0c:c6:38:39:0b:17:b7:76:2d:64:20:76:e3:e0:
                    ff:f1:7f:47:d6:18:ca:48:54:98:da:fd:b5:1b:ae:
                    c8:a6:54:6c:22:20:f2:87:15:2c:ce:ba:76:9a:c4:
                    1c:25:6d:5c:4d:5e:c8:82:ca:9f:04:e4:03:cf:ba:
                    9e:de:8b:33:3a:33:18:0f:d8:5f:e6:1f:38:93:da:
                    34:e9:06:e7:cb:af:76:9d:e0:e2:1e:b4:46:83:d4:
                    1c:78:a1:77:69:f8:d7:1e:24:98:47:9e:4d:be:be:
                    fc:df:0a:47:40:a4:b9:a7:81:1c:fa:a5:2a:f1:4e:
                    dd:9e:87:2a:37:67:c7:4f:83:a5:73:d7:fb:52:28:
                    37:5a:df:bd:26:e9:42:f4:85:86:93:10:16:55:56:
                    6a:b9:47:14:1e:2c:19:64:47:d3:a9:06:8a:83:0b:
                    91:7e:83
                Exponent: 65537 (0x10001)
        X509v3 extensions:
            X509v3 Basic Constraints: 
                CA:FALSE
            Netscape Comment: 
                Easy-RSA Generated Certificate
            X509v3 Subject Key Identifier: 
                79:F9:A0:49:B8:DF:6C:E7:10:62:74:08:6E:C6:8D:55:2C:35:39:88
            X509v3 Authority Key Identifier: 
                keyid:12:CD:60:04:D2:A0:80:9E:70:ED:C6:99:B8:7B:2C:C6:52:FD:19:A1
                DirName:/C=US/ST=OH/L=Columbus/O=VikingVPN/OU=MyOrganizationalUnit/CN=VikingVPN CA/name=EasyRSA/emailAddress=me@myhost.mydomain
                serial:CF:35:85:EE:80:BF:2A:3E

            X509v3 Extended Key Usage: 
                TLS Web Client Authentication
            X509v3 Key Usage: 
                Digital Signature
    Signature Algorithm: md5WithRSAEncryption
         ca:0b:80:ad:41:38:d7:b2:f0:79:3a:b9:a3:1e:05:cb:d2:5f:
         7e:09:a1:ba:10:20:d1:a5:eb:2b:fe:90:a3:c3:0a:7c:cf:01:
         78:a8:df:b3:1c:89:be:57:17:0b:5b:99:a7:8c:1e:91:ca:56:
         36:b9:1b:38:d7:b4:24:9c:92:6a:81:26:de:ef:94:08:95:52:
         78:f3:24:5a:95:da:f7:75:01:19:a0:d6:9c:27:17:3c:5d:06:
         7c:a5:44:65:ec:d1:26:2c:04:8f:c1:7e:5a:09:31:32:5c:e0:
         27:41:65:30:4f:e4:cc:b0:91:94:34:b5:94:28:ce:b1:e9:fe:
         8f:00:2c:bd:62:30:46:45:40:4b:41:cc:98:c9:4c:94:51:28:
         49:ed:7e:fc:1b:a5:73:e8:bf:c5:c5:86:97:3b:b7:e8:c1:86:
         f7:8f:1c:b6:51:d9:c0:43:dc:75:3b:d5:9f:1e:20:6c:f6:75:
         ff:b2:ff:30:12:b0:e0:ff:b3:c3:da:e9:81:c2:65:4a:48:98:
         78:11:06:84:cf:2d:b3:65:8e:48:95:1d:23:39:4d:ac:7b:c8:
         92:d0:a9:8f:77:d8:31:95:bb:e7:66:a1:e6:85:b1:e2:9e:a2:
         5c:d5:2e:14:de:d9:52:58:74:46:2d:74:52:4d:91:ea:a7:81:
         fc:71:f9:ec:25:56:2e:a4:d3:7c:b2:30:68:60:a7:60:34:2c:
         8c:92:1a:95:cd:8d:6d:17:3e:a5:ce:5c:76:5f:15:b4:ff:37:
         a0:44:d8:a0:46:38:05:dc:72:e9:c2:30:ef:4d:83:07:bf:88:
         8a:06:ca:0b:78:1e:a8:df:3d:f6:6e:2f:17:d4:98:6e:4e:0a:
         67:45:07:93:1c:32:25:31:ff:8a:db:c4:c6:d2:0c:f5:ba:7b:
         57:fe:54:a9:36:ee:df:24:2f:df:84:3c:3d:ac:91:cc:a1:f3:
         36:5d:7e:e1:8a:1b:03:f7:9a:40:69:3b:82:7d:64:92:2a:c2:
         10:40:c3:f7:ba:df:56:19:2e:3e:4a:c9:1b:39:a1:41:d1:2a:
         77:c8:81:fc:98:7e:d8:8c:91:04:47:57:fa:85:ce:84:3b:7c:
         f0:a1:df:59:51:15:4f:27:b3:7f:44:91:54:6a:bd:3b:0d:5b:
         01:ae:3a:59:3e:08:58:02:03:65:82:2e:cd:2a:e2:dd:5e:3a:
         ad:21:4d:fc:61:b0:09:11:c7:01:ca:01:fa:82:5f:13:5f:28:
         0b:39:08:c0:d7:e4:b9:2b:ba:f0:ac:e5:8c:a7:5b:8f:26:ee:
         24:ca:53:28:08:e6:2d:59:da:96:8b:3c:07:d5:77:1c:c8:33:
         3b:4f:cb:c8:6a:ac:ab:51
-----BEGIN CERTIFICATE-----
MIIGqzCCBJOgAwIBAgICAJQwDQYJKoZIhvcNAQEEBQAwgawxCzAJBgNVBAYTAlVT
MQswCQYDVQQIEwJPSDERMA8GA1UEBxMIQ29sdW1idXMxEjAQBgNVBAoTCVZpa2lu
Z1ZQTjEdMBsGA1UECxMUTXlPcmdhbml6YXRpb25hbFVuaXQxFTATBgNVBAMTDFZp
a2luZ1ZQTiBDQTEQMA4GA1UEKRMHRWFzeVJTQTEhMB8GCSqGSIb3DQEJARYSbWVA
bXlob3N0Lm15ZG9tYWluMB4XDTEzMDkxMDIyNTkwNloXDTIzMDkwODIyNTkwNlow
HTEbMBkGA1UEAxMSQ2xpZW50ODdDZXJ0MTczY2JmMIICIjANBgkqhkiG9w0BAQEF
AAOCAg8AMIICCgKCAgEAxe9SiHQfDOi9tJgajDAASG0hpn9CGGC5QMMUe3uzjR+u
Vz70SSTabyzcXxYDmuGgJyJwEEexZbai4/9RqDVc1jl8u36N2PovYT/QznNVsKd2
lSwsE17K6hc9gRM3ZaXRP+ILwJkxQLx67C5JjfPPk9xJKRZ1NSp5Y9rDtRi4M07g
5wKRDYrTSujFBDVxhOiNjrLiPL1DCHUsDrRsBzHNoltWoD5bKF+9LB8oHQRVuqwe
SYtdv0sRNozx7f+ZnXY7SR9Yu3qyxgMDbmIODyajngR3XxBgjrIcgUgwtayi4iSJ
Bi8zc6HcFD/RBMW7qQq5GEcu3bJ76Pk5m/HQ7L51yOnXC8lyJb22mOQ4/Vidh4bJ
yOeLPxLBhCgPyKgX5xMSctBVud7ex3quLzMJJE8jD3V1i9g5fHA8rQRSbbiWqllT
ULMEOFUefMm7NifD7J23CQsz8x8FHeXNDMY4OQsXt3YtZCB24+D/8X9H1hjKSFSY
2v21G67IplRsIiDyhxUszrp2msQcJW1cTV7IgsqfBOQDz7qe3oszOjMYD9hf5h84
k9o06Qbny692neDiHrRGg9QceKF3afjXHiSYR55Nvr783wpHQKS5p4Ec+qUq8U7d
nocqN2fHT4Olc9f7Uig3Wt+9JulC9IWGkxAWVVZquUcUHiwZZEfTqQaKgwuRfoMC
AwEAAaOCAWMwggFfMAkGA1UdEwQCMAAwLQYJYIZIAYb4QgENBCAWHkVhc3ktUlNB
IEdlbmVyYXRlZCBDZXJ0aWZpY2F0ZTAdBgNVHQ4EFgQUefmgSbjfbOcQYnQIbsaN
VSw1OYgwgeEGA1UdIwSB2TCB1oAUEs1gBNKggJ5w7caZuHssxlL9GaGhgbKkga8w
gawxCzAJBgNVBAYTAlVTMQswCQYDVQQIEwJPSDERMA8GA1UEBxMIQ29sdW1idXMx
EjAQBgNVBAoTCVZpa2luZ1ZQTjEdMBsGA1UECxMUTXlPcmdhbml6YXRpb25hbFVu
aXQxFTATBgNVBAMTDFZpa2luZ1ZQTiBDQTEQMA4GA1UEKRMHRWFzeVJTQTEhMB8G
CSqGSIb3DQEJARYSbWVAbXlob3N0Lm15ZG9tYWluggkAzzWF7oC/Kj4wEwYDVR0l
BAwwCgYIKwYBBQUHAwIwCwYDVR0PBAQDAgeAMA0GCSqGSIb3DQEBBAUAA4ICAQDK
C4CtQTjXsvB5OrmjHgXL0l9+CaG6ECDRpesr/pCjwwp8zwF4qN+zHIm+VxcLW5mn
jB6RylY2uRs417QknJJqgSbe75QIlVJ48yRaldr3dQEZoNacJxc8XQZ8pURl7NEm
LASPwX5aCTEyXOAnQWUwT+TMsJGUNLWUKM6x6f6PACy9YjBGRUBLQcyYyUyUUShJ
7X78G6Vz6L/FxYaXO7fowYb3jxy2UdnAQ9x1O9WfHiBs9nX/sv8wErDg/7PD2umB
wmVKSJh4EQaEzy2zZY5IlR0jOU2se8iS0KmPd9gxlbvnZqHmhbHinqJc1S4U3tlS
WHRGLXRSTZHqp4H8cfnsJVYupNN8sjBoYKdgNCyMkhqVzY1tFz6lzlx2XxW0/zeg
RNigRjgF3HLpwjDvTYMHv4iKBsoLeB6o3z32bi8X1JhuTgpnRQeTHDIlMf+K28TG
0gz1untX/lSpNu7fJC/fhDw9rJHMofM2XX7hihsD95pAaTuCfWSSKsIQQMP3ut9W
GS4+SskbOaFB0Sp3yIH8mH7YjJEER1f6hc6EO3zwod9ZURVPJ7N/RJFUar07DVsB
rjpZPghYAgNlgi7NKuLdXjqtIU38YbAJEccBygH6gl8TXygLOQjA1+S5K7rwrOWM
p1uPJu4kylMoCOYtWdqWizwH1XccyDM7T8vIaqyrUQ==
-----END CERTIFICATE-----
