Certificate:
    Data:
        Version: 3 (0x2)
        Serial Number: 10508 (0x290c)
    Signature Algorithm: sha256WithRSAEncryption
        Issuer: C=US, ST=OH, L=Columbus, O=VikingVPN, OU=MyOrganizationalUnit, CN=VikingVPN CA/name=EasyRSA/emailAddress=me@myhost.mydomain
        Validity
            Not Before: Apr  2 12:29:08 2017 GMT
            Not After : Mar 31 12:29:08 2027 GMT
        Subject: CN=Client2213Cert62bf41
        Subject Public Key Info:
            Public Key Algorithm: rsaEncryption
                Public-Key: (4096 bit)
                Modulus:
                    00:c4:7d:75:02:c8:0a:fb:1c:72:b0:81:5e:fe:1f:
                    11:28:85:ab:cd:49:f6:dd:98:77:60:ac:f6:fb:85:
                    c1:65:82:30:51:d9:80:39:ed:06:c5:22:ed:ce:6e:
                    d8:2c:0b:6a:5d:40:e1:d7:22:70:98:34:b4:0b:dd:
                    03:db:95:08:4b:71:26:cc:3c:12:6b:b1:f2:53:3a:
                    14:c9:bc:2e:6f:de:b7:5e:fc:00:d8:a1:b6:f6:69:
                    0b:a0:62:f6:fe:7d:b0:b9:02:9f:e4:91:33:bf:ae:
                    32:2a:ab:83:96:52:70:6f:12:b5:e0:6d:48:ea:ad:
                    46:5b:70:47:19:12:d0:ca:12:a9:0c:b4:8b:35:8d:
                    2b:29:d1:2e:06:c9:e9:a3:f2:cd:57:0e:28:9b:fa:
                    91:a2:a1:a7:83:ad:e8:d5:5a:7d:39:19:b3:62:02:
                    f8:f8:67:29:58:9a:4e:6e:b4:f5:5f:58:09:39:c3:
                    da:b6:1b:93:a0:cd:f1:88:30:12:69:76:6d:f0:f3:
                    cd:46:5d:00:ee:ba:67:de:f8:3b:cd:63:ff:a5:eb:
                    90:7c:dc:6f:69:6b:09:29:e0:71:20:3b:89:e6:e6:
                    3a:a3:30:8e:ea:71:4f:33:e0:85:1b:b9:89:d3:11:
                    5c:e3:b7:73:d5:7e:3e:83:93:26:98:f3:b4:aa:c4:
                    a0:5f:01:9f:c8:3e:90:b5:25:2d:88:90:f8:32:e9:
                    a2:4e:9b:38:3b:ed:c9:01:e4:c2:3c:5d:01:1c:45:
                    d8:6a:17:7d:fa:61:13:ae:38:a5:cf:5a:10:2d:19:
                    aa:72:a5:cd:9e:91:9b:7a:02:ca:06:a9:8e:da:22:
                    8a:a0:09:fa:97:cc:d1:84:a7:70:83:04:10:e7:a5:
                    5a:b8:75:3e:2b:bb:c4:b6:b0:cd:5d:9f:ec:67:34:
                    da:e7:82:3f:1f:9e:2b:72:a3:22:11:ba:fd:26:81:
                    f2:f9:08:39:c2:34:34:0b:46:4e:ad:fb:a2:68:89:
                    94:a4:45:3f:1c:77:3b:61:42:8a:8d:2e:a2:c9:d9:
                    13:c0:b8:50:b8:30:17:5d:3a:a2:a8:c8:22:23:62:
                    ed:98:fd:2d:57:6a:bb:1b:5e:41:06:0c:ae:e1:36:
                    fc:0f:04:b9:a1:90:6f:ba:96:6b:2c:f0:f5:45:50:
                    8f:a7:17:3a:e2:31:97:73:b5:b4:96:9f:a1:4f:66:
                    35:b9:3b:85:74:7a:65:fd:6b:76:ec:07:40:31:d1:
                    07:dd:be:21:2e:ba:dd:f0:cb:71:01:9a:f5:9b:4b:
                    d9:67:86:e6:29:fc:7e:4a:cf:94:22:d7:4e:3a:8a:
                    a5:00:b7:7e:98:4b:81:c7:dd:0b:8e:a2:3e:c3:a8:
                    f1:93:2f
                Exponent: 65537 (0x10001)
        X509v3 extensions:
            X509v3 Basic Constraints: 
                CA:FALSE
            Netscape Comment: 
                Easy-RSA Generated Certificate
            X509v3 Subject Key Identifier: 
                14:AB:2F:20:4C:17:E7:65:11:26:30:89:E5:45:27:61:E1:68:C3:76
            X509v3 Authority Key Identifier: 
                keyid:12:CD:60:04:D2:A0:80:9E:70:ED:C6:99:B8:7B:2C:C6:52:FD:19:A1
                DirName:/C=US/ST=OH/L=Columbus/O=VikingVPN/OU=MyOrganizationalUnit/CN=VikingVPN CA/name=EasyRSA/emailAddress=me@myhost.mydomain
                serial:CF:35:85:EE:80:BF:2A:3E

            X509v3 Extended Key Usage: 
                TLS Web Client Authentication
            X509v3 Key Usage: 
                Digital Signature
    Signature Algorithm: sha256WithRSAEncryption
         ee:8a:16:0a:e9:89:30:a2:db:e4:64:a1:cd:35:f1:3f:67:b9:
         03:c9:e5:e4:9c:f6:ab:bf:be:15:07:c6:10:e3:52:a6:2e:90:
         3e:b0:33:c2:31:b8:ad:ce:a1:e0:39:b8:14:29:13:74:10:15:
         c0:ef:32:9c:cf:ae:7a:71:a8:f1:f3:12:7c:63:7e:62:9c:79:
         14:25:ff:84:d2:68:6f:f8:e9:f2:76:4a:88:cc:f2:bc:44:48:
         af:f9:c3:ab:39:9d:6d:4b:30:b4:5b:a8:63:98:68:0d:92:f2:
         c6:ed:e9:40:e9:ed:cf:57:8f:18:eb:d9:0d:62:dc:84:45:06:
         72:68:03:eb:61:d5:0e:8d:3c:0e:87:c6:84:c6:16:8c:56:49:
         b3:45:bc:80:7d:d6:a1:91:a7:53:cb:cf:b0:bf:55:fc:59:15:
         85:2a:e1:51:15:b8:11:2c:59:31:4d:08:e4:e6:0a:fc:0e:1e:
         7d:f1:98:20:80:57:25:d5:c9:12:aa:49:06:1a:95:c9:a6:fb:
         85:4b:b1:33:39:35:14:cd:d7:10:f3:fe:fc:79:69:04:db:b7:
         55:22:5a:50:b9:78:15:46:0e:b8:6a:70:cb:7b:45:d9:ae:45:
         c6:2b:6b:2b:75:6b:9b:41:df:43:c5:b3:7d:40:9f:d5:29:fd:
         de:6f:99:03:51:28:1a:86:44:24:b3:9e:ad:c9:b8:ee:96:a5:
         6e:5d:b1:42:40:60:a1:4f:55:9a:47:27:3d:fc:0e:46:0b:24:
         1f:4c:98:b9:5d:42:06:20:b1:7c:6a:c3:54:7d:fe:d6:6f:bc:
         ba:b7:04:99:1a:1b:5b:08:d2:2c:ea:2e:ec:d6:9d:d9:ad:3b:
         bf:72:98:a2:32:b7:b2:37:04:cf:57:d0:2d:22:8a:02:b9:2b:
         07:28:ce:69:b6:37:d6:aa:c8:d0:06:ce:f5:2b:74:f4:06:10:
         62:52:ff:0f:22:cc:04:89:6f:be:47:0a:63:0f:a6:ec:75:55:
         9c:6e:a0:fa:a2:df:a7:b7:86:07:a8:21:9b:d3:3f:52:0a:8c:
         ab:15:11:e2:dc:b2:e0:5a:3d:15:da:49:33:67:f1:22:0e:a0:
         91:0d:d5:55:2c:5d:2d:38:f5:59:cf:63:4b:78:68:50:3b:65:
         b4:a8:28:6c:dd:0e:e0:27:c1:32:a6:f1:fa:be:00:e3:40:ba:
         78:c4:62:d3:53:2a:8a:5a:8d:5a:75:02:e1:1c:78:32:d7:0a:
         d8:99:6f:77:61:f2:bc:32:18:cb:0f:36:cf:18:d4:8b:4d:4a:
         06:70:32:54:8f:82:36:94:8c:20:b7:a8:f8:6d:77:ae:de:c3:
         e7:0b:2e:e8:d5:00:b7:99
-----BEGIN CERTIFICATE-----
MIIGrTCCBJWgAwIBAgICKQwwDQYJKoZIhvcNAQELBQAwgawxCzAJBgNVBAYTAlVT
MQswCQYDVQQIEwJPSDERMA8GA1UEBxMIQ29sdW1idXMxEjAQBgNVBAoTCVZpa2lu
Z1ZQTjEdMBsGA1UECxMUTXlPcmdhbml6YXRpb25hbFVuaXQxFTATBgNVBAMTDFZp
a2luZ1ZQTiBDQTEQMA4GA1UEKRMHRWFzeVJTQTEhMB8GCSqGSIb3DQEJARYSbWVA
bXlob3N0Lm15ZG9tYWluMB4XDTE3MDQwMjEyMjkwOFoXDTI3MDMzMTEyMjkwOFow
HzEdMBsGA1UEAxMUQ2xpZW50MjIxM0NlcnQ2MmJmNDEwggIiMA0GCSqGSIb3DQEB
AQUAA4ICDwAwggIKAoICAQDEfXUCyAr7HHKwgV7+HxEohavNSfbdmHdgrPb7hcFl
gjBR2YA57QbFIu3ObtgsC2pdQOHXInCYNLQL3QPblQhLcSbMPBJrsfJTOhTJvC5v
3rde/ADYobb2aQugYvb+fbC5Ap/kkTO/rjIqq4OWUnBvErXgbUjqrUZbcEcZEtDK
EqkMtIs1jSsp0S4Gyemj8s1XDiib+pGioaeDrejVWn05GbNiAvj4ZylYmk5utPVf
WAk5w9q2G5OgzfGIMBJpdm3w881GXQDuumfe+DvNY/+l65B83G9pawkp4HEgO4nm
5jqjMI7qcU8z4IUbuYnTEVzjt3PVfj6DkyaY87SqxKBfAZ/IPpC1JS2IkPgy6aJO
mzg77ckB5MI8XQEcRdhqF336YROuOKXPWhAtGapypc2ekZt6AsoGqY7aIoqgCfqX
zNGEp3CDBBDnpVq4dT4ru8S2sM1dn+xnNNrngj8fnityoyIRuv0mgfL5CDnCNDQL
Rk6t+6JoiZSkRT8cdzthQoqNLqLJ2RPAuFC4MBddOqKoyCIjYu2Y/S1XarsbXkEG
DK7hNvwPBLmhkG+6lmss8PVFUI+nFzriMZdztbSWn6FPZjW5O4V0emX9a3bsB0Ax
0QfdviEuut3wy3EBmvWbS9lnhuYp/H5Kz5Qi1046iqUAt36YS4HH3QuOoj7DqPGT
LwIDAQABo4IBYzCCAV8wCQYDVR0TBAIwADAtBglghkgBhvhCAQ0EIBYeRWFzeS1S
U0EgR2VuZXJhdGVkIENlcnRpZmljYXRlMB0GA1UdDgQWBBQUqy8gTBfnZREmMInl
RSdh4WjDdjCB4QYDVR0jBIHZMIHWgBQSzWAE0qCAnnDtxpm4eyzGUv0ZoaGBsqSB
rzCBrDELMAkGA1UEBhMCVVMxCzAJBgNVBAgTAk9IMREwDwYDVQQHEwhDb2x1bWJ1
czESMBAGA1UEChMJVmlraW5nVlBOMR0wGwYDVQQLExRNeU9yZ2FuaXphdGlvbmFs
VW5pdDEVMBMGA1UEAxMMVmlraW5nVlBOIENBMRAwDgYDVQQpEwdFYXN5UlNBMSEw
HwYJKoZIhvcNAQkBFhJtZUBteWhvc3QubXlkb21haW6CCQDPNYXugL8qPjATBgNV
HSUEDDAKBggrBgEFBQcDAjALBgNVHQ8EBAMCB4AwDQYJKoZIhvcNAQELBQADggIB
AO6KFgrpiTCi2+Rkoc018T9nuQPJ5eSc9qu/vhUHxhDjUqYukD6wM8IxuK3OoeA5
uBQpE3QQFcDvMpzPrnpxqPHzEnxjfmKceRQl/4TSaG/46fJ2SojM8rxESK/5w6s5
nW1LMLRbqGOYaA2S8sbt6UDp7c9Xjxjr2Q1i3IRFBnJoA+th1Q6NPA6HxoTGFoxW
SbNFvIB91qGRp1PLz7C/VfxZFYUq4VEVuBEsWTFNCOTmCvwOHn3xmCCAVyXVyRKq
SQYalcmm+4VLsTM5NRTN1xDz/vx5aQTbt1UiWlC5eBVGDrhqcMt7RdmuRcYrayt1
a5tB30PFs31An9Up/d5vmQNRKBqGRCSznq3JuO6WpW5dsUJAYKFPVZpHJz38DkYL
JB9MmLldQgYgsXxqw1R9/tZvvLq3BJkaG1sI0izqLuzWndmtO79ymKIyt7I3BM9X
0C0iigK5Kwcozmm2N9aqyNAGzvUrdPQGEGJS/w8izASJb75HCmMPpux1VZxuoPqi
36e3hgeoIZvTP1IKjKsVEeLcsuBaPRXaSTNn8SIOoJEN1VUsXS049VnPY0t4aFA7
ZbSoKGzdDuAnwTKm8fq+AONAunjEYtNTKopajVp1AuEceDLXCtiZb3dh8rwyGMsP
Ns8Y1ItNSgZwMlSPgjaUjCC3qPhtd67ew+cLLujVALeZ
-----END CERTIFICATE-----
