Certificate:
    Data:
        Version: 3 (0x2)
        Serial Number: 6018 (0x1782)
    Signature Algorithm: md5WithRSAEncryption
        Issuer: C=US, ST=OH, L=Columbus, O=VikingVPN, OU=MyOrganizationalUnit, CN=VikingVPN CA/name=EasyRSA/emailAddress=me@myhost.mydomain
        Validity
            Not Before: Aug  7 01:23:36 2015 GMT
            Not After : Aug  4 01:23:36 2025 GMT
        Subject: CN=Client1883Certdab560
        Subject Public Key Info:
            Public Key Algorithm: rsaEncryption
                Public-Key: (4096 bit)
                Modulus:
                    00:ba:2a:84:94:c7:f2:e1:6a:34:a0:84:5e:eb:a5:
                    be:ff:a5:d5:60:4c:79:f1:a7:68:9c:7e:ee:7a:59:
                    8f:9e:96:28:fc:50:5b:55:88:17:44:e5:8f:04:63:
                    b0:75:08:28:95:7e:52:94:d4:8e:db:8c:b3:80:27:
                    20:5a:eb:cd:df:a4:f1:24:9d:cc:6e:a7:4c:07:54:
                    1a:fd:db:77:36:35:9c:56:97:d0:81:8b:9d:65:f5:
                    82:c6:3b:9d:1c:01:b4:89:64:02:c3:fd:aa:45:b6:
                    66:86:a1:a3:2f:08:17:e2:7d:ba:72:85:af:ad:77:
                    58:eb:54:d4:92:cc:99:76:7e:ae:53:55:10:d1:9b:
                    fa:f8:9a:c2:d9:c7:07:84:ce:7f:a3:18:27:ab:8c:
                    0b:17:9c:ae:b7:0b:40:49:57:0b:b6:ac:f0:b4:9f:
                    ab:df:0d:84:c0:cd:81:81:05:75:99:21:4b:10:b7:
                    97:79:94:7a:61:32:47:88:5b:f9:07:0d:80:95:b4:
                    64:85:57:07:17:46:72:94:92:55:d0:15:90:52:63:
                    87:af:5c:cf:92:03:cc:4d:2b:92:ec:d0:b4:da:70:
                    9e:9f:91:44:90:fe:a0:84:66:cc:99:5e:aa:41:14:
                    af:9e:20:9f:ab:1c:a1:94:ce:19:d4:f3:f4:e8:58:
                    f4:e3:54:9c:50:c7:e3:fe:03:f4:c1:f3:92:1f:e0:
                    4e:45:31:3b:a5:d7:17:eb:07:01:77:09:3c:a7:66:
                    47:52:53:a9:34:19:3f:31:63:ec:7b:98:9b:04:6b:
                    52:16:7d:34:c2:7e:a1:43:e5:ea:91:5e:f1:92:65:
                    52:e7:71:58:9c:f9:20:11:6e:cb:df:3c:44:fa:b3:
                    56:79:b9:a5:83:cc:db:fe:a7:0b:71:b0:d2:bf:97:
                    b6:a3:8d:3a:ed:77:01:c2:bf:94:a1:17:f0:d6:ad:
                    cf:f2:37:6e:01:f3:48:0a:07:70:ae:33:e5:3b:4f:
                    a3:13:4c:99:f6:87:73:29:73:02:9b:52:14:23:65:
                    91:1d:25:27:c6:ba:ef:6d:a9:bb:bf:d2:8f:21:64:
                    2b:cb:b0:54:e8:54:ca:49:26:b5:4c:18:02:ca:44:
                    cb:30:d4:f1:32:f9:db:7e:89:5c:64:3b:d4:60:69:
                    af:cc:f2:7f:a4:a3:61:d9:41:c7:26:87:dd:5b:55:
                    d6:52:2a:68:e7:09:70:f5:77:27:9f:f9:55:28:b8:
                    45:42:de:e5:09:d1:f9:57:ea:48:a2:cf:58:9c:39:
                    4e:9b:a1:25:f8:eb:e4:a2:fc:b5:76:aa:a8:aa:f4:
                    e5:85:38:a3:70:e9:98:30:fb:83:46:f2:6c:e5:1e:
                    ba:4a:59
                Exponent: 65537 (0x10001)
        X509v3 extensions:
            X509v3 Basic Constraints: 
                CA:FALSE
            Netscape Comment: 
                Easy-RSA Generated Certificate
            X509v3 Subject Key Identifier: 
                22:2E:A6:FF:35:69:28:8F:E6:5A:F3:75:D3:AB:94:DB:08:B5:A1:92
            X509v3 Authority Key Identifier: 
                keyid:12:CD:60:04:D2:A0:80:9E:70:ED:C6:99:B8:7B:2C:C6:52:FD:19:A1
                DirName:/C=US/ST=OH/L=Columbus/O=VikingVPN/OU=MyOrganizationalUnit/CN=VikingVPN CA/name=EasyRSA/emailAddress=me@myhost.mydomain
                serial:CF:35:85:EE:80:BF:2A:3E

            X509v3 Extended Key Usage: 
                TLS Web Client Authentication
            X509v3 Key Usage: 
                Digital Signature
    Signature Algorithm: md5WithRSAEncryption
         4a:a3:49:68:2c:b0:5a:31:7e:d9:5d:dc:4b:f0:52:33:3f:33:
         c3:c2:83:24:2e:dd:91:bc:20:59:94:24:0d:a3:25:bf:dd:fc:
         2c:6c:68:b7:62:82:44:03:21:7b:5c:bc:d0:9e:ac:2b:c7:8f:
         2d:4f:49:cb:4a:78:3f:f5:5e:63:9a:72:f8:c2:55:0f:b7:6e:
         25:28:3a:9b:a8:cc:49:5a:87:e4:20:1d:d1:86:65:c5:e5:ff:
         39:aa:81:a3:74:39:b2:75:a0:96:b4:41:0c:a6:70:00:72:b7:
         66:08:1a:dd:29:f2:0c:48:eb:f9:f7:6e:5b:cb:73:ab:d5:50:
         cb:75:c2:cf:44:bd:6a:c1:86:bd:4b:b0:d0:3a:a3:4b:01:29:
         67:2c:66:47:47:ad:4b:64:9b:6f:57:c0:aa:fb:12:20:a2:fd:
         86:a8:4e:f0:d8:cd:0c:a3:46:52:f6:fa:a6:61:53:c1:52:04:
         59:04:f3:70:4f:ad:c1:f5:f3:bd:13:f7:a2:02:8a:23:45:44:
         7d:ef:df:7e:70:75:25:eb:2f:2b:24:8a:90:b3:ea:5d:36:d9:
         48:4e:6e:19:51:97:6c:58:64:7c:44:8b:4e:74:37:1b:d6:7c:
         9c:ca:c2:77:9f:e5:da:41:e7:6a:79:1a:af:f3:81:e0:3a:c9:
         9a:bd:4d:e6:cc:a8:9d:20:ce:e0:06:6b:07:d1:d6:2b:9f:54:
         c7:83:9a:35:8b:e5:ce:0a:4c:e8:e5:e9:26:2c:e2:c8:1a:7a:
         c3:d1:a7:7c:0a:da:d0:5f:c7:da:69:dd:d0:59:a5:c8:cb:d7:
         e3:80:5f:ca:a9:d1:74:6b:e6:31:c2:8e:14:ea:0c:0e:cd:67:
         6d:e0:94:47:32:a0:8b:a6:00:6b:fb:cf:fe:76:14:3e:d2:ed:
         40:e0:9c:d2:18:d9:7d:b1:c5:9f:98:aa:49:94:04:a5:d7:e8:
         6e:c3:c7:72:ac:2d:6b:ab:8c:c5:f3:e4:e1:a0:7d:f6:40:b9:
         0e:8a:06:ec:6f:d6:b5:01:4e:f8:af:a5:fe:e0:61:b2:69:ba:
         14:5e:c8:82:89:d3:67:26:1e:84:86:3b:95:d4:9f:56:1e:85:
         1b:f7:98:a1:ed:2e:ce:1b:ed:35:3b:9a:36:19:9a:a0:a4:0c:
         c0:cc:4d:79:71:dc:35:1d:43:18:a4:3e:ce:5c:8f:69:80:a0:
         85:c1:a1:bb:3f:69:c8:9f:99:bf:93:ba:2a:ad:75:56:3d:f4:
         c0:fb:7f:36:dd:65:e4:3c:9a:50:eb:a4:ee:99:55:2d:c3:50:
         c2:47:e8:50:cb:f5:1c:89:c8:42:6e:8c:d3:bf:6e:8b:10:f4:
         6e:01:9d:85:76:b8:c4:28
-----BEGIN CERTIFICATE-----
MIIGrTCCBJWgAwIBAgICF4IwDQYJKoZIhvcNAQEEBQAwgawxCzAJBgNVBAYTAlVT
MQswCQYDVQQIEwJPSDERMA8GA1UEBxMIQ29sdW1idXMxEjAQBgNVBAoTCVZpa2lu
Z1ZQTjEdMBsGA1UECxMUTXlPcmdhbml6YXRpb25hbFVuaXQxFTATBgNVBAMTDFZp
a2luZ1ZQTiBDQTEQMA4GA1UEKRMHRWFzeVJTQTEhMB8GCSqGSIb3DQEJARYSbWVA
bXlob3N0Lm15ZG9tYWluMB4XDTE1MDgwNzAxMjMzNloXDTI1MDgwNDAxMjMzNlow
HzEdMBsGA1UEAxMUQ2xpZW50MTg4M0NlcnRkYWI1NjAwggIiMA0GCSqGSIb3DQEB
AQUAA4ICDwAwggIKAoICAQC6KoSUx/LhajSghF7rpb7/pdVgTHnxp2icfu56WY+e
lij8UFtViBdE5Y8EY7B1CCiVflKU1I7bjLOAJyBa683fpPEkncxup0wHVBr923c2
NZxWl9CBi51l9YLGO50cAbSJZALD/apFtmaGoaMvCBfifbpyha+td1jrVNSSzJl2
fq5TVRDRm/r4msLZxweEzn+jGCerjAsXnK63C0BJVwu2rPC0n6vfDYTAzYGBBXWZ
IUsQt5d5lHphMkeIW/kHDYCVtGSFVwcXRnKUklXQFZBSY4evXM+SA8xNK5Ls0LTa
cJ6fkUSQ/qCEZsyZXqpBFK+eIJ+rHKGUzhnU8/ToWPTjVJxQx+P+A/TB85If4E5F
MTul1xfrBwF3CTynZkdSU6k0GT8xY+x7mJsEa1IWfTTCfqFD5eqRXvGSZVLncVic
+SARbsvfPET6s1Z5uaWDzNv+pwtxsNK/l7ajjTrtdwHCv5ShF/DWrc/yN24B80gK
B3CuM+U7T6MTTJn2h3MpcwKbUhQjZZEdJSfGuu9tqbu/0o8hZCvLsFToVMpJJrVM
GALKRMsw1PEy+dt+iVxkO9Rgaa/M8n+ko2HZQccmh91bVdZSKmjnCXD1dyef+VUo
uEVC3uUJ0flX6kiiz1icOU6boSX46+Si/LV2qqiq9OWFOKNw6Zgw+4NG8mzlHrpK
WQIDAQABo4IBYzCCAV8wCQYDVR0TBAIwADAtBglghkgBhvhCAQ0EIBYeRWFzeS1S
U0EgR2VuZXJhdGVkIENlcnRpZmljYXRlMB0GA1UdDgQWBBQiLqb/NWkoj+Za83XT
q5TbCLWhkjCB4QYDVR0jBIHZMIHWgBQSzWAE0qCAnnDtxpm4eyzGUv0ZoaGBsqSB
rzCBrDELMAkGA1UEBhMCVVMxCzAJBgNVBAgTAk9IMREwDwYDVQQHEwhDb2x1bWJ1
czESMBAGA1UEChMJVmlraW5nVlBOMR0wGwYDVQQLExRNeU9yZ2FuaXphdGlvbmFs
VW5pdDEVMBMGA1UEAxMMVmlraW5nVlBOIENBMRAwDgYDVQQpEwdFYXN5UlNBMSEw
HwYJKoZIhvcNAQkBFhJtZUBteWhvc3QubXlkb21haW6CCQDPNYXugL8qPjATBgNV
HSUEDDAKBggrBgEFBQcDAjALBgNVHQ8EBAMCB4AwDQYJKoZIhvcNAQEEBQADggIB
AEqjSWgssFoxftld3EvwUjM/M8PCgyQu3ZG8IFmUJA2jJb/d/CxsaLdigkQDIXtc
vNCerCvHjy1PSctKeD/1XmOacvjCVQ+3biUoOpuozElah+QgHdGGZcXl/zmqgaN0
ObJ1oJa0QQymcAByt2YIGt0p8gxI6/n3blvLc6vVUMt1ws9EvWrBhr1LsNA6o0sB
KWcsZkdHrUtkm29XwKr7EiCi/YaoTvDYzQyjRlL2+qZhU8FSBFkE83BPrcH1870T
96ICiiNFRH3v335wdSXrLyskipCz6l022UhObhlRl2xYZHxEi050NxvWfJzKwnef
5dpB52p5Gq/zgeA6yZq9TebMqJ0gzuAGawfR1iufVMeDmjWL5c4KTOjl6SYs4sga
esPRp3wK2tBfx9pp3dBZpcjL1+OAX8qp0XRr5jHCjhTqDA7NZ23glEcyoIumAGv7
z/52FD7S7UDgnNIY2X2xxZ+YqkmUBKXX6G7Dx3KsLWurjMXz5OGgffZAuQ6KBuxv
1rUBTvivpf7gYbJpuhReyIKJ02cmHoSGO5XUn1YehRv3mKHtLs4b7TU7mjYZmqCk
DMDMTXlx3DUdQxikPs5cj2mAoIXBobs/acifmb+TuiqtdVY99MD7fzbdZeQ8mlDr
pO6ZVS3DUMJH6FDL9RyJyEJujNO/bosQ9G4BnYV2uMQo
-----END CERTIFICATE-----
