Certificate:
    Data:
        Version: 3 (0x2)
        Serial Number: 10525 (0x291d)
    Signature Algorithm: sha256WithRSAEncryption
        Issuer: C=US, ST=OH, L=Columbus, O=VikingVPN, OU=MyOrganizationalUnit, CN=VikingVPN CA/name=EasyRSA/emailAddress=me@myhost.mydomain
        Validity
            Not Before: Apr  3 18:33:39 2017 GMT
            Not After : Apr  1 18:33:39 2027 GMT
        Subject: CN=Client763Cert631af7
        Subject Public Key Info:
            Public Key Algorithm: rsaEncryption
                Public-Key: (4096 bit)
                Modulus:
                    00:d4:e9:6e:9a:ef:08:81:78:48:40:40:dd:a2:e0:
                    07:5d:10:1b:98:f9:65:15:fb:86:95:47:fd:f9:45:
                    0f:03:c4:2a:f9:2a:d8:5e:76:0f:6b:d1:8e:7c:bb:
                    1b:fe:8f:a6:22:47:d8:72:99:ff:a2:29:45:18:11:
                    48:9a:60:79:b3:03:da:32:09:29:94:69:67:14:90:
                    ef:fe:86:61:92:b5:88:93:50:aa:c4:d1:00:42:f5:
                    66:b0:12:0a:91:75:26:23:81:ca:d5:1d:47:75:70:
                    e2:de:44:3a:36:c4:a5:20:00:e5:e4:66:50:fc:1e:
                    90:72:3a:78:c8:f6:b9:26:d5:5c:0c:e2:64:24:4f:
                    86:bc:eb:bd:15:df:1d:39:51:36:4c:a1:6c:dd:df:
                    56:69:53:85:28:71:a8:30:e7:c1:08:7a:7d:df:cf:
                    4b:e3:b6:76:a2:fd:78:b9:9a:26:d9:9a:ac:bc:54:
                    32:db:5d:06:08:e2:91:2b:18:b7:3e:aa:0b:26:24:
                    cb:14:a6:e5:85:00:f2:bd:2b:21:af:5a:c2:e1:4a:
                    b2:86:13:c4:a9:75:71:82:c6:23:44:55:ca:e4:95:
                    b9:3d:3c:0e:ba:e1:b7:29:63:a8:2f:56:5c:e7:47:
                    66:6c:1c:70:20:b3:57:60:6a:e1:5a:e9:6a:b4:45:
                    6e:bb:e1:67:24:77:8a:5b:f7:91:24:06:31:67:76:
                    1b:32:c6:1a:81:ab:fd:77:80:2c:da:a4:f8:49:51:
                    03:d4:a4:02:b9:cd:77:5c:40:3d:bb:3d:8a:11:fb:
                    02:4a:2f:42:77:e1:78:44:f7:48:83:18:9a:9e:81:
                    05:67:54:8a:4b:67:07:f0:e0:47:46:18:2d:7b:41:
                    b4:87:3a:e3:15:bb:99:11:19:0f:f8:92:da:37:97:
                    c2:2d:36:d9:88:10:43:fc:78:f5:ab:8c:f8:22:43:
                    6a:80:29:45:7b:5d:51:5c:b1:5e:b7:e6:21:e0:78:
                    70:ae:a9:fe:ab:89:30:2a:dc:bd:5b:3d:10:75:92:
                    21:88:6d:e9:b8:2c:1b:17:87:72:3e:cc:6f:25:eb:
                    16:e1:72:81:81:43:11:13:b3:06:ab:4d:98:71:cb:
                    c8:44:53:b0:8e:c2:cd:47:1c:2a:d8:a1:b3:46:a5:
                    73:d3:c1:07:e7:7b:4d:ac:db:d1:ba:96:cc:8e:ba:
                    52:40:9d:52:43:16:8a:64:e3:f3:ec:51:9d:ac:03:
                    d1:ae:68:80:0a:54:31:6d:5e:2e:9c:c9:8a:59:a3:
                    d0:d4:29:fe:12:05:cb:70:7b:3a:d0:c9:a0:fd:7e:
                    93:78:61:91:6a:2b:15:2e:17:b7:52:ee:8b:f0:16:
                    eb:f3:63
                Exponent: 65537 (0x10001)
        X509v3 extensions:
            X509v3 Basic Constraints: 
                CA:FALSE
            Netscape Comment: 
                Easy-RSA Generated Certificate
            X509v3 Subject Key Identifier: 
                6E:2B:BE:AB:C5:F4:D1:E9:CC:9F:A0:54:96:FE:D3:BF:40:7E:09:E9
            X509v3 Authority Key Identifier: 
                keyid:12:CD:60:04:D2:A0:80:9E:70:ED:C6:99:B8:7B:2C:C6:52:FD:19:A1
                DirName:/C=US/ST=OH/L=Columbus/O=VikingVPN/OU=MyOrganizationalUnit/CN=VikingVPN CA/name=EasyRSA/emailAddress=me@myhost.mydomain
                serial:CF:35:85:EE:80:BF:2A:3E

            X509v3 Extended Key Usage: 
                TLS Web Client Authentication
            X509v3 Key Usage: 
                Digital Signature
    Signature Algorithm: sha256WithRSAEncryption
         29:6d:9a:6a:4f:6c:1b:03:55:60:37:47:ad:dd:8c:62:a0:13:
         22:0c:6b:11:b3:95:ef:57:a4:13:0c:75:02:5c:7b:d8:21:d5:
         93:3c:a0:d8:21:a5:c7:53:f5:3a:41:ca:38:82:c3:07:cd:c0:
         ee:d0:83:9e:ef:07:d5:07:3f:d6:b5:a1:af:a8:0f:11:b4:2f:
         cf:c2:f9:4c:a5:6f:27:60:dd:c9:55:04:27:1f:8e:f1:96:e0:
         23:c6:85:e0:60:33:1a:3f:03:21:fb:ad:ff:79:03:26:8d:e1:
         5f:11:23:0b:88:ef:5b:a6:97:bb:71:3e:16:4e:0d:03:3f:06:
         40:5b:3f:43:28:b4:c6:85:6c:2f:f4:b0:04:97:1e:25:11:4e:
         79:ff:d3:31:fa:df:a6:fc:1c:56:d7:32:f2:3e:4f:54:cb:b3:
         cc:e2:04:e5:a1:77:90:e0:af:e2:93:f9:28:cf:b2:58:93:2d:
         17:89:b4:80:68:dd:25:9d:ae:b4:93:de:89:bc:96:7f:28:5a:
         76:f3:0a:9c:49:7f:a4:a5:ef:76:2b:42:12:32:1a:13:45:89:
         76:1c:fb:a7:84:24:7d:9d:89:0a:72:14:76:46:f8:a6:80:e7:
         44:6b:9f:ca:4c:6f:b3:8b:c3:ba:a0:73:1b:a4:ce:fe:64:3b:
         d4:56:b9:1b:36:b2:f2:6a:b5:d0:5f:77:fd:04:8d:37:32:46:
         a9:dd:3d:87:1a:60:75:c2:8f:dd:cf:5a:d8:da:af:09:b5:46:
         8a:73:6e:83:7d:91:15:3d:a7:10:39:78:68:ca:cb:c7:99:fa:
         9f:95:77:12:24:0c:6f:f7:24:91:68:9a:d4:57:d0:54:f2:83:
         8d:a6:ac:93:3d:8a:a9:d6:b7:a8:21:fc:83:a0:1b:b5:a7:3c:
         8a:84:6f:69:ab:b1:90:2b:4a:50:10:e6:0d:c5:00:25:f0:cb:
         00:9c:b1:f3:f9:39:d9:64:79:59:95:9c:c5:3a:16:a0:74:76:
         fa:d9:fa:55:fa:23:af:fd:ca:af:aa:f3:2a:3b:5c:de:87:99:
         57:72:7c:98:b1:80:90:d7:23:da:63:63:80:34:3c:80:f7:b6:
         e6:92:c2:1d:c4:c4:98:76:6c:24:5d:d7:ab:70:5e:76:6e:4b:
         40:78:bb:f8:b5:1e:dd:66:9a:fd:a0:a2:81:e7:37:f5:72:7d:
         3d:53:23:fc:6a:4a:9c:ef:4a:b9:03:19:96:9d:d1:95:ab:cc:
         7b:e3:29:80:78:20:55:5f:94:97:d4:68:39:2c:e5:05:39:8a:
         a1:4f:fa:64:81:ea:db:93:f3:71:4f:25:b1:84:e6:67:e7:54:
         58:a6:30:bb:80:8c:ef:5f
-----BEGIN CERTIFICATE-----
MIIGrDCCBJSgAwIBAgICKR0wDQYJKoZIhvcNAQELBQAwgawxCzAJBgNVBAYTAlVT
MQswCQYDVQQIEwJPSDERMA8GA1UEBxMIQ29sdW1idXMxEjAQBgNVBAoTCVZpa2lu
Z1ZQTjEdMBsGA1UECxMUTXlPcmdhbml6YXRpb25hbFVuaXQxFTATBgNVBAMTDFZp
a2luZ1ZQTiBDQTEQMA4GA1UEKRMHRWFzeVJTQTEhMB8GCSqGSIb3DQEJARYSbWVA
bXlob3N0Lm15ZG9tYWluMB4XDTE3MDQwMzE4MzMzOVoXDTI3MDQwMTE4MzMzOVow
HjEcMBoGA1UEAxMTQ2xpZW50NzYzQ2VydDYzMWFmNzCCAiIwDQYJKoZIhvcNAQEB
BQADggIPADCCAgoCggIBANTpbprvCIF4SEBA3aLgB10QG5j5ZRX7hpVH/flFDwPE
Kvkq2F52D2vRjny7G/6PpiJH2HKZ/6IpRRgRSJpgebMD2jIJKZRpZxSQ7/6GYZK1
iJNQqsTRAEL1ZrASCpF1JiOBytUdR3Vw4t5EOjbEpSAA5eRmUPwekHI6eMj2uSbV
XAziZCRPhrzrvRXfHTlRNkyhbN3fVmlThShxqDDnwQh6fd/PS+O2dqL9eLmaJtma
rLxUMttdBgjikSsYtz6qCyYkyxSm5YUA8r0rIa9awuFKsoYTxKl1cYLGI0RVyuSV
uT08DrrhtyljqC9WXOdHZmwccCCzV2Bq4VrparRFbrvhZyR3ilv3kSQGMWd2GzLG
GoGr/XeALNqk+ElRA9SkArnNd1xAPbs9ihH7AkovQnfheET3SIMYmp6BBWdUiktn
B/DgR0YYLXtBtIc64xW7mREZD/iS2jeXwi022YgQQ/x49auM+CJDaoApRXtdUVyx
XrfmIeB4cK6p/quJMCrcvVs9EHWSIYht6bgsGxeHcj7MbyXrFuFygYFDEROzBqtN
mHHLyERTsI7CzUccKtihs0alc9PBB+d7Tazb0bqWzI66UkCdUkMWimTj8+xRnawD
0a5ogApUMW1eLpzJilmj0NQp/hIFy3B7OtDJoP1+k3hhkWorFS4Xt1Lui/AW6/Nj
AgMBAAGjggFjMIIBXzAJBgNVHRMEAjAAMC0GCWCGSAGG+EIBDQQgFh5FYXN5LVJT
QSBHZW5lcmF0ZWQgQ2VydGlmaWNhdGUwHQYDVR0OBBYEFG4rvqvF9NHpzJ+gVJb+
079AfgnpMIHhBgNVHSMEgdkwgdaAFBLNYATSoICecO3Gmbh7LMZS/RmhoYGypIGv
MIGsMQswCQYDVQQGEwJVUzELMAkGA1UECBMCT0gxETAPBgNVBAcTCENvbHVtYnVz
MRIwEAYDVQQKEwlWaWtpbmdWUE4xHTAbBgNVBAsTFE15T3JnYW5pemF0aW9uYWxV
bml0MRUwEwYDVQQDEwxWaWtpbmdWUE4gQ0ExEDAOBgNVBCkTB0Vhc3lSU0ExITAf
BgkqhkiG9w0BCQEWEm1lQG15aG9zdC5teWRvbWFpboIJAM81he6Avyo+MBMGA1Ud
JQQMMAoGCCsGAQUFBwMCMAsGA1UdDwQEAwIHgDANBgkqhkiG9w0BAQsFAAOCAgEA
KW2aak9sGwNVYDdHrd2MYqATIgxrEbOV71ekEwx1Alx72CHVkzyg2CGlx1P1OkHK
OILDB83A7tCDnu8H1Qc/1rWhr6gPEbQvz8L5TKVvJ2DdyVUEJx+O8ZbgI8aF4GAz
Gj8DIfut/3kDJo3hXxEjC4jvW6aXu3E+Fk4NAz8GQFs/Qyi0xoVsL/SwBJceJRFO
ef/TMfrfpvwcVtcy8j5PVMuzzOIE5aF3kOCv4pP5KM+yWJMtF4m0gGjdJZ2utJPe
ibyWfyhadvMKnEl/pKXvditCEjIaE0WJdhz7p4QkfZ2JCnIUdkb4poDnRGufykxv
s4vDuqBzG6TO/mQ71Fa5Gzay8mq10F93/QSNNzJGqd09hxpgdcKP3c9a2NqvCbVG
inNug32RFT2nEDl4aMrLx5n6n5V3EiQMb/ckkWia1FfQVPKDjaaskz2Kqda3qCH8
g6Abtac8ioRvaauxkCtKUBDmDcUAJfDLAJyx8/k52WR5WZWcxToWoHR2+tn6Vfoj
r/3Kr6rzKjtc3oeZV3J8mLGAkNcj2mNjgDQ8gPe25pLCHcTEmHZsJF3Xq3Bedm5L
QHi7+LUe3Waa/aCigec39XJ9PVMj/GpKnO9KuQMZlp3RlavMe+MpgHggVV+Ul9Ro
OSzlBTmKoU/6ZIHq25PzcU8lsYTmZ+dUWKYwu4CM718=
-----END CERTIFICATE-----
