Certificate:
    Data:
        Version: 3 (0x2)
        Serial Number: 5519 (0x158f)
    Signature Algorithm: md5WithRSAEncryption
        Issuer: C=US, ST=OH, L=Columbus, O=VikingVPN, OU=MyOrganizationalUnit, CN=VikingVPN CA/name=EasyRSA/emailAddress=me@myhost.mydomain
        Validity
            Not Before: Jun  9 19:49:31 2015 GMT
            Not After : Jun  6 19:49:31 2025 GMT
        Subject: CN=Client494Certed2c19
        Subject Public Key Info:
            Public Key Algorithm: rsaEncryption
                Public-Key: (4096 bit)
                Modulus:
                    00:da:f1:92:9d:8d:7b:51:0f:57:a5:94:4d:3f:65:
                    62:2d:28:c7:99:6a:05:29:b5:92:92:98:47:70:e6:
                    f2:47:f7:ca:d4:d1:aa:0a:48:6f:d2:a5:20:07:1f:
                    73:43:1a:47:1a:b5:77:5b:16:ca:a5:e1:21:20:aa:
                    d5:6f:12:ca:6d:f5:73:a2:bb:63:c0:f5:85:b1:13:
                    64:ea:e1:e0:09:da:5b:8f:12:17:48:7d:4e:e2:78:
                    23:10:d6:61:e7:23:76:f4:5e:d1:24:db:40:04:88:
                    2e:2c:e2:58:20:50:9a:0b:e9:d0:1f:2f:c9:f4:14:
                    aa:e6:dd:63:e1:3a:fb:8a:37:f1:de:64:5f:62:58:
                    00:0e:72:7c:73:f8:26:5a:82:fb:f0:e9:a4:39:f7:
                    d0:f6:bf:1f:2e:51:04:f2:9e:9c:58:72:83:08:40:
                    52:7e:cb:ad:73:53:be:4e:29:c2:0e:29:97:35:f2:
                    6f:a7:f8:fd:0d:6f:3c:ca:91:81:37:67:ff:23:02:
                    f7:8a:23:a7:6d:ee:05:40:76:c9:fc:0e:11:02:e0:
                    38:c8:f3:8f:b9:56:73:01:83:e9:8b:98:e2:a1:16:
                    e7:ed:e3:ba:72:63:ea:f1:fa:93:d4:9f:03:fc:34:
                    06:55:2f:35:7f:9b:92:5c:90:df:ae:90:39:3f:cc:
                    87:89:93:49:1f:24:6b:0a:d3:c9:e3:de:ce:0e:5e:
                    db:e1:12:3f:62:5d:e9:2d:ef:fb:40:a2:f9:78:9b:
                    6e:98:93:3c:4d:e4:0c:00:d7:28:c4:a8:8e:55:04:
                    71:b4:b5:e2:d4:c8:a5:5d:da:73:d9:dc:19:50:04:
                    9d:52:c0:88:28:e4:17:86:b5:3a:86:f5:3d:1b:51:
                    28:c0:2e:25:b3:a0:45:8f:92:bc:63:58:6a:85:ad:
                    85:82:ab:48:84:f4:7d:0a:b7:f8:84:de:3b:fd:e4:
                    0d:74:26:34:21:43:ae:e8:23:db:c5:9c:3d:6b:b8:
                    48:6f:c1:b0:dc:a7:07:5d:2d:86:21:b5:2d:bb:fb:
                    29:5c:20:42:9a:3b:c9:4c:34:4d:b0:7b:0b:11:c5:
                    bd:ac:6f:9f:17:76:d4:a5:a1:d9:bf:78:54:42:0f:
                    05:f8:87:66:b4:d8:b1:ca:22:04:3b:21:79:81:df:
                    02:6e:f2:c9:d9:c9:50:16:08:ad:b8:76:c2:98:8b:
                    82:51:66:99:8c:fd:49:9c:1c:84:5d:e6:20:5f:34:
                    b7:fe:c3:c4:10:26:0a:8b:5e:dc:4c:49:a0:cb:15:
                    97:ba:5d:16:73:e6:40:59:89:3e:9f:98:ef:3d:4c:
                    d9:3e:83:4a:56:f9:10:62:f8:79:4e:3a:42:ba:d9:
                    79:9b:0d
                Exponent: 65537 (0x10001)
        X509v3 extensions:
            X509v3 Basic Constraints: 
                CA:FALSE
            Netscape Comment: 
                Easy-RSA Generated Certificate
            X509v3 Subject Key Identifier: 
                EE:AB:81:63:5C:2E:77:EE:1B:00:E8:43:1A:6B:35:7C:53:12:3B:5D
            X509v3 Authority Key Identifier: 
                keyid:12:CD:60:04:D2:A0:80:9E:70:ED:C6:99:B8:7B:2C:C6:52:FD:19:A1
                DirName:/C=US/ST=OH/L=Columbus/O=VikingVPN/OU=MyOrganizationalUnit/CN=VikingVPN CA/name=EasyRSA/emailAddress=me@myhost.mydomain
                serial:CF:35:85:EE:80:BF:2A:3E

            X509v3 Extended Key Usage: 
                TLS Web Client Authentication
            X509v3 Key Usage: 
                Digital Signature
    Signature Algorithm: md5WithRSAEncryption
         dc:2c:dc:0e:9d:cb:86:3e:da:99:cb:61:2b:d5:94:77:05:14:
         74:8b:6c:8d:ec:46:7d:ab:89:55:d4:1c:96:42:09:db:3b:b5:
         03:74:63:83:ef:83:86:dc:32:fe:dc:bf:ac:8e:fa:0c:b8:97:
         d9:93:69:3d:6e:5d:35:2f:dd:9a:82:80:61:3f:9a:0c:c7:5b:
         b8:12:fa:a2:4f:a7:3e:34:a7:6d:7e:0e:db:a6:59:b1:a6:dc:
         b5:b7:e1:1b:33:f4:95:de:6a:27:04:b7:17:66:4b:1e:ce:53:
         23:9d:27:b8:07:61:99:3d:f4:b1:02:d4:46:ee:a3:26:b3:d3:
         58:fe:c8:3b:45:36:1a:95:39:d8:a9:48:6a:ff:60:59:67:ff:
         95:ad:00:6b:86:1b:7b:b8:00:83:8d:65:2e:b0:6e:f1:11:db:
         f6:34:e7:52:e5:6e:69:ff:4d:99:77:0f:6f:74:74:f0:b2:44:
         e5:5d:7d:55:fd:6a:c5:1b:1c:15:56:fe:80:a2:ef:c8:e2:9c:
         29:4c:45:4b:d8:d8:b8:35:8d:cd:d8:9e:08:cf:cb:0c:d6:8f:
         62:98:db:93:2b:60:d8:2d:b9:cd:69:12:1d:90:02:55:ca:81:
         e8:cc:9f:99:75:43:3b:8b:4b:37:17:cc:3b:27:76:a3:58:22:
         8d:f7:6e:43:91:45:90:1c:7d:2d:7e:26:fd:90:ad:61:07:c0:
         70:e2:2d:45:b7:55:60:a6:e8:83:90:ae:09:2c:35:72:26:a7:
         b3:bc:f6:13:3f:b7:35:a7:d3:3c:e1:23:7a:06:39:98:52:c1:
         d0:53:ec:02:49:7f:7f:27:a8:74:8c:6a:40:47:c1:1d:6e:47:
         24:27:99:4c:c0:cd:d0:6b:1c:9a:8f:91:91:eb:03:2c:e1:cc:
         34:65:f4:9f:bd:1b:ac:3b:4e:9b:86:66:91:74:f6:21:33:b6:
         5a:26:ae:b4:91:a3:78:99:6f:43:02:b7:e0:6f:90:fa:54:92:
         80:ba:e5:d1:52:c0:17:bf:f2:3c:48:c0:ca:61:eb:33:01:cd:
         8e:1f:91:c7:5a:91:e3:d5:c2:47:0f:6b:2b:fe:d1:4c:d2:3b:
         11:3b:c7:51:dc:b9:94:45:69:f7:d1:2a:55:9d:e0:37:20:fd:
         35:ee:e8:43:26:ca:25:03:6a:bf:65:ee:d7:21:38:8f:33:35:
         98:83:1c:23:8d:51:68:ca:78:4f:8c:4c:97:7d:7f:67:9b:da:
         8f:3e:55:fb:07:7f:8a:81:63:c4:24:8b:2a:c3:2a:b3:03:b4:
         31:f2:7c:a2:2d:81:63:0c:1c:8c:5c:52:c8:83:74:7a:31:53:
         0e:55:ce:22:3b:5a:97:c0
-----BEGIN CERTIFICATE-----
MIIGrDCCBJSgAwIBAgICFY8wDQYJKoZIhvcNAQEEBQAwgawxCzAJBgNVBAYTAlVT
MQswCQYDVQQIEwJPSDERMA8GA1UEBxMIQ29sdW1idXMxEjAQBgNVBAoTCVZpa2lu
Z1ZQTjEdMBsGA1UECxMUTXlPcmdhbml6YXRpb25hbFVuaXQxFTATBgNVBAMTDFZp
a2luZ1ZQTiBDQTEQMA4GA1UEKRMHRWFzeVJTQTEhMB8GCSqGSIb3DQEJARYSbWVA
bXlob3N0Lm15ZG9tYWluMB4XDTE1MDYwOTE5NDkzMVoXDTI1MDYwNjE5NDkzMVow
HjEcMBoGA1UEAxMTQ2xpZW50NDk0Q2VydGVkMmMxOTCCAiIwDQYJKoZIhvcNAQEB
BQADggIPADCCAgoCggIBANrxkp2Ne1EPV6WUTT9lYi0ox5lqBSm1kpKYR3Dm8kf3
ytTRqgpIb9KlIAcfc0MaRxq1d1sWyqXhISCq1W8Sym31c6K7Y8D1hbETZOrh4Ana
W48SF0h9TuJ4IxDWYecjdvRe0STbQASILiziWCBQmgvp0B8vyfQUqubdY+E6+4o3
8d5kX2JYAA5yfHP4JlqC+/DppDn30Pa/Hy5RBPKenFhygwhAUn7LrXNTvk4pwg4p
lzXyb6f4/Q1vPMqRgTdn/yMC94ojp23uBUB2yfwOEQLgOMjzj7lWcwGD6YuY4qEW
5+3junJj6vH6k9SfA/w0BlUvNX+bklyQ366QOT/Mh4mTSR8kawrTyePezg5e2+ES
P2Jd6S3v+0Ci+XibbpiTPE3kDADXKMSojlUEcbS14tTIpV3ac9ncGVAEnVLAiCjk
F4a1Oob1PRtRKMAuJbOgRY+SvGNYaoWthYKrSIT0fQq3+ITeO/3kDXQmNCFDrugj
28WcPWu4SG/BsNynB10thiG1Lbv7KVwgQpo7yUw0TbB7CxHFvaxvnxd21KWh2b94
VEIPBfiHZrTYscoiBDsheYHfAm7yydnJUBYIrbh2wpiLglFmmYz9SZwchF3mIF80
t/7DxBAmCote3ExJoMsVl7pdFnPmQFmJPp+Y7z1M2T6DSlb5EGL4eU46QrrZeZsN
AgMBAAGjggFjMIIBXzAJBgNVHRMEAjAAMC0GCWCGSAGG+EIBDQQgFh5FYXN5LVJT
QSBHZW5lcmF0ZWQgQ2VydGlmaWNhdGUwHQYDVR0OBBYEFO6rgWNcLnfuGwDoQxpr
NXxTEjtdMIHhBgNVHSMEgdkwgdaAFBLNYATSoICecO3Gmbh7LMZS/RmhoYGypIGv
MIGsMQswCQYDVQQGEwJVUzELMAkGA1UECBMCT0gxETAPBgNVBAcTCENvbHVtYnVz
MRIwEAYDVQQKEwlWaWtpbmdWUE4xHTAbBgNVBAsTFE15T3JnYW5pemF0aW9uYWxV
bml0MRUwEwYDVQQDEwxWaWtpbmdWUE4gQ0ExEDAOBgNVBCkTB0Vhc3lSU0ExITAf
BgkqhkiG9w0BCQEWEm1lQG15aG9zdC5teWRvbWFpboIJAM81he6Avyo+MBMGA1Ud
JQQMMAoGCCsGAQUFBwMCMAsGA1UdDwQEAwIHgDANBgkqhkiG9w0BAQQFAAOCAgEA
3CzcDp3Lhj7amcthK9WUdwUUdItsjexGfauJVdQclkIJ2zu1A3Rjg++Dhtwy/ty/
rI76DLiX2ZNpPW5dNS/dmoKAYT+aDMdbuBL6ok+nPjSnbX4O26ZZsabctbfhGzP0
ld5qJwS3F2ZLHs5TI50nuAdhmT30sQLURu6jJrPTWP7IO0U2GpU52KlIav9gWWf/
la0Aa4Ybe7gAg41lLrBu8RHb9jTnUuVuaf9NmXcPb3R08LJE5V19Vf1qxRscFVb+
gKLvyOKcKUxFS9jYuDWNzdieCM/LDNaPYpjbkytg2C25zWkSHZACVcqB6MyfmXVD
O4tLNxfMOyd2o1gijfduQ5FFkBx9LX4m/ZCtYQfAcOItRbdVYKbog5CuCSw1cian
s7z2Ez+3NafTPOEjegY5mFLB0FPsAkl/fyeodIxqQEfBHW5HJCeZTMDN0Gscmo+R
kesDLOHMNGX0n70brDtOm4ZmkXT2ITO2WiautJGjeJlvQwK34G+Q+lSSgLrl0VLA
F7/yPEjAymHrMwHNjh+Rx1qR49XCRw9rK/7RTNI7ETvHUdy5lEVp99EqVZ3gNyD9
Ne7oQybKJQNqv2Xu1yE4jzM1mIMcI41RaMp4T4xMl31/Z5vajz5V+wd/ioFjxCSL
KsMqswO0MfJ8oi2BYwwcjFxSyIN0ejFTDlXOIjtal8A=
-----END CERTIFICATE-----
