Certificate:
    Data:
        Version: 3 (0x2)
        Serial Number: 8188 (0x1ffc)
    Signature Algorithm: md5WithRSAEncryption
        Issuer: C=US, ST=OH, L=Columbus, O=VikingVPN, OU=MyOrganizationalUnit, CN=VikingVPN CA/name=EasyRSA/emailAddress=me@myhost.mydomain
        Validity
            Not Before: Jun  6 11:06:41 2016 GMT
            Not After : Jun  4 11:06:41 2026 GMT
        Subject: CN=Client1702Cert531502
        Subject Public Key Info:
            Public Key Algorithm: rsaEncryption
                Public-Key: (4096 bit)
                Modulus:
                    00:ad:4e:72:ca:72:3d:fb:07:9e:96:68:ca:35:c4:
                    c1:bc:96:9f:0e:84:74:32:8b:77:cf:d0:4a:9a:03:
                    45:b2:3d:00:fd:d5:81:3a:8c:ec:81:3a:8a:d5:d4:
                    fe:9d:3e:23:29:98:2a:4b:af:e6:35:52:56:53:3a:
                    cd:e0:19:9c:02:2b:f0:4b:bb:a8:76:7f:a1:a1:18:
                    12:08:22:7d:3f:24:27:52:6e:5a:77:38:76:88:7f:
                    cc:9c:e9:76:b9:de:a8:76:05:94:1a:49:dd:b1:cc:
                    a3:41:66:bd:b7:c8:8a:66:8a:c7:80:e2:c3:cb:70:
                    2c:a4:66:44:0f:ed:b6:fe:5f:77:55:97:00:8a:95:
                    d8:84:d5:f0:f5:05:be:67:94:74:e7:91:1b:bc:6b:
                    ee:72:54:78:13:a6:b2:b6:0f:f6:d6:92:10:59:4e:
                    cc:2e:54:bc:6a:7d:12:59:c6:69:f1:1d:de:91:1d:
                    82:0a:4c:f8:f4:07:29:df:c2:29:67:57:3b:af:01:
                    85:8f:74:f0:c8:d9:e4:23:6e:3f:07:74:f8:31:51:
                    ac:2d:3a:ce:82:24:d9:6d:a7:4c:f0:21:39:46:b9:
                    03:5d:a2:b0:cb:23:e0:36:6f:a3:d5:21:05:c7:07:
                    e4:1c:23:1c:8a:15:9b:ee:99:4e:b8:99:4b:37:e2:
                    b9:76:00:2b:9a:48:16:1a:9a:9a:76:cd:13:96:6e:
                    38:dc:9b:0a:f9:5b:c0:a6:a5:60:32:0a:91:60:56:
                    af:77:d7:49:86:0b:02:f0:e3:a4:06:55:50:4c:ca:
                    be:17:ad:cc:62:da:41:ba:1a:7f:9a:92:fc:5c:8c:
                    65:51:01:45:77:71:db:19:87:15:43:29:df:ca:25:
                    0b:26:e4:20:e1:9b:0e:44:22:a3:12:08:f4:ee:2a:
                    12:68:2b:f2:91:90:c8:af:78:c0:b8:2f:1b:1e:fe:
                    fb:86:80:ff:13:50:52:1b:d5:17:89:b2:e7:bb:2a:
                    46:7f:d0:e9:f5:53:7c:0a:60:76:3e:5a:57:01:8d:
                    e9:bc:2d:95:e5:6c:62:d4:2d:e9:3a:b0:12:73:1b:
                    b9:25:d9:7f:88:d5:2b:29:f3:8d:22:4a:8e:b8:49:
                    fd:40:2f:51:5c:df:f7:81:a8:a2:c7:29:d8:28:ff:
                    e5:45:c2:30:4d:db:90:5f:fd:9e:f2:4f:8b:25:fd:
                    73:86:01:17:df:e1:a5:35:28:89:38:e8:9e:10:57:
                    ea:2a:34:56:57:b2:a1:77:ff:20:ec:1f:6e:c8:ba:
                    d2:97:56:ac:40:a0:40:53:ba:17:4b:ba:61:9c:12:
                    35:6e:fa:40:92:4b:33:2a:38:31:fb:55:c7:fe:02:
                    b1:1c:01
                Exponent: 65537 (0x10001)
        X509v3 extensions:
            X509v3 Basic Constraints: 
                CA:FALSE
            Netscape Comment: 
                Easy-RSA Generated Certificate
            X509v3 Subject Key Identifier: 
                CD:41:FC:02:2E:17:85:F3:D8:BD:78:07:7D:F4:E1:25:44:DA:30:DA
            X509v3 Authority Key Identifier: 
                keyid:12:CD:60:04:D2:A0:80:9E:70:ED:C6:99:B8:7B:2C:C6:52:FD:19:A1
                DirName:/C=US/ST=OH/L=Columbus/O=VikingVPN/OU=MyOrganizationalUnit/CN=VikingVPN CA/name=EasyRSA/emailAddress=me@myhost.mydomain
                serial:CF:35:85:EE:80:BF:2A:3E

            X509v3 Extended Key Usage: 
                TLS Web Client Authentication
            X509v3 Key Usage: 
                Digital Signature
    Signature Algorithm: md5WithRSAEncryption
         3e:d6:e3:93:3b:f6:53:97:84:6e:81:0c:ab:f1:3e:f7:91:b1:
         02:65:16:bc:b3:92:62:34:19:8e:f1:3c:6c:6c:17:f7:a5:54:
         3b:96:57:38:44:f6:a3:c8:39:69:d0:dc:6b:28:ce:9d:69:a4:
         7c:4d:60:00:f3:7e:6c:51:23:e5:78:06:f8:ec:7f:e4:d7:2a:
         ad:d8:82:1a:27:4d:37:12:22:dc:98:de:e0:7c:79:27:17:60:
         1c:37:f9:f0:07:91:e7:b9:62:30:56:5d:c2:5c:f5:e1:30:6c:
         9a:fd:49:fe:8d:1c:b1:a6:d5:da:d0:32:0f:e0:d1:3c:79:86:
         59:84:2a:f6:3b:29:d2:58:23:52:4c:6d:8e:f9:0d:d6:16:3d:
         d3:91:7c:a6:d9:6f:0e:20:82:4e:25:17:65:1c:18:22:2f:52:
         16:37:8a:ed:56:29:3c:68:f1:61:c2:7b:55:b4:42:e7:c2:7c:
         d5:68:2d:31:5c:60:f2:36:d3:c0:4a:1f:1a:61:50:ca:3e:97:
         0d:cf:a7:c4:80:86:9e:61:2b:6d:4d:b3:b9:c4:79:09:d7:fe:
         fb:7d:cb:75:9f:05:75:d7:76:08:40:bc:47:0f:9f:d9:81:7e:
         b4:df:2b:22:4b:90:ee:a7:a0:13:64:f5:cb:6e:e8:48:b2:b2:
         35:1b:5a:07:e0:c0:ec:8b:b2:e2:66:43:91:b9:64:ef:d0:7a:
         3b:8b:a4:88:0c:ca:47:61:32:d6:01:c1:a0:83:2a:89:d2:a2:
         e4:b6:5d:83:7f:a8:4a:e1:44:66:89:b1:59:76:62:b1:42:cd:
         ba:08:ef:1c:d2:f2:43:b0:33:b9:fa:94:4e:25:41:62:ed:63:
         2d:76:02:fc:43:ba:3a:46:c2:89:dc:3f:4a:18:dd:f1:87:46:
         b8:18:f7:a8:2a:a8:31:df:74:37:ec:42:f8:ac:32:f1:d5:88:
         1e:14:23:b4:78:e3:bb:84:e9:fa:8d:c5:f8:c4:3f:bc:fe:dc:
         0e:e8:cf:05:1a:3f:65:7b:e3:a0:5e:f2:5a:cd:cb:43:ef:b4:
         0c:34:28:f9:7a:e9:e3:bc:2e:e5:7a:e8:5e:f5:99:de:2d:f0:
         e7:de:0e:34:8a:40:0d:39:ad:ea:78:7a:04:72:ba:d6:00:20:
         90:99:11:91:67:0c:d6:cd:ec:4c:29:4f:90:89:65:5b:63:db:
         83:e7:80:6f:26:d2:ed:0a:a1:a1:40:80:e7:23:f4:26:a3:fb:
         6e:a6:d6:d5:31:f5:2a:3d:5b:8c:ca:22:9d:00:32:bc:da:99:
         95:64:c5:e4:2b:78:18:8d:24:07:ee:dd:a3:32:3a:56:36:95:
         6f:d2:a3:b2:d9:e2:19:48
-----BEGIN CERTIFICATE-----
MIIGrTCCBJWgAwIBAgICH/wwDQYJKoZIhvcNAQEEBQAwgawxCzAJBgNVBAYTAlVT
MQswCQYDVQQIEwJPSDERMA8GA1UEBxMIQ29sdW1idXMxEjAQBgNVBAoTCVZpa2lu
Z1ZQTjEdMBsGA1UECxMUTXlPcmdhbml6YXRpb25hbFVuaXQxFTATBgNVBAMTDFZp
a2luZ1ZQTiBDQTEQMA4GA1UEKRMHRWFzeVJTQTEhMB8GCSqGSIb3DQEJARYSbWVA
bXlob3N0Lm15ZG9tYWluMB4XDTE2MDYwNjExMDY0MVoXDTI2MDYwNDExMDY0MVow
HzEdMBsGA1UEAxMUQ2xpZW50MTcwMkNlcnQ1MzE1MDIwggIiMA0GCSqGSIb3DQEB
AQUAA4ICDwAwggIKAoICAQCtTnLKcj37B56WaMo1xMG8lp8OhHQyi3fP0EqaA0Wy
PQD91YE6jOyBOorV1P6dPiMpmCpLr+Y1UlZTOs3gGZwCK/BLu6h2f6GhGBIIIn0/
JCdSblp3OHaIf8yc6Xa53qh2BZQaSd2xzKNBZr23yIpmiseA4sPLcCykZkQP7bb+
X3dVlwCKldiE1fD1Bb5nlHTnkRu8a+5yVHgTprK2D/bWkhBZTswuVLxqfRJZxmnx
Hd6RHYIKTPj0BynfwilnVzuvAYWPdPDI2eQjbj8HdPgxUawtOs6CJNltp0zwITlG
uQNdorDLI+A2b6PVIQXHB+QcIxyKFZvumU64mUs34rl2ACuaSBYampp2zROWbjjc
mwr5W8CmpWAyCpFgVq9310mGCwLw46QGVVBMyr4Xrcxi2kG6Gn+akvxcjGVRAUV3
cdsZhxVDKd/KJQsm5CDhmw5EIqMSCPTuKhJoK/KRkMiveMC4Lxse/vuGgP8TUFIb
1ReJsue7KkZ/0On1U3wKYHY+WlcBjem8LZXlbGLULek6sBJzG7kl2X+I1Ssp840i
So64Sf1AL1Fc3/eBqKLHKdgo/+VFwjBN25Bf/Z7yT4sl/XOGARff4aU1KIk46J4Q
V+oqNFZXsqF3/yDsH27IutKXVqxAoEBTuhdLumGcEjVu+kCSSzMqODH7Vcf+ArEc
AQIDAQABo4IBYzCCAV8wCQYDVR0TBAIwADAtBglghkgBhvhCAQ0EIBYeRWFzeS1S
U0EgR2VuZXJhdGVkIENlcnRpZmljYXRlMB0GA1UdDgQWBBTNQfwCLheF89i9eAd9
9OElRNow2jCB4QYDVR0jBIHZMIHWgBQSzWAE0qCAnnDtxpm4eyzGUv0ZoaGBsqSB
rzCBrDELMAkGA1UEBhMCVVMxCzAJBgNVBAgTAk9IMREwDwYDVQQHEwhDb2x1bWJ1
czESMBAGA1UEChMJVmlraW5nVlBOMR0wGwYDVQQLExRNeU9yZ2FuaXphdGlvbmFs
VW5pdDEVMBMGA1UEAxMMVmlraW5nVlBOIENBMRAwDgYDVQQpEwdFYXN5UlNBMSEw
HwYJKoZIhvcNAQkBFhJtZUBteWhvc3QubXlkb21haW6CCQDPNYXugL8qPjATBgNV
HSUEDDAKBggrBgEFBQcDAjALBgNVHQ8EBAMCB4AwDQYJKoZIhvcNAQEEBQADggIB
AD7W45M79lOXhG6BDKvxPveRsQJlFryzkmI0GY7xPGxsF/elVDuWVzhE9qPIOWnQ
3Gsozp1ppHxNYADzfmxRI+V4Bvjsf+TXKq3YghonTTcSItyY3uB8eScXYBw3+fAH
kee5YjBWXcJc9eEwbJr9Sf6NHLGm1drQMg/g0Tx5hlmEKvY7KdJYI1JMbY75DdYW
PdORfKbZbw4ggk4lF2UcGCIvUhY3iu1WKTxo8WHCe1W0QufCfNVoLTFcYPI208BK
HxphUMo+lw3Pp8SAhp5hK21Ns7nEeQnX/vt9y3WfBXXXdghAvEcPn9mBfrTfKyJL
kO6noBNk9ctu6EiysjUbWgfgwOyLsuJmQ5G5ZO/QejuLpIgMykdhMtYBwaCDKonS
ouS2XYN/qErhRGaJsVl2YrFCzboI7xzS8kOwM7n6lE4lQWLtYy12AvxDujpGwonc
P0oY3fGHRrgY96gqqDHfdDfsQvisMvHViB4UI7R447uE6fqNxfjEP7z+3A7ozwUa
P2V746Be8lrNy0PvtAw0KPl66eO8LuV66F71md4t8OfeDjSKQA05rep4egRyutYA
IJCZEZFnDNbN7EwpT5CJZVtj24PngG8m0u0KoaFAgOcj9Caj+26m1tUx9So9W4zK
Ip0AMrzamZVkxeQreBiNJAfu3aMyOlY2lW/So7LZ4hlI
-----END CERTIFICATE-----
