Certificate:
    Data:
        Version: 3 (0x2)
        Serial Number: 12201 (0x2fa9)
    Signature Algorithm: sha256WithRSAEncryption
        Issuer: C=US, ST=OH, L=Columbus, O=VikingVPN, OU=MyOrganizationalUnit, CN=VikingVPN CA/name=EasyRSA/emailAddress=me@myhost.mydomain
        Validity
            Not Before: Dec  1 01:17:30 2017 GMT
            Not After : Nov 29 01:17:30 2027 GMT
        Subject: CN=Client3178Cert20f506
        Subject Public Key Info:
            Public Key Algorithm: rsaEncryption
                Public-Key: (4096 bit)
                Modulus:
                    00:c3:eb:14:10:30:fc:07:d0:8e:09:e4:b3:03:82:
                    19:5e:bb:1b:db:1d:f6:91:69:de:d2:f2:0e:13:6d:
                    b5:63:7a:83:0b:bf:23:88:61:16:11:06:90:8a:86:
                    69:a6:6a:d3:40:dc:85:f9:c7:2a:3b:01:2e:8b:53:
                    1a:9c:7b:e4:85:ff:12:29:17:80:83:7a:6e:30:75:
                    8f:2a:40:05:4f:f1:97:25:4b:10:32:fa:fe:79:2c:
                    54:76:98:63:f8:8e:79:c1:53:30:8a:85:d0:34:ec:
                    31:d8:d8:d5:fc:59:f6:b9:d3:48:d9:68:31:6a:5c:
                    d9:b9:d9:d4:6a:75:da:ce:fd:d5:21:5a:3d:10:fe:
                    81:7a:71:da:1a:d3:0d:23:9d:55:35:13:ed:92:80:
                    e3:15:5a:b4:1c:7d:74:aa:9f:ae:1e:6c:69:19:56:
                    14:ac:3f:b0:c3:92:70:cd:49:9b:e6:89:36:ca:02:
                    2e:6f:d4:c9:47:52:11:a3:f4:dc:b2:1a:b5:cc:bd:
                    18:30:3d:ac:b4:b3:b2:c4:5c:59:a6:1d:44:7e:c0:
                    e7:66:84:cd:18:4d:61:63:84:d1:1f:93:46:24:57:
                    e4:a3:55:e3:5b:54:0e:8e:5b:b5:8d:55:94:0e:b6:
                    70:72:75:34:cb:ef:1d:ff:79:b2:4b:81:b3:f5:8c:
                    d3:9d:0f:d5:31:f5:4b:9c:b0:8e:d3:ac:83:79:80:
                    e7:75:6f:87:46:0a:e6:d6:d8:50:69:c2:c5:0e:6e:
                    8a:53:f7:65:8c:13:97:20:2e:fc:c9:de:0b:83:b6:
                    a1:dd:54:ce:c7:d5:28:5d:1c:e1:ad:f7:2b:ba:c3:
                    92:20:c8:14:06:9e:f8:85:d4:43:b3:97:92:86:75:
                    1e:9b:4e:a4:2e:96:d1:8a:43:23:bb:2f:74:d9:a2:
                    6e:0b:38:7b:33:8b:a3:34:a3:e9:b3:a4:4a:68:e1:
                    89:48:4d:29:2b:98:b9:10:67:f1:ca:bd:55:68:fc:
                    99:de:c2:cb:26:09:28:39:2b:19:60:91:7d:8d:2a:
                    18:0e:f0:91:b6:a8:2e:f0:ee:28:6a:22:01:81:55:
                    27:19:ca:5c:9a:13:4a:40:ca:7c:4e:89:0b:31:04:
                    2e:83:f5:0e:b0:f2:76:33:fd:63:97:9c:38:0a:42:
                    48:35:b7:37:70:e3:6e:7c:7c:e2:60:60:54:df:94:
                    71:0a:78:44:49:a5:37:4a:bb:11:40:19:59:fb:67:
                    cf:16:7b:77:04:25:1f:95:b9:0c:52:5c:89:57:83:
                    eb:d5:25:b9:2a:42:9e:ea:49:40:8a:2e:7e:6c:7c:
                    b5:91:92:fb:28:08:b0:a2:a0:62:bb:b0:fe:58:52:
                    34:df:07
                Exponent: 65537 (0x10001)
        X509v3 extensions:
            X509v3 Basic Constraints: 
                CA:FALSE
            Netscape Comment: 
                Easy-RSA Generated Certificate
            X509v3 Subject Key Identifier: 
                86:CE:A6:48:E4:9F:4E:1B:16:0C:A2:32:9A:78:14:B1:31:85:F7:51
            X509v3 Authority Key Identifier: 
                keyid:12:CD:60:04:D2:A0:80:9E:70:ED:C6:99:B8:7B:2C:C6:52:FD:19:A1
                DirName:/C=US/ST=OH/L=Columbus/O=VikingVPN/OU=MyOrganizationalUnit/CN=VikingVPN CA/name=EasyRSA/emailAddress=me@myhost.mydomain
                serial:CF:35:85:EE:80:BF:2A:3E

            X509v3 Extended Key Usage: 
                TLS Web Client Authentication
            X509v3 Key Usage: 
                Digital Signature
    Signature Algorithm: sha256WithRSAEncryption
         36:83:78:c6:9f:4d:e9:30:87:f2:a8:8b:dd:ef:fd:2a:7a:fd:
         5d:41:6a:c6:1e:18:66:f3:2b:44:48:dc:6b:2b:6f:ef:b4:f4:
         4c:17:ec:bf:76:28:30:43:ca:e7:eb:60:d9:08:bb:9f:99:3c:
         0e:df:6e:52:c4:4f:44:16:3b:5b:25:af:6b:79:dc:d2:d3:06:
         a3:a1:64:29:e3:8a:f1:02:31:c4:69:19:e0:29:4c:e2:a9:34:
         d4:d6:78:03:55:e6:49:26:44:30:7b:82:74:a5:91:41:e8:24:
         f4:0f:db:56:2c:16:72:b2:6f:cf:40:4f:ac:f9:be:72:85:f2:
         03:c3:58:69:c1:64:c5:4b:0e:1a:2b:7f:73:f2:cc:89:fe:48:
         45:26:54:2f:18:c9:c2:d3:80:0a:4a:58:20:ed:26:2b:58:45:
         b4:3d:10:23:a2:d5:ad:db:66:90:2b:ed:21:58:d7:20:42:b9:
         6b:69:e4:94:a8:65:b2:54:c7:3c:b0:96:bf:70:bf:55:31:b2:
         6b:4b:f8:09:04:b8:8f:79:bd:a6:80:f8:e8:27:6e:fd:79:df:
         7d:a6:b3:e3:d5:fb:31:ff:83:28:67:1d:b0:85:79:5d:3e:67:
         3c:df:29:85:dc:90:92:45:0e:b2:34:96:95:5d:1d:0b:19:3c:
         37:64:51:48:fb:43:43:68:66:5c:31:29:f7:54:c1:a5:8f:30:
         9c:45:b4:8b:3e:b3:93:6b:ef:a9:57:4a:d4:2b:32:17:9e:68:
         ab:90:ec:aa:0c:3c:02:4a:2c:d3:c1:ac:9d:14:06:f5:2c:f4:
         80:95:3e:b9:49:50:60:fa:17:e3:91:f6:aa:bb:1c:d5:9c:d8:
         bd:43:18:5d:f6:f5:a8:fc:fe:3a:95:2d:81:57:0e:00:d2:c7:
         68:2b:63:fc:2b:fb:e4:c0:a4:d4:f5:ba:51:4e:4a:33:76:30:
         d0:91:1a:29:4c:de:1e:e5:31:03:8b:ba:a5:c9:d7:7d:46:2c:
         4e:71:7a:72:ea:3d:36:84:f0:7e:4a:cd:9b:b0:47:6a:fc:17:
         c1:84:9b:35:2a:c4:50:58:ef:4d:d2:5a:eb:32:1c:15:65:57:
         10:f0:c5:c0:dd:b1:40:bc:3a:54:a9:14:2c:b6:1e:d6:2c:05:
         b2:19:35:fc:d7:f0:51:d5:18:3e:91:97:11:62:7b:fc:60:09:
         46:91:71:3d:06:d2:01:9c:36:d9:a9:0e:43:84:97:ef:ab:d5:
         d5:42:d9:87:0c:1a:b1:79:1e:67:ce:c7:65:89:4d:ee:34:b3:
         a7:54:a6:1d:3c:98:d6:1b:3c:ac:dc:49:dd:4a:2d:c9:7e:95:
         fc:5c:a5:e4:64:7e:7d:b7
-----BEGIN CERTIFICATE-----
MIIGrTCCBJWgAwIBAgICL6kwDQYJKoZIhvcNAQELBQAwgawxCzAJBgNVBAYTAlVT
MQswCQYDVQQIEwJPSDERMA8GA1UEBxMIQ29sdW1idXMxEjAQBgNVBAoTCVZpa2lu
Z1ZQTjEdMBsGA1UECxMUTXlPcmdhbml6YXRpb25hbFVuaXQxFTATBgNVBAMTDFZp
a2luZ1ZQTiBDQTEQMA4GA1UEKRMHRWFzeVJTQTEhMB8GCSqGSIb3DQEJARYSbWVA
bXlob3N0Lm15ZG9tYWluMB4XDTE3MTIwMTAxMTczMFoXDTI3MTEyOTAxMTczMFow
HzEdMBsGA1UEAxMUQ2xpZW50MzE3OENlcnQyMGY1MDYwggIiMA0GCSqGSIb3DQEB
AQUAA4ICDwAwggIKAoICAQDD6xQQMPwH0I4J5LMDghleuxvbHfaRad7S8g4TbbVj
eoMLvyOIYRYRBpCKhmmmatNA3IX5xyo7AS6LUxqce+SF/xIpF4CDem4wdY8qQAVP
8ZclSxAy+v55LFR2mGP4jnnBUzCKhdA07DHY2NX8Wfa500jZaDFqXNm52dRqddrO
/dUhWj0Q/oF6cdoa0w0jnVU1E+2SgOMVWrQcfXSqn64ebGkZVhSsP7DDknDNSZvm
iTbKAi5v1MlHUhGj9NyyGrXMvRgwPay0s7LEXFmmHUR+wOdmhM0YTWFjhNEfk0Yk
V+SjVeNbVA6OW7WNVZQOtnBydTTL7x3/ebJLgbP1jNOdD9Ux9UucsI7TrIN5gOd1
b4dGCubW2FBpwsUObopT92WME5cgLvzJ3guDtqHdVM7H1ShdHOGt9yu6w5IgyBQG
nviF1EOzl5KGdR6bTqQultGKQyO7L3TZom4LOHszi6M0o+mzpEpo4YlITSkrmLkQ
Z/HKvVVo/JnewssmCSg5KxlgkX2NKhgO8JG2qC7w7ihqIgGBVScZylyaE0pAynxO
iQsxBC6D9Q6w8nYz/WOXnDgKQkg1tzdw4258fOJgYFTflHEKeERJpTdKuxFAGVn7
Z88We3cEJR+VuQxSXIlXg+vVJbkqQp7qSUCKLn5sfLWRkvsoCLCioGK7sP5YUjTf
BwIDAQABo4IBYzCCAV8wCQYDVR0TBAIwADAtBglghkgBhvhCAQ0EIBYeRWFzeS1S
U0EgR2VuZXJhdGVkIENlcnRpZmljYXRlMB0GA1UdDgQWBBSGzqZI5J9OGxYMojKa
eBSxMYX3UTCB4QYDVR0jBIHZMIHWgBQSzWAE0qCAnnDtxpm4eyzGUv0ZoaGBsqSB
rzCBrDELMAkGA1UEBhMCVVMxCzAJBgNVBAgTAk9IMREwDwYDVQQHEwhDb2x1bWJ1
czESMBAGA1UEChMJVmlraW5nVlBOMR0wGwYDVQQLExRNeU9yZ2FuaXphdGlvbmFs
VW5pdDEVMBMGA1UEAxMMVmlraW5nVlBOIENBMRAwDgYDVQQpEwdFYXN5UlNBMSEw
HwYJKoZIhvcNAQkBFhJtZUBteWhvc3QubXlkb21haW6CCQDPNYXugL8qPjATBgNV
HSUEDDAKBggrBgEFBQcDAjALBgNVHQ8EBAMCB4AwDQYJKoZIhvcNAQELBQADggIB
ADaDeMafTekwh/Koi93v/Sp6/V1BasYeGGbzK0RI3Gsrb++09EwX7L92KDBDyufr
YNkIu5+ZPA7fblLET0QWO1slr2t53NLTBqOhZCnjivECMcRpGeApTOKpNNTWeANV
5kkmRDB7gnSlkUHoJPQP21YsFnKyb89AT6z5vnKF8gPDWGnBZMVLDhorf3PyzIn+
SEUmVC8YycLTgApKWCDtJitYRbQ9ECOi1a3bZpAr7SFY1yBCuWtp5JSoZbJUxzyw
lr9wv1UxsmtL+AkEuI95vaaA+Ognbv15332ms+PV+zH/gyhnHbCFeV0+ZzzfKYXc
kJJFDrI0lpVdHQsZPDdkUUj7Q0NoZlwxKfdUwaWPMJxFtIs+s5Nr76lXStQrMhee
aKuQ7KoMPAJKLNPBrJ0UBvUs9ICVPrlJUGD6F+OR9qq7HNWc2L1DGF329aj8/jqV
LYFXDgDSx2grY/wr++TApNT1ulFOSjN2MNCRGilM3h7lMQOLuqXJ131GLE5xenLq
PTaE8H5KzZuwR2r8F8GEmzUqxFBY703SWusyHBVlVxDwxcDdsUC8OlSpFCy2HtYs
BbIZNfzX8FHVGD6RlxFie/xgCUaRcT0G0gGcNtmpDkOEl++r1dVC2YcMGrF5HmfO
x2WJTe40s6dUph08mNYbPKzcSd1KLcl+lfxcpeRkfn23
-----END CERTIFICATE-----
