Certificate:
    Data:
        Version: 3 (0x2)
        Serial Number: 8270 (0x204e)
    Signature Algorithm: md5WithRSAEncryption
        Issuer: C=US, ST=OH, L=Columbus, O=VikingVPN, OU=MyOrganizationalUnit, CN=VikingVPN CA/name=EasyRSA/emailAddress=me@myhost.mydomain
        Validity
            Not Before: Jun 13 05:06:32 2016 GMT
            Not After : Jun 11 05:06:32 2026 GMT
        Subject: CN=Client2393Certaa6afd
        Subject Public Key Info:
            Public Key Algorithm: rsaEncryption
                Public-Key: (4096 bit)
                Modulus:
                    00:ae:c8:6f:01:09:ca:ed:c1:af:be:8b:a4:99:63:
                    d3:a0:cf:60:51:2c:32:e2:d1:d5:16:54:55:bf:c5:
                    6d:0e:bb:19:e8:4e:fa:3b:d2:89:75:34:e4:40:ef:
                    72:03:d7:c5:f8:3b:f7:b1:c3:69:12:dc:bb:cd:42:
                    ce:c3:3a:cc:74:55:64:f6:70:19:a5:da:76:38:3f:
                    5e:ec:49:c1:e2:01:a2:5a:77:d1:b5:15:82:00:2d:
                    45:6e:81:07:16:49:08:3c:d8:a6:37:2b:22:fe:7a:
                    b8:bb:7a:14:50:c7:ea:ff:d8:37:4f:92:57:21:a7:
                    2c:75:28:cb:9d:df:2a:fb:10:67:e2:cc:05:f3:84:
                    96:e8:b4:7c:04:74:81:6d:f4:48:aa:a1:5d:64:20:
                    03:ed:ba:b9:a3:de:ad:39:a6:16:e7:bc:2e:ec:d5:
                    4e:ca:ec:e9:20:01:51:11:1c:10:ea:5b:53:ff:1c:
                    dc:ab:e0:b7:cc:76:9d:8c:ac:34:a3:59:0a:11:40:
                    ae:3f:40:6f:6b:97:12:6a:67:56:51:87:97:be:22:
                    2a:d3:7f:8d:66:aa:65:49:56:fc:05:16:79:23:29:
                    5f:84:02:40:9d:2f:ad:b3:30:c8:b9:81:43:25:74:
                    09:2c:a7:7c:b1:77:50:81:82:b0:40:95:0f:34:fd:
                    3a:0e:86:2a:43:8a:b0:5b:d6:5c:3f:85:e9:db:da:
                    2d:78:9d:25:d3:19:21:38:cc:36:c4:0a:5b:e3:b5:
                    55:06:dd:3e:58:9e:cb:69:79:74:4d:a4:5c:6e:7c:
                    58:ce:41:da:7a:9e:29:97:fe:24:6b:a8:9a:5a:2e:
                    e8:82:48:fd:9c:2c:0c:af:6a:8e:04:93:ba:ca:15:
                    b3:f8:88:01:e4:4d:c3:36:43:70:f3:41:a8:1d:c0:
                    cd:97:41:a1:0f:52:e0:a3:30:70:6e:70:3a:6c:31:
                    ef:8d:5f:c5:c6:e2:c6:ce:ef:32:60:8e:b0:64:a5:
                    6e:0e:66:f1:0b:8d:66:46:6c:7f:d7:a3:e4:ba:1a:
                    87:bd:3d:d5:39:e5:bc:5e:a6:eb:b9:d2:e5:8e:11:
                    9c:8c:b3:3e:5b:57:ff:e0:67:63:24:1d:8f:6a:65:
                    60:00:5f:17:f6:36:e6:c5:da:03:71:a5:9e:9d:9e:
                    c7:94:21:78:6c:c6:e3:2b:51:81:32:2c:a6:4f:06:
                    c9:ad:b7:b4:18:97:3a:4c:15:b2:23:fc:bd:0a:63:
                    04:39:9b:76:a3:fa:08:ce:eb:51:7f:52:ef:93:6a:
                    85:c1:c0:be:c4:30:fe:d1:50:8a:cb:9b:7d:cf:68:
                    f0:2c:88:45:5e:35:2f:cc:7a:52:d6:5f:ba:35:a6:
                    fa:2b:5d
                Exponent: 65537 (0x10001)
        X509v3 extensions:
            X509v3 Basic Constraints: 
                CA:FALSE
            Netscape Comment: 
                Easy-RSA Generated Certificate
            X509v3 Subject Key Identifier: 
                CB:03:15:65:07:C3:27:97:7B:79:C9:F6:A2:A1:BE:79:AC:13:2E:E9
            X509v3 Authority Key Identifier: 
                keyid:12:CD:60:04:D2:A0:80:9E:70:ED:C6:99:B8:7B:2C:C6:52:FD:19:A1
                DirName:/C=US/ST=OH/L=Columbus/O=VikingVPN/OU=MyOrganizationalUnit/CN=VikingVPN CA/name=EasyRSA/emailAddress=me@myhost.mydomain
                serial:CF:35:85:EE:80:BF:2A:3E

            X509v3 Extended Key Usage: 
                TLS Web Client Authentication
            X509v3 Key Usage: 
                Digital Signature
    Signature Algorithm: md5WithRSAEncryption
         07:1c:62:f9:d7:13:6b:ab:6b:61:c6:fd:a8:0c:44:c5:7b:16:
         fe:a2:18:dd:43:fb:7c:45:c1:17:2a:eb:17:d5:0d:0f:40:69:
         0c:38:72:63:21:be:6c:81:fc:61:b9:d4:e7:83:51:99:bc:30:
         e3:9d:60:3c:16:36:9e:8c:35:5d:7b:42:5f:9a:0f:43:06:28:
         77:4d:29:05:a5:47:e1:22:22:fb:7b:70:01:53:56:51:e9:1d:
         6c:71:63:92:d0:97:3f:95:41:a0:14:9e:72:ac:f3:0b:25:d8:
         57:fb:ed:24:38:55:6d:94:c6:5e:ee:e6:63:e8:59:60:35:3b:
         24:d3:e4:18:39:c4:1a:52:e1:09:91:b8:e2:6d:86:85:53:11:
         34:09:61:61:ac:a6:87:06:43:a6:1e:a3:99:b0:6b:97:1f:3b:
         c5:6a:75:90:1f:80:2f:cc:76:26:42:87:7a:e5:0b:60:79:99:
         22:23:45:43:91:1d:cd:fb:7d:17:9a:26:01:ca:e3:4f:f6:ad:
         97:25:d2:3a:e7:57:e4:c8:d6:94:03:76:93:e1:9f:ab:25:e4:
         f0:43:26:64:68:d7:ff:a3:9e:44:28:42:68:37:fc:11:3d:48:
         70:48:5c:8d:39:db:ab:24:d3:d6:05:1b:79:45:b5:ba:26:fa:
         d5:3e:29:1e:a8:e6:b8:21:6f:a2:ed:af:0f:5f:d5:94:1f:cf:
         f8:f5:f3:74:e8:bc:dc:20:91:00:c7:17:e0:04:8c:26:e4:dc:
         ef:93:11:2f:e3:3b:96:0e:83:1b:4b:53:6c:29:af:f8:2c:b9:
         74:6c:58:ad:e9:e1:a9:fa:21:22:92:32:ed:3d:32:29:67:72:
         31:f7:7d:6f:6e:d0:d7:b4:e0:32:5f:af:75:23:2e:3d:7c:fe:
         0d:50:c6:7f:cb:ed:82:e9:09:b8:f0:29:83:84:26:52:ab:18:
         86:1b:9e:1e:47:67:3e:76:98:98:c6:5e:e7:f4:b0:31:8d:e7:
         19:13:bc:3c:bd:9e:06:bf:b5:96:0b:f8:15:d8:ed:49:ef:df:
         1a:38:7f:13:2c:a6:88:ea:db:07:94:c6:e8:a6:e6:42:02:b8:
         78:2d:3d:7b:5c:35:e3:4f:ab:be:3f:12:b9:a1:a0:34:8d:e1:
         9c:23:5b:f2:2b:dc:c8:38:4e:d8:60:b7:ad:0c:80:1b:09:f2:
         98:21:6c:2b:8a:b2:1e:ee:5c:88:0c:c6:c4:c4:0c:63:9a:96:
         4b:79:17:a8:02:f4:02:8c:a4:e7:73:3a:2f:56:5f:b8:6d:61:
         ab:42:9c:6f:1e:59:f1:25:b6:1a:b3:31:a8:bc:73:13:9b:62:
         0c:46:27:22:12:65:76:d3
-----BEGIN CERTIFICATE-----
MIIGrTCCBJWgAwIBAgICIE4wDQYJKoZIhvcNAQEEBQAwgawxCzAJBgNVBAYTAlVT
MQswCQYDVQQIEwJPSDERMA8GA1UEBxMIQ29sdW1idXMxEjAQBgNVBAoTCVZpa2lu
Z1ZQTjEdMBsGA1UECxMUTXlPcmdhbml6YXRpb25hbFVuaXQxFTATBgNVBAMTDFZp
a2luZ1ZQTiBDQTEQMA4GA1UEKRMHRWFzeVJTQTEhMB8GCSqGSIb3DQEJARYSbWVA
bXlob3N0Lm15ZG9tYWluMB4XDTE2MDYxMzA1MDYzMloXDTI2MDYxMTA1MDYzMlow
HzEdMBsGA1UEAxMUQ2xpZW50MjM5M0NlcnRhYTZhZmQwggIiMA0GCSqGSIb3DQEB
AQUAA4ICDwAwggIKAoICAQCuyG8BCcrtwa++i6SZY9Ogz2BRLDLi0dUWVFW/xW0O
uxnoTvo70ol1NORA73ID18X4O/exw2kS3LvNQs7DOsx0VWT2cBml2nY4P17sScHi
AaJad9G1FYIALUVugQcWSQg82KY3KyL+eri7ehRQx+r/2DdPklchpyx1KMud3yr7
EGfizAXzhJbotHwEdIFt9EiqoV1kIAPturmj3q05phbnvC7s1U7K7OkgAVERHBDq
W1P/HNyr4LfMdp2MrDSjWQoRQK4/QG9rlxJqZ1ZRh5e+IirTf41mqmVJVvwFFnkj
KV+EAkCdL62zMMi5gUMldAksp3yxd1CBgrBAlQ80/ToOhipDirBb1lw/henb2i14
nSXTGSE4zDbEClvjtVUG3T5YnstpeXRNpFxufFjOQdp6nimX/iRrqJpaLuiCSP2c
LAyvao4Ek7rKFbP4iAHkTcM2Q3DzQagdwM2XQaEPUuCjMHBucDpsMe+NX8XG4sbO
7zJgjrBkpW4OZvELjWZGbH/Xo+S6Goe9PdU55bxepuu50uWOEZyMsz5bV//gZ2Mk
HY9qZWAAXxf2NubF2gNxpZ6dnseUIXhsxuMrUYEyLKZPBsmtt7QYlzpMFbIj/L0K
YwQ5m3aj+gjO61F/Uu+TaoXBwL7EMP7RUIrLm33PaPAsiEVeNS/MelLWX7o1pvor
XQIDAQABo4IBYzCCAV8wCQYDVR0TBAIwADAtBglghkgBhvhCAQ0EIBYeRWFzeS1S
U0EgR2VuZXJhdGVkIENlcnRpZmljYXRlMB0GA1UdDgQWBBTLAxVlB8Mnl3t5yfai
ob55rBMu6TCB4QYDVR0jBIHZMIHWgBQSzWAE0qCAnnDtxpm4eyzGUv0ZoaGBsqSB
rzCBrDELMAkGA1UEBhMCVVMxCzAJBgNVBAgTAk9IMREwDwYDVQQHEwhDb2x1bWJ1
czESMBAGA1UEChMJVmlraW5nVlBOMR0wGwYDVQQLExRNeU9yZ2FuaXphdGlvbmFs
VW5pdDEVMBMGA1UEAxMMVmlraW5nVlBOIENBMRAwDgYDVQQpEwdFYXN5UlNBMSEw
HwYJKoZIhvcNAQkBFhJtZUBteWhvc3QubXlkb21haW6CCQDPNYXugL8qPjATBgNV
HSUEDDAKBggrBgEFBQcDAjALBgNVHQ8EBAMCB4AwDQYJKoZIhvcNAQEEBQADggIB
AAccYvnXE2ura2HG/agMRMV7Fv6iGN1D+3xFwRcq6xfVDQ9AaQw4cmMhvmyB/GG5
1OeDUZm8MOOdYDwWNp6MNV17Ql+aD0MGKHdNKQWlR+EiIvt7cAFTVlHpHWxxY5LQ
lz+VQaAUnnKs8wsl2Ff77SQ4VW2Uxl7u5mPoWWA1OyTT5Bg5xBpS4QmRuOJthoVT
ETQJYWGspocGQ6Yeo5mwa5cfO8VqdZAfgC/MdiZCh3rlC2B5mSIjRUORHc37fRea
JgHK40/2rZcl0jrnV+TI1pQDdpPhn6sl5PBDJmRo1/+jnkQoQmg3/BE9SHBIXI05
26sk09YFG3lFtbom+tU+KR6o5rghb6Ltrw9f1ZQfz/j183TovNwgkQDHF+AEjCbk
3O+TES/jO5YOgxtLU2wpr/gsuXRsWK3p4an6ISKSMu09MilncjH3fW9u0Ne04DJf
r3UjLj18/g1Qxn/L7YLpCbjwKYOEJlKrGIYbnh5HZz52mJjGXuf0sDGN5xkTvDy9
nga/tZYL+BXY7Unv3xo4fxMspojq2weUxuim5kICuHgtPXtcNeNPq74/ErmhoDSN
4ZwjW/Ir3Mg4Tthgt60MgBsJ8pghbCuKsh7uXIgMxsTEDGOalkt5F6gC9AKMpOdz
Oi9WX7htYatCnG8eWfElthqzMai8cxObYgxGJyISZXbT
-----END CERTIFICATE-----
