Certificate:
    Data:
        Version: 3 (0x2)
        Serial Number: 4333 (0x10ed)
    Signature Algorithm: md5WithRSAEncryption
        Issuer: C=US, ST=OH, L=Columbus, O=VikingVPN, OU=MyOrganizationalUnit, CN=VikingVPN CA/name=EasyRSA/emailAddress=me@myhost.mydomain
        Validity
            Not Before: Jan 30 13:08:18 2015 GMT
            Not After : Jan 27 13:08:18 2025 GMT
        Subject: CN=Client1390Certe8c99e
        Subject Public Key Info:
            Public Key Algorithm: rsaEncryption
                Public-Key: (4096 bit)
                Modulus:
                    00:c8:2d:bb:f8:27:93:64:12:ff:13:61:9f:c2:f1:
                    7c:1d:77:b3:15:a0:67:5a:43:1b:1f:26:89:b4:af:
                    19:c6:e9:d9:5d:7c:e9:f1:0d:89:13:ff:56:82:2c:
                    0c:2f:2e:50:a1:b0:9d:11:7b:5e:6c:67:2a:fd:dd:
                    85:0e:93:f0:02:b4:7e:d8:40:c3:d7:c6:e4:c7:c9:
                    8e:a1:c0:db:de:3f:6f:eb:ae:d1:35:3d:24:b8:ec:
                    bf:ba:92:98:85:68:87:9b:92:02:73:e1:ff:9d:29:
                    97:d9:a2:93:c9:02:70:83:f7:94:60:7e:96:e6:d4:
                    78:15:fe:f4:18:7f:88:1e:97:d4:d5:aa:e3:7a:fd:
                    ad:8a:d8:ec:16:b4:46:4f:49:2f:ad:16:91:96:09:
                    44:a6:6b:04:f0:f9:b8:57:89:ef:38:b5:a2:e2:42:
                    47:e6:da:54:fd:f1:ca:5d:4e:ec:5b:09:51:e2:56:
                    7f:39:27:c8:7f:01:45:dd:db:39:67:af:b7:17:ee:
                    ea:9d:49:d5:03:bb:f4:ca:6d:e5:75:bc:53:c5:20:
                    66:3c:51:3c:e2:1b:c2:84:fe:2c:42:cf:01:42:5c:
                    2b:ca:19:78:f4:69:d4:8d:dc:40:a2:20:76:8f:8d:
                    f7:9a:25:16:67:10:11:9f:5e:74:eb:1d:80:98:c1:
                    5d:19:1a:22:4d:47:4d:b8:c2:5a:37:64:af:c6:10:
                    12:1a:90:2c:d4:cf:32:a4:4b:c6:c8:e2:9a:57:ef:
                    49:32:8c:9e:23:9b:06:d9:8e:e5:ad:aa:17:5f:2f:
                    2f:f4:c5:86:a1:20:17:ad:e6:79:4b:8f:4f:eb:61:
                    9e:a7:af:10:35:7f:bb:6d:e0:ef:2f:0d:5e:71:a0:
                    2b:f0:10:1a:be:08:2b:47:f8:82:08:9a:e6:89:f0:
                    5b:ea:3b:13:bd:eb:d2:e8:8e:06:30:9a:e2:12:30:
                    8d:f7:7d:54:8a:cb:02:20:b0:cc:c4:b8:89:b4:da:
                    b3:77:be:41:27:67:21:37:bf:14:4b:14:c1:00:1d:
                    3b:12:8f:66:dd:f1:75:9d:2a:d3:90:ee:e7:fb:1d:
                    fe:89:57:79:a1:7b:74:6b:44:dd:df:22:d4:03:61:
                    eb:8d:10:b6:b2:40:6b:06:fc:a7:ac:8f:21:93:9a:
                    56:71:87:b4:9c:de:9c:a8:b8:89:ca:6f:f8:50:ed:
                    31:a9:ac:15:d2:84:a9:a8:c8:5c:2d:ad:ed:9d:b2:
                    de:bd:4c:b2:bc:90:be:68:76:5f:9c:97:68:78:32:
                    d5:e6:1d:8a:1f:86:74:41:07:ba:8a:38:b9:6b:e3:
                    b2:84:80:2a:5c:d8:3f:5b:8d:10:1c:69:5c:cb:d1:
                    e0:ce:41
                Exponent: 65537 (0x10001)
        X509v3 extensions:
            X509v3 Basic Constraints: 
                CA:FALSE
            Netscape Comment: 
                Easy-RSA Generated Certificate
            X509v3 Subject Key Identifier: 
                30:CA:37:89:F0:5E:D5:71:40:A4:D5:B0:E7:6D:97:1D:B7:F1:54:5F
            X509v3 Authority Key Identifier: 
                keyid:12:CD:60:04:D2:A0:80:9E:70:ED:C6:99:B8:7B:2C:C6:52:FD:19:A1
                DirName:/C=US/ST=OH/L=Columbus/O=VikingVPN/OU=MyOrganizationalUnit/CN=VikingVPN CA/name=EasyRSA/emailAddress=me@myhost.mydomain
                serial:CF:35:85:EE:80:BF:2A:3E

            X509v3 Extended Key Usage: 
                TLS Web Client Authentication
            X509v3 Key Usage: 
                Digital Signature
    Signature Algorithm: md5WithRSAEncryption
         15:eb:68:49:65:5c:a0:8d:b7:d5:b8:83:68:a0:7d:23:4b:92:
         c5:e6:d9:6d:66:ec:05:d3:9d:34:ea:1f:05:97:49:35:18:77:
         0b:9f:10:c5:82:44:42:fe:51:e5:99:83:3b:64:23:87:78:85:
         eb:62:45:7c:be:bb:08:8a:b9:76:e5:cb:c4:ae:a3:78:3f:df:
         44:27:50:92:43:0f:c9:96:f3:a3:24:46:87:db:46:4d:e7:64:
         38:af:bf:62:69:e4:33:a3:db:cf:64:c2:c7:e2:13:ca:a2:88:
         fd:4a:c9:7f:66:25:f7:a5:2f:72:f4:fb:eb:a2:5c:ea:6f:b7:
         72:66:ba:2f:a7:83:e0:7a:68:15:a3:ea:19:d1:2c:a1:b3:f3:
         c2:07:a5:2a:d5:f6:12:65:45:4d:9b:93:8b:ba:0f:76:c4:6d:
         9c:f8:1a:c0:9a:75:a7:52:bc:26:d4:ff:61:aa:46:eb:0f:98:
         19:4d:f9:c7:ee:e9:f0:29:0b:e6:8c:ba:a2:e8:ea:cc:57:f1:
         c7:f3:00:cb:bf:5f:41:ba:6c:e2:90:85:2e:c9:f4:e0:e2:64:
         62:7f:2e:86:79:77:9b:83:26:2d:a7:ed:40:2b:25:9e:a4:8c:
         83:fc:1e:03:de:b2:1c:9b:a0:e4:0f:46:01:2b:98:ac:83:15:
         1c:cc:d9:3e:fb:fd:ad:0e:0b:38:c9:1d:a5:67:27:6b:53:f5:
         fd:ac:6b:47:a6:1d:ca:c9:b2:1f:20:25:29:ef:ae:3e:ae:e7:
         c4:bd:ce:31:e4:b6:3d:61:54:67:3e:90:26:6b:c6:b2:9f:a4:
         9e:86:8f:0b:99:37:aa:e5:c0:87:7e:6e:be:f5:2d:67:78:0e:
         e2:e1:da:7b:03:c8:a9:15:a4:91:d3:06:95:ba:d7:51:e0:d8:
         74:a4:f7:78:f3:2d:ed:da:2e:8f:da:96:7f:94:e3:73:39:e0:
         e1:6e:77:7e:2a:ea:8d:d2:34:0e:43:ba:b0:f6:9a:93:9b:54:
         2e:46:86:9b:b9:c7:64:ce:af:45:ab:76:0d:e0:9b:ef:06:64:
         5e:f9:c8:53:17:a7:ba:77:9a:04:a9:f1:a3:55:2f:a7:ce:a9:
         5e:9f:51:c6:a2:80:71:af:08:0e:cf:dc:f9:73:df:5a:7e:bc:
         2b:22:c4:0b:c4:c2:26:4a:7d:ea:4f:4c:1f:96:a0:2d:0f:18:
         da:97:35:07:d3:b9:96:65:6b:ca:d4:73:7e:5e:fb:c6:49:3f:
         d2:d0:2f:ee:bc:78:3f:c5:14:03:3d:0f:76:f1:d4:e2:73:84:
         da:6a:61:74:b2:1d:42:60:09:22:b6:11:67:89:a8:28:21:0e:
         c7:e4:60:85:f6:61:1b:5d
-----BEGIN CERTIFICATE-----
MIIGrTCCBJWgAwIBAgICEO0wDQYJKoZIhvcNAQEEBQAwgawxCzAJBgNVBAYTAlVT
MQswCQYDVQQIEwJPSDERMA8GA1UEBxMIQ29sdW1idXMxEjAQBgNVBAoTCVZpa2lu
Z1ZQTjEdMBsGA1UECxMUTXlPcmdhbml6YXRpb25hbFVuaXQxFTATBgNVBAMTDFZp
a2luZ1ZQTiBDQTEQMA4GA1UEKRMHRWFzeVJTQTEhMB8GCSqGSIb3DQEJARYSbWVA
bXlob3N0Lm15ZG9tYWluMB4XDTE1MDEzMDEzMDgxOFoXDTI1MDEyNzEzMDgxOFow
HzEdMBsGA1UEAxMUQ2xpZW50MTM5MENlcnRlOGM5OWUwggIiMA0GCSqGSIb3DQEB
AQUAA4ICDwAwggIKAoICAQDILbv4J5NkEv8TYZ/C8Xwdd7MVoGdaQxsfJom0rxnG
6dldfOnxDYkT/1aCLAwvLlChsJ0Re15sZyr93YUOk/ACtH7YQMPXxuTHyY6hwNve
P2/rrtE1PSS47L+6kpiFaIebkgJz4f+dKZfZopPJAnCD95Rgfpbm1HgV/vQYf4ge
l9TVquN6/a2K2OwWtEZPSS+tFpGWCUSmawTw+bhXie84taLiQkfm2lT98cpdTuxb
CVHiVn85J8h/AUXd2zlnr7cX7uqdSdUDu/TKbeV1vFPFIGY8UTziG8KE/ixCzwFC
XCvKGXj0adSN3ECiIHaPjfeaJRZnEBGfXnTrHYCYwV0ZGiJNR024wlo3ZK/GEBIa
kCzUzzKkS8bI4ppX70kyjJ4jmwbZjuWtqhdfLy/0xYahIBet5nlLj0/rYZ6nrxA1
f7tt4O8vDV5xoCvwEBq+CCtH+IIImuaJ8FvqOxO969LojgYwmuISMI33fVSKywIg
sMzEuIm02rN3vkEnZyE3vxRLFMEAHTsSj2bd8XWdKtOQ7uf7Hf6JV3mhe3RrRN3f
ItQDYeuNELayQGsG/KesjyGTmlZxh7Sc3pyouInKb/hQ7TGprBXShKmoyFwtre2d
st69TLK8kL5odl+cl2h4MtXmHYofhnRBB7qKOLlr47KEgCpc2D9bjRAcaVzL0eDO
QQIDAQABo4IBYzCCAV8wCQYDVR0TBAIwADAtBglghkgBhvhCAQ0EIBYeRWFzeS1S
U0EgR2VuZXJhdGVkIENlcnRpZmljYXRlMB0GA1UdDgQWBBQwyjeJ8F7VcUCk1bDn
bZcdt/FUXzCB4QYDVR0jBIHZMIHWgBQSzWAE0qCAnnDtxpm4eyzGUv0ZoaGBsqSB
rzCBrDELMAkGA1UEBhMCVVMxCzAJBgNVBAgTAk9IMREwDwYDVQQHEwhDb2x1bWJ1
czESMBAGA1UEChMJVmlraW5nVlBOMR0wGwYDVQQLExRNeU9yZ2FuaXphdGlvbmFs
VW5pdDEVMBMGA1UEAxMMVmlraW5nVlBOIENBMRAwDgYDVQQpEwdFYXN5UlNBMSEw
HwYJKoZIhvcNAQkBFhJtZUBteWhvc3QubXlkb21haW6CCQDPNYXugL8qPjATBgNV
HSUEDDAKBggrBgEFBQcDAjALBgNVHQ8EBAMCB4AwDQYJKoZIhvcNAQEEBQADggIB
ABXraEllXKCNt9W4g2igfSNLksXm2W1m7AXTnTTqHwWXSTUYdwufEMWCREL+UeWZ
gztkI4d4hetiRXy+uwiKuXbly8Suo3g/30QnUJJDD8mW86MkRofbRk3nZDivv2Jp
5DOj289kwsfiE8qiiP1KyX9mJfelL3L0++uiXOpvt3Jmui+ng+B6aBWj6hnRLKGz
88IHpSrV9hJlRU2bk4u6D3bEbZz4GsCadadSvCbU/2GqRusPmBlN+cfu6fApC+aM
uqLo6sxX8cfzAMu/X0G6bOKQhS7J9ODiZGJ/LoZ5d5uDJi2n7UArJZ6kjIP8HgPe
shyboOQPRgErmKyDFRzM2T77/a0OCzjJHaVnJ2tT9f2sa0emHcrJsh8gJSnvrj6u
58S9zjHktj1hVGc+kCZrxrKfpJ6GjwuZN6rlwId+br71LWd4DuLh2nsDyKkVpJHT
BpW611Hg2HSk93jzLe3aLo/aln+U43M54OFud34q6o3SNA5DurD2mpObVC5Ghpu5
x2TOr0Wrdg3gm+8GZF75yFMXp7p3mgSp8aNVL6fOqV6fUcaigHGvCA7P3Plz31p+
vCsixAvEwiZKfepPTB+WoC0PGNqXNQfTuZZla8rUc35e+8ZJP9LQL+68eD/FFAM9
D3bx1OJzhNpqYXSyHUJgCSK2EWeJqCghDsfkYIX2YRtd
-----END CERTIFICATE-----
