Certificate:
    Data:
        Version: 3 (0x2)
        Serial Number: 4687 (0x124f)
    Signature Algorithm: md5WithRSAEncryption
        Issuer: C=US, ST=OH, L=Columbus, O=VikingVPN, OU=MyOrganizationalUnit, CN=VikingVPN CA/name=EasyRSA/emailAddress=me@myhost.mydomain
        Validity
            Not Before: Mar  8 05:34:36 2015 GMT
            Not After : Mar  5 05:34:36 2025 GMT
        Subject: CN=Client802Certe03d8b
        Subject Public Key Info:
            Public Key Algorithm: rsaEncryption
                Public-Key: (4096 bit)
                Modulus:
                    00:f2:00:13:eb:ec:aa:ae:bd:a2:ac:51:95:61:53:
                    b5:a9:e0:8e:8e:d3:a1:db:15:d1:39:2f:80:9a:97:
                    dd:90:e2:02:0f:2f:51:b9:c5:36:94:23:c2:a2:43:
                    e6:c8:48:cb:30:56:20:1d:62:28:a9:7f:35:d9:22:
                    62:be:ab:c1:b2:41:8e:d0:41:e5:01:ad:25:23:fa:
                    32:c7:88:d0:9e:ce:46:3b:14:63:ff:46:ca:6e:b8:
                    6f:ec:89:63:54:75:a7:48:d2:6d:0b:4b:94:da:2b:
                    2a:d1:b1:c8:19:0f:e8:a8:01:fd:fc:05:4b:a9:82:
                    ba:73:2d:b4:fb:0e:76:ef:2a:18:d3:12:96:e8:4a:
                    58:52:35:e7:47:a8:2b:ed:00:35:0d:b3:d6:22:d3:
                    d6:88:4b:27:59:71:53:6b:05:89:9b:e2:af:d2:d7:
                    59:54:3b:17:47:b0:c8:c0:b9:1b:db:63:bb:e2:d2:
                    f2:db:c0:3f:7c:0d:2a:d3:fc:ee:90:ad:97:d6:77:
                    8b:9a:61:f8:47:69:1e:15:ef:0f:e5:b0:48:79:a0:
                    5b:39:44:d0:cc:60:db:df:75:0c:f9:e5:29:45:4b:
                    df:1a:49:5e:5d:2c:09:d4:cf:9d:a9:a0:fe:3b:0a:
                    2d:03:b7:df:01:92:57:9f:08:2d:a9:d9:a5:f1:00:
                    d9:06:31:54:f5:c7:73:72:53:36:e3:57:e4:27:24:
                    17:02:c2:38:46:ec:9f:b6:ce:c4:a8:fc:e5:2c:0c:
                    57:18:c0:7d:58:43:5c:37:b7:8d:28:72:cf:a6:bf:
                    c7:c3:a7:e1:c4:7b:75:83:0d:ab:f5:bf:36:38:5f:
                    11:3b:98:60:83:8d:0f:bb:be:3a:c6:2a:cd:9a:fe:
                    7a:0f:b6:d4:8f:20:bb:91:be:39:b2:5a:2a:6d:0a:
                    fd:15:ff:50:56:a2:99:73:c7:9b:a9:f9:bc:26:ce:
                    a3:78:e9:ae:4b:2b:50:59:be:26:2e:8c:e4:47:14:
                    cf:97:bc:9c:6f:c9:d7:9f:0f:07:76:6a:ca:71:1f:
                    ff:a2:f5:4b:52:b3:94:c4:8e:8b:2a:a9:fd:bf:73:
                    61:6a:45:e4:bb:cd:07:75:09:e8:d3:fe:2d:c3:0d:
                    d7:6d:1e:5a:5d:ac:c0:4b:3f:76:95:d9:95:fa:b8:
                    5e:bf:db:0d:07:18:c6:43:5b:dc:5a:8f:41:d1:7d:
                    88:34:64:4c:84:3e:29:53:02:4f:8b:e1:11:6a:69:
                    20:12:85:30:69:9b:dd:4a:cc:d7:19:fb:22:0a:f7:
                    63:c4:1e:4c:86:b8:7b:69:a8:00:f0:55:e2:3d:d5:
                    39:15:71:24:a6:d4:8e:53:5c:eb:cb:51:0c:d9:0d:
                    28:e7:e9
                Exponent: 65537 (0x10001)
        X509v3 extensions:
            X509v3 Basic Constraints: 
                CA:FALSE
            Netscape Comment: 
                Easy-RSA Generated Certificate
            X509v3 Subject Key Identifier: 
                EA:8B:50:CD:36:99:6B:1A:76:90:F2:0F:08:6C:56:BE:93:92:4E:1A
            X509v3 Authority Key Identifier: 
                keyid:12:CD:60:04:D2:A0:80:9E:70:ED:C6:99:B8:7B:2C:C6:52:FD:19:A1
                DirName:/C=US/ST=OH/L=Columbus/O=VikingVPN/OU=MyOrganizationalUnit/CN=VikingVPN CA/name=EasyRSA/emailAddress=me@myhost.mydomain
                serial:CF:35:85:EE:80:BF:2A:3E

            X509v3 Extended Key Usage: 
                TLS Web Client Authentication
            X509v3 Key Usage: 
                Digital Signature
    Signature Algorithm: md5WithRSAEncryption
         b6:b2:6d:1e:93:36:b0:43:10:1f:bd:b8:fd:2c:82:4c:0c:d7:
         af:c2:a1:24:54:52:55:21:81:fa:65:a7:bd:b2:8f:9b:d2:b9:
         58:3e:ce:d0:b5:5b:de:a0:4a:66:05:98:66:b9:11:57:f2:e4:
         a5:9b:08:46:20:b1:b7:f5:90:7f:d4:63:17:95:77:cc:4f:36:
         73:04:fb:57:c7:62:ce:63:f1:e2:3a:56:05:45:a2:0f:cf:69:
         d2:c3:f5:af:3e:bb:49:b1:2b:5d:a2:8a:af:97:0a:d0:95:66:
         e6:81:5b:96:34:d7:37:c9:c3:32:4a:2d:8d:dd:62:c1:e6:a7:
         10:9a:8d:90:5f:97:e5:fe:e8:34:31:38:44:5c:6b:95:18:ee:
         7a:ea:b4:84:1e:cd:e4:c9:c0:78:ca:d6:88:fa:d2:03:b8:45:
         c6:d7:ef:2b:86:95:c3:dd:53:cc:45:26:30:10:6d:cb:0f:cb:
         f5:9d:ca:ff:b3:a5:4e:fa:05:46:3f:77:e8:d5:01:e2:c2:e7:
         c0:d5:aa:fb:0e:b9:e5:71:d0:66:02:fa:e2:16:06:f4:8b:c5:
         c9:8a:a3:7d:a2:30:23:a1:42:55:96:77:fe:c7:14:52:53:e1:
         b2:4a:9e:86:5c:68:47:bb:a3:3f:ca:d0:fa:b0:52:42:91:1b:
         f4:0d:a3:21:b9:70:bc:0c:c2:b7:0b:db:1b:a3:ea:ce:72:12:
         82:a1:c2:b3:8b:6b:b2:4b:94:58:6b:3e:38:35:02:10:94:3f:
         fa:a3:be:ca:68:bd:9e:7d:b5:16:c9:e3:3a:79:34:25:ea:63:
         e2:f3:87:09:eb:b0:a8:ee:31:00:8b:39:e9:63:d0:7b:6f:dc:
         ee:4b:cb:a9:a5:e7:b8:35:2d:08:b9:a1:49:7c:e0:65:9f:bd:
         92:a4:bf:44:bf:8f:c8:ea:d9:5d:ff:31:dd:00:f4:41:90:33:
         b4:29:56:be:9b:dd:6a:5a:45:a5:22:74:d2:07:c3:b1:15:05:
         40:79:73:e3:48:9c:60:eb:f2:1e:03:99:ef:0a:cb:82:94:61:
         d8:2b:1a:5d:ec:5e:ab:47:aa:68:c2:70:a5:ff:fb:63:e5:44:
         88:df:66:1e:fa:1c:ea:3a:9e:b5:f7:59:c1:d7:bb:3f:89:7b:
         d9:41:c7:27:42:65:5d:da:68:0e:0a:56:3d:86:4f:c4:f1:dd:
         88:f6:52:7c:39:9d:51:a7:31:bb:41:d8:43:d8:16:ff:21:15:
         dd:99:86:8d:55:6a:3a:07:6e:a5:a2:a8:d8:e7:92:1f:f8:24:
         dd:2e:e1:35:04:96:4a:86:da:4c:00:d9:7b:82:d4:3f:99:c6:
         b4:bd:c3:ec:56:dd:44:59
-----BEGIN CERTIFICATE-----
MIIGrDCCBJSgAwIBAgICEk8wDQYJKoZIhvcNAQEEBQAwgawxCzAJBgNVBAYTAlVT
MQswCQYDVQQIEwJPSDERMA8GA1UEBxMIQ29sdW1idXMxEjAQBgNVBAoTCVZpa2lu
Z1ZQTjEdMBsGA1UECxMUTXlPcmdhbml6YXRpb25hbFVuaXQxFTATBgNVBAMTDFZp
a2luZ1ZQTiBDQTEQMA4GA1UEKRMHRWFzeVJTQTEhMB8GCSqGSIb3DQEJARYSbWVA
bXlob3N0Lm15ZG9tYWluMB4XDTE1MDMwODA1MzQzNloXDTI1MDMwNTA1MzQzNlow
HjEcMBoGA1UEAxMTQ2xpZW50ODAyQ2VydGUwM2Q4YjCCAiIwDQYJKoZIhvcNAQEB
BQADggIPADCCAgoCggIBAPIAE+vsqq69oqxRlWFTtangjo7TodsV0TkvgJqX3ZDi
Ag8vUbnFNpQjwqJD5shIyzBWIB1iKKl/NdkiYr6rwbJBjtBB5QGtJSP6MseI0J7O
RjsUY/9Gym64b+yJY1R1p0jSbQtLlNorKtGxyBkP6KgB/fwFS6mCunMttPsOdu8q
GNMSluhKWFI150eoK+0ANQ2z1iLT1ohLJ1lxU2sFiZvir9LXWVQ7F0ewyMC5G9tj
u+LS8tvAP3wNKtP87pCtl9Z3i5ph+EdpHhXvD+WwSHmgWzlE0Mxg2991DPnlKUVL
3xpJXl0sCdTPnamg/jsKLQO33wGSV58ILanZpfEA2QYxVPXHc3JTNuNX5CckFwLC
OEbsn7bOxKj85SwMVxjAfVhDXDe3jShyz6a/x8On4cR7dYMNq/W/NjhfETuYYION
D7u+OsYqzZr+eg+21I8gu5G+ObJaKm0K/RX/UFaimXPHm6n5vCbOo3jprksrUFm+
Ji6M5EcUz5e8nG/J158PB3ZqynEf/6L1S1KzlMSOiyqp/b9zYWpF5LvNB3UJ6NP+
LcMN120eWl2swEs/dpXZlfq4Xr/bDQcYxkNb3FqPQdF9iDRkTIQ+KVMCT4vhEWpp
IBKFMGmb3UrM1xn7Igr3Y8QeTIa4e2moAPBV4j3VORVxJKbUjlNc68tRDNkNKOfp
AgMBAAGjggFjMIIBXzAJBgNVHRMEAjAAMC0GCWCGSAGG+EIBDQQgFh5FYXN5LVJT
QSBHZW5lcmF0ZWQgQ2VydGlmaWNhdGUwHQYDVR0OBBYEFOqLUM02mWsadpDyDwhs
Vr6Tkk4aMIHhBgNVHSMEgdkwgdaAFBLNYATSoICecO3Gmbh7LMZS/RmhoYGypIGv
MIGsMQswCQYDVQQGEwJVUzELMAkGA1UECBMCT0gxETAPBgNVBAcTCENvbHVtYnVz
MRIwEAYDVQQKEwlWaWtpbmdWUE4xHTAbBgNVBAsTFE15T3JnYW5pemF0aW9uYWxV
bml0MRUwEwYDVQQDEwxWaWtpbmdWUE4gQ0ExEDAOBgNVBCkTB0Vhc3lSU0ExITAf
BgkqhkiG9w0BCQEWEm1lQG15aG9zdC5teWRvbWFpboIJAM81he6Avyo+MBMGA1Ud
JQQMMAoGCCsGAQUFBwMCMAsGA1UdDwQEAwIHgDANBgkqhkiG9w0BAQQFAAOCAgEA
trJtHpM2sEMQH724/SyCTAzXr8KhJFRSVSGB+mWnvbKPm9K5WD7O0LVb3qBKZgWY
ZrkRV/LkpZsIRiCxt/WQf9RjF5V3zE82cwT7V8dizmPx4jpWBUWiD89p0sP1rz67
SbErXaKKr5cK0JVm5oFbljTXN8nDMkotjd1iweanEJqNkF+X5f7oNDE4RFxrlRju
euq0hB7N5MnAeMrWiPrSA7hFxtfvK4aVw91TzEUmMBBtyw/L9Z3K/7OlTvoFRj93
6NUB4sLnwNWq+w655XHQZgL64hYG9IvFyYqjfaIwI6FCVZZ3/scUUlPhskqehlxo
R7ujP8rQ+rBSQpEb9A2jIblwvAzCtwvbG6PqznISgqHCs4trskuUWGs+ODUCEJQ/
+qO+ymi9nn21FsnjOnk0Jepj4vOHCeuwqO4xAIs56WPQe2/c7kvLqaXnuDUtCLmh
SXzgZZ+9kqS/RL+PyOrZXf8x3QD0QZAztClWvpvdalpFpSJ00gfDsRUFQHlz40ic
YOvyHgOZ7wrLgpRh2CsaXexeq0eqaMJwpf/7Y+VEiN9mHvoc6jqetfdZwde7P4l7
2UHHJ0JlXdpoDgpWPYZPxPHdiPZSfDmdUacxu0HYQ9gW/yEV3ZmGjVVqOgdupaKo
2OeSH/gk3S7hNQSWSobaTADZe4LUP5nGtL3D7FbdRFk=
-----END CERTIFICATE-----
