Certificate:
    Data:
        Version: 3 (0x2)
        Serial Number: 1161 (0x489)
    Signature Algorithm: md5WithRSAEncryption
        Issuer: C=US, ST=OH, L=Columbus, O=VikingVPN, OU=MyOrganizationalUnit, CN=VikingVPN CA/name=EasyRSA/emailAddress=me@myhost.mydomain
        Validity
            Not Before: Feb 27 08:14:14 2014 GMT
            Not After : Feb 25 08:14:14 2024 GMT
        Subject: CN=Client426Cert3b5d1e
        Subject Public Key Info:
            Public Key Algorithm: rsaEncryption
                Public-Key: (4096 bit)
                Modulus:
                    00:f0:ae:78:02:95:af:41:d4:14:11:b9:5b:51:3d:
                    bc:b3:0b:24:c1:d6:6b:3b:d5:cf:b5:73:12:8f:ef:
                    11:1e:cc:94:6d:e2:c2:90:dd:ce:61:e7:c8:79:3b:
                    30:64:4a:5c:d5:6f:b7:34:d3:7f:9a:e4:ab:92:61:
                    8a:0f:f3:85:e4:e8:74:6f:56:bb:b9:f9:2d:27:80:
                    54:00:1e:a5:2b:17:c3:1c:5e:5c:15:ef:dd:32:3d:
                    3c:a7:86:df:ad:54:fe:3b:2a:a9:c2:55:f9:3c:19:
                    cd:1d:e1:dd:a3:76:fc:d1:8d:4e:55:4f:c2:f6:f8:
                    b1:db:f0:91:6d:ed:94:16:0f:ef:6f:66:e2:d3:e9:
                    38:2c:80:fc:22:78:a4:c0:d8:be:20:18:0f:ad:cd:
                    f1:83:1c:0d:98:2e:66:36:dc:80:4d:85:af:78:a3:
                    41:f2:b5:ce:c8:44:36:b5:89:1e:52:b9:1f:5e:34:
                    32:bc:ae:8c:18:d0:30:73:1b:55:d4:2e:35:88:d6:
                    18:75:dc:b8:e2:9d:15:da:93:a2:5d:81:23:cc:55:
                    79:46:34:5e:85:ea:fa:9f:66:f2:a5:04:1b:d3:cb:
                    d5:5b:7b:73:6f:ae:ee:46:3b:88:45:b4:25:23:83:
                    74:45:ba:96:e4:2d:f3:0b:3c:b4:cf:f3:88:fc:3a:
                    e6:e8:76:02:93:7e:66:28:fb:1b:79:4d:1d:c6:04:
                    08:5f:18:cb:ff:5c:77:6f:95:e6:a0:20:ef:85:6a:
                    6b:8b:b4:10:c1:00:c8:2a:ec:78:54:f6:8c:0b:bd:
                    8b:17:6c:1c:93:8d:5a:72:14:b3:8b:24:84:dc:b1:
                    8b:ba:6f:35:f7:93:76:98:91:4b:ea:38:65:e9:b8:
                    db:f6:b4:cb:b3:3e:63:aa:4a:aa:03:b1:27:3c:4f:
                    60:b9:0e:3f:7f:37:62:8f:0d:aa:2c:9e:8a:1f:a2:
                    91:9c:40:e5:04:5e:04:c9:fc:f2:07:f7:dd:b2:04:
                    e6:68:9f:5a:5c:91:05:25:13:89:71:df:8d:ce:38:
                    60:b7:81:7d:1a:d4:a9:42:4a:53:65:9d:d8:04:6b:
                    13:2f:50:77:18:e8:b4:74:2e:03:a6:9a:2b:e8:bb:
                    5c:2b:6b:27:41:0e:21:4f:b9:5e:f4:43:54:4b:86:
                    b8:22:96:74:29:cb:43:fd:52:39:61:75:5c:57:4d:
                    3d:86:db:22:c5:6d:a2:1f:64:5e:99:c5:67:a0:0e:
                    39:2c:07:cb:98:20:a9:70:68:b4:c0:85:48:b5:de:
                    b9:49:1f:fb:e7:a5:25:43:7c:c1:11:c2:30:d8:27:
                    81:13:c4:bb:af:fc:76:9e:37:7a:4e:f2:68:da:48:
                    0b:f0:2b
                Exponent: 65537 (0x10001)
        X509v3 extensions:
            X509v3 Basic Constraints: 
                CA:FALSE
            Netscape Comment: 
                Easy-RSA Generated Certificate
            X509v3 Subject Key Identifier: 
                41:28:12:B7:BA:69:E2:00:69:95:83:D8:D4:F9:8D:CE:31:72:C5:D0
            X509v3 Authority Key Identifier: 
                keyid:12:CD:60:04:D2:A0:80:9E:70:ED:C6:99:B8:7B:2C:C6:52:FD:19:A1
                DirName:/C=US/ST=OH/L=Columbus/O=VikingVPN/OU=MyOrganizationalUnit/CN=VikingVPN CA/name=EasyRSA/emailAddress=me@myhost.mydomain
                serial:CF:35:85:EE:80:BF:2A:3E

            X509v3 Extended Key Usage: 
                TLS Web Client Authentication
            X509v3 Key Usage: 
                Digital Signature
    Signature Algorithm: md5WithRSAEncryption
         5b:03:db:a8:cb:16:89:f5:38:13:d3:b6:66:f8:8f:d9:21:d6:
         9d:39:3a:d6:4c:23:d2:f1:e7:b5:1e:86:f5:fc:0e:3f:a2:29:
         01:69:3d:65:99:9f:f8:c2:90:fd:60:9f:b3:0d:3f:c2:a9:21:
         e1:96:b4:4d:6a:c2:94:e2:d7:2c:79:cb:03:53:f3:70:16:c7:
         06:7d:5e:a9:fb:b6:4a:36:97:fa:78:88:09:a8:08:c0:e2:e7:
         a1:40:05:5f:34:a1:cd:cd:49:05:d9:90:8d:88:d0:5f:a3:84:
         19:df:d3:2c:f0:91:ea:86:cd:66:45:5c:cd:b8:73:ad:35:50:
         2f:f7:e3:57:cd:7d:fd:3d:ce:b7:92:fb:e1:a1:7a:6f:b7:48:
         5d:94:40:d5:18:c9:8c:fc:43:2b:82:94:26:c2:f1:41:0a:64:
         da:92:f9:ce:d0:29:e6:cf:3a:36:52:c5:18:b8:ab:91:9c:1c:
         21:da:27:69:0a:fd:5f:e2:a4:c8:90:91:94:07:af:63:21:5d:
         09:73:66:94:b8:11:93:bf:94:2a:70:72:d2:39:ab:59:69:c1:
         df:d9:20:70:05:78:3b:76:e3:d6:bd:ec:23:6d:e2:07:da:77:
         15:66:01:fc:57:8b:9b:40:d8:1e:ff:00:fc:b2:d8:f8:9b:43:
         f8:d5:2d:11:24:b8:79:b0:42:9b:58:bd:eb:38:6a:80:59:d0:
         30:c6:43:df:8e:27:75:e1:e1:6b:c1:fb:14:b3:78:34:a7:a1:
         df:38:c0:f3:50:33:e8:d5:da:03:65:ed:45:fe:61:f7:77:f2:
         0b:b7:8e:e6:74:b3:dc:83:2b:a9:2a:13:44:ef:70:bc:11:27:
         59:9c:ed:8d:27:4a:d8:e8:2f:da:2a:13:a8:0e:98:b8:7c:c8:
         3a:89:cc:43:65:97:0f:85:0b:2a:35:37:1c:a3:e0:37:fb:48:
         93:f1:62:a3:a1:20:b3:52:38:b1:88:03:b8:23:23:a3:cb:71:
         c8:cd:67:bb:d2:85:3f:2a:53:1d:35:4c:0e:58:f5:ea:f8:86:
         54:9f:f5:80:b6:ef:f3:3e:0f:7b:0b:33:8d:4a:59:6e:7e:f0:
         bf:cd:e4:32:1a:ad:d6:f4:f0:1e:38:88:d2:ef:e9:67:f8:fc:
         14:13:df:5c:94:01:6f:4c:fc:b0:3b:0f:49:24:c1:5d:c1:0f:
         d4:02:c3:b5:32:ab:a4:1c:85:ce:02:ed:6c:c8:31:26:5f:61:
         61:6c:48:63:cc:2b:2e:e7:e7:13:b0:e9:55:bf:eb:ff:56:eb:
         73:5e:6e:a7:0c:06:79:fb:22:21:2d:47:84:83:e9:98:4f:95:
         0f:cc:3c:6e:93:c0:08:ff
-----BEGIN CERTIFICATE-----
MIIGrDCCBJSgAwIBAgICBIkwDQYJKoZIhvcNAQEEBQAwgawxCzAJBgNVBAYTAlVT
MQswCQYDVQQIEwJPSDERMA8GA1UEBxMIQ29sdW1idXMxEjAQBgNVBAoTCVZpa2lu
Z1ZQTjEdMBsGA1UECxMUTXlPcmdhbml6YXRpb25hbFVuaXQxFTATBgNVBAMTDFZp
a2luZ1ZQTiBDQTEQMA4GA1UEKRMHRWFzeVJTQTEhMB8GCSqGSIb3DQEJARYSbWVA
bXlob3N0Lm15ZG9tYWluMB4XDTE0MDIyNzA4MTQxNFoXDTI0MDIyNTA4MTQxNFow
HjEcMBoGA1UEAxMTQ2xpZW50NDI2Q2VydDNiNWQxZTCCAiIwDQYJKoZIhvcNAQEB
BQADggIPADCCAgoCggIBAPCueAKVr0HUFBG5W1E9vLMLJMHWazvVz7VzEo/vER7M
lG3iwpDdzmHnyHk7MGRKXNVvtzTTf5rkq5Jhig/zheTodG9Wu7n5LSeAVAAepSsX
wxxeXBXv3TI9PKeG361U/jsqqcJV+TwZzR3h3aN2/NGNTlVPwvb4sdvwkW3tlBYP
729m4tPpOCyA/CJ4pMDYviAYD63N8YMcDZguZjbcgE2Fr3ijQfK1zshENrWJHlK5
H140MryujBjQMHMbVdQuNYjWGHXcuOKdFdqTol2BI8xVeUY0XoXq+p9m8qUEG9PL
1Vt7c2+u7kY7iEW0JSODdEW6luQt8ws8tM/ziPw65uh2ApN+Zij7G3lNHcYECF8Y
y/9cd2+V5qAg74Vqa4u0EMEAyCrseFT2jAu9ixdsHJONWnIUs4skhNyxi7pvNfeT
dpiRS+o4Zem42/a0y7M+Y6pKqgOxJzxPYLkOP383Yo8Nqiyeih+ikZxA5QReBMn8
8gf33bIE5mifWlyRBSUTiXHfjc44YLeBfRrUqUJKU2Wd2ARrEy9QdxjotHQuA6aa
K+i7XCtrJ0EOIU+5XvRDVEuGuCKWdCnLQ/1SOWF1XFdNPYbbIsVtoh9kXpnFZ6AO
OSwHy5ggqXBotMCFSLXeuUkf++elJUN8wRHCMNgngRPEu6/8dp43ek7yaNpIC/Ar
AgMBAAGjggFjMIIBXzAJBgNVHRMEAjAAMC0GCWCGSAGG+EIBDQQgFh5FYXN5LVJT
QSBHZW5lcmF0ZWQgQ2VydGlmaWNhdGUwHQYDVR0OBBYEFEEoEre6aeIAaZWD2NT5
jc4xcsXQMIHhBgNVHSMEgdkwgdaAFBLNYATSoICecO3Gmbh7LMZS/RmhoYGypIGv
MIGsMQswCQYDVQQGEwJVUzELMAkGA1UECBMCT0gxETAPBgNVBAcTCENvbHVtYnVz
MRIwEAYDVQQKEwlWaWtpbmdWUE4xHTAbBgNVBAsTFE15T3JnYW5pemF0aW9uYWxV
bml0MRUwEwYDVQQDEwxWaWtpbmdWUE4gQ0ExEDAOBgNVBCkTB0Vhc3lSU0ExITAf
BgkqhkiG9w0BCQEWEm1lQG15aG9zdC5teWRvbWFpboIJAM81he6Avyo+MBMGA1Ud
JQQMMAoGCCsGAQUFBwMCMAsGA1UdDwQEAwIHgDANBgkqhkiG9w0BAQQFAAOCAgEA
WwPbqMsWifU4E9O2ZviP2SHWnTk61kwj0vHntR6G9fwOP6IpAWk9ZZmf+MKQ/WCf
sw0/wqkh4Za0TWrClOLXLHnLA1PzcBbHBn1eqfu2SjaX+niICagIwOLnoUAFXzSh
zc1JBdmQjYjQX6OEGd/TLPCR6obNZkVczbhzrTVQL/fjV819/T3Ot5L74aF6b7dI
XZRA1RjJjPxDK4KUJsLxQQpk2pL5ztAp5s86NlLFGLirkZwcIdonaQr9X+KkyJCR
lAevYyFdCXNmlLgRk7+UKnBy0jmrWWnB39kgcAV4O3bj1r3sI23iB9p3FWYB/FeL
m0DYHv8A/LLY+JtD+NUtESS4ebBCm1i96zhqgFnQMMZD344ndeHha8H7FLN4NKeh
3zjA81Az6NXaA2XtRf5h93fyC7eO5nSz3IMrqSoTRO9wvBEnWZztjSdK2Ogv2ioT
qA6YuHzIOonMQ2WXD4ULKjU3HKPgN/tIk/Fio6Egs1I4sYgDuCMjo8txyM1nu9KF
PypTHTVMDlj16viGVJ/1gLbv8z4PewszjUpZbn7wv83kMhqt1vTwHjiI0u/pZ/j8
FBPfXJQBb0z8sDsPSSTBXcEP1ALDtTKrpByFzgLtbMgxJl9hYWxIY8wrLufnE7Dp
Vb/r/1brc15upwwGefsiIS1HhIPpmE+VD8w8bpPACP8=
-----END CERTIFICATE-----
