Certificate:
    Data:
        Version: 3 (0x2)
        Serial Number: 1545 (0x609)
    Signature Algorithm: md5WithRSAEncryption
        Issuer: C=US, ST=OH, L=Columbus, O=VikingVPN, OU=MyOrganizationalUnit, CN=VikingVPN CA/name=EasyRSA/emailAddress=me@myhost.mydomain
        Validity
            Not Before: Apr 10 01:38:19 2014 GMT
            Not After : Apr  7 01:38:19 2024 GMT
        Subject: CN=Client570Cert5d9c89
        Subject Public Key Info:
            Public Key Algorithm: rsaEncryption
                Public-Key: (4096 bit)
                Modulus:
                    00:bf:b8:c5:77:51:bd:f8:7f:9e:bc:d5:43:1b:df:
                    7b:ac:9e:ff:a6:d9:2a:99:66:33:18:8c:12:65:40:
                    8e:64:be:c8:f7:75:11:6f:a5:83:a8:43:7a:05:1d:
                    7e:5b:59:25:0f:ed:4a:2c:db:8c:8a:6d:b4:84:ba:
                    48:59:e4:f2:19:60:23:78:8b:0a:31:13:50:48:f6:
                    54:d0:28:67:9c:6b:35:b6:ad:33:f2:75:0c:9d:b1:
                    75:e0:c3:00:4e:60:69:b1:5b:45:c1:04:04:c2:61:
                    11:5e:f1:9f:8a:45:41:e1:80:52:8e:c1:75:ef:0f:
                    62:38:04:d3:bd:59:46:ca:cb:6a:05:17:e9:e7:62:
                    9f:04:30:1c:c4:6d:a6:ab:bc:d3:7c:cd:28:8c:cd:
                    18:4b:80:b6:14:51:7e:af:50:66:49:1a:58:f4:8c:
                    3b:42:78:be:69:54:38:fe:90:a1:b5:92:73:9c:7f:
                    42:fd:dd:90:42:ca:cf:ad:0e:ed:9e:07:41:44:92:
                    dd:6a:a5:eb:60:df:ae:cc:f6:a5:04:4b:e2:44:5b:
                    24:7e:23:92:1b:82:c5:79:18:91:08:8f:34:9f:d4:
                    da:91:a9:8f:3f:15:ac:b1:df:1c:94:84:54:dc:96:
                    00:8f:79:c1:29:49:e7:9c:e2:ca:b3:4b:45:96:c5:
                    b1:5c:d4:76:35:cd:9b:11:e1:e9:72:bd:f3:9f:fe:
                    6f:5a:07:f6:5b:3b:cd:21:0f:25:9e:f4:9f:a5:b5:
                    9e:17:c5:19:d2:f5:60:a1:34:03:49:25:fc:b1:a6:
                    63:6f:eb:9f:ab:aa:5f:1f:53:7d:51:c1:e7:44:13:
                    68:43:8a:f8:bd:73:ae:31:5a:b4:24:c2:1d:a0:f2:
                    8a:db:e8:ad:46:bb:44:a1:3d:cf:1f:14:15:05:91:
                    74:ab:55:93:f8:3c:07:c4:19:41:09:1e:18:4a:2e:
                    9e:51:ef:45:09:92:e8:48:c5:7b:b1:73:fe:91:21:
                    63:90:93:8a:e2:78:73:86:98:f8:07:4c:df:63:64:
                    28:dc:05:83:d0:a2:83:b7:6c:e5:7a:fb:45:ee:fd:
                    1f:85:fc:09:24:58:f3:e2:b3:dd:5b:7b:80:03:bb:
                    40:4f:e0:4f:2a:39:62:0b:dd:49:c2:1e:e4:b4:3e:
                    c1:d4:8b:35:47:9f:15:38:dd:48:33:dc:f9:13:05:
                    d1:0e:f8:fe:9b:1b:35:c8:f6:62:f5:7c:bc:8b:2c:
                    ba:22:7c:41:b0:ab:cd:10:c1:92:c5:b7:7a:3b:48:
                    c9:37:63:5c:54:90:ab:7c:4a:95:38:c2:36:8d:1b:
                    77:0d:26:e6:b7:0a:dc:f8:8e:94:b5:57:ad:97:8c:
                    cc:f7:65
                Exponent: 65537 (0x10001)
        X509v3 extensions:
            X509v3 Basic Constraints: 
                CA:FALSE
            Netscape Comment: 
                Easy-RSA Generated Certificate
            X509v3 Subject Key Identifier: 
                A9:70:E2:C8:67:D6:89:1C:4D:D1:E1:B7:58:10:0E:DE:31:BB:C8:DF
            X509v3 Authority Key Identifier: 
                keyid:12:CD:60:04:D2:A0:80:9E:70:ED:C6:99:B8:7B:2C:C6:52:FD:19:A1
                DirName:/C=US/ST=OH/L=Columbus/O=VikingVPN/OU=MyOrganizationalUnit/CN=VikingVPN CA/name=EasyRSA/emailAddress=me@myhost.mydomain
                serial:CF:35:85:EE:80:BF:2A:3E

            X509v3 Extended Key Usage: 
                TLS Web Client Authentication
            X509v3 Key Usage: 
                Digital Signature
    Signature Algorithm: md5WithRSAEncryption
         8e:f2:a3:b4:b3:d6:1f:1f:27:ea:a3:d9:eb:82:2f:eb:92:ae:
         ce:ea:c6:38:79:2b:72:ec:d3:e0:c9:08:44:d0:a3:c1:e5:c0:
         3a:29:4a:2f:6a:5c:7c:3d:56:53:5e:0f:ad:e0:3b:33:0e:e1:
         b4:ab:76:bc:29:f3:ad:4f:87:0d:69:46:fe:6e:62:58:aa:fc:
         ee:d2:fe:e0:03:58:1c:d9:a5:d7:28:e0:86:35:a2:fd:db:85:
         82:64:12:59:b8:7f:1d:32:2a:c9:aa:53:d0:7a:7d:ac:fc:50:
         69:72:74:7f:70:f9:cd:6e:88:d6:04:97:57:1d:03:1a:22:1c:
         15:88:17:52:40:fe:6c:97:38:6a:6c:31:1a:9b:20:c2:b1:cf:
         71:48:37:07:64:f1:eb:de:88:5f:ac:54:9f:1d:2a:4f:26:66:
         29:10:6d:1f:89:38:f5:51:32:c5:b8:42:95:12:c9:9f:1b:b8:
         9d:1f:e2:3e:a3:01:49:43:dd:5d:f7:db:f4:f0:0e:62:69:57:
         a0:07:25:52:94:8e:7a:2a:48:e0:09:cf:f7:a2:b6:50:5b:c1:
         e5:88:b5:79:a6:4d:35:4e:d8:3a:22:11:08:af:c0:55:9c:ed:
         20:6d:6f:6b:f1:87:4d:08:9d:9f:72:d5:c9:e1:df:b9:3f:97:
         9e:11:eb:c3:ef:f1:b2:17:a3:91:82:e3:50:6d:47:4e:45:a2:
         4a:be:d7:6e:ff:aa:3a:d5:d9:0e:e4:08:d9:b2:04:41:21:4f:
         1d:2c:c6:54:07:12:1a:5f:8d:da:65:1a:23:f8:28:a3:65:3d:
         54:b6:f3:3c:93:38:d7:0c:8b:65:8a:d2:03:d9:4e:b4:46:10:
         da:17:02:d0:3a:7e:7e:f9:fc:b4:d9:43:92:12:10:10:c2:52:
         eb:b2:55:31:17:b5:17:28:e3:69:fa:48:8e:92:ec:3d:5e:98:
         e4:40:c6:09:0e:11:1a:8c:de:4c:dc:5c:6a:ae:f7:de:49:a2:
         23:a1:18:68:8e:5a:01:85:97:26:5f:ca:d6:d6:39:6a:69:b8:
         28:4d:7f:4d:5b:2f:ee:79:a1:ed:ef:c1:95:4c:ad:83:0f:2e:
         54:1a:24:e4:d6:37:ae:05:6d:1b:90:fc:71:e6:e1:b1:03:1f:
         dc:c5:80:06:30:82:d6:95:0c:a3:22:62:9b:c6:e3:b2:36:71:
         4e:ef:a9:90:f1:52:29:36:b8:03:ec:75:2e:e1:02:af:00:6c:
         28:f8:f2:25:9e:c6:6a:25:23:f3:14:06:20:b7:68:71:66:0f:
         54:f7:24:ba:8c:67:04:18:91:c6:14:fa:0a:cc:a3:e9:94:3d:
         a9:04:a5:e0:7b:3c:f7:7f
-----BEGIN CERTIFICATE-----
MIIGrDCCBJSgAwIBAgICBgkwDQYJKoZIhvcNAQEEBQAwgawxCzAJBgNVBAYTAlVT
MQswCQYDVQQIEwJPSDERMA8GA1UEBxMIQ29sdW1idXMxEjAQBgNVBAoTCVZpa2lu
Z1ZQTjEdMBsGA1UECxMUTXlPcmdhbml6YXRpb25hbFVuaXQxFTATBgNVBAMTDFZp
a2luZ1ZQTiBDQTEQMA4GA1UEKRMHRWFzeVJTQTEhMB8GCSqGSIb3DQEJARYSbWVA
bXlob3N0Lm15ZG9tYWluMB4XDTE0MDQxMDAxMzgxOVoXDTI0MDQwNzAxMzgxOVow
HjEcMBoGA1UEAxMTQ2xpZW50NTcwQ2VydDVkOWM4OTCCAiIwDQYJKoZIhvcNAQEB
BQADggIPADCCAgoCggIBAL+4xXdRvfh/nrzVQxvfe6ye/6bZKplmMxiMEmVAjmS+
yPd1EW+lg6hDegUdfltZJQ/tSizbjIpttIS6SFnk8hlgI3iLCjETUEj2VNAoZ5xr
NbatM/J1DJ2xdeDDAE5gabFbRcEEBMJhEV7xn4pFQeGAUo7Bde8PYjgE071ZRsrL
agUX6edinwQwHMRtpqu803zNKIzNGEuAthRRfq9QZkkaWPSMO0J4vmlUOP6QobWS
c5x/Qv3dkELKz60O7Z4HQUSS3Wql62Dfrsz2pQRL4kRbJH4jkhuCxXkYkQiPNJ/U
2pGpjz8VrLHfHJSEVNyWAI95wSlJ55ziyrNLRZbFsVzUdjXNmxHh6XK985/+b1oH
9ls7zSEPJZ70n6W1nhfFGdL1YKE0A0kl/LGmY2/rn6uqXx9TfVHB50QTaEOK+L1z
rjFatCTCHaDyitvorUa7RKE9zx8UFQWRdKtVk/g8B8QZQQkeGEounlHvRQmS6EjF
e7Fz/pEhY5CTiuJ4c4aY+AdM32NkKNwFg9Cig7ds5Xr7Re79H4X8CSRY8+Kz3Vt7
gAO7QE/gTyo5YgvdScIe5LQ+wdSLNUefFTjdSDPc+RMF0Q74/psbNcj2YvV8vIss
uiJ8QbCrzRDBksW3ejtIyTdjXFSQq3xKlTjCNo0bdw0m5rcK3PiOlLVXrZeMzPdl
AgMBAAGjggFjMIIBXzAJBgNVHRMEAjAAMC0GCWCGSAGG+EIBDQQgFh5FYXN5LVJT
QSBHZW5lcmF0ZWQgQ2VydGlmaWNhdGUwHQYDVR0OBBYEFKlw4shn1okcTdHht1gQ
Dt4xu8jfMIHhBgNVHSMEgdkwgdaAFBLNYATSoICecO3Gmbh7LMZS/RmhoYGypIGv
MIGsMQswCQYDVQQGEwJVUzELMAkGA1UECBMCT0gxETAPBgNVBAcTCENvbHVtYnVz
MRIwEAYDVQQKEwlWaWtpbmdWUE4xHTAbBgNVBAsTFE15T3JnYW5pemF0aW9uYWxV
bml0MRUwEwYDVQQDEwxWaWtpbmdWUE4gQ0ExEDAOBgNVBCkTB0Vhc3lSU0ExITAf
BgkqhkiG9w0BCQEWEm1lQG15aG9zdC5teWRvbWFpboIJAM81he6Avyo+MBMGA1Ud
JQQMMAoGCCsGAQUFBwMCMAsGA1UdDwQEAwIHgDANBgkqhkiG9w0BAQQFAAOCAgEA
jvKjtLPWHx8n6qPZ64Iv65KuzurGOHkrcuzT4MkIRNCjweXAOilKL2pcfD1WU14P
reA7Mw7htKt2vCnzrU+HDWlG/m5iWKr87tL+4ANYHNml1yjghjWi/duFgmQSWbh/
HTIqyapT0Hp9rPxQaXJ0f3D5zW6I1gSXVx0DGiIcFYgXUkD+bJc4amwxGpsgwrHP
cUg3B2Tx696IX6xUnx0qTyZmKRBtH4k49VEyxbhClRLJnxu4nR/iPqMBSUPdXffb
9PAOYmlXoAclUpSOeipI4AnP96K2UFvB5Yi1eaZNNU7YOiIRCK/AVZztIG1va/GH
TQidn3LVyeHfuT+XnhHrw+/xshejkYLjUG1HTkWiSr7Xbv+qOtXZDuQI2bIEQSFP
HSzGVAcSGl+N2mUaI/goo2U9VLbzPJM41wyLZYrSA9lOtEYQ2hcC0Dp+fvn8tNlD
khIQEMJS67JVMRe1FyjjafpIjpLsPV6Y5EDGCQ4RGozeTNxcaq733kmiI6EYaI5a
AYWXJl/K1tY5amm4KE1/TVsv7nmh7e/BlUytgw8uVBok5NY3rgVtG5D8cebhsQMf
3MWABjCC1pUMoyJim8bjsjZxTu+pkPFSKTa4A+x1LuECrwBsKPjyJZ7GaiUj8xQG
ILdocWYPVPckuoxnBBiRxhT6Csyj6ZQ9qQSl4Hs8938=
-----END CERTIFICATE-----
