Certificate:
    Data:
        Version: 3 (0x2)
        Serial Number: 10049 (0x2741)
    Signature Algorithm: sha256WithRSAEncryption
        Issuer: C=US, ST=OH, L=Columbus, O=VikingVPN, OU=MyOrganizationalUnit, CN=VikingVPN CA/name=EasyRSA/emailAddress=me@myhost.mydomain
        Validity
            Not Before: Feb  4 14:57:59 2017 GMT
            Not After : Feb  2 14:57:59 2027 GMT
        Subject: CN=Client2713Certc3717e
        Subject Public Key Info:
            Public Key Algorithm: rsaEncryption
                Public-Key: (4096 bit)
                Modulus:
                    00:bd:8d:3a:0d:4e:86:5e:b8:99:aa:51:45:01:18:
                    e3:1a:df:6f:58:17:d3:de:13:c1:0f:d9:f2:ab:1e:
                    72:de:5f:a4:1b:d1:af:ae:cb:f1:5e:6f:89:92:c4:
                    45:7f:83:32:4c:df:08:9a:f7:b7:0f:60:5b:f2:d9:
                    35:ff:d2:f1:b2:67:18:dc:0f:a4:91:35:33:60:b2:
                    eb:01:e5:b6:d4:1a:6e:d8:fe:b0:1e:1a:5b:d0:b8:
                    11:cf:81:ca:8d:76:98:61:64:c2:99:0d:e8:12:f9:
                    69:44:0a:4a:f5:e3:da:c0:51:97:8d:7a:fa:ac:46:
                    80:be:d9:68:bf:a5:60:32:37:de:79:8c:5e:80:2b:
                    ab:6a:74:ef:03:4a:0b:56:d4:93:b0:60:fd:74:c6:
                    35:d2:7c:ae:ad:0a:60:fb:37:4b:ed:26:47:59:47:
                    a4:d7:02:22:8b:e7:b8:d8:f4:ac:d7:c4:18:85:98:
                    54:28:8f:5c:7f:93:36:1b:f5:57:1d:5e:b1:63:38:
                    10:9e:24:19:eb:33:78:26:d8:ea:f8:f7:50:11:9d:
                    b7:78:f5:c4:07:f6:42:75:c3:48:f0:b6:9c:63:75:
                    50:b7:26:7c:b3:b1:e2:69:c5:a1:dc:9d:57:1f:1d:
                    55:e8:e1:c5:dd:04:3e:95:8d:13:d7:d6:b2:e6:16:
                    d7:eb:ee:cc:29:1c:28:7a:83:53:2e:c5:73:6c:32:
                    06:d7:4d:ff:5f:78:8e:3f:46:39:5a:9c:b0:91:eb:
                    ee:dd:b5:a0:74:32:b3:99:1a:ca:ce:4a:3f:7b:4b:
                    dd:4f:f5:f2:b6:18:d0:ef:5e:01:ef:0a:f3:4f:06:
                    df:77:2d:67:32:97:20:05:1f:3a:b9:f1:fc:20:70:
                    cc:1d:7f:60:8f:0c:3b:b4:73:93:ba:9c:6f:db:21:
                    bb:2d:d4:01:33:2d:3c:38:5a:6f:8f:1c:27:67:9d:
                    1d:7b:93:90:5a:27:3b:20:cf:11:91:67:ee:b2:f3:
                    b0:80:40:35:85:88:e6:cf:7f:71:2c:5b:ce:6d:50:
                    90:0e:da:78:1e:30:d1:03:44:29:49:af:15:2d:2a:
                    22:53:2a:ef:e1:b8:bd:30:f7:ec:53:81:5d:53:ce:
                    a8:90:c6:e6:d7:24:2c:3e:af:7e:50:1a:1a:30:ca:
                    c8:8b:65:e6:81:f9:55:e1:a4:2a:12:81:39:86:ff:
                    ac:a1:6a:e9:ea:48:b0:58:6d:60:d6:e7:e2:d6:d6:
                    e2:aa:ca:f7:b1:b7:f3:2e:bf:ab:4d:d2:eb:a4:94:
                    09:f4:51:07:45:ca:2d:27:fd:0b:7f:ae:5f:09:cd:
                    55:14:0b:e5:b4:79:42:66:92:7a:fa:4c:65:61:be:
                    e9:01:0f
                Exponent: 65537 (0x10001)
        X509v3 extensions:
            X509v3 Basic Constraints: 
                CA:FALSE
            Netscape Comment: 
                Easy-RSA Generated Certificate
            X509v3 Subject Key Identifier: 
                AB:35:5B:A4:A5:B7:6D:86:C2:F0:76:C0:C2:2F:6D:35:C6:4E:89:F7
            X509v3 Authority Key Identifier: 
                keyid:12:CD:60:04:D2:A0:80:9E:70:ED:C6:99:B8:7B:2C:C6:52:FD:19:A1
                DirName:/C=US/ST=OH/L=Columbus/O=VikingVPN/OU=MyOrganizationalUnit/CN=VikingVPN CA/name=EasyRSA/emailAddress=me@myhost.mydomain
                serial:CF:35:85:EE:80:BF:2A:3E

            X509v3 Extended Key Usage: 
                TLS Web Client Authentication
            X509v3 Key Usage: 
                Digital Signature
    Signature Algorithm: sha256WithRSAEncryption
         10:7f:3e:de:e7:9b:5d:8e:60:ee:aa:b6:15:08:fd:0f:e4:27:
         1b:5b:aa:69:fa:6a:e7:0d:35:48:17:7f:48:e8:9b:00:f0:51:
         c1:5e:59:de:ab:a2:d0:95:e0:88:ca:f1:b1:49:ac:9a:8e:36:
         d8:82:4f:8b:1b:fe:2c:26:9f:71:99:1a:d5:9d:c0:7f:5b:67:
         1c:a4:d2:9e:87:09:3d:a6:fa:11:9c:18:6b:5d:2c:81:6f:c9:
         e6:5a:10:cd:88:df:50:93:8b:5c:15:f0:6f:b8:0b:4a:42:14:
         25:8c:46:8f:88:f7:cf:aa:e2:24:0a:9d:ad:21:7d:d3:24:76:
         68:04:9b:2a:1e:9b:a9:e7:60:2f:30:f7:6c:e4:8f:8a:a6:86:
         8f:fd:43:6b:c0:1e:86:91:bb:1d:86:0f:9f:fa:79:a9:86:9a:
         a3:0e:0d:45:c5:11:3a:02:3e:fd:24:28:47:5a:64:19:a1:0e:
         56:c7:95:8f:4f:9e:2c:a6:45:bc:c1:3d:7b:fd:47:9e:34:92:
         f0:aa:4e:78:dd:92:a9:71:81:db:bb:98:02:c3:d6:98:1b:f3:
         e5:d4:ec:ee:3c:e5:06:b1:c2:65:ae:ef:58:f2:ee:77:3a:ea:
         76:9a:65:d2:38:69:31:b6:e5:12:cc:25:9b:ed:0f:83:be:91:
         99:93:99:74:40:f7:50:c0:9f:1b:3b:87:5d:f7:7c:26:1f:b6:
         bb:51:66:ec:61:20:c5:11:42:cc:6f:3d:b3:8a:c7:0a:54:09:
         80:55:78:39:35:54:d0:ef:29:f5:2b:18:30:49:c4:e7:bd:30:
         78:77:1d:1b:a0:85:16:78:ea:e0:23:19:bb:50:2e:f7:e5:fb:
         33:ce:fd:c1:91:4d:25:a7:3a:db:27:d3:a0:b8:ae:9f:db:8a:
         90:9a:0f:cb:79:c4:d9:85:e8:c5:48:9f:e2:b0:a9:2f:cc:5c:
         36:17:d1:99:0f:8b:9b:3c:45:46:ca:08:bd:23:f2:19:ee:38:
         56:69:c4:af:9b:db:c8:74:14:ee:16:23:9a:b6:29:54:a0:ed:
         8f:4e:9f:b8:c9:74:17:96:08:99:ab:16:ef:e5:28:f5:3b:6e:
         0e:7d:1c:a3:50:69:a8:85:10:e9:c0:12:78:eb:d4:5e:93:80:
         52:e2:74:5f:44:48:82:a2:c0:5d:8e:f4:47:37:71:fb:b4:51:
         33:6b:40:dd:4b:83:e5:7a:1b:cb:7c:0d:6e:a8:23:88:c7:8e:
         b8:2c:d8:fd:bf:6a:8d:f7:3b:9d:39:74:e4:15:7d:aa:2d:04:
         2d:9e:d5:df:a8:b9:e9:9d:bc:4d:24:b4:56:82:98:bf:99:96:
         bb:48:a5:f4:15:f4:30:be
-----BEGIN CERTIFICATE-----
MIIGrTCCBJWgAwIBAgICJ0EwDQYJKoZIhvcNAQELBQAwgawxCzAJBgNVBAYTAlVT
MQswCQYDVQQIEwJPSDERMA8GA1UEBxMIQ29sdW1idXMxEjAQBgNVBAoTCVZpa2lu
Z1ZQTjEdMBsGA1UECxMUTXlPcmdhbml6YXRpb25hbFVuaXQxFTATBgNVBAMTDFZp
a2luZ1ZQTiBDQTEQMA4GA1UEKRMHRWFzeVJTQTEhMB8GCSqGSIb3DQEJARYSbWVA
bXlob3N0Lm15ZG9tYWluMB4XDTE3MDIwNDE0NTc1OVoXDTI3MDIwMjE0NTc1OVow
HzEdMBsGA1UEAxMUQ2xpZW50MjcxM0NlcnRjMzcxN2UwggIiMA0GCSqGSIb3DQEB
AQUAA4ICDwAwggIKAoICAQC9jToNToZeuJmqUUUBGOMa329YF9PeE8EP2fKrHnLe
X6Qb0a+uy/Feb4mSxEV/gzJM3wia97cPYFvy2TX/0vGyZxjcD6SRNTNgsusB5bbU
Gm7Y/rAeGlvQuBHPgcqNdphhZMKZDegS+WlECkr149rAUZeNevqsRoC+2Wi/pWAy
N955jF6AK6tqdO8DSgtW1JOwYP10xjXSfK6tCmD7N0vtJkdZR6TXAiKL57jY9KzX
xBiFmFQoj1x/kzYb9VcdXrFjOBCeJBnrM3gm2Or491ARnbd49cQH9kJ1w0jwtpxj
dVC3JnyzseJpxaHcnVcfHVXo4cXdBD6VjRPX1rLmFtfr7swpHCh6g1MuxXNsMgbX
Tf9feI4/RjlanLCR6+7dtaB0MrOZGsrOSj97S91P9fK2GNDvXgHvCvNPBt93LWcy
lyAFHzq58fwgcMwdf2CPDDu0c5O6nG/bIbst1AEzLTw4Wm+PHCdnnR17k5BaJzsg
zxGRZ+6y87CAQDWFiObPf3EsW85tUJAO2ngeMNEDRClJrxUtKiJTKu/huL0w9+xT
gV1TzqiQxubXJCw+r35QGhowysiLZeaB+VXhpCoSgTmG/6yhaunqSLBYbWDW5+LW
1uKqyvext/Muv6tN0uuklAn0UQdFyi0n/Qt/rl8JzVUUC+W0eUJmknr6TGVhvukB
DwIDAQABo4IBYzCCAV8wCQYDVR0TBAIwADAtBglghkgBhvhCAQ0EIBYeRWFzeS1S
U0EgR2VuZXJhdGVkIENlcnRpZmljYXRlMB0GA1UdDgQWBBSrNVukpbdthsLwdsDC
L201xk6J9zCB4QYDVR0jBIHZMIHWgBQSzWAE0qCAnnDtxpm4eyzGUv0ZoaGBsqSB
rzCBrDELMAkGA1UEBhMCVVMxCzAJBgNVBAgTAk9IMREwDwYDVQQHEwhDb2x1bWJ1
czESMBAGA1UEChMJVmlraW5nVlBOMR0wGwYDVQQLExRNeU9yZ2FuaXphdGlvbmFs
VW5pdDEVMBMGA1UEAxMMVmlraW5nVlBOIENBMRAwDgYDVQQpEwdFYXN5UlNBMSEw
HwYJKoZIhvcNAQkBFhJtZUBteWhvc3QubXlkb21haW6CCQDPNYXugL8qPjATBgNV
HSUEDDAKBggrBgEFBQcDAjALBgNVHQ8EBAMCB4AwDQYJKoZIhvcNAQELBQADggIB
ABB/Pt7nm12OYO6qthUI/Q/kJxtbqmn6aucNNUgXf0jomwDwUcFeWd6rotCV4IjK
8bFJrJqONtiCT4sb/iwmn3GZGtWdwH9bZxyk0p6HCT2m+hGcGGtdLIFvyeZaEM2I
31CTi1wV8G+4C0pCFCWMRo+I98+q4iQKna0hfdMkdmgEmyoem6nnYC8w92zkj4qm
ho/9Q2vAHoaRux2GD5/6eamGmqMODUXFEToCPv0kKEdaZBmhDlbHlY9PniymRbzB
PXv9R540kvCqTnjdkqlxgdu7mALD1pgb8+XU7O485QaxwmWu71jy7nc66naaZdI4
aTG25RLMJZvtD4O+kZmTmXRA91DAnxs7h133fCYftrtRZuxhIMURQsxvPbOKxwpU
CYBVeDk1VNDvKfUrGDBJxOe9MHh3HRughRZ46uAjGbtQLvfl+zPO/cGRTSWnOtsn
06C4rp/bipCaD8t5xNmF6MVIn+KwqS/MXDYX0ZkPi5s8RUbKCL0j8hnuOFZpxK+b
28h0FO4WI5q2KVSg7Y9On7jJdBeWCJmrFu/lKPU7bg59HKNQaaiFEOnAEnjr1F6T
gFLidF9ESIKiwF2O9Ec3cfu0UTNrQN1Lg+V6G8t8DW6oI4jHjrgs2P2/ao33O505
dOQVfaotBC2e1d+ouemdvE0ktFaCmL+ZlrtIpfQV9DC+
-----END CERTIFICATE-----
