Certificate:
    Data:
        Version: 3 (0x2)
        Serial Number: 3980 (0xf8c)
    Signature Algorithm: md5WithRSAEncryption
        Issuer: C=US, ST=OH, L=Columbus, O=VikingVPN, OU=MyOrganizationalUnit, CN=VikingVPN CA/name=EasyRSA/emailAddress=me@myhost.mydomain
        Validity
            Not Before: Jan  2 22:56:38 2015 GMT
            Not After : Dec 30 22:56:38 2024 GMT
        Subject: CN=Client1325Certebea47
        Subject Public Key Info:
            Public Key Algorithm: rsaEncryption
                Public-Key: (4096 bit)
                Modulus:
                    00:b0:87:f0:3d:0d:3f:c4:09:1c:53:1f:bd:f9:24:
                    cb:7c:90:6b:90:13:fa:df:c9:25:17:b4:7e:15:11:
                    e0:32:f9:a7:a6:20:e0:d2:a7:8b:fc:6d:33:6e:c5:
                    64:17:28:9a:c1:55:12:d0:c2:4f:13:96:d4:9a:18:
                    6c:29:26:36:e4:e7:18:35:3b:49:ad:f7:64:35:61:
                    f8:f8:75:ba:69:cf:97:50:0b:dc:09:af:9b:cc:df:
                    ca:dc:47:0a:86:f7:fc:df:38:58:49:b2:67:c5:d1:
                    0f:33:58:e6:39:0a:fb:ee:f2:97:7c:ed:b9:17:e9:
                    69:05:73:2b:26:58:2b:90:35:f1:18:69:db:29:44:
                    a7:c4:e0:89:7c:59:10:8a:0d:b9:44:74:82:30:e5:
                    e0:52:a5:dd:c6:99:eb:65:f7:35:0c:8d:76:b1:67:
                    bd:6d:f6:19:a0:31:9d:29:91:bd:b0:c3:3a:f8:41:
                    3f:63:7c:70:6c:a5:7a:a6:24:2a:f4:89:04:92:b3:
                    a6:90:11:ab:9d:df:b1:39:57:e3:95:7f:f9:0a:a4:
                    53:9f:01:8e:40:5d:a3:6f:8f:af:eb:04:57:13:f0:
                    ac:27:0c:e4:d9:e4:86:c4:bf:6d:c0:f2:9d:36:18:
                    a4:7b:39:e3:eb:16:26:47:f1:d3:80:43:9a:78:8f:
                    ce:37:e9:47:de:82:dd:bd:58:86:77:c4:14:3a:c5:
                    97:a2:15:6f:ac:7f:19:40:3a:c0:7a:be:fd:df:f7:
                    97:e4:05:c1:57:64:30:af:5b:4a:ce:94:55:8e:7b:
                    de:d7:31:c3:1c:65:91:5e:37:59:48:67:70:ab:88:
                    2d:b7:fa:8d:d0:6c:8c:dd:d9:ff:f1:c7:fc:e3:0d:
                    9f:21:a0:1a:96:5b:af:f6:a1:10:0e:a0:80:44:ef:
                    40:db:ad:ad:6a:a6:e5:19:a3:7c:e1:5a:aa:de:d5:
                    f6:7d:54:fb:38:5b:85:69:50:33:1a:be:e9:d6:5f:
                    59:2c:b7:30:9c:9e:01:68:bc:4d:f8:71:8d:04:16:
                    28:42:15:11:ca:7c:3d:9b:60:c7:ed:8f:e1:b7:71:
                    fd:2c:02:ff:b8:a3:a7:42:ae:10:ec:4b:72:f1:8f:
                    8f:77:5f:39:d7:a8:7c:ee:b3:25:db:f0:a9:d3:89:
                    e6:98:e0:43:ab:c2:1c:dd:cb:59:57:06:ef:92:4b:
                    9d:14:79:2b:04:0f:85:38:f3:35:49:68:24:0b:08:
                    fb:0f:ad:a1:74:26:a4:35:c8:df:6b:88:a0:9e:95:
                    82:ea:37:c0:e2:3d:1c:8f:4b:d5:7e:81:bb:f7:9a:
                    8d:e3:72:c2:46:65:04:0c:f8:68:20:af:c2:91:22:
                    8e:b2:d3
                Exponent: 65537 (0x10001)
        X509v3 extensions:
            X509v3 Basic Constraints: 
                CA:FALSE
            Netscape Comment: 
                Easy-RSA Generated Certificate
            X509v3 Subject Key Identifier: 
                19:4B:9D:79:DC:89:2B:7A:B6:CC:00:76:B3:C2:5C:43:80:31:A7:84
            X509v3 Authority Key Identifier: 
                keyid:12:CD:60:04:D2:A0:80:9E:70:ED:C6:99:B8:7B:2C:C6:52:FD:19:A1
                DirName:/C=US/ST=OH/L=Columbus/O=VikingVPN/OU=MyOrganizationalUnit/CN=VikingVPN CA/name=EasyRSA/emailAddress=me@myhost.mydomain
                serial:CF:35:85:EE:80:BF:2A:3E

            X509v3 Extended Key Usage: 
                TLS Web Client Authentication
            X509v3 Key Usage: 
                Digital Signature
    Signature Algorithm: md5WithRSAEncryption
         0b:8b:48:d2:27:81:9c:73:76:d1:e9:26:53:11:93:ef:0e:08:
         f5:b5:e4:b7:c4:03:0d:bc:00:1b:48:41:6c:fe:97:7c:a5:c0:
         ad:c0:88:87:96:21:75:18:af:81:e9:09:2f:0a:ee:fc:4b:1b:
         a1:2f:ed:6e:43:fe:5c:e9:b3:76:ac:b1:89:27:1d:49:82:13:
         7a:01:ba:1a:0f:cd:7a:98:af:fe:81:08:25:ff:ed:0e:ad:63:
         4c:46:3c:03:c2:ca:ab:37:a2:53:9e:bb:1d:fd:3a:a2:85:77:
         ad:2a:89:9d:4a:9a:20:fe:b2:18:5b:a8:16:5b:71:56:1b:2c:
         c4:48:b8:93:c0:5f:6e:b1:ec:0c:9f:67:d2:d2:ad:97:da:98:
         80:c0:d8:27:e3:cc:a1:0a:2c:b0:e9:86:00:99:74:b4:7b:38:
         ad:1f:ca:7c:32:71:71:2d:36:b6:29:d4:91:6f:93:f5:4b:c7:
         d0:c3:b5:e6:87:e6:97:84:66:91:f5:6b:20:c7:b7:c9:3a:34:
         74:fe:64:1d:43:f7:40:7e:15:2e:83:2d:02:cc:83:e8:16:a0:
         77:26:5b:41:45:cc:e6:b3:be:11:ef:f0:02:ac:5e:1c:8c:d1:
         2a:ac:2c:12:33:ae:aa:e8:e2:35:19:63:c7:6d:88:f6:c3:e4:
         8b:cc:55:fa:c6:76:7f:e4:f1:0e:52:e4:e0:bc:37:2e:46:b1:
         59:8b:22:de:64:b6:f7:38:07:bb:7a:08:34:20:bd:e5:ce:92:
         48:e4:0f:2f:2e:62:55:4e:81:28:8c:d2:b1:48:ff:61:96:c9:
         43:2c:fe:7e:71:57:b7:7a:c6:9e:6c:65:39:6a:93:c6:b6:7d:
         1f:5f:e9:0b:6a:42:b0:72:57:34:7a:04:32:53:ba:3a:88:89:
         64:1c:fc:cd:e2:7a:9b:cd:df:bd:b2:9e:f7:db:8a:38:e1:d9:
         7e:3c:1b:16:ba:c2:1c:c5:41:45:6d:4c:cd:65:7c:ea:6f:ea:
         27:90:c4:cb:dc:f9:83:fa:b3:fa:7c:74:c1:5b:7b:6c:20:f1:
         f3:47:ff:1a:f4:79:97:5a:29:f4:cb:24:6d:9d:bb:b8:06:b2:
         c1:97:64:69:bd:3d:05:39:65:cf:31:27:9b:aa:c8:98:16:13:
         59:7d:f8:05:20:24:51:73:db:8e:74:ca:f8:02:bc:40:81:cc:
         70:29:f1:db:11:6d:e6:56:da:ab:e8:0e:3a:1c:4b:2c:0c:d5:
         29:88:5c:5c:63:ea:4e:0f:0a:57:2f:1a:21:e4:3c:36:c7:8a:
         6b:5e:c4:be:8c:ca:f1:61:13:36:85:56:60:87:e9:8f:e6:52:
         29:43:f8:ec:71:01:a1:52
-----BEGIN CERTIFICATE-----
MIIGrTCCBJWgAwIBAgICD4wwDQYJKoZIhvcNAQEEBQAwgawxCzAJBgNVBAYTAlVT
MQswCQYDVQQIEwJPSDERMA8GA1UEBxMIQ29sdW1idXMxEjAQBgNVBAoTCVZpa2lu
Z1ZQTjEdMBsGA1UECxMUTXlPcmdhbml6YXRpb25hbFVuaXQxFTATBgNVBAMTDFZp
a2luZ1ZQTiBDQTEQMA4GA1UEKRMHRWFzeVJTQTEhMB8GCSqGSIb3DQEJARYSbWVA
bXlob3N0Lm15ZG9tYWluMB4XDTE1MDEwMjIyNTYzOFoXDTI0MTIzMDIyNTYzOFow
HzEdMBsGA1UEAxMUQ2xpZW50MTMyNUNlcnRlYmVhNDcwggIiMA0GCSqGSIb3DQEB
AQUAA4ICDwAwggIKAoICAQCwh/A9DT/ECRxTH735JMt8kGuQE/rfySUXtH4VEeAy
+aemIODSp4v8bTNuxWQXKJrBVRLQwk8TltSaGGwpJjbk5xg1O0mt92Q1Yfj4dbpp
z5dQC9wJr5vM38rcRwqG9/zfOFhJsmfF0Q8zWOY5Cvvu8pd87bkX6WkFcysmWCuQ
NfEYadspRKfE4Il8WRCKDblEdIIw5eBSpd3Gmetl9zUMjXaxZ71t9hmgMZ0pkb2w
wzr4QT9jfHBspXqmJCr0iQSSs6aQEaud37E5V+OVf/kKpFOfAY5AXaNvj6/rBFcT
8KwnDOTZ5IbEv23A8p02GKR7OePrFiZH8dOAQ5p4j8436Ufegt29WIZ3xBQ6xZei
FW+sfxlAOsB6vv3f95fkBcFXZDCvW0rOlFWOe97XMcMcZZFeN1lIZ3CriC23+o3Q
bIzd2f/xx/zjDZ8hoBqWW6/2oRAOoIBE70Dbra1qpuUZo3zhWqre1fZ9VPs4W4Vp
UDMavunWX1kstzCcngFovE34cY0EFihCFRHKfD2bYMftj+G3cf0sAv+4o6dCrhDs
S3Lxj493XznXqHzusyXb8KnTieaY4EOrwhzdy1lXBu+SS50UeSsED4U48zVJaCQL
CPsPraF0JqQ1yN9riKCelYLqN8DiPRyPS9V+gbv3mo3jcsJGZQQM+Gggr8KRIo6y
0wIDAQABo4IBYzCCAV8wCQYDVR0TBAIwADAtBglghkgBhvhCAQ0EIBYeRWFzeS1S
U0EgR2VuZXJhdGVkIENlcnRpZmljYXRlMB0GA1UdDgQWBBQZS5153IkrerbMAHaz
wlxDgDGnhDCB4QYDVR0jBIHZMIHWgBQSzWAE0qCAnnDtxpm4eyzGUv0ZoaGBsqSB
rzCBrDELMAkGA1UEBhMCVVMxCzAJBgNVBAgTAk9IMREwDwYDVQQHEwhDb2x1bWJ1
czESMBAGA1UEChMJVmlraW5nVlBOMR0wGwYDVQQLExRNeU9yZ2FuaXphdGlvbmFs
VW5pdDEVMBMGA1UEAxMMVmlraW5nVlBOIENBMRAwDgYDVQQpEwdFYXN5UlNBMSEw
HwYJKoZIhvcNAQkBFhJtZUBteWhvc3QubXlkb21haW6CCQDPNYXugL8qPjATBgNV
HSUEDDAKBggrBgEFBQcDAjALBgNVHQ8EBAMCB4AwDQYJKoZIhvcNAQEEBQADggIB
AAuLSNIngZxzdtHpJlMRk+8OCPW15LfEAw28ABtIQWz+l3ylwK3AiIeWIXUYr4Hp
CS8K7vxLG6Ev7W5D/lzps3assYknHUmCE3oBuhoPzXqYr/6BCCX/7Q6tY0xGPAPC
yqs3olOeux39OqKFd60qiZ1KmiD+shhbqBZbcVYbLMRIuJPAX26x7AyfZ9LSrZfa
mIDA2CfjzKEKLLDphgCZdLR7OK0fynwycXEtNrYp1JFvk/VLx9DDteaH5peEZpH1
ayDHt8k6NHT+ZB1D90B+FS6DLQLMg+gWoHcmW0FFzOazvhHv8AKsXhyM0SqsLBIz
rqro4jUZY8dtiPbD5IvMVfrGdn/k8Q5S5OC8Ny5GsVmLIt5ktvc4B7t6CDQgveXO
kkjkDy8uYlVOgSiM0rFI/2GWyUMs/n5xV7d6xp5sZTlqk8a2fR9f6QtqQrByVzR6
BDJTujqIiWQc/M3iepvN372ynvfbijjh2X48Gxa6whzFQUVtTM1lfOpv6ieQxMvc
+YP6s/p8dMFbe2wg8fNH/xr0eZdaKfTLJG2du7gGssGXZGm9PQU5Zc8xJ5uqyJgW
E1l9+AUgJFFz2450yvgCvECBzHAp8dsRbeZW2qvoDjocSywM1SmIXFxj6k4PClcv
GiHkPDbHimtexL6MyvFhEzaFVmCH6Y/mUilD+OxxAaFS
-----END CERTIFICATE-----
