Certificate:
    Data:
        Version: 3 (0x2)
        Serial Number: 2239 (0x8bf)
    Signature Algorithm: md5WithRSAEncryption
        Issuer: C=US, ST=OH, L=Columbus, O=VikingVPN, OU=MyOrganizationalUnit, CN=VikingVPN CA/name=EasyRSA/emailAddress=me@myhost.mydomain
        Validity
            Not Before: Jul 11 04:29:14 2014 GMT
            Not After : Jul  8 04:29:14 2024 GMT
        Subject: CN=Client790Certf78ef4
        Subject Public Key Info:
            Public Key Algorithm: rsaEncryption
                Public-Key: (4096 bit)
                Modulus:
                    00:e4:a6:fa:09:08:e3:a1:eb:9d:1d:da:f2:5f:38:
                    0f:e9:68:20:56:56:c0:f5:62:d9:44:ee:99:69:ad:
                    18:04:af:ac:9c:58:80:54:ff:2d:50:52:c1:34:fe:
                    95:ca:bf:64:b4:ed:17:59:0b:81:fc:8a:54:43:3f:
                    b7:fb:39:04:ad:06:6d:5f:c4:8e:bf:9e:87:cb:0d:
                    ba:78:28:79:2e:a9:71:69:bf:a7:68:cf:9e:88:6a:
                    7c:6f:37:c0:5e:63:af:4b:74:4d:52:55:e9:60:c7:
                    e5:34:e3:b8:76:96:7b:75:44:9b:c1:04:58:3d:bc:
                    03:45:b0:7b:81:fe:12:fd:54:c7:0a:3c:8e:53:50:
                    aa:9d:da:a1:64:27:71:73:a9:28:95:52:42:a2:b4:
                    f6:0a:d6:95:8e:c7:b0:7b:e2:c1:94:b4:32:78:64:
                    14:f8:17:b5:7d:c4:52:91:0f:8a:df:29:0f:0a:37:
                    c0:04:50:85:9b:43:74:41:c9:57:a8:4e:74:79:b3:
                    55:11:a3:46:9e:f3:22:86:4c:a6:bf:2b:84:82:74:
                    77:78:26:44:4f:ac:45:9a:06:7e:45:54:8a:fa:00:
                    74:82:ae:ca:51:78:0d:44:40:8e:da:5a:fb:e6:14:
                    45:0e:f0:6e:c4:d9:ce:39:54:b3:32:a8:b3:f0:25:
                    0f:01:de:17:34:c3:20:3c:ff:5d:7d:29:e1:5c:b0:
                    23:3c:fc:ef:e5:ee:b8:ae:3a:fc:18:02:bd:31:64:
                    ca:08:89:76:4d:62:a2:1b:f0:09:03:99:f7:d4:3f:
                    f6:13:09:e1:27:2a:28:74:59:1b:1d:c1:b1:fd:65:
                    a3:4f:1e:60:5a:f3:20:c6:d6:4e:e1:f6:a9:ac:b9:
                    bf:f3:b9:3d:db:a2:f7:65:61:bc:b2:ee:b6:2d:5d:
                    25:da:ac:bd:77:0d:a7:ec:74:18:44:79:cc:ce:89:
                    4f:f0:c0:ef:e6:78:da:63:e3:2f:a0:6d:9e:12:71:
                    cb:93:52:62:42:ad:83:a7:c6:ef:83:ab:66:07:74:
                    e0:93:f3:31:4b:99:86:dc:cf:65:f6:94:7b:0c:64:
                    36:cc:2e:16:f3:fa:ed:c4:a9:23:f9:a6:b9:3c:d3:
                    72:7e:12:b9:40:07:bd:64:e9:ff:6b:ef:27:30:99:
                    a1:c9:a4:27:56:eb:a4:31:e1:16:a1:74:5d:9e:de:
                    7d:9d:18:ae:cd:1a:3e:2b:26:45:c4:86:10:58:bf:
                    56:66:44:55:f9:0d:a4:a3:12:c1:53:23:59:62:6b:
                    13:d1:f6:a5:aa:ba:65:36:77:6d:e5:11:77:27:ba:
                    b0:f1:96:38:72:7e:da:b2:70:21:af:57:c7:18:7b:
                    93:59:87
                Exponent: 65537 (0x10001)
        X509v3 extensions:
            X509v3 Basic Constraints: 
                CA:FALSE
            Netscape Comment: 
                Easy-RSA Generated Certificate
            X509v3 Subject Key Identifier: 
                83:5F:64:F0:45:D1:81:9C:C7:12:88:B6:32:A9:D0:6C:23:B1:02:C9
            X509v3 Authority Key Identifier: 
                keyid:12:CD:60:04:D2:A0:80:9E:70:ED:C6:99:B8:7B:2C:C6:52:FD:19:A1
                DirName:/C=US/ST=OH/L=Columbus/O=VikingVPN/OU=MyOrganizationalUnit/CN=VikingVPN CA/name=EasyRSA/emailAddress=me@myhost.mydomain
                serial:CF:35:85:EE:80:BF:2A:3E

            X509v3 Extended Key Usage: 
                TLS Web Client Authentication
            X509v3 Key Usage: 
                Digital Signature
    Signature Algorithm: md5WithRSAEncryption
         b4:e5:15:6e:eb:eb:8f:c5:14:46:18:cf:5f:1b:2e:7e:4e:16:
         7d:d3:dc:06:ca:16:2c:21:a0:d2:c7:c9:08:e2:d5:0b:6c:88:
         e8:e0:16:cb:01:5f:3b:c1:e2:23:a9:d8:8d:a1:2c:1a:69:6d:
         c4:3b:6e:ad:b8:e3:c3:31:3d:b5:54:6e:5e:a6:24:f4:db:d4:
         b2:c9:59:72:6a:f6:26:f6:d9:2b:8b:e5:e7:b0:f7:50:d9:02:
         55:43:51:61:9f:7a:38:e0:12:6a:03:67:a6:df:fa:9b:a2:87:
         d8:30:68:37:f4:04:88:2e:e7:cf:60:3b:b9:af:bd:3c:05:bf:
         5e:3b:90:aa:c4:8e:70:4e:48:a0:17:00:e5:8d:5e:f4:7c:6e:
         e7:92:28:b6:9b:3d:e1:9b:53:32:5e:89:b6:f4:a2:44:a3:3a:
         10:cb:f3:c0:aa:05:5f:9f:fb:f6:54:e1:e7:0c:98:fe:1e:70:
         f9:16:f3:4e:11:65:7a:aa:47:46:27:b0:a4:06:44:7e:64:d0:
         df:61:09:41:c8:4c:0d:a4:0c:28:2d:b1:0b:e9:ca:62:4b:df:
         96:21:6c:b3:99:7b:3d:83:5c:af:69:41:77:20:94:f0:a5:1f:
         7d:c3:d2:7d:50:a7:fc:3c:50:66:50:7b:0e:9b:b3:2a:fa:4c:
         5a:1c:5c:08:fb:89:90:b4:5b:8f:25:c2:b1:f6:9c:be:97:2a:
         5f:18:44:b8:f3:17:86:02:ee:f7:83:7e:47:37:ea:b3:2b:71:
         90:65:51:4a:e2:bc:7a:31:a3:14:cc:73:f8:b3:34:2b:c8:a5:
         56:44:45:a3:c7:cf:1f:b4:74:f8:12:3e:8a:36:94:12:8e:e8:
         bf:79:92:de:75:ec:7a:8d:f6:4f:d6:c2:03:63:bd:cb:3b:26:
         e5:d0:45:49:e6:29:52:0e:d2:f3:dc:3a:c7:77:54:ba:34:a4:
         fc:b0:34:4d:83:50:58:63:eb:5e:de:4b:47:2a:5a:95:df:27:
         3c:93:7f:22:0d:94:37:a1:70:d7:28:bd:81:01:49:bd:ee:23:
         05:5c:e8:75:87:aa:e0:1b:da:91:0e:87:0d:1e:cf:6a:a7:60:
         68:52:e5:25:bf:15:1a:6a:2d:a7:b8:df:e0:f3:30:54:9c:e8:
         1b:a2:d8:ea:42:9f:5c:41:6d:9e:32:03:6f:0b:24:7c:04:9a:
         50:98:4a:eb:31:dc:53:bd:b8:b6:fa:50:d3:d3:89:6b:04:1a:
         6e:04:59:0b:5e:a5:92:c3:de:9c:9d:57:06:ae:69:18:b2:88:
         1d:80:c4:9d:90:6d:d9:85:3d:8a:44:fb:f0:6b:d3:91:b5:c5:
         39:8b:56:f6:66:7f:a2:bb
-----BEGIN CERTIFICATE-----
MIIGrDCCBJSgAwIBAgICCL8wDQYJKoZIhvcNAQEEBQAwgawxCzAJBgNVBAYTAlVT
MQswCQYDVQQIEwJPSDERMA8GA1UEBxMIQ29sdW1idXMxEjAQBgNVBAoTCVZpa2lu
Z1ZQTjEdMBsGA1UECxMUTXlPcmdhbml6YXRpb25hbFVuaXQxFTATBgNVBAMTDFZp
a2luZ1ZQTiBDQTEQMA4GA1UEKRMHRWFzeVJTQTEhMB8GCSqGSIb3DQEJARYSbWVA
bXlob3N0Lm15ZG9tYWluMB4XDTE0MDcxMTA0MjkxNFoXDTI0MDcwODA0MjkxNFow
HjEcMBoGA1UEAxMTQ2xpZW50NzkwQ2VydGY3OGVmNDCCAiIwDQYJKoZIhvcNAQEB
BQADggIPADCCAgoCggIBAOSm+gkI46HrnR3a8l84D+loIFZWwPVi2UTumWmtGASv
rJxYgFT/LVBSwTT+lcq/ZLTtF1kLgfyKVEM/t/s5BK0GbV/Ejr+eh8sNungoeS6p
cWm/p2jPnohqfG83wF5jr0t0TVJV6WDH5TTjuHaWe3VEm8EEWD28A0Wwe4H+Ev1U
xwo8jlNQqp3aoWQncXOpKJVSQqK09grWlY7HsHviwZS0MnhkFPgXtX3EUpEPit8p
Dwo3wARQhZtDdEHJV6hOdHmzVRGjRp7zIoZMpr8rhIJ0d3gmRE+sRZoGfkVUivoA
dIKuylF4DURAjtpa++YURQ7wbsTZzjlUszKos/AlDwHeFzTDIDz/XX0p4VywIzz8
7+XuuK46/BgCvTFkygiJdk1iohvwCQOZ99Q/9hMJ4ScqKHRZGx3Bsf1lo08eYFrz
IMbWTuH2qay5v/O5Pdui92VhvLLuti1dJdqsvXcNp+x0GER5zM6JT/DA7+Z42mPj
L6BtnhJxy5NSYkKtg6fG74OrZgd04JPzMUuZhtzPZfaUewxkNswuFvP67cSpI/mm
uTzTcn4SuUAHvWTp/2vvJzCZocmkJ1brpDHhFqF0XZ7efZ0Yrs0aPismRcSGEFi/
VmZEVfkNpKMSwVMjWWJrE9H2paq6ZTZ3beURdye6sPGWOHJ+2rJwIa9Xxxh7k1mH
AgMBAAGjggFjMIIBXzAJBgNVHRMEAjAAMC0GCWCGSAGG+EIBDQQgFh5FYXN5LVJT
QSBHZW5lcmF0ZWQgQ2VydGlmaWNhdGUwHQYDVR0OBBYEFINfZPBF0YGcxxKItjKp
0GwjsQLJMIHhBgNVHSMEgdkwgdaAFBLNYATSoICecO3Gmbh7LMZS/RmhoYGypIGv
MIGsMQswCQYDVQQGEwJVUzELMAkGA1UECBMCT0gxETAPBgNVBAcTCENvbHVtYnVz
MRIwEAYDVQQKEwlWaWtpbmdWUE4xHTAbBgNVBAsTFE15T3JnYW5pemF0aW9uYWxV
bml0MRUwEwYDVQQDEwxWaWtpbmdWUE4gQ0ExEDAOBgNVBCkTB0Vhc3lSU0ExITAf
BgkqhkiG9w0BCQEWEm1lQG15aG9zdC5teWRvbWFpboIJAM81he6Avyo+MBMGA1Ud
JQQMMAoGCCsGAQUFBwMCMAsGA1UdDwQEAwIHgDANBgkqhkiG9w0BAQQFAAOCAgEA
tOUVbuvrj8UURhjPXxsufk4WfdPcBsoWLCGg0sfJCOLVC2yI6OAWywFfO8HiI6nY
jaEsGmltxDturbjjwzE9tVRuXqYk9NvUsslZcmr2JvbZK4vl57D3UNkCVUNRYZ96
OOASagNnpt/6m6KH2DBoN/QEiC7nz2A7ua+9PAW/XjuQqsSOcE5IoBcA5Y1e9Hxu
55Iotps94ZtTMl6JtvSiRKM6EMvzwKoFX5/79lTh5wyY/h5w+RbzThFleqpHRiew
pAZEfmTQ32EJQchMDaQMKC2xC+nKYkvfliFss5l7PYNcr2lBdyCU8KUffcPSfVCn
/DxQZlB7DpuzKvpMWhxcCPuJkLRbjyXCsfacvpcqXxhEuPMXhgLu94N+Rzfqsytx
kGVRSuK8ejGjFMxz+LM0K8ilVkRFo8fPH7R0+BI+ijaUEo7ov3mS3nXseo32T9bC
A2O9yzsm5dBFSeYpUg7S89w6x3dUujSk/LA0TYNQWGPrXt5LRypald8nPJN/Ig2U
N6Fw1yi9gQFJve4jBVzodYeq4BvakQ6HDR7PaqdgaFLlJb8VGmotp7jf4PMwVJzo
G6LY6kKfXEFtnjIDbwskfASaUJhK6zHcU724tvpQ09OJawQabgRZC16lksPenJ1X
Bq5pGLKIHYDEnZBt2YU9ikT78GvTkbXFOYtW9mZ/ors=
-----END CERTIFICATE-----
