Certificate:
    Data:
        Version: 3 (0x2)
        Serial Number: 171 (0xab)
    Signature Algorithm: md5WithRSAEncryption
        Issuer: C=US, ST=OH, L=Columbus, O=VikingVPN, OU=MyOrganizationalUnit, CN=VikingVPN CA/name=EasyRSA/emailAddress=me@myhost.mydomain
        Validity
            Not Before: Sep 12 23:47:46 2013 GMT
            Not After : Sep 10 23:47:46 2023 GMT
        Subject: CN=Client92Certca1bde
        Subject Public Key Info:
            Public Key Algorithm: rsaEncryption
                Public-Key: (4096 bit)
                Modulus:
                    00:e2:8b:2a:8c:aa:c8:73:d3:73:44:e3:a3:ed:52:
                    80:92:51:a0:04:49:02:c3:cc:19:b7:b3:f5:5c:b2:
                    26:f1:e4:8a:91:77:b0:a0:ff:2b:a8:b9:5c:e6:e7:
                    d8:ae:62:c1:c3:c5:f5:29:be:6b:46:e1:5c:e1:e0:
                    d6:6b:3b:b4:f6:66:22:6d:48:d3:44:bb:27:a7:16:
                    59:27:b6:ca:0f:37:25:eb:f3:c7:d7:e6:a1:c0:31:
                    3e:95:c3:f3:0e:3c:2f:a2:2e:54:d0:c1:ee:07:86:
                    28:b9:ca:11:ae:77:d7:9c:68:d0:b7:45:47:1d:e5:
                    bb:d0:0f:31:b5:f6:25:94:b2:b4:28:14:18:2a:4d:
                    2e:1b:16:e8:cc:7d:fb:e3:e7:39:7e:c2:3a:89:a4:
                    ec:86:04:20:99:a3:e9:30:2a:cf:cd:b6:0d:49:41:
                    14:bb:35:00:31:76:ca:85:d5:69:86:5b:9d:2c:2d:
                    1a:0c:23:dc:28:da:bd:77:0a:b6:fd:2a:58:ad:64:
                    77:62:82:76:69:e4:fa:39:4f:fa:60:60:b3:07:78:
                    e9:98:78:98:c1:46:1d:58:24:3c:b2:2e:5d:05:6e:
                    ed:6e:a2:a1:f3:e9:4c:71:72:ef:18:76:0c:71:fb:
                    56:d5:18:09:bd:a4:c4:21:a5:67:4b:97:ce:99:1d:
                    99:9f:d6:7a:6b:f9:9b:a1:89:4c:82:9f:0e:d3:1a:
                    19:86:00:eb:8b:20:c9:d9:6a:b8:b4:c8:bd:8b:18:
                    99:b5:ef:14:ca:66:4b:08:69:fd:f9:34:95:78:f2:
                    6f:19:48:d5:e5:88:f5:d5:2f:ef:5a:78:bd:39:88:
                    23:96:61:e9:dd:3a:4d:7a:76:60:95:ea:e7:94:73:
                    10:47:66:7e:8b:c8:1e:64:cf:dc:9f:ec:0f:7f:6f:
                    1b:96:8e:b2:5b:bf:58:41:62:ce:76:49:93:3a:b2:
                    cd:67:d7:f5:14:13:0c:cc:bc:ff:e8:9d:33:bb:02:
                    cc:d0:7e:bd:19:9c:6f:59:2f:94:68:2e:51:f4:cc:
                    55:ad:af:4e:7f:fc:09:86:93:77:9b:0a:3f:a4:c6:
                    ae:f5:f8:ce:b9:b6:74:38:9a:d1:3c:e1:a2:58:4c:
                    f4:e4:cb:85:da:81:ea:7e:34:75:9a:8b:56:df:fe:
                    e7:94:8d:86:52:d0:9c:28:99:65:48:6b:23:1f:0c:
                    56:93:e6:76:6e:40:fc:72:4c:76:b3:07:82:1e:43:
                    ae:dd:49:bd:7c:e8:14:57:ad:5d:22:98:03:56:01:
                    88:ad:4e:a7:93:b6:c0:58:9b:ef:9f:93:67:71:eb:
                    31:9e:84:05:c5:01:67:07:67:92:a1:dc:d0:02:79:
                    77:5a:a1
                Exponent: 65537 (0x10001)
        X509v3 extensions:
            X509v3 Basic Constraints: 
                CA:FALSE
            Netscape Comment: 
                Easy-RSA Generated Certificate
            X509v3 Subject Key Identifier: 
                52:D2:5C:83:51:52:FB:AB:00:62:E7:F5:A4:C7:11:E6:AD:5F:86:10
            X509v3 Authority Key Identifier: 
                keyid:12:CD:60:04:D2:A0:80:9E:70:ED:C6:99:B8:7B:2C:C6:52:FD:19:A1
                DirName:/C=US/ST=OH/L=Columbus/O=VikingVPN/OU=MyOrganizationalUnit/CN=VikingVPN CA/name=EasyRSA/emailAddress=me@myhost.mydomain
                serial:CF:35:85:EE:80:BF:2A:3E

            X509v3 Extended Key Usage: 
                TLS Web Client Authentication
            X509v3 Key Usage: 
                Digital Signature
    Signature Algorithm: md5WithRSAEncryption
         76:7c:14:b7:f9:ef:0b:25:bd:7f:49:bc:d0:66:96:a1:31:7e:
         3f:3b:6c:5e:2f:e6:99:02:fb:fb:88:b5:48:e1:d8:3e:67:4a:
         06:47:e6:7c:1d:12:91:97:fa:c3:ed:cb:42:fb:e3:5d:ef:45:
         a0:66:3e:c4:06:14:72:28:a8:d2:17:7b:23:58:66:5d:1d:3f:
         00:b2:16:2d:7d:fa:67:64:df:a4:dc:ad:bf:a3:66:29:55:a3:
         42:61:df:a6:27:63:12:76:56:77:b7:ab:1c:fa:1a:62:63:cc:
         fa:a8:f1:23:5b:92:ad:00:b8:ee:4a:ba:e8:6d:d6:c3:33:17:
         93:df:b9:c2:0d:d3:02:1a:8c:81:38:95:09:6c:fd:22:dc:ee:
         f9:0e:f3:b2:0d:b6:58:82:14:cd:90:ee:50:fb:e2:c5:f9:5b:
         df:f4:b6:64:0e:58:a6:72:9c:c3:db:7f:d8:a7:9a:c5:52:97:
         25:6e:aa:7a:ee:5e:2c:b7:81:8d:1f:4d:75:3f:36:9a:f5:17:
         a8:af:b1:a8:75:4b:8c:38:7a:b3:79:53:e0:20:29:69:1b:b4:
         3f:dc:52:ac:56:af:16:37:59:df:86:2a:1c:2e:97:62:b3:58:
         76:ed:69:70:a4:ff:34:20:1c:34:59:91:34:b8:7c:de:c1:d5:
         64:cc:7d:ae:c6:e9:05:c4:07:f7:7f:a5:a6:b1:63:9f:a2:36:
         09:6b:a5:cb:ba:8d:d0:5b:7c:a0:b9:61:ef:34:b4:78:65:90:
         b7:ea:d2:82:a9:df:15:9f:36:b7:85:f5:c0:fe:3c:59:36:67:
         fa:e5:8a:d9:ce:b6:7e:a0:16:5e:ec:f3:66:34:a9:46:a6:4e:
         1f:c9:12:b8:04:f7:23:3b:e6:32:6d:08:d3:57:4a:bd:7d:2f:
         6e:7c:3b:4c:31:bc:8e:3f:2f:20:b3:17:04:e3:6b:53:44:3d:
         66:86:ac:f1:48:c1:a4:46:34:3c:05:dc:f1:da:17:41:57:40:
         fa:51:bb:5e:51:30:15:ec:b5:7e:31:17:ed:6f:d8:7d:bc:49:
         84:99:0b:14:c4:d1:ef:16:b5:89:90:f6:6d:28:23:33:c5:0d:
         d6:51:74:01:69:42:0e:cc:72:fc:6c:a8:2b:00:7c:6a:b4:a9:
         df:1b:fe:e5:43:af:6f:3e:ec:6c:46:61:8d:33:95:96:af:cb:
         9d:78:8f:98:a6:12:22:1a:ce:48:1c:eb:ed:aa:f3:46:bd:0f:
         41:3e:90:35:17:fb:d7:f2:47:f8:33:2c:c6:3c:54:ea:b9:e4:
         4c:96:8f:b8:11:40:42:98:8b:f3:93:b9:90:4c:5f:f7:92:05:
         3c:69:15:d6:16:9e:58:83
-----BEGIN CERTIFICATE-----
MIIGqzCCBJOgAwIBAgICAKswDQYJKoZIhvcNAQEEBQAwgawxCzAJBgNVBAYTAlVT
MQswCQYDVQQIEwJPSDERMA8GA1UEBxMIQ29sdW1idXMxEjAQBgNVBAoTCVZpa2lu
Z1ZQTjEdMBsGA1UECxMUTXlPcmdhbml6YXRpb25hbFVuaXQxFTATBgNVBAMTDFZp
a2luZ1ZQTiBDQTEQMA4GA1UEKRMHRWFzeVJTQTEhMB8GCSqGSIb3DQEJARYSbWVA
bXlob3N0Lm15ZG9tYWluMB4XDTEzMDkxMjIzNDc0NloXDTIzMDkxMDIzNDc0Nlow
HTEbMBkGA1UEAxMSQ2xpZW50OTJDZXJ0Y2ExYmRlMIICIjANBgkqhkiG9w0BAQEF
AAOCAg8AMIICCgKCAgEA4osqjKrIc9NzROOj7VKAklGgBEkCw8wZt7P1XLIm8eSK
kXewoP8rqLlc5ufYrmLBw8X1Kb5rRuFc4eDWazu09mYibUjTRLsnpxZZJ7bKDzcl
6/PH1+ahwDE+lcPzDjwvoi5U0MHuB4YoucoRrnfXnGjQt0VHHeW70A8xtfYllLK0
KBQYKk0uGxbozH374+c5fsI6iaTshgQgmaPpMCrPzbYNSUEUuzUAMXbKhdVphlud
LC0aDCPcKNq9dwq2/SpYrWR3YoJ2aeT6OU/6YGCzB3jpmHiYwUYdWCQ8si5dBW7t
bqKh8+lMcXLvGHYMcftW1RgJvaTEIaVnS5fOmR2Zn9Z6a/mboYlMgp8O0xoZhgDr
iyDJ2Wq4tMi9ixiZte8UymZLCGn9+TSVePJvGUjV5Yj11S/vWni9OYgjlmHp3TpN
enZglernlHMQR2Z+i8geZM/cn+wPf28blo6yW79YQWLOdkmTOrLNZ9f1FBMMzLz/
6J0zuwLM0H69GZxvWS+UaC5R9MxVra9Of/wJhpN3mwo/pMau9fjOubZ0OJrRPOGi
WEz05MuF2oHqfjR1motW3/7nlI2GUtCcKJllSGsjHwxWk+Z2bkD8ckx2sweCHkOu
3Um9fOgUV61dIpgDVgGIrU6nk7bAWJvvn5NncesxnoQFxQFnB2eSodzQAnl3WqEC
AwEAAaOCAWMwggFfMAkGA1UdEwQCMAAwLQYJYIZIAYb4QgENBCAWHkVhc3ktUlNB
IEdlbmVyYXRlZCBDZXJ0aWZpY2F0ZTAdBgNVHQ4EFgQUUtJcg1FS+6sAYuf1pMcR
5q1fhhAwgeEGA1UdIwSB2TCB1oAUEs1gBNKggJ5w7caZuHssxlL9GaGhgbKkga8w
gawxCzAJBgNVBAYTAlVTMQswCQYDVQQIEwJPSDERMA8GA1UEBxMIQ29sdW1idXMx
EjAQBgNVBAoTCVZpa2luZ1ZQTjEdMBsGA1UECxMUTXlPcmdhbml6YXRpb25hbFVu
aXQxFTATBgNVBAMTDFZpa2luZ1ZQTiBDQTEQMA4GA1UEKRMHRWFzeVJTQTEhMB8G
CSqGSIb3DQEJARYSbWVAbXlob3N0Lm15ZG9tYWluggkAzzWF7oC/Kj4wEwYDVR0l
BAwwCgYIKwYBBQUHAwIwCwYDVR0PBAQDAgeAMA0GCSqGSIb3DQEBBAUAA4ICAQB2
fBS3+e8LJb1/SbzQZpahMX4/O2xeL+aZAvv7iLVI4dg+Z0oGR+Z8HRKRl/rD7ctC
++Nd70WgZj7EBhRyKKjSF3sjWGZdHT8AshYtffpnZN+k3K2/o2YpVaNCYd+mJ2MS
dlZ3t6sc+hpiY8z6qPEjW5KtALjuSrrobdbDMxeT37nCDdMCGoyBOJUJbP0i3O75
DvOyDbZYghTNkO5Q++LF+Vvf9LZkDlimcpzD23/Yp5rFUpclbqp67l4st4GNH011
Pzaa9Reor7GodUuMOHqzeVPgIClpG7Q/3FKsVq8WN1nfhiocLpdis1h27WlwpP80
IBw0WZE0uHzewdVkzH2uxukFxAf3f6WmsWOfojYJa6XLuo3QW3yguWHvNLR4ZZC3
6tKCqd8Vnza3hfXA/jxZNmf65YrZzrZ+oBZe7PNmNKlGpk4fyRK4BPcjO+YybQjT
V0q9fS9ufDtMMbyOPy8gsxcE42tTRD1mhqzxSMGkRjQ8Bdzx2hdBV0D6UbteUTAV
7LV+MRftb9h9vEmEmQsUxNHvFrWJkPZtKCMzxQ3WUXQBaUIOzHL8bKgrAHxqtKnf
G/7lQ69vPuxsRmGNM5WWr8udeI+YphIiGs5IHOvtqvNGvQ9BPpA1F/vX8kf4MyzG
PFTqueRMlo+4EUBCmIvzk7mQTF/3kgU8aRXWFp5Ygw==
-----END CERTIFICATE-----
