Certificate:
    Data:
        Version: 3 (0x2)
        Serial Number: 7823 (0x1e8f)
    Signature Algorithm: md5WithRSAEncryption
        Issuer: C=US, ST=OH, L=Columbus, O=VikingVPN, OU=MyOrganizationalUnit, CN=VikingVPN CA/name=EasyRSA/emailAddress=me@myhost.mydomain
        Validity
            Not Before: Apr 22 18:44:12 2016 GMT
            Not After : Apr 20 18:44:12 2026 GMT
        Subject: CN=Client1776Cert8eb4b2
        Subject Public Key Info:
            Public Key Algorithm: rsaEncryption
                Public-Key: (4096 bit)
                Modulus:
                    00:c6:e0:3a:bb:c5:29:e0:21:66:10:1b:7d:85:7f:
                    d2:67:35:3f:8d:5c:96:1d:93:11:63:bd:a0:eb:b4:
                    3f:14:93:ca:4f:6c:2f:5e:e3:0b:3c:0b:63:d4:65:
                    d8:97:f8:38:37:d4:37:fd:7c:86:e4:23:cf:8d:75:
                    7b:7b:0d:cf:8c:db:f6:91:bb:78:74:e8:11:75:fd:
                    28:79:f1:5d:d4:04:e7:41:fb:e4:ec:4b:1e:91:46:
                    21:68:70:df:4e:eb:1d:7b:ec:8d:1d:60:6f:d9:56:
                    af:ad:df:87:0d:f7:bb:6c:ed:a3:aa:15:e8:a7:0c:
                    b4:34:ee:15:a8:0b:3f:70:5b:73:5e:c8:6b:2e:06:
                    aa:b3:16:43:bc:a5:8a:fc:ac:e4:81:c0:40:40:83:
                    df:48:9d:e6:48:9c:46:f9:ee:f4:8d:c2:c1:d2:f9:
                    bf:92:b2:78:4a:7f:4b:c8:d0:4c:42:42:cb:8e:6d:
                    81:52:bf:36:0e:ff:b2:db:ff:71:3a:0f:e3:29:94:
                    16:74:9f:94:73:33:dd:45:3d:2a:95:9e:ef:71:d4:
                    6e:c4:f5:8c:03:7d:ae:fc:89:20:e0:b2:b6:c0:7b:
                    76:8a:68:51:e0:2f:71:80:39:ca:6f:12:62:2e:fa:
                    7a:f7:7f:a0:a3:d1:c5:0b:e5:5b:c5:84:f5:7c:0e:
                    b9:c7:75:f6:c8:7d:3d:9d:b9:5f:82:7e:79:e5:2b:
                    90:45:4a:2e:92:fe:6c:5a:49:48:ca:8d:76:89:8e:
                    1f:ad:49:a5:97:05:73:e4:1e:eb:d2:f5:27:dc:df:
                    cc:92:d4:87:d1:84:48:ff:99:b3:cd:62:73:f8:dc:
                    a6:08:b4:73:a6:e3:7c:e7:fa:03:fd:60:1e:95:c2:
                    b4:92:e8:09:04:99:74:36:58:ef:c9:15:be:b7:f2:
                    bc:f5:58:30:08:c2:9e:88:f0:32:3b:c0:e4:7b:00:
                    25:bf:68:0a:02:65:d0:23:28:ba:e0:dd:ab:28:4f:
                    be:17:ca:62:2f:3b:20:3f:e0:5e:57:3a:9d:e3:84:
                    80:9a:55:2f:91:d3:43:0b:8a:db:0a:57:1c:52:b4:
                    87:b4:89:26:88:e5:9e:0a:9f:a3:3e:4b:43:37:ba:
                    96:9d:74:22:8b:e2:3a:60:3d:aa:3b:86:0a:b4:84:
                    1b:51:93:66:5f:2a:9a:5a:2b:1b:f1:75:e1:f8:5c:
                    73:1e:12:78:aa:5e:8e:cd:8b:a8:45:e5:50:14:75:
                    51:2d:f7:e7:87:92:75:b3:02:31:10:3f:a7:86:08:
                    e7:08:9c:7f:6d:ef:c8:11:f1:61:a1:6b:e2:59:cb:
                    cb:8b:1b:6d:4c:68:f9:cf:22:b2:ca:f8:36:14:b4:
                    9e:f7:f9
                Exponent: 65537 (0x10001)
        X509v3 extensions:
            X509v3 Basic Constraints: 
                CA:FALSE
            Netscape Comment: 
                Easy-RSA Generated Certificate
            X509v3 Subject Key Identifier: 
                4F:E1:D5:C5:81:A5:BE:77:25:F5:61:CF:FC:35:B8:0B:A1:3A:C8:2B
            X509v3 Authority Key Identifier: 
                keyid:12:CD:60:04:D2:A0:80:9E:70:ED:C6:99:B8:7B:2C:C6:52:FD:19:A1
                DirName:/C=US/ST=OH/L=Columbus/O=VikingVPN/OU=MyOrganizationalUnit/CN=VikingVPN CA/name=EasyRSA/emailAddress=me@myhost.mydomain
                serial:CF:35:85:EE:80:BF:2A:3E

            X509v3 Extended Key Usage: 
                TLS Web Client Authentication
            X509v3 Key Usage: 
                Digital Signature
    Signature Algorithm: md5WithRSAEncryption
         03:0e:97:c2:73:56:dc:f0:60:20:ea:e1:39:bb:0c:c9:3c:52:
         84:d0:ae:48:ac:77:a4:4a:92:1f:cd:c4:19:ca:46:31:7c:be:
         45:0b:79:ea:0a:42:24:92:4d:3a:83:ee:e0:94:94:16:c0:6f:
         99:e3:cc:09:71:7a:83:86:83:bf:73:c1:cb:05:47:e7:58:e2:
         73:c8:5d:aa:9e:a1:6c:0b:01:4c:ad:d1:6e:23:9b:a7:c9:9c:
         f5:81:fb:8e:95:ca:8c:4b:6e:1f:36:5b:f1:f6:33:0f:2d:a2:
         db:3f:15:71:c4:f4:5a:a5:f5:45:d4:4a:44:1b:49:b4:b4:0e:
         9c:6e:0b:b4:69:15:25:09:43:ce:20:f2:c7:28:7e:9b:0a:fa:
         f4:82:c6:1c:d3:84:9c:e3:61:7d:89:40:78:32:ca:fa:d9:e0:
         5c:74:b5:95:60:ea:7d:c3:e2:24:bd:f2:b4:1a:2f:64:c9:b1:
         8c:a0:bc:71:4f:a3:34:08:01:d1:52:59:a9:56:e6:a3:a8:b2:
         14:8a:2b:f4:6d:a6:23:0d:b4:54:4d:f7:cd:aa:a8:b3:52:af:
         c9:fd:6f:16:63:fa:e6:f0:f0:32:d2:e1:49:b9:64:5d:95:63:
         1a:f3:5b:7d:df:07:a5:c9:99:15:86:b4:41:5a:86:91:f8:1d:
         99:a0:9f:48:8d:d9:90:fb:8c:a8:d0:6b:f8:0d:5d:c6:cf:3c:
         aa:15:0c:52:ac:c1:ef:80:40:24:93:8d:35:21:e8:40:dc:88:
         57:ff:c0:46:04:25:95:90:bb:77:2d:6a:d3:d1:68:70:b6:28:
         22:0e:d3:71:1a:74:11:ff:a4:6c:1b:22:53:85:f0:2a:d9:50:
         bc:54:1f:32:d9:2a:4c:d5:ae:b6:35:4a:7b:67:d6:7c:62:fa:
         2d:82:ba:1b:b9:0f:3a:b2:bb:87:79:00:09:75:76:93:b1:b2:
         71:4a:8a:e3:9a:99:0b:d4:12:e5:a7:47:70:47:2e:fd:7f:a5:
         02:6e:5d:f6:b2:8b:38:35:36:72:e3:df:ad:e0:b0:eb:aa:a3:
         87:ce:b6:85:94:c8:e5:ba:47:2a:f7:24:66:f2:1b:24:23:c4:
         85:a9:9f:c5:dc:08:11:a6:d7:8a:8f:eb:d8:5f:a6:47:c1:c6:
         eb:15:58:7e:c8:ce:3c:b5:b2:fa:f7:ab:ae:a4:12:d3:e8:9a:
         5c:57:b6:1f:52:55:d7:9e:10:03:8d:9b:f1:47:bb:d0:67:b1:
         df:bf:eb:c0:01:b4:51:de:7d:15:33:76:bf:35:da:05:30:dd:
         c8:ef:dd:f4:05:f5:b9:ea:8c:b6:49:fe:5a:91:29:3e:fc:5b:
         de:83:1a:b3:f0:81:2b:5f
-----BEGIN CERTIFICATE-----
MIIGrTCCBJWgAwIBAgICHo8wDQYJKoZIhvcNAQEEBQAwgawxCzAJBgNVBAYTAlVT
MQswCQYDVQQIEwJPSDERMA8GA1UEBxMIQ29sdW1idXMxEjAQBgNVBAoTCVZpa2lu
Z1ZQTjEdMBsGA1UECxMUTXlPcmdhbml6YXRpb25hbFVuaXQxFTATBgNVBAMTDFZp
a2luZ1ZQTiBDQTEQMA4GA1UEKRMHRWFzeVJTQTEhMB8GCSqGSIb3DQEJARYSbWVA
bXlob3N0Lm15ZG9tYWluMB4XDTE2MDQyMjE4NDQxMloXDTI2MDQyMDE4NDQxMlow
HzEdMBsGA1UEAxMUQ2xpZW50MTc3NkNlcnQ4ZWI0YjIwggIiMA0GCSqGSIb3DQEB
AQUAA4ICDwAwggIKAoICAQDG4Dq7xSngIWYQG32Ff9JnNT+NXJYdkxFjvaDrtD8U
k8pPbC9e4ws8C2PUZdiX+Dg31Df9fIbkI8+NdXt7Dc+M2/aRu3h06BF1/Sh58V3U
BOdB++TsSx6RRiFocN9O6x177I0dYG/ZVq+t34cN97ts7aOqFeinDLQ07hWoCz9w
W3NeyGsuBqqzFkO8pYr8rOSBwEBAg99IneZInEb57vSNwsHS+b+SsnhKf0vI0ExC
QsuObYFSvzYO/7Lb/3E6D+MplBZ0n5RzM91FPSqVnu9x1G7E9YwDfa78iSDgsrbA
e3aKaFHgL3GAOcpvEmIu+nr3f6Cj0cUL5VvFhPV8DrnHdfbIfT2duV+CfnnlK5BF
Si6S/mxaSUjKjXaJjh+tSaWXBXPkHuvS9Sfc38yS1IfRhEj/mbPNYnP43KYItHOm
43zn+gP9YB6VwrSS6AkEmXQ2WO/JFb638rz1WDAIwp6I8DI7wOR7ACW/aAoCZdAj
KLrg3asoT74XymIvOyA/4F5XOp3jhICaVS+R00MLitsKVxxStIe0iSaI5Z4Kn6M+
S0M3upaddCKL4jpgPao7hgq0hBtRk2ZfKppaKxvxdeH4XHMeEniqXo7Ni6hF5VAU
dVEt9+eHknWzAjEQP6eGCOcInH9t78gR8WGha+JZy8uLG21MaPnPIrLK+DYUtJ73
+QIDAQABo4IBYzCCAV8wCQYDVR0TBAIwADAtBglghkgBhvhCAQ0EIBYeRWFzeS1S
U0EgR2VuZXJhdGVkIENlcnRpZmljYXRlMB0GA1UdDgQWBBRP4dXFgaW+dyX1Yc/8
NbgLoTrIKzCB4QYDVR0jBIHZMIHWgBQSzWAE0qCAnnDtxpm4eyzGUv0ZoaGBsqSB
rzCBrDELMAkGA1UEBhMCVVMxCzAJBgNVBAgTAk9IMREwDwYDVQQHEwhDb2x1bWJ1
czESMBAGA1UEChMJVmlraW5nVlBOMR0wGwYDVQQLExRNeU9yZ2FuaXphdGlvbmFs
VW5pdDEVMBMGA1UEAxMMVmlraW5nVlBOIENBMRAwDgYDVQQpEwdFYXN5UlNBMSEw
HwYJKoZIhvcNAQkBFhJtZUBteWhvc3QubXlkb21haW6CCQDPNYXugL8qPjATBgNV
HSUEDDAKBggrBgEFBQcDAjALBgNVHQ8EBAMCB4AwDQYJKoZIhvcNAQEEBQADggIB
AAMOl8JzVtzwYCDq4Tm7DMk8UoTQrkisd6RKkh/NxBnKRjF8vkULeeoKQiSSTTqD
7uCUlBbAb5njzAlxeoOGg79zwcsFR+dY4nPIXaqeoWwLAUyt0W4jm6fJnPWB+46V
yoxLbh82W/H2Mw8tots/FXHE9Fql9UXUSkQbSbS0DpxuC7RpFSUJQ84g8scofpsK
+vSCxhzThJzjYX2JQHgyyvrZ4Fx0tZVg6n3D4iS98rQaL2TJsYygvHFPozQIAdFS
WalW5qOoshSKK/RtpiMNtFRN982qqLNSr8n9bxZj+ubw8DLS4Um5ZF2VYxrzW33f
B6XJmRWGtEFahpH4HZmgn0iN2ZD7jKjQa/gNXcbPPKoVDFKswe+AQCSTjTUh6EDc
iFf/wEYEJZWQu3ctatPRaHC2KCIO03EadBH/pGwbIlOF8CrZULxUHzLZKkzVrrY1
Sntn1nxi+i2Cuhu5Dzqyu4d5AAl1dpOxsnFKiuOamQvUEuWnR3BHLv1/pQJuXfay
izg1NnLj363gsOuqo4fOtoWUyOW6Ryr3JGbyGyQjxIWpn8XcCBGm14qP69hfpkfB
xusVWH7Izjy1svr3q66kEtPomlxXth9SVdeeEAONm/FHu9Bnsd+/68ABtFHefRUz
dr812gUw3cjv3fQF9bnqjLZJ/lqRKT78W96DGrPwgStf
-----END CERTIFICATE-----
