Certificate:
    Data:
        Version: 3 (0x2)
        Serial Number: 8460 (0x210c)
    Signature Algorithm: md5WithRSAEncryption
        Issuer: C=US, ST=OH, L=Columbus, O=VikingVPN, OU=MyOrganizationalUnit, CN=VikingVPN CA/name=EasyRSA/emailAddress=me@myhost.mydomain
        Validity
            Not Before: Jul  9 21:20:59 2016 GMT
            Not After : Jul  7 21:20:59 2026 GMT
        Subject: CN=Client2421Certe2e5d7
        Subject Public Key Info:
            Public Key Algorithm: rsaEncryption
                Public-Key: (4096 bit)
                Modulus:
                    00:da:3a:af:43:14:92:fa:3a:73:35:0c:78:7e:a9:
                    72:41:f4:89:5c:8f:f7:07:96:54:0e:0a:40:fa:b2:
                    a9:74:d8:7e:5a:ea:43:cc:d2:d4:87:6f:d7:39:fb:
                    69:b1:5d:04:a1:0c:bc:0d:22:69:c5:7a:4a:97:ca:
                    07:14:c3:ff:0b:0e:21:52:a2:cf:f4:15:f3:19:db:
                    6d:61:e6:4b:8d:07:7c:31:d8:de:84:44:dc:c8:62:
                    13:84:9f:6c:bc:70:21:05:c4:f1:cf:f6:1b:62:95:
                    76:17:f6:b8:d4:06:b3:58:1a:15:a3:64:4d:6a:c5:
                    0c:e2:d5:07:45:1e:3d:92:55:b3:ae:dd:38:a8:6a:
                    f2:f1:d5:e5:88:6e:74:4b:1e:dd:68:9b:ff:f5:11:
                    28:50:39:c4:eb:d2:53:72:d0:81:b4:c7:1a:40:0d:
                    bd:67:f9:07:62:db:11:07:fc:c7:bb:3b:46:c9:f1:
                    7b:0a:37:77:f0:fa:46:ce:93:39:11:8f:ef:d8:a1:
                    d7:38:07:dd:dc:34:00:40:39:b3:cf:00:ba:bc:53:
                    f1:64:7d:ed:f7:16:e9:59:59:85:4c:62:75:69:0d:
                    06:f8:33:48:a4:55:b7:39:3f:30:35:54:c7:d7:a5:
                    96:12:0a:94:94:d7:75:72:67:ed:66:44:f7:1b:e1:
                    1d:14:6e:94:6d:54:9c:6c:7d:0a:f1:c3:e5:89:1b:
                    8d:7f:89:96:53:37:22:50:16:1d:fd:1d:7d:2a:aa:
                    bd:5c:28:45:4b:e3:31:9d:74:80:f5:c5:d1:55:b5:
                    63:ad:bc:d6:ea:c4:3e:3c:48:80:bd:e0:21:ab:e8:
                    46:b1:9d:7f:0b:dc:1f:94:57:21:b1:2a:b4:ff:bf:
                    72:17:0e:3a:8d:ed:17:c3:55:b9:1c:80:e8:66:63:
                    82:01:41:6c:8a:39:36:bc:3f:84:1d:3a:0d:db:88:
                    f1:b1:cb:6f:35:0f:6f:a6:3f:f6:13:dd:ce:c2:4d:
                    28:3f:7c:a4:d6:72:bc:a1:7d:8c:30:5e:79:34:cb:
                    97:83:46:d3:86:c5:be:eb:79:3a:d3:7b:90:b5:49:
                    bd:6b:bc:a7:f2:e0:b6:ed:92:72:c4:2e:3e:20:25:
                    7f:85:cc:64:8d:81:c5:0b:b3:b4:68:a4:03:a5:69:
                    83:7e:5b:44:cf:01:ee:9a:cd:4a:ab:dc:38:ca:14:
                    40:97:27:98:33:4a:45:84:ce:4d:99:3b:21:5c:93:
                    66:74:89:ac:10:74:26:3c:17:42:4f:21:cc:d9:22:
                    d7:16:e3:d0:26:f1:75:97:97:e1:25:69:5f:97:1e:
                    e6:4f:f9:3d:89:34:b0:b6:df:06:5e:db:d3:60:59:
                    46:5c:b5
                Exponent: 65537 (0x10001)
        X509v3 extensions:
            X509v3 Basic Constraints: 
                CA:FALSE
            Netscape Comment: 
                Easy-RSA Generated Certificate
            X509v3 Subject Key Identifier: 
                59:40:E4:92:2C:22:6E:E3:07:11:17:F8:8A:BD:25:5B:12:65:AF:84
            X509v3 Authority Key Identifier: 
                keyid:12:CD:60:04:D2:A0:80:9E:70:ED:C6:99:B8:7B:2C:C6:52:FD:19:A1
                DirName:/C=US/ST=OH/L=Columbus/O=VikingVPN/OU=MyOrganizationalUnit/CN=VikingVPN CA/name=EasyRSA/emailAddress=me@myhost.mydomain
                serial:CF:35:85:EE:80:BF:2A:3E

            X509v3 Extended Key Usage: 
                TLS Web Client Authentication
            X509v3 Key Usage: 
                Digital Signature
    Signature Algorithm: md5WithRSAEncryption
         1e:74:4f:a6:5b:fd:49:ba:81:38:a1:2e:7f:f8:42:32:03:23:
         69:5d:e8:26:ff:27:0a:fd:51:29:bd:a5:97:fe:ff:e7:95:17:
         2e:0c:24:fa:19:00:df:b4:4c:7b:d5:53:6d:ef:a0:02:d0:06:
         05:60:fe:b6:bd:07:8d:19:3b:11:34:a3:fb:7f:d1:ed:ff:11:
         60:b3:4a:d3:90:f5:18:8e:d6:58:d5:6f:de:89:56:66:81:ac:
         92:2a:f3:89:0b:ec:4e:a5:d4:4e:73:19:02:27:fc:5d:10:eb:
         26:58:b6:4a:ca:89:df:f3:6f:38:73:cc:58:c5:33:8f:93:54:
         18:8f:c9:a5:2c:a8:26:27:a9:d6:ee:8a:fc:8e:0e:29:02:62:
         50:3a:81:58:87:88:ad:ae:90:7d:e4:96:f2:bb:c1:1f:f6:9f:
         82:42:fd:bd:8a:2e:1e:e2:3e:ae:4d:7f:4b:3f:d4:b9:b3:70:
         c5:d5:e5:67:23:08:9e:05:48:68:62:19:13:54:3e:c1:4e:a7:
         bb:54:b4:c4:38:d5:bc:3c:b1:60:a1:d7:75:f8:eb:7a:eb:f6:
         23:ff:73:9c:c7:48:5a:46:92:df:24:41:b9:5b:50:d2:a1:2a:
         9e:1e:5a:5b:0b:44:6a:9d:7e:ad:4b:24:d7:cd:a6:fe:75:91:
         57:7c:ca:3c:a2:56:48:b7:e7:47:97:27:9f:e8:7a:0a:b9:e5:
         8f:d4:e4:ac:43:83:b7:ee:92:b9:02:32:88:a9:7c:f4:d4:14:
         36:d1:8b:f9:af:cd:e9:f1:2b:3f:42:f6:e0:df:52:49:f5:fc:
         16:df:00:08:db:6d:f2:76:8d:10:e6:37:e9:82:c3:5e:7a:cf:
         59:ef:61:da:0e:c5:bf:ab:79:7b:53:95:91:4a:da:8a:bd:39:
         88:f1:e2:b3:01:55:79:a6:bf:a5:9d:2f:00:7a:a0:91:f2:62:
         19:ff:6f:76:ce:b1:a9:86:ab:20:1d:e0:d8:d7:dc:92:18:21:
         a8:10:b5:88:0f:c2:74:76:f8:fa:e0:ff:d2:1d:06:20:44:6e:
         9a:10:19:32:8e:59:37:16:be:64:22:f5:d1:28:12:64:df:ae:
         d8:41:6a:38:e6:76:67:16:f9:0e:06:48:eb:1e:06:77:02:31:
         88:a5:ad:35:5c:b5:5f:59:24:7b:a4:70:d2:64:03:7a:ea:56:
         c9:78:66:3d:48:f0:c2:e3:eb:a6:3e:cf:8c:f2:2e:70:91:de:
         b6:54:bd:f9:94:86:10:36:5c:f9:b5:e1:a1:0b:5c:a9:c2:0f:
         0c:69:92:93:21:22:c4:fd:d4:2f:6b:e2:2d:ab:79:37:bb:49:
         f0:91:e1:78:d6:9c:18:e7
-----BEGIN CERTIFICATE-----
MIIGrTCCBJWgAwIBAgICIQwwDQYJKoZIhvcNAQEEBQAwgawxCzAJBgNVBAYTAlVT
MQswCQYDVQQIEwJPSDERMA8GA1UEBxMIQ29sdW1idXMxEjAQBgNVBAoTCVZpa2lu
Z1ZQTjEdMBsGA1UECxMUTXlPcmdhbml6YXRpb25hbFVuaXQxFTATBgNVBAMTDFZp
a2luZ1ZQTiBDQTEQMA4GA1UEKRMHRWFzeVJTQTEhMB8GCSqGSIb3DQEJARYSbWVA
bXlob3N0Lm15ZG9tYWluMB4XDTE2MDcwOTIxMjA1OVoXDTI2MDcwNzIxMjA1OVow
HzEdMBsGA1UEAxMUQ2xpZW50MjQyMUNlcnRlMmU1ZDcwggIiMA0GCSqGSIb3DQEB
AQUAA4ICDwAwggIKAoICAQDaOq9DFJL6OnM1DHh+qXJB9Ilcj/cHllQOCkD6sql0
2H5a6kPM0tSHb9c5+2mxXQShDLwNImnFekqXygcUw/8LDiFSos/0FfMZ221h5kuN
B3wx2N6ERNzIYhOEn2y8cCEFxPHP9htilXYX9rjUBrNYGhWjZE1qxQzi1QdFHj2S
VbOu3TioavLx1eWIbnRLHt1om//1EShQOcTr0lNy0IG0xxpADb1n+Qdi2xEH/Me7
O0bJ8XsKN3fw+kbOkzkRj+/Yodc4B93cNABAObPPALq8U/Fkfe33FulZWYVMYnVp
DQb4M0ikVbc5PzA1VMfXpZYSCpSU13VyZ+1mRPcb4R0UbpRtVJxsfQrxw+WJG41/
iZZTNyJQFh39HX0qqr1cKEVL4zGddID1xdFVtWOtvNbqxD48SIC94CGr6EaxnX8L
3B+UVyGxKrT/v3IXDjqN7RfDVbkcgOhmY4IBQWyKOTa8P4QdOg3biPGxy281D2+m
P/YT3c7CTSg/fKTWcryhfYwwXnk0y5eDRtOGxb7reTrTe5C1Sb1rvKfy4LbtknLE
Lj4gJX+FzGSNgcULs7RopAOlaYN+W0TPAe6azUqr3DjKFECXJ5gzSkWEzk2ZOyFc
k2Z0iawQdCY8F0JPIczZItcW49Am8XWXl+ElaV+XHuZP+T2JNLC23wZe29NgWUZc
tQIDAQABo4IBYzCCAV8wCQYDVR0TBAIwADAtBglghkgBhvhCAQ0EIBYeRWFzeS1S
U0EgR2VuZXJhdGVkIENlcnRpZmljYXRlMB0GA1UdDgQWBBRZQOSSLCJu4wcRF/iK
vSVbEmWvhDCB4QYDVR0jBIHZMIHWgBQSzWAE0qCAnnDtxpm4eyzGUv0ZoaGBsqSB
rzCBrDELMAkGA1UEBhMCVVMxCzAJBgNVBAgTAk9IMREwDwYDVQQHEwhDb2x1bWJ1
czESMBAGA1UEChMJVmlraW5nVlBOMR0wGwYDVQQLExRNeU9yZ2FuaXphdGlvbmFs
VW5pdDEVMBMGA1UEAxMMVmlraW5nVlBOIENBMRAwDgYDVQQpEwdFYXN5UlNBMSEw
HwYJKoZIhvcNAQkBFhJtZUBteWhvc3QubXlkb21haW6CCQDPNYXugL8qPjATBgNV
HSUEDDAKBggrBgEFBQcDAjALBgNVHQ8EBAMCB4AwDQYJKoZIhvcNAQEEBQADggIB
AB50T6Zb/Um6gTihLn/4QjIDI2ld6Cb/Jwr9USm9pZf+/+eVFy4MJPoZAN+0THvV
U23voALQBgVg/ra9B40ZOxE0o/t/0e3/EWCzStOQ9RiO1ljVb96JVmaBrJIq84kL
7E6l1E5zGQIn/F0Q6yZYtkrKid/zbzhzzFjFM4+TVBiPyaUsqCYnqdbuivyODikC
YlA6gViHiK2ukH3klvK7wR/2n4JC/b2KLh7iPq5Nf0s/1LmzcMXV5WcjCJ4FSGhi
GRNUPsFOp7tUtMQ41bw8sWCh13X463rr9iP/c5zHSFpGkt8kQblbUNKhKp4eWlsL
RGqdfq1LJNfNpv51kVd8yjyiVki350eXJ5/oegq55Y/U5KxDg7fukrkCMoipfPTU
FDbRi/mvzenxKz9C9uDfUkn1/BbfAAjbbfJ2jRDmN+mCw156z1nvYdoOxb+reXtT
lZFK2oq9OYjx4rMBVXmmv6WdLwB6oJHyYhn/b3bOsamGqyAd4NjX3JIYIagQtYgP
wnR2+Prg/9IdBiBEbpoQGTKOWTcWvmQi9dEoEmTfrthBajjmdmcW+Q4GSOseBncC
MYilrTVctV9ZJHukcNJkA3rqVsl4Zj1I8MLj66Y+z4zyLnCR3rZUvfmUhhA2XPm1
4aELXKnCDwxpkpMhIsT91C9r4i2reTe7SfCR4XjWnBjn
-----END CERTIFICATE-----
