Certificate:
    Data:
        Version: 3 (0x2)
        Serial Number: 10868 (0x2a74)
    Signature Algorithm: sha256WithRSAEncryption
        Issuer: C=US, ST=OH, L=Columbus, O=VikingVPN, OU=MyOrganizationalUnit, CN=VikingVPN CA/name=EasyRSA/emailAddress=me@myhost.mydomain
        Validity
            Not Before: May  4 03:10:12 2017 GMT
            Not After : May  2 03:10:12 2027 GMT
        Subject: CN=Client2896Certeffa53
        Subject Public Key Info:
            Public Key Algorithm: rsaEncryption
                Public-Key: (4096 bit)
                Modulus:
                    00:c0:16:f2:00:6a:54:2a:ad:7b:45:5d:83:e0:4a:
                    84:0c:d9:d8:49:ae:02:52:e2:89:09:ec:7a:58:41:
                    32:96:26:36:ae:f7:f2:c3:35:a3:4d:c4:cb:97:72:
                    8a:00:47:14:fe:61:7d:92:2b:4f:11:7f:e4:05:a9:
                    a7:30:ba:7a:46:67:8e:c3:9a:fc:ae:f8:78:b9:31:
                    4e:be:68:fe:4a:1f:3c:3f:b7:9b:08:86:70:72:35:
                    ce:87:6b:ac:4e:48:f2:10:9d:e8:b5:2f:3c:e7:d6:
                    4f:9a:ad:78:71:8d:18:6b:a0:34:75:46:9f:72:5f:
                    db:73:8d:e7:49:35:16:dc:84:04:9d:f6:81:bf:01:
                    0f:db:be:17:9a:22:3b:b0:42:b0:d7:61:be:3d:1e:
                    85:59:29:31:cb:f5:e4:02:9a:21:c2:c9:2d:0b:d3:
                    3b:35:26:cb:33:16:b7:2d:e1:af:fe:f7:3f:21:40:
                    09:63:df:b9:a6:9f:58:0b:3c:11:52:f3:13:e2:29:
                    8f:6f:9c:a8:00:22:b7:e1:1c:7d:08:77:e6:82:e7:
                    c0:5e:6c:05:98:2a:8c:58:16:3e:b3:af:ed:50:5b:
                    b3:cd:53:f9:1e:13:fe:36:4e:a4:05:aa:df:8b:89:
                    01:f9:46:ed:1e:c8:04:4a:e5:48:fd:4d:55:1f:71:
                    c2:3f:d2:e2:58:02:02:5f:18:43:f8:b4:58:ac:4c:
                    fe:6a:98:09:6f:61:4d:aa:2c:c2:59:b4:f6:a5:81:
                    25:5e:94:0e:f1:6f:4a:99:8e:6f:db:15:b8:33:1c:
                    d8:54:05:c5:fc:71:35:45:df:45:3e:8c:86:50:3c:
                    27:66:90:d3:a7:6a:9c:3d:09:95:36:34:2b:7c:00:
                    00:f8:a1:72:37:a4:4b:b7:16:8f:b9:5a:44:87:75:
                    a8:85:70:d9:28:41:24:4b:d2:2a:70:eb:0f:65:5f:
                    74:6c:5a:09:8e:52:bf:a3:50:45:dc:79:50:58:c7:
                    10:e6:5d:1c:7f:9f:4c:fb:53:5e:3b:0c:76:85:80:
                    05:68:c7:3f:0c:89:c0:0a:97:a4:81:65:23:18:7d:
                    e6:f9:0d:c8:f1:b4:03:b0:c5:3f:1a:af:82:a6:d7:
                    a7:78:a3:68:40:2f:cf:d4:66:0b:03:31:e4:7f:0c:
                    30:04:20:1e:01:24:80:04:5d:c2:93:e5:34:94:03:
                    76:6d:0b:ec:37:ca:53:1d:05:43:8c:43:50:98:d5:
                    32:47:8c:04:f7:0c:73:40:40:43:63:a8:c7:2d:6b:
                    c4:20:4b:53:ca:b8:44:5a:03:90:e7:fd:38:02:2f:
                    27:92:62:d4:b8:3b:8d:d4:c1:6e:6d:4f:0e:33:d1:
                    94:38:8b
                Exponent: 65537 (0x10001)
        X509v3 extensions:
            X509v3 Basic Constraints: 
                CA:FALSE
            Netscape Comment: 
                Easy-RSA Generated Certificate
            X509v3 Subject Key Identifier: 
                B5:55:EF:AF:6D:6A:7D:AC:F0:4A:1B:B2:F3:39:A0:B4:19:B4:13:FE
            X509v3 Authority Key Identifier: 
                keyid:12:CD:60:04:D2:A0:80:9E:70:ED:C6:99:B8:7B:2C:C6:52:FD:19:A1
                DirName:/C=US/ST=OH/L=Columbus/O=VikingVPN/OU=MyOrganizationalUnit/CN=VikingVPN CA/name=EasyRSA/emailAddress=me@myhost.mydomain
                serial:CF:35:85:EE:80:BF:2A:3E

            X509v3 Extended Key Usage: 
                TLS Web Client Authentication
            X509v3 Key Usage: 
                Digital Signature
    Signature Algorithm: sha256WithRSAEncryption
         a0:2b:7d:65:6f:09:6c:58:9e:4c:be:7f:ac:d2:89:10:e7:87:
         d7:6a:05:4a:d6:45:d4:95:bb:02:33:fd:27:49:73:b0:26:8b:
         20:ee:8e:81:82:8c:7d:f8:62:b8:74:f3:07:f8:8b:eb:7b:22:
         65:0d:9c:80:36:4d:95:f0:d3:f4:2c:2f:14:f5:48:f7:be:d2:
         22:a0:bc:ea:54:1b:67:75:09:cc:c9:3b:7c:bc:5f:ba:96:d2:
         3e:51:15:25:71:b6:a9:83:a5:64:82:93:a5:f0:bf:c0:9b:51:
         21:ef:20:f8:c6:02:8c:28:17:c4:86:d7:b5:4d:07:fb:0d:7d:
         17:23:99:76:75:80:56:a4:0e:9e:b6:7d:f7:79:5c:a8:e9:de:
         f3:1c:67:0a:b1:33:81:93:3f:21:21:f3:c3:6c:44:1f:92:14:
         ab:10:d0:df:c2:73:ad:10:de:c4:79:54:02:a2:e9:59:d2:1f:
         53:66:a3:d9:2b:60:b5:17:fa:64:b3:4d:b9:67:51:df:7b:25:
         62:cb:fd:15:f8:25:25:0a:fb:b8:7d:a2:4b:e1:9a:cd:c6:ce:
         70:12:f1:ec:eb:ab:be:b6:31:65:24:cc:da:2a:93:63:68:3b:
         f2:5d:28:1a:ed:6d:74:df:10:4b:bf:85:3c:d4:14:91:12:a1:
         71:03:88:1f:f7:04:99:c9:51:c6:eb:49:86:4c:ef:2b:8d:ed:
         9b:a9:e0:54:ea:18:cc:b9:ff:e7:45:12:b3:47:a9:b2:c3:f7:
         d7:31:c1:c1:0d:d1:92:a7:cf:04:63:8a:64:97:e3:9e:34:d6:
         8a:72:e0:a7:77:c4:cd:1e:ba:9e:17:68:61:a6:d8:13:f5:53:
         a2:e8:2b:a8:3d:6f:b8:52:28:ab:59:86:db:8f:3f:cb:da:a9:
         41:64:50:a3:86:18:4a:31:6f:cc:87:2f:68:68:94:45:e8:e2:
         9c:25:ab:a8:8d:21:7b:86:dd:6e:26:a7:a5:96:d4:3a:10:cc:
         10:72:e1:50:a8:b1:00:da:ef:b6:e1:5d:62:f5:76:15:b9:0a:
         a6:97:bd:1f:41:26:e3:fe:ba:de:47:db:b5:6e:b2:b7:5b:98:
         15:f0:d5:c0:50:d9:a0:4a:85:94:3b:fc:96:eb:1f:72:5b:f7:
         83:14:85:d5:7d:de:86:54:20:e0:74:29:80:8a:68:13:49:62:
         78:78:80:f8:b0:0b:3b:28:74:5f:5e:34:fc:1a:fe:11:7e:e0:
         c5:86:a3:e2:0d:7b:fb:24:5d:1a:6d:a3:2b:01:72:14:1d:eb:
         3c:09:c1:92:b2:bb:5b:c8:6b:eb:6f:84:3f:14:39:92:1d:e2:
         8a:fe:83:ad:de:c2:7c:43
-----BEGIN CERTIFICATE-----
MIIGrTCCBJWgAwIBAgICKnQwDQYJKoZIhvcNAQELBQAwgawxCzAJBgNVBAYTAlVT
MQswCQYDVQQIEwJPSDERMA8GA1UEBxMIQ29sdW1idXMxEjAQBgNVBAoTCVZpa2lu
Z1ZQTjEdMBsGA1UECxMUTXlPcmdhbml6YXRpb25hbFVuaXQxFTATBgNVBAMTDFZp
a2luZ1ZQTiBDQTEQMA4GA1UEKRMHRWFzeVJTQTEhMB8GCSqGSIb3DQEJARYSbWVA
bXlob3N0Lm15ZG9tYWluMB4XDTE3MDUwNDAzMTAxMloXDTI3MDUwMjAzMTAxMlow
HzEdMBsGA1UEAxMUQ2xpZW50Mjg5NkNlcnRlZmZhNTMwggIiMA0GCSqGSIb3DQEB
AQUAA4ICDwAwggIKAoICAQDAFvIAalQqrXtFXYPgSoQM2dhJrgJS4okJ7HpYQTKW
Jjau9/LDNaNNxMuXcooARxT+YX2SK08Rf+QFqacwunpGZ47Dmvyu+Hi5MU6+aP5K
Hzw/t5sIhnByNc6Ha6xOSPIQnei1Lzzn1k+arXhxjRhroDR1Rp9yX9tzjedJNRbc
hASd9oG/AQ/bvheaIjuwQrDXYb49HoVZKTHL9eQCmiHCyS0L0zs1JsszFrct4a/+
9z8hQAlj37mmn1gLPBFS8xPiKY9vnKgAIrfhHH0Id+aC58BebAWYKoxYFj6zr+1Q
W7PNU/keE/42TqQFqt+LiQH5Ru0eyARK5Uj9TVUfccI/0uJYAgJfGEP4tFisTP5q
mAlvYU2qLMJZtPalgSVelA7xb0qZjm/bFbgzHNhUBcX8cTVF30U+jIZQPCdmkNOn
apw9CZU2NCt8AAD4oXI3pEu3Fo+5WkSHdaiFcNkoQSRL0ipw6w9lX3RsWgmOUr+j
UEXceVBYxxDmXRx/n0z7U147DHaFgAVoxz8MicAKl6SBZSMYfeb5DcjxtAOwxT8a
r4Km16d4o2hAL8/UZgsDMeR/DDAEIB4BJIAEXcKT5TSUA3ZtC+w3ylMdBUOMQ1CY
1TJHjAT3DHNAQENjqMcta8QgS1PKuERaA5Dn/TgCLyeSYtS4O43UwW5tTw4z0ZQ4
iwIDAQABo4IBYzCCAV8wCQYDVR0TBAIwADAtBglghkgBhvhCAQ0EIBYeRWFzeS1S
U0EgR2VuZXJhdGVkIENlcnRpZmljYXRlMB0GA1UdDgQWBBS1Ve+vbWp9rPBKG7Lz
OaC0GbQT/jCB4QYDVR0jBIHZMIHWgBQSzWAE0qCAnnDtxpm4eyzGUv0ZoaGBsqSB
rzCBrDELMAkGA1UEBhMCVVMxCzAJBgNVBAgTAk9IMREwDwYDVQQHEwhDb2x1bWJ1
czESMBAGA1UEChMJVmlraW5nVlBOMR0wGwYDVQQLExRNeU9yZ2FuaXphdGlvbmFs
VW5pdDEVMBMGA1UEAxMMVmlraW5nVlBOIENBMRAwDgYDVQQpEwdFYXN5UlNBMSEw
HwYJKoZIhvcNAQkBFhJtZUBteWhvc3QubXlkb21haW6CCQDPNYXugL8qPjATBgNV
HSUEDDAKBggrBgEFBQcDAjALBgNVHQ8EBAMCB4AwDQYJKoZIhvcNAQELBQADggIB
AKArfWVvCWxYnky+f6zSiRDnh9dqBUrWRdSVuwIz/SdJc7AmiyDujoGCjH34Yrh0
8wf4i+t7ImUNnIA2TZXw0/QsLxT1SPe+0iKgvOpUG2d1CczJO3y8X7qW0j5RFSVx
tqmDpWSCk6Xwv8CbUSHvIPjGAowoF8SG17VNB/sNfRcjmXZ1gFakDp62ffd5XKjp
3vMcZwqxM4GTPyEh88NsRB+SFKsQ0N/Cc60Q3sR5VAKi6VnSH1Nmo9krYLUX+mSz
TblnUd97JWLL/RX4JSUK+7h9okvhms3GznAS8ezrq762MWUkzNoqk2NoO/JdKBrt
bXTfEEu/hTzUFJESoXEDiB/3BJnJUcbrSYZM7yuN7Zup4FTqGMy5/+dFErNHqbLD
99cxwcEN0ZKnzwRjimSX45401opy4Kd3xM0eup4XaGGm2BP1U6LoK6g9b7hSKKtZ
htuPP8vaqUFkUKOGGEoxb8yHL2holEXo4pwlq6iNIXuG3W4mp6WW1DoQzBBy4VCo
sQDa77bhXWL1dhW5CqaXvR9BJuP+ut5H27VusrdbmBXw1cBQ2aBKhZQ7/JbrH3Jb
94MUhdV93oZUIOB0KYCKaBNJYnh4gPiwCzsodF9eNPwa/hF+4MWGo+INe/skXRpt
oysBchQd6zwJwZKyu1vIa+tvhD8UOZId4or+g63ewnxD
-----END CERTIFICATE-----
