Certificate:
    Data:
        Version: 3 (0x2)
        Serial Number: 2785 (0xae1)
    Signature Algorithm: md5WithRSAEncryption
        Issuer: C=US, ST=OH, L=Columbus, O=VikingVPN, OU=MyOrganizationalUnit, CN=VikingVPN CA/name=EasyRSA/emailAddress=me@myhost.mydomain
        Validity
            Not Before: Sep  7 16:41:07 2014 GMT
            Not After : Sep  4 16:41:07 2024 GMT
        Subject: CN=Client969Certf2b45e
        Subject Public Key Info:
            Public Key Algorithm: rsaEncryption
                Public-Key: (4096 bit)
                Modulus:
                    00:d3:21:6a:1a:19:0b:23:9c:82:92:eb:9a:cf:40:
                    64:ea:71:0c:2d:f0:95:3d:c7:5f:ea:13:ed:1c:d3:
                    9e:04:dc:6f:24:0b:be:f6:9f:d4:01:ab:92:e7:93:
                    71:3d:74:c1:9a:40:d5:4f:24:ed:62:2c:e1:59:e2:
                    11:4a:61:ae:96:0e:78:5c:d7:1a:cd:3a:b0:65:18:
                    f9:16:a2:89:76:07:2f:6d:65:2c:2d:11:7e:08:c7:
                    41:8b:9a:83:33:0e:5e:6d:c2:36:4b:29:94:52:b4:
                    d5:35:6f:5f:b8:bb:7c:ee:5e:22:b8:96:2e:6d:31:
                    fb:5e:1d:ba:88:b1:d6:4f:1f:3f:d7:58:f9:2d:11:
                    4d:43:05:4d:9f:b1:6f:ad:19:b8:3f:97:66:60:0d:
                    92:75:e5:20:60:b0:53:16:50:a6:91:bd:05:0f:e9:
                    0c:3a:dc:b3:10:87:64:4a:4e:18:d2:67:28:c9:43:
                    f8:66:bf:1f:02:54:38:7d:73:ca:39:a7:dd:1c:2a:
                    9e:28:da:77:4d:91:a0:f9:5f:10:34:f0:12:60:15:
                    08:da:c0:19:61:1d:50:84:88:33:b0:cc:63:9d:74:
                    11:e9:2c:bd:fb:ac:c7:8c:be:db:64:8c:08:60:aa:
                    d4:6e:9a:e3:67:b3:2f:45:88:ad:d0:4b:8e:cb:d7:
                    a3:83:a3:d3:90:e2:38:c2:be:43:f5:b9:d8:0d:9f:
                    54:d2:7b:b7:77:11:ff:41:a8:1e:bb:51:9f:72:ba:
                    08:30:93:37:c5:1e:3c:15:cd:b2:45:9b:1e:7d:2c:
                    35:b0:58:13:3e:53:6d:9e:1a:39:ea:68:97:62:d9:
                    87:77:f8:64:d8:7a:58:9c:05:6e:80:11:1a:2a:dc:
                    84:4d:30:f9:0d:23:47:a0:9d:07:72:32:09:27:d3:
                    90:66:a8:10:09:45:3c:4c:dd:b1:0b:9f:8f:e9:5c:
                    04:fc:f7:0f:79:91:5c:28:9c:4e:b5:43:fe:10:68:
                    77:0c:f2:6a:f0:9b:c6:e1:a4:84:bc:43:54:df:f4:
                    30:78:d9:85:00:43:f5:7e:63:8c:ac:f3:24:c4:06:
                    f9:02:66:40:fa:9d:10:0e:8f:40:3d:5a:b5:5d:3a:
                    c7:da:89:81:bf:b9:b5:4b:06:fd:ea:dd:c1:61:3b:
                    b6:64:b8:c2:f9:bf:52:e2:5a:60:8c:5a:41:e4:8f:
                    82:dd:2c:d7:d4:8f:b2:b7:7f:04:c1:26:dd:86:2a:
                    af:6c:35:13:47:63:63:0f:80:c6:93:4d:62:f7:9a:
                    cd:ef:93:2e:99:83:56:3a:71:b7:5b:59:62:2c:28:
                    86:93:e1:f6:66:aa:02:cc:22:b3:91:0f:2c:e0:a4:
                    2e:90:35
                Exponent: 65537 (0x10001)
        X509v3 extensions:
            X509v3 Basic Constraints: 
                CA:FALSE
            Netscape Comment: 
                Easy-RSA Generated Certificate
            X509v3 Subject Key Identifier: 
                6C:A2:8C:17:ED:59:1E:AE:E8:92:87:FF:C6:9D:6D:92:69:A7:71:E3
            X509v3 Authority Key Identifier: 
                keyid:12:CD:60:04:D2:A0:80:9E:70:ED:C6:99:B8:7B:2C:C6:52:FD:19:A1
                DirName:/C=US/ST=OH/L=Columbus/O=VikingVPN/OU=MyOrganizationalUnit/CN=VikingVPN CA/name=EasyRSA/emailAddress=me@myhost.mydomain
                serial:CF:35:85:EE:80:BF:2A:3E

            X509v3 Extended Key Usage: 
                TLS Web Client Authentication
            X509v3 Key Usage: 
                Digital Signature
    Signature Algorithm: md5WithRSAEncryption
         51:b9:33:b4:6b:20:04:25:90:8a:5c:fd:2b:32:da:c0:73:1c:
         a5:88:38:c9:fe:7d:c3:86:42:5f:20:83:c7:5f:aa:c0:6d:b7:
         c6:bf:e3:60:63:77:8d:cd:89:75:09:4d:03:bc:56:ed:96:3f:
         2e:35:ea:e4:6b:34:8a:f6:4a:ff:6a:66:63:b0:78:35:f1:57:
         d5:b8:05:9a:6a:b0:81:24:3e:de:ec:12:28:54:5b:28:94:93:
         27:8d:4b:96:fe:5d:9b:98:d9:95:bb:42:6b:9d:46:20:6d:2d:
         12:67:49:09:b9:7b:89:68:ad:0d:f0:c6:7f:85:45:54:5b:af:
         a9:c4:26:03:45:26:c4:2e:8f:3e:a2:77:14:5a:a8:68:a1:fb:
         84:10:40:b7:c2:a3:a4:64:7c:41:a9:a8:1e:e5:df:35:b1:86:
         0a:2a:be:00:70:6a:dd:47:0c:5c:89:cd:7a:63:63:e1:51:e7:
         64:6c:42:73:65:d1:1b:bd:82:ea:6c:d1:0d:7e:83:40:f2:aa:
         06:89:ac:bf:43:d8:c3:d1:80:3a:2a:37:68:8a:29:2b:f6:24:
         83:d5:7c:8c:70:75:98:c0:24:f5:e7:32:74:5b:2a:a7:16:75:
         40:fa:60:1b:69:e3:9e:1a:cc:e5:14:43:7b:f5:7c:05:31:a3:
         96:1c:0e:80:4f:ea:04:b3:70:fa:80:28:08:a2:bd:7d:e4:f0:
         5d:a7:74:00:9e:52:81:b7:6b:04:e7:05:3d:3c:f9:e6:8c:3f:
         4c:4e:76:6d:00:ab:32:42:14:6c:87:58:70:e2:12:1c:fa:05:
         95:b9:19:f4:32:12:ef:2f:1f:ef:7d:33:d4:59:08:5a:77:29:
         3f:08:4b:4b:70:75:94:11:bc:0a:75:7c:a1:a1:f4:4b:a0:d3:
         54:7b:f6:8f:f1:9c:5d:ba:06:92:f5:f4:ce:94:b3:73:b5:be:
         1a:6f:01:ff:3e:82:42:2b:50:39:eb:be:a5:ca:aa:41:9e:df:
         d5:78:ef:cf:eb:4c:28:6f:32:fd:37:88:41:83:c1:11:0f:61:
         c0:5e:11:f6:98:91:67:32:32:0d:13:45:92:10:59:eb:f0:6b:
         22:06:63:b5:99:b7:6e:f3:cb:da:68:16:85:9a:5c:45:52:8c:
         c6:cc:24:48:64:46:16:4f:03:f6:6e:93:af:08:9f:ad:c8:d9:
         88:6e:2d:aa:c3:d5:e1:35:75:95:fc:f0:98:b0:e8:61:36:04:
         cc:7e:bb:c2:59:95:d8:80:8f:a4:81:ac:46:df:79:7f:ab:e3:
         3f:a7:40:0c:4f:a2:07:e7:a2:20:55:18:ca:b0:ed:fa:b6:64:
         3a:c6:32:c7:e2:43:08:55
-----BEGIN CERTIFICATE-----
MIIGrDCCBJSgAwIBAgICCuEwDQYJKoZIhvcNAQEEBQAwgawxCzAJBgNVBAYTAlVT
MQswCQYDVQQIEwJPSDERMA8GA1UEBxMIQ29sdW1idXMxEjAQBgNVBAoTCVZpa2lu
Z1ZQTjEdMBsGA1UECxMUTXlPcmdhbml6YXRpb25hbFVuaXQxFTATBgNVBAMTDFZp
a2luZ1ZQTiBDQTEQMA4GA1UEKRMHRWFzeVJTQTEhMB8GCSqGSIb3DQEJARYSbWVA
bXlob3N0Lm15ZG9tYWluMB4XDTE0MDkwNzE2NDEwN1oXDTI0MDkwNDE2NDEwN1ow
HjEcMBoGA1UEAxMTQ2xpZW50OTY5Q2VydGYyYjQ1ZTCCAiIwDQYJKoZIhvcNAQEB
BQADggIPADCCAgoCggIBANMhahoZCyOcgpLrms9AZOpxDC3wlT3HX+oT7RzTngTc
byQLvvaf1AGrkueTcT10wZpA1U8k7WIs4VniEUphrpYOeFzXGs06sGUY+RaiiXYH
L21lLC0RfgjHQYuagzMOXm3CNksplFK01TVvX7i7fO5eIriWLm0x+14duoix1k8f
P9dY+S0RTUMFTZ+xb60ZuD+XZmANknXlIGCwUxZQppG9BQ/pDDrcsxCHZEpOGNJn
KMlD+Ga/HwJUOH1zyjmn3Rwqnijad02RoPlfEDTwEmAVCNrAGWEdUISIM7DMY510
Eeksvfusx4y+22SMCGCq1G6a42ezL0WIrdBLjsvXo4Oj05DiOMK+Q/W52A2fVNJ7
t3cR/0GoHrtRn3K6CDCTN8UePBXNskWbHn0sNbBYEz5TbZ4aOepol2LZh3f4ZNh6
WJwFboARGirchE0w+Q0jR6CdB3IyCSfTkGaoEAlFPEzdsQufj+lcBPz3D3mRXCic
TrVD/hBodwzyavCbxuGkhLxDVN/0MHjZhQBD9X5jjKzzJMQG+QJmQPqdEA6PQD1a
tV06x9qJgb+5tUsG/erdwWE7tmS4wvm/UuJaYIxaQeSPgt0s19SPsrd/BMEm3YYq
r2w1E0djYw+AxpNNYveaze+TLpmDVjpxt1tZYiwohpPh9maqAswis5EPLOCkLpA1
AgMBAAGjggFjMIIBXzAJBgNVHRMEAjAAMC0GCWCGSAGG+EIBDQQgFh5FYXN5LVJT
QSBHZW5lcmF0ZWQgQ2VydGlmaWNhdGUwHQYDVR0OBBYEFGyijBftWR6u6JKH/8ad
bZJpp3HjMIHhBgNVHSMEgdkwgdaAFBLNYATSoICecO3Gmbh7LMZS/RmhoYGypIGv
MIGsMQswCQYDVQQGEwJVUzELMAkGA1UECBMCT0gxETAPBgNVBAcTCENvbHVtYnVz
MRIwEAYDVQQKEwlWaWtpbmdWUE4xHTAbBgNVBAsTFE15T3JnYW5pemF0aW9uYWxV
bml0MRUwEwYDVQQDEwxWaWtpbmdWUE4gQ0ExEDAOBgNVBCkTB0Vhc3lSU0ExITAf
BgkqhkiG9w0BCQEWEm1lQG15aG9zdC5teWRvbWFpboIJAM81he6Avyo+MBMGA1Ud
JQQMMAoGCCsGAQUFBwMCMAsGA1UdDwQEAwIHgDANBgkqhkiG9w0BAQQFAAOCAgEA
UbkztGsgBCWQilz9KzLawHMcpYg4yf59w4ZCXyCDx1+qwG23xr/jYGN3jc2JdQlN
A7xW7ZY/LjXq5Gs0ivZK/2pmY7B4NfFX1bgFmmqwgSQ+3uwSKFRbKJSTJ41Llv5d
m5jZlbtCa51GIG0tEmdJCbl7iWitDfDGf4VFVFuvqcQmA0UmxC6PPqJ3FFqoaKH7
hBBAt8KjpGR8QamoHuXfNbGGCiq+AHBq3UcMXInNemNj4VHnZGxCc2XRG72C6mzR
DX6DQPKqBomsv0PYw9GAOio3aIopK/Ykg9V8jHB1mMAk9ecydFsqpxZ1QPpgG2nj
nhrM5RRDe/V8BTGjlhwOgE/qBLNw+oAoCKK9feTwXad0AJ5SgbdrBOcFPTz55ow/
TE52bQCrMkIUbIdYcOISHPoFlbkZ9DIS7y8f730z1FkIWncpPwhLS3B1lBG8CnV8
oaH0S6DTVHv2j/GcXboGkvX0zpSzc7W+Gm8B/z6CQitQOeu+pcqqQZ7f1Xjvz+tM
KG8y/TeIQYPBEQ9hwF4R9piRZzIyDRNFkhBZ6/BrIgZjtZm3bvPL2mgWhZpcRVKM
xswkSGRGFk8D9m6TrwifrcjZiG4tqsPV4TV1lfzwmLDoYTYEzH67wlmV2ICPpIGs
Rt95f6vjP6dADE+iB+eiIFUYyrDt+rZkOsYyx+JDCFU=
-----END CERTIFICATE-----
