Certificate:
    Data:
        Version: 3 (0x2)
        Serial Number: 5585 (0x15d1)
    Signature Algorithm: md5WithRSAEncryption
        Issuer: C=US, ST=OH, L=Columbus, O=VikingVPN, OU=MyOrganizationalUnit, CN=VikingVPN CA/name=EasyRSA/emailAddress=me@myhost.mydomain
        Validity
            Not Before: Jun 19 06:26:40 2015 GMT
            Not After : Jun 16 06:26:40 2025 GMT
        Subject: CN=Client1771Cert37f8aa
        Subject Public Key Info:
            Public Key Algorithm: rsaEncryption
                Public-Key: (4096 bit)
                Modulus:
                    00:da:6f:08:3e:74:bb:df:6f:55:45:22:66:2f:2d:
                    8d:1d:19:13:40:bd:63:e4:61:81:4a:e6:2a:6f:4f:
                    50:37:87:20:7a:f1:da:97:01:bd:f9:29:37:e7:9c:
                    89:17:9e:8b:fe:d7:69:fe:b5:b8:4b:73:95:49:ca:
                    08:d5:ff:a1:96:94:24:d2:cd:16:21:b8:b0:43:14:
                    10:6c:5a:80:48:53:e6:86:6b:6b:53:df:f9:c0:61:
                    de:85:bc:c3:62:a2:21:fe:38:78:4e:34:8a:8c:37:
                    c6:50:f4:1b:18:b0:fe:d3:86:c2:9a:4b:75:d2:c9:
                    15:5a:0b:7f:d1:41:5b:7d:ca:97:30:c0:85:8c:e2:
                    f1:28:62:bb:10:6c:75:36:ec:fb:ae:c9:dc:b6:f6:
                    fd:ed:ed:ee:e8:c1:81:8b:a3:76:a6:ca:10:f2:60:
                    87:77:74:9d:f4:48:50:0a:78:d9:14:87:d9:1e:20:
                    36:9c:d7:81:f6:35:88:0c:72:d5:5c:6f:cc:e8:36:
                    7a:de:26:61:98:01:f9:2e:89:fc:12:32:3c:a8:74:
                    79:05:f1:51:27:70:b4:20:7e:32:6d:18:bc:0e:a4:
                    5d:f0:3b:5e:7b:f1:8a:f8:7b:1a:f7:26:fd:3c:4f:
                    e3:09:32:65:be:d0:32:1c:32:18:7e:0c:17:83:2c:
                    77:cb:20:a5:a3:b5:86:ee:2e:87:df:72:c6:c1:b0:
                    a8:7e:db:6e:84:9d:a5:f1:4e:81:d8:d9:7f:1a:42:
                    5d:e9:be:d0:e9:dc:c8:47:ee:7b:32:08:5b:5a:21:
                    a9:e7:42:06:11:2b:41:ce:91:e0:c3:13:b2:85:c6:
                    2f:51:1e:a6:ee:f5:69:ad:e6:80:ff:72:f8:8a:8c:
                    f0:03:ae:54:52:41:99:6c:da:63:b6:54:df:40:f1:
                    25:a3:df:ca:74:7b:47:ac:05:9e:14:9d:18:8e:8c:
                    02:c3:e5:94:9e:40:a5:b6:9e:cb:6e:1f:f9:b0:52:
                    dc:1d:ff:56:20:44:6e:5e:c4:ae:35:5c:e8:3b:1d:
                    b0:93:f1:1d:55:38:c4:bc:57:61:43:16:13:e8:c1:
                    5f:88:2d:fb:ec:7e:f6:6a:af:15:26:04:6c:7b:8a:
                    0c:d5:92:48:fc:dc:86:6a:f3:d1:e8:4d:ff:bf:89:
                    09:bb:ef:fc:a0:4a:a0:2e:7b:19:0d:e8:86:40:21:
                    03:f5:d0:69:5a:77:82:48:cc:2d:85:e6:d9:f7:63:
                    49:12:ec:dc:87:c6:65:30:57:35:02:73:a6:1a:fb:
                    46:b3:a9:21:d8:b4:82:8e:21:e0:fb:a7:7f:2e:ca:
                    fe:3b:7b:22:cf:75:b3:8c:b3:42:71:4b:09:80:b0:
                    89:de:a7
                Exponent: 65537 (0x10001)
        X509v3 extensions:
            X509v3 Basic Constraints: 
                CA:FALSE
            Netscape Comment: 
                Easy-RSA Generated Certificate
            X509v3 Subject Key Identifier: 
                82:34:15:17:86:81:29:FA:13:DC:8A:B7:22:91:0F:C2:87:8C:B0:CD
            X509v3 Authority Key Identifier: 
                keyid:12:CD:60:04:D2:A0:80:9E:70:ED:C6:99:B8:7B:2C:C6:52:FD:19:A1
                DirName:/C=US/ST=OH/L=Columbus/O=VikingVPN/OU=MyOrganizationalUnit/CN=VikingVPN CA/name=EasyRSA/emailAddress=me@myhost.mydomain
                serial:CF:35:85:EE:80:BF:2A:3E

            X509v3 Extended Key Usage: 
                TLS Web Client Authentication
            X509v3 Key Usage: 
                Digital Signature
    Signature Algorithm: md5WithRSAEncryption
         9b:c6:15:e0:4b:6c:af:7d:16:67:ef:3d:30:36:13:04:34:02:
         a1:07:cc:cc:9d:12:20:24:33:d8:cc:05:df:cf:8f:c7:fc:0c:
         9c:09:3e:74:49:13:0e:3e:84:f0:cd:e7:d1:ee:b0:78:a5:38:
         ae:96:50:ad:e8:e1:13:58:cf:14:be:a9:c7:23:33:e9:ca:c3:
         2a:0d:60:bb:f1:21:0b:3c:ed:f5:56:f1:cd:5d:df:a5:00:41:
         47:83:ab:53:0e:f7:9c:e9:a9:c3:6e:4e:ad:d8:d7:7a:63:6b:
         ca:30:cd:5a:3a:45:61:f9:fe:25:dd:6d:9b:f0:ea:ce:e8:bb:
         0f:95:06:ec:53:23:cd:ae:b4:27:76:29:9d:0c:21:8c:b2:07:
         37:c5:72:da:ab:0c:73:b8:49:ff:3a:1f:90:70:9c:f2:ed:45:
         91:ad:71:56:f3:9f:0a:3a:2d:09:50:32:31:df:97:2a:4b:03:
         92:c5:51:f8:f9:f7:b8:f4:56:3b:8e:a1:1c:29:90:5e:2d:5c:
         3d:0e:5e:0c:7b:7a:97:9b:fb:b3:b4:51:80:bb:84:c5:11:92:
         c1:61:fe:3b:a8:08:10:11:84:fe:18:b8:5c:05:d8:77:b3:7d:
         ac:53:d2:47:25:01:22:95:0e:59:92:a6:55:44:2e:64:21:91:
         b0:2d:3d:3b:21:dd:85:98:ab:02:98:07:fa:6a:19:b6:b6:9b:
         f7:6a:b4:48:45:d5:b2:08:39:1f:ab:db:3a:74:c8:c2:4b:f0:
         2c:5c:9b:45:a3:b9:17:93:9d:f8:f6:e8:1d:79:f4:43:12:5f:
         87:7e:7d:dc:ad:c4:70:10:59:68:40:26:4c:db:bb:02:a6:73:
         22:59:d0:ed:95:7c:17:f0:72:db:b6:86:c4:ae:2d:1d:4d:56:
         56:44:73:9a:82:ff:bb:e9:a1:c6:33:fb:51:b7:a3:7f:a9:b4:
         70:a7:61:da:99:ff:a5:d1:ff:22:c3:92:df:ff:f7:d0:37:e0:
         dc:a0:5e:e8:cc:7c:7c:ca:b5:f8:61:82:15:ec:0a:19:6f:d3:
         7f:7d:6d:de:d3:c2:dd:a3:2a:85:5b:d9:59:6f:0e:14:fd:3c:
         89:35:04:d7:22:eb:5f:30:c5:1b:64:96:df:51:ee:64:29:7a:
         bb:6a:7a:46:03:da:92:ed:e3:79:3d:86:38:bd:80:98:29:46:
         ce:95:f3:28:5d:41:dc:dc:0b:ee:98:3c:44:88:26:39:50:a8:
         29:02:21:43:30:aa:8c:03:ab:ff:08:94:70:d5:58:41:71:f3:
         22:5e:74:32:f1:b1:e5:16:fa:86:35:75:92:7d:61:62:fd:2a:
         e5:5d:de:b7:75:86:f4:d6
-----BEGIN CERTIFICATE-----
MIIGrTCCBJWgAwIBAgICFdEwDQYJKoZIhvcNAQEEBQAwgawxCzAJBgNVBAYTAlVT
MQswCQYDVQQIEwJPSDERMA8GA1UEBxMIQ29sdW1idXMxEjAQBgNVBAoTCVZpa2lu
Z1ZQTjEdMBsGA1UECxMUTXlPcmdhbml6YXRpb25hbFVuaXQxFTATBgNVBAMTDFZp
a2luZ1ZQTiBDQTEQMA4GA1UEKRMHRWFzeVJTQTEhMB8GCSqGSIb3DQEJARYSbWVA
bXlob3N0Lm15ZG9tYWluMB4XDTE1MDYxOTA2MjY0MFoXDTI1MDYxNjA2MjY0MFow
HzEdMBsGA1UEAxMUQ2xpZW50MTc3MUNlcnQzN2Y4YWEwggIiMA0GCSqGSIb3DQEB
AQUAA4ICDwAwggIKAoICAQDabwg+dLvfb1VFImYvLY0dGRNAvWPkYYFK5ipvT1A3
hyB68dqXAb35KTfnnIkXnov+12n+tbhLc5VJygjV/6GWlCTSzRYhuLBDFBBsWoBI
U+aGa2tT3/nAYd6FvMNioiH+OHhONIqMN8ZQ9BsYsP7ThsKaS3XSyRVaC3/RQVt9
ypcwwIWM4vEoYrsQbHU27Puuydy29v3t7e7owYGLo3amyhDyYId3dJ30SFAKeNkU
h9keIDac14H2NYgMctVcb8zoNnreJmGYAfkuifwSMjyodHkF8VEncLQgfjJtGLwO
pF3wO1578Yr4exr3Jv08T+MJMmW+0DIcMhh+DBeDLHfLIKWjtYbuLoffcsbBsKh+
226EnaXxToHY2X8aQl3pvtDp3MhH7nsyCFtaIannQgYRK0HOkeDDE7KFxi9RHqbu
9Wmt5oD/cviKjPADrlRSQZls2mO2VN9A8SWj38p0e0esBZ4UnRiOjALD5ZSeQKW2
nstuH/mwUtwd/1YgRG5exK41XOg7HbCT8R1VOMS8V2FDFhPowV+ILfvsfvZqrxUm
BGx7igzVkkj83IZq89HoTf+/iQm77/ygSqAuexkN6IZAIQP10Glad4JIzC2F5tn3
Y0kS7NyHxmUwVzUCc6Ya+0azqSHYtIKOIeD7p38uyv47eyLPdbOMs0JxSwmAsIne
pwIDAQABo4IBYzCCAV8wCQYDVR0TBAIwADAtBglghkgBhvhCAQ0EIBYeRWFzeS1S
U0EgR2VuZXJhdGVkIENlcnRpZmljYXRlMB0GA1UdDgQWBBSCNBUXhoEp+hPcirci
kQ/Ch4ywzTCB4QYDVR0jBIHZMIHWgBQSzWAE0qCAnnDtxpm4eyzGUv0ZoaGBsqSB
rzCBrDELMAkGA1UEBhMCVVMxCzAJBgNVBAgTAk9IMREwDwYDVQQHEwhDb2x1bWJ1
czESMBAGA1UEChMJVmlraW5nVlBOMR0wGwYDVQQLExRNeU9yZ2FuaXphdGlvbmFs
VW5pdDEVMBMGA1UEAxMMVmlraW5nVlBOIENBMRAwDgYDVQQpEwdFYXN5UlNBMSEw
HwYJKoZIhvcNAQkBFhJtZUBteWhvc3QubXlkb21haW6CCQDPNYXugL8qPjATBgNV
HSUEDDAKBggrBgEFBQcDAjALBgNVHQ8EBAMCB4AwDQYJKoZIhvcNAQEEBQADggIB
AJvGFeBLbK99FmfvPTA2EwQ0AqEHzMydEiAkM9jMBd/Pj8f8DJwJPnRJEw4+hPDN
59HusHilOK6WUK3o4RNYzxS+qccjM+nKwyoNYLvxIQs87fVW8c1d36UAQUeDq1MO
95zpqcNuTq3Y13pja8owzVo6RWH5/iXdbZvw6s7ouw+VBuxTI82utCd2KZ0MIYyy
BzfFctqrDHO4Sf86H5BwnPLtRZGtcVbznwo6LQlQMjHflypLA5LFUfj597j0VjuO
oRwpkF4tXD0OXgx7epeb+7O0UYC7hMURksFh/juoCBARhP4YuFwF2HezfaxT0kcl
ASKVDlmSplVELmQhkbAtPTsh3YWYqwKYB/pqGba2m/dqtEhF1bIIOR+r2zp0yMJL
8Cxcm0WjuReTnfj26B159EMSX4d+fdytxHAQWWhAJkzbuwKmcyJZ0O2VfBfwctu2
hsSuLR1NVlZEc5qC/7vpocYz+1G3o3+ptHCnYdqZ/6XR/yLDkt//99A34NygXujM
fHzKtfhhghXsChlv0399bd7Twt2jKoVb2VlvDhT9PIk1BNci618wxRtklt9R7mQp
ertqekYD2pLt43k9hji9gJgpRs6V8yhdQdzcC+6YPESIJjlQqCkCIUMwqowDq/8I
lHDVWEFx8yJedDLxseUW+oY1dZJ9YWL9KuVd3rd1hvTW
-----END CERTIFICATE-----
