Certificate:
    Data:
        Version: 3 (0x2)
        Serial Number: 11042 (0x2b22)
    Signature Algorithm: sha256WithRSAEncryption
        Issuer: C=US, ST=OH, L=Columbus, O=VikingVPN, OU=MyOrganizationalUnit, CN=VikingVPN CA/name=EasyRSA/emailAddress=me@myhost.mydomain
        Validity
            Not Before: May 29 11:28:54 2017 GMT
            Not After : May 27 11:28:54 2027 GMT
        Subject: CN=Client2935Cert95c558
        Subject Public Key Info:
            Public Key Algorithm: rsaEncryption
                Public-Key: (4096 bit)
                Modulus:
                    00:98:8a:c6:21:a3:15:fe:99:51:4c:9e:1c:1b:2a:
                    c4:85:20:4a:82:9d:b4:ec:ad:f3:da:62:da:66:6d:
                    bb:d9:88:90:45:b6:e7:66:93:b5:58:f2:fe:7e:fd:
                    d8:55:0f:c4:25:8d:51:f6:c8:77:54:85:e0:fe:21:
                    eb:57:28:c6:76:1e:af:0d:09:1b:82:b0:0d:41:cf:
                    f9:3b:d2:17:0b:a7:b7:8c:0a:cb:d8:09:f5:1c:73:
                    dd:77:12:23:0f:6b:3d:a9:5e:75:93:b3:9f:30:1f:
                    aa:78:21:76:8c:0a:c8:c8:e7:1c:9e:3b:43:a7:d4:
                    e9:59:b4:79:13:39:47:95:72:42:e3:8d:db:2d:38:
                    e6:3b:ae:d4:39:14:db:3a:20:bb:65:a4:be:d7:a4:
                    e6:d1:28:56:bd:e6:ac:f7:9e:ff:7e:b5:ae:16:3a:
                    69:eb:2e:58:a2:25:9a:f3:0b:4a:c4:22:91:e3:40:
                    98:4e:5f:ca:04:4d:c4:70:96:56:6c:09:36:18:10:
                    a6:01:e9:a2:e5:9d:e0:3a:4e:ec:29:27:ff:71:7c:
                    1f:b4:06:d1:c8:29:75:5e:54:33:38:1c:e8:62:45:
                    8b:99:5b:c4:b6:45:d4:8a:d8:47:a0:a6:49:87:39:
                    52:51:74:0a:bb:7a:33:0b:97:bd:2a:14:f0:2e:e9:
                    f2:21:7b:cc:08:3f:a3:c6:a7:31:cc:c4:76:aa:39:
                    63:77:6d:b4:86:d1:d0:1c:f8:82:d1:4c:99:8c:39:
                    86:63:ef:27:18:ce:56:b5:c3:a3:e8:3b:0c:33:3e:
                    ee:55:c3:69:34:36:af:69:f2:a3:ef:62:a2:fe:57:
                    0b:71:91:7c:66:75:dc:59:2f:28:86:64:10:15:3a:
                    3b:cb:be:9d:2f:45:fc:ee:5a:2b:51:e4:89:bb:19:
                    ff:f1:2e:25:ab:d1:0d:0d:43:10:49:79:85:34:6a:
                    51:c6:21:0e:01:97:3e:f6:09:90:a3:6d:88:e6:e6:
                    50:10:10:23:ec:92:d1:f1:d6:57:62:56:13:98:6e:
                    38:fd:9e:d8:d3:60:df:db:ea:bb:be:c0:40:2f:f0:
                    1a:92:4d:e6:a7:cd:a8:94:96:12:14:10:f4:d4:12:
                    6c:f6:bd:af:ae:ce:cd:20:b6:e1:a9:9d:fa:44:1a:
                    00:b7:72:f1:d7:fe:61:a5:09:26:f3:f4:d2:1c:9d:
                    f0:d4:bd:e6:e4:62:7a:00:e3:41:4d:dd:69:1a:2e:
                    e2:c1:32:fb:90:62:39:8a:3d:7c:94:10:98:88:9f:
                    c3:74:07:13:a3:29:c0:b7:f2:f1:20:9d:c2:31:e3:
                    46:50:ac:0c:16:d0:a1:3e:60:c3:1e:4a:d8:7a:cd:
                    32:4b:13
                Exponent: 65537 (0x10001)
        X509v3 extensions:
            X509v3 Basic Constraints: 
                CA:FALSE
            Netscape Comment: 
                Easy-RSA Generated Certificate
            X509v3 Subject Key Identifier: 
                DC:3B:A9:E7:9B:14:EA:7B:E6:68:2B:9B:94:17:4A:11:58:34:C9:59
            X509v3 Authority Key Identifier: 
                keyid:12:CD:60:04:D2:A0:80:9E:70:ED:C6:99:B8:7B:2C:C6:52:FD:19:A1
                DirName:/C=US/ST=OH/L=Columbus/O=VikingVPN/OU=MyOrganizationalUnit/CN=VikingVPN CA/name=EasyRSA/emailAddress=me@myhost.mydomain
                serial:CF:35:85:EE:80:BF:2A:3E

            X509v3 Extended Key Usage: 
                TLS Web Client Authentication
            X509v3 Key Usage: 
                Digital Signature
    Signature Algorithm: sha256WithRSAEncryption
         c4:2a:1c:c4:f7:2b:a8:b7:1b:40:84:0c:11:a8:10:64:3f:79:
         f9:46:6a:12:e9:c0:2c:7f:3d:db:ef:c5:7d:4f:90:05:58:24:
         ef:6d:7a:4c:e9:e2:5b:fd:d0:64:81:ca:75:31:38:c2:cc:e2:
         17:6d:b4:07:82:a0:af:91:82:80:e8:e8:ef:3a:b2:1a:5a:a1:
         83:3f:2a:8e:21:cc:c9:a2:a2:26:25:07:a5:09:6b:ca:56:dd:
         7c:5b:d1:a4:dd:66:f4:e6:85:12:7d:0d:e3:52:6b:ab:2b:a3:
         30:7c:77:f4:26:03:12:14:67:dd:98:91:c4:35:8e:f5:67:69:
         ab:fc:33:df:a6:78:8e:e3:d5:2d:d3:2b:f7:f3:1a:2d:1c:26:
         ce:dc:b7:89:1a:55:82:f9:bd:d2:ca:2d:44:1d:60:63:68:5b:
         65:4b:89:85:7b:1e:8d:3f:0e:1b:fa:3a:b4:b4:a0:ed:f1:a9:
         29:5e:7f:8d:d8:6e:28:73:90:bd:1b:ed:70:9e:ec:51:2a:37:
         28:06:ec:5e:79:27:64:5b:d6:98:67:f6:8f:de:3c:34:18:8a:
         47:56:c9:32:9d:d1:f0:5b:3e:e0:7c:67:f3:eb:01:f7:46:a4:
         75:31:07:ad:ac:03:7c:3d:84:8a:23:1a:71:34:cb:a5:6e:58:
         a5:64:2e:00:f3:3e:f3:b5:a2:40:8f:69:1e:fe:b1:4a:6d:b0:
         88:e6:dc:ae:69:46:56:6b:d5:81:9a:94:e0:6b:46:06:9b:6e:
         f9:a1:f5:7b:56:11:87:0c:05:0b:75:90:e6:c3:e1:59:d8:f5:
         58:69:68:49:08:f0:2c:bb:19:8d:37:78:c8:4d:14:8f:e8:fc:
         6d:a8:80:5f:9f:04:a3:75:47:76:7d:e3:e1:82:da:78:af:48:
         97:3a:c5:c6:cc:c3:64:62:91:c6:f1:5a:88:83:27:0e:1f:0a:
         16:c2:93:4c:83:e0:30:16:2f:13:cc:78:85:e2:59:6f:41:86:
         ce:55:05:25:35:97:36:ec:5b:4e:32:d5:62:ce:2d:a8:01:46:
         59:7d:dc:f3:6c:0a:68:75:97:d0:3b:cb:64:44:09:cf:b1:84:
         fe:92:5b:65:1f:cf:c7:e2:97:1d:d4:20:50:be:0e:e2:e6:19:
         1a:b2:a0:1c:93:3e:6d:4a:33:1c:1f:85:f5:92:81:74:0f:bb:
         0e:70:a2:ed:e7:9a:c5:ef:ad:2f:b3:0f:ed:ab:fb:d2:34:aa:
         bd:db:6b:eb:cc:57:67:f4:be:73:b0:6b:87:96:29:9b:6b:db:
         b4:ff:50:83:16:80:a7:3c:bb:7f:4e:10:52:d4:6a:4a:97:d9:
         50:cd:0c:d0:e4:7e:00:e8
-----BEGIN CERTIFICATE-----
MIIGrTCCBJWgAwIBAgICKyIwDQYJKoZIhvcNAQELBQAwgawxCzAJBgNVBAYTAlVT
MQswCQYDVQQIEwJPSDERMA8GA1UEBxMIQ29sdW1idXMxEjAQBgNVBAoTCVZpa2lu
Z1ZQTjEdMBsGA1UECxMUTXlPcmdhbml6YXRpb25hbFVuaXQxFTATBgNVBAMTDFZp
a2luZ1ZQTiBDQTEQMA4GA1UEKRMHRWFzeVJTQTEhMB8GCSqGSIb3DQEJARYSbWVA
bXlob3N0Lm15ZG9tYWluMB4XDTE3MDUyOTExMjg1NFoXDTI3MDUyNzExMjg1NFow
HzEdMBsGA1UEAxMUQ2xpZW50MjkzNUNlcnQ5NWM1NTgwggIiMA0GCSqGSIb3DQEB
AQUAA4ICDwAwggIKAoICAQCYisYhoxX+mVFMnhwbKsSFIEqCnbTsrfPaYtpmbbvZ
iJBFtudmk7VY8v5+/dhVD8QljVH2yHdUheD+IetXKMZ2Hq8NCRuCsA1Bz/k70hcL
p7eMCsvYCfUcc913EiMPaz2pXnWTs58wH6p4IXaMCsjI5xyeO0On1OlZtHkTOUeV
ckLjjdstOOY7rtQ5FNs6ILtlpL7XpObRKFa95qz3nv9+ta4WOmnrLliiJZrzC0rE
IpHjQJhOX8oETcRwllZsCTYYEKYB6aLlneA6TuwpJ/9xfB+0BtHIKXVeVDM4HOhi
RYuZW8S2RdSK2EegpkmHOVJRdAq7ejMLl70qFPAu6fIhe8wIP6PGpzHMxHaqOWN3
bbSG0dAc+ILRTJmMOYZj7ycYzla1w6PoOwwzPu5Vw2k0Nq9p8qPvYqL+VwtxkXxm
ddxZLyiGZBAVOjvLvp0vRfzuWitR5Im7Gf/xLiWr0Q0NQxBJeYU0alHGIQ4Blz72
CZCjbYjm5lAQECPsktHx1ldiVhOYbjj9ntjTYN/b6ru+wEAv8BqSTeanzaiUlhIU
EPTUEmz2va+uzs0gtuGpnfpEGgC3cvHX/mGlCSbz9NIcnfDUvebkYnoA40FN3Wka
LuLBMvuQYjmKPXyUEJiIn8N0BxOjKcC38vEgncIx40ZQrAwW0KE+YMMeSth6zTJL
EwIDAQABo4IBYzCCAV8wCQYDVR0TBAIwADAtBglghkgBhvhCAQ0EIBYeRWFzeS1S
U0EgR2VuZXJhdGVkIENlcnRpZmljYXRlMB0GA1UdDgQWBBTcO6nnmxTqe+ZoK5uU
F0oRWDTJWTCB4QYDVR0jBIHZMIHWgBQSzWAE0qCAnnDtxpm4eyzGUv0ZoaGBsqSB
rzCBrDELMAkGA1UEBhMCVVMxCzAJBgNVBAgTAk9IMREwDwYDVQQHEwhDb2x1bWJ1
czESMBAGA1UEChMJVmlraW5nVlBOMR0wGwYDVQQLExRNeU9yZ2FuaXphdGlvbmFs
VW5pdDEVMBMGA1UEAxMMVmlraW5nVlBOIENBMRAwDgYDVQQpEwdFYXN5UlNBMSEw
HwYJKoZIhvcNAQkBFhJtZUBteWhvc3QubXlkb21haW6CCQDPNYXugL8qPjATBgNV
HSUEDDAKBggrBgEFBQcDAjALBgNVHQ8EBAMCB4AwDQYJKoZIhvcNAQELBQADggIB
AMQqHMT3K6i3G0CEDBGoEGQ/eflGahLpwCx/PdvvxX1PkAVYJO9tekzp4lv90GSB
ynUxOMLM4hdttAeCoK+RgoDo6O86shpaoYM/Ko4hzMmioiYlB6UJa8pW3Xxb0aTd
ZvTmhRJ9DeNSa6srozB8d/QmAxIUZ92YkcQ1jvVnaav8M9+meI7j1S3TK/fzGi0c
Js7ct4kaVYL5vdLKLUQdYGNoW2VLiYV7Ho0/Dhv6OrS0oO3xqSlef43YbihzkL0b
7XCe7FEqNygG7F55J2Rb1phn9o/ePDQYikdWyTKd0fBbPuB8Z/PrAfdGpHUxB62s
A3w9hIojGnE0y6VuWKVkLgDzPvO1okCPaR7+sUptsIjm3K5pRlZr1YGalOBrRgab
bvmh9XtWEYcMBQt1kObD4VnY9VhpaEkI8Cy7GY03eMhNFI/o/G2ogF+fBKN1R3Z9
4+GC2nivSJc6xcbMw2RikcbxWoiDJw4fChbCk0yD4DAWLxPMeIXiWW9Bhs5VBSU1
lzbsW04y1WLOLagBRll93PNsCmh1l9A7y2RECc+xhP6SW2Ufz8filx3UIFC+DuLm
GRqyoByTPm1KMxwfhfWSgXQPuw5wou3nmsXvrS+zD+2r+9I0qr3ba+vMV2f0vnOw
a4eWKZtr27T/UIMWgKc8u39OEFLUakqX2VDNDNDkfgDo
-----END CERTIFICATE-----
