Certificate:
    Data:
        Version: 3 (0x2)
        Serial Number: 2251 (0x8cb)
    Signature Algorithm: md5WithRSAEncryption
        Issuer: C=US, ST=OH, L=Columbus, O=VikingVPN, OU=MyOrganizationalUnit, CN=VikingVPN CA/name=EasyRSA/emailAddress=me@myhost.mydomain
        Validity
            Not Before: Jul 13 06:24:50 2014 GMT
            Not After : Jul 10 06:24:50 2024 GMT
        Subject: CN=Client760Certe17734
        Subject Public Key Info:
            Public Key Algorithm: rsaEncryption
                Public-Key: (4096 bit)
                Modulus:
                    00:f0:d6:79:d5:d0:9c:f9:47:09:96:ca:ce:6e:62:
                    be:bb:f6:55:29:e0:d9:5f:20:13:70:07:fa:f5:a5:
                    40:9e:cb:23:3e:0a:3f:89:9f:dc:99:cf:9e:77:4e:
                    87:76:00:bf:ab:04:75:8e:12:ca:f3:30:7c:70:1d:
                    2d:b9:9b:80:62:5f:c1:5b:dc:4b:fa:c5:ca:4a:ca:
                    89:4d:50:60:ed:af:f9:37:05:70:b3:c3:41:74:69:
                    af:d8:ed:ea:e7:65:6c:56:7d:ad:06:a8:0d:6a:ad:
                    8e:51:ce:7d:65:ef:57:0b:e3:3e:24:a3:5e:87:e0:
                    77:14:cc:ea:e5:44:13:7b:b1:5b:38:a4:0b:9c:8b:
                    e6:d3:39:24:08:b6:69:3f:2a:e1:3a:b4:51:e5:f7:
                    f8:16:52:c4:35:56:df:f6:30:1f:6a:2d:72:09:46:
                    b9:b8:3c:b3:90:1b:a7:eb:be:e0:db:1e:1a:3a:dc:
                    0b:7d:8d:80:2e:48:88:5e:99:bb:be:8f:32:c1:9c:
                    51:17:e7:9c:a3:5e:0b:7f:48:66:e7:09:47:26:db:
                    73:53:6d:72:f0:9a:7f:23:0a:dd:e7:45:a7:c9:61:
                    2e:8f:a7:69:c2:50:04:89:24:46:6e:35:a2:fd:89:
                    df:fb:b9:e5:08:5b:8b:82:e9:b4:da:8e:c6:5f:84:
                    ac:93:a3:f7:f7:fc:3c:71:1c:b5:30:cb:12:42:8d:
                    d2:db:68:d6:9b:9d:32:d9:50:3f:9d:9d:ee:7e:23:
                    45:21:3f:5d:37:79:6f:43:96:e0:d2:a7:9e:26:39:
                    30:28:fb:bf:79:85:1e:60:3f:e3:94:fb:18:25:7f:
                    7c:f5:b8:06:fe:70:e8:d1:e8:9d:d8:86:07:e3:17:
                    e1:a8:38:79:b6:39:c9:9c:d1:57:46:75:3b:34:36:
                    ea:58:98:eb:2d:b1:fa:ef:91:b4:d3:bc:27:62:68:
                    55:9b:23:a7:56:b0:ce:4e:f2:c9:dd:38:27:06:96:
                    23:72:b6:40:6e:7f:3a:0c:7a:b3:a1:2b:6c:43:17:
                    68:14:de:41:b8:05:84:d0:97:f9:dd:3a:69:08:04:
                    bf:89:50:16:2b:56:34:60:57:14:5e:42:ca:f4:ab:
                    ff:09:67:30:e2:63:66:c9:7c:e9:6b:f0:5c:45:e5:
                    88:c6:cf:76:b6:c3:77:41:78:2d:53:b3:80:bb:8d:
                    37:8e:22:e5:24:99:af:6f:cd:6b:9a:a5:91:95:8e:
                    31:13:02:02:07:ae:ec:37:74:9e:ba:74:16:26:45:
                    60:3d:7e:37:53:8a:bc:01:f0:18:a2:a2:13:c4:57:
                    39:80:1e:aa:1c:8c:9e:6b:98:02:6c:50:66:97:c8:
                    a5:3e:81
                Exponent: 65537 (0x10001)
        X509v3 extensions:
            X509v3 Basic Constraints: 
                CA:FALSE
            Netscape Comment: 
                Easy-RSA Generated Certificate
            X509v3 Subject Key Identifier: 
                A9:8D:35:2E:2E:E6:5D:C6:B2:B0:7E:4C:26:1A:0C:02:A6:1E:EE:C0
            X509v3 Authority Key Identifier: 
                keyid:12:CD:60:04:D2:A0:80:9E:70:ED:C6:99:B8:7B:2C:C6:52:FD:19:A1
                DirName:/C=US/ST=OH/L=Columbus/O=VikingVPN/OU=MyOrganizationalUnit/CN=VikingVPN CA/name=EasyRSA/emailAddress=me@myhost.mydomain
                serial:CF:35:85:EE:80:BF:2A:3E

            X509v3 Extended Key Usage: 
                TLS Web Client Authentication
            X509v3 Key Usage: 
                Digital Signature
    Signature Algorithm: md5WithRSAEncryption
         3e:6f:59:65:9c:c8:77:b9:c1:19:89:83:9d:2f:fc:a0:ec:f9:
         b3:b4:26:bd:0f:cb:f7:60:9c:96:42:88:34:86:a3:cf:32:c0:
         84:cd:b9:d7:87:ce:c5:0f:48:3c:e4:5f:c2:b6:d2:5e:bd:24:
         22:9b:9f:ca:52:1d:6b:d5:f4:3f:0b:4c:65:8e:2f:27:88:41:
         7e:7f:89:d3:01:79:54:5b:9c:60:3a:5a:23:d4:e6:2f:60:18:
         07:e0:ec:39:73:fe:a3:e8:1d:59:b4:1c:43:6b:cf:43:b3:91:
         2b:f9:7e:40:60:23:f6:89:2f:8d:69:18:ed:ff:ad:5f:90:75:
         1e:f5:5b:8a:62:35:96:2a:6a:60:96:8e:a8:d5:52:94:42:2d:
         b9:98:c4:d8:bc:da:93:97:94:cc:58:8a:5f:5c:84:f2:4c:b1:
         cf:9d:d0:d8:a9:6a:1e:5f:44:14:f3:4b:56:98:a8:91:13:65:
         71:d2:76:3b:c6:85:ae:9a:bd:78:c9:2f:5a:63:2c:b7:08:5f:
         5f:ac:0b:13:d3:ee:43:f6:af:cf:19:6e:32:9b:93:af:38:29:
         40:26:51:a3:64:1f:42:81:c7:93:d4:b1:20:a6:35:ad:4c:1e:
         7b:b8:d0:88:ad:4f:63:bd:5a:f8:57:be:71:2d:f7:ab:5e:f5:
         e2:6f:61:d7:bf:73:23:06:bc:34:24:67:87:f4:d6:50:81:24:
         ba:75:9b:87:f2:d6:b0:fa:40:93:be:03:b2:4b:87:ab:12:ed:
         dc:e5:dc:10:7c:e9:ff:99:58:84:4a:f1:2b:e7:b1:0e:21:cd:
         59:7b:86:cf:c6:2c:d9:f4:90:bd:e0:85:45:3f:0c:d9:2c:b9:
         0e:87:a1:d6:58:ad:eb:c0:9b:85:98:59:19:b2:e1:3e:77:7e:
         00:54:2b:ce:21:11:7f:29:14:83:93:b6:0c:a2:88:64:8e:65:
         4a:7c:f6:d6:43:0a:8a:2d:d2:f8:6d:9f:b2:1b:8c:4c:bb:28:
         c1:18:c4:bb:09:d0:a3:40:c9:f3:4f:6c:de:ce:2a:1e:ef:a9:
         c9:a7:f9:3b:d2:b4:bd:2f:d9:d7:e5:5b:5c:9f:ae:3e:d8:99:
         a0:00:2b:59:51:d3:47:97:78:77:8d:e6:79:35:3b:8a:91:3a:
         25:b7:8e:71:a4:3f:1b:d1:97:a8:6c:00:61:88:73:ac:2a:9f:
         57:e1:31:3b:75:b6:3f:c6:b6:69:e4:2a:5c:3c:40:2d:6d:ba:
         50:5e:de:1d:46:dd:41:ca:c8:d7:49:12:69:78:7b:75:59:97:
         57:0d:6d:bb:61:de:23:c6:b9:7c:e5:d0:1d:0f:d5:22:1c:58:
         42:5e:2e:c6:88:f8:8b:14
-----BEGIN CERTIFICATE-----
MIIGrDCCBJSgAwIBAgICCMswDQYJKoZIhvcNAQEEBQAwgawxCzAJBgNVBAYTAlVT
MQswCQYDVQQIEwJPSDERMA8GA1UEBxMIQ29sdW1idXMxEjAQBgNVBAoTCVZpa2lu
Z1ZQTjEdMBsGA1UECxMUTXlPcmdhbml6YXRpb25hbFVuaXQxFTATBgNVBAMTDFZp
a2luZ1ZQTiBDQTEQMA4GA1UEKRMHRWFzeVJTQTEhMB8GCSqGSIb3DQEJARYSbWVA
bXlob3N0Lm15ZG9tYWluMB4XDTE0MDcxMzA2MjQ1MFoXDTI0MDcxMDA2MjQ1MFow
HjEcMBoGA1UEAxMTQ2xpZW50NzYwQ2VydGUxNzczNDCCAiIwDQYJKoZIhvcNAQEB
BQADggIPADCCAgoCggIBAPDWedXQnPlHCZbKzm5ivrv2VSng2V8gE3AH+vWlQJ7L
Iz4KP4mf3JnPnndOh3YAv6sEdY4SyvMwfHAdLbmbgGJfwVvcS/rFykrKiU1QYO2v
+TcFcLPDQXRpr9jt6udlbFZ9rQaoDWqtjlHOfWXvVwvjPiSjXofgdxTM6uVEE3ux
WzikC5yL5tM5JAi2aT8q4Tq0UeX3+BZSxDVW3/YwH2otcglGubg8s5Abp+u+4Nse
GjrcC32NgC5IiF6Zu76PMsGcURfnnKNeC39IZucJRybbc1NtcvCafyMK3edFp8lh
Lo+nacJQBIkkRm41ov2J3/u55Qhbi4LptNqOxl+ErJOj9/f8PHEctTDLEkKN0tto
1pudMtlQP52d7n4jRSE/XTd5b0OW4NKnniY5MCj7v3mFHmA/45T7GCV/fPW4Bv5w
6NHondiGB+MX4ag4ebY5yZzRV0Z1OzQ26liY6y2x+u+RtNO8J2JoVZsjp1awzk7y
yd04JwaWI3K2QG5/Ogx6s6ErbEMXaBTeQbgFhNCX+d06aQgEv4lQFitWNGBXFF5C
yvSr/wlnMOJjZsl86WvwXEXliMbPdrbDd0F4LVOzgLuNN44i5SSZr2/Na5qlkZWO
MRMCAgeu7Dd0nrp0FiZFYD1+N1OKvAHwGKKiE8RXOYAeqhyMnmuYAmxQZpfIpT6B
AgMBAAGjggFjMIIBXzAJBgNVHRMEAjAAMC0GCWCGSAGG+EIBDQQgFh5FYXN5LVJT
QSBHZW5lcmF0ZWQgQ2VydGlmaWNhdGUwHQYDVR0OBBYEFKmNNS4u5l3GsrB+TCYa
DAKmHu7AMIHhBgNVHSMEgdkwgdaAFBLNYATSoICecO3Gmbh7LMZS/RmhoYGypIGv
MIGsMQswCQYDVQQGEwJVUzELMAkGA1UECBMCT0gxETAPBgNVBAcTCENvbHVtYnVz
MRIwEAYDVQQKEwlWaWtpbmdWUE4xHTAbBgNVBAsTFE15T3JnYW5pemF0aW9uYWxV
bml0MRUwEwYDVQQDEwxWaWtpbmdWUE4gQ0ExEDAOBgNVBCkTB0Vhc3lSU0ExITAf
BgkqhkiG9w0BCQEWEm1lQG15aG9zdC5teWRvbWFpboIJAM81he6Avyo+MBMGA1Ud
JQQMMAoGCCsGAQUFBwMCMAsGA1UdDwQEAwIHgDANBgkqhkiG9w0BAQQFAAOCAgEA
Pm9ZZZzId7nBGYmDnS/8oOz5s7QmvQ/L92CclkKINIajzzLAhM2514fOxQ9IPORf
wrbSXr0kIpufylIda9X0PwtMZY4vJ4hBfn+J0wF5VFucYDpaI9TmL2AYB+DsOXP+
o+gdWbQcQ2vPQ7ORK/l+QGAj9okvjWkY7f+tX5B1HvVbimI1lipqYJaOqNVSlEIt
uZjE2Lzak5eUzFiKX1yE8kyxz53Q2KlqHl9EFPNLVpiokRNlcdJ2O8aFrpq9eMkv
WmMstwhfX6wLE9PuQ/avzxluMpuTrzgpQCZRo2QfQoHHk9SxIKY1rUwee7jQiK1P
Y71a+Fe+cS33q1714m9h179zIwa8NCRnh/TWUIEkunWbh/LWsPpAk74DskuHqxLt
3OXcEHzp/5lYhErxK+exDiHNWXuGz8Ys2fSQveCFRT8M2Sy5Doeh1lit68CbhZhZ
GbLhPnd+AFQrziERfykUg5O2DKKIZI5lSnz21kMKii3S+G2fshuMTLsowRjEuwnQ
o0DJ809s3s4qHu+pyaf5O9K0vS/Z1+VbXJ+uPtiZoAArWVHTR5d4d43meTU7ipE6
JbeOcaQ/G9GXqGwAYYhzrCqfV+ExO3W2P8a2aeQqXDxALW26UF7eHUbdQcrI10kS
aXh7dVmXVw1tu2HeI8a5fOXQHQ/VIhxYQl4uxoj4ixQ=
-----END CERTIFICATE-----
