Certificate:
    Data:
        Version: 3 (0x2)
        Serial Number: 9875 (0x2693)
    Signature Algorithm: sha256WithRSAEncryption
        Issuer: C=US, ST=OH, L=Columbus, O=VikingVPN, OU=MyOrganizationalUnit, CN=VikingVPN CA/name=EasyRSA/emailAddress=me@myhost.mydomain
        Validity
            Not Before: Jan 13 14:06:43 2017 GMT
            Not After : Jan 11 14:06:43 2027 GMT
        Subject: CN=Client2683Cert2fa97d
        Subject Public Key Info:
            Public Key Algorithm: rsaEncryption
                Public-Key: (4096 bit)
                Modulus:
                    00:d6:b3:05:44:54:02:f7:25:28:6e:e0:0c:e3:28:
                    51:f1:b1:b7:c1:6b:a7:cd:cd:d6:b8:bc:bd:9e:26:
                    47:dc:31:fb:b7:e8:55:5f:41:49:89:45:5b:eb:b8:
                    6b:79:73:8f:63:5d:6c:50:9d:89:47:8d:ad:93:e5:
                    ef:9b:3f:a0:ad:a5:eb:b5:81:ed:9d:d2:d7:ed:41:
                    4e:8f:36:10:90:b7:0e:b9:87:64:7e:e9:1a:fe:bb:
                    2d:51:97:71:30:a1:9f:97:37:a6:16:24:36:dc:59:
                    26:5f:aa:95:3b:29:16:ed:10:17:72:92:0b:ac:c5:
                    90:f1:3c:81:c8:ce:57:e5:17:04:5a:70:50:f5:7f:
                    33:87:aa:e7:22:7e:1c:20:e9:01:25:f0:1c:85:53:
                    7b:d3:69:22:5f:68:a5:f4:c5:e2:31:d7:ea:d1:b9:
                    73:4c:0d:44:e1:f8:ac:9a:02:fc:f5:d3:b1:ed:56:
                    b1:13:67:ef:7c:7d:4c:8e:ea:b8:2e:bc:bc:84:9b:
                    0f:73:61:9b:ca:10:a9:7a:54:01:45:0b:4b:4d:4a:
                    7d:b5:6f:a4:e9:b6:0c:ce:6a:84:2f:35:72:0a:6e:
                    f6:0d:c7:45:ed:15:6f:49:42:0d:ce:c8:22:c1:22:
                    9b:69:17:2f:9b:d5:ac:4c:95:ad:ee:30:88:aa:71:
                    3b:69:51:1b:10:3f:5c:9c:4e:b3:59:1f:3b:17:a7:
                    c4:31:a4:b4:14:ba:40:93:5b:cd:7c:b2:6f:8d:4e:
                    c2:48:0e:46:c3:a3:dd:bc:12:89:ee:38:dc:ab:74:
                    bc:c0:3f:d0:2e:6e:c1:5c:b7:40:4c:07:24:b3:a9:
                    58:92:31:ab:13:4a:15:ee:30:b8:97:99:8a:d3:47:
                    77:09:3b:db:72:98:78:60:c4:95:60:a0:6c:9a:38:
                    36:80:2b:44:0c:f5:0a:1a:f1:ec:0f:23:c7:58:d0:
                    f8:ce:d1:bd:9a:aa:86:9b:ea:d0:98:fe:23:69:e5:
                    69:35:09:31:0d:0a:3f:ff:4d:d4:09:88:f0:63:e8:
                    35:64:28:ee:5d:e7:e6:98:34:03:e3:15:aa:ca:6e:
                    74:2a:19:54:9e:ff:9c:e1:a5:b5:02:26:b7:2e:99:
                    88:c7:2c:bb:34:11:77:2c:d9:ea:15:ab:84:95:87:
                    c5:8c:42:98:be:be:04:30:51:dd:d4:50:8b:32:3a:
                    01:23:81:79:14:d5:5f:49:64:d8:b0:53:66:0c:fb:
                    fd:43:fa:fc:82:cd:fb:c4:67:ea:ec:97:3f:14:3e:
                    e8:f0:fd:5e:b9:3e:d3:6e:ab:a4:1a:28:e5:5d:f6:
                    a1:26:da:de:b4:b3:a4:5e:2e:f7:e7:8e:a6:f7:ce:
                    1b:05:ab
                Exponent: 65537 (0x10001)
        X509v3 extensions:
            X509v3 Basic Constraints: 
                CA:FALSE
            Netscape Comment: 
                Easy-RSA Generated Certificate
            X509v3 Subject Key Identifier: 
                5C:0A:53:76:F0:16:E3:E8:FA:91:14:EE:0A:11:C4:05:E6:4B:F9:26
            X509v3 Authority Key Identifier: 
                keyid:12:CD:60:04:D2:A0:80:9E:70:ED:C6:99:B8:7B:2C:C6:52:FD:19:A1
                DirName:/C=US/ST=OH/L=Columbus/O=VikingVPN/OU=MyOrganizationalUnit/CN=VikingVPN CA/name=EasyRSA/emailAddress=me@myhost.mydomain
                serial:CF:35:85:EE:80:BF:2A:3E

            X509v3 Extended Key Usage: 
                TLS Web Client Authentication
            X509v3 Key Usage: 
                Digital Signature
    Signature Algorithm: sha256WithRSAEncryption
         4a:ff:b3:2d:40:6b:e8:56:ee:1e:ca:9a:b9:89:8c:19:07:86:
         df:11:2c:e1:03:9e:6f:00:54:2e:b1:20:be:eb:c3:4d:28:4f:
         0b:98:5e:64:4e:78:d3:36:8a:0e:d9:61:1a:53:43:30:50:18:
         a3:09:20:f9:23:3b:f7:d8:d1:7a:a8:c7:47:98:1d:22:ed:e3:
         b3:d9:8c:79:a7:00:59:fd:f2:67:cd:6a:da:d9:00:9e:0c:2f:
         14:c2:49:5c:0b:79:e5:cd:07:91:2f:5b:b0:23:ef:65:4e:b3:
         a4:e2:c9:fd:96:a3:16:45:41:8c:a8:63:2d:0d:30:8f:e0:cb:
         7a:39:02:64:78:1a:0b:0a:5e:b0:d9:67:ef:45:22:36:02:bc:
         2f:9d:d2:37:6a:f7:17:35:d1:6d:7d:80:a3:0b:7a:37:8e:d7:
         81:1f:71:72:98:ba:68:66:fe:30:4a:62:2c:50:56:e2:10:c6:
         7f:87:5e:34:99:b1:0f:ff:62:ad:76:f3:c2:67:07:5b:0b:15:
         93:30:5f:e5:cb:7a:5a:68:01:7b:4b:51:01:6a:e3:56:df:38:
         da:6d:96:73:88:b4:1e:7c:3a:6e:31:c3:76:40:2b:9f:50:1a:
         9f:2c:5f:5a:68:ec:8b:97:00:98:43:51:98:57:4a:4e:15:45:
         c5:b5:67:d5:03:aa:ab:24:d2:8f:f5:73:0c:1c:78:ea:24:25:
         a2:ec:25:e1:18:95:3a:0a:3f:14:8d:ac:ba:79:9a:d5:26:b3:
         f0:4a:67:78:d3:f6:5d:72:1c:8d:f1:ea:f0:b5:96:ac:33:28:
         b4:69:3e:8d:c4:29:1d:1a:64:d7:a5:82:ef:d5:f2:ff:36:0c:
         14:94:26:44:8d:7c:bf:a3:1d:14:64:4a:6b:51:95:87:76:d5:
         fd:f8:18:43:5e:91:30:08:b3:40:50:66:87:c7:e8:7a:47:1a:
         be:99:65:6c:11:91:3e:c4:ff:5f:1c:48:d2:02:79:17:4b:04:
         76:10:d5:6e:39:b2:26:79:24:32:a3:32:d1:82:68:77:25:18:
         b7:29:f8:5f:98:26:39:8f:a7:5b:67:3a:70:ae:a7:cc:c9:55:
         53:fd:6b:d1:82:71:95:06:e0:c6:7e:69:50:43:96:11:43:a6:
         1c:ac:45:da:b2:66:ff:44:34:54:0b:e8:10:ad:8e:5c:c7:19:
         05:42:a0:27:12:02:e4:13:10:86:43:5f:7f:7e:43:68:31:9c:
         a7:52:84:ee:2a:9c:13:1b:3d:b5:a9:72:db:0a:90:e0:06:20:
         cd:15:72:3a:40:e6:86:0e:96:6b:5b:cd:b2:c6:a4:7a:1a:8e:
         0d:a4:52:fe:3b:26:65:38
-----BEGIN CERTIFICATE-----
MIIGrTCCBJWgAwIBAgICJpMwDQYJKoZIhvcNAQELBQAwgawxCzAJBgNVBAYTAlVT
MQswCQYDVQQIEwJPSDERMA8GA1UEBxMIQ29sdW1idXMxEjAQBgNVBAoTCVZpa2lu
Z1ZQTjEdMBsGA1UECxMUTXlPcmdhbml6YXRpb25hbFVuaXQxFTATBgNVBAMTDFZp
a2luZ1ZQTiBDQTEQMA4GA1UEKRMHRWFzeVJTQTEhMB8GCSqGSIb3DQEJARYSbWVA
bXlob3N0Lm15ZG9tYWluMB4XDTE3MDExMzE0MDY0M1oXDTI3MDExMTE0MDY0M1ow
HzEdMBsGA1UEAxMUQ2xpZW50MjY4M0NlcnQyZmE5N2QwggIiMA0GCSqGSIb3DQEB
AQUAA4ICDwAwggIKAoICAQDWswVEVAL3JShu4AzjKFHxsbfBa6fNzda4vL2eJkfc
Mfu36FVfQUmJRVvruGt5c49jXWxQnYlHja2T5e+bP6Ctpeu1ge2d0tftQU6PNhCQ
tw65h2R+6Rr+uy1Rl3EwoZ+XN6YWJDbcWSZfqpU7KRbtEBdykgusxZDxPIHIzlfl
FwRacFD1fzOHqucifhwg6QEl8ByFU3vTaSJfaKX0xeIx1+rRuXNMDUTh+KyaAvz1
07HtVrETZ+98fUyO6rguvLyEmw9zYZvKEKl6VAFFC0tNSn21b6TptgzOaoQvNXIK
bvYNx0XtFW9JQg3OyCLBIptpFy+b1axMla3uMIiqcTtpURsQP1ycTrNZHzsXp8Qx
pLQUukCTW818sm+NTsJIDkbDo928EonuONyrdLzAP9AubsFct0BMBySzqViSMasT
ShXuMLiXmYrTR3cJO9tymHhgxJVgoGyaODaAK0QM9Qoa8ewPI8dY0PjO0b2aqoab
6tCY/iNp5Wk1CTENCj//TdQJiPBj6DVkKO5d5+aYNAPjFarKbnQqGVSe/5zhpbUC
JrcumYjHLLs0EXcs2eoVq4SVh8WMQpi+vgQwUd3UUIsyOgEjgXkU1V9JZNiwU2YM
+/1D+vyCzfvEZ+rslz8UPujw/V65PtNuq6QaKOVd9qEm2t60s6ReLvfnjqb3zhsF
qwIDAQABo4IBYzCCAV8wCQYDVR0TBAIwADAtBglghkgBhvhCAQ0EIBYeRWFzeS1S
U0EgR2VuZXJhdGVkIENlcnRpZmljYXRlMB0GA1UdDgQWBBRcClN28Bbj6PqRFO4K
EcQF5kv5JjCB4QYDVR0jBIHZMIHWgBQSzWAE0qCAnnDtxpm4eyzGUv0ZoaGBsqSB
rzCBrDELMAkGA1UEBhMCVVMxCzAJBgNVBAgTAk9IMREwDwYDVQQHEwhDb2x1bWJ1
czESMBAGA1UEChMJVmlraW5nVlBOMR0wGwYDVQQLExRNeU9yZ2FuaXphdGlvbmFs
VW5pdDEVMBMGA1UEAxMMVmlraW5nVlBOIENBMRAwDgYDVQQpEwdFYXN5UlNBMSEw
HwYJKoZIhvcNAQkBFhJtZUBteWhvc3QubXlkb21haW6CCQDPNYXugL8qPjATBgNV
HSUEDDAKBggrBgEFBQcDAjALBgNVHQ8EBAMCB4AwDQYJKoZIhvcNAQELBQADggIB
AEr/sy1Aa+hW7h7KmrmJjBkHht8RLOEDnm8AVC6xIL7rw00oTwuYXmROeNM2ig7Z
YRpTQzBQGKMJIPkjO/fY0Xqox0eYHSLt47PZjHmnAFn98mfNatrZAJ4MLxTCSVwL
eeXNB5EvW7Aj72VOs6Tiyf2WoxZFQYyoYy0NMI/gy3o5AmR4GgsKXrDZZ+9FIjYC
vC+d0jdq9xc10W19gKMLejeO14EfcXKYumhm/jBKYixQVuIQxn+HXjSZsQ//Yq12
88JnB1sLFZMwX+XLelpoAXtLUQFq41bfONptlnOItB58Om4xw3ZAK59QGp8sX1po
7IuXAJhDUZhXSk4VRcW1Z9UDqqsk0o/1cwwceOokJaLsJeEYlToKPxSNrLp5mtUm
s/BKZ3jT9l1yHI3x6vC1lqwzKLRpPo3EKR0aZNelgu/V8v82DBSUJkSNfL+jHRRk
SmtRlYd21f34GENekTAIs0BQZofH6HpHGr6ZZWwRkT7E/18cSNICeRdLBHYQ1W45
siZ5JDKjMtGCaHclGLcp+F+YJjmPp1tnOnCup8zJVVP9a9GCcZUG4MZ+aVBDlhFD
physRdqyZv9ENFQL6BCtjlzHGQVCoCcSAuQTEIZDX39+Q2gxnKdShO4qnBMbPbWp
ctsKkOAGIM0VcjpA5oYOlmtbzbLGpHoajg2kUv47JmU4
-----END CERTIFICATE-----
