Certificate:
    Data:
        Version: 3 (0x2)
        Serial Number: 5037 (0x13ad)
    Signature Algorithm: md5WithRSAEncryption
        Issuer: C=US, ST=OH, L=Columbus, O=VikingVPN, OU=MyOrganizationalUnit, CN=VikingVPN CA/name=EasyRSA/emailAddress=me@myhost.mydomain
        Validity
            Not Before: Apr 21 12:00:03 2015 GMT
            Not After : Apr 18 12:00:03 2025 GMT
        Subject: CN=Client1620Certc109c1
        Subject Public Key Info:
            Public Key Algorithm: rsaEncryption
                Public-Key: (4096 bit)
                Modulus:
                    00:92:f8:99:bd:46:1b:ce:ba:bb:77:98:7b:91:66:
                    df:83:8e:97:e2:f9:71:b1:ed:d3:1f:cb:91:e2:ad:
                    4b:0f:c4:ac:a6:84:c3:fe:8d:74:2e:f3:59:3c:eb:
                    d0:a9:55:cb:2b:3a:22:9e:1e:40:10:3e:48:a7:68:
                    a4:e6:6e:95:f7:35:f6:52:71:79:9f:aa:f4:0c:63:
                    8d:e4:d0:3d:c6:ea:96:79:61:7e:39:58:a3:ae:4f:
                    c4:b1:42:70:e4:b9:4a:90:0f:d8:89:96:05:9f:ad:
                    bd:ce:7f:01:32:dd:30:49:6a:f6:55:81:2f:b7:96:
                    50:62:73:df:a9:70:16:a6:32:18:a0:c3:ee:9a:cb:
                    48:b5:40:aa:17:3a:72:5c:60:2e:7e:cb:a7:fd:17:
                    e9:68:04:d4:e4:1d:0a:76:d1:78:91:4b:62:ed:da:
                    52:30:92:e5:ba:d7:46:b2:43:3d:c6:2f:4e:54:b0:
                    a9:12:3b:ea:14:d4:39:94:53:e8:ba:70:f5:85:5a:
                    04:ac:7d:b9:8d:04:45:cf:bc:60:84:4a:96:fe:a5:
                    7f:d1:21:00:ee:56:b8:60:b7:ef:0b:ea:26:e4:32:
                    95:31:7f:ec:4f:b1:e4:f0:2a:7c:a1:6c:b3:53:fa:
                    96:9f:aa:c7:48:d0:be:77:d9:91:59:52:1a:c1:bf:
                    32:d9:08:08:fb:c8:4f:6a:b3:af:fc:86:c6:1c:7e:
                    3f:89:11:52:0b:0f:ec:1a:6f:e4:02:d4:5e:36:a1:
                    0a:19:e3:5d:8e:9a:3d:16:f6:1d:74:a3:1f:14:81:
                    7b:50:2b:aa:c9:a9:bc:df:33:5d:76:05:57:b9:04:
                    09:0d:af:8f:e3:55:7d:02:59:e0:52:7f:22:50:38:
                    ac:b0:99:9f:97:3e:7f:71:da:32:fc:64:49:f4:09:
                    71:db:01:9c:d8:a8:01:c4:2f:68:a7:c0:66:4e:99:
                    88:6d:2c:11:92:e7:55:ae:90:ff:8b:de:80:60:83:
                    b9:84:6e:a2:3f:68:31:3e:ba:c8:87:b2:fc:7e:7e:
                    6d:47:f0:69:29:1b:d8:fb:52:83:6d:14:8f:ad:41:
                    64:b0:0e:c8:e8:f1:b1:de:df:e2:3d:33:ba:b9:21:
                    10:50:e6:05:76:8c:61:dd:9f:65:01:17:c8:26:c2:
                    4b:dd:be:3d:13:12:e9:40:dd:57:e1:3a:59:35:8d:
                    30:09:16:52:9a:ba:46:fa:45:9a:29:13:07:f9:24:
                    4b:cc:1d:fd:32:63:48:02:c7:3a:cd:4a:46:fd:70:
                    f6:12:73:52:9d:52:4a:6e:07:9a:fd:a8:37:0e:46:
                    b9:3f:08:ef:f1:08:b0:38:5a:72:be:74:60:83:d6:
                    35:f2:d1
                Exponent: 65537 (0x10001)
        X509v3 extensions:
            X509v3 Basic Constraints: 
                CA:FALSE
            Netscape Comment: 
                Easy-RSA Generated Certificate
            X509v3 Subject Key Identifier: 
                DB:FD:D4:49:09:AB:B4:1D:96:C3:D9:90:C2:DE:8E:02:95:82:53:EA
            X509v3 Authority Key Identifier: 
                keyid:12:CD:60:04:D2:A0:80:9E:70:ED:C6:99:B8:7B:2C:C6:52:FD:19:A1
                DirName:/C=US/ST=OH/L=Columbus/O=VikingVPN/OU=MyOrganizationalUnit/CN=VikingVPN CA/name=EasyRSA/emailAddress=me@myhost.mydomain
                serial:CF:35:85:EE:80:BF:2A:3E

            X509v3 Extended Key Usage: 
                TLS Web Client Authentication
            X509v3 Key Usage: 
                Digital Signature
    Signature Algorithm: md5WithRSAEncryption
         d2:d6:7f:5d:b6:19:c1:0c:c4:d9:9d:15:0a:23:6c:5e:6a:b4:
         3f:dc:43:13:27:6d:9f:4d:25:9c:d9:4b:b7:33:a9:e4:c7:1c:
         9f:ab:21:cc:93:39:7f:63:52:cd:11:6d:9b:80:e9:67:c8:90:
         30:c5:79:52:e3:c6:f8:e8:a9:5d:2f:bd:33:05:ca:35:b8:2a:
         0e:0d:02:dd:84:c0:3a:d6:32:d7:cf:12:89:7e:5b:c4:a1:64:
         0c:a1:87:04:e2:d6:4a:c1:13:47:16:54:79:f6:48:b6:03:2f:
         29:7d:1d:79:0b:f4:a0:74:e7:06:2d:8f:60:4c:4e:3a:f5:d9:
         05:bd:18:d4:13:47:46:88:78:10:33:6b:08:db:6d:c8:ae:b7:
         66:43:d8:72:78:50:2b:3d:10:4e:c3:91:89:91:e8:76:31:e0:
         e5:af:25:13:8a:91:59:34:79:77:3f:35:d0:aa:b7:1e:bc:27:
         cf:f4:d6:6f:39:da:8e:28:ac:14:36:5f:46:44:30:b1:95:a1:
         32:b1:f6:73:22:6b:69:cb:b7:79:e8:25:25:f5:55:1d:c0:2a:
         59:a7:96:da:7a:a6:29:c3:92:13:1c:fb:6e:ee:d2:8d:16:79:
         b7:9f:d1:cb:d4:8d:0a:eb:b6:d3:bf:22:e1:42:3b:82:0f:2b:
         17:14:29:d3:9c:f5:9c:29:ae:f5:b5:45:76:ce:93:cd:fa:b5:
         fa:06:f5:3d:87:fd:24:2e:b1:ae:aa:d1:30:b3:75:11:59:fa:
         7f:22:a0:88:56:52:9c:60:75:05:99:7f:79:39:95:ee:36:33:
         8f:ef:ff:6c:44:3d:b0:9b:8a:51:fb:b2:32:78:47:14:11:e2:
         90:56:6c:4a:06:e6:67:02:ee:fe:35:63:c3:47:86:95:a2:f8:
         fd:48:fb:32:39:75:12:81:86:d8:84:70:a3:fd:10:ab:71:de:
         78:55:f8:d0:a3:da:f4:b0:b4:a7:9e:86:73:23:d9:50:fd:15:
         65:6f:11:f8:1d:b1:b3:e7:b3:3f:38:02:dc:ef:05:91:c9:a5:
         1e:d3:fd:03:5f:30:8b:d0:29:f7:46:32:70:19:f2:2d:fb:67:
         a5:42:69:e8:49:f3:c8:a6:8e:0d:c0:cd:d6:d0:e5:86:69:6f:
         3a:78:ae:be:d0:ea:fb:3f:7f:f9:be:e6:7d:f9:bf:c9:2c:94:
         c1:5b:12:03:21:7c:a5:fc:dd:df:5d:0b:ca:1d:3d:a6:6b:3a:
         7d:7b:82:11:d9:5e:27:24:ef:f5:a5:68:24:c9:93:27:2c:52:
         b2:70:7a:44:ac:dd:f0:7f:81:dc:37:86:c7:1e:59:ba:f4:7e:
         52:4d:7d:f3:4b:a1:82:79
-----BEGIN CERTIFICATE-----
MIIGrTCCBJWgAwIBAgICE60wDQYJKoZIhvcNAQEEBQAwgawxCzAJBgNVBAYTAlVT
MQswCQYDVQQIEwJPSDERMA8GA1UEBxMIQ29sdW1idXMxEjAQBgNVBAoTCVZpa2lu
Z1ZQTjEdMBsGA1UECxMUTXlPcmdhbml6YXRpb25hbFVuaXQxFTATBgNVBAMTDFZp
a2luZ1ZQTiBDQTEQMA4GA1UEKRMHRWFzeVJTQTEhMB8GCSqGSIb3DQEJARYSbWVA
bXlob3N0Lm15ZG9tYWluMB4XDTE1MDQyMTEyMDAwM1oXDTI1MDQxODEyMDAwM1ow
HzEdMBsGA1UEAxMUQ2xpZW50MTYyMENlcnRjMTA5YzEwggIiMA0GCSqGSIb3DQEB
AQUAA4ICDwAwggIKAoICAQCS+Jm9RhvOurt3mHuRZt+Djpfi+XGx7dMfy5HirUsP
xKymhMP+jXQu81k869CpVcsrOiKeHkAQPkinaKTmbpX3NfZScXmfqvQMY43k0D3G
6pZ5YX45WKOuT8SxQnDkuUqQD9iJlgWfrb3OfwEy3TBJavZVgS+3llBic9+pcBam
Mhigw+6ay0i1QKoXOnJcYC5+y6f9F+loBNTkHQp20XiRS2Lt2lIwkuW610ayQz3G
L05UsKkSO+oU1DmUU+i6cPWFWgSsfbmNBEXPvGCESpb+pX/RIQDuVrhgt+8L6ibk
MpUxf+xPseTwKnyhbLNT+pafqsdI0L532ZFZUhrBvzLZCAj7yE9qs6/8hsYcfj+J
EVILD+wab+QC1F42oQoZ412Omj0W9h10ox8UgXtQK6rJqbzfM112BVe5BAkNr4/j
VX0CWeBSfyJQOKywmZ+XPn9x2jL8ZEn0CXHbAZzYqAHEL2inwGZOmYhtLBGS51Wu
kP+L3oBgg7mEbqI/aDE+usiHsvx+fm1H8GkpG9j7UoNtFI+tQWSwDsjo8bHe3+I9
M7q5IRBQ5gV2jGHdn2UBF8gmwkvdvj0TEulA3VfhOlk1jTAJFlKaukb6RZopEwf5
JEvMHf0yY0gCxzrNSkb9cPYSc1KdUkpuB5r9qDcORrk/CO/xCLA4WnK+dGCD1jXy
0QIDAQABo4IBYzCCAV8wCQYDVR0TBAIwADAtBglghkgBhvhCAQ0EIBYeRWFzeS1S
U0EgR2VuZXJhdGVkIENlcnRpZmljYXRlMB0GA1UdDgQWBBTb/dRJCau0HZbD2ZDC
3o4ClYJT6jCB4QYDVR0jBIHZMIHWgBQSzWAE0qCAnnDtxpm4eyzGUv0ZoaGBsqSB
rzCBrDELMAkGA1UEBhMCVVMxCzAJBgNVBAgTAk9IMREwDwYDVQQHEwhDb2x1bWJ1
czESMBAGA1UEChMJVmlraW5nVlBOMR0wGwYDVQQLExRNeU9yZ2FuaXphdGlvbmFs
VW5pdDEVMBMGA1UEAxMMVmlraW5nVlBOIENBMRAwDgYDVQQpEwdFYXN5UlNBMSEw
HwYJKoZIhvcNAQkBFhJtZUBteWhvc3QubXlkb21haW6CCQDPNYXugL8qPjATBgNV
HSUEDDAKBggrBgEFBQcDAjALBgNVHQ8EBAMCB4AwDQYJKoZIhvcNAQEEBQADggIB
ANLWf122GcEMxNmdFQojbF5qtD/cQxMnbZ9NJZzZS7czqeTHHJ+rIcyTOX9jUs0R
bZuA6WfIkDDFeVLjxvjoqV0vvTMFyjW4Kg4NAt2EwDrWMtfPEol+W8ShZAyhhwTi
1krBE0cWVHn2SLYDLyl9HXkL9KB05wYtj2BMTjr12QW9GNQTR0aIeBAzawjbbciu
t2ZD2HJ4UCs9EE7DkYmR6HYx4OWvJROKkVk0eXc/NdCqtx68J8/01m852o4orBQ2
X0ZEMLGVoTKx9nMia2nLt3noJSX1VR3AKlmnltp6pinDkhMc+27u0o0Webef0cvU
jQrrttO/IuFCO4IPKxcUKdOc9ZwprvW1RXbOk836tfoG9T2H/SQusa6q0TCzdRFZ
+n8ioIhWUpxgdQWZf3k5le42M4/v/2xEPbCbilH7sjJ4RxQR4pBWbEoG5mcC7v41
Y8NHhpWi+P1I+zI5dRKBhtiEcKP9EKtx3nhV+NCj2vSwtKeehnMj2VD9FWVvEfgd
sbPnsz84AtzvBZHJpR7T/QNfMIvQKfdGMnAZ8i37Z6VCaehJ88imjg3AzdbQ5YZp
bzp4rr7Q6vs/f/m+5n35v8kslMFbEgMhfKX83d9dC8odPaZrOn17ghHZXick7/Wl
aCTJkycsUrJwekSs3fB/gdw3hsceWbr0flJNffNLoYJ5
-----END CERTIFICATE-----
