Certificate:
    Data:
        Version: 3 (0x2)
        Serial Number: 5187 (0x1443)
    Signature Algorithm: md5WithRSAEncryption
        Issuer: C=US, ST=OH, L=Columbus, O=VikingVPN, OU=MyOrganizationalUnit, CN=VikingVPN CA/name=EasyRSA/emailAddress=me@myhost.mydomain
        Validity
            Not Before: May  8 20:05:28 2015 GMT
            Not After : May  5 20:05:28 2025 GMT
        Subject: CN=Client1665Certf8ce65
        Subject Public Key Info:
            Public Key Algorithm: rsaEncryption
                Public-Key: (4096 bit)
                Modulus:
                    00:c0:0d:7a:b3:a2:27:f7:c8:d0:79:05:19:95:74:
                    b3:38:cb:4e:74:15:4a:b1:cb:74:63:b8:6a:83:a9:
                    23:dd:b8:6d:b1:a6:20:1d:5b:72:28:7b:6e:a1:8c:
                    29:7a:5d:84:cd:c3:3e:a9:64:4b:88:3e:26:45:d0:
                    b0:01:db:66:4c:43:cb:2c:b6:7f:e8:b6:06:8d:f3:
                    f6:92:38:ea:3d:97:5a:48:df:50:1b:16:a0:95:05:
                    3b:09:f0:26:91:18:7d:4d:5d:da:f7:0f:58:2d:39:
                    6a:f8:44:85:23:5b:86:9c:32:20:83:55:90:b1:6e:
                    28:63:04:23:45:24:35:7f:04:29:66:7f:7c:93:72:
                    d5:71:0c:a1:61:f9:79:bf:51:50:08:99:4a:0b:c6:
                    41:50:df:47:f0:25:6b:48:d8:d8:5a:f0:4c:c1:6c:
                    1c:1b:0c:74:32:14:5d:c9:62:c5:5e:45:91:25:c5:
                    2c:be:4a:8e:d0:e5:97:d9:3f:d7:11:42:df:6f:28:
                    92:f4:e1:47:84:3f:5b:65:bf:18:20:68:45:3f:66:
                    db:bd:17:70:01:2b:6c:e2:d3:79:a6:e0:17:74:c1:
                    40:2b:4d:0e:58:be:94:63:2c:92:1a:68:5c:3f:71:
                    9e:75:96:e9:9b:85:5b:9a:2b:05:6d:aa:d5:11:5e:
                    9f:26:e3:d0:c9:d9:26:3f:e4:d3:16:dc:9f:5d:0e:
                    be:4e:31:b8:41:0d:85:88:a1:c3:82:01:28:f6:a8:
                    a6:3d:8a:ff:f6:bd:78:13:11:39:64:5d:bc:69:9b:
                    02:a2:68:70:d9:94:bc:a2:b0:27:5c:eb:ee:08:16:
                    88:dd:5b:e7:ce:55:e1:9e:00:84:0e:21:25:bc:61:
                    1b:c3:00:2c:23:f1:4f:55:1a:2b:f9:6d:38:7a:79:
                    25:ba:a5:3b:4e:ae:a9:8f:e2:4b:47:7d:7a:70:a4:
                    5b:04:3f:31:8d:be:21:c0:35:24:bb:c3:f0:e9:91:
                    c5:53:ef:61:83:51:74:7c:29:23:3a:ff:a8:63:82:
                    d6:1a:9e:57:9f:fc:35:1c:33:47:ae:98:5f:b7:8c:
                    f4:d1:f6:c9:e5:9d:6f:65:f9:4d:88:4e:7a:6c:61:
                    90:b9:2d:17:22:18:da:05:14:40:be:33:c0:e6:39:
                    ba:6e:6c:28:81:4f:c4:ff:30:f8:4e:d4:a6:2f:66:
                    a8:01:d4:72:ad:66:b6:95:e9:c1:c3:29:b0:74:ae:
                    2d:a1:e9:0d:80:ca:27:0a:58:d2:0b:d8:21:eb:55:
                    e8:15:32:d6:82:6e:86:56:47:44:85:a5:da:4e:4f:
                    18:ac:1b:b5:2e:09:34:de:64:37:7d:87:d1:d1:ae:
                    64:2a:81
                Exponent: 65537 (0x10001)
        X509v3 extensions:
            X509v3 Basic Constraints: 
                CA:FALSE
            Netscape Comment: 
                Easy-RSA Generated Certificate
            X509v3 Subject Key Identifier: 
                E5:6B:52:79:2E:C9:C5:FF:CF:DC:D9:D2:81:18:21:E4:63:D2:44:CA
            X509v3 Authority Key Identifier: 
                keyid:12:CD:60:04:D2:A0:80:9E:70:ED:C6:99:B8:7B:2C:C6:52:FD:19:A1
                DirName:/C=US/ST=OH/L=Columbus/O=VikingVPN/OU=MyOrganizationalUnit/CN=VikingVPN CA/name=EasyRSA/emailAddress=me@myhost.mydomain
                serial:CF:35:85:EE:80:BF:2A:3E

            X509v3 Extended Key Usage: 
                TLS Web Client Authentication
            X509v3 Key Usage: 
                Digital Signature
    Signature Algorithm: md5WithRSAEncryption
         d1:07:cc:52:c8:69:40:de:c3:45:b3:4d:b6:dc:27:ed:03:a8:
         ba:71:ab:ba:ba:26:07:01:fd:f2:b8:15:17:85:db:4c:2e:a9:
         19:73:1c:ea:46:26:95:2e:cb:f0:56:3d:1f:99:ef:65:13:1a:
         e9:55:53:41:d0:bd:de:a6:b9:e8:b8:f6:30:82:04:b2:fe:9b:
         ae:f1:08:ae:53:73:d9:fe:b2:2b:75:ed:2d:2d:59:3c:47:43:
         c0:97:54:7b:33:c8:ba:26:bf:f7:7e:50:d5:26:eb:f8:cf:79:
         a8:cb:a1:83:10:3b:df:ff:25:fa:01:ae:91:91:5f:13:ca:97:
         25:da:33:5b:80:72:9e:39:3a:4c:78:48:f7:60:b2:10:51:52:
         e2:7c:9e:8c:f9:78:ef:75:e6:62:ea:ac:59:ce:ad:e3:f8:2f:
         53:90:02:c6:59:19:0c:a8:06:38:8a:d7:2a:c2:e9:37:81:e9:
         b0:50:be:37:2d:4b:5c:cc:0d:35:27:4b:b7:9e:16:16:59:4f:
         50:24:cb:5b:01:cc:68:69:2d:45:aa:92:5f:99:ed:0d:41:78:
         d6:d4:08:fd:cf:1f:0d:86:a7:a6:11:0f:49:01:86:67:c8:8f:
         1e:0f:c6:44:4e:8c:33:f9:e2:0b:1e:b7:7c:cb:99:c3:c2:5f:
         b2:4c:4b:cd:96:be:e4:d8:e7:3a:03:af:91:08:38:49:16:94:
         f0:6d:13:de:e8:b8:8f:5a:2b:ed:74:6d:13:f1:9f:91:f6:44:
         c0:43:20:98:d3:2b:3c:61:1d:b9:e6:67:fd:7f:49:70:d7:07:
         83:91:81:40:c2:66:c3:90:c9:9b:76:47:7f:47:93:32:f3:da:
         5b:dd:4d:ff:b8:8d:65:92:8c:6f:77:5e:d6:bf:06:55:a2:32:
         81:20:25:8d:58:71:8b:39:bc:dd:59:b0:ef:ae:30:6b:64:37:
         60:f5:50:bb:07:7f:aa:92:f7:35:8e:1f:25:a6:e2:32:29:ee:
         13:e8:51:1a:9c:b3:ef:df:a5:62:31:81:e1:18:a8:e4:a7:71:
         d5:3e:9e:0f:ed:20:9b:9d:af:cd:28:89:b3:7d:6a:8a:f4:7d:
         f1:05:06:fb:d2:fa:01:34:59:af:51:6e:aa:24:f3:80:a8:e0:
         3a:c3:08:15:e8:15:4e:f5:0b:42:99:f3:60:ca:fb:84:40:c6:
         85:74:0b:86:48:76:00:8e:b8:39:ff:1b:c8:2d:45:2e:77:aa:
         f3:a2:c5:f5:65:fc:7c:f8:e7:21:32:d7:34:1c:60:08:22:6d:
         7c:3e:67:c2:40:2b:5c:28:d0:83:9d:30:d9:87:cd:7b:cd:9d:
         93:3d:85:4c:72:9a:0c:41
-----BEGIN CERTIFICATE-----
MIIGrTCCBJWgAwIBAgICFEMwDQYJKoZIhvcNAQEEBQAwgawxCzAJBgNVBAYTAlVT
MQswCQYDVQQIEwJPSDERMA8GA1UEBxMIQ29sdW1idXMxEjAQBgNVBAoTCVZpa2lu
Z1ZQTjEdMBsGA1UECxMUTXlPcmdhbml6YXRpb25hbFVuaXQxFTATBgNVBAMTDFZp
a2luZ1ZQTiBDQTEQMA4GA1UEKRMHRWFzeVJTQTEhMB8GCSqGSIb3DQEJARYSbWVA
bXlob3N0Lm15ZG9tYWluMB4XDTE1MDUwODIwMDUyOFoXDTI1MDUwNTIwMDUyOFow
HzEdMBsGA1UEAxMUQ2xpZW50MTY2NUNlcnRmOGNlNjUwggIiMA0GCSqGSIb3DQEB
AQUAA4ICDwAwggIKAoICAQDADXqzoif3yNB5BRmVdLM4y050FUqxy3RjuGqDqSPd
uG2xpiAdW3Ioe26hjCl6XYTNwz6pZEuIPiZF0LAB22ZMQ8sstn/otgaN8/aSOOo9
l1pI31AbFqCVBTsJ8CaRGH1NXdr3D1gtOWr4RIUjW4acMiCDVZCxbihjBCNFJDV/
BClmf3yTctVxDKFh+Xm/UVAImUoLxkFQ30fwJWtI2Nha8EzBbBwbDHQyFF3JYsVe
RZElxSy+So7Q5ZfZP9cRQt9vKJL04UeEP1tlvxggaEU/Ztu9F3ABK2zi03mm4Bd0
wUArTQ5YvpRjLJIaaFw/cZ51lumbhVuaKwVtqtURXp8m49DJ2SY/5NMW3J9dDr5O
MbhBDYWIocOCASj2qKY9iv/2vXgTETlkXbxpmwKiaHDZlLyisCdc6+4IFojdW+fO
VeGeAIQOISW8YRvDACwj8U9VGiv5bTh6eSW6pTtOrqmP4ktHfXpwpFsEPzGNviHA
NSS7w/DpkcVT72GDUXR8KSM6/6hjgtYanlef/DUcM0eumF+3jPTR9snlnW9l+U2I
TnpsYZC5LRciGNoFFEC+M8DmObpubCiBT8T/MPhO1KYvZqgB1HKtZraV6cHDKbB0
ri2h6Q2AyicKWNIL2CHrVegVMtaCboZWR0SFpdpOTxisG7UuCTTeZDd9h9HRrmQq
gQIDAQABo4IBYzCCAV8wCQYDVR0TBAIwADAtBglghkgBhvhCAQ0EIBYeRWFzeS1S
U0EgR2VuZXJhdGVkIENlcnRpZmljYXRlMB0GA1UdDgQWBBTla1J5LsnF/8/c2dKB
GCHkY9JEyjCB4QYDVR0jBIHZMIHWgBQSzWAE0qCAnnDtxpm4eyzGUv0ZoaGBsqSB
rzCBrDELMAkGA1UEBhMCVVMxCzAJBgNVBAgTAk9IMREwDwYDVQQHEwhDb2x1bWJ1
czESMBAGA1UEChMJVmlraW5nVlBOMR0wGwYDVQQLExRNeU9yZ2FuaXphdGlvbmFs
VW5pdDEVMBMGA1UEAxMMVmlraW5nVlBOIENBMRAwDgYDVQQpEwdFYXN5UlNBMSEw
HwYJKoZIhvcNAQkBFhJtZUBteWhvc3QubXlkb21haW6CCQDPNYXugL8qPjATBgNV
HSUEDDAKBggrBgEFBQcDAjALBgNVHQ8EBAMCB4AwDQYJKoZIhvcNAQEEBQADggIB
ANEHzFLIaUDew0WzTbbcJ+0DqLpxq7q6JgcB/fK4FReF20wuqRlzHOpGJpUuy/BW
PR+Z72UTGulVU0HQvd6muei49jCCBLL+m67xCK5Tc9n+sit17S0tWTxHQ8CXVHsz
yLomv/d+UNUm6/jPeajLoYMQO9//JfoBrpGRXxPKlyXaM1uAcp45Okx4SPdgshBR
UuJ8noz5eO915mLqrFnOreP4L1OQAsZZGQyoBjiK1yrC6TeB6bBQvjctS1zMDTUn
S7eeFhZZT1Aky1sBzGhpLUWqkl+Z7Q1BeNbUCP3PHw2Gp6YRD0kBhmfIjx4PxkRO
jDP54gset3zLmcPCX7JMS82WvuTY5zoDr5EIOEkWlPBtE97ouI9aK+10bRPxn5H2
RMBDIJjTKzxhHbnmZ/1/SXDXB4ORgUDCZsOQyZt2R39HkzLz2lvdTf+4jWWSjG93
Xta/BlWiMoEgJY1YcYs5vN1ZsO+uMGtkN2D1ULsHf6qS9zWOHyWm4jIp7hPoURqc
s+/fpWIxgeEYqOSncdU+ng/tIJudr80oibN9aor0ffEFBvvS+gE0Wa9Rbqok84Co
4DrDCBXoFU71C0KZ82DK+4RAxoV0C4ZIdgCOuDn/G8gtRS53qvOixfVl/Hz45yEy
1zQcYAgibXw+Z8JAK1wo0IOdMNmHzXvNnZM9hUxymgxB
-----END CERTIFICATE-----
