Certificate:
    Data:
        Version: 3 (0x2)
        Serial Number: 7569 (0x1d91)
    Signature Algorithm: md5WithRSAEncryption
        Issuer: C=US, ST=OH, L=Columbus, O=VikingVPN, OU=MyOrganizationalUnit, CN=VikingVPN CA/name=EasyRSA/emailAddress=me@myhost.mydomain
        Validity
            Not Before: Mar 20 13:50:39 2016 GMT
            Not After : Mar 18 13:50:39 2026 GMT
        Subject: CN=Client2235Cert7e3416
        Subject Public Key Info:
            Public Key Algorithm: rsaEncryption
                Public-Key: (4096 bit)
                Modulus:
                    00:d6:f6:4e:99:50:87:5f:de:5b:86:d4:3d:12:db:
                    b9:b1:b0:cc:ae:42:05:0e:ca:33:bc:a3:78:c2:3b:
                    b7:e5:6b:23:56:10:a7:5f:5a:d4:43:09:0f:f6:bb:
                    c9:f9:1b:a8:e7:a5:df:6a:6a:4f:60:05:77:a9:35:
                    11:66:70:31:4e:63:68:b4:4a:96:80:a2:47:bd:37:
                    68:49:c3:5a:f7:a2:a8:0c:dc:26:40:eb:ab:02:77:
                    c2:3d:4a:73:ef:1e:a4:e1:bc:ee:0f:c9:b3:09:6e:
                    90:d6:22:bd:99:dc:6b:cf:8c:1a:4e:82:9e:b5:fb:
                    c4:f6:a5:c4:04:63:d6:c3:12:5b:6b:2c:c0:20:2f:
                    21:5a:29:dc:3d:91:3c:80:91:13:47:1f:0c:ce:05:
                    88:9e:d8:14:ca:5d:a1:aa:b9:72:53:ca:3f:fc:77:
                    7b:ef:cb:dc:1c:e6:fe:be:bc:13:14:2f:d4:87:d5:
                    fd:6e:80:ce:e9:1d:5b:01:84:fb:67:82:a6:3b:c1:
                    9b:25:dd:27:ea:59:d2:f1:7b:1f:39:41:6f:8c:dc:
                    b3:86:d5:ea:30:df:61:67:35:53:56:71:84:d5:df:
                    73:65:06:f0:4e:04:9b:38:43:f1:ec:31:9f:af:56:
                    9e:45:1c:bb:9a:69:41:55:77:f1:c2:98:9e:ff:ef:
                    26:3a:ed:c6:4a:9c:f9:91:e1:80:e1:a3:8e:d7:e7:
                    d6:29:d9:12:29:dd:09:e7:3f:8a:38:fb:03:bc:af:
                    71:d0:16:63:c6:69:fd:1a:1f:52:a7:08:f2:d2:a8:
                    24:6a:06:65:1d:7b:44:af:05:79:de:ed:24:c4:6b:
                    f7:ab:d2:7d:52:ed:3d:ff:7b:4d:00:f5:88:c0:07:
                    bb:aa:db:89:b0:7d:e0:7f:32:cf:37:3e:db:6d:9c:
                    4d:15:06:38:91:ff:11:94:cb:3b:e5:90:12:ce:8b:
                    56:44:fb:62:6a:02:31:8a:1b:46:cf:9b:41:2b:4c:
                    ba:d8:70:3b:40:e3:0d:3f:1e:e5:80:dd:8d:9d:71:
                    83:00:93:be:f1:f7:d2:44:df:91:da:0a:a0:ad:c7:
                    1e:a7:c6:53:e2:0e:38:8d:88:78:4c:68:6e:5d:f2:
                    f1:37:3a:97:72:a6:b2:0a:5e:95:52:b8:44:17:7f:
                    4c:5b:89:c5:64:f0:03:8a:dd:34:71:ee:92:0f:ff:
                    1c:de:5c:5c:60:a4:65:02:13:36:59:dc:f6:22:d1:
                    0c:20:54:78:1d:e1:17:b7:ca:7a:5c:f1:8b:4b:d3:
                    ab:13:f3:6e:89:b7:cc:18:5e:14:24:a7:2c:9a:a8:
                    6b:51:6a:e1:22:b0:e2:d7:3a:79:c2:09:88:63:13:
                    81:3c:5f
                Exponent: 65537 (0x10001)
        X509v3 extensions:
            X509v3 Basic Constraints: 
                CA:FALSE
            Netscape Comment: 
                Easy-RSA Generated Certificate
            X509v3 Subject Key Identifier: 
                13:0C:4B:6D:70:D9:65:D0:C4:0D:4D:0F:82:51:B9:38:09:46:5B:B5
            X509v3 Authority Key Identifier: 
                keyid:12:CD:60:04:D2:A0:80:9E:70:ED:C6:99:B8:7B:2C:C6:52:FD:19:A1
                DirName:/C=US/ST=OH/L=Columbus/O=VikingVPN/OU=MyOrganizationalUnit/CN=VikingVPN CA/name=EasyRSA/emailAddress=me@myhost.mydomain
                serial:CF:35:85:EE:80:BF:2A:3E

            X509v3 Extended Key Usage: 
                TLS Web Client Authentication
            X509v3 Key Usage: 
                Digital Signature
    Signature Algorithm: md5WithRSAEncryption
         85:e6:b6:1d:fa:c4:f0:b2:18:27:a7:03:63:d1:1b:a5:3e:65:
         48:26:71:36:92:df:fa:e0:95:eb:cf:35:b6:24:a4:9d:89:f5:
         be:6d:57:c0:0f:ca:5e:1e:48:79:9f:56:4d:0f:75:6f:e1:51:
         29:e5:77:fb:0a:9b:48:0b:0c:b7:4c:cb:1a:8e:c2:2e:31:ef:
         8a:7e:41:1c:fb:ea:a2:fb:a0:d5:c3:be:7f:57:a2:55:1d:3a:
         8d:d3:44:ee:d9:61:ab:44:95:30:cc:53:21:51:8d:72:b3:9a:
         6f:1e:43:80:02:60:7c:f3:2d:e5:5d:16:2c:36:1d:ff:c7:f8:
         26:21:6d:bf:7c:fb:10:bf:c1:0a:2c:ae:b0:fc:46:c0:36:06:
         76:4b:2c:ca:68:ba:81:85:23:73:59:ca:1a:54:ea:8d:0b:87:
         e9:bc:6c:46:30:b5:46:3e:09:90:4b:27:e0:b3:65:08:ab:5a:
         ce:dc:67:78:8f:35:9f:6d:0d:30:b3:0d:96:dd:ca:93:8b:a2:
         e8:da:ce:6e:b6:df:26:2e:00:97:ce:63:ed:3a:99:de:5f:a8:
         c8:1e:df:dc:87:69:9f:97:0e:a8:0f:95:32:28:33:56:f5:a1:
         08:6a:bc:06:54:32:16:d6:d8:4e:fc:dd:c1:44:62:c7:f5:59:
         45:f6:82:08:5f:10:96:ef:23:90:80:9d:3f:e4:ae:d1:f5:fb:
         bf:9c:7b:e0:f3:5b:32:0b:61:a7:aa:90:f9:d8:72:47:c8:c1:
         0d:72:db:15:32:10:24:37:9b:5a:60:93:f9:74:33:f4:1e:62:
         11:d1:e1:81:7f:d6:ea:3e:ec:d0:e5:e0:9d:89:39:d8:b6:4b:
         29:39:15:5e:74:9b:b5:6c:60:cc:bc:7a:99:11:2c:fd:3c:00:
         83:2f:da:f4:10:a9:4e:a0:e0:88:72:d1:75:9d:02:24:86:15:
         a3:ed:02:96:6b:5b:15:77:a6:98:0e:ec:aa:12:a1:ab:13:5a:
         60:8b:40:de:28:9e:fe:a8:16:36:1c:10:42:ec:a0:60:5e:ea:
         c6:4c:4e:1b:99:09:2a:d4:d6:a0:a0:44:9c:17:86:19:dd:51:
         c3:61:ba:82:86:99:db:33:8e:7d:98:87:f7:ba:db:c7:bf:97:
         d3:61:e9:59:d9:9a:20:a6:c4:c9:a0:70:e5:7c:2c:86:4c:81:
         6f:de:38:3e:18:13:3a:38:2c:da:11:33:6b:19:73:fb:b3:a8:
         34:7b:f4:4b:29:9e:81:ce:32:b2:50:bd:88:4c:73:6e:93:b6:
         19:43:c8:23:a8:de:f6:b4:48:d0:5d:99:4c:2a:9a:4a:95:1a:
         23:28:08:f2:68:a9:6f:ae
-----BEGIN CERTIFICATE-----
MIIGrTCCBJWgAwIBAgICHZEwDQYJKoZIhvcNAQEEBQAwgawxCzAJBgNVBAYTAlVT
MQswCQYDVQQIEwJPSDERMA8GA1UEBxMIQ29sdW1idXMxEjAQBgNVBAoTCVZpa2lu
Z1ZQTjEdMBsGA1UECxMUTXlPcmdhbml6YXRpb25hbFVuaXQxFTATBgNVBAMTDFZp
a2luZ1ZQTiBDQTEQMA4GA1UEKRMHRWFzeVJTQTEhMB8GCSqGSIb3DQEJARYSbWVA
bXlob3N0Lm15ZG9tYWluMB4XDTE2MDMyMDEzNTAzOVoXDTI2MDMxODEzNTAzOVow
HzEdMBsGA1UEAxMUQ2xpZW50MjIzNUNlcnQ3ZTM0MTYwggIiMA0GCSqGSIb3DQEB
AQUAA4ICDwAwggIKAoICAQDW9k6ZUIdf3luG1D0S27mxsMyuQgUOyjO8o3jCO7fl
ayNWEKdfWtRDCQ/2u8n5G6jnpd9qak9gBXepNRFmcDFOY2i0SpaAoke9N2hJw1r3
oqgM3CZA66sCd8I9SnPvHqThvO4PybMJbpDWIr2Z3GvPjBpOgp61+8T2pcQEY9bD
EltrLMAgLyFaKdw9kTyAkRNHHwzOBYie2BTKXaGquXJTyj/8d3vvy9wc5v6+vBMU
L9SH1f1ugM7pHVsBhPtngqY7wZsl3SfqWdLxex85QW+M3LOG1eow32FnNVNWcYTV
33NlBvBOBJs4Q/HsMZ+vVp5FHLuaaUFVd/HCmJ7/7yY67cZKnPmR4YDho47X59Yp
2RIp3QnnP4o4+wO8r3HQFmPGaf0aH1KnCPLSqCRqBmUde0SvBXne7STEa/er0n1S
7T3/e00A9YjAB7uq24mwfeB/Ms83PtttnE0VBjiR/xGUyzvlkBLOi1ZE+2JqAjGK
G0bPm0ErTLrYcDtA4w0/HuWA3Y2dcYMAk77x99JE35HaCqCtxx6nxlPiDjiNiHhM
aG5d8vE3OpdyprIKXpVSuEQXf0xbicVk8AOK3TRx7pIP/xzeXFxgpGUCEzZZ3PYi
0QwgVHgd4Re3ynpc8YtL06sT826Jt8wYXhQkpyyaqGtRauEisOLXOnnCCYhjE4E8
XwIDAQABo4IBYzCCAV8wCQYDVR0TBAIwADAtBglghkgBhvhCAQ0EIBYeRWFzeS1S
U0EgR2VuZXJhdGVkIENlcnRpZmljYXRlMB0GA1UdDgQWBBQTDEttcNll0MQNTQ+C
Ubk4CUZbtTCB4QYDVR0jBIHZMIHWgBQSzWAE0qCAnnDtxpm4eyzGUv0ZoaGBsqSB
rzCBrDELMAkGA1UEBhMCVVMxCzAJBgNVBAgTAk9IMREwDwYDVQQHEwhDb2x1bWJ1
czESMBAGA1UEChMJVmlraW5nVlBOMR0wGwYDVQQLExRNeU9yZ2FuaXphdGlvbmFs
VW5pdDEVMBMGA1UEAxMMVmlraW5nVlBOIENBMRAwDgYDVQQpEwdFYXN5UlNBMSEw
HwYJKoZIhvcNAQkBFhJtZUBteWhvc3QubXlkb21haW6CCQDPNYXugL8qPjATBgNV
HSUEDDAKBggrBgEFBQcDAjALBgNVHQ8EBAMCB4AwDQYJKoZIhvcNAQEEBQADggIB
AIXmth36xPCyGCenA2PRG6U+ZUgmcTaS3/rglevPNbYkpJ2J9b5tV8APyl4eSHmf
Vk0PdW/hUSnld/sKm0gLDLdMyxqOwi4x74p+QRz76qL7oNXDvn9XolUdOo3TRO7Z
YatElTDMUyFRjXKzmm8eQ4ACYHzzLeVdFiw2Hf/H+CYhbb98+xC/wQosrrD8RsA2
BnZLLMpouoGFI3NZyhpU6o0Lh+m8bEYwtUY+CZBLJ+CzZQirWs7cZ3iPNZ9tDTCz
DZbdypOLoujazm623yYuAJfOY+06md5fqMge39yHaZ+XDqgPlTIoM1b1oQhqvAZU
MhbW2E783cFEYsf1WUX2gghfEJbvI5CAnT/krtH1+7+ce+DzWzILYaeqkPnYckfI
wQ1y2xUyECQ3m1pgk/l0M/QeYhHR4YF/1uo+7NDl4J2JOdi2Syk5FV50m7VsYMy8
epkRLP08AIMv2vQQqU6g4Ihy0XWdAiSGFaPtApZrWxV3ppgO7KoSoasTWmCLQN4o
nv6oFjYcEELsoGBe6sZMThuZCSrU1qCgRJwXhhndUcNhuoKGmdszjn2Yh/e628e/
l9Nh6VnZmiCmxMmgcOV8LIZMgW/eOD4YEzo4LNoRM2sZc/uzqDR79EspnoHOMrJQ
vYhMc26TthlDyCOo3va0SNBdmUwqmkqVGiMoCPJoqW+u
-----END CERTIFICATE-----
