Certificate:
    Data:
        Version: 3 (0x2)
        Serial Number: 8252 (0x203c)
    Signature Algorithm: md5WithRSAEncryption
        Issuer: C=US, ST=OH, L=Columbus, O=VikingVPN, OU=MyOrganizationalUnit, CN=VikingVPN CA/name=EasyRSA/emailAddress=me@myhost.mydomain
        Validity
            Not Before: Jun 12 02:39:07 2016 GMT
            Not After : Jun 10 02:39:07 2026 GMT
        Subject: CN=Client2308Cert922e9e
        Subject Public Key Info:
            Public Key Algorithm: rsaEncryption
                Public-Key: (4096 bit)
                Modulus:
                    00:c2:ae:67:61:25:98:84:50:6d:74:1a:09:f9:ca:
                    78:d4:38:eb:13:dc:11:fc:cd:97:4c:2e:a5:ea:30:
                    fe:76:70:a0:68:5a:b6:63:f6:a4:57:fc:fd:f5:9d:
                    09:50:2a:03:7a:b1:aa:fe:68:59:6f:fb:94:9d:7f:
                    4b:eb:1a:34:80:36:ef:98:e8:27:b9:34:15:2d:15:
                    5d:51:d5:b3:88:f0:71:9f:dc:fd:61:31:89:29:0d:
                    54:e7:09:ec:fb:ae:08:f8:20:d0:70:9a:e7:7a:aa:
                    21:de:74:46:42:17:88:1e:74:ae:da:7a:e9:ed:98:
                    d0:a7:ce:f7:f6:33:9c:50:52:d2:f7:c1:58:8c:ca:
                    7b:0f:92:53:47:11:c7:6c:a4:9b:e4:68:3b:ee:04:
                    71:98:8a:66:47:d3:7d:d8:fc:70:11:6e:31:f3:d3:
                    01:96:3a:f1:c1:42:74:d0:8f:e4:2f:ee:ab:9a:17:
                    f9:9b:f5:1e:bb:b9:33:a3:45:49:de:7c:ac:e3:60:
                    ce:fd:df:4f:d1:05:12:d0:c5:9c:e1:fc:79:c4:95:
                    74:93:fd:25:58:65:d3:4a:fe:1e:6a:cd:da:68:25:
                    8b:15:d2:4c:8e:24:e7:52:a3:45:48:cf:f7:f5:71:
                    fe:53:6d:6b:11:4c:c1:ad:97:cd:24:85:54:0b:ed:
                    74:90:19:33:ec:9a:66:85:12:1c:26:3a:6e:2a:fe:
                    ef:18:00:31:95:88:d1:b9:df:26:b5:f8:cd:5a:49:
                    12:cb:ca:b9:19:e9:13:00:4a:82:34:07:33:26:ca:
                    02:67:07:d8:10:aa:47:f5:d4:80:34:d7:94:a2:b5:
                    a6:ba:94:ed:59:16:61:03:91:5a:8c:89:c9:7f:43:
                    db:d5:da:c9:8c:ca:1e:f3:06:e7:3a:c8:9a:63:4d:
                    1d:d3:94:25:4d:f6:0c:37:48:e6:28:1b:b7:d6:b1:
                    ad:8c:5e:ed:a7:18:4e:75:61:78:1a:fc:e1:cb:5c:
                    08:92:6d:82:21:d7:02:41:f5:3d:2e:55:8b:5b:30:
                    56:00:5d:3a:b5:5e:95:09:24:80:5b:fb:4a:73:d4:
                    cd:46:49:81:f6:e9:f6:d6:72:f4:ce:08:1e:72:65:
                    78:a8:2d:66:58:2e:31:23:73:07:99:6d:6d:f1:b4:
                    1d:67:12:2b:ca:4c:78:da:d8:4f:be:de:59:3f:e2:
                    16:af:f5:3c:8e:3b:a1:0d:89:8b:c1:f9:77:a8:05:
                    1c:d4:45:93:3e:f6:fc:8c:91:c6:34:03:02:c7:13:
                    58:47:7d:ce:d5:ca:1e:02:f2:b1:55:83:a8:bd:b7:
                    aa:8c:78:94:b9:6c:49:ca:80:76:aa:3b:9e:ab:2f:
                    1d:4c:d5
                Exponent: 65537 (0x10001)
        X509v3 extensions:
            X509v3 Basic Constraints: 
                CA:FALSE
            Netscape Comment: 
                Easy-RSA Generated Certificate
            X509v3 Subject Key Identifier: 
                53:15:CE:34:C2:73:F7:59:84:39:6C:C7:25:85:48:5D:F3:47:F4:97
            X509v3 Authority Key Identifier: 
                keyid:12:CD:60:04:D2:A0:80:9E:70:ED:C6:99:B8:7B:2C:C6:52:FD:19:A1
                DirName:/C=US/ST=OH/L=Columbus/O=VikingVPN/OU=MyOrganizationalUnit/CN=VikingVPN CA/name=EasyRSA/emailAddress=me@myhost.mydomain
                serial:CF:35:85:EE:80:BF:2A:3E

            X509v3 Extended Key Usage: 
                TLS Web Client Authentication
            X509v3 Key Usage: 
                Digital Signature
    Signature Algorithm: md5WithRSAEncryption
         c3:ea:2c:be:18:70:53:2c:09:23:a8:ab:d5:42:e5:fd:9d:c0:
         f7:5c:db:8f:3b:e1:01:2f:28:39:02:55:c6:64:37:d4:f9:20:
         5c:38:4e:a6:26:b1:de:73:95:0a:3e:f3:6c:91:4c:8a:9c:bf:
         5a:a5:f7:ef:79:f8:cb:e9:9b:19:e2:c6:e9:b4:d0:b0:36:0d:
         2c:c9:62:a3:6d:19:1d:3d:ae:0e:54:2b:65:2f:8f:21:34:28:
         cd:b1:0a:cc:26:d6:81:e7:e8:a1:c5:e5:61:15:19:e7:2a:d0:
         63:c5:12:ba:ad:9c:ec:7a:d7:63:26:45:cf:a8:00:dd:5c:3d:
         2f:d8:5f:61:b2:61:64:4f:77:e5:6f:86:74:1f:fc:ff:a6:91:
         44:1c:fa:f7:d6:81:bb:22:13:00:d3:30:f0:d7:d5:ed:49:8a:
         e2:32:59:03:af:e1:6b:f6:05:5b:21:5c:0f:df:73:e4:0e:a8:
         69:50:52:42:ad:aa:21:ed:de:49:86:c9:ad:1e:e5:27:ad:12:
         b8:ad:f7:33:8a:3c:b2:c0:d9:8d:3d:7f:7a:a1:e9:e9:ba:cb:
         d0:99:4b:3f:10:8f:45:d0:47:3d:57:0b:fc:87:e1:74:80:cd:
         68:7f:bd:d5:61:cc:27:74:8d:1d:0b:01:51:4f:7b:dd:bf:7e:
         df:11:98:1e:3f:76:83:80:67:0c:1b:6b:71:07:8a:24:c8:f4:
         9b:50:e0:1a:2e:42:71:77:6b:42:24:3b:46:8a:0d:7d:56:e7:
         51:c3:e0:c3:70:21:e0:69:0b:05:7c:88:42:ed:d3:6f:b5:3a:
         28:8e:5b:c8:83:f2:86:e6:70:4f:b6:91:38:29:8c:47:aa:df:
         9b:79:26:2c:58:42:bf:4c:3c:05:a4:9d:29:e7:8b:27:d1:cc:
         cb:2c:41:8a:51:21:20:ac:fa:6d:91:2b:3c:f2:21:3d:89:94:
         55:12:cf:80:f6:79:e8:0c:a5:9d:b9:1e:80:23:39:fd:24:80:
         3c:96:27:77:1e:de:2a:4d:b5:4a:1a:76:c2:f7:23:bb:2f:9c:
         99:38:6b:0e:f2:cf:90:3c:8e:37:38:99:6b:7b:19:05:97:dc:
         44:2d:91:b2:90:5e:61:19:52:aa:5e:bc:15:af:e5:68:94:9b:
         bc:9d:ca:34:d4:5c:e5:bf:08:a1:bd:f6:f3:70:cf:aa:bf:d7:
         cd:22:2b:88:c1:9e:64:87:12:15:7d:3f:a9:ea:aa:32:6c:e4:
         9d:c0:53:69:96:e7:73:ed:3c:0f:5b:3d:80:c2:95:ae:74:09:
         cb:3a:5c:7a:8f:bc:15:95:bd:c6:24:36:10:d9:44:95:be:67:
         74:04:7f:92:32:f3:bb:0b
-----BEGIN CERTIFICATE-----
MIIGrTCCBJWgAwIBAgICIDwwDQYJKoZIhvcNAQEEBQAwgawxCzAJBgNVBAYTAlVT
MQswCQYDVQQIEwJPSDERMA8GA1UEBxMIQ29sdW1idXMxEjAQBgNVBAoTCVZpa2lu
Z1ZQTjEdMBsGA1UECxMUTXlPcmdhbml6YXRpb25hbFVuaXQxFTATBgNVBAMTDFZp
a2luZ1ZQTiBDQTEQMA4GA1UEKRMHRWFzeVJTQTEhMB8GCSqGSIb3DQEJARYSbWVA
bXlob3N0Lm15ZG9tYWluMB4XDTE2MDYxMjAyMzkwN1oXDTI2MDYxMDAyMzkwN1ow
HzEdMBsGA1UEAxMUQ2xpZW50MjMwOENlcnQ5MjJlOWUwggIiMA0GCSqGSIb3DQEB
AQUAA4ICDwAwggIKAoICAQDCrmdhJZiEUG10Ggn5ynjUOOsT3BH8zZdMLqXqMP52
cKBoWrZj9qRX/P31nQlQKgN6sar+aFlv+5Sdf0vrGjSANu+Y6Ce5NBUtFV1R1bOI
8HGf3P1hMYkpDVTnCez7rgj4INBwmud6qiHedEZCF4gedK7aeuntmNCnzvf2M5xQ
UtL3wViMynsPklNHEcdspJvkaDvuBHGYimZH033Y/HARbjHz0wGWOvHBQnTQj+Qv
7quaF/mb9R67uTOjRUnefKzjYM7930/RBRLQxZzh/HnElXST/SVYZdNK/h5qzdpo
JYsV0kyOJOdSo0VIz/f1cf5TbWsRTMGtl80khVQL7XSQGTPsmmaFEhwmOm4q/u8Y
ADGViNG53ya1+M1aSRLLyrkZ6RMASoI0BzMmygJnB9gQqkf11IA015Sitaa6lO1Z
FmEDkVqMicl/Q9vV2smMyh7zBuc6yJpjTR3TlCVN9gw3SOYoG7fWsa2MXu2nGE51
YXga/OHLXAiSbYIh1wJB9T0uVYtbMFYAXTq1XpUJJIBb+0pz1M1GSYH26fbWcvTO
CB5yZXioLWZYLjEjcweZbW3xtB1nEivKTHja2E++3lk/4hav9TyOO6ENiYvB+Xeo
BRzURZM+9vyMkcY0AwLHE1hHfc7Vyh4C8rFVg6i9t6qMeJS5bEnKgHaqO56rLx1M
1QIDAQABo4IBYzCCAV8wCQYDVR0TBAIwADAtBglghkgBhvhCAQ0EIBYeRWFzeS1S
U0EgR2VuZXJhdGVkIENlcnRpZmljYXRlMB0GA1UdDgQWBBRTFc40wnP3WYQ5bMcl
hUhd80f0lzCB4QYDVR0jBIHZMIHWgBQSzWAE0qCAnnDtxpm4eyzGUv0ZoaGBsqSB
rzCBrDELMAkGA1UEBhMCVVMxCzAJBgNVBAgTAk9IMREwDwYDVQQHEwhDb2x1bWJ1
czESMBAGA1UEChMJVmlraW5nVlBOMR0wGwYDVQQLExRNeU9yZ2FuaXphdGlvbmFs
VW5pdDEVMBMGA1UEAxMMVmlraW5nVlBOIENBMRAwDgYDVQQpEwdFYXN5UlNBMSEw
HwYJKoZIhvcNAQkBFhJtZUBteWhvc3QubXlkb21haW6CCQDPNYXugL8qPjATBgNV
HSUEDDAKBggrBgEFBQcDAjALBgNVHQ8EBAMCB4AwDQYJKoZIhvcNAQEEBQADggIB
AMPqLL4YcFMsCSOoq9VC5f2dwPdc24874QEvKDkCVcZkN9T5IFw4TqYmsd5zlQo+
82yRTIqcv1ql9+95+Mvpmxnixum00LA2DSzJYqNtGR09rg5UK2UvjyE0KM2xCswm
1oHn6KHF5WEVGecq0GPFErqtnOx612MmRc+oAN1cPS/YX2GyYWRPd+VvhnQf/P+m
kUQc+vfWgbsiEwDTMPDX1e1JiuIyWQOv4Wv2BVshXA/fc+QOqGlQUkKtqiHt3kmG
ya0e5SetErit9zOKPLLA2Y09f3qh6em6y9CZSz8Qj0XQRz1XC/yH4XSAzWh/vdVh
zCd0jR0LAVFPe92/ft8RmB4/doOAZwwba3EHiiTI9JtQ4BouQnF3a0IkO0aKDX1W
51HD4MNwIeBpCwV8iELt02+1OiiOW8iD8obmcE+2kTgpjEeq35t5JixYQr9MPAWk
nSnniyfRzMssQYpRISCs+m2RKzzyIT2JlFUSz4D2eegMpZ25HoAjOf0kgDyWJ3ce
3ipNtUoadsL3I7svnJk4aw7yz5A8jjc4mWt7GQWX3EQtkbKQXmEZUqpevBWv5WiU
m7ydyjTUXOW/CKG99vNwz6q/180iK4jBnmSHEhV9P6nqqjJs5J3AU2mW53PtPA9b
PYDCla50Ccs6XHqPvBWVvcYkNhDZRJW+Z3QEf5Iy87sL
-----END CERTIFICATE-----
