Certificate:
    Data:
        Version: 3 (0x2)
        Serial Number: 12646 (0x3166)
    Signature Algorithm: sha256WithRSAEncryption
        Issuer: C=US, ST=OH, L=Columbus, O=VikingVPN, OU=MyOrganizationalUnit, CN=VikingVPN CA/name=EasyRSA/emailAddress=me@myhost.mydomain
        Validity
            Not Before: Mar  1 20:38:45 2018 GMT
            Not After : Feb 27 20:38:45 2028 GMT
        Subject: CN=Client3224Cert05dcba
        Subject Public Key Info:
            Public Key Algorithm: rsaEncryption
                Public-Key: (4096 bit)
                Modulus:
                    00:b5:e2:e6:be:8a:6d:55:29:f0:8c:85:2b:03:50:
                    3a:38:0b:2e:a4:03:74:9f:13:6a:30:f5:82:dd:d5:
                    ee:10:dd:91:ca:d5:08:69:33:ac:70:92:df:99:73:
                    e7:3e:2f:98:a7:83:e8:cc:69:ad:ed:ba:42:ed:c2:
                    1d:51:c0:2b:14:12:0e:8b:11:32:7f:c6:cd:0b:76:
                    bd:c8:91:26:97:e9:6f:01:62:8e:27:e1:ee:cc:92:
                    ac:c7:3d:1c:80:b7:3b:e5:49:d9:a4:5e:14:25:6b:
                    90:ed:e8:79:2d:eb:fa:19:5a:01:41:62:86:f6:55:
                    8f:d1:01:44:db:e1:ed:d3:5d:6a:37:0b:49:57:31:
                    f5:b1:5f:04:5b:8a:22:f4:7c:2c:5b:36:48:10:23:
                    6f:75:72:79:49:cf:bc:93:5a:0b:11:b5:d3:b3:24:
                    a0:60:b2:b9:a5:31:07:09:6f:5f:d2:d9:f6:57:0b:
                    33:01:b7:a0:6e:69:e7:19:68:d9:26:f1:c4:36:d7:
                    09:9f:12:a9:6f:30:fc:d5:44:37:b5:06:13:db:a4:
                    01:5c:d5:57:3b:c7:e8:db:da:60:53:bd:31:b0:59:
                    79:44:1b:a5:b1:7e:37:9b:57:e8:33:c9:7f:ef:a4:
                    d9:02:a1:21:84:f2:5c:74:79:87:d0:68:20:1a:82:
                    bb:11:6e:1c:a8:7e:75:ff:b7:15:62:9d:15:b2:b7:
                    73:39:ad:85:ec:bd:84:2c:26:08:7a:1f:6c:24:58:
                    88:07:cb:48:f3:c9:c6:f4:40:19:96:89:58:c9:25:
                    38:88:bb:f8:31:65:9e:c7:a9:a6:e0:a3:00:af:49:
                    b4:40:3c:5e:73:bd:c0:bc:6c:4c:16:b9:d9:67:fe:
                    7a:ea:86:4b:8a:f3:5a:b1:a9:71:d5:da:7d:70:f6:
                    65:54:fc:b0:ed:bc:fe:6d:52:46:01:03:d3:e0:36:
                    dd:ae:0f:65:db:ae:f9:81:2d:d9:b1:66:3d:4c:27:
                    b7:9f:ae:3a:d9:49:68:46:0c:6f:fe:c5:1e:e1:07:
                    ab:a5:c0:b2:07:89:9c:72:32:73:51:ce:e0:ec:05:
                    58:08:12:d1:69:c7:cf:a3:f3:7b:ee:cf:db:ed:6c:
                    92:ab:ef:06:7a:47:cc:00:0d:3c:60:43:4f:9d:b7:
                    b0:1c:7e:fe:33:a4:b3:44:13:e0:94:81:fc:7c:a3:
                    c5:f9:13:a2:76:08:19:8f:8c:86:66:ef:78:2a:9b:
                    c6:98:e4:e1:0a:89:c3:49:9d:9d:2f:99:67:7d:c1:
                    6a:0e:86:87:79:d1:79:c0:24:7e:fb:a6:c2:13:d5:
                    3f:1e:63:d1:2e:ff:24:30:e4:96:8a:5c:7b:9f:d3:
                    be:15:69
                Exponent: 65537 (0x10001)
        X509v3 extensions:
            X509v3 Basic Constraints: 
                CA:FALSE
            Netscape Comment: 
                Easy-RSA Generated Certificate
            X509v3 Subject Key Identifier: 
                78:B8:15:8C:E2:B5:60:1B:E6:8C:8E:87:E9:9C:89:6C:56:E2:72:85
            X509v3 Authority Key Identifier: 
                keyid:12:CD:60:04:D2:A0:80:9E:70:ED:C6:99:B8:7B:2C:C6:52:FD:19:A1
                DirName:/C=US/ST=OH/L=Columbus/O=VikingVPN/OU=MyOrganizationalUnit/CN=VikingVPN CA/name=EasyRSA/emailAddress=me@myhost.mydomain
                serial:CF:35:85:EE:80:BF:2A:3E

            X509v3 Extended Key Usage: 
                TLS Web Client Authentication
            X509v3 Key Usage: 
                Digital Signature
    Signature Algorithm: sha256WithRSAEncryption
         0f:55:99:f1:02:c9:c0:db:eb:d8:8e:11:7e:40:e1:ce:4a:2d:
         bf:e7:2a:3b:a7:c8:d8:39:eb:98:a3:1f:fb:d1:fe:51:3e:18:
         0a:63:65:52:27:10:f0:05:c1:e4:39:27:50:2c:1e:5a:ab:16:
         28:71:ee:2d:ba:c4:eb:b6:08:88:37:02:25:5a:09:d3:8c:4f:
         56:55:37:de:b6:02:86:b5:b7:10:8e:51:8a:d1:d3:da:7e:fb:
         5c:c8:83:49:4b:4a:42:31:e8:8b:30:bc:6c:3a:c7:f7:29:b8:
         e6:55:be:ae:ed:70:ad:98:fb:c8:0c:f1:79:36:ea:1a:56:26:
         0e:3b:dd:a5:d3:36:14:d8:9b:74:4d:7e:50:f0:3f:1b:25:03:
         12:6b:bf:87:1f:38:e8:66:0f:77:71:9b:75:a1:ce:9f:38:bc:
         45:d3:c3:20:72:28:7f:7f:f9:bf:d3:38:a9:a8:18:85:dc:04:
         37:57:aa:67:8c:3f:48:04:8a:07:24:15:80:01:2b:68:ed:74:
         6b:4f:c1:e6:0c:09:ae:56:03:40:50:c0:9d:11:1f:62:97:ca:
         f0:cb:26:cd:b8:2a:a8:18:e3:75:3f:e2:23:94:9b:f5:6b:b3:
         b6:d8:d1:0e:eb:d7:91:7d:f3:14:dd:b0:a3:39:27:9e:d6:84:
         52:8a:4b:8b:b7:00:7a:5c:22:c0:94:bf:9b:f5:d3:0f:cd:3c:
         76:d0:27:a8:02:a7:ea:c1:9b:a3:1f:9a:48:b2:0e:17:04:cd:
         78:00:a1:97:10:f8:81:d6:c8:dc:92:00:20:bd:52:95:eb:5f:
         58:f3:22:9c:2f:92:e5:4c:8d:3a:8b:e5:88:91:fc:2d:a4:cd:
         04:17:76:eb:d0:14:7c:5b:dc:7d:e8:31:31:7a:8c:4a:1f:22:
         b7:c1:89:c2:03:88:9b:93:21:54:9f:79:77:9d:51:ec:d0:3e:
         c2:b4:c1:43:93:3e:4f:4a:9f:f2:07:2a:e0:77:fe:7b:94:70:
         f3:e1:ab:45:63:96:24:47:22:51:86:e7:74:80:ff:04:7a:7f:
         6c:17:9a:11:b3:40:cc:63:c6:5c:21:f0:5b:8d:50:68:51:d0:
         34:b4:3d:47:a8:ba:26:7a:5d:10:85:91:65:7d:5f:c7:7b:a7:
         0a:07:79:95:41:f5:21:20:dd:85:e4:2b:8b:6a:6b:e4:c8:09:
         74:d5:90:63:08:a8:08:2b:f9:8a:2f:cc:b5:5e:3d:87:4f:21:
         0e:14:6c:a1:60:a3:65:54:00:69:a4:24:38:76:6d:35:87:d9:
         78:36:42:44:4c:0f:59:7d:4d:c9:54:d0:51:67:ee:c1:15:f1:
         eb:88:61:bb:9d:ed:3b:c8
-----BEGIN CERTIFICATE-----
MIIGrTCCBJWgAwIBAgICMWYwDQYJKoZIhvcNAQELBQAwgawxCzAJBgNVBAYTAlVT
MQswCQYDVQQIEwJPSDERMA8GA1UEBxMIQ29sdW1idXMxEjAQBgNVBAoTCVZpa2lu
Z1ZQTjEdMBsGA1UECxMUTXlPcmdhbml6YXRpb25hbFVuaXQxFTATBgNVBAMTDFZp
a2luZ1ZQTiBDQTEQMA4GA1UEKRMHRWFzeVJTQTEhMB8GCSqGSIb3DQEJARYSbWVA
bXlob3N0Lm15ZG9tYWluMB4XDTE4MDMwMTIwMzg0NVoXDTI4MDIyNzIwMzg0NVow
HzEdMBsGA1UEAxMUQ2xpZW50MzIyNENlcnQwNWRjYmEwggIiMA0GCSqGSIb3DQEB
AQUAA4ICDwAwggIKAoICAQC14ua+im1VKfCMhSsDUDo4Cy6kA3SfE2ow9YLd1e4Q
3ZHK1QhpM6xwkt+Zc+c+L5ing+jMaa3tukLtwh1RwCsUEg6LETJ/xs0Ldr3IkSaX
6W8BYo4n4e7MkqzHPRyAtzvlSdmkXhQla5Dt6Hkt6/oZWgFBYob2VY/RAUTb4e3T
XWo3C0lXMfWxXwRbiiL0fCxbNkgQI291cnlJz7yTWgsRtdOzJKBgsrmlMQcJb1/S
2fZXCzMBt6BuaecZaNkm8cQ21wmfEqlvMPzVRDe1BhPbpAFc1Vc7x+jb2mBTvTGw
WXlEG6WxfjebV+gzyX/vpNkCoSGE8lx0eYfQaCAagrsRbhyofnX/txVinRWyt3M5
rYXsvYQsJgh6H2wkWIgHy0jzycb0QBmWiVjJJTiIu/gxZZ7HqabgowCvSbRAPF5z
vcC8bEwWudln/nrqhkuK81qxqXHV2n1w9mVU/LDtvP5tUkYBA9PgNt2uD2XbrvmB
LdmxZj1MJ7efrjrZSWhGDG/+xR7hB6ulwLIHiZxyMnNRzuDsBVgIEtFpx8+j83vu
z9vtbJKr7wZ6R8wADTxgQ0+dt7Acfv4zpLNEE+CUgfx8o8X5E6J2CBmPjIZm73gq
m8aY5OEKicNJnZ0vmWd9wWoOhod50XnAJH77psIT1T8eY9Eu/yQw5JaKXHuf074V
aQIDAQABo4IBYzCCAV8wCQYDVR0TBAIwADAtBglghkgBhvhCAQ0EIBYeRWFzeS1S
U0EgR2VuZXJhdGVkIENlcnRpZmljYXRlMB0GA1UdDgQWBBR4uBWM4rVgG+aMjofp
nIlsVuJyhTCB4QYDVR0jBIHZMIHWgBQSzWAE0qCAnnDtxpm4eyzGUv0ZoaGBsqSB
rzCBrDELMAkGA1UEBhMCVVMxCzAJBgNVBAgTAk9IMREwDwYDVQQHEwhDb2x1bWJ1
czESMBAGA1UEChMJVmlraW5nVlBOMR0wGwYDVQQLExRNeU9yZ2FuaXphdGlvbmFs
VW5pdDEVMBMGA1UEAxMMVmlraW5nVlBOIENBMRAwDgYDVQQpEwdFYXN5UlNBMSEw
HwYJKoZIhvcNAQkBFhJtZUBteWhvc3QubXlkb21haW6CCQDPNYXugL8qPjATBgNV
HSUEDDAKBggrBgEFBQcDAjALBgNVHQ8EBAMCB4AwDQYJKoZIhvcNAQELBQADggIB
AA9VmfECycDb69iOEX5A4c5KLb/nKjunyNg565ijH/vR/lE+GApjZVInEPAFweQ5
J1AsHlqrFihx7i26xOu2CIg3AiVaCdOMT1ZVN962Aoa1txCOUYrR09p++1zIg0lL
SkIx6IswvGw6x/cpuOZVvq7tcK2Y+8gM8Xk26hpWJg473aXTNhTYm3RNflDwPxsl
AxJrv4cfOOhmD3dxm3Whzp84vEXTwyByKH9/+b/TOKmoGIXcBDdXqmeMP0gEigck
FYABK2jtdGtPweYMCa5WA0BQwJ0RH2KXyvDLJs24KqgY43U/4iOUm/Vrs7bY0Q7r
15F98xTdsKM5J57WhFKKS4u3AHpcIsCUv5v10w/NPHbQJ6gCp+rBm6MfmkiyDhcE
zXgAoZcQ+IHWyNySACC9UpXrX1jzIpwvkuVMjTqL5YiR/C2kzQQXduvQFHxb3H3o
MTF6jEofIrfBicIDiJuTIVSfeXedUezQPsK0wUOTPk9Kn/IHKuB3/nuUcPPhq0Vj
liRHIlGG53SA/wR6f2wXmhGzQMxjxlwh8FuNUGhR0DS0PUeouiZ6XRCFkWV9X8d7
pwoHeZVB9SEg3YXkK4tqa+TICXTVkGMIqAgr+YovzLVePYdPIQ4UbKFgo2VUAGmk
JDh2bTWH2Xg2QkRMD1l9TclU0FFn7sEV8euIYbud7TvI
-----END CERTIFICATE-----
