Certificate:
    Data:
        Version: 3 (0x2)
        Serial Number: 11378 (0x2c72)
    Signature Algorithm: sha256WithRSAEncryption
        Issuer: C=US, ST=OH, L=Columbus, O=VikingVPN, OU=MyOrganizationalUnit, CN=VikingVPN CA/name=EasyRSA/emailAddress=me@myhost.mydomain
        Validity
            Not Before: Jul 22 07:09:14 2017 GMT
            Not After : Jul 20 07:09:14 2027 GMT
        Subject: CN=Client2986Cert2cc14e
        Subject Public Key Info:
            Public Key Algorithm: rsaEncryption
                Public-Key: (4096 bit)
                Modulus:
                    00:cd:1f:a9:1a:ec:f7:21:9e:0c:4f:06:e1:2c:17:
                    26:d8:a3:db:16:e0:fc:71:40:50:46:da:a9:91:69:
                    2a:0e:3a:66:35:ee:7e:03:74:cf:96:6e:78:1b:ee:
                    d1:f1:bd:41:5e:17:49:fc:83:f8:e3:ac:8d:d9:19:
                    d0:98:8f:4b:6f:36:97:3d:4d:9e:f0:ba:18:a2:58:
                    5b:81:f4:fb:96:50:e5:e8:e4:96:e5:b3:cf:2e:af:
                    ab:c4:72:92:36:1b:86:9b:64:73:18:1f:7d:be:8d:
                    87:6a:c8:8f:b7:99:56:41:49:3a:15:1b:d4:0f:27:
                    51:b6:db:f4:c5:2c:b2:4a:4b:9d:11:7b:5e:a3:54:
                    d7:bb:f4:fb:90:88:55:ba:f4:d3:68:4e:9c:93:ec:
                    5a:89:37:43:bc:6b:d5:22:65:ed:5f:8a:53:2b:38:
                    de:00:ea:19:8e:d2:ca:37:ff:95:3e:26:51:9f:89:
                    29:07:8c:66:99:05:df:08:6b:9c:75:38:01:a3:67:
                    97:80:f3:14:5c:a7:1c:bf:d4:28:1a:90:11:9b:2e:
                    a7:ee:00:ef:cc:ff:00:0c:05:72:65:cd:88:66:21:
                    66:d0:e5:3c:5c:25:e0:52:29:78:ab:6a:c8:79:21:
                    9c:e9:41:8c:b3:75:5f:55:ea:2e:7a:8b:01:41:56:
                    b7:3a:bd:bd:c3:4f:27:fd:e0:b2:8f:b0:12:27:5e:
                    fe:0e:3b:77:8c:9d:0d:78:70:ce:c1:2c:56:e0:4d:
                    b9:50:53:fc:c1:c9:9b:06:94:f4:3d:87:52:4a:c0:
                    af:6a:b1:86:7b:6e:18:af:0e:d6:d8:e4:83:8f:c4:
                    44:f0:03:0e:f8:b5:87:fb:5a:8a:0a:f4:1d:8b:fd:
                    10:c3:e4:53:40:ae:67:54:f3:e0:7a:fb:1e:3f:81:
                    ee:62:d0:7a:6a:26:4c:78:0d:85:bd:e8:30:e8:19:
                    59:04:cb:e0:28:49:ab:8b:b9:ef:dc:c8:fd:94:d6:
                    45:81:1b:4c:b5:b9:a3:c0:0c:93:c0:73:85:d0:9a:
                    54:ea:21:52:03:67:62:96:4c:ac:0a:6f:19:69:df:
                    5e:16:18:0c:75:75:75:bc:42:cf:1a:f7:d7:bc:b6:
                    ea:99:7e:58:dd:26:f7:71:0a:8e:28:2c:20:8e:5c:
                    de:57:dc:31:e0:e1:ec:fe:23:c5:6b:5a:05:73:3d:
                    c7:a4:f4:75:f2:ef:d8:bf:b4:d3:8a:9e:a3:b9:9d:
                    c9:12:e0:c5:d9:c0:dc:d5:bc:ae:a8:4b:01:87:f0:
                    c1:f8:35:30:d0:4c:3b:3a:3b:3d:cc:a3:94:ad:99:
                    94:eb:0b:87:b0:e9:0d:71:c1:26:60:b7:ec:8c:1e:
                    59:b4:8b
                Exponent: 65537 (0x10001)
        X509v3 extensions:
            X509v3 Basic Constraints: 
                CA:FALSE
            Netscape Comment: 
                Easy-RSA Generated Certificate
            X509v3 Subject Key Identifier: 
                0E:1D:B6:FE:4C:F8:0D:C3:FF:66:E1:B5:24:03:48:95:4E:23:45:47
            X509v3 Authority Key Identifier: 
                keyid:12:CD:60:04:D2:A0:80:9E:70:ED:C6:99:B8:7B:2C:C6:52:FD:19:A1
                DirName:/C=US/ST=OH/L=Columbus/O=VikingVPN/OU=MyOrganizationalUnit/CN=VikingVPN CA/name=EasyRSA/emailAddress=me@myhost.mydomain
                serial:CF:35:85:EE:80:BF:2A:3E

            X509v3 Extended Key Usage: 
                TLS Web Client Authentication
            X509v3 Key Usage: 
                Digital Signature
    Signature Algorithm: sha256WithRSAEncryption
         72:fe:e0:c7:41:a1:5a:1d:aa:66:38:2e:9a:26:9e:88:d0:ad:
         0e:4c:52:8d:cd:11:b4:09:43:2d:70:81:e9:40:d8:cf:8a:15:
         5f:de:4a:1a:77:71:0e:b3:9b:95:f6:cb:ee:ee:dc:b2:97:87:
         fd:95:c0:2e:8f:a9:ef:8a:9a:45:e1:75:77:e1:69:d2:cf:8f:
         75:8b:be:9c:3d:cf:ec:d4:ab:52:f2:a9:c3:ff:45:03:f8:c5:
         f5:82:ca:8c:d2:5b:93:79:ad:69:e1:63:b1:64:40:78:d0:de:
         93:31:b0:f9:e4:64:7e:08:cf:95:2e:e0:ec:c9:cf:a2:f4:4b:
         53:d1:b5:ec:c8:79:34:49:00:e1:31:f9:cc:32:4f:90:35:27:
         db:00:de:90:ea:17:c0:08:33:05:7b:2c:6b:2c:ab:02:99:44:
         87:ae:d9:63:fd:a8:21:dd:7e:e4:d3:69:cc:b7:94:ec:f6:8e:
         d4:7d:f7:65:8a:52:7d:04:47:d8:50:02:fe:6b:13:c2:79:16:
         1f:2d:a8:74:8f:2d:1a:6b:85:34:f7:f7:99:53:2c:51:40:96:
         bf:aa:3a:11:20:82:80:3c:e9:f6:a7:81:b1:bc:fa:f9:e6:05:
         bd:10:30:b5:3d:12:f7:b8:c7:50:bf:d4:e9:55:78:cb:90:65:
         da:87:df:39:80:09:52:03:f4:4a:5c:3f:34:97:e9:91:e3:da:
         1c:0b:81:d8:bf:a4:36:35:b0:fc:eb:df:ff:6b:7b:f1:e9:d9:
         c9:36:66:2f:e4:fb:5a:5b:6c:7f:ea:b6:52:29:e5:61:e2:94:
         4a:54:b7:ae:09:09:95:9a:25:02:3f:c8:19:01:ea:3c:77:7e:
         13:0c:5e:d2:1e:48:3b:cb:7a:35:a8:5b:d7:09:7a:77:19:8f:
         9f:5d:de:95:99:c7:ab:45:d8:d0:2d:9d:89:15:8d:3c:8a:a3:
         32:9d:df:46:36:89:0c:b6:43:80:94:51:39:ce:bb:d2:8a:0e:
         f2:fe:c4:22:13:71:f9:59:41:e0:8b:b3:1d:49:4e:ab:f6:8e:
         5f:f7:68:0b:be:5b:4a:61:be:fa:21:34:22:b3:a7:17:01:79:
         d1:47:0f:b1:a6:68:fe:48:8e:92:6a:81:83:b9:d1:78:c2:2c:
         c5:76:8f:78:36:cf:f5:42:fe:01:5d:50:6b:f9:c3:a3:43:29:
         85:e5:12:ef:9a:80:94:04:3c:b7:3f:75:0d:6c:7f:34:e4:6b:
         71:b1:47:7f:d8:ab:57:a4:f8:2b:af:9d:d3:16:d7:bc:d5:be:
         7e:ec:38:8a:4e:0e:1d:12:16:41:85:59:37:b9:6b:37:44:ea:
         05:e7:82:ae:5d:73:0e:cd
-----BEGIN CERTIFICATE-----
MIIGrTCCBJWgAwIBAgICLHIwDQYJKoZIhvcNAQELBQAwgawxCzAJBgNVBAYTAlVT
MQswCQYDVQQIEwJPSDERMA8GA1UEBxMIQ29sdW1idXMxEjAQBgNVBAoTCVZpa2lu
Z1ZQTjEdMBsGA1UECxMUTXlPcmdhbml6YXRpb25hbFVuaXQxFTATBgNVBAMTDFZp
a2luZ1ZQTiBDQTEQMA4GA1UEKRMHRWFzeVJTQTEhMB8GCSqGSIb3DQEJARYSbWVA
bXlob3N0Lm15ZG9tYWluMB4XDTE3MDcyMjA3MDkxNFoXDTI3MDcyMDA3MDkxNFow
HzEdMBsGA1UEAxMUQ2xpZW50Mjk4NkNlcnQyY2MxNGUwggIiMA0GCSqGSIb3DQEB
AQUAA4ICDwAwggIKAoICAQDNH6ka7PchngxPBuEsFybYo9sW4PxxQFBG2qmRaSoO
OmY17n4DdM+Wbngb7tHxvUFeF0n8g/jjrI3ZGdCYj0tvNpc9TZ7wuhiiWFuB9PuW
UOXo5Jbls88ur6vEcpI2G4abZHMYH32+jYdqyI+3mVZBSToVG9QPJ1G22/TFLLJK
S50Re16jVNe79PuQiFW69NNoTpyT7FqJN0O8a9UiZe1filMrON4A6hmO0so3/5U+
JlGfiSkHjGaZBd8Ia5x1OAGjZ5eA8xRcpxy/1CgakBGbLqfuAO/M/wAMBXJlzYhm
IWbQ5TxcJeBSKXirash5IZzpQYyzdV9V6i56iwFBVrc6vb3DTyf94LKPsBInXv4O
O3eMnQ14cM7BLFbgTblQU/zByZsGlPQ9h1JKwK9qsYZ7bhivDtbY5IOPxETwAw74
tYf7WooK9B2L/RDD5FNArmdU8+B6+x4/ge5i0HpqJkx4DYW96DDoGVkEy+AoSauL
ue/cyP2U1kWBG0y1uaPADJPAc4XQmlTqIVIDZ2KWTKwKbxlp314WGAx1dXW8Qs8a
99e8tuqZfljdJvdxCo4oLCCOXN5X3DHg4ez+I8VrWgVzPcek9HXy79i/tNOKnqO5
nckS4MXZwNzVvK6oSwGH8MH4NTDQTDs6Oz3Mo5StmZTrC4ew6Q1xwSZgt+yMHlm0
iwIDAQABo4IBYzCCAV8wCQYDVR0TBAIwADAtBglghkgBhvhCAQ0EIBYeRWFzeS1S
U0EgR2VuZXJhdGVkIENlcnRpZmljYXRlMB0GA1UdDgQWBBQOHbb+TPgNw/9m4bUk
A0iVTiNFRzCB4QYDVR0jBIHZMIHWgBQSzWAE0qCAnnDtxpm4eyzGUv0ZoaGBsqSB
rzCBrDELMAkGA1UEBhMCVVMxCzAJBgNVBAgTAk9IMREwDwYDVQQHEwhDb2x1bWJ1
czESMBAGA1UEChMJVmlraW5nVlBOMR0wGwYDVQQLExRNeU9yZ2FuaXphdGlvbmFs
VW5pdDEVMBMGA1UEAxMMVmlraW5nVlBOIENBMRAwDgYDVQQpEwdFYXN5UlNBMSEw
HwYJKoZIhvcNAQkBFhJtZUBteWhvc3QubXlkb21haW6CCQDPNYXugL8qPjATBgNV
HSUEDDAKBggrBgEFBQcDAjALBgNVHQ8EBAMCB4AwDQYJKoZIhvcNAQELBQADggIB
AHL+4MdBoVodqmY4LpomnojQrQ5MUo3NEbQJQy1wgelA2M+KFV/eShp3cQ6zm5X2
y+7u3LKXh/2VwC6Pqe+KmkXhdXfhadLPj3WLvpw9z+zUq1LyqcP/RQP4xfWCyozS
W5N5rWnhY7FkQHjQ3pMxsPnkZH4Iz5Uu4OzJz6L0S1PRtezIeTRJAOEx+cwyT5A1
J9sA3pDqF8AIMwV7LGssqwKZRIeu2WP9qCHdfuTTacy3lOz2jtR992WKUn0ER9hQ
Av5rE8J5Fh8tqHSPLRprhTT395lTLFFAlr+qOhEggoA86fangbG8+vnmBb0QMLU9
Eve4x1C/1OlVeMuQZdqH3zmACVID9EpcPzSX6ZHj2hwLgdi/pDY1sPzr3/9re/Hp
2ck2Zi/k+1pbbH/qtlIp5WHilEpUt64JCZWaJQI/yBkB6jx3fhMMXtIeSDvLejWo
W9cJencZj59d3pWZx6tF2NAtnYkVjTyKozKd30Y2iQy2Q4CUUTnOu9KKDvL+xCIT
cflZQeCLsx1JTqv2jl/3aAu+W0phvvohNCKzpxcBedFHD7GmaP5IjpJqgYO50XjC
LMV2j3g2z/VC/gFdUGv5w6NDKYXlEu+agJQEPLc/dQ1sfzTka3GxR3/Yq1ek+Cuv
ndMW17zVvn7sOIpODh0SFkGFWTe5azdE6gXngq5dcw7N
-----END CERTIFICATE-----
