Certificate:
    Data:
        Version: 3 (0x2)
        Serial Number: 7376 (0x1cd0)
    Signature Algorithm: md5WithRSAEncryption
        Issuer: C=US, ST=OH, L=Columbus, O=VikingVPN, OU=MyOrganizationalUnit, CN=VikingVPN CA/name=EasyRSA/emailAddress=me@myhost.mydomain
        Validity
            Not Before: Mar  2 00:51:16 2016 GMT
            Not After : Feb 28 00:51:16 2026 GMT
        Subject: CN=Client1363Certf30aa4
        Subject Public Key Info:
            Public Key Algorithm: rsaEncryption
                Public-Key: (4096 bit)
                Modulus:
                    00:bd:2c:bc:75:81:0c:55:fe:8c:53:03:7b:41:5a:
                    4b:ab:6f:a6:62:27:88:07:6c:08:63:1b:67:d0:99:
                    ac:5d:41:3e:28:9d:ca:65:39:4a:27:2e:93:bd:96:
                    c3:14:b5:30:ec:bf:b9:07:2f:33:f7:da:59:21:5c:
                    45:e6:3a:e9:72:25:58:7a:ba:08:60:78:9e:4d:a8:
                    b5:cb:08:b3:10:b7:e0:80:88:9f:38:ab:20:2a:68:
                    5e:50:28:9f:39:84:af:51:87:01:2f:ce:00:d2:4d:
                    89:92:45:d2:ac:91:82:bd:b4:5c:60:a6:b6:e0:20:
                    5d:49:17:61:c9:f8:c1:90:f1:9b:ff:5f:8b:6c:2c:
                    9a:0f:a0:2f:59:78:78:ce:33:2e:42:68:ac:61:af:
                    f3:3e:a4:bc:c2:5a:6c:23:5d:c9:28:91:61:fc:8c:
                    b8:28:04:00:c3:9a:0d:f2:b4:a1:9d:67:60:97:d6:
                    3e:a4:b0:bb:70:3e:17:33:9f:d7:9e:b2:7c:d9:d0:
                    0a:c1:5a:d4:a4:85:9d:a5:e2:26:f8:63:ce:01:99:
                    a9:15:c0:07:a3:86:43:21:f1:88:a1:10:99:64:b7:
                    94:54:c8:35:7c:d1:34:6a:a1:93:47:93:ee:e3:3d:
                    6d:cb:14:e8:53:4b:1d:bb:dc:07:2e:19:8a:85:66:
                    fa:e3:9a:15:bb:63:b2:ac:61:c4:94:ba:19:5a:35:
                    77:65:0b:b2:7a:4e:a5:10:81:a0:5f:f0:94:2a:67:
                    68:d8:91:b6:df:2b:8d:d8:f1:df:ab:b7:e7:69:1f:
                    f3:5d:fc:da:37:9b:24:3d:1b:97:a9:06:fa:40:fd:
                    b2:cf:b6:3c:7c:aa:c1:2d:00:24:8c:71:9f:e0:a0:
                    03:29:61:ec:10:d9:dc:c2:c9:1b:62:06:f8:b3:80:
                    46:bd:66:c8:33:a8:97:7f:d3:31:71:19:f8:78:cb:
                    9c:9c:50:60:3b:26:d0:1d:35:f3:2f:ee:a3:a8:67:
                    6a:fe:57:55:41:99:57:f7:1c:f5:06:06:3c:51:63:
                    3d:69:79:10:c6:15:2e:52:86:a2:4a:e4:4c:d8:37:
                    20:b0:dc:b3:e5:a3:f4:82:a0:34:7b:cf:5f:55:48:
                    41:f5:b9:e8:ff:27:06:3b:5f:1e:18:7f:94:a5:b9:
                    61:73:61:7f:32:ba:e6:fa:b8:7e:dc:36:78:a4:92:
                    27:57:04:3e:0e:81:67:06:52:dd:53:71:57:bb:9b:
                    57:f6:6f:13:b2:ba:f6:21:35:4b:e1:35:6a:d6:a3:
                    cf:19:60:b0:ba:af:f7:5b:55:ab:6a:c8:0a:8e:84:
                    13:53:a2:b1:8c:d3:69:52:92:59:e9:60:41:7f:76:
                    c7:5a:29
                Exponent: 65537 (0x10001)
        X509v3 extensions:
            X509v3 Basic Constraints: 
                CA:FALSE
            Netscape Comment: 
                Easy-RSA Generated Certificate
            X509v3 Subject Key Identifier: 
                6E:FB:FA:AE:C4:77:9C:AC:AD:1F:F7:8C:48:45:F3:21:CF:D5:FE:F9
            X509v3 Authority Key Identifier: 
                keyid:12:CD:60:04:D2:A0:80:9E:70:ED:C6:99:B8:7B:2C:C6:52:FD:19:A1
                DirName:/C=US/ST=OH/L=Columbus/O=VikingVPN/OU=MyOrganizationalUnit/CN=VikingVPN CA/name=EasyRSA/emailAddress=me@myhost.mydomain
                serial:CF:35:85:EE:80:BF:2A:3E

            X509v3 Extended Key Usage: 
                TLS Web Client Authentication
            X509v3 Key Usage: 
                Digital Signature
    Signature Algorithm: md5WithRSAEncryption
         c5:ec:2e:07:ae:c1:c4:4f:c5:79:f1:33:50:a4:b3:f3:4f:b8:
         9b:f4:62:55:18:26:9d:a8:e0:ac:2c:1f:52:e3:f7:1f:07:31:
         97:4c:92:e1:7e:a7:b9:e9:07:9f:cd:27:aa:4e:70:3d:aa:1a:
         5a:50:f1:49:13:19:5f:11:e0:10:9b:aa:72:76:ce:85:ee:78:
         bd:2d:47:aa:0d:48:7d:2f:de:56:fb:ef:85:76:f5:ff:50:cf:
         96:6d:b8:c6:c7:d3:4f:57:dc:02:3b:14:7c:3b:f9:0b:dc:5f:
         c6:e5:ae:a3:2a:6e:42:89:ec:35:33:97:d9:2f:af:33:d6:87:
         a5:45:4f:e6:6b:49:93:ee:16:f5:78:8d:ff:0c:0c:bc:9a:dc:
         1e:90:cd:f3:09:2b:7f:95:7a:fd:6e:22:cd:66:a0:cb:2c:d8:
         5b:63:29:df:7b:3c:df:ca:e6:8b:77:f2:ef:a9:db:b9:aa:78:
         40:8e:49:e2:fc:e2:a6:2a:4f:26:a3:bd:dd:9f:d4:ca:ec:c6:
         8e:e0:6e:90:39:38:7b:89:b9:3f:b0:0b:58:a0:84:f8:bb:70:
         3f:32:b4:65:0f:ac:17:0f:ad:cd:3e:12:3f:ca:37:20:7e:06:
         5f:1c:d6:0b:71:70:65:76:3a:39:12:4a:3f:04:14:eb:00:da:
         02:2e:9c:db:a7:74:67:82:4d:9c:6d:10:b8:c2:e1:30:65:a4:
         52:4a:1a:26:73:43:e9:f4:39:89:37:96:50:81:6a:fd:d0:96:
         79:74:4c:b0:36:42:0f:58:fd:b1:e6:f5:f2:ae:a1:46:75:84:
         fc:d4:15:06:2e:92:48:77:1a:8e:4d:b1:4f:c1:c3:8c:f3:ed:
         61:9b:68:e8:38:c5:36:8f:f6:47:e8:37:e9:12:8f:96:35:49:
         a9:3a:64:d2:cb:10:37:86:64:0e:b1:de:0e:d2:32:3a:e9:06:
         3f:8e:99:81:52:03:9b:e3:02:6e:11:e9:4b:7f:f0:0f:47:b5:
         a3:42:62:8a:bb:53:b4:76:07:71:2e:60:5d:3a:a0:ab:27:63:
         43:31:70:b9:d7:49:9c:ef:f7:08:73:68:35:fd:8f:a8:53:5f:
         fd:21:bb:97:14:31:95:8f:c5:c2:3a:7a:e6:63:1e:cc:54:ff:
         58:40:2f:3d:d9:80:83:00:f0:c2:de:cd:a1:dc:ad:3a:c5:43:
         30:1e:21:de:a8:25:e0:df:ce:10:12:e4:e1:f7:1e:7c:34:92:
         0c:b7:67:2d:6a:e5:6a:0a:de:18:69:3c:8e:6e:cd:8c:3d:59:
         76:3a:bc:5a:ca:20:44:e6:0d:aa:18:05:ca:ef:7e:bd:b9:02:
         1d:72:c0:30:e9:8f:0b:e5
-----BEGIN CERTIFICATE-----
MIIGrTCCBJWgAwIBAgICHNAwDQYJKoZIhvcNAQEEBQAwgawxCzAJBgNVBAYTAlVT
MQswCQYDVQQIEwJPSDERMA8GA1UEBxMIQ29sdW1idXMxEjAQBgNVBAoTCVZpa2lu
Z1ZQTjEdMBsGA1UECxMUTXlPcmdhbml6YXRpb25hbFVuaXQxFTATBgNVBAMTDFZp
a2luZ1ZQTiBDQTEQMA4GA1UEKRMHRWFzeVJTQTEhMB8GCSqGSIb3DQEJARYSbWVA
bXlob3N0Lm15ZG9tYWluMB4XDTE2MDMwMjAwNTExNloXDTI2MDIyODAwNTExNlow
HzEdMBsGA1UEAxMUQ2xpZW50MTM2M0NlcnRmMzBhYTQwggIiMA0GCSqGSIb3DQEB
AQUAA4ICDwAwggIKAoICAQC9LLx1gQxV/oxTA3tBWkurb6ZiJ4gHbAhjG2fQmaxd
QT4oncplOUonLpO9lsMUtTDsv7kHLzP32lkhXEXmOulyJVh6ughgeJ5NqLXLCLMQ
t+CAiJ84qyAqaF5QKJ85hK9RhwEvzgDSTYmSRdKskYK9tFxgprbgIF1JF2HJ+MGQ
8Zv/X4tsLJoPoC9ZeHjOMy5CaKxhr/M+pLzCWmwjXckokWH8jLgoBADDmg3ytKGd
Z2CX1j6ksLtwPhczn9eesnzZ0ArBWtSkhZ2l4ib4Y84BmakVwAejhkMh8YihEJlk
t5RUyDV80TRqoZNHk+7jPW3LFOhTSx273AcuGYqFZvrjmhW7Y7KsYcSUuhlaNXdl
C7J6TqUQgaBf8JQqZ2jYkbbfK43Y8d+rt+dpH/Nd/No3myQ9G5epBvpA/bLPtjx8
qsEtACSMcZ/goAMpYewQ2dzCyRtiBvizgEa9ZsgzqJd/0zFxGfh4y5ycUGA7JtAd
NfMv7qOoZ2r+V1VBmVf3HPUGBjxRYz1peRDGFS5ShqJK5EzYNyCw3LPlo/SCoDR7
z19VSEH1uej/JwY7Xx4Yf5SluWFzYX8yuub6uH7cNnikkidXBD4OgWcGUt1TcVe7
m1f2bxOyuvYhNUvhNWrWo88ZYLC6r/dbVatqyAqOhBNTorGM02lSklnpYEF/dsda
KQIDAQABo4IBYzCCAV8wCQYDVR0TBAIwADAtBglghkgBhvhCAQ0EIBYeRWFzeS1S
U0EgR2VuZXJhdGVkIENlcnRpZmljYXRlMB0GA1UdDgQWBBRu+/quxHecrK0f94xI
RfMhz9X++TCB4QYDVR0jBIHZMIHWgBQSzWAE0qCAnnDtxpm4eyzGUv0ZoaGBsqSB
rzCBrDELMAkGA1UEBhMCVVMxCzAJBgNVBAgTAk9IMREwDwYDVQQHEwhDb2x1bWJ1
czESMBAGA1UEChMJVmlraW5nVlBOMR0wGwYDVQQLExRNeU9yZ2FuaXphdGlvbmFs
VW5pdDEVMBMGA1UEAxMMVmlraW5nVlBOIENBMRAwDgYDVQQpEwdFYXN5UlNBMSEw
HwYJKoZIhvcNAQkBFhJtZUBteWhvc3QubXlkb21haW6CCQDPNYXugL8qPjATBgNV
HSUEDDAKBggrBgEFBQcDAjALBgNVHQ8EBAMCB4AwDQYJKoZIhvcNAQEEBQADggIB
AMXsLgeuwcRPxXnxM1Cks/NPuJv0YlUYJp2o4KwsH1Lj9x8HMZdMkuF+p7npB5/N
J6pOcD2qGlpQ8UkTGV8R4BCbqnJ2zoXueL0tR6oNSH0v3lb774V29f9Qz5ZtuMbH
009X3AI7FHw7+QvcX8blrqMqbkKJ7DUzl9kvrzPWh6VFT+ZrSZPuFvV4jf8MDLya
3B6QzfMJK3+Vev1uIs1moMss2FtjKd97PN/K5ot38u+p27mqeECOSeL84qYqTyaj
vd2f1Mrsxo7gbpA5OHuJuT+wC1ighPi7cD8ytGUPrBcPrc0+Ej/KNyB+Bl8c1gtx
cGV2OjkSSj8EFOsA2gIunNundGeCTZxtELjC4TBlpFJKGiZzQ+n0OYk3llCBav3Q
lnl0TLA2Qg9Y/bHm9fKuoUZ1hPzUFQYukkh3Go5NsU/Bw4zz7WGbaOg4xTaP9kfo
N+kSj5Y1Sak6ZNLLEDeGZA6x3g7SMjrpBj+OmYFSA5vjAm4R6Ut/8A9HtaNCYoq7
U7R2B3EuYF06oKsnY0MxcLnXSZzv9whzaDX9j6hTX/0hu5cUMZWPxcI6euZjHsxU
/1hALz3ZgIMA8MLezaHcrTrFQzAeId6oJeDfzhAS5OH3Hnw0kgy3Zy1q5WoK3hhp
PI5uzYw9WXY6vFrKIETmDaoYBcrvfr25Ah1ywDDpjwvl
-----END CERTIFICATE-----
