Certificate:
    Data:
        Version: 3 (0x2)
        Serial Number: 2865 (0xb31)
    Signature Algorithm: md5WithRSAEncryption
        Issuer: C=US, ST=OH, L=Columbus, O=VikingVPN, OU=MyOrganizationalUnit, CN=VikingVPN CA/name=EasyRSA/emailAddress=me@myhost.mydomain
        Validity
            Not Before: Sep 15 22:14:42 2014 GMT
            Not After : Sep 12 22:14:42 2024 GMT
        Subject: CN=Client990Certe4239e
        Subject Public Key Info:
            Public Key Algorithm: rsaEncryption
                Public-Key: (4096 bit)
                Modulus:
                    00:99:2f:ca:72:5c:d2:f7:43:42:03:08:3c:7b:58:
                    a8:26:be:ab:d6:f9:6c:ea:13:88:23:2a:6d:e8:ee:
                    f0:36:a2:57:bb:ca:7f:98:bc:28:a8:65:b2:6b:72:
                    78:ea:03:17:43:1f:cd:4f:db:fe:26:fa:29:04:b4:
                    f5:3c:ca:1a:59:04:1e:34:27:16:7b:5e:de:63:3a:
                    c3:4f:f3:c9:28:9d:53:0c:9d:e2:28:8b:03:99:0b:
                    05:31:5c:c2:4f:66:d3:7d:e5:12:63:25:50:bb:9c:
                    e7:19:e5:5b:c2:a7:05:41:96:d9:5d:75:68:ae:d5:
                    af:7c:09:19:bc:ac:0c:94:c5:78:d1:9c:f1:92:ef:
                    cb:20:5c:c9:91:c9:c3:d1:d6:df:f2:44:b1:90:77:
                    f7:ea:c1:06:d2:38:a3:49:05:41:fb:b8:af:1e:e2:
                    f8:1a:a7:a6:99:8b:06:64:21:7d:5b:4b:d9:58:2a:
                    e5:4e:c9:e0:83:b3:fc:48:df:db:df:d5:0b:38:6c:
                    01:a4:52:b3:e2:74:57:d7:89:46:c4:e4:e9:9d:33:
                    d1:be:34:db:47:69:7d:c3:13:94:c0:2b:bb:09:5f:
                    8b:e3:6c:14:a8:10:a0:67:9a:8b:87:c4:7d:12:12:
                    70:a7:eb:4d:74:ee:13:4c:0a:66:a7:e5:e3:b6:7a:
                    b9:3d:17:4a:9c:93:8b:02:c6:70:7f:a4:68:02:c0:
                    5c:2c:21:e4:2d:2b:4f:12:2d:16:b1:48:15:5a:b8:
                    3c:bf:29:7b:8c:8d:69:e9:e0:50:56:5a:81:71:49:
                    9a:11:0c:a7:2f:76:91:68:cf:00:9b:82:07:a1:bf:
                    5c:1a:dc:70:4d:ff:e4:96:36:fe:45:70:f2:a2:d4:
                    31:e5:13:2e:5d:b9:13:22:b1:92:38:cc:07:11:cf:
                    5d:c4:96:f9:4b:d1:f3:a0:70:46:a1:c6:5e:db:a1:
                    ee:a0:f3:48:23:b6:c1:e7:65:5f:2c:bf:10:c5:09:
                    36:31:25:69:72:c1:2b:12:e8:c9:56:c2:d5:36:9d:
                    cf:86:73:18:47:91:c2:72:15:e5:3e:69:2f:bc:d3:
                    80:dd:94:7a:77:a8:e1:8d:61:5c:73:bb:16:ff:9e:
                    f7:0a:3d:17:55:3d:0b:ed:7e:ff:f9:c9:aa:91:f7:
                    2d:19:8d:3b:b2:46:b0:48:9e:ab:72:25:35:95:9e:
                    07:9e:1d:bf:6e:ae:04:cb:86:0e:2c:4f:96:87:ef:
                    6d:bd:a8:62:09:87:ab:f2:34:24:2c:93:69:cc:de:
                    a6:fc:24:cc:3f:6f:a5:b3:54:64:5a:ed:a9:56:b3:
                    c3:47:bd:c3:f8:80:17:33:a3:fd:46:c4:d6:2d:8b:
                    09:1c:5f
                Exponent: 65537 (0x10001)
        X509v3 extensions:
            X509v3 Basic Constraints: 
                CA:FALSE
            Netscape Comment: 
                Easy-RSA Generated Certificate
            X509v3 Subject Key Identifier: 
                1E:CD:EA:06:6A:C4:0D:BF:3F:6D:F2:CA:18:76:B1:E0:AF:32:03:77
            X509v3 Authority Key Identifier: 
                keyid:12:CD:60:04:D2:A0:80:9E:70:ED:C6:99:B8:7B:2C:C6:52:FD:19:A1
                DirName:/C=US/ST=OH/L=Columbus/O=VikingVPN/OU=MyOrganizationalUnit/CN=VikingVPN CA/name=EasyRSA/emailAddress=me@myhost.mydomain
                serial:CF:35:85:EE:80:BF:2A:3E

            X509v3 Extended Key Usage: 
                TLS Web Client Authentication
            X509v3 Key Usage: 
                Digital Signature
    Signature Algorithm: md5WithRSAEncryption
         e2:84:ed:ee:b2:2a:ad:1f:96:4a:3d:18:6a:8a:82:3f:2d:5b:
         7c:1f:7b:c8:23:63:c0:5b:ec:8e:1c:8a:60:b2:50:38:9a:9c:
         b7:57:60:95:25:bb:80:f6:d2:09:d2:ae:56:a2:ce:8e:16:48:
         46:5b:54:a2:dc:8b:42:f2:31:cb:db:32:3a:cb:9a:9d:66:4a:
         52:d3:2e:b6:56:d6:40:fa:43:92:5f:5f:30:e7:e9:9f:97:9e:
         b0:dc:56:88:ac:45:60:d9:06:ff:9c:7d:d3:a9:f2:9d:4c:39:
         ea:a4:37:3a:22:72:06:bd:90:fb:f8:17:d5:fd:ea:c6:72:ac:
         bb:87:f7:bb:3d:af:64:fb:1f:08:a5:d3:10:c1:54:eb:77:84:
         f8:9d:57:58:d4:ed:a7:38:62:ca:b4:0b:85:b2:00:3f:43:b3:
         1a:e9:1c:97:4f:18:50:29:4e:94:d2:9a:8f:5b:ca:5b:08:6f:
         f4:4d:e3:aa:db:7b:82:16:cd:30:b6:4d:5e:6a:4b:48:59:c7:
         05:af:ce:3b:6a:c9:38:c4:37:69:33:77:ff:1f:b3:f1:df:e9:
         b0:3a:43:6f:59:2b:30:4c:ec:6a:bc:8f:24:e9:38:8c:9e:85:
         5d:ba:6b:76:86:9f:5d:c1:ac:6e:2b:e2:b8:8c:a9:29:1a:bc:
         cb:06:43:59:dc:49:95:82:94:9c:24:4c:80:b9:77:e9:d8:b3:
         fc:9e:d4:cf:d8:80:af:b2:d0:21:a2:8f:39:94:7c:9b:e0:41:
         99:4b:89:56:34:2c:bf:b6:60:2f:73:6f:c9:74:66:44:b7:f4:
         b2:59:5f:4a:8a:c5:c2:74:91:b6:c6:6b:a4:20:a5:f5:b6:3a:
         78:45:e7:b2:f5:72:35:43:c4:f7:b2:c1:7f:2a:ea:c1:0f:b5:
         0d:a6:71:d2:75:c1:0c:ef:e1:45:e1:7b:ab:04:9a:14:32:7e:
         f5:1c:09:3c:9b:e5:e9:32:9e:10:3b:0d:8a:fe:91:eb:78:4f:
         71:9c:f1:79:cd:79:27:78:34:12:16:22:58:f0:e5:fd:61:97:
         93:2d:db:eb:a0:3d:62:62:28:7c:98:41:19:0b:a3:06:6d:93:
         40:00:f6:9f:c6:91:a3:d6:39:f7:a4:c7:c7:49:bf:fc:59:ae:
         e2:46:a7:11:22:c6:b6:53:1e:aa:0a:21:bd:b4:a4:6c:ce:0e:
         06:a0:6f:8d:cf:5c:f9:ac:22:ea:83:e2:d1:02:bf:04:f5:6a:
         fc:e2:ca:e8:d7:f4:c0:ca:b1:9d:27:3b:ac:86:a3:c6:f1:f2:
         72:af:fb:41:fa:bc:ce:9f:c3:27:ed:02:b5:9a:43:29:db:5d:
         b2:8f:dd:16:8b:42:f0:2c
-----BEGIN CERTIFICATE-----
MIIGrDCCBJSgAwIBAgICCzEwDQYJKoZIhvcNAQEEBQAwgawxCzAJBgNVBAYTAlVT
MQswCQYDVQQIEwJPSDERMA8GA1UEBxMIQ29sdW1idXMxEjAQBgNVBAoTCVZpa2lu
Z1ZQTjEdMBsGA1UECxMUTXlPcmdhbml6YXRpb25hbFVuaXQxFTATBgNVBAMTDFZp
a2luZ1ZQTiBDQTEQMA4GA1UEKRMHRWFzeVJTQTEhMB8GCSqGSIb3DQEJARYSbWVA
bXlob3N0Lm15ZG9tYWluMB4XDTE0MDkxNTIyMTQ0MloXDTI0MDkxMjIyMTQ0Mlow
HjEcMBoGA1UEAxMTQ2xpZW50OTkwQ2VydGU0MjM5ZTCCAiIwDQYJKoZIhvcNAQEB
BQADggIPADCCAgoCggIBAJkvynJc0vdDQgMIPHtYqCa+q9b5bOoTiCMqbeju8Dai
V7vKf5i8KKhlsmtyeOoDF0MfzU/b/ib6KQS09TzKGlkEHjQnFnte3mM6w0/zySid
Uwyd4iiLA5kLBTFcwk9m033lEmMlULuc5xnlW8KnBUGW2V11aK7Vr3wJGbysDJTF
eNGc8ZLvyyBcyZHJw9HW3/JEsZB39+rBBtI4o0kFQfu4rx7i+BqnppmLBmQhfVtL
2Vgq5U7J4IOz/Ejf29/VCzhsAaRSs+J0V9eJRsTk6Z0z0b4020dpfcMTlMAruwlf
i+NsFKgQoGeai4fEfRIScKfrTXTuE0wKZqfl47Z6uT0XSpyTiwLGcH+kaALAXCwh
5C0rTxItFrFIFVq4PL8pe4yNaengUFZagXFJmhEMpy92kWjPAJuCB6G/XBrccE3/
5JY2/kVw8qLUMeUTLl25EyKxkjjMBxHPXcSW+UvR86BwRqHGXtuh7qDzSCO2wedl
Xyy/EMUJNjElaXLBKxLoyVbC1Tadz4ZzGEeRwnIV5T5pL7zTgN2Ueneo4Y1hXHO7
Fv+e9wo9F1U9C+1+//nJqpH3LRmNO7JGsEieq3IlNZWeB54dv26uBMuGDixPlofv
bb2oYgmHq/I0JCyTaczepvwkzD9vpbNUZFrtqVazw0e9w/iAFzOj/UbE1i2LCRxf
AgMBAAGjggFjMIIBXzAJBgNVHRMEAjAAMC0GCWCGSAGG+EIBDQQgFh5FYXN5LVJT
QSBHZW5lcmF0ZWQgQ2VydGlmaWNhdGUwHQYDVR0OBBYEFB7N6gZqxA2/P23yyhh2
seCvMgN3MIHhBgNVHSMEgdkwgdaAFBLNYATSoICecO3Gmbh7LMZS/RmhoYGypIGv
MIGsMQswCQYDVQQGEwJVUzELMAkGA1UECBMCT0gxETAPBgNVBAcTCENvbHVtYnVz
MRIwEAYDVQQKEwlWaWtpbmdWUE4xHTAbBgNVBAsTFE15T3JnYW5pemF0aW9uYWxV
bml0MRUwEwYDVQQDEwxWaWtpbmdWUE4gQ0ExEDAOBgNVBCkTB0Vhc3lSU0ExITAf
BgkqhkiG9w0BCQEWEm1lQG15aG9zdC5teWRvbWFpboIJAM81he6Avyo+MBMGA1Ud
JQQMMAoGCCsGAQUFBwMCMAsGA1UdDwQEAwIHgDANBgkqhkiG9w0BAQQFAAOCAgEA
4oTt7rIqrR+WSj0YaoqCPy1bfB97yCNjwFvsjhyKYLJQOJqct1dglSW7gPbSCdKu
VqLOjhZIRltUotyLQvIxy9syOsuanWZKUtMutlbWQPpDkl9fMOfpn5eesNxWiKxF
YNkG/5x906nynUw56qQ3OiJyBr2Q+/gX1f3qxnKsu4f3uz2vZPsfCKXTEMFU63eE
+J1XWNTtpzhiyrQLhbIAP0OzGukcl08YUClOlNKaj1vKWwhv9E3jqtt7ghbNMLZN
XmpLSFnHBa/OO2rJOMQ3aTN3/x+z8d/psDpDb1krMEzsaryPJOk4jJ6FXbprdoaf
XcGsbiviuIypKRq8ywZDWdxJlYKUnCRMgLl36diz/J7Uz9iAr7LQIaKPOZR8m+BB
mUuJVjQsv7ZgL3NvyXRmRLf0sllfSorFwnSRtsZrpCCl9bY6eEXnsvVyNUPE97LB
fyrqwQ+1DaZx0nXBDO/hReF7qwSaFDJ+9RwJPJvl6TKeEDsNiv6R63hPcZzxec15
J3g0EhYiWPDl/WGXky3b66A9YmIofJhBGQujBm2TQAD2n8aRo9Y596THx0m//Fmu
4kanESLGtlMeqgohvbSkbM4OBqBvjc9c+awi6oPi0QK/BPVq/OLK6Nf0wMqxnSc7
rIajxvHycq/7Qfq8zp/DJ+0CtZpDKdtdso/dFotC8Cw=
-----END CERTIFICATE-----
