Certificate:
    Data:
        Version: 3 (0x2)
        Serial Number: 2755 (0xac3)
    Signature Algorithm: md5WithRSAEncryption
        Issuer: C=US, ST=OH, L=Columbus, O=VikingVPN, OU=MyOrganizationalUnit, CN=VikingVPN CA/name=EasyRSA/emailAddress=me@myhost.mydomain
        Validity
            Not Before: Sep  3 09:27:27 2014 GMT
            Not After : Aug 31 09:27:27 2024 GMT
        Subject: CN=Client959Certef013a
        Subject Public Key Info:
            Public Key Algorithm: rsaEncryption
                Public-Key: (4096 bit)
                Modulus:
                    00:dd:69:58:eb:be:d0:4a:da:63:05:20:9f:9b:69:
                    e8:e0:b2:a8:40:ae:f7:00:58:95:76:36:b7:92:4a:
                    9a:e1:57:d3:b5:41:33:b8:16:ad:ac:f1:40:eb:20:
                    82:44:82:19:fd:0f:65:d9:ab:a1:7b:8a:85:ad:89:
                    7b:8e:21:ec:7c:b4:a7:8c:d3:3f:f3:f7:34:8a:20:
                    df:51:11:62:1a:54:87:ae:c0:f2:53:e5:61:61:8d:
                    ff:40:73:ef:55:fe:46:4c:e8:df:18:a0:70:ad:9d:
                    3d:a6:24:3a:66:26:91:87:9e:ba:e6:99:3a:3e:02:
                    a8:4b:1a:72:0d:be:5f:e7:a8:6f:86:e3:f7:7a:d0:
                    86:4d:52:a2:3c:88:69:ba:b6:0b:32:9c:f3:b9:b4:
                    aa:aa:7c:83:a7:01:49:30:57:72:db:96:3f:cf:b9:
                    df:76:8b:66:29:60:13:82:4d:6f:63:05:5e:41:0a:
                    76:c0:b7:db:7a:f0:71:44:dd:d1:27:46:dd:0f:be:
                    fd:95:87:b0:39:97:89:b6:f9:84:92:9c:c8:42:45:
                    ee:e4:d7:93:d0:30:2f:23:ca:1e:e4:db:e6:22:6d:
                    33:5a:c0:cd:ff:03:3c:90:27:2a:ad:97:39:95:a6:
                    7f:16:7d:57:0f:ce:db:68:2f:84:e0:b4:d2:2a:f9:
                    b4:a1:d8:5f:67:12:42:9c:6a:2b:2d:f9:ec:38:16:
                    8a:e4:04:35:e0:fa:76:0e:46:6d:58:e7:93:b5:a0:
                    1b:67:fd:ee:9a:5a:bf:54:07:b1:1f:2e:eb:db:21:
                    83:80:c2:aa:05:fd:2d:c5:50:f6:45:aa:64:3d:60:
                    c7:2b:b6:e4:da:67:a2:a3:87:08:9d:22:41:2b:25:
                    a1:8a:04:54:40:ed:39:2b:2a:d3:c4:96:32:e5:2e:
                    4c:47:2f:93:b1:ca:fb:e9:70:cc:56:5a:7e:d3:38:
                    08:c9:c5:65:a8:74:99:30:4f:11:4d:32:34:a6:78:
                    5c:b4:eb:e0:c6:7a:a2:3a:f1:62:ed:08:00:7c:93:
                    4f:77:19:38:88:be:f0:90:b0:84:87:fe:71:a6:63:
                    34:49:2d:36:ac:eb:3b:3d:57:00:f0:7e:96:50:1d:
                    4a:8f:c4:d7:97:37:92:b2:28:b6:31:31:e9:ac:19:
                    ea:c9:d1:bf:87:2e:69:e3:1c:71:7f:ca:65:88:64:
                    5c:51:40:cc:f7:5c:a1:2a:64:76:2c:55:17:c7:2d:
                    a1:4c:45:38:70:11:d0:3a:e2:31:80:4b:93:c2:37:
                    bc:35:cd:1f:99:87:23:f6:02:d1:21:fd:9c:a2:c6:
                    6e:31:cb:f9:3b:06:2e:37:10:6b:f6:2f:d7:cb:ca:
                    cf:a6:59
                Exponent: 65537 (0x10001)
        X509v3 extensions:
            X509v3 Basic Constraints: 
                CA:FALSE
            Netscape Comment: 
                Easy-RSA Generated Certificate
            X509v3 Subject Key Identifier: 
                2B:82:FD:FC:23:83:93:AE:5F:A7:77:65:6F:AA:3D:96:47:87:F4:F7
            X509v3 Authority Key Identifier: 
                keyid:12:CD:60:04:D2:A0:80:9E:70:ED:C6:99:B8:7B:2C:C6:52:FD:19:A1
                DirName:/C=US/ST=OH/L=Columbus/O=VikingVPN/OU=MyOrganizationalUnit/CN=VikingVPN CA/name=EasyRSA/emailAddress=me@myhost.mydomain
                serial:CF:35:85:EE:80:BF:2A:3E

            X509v3 Extended Key Usage: 
                TLS Web Client Authentication
            X509v3 Key Usage: 
                Digital Signature
    Signature Algorithm: md5WithRSAEncryption
         0a:d5:ac:b9:fc:74:35:d1:6c:9c:52:a5:dc:a9:f9:f3:9a:47:
         90:c8:63:9c:fd:43:a3:a3:e7:39:e3:09:db:6f:cc:a8:ee:3a:
         28:f1:2a:a6:9a:b6:08:5e:23:e1:75:5f:5b:ea:68:1f:24:50:
         3e:6d:aa:a3:fd:c3:82:aa:37:84:65:4f:23:49:9c:f8:be:55:
         f3:21:4b:52:d4:8c:e1:f6:13:92:0f:18:e7:4d:5c:65:27:25:
         19:16:1d:5a:34:42:a8:f6:c6:20:ff:87:6e:47:23:ce:e6:7c:
         20:c6:39:90:e8:71:af:02:33:52:b3:3f:fc:32:d7:63:c3:31:
         4a:8d:75:5b:1e:d2:d9:57:33:c3:90:b1:9f:90:9e:80:2e:61:
         c4:48:f4:63:38:bc:ae:38:16:77:53:bd:cb:56:a0:0b:ab:55:
         ee:59:15:33:1d:cb:e4:20:ee:ad:7f:35:6d:7c:51:c4:f7:30:
         c5:a5:07:fb:c6:07:0c:e0:bc:ac:88:ba:14:a9:cb:34:5f:f4:
         12:f3:c0:44:12:84:f7:7c:97:b9:8c:c5:c9:de:a4:76:48:c8:
         93:17:ee:8e:a3:a6:15:20:d6:83:e5:c9:a2:d9:0c:83:e6:b3:
         8e:ee:99:96:1a:8f:2d:ed:2f:d6:fc:ce:9e:f2:9a:98:96:f4:
         df:bf:ac:b1:54:6b:bd:6b:5e:ad:1c:91:ef:d5:64:4b:f1:cf:
         a0:d7:45:a2:88:d8:7d:e0:b3:36:e2:00:4e:fc:eb:e3:28:0e:
         bd:9d:86:9d:50:60:02:71:f9:35:41:ac:cb:a6:35:5f:f8:1c:
         71:07:38:07:3c:82:cc:c3:8d:8e:8e:a1:1e:d8:1b:f1:df:b0:
         e3:45:5d:ae:dd:0f:87:11:42:ad:45:96:a1:a3:48:a9:f4:8f:
         83:1a:5c:60:a9:63:87:94:d4:a8:61:f0:fe:3e:46:62:98:15:
         eb:10:12:ba:91:76:13:03:9c:96:06:9f:b4:73:6b:52:14:42:
         89:9e:d1:27:7d:a9:46:69:3d:ac:15:0b:b0:2c:06:b3:93:bd:
         4e:84:11:f2:0f:7d:8a:f5:fa:bc:ca:f9:c8:0b:84:dc:ac:8c:
         6f:a1:b2:b9:32:ba:91:d9:cf:04:b0:97:c5:83:0f:93:fe:ca:
         9c:5f:cb:bc:f1:fd:59:b2:7c:9a:6d:0a:c4:14:66:f1:cb:92:
         0b:35:f4:47:c0:d5:30:0b:24:c0:eb:26:51:12:59:82:dc:5f:
         a6:21:48:21:cc:6c:c4:bc:bd:ce:c9:1a:26:6f:a3:89:fa:68:
         08:29:2b:ec:fe:11:3c:9b:1c:ac:dc:cf:98:1c:6e:9e:d6:f7:
         5d:81:b5:1b:20:da:0d:74
-----BEGIN CERTIFICATE-----
MIIGrDCCBJSgAwIBAgICCsMwDQYJKoZIhvcNAQEEBQAwgawxCzAJBgNVBAYTAlVT
MQswCQYDVQQIEwJPSDERMA8GA1UEBxMIQ29sdW1idXMxEjAQBgNVBAoTCVZpa2lu
Z1ZQTjEdMBsGA1UECxMUTXlPcmdhbml6YXRpb25hbFVuaXQxFTATBgNVBAMTDFZp
a2luZ1ZQTiBDQTEQMA4GA1UEKRMHRWFzeVJTQTEhMB8GCSqGSIb3DQEJARYSbWVA
bXlob3N0Lm15ZG9tYWluMB4XDTE0MDkwMzA5MjcyN1oXDTI0MDgzMTA5MjcyN1ow
HjEcMBoGA1UEAxMTQ2xpZW50OTU5Q2VydGVmMDEzYTCCAiIwDQYJKoZIhvcNAQEB
BQADggIPADCCAgoCggIBAN1pWOu+0EraYwUgn5tp6OCyqECu9wBYlXY2t5JKmuFX
07VBM7gWrazxQOsggkSCGf0PZdmroXuKha2Je44h7Hy0p4zTP/P3NIog31ERYhpU
h67A8lPlYWGN/0Bz71X+Rkzo3xigcK2dPaYkOmYmkYeeuuaZOj4CqEsacg2+X+eo
b4bj93rQhk1SojyIabq2CzKc87m0qqp8g6cBSTBXctuWP8+533aLZilgE4JNb2MF
XkEKdsC323rwcUTd0SdG3Q++/ZWHsDmXibb5hJKcyEJF7uTXk9AwLyPKHuTb5iJt
M1rAzf8DPJAnKq2XOZWmfxZ9Vw/O22gvhOC00ir5tKHYX2cSQpxqKy357DgWiuQE
NeD6dg5GbVjnk7WgG2f97ppav1QHsR8u69shg4DCqgX9LcVQ9kWqZD1gxyu25Npn
oqOHCJ0iQSsloYoEVEDtOSsq08SWMuUuTEcvk7HK++lwzFZaftM4CMnFZah0mTBP
EU0yNKZ4XLTr4MZ6ojrxYu0IAHyTT3cZOIi+8JCwhIf+caZjNEktNqzrOz1XAPB+
llAdSo/E15c3krIotjEx6awZ6snRv4cuaeMccX/KZYhkXFFAzPdcoSpkdixVF8ct
oUxFOHAR0DriMYBLk8I3vDXNH5mHI/YC0SH9nKLGbjHL+TsGLjcQa/Yv18vKz6ZZ
AgMBAAGjggFjMIIBXzAJBgNVHRMEAjAAMC0GCWCGSAGG+EIBDQQgFh5FYXN5LVJT
QSBHZW5lcmF0ZWQgQ2VydGlmaWNhdGUwHQYDVR0OBBYEFCuC/fwjg5OuX6d3ZW+q
PZZHh/T3MIHhBgNVHSMEgdkwgdaAFBLNYATSoICecO3Gmbh7LMZS/RmhoYGypIGv
MIGsMQswCQYDVQQGEwJVUzELMAkGA1UECBMCT0gxETAPBgNVBAcTCENvbHVtYnVz
MRIwEAYDVQQKEwlWaWtpbmdWUE4xHTAbBgNVBAsTFE15T3JnYW5pemF0aW9uYWxV
bml0MRUwEwYDVQQDEwxWaWtpbmdWUE4gQ0ExEDAOBgNVBCkTB0Vhc3lSU0ExITAf
BgkqhkiG9w0BCQEWEm1lQG15aG9zdC5teWRvbWFpboIJAM81he6Avyo+MBMGA1Ud
JQQMMAoGCCsGAQUFBwMCMAsGA1UdDwQEAwIHgDANBgkqhkiG9w0BAQQFAAOCAgEA
CtWsufx0NdFsnFKl3Kn585pHkMhjnP1Do6PnOeMJ22/MqO46KPEqppq2CF4j4XVf
W+poHyRQPm2qo/3Dgqo3hGVPI0mc+L5V8yFLUtSM4fYTkg8Y501cZSclGRYdWjRC
qPbGIP+HbkcjzuZ8IMY5kOhxrwIzUrM//DLXY8MxSo11Wx7S2Vczw5Cxn5CegC5h
xEj0Yzi8rjgWd1O9y1agC6tV7lkVMx3L5CDurX81bXxRxPcwxaUH+8YHDOC8rIi6
FKnLNF/0EvPARBKE93yXuYzFyd6kdkjIkxfujqOmFSDWg+XJotkMg+azju6ZlhqP
Le0v1vzOnvKamJb037+ssVRrvWterRyR79VkS/HPoNdFoojYfeCzNuIATvzr4ygO
vZ2GnVBgAnH5NUGsy6Y1X/gccQc4BzyCzMONjo6hHtgb8d+w40Vdrt0PhxFCrUWW
oaNIqfSPgxpcYKljh5TUqGHw/j5GYpgV6xASupF2EwOclgaftHNrUhRCiZ7RJ32p
Rmk9rBULsCwGs5O9ToQR8g99ivX6vMr5yAuE3KyMb6GyuTK6kdnPBLCXxYMPk/7K
nF/LvPH9WbJ8mm0KxBRm8cuSCzX0R8DVMAskwOsmURJZgtxfpiFIIcxsxLy9zska
Jm+jifpoCCkr7P4RPJscrNzPmBxuntb3XYG1GyDaDXQ=
-----END CERTIFICATE-----
