Certificate:
    Data:
        Version: 3 (0x2)
        Serial Number: 2701 (0xa8d)
    Signature Algorithm: md5WithRSAEncryption
        Issuer: C=US, ST=OH, L=Columbus, O=VikingVPN, OU=MyOrganizationalUnit, CN=VikingVPN CA/name=EasyRSA/emailAddress=me@myhost.mydomain
        Validity
            Not Before: Aug 28 05:58:17 2014 GMT
            Not After : Aug 25 05:58:17 2024 GMT
        Subject: CN=Client938Certb31085
        Subject Public Key Info:
            Public Key Algorithm: rsaEncryption
                Public-Key: (4096 bit)
                Modulus:
                    00:9b:28:90:39:bc:8c:20:cc:69:9c:12:db:23:8b:
                    ad:21:f8:74:7e:e7:89:19:cb:32:86:63:98:d2:2c:
                    e7:a9:ab:0e:fd:2e:79:94:86:18:50:f7:c2:1c:d3:
                    71:8d:ad:ef:dd:58:f6:de:cf:b0:eb:3f:24:48:5f:
                    b6:38:24:5d:d6:dd:f7:67:a6:60:35:b5:23:bf:50:
                    07:b0:a4:b6:fd:42:28:55:c9:7d:b2:70:5f:38:62:
                    bb:dd:a4:c1:0c:61:c1:7e:8c:d6:9b:02:02:58:c6:
                    87:44:04:66:59:ca:e2:06:77:6f:40:f3:1d:de:75:
                    b6:69:df:08:1b:8d:76:6d:a3:b3:82:1e:6d:80:45:
                    ff:f7:be:43:5b:12:f0:5e:41:31:d9:f6:59:70:b5:
                    2e:e2:e6:66:8b:a7:de:16:82:ae:ad:55:c4:e0:bf:
                    49:f4:cf:bf:7f:3a:43:00:76:9d:f6:87:b4:fc:f8:
                    81:38:ff:3b:25:f9:14:89:41:e8:27:22:69:8b:05:
                    c0:47:7b:4f:5e:54:f4:13:9a:65:ff:cd:8e:73:87:
                    c9:df:75:13:17:a1:e0:d2:0b:8c:99:35:21:80:b0:
                    1e:8f:e7:e8:9f:15:f1:10:01:c3:93:5d:d2:37:af:
                    f9:75:22:2c:a3:bc:c7:73:21:95:00:95:d3:dd:ca:
                    70:3a:ab:ce:3c:45:79:90:a7:c2:d2:cf:99:7c:50:
                    4f:e9:87:63:7b:04:9a:69:53:d4:da:a1:2d:fb:72:
                    75:b7:e8:6e:04:71:85:5a:8b:5c:1e:b3:e1:dc:8f:
                    d0:ee:e9:b1:10:b2:46:b1:16:34:6a:e1:95:74:6f:
                    c5:5a:e1:5a:8f:46:ea:c6:30:3b:aa:4a:1a:06:04:
                    83:f3:b1:eb:f6:3e:85:c5:10:8d:bc:88:f0:96:db:
                    3b:2c:b4:b7:e5:12:99:17:4e:84:11:fc:9e:b3:0d:
                    f8:df:b5:80:3e:e3:2c:9e:62:85:91:4b:47:a8:5c:
                    fe:79:21:41:0d:c5:28:96:ae:ba:16:f1:a9:32:f1:
                    df:1e:b4:11:d6:66:c4:ac:3c:21:70:c4:87:08:ed:
                    03:ae:2f:58:90:2a:ea:54:f1:a9:ef:f6:c5:7d:56:
                    5c:ad:77:38:a6:e3:46:0b:50:a9:5d:5e:f1:b3:5b:
                    dc:88:4a:7e:32:21:02:04:77:2d:46:62:4e:32:61:
                    92:8d:a1:8e:40:9a:3b:98:e0:fa:71:6d:87:50:39:
                    bf:54:cb:da:9e:15:b5:42:8b:b9:ec:12:af:5c:ec:
                    2e:2c:6e:ac:f4:6b:65:64:02:a3:6e:c6:72:28:6a:
                    c8:1e:c2:32:f7:21:fd:58:85:f1:ad:21:86:97:4b:
                    7e:13:dd
                Exponent: 65537 (0x10001)
        X509v3 extensions:
            X509v3 Basic Constraints: 
                CA:FALSE
            Netscape Comment: 
                Easy-RSA Generated Certificate
            X509v3 Subject Key Identifier: 
                A8:7D:18:56:B1:B4:70:3E:7E:45:7D:E5:94:82:B7:2C:48:5D:04:B7
            X509v3 Authority Key Identifier: 
                keyid:12:CD:60:04:D2:A0:80:9E:70:ED:C6:99:B8:7B:2C:C6:52:FD:19:A1
                DirName:/C=US/ST=OH/L=Columbus/O=VikingVPN/OU=MyOrganizationalUnit/CN=VikingVPN CA/name=EasyRSA/emailAddress=me@myhost.mydomain
                serial:CF:35:85:EE:80:BF:2A:3E

            X509v3 Extended Key Usage: 
                TLS Web Client Authentication
            X509v3 Key Usage: 
                Digital Signature
    Signature Algorithm: md5WithRSAEncryption
         72:6f:67:18:2a:b4:1f:3d:32:b6:8c:3d:20:6d:80:dc:2d:38:
         92:4d:da:2f:17:43:b8:cb:37:d6:6d:94:d9:a4:c2:37:8b:7f:
         69:cb:11:e9:13:70:06:ce:e0:4b:51:78:0b:e0:48:68:fb:5a:
         20:2b:9f:e4:c4:fc:e2:8e:02:77:e3:b0:de:cb:12:de:f7:14:
         eb:ea:f3:86:7d:39:44:6a:d7:c6:9b:73:a0:93:b4:a0:a1:88:
         25:59:af:5c:70:52:a6:99:6a:19:68:2a:71:35:e2:11:be:52:
         a0:e9:33:c1:0a:a6:5a:a2:26:5c:4f:8c:6d:ca:09:ad:ce:d8:
         bd:d3:83:d3:b7:2b:18:d0:0d:c6:31:cb:9c:4a:e3:a2:68:b7:
         c4:37:e9:4d:97:03:06:0c:46:0a:77:65:98:4c:dd:bc:98:7c:
         40:47:8e:b5:ff:52:d6:7b:d0:0f:f4:8f:b7:4b:1e:d9:c1:62:
         c4:05:fd:bf:47:82:65:b2:c2:6e:29:50:6f:fa:74:e5:af:8f:
         73:10:8f:6f:96:ae:d6:4a:e0:06:44:73:13:4d:50:d7:13:29:
         5e:b4:df:f5:49:6e:84:6c:67:46:ef:b9:6c:88:39:9b:3c:cb:
         63:e6:79:b7:8f:b6:c9:8f:7e:ea:8b:d5:eb:71:13:02:b3:f2:
         59:00:a0:e7:d3:04:39:58:94:f5:be:c8:1d:57:b4:aa:5d:86:
         59:3a:d9:b3:a2:86:68:92:f0:a2:4c:6d:f9:d3:f3:40:cd:96:
         52:e1:9b:66:a7:62:1a:72:f4:a5:7a:be:6d:27:0a:19:e0:98:
         e8:af:7a:fb:f9:15:2a:67:f1:8d:79:9b:a6:24:0b:e5:dd:36:
         54:d0:20:7d:5d:6a:dc:6b:c7:02:8a:e2:30:3d:40:f5:f8:db:
         37:80:5e:ef:f0:9d:29:7e:60:d2:5c:e5:60:6d:e1:87:36:2d:
         70:56:12:fb:0a:04:6d:c0:15:a4:b9:84:a3:9c:f1:5d:d6:bd:
         53:19:75:b7:fe:21:71:b3:b1:47:be:1f:65:c8:77:13:4f:7b:
         7a:39:d1:02:25:17:04:e1:ff:7c:0a:20:b0:5d:15:74:d0:26:
         15:17:2b:9c:bc:cd:25:78:ae:43:b9:a8:f7:26:8f:57:23:21:
         b5:23:18:66:58:ea:3b:73:c5:7d:3b:7d:47:85:83:67:e0:78:
         a3:16:fd:21:e5:60:13:8b:ea:e4:96:70:75:f2:b7:b6:a3:02:
         6a:92:3c:af:0b:75:86:11:dc:03:1e:bf:8e:45:15:02:cd:d3:
         5d:ab:c9:82:d5:f3:85:46:fc:9f:25:60:7e:15:c4:f5:d2:d1:
         72:c3:b3:31:06:42:b9:19
-----BEGIN CERTIFICATE-----
MIIGrDCCBJSgAwIBAgICCo0wDQYJKoZIhvcNAQEEBQAwgawxCzAJBgNVBAYTAlVT
MQswCQYDVQQIEwJPSDERMA8GA1UEBxMIQ29sdW1idXMxEjAQBgNVBAoTCVZpa2lu
Z1ZQTjEdMBsGA1UECxMUTXlPcmdhbml6YXRpb25hbFVuaXQxFTATBgNVBAMTDFZp
a2luZ1ZQTiBDQTEQMA4GA1UEKRMHRWFzeVJTQTEhMB8GCSqGSIb3DQEJARYSbWVA
bXlob3N0Lm15ZG9tYWluMB4XDTE0MDgyODA1NTgxN1oXDTI0MDgyNTA1NTgxN1ow
HjEcMBoGA1UEAxMTQ2xpZW50OTM4Q2VydGIzMTA4NTCCAiIwDQYJKoZIhvcNAQEB
BQADggIPADCCAgoCggIBAJsokDm8jCDMaZwS2yOLrSH4dH7niRnLMoZjmNIs56mr
Dv0ueZSGGFD3whzTcY2t791Y9t7PsOs/JEhftjgkXdbd92emYDW1I79QB7Cktv1C
KFXJfbJwXzhiu92kwQxhwX6M1psCAljGh0QEZlnK4gZ3b0DzHd51tmnfCBuNdm2j
s4IebYBF//e+Q1sS8F5BMdn2WXC1LuLmZoun3haCrq1VxOC/SfTPv386QwB2nfaH
tPz4gTj/OyX5FIlB6CciaYsFwEd7T15U9BOaZf/NjnOHyd91Exeh4NILjJk1IYCw
Ho/n6J8V8RABw5Nd0jev+XUiLKO8x3MhlQCV093KcDqrzjxFeZCnwtLPmXxQT+mH
Y3sEmmlT1NqhLftydbfobgRxhVqLXB6z4dyP0O7psRCyRrEWNGrhlXRvxVrhWo9G
6sYwO6pKGgYEg/Ox6/Y+hcUQjbyI8JbbOyy0t+USmRdOhBH8nrMN+N+1gD7jLJ5i
hZFLR6hc/nkhQQ3FKJauuhbxqTLx3x60EdZmxKw8IXDEhwjtA64vWJAq6lTxqe/2
xX1WXK13OKbjRgtQqV1e8bNb3IhKfjIhAgR3LUZiTjJhko2hjkCaO5jg+nFth1A5
v1TL2p4VtUKLuewSr1zsLixurPRrZWQCo27GcihqyB7CMvch/ViF8a0hhpdLfhPd
AgMBAAGjggFjMIIBXzAJBgNVHRMEAjAAMC0GCWCGSAGG+EIBDQQgFh5FYXN5LVJT
QSBHZW5lcmF0ZWQgQ2VydGlmaWNhdGUwHQYDVR0OBBYEFKh9GFaxtHA+fkV95ZSC
tyxIXQS3MIHhBgNVHSMEgdkwgdaAFBLNYATSoICecO3Gmbh7LMZS/RmhoYGypIGv
MIGsMQswCQYDVQQGEwJVUzELMAkGA1UECBMCT0gxETAPBgNVBAcTCENvbHVtYnVz
MRIwEAYDVQQKEwlWaWtpbmdWUE4xHTAbBgNVBAsTFE15T3JnYW5pemF0aW9uYWxV
bml0MRUwEwYDVQQDEwxWaWtpbmdWUE4gQ0ExEDAOBgNVBCkTB0Vhc3lSU0ExITAf
BgkqhkiG9w0BCQEWEm1lQG15aG9zdC5teWRvbWFpboIJAM81he6Avyo+MBMGA1Ud
JQQMMAoGCCsGAQUFBwMCMAsGA1UdDwQEAwIHgDANBgkqhkiG9w0BAQQFAAOCAgEA
cm9nGCq0Hz0ytow9IG2A3C04kk3aLxdDuMs31m2U2aTCN4t/acsR6RNwBs7gS1F4
C+BIaPtaICuf5MT84o4Cd+Ow3ssS3vcU6+rzhn05RGrXxptzoJO0oKGIJVmvXHBS
pplqGWgqcTXiEb5SoOkzwQqmWqImXE+MbcoJrc7YvdOD07crGNANxjHLnErjomi3
xDfpTZcDBgxGCndlmEzdvJh8QEeOtf9S1nvQD/SPt0se2cFixAX9v0eCZbLCbilQ
b/p05a+PcxCPb5au1krgBkRzE01Q1xMpXrTf9UluhGxnRu+5bIg5mzzLY+Z5t4+2
yY9+6ovV63ETArPyWQCg59MEOViU9b7IHVe0ql2GWTrZs6KGaJLwokxt+dPzQM2W
UuGbZqdiGnL0pXq+bScKGeCY6K96+/kVKmfxjXmbpiQL5d02VNAgfV1q3GvHAori
MD1A9fjbN4Be7/CdKX5g0lzlYG3hhzYtcFYS+woEbcAVpLmEo5zxXda9Uxl1t/4h
cbOxR74fZch3E097ejnRAiUXBOH/fAogsF0VdNAmFRcrnLzNJXiuQ7mo9yaPVyMh
tSMYZljqO3PFfTt9R4WDZ+B4oxb9IeVgE4vq5JZwdfK3tqMCapI8rwt1hhHcAx6/
jkUVAs3TXavJgtXzhUb8nyVgfhXE9dLRcsOzMQZCuRk=
-----END CERTIFICATE-----
