Certificate:
    Data:
        Version: 3 (0x2)
        Serial Number: 11884 (0x2e6c)
    Signature Algorithm: sha256WithRSAEncryption
        Issuer: C=US, ST=OH, L=Columbus, O=VikingVPN, OU=MyOrganizationalUnit, CN=VikingVPN CA/name=EasyRSA/emailAddress=me@myhost.mydomain
        Validity
            Not Before: Sep 26 00:13:13 2017 GMT
            Not After : Sep 24 00:13:13 2027 GMT
        Subject: CN=Client2893Cert0c2841
        Subject Public Key Info:
            Public Key Algorithm: rsaEncryption
                Public-Key: (4096 bit)
                Modulus:
                    00:bd:7b:02:60:54:3a:6c:8a:78:d5:5a:5a:60:9e:
                    40:99:64:db:d3:16:46:cc:87:7c:c2:54:27:a7:a1:
                    e8:51:9f:6a:c7:c8:b6:0f:26:b4:fc:da:e6:67:d9:
                    86:1d:4a:6b:4c:50:d2:27:0c:de:0c:6e:34:52:52:
                    41:91:d7:8f:b8:ff:94:2f:b2:0e:25:48:59:63:00:
                    c6:9f:64:c3:d9:05:bb:aa:50:64:71:c8:d5:3c:57:
                    0a:90:ff:f3:79:9a:dd:b8:f2:16:bd:ff:37:fa:65:
                    cc:fa:18:4d:54:c3:7e:51:bb:5a:f6:c8:c2:c2:bf:
                    4b:15:1e:d5:48:ec:f3:2f:52:4c:e3:23:4e:42:5d:
                    1c:7b:eb:12:3b:4e:4e:67:39:6b:ab:3e:66:0a:41:
                    b1:a5:cb:79:e1:90:f9:ea:ca:13:aa:58:ef:78:90:
                    4d:71:71:9c:a0:b3:68:75:c8:c3:8e:9b:92:03:78:
                    68:3a:38:bb:3c:6e:5a:34:71:6d:d7:dc:f6:3c:ba:
                    19:64:ab:a9:7e:8a:2a:7b:f3:04:c0:98:eb:36:74:
                    40:be:8d:d4:dc:b3:cf:94:4c:a7:9c:c6:13:da:14:
                    fe:e0:83:af:3a:bf:a7:2c:2d:1f:61:af:47:8f:43:
                    7b:be:92:72:62:9b:84:c5:07:0d:43:53:7d:01:58:
                    a1:51:1f:ef:fe:aa:ee:af:25:19:e2:fd:16:1f:57:
                    68:52:6c:3d:e6:8d:ba:04:35:84:66:eb:df:e2:34:
                    6d:d8:34:8c:6f:17:4a:94:ca:73:9c:f3:a0:4c:fb:
                    a3:c5:81:9b:04:42:9e:ff:dd:7c:61:31:cb:ef:e4:
                    6e:d7:e7:c4:f7:9d:a6:40:ff:e8:db:03:d0:72:3d:
                    13:f7:35:ce:9d:2e:9c:9a:53:67:14:3e:12:f8:d0:
                    a4:c0:e5:55:ed:63:e9:a1:ed:9d:b0:7f:da:e3:d6:
                    7b:f0:13:bc:ee:f1:c3:a6:11:7c:3d:74:de:fb:99:
                    0b:b5:86:6a:60:16:e9:c3:72:84:e6:7c:ae:53:b8:
                    0a:74:3c:7a:08:36:b6:71:db:eb:ce:b1:4e:9c:88:
                    05:2a:0d:91:e4:84:35:86:b2:6f:a4:4b:9d:bc:6e:
                    ad:6b:28:7c:a9:98:a5:90:e1:a5:58:cf:56:44:73:
                    b6:2f:d3:80:ba:7b:eb:13:86:d8:4e:be:ee:c6:d0:
                    9e:68:80:46:e5:20:bd:2c:bd:e0:e8:74:6b:18:4f:
                    6d:5b:f9:9c:7a:ba:b4:11:14:31:20:c5:5b:4a:a3:
                    fe:29:75:e6:06:e9:80:9a:15:eb:73:59:31:a1:9c:
                    42:b2:3f:a3:b4:0e:62:d6:c2:31:3c:30:da:0d:fa:
                    14:23:59
                Exponent: 65537 (0x10001)
        X509v3 extensions:
            X509v3 Basic Constraints: 
                CA:FALSE
            Netscape Comment: 
                Easy-RSA Generated Certificate
            X509v3 Subject Key Identifier: 
                76:1B:B7:3D:3E:E7:40:E2:A1:DF:4F:B5:9B:82:68:F5:75:89:C6:36
            X509v3 Authority Key Identifier: 
                keyid:12:CD:60:04:D2:A0:80:9E:70:ED:C6:99:B8:7B:2C:C6:52:FD:19:A1
                DirName:/C=US/ST=OH/L=Columbus/O=VikingVPN/OU=MyOrganizationalUnit/CN=VikingVPN CA/name=EasyRSA/emailAddress=me@myhost.mydomain
                serial:CF:35:85:EE:80:BF:2A:3E

            X509v3 Extended Key Usage: 
                TLS Web Client Authentication
            X509v3 Key Usage: 
                Digital Signature
    Signature Algorithm: sha256WithRSAEncryption
         05:bf:fe:a5:53:c7:f3:34:8e:fb:c0:cf:31:35:67:fc:97:e4:
         9d:3f:86:5b:b1:58:4d:78:6f:25:f7:13:1c:85:dd:cc:ef:d7:
         3b:46:29:83:bf:d8:f6:85:29:cc:22:f2:7d:b8:16:20:9a:c8:
         65:8a:f5:f7:74:ea:25:9e:b8:3e:f9:1e:10:37:8a:b2:63:3a:
         10:5c:89:e3:2d:90:97:d8:4d:32:7e:3a:2b:1e:d7:0d:69:69:
         f0:98:6f:97:2e:34:96:29:9a:5d:10:b8:8a:23:76:09:d7:71:
         8b:76:36:ca:a1:44:3f:f4:42:07:1c:df:d2:6b:1d:9e:9a:a8:
         80:35:09:03:f5:94:3a:f1:df:3f:5d:8d:fc:ba:0a:c1:29:70:
         a3:6d:f3:0e:19:20:31:9b:99:16:35:55:49:4d:70:cd:97:30:
         09:7b:cf:7d:90:57:cd:49:b5:95:4f:55:58:ad:3d:b7:a4:d3:
         7d:77:49:a4:d5:7e:f6:ba:14:a4:f3:6a:b3:f7:0d:56:c3:f5:
         4f:01:b5:8e:8d:fe:3d:7f:d2:fe:4a:2b:3b:51:39:e9:57:ce:
         3a:b7:d4:60:41:b0:c9:44:09:25:75:2a:16:42:4c:74:1f:d2:
         8b:08:c9:dc:00:f2:a5:92:b8:6e:60:f0:1c:c4:08:d6:ec:0d:
         09:66:94:3b:53:f1:4d:22:b3:54:04:f1:13:3b:30:9c:7d:e1:
         9f:15:3a:38:5c:2b:db:a6:e5:8f:c8:ca:88:28:65:09:f1:9a:
         c9:8c:3d:57:30:4b:c9:6d:d1:e0:0d:de:e8:98:fd:74:3f:05:
         8c:65:6d:17:ff:d8:a6:a3:6c:1e:76:fc:1a:d3:8a:78:94:9b:
         1e:17:29:25:7c:8e:46:81:e2:cb:c8:e1:d9:4b:c4:34:c4:2a:
         14:ea:96:d8:0d:8c:50:4e:3b:18:f8:7b:f6:22:98:05:23:a8:
         8a:98:32:2c:de:63:0e:15:6d:05:f5:27:99:43:23:53:b3:64:
         ec:a9:7d:57:25:82:0e:09:9f:1b:25:e5:e8:e4:fd:94:2c:01:
         67:39:1a:44:7b:d0:61:21:73:43:f6:24:dd:ac:91:04:0e:49:
         76:b5:4a:ea:7f:78:60:5f:e8:5b:1f:7f:f8:d8:d4:c8:d5:68:
         95:30:eb:89:25:92:93:f0:1a:49:1b:4f:a6:ad:0f:6c:3c:42:
         ae:28:6d:82:aa:80:b9:f4:3c:64:9b:73:a0:89:c6:5d:be:f3:
         44:e7:37:c6:63:22:18:33:34:65:da:19:d6:0f:ea:d2:af:42:
         40:63:1d:f2:dc:76:22:fe:2f:1e:98:3b:f6:b2:e7:8b:4a:4f:
         15:d7:7c:8b:7e:33:23:10
-----BEGIN CERTIFICATE-----
MIIGrTCCBJWgAwIBAgICLmwwDQYJKoZIhvcNAQELBQAwgawxCzAJBgNVBAYTAlVT
MQswCQYDVQQIEwJPSDERMA8GA1UEBxMIQ29sdW1idXMxEjAQBgNVBAoTCVZpa2lu
Z1ZQTjEdMBsGA1UECxMUTXlPcmdhbml6YXRpb25hbFVuaXQxFTATBgNVBAMTDFZp
a2luZ1ZQTiBDQTEQMA4GA1UEKRMHRWFzeVJTQTEhMB8GCSqGSIb3DQEJARYSbWVA
bXlob3N0Lm15ZG9tYWluMB4XDTE3MDkyNjAwMTMxM1oXDTI3MDkyNDAwMTMxM1ow
HzEdMBsGA1UEAxMUQ2xpZW50Mjg5M0NlcnQwYzI4NDEwggIiMA0GCSqGSIb3DQEB
AQUAA4ICDwAwggIKAoICAQC9ewJgVDpsinjVWlpgnkCZZNvTFkbMh3zCVCenoehR
n2rHyLYPJrT82uZn2YYdSmtMUNInDN4MbjRSUkGR14+4/5Qvsg4lSFljAMafZMPZ
BbuqUGRxyNU8VwqQ//N5mt248ha9/zf6Zcz6GE1Uw35Ru1r2yMLCv0sVHtVI7PMv
UkzjI05CXRx76xI7Tk5nOWurPmYKQbGly3nhkPnqyhOqWO94kE1xcZygs2h1yMOO
m5IDeGg6OLs8blo0cW3X3PY8uhlkq6l+iip78wTAmOs2dEC+jdTcs8+UTKecxhPa
FP7gg686v6csLR9hr0ePQ3u+knJim4TFBw1DU30BWKFRH+/+qu6vJRni/RYfV2hS
bD3mjboENYRm69/iNG3YNIxvF0qUynOc86BM+6PFgZsEQp7/3XxhMcvv5G7X58T3
naZA/+jbA9ByPRP3Nc6dLpyaU2cUPhL40KTA5VXtY+mh7Z2wf9rj1nvwE7zu8cOm
EXw9dN77mQu1hmpgFunDcoTmfK5TuAp0PHoINrZx2+vOsU6ciAUqDZHkhDWGsm+k
S528bq1rKHypmKWQ4aVYz1ZEc7Yv04C6e+sThthOvu7G0J5ogEblIL0sveDodGsY
T21b+Zx6urQRFDEgxVtKo/4pdeYG6YCaFetzWTGhnEKyP6O0DmLWwjE8MNoN+hQj
WQIDAQABo4IBYzCCAV8wCQYDVR0TBAIwADAtBglghkgBhvhCAQ0EIBYeRWFzeS1S
U0EgR2VuZXJhdGVkIENlcnRpZmljYXRlMB0GA1UdDgQWBBR2G7c9PudA4qHfT7Wb
gmj1dYnGNjCB4QYDVR0jBIHZMIHWgBQSzWAE0qCAnnDtxpm4eyzGUv0ZoaGBsqSB
rzCBrDELMAkGA1UEBhMCVVMxCzAJBgNVBAgTAk9IMREwDwYDVQQHEwhDb2x1bWJ1
czESMBAGA1UEChMJVmlraW5nVlBOMR0wGwYDVQQLExRNeU9yZ2FuaXphdGlvbmFs
VW5pdDEVMBMGA1UEAxMMVmlraW5nVlBOIENBMRAwDgYDVQQpEwdFYXN5UlNBMSEw
HwYJKoZIhvcNAQkBFhJtZUBteWhvc3QubXlkb21haW6CCQDPNYXugL8qPjATBgNV
HSUEDDAKBggrBgEFBQcDAjALBgNVHQ8EBAMCB4AwDQYJKoZIhvcNAQELBQADggIB
AAW//qVTx/M0jvvAzzE1Z/yX5J0/hluxWE14byX3ExyF3czv1ztGKYO/2PaFKcwi
8n24FiCayGWK9fd06iWeuD75HhA3irJjOhBcieMtkJfYTTJ+Oise1w1pafCYb5cu
NJYpml0QuIojdgnXcYt2NsqhRD/0Qgcc39JrHZ6aqIA1CQP1lDrx3z9djfy6CsEp
cKNt8w4ZIDGbmRY1VUlNcM2XMAl7z32QV81JtZVPVVitPbek0313SaTVfva6FKTz
arP3DVbD9U8BtY6N/j1/0v5KKztROelXzjq31GBBsMlECSV1KhZCTHQf0osIydwA
8qWSuG5g8BzECNbsDQlmlDtT8U0is1QE8RM7MJx94Z8VOjhcK9um5Y/IyogoZQnx
msmMPVcwS8lt0eAN3uiY/XQ/BYxlbRf/2KajbB52/BrTiniUmx4XKSV8jkaB4svI
4dlLxDTEKhTqltgNjFBOOxj4e/YimAUjqIqYMizeYw4VbQX1J5lDI1OzZOypfVcl
gg4Jnxsl5ejk/ZQsAWc5GkR70GEhc0P2JN2skQQOSXa1Sup/eGBf6Fsff/jY1MjV
aJUw64klkpPwGkkbT6atD2w8Qq4obYKqgLn0PGSbc6CJxl2+80TnN8ZjIhgzNGXa
GdYP6tKvQkBjHfLcdiL+Lx6YO/ay54tKTxXXfIt+MyMQ
-----END CERTIFICATE-----
