Certificate:
    Data:
        Version: 3 (0x2)
        Serial Number: 12806 (0x3206)
    Signature Algorithm: sha256WithRSAEncryption
        Issuer: C=US, ST=OH, L=Columbus, O=VikingVPN, OU=MyOrganizationalUnit, CN=VikingVPN CA/name=EasyRSA/emailAddress=me@myhost.mydomain
        Validity
            Not Before: Mar 27 22:49:13 2018 GMT
            Not After : Mar 24 22:49:13 2028 GMT
        Subject: CN=Client3263Cert374526
        Subject Public Key Info:
            Public Key Algorithm: rsaEncryption
                Public-Key: (4096 bit)
                Modulus:
                    00:c3:dc:ee:a8:2f:94:1b:bc:74:a6:2a:86:4a:8d:
                    42:c4:68:93:74:f3:46:21:39:65:a8:cb:30:16:10:
                    73:a7:b6:6a:79:b6:34:e5:12:51:4b:6e:18:a4:20:
                    10:0b:89:bc:69:1b:2f:9d:98:32:99:2d:a8:10:71:
                    30:5a:2d:48:ea:cb:dd:dc:f5:30:5e:d3:16:2e:3e:
                    94:a9:e7:da:95:44:14:be:9b:0f:e0:c5:26:ab:8d:
                    86:c6:21:f3:5d:a4:b9:27:c2:38:1d:e4:6f:a4:8e:
                    92:06:9c:2c:17:14:44:5e:17:16:40:54:1c:67:eb:
                    00:4f:91:3c:81:22:1e:73:91:3f:00:48:42:96:e6:
                    ca:be:3e:7f:e0:87:19:90:c3:c3:ee:f9:1d:e0:be:
                    d6:9f:14:cc:36:e7:98:8c:ab:96:79:89:80:98:6f:
                    81:e4:a7:40:5d:5f:1c:93:25:34:9c:3e:51:37:c9:
                    25:26:d8:aa:99:8d:2d:ec:19:02:9a:07:34:13:fe:
                    03:8d:dd:de:94:dd:bd:3c:e9:58:1d:4f:39:cf:ea:
                    fb:2a:f2:b5:89:75:ac:51:ee:59:ce:b4:5b:98:41:
                    13:89:79:fe:08:68:ed:1a:12:bf:f1:57:5e:a4:79:
                    eb:26:c7:46:da:ba:f4:80:18:1b:ed:5c:78:b6:37:
                    9c:bc:d1:e5:49:bd:5b:0f:64:31:42:d9:d7:8c:19:
                    96:3b:61:3f:eb:9f:a4:34:c0:ae:c5:a5:e1:98:e1:
                    2b:bf:87:e2:0d:ab:5a:86:0d:72:1b:b7:3d:ff:96:
                    b0:ab:b4:91:ec:a3:f8:da:ce:e8:47:15:7c:0c:b4:
                    c4:5f:14:cd:92:a4:da:44:18:33:17:c9:7c:5b:6d:
                    26:d0:70:e1:1e:fa:9c:24:e5:df:6c:43:41:8c:67:
                    c4:a9:cb:14:ec:14:1d:58:4a:83:7d:34:eb:d6:19:
                    45:77:f1:96:cf:f6:4e:46:88:08:fb:06:63:e7:b6:
                    73:c9:0a:36:8a:38:59:63:86:45:2c:67:88:28:d3:
                    9f:4c:4e:2e:c6:3a:7a:04:c1:96:e5:b3:36:b0:5d:
                    4c:34:76:af:d6:bb:fe:f8:2c:a8:d3:ec:46:60:f2:
                    b0:f0:b9:98:b5:7e:7b:51:06:55:f4:a9:60:da:58:
                    fd:d5:47:ad:c3:3c:e6:11:82:34:29:e5:05:48:7d:
                    2b:45:0b:fd:74:dc:d3:68:74:3b:81:f5:67:20:25:
                    06:e5:da:bf:24:f2:97:ab:13:da:a4:fb:a4:f1:dd:
                    01:3e:d4:ec:36:64:30:d5:1f:3d:0a:9d:98:80:f1:
                    d3:5e:d1:0a:75:c8:ed:ad:a7:14:04:8c:63:2a:77:
                    06:9c:33
                Exponent: 65537 (0x10001)
        X509v3 extensions:
            X509v3 Basic Constraints: 
                CA:FALSE
            Netscape Comment: 
                Easy-RSA Generated Certificate
            X509v3 Subject Key Identifier: 
                66:35:71:30:A9:A5:F6:36:BF:E5:86:75:EE:DA:58:6A:6A:52:73:E8
            X509v3 Authority Key Identifier: 
                keyid:12:CD:60:04:D2:A0:80:9E:70:ED:C6:99:B8:7B:2C:C6:52:FD:19:A1
                DirName:/C=US/ST=OH/L=Columbus/O=VikingVPN/OU=MyOrganizationalUnit/CN=VikingVPN CA/name=EasyRSA/emailAddress=me@myhost.mydomain
                serial:CF:35:85:EE:80:BF:2A:3E

            X509v3 Extended Key Usage: 
                TLS Web Client Authentication
            X509v3 Key Usage: 
                Digital Signature
    Signature Algorithm: sha256WithRSAEncryption
         5d:20:9f:be:5d:41:ac:2e:aa:d8:5e:e7:0f:c9:e3:cb:e4:90:
         6d:fe:a7:75:97:d7:55:05:ca:22:eb:c2:79:1a:c5:36:9e:ab:
         c8:6d:90:b7:24:93:b5:e2:94:fe:10:f9:e4:3a:21:69:d5:3d:
         13:a4:c9:5b:08:8b:e5:47:3f:ee:da:b1:ea:d7:ab:20:97:1e:
         80:7c:ec:db:ca:83:7f:21:f1:de:e5:62:21:c3:8e:ad:6d:82:
         e2:40:d9:8d:91:b0:d1:5f:6e:91:aa:c4:9d:2e:0d:5f:a6:43:
         69:f1:d2:65:8b:f8:a2:5b:00:fa:18:c2:24:ca:d7:35:27:08:
         53:d7:b8:22:da:41:25:9f:cf:1f:85:4a:84:36:9a:39:9f:26:
         64:79:a6:c8:82:c0:f1:f7:73:13:0e:01:61:4d:31:90:1f:10:
         da:e9:e9:16:8c:e4:24:60:b5:14:c1:bb:7b:9d:0c:b9:e6:56:
         8a:14:47:d8:c2:b2:f6:9c:98:a0:df:4a:e5:74:dd:4a:ad:3f:
         03:e6:18:ab:0f:0a:95:5c:a5:80:b6:e0:77:50:a4:41:25:7e:
         58:ad:1c:0b:cc:d1:c5:5f:67:a7:32:7b:14:3a:53:48:5d:16:
         52:0d:1d:4d:ad:14:af:33:5b:e7:19:14:00:7c:2b:4e:4f:62:
         09:a4:65:a1:ea:78:50:6f:e9:af:78:3f:b6:c4:41:f5:d0:43:
         34:b4:59:87:3b:ca:d1:f8:22:16:7c:f3:6e:3a:08:9a:6c:58:
         a7:92:ba:ac:41:0b:86:1b:2f:d3:ca:4d:88:0c:1d:e3:30:a1:
         e2:8f:0e:a8:cc:34:34:ee:42:e5:92:42:72:ff:33:22:39:74:
         6b:21:5b:1f:75:ba:5b:00:26:ec:b7:c5:15:53:de:68:49:3c:
         9b:fa:e8:6a:8e:f7:d6:84:b0:2f:86:f8:b2:03:0c:a2:75:29:
         24:ad:1d:28:59:89:69:2f:52:ae:f1:07:21:65:61:67:74:fc:
         5e:2e:61:bc:ee:b9:8d:30:0d:75:05:b9:0d:c3:ea:86:4b:32:
         25:a8:c6:d1:d5:59:fe:c7:ed:4b:ae:e9:f4:f7:5c:10:c6:16:
         58:4a:62:ff:c3:d1:4a:35:cb:44:5b:22:63:4a:3e:37:b4:af:
         a2:de:4e:dc:76:a8:2d:58:ba:32:54:e9:85:95:f6:68:6d:f5:
         ec:28:29:b1:96:74:4b:ab:73:ae:03:c2:b1:0f:a0:9d:2a:74:
         e0:d6:67:da:ee:21:e8:54:68:de:ab:f8:f6:e6:90:95:43:e5:
         c0:02:80:35:8a:fc:ff:b3:39:80:af:93:7b:e7:b0:62:4f:86:
         f5:6b:a9:bb:2b:56:33:a2
-----BEGIN CERTIFICATE-----
MIIGrTCCBJWgAwIBAgICMgYwDQYJKoZIhvcNAQELBQAwgawxCzAJBgNVBAYTAlVT
MQswCQYDVQQIEwJPSDERMA8GA1UEBxMIQ29sdW1idXMxEjAQBgNVBAoTCVZpa2lu
Z1ZQTjEdMBsGA1UECxMUTXlPcmdhbml6YXRpb25hbFVuaXQxFTATBgNVBAMTDFZp
a2luZ1ZQTiBDQTEQMA4GA1UEKRMHRWFzeVJTQTEhMB8GCSqGSIb3DQEJARYSbWVA
bXlob3N0Lm15ZG9tYWluMB4XDTE4MDMyNzIyNDkxM1oXDTI4MDMyNDIyNDkxM1ow
HzEdMBsGA1UEAxMUQ2xpZW50MzI2M0NlcnQzNzQ1MjYwggIiMA0GCSqGSIb3DQEB
AQUAA4ICDwAwggIKAoICAQDD3O6oL5QbvHSmKoZKjULEaJN080YhOWWoyzAWEHOn
tmp5tjTlElFLbhikIBALibxpGy+dmDKZLagQcTBaLUjqy93c9TBe0xYuPpSp59qV
RBS+mw/gxSarjYbGIfNdpLknwjgd5G+kjpIGnCwXFEReFxZAVBxn6wBPkTyBIh5z
kT8ASEKW5sq+Pn/ghxmQw8Pu+R3gvtafFMw255iMq5Z5iYCYb4Hkp0BdXxyTJTSc
PlE3ySUm2KqZjS3sGQKaBzQT/gON3d6U3b086VgdTznP6vsq8rWJdaxR7lnOtFuY
QROJef4IaO0aEr/xV16keesmx0bauvSAGBvtXHi2N5y80eVJvVsPZDFC2deMGZY7
YT/rn6Q0wK7FpeGY4Su/h+INq1qGDXIbtz3/lrCrtJHso/jazuhHFXwMtMRfFM2S
pNpEGDMXyXxbbSbQcOEe+pwk5d9sQ0GMZ8SpyxTsFB1YSoN9NOvWGUV38ZbP9k5G
iAj7BmPntnPJCjaKOFljhkUsZ4go059MTi7GOnoEwZblszawXUw0dq/Wu/74LKjT
7EZg8rDwuZi1fntRBlX0qWDaWP3VR63DPOYRgjQp5QVIfStFC/103NNodDuB9Wcg
JQbl2r8k8perE9qk+6Tx3QE+1Ow2ZDDVHz0KnZiA8dNe0Qp1yO2tpxQEjGMqdwac
MwIDAQABo4IBYzCCAV8wCQYDVR0TBAIwADAtBglghkgBhvhCAQ0EIBYeRWFzeS1S
U0EgR2VuZXJhdGVkIENlcnRpZmljYXRlMB0GA1UdDgQWBBRmNXEwqaX2Nr/lhnXu
2lhqalJz6DCB4QYDVR0jBIHZMIHWgBQSzWAE0qCAnnDtxpm4eyzGUv0ZoaGBsqSB
rzCBrDELMAkGA1UEBhMCVVMxCzAJBgNVBAgTAk9IMREwDwYDVQQHEwhDb2x1bWJ1
czESMBAGA1UEChMJVmlraW5nVlBOMR0wGwYDVQQLExRNeU9yZ2FuaXphdGlvbmFs
VW5pdDEVMBMGA1UEAxMMVmlraW5nVlBOIENBMRAwDgYDVQQpEwdFYXN5UlNBMSEw
HwYJKoZIhvcNAQkBFhJtZUBteWhvc3QubXlkb21haW6CCQDPNYXugL8qPjATBgNV
HSUEDDAKBggrBgEFBQcDAjALBgNVHQ8EBAMCB4AwDQYJKoZIhvcNAQELBQADggIB
AF0gn75dQawuqthe5w/J48vkkG3+p3WX11UFyiLrwnkaxTaeq8htkLckk7XilP4Q
+eQ6IWnVPROkyVsIi+VHP+7aserXqyCXHoB87NvKg38h8d7lYiHDjq1tguJA2Y2R
sNFfbpGqxJ0uDV+mQ2nx0mWL+KJbAPoYwiTK1zUnCFPXuCLaQSWfzx+FSoQ2mjmf
JmR5psiCwPH3cxMOAWFNMZAfENrp6RaM5CRgtRTBu3udDLnmVooUR9jCsvacmKDf
SuV03UqtPwPmGKsPCpVcpYC24HdQpEElflitHAvM0cVfZ6cyexQ6U0hdFlINHU2t
FK8zW+cZFAB8K05PYgmkZaHqeFBv6a94P7bEQfXQQzS0WYc7ytH4IhZ88246CJps
WKeSuqxBC4YbL9PKTYgMHeMwoeKPDqjMNDTuQuWSQnL/MyI5dGshWx91ulsAJuy3
xRVT3mhJPJv66GqO99aEsC+G+LIDDKJ1KSStHShZiWkvUq7xByFlYWd0/F4uYbzu
uY0wDXUFuQ3D6oZLMiWoxtHVWf7H7Uuu6fT3XBDGFlhKYv/D0Uo1y0RbImNKPje0
r6LeTtx2qC1YujJU6YWV9mht9ewoKbGWdEurc64DwrEPoJ0qdODWZ9ruIehUaN6r
+PbmkJVD5cACgDWK/P+zOYCvk3vnsGJPhvVrqbsrVjOi
-----END CERTIFICATE-----
