Certificate:
    Data:
        Version: 3 (0x2)
        Serial Number: 11737 (0x2dd9)
    Signature Algorithm: sha256WithRSAEncryption
        Issuer: C=US, ST=OH, L=Columbus, O=VikingVPN, OU=MyOrganizationalUnit, CN=VikingVPN CA/name=EasyRSA/emailAddress=me@myhost.mydomain
        Validity
            Not Before: Aug 30 19:12:23 2017 GMT
            Not After : Aug 28 19:12:23 2027 GMT
        Subject: CN=Client2600Cert26ab75
        Subject Public Key Info:
            Public Key Algorithm: rsaEncryption
                Public-Key: (4096 bit)
                Modulus:
                    00:d8:f2:ea:5d:76:bb:d6:5e:53:74:e8:ea:a8:f9:
                    74:60:66:c3:f3:c2:f2:a8:89:f5:76:1f:1e:69:25:
                    1f:cb:1f:c9:3b:7a:e3:fe:76:b7:8f:fb:4b:0a:6f:
                    86:8c:9c:72:78:50:79:63:d3:db:99:57:fa:75:16:
                    2f:91:bf:f2:d5:8f:04:26:c7:d0:85:ed:51:b3:02:
                    6d:25:fe:ca:d5:f5:b6:8d:58:9f:70:02:ec:b4:03:
                    5b:ea:31:92:a3:90:b8:0f:23:12:1d:a7:b3:ae:2f:
                    d2:aa:78:68:9f:5e:f4:d0:5d:6c:20:d9:47:f7:20:
                    9b:f3:6c:52:e5:d6:08:b0:3d:01:54:46:72:ed:6d:
                    e7:a4:3d:05:7a:36:54:14:db:be:56:b9:cb:97:e2:
                    05:f9:a9:63:36:88:91:e3:93:b1:0d:f7:52:86:d0:
                    1a:0d:fa:2e:a5:aa:2c:aa:e1:c3:33:b8:36:45:6b:
                    18:65:55:da:60:68:cb:a4:63:af:06:2e:23:a6:a1:
                    d7:c2:5a:41:08:85:ec:1a:f6:c9:83:64:c9:03:c8:
                    9e:50:bd:a3:ba:ab:54:ec:74:5c:9d:9c:51:e9:01:
                    63:ad:e2:ce:8d:e4:c6:d7:c3:53:6d:f1:a1:03:97:
                    05:5b:36:9f:53:4f:70:7c:18:72:37:04:f8:c1:b8:
                    35:cb:27:7d:90:96:0c:af:ac:04:15:78:6b:a6:92:
                    25:1e:a0:98:0c:52:fe:9a:7b:01:7c:f4:85:b6:a3:
                    bd:5c:85:17:84:1f:4c:5f:8b:2d:ea:a5:fa:55:35:
                    89:66:d3:7b:1c:1b:fd:7e:8e:74:e2:e7:69:8f:2e:
                    c4:ad:d2:17:c4:26:2f:17:06:bb:93:b9:cf:ff:b0:
                    0d:b2:00:dc:2b:76:a1:dc:12:f6:e3:bc:8d:f6:8c:
                    93:fc:22:f5:4b:e2:ae:0b:d2:3d:ee:d2:34:1a:52:
                    e3:4b:f3:90:7f:68:70:00:21:db:9b:c0:98:59:f8:
                    89:41:c5:9b:2e:22:70:15:e2:1f:58:65:af:07:00:
                    7e:d4:6e:71:5b:27:c9:25:de:d0:0a:3b:26:48:b2:
                    15:00:30:ca:73:51:35:bf:06:5b:cd:43:74:5f:a8:
                    35:41:92:10:56:3d:6e:e5:82:ed:59:f1:f7:44:90:
                    a4:01:77:56:3d:a1:b7:c9:81:60:1f:b7:4c:6f:34:
                    f0:70:71:08:18:e0:5a:49:cc:88:d2:7f:f4:20:1c:
                    60:c2:dd:8a:e0:e4:71:92:63:48:1c:4b:12:0b:24:
                    2a:a8:07:1f:fb:20:1c:6f:54:6f:ea:e5:02:1f:f4:
                    91:b0:26:b6:d6:e7:4a:b8:27:0d:d2:ee:9c:8c:b7:
                    99:c0:ff
                Exponent: 65537 (0x10001)
        X509v3 extensions:
            X509v3 Basic Constraints: 
                CA:FALSE
            Netscape Comment: 
                Easy-RSA Generated Certificate
            X509v3 Subject Key Identifier: 
                5F:03:9E:B3:4A:EC:F2:A8:9A:36:D1:E2:BE:9D:BD:AF:93:35:F6:63
            X509v3 Authority Key Identifier: 
                keyid:12:CD:60:04:D2:A0:80:9E:70:ED:C6:99:B8:7B:2C:C6:52:FD:19:A1
                DirName:/C=US/ST=OH/L=Columbus/O=VikingVPN/OU=MyOrganizationalUnit/CN=VikingVPN CA/name=EasyRSA/emailAddress=me@myhost.mydomain
                serial:CF:35:85:EE:80:BF:2A:3E

            X509v3 Extended Key Usage: 
                TLS Web Client Authentication
            X509v3 Key Usage: 
                Digital Signature
    Signature Algorithm: sha256WithRSAEncryption
         53:ee:f5:bd:57:7c:4b:9e:42:f4:95:30:3a:e9:79:bb:09:9d:
         92:f8:fb:77:ee:04:1e:52:07:e0:d8:c8:04:76:1e:24:c8:b9:
         47:3c:e7:79:f1:5b:dd:f6:19:e2:3f:b4:af:e5:43:56:bd:cc:
         70:bc:83:d0:6e:4a:ac:56:95:11:ef:23:fb:6f:ec:98:d0:b9:
         23:c4:a3:5c:9e:cb:4c:fc:a7:73:de:65:cb:92:d9:d2:5c:3d:
         f2:4d:b7:0d:53:c1:23:3b:b2:1b:27:14:22:25:28:47:eb:f0:
         14:91:71:1c:78:ec:10:50:c8:f1:ef:ea:d0:84:6c:3a:15:6c:
         5a:be:45:8f:f3:8f:8d:54:a1:79:d4:5d:ae:6c:b6:f4:ca:cb:
         e4:e2:4d:81:2b:a0:18:1f:c4:2f:10:6c:7a:e5:c7:fb:62:91:
         9f:57:59:d5:e7:f9:ea:f0:77:b4:05:f8:03:bf:3b:3a:86:0b:
         89:e9:fa:25:dd:b0:a8:d0:92:12:06:1c:89:34:eb:49:3d:cd:
         8d:ee:5a:7b:38:cc:08:1f:2f:f1:d1:79:bb:b4:24:ce:7e:4c:
         3d:79:91:08:3d:9b:38:e3:26:df:53:94:16:6f:98:28:7a:b9:
         52:de:9a:48:86:b0:cb:83:a4:3c:09:99:d9:be:7f:26:05:7d:
         db:d1:4a:08:75:be:91:5e:2a:46:f7:4d:a5:8c:52:9b:fb:8b:
         79:16:e9:3f:47:cb:3f:ea:a3:d7:7b:d0:c1:d3:ec:db:f0:f0:
         5a:49:b1:07:e6:49:3f:7e:7a:3f:ac:d0:17:7e:e9:d7:05:0f:
         9b:52:c1:6a:91:3d:7d:a7:90:ed:67:c9:c3:18:b1:0d:f5:a6:
         1a:07:b2:ff:29:94:0e:4f:ea:13:60:41:01:51:0f:71:c1:32:
         1a:46:67:9a:c1:05:09:94:c4:1a:80:28:b2:16:42:ca:76:18:
         e0:13:85:0a:78:14:fa:8c:a7:5f:ad:c3:73:82:66:70:f3:d7:
         c3:f9:3e:7b:cd:0b:78:4a:e0:01:ed:a0:18:59:a0:04:24:de:
         24:02:8d:8a:27:bc:8c:50:9d:3a:51:fe:b3:9d:b6:2d:32:2c:
         4a:23:b6:12:2f:ce:e4:c4:c1:d7:63:eb:e4:20:d8:3e:bb:b7:
         46:f2:46:35:80:0b:a4:e1:72:5f:c6:1a:81:57:12:fa:e9:da:
         a2:d7:62:1c:d5:14:70:e4:7d:20:4d:1d:4f:5a:4e:29:6a:52:
         af:8a:3e:32:5e:7c:53:e6:89:cb:86:94:56:b7:0c:bb:19:52:
         7e:4d:08:14:0f:e7:5e:f8:13:d6:81:28:45:60:56:ac:3a:4a:
         a6:8f:b4:2c:10:b7:ca:9d
-----BEGIN CERTIFICATE-----
MIIGrTCCBJWgAwIBAgICLdkwDQYJKoZIhvcNAQELBQAwgawxCzAJBgNVBAYTAlVT
MQswCQYDVQQIEwJPSDERMA8GA1UEBxMIQ29sdW1idXMxEjAQBgNVBAoTCVZpa2lu
Z1ZQTjEdMBsGA1UECxMUTXlPcmdhbml6YXRpb25hbFVuaXQxFTATBgNVBAMTDFZp
a2luZ1ZQTiBDQTEQMA4GA1UEKRMHRWFzeVJTQTEhMB8GCSqGSIb3DQEJARYSbWVA
bXlob3N0Lm15ZG9tYWluMB4XDTE3MDgzMDE5MTIyM1oXDTI3MDgyODE5MTIyM1ow
HzEdMBsGA1UEAxMUQ2xpZW50MjYwMENlcnQyNmFiNzUwggIiMA0GCSqGSIb3DQEB
AQUAA4ICDwAwggIKAoICAQDY8upddrvWXlN06Oqo+XRgZsPzwvKoifV2Hx5pJR/L
H8k7euP+dreP+0sKb4aMnHJ4UHlj09uZV/p1Fi+Rv/LVjwQmx9CF7VGzAm0l/srV
9baNWJ9wAuy0A1vqMZKjkLgPIxIdp7OuL9KqeGifXvTQXWwg2Uf3IJvzbFLl1giw
PQFURnLtbeekPQV6NlQU275WucuX4gX5qWM2iJHjk7EN91KG0BoN+i6lqiyq4cMz
uDZFaxhlVdpgaMukY68GLiOmodfCWkEIhewa9smDZMkDyJ5QvaO6q1TsdFydnFHp
AWOt4s6N5MbXw1Nt8aEDlwVbNp9TT3B8GHI3BPjBuDXLJ32QlgyvrAQVeGumkiUe
oJgMUv6aewF89IW2o71chReEH0xfiy3qpfpVNYlm03scG/1+jnTi52mPLsSt0hfE
Ji8XBruTuc//sA2yANwrdqHcEvbjvI32jJP8IvVL4q4L0j3u0jQaUuNL85B/aHAA
IdubwJhZ+IlBxZsuInAV4h9YZa8HAH7UbnFbJ8kl3tAKOyZIshUAMMpzUTW/BlvN
Q3RfqDVBkhBWPW7lgu1Z8fdEkKQBd1Y9obfJgWAft0xvNPBwcQgY4FpJzIjSf/Qg
HGDC3Yrg5HGSY0gcSxILJCqoBx/7IBxvVG/q5QIf9JGwJrbW50q4Jw3S7pyMt5nA
/wIDAQABo4IBYzCCAV8wCQYDVR0TBAIwADAtBglghkgBhvhCAQ0EIBYeRWFzeS1S
U0EgR2VuZXJhdGVkIENlcnRpZmljYXRlMB0GA1UdDgQWBBRfA56zSuzyqJo20eK+
nb2vkzX2YzCB4QYDVR0jBIHZMIHWgBQSzWAE0qCAnnDtxpm4eyzGUv0ZoaGBsqSB
rzCBrDELMAkGA1UEBhMCVVMxCzAJBgNVBAgTAk9IMREwDwYDVQQHEwhDb2x1bWJ1
czESMBAGA1UEChMJVmlraW5nVlBOMR0wGwYDVQQLExRNeU9yZ2FuaXphdGlvbmFs
VW5pdDEVMBMGA1UEAxMMVmlraW5nVlBOIENBMRAwDgYDVQQpEwdFYXN5UlNBMSEw
HwYJKoZIhvcNAQkBFhJtZUBteWhvc3QubXlkb21haW6CCQDPNYXugL8qPjATBgNV
HSUEDDAKBggrBgEFBQcDAjALBgNVHQ8EBAMCB4AwDQYJKoZIhvcNAQELBQADggIB
AFPu9b1XfEueQvSVMDrpebsJnZL4+3fuBB5SB+DYyAR2HiTIuUc853nxW932GeI/
tK/lQ1a9zHC8g9BuSqxWlRHvI/tv7JjQuSPEo1yey0z8p3PeZcuS2dJcPfJNtw1T
wSM7shsnFCIlKEfr8BSRcRx47BBQyPHv6tCEbDoVbFq+RY/zj41UoXnUXa5stvTK
y+TiTYEroBgfxC8QbHrlx/tikZ9XWdXn+erwd7QF+AO/OzqGC4np+iXdsKjQkhIG
HIk060k9zY3uWns4zAgfL/HRebu0JM5+TD15kQg9mzjjJt9TlBZvmCh6uVLemkiG
sMuDpDwJmdm+fyYFfdvRSgh1vpFeKkb3TaWMUpv7i3kW6T9Hyz/qo9d70MHT7Nvw
8FpJsQfmST9+ej+s0Bd+6dcFD5tSwWqRPX2nkO1nycMYsQ31phoHsv8plA5P6hNg
QQFRD3HBMhpGZ5rBBQmUxBqAKLIWQsp2GOAThQp4FPqMp1+tw3OCZnDz18P5PnvN
C3hK4AHtoBhZoAQk3iQCjYonvIxQnTpR/rOdti0yLEojthIvzuTEwddj6+Qg2D67
t0byRjWAC6Thcl/GGoFXEvrp2qLXYhzVFHDkfSBNHU9aTilqUq+KPjJefFPmicuG
lFa3DLsZUn5NCBQP5174E9aBKEVgVqw6SqaPtCwQt8qd
-----END CERTIFICATE-----
