Certificate:
    Data:
        Version: 3 (0x2)
        Serial Number: 4607 (0x11ff)
    Signature Algorithm: md5WithRSAEncryption
        Issuer: C=US, ST=OH, L=Columbus, O=VikingVPN, OU=MyOrganizationalUnit, CN=VikingVPN CA/name=EasyRSA/emailAddress=me@myhost.mydomain
        Validity
            Not Before: Feb 28 13:45:23 2015 GMT
            Not After : Feb 25 13:45:23 2025 GMT
        Subject: CN=Client1465Certa11779
        Subject Public Key Info:
            Public Key Algorithm: rsaEncryption
                Public-Key: (4096 bit)
                Modulus:
                    00:db:a9:6a:63:66:cf:32:78:73:d7:30:5a:92:80:
                    fb:3e:58:62:55:7f:c3:37:59:b2:40:91:7d:c0:15:
                    b8:0b:1c:07:ba:02:79:f8:b2:c4:56:af:ea:00:c8:
                    bb:e1:b1:dd:70:ac:76:31:43:76:27:1b:de:8f:8d:
                    45:f1:30:16:72:aa:51:fd:e0:03:5f:c5:ae:ce:46:
                    72:17:41:10:19:4f:cc:52:49:24:81:6a:31:cc:5d:
                    45:b8:2f:0c:16:ca:6c:94:b9:69:25:20:c0:a5:35:
                    9d:fc:20:6e:86:db:86:a6:96:71:54:f9:09:9b:fb:
                    50:d9:3f:4a:fb:2a:e5:ce:7b:b6:33:5c:f1:ac:cb:
                    88:f4:b2:3d:29:ea:98:ce:a7:38:7e:d1:3f:a2:ce:
                    f4:06:ea:6d:af:63:3c:c4:e8:6e:47:d4:e9:1a:68:
                    35:4a:3e:c6:b8:2c:40:75:41:ce:cd:30:eb:6b:25:
                    03:f7:ba:76:d1:ae:8a:99:5c:59:b5:f3:bc:0f:06:
                    cc:c6:f8:d8:31:b5:29:ed:4d:2b:4f:6f:0b:3a:07:
                    d6:43:85:8e:02:17:2b:73:e1:ca:94:6c:43:35:c6:
                    e0:c3:30:e1:0b:68:b5:df:69:5c:6d:e1:91:c8:1b:
                    fe:5e:da:4f:82:c5:8d:cb:02:95:2d:e4:a4:84:3e:
                    85:bd:dd:3a:50:8a:4e:0c:f0:9d:67:27:80:12:33:
                    24:b2:ec:b8:1a:6c:10:3e:0e:ee:7a:dc:0f:c1:02:
                    a9:7a:bd:42:50:e5:06:26:fd:a3:b4:c4:38:43:bc:
                    b9:bd:2a:23:7c:8a:ec:f4:5e:97:df:4b:f2:0f:19:
                    db:38:1d:3a:0d:85:8d:4b:86:d7:dd:8c:dc:9a:5e:
                    87:a8:15:61:02:bb:b8:61:fa:53:2c:19:0a:7c:48:
                    1b:33:a6:ea:8c:f6:c4:a2:3d:72:ff:06:f4:34:14:
                    57:39:bf:79:aa:d1:d7:07:89:70:a9:3f:ca:5b:4e:
                    b2:c3:e6:df:10:74:de:96:ba:36:bf:97:49:01:94:
                    f9:36:f9:88:71:fa:31:0b:c6:28:c4:e0:7a:32:4f:
                    ce:79:89:b7:76:f6:3e:9f:f8:ff:04:e0:d7:71:13:
                    58:81:f5:07:99:38:96:58:68:58:b2:6e:4c:30:89:
                    cb:3e:39:2f:05:09:43:af:e4:4b:68:59:ee:e6:f1:
                    a0:d8:23:90:06:cd:5d:da:ad:b6:10:71:cf:6f:91:
                    9c:d4:d4:a6:11:2c:c6:58:98:68:41:59:53:78:9a:
                    25:9d:d6:4b:3d:64:80:69:0b:f4:6e:2d:b5:37:74:
                    ed:4b:c8:74:aa:21:eb:93:48:09:aa:fa:e5:65:ab:
                    a7:8e:fb
                Exponent: 65537 (0x10001)
        X509v3 extensions:
            X509v3 Basic Constraints: 
                CA:FALSE
            Netscape Comment: 
                Easy-RSA Generated Certificate
            X509v3 Subject Key Identifier: 
                53:75:DA:66:A6:4B:1B:AF:C2:3C:80:82:D0:64:AC:CB:02:49:F9:02
            X509v3 Authority Key Identifier: 
                keyid:12:CD:60:04:D2:A0:80:9E:70:ED:C6:99:B8:7B:2C:C6:52:FD:19:A1
                DirName:/C=US/ST=OH/L=Columbus/O=VikingVPN/OU=MyOrganizationalUnit/CN=VikingVPN CA/name=EasyRSA/emailAddress=me@myhost.mydomain
                serial:CF:35:85:EE:80:BF:2A:3E

            X509v3 Extended Key Usage: 
                TLS Web Client Authentication
            X509v3 Key Usage: 
                Digital Signature
    Signature Algorithm: md5WithRSAEncryption
         0b:17:6c:61:fb:d3:38:0c:c6:cd:ba:c1:f7:dd:66:49:55:41:
         fc:13:c3:84:95:14:4c:c1:c0:ef:d6:c4:99:62:14:43:5e:df:
         c4:64:dc:15:e7:8c:95:5d:4b:9f:12:95:8a:1e:bc:1b:21:c7:
         0b:4e:5e:a5:1f:d5:44:78:bd:15:38:fe:19:05:11:63:29:44:
         49:68:19:a0:57:5d:66:91:93:28:35:d7:61:d0:0d:15:ab:20:
         ec:e8:22:8f:ec:8d:1b:f5:12:f4:a8:83:03:58:15:35:30:85:
         d6:2b:67:f9:0a:c6:77:03:aa:ee:d7:09:90:5d:79:f0:62:75:
         5a:db:c0:50:45:44:34:ca:f4:1d:c6:30:c8:16:9e:cc:8c:5c:
         fd:7c:f5:3e:af:74:64:16:e0:3e:dd:b4:8d:dd:d1:cb:05:ad:
         8e:9f:e2:6a:6d:b8:23:85:62:91:12:4c:e1:79:86:0d:7d:bf:
         24:ce:20:76:ac:4c:20:a5:04:b3:e9:98:9a:6a:55:c5:13:7d:
         23:ff:4a:ef:c9:c4:68:4e:a3:54:7c:f9:f1:38:ec:59:85:fb:
         9a:60:cc:20:05:df:13:16:82:aa:10:db:11:c9:26:49:08:45:
         52:b4:44:e0:4e:9a:54:50:95:65:c1:0b:82:c3:d8:33:d3:58:
         fc:8e:81:ce:14:e2:9a:e2:94:60:11:56:b7:8f:13:81:bd:fe:
         5e:5c:50:05:4b:7b:44:48:33:ff:e0:32:48:3f:fa:50:0f:cc:
         55:37:85:c9:ae:5a:a1:49:be:68:53:e5:96:e3:e5:ea:df:db:
         00:27:e0:a7:20:f6:59:06:07:af:c6:06:f8:2b:d6:23:17:9d:
         13:07:9e:85:f7:82:41:52:ef:f9:59:3a:94:e7:87:2c:e1:5a:
         ae:01:ed:e7:c5:2d:37:76:d2:c8:ef:e4:30:35:da:61:ac:90:
         63:c1:8d:bc:ef:4d:99:18:5c:38:58:c0:dd:1c:b1:7b:74:6a:
         6e:b8:af:ae:cb:e7:6a:bf:e3:19:2f:cb:77:14:96:66:6d:99:
         34:b9:8f:5d:c5:1f:b1:e5:76:7b:42:2d:78:aa:32:ba:3a:51:
         12:53:c3:68:01:84:26:18:5d:2a:55:47:f5:13:a0:83:81:36:
         f1:c5:e5:c0:1a:d0:4a:24:57:26:37:22:26:db:09:17:27:b8:
         c7:0f:43:4a:00:8a:9a:ba:93:42:cb:3e:b0:a9:d9:82:82:2c:
         c9:22:79:75:da:82:dd:f2:99:f5:00:5d:10:d0:34:56:04:db:
         93:dc:82:b4:25:75:e5:8d:b4:d0:aa:8a:04:2e:de:e8:9a:c8:
         18:4c:49:e6:a1:97:9b:50
-----BEGIN CERTIFICATE-----
MIIGrTCCBJWgAwIBAgICEf8wDQYJKoZIhvcNAQEEBQAwgawxCzAJBgNVBAYTAlVT
MQswCQYDVQQIEwJPSDERMA8GA1UEBxMIQ29sdW1idXMxEjAQBgNVBAoTCVZpa2lu
Z1ZQTjEdMBsGA1UECxMUTXlPcmdhbml6YXRpb25hbFVuaXQxFTATBgNVBAMTDFZp
a2luZ1ZQTiBDQTEQMA4GA1UEKRMHRWFzeVJTQTEhMB8GCSqGSIb3DQEJARYSbWVA
bXlob3N0Lm15ZG9tYWluMB4XDTE1MDIyODEzNDUyM1oXDTI1MDIyNTEzNDUyM1ow
HzEdMBsGA1UEAxMUQ2xpZW50MTQ2NUNlcnRhMTE3NzkwggIiMA0GCSqGSIb3DQEB
AQUAA4ICDwAwggIKAoICAQDbqWpjZs8yeHPXMFqSgPs+WGJVf8M3WbJAkX3AFbgL
HAe6Ann4ssRWr+oAyLvhsd1wrHYxQ3YnG96PjUXxMBZyqlH94ANfxa7ORnIXQRAZ
T8xSSSSBajHMXUW4LwwWymyUuWklIMClNZ38IG6G24amlnFU+Qmb+1DZP0r7KuXO
e7YzXPGsy4j0sj0p6pjOpzh+0T+izvQG6m2vYzzE6G5H1OkaaDVKPsa4LEB1Qc7N
MOtrJQP3unbRroqZXFm187wPBszG+NgxtSntTStPbws6B9ZDhY4CFytz4cqUbEM1
xuDDMOELaLXfaVxt4ZHIG/5e2k+CxY3LApUt5KSEPoW93TpQik4M8J1nJ4ASMySy
7LgabBA+Du563A/BAql6vUJQ5QYm/aO0xDhDvLm9KiN8iuz0XpffS/IPGds4HToN
hY1LhtfdjNyaXoeoFWECu7hh+lMsGQp8SBszpuqM9sSiPXL/BvQ0FFc5v3mq0dcH
iXCpP8pbTrLD5t8QdN6Wuja/l0kBlPk2+Yhx+jELxijE4HoyT855ibd29j6f+P8E
4NdxE1iB9QeZOJZYaFiybkwwics+OS8FCUOv5EtoWe7m8aDYI5AGzV3arbYQcc9v
kZzU1KYRLMZYmGhBWVN4miWd1ks9ZIBpC/RuLbU3dO1LyHSqIeuTSAmq+uVlq6eO
+wIDAQABo4IBYzCCAV8wCQYDVR0TBAIwADAtBglghkgBhvhCAQ0EIBYeRWFzeS1S
U0EgR2VuZXJhdGVkIENlcnRpZmljYXRlMB0GA1UdDgQWBBRTddpmpksbr8I8gILQ
ZKzLAkn5AjCB4QYDVR0jBIHZMIHWgBQSzWAE0qCAnnDtxpm4eyzGUv0ZoaGBsqSB
rzCBrDELMAkGA1UEBhMCVVMxCzAJBgNVBAgTAk9IMREwDwYDVQQHEwhDb2x1bWJ1
czESMBAGA1UEChMJVmlraW5nVlBOMR0wGwYDVQQLExRNeU9yZ2FuaXphdGlvbmFs
VW5pdDEVMBMGA1UEAxMMVmlraW5nVlBOIENBMRAwDgYDVQQpEwdFYXN5UlNBMSEw
HwYJKoZIhvcNAQkBFhJtZUBteWhvc3QubXlkb21haW6CCQDPNYXugL8qPjATBgNV
HSUEDDAKBggrBgEFBQcDAjALBgNVHQ8EBAMCB4AwDQYJKoZIhvcNAQEEBQADggIB
AAsXbGH70zgMxs26wffdZklVQfwTw4SVFEzBwO/WxJliFENe38Rk3BXnjJVdS58S
lYoevBshxwtOXqUf1UR4vRU4/hkFEWMpREloGaBXXWaRkyg112HQDRWrIOzoIo/s
jRv1EvSogwNYFTUwhdYrZ/kKxncDqu7XCZBdefBidVrbwFBFRDTK9B3GMMgWnsyM
XP189T6vdGQW4D7dtI3d0csFrY6f4mptuCOFYpESTOF5hg19vyTOIHasTCClBLPp
mJpqVcUTfSP/Su/JxGhOo1R8+fE47FmF+5pgzCAF3xMWgqoQ2xHJJkkIRVK0ROBO
mlRQlWXBC4LD2DPTWPyOgc4U4prilGARVrePE4G9/l5cUAVLe0RIM//gMkg/+lAP
zFU3hcmuWqFJvmhT5Zbj5erf2wAn4Kcg9lkGB6/GBvgr1iMXnRMHnoX3gkFS7/lZ
OpTnhyzhWq4B7efFLTd20sjv5DA12mGskGPBjbzvTZkYXDhYwN0csXt0am64r67L
52q/4xkvy3cUlmZtmTS5j13FH7HldntCLXiqMro6URJTw2gBhCYYXSpVR/UToIOB
NvHF5cAa0EokVyY3IibbCRcnuMcPQ0oAipq6k0LLPrCp2YKCLMkieXXagt3ymfUA
XRDQNFYE25PcgrQldeWNtNCqigQu3uiayBhMSeahl5tQ
-----END CERTIFICATE-----
