Certificate:
    Data:
        Version: 3 (0x2)
        Serial Number: 5125 (0x1405)
    Signature Algorithm: md5WithRSAEncryption
        Issuer: C=US, ST=OH, L=Columbus, O=VikingVPN, OU=MyOrganizationalUnit, CN=VikingVPN CA/name=EasyRSA/emailAddress=me@myhost.mydomain
        Validity
            Not Before: May  1 18:16:06 2015 GMT
            Not After : Apr 28 18:16:06 2025 GMT
        Subject: CN=Client1647Cert9bb10d
        Subject Public Key Info:
            Public Key Algorithm: rsaEncryption
                Public-Key: (4096 bit)
                Modulus:
                    00:d4:46:9b:dc:2f:8d:ee:9e:57:45:2f:18:e9:6c:
                    76:f8:56:64:8e:03:a9:33:14:94:08:e0:1e:9c:02:
                    23:8c:9b:77:19:f7:33:bb:40:35:2c:0a:3f:de:08:
                    03:be:20:77:94:50:ae:05:b5:07:96:60:ea:80:b7:
                    af:8f:41:ca:ee:75:b1:f0:7a:04:8d:20:8c:95:79:
                    31:da:a3:9f:f3:87:cf:e6:67:81:c9:9e:7c:d3:eb:
                    03:67:3e:18:8d:47:54:51:7c:e8:58:ce:11:e1:68:
                    98:ec:86:71:0d:45:05:56:62:32:a0:76:47:29:ca:
                    bb:65:89:e7:74:80:82:36:d3:7c:55:98:48:86:bc:
                    58:66:6b:c8:37:b5:5d:4a:d3:70:50:5f:a1:b4:a0:
                    3f:aa:21:19:84:fc:d5:08:99:6f:30:bd:1a:ed:cf:
                    1c:4a:fc:4c:b0:2e:da:5c:30:37:f8:a5:06:9b:51:
                    c1:38:13:c4:aa:ac:14:85:08:06:1d:8e:11:ef:10:
                    05:ea:3b:6b:63:e7:88:68:1d:0e:de:19:ab:44:a2:
                    69:00:63:89:45:37:55:eb:8f:b1:02:69:51:33:44:
                    18:38:4f:d7:14:9a:c9:7c:bd:c4:43:82:d9:01:d4:
                    6e:9a:6b:ba:a5:0c:96:f1:5c:14:df:94:23:cc:bb:
                    21:11:39:ca:2d:9c:9e:27:1c:8e:4a:39:13:a9:92:
                    0d:16:90:3b:10:9b:23:28:26:68:3b:ab:b5:7c:e1:
                    dc:8e:d4:e5:97:99:95:87:b8:aa:22:cd:2e:8e:5b:
                    dc:44:a9:3e:ae:7e:6f:12:e1:68:40:ac:91:64:10:
                    c9:c8:5a:74:6a:e3:c5:2f:b2:78:2e:da:bc:ee:25:
                    2d:8d:c8:92:b5:96:fb:3d:93:48:f6:87:7b:23:fa:
                    06:f3:32:2f:75:68:70:cb:38:18:fc:63:98:44:db:
                    e8:58:2e:4e:10:08:09:3f:3d:af:c7:03:e8:0f:04:
                    32:cb:f5:59:fd:48:32:9f:6a:8b:1a:1d:32:bb:81:
                    6c:8b:b4:ef:92:15:81:1f:3d:82:2d:be:e8:41:f2:
                    99:13:e7:14:c6:49:5f:97:66:07:22:b3:f5:81:49:
                    74:3d:2b:60:48:4a:f9:c1:fa:0e:ab:c6:66:17:d3:
                    6b:18:0f:a1:d6:32:db:ba:ed:71:29:f2:59:ed:62:
                    c7:eb:9f:db:48:ff:fc:7d:c3:1e:e8:27:e5:63:8e:
                    4a:45:56:a7:fc:7e:9c:68:33:8f:89:c2:07:29:6d:
                    fd:ea:08:40:24:31:63:96:46:fa:68:c2:50:b8:30:
                    76:ea:2a:d8:58:8e:13:ab:49:0a:e7:03:b5:ac:80:
                    19:e7:ef
                Exponent: 65537 (0x10001)
        X509v3 extensions:
            X509v3 Basic Constraints: 
                CA:FALSE
            Netscape Comment: 
                Easy-RSA Generated Certificate
            X509v3 Subject Key Identifier: 
                50:4A:1B:53:6B:1C:9C:F9:5A:A3:1D:C4:21:46:1D:0D:76:D6:60:40
            X509v3 Authority Key Identifier: 
                keyid:12:CD:60:04:D2:A0:80:9E:70:ED:C6:99:B8:7B:2C:C6:52:FD:19:A1
                DirName:/C=US/ST=OH/L=Columbus/O=VikingVPN/OU=MyOrganizationalUnit/CN=VikingVPN CA/name=EasyRSA/emailAddress=me@myhost.mydomain
                serial:CF:35:85:EE:80:BF:2A:3E

            X509v3 Extended Key Usage: 
                TLS Web Client Authentication
            X509v3 Key Usage: 
                Digital Signature
    Signature Algorithm: md5WithRSAEncryption
         ce:f0:b8:fa:f5:c1:be:12:5c:c4:98:3f:d1:ae:ac:89:ab:a6:
         a8:a7:82:c6:50:07:62:93:7a:76:f9:95:b8:2a:3a:57:fd:40:
         81:b1:eb:19:a1:25:40:75:98:cd:c3:9e:4b:44:34:ba:72:55:
         2f:14:d4:e2:52:bd:e6:49:36:91:d3:26:e9:1a:40:4b:ec:1e:
         ad:05:d8:6f:aa:7b:dc:a4:0e:39:49:1d:93:c3:1c:1f:9e:fb:
         7e:2d:1e:40:ba:86:f2:b4:d3:79:38:0b:28:e9:8a:62:0e:61:
         f7:4a:f8:1a:09:10:16:75:56:47:cc:ed:08:62:4b:f1:c8:6f:
         46:17:5b:ae:06:26:5b:4c:f6:1d:3f:c0:ff:e0:47:7c:34:f4:
         24:d4:cb:38:e1:1d:ee:af:00:f5:49:14:e3:72:10:a1:c7:e1:
         b8:72:e4:1a:26:83:cb:bb:3c:0c:67:69:a0:57:05:ba:d5:b0:
         8a:bc:14:56:f5:03:b1:ac:36:e8:b7:5d:e5:9a:f7:bc:2c:48:
         0d:36:6b:71:46:6b:2a:75:70:30:7a:21:85:7e:0b:d4:92:11:
         57:e5:b8:15:13:18:f2:05:e2:e8:19:90:d8:b9:77:05:3a:7e:
         72:d7:2b:c0:e1:57:17:fb:70:41:09:d8:5a:e2:aa:70:83:f0:
         f6:a0:22:09:30:b3:e5:16:c2:37:0a:1e:e9:f8:51:2f:70:c8:
         7d:47:b2:f5:23:79:02:04:68:0e:25:ed:18:67:71:9d:bf:b1:
         00:17:d9:79:46:07:71:22:56:d7:01:0b:54:ee:9b:4a:bf:6c:
         63:02:1e:48:7f:e4:28:b2:c3:3d:03:11:d0:dd:7d:e4:3b:07:
         03:ff:93:7e:d2:d7:26:9c:9a:d6:51:4e:c1:d0:f9:c3:27:2a:
         08:49:59:3f:4c:2d:ba:81:af:92:f0:0d:ef:8a:a6:68:3b:91:
         fd:dc:b6:15:42:d0:65:14:de:c6:19:9e:6c:55:17:eb:a5:21:
         0b:32:10:6b:f0:94:1f:ef:f6:7f:5e:ff:53:45:c7:f6:9d:be:
         f0:a5:3d:61:33:23:4c:88:be:0a:75:64:01:0e:37:ac:88:04:
         ed:8b:a1:c8:12:03:2a:94:a8:b9:f2:a4:be:8e:ea:5d:8e:bd:
         bc:b5:31:97:e8:17:37:db:5e:a0:eb:63:eb:c1:97:5e:55:5d:
         34:c5:ac:46:bf:9c:90:57:91:8b:e2:71:ac:04:47:69:36:92:
         9d:5c:38:74:19:24:20:bf:b2:a8:2c:48:59:c6:a4:89:6f:15:
         70:a0:75:95:db:59:f5:13:42:c1:1b:85:db:a2:be:b1:83:e7:
         92:d4:95:e4:8d:c7:b2:1d
-----BEGIN CERTIFICATE-----
MIIGrTCCBJWgAwIBAgICFAUwDQYJKoZIhvcNAQEEBQAwgawxCzAJBgNVBAYTAlVT
MQswCQYDVQQIEwJPSDERMA8GA1UEBxMIQ29sdW1idXMxEjAQBgNVBAoTCVZpa2lu
Z1ZQTjEdMBsGA1UECxMUTXlPcmdhbml6YXRpb25hbFVuaXQxFTATBgNVBAMTDFZp
a2luZ1ZQTiBDQTEQMA4GA1UEKRMHRWFzeVJTQTEhMB8GCSqGSIb3DQEJARYSbWVA
bXlob3N0Lm15ZG9tYWluMB4XDTE1MDUwMTE4MTYwNloXDTI1MDQyODE4MTYwNlow
HzEdMBsGA1UEAxMUQ2xpZW50MTY0N0NlcnQ5YmIxMGQwggIiMA0GCSqGSIb3DQEB
AQUAA4ICDwAwggIKAoICAQDURpvcL43unldFLxjpbHb4VmSOA6kzFJQI4B6cAiOM
m3cZ9zO7QDUsCj/eCAO+IHeUUK4FtQeWYOqAt6+PQcrudbHwegSNIIyVeTHao5/z
h8/mZ4HJnnzT6wNnPhiNR1RRfOhYzhHhaJjshnENRQVWYjKgdkcpyrtlied0gII2
03xVmEiGvFhma8g3tV1K03BQX6G0oD+qIRmE/NUImW8wvRrtzxxK/EywLtpcMDf4
pQabUcE4E8SqrBSFCAYdjhHvEAXqO2tj54hoHQ7eGatEomkAY4lFN1Xrj7ECaVEz
RBg4T9cUmsl8vcRDgtkB1G6aa7qlDJbxXBTflCPMuyEROcotnJ4nHI5KOROpkg0W
kDsQmyMoJmg7q7V84dyO1OWXmZWHuKoizS6OW9xEqT6ufm8S4WhArJFkEMnIWnRq
48Uvsngu2rzuJS2NyJK1lvs9k0j2h3sj+gbzMi91aHDLOBj8Y5hE2+hYLk4QCAk/
Pa/HA+gPBDLL9Vn9SDKfaosaHTK7gWyLtO+SFYEfPYItvuhB8pkT5xTGSV+XZgci
s/WBSXQ9K2BISvnB+g6rxmYX02sYD6HWMtu67XEp8lntYsfrn9tI//x9wx7oJ+Vj
jkpFVqf8fpxoM4+Jwgcpbf3qCEAkMWOWRvpowlC4MHbqKthYjhOrSQrnA7WsgBnn
7wIDAQABo4IBYzCCAV8wCQYDVR0TBAIwADAtBglghkgBhvhCAQ0EIBYeRWFzeS1S
U0EgR2VuZXJhdGVkIENlcnRpZmljYXRlMB0GA1UdDgQWBBRQShtTaxyc+VqjHcQh
Rh0NdtZgQDCB4QYDVR0jBIHZMIHWgBQSzWAE0qCAnnDtxpm4eyzGUv0ZoaGBsqSB
rzCBrDELMAkGA1UEBhMCVVMxCzAJBgNVBAgTAk9IMREwDwYDVQQHEwhDb2x1bWJ1
czESMBAGA1UEChMJVmlraW5nVlBOMR0wGwYDVQQLExRNeU9yZ2FuaXphdGlvbmFs
VW5pdDEVMBMGA1UEAxMMVmlraW5nVlBOIENBMRAwDgYDVQQpEwdFYXN5UlNBMSEw
HwYJKoZIhvcNAQkBFhJtZUBteWhvc3QubXlkb21haW6CCQDPNYXugL8qPjATBgNV
HSUEDDAKBggrBgEFBQcDAjALBgNVHQ8EBAMCB4AwDQYJKoZIhvcNAQEEBQADggIB
AM7wuPr1wb4SXMSYP9GurImrpqingsZQB2KTenb5lbgqOlf9QIGx6xmhJUB1mM3D
nktENLpyVS8U1OJSveZJNpHTJukaQEvsHq0F2G+qe9ykDjlJHZPDHB+e+34tHkC6
hvK003k4CyjpimIOYfdK+BoJEBZ1VkfM7QhiS/HIb0YXW64GJltM9h0/wP/gR3w0
9CTUyzjhHe6vAPVJFONyEKHH4bhy5Bomg8u7PAxnaaBXBbrVsIq8FFb1A7GsNui3
XeWa97wsSA02a3FGayp1cDB6IYV+C9SSEVfluBUTGPIF4ugZkNi5dwU6fnLXK8Dh
Vxf7cEEJ2FriqnCD8PagIgkws+UWwjcKHun4US9wyH1HsvUjeQIEaA4l7RhncZ2/
sQAX2XlGB3EiVtcBC1Tum0q/bGMCHkh/5Ciywz0DEdDdfeQ7BwP/k37S1yacmtZR
TsHQ+cMnKghJWT9MLbqBr5LwDe+Kpmg7kf3cthVC0GUU3sYZnmxVF+ulIQsyEGvw
lB/v9n9e/1NFx/advvClPWEzI0yIvgp1ZAEON6yIBO2LocgSAyqUqLnypL6O6l2O
vby1MZfoFzfbXqDrY+vBl15VXTTFrEa/nJBXkYvicawER2k2kp1cOHQZJCC/sqgs
SFnGpIlvFXCgdZXbWfUTQsEbhduivrGD55LUleSNx7Id
-----END CERTIFICATE-----
