Certificate:
    Data:
        Version: 3 (0x2)
        Serial Number: 4143 (0x102f)
    Signature Algorithm: md5WithRSAEncryption
        Issuer: C=US, ST=OH, L=Columbus, O=VikingVPN, OU=MyOrganizationalUnit, CN=VikingVPN CA/name=EasyRSA/emailAddress=me@myhost.mydomain
        Validity
            Not Before: Jan 16 22:57:03 2015 GMT
            Not After : Jan 13 22:57:03 2025 GMT
        Subject: CN=Client1088Cert409750
        Subject Public Key Info:
            Public Key Algorithm: rsaEncryption
                Public-Key: (4096 bit)
                Modulus:
                    00:c3:cd:a7:e4:d6:aa:82:6f:a0:29:aa:9d:48:9f:
                    b0:1e:d7:58:b6:e4:49:0b:74:72:f7:94:f5:69:25:
                    7f:92:eb:c0:6a:fa:d4:bd:69:ae:7b:35:20:ab:7b:
                    63:37:42:58:3f:80:70:af:d1:93:28:24:8a:0d:4a:
                    fa:78:58:cc:13:95:f8:02:43:d5:b4:c6:1b:33:bb:
                    93:a0:ec:fd:be:65:b0:53:3f:58:0b:5b:72:a4:3e:
                    c9:1e:be:01:8a:5a:26:7b:52:1d:37:c8:52:7a:15:
                    39:94:0a:32:81:99:3b:28:53:4b:3c:c1:e7:45:a3:
                    32:7c:16:6e:49:57:d4:0e:2d:0e:80:e7:4a:0d:c2:
                    f2:60:ba:59:45:7e:fd:0d:b9:e8:c3:ce:ff:a1:69:
                    c1:7b:d8:08:37:32:02:21:95:0f:eb:2b:3e:26:b7:
                    47:22:9b:e5:70:70:5d:c0:75:9b:e3:ea:0f:67:8f:
                    8f:a6:ea:df:d7:f4:bd:ab:9e:9c:4b:6d:a7:37:e7:
                    08:60:7c:73:ae:8e:10:ba:42:0b:0f:2e:ea:c0:de:
                    b8:84:af:82:bb:a2:b5:81:ea:23:8d:a6:88:0c:e0:
                    11:a6:2c:71:a0:48:5a:43:43:87:3b:5b:4e:8c:03:
                    14:ed:4f:b4:81:b9:be:16:64:f9:ae:34:50:82:1e:
                    aa:17:1c:e5:55:82:1e:08:c3:d9:a5:2e:f6:08:71:
                    02:ce:d7:53:91:c0:cd:7d:13:ab:32:b1:e8:c0:52:
                    3a:6a:31:d4:4e:06:45:29:40:16:3f:b3:21:e5:6f:
                    f8:20:68:42:ff:5a:5d:75:4b:56:f8:21:ad:4a:2d:
                    b9:e8:6c:54:cf:46:6d:f6:ab:ad:89:3a:04:4f:13:
                    fb:85:ee:40:71:59:94:5b:cb:f0:f4:00:6c:cd:8b:
                    bd:da:90:be:70:26:bd:03:4a:84:b6:df:8e:33:f1:
                    43:a6:3f:4b:e4:83:21:fc:17:5d:c2:e8:b1:26:2e:
                    1b:e0:ec:4d:9d:39:44:a0:59:34:65:19:cb:29:ed:
                    66:7e:61:ff:b7:9b:ff:17:16:1e:05:2e:20:db:81:
                    d0:b2:75:9b:61:dc:f2:a1:86:25:f6:60:d7:d1:c9:
                    e8:f1:90:4f:df:5e:85:b1:93:1b:f8:de:b1:b6:94:
                    5c:9d:c2:0b:0b:14:35:0e:e9:14:ec:52:ec:9d:bd:
                    28:a9:73:3d:67:6a:54:38:74:52:90:28:2d:4d:cb:
                    f4:c0:f9:51:50:40:5f:fa:89:96:1c:b8:37:e4:3d:
                    d8:a5:77:94:44:d0:92:d6:62:02:f9:af:cc:7b:b4:
                    76:fe:20:f4:23:c3:e3:fc:58:15:62:9c:eb:d7:a1:
                    08:62:8f
                Exponent: 65537 (0x10001)
        X509v3 extensions:
            X509v3 Basic Constraints: 
                CA:FALSE
            Netscape Comment: 
                Easy-RSA Generated Certificate
            X509v3 Subject Key Identifier: 
                29:68:46:54:1F:93:67:6C:3F:69:C9:51:E0:B1:69:40:E2:57:5B:7B
            X509v3 Authority Key Identifier: 
                keyid:12:CD:60:04:D2:A0:80:9E:70:ED:C6:99:B8:7B:2C:C6:52:FD:19:A1
                DirName:/C=US/ST=OH/L=Columbus/O=VikingVPN/OU=MyOrganizationalUnit/CN=VikingVPN CA/name=EasyRSA/emailAddress=me@myhost.mydomain
                serial:CF:35:85:EE:80:BF:2A:3E

            X509v3 Extended Key Usage: 
                TLS Web Client Authentication
            X509v3 Key Usage: 
                Digital Signature
    Signature Algorithm: md5WithRSAEncryption
         95:cb:1d:90:13:98:17:da:95:32:f0:a8:17:ed:45:95:08:87:
         7b:b7:95:8a:e7:ce:5d:96:7c:de:e2:3b:33:62:63:05:fb:fc:
         81:3f:bb:66:03:d3:76:df:af:53:da:dc:c1:1c:fc:cb:eb:14:
         ef:6e:c1:52:45:b1:15:96:7f:de:fb:9e:d1:23:ca:08:e1:59:
         01:d1:95:40:c1:cc:7b:93:58:85:e9:de:b9:0c:13:ad:b1:85:
         c2:6c:f4:b0:f8:bb:ca:fd:2e:c0:22:1f:11:e1:b5:bb:09:05:
         9b:fe:0b:9d:30:6d:50:66:73:c0:16:72:67:1c:b6:5d:7f:d5:
         84:8a:cf:f6:8b:5d:4a:7f:21:f7:37:91:c8:10:0c:67:b9:fe:
         30:e5:45:fc:14:22:94:67:16:af:41:b1:df:b0:2c:3c:37:0e:
         1b:75:5e:e1:3c:6b:d5:19:2e:25:7b:8b:c3:27:61:70:82:1a:
         fa:b8:25:8f:ef:47:a3:e8:67:42:58:a1:e4:16:87:ee:e4:d9:
         65:88:74:b1:d9:a9:8b:cd:b2:fd:6e:d0:c9:aa:a0:48:ff:e6:
         84:58:1e:5a:d9:03:63:8a:4a:36:05:6b:74:b6:b8:62:84:73:
         28:ec:d1:c8:07:d5:8a:3e:11:a6:a6:8c:5c:ee:49:77:74:2a:
         77:b4:db:8c:96:f4:62:75:cd:2c:a7:e7:90:e1:77:8b:ac:6a:
         03:5d:ef:e2:84:d1:1b:3f:33:16:c5:6d:8e:b0:bb:9f:30:3c:
         54:c8:cc:f3:2b:0c:96:e9:8d:3b:1c:44:d2:b5:79:37:0a:56:
         bd:45:55:6c:c7:17:ae:1f:37:e8:c2:9c:90:89:75:49:38:98:
         ae:a2:0d:01:74:62:d1:03:5d:48:16:c5:29:4a:a7:c5:1d:8e:
         9b:af:3f:0b:66:98:25:6c:45:c8:64:7c:d4:d2:c5:1b:04:81:
         9e:cd:a4:66:1a:b8:bf:d6:ef:64:c3:9f:60:13:03:dc:1f:a5:
         ef:aa:c2:e9:5a:4a:97:51:c4:02:3a:c3:03:e8:bb:6d:14:8b:
         ea:2b:17:83:09:40:e5:e9:11:21:79:f5:4b:2a:b4:f7:95:89:
         54:75:7e:02:63:a6:e2:f6:08:a1:0a:b8:47:83:af:a5:b9:38:
         16:9f:c1:29:67:fd:89:c2:43:40:83:f4:40:10:ca:cb:9a:3b:
         48:03:d4:2b:03:b5:db:73:10:a0:9c:75:f7:7d:c5:d0:e4:9f:
         d4:85:a0:77:fa:bd:aa:b2:28:24:b4:25:c0:7e:ab:04:6c:4b:
         9f:a0:c0:d0:f8:94:71:80:64:52:11:35:73:60:e6:f0:4d:0f:
         d8:10:a3:73:77:c9:df:08
-----BEGIN CERTIFICATE-----
MIIGrTCCBJWgAwIBAgICEC8wDQYJKoZIhvcNAQEEBQAwgawxCzAJBgNVBAYTAlVT
MQswCQYDVQQIEwJPSDERMA8GA1UEBxMIQ29sdW1idXMxEjAQBgNVBAoTCVZpa2lu
Z1ZQTjEdMBsGA1UECxMUTXlPcmdhbml6YXRpb25hbFVuaXQxFTATBgNVBAMTDFZp
a2luZ1ZQTiBDQTEQMA4GA1UEKRMHRWFzeVJTQTEhMB8GCSqGSIb3DQEJARYSbWVA
bXlob3N0Lm15ZG9tYWluMB4XDTE1MDExNjIyNTcwM1oXDTI1MDExMzIyNTcwM1ow
HzEdMBsGA1UEAxMUQ2xpZW50MTA4OENlcnQ0MDk3NTAwggIiMA0GCSqGSIb3DQEB
AQUAA4ICDwAwggIKAoICAQDDzafk1qqCb6Apqp1In7Ae11i25EkLdHL3lPVpJX+S
68Bq+tS9aa57NSCre2M3Qlg/gHCv0ZMoJIoNSvp4WMwTlfgCQ9W0xhszu5Og7P2+
ZbBTP1gLW3KkPskevgGKWiZ7Uh03yFJ6FTmUCjKBmTsoU0s8wedFozJ8Fm5JV9QO
LQ6A50oNwvJgullFfv0NuejDzv+hacF72Ag3MgIhlQ/rKz4mt0cim+VwcF3AdZvj
6g9nj4+m6t/X9L2rnpxLbac35whgfHOujhC6QgsPLurA3riEr4K7orWB6iONpogM
4BGmLHGgSFpDQ4c7W06MAxTtT7SBub4WZPmuNFCCHqoXHOVVgh4Iw9mlLvYIcQLO
11ORwM19E6sysejAUjpqMdROBkUpQBY/syHlb/ggaEL/Wl11S1b4Ia1KLbnobFTP
Rm32q62JOgRPE/uF7kBxWZRby/D0AGzNi73akL5wJr0DSoS2344z8UOmP0vkgyH8
F13C6LEmLhvg7E2dOUSgWTRlGcsp7WZ+Yf+3m/8XFh4FLiDbgdCydZth3PKhhiX2
YNfRyejxkE/fXoWxkxv43rG2lFydwgsLFDUO6RTsUuydvSipcz1nalQ4dFKQKC1N
y/TA+VFQQF/6iZYcuDfkPdild5RE0JLWYgL5r8x7tHb+IPQjw+P8WBVinOvXoQhi
jwIDAQABo4IBYzCCAV8wCQYDVR0TBAIwADAtBglghkgBhvhCAQ0EIBYeRWFzeS1S
U0EgR2VuZXJhdGVkIENlcnRpZmljYXRlMB0GA1UdDgQWBBQpaEZUH5NnbD9pyVHg
sWlA4ldbezCB4QYDVR0jBIHZMIHWgBQSzWAE0qCAnnDtxpm4eyzGUv0ZoaGBsqSB
rzCBrDELMAkGA1UEBhMCVVMxCzAJBgNVBAgTAk9IMREwDwYDVQQHEwhDb2x1bWJ1
czESMBAGA1UEChMJVmlraW5nVlBOMR0wGwYDVQQLExRNeU9yZ2FuaXphdGlvbmFs
VW5pdDEVMBMGA1UEAxMMVmlraW5nVlBOIENBMRAwDgYDVQQpEwdFYXN5UlNBMSEw
HwYJKoZIhvcNAQkBFhJtZUBteWhvc3QubXlkb21haW6CCQDPNYXugL8qPjATBgNV
HSUEDDAKBggrBgEFBQcDAjALBgNVHQ8EBAMCB4AwDQYJKoZIhvcNAQEEBQADggIB
AJXLHZATmBfalTLwqBftRZUIh3u3lYrnzl2WfN7iOzNiYwX7/IE/u2YD03bfr1Pa
3MEc/MvrFO9uwVJFsRWWf977ntEjygjhWQHRlUDBzHuTWIXp3rkME62xhcJs9LD4
u8r9LsAiHxHhtbsJBZv+C50wbVBmc8AWcmcctl1/1YSKz/aLXUp/Ifc3kcgQDGe5
/jDlRfwUIpRnFq9Bsd+wLDw3Dht1XuE8a9UZLiV7i8MnYXCCGvq4JY/vR6PoZ0JY
oeQWh+7k2WWIdLHZqYvNsv1u0MmqoEj/5oRYHlrZA2OKSjYFa3S2uGKEcyjs0cgH
1Yo+EaamjFzuSXd0Kne024yW9GJ1zSyn55Dhd4usagNd7+KE0Rs/MxbFbY6wu58w
PFTIzPMrDJbpjTscRNK1eTcKVr1FVWzHF64fN+jCnJCJdUk4mK6iDQF0YtEDXUgW
xSlKp8UdjpuvPwtmmCVsRchkfNTSxRsEgZ7NpGYauL/W72TDn2ATA9wfpe+qwula
SpdRxAI6wwPou20Ui+orF4MJQOXpESF59UsqtPeViVR1fgJjpuL2CKEKuEeDr6W5
OBafwSln/YnCQ0CD9EAQysuaO0gD1CsDtdtzEKCcdfd9xdDkn9SFoHf6vaqyKCS0
JcB+qwRsS5+gwND4lHGAZFIRNXNg5vBND9gQo3N3yd8I
-----END CERTIFICATE-----
