Certificate:
    Data:
        Version: 3 (0x2)
        Serial Number: 2205 (0x89d)
    Signature Algorithm: md5WithRSAEncryption
        Issuer: C=US, ST=OH, L=Columbus, O=VikingVPN, OU=MyOrganizationalUnit, CN=VikingVPN CA/name=EasyRSA/emailAddress=me@myhost.mydomain
        Validity
            Not Before: Jul  3 06:00:09 2014 GMT
            Not After : Jun 30 06:00:09 2024 GMT
        Subject: CN=Client470Certb6c9e2
        Subject Public Key Info:
            Public Key Algorithm: rsaEncryption
                Public-Key: (4096 bit)
                Modulus:
                    00:bc:ae:25:39:cf:ad:5e:2c:13:0e:99:55:b6:f6:
                    e0:5c:3e:5b:d4:2d:c7:98:df:de:d5:4b:f5:fd:05:
                    b6:d7:a1:52:db:b0:3e:44:ff:a5:7e:36:37:cd:2f:
                    55:58:0e:3b:b5:3a:09:58:57:3c:90:a7:1d:87:ea:
                    ab:dd:19:16:90:81:92:99:73:ed:8f:a1:87:c3:a4:
                    f8:0d:63:15:2a:41:00:75:96:81:cf:5c:52:d8:89:
                    9c:46:5d:40:3c:de:51:ba:b0:08:d4:c9:0d:6a:9d:
                    f8:b6:9b:5a:a2:c2:64:45:ac:9e:22:fe:ec:f7:90:
                    ac:6e:55:1f:59:48:f8:90:00:b0:db:c1:47:dd:c4:
                    ca:40:6c:87:32:21:8e:80:78:56:4f:78:42:63:f4:
                    33:6f:62:20:ae:4b:29:8f:1a:5c:b2:87:bf:3b:8e:
                    50:d6:48:6d:e0:5f:06:ae:12:66:e1:df:14:a6:a8:
                    74:90:4c:9a:a7:85:90:60:a1:95:c4:9d:d1:98:a3:
                    0a:ad:1c:55:d9:a8:5d:ac:42:10:cd:61:e9:19:e6:
                    a0:8f:bb:4d:ee:28:92:f0:7a:7f:04:6d:40:c1:9f:
                    a5:e5:70:79:95:ec:d1:0f:7c:23:9c:9c:68:17:7a:
                    09:37:b0:62:08:d3:f3:1e:33:a8:18:a1:33:2d:f8:
                    f5:48:78:99:24:d0:69:aa:b2:cf:49:31:f1:31:a3:
                    00:f9:d4:88:fe:3e:4b:bd:a1:fd:0f:4d:03:30:6e:
                    2a:af:4d:60:83:fe:c6:ae:8f:0a:0f:5f:bf:0d:8a:
                    63:a8:ee:9c:fc:95:e0:d7:22:3e:4d:e5:b7:ff:1b:
                    43:9e:58:db:70:99:4a:aa:db:ad:94:8f:84:a6:af:
                    be:48:ab:b6:08:d6:98:9a:64:ce:85:26:7d:3b:32:
                    4e:36:3a:f8:22:c2:d4:a9:51:c6:75:11:b1:4b:f4:
                    a5:0e:3b:a8:c0:b3:13:fc:b0:ef:c1:51:1e:c2:3b:
                    86:52:69:01:bc:95:2d:43:dd:6d:bf:32:cb:46:9b:
                    3f:24:f3:51:f9:01:4a:09:60:a2:ef:9b:40:b9:d5:
                    d8:31:30:22:93:61:09:c5:11:b4:d1:97:b7:07:bc:
                    fe:42:da:99:4f:86:8d:50:b3:16:ae:ce:ef:85:dd:
                    a6:fe:5e:a8:fa:e9:16:41:0b:04:86:ee:17:e0:62:
                    ee:11:ae:27:92:7f:fd:90:97:98:70:27:0c:69:aa:
                    90:a0:4d:e8:8d:24:cd:70:04:de:18:c2:46:fb:e0:
                    d9:dd:fa:9c:4d:a6:fa:ce:85:7c:32:47:12:72:90:
                    60:fb:f0:6b:43:2f:c9:66:77:a6:06:76:fa:04:d6:
                    d5:be:97
                Exponent: 65537 (0x10001)
        X509v3 extensions:
            X509v3 Basic Constraints: 
                CA:FALSE
            Netscape Comment: 
                Easy-RSA Generated Certificate
            X509v3 Subject Key Identifier: 
                7E:C8:D1:AF:0E:BE:C7:8B:C3:99:F0:80:26:BE:AA:74:1E:06:B3:DF
            X509v3 Authority Key Identifier: 
                keyid:12:CD:60:04:D2:A0:80:9E:70:ED:C6:99:B8:7B:2C:C6:52:FD:19:A1
                DirName:/C=US/ST=OH/L=Columbus/O=VikingVPN/OU=MyOrganizationalUnit/CN=VikingVPN CA/name=EasyRSA/emailAddress=me@myhost.mydomain
                serial:CF:35:85:EE:80:BF:2A:3E

            X509v3 Extended Key Usage: 
                TLS Web Client Authentication
            X509v3 Key Usage: 
                Digital Signature
    Signature Algorithm: md5WithRSAEncryption
         e2:42:96:cd:48:af:8b:b9:b8:09:73:e8:75:24:27:ce:b4:e5:
         aa:0d:cb:6f:1b:7f:d0:3d:d6:6f:c6:06:02:bb:c8:55:1c:65:
         86:98:f6:53:44:96:97:ab:bf:70:c0:44:79:25:e6:8f:ca:e4:
         82:8b:93:ca:38:84:10:73:52:66:d2:9f:ba:a9:b1:e1:38:b0:
         36:21:48:d6:8d:1d:9a:3f:9d:fd:f2:1f:1f:78:3c:ca:d8:d0:
         e3:9d:62:f9:99:4e:fb:3f:70:cf:ae:24:a4:a4:63:a0:f8:1e:
         ed:1a:f0:45:0d:0d:b7:d0:2a:8b:92:73:05:fc:63:de:23:0e:
         6c:2e:e4:b2:c2:25:77:fc:c0:4a:6f:e1:58:02:82:f8:af:80:
         44:a0:42:da:6f:68:8e:c4:8a:49:cd:75:f7:9e:d1:be:6d:af:
         68:41:cc:d1:fd:02:18:86:ac:89:52:2a:db:c8:6c:8a:c9:ba:
         14:ec:0c:34:66:02:4a:13:c1:94:11:b4:76:ab:5b:67:a3:96:
         65:a9:3f:d2:36:2d:1d:25:fb:e3:9c:0f:75:b0:05:21:cf:52:
         3a:5b:c1:f0:13:85:ae:f0:1a:6d:9a:56:bc:89:78:65:74:2c:
         01:da:c4:3f:c2:99:06:81:86:5a:83:51:5a:48:b6:9e:d0:d6:
         b1:5b:86:5a:86:16:80:1e:70:fa:74:37:ef:de:90:96:ef:fd:
         28:c0:da:9f:24:c6:35:40:50:d9:3d:6b:ae:aa:90:07:e5:29:
         6f:8b:c4:75:69:85:e1:3f:04:51:6f:0d:ab:90:ad:dd:4a:a3:
         23:09:02:94:1d:f2:fc:71:3b:1f:20:81:61:8f:d2:e5:26:f3:
         b1:78:6c:59:78:88:2d:9d:13:86:f5:1f:a5:6b:a5:af:40:7d:
         f3:70:a0:63:66:5b:39:e8:c4:df:99:c7:78:ae:71:1b:8f:38:
         f4:6a:61:e4:04:ad:4a:16:6c:9d:1a:40:5e:e8:7d:63:0f:2c:
         87:ed:73:01:0e:4a:b8:43:9c:4a:f2:97:95:4c:a5:5c:41:4d:
         46:63:1e:cb:c0:6d:e6:81:7f:60:a4:be:7b:db:5d:b5:90:0b:
         b1:25:56:7d:d7:6c:f0:c3:da:81:0d:ca:12:75:2a:41:45:43:
         b0:52:59:eb:51:87:84:b6:bc:c7:b9:a1:86:d3:f4:14:3f:62:
         46:15:eb:0f:e6:06:06:6f:84:ff:48:db:89:78:dd:b2:01:1d:
         e6:d1:52:ce:7f:70:a2:e0:89:2c:d2:20:32:c4:77:2c:29:84:
         c3:b3:86:bb:45:0b:06:08:cb:e3:c8:6a:bd:90:ca:1e:72:d5:
         4f:ab:35:b1:09:54:ec:c4
-----BEGIN CERTIFICATE-----
MIIGrDCCBJSgAwIBAgICCJ0wDQYJKoZIhvcNAQEEBQAwgawxCzAJBgNVBAYTAlVT
MQswCQYDVQQIEwJPSDERMA8GA1UEBxMIQ29sdW1idXMxEjAQBgNVBAoTCVZpa2lu
Z1ZQTjEdMBsGA1UECxMUTXlPcmdhbml6YXRpb25hbFVuaXQxFTATBgNVBAMTDFZp
a2luZ1ZQTiBDQTEQMA4GA1UEKRMHRWFzeVJTQTEhMB8GCSqGSIb3DQEJARYSbWVA
bXlob3N0Lm15ZG9tYWluMB4XDTE0MDcwMzA2MDAwOVoXDTI0MDYzMDA2MDAwOVow
HjEcMBoGA1UEAxMTQ2xpZW50NDcwQ2VydGI2YzllMjCCAiIwDQYJKoZIhvcNAQEB
BQADggIPADCCAgoCggIBALyuJTnPrV4sEw6ZVbb24Fw+W9Qtx5jf3tVL9f0Ftteh
UtuwPkT/pX42N80vVVgOO7U6CVhXPJCnHYfqq90ZFpCBkplz7Y+hh8Ok+A1jFSpB
AHWWgc9cUtiJnEZdQDzeUbqwCNTJDWqd+LabWqLCZEWsniL+7PeQrG5VH1lI+JAA
sNvBR93EykBshzIhjoB4Vk94QmP0M29iIK5LKY8aXLKHvzuOUNZIbeBfBq4SZuHf
FKaodJBMmqeFkGChlcSd0ZijCq0cVdmoXaxCEM1h6RnmoI+7Te4okvB6fwRtQMGf
peVweZXs0Q98I5ycaBd6CTewYgjT8x4zqBihMy349Uh4mSTQaaqyz0kx8TGjAPnU
iP4+S72h/Q9NAzBuKq9NYIP+xq6PCg9fvw2KY6junPyV4NciPk3lt/8bQ55Y23CZ
SqrbrZSPhKavvkirtgjWmJpkzoUmfTsyTjY6+CLC1KlRxnURsUv0pQ47qMCzE/yw
78FRHsI7hlJpAbyVLUPdbb8yy0abPyTzUfkBSglgou+bQLnV2DEwIpNhCcURtNGX
twe8/kLamU+GjVCzFq7O74Xdpv5eqPrpFkELBIbuF+Bi7hGuJ5J//ZCXmHAnDGmq
kKBN6I0kzXAE3hjCRvvg2d36nE2m+s6FfDJHEnKQYPvwa0MvyWZ3pgZ2+gTW1b6X
AgMBAAGjggFjMIIBXzAJBgNVHRMEAjAAMC0GCWCGSAGG+EIBDQQgFh5FYXN5LVJT
QSBHZW5lcmF0ZWQgQ2VydGlmaWNhdGUwHQYDVR0OBBYEFH7I0a8OvseLw5nwgCa+
qnQeBrPfMIHhBgNVHSMEgdkwgdaAFBLNYATSoICecO3Gmbh7LMZS/RmhoYGypIGv
MIGsMQswCQYDVQQGEwJVUzELMAkGA1UECBMCT0gxETAPBgNVBAcTCENvbHVtYnVz
MRIwEAYDVQQKEwlWaWtpbmdWUE4xHTAbBgNVBAsTFE15T3JnYW5pemF0aW9uYWxV
bml0MRUwEwYDVQQDEwxWaWtpbmdWUE4gQ0ExEDAOBgNVBCkTB0Vhc3lSU0ExITAf
BgkqhkiG9w0BCQEWEm1lQG15aG9zdC5teWRvbWFpboIJAM81he6Avyo+MBMGA1Ud
JQQMMAoGCCsGAQUFBwMCMAsGA1UdDwQEAwIHgDANBgkqhkiG9w0BAQQFAAOCAgEA
4kKWzUivi7m4CXPodSQnzrTlqg3Lbxt/0D3Wb8YGArvIVRxlhpj2U0SWl6u/cMBE
eSXmj8rkgouTyjiEEHNSZtKfuqmx4TiwNiFI1o0dmj+d/fIfH3g8ytjQ451i+ZlO
+z9wz64kpKRjoPge7RrwRQ0Nt9Aqi5JzBfxj3iMObC7kssIld/zASm/hWAKC+K+A
RKBC2m9ojsSKSc11957Rvm2vaEHM0f0CGIasiVIq28hsism6FOwMNGYCShPBlBG0
dqtbZ6OWZak/0jYtHSX745wPdbAFIc9SOlvB8BOFrvAabZpWvIl4ZXQsAdrEP8KZ
BoGGWoNRWki2ntDWsVuGWoYWgB5w+nQ3796Qlu/9KMDanyTGNUBQ2T1rrqqQB+Up
b4vEdWmF4T8EUW8Nq5Ct3UqjIwkClB3y/HE7HyCBYY/S5SbzsXhsWXiILZ0ThvUf
pWulr0B983CgY2ZbOejE35nHeK5xG4849Gph5AStShZsnRpAXuh9Yw8sh+1zAQ5K
uEOcSvKXlUylXEFNRmMey8Bt5oF/YKS+e9tdtZALsSVWfdds8MPagQ3KEnUqQUVD
sFJZ61GHhLa8x7mhhtP0FD9iRhXrD+YGBm+E/0jbiXjdsgEd5tFSzn9wouCJLNIg
MsR3LCmEw7OGu0ULBgjL48hqvZDKHnLVT6s1sQlU7MQ=
-----END CERTIFICATE-----
