Certificate:
    Data:
        Version: 3 (0x2)
        Serial Number: 4305 (0x10d1)
    Signature Algorithm: md5WithRSAEncryption
        Issuer: C=US, ST=OH, L=Columbus, O=VikingVPN, OU=MyOrganizationalUnit, CN=VikingVPN CA/name=EasyRSA/emailAddress=me@myhost.mydomain
        Validity
            Not Before: Jan 28 00:57:16 2015 GMT
            Not After : Jan 25 00:57:16 2025 GMT
        Subject: CN=Client851Cert4e63d4
        Subject Public Key Info:
            Public Key Algorithm: rsaEncryption
                Public-Key: (4096 bit)
                Modulus:
                    00:b0:42:a8:5a:87:ba:4a:73:c4:f7:3b:19:7a:77:
                    d3:e9:f7:e9:eb:f1:4d:0f:68:0b:28:2a:ad:96:dd:
                    ed:de:33:10:4b:be:85:c0:e4:c8:8a:d2:ca:79:e0:
                    50:92:e5:d1:34:cb:c2:7a:7d:a1:3e:d7:76:55:a1:
                    a9:f8:61:c5:bf:f6:1c:6c:6b:2e:56:63:c7:dd:7d:
                    c3:a9:5b:e2:53:bc:61:66:f9:52:05:43:b3:76:34:
                    1c:17:11:08:56:8d:80:83:60:b4:05:23:88:54:91:
                    c6:de:c7:67:10:32:8c:e1:29:79:7e:f3:4a:e6:8d:
                    95:85:87:ad:e5:5e:d6:c6:27:ad:a1:fd:48:99:b2:
                    79:c2:0d:58:fb:26:32:a5:0e:e1:2c:c0:d1:9b:3c:
                    79:00:7a:7a:fd:32:0e:f0:a0:03:6d:93:b6:c7:fa:
                    e0:92:10:7f:e0:c8:ab:1f:2b:36:ea:50:b5:0b:3e:
                    4d:88:a9:52:ca:11:27:1d:8d:b5:f0:c7:cc:53:61:
                    1e:dc:57:75:cb:a6:36:1c:ee:d8:02:c5:b2:c0:89:
                    f6:38:8c:26:e2:2a:a1:9a:78:11:49:cb:0f:6e:ce:
                    a0:2f:0b:5a:f7:f2:80:74:0d:37:e1:3e:70:a0:2f:
                    25:e4:c6:e5:e0:b9:5c:ab:5e:2f:44:a1:31:d5:06:
                    da:fd:0d:1f:1b:fe:8c:f7:07:ba:05:ac:ef:07:8e:
                    a1:e3:c2:a1:9e:2e:22:63:62:b5:0c:20:c5:4c:ce:
                    61:01:ca:e7:92:3e:af:81:f0:93:e7:84:8f:a3:df:
                    53:55:20:a7:72:37:f1:75:4c:b1:b6:91:0f:70:b6:
                    a6:82:63:22:a2:58:16:f0:a0:18:b0:f0:81:22:cd:
                    13:4f:ab:71:87:ba:a5:12:e8:e4:5a:0e:34:26:97:
                    e5:fb:c8:8c:90:48:ec:9a:0f:41:4c:38:b8:b6:ad:
                    40:bd:af:fb:94:ef:cd:1e:26:43:ed:6a:29:77:d7:
                    b1:0a:66:74:01:7e:4f:29:c7:1b:53:31:36:e5:0d:
                    7d:36:12:60:4b:bd:90:f0:ca:c0:7d:67:ee:e6:a8:
                    38:cd:eb:b1:1b:37:f3:52:03:6b:57:84:4a:83:b1:
                    6f:4e:75:7b:ee:8f:f3:a0:db:ec:8f:8d:5e:7f:e4:
                    9a:ba:e3:c5:24:c8:f2:80:18:67:6e:81:71:55:83:
                    2d:8c:42:72:ab:58:90:5c:b8:1e:13:c0:30:2c:86:
                    89:dd:7f:5a:b0:e7:d2:c4:6d:4a:d6:e1:ea:de:63:
                    eb:86:a9:f6:07:c8:be:73:8b:8b:04:b8:e9:61:b6:
                    d1:69:36:21:71:e3:25:81:8e:f4:c8:95:1e:0f:d9:
                    8c:db:d3
                Exponent: 65537 (0x10001)
        X509v3 extensions:
            X509v3 Basic Constraints: 
                CA:FALSE
            Netscape Comment: 
                Easy-RSA Generated Certificate
            X509v3 Subject Key Identifier: 
                85:5A:7D:20:D8:40:7F:63:A2:56:81:CE:2C:B0:93:C0:21:E1:70:8D
            X509v3 Authority Key Identifier: 
                keyid:12:CD:60:04:D2:A0:80:9E:70:ED:C6:99:B8:7B:2C:C6:52:FD:19:A1
                DirName:/C=US/ST=OH/L=Columbus/O=VikingVPN/OU=MyOrganizationalUnit/CN=VikingVPN CA/name=EasyRSA/emailAddress=me@myhost.mydomain
                serial:CF:35:85:EE:80:BF:2A:3E

            X509v3 Extended Key Usage: 
                TLS Web Client Authentication
            X509v3 Key Usage: 
                Digital Signature
    Signature Algorithm: md5WithRSAEncryption
         48:ed:77:64:9b:33:36:c1:3b:2a:ae:f2:8c:df:55:ac:c9:f6:
         71:b7:8c:8c:ce:e1:c7:61:17:a1:9b:18:a0:5e:99:b8:1a:fa:
         0c:42:55:bc:38:3e:39:f8:12:03:f5:42:4e:67:b9:7a:f2:01:
         93:d0:71:70:91:67:3f:4e:ca:99:8a:d5:53:2e:c5:d7:89:aa:
         90:9c:7b:0d:83:ca:73:20:80:cf:3b:08:d2:a0:94:75:01:ea:
         98:a0:43:b2:49:e4:3b:1a:c4:4b:ed:27:a0:03:9c:73:f9:d9:
         9c:d7:1c:a4:6b:72:e8:7c:35:10:ca:02:29:46:15:a7:26:50:
         44:99:26:d3:0d:94:32:09:bf:db:81:16:cd:3d:45:83:33:80:
         5d:6f:92:8b:3c:9f:33:ef:ec:63:8f:a6:3c:a7:58:27:18:bb:
         78:25:d9:39:f2:cf:a1:d2:97:dd:8b:00:5e:71:8c:af:c7:0c:
         22:17:06:43:27:36:62:b3:74:43:83:2d:8f:82:cc:36:d5:e1:
         8b:8e:e8:f9:f3:5b:a3:c7:98:56:5a:65:07:72:9d:ba:c1:1f:
         5b:86:54:1e:4b:95:2b:65:d7:50:e9:90:6c:94:4f:87:d5:2d:
         86:c3:55:23:c7:d4:5f:31:58:a3:c2:d5:55:ad:1c:29:36:44:
         2e:f9:fd:da:10:14:ea:e7:d3:da:9d:70:c3:d7:e5:c0:d7:10:
         96:4c:6d:8a:04:9d:09:bb:ee:ac:f4:63:34:31:6b:bc:c3:7d:
         87:a8:41:b5:01:4c:26:5c:b1:d5:ea:71:6b:a0:93:bd:70:2c:
         fc:87:3f:6e:65:33:d3:87:94:79:a0:25:f3:a6:c8:06:ea:37:
         c8:36:ee:d9:3e:b0:02:5d:53:54:0a:a6:b5:24:db:ae:90:53:
         d1:85:22:f2:f4:f1:07:51:5e:74:69:ba:80:97:82:e1:b4:45:
         54:40:30:1c:ef:87:cd:b0:50:dc:1d:a1:f7:01:2d:9d:85:f7:
         72:6f:eb:4e:48:54:55:55:62:18:a6:ad:0a:c7:dd:ec:9f:c0:
         b6:aa:74:fb:48:f6:34:aa:79:76:1f:07:da:f1:b3:3d:92:a2:
         3a:a7:a5:c3:b6:8a:9d:c3:2f:ac:10:af:c4:9b:15:38:34:94:
         45:66:fd:0f:38:3a:95:4e:5d:fc:b5:be:9f:95:c6:44:34:b4:
         0c:8d:b0:7d:36:79:75:5f:26:66:1f:77:65:04:79:bf:12:74:
         86:a0:1e:33:84:95:ed:4f:5d:9a:45:0f:30:b2:7d:a9:85:76:
         d2:a2:49:e7:60:c6:ec:6b:ab:c2:78:8f:53:7b:87:2d:70:da:
         7d:ef:d4:c2:bc:b9:6f:c0
-----BEGIN CERTIFICATE-----
MIIGrDCCBJSgAwIBAgICENEwDQYJKoZIhvcNAQEEBQAwgawxCzAJBgNVBAYTAlVT
MQswCQYDVQQIEwJPSDERMA8GA1UEBxMIQ29sdW1idXMxEjAQBgNVBAoTCVZpa2lu
Z1ZQTjEdMBsGA1UECxMUTXlPcmdhbml6YXRpb25hbFVuaXQxFTATBgNVBAMTDFZp
a2luZ1ZQTiBDQTEQMA4GA1UEKRMHRWFzeVJTQTEhMB8GCSqGSIb3DQEJARYSbWVA
bXlob3N0Lm15ZG9tYWluMB4XDTE1MDEyODAwNTcxNloXDTI1MDEyNTAwNTcxNlow
HjEcMBoGA1UEAxMTQ2xpZW50ODUxQ2VydDRlNjNkNDCCAiIwDQYJKoZIhvcNAQEB
BQADggIPADCCAgoCggIBALBCqFqHukpzxPc7GXp30+n36evxTQ9oCygqrZbd7d4z
EEu+hcDkyIrSynngUJLl0TTLwnp9oT7XdlWhqfhhxb/2HGxrLlZjx919w6lb4lO8
YWb5UgVDs3Y0HBcRCFaNgINgtAUjiFSRxt7HZxAyjOEpeX7zSuaNlYWHreVe1sYn
raH9SJmyecINWPsmMqUO4SzA0Zs8eQB6ev0yDvCgA22Ttsf64JIQf+DIqx8rNupQ
tQs+TYipUsoRJx2NtfDHzFNhHtxXdcumNhzu2ALFssCJ9jiMJuIqoZp4EUnLD27O
oC8LWvfygHQNN+E+cKAvJeTG5eC5XKteL0ShMdUG2v0NHxv+jPcHugWs7weOoePC
oZ4uImNitQwgxUzOYQHK55I+r4Hwk+eEj6PfU1Ugp3I38XVMsbaRD3C2poJjIqJY
FvCgGLDwgSLNE0+rcYe6pRLo5FoONCaX5fvIjJBI7JoPQUw4uLatQL2v+5TvzR4m
Q+1qKXfXsQpmdAF+TynHG1MxNuUNfTYSYEu9kPDKwH1n7uaoOM3rsRs381IDa1eE
SoOxb051e+6P86Db7I+NXn/kmrrjxSTI8oAYZ26BcVWDLYxCcqtYkFy4HhPAMCyG
id1/WrDn0sRtStbh6t5j64ap9gfIvnOLiwS46WG20Wk2IXHjJYGO9MiVHg/ZjNvT
AgMBAAGjggFjMIIBXzAJBgNVHRMEAjAAMC0GCWCGSAGG+EIBDQQgFh5FYXN5LVJT
QSBHZW5lcmF0ZWQgQ2VydGlmaWNhdGUwHQYDVR0OBBYEFIVafSDYQH9jolaBziyw
k8Ah4XCNMIHhBgNVHSMEgdkwgdaAFBLNYATSoICecO3Gmbh7LMZS/RmhoYGypIGv
MIGsMQswCQYDVQQGEwJVUzELMAkGA1UECBMCT0gxETAPBgNVBAcTCENvbHVtYnVz
MRIwEAYDVQQKEwlWaWtpbmdWUE4xHTAbBgNVBAsTFE15T3JnYW5pemF0aW9uYWxV
bml0MRUwEwYDVQQDEwxWaWtpbmdWUE4gQ0ExEDAOBgNVBCkTB0Vhc3lSU0ExITAf
BgkqhkiG9w0BCQEWEm1lQG15aG9zdC5teWRvbWFpboIJAM81he6Avyo+MBMGA1Ud
JQQMMAoGCCsGAQUFBwMCMAsGA1UdDwQEAwIHgDANBgkqhkiG9w0BAQQFAAOCAgEA
SO13ZJszNsE7Kq7yjN9VrMn2cbeMjM7hx2EXoZsYoF6ZuBr6DEJVvDg+OfgSA/VC
Tme5evIBk9BxcJFnP07KmYrVUy7F14mqkJx7DYPKcyCAzzsI0qCUdQHqmKBDsknk
OxrES+0noAOcc/nZnNccpGty6Hw1EMoCKUYVpyZQRJkm0w2UMgm/24EWzT1FgzOA
XW+SizyfM+/sY4+mPKdYJxi7eCXZOfLPodKX3YsAXnGMr8cMIhcGQyc2YrN0Q4Mt
j4LMNtXhi47o+fNbo8eYVlplB3KdusEfW4ZUHkuVK2XXUOmQbJRPh9UthsNVI8fU
XzFYo8LVVa0cKTZELvn92hAU6ufT2p1ww9flwNcQlkxtigSdCbvurPRjNDFrvMN9
h6hBtQFMJlyx1epxa6CTvXAs/Ic/bmUz04eUeaAl86bIBuo3yDbu2T6wAl1TVAqm
tSTbrpBT0YUi8vTxB1FedGm6gJeC4bRFVEAwHO+HzbBQ3B2h9wEtnYX3cm/rTkhU
VVViGKatCsfd7J/Atqp0+0j2NKp5dh8H2vGzPZKiOqelw7aKncMvrBCvxJsVODSU
RWb9Dzg6lU5d/LW+n5XGRDS0DI2wfTZ5dV8mZh93ZQR5vxJ0hqAeM4SV7U9dmkUP
MLJ9qYV20qJJ52DG7GurwniPU3uHLXDafe/Uwry5b8A=
-----END CERTIFICATE-----
