Certificate:
    Data:
        Version: 3 (0x2)
        Serial Number: 5230 (0x146e)
    Signature Algorithm: md5WithRSAEncryption
        Issuer: C=US, ST=OH, L=Columbus, O=VikingVPN, OU=MyOrganizationalUnit, CN=VikingVPN CA/name=EasyRSA/emailAddress=me@myhost.mydomain
        Validity
            Not Before: May 12 18:33:31 2015 GMT
            Not After : May  9 18:33:31 2025 GMT
        Subject: CN=Client1670Certcab457
        Subject Public Key Info:
            Public Key Algorithm: rsaEncryption
                Public-Key: (4096 bit)
                Modulus:
                    00:bc:dc:0a:87:64:cc:c1:3c:c4:e2:75:07:43:1f:
                    03:a8:63:90:07:7f:87:84:0d:54:65:5d:2f:a2:76:
                    b1:96:68:4f:1b:db:42:fc:88:35:f3:e5:21:b7:b8:
                    36:79:92:9b:bd:4a:6d:e2:53:34:2f:e3:bc:01:25:
                    17:18:3a:43:d0:c5:ec:93:b3:b8:c4:82:0e:2a:c2:
                    b7:ba:7d:92:89:fb:43:28:b9:17:93:f7:7c:f5:59:
                    30:66:36:09:e9:10:0a:88:c6:eb:46:a9:e5:a7:34:
                    2d:1f:93:03:88:07:a6:24:ec:fb:8a:a6:72:3d:75:
                    2d:71:b1:19:d9:34:11:38:90:be:8d:c5:f6:b6:1b:
                    bc:9b:5e:e7:29:fe:03:8b:6d:92:c6:8a:d6:63:a1:
                    cc:47:8a:15:44:56:fa:9c:30:96:e8:e1:ab:8a:23:
                    61:4f:59:11:fd:89:b4:55:6a:64:14:0b:dc:6c:54:
                    9c:12:67:f8:af:3c:60:81:7d:73:25:3f:87:23:f3:
                    0e:72:57:7a:63:13:b4:92:61:5f:04:20:87:41:ae:
                    4b:19:ee:e9:15:5c:68:82:0d:20:63:ec:03:19:62:
                    b9:91:e9:ec:20:6b:33:c7:ef:c0:e8:3b:0e:05:76:
                    ce:62:91:5b:7f:1d:ca:96:04:77:de:75:51:9e:94:
                    f6:6b:85:a5:a2:ed:35:30:dd:82:bf:eb:60:ce:07:
                    5b:e7:37:65:e1:b3:46:cd:4d:b5:02:17:8c:06:36:
                    80:4e:db:8d:b7:a0:de:92:67:f4:b6:45:34:36:84:
                    23:a5:79:eb:33:76:2e:fc:85:d4:0d:a6:f2:ca:e5:
                    65:fa:71:ad:c5:15:8f:1c:dd:52:95:ce:15:45:80:
                    66:3f:eb:bb:30:62:e4:b4:6a:9d:17:97:a4:00:4a:
                    52:0d:ee:9e:11:45:1d:f7:ca:e6:99:75:34:8c:fe:
                    a2:38:12:df:7e:32:70:25:3e:02:c6:e8:c1:8a:19:
                    df:52:8d:53:ab:bb:d7:c2:41:c4:28:6a:3f:5b:f1:
                    53:24:eb:11:d2:54:18:ec:ad:43:f5:be:22:db:98:
                    84:22:86:1e:5a:f7:a5:d6:d1:b1:05:3b:1e:da:94:
                    38:c7:d6:11:d7:74:1e:16:67:a7:5a:98:ee:92:c8:
                    5a:d3:a3:b1:4f:67:be:bd:e1:0b:b9:11:9c:9e:64:
                    9f:f1:9b:8b:55:e8:a4:d0:f8:0b:d2:57:1c:dd:5d:
                    94:a9:fb:0e:f4:bd:d5:2a:3d:e9:8e:79:de:c8:0e:
                    6b:45:5e:f9:09:20:63:77:f5:34:ae:1b:35:c4:b7:
                    64:34:81:cd:de:c0:b1:61:eb:2c:a3:e5:68:64:45:
                    7b:10:e7
                Exponent: 65537 (0x10001)
        X509v3 extensions:
            X509v3 Basic Constraints: 
                CA:FALSE
            Netscape Comment: 
                Easy-RSA Generated Certificate
            X509v3 Subject Key Identifier: 
                88:99:75:FB:63:F3:80:35:0C:4E:DC:23:B6:F5:D3:80:39:6C:2A:F8
            X509v3 Authority Key Identifier: 
                keyid:12:CD:60:04:D2:A0:80:9E:70:ED:C6:99:B8:7B:2C:C6:52:FD:19:A1
                DirName:/C=US/ST=OH/L=Columbus/O=VikingVPN/OU=MyOrganizationalUnit/CN=VikingVPN CA/name=EasyRSA/emailAddress=me@myhost.mydomain
                serial:CF:35:85:EE:80:BF:2A:3E

            X509v3 Extended Key Usage: 
                TLS Web Client Authentication
            X509v3 Key Usage: 
                Digital Signature
    Signature Algorithm: md5WithRSAEncryption
         48:6e:ef:95:f8:5f:a3:7b:e0:51:2e:c3:89:22:31:e1:00:2c:
         07:1b:34:92:58:7f:5c:d3:03:96:d6:1e:c7:f9:3b:76:97:9c:
         21:55:7a:88:47:be:4f:4a:ea:f8:cf:1c:09:c3:9e:92:79:73:
         e4:e6:16:a3:f3:9a:6c:e3:10:05:a1:91:d0:b2:e8:59:de:2b:
         fd:37:d3:a0:ff:8a:6b:80:46:c8:b6:7e:05:f7:5f:38:81:9a:
         f9:74:dc:d5:49:37:fa:32:5d:d6:6b:6f:17:6f:2c:c2:c0:b0:
         50:5c:96:1d:34:74:16:a2:08:0b:bc:31:33:af:1f:56:87:c6:
         dc:e7:b9:8f:8c:cf:35:c3:38:0e:59:e7:90:2f:ea:fc:9e:11:
         3e:a9:7b:d6:76:36:be:c1:ea:69:55:4c:54:dc:cc:c9:78:3c:
         dd:ec:c3:7f:e6:03:16:2f:43:0d:7d:fb:44:17:6c:ff:8e:be:
         79:d6:2a:cb:29:50:ae:68:cb:a7:2a:e1:4b:51:1c:4e:38:e2:
         61:b7:5d:93:87:da:96:ad:0f:07:aa:de:1f:f2:11:d2:90:66:
         40:32:8e:16:b6:c9:01:1b:26:88:ab:00:64:6a:fc:54:84:e5:
         9f:f8:f2:c2:ec:19:91:ca:5d:6f:65:05:f9:2f:89:1c:08:f7:
         13:14:a6:38:b6:a1:56:fc:e5:c3:e3:42:08:51:d7:68:99:ae:
         ff:c6:19:78:6d:34:d9:46:6c:d6:38:22:9d:7f:d5:0b:7b:00:
         52:9d:8b:b8:5c:f5:f3:da:68:00:00:a7:2c:ad:41:d3:22:b0:
         26:e0:d4:0e:96:47:ee:ac:e6:19:2c:cf:c2:42:bc:a8:2f:72:
         93:ff:46:4d:5f:19:16:d3:79:f6:72:b7:96:43:fe:d7:b0:1e:
         f6:8e:37:ca:19:22:7d:d9:e3:db:a3:b7:c7:e1:3e:e4:d4:b6:
         39:72:b9:65:34:81:94:9e:97:c1:8a:ee:c7:19:fe:e4:ee:9e:
         a2:6e:55:ce:d8:61:90:ec:18:62:4c:a2:8d:33:69:7b:0a:1b:
         28:0d:16:37:c3:c1:75:0f:70:2d:79:48:fa:be:d6:0a:e3:38:
         de:73:b3:58:ab:41:2b:e4:32:04:a3:30:45:ab:0a:49:cc:48:
         30:7e:35:7a:eb:1b:96:9b:58:f0:ef:36:01:65:26:03:a3:ab:
         b6:c3:63:ba:f7:47:0a:4d:37:53:ce:c7:fb:e2:e1:0a:52:88:
         5a:be:4b:3e:33:c2:38:ad:a3:76:bd:28:6c:77:bc:ef:2b:e1:
         56:44:2b:6f:78:f8:3d:ae:96:ef:35:28:34:62:d3:37:43:98:
         a1:c6:0e:5a:6c:94:03:6f
-----BEGIN CERTIFICATE-----
MIIGrTCCBJWgAwIBAgICFG4wDQYJKoZIhvcNAQEEBQAwgawxCzAJBgNVBAYTAlVT
MQswCQYDVQQIEwJPSDERMA8GA1UEBxMIQ29sdW1idXMxEjAQBgNVBAoTCVZpa2lu
Z1ZQTjEdMBsGA1UECxMUTXlPcmdhbml6YXRpb25hbFVuaXQxFTATBgNVBAMTDFZp
a2luZ1ZQTiBDQTEQMA4GA1UEKRMHRWFzeVJTQTEhMB8GCSqGSIb3DQEJARYSbWVA
bXlob3N0Lm15ZG9tYWluMB4XDTE1MDUxMjE4MzMzMVoXDTI1MDUwOTE4MzMzMVow
HzEdMBsGA1UEAxMUQ2xpZW50MTY3MENlcnRjYWI0NTcwggIiMA0GCSqGSIb3DQEB
AQUAA4ICDwAwggIKAoICAQC83AqHZMzBPMTidQdDHwOoY5AHf4eEDVRlXS+idrGW
aE8b20L8iDXz5SG3uDZ5kpu9Sm3iUzQv47wBJRcYOkPQxeyTs7jEgg4qwre6fZKJ
+0MouReT93z1WTBmNgnpEAqIxutGqeWnNC0fkwOIB6Yk7PuKpnI9dS1xsRnZNBE4
kL6Nxfa2G7ybXucp/gOLbZLGitZjocxHihVEVvqcMJbo4auKI2FPWRH9ibRVamQU
C9xsVJwSZ/ivPGCBfXMlP4cj8w5yV3pjE7SSYV8EIIdBrksZ7ukVXGiCDSBj7AMZ
YrmR6ewgazPH78DoOw4Fds5ikVt/HcqWBHfedVGelPZrhaWi7TUw3YK/62DOB1vn
N2Xhs0bNTbUCF4wGNoBO2423oN6SZ/S2RTQ2hCOleeszdi78hdQNpvLK5WX6ca3F
FY8c3VKVzhVFgGY/67swYuS0ap0Xl6QASlIN7p4RRR33yuaZdTSM/qI4Et9+MnAl
PgLG6MGKGd9SjVOru9fCQcQoaj9b8VMk6xHSVBjsrUP1viLbmIQihh5a96XW0bEF
Ox7alDjH1hHXdB4WZ6damO6SyFrTo7FPZ7694Qu5EZyeZJ/xm4tV6KTQ+AvSVxzd
XZSp+w70vdUqPemOed7IDmtFXvkJIGN39TSuGzXEt2Q0gc3ewLFh6yyj5WhkRXsQ
5wIDAQABo4IBYzCCAV8wCQYDVR0TBAIwADAtBglghkgBhvhCAQ0EIBYeRWFzeS1S
U0EgR2VuZXJhdGVkIENlcnRpZmljYXRlMB0GA1UdDgQWBBSImXX7Y/OANQxO3CO2
9dOAOWwq+DCB4QYDVR0jBIHZMIHWgBQSzWAE0qCAnnDtxpm4eyzGUv0ZoaGBsqSB
rzCBrDELMAkGA1UEBhMCVVMxCzAJBgNVBAgTAk9IMREwDwYDVQQHEwhDb2x1bWJ1
czESMBAGA1UEChMJVmlraW5nVlBOMR0wGwYDVQQLExRNeU9yZ2FuaXphdGlvbmFs
VW5pdDEVMBMGA1UEAxMMVmlraW5nVlBOIENBMRAwDgYDVQQpEwdFYXN5UlNBMSEw
HwYJKoZIhvcNAQkBFhJtZUBteWhvc3QubXlkb21haW6CCQDPNYXugL8qPjATBgNV
HSUEDDAKBggrBgEFBQcDAjALBgNVHQ8EBAMCB4AwDQYJKoZIhvcNAQEEBQADggIB
AEhu75X4X6N74FEuw4kiMeEALAcbNJJYf1zTA5bWHsf5O3aXnCFVeohHvk9K6vjP
HAnDnpJ5c+TmFqPzmmzjEAWhkdCy6FneK/0306D/imuARsi2fgX3XziBmvl03NVJ
N/oyXdZrbxdvLMLAsFBclh00dBaiCAu8MTOvH1aHxtznuY+MzzXDOA5Z55Av6vye
ET6pe9Z2Nr7B6mlVTFTczMl4PN3sw3/mAxYvQw19+0QXbP+OvnnWKsspUK5oy6cq
4UtRHE444mG3XZOH2patDweq3h/yEdKQZkAyjha2yQEbJoirAGRq/FSE5Z/48sLs
GZHKXW9lBfkviRwI9xMUpji2oVb85cPjQghR12iZrv/GGXhtNNlGbNY4Ip1/1Qt7
AFKdi7hc9fPaaAAApyytQdMisCbg1A6WR+6s5hksz8JCvKgvcpP/Rk1fGRbTefZy
t5ZD/tewHvaON8oZIn3Z49ujt8fhPuTUtjlyuWU0gZSel8GK7scZ/uTunqJuVc7Y
YZDsGGJMoo0zaXsKGygNFjfDwXUPcC15SPq+1grjON5zs1irQSvkMgSjMEWrCknM
SDB+NXrrG5abWPDvNgFlJgOjq7bDY7r3RwpNN1POx/vi4QpSiFq+Sz4zwjito3a9
KGx3vO8r4VZEK294+D2ulu81KDRi0zdDmKHGDlpslANv
-----END CERTIFICATE-----
