Certificate:
    Data:
        Version: 3 (0x2)
        Serial Number: 5493 (0x1575)
    Signature Algorithm: md5WithRSAEncryption
        Issuer: C=US, ST=OH, L=Columbus, O=VikingVPN, OU=MyOrganizationalUnit, CN=VikingVPN CA/name=EasyRSA/emailAddress=me@myhost.mydomain
        Validity
            Not Before: Jun  6 07:00:40 2015 GMT
            Not After : Jun  3 07:00:40 2025 GMT
        Subject: CN=Client1740Certaaea38
        Subject Public Key Info:
            Public Key Algorithm: rsaEncryption
                Public-Key: (4096 bit)
                Modulus:
                    00:a4:58:44:bc:5f:8f:94:24:9b:b3:e9:cc:e3:ee:
                    89:15:71:e2:73:69:eb:a7:c0:0d:61:3c:68:15:60:
                    6d:27:78:84:5a:51:31:68:82:73:bc:1e:01:ac:c8:
                    7f:5b:99:7c:4f:fa:fd:1a:44:8d:bd:29:c3:7f:c7:
                    a5:40:bf:b6:6f:3f:f4:4b:5d:cb:c0:f8:14:d4:9a:
                    f7:4a:60:e2:53:a5:28:dd:7a:d6:fe:cb:71:d6:68:
                    69:21:8a:9b:5e:1b:70:6c:fc:45:8b:02:25:bd:96:
                    2c:9b:a9:46:1e:bc:9d:7c:33:09:4a:56:b8:c8:ad:
                    3d:8a:22:99:49:9c:20:a5:a5:12:11:15:7d:4b:0f:
                    49:76:92:58:bf:5c:75:8d:9c:67:9e:d3:a1:41:e4:
                    23:b3:8e:b7:fa:d7:ef:2e:b0:7a:c0:14:1e:86:b9:
                    9f:b3:59:d4:64:d4:ca:ab:95:bd:5c:38:20:dc:7c:
                    ea:19:5f:1d:b2:d0:31:58:43:ee:19:bc:ea:f0:c4:
                    fe:fc:5a:ec:f3:87:a2:e0:24:d0:5f:6a:b5:dc:15:
                    38:6a:2a:b9:5f:64:a0:b7:67:2b:12:27:ff:32:b2:
                    8e:0d:98:2c:c4:38:e7:72:62:05:43:c8:44:25:26:
                    d5:09:c9:ae:ef:8a:d1:bd:c1:c0:f8:49:28:f2:7d:
                    90:74:f2:e8:3d:39:2e:68:5b:51:84:aa:15:e0:8d:
                    5c:0f:fa:4c:30:01:44:76:fa:5c:d4:d2:ff:49:3d:
                    bf:e2:3f:c5:e8:91:8a:0b:e0:00:c9:e7:1b:c7:d5:
                    7c:79:8a:a6:e2:4c:8f:d3:60:45:68:94:67:05:42:
                    8b:58:f8:1c:4b:db:8d:de:50:73:81:a2:b8:3d:c4:
                    3f:7a:42:30:ef:34:87:49:a8:6a:a9:74:a6:cb:a7:
                    bc:58:c4:03:79:1d:c2:b0:c1:6a:d6:f6:27:43:24:
                    e1:2e:b8:cb:db:d6:49:25:69:df:95:57:88:dd:85:
                    52:f3:99:01:7a:7d:ca:fa:ca:15:d1:4d:80:6b:f4:
                    7f:35:ba:fa:7f:e7:b5:cc:e0:68:b4:fc:68:dc:de:
                    52:79:41:5d:6c:fe:99:2a:80:bf:44:ac:0e:6a:a2:
                    c2:00:d9:a0:65:05:61:23:44:93:15:90:8f:18:bc:
                    9d:10:fb:f9:9c:b4:4d:16:58:3b:79:c6:59:8c:a5:
                    e3:bc:86:96:e9:66:fb:b2:5e:91:2d:a0:a9:dc:fd:
                    c0:bf:1d:6b:d8:2e:95:29:f5:5e:7b:30:6c:c3:a7:
                    f4:50:f6:5a:96:7a:d3:cc:1b:57:58:fa:2c:dc:db:
                    b0:da:b8:d4:c3:aa:f6:5b:89:15:5f:c8:22:61:9d:
                    bb:da:39
                Exponent: 65537 (0x10001)
        X509v3 extensions:
            X509v3 Basic Constraints: 
                CA:FALSE
            Netscape Comment: 
                Easy-RSA Generated Certificate
            X509v3 Subject Key Identifier: 
                A6:BE:22:22:8B:42:C9:F5:E9:05:A0:E4:76:0D:7C:07:D7:89:BE:12
            X509v3 Authority Key Identifier: 
                keyid:12:CD:60:04:D2:A0:80:9E:70:ED:C6:99:B8:7B:2C:C6:52:FD:19:A1
                DirName:/C=US/ST=OH/L=Columbus/O=VikingVPN/OU=MyOrganizationalUnit/CN=VikingVPN CA/name=EasyRSA/emailAddress=me@myhost.mydomain
                serial:CF:35:85:EE:80:BF:2A:3E

            X509v3 Extended Key Usage: 
                TLS Web Client Authentication
            X509v3 Key Usage: 
                Digital Signature
    Signature Algorithm: md5WithRSAEncryption
         00:75:6b:96:cc:68:a1:1c:88:47:67:51:2d:83:f8:3a:2d:03:
         5e:bb:00:db:4f:bd:e0:72:b2:e0:90:a6:f0:02:f9:c5:02:87:
         9f:c9:02:41:c6:1f:49:55:3b:95:09:bf:65:0f:a3:af:93:18:
         0c:c6:4d:2f:f2:bd:b8:3f:b1:01:78:af:1c:78:bb:e7:a6:92:
         f6:77:5e:99:3e:4f:13:f0:8f:2d:49:dd:74:c8:a2:d5:5b:f8:
         85:aa:93:8d:29:8e:fb:18:b4:ca:3b:f3:ea:a9:6c:00:6b:e1:
         17:a7:87:77:7c:63:25:39:e1:82:1f:63:d9:22:0e:2d:ad:96:
         d0:eb:c5:dc:c1:c6:3b:16:3a:95:c5:46:ce:bf:e3:9c:bd:08:
         ff:46:72:06:69:c5:9c:86:6a:04:84:50:2f:74:10:72:50:7e:
         03:63:0e:4c:4f:76:4b:0a:01:e8:ef:7e:0c:4a:b1:bd:04:f3:
         c5:88:bf:70:5c:d2:28:a2:08:fa:f3:f7:78:cd:fe:95:ab:4b:
         f0:1a:13:fc:52:2c:96:02:d0:9c:01:09:5c:e6:be:78:43:63:
         9d:66:8e:20:9a:55:e6:f2:d1:f4:06:a3:12:31:13:c5:01:d4:
         1b:60:b4:ea:7e:da:77:50:04:05:2b:c5:5b:8e:db:1a:11:1e:
         9c:eb:0e:e1:2e:96:fa:fa:fc:60:17:5c:a0:39:7c:3f:da:74:
         d5:5a:cd:89:11:a1:45:36:e6:97:f3:51:e0:ae:cb:50:d5:d0:
         05:b6:d4:97:04:31:a3:1e:54:3b:e8:7e:dd:56:d8:4b:f0:a4:
         a8:1f:6a:b5:18:86:2d:0d:31:63:6e:7c:50:c3:87:5a:10:34:
         19:f1:69:27:3e:72:2f:b1:c7:14:46:20:31:5e:3d:1d:f4:ba:
         95:72:ec:b6:e9:08:a0:11:ee:46:1f:5e:bd:cb:97:c8:40:9e:
         cc:b4:9b:b3:47:02:0c:b6:0f:6e:4c:69:f0:73:3c:98:98:76:
         60:ff:42:2b:f2:f8:c5:c9:60:8b:c0:78:fc:19:be:51:52:ca:
         41:89:9f:0f:f4:5f:0b:27:6a:83:3a:df:98:46:76:62:2e:40:
         3a:7d:65:f0:52:5e:38:a6:23:21:2b:20:56:94:10:97:73:10:
         a0:66:15:23:2a:9e:95:98:55:c6:b7:b6:64:2c:d6:91:9a:05:
         71:4a:2a:50:2b:fd:c0:ea:f1:87:a9:45:96:43:ff:43:f7:8a:
         52:db:fe:38:a0:77:95:ac:a9:c7:57:4c:63:76:6a:d9:fc:c0:
         08:67:79:2f:a1:41:4c:6e:ce:fa:e6:97:68:12:a5:1b:8b:d1:
         1e:f6:f1:dd:34:f4:6b:5d
-----BEGIN CERTIFICATE-----
MIIGrTCCBJWgAwIBAgICFXUwDQYJKoZIhvcNAQEEBQAwgawxCzAJBgNVBAYTAlVT
MQswCQYDVQQIEwJPSDERMA8GA1UEBxMIQ29sdW1idXMxEjAQBgNVBAoTCVZpa2lu
Z1ZQTjEdMBsGA1UECxMUTXlPcmdhbml6YXRpb25hbFVuaXQxFTATBgNVBAMTDFZp
a2luZ1ZQTiBDQTEQMA4GA1UEKRMHRWFzeVJTQTEhMB8GCSqGSIb3DQEJARYSbWVA
bXlob3N0Lm15ZG9tYWluMB4XDTE1MDYwNjA3MDA0MFoXDTI1MDYwMzA3MDA0MFow
HzEdMBsGA1UEAxMUQ2xpZW50MTc0MENlcnRhYWVhMzgwggIiMA0GCSqGSIb3DQEB
AQUAA4ICDwAwggIKAoICAQCkWES8X4+UJJuz6czj7okVceJzaeunwA1hPGgVYG0n
eIRaUTFognO8HgGsyH9bmXxP+v0aRI29KcN/x6VAv7ZvP/RLXcvA+BTUmvdKYOJT
pSjdetb+y3HWaGkhipteG3Bs/EWLAiW9liybqUYevJ18MwlKVrjIrT2KIplJnCCl
pRIRFX1LD0l2kli/XHWNnGee06FB5COzjrf61+8usHrAFB6GuZ+zWdRk1Mqrlb1c
OCDcfOoZXx2y0DFYQ+4ZvOrwxP78Wuzzh6LgJNBfarXcFThqKrlfZKC3ZysSJ/8y
so4NmCzEOOdyYgVDyEQlJtUJya7vitG9wcD4SSjyfZB08ug9OS5oW1GEqhXgjVwP
+kwwAUR2+lzU0v9JPb/iP8XokYoL4ADJ5xvH1Xx5iqbiTI/TYEVolGcFQotY+BxL
243eUHOBorg9xD96QjDvNIdJqGqpdKbLp7xYxAN5HcKwwWrW9idDJOEuuMvb1kkl
ad+VV4jdhVLzmQF6fcr6yhXRTYBr9H81uvp/57XM4Gi0/Gjc3lJ5QV1s/pkqgL9E
rA5qosIA2aBlBWEjRJMVkI8YvJ0Q+/mctE0WWDt5xlmMpeO8hpbpZvuyXpEtoKnc
/cC/HWvYLpUp9V57MGzDp/RQ9lqWetPMG1dY+izc27DauNTDqvZbiRVfyCJhnbva
OQIDAQABo4IBYzCCAV8wCQYDVR0TBAIwADAtBglghkgBhvhCAQ0EIBYeRWFzeS1S
U0EgR2VuZXJhdGVkIENlcnRpZmljYXRlMB0GA1UdDgQWBBSmviIii0LJ9ekFoOR2
DXwH14m+EjCB4QYDVR0jBIHZMIHWgBQSzWAE0qCAnnDtxpm4eyzGUv0ZoaGBsqSB
rzCBrDELMAkGA1UEBhMCVVMxCzAJBgNVBAgTAk9IMREwDwYDVQQHEwhDb2x1bWJ1
czESMBAGA1UEChMJVmlraW5nVlBOMR0wGwYDVQQLExRNeU9yZ2FuaXphdGlvbmFs
VW5pdDEVMBMGA1UEAxMMVmlraW5nVlBOIENBMRAwDgYDVQQpEwdFYXN5UlNBMSEw
HwYJKoZIhvcNAQkBFhJtZUBteWhvc3QubXlkb21haW6CCQDPNYXugL8qPjATBgNV
HSUEDDAKBggrBgEFBQcDAjALBgNVHQ8EBAMCB4AwDQYJKoZIhvcNAQEEBQADggIB
AAB1a5bMaKEciEdnUS2D+DotA167ANtPveBysuCQpvAC+cUCh5/JAkHGH0lVO5UJ
v2UPo6+TGAzGTS/yvbg/sQF4rxx4u+emkvZ3Xpk+TxPwjy1J3XTIotVb+IWqk40p
jvsYtMo78+qpbABr4Renh3d8YyU54YIfY9kiDi2tltDrxdzBxjsWOpXFRs6/45y9
CP9GcgZpxZyGagSEUC90EHJQfgNjDkxPdksKAejvfgxKsb0E88WIv3Bc0iiiCPrz
93jN/pWrS/AaE/xSLJYC0JwBCVzmvnhDY51mjiCaVeby0fQGoxIxE8UB1BtgtOp+
2ndQBAUrxVuO2xoRHpzrDuEulvr6/GAXXKA5fD/adNVazYkRoUU25pfzUeCuy1DV
0AW21JcEMaMeVDvoft1W2EvwpKgfarUYhi0NMWNufFDDh1oQNBnxaSc+ci+xxxRG
IDFePR30upVy7LbpCKAR7kYfXr3Ll8hAnsy0m7NHAgy2D25MafBzPJiYdmD/Qivy
+MXJYIvAePwZvlFSykGJnw/0XwsnaoM635hGdmIuQDp9ZfBSXjimIyErIFaUEJdz
EKBmFSMqnpWYVca3tmQs1pGaBXFKKlAr/cDq8YepRZZD/0P3ilLb/jigd5WsqcdX
TGN2atn8wAhneS+hQUxuzvrml2gSpRuL0R728d009Gtd
-----END CERTIFICATE-----
