Certificate:
    Data:
        Version: 3 (0x2)
        Serial Number: 791 (0x317)
    Signature Algorithm: md5WithRSAEncryption
        Issuer: C=US, ST=OH, L=Columbus, O=VikingVPN, OU=MyOrganizationalUnit, CN=VikingVPN CA/name=EasyRSA/emailAddress=me@myhost.mydomain
        Validity
            Not Before: Jan 19 03:21:09 2014 GMT
            Not After : Jan 17 03:21:09 2024 GMT
        Subject: CN=Client43Certb13669
        Subject Public Key Info:
            Public Key Algorithm: rsaEncryption
                Public-Key: (4096 bit)
                Modulus:
                    00:cc:d9:d1:0f:6b:f9:3e:52:74:be:39:9a:06:d7:
                    76:40:ec:e8:60:69:7b:29:11:bb:a7:54:b5:e2:3c:
                    dd:4e:e1:0a:9a:47:6b:9a:65:ac:a5:44:8f:ee:14:
                    92:37:4a:05:cc:d6:65:e5:bd:9b:a6:bd:66:78:04:
                    7d:79:34:f0:7a:e5:8d:e2:10:70:1d:7e:64:43:f1:
                    e0:b8:87:28:17:d7:9d:c0:69:d2:a0:15:a3:3b:20:
                    77:6c:be:31:3a:c0:dd:3d:0c:72:e0:97:fc:b4:ee:
                    83:53:ae:77:35:f1:19:90:4f:b4:be:41:a7:57:48:
                    41:9e:98:15:fc:c5:45:27:81:3a:73:44:d5:72:83:
                    0d:7a:c7:88:c0:3b:56:7c:71:d0:24:54:bb:81:fa:
                    a1:b0:dc:5e:fc:65:ee:f5:2e:95:40:ea:fe:b5:7b:
                    00:b2:16:b0:1f:ce:4d:a4:63:bf:54:80:04:e0:c8:
                    e2:93:5b:4d:81:f8:71:61:ab:51:59:ce:04:ac:0a:
                    e0:e9:bd:a4:fa:b6:10:e8:95:02:04:b4:b4:ab:6e:
                    6a:63:8b:8d:30:7e:df:68:52:0a:e6:6a:00:ad:87:
                    77:05:05:88:e0:17:f8:51:91:d2:e6:74:c5:9b:93:
                    49:d3:e4:81:e9:a6:bf:ee:9a:75:2f:8d:41:52:7d:
                    77:55:07:0e:7b:39:c5:de:5c:dd:49:79:c9:5a:93:
                    17:13:43:e8:78:25:ae:d3:2a:27:8c:17:80:8f:d2:
                    dd:36:fa:b8:a7:06:4e:63:c1:bb:bb:90:c1:7d:e4:
                    7c:90:52:15:f3:a7:a6:04:0a:d7:90:68:34:7f:f9:
                    b3:1f:70:86:42:2d:66:06:54:aa:29:5b:81:c2:9f:
                    3e:68:29:d9:70:df:f8:64:55:f6:f5:74:30:83:98:
                    6c:b5:a3:1e:dc:f2:bb:e4:f9:be:a3:f2:87:6d:23:
                    22:9e:1d:6e:d4:44:d1:01:c9:f4:26:d9:89:8e:82:
                    f2:4c:fe:89:73:e7:52:f4:83:8a:4d:0c:56:32:7e:
                    17:1f:42:a5:44:7e:62:d6:b0:52:11:5c:b0:57:d4:
                    29:f9:e9:81:6d:9d:3a:78:45:dc:d5:2f:29:5e:25:
                    ec:a7:1b:1b:19:59:5a:63:04:95:26:ba:ca:30:bb:
                    62:f4:9f:96:8b:40:06:5f:5e:f9:4a:95:fe:b3:10:
                    88:7b:88:0f:75:63:37:e2:29:3c:32:34:07:d4:2e:
                    15:04:09:8e:90:fa:3a:f4:f9:ab:28:56:fa:e6:61:
                    c2:15:af:ba:f1:ca:95:6d:72:c0:07:fe:ed:a1:c3:
                    4d:86:50:02:65:d9:8f:f5:dc:e3:50:23:ca:69:ae:
                    4e:fe:cb
                Exponent: 65537 (0x10001)
        X509v3 extensions:
            X509v3 Basic Constraints: 
                CA:FALSE
            Netscape Comment: 
                Easy-RSA Generated Certificate
            X509v3 Subject Key Identifier: 
                3F:1A:70:11:F7:90:F9:C5:2B:6A:77:8B:03:2B:E2:EB:12:1D:4F:85
            X509v3 Authority Key Identifier: 
                keyid:12:CD:60:04:D2:A0:80:9E:70:ED:C6:99:B8:7B:2C:C6:52:FD:19:A1
                DirName:/C=US/ST=OH/L=Columbus/O=VikingVPN/OU=MyOrganizationalUnit/CN=VikingVPN CA/name=EasyRSA/emailAddress=me@myhost.mydomain
                serial:CF:35:85:EE:80:BF:2A:3E

            X509v3 Extended Key Usage: 
                TLS Web Client Authentication
            X509v3 Key Usage: 
                Digital Signature
    Signature Algorithm: md5WithRSAEncryption
         cb:6a:f0:44:b8:15:fe:50:95:d1:fb:da:a2:eb:3e:c4:77:7d:
         8c:bb:dc:d5:f5:c0:28:f5:6e:b5:8d:13:88:11:48:97:f4:e6:
         f2:59:8c:57:76:d8:50:f1:a6:e7:3b:a4:d4:ea:5a:18:f7:88:
         c1:68:1c:8f:57:92:88:cf:1f:49:e6:88:0a:3f:7a:f0:be:56:
         06:95:66:47:e2:67:31:f0:71:e9:0e:34:00:bc:17:88:19:d9:
         12:7d:d8:58:81:50:00:4f:e3:82:74:7e:c1:76:96:69:56:78:
         26:ea:ab:5a:37:41:91:4f:b5:66:73:31:73:d3:26:04:bd:0b:
         1c:c4:56:f7:ec:c9:e3:40:33:95:91:a0:bb:fb:d6:a2:9c:6f:
         50:7f:ae:f7:a0:6e:c2:e7:6b:14:34:70:c4:66:31:11:85:c0:
         69:2a:5d:85:ff:68:b3:a1:d7:37:59:76:5f:84:2b:2c:56:b7:
         53:8d:71:cc:87:a8:bd:ec:39:bf:ad:ce:72:26:b9:24:16:a7:
         ea:59:84:a9:de:aa:62:30:66:4a:25:a6:82:65:7a:1a:ec:4d:
         e9:84:73:0f:22:eb:27:a7:49:1d:e8:83:af:8a:be:20:da:0e:
         cf:3c:7f:cd:4b:85:04:74:bb:18:56:90:c8:26:19:f4:fb:68:
         e7:b5:37:9b:d5:7a:2e:82:7c:38:a5:f6:b6:1c:47:8d:85:27:
         3a:a9:af:46:ff:53:36:7c:cb:c3:e7:6a:3a:d2:a7:bf:6c:3b:
         13:6b:a1:1e:5a:18:27:9c:6e:34:56:05:cd:bc:aa:11:a3:c3:
         2c:32:1d:e0:1a:4f:d5:91:86:e6:b0:09:76:b2:1a:e6:e1:53:
         2b:2a:ab:04:10:bd:cf:b5:16:8b:1b:69:b1:f9:14:ec:9b:e9:
         ee:82:9f:89:e9:63:40:45:97:e9:c0:ae:d9:28:ac:b6:68:b3:
         0a:ed:88:5b:49:c2:75:49:c7:e9:b9:2a:01:04:c4:2f:24:d4:
         38:15:67:2b:e4:7c:be:f9:96:c8:96:6a:db:3d:3f:cc:ae:c0:
         57:39:c9:48:3e:d4:12:09:01:b3:d5:d8:90:b4:39:e8:d7:2c:
         d0:27:a1:39:d1:18:a4:b9:7f:c2:a1:f8:21:6c:1e:15:99:33:
         44:8a:6e:ec:0e:15:37:fc:8d:f3:c5:59:1f:6a:8b:99:a5:84:
         2a:ae:35:e5:26:5f:87:13:78:d3:95:90:58:73:5a:fd:9e:06:
         f0:35:01:fc:64:c6:c7:45:0b:21:90:5e:93:44:63:7b:54:93:
         88:2e:68:bb:de:51:a2:0f:2e:ec:11:a1:4a:63:90:2b:75:65:
         13:1e:e8:64:8e:b3:fa:97
-----BEGIN CERTIFICATE-----
MIIGqzCCBJOgAwIBAgICAxcwDQYJKoZIhvcNAQEEBQAwgawxCzAJBgNVBAYTAlVT
MQswCQYDVQQIEwJPSDERMA8GA1UEBxMIQ29sdW1idXMxEjAQBgNVBAoTCVZpa2lu
Z1ZQTjEdMBsGA1UECxMUTXlPcmdhbml6YXRpb25hbFVuaXQxFTATBgNVBAMTDFZp
a2luZ1ZQTiBDQTEQMA4GA1UEKRMHRWFzeVJTQTEhMB8GCSqGSIb3DQEJARYSbWVA
bXlob3N0Lm15ZG9tYWluMB4XDTE0MDExOTAzMjEwOVoXDTI0MDExNzAzMjEwOVow
HTEbMBkGA1UEAxMSQ2xpZW50NDNDZXJ0YjEzNjY5MIICIjANBgkqhkiG9w0BAQEF
AAOCAg8AMIICCgKCAgEAzNnRD2v5PlJ0vjmaBtd2QOzoYGl7KRG7p1S14jzdTuEK
mkdrmmWspUSP7hSSN0oFzNZl5b2bpr1meAR9eTTweuWN4hBwHX5kQ/HguIcoF9ed
wGnSoBWjOyB3bL4xOsDdPQxy4Jf8tO6DU653NfEZkE+0vkGnV0hBnpgV/MVFJ4E6
c0TVcoMNeseIwDtWfHHQJFS7gfqhsNxe/GXu9S6VQOr+tXsAshawH85NpGO/VIAE
4Mjik1tNgfhxYatRWc4ErArg6b2k+rYQ6JUCBLS0q25qY4uNMH7faFIK5moArYd3
BQWI4Bf4UZHS5nTFm5NJ0+SB6aa/7pp1L41BUn13VQcOeznF3lzdSXnJWpMXE0Po
eCWu0yonjBeAj9LdNvq4pwZOY8G7u5DBfeR8kFIV86emBArXkGg0f/mzH3CGQi1m
BlSqKVuBwp8+aCnZcN/4ZFX29XQwg5hstaMe3PK75Pm+o/KHbSMinh1u1ETRAcn0
JtmJjoLyTP6Jc+dS9IOKTQxWMn4XH0KlRH5i1rBSEVywV9Qp+emBbZ06eEXc1S8p
XiXspxsbGVlaYwSVJrrKMLti9J+Wi0AGX175SpX+sxCIe4gPdWM34ik8MjQH1C4V
BAmOkPo69PmrKFb65mHCFa+68cqVbXLAB/7tocNNhlACZdmP9dzjUCPKaa5O/ssC
AwEAAaOCAWMwggFfMAkGA1UdEwQCMAAwLQYJYIZIAYb4QgENBCAWHkVhc3ktUlNB
IEdlbmVyYXRlZCBDZXJ0aWZpY2F0ZTAdBgNVHQ4EFgQUPxpwEfeQ+cUraneLAyvi
6xIdT4UwgeEGA1UdIwSB2TCB1oAUEs1gBNKggJ5w7caZuHssxlL9GaGhgbKkga8w
gawxCzAJBgNVBAYTAlVTMQswCQYDVQQIEwJPSDERMA8GA1UEBxMIQ29sdW1idXMx
EjAQBgNVBAoTCVZpa2luZ1ZQTjEdMBsGA1UECxMUTXlPcmdhbml6YXRpb25hbFVu
aXQxFTATBgNVBAMTDFZpa2luZ1ZQTiBDQTEQMA4GA1UEKRMHRWFzeVJTQTEhMB8G
CSqGSIb3DQEJARYSbWVAbXlob3N0Lm15ZG9tYWluggkAzzWF7oC/Kj4wEwYDVR0l
BAwwCgYIKwYBBQUHAwIwCwYDVR0PBAQDAgeAMA0GCSqGSIb3DQEBBAUAA4ICAQDL
avBEuBX+UJXR+9qi6z7Ed32Mu9zV9cAo9W61jROIEUiX9ObyWYxXdthQ8abnO6TU
6loY94jBaByPV5KIzx9J5ogKP3rwvlYGlWZH4mcx8HHpDjQAvBeIGdkSfdhYgVAA
T+OCdH7BdpZpVngm6qtaN0GRT7VmczFz0yYEvQscxFb37MnjQDOVkaC7+9ainG9Q
f673oG7C52sUNHDEZjERhcBpKl2F/2izodc3WXZfhCssVrdTjXHMh6i97Dm/rc5y
JrkkFqfqWYSp3qpiMGZKJaaCZXoa7E3phHMPIusnp0kd6IOvir4g2g7PPH/NS4UE
dLsYVpDIJhn0+2jntTeb1Xougnw4pfa2HEeNhSc6qa9G/1M2fMvD52o60qe/bDsT
a6EeWhgnnG40VgXNvKoRo8MsMh3gGk/VkYbmsAl2shrm4VMrKqsEEL3PtRaLG2mx
+RTsm+nugp+J6WNARZfpwK7ZKKy2aLMK7YhbScJ1ScfpuSoBBMQvJNQ4FWcr5Hy+
+ZbIlmrbPT/MrsBXOclIPtQSCQGz1diQtDno1yzQJ6E50RikuX/CofghbB4VmTNE
im7sDhU3/I3zxVkfaouZpYQqrjXlJl+HE3jTlZBYc1r9ngbwNQH8ZMbHRQshkF6T
RGN7VJOILmi73lGiDy7sEaFKY5ArdWUTHuhkjrP6lw==
-----END CERTIFICATE-----
