Certificate:
    Data:
        Version: 3 (0x2)
        Serial Number: 6957 (0x1b2d)
    Signature Algorithm: md5WithRSAEncryption
        Issuer: C=US, ST=OH, L=Columbus, O=VikingVPN, OU=MyOrganizationalUnit, CN=VikingVPN CA/name=EasyRSA/emailAddress=me@myhost.mydomain
        Validity
            Not Before: Dec 26 04:28:18 2015 GMT
            Not After : Dec 23 04:28:18 2025 GMT
        Subject: CN=Client2116Cert862bd0
        Subject Public Key Info:
            Public Key Algorithm: rsaEncryption
                Public-Key: (4096 bit)
                Modulus:
                    00:a5:71:06:21:7e:ed:71:34:3c:6c:b1:82:14:8e:
                    11:76:f4:4f:b8:60:b5:e5:14:f3:97:2b:3d:58:a3:
                    0e:46:76:f9:f1:3d:39:8c:8a:61:c3:39:36:67:32:
                    23:27:da:eb:9b:7e:a4:8d:c0:54:d9:b3:e8:8e:48:
                    58:bc:b2:a4:be:e3:1d:d5:2e:7c:26:df:10:69:fe:
                    cd:8b:38:a0:f5:eb:79:d7:de:01:f7:e3:de:91:ad:
                    55:05:a5:93:5f:00:ad:50:6b:96:4d:c2:d3:10:1a:
                    70:9a:11:89:ad:04:15:f8:86:71:0a:22:29:30:95:
                    5b:68:2f:3f:85:5a:d5:10:59:e7:ff:4a:a7:e2:d5:
                    49:59:fb:89:f8:25:42:2d:13:d3:21:54:db:f3:58:
                    46:ba:ee:f9:90:25:23:7f:1b:54:a0:10:09:f1:dc:
                    a6:a0:62:48:e6:e8:7c:96:3b:6b:f8:21:b4:71:06:
                    e7:9e:de:17:d8:f6:4e:30:ec:1f:51:44:86:f1:29:
                    15:d4:55:6f:31:b1:1c:87:ad:b1:cb:81:29:30:40:
                    f5:44:53:1f:02:ee:03:cf:84:e1:d4:05:56:9e:9e:
                    89:b2:dc:a3:c8:78:be:1f:f1:4e:46:dc:67:79:25:
                    99:66:cb:46:ad:d5:ea:6f:cf:72:17:c4:de:3d:b8:
                    e3:2e:16:fd:26:0e:d6:bf:36:f5:ab:66:86:f7:f3:
                    d2:ed:83:fc:d6:49:7e:14:f6:b3:26:d6:32:c6:bb:
                    2b:f4:56:34:04:aa:a5:c9:0f:3f:41:fc:67:57:81:
                    2a:c0:c0:7f:94:a7:08:02:7c:2b:54:b7:96:fa:b0:
                    88:06:7b:5e:b1:89:30:6c:5d:ad:39:80:8d:03:89:
                    aa:d8:7c:7d:0f:a0:e9:1f:42:99:34:59:99:38:03:
                    ba:ab:b5:fc:51:59:9b:a1:66:97:84:e0:87:0d:0e:
                    6d:6c:4d:0e:79:ba:3b:66:f8:aa:e2:d5:86:c2:a6:
                    4a:c9:aa:3e:b0:ec:22:d2:77:0a:c0:de:32:55:63:
                    82:e6:f4:08:2c:d8:3d:1a:05:fd:46:56:91:df:46:
                    a8:6c:e7:22:de:a9:99:b0:8d:35:a8:d5:b6:3f:0e:
                    ae:e2:76:10:9d:3b:ae:28:f6:43:a3:9d:ac:05:47:
                    de:15:53:cd:85:2a:b3:fa:32:98:71:fa:5a:ab:28:
                    f2:65:71:34:08:f6:b5:32:47:c8:f7:dd:60:a9:fa:
                    93:ee:89:b1:52:ac:e6:09:62:30:2f:e8:cd:ae:d0:
                    5c:a3:c7:fc:59:2a:51:d7:7a:7e:ae:bf:ee:61:14:
                    d1:82:92:e8:70:8e:14:1a:75:3e:3e:e4:4e:f1:e4:
                    fe:97:05
                Exponent: 65537 (0x10001)
        X509v3 extensions:
            X509v3 Basic Constraints: 
                CA:FALSE
            Netscape Comment: 
                Easy-RSA Generated Certificate
            X509v3 Subject Key Identifier: 
                17:A1:B1:37:30:A6:38:A3:47:70:98:B5:F6:D2:61:84:74:07:47:8C
            X509v3 Authority Key Identifier: 
                keyid:12:CD:60:04:D2:A0:80:9E:70:ED:C6:99:B8:7B:2C:C6:52:FD:19:A1
                DirName:/C=US/ST=OH/L=Columbus/O=VikingVPN/OU=MyOrganizationalUnit/CN=VikingVPN CA/name=EasyRSA/emailAddress=me@myhost.mydomain
                serial:CF:35:85:EE:80:BF:2A:3E

            X509v3 Extended Key Usage: 
                TLS Web Client Authentication
            X509v3 Key Usage: 
                Digital Signature
    Signature Algorithm: md5WithRSAEncryption
         e8:2a:fd:b4:55:71:4c:29:8a:3b:3f:b5:3b:57:f3:fa:a0:60:
         49:f9:24:c9:e3:be:cc:bd:30:63:9f:bd:16:12:c2:30:29:b2:
         9e:2f:7e:bd:21:11:78:d2:3f:be:f9:a8:91:42:8a:26:8c:28:
         44:6c:fc:0f:e4:31:da:f6:3c:ba:ab:d3:93:f1:1d:83:2f:05:
         ea:b8:5c:e1:81:69:a6:1d:ed:3c:89:16:d1:06:e4:ea:94:b1:
         e8:72:fa:99:e6:bd:42:d2:91:56:40:1c:63:a6:d5:34:b7:61:
         ce:0f:5b:08:4b:94:5c:33:8c:dd:94:33:4a:b7:6a:75:ef:29:
         ca:0f:34:a2:c0:14:bd:c8:48:eb:84:32:d9:6e:f5:7a:3b:5b:
         2e:21:82:79:65:a7:03:95:18:60:04:0d:ba:d9:4a:fb:ed:41:
         80:4d:32:4d:b9:99:24:d8:56:b0:cd:9b:87:b2:51:5c:fc:1b:
         c4:b1:db:62:aa:fb:43:aa:0e:9c:ee:e8:fc:44:06:85:cd:dc:
         11:a6:19:e7:ce:09:e9:2b:54:25:b7:2a:19:76:7d:db:19:2c:
         2d:b9:54:e7:9c:53:1f:6d:d1:39:93:f8:eb:42:8e:5c:e6:67:
         10:d6:df:23:ad:16:b9:da:ac:f2:27:4f:a2:55:86:45:07:24:
         c9:de:a0:33:f9:78:97:ec:c1:b8:fe:44:11:d8:49:18:d7:2d:
         2a:3e:59:28:9f:6b:29:cb:8b:95:9a:1d:ea:15:37:d3:3b:e4:
         9f:02:6a:ff:13:b8:6c:df:d6:0a:e3:35:27:36:af:eb:5c:6e:
         c6:4c:1d:b8:4f:ef:36:ff:67:02:ce:e9:59:cb:38:b6:f1:e3:
         3b:fa:f5:2a:a1:7e:6d:0f:80:5e:88:2e:de:ae:64:71:9d:cb:
         8d:f9:93:88:28:98:a3:d3:56:3d:6a:ee:2a:7e:23:8d:cd:6a:
         6b:04:66:51:c9:d4:fd:4a:ac:b5:a4:71:1f:43:82:f6:4e:f6:
         78:90:27:de:86:48:78:66:02:d3:c6:8a:ac:dd:b0:c4:13:51:
         93:bc:78:62:91:40:da:62:7a:f7:3c:2e:6e:55:97:13:30:3e:
         db:de:68:e4:b1:82:66:b8:12:7f:c2:bc:d9:45:87:6f:14:dc:
         b9:0f:ee:4a:70:ca:2b:4a:f3:0e:ae:da:08:d4:ab:8e:cf:4b:
         57:41:5f:3b:06:99:73:c5:0a:38:3b:48:da:34:9a:46:e5:e2:
         70:84:c9:50:b8:18:fd:27:c3:89:47:33:8a:26:14:71:b9:22:
         dd:12:34:a2:3c:7c:b4:c7:60:79:d6:72:13:6a:da:fb:f8:36:
         70:33:65:c7:8b:fb:08:d3
-----BEGIN CERTIFICATE-----
MIIGrTCCBJWgAwIBAgICGy0wDQYJKoZIhvcNAQEEBQAwgawxCzAJBgNVBAYTAlVT
MQswCQYDVQQIEwJPSDERMA8GA1UEBxMIQ29sdW1idXMxEjAQBgNVBAoTCVZpa2lu
Z1ZQTjEdMBsGA1UECxMUTXlPcmdhbml6YXRpb25hbFVuaXQxFTATBgNVBAMTDFZp
a2luZ1ZQTiBDQTEQMA4GA1UEKRMHRWFzeVJTQTEhMB8GCSqGSIb3DQEJARYSbWVA
bXlob3N0Lm15ZG9tYWluMB4XDTE1MTIyNjA0MjgxOFoXDTI1MTIyMzA0MjgxOFow
HzEdMBsGA1UEAxMUQ2xpZW50MjExNkNlcnQ4NjJiZDAwggIiMA0GCSqGSIb3DQEB
AQUAA4ICDwAwggIKAoICAQClcQYhfu1xNDxssYIUjhF29E+4YLXlFPOXKz1Yow5G
dvnxPTmMimHDOTZnMiMn2uubfqSNwFTZs+iOSFi8sqS+4x3VLnwm3xBp/s2LOKD1
63nX3gH3496RrVUFpZNfAK1Qa5ZNwtMQGnCaEYmtBBX4hnEKIikwlVtoLz+FWtUQ
Wef/Sqfi1UlZ+4n4JUItE9MhVNvzWEa67vmQJSN/G1SgEAnx3KagYkjm6HyWO2v4
IbRxBuee3hfY9k4w7B9RRIbxKRXUVW8xsRyHrbHLgSkwQPVEUx8C7gPPhOHUBVae
nomy3KPIeL4f8U5G3Gd5JZlmy0at1epvz3IXxN49uOMuFv0mDta/NvWrZob389Lt
g/zWSX4U9rMm1jLGuyv0VjQEqqXJDz9B/GdXgSrAwH+UpwgCfCtUt5b6sIgGe16x
iTBsXa05gI0DiarYfH0PoOkfQpk0WZk4A7qrtfxRWZuhZpeE4IcNDm1sTQ55ujtm
+Kri1YbCpkrJqj6w7CLSdwrA3jJVY4Lm9Ags2D0aBf1GVpHfRqhs5yLeqZmwjTWo
1bY/Dq7idhCdO64o9kOjnawFR94VU82FKrP6Mphx+lqrKPJlcTQI9rUyR8j33WCp
+pPuibFSrOYJYjAv6M2u0Fyjx/xZKlHXen6uv+5hFNGCkuhwjhQadT4+5E7x5P6X
BQIDAQABo4IBYzCCAV8wCQYDVR0TBAIwADAtBglghkgBhvhCAQ0EIBYeRWFzeS1S
U0EgR2VuZXJhdGVkIENlcnRpZmljYXRlMB0GA1UdDgQWBBQXobE3MKY4o0dwmLX2
0mGEdAdHjDCB4QYDVR0jBIHZMIHWgBQSzWAE0qCAnnDtxpm4eyzGUv0ZoaGBsqSB
rzCBrDELMAkGA1UEBhMCVVMxCzAJBgNVBAgTAk9IMREwDwYDVQQHEwhDb2x1bWJ1
czESMBAGA1UEChMJVmlraW5nVlBOMR0wGwYDVQQLExRNeU9yZ2FuaXphdGlvbmFs
VW5pdDEVMBMGA1UEAxMMVmlraW5nVlBOIENBMRAwDgYDVQQpEwdFYXN5UlNBMSEw
HwYJKoZIhvcNAQkBFhJtZUBteWhvc3QubXlkb21haW6CCQDPNYXugL8qPjATBgNV
HSUEDDAKBggrBgEFBQcDAjALBgNVHQ8EBAMCB4AwDQYJKoZIhvcNAQEEBQADggIB
AOgq/bRVcUwpijs/tTtX8/qgYEn5JMnjvsy9MGOfvRYSwjApsp4vfr0hEXjSP775
qJFCiiaMKERs/A/kMdr2PLqr05PxHYMvBeq4XOGBaaYd7TyJFtEG5OqUsehy+pnm
vULSkVZAHGOm1TS3Yc4PWwhLlFwzjN2UM0q3anXvKcoPNKLAFL3ISOuEMtlu9Xo7
Wy4hgnllpwOVGGAEDbrZSvvtQYBNMk25mSTYVrDNm4eyUVz8G8Sx22Kq+0OqDpzu
6PxEBoXN3BGmGefOCekrVCW3Khl2fdsZLC25VOecUx9t0TmT+OtCjlzmZxDW3yOt
FrnarPInT6JVhkUHJMneoDP5eJfswbj+RBHYSRjXLSo+WSifaynLi5WaHeoVN9M7
5J8Cav8TuGzf1grjNSc2r+tcbsZMHbhP7zb/ZwLO6VnLOLbx4zv69Sqhfm0PgF6I
Lt6uZHGdy435k4gomKPTVj1q7ip+I43NamsEZlHJ1P1KrLWkcR9DgvZO9niQJ96G
SHhmAtPGiqzdsMQTUZO8eGKRQNpievc8Lm5VlxMwPtveaOSxgma4En/CvNlFh28U
3LkP7kpwyitK8w6u2gjUq47PS1dBXzsGmXPFCjg7SNo0mkbl4nCEyVC4GP0nw4lH
M4omFHG5It0SNKI8fLTHYHnWchNq2vv4NnAzZceL+wjT
-----END CERTIFICATE-----
