Certificate:
    Data:
        Version: 3 (0x2)
        Serial Number: 10849 (0x2a61)
    Signature Algorithm: sha256WithRSAEncryption
        Issuer: C=US, ST=OH, L=Columbus, O=VikingVPN, OU=MyOrganizationalUnit, CN=VikingVPN CA/name=EasyRSA/emailAddress=me@myhost.mydomain
        Validity
            Not Before: Apr 30 18:02:59 2017 GMT
            Not After : Apr 28 18:02:59 2027 GMT
        Subject: CN=Client2770Cert800c47
        Subject Public Key Info:
            Public Key Algorithm: rsaEncryption
                Public-Key: (4096 bit)
                Modulus:
                    00:c5:a1:84:47:95:c2:e5:0d:0e:4a:34:0a:2c:dd:
                    17:24:bd:65:15:e1:63:52:5c:03:3c:8b:72:ae:6f:
                    b8:6e:63:97:23:7a:69:ed:85:07:e4:7d:3d:af:20:
                    50:9e:76:c1:6f:f6:39:3c:9d:18:70:2b:75:f0:45:
                    de:ec:40:23:aa:46:b3:e0:89:73:89:d9:ad:d9:b0:
                    47:c6:4b:91:da:55:cd:5b:44:25:25:b4:4b:6f:ab:
                    91:0a:2d:df:fe:4d:3d:af:ab:e6:6e:ce:c9:dd:f9:
                    f3:94:ea:a7:3d:f9:6e:fc:61:ce:9b:3e:ff:f2:33:
                    89:92:1a:23:76:48:fe:49:63:9b:f2:40:d1:8a:79:
                    46:ce:8d:f6:03:fd:d2:13:db:d0:bb:4a:b2:d3:27:
                    89:21:d5:b2:2b:c9:21:93:a2:27:06:b9:e3:af:0d:
                    c8:49:90:66:e2:b2:26:bb:dd:d6:fd:57:75:57:8d:
                    98:c1:e1:b6:11:d8:ed:d4:24:52:8f:cb:ab:cd:92:
                    d4:37:94:c7:2e:1a:e3:75:11:26:90:53:1f:6a:55:
                    d5:31:91:89:73:9b:42:75:90:d2:18:b6:ba:17:90:
                    62:69:12:9d:f8:7c:bc:e7:19:21:c3:90:17:6e:10:
                    8f:fa:00:5c:05:8d:9b:88:6a:37:b8:33:30:9a:d6:
                    e5:7f:1d:ed:12:6f:24:5e:4f:ff:46:6d:ea:17:5e:
                    73:41:44:3d:1a:64:40:94:93:fd:66:16:5b:c1:72:
                    17:e5:f4:ae:0a:ec:df:08:17:eb:12:5e:bd:b4:a6:
                    c2:18:d9:ce:4d:a6:14:99:3a:5a:4d:37:3e:bd:35:
                    6e:d0:44:06:43:1c:70:59:69:f5:12:30:98:72:3d:
                    be:b3:03:67:3d:62:b5:29:a0:a2:18:bd:90:b8:c4:
                    f4:04:3f:a2:ec:99:88:9f:08:8d:f8:2a:c8:de:b5:
                    c7:43:4b:22:d2:22:8e:c9:47:ff:bc:08:b4:b0:c7:
                    eb:7c:b0:a0:fc:65:16:78:da:b4:71:5f:5e:8a:a4:
                    5b:2d:82:e2:a8:15:df:8a:ee:be:f7:b5:e8:1e:8c:
                    57:1c:b7:3c:c2:6f:1d:d1:53:3f:d6:09:9c:24:8f:
                    30:c0:ea:e7:da:71:d8:dd:c0:55:51:2c:03:46:7a:
                    58:fc:59:83:04:93:34:07:34:1d:eb:ee:3f:d7:bd:
                    c9:a9:d7:c5:07:97:3d:6b:ae:82:65:ec:de:a4:c7:
                    be:00:bb:6f:6b:98:12:1b:c4:69:67:0c:4e:bf:b9:
                    f3:13:12:3b:c3:bb:72:56:ba:66:03:1b:8e:ce:4f:
                    a7:15:4e:4a:79:b8:fc:f3:41:aa:d3:6e:3b:b9:e1:
                    c6:45:9b
                Exponent: 65537 (0x10001)
        X509v3 extensions:
            X509v3 Basic Constraints: 
                CA:FALSE
            Netscape Comment: 
                Easy-RSA Generated Certificate
            X509v3 Subject Key Identifier: 
                D8:64:5A:CF:18:00:81:DB:58:E6:7E:07:E3:52:84:2F:AE:C0:86:C6
            X509v3 Authority Key Identifier: 
                keyid:12:CD:60:04:D2:A0:80:9E:70:ED:C6:99:B8:7B:2C:C6:52:FD:19:A1
                DirName:/C=US/ST=OH/L=Columbus/O=VikingVPN/OU=MyOrganizationalUnit/CN=VikingVPN CA/name=EasyRSA/emailAddress=me@myhost.mydomain
                serial:CF:35:85:EE:80:BF:2A:3E

            X509v3 Extended Key Usage: 
                TLS Web Client Authentication
            X509v3 Key Usage: 
                Digital Signature
    Signature Algorithm: sha256WithRSAEncryption
         39:f6:d8:12:b5:15:3a:d1:1b:50:f4:69:a7:50:1d:d4:4c:21:
         1c:65:20:89:cc:49:11:b9:8c:8e:ce:4f:47:99:9e:bc:3d:77:
         5f:e9:2a:ff:80:51:28:e1:97:75:cb:b5:9a:d3:ba:01:7e:91:
         82:b7:b4:84:64:46:52:7f:f8:ba:a8:7f:e9:dc:0b:d4:c8:a8:
         cd:00:1f:d4:a4:d3:9d:60:a9:31:09:55:3d:98:da:dd:e6:b4:
         0b:98:9d:fb:a3:9d:03:72:75:6a:d5:b4:67:c1:70:5f:43:07:
         99:c1:87:b3:02:35:fc:60:00:45:3b:e7:04:3f:67:78:d4:e7:
         90:3b:0b:ba:25:53:e3:6d:35:c7:5f:cb:05:a8:00:d1:0c:6c:
         92:63:33:a5:57:9a:40:be:62:a1:e6:d7:43:fe:bb:ce:51:33:
         19:a7:dc:28:91:8b:6a:4b:a5:e4:50:0c:a0:67:32:8c:77:28:
         c9:70:6e:1b:1a:f5:a0:b9:7b:f1:29:db:d2:2b:42:31:19:0b:
         06:82:95:af:b8:85:41:6a:f6:5e:22:f4:08:8d:7f:30:19:5d:
         07:ab:68:85:1c:dc:fb:d0:2a:86:c8:45:78:a6:16:e0:f6:57:
         ce:3d:16:cb:ba:8f:21:92:c1:f0:4f:93:0c:4f:10:cd:13:1d:
         4e:a0:ce:09:ce:d2:7d:6d:6a:0b:2d:e7:fc:73:b5:be:9c:9d:
         3d:a3:64:df:3f:3a:c4:35:05:88:20:c7:fa:8e:6d:e6:a9:af:
         ea:c1:70:07:03:58:84:a6:05:89:f6:06:ea:3f:d1:a2:65:c1:
         bf:7c:dd:c6:4d:02:45:a1:2f:36:d3:df:bd:37:7e:91:4b:95:
         46:8d:0b:18:ac:e5:08:bb:3c:87:bb:2b:60:f3:8a:4a:ec:bf:
         45:88:b6:b4:df:2f:bb:01:ca:ca:9b:98:b1:53:1f:6a:1a:97:
         4d:ff:69:d6:19:e1:ca:98:26:a0:c4:e6:2f:be:bb:ff:4a:63:
         1f:1a:26:1c:59:d4:b7:26:6e:9d:01:40:7a:ad:4c:51:b1:3f:
         7a:74:40:e1:23:78:51:78:fb:e1:cb:55:63:61:66:e3:fb:98:
         fb:3c:36:74:db:a7:07:87:69:a1:c9:fe:5a:53:6d:13:c0:45:
         70:b7:0f:37:d4:a6:ac:1b:d6:97:27:65:97:68:cd:4c:b8:65:
         37:55:77:8b:10:7b:25:5e:05:66:92:e8:9e:f8:09:4b:20:9d:
         01:30:3e:6c:da:15:9f:fb:4f:94:5c:15:9e:21:7a:33:f5:e0:
         90:6b:d0:0a:10:78:2e:aa:7b:f9:9a:bf:ea:03:28:c0:00:f1:
         a7:72:f8:f1:f2:fa:38:d6
-----BEGIN CERTIFICATE-----
MIIGrTCCBJWgAwIBAgICKmEwDQYJKoZIhvcNAQELBQAwgawxCzAJBgNVBAYTAlVT
MQswCQYDVQQIEwJPSDERMA8GA1UEBxMIQ29sdW1idXMxEjAQBgNVBAoTCVZpa2lu
Z1ZQTjEdMBsGA1UECxMUTXlPcmdhbml6YXRpb25hbFVuaXQxFTATBgNVBAMTDFZp
a2luZ1ZQTiBDQTEQMA4GA1UEKRMHRWFzeVJTQTEhMB8GCSqGSIb3DQEJARYSbWVA
bXlob3N0Lm15ZG9tYWluMB4XDTE3MDQzMDE4MDI1OVoXDTI3MDQyODE4MDI1OVow
HzEdMBsGA1UEAxMUQ2xpZW50Mjc3MENlcnQ4MDBjNDcwggIiMA0GCSqGSIb3DQEB
AQUAA4ICDwAwggIKAoICAQDFoYRHlcLlDQ5KNAos3RckvWUV4WNSXAM8i3Kub7hu
Y5cjemnthQfkfT2vIFCedsFv9jk8nRhwK3XwRd7sQCOqRrPgiXOJ2a3ZsEfGS5Ha
Vc1bRCUltEtvq5EKLd/+TT2vq+Zuzsnd+fOU6qc9+W78Yc6bPv/yM4mSGiN2SP5J
Y5vyQNGKeUbOjfYD/dIT29C7SrLTJ4kh1bIrySGToicGueOvDchJkGbisia73db9
V3VXjZjB4bYR2O3UJFKPy6vNktQ3lMcuGuN1ESaQUx9qVdUxkYlzm0J1kNIYtroX
kGJpEp34fLznGSHDkBduEI/6AFwFjZuIaje4MzCa1uV/He0SbyReT/9GbeoXXnNB
RD0aZECUk/1mFlvBchfl9K4K7N8IF+sSXr20psIY2c5NphSZOlpNNz69NW7QRAZD
HHBZafUSMJhyPb6zA2c9YrUpoKIYvZC4xPQEP6LsmYifCI34KsjetcdDSyLSIo7J
R/+8CLSwx+t8sKD8ZRZ42rRxX16KpFstguKoFd+K7r73tegejFcctzzCbx3RUz/W
CZwkjzDA6ufacdjdwFVRLANGelj8WYMEkzQHNB3r7j/Xvcmp18UHlz1rroJl7N6k
x74Au29rmBIbxGlnDE6/ufMTEjvDu3JWumYDG47OT6cVTkp5uPzzQarTbju54cZF
mwIDAQABo4IBYzCCAV8wCQYDVR0TBAIwADAtBglghkgBhvhCAQ0EIBYeRWFzeS1S
U0EgR2VuZXJhdGVkIENlcnRpZmljYXRlMB0GA1UdDgQWBBTYZFrPGACB21jmfgfj
UoQvrsCGxjCB4QYDVR0jBIHZMIHWgBQSzWAE0qCAnnDtxpm4eyzGUv0ZoaGBsqSB
rzCBrDELMAkGA1UEBhMCVVMxCzAJBgNVBAgTAk9IMREwDwYDVQQHEwhDb2x1bWJ1
czESMBAGA1UEChMJVmlraW5nVlBOMR0wGwYDVQQLExRNeU9yZ2FuaXphdGlvbmFs
VW5pdDEVMBMGA1UEAxMMVmlraW5nVlBOIENBMRAwDgYDVQQpEwdFYXN5UlNBMSEw
HwYJKoZIhvcNAQkBFhJtZUBteWhvc3QubXlkb21haW6CCQDPNYXugL8qPjATBgNV
HSUEDDAKBggrBgEFBQcDAjALBgNVHQ8EBAMCB4AwDQYJKoZIhvcNAQELBQADggIB
ADn22BK1FTrRG1D0aadQHdRMIRxlIInMSRG5jI7OT0eZnrw9d1/pKv+AUSjhl3XL
tZrTugF+kYK3tIRkRlJ/+Lqof+ncC9TIqM0AH9Sk051gqTEJVT2Y2t3mtAuYnfuj
nQNydWrVtGfBcF9DB5nBh7MCNfxgAEU75wQ/Z3jU55A7C7olU+NtNcdfywWoANEM
bJJjM6VXmkC+YqHm10P+u85RMxmn3CiRi2pLpeRQDKBnMox3KMlwbhsa9aC5e/Ep
29IrQjEZCwaCla+4hUFq9l4i9AiNfzAZXQeraIUc3PvQKobIRXimFuD2V849Fsu6
jyGSwfBPkwxPEM0THU6gzgnO0n1tagst5/xztb6cnT2jZN8/OsQ1BYggx/qObeap
r+rBcAcDWISmBYn2Buo/0aJlwb983cZNAkWhLzbT3703fpFLlUaNCxis5Qi7PIe7
K2Dzikrsv0WItrTfL7sBysqbmLFTH2oal03/adYZ4cqYJqDE5i++u/9KYx8aJhxZ
1Lcmbp0BQHqtTFGxP3p0QOEjeFF4++HLVWNhZuP7mPs8NnTbpweHaaHJ/lpTbRPA
RXC3DzfUpqwb1pcnZZdozUy4ZTdVd4sQeyVeBWaS6J74CUsgnQEwPmzaFZ/7T5Rc
FZ4hejP14JBr0AoQeC6qe/mav+oDKMAA8ady+PHy+jjW
-----END CERTIFICATE-----
