Certificate:
    Data:
        Version: 3 (0x2)
        Serial Number: 10368 (0x2880)
    Signature Algorithm: sha256WithRSAEncryption
        Issuer: C=US, ST=OH, L=Columbus, O=VikingVPN, OU=MyOrganizationalUnit, CN=VikingVPN CA/name=EasyRSA/emailAddress=me@myhost.mydomain
        Validity
            Not Before: Mar 24 21:02:29 2017 GMT
            Not After : Mar 22 21:02:29 2027 GMT
        Subject: CN=Client2727Certd4060c
        Subject Public Key Info:
            Public Key Algorithm: rsaEncryption
                Public-Key: (4096 bit)
                Modulus:
                    00:b3:5d:10:56:56:2c:54:17:9b:b7:75:43:36:d5:
                    ff:95:c0:91:1a:d9:89:4d:fb:95:3e:07:94:f1:dc:
                    5e:94:6c:8c:a4:92:f2:54:58:4b:15:33:cb:f8:29:
                    d8:8d:b5:39:fd:25:2c:af:ea:df:7a:42:44:31:c6:
                    7f:6f:7c:25:2e:93:dc:21:15:bf:ec:b7:52:c7:61:
                    00:29:40:66:27:9e:77:c2:be:eb:e7:b6:c3:7f:5d:
                    0f:a0:c0:09:98:27:57:23:25:d1:62:b2:32:7b:14:
                    d4:74:56:c2:ac:20:49:d2:40:f5:91:90:3a:e3:63:
                    ad:2c:21:22:0f:6d:4a:d1:61:c4:e9:82:25:36:15:
                    af:ae:ad:8b:97:c2:ab:1a:df:00:e7:7b:b2:a1:02:
                    78:e2:56:ff:dd:0b:99:5a:9b:93:61:64:c7:e9:c3:
                    3a:18:99:2e:8e:1e:b6:cb:02:86:02:e2:e8:9b:97:
                    ac:a5:e5:d3:eb:42:1d:d9:04:19:0d:3a:f0:f4:03:
                    ce:49:75:92:be:df:5a:69:7f:01:0b:89:88:0b:96:
                    25:67:21:d9:97:ae:b1:f1:04:6f:cc:4b:c0:ad:68:
                    2d:0a:e4:0b:dc:8b:dd:ea:25:fa:b0:6e:bf:9e:25:
                    fd:fd:e6:0d:82:26:5d:5c:60:c4:08:3e:83:55:9a:
                    15:f8:12:46:99:5f:2a:ac:97:27:d3:38:3d:0c:ef:
                    7b:d6:de:9e:50:66:76:04:30:19:42:a8:ac:95:fb:
                    b5:9c:29:1a:dc:04:b2:5f:fb:a7:05:b6:22:56:31:
                    a0:0b:58:f8:e2:00:66:17:80:a0:70:13:6e:6f:9d:
                    dc:78:67:a1:47:62:eb:e9:9c:5f:cc:e8:3b:43:04:
                    56:db:7f:37:48:61:c1:50:2c:6a:8b:31:00:c6:f9:
                    ca:63:f3:86:fb:9e:f1:65:65:6c:5e:40:af:50:23:
                    d0:bd:fd:65:cf:1f:ad:29:62:1b:99:0b:1b:69:09:
                    86:df:ec:4b:34:01:ae:f9:0b:b3:4d:f8:63:6d:73:
                    cd:df:38:20:64:76:6a:bd:77:e7:1d:c0:e9:f3:7d:
                    c1:c7:42:0f:45:a8:a6:59:52:25:f3:41:66:c9:be:
                    11:f8:73:4e:12:8d:74:fa:db:9f:a6:01:08:2e:dd:
                    ce:d2:b3:48:35:58:83:58:93:e5:ff:62:c5:e0:1d:
                    00:98:51:02:be:8f:0c:be:26:30:3e:9d:d1:ce:a1:
                    62:e5:a1:78:00:69:cd:05:a2:e7:e1:c8:b9:66:e1:
                    62:12:7e:ff:78:bf:77:fb:74:33:74:45:5a:ce:70:
                    e8:4a:8a:5d:79:73:74:c9:b6:ae:f1:8d:0d:f6:8c:
                    05:dc:45
                Exponent: 65537 (0x10001)
        X509v3 extensions:
            X509v3 Basic Constraints: 
                CA:FALSE
            Netscape Comment: 
                Easy-RSA Generated Certificate
            X509v3 Subject Key Identifier: 
                F8:FB:D3:6E:E2:A2:91:B9:17:1A:DC:BE:14:6E:AD:56:F2:F5:03:58
            X509v3 Authority Key Identifier: 
                keyid:12:CD:60:04:D2:A0:80:9E:70:ED:C6:99:B8:7B:2C:C6:52:FD:19:A1
                DirName:/C=US/ST=OH/L=Columbus/O=VikingVPN/OU=MyOrganizationalUnit/CN=VikingVPN CA/name=EasyRSA/emailAddress=me@myhost.mydomain
                serial:CF:35:85:EE:80:BF:2A:3E

            X509v3 Extended Key Usage: 
                TLS Web Client Authentication
            X509v3 Key Usage: 
                Digital Signature
    Signature Algorithm: sha256WithRSAEncryption
         9c:2e:dc:43:37:a8:b9:d5:71:8b:23:21:98:f6:a3:19:86:4f:
         fb:66:90:3e:53:6f:38:83:f7:fd:f0:7e:e5:5c:66:10:e4:dd:
         fc:bd:01:9a:ad:9c:28:9e:0f:93:09:09:22:cd:77:9a:7e:3a:
         56:c0:06:f3:22:ab:ca:24:89:23:c4:db:a4:a5:ed:9b:af:20:
         f8:91:40:0d:9a:11:0a:ec:df:d8:1d:a7:94:09:6c:28:d9:97:
         9f:9a:94:82:7d:ab:f1:8a:cd:ab:4b:25:d0:46:f9:f7:fc:5d:
         f8:ca:89:38:24:0a:bd:4f:07:34:89:c7:e9:90:a0:16:18:2f:
         e8:b4:58:36:a8:f2:3d:33:81:26:42:9a:e5:cf:90:77:f7:2a:
         b6:9a:2a:41:c0:c2:6b:c8:6d:45:c0:f6:a7:bb:da:10:ef:39:
         0d:c2:5a:0e:1d:20:e9:88:c6:07:2b:23:74:39:0e:68:33:14:
         f9:55:ed:b6:c1:dc:a2:ca:5e:6d:d6:50:db:76:06:c2:13:b9:
         95:58:c6:47:e5:5b:f3:f3:fc:d9:05:a5:55:5b:b2:ee:da:4b:
         9e:7f:bf:1b:ec:d0:6e:75:0c:45:11:33:56:c0:62:53:17:a8:
         76:d4:14:ca:1a:d9:65:b6:fe:45:b7:f8:cc:bd:86:8e:5b:c9:
         8b:f6:19:91:cd:6c:88:8e:d7:d8:94:81:25:58:75:bb:c9:f5:
         26:7e:cf:0e:4a:61:ab:53:00:9e:69:9d:2d:12:23:14:7f:7f:
         33:10:f7:39:bd:e0:43:77:b5:61:f5:50:1a:ed:90:e6:35:63:
         2c:5c:62:6f:0d:01:35:be:ea:e8:55:19:ee:8f:e9:6e:8c:50:
         7b:53:9a:07:8a:39:bb:af:50:27:20:4b:9a:97:df:a1:43:ee:
         e8:3d:1b:83:33:1a:bd:7a:98:b6:f7:36:06:33:50:f6:dd:99:
         79:bd:0e:3e:88:b9:c3:e3:d9:12:bf:ca:70:3f:9b:77:49:d7:
         35:61:5c:ee:34:e3:02:22:c9:ef:b3:b3:f2:d6:eb:19:51:40:
         50:14:17:62:90:65:5a:cc:f5:78:e5:0d:fa:71:2c:88:cc:9c:
         0b:62:11:64:64:ff:62:a2:0f:55:f3:4c:d1:9b:61:6e:ac:69:
         5a:d6:54:5b:19:48:4e:2a:9f:5b:01:a4:2e:16:ce:34:3e:aa:
         81:38:11:30:7f:81:d1:52:40:57:80:b0:b8:0d:fd:9a:4d:22:
         fa:ba:ae:ae:25:06:59:05:e0:dd:94:c0:66:ba:e1:2b:e9:c6:
         c4:99:c3:14:03:76:f0:c4:dd:94:8a:a6:38:15:13:b7:0e:e5:
         bb:19:41:3e:42:a6:ef:19
-----BEGIN CERTIFICATE-----
MIIGrTCCBJWgAwIBAgICKIAwDQYJKoZIhvcNAQELBQAwgawxCzAJBgNVBAYTAlVT
MQswCQYDVQQIEwJPSDERMA8GA1UEBxMIQ29sdW1idXMxEjAQBgNVBAoTCVZpa2lu
Z1ZQTjEdMBsGA1UECxMUTXlPcmdhbml6YXRpb25hbFVuaXQxFTATBgNVBAMTDFZp
a2luZ1ZQTiBDQTEQMA4GA1UEKRMHRWFzeVJTQTEhMB8GCSqGSIb3DQEJARYSbWVA
bXlob3N0Lm15ZG9tYWluMB4XDTE3MDMyNDIxMDIyOVoXDTI3MDMyMjIxMDIyOVow
HzEdMBsGA1UEAxMUQ2xpZW50MjcyN0NlcnRkNDA2MGMwggIiMA0GCSqGSIb3DQEB
AQUAA4ICDwAwggIKAoICAQCzXRBWVixUF5u3dUM21f+VwJEa2YlN+5U+B5Tx3F6U
bIykkvJUWEsVM8v4KdiNtTn9JSyv6t96QkQxxn9vfCUuk9whFb/st1LHYQApQGYn
nnfCvuvntsN/XQ+gwAmYJ1cjJdFisjJ7FNR0VsKsIEnSQPWRkDrjY60sISIPbUrR
YcTpgiU2Fa+urYuXwqsa3wDne7KhAnjiVv/dC5lam5NhZMfpwzoYmS6OHrbLAoYC
4uibl6yl5dPrQh3ZBBkNOvD0A85JdZK+31ppfwELiYgLliVnIdmXrrHxBG/MS8Ct
aC0K5Avci93qJfqwbr+eJf395g2CJl1cYMQIPoNVmhX4EkaZXyqslyfTOD0M73vW
3p5QZnYEMBlCqKyV+7WcKRrcBLJf+6cFtiJWMaALWPjiAGYXgKBwE25vndx4Z6FH
YuvpnF/M6DtDBFbbfzdIYcFQLGqLMQDG+cpj84b7nvFlZWxeQK9QI9C9/WXPH60p
YhuZCxtpCYbf7Es0Aa75C7NN+GNtc83fOCBkdmq9d+cdwOnzfcHHQg9FqKZZUiXz
QWbJvhH4c04SjXT625+mAQgu3c7Ss0g1WINYk+X/YsXgHQCYUQK+jwy+JjA+ndHO
oWLloXgAac0FoufhyLlm4WISfv94v3f7dDN0RVrOcOhKil15c3TJtq7xjQ32jAXc
RQIDAQABo4IBYzCCAV8wCQYDVR0TBAIwADAtBglghkgBhvhCAQ0EIBYeRWFzeS1S
U0EgR2VuZXJhdGVkIENlcnRpZmljYXRlMB0GA1UdDgQWBBT4+9Nu4qKRuRca3L4U
bq1W8vUDWDCB4QYDVR0jBIHZMIHWgBQSzWAE0qCAnnDtxpm4eyzGUv0ZoaGBsqSB
rzCBrDELMAkGA1UEBhMCVVMxCzAJBgNVBAgTAk9IMREwDwYDVQQHEwhDb2x1bWJ1
czESMBAGA1UEChMJVmlraW5nVlBOMR0wGwYDVQQLExRNeU9yZ2FuaXphdGlvbmFs
VW5pdDEVMBMGA1UEAxMMVmlraW5nVlBOIENBMRAwDgYDVQQpEwdFYXN5UlNBMSEw
HwYJKoZIhvcNAQkBFhJtZUBteWhvc3QubXlkb21haW6CCQDPNYXugL8qPjATBgNV
HSUEDDAKBggrBgEFBQcDAjALBgNVHQ8EBAMCB4AwDQYJKoZIhvcNAQELBQADggIB
AJwu3EM3qLnVcYsjIZj2oxmGT/tmkD5TbziD9/3wfuVcZhDk3fy9AZqtnCieD5MJ
CSLNd5p+OlbABvMiq8okiSPE26Sl7ZuvIPiRQA2aEQrs39gdp5QJbCjZl5+alIJ9
q/GKzatLJdBG+ff8XfjKiTgkCr1PBzSJx+mQoBYYL+i0WDao8j0zgSZCmuXPkHf3
KraaKkHAwmvIbUXA9qe72hDvOQ3CWg4dIOmIxgcrI3Q5DmgzFPlV7bbB3KLKXm3W
UNt2BsITuZVYxkflW/Pz/NkFpVVbsu7aS55/vxvs0G51DEURM1bAYlMXqHbUFMoa
2WW2/kW3+My9ho5byYv2GZHNbIiO19iUgSVYdbvJ9SZ+zw5KYatTAJ5pnS0SIxR/
fzMQ9zm94EN3tWH1UBrtkOY1YyxcYm8NATW+6uhVGe6P6W6MUHtTmgeKObuvUCcg
S5qX36FD7ug9G4MzGr16mLb3NgYzUPbdmXm9Dj6IucPj2RK/ynA/m3dJ1zVhXO40
4wIiye+zs/LW6xlRQFAUF2KQZVrM9XjlDfpxLIjMnAtiEWRk/2KiD1XzTNGbYW6s
aVrWVFsZSE4qn1sBpC4WzjQ+qoE4ETB/gdFSQFeAsLgN/ZpNIvq6rq4lBlkF4N2U
wGa64SvpxsSZwxQDdvDE3ZSKpjgVE7cO5bsZQT5Cpu8Z
-----END CERTIFICATE-----
