Certificate:
    Data:
        Version: 3 (0x2)
        Serial Number: 9873 (0x2691)
    Signature Algorithm: sha256WithRSAEncryption
        Issuer: C=US, ST=OH, L=Columbus, O=VikingVPN, OU=MyOrganizationalUnit, CN=VikingVPN CA/name=EasyRSA/emailAddress=me@myhost.mydomain
        Validity
            Not Before: Jan 13 14:02:41 2017 GMT
            Not After : Jan 11 14:02:41 2027 GMT
        Subject: CN=Client2683Cert906fc1
        Subject Public Key Info:
            Public Key Algorithm: rsaEncryption
                Public-Key: (4096 bit)
                Modulus:
                    00:9e:16:54:c1:eb:2b:8a:c3:b2:0b:bf:e7:62:d8:
                    93:1c:76:ad:80:5d:7c:ca:83:49:b6:20:a8:16:a2:
                    35:46:f2:b0:44:d3:8f:9a:da:7e:67:0e:f3:44:bb:
                    60:82:80:7f:f0:4b:e8:60:df:43:5b:42:87:1d:0f:
                    0d:0f:50:91:54:3b:db:f0:47:3c:d8:7b:ac:f6:2d:
                    55:30:f1:b8:6d:6b:a7:e5:d4:70:d2:52:89:0e:98:
                    85:f7:5c:40:85:d5:91:30:19:31:36:8a:d4:eb:4f:
                    83:55:be:7d:42:4b:69:47:05:55:20:d2:22:cc:63:
                    46:d4:c9:fe:1c:af:75:40:ce:78:5f:37:89:7c:c1:
                    64:d5:5b:a9:c1:50:ec:63:aa:cc:97:8b:f6:13:86:
                    93:8e:83:45:91:4f:04:3e:b1:b8:05:a0:c7:45:c2:
                    ab:6a:1a:94:6b:4b:7c:47:cf:17:d4:8f:b3:7a:81:
                    b6:76:08:db:22:47:84:78:ad:86:ff:71:85:fb:70:
                    08:73:50:b0:16:44:7d:4b:29:d4:c0:91:43:ba:98:
                    f9:a1:d3:56:41:bf:42:96:c9:0c:ec:7c:77:30:6c:
                    2f:6e:21:18:9b:2c:5e:74:b6:db:eb:89:17:ab:92:
                    af:f0:c6:93:a6:e1:62:63:d8:bf:01:88:0e:ce:11:
                    c9:e4:bd:93:00:ce:3a:26:68:1b:95:c9:f3:eb:82:
                    9b:8e:be:22:89:3f:b4:9c:90:83:c8:87:06:7d:6b:
                    00:da:20:b8:9d:a8:97:8a:e8:9c:d7:03:4e:ff:99:
                    97:81:a6:f4:81:80:8f:63:b9:03:eb:97:5a:44:4f:
                    2b:6e:18:0c:8b:bd:48:da:66:77:79:56:d8:46:a7:
                    22:a3:8c:5a:80:a1:e8:17:72:15:65:33:5f:3f:cb:
                    78:9d:4f:f2:ca:4e:65:83:8e:8a:e2:3e:26:10:c3:
                    5c:1e:21:a6:97:ad:a4:fb:b6:33:27:e8:2f:01:63:
                    10:c2:44:d5:23:2b:c9:01:39:d2:ff:8a:4c:0d:38:
                    a9:63:38:cb:3b:d9:e2:46:d7:23:cb:33:11:9f:2c:
                    7b:b8:c1:28:ed:b3:04:bf:06:5b:40:f0:c7:45:30:
                    a0:2b:90:75:1b:5f:35:48:7b:c4:af:2d:88:3e:7a:
                    75:07:6f:7e:58:19:a4:40:3f:ad:4d:6b:1a:ca:cb:
                    69:e0:b3:19:02:bb:cf:f4:53:f0:b9:e3:e9:19:7f:
                    fb:59:3f:4c:f2:26:7c:6b:68:e2:da:d8:01:5a:fe:
                    bb:79:d9:e6:20:9e:d4:93:0e:f0:97:1d:c9:8d:0e:
                    f4:4b:58:00:c5:3b:f8:3c:d3:55:05:a8:cf:7f:12:
                    a3:da:77
                Exponent: 65537 (0x10001)
        X509v3 extensions:
            X509v3 Basic Constraints: 
                CA:FALSE
            Netscape Comment: 
                Easy-RSA Generated Certificate
            X509v3 Subject Key Identifier: 
                E3:27:C8:C3:CF:EB:70:E8:04:ED:C6:2C:29:30:4E:34:A9:5E:BE:94
            X509v3 Authority Key Identifier: 
                keyid:12:CD:60:04:D2:A0:80:9E:70:ED:C6:99:B8:7B:2C:C6:52:FD:19:A1
                DirName:/C=US/ST=OH/L=Columbus/O=VikingVPN/OU=MyOrganizationalUnit/CN=VikingVPN CA/name=EasyRSA/emailAddress=me@myhost.mydomain
                serial:CF:35:85:EE:80:BF:2A:3E

            X509v3 Extended Key Usage: 
                TLS Web Client Authentication
            X509v3 Key Usage: 
                Digital Signature
    Signature Algorithm: sha256WithRSAEncryption
         ec:dd:db:4e:5e:af:9c:9a:69:24:c1:7a:a4:7d:be:86:c1:a3:
         b0:44:0c:1b:3e:bd:28:01:b3:0d:a4:d0:17:cb:37:60:bd:5e:
         71:99:77:a5:6b:26:1c:41:56:f3:d9:78:ff:5e:e4:92:38:a4:
         a2:0b:dc:b6:73:38:7c:fa:b8:42:af:4c:d5:64:ac:c4:84:0c:
         8a:f5:91:ac:ac:80:59:45:9a:3b:a9:cd:ec:fe:10:e4:e9:f2:
         68:09:2e:09:24:de:7f:c6:76:95:ee:d9:06:d7:55:d3:37:9a:
         08:11:61:7e:65:c8:7a:de:57:99:14:98:92:42:a7:0d:d8:42:
         58:25:d3:96:65:a9:bd:51:0c:cd:de:d5:b6:5a:c9:5f:19:33:
         d3:a5:64:19:e9:91:c4:da:94:4b:d4:78:a1:44:d3:0a:69:ff:
         54:af:c6:49:22:81:c3:3a:0d:da:ab:f2:0b:13:d1:19:d5:91:
         b7:93:99:86:69:cc:91:f7:ab:4c:d3:f7:cc:c8:f9:3e:a5:4d:
         95:c9:1a:6c:48:69:1d:c6:fc:24:55:cf:0e:fa:8b:65:08:33:
         c3:72:2c:9d:0c:cf:f7:90:f2:96:64:17:ba:d4:2a:92:26:9c:
         a7:da:ba:e2:ad:a0:74:ee:0e:41:ba:1b:89:a8:79:cf:a1:c2:
         5c:18:e4:56:29:d7:34:17:c7:e6:24:21:6f:19:01:f9:e1:96:
         a6:41:5b:33:ec:ef:3a:17:d9:59:ca:99:37:da:38:a0:32:e5:
         0d:8d:51:10:10:69:cc:d7:fa:96:02:39:5b:7b:2f:89:5e:69:
         59:a3:c1:5c:8f:6d:dd:82:e0:da:d7:e1:5a:a9:c0:22:87:67:
         d7:e4:51:c6:cd:a9:b1:a0:a3:68:59:4b:e5:ad:70:c4:bb:08:
         01:6b:64:92:a0:01:a8:3f:2f:a9:9e:59:44:be:f7:c2:de:d4:
         55:c6:d3:73:26:e5:0b:fb:83:b2:77:9c:de:34:b3:c7:0d:95:
         f1:5a:2b:e8:0e:26:17:41:d2:1f:3a:7d:3d:10:a4:9e:4d:78:
         fe:dd:9b:97:9a:6d:2a:ba:91:06:ee:d6:0d:3b:bf:d6:78:56:
         b8:9d:c4:35:63:95:12:c4:37:3e:c6:d8:2c:55:ce:67:93:8c:
         78:e3:3d:86:a8:ef:bd:fa:b5:cb:f3:23:90:1c:93:b1:ea:e0:
         b0:5e:36:76:0f:8d:50:19:44:c3:42:98:05:87:f4:3d:2f:d3:
         6d:1a:d3:9e:de:ad:e4:13:76:77:46:49:24:02:99:17:38:8f:
         8e:f7:93:c9:00:a3:1d:86:87:fa:14:4b:2d:de:ce:2a:eb:86:
         15:55:39:96:77:b2:a7:de
-----BEGIN CERTIFICATE-----
MIIGrTCCBJWgAwIBAgICJpEwDQYJKoZIhvcNAQELBQAwgawxCzAJBgNVBAYTAlVT
MQswCQYDVQQIEwJPSDERMA8GA1UEBxMIQ29sdW1idXMxEjAQBgNVBAoTCVZpa2lu
Z1ZQTjEdMBsGA1UECxMUTXlPcmdhbml6YXRpb25hbFVuaXQxFTATBgNVBAMTDFZp
a2luZ1ZQTiBDQTEQMA4GA1UEKRMHRWFzeVJTQTEhMB8GCSqGSIb3DQEJARYSbWVA
bXlob3N0Lm15ZG9tYWluMB4XDTE3MDExMzE0MDI0MVoXDTI3MDExMTE0MDI0MVow
HzEdMBsGA1UEAxMUQ2xpZW50MjY4M0NlcnQ5MDZmYzEwggIiMA0GCSqGSIb3DQEB
AQUAA4ICDwAwggIKAoICAQCeFlTB6yuKw7ILv+di2JMcdq2AXXzKg0m2IKgWojVG
8rBE04+a2n5nDvNEu2CCgH/wS+hg30NbQocdDw0PUJFUO9vwRzzYe6z2LVUw8bht
a6fl1HDSUokOmIX3XECF1ZEwGTE2itTrT4NVvn1CS2lHBVUg0iLMY0bUyf4cr3VA
znhfN4l8wWTVW6nBUOxjqsyXi/YThpOOg0WRTwQ+sbgFoMdFwqtqGpRrS3xHzxfU
j7N6gbZ2CNsiR4R4rYb/cYX7cAhzULAWRH1LKdTAkUO6mPmh01ZBv0KWyQzsfHcw
bC9uIRibLF50ttvriRerkq/wxpOm4WJj2L8BiA7OEcnkvZMAzjomaBuVyfPrgpuO
viKJP7SckIPIhwZ9awDaILidqJeK6JzXA07/mZeBpvSBgI9juQPrl1pETytuGAyL
vUjaZnd5VthGpyKjjFqAoegXchVlM18/y3idT/LKTmWDjoriPiYQw1weIaaXraT7
tjMn6C8BYxDCRNUjK8kBOdL/ikwNOKljOMs72eJG1yPLMxGfLHu4wSjtswS/BltA
8MdFMKArkHUbXzVIe8SvLYg+enUHb35YGaRAP61NaxrKy2ngsxkCu8/0U/C54+kZ
f/tZP0zyJnxraOLa2AFa/rt52eYgntSTDvCXHcmNDvRLWADFO/g801UFqM9/EqPa
dwIDAQABo4IBYzCCAV8wCQYDVR0TBAIwADAtBglghkgBhvhCAQ0EIBYeRWFzeS1S
U0EgR2VuZXJhdGVkIENlcnRpZmljYXRlMB0GA1UdDgQWBBTjJ8jDz+tw6ATtxiwp
ME40qV6+lDCB4QYDVR0jBIHZMIHWgBQSzWAE0qCAnnDtxpm4eyzGUv0ZoaGBsqSB
rzCBrDELMAkGA1UEBhMCVVMxCzAJBgNVBAgTAk9IMREwDwYDVQQHEwhDb2x1bWJ1
czESMBAGA1UEChMJVmlraW5nVlBOMR0wGwYDVQQLExRNeU9yZ2FuaXphdGlvbmFs
VW5pdDEVMBMGA1UEAxMMVmlraW5nVlBOIENBMRAwDgYDVQQpEwdFYXN5UlNBMSEw
HwYJKoZIhvcNAQkBFhJtZUBteWhvc3QubXlkb21haW6CCQDPNYXugL8qPjATBgNV
HSUEDDAKBggrBgEFBQcDAjALBgNVHQ8EBAMCB4AwDQYJKoZIhvcNAQELBQADggIB
AOzd205er5yaaSTBeqR9vobBo7BEDBs+vSgBsw2k0BfLN2C9XnGZd6VrJhxBVvPZ
eP9e5JI4pKIL3LZzOHz6uEKvTNVkrMSEDIr1kaysgFlFmjupzez+EOTp8mgJLgkk
3n/GdpXu2QbXVdM3mggRYX5lyHreV5kUmJJCpw3YQlgl05Zlqb1RDM3e1bZayV8Z
M9OlZBnpkcTalEvUeKFE0wpp/1SvxkkigcM6Ddqr8gsT0RnVkbeTmYZpzJH3q0zT
98zI+T6lTZXJGmxIaR3G/CRVzw76i2UIM8NyLJ0Mz/eQ8pZkF7rUKpImnKfauuKt
oHTuDkG6G4moec+hwlwY5FYp1zQXx+YkIW8ZAfnhlqZBWzPs7zoX2VnKmTfaOKAy
5Q2NURAQaczX+pYCOVt7L4leaVmjwVyPbd2C4NrX4VqpwCKHZ9fkUcbNqbGgo2hZ
S+WtcMS7CAFrZJKgAag/L6meWUS+98Le1FXG03Mm5Qv7g7J3nN40s8cNlfFaK+gO
JhdB0h86fT0QpJ5NeP7dm5eabSq6kQbu1g07v9Z4VridxDVjlRLENz7G2CxVzmeT
jHjjPYao7736tcvzI5Ack7Hq4LBeNnYPjVAZRMNCmAWH9D0v020a057ereQTdndG
SSQCmRc4j473k8kAox2Gh/oUSy3ezirrhhVVOZZ3sqfe
-----END CERTIFICATE-----
