Certificate:
    Data:
        Version: 3 (0x2)
        Serial Number: 946 (0x3b2)
    Signature Algorithm: md5WithRSAEncryption
        Issuer: C=US, ST=OH, L=Columbus, O=VikingVPN, OU=MyOrganizationalUnit, CN=VikingVPN CA/name=EasyRSA/emailAddress=me@myhost.mydomain
        Validity
            Not Before: Feb  4 05:40:42 2014 GMT
            Not After : Feb  2 05:40:42 2024 GMT
        Subject: CN=Client154Certc73367
        Subject Public Key Info:
            Public Key Algorithm: rsaEncryption
                Public-Key: (4096 bit)
                Modulus:
                    00:b2:46:58:59:50:76:4d:ba:c1:64:7e:33:be:16:
                    cb:89:18:fa:1b:80:81:2b:6c:44:e7:77:74:1f:3b:
                    a2:8d:8e:a4:53:61:76:3c:b7:55:de:e6:c8:46:5e:
                    47:2b:12:03:3f:f9:43:a2:3f:f4:09:f6:55:6d:ba:
                    1f:16:39:14:77:5c:46:d5:3f:54:86:3f:fa:cb:cf:
                    f4:28:7f:e6:05:f0:d6:35:a9:53:b3:79:1f:28:62:
                    29:9c:f6:69:63:56:3f:9d:e9:1c:c7:f8:5e:9c:20:
                    1c:b6:60:67:c2:54:33:33:fe:28:5a:f8:cc:9a:8f:
                    c3:b0:d3:05:2d:d2:89:0d:69:4f:9c:dd:30:10:af:
                    8b:14:22:6e:b8:ce:d3:c8:42:d2:ff:6b:cb:b8:75:
                    d4:d2:b6:e8:86:46:f6:79:a3:6d:17:b7:60:59:58:
                    aa:0d:5c:07:e5:11:1a:5a:c3:dd:59:7f:69:af:53:
                    47:32:94:03:62:37:ab:e3:1a:e9:2b:5e:3b:b2:c7:
                    7a:18:e6:92:b9:37:98:99:8d:e3:c2:a0:d4:54:1c:
                    62:c5:8c:d2:cb:9e:7e:f4:c1:1e:7b:a2:7d:70:86:
                    ee:ea:ed:63:09:5e:a8:ae:d6:b4:3b:2d:d1:cc:db:
                    68:03:d3:06:5d:11:a5:e9:f9:99:b3:d3:75:4c:67:
                    eb:fd:1f:d8:de:15:61:26:53:94:c2:a5:d9:ae:68:
                    97:fb:e9:c1:71:b0:e1:eb:af:e2:18:41:db:d1:af:
                    38:ef:94:80:83:64:3e:bf:31:be:e1:2d:c2:65:49:
                    7e:1a:4e:ca:83:21:f4:74:74:0a:85:81:d7:97:11:
                    a2:73:89:e6:86:fa:0d:07:21:a4:f2:72:01:90:74:
                    55:5f:f9:6d:5e:6b:2e:b0:f7:d0:ce:de:b2:2a:2a:
                    9d:5b:9b:be:30:7a:14:76:42:76:c4:9f:e0:1d:7b:
                    a3:b3:37:cb:98:11:08:7c:cd:90:04:83:53:69:5f:
                    19:97:5e:2f:c1:c7:86:a5:eb:4a:7e:62:79:41:59:
                    cc:c8:48:e8:43:12:8d:6e:ea:30:cd:c0:d1:06:21:
                    62:19:2f:78:ec:c5:67:da:c6:b5:87:bf:66:ae:86:
                    b6:bb:09:c4:05:55:0f:f0:90:b5:36:de:9f:0b:c1:
                    b0:cf:c2:4c:c1:c3:bf:3f:24:5e:7e:35:88:35:dc:
                    a7:f0:2f:1c:bd:d8:94:bf:a7:4c:b2:2b:5c:ff:92:
                    f1:a7:05:f1:f7:c9:25:95:4f:34:7c:e7:6b:e0:cf:
                    8a:41:65:8c:20:0c:4d:03:ed:d8:f8:97:0a:00:5b:
                    aa:37:f3:bc:4f:00:aa:ac:dc:33:de:7e:6a:70:6c:
                    2b:11:07
                Exponent: 65537 (0x10001)
        X509v3 extensions:
            X509v3 Basic Constraints: 
                CA:FALSE
            Netscape Comment: 
                Easy-RSA Generated Certificate
            X509v3 Subject Key Identifier: 
                12:67:5F:43:6F:A3:6D:BE:0A:C4:F4:5B:2D:0E:24:8B:20:83:2A:C1
            X509v3 Authority Key Identifier: 
                keyid:12:CD:60:04:D2:A0:80:9E:70:ED:C6:99:B8:7B:2C:C6:52:FD:19:A1
                DirName:/C=US/ST=OH/L=Columbus/O=VikingVPN/OU=MyOrganizationalUnit/CN=VikingVPN CA/name=EasyRSA/emailAddress=me@myhost.mydomain
                serial:CF:35:85:EE:80:BF:2A:3E

            X509v3 Extended Key Usage: 
                TLS Web Client Authentication
            X509v3 Key Usage: 
                Digital Signature
    Signature Algorithm: md5WithRSAEncryption
         a5:bc:13:c4:5e:9a:6d:17:5e:91:c9:1c:ff:2b:a1:b9:0d:d6:
         e5:a7:c3:0f:43:b1:c2:03:28:cf:59:1a:dd:3d:27:52:f9:ae:
         e4:76:a0:f7:0a:73:ba:95:79:e8:f3:27:ae:5e:10:ae:ac:d5:
         12:b5:dd:cd:9c:ac:ea:28:1a:a2:fc:21:1e:ef:f8:15:be:d8:
         3b:ef:fa:32:1b:36:5d:00:e2:a4:56:d2:05:5d:c2:eb:9f:82:
         e8:1a:0b:b5:a3:7a:76:ed:37:99:dd:aa:e8:f8:37:65:00:80:
         bb:d1:f1:f6:fc:96:a8:42:79:9c:ac:c9:33:e0:78:33:25:c8:
         5e:f0:8c:6d:e3:8e:50:14:5b:8a:e7:e4:59:4c:87:75:ed:11:
         e1:16:e9:1c:3d:a2:b5:40:7b:ed:54:9a:28:c8:06:da:26:73:
         ff:71:72:3a:2a:87:7a:e0:14:30:e3:df:d2:54:3f:8a:bd:24:
         ac:4c:fe:88:05:ee:ed:6b:8f:f0:02:5a:c4:eb:2a:58:dd:86:
         64:90:0b:f1:2b:31:c9:cf:cc:e5:7b:4d:2d:ee:db:72:b3:b6:
         21:e2:71:d6:35:2d:db:ae:cd:67:22:94:ba:c3:a8:e6:85:3b:
         85:04:f2:c9:c7:8d:c5:13:4c:99:71:be:35:00:e5:1e:97:a1:
         86:3f:82:9c:97:e0:bd:c4:d8:17:1e:29:61:2d:c8:08:36:26:
         74:5a:c3:99:2d:73:d5:86:d5:73:a8:a9:ee:e6:50:76:7b:18:
         d4:ed:f6:76:a3:91:cd:66:84:9d:c0:3e:cc:78:57:c7:c7:81:
         85:d7:cc:6f:0b:f0:90:dc:eb:ad:dc:80:60:6d:fe:e9:67:03:
         0e:ae:d0:c4:45:ad:6a:24:ab:85:b6:2a:96:d3:2a:46:cd:8a:
         06:82:76:57:6c:7a:2b:7c:f9:29:9b:b4:e1:7a:85:a8:8e:09:
         33:d7:1b:30:8c:7f:a9:20:75:69:7e:fa:9f:c1:a6:b3:53:8b:
         b2:cb:6f:98:b0:4a:de:30:39:80:e8:8a:c2:f1:80:cc:40:c3:
         42:ef:a6:3b:d9:f0:ff:8e:b0:a4:90:82:f3:20:97:48:7f:2e:
         02:6d:40:1e:c0:4f:3d:9f:04:69:27:a3:38:16:e9:00:b1:d1:
         ea:e7:d4:bd:a5:fb:e9:87:30:f2:db:30:70:ed:a2:e7:23:ed:
         61:9c:09:f6:37:ce:53:e6:e5:01:83:84:26:1f:8c:94:88:68:
         f3:d5:69:f6:90:fc:49:c1:31:1d:e6:a2:b2:8b:33:6b:40:e0:
         86:5e:60:c8:0a:63:6e:cf:46:24:c7:bb:73:a3:b9:69:60:78:
         a4:c8:01:e4:ce:5c:73:95
-----BEGIN CERTIFICATE-----
MIIGrDCCBJSgAwIBAgICA7IwDQYJKoZIhvcNAQEEBQAwgawxCzAJBgNVBAYTAlVT
MQswCQYDVQQIEwJPSDERMA8GA1UEBxMIQ29sdW1idXMxEjAQBgNVBAoTCVZpa2lu
Z1ZQTjEdMBsGA1UECxMUTXlPcmdhbml6YXRpb25hbFVuaXQxFTATBgNVBAMTDFZp
a2luZ1ZQTiBDQTEQMA4GA1UEKRMHRWFzeVJTQTEhMB8GCSqGSIb3DQEJARYSbWVA
bXlob3N0Lm15ZG9tYWluMB4XDTE0MDIwNDA1NDA0MloXDTI0MDIwMjA1NDA0Mlow
HjEcMBoGA1UEAxMTQ2xpZW50MTU0Q2VydGM3MzM2NzCCAiIwDQYJKoZIhvcNAQEB
BQADggIPADCCAgoCggIBALJGWFlQdk26wWR+M74Wy4kY+huAgStsROd3dB87oo2O
pFNhdjy3Vd7myEZeRysSAz/5Q6I/9An2VW26HxY5FHdcRtU/VIY/+svP9Ch/5gXw
1jWpU7N5HyhiKZz2aWNWP53pHMf4XpwgHLZgZ8JUMzP+KFr4zJqPw7DTBS3SiQ1p
T5zdMBCvixQibrjO08hC0v9ry7h11NK26IZG9nmjbRe3YFlYqg1cB+URGlrD3Vl/
aa9TRzKUA2I3q+Ma6SteO7LHehjmkrk3mJmN48Kg1FQcYsWM0suefvTBHnuifXCG
7urtYwleqK7WtDst0czbaAPTBl0Rpen5mbPTdUxn6/0f2N4VYSZTlMKl2a5ol/vp
wXGw4euv4hhB29GvOO+UgINkPr8xvuEtwmVJfhpOyoMh9HR0CoWB15cRonOJ5ob6
DQchpPJyAZB0VV/5bV5rLrD30M7esioqnVubvjB6FHZCdsSf4B17o7M3y5gRCHzN
kASDU2lfGZdeL8HHhqXrSn5ieUFZzMhI6EMSjW7qMM3A0QYhYhkveOzFZ9rGtYe/
Zq6GtrsJxAVVD/CQtTbenwvBsM/CTMHDvz8kXn41iDXcp/AvHL3YlL+nTLIrXP+S
8acF8ffJJZVPNHzna+DPikFljCAMTQPt2PiXCgBbqjfzvE8AqqzcM95+anBsKxEH
AgMBAAGjggFjMIIBXzAJBgNVHRMEAjAAMC0GCWCGSAGG+EIBDQQgFh5FYXN5LVJT
QSBHZW5lcmF0ZWQgQ2VydGlmaWNhdGUwHQYDVR0OBBYEFBJnX0Nvo22+CsT0Wy0O
JIsggyrBMIHhBgNVHSMEgdkwgdaAFBLNYATSoICecO3Gmbh7LMZS/RmhoYGypIGv
MIGsMQswCQYDVQQGEwJVUzELMAkGA1UECBMCT0gxETAPBgNVBAcTCENvbHVtYnVz
MRIwEAYDVQQKEwlWaWtpbmdWUE4xHTAbBgNVBAsTFE15T3JnYW5pemF0aW9uYWxV
bml0MRUwEwYDVQQDEwxWaWtpbmdWUE4gQ0ExEDAOBgNVBCkTB0Vhc3lSU0ExITAf
BgkqhkiG9w0BCQEWEm1lQG15aG9zdC5teWRvbWFpboIJAM81he6Avyo+MBMGA1Ud
JQQMMAoGCCsGAQUFBwMCMAsGA1UdDwQEAwIHgDANBgkqhkiG9w0BAQQFAAOCAgEA
pbwTxF6abRdekckc/yuhuQ3W5afDD0OxwgMoz1ka3T0nUvmu5Hag9wpzupV56PMn
rl4QrqzVErXdzZys6igaovwhHu/4Fb7YO+/6Mhs2XQDipFbSBV3C65+C6BoLtaN6
du03md2q6Pg3ZQCAu9Hx9vyWqEJ5nKzJM+B4MyXIXvCMbeOOUBRbiufkWUyHde0R
4RbpHD2itUB77VSaKMgG2iZz/3FyOiqHeuAUMOPf0lQ/ir0krEz+iAXu7WuP8AJa
xOsqWN2GZJAL8Ssxyc/M5XtNLe7bcrO2IeJx1jUt267NZyKUusOo5oU7hQTyyceN
xRNMmXG+NQDlHpehhj+CnJfgvcTYFx4pYS3ICDYmdFrDmS1z1YbVc6ip7uZQdnsY
1O32dqORzWaEncA+zHhXx8eBhdfMbwvwkNzrrdyAYG3+6WcDDq7QxEWtaiSrhbYq
ltMqRs2KBoJ2V2x6K3z5KZu04XqFqI4JM9cbMIx/qSB1aX76n8Gms1OLsstvmLBK
3jA5gOiKwvGAzEDDQu+mO9nw/46wpJCC8yCXSH8uAm1AHsBPPZ8EaSejOBbpALHR
6ufUvaX76Ycw8tswcO2i5yPtYZwJ9jfOU+blAYOEJh+MlIho89Vp9pD8ScExHeai
sosza0Dghl5gyApjbs9GJMe7c6O5aWB4pMgB5M5cc5U=
-----END CERTIFICATE-----
