Certificate:
    Data:
        Version: 3 (0x2)
        Serial Number: 9904 (0x26b0)
    Signature Algorithm: sha256WithRSAEncryption
        Issuer: C=US, ST=OH, L=Columbus, O=VikingVPN, OU=MyOrganizationalUnit, CN=VikingVPN CA/name=EasyRSA/emailAddress=me@myhost.mydomain
        Validity
            Not Before: Jan 14 16:52:33 2017 GMT
            Not After : Jan 12 16:52:33 2027 GMT
        Subject: CN=Client2263Certb8ac79
        Subject Public Key Info:
            Public Key Algorithm: rsaEncryption
                Public-Key: (4096 bit)
                Modulus:
                    00:d3:bc:bc:30:58:36:e1:fa:86:7d:49:b5:a5:d2:
                    d4:75:66:74:4e:0e:c6:c5:26:fe:f8:2a:72:d9:19:
                    63:d1:08:d0:93:e3:d0:37:df:26:85:52:84:0c:82:
                    18:3d:93:81:86:2e:d3:45:d5:90:11:5a:ec:67:9b:
                    12:e5:d2:38:93:43:03:12:8f:e5:93:44:b6:f9:b0:
                    c6:ef:2b:28:85:69:a0:3d:92:d4:0a:b1:c8:7b:c3:
                    5d:14:ca:8d:71:fc:03:e3:6a:78:00:31:67:5c:5e:
                    8c:b1:6d:0d:ee:fd:af:3f:cf:55:0e:93:e0:29:4a:
                    b0:f2:62:6a:60:1b:da:fc:21:66:35:f2:69:53:ab:
                    a8:42:cf:78:65:e4:21:79:91:06:e0:34:df:95:33:
                    7b:20:78:28:f4:6d:f3:83:9e:26:aa:30:a7:8c:6b:
                    0f:57:8b:5b:ec:b1:f5:28:97:9c:d4:f4:20:7f:0d:
                    97:ed:a7:e8:ee:56:a2:47:e3:fa:14:f4:fc:d4:78:
                    fd:11:ab:2e:1b:4c:1f:44:36:3f:18:da:e3:2c:39:
                    11:db:ab:d1:56:92:9b:4c:f6:41:e4:a2:29:d7:e9:
                    19:58:a0:fc:4e:20:dd:4d:7b:9d:16:89:4e:fc:b9:
                    a2:c5:d5:41:0e:2e:6c:ed:6d:a8:c7:a3:4e:94:c1:
                    3a:78:2f:eb:3c:e9:dc:aa:7a:e3:3b:8e:3c:0b:5c:
                    ce:c3:82:8b:a8:e6:d1:96:5b:98:66:22:b2:62:ba:
                    69:dc:99:9e:4b:0e:e2:03:bb:5e:1b:04:e1:92:43:
                    f2:1c:c7:08:75:8c:f9:ca:b2:c9:82:1b:ae:f8:5e:
                    fa:6d:0c:72:ff:d7:54:e4:5f:9a:8e:95:56:35:fd:
                    33:2e:ad:16:61:74:ed:05:46:15:94:31:90:b0:99:
                    01:5d:aa:c3:2b:eb:89:20:4b:dc:9e:85:d9:16:22:
                    5d:c8:71:46:83:ef:98:1e:34:d9:2a:d6:21:44:df:
                    8a:e3:55:54:34:10:f1:bd:53:37:91:a0:44:3a:04:
                    80:e2:6b:bb:03:01:bf:95:da:1c:c1:32:a9:d8:b4:
                    1c:09:9c:81:6e:9d:3c:42:90:a3:9d:23:9b:46:d8:
                    b4:03:74:67:0a:27:e1:98:f9:54:02:97:0e:b2:7e:
                    26:64:c7:20:b1:91:81:d1:91:a9:f8:d3:a3:44:ca:
                    14:ec:cf:52:a7:17:e7:47:2f:78:c7:4c:39:a9:0c:
                    e8:88:22:75:fa:29:56:24:47:40:e8:ed:14:3f:2c:
                    ac:30:14:7d:3f:b9:1e:45:14:9d:14:b2:5c:cf:30:
                    46:e9:e8:7b:b0:8d:30:e3:91:a0:10:81:c7:59:e9:
                    6e:04:4b
                Exponent: 65537 (0x10001)
        X509v3 extensions:
            X509v3 Basic Constraints: 
                CA:FALSE
            Netscape Comment: 
                Easy-RSA Generated Certificate
            X509v3 Subject Key Identifier: 
                CE:74:3B:DB:EB:73:4B:FD:DC:2D:F5:40:A8:07:DE:98:E4:C7:03:75
            X509v3 Authority Key Identifier: 
                keyid:12:CD:60:04:D2:A0:80:9E:70:ED:C6:99:B8:7B:2C:C6:52:FD:19:A1
                DirName:/C=US/ST=OH/L=Columbus/O=VikingVPN/OU=MyOrganizationalUnit/CN=VikingVPN CA/name=EasyRSA/emailAddress=me@myhost.mydomain
                serial:CF:35:85:EE:80:BF:2A:3E

            X509v3 Extended Key Usage: 
                TLS Web Client Authentication
            X509v3 Key Usage: 
                Digital Signature
    Signature Algorithm: sha256WithRSAEncryption
         a6:7c:82:80:76:a6:77:36:3e:7b:65:63:29:fc:4b:cd:c7:a9:
         73:0d:06:cd:1e:85:89:5d:b7:bc:dc:8c:1c:e7:bc:b8:18:59:
         d2:37:e3:b3:6d:6a:95:08:a6:ae:b2:7c:a8:0d:e9:2e:5f:98:
         a3:87:9f:9e:1f:bc:19:dd:23:49:82:83:45:9e:a4:5e:84:5c:
         1e:e3:92:12:13:82:5d:1e:3d:d3:8f:8f:f6:1c:52:2d:af:18:
         30:25:6b:da:b5:74:11:f2:71:1b:e2:d1:11:8b:11:60:08:c0:
         84:b3:ab:2e:3c:64:10:f1:92:cf:35:a4:4d:2d:64:41:72:23:
         29:43:ca:91:1c:bd:25:56:9d:70:15:50:76:e8:03:e8:f6:7c:
         a4:f3:ae:ba:90:bc:9f:62:50:b6:48:b4:94:58:06:2a:dd:8c:
         ed:28:61:d6:88:98:a6:87:86:0d:ed:f9:7b:f1:19:fe:6d:f2:
         70:0e:32:3a:dd:35:1d:c6:ce:6f:50:a1:7d:fa:07:c9:4a:75:
         08:18:53:8a:d3:3c:99:ab:bb:1e:ba:e5:ce:fd:d4:b6:2f:b9:
         64:0f:d1:8e:23:84:56:56:03:66:f2:fb:7a:77:49:63:24:ad:
         76:17:da:47:5b:3d:86:18:35:d7:b5:07:f1:68:02:11:4a:c8:
         e4:6e:7e:c4:d4:f2:20:58:94:03:7d:50:75:09:0c:3b:cd:05:
         fc:c8:4f:a1:95:a7:13:c4:61:ad:ae:b2:6a:3a:db:4f:15:20:
         31:99:e9:87:99:6f:f6:79:dd:63:22:ee:52:b5:82:df:46:79:
         6a:6d:88:1c:fc:5d:cd:5e:96:c4:e8:e6:15:b2:75:61:92:4f:
         42:76:8d:de:89:2e:17:b4:c7:11:3d:f4:ab:55:08:ec:08:a2:
         12:34:c0:e0:91:2b:38:59:84:2a:80:f2:6d:5e:2b:d3:8d:fc:
         fe:9a:f0:cd:c6:fd:d7:74:da:31:26:75:92:47:8d:fd:cd:c4:
         88:d3:5b:e0:d6:ff:17:eb:63:b0:27:9c:71:e6:d8:54:06:3c:
         16:c7:f2:90:51:d3:79:82:dc:77:9d:33:6c:ea:e1:27:01:39:
         9e:01:cc:b7:69:e2:4c:47:9a:01:19:49:3f:78:85:2f:1a:5e:
         9f:cb:bc:90:a2:54:8b:39:e4:cc:6f:f4:04:f4:c6:99:e3:04:
         59:60:46:57:3d:ba:6f:53:0a:a6:a4:03:df:35:d0:4f:01:72:
         8b:be:55:62:e3:88:fc:ea:50:63:7b:43:74:5c:34:6f:b7:b6:
         d1:b4:12:8a:08:8e:65:7d:48:82:6d:a4:39:c3:29:44:1a:e3:
         66:d9:4c:5a:aa:1d:c1:d6
-----BEGIN CERTIFICATE-----
MIIGrTCCBJWgAwIBAgICJrAwDQYJKoZIhvcNAQELBQAwgawxCzAJBgNVBAYTAlVT
MQswCQYDVQQIEwJPSDERMA8GA1UEBxMIQ29sdW1idXMxEjAQBgNVBAoTCVZpa2lu
Z1ZQTjEdMBsGA1UECxMUTXlPcmdhbml6YXRpb25hbFVuaXQxFTATBgNVBAMTDFZp
a2luZ1ZQTiBDQTEQMA4GA1UEKRMHRWFzeVJTQTEhMB8GCSqGSIb3DQEJARYSbWVA
bXlob3N0Lm15ZG9tYWluMB4XDTE3MDExNDE2NTIzM1oXDTI3MDExMjE2NTIzM1ow
HzEdMBsGA1UEAxMUQ2xpZW50MjI2M0NlcnRiOGFjNzkwggIiMA0GCSqGSIb3DQEB
AQUAA4ICDwAwggIKAoICAQDTvLwwWDbh+oZ9SbWl0tR1ZnRODsbFJv74KnLZGWPR
CNCT49A33yaFUoQMghg9k4GGLtNF1ZARWuxnmxLl0jiTQwMSj+WTRLb5sMbvKyiF
aaA9ktQKsch7w10Uyo1x/APjangAMWdcXoyxbQ3u/a8/z1UOk+ApSrDyYmpgG9r8
IWY18mlTq6hCz3hl5CF5kQbgNN+VM3sgeCj0bfODniaqMKeMaw9Xi1vssfUol5zU
9CB/DZftp+juVqJH4/oU9PzUeP0Rqy4bTB9ENj8Y2uMsORHbq9FWkptM9kHkoinX
6RlYoPxOIN1Ne50WiU78uaLF1UEOLmztbajHo06UwTp4L+s86dyqeuM7jjwLXM7D
gouo5tGWW5hmIrJiumncmZ5LDuIDu14bBOGSQ/Icxwh1jPnKssmCG674XvptDHL/
11TkX5qOlVY1/TMurRZhdO0FRhWUMZCwmQFdqsMr64kgS9yehdkWIl3IcUaD75ge
NNkq1iFE34rjVVQ0EPG9UzeRoEQ6BIDia7sDAb+V2hzBMqnYtBwJnIFunTxCkKOd
I5tG2LQDdGcKJ+GY+VQClw6yfiZkxyCxkYHRkan406NEyhTsz1KnF+dHL3jHTDmp
DOiIInX6KVYkR0Do7RQ/LKwwFH0/uR5FFJ0UslzPMEbp6HuwjTDjkaAQgcdZ6W4E
SwIDAQABo4IBYzCCAV8wCQYDVR0TBAIwADAtBglghkgBhvhCAQ0EIBYeRWFzeS1S
U0EgR2VuZXJhdGVkIENlcnRpZmljYXRlMB0GA1UdDgQWBBTOdDvb63NL/dwt9UCo
B96Y5McDdTCB4QYDVR0jBIHZMIHWgBQSzWAE0qCAnnDtxpm4eyzGUv0ZoaGBsqSB
rzCBrDELMAkGA1UEBhMCVVMxCzAJBgNVBAgTAk9IMREwDwYDVQQHEwhDb2x1bWJ1
czESMBAGA1UEChMJVmlraW5nVlBOMR0wGwYDVQQLExRNeU9yZ2FuaXphdGlvbmFs
VW5pdDEVMBMGA1UEAxMMVmlraW5nVlBOIENBMRAwDgYDVQQpEwdFYXN5UlNBMSEw
HwYJKoZIhvcNAQkBFhJtZUBteWhvc3QubXlkb21haW6CCQDPNYXugL8qPjATBgNV
HSUEDDAKBggrBgEFBQcDAjALBgNVHQ8EBAMCB4AwDQYJKoZIhvcNAQELBQADggIB
AKZ8goB2pnc2PntlYyn8S83HqXMNBs0ehYldt7zcjBznvLgYWdI347NtapUIpq6y
fKgN6S5fmKOHn54fvBndI0mCg0WepF6EXB7jkhITgl0ePdOPj/YcUi2vGDAla9q1
dBHycRvi0RGLEWAIwISzqy48ZBDxks81pE0tZEFyIylDypEcvSVWnXAVUHboA+j2
fKTzrrqQvJ9iULZItJRYBirdjO0oYdaImKaHhg3t+XvxGf5t8nAOMjrdNR3Gzm9Q
oX36B8lKdQgYU4rTPJmrux665c791LYvuWQP0Y4jhFZWA2by+3p3SWMkrXYX2kdb
PYYYNde1B/FoAhFKyORufsTU8iBYlAN9UHUJDDvNBfzIT6GVpxPEYa2usmo6208V
IDGZ6YeZb/Z53WMi7lK1gt9GeWptiBz8Xc1elsTo5hWydWGST0J2jd6JLhe0xxE9
9KtVCOwIohI0wOCRKzhZhCqA8m1eK9ON/P6a8M3G/dd02jEmdZJHjf3NxIjTW+DW
/xfrY7AnnHHm2FQGPBbH8pBR03mC3HedM2zq4ScBOZ4BzLdp4kxHmgEZST94hS8a
Xp/LvJCiVIs55Mxv9AT0xpnjBFlgRlc9um9TCqakA9810E8Bcou+VWLjiPzqUGN7
Q3RcNG+3ttG0EooIjmV9SIJtpDnDKUQa42bZTFqqHcHW
-----END CERTIFICATE-----
