Certificate:
    Data:
        Version: 3 (0x2)
        Serial Number: 8391 (0x20c7)
    Signature Algorithm: md5WithRSAEncryption
        Issuer: C=US, ST=OH, L=Columbus, O=VikingVPN, OU=MyOrganizationalUnit, CN=VikingVPN CA/name=EasyRSA/emailAddress=me@myhost.mydomain
        Validity
            Not Before: Jul  1 22:46:15 2016 GMT
            Not After : Jun 29 22:46:15 2026 GMT
        Subject: CN=Client2398Certfd678b
        Subject Public Key Info:
            Public Key Algorithm: rsaEncryption
                Public-Key: (4096 bit)
                Modulus:
                    00:c1:99:f5:1a:fa:85:88:61:f8:32:70:33:bf:d6:
                    36:4a:df:ba:94:65:c3:b9:e9:5b:d3:d6:39:08:6d:
                    77:cf:c8:5d:25:97:49:13:fa:f1:97:9f:5f:a3:16:
                    80:5d:17:0e:eb:6b:b0:2f:0c:23:fe:80:a5:ed:fd:
                    e1:90:87:dc:b2:e8:7f:6e:1e:fb:3a:ef:94:e0:89:
                    d0:c9:7c:c3:f6:5f:2f:65:ff:eb:63:93:07:e5:46:
                    2f:4c:0f:ae:49:73:85:80:99:36:7c:da:2c:b4:03:
                    00:d5:8f:fa:c2:3c:0e:3e:35:d5:9d:75:41:24:be:
                    17:80:26:97:52:86:5d:96:db:df:55:ff:95:3d:50:
                    36:ba:42:00:09:60:ab:88:e3:83:26:58:e5:cb:4d:
                    93:e0:33:16:68:77:0b:25:09:a9:91:c0:2c:96:f3:
                    44:28:6c:7e:c6:70:3d:85:23:1f:66:5b:ef:bc:c6:
                    76:9d:51:9b:e7:b5:af:b4:ad:96:43:1e:9b:94:3c:
                    93:d0:1e:ca:3a:96:e8:f9:20:37:29:f7:1c:07:8b:
                    23:32:93:9f:f8:97:07:8d:85:bb:ca:e4:05:fe:b3:
                    ba:f6:bb:b3:1c:5d:eb:bb:30:88:91:81:8f:0c:fb:
                    38:72:80:59:07:d9:5e:ed:31:ce:67:2a:36:59:35:
                    4b:d2:3e:9f:6e:d8:95:ea:99:98:2e:20:ef:98:b4:
                    bf:87:48:f5:13:56:ae:24:bd:28:cb:50:95:1b:f9:
                    e8:dc:b1:f0:38:d1:40:7c:3d:c6:19:83:d5:0f:4b:
                    72:c9:8e:5e:01:76:7a:71:22:22:4c:94:01:e0:38:
                    0c:ba:9f:a3:97:5a:78:27:2d:97:a9:3d:28:60:bf:
                    da:7c:cf:cd:83:9a:46:f5:7c:31:da:e6:9e:d6:c0:
                    9e:7c:45:22:93:bc:03:1a:8c:59:d0:36:06:67:77:
                    39:53:84:05:25:98:f7:4c:88:8c:4f:94:3b:65:20:
                    96:01:6a:5e:a2:62:39:4d:e7:72:e1:7b:35:54:17:
                    65:c4:69:87:e6:60:40:0d:c4:d2:67:b3:6f:df:6c:
                    f4:08:14:ac:39:82:56:9e:4e:fa:4c:ac:c3:9d:c4:
                    76:80:85:75:94:eb:c1:c2:9f:03:7d:ab:7d:c8:92:
                    60:ce:be:75:8a:78:96:fd:ea:74:4b:7b:c7:f3:e8:
                    f4:03:09:db:a6:ba:39:1c:cc:10:59:05:16:43:86:
                    91:1c:89:3f:e2:f3:7e:3d:2f:84:72:0b:0f:74:1b:
                    bf:76:1a:4b:6c:bd:37:e5:e8:7e:4c:ca:78:f0:b1:
                    1a:3c:ef:74:72:3d:bb:11:d6:97:e1:1c:65:37:9c:
                    2a:79:01
                Exponent: 65537 (0x10001)
        X509v3 extensions:
            X509v3 Basic Constraints: 
                CA:FALSE
            Netscape Comment: 
                Easy-RSA Generated Certificate
            X509v3 Subject Key Identifier: 
                30:A8:B3:3B:02:48:D5:40:6E:45:43:29:6C:B1:E1:30:69:9A:48:49
            X509v3 Authority Key Identifier: 
                keyid:12:CD:60:04:D2:A0:80:9E:70:ED:C6:99:B8:7B:2C:C6:52:FD:19:A1
                DirName:/C=US/ST=OH/L=Columbus/O=VikingVPN/OU=MyOrganizationalUnit/CN=VikingVPN CA/name=EasyRSA/emailAddress=me@myhost.mydomain
                serial:CF:35:85:EE:80:BF:2A:3E

            X509v3 Extended Key Usage: 
                TLS Web Client Authentication
            X509v3 Key Usage: 
                Digital Signature
    Signature Algorithm: md5WithRSAEncryption
         82:56:3e:7d:08:aa:6d:0f:b7:3c:c1:5b:92:b3:56:8a:6c:3c:
         79:8a:83:42:56:52:ac:67:69:c9:07:03:99:97:95:29:95:29:
         64:60:5a:35:59:d4:08:ed:06:32:47:5c:dd:a7:bb:28:84:e6:
         59:3c:26:fa:b1:30:49:9a:c5:33:bc:0b:36:bd:17:0a:ee:ed:
         3d:e6:3e:bd:3a:49:2a:bf:62:c1:8c:e9:24:af:8d:39:94:dd:
         de:73:09:e5:76:b1:64:54:d4:5a:b6:da:c3:0c:f2:32:b6:d0:
         55:b1:21:94:c6:ba:0c:a8:4e:5a:16:f1:3b:79:dd:d2:56:d6:
         d7:f5:67:50:cd:63:4d:e6:1e:45:b3:44:2b:8b:5d:a6:d6:b2:
         b0:d7:fd:70:f3:5b:ad:b1:97:56:f4:39:05:0d:9c:ed:c3:95:
         64:90:5a:4d:b1:c0:d0:89:7d:91:d5:34:f0:9c:15:23:13:7d:
         d2:a3:67:31:60:15:4a:29:31:3e:f4:be:d4:52:41:41:40:c4:
         e3:c5:13:c8:cf:98:72:ec:84:6a:e7:53:e3:04:ed:8a:80:0e:
         59:dd:06:da:7c:9e:cf:be:52:ea:d9:32:55:fe:b2:06:f7:a3:
         c2:90:d8:09:50:26:b4:16:c4:f1:52:c9:7e:77:10:80:9d:7d:
         b1:69:c6:d9:d0:dc:0b:e7:65:d7:9d:de:c2:29:0f:78:e5:1c:
         e6:43:79:3b:37:3b:f4:98:2e:66:a3:81:31:69:07:93:55:16:
         61:5a:f3:74:45:ad:c2:e2:c8:8e:3d:af:be:7a:21:03:3c:31:
         ec:e6:a5:c9:1f:ba:c0:14:37:4f:6d:37:02:de:ad:c7:f5:d5:
         39:e1:d2:c1:c1:76:27:75:82:d1:57:28:4f:6d:ec:75:f0:70:
         a4:64:a9:76:f2:d8:30:63:63:9c:ee:ab:57:c0:35:41:d5:2a:
         ca:72:31:6f:27:b6:90:7f:08:5d:4c:7a:1b:ec:d8:5c:62:7a:
         cc:2c:64:20:d0:7f:b4:db:69:42:b0:5e:8a:c9:9e:c6:8b:cb:
         d9:0c:47:22:8c:5d:98:aa:ec:e6:31:c9:c2:fd:8c:9e:02:61:
         11:95:2b:40:04:85:99:16:30:1c:3c:03:09:24:0e:c9:cc:c2:
         a9:88:a1:c0:62:52:54:25:f2:fd:a7:66:04:d7:ba:17:29:5e:
         cb:c7:4f:d1:da:8c:3e:ae:e1:dc:2a:82:ed:79:8e:4a:28:14:
         a9:d6:dd:3d:5c:42:48:5b:fa:f0:14:8d:29:07:d2:61:b7:b9:
         53:0b:92:05:24:52:31:68:7d:ac:85:49:9c:3e:2e:07:3f:a6:
         45:74:c3:38:04:ad:54:5f
-----BEGIN CERTIFICATE-----
MIIGrTCCBJWgAwIBAgICIMcwDQYJKoZIhvcNAQEEBQAwgawxCzAJBgNVBAYTAlVT
MQswCQYDVQQIEwJPSDERMA8GA1UEBxMIQ29sdW1idXMxEjAQBgNVBAoTCVZpa2lu
Z1ZQTjEdMBsGA1UECxMUTXlPcmdhbml6YXRpb25hbFVuaXQxFTATBgNVBAMTDFZp
a2luZ1ZQTiBDQTEQMA4GA1UEKRMHRWFzeVJTQTEhMB8GCSqGSIb3DQEJARYSbWVA
bXlob3N0Lm15ZG9tYWluMB4XDTE2MDcwMTIyNDYxNVoXDTI2MDYyOTIyNDYxNVow
HzEdMBsGA1UEAxMUQ2xpZW50MjM5OENlcnRmZDY3OGIwggIiMA0GCSqGSIb3DQEB
AQUAA4ICDwAwggIKAoICAQDBmfUa+oWIYfgycDO/1jZK37qUZcO56VvT1jkIbXfP
yF0ll0kT+vGXn1+jFoBdFw7ra7AvDCP+gKXt/eGQh9yy6H9uHvs675TgidDJfMP2
Xy9l/+tjkwflRi9MD65Jc4WAmTZ82iy0AwDVj/rCPA4+NdWddUEkvheAJpdShl2W
299V/5U9UDa6QgAJYKuI44MmWOXLTZPgMxZodwslCamRwCyW80QobH7GcD2FIx9m
W++8xnadUZvnta+0rZZDHpuUPJPQHso6luj5IDcp9xwHiyMyk5/4lweNhbvK5AX+
s7r2u7McXeu7MIiRgY8M+zhygFkH2V7tMc5nKjZZNUvSPp9u2JXqmZguIO+YtL+H
SPUTVq4kvSjLUJUb+ejcsfA40UB8PcYZg9UPS3LJjl4BdnpxIiJMlAHgOAy6n6OX
WngnLZepPShgv9p8z82Dmkb1fDHa5p7WwJ58RSKTvAMajFnQNgZndzlThAUlmPdM
iIxPlDtlIJYBal6iYjlN53LhezVUF2XEaYfmYEANxNJns2/fbPQIFKw5glaeTvpM
rMOdxHaAhXWU68HCnwN9q33IkmDOvnWKeJb96nRLe8fz6PQDCdumujkczBBZBRZD
hpEciT/i8349L4RyCw90G792GktsvTfl6H5MynjwsRo873RyPbsR1pfhHGU3nCp5
AQIDAQABo4IBYzCCAV8wCQYDVR0TBAIwADAtBglghkgBhvhCAQ0EIBYeRWFzeS1S
U0EgR2VuZXJhdGVkIENlcnRpZmljYXRlMB0GA1UdDgQWBBQwqLM7AkjVQG5FQyls
seEwaZpISTCB4QYDVR0jBIHZMIHWgBQSzWAE0qCAnnDtxpm4eyzGUv0ZoaGBsqSB
rzCBrDELMAkGA1UEBhMCVVMxCzAJBgNVBAgTAk9IMREwDwYDVQQHEwhDb2x1bWJ1
czESMBAGA1UEChMJVmlraW5nVlBOMR0wGwYDVQQLExRNeU9yZ2FuaXphdGlvbmFs
VW5pdDEVMBMGA1UEAxMMVmlraW5nVlBOIENBMRAwDgYDVQQpEwdFYXN5UlNBMSEw
HwYJKoZIhvcNAQkBFhJtZUBteWhvc3QubXlkb21haW6CCQDPNYXugL8qPjATBgNV
HSUEDDAKBggrBgEFBQcDAjALBgNVHQ8EBAMCB4AwDQYJKoZIhvcNAQEEBQADggIB
AIJWPn0Iqm0PtzzBW5KzVopsPHmKg0JWUqxnackHA5mXlSmVKWRgWjVZ1AjtBjJH
XN2nuyiE5lk8JvqxMEmaxTO8Cza9Fwru7T3mPr06SSq/YsGM6SSvjTmU3d5zCeV2
sWRU1Fq22sMM8jK20FWxIZTGugyoTloW8Tt53dJW1tf1Z1DNY03mHkWzRCuLXabW
srDX/XDzW62xl1b0OQUNnO3DlWSQWk2xwNCJfZHVNPCcFSMTfdKjZzFgFUopMT70
vtRSQUFAxOPFE8jPmHLshGrnU+ME7YqADlndBtp8ns++UurZMlX+sgb3o8KQ2AlQ
JrQWxPFSyX53EICdfbFpxtnQ3AvnZded3sIpD3jlHOZDeTs3O/SYLmajgTFpB5NV
FmFa83RFrcLiyI49r756IQM8MezmpckfusAUN09tNwLercf11Tnh0sHBdid1gtFX
KE9t7HXwcKRkqXby2DBjY5zuq1fANUHVKspyMW8ntpB/CF1Mehvs2FxieswsZCDQ
f7TbaUKwXorJnsaLy9kMRyKMXZiq7OYxycL9jJ4CYRGVK0AEhZkWMBw8AwkkDsnM
wqmIocBiUlQl8v2nZgTXuhcpXsvHT9HajD6u4dwqgu15jkooFKnW3T1cQkhb+vAU
jSkH0mG3uVMLkgUkUjFofayFSZw+Lgc/pkV0wzgErVRf
-----END CERTIFICATE-----
