Certificate:
    Data:
        Version: 3 (0x2)
        Serial Number: 12332 (0x302c)
    Signature Algorithm: sha256WithRSAEncryption
        Issuer: C=US, ST=OH, L=Columbus, O=VikingVPN, OU=MyOrganizationalUnit, CN=VikingVPN CA/name=EasyRSA/emailAddress=me@myhost.mydomain
        Validity
            Not Before: Dec 31 20:36:09 2017 GMT
            Not After : Dec 29 20:36:09 2027 GMT
        Subject: CN=Client240Cert221133
        Subject Public Key Info:
            Public Key Algorithm: rsaEncryption
                Public-Key: (4096 bit)
                Modulus:
                    00:d0:f2:20:1f:a0:6b:79:61:9c:81:ae:8d:aa:ba:
                    77:1b:75:4c:17:bc:66:86:6d:14:81:6d:9a:b2:19:
                    95:1f:13:15:fe:e3:52:49:c3:c1:7b:18:00:89:b3:
                    1a:ab:20:fb:85:ce:a4:32:34:96:56:17:48:16:37:
                    46:fd:d8:7a:22:a2:10:8f:ed:e3:77:4f:aa:b5:95:
                    46:ac:70:65:ad:7f:d8:93:28:68:61:13:d9:b4:f2:
                    14:b5:fd:2a:ff:57:1a:38:2d:bb:20:1b:e0:a5:61:
                    4f:ef:d3:46:89:4e:b1:86:48:1c:49:9e:be:91:63:
                    bc:8c:73:1e:c5:bb:92:6d:18:d6:83:ea:d0:a1:de:
                    56:6e:1d:76:18:b4:f7:de:78:06:12:63:27:23:d2:
                    03:c1:87:ba:a3:4d:e0:e4:88:3b:58:18:95:ad:d0:
                    19:54:6d:3d:40:b7:ae:5c:b0:20:30:95:fc:f4:a0:
                    67:94:a9:7c:a8:b3:86:f9:dc:f1:b2:35:ac:93:38:
                    20:8a:f7:14:eb:3d:f3:37:f5:9e:7b:27:96:98:9a:
                    90:88:89:a7:a5:f1:c1:85:08:78:d5:fc:f9:1a:86:
                    95:e8:b6:d0:83:a4:c0:51:a2:7c:07:1b:92:42:99:
                    8a:2b:be:2d:95:49:59:d8:69:43:20:51:a8:b3:bf:
                    55:79:a8:19:c9:9d:1a:53:71:e7:84:f7:ef:7f:9a:
                    7d:06:52:f6:c4:4b:48:be:6a:40:6a:98:84:cd:5d:
                    80:81:90:ea:40:81:ce:81:69:85:4c:04:22:3d:bc:
                    37:80:e3:66:b9:8e:b3:64:1a:0e:5a:8f:26:26:a5:
                    de:2a:94:d1:7e:00:89:b4:0e:cc:f4:2b:c4:86:c6:
                    5c:a5:ab:47:68:9f:33:53:df:b0:40:a4:52:0a:6f:
                    62:a1:f6:6d:28:d7:7d:65:d0:15:4d:bd:3f:00:e9:
                    f8:70:68:ef:ae:63:0a:49:09:5b:c4:3a:ee:b8:f5:
                    a0:0b:e6:f7:7b:d4:38:23:9c:12:0b:d0:b2:81:20:
                    ad:a0:61:30:4a:e4:f2:2c:bf:c7:a1:bb:e1:c4:6d:
                    e5:d3:21:4b:89:d9:5d:02:df:5e:2f:00:fb:a5:ec:
                    56:41:5b:c3:e7:31:75:2f:1c:6d:18:21:39:73:6a:
                    34:7c:23:a7:9c:6a:42:76:08:5f:6f:b9:5a:93:71:
                    71:c7:a2:e6:37:eb:c3:df:0c:68:57:f9:26:6c:00:
                    28:61:6c:e2:ba:79:b4:11:fb:f8:b8:5c:2e:c7:ee:
                    11:2c:3e:32:7e:0e:7f:af:79:67:a1:3d:b8:65:b5:
                    18:82:f1:a9:8e:d6:c1:20:64:24:18:07:a7:a1:ad:
                    16:df:d9
                Exponent: 65537 (0x10001)
        X509v3 extensions:
            X509v3 Basic Constraints: 
                CA:FALSE
            Netscape Comment: 
                Easy-RSA Generated Certificate
            X509v3 Subject Key Identifier: 
                0B:AB:B6:AE:38:AF:9A:1D:95:43:5E:DA:45:F2:AA:CE:5D:2E:59:AF
            X509v3 Authority Key Identifier: 
                keyid:12:CD:60:04:D2:A0:80:9E:70:ED:C6:99:B8:7B:2C:C6:52:FD:19:A1
                DirName:/C=US/ST=OH/L=Columbus/O=VikingVPN/OU=MyOrganizationalUnit/CN=VikingVPN CA/name=EasyRSA/emailAddress=me@myhost.mydomain
                serial:CF:35:85:EE:80:BF:2A:3E

            X509v3 Extended Key Usage: 
                TLS Web Client Authentication
            X509v3 Key Usage: 
                Digital Signature
    Signature Algorithm: sha256WithRSAEncryption
         7d:df:cf:d4:fa:18:f1:e5:9a:ff:5a:8c:01:5b:61:32:cd:6e:
         2f:31:af:45:93:27:6b:40:c4:d8:cc:0f:e9:c6:c6:fc:53:bf:
         d7:fe:bd:f9:22:fe:98:6c:b6:f8:63:f7:aa:b8:d6:38:f5:64:
         30:59:00:5b:62:4f:34:43:bc:a1:4e:ea:55:3d:a3:26:7f:37:
         f7:69:15:84:e7:7b:8c:bd:b9:aa:ce:73:2c:d6:3b:29:e9:1f:
         23:71:e8:bd:0f:e1:9d:be:33:25:78:79:48:ee:1b:47:09:2c:
         d1:d7:ae:02:04:a5:25:0f:d7:e0:01:fa:b2:80:d2:7e:7d:d4:
         56:e9:be:36:94:cc:b3:ae:36:c9:7e:18:17:d0:8a:28:c3:97:
         4f:24:92:43:52:17:ab:a4:5d:aa:5d:6d:df:ce:dd:44:24:28:
         95:b0:05:14:3d:b3:ca:13:c9:02:50:1e:34:f5:24:bf:d0:15:
         4d:bf:ec:cc:ce:2a:25:1c:c4:f5:a1:ca:23:c3:74:7c:61:74:
         cb:57:99:07:17:25:92:67:91:b8:a6:11:d4:f9:48:fc:fb:e6:
         93:d0:44:98:c4:7c:c1:3c:aa:05:18:01:5b:93:2a:76:93:bc:
         4a:e6:f3:81:87:f4:49:dc:3e:7e:52:a0:b2:c0:50:01:8f:38:
         96:af:d2:09:a2:4f:b9:8c:60:d1:0f:08:cf:7c:58:78:54:19:
         89:c9:74:39:58:fa:26:66:db:48:ba:fc:32:02:6c:57:26:eb:
         52:b9:cd:bd:92:c0:28:35:62:4d:ca:ff:24:0d:c7:85:57:d3:
         f4:8d:1d:eb:80:14:38:43:22:7c:dd:20:73:97:69:ce:0e:32:
         bc:04:38:4b:80:5f:6d:28:3a:48:58:4e:38:a8:d4:08:8c:63:
         d2:eb:f4:fb:f2:33:53:e4:d8:fc:ef:38:27:ab:67:b8:54:54:
         d8:0b:b4:8b:bd:31:9e:3f:d5:54:1b:c2:76:b2:41:e3:b8:3f:
         1f:9a:f8:61:cb:4f:6a:8a:47:7f:3d:c8:3b:6f:c2:12:da:12:
         b1:93:bf:d9:25:2b:d3:51:93:32:78:9b:92:b6:20:8f:97:30:
         08:b0:f8:8e:35:5b:15:ac:cb:6f:b9:f8:b6:87:68:c8:a7:60:
         4c:7d:b2:f9:cb:24:27:75:29:eb:05:b7:62:5c:1a:f1:a3:34:
         10:2b:cb:37:c8:dc:20:fc:76:70:cc:03:13:f0:9d:eb:8f:87:
         16:82:c3:c6:ec:77:52:94:77:56:27:e9:e0:87:22:f1:28:ac:
         86:3e:c0:1c:62:92:21:d8:c1:f5:76:3d:06:e0:d4:66:d0:7c:
         5b:97:16:2f:cc:18:bd:26
-----BEGIN CERTIFICATE-----
MIIGrDCCBJSgAwIBAgICMCwwDQYJKoZIhvcNAQELBQAwgawxCzAJBgNVBAYTAlVT
MQswCQYDVQQIEwJPSDERMA8GA1UEBxMIQ29sdW1idXMxEjAQBgNVBAoTCVZpa2lu
Z1ZQTjEdMBsGA1UECxMUTXlPcmdhbml6YXRpb25hbFVuaXQxFTATBgNVBAMTDFZp
a2luZ1ZQTiBDQTEQMA4GA1UEKRMHRWFzeVJTQTEhMB8GCSqGSIb3DQEJARYSbWVA
bXlob3N0Lm15ZG9tYWluMB4XDTE3MTIzMTIwMzYwOVoXDTI3MTIyOTIwMzYwOVow
HjEcMBoGA1UEAxMTQ2xpZW50MjQwQ2VydDIyMTEzMzCCAiIwDQYJKoZIhvcNAQEB
BQADggIPADCCAgoCggIBANDyIB+ga3lhnIGujaq6dxt1TBe8ZoZtFIFtmrIZlR8T
Ff7jUknDwXsYAImzGqsg+4XOpDI0llYXSBY3Rv3YeiKiEI/t43dPqrWVRqxwZa1/
2JMoaGET2bTyFLX9Kv9XGjgtuyAb4KVhT+/TRolOsYZIHEmevpFjvIxzHsW7km0Y
1oPq0KHeVm4ddhi09954BhJjJyPSA8GHuqNN4OSIO1gYla3QGVRtPUC3rlywIDCV
/PSgZ5SpfKizhvnc8bI1rJM4IIr3FOs98zf1nnsnlpiakIiJp6XxwYUIeNX8+RqG
lei20IOkwFGifAcbkkKZiiu+LZVJWdhpQyBRqLO/VXmoGcmdGlNx54T373+afQZS
9sRLSL5qQGqYhM1dgIGQ6kCBzoFphUwEIj28N4DjZrmOs2QaDlqPJial3iqU0X4A
ibQOzPQrxIbGXKWrR2ifM1PfsECkUgpvYqH2bSjXfWXQFU29PwDp+HBo765jCkkJ
W8Q67rj1oAvm93vUOCOcEgvQsoEgraBhMErk8iy/x6G74cRt5dMhS4nZXQLfXi8A
+6XsVkFbw+cxdS8cbRghOXNqNHwjp5xqQnYIX2+5WpNxccei5jfrw98MaFf5JmwA
KGFs4rp5tBH7+LhcLsfuESw+Mn4Of695Z6E9uGW1GILxqY7WwSBkJBgHp6GtFt/Z
AgMBAAGjggFjMIIBXzAJBgNVHRMEAjAAMC0GCWCGSAGG+EIBDQQgFh5FYXN5LVJT
QSBHZW5lcmF0ZWQgQ2VydGlmaWNhdGUwHQYDVR0OBBYEFAurtq44r5odlUNe2kXy
qs5dLlmvMIHhBgNVHSMEgdkwgdaAFBLNYATSoICecO3Gmbh7LMZS/RmhoYGypIGv
MIGsMQswCQYDVQQGEwJVUzELMAkGA1UECBMCT0gxETAPBgNVBAcTCENvbHVtYnVz
MRIwEAYDVQQKEwlWaWtpbmdWUE4xHTAbBgNVBAsTFE15T3JnYW5pemF0aW9uYWxV
bml0MRUwEwYDVQQDEwxWaWtpbmdWUE4gQ0ExEDAOBgNVBCkTB0Vhc3lSU0ExITAf
BgkqhkiG9w0BCQEWEm1lQG15aG9zdC5teWRvbWFpboIJAM81he6Avyo+MBMGA1Ud
JQQMMAoGCCsGAQUFBwMCMAsGA1UdDwQEAwIHgDANBgkqhkiG9w0BAQsFAAOCAgEA
fd/P1PoY8eWa/1qMAVthMs1uLzGvRZMna0DE2MwP6cbG/FO/1/69+SL+mGy2+GP3
qrjWOPVkMFkAW2JPNEO8oU7qVT2jJn8392kVhOd7jL25qs5zLNY7KekfI3HovQ/h
nb4zJXh5SO4bRwks0deuAgSlJQ/X4AH6soDSfn3UVum+NpTMs642yX4YF9CKKMOX
TySSQ1IXq6Rdql1t387dRCQolbAFFD2zyhPJAlAeNPUkv9AVTb/szM4qJRzE9aHK
I8N0fGF0y1eZBxclkmeRuKYR1PlI/Pvmk9BEmMR8wTyqBRgBW5MqdpO8SubzgYf0
Sdw+flKgssBQAY84lq/SCaJPuYxg0Q8Iz3xYeFQZicl0OVj6JmbbSLr8MgJsVybr
UrnNvZLAKDViTcr/JA3HhVfT9I0d64AUOEMifN0gc5dpzg4yvAQ4S4BfbSg6SFhO
OKjUCIxj0uv0+/IzU+TY/O84J6tnuFRU2Au0i70xnj/VVBvCdrJB47g/H5r4YctP
aopHfz3IO2/CEtoSsZO/2SUr01GTMnibkrYgj5cwCLD4jjVbFazLb7n4todoyKdg
TH2y+cskJ3Up6wW3Ylwa8aM0ECvLN8jcIPx2cMwDE/Cd64+HFoLDxux3UpR3Vifp
4Ici8Sishj7AHGKSIdjB9XY9BuDUZtB8W5cWL8wYvSY=
-----END CERTIFICATE-----
