Certificate:
    Data:
        Version: 3 (0x2)
        Serial Number: 4514 (0x11a2)
    Signature Algorithm: md5WithRSAEncryption
        Issuer: C=US, ST=OH, L=Columbus, O=VikingVPN, OU=MyOrganizationalUnit, CN=VikingVPN CA/name=EasyRSA/emailAddress=me@myhost.mydomain
        Validity
            Not Before: Feb 20 06:47:06 2015 GMT
            Not After : Feb 17 06:47:06 2025 GMT
        Subject: CN=Client1464Cert44154e
        Subject Public Key Info:
            Public Key Algorithm: rsaEncryption
                Public-Key: (4096 bit)
                Modulus:
                    00:bf:13:70:b9:89:ab:38:4a:60:9c:ba:95:c2:cf:
                    1d:6f:15:90:bb:5d:ae:a8:71:fe:02:15:07:47:04:
                    34:ac:78:68:55:62:ac:7a:f7:98:8c:d2:f2:3f:99:
                    82:c9:25:e7:05:9b:be:ae:d3:a9:f2:ac:16:12:41:
                    5c:65:94:a7:8b:6b:75:06:c4:66:0c:7e:8d:0a:2b:
                    32:d3:55:48:a3:9c:78:c7:ea:8b:a2:43:42:51:cb:
                    c2:d1:2b:10:24:fb:b7:82:49:a7:f1:7d:1b:49:d5:
                    e6:9a:61:ee:18:59:c5:a3:98:22:7a:0d:2b:f6:cb:
                    14:e7:0a:b2:b2:8f:1c:d5:a0:ac:c6:12:b4:d4:92:
                    dd:1b:d5:7e:bf:10:e9:6b:fe:97:8a:72:92:20:7e:
                    3a:89:59:fe:ba:1e:03:64:80:5e:87:06:48:fa:c0:
                    3d:47:8e:22:0b:3e:9a:1a:7e:2b:06:6a:dc:ad:59:
                    a1:20:9f:7e:a6:5a:0a:35:a3:9d:d1:0f:01:c7:98:
                    21:83:da:eb:9c:b6:a3:8d:4f:54:9e:c4:f7:e0:11:
                    75:f7:8f:be:c3:ca:87:53:0f:10:b4:74:5d:66:49:
                    8a:ee:cd:6d:bd:84:fa:c1:b4:bd:e8:d4:51:e5:3b:
                    2a:7a:65:89:04:ef:36:48:94:61:b2:fe:08:8a:2c:
                    e1:f5:53:8e:13:44:67:08:9c:df:9e:08:dc:f1:8c:
                    83:65:54:e1:fb:a3:a6:2b:5b:af:79:5a:52:57:6f:
                    0d:c5:84:19:a6:a4:33:66:17:11:28:2e:63:e3:c8:
                    06:d8:c0:97:51:07:8c:80:93:de:38:eb:e9:c4:ef:
                    a6:9d:f9:ef:78:68:9b:37:b6:85:31:7e:78:55:6b:
                    cc:b4:4f:71:de:a1:26:a0:ac:4d:ce:6b:3c:e9:ad:
                    a0:56:64:d0:fb:a6:4e:92:90:12:c7:ae:81:e9:b6:
                    00:df:47:62:12:43:f7:b1:d0:64:64:fc:d5:c9:ff:
                    0c:dd:32:de:e7:9e:8a:55:c8:6f:23:b1:ed:b7:03:
                    e7:69:0c:2c:d4:e6:d0:b7:47:1a:01:89:9d:a5:df:
                    69:f1:8a:1d:0e:13:6c:aa:62:63:74:64:ff:99:40:
                    d8:73:2b:d4:4d:30:4b:cb:24:dd:79:25:6e:ac:77:
                    e5:f3:5d:68:9d:00:f8:50:59:36:3f:c8:a8:76:b9:
                    b3:90:ea:ad:7d:20:af:39:9e:3a:3b:b4:62:e5:2d:
                    d0:e0:07:ef:5c:cb:a6:ba:09:b5:de:7b:f9:f7:0d:
                    6e:5f:46:af:84:4a:e5:13:ee:32:c8:2b:0e:fd:1f:
                    78:73:40:4f:97:cf:c0:46:d0:25:85:c7:7b:c2:c2:
                    8d:ed:9f
                Exponent: 65537 (0x10001)
        X509v3 extensions:
            X509v3 Basic Constraints: 
                CA:FALSE
            Netscape Comment: 
                Easy-RSA Generated Certificate
            X509v3 Subject Key Identifier: 
                1C:63:AF:E8:CB:BE:0C:1E:B7:04:DD:C4:4F:8E:ED:67:B0:A4:53:43
            X509v3 Authority Key Identifier: 
                keyid:12:CD:60:04:D2:A0:80:9E:70:ED:C6:99:B8:7B:2C:C6:52:FD:19:A1
                DirName:/C=US/ST=OH/L=Columbus/O=VikingVPN/OU=MyOrganizationalUnit/CN=VikingVPN CA/name=EasyRSA/emailAddress=me@myhost.mydomain
                serial:CF:35:85:EE:80:BF:2A:3E

            X509v3 Extended Key Usage: 
                TLS Web Client Authentication
            X509v3 Key Usage: 
                Digital Signature
    Signature Algorithm: md5WithRSAEncryption
         e3:d9:3d:f3:ad:3b:8c:7e:74:d4:78:77:6a:7d:86:7f:5a:d8:
         f7:34:a4:d7:f1:7e:a6:c1:cf:b8:e6:6f:e2:8d:fa:61:39:30:
         e1:82:3b:de:2e:5a:7d:ca:dd:c5:d2:93:d5:5c:20:23:b2:ba:
         e8:87:07:8e:79:2a:82:23:70:b2:e7:bd:b5:d8:70:e9:75:f8:
         7a:40:90:27:2c:0a:35:98:ff:c2:c2:e7:38:68:0d:e0:24:4d:
         c8:42:96:78:bf:cf:a0:11:03:cb:73:0f:a5:7d:76:64:a8:21:
         a4:74:05:58:c8:e4:67:a4:bb:3d:1f:af:36:8d:85:c0:95:82:
         83:7f:05:ae:c7:fb:32:61:8b:83:b4:de:74:94:8f:e7:df:96:
         e3:c8:82:22:7c:1f:42:4b:b5:2f:86:71:f2:a6:4e:85:67:b6:
         93:cc:41:ab:f9:41:1b:80:2d:29:c1:a9:47:7b:07:93:22:ff:
         64:be:72:a7:7f:c3:df:97:e3:03:02:98:31:f6:a0:ad:a8:84:
         11:b9:92:89:70:c6:95:57:14:3f:b3:4c:bc:7d:e2:ca:5f:03:
         f3:5b:32:a4:76:d7:c4:6b:0e:a2:8e:69:34:a5:03:cf:6f:c4:
         ca:fa:3f:b5:8d:ca:9d:08:68:1b:35:02:a1:34:74:65:91:d9:
         d1:8f:b5:05:65:f9:64:98:c4:cd:ba:77:cd:92:21:99:e6:b1:
         28:51:c0:ac:02:40:47:dd:8e:a2:69:c0:98:6f:97:48:19:dc:
         f8:46:b3:8c:d1:e3:1f:c6:c7:9a:e9:4c:a2:e1:ce:73:87:5b:
         95:7c:16:fc:c6:87:b7:5d:3d:73:1b:b3:cb:6d:86:75:ac:92:
         fe:d9:39:7d:0c:3b:5e:7b:db:c3:cd:b0:56:9c:aa:10:c8:e0:
         08:c4:f1:64:92:e1:3e:ed:c9:d2:06:5b:57:9d:16:02:4f:b9:
         70:84:dc:c3:6d:7a:a8:b7:45:c9:cc:f5:8b:31:bf:e4:e8:0d:
         b9:27:02:b5:6c:62:df:ec:60:4b:d7:4b:9f:e0:70:97:2a:b1:
         ef:0a:8a:bf:f0:65:4b:c5:de:6c:9d:e6:c1:45:64:f3:e2:22:
         11:7c:8c:8a:44:24:2f:8c:6e:95:c5:db:c2:94:b4:22:22:9c:
         77:64:75:8e:ad:7f:91:e5:77:eb:b8:7a:b1:cc:9e:3b:da:9e:
         ba:fc:c8:0b:cb:fc:9e:10:70:de:fc:0f:c5:52:a4:a6:a7:8e:
         df:4a:21:70:62:1d:fe:9a:7d:19:84:bb:3d:42:eb:d7:a5:32:
         b1:79:46:f4:cf:49:fe:53:ac:b5:93:2f:14:c2:71:ff:09:3e:
         97:ca:fc:c6:03:f2:b2:f5
-----BEGIN CERTIFICATE-----
MIIGrTCCBJWgAwIBAgICEaIwDQYJKoZIhvcNAQEEBQAwgawxCzAJBgNVBAYTAlVT
MQswCQYDVQQIEwJPSDERMA8GA1UEBxMIQ29sdW1idXMxEjAQBgNVBAoTCVZpa2lu
Z1ZQTjEdMBsGA1UECxMUTXlPcmdhbml6YXRpb25hbFVuaXQxFTATBgNVBAMTDFZp
a2luZ1ZQTiBDQTEQMA4GA1UEKRMHRWFzeVJTQTEhMB8GCSqGSIb3DQEJARYSbWVA
bXlob3N0Lm15ZG9tYWluMB4XDTE1MDIyMDA2NDcwNloXDTI1MDIxNzA2NDcwNlow
HzEdMBsGA1UEAxMUQ2xpZW50MTQ2NENlcnQ0NDE1NGUwggIiMA0GCSqGSIb3DQEB
AQUAA4ICDwAwggIKAoICAQC/E3C5ias4SmCcupXCzx1vFZC7Xa6ocf4CFQdHBDSs
eGhVYqx695iM0vI/mYLJJecFm76u06nyrBYSQVxllKeLa3UGxGYMfo0KKzLTVUij
nHjH6ouiQ0JRy8LRKxAk+7eCSafxfRtJ1eaaYe4YWcWjmCJ6DSv2yxTnCrKyjxzV
oKzGErTUkt0b1X6/EOlr/peKcpIgfjqJWf66HgNkgF6HBkj6wD1HjiILPpoafisG
atytWaEgn36mWgo1o53RDwHHmCGD2uuctqONT1SexPfgEXX3j77DyodTDxC0dF1m
SYruzW29hPrBtL3o1FHlOyp6ZYkE7zZIlGGy/giKLOH1U44TRGcInN+eCNzxjINl
VOH7o6YrW695WlJXbw3FhBmmpDNmFxEoLmPjyAbYwJdRB4yAk9446+nE76ad+e94
aJs3toUxfnhVa8y0T3HeoSagrE3OazzpraBWZND7pk6SkBLHroHptgDfR2ISQ/ex
0GRk/NXJ/wzdMt7nnopVyG8jse23A+dpDCzU5tC3RxoBiZ2l32nxih0OE2yqYmN0
ZP+ZQNhzK9RNMEvLJN15JW6sd+XzXWidAPhQWTY/yKh2ubOQ6q19IK85njo7tGLl
LdDgB+9cy6a6CbXee/n3DW5fRq+ESuUT7jLIKw79H3hzQE+Xz8BG0CWFx3vCwo3t
nwIDAQABo4IBYzCCAV8wCQYDVR0TBAIwADAtBglghkgBhvhCAQ0EIBYeRWFzeS1S
U0EgR2VuZXJhdGVkIENlcnRpZmljYXRlMB0GA1UdDgQWBBQcY6/oy74MHrcE3cRP
ju1nsKRTQzCB4QYDVR0jBIHZMIHWgBQSzWAE0qCAnnDtxpm4eyzGUv0ZoaGBsqSB
rzCBrDELMAkGA1UEBhMCVVMxCzAJBgNVBAgTAk9IMREwDwYDVQQHEwhDb2x1bWJ1
czESMBAGA1UEChMJVmlraW5nVlBOMR0wGwYDVQQLExRNeU9yZ2FuaXphdGlvbmFs
VW5pdDEVMBMGA1UEAxMMVmlraW5nVlBOIENBMRAwDgYDVQQpEwdFYXN5UlNBMSEw
HwYJKoZIhvcNAQkBFhJtZUBteWhvc3QubXlkb21haW6CCQDPNYXugL8qPjATBgNV
HSUEDDAKBggrBgEFBQcDAjALBgNVHQ8EBAMCB4AwDQYJKoZIhvcNAQEEBQADggIB
AOPZPfOtO4x+dNR4d2p9hn9a2Pc0pNfxfqbBz7jmb+KN+mE5MOGCO94uWn3K3cXS
k9VcICOyuuiHB455KoIjcLLnvbXYcOl1+HpAkCcsCjWY/8LC5zhoDeAkTchClni/
z6ARA8tzD6V9dmSoIaR0BVjI5Gekuz0frzaNhcCVgoN/Ba7H+zJhi4O03nSUj+ff
luPIgiJ8H0JLtS+GcfKmToVntpPMQav5QRuALSnBqUd7B5Mi/2S+cqd/w9+X4wMC
mDH2oK2ohBG5kolwxpVXFD+zTLx94spfA/NbMqR218RrDqKOaTSlA89vxMr6P7WN
yp0IaBs1AqE0dGWR2dGPtQVl+WSYxM26d82SIZnmsShRwKwCQEfdjqJpwJhvl0gZ
3PhGs4zR4x/Gx5rpTKLhznOHW5V8FvzGh7ddPXMbs8tthnWskv7ZOX0MO15728PN
sFacqhDI4AjE8WSS4T7tydIGW1edFgJPuXCE3MNteqi3RcnM9Ysxv+ToDbknArVs
Yt/sYEvXS5/gcJcqse8Kir/wZUvF3myd5sFFZPPiIhF8jIpEJC+MbpXF28KUtCIi
nHdkdY6tf5Hld+u4erHMnjvanrr8yAvL/J4QcN78D8VSpKanjt9KIXBiHf6afRmE
uz1C69elMrF5RvTPSf5TrLWTLxTCcf8JPpfK/MYD8rL1
-----END CERTIFICATE-----
