Certificate:
    Data:
        Version: 3 (0x2)
        Serial Number: 11544 (0x2d18)
    Signature Algorithm: sha256WithRSAEncryption
        Issuer: C=US, ST=OH, L=Columbus, O=VikingVPN, OU=MyOrganizationalUnit, CN=VikingVPN CA/name=EasyRSA/emailAddress=me@myhost.mydomain
        Validity
            Not Before: Aug 14 03:05:55 2017 GMT
            Not After : Aug 12 03:05:55 2027 GMT
        Subject: CN=Client3044Cert3130c6
        Subject Public Key Info:
            Public Key Algorithm: rsaEncryption
                Public-Key: (4096 bit)
                Modulus:
                    00:b5:4c:4c:45:e6:08:d0:ad:0c:40:5f:db:94:0d:
                    33:aa:77:bc:11:ef:c5:3c:67:0d:5d:67:19:92:7f:
                    c1:84:85:f3:44:28:6e:26:47:e1:0c:d3:32:f2:83:
                    d5:40:f4:ca:12:3e:85:7c:fa:89:ec:22:37:84:54:
                    b7:6d:26:cd:13:ab:52:4f:f2:cb:c0:48:f9:9f:9a:
                    42:3e:5a:89:04:cb:65:99:39:7a:e0:4e:f7:9b:56:
                    5c:e7:06:61:21:60:83:64:1b:68:b4:6a:87:7b:54:
                    b3:0f:e8:ab:2d:e9:05:54:87:21:b2:f4:8d:5b:11:
                    87:b6:47:47:76:4c:1c:63:22:4a:e3:8c:b0:a6:96:
                    5c:2f:be:d3:63:70:f3:9d:b5:bd:33:7b:4f:6b:c1:
                    77:eb:87:1b:29:62:d9:2d:fd:19:7c:77:ad:c7:5b:
                    e7:07:87:56:84:64:de:68:f3:e9:90:ab:96:e5:ce:
                    d8:eb:9f:0b:46:ba:c1:65:31:4c:c5:9e:4f:d0:0e:
                    ce:b2:3c:0b:b8:8b:0d:b0:40:85:dd:d1:97:b0:ad:
                    f9:9f:e3:fe:16:90:19:a1:24:40:f2:d3:29:d1:b2:
                    24:4d:46:4b:09:cc:a3:20:db:ca:ad:92:49:a5:2a:
                    2e:0f:b0:fa:c4:9b:2d:2b:97:22:cf:b7:40:ed:2e:
                    c6:4c:79:fa:56:b7:5d:bc:1a:e3:2a:60:a1:5a:87:
                    7b:f6:e8:32:9d:35:8f:6f:2f:7f:d6:cc:3d:61:87:
                    7a:a5:94:87:7e:56:e2:3c:4d:90:ac:c8:78:26:9d:
                    71:13:31:7c:16:50:6a:c9:12:2b:4d:71:57:35:e6:
                    c2:8c:f9:64:a5:5a:28:5d:42:d1:09:82:ff:98:a7:
                    d8:6c:94:df:60:2e:96:dc:b9:c5:de:ba:17:bd:14:
                    9e:d7:20:3e:c2:1e:88:a2:0c:bb:7e:71:5e:a3:66:
                    4a:b1:e8:eb:04:0f:85:05:48:fe:d2:82:58:3b:63:
                    a7:69:90:8d:d3:d3:fd:67:a1:15:4b:24:ee:2e:83:
                    7b:ef:9d:2a:ab:2b:1d:18:20:6d:9e:88:b6:62:f6:
                    e4:8c:6a:8a:89:35:ae:84:78:02:5a:21:20:5b:b1:
                    52:79:cb:48:9a:70:c7:ac:59:96:90:f5:a1:84:ca:
                    0e:18:e1:c5:56:b8:f3:89:5e:70:1f:b8:06:c8:43:
                    a9:40:d8:13:65:83:c5:8d:9e:b4:cc:55:57:6a:4f:
                    c5:84:12:e0:d5:3c:a6:25:5b:a5:a8:d1:61:75:8d:
                    76:f9:bb:b9:d2:06:88:5f:c4:18:8e:c2:d8:ae:b8:
                    34:2b:af:47:42:ed:8b:46:d8:02:c0:55:29:c6:99:
                    04:7f:ef
                Exponent: 65537 (0x10001)
        X509v3 extensions:
            X509v3 Basic Constraints: 
                CA:FALSE
            Netscape Comment: 
                Easy-RSA Generated Certificate
            X509v3 Subject Key Identifier: 
                42:22:F7:99:70:9F:3A:F2:41:52:61:E5:73:A9:1F:0E:C2:60:80:A8
            X509v3 Authority Key Identifier: 
                keyid:12:CD:60:04:D2:A0:80:9E:70:ED:C6:99:B8:7B:2C:C6:52:FD:19:A1
                DirName:/C=US/ST=OH/L=Columbus/O=VikingVPN/OU=MyOrganizationalUnit/CN=VikingVPN CA/name=EasyRSA/emailAddress=me@myhost.mydomain
                serial:CF:35:85:EE:80:BF:2A:3E

            X509v3 Extended Key Usage: 
                TLS Web Client Authentication
            X509v3 Key Usage: 
                Digital Signature
    Signature Algorithm: sha256WithRSAEncryption
         13:67:4a:cb:18:50:0d:6a:df:72:6b:0f:24:27:c1:2b:dd:46:
         50:03:09:c1:d6:66:ce:36:62:14:fb:ce:0f:fa:0a:5d:b9:6d:
         12:3e:a4:fd:3b:60:0b:fd:51:8d:a9:ff:50:f2:3e:ae:3b:6a:
         95:bb:0e:18:3b:12:dd:18:f0:69:d0:d1:c4:a8:4e:ba:12:1b:
         e6:be:bc:7b:92:0e:00:c4:58:c5:27:ae:67:f9:51:c5:a7:08:
         78:73:32:47:49:cb:d1:0f:7e:0a:6a:03:1a:22:7c:12:c7:58:
         6e:41:5c:c4:86:fd:30:55:e3:d9:93:d0:38:b5:8e:f4:ca:29:
         18:5f:4c:18:0a:af:7b:f5:ef:3d:01:d9:af:3c:ac:e7:a1:43:
         54:6f:1c:67:9c:d8:72:f9:d7:04:3c:f4:f4:68:ff:6b:e2:e1:
         f2:22:55:15:c3:a3:43:b4:64:ca:63:1c:fe:7a:a0:ee:fd:ba:
         1d:d6:55:4b:f9:e7:08:ea:42:a2:cc:ce:7e:9d:af:45:02:0a:
         ea:72:21:b4:d0:4b:1a:b8:3b:35:77:08:bd:fe:f3:70:8e:16:
         9e:5b:15:0f:ad:73:19:1e:6a:00:7e:d8:a1:8b:49:f0:45:56:
         56:91:24:c3:21:2a:aa:da:5f:84:53:fa:63:8d:d3:98:55:0e:
         ec:6c:97:f6:d0:87:29:cf:bf:c8:f7:7b:c4:18:d9:48:e6:d8:
         6a:d9:1e:42:a9:ff:92:94:a2:0d:1d:74:13:68:78:36:48:b9:
         dd:47:14:f2:c7:03:1e:f6:7e:65:ab:1d:dc:ab:9d:25:4e:cf:
         ab:ac:ca:d6:9c:dd:47:ed:fd:e8:f9:62:df:68:26:12:c4:1f:
         75:12:61:e1:85:16:71:7a:c9:f0:55:a2:9e:f4:50:c9:74:2d:
         80:56:9d:4e:03:1f:53:7b:24:7e:b3:81:43:a8:d9:6b:54:f3:
         13:c5:50:da:1c:fd:ee:0d:1e:a8:1a:11:73:5c:c9:1c:12:04:
         a7:ff:3f:73:8f:89:dd:b4:51:7e:10:dc:74:de:06:93:96:59:
         81:98:21:76:cc:be:b1:ae:c4:cd:43:9e:31:56:b7:a7:7a:85:
         b1:f7:36:81:9c:8b:84:b4:6b:49:c7:3d:1c:b7:65:c3:3e:96:
         f8:aa:f6:8a:54:c7:c2:06:e3:97:d6:cb:db:a7:bd:be:35:ee:
         aa:a2:5e:65:29:17:62:7d:90:78:82:7d:ab:02:76:01:f6:6f:
         cd:03:85:4e:5b:4e:8c:18:ad:88:75:0d:5e:4e:5e:dc:5c:33:
         b0:42:c5:83:77:9d:c0:ed:ee:ad:27:81:22:b2:08:67:a9:4b:
         6a:23:0a:2b:9a:ef:41:4a
-----BEGIN CERTIFICATE-----
MIIGrTCCBJWgAwIBAgICLRgwDQYJKoZIhvcNAQELBQAwgawxCzAJBgNVBAYTAlVT
MQswCQYDVQQIEwJPSDERMA8GA1UEBxMIQ29sdW1idXMxEjAQBgNVBAoTCVZpa2lu
Z1ZQTjEdMBsGA1UECxMUTXlPcmdhbml6YXRpb25hbFVuaXQxFTATBgNVBAMTDFZp
a2luZ1ZQTiBDQTEQMA4GA1UEKRMHRWFzeVJTQTEhMB8GCSqGSIb3DQEJARYSbWVA
bXlob3N0Lm15ZG9tYWluMB4XDTE3MDgxNDAzMDU1NVoXDTI3MDgxMjAzMDU1NVow
HzEdMBsGA1UEAxMUQ2xpZW50MzA0NENlcnQzMTMwYzYwggIiMA0GCSqGSIb3DQEB
AQUAA4ICDwAwggIKAoICAQC1TExF5gjQrQxAX9uUDTOqd7wR78U8Zw1dZxmSf8GE
hfNEKG4mR+EM0zLyg9VA9MoSPoV8+onsIjeEVLdtJs0Tq1JP8svASPmfmkI+WokE
y2WZOXrgTvebVlznBmEhYINkG2i0aod7VLMP6Kst6QVUhyGy9I1bEYe2R0d2TBxj
IkrjjLCmllwvvtNjcPOdtb0ze09rwXfrhxspYtkt/Rl8d63HW+cHh1aEZN5o8+mQ
q5blztjrnwtGusFlMUzFnk/QDs6yPAu4iw2wQIXd0Zewrfmf4/4WkBmhJEDy0ynR
siRNRksJzKMg28qtkkmlKi4PsPrEmy0rlyLPt0DtLsZMefpWt128GuMqYKFah3v2
6DKdNY9vL3/WzD1hh3qllId+VuI8TZCsyHgmnXETMXwWUGrJEitNcVc15sKM+WSl
WihdQtEJgv+Yp9hslN9gLpbcucXeuhe9FJ7XID7CHoiiDLt+cV6jZkqx6OsED4UF
SP7Sglg7Y6dpkI3T0/1noRVLJO4ug3vvnSqrKx0YIG2eiLZi9uSMaoqJNa6EeAJa
ISBbsVJ5y0iacMesWZaQ9aGEyg4Y4cVWuPOJXnAfuAbIQ6lA2BNlg8WNnrTMVVdq
T8WEEuDVPKYlW6Wo0WF1jXb5u7nSBohfxBiOwtiuuDQrr0dC7YtG2ALAVSnGmQR/
7wIDAQABo4IBYzCCAV8wCQYDVR0TBAIwADAtBglghkgBhvhCAQ0EIBYeRWFzeS1S
U0EgR2VuZXJhdGVkIENlcnRpZmljYXRlMB0GA1UdDgQWBBRCIveZcJ868kFSYeVz
qR8OwmCAqDCB4QYDVR0jBIHZMIHWgBQSzWAE0qCAnnDtxpm4eyzGUv0ZoaGBsqSB
rzCBrDELMAkGA1UEBhMCVVMxCzAJBgNVBAgTAk9IMREwDwYDVQQHEwhDb2x1bWJ1
czESMBAGA1UEChMJVmlraW5nVlBOMR0wGwYDVQQLExRNeU9yZ2FuaXphdGlvbmFs
VW5pdDEVMBMGA1UEAxMMVmlraW5nVlBOIENBMRAwDgYDVQQpEwdFYXN5UlNBMSEw
HwYJKoZIhvcNAQkBFhJtZUBteWhvc3QubXlkb21haW6CCQDPNYXugL8qPjATBgNV
HSUEDDAKBggrBgEFBQcDAjALBgNVHQ8EBAMCB4AwDQYJKoZIhvcNAQELBQADggIB
ABNnSssYUA1q33JrDyQnwSvdRlADCcHWZs42YhT7zg/6Cl25bRI+pP07YAv9UY2p
/1DyPq47apW7Dhg7Et0Y8GnQ0cSoTroSG+a+vHuSDgDEWMUnrmf5UcWnCHhzMkdJ
y9EPfgpqAxoifBLHWG5BXMSG/TBV49mT0Di1jvTKKRhfTBgKr3v17z0B2a88rOeh
Q1RvHGec2HL51wQ89PRo/2vi4fIiVRXDo0O0ZMpjHP56oO79uh3WVUv55wjqQqLM
zn6dr0UCCupyIbTQSxq4OzV3CL3+83COFp5bFQ+tcxkeagB+2KGLSfBFVlaRJMMh
KqraX4RT+mON05hVDuxsl/bQhynPv8j3e8QY2Ujm2GrZHkKp/5KUog0ddBNoeDZI
ud1HFPLHAx72fmWrHdyrnSVOz6usytac3Uft/ej5Yt9oJhLEH3USYeGFFnF6yfBV
op70UMl0LYBWnU4DH1N7JH6zgUOo2WtU8xPFUNoc/e4NHqgaEXNcyRwSBKf/P3OP
id20UX4Q3HTeBpOWWYGYIXbMvrGuxM1DnjFWt6d6hbH3NoGci4S0a0nHPRy3ZcM+
lviq9opUx8IG45fWy9unvb417qqiXmUpF2J9kHiCfasCdgH2b80DhU5bTowYrYh1
DV5OXtxcM7BCxYN3ncDt7q0ngSKyCGepS2ojCiua70FK
-----END CERTIFICATE-----
