Certificate:
    Data:
        Version: 3 (0x2)
        Serial Number: 2893 (0xb4d)
    Signature Algorithm: md5WithRSAEncryption
        Issuer: C=US, ST=OH, L=Columbus, O=VikingVPN, OU=MyOrganizationalUnit, CN=VikingVPN CA/name=EasyRSA/emailAddress=me@myhost.mydomain
        Validity
            Not Before: Sep 19 04:00:12 2014 GMT
            Not After : Sep 16 04:00:12 2024 GMT
        Subject: CN=Client340Cert810a54
        Subject Public Key Info:
            Public Key Algorithm: rsaEncryption
                Public-Key: (4096 bit)
                Modulus:
                    00:f3:28:26:23:37:85:e9:08:3b:a1:f9:14:9d:73:
                    3b:f0:7c:97:80:ab:76:18:40:78:da:ca:89:47:d5:
                    bc:6a:94:9e:0a:64:a0:ef:97:12:9f:04:1f:31:a9:
                    50:35:a8:92:a2:a3:40:61:6c:01:6d:1b:f1:44:8f:
                    8e:86:c6:5c:77:42:37:37:87:e6:4b:64:89:09:5a:
                    30:e8:83:bd:8b:50:7b:31:02:4b:4f:5f:f5:ec:d8:
                    07:e3:5b:b1:b0:e7:af:6d:ef:6e:8c:0f:e4:5a:7a:
                    a5:d3:52:51:ec:93:a5:54:09:3f:87:d2:07:20:35:
                    dc:69:27:94:d0:f3:11:a7:f1:21:86:e2:f9:cf:1a:
                    19:5d:75:ec:aa:a5:c3:9a:69:5d:65:2f:58:35:f9:
                    31:39:a4:53:1f:b8:30:eb:4a:84:75:bc:74:e8:fe:
                    91:b8:9d:e6:7e:c7:ef:f9:e8:fe:b1:5a:a2:c1:59:
                    2e:63:6c:c4:b1:cd:76:96:7a:7f:cf:27:e4:69:83:
                    88:32:24:e6:10:b5:72:6b:77:5b:54:04:62:78:be:
                    45:5e:f8:e3:e2:9c:19:f0:aa:d3:e9:08:68:0a:32:
                    20:8d:b4:94:ee:2b:f4:1b:b5:a7:98:81:9d:0e:96:
                    d7:0a:df:69:a8:6e:ab:6e:c6:66:31:46:3d:c4:2d:
                    4b:b9:3d:d7:15:78:fc:83:60:f3:7a:e9:8a:29:61:
                    60:76:7d:bc:7a:03:bd:c7:aa:a0:58:8c:cf:73:e3:
                    5f:23:57:2a:1e:c8:83:95:7e:96:8a:6c:8c:81:79:
                    4a:91:ce:e1:3e:3e:ff:7e:39:58:f9:05:f7:ac:a1:
                    8c:70:f8:8c:2a:13:f7:42:a4:34:45:cd:e7:1b:c6:
                    04:3f:4e:4b:e8:84:8c:52:25:84:01:da:3a:96:36:
                    28:68:e2:e8:e2:7d:b9:0e:1b:e4:bd:07:ec:e4:61:
                    af:80:38:60:9a:b6:44:9f:67:b3:f4:16:9c:b2:c4:
                    43:a7:52:b0:c5:ca:54:2f:b6:a7:da:ca:e0:39:52:
                    0a:3d:2a:1a:71:e2:a6:34:48:15:f8:58:ac:18:c0:
                    58:90:02:9f:22:8d:26:d3:80:5b:a9:e1:14:9d:2b:
                    91:3a:7a:12:03:37:03:96:7a:ac:55:ba:3e:77:06:
                    e4:25:74:b4:55:c6:5d:e5:97:91:cc:70:92:61:f2:
                    da:f1:8b:6c:85:db:0f:b5:93:67:37:88:4a:c5:24:
                    50:8f:27:91:fb:b0:82:75:17:25:27:2b:f4:38:eb:
                    c9:86:1e:d3:22:0a:fc:7e:5d:39:db:5d:b7:34:28:
                    4a:85:5f:f3:16:a8:ef:fc:92:de:ce:97:f4:e1:90:
                    f7:00:07
                Exponent: 65537 (0x10001)
        X509v3 extensions:
            X509v3 Basic Constraints: 
                CA:FALSE
            Netscape Comment: 
                Easy-RSA Generated Certificate
            X509v3 Subject Key Identifier: 
                33:E0:30:7B:01:35:DB:4A:D7:C4:FC:31:53:7C:01:1B:73:D4:60:3D
            X509v3 Authority Key Identifier: 
                keyid:12:CD:60:04:D2:A0:80:9E:70:ED:C6:99:B8:7B:2C:C6:52:FD:19:A1
                DirName:/C=US/ST=OH/L=Columbus/O=VikingVPN/OU=MyOrganizationalUnit/CN=VikingVPN CA/name=EasyRSA/emailAddress=me@myhost.mydomain
                serial:CF:35:85:EE:80:BF:2A:3E

            X509v3 Extended Key Usage: 
                TLS Web Client Authentication
            X509v3 Key Usage: 
                Digital Signature
    Signature Algorithm: md5WithRSAEncryption
         70:96:32:a8:a8:96:aa:62:3b:e0:f5:90:44:4a:3a:58:63:f9:
         71:6f:8c:47:4d:02:b7:79:7f:31:97:29:0d:97:3b:51:56:c8:
         ba:eb:43:6a:90:14:3b:9f:42:65:1d:86:48:04:19:39:09:05:
         88:b6:27:d1:a6:74:b3:aa:f8:85:3d:c3:cf:1b:72:81:f1:b0:
         59:84:39:ea:b3:9c:ce:7b:e2:87:07:bf:cc:3f:d2:e8:96:55:
         16:63:0f:a7:64:81:30:ba:af:65:71:1b:4b:78:fa:28:33:02:
         02:97:bd:2a:69:82:4f:66:5f:7d:bc:91:41:8d:06:9f:a1:0d:
         d2:99:85:17:dc:ea:4d:5a:32:9c:f4:72:35:c2:ab:f2:3a:da:
         2a:8b:b3:36:ef:bf:f9:5d:ea:ae:a1:d7:19:b1:18:2d:7d:bc:
         f3:e7:02:2c:a4:dd:df:0e:c9:52:36:a0:32:34:fc:77:c0:cd:
         d9:4d:61:db:6a:95:d3:9b:b4:e6:fa:c9:af:9f:65:bd:81:20:
         4e:f9:1c:5c:c1:d1:13:b2:84:5a:d7:2a:bd:79:81:42:10:0b:
         83:50:6c:83:94:db:61:de:f6:09:82:66:b2:85:8f:c3:14:9b:
         74:91:f8:66:91:27:47:33:11:9f:3a:68:1f:cf:98:93:6e:39:
         d7:c5:9f:9a:17:51:00:f4:c6:42:18:6e:28:08:ef:04:af:5e:
         87:e2:29:f1:13:01:11:b8:97:15:84:96:05:38:63:c1:4c:ea:
         29:e6:db:a4:cc:03:c6:e6:c3:37:0a:a8:98:80:7b:ef:46:00:
         a4:cc:e3:ac:41:55:50:ee:2f:4c:85:dc:79:bc:46:52:69:95:
         05:d9:b0:00:cf:60:59:c4:be:c4:09:49:98:21:98:e0:90:bc:
         92:d5:02:83:3c:57:5a:9c:bb:7e:b9:e2:48:9f:24:ee:60:ee:
         21:b9:f7:46:75:91:75:5c:ae:d5:47:a1:f4:e3:cc:64:e8:0a:
         65:2b:af:06:60:21:71:4b:63:16:f5:27:3e:c4:bb:48:27:81:
         75:8c:1a:df:41:2d:e8:60:91:e6:b6:3b:08:33:b4:29:31:78:
         c3:06:11:2a:f4:d6:4f:13:e3:b0:66:15:f6:ee:fd:9f:37:b8:
         ef:e6:6c:7f:af:aa:95:80:0d:26:31:c4:ae:f2:ed:5c:aa:46:
         6b:f5:7a:34:6f:e2:be:6e:68:9b:48:e8:78:79:cf:f2:7d:42:
         00:5b:6d:d5:4d:91:b7:c6:35:53:51:f9:da:d8:97:83:b3:e8:
         5e:ef:45:cf:7c:d6:35:04:63:9a:07:7c:17:7c:f7:af:4f:09:
         1e:d2:11:b2:13:b8:b9:82
-----BEGIN CERTIFICATE-----
MIIGrDCCBJSgAwIBAgICC00wDQYJKoZIhvcNAQEEBQAwgawxCzAJBgNVBAYTAlVT
MQswCQYDVQQIEwJPSDERMA8GA1UEBxMIQ29sdW1idXMxEjAQBgNVBAoTCVZpa2lu
Z1ZQTjEdMBsGA1UECxMUTXlPcmdhbml6YXRpb25hbFVuaXQxFTATBgNVBAMTDFZp
a2luZ1ZQTiBDQTEQMA4GA1UEKRMHRWFzeVJTQTEhMB8GCSqGSIb3DQEJARYSbWVA
bXlob3N0Lm15ZG9tYWluMB4XDTE0MDkxOTA0MDAxMloXDTI0MDkxNjA0MDAxMlow
HjEcMBoGA1UEAxMTQ2xpZW50MzQwQ2VydDgxMGE1NDCCAiIwDQYJKoZIhvcNAQEB
BQADggIPADCCAgoCggIBAPMoJiM3hekIO6H5FJ1zO/B8l4CrdhhAeNrKiUfVvGqU
ngpkoO+XEp8EHzGpUDWokqKjQGFsAW0b8USPjobGXHdCNzeH5ktkiQlaMOiDvYtQ
ezECS09f9ezYB+NbsbDnr23vbowP5Fp6pdNSUeyTpVQJP4fSByA13GknlNDzEafx
IYbi+c8aGV117Kqlw5ppXWUvWDX5MTmkUx+4MOtKhHW8dOj+kbid5n7H7/no/rFa
osFZLmNsxLHNdpZ6f88n5GmDiDIk5hC1cmt3W1QEYni+RV744+KcGfCq0+kIaAoy
II20lO4r9Bu1p5iBnQ6W1wrfaahuq27GZjFGPcQtS7k91xV4/INg83rpiilhYHZ9
vHoDvceqoFiMz3PjXyNXKh7Ig5V+lopsjIF5SpHO4T4+/345WPkF96yhjHD4jCoT
90KkNEXN5xvGBD9OS+iEjFIlhAHaOpY2KGji6OJ9uQ4b5L0H7ORhr4A4YJq2RJ9n
s/QWnLLEQ6dSsMXKVC+2p9rK4DlSCj0qGnHipjRIFfhYrBjAWJACnyKNJtOAW6nh
FJ0rkTp6EgM3A5Z6rFW6PncG5CV0tFXGXeWXkcxwkmHy2vGLbIXbD7WTZzeISsUk
UI8nkfuwgnUXJScr9DjryYYe0yIK/H5dOdtdtzQoSoVf8xao7/yS3s6X9OGQ9wAH
AgMBAAGjggFjMIIBXzAJBgNVHRMEAjAAMC0GCWCGSAGG+EIBDQQgFh5FYXN5LVJT
QSBHZW5lcmF0ZWQgQ2VydGlmaWNhdGUwHQYDVR0OBBYEFDPgMHsBNdtK18T8MVN8
ARtz1GA9MIHhBgNVHSMEgdkwgdaAFBLNYATSoICecO3Gmbh7LMZS/RmhoYGypIGv
MIGsMQswCQYDVQQGEwJVUzELMAkGA1UECBMCT0gxETAPBgNVBAcTCENvbHVtYnVz
MRIwEAYDVQQKEwlWaWtpbmdWUE4xHTAbBgNVBAsTFE15T3JnYW5pemF0aW9uYWxV
bml0MRUwEwYDVQQDEwxWaWtpbmdWUE4gQ0ExEDAOBgNVBCkTB0Vhc3lSU0ExITAf
BgkqhkiG9w0BCQEWEm1lQG15aG9zdC5teWRvbWFpboIJAM81he6Avyo+MBMGA1Ud
JQQMMAoGCCsGAQUFBwMCMAsGA1UdDwQEAwIHgDANBgkqhkiG9w0BAQQFAAOCAgEA
cJYyqKiWqmI74PWQREo6WGP5cW+MR00Ct3l/MZcpDZc7UVbIuutDapAUO59CZR2G
SAQZOQkFiLYn0aZ0s6r4hT3DzxtygfGwWYQ56rOcznvihwe/zD/S6JZVFmMPp2SB
MLqvZXEbS3j6KDMCApe9KmmCT2ZffbyRQY0Gn6EN0pmFF9zqTVoynPRyNcKr8jra
KouzNu+/+V3qrqHXGbEYLX288+cCLKTd3w7JUjagMjT8d8DN2U1h22qV05u05vrJ
r59lvYEgTvkcXMHRE7KEWtcqvXmBQhALg1Bsg5TbYd72CYJmsoWPwxSbdJH4ZpEn
RzMRnzpoH8+Yk24518WfmhdRAPTGQhhuKAjvBK9eh+Ip8RMBEbiXFYSWBThjwUzq
KebbpMwDxubDNwqomIB770YApMzjrEFVUO4vTIXcebxGUmmVBdmwAM9gWcS+xAlJ
mCGY4JC8ktUCgzxXWpy7frniSJ8k7mDuIbn3RnWRdVyu1Ueh9OPMZOgKZSuvBmAh
cUtjFvUnPsS7SCeBdYwa30Et6GCR5rY7CDO0KTF4wwYRKvTWTxPjsGYV9u79nze4
7+Zsf6+qlYANJjHErvLtXKpGa/V6NG/ivm5om0joeHnP8n1CAFtt1U2Rt8Y1U1H5
2tiXg7PoXu9Fz3zWNQRjmgd8F3z3r08JHtIRshO4uYI=
-----END CERTIFICATE-----
