Certificate:
    Data:
        Version: 3 (0x2)
        Serial Number: 3510 (0xdb6)
    Signature Algorithm: md5WithRSAEncryption
        Issuer: C=US, ST=OH, L=Columbus, O=VikingVPN, OU=MyOrganizationalUnit, CN=VikingVPN CA/name=EasyRSA/emailAddress=me@myhost.mydomain
        Validity
            Not Before: Nov 27 00:52:38 2014 GMT
            Not After : Nov 24 00:52:38 2024 GMT
        Subject: CN=Client924Certb09618
        Subject Public Key Info:
            Public Key Algorithm: rsaEncryption
                Public-Key: (4096 bit)
                Modulus:
                    00:cb:f5:9e:c2:f6:ae:4d:64:1c:4b:7f:ad:b2:36:
                    e4:59:26:06:c8:c9:84:3b:f2:f5:f2:b8:5b:4d:e8:
                    12:56:c8:08:3b:6e:27:e6:64:05:d9:25:3d:7b:03:
                    1b:06:c8:aa:c9:5b:15:95:5f:c4:b6:fe:93:1b:4d:
                    ba:81:cd:ab:81:7c:09:75:21:30:f3:59:d9:23:05:
                    ca:ba:59:b5:de:28:02:f7:cc:c8:ae:c9:66:5f:e3:
                    c4:bb:ba:6a:19:33:96:d7:0a:a7:cc:82:eb:42:40:
                    dc:1a:2c:e7:3c:d5:7f:13:9c:3e:93:2e:4f:12:72:
                    17:e3:82:14:dd:41:a2:f6:81:9e:06:e9:c9:8a:35:
                    7a:f5:77:a3:92:73:cc:99:17:1c:7e:11:ee:dc:cd:
                    7e:a7:c2:ea:ea:c8:98:8b:7a:a8:81:33:5a:17:20:
                    71:10:f8:25:45:87:f9:14:17:29:66:e4:6f:b6:6a:
                    b6:aa:bf:d4:1b:9f:c3:b2:fc:33:9e:7f:2c:53:29:
                    62:83:c3:41:64:e7:b8:04:29:47:ec:c1:bc:ca:d1:
                    4a:81:de:27:92:17:8f:d6:48:ef:fd:64:a8:83:05:
                    57:cb:46:87:75:72:88:29:18:23:09:cb:41:c0:1a:
                    4a:00:38:dc:73:59:31:ce:52:5c:e8:5e:12:cc:37:
                    b9:26:ad:21:74:ab:26:0a:fb:07:f1:d1:87:4d:aa:
                    65:89:60:06:c5:04:de:af:21:ae:2e:be:3a:54:27:
                    f3:8a:c6:7b:bc:fc:6c:f3:b2:d2:f6:2f:a9:ff:0d:
                    f0:c9:db:b2:bb:e2:72:69:0b:b3:4f:2c:41:3e:b1:
                    a9:75:7a:93:50:60:6f:f0:ed:4a:02:b7:8d:50:6e:
                    5b:b6:c2:02:bf:b8:1a:85:8d:50:22:5b:dc:17:36:
                    41:59:c5:c4:44:5d:36:95:aa:d2:f0:39:2c:d9:4d:
                    e8:98:6d:04:9d:9d:02:02:35:be:d1:9f:ab:58:81:
                    5e:f4:9d:8c:ad:48:7d:e4:d3:03:26:a7:be:03:80:
                    69:d1:5c:d3:3f:1d:a8:b3:c5:3d:1c:5d:a1:6f:b4:
                    f9:5a:90:7b:69:97:70:48:a1:2c:35:3a:3b:9a:53:
                    29:36:3b:3b:50:0e:3f:34:e2:57:88:4e:4c:8b:33:
                    d6:6c:3e:89:b3:5c:7f:ad:ed:7c:b8:7a:fc:b7:26:
                    a8:1b:3b:8f:14:60:25:92:43:6c:9c:19:7b:2d:b2:
                    d4:fb:bd:46:8b:f8:82:9c:b1:c8:6e:a0:0d:0d:d4:
                    48:5d:9c:45:8f:e2:22:9d:6d:a6:fc:f1:cb:11:00:
                    10:2f:5a:df:74:4a:07:03:c3:a0:cf:36:f2:56:b5:
                    b0:6d:65
                Exponent: 65537 (0x10001)
        X509v3 extensions:
            X509v3 Basic Constraints: 
                CA:FALSE
            Netscape Comment: 
                Easy-RSA Generated Certificate
            X509v3 Subject Key Identifier: 
                7C:CD:7C:26:AB:A8:95:07:E5:3E:33:5D:20:4D:6C:8F:6B:FE:35:56
            X509v3 Authority Key Identifier: 
                keyid:12:CD:60:04:D2:A0:80:9E:70:ED:C6:99:B8:7B:2C:C6:52:FD:19:A1
                DirName:/C=US/ST=OH/L=Columbus/O=VikingVPN/OU=MyOrganizationalUnit/CN=VikingVPN CA/name=EasyRSA/emailAddress=me@myhost.mydomain
                serial:CF:35:85:EE:80:BF:2A:3E

            X509v3 Extended Key Usage: 
                TLS Web Client Authentication
            X509v3 Key Usage: 
                Digital Signature
    Signature Algorithm: md5WithRSAEncryption
         ae:4b:f7:26:52:01:73:92:56:d9:cd:0f:73:6f:5b:78:06:64:
         de:5e:41:8f:00:36:0c:80:14:e0:43:d0:2d:9a:ad:fa:85:68:
         dc:d9:c2:6c:54:e0:77:14:a6:8b:51:f4:e2:00:30:53:7d:1b:
         35:da:c6:ec:bf:1c:f6:b8:8b:cb:13:40:4a:5b:a6:0c:74:ef:
         5b:86:4a:94:fa:d2:2e:6d:57:ad:db:c0:0a:24:7e:06:a0:67:
         41:12:68:07:ee:73:f4:1a:44:bc:b5:d7:a8:c2:00:00:3f:12:
         bc:05:33:64:4e:a9:6a:70:4d:33:fa:42:78:5d:ad:8c:04:dd:
         c0:53:c6:8b:f5:09:dc:53:14:39:4f:70:b0:65:2c:50:61:63:
         89:6f:93:43:8c:fd:06:35:aa:9f:b4:e1:ab:9e:a3:09:ce:1d:
         d5:1b:98:8a:a9:b1:ba:19:d3:fc:af:a0:28:34:4b:1b:38:11:
         63:ef:14:a7:5e:4b:58:d3:ce:63:93:ce:36:2c:8b:09:45:6f:
         ce:f2:69:7d:f2:94:d2:31:26:53:63:74:1f:4f:64:14:8a:b1:
         68:fc:08:7e:85:27:84:d1:54:b1:7f:19:e6:2d:f0:d5:8c:50:
         e6:c1:a9:4f:70:c2:4c:5a:4c:88:c1:b6:4a:bc:be:9d:13:50:
         b1:54:1d:6a:4d:b0:1b:d2:09:8f:72:09:fb:12:d7:b5:78:1b:
         af:f0:a7:56:6f:d9:33:9a:5b:68:f4:c1:2e:15:f8:d5:68:4d:
         ef:1f:57:6b:d0:5c:58:ba:4e:3d:c8:2b:01:fe:37:15:c4:c0:
         72:d1:b9:f4:a9:ed:e6:fe:b9:3a:d7:1b:20:aa:5a:63:f1:f6:
         55:98:ff:31:fe:44:c6:39:9e:bf:2e:19:2c:6e:6c:76:9f:01:
         d5:d9:c9:c5:db:bf:d6:49:54:78:f4:e4:db:d1:11:03:df:60:
         90:0f:4b:b5:df:f2:38:89:16:fa:bc:7c:81:fb:13:32:bb:72:
         d4:06:00:f6:f5:63:a4:82:04:5c:8f:7e:48:b9:c0:28:13:da:
         85:c9:f3:2b:78:83:9b:6f:b7:07:eb:19:7c:6f:3b:13:57:d0:
         a4:2d:5b:f6:d7:c5:87:c9:96:b6:5a:a5:d4:59:d2:4d:e8:4e:
         8e:4f:49:7a:53:1e:17:3c:6c:6a:ef:89:19:5e:a3:40:29:fb:
         b3:dc:48:39:5b:0f:c1:14:b7:fe:a2:a7:74:c2:bc:47:b6:5b:
         eb:bd:62:9e:58:76:58:44:f0:11:b3:e3:d1:b9:c0:76:92:76:
         53:e1:ee:fa:99:ed:59:4b:15:dc:1c:e1:2f:9e:7f:bb:3d:92:
         6c:fd:ec:82:1a:e1:60:30
-----BEGIN CERTIFICATE-----
MIIGrDCCBJSgAwIBAgICDbYwDQYJKoZIhvcNAQEEBQAwgawxCzAJBgNVBAYTAlVT
MQswCQYDVQQIEwJPSDERMA8GA1UEBxMIQ29sdW1idXMxEjAQBgNVBAoTCVZpa2lu
Z1ZQTjEdMBsGA1UECxMUTXlPcmdhbml6YXRpb25hbFVuaXQxFTATBgNVBAMTDFZp
a2luZ1ZQTiBDQTEQMA4GA1UEKRMHRWFzeVJTQTEhMB8GCSqGSIb3DQEJARYSbWVA
bXlob3N0Lm15ZG9tYWluMB4XDTE0MTEyNzAwNTIzOFoXDTI0MTEyNDAwNTIzOFow
HjEcMBoGA1UEAxMTQ2xpZW50OTI0Q2VydGIwOTYxODCCAiIwDQYJKoZIhvcNAQEB
BQADggIPADCCAgoCggIBAMv1nsL2rk1kHEt/rbI25FkmBsjJhDvy9fK4W03oElbI
CDtuJ+ZkBdklPXsDGwbIqslbFZVfxLb+kxtNuoHNq4F8CXUhMPNZ2SMFyrpZtd4o
AvfMyK7JZl/jxLu6ahkzltcKp8yC60JA3Bos5zzVfxOcPpMuTxJyF+OCFN1BovaB
ngbpyYo1evV3o5JzzJkXHH4R7tzNfqfC6urImIt6qIEzWhcgcRD4JUWH+RQXKWbk
b7Zqtqq/1Bufw7L8M55/LFMpYoPDQWTnuAQpR+zBvMrRSoHeJ5IXj9ZI7/1kqIMF
V8tGh3VyiCkYIwnLQcAaSgA43HNZMc5SXOheEsw3uSatIXSrJgr7B/HRh02qZYlg
BsUE3q8hri6+OlQn84rGe7z8bPOy0vYvqf8N8MnbsrvicmkLs08sQT6xqXV6k1Bg
b/DtSgK3jVBuW7bCAr+4GoWNUCJb3Bc2QVnFxERdNpWq0vA5LNlN6JhtBJ2dAgI1
vtGfq1iBXvSdjK1IfeTTAyanvgOAadFc0z8dqLPFPRxdoW+0+VqQe2mXcEihLDU6
O5pTKTY7O1AOPzTiV4hOTIsz1mw+ibNcf63tfLh6/LcmqBs7jxRgJZJDbJwZey2y
1Pu9Rov4gpyxyG6gDQ3USF2cRY/iIp1tpvzxyxEAEC9a33RKBwPDoM828la1sG1l
AgMBAAGjggFjMIIBXzAJBgNVHRMEAjAAMC0GCWCGSAGG+EIBDQQgFh5FYXN5LVJT
QSBHZW5lcmF0ZWQgQ2VydGlmaWNhdGUwHQYDVR0OBBYEFHzNfCarqJUH5T4zXSBN
bI9r/jVWMIHhBgNVHSMEgdkwgdaAFBLNYATSoICecO3Gmbh7LMZS/RmhoYGypIGv
MIGsMQswCQYDVQQGEwJVUzELMAkGA1UECBMCT0gxETAPBgNVBAcTCENvbHVtYnVz
MRIwEAYDVQQKEwlWaWtpbmdWUE4xHTAbBgNVBAsTFE15T3JnYW5pemF0aW9uYWxV
bml0MRUwEwYDVQQDEwxWaWtpbmdWUE4gQ0ExEDAOBgNVBCkTB0Vhc3lSU0ExITAf
BgkqhkiG9w0BCQEWEm1lQG15aG9zdC5teWRvbWFpboIJAM81he6Avyo+MBMGA1Ud
JQQMMAoGCCsGAQUFBwMCMAsGA1UdDwQEAwIHgDANBgkqhkiG9w0BAQQFAAOCAgEA
rkv3JlIBc5JW2c0Pc29beAZk3l5BjwA2DIAU4EPQLZqt+oVo3NnCbFTgdxSmi1H0
4gAwU30bNdrG7L8c9riLyxNASlumDHTvW4ZKlPrSLm1XrdvACiR+BqBnQRJoB+5z
9BpEvLXXqMIAAD8SvAUzZE6panBNM/pCeF2tjATdwFPGi/UJ3FMUOU9wsGUsUGFj
iW+TQ4z9BjWqn7Thq56jCc4d1RuYiqmxuhnT/K+gKDRLGzgRY+8Up15LWNPOY5PO
NiyLCUVvzvJpffKU0jEmU2N0H09kFIqxaPwIfoUnhNFUsX8Z5i3w1YxQ5sGpT3DC
TFpMiMG2Sry+nRNQsVQdak2wG9IJj3IJ+xLXtXgbr/CnVm/ZM5pbaPTBLhX41WhN
7x9Xa9BcWLpOPcgrAf43FcTActG59Knt5v65OtcbIKpaY/H2VZj/Mf5Exjmevy4Z
LG5sdp8B1dnJxdu/1klUePTk29ERA99gkA9Ltd/yOIkW+rx8gfsTMrty1AYA9vVj
pIIEXI9+SLnAKBPahcnzK3iDm2+3B+sZfG87E1fQpC1b9tfFh8mWtlql1FnSTehO
jk9JelMeFzxsau+JGV6jQCn7s9xIOVsPwRS3/qKndMK8R7Zb671inlh2WETwEbPj
0bnAdpJ2U+Hu+pntWUsV3BzhL55/uz2SbP3sghrhYDA=
-----END CERTIFICATE-----
