Certificate:
    Data:
        Version: 3 (0x2)
        Serial Number: 4142 (0x102e)
    Signature Algorithm: md5WithRSAEncryption
        Issuer: C=US, ST=OH, L=Columbus, O=VikingVPN, OU=MyOrganizationalUnit, CN=VikingVPN CA/name=EasyRSA/emailAddress=me@myhost.mydomain
        Validity
            Not Before: Jan 16 21:28:08 2015 GMT
            Not After : Jan 13 21:28:08 2025 GMT
        Subject: CN=Client955Certaeaa5e
        Subject Public Key Info:
            Public Key Algorithm: rsaEncryption
                Public-Key: (4096 bit)
                Modulus:
                    00:a0:7f:62:23:6c:dd:42:d2:70:96:41:72:8d:d6:
                    26:51:cf:9a:4f:d9:28:59:0d:fc:27:9d:c3:5e:02:
                    2d:b1:e6:bf:8c:6a:45:a6:6a:85:7a:05:7d:e8:06:
                    35:2b:36:37:8c:c3:6e:03:d3:28:cf:f2:bb:55:02:
                    9e:99:10:c1:ae:72:8a:90:5a:a2:22:8c:03:d5:24:
                    01:23:be:af:c1:27:00:f4:12:d5:70:5b:fa:86:e7:
                    ab:09:f7:1b:0a:af:5d:dc:42:5a:1e:d0:41:02:cb:
                    42:87:df:99:d8:5c:cf:80:d2:d4:5d:e8:88:03:af:
                    ec:6c:37:43:28:31:dc:56:72:10:73:60:5c:23:b7:
                    4c:50:2a:6e:9b:ba:58:a2:4a:ad:46:66:90:d0:4f:
                    ef:45:22:31:9a:a6:90:37:a5:e2:39:72:5f:ca:0e:
                    28:fe:9f:00:e0:29:7c:59:fe:52:6b:99:16:12:bf:
                    0d:cd:27:d3:09:0e:0b:fc:19:04:d6:4b:ac:5e:24:
                    d9:ed:b8:7d:e1:2d:07:94:2e:fb:e4:ef:60:36:52:
                    fb:86:91:f4:aa:a4:37:86:f9:25:e1:3e:7e:e4:55:
                    5f:f4:67:40:7d:82:f1:69:76:a6:ad:cb:9e:3b:95:
                    1e:6a:be:b6:14:d8:c6:e1:0b:ee:77:59:cd:be:bf:
                    34:1b:32:39:bc:dc:0d:1a:a7:c4:89:7f:73:95:fb:
                    de:06:41:7c:44:25:e0:b6:69:7f:97:db:61:fe:58:
                    ba:e7:17:9f:63:9b:26:14:57:c2:d1:be:c9:03:07:
                    d2:82:6f:ef:3c:9e:27:de:10:57:11:c4:81:37:25:
                    e0:cc:bd:e6:a2:f9:35:a2:3b:b0:50:f1:ca:c3:b1:
                    2c:c4:7d:34:a1:88:0a:1d:2c:fa:0a:28:25:b3:c3:
                    8b:8a:ee:0e:aa:8e:13:84:34:d3:dc:41:8e:96:06:
                    2c:87:b6:76:c6:fa:b9:64:c9:5d:e0:be:7e:c3:29:
                    30:19:b8:45:f3:88:52:c6:e4:5e:ff:54:a7:22:3d:
                    8a:84:c6:07:a5:5e:71:0d:aa:83:34:33:cd:cc:1b:
                    0f:c1:0b:05:15:5f:1e:41:39:96:bb:74:3f:c8:e7:
                    d1:b4:5c:11:ef:eb:6e:b5:50:b1:2f:75:1f:ea:d8:
                    c8:09:72:06:5f:6a:b8:ac:87:67:70:51:1a:83:9a:
                    17:55:28:97:a8:94:65:b9:14:7a:7f:22:1c:67:46:
                    0b:e5:d1:2c:e0:0b:52:a9:8b:f9:50:38:cb:ea:13:
                    f8:45:69:67:cf:a6:3a:3b:bd:d0:94:dd:6c:61:bb:
                    97:0c:63:15:ea:e9:69:59:64:a3:fb:bb:d5:64:0a:
                    2a:8a:2f
                Exponent: 65537 (0x10001)
        X509v3 extensions:
            X509v3 Basic Constraints: 
                CA:FALSE
            Netscape Comment: 
                Easy-RSA Generated Certificate
            X509v3 Subject Key Identifier: 
                5F:D2:F7:C8:27:0F:C2:2D:59:06:48:27:8E:E6:63:CF:57:F1:9D:3C
            X509v3 Authority Key Identifier: 
                keyid:12:CD:60:04:D2:A0:80:9E:70:ED:C6:99:B8:7B:2C:C6:52:FD:19:A1
                DirName:/C=US/ST=OH/L=Columbus/O=VikingVPN/OU=MyOrganizationalUnit/CN=VikingVPN CA/name=EasyRSA/emailAddress=me@myhost.mydomain
                serial:CF:35:85:EE:80:BF:2A:3E

            X509v3 Extended Key Usage: 
                TLS Web Client Authentication
            X509v3 Key Usage: 
                Digital Signature
    Signature Algorithm: md5WithRSAEncryption
         3b:0a:ff:25:ba:ad:b2:d6:7a:13:c0:ac:87:52:68:57:61:58:
         ed:b9:d7:aa:ee:9f:5b:51:65:b3:82:ee:4f:c3:24:ed:eb:78:
         78:4e:1e:3e:b3:db:ec:8f:b5:37:12:bd:f9:d0:25:f5:fa:38:
         fa:a1:52:2c:0b:89:ad:f9:ff:68:b7:60:58:ad:cc:02:b2:b7:
         1e:40:4a:9b:5b:bc:39:61:94:08:58:59:e1:36:02:f2:41:1b:
         e3:7a:c5:fb:e9:6a:fe:1d:a7:5b:65:61:c9:7b:df:62:ed:7c:
         40:67:8b:22:c8:9b:01:ef:45:29:15:15:a2:8b:ae:55:60:b1:
         4c:d5:97:75:ac:1f:bf:cd:45:6b:35:a5:d3:41:01:04:a2:30:
         98:05:8a:dc:2b:94:ce:e6:d0:aa:e1:18:ff:23:9b:a3:06:77:
         e3:67:43:3d:54:4c:08:d1:ac:ef:da:d1:a9:2b:c0:66:cd:32:
         53:8d:92:4f:00:fc:bd:db:61:9b:73:56:46:40:cc:b0:2b:85:
         be:cb:a3:24:e9:0d:54:44:9b:4a:06:ea:ca:92:90:d9:a7:5f:
         ee:33:1a:b6:46:05:18:a4:d9:73:36:fe:bc:75:00:1f:16:ce:
         5d:6f:09:bd:91:d2:16:56:60:9c:1a:fa:1a:42:2b:9a:ba:ca:
         82:7d:9c:18:89:e7:a7:c8:63:c6:d8:c5:68:f1:2e:34:24:57:
         a0:2b:f2:67:3d:68:61:9b:65:53:ee:aa:58:2e:f8:77:79:d3:
         1b:53:28:f2:39:95:80:d5:69:a5:55:b2:72:bb:ba:7a:2f:36:
         0e:d6:7a:9b:ed:99:ca:e2:63:0d:83:45:37:9e:e7:cf:18:38:
         fc:d1:0a:d1:9b:37:dd:a4:e9:ad:1e:50:21:6b:61:91:55:3f:
         fb:bc:2a:c5:0a:40:19:a2:c5:e2:c2:e2:cc:d6:97:9f:05:a7:
         88:3a:52:eb:61:d9:1a:dd:00:3f:11:b9:ad:87:32:9a:7a:f8:
         c5:72:65:4d:ea:90:1f:9b:3f:07:71:b2:a1:e3:42:1c:3f:2e:
         28:8e:16:63:9e:ac:ab:5b:8b:7c:ac:38:1c:ae:d4:24:5c:50:
         5b:4f:9a:ef:5d:d7:5c:31:39:8f:4d:99:cd:f0:18:1b:18:31:
         d5:17:bc:96:37:b2:13:b1:ff:61:4f:29:71:61:67:9b:92:6c:
         db:b2:76:22:9b:60:2d:ee:72:6a:30:a9:e7:5b:9c:36:e2:03:
         6e:33:ed:f2:83:6b:67:46:34:8d:f9:78:d4:eb:e9:17:00:30:
         b4:c9:b4:dd:7a:29:69:3f:46:8f:d4:8a:e6:61:57:a4:06:73:
         44:36:6b:bc:11:15:38:6a
-----BEGIN CERTIFICATE-----
MIIGrDCCBJSgAwIBAgICEC4wDQYJKoZIhvcNAQEEBQAwgawxCzAJBgNVBAYTAlVT
MQswCQYDVQQIEwJPSDERMA8GA1UEBxMIQ29sdW1idXMxEjAQBgNVBAoTCVZpa2lu
Z1ZQTjEdMBsGA1UECxMUTXlPcmdhbml6YXRpb25hbFVuaXQxFTATBgNVBAMTDFZp
a2luZ1ZQTiBDQTEQMA4GA1UEKRMHRWFzeVJTQTEhMB8GCSqGSIb3DQEJARYSbWVA
bXlob3N0Lm15ZG9tYWluMB4XDTE1MDExNjIxMjgwOFoXDTI1MDExMzIxMjgwOFow
HjEcMBoGA1UEAxMTQ2xpZW50OTU1Q2VydGFlYWE1ZTCCAiIwDQYJKoZIhvcNAQEB
BQADggIPADCCAgoCggIBAKB/YiNs3ULScJZBco3WJlHPmk/ZKFkN/Cedw14CLbHm
v4xqRaZqhXoFfegGNSs2N4zDbgPTKM/yu1UCnpkQwa5yipBaoiKMA9UkASO+r8En
APQS1XBb+obnqwn3GwqvXdxCWh7QQQLLQoffmdhcz4DS1F3oiAOv7Gw3Qygx3FZy
EHNgXCO3TFAqbpu6WKJKrUZmkNBP70UiMZqmkDel4jlyX8oOKP6fAOApfFn+UmuZ
FhK/Dc0n0wkOC/wZBNZLrF4k2e24feEtB5Qu++TvYDZS+4aR9KqkN4b5JeE+fuRV
X/RnQH2C8Wl2pq3LnjuVHmq+thTYxuEL7ndZzb6/NBsyObzcDRqnxIl/c5X73gZB
fEQl4LZpf5fbYf5YuucXn2ObJhRXwtG+yQMH0oJv7zyeJ94QVxHEgTcl4My95qL5
NaI7sFDxysOxLMR9NKGICh0s+gooJbPDi4ruDqqOE4Q009xBjpYGLIe2dsb6uWTJ
XeC+fsMpMBm4RfOIUsbkXv9UpyI9ioTGB6VecQ2qgzQzzcwbD8ELBRVfHkE5lrt0
P8jn0bRcEe/rbrVQsS91H+rYyAlyBl9quKyHZ3BRGoOaF1Uol6iUZbkUen8iHGdG
C+XRLOALUqmL+VA4y+oT+EVpZ8+mOju90JTdbGG7lwxjFerpaVlko/u71WQKKoov
AgMBAAGjggFjMIIBXzAJBgNVHRMEAjAAMC0GCWCGSAGG+EIBDQQgFh5FYXN5LVJT
QSBHZW5lcmF0ZWQgQ2VydGlmaWNhdGUwHQYDVR0OBBYEFF/S98gnD8ItWQZIJ47m
Y89X8Z08MIHhBgNVHSMEgdkwgdaAFBLNYATSoICecO3Gmbh7LMZS/RmhoYGypIGv
MIGsMQswCQYDVQQGEwJVUzELMAkGA1UECBMCT0gxETAPBgNVBAcTCENvbHVtYnVz
MRIwEAYDVQQKEwlWaWtpbmdWUE4xHTAbBgNVBAsTFE15T3JnYW5pemF0aW9uYWxV
bml0MRUwEwYDVQQDEwxWaWtpbmdWUE4gQ0ExEDAOBgNVBCkTB0Vhc3lSU0ExITAf
BgkqhkiG9w0BCQEWEm1lQG15aG9zdC5teWRvbWFpboIJAM81he6Avyo+MBMGA1Ud
JQQMMAoGCCsGAQUFBwMCMAsGA1UdDwQEAwIHgDANBgkqhkiG9w0BAQQFAAOCAgEA
Owr/JbqtstZ6E8Csh1JoV2FY7bnXqu6fW1Fls4LuT8Mk7et4eE4ePrPb7I+1NxK9
+dAl9fo4+qFSLAuJrfn/aLdgWK3MArK3HkBKm1u8OWGUCFhZ4TYC8kEb43rF++lq
/h2nW2VhyXvfYu18QGeLIsibAe9FKRUVoouuVWCxTNWXdawfv81FazWl00EBBKIw
mAWK3CuUzubQquEY/yObowZ342dDPVRMCNGs79rRqSvAZs0yU42STwD8vdthm3NW
RkDMsCuFvsujJOkNVESbSgbqypKQ2adf7jMatkYFGKTZczb+vHUAHxbOXW8JvZHS
FlZgnBr6GkIrmrrKgn2cGInnp8hjxtjFaPEuNCRXoCvyZz1oYZtlU+6qWC74d3nT
G1Mo8jmVgNVppVWycru6ei82DtZ6m+2ZyuJjDYNFN57nzxg4/NEK0Zs33aTprR5Q
IWthkVU/+7wqxQpAGaLF4sLizNaXnwWniDpS62HZGt0APxG5rYcymnr4xXJlTeqQ
H5s/B3GyoeNCHD8uKI4WY56sq1uLfKw4HK7UJFxQW0+a713XXDE5j02ZzfAYGxgx
1Re8ljeyE7H/YU8pcWFnm5Js27J2IptgLe5yajCp51ucNuIDbjPt8oNrZ0Y0jfl4
1OvpFwAwtMm03XopaT9Gj9SK5mFXpAZzRDZrvBEVOGo=
-----END CERTIFICATE-----
