Certificate:
    Data:
        Version: 3 (0x2)
        Serial Number: 9179 (0x23db)
    Signature Algorithm: sha256WithRSAEncryption
        Issuer: C=US, ST=OH, L=Columbus, O=VikingVPN, OU=MyOrganizationalUnit, CN=VikingVPN CA/name=EasyRSA/emailAddress=me@myhost.mydomain
        Validity
            Not Before: Oct  6 13:25:06 2016 GMT
            Not After : Oct  4 13:25:06 2026 GMT
        Subject: CN=Client2528Certd78a6e
        Subject Public Key Info:
            Public Key Algorithm: rsaEncryption
                Public-Key: (4096 bit)
                Modulus:
                    00:d5:55:8e:cf:66:1f:63:00:ee:c6:1c:ed:e4:f7:
                    9b:d5:49:dd:eb:9f:9e:57:54:b1:b5:a7:1b:fb:05:
                    fc:8b:bc:d2:c2:96:46:41:41:7f:25:f1:4e:7f:80:
                    24:92:ce:b6:08:f0:2e:88:d7:42:b8:2b:da:dc:b7:
                    14:25:4a:7d:e2:b1:1b:1c:04:72:cb:a6:69:18:6b:
                    88:04:85:3c:e9:b8:b2:44:be:f2:f0:fd:b0:4d:3d:
                    71:46:61:32:3e:6c:52:4b:95:d6:14:00:4c:cb:86:
                    a1:d1:c3:23:97:58:25:a3:c0:cc:dc:01:1e:43:c8:
                    bc:a5:2c:49:b1:82:64:2b:fd:9c:f4:da:3d:e2:d2:
                    ca:a7:41:c6:90:6a:1a:6a:0d:dd:83:12:ac:9b:a8:
                    c2:c2:24:81:68:e2:ba:ed:35:76:4d:cd:d3:09:ec:
                    33:68:d0:9e:2c:9f:4b:9b:50:91:3d:dd:c8:b4:d4:
                    4c:56:a0:15:12:b8:be:45:a4:f5:3c:f7:5d:a7:6d:
                    83:21:c8:57:44:57:24:a3:ff:f1:c0:74:66:ca:68:
                    e7:32:bd:cb:ac:8e:7c:e1:db:e6:0d:78:d1:13:bb:
                    e3:dd:59:9b:ea:4f:d0:0b:34:cf:44:c7:fd:34:fa:
                    3c:89:d1:92:f2:d0:32:4a:94:1b:cf:35:4b:0c:4a:
                    dc:8d:97:f5:cd:27:19:bf:df:9a:c7:17:af:5a:57:
                    f8:dd:79:32:6e:54:81:47:e6:9a:12:74:08:17:dd:
                    94:02:d4:64:0d:9d:9c:bb:6b:38:0e:8c:ef:55:4f:
                    c7:4c:cb:40:99:2f:a3:bd:2d:97:d2:60:f0:12:c9:
                    43:8d:8f:b7:e2:b3:2d:02:4e:15:78:01:82:71:9d:
                    45:91:19:14:76:01:92:49:6b:de:45:51:55:e0:c4:
                    e3:2b:e3:0c:58:8f:83:fd:c7:7b:be:c2:d5:b1:d6:
                    99:af:4e:fe:0e:8e:5c:5b:c5:1a:b4:b0:f1:f1:49:
                    e4:42:5c:18:78:fe:de:86:03:01:48:2c:b4:7c:48:
                    1d:51:08:b3:59:09:05:86:ba:fc:97:fa:46:a6:75:
                    9a:72:b3:ec:e2:ed:ae:53:5f:83:26:b8:8c:5a:bb:
                    a7:9a:70:f0:b1:c6:06:1b:2c:14:8e:a7:93:7e:62:
                    87:8f:a6:ac:35:e4:d2:10:9d:a5:d5:91:b5:5a:7b:
                    49:57:cd:34:f1:b5:93:cd:2b:90:44:65:6e:0a:90:
                    d4:4e:83:c1:0d:d3:3d:5f:fb:3d:62:61:24:38:e3:
                    82:dc:11:34:e9:80:36:66:e0:54:8f:c5:5f:b6:58:
                    a7:93:aa:4b:6d:da:ea:a8:44:eb:4c:45:df:45:01:
                    bf:44:eb
                Exponent: 65537 (0x10001)
        X509v3 extensions:
            X509v3 Basic Constraints: 
                CA:FALSE
            Netscape Comment: 
                Easy-RSA Generated Certificate
            X509v3 Subject Key Identifier: 
                4E:08:1F:9E:50:B9:F2:4C:FF:76:B7:93:4F:C9:C9:9C:B2:4E:97:F1
            X509v3 Authority Key Identifier: 
                keyid:12:CD:60:04:D2:A0:80:9E:70:ED:C6:99:B8:7B:2C:C6:52:FD:19:A1
                DirName:/C=US/ST=OH/L=Columbus/O=VikingVPN/OU=MyOrganizationalUnit/CN=VikingVPN CA/name=EasyRSA/emailAddress=me@myhost.mydomain
                serial:CF:35:85:EE:80:BF:2A:3E

            X509v3 Extended Key Usage: 
                TLS Web Client Authentication
            X509v3 Key Usage: 
                Digital Signature
    Signature Algorithm: sha256WithRSAEncryption
         85:98:f7:a7:62:e0:10:b6:74:53:88:47:a9:13:4c:93:f2:9d:
         ee:66:68:b5:b0:87:a0:eb:c4:08:78:46:02:eb:5e:c8:c4:af:
         3b:8f:c5:32:38:ba:4d:33:b9:3e:a0:7f:9f:6a:04:39:75:7a:
         f4:5f:cb:8a:03:2c:52:55:63:51:d2:88:c7:f3:b3:36:4a:cf:
         c4:9b:a0:68:5f:87:fa:8b:a0:40:bd:49:20:ea:ab:81:ff:40:
         1b:bb:9d:ca:28:49:34:d7:68:c7:da:7d:30:a4:9c:f8:c1:a0:
         86:75:8c:85:ff:8c:57:9b:07:20:64:69:7b:c4:a5:ed:49:84:
         0f:72:30:a5:bb:f3:8f:cb:a1:16:1e:4c:0d:6a:90:5a:54:f0:
         d9:86:e0:cd:74:49:1b:9d:f0:b7:05:38:34:60:fb:bf:18:d6:
         17:6c:ed:0d:11:9d:cf:51:c6:c0:d8:fd:a2:fd:fd:c6:f9:fe:
         0f:ff:d4:85:d6:07:69:a6:d0:cd:c5:43:2e:d3:6d:5e:3c:4a:
         e9:ab:0d:9c:1c:d7:ff:c4:4a:37:00:d6:fc:c3:16:9c:bc:4a:
         8f:27:d3:1c:f1:d7:9d:c6:76:b7:10:bf:1b:e2:74:eb:eb:05:
         7b:1a:0c:6a:20:26:80:35:24:9d:6d:89:cc:8d:da:b4:e4:fa:
         b8:0e:3c:af:19:ae:79:df:28:f5:61:ba:f7:e6:e2:6a:82:79:
         46:c7:62:34:b8:88:a9:5c:86:9a:2d:00:08:e2:5c:f3:f9:2e:
         ca:1a:e4:bd:01:5f:05:85:94:9e:c2:5f:c7:4b:8a:c5:a3:85:
         a0:dd:34:4a:04:70:c9:ca:38:76:86:d9:63:35:bc:c4:9c:f1:
         92:78:93:64:14:71:23:a0:84:60:c5:cb:35:45:29:b7:4d:ce:
         19:76:ce:34:d2:45:69:76:24:5c:8e:41:05:e7:a1:c9:09:f0:
         b4:53:bb:14:60:6a:a9:3d:9b:4a:ee:10:3a:5a:83:60:6d:1a:
         98:07:40:2c:b5:19:71:07:ef:8d:b3:04:0c:66:90:6a:b1:2e:
         1d:8f:7a:90:f7:01:b5:f5:1e:1f:37:1c:56:43:1a:cd:03:55:
         fb:6b:d8:91:05:a4:32:d9:bd:cb:ff:82:96:e1:41:d6:4d:8e:
         a6:a4:4c:41:7c:a3:0a:4d:de:6a:b5:2e:c5:87:58:e6:43:e3:
         23:e2:f8:cb:fa:28:69:24:4e:ad:bd:dc:4f:b0:40:13:07:7f:
         89:72:27:a7:ed:72:99:97:be:30:63:c9:92:a8:82:3e:8a:8c:
         78:27:a0:27:66:a8:57:bb:25:19:69:d5:1a:c6:12:f8:83:fb:
         e3:cf:60:87:2e:3a:63:13
-----BEGIN CERTIFICATE-----
MIIGrTCCBJWgAwIBAgICI9swDQYJKoZIhvcNAQELBQAwgawxCzAJBgNVBAYTAlVT
MQswCQYDVQQIEwJPSDERMA8GA1UEBxMIQ29sdW1idXMxEjAQBgNVBAoTCVZpa2lu
Z1ZQTjEdMBsGA1UECxMUTXlPcmdhbml6YXRpb25hbFVuaXQxFTATBgNVBAMTDFZp
a2luZ1ZQTiBDQTEQMA4GA1UEKRMHRWFzeVJTQTEhMB8GCSqGSIb3DQEJARYSbWVA
bXlob3N0Lm15ZG9tYWluMB4XDTE2MTAwNjEzMjUwNloXDTI2MTAwNDEzMjUwNlow
HzEdMBsGA1UEAxMUQ2xpZW50MjUyOENlcnRkNzhhNmUwggIiMA0GCSqGSIb3DQEB
AQUAA4ICDwAwggIKAoICAQDVVY7PZh9jAO7GHO3k95vVSd3rn55XVLG1pxv7BfyL
vNLClkZBQX8l8U5/gCSSzrYI8C6I10K4K9rctxQlSn3isRscBHLLpmkYa4gEhTzp
uLJEvvLw/bBNPXFGYTI+bFJLldYUAEzLhqHRwyOXWCWjwMzcAR5DyLylLEmxgmQr
/Zz02j3i0sqnQcaQahpqDd2DEqybqMLCJIFo4rrtNXZNzdMJ7DNo0J4sn0ubUJE9
3ci01ExWoBUSuL5FpPU8912nbYMhyFdEVySj//HAdGbKaOcyvcusjnzh2+YNeNET
u+PdWZvqT9ALNM9Ex/00+jyJ0ZLy0DJKlBvPNUsMStyNl/XNJxm/35rHF69aV/jd
eTJuVIFH5poSdAgX3ZQC1GQNnZy7azgOjO9VT8dMy0CZL6O9LZfSYPASyUONj7fi
sy0CThV4AYJxnUWRGRR2AZJJa95FUVXgxOMr4wxYj4P9x3u+wtWx1pmvTv4Ojlxb
xRq0sPHxSeRCXBh4/t6GAwFILLR8SB1RCLNZCQWGuvyX+kamdZpys+zi7a5TX4Mm
uIxau6eacPCxxgYbLBSOp5N+YoePpqw15NIQnaXVkbVae0lXzTTxtZPNK5BEZW4K
kNROg8EN0z1f+z1iYSQ444LcETTpgDZm4FSPxV+2WKeTqktt2uqoROtMRd9FAb9E
6wIDAQABo4IBYzCCAV8wCQYDVR0TBAIwADAtBglghkgBhvhCAQ0EIBYeRWFzeS1S
U0EgR2VuZXJhdGVkIENlcnRpZmljYXRlMB0GA1UdDgQWBBROCB+eULnyTP92t5NP
ycmcsk6X8TCB4QYDVR0jBIHZMIHWgBQSzWAE0qCAnnDtxpm4eyzGUv0ZoaGBsqSB
rzCBrDELMAkGA1UEBhMCVVMxCzAJBgNVBAgTAk9IMREwDwYDVQQHEwhDb2x1bWJ1
czESMBAGA1UEChMJVmlraW5nVlBOMR0wGwYDVQQLExRNeU9yZ2FuaXphdGlvbmFs
VW5pdDEVMBMGA1UEAxMMVmlraW5nVlBOIENBMRAwDgYDVQQpEwdFYXN5UlNBMSEw
HwYJKoZIhvcNAQkBFhJtZUBteWhvc3QubXlkb21haW6CCQDPNYXugL8qPjATBgNV
HSUEDDAKBggrBgEFBQcDAjALBgNVHQ8EBAMCB4AwDQYJKoZIhvcNAQELBQADggIB
AIWY96di4BC2dFOIR6kTTJPyne5maLWwh6DrxAh4RgLrXsjErzuPxTI4uk0zuT6g
f59qBDl1evRfy4oDLFJVY1HSiMfzszZKz8SboGhfh/qLoEC9SSDqq4H/QBu7ncoo
STTXaMfafTCknPjBoIZ1jIX/jFebByBkaXvEpe1JhA9yMKW784/LoRYeTA1qkFpU
8NmG4M10SRud8LcFODRg+78Y1hds7Q0Rnc9RxsDY/aL9/cb5/g//1IXWB2mm0M3F
Qy7TbV48SumrDZwc1//ESjcA1vzDFpy8So8n0xzx153GdrcQvxvidOvrBXsaDGog
JoA1JJ1ticyN2rTk+rgOPK8ZrnnfKPVhuvfm4mqCeUbHYjS4iKlchpotAAjiXPP5
Lsoa5L0BXwWFlJ7CX8dLisWjhaDdNEoEcMnKOHaG2WM1vMSc8ZJ4k2QUcSOghGDF
yzVFKbdNzhl2zjTSRWl2JFyOQQXnockJ8LRTuxRgaqk9m0ruEDpag2BtGpgHQCy1
GXEH742zBAxmkGqxLh2PepD3AbX1Hh83HFZDGs0DVftr2JEFpDLZvcv/gpbhQdZN
jqakTEF8owpN3mq1LsWHWOZD4yPi+Mv6KGkkTq293E+wQBMHf4lyJ6ftcpmXvjBj
yZKogj6KjHgnoCdmqFe7JRlp1RrGEviD++PPYIcuOmMT
-----END CERTIFICATE-----
