Certificate:
    Data:
        Version: 3 (0x2)
        Serial Number: 636 (0x27c)
    Signature Algorithm: md5WithRSAEncryption
        Issuer: C=US, ST=OH, L=Columbus, O=VikingVPN, OU=MyOrganizationalUnit, CN=VikingVPN CA/name=EasyRSA/emailAddress=me@myhost.mydomain
        Validity
            Not Before: Dec 22 02:13:46 2013 GMT
            Not After : Dec 20 02:13:46 2023 GMT
        Subject: CN=Client244Certcc79a0
        Subject Public Key Info:
            Public Key Algorithm: rsaEncryption
                Public-Key: (4096 bit)
                Modulus:
                    00:d6:10:0a:26:06:0d:0b:d8:d4:e3:a6:27:48:c7:
                    78:54:67:1e:6b:c2:60:74:ba:b3:94:fc:bc:cb:e4:
                    b9:b9:10:2b:90:e5:94:1b:8c:38:e4:65:86:a1:23:
                    3e:3f:37:e6:80:67:b2:7a:d7:c4:06:0a:00:29:ad:
                    14:22:8d:d4:1c:db:3f:2b:a7:7f:7d:51:a4:94:8c:
                    4c:b5:a7:79:70:72:39:ab:ff:5a:02:a7:b9:be:75:
                    cb:99:70:ec:07:de:b2:65:d6:9b:2e:6f:e7:e8:7d:
                    a4:2a:38:9f:fe:5e:75:a1:f2:90:f1:9f:2b:d9:8b:
                    67:68:52:c2:64:5a:cf:c6:b8:ee:c3:31:c2:15:a0:
                    17:d5:8b:2b:b9:e6:ef:58:dd:05:d0:12:45:82:03:
                    97:fd:a9:b6:3c:71:89:97:e6:ac:a7:8a:50:43:64:
                    65:f0:1a:95:33:24:db:d7:1d:f4:b1:0d:ec:95:fc:
                    cc:7b:f8:8d:a8:8e:c3:bc:16:84:7c:b2:8f:ec:0c:
                    37:3f:33:ab:ad:cb:c5:3e:14:73:59:42:44:21:e8:
                    e0:96:2c:ce:50:dc:e9:1b:66:60:53:78:0f:5c:7e:
                    48:29:ff:e2:3c:27:34:83:1c:fb:7b:8c:16:34:e6:
                    9a:3d:34:8e:ea:29:fe:a1:e8:eb:2b:36:e3:ef:53:
                    6d:25:27:7e:99:0c:4b:7b:4c:57:ce:63:97:c8:c7:
                    41:2e:a5:9f:0a:6b:de:c2:c1:8c:69:90:38:59:7c:
                    3f:c4:52:b7:73:18:ab:1f:c0:1f:21:8c:42:33:8c:
                    b5:db:b0:2f:ec:f8:fe:c2:c6:3e:b1:ce:7d:8b:b8:
                    6e:ea:4f:71:90:42:23:53:d9:95:8e:ee:78:02:c7:
                    d1:c9:b8:74:be:f6:2a:e0:43:b6:4a:38:2e:ff:f4:
                    d5:da:7c:4a:03:83:65:8c:21:a5:f0:fb:94:13:fa:
                    da:6a:d1:37:0a:b9:33:1a:ce:82:8c:a2:df:1d:50:
                    ad:78:97:df:c7:35:88:56:73:87:37:15:c3:7b:a8:
                    49:a4:09:6c:63:b1:0c:85:07:50:fd:7d:40:29:52:
                    5e:cd:f4:91:5c:dc:2d:ad:12:0f:c9:93:0e:e6:8d:
                    ac:4f:03:49:57:cf:e1:f0:b9:b7:b6:a3:63:c1:a3:
                    de:b9:42:e1:a4:d3:25:96:0d:4f:59:1c:79:6d:2c:
                    5e:9c:a9:62:60:23:da:13:29:7d:03:55:ac:61:37:
                    1b:ef:4e:f3:88:03:7e:7e:ae:8b:ce:ff:44:69:13:
                    2c:d3:be:45:c5:97:cb:a0:da:df:e7:58:af:3b:f8:
                    ef:46:30:be:81:9a:12:4a:87:0f:a4:29:05:92:39:
                    16:d0:db
                Exponent: 65537 (0x10001)
        X509v3 extensions:
            X509v3 Basic Constraints: 
                CA:FALSE
            Netscape Comment: 
                Easy-RSA Generated Certificate
            X509v3 Subject Key Identifier: 
                04:45:5B:B5:98:87:D0:5A:9B:2F:56:CD:8F:17:94:73:37:6F:E5:6C
            X509v3 Authority Key Identifier: 
                keyid:12:CD:60:04:D2:A0:80:9E:70:ED:C6:99:B8:7B:2C:C6:52:FD:19:A1
                DirName:/C=US/ST=OH/L=Columbus/O=VikingVPN/OU=MyOrganizationalUnit/CN=VikingVPN CA/name=EasyRSA/emailAddress=me@myhost.mydomain
                serial:CF:35:85:EE:80:BF:2A:3E

            X509v3 Extended Key Usage: 
                TLS Web Client Authentication
            X509v3 Key Usage: 
                Digital Signature
    Signature Algorithm: md5WithRSAEncryption
         30:7c:dd:60:c8:63:92:51:3a:d7:14:f6:c0:b0:ee:5d:50:15:
         6a:d0:fd:05:3a:fc:bb:34:cf:71:81:ab:85:e1:13:c9:50:3e:
         25:c7:e2:b9:ea:54:a1:a2:98:ca:20:7a:a3:fb:89:b9:9d:26:
         33:86:d5:01:1e:8e:c5:ff:23:b6:e5:e7:01:17:f4:64:11:f4:
         24:13:e3:3c:38:bf:07:a1:ad:a4:d6:5a:0f:3c:96:ab:c6:39:
         81:d3:f4:07:d0:44:4c:66:36:28:2e:89:2c:d5:2a:43:6f:0f:
         f4:ce:53:d3:8f:ec:44:65:3e:ed:18:7e:60:b6:41:c5:46:07:
         ea:ce:53:72:c1:a9:e9:76:1d:80:5e:6e:43:58:09:1d:c0:48:
         b0:e6:38:a8:f5:11:69:76:8f:cc:a8:f4:c5:4b:22:ad:80:db:
         51:4e:16:f7:3f:66:5c:9a:9d:ef:bf:4e:71:32:84:1f:02:6f:
         4b:4a:31:73:fd:40:77:41:d2:1c:07:33:e1:b0:b5:37:89:8e:
         26:06:1d:1e:6a:dd:10:b4:be:65:49:87:fa:1d:42:f9:11:bf:
         b9:aa:88:33:82:2a:85:d1:aa:1a:2c:d3:ed:9d:fe:08:5a:aa:
         62:4d:7b:00:aa:f9:a6:09:06:1c:9a:83:dc:eb:f6:53:31:ab:
         0c:a1:9f:b0:84:7c:b9:f7:e8:2a:dc:76:8d:e5:a4:b9:5e:9c:
         73:7d:c9:2d:4f:04:6b:13:86:3d:65:5c:1e:60:91:32:d8:d7:
         e6:92:ae:c2:94:4c:a1:fc:59:6e:6b:4c:e9:10:9f:ef:c5:06:
         ef:0b:00:65:32:3d:e7:7a:63:c7:29:f1:29:a2:01:1a:9e:f8:
         de:7d:a8:e7:74:ca:f3:e4:1a:dc:3f:88:97:bb:0c:eb:6c:e4:
         b8:87:8a:9f:25:90:e2:cc:2f:94:98:e7:92:8c:f1:8e:24:db:
         00:b0:99:c2:2c:ae:4f:f0:ab:d0:f2:87:c5:35:53:89:88:a9:
         8a:5b:92:39:aa:4e:2d:02:a3:59:4b:05:2d:78:f0:52:99:9a:
         ab:f1:77:c4:a7:54:fe:d1:24:f4:28:5d:76:db:74:b7:5b:57:
         88:ba:ef:3a:89:67:d5:aa:5a:64:18:6d:e7:f1:10:55:32:f3:
         7e:11:eb:91:d0:4f:51:a5:04:f4:30:5d:8e:48:bb:b8:5e:68:
         0a:ba:82:cd:c9:af:16:19:2e:67:39:fc:c2:90:fd:91:3c:64:
         38:18:1b:2d:9d:60:7d:51:af:09:eb:9f:44:8e:9e:20:68:26:
         22:99:d2:c4:80:63:66:21:b5:a4:b8:0a:1b:7d:76:78:3c:f6:
         97:d9:6c:8d:88:ff:8d:24
-----BEGIN CERTIFICATE-----
MIIGrDCCBJSgAwIBAgICAnwwDQYJKoZIhvcNAQEEBQAwgawxCzAJBgNVBAYTAlVT
MQswCQYDVQQIEwJPSDERMA8GA1UEBxMIQ29sdW1idXMxEjAQBgNVBAoTCVZpa2lu
Z1ZQTjEdMBsGA1UECxMUTXlPcmdhbml6YXRpb25hbFVuaXQxFTATBgNVBAMTDFZp
a2luZ1ZQTiBDQTEQMA4GA1UEKRMHRWFzeVJTQTEhMB8GCSqGSIb3DQEJARYSbWVA
bXlob3N0Lm15ZG9tYWluMB4XDTEzMTIyMjAyMTM0NloXDTIzMTIyMDAyMTM0Nlow
HjEcMBoGA1UEAxMTQ2xpZW50MjQ0Q2VydGNjNzlhMDCCAiIwDQYJKoZIhvcNAQEB
BQADggIPADCCAgoCggIBANYQCiYGDQvY1OOmJ0jHeFRnHmvCYHS6s5T8vMvkubkQ
K5DllBuMOORlhqEjPj835oBnsnrXxAYKACmtFCKN1BzbPyunf31RpJSMTLWneXBy
Oav/WgKnub51y5lw7AfesmXWmy5v5+h9pCo4n/5edaHykPGfK9mLZ2hSwmRaz8a4
7sMxwhWgF9WLK7nm71jdBdASRYIDl/2ptjxxiZfmrKeKUENkZfAalTMk29cd9LEN
7JX8zHv4jaiOw7wWhHyyj+wMNz8zq63LxT4Uc1lCRCHo4JYszlDc6RtmYFN4D1x+
SCn/4jwnNIMc+3uMFjTmmj00juop/qHo6ys24+9TbSUnfpkMS3tMV85jl8jHQS6l
nwpr3sLBjGmQOFl8P8RSt3MYqx/AHyGMQjOMtduwL+z4/sLGPrHOfYu4bupPcZBC
I1PZlY7ueALH0cm4dL72KuBDtko4Lv/01dp8SgODZYwhpfD7lBP62mrRNwq5MxrO
goyi3x1QrXiX38c1iFZzhzcVw3uoSaQJbGOxDIUHUP19QClSXs30kVzcLa0SD8mT
DuaNrE8DSVfP4fC5t7ajY8Gj3rlC4aTTJZYNT1kceW0sXpypYmAj2hMpfQNVrGE3
G+9O84gDfn6ui87/RGkTLNO+RcWXy6Da3+dYrzv470YwvoGaEkqHD6QpBZI5FtDb
AgMBAAGjggFjMIIBXzAJBgNVHRMEAjAAMC0GCWCGSAGG+EIBDQQgFh5FYXN5LVJT
QSBHZW5lcmF0ZWQgQ2VydGlmaWNhdGUwHQYDVR0OBBYEFARFW7WYh9Bamy9WzY8X
lHM3b+VsMIHhBgNVHSMEgdkwgdaAFBLNYATSoICecO3Gmbh7LMZS/RmhoYGypIGv
MIGsMQswCQYDVQQGEwJVUzELMAkGA1UECBMCT0gxETAPBgNVBAcTCENvbHVtYnVz
MRIwEAYDVQQKEwlWaWtpbmdWUE4xHTAbBgNVBAsTFE15T3JnYW5pemF0aW9uYWxV
bml0MRUwEwYDVQQDEwxWaWtpbmdWUE4gQ0ExEDAOBgNVBCkTB0Vhc3lSU0ExITAf
BgkqhkiG9w0BCQEWEm1lQG15aG9zdC5teWRvbWFpboIJAM81he6Avyo+MBMGA1Ud
JQQMMAoGCCsGAQUFBwMCMAsGA1UdDwQEAwIHgDANBgkqhkiG9w0BAQQFAAOCAgEA
MHzdYMhjklE61xT2wLDuXVAVatD9BTr8uzTPcYGrheETyVA+JcfiuepUoaKYyiB6
o/uJuZ0mM4bVAR6Oxf8jtuXnARf0ZBH0JBPjPDi/B6GtpNZaDzyWq8Y5gdP0B9BE
TGY2KC6JLNUqQ28P9M5T04/sRGU+7Rh+YLZBxUYH6s5TcsGp6XYdgF5uQ1gJHcBI
sOY4qPURaXaPzKj0xUsirYDbUU4W9z9mXJqd779OcTKEHwJvS0oxc/1Ad0HSHAcz
4bC1N4mOJgYdHmrdELS+ZUmH+h1C+RG/uaqIM4IqhdGqGizT7Z3+CFqqYk17AKr5
pgkGHJqD3Ov2UzGrDKGfsIR8uffoKtx2jeWkuV6cc33JLU8EaxOGPWVcHmCRMtjX
5pKuwpRMofxZbmtM6RCf78UG7wsAZTI953pjxynxKaIBGp743n2o53TK8+Qa3D+I
l7sM62zkuIeKnyWQ4swvlJjnkozxjiTbALCZwiyuT/Cr0PKHxTVTiYipiluSOapO
LQKjWUsFLXjwUpmaq/F3xKdU/tEk9Chddtt0t1tXiLrvOoln1apaZBht5/EQVTLz
fhHrkdBPUaUE9DBdjki7uF5oCrqCzcmvFhkuZzn8wpD9kTxkOBgbLZ1gfVGvCeuf
RI6eIGgmIpnSxIBjZiG1pLgKG312eDz2l9lsjYj/jSQ=
-----END CERTIFICATE-----
