Certificate:
    Data:
        Version: 3 (0x2)
        Serial Number: 4904 (0x1328)
    Signature Algorithm: md5WithRSAEncryption
        Issuer: C=US, ST=OH, L=Columbus, O=VikingVPN, OU=MyOrganizationalUnit, CN=VikingVPN CA/name=EasyRSA/emailAddress=me@myhost.mydomain
        Validity
            Not Before: Apr  7 18:26:16 2015 GMT
            Not After : Apr  4 18:26:16 2025 GMT
        Subject: CN=Client1600Cert7ce22d
        Subject Public Key Info:
            Public Key Algorithm: rsaEncryption
                Public-Key: (4096 bit)
                Modulus:
                    00:d1:b3:d4:55:1f:ac:2c:eb:e8:2e:24:20:1b:4a:
                    99:27:4a:cb:42:30:32:54:de:05:22:70:b6:af:bf:
                    24:24:f2:7e:11:94:61:bb:39:af:25:4c:60:cb:fe:
                    8d:d4:7d:95:a1:28:80:23:b1:cd:00:26:15:12:e8:
                    d1:8d:f2:f4:31:f5:aa:1e:f2:7a:c3:e9:fb:eb:bc:
                    89:33:3f:93:14:7f:e6:bd:78:d2:c5:96:22:b2:40:
                    a8:79:02:aa:2e:c6:32:07:27:ce:94:a6:56:dc:4c:
                    4c:ef:22:cd:47:67:b8:46:a5:b6:08:78:f4:c3:5b:
                    ff:b3:84:ae:78:77:e2:6f:a7:81:2e:17:64:a6:ca:
                    4c:9e:ad:83:9c:3f:c5:ed:92:08:49:07:f0:b1:b5:
                    5c:06:d0:a1:70:7e:0e:dc:1a:ab:5e:76:71:34:0e:
                    b4:69:c0:fb:03:d7:6d:1c:4b:78:30:8d:b5:5c:cc:
                    46:7a:80:27:44:32:2d:b4:cc:bb:3b:e8:00:92:73:
                    26:28:1f:e8:88:5f:20:0c:10:23:14:ff:c2:98:8e:
                    c4:23:5d:0a:b3:60:26:68:f1:2a:8a:8f:0c:af:00:
                    29:72:c2:34:5c:cf:b9:ab:54:40:2f:ac:7a:2d:b0:
                    52:3d:2c:b8:e6:bf:06:07:7d:2d:1e:33:57:e0:a1:
                    07:41:54:21:ca:85:a5:63:3f:9a:db:6c:af:91:3d:
                    35:3f:3b:1d:59:9a:93:6c:95:16:c5:76:18:1f:aa:
                    8b:0e:16:b4:20:c4:58:aa:b7:b9:4a:8c:e3:bb:93:
                    3b:e3:b5:c8:92:46:0c:ab:b2:06:71:84:d3:f3:79:
                    c7:77:18:31:a7:99:ee:07:e4:be:77:7a:67:6a:8e:
                    3a:77:e5:19:24:7a:a6:ca:39:27:04:15:57:44:31:
                    38:3f:4b:09:25:37:89:b1:d4:72:97:09:3e:fb:e7:
                    09:14:44:54:6a:9e:28:03:1f:16:b7:c7:16:21:8c:
                    ed:87:ae:97:a1:46:88:c2:e1:45:69:5d:f2:a3:2f:
                    03:d2:20:b5:81:4f:be:c5:0a:1a:ec:08:db:f2:4e:
                    16:17:c6:bf:45:f7:72:a4:83:16:ac:35:42:8f:12:
                    18:1e:52:81:df:1f:fd:51:80:24:07:06:21:07:ba:
                    04:87:24:08:f8:11:48:83:57:eb:fd:bc:0f:6f:78:
                    13:7a:42:c7:a3:23:de:40:14:30:b8:d0:c4:94:06:
                    47:4a:21:e9:da:db:be:a9:c6:b9:96:4a:47:43:92:
                    18:c7:23:5d:61:71:55:d6:10:1e:8a:25:82:12:d7:
                    23:4d:b5:96:3a:67:20:6a:5e:c3:00:24:15:66:34:
                    1f:45:37
                Exponent: 65537 (0x10001)
        X509v3 extensions:
            X509v3 Basic Constraints: 
                CA:FALSE
            Netscape Comment: 
                Easy-RSA Generated Certificate
            X509v3 Subject Key Identifier: 
                F5:BD:2D:79:4D:46:FA:C7:B7:6D:11:5A:BD:3E:0F:B5:21:38:38:B8
            X509v3 Authority Key Identifier: 
                keyid:12:CD:60:04:D2:A0:80:9E:70:ED:C6:99:B8:7B:2C:C6:52:FD:19:A1
                DirName:/C=US/ST=OH/L=Columbus/O=VikingVPN/OU=MyOrganizationalUnit/CN=VikingVPN CA/name=EasyRSA/emailAddress=me@myhost.mydomain
                serial:CF:35:85:EE:80:BF:2A:3E

            X509v3 Extended Key Usage: 
                TLS Web Client Authentication
            X509v3 Key Usage: 
                Digital Signature
    Signature Algorithm: md5WithRSAEncryption
         0d:c0:84:e9:e8:b0:5d:bc:44:fd:79:66:f4:c2:dc:4d:5f:0d:
         01:1e:21:99:0c:89:85:83:a1:1f:2d:a7:88:80:8c:6a:f1:c7:
         f3:d3:bc:3c:47:dd:ee:35:17:ca:ea:16:99:17:1c:31:bd:7e:
         b7:7f:2c:3d:b1:88:47:32:2f:0b:51:5b:ae:23:ab:d8:f6:a6:
         8c:bb:7d:13:b5:df:67:24:28:1c:fe:2e:56:99:71:95:5b:b7:
         0f:42:bc:24:86:50:fa:84:ad:ef:8e:0d:3c:a3:64:57:c4:e0:
         f3:b0:7a:65:e9:8b:8e:83:de:25:3c:26:81:75:7b:5c:63:74:
         33:35:62:65:fe:8a:54:32:98:ec:40:ff:61:85:7e:27:63:74:
         bc:e3:48:28:f0:90:60:02:4f:1f:ed:a0:73:d3:88:8d:42:16:
         c3:34:1e:97:ee:d6:10:11:fe:31:3e:84:3d:80:c3:94:ab:09:
         02:f8:6f:cf:0a:bf:12:0a:7f:6c:d7:f5:3c:e5:07:26:b6:09:
         ed:11:76:a1:20:0f:b1:f5:82:c8:57:84:1d:7a:2b:16:64:98:
         48:78:f5:04:50:4c:70:4f:cd:92:06:79:15:08:30:da:b8:91:
         eb:96:c5:30:9d:80:e4:bb:5f:c2:b2:db:a2:7d:21:58:a7:b1:
         f7:d3:d6:0a:51:42:2b:27:8d:77:3b:3b:c7:3d:2f:0d:27:14:
         bc:18:81:42:7d:03:e6:41:8b:11:31:6f:38:9d:3e:79:45:a7:
         3d:c4:30:48:b5:26:00:dd:92:f4:38:64:ef:ad:14:71:71:f1:
         24:86:3d:a7:0f:3e:ca:a2:9b:8f:9f:73:eb:e4:a1:c0:9e:81:
         95:3f:fd:e5:87:05:6b:a8:92:19:8a:86:5f:71:4c:c9:0c:17:
         f1:74:14:8d:24:36:31:00:00:d8:1f:bf:f7:66:f0:b7:56:b4:
         2a:00:ac:e0:ea:f8:4c:29:62:0a:17:9d:e2:b3:fd:96:38:9c:
         89:7c:08:55:d3:16:57:9b:30:06:e2:b6:e8:da:76:5f:37:9d:
         8c:5b:13:33:5b:1e:9a:0d:a9:bf:cb:ec:4a:94:7c:fb:a7:db:
         57:bb:bf:9f:3a:1c:a7:97:0e:cd:5f:f4:90:d9:05:1a:1e:92:
         90:da:1e:13:bd:ca:d8:51:dd:a4:30:a6:02:84:83:7d:ee:d4:
         3c:58:38:7c:f3:1f:9e:9a:88:73:af:f6:95:75:c9:d7:d7:a8:
         34:98:1c:7a:e9:a7:4c:d5:84:0b:d4:f7:5d:a0:a3:2c:67:31:
         f4:91:2a:1e:7d:c5:59:cd:c2:34:75:61:74:a8:73:02:d1:54:
         74:21:d5:8e:9a:62:d7:24
-----BEGIN CERTIFICATE-----
MIIGrTCCBJWgAwIBAgICEygwDQYJKoZIhvcNAQEEBQAwgawxCzAJBgNVBAYTAlVT
MQswCQYDVQQIEwJPSDERMA8GA1UEBxMIQ29sdW1idXMxEjAQBgNVBAoTCVZpa2lu
Z1ZQTjEdMBsGA1UECxMUTXlPcmdhbml6YXRpb25hbFVuaXQxFTATBgNVBAMTDFZp
a2luZ1ZQTiBDQTEQMA4GA1UEKRMHRWFzeVJTQTEhMB8GCSqGSIb3DQEJARYSbWVA
bXlob3N0Lm15ZG9tYWluMB4XDTE1MDQwNzE4MjYxNloXDTI1MDQwNDE4MjYxNlow
HzEdMBsGA1UEAxMUQ2xpZW50MTYwMENlcnQ3Y2UyMmQwggIiMA0GCSqGSIb3DQEB
AQUAA4ICDwAwggIKAoICAQDRs9RVH6ws6+guJCAbSpknSstCMDJU3gUicLavvyQk
8n4RlGG7Oa8lTGDL/o3UfZWhKIAjsc0AJhUS6NGN8vQx9aoe8nrD6fvrvIkzP5MU
f+a9eNLFliKyQKh5AqouxjIHJ86UplbcTEzvIs1HZ7hGpbYIePTDW/+zhK54d+Jv
p4EuF2SmykyerYOcP8XtkghJB/CxtVwG0KFwfg7cGqtednE0DrRpwPsD120cS3gw
jbVczEZ6gCdEMi20zLs76ACScyYoH+iIXyAMECMU/8KYjsQjXQqzYCZo8SqKjwyv
AClywjRcz7mrVEAvrHotsFI9LLjmvwYHfS0eM1fgoQdBVCHKhaVjP5rbbK+RPTU/
Ox1ZmpNslRbFdhgfqosOFrQgxFiqt7lKjOO7kzvjtciSRgyrsgZxhNPzecd3GDGn
me4H5L53emdqjjp35RkkeqbKOScEFVdEMTg/SwklN4mx1HKXCT775wkURFRqnigD
Hxa3xxYhjO2HrpehRojC4UVpXfKjLwPSILWBT77FChrsCNvyThYXxr9F93Kkgxas
NUKPEhgeUoHfH/1RgCQHBiEHugSHJAj4EUiDV+v9vA9veBN6QsejI95AFDC40MSU
BkdKIena276pxrmWSkdDkhjHI11hcVXWEB6KJYIS1yNNtZY6ZyBqXsMAJBVmNB9F
NwIDAQABo4IBYzCCAV8wCQYDVR0TBAIwADAtBglghkgBhvhCAQ0EIBYeRWFzeS1S
U0EgR2VuZXJhdGVkIENlcnRpZmljYXRlMB0GA1UdDgQWBBT1vS15TUb6x7dtEVq9
Pg+1ITg4uDCB4QYDVR0jBIHZMIHWgBQSzWAE0qCAnnDtxpm4eyzGUv0ZoaGBsqSB
rzCBrDELMAkGA1UEBhMCVVMxCzAJBgNVBAgTAk9IMREwDwYDVQQHEwhDb2x1bWJ1
czESMBAGA1UEChMJVmlraW5nVlBOMR0wGwYDVQQLExRNeU9yZ2FuaXphdGlvbmFs
VW5pdDEVMBMGA1UEAxMMVmlraW5nVlBOIENBMRAwDgYDVQQpEwdFYXN5UlNBMSEw
HwYJKoZIhvcNAQkBFhJtZUBteWhvc3QubXlkb21haW6CCQDPNYXugL8qPjATBgNV
HSUEDDAKBggrBgEFBQcDAjALBgNVHQ8EBAMCB4AwDQYJKoZIhvcNAQEEBQADggIB
AA3AhOnosF28RP15ZvTC3E1fDQEeIZkMiYWDoR8tp4iAjGrxx/PTvDxH3e41F8rq
FpkXHDG9frd/LD2xiEcyLwtRW64jq9j2poy7fRO132ckKBz+LlaZcZVbtw9CvCSG
UPqEre+ODTyjZFfE4POwemXpi46D3iU8JoF1e1xjdDM1YmX+ilQymOxA/2GFfidj
dLzjSCjwkGACTx/toHPTiI1CFsM0Hpfu1hAR/jE+hD2Aw5SrCQL4b88KvxIKf2zX
9TzlBya2Ce0RdqEgD7H1gshXhB16KxZkmEh49QRQTHBPzZIGeRUIMNq4keuWxTCd
gOS7X8Ky26J9IVinsffT1gpRQisnjXc7O8c9Lw0nFLwYgUJ9A+ZBixExbzidPnlF
pz3EMEi1JgDdkvQ4ZO+tFHFx8SSGPacPPsqim4+fc+vkocCegZU//eWHBWuokhmK
hl9xTMkMF/F0FI0kNjEAANgfv/dm8LdWtCoArODq+EwpYgoXneKz/ZY4nIl8CFXT
FlebMAbitujadl83nYxbEzNbHpoNqb/L7EqUfPun21e7v586HKeXDs1f9JDZBRoe
kpDaHhO9ythR3aQwpgKEg33u1DxYOHzzH56aiHOv9pV1ydfXqDSYHHrpp0zVhAvU
912goyxnMfSRKh59xVnNwjR1YXSocwLRVHQh1Y6aYtck
-----END CERTIFICATE-----
