Certificate:
    Data:
        Version: 3 (0x2)
        Serial Number: 7425 (0x1d01)
    Signature Algorithm: md5WithRSAEncryption
        Issuer: C=US, ST=OH, L=Columbus, O=VikingVPN, OU=MyOrganizationalUnit, CN=VikingVPN CA/name=EasyRSA/emailAddress=me@myhost.mydomain
        Validity
            Not Before: Mar  6 21:10:53 2016 GMT
            Not After : Mar  4 21:10:53 2026 GMT
        Subject: CN=Client1414Cert39b484
        Subject Public Key Info:
            Public Key Algorithm: rsaEncryption
                Public-Key: (4096 bit)
                Modulus:
                    00:ca:16:65:b3:64:59:da:6b:3b:1d:96:d2:b6:db:
                    3f:3f:ce:45:7d:b3:4d:f8:cc:69:a2:da:d7:04:4e:
                    51:0e:2b:00:a9:c0:b8:6f:8c:6f:fc:da:c4:0b:0a:
                    50:a2:1a:b4:43:57:e4:ad:ab:5a:92:98:c3:b8:61:
                    a5:1d:82:a0:ea:a1:34:19:ec:cc:9e:f7:99:cc:bf:
                    ae:f4:2c:7d:25:d2:90:90:8a:83:5b:1c:7f:1c:3b:
                    50:a9:8c:33:88:1c:5f:77:ee:94:71:d6:62:53:6c:
                    d8:aa:bf:5b:fb:19:57:ba:b2:3c:bf:76:ab:5c:38:
                    7c:e5:55:31:8d:66:ae:11:5c:87:de:ea:4b:d8:87:
                    84:58:b1:4b:13:62:4f:08:bd:9f:a4:2f:cc:89:e9:
                    51:31:da:27:79:b8:bc:9e:28:ed:de:b5:b7:14:c8:
                    5b:63:0e:09:3b:f9:9d:ee:e3:13:d2:fb:6e:0a:e9:
                    6a:f3:e0:dc:60:bb:2c:93:7e:99:64:93:24:bf:22:
                    ce:dd:36:21:ad:ff:44:59:4a:e4:6e:05:46:29:97:
                    80:6f:37:cb:a4:58:43:08:14:29:72:ca:67:73:ce:
                    3b:33:ce:23:c5:86:e6:d8:32:15:f3:76:ec:9e:4e:
                    d8:03:69:46:ee:dc:fb:a8:7d:35:7e:d4:f9:44:7f:
                    a7:80:53:e4:58:c7:9f:25:6d:7e:47:66:56:b4:fa:
                    d0:af:70:f6:64:24:92:ab:d6:fd:36:d4:78:ba:ba:
                    0c:e6:5c:34:03:0a:37:a1:98:14:c0:3a:f2:49:8e:
                    33:c5:ff:67:dc:67:08:62:8a:6e:5b:a2:d6:65:7c:
                    f8:42:02:73:fc:b8:cc:eb:4a:af:15:3c:65:98:43:
                    78:b8:a2:f2:ef:4b:07:19:96:79:e2:5a:fd:88:ad:
                    91:3b:27:a3:bd:68:ff:b9:02:53:1b:d5:b8:5e:2b:
                    7b:d8:12:65:e6:fe:6a:db:4d:4f:4f:dd:cd:2a:8e:
                    30:b4:72:16:0d:9d:b1:e3:b3:43:c6:94:e8:77:39:
                    4a:c9:2c:cf:20:55:ca:c6:02:e0:36:7e:05:e6:a1:
                    33:51:1c:9b:7a:32:3c:22:8b:74:cb:34:9c:97:85:
                    8b:aa:32:60:83:6e:db:91:71:21:e3:4b:d8:5c:ee:
                    e5:52:71:1c:69:08:28:63:50:8c:77:95:d4:55:5d:
                    76:ea:0f:a7:b0:cd:27:04:d8:7e:57:19:0a:c7:7c:
                    55:5d:2e:d3:d8:c7:44:50:68:ab:82:3e:fd:f3:94:
                    02:1d:6c:40:b0:fe:33:15:8e:f6:e2:2d:44:8c:5b:
                    6a:9d:cd:19:5f:a3:d0:fa:48:b2:9f:47:bd:70:8f:
                    9d:88:fd
                Exponent: 65537 (0x10001)
        X509v3 extensions:
            X509v3 Basic Constraints: 
                CA:FALSE
            Netscape Comment: 
                Easy-RSA Generated Certificate
            X509v3 Subject Key Identifier: 
                25:1E:04:D2:34:F1:B5:90:71:E6:1F:17:29:B5:40:C1:14:D3:96:52
            X509v3 Authority Key Identifier: 
                keyid:12:CD:60:04:D2:A0:80:9E:70:ED:C6:99:B8:7B:2C:C6:52:FD:19:A1
                DirName:/C=US/ST=OH/L=Columbus/O=VikingVPN/OU=MyOrganizationalUnit/CN=VikingVPN CA/name=EasyRSA/emailAddress=me@myhost.mydomain
                serial:CF:35:85:EE:80:BF:2A:3E

            X509v3 Extended Key Usage: 
                TLS Web Client Authentication
            X509v3 Key Usage: 
                Digital Signature
    Signature Algorithm: md5WithRSAEncryption
         da:1f:79:01:af:00:27:4c:80:41:50:65:d7:37:5d:3e:42:8d:
         d5:57:47:55:bb:8d:26:d0:32:a8:d7:a4:ee:e0:67:c5:59:ef:
         e2:e2:98:23:4f:9b:51:7d:da:5f:c6:8d:f4:8c:70:22:21:3f:
         21:c7:23:ba:43:03:9b:64:9c:10:c4:e0:97:46:aa:79:c6:fc:
         61:8f:bd:31:60:8a:2e:7b:d5:22:99:b2:6b:29:80:55:70:66:
         bc:ab:71:9d:c5:96:7e:51:5e:8e:fd:f5:d1:cb:c7:75:5c:27:
         9c:f3:a6:0a:37:ae:1e:fe:d4:19:b7:80:d9:d2:68:22:4b:d8:
         2b:99:5f:b1:50:5a:cd:e8:43:e6:e8:4a:fd:79:61:19:d2:36:
         70:12:d1:17:f7:f6:ff:c8:82:63:9b:3f:d8:18:05:26:9f:0c:
         5e:d5:93:03:8e:fa:19:81:8c:83:c3:85:bd:fc:e7:d1:a7:77:
         08:00:c0:ba:6b:07:59:8e:d2:1b:d7:57:50:a9:5e:ba:ab:94:
         ab:66:9a:da:02:13:f5:a7:1a:18:b0:b4:13:9b:d2:87:aa:42:
         dd:dd:29:f3:db:d9:e8:92:72:f7:2c:4a:c3:d0:33:16:d6:14:
         1d:7d:61:e4:84:5d:25:96:54:5d:3d:88:d2:56:3d:5d:1f:31:
         29:ee:8f:c5:bd:28:aa:dd:00:1b:c8:00:32:1b:4b:56:0d:46:
         ad:78:45:6f:6b:b3:6b:8e:b6:2d:68:dd:9a:b1:8c:ce:3a:de:
         6c:f4:49:90:13:5c:02:78:57:01:73:8b:f8:57:7e:b2:cd:cf:
         89:9c:41:2f:9d:3b:1d:a6:25:65:03:50:f4:7b:62:bc:65:b6:
         a8:e9:8c:8d:2d:93:42:61:fd:6e:e5:f6:d4:f7:45:8f:e3:e3:
         96:9e:a4:2a:fa:97:55:2a:aa:9e:82:8c:79:ed:65:4f:21:a9:
         5f:f7:95:a1:c3:ef:56:bb:6b:d3:86:d5:9c:cc:ac:91:c8:5f:
         ad:60:48:c0:93:dd:14:eb:e3:fb:f3:1a:75:fb:bb:2f:8e:2a:
         e4:49:a3:11:45:dc:68:b0:15:4e:d7:59:50:92:f7:13:bc:d4:
         4a:fc:3a:fd:93:ed:61:0f:5c:8d:fa:7b:1b:2d:e6:e1:4b:37:
         ac:29:33:50:0f:36:9b:47:69:2d:25:20:64:5b:84:28:6e:98:
         5b:43:17:77:9d:46:eb:af:cd:ad:cc:ab:f9:d0:b3:c7:4e:3e:
         67:1e:0a:b0:7e:d4:5a:80:d1:f4:1a:5a:9f:00:64:fe:b5:fb:
         0b:cf:77:45:f1:b8:05:17:1f:42:e9:bd:3a:3b:e6:04:11:19:
         c3:16:65:64:95:ea:db:c7
-----BEGIN CERTIFICATE-----
MIIGrTCCBJWgAwIBAgICHQEwDQYJKoZIhvcNAQEEBQAwgawxCzAJBgNVBAYTAlVT
MQswCQYDVQQIEwJPSDERMA8GA1UEBxMIQ29sdW1idXMxEjAQBgNVBAoTCVZpa2lu
Z1ZQTjEdMBsGA1UECxMUTXlPcmdhbml6YXRpb25hbFVuaXQxFTATBgNVBAMTDFZp
a2luZ1ZQTiBDQTEQMA4GA1UEKRMHRWFzeVJTQTEhMB8GCSqGSIb3DQEJARYSbWVA
bXlob3N0Lm15ZG9tYWluMB4XDTE2MDMwNjIxMTA1M1oXDTI2MDMwNDIxMTA1M1ow
HzEdMBsGA1UEAxMUQ2xpZW50MTQxNENlcnQzOWI0ODQwggIiMA0GCSqGSIb3DQEB
AQUAA4ICDwAwggIKAoICAQDKFmWzZFnaazsdltK22z8/zkV9s034zGmi2tcETlEO
KwCpwLhvjG/82sQLClCiGrRDV+Stq1qSmMO4YaUdgqDqoTQZ7Mye95nMv670LH0l
0pCQioNbHH8cO1CpjDOIHF937pRx1mJTbNiqv1v7GVe6sjy/dqtcOHzlVTGNZq4R
XIfe6kvYh4RYsUsTYk8IvZ+kL8yJ6VEx2id5uLyeKO3etbcUyFtjDgk7+Z3u4xPS
+24K6Wrz4NxguyyTfplkkyS/Is7dNiGt/0RZSuRuBUYpl4BvN8ukWEMIFClyymdz
zjszziPFhubYMhXzduyeTtgDaUbu3PuofTV+1PlEf6eAU+RYx58lbX5HZla0+tCv
cPZkJJKr1v021Hi6ugzmXDQDCjehmBTAOvJJjjPF/2fcZwhiim5botZlfPhCAnP8
uMzrSq8VPGWYQ3i4ovLvSwcZlnniWv2IrZE7J6O9aP+5AlMb1bheK3vYEmXm/mrb
TU9P3c0qjjC0chYNnbHjs0PGlOh3OUrJLM8gVcrGAuA2fgXmoTNRHJt6Mjwii3TL
NJyXhYuqMmCDbtuRcSHjS9hc7uVScRxpCChjUIx3ldRVXXbqD6ewzScE2H5XGQrH
fFVdLtPYx0RQaKuCPv3zlAIdbECw/jMVjvbiLUSMW2qdzRlfo9D6SLKfR71wj52I
/QIDAQABo4IBYzCCAV8wCQYDVR0TBAIwADAtBglghkgBhvhCAQ0EIBYeRWFzeS1S
U0EgR2VuZXJhdGVkIENlcnRpZmljYXRlMB0GA1UdDgQWBBQlHgTSNPG1kHHmHxcp
tUDBFNOWUjCB4QYDVR0jBIHZMIHWgBQSzWAE0qCAnnDtxpm4eyzGUv0ZoaGBsqSB
rzCBrDELMAkGA1UEBhMCVVMxCzAJBgNVBAgTAk9IMREwDwYDVQQHEwhDb2x1bWJ1
czESMBAGA1UEChMJVmlraW5nVlBOMR0wGwYDVQQLExRNeU9yZ2FuaXphdGlvbmFs
VW5pdDEVMBMGA1UEAxMMVmlraW5nVlBOIENBMRAwDgYDVQQpEwdFYXN5UlNBMSEw
HwYJKoZIhvcNAQkBFhJtZUBteWhvc3QubXlkb21haW6CCQDPNYXugL8qPjATBgNV
HSUEDDAKBggrBgEFBQcDAjALBgNVHQ8EBAMCB4AwDQYJKoZIhvcNAQEEBQADggIB
ANofeQGvACdMgEFQZdc3XT5CjdVXR1W7jSbQMqjXpO7gZ8VZ7+LimCNPm1F92l/G
jfSMcCIhPyHHI7pDA5tknBDE4JdGqnnG/GGPvTFgii571SKZsmspgFVwZryrcZ3F
ln5RXo799dHLx3VcJ5zzpgo3rh7+1Bm3gNnSaCJL2CuZX7FQWs3oQ+boSv15YRnS
NnAS0Rf39v/IgmObP9gYBSafDF7VkwOO+hmBjIPDhb3859GndwgAwLprB1mO0hvX
V1CpXrqrlKtmmtoCE/WnGhiwtBOb0oeqQt3dKfPb2eiScvcsSsPQMxbWFB19YeSE
XSWWVF09iNJWPV0fMSnuj8W9KKrdABvIADIbS1YNRq14RW9rs2uOti1o3ZqxjM46
3mz0SZATXAJ4VwFzi/hXfrLNz4mcQS+dOx2mJWUDUPR7YrxltqjpjI0tk0Jh/W7l
9tT3RY/j45aepCr6l1Uqqp6CjHntZU8hqV/3laHD71a7a9OG1ZzMrJHIX61gSMCT
3RTr4/vzGnX7uy+OKuRJoxFF3GiwFU7XWVCS9xO81Er8Ov2T7WEPXI36exst5uFL
N6wpM1APNptHaS0lIGRbhChumFtDF3edRuuvza3Mq/nQs8dOPmceCrB+1FqA0fQa
Wp8AZP61+wvPd0XxuAUXH0LpvTo75gQRGcMWZWSV6tvH
-----END CERTIFICATE-----
