Certificate:
    Data:
        Version: 3 (0x2)
        Serial Number: 8137 (0x1fc9)
    Signature Algorithm: md5WithRSAEncryption
        Issuer: C=US, ST=OH, L=Columbus, O=VikingVPN, OU=MyOrganizationalUnit, CN=VikingVPN CA/name=EasyRSA/emailAddress=me@myhost.mydomain
        Validity
            Not Before: Jun  3 12:56:43 2016 GMT
            Not After : Jun  1 12:56:43 2026 GMT
        Subject: CN=Client2362Cert31ce11
        Subject Public Key Info:
            Public Key Algorithm: rsaEncryption
                Public-Key: (4096 bit)
                Modulus:
                    00:b2:31:97:c6:b4:17:4a:05:71:c8:29:bf:17:2e:
                    0f:fb:97:82:66:96:51:84:6d:e3:71:bf:4f:a9:fc:
                    d0:3b:ba:41:8f:68:19:0a:38:04:89:94:ad:f7:6a:
                    1d:7c:fe:c2:27:1e:57:75:32:c6:c0:c3:4e:5e:f9:
                    37:bd:3d:e2:5c:50:b9:aa:68:c8:1a:28:f8:34:18:
                    13:35:89:73:c4:12:e9:c1:d9:05:74:04:0f:6e:52:
                    bc:52:7a:09:54:9d:dd:54:09:60:78:2e:ee:6f:cc:
                    e1:c1:85:c8:d9:07:97:7c:1e:61:19:b4:7b:0e:7e:
                    c6:75:a8:1b:a8:db:c7:e3:14:3c:9b:22:d8:27:f2:
                    ef:80:17:6c:a5:ba:5d:38:b3:f1:db:b5:b5:de:be:
                    5c:f6:74:06:2a:bf:af:0e:3e:69:af:82:c5:c3:2d:
                    a5:75:27:9b:5b:db:e8:83:01:cc:f6:1c:11:33:c1:
                    9c:85:eb:2a:4e:63:f7:87:66:4c:4b:df:6a:0f:24:
                    11:ab:f2:55:c4:52:a0:07:46:4f:90:df:30:c7:39:
                    08:72:19:52:b5:1f:82:73:57:89:19:14:3a:91:ab:
                    61:5f:10:5f:12:e1:d4:af:c0:dc:ed:c4:4d:82:1b:
                    58:34:44:98:92:5a:a0:ea:ea:76:d7:69:d8:c6:cb:
                    4d:a9:0e:de:6e:f5:52:46:93:fc:27:38:b7:91:9a:
                    7b:e1:6d:a4:23:3c:3b:a1:cf:0c:a8:e8:d7:67:56:
                    87:79:c8:93:86:46:a8:98:10:e9:dc:74:ba:c4:be:
                    fa:d9:08:55:75:6b:8b:7d:03:0a:a3:ab:a4:07:7e:
                    ee:5f:4c:37:d8:b0:82:9f:01:65:4f:9f:e7:fd:29:
                    c3:21:41:aa:76:08:ca:85:b7:5d:b6:b6:b9:80:fc:
                    0d:d1:85:d1:ee:98:ab:3e:ef:ef:c8:5c:1d:37:b4:
                    2e:f9:57:d2:19:6d:b2:bc:1e:f3:cd:08:12:31:42:
                    24:f8:c0:bb:af:7e:3d:3f:0e:ac:5d:c2:77:a0:14:
                    89:e3:5d:f6:ad:16:19:cc:09:88:b2:f2:8a:ab:a4:
                    86:82:44:23:08:50:d5:f3:51:24:27:63:27:1e:5b:
                    1e:49:1a:70:65:cc:e4:b6:fa:1b:d2:6b:fa:89:ac:
                    f4:e2:58:65:28:b0:81:09:8a:45:a4:d7:85:b9:f2:
                    f7:01:5d:aa:5b:c0:9a:fd:7c:a6:fd:92:9d:7d:6a:
                    7b:ef:1b:47:9c:08:46:ae:58:c9:33:c7:0e:d0:78:
                    d8:92:bd:03:69:bc:2a:b9:8e:94:32:5f:4d:14:d2:
                    35:6e:e2:5f:f5:5f:2f:bf:e4:c5:f3:09:8c:28:12:
                    c8:ba:21
                Exponent: 65537 (0x10001)
        X509v3 extensions:
            X509v3 Basic Constraints: 
                CA:FALSE
            Netscape Comment: 
                Easy-RSA Generated Certificate
            X509v3 Subject Key Identifier: 
                F7:47:7E:48:0C:C3:D0:3B:D9:5B:5E:9E:84:24:B3:82:27:01:5F:B7
            X509v3 Authority Key Identifier: 
                keyid:12:CD:60:04:D2:A0:80:9E:70:ED:C6:99:B8:7B:2C:C6:52:FD:19:A1
                DirName:/C=US/ST=OH/L=Columbus/O=VikingVPN/OU=MyOrganizationalUnit/CN=VikingVPN CA/name=EasyRSA/emailAddress=me@myhost.mydomain
                serial:CF:35:85:EE:80:BF:2A:3E

            X509v3 Extended Key Usage: 
                TLS Web Client Authentication
            X509v3 Key Usage: 
                Digital Signature
    Signature Algorithm: md5WithRSAEncryption
         45:d6:fc:d8:50:f8:c5:af:4a:50:d1:5a:c0:1d:86:22:ac:16:
         6e:f2:b2:05:84:f8:68:1c:2b:86:36:d6:0e:77:2d:ba:ed:d5:
         f4:c6:14:67:19:94:b0:ea:fe:f2:09:83:7c:ef:df:a4:d7:21:
         63:07:f0:ca:0c:a7:18:a6:e0:88:50:36:3c:70:41:1f:9d:2d:
         ff:f5:c5:57:f6:a5:0d:bc:fb:44:b0:36:06:ce:ac:37:9e:fb:
         6e:5d:b6:a1:be:46:7e:9e:5f:8f:61:14:4f:c6:2d:22:19:c0:
         dc:90:97:5b:3c:3e:c4:8b:86:d9:7d:7b:8e:63:fb:2f:76:ee:
         e8:9c:4d:5a:12:72:ad:40:7a:bb:c9:9c:90:85:fa:65:f0:2a:
         1d:54:27:fd:57:05:5b:48:d6:95:c3:9e:cd:81:2c:7c:7d:cd:
         08:3f:22:ae:70:2a:87:7a:1a:dc:bc:08:35:17:d7:53:04:0f:
         67:1f:98:8a:6b:00:8d:ef:10:d6:c4:a6:6e:63:bb:bf:6e:a2:
         ba:9d:de:d8:99:ed:d9:b3:64:f9:b6:5f:61:d8:3c:df:84:09:
         aa:72:12:e8:48:f7:e7:1d:ad:71:e8:cd:4f:b7:58:49:40:e0:
         07:35:c7:63:dd:bd:57:aa:a7:f9:c6:f1:e5:cc:1b:ac:52:2d:
         b1:f6:28:18:71:7c:47:d0:70:33:83:c9:73:34:d5:64:3c:4d:
         db:8e:f4:5d:68:57:05:cc:ab:5a:82:21:10:57:00:00:91:e8:
         dd:15:ed:60:aa:1c:4e:be:43:87:81:ac:92:59:91:c9:48:a4:
         fe:61:6e:70:91:1e:6a:7d:4e:2e:3a:12:c0:94:77:30:2d:ae:
         e0:b8:e5:a6:bf:ae:bc:21:e4:12:19:5d:8d:93:75:f0:af:55:
         7b:c3:b1:8c:21:ad:d0:f2:9f:37:35:2a:26:16:bc:14:f5:57:
         6b:96:22:fc:d8:4b:a4:ee:c3:ce:4a:0f:e0:ae:1e:1a:55:60:
         31:fe:86:73:71:da:b2:cb:ef:fb:05:c2:56:85:4c:b3:c8:84:
         87:e1:00:f7:20:cc:c5:c0:12:3a:ec:c1:31:45:8e:9d:64:ee:
         85:bc:d4:2f:26:ac:f6:2b:2b:f2:e2:a8:fd:a7:fc:1e:cf:8a:
         e0:b5:ae:0a:f6:02:38:bf:ed:4b:b1:b3:e8:1e:04:2d:31:bf:
         cc:6d:c8:6a:16:5e:7e:dd:08:55:a8:ae:42:f8:20:a9:ae:22:
         3f:35:55:04:c4:24:e6:d5:b2:39:c3:db:96:a6:a8:9a:a4:35:
         8e:12:78:07:d0:87:4b:82:6c:56:0c:c5:60:5f:f8:bc:eb:a2:
         8e:38:1f:53:53:1d:48:29
-----BEGIN CERTIFICATE-----
MIIGrTCCBJWgAwIBAgICH8kwDQYJKoZIhvcNAQEEBQAwgawxCzAJBgNVBAYTAlVT
MQswCQYDVQQIEwJPSDERMA8GA1UEBxMIQ29sdW1idXMxEjAQBgNVBAoTCVZpa2lu
Z1ZQTjEdMBsGA1UECxMUTXlPcmdhbml6YXRpb25hbFVuaXQxFTATBgNVBAMTDFZp
a2luZ1ZQTiBDQTEQMA4GA1UEKRMHRWFzeVJTQTEhMB8GCSqGSIb3DQEJARYSbWVA
bXlob3N0Lm15ZG9tYWluMB4XDTE2MDYwMzEyNTY0M1oXDTI2MDYwMTEyNTY0M1ow
HzEdMBsGA1UEAxMUQ2xpZW50MjM2MkNlcnQzMWNlMTEwggIiMA0GCSqGSIb3DQEB
AQUAA4ICDwAwggIKAoICAQCyMZfGtBdKBXHIKb8XLg/7l4JmllGEbeNxv0+p/NA7
ukGPaBkKOASJlK33ah18/sInHld1MsbAw05e+Te9PeJcULmqaMgaKPg0GBM1iXPE
EunB2QV0BA9uUrxSeglUnd1UCWB4Lu5vzOHBhcjZB5d8HmEZtHsOfsZ1qBuo28fj
FDybItgn8u+AF2ylul04s/HbtbXevlz2dAYqv68OPmmvgsXDLaV1J5tb2+iDAcz2
HBEzwZyF6ypOY/eHZkxL32oPJBGr8lXEUqAHRk+Q3zDHOQhyGVK1H4JzV4kZFDqR
q2FfEF8S4dSvwNztxE2CG1g0RJiSWqDq6nbXadjGy02pDt5u9VJGk/wnOLeRmnvh
baQjPDuhzwyo6NdnVod5yJOGRqiYEOncdLrEvvrZCFV1a4t9Awqjq6QHfu5fTDfY
sIKfAWVPn+f9KcMhQap2CMqFt122trmA/A3RhdHumKs+7+/IXB03tC75V9IZbbK8
HvPNCBIxQiT4wLuvfj0/DqxdwnegFInjXfatFhnMCYiy8oqrpIaCRCMIUNXzUSQn
YyceWx5JGnBlzOS2+hvSa/qJrPTiWGUosIEJikWk14W58vcBXapbwJr9fKb9kp19
anvvG0ecCEauWMkzxw7QeNiSvQNpvCq5jpQyX00U0jVu4l/1Xy+/5MXzCYwoEsi6
IQIDAQABo4IBYzCCAV8wCQYDVR0TBAIwADAtBglghkgBhvhCAQ0EIBYeRWFzeS1S
U0EgR2VuZXJhdGVkIENlcnRpZmljYXRlMB0GA1UdDgQWBBT3R35IDMPQO9lbXp6E
JLOCJwFftzCB4QYDVR0jBIHZMIHWgBQSzWAE0qCAnnDtxpm4eyzGUv0ZoaGBsqSB
rzCBrDELMAkGA1UEBhMCVVMxCzAJBgNVBAgTAk9IMREwDwYDVQQHEwhDb2x1bWJ1
czESMBAGA1UEChMJVmlraW5nVlBOMR0wGwYDVQQLExRNeU9yZ2FuaXphdGlvbmFs
VW5pdDEVMBMGA1UEAxMMVmlraW5nVlBOIENBMRAwDgYDVQQpEwdFYXN5UlNBMSEw
HwYJKoZIhvcNAQkBFhJtZUBteWhvc3QubXlkb21haW6CCQDPNYXugL8qPjATBgNV
HSUEDDAKBggrBgEFBQcDAjALBgNVHQ8EBAMCB4AwDQYJKoZIhvcNAQEEBQADggIB
AEXW/NhQ+MWvSlDRWsAdhiKsFm7ysgWE+GgcK4Y21g53Lbrt1fTGFGcZlLDq/vIJ
g3zv36TXIWMH8MoMpxim4IhQNjxwQR+dLf/1xVf2pQ28+0SwNgbOrDee+25dtqG+
Rn6eX49hFE/GLSIZwNyQl1s8PsSLhtl9e45j+y927uicTVoScq1AervJnJCF+mXw
Kh1UJ/1XBVtI1pXDns2BLHx9zQg/Iq5wKod6Gty8CDUX11MED2cfmIprAI3vENbE
pm5ju79uorqd3tiZ7dmzZPm2X2HYPN+ECapyEuhI9+cdrXHozU+3WElA4Ac1x2Pd
vVeqp/nG8eXMG6xSLbH2KBhxfEfQcDODyXM01WQ8TduO9F1oVwXMq1qCIRBXAACR
6N0V7WCqHE6+Q4eBrJJZkclIpP5hbnCRHmp9Ti46EsCUdzAtruC45aa/rrwh5BIZ
XY2TdfCvVXvDsYwhrdDynzc1KiYWvBT1V2uWIvzYS6Tuw85KD+CuHhpVYDH+hnNx
2rLL7/sFwlaFTLPIhIfhAPcgzMXAEjrswTFFjp1k7oW81C8mrPYrK/LiqP2n/B7P
iuC1rgr2Aji/7Uuxs+geBC0xv8xtyGoWXn7dCFWorkL4IKmuIj81VQTEJObVsjnD
25amqJqkNY4SeAfQh0uCbFYMxWBf+Lzroo44H1NTHUgp
-----END CERTIFICATE-----
