Certificate:
    Data:
        Version: 3 (0x2)
        Serial Number: 4657 (0x1231)
    Signature Algorithm: md5WithRSAEncryption
        Issuer: C=US, ST=OH, L=Columbus, O=VikingVPN, OU=MyOrganizationalUnit, CN=VikingVPN CA/name=EasyRSA/emailAddress=me@myhost.mydomain
        Validity
            Not Before: Mar  5 02:35:03 2015 GMT
            Not After : Mar  2 02:35:03 2025 GMT
        Subject: CN=Client1519Cert0e2aa0
        Subject Public Key Info:
            Public Key Algorithm: rsaEncryption
                Public-Key: (4096 bit)
                Modulus:
                    00:af:8c:74:23:92:88:d9:27:df:f2:69:2d:01:5f:
                    65:a7:02:66:23:13:31:8d:55:b0:ce:69:c3:25:53:
                    4b:ee:a2:65:10:e1:eb:40:4e:95:fe:2f:51:f6:19:
                    56:d3:9a:11:cf:a0:ef:aa:62:78:47:89:d9:4c:a4:
                    90:e1:9f:8c:44:c1:4e:40:c7:ca:fc:94:d4:c0:a2:
                    c9:76:0c:4f:ce:d0:43:d7:0f:29:c6:60:5b:f2:0d:
                    a2:84:48:d7:7a:d8:2f:70:fa:c3:30:1b:dc:75:2c:
                    46:8a:b1:1a:fb:29:c1:01:72:3e:d2:c2:4b:01:f2:
                    c4:43:4b:92:b5:1f:2a:bb:69:7b:70:73:9a:40:1c:
                    41:0e:49:35:5f:0b:dc:41:79:70:47:3e:62:35:12:
                    f1:2e:18:f1:ed:95:b2:1c:79:f0:61:ba:fd:e0:64:
                    88:86:1b:90:3d:3d:52:53:e9:cf:aa:88:a4:ef:7d:
                    7a:fe:90:87:c5:03:e1:7d:46:46:97:6d:30:aa:34:
                    29:93:4b:f3:c4:ec:4b:8c:d4:98:66:3d:87:c7:60:
                    50:cb:69:0e:61:93:81:5d:1a:ce:a5:dc:dd:fb:f2:
                    c4:7a:03:b0:4d:18:76:97:ad:c7:52:2c:25:64:10:
                    47:77:fc:71:f0:4f:77:f0:57:e1:68:01:93:d1:6c:
                    05:14:69:d1:8d:c0:b5:4b:e4:75:44:f5:1c:57:c1:
                    08:6a:9c:ab:34:07:75:77:6c:c6:69:4a:f2:a8:42:
                    e6:49:5e:7c:c4:04:58:7c:05:f2:71:5b:5e:22:8f:
                    d8:31:2a:17:34:6b:fc:1d:3a:82:83:46:73:0a:f5:
                    2b:40:29:62:8a:cb:6e:6b:0b:d2:57:cc:da:a0:61:
                    f9:d6:33:e8:03:03:32:d5:e7:44:fe:e9:c2:49:09:
                    2e:ba:b9:90:b9:9a:c3:b1:26:3d:2f:33:b0:6d:af:
                    4c:69:6b:5b:b6:8f:6f:2d:13:7f:24:52:0b:eb:7d:
                    e1:ce:bd:75:ad:24:b0:bb:56:d2:09:63:bc:48:34:
                    8f:8f:96:49:32:ba:8f:86:35:84:82:f5:ee:4a:f7:
                    b0:e9:f7:ba:57:05:68:6d:49:49:99:ef:cc:1d:8e:
                    e6:d0:b8:eb:3d:39:56:53:3a:9b:fc:b0:b5:43:db:
                    8e:24:21:13:ae:a1:27:56:6a:22:ae:25:99:ff:1a:
                    bf:5e:d6:21:78:84:bf:40:69:89:b6:99:ae:cd:7a:
                    61:0a:8d:a0:16:4b:b6:1a:76:6d:47:be:ba:5c:f4:
                    93:e6:07:84:47:90:4d:d0:b3:6a:88:aa:39:d8:ca:
                    eb:d5:ae:66:50:2a:52:58:6a:46:c0:2e:71:af:03:
                    97:2b:8b
                Exponent: 65537 (0x10001)
        X509v3 extensions:
            X509v3 Basic Constraints: 
                CA:FALSE
            Netscape Comment: 
                Easy-RSA Generated Certificate
            X509v3 Subject Key Identifier: 
                81:CE:CB:60:A7:68:AB:A2:21:F1:94:45:01:A7:5B:65:4C:CB:8D:AB
            X509v3 Authority Key Identifier: 
                keyid:12:CD:60:04:D2:A0:80:9E:70:ED:C6:99:B8:7B:2C:C6:52:FD:19:A1
                DirName:/C=US/ST=OH/L=Columbus/O=VikingVPN/OU=MyOrganizationalUnit/CN=VikingVPN CA/name=EasyRSA/emailAddress=me@myhost.mydomain
                serial:CF:35:85:EE:80:BF:2A:3E

            X509v3 Extended Key Usage: 
                TLS Web Client Authentication
            X509v3 Key Usage: 
                Digital Signature
    Signature Algorithm: md5WithRSAEncryption
         0c:0b:c4:be:93:f6:9f:9a:8b:ab:28:83:e2:42:13:6e:85:7e:
         70:a8:51:8a:35:21:fa:f6:70:06:57:6e:64:cc:8f:92:3b:03:
         9b:47:1d:1e:8e:21:19:02:43:43:9e:82:94:c4:e0:6a:97:ac:
         5e:b5:dd:89:9e:69:4c:1d:8c:46:79:26:89:87:b8:74:c1:ce:
         b6:ad:a2:2a:0e:cb:5e:f4:36:cc:3f:6c:8a:0f:2c:0a:04:8e:
         43:b9:e4:20:29:4c:58:d8:62:18:4c:c2:5c:ba:ae:37:0d:44:
         c0:5b:bc:a1:c0:62:75:ed:e3:b7:a1:39:7a:d5:b2:a8:d2:bc:
         5b:e3:9b:b2:d8:f4:a5:0e:e0:dc:4e:fe:76:1f:43:93:75:bd:
         aa:2e:78:40:f2:21:fd:f2:27:ff:4b:c7:df:4a:23:10:5f:3c:
         f8:eb:77:67:92:50:31:d6:ed:85:6d:ff:e8:8c:f1:0f:59:ba:
         43:c4:73:27:82:9c:d3:d5:b1:b5:1d:a3:3e:bd:68:ab:9e:31:
         df:3e:ce:04:66:9d:bc:15:1a:af:51:54:8b:87:06:d4:d7:3d:
         ee:f1:9a:b7:61:7d:35:0c:20:f8:b5:bd:da:00:06:f7:17:49:
         fa:6b:cb:2f:82:4b:06:8a:97:64:db:10:9e:6d:e1:cd:a6:dc:
         ea:0f:eb:69:bb:c8:1b:d2:e7:11:19:e8:fe:dc:53:83:b3:15:
         10:22:d4:79:87:88:9c:c8:88:50:fc:20:f0:2f:12:d9:5c:b4:
         78:db:aa:2c:06:1d:d5:1b:b6:c7:8d:54:24:93:a8:7d:5c:42:
         bf:8a:38:9a:14:79:87:83:fb:7c:c1:d4:f1:f5:7f:d5:74:88:
         ad:48:c5:d2:2b:1e:99:e0:1b:ad:fe:74:18:fb:a9:61:63:c2:
         f4:07:78:d3:c2:fd:a7:73:cb:8a:4f:72:7b:a1:e1:59:5b:0e:
         c5:29:e6:11:8b:d6:8b:02:a6:37:1c:f4:52:5e:0c:68:10:f9:
         94:b3:a8:f4:8e:d5:10:aa:40:64:c0:b7:06:1b:e7:f2:c6:3f:
         c3:37:71:7f:53:4f:0e:db:56:9e:43:a6:03:3f:5c:ba:b7:9d:
         81:13:7f:99:f0:21:74:09:d8:0c:09:82:82:ed:16:a0:51:78:
         e3:1a:54:17:dc:11:8a:05:7d:60:e5:69:fc:20:0a:43:41:ef:
         f7:18:8d:e0:b9:a7:19:1e:e8:70:f4:c3:bf:5b:4b:a8:22:bf:
         45:cf:df:2f:55:71:6f:4f:13:49:44:98:24:75:64:f5:81:95:
         8e:02:d2:38:46:f7:c0:d7:17:d3:fd:bd:a8:96:ba:08:1f:da:
         ef:33:e3:4b:17:9b:b7:27
-----BEGIN CERTIFICATE-----
MIIGrTCCBJWgAwIBAgICEjEwDQYJKoZIhvcNAQEEBQAwgawxCzAJBgNVBAYTAlVT
MQswCQYDVQQIEwJPSDERMA8GA1UEBxMIQ29sdW1idXMxEjAQBgNVBAoTCVZpa2lu
Z1ZQTjEdMBsGA1UECxMUTXlPcmdhbml6YXRpb25hbFVuaXQxFTATBgNVBAMTDFZp
a2luZ1ZQTiBDQTEQMA4GA1UEKRMHRWFzeVJTQTEhMB8GCSqGSIb3DQEJARYSbWVA
bXlob3N0Lm15ZG9tYWluMB4XDTE1MDMwNTAyMzUwM1oXDTI1MDMwMjAyMzUwM1ow
HzEdMBsGA1UEAxMUQ2xpZW50MTUxOUNlcnQwZTJhYTAwggIiMA0GCSqGSIb3DQEB
AQUAA4ICDwAwggIKAoICAQCvjHQjkojZJ9/yaS0BX2WnAmYjEzGNVbDOacMlU0vu
omUQ4etATpX+L1H2GVbTmhHPoO+qYnhHidlMpJDhn4xEwU5Ax8r8lNTAosl2DE/O
0EPXDynGYFvyDaKESNd62C9w+sMwG9x1LEaKsRr7KcEBcj7SwksB8sRDS5K1Hyq7
aXtwc5pAHEEOSTVfC9xBeXBHPmI1EvEuGPHtlbIcefBhuv3gZIiGG5A9PVJT6c+q
iKTvfXr+kIfFA+F9RkaXbTCqNCmTS/PE7EuM1JhmPYfHYFDLaQ5hk4FdGs6l3N37
8sR6A7BNGHaXrcdSLCVkEEd3/HHwT3fwV+FoAZPRbAUUadGNwLVL5HVE9RxXwQhq
nKs0B3V3bMZpSvKoQuZJXnzEBFh8BfJxW14ij9gxKhc0a/wdOoKDRnMK9StAKWKK
y25rC9JXzNqgYfnWM+gDAzLV50T+6cJJCS66uZC5msOxJj0vM7Btr0xpa1u2j28t
E38kUgvrfeHOvXWtJLC7VtIJY7xINI+Plkkyuo+GNYSC9e5K97Dp97pXBWhtSUmZ
78wdjubQuOs9OVZTOpv8sLVD244kIROuoSdWaiKuJZn/Gr9e1iF4hL9AaYm2ma7N
emEKjaAWS7Yadm1Hvrpc9JPmB4RHkE3Qs2qIqjnYyuvVrmZQKlJYakbALnGvA5cr
iwIDAQABo4IBYzCCAV8wCQYDVR0TBAIwADAtBglghkgBhvhCAQ0EIBYeRWFzeS1S
U0EgR2VuZXJhdGVkIENlcnRpZmljYXRlMB0GA1UdDgQWBBSBzstgp2iroiHxlEUB
p1tlTMuNqzCB4QYDVR0jBIHZMIHWgBQSzWAE0qCAnnDtxpm4eyzGUv0ZoaGBsqSB
rzCBrDELMAkGA1UEBhMCVVMxCzAJBgNVBAgTAk9IMREwDwYDVQQHEwhDb2x1bWJ1
czESMBAGA1UEChMJVmlraW5nVlBOMR0wGwYDVQQLExRNeU9yZ2FuaXphdGlvbmFs
VW5pdDEVMBMGA1UEAxMMVmlraW5nVlBOIENBMRAwDgYDVQQpEwdFYXN5UlNBMSEw
HwYJKoZIhvcNAQkBFhJtZUBteWhvc3QubXlkb21haW6CCQDPNYXugL8qPjATBgNV
HSUEDDAKBggrBgEFBQcDAjALBgNVHQ8EBAMCB4AwDQYJKoZIhvcNAQEEBQADggIB
AAwLxL6T9p+ai6sog+JCE26FfnCoUYo1Ifr2cAZXbmTMj5I7A5tHHR6OIRkCQ0Oe
gpTE4GqXrF613YmeaUwdjEZ5JomHuHTBzratoioOy170Nsw/bIoPLAoEjkO55CAp
TFjYYhhMwly6rjcNRMBbvKHAYnXt47ehOXrVsqjSvFvjm7LY9KUO4NxO/nYfQ5N1
vaoueEDyIf3yJ/9Lx99KIxBfPPjrd2eSUDHW7YVt/+iM8Q9ZukPEcyeCnNPVsbUd
oz69aKueMd8+zgRmnbwVGq9RVIuHBtTXPe7xmrdhfTUMIPi1vdoABvcXSfpryy+C
SwaKl2TbEJ5t4c2m3OoP62m7yBvS5xEZ6P7cU4OzFRAi1HmHiJzIiFD8IPAvEtlc
tHjbqiwGHdUbtseNVCSTqH1cQr+KOJoUeYeD+3zB1PH1f9V0iK1IxdIrHpngG63+
dBj7qWFjwvQHeNPC/adzy4pPcnuh4VlbDsUp5hGL1osCpjcc9FJeDGgQ+ZSzqPSO
1RCqQGTAtwYb5/LGP8M3cX9TTw7bVp5DpgM/XLq3nYETf5nwIXQJ2AwJgoLtFqBR
eOMaVBfcEYoFfWDlafwgCkNB7/cYjeC5pxke6HD0w79bS6giv0XP3y9VcW9PE0lE
mCR1ZPWBlY4C0jhG98DXF9P9vaiWuggf2u8z40sXm7cn
-----END CERTIFICATE-----
