Certificate:
    Data:
        Version: 3 (0x2)
        Serial Number: 4391 (0x1127)
    Signature Algorithm: md5WithRSAEncryption
        Issuer: C=US, ST=OH, L=Columbus, O=VikingVPN, OU=MyOrganizationalUnit, CN=VikingVPN CA/name=EasyRSA/emailAddress=me@myhost.mydomain
        Validity
            Not Before: Feb  6 00:20:08 2015 GMT
            Not After : Feb  3 00:20:08 2025 GMT
        Subject: CN=Client1305Cert4506e4
        Subject Public Key Info:
            Public Key Algorithm: rsaEncryption
                Public-Key: (4096 bit)
                Modulus:
                    00:ce:a3:2d:29:41:46:1c:28:14:2b:22:73:cb:1a:
                    14:78:71:5f:a6:3e:64:42:fa:34:99:0c:f8:f0:85:
                    83:67:a2:4c:94:4a:3e:ff:25:85:68:61:8d:02:1c:
                    f5:ae:a6:23:21:a0:c2:09:fb:24:e7:6c:fa:07:a5:
                    c7:80:44:6c:27:3f:89:8b:df:f9:13:8b:d1:5e:83:
                    32:7a:b1:d4:57:99:a5:28:68:8a:e5:86:38:5b:89:
                    bb:2a:af:ca:5c:ab:f3:cd:1d:ff:f9:9c:35:ed:0f:
                    78:be:f8:5a:96:16:9b:49:83:df:e3:33:8c:06:dc:
                    0a:f8:ad:ad:1a:36:f9:c8:e3:b6:de:9e:27:56:4c:
                    62:38:04:87:91:57:9d:55:48:bc:2c:1a:90:95:54:
                    21:fc:2e:db:7b:d4:a0:e1:01:d5:6e:07:b4:01:98:
                    ea:c6:d6:50:81:84:db:21:70:c1:76:1e:95:32:b3:
                    f6:d8:d1:b5:d6:c1:25:d6:40:37:4e:81:ae:bb:95:
                    ef:3f:04:9d:ce:04:cb:b2:80:a4:56:fe:96:ee:38:
                    84:95:10:9b:86:d7:5a:87:1f:72:24:69:52:7b:f1:
                    2f:4e:af:f9:00:f2:67:54:1e:63:09:cb:f0:a6:61:
                    85:49:9e:b7:8b:d4:b9:4f:af:44:ea:fc:fa:92:35:
                    78:56:40:19:51:b0:12:9a:e1:54:e3:0e:c4:b2:38:
                    01:95:c1:ba:9c:67:d3:af:65:70:57:20:0e:c8:c1:
                    5a:fb:8a:ee:d4:08:83:00:97:d1:e8:83:90:c4:3d:
                    11:e1:ef:47:31:dd:84:6a:83:8d:e4:0b:20:1e:2d:
                    e4:aa:7e:5b:11:65:42:5b:69:4a:16:dd:61:6a:b8:
                    15:26:e7:19:4e:a7:4d:5c:ca:6a:2d:e2:38:8e:5c:
                    a3:e5:3d:78:c6:34:a3:8d:38:e9:5c:2b:99:09:98:
                    d4:98:11:da:9f:a2:aa:b1:de:7a:8d:5a:79:7e:e9:
                    8a:5b:34:cc:b4:7d:d0:e6:50:de:6b:08:2b:f2:d1:
                    10:f2:59:22:26:a4:f6:28:76:ad:b6:73:4e:3d:f3:
                    67:f9:8e:d6:f5:41:c7:76:77:12:9c:a7:a2:95:a7:
                    cf:1e:0c:da:95:1b:49:64:6e:9f:fc:73:69:f3:bc:
                    10:a3:f4:bb:a4:6e:18:5c:b4:c2:12:33:92:36:1c:
                    8d:71:21:bb:e7:2a:f0:79:6b:88:b8:84:a9:78:1e:
                    f9:0b:79:0b:e4:34:ef:06:1a:d9:cc:16:6c:70:a6:
                    b9:62:e8:88:e0:2a:d2:5d:3e:23:5d:85:00:e6:22:
                    60:09:9e:4d:ae:f5:4d:0e:ef:56:f2:fc:70:fe:a7:
                    a7:49:67
                Exponent: 65537 (0x10001)
        X509v3 extensions:
            X509v3 Basic Constraints: 
                CA:FALSE
            Netscape Comment: 
                Easy-RSA Generated Certificate
            X509v3 Subject Key Identifier: 
                AB:65:63:2F:B5:10:4C:46:44:D0:24:8A:BA:C8:97:C0:13:46:99:7F
            X509v3 Authority Key Identifier: 
                keyid:12:CD:60:04:D2:A0:80:9E:70:ED:C6:99:B8:7B:2C:C6:52:FD:19:A1
                DirName:/C=US/ST=OH/L=Columbus/O=VikingVPN/OU=MyOrganizationalUnit/CN=VikingVPN CA/name=EasyRSA/emailAddress=me@myhost.mydomain
                serial:CF:35:85:EE:80:BF:2A:3E

            X509v3 Extended Key Usage: 
                TLS Web Client Authentication
            X509v3 Key Usage: 
                Digital Signature
    Signature Algorithm: md5WithRSAEncryption
         5d:65:51:e0:7b:37:aa:b7:11:fe:cd:d4:d8:fd:9c:af:f0:7b:
         76:d1:03:5f:f5:50:f5:0a:f8:c1:58:8b:4d:91:43:92:e6:e7:
         81:64:ef:2a:65:ee:8d:75:8d:30:42:f5:dd:a3:21:33:1c:5f:
         44:7e:5f:d5:06:45:90:82:ea:f7:d5:e4:36:fe:86:4b:50:64:
         77:37:b8:27:6d:25:db:ab:ca:2b:5f:f1:9f:ca:f9:5d:7a:52:
         2e:87:75:4c:1a:be:22:96:9a:18:e2:22:e5:4d:d5:57:b4:a9:
         c6:e5:a3:e3:ae:34:90:48:6d:eb:a1:76:5d:3f:7d:35:74:95:
         71:6c:f2:03:20:59:32:64:e6:2e:e8:f3:51:3a:7c:66:a2:14:
         7e:15:9b:a7:5b:e6:bc:72:94:97:c5:d8:61:45:25:a3:5c:89:
         13:14:1c:0d:79:a4:1c:3f:fd:ea:07:d8:cb:ab:17:f4:7d:e1:
         62:a6:62:77:19:04:89:4a:42:42:70:43:2c:88:13:c5:f1:85:
         e7:8f:97:37:f1:a0:0c:60:af:26:02:00:d6:c1:3b:2c:6a:f6:
         b9:1c:19:22:fd:7f:b5:e5:f8:38:6a:af:ab:87:a9:95:71:32:
         dc:96:a7:73:31:21:4c:fa:7e:bf:ac:f9:ec:88:a6:4d:cf:ef:
         bd:f9:dc:13:ce:49:78:9f:af:b7:e3:70:11:c0:24:d4:35:bf:
         c3:a9:aa:f1:b3:bc:5b:14:69:77:e6:4e:d3:88:9b:1e:bd:2a:
         47:e7:05:a3:aa:9a:10:4a:b9:bb:be:b5:96:30:4d:18:fb:7a:
         2b:0c:36:5c:c2:69:72:0f:ad:a2:49:27:40:8f:57:25:ce:e4:
         c1:6b:44:ec:eb:68:cf:41:bd:53:6d:e5:cd:b3:d3:2c:e5:8e:
         12:61:48:fa:6e:b7:d8:56:66:0a:9a:75:09:34:05:53:f9:e7:
         20:2c:58:ee:92:8a:0c:22:14:1b:37:79:76:7d:70:f4:31:1b:
         3a:31:34:7a:76:2b:88:46:c6:61:02:76:e4:c5:87:5f:af:5b:
         4c:70:6b:62:c1:aa:70:fb:45:0d:dc:07:50:4b:e8:84:17:4c:
         5f:81:70:4c:7f:99:63:cf:52:1a:74:8d:21:91:77:1f:3b:c7:
         82:dd:5f:70:af:72:35:46:ae:e0:ea:4f:40:3e:cf:c7:f6:c2:
         7a:be:29:fe:1c:23:1d:95:dc:44:93:14:b4:b3:40:f2:90:4e:
         ab:70:75:5e:08:00:53:92:90:d4:f8:0a:4c:f1:f4:72:7b:29:
         74:d9:84:d4:2c:89:0a:45:84:2e:c7:cc:69:ac:24:c4:96:45:
         b9:ac:44:f7:d0:8f:de:ca
-----BEGIN CERTIFICATE-----
MIIGrTCCBJWgAwIBAgICEScwDQYJKoZIhvcNAQEEBQAwgawxCzAJBgNVBAYTAlVT
MQswCQYDVQQIEwJPSDERMA8GA1UEBxMIQ29sdW1idXMxEjAQBgNVBAoTCVZpa2lu
Z1ZQTjEdMBsGA1UECxMUTXlPcmdhbml6YXRpb25hbFVuaXQxFTATBgNVBAMTDFZp
a2luZ1ZQTiBDQTEQMA4GA1UEKRMHRWFzeVJTQTEhMB8GCSqGSIb3DQEJARYSbWVA
bXlob3N0Lm15ZG9tYWluMB4XDTE1MDIwNjAwMjAwOFoXDTI1MDIwMzAwMjAwOFow
HzEdMBsGA1UEAxMUQ2xpZW50MTMwNUNlcnQ0NTA2ZTQwggIiMA0GCSqGSIb3DQEB
AQUAA4ICDwAwggIKAoICAQDOoy0pQUYcKBQrInPLGhR4cV+mPmRC+jSZDPjwhYNn
okyUSj7/JYVoYY0CHPWupiMhoMIJ+yTnbPoHpceARGwnP4mL3/kTi9FegzJ6sdRX
maUoaIrlhjhbibsqr8pcq/PNHf/5nDXtD3i++FqWFptJg9/jM4wG3Ar4ra0aNvnI
47benidWTGI4BIeRV51VSLwsGpCVVCH8Ltt71KDhAdVuB7QBmOrG1lCBhNshcMF2
HpUys/bY0bXWwSXWQDdOga67le8/BJ3OBMuygKRW/pbuOISVEJuG11qHH3IkaVJ7
8S9Or/kA8mdUHmMJy/CmYYVJnreL1LlPr0Tq/PqSNXhWQBlRsBKa4VTjDsSyOAGV
wbqcZ9OvZXBXIA7IwVr7iu7UCIMAl9Hog5DEPRHh70cx3YRqg43kCyAeLeSqflsR
ZUJbaUoW3WFquBUm5xlOp01cymot4jiOXKPlPXjGNKONOOlcK5kJmNSYEdqfoqqx
3nqNWnl+6YpbNMy0fdDmUN5rCCvy0RDyWSImpPYodq22c04982f5jtb1Qcd2dxKc
p6KVp88eDNqVG0lkbp/8c2nzvBCj9LukbhhctMISM5I2HI1xIbvnKvB5a4i4hKl4
HvkLeQvkNO8GGtnMFmxwprli6IjgKtJdPiNdhQDmImAJnk2u9U0O71by/HD+p6dJ
ZwIDAQABo4IBYzCCAV8wCQYDVR0TBAIwADAtBglghkgBhvhCAQ0EIBYeRWFzeS1S
U0EgR2VuZXJhdGVkIENlcnRpZmljYXRlMB0GA1UdDgQWBBSrZWMvtRBMRkTQJIq6
yJfAE0aZfzCB4QYDVR0jBIHZMIHWgBQSzWAE0qCAnnDtxpm4eyzGUv0ZoaGBsqSB
rzCBrDELMAkGA1UEBhMCVVMxCzAJBgNVBAgTAk9IMREwDwYDVQQHEwhDb2x1bWJ1
czESMBAGA1UEChMJVmlraW5nVlBOMR0wGwYDVQQLExRNeU9yZ2FuaXphdGlvbmFs
VW5pdDEVMBMGA1UEAxMMVmlraW5nVlBOIENBMRAwDgYDVQQpEwdFYXN5UlNBMSEw
HwYJKoZIhvcNAQkBFhJtZUBteWhvc3QubXlkb21haW6CCQDPNYXugL8qPjATBgNV
HSUEDDAKBggrBgEFBQcDAjALBgNVHQ8EBAMCB4AwDQYJKoZIhvcNAQEEBQADggIB
AF1lUeB7N6q3Ef7N1Nj9nK/we3bRA1/1UPUK+MFYi02RQ5Lm54Fk7ypl7o11jTBC
9d2jITMcX0R+X9UGRZCC6vfV5Db+hktQZHc3uCdtJduryitf8Z/K+V16Ui6HdUwa
viKWmhjiIuVN1Ve0qcblo+OuNJBIbeuhdl0/fTV0lXFs8gMgWTJk5i7o81E6fGai
FH4Vm6db5rxylJfF2GFFJaNciRMUHA15pBw//eoH2MurF/R94WKmYncZBIlKQkJw
QyyIE8XxheePlzfxoAxgryYCANbBOyxq9rkcGSL9f7Xl+Dhqr6uHqZVxMtyWp3Mx
IUz6fr+s+eyIpk3P77353BPOSXifr7fjcBHAJNQ1v8OpqvGzvFsUaXfmTtOImx69
KkfnBaOqmhBKubu+tZYwTRj7eisMNlzCaXIPraJJJ0CPVyXO5MFrROzraM9BvVNt
5c2z0yzljhJhSPput9hWZgqadQk0BVP55yAsWO6SigwiFBs3eXZ9cPQxGzoxNHp2
K4hGxmECduTFh1+vW0xwa2LBqnD7RQ3cB1BL6IQXTF+BcEx/mWPPUhp0jSGRdx87
x4LdX3CvcjVGruDqT0A+z8f2wnq+Kf4cIx2V3ESTFLSzQPKQTqtwdV4IAFOSkNT4
Ckzx9HJ7KXTZhNQsiQpFhC7HzGmsJMSWRbmsRPfQj97K
-----END CERTIFICATE-----
