Certificate:
    Data:
        Version: 3 (0x2)
        Serial Number: 8856 (0x2298)
    Signature Algorithm: sha256WithRSAEncryption
        Issuer: C=US, ST=OH, L=Columbus, O=VikingVPN, OU=MyOrganizationalUnit, CN=VikingVPN CA/name=EasyRSA/emailAddress=me@myhost.mydomain
        Validity
            Not Before: Aug 19 20:21:48 2016 GMT
            Not After : Aug 17 20:21:48 2026 GMT
        Subject: CN=Client2431Cert7ebe5f
        Subject Public Key Info:
            Public Key Algorithm: rsaEncryption
                Public-Key: (4096 bit)
                Modulus:
                    00:b4:d0:77:b5:3f:91:65:bc:c4:8a:cf:9e:0b:ae:
                    32:44:98:3f:04:23:c5:bd:0e:18:6e:ab:90:4c:59:
                    c1:61:3a:cc:fb:b3:29:69:ab:76:9c:bc:9c:7c:fa:
                    17:55:8b:c9:f7:03:82:97:9d:b0:5e:09:fb:c5:10:
                    e4:c3:1b:f5:11:37:4b:7d:74:38:01:26:5a:20:47:
                    c8:58:87:bc:dc:9f:a6:13:f0:e5:6b:af:8b:14:e6:
                    69:dd:82:66:eb:c8:d6:43:ed:94:9d:ca:e0:f6:13:
                    8e:93:af:cf:00:49:c7:64:1d:c8:72:fa:2a:71:b2:
                    ac:3a:49:6b:7b:ae:c6:08:e8:4f:91:86:46:d1:bc:
                    d8:f3:2e:5a:4a:0c:c6:ce:84:da:26:28:45:1e:db:
                    14:0b:08:96:80:41:41:08:ea:da:8b:2b:eb:eb:d3:
                    f4:6b:1e:8c:33:62:0b:5a:40:c8:16:7a:81:e7:f9:
                    6d:3e:93:ee:77:28:45:e8:4c:70:30:80:8c:b0:07:
                    ba:c6:ca:ab:1a:19:f5:9c:6d:9b:54:c3:9f:2e:cd:
                    90:fd:5a:d8:3d:13:e8:9e:72:e1:fe:c5:22:2e:9e:
                    62:00:36:3f:cb:e8:70:f3:9a:d3:f4:46:a4:d0:e4:
                    e2:4f:bb:87:34:73:10:f8:69:0b:e5:00:5d:21:a8:
                    ee:31:eb:97:86:2a:13:ab:33:4c:18:d6:3d:0b:eb:
                    c0:ff:b1:d2:1b:3b:78:c5:d1:6d:dd:3c:77:00:b2:
                    26:ad:4b:91:cd:1e:13:88:43:74:13:6c:63:1e:04:
                    11:3d:48:c4:0a:75:f4:b5:59:04:f6:61:6d:a2:46:
                    97:03:14:f0:69:84:01:c2:69:ae:3c:44:f8:70:91:
                    41:95:9b:0b:1a:df:7e:7d:b1:4f:09:1c:68:4f:ba:
                    21:73:ef:32:bd:2c:fc:94:d3:ed:80:7e:0e:57:ab:
                    95:9f:b7:be:ac:c2:99:f9:0a:6b:ee:30:6b:5a:b9:
                    8d:18:65:c8:8d:4c:78:96:61:59:14:05:11:cd:2b:
                    f1:3a:f7:58:b6:5a:3d:01:93:d1:51:c6:93:52:ff:
                    88:b2:2a:82:94:9e:c2:78:89:dd:b7:cd:09:b6:75:
                    0a:13:af:cd:45:f7:3c:18:b9:88:2f:2c:da:8d:22:
                    a4:1b:a0:0b:9a:f3:4b:48:92:f7:54:e2:05:2c:fe:
                    8a:56:08:5e:c5:3c:80:bc:1b:b8:16:52:03:0d:66:
                    3b:92:74:95:2b:4c:a8:be:1c:91:61:6b:eb:08:a6:
                    83:8f:eb:79:72:fe:b7:b6:06:a8:40:81:6b:0e:f5:
                    c4:59:ae:30:33:14:99:a3:88:df:a0:84:0b:ff:17:
                    7a:f5:35
                Exponent: 65537 (0x10001)
        X509v3 extensions:
            X509v3 Basic Constraints: 
                CA:FALSE
            Netscape Comment: 
                Easy-RSA Generated Certificate
            X509v3 Subject Key Identifier: 
                45:23:2D:07:5A:43:91:3B:47:3D:89:B4:FD:0C:85:DB:E2:19:B5:6E
            X509v3 Authority Key Identifier: 
                keyid:12:CD:60:04:D2:A0:80:9E:70:ED:C6:99:B8:7B:2C:C6:52:FD:19:A1
                DirName:/C=US/ST=OH/L=Columbus/O=VikingVPN/OU=MyOrganizationalUnit/CN=VikingVPN CA/name=EasyRSA/emailAddress=me@myhost.mydomain
                serial:CF:35:85:EE:80:BF:2A:3E

            X509v3 Extended Key Usage: 
                TLS Web Client Authentication
            X509v3 Key Usage: 
                Digital Signature
    Signature Algorithm: sha256WithRSAEncryption
         72:91:f5:cf:00:12:0e:3e:87:08:ef:68:0c:12:8e:7f:15:ba:
         dc:f7:65:3b:33:e4:3e:ef:79:de:bb:e4:c9:fd:20:c5:3c:05:
         8d:e9:e1:9d:82:3a:c8:55:55:ff:5a:c0:4f:85:2c:98:1d:e3:
         49:ba:af:d6:20:2f:bf:ac:a3:45:50:30:a3:59:5e:64:53:e9:
         4f:4d:50:f3:3d:1e:a4:33:14:35:f0:ac:91:0a:cc:3e:df:3a:
         b4:e6:d3:81:30:32:04:88:31:6c:89:54:b2:31:53:8b:bb:48:
         07:76:92:46:ef:42:87:79:33:d0:ff:80:18:12:78:92:25:66:
         73:7a:fd:7d:bb:66:20:c0:b2:68:1f:4c:76:97:99:54:68:d9:
         0e:5f:bf:49:19:b9:85:2e:57:45:15:eb:39:87:f1:89:d4:96:
         cf:56:45:24:97:6d:61:e7:04:33:b8:fe:29:f4:8a:92:98:99:
         60:b6:05:91:29:0f:d6:3b:50:d0:69:f4:30:f8:a6:82:f8:fe:
         12:44:18:06:da:06:2e:a1:96:bc:11:94:e7:31:eb:de:05:f1:
         1b:d9:e6:47:58:c0:b5:68:61:04:34:b2:94:9f:63:cd:7d:81:
         3e:17:22:82:ff:80:35:94:15:65:66:8c:36:36:8c:81:b2:cb:
         c9:05:c8:f4:46:05:7e:cc:e4:cf:5e:1d:11:37:57:90:f5:58:
         8a:3f:ec:fa:35:98:a5:40:61:5a:eb:56:71:4f:97:e2:e6:b7:
         28:62:d9:f6:7c:04:c7:cd:f9:46:22:48:d8:f1:3c:68:af:c6:
         62:96:64:00:b4:29:3c:e0:ec:7a:c8:b6:7b:3d:da:55:0b:0b:
         ec:d7:21:0f:0a:2e:24:b9:56:ba:74:f9:d3:55:89:5f:a7:66:
         66:85:38:33:76:9b:f3:e9:df:39:ad:b1:0f:1c:e9:ad:0f:ff:
         89:27:53:f3:29:88:57:e5:c4:08:66:98:64:17:5d:9d:2d:7f:
         78:c9:ed:dd:8a:98:40:b3:eb:7d:44:4a:40:57:8b:11:62:ab:
         cd:2b:84:c4:e8:7a:70:b4:ea:08:6a:18:f5:1f:05:b3:0f:bd:
         3d:63:7b:d0:da:67:bd:d3:43:89:9e:b6:e2:a5:40:98:b2:50:
         08:4b:37:ec:68:01:e9:54:1d:e7:3d:9a:fa:44:19:d2:f8:4f:
         f4:da:86:b5:68:f0:cf:e9:48:1a:46:05:d9:99:6f:14:cc:8d:
         7a:46:01:97:21:6a:69:94:b4:90:87:d2:25:22:9e:da:f5:58:
         71:d2:d3:5c:19:67:28:2c:dc:e8:78:61:56:cd:cf:08:41:5f:
         d6:b1:53:69:44:be:30:dd
-----BEGIN CERTIFICATE-----
MIIGrTCCBJWgAwIBAgICIpgwDQYJKoZIhvcNAQELBQAwgawxCzAJBgNVBAYTAlVT
MQswCQYDVQQIEwJPSDERMA8GA1UEBxMIQ29sdW1idXMxEjAQBgNVBAoTCVZpa2lu
Z1ZQTjEdMBsGA1UECxMUTXlPcmdhbml6YXRpb25hbFVuaXQxFTATBgNVBAMTDFZp
a2luZ1ZQTiBDQTEQMA4GA1UEKRMHRWFzeVJTQTEhMB8GCSqGSIb3DQEJARYSbWVA
bXlob3N0Lm15ZG9tYWluMB4XDTE2MDgxOTIwMjE0OFoXDTI2MDgxNzIwMjE0OFow
HzEdMBsGA1UEAxMUQ2xpZW50MjQzMUNlcnQ3ZWJlNWYwggIiMA0GCSqGSIb3DQEB
AQUAA4ICDwAwggIKAoICAQC00He1P5FlvMSKz54LrjJEmD8EI8W9Dhhuq5BMWcFh
Osz7sylpq3acvJx8+hdVi8n3A4KXnbBeCfvFEOTDG/URN0t9dDgBJlogR8hYh7zc
n6YT8OVrr4sU5mndgmbryNZD7ZSdyuD2E46Tr88AScdkHchy+ipxsqw6SWt7rsYI
6E+RhkbRvNjzLlpKDMbOhNomKEUe2xQLCJaAQUEI6tqLK+vr0/RrHowzYgtaQMgW
eoHn+W0+k+53KEXoTHAwgIywB7rGyqsaGfWcbZtUw58uzZD9Wtg9E+iecuH+xSIu
nmIANj/L6HDzmtP0RqTQ5OJPu4c0cxD4aQvlAF0hqO4x65eGKhOrM0wY1j0L68D/
sdIbO3jF0W3dPHcAsiatS5HNHhOIQ3QTbGMeBBE9SMQKdfS1WQT2YW2iRpcDFPBp
hAHCaa48RPhwkUGVmwsa3359sU8JHGhPuiFz7zK9LPyU0+2Afg5Xq5Wft76swpn5
CmvuMGtauY0YZciNTHiWYVkUBRHNK/E691i2Wj0Bk9FRxpNS/4iyKoKUnsJ4id23
zQm2dQoTr81F9zwYuYgvLNqNIqQboAua80tIkvdU4gUs/opWCF7FPIC8G7gWUgMN
ZjuSdJUrTKi+HJFha+sIpoOP63ly/re2BqhAgWsO9cRZrjAzFJmjiN+ghAv/F3r1
NQIDAQABo4IBYzCCAV8wCQYDVR0TBAIwADAtBglghkgBhvhCAQ0EIBYeRWFzeS1S
U0EgR2VuZXJhdGVkIENlcnRpZmljYXRlMB0GA1UdDgQWBBRFIy0HWkORO0c9ibT9
DIXb4hm1bjCB4QYDVR0jBIHZMIHWgBQSzWAE0qCAnnDtxpm4eyzGUv0ZoaGBsqSB
rzCBrDELMAkGA1UEBhMCVVMxCzAJBgNVBAgTAk9IMREwDwYDVQQHEwhDb2x1bWJ1
czESMBAGA1UEChMJVmlraW5nVlBOMR0wGwYDVQQLExRNeU9yZ2FuaXphdGlvbmFs
VW5pdDEVMBMGA1UEAxMMVmlraW5nVlBOIENBMRAwDgYDVQQpEwdFYXN5UlNBMSEw
HwYJKoZIhvcNAQkBFhJtZUBteWhvc3QubXlkb21haW6CCQDPNYXugL8qPjATBgNV
HSUEDDAKBggrBgEFBQcDAjALBgNVHQ8EBAMCB4AwDQYJKoZIhvcNAQELBQADggIB
AHKR9c8AEg4+hwjvaAwSjn8Vutz3ZTsz5D7ved675Mn9IMU8BY3p4Z2COshVVf9a
wE+FLJgd40m6r9YgL7+so0VQMKNZXmRT6U9NUPM9HqQzFDXwrJEKzD7fOrTm04Ew
MgSIMWyJVLIxU4u7SAd2kkbvQod5M9D/gBgSeJIlZnN6/X27ZiDAsmgfTHaXmVRo
2Q5fv0kZuYUuV0UV6zmH8YnUls9WRSSXbWHnBDO4/in0ipKYmWC2BZEpD9Y7UNBp
9DD4poL4/hJEGAbaBi6hlrwRlOcx694F8RvZ5kdYwLVoYQQ0spSfY819gT4XIoL/
gDWUFWVmjDY2jIGyy8kFyPRGBX7M5M9eHRE3V5D1WIo/7Po1mKVAYVrrVnFPl+Lm
tyhi2fZ8BMfN+UYiSNjxPGivxmKWZAC0KTzg7HrItns92lULC+zXIQ8KLiS5Vrp0
+dNViV+nZmaFODN2m/Pp3zmtsQ8c6a0P/4knU/MpiFflxAhmmGQXXZ0tf3jJ7d2K
mECz631ESkBXixFiq80rhMToenC06ghqGPUfBbMPvT1je9DaZ73TQ4metuKlQJiy
UAhLN+xoAelUHec9mvpEGdL4T/TahrVo8M/pSBpGBdmZbxTMjXpGAZchammUtJCH
0iUintr1WHHS01wZZygs3Oh4YVbNzwhBX9axU2lEvjDd
-----END CERTIFICATE-----
