Certificate:
    Data:
        Version: 3 (0x2)
        Serial Number: 5450 (0x154a)
    Signature Algorithm: md5WithRSAEncryption
        Issuer: C=US, ST=OH, L=Columbus, O=VikingVPN, OU=MyOrganizationalUnit, CN=VikingVPN CA/name=EasyRSA/emailAddress=me@myhost.mydomain
        Validity
            Not Before: May 31 03:27:51 2015 GMT
            Not After : May 28 03:27:51 2025 GMT
        Subject: CN=Client1712Certe20998
        Subject Public Key Info:
            Public Key Algorithm: rsaEncryption
                Public-Key: (4096 bit)
                Modulus:
                    00:ca:d7:da:59:e9:21:4a:7f:7c:fe:ec:91:19:db:
                    73:7a:54:0c:ed:2c:32:e3:53:45:aa:bc:cb:b7:f5:
                    6c:d0:b6:ba:56:66:cb:3c:47:9b:6f:34:fc:3b:78:
                    4e:7f:4e:e8:44:07:2b:dd:13:c2:20:bb:99:4d:b4:
                    ea:84:08:dc:e3:9a:03:74:48:41:1b:33:91:22:f2:
                    4d:ed:e0:d8:31:14:4b:5e:d7:3f:38:23:17:eb:14:
                    ec:53:84:96:0d:5c:05:83:69:6e:23:5a:8a:49:8b:
                    f3:1d:90:bd:40:7f:42:62:bc:78:c6:37:f0:fd:01:
                    ca:60:cd:8a:60:bc:74:58:3c:cf:41:ed:44:da:7e:
                    86:d7:71:62:41:72:3e:38:05:51:0b:bb:4f:32:60:
                    d1:62:11:55:95:47:f4:30:66:9f:54:40:20:6f:fa:
                    79:34:58:86:bf:1a:a6:8c:ad:95:6a:1f:73:99:bd:
                    bd:99:18:3e:30:b0:b8:58:66:98:e2:50:3f:57:d5:
                    06:a0:19:45:3b:c4:8d:e5:6e:80:24:d1:84:a5:d1:
                    ab:c8:28:7b:e2:8c:01:f8:bc:2f:38:54:23:ac:a5:
                    a6:e8:fa:89:fa:c4:a1:36:75:6c:07:9a:44:0b:56:
                    62:8d:6c:3c:00:3f:b7:28:2e:fd:ad:31:9f:ee:df:
                    dc:ec:c1:94:47:c2:b2:92:6c:5b:cd:b2:26:b4:49:
                    ea:00:aa:05:d9:a2:c3:fd:32:4f:c4:67:04:c7:05:
                    c7:f8:40:20:42:83:6c:55:24:08:b1:8e:38:ce:13:
                    90:57:58:6c:35:d1:2f:9e:c6:a9:8f:b5:f2:e4:81:
                    cc:a6:91:1d:a9:5f:77:a9:0f:d2:c7:6c:31:b0:32:
                    6d:a4:5e:aa:bd:c8:82:b5:8b:f9:1b:b5:d0:21:8e:
                    ad:a3:ee:b4:6c:55:31:9b:bc:0f:83:d2:b9:4d:1c:
                    3f:8a:b1:a2:c5:29:58:3e:51:d2:c1:b6:97:b4:65:
                    b0:4c:d2:10:7f:3a:c3:87:5a:61:ae:cf:83:07:4e:
                    4b:0e:1c:37:14:18:54:47:1f:3f:9c:20:28:a5:24:
                    ec:2f:ae:d8:3f:9b:1e:da:66:5e:de:77:db:55:2f:
                    8c:a0:bf:7d:37:9c:19:fc:be:a3:ec:7d:63:91:01:
                    a4:96:72:57:d9:a0:b5:b5:af:d7:ac:76:0a:6e:c8:
                    d2:fd:e7:5f:77:b4:a3:77:1e:63:11:1d:f4:4a:d6:
                    0d:a6:84:89:ea:c4:03:b8:98:e3:49:1f:c6:7d:17:
                    90:5a:1d:0e:ce:6e:b7:66:1d:d6:dc:5a:3a:90:a0:
                    15:0d:2d:64:8a:3a:3c:3a:20:62:fd:59:14:1d:ab:
                    20:77:eb
                Exponent: 65537 (0x10001)
        X509v3 extensions:
            X509v3 Basic Constraints: 
                CA:FALSE
            Netscape Comment: 
                Easy-RSA Generated Certificate
            X509v3 Subject Key Identifier: 
                35:1F:E0:45:FD:B4:04:EA:7B:7F:66:60:AE:0D:F8:B7:C2:0B:8F:C7
            X509v3 Authority Key Identifier: 
                keyid:12:CD:60:04:D2:A0:80:9E:70:ED:C6:99:B8:7B:2C:C6:52:FD:19:A1
                DirName:/C=US/ST=OH/L=Columbus/O=VikingVPN/OU=MyOrganizationalUnit/CN=VikingVPN CA/name=EasyRSA/emailAddress=me@myhost.mydomain
                serial:CF:35:85:EE:80:BF:2A:3E

            X509v3 Extended Key Usage: 
                TLS Web Client Authentication
            X509v3 Key Usage: 
                Digital Signature
    Signature Algorithm: md5WithRSAEncryption
         64:57:f4:a7:78:db:ff:47:81:44:7c:40:60:bf:dd:f1:d3:ae:
         a6:cc:d0:11:4c:23:eb:d9:c8:9c:f3:e0:11:dc:79:5a:20:91:
         49:91:42:a0:8e:f6:82:77:a7:1e:19:dd:30:7e:aa:03:b1:8a:
         d3:a7:41:12:c9:43:7a:41:c6:05:ce:29:93:52:f9:23:8c:23:
         c6:4d:27:72:12:3a:74:86:6c:e4:16:f4:8e:aa:41:9d:7d:c3:
         fd:b5:81:a9:34:0b:60:d2:66:4f:db:e4:a9:7b:41:6d:43:6b:
         5b:74:14:12:1c:20:7c:e9:53:45:31:76:ae:55:f0:c6:68:ea:
         21:86:36:e8:e5:8a:b1:9a:0c:37:eb:ca:2b:3f:af:c8:71:a7:
         de:10:6c:b2:7e:7c:46:12:2c:9f:73:46:a9:92:89:95:99:91:
         a2:21:1f:0c:2a:d5:c5:05:52:ea:cf:19:46:54:1b:91:5c:5f:
         0f:c4:3e:04:fb:fa:8b:ef:e2:2d:74:74:a2:57:31:1b:42:d6:
         da:48:5c:2f:93:dc:1f:9d:07:31:9f:cc:9e:df:c1:42:07:76:
         73:d1:14:61:f9:4e:b3:bb:c6:3e:8b:20:22:ba:45:31:54:a3:
         b9:24:01:b5:3e:e7:a3:a7:6b:3b:48:56:0d:59:3a:3c:84:b9:
         63:18:39:58:2f:41:97:98:5a:94:ae:ed:f6:0a:4f:08:bc:2c:
         6f:f1:a1:df:50:f0:11:81:80:8c:e9:65:b1:09:83:b9:c2:6d:
         82:dc:2e:ed:14:07:66:c0:e2:17:d4:44:79:46:eb:53:5f:cc:
         e9:5f:4f:58:17:8c:27:f6:e1:79:00:18:d5:e5:7d:d4:b1:ed:
         d8:34:ed:4e:b9:83:2b:f6:63:70:b0:ad:e5:21:2a:e9:15:b5:
         99:b5:a8:b1:36:3a:bf:db:31:1b:52:a4:4b:85:16:71:7a:a0:
         23:61:61:f0:14:5a:6e:00:cf:01:09:7a:b4:15:71:04:15:a3:
         d0:0d:8f:71:d0:24:c1:b4:4e:93:bf:1f:c7:c5:72:fa:49:f9:
         6a:02:a8:c5:5e:8e:93:89:2e:22:24:21:c2:eb:1e:2c:f7:57:
         e5:a4:f3:7b:31:aa:3f:e0:62:3d:32:6c:a2:2f:a5:90:b4:ff:
         30:8a:f4:99:3a:3d:54:c7:37:35:2b:aa:5e:61:d0:13:21:8d:
         31:3a:a1:1b:d7:71:f4:3a:97:bf:ab:85:bb:ed:ed:08:cf:b0:
         97:3c:1c:4b:c4:ad:f8:07:38:fd:1e:3c:ee:57:6d:2b:31:31:
         cb:41:44:4f:71:83:4f:c9:3a:8c:a5:a9:8b:47:a9:a0:c0:82:
         7b:16:06:2b:5d:3f:15:7a
-----BEGIN CERTIFICATE-----
MIIGrTCCBJWgAwIBAgICFUowDQYJKoZIhvcNAQEEBQAwgawxCzAJBgNVBAYTAlVT
MQswCQYDVQQIEwJPSDERMA8GA1UEBxMIQ29sdW1idXMxEjAQBgNVBAoTCVZpa2lu
Z1ZQTjEdMBsGA1UECxMUTXlPcmdhbml6YXRpb25hbFVuaXQxFTATBgNVBAMTDFZp
a2luZ1ZQTiBDQTEQMA4GA1UEKRMHRWFzeVJTQTEhMB8GCSqGSIb3DQEJARYSbWVA
bXlob3N0Lm15ZG9tYWluMB4XDTE1MDUzMTAzMjc1MVoXDTI1MDUyODAzMjc1MVow
HzEdMBsGA1UEAxMUQ2xpZW50MTcxMkNlcnRlMjA5OTgwggIiMA0GCSqGSIb3DQEB
AQUAA4ICDwAwggIKAoICAQDK19pZ6SFKf3z+7JEZ23N6VAztLDLjU0WqvMu39WzQ
trpWZss8R5tvNPw7eE5/TuhEByvdE8Igu5lNtOqECNzjmgN0SEEbM5Ei8k3t4Ngx
FEte1z84IxfrFOxThJYNXAWDaW4jWopJi/MdkL1Af0JivHjGN/D9AcpgzYpgvHRY
PM9B7UTafobXcWJBcj44BVELu08yYNFiEVWVR/QwZp9UQCBv+nk0WIa/GqaMrZVq
H3OZvb2ZGD4wsLhYZpjiUD9X1QagGUU7xI3lboAk0YSl0avIKHvijAH4vC84VCOs
pabo+on6xKE2dWwHmkQLVmKNbDwAP7coLv2tMZ/u39zswZRHwrKSbFvNsia0SeoA
qgXZosP9Mk/EZwTHBcf4QCBCg2xVJAixjjjOE5BXWGw10S+exqmPtfLkgcymkR2p
X3epD9LHbDGwMm2kXqq9yIK1i/kbtdAhjq2j7rRsVTGbvA+D0rlNHD+KsaLFKVg+
UdLBtpe0ZbBM0hB/OsOHWmGuz4MHTksOHDcUGFRHHz+cICilJOwvrtg/mx7aZl7e
d9tVL4ygv303nBn8vqPsfWORAaSWclfZoLW1r9esdgpuyNL95193tKN3HmMRHfRK
1g2mhInqxAO4mONJH8Z9F5BaHQ7ObrdmHdbcWjqQoBUNLWSKOjw6IGL9WRQdqyB3
6wIDAQABo4IBYzCCAV8wCQYDVR0TBAIwADAtBglghkgBhvhCAQ0EIBYeRWFzeS1S
U0EgR2VuZXJhdGVkIENlcnRpZmljYXRlMB0GA1UdDgQWBBQ1H+BF/bQE6nt/ZmCu
Dfi3wguPxzCB4QYDVR0jBIHZMIHWgBQSzWAE0qCAnnDtxpm4eyzGUv0ZoaGBsqSB
rzCBrDELMAkGA1UEBhMCVVMxCzAJBgNVBAgTAk9IMREwDwYDVQQHEwhDb2x1bWJ1
czESMBAGA1UEChMJVmlraW5nVlBOMR0wGwYDVQQLExRNeU9yZ2FuaXphdGlvbmFs
VW5pdDEVMBMGA1UEAxMMVmlraW5nVlBOIENBMRAwDgYDVQQpEwdFYXN5UlNBMSEw
HwYJKoZIhvcNAQkBFhJtZUBteWhvc3QubXlkb21haW6CCQDPNYXugL8qPjATBgNV
HSUEDDAKBggrBgEFBQcDAjALBgNVHQ8EBAMCB4AwDQYJKoZIhvcNAQEEBQADggIB
AGRX9Kd42/9HgUR8QGC/3fHTrqbM0BFMI+vZyJzz4BHceVogkUmRQqCO9oJ3px4Z
3TB+qgOxitOnQRLJQ3pBxgXOKZNS+SOMI8ZNJ3ISOnSGbOQW9I6qQZ19w/21gak0
C2DSZk/b5Kl7QW1Da1t0FBIcIHzpU0Uxdq5V8MZo6iGGNujlirGaDDfryis/r8hx
p94QbLJ+fEYSLJ9zRqmSiZWZkaIhHwwq1cUFUurPGUZUG5FcXw/EPgT7+ovv4i10
dKJXMRtC1tpIXC+T3B+dBzGfzJ7fwUIHdnPRFGH5TrO7xj6LICK6RTFUo7kkAbU+
56OnaztIVg1ZOjyEuWMYOVgvQZeYWpSu7fYKTwi8LG/xod9Q8BGBgIzpZbEJg7nC
bYLcLu0UB2bA4hfURHlG61NfzOlfT1gXjCf24XkAGNXlfdSx7dg07U65gyv2Y3Cw
reUhKukVtZm1qLE2Or/bMRtSpEuFFnF6oCNhYfAUWm4AzwEJerQVcQQVo9ANj3HQ
JMG0TpO/H8fFcvpJ+WoCqMVejpOJLiIkIcLrHiz3V+Wk83sxqj/gYj0ybKIvpZC0
/zCK9Jk6PVTHNzUrql5h0BMhjTE6oRvXcfQ6l7+rhbvt7QjPsJc8HEvErfgHOP0e
PO5XbSsxMctBRE9xg0/JOoylqYtHqaDAgnsWBitdPxV6
-----END CERTIFICATE-----
