Certificate:
    Data:
        Version: 3 (0x2)
        Serial Number: 1690 (0x69a)
    Signature Algorithm: md5WithRSAEncryption
        Issuer: C=US, ST=OH, L=Columbus, O=VikingVPN, OU=MyOrganizationalUnit, CN=VikingVPN CA/name=EasyRSA/emailAddress=me@myhost.mydomain
        Validity
            Not Before: Apr 21 20:12:31 2014 GMT
            Not After : Apr 18 20:12:31 2024 GMT
        Subject: CN=Client470Cert9e1e6e
        Subject Public Key Info:
            Public Key Algorithm: rsaEncryption
                Public-Key: (4096 bit)
                Modulus:
                    00:ce:75:a3:5f:da:2d:81:7f:27:42:33:9f:ca:51:
                    20:be:4e:89:e9:4d:5e:12:a4:91:8b:34:5b:f5:ed:
                    38:32:46:c9:21:82:a3:8a:e5:4c:93:35:17:61:dc:
                    03:37:37:f5:4f:0e:bf:a7:20:e1:52:01:46:12:64:
                    ff:13:23:66:ab:cf:b3:d4:7c:c4:b3:cf:87:2a:9f:
                    b5:b5:64:94:94:a0:ea:7a:65:4b:aa:1f:48:ca:a8:
                    41:55:dd:65:50:05:56:2b:9b:aa:02:80:54:0b:1e:
                    0e:73:f5:18:1a:96:92:eb:ac:d6:60:7a:59:8c:87:
                    ee:be:17:5d:c4:b7:52:ee:75:54:48:19:94:90:54:
                    7c:80:4e:9c:8e:42:e6:8a:1e:b6:a2:fc:be:25:3a:
                    5b:f6:1b:c1:d5:6f:b5:c9:34:6b:0c:76:39:35:49:
                    4b:64:73:f6:94:2b:b3:e4:24:d2:b4:fe:78:0b:5c:
                    0c:45:8d:58:fd:c0:db:f9:69:b4:46:c3:b7:4f:63:
                    3b:bf:4b:8d:14:ca:7d:cc:e7:ed:96:a6:c9:95:81:
                    aa:14:02:49:73:e4:5b:d3:87:e7:99:34:4e:18:2d:
                    bb:74:f4:58:f0:8b:eb:47:15:24:ae:0c:c6:55:9e:
                    f5:29:90:ee:9a:0f:e9:b6:c0:d0:12:74:69:93:24:
                    c8:33:04:e7:a4:e0:15:0d:6a:7d:f6:66:46:a9:52:
                    cf:3a:9a:a9:ef:13:31:fe:74:79:43:b0:e9:97:f3:
                    ac:4a:78:33:1e:02:56:80:3b:7e:0b:1a:5c:52:86:
                    7a:71:61:c4:00:06:a9:63:17:4c:62:be:af:f6:25:
                    27:f8:e8:a3:a2:93:df:4b:24:99:24:da:fd:3e:7e:
                    1f:a3:a7:a5:90:4f:df:90:c3:ba:97:8a:1e:09:10:
                    0f:83:30:aa:77:59:ba:39:c1:79:1d:8e:37:f6:51:
                    b5:06:4e:44:de:56:e0:cf:0b:89:41:92:aa:63:f5:
                    b2:bc:8d:17:7b:8a:b5:37:e4:3e:72:54:3f:ec:f4:
                    e8:8d:7a:84:a1:7f:8d:92:4e:ae:a2:a8:37:33:7a:
                    b5:56:5b:79:8b:6d:78:3f:b2:d9:97:6e:19:a8:88:
                    c3:5d:c1:c8:26:5a:9b:11:df:78:1b:1b:19:bb:f9:
                    c4:88:50:6a:aa:6c:8c:a2:c3:f1:99:67:55:5b:16:
                    e2:e0:17:f6:77:55:4b:07:45:17:97:3c:dd:74:70:
                    1e:85:f8:ec:f4:7b:f4:01:0f:91:ee:c8:ef:39:44:
                    d6:25:c2:2c:5a:6f:78:0b:79:ab:00:25:f9:d1:e3:
                    19:17:57:14:8b:5a:67:66:65:6c:5d:9d:7f:9f:e6:
                    32:c9:03
                Exponent: 65537 (0x10001)
        X509v3 extensions:
            X509v3 Basic Constraints: 
                CA:FALSE
            Netscape Comment: 
                Easy-RSA Generated Certificate
            X509v3 Subject Key Identifier: 
                EB:9C:18:6D:BF:6E:06:C8:04:61:DB:E9:35:62:92:57:AA:29:7C:59
            X509v3 Authority Key Identifier: 
                keyid:12:CD:60:04:D2:A0:80:9E:70:ED:C6:99:B8:7B:2C:C6:52:FD:19:A1
                DirName:/C=US/ST=OH/L=Columbus/O=VikingVPN/OU=MyOrganizationalUnit/CN=VikingVPN CA/name=EasyRSA/emailAddress=me@myhost.mydomain
                serial:CF:35:85:EE:80:BF:2A:3E

            X509v3 Extended Key Usage: 
                TLS Web Client Authentication
            X509v3 Key Usage: 
                Digital Signature
    Signature Algorithm: md5WithRSAEncryption
         83:a2:57:57:c6:ba:6d:1e:cb:aa:df:d7:09:0f:76:bb:7c:62:
         f7:5d:6f:3a:4c:79:7c:1a:3c:8a:2d:fa:a6:60:99:b0:cf:51:
         ac:a3:2c:52:e4:ec:70:a3:2a:03:dc:f6:48:52:85:01:43:d0:
         49:76:c4:45:da:08:2b:2d:ea:93:29:73:a2:a0:2b:ad:d0:a2:
         30:5a:8d:75:71:af:3e:60:9d:cc:e6:e7:6f:dc:3b:c9:14:29:
         12:a5:c7:d0:84:e5:8b:6e:9a:3d:16:43:b2:e7:9e:e0:bc:32:
         91:e9:48:03:8b:ba:8b:3c:fe:7a:c0:bb:b6:1b:2a:b0:63:3e:
         76:ad:47:83:89:47:22:c9:4d:a8:fc:78:86:f9:b0:c4:07:63:
         e9:8e:e5:41:15:21:09:0d:1e:55:2b:f5:7e:b2:e3:77:e8:b5:
         62:0d:ef:52:54:53:75:44:5a:bc:5b:20:4e:a7:9d:61:50:ce:
         ae:7a:2e:f3:d9:2f:3a:62:75:20:f5:60:33:e2:94:41:88:8c:
         c9:1f:19:38:b3:7b:9d:0c:59:44:e3:37:c9:09:d5:1a:c0:d9:
         75:71:47:1e:52:43:ed:37:21:b4:bd:ab:9c:be:85:4b:05:00:
         fe:cf:24:ae:b6:4d:76:6a:0c:7f:b4:5b:e8:3e:16:b6:73:ff:
         8f:de:4c:fe:f7:eb:cf:09:1e:62:d7:c2:ac:89:db:2e:bd:3e:
         d9:d1:f1:ec:43:16:f4:ae:9b:f0:d9:2e:df:9c:99:5c:4c:13:
         67:0c:3c:6a:d8:87:3e:4e:d1:5e:b5:bc:b2:fa:d1:4a:dc:09:
         f4:43:52:d4:d5:da:76:ff:b0:a0:d3:49:57:b2:89:b7:d3:b8:
         18:ce:ad:4f:9c:77:4e:a6:0b:8f:9b:29:24:f2:43:25:08:1e:
         e8:ba:87:f7:32:47:09:85:ad:25:0c:f5:10:f2:d1:d4:bb:82:
         89:bb:40:89:71:c1:27:b3:ed:dc:53:74:1e:e4:3c:8d:c8:a6:
         d6:7f:90:0a:90:f8:c0:5c:41:7f:60:66:d6:3b:8f:1b:44:46:
         ed:a3:1b:16:da:43:fe:86:19:65:5a:58:42:0e:78:4b:a8:92:
         15:4e:f0:82:af:39:73:49:a8:e8:18:d9:58:6d:b4:cf:00:d8:
         11:0d:61:87:85:f1:58:07:de:bd:10:5e:f2:34:26:d0:84:6c:
         66:98:5b:73:05:21:ce:bd:56:87:5b:87:10:6f:c8:8d:6c:f7:
         80:c0:60:a4:55:60:49:e0:58:6f:61:5a:a5:a4:72:ff:bc:1f:
         5f:a4:51:c1:e2:3d:7b:5a:9d:a1:16:d7:41:fe:59:d5:87:d4:
         fb:77:eb:97:d2:7b:fc:b6
-----BEGIN CERTIFICATE-----
MIIGrDCCBJSgAwIBAgICBpowDQYJKoZIhvcNAQEEBQAwgawxCzAJBgNVBAYTAlVT
MQswCQYDVQQIEwJPSDERMA8GA1UEBxMIQ29sdW1idXMxEjAQBgNVBAoTCVZpa2lu
Z1ZQTjEdMBsGA1UECxMUTXlPcmdhbml6YXRpb25hbFVuaXQxFTATBgNVBAMTDFZp
a2luZ1ZQTiBDQTEQMA4GA1UEKRMHRWFzeVJTQTEhMB8GCSqGSIb3DQEJARYSbWVA
bXlob3N0Lm15ZG9tYWluMB4XDTE0MDQyMTIwMTIzMVoXDTI0MDQxODIwMTIzMVow
HjEcMBoGA1UEAxMTQ2xpZW50NDcwQ2VydDllMWU2ZTCCAiIwDQYJKoZIhvcNAQEB
BQADggIPADCCAgoCggIBAM51o1/aLYF/J0Izn8pRIL5OielNXhKkkYs0W/XtODJG
ySGCo4rlTJM1F2HcAzc39U8Ov6cg4VIBRhJk/xMjZqvPs9R8xLPPhyqftbVklJSg
6nplS6ofSMqoQVXdZVAFViubqgKAVAseDnP1GBqWkuus1mB6WYyH7r4XXcS3Uu51
VEgZlJBUfIBOnI5C5ooetqL8viU6W/YbwdVvtck0awx2OTVJS2Rz9pQrs+Qk0rT+
eAtcDEWNWP3A2/lptEbDt09jO79LjRTKfczn7ZamyZWBqhQCSXPkW9OH55k0Thgt
u3T0WPCL60cVJK4MxlWe9SmQ7poP6bbA0BJ0aZMkyDME56TgFQ1qffZmRqlSzzqa
qe8TMf50eUOw6ZfzrEp4Mx4CVoA7fgsaXFKGenFhxAAGqWMXTGK+r/YlJ/joo6KT
30skmSTa/T5+H6OnpZBP35DDupeKHgkQD4MwqndZujnBeR2ON/ZRtQZORN5W4M8L
iUGSqmP1sryNF3uKtTfkPnJUP+z06I16hKF/jZJOrqKoNzN6tVZbeYtteD+y2Zdu
GaiIw13ByCZamxHfeBsbGbv5xIhQaqpsjKLD8ZlnVVsW4uAX9ndVSwdFF5c83XRw
HoX47PR79AEPke7I7zlE1iXCLFpveAt5qwAl+dHjGRdXFItaZ2ZlbF2df5/mMskD
AgMBAAGjggFjMIIBXzAJBgNVHRMEAjAAMC0GCWCGSAGG+EIBDQQgFh5FYXN5LVJT
QSBHZW5lcmF0ZWQgQ2VydGlmaWNhdGUwHQYDVR0OBBYEFOucGG2/bgbIBGHb6TVi
kleqKXxZMIHhBgNVHSMEgdkwgdaAFBLNYATSoICecO3Gmbh7LMZS/RmhoYGypIGv
MIGsMQswCQYDVQQGEwJVUzELMAkGA1UECBMCT0gxETAPBgNVBAcTCENvbHVtYnVz
MRIwEAYDVQQKEwlWaWtpbmdWUE4xHTAbBgNVBAsTFE15T3JnYW5pemF0aW9uYWxV
bml0MRUwEwYDVQQDEwxWaWtpbmdWUE4gQ0ExEDAOBgNVBCkTB0Vhc3lSU0ExITAf
BgkqhkiG9w0BCQEWEm1lQG15aG9zdC5teWRvbWFpboIJAM81he6Avyo+MBMGA1Ud
JQQMMAoGCCsGAQUFBwMCMAsGA1UdDwQEAwIHgDANBgkqhkiG9w0BAQQFAAOCAgEA
g6JXV8a6bR7Lqt/XCQ92u3xi911vOkx5fBo8ii36pmCZsM9RrKMsUuTscKMqA9z2
SFKFAUPQSXbERdoIKy3qkylzoqArrdCiMFqNdXGvPmCdzObnb9w7yRQpEqXH0ITl
i26aPRZDsuee4LwykelIA4u6izz+esC7thsqsGM+dq1Hg4lHIslNqPx4hvmwxAdj
6Y7lQRUhCQ0eVSv1frLjd+i1Yg3vUlRTdURavFsgTqedYVDOrnou89kvOmJ1IPVg
M+KUQYiMyR8ZOLN7nQxZROM3yQnVGsDZdXFHHlJD7TchtL2rnL6FSwUA/s8krrZN
dmoMf7Rb6D4WtnP/j95M/vfrzwkeYtfCrInbLr0+2dHx7EMW9K6b8Nku35yZXEwT
Zww8atiHPk7RXrW8svrRStwJ9ENS1NXadv+woNNJV7KJt9O4GM6tT5x3TqYLj5sp
JPJDJQge6LqH9zJHCYWtJQz1EPLR1LuCibtAiXHBJ7Pt3FN0HuQ8jcim1n+QCpD4
wFxBf2Bm1juPG0RG7aMbFtpD/oYZZVpYQg54S6iSFU7wgq85c0mo6BjZWG20zwDY
EQ1hh4XxWAfevRBe8jQm0IRsZphbcwUhzr1Wh1uHEG/IjWz3gMBgpFVgSeBYb2Fa
paRy/7wfX6RRweI9e1qdoRbXQf5Z1YfU+3frl9J7/LY=
-----END CERTIFICATE-----
