Certificate:
    Data:
        Version: 3 (0x2)
        Serial Number: 7597 (0x1dad)
    Signature Algorithm: md5WithRSAEncryption
        Issuer: C=US, ST=OH, L=Columbus, O=VikingVPN, OU=MyOrganizationalUnit, CN=VikingVPN CA/name=EasyRSA/emailAddress=me@myhost.mydomain
        Validity
            Not Before: Mar 23 14:54:55 2016 GMT
            Not After : Mar 21 14:54:55 2026 GMT
        Subject: CN=Client2190Cert5a2828
        Subject Public Key Info:
            Public Key Algorithm: rsaEncryption
                Public-Key: (4096 bit)
                Modulus:
                    00:ac:0f:37:c7:80:88:84:a3:80:68:42:3e:d8:31:
                    74:59:8a:d1:ef:5a:5f:01:9d:8d:fd:e6:5b:74:65:
                    57:ed:84:90:c1:28:83:c3:ae:2b:13:11:f7:e8:3b:
                    4c:01:18:13:c7:9a:f5:b8:de:61:9e:38:e6:56:d4:
                    66:2f:63:5f:1e:22:dc:25:8a:ce:33:63:b5:58:15:
                    c8:98:57:5c:3e:c0:92:c2:0f:78:ad:f3:53:77:e8:
                    82:e8:01:a6:f6:05:2e:80:eb:85:f6:ac:96:9c:9e:
                    4f:33:d6:a7:39:a7:01:14:db:e8:10:99:ba:49:e0:
                    fc:fc:77:56:b1:b3:55:4c:a5:0e:05:54:b1:70:14:
                    62:47:f6:7c:ad:82:96:f9:39:4e:f1:d4:0a:01:1c:
                    47:42:93:06:63:b9:fb:df:af:18:70:e4:89:30:8b:
                    ef:5c:60:f8:fb:81:74:45:a6:ba:d8:6c:de:89:8f:
                    1d:a1:62:0d:a5:46:3a:03:0c:f2:a9:29:77:50:8f:
                    e0:a0:1d:91:da:18:94:ec:61:a3:25:05:87:50:cc:
                    87:71:c0:c2:29:15:df:99:39:3c:c8:55:67:9a:56:
                    91:10:e9:f1:5d:49:d1:bb:b9:6b:92:0f:61:f4:c3:
                    e1:76:b2:08:a2:cb:45:48:a9:80:fd:36:76:5f:1c:
                    eb:f8:29:fd:6f:3e:79:79:e7:a2:54:42:f8:64:27:
                    fe:af:94:9d:09:da:3f:96:c6:a5:ed:40:df:44:8e:
                    c1:1e:43:74:f0:89:85:50:5a:47:0e:52:21:b4:5e:
                    62:cd:21:75:f8:9b:4d:05:6c:ee:41:38:bf:89:8f:
                    62:c2:57:9c:fb:30:ca:00:d6:65:25:c1:a8:cf:90:
                    8e:05:7f:cc:d0:25:f1:21:64:f3:5c:f4:06:22:09:
                    04:d5:0d:c4:68:af:37:da:39:21:be:a2:93:60:03:
                    f6:13:c9:34:a9:21:4e:d7:d3:1e:42:90:eb:79:95:
                    8b:ab:14:1a:fb:1d:fc:4a:68:08:1f:90:08:b6:65:
                    10:29:88:59:20:74:84:dd:04:5c:74:0f:14:22:f6:
                    dc:7d:8d:a3:8a:8e:93:1a:3d:3a:a3:ab:ca:b0:a4:
                    07:ff:e6:cd:93:03:ba:f4:12:b3:8b:e2:30:56:6b:
                    5c:c6:e9:fa:0f:57:00:02:2c:98:63:60:22:48:9b:
                    2a:c5:5a:3f:79:2c:af:fb:29:24:61:19:bf:dc:c2:
                    24:a3:7e:9d:10:d9:e9:d7:b3:a4:87:e2:22:bf:7b:
                    a1:53:60:06:3b:3d:63:d2:2b:2c:92:dc:a9:5a:40:
                    af:72:38:d3:6b:54:fe:09:28:24:bd:bd:4d:32:7b:
                    18:f0:7f
                Exponent: 65537 (0x10001)
        X509v3 extensions:
            X509v3 Basic Constraints: 
                CA:FALSE
            Netscape Comment: 
                Easy-RSA Generated Certificate
            X509v3 Subject Key Identifier: 
                72:77:A5:3B:D9:19:97:4C:43:EB:38:60:D1:35:43:BC:08:A5:67:75
            X509v3 Authority Key Identifier: 
                keyid:12:CD:60:04:D2:A0:80:9E:70:ED:C6:99:B8:7B:2C:C6:52:FD:19:A1
                DirName:/C=US/ST=OH/L=Columbus/O=VikingVPN/OU=MyOrganizationalUnit/CN=VikingVPN CA/name=EasyRSA/emailAddress=me@myhost.mydomain
                serial:CF:35:85:EE:80:BF:2A:3E

            X509v3 Extended Key Usage: 
                TLS Web Client Authentication
            X509v3 Key Usage: 
                Digital Signature
    Signature Algorithm: md5WithRSAEncryption
         19:d2:79:a4:c9:31:e0:b5:2b:d4:d9:f3:6a:39:b2:78:19:82:
         51:5a:01:d1:27:78:dd:b2:e9:9f:06:eb:7b:65:6d:ef:c2:40:
         9f:c3:f9:49:4a:0a:a1:04:80:a6:7e:3b:a3:a3:21:4b:f1:ca:
         5a:0c:47:86:1d:a7:f5:8e:1a:95:cf:2a:5e:50:78:88:e4:2b:
         49:50:8b:d1:31:6b:eb:5f:9d:9d:8a:e1:47:26:b2:f1:70:df:
         04:f6:c7:a3:68:b4:d2:31:7d:e4:83:3b:d1:fc:7f:84:93:72:
         ce:d1:14:1a:e3:b1:fd:2e:64:03:04:d1:ce:69:2d:4b:a6:33:
         8a:e6:7a:c2:21:11:7c:90:53:bf:9a:b5:c0:e5:f1:58:7f:af:
         bb:ee:1c:44:51:bf:b0:03:da:f4:d5:7c:92:9e:0e:01:b0:a6:
         9a:d7:e6:be:12:57:c7:03:87:ec:97:c6:12:29:b9:8b:21:5b:
         24:01:56:7c:b8:a0:e4:a5:c3:e6:32:3f:d4:6e:1a:35:e8:05:
         3d:0a:c8:e7:5c:14:f0:37:48:da:61:6f:f7:34:73:4f:fb:bb:
         7c:c5:ef:43:77:0a:3a:df:a3:b5:95:b0:9b:32:96:24:fe:c8:
         0f:a0:2b:97:ed:6f:b5:96:31:fa:b9:48:14:02:ae:78:91:7c:
         bf:3d:42:e8:a3:d2:d2:9b:03:9d:29:92:ae:5d:0c:a7:33:f7:
         7e:03:de:c4:fc:32:51:4e:5c:f7:59:f8:cb:8b:50:7b:0b:79:
         4a:2d:e0:d8:ce:6e:ba:23:de:c9:8b:ff:16:a8:bf:b1:82:0f:
         60:ac:ce:f4:04:05:cc:94:42:60:a7:b1:19:aa:b8:26:26:d9:
         63:d8:85:c1:ba:09:54:72:d5:de:a8:36:81:35:cb:6f:c6:bb:
         ee:40:3c:55:1c:5c:17:ec:a4:ad:ee:21:87:b9:74:bc:13:53:
         93:c8:1c:eb:af:f2:da:02:69:55:d0:17:30:f9:3d:ee:f8:a8:
         9c:8f:57:9e:5d:b1:77:c6:fc:6d:fa:fd:e3:a9:55:9b:04:ce:
         53:1e:1a:4e:0d:25:7a:b1:55:df:a8:ea:a0:03:91:85:2c:9d:
         17:8c:3c:bc:ab:ce:41:bf:22:db:7e:59:3d:9c:2c:de:55:54:
         ec:f8:c1:61:fb:38:ff:c9:46:fb:7b:49:e5:94:e6:d3:4e:40:
         36:ab:6b:b0:71:1c:2b:3b:ed:67:da:d1:03:da:9b:1b:02:c2:
         44:07:f5:d4:9a:20:66:7f:bd:01:32:66:0c:16:05:56:cd:c2:
         bb:a6:a0:85:f7:b7:d0:2c:39:ef:a7:74:9d:fe:7c:54:b9:9c:
         03:50:0a:51:32:57:64:28
-----BEGIN CERTIFICATE-----
MIIGrTCCBJWgAwIBAgICHa0wDQYJKoZIhvcNAQEEBQAwgawxCzAJBgNVBAYTAlVT
MQswCQYDVQQIEwJPSDERMA8GA1UEBxMIQ29sdW1idXMxEjAQBgNVBAoTCVZpa2lu
Z1ZQTjEdMBsGA1UECxMUTXlPcmdhbml6YXRpb25hbFVuaXQxFTATBgNVBAMTDFZp
a2luZ1ZQTiBDQTEQMA4GA1UEKRMHRWFzeVJTQTEhMB8GCSqGSIb3DQEJARYSbWVA
bXlob3N0Lm15ZG9tYWluMB4XDTE2MDMyMzE0NTQ1NVoXDTI2MDMyMTE0NTQ1NVow
HzEdMBsGA1UEAxMUQ2xpZW50MjE5MENlcnQ1YTI4MjgwggIiMA0GCSqGSIb3DQEB
AQUAA4ICDwAwggIKAoICAQCsDzfHgIiEo4BoQj7YMXRZitHvWl8BnY395lt0ZVft
hJDBKIPDrisTEffoO0wBGBPHmvW43mGeOOZW1GYvY18eItwlis4zY7VYFciYV1w+
wJLCD3it81N36ILoAab2BS6A64X2rJacnk8z1qc5pwEU2+gQmbpJ4Pz8d1axs1VM
pQ4FVLFwFGJH9nytgpb5OU7x1AoBHEdCkwZjufvfrxhw5Ikwi+9cYPj7gXRFprrY
bN6Jjx2hYg2lRjoDDPKpKXdQj+CgHZHaGJTsYaMlBYdQzIdxwMIpFd+ZOTzIVWea
VpEQ6fFdSdG7uWuSD2H0w+F2sgiiy0VIqYD9NnZfHOv4Kf1vPnl556JUQvhkJ/6v
lJ0J2j+WxqXtQN9EjsEeQ3TwiYVQWkcOUiG0XmLNIXX4m00FbO5BOL+Jj2LCV5z7
MMoA1mUlwajPkI4Ff8zQJfEhZPNc9AYiCQTVDcRorzfaOSG+opNgA/YTyTSpIU7X
0x5CkOt5lYurFBr7HfxKaAgfkAi2ZRApiFkgdITdBFx0DxQi9tx9jaOKjpMaPTqj
q8qwpAf/5s2TA7r0ErOL4jBWa1zG6foPVwACLJhjYCJImyrFWj95LK/7KSRhGb/c
wiSjfp0Q2enXs6SH4iK/e6FTYAY7PWPSKyyS3KlaQK9yONNrVP4JKCS9vU0yexjw
fwIDAQABo4IBYzCCAV8wCQYDVR0TBAIwADAtBglghkgBhvhCAQ0EIBYeRWFzeS1S
U0EgR2VuZXJhdGVkIENlcnRpZmljYXRlMB0GA1UdDgQWBBRyd6U72RmXTEPrOGDR
NUO8CKVndTCB4QYDVR0jBIHZMIHWgBQSzWAE0qCAnnDtxpm4eyzGUv0ZoaGBsqSB
rzCBrDELMAkGA1UEBhMCVVMxCzAJBgNVBAgTAk9IMREwDwYDVQQHEwhDb2x1bWJ1
czESMBAGA1UEChMJVmlraW5nVlBOMR0wGwYDVQQLExRNeU9yZ2FuaXphdGlvbmFs
VW5pdDEVMBMGA1UEAxMMVmlraW5nVlBOIENBMRAwDgYDVQQpEwdFYXN5UlNBMSEw
HwYJKoZIhvcNAQkBFhJtZUBteWhvc3QubXlkb21haW6CCQDPNYXugL8qPjATBgNV
HSUEDDAKBggrBgEFBQcDAjALBgNVHQ8EBAMCB4AwDQYJKoZIhvcNAQEEBQADggIB
ABnSeaTJMeC1K9TZ82o5sngZglFaAdEneN2y6Z8G63tlbe/CQJ/D+UlKCqEEgKZ+
O6OjIUvxyloMR4Ydp/WOGpXPKl5QeIjkK0lQi9Exa+tfnZ2K4UcmsvFw3wT2x6No
tNIxfeSDO9H8f4STcs7RFBrjsf0uZAME0c5pLUumM4rmesIhEXyQU7+atcDl8Vh/
r7vuHERRv7AD2vTVfJKeDgGwpprX5r4SV8cDh+yXxhIpuYshWyQBVny4oOSlw+Yy
P9RuGjXoBT0KyOdcFPA3SNphb/c0c0/7u3zF70N3Cjrfo7WVsJsyliT+yA+gK5ft
b7WWMfq5SBQCrniRfL89Quij0tKbA50pkq5dDKcz934D3sT8MlFOXPdZ+MuLUHsL
eUot4NjObroj3smL/xaov7GCD2CszvQEBcyUQmCnsRmquCYm2WPYhcG6CVRy1d6o
NoE1y2/Gu+5APFUcXBfspK3uIYe5dLwTU5PIHOuv8toCaVXQFzD5Pe74qJyPV55d
sXfG/G36/eOpVZsEzlMeGk4NJXqxVd+o6qADkYUsnReMPLyrzkG/Itt+WT2cLN5V
VOz4wWH7OP/JRvt7SeWU5tNOQDara7BxHCs77Wfa0QPamxsCwkQH9dSaIGZ/vQEy
ZgwWBVbNwrumoIX3t9AsOe+ndJ3+fFS5nANQClEyV2Qo
-----END CERTIFICATE-----
