Certificate:
    Data:
        Version: 3 (0x2)
        Serial Number: 11767 (0x2df7)
    Signature Algorithm: sha256WithRSAEncryption
        Issuer: C=US, ST=OH, L=Columbus, O=VikingVPN, OU=MyOrganizationalUnit, CN=VikingVPN CA/name=EasyRSA/emailAddress=me@myhost.mydomain
        Validity
            Not Before: Sep  3 06:15:44 2017 GMT
            Not After : Sep  1 06:15:44 2027 GMT
        Subject: CN=Client1799Cert0b3908
        Subject Public Key Info:
            Public Key Algorithm: rsaEncryption
                Public-Key: (4096 bit)
                Modulus:
                    00:bd:76:95:45:f5:ab:f1:a8:b6:c2:31:86:33:1e:
                    44:d6:a3:34:6b:03:23:80:ce:8e:d6:26:cb:86:a8:
                    e7:e6:56:df:8b:6b:61:91:19:d9:36:e6:91:79:97:
                    e7:42:fb:30:33:c7:7f:5e:b8:c1:78:af:e7:48:8f:
                    7a:f6:d7:ff:93:7e:2a:6f:d9:9b:d7:f6:b8:39:63:
                    9e:11:a6:a9:eb:de:9d:22:1b:45:67:a2:c4:f7:c3:
                    91:aa:f1:2e:39:e2:51:b9:72:cc:ef:ba:5f:fe:20:
                    ba:c1:c6:4b:27:88:1a:cf:2f:fc:79:61:84:b9:c2:
                    46:fe:2a:ce:2b:ef:b7:29:9b:c9:e7:ea:b3:f5:43:
                    6c:2f:fe:68:1c:e2:cd:b3:b3:52:5b:5f:c8:be:ac:
                    b3:dd:40:c7:21:ba:51:44:c9:cb:09:45:9f:b0:96:
                    ce:1b:34:58:d7:8e:11:1f:18:95:7d:1e:04:ac:71:
                    c1:79:54:85:be:78:bc:19:60:48:c8:31:2f:56:96:
                    46:c2:76:42:39:7a:80:31:95:4d:9b:d3:05:7a:b0:
                    5d:6a:de:2f:e4:6b:8f:92:54:8f:cf:e3:80:03:81:
                    e1:36:d0:48:17:77:4e:4a:b1:2f:ef:eb:46:b8:40:
                    00:9f:c8:16:13:be:d6:ba:3e:b7:07:05:be:e8:ed:
                    26:a3:f8:cc:8e:c7:80:9b:07:8d:cb:b2:a5:08:1a:
                    4c:2e:6e:36:65:95:59:f5:e0:d0:fe:1a:20:47:b2:
                    9d:0c:43:c5:73:20:04:40:fe:2e:74:e4:d0:f3:79:
                    e0:8d:53:02:5b:84:b1:59:8b:60:56:65:0d:47:7d:
                    38:b9:15:47:d3:55:8f:3a:37:84:fc:68:62:e6:6b:
                    bf:fc:a9:5a:23:a8:6a:88:2b:9c:3f:96:e6:dc:2a:
                    61:ff:2d:3f:37:12:b3:5f:38:e5:a4:09:e5:db:86:
                    70:d9:ef:9e:5b:57:98:0e:ca:47:77:48:9f:6f:99:
                    9d:f5:8c:56:1f:1e:4a:ce:96:ae:70:57:60:af:14:
                    8d:7e:43:4c:79:e0:b6:fa:1c:d2:56:33:d4:f6:db:
                    32:21:83:3e:0a:d0:e6:d0:68:98:d9:a4:93:7a:0f:
                    07:7e:17:6a:57:39:62:fc:06:e9:41:a5:2a:81:a7:
                    8c:d5:ab:b4:60:c4:87:70:be:cb:80:f5:c5:33:b2:
                    96:86:2c:bd:a4:17:d5:6f:83:9a:a4:1a:97:a8:22:
                    42:98:78:a7:33:b0:4d:a7:04:83:38:1c:fe:2c:2d:
                    7c:bb:c4:c5:30:92:83:c0:77:d6:78:b3:c7:24:a5:
                    d7:f0:44:ae:61:73:07:1b:61:b1:50:49:82:49:d5:
                    17:ed:0b
                Exponent: 65537 (0x10001)
        X509v3 extensions:
            X509v3 Basic Constraints: 
                CA:FALSE
            Netscape Comment: 
                Easy-RSA Generated Certificate
            X509v3 Subject Key Identifier: 
                E8:18:54:D9:DE:CE:B3:01:55:2F:AB:47:BD:A9:22:CD:3F:26:E5:68
            X509v3 Authority Key Identifier: 
                keyid:12:CD:60:04:D2:A0:80:9E:70:ED:C6:99:B8:7B:2C:C6:52:FD:19:A1
                DirName:/C=US/ST=OH/L=Columbus/O=VikingVPN/OU=MyOrganizationalUnit/CN=VikingVPN CA/name=EasyRSA/emailAddress=me@myhost.mydomain
                serial:CF:35:85:EE:80:BF:2A:3E

            X509v3 Extended Key Usage: 
                TLS Web Client Authentication
            X509v3 Key Usage: 
                Digital Signature
    Signature Algorithm: sha256WithRSAEncryption
         45:b3:ab:c4:45:82:a5:5a:42:eb:50:4a:43:cf:ce:da:6b:84:
         07:55:40:26:e5:07:ac:a2:34:31:62:10:a8:fc:34:54:c4:d3:
         b2:e1:d3:f3:4d:13:10:21:80:af:6d:20:b7:a6:8d:d1:6c:ec:
         fe:a4:92:75:d4:5d:df:a8:6e:17:1a:bd:c2:b4:c4:df:ff:6e:
         f5:1e:d0:4b:14:ac:b1:96:50:1a:c7:94:02:1f:35:5d:b3:0d:
         3f:ae:38:13:49:42:4a:00:8f:3b:89:c8:7c:76:f1:df:f6:58:
         b0:fd:ec:72:5e:43:11:d0:ba:c3:53:34:31:b3:15:fb:7b:d0:
         4d:ad:a9:10:c6:a8:f0:45:0b:64:43:48:61:a7:7a:8e:ee:46:
         be:5d:24:84:af:c6:de:f7:9f:28:d9:6d:07:0e:e3:97:21:9e:
         d5:00:bb:c7:b5:a7:45:93:b3:bf:42:47:29:de:27:e8:cd:9f:
         09:7f:29:44:c8:2e:39:ea:10:11:91:d9:2a:4d:41:b8:a5:20:
         97:22:58:2d:c5:48:40:b2:31:b8:65:5c:3e:18:f2:1e:aa:40:
         10:d4:81:85:e8:f4:9b:8b:f0:6d:25:59:36:ce:c7:cc:c4:bc:
         47:38:5f:3c:e0:3d:59:a8:e6:ee:63:0e:50:80:05:a9:74:a3:
         5b:79:e7:50:3e:e3:b5:20:ba:64:13:3c:6c:f3:01:80:c2:27:
         fa:76:84:47:a8:e8:b1:96:e8:20:37:c1:b5:bb:3a:54:9e:3a:
         62:7f:48:d5:39:d6:13:d4:a1:07:68:bc:b1:cc:a7:96:13:d0:
         61:89:fd:80:eb:88:47:85:01:44:94:c2:92:f0:9c:46:ef:57:
         12:7f:b7:2e:fc:15:0f:56:ec:ff:a7:60:35:d9:e4:3a:60:6d:
         37:fd:4b:03:c6:81:1e:66:1a:77:77:32:06:9e:f2:0a:06:7a:
         0d:36:ef:34:ad:11:cf:21:cd:0f:33:50:3f:70:46:32:74:28:
         3f:92:60:a1:79:1f:3d:b5:61:87:79:b4:eb:54:15:5d:09:24:
         71:11:f5:a1:ef:71:84:7d:a8:66:be:25:51:bf:d4:d5:07:8d:
         ef:c2:d0:06:57:8f:3b:ab:00:fd:34:12:f0:23:79:c1:45:4f:
         ca:29:57:4b:bc:b6:d7:c9:51:86:9f:27:17:54:bb:c3:08:bd:
         16:98:2c:a8:5b:b1:10:e0:a8:75:55:da:3e:5b:10:e7:42:b5:
         52:e5:aa:7d:bc:46:db:ea:bb:d4:cb:9d:31:95:ff:98:c5:2b:
         f9:12:58:22:be:f7:fe:fa:ff:6f:b9:40:4e:2b:e3:c8:5f:7d:
         b2:e6:d3:77:35:18:03:8c
-----BEGIN CERTIFICATE-----
MIIGrTCCBJWgAwIBAgICLfcwDQYJKoZIhvcNAQELBQAwgawxCzAJBgNVBAYTAlVT
MQswCQYDVQQIEwJPSDERMA8GA1UEBxMIQ29sdW1idXMxEjAQBgNVBAoTCVZpa2lu
Z1ZQTjEdMBsGA1UECxMUTXlPcmdhbml6YXRpb25hbFVuaXQxFTATBgNVBAMTDFZp
a2luZ1ZQTiBDQTEQMA4GA1UEKRMHRWFzeVJTQTEhMB8GCSqGSIb3DQEJARYSbWVA
bXlob3N0Lm15ZG9tYWluMB4XDTE3MDkwMzA2MTU0NFoXDTI3MDkwMTA2MTU0NFow
HzEdMBsGA1UEAxMUQ2xpZW50MTc5OUNlcnQwYjM5MDgwggIiMA0GCSqGSIb3DQEB
AQUAA4ICDwAwggIKAoICAQC9dpVF9avxqLbCMYYzHkTWozRrAyOAzo7WJsuGqOfm
Vt+La2GRGdk25pF5l+dC+zAzx39euMF4r+dIj3r21/+Tfipv2ZvX9rg5Y54Rpqnr
3p0iG0VnosT3w5Gq8S454lG5cszvul/+ILrBxksniBrPL/x5YYS5wkb+Ks4r77cp
m8nn6rP1Q2wv/mgc4s2zs1JbX8i+rLPdQMchulFEycsJRZ+wls4bNFjXjhEfGJV9
HgSsccF5VIW+eLwZYEjIMS9WlkbCdkI5eoAxlU2b0wV6sF1q3i/ka4+SVI/P44AD
geE20EgXd05KsS/v60a4QACfyBYTvta6PrcHBb7o7Saj+MyOx4CbB43LsqUIGkwu
bjZllVn14ND+GiBHsp0MQ8VzIARA/i505NDzeeCNUwJbhLFZi2BWZQ1HfTi5FUfT
VY86N4T8aGLma7/8qVojqGqIK5w/lubcKmH/LT83ErNfOOWkCeXbhnDZ755bV5gO
ykd3SJ9vmZ31jFYfHkrOlq5wV2CvFI1+Q0x54Lb6HNJWM9T22zIhgz4K0ObQaJjZ
pJN6Dwd+F2pXOWL8BulBpSqBp4zVq7RgxIdwvsuA9cUzspaGLL2kF9Vvg5qkGpeo
IkKYeKczsE2nBIM4HP4sLXy7xMUwkoPAd9Z4s8ckpdfwRK5hcwcbYbFQSYJJ1Rft
CwIDAQABo4IBYzCCAV8wCQYDVR0TBAIwADAtBglghkgBhvhCAQ0EIBYeRWFzeS1S
U0EgR2VuZXJhdGVkIENlcnRpZmljYXRlMB0GA1UdDgQWBBToGFTZ3s6zAVUvq0e9
qSLNPyblaDCB4QYDVR0jBIHZMIHWgBQSzWAE0qCAnnDtxpm4eyzGUv0ZoaGBsqSB
rzCBrDELMAkGA1UEBhMCVVMxCzAJBgNVBAgTAk9IMREwDwYDVQQHEwhDb2x1bWJ1
czESMBAGA1UEChMJVmlraW5nVlBOMR0wGwYDVQQLExRNeU9yZ2FuaXphdGlvbmFs
VW5pdDEVMBMGA1UEAxMMVmlraW5nVlBOIENBMRAwDgYDVQQpEwdFYXN5UlNBMSEw
HwYJKoZIhvcNAQkBFhJtZUBteWhvc3QubXlkb21haW6CCQDPNYXugL8qPjATBgNV
HSUEDDAKBggrBgEFBQcDAjALBgNVHQ8EBAMCB4AwDQYJKoZIhvcNAQELBQADggIB
AEWzq8RFgqVaQutQSkPPztprhAdVQCblB6yiNDFiEKj8NFTE07Lh0/NNExAhgK9t
ILemjdFs7P6kknXUXd+obhcavcK0xN//bvUe0EsUrLGWUBrHlAIfNV2zDT+uOBNJ
QkoAjzuJyHx28d/2WLD97HJeQxHQusNTNDGzFft70E2tqRDGqPBFC2RDSGGneo7u
Rr5dJISvxt73nyjZbQcO45chntUAu8e1p0WTs79CRyneJ+jNnwl/KUTILjnqEBGR
2SpNQbilIJciWC3FSECyMbhlXD4Y8h6qQBDUgYXo9JuL8G0lWTbOx8zEvEc4Xzzg
PVmo5u5jDlCABal0o1t551A+47UgumQTPGzzAYDCJ/p2hEeo6LGW6CA3wbW7OlSe
OmJ/SNU51hPUoQdovLHMp5YT0GGJ/YDriEeFAUSUwpLwnEbvVxJ/ty78FQ9W7P+n
YDXZ5DpgbTf9SwPGgR5mGnd3Mgae8goGeg027zStEc8hzQ8zUD9wRjJ0KD+SYKF5
Hz21YYd5tOtUFV0JJHER9aHvcYR9qGa+JVG/1NUHje/C0AZXjzurAP00EvAjecFF
T8opV0u8ttfJUYafJxdUu8MIvRaYLKhbsRDgqHVV2j5bEOdCtVLlqn28Rtvqu9TL
nTGV/5jFK/kSWCK+9/76/2+5QE4r48hffbLm03c1GAOM
-----END CERTIFICATE-----
