Certificate:
    Data:
        Version: 3 (0x2)
        Serial Number: 4197 (0x1065)
    Signature Algorithm: md5WithRSAEncryption
        Issuer: C=US, ST=OH, L=Columbus, O=VikingVPN, OU=MyOrganizationalUnit, CN=VikingVPN CA/name=EasyRSA/emailAddress=me@myhost.mydomain
        Validity
            Not Before: Jan 19 11:55:30 2015 GMT
            Not After : Jan 16 11:55:30 2025 GMT
        Subject: CN=Client1364Cert4a02d5
        Subject Public Key Info:
            Public Key Algorithm: rsaEncryption
                Public-Key: (4096 bit)
                Modulus:
                    00:bf:40:1d:7e:aa:ca:37:db:9f:50:7b:48:0e:fc:
                    f0:c7:8b:13:9f:ba:e1:cc:b3:e4:d4:53:cd:7a:d7:
                    1d:96:69:06:27:73:fe:fd:50:26:84:9e:ab:39:0d:
                    40:38:c5:52:a7:90:2d:c8:54:55:1e:47:ea:89:20:
                    4b:b4:c8:dd:ac:ad:53:8c:af:5f:81:fe:e2:21:d6:
                    0c:b6:e8:8b:21:9c:4c:24:b8:73:ff:41:de:96:22:
                    e1:86:fc:4b:ed:1a:2a:07:e5:ce:86:9b:fc:d4:7a:
                    9c:1b:9a:74:04:58:96:ec:80:e0:88:3e:5c:0b:23:
                    44:9a:e2:3b:e1:af:76:8b:d1:83:8a:b8:c6:69:e5:
                    39:da:13:d2:61:8a:d6:02:32:a2:81:e1:8e:a5:22:
                    99:7c:eb:12:88:e7:b6:98:27:de:da:e0:12:2c:66:
                    ca:a9:d8:37:3c:29:10:00:a5:d3:2b:3d:9c:4f:05:
                    8a:de:12:cb:be:5e:b5:38:1c:b3:8d:a5:59:17:45:
                    8d:7d:eb:1e:d3:7c:f4:09:dd:d3:bc:2f:34:f8:ea:
                    2e:b2:06:94:9e:26:52:a6:77:1b:04:97:a0:37:67:
                    a0:c9:45:24:54:3a:14:e5:42:68:f2:c5:7d:16:0c:
                    46:14:90:a4:ea:0c:e2:e7:e5:7e:f8:e9:f2:7a:00:
                    36:60:b8:ed:1e:22:24:00:ac:e1:fc:96:bc:25:7e:
                    fc:2f:67:f8:63:0a:27:b7:fe:b8:77:94:99:73:64:
                    af:3f:12:9a:0f:6a:2c:dd:5e:60:1d:25:c0:d3:51:
                    8b:ae:72:e7:dd:3f:39:71:4f:cb:92:46:01:31:f0:
                    88:5d:85:78:d9:f8:08:d6:ac:45:98:4a:0d:55:78:
                    ec:b1:1f:8a:33:69:0a:f3:a4:31:23:67:b2:c9:2f:
                    bc:4e:25:be:74:ed:1a:fc:8e:0f:f8:b4:6c:ab:a4:
                    bd:85:86:dc:d2:51:bb:e6:9a:a2:f6:99:de:b7:4a:
                    91:35:2c:40:80:70:b4:fd:fe:f6:0d:02:9e:f0:0e:
                    ef:f1:83:9a:c9:1e:11:42:78:0f:b9:55:22:64:0c:
                    5d:b2:fb:34:28:ca:fa:a7:36:13:43:5f:3e:f9:c0:
                    98:eb:87:fb:8b:8d:89:d4:11:ab:b8:91:6b:c6:fe:
                    d4:8c:44:66:97:28:e4:cb:e1:04:96:28:54:31:67:
                    2f:48:8e:c0:e3:4e:c3:7b:dc:cb:ee:d9:1b:bf:f0:
                    2c:95:2b:9c:db:7e:49:a6:04:05:3e:28:c8:83:fd:
                    00:f7:34:c4:fd:44:79:63:9f:ff:fa:be:5f:7e:c8:
                    d8:f6:72:5a:5b:cf:09:1d:02:ba:e0:1a:0f:a3:29:
                    c0:1a:65
                Exponent: 65537 (0x10001)
        X509v3 extensions:
            X509v3 Basic Constraints: 
                CA:FALSE
            Netscape Comment: 
                Easy-RSA Generated Certificate
            X509v3 Subject Key Identifier: 
                E2:2D:9B:B1:B5:06:F9:B6:FA:B4:41:DF:C4:CF:71:19:2F:C4:D5:E5
            X509v3 Authority Key Identifier: 
                keyid:12:CD:60:04:D2:A0:80:9E:70:ED:C6:99:B8:7B:2C:C6:52:FD:19:A1
                DirName:/C=US/ST=OH/L=Columbus/O=VikingVPN/OU=MyOrganizationalUnit/CN=VikingVPN CA/name=EasyRSA/emailAddress=me@myhost.mydomain
                serial:CF:35:85:EE:80:BF:2A:3E

            X509v3 Extended Key Usage: 
                TLS Web Client Authentication
            X509v3 Key Usage: 
                Digital Signature
    Signature Algorithm: md5WithRSAEncryption
         b4:e2:e7:82:38:90:62:ca:f8:83:f1:2f:94:8f:c2:c1:09:e8:
         35:ce:9d:79:e2:c8:40:53:48:ff:ef:32:78:b0:78:60:15:18:
         6a:15:73:07:f4:6c:fc:81:aa:05:3c:ab:9a:57:e1:b3:04:f1:
         c5:f9:a3:1a:af:c7:25:dd:db:68:e9:80:dd:6c:0b:0b:f1:00:
         9b:13:fc:df:96:11:df:ce:ac:63:63:7a:25:ca:af:1e:b6:94:
         e5:a5:04:a1:7b:48:8b:c2:c2:2d:91:d4:97:ad:60:c1:8d:e9:
         b0:fe:9f:87:15:20:ef:53:08:f6:b4:93:4c:74:a4:9d:41:37:
         fe:77:41:76:ec:e1:65:07:b0:a8:1d:97:1e:40:6d:c7:99:c5:
         a5:74:03:e1:57:65:58:e4:55:6e:d8:c5:6a:fa:35:90:ee:02:
         67:4e:d2:23:a2:d0:40:85:6c:ee:0d:b9:17:ab:a9:e6:91:35:
         d6:40:a7:80:b9:89:1c:87:f3:18:a6:31:70:12:62:0c:13:27:
         cb:08:90:eb:f7:6d:94:72:6b:a0:6e:9b:11:60:18:08:ae:2f:
         93:53:d2:8d:1c:a5:09:69:60:83:24:96:1a:94:33:dc:58:ca:
         55:38:92:e8:34:b4:57:cb:7e:4d:f1:0e:65:19:76:62:3d:71:
         65:b2:1b:57:61:e3:55:29:62:97:da:44:ff:f7:05:65:79:ca:
         ba:25:00:d5:f9:1e:fa:1c:60:80:89:61:3b:3b:4f:56:86:57:
         2c:70:2a:2e:60:71:f7:51:83:bd:fc:14:00:73:b4:a1:c2:8c:
         5e:ab:e4:eb:ea:3f:a7:b1:f9:2c:03:62:25:c2:93:b2:99:0c:
         84:bb:11:ca:2e:73:a1:46:c1:07:67:47:47:96:26:cc:ea:78:
         0b:01:6e:9b:6d:70:37:97:bb:f7:21:92:1e:83:a6:80:32:4a:
         c1:81:51:dc:26:80:f8:5b:76:cd:6d:06:c4:a1:2c:46:1e:2e:
         dd:b9:23:b8:e8:cb:c3:3a:31:ee:75:64:91:93:3b:9a:af:c5:
         5c:0b:5c:04:02:3e:42:64:55:33:51:bc:c9:29:31:60:d7:62:
         20:58:6a:34:63:38:2b:53:ee:0d:28:9c:cb:08:1c:34:28:83:
         65:25:0a:43:1c:f3:36:c5:37:b2:f1:20:ec:49:be:74:1e:de:
         0d:ee:c2:e0:a3:ca:a1:6a:08:9e:00:96:bd:58:b0:6d:f9:8a:
         c2:9d:36:5c:c3:37:07:d2:e5:6f:b3:7f:3b:56:18:f4:68:1e:
         86:93:ba:1d:a4:a8:de:57:b0:4a:2e:97:ca:7e:f3:17:69:c0:
         bf:89:41:92:d2:fc:60:38
-----BEGIN CERTIFICATE-----
MIIGrTCCBJWgAwIBAgICEGUwDQYJKoZIhvcNAQEEBQAwgawxCzAJBgNVBAYTAlVT
MQswCQYDVQQIEwJPSDERMA8GA1UEBxMIQ29sdW1idXMxEjAQBgNVBAoTCVZpa2lu
Z1ZQTjEdMBsGA1UECxMUTXlPcmdhbml6YXRpb25hbFVuaXQxFTATBgNVBAMTDFZp
a2luZ1ZQTiBDQTEQMA4GA1UEKRMHRWFzeVJTQTEhMB8GCSqGSIb3DQEJARYSbWVA
bXlob3N0Lm15ZG9tYWluMB4XDTE1MDExOTExNTUzMFoXDTI1MDExNjExNTUzMFow
HzEdMBsGA1UEAxMUQ2xpZW50MTM2NENlcnQ0YTAyZDUwggIiMA0GCSqGSIb3DQEB
AQUAA4ICDwAwggIKAoICAQC/QB1+qso3259Qe0gO/PDHixOfuuHMs+TUU8161x2W
aQYnc/79UCaEnqs5DUA4xVKnkC3IVFUeR+qJIEu0yN2srVOMr1+B/uIh1gy26Ish
nEwkuHP/Qd6WIuGG/EvtGioH5c6Gm/zUepwbmnQEWJbsgOCIPlwLI0Sa4jvhr3aL
0YOKuMZp5TnaE9JhitYCMqKB4Y6lIpl86xKI57aYJ97a4BIsZsqp2Dc8KRAApdMr
PZxPBYreEsu+XrU4HLONpVkXRY196x7TfPQJ3dO8LzT46i6yBpSeJlKmdxsEl6A3
Z6DJRSRUOhTlQmjyxX0WDEYUkKTqDOLn5X746fJ6ADZguO0eIiQArOH8lrwlfvwv
Z/hjCie3/rh3lJlzZK8/EpoPaizdXmAdJcDTUYuucufdPzlxT8uSRgEx8IhdhXjZ
+AjWrEWYSg1VeOyxH4ozaQrzpDEjZ7LJL7xOJb507Rr8jg/4tGyrpL2FhtzSUbvm
mqL2md63SpE1LECAcLT9/vYNAp7wDu/xg5rJHhFCeA+5VSJkDF2y+zQoyvqnNhND
Xz75wJjrh/uLjYnUEau4kWvG/tSMRGaXKOTL4QSWKFQxZy9IjsDjTsN73Mvu2Ru/
8CyVK5zbfkmmBAU+KMiD/QD3NMT9RHljn//6vl9+yNj2clpbzwkdArrgGg+jKcAa
ZQIDAQABo4IBYzCCAV8wCQYDVR0TBAIwADAtBglghkgBhvhCAQ0EIBYeRWFzeS1S
U0EgR2VuZXJhdGVkIENlcnRpZmljYXRlMB0GA1UdDgQWBBTiLZuxtQb5tvq0Qd/E
z3EZL8TV5TCB4QYDVR0jBIHZMIHWgBQSzWAE0qCAnnDtxpm4eyzGUv0ZoaGBsqSB
rzCBrDELMAkGA1UEBhMCVVMxCzAJBgNVBAgTAk9IMREwDwYDVQQHEwhDb2x1bWJ1
czESMBAGA1UEChMJVmlraW5nVlBOMR0wGwYDVQQLExRNeU9yZ2FuaXphdGlvbmFs
VW5pdDEVMBMGA1UEAxMMVmlraW5nVlBOIENBMRAwDgYDVQQpEwdFYXN5UlNBMSEw
HwYJKoZIhvcNAQkBFhJtZUBteWhvc3QubXlkb21haW6CCQDPNYXugL8qPjATBgNV
HSUEDDAKBggrBgEFBQcDAjALBgNVHQ8EBAMCB4AwDQYJKoZIhvcNAQEEBQADggIB
ALTi54I4kGLK+IPxL5SPwsEJ6DXOnXniyEBTSP/vMniweGAVGGoVcwf0bPyBqgU8
q5pX4bME8cX5oxqvxyXd22jpgN1sCwvxAJsT/N+WEd/OrGNjeiXKrx62lOWlBKF7
SIvCwi2R1JetYMGN6bD+n4cVIO9TCPa0k0x0pJ1BN/53QXbs4WUHsKgdlx5AbceZ
xaV0A+FXZVjkVW7YxWr6NZDuAmdO0iOi0ECFbO4NuRerqeaRNdZAp4C5iRyH8xim
MXASYgwTJ8sIkOv3bZRya6BumxFgGAiuL5NT0o0cpQlpYIMklhqUM9xYylU4kug0
tFfLfk3xDmUZdmI9cWWyG1dh41UpYpfaRP/3BWV5yrolANX5HvocYICJYTs7T1aG
VyxwKi5gcfdRg738FABztKHCjF6r5OvqP6ex+SwDYiXCk7KZDIS7Ecouc6FGwQdn
R0eWJszqeAsBbpttcDeXu/chkh6DpoAySsGBUdwmgPhbds1tBsShLEYeLt25I7jo
y8M6Me51ZJGTO5qvxVwLXAQCPkJkVTNRvMkpMWDXYiBYajRjOCtT7g0onMsIHDQo
g2UlCkMc8zbFN7LxIOxJvnQe3g3uwuCjyqFqCJ4Alr1YsG35isKdNlzDNwfS5W+z
fztWGPRoHoaTuh2kqN5XsEoul8p+8xdpwL+JQZLS/GA4
-----END CERTIFICATE-----
