Certificate:
    Data:
        Version: 3 (0x2)
        Serial Number: 11079 (0x2b47)
    Signature Algorithm: sha256WithRSAEncryption
        Issuer: C=US, ST=OH, L=Columbus, O=VikingVPN, OU=MyOrganizationalUnit, CN=VikingVPN CA/name=EasyRSA/emailAddress=me@myhost.mydomain
        Validity
            Not Before: Jun  4 20:46:09 2017 GMT
            Not After : Jun  2 20:46:09 2027 GMT
        Subject: CN=Client2887Cert061627
        Subject Public Key Info:
            Public Key Algorithm: rsaEncryption
                Public-Key: (4096 bit)
                Modulus:
                    00:b5:d6:8b:02:9d:70:d4:64:de:d0:fa:93:be:f8:
                    b9:03:9f:aa:27:55:8e:37:23:50:f7:28:cc:ea:73:
                    01:7b:46:61:09:f8:5c:41:1d:52:74:2c:26:1d:82:
                    45:d4:77:04:c8:65:54:47:34:9b:ca:35:e6:25:bc:
                    42:06:6a:df:37:c7:d4:e9:23:72:43:e5:23:f9:7d:
                    97:53:8a:4b:14:08:0a:c9:c6:e6:1a:93:ec:2e:77:
                    b9:9b:51:cb:1d:de:fa:cb:c9:5c:67:3d:a7:60:70:
                    ad:01:32:fb:c8:8a:5d:4e:d8:24:56:4c:68:5e:ce:
                    4f:e7:62:db:b5:d1:d2:20:a3:78:d3:bb:ef:b4:ea:
                    8b:6c:f5:32:ef:71:71:83:25:bd:09:23:6a:a0:1a:
                    f2:6a:6f:19:16:d7:7b:0b:2c:67:dd:27:42:f4:05:
                    38:7a:2d:d9:6d:12:63:9e:41:af:90:df:2c:1b:ee:
                    25:4d:b9:9b:99:76:6f:a5:a0:de:ac:38:23:9c:04:
                    16:0b:08:06:37:d1:eb:33:3b:b3:93:d7:3a:28:ac:
                    a8:4d:a0:43:b7:a2:a1:f3:ff:35:af:49:f8:25:f8:
                    ef:00:27:55:2a:56:68:d6:12:ef:a1:10:54:c0:6a:
                    37:b1:23:a4:e5:1c:ae:55:75:b2:b3:13:89:cd:4f:
                    91:74:f5:8d:4c:68:18:0b:61:ed:05:3f:7c:b2:cd:
                    f1:bf:d7:5e:08:ac:04:98:67:83:21:8f:6a:84:d8:
                    b6:15:28:f7:da:25:5f:77:b3:5e:68:ff:80:24:de:
                    2e:a3:95:3e:6e:d7:86:ce:a7:02:eb:7b:17:ad:4a:
                    3d:40:ba:6f:12:a3:66:74:de:38:fe:65:df:cd:57:
                    f8:e6:61:60:35:47:90:b9:23:ab:89:39:cc:f2:57:
                    6d:fd:de:bf:e2:c5:82:d0:f9:fc:0f:95:7f:68:f4:
                    5a:ac:c9:d8:df:40:a9:0e:54:1c:33:0c:61:a3:9c:
                    02:80:1b:1c:26:ee:0a:d7:55:29:ca:e2:df:17:b5:
                    23:52:3a:dd:6b:b0:bf:d7:93:fc:5a:f3:3e:4a:3e:
                    c5:ec:92:a6:39:be:51:5d:35:ce:74:88:61:d0:9c:
                    ff:87:e1:bd:27:1c:9d:96:b0:a0:c9:d8:f3:85:26:
                    00:fe:db:42:bb:52:c3:91:12:cf:50:af:d9:aa:8a:
                    7a:7c:a3:e5:85:09:39:6d:5d:7f:78:82:7c:5c:ca:
                    88:9f:dc:09:a8:30:ef:b9:77:1a:91:fe:c0:83:6d:
                    ba:8f:3a:32:a4:94:91:28:d1:c4:bb:99:d5:22:10:
                    9f:0c:09:2d:89:a4:2e:14:d7:d1:81:3f:08:28:bb:
                    30:1d:31
                Exponent: 65537 (0x10001)
        X509v3 extensions:
            X509v3 Basic Constraints: 
                CA:FALSE
            Netscape Comment: 
                Easy-RSA Generated Certificate
            X509v3 Subject Key Identifier: 
                0D:6D:66:06:B2:F4:BB:E8:FA:A8:82:D5:1B:37:35:D3:2A:92:84:83
            X509v3 Authority Key Identifier: 
                keyid:12:CD:60:04:D2:A0:80:9E:70:ED:C6:99:B8:7B:2C:C6:52:FD:19:A1
                DirName:/C=US/ST=OH/L=Columbus/O=VikingVPN/OU=MyOrganizationalUnit/CN=VikingVPN CA/name=EasyRSA/emailAddress=me@myhost.mydomain
                serial:CF:35:85:EE:80:BF:2A:3E

            X509v3 Extended Key Usage: 
                TLS Web Client Authentication
            X509v3 Key Usage: 
                Digital Signature
    Signature Algorithm: sha256WithRSAEncryption
         73:a0:0d:74:82:2d:c1:ac:38:62:58:d4:3d:9e:ab:93:43:54:
         76:93:d5:2e:d3:70:5a:1b:ff:84:df:2c:37:7a:f8:6e:45:3e:
         19:00:31:0e:5b:88:31:a8:43:78:b6:d9:4b:d4:f2:03:19:03:
         45:2c:23:df:7f:ab:19:ca:f3:5f:1b:02:c8:27:b9:df:4f:e6:
         0a:73:79:78:27:a7:49:3a:e8:99:23:f2:b6:4f:71:da:09:d7:
         aa:56:67:c3:40:71:8d:75:81:e9:77:da:8c:d8:31:40:1e:03:
         86:69:13:83:73:9a:e5:89:2f:cb:eb:54:e6:8c:5b:92:6f:f7:
         d3:63:5d:3d:51:60:f2:27:c5:ef:e0:40:01:49:02:9f:ed:dd:
         3e:7b:f5:77:d6:6c:4d:29:4f:58:d4:61:0b:be:06:16:07:e9:
         45:b9:ff:60:da:aa:db:99:f5:39:28:8e:20:dd:3d:42:37:df:
         ed:5b:a4:ee:8e:54:56:b7:f7:69:24:e0:8d:8e:68:14:ec:bf:
         27:22:1a:ec:b1:8d:91:5a:58:18:7d:20:e8:18:8e:ac:3b:3e:
         e2:b7:ed:ff:44:07:20:24:3a:52:9a:91:42:b7:63:8d:ba:b2:
         74:6e:4c:33:1b:57:49:2f:f9:6d:70:1d:0b:8f:22:ed:c4:09:
         bc:99:ea:63:50:4c:42:b7:d0:19:a7:57:2f:fa:a7:6b:34:6e:
         1b:7f:aa:d6:8a:98:d4:c4:bf:3e:4b:93:59:1d:03:b1:15:a4:
         c8:e3:15:8c:e6:6f:4a:b7:0b:b0:65:08:21:26:b8:f2:3f:51:
         19:05:17:99:3b:74:76:09:df:55:fe:1a:36:74:c3:63:6d:36:
         32:c4:aa:1d:38:de:c3:30:ef:ac:7d:e7:24:69:30:d1:95:2a:
         72:41:91:ce:b5:ea:ae:5b:4d:00:ca:4c:b2:e5:60:cc:fc:df:
         15:9c:37:15:d6:f2:c7:ec:bf:a4:a5:e9:8c:e8:cd:5d:63:bf:
         0d:46:1c:df:7c:e4:af:60:51:dc:24:67:d0:3c:aa:9a:bc:76:
         95:2b:9b:b1:50:4b:a1:7e:36:0f:a7:63:b3:67:5c:78:81:56:
         af:dc:aa:25:8b:39:30:8b:36:de:32:22:ca:e9:2f:eb:3f:6e:
         27:71:b8:0c:ad:ea:63:83:22:e7:e4:94:6b:81:c9:41:2e:a0:
         68:f3:a3:6d:ab:fc:3a:da:56:0a:53:cb:c3:b9:78:8e:cb:31:
         11:2d:cd:78:97:90:af:66:ca:1d:c2:8a:c1:24:eb:dc:9c:df:
         0d:0b:5e:ac:4c:d1:e2:51:69:00:41:d0:91:6f:c2:69:27:4e:
         18:00:41:08:b7:5a:e8:36
-----BEGIN CERTIFICATE-----
MIIGrTCCBJWgAwIBAgICK0cwDQYJKoZIhvcNAQELBQAwgawxCzAJBgNVBAYTAlVT
MQswCQYDVQQIEwJPSDERMA8GA1UEBxMIQ29sdW1idXMxEjAQBgNVBAoTCVZpa2lu
Z1ZQTjEdMBsGA1UECxMUTXlPcmdhbml6YXRpb25hbFVuaXQxFTATBgNVBAMTDFZp
a2luZ1ZQTiBDQTEQMA4GA1UEKRMHRWFzeVJTQTEhMB8GCSqGSIb3DQEJARYSbWVA
bXlob3N0Lm15ZG9tYWluMB4XDTE3MDYwNDIwNDYwOVoXDTI3MDYwMjIwNDYwOVow
HzEdMBsGA1UEAxMUQ2xpZW50Mjg4N0NlcnQwNjE2MjcwggIiMA0GCSqGSIb3DQEB
AQUAA4ICDwAwggIKAoICAQC11osCnXDUZN7Q+pO++LkDn6onVY43I1D3KMzqcwF7
RmEJ+FxBHVJ0LCYdgkXUdwTIZVRHNJvKNeYlvEIGat83x9TpI3JD5SP5fZdTiksU
CArJxuYak+wud7mbUcsd3vrLyVxnPadgcK0BMvvIil1O2CRWTGhezk/nYtu10dIg
o3jTu++06ots9TLvcXGDJb0JI2qgGvJqbxkW13sLLGfdJ0L0BTh6LdltEmOeQa+Q
3ywb7iVNuZuZdm+loN6sOCOcBBYLCAY30eszO7OT1zoorKhNoEO3oqHz/zWvSfgl
+O8AJ1UqVmjWEu+hEFTAajexI6TlHK5VdbKzE4nNT5F09Y1MaBgLYe0FP3yyzfG/
114IrASYZ4Mhj2qE2LYVKPfaJV93s15o/4Ak3i6jlT5u14bOpwLrexetSj1Aum8S
o2Z03jj+Zd/NV/jmYWA1R5C5I6uJOczyV2393r/ixYLQ+fwPlX9o9FqsydjfQKkO
VBwzDGGjnAKAGxwm7grXVSnK4t8XtSNSOt1rsL/Xk/xa8z5KPsXskqY5vlFdNc50
iGHQnP+H4b0nHJ2WsKDJ2POFJgD+20K7UsOREs9Qr9mqinp8o+WFCTltXX94gnxc
yoif3AmoMO+5dxqR/sCDbbqPOjKklJEo0cS7mdUiEJ8MCS2JpC4U19GBPwgouzAd
MQIDAQABo4IBYzCCAV8wCQYDVR0TBAIwADAtBglghkgBhvhCAQ0EIBYeRWFzeS1S
U0EgR2VuZXJhdGVkIENlcnRpZmljYXRlMB0GA1UdDgQWBBQNbWYGsvS76PqogtUb
NzXTKpKEgzCB4QYDVR0jBIHZMIHWgBQSzWAE0qCAnnDtxpm4eyzGUv0ZoaGBsqSB
rzCBrDELMAkGA1UEBhMCVVMxCzAJBgNVBAgTAk9IMREwDwYDVQQHEwhDb2x1bWJ1
czESMBAGA1UEChMJVmlraW5nVlBOMR0wGwYDVQQLExRNeU9yZ2FuaXphdGlvbmFs
VW5pdDEVMBMGA1UEAxMMVmlraW5nVlBOIENBMRAwDgYDVQQpEwdFYXN5UlNBMSEw
HwYJKoZIhvcNAQkBFhJtZUBteWhvc3QubXlkb21haW6CCQDPNYXugL8qPjATBgNV
HSUEDDAKBggrBgEFBQcDAjALBgNVHQ8EBAMCB4AwDQYJKoZIhvcNAQELBQADggIB
AHOgDXSCLcGsOGJY1D2eq5NDVHaT1S7TcFob/4TfLDd6+G5FPhkAMQ5biDGoQ3i2
2UvU8gMZA0UsI99/qxnK818bAsgnud9P5gpzeXgnp0k66Jkj8rZPcdoJ16pWZ8NA
cY11gel32ozYMUAeA4ZpE4NzmuWJL8vrVOaMW5Jv99NjXT1RYPInxe/gQAFJAp/t
3T579XfWbE0pT1jUYQu+BhYH6UW5/2DaqtuZ9TkojiDdPUI33+1bpO6OVFa392kk
4I2OaBTsvyciGuyxjZFaWBh9IOgYjqw7PuK37f9EByAkOlKakUK3Y426snRuTDMb
V0kv+W1wHQuPIu3ECbyZ6mNQTEK30BmnVy/6p2s0bht/qtaKmNTEvz5Lk1kdA7EV
pMjjFYzmb0q3C7BlCCEmuPI/URkFF5k7dHYJ31X+GjZ0w2NtNjLEqh043sMw76x9
5yRpMNGVKnJBkc616q5bTQDKTLLlYMz83xWcNxXW8sfsv6Sl6YzozV1jvw1GHN98
5K9gUdwkZ9A8qpq8dpUrm7FQS6F+Ng+nY7NnXHiBVq/cqiWLOTCLNt4yIsrpL+s/
bidxuAyt6mODIufklGuByUEuoGjzo22r/DraVgpTy8O5eI7LMREtzXiXkK9myh3C
isEk69yc3w0LXqxM0eJRaQBB0JFvwmknThgAQQi3Wug2
-----END CERTIFICATE-----
