Certificate:
    Data:
        Version: 3 (0x2)
        Serial Number: 5892 (0x1704)
    Signature Algorithm: md5WithRSAEncryption
        Issuer: C=US, ST=OH, L=Columbus, O=VikingVPN, OU=MyOrganizationalUnit, CN=VikingVPN CA/name=EasyRSA/emailAddress=me@myhost.mydomain
        Validity
            Not Before: Jul 22 14:06:52 2015 GMT
            Not After : Jul 19 14:06:52 2025 GMT
        Subject: CN=Client1851Cert43be70
        Subject Public Key Info:
            Public Key Algorithm: rsaEncryption
                Public-Key: (4096 bit)
                Modulus:
                    00:a8:71:ce:12:81:e6:29:b0:f6:57:43:e5:89:91:
                    fd:e3:7a:0c:8e:93:e7:79:f3:34:e3:be:9b:65:88:
                    73:ea:12:12:0e:f0:4a:c2:17:46:aa:dd:22:69:49:
                    03:1e:55:7a:89:41:59:63:e2:cc:f8:df:92:1c:47:
                    ea:e9:74:05:10:2a:ff:e4:e6:d7:fd:a4:30:28:1f:
                    c9:ed:c5:ab:cd:e1:5e:9b:33:03:71:a6:3c:5d:89:
                    51:87:ee:7d:ff:24:d2:d5:f4:b8:4a:96:0d:f5:aa:
                    3a:4d:e2:96:df:8a:d3:3a:73:7b:41:eb:4d:65:ee:
                    1b:c4:17:e3:9a:0f:6a:bc:af:80:f7:bd:d4:2a:31:
                    fd:7e:f7:f2:ee:92:02:19:60:63:22:00:eb:8b:02:
                    fd:62:91:6d:0f:14:4f:3d:c3:76:d5:fc:e8:94:68:
                    68:79:4d:b0:e7:ca:53:53:2a:cd:88:1a:63:8c:f9:
                    b5:36:95:67:ec:5d:c9:e6:70:dc:28:ba:84:cf:9a:
                    c3:30:0a:2e:a3:40:57:6a:a1:6f:0a:8f:11:91:6e:
                    f8:d6:59:11:a6:aa:0a:33:41:08:d8:79:72:6e:5e:
                    c2:92:33:4f:50:e0:20:c5:24:a4:a0:c0:d8:aa:96:
                    91:2d:4f:2b:83:64:4f:0f:0e:32:33:35:65:2f:96:
                    a0:66:7b:88:64:88:19:65:ac:f6:8f:a0:88:ec:ac:
                    87:80:9f:c4:f3:e3:08:16:45:9d:a5:46:f4:3d:a3:
                    17:37:60:a4:0d:02:6e:f9:51:b6:3b:db:dc:58:25:
                    d5:8d:b9:0f:6d:52:17:a3:09:19:11:4c:09:29:a8:
                    a5:b8:6c:23:27:61:17:d5:85:68:f8:fe:68:7f:2c:
                    bf:10:99:f1:54:08:e5:c0:84:ed:c0:35:b5:22:e4:
                    f2:ae:e2:5e:df:e8:2f:13:dd:d0:86:a5:52:40:82:
                    c4:cc:cf:07:90:44:2e:86:c0:09:6b:a7:87:eb:a3:
                    ff:61:01:eb:d5:96:0f:99:b5:14:89:45:18:f7:c5:
                    ee:73:82:63:89:f6:d7:29:6e:0d:6a:f1:79:f4:f5:
                    de:4a:be:7f:fb:4d:f1:1a:fc:bd:52:c8:61:fa:b4:
                    2e:41:d7:64:19:01:1c:ca:75:23:8b:5e:cf:62:3b:
                    7e:8a:82:f1:e5:32:d6:fd:7c:00:16:77:4a:88:8f:
                    a6:bd:75:02:6c:e3:6d:17:63:94:22:75:74:01:f6:
                    ff:dd:85:44:e4:d5:d9:34:53:41:8c:bf:e4:3f:04:
                    77:36:61:a1:4e:5b:ec:f3:a7:73:c8:26:13:91:b3:
                    1e:04:6a:3c:ee:5b:43:7c:0b:d0:40:53:f6:c0:b5:
                    8c:71:55
                Exponent: 65537 (0x10001)
        X509v3 extensions:
            X509v3 Basic Constraints: 
                CA:FALSE
            Netscape Comment: 
                Easy-RSA Generated Certificate
            X509v3 Subject Key Identifier: 
                C3:1E:EA:30:23:6F:74:06:95:CF:F2:1C:AE:FC:27:44:0F:A7:9C:67
            X509v3 Authority Key Identifier: 
                keyid:12:CD:60:04:D2:A0:80:9E:70:ED:C6:99:B8:7B:2C:C6:52:FD:19:A1
                DirName:/C=US/ST=OH/L=Columbus/O=VikingVPN/OU=MyOrganizationalUnit/CN=VikingVPN CA/name=EasyRSA/emailAddress=me@myhost.mydomain
                serial:CF:35:85:EE:80:BF:2A:3E

            X509v3 Extended Key Usage: 
                TLS Web Client Authentication
            X509v3 Key Usage: 
                Digital Signature
    Signature Algorithm: md5WithRSAEncryption
         66:f6:ec:9a:31:a6:f6:a7:fc:67:ca:5c:9b:c8:47:2d:0d:f0:
         0b:3e:ef:7b:45:65:9b:5b:62:a3:7d:25:99:8d:89:dc:61:37:
         96:48:f9:fb:42:f3:21:8e:b5:56:67:cb:33:f5:e9:c6:33:db:
         e3:56:c3:d8:ef:6e:e7:3a:3a:f3:97:4c:25:6c:59:04:0c:f0:
         87:84:41:68:77:30:b9:24:57:60:d1:c8:d3:45:e0:9c:a0:87:
         12:4b:b3:5c:c3:b2:57:58:b7:4b:d5:2f:49:79:14:ea:1c:e6:
         76:5e:c7:14:0e:a4:65:57:90:69:5f:56:7c:65:65:82:57:c3:
         b4:8f:8e:24:a6:0d:74:5d:43:b7:95:2e:93:af:28:0b:9a:56:
         bc:af:c5:62:0b:2e:36:ad:62:53:5b:f8:0e:1c:62:a9:a0:3b:
         48:a4:a1:d3:58:3b:2b:16:ce:e3:3a:48:e9:5c:4c:1b:1d:bf:
         6f:c1:b0:c4:3c:29:5d:a6:b1:e3:7c:ee:eb:e5:60:64:13:37:
         31:a0:51:7e:04:9a:fa:d5:39:62:85:2e:de:4e:ce:e2:84:ff:
         67:f6:35:cb:a6:3e:b2:d4:0c:8a:60:40:fa:62:52:00:1e:86:
         35:09:ec:10:3d:a9:0c:78:e7:a1:42:f6:3b:19:a5:9b:76:3e:
         0b:75:c7:34:52:5e:f2:03:17:61:e4:ce:c7:41:57:9a:03:b3:
         6b:d0:e7:45:77:bf:58:f0:2d:ed:9b:a8:97:50:c2:ea:8d:19:
         b8:6b:05:ad:67:38:89:93:ac:a3:d6:05:a6:21:a9:ad:b6:44:
         5e:61:96:d6:e1:30:c2:54:7b:e0:16:d4:98:6b:c1:2c:a8:a6:
         4a:a7:99:2d:18:0a:82:6a:5f:36:47:9a:9b:b8:4a:92:11:40:
         60:db:2e:39:15:b8:93:7c:6d:90:89:ab:41:c7:a2:eb:c1:7f:
         44:c2:54:69:cc:48:06:9e:bf:7a:6e:09:c3:e3:f1:21:a7:70:
         15:b2:74:15:84:b5:5e:12:e7:44:10:c8:d4:d0:18:6f:4f:91:
         31:5b:90:8f:8f:56:a1:21:08:ed:a9:4d:02:a5:71:85:81:a4:
         1b:af:60:43:32:65:d5:31:1d:26:e3:e5:c6:9b:ee:c5:28:51:
         5b:56:50:95:a9:87:9d:c8:2d:23:54:c9:3c:58:e4:a5:16:51:
         28:4f:44:bc:b6:b1:f0:da:be:2d:35:56:79:44:f8:72:cf:9d:
         51:67:55:bd:fa:52:8d:09:68:a0:91:e0:fd:f3:ea:1f:ec:3a:
         3f:56:84:4c:48:f9:41:70:4f:eb:6e:6a:6e:46:32:d0:e5:c4:
         01:04:43:87:4e:36:a5:62
-----BEGIN CERTIFICATE-----
MIIGrTCCBJWgAwIBAgICFwQwDQYJKoZIhvcNAQEEBQAwgawxCzAJBgNVBAYTAlVT
MQswCQYDVQQIEwJPSDERMA8GA1UEBxMIQ29sdW1idXMxEjAQBgNVBAoTCVZpa2lu
Z1ZQTjEdMBsGA1UECxMUTXlPcmdhbml6YXRpb25hbFVuaXQxFTATBgNVBAMTDFZp
a2luZ1ZQTiBDQTEQMA4GA1UEKRMHRWFzeVJTQTEhMB8GCSqGSIb3DQEJARYSbWVA
bXlob3N0Lm15ZG9tYWluMB4XDTE1MDcyMjE0MDY1MloXDTI1MDcxOTE0MDY1Mlow
HzEdMBsGA1UEAxMUQ2xpZW50MTg1MUNlcnQ0M2JlNzAwggIiMA0GCSqGSIb3DQEB
AQUAA4ICDwAwggIKAoICAQCocc4SgeYpsPZXQ+WJkf3jegyOk+d58zTjvptliHPq
EhIO8ErCF0aq3SJpSQMeVXqJQVlj4sz435IcR+rpdAUQKv/k5tf9pDAoH8ntxavN
4V6bMwNxpjxdiVGH7n3/JNLV9LhKlg31qjpN4pbfitM6c3tB601l7hvEF+OaD2q8
r4D3vdQqMf1+9/LukgIZYGMiAOuLAv1ikW0PFE89w3bV/OiUaGh5TbDnylNTKs2I
GmOM+bU2lWfsXcnmcNwouoTPmsMwCi6jQFdqoW8KjxGRbvjWWRGmqgozQQjYeXJu
XsKSM09Q4CDFJKSgwNiqlpEtTyuDZE8PDjIzNWUvlqBme4hkiBllrPaPoIjsrIeA
n8Tz4wgWRZ2lRvQ9oxc3YKQNAm75UbY729xYJdWNuQ9tUhejCRkRTAkpqKW4bCMn
YRfVhWj4/mh/LL8QmfFUCOXAhO3ANbUi5PKu4l7f6C8T3dCGpVJAgsTMzweQRC6G
wAlrp4fro/9hAevVlg+ZtRSJRRj3xe5zgmOJ9tcpbg1q8Xn09d5Kvn/7TfEa/L1S
yGH6tC5B12QZARzKdSOLXs9iO36KgvHlMtb9fAAWd0qIj6a9dQJs420XY5QidXQB
9v/dhUTk1dk0U0GMv+Q/BHc2YaFOW+zzp3PIJhORsx4EajzuW0N8C9BAU/bAtYxx
VQIDAQABo4IBYzCCAV8wCQYDVR0TBAIwADAtBglghkgBhvhCAQ0EIBYeRWFzeS1S
U0EgR2VuZXJhdGVkIENlcnRpZmljYXRlMB0GA1UdDgQWBBTDHuowI290BpXP8hyu
/CdED6ecZzCB4QYDVR0jBIHZMIHWgBQSzWAE0qCAnnDtxpm4eyzGUv0ZoaGBsqSB
rzCBrDELMAkGA1UEBhMCVVMxCzAJBgNVBAgTAk9IMREwDwYDVQQHEwhDb2x1bWJ1
czESMBAGA1UEChMJVmlraW5nVlBOMR0wGwYDVQQLExRNeU9yZ2FuaXphdGlvbmFs
VW5pdDEVMBMGA1UEAxMMVmlraW5nVlBOIENBMRAwDgYDVQQpEwdFYXN5UlNBMSEw
HwYJKoZIhvcNAQkBFhJtZUBteWhvc3QubXlkb21haW6CCQDPNYXugL8qPjATBgNV
HSUEDDAKBggrBgEFBQcDAjALBgNVHQ8EBAMCB4AwDQYJKoZIhvcNAQEEBQADggIB
AGb27Joxpvan/GfKXJvIRy0N8As+73tFZZtbYqN9JZmNidxhN5ZI+ftC8yGOtVZn
yzP16cYz2+NWw9jvbuc6OvOXTCVsWQQM8IeEQWh3MLkkV2DRyNNF4JyghxJLs1zD
sldYt0vVL0l5FOoc5nZexxQOpGVXkGlfVnxlZYJXw7SPjiSmDXRdQ7eVLpOvKAua
VryvxWILLjatYlNb+A4cYqmgO0ikodNYOysWzuM6SOlcTBsdv2/BsMQ8KV2mseN8
7uvlYGQTNzGgUX4EmvrVOWKFLt5OzuKE/2f2NcumPrLUDIpgQPpiUgAehjUJ7BA9
qQx456FC9jsZpZt2Pgt1xzRSXvIDF2HkzsdBV5oDs2vQ50V3v1jwLe2bqJdQwuqN
GbhrBa1nOImTrKPWBaYhqa22RF5hltbhMMJUe+AW1JhrwSyopkqnmS0YCoJqXzZH
mpu4SpIRQGDbLjkVuJN8bZCJq0HHouvBf0TCVGnMSAaev3puCcPj8SGncBWydBWE
tV4S50QQyNTQGG9PkTFbkI+PVqEhCO2pTQKlcYWBpBuvYEMyZdUxHSbj5cab7sUo
UVtWUJWph53ILSNUyTxY5KUWUShPRLy2sfDavi01VnlE+HLPnVFnVb36Uo0JaKCR
4P3z6h/sOj9WhExI+UFwT+tuam5GMtDlxAEEQ4dONqVi
-----END CERTIFICATE-----
