Certificate:
    Data:
        Version: 3 (0x2)
        Serial Number: 5998 (0x176e)
    Signature Algorithm: md5WithRSAEncryption
        Issuer: C=US, ST=OH, L=Columbus, O=VikingVPN, OU=MyOrganizationalUnit, CN=VikingVPN CA/name=EasyRSA/emailAddress=me@myhost.mydomain
        Validity
            Not Before: Aug  4 20:21:29 2015 GMT
            Not After : Aug  1 20:21:29 2025 GMT
        Subject: CN=Client1711Certa1b75d
        Subject Public Key Info:
            Public Key Algorithm: rsaEncryption
                Public-Key: (4096 bit)
                Modulus:
                    00:ae:27:ae:4f:c7:78:23:cf:3f:26:8e:eb:60:79:
                    cc:3a:40:4e:ec:a7:46:2f:a8:07:c2:e0:1f:9b:87:
                    54:e8:93:e9:b6:16:5a:ff:f2:20:38:ec:b4:a3:2a:
                    a4:da:7b:08:9a:98:8e:7a:57:bb:9e:f2:e2:9a:66:
                    64:1e:60:d4:bb:81:46:1a:ae:dc:ce:3c:5d:a9:56:
                    06:fb:6d:dc:49:ae:59:69:6e:e3:7b:09:2f:0f:f8:
                    d1:5c:2c:0c:87:da:11:c4:81:ef:a3:6c:3b:33:32:
                    db:82:46:d9:05:21:06:a5:2d:e8:20:ef:87:5a:50:
                    87:c5:5a:63:9c:f3:b1:1b:39:fb:6d:4e:e1:04:6f:
                    f2:74:38:1d:17:78:60:9d:bd:46:d3:3f:f9:7a:59:
                    b0:85:76:b0:63:48:69:78:30:3f:00:26:0c:27:84:
                    fd:cd:ce:b6:43:1a:c6:d6:20:ee:65:a1:f9:fa:7c:
                    21:b9:ea:3f:a3:7a:05:dc:fd:72:db:ff:08:7e:21:
                    70:db:25:29:c9:c0:f8:ac:12:02:02:ee:65:23:64:
                    23:f3:3a:d0:37:de:31:4f:26:96:c8:eb:56:41:bc:
                    86:fa:47:f3:47:f8:0a:2d:46:75:ae:80:80:67:d7:
                    56:4a:96:15:c2:b8:64:56:c5:f0:92:f2:63:2a:c3:
                    de:f7:1a:d6:93:94:69:ce:d7:eb:2f:f5:f3:a3:13:
                    5c:70:ed:27:04:da:98:5e:f8:7f:57:76:ae:e7:08:
                    c1:47:24:87:ad:f5:84:7e:c0:da:e3:82:24:38:aa:
                    e7:19:10:48:d9:49:1a:5f:37:cd:4f:f3:56:20:e7:
                    81:d4:23:ea:82:bf:04:33:eb:b6:6a:35:c3:77:b3:
                    0b:b7:52:d6:0f:61:77:49:f0:ff:59:a6:3f:ce:2a:
                    08:b0:52:86:be:6a:85:8f:3e:a0:74:cd:f0:d4:83:
                    f4:0d:4c:69:68:5b:56:a8:76:47:26:c2:fd:a5:f6:
                    a9:93:03:70:bc:87:ac:4c:f2:fe:cc:e2:27:6a:be:
                    cc:5e:56:56:34:cb:0c:d0:4b:1f:52:01:ba:5f:1e:
                    6b:00:27:db:55:29:16:94:39:84:d1:54:55:a5:6e:
                    89:dc:bc:48:07:bb:e7:6d:59:5b:3e:73:13:07:1c:
                    ff:1c:72:d0:f8:4e:9f:7b:eb:a0:5f:76:a5:d7:59:
                    d0:b6:43:62:8c:df:cd:82:3b:af:37:6d:33:d1:7a:
                    9a:29:86:08:b7:a6:1b:b7:de:12:96:0d:55:a1:66:
                    86:23:e1:30:7b:3c:80:16:35:05:f0:70:05:9a:06:
                    9e:2a:82:32:a3:ca:da:84:03:9f:f6:c5:c2:70:4a:
                    bb:39:ad
                Exponent: 65537 (0x10001)
        X509v3 extensions:
            X509v3 Basic Constraints: 
                CA:FALSE
            Netscape Comment: 
                Easy-RSA Generated Certificate
            X509v3 Subject Key Identifier: 
                4A:25:69:50:80:8F:AB:F7:38:33:7D:68:80:C0:C4:9D:2A:F9:41:17
            X509v3 Authority Key Identifier: 
                keyid:12:CD:60:04:D2:A0:80:9E:70:ED:C6:99:B8:7B:2C:C6:52:FD:19:A1
                DirName:/C=US/ST=OH/L=Columbus/O=VikingVPN/OU=MyOrganizationalUnit/CN=VikingVPN CA/name=EasyRSA/emailAddress=me@myhost.mydomain
                serial:CF:35:85:EE:80:BF:2A:3E

            X509v3 Extended Key Usage: 
                TLS Web Client Authentication
            X509v3 Key Usage: 
                Digital Signature
    Signature Algorithm: md5WithRSAEncryption
         08:36:61:92:d4:91:63:8f:bd:e1:12:10:b9:95:a0:a2:06:7a:
         af:e5:0e:1b:b8:5f:3d:ae:48:70:c9:62:8e:ca:de:28:1f:5b:
         30:d3:38:3f:c8:9b:34:c3:e2:68:03:f8:db:a2:27:7b:a8:db:
         3f:8b:c9:47:61:a2:3b:07:cc:d5:6c:80:8d:f3:b8:13:04:c7:
         54:6b:a2:94:9b:fa:9e:0b:c7:fe:19:9f:8d:c4:e3:1a:2c:79:
         ee:0a:76:1a:2f:f0:fd:ad:30:d6:9f:de:8b:5c:3a:a6:0f:50:
         af:95:c7:a8:a6:39:3e:02:23:2e:a7:ad:26:64:f4:36:e3:ce:
         93:c5:3f:e4:11:60:4f:89:2a:ff:c5:c1:c3:75:67:68:e4:57:
         d0:09:91:7e:ed:13:a1:ba:66:9e:0b:54:de:a3:c0:99:44:93:
         2b:8c:a7:fc:94:69:a1:89:82:36:3e:94:0a:34:41:de:92:ec:
         b8:e2:f4:b7:44:69:85:45:87:3d:2b:ad:03:e3:dc:8e:a8:f6:
         0a:82:c2:82:bc:66:67:8b:4b:ff:c0:4b:8c:1d:cb:76:5d:95:
         d7:e3:6c:2f:46:25:d6:b6:ff:5f:00:8d:36:89:ea:8b:9c:25:
         97:68:8c:60:61:80:e3:a5:cb:a0:15:62:93:ba:b6:e0:1e:75:
         d9:6d:f5:22:4b:c6:a5:13:51:b6:14:aa:85:ce:9e:31:ae:85:
         55:42:76:fe:bf:92:e2:71:ae:43:a1:c3:3e:3b:c8:7c:3f:00:
         e0:f2:a5:42:67:fa:d6:69:a1:9f:20:db:d3:3d:94:cb:f0:2c:
         4e:4b:39:77:a6:53:87:45:12:83:4b:d7:2d:f2:eb:69:f8:ac:
         23:08:a9:c4:8f:18:25:bd:21:a0:79:46:21:27:b2:62:bd:b9:
         71:a9:79:e2:6f:88:52:c0:ae:13:a2:5e:1c:8f:7d:b2:be:22:
         ad:7d:5a:56:5d:94:09:de:44:93:39:c2:cd:f6:29:23:fd:9c:
         46:50:47:19:4a:49:f5:78:5b:c4:d3:bf:ef:21:a4:6f:8a:f3:
         94:ec:4c:1a:41:49:90:7d:56:b2:75:fa:9b:bf:d0:bb:4c:41:
         d5:b2:b5:c7:38:74:37:31:36:13:95:a2:cb:49:30:b9:8b:ce:
         0f:da:23:d6:99:e2:92:e1:8e:13:ed:6e:69:e5:34:c2:e9:2c:
         a4:2f:26:03:e8:dd:60:3e:52:b9:52:11:73:35:b3:97:54:ab:
         c6:1f:e5:ad:74:02:03:a5:86:ba:3f:80:65:02:ea:a3:aa:30:
         4b:76:64:e0:49:cb:f9:b5:78:b6:e2:42:be:d6:9e:e2:a9:26:
         23:26:71:f2:1f:0c:1c:76
-----BEGIN CERTIFICATE-----
MIIGrTCCBJWgAwIBAgICF24wDQYJKoZIhvcNAQEEBQAwgawxCzAJBgNVBAYTAlVT
MQswCQYDVQQIEwJPSDERMA8GA1UEBxMIQ29sdW1idXMxEjAQBgNVBAoTCVZpa2lu
Z1ZQTjEdMBsGA1UECxMUTXlPcmdhbml6YXRpb25hbFVuaXQxFTATBgNVBAMTDFZp
a2luZ1ZQTiBDQTEQMA4GA1UEKRMHRWFzeVJTQTEhMB8GCSqGSIb3DQEJARYSbWVA
bXlob3N0Lm15ZG9tYWluMB4XDTE1MDgwNDIwMjEyOVoXDTI1MDgwMTIwMjEyOVow
HzEdMBsGA1UEAxMUQ2xpZW50MTcxMUNlcnRhMWI3NWQwggIiMA0GCSqGSIb3DQEB
AQUAA4ICDwAwggIKAoICAQCuJ65Px3gjzz8mjutgecw6QE7sp0YvqAfC4B+bh1To
k+m2Flr/8iA47LSjKqTaewiamI56V7ue8uKaZmQeYNS7gUYartzOPF2pVgb7bdxJ
rllpbuN7CS8P+NFcLAyH2hHEge+jbDszMtuCRtkFIQalLegg74daUIfFWmOc87Eb
OfttTuEEb/J0OB0XeGCdvUbTP/l6WbCFdrBjSGl4MD8AJgwnhP3NzrZDGsbWIO5l
ofn6fCG56j+jegXc/XLb/wh+IXDbJSnJwPisEgIC7mUjZCPzOtA33jFPJpbI61ZB
vIb6R/NH+AotRnWugIBn11ZKlhXCuGRWxfCS8mMqw973GtaTlGnO1+sv9fOjE1xw
7ScE2phe+H9Xdq7nCMFHJIet9YR+wNrjgiQ4qucZEEjZSRpfN81P81Yg54HUI+qC
vwQz67ZqNcN3swu3UtYPYXdJ8P9Zpj/OKgiwUoa+aoWPPqB0zfDUg/QNTGloW1ao
dkcmwv2l9qmTA3C8h6xM8v7M4idqvsxeVlY0ywzQSx9SAbpfHmsAJ9tVKRaUOYTR
VFWlboncvEgHu+dtWVs+cxMHHP8cctD4Tp9766BfdqXXWdC2Q2KM382CO683bTPR
epophgi3phu33hKWDVWhZoYj4TB7PIAWNQXwcAWaBp4qgjKjytqEA5/2xcJwSrs5
rQIDAQABo4IBYzCCAV8wCQYDVR0TBAIwADAtBglghkgBhvhCAQ0EIBYeRWFzeS1S
U0EgR2VuZXJhdGVkIENlcnRpZmljYXRlMB0GA1UdDgQWBBRKJWlQgI+r9zgzfWiA
wMSdKvlBFzCB4QYDVR0jBIHZMIHWgBQSzWAE0qCAnnDtxpm4eyzGUv0ZoaGBsqSB
rzCBrDELMAkGA1UEBhMCVVMxCzAJBgNVBAgTAk9IMREwDwYDVQQHEwhDb2x1bWJ1
czESMBAGA1UEChMJVmlraW5nVlBOMR0wGwYDVQQLExRNeU9yZ2FuaXphdGlvbmFs
VW5pdDEVMBMGA1UEAxMMVmlraW5nVlBOIENBMRAwDgYDVQQpEwdFYXN5UlNBMSEw
HwYJKoZIhvcNAQkBFhJtZUBteWhvc3QubXlkb21haW6CCQDPNYXugL8qPjATBgNV
HSUEDDAKBggrBgEFBQcDAjALBgNVHQ8EBAMCB4AwDQYJKoZIhvcNAQEEBQADggIB
AAg2YZLUkWOPveESELmVoKIGeq/lDhu4Xz2uSHDJYo7K3igfWzDTOD/ImzTD4mgD
+NuiJ3uo2z+LyUdhojsHzNVsgI3zuBMEx1RropSb+p4Lx/4Zn43E4xosee4Kdhov
8P2tMNaf3otcOqYPUK+Vx6imOT4CIy6nrSZk9DbjzpPFP+QRYE+JKv/FwcN1Z2jk
V9AJkX7tE6G6Zp4LVN6jwJlEkyuMp/yUaaGJgjY+lAo0Qd6S7Lji9LdEaYVFhz0r
rQPj3I6o9gqCwoK8ZmeLS//AS4wdy3ZdldfjbC9GJda2/18AjTaJ6oucJZdojGBh
gOOly6AVYpO6tuAeddlt9SJLxqUTUbYUqoXOnjGuhVVCdv6/kuJxrkOhwz47yHw/
AODypUJn+tZpoZ8g29M9lMvwLE5LOXemU4dFEoNL1y3y62n4rCMIqcSPGCW9IaB5
RiEnsmK9uXGpeeJviFLArhOiXhyPfbK+Iq19WlZdlAneRJM5ws32KSP9nEZQRxlK
SfV4W8TTv+8hpG+K85TsTBpBSZB9VrJ1+pu/0LtMQdWytcc4dDcxNhOVostJMLmL
zg/aI9aZ4pLhjhPtbmnlNMLpLKQvJgPo3WA+UrlSEXM1s5dUq8Yf5a10AgOlhro/
gGUC6qOqMEt2ZOBJy/m1eLbiQr7WnuKpJiMmcfIfDBx2
-----END CERTIFICATE-----
