Certificate:
    Data:
        Version: 3 (0x2)
        Serial Number: 7210 (0x1c2a)
    Signature Algorithm: md5WithRSAEncryption
        Issuer: C=US, ST=OH, L=Columbus, O=VikingVPN, OU=MyOrganizationalUnit, CN=VikingVPN CA/name=EasyRSA/emailAddress=me@myhost.mydomain
        Validity
            Not Before: Feb 18 00:15:39 2016 GMT
            Not After : Feb 15 00:15:39 2026 GMT
        Subject: CN=Client2182Cert523131
        Subject Public Key Info:
            Public Key Algorithm: rsaEncryption
                Public-Key: (4096 bit)
                Modulus:
                    00:94:e7:0a:51:23:d8:2e:b4:46:83:5e:f8:56:04:
                    25:38:74:65:ee:95:e2:20:b1:f1:2b:bb:92:d0:d8:
                    72:dd:e7:0d:f8:23:ee:77:a1:fc:97:26:3d:93:8b:
                    7b:77:14:66:c9:68:78:4d:88:2c:43:b2:d5:99:5e:
                    d2:a1:14:28:98:8e:0c:67:6a:18:1d:a6:83:b4:fb:
                    2a:80:13:36:b9:14:f1:c6:3a:64:7d:a4:bb:51:6c:
                    4d:75:87:a5:e0:38:1f:9d:a6:25:88:d8:60:85:d5:
                    03:ca:6f:a7:ed:01:28:4d:4a:fd:57:40:e5:0c:81:
                    ab:89:8d:ef:a3:c3:fa:53:27:1e:84:e5:89:16:59:
                    c0:82:2b:4b:49:40:2a:3b:bb:56:4f:9c:5d:ed:c7:
                    0d:29:9d:c4:05:7c:5b:81:c9:97:4a:45:c9:8b:cc:
                    7e:19:94:6e:91:f8:ce:34:3f:4b:2a:e8:2e:1a:dd:
                    29:7a:59:0c:c7:8e:f0:c7:13:7e:b6:92:ff:cf:ad:
                    dd:aa:a9:90:56:67:fe:05:d2:19:1b:84:fb:b1:af:
                    e6:26:ab:1e:c8:f5:cf:75:89:44:2f:60:7a:6e:53:
                    31:6d:78:41:ad:91:85:b1:03:57:49:a2:78:5f:9b:
                    37:78:79:4f:b8:6e:4d:f1:18:1a:aa:67:ac:64:76:
                    93:72:7b:ea:59:2f:1e:ff:73:7a:67:64:e3:05:02:
                    b0:2a:8a:c7:7f:e1:9e:a8:68:04:7c:81:ed:67:c3:
                    99:93:a8:2d:a4:da:e4:fc:c9:8e:43:03:6d:56:81:
                    85:d1:08:bb:1f:db:23:12:61:00:f4:91:76:bb:2d:
                    7c:b4:89:8d:0c:bb:93:7d:58:ab:62:41:68:bd:f2:
                    7e:5c:f5:cc:c7:fb:a7:bf:32:bb:e6:03:96:7f:75:
                    14:68:30:07:b9:f6:bb:be:6c:a0:74:5f:66:ba:ac:
                    7c:9b:4a:ea:2f:f3:b0:6c:22:25:44:15:03:98:aa:
                    60:69:ae:16:52:ad:28:a9:a0:c0:8c:dc:b8:5c:94:
                    4c:97:62:98:7d:55:e6:1f:90:f8:24:87:d4:15:2d:
                    81:d8:49:95:97:f7:bb:e8:a2:73:28:94:10:42:f6:
                    6f:d8:f3:79:43:3f:fd:07:15:d5:02:c7:70:a8:40:
                    0a:86:be:af:e2:d4:fa:c4:6d:fe:a4:bd:6b:71:d1:
                    75:9d:8d:02:7f:3d:12:24:a5:93:4c:f7:bf:2c:0b:
                    9f:e8:28:11:7a:ba:10:fd:3c:fa:b9:3e:d2:92:bc:
                    c8:bf:83:15:b2:5a:6b:34:ce:1d:b6:ad:28:a2:8a:
                    01:4e:82:6d:bd:ec:48:fb:d0:d5:4e:c6:46:04:ba:
                    5c:a8:13
                Exponent: 65537 (0x10001)
        X509v3 extensions:
            X509v3 Basic Constraints: 
                CA:FALSE
            Netscape Comment: 
                Easy-RSA Generated Certificate
            X509v3 Subject Key Identifier: 
                1B:80:15:75:50:B3:3A:58:55:11:D8:66:9E:09:E3:E5:9F:77:EA:1A
            X509v3 Authority Key Identifier: 
                keyid:12:CD:60:04:D2:A0:80:9E:70:ED:C6:99:B8:7B:2C:C6:52:FD:19:A1
                DirName:/C=US/ST=OH/L=Columbus/O=VikingVPN/OU=MyOrganizationalUnit/CN=VikingVPN CA/name=EasyRSA/emailAddress=me@myhost.mydomain
                serial:CF:35:85:EE:80:BF:2A:3E

            X509v3 Extended Key Usage: 
                TLS Web Client Authentication
            X509v3 Key Usage: 
                Digital Signature
    Signature Algorithm: md5WithRSAEncryption
         c2:00:4b:77:bc:96:e1:c6:5a:8c:5d:02:89:91:ed:0a:24:6a:
         21:10:a7:20:5f:de:45:c1:45:81:d6:a1:24:ac:64:81:c7:1e:
         c5:91:1c:2e:5f:b9:5a:c5:f9:25:bf:78:32:c3:e1:c0:84:17:
         66:ae:ba:4c:3e:e3:eb:8d:84:b4:53:d0:c6:d7:6b:ab:b7:cf:
         ec:b5:78:6b:22:cf:0d:c8:2c:d8:6d:7d:0d:22:43:1f:ce:a7:
         86:ac:85:84:ee:0c:b0:86:c3:53:8b:c4:08:55:d7:48:5b:b3:
         98:86:fe:d4:98:e8:f1:be:c3:93:29:b5:13:07:bc:50:3e:fc:
         4b:85:23:88:ff:7c:18:3b:03:a8:a0:b9:fb:3c:8f:65:46:6f:
         7a:4e:49:14:97:20:5e:75:c2:a1:2f:9d:99:f7:b9:53:dc:4f:
         97:9c:c3:fe:24:60:01:7f:5c:a9:b0:bf:d8:36:03:6c:34:4a:
         52:83:1a:29:b7:a5:14:30:e7:28:9f:72:17:80:8a:47:5c:21:
         31:92:2b:2c:0f:f3:b3:55:87:dd:8b:18:42:7a:45:5d:49:3e:
         6a:3c:0d:21:6c:b3:7c:5a:66:0d:a4:16:61:ac:7d:3e:e6:63:
         d9:27:c8:5e:f1:75:8a:1c:d7:58:df:cd:d5:1b:63:61:10:ea:
         8a:a4:62:8a:e0:4f:d1:96:f0:74:4f:f0:d8:65:e7:61:c3:0f:
         fd:bc:1e:32:d0:22:33:dd:54:c7:00:3a:78:fa:30:62:1c:87:
         e3:c1:ac:95:7d:91:40:ff:5c:8e:67:06:a3:5d:dd:1a:2f:43:
         d1:05:9d:f6:e1:fa:65:e8:4f:aa:17:04:06:4b:2d:b7:4c:82:
         cd:4f:9b:3d:8f:3e:2c:d8:9b:3d:da:83:ff:e1:ab:05:02:14:
         48:a6:7f:ae:9b:a2:8e:94:ff:23:50:b9:49:db:05:65:e9:22:
         96:9a:87:a0:21:26:a9:e9:b4:56:5d:7d:96:77:dc:79:53:dc:
         d5:e2:3f:7c:c3:2a:1c:d9:d6:35:d4:5d:65:7a:ea:9f:d7:2e:
         19:c4:e1:b6:e7:62:50:84:63:74:ec:36:d9:71:99:b7:69:29:
         ea:f9:a0:35:bb:1e:98:71:1e:17:ea:f3:fe:0d:6c:51:ec:d8:
         32:83:27:78:ed:30:8f:b9:71:7f:d9:3d:b9:73:0f:7b:8f:f2:
         1b:35:6d:9d:0b:75:8a:0f:e2:ef:d8:c5:d6:d2:12:1b:98:e3:
         fe:19:02:6e:f3:46:03:6b:05:08:e1:e8:bb:84:26:41:0d:a0:
         5f:0c:c2:b9:df:ba:5a:05:f5:af:e2:53:1d:3f:fd:4e:48:67:
         9b:66:8b:76:11:0e:7a:c1
-----BEGIN CERTIFICATE-----
MIIGrTCCBJWgAwIBAgICHCowDQYJKoZIhvcNAQEEBQAwgawxCzAJBgNVBAYTAlVT
MQswCQYDVQQIEwJPSDERMA8GA1UEBxMIQ29sdW1idXMxEjAQBgNVBAoTCVZpa2lu
Z1ZQTjEdMBsGA1UECxMUTXlPcmdhbml6YXRpb25hbFVuaXQxFTATBgNVBAMTDFZp
a2luZ1ZQTiBDQTEQMA4GA1UEKRMHRWFzeVJTQTEhMB8GCSqGSIb3DQEJARYSbWVA
bXlob3N0Lm15ZG9tYWluMB4XDTE2MDIxODAwMTUzOVoXDTI2MDIxNTAwMTUzOVow
HzEdMBsGA1UEAxMUQ2xpZW50MjE4MkNlcnQ1MjMxMzEwggIiMA0GCSqGSIb3DQEB
AQUAA4ICDwAwggIKAoICAQCU5wpRI9gutEaDXvhWBCU4dGXuleIgsfEru5LQ2HLd
5w34I+53ofyXJj2Ti3t3FGbJaHhNiCxDstWZXtKhFCiYjgxnahgdpoO0+yqAEza5
FPHGOmR9pLtRbE11h6XgOB+dpiWI2GCF1QPKb6ftAShNSv1XQOUMgauJje+jw/pT
Jx6E5YkWWcCCK0tJQCo7u1ZPnF3txw0pncQFfFuByZdKRcmLzH4ZlG6R+M40P0sq
6C4a3Sl6WQzHjvDHE362kv/Prd2qqZBWZ/4F0hkbhPuxr+Ymqx7I9c91iUQvYHpu
UzFteEGtkYWxA1dJonhfmzd4eU+4bk3xGBqqZ6xkdpNye+pZLx7/c3pnZOMFArAq
isd/4Z6oaAR8ge1nw5mTqC2k2uT8yY5DA21WgYXRCLsf2yMSYQD0kXa7LXy0iY0M
u5N9WKtiQWi98n5c9czH+6e/MrvmA5Z/dRRoMAe59ru+bKB0X2a6rHybSuov87Bs
IiVEFQOYqmBprhZSrSipoMCM3LhclEyXYph9VeYfkPgkh9QVLYHYSZWX97voonMo
lBBC9m/Y83lDP/0HFdUCx3CoQAqGvq/i1PrEbf6kvWtx0XWdjQJ/PRIkpZNM978s
C5/oKBF6uhD9PPq5PtKSvMi/gxWyWms0zh22rSiiigFOgm297Ej70NVOxkYEulyo
EwIDAQABo4IBYzCCAV8wCQYDVR0TBAIwADAtBglghkgBhvhCAQ0EIBYeRWFzeS1S
U0EgR2VuZXJhdGVkIENlcnRpZmljYXRlMB0GA1UdDgQWBBQbgBV1ULM6WFUR2Gae
CePln3fqGjCB4QYDVR0jBIHZMIHWgBQSzWAE0qCAnnDtxpm4eyzGUv0ZoaGBsqSB
rzCBrDELMAkGA1UEBhMCVVMxCzAJBgNVBAgTAk9IMREwDwYDVQQHEwhDb2x1bWJ1
czESMBAGA1UEChMJVmlraW5nVlBOMR0wGwYDVQQLExRNeU9yZ2FuaXphdGlvbmFs
VW5pdDEVMBMGA1UEAxMMVmlraW5nVlBOIENBMRAwDgYDVQQpEwdFYXN5UlNBMSEw
HwYJKoZIhvcNAQkBFhJtZUBteWhvc3QubXlkb21haW6CCQDPNYXugL8qPjATBgNV
HSUEDDAKBggrBgEFBQcDAjALBgNVHQ8EBAMCB4AwDQYJKoZIhvcNAQEEBQADggIB
AMIAS3e8luHGWoxdAomR7QokaiEQpyBf3kXBRYHWoSSsZIHHHsWRHC5fuVrF+SW/
eDLD4cCEF2auukw+4+uNhLRT0MbXa6u3z+y1eGsizw3ILNhtfQ0iQx/Op4ashYTu
DLCGw1OLxAhV10hbs5iG/tSY6PG+w5MptRMHvFA+/EuFI4j/fBg7A6igufs8j2VG
b3pOSRSXIF51wqEvnZn3uVPcT5ecw/4kYAF/XKmwv9g2A2w0SlKDGim3pRQw5yif
cheAikdcITGSKywP87NVh92LGEJ6RV1JPmo8DSFss3xaZg2kFmGsfT7mY9knyF7x
dYoc11jfzdUbY2EQ6oqkYorgT9GW8HRP8Nhl52HDD/28HjLQIjPdVMcAOnj6MGIc
h+PBrJV9kUD/XI5nBqNd3RovQ9EFnfbh+mXoT6oXBAZLLbdMgs1Pmz2PPizYmz3a
g//hqwUCFEimf66boo6U/yNQuUnbBWXpIpaah6AhJqnptFZdfZZ33HlT3NXiP3zD
KhzZ1jXUXWV66p/XLhnE4bbnYlCEY3TsNtlxmbdpKer5oDW7HphxHhfq8/4NbFHs
2DKDJ3jtMI+5cX/ZPblzD3uP8hs1bZ0LdYoP4u/YxdbSEhuY4/4ZAm7zRgNrBQjh
6LuEJkENoF8MwrnfuloF9a/iUx0//U5IZ5tmi3YRDnrB
-----END CERTIFICATE-----
