Certificate:
    Data:
        Version: 3 (0x2)
        Serial Number: 4217 (0x1079)
    Signature Algorithm: md5WithRSAEncryption
        Issuer: C=US, ST=OH, L=Columbus, O=VikingVPN, OU=MyOrganizationalUnit, CN=VikingVPN CA/name=EasyRSA/emailAddress=me@myhost.mydomain
        Validity
            Not Before: Jan 20 20:33:14 2015 GMT
            Not After : Jan 17 20:33:14 2025 GMT
        Subject: CN=Client884Certcb9b41
        Subject Public Key Info:
            Public Key Algorithm: rsaEncryption
                Public-Key: (4096 bit)
                Modulus:
                    00:cf:ef:3f:5f:dc:0a:29:63:8d:5a:9c:99:2f:7c:
                    74:e6:c2:4c:96:10:22:6f:8b:e3:d8:e5:25:b5:4f:
                    9d:b6:48:f0:2b:bd:0d:4e:00:b1:e0:78:38:d2:1d:
                    ce:fb:3d:61:55:a0:c6:c2:ab:e9:32:86:9a:b3:a9:
                    04:78:2c:bb:1a:be:80:30:56:36:80:c5:25:5f:3d:
                    f1:bd:34:cc:b7:e4:ee:2a:ab:bb:4f:9d:d6:44:15:
                    1f:7e:40:2a:cc:3b:59:48:9e:8c:22:5a:28:2b:80:
                    32:95:f4:a5:32:39:e4:15:6d:d9:80:96:57:ae:56:
                    29:54:5d:a2:46:c3:6b:7a:1d:e3:f4:9f:04:46:b4:
                    6d:40:24:bd:24:76:52:d1:ee:49:69:cb:6b:63:c9:
                    5e:33:fe:2c:d3:83:0d:9e:2b:cd:69:c5:ce:d4:82:
                    ad:72:54:f9:16:aa:ac:ac:1a:7b:f0:33:d3:92:01:
                    cd:43:74:6f:ed:94:13:b3:0b:bd:3b:ba:b2:b2:ac:
                    98:44:62:fb:9d:da:ed:cd:93:50:fd:5c:f2:a7:24:
                    0f:15:f9:5e:f1:c1:1d:ca:83:ba:bc:93:e7:b0:15:
                    e3:18:f2:8b:25:e7:c9:d1:79:c0:94:d0:23:a4:b9:
                    15:3f:78:72:a5:ff:6f:5a:f3:68:8f:a9:6e:c7:3e:
                    98:b6:8a:eb:42:37:fb:46:34:84:98:31:48:ff:62:
                    85:35:b3:5b:c8:8f:15:cd:3c:8c:57:27:65:86:e1:
                    a4:4f:f4:d6:8a:54:f2:2f:3c:9c:3d:bc:32:34:3e:
                    df:9a:46:04:0b:e8:f8:7a:5f:74:1e:88:32:16:79:
                    c7:d2:80:26:ca:1f:5b:63:e7:f8:ec:04:f9:b2:33:
                    c9:2b:be:5c:9e:26:f8:22:52:c0:ad:f2:b9:2d:76:
                    6c:94:db:aa:cb:10:dc:04:9d:db:79:78:93:22:a1:
                    52:11:6b:e5:4f:18:b8:30:f4:10:a9:f1:71:62:83:
                    d2:9a:ed:0b:88:82:d2:73:14:7d:10:40:4b:9c:ba:
                    30:a7:e8:94:3a:11:e6:37:d2:ad:f0:de:69:a3:cb:
                    e0:f6:dc:e6:9d:64:ce:f8:10:26:ce:68:03:31:11:
                    49:b3:f7:42:a0:cb:6c:10:fe:58:42:b7:f1:b7:24:
                    50:b8:00:7c:09:eb:b1:a3:37:88:ae:7b:05:fe:b2:
                    2c:bb:11:ef:23:55:ad:c1:56:1a:ab:e5:f3:d1:a5:
                    db:01:98:b9:f5:7d:e2:42:cd:3f:d4:a8:03:6f:28:
                    78:5d:15:f0:18:58:cc:8b:ba:71:e0:24:d7:7f:1f:
                    6e:47:94:3d:6e:8b:63:20:83:e9:32:42:eb:eb:8e:
                    1c:b8:c3
                Exponent: 65537 (0x10001)
        X509v3 extensions:
            X509v3 Basic Constraints: 
                CA:FALSE
            Netscape Comment: 
                Easy-RSA Generated Certificate
            X509v3 Subject Key Identifier: 
                AE:84:3B:87:33:C8:B4:E6:91:C2:43:19:94:D6:12:9B:1E:A1:4F:98
            X509v3 Authority Key Identifier: 
                keyid:12:CD:60:04:D2:A0:80:9E:70:ED:C6:99:B8:7B:2C:C6:52:FD:19:A1
                DirName:/C=US/ST=OH/L=Columbus/O=VikingVPN/OU=MyOrganizationalUnit/CN=VikingVPN CA/name=EasyRSA/emailAddress=me@myhost.mydomain
                serial:CF:35:85:EE:80:BF:2A:3E

            X509v3 Extended Key Usage: 
                TLS Web Client Authentication
            X509v3 Key Usage: 
                Digital Signature
    Signature Algorithm: md5WithRSAEncryption
         e7:51:14:0f:2e:77:f1:98:68:95:62:2c:a9:14:bd:03:10:36:
         35:5d:35:5f:17:a5:cf:de:17:1d:4c:89:52:48:f0:e3:82:f0:
         6d:c9:73:23:f7:e8:fb:30:f9:13:06:eb:43:6b:ba:58:12:cb:
         db:63:82:79:18:8a:7e:16:c8:43:16:b7:1d:10:51:15:2c:54:
         d7:93:e4:37:c4:56:ff:cc:74:ab:de:f2:62:24:b0:4f:3e:5d:
         8c:6f:c7:87:db:fe:a5:29:07:15:32:24:27:f5:c7:53:bc:1e:
         87:62:29:4c:2a:7a:0a:ae:89:37:84:4e:a6:5e:3a:b0:a7:63:
         0d:0a:c1:03:01:af:9d:32:d2:9d:4e:57:a0:7f:ee:d6:4c:69:
         0f:c5:9d:e6:ab:76:2e:ca:28:b9:f9:9c:66:e2:87:31:04:94:
         3b:df:ef:43:4c:ca:43:f2:fe:f4:2b:40:4d:2f:26:cd:e9:0d:
         b7:19:b7:b9:07:4c:5f:22:03:33:7c:68:f3:ec:eb:5a:d5:14:
         c0:0d:82:e3:ef:ef:62:5c:3f:36:31:61:4e:a4:75:11:80:6f:
         3a:46:b3:9d:0a:eb:df:4e:f9:85:b2:c5:e9:ce:55:39:46:47:
         6a:a9:d8:51:cc:ed:45:e3:4d:54:a4:ce:82:77:cd:c5:05:1f:
         9d:a7:a6:e0:ab:a9:ac:06:ec:29:8e:39:15:7a:bf:42:38:d8:
         43:d6:67:7f:ca:10:8e:38:9e:be:11:89:1e:19:88:1e:fb:cc:
         b8:a1:a2:68:51:80:6a:7a:de:01:c4:09:82:21:21:dd:88:92:
         14:d9:8c:53:51:4b:35:cb:87:74:08:b3:a1:88:9d:c7:f2:f1:
         8d:41:da:b0:7d:ff:02:2e:43:5f:18:7d:01:8e:53:20:55:62:
         a8:77:c7:06:6d:61:3d:c4:a0:f1:8d:4c:13:5c:a1:53:ce:2f:
         16:a7:ce:b5:53:11:f8:db:80:df:3f:91:c5:25:6e:2a:06:28:
         16:3b:1d:f2:c4:06:ee:97:17:dd:05:96:06:73:d7:89:90:06:
         e8:a4:9f:c7:10:07:a2:0c:b9:f7:15:19:b4:ac:71:84:36:21:
         7c:12:f9:0d:f7:c1:fe:0b:c3:73:f7:ab:14:4f:f8:4a:81:0f:
         c2:ff:d1:d8:ef:e4:c6:1f:3d:0d:7f:c3:45:01:d3:0c:63:ea:
         f7:a8:7e:9c:26:b2:72:7c:d9:35:f3:13:2c:05:e4:47:ac:89:
         c0:0f:1d:52:9c:8b:87:54:41:98:ed:08:d9:f9:65:e4:6f:10:
         7d:0e:61:60:0f:ce:8f:6c:b2:98:2f:6f:3f:fc:52:94:f9:95:
         19:86:77:ed:31:82:37:a8
-----BEGIN CERTIFICATE-----
MIIGrDCCBJSgAwIBAgICEHkwDQYJKoZIhvcNAQEEBQAwgawxCzAJBgNVBAYTAlVT
MQswCQYDVQQIEwJPSDERMA8GA1UEBxMIQ29sdW1idXMxEjAQBgNVBAoTCVZpa2lu
Z1ZQTjEdMBsGA1UECxMUTXlPcmdhbml6YXRpb25hbFVuaXQxFTATBgNVBAMTDFZp
a2luZ1ZQTiBDQTEQMA4GA1UEKRMHRWFzeVJTQTEhMB8GCSqGSIb3DQEJARYSbWVA
bXlob3N0Lm15ZG9tYWluMB4XDTE1MDEyMDIwMzMxNFoXDTI1MDExNzIwMzMxNFow
HjEcMBoGA1UEAxMTQ2xpZW50ODg0Q2VydGNiOWI0MTCCAiIwDQYJKoZIhvcNAQEB
BQADggIPADCCAgoCggIBAM/vP1/cCiljjVqcmS98dObCTJYQIm+L49jlJbVPnbZI
8Cu9DU4AseB4ONIdzvs9YVWgxsKr6TKGmrOpBHgsuxq+gDBWNoDFJV898b00zLfk
7iqru0+d1kQVH35AKsw7WUiejCJaKCuAMpX0pTI55BVt2YCWV65WKVRdokbDa3od
4/SfBEa0bUAkvSR2UtHuSWnLa2PJXjP+LNODDZ4rzWnFztSCrXJU+RaqrKwae/Az
05IBzUN0b+2UE7MLvTu6srKsmERi+53a7c2TUP1c8qckDxX5XvHBHcqDuryT57AV
4xjyiyXnydF5wJTQI6S5FT94cqX/b1rzaI+pbsc+mLaK60I3+0Y0hJgxSP9ihTWz
W8iPFc08jFcnZYbhpE/01opU8i88nD28MjQ+35pGBAvo+HpfdB6IMhZ5x9KAJsof
W2Pn+OwE+bIzySu+XJ4m+CJSwK3yuS12bJTbqssQ3ASd23l4kyKhUhFr5U8YuDD0
EKnxcWKD0prtC4iC0nMUfRBAS5y6MKfolDoR5jfSrfDeaaPL4Pbc5p1kzvgQJs5o
AzERSbP3QqDLbBD+WEK38bckULgAfAnrsaM3iK57Bf6yLLsR7yNVrcFWGqvl89Gl
2wGYufV94kLNP9SoA28oeF0V8BhYzIu6ceAk138fbkeUPW6LYyCD6TJC6+uOHLjD
AgMBAAGjggFjMIIBXzAJBgNVHRMEAjAAMC0GCWCGSAGG+EIBDQQgFh5FYXN5LVJT
QSBHZW5lcmF0ZWQgQ2VydGlmaWNhdGUwHQYDVR0OBBYEFK6EO4czyLTmkcJDGZTW
EpseoU+YMIHhBgNVHSMEgdkwgdaAFBLNYATSoICecO3Gmbh7LMZS/RmhoYGypIGv
MIGsMQswCQYDVQQGEwJVUzELMAkGA1UECBMCT0gxETAPBgNVBAcTCENvbHVtYnVz
MRIwEAYDVQQKEwlWaWtpbmdWUE4xHTAbBgNVBAsTFE15T3JnYW5pemF0aW9uYWxV
bml0MRUwEwYDVQQDEwxWaWtpbmdWUE4gQ0ExEDAOBgNVBCkTB0Vhc3lSU0ExITAf
BgkqhkiG9w0BCQEWEm1lQG15aG9zdC5teWRvbWFpboIJAM81he6Avyo+MBMGA1Ud
JQQMMAoGCCsGAQUFBwMCMAsGA1UdDwQEAwIHgDANBgkqhkiG9w0BAQQFAAOCAgEA
51EUDy538ZholWIsqRS9AxA2NV01Xxelz94XHUyJUkjw44LwbclzI/fo+zD5Ewbr
Q2u6WBLL22OCeRiKfhbIQxa3HRBRFSxU15PkN8RW/8x0q97yYiSwTz5djG/Hh9v+
pSkHFTIkJ/XHU7weh2IpTCp6Cq6JN4ROpl46sKdjDQrBAwGvnTLSnU5XoH/u1kxp
D8Wd5qt2LsooufmcZuKHMQSUO9/vQ0zKQ/L+9CtATS8mzekNtxm3uQdMXyIDM3xo
8+zrWtUUwA2C4+/vYlw/NjFhTqR1EYBvOkaznQrr3075hbLF6c5VOUZHaqnYUczt
ReNNVKTOgnfNxQUfnaem4KuprAbsKY45FXq/QjjYQ9Znf8oQjjievhGJHhmIHvvM
uKGiaFGAanreAcQJgiEh3YiSFNmMU1FLNcuHdAizoYidx/LxjUHasH3/Ai5DXxh9
AY5TIFViqHfHBm1hPcSg8Y1ME1yhU84vFqfOtVMR+NuA3z+RxSVuKgYoFjsd8sQG
7pcX3QWWBnPXiZAG6KSfxxAHogy59xUZtKxxhDYhfBL5DffB/gvDc/erFE/4SoEP
wv/R2O/kxh89DX/DRQHTDGPq96h+nCaycnzZNfMTLAXkR6yJwA8dUpyLh1RBmO0I
2fll5G8QfQ5hYA/Oj2yymC9vP/xSlPmVGYZ37TGCN6g=
-----END CERTIFICATE-----
