Certificate:
    Data:
        Version: 3 (0x2)
        Serial Number: 12910 (0x326e)
    Signature Algorithm: sha256WithRSAEncryption
        Issuer: C=US, ST=OH, L=Columbus, O=VikingVPN, OU=MyOrganizationalUnit, CN=VikingVPN CA/name=EasyRSA/emailAddress=me@myhost.mydomain
        Validity
            Not Before: Apr  5 03:37:43 2018 GMT
            Not After : Apr  2 03:37:43 2028 GMT
        Subject: CN=Client2988Cert5d954d
        Subject Public Key Info:
            Public Key Algorithm: rsaEncryption
                Public-Key: (4096 bit)
                Modulus:
                    00:b4:06:7e:2c:d7:be:05:e6:23:33:b4:34:11:31:
                    36:64:fd:c0:11:e6:e8:ac:3d:4e:db:2a:63:ee:1d:
                    90:31:c1:08:9d:3b:ae:58:a1:83:11:51:84:69:b4:
                    14:70:50:10:03:a2:96:78:04:9e:aa:c2:72:3f:a0:
                    41:2c:09:06:c2:e7:65:d5:d2:51:6c:28:21:fa:0c:
                    84:31:f1:7b:fe:74:67:73:6d:51:b6:0c:be:74:45:
                    bb:69:f4:37:8e:f8:b9:73:76:68:11:d8:e9:ca:8c:
                    3e:08:cf:7e:2a:8f:f7:fe:54:f0:e3:48:a8:a8:be:
                    53:e1:6f:b7:92:83:c0:fc:24:d1:08:0e:bf:b6:15:
                    28:5f:3f:1e:52:f3:1d:c0:69:bb:c7:57:c0:dc:d4:
                    9e:da:fb:47:3a:f6:d7:a2:34:f9:d7:7e:8d:2e:24:
                    81:6d:b9:6c:3d:d5:ad:8d:a9:85:98:06:20:d7:3c:
                    91:8e:ba:c0:15:d3:ff:28:d7:99:41:19:da:40:13:
                    83:43:0a:1a:bb:b5:e2:57:6d:05:21:52:00:6d:9f:
                    b0:6e:67:a4:ef:87:2e:fc:73:d5:a1:e0:c3:c7:ed:
                    e0:88:69:c0:0d:c9:9f:06:cd:2c:6f:4e:1b:b1:ce:
                    62:fe:aa:84:b0:fd:7a:00:4e:3e:b2:bd:79:cf:2d:
                    e3:d6:f3:c0:af:60:a7:4d:22:21:2a:62:6e:6b:ff:
                    34:91:5d:28:87:a8:3c:bf:af:98:95:dd:49:76:62:
                    b6:b1:75:5f:6a:75:8f:19:85:99:1b:8b:76:0e:99:
                    9a:03:a1:6d:5c:03:83:1a:61:8f:be:54:ca:23:af:
                    5e:c8:17:e0:21:6b:af:77:ef:93:18:52:78:87:ba:
                    7b:d0:bc:5f:b8:fc:56:61:ff:50:68:b4:be:84:0c:
                    3b:55:9f:53:1f:86:80:b4:80:7f:1e:62:30:d9:86:
                    3e:1a:e8:63:cf:09:31:4f:c8:47:d7:73:63:1f:46:
                    5d:9a:24:d2:38:64:c5:e7:b1:60:da:f2:ff:01:4c:
                    4a:61:85:5a:5e:30:9c:39:93:ad:8f:99:43:d0:c6:
                    a6:a4:92:cc:0b:67:9b:b0:5c:89:cd:1c:14:1b:4d:
                    49:60:c7:10:71:99:fa:1c:d4:96:47:56:15:42:92:
                    54:35:a1:17:44:a8:c1:56:16:d0:bb:17:3a:5d:56:
                    a2:48:9d:aa:55:be:92:3e:26:87:e4:1b:6a:d9:29:
                    07:3e:7c:38:c6:9b:0b:00:ef:d7:16:25:b2:43:cb:
                    74:fd:e3:5b:f8:07:31:d0:6b:95:c2:6f:45:1a:ad:
                    27:01:fd:d1:63:d2:0a:3c:2c:b3:3a:2f:e7:63:27:
                    e4:4b:b1
                Exponent: 65537 (0x10001)
        X509v3 extensions:
            X509v3 Basic Constraints: 
                CA:FALSE
            Netscape Comment: 
                Easy-RSA Generated Certificate
            X509v3 Subject Key Identifier: 
                91:95:A4:B6:FF:9F:0C:D8:7C:50:08:C0:97:CF:01:F8:8A:80:72:3B
            X509v3 Authority Key Identifier: 
                keyid:12:CD:60:04:D2:A0:80:9E:70:ED:C6:99:B8:7B:2C:C6:52:FD:19:A1
                DirName:/C=US/ST=OH/L=Columbus/O=VikingVPN/OU=MyOrganizationalUnit/CN=VikingVPN CA/name=EasyRSA/emailAddress=me@myhost.mydomain
                serial:CF:35:85:EE:80:BF:2A:3E

            X509v3 Extended Key Usage: 
                TLS Web Client Authentication
            X509v3 Key Usage: 
                Digital Signature
    Signature Algorithm: sha256WithRSAEncryption
         68:05:9f:a2:a2:68:2b:50:f0:f9:9e:16:66:2a:43:30:df:62:
         87:d0:f4:f8:56:bf:6a:84:d7:af:73:1e:a8:b4:a1:07:6b:ec:
         ce:ac:6b:62:58:e9:99:c3:52:4d:b6:5f:69:78:e5:d5:e8:52:
         8f:17:cb:ce:00:55:af:df:d9:d6:09:06:67:ba:b4:8c:94:b2:
         fe:36:54:fe:04:45:11:52:fa:cb:84:ac:6c:8c:e3:ea:b7:c9:
         a1:93:af:c3:d0:c0:76:90:03:44:ba:51:7f:0d:c4:b0:f1:c3:
         a6:66:f6:e2:09:bb:43:da:57:d3:b0:e4:2c:40:36:0f:33:dd:
         93:ca:7e:30:53:cb:69:b1:d7:26:91:72:6a:33:90:16:2a:8c:
         13:18:79:e5:ba:03:10:3b:fc:fa:2b:eb:cc:20:ec:da:72:f8:
         94:8e:d1:6d:8a:21:e9:22:ba:59:b5:1b:02:8c:be:db:fe:8f:
         be:03:d7:05:cf:c1:ad:90:65:e5:3a:51:56:62:62:5b:a7:1e:
         f2:c2:9f:39:87:b4:7f:b1:e4:34:e1:87:db:ef:ba:b4:ef:b0:
         4b:a9:32:61:93:f0:76:da:0c:a6:b3:72:e5:55:46:d2:f0:48:
         33:e9:9c:f8:e2:77:a7:ed:e3:86:de:b9:26:5f:8c:95:8f:d2:
         9b:42:a3:61:b1:cb:23:f3:87:b3:cd:12:f4:07:cc:8e:c3:f4:
         a1:fe:3c:c4:40:c3:a9:63:65:c0:1e:db:ed:31:e1:2b:7e:e3:
         eb:10:1f:67:0c:81:d0:a3:d0:12:f0:28:18:1f:c7:6f:ab:6e:
         19:02:54:82:99:40:7b:a8:d1:44:53:27:71:ce:d0:17:6f:40:
         db:27:d1:0c:f2:a3:a3:11:b0:1b:16:93:60:ee:b8:9e:cf:4b:
         d8:9b:60:59:46:7a:2a:c1:cb:27:6e:ce:97:41:5d:85:d2:9c:
         bb:78:9c:12:de:95:6f:9f:f4:e7:74:cc:53:46:99:6b:75:cf:
         50:60:97:c8:db:0f:51:5e:8f:21:8e:ab:fe:2e:5d:01:c7:db:
         ec:59:39:25:c3:d7:02:91:0f:0f:52:e0:97:a9:71:de:31:46:
         de:06:8b:42:0f:0e:66:28:c4:b1:a8:df:f8:ca:5c:c5:54:ec:
         bc:c9:db:40:16:7e:f1:10:9e:03:19:9f:da:10:6f:54:59:67:
         95:06:e1:8e:7e:80:2c:d3:52:d8:84:c2:7e:a9:f2:cd:ef:62:
         05:65:1c:0a:38:43:8d:83:95:23:61:17:97:39:3e:27:8c:90:
         4f:05:cd:66:b0:6b:94:bf:e4:69:18:5a:b8:0d:65:2e:75:b5:
         9d:92:97:f9:17:64:1c:85
-----BEGIN CERTIFICATE-----
MIIGrTCCBJWgAwIBAgICMm4wDQYJKoZIhvcNAQELBQAwgawxCzAJBgNVBAYTAlVT
MQswCQYDVQQIEwJPSDERMA8GA1UEBxMIQ29sdW1idXMxEjAQBgNVBAoTCVZpa2lu
Z1ZQTjEdMBsGA1UECxMUTXlPcmdhbml6YXRpb25hbFVuaXQxFTATBgNVBAMTDFZp
a2luZ1ZQTiBDQTEQMA4GA1UEKRMHRWFzeVJTQTEhMB8GCSqGSIb3DQEJARYSbWVA
bXlob3N0Lm15ZG9tYWluMB4XDTE4MDQwNTAzMzc0M1oXDTI4MDQwMjAzMzc0M1ow
HzEdMBsGA1UEAxMUQ2xpZW50Mjk4OENlcnQ1ZDk1NGQwggIiMA0GCSqGSIb3DQEB
AQUAA4ICDwAwggIKAoICAQC0Bn4s174F5iMztDQRMTZk/cAR5uisPU7bKmPuHZAx
wQidO65YoYMRUYRptBRwUBADopZ4BJ6qwnI/oEEsCQbC52XV0lFsKCH6DIQx8Xv+
dGdzbVG2DL50Rbtp9DeO+LlzdmgR2OnKjD4Iz34qj/f+VPDjSKiovlPhb7eSg8D8
JNEIDr+2FShfPx5S8x3AabvHV8Dc1J7a+0c69teiNPnXfo0uJIFtuWw91a2NqYWY
BiDXPJGOusAV0/8o15lBGdpAE4NDChq7teJXbQUhUgBtn7BuZ6Tvhy78c9Wh4MPH
7eCIacANyZ8GzSxvThuxzmL+qoSw/XoATj6yvXnPLePW88CvYKdNIiEqYm5r/zSR
XSiHqDy/r5iV3Ul2YraxdV9qdY8ZhZkbi3YOmZoDoW1cA4MaYY++VMojr17IF+Ah
a69375MYUniHunvQvF+4/FZh/1BotL6EDDtVn1MfhoC0gH8eYjDZhj4a6GPPCTFP
yEfXc2MfRl2aJNI4ZMXnsWDa8v8BTEphhVpeMJw5k62PmUPQxqakkswLZ5uwXInN
HBQbTUlgxxBxmfoc1JZHVhVCklQ1oRdEqMFWFtC7FzpdVqJInapVvpI+JofkG2rZ
KQc+fDjGmwsA79cWJbJDy3T941v4BzHQa5XCb0UarScB/dFj0go8LLM6L+djJ+RL
sQIDAQABo4IBYzCCAV8wCQYDVR0TBAIwADAtBglghkgBhvhCAQ0EIBYeRWFzeS1S
U0EgR2VuZXJhdGVkIENlcnRpZmljYXRlMB0GA1UdDgQWBBSRlaS2/58M2HxQCMCX
zwH4ioByOzCB4QYDVR0jBIHZMIHWgBQSzWAE0qCAnnDtxpm4eyzGUv0ZoaGBsqSB
rzCBrDELMAkGA1UEBhMCVVMxCzAJBgNVBAgTAk9IMREwDwYDVQQHEwhDb2x1bWJ1
czESMBAGA1UEChMJVmlraW5nVlBOMR0wGwYDVQQLExRNeU9yZ2FuaXphdGlvbmFs
VW5pdDEVMBMGA1UEAxMMVmlraW5nVlBOIENBMRAwDgYDVQQpEwdFYXN5UlNBMSEw
HwYJKoZIhvcNAQkBFhJtZUBteWhvc3QubXlkb21haW6CCQDPNYXugL8qPjATBgNV
HSUEDDAKBggrBgEFBQcDAjALBgNVHQ8EBAMCB4AwDQYJKoZIhvcNAQELBQADggIB
AGgFn6KiaCtQ8PmeFmYqQzDfYofQ9PhWv2qE169zHqi0oQdr7M6sa2JY6ZnDUk22
X2l45dXoUo8Xy84AVa/f2dYJBme6tIyUsv42VP4ERRFS+suErGyM4+q3yaGTr8PQ
wHaQA0S6UX8NxLDxw6Zm9uIJu0PaV9Ow5CxANg8z3ZPKfjBTy2mx1yaRcmozkBYq
jBMYeeW6AxA7/Por68wg7Npy+JSO0W2KIekiulm1GwKMvtv+j74D1wXPwa2QZeU6
UVZiYlunHvLCnzmHtH+x5DThh9vvurTvsEupMmGT8HbaDKazcuVVRtLwSDPpnPji
d6ft44beuSZfjJWP0ptCo2GxyyPzh7PNEvQHzI7D9KH+PMRAw6ljZcAe2+0x4St+
4+sQH2cMgdCj0BLwKBgfx2+rbhkCVIKZQHuo0URTJ3HO0BdvQNsn0Qzyo6MRsBsW
k2DuuJ7PS9ibYFlGeirByyduzpdBXYXSnLt4nBLelW+f9Od0zFNGmWt1z1Bgl8jb
D1FejyGOq/4uXQHH2+xZOSXD1wKRDw9S4Jepcd4xRt4Gi0IPDmYoxLGo3/jKXMVU
7LzJ20AWfvEQngMZn9oQb1RZZ5UG4Y5+gCzTUtiEwn6p8s3vYgVlHAo4Q42DlSNh
F5c5PieMkE8FzWawa5S/5GkYWrgNZS51tZ2Sl/kXZByF
-----END CERTIFICATE-----
