Certificate:
    Data:
        Version: 3 (0x2)
        Serial Number: 3017 (0xbc9)
    Signature Algorithm: md5WithRSAEncryption
        Issuer: C=US, ST=OH, L=Columbus, O=VikingVPN, OU=MyOrganizationalUnit, CN=VikingVPN CA/name=EasyRSA/emailAddress=me@myhost.mydomain
        Validity
            Not Before: Oct  2 11:05:52 2014 GMT
            Not After : Sep 29 11:05:52 2024 GMT
        Subject: CN=Client693Cert185d5b
        Subject Public Key Info:
            Public Key Algorithm: rsaEncryption
                Public-Key: (4096 bit)
                Modulus:
                    00:c2:63:eb:f2:af:f0:ab:3a:b8:16:59:0a:df:0a:
                    86:2c:c9:06:61:c7:96:7c:f2:52:86:de:f2:d7:04:
                    54:1c:0c:a6:a0:8c:d8:b0:88:b0:a0:2e:f0:68:26:
                    63:aa:01:03:5f:79:8e:10:9b:4b:1c:f8:38:22:cc:
                    8a:6c:9d:97:9f:54:4a:2d:5f:68:48:32:e1:20:e9:
                    2f:d0:b3:ac:0e:92:dd:0e:08:64:bd:c3:e3:8d:e9:
                    65:a6:84:92:3a:1d:87:c6:6e:ee:f8:69:18:62:e3:
                    9c:b5:c0:02:8d:b3:93:d1:6d:7f:9e:62:d7:9f:c2:
                    a8:4e:ba:67:7a:6b:71:3c:ae:14:5c:bb:4c:9d:46:
                    d8:f7:24:9c:27:df:a8:94:d6:56:7a:02:91:c4:2b:
                    b3:ea:64:b2:ad:92:29:e3:e8:95:04:a2:82:23:f4:
                    24:e8:a7:0b:94:ef:ed:33:de:34:76:80:9d:71:c3:
                    c1:19:e9:f3:ef:f7:67:74:cc:3a:36:2f:10:85:c7:
                    a8:e6:6a:0d:21:8b:33:4d:d6:b0:32:1d:1a:96:05:
                    6a:84:dc:84:94:cd:30:9d:b7:ca:58:05:f7:9f:ee:
                    55:59:4a:6e:06:1c:4e:64:61:92:22:81:52:91:be:
                    c5:d0:87:4f:12:ef:19:dd:b8:9d:c0:09:3e:48:a7:
                    f1:00:4c:06:bc:0b:a1:43:68:c7:cc:0f:dc:83:8a:
                    74:10:06:0b:26:68:d5:b8:5f:91:ea:ba:27:4a:fb:
                    cb:51:14:a6:77:42:5b:73:80:ce:e1:e3:ee:0b:e9:
                    75:d1:46:99:c0:90:ed:e0:94:d0:c8:a2:f6:71:bf:
                    96:7f:38:0b:f1:8e:5c:cb:d7:9f:74:df:7f:21:dc:
                    b1:7d:b2:ac:38:1b:38:90:f3:0f:ad:9a:0a:b3:2a:
                    65:32:b4:fc:02:9d:17:58:c7:7b:9b:03:ad:4b:a9:
                    e8:52:a2:88:f1:95:b7:d1:a5:35:70:2c:02:dc:03:
                    a8:47:7d:5a:73:fe:23:2c:a8:44:7d:f5:e7:3f:af:
                    8d:40:74:87:c4:29:91:39:a2:6c:3a:25:31:59:12:
                    48:bb:38:6a:ab:81:95:5a:0f:2a:d7:b2:ea:2b:97:
                    0c:84:5a:5f:7e:2a:a4:55:0b:f1:92:f8:c5:55:57:
                    f6:b1:23:3e:3f:14:fd:a6:20:2d:29:4a:45:44:7f:
                    b9:f6:29:54:c8:48:14:a1:e4:c6:84:52:66:29:17:
                    77:53:f2:e1:a4:d9:af:da:1b:85:9c:2f:c9:09:68:
                    f1:08:9d:ce:33:75:f9:a3:93:e1:5d:ba:a3:b9:e6:
                    42:43:d8:c8:37:41:0c:9b:51:a0:6f:5a:8c:ae:2d:
                    29:19:df
                Exponent: 65537 (0x10001)
        X509v3 extensions:
            X509v3 Basic Constraints: 
                CA:FALSE
            Netscape Comment: 
                Easy-RSA Generated Certificate
            X509v3 Subject Key Identifier: 
                16:2F:14:8F:A1:FD:14:E7:B6:45:11:A6:D5:D5:6F:96:5D:E6:A4:48
            X509v3 Authority Key Identifier: 
                keyid:12:CD:60:04:D2:A0:80:9E:70:ED:C6:99:B8:7B:2C:C6:52:FD:19:A1
                DirName:/C=US/ST=OH/L=Columbus/O=VikingVPN/OU=MyOrganizationalUnit/CN=VikingVPN CA/name=EasyRSA/emailAddress=me@myhost.mydomain
                serial:CF:35:85:EE:80:BF:2A:3E

            X509v3 Extended Key Usage: 
                TLS Web Client Authentication
            X509v3 Key Usage: 
                Digital Signature
    Signature Algorithm: md5WithRSAEncryption
         1a:9d:ac:46:a6:eb:3b:77:4c:85:26:2c:4d:0e:56:ac:bc:c0:
         d5:86:63:8e:16:e2:99:0b:54:9a:94:53:a1:28:9b:ce:2e:27:
         63:ed:72:e1:ed:a2:f4:51:41:fb:ab:35:f5:35:ef:37:ee:03:
         7c:f7:36:53:f9:b8:b4:69:f9:eb:02:c8:7a:75:c4:79:71:ce:
         e8:fd:28:b4:66:91:5e:58:21:fb:db:84:6d:a6:02:b2:08:5c:
         68:8f:a7:1b:41:3f:27:21:f0:16:c4:0d:8c:2b:66:63:8e:c9:
         a0:3a:dc:d5:a1:42:c9:a6:4e:ee:4d:dd:db:a6:55:38:c7:a0:
         4a:bd:35:dc:d0:a2:7e:b5:04:5f:47:da:48:bc:97:15:86:c6:
         82:04:6a:1e:98:9c:fb:8c:f8:52:32:d6:9f:a0:cd:80:1c:05:
         a0:65:15:b4:d4:72:b1:20:1b:3b:fa:d0:c9:73:3e:e0:9a:b7:
         3b:b7:6e:01:a6:0f:a1:e3:77:67:6a:75:2e:7f:86:82:4d:5d:
         36:41:0d:8c:e9:7c:c5:81:47:70:01:5c:7e:7c:a9:50:61:c0:
         1e:09:30:14:a5:b7:be:48:3e:f3:3a:aa:cc:5d:ed:1f:0a:52:
         8a:b2:0e:44:6b:de:72:5f:e0:95:f6:66:5e:c6:8d:75:10:8e:
         b9:29:f1:b1:27:ef:d5:b9:e0:4f:a4:cf:39:ac:68:80:73:f8:
         66:2f:9a:f4:af:f0:9a:21:97:07:64:0d:e4:bb:d7:6b:16:39:
         c7:9a:26:43:1c:86:b9:4c:d2:b6:44:6a:91:8e:12:e0:2b:fe:
         e7:0f:04:23:40:9d:36:c9:7b:cb:ef:be:d4:87:4f:42:5d:c3:
         7d:8b:e0:3d:61:f3:6a:09:0c:3a:ef:2d:e2:4b:18:1b:73:89:
         7e:b2:7b:cc:5d:31:16:dd:c0:92:f4:0f:3b:97:36:df:c6:12:
         a2:bc:0a:bc:2d:15:7b:3c:ce:08:a1:20:dc:f0:48:6a:3a:0d:
         c7:d4:07:66:17:8f:24:20:5e:6f:11:ef:df:89:f0:66:eb:cd:
         3c:de:ce:a8:9e:12:94:6b:42:bf:c9:88:0e:c2:21:6f:d8:d2:
         bc:6b:7b:9b:7e:97:85:11:40:a4:63:ff:f7:eb:56:bd:23:0f:
         28:d5:81:e6:dc:aa:fb:30:43:c2:68:35:a1:b5:5d:99:66:49:
         ca:32:ac:01:e8:d3:5f:c2:09:e3:e1:f7:a2:60:e3:15:a5:5f:
         6e:ba:be:e3:3e:bd:c7:0d:b4:2f:94:41:e9:77:54:ff:e4:b4:
         e5:08:b8:0f:a7:65:e4:f9:a3:58:e0:02:7d:68:bb:25:c2:19:
         c4:6d:c4:28:63:fc:20:5d
-----BEGIN CERTIFICATE-----
MIIGrDCCBJSgAwIBAgICC8kwDQYJKoZIhvcNAQEEBQAwgawxCzAJBgNVBAYTAlVT
MQswCQYDVQQIEwJPSDERMA8GA1UEBxMIQ29sdW1idXMxEjAQBgNVBAoTCVZpa2lu
Z1ZQTjEdMBsGA1UECxMUTXlPcmdhbml6YXRpb25hbFVuaXQxFTATBgNVBAMTDFZp
a2luZ1ZQTiBDQTEQMA4GA1UEKRMHRWFzeVJTQTEhMB8GCSqGSIb3DQEJARYSbWVA
bXlob3N0Lm15ZG9tYWluMB4XDTE0MTAwMjExMDU1MloXDTI0MDkyOTExMDU1Mlow
HjEcMBoGA1UEAxMTQ2xpZW50NjkzQ2VydDE4NWQ1YjCCAiIwDQYJKoZIhvcNAQEB
BQADggIPADCCAgoCggIBAMJj6/Kv8Ks6uBZZCt8KhizJBmHHlnzyUobe8tcEVBwM
pqCM2LCIsKAu8GgmY6oBA195jhCbSxz4OCLMimydl59USi1faEgy4SDpL9CzrA6S
3Q4IZL3D443pZaaEkjodh8Zu7vhpGGLjnLXAAo2zk9Ftf55i15/CqE66Z3prcTyu
FFy7TJ1G2PcknCffqJTWVnoCkcQrs+pksq2SKePolQSigiP0JOinC5Tv7TPeNHaA
nXHDwRnp8+/3Z3TMOjYvEIXHqOZqDSGLM03WsDIdGpYFaoTchJTNMJ23ylgF95/u
VVlKbgYcTmRhkiKBUpG+xdCHTxLvGd24ncAJPkin8QBMBrwLoUNox8wP3IOKdBAG
CyZo1bhfkeq6J0r7y1EUpndCW3OAzuHj7gvpddFGmcCQ7eCU0Mii9nG/ln84C/GO
XMvXn3TffyHcsX2yrDgbOJDzD62aCrMqZTK0/AKdF1jHe5sDrUup6FKiiPGVt9Gl
NXAsAtwDqEd9WnP+IyyoRH315z+vjUB0h8QpkTmibDolMVkSSLs4aquBlVoPKtey
6iuXDIRaX34qpFUL8ZL4xVVX9rEjPj8U/aYgLSlKRUR/ufYpVMhIFKHkxoRSZikX
d1Py4aTZr9obhZwvyQlo8QidzjN1+aOT4V26o7nmQkPYyDdBDJtRoG9ajK4tKRnf
AgMBAAGjggFjMIIBXzAJBgNVHRMEAjAAMC0GCWCGSAGG+EIBDQQgFh5FYXN5LVJT
QSBHZW5lcmF0ZWQgQ2VydGlmaWNhdGUwHQYDVR0OBBYEFBYvFI+h/RTntkURptXV
b5Zd5qRIMIHhBgNVHSMEgdkwgdaAFBLNYATSoICecO3Gmbh7LMZS/RmhoYGypIGv
MIGsMQswCQYDVQQGEwJVUzELMAkGA1UECBMCT0gxETAPBgNVBAcTCENvbHVtYnVz
MRIwEAYDVQQKEwlWaWtpbmdWUE4xHTAbBgNVBAsTFE15T3JnYW5pemF0aW9uYWxV
bml0MRUwEwYDVQQDEwxWaWtpbmdWUE4gQ0ExEDAOBgNVBCkTB0Vhc3lSU0ExITAf
BgkqhkiG9w0BCQEWEm1lQG15aG9zdC5teWRvbWFpboIJAM81he6Avyo+MBMGA1Ud
JQQMMAoGCCsGAQUFBwMCMAsGA1UdDwQEAwIHgDANBgkqhkiG9w0BAQQFAAOCAgEA
Gp2sRqbrO3dMhSYsTQ5WrLzA1YZjjhbimQtUmpRToSibzi4nY+1y4e2i9FFB+6s1
9TXvN+4DfPc2U/m4tGn56wLIenXEeXHO6P0otGaRXlgh+9uEbaYCsghcaI+nG0E/
JyHwFsQNjCtmY47JoDrc1aFCyaZO7k3d26ZVOMegSr013NCifrUEX0faSLyXFYbG
ggRqHpic+4z4UjLWn6DNgBwFoGUVtNRysSAbO/rQyXM+4Jq3O7duAaYPoeN3Z2p1
Ln+Ggk1dNkENjOl8xYFHcAFcfnypUGHAHgkwFKW3vkg+8zqqzF3tHwpSirIORGve
cl/glfZmXsaNdRCOuSnxsSfv1bngT6TPOaxogHP4Zi+a9K/wmiGXB2QN5LvXaxY5
x5omQxyGuUzStkRqkY4S4Cv+5w8EI0CdNsl7y+++1IdPQl3DfYvgPWHzagkMOu8t
4ksYG3OJfrJ7zF0xFt3AkvQPO5c238YSorwKvC0VezzOCKEg3PBIajoNx9QHZheP
JCBebxHv34nwZuvNPN7OqJ4SlGtCv8mIDsIhb9jSvGt7m36XhRFApGP/9+tWvSMP
KNWB5tyq+zBDwmg1obVdmWZJyjKsAejTX8IJ4+H3omDjFaVfbrq+4z69xw20L5RB
6XdU/+S05Qi4D6dl5PmjWOACfWi7JcIZxG3EKGP8IF0=
-----END CERTIFICATE-----
