Certificate:
    Data:
        Version: 3 (0x2)
        Serial Number: 9545 (0x2549)
    Signature Algorithm: sha256WithRSAEncryption
        Issuer: C=US, ST=OH, L=Columbus, O=VikingVPN, OU=MyOrganizationalUnit, CN=VikingVPN CA/name=EasyRSA/emailAddress=me@myhost.mydomain
        Validity
            Not Before: Nov 25 23:56:33 2016 GMT
            Not After : Nov 23 23:56:33 2026 GMT
        Subject: CN=Client2604Cert06b2a6
        Subject Public Key Info:
            Public Key Algorithm: rsaEncryption
                Public-Key: (4096 bit)
                Modulus:
                    00:9a:ee:0f:0c:b6:0a:4e:ab:9f:a0:41:e7:de:13:
                    37:56:89:c8:ab:cd:bb:70:2a:9f:cf:e7:18:a7:82:
                    45:fe:34:34:01:5b:23:17:2e:7c:8a:f4:9d:e8:03:
                    17:84:78:32:80:2a:04:8f:35:10:06:7d:4e:0c:1e:
                    a4:2e:2f:8b:a6:91:5e:ee:a9:60:f9:fd:d7:db:84:
                    bc:7d:6c:b7:02:ee:73:46:7e:1a:5d:5b:87:75:52:
                    5a:db:67:fa:ef:7c:e1:a8:38:bb:e6:df:03:90:f3:
                    de:a4:f6:ca:a8:e6:3e:32:5c:8d:4e:6b:13:e1:5c:
                    8e:fe:0d:6e:37:29:c9:30:d2:81:54:b5:56:42:0b:
                    18:f7:10:3a:5f:81:0e:89:83:71:ab:d0:18:c5:7a:
                    6a:f7:9c:b3:6f:c1:18:43:ca:9b:1e:73:4d:77:dd:
                    f7:5e:ac:12:fa:5b:81:5f:50:7d:ae:d5:fe:bd:44:
                    c4:ce:60:86:29:42:51:fc:40:8c:0f:ec:3e:bb:96:
                    01:f6:24:6c:f7:e6:c4:2f:ad:28:39:a6:70:a7:75:
                    bb:d6:a8:74:20:b4:72:78:11:9f:ab:62:2d:43:ff:
                    f4:08:aa:7c:2e:72:eb:4e:e5:15:da:35:8b:64:02:
                    e7:8e:4c:c0:7d:79:d2:6b:85:c1:e6:4f:94:3c:0d:
                    a5:13:85:5a:70:9a:9b:c9:1b:c7:d1:95:b6:6f:41:
                    33:6d:7c:49:d4:30:43:c7:28:aa:97:5b:41:56:a2:
                    9a:34:31:a8:9b:5f:83:70:e1:0f:8e:c8:61:d5:7f:
                    25:be:a0:38:41:2e:48:55:a8:77:a8:10:79:bd:6c:
                    6d:ad:69:f9:86:4e:3f:21:82:8e:79:d2:28:90:4d:
                    a5:21:d1:fe:29:9e:41:88:3d:60:0f:91:be:b9:1c:
                    41:57:57:94:1d:07:ac:24:57:a6:de:7f:7f:fb:bb:
                    b5:30:8f:ae:6a:db:19:bf:b7:3f:bb:eb:84:c4:43:
                    c2:77:67:c4:8e:88:56:2b:99:96:6b:e7:1a:69:11:
                    30:aa:61:db:65:b1:45:3d:92:40:d8:39:56:1a:81:
                    c5:5a:0d:74:04:94:09:77:cf:2b:22:72:77:79:ca:
                    b3:44:68:04:1d:61:c5:cf:10:c0:5d:e5:9f:09:75:
                    53:8c:f6:87:b5:14:6d:3d:9a:3e:ef:8d:c8:49:57:
                    42:6b:13:b0:b6:86:6f:f3:e2:32:f6:7e:19:a7:a0:
                    82:52:e5:37:29:f4:81:03:d3:d4:cb:c0:79:21:cc:
                    89:f2:ad:f4:38:3f:50:23:70:0f:b4:c5:d1:24:3e:
                    2c:61:a8:33:fb:4f:57:17:b0:34:56:4a:9d:71:23:
                    fa:2d:7b
                Exponent: 65537 (0x10001)
        X509v3 extensions:
            X509v3 Basic Constraints: 
                CA:FALSE
            Netscape Comment: 
                Easy-RSA Generated Certificate
            X509v3 Subject Key Identifier: 
                1F:D4:F5:8A:92:89:FC:27:36:84:B5:43:8D:4B:DC:DF:CB:CD:70:F1
            X509v3 Authority Key Identifier: 
                keyid:12:CD:60:04:D2:A0:80:9E:70:ED:C6:99:B8:7B:2C:C6:52:FD:19:A1
                DirName:/C=US/ST=OH/L=Columbus/O=VikingVPN/OU=MyOrganizationalUnit/CN=VikingVPN CA/name=EasyRSA/emailAddress=me@myhost.mydomain
                serial:CF:35:85:EE:80:BF:2A:3E

            X509v3 Extended Key Usage: 
                TLS Web Client Authentication
            X509v3 Key Usage: 
                Digital Signature
    Signature Algorithm: sha256WithRSAEncryption
         54:1f:95:8b:25:cb:74:a9:22:80:4c:82:40:ff:20:08:6e:1a:
         8b:b2:0c:69:d2:03:86:3e:ec:19:66:1a:d5:b3:30:52:ae:58:
         bd:0a:33:4e:a1:7a:8b:84:fd:2f:78:7d:3d:2d:82:01:48:e6:
         36:25:3d:a5:d7:43:47:5a:eb:6d:84:25:b9:67:33:17:74:ee:
         e6:bf:8a:a6:41:67:89:5e:59:9f:a4:9e:79:9e:bb:20:9d:cf:
         d3:d3:0a:1a:ae:4d:4e:c2:50:2a:7e:fe:eb:72:be:8c:1e:cd:
         d8:f7:39:f2:21:c8:cf:f3:cb:3e:33:06:c0:96:94:7b:41:1e:
         db:89:3c:ca:03:72:63:83:90:8d:92:fe:e1:67:46:d9:1d:b7:
         84:28:74:08:61:0e:c2:98:e7:91:00:a1:ec:0f:08:84:7d:de:
         dc:4a:1b:55:d2:4a:3e:1a:23:07:51:b2:a9:03:32:24:ee:5f:
         8a:12:74:4b:f1:8c:d2:05:94:b7:1e:2b:ec:20:e8:b3:94:5c:
         01:b7:98:f4:01:f0:32:36:c5:74:03:e1:b6:55:d1:7c:e5:3f:
         90:6c:53:2b:3e:51:88:8c:af:27:0a:f2:cf:3c:84:50:f7:de:
         12:4d:a8:e8:3e:e2:dc:23:88:a5:57:a3:2c:2d:34:2f:8b:b3:
         c7:97:8b:da:be:df:d3:91:7d:ed:eb:92:a8:1f:a0:aa:11:7b:
         ac:0b:2a:83:43:e0:77:97:9f:e5:e4:6c:cd:46:cb:19:7c:e7:
         ec:99:07:a3:9c:67:66:ce:fc:68:15:9b:cb:a2:80:8e:26:63:
         f7:6d:3d:28:4a:56:16:23:c6:57:d3:0f:75:22:87:b7:9e:48:
         a5:7b:ed:0f:6c:94:ad:4a:20:2b:eb:e7:03:fb:70:6b:96:2f:
         e9:2f:43:47:4e:07:41:3f:af:41:81:5e:5e:c6:fa:06:8e:16:
         eb:af:1b:60:78:e4:92:24:59:90:52:d0:e6:d0:7e:91:14:b0:
         28:db:59:a6:35:7d:14:c2:a5:45:e8:a9:2f:2b:e6:b9:7e:a4:
         64:23:ac:9b:de:68:1e:26:b5:e9:cc:06:4e:83:8b:14:cb:ea:
         fa:90:a3:f3:8c:88:94:aa:ea:af:5d:a3:80:34:b0:7f:48:2f:
         44:27:58:8c:4b:e0:d7:f9:c1:4d:27:01:8b:eb:4b:12:15:ef:
         3d:bb:4f:62:c9:58:17:cc:a0:38:f5:32:e9:77:bd:29:b2:a0:
         b2:ec:15:0f:a3:da:5c:75:94:7d:2b:47:95:c3:ea:70:1b:af:
         02:9e:eb:40:2a:99:a7:9f:3c:a8:61:54:cf:cb:d3:cd:3c:d1:
         f9:81:22:17:5a:bc:d0:ab
-----BEGIN CERTIFICATE-----
MIIGrTCCBJWgAwIBAgICJUkwDQYJKoZIhvcNAQELBQAwgawxCzAJBgNVBAYTAlVT
MQswCQYDVQQIEwJPSDERMA8GA1UEBxMIQ29sdW1idXMxEjAQBgNVBAoTCVZpa2lu
Z1ZQTjEdMBsGA1UECxMUTXlPcmdhbml6YXRpb25hbFVuaXQxFTATBgNVBAMTDFZp
a2luZ1ZQTiBDQTEQMA4GA1UEKRMHRWFzeVJTQTEhMB8GCSqGSIb3DQEJARYSbWVA
bXlob3N0Lm15ZG9tYWluMB4XDTE2MTEyNTIzNTYzM1oXDTI2MTEyMzIzNTYzM1ow
HzEdMBsGA1UEAxMUQ2xpZW50MjYwNENlcnQwNmIyYTYwggIiMA0GCSqGSIb3DQEB
AQUAA4ICDwAwggIKAoICAQCa7g8MtgpOq5+gQefeEzdWicirzbtwKp/P5xingkX+
NDQBWyMXLnyK9J3oAxeEeDKAKgSPNRAGfU4MHqQuL4umkV7uqWD5/dfbhLx9bLcC
7nNGfhpdW4d1UlrbZ/rvfOGoOLvm3wOQ896k9sqo5j4yXI1OaxPhXI7+DW43Kckw
0oFUtVZCCxj3EDpfgQ6Jg3Gr0BjFemr3nLNvwRhDypsec0133fderBL6W4FfUH2u
1f69RMTOYIYpQlH8QIwP7D67lgH2JGz35sQvrSg5pnCndbvWqHQgtHJ4EZ+rYi1D
//QIqnwucutO5RXaNYtkAueOTMB9edJrhcHmT5Q8DaUThVpwmpvJG8fRlbZvQTNt
fEnUMEPHKKqXW0FWopo0MaibX4Nw4Q+OyGHVfyW+oDhBLkhVqHeoEHm9bG2tafmG
Tj8hgo550iiQTaUh0f4pnkGIPWAPkb65HEFXV5QdB6wkV6bef3/7u7Uwj65q2xm/
tz+764TEQ8J3Z8SOiFYrmZZr5xppETCqYdtlsUU9kkDYOVYagcVaDXQElAl3zysi
cnd5yrNEaAQdYcXPEMBd5Z8JdVOM9oe1FG09mj7vjchJV0JrE7C2hm/z4jL2fhmn
oIJS5Tcp9IED09TLwHkhzInyrfQ4P1AjcA+0xdEkPixhqDP7T1cXsDRWSp1xI/ot
ewIDAQABo4IBYzCCAV8wCQYDVR0TBAIwADAtBglghkgBhvhCAQ0EIBYeRWFzeS1S
U0EgR2VuZXJhdGVkIENlcnRpZmljYXRlMB0GA1UdDgQWBBQf1PWKkon8JzaEtUON
S9zfy81w8TCB4QYDVR0jBIHZMIHWgBQSzWAE0qCAnnDtxpm4eyzGUv0ZoaGBsqSB
rzCBrDELMAkGA1UEBhMCVVMxCzAJBgNVBAgTAk9IMREwDwYDVQQHEwhDb2x1bWJ1
czESMBAGA1UEChMJVmlraW5nVlBOMR0wGwYDVQQLExRNeU9yZ2FuaXphdGlvbmFs
VW5pdDEVMBMGA1UEAxMMVmlraW5nVlBOIENBMRAwDgYDVQQpEwdFYXN5UlNBMSEw
HwYJKoZIhvcNAQkBFhJtZUBteWhvc3QubXlkb21haW6CCQDPNYXugL8qPjATBgNV
HSUEDDAKBggrBgEFBQcDAjALBgNVHQ8EBAMCB4AwDQYJKoZIhvcNAQELBQADggIB
AFQflYsly3SpIoBMgkD/IAhuGouyDGnSA4Y+7BlmGtWzMFKuWL0KM06heouE/S94
fT0tggFI5jYlPaXXQ0da622EJblnMxd07ua/iqZBZ4leWZ+knnmeuyCdz9PTChqu
TU7CUCp+/utyvowezdj3OfIhyM/zyz4zBsCWlHtBHtuJPMoDcmODkI2S/uFnRtkd
t4QodAhhDsKY55EAoewPCIR93txKG1XSSj4aIwdRsqkDMiTuX4oSdEvxjNIFlLce
K+wg6LOUXAG3mPQB8DI2xXQD4bZV0XzlP5BsUys+UYiMrycK8s88hFD33hJNqOg+
4twjiKVXoywtNC+Ls8eXi9q+39ORfe3rkqgfoKoRe6wLKoND4HeXn+XkbM1Gyxl8
5+yZB6OcZ2bO/GgVm8uigI4mY/dtPShKVhYjxlfTD3Uih7eeSKV77Q9slK1KICvr
5wP7cGuWL+kvQ0dOB0E/r0GBXl7G+gaOFuuvG2B45JIkWZBS0ObQfpEUsCjbWaY1
fRTCpUXoqS8r5rl+pGQjrJveaB4mtenMBk6DixTL6vqQo/OMiJSq6q9do4A0sH9I
L0QnWIxL4Nf5wU0nAYvrSxIV7z27T2LJWBfMoDj1Mul3vSmyoLLsFQ+j2lx1lH0r
R5XD6nAbrwKe60AqmaefPKhhVM/L08080fmBIhdavNCr
-----END CERTIFICATE-----
