Certificate:
    Data:
        Version: 3 (0x2)
        Serial Number: 9893 (0x26a5)
    Signature Algorithm: sha256WithRSAEncryption
        Issuer: C=US, ST=OH, L=Columbus, O=VikingVPN, OU=MyOrganizationalUnit, CN=VikingVPN CA/name=EasyRSA/emailAddress=me@myhost.mydomain
        Validity
            Not Before: Jan 14 11:11:00 2017 GMT
            Not After : Jan 12 11:11:00 2027 GMT
        Subject: CN=Client1619Cert265b63
        Subject Public Key Info:
            Public Key Algorithm: rsaEncryption
                Public-Key: (4096 bit)
                Modulus:
                    00:b6:0a:f5:a9:04:aa:f1:14:b0:a7:47:5f:e6:70:
                    a7:9c:5b:ed:ff:2a:43:fc:a2:9b:0a:5e:ea:05:7d:
                    de:07:4d:a2:1f:ae:10:08:32:66:74:db:e1:05:57:
                    07:03:71:bc:a9:22:20:a6:4c:80:37:ac:7a:66:53:
                    e8:7f:68:db:f5:d7:51:95:b0:c5:af:af:dd:ec:83:
                    cc:10:92:85:a6:bb:37:4e:11:9b:2c:c0:8e:30:a4:
                    24:ae:d1:ad:22:a1:88:53:36:a5:66:d5:17:ff:9d:
                    f9:f3:a3:eb:b5:28:71:e9:a9:50:e3:66:6b:72:31:
                    01:38:4d:9a:33:42:c7:6b:fb:1a:32:da:14:1c:2e:
                    c0:01:df:e5:c3:7f:78:56:83:dd:3b:95:37:06:7c:
                    4c:93:54:a9:33:77:59:df:d5:e9:54:73:1f:a5:da:
                    5c:57:32:b6:7c:03:0e:38:99:57:ca:f0:5c:31:5c:
                    58:30:e4:2b:34:8d:db:46:2e:9a:d7:a1:87:92:f5:
                    30:72:c7:03:7f:07:03:8b:a9:cd:c2:cd:94:34:3f:
                    b1:f7:6a:b9:d8:7d:6b:ae:9d:ba:87:7e:52:9f:a8:
                    48:ba:80:31:72:98:44:df:dd:a2:8f:53:69:0b:58:
                    6c:2e:d0:91:e5:4d:f0:14:d6:2c:c9:b7:e4:65:43:
                    3d:ab:f4:ef:7d:bc:33:6f:f6:9a:42:b5:aa:82:01:
                    7c:13:b2:1a:e7:9b:12:af:4e:05:b0:a2:9a:1f:f5:
                    6f:81:72:00:54:55:ea:83:62:27:99:6e:4b:b2:b0:
                    08:b3:f0:9c:06:f0:5a:bf:71:67:ae:6c:01:17:79:
                    30:c2:5d:5a:0c:7d:5f:b6:03:1e:3a:df:78:29:db:
                    ee:77:88:22:ce:49:9a:f4:86:ce:ba:b5:ce:d7:94:
                    12:ae:43:29:fb:b5:e3:a8:40:70:00:79:87:6d:a2:
                    e1:5b:b3:42:74:51:96:9e:96:5d:74:57:d6:5c:c6:
                    96:28:95:25:87:00:6e:57:a1:c2:65:44:8b:5e:78:
                    f0:a8:f9:24:ca:06:ee:1e:1b:c7:eb:59:95:96:46:
                    19:f0:3d:cd:64:22:7a:30:73:b9:95:7e:cd:fe:99:
                    f1:00:49:6c:29:36:45:be:a6:ee:96:b9:a7:ac:7f:
                    45:ac:15:5a:40:ff:8b:b7:97:51:16:33:9f:9a:4d:
                    db:94:20:bc:42:5b:60:75:c0:ed:d4:2f:b3:03:63:
                    aa:40:35:1c:31:fa:c0:89:2b:1e:a6:20:d6:3d:e6:
                    6f:d8:82:9d:61:7a:f3:6c:45:1a:45:12:4f:d5:e1:
                    27:77:bf:1b:81:48:14:d7:b4:36:04:60:60:14:45:
                    bf:a4:9f
                Exponent: 65537 (0x10001)
        X509v3 extensions:
            X509v3 Basic Constraints: 
                CA:FALSE
            Netscape Comment: 
                Easy-RSA Generated Certificate
            X509v3 Subject Key Identifier: 
                9F:52:38:A6:89:0D:E6:DB:66:F2:AB:5D:DF:B2:A2:E1:CA:5F:09:79
            X509v3 Authority Key Identifier: 
                keyid:12:CD:60:04:D2:A0:80:9E:70:ED:C6:99:B8:7B:2C:C6:52:FD:19:A1
                DirName:/C=US/ST=OH/L=Columbus/O=VikingVPN/OU=MyOrganizationalUnit/CN=VikingVPN CA/name=EasyRSA/emailAddress=me@myhost.mydomain
                serial:CF:35:85:EE:80:BF:2A:3E

            X509v3 Extended Key Usage: 
                TLS Web Client Authentication
            X509v3 Key Usage: 
                Digital Signature
    Signature Algorithm: sha256WithRSAEncryption
         ec:59:c8:7e:af:7a:cd:24:d9:e3:09:b3:fa:9d:82:de:5d:61:
         bb:b5:4a:cc:e7:d0:76:19:07:7a:71:20:af:01:86:bf:d1:32:
         5e:8e:b7:28:df:1f:ac:8a:32:69:be:de:78:2f:6f:14:37:fb:
         16:e4:f5:dd:e4:44:31:ab:ae:01:7c:d1:de:c2:e6:11:0d:34:
         b1:ee:4e:2c:ac:39:e0:25:70:e8:ce:2d:e9:ce:d2:f4:1d:6b:
         a0:e8:f8:b9:b0:be:5d:f6:f2:94:07:16:8b:45:1d:9d:b1:39:
         1a:cf:02:0e:de:98:e4:db:80:e5:38:88:ac:8b:8a:c2:f8:77:
         85:9b:f1:01:89:4f:6d:3e:9a:32:8d:dd:b2:41:be:29:de:37:
         98:90:35:2f:13:80:57:a5:4f:7e:2f:25:e6:06:e5:64:ee:8b:
         98:2f:c8:ec:5d:19:cc:ac:b4:44:4a:e4:6b:bb:91:35:4f:f9:
         8a:85:4c:04:05:df:5d:e9:91:77:9d:cd:7b:9c:b4:11:a5:2a:
         5b:9d:35:bd:fb:35:03:f0:51:37:6c:15:a4:1c:d8:b9:cd:e0:
         7f:5e:9c:18:b2:80:57:5a:25:65:64:f5:93:4f:39:d4:83:6a:
         14:c3:e1:5e:4a:fe:f9:7b:a7:dd:d3:6d:d0:69:95:7a:4c:b7:
         f8:2a:dd:59:4e:8f:12:2a:38:25:1a:85:ce:47:5a:40:47:66:
         20:07:24:ca:96:8f:ef:d3:da:a1:a3:bc:0a:7b:44:e7:54:2a:
         09:93:e2:d1:a6:dd:87:c8:52:4a:59:2e:c7:9a:d0:01:dd:30:
         a0:88:f7:51:56:47:be:40:28:44:34:c4:6b:c9:fc:94:cf:fd:
         9e:a9:a2:d6:56:38:9a:32:2a:5a:cb:06:6a:16:38:81:d8:18:
         60:10:7c:0b:d2:ae:8e:4a:61:59:d1:05:a9:b2:fb:39:35:af:
         4f:69:31:a7:01:14:a3:be:5e:f6:26:0d:c5:12:3f:60:a8:ff:
         c4:64:a4:a5:5d:06:97:87:7f:ac:d1:ab:3c:62:f6:7a:b8:0b:
         69:75:80:85:35:3f:1d:2f:cc:c5:86:4b:b2:9e:72:42:0c:b8:
         7e:52:c0:16:4b:85:4b:50:dc:2b:9a:21:24:42:5c:23:13:fd:
         02:a2:58:58:a0:ba:f3:4f:23:a3:6e:eb:66:86:6a:ab:e7:25:
         0c:4d:cc:59:49:08:d8:22:4e:5b:a1:d6:2a:7a:12:9c:e7:9c:
         ac:c0:ca:4e:51:63:23:f7:fc:6c:21:51:fa:85:0b:ff:19:be:
         66:7d:80:b7:dd:30:43:e1:e1:1a:24:7e:c4:2a:d7:48:78:98:
         e7:0f:b4:b9:12:4c:e4:2f
-----BEGIN CERTIFICATE-----
MIIGrTCCBJWgAwIBAgICJqUwDQYJKoZIhvcNAQELBQAwgawxCzAJBgNVBAYTAlVT
MQswCQYDVQQIEwJPSDERMA8GA1UEBxMIQ29sdW1idXMxEjAQBgNVBAoTCVZpa2lu
Z1ZQTjEdMBsGA1UECxMUTXlPcmdhbml6YXRpb25hbFVuaXQxFTATBgNVBAMTDFZp
a2luZ1ZQTiBDQTEQMA4GA1UEKRMHRWFzeVJTQTEhMB8GCSqGSIb3DQEJARYSbWVA
bXlob3N0Lm15ZG9tYWluMB4XDTE3MDExNDExMTEwMFoXDTI3MDExMjExMTEwMFow
HzEdMBsGA1UEAxMUQ2xpZW50MTYxOUNlcnQyNjViNjMwggIiMA0GCSqGSIb3DQEB
AQUAA4ICDwAwggIKAoICAQC2CvWpBKrxFLCnR1/mcKecW+3/KkP8opsKXuoFfd4H
TaIfrhAIMmZ02+EFVwcDcbypIiCmTIA3rHpmU+h/aNv111GVsMWvr93sg8wQkoWm
uzdOEZsswI4wpCSu0a0ioYhTNqVm1Rf/nfnzo+u1KHHpqVDjZmtyMQE4TZozQsdr
+xoy2hQcLsAB3+XDf3hWg907lTcGfEyTVKkzd1nf1elUcx+l2lxXMrZ8Aw44mVfK
8FwxXFgw5Cs0jdtGLprXoYeS9TByxwN/BwOLqc3CzZQ0P7H3arnYfWuunbqHflKf
qEi6gDFymETf3aKPU2kLWGwu0JHlTfAU1izJt+RlQz2r9O99vDNv9ppCtaqCAXwT
shrnmxKvTgWwopof9W+BcgBUVeqDYieZbkuysAiz8JwG8Fq/cWeubAEXeTDCXVoM
fV+2Ax4633gp2+53iCLOSZr0hs66tc7XlBKuQyn7teOoQHAAeYdtouFbs0J0UZae
ll10V9ZcxpYolSWHAG5XocJlRIteePCo+STKBu4eG8frWZWWRhnwPc1kInowc7mV
fs3+mfEASWwpNkW+pu6Wuaesf0WsFVpA/4u3l1EWM5+aTduUILxCW2B1wO3UL7MD
Y6pANRwx+sCJKx6mINY95m/Ygp1hevNsRRpFEk/V4Sd3vxuBSBTXtDYEYGAURb+k
nwIDAQABo4IBYzCCAV8wCQYDVR0TBAIwADAtBglghkgBhvhCAQ0EIBYeRWFzeS1S
U0EgR2VuZXJhdGVkIENlcnRpZmljYXRlMB0GA1UdDgQWBBSfUjimiQ3m22byq13f
sqLhyl8JeTCB4QYDVR0jBIHZMIHWgBQSzWAE0qCAnnDtxpm4eyzGUv0ZoaGBsqSB
rzCBrDELMAkGA1UEBhMCVVMxCzAJBgNVBAgTAk9IMREwDwYDVQQHEwhDb2x1bWJ1
czESMBAGA1UEChMJVmlraW5nVlBOMR0wGwYDVQQLExRNeU9yZ2FuaXphdGlvbmFs
VW5pdDEVMBMGA1UEAxMMVmlraW5nVlBOIENBMRAwDgYDVQQpEwdFYXN5UlNBMSEw
HwYJKoZIhvcNAQkBFhJtZUBteWhvc3QubXlkb21haW6CCQDPNYXugL8qPjATBgNV
HSUEDDAKBggrBgEFBQcDAjALBgNVHQ8EBAMCB4AwDQYJKoZIhvcNAQELBQADggIB
AOxZyH6ves0k2eMJs/qdgt5dYbu1Sszn0HYZB3pxIK8Bhr/RMl6OtyjfH6yKMmm+
3ngvbxQ3+xbk9d3kRDGrrgF80d7C5hENNLHuTiysOeAlcOjOLenO0vQda6Do+Lmw
vl328pQHFotFHZ2xORrPAg7emOTbgOU4iKyLisL4d4Wb8QGJT20+mjKN3bJBvine
N5iQNS8TgFelT34vJeYG5WTui5gvyOxdGcystERK5Gu7kTVP+YqFTAQF313pkXed
zXuctBGlKludNb37NQPwUTdsFaQc2LnN4H9enBiygFdaJWVk9ZNPOdSDahTD4V5K
/vl7p93TbdBplXpMt/gq3VlOjxIqOCUahc5HWkBHZiAHJMqWj+/T2qGjvAp7ROdU
KgmT4tGm3YfIUkpZLsea0AHdMKCI91FWR75AKEQ0xGvJ/JTP/Z6potZWOJoyKlrL
BmoWOIHYGGAQfAvSro5KYVnRBamy+zk1r09pMacBFKO+XvYmDcUSP2Co/8RkpKVd
BpeHf6zRqzxi9nq4C2l1gIU1Px0vzMWGS7KeckIMuH5SwBZLhUtQ3CuaISRCXCMT
/QKiWFiguvNPI6Nu62aGaqvnJQxNzFlJCNgiTluh1ip6EpznnKzAyk5RYyP3/Gwh
UfqFC/8ZvmZ9gLfdMEPh4RokfsQq10h4mOcPtLkSTOQv
-----END CERTIFICATE-----
