Certificate:
    Data:
        Version: 3 (0x2)
        Serial Number: 2526 (0x9de)
    Signature Algorithm: md5WithRSAEncryption
        Issuer: C=US, ST=OH, L=Columbus, O=VikingVPN, OU=MyOrganizationalUnit, CN=VikingVPN CA/name=EasyRSA/emailAddress=me@myhost.mydomain
        Validity
            Not Before: Aug 10 17:44:57 2014 GMT
            Not After : Aug  7 17:44:57 2024 GMT
        Subject: CN=Client877Cert88c094
        Subject Public Key Info:
            Public Key Algorithm: rsaEncryption
                Public-Key: (4096 bit)
                Modulus:
                    00:a9:96:1b:00:55:db:f0:53:b6:e3:47:ef:5b:28:
                    34:e9:e2:5d:b8:49:77:34:27:fe:85:c0:99:13:35:
                    f0:b1:44:01:70:22:a1:72:cf:b1:23:d8:24:dd:17:
                    d3:32:4d:91:69:f6:cc:ba:1b:82:e4:16:61:e0:42:
                    55:66:7c:0a:8f:6a:0e:5c:99:b4:4a:53:fb:3a:1d:
                    54:32:94:84:67:ea:c5:09:54:62:63:67:c5:ef:ca:
                    5f:32:28:e0:04:af:a8:77:ad:59:a6:c1:e5:5f:f3:
                    0a:84:20:16:a1:af:c1:d9:f8:76:bc:7c:b1:24:d7:
                    ec:5a:5e:36:54:a7:0c:c7:49:09:12:e4:f6:f0:84:
                    98:10:d9:9d:99:3d:b1:40:b2:91:14:5a:4f:87:bc:
                    22:36:96:60:e2:df:26:16:1b:58:6e:f4:36:f9:ff:
                    fc:d4:f4:90:47:95:48:b3:66:a1:45:15:e8:99:35:
                    5f:4a:6f:65:1f:55:c5:ca:2d:c6:eb:7b:6b:ca:72:
                    f4:78:b7:9d:ed:7f:b7:02:7a:08:6e:04:05:1f:17:
                    3f:e2:3d:37:96:2d:ab:91:e4:f2:e7:12:60:d8:52:
                    b9:69:a9:71:8b:f7:cc:e7:bb:2d:a2:eb:5e:57:ad:
                    6d:56:32:2a:9d:dc:2e:21:ad:04:93:6f:c3:59:ab:
                    76:92:67:3b:8b:a9:cc:87:2d:b8:95:ec:d5:ce:68:
                    62:8a:0d:52:fc:9b:b0:b6:de:10:b1:99:86:27:9a:
                    11:ca:20:e7:0e:ab:71:ac:64:70:58:03:92:08:8a:
                    79:9b:cb:b3:86:7e:11:88:5f:da:5d:05:29:53:ff:
                    1e:d0:11:52:3d:99:c8:17:cc:c3:11:3b:be:ef:bc:
                    fd:0d:cd:1b:f6:50:26:1c:6a:06:69:f7:d7:95:19:
                    fe:f8:07:83:41:4a:f2:5c:07:2d:53:78:5a:60:d9:
                    7f:84:55:f6:36:10:7f:67:34:5e:2a:19:6e:20:4a:
                    7f:3f:d6:c3:51:21:5b:40:23:83:1c:ad:a0:29:3d:
                    15:a7:ac:5d:30:76:be:73:6a:93:51:41:bc:e3:e2:
                    06:94:cb:df:ef:a7:bc:5a:d7:34:2d:a5:73:07:10:
                    e5:2c:03:b1:ec:d3:81:44:3b:a7:db:9f:34:1e:76:
                    93:09:3c:6c:a1:9b:0e:f3:2c:1a:9d:94:ad:06:97:
                    c2:4d:99:de:c2:0f:31:f0:48:64:8d:39:43:a8:14:
                    91:f6:b8:a9:f9:a7:7c:a8:b0:05:2b:7a:cf:4b:1d:
                    4d:40:73:63:f7:8c:63:06:a5:32:ba:ee:72:b1:60:
                    9e:08:6f:9d:48:cb:3b:84:46:55:d2:63:37:8e:8e:
                    a0:6c:ed
                Exponent: 65537 (0x10001)
        X509v3 extensions:
            X509v3 Basic Constraints: 
                CA:FALSE
            Netscape Comment: 
                Easy-RSA Generated Certificate
            X509v3 Subject Key Identifier: 
                F0:7F:44:57:89:D9:EA:D4:C7:09:4F:62:80:DD:CF:EB:9C:EB:00:D8
            X509v3 Authority Key Identifier: 
                keyid:12:CD:60:04:D2:A0:80:9E:70:ED:C6:99:B8:7B:2C:C6:52:FD:19:A1
                DirName:/C=US/ST=OH/L=Columbus/O=VikingVPN/OU=MyOrganizationalUnit/CN=VikingVPN CA/name=EasyRSA/emailAddress=me@myhost.mydomain
                serial:CF:35:85:EE:80:BF:2A:3E

            X509v3 Extended Key Usage: 
                TLS Web Client Authentication
            X509v3 Key Usage: 
                Digital Signature
    Signature Algorithm: md5WithRSAEncryption
         03:ef:2a:42:27:b3:06:4a:c7:25:05:43:e1:af:b5:45:cb:e8:
         89:08:fc:59:69:96:f0:8d:35:62:43:92:b8:7a:40:53:17:4a:
         6f:27:ce:ae:3d:82:00:88:09:da:ed:85:c1:a8:05:16:d1:c3:
         0c:51:f3:ab:6e:f0:68:4f:36:20:6b:c7:f1:9b:cf:03:48:fe:
         9a:f8:2d:8e:0b:07:2d:3e:8c:aa:aa:f1:03:62:92:67:fb:77:
         30:21:5c:65:50:9e:e7:4c:ef:cd:ff:a8:68:5f:00:29:14:fb:
         a3:89:7d:a6:c7:64:42:18:ee:92:c2:55:e1:9d:e1:52:4f:fa:
         c8:94:8b:19:20:77:74:e2:73:d3:a5:9d:cf:c2:cf:ab:d0:ff:
         88:8c:03:48:14:50:28:d8:d3:c7:68:ad:76:d5:c7:d3:e2:b1:
         a1:d3:aa:83:88:bc:5a:36:a3:08:b8:6e:33:20:f3:cd:40:6a:
         9a:6f:7a:0c:cd:20:3c:ac:fa:7d:10:e7:20:62:8a:13:3f:e2:
         29:8d:58:62:3c:4b:be:99:d2:a5:88:71:62:c5:28:c4:13:98:
         6d:2c:4e:5b:3d:8d:1d:ec:b4:f1:d9:98:9b:51:83:29:aa:3a:
         a2:33:e4:7f:47:9d:af:af:9f:08:b7:33:f4:bc:73:48:96:34:
         ab:e7:7f:ee:65:d1:ce:d7:89:8e:73:f3:4f:1b:71:a5:fc:d9:
         0c:95:af:a6:2c:66:72:f4:54:59:64:63:d6:54:6e:56:70:51:
         43:a0:76:3d:ea:ea:7f:db:f4:24:39:73:01:13:db:65:20:36:
         87:ab:7f:cb:31:47:94:b9:8f:c8:ee:10:c2:3a:50:4c:a4:ff:
         52:a5:fe:e2:fb:4a:9c:42:2d:09:dd:9d:d1:ec:3f:f0:a9:53:
         e3:f5:66:b5:ef:12:fd:8c:5a:f5:e2:2e:4e:fc:e5:18:cd:46:
         56:3a:ce:37:e1:4f:0b:d7:2c:76:48:bc:e8:41:e8:7e:35:0a:
         9f:9a:09:9f:17:0e:f0:05:50:d0:c3:7a:23:76:1e:b3:f8:50:
         28:a2:fc:b9:4e:f4:b2:48:9c:2b:7f:56:31:4d:1d:ab:9f:7c:
         63:77:c6:b0:fa:dd:d4:6c:bf:36:23:b8:f9:cb:19:7a:f1:16:
         a6:b1:f1:2b:59:64:0a:79:8d:ef:ab:39:53:c6:bc:ed:be:4f:
         35:36:43:05:53:1f:e4:f8:e8:0e:3a:4d:2c:b3:4b:d0:24:74:
         7d:94:7e:86:3a:21:c5:b9:d9:c0:5a:54:8c:7a:eb:48:d7:23:
         fd:6e:a4:60:03:fe:b1:31:98:cd:89:ad:a7:ca:88:76:84:98:
         3f:93:93:bc:a8:e2:d3:6f
-----BEGIN CERTIFICATE-----
MIIGrDCCBJSgAwIBAgICCd4wDQYJKoZIhvcNAQEEBQAwgawxCzAJBgNVBAYTAlVT
MQswCQYDVQQIEwJPSDERMA8GA1UEBxMIQ29sdW1idXMxEjAQBgNVBAoTCVZpa2lu
Z1ZQTjEdMBsGA1UECxMUTXlPcmdhbml6YXRpb25hbFVuaXQxFTATBgNVBAMTDFZp
a2luZ1ZQTiBDQTEQMA4GA1UEKRMHRWFzeVJTQTEhMB8GCSqGSIb3DQEJARYSbWVA
bXlob3N0Lm15ZG9tYWluMB4XDTE0MDgxMDE3NDQ1N1oXDTI0MDgwNzE3NDQ1N1ow
HjEcMBoGA1UEAxMTQ2xpZW50ODc3Q2VydDg4YzA5NDCCAiIwDQYJKoZIhvcNAQEB
BQADggIPADCCAgoCggIBAKmWGwBV2/BTtuNH71soNOniXbhJdzQn/oXAmRM18LFE
AXAioXLPsSPYJN0X0zJNkWn2zLobguQWYeBCVWZ8Co9qDlyZtEpT+zodVDKUhGfq
xQlUYmNnxe/KXzIo4ASvqHetWabB5V/zCoQgFqGvwdn4drx8sSTX7FpeNlSnDMdJ
CRLk9vCEmBDZnZk9sUCykRRaT4e8IjaWYOLfJhYbWG70Nvn//NT0kEeVSLNmoUUV
6Jk1X0pvZR9Vxcotxut7a8py9Hi3ne1/twJ6CG4EBR8XP+I9N5Ytq5Hk8ucSYNhS
uWmpcYv3zOe7LaLrXletbVYyKp3cLiGtBJNvw1mrdpJnO4upzIctuJXs1c5oYooN
UvybsLbeELGZhieaEcog5w6rcaxkcFgDkgiKeZvLs4Z+EYhf2l0FKVP/HtARUj2Z
yBfMwxE7vu+8/Q3NG/ZQJhxqBmn315UZ/vgHg0FK8lwHLVN4WmDZf4RV9jYQf2c0
XioZbiBKfz/Ww1EhW0AjgxytoCk9FaesXTB2vnNqk1FBvOPiBpTL3++nvFrXNC2l
cwcQ5SwDsezTgUQ7p9ufNB52kwk8bKGbDvMsGp2UrQaXwk2Z3sIPMfBIZI05Q6gU
kfa4qfmnfKiwBSt6z0sdTUBzY/eMYwalMrrucrFgnghvnUjLO4RGVdJjN46OoGzt
AgMBAAGjggFjMIIBXzAJBgNVHRMEAjAAMC0GCWCGSAGG+EIBDQQgFh5FYXN5LVJT
QSBHZW5lcmF0ZWQgQ2VydGlmaWNhdGUwHQYDVR0OBBYEFPB/RFeJ2erUxwlPYoDd
z+uc6wDYMIHhBgNVHSMEgdkwgdaAFBLNYATSoICecO3Gmbh7LMZS/RmhoYGypIGv
MIGsMQswCQYDVQQGEwJVUzELMAkGA1UECBMCT0gxETAPBgNVBAcTCENvbHVtYnVz
MRIwEAYDVQQKEwlWaWtpbmdWUE4xHTAbBgNVBAsTFE15T3JnYW5pemF0aW9uYWxV
bml0MRUwEwYDVQQDEwxWaWtpbmdWUE4gQ0ExEDAOBgNVBCkTB0Vhc3lSU0ExITAf
BgkqhkiG9w0BCQEWEm1lQG15aG9zdC5teWRvbWFpboIJAM81he6Avyo+MBMGA1Ud
JQQMMAoGCCsGAQUFBwMCMAsGA1UdDwQEAwIHgDANBgkqhkiG9w0BAQQFAAOCAgEA
A+8qQiezBkrHJQVD4a+1RcvoiQj8WWmW8I01YkOSuHpAUxdKbyfOrj2CAIgJ2u2F
wagFFtHDDFHzq27waE82IGvH8ZvPA0j+mvgtjgsHLT6MqqrxA2KSZ/t3MCFcZVCe
50zvzf+oaF8AKRT7o4l9psdkQhjuksJV4Z3hUk/6yJSLGSB3dOJz06Wdz8LPq9D/
iIwDSBRQKNjTx2itdtXH0+KxodOqg4i8WjajCLhuMyDzzUBqmm96DM0gPKz6fRDn
IGKKEz/iKY1YYjxLvpnSpYhxYsUoxBOYbSxOWz2NHey08dmYm1GDKao6ojPkf0ed
r6+fCLcz9LxzSJY0q+d/7mXRzteJjnPzTxtxpfzZDJWvpixmcvRUWWRj1lRuVnBR
Q6B2Perqf9v0JDlzARPbZSA2h6t/yzFHlLmPyO4QwjpQTKT/UqX+4vtKnEItCd2d
0ew/8KlT4/Vmte8S/Yxa9eIuTvzlGM1GVjrON+FPC9csdki86EHofjUKn5oJnxcO
8AVQ0MN6I3Yes/hQKKL8uU70skicK39WMU0dq598Y3fGsPrd1Gy/NiO4+csZevEW
prHxK1lkCnmN76s5U8a87b5PNTZDBVMf5PjoDjpNLLNL0CR0fZR+hjohxbnZwFpU
jHrrSNcj/W6kYAP+sTGYzYmtp8qIdoSYP5OTvKji028=
-----END CERTIFICATE-----
