Certificate:
    Data:
        Version: 3 (0x2)
        Serial Number: 7353 (0x1cb9)
    Signature Algorithm: md5WithRSAEncryption
        Issuer: C=US, ST=OH, L=Columbus, O=VikingVPN, OU=MyOrganizationalUnit, CN=VikingVPN CA/name=EasyRSA/emailAddress=me@myhost.mydomain
        Validity
            Not Before: Feb 29 09:55:20 2016 GMT
            Not After : Feb 26 09:55:20 2026 GMT
        Subject: CN=Client1398Certf211fc
        Subject Public Key Info:
            Public Key Algorithm: rsaEncryption
                Public-Key: (4096 bit)
                Modulus:
                    00:c9:fe:aa:41:78:8d:70:33:c5:08:2a:53:45:af:
                    d4:5d:08:70:56:1b:24:fc:08:b3:3c:cc:91:3b:f3:
                    2e:61:24:0d:5c:39:d4:79:ab:87:76:d3:e0:5e:4e:
                    b2:a2:1c:22:d4:aa:6a:7f:43:92:8b:00:d1:aa:6e:
                    f6:af:16:fd:c3:30:66:87:52:23:73:c4:05:dd:1f:
                    e5:be:70:c0:01:c4:8a:c5:9d:d0:ba:62:dd:ac:55:
                    9e:39:c3:25:c7:dc:d8:0a:5c:af:a3:c4:57:de:5b:
                    be:a4:ba:9f:bc:06:9c:7e:12:9b:ad:d6:bb:17:64:
                    aa:ae:72:6e:ad:92:87:3f:25:45:fe:25:6c:a9:1a:
                    d5:1e:e6:83:55:f0:28:5d:0d:1d:99:70:74:88:3c:
                    ec:ff:7c:d9:21:da:34:8e:9e:12:f3:20:5f:3d:05:
                    d1:29:b8:7f:ee:81:8b:15:88:7d:c6:1b:15:a3:c9:
                    31:d9:d6:49:1f:60:ea:24:d8:42:02:10:f0:2b:f4:
                    29:b5:3b:52:7d:a7:0b:da:46:67:ab:0c:c3:e8:72:
                    3b:99:e4:1f:21:b0:37:7a:d1:e3:c4:4d:22:b1:14:
                    01:13:a2:59:aa:06:bc:78:82:c4:c8:41:8c:82:46:
                    18:c1:62:ae:31:2e:05:18:7f:7b:f2:fd:39:c9:77:
                    c4:1f:69:1f:52:d4:9c:3e:a2:0a:06:3a:00:1b:03:
                    1d:6a:e3:72:7b:23:25:59:a8:52:3b:6e:9d:a8:51:
                    0e:63:a2:1b:73:09:bc:dc:20:9f:a1:0b:46:0c:2a:
                    5d:d3:f0:6e:fd:e0:e1:27:3e:bf:b4:e2:e3:b0:41:
                    8d:22:24:b0:ff:ed:fd:3a:77:d5:d8:08:10:c8:a1:
                    0f:c7:a1:61:df:0f:9c:e8:d7:f9:7f:e9:37:c1:c0:
                    64:57:19:a0:59:66:ba:17:d8:28:4d:24:d7:4c:93:
                    7a:dd:7e:5a:1f:85:e3:61:46:8a:8c:9e:a7:ed:dd:
                    69:16:4d:43:fd:5a:60:ca:e8:39:cd:61:0e:3c:9e:
                    72:7e:c0:f7:b1:e1:96:f8:b9:2b:b0:2d:38:12:aa:
                    07:f1:c3:d4:05:e0:da:3a:b9:3d:32:dd:39:b9:c0:
                    f3:4b:6b:59:cb:fd:e5:07:cb:e8:29:7e:58:e6:3b:
                    b1:9b:73:19:8a:ed:fd:6c:a1:b3:19:03:6a:d0:56:
                    2c:fa:52:b7:ad:2e:e5:b9:a1:2c:be:1f:79:6d:1d:
                    c1:cd:0e:55:c6:eb:e0:b0:dd:f7:6d:73:25:14:5c:
                    09:b0:00:09:94:7e:51:90:0d:93:f7:7a:b8:ca:41:
                    66:d3:27:50:c9:db:fd:f1:67:a5:b2:24:e2:85:4c:
                    35:c5:d9
                Exponent: 65537 (0x10001)
        X509v3 extensions:
            X509v3 Basic Constraints: 
                CA:FALSE
            Netscape Comment: 
                Easy-RSA Generated Certificate
            X509v3 Subject Key Identifier: 
                E8:F0:52:7A:CC:6B:59:32:E8:D3:5F:68:AC:24:E6:45:CB:41:53:29
            X509v3 Authority Key Identifier: 
                keyid:12:CD:60:04:D2:A0:80:9E:70:ED:C6:99:B8:7B:2C:C6:52:FD:19:A1
                DirName:/C=US/ST=OH/L=Columbus/O=VikingVPN/OU=MyOrganizationalUnit/CN=VikingVPN CA/name=EasyRSA/emailAddress=me@myhost.mydomain
                serial:CF:35:85:EE:80:BF:2A:3E

            X509v3 Extended Key Usage: 
                TLS Web Client Authentication
            X509v3 Key Usage: 
                Digital Signature
    Signature Algorithm: md5WithRSAEncryption
         d2:d9:8b:d2:77:44:78:c2:b0:8a:c0:cd:bd:63:c3:04:e0:35:
         79:2d:60:36:bd:99:6c:9f:89:b8:24:6d:8f:61:fb:2d:45:a0:
         74:30:c2:1c:ed:c5:f4:45:81:d0:ef:5a:78:4d:4b:55:e6:b8:
         c3:a3:d0:c6:21:0a:2a:0d:82:e0:6e:5c:26:c8:e9:7c:87:6a:
         79:3c:d5:d5:0a:42:70:66:d5:48:b5:a7:7c:8a:5d:b2:32:8a:
         57:d6:f9:b2:91:5f:c1:0e:69:0d:cf:cd:1f:0c:d1:8d:47:75:
         3b:58:af:5c:f8:40:ac:5a:bb:8c:ff:6a:40:94:c0:5d:5d:ec:
         4e:be:df:a0:25:83:b4:13:a7:3e:fc:3f:f9:34:a9:80:e3:aa:
         5d:5d:28:d5:85:50:ed:c7:c3:68:2b:91:fe:a6:d8:db:e9:f8:
         95:dd:d9:5a:4f:57:ce:41:b9:37:fc:90:39:5e:16:e6:37:d1:
         19:27:f7:31:13:b7:22:db:e4:42:0d:3c:29:a8:23:4b:8c:a5:
         16:de:9d:05:7c:31:aa:f6:93:b6:d9:1a:17:db:fb:aa:65:79:
         8a:e2:5d:ed:4e:69:9d:aa:49:75:cf:d6:2b:b9:27:b6:ca:d5:
         07:5d:d8:a0:74:93:cc:3a:a1:dc:69:7c:47:28:e4:d2:d0:1b:
         ec:b0:64:c4:8d:07:d2:5b:b1:b2:f5:52:88:4d:3d:4e:eb:a9:
         62:ab:5f:81:a3:c3:55:7e:fb:cd:7d:eb:87:6b:64:48:e8:14:
         d2:1d:5f:d1:4d:97:a3:3b:45:b6:bd:9e:fc:00:4e:cf:ed:00:
         29:10:a6:01:a3:ab:0b:61:88:09:9f:ed:33:8c:be:4a:e3:6f:
         65:c0:d3:5f:14:f4:44:4b:f0:71:c5:88:b9:da:bd:eb:04:c1:
         2c:b3:90:74:93:9f:40:fb:2d:66:84:4b:c8:82:4a:1b:3c:62:
         de:69:c8:ec:ea:80:d6:56:7f:ac:c9:b9:21:3f:98:40:b0:4c:
         b1:83:82:29:2b:99:75:0e:9a:9d:ed:cc:38:0c:42:bd:f1:5b:
         47:12:19:fd:fe:1c:0c:3a:13:9e:a8:39:47:75:38:1b:c2:3b:
         3a:1c:5b:9c:0d:6a:04:d4:50:3a:9a:22:88:76:9e:8b:e7:a9:
         d3:65:07:86:30:eb:b1:9e:8c:ab:7d:2b:42:59:50:f1:18:15:
         4c:15:d3:50:c6:6c:c4:e3:3f:eb:d6:d7:89:d9:8f:ba:92:92:
         9d:97:88:b6:68:49:a7:4f:3b:48:a1:92:39:6f:fa:63:59:ca:
         97:7d:02:7f:a9:dd:71:2a:c8:0d:11:1a:9a:f2:18:28:6f:38:
         7d:b3:43:0b:c4:a7:ff:ee
-----BEGIN CERTIFICATE-----
MIIGrTCCBJWgAwIBAgICHLkwDQYJKoZIhvcNAQEEBQAwgawxCzAJBgNVBAYTAlVT
MQswCQYDVQQIEwJPSDERMA8GA1UEBxMIQ29sdW1idXMxEjAQBgNVBAoTCVZpa2lu
Z1ZQTjEdMBsGA1UECxMUTXlPcmdhbml6YXRpb25hbFVuaXQxFTATBgNVBAMTDFZp
a2luZ1ZQTiBDQTEQMA4GA1UEKRMHRWFzeVJTQTEhMB8GCSqGSIb3DQEJARYSbWVA
bXlob3N0Lm15ZG9tYWluMB4XDTE2MDIyOTA5NTUyMFoXDTI2MDIyNjA5NTUyMFow
HzEdMBsGA1UEAxMUQ2xpZW50MTM5OENlcnRmMjExZmMwggIiMA0GCSqGSIb3DQEB
AQUAA4ICDwAwggIKAoICAQDJ/qpBeI1wM8UIKlNFr9RdCHBWGyT8CLM8zJE78y5h
JA1cOdR5q4d20+BeTrKiHCLUqmp/Q5KLANGqbvavFv3DMGaHUiNzxAXdH+W+cMAB
xIrFndC6Yt2sVZ45wyXH3NgKXK+jxFfeW76kup+8Bpx+Eput1rsXZKqucm6tkoc/
JUX+JWypGtUe5oNV8ChdDR2ZcHSIPOz/fNkh2jSOnhLzIF89BdEpuH/ugYsViH3G
GxWjyTHZ1kkfYOok2EICEPAr9Cm1O1J9pwvaRmerDMPocjuZ5B8hsDd60ePETSKx
FAETolmqBrx4gsTIQYyCRhjBYq4xLgUYf3vy/TnJd8QfaR9S1Jw+ogoGOgAbAx1q
43J7IyVZqFI7bp2oUQ5johtzCbzcIJ+hC0YMKl3T8G794OEnPr+04uOwQY0iJLD/
7f06d9XYCBDIoQ/HoWHfD5zo1/l/6TfBwGRXGaBZZroX2ChNJNdMk3rdflofheNh
RoqMnqft3WkWTUP9WmDK6DnNYQ48nnJ+wPex4Zb4uSuwLTgSqgfxw9QF4No6uT0y
3Tm5wPNLa1nL/eUHy+gpfljmO7GbcxmK7f1sobMZA2rQViz6UretLuW5oSy+H3lt
HcHNDlXG6+Cw3fdtcyUUXAmwAAmUflGQDZP3erjKQWbTJ1DJ2/3xZ6WyJOKFTDXF
2QIDAQABo4IBYzCCAV8wCQYDVR0TBAIwADAtBglghkgBhvhCAQ0EIBYeRWFzeS1S
U0EgR2VuZXJhdGVkIENlcnRpZmljYXRlMB0GA1UdDgQWBBTo8FJ6zGtZMujTX2is
JOZFy0FTKTCB4QYDVR0jBIHZMIHWgBQSzWAE0qCAnnDtxpm4eyzGUv0ZoaGBsqSB
rzCBrDELMAkGA1UEBhMCVVMxCzAJBgNVBAgTAk9IMREwDwYDVQQHEwhDb2x1bWJ1
czESMBAGA1UEChMJVmlraW5nVlBOMR0wGwYDVQQLExRNeU9yZ2FuaXphdGlvbmFs
VW5pdDEVMBMGA1UEAxMMVmlraW5nVlBOIENBMRAwDgYDVQQpEwdFYXN5UlNBMSEw
HwYJKoZIhvcNAQkBFhJtZUBteWhvc3QubXlkb21haW6CCQDPNYXugL8qPjATBgNV
HSUEDDAKBggrBgEFBQcDAjALBgNVHQ8EBAMCB4AwDQYJKoZIhvcNAQEEBQADggIB
ANLZi9J3RHjCsIrAzb1jwwTgNXktYDa9mWyfibgkbY9h+y1FoHQwwhztxfRFgdDv
WnhNS1XmuMOj0MYhCioNguBuXCbI6XyHank81dUKQnBm1Ui1p3yKXbIyilfW+bKR
X8EOaQ3PzR8M0Y1HdTtYr1z4QKxau4z/akCUwF1d7E6+36Alg7QTpz78P/k0qYDj
ql1dKNWFUO3Hw2grkf6m2Nvp+JXd2VpPV85BuTf8kDleFuY30Rkn9zETtyLb5EIN
PCmoI0uMpRbenQV8Mar2k7bZGhfb+6pleYriXe1OaZ2qSXXP1iu5J7bK1Qdd2KB0
k8w6odxpfEco5NLQG+ywZMSNB9JbsbL1UohNPU7rqWKrX4Gjw1V++81964drZEjo
FNIdX9FNl6M7Rba9nvwATs/tACkQpgGjqwthiAmf7TOMvkrjb2XA018U9ERL8HHF
iLnavesEwSyzkHSTn0D7LWaES8iCShs8Yt5pyOzqgNZWf6zJuSE/mECwTLGDgikr
mXUOmp3tzDgMQr3xW0cSGf3+HAw6E56oOUd1OBvCOzocW5wNagTUUDqaIoh2novn
qdNlB4Yw67GejKt9K0JZUPEYFUwV01DGbMTjP+vW14nZj7qSkp2XiLZoSadPO0ih
kjlv+mNZypd9An+p3XEqyA0RGpryGChvOH2zQwvEp//u
-----END CERTIFICATE-----
