Certificate:
    Data:
        Version: 3 (0x2)
        Serial Number: 4620 (0x120c)
    Signature Algorithm: md5WithRSAEncryption
        Issuer: C=US, ST=OH, L=Columbus, O=VikingVPN, OU=MyOrganizationalUnit, CN=VikingVPN CA/name=EasyRSA/emailAddress=me@myhost.mydomain
        Validity
            Not Before: Mar  1 03:52:40 2015 GMT
            Not After : Feb 26 03:52:40 2025 GMT
        Subject: CN=Client1498Certe638f9
        Subject Public Key Info:
            Public Key Algorithm: rsaEncryption
                Public-Key: (4096 bit)
                Modulus:
                    00:e6:99:7d:bb:52:8b:80:30:fc:d9:2f:b2:29:d9:
                    d2:47:59:3c:82:06:6d:25:9e:65:07:39:ba:e2:4b:
                    33:d3:0f:5e:bf:d9:fd:2d:ce:7a:9d:c9:63:6a:dc:
                    39:59:ed:9a:ee:49:ee:16:ce:b3:b9:b3:cd:1a:17:
                    9c:a8:4c:c9:ff:10:f1:1f:51:a5:1c:17:79:55:81:
                    bd:4d:e2:88:c6:d9:3f:16:37:6c:16:a8:6b:55:ef:
                    3a:be:3b:7a:b7:16:37:5d:0b:b5:7d:0e:a6:25:aa:
                    4c:d3:2a:eb:e2:40:7c:92:d9:ad:9c:14:52:6e:e5:
                    ed:5a:28:65:a5:4e:4d:fc:96:d5:d0:23:19:86:90:
                    80:a9:4f:fb:19:e5:a9:b8:56:e7:27:94:af:39:e1:
                    dd:3d:b9:9c:a7:8c:b9:2c:bd:cc:6c:68:63:fd:12:
                    34:f7:2b:a9:b1:7b:7a:55:c5:7a:aa:19:5f:e2:29:
                    3a:d3:9d:66:ee:a0:41:2d:fb:9a:81:08:c3:ae:d7:
                    e2:74:a3:48:43:3d:e5:84:63:8d:3d:e8:d0:c1:13:
                    5d:d4:1b:15:78:08:27:25:dd:e3:e6:bf:31:ba:7e:
                    72:f5:84:16:d7:df:37:e9:5a:a6:da:76:5f:de:d0:
                    1e:8f:78:20:c4:51:82:1c:c8:38:ff:ac:62:e2:27:
                    d1:64:99:ab:e7:5b:f8:08:c4:82:b7:1e:92:39:45:
                    01:1a:9f:3b:ac:ec:8e:5d:6c:79:f8:f9:4e:2e:a7:
                    78:1b:61:34:e8:21:6b:e9:b4:da:72:b0:f7:fb:bd:
                    8e:43:73:cf:a0:19:24:0e:28:89:b9:ce:3d:4a:de:
                    99:33:61:6e:e1:80:f7:82:68:8d:ef:15:46:1c:61:
                    c5:09:95:7b:94:47:73:e6:36:d7:da:a9:ea:18:04:
                    a4:eb:49:a6:7c:9d:ba:11:58:17:aa:c4:a1:52:a6:
                    55:21:2a:42:0d:25:85:3e:7b:be:3a:08:0f:91:63:
                    5d:f5:5c:00:f3:fb:e3:b7:8d:89:0a:fc:41:1a:62:
                    3c:63:0e:bc:34:c3:95:cf:56:71:03:b9:2d:a4:20:
                    be:a9:8a:b4:58:2c:0e:0b:b6:f4:5a:2e:0b:5f:5b:
                    00:d5:ce:ef:54:e2:4c:cd:69:69:3f:cd:4e:c5:ef:
                    07:15:c6:de:67:d0:6c:1d:ef:96:a9:4e:bc:af:fe:
                    bf:c3:63:18:29:93:a2:f9:f3:19:d5:3a:8a:24:87:
                    14:aa:59:a9:93:3d:83:32:4f:db:7c:f5:e4:14:61:
                    0a:f0:ef:fe:ad:b4:bf:ee:ac:c3:09:34:40:5d:7d:
                    93:a6:94:09:8b:6f:23:11:95:24:49:4f:90:69:b8:
                    5f:38:15
                Exponent: 65537 (0x10001)
        X509v3 extensions:
            X509v3 Basic Constraints: 
                CA:FALSE
            Netscape Comment: 
                Easy-RSA Generated Certificate
            X509v3 Subject Key Identifier: 
                65:67:74:0B:1F:9A:40:34:01:2F:39:99:5A:7C:D1:0D:DE:34:D9:8C
            X509v3 Authority Key Identifier: 
                keyid:12:CD:60:04:D2:A0:80:9E:70:ED:C6:99:B8:7B:2C:C6:52:FD:19:A1
                DirName:/C=US/ST=OH/L=Columbus/O=VikingVPN/OU=MyOrganizationalUnit/CN=VikingVPN CA/name=EasyRSA/emailAddress=me@myhost.mydomain
                serial:CF:35:85:EE:80:BF:2A:3E

            X509v3 Extended Key Usage: 
                TLS Web Client Authentication
            X509v3 Key Usage: 
                Digital Signature
    Signature Algorithm: md5WithRSAEncryption
         de:ee:bb:a4:6c:15:5e:d1:91:5e:e7:06:33:1a:7a:ac:6b:9a:
         74:9d:de:c8:da:9f:5d:2a:28:14:b1:c2:72:ef:13:43:b7:bd:
         5c:7f:38:4c:5b:fe:20:86:d1:b9:ec:a9:90:75:5a:3f:01:1f:
         3e:2e:85:59:76:17:b9:cf:29:7d:e9:66:c2:d1:67:df:d2:d9:
         dd:7c:9c:b6:55:3f:af:16:e6:8a:13:f6:0e:88:8d:9e:ed:50:
         36:c1:33:12:51:d9:7c:35:b4:99:bf:cc:fe:77:1e:3c:58:5c:
         28:1b:c0:77:b1:36:28:a5:ea:e5:5d:a7:80:9e:14:2c:cd:19:
         65:cf:25:4b:e3:91:a2:23:a2:8a:4a:01:de:d4:bb:6f:f5:a8:
         66:a0:0e:49:10:0c:7f:34:95:91:2c:56:a9:64:2d:92:a5:14:
         d5:2b:8b:62:32:99:c0:6c:03:74:0b:15:ab:71:54:1d:0f:e8:
         53:38:02:c5:03:86:8c:3f:b8:8d:24:31:9c:ca:30:c9:6d:09:
         1c:09:b6:4f:24:b0:76:43:a7:9d:37:1d:e0:16:e7:35:9c:4d:
         8a:7a:d6:1e:72:07:09:8e:9a:ea:e6:45:12:c3:30:4f:39:8e:
         f4:68:20:93:fc:75:ae:a5:dd:6a:2c:cb:e9:b3:cc:62:fe:75:
         8a:8a:dc:54:2f:f9:84:b7:b1:51:7a:ed:21:2a:a4:6b:23:24:
         c7:5e:9d:2e:25:96:19:fe:17:be:66:a6:f8:59:53:a6:40:bb:
         e8:77:ab:01:ad:f7:71:bb:07:37:08:3f:c1:3b:5e:21:0e:27:
         1a:63:fd:b2:70:c4:6c:8c:c5:f7:81:8e:6c:70:d5:39:42:66:
         d3:b6:7c:91:14:c3:7c:99:bc:67:bc:ca:c2:bd:a7:ac:0b:12:
         bb:15:c0:4d:5d:c4:6f:a1:df:e5:9f:e2:4d:aa:44:f0:77:c7:
         ed:6f:ef:93:5a:98:d9:97:d8:ea:22:a5:fc:62:be:66:15:67:
         24:92:c5:f4:f1:51:ed:6f:7b:c7:0d:eb:d9:1d:af:88:9d:00:
         f6:6f:04:3d:69:89:4c:9b:42:35:3a:c2:34:00:68:75:7d:02:
         6a:95:97:30:6e:14:72:67:23:1c:39:14:d5:f5:13:65:f2:06:
         82:e2:78:0f:b9:49:f3:07:af:81:66:15:51:24:03:c6:6c:82:
         df:68:fd:81:b1:5c:99:73:71:fc:75:5e:cc:6d:a5:62:e9:6b:
         7e:b6:1e:3c:49:3f:ac:b6:86:dd:4f:11:00:d5:99:de:7d:8f:
         49:e3:21:4d:ba:51:79:83:8f:ed:27:c7:59:61:02:1f:b0:4a:
         66:b2:06:34:3c:46:17:88
-----BEGIN CERTIFICATE-----
MIIGrTCCBJWgAwIBAgICEgwwDQYJKoZIhvcNAQEEBQAwgawxCzAJBgNVBAYTAlVT
MQswCQYDVQQIEwJPSDERMA8GA1UEBxMIQ29sdW1idXMxEjAQBgNVBAoTCVZpa2lu
Z1ZQTjEdMBsGA1UECxMUTXlPcmdhbml6YXRpb25hbFVuaXQxFTATBgNVBAMTDFZp
a2luZ1ZQTiBDQTEQMA4GA1UEKRMHRWFzeVJTQTEhMB8GCSqGSIb3DQEJARYSbWVA
bXlob3N0Lm15ZG9tYWluMB4XDTE1MDMwMTAzNTI0MFoXDTI1MDIyNjAzNTI0MFow
HzEdMBsGA1UEAxMUQ2xpZW50MTQ5OENlcnRlNjM4ZjkwggIiMA0GCSqGSIb3DQEB
AQUAA4ICDwAwggIKAoICAQDmmX27UouAMPzZL7Ip2dJHWTyCBm0lnmUHObriSzPT
D16/2f0tznqdyWNq3DlZ7ZruSe4WzrO5s80aF5yoTMn/EPEfUaUcF3lVgb1N4ojG
2T8WN2wWqGtV7zq+O3q3FjddC7V9DqYlqkzTKuviQHyS2a2cFFJu5e1aKGWlTk38
ltXQIxmGkICpT/sZ5am4VucnlK854d09uZynjLksvcxsaGP9EjT3K6mxe3pVxXqq
GV/iKTrTnWbuoEEt+5qBCMOu1+J0o0hDPeWEY4096NDBE13UGxV4CCcl3ePmvzG6
fnL1hBbX3zfpWqbadl/e0B6PeCDEUYIcyDj/rGLiJ9FkmavnW/gIxIK3HpI5RQEa
nzus7I5dbHn4+U4up3gbYTToIWvptNpysPf7vY5Dc8+gGSQOKIm5zj1K3pkzYW7h
gPeCaI3vFUYcYcUJlXuUR3PmNtfaqeoYBKTrSaZ8nboRWBeqxKFSplUhKkINJYU+
e746CA+RY131XADz++O3jYkK/EEaYjxjDrw0w5XPVnEDuS2kIL6pirRYLA4LtvRa
LgtfWwDVzu9U4kzNaWk/zU7F7wcVxt5n0Gwd75apTryv/r/DYxgpk6L58xnVOook
hxSqWamTPYMyT9t89eQUYQrw7/6ttL/urMMJNEBdfZOmlAmLbyMRlSRJT5BpuF84
FQIDAQABo4IBYzCCAV8wCQYDVR0TBAIwADAtBglghkgBhvhCAQ0EIBYeRWFzeS1S
U0EgR2VuZXJhdGVkIENlcnRpZmljYXRlMB0GA1UdDgQWBBRlZ3QLH5pANAEvOZla
fNEN3jTZjDCB4QYDVR0jBIHZMIHWgBQSzWAE0qCAnnDtxpm4eyzGUv0ZoaGBsqSB
rzCBrDELMAkGA1UEBhMCVVMxCzAJBgNVBAgTAk9IMREwDwYDVQQHEwhDb2x1bWJ1
czESMBAGA1UEChMJVmlraW5nVlBOMR0wGwYDVQQLExRNeU9yZ2FuaXphdGlvbmFs
VW5pdDEVMBMGA1UEAxMMVmlraW5nVlBOIENBMRAwDgYDVQQpEwdFYXN5UlNBMSEw
HwYJKoZIhvcNAQkBFhJtZUBteWhvc3QubXlkb21haW6CCQDPNYXugL8qPjATBgNV
HSUEDDAKBggrBgEFBQcDAjALBgNVHQ8EBAMCB4AwDQYJKoZIhvcNAQEEBQADggIB
AN7uu6RsFV7RkV7nBjMaeqxrmnSd3sjan10qKBSxwnLvE0O3vVx/OExb/iCG0bns
qZB1Wj8BHz4uhVl2F7nPKX3pZsLRZ9/S2d18nLZVP68W5ooT9g6IjZ7tUDbBMxJR
2Xw1tJm/zP53HjxYXCgbwHexNiil6uVdp4CeFCzNGWXPJUvjkaIjoopKAd7Uu2/1
qGagDkkQDH80lZEsVqlkLZKlFNUri2IymcBsA3QLFatxVB0P6FM4AsUDhow/uI0k
MZzKMMltCRwJtk8ksHZDp503HeAW5zWcTYp61h5yBwmOmurmRRLDME85jvRoIJP8
da6l3Wosy+mzzGL+dYqK3FQv+YS3sVF67SEqpGsjJMdenS4llhn+F75mpvhZU6ZA
u+h3qwGt93G7BzcIP8E7XiEOJxpj/bJwxGyMxfeBjmxw1TlCZtO2fJEUw3yZvGe8
ysK9p6wLErsVwE1dxG+h3+Wf4k2qRPB3x+1v75NamNmX2OoipfxivmYVZySSxfTx
Ue1ve8cN69kdr4idAPZvBD1piUybQjU6wjQAaHV9AmqVlzBuFHJnIxw5FNX1E2Xy
BoLieA+5SfMHr4FmFVEkA8Zsgt9o/YGxXJlzcfx1XsxtpWLpa362HjxJP6y2ht1P
EQDVmd59j0njIU26UXmDj+0nx1lhAh+wSmayBjQ8RheI
-----END CERTIFICATE-----
