Certificate:
    Data:
        Version: 3 (0x2)
        Serial Number: 1529 (0x5f9)
    Signature Algorithm: md5WithRSAEncryption
        Issuer: C=US, ST=OH, L=Columbus, O=VikingVPN, OU=MyOrganizationalUnit, CN=VikingVPN CA/name=EasyRSA/emailAddress=me@myhost.mydomain
        Validity
            Not Before: Apr  8 15:04:06 2014 GMT
            Not After : Apr  5 15:04:06 2024 GMT
        Subject: CN=Client549Cert3f9cb7
        Subject Public Key Info:
            Public Key Algorithm: rsaEncryption
                Public-Key: (4096 bit)
                Modulus:
                    00:bb:70:f7:c9:7a:1e:e2:f8:f1:02:e6:6c:bb:de:
                    02:70:c4:56:31:e5:b8:0b:3d:c3:b3:51:c1:34:51:
                    77:62:16:52:94:c2:9b:43:e5:5b:f5:b0:fb:5b:44:
                    57:ea:3a:85:97:c8:85:0d:e0:61:6f:03:25:9b:e8:
                    e2:69:93:c9:0b:3a:ee:15:6c:38:7b:db:f6:c7:1a:
                    f0:71:5a:b7:f4:15:3b:53:3b:67:f0:53:80:d9:12:
                    5e:18:2c:80:7e:2f:d0:5c:e4:32:d4:08:69:b0:3c:
                    ff:c6:dd:41:a8:08:7d:42:dc:dd:6f:eb:db:5f:ec:
                    c6:f9:62:d4:f4:50:4e:8d:ba:b0:da:7a:ba:96:c5:
                    c9:51:14:75:8b:53:ec:ca:c6:18:89:3f:07:80:3f:
                    03:22:ac:98:ef:a1:11:5a:14:84:23:9b:ca:5e:fa:
                    03:5f:2b:ff:ad:4d:52:92:f6:c6:40:f7:b9:ac:f9:
                    78:58:9c:61:ea:9a:ae:40:b4:10:0f:d3:7a:2b:97:
                    3a:76:e3:27:ef:c2:f2:2b:22:d3:1e:9b:32:65:dc:
                    82:8f:09:de:04:45:69:ba:8e:79:b0:b4:86:79:ee:
                    23:66:c0:d1:93:39:70:40:55:86:18:91:30:39:32:
                    04:ea:4b:2b:58:03:39:bf:2f:5a:fe:47:a9:35:f6:
                    20:a7:c6:08:41:b2:bf:d9:9c:ad:69:12:4d:fb:74:
                    14:14:7f:37:84:d8:67:d4:67:25:d2:b0:76:ac:39:
                    60:9e:5d:42:26:07:70:b5:a2:f4:90:ec:cc:bf:e7:
                    58:08:97:e2:6a:b0:df:5f:e4:bf:23:c8:ac:eb:a1:
                    c7:78:1e:6c:87:06:8c:6b:be:90:7b:64:99:a5:99:
                    ec:df:00:52:1e:df:ef:a0:fd:a2:5f:0a:da:64:d3:
                    ef:e6:6e:46:b8:e8:97:14:fa:9e:7b:12:80:b6:50:
                    7e:79:a1:d1:56:d3:e0:35:25:7f:ef:17:70:ae:91:
                    cb:0c:64:72:30:32:24:73:a4:98:d3:87:f9:a2:30:
                    04:80:44:28:cb:4c:6f:33:23:87:7b:d8:86:18:9a:
                    e7:22:21:1c:b4:37:1d:f4:41:3c:2c:26:86:28:f3:
                    d1:7f:53:92:97:d8:30:ea:81:d9:3c:84:f2:3e:03:
                    f5:5f:2c:09:24:3a:ca:9d:ea:60:c7:be:5f:a8:87:
                    7a:9c:3a:5c:aa:97:0f:c7:fc:95:0f:85:ef:5c:92:
                    b6:1c:b8:85:0e:87:25:f4:10:f6:3e:71:51:54:50:
                    b2:65:1c:48:ab:4c:16:af:9c:8d:90:69:01:1f:72:
                    92:95:74:24:0b:0a:61:89:81:fd:4f:b7:f7:ba:df:
                    a4:d9:0d
                Exponent: 65537 (0x10001)
        X509v3 extensions:
            X509v3 Basic Constraints: 
                CA:FALSE
            Netscape Comment: 
                Easy-RSA Generated Certificate
            X509v3 Subject Key Identifier: 
                F1:80:63:50:D9:1E:22:FF:D9:3B:C7:9E:64:74:21:E7:23:DD:82:55
            X509v3 Authority Key Identifier: 
                keyid:12:CD:60:04:D2:A0:80:9E:70:ED:C6:99:B8:7B:2C:C6:52:FD:19:A1
                DirName:/C=US/ST=OH/L=Columbus/O=VikingVPN/OU=MyOrganizationalUnit/CN=VikingVPN CA/name=EasyRSA/emailAddress=me@myhost.mydomain
                serial:CF:35:85:EE:80:BF:2A:3E

            X509v3 Extended Key Usage: 
                TLS Web Client Authentication
            X509v3 Key Usage: 
                Digital Signature
    Signature Algorithm: md5WithRSAEncryption
         6c:e7:56:90:31:e4:0c:48:8e:1d:27:a7:6f:9f:d8:56:a8:20:
         3a:07:2a:29:3f:74:77:b8:a9:8b:7c:19:ee:0d:be:aa:a5:63:
         a6:06:1c:1f:db:93:ce:af:af:c9:07:dd:47:6c:31:ab:8c:3f:
         4a:ed:42:71:09:d0:f8:34:fc:cb:cb:fe:b1:98:ab:2d:ec:23:
         47:75:6d:9f:f7:03:91:86:b7:2d:1d:3a:e9:6a:a6:0d:52:ff:
         b9:8a:d9:ff:dd:72:94:38:fd:c4:3d:bc:c7:27:2e:af:36:df:
         4b:3f:be:e3:03:e8:19:40:e5:ae:c9:84:87:ea:cf:1b:e1:18:
         f5:6e:11:8d:dd:83:d1:fa:2c:8b:90:5c:98:5a:a8:34:aa:44:
         53:e8:d1:0e:67:e4:a0:a2:1f:c5:d9:84:cd:b8:5e:83:ff:90:
         c4:52:c5:07:fb:49:ca:80:bd:7d:b1:5e:ec:ea:ad:1b:26:a9:
         01:40:89:5e:c0:2e:41:2f:9f:2b:64:c5:28:63:8c:18:84:d6:
         79:4c:58:20:9c:aa:30:49:f7:d3:14:03:c7:59:88:08:13:99:
         66:30:09:81:41:11:2f:6d:eb:e1:f2:43:86:3a:bc:69:79:a9:
         e0:59:69:13:69:85:fb:c7:1e:1b:42:3f:c8:e9:75:b3:8c:d4:
         7a:5e:2d:28:05:b4:2f:3b:ec:c8:b1:d7:6a:8c:14:db:92:38:
         2f:ee:92:55:07:54:c0:32:02:de:e0:48:09:bd:69:68:96:7e:
         29:0b:52:e5:e0:be:47:29:7c:20:13:7c:72:24:b1:76:c2:7c:
         06:0e:1b:f0:e7:3c:53:1c:47:7c:93:09:e9:dc:19:a7:60:36:
         d9:ad:24:a6:b3:77:7b:8b:88:e2:c1:36:e6:6e:a9:fd:60:df:
         30:67:56:d0:9e:d4:e7:b8:65:e6:c9:27:82:8e:6a:fd:f4:e7:
         16:80:dc:00:14:0a:c7:53:fd:56:ad:a6:d3:95:8b:3d:95:cf:
         b7:bb:d3:d3:95:54:ea:d5:29:9b:89:13:ad:d9:5f:2d:2c:a9:
         7b:c5:4e:b6:3b:3f:39:a5:d9:71:89:47:94:03:e3:46:bd:4c:
         ca:e2:0d:0e:be:c2:3f:32:0b:9e:af:b7:0d:8e:ff:cb:f9:8d:
         d5:7c:2d:48:17:a6:b8:93:59:13:70:34:41:57:18:9e:98:73:
         a3:db:a9:0a:b5:be:ef:05:fc:a8:05:6d:b0:33:1f:7e:f8:98:
         3e:8e:fe:10:53:a4:bf:ae:d8:00:c8:d4:f7:77:bb:84:ad:dd:
         0a:2b:66:61:c0:65:a2:4c:c4:95:23:67:27:a3:8a:dc:ec:53:
         d6:14:7f:20:46:ea:de:4c
-----BEGIN CERTIFICATE-----
MIIGrDCCBJSgAwIBAgICBfkwDQYJKoZIhvcNAQEEBQAwgawxCzAJBgNVBAYTAlVT
MQswCQYDVQQIEwJPSDERMA8GA1UEBxMIQ29sdW1idXMxEjAQBgNVBAoTCVZpa2lu
Z1ZQTjEdMBsGA1UECxMUTXlPcmdhbml6YXRpb25hbFVuaXQxFTATBgNVBAMTDFZp
a2luZ1ZQTiBDQTEQMA4GA1UEKRMHRWFzeVJTQTEhMB8GCSqGSIb3DQEJARYSbWVA
bXlob3N0Lm15ZG9tYWluMB4XDTE0MDQwODE1MDQwNloXDTI0MDQwNTE1MDQwNlow
HjEcMBoGA1UEAxMTQ2xpZW50NTQ5Q2VydDNmOWNiNzCCAiIwDQYJKoZIhvcNAQEB
BQADggIPADCCAgoCggIBALtw98l6HuL48QLmbLveAnDEVjHluAs9w7NRwTRRd2IW
UpTCm0PlW/Ww+1tEV+o6hZfIhQ3gYW8DJZvo4mmTyQs67hVsOHvb9sca8HFat/QV
O1M7Z/BTgNkSXhgsgH4v0FzkMtQIabA8/8bdQagIfULc3W/r21/sxvli1PRQTo26
sNp6upbFyVEUdYtT7MrGGIk/B4A/AyKsmO+hEVoUhCObyl76A18r/61NUpL2xkD3
uaz5eFicYeqarkC0EA/TeiuXOnbjJ+/C8isi0x6bMmXcgo8J3gRFabqOebC0hnnu
I2bA0ZM5cEBVhhiRMDkyBOpLK1gDOb8vWv5HqTX2IKfGCEGyv9mcrWkSTft0FBR/
N4TYZ9RnJdKwdqw5YJ5dQiYHcLWi9JDszL/nWAiX4mqw31/kvyPIrOuhx3gebIcG
jGu+kHtkmaWZ7N8AUh7f76D9ol8K2mTT7+ZuRrjolxT6nnsSgLZQfnmh0VbT4DUl
f+8XcK6RywxkcjAyJHOkmNOH+aIwBIBEKMtMbzMjh3vYhhia5yIhHLQ3HfRBPCwm
hijz0X9TkpfYMOqB2TyE8j4D9V8sCSQ6yp3qYMe+X6iHepw6XKqXD8f8lQ+F71yS
thy4hQ6HJfQQ9j5xUVRQsmUcSKtMFq+cjZBpAR9ykpV0JAsKYYmB/U+397rfpNkN
AgMBAAGjggFjMIIBXzAJBgNVHRMEAjAAMC0GCWCGSAGG+EIBDQQgFh5FYXN5LVJT
QSBHZW5lcmF0ZWQgQ2VydGlmaWNhdGUwHQYDVR0OBBYEFPGAY1DZHiL/2TvHnmR0
Iecj3YJVMIHhBgNVHSMEgdkwgdaAFBLNYATSoICecO3Gmbh7LMZS/RmhoYGypIGv
MIGsMQswCQYDVQQGEwJVUzELMAkGA1UECBMCT0gxETAPBgNVBAcTCENvbHVtYnVz
MRIwEAYDVQQKEwlWaWtpbmdWUE4xHTAbBgNVBAsTFE15T3JnYW5pemF0aW9uYWxV
bml0MRUwEwYDVQQDEwxWaWtpbmdWUE4gQ0ExEDAOBgNVBCkTB0Vhc3lSU0ExITAf
BgkqhkiG9w0BCQEWEm1lQG15aG9zdC5teWRvbWFpboIJAM81he6Avyo+MBMGA1Ud
JQQMMAoGCCsGAQUFBwMCMAsGA1UdDwQEAwIHgDANBgkqhkiG9w0BAQQFAAOCAgEA
bOdWkDHkDEiOHSenb5/YVqggOgcqKT90d7ipi3wZ7g2+qqVjpgYcH9uTzq+vyQfd
R2wxq4w/Su1CcQnQ+DT8y8v+sZirLewjR3Vtn/cDkYa3LR066WqmDVL/uYrZ/91y
lDj9xD28xycurzbfSz++4wPoGUDlrsmEh+rPG+EY9W4Rjd2D0fosi5BcmFqoNKpE
U+jRDmfkoKIfxdmEzbheg/+QxFLFB/tJyoC9fbFe7OqtGyapAUCJXsAuQS+fK2TF
KGOMGITWeUxYIJyqMEn30xQDx1mICBOZZjAJgUERL23r4fJDhjq8aXmp4FlpE2mF
+8ceG0I/yOl1s4zUel4tKAW0LzvsyLHXaowU25I4L+6SVQdUwDIC3uBICb1paJZ+
KQtS5eC+Ryl8IBN8ciSxdsJ8Bg4b8Oc8UxxHfJMJ6dwZp2A22a0kprN3e4uI4sE2
5m6p/WDfMGdW0J7U57hl5skngo5q/fTnFoDcABQKx1P9Vq2m05WLPZXPt7vT05VU
6tUpm4kTrdlfLSype8VOtjs/OaXZcYlHlAPjRr1MyuINDr7CPzILnq+3DY7/y/mN
1XwtSBemuJNZE3A0QVcYnphzo9upCrW+7wX8qAVtsDMffviYPo7+EFOkv67YAMjU
93e7hK3dCitmYcBlokzElSNnJ6OK3OxT1hR/IEbq3kw=
-----END CERTIFICATE-----
