Certificate:
    Data:
        Version: 3 (0x2)
        Serial Number: 11564 (0x2d2c)
    Signature Algorithm: sha256WithRSAEncryption
        Issuer: C=US, ST=OH, L=Columbus, O=VikingVPN, OU=MyOrganizationalUnit, CN=VikingVPN CA/name=EasyRSA/emailAddress=me@myhost.mydomain
        Validity
            Not Before: Aug 15 02:24:44 2017 GMT
            Not After : Aug 13 02:24:44 2027 GMT
        Subject: CN=Client3046Cert32138b
        Subject Public Key Info:
            Public Key Algorithm: rsaEncryption
                Public-Key: (4096 bit)
                Modulus:
                    00:c8:19:a0:88:40:db:8a:83:37:b8:6e:e8:54:82:
                    78:fd:7f:63:28:50:9a:c4:68:f7:80:ca:36:74:ba:
                    68:c7:0a:dc:40:a0:49:fa:62:db:c8:0c:b4:ee:00:
                    de:ef:eb:84:d1:de:e3:03:6a:16:24:64:b0:55:0a:
                    ce:8c:a6:b3:84:54:db:6e:be:c3:44:9a:13:f7:ae:
                    49:df:9c:9d:a1:2c:2a:0f:aa:f7:8b:9f:de:7b:cb:
                    b5:e6:ee:6c:1f:d8:0a:2c:49:91:28:33:df:b8:21:
                    7f:42:eb:70:a8:06:f2:95:61:d4:c9:91:d7:05:fc:
                    05:ed:ce:ac:cb:1b:2f:c7:6f:88:34:3d:69:d9:7a:
                    77:c9:09:13:fc:02:fa:0e:9e:81:ce:21:b6:b3:cc:
                    6c:b0:c9:a6:d3:21:3b:71:06:7f:a9:f1:57:2d:18:
                    32:7b:87:7c:9c:bb:da:69:a9:c6:c2:01:a7:20:80:
                    cd:be:c7:18:d4:69:8d:25:9f:92:b2:48:51:0b:36:
                    3a:f1:97:4a:0c:2a:69:1b:6f:8e:f8:48:ad:05:dc:
                    1b:c4:35:06:71:82:80:2c:28:56:9d:b5:6b:fc:e6:
                    3d:5f:4c:8d:1c:d6:bf:89:ef:5c:9a:60:c0:d1:0b:
                    02:fa:c4:3e:2d:52:ed:71:9b:06:4a:d4:21:a1:0c:
                    c7:9d:11:e2:45:2f:ef:73:10:9d:40:2b:8c:19:bf:
                    b1:48:17:0d:1b:17:64:7d:e2:2d:15:69:0a:64:2c:
                    d0:3d:51:74:09:5d:55:38:6c:17:f5:31:06:f3:20:
                    de:91:ee:c1:85:eb:c9:db:de:7a:19:55:0a:63:44:
                    49:b3:a7:82:4d:33:9f:56:be:19:1d:2f:29:be:ea:
                    ad:91:4d:93:34:25:9f:7f:8a:3a:ac:96:91:a5:35:
                    94:40:62:ea:ec:42:ce:21:1d:c5:19:59:76:19:67:
                    64:7c:e2:2b:f7:b6:89:a2:1c:df:f9:77:92:37:4a:
                    af:05:c2:10:e3:83:22:d2:9f:4a:21:05:da:f0:82:
                    46:46:f2:f2:1e:30:48:e8:62:f3:5b:5c:10:96:06:
                    98:10:56:c0:90:28:b0:2a:71:20:02:48:85:16:d7:
                    f1:69:f4:40:c6:34:c6:c7:eb:43:85:2d:46:2f:b0:
                    83:a9:c5:b5:52:31:29:cf:01:38:1f:1c:0f:bb:15:
                    c9:18:35:6f:d4:7f:df:4a:f5:86:8e:1b:a0:46:ac:
                    5a:4a:d7:43:11:b7:6c:e6:0a:44:f3:40:39:86:52:
                    04:e2:9d:69:35:2e:63:a4:2f:fa:e3:f0:ed:ae:71:
                    aa:ca:b9:f6:ad:82:75:7a:39:1b:06:80:9c:38:84:
                    14:3f:c5
                Exponent: 65537 (0x10001)
        X509v3 extensions:
            X509v3 Basic Constraints: 
                CA:FALSE
            Netscape Comment: 
                Easy-RSA Generated Certificate
            X509v3 Subject Key Identifier: 
                1D:65:ED:E3:A5:60:53:1D:66:1C:70:44:B5:EC:A3:B9:3C:F8:09:3E
            X509v3 Authority Key Identifier: 
                keyid:12:CD:60:04:D2:A0:80:9E:70:ED:C6:99:B8:7B:2C:C6:52:FD:19:A1
                DirName:/C=US/ST=OH/L=Columbus/O=VikingVPN/OU=MyOrganizationalUnit/CN=VikingVPN CA/name=EasyRSA/emailAddress=me@myhost.mydomain
                serial:CF:35:85:EE:80:BF:2A:3E

            X509v3 Extended Key Usage: 
                TLS Web Client Authentication
            X509v3 Key Usage: 
                Digital Signature
    Signature Algorithm: sha256WithRSAEncryption
         20:73:80:82:7c:98:05:9e:63:b7:40:63:d7:4f:3d:bb:f9:83:
         d3:de:94:2c:9a:bc:14:7c:c6:12:75:b5:19:3b:5c:21:21:6e:
         39:d4:74:e3:d2:48:a0:ca:d4:a8:ae:a9:d7:e8:a8:57:98:b9:
         3e:6c:e5:83:cf:9a:f6:77:08:fe:c1:eb:73:ba:81:db:65:82:
         ea:2f:1f:b4:fb:1d:94:e6:f5:bd:b1:e6:4d:88:80:6d:a3:3a:
         39:68:1b:20:27:19:52:03:10:ac:06:db:26:1f:be:54:aa:ba:
         af:93:ae:b5:7f:b5:80:0f:dc:e2:4c:f2:2a:4f:dd:da:b5:3d:
         5d:88:14:6a:e1:a6:cf:f3:0a:a7:ab:e6:bd:60:36:55:a3:1f:
         93:e4:47:eb:e2:12:6d:52:de:ff:69:77:21:eb:bb:a1:a9:7a:
         2f:ec:71:63:f0:91:d5:06:1d:75:4b:81:9e:cf:f9:a8:93:40:
         7b:16:83:35:68:7b:b2:1b:07:5d:06:e6:14:cc:c6:36:f5:c0:
         a2:e5:c0:82:88:54:ce:ea:7f:4e:2e:d7:64:11:f0:98:4f:84:
         c1:ee:25:ec:ea:a0:53:87:dd:14:d5:19:bb:12:37:d6:e9:d9:
         65:ae:ea:28:04:bc:44:9a:9b:f3:59:81:a3:34:4d:51:cd:7b:
         dc:5f:f2:1f:b8:f3:67:4c:22:70:6e:c0:8b:3b:e4:05:fe:d7:
         52:1c:cf:60:88:32:64:4d:07:ef:aa:7f:28:0f:c8:94:54:96:
         5e:68:55:4a:f1:9a:f5:7e:eb:b1:43:c9:c3:1f:79:69:c3:58:
         f3:93:7d:e4:73:65:c3:3e:a0:5f:55:c5:8e:e8:2b:1d:c7:9a:
         72:77:b9:aa:19:ca:05:93:55:75:a1:ca:7c:79:0d:26:e5:40:
         01:64:0f:8b:d0:de:a1:38:83:3a:ff:dd:57:85:19:56:99:26:
         ce:19:47:94:4a:d1:57:eb:b0:cc:8a:90:94:03:44:d5:2a:ef:
         6c:0a:1a:7a:af:b3:32:32:d6:14:6b:06:82:08:0e:75:ed:6a:
         ce:1c:09:d6:23:d5:45:03:14:6f:83:9e:6f:1c:d1:b2:41:09:
         bf:e5:9c:1c:c5:8a:2d:77:e5:e2:02:af:b8:09:9e:79:86:f8:
         b5:47:97:bb:e3:bd:3c:39:6b:48:58:bc:cc:77:7b:3b:bd:70:
         ad:e2:36:54:54:e6:fd:3b:00:68:25:eb:81:49:a2:51:62:1e:
         37:04:47:20:49:d6:55:0e:43:e8:3c:bf:0d:ca:4f:6f:7a:da:
         34:f4:c6:aa:a1:e9:62:92:72:95:09:f5:22:8a:c6:ee:f8:19:
         3f:b1:38:78:f2:a6:40:75
-----BEGIN CERTIFICATE-----
MIIGrTCCBJWgAwIBAgICLSwwDQYJKoZIhvcNAQELBQAwgawxCzAJBgNVBAYTAlVT
MQswCQYDVQQIEwJPSDERMA8GA1UEBxMIQ29sdW1idXMxEjAQBgNVBAoTCVZpa2lu
Z1ZQTjEdMBsGA1UECxMUTXlPcmdhbml6YXRpb25hbFVuaXQxFTATBgNVBAMTDFZp
a2luZ1ZQTiBDQTEQMA4GA1UEKRMHRWFzeVJTQTEhMB8GCSqGSIb3DQEJARYSbWVA
bXlob3N0Lm15ZG9tYWluMB4XDTE3MDgxNTAyMjQ0NFoXDTI3MDgxMzAyMjQ0NFow
HzEdMBsGA1UEAxMUQ2xpZW50MzA0NkNlcnQzMjEzOGIwggIiMA0GCSqGSIb3DQEB
AQUAA4ICDwAwggIKAoICAQDIGaCIQNuKgze4buhUgnj9f2MoUJrEaPeAyjZ0umjH
CtxAoEn6YtvIDLTuAN7v64TR3uMDahYkZLBVCs6MprOEVNtuvsNEmhP3rknfnJ2h
LCoPqveLn957y7Xm7mwf2AosSZEoM9+4IX9C63CoBvKVYdTJkdcF/AXtzqzLGy/H
b4g0PWnZenfJCRP8AvoOnoHOIbazzGywyabTITtxBn+p8VctGDJ7h3ycu9ppqcbC
AacggM2+xxjUaY0ln5KySFELNjrxl0oMKmkbb474SK0F3BvENQZxgoAsKFadtWv8
5j1fTI0c1r+J71yaYMDRCwL6xD4tUu1xmwZK1CGhDMedEeJFL+9zEJ1AK4wZv7FI
Fw0bF2R94i0VaQpkLNA9UXQJXVU4bBf1MQbzIN6R7sGF68nb3noZVQpjREmzp4JN
M59WvhkdLym+6q2RTZM0JZ9/ijqslpGlNZRAYursQs4hHcUZWXYZZ2R84iv3tomi
HN/5d5I3Sq8FwhDjgyLSn0ohBdrwgkZG8vIeMEjoYvNbXBCWBpgQVsCQKLAqcSAC
SIUW1/Fp9EDGNMbH60OFLUYvsIOpxbVSMSnPATgfHA+7FckYNW/Uf99K9YaOG6BG
rFpK10MRt2zmCkTzQDmGUgTinWk1LmOkL/rj8O2ucarKufatgnV6ORsGgJw4hBQ/
xQIDAQABo4IBYzCCAV8wCQYDVR0TBAIwADAtBglghkgBhvhCAQ0EIBYeRWFzeS1S
U0EgR2VuZXJhdGVkIENlcnRpZmljYXRlMB0GA1UdDgQWBBQdZe3jpWBTHWYccES1
7KO5PPgJPjCB4QYDVR0jBIHZMIHWgBQSzWAE0qCAnnDtxpm4eyzGUv0ZoaGBsqSB
rzCBrDELMAkGA1UEBhMCVVMxCzAJBgNVBAgTAk9IMREwDwYDVQQHEwhDb2x1bWJ1
czESMBAGA1UEChMJVmlraW5nVlBOMR0wGwYDVQQLExRNeU9yZ2FuaXphdGlvbmFs
VW5pdDEVMBMGA1UEAxMMVmlraW5nVlBOIENBMRAwDgYDVQQpEwdFYXN5UlNBMSEw
HwYJKoZIhvcNAQkBFhJtZUBteWhvc3QubXlkb21haW6CCQDPNYXugL8qPjATBgNV
HSUEDDAKBggrBgEFBQcDAjALBgNVHQ8EBAMCB4AwDQYJKoZIhvcNAQELBQADggIB
ACBzgIJ8mAWeY7dAY9dPPbv5g9PelCyavBR8xhJ1tRk7XCEhbjnUdOPSSKDK1Kiu
qdfoqFeYuT5s5YPPmvZ3CP7B63O6gdtlguovH7T7HZTm9b2x5k2IgG2jOjloGyAn
GVIDEKwG2yYfvlSquq+TrrV/tYAP3OJM8ipP3dq1PV2IFGrhps/zCqer5r1gNlWj
H5PkR+viEm1S3v9pdyHru6Gpei/scWPwkdUGHXVLgZ7P+aiTQHsWgzVoe7IbB10G
5hTMxjb1wKLlwIKIVM7qf04u12QR8JhPhMHuJezqoFOH3RTVGbsSN9bp2WWu6igE
vESam/NZgaM0TVHNe9xf8h+482dMInBuwIs75AX+11Icz2CIMmRNB++qfygPyJRU
ll5oVUrxmvV+67FDycMfeWnDWPOTfeRzZcM+oF9VxY7oKx3HmnJ3uaoZygWTVXWh
ynx5DSblQAFkD4vQ3qE4gzr/3VeFGVaZJs4ZR5RK0VfrsMyKkJQDRNUq72wKGnqv
szIy1hRrBoIIDnXtas4cCdYj1UUDFG+Dnm8c0bJBCb/lnBzFii135eICr7gJnnmG
+LVHl7vjvTw5a0hYvMx3ezu9cK3iNlRU5v07AGgl64FJolFiHjcERyBJ1lUOQ+g8
vw3KT2962jT0xqqh6WKScpUJ9SKKxu74GT+xOHjypkB1
-----END CERTIFICATE-----
