Certificate:
    Data:
        Version: 3 (0x2)
        Serial Number: 6183 (0x1827)
    Signature Algorithm: md5WithRSAEncryption
        Issuer: C=US, ST=OH, L=Columbus, O=VikingVPN, OU=MyOrganizationalUnit, CN=VikingVPN CA/name=EasyRSA/emailAddress=me@myhost.mydomain
        Validity
            Not Before: Aug 31 19:26:55 2015 GMT
            Not After : Aug 28 19:26:55 2025 GMT
        Subject: CN=Client1937Certe7ef2e
        Subject Public Key Info:
            Public Key Algorithm: rsaEncryption
                Public-Key: (4096 bit)
                Modulus:
                    00:bd:d9:3c:60:8a:de:fc:0c:fa:3d:01:31:5d:54:
                    4e:13:62:57:a5:b6:74:da:b6:f4:28:ac:b3:46:2a:
                    5f:a8:0f:95:50:f0:7b:bf:5e:20:6b:4e:c3:0b:76:
                    6d:3f:2c:9a:bb:17:ab:92:c5:22:94:89:c2:50:d8:
                    9f:30:64:f9:8c:05:23:2c:ed:10:0f:fd:be:17:b0:
                    1b:fd:46:55:ff:7a:15:19:1a:21:66:8b:9c:94:2a:
                    87:24:06:4c:90:fe:fc:12:af:ca:db:85:81:6d:a8:
                    d0:86:77:33:74:38:34:81:50:22:2c:90:61:c2:9b:
                    50:7b:88:b8:13:b4:d7:ba:57:50:78:d5:e6:a2:c2:
                    88:f6:68:47:06:bb:cd:88:3b:31:37:88:e8:ad:ef:
                    7d:de:b2:da:86:46:b9:14:39:6d:c5:bd:06:85:d0:
                    86:82:5d:01:3a:8e:77:c1:72:74:c1:35:c0:0b:b7:
                    45:c6:bb:f7:92:ee:88:9e:2d:f2:e0:04:ea:ca:ab:
                    72:19:7d:8d:2b:23:9d:5b:59:1e:50:7e:ec:73:e3:
                    59:6a:b9:02:11:70:52:76:70:b8:15:37:f4:54:f1:
                    da:9e:4f:08:8e:11:0f:2e:77:b1:a9:53:e8:ff:30:
                    11:da:42:9d:5e:c0:85:7c:b0:42:4b:51:36:9e:36:
                    b9:68:19:ef:91:b3:d7:a8:9f:35:dd:cc:1c:0f:64:
                    92:5e:b9:c0:3f:82:6e:0f:71:07:46:56:d9:54:8c:
                    1c:86:7a:ba:2d:af:f3:6e:1d:b7:d7:fb:b1:ba:3c:
                    d6:3c:8e:c9:bb:71:6d:da:2a:66:50:ad:04:d8:ea:
                    14:38:a9:c4:fb:15:a3:3d:44:11:c1:99:0b:97:3a:
                    70:93:42:9f:57:0b:fb:d6:8e:70:f8:95:65:8d:d6:
                    42:6c:6e:76:64:67:d6:a0:54:69:7f:66:06:94:6a:
                    12:0d:32:f4:0b:e1:f5:c9:1b:dd:88:89:51:58:29:
                    f1:c5:f8:d9:07:ca:69:58:23:05:02:cb:4d:73:cd:
                    9e:dd:59:20:eb:e7:a4:08:59:ee:b8:b3:6d:8f:48:
                    99:ff:76:8c:79:8a:58:6c:ab:ab:5b:4f:0b:e9:a7:
                    4d:19:15:02:b0:e3:f7:2b:a4:c6:ab:9c:4f:f7:d3:
                    d9:3b:18:53:c4:ed:4b:58:be:8d:eb:87:7c:35:39:
                    9d:25:07:d3:51:19:f8:0a:6e:34:81:98:02:c8:e4:
                    3d:3d:20:a6:76:cc:6c:c4:08:42:b2:ac:6a:82:4b:
                    a1:68:e5:da:eb:85:5e:f1:24:5f:29:1a:fa:b7:46:
                    9c:68:9a:12:31:da:63:f1:c0:30:42:7d:30:a0:be:
                    10:f4:67
                Exponent: 65537 (0x10001)
        X509v3 extensions:
            X509v3 Basic Constraints: 
                CA:FALSE
            Netscape Comment: 
                Easy-RSA Generated Certificate
            X509v3 Subject Key Identifier: 
                71:04:0D:AE:E2:03:4F:C4:95:2D:FF:9B:CD:64:F4:C5:62:F6:41:36
            X509v3 Authority Key Identifier: 
                keyid:12:CD:60:04:D2:A0:80:9E:70:ED:C6:99:B8:7B:2C:C6:52:FD:19:A1
                DirName:/C=US/ST=OH/L=Columbus/O=VikingVPN/OU=MyOrganizationalUnit/CN=VikingVPN CA/name=EasyRSA/emailAddress=me@myhost.mydomain
                serial:CF:35:85:EE:80:BF:2A:3E

            X509v3 Extended Key Usage: 
                TLS Web Client Authentication
            X509v3 Key Usage: 
                Digital Signature
    Signature Algorithm: md5WithRSAEncryption
         76:e8:45:0a:d1:f9:77:45:b8:55:88:50:e5:de:5e:23:61:3b:
         ea:63:3c:a7:c9:43:9c:3e:16:4c:e9:2d:2f:20:c2:62:f3:66:
         59:2b:f8:15:0e:66:07:b0:b1:0b:6b:11:66:2f:84:68:5f:75:
         dc:a5:a0:e2:1d:67:ab:56:35:9b:54:cd:60:87:ce:99:21:a2:
         ac:e7:f1:58:66:4f:48:5e:3b:7e:0e:5c:f3:28:f0:af:87:b8:
         c9:d5:04:6d:aa:44:9f:ad:84:93:80:ce:8c:26:a1:54:6a:22:
         e4:d9:27:73:93:c0:b4:cc:82:c9:a0:49:c7:4e:c6:10:27:42:
         f1:49:96:29:47:6e:df:32:d2:8c:ed:1e:a0:02:7e:50:52:02:
         2b:d5:58:cd:89:cc:f0:2a:c1:5f:5d:31:f7:82:48:e0:1f:21:
         5d:1b:77:43:ad:f7:72:52:23:c3:6c:a4:8c:e9:32:16:47:97:
         6b:b1:58:6c:a1:7b:f5:45:4f:66:6f:a4:4a:a1:25:12:a0:60:
         56:f5:c8:41:1e:c5:9a:6d:31:2b:33:6b:da:d7:85:e5:7e:89:
         02:d8:1f:e1:7c:fd:46:63:1a:13:c6:f4:96:1e:1e:e9:97:35:
         a2:e6:4a:e1:3e:ee:38:42:b5:a7:9e:82:00:f3:57:2e:01:87:
         93:51:bb:1b:52:98:04:f6:5d:06:7a:67:33:b5:eb:82:ea:7d:
         51:be:46:21:fd:11:97:a0:88:b9:bd:39:47:c4:de:ab:56:5f:
         95:94:da:cb:42:32:54:a8:ef:b7:c0:a4:89:12:cb:76:45:4f:
         79:4c:41:05:39:70:8d:ec:87:18:b0:3e:b5:26:a5:09:a2:af:
         37:fc:75:9d:c6:01:50:55:39:cc:5f:e7:ea:ce:93:a3:fb:47:
         92:e6:e4:99:9d:7b:65:b2:93:68:2b:cd:c8:15:c2:60:22:a3:
         2e:01:df:14:9b:b1:80:81:a7:1b:23:df:9f:6c:d0:7d:9a:66:
         0e:16:c5:99:41:85:22:aa:61:06:42:1a:d5:19:83:8b:73:5f:
         f1:16:7d:7c:35:77:78:77:d0:fa:ae:67:c2:62:5d:90:7d:70:
         e9:93:ea:f9:f0:a3:38:04:3d:4c:1d:17:4c:56:ee:12:71:bf:
         b4:8f:a8:7c:49:78:44:aa:ed:08:fb:55:1e:58:d7:b5:76:72:
         19:a1:67:6f:7d:5b:ee:b2:2e:d4:85:53:17:d5:a2:d1:ae:8e:
         9b:44:40:d4:a4:3b:17:17:43:3c:fd:a7:9f:18:52:b3:57:35:
         46:d2:4b:c9:d1:36:b8:ba:20:7b:d4:60:4d:7e:61:92:d3:73:
         9c:8e:7a:47:43:9e:ac:a8
-----BEGIN CERTIFICATE-----
MIIGrTCCBJWgAwIBAgICGCcwDQYJKoZIhvcNAQEEBQAwgawxCzAJBgNVBAYTAlVT
MQswCQYDVQQIEwJPSDERMA8GA1UEBxMIQ29sdW1idXMxEjAQBgNVBAoTCVZpa2lu
Z1ZQTjEdMBsGA1UECxMUTXlPcmdhbml6YXRpb25hbFVuaXQxFTATBgNVBAMTDFZp
a2luZ1ZQTiBDQTEQMA4GA1UEKRMHRWFzeVJTQTEhMB8GCSqGSIb3DQEJARYSbWVA
bXlob3N0Lm15ZG9tYWluMB4XDTE1MDgzMTE5MjY1NVoXDTI1MDgyODE5MjY1NVow
HzEdMBsGA1UEAxMUQ2xpZW50MTkzN0NlcnRlN2VmMmUwggIiMA0GCSqGSIb3DQEB
AQUAA4ICDwAwggIKAoICAQC92Txgit78DPo9ATFdVE4TYleltnTatvQorLNGKl+o
D5VQ8Hu/XiBrTsMLdm0/LJq7F6uSxSKUicJQ2J8wZPmMBSMs7RAP/b4XsBv9RlX/
ehUZGiFmi5yUKockBkyQ/vwSr8rbhYFtqNCGdzN0ODSBUCIskGHCm1B7iLgTtNe6
V1B41eaiwoj2aEcGu82IOzE3iOit733estqGRrkUOW3FvQaF0IaCXQE6jnfBcnTB
NcALt0XGu/eS7oieLfLgBOrKq3IZfY0rI51bWR5Qfuxz41lquQIRcFJ2cLgVN/RU
8dqeTwiOEQ8ud7GpU+j/MBHaQp1ewIV8sEJLUTaeNrloGe+Rs9eonzXdzBwPZJJe
ucA/gm4PcQdGVtlUjByGerotr/NuHbfX+7G6PNY8jsm7cW3aKmZQrQTY6hQ4qcT7
FaM9RBHBmQuXOnCTQp9XC/vWjnD4lWWN1kJsbnZkZ9agVGl/ZgaUahINMvQL4fXJ
G92IiVFYKfHF+NkHymlYIwUCy01zzZ7dWSDr56QIWe64s22PSJn/dox5ilhsq6tb
Twvpp00ZFQKw4/crpMarnE/309k7GFPE7UtYvo3rh3w1OZ0lB9NRGfgKbjSBmALI
5D09IKZ2zGzECEKyrGqCS6Fo5drrhV7xJF8pGvq3RpxomhIx2mPxwDBCfTCgvhD0
ZwIDAQABo4IBYzCCAV8wCQYDVR0TBAIwADAtBglghkgBhvhCAQ0EIBYeRWFzeS1S
U0EgR2VuZXJhdGVkIENlcnRpZmljYXRlMB0GA1UdDgQWBBRxBA2u4gNPxJUt/5vN
ZPTFYvZBNjCB4QYDVR0jBIHZMIHWgBQSzWAE0qCAnnDtxpm4eyzGUv0ZoaGBsqSB
rzCBrDELMAkGA1UEBhMCVVMxCzAJBgNVBAgTAk9IMREwDwYDVQQHEwhDb2x1bWJ1
czESMBAGA1UEChMJVmlraW5nVlBOMR0wGwYDVQQLExRNeU9yZ2FuaXphdGlvbmFs
VW5pdDEVMBMGA1UEAxMMVmlraW5nVlBOIENBMRAwDgYDVQQpEwdFYXN5UlNBMSEw
HwYJKoZIhvcNAQkBFhJtZUBteWhvc3QubXlkb21haW6CCQDPNYXugL8qPjATBgNV
HSUEDDAKBggrBgEFBQcDAjALBgNVHQ8EBAMCB4AwDQYJKoZIhvcNAQEEBQADggIB
AHboRQrR+XdFuFWIUOXeXiNhO+pjPKfJQ5w+FkzpLS8gwmLzZlkr+BUOZgewsQtr
EWYvhGhfddyloOIdZ6tWNZtUzWCHzpkhoqzn8VhmT0heO34OXPMo8K+HuMnVBG2q
RJ+thJOAzowmoVRqIuTZJ3OTwLTMgsmgScdOxhAnQvFJlilHbt8y0oztHqACflBS
AivVWM2JzPAqwV9dMfeCSOAfIV0bd0Ot93JSI8NspIzpMhZHl2uxWGyhe/VFT2Zv
pEqhJRKgYFb1yEEexZptMSsza9rXheV+iQLYH+F8/UZjGhPG9JYeHumXNaLmSuE+
7jhCtaeeggDzVy4Bh5NRuxtSmAT2XQZ6ZzO164LqfVG+RiH9EZegiLm9OUfE3qtW
X5WU2stCMlSo77fApIkSy3ZFT3lMQQU5cI3shxiwPrUmpQmirzf8dZ3GAVBVOcxf
5+rOk6P7R5Lm5Jmde2Wyk2grzcgVwmAioy4B3xSbsYCBpxsj359s0H2aZg4WxZlB
hSKqYQZCGtUZg4tzX/EWfXw1d3h30PquZ8JiXZB9cOmT6vnwozgEPUwdF0xW7hJx
v7SPqHxJeESq7Qj7VR5Y17V2chmhZ299W+6yLtSFUxfVotGujptEQNSkOxcXQzz9
p58YUrNXNUbSS8nRNri6IHvUYE1+YZLTc5yOekdDnqyo
-----END CERTIFICATE-----
