Certificate:
    Data:
        Version: 3 (0x2)
        Serial Number: 10076 (0x275c)
    Signature Algorithm: sha256WithRSAEncryption
        Issuer: C=US, ST=OH, L=Columbus, O=VikingVPN, OU=MyOrganizationalUnit, CN=VikingVPN CA/name=EasyRSA/emailAddress=me@myhost.mydomain
        Validity
            Not Before: Feb  7 07:11:12 2017 GMT
            Not After : Feb  5 07:11:12 2027 GMT
        Subject: CN=Client2721Cert7172eb
        Subject Public Key Info:
            Public Key Algorithm: rsaEncryption
                Public-Key: (4096 bit)
                Modulus:
                    00:c9:fe:e6:1b:07:61:dd:86:18:b3:25:21:b8:de:
                    df:af:0e:51:2a:2a:16:6e:a5:46:69:af:df:0f:53:
                    b0:2f:14:50:81:5a:21:69:f7:90:87:03:56:ad:68:
                    b4:01:9c:b8:17:e5:30:20:19:9c:5c:30:a4:ac:58:
                    e7:6f:eb:da:56:52:0d:13:97:c1:17:a2:b6:da:48:
                    34:c7:65:d9:7e:3a:43:62:09:10:62:c3:e0:43:e9:
                    ab:f2:5c:b5:9f:a2:e2:47:1b:53:02:75:39:7e:54:
                    65:e2:b8:a8:94:a3:38:ba:4d:60:50:65:5a:14:ae:
                    b7:01:f0:60:7a:db:e3:dc:ed:db:cc:6c:9b:01:c9:
                    69:4c:1a:4c:c4:3b:05:47:14:20:02:6c:8f:0e:41:
                    67:89:3f:c5:9f:98:9e:7e:cc:07:0f:f7:97:53:f1:
                    eb:2b:f3:7d:0d:a3:d0:72:d2:4c:e2:6a:fe:ad:c5:
                    b7:f8:62:d9:90:ea:4a:84:49:a8:aa:9c:23:64:f7:
                    54:24:0a:cd:31:48:f9:44:96:ba:37:ca:d4:a6:1d:
                    af:31:61:95:c6:a3:bd:fd:24:63:6b:a1:5b:f6:7e:
                    b3:98:7c:c4:12:4d:e7:0b:3b:50:09:1a:a5:48:51:
                    2f:fd:4b:9f:01:f7:98:0c:09:46:03:ee:d6:ab:74:
                    fa:76:4f:e7:d6:32:8b:0c:3d:04:8c:10:77:c7:88:
                    b6:b8:d4:df:55:73:b4:45:fd:04:2e:9e:de:0b:00:
                    07:fc:1f:a8:50:38:fd:74:11:27:a9:30:97:b8:fe:
                    16:a3:0a:c9:f3:ad:7f:a7:23:29:59:f7:13:21:a6:
                    0b:2f:73:4f:ec:ca:15:80:8f:9c:ce:9f:87:30:7e:
                    5c:5f:c4:85:97:04:e6:2d:c1:bd:ee:8d:23:f5:ab:
                    ee:a3:1d:ec:5c:91:ee:92:05:68:8b:62:f9:cc:6d:
                    44:07:ea:f4:f7:1b:29:10:3e:87:9b:aa:72:e7:2c:
                    b8:ec:01:75:02:28:38:31:0c:f1:a3:1a:db:0c:1f:
                    43:d3:c2:84:ae:e5:d9:96:ac:81:6e:98:a8:4c:06:
                    b8:37:73:02:44:f2:5f:37:62:91:88:73:8d:76:e1:
                    89:75:9d:20:8d:59:b4:b9:e8:6e:22:48:a9:56:29:
                    32:b8:c4:fa:13:32:57:34:8e:48:b1:6b:02:95:a6:
                    b6:d6:67:66:8f:a9:52:84:e7:94:cb:17:42:ad:7e:
                    80:83:74:44:0c:6f:0e:43:db:7a:a6:61:b1:43:74:
                    68:61:8e:1a:e0:88:7d:94:84:e6:8c:22:68:a2:5a:
                    d0:a2:0d:df:6f:e6:c0:88:6b:5b:f3:23:e1:c1:6f:
                    d5:08:6d
                Exponent: 65537 (0x10001)
        X509v3 extensions:
            X509v3 Basic Constraints: 
                CA:FALSE
            Netscape Comment: 
                Easy-RSA Generated Certificate
            X509v3 Subject Key Identifier: 
                37:C2:E9:04:FE:52:8F:5C:75:3A:3F:2E:57:3E:52:96:39:7E:B3:96
            X509v3 Authority Key Identifier: 
                keyid:12:CD:60:04:D2:A0:80:9E:70:ED:C6:99:B8:7B:2C:C6:52:FD:19:A1
                DirName:/C=US/ST=OH/L=Columbus/O=VikingVPN/OU=MyOrganizationalUnit/CN=VikingVPN CA/name=EasyRSA/emailAddress=me@myhost.mydomain
                serial:CF:35:85:EE:80:BF:2A:3E

            X509v3 Extended Key Usage: 
                TLS Web Client Authentication
            X509v3 Key Usage: 
                Digital Signature
    Signature Algorithm: sha256WithRSAEncryption
         af:34:c6:c3:0e:9b:96:f6:5a:e0:2b:2e:d0:c1:83:a3:4e:e6:
         c9:70:94:a7:e3:fd:2f:1f:9e:8a:18:f5:a0:81:dc:e3:fb:65:
         fa:a1:a1:82:89:cd:57:8b:82:9f:e0:5d:c1:a6:60:87:f2:f6:
         b9:fe:91:c4:e1:81:87:b9:ab:08:4f:d1:0a:4a:6c:e5:58:85:
         ab:6c:d2:98:48:b5:4f:3a:26:85:dc:3d:55:e8:bb:d9:88:0e:
         65:e9:f1:2d:5c:76:dd:77:d3:c4:23:0e:c1:d3:86:98:ee:5a:
         3b:7e:0c:72:f9:dd:a0:c5:ff:d6:d9:90:4c:a0:4a:04:b2:35:
         31:f2:55:dc:be:e5:1c:c8:66:d9:4e:77:2c:e3:43:69:24:63:
         c4:a5:99:ca:9b:ba:3a:de:37:b8:7c:4a:60:4b:92:1b:d3:f9:
         1f:60:16:af:d0:50:9c:67:2b:f1:ee:fc:3b:c1:48:fd:9e:fa:
         29:2c:eb:31:79:99:2d:9d:03:db:18:e3:7b:42:b6:1a:0a:fa:
         1b:cc:b5:c5:62:89:07:50:2a:06:b9:1c:d7:4f:cb:91:ca:ea:
         70:30:f0:32:3d:73:f0:ca:ce:67:1a:3e:3f:27:e1:bc:51:64:
         4c:da:68:38:01:71:10:fc:69:a1:98:6f:5c:a3:c0:09:fb:f2:
         ee:8f:75:e4:f4:f2:82:69:c5:ef:e6:a9:64:d0:73:5d:9d:30:
         a6:15:ec:13:16:8e:9f:d3:2d:b6:79:9c:44:58:25:eb:ab:54:
         db:8e:a3:9a:e5:b6:c4:fe:8d:c7:80:00:0a:83:38:b2:ce:68:
         f5:ab:11:70:c7:37:29:34:54:61:19:04:da:88:da:0b:a0:9a:
         53:71:70:29:f8:b0:61:67:ba:b7:ca:78:e9:88:22:81:df:e5:
         55:f7:bb:6e:c7:73:c6:84:1f:72:50:73:da:18:97:2a:53:0f:
         8a:32:96:88:c9:75:ac:ab:ed:92:bd:1f:d6:93:dc:c4:d1:2d:
         8b:bf:07:4a:21:12:bd:35:8e:d7:8f:be:57:da:ec:46:e0:dd:
         2a:c5:c1:ca:54:22:c4:7a:3b:f7:42:bf:12:e8:4e:e4:c8:f6:
         97:29:22:e7:04:da:3d:34:ae:50:03:e9:ba:44:9d:45:6d:aa:
         3f:9a:c2:a2:b9:92:d8:8f:5a:46:2c:03:3f:eb:7d:5a:b2:6b:
         f0:05:99:a4:dc:de:8a:8d:46:91:5f:61:a6:2c:c4:01:3e:56:
         c8:0f:82:54:b7:b0:a5:3d:3f:b2:d9:04:9c:02:29:e0:38:6b:
         06:83:24:a3:97:93:c6:65:72:d2:9d:fd:a6:f3:91:4a:4f:af:
         8f:41:5e:b8:e5:9d:72:3c
-----BEGIN CERTIFICATE-----
MIIGrTCCBJWgAwIBAgICJ1wwDQYJKoZIhvcNAQELBQAwgawxCzAJBgNVBAYTAlVT
MQswCQYDVQQIEwJPSDERMA8GA1UEBxMIQ29sdW1idXMxEjAQBgNVBAoTCVZpa2lu
Z1ZQTjEdMBsGA1UECxMUTXlPcmdhbml6YXRpb25hbFVuaXQxFTATBgNVBAMTDFZp
a2luZ1ZQTiBDQTEQMA4GA1UEKRMHRWFzeVJTQTEhMB8GCSqGSIb3DQEJARYSbWVA
bXlob3N0Lm15ZG9tYWluMB4XDTE3MDIwNzA3MTExMloXDTI3MDIwNTA3MTExMlow
HzEdMBsGA1UEAxMUQ2xpZW50MjcyMUNlcnQ3MTcyZWIwggIiMA0GCSqGSIb3DQEB
AQUAA4ICDwAwggIKAoICAQDJ/uYbB2HdhhizJSG43t+vDlEqKhZupUZpr98PU7Av
FFCBWiFp95CHA1ataLQBnLgX5TAgGZxcMKSsWOdv69pWUg0Tl8EXorbaSDTHZdl+
OkNiCRBiw+BD6avyXLWfouJHG1MCdTl+VGXiuKiUozi6TWBQZVoUrrcB8GB62+Pc
7dvMbJsByWlMGkzEOwVHFCACbI8OQWeJP8WfmJ5+zAcP95dT8esr830No9By0kzi
av6txbf4YtmQ6kqESaiqnCNk91QkCs0xSPlElro3ytSmHa8xYZXGo739JGNroVv2
frOYfMQSTecLO1AJGqVIUS/9S58B95gMCUYD7tardPp2T+fWMosMPQSMEHfHiLa4
1N9Vc7RF/QQunt4LAAf8H6hQOP10ESepMJe4/hajCsnzrX+nIylZ9xMhpgsvc0/s
yhWAj5zOn4cwflxfxIWXBOYtwb3ujSP1q+6jHexcke6SBWiLYvnMbUQH6vT3GykQ
PoebqnLnLLjsAXUCKDgxDPGjGtsMH0PTwoSu5dmWrIFumKhMBrg3cwJE8l83YpGI
c4124Yl1nSCNWbS56G4iSKlWKTK4xPoTMlc0jkixawKVprbWZ2aPqVKE55TLF0Kt
foCDdEQMbw5D23qmYbFDdGhhjhrgiH2UhOaMImiiWtCiDd9v5sCIa1vzI+HBb9UI
bQIDAQABo4IBYzCCAV8wCQYDVR0TBAIwADAtBglghkgBhvhCAQ0EIBYeRWFzeS1S
U0EgR2VuZXJhdGVkIENlcnRpZmljYXRlMB0GA1UdDgQWBBQ3wukE/lKPXHU6Py5X
PlKWOX6zljCB4QYDVR0jBIHZMIHWgBQSzWAE0qCAnnDtxpm4eyzGUv0ZoaGBsqSB
rzCBrDELMAkGA1UEBhMCVVMxCzAJBgNVBAgTAk9IMREwDwYDVQQHEwhDb2x1bWJ1
czESMBAGA1UEChMJVmlraW5nVlBOMR0wGwYDVQQLExRNeU9yZ2FuaXphdGlvbmFs
VW5pdDEVMBMGA1UEAxMMVmlraW5nVlBOIENBMRAwDgYDVQQpEwdFYXN5UlNBMSEw
HwYJKoZIhvcNAQkBFhJtZUBteWhvc3QubXlkb21haW6CCQDPNYXugL8qPjATBgNV
HSUEDDAKBggrBgEFBQcDAjALBgNVHQ8EBAMCB4AwDQYJKoZIhvcNAQELBQADggIB
AK80xsMOm5b2WuArLtDBg6NO5slwlKfj/S8fnooY9aCB3OP7ZfqhoYKJzVeLgp/g
XcGmYIfy9rn+kcThgYe5qwhP0QpKbOVYhats0phItU86JoXcPVXou9mIDmXp8S1c
dt1308QjDsHThpjuWjt+DHL53aDF/9bZkEygSgSyNTHyVdy+5RzIZtlOdyzjQ2kk
Y8SlmcqbujreN7h8SmBLkhvT+R9gFq/QUJxnK/Hu/DvBSP2e+iks6zF5mS2dA9sY
43tCthoK+hvMtcViiQdQKga5HNdPy5HK6nAw8DI9c/DKzmcaPj8n4bxRZEzaaDgB
cRD8aaGYb1yjwAn78u6PdeT08oJpxe/mqWTQc12dMKYV7BMWjp/TLbZ5nERYJeur
VNuOo5rltsT+jceAAAqDOLLOaPWrEXDHNyk0VGEZBNqI2gugmlNxcCn4sGFnurfK
eOmIIoHf5VX3u27Hc8aEH3JQc9oYlypTD4oylojJdayr7ZK9H9aT3MTRLYu/B0oh
Er01jtePvlfa7Ebg3SrFwcpUIsR6O/dCvxLoTuTI9pcpIucE2j00rlAD6bpEnUVt
qj+awqK5ktiPWkYsAz/rfVqya/AFmaTc3oqNRpFfYaYsxAE+VsgPglS3sKU9P7LZ
BJwCKeA4awaDJKOXk8ZlctKd/abzkUpPr49BXrjlnXI8
-----END CERTIFICATE-----
