Certificate:
    Data:
        Version: 3 (0x2)
        Serial Number: 5274 (0x149a)
    Signature Algorithm: md5WithRSAEncryption
        Issuer: C=US, ST=OH, L=Columbus, O=VikingVPN, OU=MyOrganizationalUnit, CN=VikingVPN CA/name=EasyRSA/emailAddress=me@myhost.mydomain
        Validity
            Not Before: May 14 03:02:16 2015 GMT
            Not After : May 11 03:02:16 2025 GMT
        Subject: CN=Client1670Certa4dca6
        Subject Public Key Info:
            Public Key Algorithm: rsaEncryption
                Public-Key: (4096 bit)
                Modulus:
                    00:a2:e3:64:7a:97:af:9b:63:6f:00:3e:c4:be:ea:
                    2e:83:f2:7d:e6:79:d0:2f:d0:94:3e:d5:ae:7d:85:
                    f4:19:e5:e0:fb:94:4a:c1:48:90:fb:c5:9e:95:a4:
                    5b:08:ea:1f:88:6e:61:66:e4:81:43:45:42:f5:ce:
                    75:66:4a:ef:27:ee:44:be:9a:ab:70:8b:f9:0b:0a:
                    af:fb:ee:53:0a:0b:a8:b4:04:c0:d9:ac:f1:3e:7d:
                    bd:26:5e:33:cf:6b:db:f5:95:d1:f8:0b:51:e1:97:
                    11:dd:71:6c:dd:10:3f:47:88:92:74:d4:7f:03:ea:
                    b4:41:a2:90:09:c3:c8:eb:56:d0:cd:69:cf:d2:5f:
                    85:58:23:28:d1:5b:33:26:b3:9d:36:3c:00:df:75:
                    b0:67:69:bf:92:62:6f:16:1e:6a:c6:14:92:a4:f8:
                    21:dc:01:0c:4d:03:7b:46:92:eb:fd:6b:1e:55:18:
                    ad:e0:d7:a8:7f:fc:89:71:17:88:f7:57:d4:46:ed:
                    b0:60:aa:96:dc:50:e0:a8:dc:29:71:7d:1b:26:93:
                    89:2f:ca:e5:f4:0e:8a:db:b5:86:4b:8d:0a:fc:d1:
                    35:9c:50:ae:fd:9b:d1:b4:c5:0d:cb:7c:2f:59:d8:
                    65:c5:0a:d2:cb:dc:27:6a:eb:9e:d9:71:c6:dc:df:
                    8d:25:a4:84:97:de:73:ed:c1:5e:67:c3:a6:dd:00:
                    90:3f:70:6d:84:d7:0a:34:ff:8a:f1:50:06:80:30:
                    ec:b1:07:5f:03:c9:7f:41:f0:40:32:a0:a2:c5:84:
                    4c:f7:d2:c4:10:af:b8:95:81:ee:5d:7f:76:51:60:
                    d3:a6:7c:95:80:b0:fc:88:d7:ed:2c:7e:d2:98:07:
                    fd:80:d5:9d:29:7b:f8:3d:76:81:bd:dd:b9:04:03:
                    ed:00:39:d7:85:87:77:2b:26:ec:61:14:12:77:45:
                    8d:57:45:2a:30:29:28:0d:13:ae:b6:a7:d4:20:a2:
                    77:05:44:38:9d:20:30:ad:84:c6:b1:78:08:83:4e:
                    4b:fb:5b:9e:23:d5:8b:d2:19:1e:56:85:94:db:7f:
                    32:0a:2e:4d:41:91:69:9b:2c:9b:c3:03:90:96:21:
                    38:ab:99:34:14:e2:6a:62:22:e1:6c:36:ba:c2:89:
                    7e:7b:ae:3f:8d:5d:4a:8f:68:f5:f0:a0:8d:61:bc:
                    00:b5:99:6f:e0:bc:44:9a:8f:0f:64:07:0f:0c:83:
                    ff:5a:e3:f9:a4:91:96:71:09:3c:26:69:98:a7:e4:
                    92:49:5b:89:db:70:18:9c:76:94:55:00:ec:84:b2:
                    84:d2:cd:b0:1c:69:b2:66:99:0c:cd:63:b2:91:32:
                    6c:e2:ad
                Exponent: 65537 (0x10001)
        X509v3 extensions:
            X509v3 Basic Constraints: 
                CA:FALSE
            Netscape Comment: 
                Easy-RSA Generated Certificate
            X509v3 Subject Key Identifier: 
                B8:55:7C:5D:BB:1B:B4:44:E6:62:69:4D:2E:35:EE:7A:1F:97:C2:9C
            X509v3 Authority Key Identifier: 
                keyid:12:CD:60:04:D2:A0:80:9E:70:ED:C6:99:B8:7B:2C:C6:52:FD:19:A1
                DirName:/C=US/ST=OH/L=Columbus/O=VikingVPN/OU=MyOrganizationalUnit/CN=VikingVPN CA/name=EasyRSA/emailAddress=me@myhost.mydomain
                serial:CF:35:85:EE:80:BF:2A:3E

            X509v3 Extended Key Usage: 
                TLS Web Client Authentication
            X509v3 Key Usage: 
                Digital Signature
    Signature Algorithm: md5WithRSAEncryption
         63:5e:98:4b:8b:da:46:2b:a9:6c:f1:8e:60:23:d2:ac:ee:77:
         31:29:7f:0b:3b:c6:cd:d7:fc:25:7d:04:a7:a9:a2:53:be:1d:
         de:f4:9b:86:f9:51:15:d4:4f:07:d7:80:2f:ad:bb:43:67:ee:
         00:a0:17:62:c0:c0:ef:c1:99:00:7d:bf:8e:8d:99:28:ef:c1:
         a1:7c:49:22:34:56:61:35:e2:50:e6:f3:36:cf:18:d0:98:d9:
         67:5d:c6:88:4b:75:6e:72:22:4a:7c:30:c1:39:b8:82:22:b4:
         98:e6:de:3a:26:ba:43:3b:69:02:bd:18:e6:eb:c9:b4:ab:e7:
         f8:08:4e:8c:90:e1:a1:ec:0f:7d:73:c1:7b:70:91:8e:db:de:
         17:25:a0:10:22:2b:77:54:de:6d:e9:a5:50:d2:5a:78:7f:bc:
         3e:fd:b9:24:3f:9b:56:ab:27:19:80:a0:f0:31:d1:2f:fa:04:
         29:e9:4d:73:ee:72:74:20:fa:43:0d:8a:54:fd:fd:78:27:f2:
         4d:51:3f:9a:0e:f6:02:86:9a:ff:f7:35:1d:46:f6:7c:ce:40:
         0f:2d:fc:f4:c0:d8:b0:69:cd:27:8e:55:4c:ca:ee:f8:58:d0:
         fd:56:c7:b9:9c:2e:5e:81:45:5f:63:d7:ba:38:13:d1:22:a7:
         b8:be:44:ed:20:20:4e:35:3e:b0:bd:f1:47:c6:d0:7d:f5:b6:
         92:0a:db:a8:e2:22:ec:e7:a2:60:74:61:b8:e5:ce:38:74:0f:
         d2:dd:c9:e4:19:7f:af:03:1b:5d:a6:34:65:aa:d0:d2:dd:dd:
         fd:38:c4:69:11:17:47:c7:02:45:78:dc:06:71:54:c0:ad:05:
         85:87:45:62:53:f9:13:25:eb:b7:d2:95:04:57:e6:5e:91:48:
         63:d2:f1:a1:0e:be:56:da:a9:6d:85:aa:d0:33:a0:6f:71:83:
         fa:22:ce:d8:09:f4:b2:ec:0c:61:eb:06:dd:77:2c:a9:2e:ab:
         05:50:d9:18:63:c7:ba:eb:5b:2f:2d:b8:c8:91:eb:b8:cb:4e:
         78:be:d9:bb:27:5d:3e:df:9c:9d:97:4c:5d:56:5c:12:79:b4:
         ad:1c:6b:fe:da:b0:13:d8:3e:15:c5:c7:e0:35:f8:67:7b:cf:
         4b:0f:7e:42:44:be:14:d1:58:b9:13:22:9b:b9:1a:46:c3:8c:
         d6:67:4b:64:7c:b0:be:25:a1:c6:81:3e:fa:67:c7:2f:ab:78:
         6e:e8:a6:50:14:98:1e:5d:7b:18:d8:b8:4e:72:fd:cd:48:97:
         40:f6:29:19:af:a7:6d:d1:b0:e6:f5:dd:45:c2:d4:de:46:e9:
         89:39:30:d2:ad:16:12:c7
-----BEGIN CERTIFICATE-----
MIIGrTCCBJWgAwIBAgICFJowDQYJKoZIhvcNAQEEBQAwgawxCzAJBgNVBAYTAlVT
MQswCQYDVQQIEwJPSDERMA8GA1UEBxMIQ29sdW1idXMxEjAQBgNVBAoTCVZpa2lu
Z1ZQTjEdMBsGA1UECxMUTXlPcmdhbml6YXRpb25hbFVuaXQxFTATBgNVBAMTDFZp
a2luZ1ZQTiBDQTEQMA4GA1UEKRMHRWFzeVJTQTEhMB8GCSqGSIb3DQEJARYSbWVA
bXlob3N0Lm15ZG9tYWluMB4XDTE1MDUxNDAzMDIxNloXDTI1MDUxMTAzMDIxNlow
HzEdMBsGA1UEAxMUQ2xpZW50MTY3MENlcnRhNGRjYTYwggIiMA0GCSqGSIb3DQEB
AQUAA4ICDwAwggIKAoICAQCi42R6l6+bY28APsS+6i6D8n3medAv0JQ+1a59hfQZ
5eD7lErBSJD7xZ6VpFsI6h+IbmFm5IFDRUL1znVmSu8n7kS+mqtwi/kLCq/77lMK
C6i0BMDZrPE+fb0mXjPPa9v1ldH4C1HhlxHdcWzdED9HiJJ01H8D6rRBopAJw8jr
VtDNac/SX4VYIyjRWzMms502PADfdbBnab+SYm8WHmrGFJKk+CHcAQxNA3tGkuv9
ax5VGK3g16h//IlxF4j3V9RG7bBgqpbcUOCo3ClxfRsmk4kvyuX0DorbtYZLjQr8
0TWcUK79m9G0xQ3LfC9Z2GXFCtLL3Cdq657Zccbc340lpISX3nPtwV5nw6bdAJA/
cG2E1wo0/4rxUAaAMOyxB18DyX9B8EAyoKLFhEz30sQQr7iVge5df3ZRYNOmfJWA
sPyI1+0sftKYB/2A1Z0pe/g9doG93bkEA+0AOdeFh3crJuxhFBJ3RY1XRSowKSgN
E662p9QgoncFRDidIDCthMaxeAiDTkv7W54j1YvSGR5WhZTbfzIKLk1BkWmbLJvD
A5CWITirmTQU4mpiIuFsNrrCiX57rj+NXUqPaPXwoI1hvAC1mW/gvESajw9kBw8M
g/9a4/mkkZZxCTwmaZin5JJJW4nbcBicdpRVAOyEsoTSzbAcabJmmQzNY7KRMmzi
rQIDAQABo4IBYzCCAV8wCQYDVR0TBAIwADAtBglghkgBhvhCAQ0EIBYeRWFzeS1S
U0EgR2VuZXJhdGVkIENlcnRpZmljYXRlMB0GA1UdDgQWBBS4VXxduxu0ROZiaU0u
Ne56H5fCnDCB4QYDVR0jBIHZMIHWgBQSzWAE0qCAnnDtxpm4eyzGUv0ZoaGBsqSB
rzCBrDELMAkGA1UEBhMCVVMxCzAJBgNVBAgTAk9IMREwDwYDVQQHEwhDb2x1bWJ1
czESMBAGA1UEChMJVmlraW5nVlBOMR0wGwYDVQQLExRNeU9yZ2FuaXphdGlvbmFs
VW5pdDEVMBMGA1UEAxMMVmlraW5nVlBOIENBMRAwDgYDVQQpEwdFYXN5UlNBMSEw
HwYJKoZIhvcNAQkBFhJtZUBteWhvc3QubXlkb21haW6CCQDPNYXugL8qPjATBgNV
HSUEDDAKBggrBgEFBQcDAjALBgNVHQ8EBAMCB4AwDQYJKoZIhvcNAQEEBQADggIB
AGNemEuL2kYrqWzxjmAj0qzudzEpfws7xs3X/CV9BKepolO+Hd70m4b5URXUTwfX
gC+tu0Nn7gCgF2LAwO/BmQB9v46NmSjvwaF8SSI0VmE14lDm8zbPGNCY2WddxohL
dW5yIkp8MME5uIIitJjm3jomukM7aQK9GObrybSr5/gIToyQ4aHsD31zwXtwkY7b
3hcloBAiK3dU3m3ppVDSWnh/vD79uSQ/m1arJxmAoPAx0S/6BCnpTXPucnQg+kMN
ilT9/Xgn8k1RP5oO9gKGmv/3NR1G9nzOQA8t/PTA2LBpzSeOVUzK7vhY0P1Wx7mc
Ll6BRV9j17o4E9Eip7i+RO0gIE41PrC98UfG0H31tpIK26jiIuznomB0Ybjlzjh0
D9LdyeQZf68DG12mNGWq0NLd3f04xGkRF0fHAkV43AZxVMCtBYWHRWJT+RMl67fS
lQRX5l6RSGPS8aEOvlbaqW2FqtAzoG9xg/oiztgJ9LLsDGHrBt13LKkuqwVQ2Rhj
x7rrWy8tuMiR67jLTni+2bsnXT7fnJ2XTF1WXBJ5tK0ca/7asBPYPhXFx+A1+Gd7
z0sPfkJEvhTRWLkTIpu5GkbDjNZnS2R8sL4locaBPvpnxy+reG7oplAUmB5dexjY
uE5y/c1Il0D2KRmvp23RsOb13UXC1N5G6Yk5MNKtFhLH
-----END CERTIFICATE-----
