Certificate:
    Data:
        Version: 3 (0x2)
        Serial Number: 11011 (0x2b03)
    Signature Algorithm: sha256WithRSAEncryption
        Issuer: C=US, ST=OH, L=Columbus, O=VikingVPN, OU=MyOrganizationalUnit, CN=VikingVPN CA/name=EasyRSA/emailAddress=me@myhost.mydomain
        Validity
            Not Before: May 25 13:49:55 2017 GMT
            Not After : May 23 13:49:55 2027 GMT
        Subject: CN=Client2660Certe70576
        Subject Public Key Info:
            Public Key Algorithm: rsaEncryption
                Public-Key: (4096 bit)
                Modulus:
                    00:a6:45:fe:c1:3d:39:ed:89:1c:ce:d0:d4:64:94:
                    74:03:e0:8b:79:0f:d2:5d:e2:33:34:70:b8:c9:10:
                    a5:51:ed:3e:76:5e:b9:8c:63:ca:cb:65:bb:b0:3e:
                    cc:d8:3f:91:f7:eb:ee:aa:37:db:fc:36:3b:d8:f0:
                    41:e6:96:be:e7:78:c9:f4:5c:34:11:88:e5:2b:6e:
                    bb:45:b7:01:95:27:45:c3:ff:7a:76:fe:38:b8:b9:
                    da:aa:42:21:27:a7:b7:c1:51:a0:66:5c:aa:0f:12:
                    a8:dc:ad:74:25:9e:f8:52:88:34:95:f1:03:ae:19:
                    0d:4b:91:77:61:b0:64:cb:fd:13:9e:86:90:4c:4e:
                    02:4e:6d:83:47:16:eb:92:fd:ad:7e:df:d0:8d:3c:
                    e3:04:a4:c0:5d:17:df:1b:ba:69:4d:ca:f3:a2:b0:
                    37:7e:92:80:47:27:c8:c7:1a:9a:51:f5:7a:37:98:
                    6c:42:67:84:95:75:d0:a9:98:7c:48:d3:5b:72:3a:
                    5d:09:95:20:8f:77:df:01:51:d6:98:04:dd:91:ab:
                    92:be:9c:95:3d:82:b8:90:59:12:0c:b7:b2:75:52:
                    ba:a5:4a:a9:f6:90:11:08:84:af:de:60:8c:3c:72:
                    ff:c6:cd:9a:08:c2:bd:22:ec:c4:69:b8:fb:f9:cd:
                    3a:36:38:b8:20:1a:d9:51:5f:46:d0:7c:45:5f:3e:
                    20:14:ad:83:7d:cb:16:ca:1a:42:ca:6d:3b:8f:7f:
                    91:9e:46:ef:3d:4b:0a:dd:e8:ac:54:62:31:1f:41:
                    4b:0b:ce:65:b0:78:be:e7:19:3a:50:12:b1:e7:fd:
                    fb:39:64:89:d0:e4:31:b8:86:3e:f7:03:1f:d0:da:
                    ec:4e:48:ac:87:56:8b:8e:18:c9:64:37:0e:74:6a:
                    eb:58:87:8d:c7:53:bd:8b:70:06:9a:05:51:15:43:
                    71:5e:97:6c:7d:a5:93:5a:a2:78:01:6c:28:71:f4:
                    7e:13:0b:fd:64:5d:b0:47:02:f8:5d:e4:23:75:07:
                    73:36:94:9a:f3:87:18:27:aa:d3:cb:8e:ab:aa:49:
                    3d:64:87:ab:9f:e0:11:a4:44:14:9a:40:da:44:08:
                    49:73:e9:15:49:9e:91:01:cf:42:27:cd:83:91:6e:
                    3b:e3:ff:41:4c:61:0b:92:bf:ca:33:b3:f9:ed:c4:
                    bf:52:da:24:6a:f6:ae:60:a6:7e:86:af:d2:6c:0e:
                    36:c4:a0:b1:7f:ba:50:25:e9:1c:cc:fb:5b:c8:fa:
                    39:66:62:e5:6e:8d:22:b1:52:27:ef:40:42:96:92:
                    7b:8c:10:6d:17:ba:79:f5:79:5b:d0:63:56:c4:4b:
                    79:f4:69
                Exponent: 65537 (0x10001)
        X509v3 extensions:
            X509v3 Basic Constraints: 
                CA:FALSE
            Netscape Comment: 
                Easy-RSA Generated Certificate
            X509v3 Subject Key Identifier: 
                A3:86:D3:21:F1:1B:60:8F:58:5B:7C:E8:DC:2F:66:BB:60:B1:67:88
            X509v3 Authority Key Identifier: 
                keyid:12:CD:60:04:D2:A0:80:9E:70:ED:C6:99:B8:7B:2C:C6:52:FD:19:A1
                DirName:/C=US/ST=OH/L=Columbus/O=VikingVPN/OU=MyOrganizationalUnit/CN=VikingVPN CA/name=EasyRSA/emailAddress=me@myhost.mydomain
                serial:CF:35:85:EE:80:BF:2A:3E

            X509v3 Extended Key Usage: 
                TLS Web Client Authentication
            X509v3 Key Usage: 
                Digital Signature
    Signature Algorithm: sha256WithRSAEncryption
         c2:ae:3f:00:a1:eb:e4:41:53:4d:8a:d7:5e:23:80:9a:f2:59:
         e4:de:70:64:ea:b1:85:bf:9b:76:4a:7e:d0:38:22:3f:d9:76:
         13:4b:79:f2:9a:d0:8e:4b:f2:04:cf:97:d8:e5:bc:98:1a:6f:
         97:b9:8d:20:5a:9e:82:03:13:9a:c8:09:96:cc:31:d0:74:b6:
         05:4b:d4:e6:36:1b:37:fe:74:e0:f2:de:1c:c0:be:2f:df:fa:
         05:77:30:93:b0:6d:5c:51:a2:a0:15:53:8f:71:61:a0:57:45:
         c9:f5:5c:0a:3e:44:57:2f:68:65:ad:17:78:d9:9d:82:01:32:
         4f:e0:10:1d:d6:e1:07:7a:99:03:a7:e9:08:00:26:f2:1e:d2:
         87:fa:e1:ac:48:ef:83:6f:27:2f:87:1a:bb:51:ef:42:12:d8:
         0f:c1:d7:3a:24:67:23:02:17:ee:3f:91:91:2a:87:81:60:47:
         64:f8:a9:1a:29:10:42:7d:c9:18:60:8d:8a:53:b9:b4:0c:5c:
         bc:26:63:0b:d4:c3:f2:62:a8:ef:a1:6c:e6:91:d8:60:1a:07:
         67:5b:2d:e7:f8:49:b4:b7:26:ea:6d:27:3f:e8:34:50:42:8a:
         e1:03:40:01:0f:b5:73:9c:aa:13:03:3b:11:c4:2b:64:dd:47:
         59:23:bd:5c:1b:c4:21:62:29:4b:88:92:25:25:60:3b:96:2f:
         5c:e6:90:08:ec:26:61:ab:f3:2e:a9:39:f9:f9:12:b5:b6:d0:
         66:1f:45:8d:f8:ba:c4:bc:5d:65:0f:2e:f3:0f:94:a8:ca:b2:
         14:cc:fe:f0:69:ad:41:54:95:00:bc:e2:08:29:c7:13:dd:56:
         d3:b2:73:4c:f1:ed:f5:c9:75:b7:7a:e5:2b:76:dc:bb:92:35:
         e9:70:7d:6a:aa:28:89:27:23:c3:c8:0a:91:cc:2b:fe:85:6c:
         e6:c3:ac:97:71:8d:e6:ed:15:1b:63:f6:69:d1:2b:3f:3f:eb:
         bf:76:26:7f:cd:b6:dc:88:c1:12:0b:28:9e:7e:09:10:04:8b:
         bc:56:a0:5d:25:1f:2b:a0:3d:2c:62:ad:9e:fb:56:8c:5c:61:
         16:41:d5:d0:0a:c3:f4:de:4c:65:e0:df:d3:cc:32:c2:43:db:
         4c:44:ac:98:b2:8d:20:7d:4f:01:c7:68:0d:31:6c:2e:d1:bd:
         c3:8c:68:57:94:3f:b2:71:7c:b9:cf:08:7a:0b:51:0c:78:c2:
         1f:b1:1b:e1:ab:d9:fc:a8:9b:a0:f5:e7:aa:66:a4:2b:9f:79:
         37:b4:a3:dc:ee:01:00:a3:91:6a:21:b5:74:28:b6:06:9e:35:
         c5:c5:0b:dc:65:be:60:de
-----BEGIN CERTIFICATE-----
MIIGrTCCBJWgAwIBAgICKwMwDQYJKoZIhvcNAQELBQAwgawxCzAJBgNVBAYTAlVT
MQswCQYDVQQIEwJPSDERMA8GA1UEBxMIQ29sdW1idXMxEjAQBgNVBAoTCVZpa2lu
Z1ZQTjEdMBsGA1UECxMUTXlPcmdhbml6YXRpb25hbFVuaXQxFTATBgNVBAMTDFZp
a2luZ1ZQTiBDQTEQMA4GA1UEKRMHRWFzeVJTQTEhMB8GCSqGSIb3DQEJARYSbWVA
bXlob3N0Lm15ZG9tYWluMB4XDTE3MDUyNTEzNDk1NVoXDTI3MDUyMzEzNDk1NVow
HzEdMBsGA1UEAxMUQ2xpZW50MjY2MENlcnRlNzA1NzYwggIiMA0GCSqGSIb3DQEB
AQUAA4ICDwAwggIKAoICAQCmRf7BPTntiRzO0NRklHQD4It5D9Jd4jM0cLjJEKVR
7T52XrmMY8rLZbuwPszYP5H36+6qN9v8NjvY8EHmlr7neMn0XDQRiOUrbrtFtwGV
J0XD/3p2/ji4udqqQiEnp7fBUaBmXKoPEqjcrXQlnvhSiDSV8QOuGQ1LkXdhsGTL
/ROehpBMTgJObYNHFuuS/a1+39CNPOMEpMBdF98bumlNyvOisDd+koBHJ8jHGppR
9Xo3mGxCZ4SVddCpmHxI01tyOl0JlSCPd98BUdaYBN2Rq5K+nJU9griQWRIMt7J1
UrqlSqn2kBEIhK/eYIw8cv/GzZoIwr0i7MRpuPv5zTo2OLggGtlRX0bQfEVfPiAU
rYN9yxbKGkLKbTuPf5GeRu89Swrd6KxUYjEfQUsLzmWweL7nGTpQErHn/fs5ZInQ
5DG4hj73Ax/Q2uxOSKyHVouOGMlkNw50autYh43HU72LcAaaBVEVQ3Fel2x9pZNa
ongBbChx9H4TC/1kXbBHAvhd5CN1B3M2lJrzhxgnqtPLjquqST1kh6uf4BGkRBSa
QNpECElz6RVJnpEBz0InzYORbjvj/0FMYQuSv8ozs/ntxL9S2iRq9q5gpn6Gr9Js
DjbEoLF/ulAl6RzM+1vI+jlmYuVujSKxUifvQEKWknuMEG0Xunn1eVvQY1bES3n0
aQIDAQABo4IBYzCCAV8wCQYDVR0TBAIwADAtBglghkgBhvhCAQ0EIBYeRWFzeS1S
U0EgR2VuZXJhdGVkIENlcnRpZmljYXRlMB0GA1UdDgQWBBSjhtMh8Rtgj1hbfOjc
L2a7YLFniDCB4QYDVR0jBIHZMIHWgBQSzWAE0qCAnnDtxpm4eyzGUv0ZoaGBsqSB
rzCBrDELMAkGA1UEBhMCVVMxCzAJBgNVBAgTAk9IMREwDwYDVQQHEwhDb2x1bWJ1
czESMBAGA1UEChMJVmlraW5nVlBOMR0wGwYDVQQLExRNeU9yZ2FuaXphdGlvbmFs
VW5pdDEVMBMGA1UEAxMMVmlraW5nVlBOIENBMRAwDgYDVQQpEwdFYXN5UlNBMSEw
HwYJKoZIhvcNAQkBFhJtZUBteWhvc3QubXlkb21haW6CCQDPNYXugL8qPjATBgNV
HSUEDDAKBggrBgEFBQcDAjALBgNVHQ8EBAMCB4AwDQYJKoZIhvcNAQELBQADggIB
AMKuPwCh6+RBU02K114jgJryWeTecGTqsYW/m3ZKftA4Ij/ZdhNLefKa0I5L8gTP
l9jlvJgab5e5jSBanoIDE5rICZbMMdB0tgVL1OY2Gzf+dODy3hzAvi/f+gV3MJOw
bVxRoqAVU49xYaBXRcn1XAo+RFcvaGWtF3jZnYIBMk/gEB3W4Qd6mQOn6QgAJvIe
0of64axI74NvJy+HGrtR70IS2A/B1zokZyMCF+4/kZEqh4FgR2T4qRopEEJ9yRhg
jYpTubQMXLwmYwvUw/JiqO+hbOaR2GAaB2dbLef4SbS3JuptJz/oNFBCiuEDQAEP
tXOcqhMDOxHEK2TdR1kjvVwbxCFiKUuIkiUlYDuWL1zmkAjsJmGr8y6pOfn5ErW2
0GYfRY34usS8XWUPLvMPlKjKshTM/vBprUFUlQC84ggpxxPdVtOyc0zx7fXJdbd6
5St23LuSNelwfWqqKIknI8PICpHMK/6FbObDrJdxjebtFRtj9mnRKz8/6792Jn/N
ttyIwRILKJ5+CRAEi7xWoF0lHyugPSxirZ77VoxcYRZB1dAKw/TeTGXg39PMMsJD
20xErJiyjSB9TwHHaA0xbC7RvcOMaFeUP7JxfLnPCHoLUQx4wh+xG+Gr2fyom6D1
56pmpCufeTe0o9zuAQCjkWohtXQotgaeNcXFC9xlvmDe
-----END CERTIFICATE-----
