Certificate:
    Data:
        Version: 3 (0x2)
        Serial Number: 6123 (0x17eb)
    Signature Algorithm: md5WithRSAEncryption
        Issuer: C=US, ST=OH, L=Columbus, O=VikingVPN, OU=MyOrganizationalUnit, CN=VikingVPN CA/name=EasyRSA/emailAddress=me@myhost.mydomain
        Validity
            Not Before: Aug 23 21:43:50 2015 GMT
            Not After : Aug 20 21:43:50 2025 GMT
        Subject: CN=Client1827Certfc3fb9
        Subject Public Key Info:
            Public Key Algorithm: rsaEncryption
                Public-Key: (4096 bit)
                Modulus:
                    00:b8:c9:f5:a0:55:1f:4d:ac:0a:ab:d5:d4:9f:32:
                    d3:7f:f4:43:ec:d9:26:fc:58:ef:4c:9d:4b:23:b5:
                    25:a3:2a:f2:91:19:b0:ae:cf:62:a4:c4:d2:c0:fc:
                    81:ba:80:e3:bf:42:62:f6:9d:1c:6f:ff:ef:fb:63:
                    62:b4:25:53:de:22:a0:73:0c:3f:8f:cc:d6:05:bd:
                    86:61:00:5a:69:1f:86:e3:13:b5:c5:47:c6:b4:45:
                    ce:e7:5e:83:ca:f9:11:f8:ee:27:63:7c:f9:f4:e9:
                    d2:a6:9f:1a:7d:b0:cb:45:92:14:45:41:e4:ab:0a:
                    70:2a:e0:c5:e9:72:a2:a7:c0:06:bc:c4:e9:74:47:
                    90:8b:22:06:4f:9a:75:3b:5e:93:f7:19:39:63:85:
                    4f:23:3e:d3:d7:ca:a5:58:34:b4:12:6d:72:69:55:
                    9d:ef:9e:3b:7d:fa:91:d5:b5:44:7d:c1:50:7b:79:
                    cd:db:0f:0a:c1:5c:bc:a1:41:62:1e:db:dc:c0:b6:
                    fa:4c:1e:9f:aa:51:06:d3:b2:5a:b6:f9:48:d3:72:
                    44:29:c1:42:bc:05:08:63:98:67:78:18:79:ca:c1:
                    ad:97:9f:7f:2a:90:47:30:8a:23:5d:94:99:f4:53:
                    87:f5:14:61:6b:73:f8:63:6a:e8:10:ef:f5:44:14:
                    85:cc:c8:22:3b:f2:3e:02:53:d6:94:42:5a:2f:f8:
                    82:69:53:b2:11:9c:ee:04:a7:13:d1:31:74:73:5b:
                    10:53:66:ae:f3:36:38:88:b1:2e:d8:4f:65:d8:65:
                    d4:91:0d:9b:09:c5:68:fd:2e:e4:d1:ad:64:e1:0c:
                    d6:41:c3:b6:22:9f:ab:48:0f:70:84:e5:d2:16:88:
                    07:b4:7c:49:6d:a3:b6:8b:e2:6e:c5:1e:a4:c9:82:
                    74:b7:3c:ad:24:7a:02:38:92:20:cb:77:d5:1c:e6:
                    f3:0c:9f:65:d7:35:f1:a0:17:ed:84:a2:58:ff:df:
                    c7:7a:46:c6:45:42:e5:90:48:4a:2a:de:dd:44:92:
                    3d:88:aa:5c:3e:6d:79:b1:09:a5:db:c7:04:0e:c0:
                    7e:61:9e:96:ad:1a:ae:bd:a4:c1:30:cc:f1:99:5a:
                    ca:5e:98:d6:4b:7c:ff:51:cf:f6:a8:ce:c3:dc:3b:
                    31:09:78:fe:cc:85:53:c6:ff:0d:cb:74:27:89:2d:
                    4d:68:9d:da:e7:88:17:75:df:2a:53:c2:16:92:56:
                    c0:0e:26:21:8b:d9:17:16:b9:c9:13:6c:c2:32:0a:
                    2e:7a:23:f5:33:16:e1:79:64:28:62:6a:bb:ab:37:
                    d8:ab:c2:33:27:24:7f:bf:6b:e3:b8:38:9d:cf:3b:
                    33:8c:fd
                Exponent: 65537 (0x10001)
        X509v3 extensions:
            X509v3 Basic Constraints: 
                CA:FALSE
            Netscape Comment: 
                Easy-RSA Generated Certificate
            X509v3 Subject Key Identifier: 
                A2:08:9E:22:3A:94:8D:29:FD:BA:B0:59:71:04:BE:78:35:06:85:2B
            X509v3 Authority Key Identifier: 
                keyid:12:CD:60:04:D2:A0:80:9E:70:ED:C6:99:B8:7B:2C:C6:52:FD:19:A1
                DirName:/C=US/ST=OH/L=Columbus/O=VikingVPN/OU=MyOrganizationalUnit/CN=VikingVPN CA/name=EasyRSA/emailAddress=me@myhost.mydomain
                serial:CF:35:85:EE:80:BF:2A:3E

            X509v3 Extended Key Usage: 
                TLS Web Client Authentication
            X509v3 Key Usage: 
                Digital Signature
    Signature Algorithm: md5WithRSAEncryption
         7b:b9:2b:4a:04:0b:42:63:8c:2e:cd:ec:01:59:3e:0a:a9:e7:
         68:f0:01:3b:47:66:cd:68:7a:5e:18:0a:80:84:05:8d:ba:22:
         13:14:af:e2:3d:b8:be:c8:dc:05:bf:60:58:1c:bc:60:8e:ce:
         e7:59:f0:d0:f8:93:99:d5:f4:37:7c:b7:70:ec:8e:ce:96:61:
         62:6b:8f:03:3e:bc:82:68:7f:c9:93:6e:bd:da:bf:9b:ff:2a:
         c9:c3:d0:37:23:e3:1b:f7:7e:54:01:80:3f:ff:d6:4c:e1:49:
         47:62:12:34:60:11:f4:b3:10:ab:f5:8e:d8:a7:48:b5:e4:0e:
         e6:8d:5d:da:a8:64:8b:b6:44:ff:bc:d7:ce:96:83:ed:74:c0:
         c4:8e:5d:3a:b1:62:a0:fb:64:4a:fb:07:15:85:29:21:85:a7:
         4b:c9:33:34:fb:9e:3d:32:eb:e8:f0:5e:b6:e6:c4:27:2f:a0:
         1b:35:22:d7:7c:f9:c4:76:e8:70:bf:79:c5:bc:6a:0b:52:26:
         e6:a8:2c:67:bb:19:14:d5:98:27:6f:1b:b2:d7:cb:a1:a0:1c:
         e9:2e:18:fa:19:06:ed:20:0b:c1:d2:fa:7b:fd:44:f5:0f:72:
         e0:de:4a:c0:40:3d:4d:c4:94:cb:65:14:46:67:9b:bd:1e:7d:
         10:e6:aa:1d:66:10:41:f6:a8:1d:e3:32:90:62:ac:b5:d6:4c:
         46:2f:11:a1:09:ba:4f:8f:aa:22:93:7f:08:02:cd:28:1e:26:
         ec:65:cf:db:c4:05:1f:cf:9e:51:01:93:ca:77:cf:0f:c9:a8:
         84:4e:cd:89:31:03:f4:2b:05:95:d9:7f:c0:a9:35:28:9f:87:
         e5:21:86:67:de:ee:0c:4c:27:3b:20:02:98:b8:e5:1b:1b:e6:
         6a:93:08:79:d5:fa:72:28:01:39:d5:f2:3d:52:1b:e5:b9:59:
         83:f4:b8:50:11:8e:c7:64:13:f8:c6:f6:e8:70:c8:ac:a3:fc:
         67:ce:ec:16:83:53:dd:be:5c:26:56:13:96:da:a6:ef:fd:83:
         e6:95:81:5d:e1:48:04:da:43:91:f1:ea:a3:37:fa:17:71:83:
         b3:3d:32:06:1d:aa:f9:7d:78:c7:f8:bb:04:3e:c4:3b:ce:c9:
         aa:35:74:b5:b1:ec:9a:97:d1:a4:a8:40:f3:c6:4d:64:79:c6:
         fc:87:68:f5:60:9a:25:b5:5c:ba:62:06:7f:41:34:61:f7:82:
         59:c8:91:9f:cb:02:70:68:04:19:95:d2:5c:9a:e6:6b:0c:b6:
         65:46:c3:9e:24:76:1a:45:19:14:59:29:1e:3c:8e:77:c0:35:
         52:7e:4a:ce:a6:27:9e:90
-----BEGIN CERTIFICATE-----
MIIGrTCCBJWgAwIBAgICF+swDQYJKoZIhvcNAQEEBQAwgawxCzAJBgNVBAYTAlVT
MQswCQYDVQQIEwJPSDERMA8GA1UEBxMIQ29sdW1idXMxEjAQBgNVBAoTCVZpa2lu
Z1ZQTjEdMBsGA1UECxMUTXlPcmdhbml6YXRpb25hbFVuaXQxFTATBgNVBAMTDFZp
a2luZ1ZQTiBDQTEQMA4GA1UEKRMHRWFzeVJTQTEhMB8GCSqGSIb3DQEJARYSbWVA
bXlob3N0Lm15ZG9tYWluMB4XDTE1MDgyMzIxNDM1MFoXDTI1MDgyMDIxNDM1MFow
HzEdMBsGA1UEAxMUQ2xpZW50MTgyN0NlcnRmYzNmYjkwggIiMA0GCSqGSIb3DQEB
AQUAA4ICDwAwggIKAoICAQC4yfWgVR9NrAqr1dSfMtN/9EPs2Sb8WO9MnUsjtSWj
KvKRGbCuz2KkxNLA/IG6gOO/QmL2nRxv/+/7Y2K0JVPeIqBzDD+PzNYFvYZhAFpp
H4bjE7XFR8a0Rc7nXoPK+RH47idjfPn06dKmnxp9sMtFkhRFQeSrCnAq4MXpcqKn
wAa8xOl0R5CLIgZPmnU7XpP3GTljhU8jPtPXyqVYNLQSbXJpVZ3vnjt9+pHVtUR9
wVB7ec3bDwrBXLyhQWIe29zAtvpMHp+qUQbTslq2+UjTckQpwUK8BQhjmGd4GHnK
wa2Xn38qkEcwiiNdlJn0U4f1FGFrc/hjaugQ7/VEFIXMyCI78j4CU9aUQlov+IJp
U7IRnO4EpxPRMXRzWxBTZq7zNjiIsS7YT2XYZdSRDZsJxWj9LuTRrWThDNZBw7Yi
n6tID3CE5dIWiAe0fElto7aL4m7FHqTJgnS3PK0kegI4kiDLd9Uc5vMMn2XXNfGg
F+2Eolj/38d6RsZFQuWQSEoq3t1Ekj2Iqlw+bXmxCaXbxwQOwH5hnpatGq69pMEw
zPGZWspemNZLfP9Rz/aozsPcOzEJeP7MhVPG/w3LdCeJLU1ondrniBd13ypTwhaS
VsAOJiGL2RcWuckTbMIyCi56I/UzFuF5ZChiarurN9irwjMnJH+/a+O4OJ3POzOM
/QIDAQABo4IBYzCCAV8wCQYDVR0TBAIwADAtBglghkgBhvhCAQ0EIBYeRWFzeS1S
U0EgR2VuZXJhdGVkIENlcnRpZmljYXRlMB0GA1UdDgQWBBSiCJ4iOpSNKf26sFlx
BL54NQaFKzCB4QYDVR0jBIHZMIHWgBQSzWAE0qCAnnDtxpm4eyzGUv0ZoaGBsqSB
rzCBrDELMAkGA1UEBhMCVVMxCzAJBgNVBAgTAk9IMREwDwYDVQQHEwhDb2x1bWJ1
czESMBAGA1UEChMJVmlraW5nVlBOMR0wGwYDVQQLExRNeU9yZ2FuaXphdGlvbmFs
VW5pdDEVMBMGA1UEAxMMVmlraW5nVlBOIENBMRAwDgYDVQQpEwdFYXN5UlNBMSEw
HwYJKoZIhvcNAQkBFhJtZUBteWhvc3QubXlkb21haW6CCQDPNYXugL8qPjATBgNV
HSUEDDAKBggrBgEFBQcDAjALBgNVHQ8EBAMCB4AwDQYJKoZIhvcNAQEEBQADggIB
AHu5K0oEC0JjjC7N7AFZPgqp52jwATtHZs1oel4YCoCEBY26IhMUr+I9uL7I3AW/
YFgcvGCOzudZ8ND4k5nV9Dd8t3Dsjs6WYWJrjwM+vIJof8mTbr3av5v/KsnD0Dcj
4xv3flQBgD//1kzhSUdiEjRgEfSzEKv1jtinSLXkDuaNXdqoZIu2RP+8186Wg+10
wMSOXTqxYqD7ZEr7BxWFKSGFp0vJMzT7nj0y6+jwXrbmxCcvoBs1Itd8+cR26HC/
ecW8agtSJuaoLGe7GRTVmCdvG7LXy6GgHOkuGPoZBu0gC8HS+nv9RPUPcuDeSsBA
PU3ElMtlFEZnm70efRDmqh1mEEH2qB3jMpBirLXWTEYvEaEJuk+PqiKTfwgCzSge
Juxlz9vEBR/PnlEBk8p3zw/JqIROzYkxA/QrBZXZf8CpNSifh+Uhhmfe7gxMJzsg
Api45Rsb5mqTCHnV+nIoATnV8j1SG+W5WYP0uFARjsdkE/jG9uhwyKyj/GfO7BaD
U92+XCZWE5bapu/9g+aVgV3hSATaQ5Hx6qM3+hdxg7M9MgYdqvl9eMf4uwQ+xDvO
yao1dLWx7JqX0aSoQPPGTWR5xvyHaPVgmiW1XLpiBn9BNGH3glnIkZ/LAnBoBBmV
0lya5msMtmVGw54kdhpFGRRZKR48jnfANVJ+Ss6mJ56Q
-----END CERTIFICATE-----
