Certificate:
    Data:
        Version: 3 (0x2)
        Serial Number: 6641 (0x19f1)
    Signature Algorithm: md5WithRSAEncryption
        Issuer: C=US, ST=OH, L=Columbus, O=VikingVPN, OU=MyOrganizationalUnit, CN=VikingVPN CA/name=EasyRSA/emailAddress=me@myhost.mydomain
        Validity
            Not Before: Nov  6 08:18:18 2015 GMT
            Not After : Nov  3 08:18:18 2025 GMT
        Subject: CN=Client2039Cert306a38
        Subject Public Key Info:
            Public Key Algorithm: rsaEncryption
                Public-Key: (4096 bit)
                Modulus:
                    00:9b:19:ce:2c:67:90:0b:1c:25:08:a9:d5:94:d2:
                    32:bf:eb:35:98:ca:d1:93:23:24:55:e1:2a:14:47:
                    3d:56:bb:38:11:91:41:dc:d0:f1:6d:7d:8e:0a:97:
                    fd:4d:9f:28:a4:7a:ef:45:f5:6d:9d:60:42:61:8c:
                    c6:0b:7f:d6:00:d8:c3:60:38:7f:93:5f:ff:62:4f:
                    e7:71:95:3d:e3:83:b2:c9:ec:a6:cb:32:13:97:ea:
                    6a:3a:18:c2:8b:0e:fe:6e:de:7f:78:c1:60:58:24:
                    17:bf:4e:a0:9e:76:1c:0d:bc:5c:47:98:94:35:ad:
                    b6:1e:0c:69:61:de:53:d2:71:3b:11:27:e2:68:8a:
                    47:24:cc:a4:6e:ef:c6:34:38:34:a4:da:10:a7:7a:
                    94:26:06:83:3a:ba:99:20:f1:b2:2e:4f:a7:6c:a3:
                    c1:eb:9e:f6:26:8d:d9:03:b7:bb:aa:e0:b5:04:bf:
                    1f:40:25:65:d7:58:4e:ed:1a:c8:d5:91:11:8a:7e:
                    66:74:3d:93:6c:72:e3:85:dd:2a:54:b6:70:6f:7a:
                    3f:ad:1d:b4:f0:88:30:44:46:1c:45:bc:c6:d1:64:
                    fe:d1:2b:5f:d4:74:2f:89:c3:46:62:c8:8b:b3:bd:
                    ee:a8:9b:3e:10:4d:38:1c:75:e8:38:41:ce:b9:23:
                    18:13:a7:4f:47:41:6c:56:25:6f:0a:65:c2:2e:b5:
                    b8:f7:ff:c3:e0:35:e7:f8:17:b2:dd:11:22:65:72:
                    ba:d0:08:6e:47:ae:da:d7:86:2e:d4:0c:7e:cf:52:
                    15:79:ef:3d:5b:33:6f:6c:93:6b:31:9c:84:16:28:
                    ce:3d:ca:e6:60:6a:a3:b1:c2:90:56:36:1e:93:1c:
                    de:e8:bd:24:0e:9a:19:65:22:c2:19:77:6a:83:c6:
                    b8:3c:66:ce:e5:19:9a:6a:9a:09:47:fe:f4:1f:72:
                    8f:1f:38:5b:72:2a:d4:40:f7:19:18:6d:84:79:d3:
                    54:5e:d7:04:39:1f:29:9a:b2:f1:8a:d5:df:a1:db:
                    3b:13:6d:9a:f3:71:79:84:f5:80:a2:b0:90:10:07:
                    d5:a3:be:7d:fe:6d:fd:2b:f2:a9:45:55:aa:0c:95:
                    b4:83:83:92:62:69:cb:ac:69:e9:6b:bc:9a:61:61:
                    ee:5c:8b:6f:c7:1d:67:96:24:67:28:24:db:d1:da:
                    7e:e1:c9:10:e8:14:e3:3c:b2:31:f0:44:80:be:db:
                    0b:23:93:59:43:d7:87:48:9c:5e:f8:0f:83:0e:29:
                    ec:34:03:e0:60:be:7e:ce:7c:3b:69:40:a6:8d:09:
                    41:27:61:ae:cc:91:3c:0b:1c:17:e4:a3:85:d8:15:
                    66:1c:a3
                Exponent: 65537 (0x10001)
        X509v3 extensions:
            X509v3 Basic Constraints: 
                CA:FALSE
            Netscape Comment: 
                Easy-RSA Generated Certificate
            X509v3 Subject Key Identifier: 
                2C:FE:0E:CB:5F:AE:B4:76:24:55:A8:37:4C:F5:22:6A:7B:DB:51:35
            X509v3 Authority Key Identifier: 
                keyid:12:CD:60:04:D2:A0:80:9E:70:ED:C6:99:B8:7B:2C:C6:52:FD:19:A1
                DirName:/C=US/ST=OH/L=Columbus/O=VikingVPN/OU=MyOrganizationalUnit/CN=VikingVPN CA/name=EasyRSA/emailAddress=me@myhost.mydomain
                serial:CF:35:85:EE:80:BF:2A:3E

            X509v3 Extended Key Usage: 
                TLS Web Client Authentication
            X509v3 Key Usage: 
                Digital Signature
    Signature Algorithm: md5WithRSAEncryption
         e8:18:14:4c:68:19:23:e1:80:12:3f:3c:5c:8a:3d:d4:c8:3f:
         50:52:2d:53:d0:72:26:69:36:43:a9:b9:c0:41:f1:fe:55:8a:
         b9:71:65:da:90:b3:45:00:50:3c:9e:4e:f7:bc:1f:61:3a:83:
         a3:81:01:e4:d3:28:c3:7a:4f:d3:7f:8e:86:b0:05:fe:73:f9:
         df:cb:35:ef:16:1c:c1:e9:9e:e5:d2:a2:88:2d:ac:f6:ed:9f:
         83:40:6e:68:64:a3:9e:da:1c:8b:dc:2a:d1:14:d9:c4:53:14:
         a9:c3:88:2c:d7:47:15:eb:b9:8a:fe:96:c0:b8:35:da:fb:31:
         90:1e:b4:a0:d4:28:1d:ed:3c:70:0c:a7:aa:0e:1f:d6:3d:b3:
         d9:0a:c4:a7:44:72:64:f9:90:bb:99:1a:dd:5e:7e:c5:df:ff:
         d7:38:a3:5d:24:d3:fc:fc:52:ac:96:19:1c:d6:55:b4:d2:ef:
         69:30:6d:c5:61:3a:2c:0c:b8:af:c4:75:49:5d:01:d2:3e:9c:
         45:33:fc:84:d5:a2:ff:fb:ac:8e:fb:6f:f8:21:53:54:58:85:
         0a:5f:e9:0f:d3:4c:3f:4f:66:24:43:64:ce:32:3e:64:aa:e8:
         29:f0:85:fa:ba:16:70:24:99:ae:63:0a:89:67:fd:0e:b8:9d:
         00:2d:18:d6:38:96:5a:60:45:86:29:bf:6f:92:da:d5:19:6e:
         bc:22:33:f3:5d:76:47:aa:77:98:39:56:a5:ef:ae:e6:c4:a5:
         b4:75:23:c3:64:e4:a5:0b:e7:67:4c:1e:c9:a2:42:57:41:1e:
         40:5b:b1:82:a6:c2:d6:bb:4a:e2:5a:fd:30:46:d4:7e:0e:eb:
         b7:d2:e5:4e:0e:33:d2:5e:96:67:a9:c5:02:6a:51:5f:29:be:
         42:be:59:96:d7:c1:0d:a6:c3:41:82:78:28:bd:1c:b3:02:b2:
         f4:a7:21:b6:be:ec:a7:f5:50:c6:23:0a:87:a1:8f:7a:c3:91:
         36:6d:1c:ad:e2:f7:97:74:83:bb:40:2e:d3:a6:2a:d3:0d:0e:
         07:12:da:a5:4f:b8:00:50:34:59:0f:8b:ac:70:7d:19:33:4a:
         f0:7a:40:3c:6c:a5:25:86:a2:94:49:c3:e2:55:ac:0a:14:f5:
         a9:86:5f:d9:15:97:ff:f2:05:68:5e:33:e7:dd:90:41:a8:fb:
         4e:e1:16:a2:52:e0:68:55:e5:91:8c:b2:43:79:e0:42:3d:65:
         f7:73:5e:df:7b:b0:5e:e6:ac:43:75:7c:e3:27:8c:12:d6:ef:
         6e:e6:48:57:4a:84:ac:97:04:f6:5a:a3:79:fb:6e:0f:1b:07:
         c6:5b:76:e0:bb:43:9c:53
-----BEGIN CERTIFICATE-----
MIIGrTCCBJWgAwIBAgICGfEwDQYJKoZIhvcNAQEEBQAwgawxCzAJBgNVBAYTAlVT
MQswCQYDVQQIEwJPSDERMA8GA1UEBxMIQ29sdW1idXMxEjAQBgNVBAoTCVZpa2lu
Z1ZQTjEdMBsGA1UECxMUTXlPcmdhbml6YXRpb25hbFVuaXQxFTATBgNVBAMTDFZp
a2luZ1ZQTiBDQTEQMA4GA1UEKRMHRWFzeVJTQTEhMB8GCSqGSIb3DQEJARYSbWVA
bXlob3N0Lm15ZG9tYWluMB4XDTE1MTEwNjA4MTgxOFoXDTI1MTEwMzA4MTgxOFow
HzEdMBsGA1UEAxMUQ2xpZW50MjAzOUNlcnQzMDZhMzgwggIiMA0GCSqGSIb3DQEB
AQUAA4ICDwAwggIKAoICAQCbGc4sZ5ALHCUIqdWU0jK/6zWYytGTIyRV4SoURz1W
uzgRkUHc0PFtfY4Kl/1Nnyikeu9F9W2dYEJhjMYLf9YA2MNgOH+TX/9iT+dxlT3j
g7LJ7KbLMhOX6mo6GMKLDv5u3n94wWBYJBe/TqCedhwNvFxHmJQ1rbYeDGlh3lPS
cTsRJ+JoikckzKRu78Y0ODSk2hCnepQmBoM6upkg8bIuT6dso8HrnvYmjdkDt7uq
4LUEvx9AJWXXWE7tGsjVkRGKfmZ0PZNscuOF3SpUtnBvej+tHbTwiDBERhxFvMbR
ZP7RK1/UdC+Jw0ZiyIuzve6omz4QTTgcdeg4Qc65IxgTp09HQWxWJW8KZcIutbj3
/8PgNef4F7LdESJlcrrQCG5HrtrXhi7UDH7PUhV57z1bM29sk2sxnIQWKM49yuZg
aqOxwpBWNh6THN7ovSQOmhllIsIZd2qDxrg8Zs7lGZpqmglH/vQfco8fOFtyKtRA
9xkYbYR501Re1wQ5HymasvGK1d+h2zsTbZrzcXmE9YCisJAQB9Wjvn3+bf0r8qlF
VaoMlbSDg5JiacusaelrvJphYe5ci2/HHWeWJGcoJNvR2n7hyRDoFOM8sjHwRIC+
2wsjk1lD14dInF74D4MOKew0A+Bgvn7OfDtpQKaNCUEnYa7MkTwLHBfko4XYFWYc
owIDAQABo4IBYzCCAV8wCQYDVR0TBAIwADAtBglghkgBhvhCAQ0EIBYeRWFzeS1S
U0EgR2VuZXJhdGVkIENlcnRpZmljYXRlMB0GA1UdDgQWBBQs/g7LX660diRVqDdM
9SJqe9tRNTCB4QYDVR0jBIHZMIHWgBQSzWAE0qCAnnDtxpm4eyzGUv0ZoaGBsqSB
rzCBrDELMAkGA1UEBhMCVVMxCzAJBgNVBAgTAk9IMREwDwYDVQQHEwhDb2x1bWJ1
czESMBAGA1UEChMJVmlraW5nVlBOMR0wGwYDVQQLExRNeU9yZ2FuaXphdGlvbmFs
VW5pdDEVMBMGA1UEAxMMVmlraW5nVlBOIENBMRAwDgYDVQQpEwdFYXN5UlNBMSEw
HwYJKoZIhvcNAQkBFhJtZUBteWhvc3QubXlkb21haW6CCQDPNYXugL8qPjATBgNV
HSUEDDAKBggrBgEFBQcDAjALBgNVHQ8EBAMCB4AwDQYJKoZIhvcNAQEEBQADggIB
AOgYFExoGSPhgBI/PFyKPdTIP1BSLVPQciZpNkOpucBB8f5VirlxZdqQs0UAUDye
Tve8H2E6g6OBAeTTKMN6T9N/joawBf5z+d/LNe8WHMHpnuXSoogtrPbtn4NAbmhk
o57aHIvcKtEU2cRTFKnDiCzXRxXruYr+lsC4Ndr7MZAetKDUKB3tPHAMp6oOH9Y9
s9kKxKdEcmT5kLuZGt1efsXf/9c4o10k0/z8UqyWGRzWVbTS72kwbcVhOiwMuK/E
dUldAdI+nEUz/ITVov/7rI77b/ghU1RYhQpf6Q/TTD9PZiRDZM4yPmSq6Cnwhfq6
FnAkma5jColn/Q64nQAtGNY4llpgRYYpv2+S2tUZbrwiM/Nddkeqd5g5VqXvrubE
pbR1I8Nk5KUL52dMHsmiQldBHkBbsYKmwta7SuJa/TBG1H4O67fS5U4OM9Jelmep
xQJqUV8pvkK+WZbXwQ2mw0GCeCi9HLMCsvSnIba+7Kf1UMYjCoehj3rDkTZtHK3i
95d0g7tALtOmKtMNDgcS2qVPuABQNFkPi6xwfRkzSvB6QDxspSWGopRJw+JVrAoU
9amGX9kVl//yBWheM+fdkEGo+07hFqJS4GhV5ZGMskN54EI9ZfdzXt97sF7mrEN1
fOMnjBLW727mSFdKhKyXBPZao3n7bg8bB8ZbduC7Q5xT
-----END CERTIFICATE-----
