Certificate:
    Data:
        Version: 3 (0x2)
        Serial Number: 12771 (0x31e3)
    Signature Algorithm: sha256WithRSAEncryption
        Issuer: C=US, ST=OH, L=Columbus, O=VikingVPN, OU=MyOrganizationalUnit, CN=VikingVPN CA/name=EasyRSA/emailAddress=me@myhost.mydomain
        Validity
            Not Before: Mar 20 18:15:41 2018 GMT
            Not After : Mar 17 18:15:41 2028 GMT
        Subject: CN=Client3096Cert8b34ab
        Subject Public Key Info:
            Public Key Algorithm: rsaEncryption
                Public-Key: (4096 bit)
                Modulus:
                    00:c2:f1:c3:cb:fc:3f:d3:ed:84:05:1c:de:3b:5a:
                    20:04:47:63:01:5c:99:c3:fc:ee:b7:5d:49:7e:a8:
                    da:55:69:dc:b5:c2:7a:57:fe:1b:5b:a2:2c:c2:db:
                    3c:54:19:42:77:f6:cb:2d:bc:14:f4:42:eb:cb:b9:
                    94:38:d1:dc:19:41:31:1e:98:f2:9a:20:ee:f6:ef:
                    17:d6:d9:6d:07:7d:1c:01:bb:ea:1c:44:33:70:6c:
                    42:2c:72:ce:20:8b:98:9a:94:81:b9:2a:fe:3e:09:
                    4b:89:8a:af:9e:44:f0:15:49:13:94:ec:04:fb:bc:
                    7a:30:c1:52:2f:56:c5:90:68:01:20:85:72:45:94:
                    ce:ad:72:25:2d:00:65:93:08:38:08:3e:a6:f6:f7:
                    d3:df:c0:40:a6:a0:6e:b1:75:ec:0e:a9:e6:f5:ba:
                    ea:da:c3:0e:e0:24:d5:5d:13:d4:91:96:05:14:4d:
                    6f:9e:c6:df:6c:91:27:32:65:39:c2:1b:b1:5a:61:
                    2e:75:69:3e:13:17:c3:58:81:12:ff:63:a7:8c:3e:
                    24:78:28:c5:74:65:8f:b8:af:0b:d3:bf:b4:1c:72:
                    6b:3b:9e:dd:37:12:01:46:da:ca:da:b1:36:eb:c5:
                    3b:12:1b:50:d3:67:6f:c9:94:b9:f4:f4:58:82:4e:
                    4b:6d:27:b4:d4:b3:53:a6:f5:c4:55:d1:eb:6d:24:
                    5e:f0:8e:39:96:39:2d:23:eb:0d:e2:21:a5:c6:6c:
                    ce:de:4e:6c:aa:04:53:86:55:0f:aa:07:2d:9b:66:
                    47:21:7b:e4:99:9c:c2:32:49:07:17:32:e8:e6:66:
                    80:7e:17:44:72:1c:ff:1c:ba:0f:42:bf:31:d7:84:
                    ea:70:39:55:45:6f:9f:8e:4a:ec:3b:6a:92:84:9a:
                    12:5a:8b:bf:cd:d5:f8:f0:08:13:3f:bf:73:55:17:
                    c6:b0:b9:d0:87:ae:e4:05:db:c7:fd:b6:d4:bc:50:
                    14:91:39:df:03:15:20:18:ae:43:ff:7a:03:10:66:
                    26:86:5c:46:86:13:2e:53:fc:9c:8c:72:f4:9f:e8:
                    cb:1d:b3:d5:f6:c0:2a:df:82:6d:15:39:b0:3b:e4:
                    ea:53:bd:f1:14:c3:8a:7b:46:2a:dd:d5:9f:ff:e0:
                    a4:17:97:39:fe:11:c4:6f:8a:c6:11:f0:e1:67:49:
                    2d:2f:17:38:79:26:48:ec:9d:80:bc:fa:fb:c7:d0:
                    6d:28:db:a3:80:29:78:0b:00:dc:cc:8e:c6:a9:ee:
                    74:5f:42:23:5f:48:8e:c7:71:21:d6:81:29:1d:8b:
                    4d:5f:35:94:e0:8c:42:b4:db:36:1b:3a:33:e6:85:
                    55:cc:8f
                Exponent: 65537 (0x10001)
        X509v3 extensions:
            X509v3 Basic Constraints: 
                CA:FALSE
            Netscape Comment: 
                Easy-RSA Generated Certificate
            X509v3 Subject Key Identifier: 
                0A:A9:04:CE:5E:DE:AB:22:1D:50:BF:25:5E:84:E7:0B:3E:72:84:0E
            X509v3 Authority Key Identifier: 
                keyid:12:CD:60:04:D2:A0:80:9E:70:ED:C6:99:B8:7B:2C:C6:52:FD:19:A1
                DirName:/C=US/ST=OH/L=Columbus/O=VikingVPN/OU=MyOrganizationalUnit/CN=VikingVPN CA/name=EasyRSA/emailAddress=me@myhost.mydomain
                serial:CF:35:85:EE:80:BF:2A:3E

            X509v3 Extended Key Usage: 
                TLS Web Client Authentication
            X509v3 Key Usage: 
                Digital Signature
    Signature Algorithm: sha256WithRSAEncryption
         50:39:ad:8b:6f:f0:39:4f:9c:58:fd:90:ef:d5:79:6a:af:09:
         f6:78:66:8d:8a:d2:27:6f:01:df:8f:1d:ee:51:9a:43:59:b9:
         85:7a:f8:18:bb:64:01:3f:b9:8d:52:d0:6d:4f:09:a3:e3:51:
         94:cf:8e:e3:95:24:46:aa:4d:f6:60:f5:76:7f:4c:27:10:4f:
         d2:0b:88:21:37:65:95:91:7c:66:87:20:e1:49:69:74:2a:44:
         45:1f:ff:0f:aa:b4:8f:21:ba:ed:03:43:3a:6e:73:e0:37:ca:
         6e:89:42:10:23:45:11:8a:e8:1f:d2:6a:bd:e3:2a:3d:33:7f:
         62:9d:72:91:5c:60:e9:ab:2c:5b:51:6d:19:2b:d5:6e:52:0d:
         80:fe:fa:c8:1b:98:cd:8b:67:64:f4:bb:13:29:7c:d8:d7:03:
         03:69:38:b4:bf:22:a9:1c:ab:47:1d:77:f0:86:c2:49:80:b8:
         16:52:11:54:d4:56:f3:6b:8e:d7:5f:6d:8a:59:88:e5:ac:76:
         20:7b:ac:b4:98:5b:a7:76:11:db:18:b1:81:d0:a1:82:8f:ff:
         c8:57:98:1e:3c:af:4c:a0:71:ab:0a:14:a1:a1:77:82:a1:91:
         1d:7f:7b:51:ee:23:ce:88:f9:c5:d0:84:8d:6f:39:36:a7:66:
         f1:ca:63:88:48:57:a3:4e:95:75:ff:f9:4f:41:db:33:93:09:
         eb:78:36:2e:15:25:06:51:0a:49:65:dd:c6:51:c3:76:db:61:
         2d:e5:e2:3e:e1:09:9f:c6:bc:37:9a:a1:1c:98:dd:95:0f:d4:
         e9:b4:0b:db:08:61:00:21:9c:fb:2c:42:6c:ed:52:00:26:69:
         36:c0:71:28:95:ba:5c:cd:f2:8d:4e:c4:c0:26:09:18:64:c3:
         64:1b:cd:04:4c:25:0b:08:83:17:01:b7:66:f6:3a:62:64:b2:
         29:7f:21:be:9d:6f:5f:b4:59:ae:4b:84:c8:1d:f2:25:0a:1f:
         74:62:b3:47:c8:ad:b0:1a:47:40:29:14:c3:8b:8a:16:14:69:
         61:05:0f:9d:8b:f7:b0:7d:2d:11:b4:5e:db:a2:46:db:be:5e:
         d4:17:77:4e:a1:15:1b:cf:73:59:b9:97:4b:f6:c5:4d:70:d1:
         dc:c6:c1:88:89:af:24:9b:2d:0b:d5:6f:07:f9:ce:f3:63:a8:
         9c:a3:27:81:c8:c5:2a:e3:5f:5c:05:8f:46:9f:d5:62:c4:e1:
         76:1f:de:2e:41:cd:d9:b7:50:83:26:6d:3e:5c:7e:14:8e:7e:
         6a:53:e2:f2:53:b9:79:8a:53:3c:10:01:c2:e5:6b:6b:12:e8:
         6f:53:c5:76:e6:fd:d5:24
-----BEGIN CERTIFICATE-----
MIIGrTCCBJWgAwIBAgICMeMwDQYJKoZIhvcNAQELBQAwgawxCzAJBgNVBAYTAlVT
MQswCQYDVQQIEwJPSDERMA8GA1UEBxMIQ29sdW1idXMxEjAQBgNVBAoTCVZpa2lu
Z1ZQTjEdMBsGA1UECxMUTXlPcmdhbml6YXRpb25hbFVuaXQxFTATBgNVBAMTDFZp
a2luZ1ZQTiBDQTEQMA4GA1UEKRMHRWFzeVJTQTEhMB8GCSqGSIb3DQEJARYSbWVA
bXlob3N0Lm15ZG9tYWluMB4XDTE4MDMyMDE4MTU0MVoXDTI4MDMxNzE4MTU0MVow
HzEdMBsGA1UEAxMUQ2xpZW50MzA5NkNlcnQ4YjM0YWIwggIiMA0GCSqGSIb3DQEB
AQUAA4ICDwAwggIKAoICAQDC8cPL/D/T7YQFHN47WiAER2MBXJnD/O63XUl+qNpV
ady1wnpX/htboizC2zxUGUJ39sstvBT0QuvLuZQ40dwZQTEemPKaIO727xfW2W0H
fRwBu+ocRDNwbEIscs4gi5ialIG5Kv4+CUuJiq+eRPAVSROU7AT7vHowwVIvVsWQ
aAEghXJFlM6tciUtAGWTCDgIPqb299PfwECmoG6xdewOqeb1uuraww7gJNVdE9SR
lgUUTW+ext9skScyZTnCG7FaYS51aT4TF8NYgRL/Y6eMPiR4KMV0ZY+4rwvTv7Qc
cms7nt03EgFG2srasTbrxTsSG1DTZ2/JlLn09FiCTkttJ7TUs1Om9cRV0ettJF7w
jjmWOS0j6w3iIaXGbM7eTmyqBFOGVQ+qBy2bZkche+SZnMIySQcXMujmZoB+F0Ry
HP8cug9CvzHXhOpwOVVFb5+OSuw7apKEmhJai7/N1fjwCBM/v3NVF8awudCHruQF
28f9ttS8UBSROd8DFSAYrkP/egMQZiaGXEaGEy5T/JyMcvSf6Msds9X2wCrfgm0V
ObA75OpTvfEUw4p7Rird1Z//4KQXlzn+EcRvisYR8OFnSS0vFzh5JkjsnYC8+vvH
0G0o26OAKXgLANzMjsap7nRfQiNfSI7HcSHWgSkdi01fNZTgjEK02zYbOjPmhVXM
jwIDAQABo4IBYzCCAV8wCQYDVR0TBAIwADAtBglghkgBhvhCAQ0EIBYeRWFzeS1S
U0EgR2VuZXJhdGVkIENlcnRpZmljYXRlMB0GA1UdDgQWBBQKqQTOXt6rIh1QvyVe
hOcLPnKEDjCB4QYDVR0jBIHZMIHWgBQSzWAE0qCAnnDtxpm4eyzGUv0ZoaGBsqSB
rzCBrDELMAkGA1UEBhMCVVMxCzAJBgNVBAgTAk9IMREwDwYDVQQHEwhDb2x1bWJ1
czESMBAGA1UEChMJVmlraW5nVlBOMR0wGwYDVQQLExRNeU9yZ2FuaXphdGlvbmFs
VW5pdDEVMBMGA1UEAxMMVmlraW5nVlBOIENBMRAwDgYDVQQpEwdFYXN5UlNBMSEw
HwYJKoZIhvcNAQkBFhJtZUBteWhvc3QubXlkb21haW6CCQDPNYXugL8qPjATBgNV
HSUEDDAKBggrBgEFBQcDAjALBgNVHQ8EBAMCB4AwDQYJKoZIhvcNAQELBQADggIB
AFA5rYtv8DlPnFj9kO/VeWqvCfZ4Zo2K0idvAd+PHe5RmkNZuYV6+Bi7ZAE/uY1S
0G1PCaPjUZTPjuOVJEaqTfZg9XZ/TCcQT9ILiCE3ZZWRfGaHIOFJaXQqREUf/w+q
tI8huu0DQzpuc+A3ym6JQhAjRRGK6B/Sar3jKj0zf2KdcpFcYOmrLFtRbRkr1W5S
DYD++sgbmM2LZ2T0uxMpfNjXAwNpOLS/Iqkcq0cdd/CGwkmAuBZSEVTUVvNrjtdf
bYpZiOWsdiB7rLSYW6d2EdsYsYHQoYKP/8hXmB48r0ygcasKFKGhd4KhkR1/e1Hu
I86I+cXQhI1vOTanZvHKY4hIV6NOlXX/+U9B2zOTCet4Ni4VJQZRCkll3cZRw3bb
YS3l4j7hCZ/GvDeaoRyY3ZUP1Om0C9sIYQAhnPssQmztUgAmaTbAcSiVulzN8o1O
xMAmCRhkw2QbzQRMJQsIgxcBt2b2OmJksil/Ib6db1+0Wa5LhMgd8iUKH3Ris0fI
rbAaR0ApFMOLihYUaWEFD52L97B9LRG0XtuiRtu+XtQXd06hFRvPc1m5l0v2xU1w
0dzGwYiJrySbLQvVbwf5zvNjqJyjJ4HIxSrjX1wFj0af1WLE4XYf3i5Bzdm3UIMm
bT5cfhSOfmpT4vJTuXmKUzwQAcLla2sS6G9TxXbm/dUk
-----END CERTIFICATE-----
