Certificate:
    Data:
        Version: 3 (0x2)
        Serial Number: 8599 (0x2197)
    Signature Algorithm: sha256WithRSAEncryption
        Issuer: C=US, ST=OH, L=Columbus, O=VikingVPN, OU=MyOrganizationalUnit, CN=VikingVPN CA/name=EasyRSA/emailAddress=me@myhost.mydomain
        Validity
            Not Before: Jul 30 18:26:16 2016 GMT
            Not After : Jul 28 18:26:16 2026 GMT
        Subject: CN=Client1702Cert7a8bc0
        Subject Public Key Info:
            Public Key Algorithm: rsaEncryption
                Public-Key: (4096 bit)
                Modulus:
                    00:ca:d9:fe:bc:44:67:df:46:32:90:18:bd:db:5f:
                    37:17:77:98:26:31:da:5a:84:b6:43:a3:a8:f9:5c:
                    67:57:fd:26:0d:09:3c:f7:46:7e:12:85:07:03:fe:
                    cc:b3:a8:18:c1:44:01:e6:99:af:6d:d2:4b:c6:7e:
                    ab:68:f9:0d:0a:1f:30:8f:7a:45:a1:86:f5:1e:92:
                    2f:22:6e:95:42:87:88:5b:8f:fb:a4:60:50:0f:ab:
                    66:dd:ea:99:7b:37:0c:91:76:b2:9f:1e:57:a9:7d:
                    98:fc:f9:72:42:4d:1d:fd:9b:19:74:19:a8:7c:11:
                    b0:a8:f5:96:3c:c3:a5:63:3a:20:b4:42:ff:bb:7b:
                    4b:fb:01:84:f5:c0:c4:2e:e3:f5:ea:a1:fe:70:ba:
                    64:9a:9d:e3:c2:48:99:6a:95:58:d9:98:e3:db:58:
                    99:66:c6:f3:10:b5:9d:4c:dd:9d:65:49:30:83:c5:
                    e1:7a:62:74:39:c5:54:07:71:cc:fd:43:a7:4a:6b:
                    fc:63:60:28:6f:94:77:e9:f2:29:60:fb:30:d1:c9:
                    90:1c:93:b1:10:f3:25:f9:28:3f:15:37:4d:06:24:
                    31:2c:3c:c6:80:c5:ce:bc:9f:ee:d5:f0:d8:4b:00:
                    0d:b3:9a:bb:ae:e6:8e:f9:21:a1:af:2d:ba:4e:0d:
                    42:b0:a7:af:c8:f0:fe:e5:36:0c:12:84:ab:a7:09:
                    5e:f0:15:1a:f6:cd:4e:98:68:50:f7:6f:bb:4d:1e:
                    cb:3a:52:04:01:2a:4b:c2:78:b2:b7:a2:fd:34:ba:
                    7d:c1:d9:28:3d:d6:da:da:fb:61:2d:e2:ab:73:bb:
                    7e:30:eb:9f:2f:3a:49:60:c1:1f:09:96:a9:9c:3c:
                    36:9f:4d:b2:71:ba:eb:01:0a:5a:ff:df:12:d9:c6:
                    1a:26:41:30:39:53:53:7e:70:ea:12:d1:69:42:31:
                    a5:16:1e:93:82:07:59:40:3b:f2:77:7b:e2:4d:2a:
                    25:87:32:0f:80:59:c4:35:e8:21:40:b6:df:db:f4:
                    0f:60:0c:51:98:c5:7a:a6:f1:85:90:42:6b:b3:0a:
                    85:0a:81:06:5f:04:73:c5:49:32:dd:80:62:46:d1:
                    75:c9:e0:53:9b:bb:c3:d0:42:78:64:ac:66:29:3f:
                    9a:27:41:53:cd:9e:f9:5e:35:94:b3:66:a9:5e:2c:
                    67:85:96:1c:92:f4:c8:55:b3:94:42:a5:2f:48:e0:
                    67:2a:30:d9:16:d7:8b:6d:83:6f:2f:c0:e8:49:e0:
                    22:3d:29:d7:ac:ef:af:59:88:17:dd:b1:1d:c2:86:
                    0b:97:e0:ff:fc:1e:de:af:52:1c:cc:53:97:80:58:
                    92:11:5f
                Exponent: 65537 (0x10001)
        X509v3 extensions:
            X509v3 Basic Constraints: 
                CA:FALSE
            Netscape Comment: 
                Easy-RSA Generated Certificate
            X509v3 Subject Key Identifier: 
                F8:0E:9A:D7:26:E6:E3:B4:CA:DD:0B:CC:43:9B:56:54:88:AD:FE:7E
            X509v3 Authority Key Identifier: 
                keyid:12:CD:60:04:D2:A0:80:9E:70:ED:C6:99:B8:7B:2C:C6:52:FD:19:A1
                DirName:/C=US/ST=OH/L=Columbus/O=VikingVPN/OU=MyOrganizationalUnit/CN=VikingVPN CA/name=EasyRSA/emailAddress=me@myhost.mydomain
                serial:CF:35:85:EE:80:BF:2A:3E

            X509v3 Extended Key Usage: 
                TLS Web Client Authentication
            X509v3 Key Usage: 
                Digital Signature
    Signature Algorithm: sha256WithRSAEncryption
         1d:2e:73:f1:2d:85:bd:27:80:38:4f:5b:42:00:cd:9f:4b:4b:
         af:f0:3a:1d:61:23:49:92:dc:bb:17:b9:f7:b4:01:5c:09:30:
         7b:b7:a1:24:2e:87:c1:85:73:d4:73:6f:a1:cc:00:b9:43:df:
         98:33:c9:99:fd:81:04:88:67:6a:e7:45:4c:c1:47:e6:37:98:
         ab:4b:23:15:37:d4:26:c7:52:42:5a:48:c7:99:34:f3:a4:e8:
         72:be:1c:2d:59:a7:78:51:ce:65:13:23:c1:a6:cf:a1:cf:a7:
         f0:6f:ba:09:0d:d3:2f:d7:09:54:67:f5:71:7f:61:c0:e3:30:
         18:d2:f8:79:f7:bd:b3:61:96:15:02:0c:ab:ff:03:e5:a2:37:
         dd:0e:86:85:41:8c:ec:54:84:70:37:4f:10:70:96:5c:4c:b2:
         58:b1:39:51:af:55:72:0a:e5:6a:8e:d5:6b:aa:52:05:b9:98:
         7f:4f:1b:73:f8:25:8a:c3:4e:e4:fb:c8:8c:3e:c4:aa:b8:8b:
         bf:d7:a9:4a:a0:f3:bd:fb:72:e5:c2:93:81:3b:69:f0:d6:04:
         8e:e5:0e:de:2f:a0:1d:57:7d:f3:dc:a8:a1:f9:c8:4f:c3:28:
         56:83:2d:1e:9b:24:8c:a7:6e:76:2c:6b:44:cc:dd:2c:43:ca:
         8f:72:e7:83:73:69:d3:67:4d:8b:7c:8d:ea:3b:e6:9b:b7:04:
         a9:00:4c:80:ca:08:e3:84:6a:fc:94:11:d1:3c:f0:9d:45:87:
         c9:d7:49:1e:70:a8:8f:47:15:04:0c:8c:9f:99:3c:c8:f8:38:
         79:db:05:50:01:07:a3:bd:d7:02:85:7d:05:6e:7d:38:f9:19:
         be:f4:7c:72:87:80:42:09:a7:c3:37:1b:1b:e3:37:0a:8e:6d:
         cb:a8:a6:34:c5:c0:bd:8d:86:ab:b2:8b:6f:08:0c:10:d2:f1:
         dd:81:6f:cc:11:cf:66:48:a7:09:97:f6:25:d9:80:b8:a6:d6:
         2f:2b:9e:8c:d9:5e:8e:b4:0b:87:1f:94:0c:4c:36:9f:71:fc:
         cf:06:90:1b:7a:02:fe:66:cf:08:d1:e9:62:27:26:da:b9:e7:
         74:e6:33:09:63:f6:89:05:bf:1f:e3:1b:08:8e:f4:98:9f:07:
         91:4b:db:e9:69:f8:64:09:8a:4e:3c:ed:01:df:95:4c:8c:50:
         27:80:b6:17:6b:ff:46:04:7d:34:dd:26:5d:f8:f2:d6:59:69:
         8c:ea:92:0d:4f:2d:16:6c:d8:8d:76:a3:03:7c:64:52:ee:81:
         33:04:93:84:77:3e:31:db:61:de:15:f3:13:24:c8:7a:e7:e5:
         ed:ab:0a:9c:d9:bc:75:ac
-----BEGIN CERTIFICATE-----
MIIGrTCCBJWgAwIBAgICIZcwDQYJKoZIhvcNAQELBQAwgawxCzAJBgNVBAYTAlVT
MQswCQYDVQQIEwJPSDERMA8GA1UEBxMIQ29sdW1idXMxEjAQBgNVBAoTCVZpa2lu
Z1ZQTjEdMBsGA1UECxMUTXlPcmdhbml6YXRpb25hbFVuaXQxFTATBgNVBAMTDFZp
a2luZ1ZQTiBDQTEQMA4GA1UEKRMHRWFzeVJTQTEhMB8GCSqGSIb3DQEJARYSbWVA
bXlob3N0Lm15ZG9tYWluMB4XDTE2MDczMDE4MjYxNloXDTI2MDcyODE4MjYxNlow
HzEdMBsGA1UEAxMUQ2xpZW50MTcwMkNlcnQ3YThiYzAwggIiMA0GCSqGSIb3DQEB
AQUAA4ICDwAwggIKAoICAQDK2f68RGffRjKQGL3bXzcXd5gmMdpahLZDo6j5XGdX
/SYNCTz3Rn4ShQcD/syzqBjBRAHmma9t0kvGfqto+Q0KHzCPekWhhvUeki8ibpVC
h4hbj/ukYFAPq2bd6pl7NwyRdrKfHlepfZj8+XJCTR39mxl0Gah8EbCo9ZY8w6Vj
OiC0Qv+7e0v7AYT1wMQu4/Xqof5wumSanePCSJlqlVjZmOPbWJlmxvMQtZ1M3Z1l
STCDxeF6YnQ5xVQHccz9Q6dKa/xjYChvlHfp8ilg+zDRyZAck7EQ8yX5KD8VN00G
JDEsPMaAxc68n+7V8NhLAA2zmruu5o75IaGvLbpODUKwp6/I8P7lNgwShKunCV7w
FRr2zU6YaFD3b7tNHss6UgQBKkvCeLK3ov00un3B2Sg91tra+2Et4qtzu34w658v
OklgwR8JlqmcPDafTbJxuusBClr/3xLZxhomQTA5U1N+cOoS0WlCMaUWHpOCB1lA
O/J3e+JNKiWHMg+AWcQ16CFAtt/b9A9gDFGYxXqm8YWQQmuzCoUKgQZfBHPFSTLd
gGJG0XXJ4FObu8PQQnhkrGYpP5onQVPNnvleNZSzZqleLGeFlhyS9MhVs5RCpS9I
4GcqMNkW14ttg28vwOhJ4CI9Kdes769ZiBfdsR3ChguX4P/8Ht6vUhzMU5eAWJIR
XwIDAQABo4IBYzCCAV8wCQYDVR0TBAIwADAtBglghkgBhvhCAQ0EIBYeRWFzeS1S
U0EgR2VuZXJhdGVkIENlcnRpZmljYXRlMB0GA1UdDgQWBBT4DprXJubjtMrdC8xD
m1ZUiK3+fjCB4QYDVR0jBIHZMIHWgBQSzWAE0qCAnnDtxpm4eyzGUv0ZoaGBsqSB
rzCBrDELMAkGA1UEBhMCVVMxCzAJBgNVBAgTAk9IMREwDwYDVQQHEwhDb2x1bWJ1
czESMBAGA1UEChMJVmlraW5nVlBOMR0wGwYDVQQLExRNeU9yZ2FuaXphdGlvbmFs
VW5pdDEVMBMGA1UEAxMMVmlraW5nVlBOIENBMRAwDgYDVQQpEwdFYXN5UlNBMSEw
HwYJKoZIhvcNAQkBFhJtZUBteWhvc3QubXlkb21haW6CCQDPNYXugL8qPjATBgNV
HSUEDDAKBggrBgEFBQcDAjALBgNVHQ8EBAMCB4AwDQYJKoZIhvcNAQELBQADggIB
AB0uc/Ethb0ngDhPW0IAzZ9LS6/wOh1hI0mS3LsXufe0AVwJMHu3oSQuh8GFc9Rz
b6HMALlD35gzyZn9gQSIZ2rnRUzBR+Y3mKtLIxU31CbHUkJaSMeZNPOk6HK+HC1Z
p3hRzmUTI8Gmz6HPp/BvugkN0y/XCVRn9XF/YcDjMBjS+Hn3vbNhlhUCDKv/A+Wi
N90OhoVBjOxUhHA3TxBwllxMslixOVGvVXIK5WqO1WuqUgW5mH9PG3P4JYrDTuT7
yIw+xKq4i7/XqUqg8737cuXCk4E7afDWBI7lDt4voB1XffPcqKH5yE/DKFaDLR6b
JIynbnYsa0TM3SxDyo9y54NzadNnTYt8jeo75pu3BKkATIDKCOOEavyUEdE88J1F
h8nXSR5wqI9HFQQMjJ+ZPMj4OHnbBVABB6O91wKFfQVufTj5Gb70fHKHgEIJp8M3
GxvjNwqObcuopjTFwL2Nhquyi28IDBDS8d2Bb8wRz2ZIpwmX9iXZgLim1i8rnozZ
Xo60C4cflAxMNp9x/M8GkBt6Av5mzwjR6WInJtq553TmMwlj9okFvx/jGwiO9Jif
B5FL2+lp+GQJik487QHflUyMUCeAthdr/0YEfTTdJl348tZZaYzqkg1PLRZs2I12
owN8ZFLugTMEk4R3PjHbYd4V8xMkyHrn5e2rCpzZvHWs
-----END CERTIFICATE-----
