Certificate:
    Data:
        Version: 3 (0x2)
        Serial Number: 3707 (0xe7b)
    Signature Algorithm: md5WithRSAEncryption
        Issuer: C=US, ST=OH, L=Columbus, O=VikingVPN, OU=MyOrganizationalUnit, CN=VikingVPN CA/name=EasyRSA/emailAddress=me@myhost.mydomain
        Validity
            Not Before: Dec 17 02:25:20 2014 GMT
            Not After : Dec 14 02:25:20 2024 GMT
        Subject: CN=Client1067Certca8885
        Subject Public Key Info:
            Public Key Algorithm: rsaEncryption
                Public-Key: (4096 bit)
                Modulus:
                    00:a2:45:cb:ce:93:35:05:a4:3d:27:6e:fe:a3:9a:
                    60:c5:e9:bd:cb:23:4c:0b:20:16:c1:eb:22:67:f4:
                    3c:2c:b6:09:cb:b3:6e:87:85:4c:96:91:91:89:2f:
                    b8:ec:d7:8f:9b:14:8b:09:c8:d8:76:dc:36:cf:8f:
                    8f:cc:b9:13:3e:23:58:a8:8a:40:91:2c:e6:c3:26:
                    7b:27:dd:55:cb:fb:c8:e4:11:48:a4:d0:46:7c:46:
                    ba:e3:e1:f7:93:b1:d4:ee:78:05:c8:29:d3:09:be:
                    c0:cf:85:44:27:0a:c4:08:f0:0b:f1:9d:9e:9c:1e:
                    21:ee:82:a2:66:94:33:d1:36:26:95:b0:fc:6e:06:
                    47:96:79:2f:c1:3d:f2:36:75:0e:14:e7:21:36:a8:
                    13:3c:0c:af:74:26:e2:eb:32:17:ad:bd:94:e6:70:
                    3c:2a:01:e5:c4:4a:cc:2e:b5:ef:b9:60:1e:a2:9b:
                    f2:24:17:cc:48:cd:03:9e:97:32:c3:6a:28:82:0e:
                    90:98:b6:9a:f3:2d:48:0a:a8:91:48:cb:4b:f4:b9:
                    e6:0d:bc:da:48:32:a2:9d:a2:89:54:4e:7e:31:a9:
                    93:27:bc:d5:dd:8a:e6:5e:6f:5f:99:70:5f:81:eb:
                    d1:74:57:50:44:13:da:d3:69:7b:c5:86:eb:77:67:
                    93:db:f2:ec:a0:09:10:4e:a2:1a:35:d2:d9:b6:c6:
                    6f:56:d4:05:65:68:f1:6e:82:f5:02:d8:39:f9:9b:
                    9b:75:97:42:d1:21:d7:cd:34:e7:43:7f:4c:75:17:
                    d5:de:74:d5:a3:7f:df:fe:af:29:eb:0e:2a:fa:b4:
                    98:e3:51:b3:89:31:12:34:b5:a2:e2:b6:7d:d3:27:
                    15:b8:28:0f:cc:79:81:92:7b:e9:18:a8:f3:b1:3e:
                    32:cd:f7:cb:77:fe:c0:98:4b:1d:24:25:e3:81:45:
                    e8:3a:ce:e8:24:fb:01:4b:59:a4:cd:3e:b3:07:fd:
                    84:a0:19:4f:1e:28:e8:64:e4:bb:f9:9b:8b:8b:87:
                    f1:8e:36:01:20:ba:09:3a:de:3c:62:2a:41:e6:e1:
                    cf:9a:0a:cc:84:db:ac:0b:e0:27:c9:57:b8:16:75:
                    fe:52:08:d1:0a:3c:f7:ec:e6:b4:db:ab:86:bd:01:
                    59:74:68:15:95:0f:9a:66:9b:ce:5d:da:b0:f7:b7:
                    22:c1:9f:6a:a8:68:59:c6:bf:9b:2e:01:2f:90:5b:
                    c6:83:51:26:9d:2e:b5:fb:88:4c:c1:3f:e6:03:56:
                    16:88:d1:58:75:45:a9:ba:28:bd:39:17:a6:b7:f9:
                    6e:98:61:ce:ef:5a:d7:8b:95:c3:47:fa:96:36:cc:
                    a0:80:8b
                Exponent: 65537 (0x10001)
        X509v3 extensions:
            X509v3 Basic Constraints: 
                CA:FALSE
            Netscape Comment: 
                Easy-RSA Generated Certificate
            X509v3 Subject Key Identifier: 
                F6:9A:70:40:3E:77:31:04:24:CE:23:B6:6E:0D:FA:86:A0:6B:E7:BC
            X509v3 Authority Key Identifier: 
                keyid:12:CD:60:04:D2:A0:80:9E:70:ED:C6:99:B8:7B:2C:C6:52:FD:19:A1
                DirName:/C=US/ST=OH/L=Columbus/O=VikingVPN/OU=MyOrganizationalUnit/CN=VikingVPN CA/name=EasyRSA/emailAddress=me@myhost.mydomain
                serial:CF:35:85:EE:80:BF:2A:3E

            X509v3 Extended Key Usage: 
                TLS Web Client Authentication
            X509v3 Key Usage: 
                Digital Signature
    Signature Algorithm: md5WithRSAEncryption
         79:62:4f:2d:ca:f4:de:3b:df:b8:4c:45:d2:01:bb:a1:13:7f:
         30:00:43:a8:fe:bf:25:27:0c:4a:ab:51:e5:09:dc:32:de:32:
         8f:d2:1f:e1:77:57:36:09:93:de:be:c4:7a:42:cf:1c:85:ee:
         61:a9:c0:e2:8c:92:20:6d:11:1a:b9:24:60:7d:6c:d9:22:71:
         9a:ac:82:1d:b4:88:42:07:cd:f7:20:6e:3b:d2:5f:3c:b5:7e:
         00:db:a3:c8:6a:a1:6b:cd:e7:ad:d7:56:f2:c8:e1:61:2f:93:
         54:80:ce:a4:b6:74:a2:61:87:f4:c4:bb:4f:c3:03:3d:aa:73:
         b0:d2:96:f8:e7:2a:9a:f9:2c:f4:53:5c:fa:f8:82:5e:e2:51:
         8e:ee:90:66:3d:31:5d:d7:9d:df:ac:f6:f2:b4:fa:c8:f4:8c:
         4c:ed:f5:ed:19:e4:d9:17:f3:6d:28:f7:9b:83:ee:cf:22:e3:
         59:a8:47:cc:c3:55:7d:55:50:cb:13:97:77:ad:27:a7:6a:46:
         1c:f9:c0:f9:da:d2:d4:8a:49:15:b2:33:c6:d2:c8:17:d4:3c:
         19:fc:f8:96:ed:87:98:fb:3d:b0:91:36:ba:84:5b:a5:fc:e3:
         4c:dd:98:4d:d8:c0:4c:81:68:de:47:b1:40:11:3e:ba:50:f0:
         7e:2a:c6:f8:a3:91:a1:57:8d:b6:8e:98:ed:f2:07:6d:c7:93:
         7b:e6:ad:80:9c:8c:0b:9b:d9:85:e7:92:b5:cf:e2:e2:af:c0:
         8f:05:a3:c4:4e:5b:db:a9:c2:bb:3b:d2:51:3c:7d:cc:48:2a:
         6d:f9:4f:79:2b:ee:ed:de:05:af:79:18:fe:b3:00:17:4a:e0:
         83:03:ea:05:6d:18:f0:00:3e:51:68:41:04:0c:85:80:a8:17:
         7d:52:df:e3:63:a1:98:50:64:59:5a:29:85:1e:0f:1f:13:52:
         9e:6f:ca:40:44:ca:1d:74:d9:5d:74:0a:a0:80:c1:a7:2f:14:
         9a:6f:02:ae:4d:19:81:c4:c4:03:8b:63:a6:d5:ed:87:46:e6:
         17:9d:d8:24:0d:62:c3:b3:89:5c:59:e4:6b:4a:e6:73:92:25:
         62:42:a4:1f:56:ad:d7:73:9f:6a:5e:85:a4:19:17:82:f9:2b:
         6a:b2:0c:60:f4:a8:88:ca:87:7b:a6:7c:15:fc:54:5d:c9:de:
         0e:4a:3c:05:3a:e4:f0:96:c3:8c:e3:2d:15:74:7d:ba:f7:dd:
         0b:04:01:ff:d4:12:78:1f:66:c2:70:97:f8:38:5b:f1:bc:26:
         5b:91:22:be:02:9b:94:14:b8:d2:99:76:17:a3:ae:41:ae:db:
         d6:17:5e:6a:bf:4b:f8:db
-----BEGIN CERTIFICATE-----
MIIGrTCCBJWgAwIBAgICDnswDQYJKoZIhvcNAQEEBQAwgawxCzAJBgNVBAYTAlVT
MQswCQYDVQQIEwJPSDERMA8GA1UEBxMIQ29sdW1idXMxEjAQBgNVBAoTCVZpa2lu
Z1ZQTjEdMBsGA1UECxMUTXlPcmdhbml6YXRpb25hbFVuaXQxFTATBgNVBAMTDFZp
a2luZ1ZQTiBDQTEQMA4GA1UEKRMHRWFzeVJTQTEhMB8GCSqGSIb3DQEJARYSbWVA
bXlob3N0Lm15ZG9tYWluMB4XDTE0MTIxNzAyMjUyMFoXDTI0MTIxNDAyMjUyMFow
HzEdMBsGA1UEAxMUQ2xpZW50MTA2N0NlcnRjYTg4ODUwggIiMA0GCSqGSIb3DQEB
AQUAA4ICDwAwggIKAoICAQCiRcvOkzUFpD0nbv6jmmDF6b3LI0wLIBbB6yJn9Dws
tgnLs26HhUyWkZGJL7js14+bFIsJyNh23DbPj4/MuRM+I1ioikCRLObDJnsn3VXL
+8jkEUik0EZ8Rrrj4feTsdTueAXIKdMJvsDPhUQnCsQI8AvxnZ6cHiHugqJmlDPR
NiaVsPxuBkeWeS/BPfI2dQ4U5yE2qBM8DK90JuLrMhetvZTmcDwqAeXESswute+5
YB6im/IkF8xIzQOelzLDaiiCDpCYtprzLUgKqJFIy0v0ueYNvNpIMqKdoolUTn4x
qZMnvNXdiuZeb1+ZcF+B69F0V1BEE9rTaXvFhut3Z5Pb8uygCRBOoho10tm2xm9W
1AVlaPFugvUC2Dn5m5t1l0LRIdfNNOdDf0x1F9XedNWjf9/+rynrDir6tJjjUbOJ
MRI0taLitn3TJxW4KA/MeYGSe+kYqPOxPjLN98t3/sCYSx0kJeOBReg6zugk+wFL
WaTNPrMH/YSgGU8eKOhk5Lv5m4uLh/GONgEgugk63jxiKkHm4c+aCsyE26wL4CfJ
V7gWdf5SCNEKPPfs5rTbq4a9AVl0aBWVD5pmm85d2rD3tyLBn2qoaFnGv5suAS+Q
W8aDUSadLrX7iEzBP+YDVhaI0Vh1Ram6KL05F6a3+W6YYc7vWteLlcNH+pY2zKCA
iwIDAQABo4IBYzCCAV8wCQYDVR0TBAIwADAtBglghkgBhvhCAQ0EIBYeRWFzeS1S
U0EgR2VuZXJhdGVkIENlcnRpZmljYXRlMB0GA1UdDgQWBBT2mnBAPncxBCTOI7Zu
DfqGoGvnvDCB4QYDVR0jBIHZMIHWgBQSzWAE0qCAnnDtxpm4eyzGUv0ZoaGBsqSB
rzCBrDELMAkGA1UEBhMCVVMxCzAJBgNVBAgTAk9IMREwDwYDVQQHEwhDb2x1bWJ1
czESMBAGA1UEChMJVmlraW5nVlBOMR0wGwYDVQQLExRNeU9yZ2FuaXphdGlvbmFs
VW5pdDEVMBMGA1UEAxMMVmlraW5nVlBOIENBMRAwDgYDVQQpEwdFYXN5UlNBMSEw
HwYJKoZIhvcNAQkBFhJtZUBteWhvc3QubXlkb21haW6CCQDPNYXugL8qPjATBgNV
HSUEDDAKBggrBgEFBQcDAjALBgNVHQ8EBAMCB4AwDQYJKoZIhvcNAQEEBQADggIB
AHliTy3K9N4737hMRdIBu6ETfzAAQ6j+vyUnDEqrUeUJ3DLeMo/SH+F3VzYJk96+
xHpCzxyF7mGpwOKMkiBtERq5JGB9bNkicZqsgh20iEIHzfcgbjvSXzy1fgDbo8hq
oWvN563XVvLI4WEvk1SAzqS2dKJhh/TEu0/DAz2qc7DSlvjnKpr5LPRTXPr4gl7i
UY7ukGY9MV3Xnd+s9vK0+sj0jEzt9e0Z5NkX820o95uD7s8i41moR8zDVX1VUMsT
l3etJ6dqRhz5wPna0tSKSRWyM8bSyBfUPBn8+Jbth5j7PbCRNrqEW6X840zdmE3Y
wEyBaN5HsUARPrpQ8H4qxvijkaFXjbaOmO3yB23Hk3vmrYCcjAub2YXnkrXP4uKv
wI8Fo8ROW9upwrs70lE8fcxIKm35T3kr7u3eBa95GP6zABdK4IMD6gVtGPAAPlFo
QQQMhYCoF31S3+NjoZhQZFlaKYUeDx8TUp5vykBEyh102V10CqCAwacvFJpvAq5N
GYHExAOLY6bV7YdG5hed2CQNYsOziVxZ5GtK5nOSJWJCpB9Wrddzn2pehaQZF4L5
K2qyDGD0qIjKh3umfBX8VF3J3g5KPAU65PCWw4zjLRV0fbr33QsEAf/UEngfZsJw
l/g4W/G8JluRIr4Cm5QUuNKZdhejrkGu29YXXmq/S/jb
-----END CERTIFICATE-----
