Certificate:
    Data:
        Version: 3 (0x2)
        Serial Number: 436 (0x1b4)
    Signature Algorithm: md5WithRSAEncryption
        Issuer: C=US, ST=OH, L=Columbus, O=VikingVPN, OU=MyOrganizationalUnit, CN=VikingVPN CA/name=EasyRSA/emailAddress=me@myhost.mydomain
        Validity
            Not Before: Nov 22 20:19:41 2013 GMT
            Not After : Nov 20 20:19:41 2023 GMT
        Subject: CN=Client197Certd76306
        Subject Public Key Info:
            Public Key Algorithm: rsaEncryption
                Public-Key: (4096 bit)
                Modulus:
                    00:bb:92:dc:4e:b0:18:0a:d1:f1:64:ec:50:8b:1d:
                    4e:b6:a4:25:bd:09:4d:84:50:c3:77:b0:06:ea:11:
                    cf:b7:32:2d:72:44:6a:93:a8:31:fb:61:7a:74:4f:
                    ec:55:62:6c:e0:47:5b:5e:a7:a7:7d:5f:51:b1:ab:
                    ea:87:d9:38:37:0d:92:86:f9:fc:b9:d9:e7:9a:0c:
                    1b:b6:7c:01:e6:18:d4:e6:fd:a0:4e:99:7f:2e:3a:
                    fd:c0:5b:b7:81:b2:a8:94:18:a0:a9:dd:a1:67:de:
                    61:23:a8:8f:9f:09:45:ca:2a:8a:5b:32:18:5e:25:
                    6a:ef:e0:f6:a9:b3:8d:9e:55:54:af:70:84:82:5c:
                    f4:25:43:b8:95:24:67:09:fb:ee:8c:fe:84:9d:c8:
                    40:54:83:ff:23:e5:0e:32:f9:3a:50:2c:71:cf:18:
                    81:1a:73:2b:24:29:24:58:8a:09:0b:50:ce:16:6c:
                    f4:2a:c0:87:3e:c8:58:8f:ab:f0:79:8d:ec:70:4e:
                    89:6c:f9:cc:3c:7e:88:54:ad:4f:c1:b8:fc:f1:cb:
                    1e:d3:d2:85:41:b2:92:40:44:80:bc:c8:61:04:d8:
                    16:ec:0d:c7:78:1e:a8:4a:44:0b:b7:c1:61:e8:96:
                    ea:c5:84:a0:9d:63:f7:88:9a:71:75:37:e9:24:8f:
                    91:0e:21:3e:e4:e3:95:22:31:7b:67:b6:45:ff:86:
                    a6:2f:4d:fb:32:39:29:54:97:9f:ec:d7:0e:09:f0:
                    5e:f5:a4:ce:50:3e:cc:70:27:aa:92:79:a1:29:f4:
                    e0:2c:8f:b3:13:5a:15:fe:a6:73:b4:39:98:1f:01:
                    5d:eb:70:0a:f7:da:fb:1b:d9:57:a7:1d:aa:1c:f1:
                    ad:0a:81:36:d4:6a:f1:e0:d4:43:23:d1:ae:50:dc:
                    c9:47:e2:66:c1:8d:05:6f:42:f5:46:00:d0:f0:66:
                    cf:91:3b:69:0a:c9:d4:23:7c:31:4b:cb:d7:cd:8b:
                    f7:04:8a:65:e1:d0:9b:75:c3:e8:95:d4:07:93:a4:
                    b9:f9:b0:7f:c5:10:4f:e9:ee:0d:b4:08:97:57:00:
                    ab:a0:44:a9:10:50:92:bb:34:b2:13:9d:db:28:98:
                    19:f5:39:fa:ef:98:ff:95:68:68:1a:9d:2b:10:15:
                    a2:cd:da:25:34:bf:7c:5f:cf:2c:3c:c6:12:3f:e6:
                    a2:c3:e8:fb:a3:6a:39:40:cb:31:ed:cd:78:00:9f:
                    72:71:dd:4b:a3:87:54:94:54:39:b8:a8:6f:ef:48:
                    e5:a9:4e:6d:84:f4:a5:42:2f:2f:0c:dc:49:90:95:
                    ae:f5:3b:a2:70:ad:df:60:07:7f:d4:6f:fb:b6:9e:
                    a0:92:63
                Exponent: 65537 (0x10001)
        X509v3 extensions:
            X509v3 Basic Constraints: 
                CA:FALSE
            Netscape Comment: 
                Easy-RSA Generated Certificate
            X509v3 Subject Key Identifier: 
                54:87:A4:88:4B:0D:B0:BA:C2:3F:1D:6F:D4:39:26:BB:54:F3:E4:FB
            X509v3 Authority Key Identifier: 
                keyid:12:CD:60:04:D2:A0:80:9E:70:ED:C6:99:B8:7B:2C:C6:52:FD:19:A1
                DirName:/C=US/ST=OH/L=Columbus/O=VikingVPN/OU=MyOrganizationalUnit/CN=VikingVPN CA/name=EasyRSA/emailAddress=me@myhost.mydomain
                serial:CF:35:85:EE:80:BF:2A:3E

            X509v3 Extended Key Usage: 
                TLS Web Client Authentication
            X509v3 Key Usage: 
                Digital Signature
    Signature Algorithm: md5WithRSAEncryption
         9b:43:4d:30:ac:d8:b8:d6:93:86:e5:c1:ec:ce:49:55:42:6c:
         aa:9e:f1:7f:38:f5:bc:f9:79:b8:ee:5a:54:c7:4a:b9:c0:e9:
         8a:a4:86:64:f7:1c:62:c0:3b:a4:60:94:88:3d:6e:a8:64:b1:
         80:d0:a8:47:2f:dd:aa:fa:5c:1a:34:a6:76:64:2d:fc:67:5e:
         60:fb:a6:f8:73:68:a7:95:cf:a8:5f:92:73:1e:57:fc:e5:7f:
         ed:3e:ad:a8:b0:a3:82:98:4f:17:b5:6c:09:aa:9d:bc:0e:a7:
         2c:80:fb:20:1a:1b:f9:8d:65:92:21:a4:26:2c:f7:76:3c:f1:
         37:8e:6d:a0:ca:78:5f:b5:fc:7a:58:fc:85:f5:48:cb:a7:d9:
         0d:e8:dc:82:0c:20:6a:75:26:c7:2e:66:b2:d6:fe:c3:ad:6b:
         9e:95:9c:b5:15:95:9f:35:f2:c0:bd:7d:58:ff:63:32:38:f3:
         fe:66:1f:cb:45:d7:9e:48:fd:bc:b5:76:9d:35:59:3f:8a:6f:
         6a:65:6d:df:15:ab:c2:38:40:31:27:09:47:9d:59:6e:ff:67:
         9a:a2:b2:dc:b2:1b:3e:a3:b2:72:26:5b:c1:d6:5c:a4:9d:a6:
         03:51:00:5d:24:e2:39:c6:ce:bd:79:a1:9c:eb:37:03:fe:b0:
         a1:ed:93:db:44:65:3e:67:4c:78:18:56:05:64:f2:67:6f:0c:
         0a:e0:3c:db:84:aa:0a:d0:b8:67:00:58:18:54:9c:6a:98:f5:
         1c:b6:58:5d:01:ef:fb:3d:b4:83:32:d0:ff:4c:f4:ee:37:12:
         92:a2:52:9c:d1:11:91:7d:0c:1c:42:95:05:5a:fd:d0:a4:66:
         6b:83:b0:fb:bd:96:7f:5c:76:25:44:81:1c:f2:47:43:0d:b5:
         01:7d:c2:dd:ab:38:97:06:af:d5:ff:ad:77:02:b1:72:00:25:
         4d:73:40:06:8a:4f:c6:64:23:7a:a8:0b:5c:2f:87:de:2c:3e:
         bd:b9:6a:c9:35:32:c6:b7:25:82:6d:56:0e:be:f5:72:85:8c:
         a2:87:41:bb:ae:8c:bf:65:41:57:1d:e8:7e:ce:1c:4a:10:48:
         95:87:17:99:b5:46:b3:18:9c:2b:d3:59:71:83:ac:e9:72:0c:
         e2:31:d9:d0:b9:cb:56:70:3b:8c:74:0c:7d:8d:8e:c3:2c:de:
         d3:37:42:c5:9a:e9:96:28:1d:da:a5:15:56:da:d7:b6:48:f7:
         40:f1:9f:df:67:2f:0c:31:dd:84:e6:f1:40:1b:39:59:f4:1b:
         13:bc:63:03:de:9c:56:fa:11:7c:e5:99:d2:4c:15:0e:c5:b1:
         82:66:54:d8:00:5e:1c:16
-----BEGIN CERTIFICATE-----
MIIGrDCCBJSgAwIBAgICAbQwDQYJKoZIhvcNAQEEBQAwgawxCzAJBgNVBAYTAlVT
MQswCQYDVQQIEwJPSDERMA8GA1UEBxMIQ29sdW1idXMxEjAQBgNVBAoTCVZpa2lu
Z1ZQTjEdMBsGA1UECxMUTXlPcmdhbml6YXRpb25hbFVuaXQxFTATBgNVBAMTDFZp
a2luZ1ZQTiBDQTEQMA4GA1UEKRMHRWFzeVJTQTEhMB8GCSqGSIb3DQEJARYSbWVA
bXlob3N0Lm15ZG9tYWluMB4XDTEzMTEyMjIwMTk0MVoXDTIzMTEyMDIwMTk0MVow
HjEcMBoGA1UEAxMTQ2xpZW50MTk3Q2VydGQ3NjMwNjCCAiIwDQYJKoZIhvcNAQEB
BQADggIPADCCAgoCggIBALuS3E6wGArR8WTsUIsdTrakJb0JTYRQw3ewBuoRz7cy
LXJEapOoMfthenRP7FVibOBHW16np31fUbGr6ofZODcNkob5/LnZ55oMG7Z8AeYY
1Ob9oE6Zfy46/cBbt4GyqJQYoKndoWfeYSOoj58JRcoqilsyGF4lau/g9qmzjZ5V
VK9whIJc9CVDuJUkZwn77oz+hJ3IQFSD/yPlDjL5OlAscc8YgRpzKyQpJFiKCQtQ
zhZs9CrAhz7IWI+r8HmN7HBOiWz5zDx+iFStT8G4/PHLHtPShUGykkBEgLzIYQTY
FuwNx3geqEpEC7fBYeiW6sWEoJ1j94iacXU36SSPkQ4hPuTjlSIxe2e2Rf+Gpi9N
+zI5KVSXn+zXDgnwXvWkzlA+zHAnqpJ5oSn04CyPsxNaFf6mc7Q5mB8BXetwCvfa
+xvZV6cdqhzxrQqBNtRq8eDUQyPRrlDcyUfiZsGNBW9C9UYA0PBmz5E7aQrJ1CN8
MUvL182L9wSKZeHQm3XD6JXUB5Okufmwf8UQT+nuDbQIl1cAq6BEqRBQkrs0shOd
2yiYGfU5+u+Y/5VoaBqdKxAVos3aJTS/fF/PLDzGEj/mosPo+6NqOUDLMe3NeACf
cnHdS6OHVJRUObiob+9I5alObYT0pUIvLwzcSZCVrvU7onCt32AHf9Rv+7aeoJJj
AgMBAAGjggFjMIIBXzAJBgNVHRMEAjAAMC0GCWCGSAGG+EIBDQQgFh5FYXN5LVJT
QSBHZW5lcmF0ZWQgQ2VydGlmaWNhdGUwHQYDVR0OBBYEFFSHpIhLDbC6wj8db9Q5
JrtU8+T7MIHhBgNVHSMEgdkwgdaAFBLNYATSoICecO3Gmbh7LMZS/RmhoYGypIGv
MIGsMQswCQYDVQQGEwJVUzELMAkGA1UECBMCT0gxETAPBgNVBAcTCENvbHVtYnVz
MRIwEAYDVQQKEwlWaWtpbmdWUE4xHTAbBgNVBAsTFE15T3JnYW5pemF0aW9uYWxV
bml0MRUwEwYDVQQDEwxWaWtpbmdWUE4gQ0ExEDAOBgNVBCkTB0Vhc3lSU0ExITAf
BgkqhkiG9w0BCQEWEm1lQG15aG9zdC5teWRvbWFpboIJAM81he6Avyo+MBMGA1Ud
JQQMMAoGCCsGAQUFBwMCMAsGA1UdDwQEAwIHgDANBgkqhkiG9w0BAQQFAAOCAgEA
m0NNMKzYuNaThuXB7M5JVUJsqp7xfzj1vPl5uO5aVMdKucDpiqSGZPccYsA7pGCU
iD1uqGSxgNCoRy/dqvpcGjSmdmQt/GdeYPum+HNop5XPqF+Scx5X/OV/7T6tqLCj
gphPF7VsCaqdvA6nLID7IBob+Y1lkiGkJiz3djzxN45toMp4X7X8elj8hfVIy6fZ
DejcggwganUmxy5mstb+w61rnpWctRWVnzXywL19WP9jMjjz/mYfy0XXnkj9vLV2
nTVZP4pvamVt3xWrwjhAMScJR51Zbv9nmqKy3LIbPqOyciZbwdZcpJ2mA1EAXSTi
OcbOvXmhnOs3A/6woe2T20RlPmdMeBhWBWTyZ28MCuA824SqCtC4ZwBYGFScapj1
HLZYXQHv+z20gzLQ/0z07jcSkqJSnNERkX0MHEKVBVr90KRma4Ow+72Wf1x2JUSB
HPJHQw21AX3C3as4lwav1f+tdwKxcgAlTXNABopPxmQjeqgLXC+H3iw+vblqyTUy
xrclgm1WDr71coWMoodBu66Mv2VBVx3ofs4cShBIlYcXmbVGsxicK9NZcYOs6XIM
4jHZ0LnLVnA7jHQMfY2Owyze0zdCxZrpligd2qUVVtrXtkj3QPGf32cvDDHdhObx
QBs5WfQbE7xjA96cVvoRfOWZ0kwVDsWxgmZU2ABeHBY=
-----END CERTIFICATE-----
