Certificate:
    Data:
        Version: 3 (0x2)
        Serial Number: 3314 (0xcf2)
    Signature Algorithm: md5WithRSAEncryption
        Issuer: C=US, ST=OH, L=Columbus, O=VikingVPN, OU=MyOrganizationalUnit, CN=VikingVPN CA/name=EasyRSA/emailAddress=me@myhost.mydomain
        Validity
            Not Before: Nov  9 13:19:56 2014 GMT
            Not After : Nov  6 13:19:56 2024 GMT
        Subject: CN=Client908Cert7b2491
        Subject Public Key Info:
            Public Key Algorithm: rsaEncryption
                Public-Key: (4096 bit)
                Modulus:
                    00:c6:4c:69:07:cb:94:2f:9b:55:42:ee:31:92:16:
                    dc:f0:cb:b6:2f:09:5f:83:2d:1a:4d:da:12:80:53:
                    ab:97:b7:63:27:cd:3d:f7:8e:07:6a:ea:77:c6:c3:
                    be:05:bd:32:83:63:ea:b5:1a:52:e8:8e:ab:8b:93:
                    d8:e8:13:aa:ea:4c:42:42:01:85:f4:9b:99:c1:ba:
                    f4:04:3b:81:96:6b:86:11:0a:98:2c:3c:fb:f1:c3:
                    97:ec:0f:19:d8:fe:0d:a9:33:2b:74:c6:9d:82:e4:
                    1d:a8:ff:dd:53:c1:67:23:af:34:92:bf:8f:38:f3:
                    bc:80:cd:b6:90:f8:c7:a7:1f:78:97:19:4f:95:46:
                    73:40:9f:8c:7e:66:84:97:46:86:96:29:1c:af:df:
                    c3:8c:73:bc:23:f5:9c:c6:4d:4a:89:ae:04:6f:fe:
                    70:45:9a:cf:cd:d1:76:bc:25:51:58:b6:0b:d9:7d:
                    9d:cf:28:5f:b9:cf:09:8c:f6:d0:00:db:2c:da:10:
                    2e:93:2d:5a:09:65:7b:b1:11:5c:b5:9f:b7:b9:ce:
                    1a:57:ad:4c:6b:f5:59:56:a6:f8:1e:14:05:24:de:
                    91:67:44:71:45:b4:8f:1e:31:4c:97:3b:28:fb:c7:
                    f0:95:b1:a1:c8:eb:a9:94:9b:1b:31:bf:15:a0:6d:
                    99:de:ff:59:ba:ae:5c:67:99:2a:55:bb:85:12:b0:
                    04:2e:fd:d7:67:ee:33:e8:20:5f:1d:5e:cc:04:68:
                    24:06:f8:ee:0b:63:7d:66:6a:33:b7:0d:14:31:4b:
                    95:09:68:95:0c:fe:65:2f:12:18:3c:8f:5b:cb:00:
                    71:c8:70:89:5c:25:fa:e7:a2:64:29:0c:28:be:3d:
                    73:97:c7:71:86:24:b9:a4:7c:6a:24:32:01:c8:c2:
                    99:12:5b:aa:65:e7:0f:64:e4:ee:ef:70:26:5a:db:
                    8c:b8:8c:60:c5:ed:c8:4c:4c:77:a6:c4:a6:59:ef:
                    ee:74:aa:97:fe:b6:9c:c7:69:0e:ad:dc:5f:bf:6e:
                    21:cf:77:c1:3b:0d:2b:85:6f:9e:09:c8:6d:8e:53:
                    03:6f:cd:96:93:86:03:43:da:91:f5:a0:a8:33:df:
                    59:75:15:12:b9:b2:80:d2:96:48:3f:63:ee:3f:44:
                    86:c9:13:81:42:e7:c8:bb:77:45:bc:ea:89:55:e6:
                    8d:5b:b8:2c:49:e8:83:75:7b:6a:73:d7:a9:e3:18:
                    9b:5a:8c:5b:86:8a:68:a1:89:50:f9:7b:5c:a4:a6:
                    02:3a:e3:55:93:d7:2f:c8:91:48:0d:8f:33:ef:0e:
                    ea:fc:0d:ac:d4:a3:db:ec:db:87:09:9b:4c:b0:64:
                    81:f5:55
                Exponent: 65537 (0x10001)
        X509v3 extensions:
            X509v3 Basic Constraints: 
                CA:FALSE
            Netscape Comment: 
                Easy-RSA Generated Certificate
            X509v3 Subject Key Identifier: 
                E3:9F:EC:4F:E5:43:98:1A:2E:17:90:30:01:94:F4:5D:0F:D5:2A:6D
            X509v3 Authority Key Identifier: 
                keyid:12:CD:60:04:D2:A0:80:9E:70:ED:C6:99:B8:7B:2C:C6:52:FD:19:A1
                DirName:/C=US/ST=OH/L=Columbus/O=VikingVPN/OU=MyOrganizationalUnit/CN=VikingVPN CA/name=EasyRSA/emailAddress=me@myhost.mydomain
                serial:CF:35:85:EE:80:BF:2A:3E

            X509v3 Extended Key Usage: 
                TLS Web Client Authentication
            X509v3 Key Usage: 
                Digital Signature
    Signature Algorithm: md5WithRSAEncryption
         b7:82:8d:e9:fa:ac:ba:b9:b6:35:2d:9e:6f:f4:87:0e:ff:52:
         f9:b2:5c:7b:90:ab:f3:c2:68:df:61:8c:19:99:fd:57:be:6b:
         84:b5:bb:53:c1:d3:a9:79:a1:d0:fe:db:f0:82:7c:b9:e2:18:
         a8:0a:be:e2:50:36:18:86:34:a5:4a:8f:eb:e1:22:ec:99:ae:
         e6:78:26:8d:3f:02:6f:df:c1:54:eb:97:85:11:3e:34:d1:c8:
         8e:ab:0c:94:f7:9c:6c:7d:89:5c:47:12:a6:a6:9a:12:e1:7e:
         20:12:a4:f9:4a:82:5d:b2:fb:15:f8:d2:4a:02:db:de:82:61:
         27:f6:b2:71:9c:c1:88:0e:d8:82:57:94:cf:c1:aa:e5:ed:5d:
         8a:0d:bc:ec:19:4c:c5:e7:77:d6:94:43:34:18:d0:8e:7d:6e:
         ac:9c:bd:43:a8:7c:43:0e:b9:49:70:5c:24:1f:28:34:12:05:
         39:9d:c1:ee:c9:9a:b5:f8:ae:e0:59:56:a3:dc:c4:b3:ee:85:
         48:5d:06:dc:55:43:ba:9c:b5:74:92:58:ee:89:32:cc:6c:9c:
         51:77:44:fb:14:63:70:bd:a7:fd:25:e5:8a:bb:36:79:fa:3f:
         4f:69:d2:dc:bd:af:f9:de:78:88:92:8c:82:54:26:9f:62:32:
         1f:91:49:38:64:d3:e3:d9:88:0e:23:7b:46:e5:80:79:55:90:
         60:95:b7:76:75:da:77:8a:b7:08:ed:c1:7c:28:91:61:c7:1e:
         29:b8:8d:ca:2e:99:03:93:54:a3:e8:e7:4d:a3:6e:3d:b4:07:
         ab:2d:77:33:0a:63:10:7f:d2:ee:b6:0e:f9:9a:b3:23:6a:44:
         a4:0e:90:66:0f:5b:32:fd:27:ac:2d:06:a1:0d:02:f7:05:6c:
         7f:5e:6e:e1:e0:b4:24:d5:b0:29:33:99:39:64:5e:c4:0a:30:
         75:87:bf:2b:3e:20:bd:b7:45:01:63:a4:9d:d6:37:db:a3:64:
         08:e2:aa:34:b2:32:a1:38:2c:c2:c7:a5:01:8b:f5:71:ff:5b:
         82:4a:ae:50:c4:de:61:ea:2d:05:30:b2:03:35:28:52:f3:62:
         51:4c:cc:70:c3:bc:8b:79:2c:60:04:ca:b6:da:8f:37:1f:86:
         30:ff:4f:09:7e:73:6c:fe:3f:0d:6e:81:21:88:bf:bf:29:14:
         ee:74:ce:bb:58:43:fd:7c:60:b7:d0:9a:78:9d:44:99:88:47:
         c0:85:87:01:42:cd:22:86:44:fe:36:fd:e4:b3:e1:24:eb:58:
         d8:5e:92:38:f1:e1:af:c4:4b:5c:c2:7e:4d:3e:02:ef:a4:9e:
         1c:9e:0d:66:18:b5:34:7f
-----BEGIN CERTIFICATE-----
MIIGrDCCBJSgAwIBAgICDPIwDQYJKoZIhvcNAQEEBQAwgawxCzAJBgNVBAYTAlVT
MQswCQYDVQQIEwJPSDERMA8GA1UEBxMIQ29sdW1idXMxEjAQBgNVBAoTCVZpa2lu
Z1ZQTjEdMBsGA1UECxMUTXlPcmdhbml6YXRpb25hbFVuaXQxFTATBgNVBAMTDFZp
a2luZ1ZQTiBDQTEQMA4GA1UEKRMHRWFzeVJTQTEhMB8GCSqGSIb3DQEJARYSbWVA
bXlob3N0Lm15ZG9tYWluMB4XDTE0MTEwOTEzMTk1NloXDTI0MTEwNjEzMTk1Nlow
HjEcMBoGA1UEAxMTQ2xpZW50OTA4Q2VydDdiMjQ5MTCCAiIwDQYJKoZIhvcNAQEB
BQADggIPADCCAgoCggIBAMZMaQfLlC+bVULuMZIW3PDLti8JX4MtGk3aEoBTq5e3
YyfNPfeOB2rqd8bDvgW9MoNj6rUaUuiOq4uT2OgTqupMQkIBhfSbmcG69AQ7gZZr
hhEKmCw8+/HDl+wPGdj+DakzK3TGnYLkHaj/3VPBZyOvNJK/jzjzvIDNtpD4x6cf
eJcZT5VGc0CfjH5mhJdGhpYpHK/fw4xzvCP1nMZNSomuBG/+cEWaz83RdrwlUVi2
C9l9nc8oX7nPCYz20ADbLNoQLpMtWglle7ERXLWft7nOGletTGv1WVam+B4UBSTe
kWdEcUW0jx4xTJc7KPvH8JWxocjrqZSbGzG/FaBtmd7/WbquXGeZKlW7hRKwBC79
12fuM+ggXx1ezARoJAb47gtjfWZqM7cNFDFLlQlolQz+ZS8SGDyPW8sAcchwiVwl
+ueiZCkMKL49c5fHcYYkuaR8aiQyAcjCmRJbqmXnD2Tk7u9wJlrbjLiMYMXtyExM
d6bEplnv7nSql/62nMdpDq3cX79uIc93wTsNK4VvngnIbY5TA2/NlpOGA0PakfWg
qDPfWXUVErmygNKWSD9j7j9EhskTgULnyLt3RbzqiVXmjVu4LEnog3V7anPXqeMY
m1qMW4aKaKGJUPl7XKSmAjrjVZPXL8iRSA2PM+8O6vwNrNSj2+zbhwmbTLBkgfVV
AgMBAAGjggFjMIIBXzAJBgNVHRMEAjAAMC0GCWCGSAGG+EIBDQQgFh5FYXN5LVJT
QSBHZW5lcmF0ZWQgQ2VydGlmaWNhdGUwHQYDVR0OBBYEFOOf7E/lQ5gaLheQMAGU
9F0P1SptMIHhBgNVHSMEgdkwgdaAFBLNYATSoICecO3Gmbh7LMZS/RmhoYGypIGv
MIGsMQswCQYDVQQGEwJVUzELMAkGA1UECBMCT0gxETAPBgNVBAcTCENvbHVtYnVz
MRIwEAYDVQQKEwlWaWtpbmdWUE4xHTAbBgNVBAsTFE15T3JnYW5pemF0aW9uYWxV
bml0MRUwEwYDVQQDEwxWaWtpbmdWUE4gQ0ExEDAOBgNVBCkTB0Vhc3lSU0ExITAf
BgkqhkiG9w0BCQEWEm1lQG15aG9zdC5teWRvbWFpboIJAM81he6Avyo+MBMGA1Ud
JQQMMAoGCCsGAQUFBwMCMAsGA1UdDwQEAwIHgDANBgkqhkiG9w0BAQQFAAOCAgEA
t4KN6fqsurm2NS2eb/SHDv9S+bJce5Cr88Jo32GMGZn9V75rhLW7U8HTqXmh0P7b
8IJ8ueIYqAq+4lA2GIY0pUqP6+Ei7Jmu5ngmjT8Cb9/BVOuXhRE+NNHIjqsMlPec
bH2JXEcSpqaaEuF+IBKk+UqCXbL7FfjSSgLb3oJhJ/aycZzBiA7YgleUz8Gq5e1d
ig287BlMxed31pRDNBjQjn1urJy9Q6h8Qw65SXBcJB8oNBIFOZ3B7smatfiu4FlW
o9zEs+6FSF0G3FVDupy1dJJY7okyzGycUXdE+xRjcL2n/SXlirs2efo/T2nS3L2v
+d54iJKMglQmn2IyH5FJOGTT49mIDiN7RuWAeVWQYJW3dnXad4q3CO3BfCiRYcce
KbiNyi6ZA5NUo+jnTaNuPbQHqy13MwpjEH/S7rYO+ZqzI2pEpA6QZg9bMv0nrC0G
oQ0C9wVsf15u4eC0JNWwKTOZOWRexAowdYe/Kz4gvbdFAWOkndY326NkCOKqNLIy
oTgswselAYv1cf9bgkquUMTeYeotBTCyAzUoUvNiUUzMcMO8i3ksYATKttqPNx+G
MP9PCX5zbP4/DW6BIYi/vykU7nTOu1hD/Xxgt9CaeJ1EmYhHwIWHAULNIoZE/jb9
5LPhJOtY2F6SOPHhr8RLXMJ+TT4C76SeHJ4NZhi1NH8=
-----END CERTIFICATE-----
