Certificate:
    Data:
        Version: 3 (0x2)
        Serial Number: 1695 (0x69f)
    Signature Algorithm: md5WithRSAEncryption
        Issuer: C=US, ST=OH, L=Columbus, O=VikingVPN, OU=MyOrganizationalUnit, CN=VikingVPN CA/name=EasyRSA/emailAddress=me@myhost.mydomain
        Validity
            Not Before: Apr 22 22:26:15 2014 GMT
            Not After : Apr 19 22:26:15 2024 GMT
        Subject: CN=Client605Cert54ff3a
        Subject Public Key Info:
            Public Key Algorithm: rsaEncryption
                Public-Key: (4096 bit)
                Modulus:
                    00:c0:36:5a:aa:f3:86:67:ad:c4:07:80:f2:a3:10:
                    3f:52:f0:2d:24:61:b7:d0:a2:30:b2:1c:da:5b:dc:
                    22:d1:9a:1c:d5:8c:5e:69:c2:b4:b9:34:3e:5b:3a:
                    98:6a:c1:cf:52:e7:34:c3:fa:2a:d9:99:ed:68:8e:
                    83:ff:a8:a8:de:6e:dd:9a:22:a8:75:95:8b:cf:9f:
                    43:3d:16:a1:57:82:7e:48:85:4a:b1:7b:cb:be:64:
                    28:a4:5d:66:9e:58:f2:88:84:60:29:5c:d1:ba:76:
                    61:58:3f:1e:56:84:91:b1:f9:c8:44:89:7e:4f:3b:
                    9c:cd:b8:81:4a:ab:7a:da:b5:80:67:fc:02:7f:49:
                    17:91:30:8d:c0:d0:b9:e2:ca:94:21:44:9d:d6:19:
                    1d:2f:d4:a5:32:df:3e:7c:cf:ae:5b:47:da:e2:dc:
                    c2:95:e3:13:90:39:54:49:b2:36:c5:37:72:8b:2b:
                    72:ba:35:e2:f5:04:fe:36:84:2c:fe:cd:b8:8e:c4:
                    99:0f:44:55:2d:63:7a:1c:34:5a:df:74:58:7e:b7:
                    99:ba:36:b7:5c:1f:ff:06:3a:6e:fe:1e:f0:4f:0f:
                    c8:5d:3c:f6:2a:33:c8:cb:0c:0c:15:24:ea:47:3c:
                    69:36:22:14:a9:e5:28:15:7a:be:e3:06:cf:6d:5f:
                    1b:fd:02:bc:21:5e:a4:bc:1a:0c:b2:6e:c1:00:5b:
                    09:da:ba:22:ca:42:de:a5:57:ba:a0:01:5c:ec:2d:
                    62:a0:d0:84:58:19:0f:b2:48:81:30:17:07:d2:3e:
                    4c:3e:64:f7:aa:e3:f9:ff:19:8b:df:62:89:02:ea:
                    1d:87:e4:cb:22:6b:0e:7b:46:85:c2:02:55:27:1c:
                    b0:8f:89:56:63:7e:fd:32:fc:0b:4c:2e:31:6b:45:
                    f1:12:bd:38:ec:76:7b:cf:f7:ef:ce:e4:8b:e5:93:
                    ef:99:dc:89:75:c7:23:5c:51:57:a2:0c:19:2e:14:
                    b7:64:de:ab:e5:35:1d:2c:be:dc:3c:45:ee:a7:75:
                    19:36:b1:1b:0b:f0:88:d5:07:47:0f:2c:d1:b0:ae:
                    d3:ee:b3:e6:b6:a3:c3:a3:f9:72:45:6b:27:ef:b8:
                    56:99:2c:ca:b5:5a:61:93:cb:72:03:09:5d:64:07:
                    3e:c6:51:82:78:ad:9b:0f:3c:6b:0d:90:2c:00:cb:
                    89:94:d5:0d:90:f7:f5:88:04:bf:ad:6d:4e:0e:c9:
                    33:61:48:13:b8:c4:86:93:2e:e1:6d:82:10:0a:4a:
                    57:4f:e5:98:d3:25:6e:b7:4e:7f:7b:5e:d5:18:e9:
                    8b:1f:dd:73:9c:fe:28:04:21:43:cd:24:bf:06:01:
                    09:5c:f3
                Exponent: 65537 (0x10001)
        X509v3 extensions:
            X509v3 Basic Constraints: 
                CA:FALSE
            Netscape Comment: 
                Easy-RSA Generated Certificate
            X509v3 Subject Key Identifier: 
                06:C7:E0:51:BA:25:0A:14:AB:5A:BC:FD:A4:37:3A:F0:5C:37:CE:77
            X509v3 Authority Key Identifier: 
                keyid:12:CD:60:04:D2:A0:80:9E:70:ED:C6:99:B8:7B:2C:C6:52:FD:19:A1
                DirName:/C=US/ST=OH/L=Columbus/O=VikingVPN/OU=MyOrganizationalUnit/CN=VikingVPN CA/name=EasyRSA/emailAddress=me@myhost.mydomain
                serial:CF:35:85:EE:80:BF:2A:3E

            X509v3 Extended Key Usage: 
                TLS Web Client Authentication
            X509v3 Key Usage: 
                Digital Signature
    Signature Algorithm: md5WithRSAEncryption
         22:01:a0:1a:fe:90:6a:24:69:46:c0:2f:fe:7a:8b:17:e4:b2:
         16:56:59:a4:ca:bd:d0:3c:ed:e0:13:34:54:16:37:e5:18:0d:
         60:34:67:db:29:24:b3:56:2b:56:8f:dc:43:bd:7c:fc:9d:8f:
         e7:d3:c6:1a:58:f9:8a:e0:57:89:c1:08:c1:07:d2:a8:bc:46:
         31:19:05:ec:17:e2:7b:e9:c2:44:59:e2:a6:29:5e:b5:6a:23:
         4a:8e:84:8b:5a:8d:52:d6:a3:04:98:ea:f3:bb:e9:6b:cc:bf:
         3d:58:7b:61:c9:d0:4c:cc:a5:17:62:e0:eb:fc:e7:b0:8c:30:
         4b:fd:72:7e:42:33:cd:fb:30:00:35:b2:f6:ec:de:e0:28:de:
         3e:ac:a3:94:19:67:bf:91:2f:3c:a8:e4:65:48:dc:53:e9:70:
         db:2a:a7:6e:26:0a:37:3c:79:ed:e2:67:e2:b5:8c:7d:94:7f:
         98:0d:b6:ba:b7:fa:74:03:27:e5:cf:fa:da:ab:a4:af:7a:69:
         26:83:6b:0e:ba:66:f6:a8:ca:96:03:6b:1b:9a:14:eb:b4:21:
         6a:9b:8f:d6:70:44:07:88:ba:56:cf:9d:c1:17:a8:c2:08:cb:
         e4:c5:b5:ab:2e:07:32:b6:a5:9b:42:3d:c7:94:b4:36:0f:0d:
         4d:cb:4a:75:4a:b5:df:2b:9f:b0:16:1b:ed:ff:64:7d:3d:48:
         0c:2c:52:52:d9:f6:03:9e:f0:78:a4:17:48:7b:e1:0f:2c:d2:
         0f:be:37:35:1d:b1:a7:0e:67:e9:f1:28:71:9a:ac:f5:cd:df:
         1a:b8:7d:c0:c2:50:a0:09:e1:e2:08:4d:61:73:59:ec:c5:f9:
         c1:21:81:18:75:e9:52:11:c6:9b:da:3f:ea:65:c9:ce:d6:b9:
         55:11:0f:70:ef:15:ff:95:e3:1d:f0:a9:90:47:37:85:95:44:
         94:cb:51:3e:9e:54:7b:fd:52:35:59:52:dc:d8:00:b4:ab:c2:
         8c:bd:52:9f:03:59:15:a7:89:8c:c0:0e:ce:ee:e4:1d:0b:e3:
         32:31:8f:26:8f:e9:b0:6c:7c:69:cf:1c:e7:d0:e0:a6:50:46:
         70:e8:31:91:5e:b5:87:43:14:f0:1f:28:eb:7d:39:2e:db:8a:
         00:6c:94:01:76:82:ee:7d:fc:cd:ef:fa:ce:de:0f:aa:e4:f3:
         f1:ec:de:9c:58:be:b7:b0:db:eb:34:6e:b4:3f:ac:f2:b3:49:
         bd:37:b5:a6:6a:66:67:c4:aa:92:78:77:6e:7a:e4:28:cc:5d:
         7b:e1:36:75:06:e2:e3:93:aa:65:6f:60:26:af:57:b3:10:5e:
         f5:87:78:89:3a:48:53:f3
-----BEGIN CERTIFICATE-----
MIIGrDCCBJSgAwIBAgICBp8wDQYJKoZIhvcNAQEEBQAwgawxCzAJBgNVBAYTAlVT
MQswCQYDVQQIEwJPSDERMA8GA1UEBxMIQ29sdW1idXMxEjAQBgNVBAoTCVZpa2lu
Z1ZQTjEdMBsGA1UECxMUTXlPcmdhbml6YXRpb25hbFVuaXQxFTATBgNVBAMTDFZp
a2luZ1ZQTiBDQTEQMA4GA1UEKRMHRWFzeVJTQTEhMB8GCSqGSIb3DQEJARYSbWVA
bXlob3N0Lm15ZG9tYWluMB4XDTE0MDQyMjIyMjYxNVoXDTI0MDQxOTIyMjYxNVow
HjEcMBoGA1UEAxMTQ2xpZW50NjA1Q2VydDU0ZmYzYTCCAiIwDQYJKoZIhvcNAQEB
BQADggIPADCCAgoCggIBAMA2WqrzhmetxAeA8qMQP1LwLSRht9CiMLIc2lvcItGa
HNWMXmnCtLk0Pls6mGrBz1LnNMP6KtmZ7WiOg/+oqN5u3ZoiqHWVi8+fQz0WoVeC
fkiFSrF7y75kKKRdZp5Y8oiEYClc0bp2YVg/HlaEkbH5yESJfk87nM24gUqretq1
gGf8An9JF5EwjcDQueLKlCFEndYZHS/UpTLfPnzPrltH2uLcwpXjE5A5VEmyNsU3
cosrcro14vUE/jaELP7NuI7EmQ9EVS1jehw0Wt90WH63mbo2t1wf/wY6bv4e8E8P
yF089iozyMsMDBUk6kc8aTYiFKnlKBV6vuMGz21fG/0CvCFepLwaDLJuwQBbCdq6
IspC3qVXuqABXOwtYqDQhFgZD7JIgTAXB9I+TD5k96rj+f8Zi99iiQLqHYfkyyJr
DntGhcICVSccsI+JVmN+/TL8C0wuMWtF8RK9OOx2e8/3787ki+WT75nciXXHI1xR
V6IMGS4Ut2Teq+U1HSy+3DxF7qd1GTaxGwvwiNUHRw8s0bCu0+6z5rajw6P5ckVr
J++4VpksyrVaYZPLcgMJXWQHPsZRgnitmw88aw2QLADLiZTVDZD39YgEv61tTg7J
M2FIE7jEhpMu4W2CEApKV0/lmNMlbrdOf3te1Rjpix/dc5z+KAQhQ80kvwYBCVzz
AgMBAAGjggFjMIIBXzAJBgNVHRMEAjAAMC0GCWCGSAGG+EIBDQQgFh5FYXN5LVJT
QSBHZW5lcmF0ZWQgQ2VydGlmaWNhdGUwHQYDVR0OBBYEFAbH4FG6JQoUq1q8/aQ3
OvBcN853MIHhBgNVHSMEgdkwgdaAFBLNYATSoICecO3Gmbh7LMZS/RmhoYGypIGv
MIGsMQswCQYDVQQGEwJVUzELMAkGA1UECBMCT0gxETAPBgNVBAcTCENvbHVtYnVz
MRIwEAYDVQQKEwlWaWtpbmdWUE4xHTAbBgNVBAsTFE15T3JnYW5pemF0aW9uYWxV
bml0MRUwEwYDVQQDEwxWaWtpbmdWUE4gQ0ExEDAOBgNVBCkTB0Vhc3lSU0ExITAf
BgkqhkiG9w0BCQEWEm1lQG15aG9zdC5teWRvbWFpboIJAM81he6Avyo+MBMGA1Ud
JQQMMAoGCCsGAQUFBwMCMAsGA1UdDwQEAwIHgDANBgkqhkiG9w0BAQQFAAOCAgEA
IgGgGv6QaiRpRsAv/nqLF+SyFlZZpMq90Dzt4BM0VBY35RgNYDRn2ykks1YrVo/c
Q718/J2P59PGGlj5iuBXicEIwQfSqLxGMRkF7Bfie+nCRFnipiletWojSo6Ei1qN
UtajBJjq87vpa8y/PVh7YcnQTMylF2Lg6/znsIwwS/1yfkIzzfswADWy9uze4Cje
PqyjlBlnv5EvPKjkZUjcU+lw2yqnbiYKNzx57eJn4rWMfZR/mA22urf6dAMn5c/6
2qukr3ppJoNrDrpm9qjKlgNrG5oU67QhapuP1nBEB4i6Vs+dwReowgjL5MW1qy4H
Mralm0I9x5S0Ng8NTctKdUq13yufsBYb7f9kfT1IDCxSUtn2A57weKQXSHvhDyzS
D743NR2xpw5n6fEocZqs9c3fGrh9wMJQoAnh4ghNYXNZ7MX5wSGBGHXpUhHGm9o/
6mXJzta5VREPcO8V/5XjHfCpkEc3hZVElMtRPp5Ue/1SNVlS3NgAtKvCjL1SnwNZ
FaeJjMAOzu7kHQvjMjGPJo/psGx8ac8c59DgplBGcOgxkV61h0MU8B8o6305LtuK
AGyUAXaC7n38ze/6zt4PquTz8ezenFi+t7Db6zRutD+s8rNJvTe1pmpmZ8Sqknh3
bnrkKMxde+E2dQbi45OqZW9gJq9XsxBe9Yd4iTpIU/M=
-----END CERTIFICATE-----
