Certificate:
    Data:
        Version: 3 (0x2)
        Serial Number: 12 (0xc)
    Signature Algorithm: md5WithRSAEncryption
        Issuer: C=US, ST=OH, L=Columbus, O=VikingVPN, OU=MyOrganizationalUnit, CN=VikingVPN CA/name=EasyRSA/emailAddress=me@myhost.mydomain
        Validity
            Not Before: Jul 16 23:11:12 2013 GMT
            Not After : Jul 14 23:11:12 2023 GMT
        Subject: CN=Client1Cert08c2b9
        Subject Public Key Info:
            Public Key Algorithm: rsaEncryption
                Public-Key: (4096 bit)
                Modulus:
                    00:d6:a8:56:3f:9c:4d:b1:29:a9:ba:5f:92:4b:1c:
                    7c:fc:80:bb:7b:61:fe:f6:cf:a0:f9:57:ab:af:ca:
                    1c:71:ff:5c:1a:98:7a:7b:96:d1:cf:3d:c1:06:0e:
                    3e:81:da:11:2b:17:34:25:36:44:dc:dc:89:7e:29:
                    6f:18:e8:68:64:01:41:42:e5:3b:be:2d:1a:67:fe:
                    9f:c1:f4:2c:bc:0d:57:19:7f:ff:2b:e7:f1:98:22:
                    08:2d:03:d6:29:71:24:ef:29:ec:9d:d3:6b:9a:75:
                    a0:a3:91:15:38:ee:c7:8e:0c:ef:37:28:89:1b:9b:
                    a1:9d:bb:ea:23:96:63:46:94:06:06:f6:84:b7:c0:
                    e1:79:35:97:fb:55:4b:73:dd:e2:09:f7:cb:af:7e:
                    e8:06:01:53:e2:89:3c:d6:f7:8a:81:aa:7f:77:8c:
                    2b:c4:ca:5f:4d:90:f5:b3:36:ad:de:51:3e:d7:61:
                    0d:bd:e7:d7:66:57:83:1a:20:db:6f:39:32:ae:81:
                    af:0b:a2:ee:2c:26:ca:b5:17:5b:8a:de:49:01:d2:
                    0d:0c:64:85:d1:ee:b0:fa:7a:d4:71:95:33:70:4f:
                    da:26:af:53:d0:7a:c5:85:73:e1:d3:c8:15:b2:85:
                    02:5a:39:22:5f:ca:90:5b:fc:d7:dc:6f:28:0b:ac:
                    15:de:18:e4:4a:65:5c:6f:26:07:fd:e0:58:0d:3e:
                    d2:f4:45:af:ca:63:2d:54:c6:1e:75:30:eb:01:37:
                    12:1f:a5:3b:73:b9:b0:17:40:9a:b0:f3:2a:d7:0d:
                    5e:16:59:fe:87:67:36:a9:f7:96:77:58:e8:26:1f:
                    26:7f:26:19:f0:7f:e1:4b:02:1d:1f:7b:5c:b2:32:
                    9e:4d:1a:9f:2c:5d:48:99:59:a8:d2:83:c7:a6:d9:
                    f2:9b:71:1a:1b:62:a1:55:37:6b:03:95:c2:85:df:
                    a8:23:b4:44:b0:30:25:ed:7c:37:15:dd:ec:95:a2:
                    e1:66:ae:58:d6:a7:c6:88:dc:7a:b9:eb:4d:11:ed:
                    2d:02:59:2e:f1:09:a7:5f:e5:bb:75:d0:f7:f3:ee:
                    64:44:7b:1f:0b:3c:d1:ad:6f:39:c3:80:6a:8c:8b:
                    b4:38:9f:31:0b:b5:3f:20:dd:a5:2d:3b:53:69:c1:
                    1c:99:95:04:ab:0e:2d:d7:10:af:d4:da:b6:31:3a:
                    89:94:a9:77:54:0d:5c:fb:d2:d0:67:14:06:a1:c4:
                    b6:a5:ed:72:6d:ea:dd:d8:49:9f:d1:96:dd:23:ab:
                    b3:c5:13:be:b8:eb:9f:14:43:0e:4c:de:17:ea:13:
                    8d:a9:61:8c:e5:42:ae:d0:b6:39:73:6f:8f:22:f9:
                    9f:c2:b5
                Exponent: 65537 (0x10001)
        X509v3 extensions:
            X509v3 Basic Constraints: 
                CA:FALSE
            Netscape Comment: 
                Easy-RSA Generated Certificate
            X509v3 Subject Key Identifier: 
                CA:C7:2D:E8:34:10:82:C0:66:80:F9:21:6F:48:16:1F:DC:9C:5B:E8
            X509v3 Authority Key Identifier: 
                keyid:12:CD:60:04:D2:A0:80:9E:70:ED:C6:99:B8:7B:2C:C6:52:FD:19:A1
                DirName:/C=US/ST=OH/L=Columbus/O=VikingVPN/OU=MyOrganizationalUnit/CN=VikingVPN CA/name=EasyRSA/emailAddress=me@myhost.mydomain
                serial:CF:35:85:EE:80:BF:2A:3E

            X509v3 Extended Key Usage: 
                TLS Web Client Authentication
            X509v3 Key Usage: 
                Digital Signature
    Signature Algorithm: md5WithRSAEncryption
         71:66:4e:68:ff:18:bb:b1:55:f7:90:64:b3:ec:89:2c:06:6b:
         d8:5e:f2:47:92:22:93:2d:15:cc:20:02:53:d7:7c:ca:62:3a:
         65:10:1b:07:36:90:0a:bb:57:82:2d:39:bb:00:89:31:ca:e6:
         e9:22:5a:87:12:b5:a9:2d:a4:2f:9a:ce:f8:26:4d:6f:6b:55:
         6c:cf:f6:b6:78:d3:69:3c:24:68:86:0d:da:c8:83:61:9e:fd:
         4f:30:c4:de:ee:02:f8:59:fa:1f:9a:42:f5:a2:ba:79:8a:fe:
         8f:f3:a5:46:34:af:53:43:87:8c:b2:92:aa:4c:4f:bd:70:46:
         bb:b4:80:1e:f1:8f:b0:7e:c6:c0:3a:56:12:b5:a0:42:a4:81:
         c7:6b:9a:4b:b8:b3:d9:d9:70:f3:26:75:7e:84:e5:2b:01:64:
         2e:f4:7b:37:1b:af:5d:a6:a2:e8:97:14:94:5b:67:e8:52:f1:
         a6:69:73:61:8a:da:f2:10:98:db:93:95:e5:d8:e8:ce:bc:b2:
         ee:ca:68:b0:a6:8e:e3:40:6b:fe:f5:a5:0f:7e:90:87:a5:7a:
         57:78:bb:73:5c:46:71:ad:7c:ac:fb:fa:8b:51:28:79:81:9e:
         69:ec:01:6c:a1:1a:31:6c:13:2d:48:88:bd:e9:eb:17:0c:40:
         27:38:c5:b5:b6:01:52:91:71:35:60:3e:08:f4:48:d7:de:8b:
         af:96:04:7d:81:10:e2:c2:96:65:e9:38:6e:fd:95:c6:91:41:
         ee:92:fc:54:d5:96:1e:49:2b:75:09:b2:13:0c:91:4a:ee:3b:
         77:0b:96:ea:e5:af:01:36:49:9e:6f:f6:dd:fa:19:7e:62:6b:
         d0:73:72:96:7c:69:f4:34:c5:c4:50:95:71:d5:e5:60:c1:6f:
         2a:22:20:05:8e:b5:ba:17:1c:3f:fa:52:7b:58:be:26:2a:bc:
         ba:2c:0e:96:a1:35:e5:af:4d:c0:26:fb:59:c0:28:2e:63:b7:
         bc:39:f5:02:7c:95:1a:31:55:61:09:1e:2a:e7:fd:7c:0c:b9:
         8a:08:86:e7:e5:ff:9b:70:d3:e6:c0:15:08:77:85:38:f2:2a:
         03:33:c5:06:17:6b:76:f7:2a:e8:49:68:9d:ba:03:86:cc:39:
         fa:03:10:79:73:df:1e:32:63:14:43:1f:3d:2d:30:0b:c2:5a:
         2c:e6:d7:20:ca:c0:70:62:93:ea:5d:9b:f1:0d:76:2b:16:cb:
         bb:31:47:d1:ff:39:7b:80:6d:bf:5b:92:ec:ba:fa:7e:92:1d:
         84:6b:4e:50:b7:09:51:ef:7e:73:07:c7:dd:d8:ca:98:34:7c:
         1a:cb:b5:64:28:df:56:dc
-----BEGIN CERTIFICATE-----
MIIGqTCCBJGgAwIBAgIBDDANBgkqhkiG9w0BAQQFADCBrDELMAkGA1UEBhMCVVMx
CzAJBgNVBAgTAk9IMREwDwYDVQQHEwhDb2x1bWJ1czESMBAGA1UEChMJVmlraW5n
VlBOMR0wGwYDVQQLExRNeU9yZ2FuaXphdGlvbmFsVW5pdDEVMBMGA1UEAxMMVmlr
aW5nVlBOIENBMRAwDgYDVQQpEwdFYXN5UlNBMSEwHwYJKoZIhvcNAQkBFhJtZUBt
eWhvc3QubXlkb21haW4wHhcNMTMwNzE2MjMxMTEyWhcNMjMwNzE0MjMxMTEyWjAc
MRowGAYDVQQDExFDbGllbnQxQ2VydDA4YzJiOTCCAiIwDQYJKoZIhvcNAQEBBQAD
ggIPADCCAgoCggIBANaoVj+cTbEpqbpfkkscfPyAu3th/vbPoPlXq6/KHHH/XBqY
enuW0c89wQYOPoHaESsXNCU2RNzciX4pbxjoaGQBQULlO74tGmf+n8H0LLwNVxl/
/yvn8ZgiCC0D1ilxJO8p7J3Ta5p1oKORFTjux44M7zcoiRuboZ276iOWY0aUBgb2
hLfA4Xk1l/tVS3Pd4gn3y69+6AYBU+KJPNb3ioGqf3eMK8TKX02Q9bM2rd5RPtdh
Db3n12ZXgxog2285Mq6Brwui7iwmyrUXW4reSQHSDQxkhdHusPp61HGVM3BP2iav
U9B6xYVz4dPIFbKFAlo5Il/KkFv819xvKAusFd4Y5EplXG8mB/3gWA0+0vRFr8pj
LVTGHnUw6wE3Eh+lO3O5sBdAmrDzKtcNXhZZ/odnNqn3lndY6CYfJn8mGfB/4UsC
HR97XLIynk0anyxdSJlZqNKDx6bZ8ptxGhtioVU3awOVwoXfqCO0RLAwJe18NxXd
7JWi4WauWNanxojcernrTRHtLQJZLvEJp1/lu3XQ9/PuZER7Hws80a1vOcOAaoyL
tDifMQu1PyDdpS07U2nBHJmVBKsOLdcQr9TatjE6iZSpd1QNXPvS0GcUBqHEtqXt
cm3q3dhJn9GW3SOrs8UTvrjrnxRDDkzeF+oTjalhjOVCrtC2OXNvjyL5n8K1AgMB
AAGjggFjMIIBXzAJBgNVHRMEAjAAMC0GCWCGSAGG+EIBDQQgFh5FYXN5LVJTQSBH
ZW5lcmF0ZWQgQ2VydGlmaWNhdGUwHQYDVR0OBBYEFMrHLeg0EILAZoD5IW9IFh/c
nFvoMIHhBgNVHSMEgdkwgdaAFBLNYATSoICecO3Gmbh7LMZS/RmhoYGypIGvMIGs
MQswCQYDVQQGEwJVUzELMAkGA1UECBMCT0gxETAPBgNVBAcTCENvbHVtYnVzMRIw
EAYDVQQKEwlWaWtpbmdWUE4xHTAbBgNVBAsTFE15T3JnYW5pemF0aW9uYWxVbml0
MRUwEwYDVQQDEwxWaWtpbmdWUE4gQ0ExEDAOBgNVBCkTB0Vhc3lSU0ExITAfBgkq
hkiG9w0BCQEWEm1lQG15aG9zdC5teWRvbWFpboIJAM81he6Avyo+MBMGA1UdJQQM
MAoGCCsGAQUFBwMCMAsGA1UdDwQEAwIHgDANBgkqhkiG9w0BAQQFAAOCAgEAcWZO
aP8Yu7FV95Bks+yJLAZr2F7yR5Iiky0VzCACU9d8ymI6ZRAbBzaQCrtXgi05uwCJ
Mcrm6SJahxK1qS2kL5rO+CZNb2tVbM/2tnjTaTwkaIYN2siDYZ79TzDE3u4C+Fn6
H5pC9aK6eYr+j/OlRjSvU0OHjLKSqkxPvXBGu7SAHvGPsH7GwDpWErWgQqSBx2ua
S7iz2dlw8yZ1foTlKwFkLvR7NxuvXaai6JcUlFtn6FLxpmlzYYra8hCY25OV5djo
zryy7sposKaO40Br/vWlD36Qh6V6V3i7c1xGca18rPv6i1EoeYGeaewBbKEaMWwT
LUiIvenrFwxAJzjFtbYBUpFxNWA+CPRI196Lr5YEfYEQ4sKWZek4bv2VxpFB7pL8
VNWWHkkrdQmyEwyRSu47dwuW6uWvATZJnm/23foZfmJr0HNylnxp9DTFxFCVcdXl
YMFvKiIgBY61uhccP/pSe1i+Jiq8uiwOlqE15a9NwCb7WcAoLmO3vDn1AnyVGjFV
YQkeKuf9fAy5igiG5+X/m3DT5sAVCHeFOPIqAzPFBhdrdvcq6ElonboDhsw5+gMQ
eXPfHjJjFEMfPS0wC8JaLObXIMrAcGKT6l2b8Q12KxbLuzFH0f85e4Btv1uS7Lr6
fpIdhGtOULcJUe9+cwfH3djKmDR8Gsu1ZCjfVtw=
-----END CERTIFICATE-----
