Certificate:
    Data:
        Version: 3 (0x2)
        Serial Number: 12593 (0x3131)
    Signature Algorithm: sha256WithRSAEncryption
        Issuer: C=US, ST=OH, L=Columbus, O=VikingVPN, OU=MyOrganizationalUnit, CN=VikingVPN CA/name=EasyRSA/emailAddress=me@myhost.mydomain
        Validity
            Not Before: Feb 22 03:26:21 2018 GMT
            Not After : Feb 20 03:26:21 2028 GMT
        Subject: CN=Client3230Cert9320d3
        Subject Public Key Info:
            Public Key Algorithm: rsaEncryption
                Public-Key: (4096 bit)
                Modulus:
                    00:cb:cb:3e:1d:ac:37:65:ae:2c:57:74:76:39:67:
                    41:e1:63:16:66:b7:b2:f8:2c:9c:fe:3c:31:38:db:
                    77:18:ee:03:64:3c:40:50:bc:dc:df:67:1c:3d:b2:
                    9a:82:b9:5a:d5:2b:63:ae:b5:31:f8:e8:bf:c8:e6:
                    32:d2:dd:3d:c6:f0:c5:05:3c:20:cb:dd:e6:5a:03:
                    18:d8:6d:43:e0:c6:ce:cf:40:6d:e7:b0:4e:da:31:
                    f9:2f:1f:ae:77:4e:6d:b7:46:f7:1c:2e:0c:86:c2:
                    4c:e0:21:13:42:8e:aa:05:fa:bd:94:17:c6:f8:e7:
                    0a:01:61:4b:9f:1c:f1:c4:5b:ba:76:93:52:0a:5c:
                    60:97:b0:4d:7d:51:a3:6b:4e:45:e3:0d:38:6c:a4:
                    e4:a2:a5:69:9e:26:3d:1f:53:4d:23:68:56:12:10:
                    ff:a6:ab:b1:a5:0c:3c:29:ef:63:c4:5d:8e:6c:82:
                    38:1b:fe:ad:2c:e1:06:f5:eb:c0:ff:72:7b:fd:00:
                    f0:5a:5a:72:a2:4a:d5:30:d7:9b:66:99:06:48:ec:
                    2b:29:0d:5a:25:94:73:7b:8d:0b:d9:f0:14:38:34:
                    06:7c:84:f3:a6:43:58:3d:d8:dc:22:2a:59:47:fb:
                    c3:f6:82:84:ba:2e:e3:e8:ff:76:9a:c9:49:66:e0:
                    ae:24:dc:26:a3:48:fa:6c:fa:ef:8c:da:e4:60:f4:
                    01:1f:14:62:ad:d3:68:f7:f7:a5:47:30:03:ae:0e:
                    36:03:f6:c3:d3:01:74:b7:2b:eb:b5:0c:eb:a3:9d:
                    1f:61:4a:20:fc:b6:9e:7b:32:c5:08:9a:e8:63:09:
                    8b:03:06:65:0c:86:cd:db:3a:81:e1:47:99:ad:5f:
                    31:4b:28:a0:07:e2:aa:ee:eb:1a:b8:d9:82:1f:8f:
                    9d:ab:21:eb:8f:60:e7:34:00:cb:5b:4e:a3:54:35:
                    3c:49:a7:75:14:1c:81:2d:8a:f3:a7:dd:6c:70:23:
                    ef:63:50:cc:f6:66:e7:ef:57:1b:58:6b:37:08:6b:
                    48:12:32:4e:6d:f9:01:b7:d5:c4:8c:76:6b:de:0a:
                    1a:7b:c5:1b:a8:22:63:0b:37:15:de:b3:e1:8a:0b:
                    d1:d7:1a:93:44:65:44:a6:3f:fb:3e:f2:64:69:88:
                    e7:7e:70:45:bd:66:cc:fa:93:04:9b:d4:ed:25:96:
                    3d:ae:b4:82:81:16:17:d7:f5:df:f9:39:e8:49:9d:
                    b5:98:57:40:1e:fd:e8:38:e0:81:5c:48:51:ea:7a:
                    55:0f:6d:4c:06:a7:34:7e:06:07:83:45:c1:f9:a9:
                    48:3f:50:70:5d:57:e1:d9:f9:b5:2b:c5:7d:65:5e:
                    2f:e2:19
                Exponent: 65537 (0x10001)
        X509v3 extensions:
            X509v3 Basic Constraints: 
                CA:FALSE
            Netscape Comment: 
                Easy-RSA Generated Certificate
            X509v3 Subject Key Identifier: 
                DB:E8:BA:39:41:5E:EA:25:D1:70:15:B5:C2:12:13:CA:56:9B:5E:AF
            X509v3 Authority Key Identifier: 
                keyid:12:CD:60:04:D2:A0:80:9E:70:ED:C6:99:B8:7B:2C:C6:52:FD:19:A1
                DirName:/C=US/ST=OH/L=Columbus/O=VikingVPN/OU=MyOrganizationalUnit/CN=VikingVPN CA/name=EasyRSA/emailAddress=me@myhost.mydomain
                serial:CF:35:85:EE:80:BF:2A:3E

            X509v3 Extended Key Usage: 
                TLS Web Client Authentication
            X509v3 Key Usage: 
                Digital Signature
    Signature Algorithm: sha256WithRSAEncryption
         40:10:e2:75:42:e3:7e:b0:7e:20:5f:e9:4c:f9:80:bb:f1:48:
         de:e9:fb:7b:2e:10:3d:9a:11:66:19:f0:05:a9:04:d8:6b:d4:
         d3:41:ea:89:7c:60:0a:86:b1:65:f2:a9:0b:a1:4a:c3:e5:92:
         92:4d:4b:37:12:c7:92:d6:6a:4d:e0:39:03:e5:96:73:68:8b:
         9f:60:47:d8:0d:09:65:14:9e:9d:01:0e:6e:bf:67:a3:d6:a6:
         f8:e9:10:8b:0c:66:fc:26:7f:33:b9:1f:2e:0c:66:c9:a4:2c:
         12:5b:6f:13:e6:2d:69:8e:63:e7:d8:f8:03:70:dc:7f:10:d8:
         22:cf:d7:6e:6f:c1:9b:ff:dd:83:7a:32:09:cc:bb:b3:d2:ba:
         a3:1a:50:1f:92:b7:22:75:17:b1:11:67:aa:95:4b:e2:8e:0e:
         52:ad:7c:12:36:95:88:a1:69:56:ee:d1:8d:32:0d:00:fd:65:
         a0:5f:f7:ab:3f:4d:02:71:25:30:34:b8:39:da:2f:98:f1:e1:
         b7:f3:90:7e:de:3a:85:f0:52:a3:ea:1e:3b:86:c3:4b:ef:ac:
         74:4b:68:50:aa:65:8a:b0:9c:cf:33:e2:d7:4b:4c:f3:24:8d:
         77:c8:bf:bf:25:52:5d:a9:80:b9:b1:61:d4:2b:e4:3e:cf:cc:
         37:a4:c4:cb:ca:a0:ec:50:5c:2e:d6:6d:cc:48:c5:95:74:9c:
         25:86:e8:a3:c1:96:65:1a:0d:36:b4:1b:b5:8e:ba:42:4e:09:
         11:12:42:47:24:6f:17:e2:cc:f6:d3:e6:4b:65:b1:e1:bf:f5:
         14:93:33:cc:9f:12:89:06:05:8e:d8:43:84:99:6b:c8:29:a4:
         d8:93:9e:d0:a9:af:9c:f0:05:d4:1e:3d:bd:fb:39:04:43:6c:
         d1:29:2e:77:11:67:b0:91:26:99:d7:fc:a6:bf:9b:c3:33:af:
         a1:52:75:bd:99:cd:ec:de:fd:c8:2d:6b:ce:0a:f3:ce:22:3e:
         3b:b9:66:22:37:cd:d1:3f:35:1f:6e:9c:63:95:72:93:8e:68:
         17:4c:32:4f:f0:43:50:1d:85:8d:40:dd:9c:b3:65:4a:93:87:
         3e:95:36:df:37:da:8a:5b:aa:d9:9c:66:9c:b4:1b:6d:f9:1b:
         19:1c:8e:02:e8:11:74:7f:89:64:ca:54:d1:7e:d1:ea:45:42:
         f9:9f:de:c5:19:15:6c:96:af:26:aa:b9:55:85:dc:b5:7d:1a:
         5f:22:37:ad:a6:a9:00:df:b0:41:2a:14:6a:5c:66:ac:aa:d2:
         8b:69:f6:02:fe:83:01:b1:3b:01:13:eb:cd:e5:a1:7a:e0:23:
         d1:f2:a7:7b:fc:9f:3f:89
-----BEGIN CERTIFICATE-----
MIIGrTCCBJWgAwIBAgICMTEwDQYJKoZIhvcNAQELBQAwgawxCzAJBgNVBAYTAlVT
MQswCQYDVQQIEwJPSDERMA8GA1UEBxMIQ29sdW1idXMxEjAQBgNVBAoTCVZpa2lu
Z1ZQTjEdMBsGA1UECxMUTXlPcmdhbml6YXRpb25hbFVuaXQxFTATBgNVBAMTDFZp
a2luZ1ZQTiBDQTEQMA4GA1UEKRMHRWFzeVJTQTEhMB8GCSqGSIb3DQEJARYSbWVA
bXlob3N0Lm15ZG9tYWluMB4XDTE4MDIyMjAzMjYyMVoXDTI4MDIyMDAzMjYyMVow
HzEdMBsGA1UEAxMUQ2xpZW50MzIzMENlcnQ5MzIwZDMwggIiMA0GCSqGSIb3DQEB
AQUAA4ICDwAwggIKAoICAQDLyz4drDdlrixXdHY5Z0HhYxZmt7L4LJz+PDE423cY
7gNkPEBQvNzfZxw9spqCuVrVK2OutTH46L/I5jLS3T3G8MUFPCDL3eZaAxjYbUPg
xs7PQG3nsE7aMfkvH653Tm23RvccLgyGwkzgIRNCjqoF+r2UF8b45woBYUufHPHE
W7p2k1IKXGCXsE19UaNrTkXjDThspOSipWmeJj0fU00jaFYSEP+mq7GlDDwp72PE
XY5sgjgb/q0s4Qb168D/cnv9APBaWnKiStUw15tmmQZI7CspDVollHN7jQvZ8BQ4
NAZ8hPOmQ1g92NwiKllH+8P2goS6LuPo/3aayUlm4K4k3CajSPps+u+M2uRg9AEf
FGKt02j396VHMAOuDjYD9sPTAXS3K+u1DOujnR9hSiD8tp57MsUImuhjCYsDBmUM
hs3bOoHhR5mtXzFLKKAH4qru6xq42YIfj52rIeuPYOc0AMtbTqNUNTxJp3UUHIEt
ivOn3WxwI+9jUMz2ZufvVxtYazcIa0gSMk5t+QG31cSMdmveChp7xRuoImMLNxXe
s+GKC9HXGpNEZUSmP/s+8mRpiOd+cEW9Zsz6kwSb1O0llj2utIKBFhfX9d/5OehJ
nbWYV0Ae/eg44IFcSFHqelUPbUwGpzR+BgeDRcH5qUg/UHBdV+HZ+bUrxX1lXi/i
GQIDAQABo4IBYzCCAV8wCQYDVR0TBAIwADAtBglghkgBhvhCAQ0EIBYeRWFzeS1S
U0EgR2VuZXJhdGVkIENlcnRpZmljYXRlMB0GA1UdDgQWBBTb6Lo5QV7qJdFwFbXC
EhPKVpterzCB4QYDVR0jBIHZMIHWgBQSzWAE0qCAnnDtxpm4eyzGUv0ZoaGBsqSB
rzCBrDELMAkGA1UEBhMCVVMxCzAJBgNVBAgTAk9IMREwDwYDVQQHEwhDb2x1bWJ1
czESMBAGA1UEChMJVmlraW5nVlBOMR0wGwYDVQQLExRNeU9yZ2FuaXphdGlvbmFs
VW5pdDEVMBMGA1UEAxMMVmlraW5nVlBOIENBMRAwDgYDVQQpEwdFYXN5UlNBMSEw
HwYJKoZIhvcNAQkBFhJtZUBteWhvc3QubXlkb21haW6CCQDPNYXugL8qPjATBgNV
HSUEDDAKBggrBgEFBQcDAjALBgNVHQ8EBAMCB4AwDQYJKoZIhvcNAQELBQADggIB
AEAQ4nVC436wfiBf6Uz5gLvxSN7p+3suED2aEWYZ8AWpBNhr1NNB6ol8YAqGsWXy
qQuhSsPlkpJNSzcSx5LWak3gOQPllnNoi59gR9gNCWUUnp0BDm6/Z6PWpvjpEIsM
ZvwmfzO5Hy4MZsmkLBJbbxPmLWmOY+fY+ANw3H8Q2CLP125vwZv/3YN6MgnMu7PS
uqMaUB+StyJ1F7ERZ6qVS+KODlKtfBI2lYihaVbu0Y0yDQD9ZaBf96s/TQJxJTA0
uDnaL5jx4bfzkH7eOoXwUqPqHjuGw0vvrHRLaFCqZYqwnM8z4tdLTPMkjXfIv78l
Ul2pgLmxYdQr5D7PzDekxMvKoOxQXC7WbcxIxZV0nCWG6KPBlmUaDTa0G7WOukJO
CRESQkckbxfizPbT5ktlseG/9RSTM8yfEokGBY7YQ4SZa8gppNiTntCpr5zwBdQe
Pb37OQRDbNEpLncRZ7CRJpnX/Ka/m8Mzr6FSdb2Zzeze/cgta84K884iPju5ZiI3
zdE/NR9unGOVcpOOaBdMMk/wQ1AdhY1A3ZyzZUqThz6VNt832opbqtmcZpy0G235
GxkcjgLoEXR/iWTKVNF+0epFQvmf3sUZFWyWryaquVWF3LV9Gl8iN62mqQDfsEEq
FGpcZqyq0otp9gL+gwGxOwET683loXrgI9Hyp3v8nz+J
-----END CERTIFICATE-----
