Certificate:
    Data:
        Version: 3 (0x2)
        Serial Number: 4797 (0x12bd)
    Signature Algorithm: md5WithRSAEncryption
        Issuer: C=US, ST=OH, L=Columbus, O=VikingVPN, OU=MyOrganizationalUnit, CN=VikingVPN CA/name=EasyRSA/emailAddress=me@myhost.mydomain
        Validity
            Not Before: Mar 24 02:57:49 2015 GMT
            Not After : Mar 21 02:57:49 2025 GMT
        Subject: CN=Client1560Cert416d78
        Subject Public Key Info:
            Public Key Algorithm: rsaEncryption
                Public-Key: (4096 bit)
                Modulus:
                    00:d3:af:5e:2a:21:68:b1:8a:14:fe:f5:1e:ae:89:
                    f8:c1:ab:d2:4e:36:36:6b:49:2c:4e:d6:24:1c:72:
                    5c:dd:09:ed:33:b7:29:69:a6:df:90:a8:41:09:b9:
                    e7:59:53:67:68:42:94:6c:a0:9e:6a:cb:7b:5c:ea:
                    71:04:86:f9:ab:6b:25:4b:62:91:5e:08:ad:e8:ed:
                    a5:48:19:df:42:c8:9d:4d:b8:f7:fb:3a:15:6a:60:
                    86:ee:c6:e5:a3:1d:b4:f0:28:44:f0:96:51:74:d8:
                    ec:83:08:ae:1e:29:fe:c9:2b:cd:77:cd:9e:28:41:
                    38:50:fd:d5:b3:00:8f:2a:b7:1a:0f:9d:1a:07:dc:
                    28:6d:f6:4a:d7:14:08:c0:18:fb:94:74:fa:43:18:
                    46:05:00:14:30:1c:fb:a2:0c:3a:a9:61:a3:00:08:
                    58:a4:ed:82:66:8a:77:ea:71:b8:ef:1c:3a:5c:d8:
                    10:ad:c4:25:17:b2:09:55:0b:70:fa:93:4a:20:a4:
                    fb:a1:ff:da:c8:4b:ea:19:79:51:78:e9:07:64:88:
                    73:4e:3e:4d:e7:ce:df:e6:f6:9e:16:5d:e9:8e:3a:
                    31:90:70:b5:21:c2:46:b3:5f:63:ca:35:c8:4b:c7:
                    54:dd:f5:96:82:d1:7f:ff:68:4a:6c:80:95:c2:c9:
                    02:94:0e:e6:df:2a:07:6e:6f:d2:ee:44:ce:f0:3c:
                    b8:bc:a9:fc:c1:4e:3b:12:0b:e0:f2:71:3e:76:8c:
                    5c:79:63:33:bd:73:98:00:9a:54:d2:85:42:98:61:
                    ea:6b:98:cf:55:a6:d5:e3:3e:df:d1:b1:50:67:a3:
                    13:69:6a:c3:6e:84:c0:0b:a5:36:d2:30:ef:88:2c:
                    3b:c4:fe:0e:2f:bc:c0:ca:21:3e:52:41:8e:83:fb:
                    c5:96:bf:e6:fd:a0:0a:54:21:ac:e3:7b:2f:92:a9:
                    37:47:c3:3c:f4:d0:ef:cb:c4:f4:70:d3:03:fc:d1:
                    f7:59:38:49:9b:f8:28:c9:3f:92:53:5a:b1:fd:b3:
                    50:f2:f3:83:a6:be:f5:68:21:40:9c:82:4d:28:46:
                    29:c8:14:b2:36:c6:58:b9:45:ae:d9:f6:c2:af:b7:
                    2a:a4:bd:9b:22:26:b0:b1:3b:43:d0:65:9d:0e:9f:
                    83:89:00:9d:32:c8:83:7e:a7:ac:ff:89:64:65:3a:
                    ab:57:5f:41:c0:b0:9c:6a:82:07:29:4b:ba:1a:2f:
                    0d:89:be:85:fa:e9:8d:76:12:14:c5:9d:f8:81:01:
                    27:26:5d:bd:3b:76:6a:76:64:80:65:ea:32:42:81:
                    ec:77:bf:4e:e1:65:d2:a7:2b:ec:33:40:cf:19:83:
                    12:93:61
                Exponent: 65537 (0x10001)
        X509v3 extensions:
            X509v3 Basic Constraints: 
                CA:FALSE
            Netscape Comment: 
                Easy-RSA Generated Certificate
            X509v3 Subject Key Identifier: 
                54:66:FC:F5:C3:EF:2E:30:13:7A:91:C1:62:7E:EA:F9:C7:1C:FA:E8
            X509v3 Authority Key Identifier: 
                keyid:12:CD:60:04:D2:A0:80:9E:70:ED:C6:99:B8:7B:2C:C6:52:FD:19:A1
                DirName:/C=US/ST=OH/L=Columbus/O=VikingVPN/OU=MyOrganizationalUnit/CN=VikingVPN CA/name=EasyRSA/emailAddress=me@myhost.mydomain
                serial:CF:35:85:EE:80:BF:2A:3E

            X509v3 Extended Key Usage: 
                TLS Web Client Authentication
            X509v3 Key Usage: 
                Digital Signature
    Signature Algorithm: md5WithRSAEncryption
         da:a1:82:bd:58:03:27:fe:79:d4:d3:12:60:ee:cf:37:41:c0:
         a6:7c:f8:65:6b:d2:3b:5d:b5:48:62:61:38:7b:a9:b7:ad:7c:
         a6:96:ee:d3:51:18:4a:71:ad:55:1c:d7:98:4d:43:f6:55:05:
         30:5a:e1:7c:4f:d5:c5:92:24:72:45:af:5d:f3:15:5f:fd:ff:
         6d:f3:0a:c9:98:00:d2:0c:58:86:a2:e0:79:2c:94:74:5c:5b:
         37:fa:88:b8:c4:10:6c:42:f5:25:52:ea:85:a4:85:1c:1d:c6:
         23:84:e0:79:9f:4b:f5:31:cd:1d:7e:9f:46:06:c8:ca:91:26:
         c0:12:5a:1b:df:90:85:e7:2a:26:ee:bb:50:29:f1:0a:1b:36:
         78:32:77:ce:15:f2:1e:19:87:a1:ae:ab:92:2e:6c:dc:43:5c:
         17:a7:7f:bc:7e:20:9c:c2:c5:d2:4e:3f:90:fe:83:53:cd:2f:
         19:05:a6:bf:5b:85:20:d2:5a:aa:7f:c9:fe:9c:98:e1:ac:1f:
         3b:e5:01:d5:78:e2:fe:8d:e0:1a:2f:02:3a:ff:d3:2b:05:36:
         79:24:c4:d3:97:8b:cc:76:33:ee:48:5f:94:9a:00:f5:78:6f:
         00:30:92:38:be:62:d6:c1:97:a7:c8:ad:13:78:82:23:26:de:
         46:83:f9:df:5c:46:ce:3b:e0:f2:6f:08:10:46:09:1b:58:ef:
         27:65:4c:c7:2a:e8:7c:93:be:8b:8b:94:47:03:2e:44:90:e4:
         7f:24:49:e9:d4:97:95:41:ed:3d:ce:76:a1:8f:c0:f7:e9:e9:
         71:71:bc:4f:60:d9:da:55:48:ac:52:48:9b:57:f0:74:12:1e:
         eb:8c:55:06:29:d5:92:64:16:13:85:49:e4:03:37:d3:51:3f:
         e0:25:2f:56:0e:e0:1b:a9:f2:4c:26:f0:53:d3:b7:ef:ca:f0:
         e3:a4:7a:96:46:3b:f1:3b:43:93:20:28:8b:5b:7e:d0:7c:c4:
         e9:4e:7a:8f:d5:bc:b5:1a:b6:95:6f:37:99:e8:d7:f9:53:e7:
         99:bd:97:9a:c1:47:ab:58:7a:59:76:16:b1:ff:8b:17:ad:18:
         15:f2:89:54:82:46:1c:20:d7:3c:59:d4:f0:86:4d:d0:78:98:
         b6:cb:d9:bf:35:1a:53:10:0b:9d:23:f7:5b:48:97:20:a0:6e:
         d7:7e:99:61:88:61:b9:a7:f5:53:91:50:0e:90:56:2c:7a:af:
         ec:88:aa:86:b2:51:1c:c7:f3:72:54:63:30:02:20:f1:eb:0a:
         be:dc:95:d1:ff:68:8a:08:21:50:c8:bc:7c:85:63:d6:9f:36:
         9d:cd:d6:3a:1e:03:b1:ab
-----BEGIN CERTIFICATE-----
MIIGrTCCBJWgAwIBAgICEr0wDQYJKoZIhvcNAQEEBQAwgawxCzAJBgNVBAYTAlVT
MQswCQYDVQQIEwJPSDERMA8GA1UEBxMIQ29sdW1idXMxEjAQBgNVBAoTCVZpa2lu
Z1ZQTjEdMBsGA1UECxMUTXlPcmdhbml6YXRpb25hbFVuaXQxFTATBgNVBAMTDFZp
a2luZ1ZQTiBDQTEQMA4GA1UEKRMHRWFzeVJTQTEhMB8GCSqGSIb3DQEJARYSbWVA
bXlob3N0Lm15ZG9tYWluMB4XDTE1MDMyNDAyNTc0OVoXDTI1MDMyMTAyNTc0OVow
HzEdMBsGA1UEAxMUQ2xpZW50MTU2MENlcnQ0MTZkNzgwggIiMA0GCSqGSIb3DQEB
AQUAA4ICDwAwggIKAoICAQDTr14qIWixihT+9R6uifjBq9JONjZrSSxO1iQcclzd
Ce0ztylppt+QqEEJuedZU2doQpRsoJ5qy3tc6nEEhvmrayVLYpFeCK3o7aVIGd9C
yJ1NuPf7OhVqYIbuxuWjHbTwKETwllF02OyDCK4eKf7JK813zZ4oQThQ/dWzAI8q
txoPnRoH3Cht9krXFAjAGPuUdPpDGEYFABQwHPuiDDqpYaMACFik7YJminfqcbjv
HDpc2BCtxCUXsglVC3D6k0ogpPuh/9rIS+oZeVF46QdkiHNOPk3nzt/m9p4WXemO
OjGQcLUhwkazX2PKNchLx1Td9ZaC0X//aEpsgJXCyQKUDubfKgdub9LuRM7wPLi8
qfzBTjsSC+DycT52jFx5YzO9c5gAmlTShUKYYeprmM9VptXjPt/RsVBnoxNpasNu
hMALpTbSMO+ILDvE/g4vvMDKIT5SQY6D+8WWv+b9oApUIazjey+SqTdHwzz00O/L
xPRw0wP80fdZOEmb+CjJP5JTWrH9s1Dy84OmvvVoIUCcgk0oRinIFLI2xli5Ra7Z
9sKvtyqkvZsiJrCxO0PQZZ0On4OJAJ0yyIN+p6z/iWRlOqtXX0HAsJxqggcpS7oa
Lw2JvoX66Y12EhTFnfiBAScmXb07dmp2ZIBl6jJCgex3v07hZdKnK+wzQM8ZgxKT
YQIDAQABo4IBYzCCAV8wCQYDVR0TBAIwADAtBglghkgBhvhCAQ0EIBYeRWFzeS1S
U0EgR2VuZXJhdGVkIENlcnRpZmljYXRlMB0GA1UdDgQWBBRUZvz1w+8uMBN6kcFi
fur5xxz66DCB4QYDVR0jBIHZMIHWgBQSzWAE0qCAnnDtxpm4eyzGUv0ZoaGBsqSB
rzCBrDELMAkGA1UEBhMCVVMxCzAJBgNVBAgTAk9IMREwDwYDVQQHEwhDb2x1bWJ1
czESMBAGA1UEChMJVmlraW5nVlBOMR0wGwYDVQQLExRNeU9yZ2FuaXphdGlvbmFs
VW5pdDEVMBMGA1UEAxMMVmlraW5nVlBOIENBMRAwDgYDVQQpEwdFYXN5UlNBMSEw
HwYJKoZIhvcNAQkBFhJtZUBteWhvc3QubXlkb21haW6CCQDPNYXugL8qPjATBgNV
HSUEDDAKBggrBgEFBQcDAjALBgNVHQ8EBAMCB4AwDQYJKoZIhvcNAQEEBQADggIB
ANqhgr1YAyf+edTTEmDuzzdBwKZ8+GVr0jtdtUhiYTh7qbetfKaW7tNRGEpxrVUc
15hNQ/ZVBTBa4XxP1cWSJHJFr13zFV/9/23zCsmYANIMWIai4HkslHRcWzf6iLjE
EGxC9SVS6oWkhRwdxiOE4HmfS/UxzR1+n0YGyMqRJsASWhvfkIXnKibuu1Ap8Qob
Nngyd84V8h4Zh6Guq5IubNxDXBenf7x+IJzCxdJOP5D+g1PNLxkFpr9bhSDSWqp/
yf6cmOGsHzvlAdV44v6N4BovAjr/0ysFNnkkxNOXi8x2M+5IX5SaAPV4bwAwkji+
YtbBl6fIrRN4giMm3kaD+d9cRs474PJvCBBGCRtY7ydlTMcq6HyTvouLlEcDLkSQ
5H8kSenUl5VB7T3OdqGPwPfp6XFxvE9g2dpVSKxSSJtX8HQSHuuMVQYp1ZJkFhOF
SeQDN9NRP+AlL1YO4Bup8kwm8FPTt+/K8OOkepZGO/E7Q5MgKItbftB8xOlOeo/V
vLUatpVvN5no1/lT55m9l5rBR6tYell2FrH/ixetGBXyiVSCRhwg1zxZ1PCGTdB4
mLbL2b81GlMQC50j91tIlyCgbtd+mWGIYbmn9VORUA6QVix6r+yIqoayURzH83JU
YzACIPHrCr7cldH/aIoIIVDIvHyFY9afNp3N1joeA7Gr
-----END CERTIFICATE-----
