Certificate:
    Data:
        Version: 3 (0x2)
        Serial Number: 10137 (0x2799)
    Signature Algorithm: sha256WithRSAEncryption
        Issuer: C=US, ST=OH, L=Columbus, O=VikingVPN, OU=MyOrganizationalUnit, CN=VikingVPN CA/name=EasyRSA/emailAddress=me@myhost.mydomain
        Validity
            Not Before: Feb 16 19:27:23 2017 GMT
            Not After : Feb 14 19:27:23 2027 GMT
        Subject: CN=Client1702Certe91c74
        Subject Public Key Info:
            Public Key Algorithm: rsaEncryption
                Public-Key: (4096 bit)
                Modulus:
                    00:9f:72:3a:66:98:3e:84:cc:00:ca:74:ba:61:0e:
                    df:f0:aa:8a:d1:65:e0:e3:dc:b8:f4:f7:74:0a:00:
                    52:3d:bc:37:55:2e:01:f7:46:ca:2b:87:95:8d:81:
                    8f:8f:04:a3:20:64:38:44:70:02:0c:a4:7d:36:21:
                    05:c4:b9:29:db:ab:db:35:1b:bf:9b:f6:60:5f:d8:
                    06:32:0a:14:34:10:1c:e3:6a:fc:18:27:90:74:5b:
                    88:69:32:69:8b:6b:68:f7:39:6b:6d:d1:50:03:ea:
                    99:d3:15:32:b4:d2:7f:6e:b9:79:14:32:af:39:84:
                    dc:46:ac:27:36:02:36:ca:d2:7c:e4:e9:b1:8f:00:
                    ab:e1:da:1c:19:e0:ab:d2:a0:4d:ce:9a:80:49:4b:
                    31:28:57:46:77:cb:6a:00:8f:12:5a:51:3f:c8:78:
                    bf:55:0f:bc:39:49:c1:bd:18:9d:f7:af:13:8b:3d:
                    ff:5b:84:e4:02:9b:49:2e:2f:3a:13:c1:88:19:f5:
                    c3:98:2c:19:43:cc:64:86:2d:48:26:20:23:4f:bd:
                    ed:4e:64:81:77:27:a0:21:b1:11:84:80:8a:75:10:
                    c6:51:11:5c:7a:e3:a1:cf:ae:73:c4:55:8e:31:44:
                    7d:2b:4b:51:53:28:84:a2:4b:32:21:f8:f2:ea:3f:
                    4a:10:ff:d1:c1:86:cc:dc:ff:1f:dd:97:38:cc:80:
                    a0:2a:f0:11:8e:d7:2a:93:b1:fc:79:b6:d2:20:56:
                    33:f9:87:4b:df:98:e0:e3:c8:c4:5d:7b:a2:df:3f:
                    8f:3b:ba:72:f1:84:fe:36:d9:59:b8:55:2c:db:a3:
                    27:44:cb:2f:ab:02:1e:6e:8e:fe:5a:12:b0:47:a3:
                    81:06:e6:99:2f:22:45:31:b4:f1:69:78:9b:70:ac:
                    f3:ab:57:28:dd:d7:b9:fe:6d:c4:02:ce:13:92:4c:
                    4a:09:03:41:1b:46:a2:4b:a6:91:83:97:78:18:f1:
                    0e:a5:47:af:12:40:95:8b:47:30:d4:ca:92:01:24:
                    e4:59:f1:89:3c:93:5a:2f:b4:f8:b6:b4:ff:dc:a3:
                    a4:9d:25:9f:c1:c1:79:2e:5c:89:fe:e6:3c:d3:b1:
                    4a:2c:ba:18:64:fa:3c:a4:4e:5b:31:3a:15:68:d1:
                    7c:de:70:1c:f0:62:cf:c7:2f:a1:39:73:43:f1:ea:
                    06:6f:69:9a:da:53:f9:64:76:87:09:de:76:4b:e4:
                    cb:f0:af:76:e3:31:8d:a1:e9:c0:9d:c4:a4:39:0a:
                    8b:b8:da:a9:a2:b6:fc:a1:84:a0:e5:1f:18:2d:35:
                    65:eb:3a:a6:2c:73:f5:2b:75:cb:36:52:34:8d:36:
                    ac:5a:51
                Exponent: 65537 (0x10001)
        X509v3 extensions:
            X509v3 Basic Constraints: 
                CA:FALSE
            Netscape Comment: 
                Easy-RSA Generated Certificate
            X509v3 Subject Key Identifier: 
                5D:46:59:76:71:F4:28:37:FC:DF:74:67:D9:D6:5F:E1:55:03:95:BD
            X509v3 Authority Key Identifier: 
                keyid:12:CD:60:04:D2:A0:80:9E:70:ED:C6:99:B8:7B:2C:C6:52:FD:19:A1
                DirName:/C=US/ST=OH/L=Columbus/O=VikingVPN/OU=MyOrganizationalUnit/CN=VikingVPN CA/name=EasyRSA/emailAddress=me@myhost.mydomain
                serial:CF:35:85:EE:80:BF:2A:3E

            X509v3 Extended Key Usage: 
                TLS Web Client Authentication
            X509v3 Key Usage: 
                Digital Signature
    Signature Algorithm: sha256WithRSAEncryption
         c3:50:65:60:08:0e:3c:08:b5:6d:01:ab:cc:0a:fa:56:be:47:
         eb:6c:1e:6c:fd:3a:2a:70:7d:83:1a:97:f2:d5:bd:ed:60:be:
         8b:93:d8:98:ec:63:a6:8f:bf:b3:8f:7a:74:4e:56:ce:07:b1:
         75:d9:fe:78:a3:4f:e4:b2:a0:89:1d:60:02:cc:1c:33:b5:9d:
         a5:df:ae:82:af:81:3f:c3:74:8b:c3:dd:84:c8:9b:1e:61:00:
         14:19:b2:ae:9a:88:0b:95:b1:a8:0d:b3:45:de:0e:51:96:d9:
         db:db:42:23:20:84:be:81:98:5c:50:49:8f:6e:a3:fa:f1:b5:
         44:1a:e4:cd:e0:ce:7f:20:b2:c6:71:df:73:ac:fe:6b:65:2f:
         49:66:53:06:6b:c4:db:49:61:77:a9:e3:f1:d9:c8:e4:57:aa:
         c9:09:97:a7:54:2a:56:a9:52:9c:ab:2c:69:72:09:5d:b6:5e:
         b6:55:30:ba:f4:be:1d:72:b1:37:cf:22:01:4d:e0:10:09:c1:
         10:e0:63:61:0f:18:a2:e4:3a:ac:06:29:ed:09:cb:92:af:aa:
         e6:fb:34:a3:45:6c:9f:29:81:c3:d5:42:c9:b8:1b:a5:df:8c:
         ff:c5:b2:26:62:35:62:38:c9:a9:0b:23:4b:4f:92:31:b1:76:
         7f:cc:be:4b:82:af:cb:3e:12:ea:4d:f0:ea:cc:3f:ab:9f:c6:
         68:a1:41:72:7f:e1:42:e4:71:b0:1c:58:a4:2a:51:cf:9c:d1:
         55:22:09:59:1c:18:00:ab:82:e8:b0:6b:4e:3e:ed:0b:ca:6a:
         03:cd:4c:b8:2d:f0:1a:9c:c4:ed:e5:f6:9a:32:35:13:6a:46:
         7c:07:5a:9b:6c:b6:29:dc:74:d5:62:16:63:73:67:7a:db:63:
         74:82:dc:74:6f:15:fb:b2:4f:13:4c:4f:a1:6c:f5:7a:48:a6:
         ba:d6:48:aa:ac:37:ac:0c:ae:56:40:a6:0d:b4:16:03:ed:be:
         f6:a7:1b:ed:f6:e5:a9:b4:71:3c:7b:25:01:86:70:0f:a2:d0:
         f0:f7:75:a5:c3:0a:63:c8:78:cb:6a:49:af:d7:24:14:c7:68:
         b0:08:8d:18:e5:16:4d:c9:f7:5b:e2:d1:e8:77:e3:96:d2:92:
         5d:81:16:0a:9a:45:9b:3c:6f:f8:89:34:2e:a7:6a:bf:3a:e4:
         76:18:7e:10:58:d9:cd:00:28:be:bc:b8:56:fd:82:85:87:50:
         15:af:e8:ac:1f:2b:eb:6f:7d:46:05:e0:d2:a4:bf:fd:39:cb:
         a5:f5:b9:85:a7:36:4a:f4:04:58:17:2f:89:e9:d0:61:a5:f8:
         d9:a6:9f:59:25:e2:7a:ec
-----BEGIN CERTIFICATE-----
MIIGrTCCBJWgAwIBAgICJ5kwDQYJKoZIhvcNAQELBQAwgawxCzAJBgNVBAYTAlVT
MQswCQYDVQQIEwJPSDERMA8GA1UEBxMIQ29sdW1idXMxEjAQBgNVBAoTCVZpa2lu
Z1ZQTjEdMBsGA1UECxMUTXlPcmdhbml6YXRpb25hbFVuaXQxFTATBgNVBAMTDFZp
a2luZ1ZQTiBDQTEQMA4GA1UEKRMHRWFzeVJTQTEhMB8GCSqGSIb3DQEJARYSbWVA
bXlob3N0Lm15ZG9tYWluMB4XDTE3MDIxNjE5MjcyM1oXDTI3MDIxNDE5MjcyM1ow
HzEdMBsGA1UEAxMUQ2xpZW50MTcwMkNlcnRlOTFjNzQwggIiMA0GCSqGSIb3DQEB
AQUAA4ICDwAwggIKAoICAQCfcjpmmD6EzADKdLphDt/wqorRZeDj3Lj093QKAFI9
vDdVLgH3Rsorh5WNgY+PBKMgZDhEcAIMpH02IQXEuSnbq9s1G7+b9mBf2AYyChQ0
EBzjavwYJ5B0W4hpMmmLa2j3OWtt0VAD6pnTFTK00n9uuXkUMq85hNxGrCc2AjbK
0nzk6bGPAKvh2hwZ4KvSoE3OmoBJSzEoV0Z3y2oAjxJaUT/IeL9VD7w5ScG9GJ33
rxOLPf9bhOQCm0kuLzoTwYgZ9cOYLBlDzGSGLUgmICNPve1OZIF3J6AhsRGEgIp1
EMZREVx646HPrnPEVY4xRH0rS1FTKISiSzIh+PLqP0oQ/9HBhszc/x/dlzjMgKAq
8BGO1yqTsfx5ttIgVjP5h0vfmODjyMRde6LfP487unLxhP422Vm4VSzboydEyy+r
Ah5ujv5aErBHo4EG5pkvIkUxtPFpeJtwrPOrVyjd17n+bcQCzhOSTEoJA0EbRqJL
ppGDl3gY8Q6lR68SQJWLRzDUypIBJORZ8Yk8k1ovtPi2tP/co6SdJZ/BwXkuXIn+
5jzTsUosuhhk+jykTlsxOhVo0XzecBzwYs/HL6E5c0Px6gZvaZraU/lkdocJ3nZL
5Mvwr3bjMY2h6cCdxKQ5Cou42qmitvyhhKDlHxgtNWXrOqYsc/Urdcs2UjSNNqxa
UQIDAQABo4IBYzCCAV8wCQYDVR0TBAIwADAtBglghkgBhvhCAQ0EIBYeRWFzeS1S
U0EgR2VuZXJhdGVkIENlcnRpZmljYXRlMB0GA1UdDgQWBBRdRll2cfQoN/zfdGfZ
1l/hVQOVvTCB4QYDVR0jBIHZMIHWgBQSzWAE0qCAnnDtxpm4eyzGUv0ZoaGBsqSB
rzCBrDELMAkGA1UEBhMCVVMxCzAJBgNVBAgTAk9IMREwDwYDVQQHEwhDb2x1bWJ1
czESMBAGA1UEChMJVmlraW5nVlBOMR0wGwYDVQQLExRNeU9yZ2FuaXphdGlvbmFs
VW5pdDEVMBMGA1UEAxMMVmlraW5nVlBOIENBMRAwDgYDVQQpEwdFYXN5UlNBMSEw
HwYJKoZIhvcNAQkBFhJtZUBteWhvc3QubXlkb21haW6CCQDPNYXugL8qPjATBgNV
HSUEDDAKBggrBgEFBQcDAjALBgNVHQ8EBAMCB4AwDQYJKoZIhvcNAQELBQADggIB
AMNQZWAIDjwItW0Bq8wK+la+R+tsHmz9OipwfYMal/LVve1gvouT2JjsY6aPv7OP
enROVs4HsXXZ/nijT+SyoIkdYALMHDO1naXfroKvgT/DdIvD3YTImx5hABQZsq6a
iAuVsagNs0XeDlGW2dvbQiMghL6BmFxQSY9uo/rxtUQa5M3gzn8gssZx33Os/mtl
L0lmUwZrxNtJYXep4/HZyORXqskJl6dUKlapUpyrLGlyCV22XrZVMLr0vh1ysTfP
IgFN4BAJwRDgY2EPGKLkOqwGKe0Jy5Kvqub7NKNFbJ8pgcPVQsm4G6XfjP/FsiZi
NWI4yakLI0tPkjGxdn/MvkuCr8s+EupN8OrMP6ufxmihQXJ/4ULkcbAcWKQqUc+c
0VUiCVkcGACrguiwa04+7QvKagPNTLgt8BqcxO3l9poyNRNqRnwHWptstincdNVi
FmNzZ3rbY3SC3HRvFfuyTxNMT6Fs9XpIprrWSKqsN6wMrlZApg20FgPtvvanG+32
5am0cTx7JQGGcA+i0PD3daXDCmPIeMtqSa/XJBTHaLAIjRjlFk3J91vi0eh345bS
kl2BFgqaRZs8b/iJNC6nar865HYYfhBY2c0AKL68uFb9goWHUBWv6KwfK+tvfUYF
4NKkv/05y6X1uYWnNkr0BFgXL4np0GGl+Nmmn1kl4nrs
-----END CERTIFICATE-----
