Certificate:
    Data:
        Version: 3 (0x2)
        Serial Number: 681 (0x2a9)
    Signature Algorithm: md5WithRSAEncryption
        Issuer: C=US, ST=OH, L=Columbus, O=VikingVPN, OU=MyOrganizationalUnit, CN=VikingVPN CA/name=EasyRSA/emailAddress=me@myhost.mydomain
        Validity
            Not Before: Dec 31 20:10:23 2013 GMT
            Not After : Dec 29 20:10:23 2023 GMT
        Subject: CN=Client267Cert3f6856
        Subject Public Key Info:
            Public Key Algorithm: rsaEncryption
                Public-Key: (4096 bit)
                Modulus:
                    00:a3:c7:4c:d6:73:e2:d2:b0:46:43:74:17:eb:09:
                    ff:84:93:66:cb:54:a1:e8:90:73:e3:ea:a0:29:a8:
                    49:10:d8:f5:26:5b:36:83:9a:f0:10:60:c2:05:4d:
                    04:46:19:cc:3c:80:22:38:3b:aa:36:13:f3:3b:d8:
                    a0:fa:e7:c0:b8:db:93:d3:6a:e5:c2:52:5b:5e:4a:
                    61:a9:67:e9:7a:5a:8a:37:7a:5c:82:f9:f5:75:6d:
                    db:bc:2c:54:35:1f:b0:48:71:76:7b:de:0b:80:1f:
                    56:5f:d9:a8:c2:a7:7e:4e:3e:0d:00:27:89:8d:d8:
                    36:27:a8:37:bc:7f:fe:fe:e5:45:bc:1e:05:34:c9:
                    1b:e8:05:6b:13:48:a9:66:84:51:23:4d:0e:1c:0e:
                    5d:61:18:a2:69:3f:37:32:1d:4d:70:1e:34:55:8e:
                    6e:73:28:79:4a:40:1a:d5:36:8f:87:68:ed:76:e1:
                    18:14:c5:d4:86:52:34:b1:18:c0:9f:e1:46:81:1d:
                    f0:4e:9e:7e:ad:36:31:ff:e3:14:76:38:6e:27:e5:
                    5f:58:36:0b:41:27:0c:32:2c:6b:04:10:91:27:c5:
                    18:45:49:7e:4e:b7:8f:42:42:43:fd:96:36:4f:54:
                    aa:e5:63:74:cf:0e:95:02:1d:0c:57:49:d3:fb:ed:
                    c4:f1:7c:d6:d7:14:90:60:ca:e3:33:14:6b:1d:70:
                    0e:58:ab:ac:9c:06:b4:90:d9:a0:21:ab:11:5d:35:
                    23:ea:68:7b:79:71:73:ba:22:b6:b2:2f:29:c5:1c:
                    f7:aa:d5:0b:df:2c:97:51:bc:ac:d2:2a:68:3c:72:
                    c1:25:66:f2:ab:ae:08:21:8b:ce:ea:da:7d:d7:66:
                    51:a4:5d:bb:02:7a:0d:91:5a:88:40:15:e7:9f:ee:
                    91:6e:c7:6b:70:23:60:87:b4:91:16:1d:bc:a3:f3:
                    93:65:27:53:6c:31:9c:3f:1b:69:7f:ef:e1:c4:bc:
                    74:17:c0:c3:e2:2c:e4:fb:00:2f:9c:72:67:0b:9a:
                    d4:bc:9e:8b:96:40:1c:95:18:4c:3b:ff:7c:13:91:
                    ac:38:8e:32:a6:d4:a2:3a:b2:6c:3c:3a:36:61:8c:
                    0c:42:6b:24:b0:50:40:ac:a8:aa:3c:26:f6:cc:a0:
                    a1:0c:71:6a:3d:e3:74:7e:4d:d8:60:52:93:11:af:
                    b7:63:1d:e7:25:74:eb:20:37:8b:90:0c:2d:f6:f3:
                    65:11:6b:4f:ba:43:17:e5:b7:73:c2:43:20:78:08:
                    2d:e1:ac:b1:ae:27:14:75:39:76:9f:3a:e9:35:bd:
                    5e:6a:40:5c:cb:88:16:57:37:4d:7a:5d:e8:16:4b:
                    9a:e7:c9
                Exponent: 65537 (0x10001)
        X509v3 extensions:
            X509v3 Basic Constraints: 
                CA:FALSE
            Netscape Comment: 
                Easy-RSA Generated Certificate
            X509v3 Subject Key Identifier: 
                8B:08:0F:BD:F1:76:EF:FD:39:E0:F5:68:77:38:82:3D:5D:1A:F5:5E
            X509v3 Authority Key Identifier: 
                keyid:12:CD:60:04:D2:A0:80:9E:70:ED:C6:99:B8:7B:2C:C6:52:FD:19:A1
                DirName:/C=US/ST=OH/L=Columbus/O=VikingVPN/OU=MyOrganizationalUnit/CN=VikingVPN CA/name=EasyRSA/emailAddress=me@myhost.mydomain
                serial:CF:35:85:EE:80:BF:2A:3E

            X509v3 Extended Key Usage: 
                TLS Web Client Authentication
            X509v3 Key Usage: 
                Digital Signature
    Signature Algorithm: md5WithRSAEncryption
         54:a0:af:fd:f6:8a:71:73:d2:79:21:b4:58:4b:5d:97:21:02:
         e9:34:7a:a3:5e:80:7f:a0:95:00:cd:29:90:72:ca:57:f3:06:
         bb:e4:f6:bd:c4:10:f8:48:d4:fc:20:ae:0e:68:8e:55:5b:69:
         db:c6:0b:f1:9d:da:c9:2a:7e:63:81:7f:ee:84:68:a2:97:6b:
         5a:81:ff:8c:d3:2b:01:c0:91:04:97:97:20:44:ad:8e:7f:b7:
         65:bb:12:d0:09:e1:76:bf:4d:9d:a5:87:be:78:e1:3b:e2:90:
         6e:00:cd:6e:7f:9b:26:e5:35:40:6e:61:6b:c1:62:6c:39:66:
         39:b2:3d:c3:5f:eb:e3:b5:e8:ce:50:bd:95:f0:00:25:2b:9c:
         6a:4a:fc:e0:11:5c:c8:e2:73:f9:c4:14:49:50:97:07:82:bc:
         8a:22:ed:40:fa:73:f8:ee:01:cd:53:bd:37:2c:2b:ef:d5:57:
         d2:88:7c:5c:a4:6e:9e:f7:46:87:ce:96:57:fd:1b:21:b8:65:
         59:4b:cf:ed:e1:7d:8a:38:ee:38:86:c7:73:6a:43:c5:16:21:
         1e:0e:21:be:83:a4:fe:cf:21:c7:8b:d2:d3:bd:54:9b:6e:23:
         fa:e2:a2:d6:e2:b7:db:b1:3a:86:fd:3c:11:07:82:bc:26:fc:
         61:f7:e0:56:fc:8a:54:4a:56:32:3b:ba:95:9b:60:e8:ab:10:
         6b:be:3b:55:85:e2:3c:9e:11:ff:a3:5c:69:5d:be:a9:65:2f:
         85:0c:cc:e0:77:b7:05:f5:c9:a1:b3:6c:60:35:29:17:21:69:
         8f:1c:e6:bc:6a:88:c2:f2:c9:92:6b:7b:3b:5b:c0:5d:d6:76:
         05:0a:17:2e:c4:a7:e1:55:32:a4:cc:4c:a4:ca:09:36:76:c3:
         aa:a1:ae:3f:8a:ac:9a:e1:c6:ea:a0:b1:0f:47:6f:23:3d:00:
         65:17:0f:eb:dd:5a:06:41:0b:be:ff:66:8f:e7:a8:05:82:28:
         87:a1:c2:3e:b8:98:76:bf:70:e0:b4:5f:57:a0:85:da:89:0e:
         69:ac:72:1e:77:bb:a6:c0:b1:5f:b2:48:79:eb:52:85:bf:e8:
         46:2e:7e:ef:26:34:f3:74:24:8a:fc:50:d4:76:ac:4f:af:b8:
         f7:5b:a8:2b:23:ee:1a:12:82:bc:14:04:7e:b7:f7:bb:89:32:
         1c:a4:be:03:cf:f2:cd:63:94:a7:d7:38:0c:4c:62:a6:ce:bc:
         92:a9:2b:d1:9c:5b:e5:54:93:ce:dc:a7:15:af:c6:70:f8:fc:
         56:1e:2e:a2:f4:6a:40:96:86:ae:00:ed:2c:d1:6d:2b:0e:d3:
         ea:04:05:ed:18:c4:92:f2
-----BEGIN CERTIFICATE-----
MIIGrDCCBJSgAwIBAgICAqkwDQYJKoZIhvcNAQEEBQAwgawxCzAJBgNVBAYTAlVT
MQswCQYDVQQIEwJPSDERMA8GA1UEBxMIQ29sdW1idXMxEjAQBgNVBAoTCVZpa2lu
Z1ZQTjEdMBsGA1UECxMUTXlPcmdhbml6YXRpb25hbFVuaXQxFTATBgNVBAMTDFZp
a2luZ1ZQTiBDQTEQMA4GA1UEKRMHRWFzeVJTQTEhMB8GCSqGSIb3DQEJARYSbWVA
bXlob3N0Lm15ZG9tYWluMB4XDTEzMTIzMTIwMTAyM1oXDTIzMTIyOTIwMTAyM1ow
HjEcMBoGA1UEAxMTQ2xpZW50MjY3Q2VydDNmNjg1NjCCAiIwDQYJKoZIhvcNAQEB
BQADggIPADCCAgoCggIBAKPHTNZz4tKwRkN0F+sJ/4STZstUoeiQc+PqoCmoSRDY
9SZbNoOa8BBgwgVNBEYZzDyAIjg7qjYT8zvYoPrnwLjbk9Nq5cJSW15KYaln6Xpa
ijd6XIL59XVt27wsVDUfsEhxdnveC4AfVl/ZqMKnfk4+DQAniY3YNieoN7x//v7l
RbweBTTJG+gFaxNIqWaEUSNNDhwOXWEYomk/NzIdTXAeNFWObnMoeUpAGtU2j4do
7XbhGBTF1IZSNLEYwJ/hRoEd8E6efq02Mf/jFHY4biflX1g2C0EnDDIsawQQkSfF
GEVJfk63j0JCQ/2WNk9UquVjdM8OlQIdDFdJ0/vtxPF81tcUkGDK4zMUax1wDlir
rJwGtJDZoCGrEV01I+poe3lxc7oitrIvKcUc96rVC98sl1G8rNIqaDxywSVm8quu
CCGLzurafddmUaRduwJ6DZFaiEAV55/ukW7Ha3AjYIe0kRYdvKPzk2UnU2wxnD8b
aX/v4cS8dBfAw+Is5PsAL5xyZwua1Lyei5ZAHJUYTDv/fBORrDiOMqbUojqybDw6
NmGMDEJrJLBQQKyoqjwm9sygoQxxaj3jdH5N2GBSkxGvt2Md5yV06yA3i5AMLfbz
ZRFrT7pDF+W3c8JDIHgILeGssa4nFHU5dp866TW9XmpAXMuIFlc3TXpd6BZLmufJ
AgMBAAGjggFjMIIBXzAJBgNVHRMEAjAAMC0GCWCGSAGG+EIBDQQgFh5FYXN5LVJT
QSBHZW5lcmF0ZWQgQ2VydGlmaWNhdGUwHQYDVR0OBBYEFIsID73xdu/9OeD1aHc4
gj1dGvVeMIHhBgNVHSMEgdkwgdaAFBLNYATSoICecO3Gmbh7LMZS/RmhoYGypIGv
MIGsMQswCQYDVQQGEwJVUzELMAkGA1UECBMCT0gxETAPBgNVBAcTCENvbHVtYnVz
MRIwEAYDVQQKEwlWaWtpbmdWUE4xHTAbBgNVBAsTFE15T3JnYW5pemF0aW9uYWxV
bml0MRUwEwYDVQQDEwxWaWtpbmdWUE4gQ0ExEDAOBgNVBCkTB0Vhc3lSU0ExITAf
BgkqhkiG9w0BCQEWEm1lQG15aG9zdC5teWRvbWFpboIJAM81he6Avyo+MBMGA1Ud
JQQMMAoGCCsGAQUFBwMCMAsGA1UdDwQEAwIHgDANBgkqhkiG9w0BAQQFAAOCAgEA
VKCv/faKcXPSeSG0WEtdlyEC6TR6o16Af6CVAM0pkHLKV/MGu+T2vcQQ+EjU/CCu
DmiOVVtp28YL8Z3aySp+Y4F/7oRoopdrWoH/jNMrAcCRBJeXIEStjn+3ZbsS0Anh
dr9NnaWHvnjhO+KQbgDNbn+bJuU1QG5ha8FibDlmObI9w1/r47XozlC9lfAAJSuc
akr84BFcyOJz+cQUSVCXB4K8iiLtQPpz+O4BzVO9Nywr79VX0oh8XKRunvdGh86W
V/0bIbhlWUvP7eF9ijjuOIbHc2pDxRYhHg4hvoOk/s8hx4vS071Um24j+uKi1uK3
27E6hv08EQeCvCb8YffgVvyKVEpWMju6lZtg6KsQa747VYXiPJ4R/6NcaV2+qWUv
hQzM4He3BfXJobNsYDUpFyFpjxzmvGqIwvLJkmt7O1vAXdZ2BQoXLsSn4VUypMxM
pMoJNnbDqqGuP4qsmuHG6qCxD0dvIz0AZRcP691aBkELvv9mj+eoBYIoh6HCPriY
dr9w4LRfV6CF2okOaaxyHne7psCxX7JIeetShb/oRi5+7yY083QkivxQ1HasT6+4
91uoKyPuGhKCvBQEfrf3u4kyHKS+A8/yzWOUp9c4DExips68kqkr0Zxb5VSTztyn
Fa/GcPj8Vh4uovRqQJaGrgDtLNFtKw7T6gQF7RjEkvI=
-----END CERTIFICATE-----
