Certificate:
    Data:
        Version: 3 (0x2)
        Serial Number: 6788 (0x1a84)
    Signature Algorithm: md5WithRSAEncryption
        Issuer: C=US, ST=OH, L=Columbus, O=VikingVPN, OU=MyOrganizationalUnit, CN=VikingVPN CA/name=EasyRSA/emailAddress=me@myhost.mydomain
        Validity
            Not Before: Nov 27 19:52:03 2015 GMT
            Not After : Nov 24 19:52:03 2025 GMT
        Subject: CN=Client2076Cert26b7f1
        Subject Public Key Info:
            Public Key Algorithm: rsaEncryption
                Public-Key: (4096 bit)
                Modulus:
                    00:e8:04:16:99:89:42:94:da:90:ab:58:bc:75:f4:
                    8a:cd:c5:93:9a:a2:2a:3b:f0:34:c0:73:84:08:dc:
                    c3:e1:fc:12:39:39:d7:ff:5b:c3:fa:e7:0e:69:08:
                    5e:ed:88:7d:bb:65:e9:50:76:ab:95:ef:95:15:f2:
                    72:27:c0:b9:5a:c2:b2:ca:14:36:13:25:2a:be:21:
                    fa:13:30:17:52:e2:47:ed:b4:5a:c9:5d:19:e2:3a:
                    c6:dc:4c:51:6c:0e:2a:50:4d:99:04:d3:98:fb:75:
                    c9:08:b0:10:57:df:17:3a:8a:09:c9:6d:9b:ab:a0:
                    73:b6:12:3e:68:db:b7:8d:ce:05:1d:34:fe:7a:0d:
                    30:cf:0a:04:bf:97:72:3e:91:81:38:a6:6a:7b:7d:
                    48:7f:8d:29:25:f4:25:17:d7:d1:21:29:9a:06:74:
                    d9:a9:c9:c2:dc:55:4a:27:3b:4c:7a:1b:47:a7:fe:
                    87:53:43:7b:3c:8a:ac:cf:23:69:6c:d9:de:b3:f7:
                    4e:26:9d:66:d3:84:5c:ca:6b:d1:3b:6d:f0:b9:a3:
                    10:0b:62:14:8d:e3:bd:98:c7:f7:15:9f:6d:94:04:
                    44:07:c5:29:fc:27:4a:ee:fc:a4:6f:bf:88:20:1f:
                    6d:ba:60:50:9a:0b:1d:0c:ec:21:2a:93:14:d2:32:
                    cf:eb:78:06:ec:98:32:ba:e4:3d:ab:ef:d5:b2:86:
                    cb:0e:e1:ea:89:c3:84:bf:a7:4c:55:f6:a1:ec:82:
                    38:92:d6:9e:78:c7:9c:32:17:0f:eb:0a:3d:ed:42:
                    f3:41:84:7c:b0:5c:7e:be:13:d4:aa:2b:19:47:84:
                    e7:73:32:99:19:a6:48:99:14:e4:6a:0f:91:36:2a:
                    8e:a5:38:66:7f:09:f8:98:92:ea:bc:a9:26:15:6a:
                    56:05:81:97:76:70:b8:d1:7b:fb:0e:bd:62:13:42:
                    4b:65:db:f5:80:fe:99:68:98:72:82:0a:84:1f:e8:
                    0c:6f:0b:5f:4e:ce:7d:5f:fe:fa:8c:06:f8:3e:93:
                    43:a1:96:cb:3e:19:dd:27:34:0d:28:b6:8d:df:40:
                    25:d1:f8:9f:5a:18:eb:d8:79:cd:8e:f7:b2:04:ee:
                    25:4c:f4:37:f4:54:f9:a0:72:e4:fa:f9:ef:7b:8c:
                    2f:52:0c:bf:07:a2:f7:21:34:4f:0f:e4:2a:c9:62:
                    51:b5:20:c3:d1:0b:25:b0:b2:4c:85:6d:c1:da:0f:
                    ae:81:90:30:ba:64:c6:35:10:9a:c2:63:4a:65:8a:
                    84:29:1f:a8:42:28:3f:7c:b2:cd:79:a8:71:7c:3c:
                    64:05:e5:6a:bf:e8:8a:9c:74:42:c5:8e:a3:85:9f:
                    cc:b9:7d
                Exponent: 65537 (0x10001)
        X509v3 extensions:
            X509v3 Basic Constraints: 
                CA:FALSE
            Netscape Comment: 
                Easy-RSA Generated Certificate
            X509v3 Subject Key Identifier: 
                F9:B7:54:C8:FA:A1:2C:98:21:D4:90:E3:4B:CC:80:85:7E:F4:60:B7
            X509v3 Authority Key Identifier: 
                keyid:12:CD:60:04:D2:A0:80:9E:70:ED:C6:99:B8:7B:2C:C6:52:FD:19:A1
                DirName:/C=US/ST=OH/L=Columbus/O=VikingVPN/OU=MyOrganizationalUnit/CN=VikingVPN CA/name=EasyRSA/emailAddress=me@myhost.mydomain
                serial:CF:35:85:EE:80:BF:2A:3E

            X509v3 Extended Key Usage: 
                TLS Web Client Authentication
            X509v3 Key Usage: 
                Digital Signature
    Signature Algorithm: md5WithRSAEncryption
         66:61:e9:11:e7:79:bc:75:f8:2b:c5:6a:56:4f:d1:c5:4e:79:
         7f:d0:eb:16:da:cf:eb:b0:61:e0:ba:04:36:3e:70:53:1a:6b:
         fd:ad:1d:3c:d1:74:9e:56:10:b2:59:2e:9f:93:3b:02:af:bf:
         61:11:9a:be:d5:18:cc:cf:8c:0f:d3:35:75:d4:e4:e4:d9:80:
         c7:e7:eb:3c:a2:04:0c:f6:c9:61:9b:2d:26:da:d3:c7:86:c6:
         c3:21:e9:31:c2:2f:d5:dc:07:bc:18:43:3e:ca:7f:06:93:59:
         fd:04:07:b5:e5:b9:1e:44:1f:57:94:8a:ee:e3:7a:ce:09:70:
         df:17:68:12:f0:57:c9:35:63:2b:d8:8b:dc:27:37:52:a1:97:
         66:db:19:28:b8:f3:5d:69:a4:d7:ee:38:33:c6:9c:29:d8:1a:
         02:88:6d:62:46:fa:55:f8:9f:e8:e4:c8:77:3e:68:a7:0e:62:
         c8:e8:84:58:c6:c9:ef:a1:0e:0b:ab:62:1c:e8:00:16:59:a3:
         37:9f:4c:3a:31:98:19:6b:5a:1e:2e:be:ae:eb:a4:b2:08:0e:
         59:06:60:04:c8:19:43:5f:26:be:8d:5c:b3:b9:81:b1:aa:6c:
         ef:e2:54:30:4c:eb:2d:ef:47:c7:63:b9:60:48:e2:2a:01:ea:
         fb:54:db:e5:75:fd:e6:9b:47:9d:cd:cc:6f:5f:c0:c6:5c:28:
         fb:64:83:8c:a6:83:6f:3c:11:eb:9d:66:5f:28:42:f5:3b:ff:
         a2:e0:48:23:42:04:51:70:2b:c4:7f:72:d4:1b:92:21:c3:77:
         16:aa:5d:59:60:2d:b1:b3:21:86:5b:cc:14:dd:e5:0e:dd:90:
         09:ff:bb:ff:61:8c:84:87:27:96:94:b4:6f:28:58:45:40:90:
         b9:b3:fa:bd:d1:fd:5e:c0:5f:a9:95:74:1e:36:bc:70:d0:c3:
         2f:bf:65:09:0b:a0:7b:bf:91:a4:2b:99:15:37:3a:bf:db:69:
         ee:27:4a:e7:f9:63:fc:1f:8b:d3:11:29:7c:20:e5:65:68:90:
         d0:00:20:d2:5a:0a:41:a9:fa:77:3f:c5:2d:d3:15:17:2f:50:
         9a:81:a1:9a:1a:1f:00:15:31:c7:21:6c:d1:73:81:b9:bd:6b:
         c0:1f:f2:00:69:f7:99:32:73:93:d6:e9:f6:3c:9d:18:78:03:
         d0:b2:a1:10:af:d5:c7:d1:c8:b4:df:21:62:df:f4:3c:c2:be:
         ea:4f:78:2a:e8:82:c0:6a:0b:fc:6a:9c:9a:83:cb:4d:32:f9:
         68:e1:eb:fd:1d:20:49:2f:1a:d4:96:1f:61:9c:a3:d1:45:81:
         db:44:f5:ea:a3:20:91:3c
-----BEGIN CERTIFICATE-----
MIIGrTCCBJWgAwIBAgICGoQwDQYJKoZIhvcNAQEEBQAwgawxCzAJBgNVBAYTAlVT
MQswCQYDVQQIEwJPSDERMA8GA1UEBxMIQ29sdW1idXMxEjAQBgNVBAoTCVZpa2lu
Z1ZQTjEdMBsGA1UECxMUTXlPcmdhbml6YXRpb25hbFVuaXQxFTATBgNVBAMTDFZp
a2luZ1ZQTiBDQTEQMA4GA1UEKRMHRWFzeVJTQTEhMB8GCSqGSIb3DQEJARYSbWVA
bXlob3N0Lm15ZG9tYWluMB4XDTE1MTEyNzE5NTIwM1oXDTI1MTEyNDE5NTIwM1ow
HzEdMBsGA1UEAxMUQ2xpZW50MjA3NkNlcnQyNmI3ZjEwggIiMA0GCSqGSIb3DQEB
AQUAA4ICDwAwggIKAoICAQDoBBaZiUKU2pCrWLx19IrNxZOaoio78DTAc4QI3MPh
/BI5Odf/W8P65w5pCF7tiH27ZelQdquV75UV8nInwLlawrLKFDYTJSq+IfoTMBdS
4kfttFrJXRniOsbcTFFsDipQTZkE05j7dckIsBBX3xc6ignJbZuroHO2Ej5o27eN
zgUdNP56DTDPCgS/l3I+kYE4pmp7fUh/jSkl9CUX19EhKZoGdNmpycLcVUonO0x6
G0en/odTQ3s8iqzPI2ls2d6z904mnWbThFzKa9E7bfC5oxALYhSN472Yx/cVn22U
BEQHxSn8J0ru/KRvv4ggH226YFCaCx0M7CEqkxTSMs/reAbsmDK65D2r79WyhssO
4eqJw4S/p0xV9qHsgjiS1p54x5wyFw/rCj3tQvNBhHywXH6+E9SqKxlHhOdzMpkZ
pkiZFORqD5E2Ko6lOGZ/CfiYkuq8qSYValYFgZd2cLjRe/sOvWITQktl2/WA/plo
mHKCCoQf6AxvC19Ozn1f/vqMBvg+k0Ohlss+Gd0nNA0oto3fQCXR+J9aGOvYec2O
97IE7iVM9Df0VPmgcuT6+e97jC9SDL8HovchNE8P5CrJYlG1IMPRCyWwskyFbcHa
D66BkDC6ZMY1EJrCY0plioQpH6hCKD98ss15qHF8PGQF5Wq/6IqcdELFjqOFn8y5
fQIDAQABo4IBYzCCAV8wCQYDVR0TBAIwADAtBglghkgBhvhCAQ0EIBYeRWFzeS1S
U0EgR2VuZXJhdGVkIENlcnRpZmljYXRlMB0GA1UdDgQWBBT5t1TI+qEsmCHUkONL
zICFfvRgtzCB4QYDVR0jBIHZMIHWgBQSzWAE0qCAnnDtxpm4eyzGUv0ZoaGBsqSB
rzCBrDELMAkGA1UEBhMCVVMxCzAJBgNVBAgTAk9IMREwDwYDVQQHEwhDb2x1bWJ1
czESMBAGA1UEChMJVmlraW5nVlBOMR0wGwYDVQQLExRNeU9yZ2FuaXphdGlvbmFs
VW5pdDEVMBMGA1UEAxMMVmlraW5nVlBOIENBMRAwDgYDVQQpEwdFYXN5UlNBMSEw
HwYJKoZIhvcNAQkBFhJtZUBteWhvc3QubXlkb21haW6CCQDPNYXugL8qPjATBgNV
HSUEDDAKBggrBgEFBQcDAjALBgNVHQ8EBAMCB4AwDQYJKoZIhvcNAQEEBQADggIB
AGZh6RHnebx1+CvFalZP0cVOeX/Q6xbaz+uwYeC6BDY+cFMaa/2tHTzRdJ5WELJZ
Lp+TOwKvv2ERmr7VGMzPjA/TNXXU5OTZgMfn6zyiBAz2yWGbLSba08eGxsMh6THC
L9XcB7wYQz7KfwaTWf0EB7XluR5EH1eUiu7jes4JcN8XaBLwV8k1YyvYi9wnN1Kh
l2bbGSi4811ppNfuODPGnCnYGgKIbWJG+lX4n+jkyHc+aKcOYsjohFjGye+hDgur
YhzoABZZozefTDoxmBlrWh4uvq7rpLIIDlkGYATIGUNfJr6NXLO5gbGqbO/iVDBM
6y3vR8djuWBI4ioB6vtU2+V1/eabR53NzG9fwMZcKPtkg4ymg288EeudZl8oQvU7
/6LgSCNCBFFwK8R/ctQbkiHDdxaqXVlgLbGzIYZbzBTd5Q7dkAn/u/9hjISHJ5aU
tG8oWEVAkLmz+r3R/V7AX6mVdB42vHDQwy+/ZQkLoHu/kaQrmRU3Or/bae4nSuf5
Y/wfi9MRKXwg5WVokNAAINJaCkGp+nc/xS3TFRcvUJqBoZoaHwAVMcchbNFzgbm9
a8Af8gBp95kyc5PW6fY8nRh4A9CyoRCv1cfRyLTfIWLf9DzCvupPeCrogsBqC/xq
nJqDy00y+Wjh6/0dIEkvGtSWH2Gco9FFgdtE9eqjIJE8
-----END CERTIFICATE-----
