Certificate:
    Data:
        Version: 3 (0x2)
        Serial Number: 3748 (0xea4)
    Signature Algorithm: md5WithRSAEncryption
        Issuer: C=US, ST=OH, L=Columbus, O=VikingVPN, OU=MyOrganizationalUnit, CN=VikingVPN CA/name=EasyRSA/emailAddress=me@myhost.mydomain
        Validity
            Not Before: Dec 21 07:19:54 2014 GMT
            Not After : Dec 18 07:19:54 2024 GMT
        Subject: CN=Client1287Certd4633c
        Subject Public Key Info:
            Public Key Algorithm: rsaEncryption
                Public-Key: (4096 bit)
                Modulus:
                    00:a7:cd:56:c5:c7:1f:cc:19:61:15:87:7c:a3:76:
                    94:bc:95:1e:2b:fe:73:b1:aa:9e:93:c2:bb:19:44:
                    a0:6f:00:ec:c9:6f:24:a6:29:10:eb:30:58:8b:42:
                    39:90:57:bc:66:59:df:fb:c7:cd:1e:06:e5:be:0a:
                    93:75:a9:62:ef:8e:41:ed:cc:10:e9:85:ed:4f:6f:
                    d9:e0:4f:d0:1d:8d:9e:e6:26:90:2e:a6:de:37:45:
                    98:24:78:ac:43:19:b7:71:84:73:d6:7b:3e:15:07:
                    d9:26:0b:a3:d8:1a:08:a5:21:29:f3:5b:f4:01:27:
                    55:96:e1:72:9e:3c:5b:4a:81:77:76:a4:1d:f6:61:
                    06:11:0b:5a:b8:71:a1:7e:b0:48:fb:64:97:5f:ab:
                    ae:24:97:a7:11:92:6e:f8:f2:b9:cd:3c:a9:4f:f5:
                    44:f7:e3:d1:b7:36:84:fd:9d:4c:60:c1:e2:55:09:
                    c4:c0:3f:e6:90:5c:23:5b:38:94:a2:1d:b0:2c:14:
                    df:d3:d9:e8:51:fa:ee:9e:be:f7:50:b3:7f:25:2e:
                    3d:f6:19:df:78:16:2b:1e:95:e7:87:a6:7a:34:b0:
                    7c:74:fa:5d:1a:80:c2:b1:86:1a:3f:bf:73:f8:30:
                    89:f7:c5:36:22:f2:92:be:88:65:0a:e8:47:0d:c4:
                    c3:c7:cb:a0:ca:34:5d:1e:19:c6:90:75:d3:ae:ba:
                    b4:be:62:c1:5b:6a:df:34:27:18:57:02:01:aa:45:
                    c1:68:d8:2e:ac:69:6a:9c:bb:f7:4b:b4:a2:57:24:
                    ca:81:2f:35:46:92:87:7b:37:92:e3:17:a8:4f:1e:
                    ba:0b:1e:fc:64:24:40:d7:10:02:eb:bb:fd:c5:ee:
                    0d:6a:c4:e3:02:72:5e:ec:13:4a:e2:4f:f7:8d:a0:
                    06:48:4e:eb:9f:59:b2:04:57:0b:c8:0d:04:e4:ee:
                    6a:32:b1:bb:18:98:0a:d0:2c:af:82:c7:08:3d:2b:
                    b0:30:69:e0:53:12:f0:6d:d9:61:e4:eb:5f:50:72:
                    38:79:cb:8c:a8:9e:fa:5e:5b:b3:89:dd:bb:60:5d:
                    5c:5e:ef:3c:2c:d4:cc:57:42:50:67:ca:61:c9:0f:
                    8b:b7:56:43:1b:a8:a5:1d:35:db:5d:e5:26:81:98:
                    af:c7:37:c0:65:f6:1a:26:30:01:6f:00:cd:80:57:
                    64:d5:68:d7:79:db:30:a0:24:0e:fa:a7:46:50:08:
                    ec:07:9b:cd:d8:de:aa:b2:4d:30:e4:ac:e6:9c:18:
                    f8:ea:f4:3f:4d:0f:30:f7:9e:71:bb:b8:1d:4a:b1:
                    48:54:dc:a4:98:59:ad:18:bf:39:1c:3e:4b:c9:e1:
                    07:91:3f
                Exponent: 65537 (0x10001)
        X509v3 extensions:
            X509v3 Basic Constraints: 
                CA:FALSE
            Netscape Comment: 
                Easy-RSA Generated Certificate
            X509v3 Subject Key Identifier: 
                A9:C8:A8:D1:38:AA:D0:1C:F4:3D:66:5F:DC:78:C4:A5:D4:BF:A5:4B
            X509v3 Authority Key Identifier: 
                keyid:12:CD:60:04:D2:A0:80:9E:70:ED:C6:99:B8:7B:2C:C6:52:FD:19:A1
                DirName:/C=US/ST=OH/L=Columbus/O=VikingVPN/OU=MyOrganizationalUnit/CN=VikingVPN CA/name=EasyRSA/emailAddress=me@myhost.mydomain
                serial:CF:35:85:EE:80:BF:2A:3E

            X509v3 Extended Key Usage: 
                TLS Web Client Authentication
            X509v3 Key Usage: 
                Digital Signature
    Signature Algorithm: md5WithRSAEncryption
         ba:f9:c5:47:17:23:33:b8:4b:16:d9:14:78:4f:4e:15:fb:b6:
         ea:84:97:76:22:a5:b2:0b:e8:ff:54:97:97:80:30:94:40:74:
         d7:f7:88:1d:63:cc:4a:7e:c2:45:ef:5a:b8:b4:1b:49:b2:78:
         13:7b:00:e8:82:43:a5:b2:29:53:59:e5:4c:a9:67:6d:4b:29:
         7f:34:b6:fd:04:8a:01:7a:54:f3:7c:62:8f:33:30:02:18:2b:
         77:78:68:b9:ca:67:6a:19:78:e2:32:ac:38:a0:fe:ae:b8:fa:
         5e:10:d3:f3:1a:ab:32:34:21:55:b2:29:32:15:5c:cb:e3:01:
         35:73:90:7f:ea:ef:28:3f:bc:a4:1f:1b:1d:70:f9:d0:bb:a5:
         fa:32:de:58:44:cd:d0:75:80:92:b7:12:19:ea:fe:00:52:f7:
         7b:df:62:a0:65:6a:9d:d9:fb:d2:b5:25:d9:0c:7e:a7:a9:36:
         09:0e:23:76:ae:bd:07:8d:d8:5a:58:fe:02:9a:61:b3:4a:45:
         fe:17:2d:99:50:d5:af:05:00:8a:4e:64:69:49:ad:e4:9d:45:
         86:a5:0c:c2:3c:72:e3:97:f4:f4:a9:96:9a:eb:23:0f:75:4f:
         35:d9:cc:79:fe:d6:72:e7:65:36:15:16:87:18:3e:a9:f0:51:
         f1:d5:dd:c8:ab:ad:62:12:97:07:d6:ce:9c:e4:20:db:b7:70:
         48:26:66:b6:41:0d:db:a1:a3:57:e2:69:74:5a:81:bb:ab:c5:
         07:93:ee:ec:aa:6a:fa:a6:55:39:0e:70:62:62:de:37:a8:e5:
         08:a7:bb:e1:89:10:67:e7:25:f8:2a:56:33:75:12:9c:9a:d4:
         38:9f:62:52:a9:52:66:30:e6:4a:01:60:dd:af:d9:9c:5b:9b:
         af:24:a5:fd:ee:e2:20:e5:de:49:cf:e4:8d:15:de:3b:0c:be:
         7f:22:7a:0a:e3:2e:03:91:c4:0c:dc:5b:a2:d4:f2:15:0c:0a:
         ae:ab:85:bc:52:ea:38:8d:2e:5c:7a:b2:90:82:b4:1d:f6:2c:
         e1:f0:1a:2d:eb:61:b4:6b:31:1c:8f:6a:3c:3e:95:46:73:09:
         10:2f:59:fe:01:50:52:a0:ed:9b:b7:07:0e:9e:1d:ca:b6:47:
         7e:61:57:08:16:5c:89:48:3a:5e:d6:51:cc:07:40:6b:19:94:
         7f:f1:e1:27:a5:8f:7c:26:88:cd:f2:de:99:e1:99:15:09:67:
         c9:26:d1:92:36:8e:e0:0b:8c:87:55:5f:fd:33:c6:63:ea:4c:
         02:b0:16:f0:4a:97:81:52:c2:d4:c7:a8:4a:7c:b7:99:15:c5:
         87:0d:05:62:81:00:65:f7
-----BEGIN CERTIFICATE-----
MIIGrTCCBJWgAwIBAgICDqQwDQYJKoZIhvcNAQEEBQAwgawxCzAJBgNVBAYTAlVT
MQswCQYDVQQIEwJPSDERMA8GA1UEBxMIQ29sdW1idXMxEjAQBgNVBAoTCVZpa2lu
Z1ZQTjEdMBsGA1UECxMUTXlPcmdhbml6YXRpb25hbFVuaXQxFTATBgNVBAMTDFZp
a2luZ1ZQTiBDQTEQMA4GA1UEKRMHRWFzeVJTQTEhMB8GCSqGSIb3DQEJARYSbWVA
bXlob3N0Lm15ZG9tYWluMB4XDTE0MTIyMTA3MTk1NFoXDTI0MTIxODA3MTk1NFow
HzEdMBsGA1UEAxMUQ2xpZW50MTI4N0NlcnRkNDYzM2MwggIiMA0GCSqGSIb3DQEB
AQUAA4ICDwAwggIKAoICAQCnzVbFxx/MGWEVh3yjdpS8lR4r/nOxqp6TwrsZRKBv
AOzJbySmKRDrMFiLQjmQV7xmWd/7x80eBuW+CpN1qWLvjkHtzBDphe1Pb9ngT9Ad
jZ7mJpAupt43RZgkeKxDGbdxhHPWez4VB9kmC6PYGgilISnzW/QBJ1WW4XKePFtK
gXd2pB32YQYRC1q4caF+sEj7ZJdfq64kl6cRkm748rnNPKlP9UT349G3NoT9nUxg
weJVCcTAP+aQXCNbOJSiHbAsFN/T2ehR+u6evvdQs38lLj32Gd94FiseleeHpno0
sHx0+l0agMKxhho/v3P4MIn3xTYi8pK+iGUK6EcNxMPHy6DKNF0eGcaQddOuurS+
YsFbat80JxhXAgGqRcFo2C6saWqcu/dLtKJXJMqBLzVGkod7N5LjF6hPHroLHvxk
JEDXEALru/3F7g1qxOMCcl7sE0riT/eNoAZITuufWbIEVwvIDQTk7moysbsYmArQ
LK+Cxwg9K7AwaeBTEvBt2WHk619Qcjh5y4yonvpeW7OJ3btgXVxe7zws1MxXQlBn
ymHJD4u3VkMbqKUdNdtd5SaBmK/HN8Bl9homMAFvAM2AV2TVaNd52zCgJA76p0ZQ
COwHm83Y3qqyTTDkrOacGPjq9D9NDzD3nnG7uB1KsUhU3KSYWa0YvzkcPkvJ4QeR
PwIDAQABo4IBYzCCAV8wCQYDVR0TBAIwADAtBglghkgBhvhCAQ0EIBYeRWFzeS1S
U0EgR2VuZXJhdGVkIENlcnRpZmljYXRlMB0GA1UdDgQWBBSpyKjROKrQHPQ9Zl/c
eMSl1L+lSzCB4QYDVR0jBIHZMIHWgBQSzWAE0qCAnnDtxpm4eyzGUv0ZoaGBsqSB
rzCBrDELMAkGA1UEBhMCVVMxCzAJBgNVBAgTAk9IMREwDwYDVQQHEwhDb2x1bWJ1
czESMBAGA1UEChMJVmlraW5nVlBOMR0wGwYDVQQLExRNeU9yZ2FuaXphdGlvbmFs
VW5pdDEVMBMGA1UEAxMMVmlraW5nVlBOIENBMRAwDgYDVQQpEwdFYXN5UlNBMSEw
HwYJKoZIhvcNAQkBFhJtZUBteWhvc3QubXlkb21haW6CCQDPNYXugL8qPjATBgNV
HSUEDDAKBggrBgEFBQcDAjALBgNVHQ8EBAMCB4AwDQYJKoZIhvcNAQEEBQADggIB
ALr5xUcXIzO4SxbZFHhPThX7tuqEl3YipbIL6P9Ul5eAMJRAdNf3iB1jzEp+wkXv
Wri0G0myeBN7AOiCQ6WyKVNZ5UypZ21LKX80tv0EigF6VPN8Yo8zMAIYK3d4aLnK
Z2oZeOIyrDig/q64+l4Q0/MaqzI0IVWyKTIVXMvjATVzkH/q7yg/vKQfGx1w+dC7
pfoy3lhEzdB1gJK3Ehnq/gBS93vfYqBlap3Z+9K1JdkMfqepNgkOI3auvQeN2FpY
/gKaYbNKRf4XLZlQ1a8FAIpOZGlJreSdRYalDMI8cuOX9PSplprrIw91TzXZzHn+
1nLnZTYVFocYPqnwUfHV3cirrWISlwfWzpzkINu3cEgmZrZBDduho1fiaXRagbur
xQeT7uyqavqmVTkOcGJi3jeo5Qinu+GJEGfnJfgqVjN1Epya1DifYlKpUmYw5koB
YN2v2Zxbm68kpf3u4iDl3knP5I0V3jsMvn8iegrjLgORxAzcW6LU8hUMCq6rhbxS
6jiNLlx6spCCtB32LOHwGi3rYbRrMRyPajw+lUZzCRAvWf4BUFKg7Zu3Bw6eHcq2
R35hVwgWXIlIOl7WUcwHQGsZlH/x4Selj3wmiM3y3pnhmRUJZ8km0ZI2juALjIdV
X/0zxmPqTAKwFvBKl4FSwtTHqEp8t5kVxYcNBWKBAGX3
-----END CERTIFICATE-----
