Certificate:
    Data:
        Version: 3 (0x2)
        Serial Number: 4692 (0x1254)
    Signature Algorithm: md5WithRSAEncryption
        Issuer: C=US, ST=OH, L=Columbus, O=VikingVPN, OU=MyOrganizationalUnit, CN=VikingVPN CA/name=EasyRSA/emailAddress=me@myhost.mydomain
        Validity
            Not Before: Mar  8 13:10:12 2015 GMT
            Not After : Mar  5 13:10:12 2025 GMT
        Subject: CN=Client1528Cert150c67
        Subject Public Key Info:
            Public Key Algorithm: rsaEncryption
                Public-Key: (4096 bit)
                Modulus:
                    00:ce:48:59:a2:97:7c:61:22:d2:03:36:34:5c:82:
                    99:ad:c0:08:e7:9d:6a:e0:d3:29:15:22:63:cf:e7:
                    70:e4:a5:4b:f8:78:09:0e:70:e1:38:cb:6c:0c:32:
                    61:67:fb:e5:9d:70:15:dc:68:36:cf:26:35:7a:e8:
                    02:26:0d:28:d6:e2:4c:69:36:29:ef:c5:77:58:0c:
                    f8:7e:c8:73:75:51:fe:cc:6b:5b:63:b0:5d:eb:b7:
                    78:7f:e5:17:78:83:61:9f:fe:2a:ed:14:38:3b:b7:
                    2f:c5:6b:e1:41:67:38:6c:c1:42:ba:70:51:45:f7:
                    64:45:f6:e3:5d:36:0d:9b:be:cd:74:58:cb:9b:74:
                    7d:b2:b9:32:b4:1e:87:18:f7:a2:50:47:24:e3:1f:
                    ae:37:27:4f:9d:b3:64:e9:ba:24:8d:c4:46:b4:6f:
                    e0:b7:7e:76:e3:61:0b:22:38:7e:6f:3f:10:c4:14:
                    11:c1:8a:5b:c0:24:38:0a:e9:3b:4b:4d:16:b3:92:
                    7d:4b:35:7e:36:41:26:06:38:42:2a:a9:a1:5e:f8:
                    b3:6b:de:81:c2:d6:64:a6:3c:11:a2:32:0b:57:03:
                    06:82:98:22:28:40:a6:96:32:e6:48:6c:36:c4:ea:
                    46:31:03:cf:79:32:37:06:13:c9:75:8e:55:93:48:
                    51:d3:34:fc:28:04:be:68:32:84:6f:dd:e0:6e:ee:
                    8d:ed:e3:8d:75:d2:00:29:9d:35:ca:8d:3a:ba:34:
                    82:af:6f:84:54:ed:4c:91:1e:d9:31:33:1b:33:1b:
                    ec:fe:e1:dc:82:b3:6e:41:71:5c:e1:6f:c7:6c:3b:
                    c7:e7:d6:fc:d0:6a:fa:a6:6d:b6:ce:85:1a:0f:66:
                    a9:9f:88:81:9b:0f:4b:f7:6f:db:f0:03:2b:cd:c5:
                    8a:cb:6c:aa:c4:de:1d:5a:d5:6b:12:17:52:1e:bd:
                    d0:f1:cf:5f:68:22:50:8a:6a:df:7a:cc:b9:26:e7:
                    97:46:bf:16:fb:86:e3:e0:6a:4f:d6:0f:94:84:7d:
                    9b:18:5c:57:2f:17:68:8e:bd:db:f2:68:12:a3:30:
                    54:00:ce:ee:4a:58:c9:17:81:f8:97:03:da:a6:84:
                    cf:be:1d:87:3d:ec:bd:9f:a2:86:a5:f3:74:69:9a:
                    37:ac:b0:80:94:90:9f:2f:e0:b9:8b:4b:2c:f1:d4:
                    42:82:dc:53:20:29:64:2a:6c:db:63:fc:08:ee:1c:
                    f5:16:85:02:3e:1d:06:9d:7f:77:4d:23:c6:2c:5a:
                    93:a3:1d:37:f0:0f:b7:1e:69:1d:f8:51:56:bf:9b:
                    64:d9:07:91:61:8c:ab:bf:bd:bf:f4:c6:f6:f1:0d:
                    40:27:ff
                Exponent: 65537 (0x10001)
        X509v3 extensions:
            X509v3 Basic Constraints: 
                CA:FALSE
            Netscape Comment: 
                Easy-RSA Generated Certificate
            X509v3 Subject Key Identifier: 
                1E:9C:0A:29:BF:81:4F:EC:69:CF:54:37:30:8F:AB:8A:B8:A2:9C:38
            X509v3 Authority Key Identifier: 
                keyid:12:CD:60:04:D2:A0:80:9E:70:ED:C6:99:B8:7B:2C:C6:52:FD:19:A1
                DirName:/C=US/ST=OH/L=Columbus/O=VikingVPN/OU=MyOrganizationalUnit/CN=VikingVPN CA/name=EasyRSA/emailAddress=me@myhost.mydomain
                serial:CF:35:85:EE:80:BF:2A:3E

            X509v3 Extended Key Usage: 
                TLS Web Client Authentication
            X509v3 Key Usage: 
                Digital Signature
    Signature Algorithm: md5WithRSAEncryption
         be:dd:4d:bd:48:96:3d:27:2e:6b:8c:65:8e:7b:96:ac:ba:a3:
         eb:88:27:8e:d7:eb:13:dc:4e:57:71:f3:7f:9f:6f:be:75:5d:
         37:57:ef:c5:15:a7:ad:10:0e:66:72:a6:e1:04:56:32:4b:ba:
         ab:58:0f:c0:f2:82:5d:9d:d9:c3:f9:9f:f4:f0:1d:4b:19:5d:
         4d:d3:73:6b:1b:f1:98:36:3d:4e:8f:50:18:fe:56:61:ec:50:
         ad:7b:ed:e7:97:fd:8b:a3:7b:4f:3b:10:2a:61:4a:5d:f4:6a:
         e7:58:71:27:9c:45:c4:03:39:02:3a:56:d9:c9:80:0d:2e:c9:
         d2:77:b3:ce:9d:fd:f0:92:65:32:e9:1e:90:ad:5d:ac:b9:05:
         5f:81:05:c4:f3:25:58:1a:d2:ab:c8:16:2d:01:f5:a8:2c:6b:
         ee:51:65:be:39:00:0b:af:b1:d3:da:93:e4:e6:c3:cb:33:3a:
         08:09:57:e9:ca:48:d1:d8:d3:9c:58:fd:27:f8:a7:f1:78:66:
         77:fa:50:ba:d9:a0:d3:72:b0:8f:27:ea:0e:85:32:40:26:8e:
         6d:a0:f8:80:f9:4e:a1:b7:75:02:b3:47:7f:c5:c1:01:b4:b3:
         54:3f:dd:3a:5f:05:30:6a:48:8a:c3:31:e8:73:a5:b6:af:1b:
         b1:11:67:24:47:4c:21:40:7d:00:f3:13:81:c1:9f:09:90:2d:
         20:2c:89:0a:33:99:d9:b9:14:2a:e2:cf:77:c7:f1:10:ee:56:
         ad:e9:d2:1b:9f:4c:4b:9b:56:95:09:2d:80:90:e9:04:32:e6:
         2b:81:63:38:0e:a5:e3:48:35:d0:20:e0:02:10:75:41:37:94:
         a2:b9:e9:36:e7:ee:2a:a0:6f:f8:e7:5c:f5:5f:78:26:cc:63:
         bd:1c:db:64:ae:07:a5:c0:38:dc:2a:9f:7f:79:a8:40:56:87:
         74:be:d0:d0:20:d1:5e:fe:94:70:fb:ee:86:3b:9d:41:76:83:
         f7:e4:3d:3c:2a:ed:49:f4:8c:5d:b0:4a:56:81:88:df:61:6d:
         7a:90:75:0b:70:f6:9f:06:7c:52:a8:62:e0:57:e9:c8:f2:b4:
         b8:66:bc:9b:f6:66:d1:3a:f5:89:ac:b8:89:5b:8d:68:df:d6:
         68:41:a4:08:d0:3b:7f:f6:d0:bb:93:e9:c4:cd:86:97:3b:27:
         fa:a8:62:e3:5b:4e:6e:96:93:b1:fe:52:7c:2a:28:3c:31:9c:
         aa:ad:8e:eb:ca:17:ca:be:df:43:de:5f:34:53:a0:83:f1:be:
         9a:07:28:ad:50:9d:0b:cc:66:a5:12:8d:4f:56:b0:0a:27:b8:
         12:41:17:4a:88:90:6c:7d
-----BEGIN CERTIFICATE-----
MIIGrTCCBJWgAwIBAgICElQwDQYJKoZIhvcNAQEEBQAwgawxCzAJBgNVBAYTAlVT
MQswCQYDVQQIEwJPSDERMA8GA1UEBxMIQ29sdW1idXMxEjAQBgNVBAoTCVZpa2lu
Z1ZQTjEdMBsGA1UECxMUTXlPcmdhbml6YXRpb25hbFVuaXQxFTATBgNVBAMTDFZp
a2luZ1ZQTiBDQTEQMA4GA1UEKRMHRWFzeVJTQTEhMB8GCSqGSIb3DQEJARYSbWVA
bXlob3N0Lm15ZG9tYWluMB4XDTE1MDMwODEzMTAxMloXDTI1MDMwNTEzMTAxMlow
HzEdMBsGA1UEAxMUQ2xpZW50MTUyOENlcnQxNTBjNjcwggIiMA0GCSqGSIb3DQEB
AQUAA4ICDwAwggIKAoICAQDOSFmil3xhItIDNjRcgpmtwAjnnWrg0ykVImPP53Dk
pUv4eAkOcOE4y2wMMmFn++WdcBXcaDbPJjV66AImDSjW4kxpNinvxXdYDPh+yHN1
Uf7Ma1tjsF3rt3h/5Rd4g2Gf/irtFDg7ty/Fa+FBZzhswUK6cFFF92RF9uNdNg2b
vs10WMubdH2yuTK0HocY96JQRyTjH643J0+ds2TpuiSNxEa0b+C3fnbjYQsiOH5v
PxDEFBHBilvAJDgK6TtLTRazkn1LNX42QSYGOEIqqaFe+LNr3oHC1mSmPBGiMgtX
AwaCmCIoQKaWMuZIbDbE6kYxA895MjcGE8l1jlWTSFHTNPwoBL5oMoRv3eBu7o3t
44110gApnTXKjTq6NIKvb4RU7UyRHtkxMxszG+z+4dyCs25BcVzhb8dsO8fn1vzQ
avqmbbbOhRoPZqmfiIGbD0v3b9vwAyvNxYrLbKrE3h1a1WsSF1IevdDxz19oIlCK
at96zLkm55dGvxb7huPgak/WD5SEfZsYXFcvF2iOvdvyaBKjMFQAzu5KWMkXgfiX
A9qmhM++HYc97L2fooal83RpmjessICUkJ8v4LmLSyzx1EKC3FMgKWQqbNtj/Aju
HPUWhQI+HQadf3dNI8YsWpOjHTfwD7ceaR34UVa/m2TZB5FhjKu/vb/0xvbxDUAn
/wIDAQABo4IBYzCCAV8wCQYDVR0TBAIwADAtBglghkgBhvhCAQ0EIBYeRWFzeS1S
U0EgR2VuZXJhdGVkIENlcnRpZmljYXRlMB0GA1UdDgQWBBQenAopv4FP7GnPVDcw
j6uKuKKcODCB4QYDVR0jBIHZMIHWgBQSzWAE0qCAnnDtxpm4eyzGUv0ZoaGBsqSB
rzCBrDELMAkGA1UEBhMCVVMxCzAJBgNVBAgTAk9IMREwDwYDVQQHEwhDb2x1bWJ1
czESMBAGA1UEChMJVmlraW5nVlBOMR0wGwYDVQQLExRNeU9yZ2FuaXphdGlvbmFs
VW5pdDEVMBMGA1UEAxMMVmlraW5nVlBOIENBMRAwDgYDVQQpEwdFYXN5UlNBMSEw
HwYJKoZIhvcNAQkBFhJtZUBteWhvc3QubXlkb21haW6CCQDPNYXugL8qPjATBgNV
HSUEDDAKBggrBgEFBQcDAjALBgNVHQ8EBAMCB4AwDQYJKoZIhvcNAQEEBQADggIB
AL7dTb1Ilj0nLmuMZY57lqy6o+uIJ47X6xPcTldx83+fb751XTdX78UVp60QDmZy
puEEVjJLuqtYD8Dygl2d2cP5n/TwHUsZXU3Tc2sb8Zg2PU6PUBj+VmHsUK177eeX
/Yuje087ECphSl30audYcSecRcQDOQI6VtnJgA0uydJ3s86d/fCSZTLpHpCtXay5
BV+BBcTzJVga0qvIFi0B9agsa+5RZb45AAuvsdPak+Tmw8szOggJV+nKSNHY05xY
/Sf4p/F4Znf6ULrZoNNysI8n6g6FMkAmjm2g+ID5TqG3dQKzR3/FwQG0s1Q/3Tpf
BTBqSIrDMehzpbavG7ERZyRHTCFAfQDzE4HBnwmQLSAsiQozmdm5FCriz3fH8RDu
Vq3p0hufTEubVpUJLYCQ6QQy5iuBYzgOpeNINdAg4AIQdUE3lKK56Tbn7iqgb/jn
XPVfeCbMY70c22SuB6XAONwqn395qEBWh3S+0NAg0V7+lHD77oY7nUF2g/fkPTwq
7Un0jF2wSlaBiN9hbXqQdQtw9p8GfFKoYuBX6cjytLhmvJv2ZtE69YmsuIlbjWjf
1mhBpAjQO3/20LuT6cTNhpc7J/qoYuNbTm6Wk7H+UnwqKDwxnKqtjuvKF8q+30Pe
XzRToIPxvpoHKK1QnQvMZqUSjU9WsAonuBJBF0qIkGx9
-----END CERTIFICATE-----
