Certificate:
    Data:
        Version: 3 (0x2)
        Serial Number: 5392 (0x1510)
    Signature Algorithm: md5WithRSAEncryption
        Issuer: C=US, ST=OH, L=Columbus, O=VikingVPN, OU=MyOrganizationalUnit, CN=VikingVPN CA/name=EasyRSA/emailAddress=me@myhost.mydomain
        Validity
            Not Before: May 26 21:33:40 2015 GMT
            Not After : May 23 21:33:40 2025 GMT
        Subject: CN=Client1653Cert867450
        Subject Public Key Info:
            Public Key Algorithm: rsaEncryption
                Public-Key: (4096 bit)
                Modulus:
                    00:e7:bc:a7:05:dd:67:ca:02:26:f1:54:d8:78:a0:
                    29:c7:72:03:bd:16:f6:61:cf:b8:31:4d:38:af:7d:
                    fd:b7:38:ab:ea:dc:35:55:3c:fa:0c:41:95:2e:6e:
                    59:d3:36:5b:59:8c:ee:bb:90:10:45:f8:ff:ea:3d:
                    ad:fb:48:24:aa:24:fd:2b:b8:a7:4a:9a:ee:0b:75:
                    e2:64:b7:9e:69:e2:16:82:35:21:7d:5a:ed:56:c9:
                    2e:c6:e9:12:4b:0b:6a:68:a3:67:cb:17:a2:e4:7e:
                    5c:b0:e6:fd:30:96:25:20:13:40:b2:4f:fb:e7:84:
                    ad:76:af:30:18:4c:99:f1:8e:3f:88:72:da:ab:d8:
                    9e:f0:ca:09:5f:21:88:9d:01:0d:cc:87:60:de:02:
                    aa:41:57:2c:41:08:ee:ce:ea:ce:42:1e:40:12:bb:
                    de:7d:5c:91:98:e0:fa:f3:e1:aa:85:ed:4f:f0:aa:
                    f0:35:ef:50:6b:c0:fc:3d:7d:4f:8f:65:18:58:3f:
                    69:89:6a:55:a5:79:72:1c:6e:6f:9a:90:63:72:67:
                    03:f5:c8:42:08:dc:ca:52:43:7b:e6:93:46:c1:8d:
                    9c:10:1e:b8:27:e1:00:68:12:08:94:df:8a:91:c7:
                    07:87:2b:be:2c:4c:f9:f5:0d:3a:72:5d:2e:11:ac:
                    4a:9b:fd:5e:c2:4c:d4:fd:4b:b0:f7:5c:82:c5:5e:
                    65:dd:00:12:18:32:e7:9e:b3:38:14:3f:99:f7:40:
                    77:e1:0b:cf:e6:10:fb:17:dd:8b:4c:f5:fe:00:9b:
                    9d:0f:2a:72:2f:6b:29:8f:c6:a4:82:9e:07:05:f0:
                    af:d4:1b:36:d2:bf:24:84:8d:52:fc:f0:73:e1:a8:
                    41:57:bb:82:b5:16:0d:80:86:47:d9:87:35:8d:c5:
                    c2:08:9a:06:52:0e:04:05:72:d4:db:9a:73:eb:69:
                    d3:92:31:2d:b4:fa:ab:89:6e:73:f3:45:3e:0e:71:
                    31:90:18:b9:48:62:40:33:b2:02:6c:97:24:06:97:
                    00:b6:19:d0:25:60:6a:26:87:e9:2c:51:8b:e2:b2:
                    94:56:c8:fe:6e:fe:ed:e9:fb:a6:3e:39:82:ec:00:
                    2c:69:a9:dd:c0:6f:d2:be:8a:39:61:e7:84:26:89:
                    9f:5f:c5:20:83:2d:4e:15:4a:f5:63:4f:cd:68:ee:
                    43:8e:3f:c3:9d:1c:95:d3:d3:e5:08:a5:d8:70:b8:
                    b6:c9:d0:08:65:95:6a:d4:2c:83:12:ca:b9:5c:c2:
                    50:74:7e:29:06:6e:6c:d3:0c:b7:1c:71:81:0e:e9:
                    1b:b6:28:ed:4e:ed:92:80:04:ea:90:d2:44:f6:da:
                    b2:26:17
                Exponent: 65537 (0x10001)
        X509v3 extensions:
            X509v3 Basic Constraints: 
                CA:FALSE
            Netscape Comment: 
                Easy-RSA Generated Certificate
            X509v3 Subject Key Identifier: 
                DD:E2:98:47:C7:87:87:35:D4:BF:B8:58:C2:75:7D:82:53:B5:C6:26
            X509v3 Authority Key Identifier: 
                keyid:12:CD:60:04:D2:A0:80:9E:70:ED:C6:99:B8:7B:2C:C6:52:FD:19:A1
                DirName:/C=US/ST=OH/L=Columbus/O=VikingVPN/OU=MyOrganizationalUnit/CN=VikingVPN CA/name=EasyRSA/emailAddress=me@myhost.mydomain
                serial:CF:35:85:EE:80:BF:2A:3E

            X509v3 Extended Key Usage: 
                TLS Web Client Authentication
            X509v3 Key Usage: 
                Digital Signature
    Signature Algorithm: md5WithRSAEncryption
         6a:f0:3a:37:03:35:fb:4d:06:c3:19:eb:a4:87:c6:e1:aa:f0:
         bd:d1:92:62:c7:1a:bf:7f:f5:b1:0c:87:59:79:b9:41:36:1b:
         65:17:6c:85:a4:8e:e3:5a:64:f5:c2:19:1b:9e:fe:1f:68:fb:
         89:f0:4f:c5:fa:6f:0f:0d:b2:64:3f:01:bb:71:04:8f:25:84:
         a2:ac:11:07:1e:72:9c:1b:7b:76:a7:9f:fd:7b:f2:67:81:59:
         df:22:b7:f3:8e:ee:8a:ca:12:35:ed:27:8d:08:12:47:5f:e5:
         7d:e7:5d:34:d2:66:92:78:ca:2f:6c:29:d9:ad:8c:70:dd:71:
         a9:24:7f:58:16:57:45:d7:73:bb:32:ac:64:58:a8:28:df:3b:
         21:48:12:2e:ba:8d:05:ef:35:42:be:75:81:d5:0a:e0:8d:52:
         90:36:c1:7c:94:74:26:eb:eb:9f:8b:76:31:71:da:dd:6d:63:
         4c:c3:ba:32:62:bc:9b:3a:89:ba:cd:30:66:58:02:bf:ad:17:
         0b:ce:67:b2:40:a3:d9:5d:bf:f6:da:93:c6:e0:fc:12:cb:7d:
         4c:bf:14:d8:3c:f8:c9:76:8d:06:77:4a:92:30:6d:b4:a7:97:
         b9:02:37:cb:b3:be:b4:37:b3:e9:3b:77:ef:68:d9:ed:e6:fe:
         e5:40:c1:b6:53:d1:df:26:ba:f2:58:06:cf:4d:31:ad:82:ef:
         76:1c:0b:57:16:09:77:e6:d0:54:8e:b6:6a:22:71:a7:30:0a:
         70:a4:36:9b:68:c9:08:d3:2f:51:a7:32:af:9f:89:a3:a3:d3:
         45:ce:25:d5:d6:7d:93:21:cc:b0:c2:06:23:12:4a:2f:c8:6f:
         fb:cb:df:50:e9:96:0a:b2:3e:cd:e5:01:2b:03:ad:a2:2f:b4:
         7a:0e:7f:dc:21:fa:70:61:6c:d0:c7:b0:24:89:cb:f3:f2:a8:
         57:36:fe:20:2e:48:ea:fb:f2:46:71:6d:30:d0:c1:88:80:d7:
         6e:bf:87:c5:bc:aa:cd:fb:48:75:a0:e7:75:c1:9b:22:0c:f4:
         4f:d5:2f:ab:be:22:be:e7:fc:16:ef:9d:56:0c:e9:db:56:95:
         db:46:41:cb:22:57:c9:f0:66:d3:ed:1d:ec:55:5e:cc:93:5f:
         e4:88:4b:9f:a7:4e:7a:1e:4d:3b:54:be:13:68:7f:9a:55:e0:
         70:cc:7a:c6:2a:2e:bf:75:6c:82:b2:4d:cf:f5:f1:f5:4d:a8:
         92:ea:dc:a2:8e:d1:a2:2e:bd:f9:51:2c:b4:41:cf:f8:6f:fd:
         c2:1a:f2:29:7c:14:d4:b7:89:8e:1c:71:15:21:d5:fd:99:b6:
         43:24:a0:5e:93:53:61:4c
-----BEGIN CERTIFICATE-----
MIIGrTCCBJWgAwIBAgICFRAwDQYJKoZIhvcNAQEEBQAwgawxCzAJBgNVBAYTAlVT
MQswCQYDVQQIEwJPSDERMA8GA1UEBxMIQ29sdW1idXMxEjAQBgNVBAoTCVZpa2lu
Z1ZQTjEdMBsGA1UECxMUTXlPcmdhbml6YXRpb25hbFVuaXQxFTATBgNVBAMTDFZp
a2luZ1ZQTiBDQTEQMA4GA1UEKRMHRWFzeVJTQTEhMB8GCSqGSIb3DQEJARYSbWVA
bXlob3N0Lm15ZG9tYWluMB4XDTE1MDUyNjIxMzM0MFoXDTI1MDUyMzIxMzM0MFow
HzEdMBsGA1UEAxMUQ2xpZW50MTY1M0NlcnQ4Njc0NTAwggIiMA0GCSqGSIb3DQEB
AQUAA4ICDwAwggIKAoICAQDnvKcF3WfKAibxVNh4oCnHcgO9FvZhz7gxTTivff23
OKvq3DVVPPoMQZUublnTNltZjO67kBBF+P/qPa37SCSqJP0ruKdKmu4LdeJkt55p
4haCNSF9Wu1WyS7G6RJLC2poo2fLF6Lkflyw5v0wliUgE0CyT/vnhK12rzAYTJnx
jj+Ictqr2J7wyglfIYidAQ3Mh2DeAqpBVyxBCO7O6s5CHkASu959XJGY4Prz4aqF
7U/wqvA171BrwPw9fU+PZRhYP2mJalWleXIcbm+akGNyZwP1yEII3MpSQ3vmk0bB
jZwQHrgn4QBoEgiU34qRxweHK74sTPn1DTpyXS4RrEqb/V7CTNT9S7D3XILFXmXd
ABIYMueeszgUP5n3QHfhC8/mEPsX3YtM9f4Am50PKnIvaymPxqSCngcF8K/UGzbS
vySEjVL88HPhqEFXu4K1Fg2AhkfZhzWNxcIImgZSDgQFctTbmnPradOSMS20+quJ
bnPzRT4OcTGQGLlIYkAzsgJslyQGlwC2GdAlYGomh+ksUYvispRWyP5u/u3p+6Y+
OYLsACxpqd3Ab9K+ijlh54QmiZ9fxSCDLU4VSvVjT81o7kOOP8OdHJXT0+UIpdhw
uLbJ0AhllWrULIMSyrlcwlB0fikGbmzTDLcccYEO6Ru2KO1O7ZKABOqQ0kT22rIm
FwIDAQABo4IBYzCCAV8wCQYDVR0TBAIwADAtBglghkgBhvhCAQ0EIBYeRWFzeS1S
U0EgR2VuZXJhdGVkIENlcnRpZmljYXRlMB0GA1UdDgQWBBTd4phHx4eHNdS/uFjC
dX2CU7XGJjCB4QYDVR0jBIHZMIHWgBQSzWAE0qCAnnDtxpm4eyzGUv0ZoaGBsqSB
rzCBrDELMAkGA1UEBhMCVVMxCzAJBgNVBAgTAk9IMREwDwYDVQQHEwhDb2x1bWJ1
czESMBAGA1UEChMJVmlraW5nVlBOMR0wGwYDVQQLExRNeU9yZ2FuaXphdGlvbmFs
VW5pdDEVMBMGA1UEAxMMVmlraW5nVlBOIENBMRAwDgYDVQQpEwdFYXN5UlNBMSEw
HwYJKoZIhvcNAQkBFhJtZUBteWhvc3QubXlkb21haW6CCQDPNYXugL8qPjATBgNV
HSUEDDAKBggrBgEFBQcDAjALBgNVHQ8EBAMCB4AwDQYJKoZIhvcNAQEEBQADggIB
AGrwOjcDNftNBsMZ66SHxuGq8L3RkmLHGr9/9bEMh1l5uUE2G2UXbIWkjuNaZPXC
GRue/h9o+4nwT8X6bw8NsmQ/AbtxBI8lhKKsEQcecpwbe3ann/178meBWd8it/OO
7orKEjXtJ40IEkdf5X3nXTTSZpJ4yi9sKdmtjHDdcakkf1gWV0XXc7syrGRYqCjf
OyFIEi66jQXvNUK+dYHVCuCNUpA2wXyUdCbr65+LdjFx2t1tY0zDujJivJs6ibrN
MGZYAr+tFwvOZ7JAo9ldv/bak8bg/BLLfUy/FNg8+Ml2jQZ3SpIwbbSnl7kCN8uz
vrQ3s+k7d+9o2e3m/uVAwbZT0d8muvJYBs9NMa2C73YcC1cWCXfm0FSOtmoicacw
CnCkNptoyQjTL1GnMq+fiaOj00XOJdXWfZMhzLDCBiMSSi/Ib/vL31DplgqyPs3l
ASsDraIvtHoOf9wh+nBhbNDHsCSJy/PyqFc2/iAuSOr78kZxbTDQwYiA126/h8W8
qs37SHWg53XBmyIM9E/VL6u+Ir7n/BbvnVYM6dtWldtGQcsiV8nwZtPtHexVXsyT
X+SIS5+nTnoeTTtUvhNof5pV4HDMesYqLr91bIKyTc/18fVNqJLq3KKO0aIuvflR
LLRBz/hv/cIa8il8FNS3iY4ccRUh1f2ZtkMkoF6TU2FM
-----END CERTIFICATE-----
