Certificate:
    Data:
        Version: 3 (0x2)
        Serial Number: 945 (0x3b1)
    Signature Algorithm: md5WithRSAEncryption
        Issuer: C=US, ST=OH, L=Columbus, O=VikingVPN, OU=MyOrganizationalUnit, CN=VikingVPN CA/name=EasyRSA/emailAddress=me@myhost.mydomain
        Validity
            Not Before: Feb  3 16:29:55 2014 GMT
            Not After : Feb  1 16:29:55 2024 GMT
        Subject: CN=Client351Cert2f9982
        Subject Public Key Info:
            Public Key Algorithm: rsaEncryption
                Public-Key: (4096 bit)
                Modulus:
                    00:9f:d8:28:4b:ea:11:e8:3e:7b:3f:f5:b4:88:2b:
                    39:8c:5a:87:aa:b9:ce:43:b0:fe:a1:2a:25:d8:8a:
                    4a:e1:77:3b:f4:aa:42:ec:e6:b7:ee:e5:25:41:c6:
                    65:4d:34:34:0d:c9:1e:85:b4:86:1a:b6:6d:bf:4d:
                    36:6f:78:98:68:8f:2c:30:31:b1:2e:6e:31:60:ac:
                    2f:ac:ef:0c:58:db:0a:ff:a9:e3:7b:0d:17:3a:35:
                    dc:49:bc:91:23:e3:a4:18:9e:76:fd:7a:4b:8a:7e:
                    db:f4:09:d1:9b:86:94:f2:d4:37:fe:6b:bc:9f:ad:
                    35:68:0c:2b:c9:60:3d:b2:38:cf:9f:92:bc:68:fa:
                    cb:8f:3d:f3:ce:40:33:4c:8d:3f:7b:32:73:c8:dd:
                    b3:90:45:de:fe:c7:3a:d5:c0:98:83:c3:9e:e9:22:
                    b3:11:c0:42:62:00:ea:bf:a6:9e:9a:e7:cd:99:e8:
                    90:84:49:81:98:d0:67:85:1e:16:58:4d:74:ad:82:
                    43:6f:9a:79:f8:bc:75:15:be:cc:af:01:80:6f:87:
                    02:f5:a0:4a:40:73:62:37:b8:e4:69:17:c8:94:19:
                    62:e5:41:68:c5:c8:34:13:63:47:d0:80:47:6c:04:
                    60:19:0f:69:a9:18:e9:5b:19:12:f7:f8:77:47:e1:
                    1e:95:7e:0a:27:74:44:d4:af:5e:44:a1:66:c8:97:
                    17:46:57:33:e5:03:c0:cb:20:34:1c:36:c9:21:fb:
                    f5:3a:4f:9e:88:63:af:51:14:35:78:d6:66:4b:3c:
                    64:ca:64:89:0d:f1:5b:7a:ce:b7:99:98:46:50:1e:
                    1f:9e:91:98:8a:80:af:fc:c2:98:5a:0a:5d:3a:07:
                    3b:d1:61:f0:23:a7:ed:54:b2:58:ce:12:03:04:e3:
                    cb:13:5b:63:16:20:54:4f:90:9e:0c:a1:a2:ad:7f:
                    3b:52:a6:aa:8d:b9:90:4a:92:ab:aa:7c:5b:c2:a5:
                    31:a4:2f:f7:3d:28:9e:99:71:51:2e:d9:37:48:15:
                    a2:ec:0c:55:76:8e:54:b8:68:44:53:8d:2a:fa:7b:
                    9c:e8:41:55:f1:d6:81:a0:08:33:66:5d:57:8b:79:
                    4f:32:73:ee:f1:d9:e6:65:23:af:15:77:89:95:e0:
                    4c:c9:cb:13:b0:a4:98:52:c0:32:bc:d8:d9:07:cc:
                    e1:25:a1:38:e3:39:71:cd:fe:83:f5:55:66:62:10:
                    9a:c3:6f:a3:d2:f2:4e:b4:ae:8a:41:1d:f5:fe:2f:
                    15:56:e0:59:0d:b0:fe:81:e7:86:b2:b5:8c:c9:4f:
                    b2:bb:35:88:4f:e3:e2:98:5c:7e:e3:c2:da:ea:af:
                    ba:2f:91
                Exponent: 65537 (0x10001)
        X509v3 extensions:
            X509v3 Basic Constraints: 
                CA:FALSE
            Netscape Comment: 
                Easy-RSA Generated Certificate
            X509v3 Subject Key Identifier: 
                AD:72:F8:0C:F4:33:DC:86:CB:75:98:9B:2B:8D:6C:B2:2E:B2:B6:CD
            X509v3 Authority Key Identifier: 
                keyid:12:CD:60:04:D2:A0:80:9E:70:ED:C6:99:B8:7B:2C:C6:52:FD:19:A1
                DirName:/C=US/ST=OH/L=Columbus/O=VikingVPN/OU=MyOrganizationalUnit/CN=VikingVPN CA/name=EasyRSA/emailAddress=me@myhost.mydomain
                serial:CF:35:85:EE:80:BF:2A:3E

            X509v3 Extended Key Usage: 
                TLS Web Client Authentication
            X509v3 Key Usage: 
                Digital Signature
    Signature Algorithm: md5WithRSAEncryption
         72:a7:d5:cd:ac:47:f5:62:94:76:33:9a:e0:98:56:f3:75:91:
         fb:d9:53:c4:fd:3c:e3:82:d9:a3:41:59:03:44:2b:50:4f:11:
         20:00:c0:1e:8d:fe:1c:3d:fa:fa:3e:de:87:8b:ab:64:9d:80:
         91:57:db:eb:01:51:8e:58:4d:b4:e1:aa:89:0f:f9:47:2a:e1:
         46:ee:1c:0d:2a:a5:f7:08:53:9c:3e:e9:0f:0f:62:df:9e:fb:
         1d:21:ce:5c:76:1d:44:26:cb:d6:e2:39:1f:a9:19:1c:4d:46:
         c4:40:05:f6:6f:d4:fb:d7:f1:df:5c:c5:32:0c:7f:08:4b:94:
         66:8a:1d:15:0d:bc:a5:3a:97:e6:4b:eb:6a:e2:d0:9b:f8:03:
         95:3e:21:74:02:1c:30:82:02:b4:29:ca:d0:8b:b2:f2:9c:4e:
         e4:4d:dc:7b:fd:7d:da:aa:91:8c:23:14:d0:e3:ce:45:70:f2:
         91:ff:ff:39:2a:e5:8b:12:9f:44:48:20:b0:85:f0:ac:df:11:
         c1:33:4b:32:c3:53:42:49:90:a4:56:37:62:b9:d8:0c:eb:82:
         5c:a6:c3:69:4b:d9:0d:b1:98:8b:b4:2f:72:f1:02:14:f5:53:
         73:b4:a6:2b:e3:de:fa:5c:2b:08:f7:df:21:be:8c:bd:8d:c3:
         f1:48:4a:6c:90:80:a9:8a:74:3d:2e:34:95:0b:f5:ff:7a:af:
         8c:f0:9e:ac:41:68:65:76:dc:ff:f1:ca:e2:ae:19:5e:30:21:
         3f:2d:2a:67:25:d1:a9:73:80:c2:e3:b9:06:71:1a:29:ff:cc:
         37:24:0e:1d:f8:18:e8:85:02:93:74:6c:b9:d6:d7:df:1f:d2:
         65:05:e8:7a:94:c7:32:c2:06:62:26:49:a1:32:c1:df:4a:0c:
         82:a6:81:8d:e7:c1:49:12:e8:f6:fd:97:2a:9d:f3:5d:e2:69:
         13:f7:3f:6d:37:a3:88:7a:ae:c5:6c:0d:00:24:9b:0e:2e:85:
         f7:93:b5:b2:e4:f7:d4:0a:5f:38:5b:e5:14:ae:38:de:8e:75:
         8d:9a:79:46:0f:90:27:3d:c5:f2:d0:6b:2a:19:29:19:a3:4d:
         57:64:1c:4d:c7:33:e3:d4:94:02:b6:14:58:bb:73:46:a2:28:
         cb:6c:bb:5e:e9:19:ed:46:45:38:15:e4:a7:1f:da:0a:b5:39:
         49:be:58:5e:21:9f:35:4f:b9:bb:ad:aa:f5:91:cc:4f:6e:66:
         d8:c9:e0:37:5c:e2:6b:73:63:33:b0:a0:9e:e5:d7:e1:2c:25:
         59:4b:d6:78:04:8d:30:06:b6:7b:e0:6e:c6:8a:73:f6:f9:14:
         00:7d:5e:5e:1b:be:89:99
-----BEGIN CERTIFICATE-----
MIIGrDCCBJSgAwIBAgICA7EwDQYJKoZIhvcNAQEEBQAwgawxCzAJBgNVBAYTAlVT
MQswCQYDVQQIEwJPSDERMA8GA1UEBxMIQ29sdW1idXMxEjAQBgNVBAoTCVZpa2lu
Z1ZQTjEdMBsGA1UECxMUTXlPcmdhbml6YXRpb25hbFVuaXQxFTATBgNVBAMTDFZp
a2luZ1ZQTiBDQTEQMA4GA1UEKRMHRWFzeVJTQTEhMB8GCSqGSIb3DQEJARYSbWVA
bXlob3N0Lm15ZG9tYWluMB4XDTE0MDIwMzE2Mjk1NVoXDTI0MDIwMTE2Mjk1NVow
HjEcMBoGA1UEAxMTQ2xpZW50MzUxQ2VydDJmOTk4MjCCAiIwDQYJKoZIhvcNAQEB
BQADggIPADCCAgoCggIBAJ/YKEvqEeg+ez/1tIgrOYxah6q5zkOw/qEqJdiKSuF3
O/SqQuzmt+7lJUHGZU00NA3JHoW0hhq2bb9NNm94mGiPLDAxsS5uMWCsL6zvDFjb
Cv+p43sNFzo13Em8kSPjpBiedv16S4p+2/QJ0ZuGlPLUN/5rvJ+tNWgMK8lgPbI4
z5+SvGj6y489885AM0yNP3syc8jds5BF3v7HOtXAmIPDnukisxHAQmIA6r+mnprn
zZnokIRJgZjQZ4UeFlhNdK2CQ2+aefi8dRW+zK8BgG+HAvWgSkBzYje45GkXyJQZ
YuVBaMXINBNjR9CAR2wEYBkPaakY6VsZEvf4d0fhHpV+Cid0RNSvXkShZsiXF0ZX
M+UDwMsgNBw2ySH79TpPnohjr1EUNXjWZks8ZMpkiQ3xW3rOt5mYRlAeH56RmIqA
r/zCmFoKXToHO9Fh8COn7VSyWM4SAwTjyxNbYxYgVE+Qngyhoq1/O1Kmqo25kEqS
q6p8W8KlMaQv9z0onplxUS7ZN0gVouwMVXaOVLhoRFONKvp7nOhBVfHWgaAIM2Zd
V4t5TzJz7vHZ5mUjrxV3iZXgTMnLE7CkmFLAMrzY2QfM4SWhOOM5cc3+g/VVZmIQ
msNvo9LyTrSuikEd9f4vFVbgWQ2w/oHnhrK1jMlPsrs1iE/j4phcfuPC2uqvui+R
AgMBAAGjggFjMIIBXzAJBgNVHRMEAjAAMC0GCWCGSAGG+EIBDQQgFh5FYXN5LVJT
QSBHZW5lcmF0ZWQgQ2VydGlmaWNhdGUwHQYDVR0OBBYEFK1y+Az0M9yGy3WYmyuN
bLIusrbNMIHhBgNVHSMEgdkwgdaAFBLNYATSoICecO3Gmbh7LMZS/RmhoYGypIGv
MIGsMQswCQYDVQQGEwJVUzELMAkGA1UECBMCT0gxETAPBgNVBAcTCENvbHVtYnVz
MRIwEAYDVQQKEwlWaWtpbmdWUE4xHTAbBgNVBAsTFE15T3JnYW5pemF0aW9uYWxV
bml0MRUwEwYDVQQDEwxWaWtpbmdWUE4gQ0ExEDAOBgNVBCkTB0Vhc3lSU0ExITAf
BgkqhkiG9w0BCQEWEm1lQG15aG9zdC5teWRvbWFpboIJAM81he6Avyo+MBMGA1Ud
JQQMMAoGCCsGAQUFBwMCMAsGA1UdDwQEAwIHgDANBgkqhkiG9w0BAQQFAAOCAgEA
cqfVzaxH9WKUdjOa4JhW83WR+9lTxP0844LZo0FZA0QrUE8RIADAHo3+HD36+j7e
h4urZJ2AkVfb6wFRjlhNtOGqiQ/5RyrhRu4cDSql9whTnD7pDw9i3577HSHOXHYd
RCbL1uI5H6kZHE1GxEAF9m/U+9fx31zFMgx/CEuUZoodFQ28pTqX5kvrauLQm/gD
lT4hdAIcMIICtCnK0Iuy8pxO5E3ce/192qqRjCMU0OPORXDykf//OSrlixKfREgg
sIXwrN8RwTNLMsNTQkmQpFY3YrnYDOuCXKbDaUvZDbGYi7QvcvECFPVTc7SmK+Pe
+lwrCPffIb6MvY3D8UhKbJCAqYp0PS40lQv1/3qvjPCerEFoZXbc//HK4q4ZXjAh
Py0qZyXRqXOAwuO5BnEaKf/MNyQOHfgY6IUCk3RsudbX3x/SZQXoepTHMsIGYiZJ
oTLB30oMgqaBjefBSRLo9v2XKp3zXeJpE/c/bTejiHquxWwNACSbDi6F95O1suT3
1ApfOFvlFK443o51jZp5Rg+QJz3F8tBrKhkpGaNNV2QcTccz49SUArYUWLtzRqIo
y2y7XukZ7UZFOBXkpx/aCrU5Sb5YXiGfNU+5u62q9ZHMT25m2MngN1zia3NjM7Cg
nuXX4SwlWUvWeASNMAa2e+Buxopz9vkUAH1eXhu+iZk=
-----END CERTIFICATE-----
