Certificate:
    Data:
        Version: 3 (0x2)
        Serial Number: 8687 (0x21ef)
    Signature Algorithm: sha256WithRSAEncryption
        Issuer: C=US, ST=OH, L=Columbus, O=VikingVPN, OU=MyOrganizationalUnit, CN=VikingVPN CA/name=EasyRSA/emailAddress=me@myhost.mydomain
        Validity
            Not Before: Aug  4 03:22:09 2016 GMT
            Not After : Aug  2 03:22:09 2026 GMT
        Subject: CN=Client2167Certd63edc
        Subject Public Key Info:
            Public Key Algorithm: rsaEncryption
                Public-Key: (4096 bit)
                Modulus:
                    00:be:40:e8:d3:45:c4:df:9d:6d:c4:dc:e5:13:26:
                    da:c4:da:7c:a7:44:b1:63:b2:d2:c3:13:d3:96:f9:
                    d7:72:87:c9:e1:c0:66:81:c7:89:df:68:2b:03:f2:
                    20:d7:55:51:34:97:c7:1f:b6:e3:80:f2:40:dd:9c:
                    fc:9e:5c:62:95:64:1b:12:5e:af:90:06:0c:3f:ad:
                    6b:6c:34:3b:8a:d4:8c:9e:73:1a:b4:62:cb:89:30:
                    3d:4e:14:e4:16:71:86:dc:56:c6:5a:45:82:7a:9a:
                    e7:b5:83:49:b5:25:bd:49:cb:85:ef:18:db:a5:6a:
                    8c:d5:0b:1f:74:6a:fe:73:85:0e:57:f2:ac:7c:d4:
                    88:3e:88:ff:85:51:20:79:56:a2:1c:a8:23:cc:80:
                    6c:21:bb:0d:95:5d:2e:a0:f5:7b:1e:04:6b:5b:ab:
                    86:66:7b:51:e9:ab:2e:c1:e1:a9:4d:59:99:61:9d:
                    2f:14:2b:bc:f9:cb:ad:0d:09:ba:bb:15:a6:59:14:
                    c1:c3:4d:3f:bc:5c:f6:39:c9:c3:3a:72:ff:d6:ac:
                    23:84:ca:22:0d:8a:81:f5:1a:d0:d4:03:79:49:72:
                    17:22:21:77:5d:c6:12:cf:87:58:a9:58:94:e0:75:
                    01:d9:44:54:8c:38:4d:f8:ce:14:ca:ff:c1:02:86:
                    78:a8:72:13:33:23:49:e6:47:55:b4:6f:59:5a:17:
                    ad:8c:cf:b2:63:3b:31:bb:b0:5d:eb:c4:59:a2:d7:
                    89:e9:61:10:c4:67:6f:80:6b:f6:fe:9b:73:24:fc:
                    fd:5a:c4:c3:8d:83:83:89:12:65:67:c2:79:b4:c5:
                    b7:28:7f:1d:d2:6b:d9:a7:9d:0f:97:36:69:73:f9:
                    92:6f:cd:95:cb:1d:92:af:a4:ed:4f:ba:e8:e9:63:
                    9a:d0:69:78:45:31:a3:bd:72:6b:e5:2f:04:29:e5:
                    ef:59:67:46:7d:ce:2d:f7:cb:b0:9b:53:bb:98:56:
                    92:91:ea:94:57:6c:24:11:ce:5e:4c:eb:1b:74:e5:
                    f5:7a:9a:b4:ea:00:32:11:48:26:e4:00:a6:75:ac:
                    ae:80:5c:76:2f:45:ca:28:42:b2:36:16:dc:b8:48:
                    89:b9:c9:8b:ce:a2:05:91:69:a8:d8:10:0c:15:68:
                    f7:fc:01:a8:c8:5d:60:c6:e6:83:24:a4:8d:3b:53:
                    7b:78:c6:28:e7:d6:82:41:d4:c3:fe:4d:ad:37:c6:
                    41:41:d6:37:f4:4b:cc:73:03:94:f5:9c:05:e4:76:
                    15:e7:2f:5b:b7:ea:08:09:27:61:5e:08:5b:bc:0c:
                    ea:63:2a:4d:37:56:ce:20:f4:97:73:82:a7:63:1f:
                    4c:bd:1b
                Exponent: 65537 (0x10001)
        X509v3 extensions:
            X509v3 Basic Constraints: 
                CA:FALSE
            Netscape Comment: 
                Easy-RSA Generated Certificate
            X509v3 Subject Key Identifier: 
                40:D7:7D:2A:DB:C8:5C:64:0D:FA:24:3A:74:FE:3B:53:2D:E8:ED:40
            X509v3 Authority Key Identifier: 
                keyid:12:CD:60:04:D2:A0:80:9E:70:ED:C6:99:B8:7B:2C:C6:52:FD:19:A1
                DirName:/C=US/ST=OH/L=Columbus/O=VikingVPN/OU=MyOrganizationalUnit/CN=VikingVPN CA/name=EasyRSA/emailAddress=me@myhost.mydomain
                serial:CF:35:85:EE:80:BF:2A:3E

            X509v3 Extended Key Usage: 
                TLS Web Client Authentication
            X509v3 Key Usage: 
                Digital Signature
    Signature Algorithm: sha256WithRSAEncryption
         45:9e:3b:52:64:d7:ec:b0:0d:90:1e:18:bc:6e:32:66:fe:30:
         16:18:9c:41:ab:10:01:5e:15:9e:61:4b:ff:8c:34:a5:58:6f:
         5e:12:60:f5:cc:d0:c3:a0:81:03:ba:3f:1d:91:cb:44:be:f5:
         04:f5:a7:72:f6:04:56:b2:52:18:7f:96:35:44:44:3b:a1:9d:
         77:b0:d6:a5:0d:e1:fa:4e:c6:0d:3b:df:8b:5b:57:e3:bf:10:
         9b:24:6d:6f:7e:f5:c3:bf:19:4b:ee:3f:bd:65:45:1a:3e:8d:
         e4:9e:c5:eb:65:86:20:4e:5d:ca:9a:61:0a:71:ec:d8:ec:fe:
         36:e0:30:26:8e:05:c5:08:f5:0d:8d:41:78:2a:92:21:66:b1:
         f5:40:d6:2d:3a:30:c6:32:da:c9:53:c9:8b:93:95:d6:3b:17:
         22:cf:cd:c6:dc:9e:68:12:7b:6d:f9:cd:1c:a8:5c:86:cc:6d:
         b8:10:7d:7b:0e:ee:8e:0d:c3:8a:d7:3d:0a:bd:11:ed:08:b9:
         f2:8f:bf:8f:26:a3:e3:d4:81:39:50:0e:31:ee:2f:67:e8:b7:
         3d:13:d0:22:87:89:27:e8:8c:0b:97:2d:8e:d3:e2:de:a3:15:
         56:ba:07:98:f4:6b:7e:5b:a5:07:72:d1:46:cf:73:f2:d4:9f:
         ad:82:30:90:9e:d9:11:a7:c1:2b:da:e3:dd:ac:0b:68:85:b8:
         63:38:71:80:f8:8d:8c:98:6f:c3:43:14:d9:b4:df:2f:7e:6f:
         a9:19:c3:42:c6:18:59:1e:d1:6d:69:8f:a3:8c:be:d3:51:b0:
         6e:42:d4:a9:e2:f1:d8:25:08:6e:99:6e:cd:84:f7:c4:d4:6e:
         f1:7b:80:cc:5f:e7:56:26:92:80:96:d9:b4:1b:48:8f:46:1b:
         1b:94:90:02:b8:f4:92:96:ce:1f:fe:e4:7f:10:cb:ee:ae:bc:
         8e:49:95:d4:ae:1f:df:44:f4:94:a8:86:97:a3:7b:02:78:29:
         06:ba:be:20:f7:39:68:d6:41:df:cb:04:da:ba:8f:3b:86:61:
         b9:05:6b:87:4b:5f:f5:09:96:0e:f1:34:67:1e:fe:dc:57:bf:
         cc:4c:8a:a6:ff:ef:13:5f:bf:9a:0e:90:0a:e3:f3:f0:4b:2c:
         3c:68:ed:3e:3d:1d:44:13:98:6c:83:1e:22:05:24:bd:b9:a6:
         64:69:55:fe:29:33:2d:a3:66:43:df:1d:0b:2d:87:d3:77:6c:
         8c:2d:4b:61:be:fe:d1:ee:cc:c8:41:df:e5:d9:a0:fb:b8:79:
         0a:07:44:23:e5:55:b7:12:bd:56:a1:12:04:ba:88:e9:b3:1f:
         de:3c:0c:be:f8:93:54:ee
-----BEGIN CERTIFICATE-----
MIIGrTCCBJWgAwIBAgICIe8wDQYJKoZIhvcNAQELBQAwgawxCzAJBgNVBAYTAlVT
MQswCQYDVQQIEwJPSDERMA8GA1UEBxMIQ29sdW1idXMxEjAQBgNVBAoTCVZpa2lu
Z1ZQTjEdMBsGA1UECxMUTXlPcmdhbml6YXRpb25hbFVuaXQxFTATBgNVBAMTDFZp
a2luZ1ZQTiBDQTEQMA4GA1UEKRMHRWFzeVJTQTEhMB8GCSqGSIb3DQEJARYSbWVA
bXlob3N0Lm15ZG9tYWluMB4XDTE2MDgwNDAzMjIwOVoXDTI2MDgwMjAzMjIwOVow
HzEdMBsGA1UEAxMUQ2xpZW50MjE2N0NlcnRkNjNlZGMwggIiMA0GCSqGSIb3DQEB
AQUAA4ICDwAwggIKAoICAQC+QOjTRcTfnW3E3OUTJtrE2nynRLFjstLDE9OW+ddy
h8nhwGaBx4nfaCsD8iDXVVE0l8cftuOA8kDdnPyeXGKVZBsSXq+QBgw/rWtsNDuK
1Iyecxq0YsuJMD1OFOQWcYbcVsZaRYJ6mue1g0m1Jb1Jy4XvGNulaozVCx90av5z
hQ5X8qx81Ig+iP+FUSB5VqIcqCPMgGwhuw2VXS6g9XseBGtbq4Zme1Hpqy7B4alN
WZlhnS8UK7z5y60NCbq7FaZZFMHDTT+8XPY5ycM6cv/WrCOEyiINioH1GtDUA3lJ
chciIXddxhLPh1ipWJTgdQHZRFSMOE34zhTK/8EChniochMzI0nmR1W0b1laF62M
z7JjOzG7sF3rxFmi14npYRDEZ2+Aa/b+m3Mk/P1axMONg4OJEmVnwnm0xbcofx3S
a9mnnQ+XNmlz+ZJvzZXLHZKvpO1PuujpY5rQaXhFMaO9cmvlLwQp5e9ZZ0Z9zi33
y7CbU7uYVpKR6pRXbCQRzl5M6xt05fV6mrTqADIRSCbkAKZ1rK6AXHYvRcooQrI2
Fty4SIm5yYvOogWRaajYEAwVaPf8AajIXWDG5oMkpI07U3t4xijn1oJB1MP+Ta03
xkFB1jf0S8xzA5T1nAXkdhXnL1u36ggJJ2FeCFu8DOpjKk03Vs4g9JdzgqdjH0y9
GwIDAQABo4IBYzCCAV8wCQYDVR0TBAIwADAtBglghkgBhvhCAQ0EIBYeRWFzeS1S
U0EgR2VuZXJhdGVkIENlcnRpZmljYXRlMB0GA1UdDgQWBBRA130q28hcZA36JDp0
/jtTLejtQDCB4QYDVR0jBIHZMIHWgBQSzWAE0qCAnnDtxpm4eyzGUv0ZoaGBsqSB
rzCBrDELMAkGA1UEBhMCVVMxCzAJBgNVBAgTAk9IMREwDwYDVQQHEwhDb2x1bWJ1
czESMBAGA1UEChMJVmlraW5nVlBOMR0wGwYDVQQLExRNeU9yZ2FuaXphdGlvbmFs
VW5pdDEVMBMGA1UEAxMMVmlraW5nVlBOIENBMRAwDgYDVQQpEwdFYXN5UlNBMSEw
HwYJKoZIhvcNAQkBFhJtZUBteWhvc3QubXlkb21haW6CCQDPNYXugL8qPjATBgNV
HSUEDDAKBggrBgEFBQcDAjALBgNVHQ8EBAMCB4AwDQYJKoZIhvcNAQELBQADggIB
AEWeO1Jk1+ywDZAeGLxuMmb+MBYYnEGrEAFeFZ5hS/+MNKVYb14SYPXM0MOggQO6
Px2Ry0S+9QT1p3L2BFayUhh/ljVERDuhnXew1qUN4fpOxg0734tbV+O/EJskbW9+
9cO/GUvuP71lRRo+jeSexetlhiBOXcqaYQpx7Njs/jbgMCaOBcUI9Q2NQXgqkiFm
sfVA1i06MMYy2slTyYuTldY7FyLPzcbcnmgSe235zRyoXIbMbbgQfXsO7o4Nw4rX
PQq9Ee0IufKPv48mo+PUgTlQDjHuL2fotz0T0CKHiSfojAuXLY7T4t6jFVa6B5j0
a35bpQdy0UbPc/LUn62CMJCe2RGnwSva492sC2iFuGM4cYD4jYyYb8NDFNm03y9+
b6kZw0LGGFke0W1pj6OMvtNRsG5C1Kni8dglCG6Zbs2E98TUbvF7gMxf51YmkoCW
2bQbSI9GGxuUkAK49JKWzh/+5H8Qy+6uvI5JldSuH99E9JSohpejewJ4KQa6viD3
OWjWQd/LBNq6jzuGYbkFa4dLX/UJlg7xNGce/txXv8xMiqb/7xNfv5oOkArj8/BL
LDxo7T49HUQTmGyDHiIFJL25pmRpVf4pMy2jZkPfHQsth9N3bIwtS2G+/tHuzMhB
3+XZoPu4eQoHRCPlVbcSvVahEgS6iOmzH948DL74k1Tu
-----END CERTIFICATE-----
