Certificate:
    Data:
        Version: 3 (0x2)
        Serial Number: 1902 (0x76e)
    Signature Algorithm: md5WithRSAEncryption
        Issuer: C=US, ST=OH, L=Columbus, O=VikingVPN, OU=MyOrganizationalUnit, CN=VikingVPN CA/name=EasyRSA/emailAddress=me@myhost.mydomain
        Validity
            Not Before: May 16 15:27:00 2014 GMT
            Not After : May 13 15:27:00 2024 GMT
        Subject: CN=Client659Cert0e5517
        Subject Public Key Info:
            Public Key Algorithm: rsaEncryption
                Public-Key: (4096 bit)
                Modulus:
                    00:d1:87:14:14:a1:f7:26:4a:c2:55:9f:fa:6f:e6:
                    21:8f:17:b1:0e:f6:9a:56:3e:0a:1f:18:91:65:a1:
                    6e:6e:01:b6:14:b7:ce:fd:1e:c1:fb:e4:8f:2b:ee:
                    e6:c0:0c:85:65:15:f7:b6:1e:2c:19:9a:da:76:67:
                    76:a1:02:9f:bd:99:09:91:6c:fc:12:08:f0:ec:aa:
                    54:02:da:93:3b:25:02:bd:bc:5f:a2:1c:8a:c6:64:
                    09:be:00:a5:19:c4:ed:53:0a:c1:52:ec:6f:5f:b0:
                    b0:af:a4:4c:84:00:85:c7:9b:f5:0c:8c:a9:bb:c4:
                    72:26:69:72:a7:5e:ed:68:ac:82:1c:13:42:69:d7:
                    b4:b4:1b:8c:d4:03:5d:39:50:7b:a1:6b:ee:fe:3c:
                    98:2f:ef:c3:be:e3:87:95:7f:99:c7:16:37:8c:64:
                    c4:36:f6:dd:0c:b7:bf:ba:67:02:5a:09:2f:af:f6:
                    01:df:6e:2f:14:bc:7b:cb:15:98:9b:f4:37:41:92:
                    f4:9a:b6:22:1a:eb:58:a5:e3:7c:b0:e2:46:d4:8c:
                    c7:bd:20:3d:4a:4f:9a:bd:2b:e4:92:e7:ec:04:3b:
                    94:8c:32:ec:ae:a5:4d:f7:bf:64:da:d5:28:6b:93:
                    c4:a8:76:12:9d:e7:69:f9:61:aa:c3:cc:d4:83:91:
                    f6:a7:d2:c9:85:a3:0c:b2:6b:da:b9:3e:1c:d8:6b:
                    36:c1:3a:ac:3d:88:82:62:3b:87:d0:e4:a1:6f:6f:
                    5b:cb:dd:ce:34:8d:b6:5c:ce:4c:38:0f:3f:5b:3f:
                    88:81:99:9c:ff:ee:1b:57:19:38:7a:48:8e:76:2e:
                    cd:66:24:a8:43:ba:15:11:30:3b:74:d0:7d:85:c7:
                    3d:fa:62:22:0b:9b:a0:b3:f3:8c:84:d4:c2:58:ac:
                    3b:b5:39:26:c8:52:53:d9:dd:bd:d8:4a:d4:96:2a:
                    8d:16:84:a8:ab:32:01:6b:8d:b5:eb:a4:1f:58:fe:
                    1e:19:b0:23:18:e7:5f:32:26:7d:fb:57:a0:50:2c:
                    36:10:a0:fd:d6:07:66:fd:64:07:3b:11:90:f4:95:
                    10:a5:50:0a:4f:53:43:a4:c1:cc:80:ce:a9:96:e3:
                    df:ee:0e:1f:a8:ef:ad:4f:8d:51:8d:09:48:25:20:
                    6a:78:7e:5a:4f:47:08:55:19:91:8c:07:cd:23:72:
                    fd:f6:5a:6f:32:61:a1:48:71:13:fb:d6:31:58:d3:
                    78:3c:dd:44:d8:66:07:d5:07:cc:d1:ea:cb:79:54:
                    6c:66:a0:ca:4b:31:62:ee:62:c2:01:5e:33:88:72:
                    2b:a5:3a:36:22:e2:38:b0:1c:e1:74:4d:c7:4c:0e:
                    73:43:2d
                Exponent: 65537 (0x10001)
        X509v3 extensions:
            X509v3 Basic Constraints: 
                CA:FALSE
            Netscape Comment: 
                Easy-RSA Generated Certificate
            X509v3 Subject Key Identifier: 
                64:E5:51:47:F4:5E:71:DA:A1:7F:69:CD:8E:E4:BA:EA:7C:89:D9:4A
            X509v3 Authority Key Identifier: 
                keyid:12:CD:60:04:D2:A0:80:9E:70:ED:C6:99:B8:7B:2C:C6:52:FD:19:A1
                DirName:/C=US/ST=OH/L=Columbus/O=VikingVPN/OU=MyOrganizationalUnit/CN=VikingVPN CA/name=EasyRSA/emailAddress=me@myhost.mydomain
                serial:CF:35:85:EE:80:BF:2A:3E

            X509v3 Extended Key Usage: 
                TLS Web Client Authentication
            X509v3 Key Usage: 
                Digital Signature
    Signature Algorithm: md5WithRSAEncryption
         34:84:a9:91:cb:14:98:c5:e9:89:42:5b:16:b4:2a:4b:09:ce:
         39:ee:83:9f:e7:58:c5:85:ab:18:88:cf:56:3b:08:13:96:2f:
         96:06:d5:b0:3c:5c:3e:e3:30:1a:75:ba:61:18:1a:d0:3c:aa:
         e9:09:ed:7c:df:af:ff:3e:d6:67:da:ae:9c:6d:ed:ce:9b:34:
         d5:db:b7:0e:fa:a0:26:49:b8:14:b4:8b:d9:b5:1f:9e:0d:90:
         8a:67:3b:5f:bd:90:7d:26:05:96:aa:60:77:ce:3e:7b:12:ad:
         00:fd:3a:fb:39:6e:95:2e:ed:8c:cd:2b:a0:1a:b0:9c:2f:87:
         e5:3b:35:68:e4:b9:c5:0a:e9:bf:ab:f1:57:35:22:cc:d0:34:
         18:4d:5b:2b:93:05:2e:69:b4:46:c5:67:ae:d0:c5:93:66:3d:
         7a:63:5a:ea:b1:70:80:73:f2:59:14:a9:16:61:4f:87:1c:1d:
         e8:f6:37:97:64:1a:03:c5:e9:4e:f8:e4:67:fb:a9:d5:a8:0a:
         e1:36:a0:89:ca:82:39:10:dc:7d:d8:ed:e3:df:84:93:ac:aa:
         2e:4a:3f:9f:7a:d4:19:6c:3e:10:b0:08:f3:06:50:a3:d0:e1:
         e7:40:1a:28:b3:2c:cb:8d:43:66:01:f2:95:e7:cd:f2:84:e4:
         8e:cf:3f:22:18:65:72:4a:39:c7:49:33:85:15:83:2f:2a:6f:
         57:fd:42:f2:1c:bc:8c:51:b9:ae:81:95:ac:84:bb:26:bc:df:
         07:e3:b2:d8:03:39:b1:c8:e7:db:ea:3e:59:80:c0:e8:f3:9b:
         bc:34:79:00:8c:c7:2a:4d:e5:a7:fb:26:7c:78:a8:cb:b2:6a:
         a4:5c:ac:f1:f0:4f:36:32:6d:b3:74:25:52:cb:66:c8:63:78:
         72:11:8d:78:21:07:dd:46:a4:79:72:0c:c9:70:0c:c7:60:20:
         f9:2e:85:b8:9b:60:9a:2d:44:c0:c1:ba:17:c3:de:c5:d8:91:
         a6:44:3a:c1:f6:ef:73:b6:df:aa:7b:30:29:15:16:23:90:e9:
         51:48:64:d8:69:b1:a8:0b:b1:cd:0f:0e:67:68:d7:4a:e7:be:
         a0:1c:66:18:c7:bc:97:fa:53:e5:37:5a:47:9f:e2:79:ef:84:
         80:16:c9:0a:d9:96:e2:29:c6:4b:37:9b:52:e6:51:10:24:ea:
         c6:14:27:09:d4:ad:fd:a0:b0:88:7a:f1:04:1a:d9:00:f5:fe:
         3b:60:3b:48:89:29:99:20:a0:19:dd:0b:bf:47:3f:32:32:9f:
         cc:fe:f5:1b:bb:59:9e:6f:60:9b:9d:cd:9e:23:3a:98:e5:59:
         ee:3e:cb:1d:f6:8c:45:36
-----BEGIN CERTIFICATE-----
MIIGrDCCBJSgAwIBAgICB24wDQYJKoZIhvcNAQEEBQAwgawxCzAJBgNVBAYTAlVT
MQswCQYDVQQIEwJPSDERMA8GA1UEBxMIQ29sdW1idXMxEjAQBgNVBAoTCVZpa2lu
Z1ZQTjEdMBsGA1UECxMUTXlPcmdhbml6YXRpb25hbFVuaXQxFTATBgNVBAMTDFZp
a2luZ1ZQTiBDQTEQMA4GA1UEKRMHRWFzeVJTQTEhMB8GCSqGSIb3DQEJARYSbWVA
bXlob3N0Lm15ZG9tYWluMB4XDTE0MDUxNjE1MjcwMFoXDTI0MDUxMzE1MjcwMFow
HjEcMBoGA1UEAxMTQ2xpZW50NjU5Q2VydDBlNTUxNzCCAiIwDQYJKoZIhvcNAQEB
BQADggIPADCCAgoCggIBANGHFBSh9yZKwlWf+m/mIY8XsQ72mlY+Ch8YkWWhbm4B
thS3zv0ewfvkjyvu5sAMhWUV97YeLBma2nZndqECn72ZCZFs/BII8OyqVALakzsl
Ar28X6IcisZkCb4ApRnE7VMKwVLsb1+wsK+kTIQAhceb9QyMqbvEciZpcqde7Wis
ghwTQmnXtLQbjNQDXTlQe6Fr7v48mC/vw77jh5V/mccWN4xkxDb23Qy3v7pnAloJ
L6/2Ad9uLxS8e8sVmJv0N0GS9Jq2IhrrWKXjfLDiRtSMx70gPUpPmr0r5JLn7AQ7
lIwy7K6lTfe/ZNrVKGuTxKh2Ep3naflhqsPM1IOR9qfSyYWjDLJr2rk+HNhrNsE6
rD2IgmI7h9DkoW9vW8vdzjSNtlzOTDgPP1s/iIGZnP/uG1cZOHpIjnYuzWYkqEO6
FREwO3TQfYXHPfpiIguboLPzjITUwlisO7U5JshSU9ndvdhK1JYqjRaEqKsyAWuN
teukH1j+HhmwIxjnXzImfftXoFAsNhCg/dYHZv1kBzsRkPSVEKVQCk9TQ6TBzIDO
qZbj3+4OH6jvrU+NUY0JSCUganh+Wk9HCFUZkYwHzSNy/fZabzJhoUhxE/vWMVjT
eDzdRNhmB9UHzNHqy3lUbGagyksxYu5iwgFeM4hyK6U6NiLiOLAc4XRNx0wOc0Mt
AgMBAAGjggFjMIIBXzAJBgNVHRMEAjAAMC0GCWCGSAGG+EIBDQQgFh5FYXN5LVJT
QSBHZW5lcmF0ZWQgQ2VydGlmaWNhdGUwHQYDVR0OBBYEFGTlUUf0XnHaoX9pzY7k
uup8idlKMIHhBgNVHSMEgdkwgdaAFBLNYATSoICecO3Gmbh7LMZS/RmhoYGypIGv
MIGsMQswCQYDVQQGEwJVUzELMAkGA1UECBMCT0gxETAPBgNVBAcTCENvbHVtYnVz
MRIwEAYDVQQKEwlWaWtpbmdWUE4xHTAbBgNVBAsTFE15T3JnYW5pemF0aW9uYWxV
bml0MRUwEwYDVQQDEwxWaWtpbmdWUE4gQ0ExEDAOBgNVBCkTB0Vhc3lSU0ExITAf
BgkqhkiG9w0BCQEWEm1lQG15aG9zdC5teWRvbWFpboIJAM81he6Avyo+MBMGA1Ud
JQQMMAoGCCsGAQUFBwMCMAsGA1UdDwQEAwIHgDANBgkqhkiG9w0BAQQFAAOCAgEA
NISpkcsUmMXpiUJbFrQqSwnOOe6Dn+dYxYWrGIjPVjsIE5YvlgbVsDxcPuMwGnW6
YRga0Dyq6QntfN+v/z7WZ9qunG3tzps01du3DvqgJkm4FLSL2bUfng2Qimc7X72Q
fSYFlqpgd84+exKtAP06+zlulS7tjM0roBqwnC+H5Ts1aOS5xQrpv6vxVzUizNA0
GE1bK5MFLmm0RsVnrtDFk2Y9emNa6rFwgHPyWRSpFmFPhxwd6PY3l2QaA8XpTvjk
Z/up1agK4TagicqCORDcfdjt49+Ek6yqLko/n3rUGWw+ELAI8wZQo9Dh50AaKLMs
y41DZgHylefN8oTkjs8/Ihhlcko5x0kzhRWDLypvV/1C8hy8jFG5roGVrIS7Jrzf
B+Oy2AM5scjn2+o+WYDA6PObvDR5AIzHKk3lp/smfHioy7JqpFys8fBPNjJts3Ql
UstmyGN4chGNeCEH3UakeXIMyXAMx2Ag+S6FuJtgmi1EwMG6F8PexdiRpkQ6wfbv
c7bfqnswKRUWI5DpUUhk2GmxqAuxzQ8OZ2jXSue+oBxmGMe8l/pT5TdaR5/iee+E
gBbJCtmW4inGSzebUuZRECTqxhQnCdSt/aCwiHrxBBrZAPX+O2A7SIkpmSCgGd0L
v0c/MjKfzP71G7tZnm9gm53NniM6mOVZ7j7LHfaMRTY=
-----END CERTIFICATE-----
