Certificate:
    Data:
        Version: 3 (0x2)
        Serial Number: 10663 (0x29a7)
    Signature Algorithm: sha256WithRSAEncryption
        Issuer: C=US, ST=OH, L=Columbus, O=VikingVPN, OU=MyOrganizationalUnit, CN=VikingVPN CA/name=EasyRSA/emailAddress=me@myhost.mydomain
        Validity
            Not Before: Apr 17 15:56:36 2017 GMT
            Not After : Apr 15 15:56:36 2027 GMT
        Subject: CN=Client763Certeb355e
        Subject Public Key Info:
            Public Key Algorithm: rsaEncryption
                Public-Key: (4096 bit)
                Modulus:
                    00:c4:c4:57:9e:b6:67:15:ef:9a:c4:0b:62:86:68:
                    8c:0c:cd:41:64:f1:26:41:16:b1:11:c6:20:1e:a9:
                    07:35:4a:c7:35:72:d8:e3:bb:56:71:18:ba:ae:50:
                    ad:1c:7a:28:1c:37:da:dd:08:b1:64:5a:cb:f5:49:
                    75:f1:c9:54:4f:f3:6c:7e:7c:5c:c1:c3:36:0c:a4:
                    95:14:63:ad:a6:00:de:e3:4c:7c:3e:77:da:8e:85:
                    d3:8e:19:23:c7:1f:6e:b4:f6:ea:dc:21:a3:8f:c6:
                    1b:e5:af:22:c3:da:f8:c7:25:f3:bd:8d:9f:3d:8b:
                    60:a8:28:9f:8a:6d:69:95:67:b9:c0:29:2f:49:5c:
                    f7:26:1e:1f:a9:2e:ed:3b:2c:17:b5:d1:01:2c:e2:
                    7c:48:ba:79:47:d7:ae:82:fc:32:b0:0d:aa:f1:82:
                    8f:43:fc:e7:bc:a7:9c:86:58:c7:29:69:9b:15:aa:
                    a0:fd:56:b3:c3:f2:3b:6d:b4:54:86:88:b4:8a:b2:
                    f8:a3:ea:c4:06:dc:b2:d1:7e:41:a1:bb:4c:9c:50:
                    45:58:b6:f5:c7:fe:fe:9d:71:5e:de:a4:0f:7b:be:
                    17:39:7d:d8:06:ae:2c:69:39:e7:bf:19:c0:b1:bb:
                    2b:8d:8b:34:ef:5a:1d:86:20:57:f5:2d:50:b2:11:
                    78:50:e1:19:fc:f2:a5:56:ae:28:b3:5b:df:18:8e:
                    6f:89:32:9d:54:ee:9b:11:54:6f:bb:84:56:40:eb:
                    50:f4:57:76:7f:aa:07:40:70:6d:6b:ab:19:0b:91:
                    46:7d:79:79:ec:a4:dc:fe:16:01:58:30:88:7d:42:
                    f8:4a:b5:cf:00:df:1d:43:ec:d6:c8:57:ef:43:6b:
                    21:12:d4:44:cc:4f:ca:a7:f1:4f:c5:a4:f7:02:45:
                    09:55:10:9a:2c:90:a2:98:e3:5e:e6:1b:3d:d8:75:
                    d8:85:10:91:27:a4:3b:8f:eb:e3:76:4a:29:bf:98:
                    00:cc:3c:a5:3f:e8:d4:ea:a5:f0:ee:87:66:6c:ba:
                    76:92:8a:ac:9b:0d:39:47:52:5a:aa:5d:69:4f:b5:
                    56:b6:26:c9:fe:84:c1:2b:48:ab:58:3b:e8:88:9e:
                    03:b7:f8:43:ff:31:db:2e:c1:f2:09:bf:73:88:dd:
                    5e:67:06:b1:3e:b0:e4:81:53:e7:79:f2:ab:43:ef:
                    d1:20:7f:ee:24:a0:68:a6:51:da:e3:49:92:2d:7e:
                    7f:08:2d:d8:2c:71:53:36:ef:5a:5e:f7:32:89:2d:
                    15:b0:30:b4:da:af:3f:cc:e4:f8:fd:88:fa:92:5e:
                    75:e1:2a:c8:17:3c:3a:10:44:c6:ad:31:bc:8c:a9:
                    eb:19:7d
                Exponent: 65537 (0x10001)
        X509v3 extensions:
            X509v3 Basic Constraints: 
                CA:FALSE
            Netscape Comment: 
                Easy-RSA Generated Certificate
            X509v3 Subject Key Identifier: 
                E9:BD:4D:11:84:86:37:6E:B4:7D:4D:E7:BF:E8:B4:B1:A0:24:55:20
            X509v3 Authority Key Identifier: 
                keyid:12:CD:60:04:D2:A0:80:9E:70:ED:C6:99:B8:7B:2C:C6:52:FD:19:A1
                DirName:/C=US/ST=OH/L=Columbus/O=VikingVPN/OU=MyOrganizationalUnit/CN=VikingVPN CA/name=EasyRSA/emailAddress=me@myhost.mydomain
                serial:CF:35:85:EE:80:BF:2A:3E

            X509v3 Extended Key Usage: 
                TLS Web Client Authentication
            X509v3 Key Usage: 
                Digital Signature
    Signature Algorithm: sha256WithRSAEncryption
         ab:e4:97:a1:c1:f0:ff:1e:d0:6e:25:3b:49:5f:99:0c:8c:3b:
         9d:2a:00:37:76:9f:28:ae:48:a9:11:c4:f5:83:3c:f2:5f:04:
         dc:39:6b:69:82:bf:83:3c:b9:50:0b:47:4e:e6:22:9e:0c:3a:
         56:0b:5c:d6:0b:f0:00:5a:a2:e5:17:c4:05:78:ba:93:2e:ef:
         e5:ff:eb:05:8c:e5:60:af:0f:9f:c6:8c:40:3e:51:3a:7f:2a:
         b6:3c:a3:fe:82:3d:b5:f6:f3:8d:fc:58:ea:2e:8a:a5:3d:1d:
         fc:ad:78:e3:71:50:71:e0:bd:07:37:b0:ca:f6:1c:03:ff:64:
         e3:e2:f5:ee:eb:a5:0f:01:d5:1b:d9:f8:e2:f1:5f:60:15:20:
         34:54:33:f3:66:89:4b:62:59:6d:be:da:7a:43:f5:a7:20:de:
         fd:12:87:2b:14:08:e9:10:b2:3c:20:90:4f:54:ae:92:5e:09:
         b2:d5:bd:8f:79:03:f9:ef:77:eb:2b:20:e7:8a:37:2c:7c:bf:
         ce:5f:3a:a8:f9:d8:3f:e4:f7:c9:e6:24:32:fb:f0:ba:b4:3d:
         2f:39:d8:0d:aa:18:bd:29:47:6e:b9:62:07:c3:7c:04:af:ad:
         a5:c4:4d:75:c2:ec:2e:a2:42:d7:6f:39:a0:be:6c:b9:2e:11:
         fd:3e:e3:5a:f6:27:a7:02:9d:c1:71:5e:8c:a7:be:18:ac:29:
         bd:71:b3:84:60:42:af:24:ae:58:34:16:59:2a:b2:f5:32:1c:
         0b:eb:9c:9f:67:1d:e3:49:30:98:a9:95:77:3c:61:b7:8f:c0:
         02:47:cd:a9:19:ab:a9:9e:ec:bd:a1:27:0d:92:39:2c:77:dc:
         39:e7:50:4b:63:ba:8f:65:07:16:98:13:1f:8d:c4:7f:f4:b6:
         36:13:a2:8e:e4:f0:d9:6b:3c:54:64:8f:04:0e:a8:6c:6a:ed:
         8c:e2:ce:6a:b0:b3:3b:91:e7:71:7f:a8:49:ac:d6:88:09:20:
         cb:ad:bb:e9:18:c1:03:37:6d:15:69:f8:84:21:38:e3:84:15:
         4c:ef:f2:71:6c:d3:d6:16:bf:3e:dd:f4:7c:35:6b:8c:31:9d:
         37:6f:1b:ec:da:1b:59:5c:d3:1a:0a:a4:aa:3e:83:44:80:d1:
         2c:97:cb:dd:33:3f:a1:24:be:f0:8b:bc:67:7b:70:57:90:08:
         4b:2b:d1:ca:95:d6:db:e0:75:86:71:5f:d8:dc:99:e4:bd:af:
         9c:ad:46:ba:64:ed:ae:db:4a:fb:54:2d:0c:dd:1d:c6:30:6b:
         01:73:b5:de:12:99:36:41:45:70:88:c6:e0:91:10:c7:be:94:
         b8:10:bf:80:69:13:f5:16
-----BEGIN CERTIFICATE-----
MIIGrDCCBJSgAwIBAgICKacwDQYJKoZIhvcNAQELBQAwgawxCzAJBgNVBAYTAlVT
MQswCQYDVQQIEwJPSDERMA8GA1UEBxMIQ29sdW1idXMxEjAQBgNVBAoTCVZpa2lu
Z1ZQTjEdMBsGA1UECxMUTXlPcmdhbml6YXRpb25hbFVuaXQxFTATBgNVBAMTDFZp
a2luZ1ZQTiBDQTEQMA4GA1UEKRMHRWFzeVJTQTEhMB8GCSqGSIb3DQEJARYSbWVA
bXlob3N0Lm15ZG9tYWluMB4XDTE3MDQxNzE1NTYzNloXDTI3MDQxNTE1NTYzNlow
HjEcMBoGA1UEAxMTQ2xpZW50NzYzQ2VydGViMzU1ZTCCAiIwDQYJKoZIhvcNAQEB
BQADggIPADCCAgoCggIBAMTEV562ZxXvmsQLYoZojAzNQWTxJkEWsRHGIB6pBzVK
xzVy2OO7VnEYuq5QrRx6KBw32t0IsWRay/VJdfHJVE/zbH58XMHDNgyklRRjraYA
3uNMfD532o6F044ZI8cfbrT26twho4/GG+WvIsPa+Mcl872Nnz2LYKgon4ptaZVn
ucApL0lc9yYeH6ku7TssF7XRASzifEi6eUfXroL8MrANqvGCj0P857ynnIZYxylp
mxWqoP1Ws8PyO220VIaItIqy+KPqxAbcstF+QaG7TJxQRVi29cf+/p1xXt6kD3u+
Fzl92AauLGk5578ZwLG7K42LNO9aHYYgV/UtULIReFDhGfzypVauKLNb3xiOb4ky
nVTumxFUb7uEVkDrUPRXdn+qB0BwbWurGQuRRn15eeyk3P4WAVgwiH1C+Eq1zwDf
HUPs1shX70NrIRLURMxPyqfxT8Wk9wJFCVUQmiyQopjjXuYbPdh12IUQkSekO4/r
43ZKKb+YAMw8pT/o1Oql8O6HZmy6dpKKrJsNOUdSWqpdaU+1VrYmyf6EwStIq1g7
6IieA7f4Q/8x2y7B8gm/c4jdXmcGsT6w5IFT53nyq0Pv0SB/7iSgaKZR2uNJki1+
fwgt2CxxUzbvWl73MoktFbAwtNqvP8zk+P2I+pJedeEqyBc8OhBExq0xvIyp6xl9
AgMBAAGjggFjMIIBXzAJBgNVHRMEAjAAMC0GCWCGSAGG+EIBDQQgFh5FYXN5LVJT
QSBHZW5lcmF0ZWQgQ2VydGlmaWNhdGUwHQYDVR0OBBYEFOm9TRGEhjdutH1N57/o
tLGgJFUgMIHhBgNVHSMEgdkwgdaAFBLNYATSoICecO3Gmbh7LMZS/RmhoYGypIGv
MIGsMQswCQYDVQQGEwJVUzELMAkGA1UECBMCT0gxETAPBgNVBAcTCENvbHVtYnVz
MRIwEAYDVQQKEwlWaWtpbmdWUE4xHTAbBgNVBAsTFE15T3JnYW5pemF0aW9uYWxV
bml0MRUwEwYDVQQDEwxWaWtpbmdWUE4gQ0ExEDAOBgNVBCkTB0Vhc3lSU0ExITAf
BgkqhkiG9w0BCQEWEm1lQG15aG9zdC5teWRvbWFpboIJAM81he6Avyo+MBMGA1Ud
JQQMMAoGCCsGAQUFBwMCMAsGA1UdDwQEAwIHgDANBgkqhkiG9w0BAQsFAAOCAgEA
q+SXocHw/x7QbiU7SV+ZDIw7nSoAN3afKK5IqRHE9YM88l8E3DlraYK/gzy5UAtH
TuYingw6Vgtc1gvwAFqi5RfEBXi6ky7v5f/rBYzlYK8Pn8aMQD5ROn8qtjyj/oI9
tfbzjfxY6i6KpT0d/K1443FQceC9BzewyvYcA/9k4+L17uulDwHVG9n44vFfYBUg
NFQz82aJS2JZbb7aekP1pyDe/RKHKxQI6RCyPCCQT1Sukl4JstW9j3kD+e936ysg
54o3LHy/zl86qPnYP+T3yeYkMvvwurQ9LznYDaoYvSlHbrliB8N8BK+tpcRNdcLs
LqJC1285oL5suS4R/T7jWvYnpwKdwXFejKe+GKwpvXGzhGBCrySuWDQWWSqy9TIc
C+ucn2cd40kwmKmVdzxht4/AAkfNqRmrqZ7svaEnDZI5LHfcOedQS2O6j2UHFpgT
H43Ef/S2NhOijuTw2Ws8VGSPBA6obGrtjOLOarCzO5HncX+oSazWiAkgy6276RjB
AzdtFWn4hCE444QVTO/ycWzT1ha/Pt30fDVrjDGdN28b7NobWVzTGgqkqj6DRIDR
LJfL3TM/oSS+8Iu8Z3twV5AISyvRypXW2+B1hnFf2NyZ5L2vnK1GumTtrttK+1Qt
DN0dxjBrAXO13hKZNkFFcIjG4JEQx76UuBC/gGkT9RY=
-----END CERTIFICATE-----
