Certificate:
    Data:
        Version: 3 (0x2)
        Serial Number: 8016 (0x1f50)
    Signature Algorithm: md5WithRSAEncryption
        Issuer: C=US, ST=OH, L=Columbus, O=VikingVPN, OU=MyOrganizationalUnit, CN=VikingVPN CA/name=EasyRSA/emailAddress=me@myhost.mydomain
        Validity
            Not Before: May 21 05:13:05 2016 GMT
            Not After : May 19 05:13:05 2026 GMT
        Subject: CN=Client2205Certb3df33
        Subject Public Key Info:
            Public Key Algorithm: rsaEncryption
                Public-Key: (4096 bit)
                Modulus:
                    00:c1:00:19:6b:75:6f:1f:b6:0e:27:42:dd:c4:42:
                    d0:65:c7:b5:84:39:d5:b7:8e:c9:ed:03:ab:55:b3:
                    46:42:fe:65:50:16:a5:90:7a:1f:e1:b8:32:32:d2:
                    5c:df:6f:94:5f:02:1d:b7:6d:fd:66:41:2a:6d:64:
                    0b:9d:5e:4b:af:cf:1e:c3:3d:fb:7d:8b:78:68:bb:
                    74:2b:2c:cc:1a:4d:f2:7d:29:e0:eb:f9:7a:f6:17:
                    40:24:fd:3d:45:5f:9f:28:7d:e6:9f:81:3a:ad:e8:
                    fe:7e:84:b4:e6:3a:e4:94:6b:86:d6:94:79:9f:f2:
                    15:ea:38:7d:56:c3:f7:c5:77:09:71:94:f1:55:32:
                    7a:87:8e:e5:e3:64:48:da:ff:1c:d7:1b:51:9c:ae:
                    30:97:ec:a2:35:51:f3:b7:a5:5c:20:2c:cc:15:a0:
                    11:4e:a3:6c:88:32:e3:e9:4d:8f:de:eb:d5:fb:4b:
                    d5:0e:ec:84:4f:37:07:0f:b8:52:b4:38:b3:b8:dc:
                    77:db:2c:b1:c3:3d:3c:af:13:98:30:22:d3:2d:08:
                    55:8d:1c:ea:fa:c3:fa:ea:96:7d:e6:82:50:2a:26:
                    a7:e8:49:72:65:a8:d2:3d:26:fb:41:22:41:b3:2a:
                    73:f4:c4:46:a4:c6:e0:91:1d:11:e7:17:80:40:07:
                    21:74:a9:bf:03:d1:64:f6:13:6c:31:89:67:5a:82:
                    90:c3:64:e5:62:7a:a9:e5:98:79:c9:25:47:02:7e:
                    65:17:3b:f6:de:7a:4d:6d:40:73:16:33:48:38:7d:
                    02:0c:f5:11:e7:21:92:8b:79:88:a0:d8:11:9b:31:
                    45:4c:4c:5b:a9:91:de:32:a2:69:af:f0:7b:fe:cc:
                    81:3e:e5:07:d9:2d:a9:d3:11:64:94:24:de:71:52:
                    a4:75:c0:a1:79:48:9d:e2:47:dc:68:90:08:f1:82:
                    04:0a:ff:87:6f:cb:c8:83:db:67:ef:ec:22:ae:bd:
                    84:d6:58:cc:c2:ba:1d:28:17:f8:ca:51:99:b5:5b:
                    4b:17:d8:7b:da:91:d9:97:6f:08:c8:5c:7a:0d:92:
                    a8:4f:b5:28:08:14:66:2a:63:2a:c5:48:2c:84:80:
                    81:f6:7c:03:4d:f3:5c:69:e9:0b:4f:78:27:b1:63:
                    7c:58:0d:7d:4c:13:d8:16:96:e0:05:98:b1:1a:ca:
                    59:60:44:39:bc:52:ca:e5:ea:dc:f5:58:92:7c:42:
                    24:4f:b2:40:f3:d0:d3:6f:9b:9e:4a:1b:41:82:34:
                    cb:a4:31:28:7d:84:0e:24:bf:e8:8d:ab:9e:f0:db:
                    42:0e:96:c7:1f:ba:2a:76:18:fb:24:e5:7b:47:87:
                    eb:97:c7
                Exponent: 65537 (0x10001)
        X509v3 extensions:
            X509v3 Basic Constraints: 
                CA:FALSE
            Netscape Comment: 
                Easy-RSA Generated Certificate
            X509v3 Subject Key Identifier: 
                2D:9A:B3:95:E1:EA:CD:C3:65:48:C8:5D:00:A4:E1:8C:3C:58:6E:4F
            X509v3 Authority Key Identifier: 
                keyid:12:CD:60:04:D2:A0:80:9E:70:ED:C6:99:B8:7B:2C:C6:52:FD:19:A1
                DirName:/C=US/ST=OH/L=Columbus/O=VikingVPN/OU=MyOrganizationalUnit/CN=VikingVPN CA/name=EasyRSA/emailAddress=me@myhost.mydomain
                serial:CF:35:85:EE:80:BF:2A:3E

            X509v3 Extended Key Usage: 
                TLS Web Client Authentication
            X509v3 Key Usage: 
                Digital Signature
    Signature Algorithm: md5WithRSAEncryption
         29:6b:6d:35:6c:65:f0:05:8b:85:09:ed:3b:e0:31:df:bd:7d:
         b7:ad:e3:f5:fd:89:b9:64:29:ec:05:dd:35:31:6b:2e:42:46:
         f2:ff:0a:56:2b:f4:e8:d4:a7:90:4e:22:a7:cc:2e:63:0c:28:
         24:b3:be:5f:49:66:e0:12:be:36:06:4a:88:3f:0c:fe:c1:7b:
         6a:04:06:9d:86:59:1f:bd:d2:f8:8b:ab:5a:4e:ba:d4:4e:a3:
         63:58:0c:e0:f6:c4:0d:3f:b9:1f:8d:0f:59:b6:4e:ab:8e:fa:
         80:a3:4d:4d:3f:f2:fa:8a:83:b0:52:fa:e6:53:4e:1c:f3:17:
         9c:a0:19:14:c8:92:07:31:09:de:7f:5c:50:45:98:02:59:15:
         74:8e:2d:a8:25:ed:d5:be:8e:f6:09:c0:7d:5f:66:a3:65:53:
         79:a7:7f:5b:ba:9b:55:8d:50:6b:ff:d8:ea:1e:6e:db:8c:b1:
         a5:73:c3:03:23:f8:0d:a7:41:98:76:4f:39:5c:fc:c7:fe:4a:
         5a:2d:d1:45:98:80:24:9a:3a:98:79:ea:b2:0f:ae:58:e8:b1:
         32:62:01:bb:8d:07:de:a6:b8:75:a6:7f:55:7e:87:62:2a:54:
         03:a0:d3:b9:cf:e0:62:03:fd:d7:d9:20:e6:41:af:a1:f2:48:
         ab:83:b7:57:e0:0e:27:81:c7:2b:48:6b:72:e6:ac:af:57:ad:
         84:00:f9:a2:e9:db:69:65:b8:e2:57:bf:af:15:cc:e6:b1:16:
         9b:c3:f3:6c:3a:80:20:94:a3:97:33:62:30:2a:eb:4c:5b:17:
         a5:62:40:5f:54:a6:a0:da:fa:83:68:71:5d:1a:e1:ac:bf:f9:
         98:f9:54:7f:ad:86:98:1d:76:b5:e0:13:73:34:16:f0:39:c2:
         7f:30:05:ce:00:7c:6f:ee:9d:03:39:e7:a3:94:db:cd:09:e2:
         1e:92:c1:37:ea:63:a9:ec:cc:87:15:6f:70:ff:88:67:09:33:
         7b:65:4e:69:c8:17:1c:f4:cb:f0:46:71:84:ee:23:d7:96:d3:
         c3:79:e7:1b:ca:76:ca:a9:1c:b3:3c:f1:16:42:02:52:aa:66:
         40:dd:c3:d0:72:39:7d:35:ec:32:11:16:75:d4:3d:dc:b9:6d:
         32:de:fc:ed:e6:5b:35:54:64:63:12:e1:bc:64:52:a8:ac:db:
         7f:b0:65:59:b3:fb:40:93:6f:2d:c9:95:64:35:6b:9d:72:2a:
         a5:c5:ae:fc:33:5d:53:51:99:1a:b7:2e:ac:d1:52:3f:64:4a:
         52:41:56:22:05:68:9c:ca:fd:a7:fb:c1:d5:a1:ac:9e:b4:8c:
         9d:dc:f1:2a:bd:7d:c8:6d
-----BEGIN CERTIFICATE-----
MIIGrTCCBJWgAwIBAgICH1AwDQYJKoZIhvcNAQEEBQAwgawxCzAJBgNVBAYTAlVT
MQswCQYDVQQIEwJPSDERMA8GA1UEBxMIQ29sdW1idXMxEjAQBgNVBAoTCVZpa2lu
Z1ZQTjEdMBsGA1UECxMUTXlPcmdhbml6YXRpb25hbFVuaXQxFTATBgNVBAMTDFZp
a2luZ1ZQTiBDQTEQMA4GA1UEKRMHRWFzeVJTQTEhMB8GCSqGSIb3DQEJARYSbWVA
bXlob3N0Lm15ZG9tYWluMB4XDTE2MDUyMTA1MTMwNVoXDTI2MDUxOTA1MTMwNVow
HzEdMBsGA1UEAxMUQ2xpZW50MjIwNUNlcnRiM2RmMzMwggIiMA0GCSqGSIb3DQEB
AQUAA4ICDwAwggIKAoICAQDBABlrdW8ftg4nQt3EQtBlx7WEOdW3jsntA6tVs0ZC
/mVQFqWQeh/huDIy0lzfb5RfAh23bf1mQSptZAudXkuvzx7DPft9i3hou3QrLMwa
TfJ9KeDr+Xr2F0Ak/T1FX58ofeafgTqt6P5+hLTmOuSUa4bWlHmf8hXqOH1Ww/fF
dwlxlPFVMnqHjuXjZEja/xzXG1GcrjCX7KI1UfO3pVwgLMwVoBFOo2yIMuPpTY/e
69X7S9UO7IRPNwcPuFK0OLO43HfbLLHDPTyvE5gwItMtCFWNHOr6w/rqln3mglAq
JqfoSXJlqNI9JvtBIkGzKnP0xEakxuCRHRHnF4BAByF0qb8D0WT2E2wxiWdagpDD
ZOVieqnlmHnJJUcCfmUXO/beek1tQHMWM0g4fQIM9RHnIZKLeYig2BGbMUVMTFup
kd4yommv8Hv+zIE+5QfZLanTEWSUJN5xUqR1wKF5SJ3iR9xokAjxggQK/4dvy8iD
22fv7CKuvYTWWMzCuh0oF/jKUZm1W0sX2HvakdmXbwjIXHoNkqhPtSgIFGYqYyrF
SCyEgIH2fANN81xp6QtPeCexY3xYDX1ME9gWluAFmLEayllgRDm8Usrl6tz1WJJ8
QiRPskDz0NNvm55KG0GCNMukMSh9hA4kv+iNq57w20IOlscfuip2GPsk5XtHh+uX
xwIDAQABo4IBYzCCAV8wCQYDVR0TBAIwADAtBglghkgBhvhCAQ0EIBYeRWFzeS1S
U0EgR2VuZXJhdGVkIENlcnRpZmljYXRlMB0GA1UdDgQWBBQtmrOV4erNw2VIyF0A
pOGMPFhuTzCB4QYDVR0jBIHZMIHWgBQSzWAE0qCAnnDtxpm4eyzGUv0ZoaGBsqSB
rzCBrDELMAkGA1UEBhMCVVMxCzAJBgNVBAgTAk9IMREwDwYDVQQHEwhDb2x1bWJ1
czESMBAGA1UEChMJVmlraW5nVlBOMR0wGwYDVQQLExRNeU9yZ2FuaXphdGlvbmFs
VW5pdDEVMBMGA1UEAxMMVmlraW5nVlBOIENBMRAwDgYDVQQpEwdFYXN5UlNBMSEw
HwYJKoZIhvcNAQkBFhJtZUBteWhvc3QubXlkb21haW6CCQDPNYXugL8qPjATBgNV
HSUEDDAKBggrBgEFBQcDAjALBgNVHQ8EBAMCB4AwDQYJKoZIhvcNAQEEBQADggIB
AClrbTVsZfAFi4UJ7TvgMd+9fbet4/X9iblkKewF3TUxay5CRvL/ClYr9OjUp5BO
IqfMLmMMKCSzvl9JZuASvjYGSog/DP7Be2oEBp2GWR+90viLq1pOutROo2NYDOD2
xA0/uR+ND1m2TquO+oCjTU0/8vqKg7BS+uZTThzzF5ygGRTIkgcxCd5/XFBFmAJZ
FXSOLagl7dW+jvYJwH1fZqNlU3mnf1u6m1WNUGv/2OoebtuMsaVzwwMj+A2nQZh2
Tzlc/Mf+Slot0UWYgCSaOph56rIPrljosTJiAbuNB96muHWmf1V+h2IqVAOg07nP
4GID/dfZIOZBr6HySKuDt1fgDieBxytIa3LmrK9XrYQA+aLp22lluOJXv68VzOax
FpvD82w6gCCUo5czYjAq60xbF6ViQF9UpqDa+oNocV0a4ay/+Zj5VH+thpgddrXg
E3M0FvA5wn8wBc4AfG/unQM556OU280J4h6SwTfqY6nszIcVb3D/iGcJM3tlTmnI
Fxz0y/BGcYTuI9eW08N55xvKdsqpHLM88RZCAlKqZkDdw9ByOX017DIRFnXUPdy5
bTLe/O3mWzVUZGMS4bxkUqis23+wZVmz+0CTby3JlWQ1a51yKqXFrvwzXVNRmRq3
LqzRUj9kSlJBViIFaJzK/af7wdWhrJ60jJ3c8Sq9fcht
-----END CERTIFICATE-----
