Certificate:
    Data:
        Version: 3 (0x2)
        Serial Number: 9026 (0x2342)
    Signature Algorithm: sha256WithRSAEncryption
        Issuer: C=US, ST=OH, L=Columbus, O=VikingVPN, OU=MyOrganizationalUnit, CN=VikingVPN CA/name=EasyRSA/emailAddress=me@myhost.mydomain
        Validity
            Not Before: Sep 14 20:36:34 2016 GMT
            Not After : Sep 12 20:36:34 2026 GMT
        Subject: CN=Client763Cert8e69f8
        Subject Public Key Info:
            Public Key Algorithm: rsaEncryption
                Public-Key: (4096 bit)
                Modulus:
                    00:c3:29:df:91:3c:e8:27:ab:43:ec:6a:8c:2a:df:
                    de:a5:d1:1e:3e:71:9a:54:f0:2c:55:ab:1e:01:08:
                    85:6c:01:07:8c:54:34:c9:33:74:20:cf:e5:fe:c7:
                    31:27:38:16:34:f9:fa:89:cd:bd:f3:de:ac:34:90:
                    73:95:06:13:8e:8d:09:51:70:38:8f:fe:d3:fa:e1:
                    19:8e:cb:e9:cc:76:33:d3:07:3f:e1:3b:dc:57:2e:
                    33:a2:fa:19:ec:98:ee:a5:da:cf:6a:ca:24:b2:7a:
                    a1:24:18:a4:d8:07:26:6a:5c:27:b6:9d:e8:cc:11:
                    b2:72:02:7d:01:7b:5f:f2:56:45:4e:60:35:fd:88:
                    08:36:36:00:82:60:2a:e4:53:ab:5b:99:8d:dd:93:
                    d1:7d:e8:4d:e8:86:d3:b9:6c:61:02:61:24:c2:2b:
                    44:31:ae:23:74:2b:eb:58:85:4b:e4:67:a5:06:7f:
                    7c:c5:7f:75:21:9e:4d:10:dc:75:80:34:15:4a:1c:
                    74:ce:66:77:7c:7d:16:82:23:46:86:93:c7:f5:be:
                    8d:08:36:ef:9b:32:7b:c0:fe:c9:7a:ec:76:85:ea:
                    5a:96:72:cd:a8:30:62:fb:23:13:15:82:3b:2d:43:
                    72:94:46:eb:41:df:b4:3a:75:a6:3a:cd:f0:0e:57:
                    59:bb:8d:be:36:7a:d3:7b:ac:15:d2:a0:2c:e8:9e:
                    2b:20:c0:eb:0e:c9:dd:58:93:a8:c1:3b:28:b6:3d:
                    d9:e7:32:34:00:2d:97:4e:0b:95:68:c2:36:e5:ed:
                    7b:98:5e:03:4d:0d:3e:ab:9f:c7:30:01:1f:3d:8d:
                    17:6b:5c:4b:ed:9e:4c:83:1f:7f:b9:21:25:0e:49:
                    e6:f6:cb:d8:2b:5b:cb:5a:d7:8e:b6:99:98:04:2f:
                    10:43:5a:2c:a1:c4:62:59:d6:b1:a2:f5:63:fd:4d:
                    ed:7c:2e:96:69:db:4f:f1:d2:08:f5:85:05:4b:2c:
                    75:ee:b7:a0:a6:c3:54:d8:8c:0a:fb:6d:01:0c:65:
                    18:56:a6:9c:49:bd:66:6c:77:88:74:43:3b:ab:1f:
                    64:3c:ee:9f:84:95:33:de:5f:42:8a:a2:39:91:5b:
                    60:5e:be:bb:ac:20:5a:ec:8d:98:ea:e0:f0:94:48:
                    58:62:0d:9a:07:50:47:43:0e:d1:09:b5:0b:f9:0c:
                    d4:ec:9d:2d:46:98:c4:de:48:6d:d2:cc:7f:a5:bf:
                    7a:71:47:d4:78:09:e8:5a:62:d4:80:40:7b:6e:20:
                    04:30:61:ce:c2:73:ea:5f:60:eb:6a:e1:05:c6:25:
                    d1:17:36:ac:e3:d3:bc:8e:49:5b:f6:dd:94:6f:3c:
                    6b:95:b3
                Exponent: 65537 (0x10001)
        X509v3 extensions:
            X509v3 Basic Constraints: 
                CA:FALSE
            Netscape Comment: 
                Easy-RSA Generated Certificate
            X509v3 Subject Key Identifier: 
                BF:EC:F0:7D:EB:39:89:E8:D9:D1:82:1E:CF:F7:F3:CA:D5:DC:D7:58
            X509v3 Authority Key Identifier: 
                keyid:12:CD:60:04:D2:A0:80:9E:70:ED:C6:99:B8:7B:2C:C6:52:FD:19:A1
                DirName:/C=US/ST=OH/L=Columbus/O=VikingVPN/OU=MyOrganizationalUnit/CN=VikingVPN CA/name=EasyRSA/emailAddress=me@myhost.mydomain
                serial:CF:35:85:EE:80:BF:2A:3E

            X509v3 Extended Key Usage: 
                TLS Web Client Authentication
            X509v3 Key Usage: 
                Digital Signature
    Signature Algorithm: sha256WithRSAEncryption
         88:97:fe:5a:a0:aa:32:d1:b7:cc:bb:45:06:37:a5:0d:8e:40:
         5e:92:b5:c7:50:42:24:9a:28:c4:5f:bc:ee:01:39:bb:9a:fb:
         41:f0:92:63:83:62:76:cc:27:b7:ce:42:b3:f9:76:09:2b:1b:
         c7:32:a1:67:14:f9:d1:f1:99:ff:7e:78:89:aa:a2:90:2d:a9:
         f2:83:e0:30:e5:a9:ab:36:40:85:4e:3e:3e:fe:9c:07:0b:3c:
         10:f0:4a:ae:15:4e:5f:d4:7c:b7:66:37:bb:23:af:c2:e9:06:
         24:14:d6:ad:86:59:53:87:31:5b:3f:56:52:22:c8:1b:d8:1e:
         2c:ce:f8:1e:de:bf:3b:be:9e:a0:10:1c:4a:28:9e:76:e7:20:
         4c:28:15:07:15:8f:49:19:8e:a3:00:1a:4a:e5:ef:1e:05:99:
         68:80:c8:10:28:8b:8f:40:ac:27:f9:75:7e:6c:7b:06:70:c5:
         79:8c:fe:f8:98:d4:d6:79:b1:3c:46:c4:c1:89:02:1d:4e:48:
         a5:01:9c:96:2e:61:1f:9b:a3:f9:bf:59:fc:e7:9a:d1:20:57:
         1b:b4:45:52:95:3b:67:b1:a2:a6:09:bf:ed:75:a1:8c:bb:19:
         9e:aa:99:20:78:92:8e:c7:1b:12:6d:09:42:b4:17:4d:62:79:
         ae:b1:23:35:5a:e8:e4:f0:70:15:3f:d7:8b:3a:f8:13:f9:ed:
         c0:8e:27:13:2b:1f:a9:99:fa:69:55:85:ed:58:3b:f4:42:e9:
         f3:c8:6d:bd:be:02:3a:48:86:5e:07:20:86:6c:66:33:27:9c:
         5a:6e:ab:50:a1:9d:4a:22:f6:18:28:62:18:f9:5d:d1:59:95:
         e5:e9:e2:19:be:c1:55:cf:2d:34:d6:d7:5a:1a:66:79:ff:3b:
         ed:17:67:0c:93:44:90:cc:23:bd:ab:5a:1f:9b:b9:d4:ad:14:
         1e:a2:85:8f:35:6c:30:af:03:fc:cf:9d:46:43:bb:2f:52:56:
         94:6d:92:ce:7a:6c:9a:e4:d2:5d:c3:4b:9b:dd:4b:36:e6:fd:
         30:d1:75:7a:92:43:b3:dd:f4:d7:2a:81:be:4a:de:27:96:7b:
         58:55:29:99:72:d9:c2:bc:c1:44:f1:8a:33:bb:9c:d0:3e:ac:
         14:6d:70:5e:5a:03:35:97:e7:5c:66:8e:b7:b0:82:60:3a:10:
         71:b3:be:a2:92:d4:69:2d:7b:0e:56:ab:3f:d6:26:b4:17:26:
         93:0e:da:99:98:9a:d0:86:5e:9f:7d:04:8c:36:70:95:96:14:
         80:4b:61:c7:4c:37:c7:fd:00:82:7d:b7:93:5c:5d:fc:ec:e5:
         ec:29:7e:76:ee:f0:3e:c8
-----BEGIN CERTIFICATE-----
MIIGrDCCBJSgAwIBAgICI0IwDQYJKoZIhvcNAQELBQAwgawxCzAJBgNVBAYTAlVT
MQswCQYDVQQIEwJPSDERMA8GA1UEBxMIQ29sdW1idXMxEjAQBgNVBAoTCVZpa2lu
Z1ZQTjEdMBsGA1UECxMUTXlPcmdhbml6YXRpb25hbFVuaXQxFTATBgNVBAMTDFZp
a2luZ1ZQTiBDQTEQMA4GA1UEKRMHRWFzeVJTQTEhMB8GCSqGSIb3DQEJARYSbWVA
bXlob3N0Lm15ZG9tYWluMB4XDTE2MDkxNDIwMzYzNFoXDTI2MDkxMjIwMzYzNFow
HjEcMBoGA1UEAxMTQ2xpZW50NzYzQ2VydDhlNjlmODCCAiIwDQYJKoZIhvcNAQEB
BQADggIPADCCAgoCggIBAMMp35E86CerQ+xqjCrf3qXRHj5xmlTwLFWrHgEIhWwB
B4xUNMkzdCDP5f7HMSc4FjT5+onNvfPerDSQc5UGE46NCVFwOI/+0/rhGY7L6cx2
M9MHP+E73FcuM6L6GeyY7qXaz2rKJLJ6oSQYpNgHJmpcJ7ad6MwRsnICfQF7X/JW
RU5gNf2ICDY2AIJgKuRTq1uZjd2T0X3oTeiG07lsYQJhJMIrRDGuI3Qr61iFS+Rn
pQZ/fMV/dSGeTRDcdYA0FUocdM5md3x9FoIjRoaTx/W+jQg275sye8D+yXrsdoXq
WpZyzagwYvsjExWCOy1DcpRG60HftDp1pjrN8A5XWbuNvjZ603usFdKgLOieKyDA
6w7J3ViTqME7KLY92ecyNAAtl04LlWjCNuXte5heA00NPqufxzABHz2NF2tcS+2e
TIMff7khJQ5J5vbL2Ctby1rXjraZmAQvEENaLKHEYlnWsaL1Y/1N7XwulmnbT/HS
CPWFBUssde63oKbDVNiMCvttAQxlGFamnEm9Zmx3iHRDO6sfZDzun4SVM95fQoqi
OZFbYF6+u6wgWuyNmOrg8JRIWGINmgdQR0MO0Qm1C/kM1OydLUaYxN5IbdLMf6W/
enFH1HgJ6Fpi1IBAe24gBDBhzsJz6l9g62rhBcYl0Rc2rOPTvI5JW/bdlG88a5Wz
AgMBAAGjggFjMIIBXzAJBgNVHRMEAjAAMC0GCWCGSAGG+EIBDQQgFh5FYXN5LVJT
QSBHZW5lcmF0ZWQgQ2VydGlmaWNhdGUwHQYDVR0OBBYEFL/s8H3rOYno2dGCHs/3
88rV3NdYMIHhBgNVHSMEgdkwgdaAFBLNYATSoICecO3Gmbh7LMZS/RmhoYGypIGv
MIGsMQswCQYDVQQGEwJVUzELMAkGA1UECBMCT0gxETAPBgNVBAcTCENvbHVtYnVz
MRIwEAYDVQQKEwlWaWtpbmdWUE4xHTAbBgNVBAsTFE15T3JnYW5pemF0aW9uYWxV
bml0MRUwEwYDVQQDEwxWaWtpbmdWUE4gQ0ExEDAOBgNVBCkTB0Vhc3lSU0ExITAf
BgkqhkiG9w0BCQEWEm1lQG15aG9zdC5teWRvbWFpboIJAM81he6Avyo+MBMGA1Ud
JQQMMAoGCCsGAQUFBwMCMAsGA1UdDwQEAwIHgDANBgkqhkiG9w0BAQsFAAOCAgEA
iJf+WqCqMtG3zLtFBjelDY5AXpK1x1BCJJooxF+87gE5u5r7QfCSY4Nidswnt85C
s/l2CSsbxzKhZxT50fGZ/354iaqikC2p8oPgMOWpqzZAhU4+Pv6cBws8EPBKrhVO
X9R8t2Y3uyOvwukGJBTWrYZZU4cxWz9WUiLIG9geLM74Ht6/O76eoBAcSiieducg
TCgVBxWPSRmOowAaSuXvHgWZaIDIECiLj0CsJ/l1fmx7BnDFeYz++JjU1nmxPEbE
wYkCHU5IpQGcli5hH5uj+b9Z/Oea0SBXG7RFUpU7Z7Gipgm/7XWhjLsZnqqZIHiS
jscbEm0JQrQXTWJ5rrEjNVro5PBwFT/Xizr4E/ntwI4nEysfqZn6aVWF7Vg79ELp
88htvb4COkiGXgcghmxmMyecWm6rUKGdSiL2GChiGPld0VmV5eniGb7BVc8tNNbX
Whpmef877RdnDJNEkMwjvataH5u51K0UHqKFjzVsMK8D/M+dRkO7L1JWlG2Sznps
muTSXcNLm91LNub9MNF1epJDs9301yqBvkreJ5Z7WFUpmXLZwrzBRPGKM7uc0D6s
FG1wXloDNZfnXGaOt7CCYDoQcbO+opLUaS17DlarP9YmtBcmkw7amZia0IZen30E
jDZwlZYUgEthx0w3x/0Agn23k1xd/Ozl7Cl+du7wPsg=
-----END CERTIFICATE-----
