Certificate:
    Data:
        Version: 3 (0x2)
        Serial Number: 10021 (0x2725)
    Signature Algorithm: sha256WithRSAEncryption
        Issuer: C=US, ST=OH, L=Columbus, O=VikingVPN, OU=MyOrganizationalUnit, CN=VikingVPN CA/name=EasyRSA/emailAddress=me@myhost.mydomain
        Validity
            Not Before: Jan 28 21:19:43 2017 GMT
            Not After : Jan 26 21:19:43 2027 GMT
        Subject: CN=Client971Certbeaff9
        Subject Public Key Info:
            Public Key Algorithm: rsaEncryption
                Public-Key: (4096 bit)
                Modulus:
                    00:cc:fc:1d:52:e6:1a:f4:bf:4a:36:21:68:ce:77:
                    2b:01:d5:a7:32:48:02:6b:cb:18:51:b6:a6:5e:2b:
                    04:8e:ad:05:1a:da:d3:d8:b6:cc:b2:3a:66:00:3c:
                    45:bf:14:c0:70:d1:ef:12:4c:a0:70:71:cd:83:ac:
                    f9:b7:0b:7e:fe:06:a4:f3:5a:a5:dc:72:2a:4c:35:
                    0d:eb:f8:b6:fa:ff:50:53:67:43:54:45:68:cf:b9:
                    72:e2:24:cb:c2:e8:71:cc:50:81:60:d4:5c:50:bb:
                    54:ec:2b:7e:9e:79:2d:ea:e3:88:da:64:2d:62:35:
                    4d:8b:84:c1:dd:06:99:51:d2:9b:1a:26:0a:f4:2d:
                    3d:a2:17:6e:77:76:71:96:e1:47:85:98:9c:d6:41:
                    3b:9a:93:66:08:cb:ce:ef:ec:78:82:4f:a9:f7:91:
                    88:8e:36:64:a1:5f:10:7c:3b:fd:2c:0d:7c:7f:7b:
                    d6:b5:14:ac:d0:0b:bb:4b:41:db:9d:73:6c:14:cc:
                    d8:4c:1c:8f:e1:66:c3:2e:7f:3e:b9:03:8b:0b:52:
                    cb:11:bf:7c:ef:6c:62:65:60:4c:2d:f6:ce:38:1f:
                    9a:2c:ca:10:7d:3f:fb:11:bc:9e:f0:27:71:74:84:
                    a2:13:84:a9:6f:6e:68:06:6e:f8:39:b4:f4:5f:dd:
                    d1:a1:9d:b2:71:4f:b6:2c:f1:0f:56:83:52:c7:2b:
                    27:aa:7a:14:b8:1a:10:1e:5c:02:c7:95:01:bd:2b:
                    eb:30:9f:50:ee:b4:b5:6a:0b:f7:9f:d4:58:53:5c:
                    c9:81:e8:e6:a2:fd:17:20:6f:24:3e:c1:b5:33:dd:
                    6a:04:64:62:ec:6a:c0:1e:93:90:e6:c9:31:e7:23:
                    14:61:a9:bb:99:b8:6c:2d:57:aa:ec:9f:b8:f3:b2:
                    78:0f:c0:11:a3:0d:89:31:3b:79:43:99:98:01:09:
                    27:6e:1f:96:38:68:b5:77:ed:dd:f6:cc:10:d8:43:
                    dd:68:a0:b4:fb:09:f9:d6:c0:2f:ad:8c:ac:2b:5f:
                    79:de:0f:ee:b2:6e:5f:59:0c:e2:58:12:63:d5:b9:
                    0e:4f:51:e3:20:f6:e2:88:f6:ae:b7:b2:32:a7:b6:
                    c2:13:1d:43:ba:53:17:ec:3a:ae:08:7a:59:d1:7e:
                    56:b0:ca:2b:22:ea:d6:e3:df:9d:44:81:ec:b2:98:
                    d5:1e:7a:b4:a9:10:bc:70:b4:ef:43:36:94:8b:90:
                    76:dd:70:b8:e9:54:77:ad:1c:86:80:ae:05:91:12:
                    03:13:15:c4:fd:e3:04:32:0d:e9:9a:4e:68:37:67:
                    65:67:93:bd:49:fd:f0:bf:6a:32:17:e7:46:ce:92:
                    cf:64:4f
                Exponent: 65537 (0x10001)
        X509v3 extensions:
            X509v3 Basic Constraints: 
                CA:FALSE
            Netscape Comment: 
                Easy-RSA Generated Certificate
            X509v3 Subject Key Identifier: 
                12:4E:98:DB:B6:ED:E4:3A:26:18:BD:35:BF:59:EA:94:A4:26:E6:F8
            X509v3 Authority Key Identifier: 
                keyid:12:CD:60:04:D2:A0:80:9E:70:ED:C6:99:B8:7B:2C:C6:52:FD:19:A1
                DirName:/C=US/ST=OH/L=Columbus/O=VikingVPN/OU=MyOrganizationalUnit/CN=VikingVPN CA/name=EasyRSA/emailAddress=me@myhost.mydomain
                serial:CF:35:85:EE:80:BF:2A:3E

            X509v3 Extended Key Usage: 
                TLS Web Client Authentication
            X509v3 Key Usage: 
                Digital Signature
    Signature Algorithm: sha256WithRSAEncryption
         4e:4a:f1:69:47:4f:6e:3c:64:96:10:da:58:30:41:31:2e:37:
         15:8f:50:9b:2a:ea:54:2d:45:4d:4a:bf:9c:da:42:2e:2d:74:
         93:8e:20:5b:a6:a3:29:ca:94:7a:5a:b0:80:f2:f8:15:1d:d8:
         d7:de:0a:d5:ac:7c:e8:a6:38:c6:1b:e7:3b:67:5b:a1:10:4e:
         48:23:5a:8f:f2:e4:23:ae:08:b7:22:b8:37:b7:86:cb:b0:a3:
         d2:0f:38:e5:7d:af:ca:00:d5:65:52:a2:e1:3f:5b:1c:e8:8d:
         38:cd:cb:bd:90:ca:6b:df:69:7f:65:6f:65:d4:40:04:cc:08:
         b4:90:37:e3:f9:a4:93:b3:58:33:dd:e9:8f:9f:c1:d1:b3:11:
         e8:c8:51:f7:28:06:6a:fc:47:d7:ed:16:e4:fe:83:37:3c:17:
         b3:74:07:7e:c5:5a:ed:35:e8:b6:96:e1:1b:d6:9a:13:89:87:
         d8:df:b2:69:44:fd:95:ae:af:11:39:0a:cb:5c:44:06:a8:8e:
         5d:76:83:30:f3:2a:3c:2e:95:71:41:a0:92:b9:6b:80:28:cd:
         f1:01:25:a6:4f:ce:d9:b5:2a:1b:ae:eb:c4:f9:7a:36:d6:15:
         96:b3:28:aa:78:b9:a7:88:a9:b3:0e:b2:d9:5b:15:4a:4e:5b:
         78:af:09:e5:16:90:01:c7:25:99:d4:e2:32:69:bf:90:3b:b6:
         01:6e:98:6a:a8:4e:cf:5c:c9:9f:f4:cc:17:bb:5b:04:5a:3f:
         ed:7a:97:f6:e3:9b:d2:d5:f1:b4:e5:fa:98:2f:03:55:d3:70:
         69:79:ff:09:dc:e6:4a:90:34:a2:bc:84:10:10:53:8a:8c:3b:
         1a:55:5f:e6:19:1e:71:66:68:d5:69:de:bf:2b:88:fb:04:77:
         2e:80:7a:74:1e:f6:e1:24:83:95:cf:8a:31:da:fe:e8:87:56:
         c7:20:7f:af:67:5b:ab:72:a7:f3:cf:05:3d:59:c5:52:f4:c7:
         33:0d:f0:0a:d9:f5:b2:aa:79:2f:22:2e:1b:7a:1d:71:2f:37:
         d3:79:f8:78:20:34:d0:f6:5a:88:7f:bb:44:09:49:89:8a:e6:
         89:33:0a:18:65:da:dc:3f:a9:d1:17:89:9b:0e:74:ed:0d:66:
         ef:2e:82:d7:e1:de:f8:02:cd:6f:e9:d9:3d:62:8f:13:2a:14:
         67:3b:09:e8:8b:3f:b1:a7:56:c4:be:a2:b2:a2:c8:55:ca:f9:
         fa:20:e3:d2:fa:51:c9:03:5d:9a:c9:b6:e8:44:7c:d5:81:cf:
         b6:a2:de:02:ca:f6:3c:6a:5b:f2:cb:26:9c:22:0a:3c:8e:27:
         8e:58:15:65:2e:d7:39:38
-----BEGIN CERTIFICATE-----
MIIGrDCCBJSgAwIBAgICJyUwDQYJKoZIhvcNAQELBQAwgawxCzAJBgNVBAYTAlVT
MQswCQYDVQQIEwJPSDERMA8GA1UEBxMIQ29sdW1idXMxEjAQBgNVBAoTCVZpa2lu
Z1ZQTjEdMBsGA1UECxMUTXlPcmdhbml6YXRpb25hbFVuaXQxFTATBgNVBAMTDFZp
a2luZ1ZQTiBDQTEQMA4GA1UEKRMHRWFzeVJTQTEhMB8GCSqGSIb3DQEJARYSbWVA
bXlob3N0Lm15ZG9tYWluMB4XDTE3MDEyODIxMTk0M1oXDTI3MDEyNjIxMTk0M1ow
HjEcMBoGA1UEAxMTQ2xpZW50OTcxQ2VydGJlYWZmOTCCAiIwDQYJKoZIhvcNAQEB
BQADggIPADCCAgoCggIBAMz8HVLmGvS/SjYhaM53KwHVpzJIAmvLGFG2pl4rBI6t
BRra09i2zLI6ZgA8Rb8UwHDR7xJMoHBxzYOs+bcLfv4GpPNapdxyKkw1Dev4tvr/
UFNnQ1RFaM+5cuIky8LoccxQgWDUXFC7VOwrfp55LerjiNpkLWI1TYuEwd0GmVHS
mxomCvQtPaIXbnd2cZbhR4WYnNZBO5qTZgjLzu/seIJPqfeRiI42ZKFfEHw7/SwN
fH971rUUrNALu0tB251zbBTM2Ewcj+Fmwy5/PrkDiwtSyxG/fO9sYmVgTC32zjgf
mizKEH0/+xG8nvAncXSEohOEqW9uaAZu+Dm09F/d0aGdsnFPtizxD1aDUscrJ6p6
FLgaEB5cAseVAb0r6zCfUO60tWoL95/UWFNcyYHo5qL9FyBvJD7BtTPdagRkYuxq
wB6TkObJMecjFGGpu5m4bC1XquyfuPOyeA/AEaMNiTE7eUOZmAEJJ24fljhotXft
3fbMENhD3WigtPsJ+dbAL62MrCtfed4P7rJuX1kM4lgSY9W5Dk9R4yD24oj2rrey
Mqe2whMdQ7pTF+w6rgh6WdF+VrDKKyLq1uPfnUSB7LKY1R56tKkQvHC070M2lIuQ
dt1wuOlUd60choCuBZESAxMVxP3jBDIN6ZpOaDdnZWeTvUn98L9qMhfnRs6Sz2RP
AgMBAAGjggFjMIIBXzAJBgNVHRMEAjAAMC0GCWCGSAGG+EIBDQQgFh5FYXN5LVJT
QSBHZW5lcmF0ZWQgQ2VydGlmaWNhdGUwHQYDVR0OBBYEFBJOmNu27eQ6Jhi9Nb9Z
6pSkJub4MIHhBgNVHSMEgdkwgdaAFBLNYATSoICecO3Gmbh7LMZS/RmhoYGypIGv
MIGsMQswCQYDVQQGEwJVUzELMAkGA1UECBMCT0gxETAPBgNVBAcTCENvbHVtYnVz
MRIwEAYDVQQKEwlWaWtpbmdWUE4xHTAbBgNVBAsTFE15T3JnYW5pemF0aW9uYWxV
bml0MRUwEwYDVQQDEwxWaWtpbmdWUE4gQ0ExEDAOBgNVBCkTB0Vhc3lSU0ExITAf
BgkqhkiG9w0BCQEWEm1lQG15aG9zdC5teWRvbWFpboIJAM81he6Avyo+MBMGA1Ud
JQQMMAoGCCsGAQUFBwMCMAsGA1UdDwQEAwIHgDANBgkqhkiG9w0BAQsFAAOCAgEA
TkrxaUdPbjxklhDaWDBBMS43FY9QmyrqVC1FTUq/nNpCLi10k44gW6ajKcqUelqw
gPL4FR3Y194K1ax86KY4xhvnO2dboRBOSCNaj/LkI64ItyK4N7eGy7Cj0g845X2v
ygDVZVKi4T9bHOiNOM3LvZDKa99pf2VvZdRABMwItJA34/mkk7NYM93pj5/B0bMR
6MhR9ygGavxH1+0W5P6DNzwXs3QHfsVa7TXotpbhG9aaE4mH2N+yaUT9la6vETkK
y1xEBqiOXXaDMPMqPC6VcUGgkrlrgCjN8QElpk/O2bUqG67rxPl6NtYVlrMoqni5
p4ipsw6y2VsVSk5beK8J5RaQAcclmdTiMmm/kDu2AW6YaqhOz1zJn/TMF7tbBFo/
7XqX9uOb0tXxtOX6mC8DVdNwaXn/CdzmSpA0oryEEBBTiow7GlVf5hkecWZo1Wne
vyuI+wR3LoB6dB724SSDlc+KMdr+6IdWxyB/r2dbq3Kn888FPVnFUvTHMw3wCtn1
sqp5LyIuG3odcS8303n4eCA00PZaiH+7RAlJiYrmiTMKGGXa3D+p0ReJmw507Q1m
7y6C1+He+ALNb+nZPWKPEyoUZzsJ6Is/sadWxL6isqLIVcr5+iDj0vpRyQNdmsm2
6ER81YHPtqLeAsr2PGpb8ssmnCIKPI4njlgVZS7XOTg=
-----END CERTIFICATE-----
