Certificate:
    Data:
        Version: 3 (0x2)
        Serial Number: 4063 (0xfdf)
    Signature Algorithm: md5WithRSAEncryption
        Issuer: C=US, ST=OH, L=Columbus, O=VikingVPN, OU=MyOrganizationalUnit, CN=VikingVPN CA/name=EasyRSA/emailAddress=me@myhost.mydomain
        Validity
            Not Before: Jan 10 22:04:17 2015 GMT
            Not After : Jan  7 22:04:17 2025 GMT
        Subject: CN=Client272Cert8f11dc
        Subject Public Key Info:
            Public Key Algorithm: rsaEncryption
                Public-Key: (4096 bit)
                Modulus:
                    00:d9:bd:f3:d1:ea:86:8d:32:b1:d0:d8:5a:e1:f7:
                    f5:ff:33:e2:9a:f6:07:b1:a7:79:92:09:8f:6a:6d:
                    23:d3:c0:ce:93:41:b2:82:6c:16:07:a9:2e:e2:c0:
                    e9:45:1a:ba:f8:92:d8:80:45:2a:97:a4:8f:a9:bf:
                    be:bf:b9:f5:b4:4a:8d:0e:c9:57:9a:f5:a1:12:42:
                    89:48:bd:1a:59:fb:91:09:6a:20:c2:e5:f8:67:b2:
                    75:34:6f:a1:73:05:e2:40:24:55:eb:88:54:32:7d:
                    86:f2:59:6b:d8:15:bf:7f:03:43:b1:ab:6d:34:14:
                    eb:f8:29:b3:80:36:f2:ef:31:d9:32:76:b0:84:0f:
                    13:ef:e3:59:41:5e:86:0a:39:82:07:8a:2c:54:c0:
                    65:44:21:cf:5e:15:d2:54:e7:02:9c:4a:40:1c:90:
                    4b:f7:68:57:e8:e8:66:f9:c1:9f:6d:19:48:5b:c8:
                    10:97:11:9d:5c:95:aa:a2:98:cd:94:3c:81:eb:ba:
                    d3:cc:b5:9a:a3:07:00:0a:6b:09:f6:51:30:89:f6:
                    73:a3:f2:58:88:5b:f6:51:81:a0:de:ea:7f:12:36:
                    0e:eb:3f:f8:98:60:7c:d5:00:a0:dc:e4:08:78:2b:
                    79:f3:ea:dd:c5:df:1e:cf:61:86:c5:3e:9e:3f:2e:
                    ed:a1:d3:55:cd:a0:6c:f1:7b:50:c3:ae:fb:42:b3:
                    1d:7e:23:80:a7:85:ba:f3:af:66:e7:7f:e3:71:28:
                    df:ab:82:9a:6e:35:02:1f:22:de:fa:70:c5:46:19:
                    9e:b7:74:79:ab:40:03:35:b3:c8:c1:e2:01:9d:08:
                    7f:a2:c7:d0:88:8e:b3:62:15:72:44:5b:e1:8d:0c:
                    f8:cd:0b:a6:fb:21:9f:b1:da:1f:e2:ed:01:fa:d6:
                    f6:d0:f4:3c:a6:c4:74:e0:8c:c2:95:86:7d:35:22:
                    9a:0d:0f:6e:4c:bb:a9:b7:0d:42:0b:0a:cc:8a:5c:
                    e5:db:c8:57:47:86:14:4d:e2:cd:7a:3b:a2:81:a5:
                    11:95:94:a4:e0:31:90:58:0c:34:f1:2c:a1:df:5a:
                    0e:cd:6d:0a:db:0a:ea:73:91:d5:c7:0f:76:a1:ca:
                    32:ce:2c:e4:fe:bd:cc:63:11:fa:49:fa:4f:69:0f:
                    7a:67:f9:1e:f0:b5:f7:e3:53:92:69:1b:b0:d0:a4:
                    87:a2:d2:7e:f9:e9:a9:a0:c9:6f:c8:9c:3a:6e:10:
                    95:83:94:9b:3e:42:d1:3c:69:89:d6:30:a0:f0:87:
                    96:04:f6:e1:c6:70:1a:10:c0:98:fc:c4:c5:a7:e6:
                    cb:49:9a:51:85:f8:c7:10:c5:be:7f:fc:3d:70:a0:
                    73:7e:77
                Exponent: 65537 (0x10001)
        X509v3 extensions:
            X509v3 Basic Constraints: 
                CA:FALSE
            Netscape Comment: 
                Easy-RSA Generated Certificate
            X509v3 Subject Key Identifier: 
                A0:CD:A2:57:3F:58:A3:35:7D:90:88:CD:45:95:31:73:DF:0B:B9:34
            X509v3 Authority Key Identifier: 
                keyid:12:CD:60:04:D2:A0:80:9E:70:ED:C6:99:B8:7B:2C:C6:52:FD:19:A1
                DirName:/C=US/ST=OH/L=Columbus/O=VikingVPN/OU=MyOrganizationalUnit/CN=VikingVPN CA/name=EasyRSA/emailAddress=me@myhost.mydomain
                serial:CF:35:85:EE:80:BF:2A:3E

            X509v3 Extended Key Usage: 
                TLS Web Client Authentication
            X509v3 Key Usage: 
                Digital Signature
    Signature Algorithm: md5WithRSAEncryption
         3d:5c:dd:0d:0c:a7:34:e6:94:02:b9:a5:35:9f:d2:db:62:d9:
         88:28:e3:d8:c0:06:03:2b:1c:a6:ae:86:ce:e5:47:15:08:54:
         d1:f5:a5:39:d5:58:ed:90:03:d7:6e:f7:6e:b6:6e:67:ca:cf:
         5c:35:ae:b1:85:b9:da:c7:a6:42:15:54:fb:45:6e:08:84:df:
         ae:6e:fe:13:cf:1b:3e:61:f1:63:23:01:56:2e:48:f0:ad:ff:
         f0:ad:1e:e2:2f:83:8f:db:62:c9:33:74:32:bc:d2:28:1b:cc:
         87:d6:84:c1:63:19:3a:e5:32:e6:fa:05:e1:d2:1a:6f:58:b4:
         c2:bb:d5:87:c6:e4:57:dd:e3:d0:70:6e:64:b9:36:76:a8:f3:
         5d:03:24:f3:6a:e3:14:74:ef:07:cb:ab:be:82:13:e2:d8:d8:
         ab:83:9b:f9:c2:ad:ab:2e:a4:64:b2:27:ba:17:79:c2:70:e0:
         1c:be:30:7e:14:fa:83:73:42:62:2a:7d:98:2b:99:a9:15:cf:
         a1:7e:79:94:3c:1e:aa:d2:5b:fb:eb:8b:ea:f1:79:17:a2:ed:
         ba:22:4d:92:69:c1:80:a7:74:f1:9b:93:8b:09:4c:f3:83:63:
         3e:dd:60:8d:69:a2:bb:9a:7f:48:7c:b0:c6:34:0b:cf:2a:73:
         73:31:c5:65:2c:7b:ee:26:aa:c1:11:cf:15:87:46:c9:45:27:
         28:28:d0:61:e0:3c:21:64:e4:b7:88:62:4b:e1:a9:cf:90:87:
         d1:e5:a8:9b:97:25:7a:80:f9:2b:17:a1:6e:1e:15:65:ec:40:
         1f:f9:ea:1c:0f:44:b0:99:90:25:24:18:93:19:5a:13:45:5d:
         9d:ea:0e:68:dc:2c:3b:c1:90:57:37:74:40:c7:df:c3:e4:e2:
         08:b3:f2:07:07:81:6b:8b:d6:75:59:af:ba:48:2c:fd:7a:f6:
         6b:e1:4e:0f:51:d7:bf:5e:60:fb:10:56:1e:d4:0c:5c:85:f7:
         5a:39:eb:7c:48:1e:00:09:06:21:b8:34:1f:6e:15:3e:9d:c7:
         ea:47:05:de:18:d2:be:75:80:70:b0:07:94:6a:c5:27:5f:02:
         38:a7:52:4b:e6:16:d3:d3:f2:96:d6:dd:c3:4d:4b:6a:61:ae:
         34:8c:38:43:e3:0f:53:84:4c:cc:3d:2f:a6:2f:f6:28:20:80:
         fb:9d:ee:62:90:74:8e:77:ee:04:dd:d9:33:da:7b:eb:3f:fe:
         34:22:1c:ce:9b:c9:c6:6d:4d:e3:5c:ef:38:b9:ed:52:19:21:
         f1:1f:a0:fd:0f:56:4c:ed:f0:0e:d8:84:56:ba:55:50:9a:d8:
         fc:8d:74:68:9b:d2:4a:9f
-----BEGIN CERTIFICATE-----
MIIGrDCCBJSgAwIBAgICD98wDQYJKoZIhvcNAQEEBQAwgawxCzAJBgNVBAYTAlVT
MQswCQYDVQQIEwJPSDERMA8GA1UEBxMIQ29sdW1idXMxEjAQBgNVBAoTCVZpa2lu
Z1ZQTjEdMBsGA1UECxMUTXlPcmdhbml6YXRpb25hbFVuaXQxFTATBgNVBAMTDFZp
a2luZ1ZQTiBDQTEQMA4GA1UEKRMHRWFzeVJTQTEhMB8GCSqGSIb3DQEJARYSbWVA
bXlob3N0Lm15ZG9tYWluMB4XDTE1MDExMDIyMDQxN1oXDTI1MDEwNzIyMDQxN1ow
HjEcMBoGA1UEAxMTQ2xpZW50MjcyQ2VydDhmMTFkYzCCAiIwDQYJKoZIhvcNAQEB
BQADggIPADCCAgoCggIBANm989Hqho0ysdDYWuH39f8z4pr2B7GneZIJj2ptI9PA
zpNBsoJsFgepLuLA6UUauviS2IBFKpekj6m/vr+59bRKjQ7JV5r1oRJCiUi9Gln7
kQlqIMLl+GeydTRvoXMF4kAkVeuIVDJ9hvJZa9gVv38DQ7GrbTQU6/gps4A28u8x
2TJ2sIQPE+/jWUFehgo5ggeKLFTAZUQhz14V0lTnApxKQByQS/doV+joZvnBn20Z
SFvIEJcRnVyVqqKYzZQ8geu608y1mqMHAAprCfZRMIn2c6PyWIhb9lGBoN7qfxI2
Dus/+JhgfNUAoNzkCHgrefPq3cXfHs9hhsU+nj8u7aHTVc2gbPF7UMOu+0KzHX4j
gKeFuvOvZud/43Eo36uCmm41Ah8i3vpwxUYZnrd0eatAAzWzyMHiAZ0If6LH0IiO
s2IVckRb4Y0M+M0Lpvshn7HaH+LtAfrW9tD0PKbEdOCMwpWGfTUimg0Pbky7qbcN
QgsKzIpc5dvIV0eGFE3izXo7ooGlEZWUpOAxkFgMNPEsod9aDs1tCtsK6nOR1ccP
dqHKMs4s5P69zGMR+kn6T2kPemf5HvC19+NTkmkbsNCkh6LSfvnpqaDJb8icOm4Q
lYOUmz5C0TxpidYwoPCHlgT24cZwGhDAmPzExafmy0maUYX4xxDFvn/8PXCgc353
AgMBAAGjggFjMIIBXzAJBgNVHRMEAjAAMC0GCWCGSAGG+EIBDQQgFh5FYXN5LVJT
QSBHZW5lcmF0ZWQgQ2VydGlmaWNhdGUwHQYDVR0OBBYEFKDNolc/WKM1fZCIzUWV
MXPfC7k0MIHhBgNVHSMEgdkwgdaAFBLNYATSoICecO3Gmbh7LMZS/RmhoYGypIGv
MIGsMQswCQYDVQQGEwJVUzELMAkGA1UECBMCT0gxETAPBgNVBAcTCENvbHVtYnVz
MRIwEAYDVQQKEwlWaWtpbmdWUE4xHTAbBgNVBAsTFE15T3JnYW5pemF0aW9uYWxV
bml0MRUwEwYDVQQDEwxWaWtpbmdWUE4gQ0ExEDAOBgNVBCkTB0Vhc3lSU0ExITAf
BgkqhkiG9w0BCQEWEm1lQG15aG9zdC5teWRvbWFpboIJAM81he6Avyo+MBMGA1Ud
JQQMMAoGCCsGAQUFBwMCMAsGA1UdDwQEAwIHgDANBgkqhkiG9w0BAQQFAAOCAgEA
PVzdDQynNOaUArmlNZ/S22LZiCjj2MAGAyscpq6GzuVHFQhU0fWlOdVY7ZAD1273
brZuZ8rPXDWusYW52semQhVU+0VuCITfrm7+E88bPmHxYyMBVi5I8K3/8K0e4i+D
j9tiyTN0MrzSKBvMh9aEwWMZOuUy5voF4dIab1i0wrvVh8bkV93j0HBuZLk2dqjz
XQMk82rjFHTvB8urvoIT4tjYq4Ob+cKtqy6kZLInuhd5wnDgHL4wfhT6g3NCYip9
mCuZqRXPoX55lDweqtJb++uL6vF5F6LtuiJNkmnBgKd08ZuTiwlM84NjPt1gjWmi
u5p/SHywxjQLzypzczHFZSx77iaqwRHPFYdGyUUnKCjQYeA8IWTkt4hiS+Gpz5CH
0eWom5cleoD5Kxehbh4VZexAH/nqHA9EsJmQJSQYkxlaE0VdneoOaNwsO8GQVzd0
QMffw+TiCLPyBweBa4vWdVmvukgs/Xr2a+FOD1HXv15g+xBWHtQMXIX3WjnrfEge
AAkGIbg0H24VPp3H6kcF3hjSvnWAcLAHlGrFJ18COKdSS+YW09Pyltbdw01LamGu
NIw4Q+MPU4RMzD0vpi/2KCCA+53uYpB0jnfuBN3ZM9p76z/+NCIczpvJxm1N41zv
OLntUhkh8R+g/Q9WTO3wDtiEVrpVUJrY/I10aJvSSp8=
-----END CERTIFICATE-----
