Certificate:
    Data:
        Version: 3 (0x2)
        Serial Number: 8784 (0x2250)
    Signature Algorithm: sha256WithRSAEncryption
        Issuer: C=US, ST=OH, L=Columbus, O=VikingVPN, OU=MyOrganizationalUnit, CN=VikingVPN CA/name=EasyRSA/emailAddress=me@myhost.mydomain
        Validity
            Not Before: Aug 15 14:10:10 2016 GMT
            Not After : Aug 13 14:10:10 2026 GMT
        Subject: CN=Client2225Cert222498
        Subject Public Key Info:
            Public Key Algorithm: rsaEncryption
                Public-Key: (4096 bit)
                Modulus:
                    00:be:dc:24:2e:65:a5:c0:c1:42:af:47:8f:60:c7:
                    0c:a4:21:7b:65:f7:e0:cb:8f:12:3c:92:4d:6d:6a:
                    49:bd:70:33:33:e6:4c:e5:0e:a0:a2:1b:b9:7c:39:
                    00:8f:15:fd:78:ae:de:31:4a:88:17:4a:f8:e0:92:
                    02:b7:d7:a7:fd:82:cc:a4:f4:80:bb:b8:61:f1:eb:
                    97:0a:86:b3:73:7b:f7:55:db:a0:cd:e0:cd:d6:c2:
                    f0:fa:7a:a9:4e:17:64:0d:bb:81:82:17:7d:34:4f:
                    06:76:1b:42:06:b0:5f:16:dc:f9:42:a8:ed:23:71:
                    d7:d9:ec:06:04:49:0c:24:18:0b:4e:ab:27:a0:7c:
                    44:61:59:00:ba:59:fd:b6:05:06:98:6f:c5:57:eb:
                    37:1b:06:b6:1a:28:4d:c8:b6:12:ec:1f:0a:e4:3c:
                    71:b1:45:47:2a:24:6b:ec:18:40:f2:0e:55:b8:95:
                    ab:0b:71:d2:23:16:55:d1:e5:f7:5f:f9:7c:89:26:
                    07:47:a9:bd:d2:ff:9b:72:5b:d7:6b:54:a4:91:47:
                    f9:84:dd:57:a3:b2:9a:cd:ae:ff:d0:d2:90:a2:9a:
                    3b:75:22:a2:4c:8f:05:9c:a8:a8:82:6c:74:6a:8d:
                    67:bf:a7:d7:d1:61:85:86:a8:41:f6:57:d4:3e:2c:
                    64:5f:02:08:25:a9:62:c3:2c:ce:fa:d1:04:8f:66:
                    fd:60:7f:21:b4:55:f5:4f:fe:dd:f9:92:c3:c3:52:
                    d1:12:26:71:58:5a:21:35:77:ea:6c:b5:e4:11:01:
                    8f:06:6b:a2:7a:a4:1f:76:d8:27:f8:9c:d9:61:85:
                    a0:60:56:98:08:c5:e0:a4:c4:35:c4:3c:f1:29:73:
                    17:eb:84:61:6d:e5:50:71:6a:47:85:cf:1d:d0:54:
                    9c:3a:0e:5f:8b:76:6e:ac:0a:0d:3b:02:f9:5d:1f:
                    55:58:5d:42:50:74:98:16:54:ef:ea:c1:95:cf:d6:
                    7f:d0:29:95:7a:4f:c6:9f:d8:19:fd:5c:75:42:2d:
                    ee:17:bb:7a:9e:7f:e0:7d:05:56:c1:49:3a:bb:91:
                    20:fa:50:da:e6:85:a4:0e:e6:13:e8:b5:fd:a2:a7:
                    0d:3f:e5:4d:9e:ce:61:70:24:2b:ca:81:d2:54:6e:
                    06:f8:e3:2f:bb:db:3d:51:0f:d5:67:ff:53:cb:74:
                    54:d1:12:2a:27:f0:a9:1b:3e:5e:90:c9:e6:0f:f6:
                    e6:d7:f5:35:98:1f:04:7f:82:60:b1:71:27:95:b3:
                    cd:e1:f9:96:41:e1:5e:45:48:0b:3c:34:fa:02:ad:
                    c6:e1:3a:85:31:8d:b3:3e:e2:ca:86:14:5e:f6:e1:
                    6a:c6:93
                Exponent: 65537 (0x10001)
        X509v3 extensions:
            X509v3 Basic Constraints: 
                CA:FALSE
            Netscape Comment: 
                Easy-RSA Generated Certificate
            X509v3 Subject Key Identifier: 
                52:32:A0:FC:A9:A9:0B:B4:CE:BB:ED:12:8E:68:07:AD:B3:A8:05:A0
            X509v3 Authority Key Identifier: 
                keyid:12:CD:60:04:D2:A0:80:9E:70:ED:C6:99:B8:7B:2C:C6:52:FD:19:A1
                DirName:/C=US/ST=OH/L=Columbus/O=VikingVPN/OU=MyOrganizationalUnit/CN=VikingVPN CA/name=EasyRSA/emailAddress=me@myhost.mydomain
                serial:CF:35:85:EE:80:BF:2A:3E

            X509v3 Extended Key Usage: 
                TLS Web Client Authentication
            X509v3 Key Usage: 
                Digital Signature
    Signature Algorithm: sha256WithRSAEncryption
         ab:45:1d:88:99:d0:bd:b7:e9:72:3f:7a:37:52:c1:50:23:89:
         dc:54:92:56:95:0c:57:c5:b8:08:3e:1f:0c:b2:02:8c:8b:bf:
         0a:e3:ef:7f:12:b3:1d:fa:71:9a:7a:ee:be:5b:1f:9c:53:53:
         d0:50:82:48:fe:cd:e0:bb:5e:47:d7:aa:37:3a:cf:ac:76:48:
         5f:f4:55:a0:a2:4a:89:c9:86:dc:10:9d:77:6b:44:3b:2e:ac:
         a5:b1:31:ee:46:78:dd:c7:ed:39:0c:69:ab:1f:bc:01:46:4e:
         41:de:fa:94:b5:d6:f4:0f:7a:1d:e6:4e:37:c3:34:2a:81:b9:
         84:fb:63:cc:98:6d:8e:84:64:68:91:ea:9a:e9:8c:59:d6:82:
         c2:e4:d5:c7:43:41:1c:3c:69:77:83:04:44:a9:92:f2:25:12:
         fc:2d:23:1c:1c:2a:be:d5:ac:e6:e4:c1:5e:c2:7e:d8:ac:a9:
         74:29:c2:32:fc:00:79:66:d3:df:64:14:f1:80:a1:e5:61:9f:
         b2:47:8b:1a:88:11:00:90:ad:fe:76:c0:c2:80:8b:4a:be:30:
         5f:40:31:21:94:70:00:1f:b3:01:42:65:e9:92:d7:37:cc:6b:
         e6:9d:48:07:7b:39:d1:91:f6:5e:1b:25:98:d2:13:8c:44:05:
         04:1a:77:3a:41:9c:df:96:ae:17:a6:e2:68:70:75:44:95:2a:
         24:8a:87:a9:f9:c7:d1:0f:47:10:15:08:65:f1:85:b9:01:23:
         13:5e:64:7b:cd:55:1b:be:75:2f:87:30:17:3f:02:58:0d:1e:
         9a:11:0a:0f:19:50:87:b1:33:ed:58:9e:32:7b:15:59:3c:06:
         a6:af:da:1d:ed:a4:c8:90:09:9f:45:9c:78:a3:4a:44:cb:c4:
         88:da:fd:54:91:0f:ae:c1:ea:92:63:f5:40:39:ae:83:24:df:
         cf:e3:d2:45:48:f1:4f:8e:b6:6e:99:cc:34:59:f8:83:57:69:
         b4:93:52:d2:76:b8:fa:ba:ef:85:27:e7:f1:fd:57:a8:9a:f5:
         0d:48:e2:20:68:f3:ee:51:1a:81:03:57:6a:75:39:3e:c0:f5:
         6c:1c:bd:b2:b2:13:3a:6a:b7:ca:45:fb:24:4d:e2:ee:a6:b5:
         22:c5:f2:26:73:e2:df:a4:14:ec:7a:8e:e3:43:83:80:e7:b3:
         1e:a2:4d:91:f7:99:5e:84:4c:b6:46:b6:d5:c7:a8:5e:ca:76:
         cc:c5:2c:47:e9:f0:f7:e1:68:19:c6:53:75:8b:7d:6d:7b:59:
         d9:64:b7:db:0f:37:48:47:0b:0d:07:d5:b4:45:e5:8f:02:ea:
         ed:b6:dc:a4:1a:62:1d:9c
-----BEGIN CERTIFICATE-----
MIIGrTCCBJWgAwIBAgICIlAwDQYJKoZIhvcNAQELBQAwgawxCzAJBgNVBAYTAlVT
MQswCQYDVQQIEwJPSDERMA8GA1UEBxMIQ29sdW1idXMxEjAQBgNVBAoTCVZpa2lu
Z1ZQTjEdMBsGA1UECxMUTXlPcmdhbml6YXRpb25hbFVuaXQxFTATBgNVBAMTDFZp
a2luZ1ZQTiBDQTEQMA4GA1UEKRMHRWFzeVJTQTEhMB8GCSqGSIb3DQEJARYSbWVA
bXlob3N0Lm15ZG9tYWluMB4XDTE2MDgxNTE0MTAxMFoXDTI2MDgxMzE0MTAxMFow
HzEdMBsGA1UEAxMUQ2xpZW50MjIyNUNlcnQyMjI0OTgwggIiMA0GCSqGSIb3DQEB
AQUAA4ICDwAwggIKAoICAQC+3CQuZaXAwUKvR49gxwykIXtl9+DLjxI8kk1takm9
cDMz5kzlDqCiG7l8OQCPFf14rt4xSogXSvjgkgK316f9gsyk9IC7uGHx65cKhrNz
e/dV26DN4M3WwvD6eqlOF2QNu4GCF300TwZ2G0IGsF8W3PlCqO0jcdfZ7AYESQwk
GAtOqyegfERhWQC6Wf22BQaYb8VX6zcbBrYaKE3IthLsHwrkPHGxRUcqJGvsGEDy
DlW4lasLcdIjFlXR5fdf+XyJJgdHqb3S/5tyW9drVKSRR/mE3VejsprNrv/Q0pCi
mjt1IqJMjwWcqKiCbHRqjWe/p9fRYYWGqEH2V9Q+LGRfAgglqWLDLM760QSPZv1g
fyG0VfVP/t35ksPDUtESJnFYWiE1d+psteQRAY8Ga6J6pB922Cf4nNlhhaBgVpgI
xeCkxDXEPPEpcxfrhGFt5VBxakeFzx3QVJw6Dl+Ldm6sCg07AvldH1VYXUJQdJgW
VO/qwZXP1n/QKZV6T8af2Bn9XHVCLe4Xu3qef+B9BVbBSTq7kSD6UNrmhaQO5hPo
tf2ipw0/5U2ezmFwJCvKgdJUbgb44y+72z1RD9Vn/1PLdFTREion8KkbPl6QyeYP
9ubX9TWYHwR/gmCxcSeVs83h+ZZB4V5FSAs8NPoCrcbhOoUxjbM+4sqGFF724WrG
kwIDAQABo4IBYzCCAV8wCQYDVR0TBAIwADAtBglghkgBhvhCAQ0EIBYeRWFzeS1S
U0EgR2VuZXJhdGVkIENlcnRpZmljYXRlMB0GA1UdDgQWBBRSMqD8qakLtM677RKO
aAets6gFoDCB4QYDVR0jBIHZMIHWgBQSzWAE0qCAnnDtxpm4eyzGUv0ZoaGBsqSB
rzCBrDELMAkGA1UEBhMCVVMxCzAJBgNVBAgTAk9IMREwDwYDVQQHEwhDb2x1bWJ1
czESMBAGA1UEChMJVmlraW5nVlBOMR0wGwYDVQQLExRNeU9yZ2FuaXphdGlvbmFs
VW5pdDEVMBMGA1UEAxMMVmlraW5nVlBOIENBMRAwDgYDVQQpEwdFYXN5UlNBMSEw
HwYJKoZIhvcNAQkBFhJtZUBteWhvc3QubXlkb21haW6CCQDPNYXugL8qPjATBgNV
HSUEDDAKBggrBgEFBQcDAjALBgNVHQ8EBAMCB4AwDQYJKoZIhvcNAQELBQADggIB
AKtFHYiZ0L236XI/ejdSwVAjidxUklaVDFfFuAg+HwyyAoyLvwrj738Ssx36cZp6
7r5bH5xTU9BQgkj+zeC7XkfXqjc6z6x2SF/0VaCiSonJhtwQnXdrRDsurKWxMe5G
eN3H7TkMaasfvAFGTkHe+pS11vQPeh3mTjfDNCqBuYT7Y8yYbY6EZGiR6prpjFnW
gsLk1cdDQRw8aXeDBESpkvIlEvwtIxwcKr7VrObkwV7CftisqXQpwjL8AHlm099k
FPGAoeVhn7JHixqIEQCQrf52wMKAi0q+MF9AMSGUcAAfswFCZemS1zfMa+adSAd7
OdGR9l4bJZjSE4xEBQQadzpBnN+Wrhem4mhwdUSVKiSKh6n5x9EPRxAVCGXxhbkB
IxNeZHvNVRu+dS+HMBc/AlgNHpoRCg8ZUIexM+1YnjJ7FVk8Bqav2h3tpMiQCZ9F
nHijSkTLxIja/VSRD67B6pJj9UA5roMk38/j0kVI8U+Otm6ZzDRZ+INXabSTUtJ2
uPq674Un5/H9V6ia9Q1I4iBo8+5RGoEDV2p1OT7A9WwcvbKyEzpqt8pF+yRN4u6m
tSLF8iZz4t+kFOx6juNDg4Dnsx6iTZH3mV6ETLZGttXHqF7KdszFLEfp8PfhaBnG
U3WLfW17Wdlkt9sPN0hHCw0H1bRF5Y8C6u223KQaYh2c
-----END CERTIFICATE-----
