Certificate:
    Data:
        Version: 3 (0x2)
        Serial Number: 10688 (0x29c0)
    Signature Algorithm: sha256WithRSAEncryption
        Issuer: C=US, ST=OH, L=Columbus, O=VikingVPN, OU=MyOrganizationalUnit, CN=VikingVPN CA/name=EasyRSA/emailAddress=me@myhost.mydomain
        Validity
            Not Before: Apr 19 04:22:15 2017 GMT
            Not After : Apr 17 04:22:15 2027 GMT
        Subject: CN=Client2844Cert4f2e37
        Subject Public Key Info:
            Public Key Algorithm: rsaEncryption
                Public-Key: (4096 bit)
                Modulus:
                    00:94:cd:d8:c3:08:48:a4:5b:73:74:6f:cf:0f:3d:
                    03:cd:4d:94:58:16:c8:58:2f:0f:bc:07:04:4b:b9:
                    21:6b:f6:4c:3d:64:de:49:b8:49:7e:66:dd:0d:54:
                    e4:92:3b:a2:3f:6b:bd:88:3e:93:19:de:c2:c0:f6:
                    e2:db:21:f8:f9:6c:b8:4c:e3:74:9a:0a:ca:88:cd:
                    91:18:51:ee:0c:55:7b:bd:cd:72:81:38:1d:75:30:
                    8e:b1:a1:66:9d:27:f8:98:16:4a:b5:aa:66:94:f4:
                    bb:10:6b:7d:4c:87:08:f9:a7:2b:9b:4a:9b:e9:95:
                    c4:7c:73:a0:06:5c:8c:1d:08:cd:ce:5d:15:0d:39:
                    be:9c:f5:6f:3c:c9:82:95:9a:77:a2:34:7d:23:0a:
                    5f:36:f7:c7:8d:fe:52:86:64:d5:19:aa:1d:4d:28:
                    6f:0a:6c:cc:ad:ac:40:ee:34:cf:4a:9a:32:95:8b:
                    ef:8e:72:54:6f:62:12:df:19:6e:c4:02:3a:4f:41:
                    23:84:af:54:3b:21:07:ee:a0:c1:d3:c6:7d:7e:e4:
                    91:21:7a:e7:df:99:83:30:c0:f5:2b:d7:65:7f:2a:
                    a2:77:8a:5b:b2:9b:eb:08:c7:98:3f:bc:60:1a:08:
                    8d:62:9b:3a:4c:1e:f4:1e:b5:74:2c:78:c7:91:06:
                    17:72:ee:fe:87:f4:89:ec:47:f6:ae:a8:0d:c8:01:
                    20:ad:b4:09:2a:f9:2e:fe:be:eb:ca:71:bb:26:a3:
                    5a:10:99:17:70:ae:17:1c:4d:b5:2e:44:b7:de:32:
                    65:6f:ab:c5:99:68:00:86:72:22:71:a1:72:23:23:
                    c6:1c:7c:19:8b:fd:2c:4d:ac:55:da:a1:2c:01:44:
                    56:39:ff:81:ca:ed:17:e6:19:36:1a:a4:0a:4a:fe:
                    33:cf:fd:20:f4:4c:a3:73:c4:fd:c4:ed:67:2f:76:
                    7d:ff:3f:ab:6b:6a:a0:6b:e4:cf:7f:25:e6:eb:45:
                    fb:2a:8e:b5:ed:9e:32:96:9c:42:87:5e:67:7c:5d:
                    1c:cb:c7:34:43:0b:dc:a8:3f:ee:29:a3:8a:b7:02:
                    cc:cf:37:02:6a:44:aa:cf:00:d4:68:61:64:63:d6:
                    7b:d5:56:a0:f2:5f:7e:9b:8b:07:a1:98:66:47:b5:
                    7a:bc:a7:d4:f2:00:0c:74:01:e6:cb:db:69:cb:2c:
                    32:8d:b2:16:1f:29:59:77:b8:1e:e7:4b:8c:0b:eb:
                    3c:d4:e0:c5:e1:db:b5:c5:51:80:73:7c:a9:6f:b7:
                    4b:7f:fe:a9:5f:3b:e2:c2:7f:f1:ad:92:b4:60:bb:
                    16:c7:e5:d3:77:b8:ee:06:38:26:6a:03:ac:41:20:
                    65:e2:d1
                Exponent: 65537 (0x10001)
        X509v3 extensions:
            X509v3 Basic Constraints: 
                CA:FALSE
            Netscape Comment: 
                Easy-RSA Generated Certificate
            X509v3 Subject Key Identifier: 
                AB:AC:2A:9E:CB:E2:9F:1E:4D:59:E9:1C:A3:D0:87:53:2F:A4:DF:01
            X509v3 Authority Key Identifier: 
                keyid:12:CD:60:04:D2:A0:80:9E:70:ED:C6:99:B8:7B:2C:C6:52:FD:19:A1
                DirName:/C=US/ST=OH/L=Columbus/O=VikingVPN/OU=MyOrganizationalUnit/CN=VikingVPN CA/name=EasyRSA/emailAddress=me@myhost.mydomain
                serial:CF:35:85:EE:80:BF:2A:3E

            X509v3 Extended Key Usage: 
                TLS Web Client Authentication
            X509v3 Key Usage: 
                Digital Signature
    Signature Algorithm: sha256WithRSAEncryption
         78:05:64:5d:e4:85:ef:b7:cd:17:fb:b5:b3:81:3f:ad:b5:cd:
         54:c1:cf:a0:3a:2a:2e:b0:9e:db:d3:79:b2:25:22:88:fa:ed:
         ae:16:6d:4d:de:32:9e:b5:83:9a:d4:01:26:03:6f:a3:06:83:
         09:2f:ab:02:76:52:d2:25:c3:0a:70:b0:da:48:09:13:92:2b:
         7c:9b:7b:ba:c1:9a:61:ae:31:c1:c3:ba:b0:90:60:f4:7a:37:
         fb:81:12:ba:2a:58:2b:fc:f3:6b:70:f6:e1:0f:c9:18:60:82:
         9a:58:03:ca:b0:26:56:f6:8c:97:48:d7:4a:e7:99:83:c1:70:
         3e:ef:b1:7b:35:14:b8:1c:60:bc:19:f1:a5:cd:61:c1:0e:18:
         72:28:3f:9c:0e:f7:e5:dd:21:3e:e9:f6:d9:66:01:ee:59:46:
         42:3c:31:35:c3:c9:08:66:ea:07:80:ee:c8:00:86:b3:e8:30:
         6e:44:3f:ec:7b:78:b6:2d:7d:59:2f:72:0b:5f:0e:6f:6c:d3:
         99:57:f7:c2:57:43:b6:33:5b:a9:ea:47:50:41:97:27:c8:a0:
         f4:f4:7c:b8:47:f6:6f:6c:3d:79:13:fb:21:6e:7a:ac:d0:78:
         77:f6:b8:a0:8d:d6:5d:51:63:1a:35:63:8a:d4:e5:b1:c8:24:
         89:8c:15:62:aa:2d:73:57:23:87:16:67:cb:e6:99:d5:56:fc:
         04:26:74:a9:f7:2e:0d:55:27:13:39:73:a0:b7:a9:ab:86:4c:
         6c:e1:91:65:d8:0f:8b:a2:4a:a9:2f:7d:04:50:96:00:a6:b9:
         78:e2:b4:f9:4d:16:d1:f9:a5:85:91:6b:fb:5d:d2:81:67:d2:
         b2:0f:0e:ec:d8:a4:2e:f3:e2:e3:c0:c5:44:7c:1b:04:f4:81:
         a7:76:ef:73:13:00:94:7e:a6:ab:8f:a5:0f:25:62:c8:69:6f:
         b2:6e:0e:f9:23:e8:8b:03:01:60:59:48:8a:4f:67:4e:da:2e:
         b4:9f:63:56:90:cb:ad:50:8f:3f:76:da:1a:56:e9:61:19:c5:
         71:02:34:d3:04:dd:0b:4c:7e:e1:a5:b5:bc:f6:93:19:2b:22:
         22:4f:4c:bd:dd:6f:08:4c:e3:72:2f:8a:3c:24:9b:4d:e7:f0:
         1f:f1:88:b4:c2:d7:d8:da:d4:c7:1d:9c:b8:74:2d:4c:0a:af:
         74:81:7c:68:e0:d8:f9:a9:26:41:61:57:93:b9:e0:07:4f:02:
         96:08:04:7e:f8:b5:50:98:a2:dc:95:ae:2d:d2:8c:6a:41:6f:
         e7:d5:6b:58:5a:61:dc:9f:24:91:d6:2d:24:1b:ac:60:ad:00:
         0b:ba:a3:7e:91:6f:55:9c
-----BEGIN CERTIFICATE-----
MIIGrTCCBJWgAwIBAgICKcAwDQYJKoZIhvcNAQELBQAwgawxCzAJBgNVBAYTAlVT
MQswCQYDVQQIEwJPSDERMA8GA1UEBxMIQ29sdW1idXMxEjAQBgNVBAoTCVZpa2lu
Z1ZQTjEdMBsGA1UECxMUTXlPcmdhbml6YXRpb25hbFVuaXQxFTATBgNVBAMTDFZp
a2luZ1ZQTiBDQTEQMA4GA1UEKRMHRWFzeVJTQTEhMB8GCSqGSIb3DQEJARYSbWVA
bXlob3N0Lm15ZG9tYWluMB4XDTE3MDQxOTA0MjIxNVoXDTI3MDQxNzA0MjIxNVow
HzEdMBsGA1UEAxMUQ2xpZW50Mjg0NENlcnQ0ZjJlMzcwggIiMA0GCSqGSIb3DQEB
AQUAA4ICDwAwggIKAoICAQCUzdjDCEikW3N0b88PPQPNTZRYFshYLw+8BwRLuSFr
9kw9ZN5JuEl+Zt0NVOSSO6I/a72IPpMZ3sLA9uLbIfj5bLhM43SaCsqIzZEYUe4M
VXu9zXKBOB11MI6xoWadJ/iYFkq1qmaU9LsQa31Mhwj5pyubSpvplcR8c6AGXIwd
CM3OXRUNOb6c9W88yYKVmneiNH0jCl8298eN/lKGZNUZqh1NKG8KbMytrEDuNM9K
mjKVi++OclRvYhLfGW7EAjpPQSOEr1Q7IQfuoMHTxn1+5JEheuffmYMwwPUr12V/
KqJ3iluym+sIx5g/vGAaCI1imzpMHvQetXQseMeRBhdy7v6H9InsR/auqA3IASCt
tAkq+S7+vuvKcbsmo1oQmRdwrhccTbUuRLfeMmVvq8WZaACGciJxoXIjI8YcfBmL
/SxNrFXaoSwBRFY5/4HK7RfmGTYapApK/jPP/SD0TKNzxP3E7Wcvdn3/P6traqBr
5M9/JebrRfsqjrXtnjKWnEKHXmd8XRzLxzRDC9yoP+4po4q3AszPNwJqRKrPANRo
YWRj1nvVVqDyX36biwehmGZHtXq8p9TyAAx0AebL22nLLDKNshYfKVl3uB7nS4wL
6zzU4MXh27XFUYBzfKlvt0t//qlfO+LCf/GtkrRguxbH5dN3uO4GOCZqA6xBIGXi
0QIDAQABo4IBYzCCAV8wCQYDVR0TBAIwADAtBglghkgBhvhCAQ0EIBYeRWFzeS1S
U0EgR2VuZXJhdGVkIENlcnRpZmljYXRlMB0GA1UdDgQWBBSrrCqey+KfHk1Z6Ryj
0IdTL6TfATCB4QYDVR0jBIHZMIHWgBQSzWAE0qCAnnDtxpm4eyzGUv0ZoaGBsqSB
rzCBrDELMAkGA1UEBhMCVVMxCzAJBgNVBAgTAk9IMREwDwYDVQQHEwhDb2x1bWJ1
czESMBAGA1UEChMJVmlraW5nVlBOMR0wGwYDVQQLExRNeU9yZ2FuaXphdGlvbmFs
VW5pdDEVMBMGA1UEAxMMVmlraW5nVlBOIENBMRAwDgYDVQQpEwdFYXN5UlNBMSEw
HwYJKoZIhvcNAQkBFhJtZUBteWhvc3QubXlkb21haW6CCQDPNYXugL8qPjATBgNV
HSUEDDAKBggrBgEFBQcDAjALBgNVHQ8EBAMCB4AwDQYJKoZIhvcNAQELBQADggIB
AHgFZF3khe+3zRf7tbOBP621zVTBz6A6Ki6wntvTebIlIoj67a4WbU3eMp61g5rU
ASYDb6MGgwkvqwJ2UtIlwwpwsNpICROSK3ybe7rBmmGuMcHDurCQYPR6N/uBEroq
WCv882tw9uEPyRhggppYA8qwJlb2jJdI10rnmYPBcD7vsXs1FLgcYLwZ8aXNYcEO
GHIoP5wO9+XdIT7p9tlmAe5ZRkI8MTXDyQhm6geA7sgAhrPoMG5EP+x7eLYtfVkv
cgtfDm9s05lX98JXQ7YzW6nqR1BBlyfIoPT0fLhH9m9sPXkT+yFueqzQeHf2uKCN
1l1RYxo1Y4rU5bHIJImMFWKqLXNXI4cWZ8vmmdVW/AQmdKn3Lg1VJxM5c6C3qauG
TGzhkWXYD4uiSqkvfQRQlgCmuXjitPlNFtH5pYWRa/td0oFn0rIPDuzYpC7z4uPA
xUR8GwT0gad273MTAJR+pquPpQ8lYshpb7JuDvkj6IsDAWBZSIpPZ07aLrSfY1aQ
y61Qjz922hpW6WEZxXECNNME3QtMfuGltbz2kxkrIiJPTL3dbwhM43Ivijwkm03n
8B/xiLTC19ja1McdnLh0LUwKr3SBfGjg2PmpJkFhV5O54AdPApYIBH74tVCYotyV
ri3SjGpBb+fVa1haYdyfJJHWLSQbrGCtAAu6o36Rb1Wc
-----END CERTIFICATE-----
