Certificate:
    Data:
        Version: 3 (0x2)
        Serial Number: 905 (0x389)
    Signature Algorithm: md5WithRSAEncryption
        Issuer: C=US, ST=OH, L=Columbus, O=VikingVPN, OU=MyOrganizationalUnit, CN=VikingVPN CA/name=EasyRSA/emailAddress=me@myhost.mydomain
        Validity
            Not Before: Feb  1 00:27:48 2014 GMT
            Not After : Jan 30 00:27:48 2024 GMT
        Subject: CN=Client3Cert9f73b8
        Subject Public Key Info:
            Public Key Algorithm: rsaEncryption
                Public-Key: (4096 bit)
                Modulus:
                    00:be:82:d4:87:42:71:98:50:1c:f1:52:3a:55:b1:
                    ca:32:95:55:05:2a:5a:5d:74:d3:77:d0:85:f6:1e:
                    e6:7d:66:63:03:6e:e7:61:d3:52:16:2b:fb:ea:a4:
                    0b:2f:81:c4:2d:25:07:6a:bb:63:2e:bb:85:56:ae:
                    69:42:46:cf:0f:4d:ec:0f:df:b2:fb:cd:ae:11:65:
                    ce:de:13:c7:81:ca:bf:17:d3:3b:58:ca:b7:f9:18:
                    23:1d:b1:b2:5c:60:01:eb:40:84:0b:e1:a0:07:d4:
                    59:6a:1a:cc:26:a1:97:4d:89:9d:e5:58:be:94:27:
                    63:ab:e3:66:05:92:05:3f:17:5b:8f:36:f3:01:17:
                    0e:47:88:35:a3:b6:7a:ad:38:0e:6d:db:1f:07:1a:
                    71:ad:44:55:1e:18:94:88:d6:ea:56:d7:ff:c8:f6:
                    e2:9a:9d:90:9e:35:42:44:63:1b:87:c9:dd:22:36:
                    8a:f0:e4:01:3a:a4:0a:78:53:d6:42:17:d9:7f:d5:
                    54:6f:5f:df:3d:51:b0:b1:8b:f3:f2:93:68:98:b9:
                    18:68:93:fd:a1:92:ba:06:6a:cf:f4:c6:59:1d:5d:
                    c9:3e:15:b8:a5:54:ee:5f:38:f1:73:dc:ef:89:fa:
                    03:ba:e1:02:68:8e:d5:cc:48:49:30:76:b5:c9:11:
                    bb:a9:c1:3b:bd:26:5c:f1:40:97:9e:76:f1:44:7a:
                    56:4b:b3:44:b6:7b:63:76:43:81:9b:97:2e:48:17:
                    81:b6:fe:5f:ed:ff:a4:88:40:b5:60:56:43:f8:ea:
                    05:22:2e:ea:8f:cb:28:4e:a9:90:cb:b9:b2:57:df:
                    42:6e:b7:bc:c6:ea:d0:91:0c:af:47:d3:b5:ca:03:
                    2a:32:01:a1:9e:a7:cb:3c:23:ca:46:56:a3:5d:8b:
                    76:5f:ad:0a:f0:fe:d1:d6:cf:d2:0d:e6:21:70:d6:
                    60:aa:68:72:ef:dc:41:f3:9c:d2:60:dd:ad:1e:b0:
                    1f:b3:75:92:5a:af:1f:fe:f2:f6:65:4e:ab:7c:e3:
                    cf:7c:5a:9f:6f:c0:ab:9e:aa:8b:d9:b4:fa:88:72:
                    4c:25:87:29:7a:f7:ce:69:77:88:70:e7:e0:d7:b7:
                    af:fd:b7:a0:03:00:6c:0a:c0:36:5f:5e:be:88:a6:
                    a3:39:60:b5:41:ce:5b:a4:db:96:32:e3:7a:cd:6b:
                    b8:bd:03:c7:d3:99:61:cc:7c:96:35:09:6c:44:73:
                    45:42:36:63:8a:2b:3c:09:ee:f0:1b:90:9f:be:76:
                    79:ca:42:3c:f4:06:44:19:a2:fd:77:10:b8:38:e3:
                    7e:82:c3:db:8f:a1:06:f9:f2:a4:f0:bb:3a:ef:22:
                    96:8a:49
                Exponent: 65537 (0x10001)
        X509v3 extensions:
            X509v3 Basic Constraints: 
                CA:FALSE
            Netscape Comment: 
                Easy-RSA Generated Certificate
            X509v3 Subject Key Identifier: 
                1B:6B:E0:45:AA:F3:4F:A5:D8:3A:44:DF:06:A5:35:6C:B6:45:29:66
            X509v3 Authority Key Identifier: 
                keyid:12:CD:60:04:D2:A0:80:9E:70:ED:C6:99:B8:7B:2C:C6:52:FD:19:A1
                DirName:/C=US/ST=OH/L=Columbus/O=VikingVPN/OU=MyOrganizationalUnit/CN=VikingVPN CA/name=EasyRSA/emailAddress=me@myhost.mydomain
                serial:CF:35:85:EE:80:BF:2A:3E

            X509v3 Extended Key Usage: 
                TLS Web Client Authentication
            X509v3 Key Usage: 
                Digital Signature
    Signature Algorithm: md5WithRSAEncryption
         e1:2f:50:d3:f1:be:3f:69:1a:ca:58:19:94:90:b7:9c:dd:31:
         3f:d0:1a:c9:17:da:71:04:5c:ad:15:e2:2e:9b:19:4d:9f:b7:
         28:10:69:c5:a8:1b:a8:98:e8:d9:fa:1c:8b:64:9f:83:d3:64:
         52:01:f2:17:7c:25:65:f0:16:f0:e5:7d:1d:f3:56:2f:a3:d2:
         c9:6c:5a:61:fd:3b:1b:7f:17:0f:bc:17:80:5b:3f:d8:42:dd:
         7f:e8:e1:f8:a4:33:37:04:04:fb:86:55:3e:60:a6:d4:76:42:
         0a:e4:c0:c0:49:1e:5e:69:58:c7:e5:b0:24:a1:40:75:05:5b:
         9a:31:72:8d:38:6d:c8:be:2d:53:c8:d3:66:95:b4:f8:0b:21:
         7e:87:73:12:9f:41:3e:88:f3:03:1e:8f:a5:ea:fb:d5:8d:f6:
         51:dc:d3:33:87:2a:49:9e:86:a1:e5:80:1b:e0:06:d1:81:47:
         78:80:10:6b:f7:45:41:3c:e2:d8:94:55:77:d7:cc:d5:49:7a:
         8e:f0:c9:1a:ba:98:b0:5d:4c:46:46:83:fc:13:c8:75:15:54:
         5a:a2:12:8a:b5:13:a6:c7:5d:33:02:f4:32:6f:25:01:19:1f:
         4e:3f:99:0a:78:85:dc:ec:9b:bd:29:c5:15:71:c3:ae:54:d1:
         c4:24:57:df:18:32:a6:a7:ca:99:b0:11:65:af:2b:ef:38:82:
         5a:af:ee:0d:a8:52:b6:a2:e0:13:da:1e:d8:a4:ef:79:71:04:
         6e:22:9d:4d:86:a5:9f:ef:82:f2:05:ce:d9:ce:a8:24:3e:62:
         43:0e:7f:6c:e7:d7:8c:12:32:19:88:5b:7d:e3:0f:a7:1f:c8:
         09:f8:e8:79:3f:ea:c6:df:c6:2c:3a:bc:24:b1:f3:46:82:57:
         53:22:a3:2d:af:f9:73:fd:f9:1a:36:ea:30:82:33:2e:4a:c4:
         21:64:b5:e4:0b:03:e8:1d:58:31:63:99:29:09:b5:87:db:d2:
         ba:4c:11:0c:a6:90:a2:1f:12:94:b8:3b:5c:d0:4f:98:48:b1:
         2c:df:87:4b:d4:bc:e8:fd:55:e9:82:03:ba:17:4e:d2:0e:df:
         59:04:6c:af:c7:ef:be:0b:50:22:4f:2e:ca:ed:50:fa:ab:d2:
         6a:b4:f0:4c:ac:7c:1e:95:59:e0:b2:3f:51:e9:18:bb:11:e7:
         34:96:25:5c:45:fe:5e:ab:f8:e0:12:70:24:2a:45:bf:cd:de:
         a1:cf:8c:1d:24:6c:0f:e9:17:a7:e6:17:90:73:f2:26:23:a5:
         68:5d:67:c7:73:36:90:7e:ec:d7:c7:c1:b3:ab:bc:c4:c5:02:
         7e:dd:5d:76:d7:28:41:3a
-----BEGIN CERTIFICATE-----
MIIGqjCCBJKgAwIBAgICA4kwDQYJKoZIhvcNAQEEBQAwgawxCzAJBgNVBAYTAlVT
MQswCQYDVQQIEwJPSDERMA8GA1UEBxMIQ29sdW1idXMxEjAQBgNVBAoTCVZpa2lu
Z1ZQTjEdMBsGA1UECxMUTXlPcmdhbml6YXRpb25hbFVuaXQxFTATBgNVBAMTDFZp
a2luZ1ZQTiBDQTEQMA4GA1UEKRMHRWFzeVJTQTEhMB8GCSqGSIb3DQEJARYSbWVA
bXlob3N0Lm15ZG9tYWluMB4XDTE0MDIwMTAwMjc0OFoXDTI0MDEzMDAwMjc0OFow
HDEaMBgGA1UEAxMRQ2xpZW50M0NlcnQ5ZjczYjgwggIiMA0GCSqGSIb3DQEBAQUA
A4ICDwAwggIKAoICAQC+gtSHQnGYUBzxUjpVscoylVUFKlpddNN30IX2HuZ9ZmMD
budh01IWK/vqpAsvgcQtJQdqu2Muu4VWrmlCRs8PTewP37L7za4RZc7eE8eByr8X
0ztYyrf5GCMdsbJcYAHrQIQL4aAH1FlqGswmoZdNiZ3lWL6UJ2Or42YFkgU/F1uP
NvMBFw5HiDWjtnqtOA5t2x8HGnGtRFUeGJSI1upW1//I9uKanZCeNUJEYxuHyd0i
Norw5AE6pAp4U9ZCF9l/1VRvX989UbCxi/Pyk2iYuRhok/2hkroGas/0xlkdXck+
FbilVO5fOPFz3O+J+gO64QJojtXMSEkwdrXJEbupwTu9JlzxQJeedvFEelZLs0S2
e2N2Q4Gbly5IF4G2/l/t/6SIQLVgVkP46gUiLuqPyyhOqZDLubJX30Jut7zG6tCR
DK9H07XKAyoyAaGep8s8I8pGVqNdi3ZfrQrw/tHWz9IN5iFw1mCqaHLv3EHznNJg
3a0esB+zdZJarx/+8vZlTqt84898Wp9vwKueqovZtPqIckwlhyl6985pd4hw5+DX
t6/9t6ADAGwKwDZfXr6IpqM5YLVBzluk25Yy43rNa7i9A8fTmWHMfJY1CWxEc0VC
NmOKKzwJ7vAbkJ++dnnKQjz0BkQZov13ELg4436Cw9uPoQb58qTwuzrvIpaKSQID
AQABo4IBYzCCAV8wCQYDVR0TBAIwADAtBglghkgBhvhCAQ0EIBYeRWFzeS1SU0Eg
R2VuZXJhdGVkIENlcnRpZmljYXRlMB0GA1UdDgQWBBQba+BFqvNPpdg6RN8GpTVs
tkUpZjCB4QYDVR0jBIHZMIHWgBQSzWAE0qCAnnDtxpm4eyzGUv0ZoaGBsqSBrzCB
rDELMAkGA1UEBhMCVVMxCzAJBgNVBAgTAk9IMREwDwYDVQQHEwhDb2x1bWJ1czES
MBAGA1UEChMJVmlraW5nVlBOMR0wGwYDVQQLExRNeU9yZ2FuaXphdGlvbmFsVW5p
dDEVMBMGA1UEAxMMVmlraW5nVlBOIENBMRAwDgYDVQQpEwdFYXN5UlNBMSEwHwYJ
KoZIhvcNAQkBFhJtZUBteWhvc3QubXlkb21haW6CCQDPNYXugL8qPjATBgNVHSUE
DDAKBggrBgEFBQcDAjALBgNVHQ8EBAMCB4AwDQYJKoZIhvcNAQEEBQADggIBAOEv
UNPxvj9pGspYGZSQt5zdMT/QGskX2nEEXK0V4i6bGU2ftygQacWoG6iY6Nn6HItk
n4PTZFIB8hd8JWXwFvDlfR3zVi+j0slsWmH9Oxt/Fw+8F4BbP9hC3X/o4fikMzcE
BPuGVT5gptR2QgrkwMBJHl5pWMflsCShQHUFW5oxco04bci+LVPI02aVtPgLIX6H
cxKfQT6I8wMej6Xq+9WN9lHc0zOHKkmehqHlgBvgBtGBR3iAEGv3RUE84tiUVXfX
zNVJeo7wyRq6mLBdTEZGg/wTyHUVVFqiEoq1E6bHXTMC9DJvJQEZH04/mQp4hdzs
m70pxRVxw65U0cQkV98YMqanypmwEWWvK+84glqv7g2oUrai4BPaHtik73lxBG4i
nU2GpZ/vgvIFztnOqCQ+YkMOf2zn14wSMhmIW33jD6cfyAn46Hk/6sbfxiw6vCSx
80aCV1Mioy2v+XP9+Ro26jCCMy5KxCFkteQLA+gdWDFjmSkJtYfb0rpMEQymkKIf
EpS4O1zQT5hIsSzfh0vUvOj9VemCA7oXTtIO31kEbK/H774LUCJPLsrtUPqr0mq0
8EysfB6VWeCyP1HpGLsR5zSWJVxF/l6r+OAScCQqRb/N3qHPjB0kbA/pF6fmF5Bz
8iYjpWhdZ8dzNpB+7NfHwbOrvMTFAn7dXXbXKEE6
-----END CERTIFICATE-----
