Certificate:
    Data:
        Version: 3 (0x2)
        Serial Number: 74 (0x4a)
    Signature Algorithm: md5WithRSAEncryption
        Issuer: C=US, ST=OH, L=Columbus, O=VikingVPN, OU=MyOrganizationalUnit, CN=VikingVPN CA/name=EasyRSA/emailAddress=me@myhost.mydomain
        Validity
            Not Before: Aug 15 22:19:07 2013 GMT
            Not After : Aug 13 22:19:07 2023 GMT
        Subject: CN=Client52Certcb406f
        Subject Public Key Info:
            Public Key Algorithm: rsaEncryption
                Public-Key: (4096 bit)
                Modulus:
                    00:ca:63:39:70:57:03:d0:af:9c:26:98:12:81:cf:
                    2c:e8:42:b0:8e:63:9d:8c:40:3a:3a:23:c6:7a:97:
                    01:30:2b:0f:36:ab:a3:9e:66:d8:f1:8f:91:eb:64:
                    7c:87:96:b0:d6:d6:38:a2:9f:8b:7e:a2:f6:1b:b2:
                    1c:d8:0f:40:72:8f:b2:65:1f:f3:71:06:6e:c5:2d:
                    cc:f5:cd:4b:ad:5b:c3:0d:82:cd:de:a6:fc:77:dd:
                    6d:c4:46:99:b4:ad:f6:e7:68:5f:08:8f:fd:5c:f6:
                    c5:c5:53:c7:84:87:27:32:5d:f8:c6:44:bb:d4:9c:
                    34:71:78:85:7a:2f:2e:a6:fc:45:b1:6a:19:36:74:
                    e3:22:4b:e5:33:29:68:f2:dc:de:53:62:47:88:c2:
                    fb:c4:41:7d:c3:a1:66:ce:48:c3:19:6c:31:55:2e:
                    b4:a2:5c:aa:6e:de:6c:bc:9d:1f:4b:ff:0f:91:c6:
                    3e:d0:c5:bc:ae:ab:8d:fa:be:a1:6b:5b:da:d2:c9:
                    1f:01:6a:ac:9c:ee:23:f6:c9:c9:0c:3a:6c:e9:a1:
                    34:b1:e6:0e:2c:b6:e1:23:ab:88:c5:aa:8b:85:08:
                    36:89:e8:68:31:87:38:b2:25:bc:3e:32:54:46:01:
                    e2:6c:48:27:a4:19:d5:b3:c6:de:e0:c9:84:7f:f3:
                    7b:af:17:bc:cc:66:2c:11:7f:85:29:a7:44:06:67:
                    eb:1a:86:aa:26:e7:45:ff:5d:0c:3c:a6:f2:66:e2:
                    52:93:2a:d1:86:43:3f:f3:fd:b4:9c:2a:f7:e6:6d:
                    f0:3e:5f:29:40:0b:5f:7e:d5:a2:10:e1:b4:59:e5:
                    f3:e2:ba:b7:0e:a6:0b:7d:7b:8d:57:78:7a:64:b4:
                    b1:0c:49:69:60:17:50:30:fd:12:9c:b3:0d:5e:d8:
                    43:2d:13:84:79:e5:6a:8c:4d:49:ed:ef:c4:83:ff:
                    26:29:b9:ae:d0:12:19:ff:70:0f:f2:85:a6:62:b2:
                    de:e9:6b:2c:84:04:78:4c:2e:43:89:95:09:44:77:
                    a3:45:45:61:74:f7:fc:40:11:b5:ff:83:60:da:e5:
                    18:36:a4:62:0f:51:47:34:28:a1:e6:aa:9e:e7:c7:
                    1c:9d:16:a7:b3:36:b8:be:c3:1c:94:d4:e9:69:22:
                    c8:96:8d:ba:6f:27:62:d6:a2:c5:46:33:65:55:78:
                    32:c8:6b:02:17:8a:34:3d:23:4a:ab:ca:9d:52:15:
                    78:c0:5b:92:4a:93:33:04:68:23:2d:35:00:86:51:
                    8b:0b:4c:79:52:4e:63:5f:23:ac:3b:7a:53:f2:0a:
                    c8:74:99:73:b3:56:10:32:9d:7f:b1:ea:8c:86:de:
                    5b:62:51
                Exponent: 65537 (0x10001)
        X509v3 extensions:
            X509v3 Basic Constraints: 
                CA:FALSE
            Netscape Comment: 
                Easy-RSA Generated Certificate
            X509v3 Subject Key Identifier: 
                95:32:D4:E7:05:47:10:8F:1F:65:35:B0:E9:EA:4F:EA:DA:2F:C8:57
            X509v3 Authority Key Identifier: 
                keyid:12:CD:60:04:D2:A0:80:9E:70:ED:C6:99:B8:7B:2C:C6:52:FD:19:A1
                DirName:/C=US/ST=OH/L=Columbus/O=VikingVPN/OU=MyOrganizationalUnit/CN=VikingVPN CA/name=EasyRSA/emailAddress=me@myhost.mydomain
                serial:CF:35:85:EE:80:BF:2A:3E

            X509v3 Extended Key Usage: 
                TLS Web Client Authentication
            X509v3 Key Usage: 
                Digital Signature
    Signature Algorithm: md5WithRSAEncryption
         30:95:87:23:da:e8:b6:45:05:c9:dc:68:d2:0d:f4:90:09:a6:
         79:28:50:b7:c4:3e:78:e8:4a:ed:a3:cd:d2:ab:9a:57:0e:7d:
         3a:4e:17:0c:b0:6e:7d:3a:05:94:cc:8f:51:a2:de:44:cc:15:
         e7:33:93:7e:52:22:3a:7f:5d:ae:31:ec:5e:c5:39:79:a5:37:
         43:ec:c3:ec:8b:89:12:39:18:a7:4a:be:13:23:9e:f0:d7:47:
         cb:90:7a:92:33:3e:dc:3b:08:60:17:66:13:6e:f6:cd:61:9b:
         c4:b5:94:e8:85:b0:58:b6:45:41:5f:54:b8:83:52:09:73:99:
         74:84:fa:c3:ce:29:bf:e0:e8:00:e8:21:3a:9b:a7:28:ea:f8:
         00:cb:49:6d:c6:ed:2d:62:27:a7:d0:ed:10:e7:25:33:75:93:
         df:2b:3b:8e:b0:07:e8:bf:96:51:26:2b:da:13:cc:d3:a1:d2:
         29:fd:6a:7e:2e:e0:fc:4c:2b:48:bb:1d:08:79:de:92:63:de:
         96:cd:26:36:df:35:cf:c0:bc:77:31:61:af:5e:e3:f7:d2:b5:
         b9:7b:df:b8:5f:be:07:97:ae:07:a7:8c:7c:59:91:e9:6e:f6:
         4a:72:68:77:df:e4:63:8b:4a:ae:aa:39:0a:ed:16:ea:d2:a8:
         b8:87:03:3a:01:7a:36:b9:c3:e2:56:62:1e:89:e4:bf:77:7f:
         a7:cb:c2:89:23:02:07:5f:01:0e:c1:6f:d7:3d:e7:1d:9e:4d:
         bb:a3:9c:8a:35:6e:18:f3:fb:a4:c3:35:f9:2c:86:80:7d:21:
         46:41:4e:ec:bd:c1:59:3d:33:71:f6:87:b7:64:66:62:75:e7:
         b4:a6:fc:82:89:0d:d2:15:19:c0:89:af:81:b9:0b:88:20:b8:
         a3:8a:61:b2:3f:1b:53:a5:34:4c:2e:31:b9:c8:4b:fa:f8:86:
         38:9d:45:ab:08:f5:c1:59:84:75:51:98:d3:3e:23:ee:32:af:
         61:c3:d7:dd:a7:e6:66:05:b4:4b:28:b0:ff:15:78:99:46:06:
         04:7f:4d:90:0b:42:86:eb:85:a0:d4:04:bf:4b:cc:82:e8:61:
         a8:32:a0:c4:79:94:c1:12:1c:05:69:b9:ea:93:2a:64:4b:9f:
         14:2f:68:7c:65:21:5d:e2:97:ee:81:b3:55:03:22:42:02:03:
         a4:e7:2a:6d:87:9c:d6:8c:38:fc:87:65:35:0f:00:e0:6b:dc:
         f4:51:0b:5c:16:ae:1a:f9:62:a0:7a:32:95:34:b5:59:d5:2f:
         fb:2b:fe:75:ad:32:74:3c:b4:45:b2:16:7d:96:6e:f3:a9:b1:
         ea:17:24:b3:af:cd:3f:8e
-----BEGIN CERTIFICATE-----
MIIGqjCCBJKgAwIBAgIBSjANBgkqhkiG9w0BAQQFADCBrDELMAkGA1UEBhMCVVMx
CzAJBgNVBAgTAk9IMREwDwYDVQQHEwhDb2x1bWJ1czESMBAGA1UEChMJVmlraW5n
VlBOMR0wGwYDVQQLExRNeU9yZ2FuaXphdGlvbmFsVW5pdDEVMBMGA1UEAxMMVmlr
aW5nVlBOIENBMRAwDgYDVQQpEwdFYXN5UlNBMSEwHwYJKoZIhvcNAQkBFhJtZUBt
eWhvc3QubXlkb21haW4wHhcNMTMwODE1MjIxOTA3WhcNMjMwODEzMjIxOTA3WjAd
MRswGQYDVQQDExJDbGllbnQ1MkNlcnRjYjQwNmYwggIiMA0GCSqGSIb3DQEBAQUA
A4ICDwAwggIKAoICAQDKYzlwVwPQr5wmmBKBzyzoQrCOY52MQDo6I8Z6lwEwKw82
q6OeZtjxj5HrZHyHlrDW1jiin4t+ovYbshzYD0Byj7JlH/NxBm7FLcz1zUutW8MN
gs3epvx33W3ERpm0rfbnaF8Ij/1c9sXFU8eEhycyXfjGRLvUnDRxeIV6Ly6m/EWx
ahk2dOMiS+UzKWjy3N5TYkeIwvvEQX3DoWbOSMMZbDFVLrSiXKpu3my8nR9L/w+R
xj7Qxbyuq436vqFrW9rSyR8Baqyc7iP2yckMOmzpoTSx5g4stuEjq4jFqouFCDaJ
6GgxhziyJbw+MlRGAeJsSCekGdWzxt7gyYR/83uvF7zMZiwRf4Upp0QGZ+sahqom
50X/XQw8pvJm4lKTKtGGQz/z/bScKvfmbfA+XylAC19+1aIQ4bRZ5fPiurcOpgt9
e41XeHpktLEMSWlgF1Aw/RKcsw1e2EMtE4R55WqMTUnt78SD/yYpua7QEhn/cA/y
haZist7payyEBHhMLkOJlQlEd6NFRWF09/xAEbX/g2Da5Rg2pGIPUUc0KKHmqp7n
xxydFqezNri+wxyU1OlpIsiWjbpvJ2LWosVGM2VVeDLIawIXijQ9I0qryp1SFXjA
W5JKkzMEaCMtNQCGUYsLTHlSTmNfI6w7elPyCsh0mXOzVhAynX+x6oyG3ltiUQID
AQABo4IBYzCCAV8wCQYDVR0TBAIwADAtBglghkgBhvhCAQ0EIBYeRWFzeS1SU0Eg
R2VuZXJhdGVkIENlcnRpZmljYXRlMB0GA1UdDgQWBBSVMtTnBUcQjx9lNbDp6k/q
2i/IVzCB4QYDVR0jBIHZMIHWgBQSzWAE0qCAnnDtxpm4eyzGUv0ZoaGBsqSBrzCB
rDELMAkGA1UEBhMCVVMxCzAJBgNVBAgTAk9IMREwDwYDVQQHEwhDb2x1bWJ1czES
MBAGA1UEChMJVmlraW5nVlBOMR0wGwYDVQQLExRNeU9yZ2FuaXphdGlvbmFsVW5p
dDEVMBMGA1UEAxMMVmlraW5nVlBOIENBMRAwDgYDVQQpEwdFYXN5UlNBMSEwHwYJ
KoZIhvcNAQkBFhJtZUBteWhvc3QubXlkb21haW6CCQDPNYXugL8qPjATBgNVHSUE
DDAKBggrBgEFBQcDAjALBgNVHQ8EBAMCB4AwDQYJKoZIhvcNAQEEBQADggIBADCV
hyPa6LZFBcncaNIN9JAJpnkoULfEPnjoSu2jzdKrmlcOfTpOFwywbn06BZTMj1Gi
3kTMFeczk35SIjp/Xa4x7F7FOXmlN0Psw+yLiRI5GKdKvhMjnvDXR8uQepIzPtw7
CGAXZhNu9s1hm8S1lOiFsFi2RUFfVLiDUglzmXSE+sPOKb/g6ADoITqbpyjq+ADL
SW3G7S1iJ6fQ7RDnJTN1k98rO46wB+i/llEmK9oTzNOh0in9an4u4PxMK0i7HQh5
3pJj3pbNJjbfNc/AvHcxYa9e4/fStbl737hfvgeXrgenjHxZkelu9kpyaHff5GOL
Sq6qOQrtFurSqLiHAzoBeja5w+JWYh6J5L93f6fLwokjAgdfAQ7Bb9c95x2eTbuj
nIo1bhjz+6TDNfkshoB9IUZBTuy9wVk9M3H2h7dkZmJ157Sm/IKJDdIVGcCJr4G5
C4gguKOKYbI/G1OlNEwuMbnIS/r4hjidRasI9cFZhHVRmNM+I+4yr2HD192n5mYF
tEsosP8VeJlGBgR/TZALQobrhaDUBL9LzILoYagyoMR5lMESHAVpueqTKmRLnxQv
aHxlIV3il+6Bs1UDIkICA6TnKm2HnNaMOPyHZTUPAOBr3PRRC1wWrhr5YqB6MpU0
tVnVL/sr/nWtMnQ8tEWyFn2WbvOpseoXJLOvzT+O
-----END CERTIFICATE-----
