Certificate:
    Data:
        Version: 3 (0x2)
        Serial Number: 2438 (0x986)
    Signature Algorithm: md5WithRSAEncryption
        Issuer: C=US, ST=OH, L=Columbus, O=VikingVPN, OU=MyOrganizationalUnit, CN=VikingVPN CA/name=EasyRSA/emailAddress=me@myhost.mydomain
        Validity
            Not Before: Aug  1 10:56:00 2014 GMT
            Not After : Jul 29 10:56:00 2024 GMT
        Subject: CN=Client851Certe5c848
        Subject Public Key Info:
            Public Key Algorithm: rsaEncryption
                Public-Key: (4096 bit)
                Modulus:
                    00:ab:c7:c6:c5:8f:d6:58:e2:11:49:b9:ed:a3:f2:
                    eb:1f:a7:01:47:2e:9b:e0:61:95:3f:47:9b:3b:86:
                    03:a3:6a:02:04:ac:0c:bf:16:1b:91:ee:2c:c6:ff:
                    8d:82:fb:44:22:e2:df:dc:d7:6f:c5:e9:06:8a:ee:
                    2c:68:1b:0f:2c:1a:ae:33:21:ca:03:74:9e:55:91:
                    2b:a5:71:1f:83:55:d4:c7:e9:42:ca:04:58:df:02:
                    22:47:cd:9b:e8:a7:4d:4d:17:01:f9:8f:5f:2b:4c:
                    4d:b0:6c:0b:63:30:0c:76:a1:61:fc:6a:cd:4b:9e:
                    77:6d:85:b1:b6:c0:06:21:9d:54:a0:31:1e:63:ef:
                    e3:50:d7:30:3a:e6:22:b1:c8:67:cd:54:49:cb:fc:
                    6d:c1:8f:3d:74:25:b2:db:a9:0a:b8:9d:1e:2d:05:
                    f7:a9:c0:28:3c:91:55:e8:4b:26:e4:de:ee:89:44:
                    b6:4d:75:84:cf:b9:42:27:a3:52:ce:7c:e6:89:a9:
                    07:ba:5d:61:ec:7f:20:49:d8:51:23:03:fb:1c:1d:
                    74:d6:21:42:bb:fe:6a:36:2c:f3:3f:93:26:e1:ab:
                    7d:b7:55:31:13:be:8f:6f:fe:d1:7a:db:3d:c5:da:
                    c8:71:b8:90:10:9c:ac:7f:74:f1:d2:d1:98:7a:0e:
                    f3:75:92:3f:15:4b:c9:d6:2d:20:0f:5a:94:b1:8b:
                    c0:28:45:3a:ad:5c:ff:a1:7e:51:64:ea:71:0a:ca:
                    e6:d1:72:b0:74:f0:9d:83:25:53:de:1b:ae:9d:da:
                    15:5d:ed:51:50:d3:7c:26:2d:b1:93:45:be:49:b9:
                    a8:c0:23:52:a5:ce:e9:43:d4:15:8f:52:01:42:86:
                    03:d1:da:a2:9d:02:72:6e:1e:26:e7:09:90:d0:fd:
                    57:3b:cc:8a:56:da:6a:db:2b:54:72:02:5c:98:a1:
                    96:61:71:67:f1:09:ac:d7:34:bf:32:00:1b:e5:6f:
                    58:61:ab:6e:00:41:b8:54:ad:65:85:82:fa:d9:c5:
                    00:f4:5d:b3:db:42:7e:9e:fa:b0:ec:1a:95:e4:c4:
                    bd:63:7b:e1:1f:4d:e4:cd:90:95:7d:a4:5d:54:b4:
                    57:3e:13:47:33:b4:ca:44:5e:05:37:c9:55:c8:af:
                    c1:6e:31:30:20:ec:4a:98:b6:e5:f3:26:38:e0:50:
                    7c:b1:29:fc:a1:b3:c8:87:12:1b:fe:12:f0:ce:16:
                    de:7f:6f:aa:14:69:98:5b:a7:01:76:f9:ef:f0:00:
                    a5:5a:f1:3f:6d:d2:33:38:7a:60:91:45:c5:36:4f:
                    21:76:4b:eb:23:8e:e2:89:11:85:21:1a:ba:2f:aa:
                    4a:50:cd
                Exponent: 65537 (0x10001)
        X509v3 extensions:
            X509v3 Basic Constraints: 
                CA:FALSE
            Netscape Comment: 
                Easy-RSA Generated Certificate
            X509v3 Subject Key Identifier: 
                A2:0D:9A:8D:13:A0:0D:3D:E2:B5:B0:EA:CB:21:9C:52:C9:65:05:25
            X509v3 Authority Key Identifier: 
                keyid:12:CD:60:04:D2:A0:80:9E:70:ED:C6:99:B8:7B:2C:C6:52:FD:19:A1
                DirName:/C=US/ST=OH/L=Columbus/O=VikingVPN/OU=MyOrganizationalUnit/CN=VikingVPN CA/name=EasyRSA/emailAddress=me@myhost.mydomain
                serial:CF:35:85:EE:80:BF:2A:3E

            X509v3 Extended Key Usage: 
                TLS Web Client Authentication
            X509v3 Key Usage: 
                Digital Signature
    Signature Algorithm: md5WithRSAEncryption
         ed:86:6f:29:4d:ef:28:32:e1:f9:b0:07:0f:ca:06:8e:dd:0b:
         d6:8c:c3:9e:8f:03:d8:5a:1f:f0:d8:74:74:32:da:65:07:a8:
         93:1e:84:74:8f:fb:04:3d:5f:d2:4b:28:37:8e:97:84:a8:3e:
         95:5e:33:78:9d:58:05:6b:83:6f:40:bd:67:ee:73:4f:e5:b0:
         2a:12:41:fb:ba:d5:71:f7:87:44:40:a6:6f:36:66:55:99:bf:
         ff:a1:2b:29:96:99:5d:9a:cc:d7:55:8c:7f:af:77:3c:1b:1c:
         72:ee:43:d6:9f:21:df:95:6a:a7:38:e0:8f:b8:23:a2:44:a0:
         c8:e2:92:a9:08:6f:bb:e2:6c:8a:f6:1d:3a:3c:ce:64:cd:26:
         ea:f8:c4:2c:1c:d9:63:9e:24:68:02:3f:51:8b:19:fb:7c:d9:
         68:17:5a:2b:19:3a:8d:c7:91:bc:97:1d:76:d6:4b:2c:4c:ad:
         87:39:72:e2:17:d5:10:53:59:ec:8f:37:34:8e:d2:42:cf:c6:
         30:b9:c4:9f:8f:cd:60:cb:7b:cf:b1:28:26:2c:7a:32:b7:b1:
         80:10:77:80:a9:ee:18:74:87:51:17:16:6e:fa:64:8c:69:4f:
         dd:15:36:bb:ca:57:c4:aa:e0:c0:b6:f2:a2:7f:e8:6e:c4:37:
         96:ce:ac:a3:07:f5:85:f2:90:ef:18:b5:a4:25:3f:87:5e:f0:
         50:1b:9e:ce:1c:be:8e:4c:91:ba:be:79:06:37:10:9e:c7:06:
         70:18:91:4a:38:2f:4e:84:24:80:1b:17:24:84:86:ed:7a:ae:
         15:04:fb:48:20:30:8e:1b:df:1f:0a:31:50:4a:ff:44:db:fa:
         24:05:12:08:25:e2:1e:fe:d9:54:32:d5:b6:97:c0:1c:2b:04:
         44:c5:c5:7e:9f:f9:ea:20:d3:ec:c9:b2:d8:b4:05:de:3e:22:
         60:ac:b0:ff:83:f6:b6:21:c8:0f:3a:2a:c2:ec:85:c2:08:97:
         a4:9f:77:7c:a6:c6:8e:30:fe:ef:32:ce:4a:44:64:b7:9c:a9:
         92:a9:59:79:2a:ef:ad:7c:58:e8:38:f5:4d:70:89:e4:01:30:
         72:eb:cf:81:03:44:f0:cd:57:43:82:5f:fc:11:db:8a:89:4e:
         80:9e:bf:27:bd:8f:c8:ca:e9:d6:9f:45:48:21:ab:31:63:2b:
         e7:d0:3f:42:ef:ab:19:86:f5:85:d9:25:70:03:7b:b3:2f:87:
         f2:7e:65:66:44:57:56:e5:08:fd:eb:3d:95:8e:e1:c2:2d:84:
         e4:8d:19:dd:9d:c5:fe:26:33:23:32:5e:96:9f:28:99:03:8b:
         7d:47:87:72:24:56:0e:29
-----BEGIN CERTIFICATE-----
MIIGrDCCBJSgAwIBAgICCYYwDQYJKoZIhvcNAQEEBQAwgawxCzAJBgNVBAYTAlVT
MQswCQYDVQQIEwJPSDERMA8GA1UEBxMIQ29sdW1idXMxEjAQBgNVBAoTCVZpa2lu
Z1ZQTjEdMBsGA1UECxMUTXlPcmdhbml6YXRpb25hbFVuaXQxFTATBgNVBAMTDFZp
a2luZ1ZQTiBDQTEQMA4GA1UEKRMHRWFzeVJTQTEhMB8GCSqGSIb3DQEJARYSbWVA
bXlob3N0Lm15ZG9tYWluMB4XDTE0MDgwMTEwNTYwMFoXDTI0MDcyOTEwNTYwMFow
HjEcMBoGA1UEAxMTQ2xpZW50ODUxQ2VydGU1Yzg0ODCCAiIwDQYJKoZIhvcNAQEB
BQADggIPADCCAgoCggIBAKvHxsWP1ljiEUm57aPy6x+nAUcum+BhlT9HmzuGA6Nq
AgSsDL8WG5HuLMb/jYL7RCLi39zXb8XpBoruLGgbDywarjMhygN0nlWRK6VxH4NV
1MfpQsoEWN8CIkfNm+inTU0XAfmPXytMTbBsC2MwDHahYfxqzUued22FsbbABiGd
VKAxHmPv41DXMDrmIrHIZ81UScv8bcGPPXQlstupCridHi0F96nAKDyRVehLJuTe
7olEtk11hM+5QiejUs585ompB7pdYex/IEnYUSMD+xwddNYhQrv+ajYs8z+TJuGr
fbdVMRO+j2/+0XrbPcXayHG4kBCcrH908dLRmHoO83WSPxVLydYtIA9alLGLwChF
Oq1c/6F+UWTqcQrK5tFysHTwnYMlU94brp3aFV3tUVDTfCYtsZNFvkm5qMAjUqXO
6UPUFY9SAUKGA9Haop0Ccm4eJucJkND9VzvMilbaatsrVHICXJihlmFxZ/EJrNc0
vzIAG+VvWGGrbgBBuFStZYWC+tnFAPRds9tCfp76sOwaleTEvWN74R9N5M2QlX2k
XVS0Vz4TRzO0ykReBTfJVcivwW4xMCDsSpi25fMmOOBQfLEp/KGzyIcSG/4S8M4W
3n9vqhRpmFunAXb57/AApVrxP23SMzh6YJFFxTZPIXZL6yOO4okRhSEaui+qSlDN
AgMBAAGjggFjMIIBXzAJBgNVHRMEAjAAMC0GCWCGSAGG+EIBDQQgFh5FYXN5LVJT
QSBHZW5lcmF0ZWQgQ2VydGlmaWNhdGUwHQYDVR0OBBYEFKINmo0ToA094rWw6ssh
nFLJZQUlMIHhBgNVHSMEgdkwgdaAFBLNYATSoICecO3Gmbh7LMZS/RmhoYGypIGv
MIGsMQswCQYDVQQGEwJVUzELMAkGA1UECBMCT0gxETAPBgNVBAcTCENvbHVtYnVz
MRIwEAYDVQQKEwlWaWtpbmdWUE4xHTAbBgNVBAsTFE15T3JnYW5pemF0aW9uYWxV
bml0MRUwEwYDVQQDEwxWaWtpbmdWUE4gQ0ExEDAOBgNVBCkTB0Vhc3lSU0ExITAf
BgkqhkiG9w0BCQEWEm1lQG15aG9zdC5teWRvbWFpboIJAM81he6Avyo+MBMGA1Ud
JQQMMAoGCCsGAQUFBwMCMAsGA1UdDwQEAwIHgDANBgkqhkiG9w0BAQQFAAOCAgEA
7YZvKU3vKDLh+bAHD8oGjt0L1ozDno8D2Fof8Nh0dDLaZQeokx6EdI/7BD1f0kso
N46XhKg+lV4zeJ1YBWuDb0C9Z+5zT+WwKhJB+7rVcfeHRECmbzZmVZm//6ErKZaZ
XZrM11WMf693PBsccu5D1p8h35Vqpzjgj7gjokSgyOKSqQhvu+JsivYdOjzOZM0m
6vjELBzZY54kaAI/UYsZ+3zZaBdaKxk6jceRvJcddtZLLEythzly4hfVEFNZ7I83
NI7SQs/GMLnEn4/NYMt7z7EoJix6MrexgBB3gKnuGHSHURcWbvpkjGlP3RU2u8pX
xKrgwLbyon/obsQ3ls6sowf1hfKQ7xi1pCU/h17wUBuezhy+jkyRur55BjcQnscG
cBiRSjgvToQkgBsXJISG7XquFQT7SCAwjhvfHwoxUEr/RNv6JAUSCCXiHv7ZVDLV
tpfAHCsERMXFfp/56iDT7Mmy2LQF3j4iYKyw/4P2tiHIDzoqwuyFwgiXpJ93fKbG
jjD+7zLOSkRkt5ypkqlZeSrvrXxY6Dj1TXCJ5AEwcuvPgQNE8M1XQ4Jf/BHbiolO
gJ6/J72PyMrp1p9FSCGrMWMr59A/Qu+rGYb1hdklcAN7sy+H8n5lZkRXVuUI/es9
lY7hwi2E5I0Z3Z3F/iYzIzJelp8omQOLfUeHciRWDik=
-----END CERTIFICATE-----
