Certificate:
    Data:
        Version: 3 (0x2)
        Serial Number: 6032 (0x1790)
    Signature Algorithm: md5WithRSAEncryption
        Issuer: C=US, ST=OH, L=Columbus, O=VikingVPN, OU=MyOrganizationalUnit, CN=VikingVPN CA/name=EasyRSA/emailAddress=me@myhost.mydomain
        Validity
            Not Before: Aug  9 20:06:03 2015 GMT
            Not After : Aug  6 20:06:03 2025 GMT
        Subject: CN=Client1578Cert3e8b91
        Subject Public Key Info:
            Public Key Algorithm: rsaEncryption
                Public-Key: (4096 bit)
                Modulus:
                    00:ac:83:b9:49:c7:08:d0:81:52:d4:a2:d2:02:ff:
                    02:8a:f7:27:4e:14:dd:16:04:51:0f:22:49:f1:cc:
                    60:08:74:1d:4f:19:9b:15:08:2e:5f:20:ad:f3:2f:
                    64:d4:ac:d9:3a:34:be:2b:8b:36:21:e9:8f:2a:09:
                    9d:6d:db:dd:a6:4c:e4:af:a1:14:8d:59:61:a5:b1:
                    bc:d7:3c:df:2b:fd:f9:c1:e0:bf:0a:53:01:d4:f7:
                    a0:87:06:0d:02:ee:c5:22:4c:50:1b:d5:8b:56:1c:
                    75:55:77:04:99:75:a6:61:7a:b0:9d:3d:d9:eb:d7:
                    5d:6f:38:1e:7b:d8:c7:8d:9f:f0:b4:9a:ed:aa:7b:
                    cf:7a:4f:9b:a2:99:0e:c3:15:7c:a6:a3:af:c2:8a:
                    76:f2:9e:a5:cb:af:bf:04:9f:3b:fc:96:87:f9:43:
                    5f:67:ee:f2:01:70:58:35:63:53:56:32:33:eb:60:
                    53:bf:0b:dd:2e:bb:0b:c9:53:75:4c:3e:f8:36:cb:
                    9d:cb:fe:bf:13:2b:a6:7b:13:72:a8:8f:2a:0a:2a:
                    83:cd:6b:c5:a3:a5:0a:4f:ab:d8:c5:fa:81:a9:e1:
                    a5:51:1f:57:f7:cc:2c:12:76:8a:ca:14:93:c7:5f:
                    14:e8:1d:e6:55:33:33:5a:7b:c5:1d:f9:49:4f:93:
                    99:3f:6d:ad:32:40:37:81:e7:1c:6d:50:f4:3f:b7:
                    26:fa:f5:23:e2:67:27:23:2a:5c:52:f7:31:06:32:
                    bb:7a:0b:b2:88:b6:d9:a8:91:78:a0:c1:41:fb:2c:
                    45:55:8d:04:d6:82:98:cc:06:06:3c:42:17:80:b5:
                    1d:a2:10:40:d5:80:28:8a:dc:8a:b4:0c:2f:d5:68:
                    4d:79:51:0e:37:4c:4d:e5:bf:b8:c2:8f:c3:9d:01:
                    3b:1e:cb:ec:0b:28:4e:6b:22:a8:c3:70:28:1c:94:
                    30:e4:c9:90:78:75:8b:bf:60:48:61:15:0f:b1:27:
                    99:b5:7c:86:2a:21:1c:f3:86:8d:34:bd:d6:e8:46:
                    da:fc:99:85:02:25:17:e1:79:e0:c5:90:0c:cd:4b:
                    5a:0b:e0:57:83:fa:c3:4b:dc:95:75:8c:fd:7a:8a:
                    b4:c0:04:4d:2a:46:ec:d7:e7:07:06:f0:62:d6:2c:
                    30:52:09:c7:cd:ba:c7:b0:55:b7:8e:41:2c:a1:67:
                    e1:94:68:1b:07:f8:27:a1:67:68:b4:34:f8:3e:80:
                    a1:19:35:fd:71:23:30:e7:2c:92:9b:a0:0b:9a:d0:
                    8b:e1:22:b1:ea:ac:4f:a7:47:27:29:a3:2b:1b:0b:
                    38:93:0e:0a:c6:76:65:ec:b2:3b:1c:7f:76:c7:25:
                    35:2f:83
                Exponent: 65537 (0x10001)
        X509v3 extensions:
            X509v3 Basic Constraints: 
                CA:FALSE
            Netscape Comment: 
                Easy-RSA Generated Certificate
            X509v3 Subject Key Identifier: 
                CD:C4:CE:5E:39:D2:17:A5:11:C3:06:CC:A6:E0:F5:8B:35:F7:CB:34
            X509v3 Authority Key Identifier: 
                keyid:12:CD:60:04:D2:A0:80:9E:70:ED:C6:99:B8:7B:2C:C6:52:FD:19:A1
                DirName:/C=US/ST=OH/L=Columbus/O=VikingVPN/OU=MyOrganizationalUnit/CN=VikingVPN CA/name=EasyRSA/emailAddress=me@myhost.mydomain
                serial:CF:35:85:EE:80:BF:2A:3E

            X509v3 Extended Key Usage: 
                TLS Web Client Authentication
            X509v3 Key Usage: 
                Digital Signature
    Signature Algorithm: md5WithRSAEncryption
         02:03:7a:ea:c3:c6:03:b9:d3:e3:49:75:cf:cf:23:d1:36:27:
         9e:41:e5:c3:41:8c:a2:a3:6b:dd:63:2d:35:18:7d:29:58:31:
         be:c6:47:0c:df:e6:ae:0b:13:3f:8a:3d:3d:bf:79:6e:f5:62:
         9a:36:7c:1d:3c:a5:c4:41:07:00:7c:07:10:98:12:c6:7d:66:
         6c:4f:71:6b:a1:81:7f:cd:29:90:ef:31:3a:4f:0f:64:9d:98:
         75:1a:53:4a:6c:4e:7c:e7:45:97:3f:93:9e:31:9b:47:0c:81:
         55:56:39:a4:b0:ea:f6:87:31:b5:5e:1f:64:7f:65:0b:be:be:
         e7:23:6e:a3:04:df:58:ef:47:6b:1a:49:d6:0d:9b:b9:b0:8a:
         e4:ba:61:fa:0b:e6:70:53:fd:0f:99:2f:53:41:26:39:5a:17:
         c9:88:d1:a9:1a:41:c2:5b:c0:d3:23:2b:5e:13:1d:07:37:f6:
         c7:0e:5e:34:2e:d0:47:e4:a7:39:9a:7f:17:fe:6d:4a:d4:cb:
         3b:b9:0f:a9:3c:9e:ab:77:b6:41:90:0f:7c:ca:f6:86:c8:2f:
         0c:64:0b:46:fe:54:d5:ac:5e:a0:f4:a0:ba:38:bc:3a:98:b0:
         9c:d0:fe:1e:0c:20:f3:9f:91:cb:39:ba:8d:13:75:04:b7:ca:
         f6:4a:9a:54:07:74:2a:4d:bc:7e:8c:1d:d6:6a:50:e0:82:73:
         51:58:9f:48:8b:54:ec:cc:92:82:e2:03:19:db:2e:60:05:fe:
         e8:ca:76:26:b7:ba:2f:77:b7:f6:b7:31:31:dc:cc:a6:5d:b6:
         a8:73:59:0f:92:0f:e1:d5:18:1c:dc:ef:7f:b1:05:c8:dc:23:
         e6:ad:95:5b:99:7a:fe:02:54:7c:63:5d:52:fd:c5:8e:c2:dc:
         75:1a:8a:2b:49:ae:b6:76:fe:aa:59:8a:52:74:6f:bc:51:07:
         cd:6f:b0:fb:8a:d3:9d:4a:cd:4e:00:1b:2b:df:4d:6d:4e:1f:
         26:d4:c8:7e:d3:c1:42:8a:32:67:0d:a7:a2:72:82:6a:26:66:
         5d:88:1f:d9:62:a2:98:ac:1d:40:64:60:e6:a1:ff:b0:d4:49:
         2f:c2:dc:8d:b4:5c:4d:e2:a4:f7:37:af:b0:68:90:23:ed:64:
         25:e5:b3:89:14:4f:41:1c:2e:c6:b5:7b:71:12:73:a8:8b:c0:
         a0:86:e6:21:e5:8c:8a:71:b4:52:5c:5f:35:12:8e:38:37:f0:
         ae:04:92:d9:36:b6:10:6a:ed:94:08:1c:94:ea:c5:d6:39:40:
         53:75:78:a9:42:68:0f:a7:6f:ea:01:25:3f:91:8a:3b:4b:e1:
         e0:36:31:38:db:13:6c:28
-----BEGIN CERTIFICATE-----
MIIGrTCCBJWgAwIBAgICF5AwDQYJKoZIhvcNAQEEBQAwgawxCzAJBgNVBAYTAlVT
MQswCQYDVQQIEwJPSDERMA8GA1UEBxMIQ29sdW1idXMxEjAQBgNVBAoTCVZpa2lu
Z1ZQTjEdMBsGA1UECxMUTXlPcmdhbml6YXRpb25hbFVuaXQxFTATBgNVBAMTDFZp
a2luZ1ZQTiBDQTEQMA4GA1UEKRMHRWFzeVJTQTEhMB8GCSqGSIb3DQEJARYSbWVA
bXlob3N0Lm15ZG9tYWluMB4XDTE1MDgwOTIwMDYwM1oXDTI1MDgwNjIwMDYwM1ow
HzEdMBsGA1UEAxMUQ2xpZW50MTU3OENlcnQzZThiOTEwggIiMA0GCSqGSIb3DQEB
AQUAA4ICDwAwggIKAoICAQCsg7lJxwjQgVLUotIC/wKK9ydOFN0WBFEPIknxzGAI
dB1PGZsVCC5fIK3zL2TUrNk6NL4rizYh6Y8qCZ1t292mTOSvoRSNWWGlsbzXPN8r
/fnB4L8KUwHU96CHBg0C7sUiTFAb1YtWHHVVdwSZdaZherCdPdnr111vOB572MeN
n/C0mu2qe896T5uimQ7DFXymo6/CinbynqXLr78Enzv8lof5Q19n7vIBcFg1Y1NW
MjPrYFO/C90uuwvJU3VMPvg2y53L/r8TK6Z7E3KojyoKKoPNa8WjpQpPq9jF+oGp
4aVRH1f3zCwSdorKFJPHXxToHeZVMzNae8Ud+UlPk5k/ba0yQDeB5xxtUPQ/tyb6
9SPiZycjKlxS9zEGMrt6C7KIttmokXigwUH7LEVVjQTWgpjMBgY8QheAtR2iEEDV
gCiK3Iq0DC/VaE15UQ43TE3lv7jCj8OdATsey+wLKE5rIqjDcCgclDDkyZB4dYu/
YEhhFQ+xJ5m1fIYqIRzzho00vdboRtr8mYUCJRfheeDFkAzNS1oL4FeD+sNL3JV1
jP16irTABE0qRuzX5wcG8GLWLDBSCcfNusewVbeOQSyhZ+GUaBsH+CehZ2i0NPg+
gKEZNf1xIzDnLJKboAua0IvhIrHqrE+nRycpoysbCziTDgrGdmXssjscf3bHJTUv
gwIDAQABo4IBYzCCAV8wCQYDVR0TBAIwADAtBglghkgBhvhCAQ0EIBYeRWFzeS1S
U0EgR2VuZXJhdGVkIENlcnRpZmljYXRlMB0GA1UdDgQWBBTNxM5eOdIXpRHDBsym
4PWLNffLNDCB4QYDVR0jBIHZMIHWgBQSzWAE0qCAnnDtxpm4eyzGUv0ZoaGBsqSB
rzCBrDELMAkGA1UEBhMCVVMxCzAJBgNVBAgTAk9IMREwDwYDVQQHEwhDb2x1bWJ1
czESMBAGA1UEChMJVmlraW5nVlBOMR0wGwYDVQQLExRNeU9yZ2FuaXphdGlvbmFs
VW5pdDEVMBMGA1UEAxMMVmlraW5nVlBOIENBMRAwDgYDVQQpEwdFYXN5UlNBMSEw
HwYJKoZIhvcNAQkBFhJtZUBteWhvc3QubXlkb21haW6CCQDPNYXugL8qPjATBgNV
HSUEDDAKBggrBgEFBQcDAjALBgNVHQ8EBAMCB4AwDQYJKoZIhvcNAQEEBQADggIB
AAIDeurDxgO50+NJdc/PI9E2J55B5cNBjKKja91jLTUYfSlYMb7GRwzf5q4LEz+K
PT2/eW71Ypo2fB08pcRBBwB8BxCYEsZ9ZmxPcWuhgX/NKZDvMTpPD2SdmHUaU0ps
TnznRZc/k54xm0cMgVVWOaSw6vaHMbVeH2R/ZQu+vucjbqME31jvR2saSdYNm7mw
iuS6YfoL5nBT/Q+ZL1NBJjlaF8mI0akaQcJbwNMjK14THQc39scOXjQu0Efkpzma
fxf+bUrUyzu5D6k8nqt3tkGQD3zK9obILwxkC0b+VNWsXqD0oLo4vDqYsJzQ/h4M
IPOfkcs5uo0TdQS3yvZKmlQHdCpNvH6MHdZqUOCCc1FYn0iLVOzMkoLiAxnbLmAF
/ujKdia3ui93t/a3MTHczKZdtqhzWQ+SD+HVGBzc73+xBcjcI+atlVuZev4CVHxj
XVL9xY7C3HUaiitJrrZ2/qpZilJ0b7xRB81vsPuK051KzU4AGyvfTW1OHybUyH7T
wUKKMmcNp6JygmomZl2IH9liopisHUBkYOah/7DUSS/C3I20XE3ipPc3r7BokCPt
ZCXls4kUT0EcLsa1e3ESc6iLwKCG5iHljIpxtFJcXzUSjjg38K4Ektk2thBq7ZQI
HJTqxdY5QFN1eKlCaA+nb+oBJT+RijtL4eA2MTjbE2wo
-----END CERTIFICATE-----
