Certificate:
    Data:
        Version: 3 (0x2)
        Serial Number: 9399 (0x24b7)
    Signature Algorithm: sha256WithRSAEncryption
        Issuer: C=US, ST=OH, L=Columbus, O=VikingVPN, OU=MyOrganizationalUnit, CN=VikingVPN CA/name=EasyRSA/emailAddress=me@myhost.mydomain
        Validity
            Not Before: Nov  5 18:59:41 2016 GMT
            Not After : Nov  3 18:59:41 2026 GMT
        Subject: CN=Client1702Cert74daa9
        Subject Public Key Info:
            Public Key Algorithm: rsaEncryption
                Public-Key: (4096 bit)
                Modulus:
                    00:c9:bb:bc:2b:bb:62:61:40:86:5c:a2:1b:8f:8c:
                    ba:6f:12:41:77:78:de:74:74:67:bc:c8:39:1f:3a:
                    2e:18:44:df:54:57:bf:d2:4e:22:ef:77:b2:73:81:
                    e7:d9:93:60:bf:5b:6d:03:7a:f6:55:80:74:e7:55:
                    2b:5d:ef:a9:2c:f5:39:33:67:ae:43:72:84:d9:11:
                    6c:ed:a0:13:22:65:d2:70:fd:1b:90:b5:14:b2:24:
                    3a:c8:5b:62:af:22:2d:4d:35:ed:76:8d:f4:38:ab:
                    62:81:cb:b9:56:9c:7d:89:ab:4e:7a:e3:37:2d:80:
                    5a:16:ef:fe:26:bb:ad:f2:64:4e:51:1a:c4:a9:c2:
                    21:64:f9:e5:4e:78:b6:60:2b:95:49:c2:59:bb:5d:
                    bf:a6:a8:23:30:98:ec:9b:75:f3:cd:95:0a:bf:30:
                    bb:44:c9:d5:e2:4e:e1:b8:b7:db:d2:24:e8:4d:f4:
                    4b:e3:f9:b4:6c:5a:1e:7b:63:f7:36:47:55:ba:df:
                    30:f6:26:90:54:63:d6:8d:75:78:1b:ed:7c:3e:a9:
                    d4:19:ed:d8:6b:4c:e7:34:58:6a:a0:98:dc:3a:3d:
                    f3:f6:4d:a5:49:ec:e5:8d:16:d9:44:62:20:a7:7a:
                    01:6a:56:d4:84:af:c0:7c:75:f6:b2:e2:ee:1d:09:
                    bc:13:bd:c8:f7:37:3c:ff:5c:e3:16:f2:db:a7:71:
                    81:4e:7b:49:27:93:58:11:8a:6e:0a:5a:34:16:56:
                    dd:c2:75:0d:f2:3d:00:ee:bd:99:89:46:dc:d6:f3:
                    00:ee:41:01:95:87:30:95:5d:90:7c:95:cd:13:fc:
                    d5:99:5b:e7:77:4e:47:d9:b5:33:f8:f0:fe:54:aa:
                    b7:e3:f9:00:40:87:20:a2:a3:3a:a0:fb:e4:8a:28:
                    b8:9b:3a:f1:26:dd:9c:7d:75:9a:fe:f4:01:59:33:
                    7a:97:45:24:a9:fb:24:1b:8d:e9:82:4d:d7:dc:fc:
                    24:df:80:ed:46:90:1e:23:97:57:82:ff:37:3e:4e:
                    5a:ac:0a:a3:7a:52:76:c2:5c:77:65:71:a5:60:f2:
                    d3:8d:92:60:c1:8b:3f:a1:4c:a8:f7:31:03:2c:7c:
                    ed:4a:ac:ec:75:9a:e5:45:8b:45:8b:cd:05:9f:2e:
                    68:a6:c1:d5:79:19:77:64:e5:25:f9:31:58:b2:eb:
                    81:f0:76:20:2e:37:bb:b2:da:7c:1d:fa:fb:19:e7:
                    d0:e4:89:30:7f:3d:41:60:37:50:0d:27:4a:14:d7:
                    b7:71:8e:9c:eb:c2:f3:7d:b0:2e:27:9d:bb:a6:88:
                    b3:0a:49:7f:12:8a:c1:5a:9e:33:47:e2:09:3f:63:
                    6a:96:e7
                Exponent: 65537 (0x10001)
        X509v3 extensions:
            X509v3 Basic Constraints: 
                CA:FALSE
            Netscape Comment: 
                Easy-RSA Generated Certificate
            X509v3 Subject Key Identifier: 
                9C:A7:5E:46:B7:21:DA:66:34:75:E7:B8:D8:F5:23:BE:F5:4A:A2:F3
            X509v3 Authority Key Identifier: 
                keyid:12:CD:60:04:D2:A0:80:9E:70:ED:C6:99:B8:7B:2C:C6:52:FD:19:A1
                DirName:/C=US/ST=OH/L=Columbus/O=VikingVPN/OU=MyOrganizationalUnit/CN=VikingVPN CA/name=EasyRSA/emailAddress=me@myhost.mydomain
                serial:CF:35:85:EE:80:BF:2A:3E

            X509v3 Extended Key Usage: 
                TLS Web Client Authentication
            X509v3 Key Usage: 
                Digital Signature
    Signature Algorithm: sha256WithRSAEncryption
         60:9d:c8:bd:5a:e6:6c:7d:b2:84:97:5c:f2:81:37:e4:6c:a2:
         f9:9e:38:76:af:d3:b1:0b:7c:78:2e:45:ea:cc:76:97:d8:ae:
         19:9b:9c:32:e7:88:8a:6f:bc:2f:37:ca:8e:57:f7:d2:61:f3:
         e9:bb:77:fc:4d:2f:30:75:96:7e:57:a4:90:e9:bb:26:8b:cd:
         01:1c:f4:52:9e:0b:92:ce:a8:ad:75:e7:4e:4a:16:df:cc:10:
         db:f4:a7:eb:36:32:69:ed:32:6b:80:4b:65:50:4c:d7:03:25:
         71:8d:85:ff:a4:b0:3b:48:10:ec:4e:14:ac:c5:53:e0:9f:5b:
         22:f5:63:8e:b2:06:c0:ba:8b:48:c9:e8:e3:94:f6:e7:0e:6c:
         2d:02:6b:97:ae:31:2f:f5:02:2b:3c:33:19:11:51:9b:68:64:
         7e:29:46:52:43:16:77:3a:32:30:11:44:2f:62:1f:41:22:08:
         eb:73:49:00:87:69:9d:d3:16:00:d2:1b:07:74:2e:ab:8a:99:
         c6:89:19:37:e6:ac:14:1b:5e:91:73:34:4c:60:8e:ed:36:9e:
         4e:d6:bb:2f:15:46:99:91:fa:dc:13:6d:3a:e1:bb:26:fd:4e:
         79:f4:7f:07:03:ac:e3:6c:9b:d2:4f:ff:ef:62:60:1a:67:4f:
         4f:7e:f9:58:d1:18:54:bd:be:97:27:1d:26:8f:b5:15:4a:40:
         20:e7:e6:1d:69:cd:b1:29:be:57:88:74:7a:5d:25:d4:de:18:
         8d:71:10:31:f6:dc:82:8b:67:35:22:c0:69:26:e5:1d:3b:14:
         b3:71:80:1f:f2:a2:4b:00:1b:7d:c3:12:72:6c:3f:f5:4e:20:
         3b:51:de:17:24:21:70:ea:d9:11:09:79:2d:6c:b1:72:d3:f5:
         fd:f2:61:23:2b:49:b8:30:d2:f8:66:20:3e:de:42:26:4c:3c:
         65:f6:99:6f:fb:7f:ad:99:54:55:db:fd:b4:ab:87:d4:78:ad:
         03:7b:cc:65:d3:90:ff:47:84:8a:1b:06:5e:91:e3:88:9e:d8:
         97:01:f1:43:52:9f:e6:63:e4:ba:af:e7:0e:53:bd:82:3e:92:
         dd:9f:c2:2c:75:c3:15:ec:63:9a:21:1d:5d:87:64:75:73:3f:
         fe:da:30:df:4b:8a:6f:4d:14:58:13:44:62:d8:bd:f2:1f:b2:
         27:a3:43:6a:dd:b0:c8:3b:5e:7f:a7:50:32:9f:c0:cc:98:3b:
         0d:e4:48:17:ca:e1:6c:ab:dd:eb:e0:49:55:96:79:76:69:09:
         4a:a7:76:33:37:04:14:f9:79:71:dc:50:d4:c5:94:4b:ba:91:
         13:0c:30:6b:a0:42:da:5e
-----BEGIN CERTIFICATE-----
MIIGrTCCBJWgAwIBAgICJLcwDQYJKoZIhvcNAQELBQAwgawxCzAJBgNVBAYTAlVT
MQswCQYDVQQIEwJPSDERMA8GA1UEBxMIQ29sdW1idXMxEjAQBgNVBAoTCVZpa2lu
Z1ZQTjEdMBsGA1UECxMUTXlPcmdhbml6YXRpb25hbFVuaXQxFTATBgNVBAMTDFZp
a2luZ1ZQTiBDQTEQMA4GA1UEKRMHRWFzeVJTQTEhMB8GCSqGSIb3DQEJARYSbWVA
bXlob3N0Lm15ZG9tYWluMB4XDTE2MTEwNTE4NTk0MVoXDTI2MTEwMzE4NTk0MVow
HzEdMBsGA1UEAxMUQ2xpZW50MTcwMkNlcnQ3NGRhYTkwggIiMA0GCSqGSIb3DQEB
AQUAA4ICDwAwggIKAoICAQDJu7wru2JhQIZcohuPjLpvEkF3eN50dGe8yDkfOi4Y
RN9UV7/STiLvd7JzgefZk2C/W20DevZVgHTnVStd76ks9TkzZ65DcoTZEWztoBMi
ZdJw/RuQtRSyJDrIW2KvIi1NNe12jfQ4q2KBy7lWnH2Jq0564zctgFoW7/4mu63y
ZE5RGsSpwiFk+eVOeLZgK5VJwlm7Xb+mqCMwmOybdfPNlQq/MLtEydXiTuG4t9vS
JOhN9Evj+bRsWh57Y/c2R1W63zD2JpBUY9aNdXgb7Xw+qdQZ7dhrTOc0WGqgmNw6
PfP2TaVJ7OWNFtlEYiCnegFqVtSEr8B8dfay4u4dCbwTvcj3Nzz/XOMW8tuncYFO
e0knk1gRim4KWjQWVt3CdQ3yPQDuvZmJRtzW8wDuQQGVhzCVXZB8lc0T/NWZW+d3
TkfZtTP48P5Uqrfj+QBAhyCiozqg++SKKLibOvEm3Zx9dZr+9AFZM3qXRSSp+yQb
jemCTdfc/CTfgO1GkB4jl1eC/zc+TlqsCqN6UnbCXHdlcaVg8tONkmDBiz+hTKj3
MQMsfO1KrOx1muVFi0WLzQWfLmimwdV5GXdk5SX5MViy64HwdiAuN7uy2nwd+vsZ
59DkiTB/PUFgN1ANJ0oU17dxjpzrwvN9sC4nnbumiLMKSX8SisFanjNH4gk/Y2qW
5wIDAQABo4IBYzCCAV8wCQYDVR0TBAIwADAtBglghkgBhvhCAQ0EIBYeRWFzeS1S
U0EgR2VuZXJhdGVkIENlcnRpZmljYXRlMB0GA1UdDgQWBBScp15GtyHaZjR157jY
9SO+9Uqi8zCB4QYDVR0jBIHZMIHWgBQSzWAE0qCAnnDtxpm4eyzGUv0ZoaGBsqSB
rzCBrDELMAkGA1UEBhMCVVMxCzAJBgNVBAgTAk9IMREwDwYDVQQHEwhDb2x1bWJ1
czESMBAGA1UEChMJVmlraW5nVlBOMR0wGwYDVQQLExRNeU9yZ2FuaXphdGlvbmFs
VW5pdDEVMBMGA1UEAxMMVmlraW5nVlBOIENBMRAwDgYDVQQpEwdFYXN5UlNBMSEw
HwYJKoZIhvcNAQkBFhJtZUBteWhvc3QubXlkb21haW6CCQDPNYXugL8qPjATBgNV
HSUEDDAKBggrBgEFBQcDAjALBgNVHQ8EBAMCB4AwDQYJKoZIhvcNAQELBQADggIB
AGCdyL1a5mx9soSXXPKBN+RsovmeOHav07ELfHguRerMdpfYrhmbnDLniIpvvC83
yo5X99Jh8+m7d/xNLzB1ln5XpJDpuyaLzQEc9FKeC5LOqK11505KFt/MENv0p+s2
MmntMmuAS2VQTNcDJXGNhf+ksDtIEOxOFKzFU+CfWyL1Y46yBsC6i0jJ6OOU9ucO
bC0Ca5euMS/1Ais8MxkRUZtoZH4pRlJDFnc6MjARRC9iH0EiCOtzSQCHaZ3TFgDS
Gwd0LquKmcaJGTfmrBQbXpFzNExgju02nk7Wuy8VRpmR+twTbTrhuyb9Tnn0fwcD
rONsm9JP/+9iYBpnT09++VjRGFS9vpcnHSaPtRVKQCDn5h1pzbEpvleIdHpdJdTe
GI1xEDH23IKLZzUiwGkm5R07FLNxgB/yoksAG33DEnJsP/VOIDtR3hckIXDq2REJ
eS1ssXLT9f3yYSMrSbgw0vhmID7eQiZMPGX2mW/7f62ZVFXb/bSrh9R4rQN7zGXT
kP9HhIobBl6R44ie2JcB8UNSn+Zj5Lqv5w5TvYI+kt2fwix1wxXsY5ohHV2HZHVz
P/7aMN9Lim9NFFgTRGLYvfIfsiejQ2rdsMg7Xn+nUDKfwMyYOw3kSBfK4Wyr3evg
SVWWeXZpCUqndjM3BBT5eXHcUNTFlEu6kRMMMGugQtpe
-----END CERTIFICATE-----
