Certificate:
    Data:
        Version: 3 (0x2)
        Serial Number: 8482 (0x2122)
    Signature Algorithm: md5WithRSAEncryption
        Issuer: C=US, ST=OH, L=Columbus, O=VikingVPN, OU=MyOrganizationalUnit, CN=VikingVPN CA/name=EasyRSA/emailAddress=me@myhost.mydomain
        Validity
            Not Before: Jul 14 08:01:27 2016 GMT
            Not After : Jul 12 08:01:27 2026 GMT
        Subject: CN=Client2296Certbf62dd
        Subject Public Key Info:
            Public Key Algorithm: rsaEncryption
                Public-Key: (4096 bit)
                Modulus:
                    00:9e:7f:67:e8:cd:fa:ac:b9:78:bc:fb:60:a7:9c:
                    e8:5b:2d:a1:34:f9:5b:0b:e7:29:42:9f:85:2a:4c:
                    7f:ce:a9:ef:88:bf:53:76:26:07:6c:99:b4:0d:69:
                    68:54:4b:ee:16:44:2e:41:bd:bf:f6:b3:ef:60:64:
                    61:40:a5:0a:f9:6b:40:07:67:72:f0:9f:fb:4e:5d:
                    a5:36:17:80:7e:2b:fd:c2:de:69:35:df:d3:d6:04:
                    48:52:06:5e:49:15:cc:44:aa:73:84:87:e5:6b:1a:
                    62:7a:72:f3:8a:3b:55:6a:54:6b:00:ed:05:ca:b4:
                    31:59:b8:9e:f0:66:33:24:1c:a9:92:5a:57:86:44:
                    0a:f9:57:42:d1:81:6c:19:b1:ce:a5:4b:27:4d:ba:
                    60:03:5a:61:ba:3f:92:f7:78:23:95:54:b5:53:2b:
                    9b:8a:0a:2b:ae:8f:ac:b5:e2:52:79:95:40:19:a1:
                    62:fd:0c:c7:cf:84:e4:2c:61:8b:d3:53:33:0d:ec:
                    77:09:f0:fe:d0:ea:c9:fe:05:66:e7:b6:80:f0:33:
                    2c:9d:97:0e:3b:71:52:db:5c:35:5c:ba:1e:51:39:
                    c3:88:22:84:87:aa:3c:52:d2:d8:63:b2:63:f4:45:
                    b2:e1:0b:f2:91:62:4c:29:ad:97:c9:41:78:28:b3:
                    c1:62:ee:99:b3:b2:a4:fc:c0:27:36:71:db:ca:8c:
                    6c:96:33:67:f4:7b:ee:b7:24:7a:5e:9f:67:df:7f:
                    a7:a2:f0:db:ea:74:a1:88:ad:57:4a:f0:9c:87:c9:
                    3e:a0:57:3b:86:c6:b5:98:ea:5d:90:5b:32:75:e8:
                    c5:3e:0a:f9:56:af:07:aa:0e:45:6d:be:ed:a5:e9:
                    4c:4f:ad:fd:5a:43:1b:26:a3:cc:59:06:3e:06:a5:
                    a3:d9:28:52:31:73:3f:d5:d4:00:c4:4e:02:e4:eb:
                    66:e7:c3:ff:10:b2:1f:8f:ab:94:12:f8:4c:95:d9:
                    a5:7e:73:1c:ec:96:82:71:56:25:f0:e8:9d:5a:16:
                    32:3c:37:62:dd:a3:38:93:c8:c7:42:25:28:d7:d8:
                    c2:4e:3a:f8:a7:33:a5:ec:a9:f6:2e:10:85:49:2d:
                    16:55:8e:8e:2a:3f:bc:0c:91:f2:86:07:b6:e5:70:
                    a5:4f:e3:71:da:9a:bc:f5:58:ce:67:4f:18:a3:92:
                    f0:10:c5:b9:0f:1b:69:ab:91:a0:7d:4b:af:e0:2c:
                    d2:54:0f:07:40:3e:0e:ef:e2:6e:21:2a:e8:d0:d6:
                    de:a2:2e:30:47:e1:1d:10:69:cb:13:76:5e:8f:2a:
                    0f:1f:ef:e3:74:35:73:39:94:5a:fb:a0:83:75:d2:
                    cd:18:2b
                Exponent: 65537 (0x10001)
        X509v3 extensions:
            X509v3 Basic Constraints: 
                CA:FALSE
            Netscape Comment: 
                Easy-RSA Generated Certificate
            X509v3 Subject Key Identifier: 
                20:90:A3:4A:C2:56:50:B3:C2:46:19:46:9F:14:B9:A3:A7:27:BE:44
            X509v3 Authority Key Identifier: 
                keyid:12:CD:60:04:D2:A0:80:9E:70:ED:C6:99:B8:7B:2C:C6:52:FD:19:A1
                DirName:/C=US/ST=OH/L=Columbus/O=VikingVPN/OU=MyOrganizationalUnit/CN=VikingVPN CA/name=EasyRSA/emailAddress=me@myhost.mydomain
                serial:CF:35:85:EE:80:BF:2A:3E

            X509v3 Extended Key Usage: 
                TLS Web Client Authentication
            X509v3 Key Usage: 
                Digital Signature
    Signature Algorithm: md5WithRSAEncryption
         1d:06:00:0d:a0:1a:ac:53:e2:ef:1a:1b:69:9c:39:b7:c6:ef:
         47:e1:f0:af:e8:8f:57:86:52:4b:a4:4b:45:fe:8d:d6:71:bf:
         2e:21:ce:58:2c:b1:5a:65:f2:12:44:fa:48:9b:e4:3c:84:b7:
         ff:00:8a:17:f3:bf:b5:9a:1e:1c:57:66:5b:fe:7b:23:10:38:
         c6:0d:d7:92:42:1e:ab:0e:c1:f0:45:dd:a7:8a:9e:4d:be:0d:
         be:49:4a:3d:7a:92:d2:ff:cb:d9:31:4c:1e:24:16:b0:1f:d3:
         b9:21:d8:e2:2d:f9:00:18:2c:02:a5:b8:28:ad:93:4c:7a:bf:
         88:10:90:64:df:3c:3a:39:9a:79:29:b0:0b:57:75:ad:e2:7d:
         21:d1:53:8a:8c:67:e4:b6:f2:4b:80:49:0b:50:7a:7c:f8:54:
         57:0c:f8:8c:2e:1c:82:67:01:70:55:ec:02:c9:ce:63:ea:0b:
         c6:35:0d:91:9c:64:84:b2:c6:43:2c:b1:4b:92:44:4b:22:a5:
         ad:eb:de:e0:8f:20:68:ff:d7:b4:fe:3a:8b:01:b9:a4:16:ce:
         f5:fe:cf:8f:b3:e2:f4:5e:f4:d8:a8:b3:45:2e:84:2a:fe:7f:
         c1:9f:39:d1:e3:d7:c2:0e:30:88:fd:0c:88:8d:ea:32:e8:63:
         00:a0:b0:f0:8e:aa:95:78:f0:7e:b7:54:fd:69:c1:19:61:93:
         7b:0a:69:f6:d6:4f:cb:91:d1:21:6d:23:72:53:5d:8f:b8:98:
         c6:30:80:f1:26:3f:8e:20:14:06:85:1e:a3:33:65:d5:35:53:
         98:fd:52:0d:ff:d7:d3:42:d8:38:36:8c:24:dc:61:84:3d:f1:
         7b:04:ba:53:b9:6c:ed:61:62:83:fe:8a:41:9e:44:8a:5d:af:
         d9:db:02:81:02:99:a7:1c:d3:46:9c:2a:09:27:59:5a:77:ed:
         91:c8:dc:32:4a:23:80:92:6e:70:3c:9b:8a:4c:15:3d:2f:bd:
         81:45:be:02:0a:19:f8:cf:fa:d9:44:94:77:92:73:cd:2a:9f:
         c6:ba:06:ef:75:1e:b8:5e:d5:6f:97:2b:3e:40:b5:45:35:84:
         42:59:f5:bf:76:61:1e:71:7a:07:b1:32:4c:91:18:77:a2:8c:
         ce:f2:e2:eb:1f:19:9f:c6:fe:ad:cc:14:43:be:2a:63:7e:02:
         87:c2:d7:62:00:da:5a:61:51:2c:50:d2:b8:07:1f:a1:0f:68:
         9d:ac:0c:98:06:3f:4f:84:d6:8a:3a:c2:c0:e4:de:41:7e:97:
         e6:36:5b:19:31:f4:9b:11:52:9c:54:ba:34:f0:8b:05:d6:9f:
         80:67:a4:ba:2a:f3:88:cc
-----BEGIN CERTIFICATE-----
MIIGrTCCBJWgAwIBAgICISIwDQYJKoZIhvcNAQEEBQAwgawxCzAJBgNVBAYTAlVT
MQswCQYDVQQIEwJPSDERMA8GA1UEBxMIQ29sdW1idXMxEjAQBgNVBAoTCVZpa2lu
Z1ZQTjEdMBsGA1UECxMUTXlPcmdhbml6YXRpb25hbFVuaXQxFTATBgNVBAMTDFZp
a2luZ1ZQTiBDQTEQMA4GA1UEKRMHRWFzeVJTQTEhMB8GCSqGSIb3DQEJARYSbWVA
bXlob3N0Lm15ZG9tYWluMB4XDTE2MDcxNDA4MDEyN1oXDTI2MDcxMjA4MDEyN1ow
HzEdMBsGA1UEAxMUQ2xpZW50MjI5NkNlcnRiZjYyZGQwggIiMA0GCSqGSIb3DQEB
AQUAA4ICDwAwggIKAoICAQCef2fozfqsuXi8+2CnnOhbLaE0+VsL5ylCn4UqTH/O
qe+Iv1N2JgdsmbQNaWhUS+4WRC5Bvb/2s+9gZGFApQr5a0AHZ3Lwn/tOXaU2F4B+
K/3C3mk139PWBEhSBl5JFcxEqnOEh+VrGmJ6cvOKO1VqVGsA7QXKtDFZuJ7wZjMk
HKmSWleGRAr5V0LRgWwZsc6lSydNumADWmG6P5L3eCOVVLVTK5uKCiuuj6y14lJ5
lUAZoWL9DMfPhOQsYYvTUzMN7HcJ8P7Q6sn+BWbntoDwMyydlw47cVLbXDVcuh5R
OcOIIoSHqjxS0thjsmP0RbLhC/KRYkwprZfJQXgos8Fi7pmzsqT8wCc2cdvKjGyW
M2f0e+63JHpen2fff6ei8NvqdKGIrVdK8JyHyT6gVzuGxrWY6l2QWzJ16MU+CvlW
rweqDkVtvu2l6UxPrf1aQxsmo8xZBj4GpaPZKFIxcz/V1ADETgLk62bnw/8Qsh+P
q5QS+EyV2aV+cxzsloJxViXw6J1aFjI8N2LdoziTyMdCJSjX2MJOOvinM6XsqfYu
EIVJLRZVjo4qP7wMkfKGB7blcKVP43Hamrz1WM5nTxijkvAQxbkPG2mrkaB9S6/g
LNJUDwdAPg7v4m4hKujQ1t6iLjBH4R0QacsTdl6PKg8f7+N0NXM5lFr7oIN10s0Y
KwIDAQABo4IBYzCCAV8wCQYDVR0TBAIwADAtBglghkgBhvhCAQ0EIBYeRWFzeS1S
U0EgR2VuZXJhdGVkIENlcnRpZmljYXRlMB0GA1UdDgQWBBQgkKNKwlZQs8JGGUaf
FLmjpye+RDCB4QYDVR0jBIHZMIHWgBQSzWAE0qCAnnDtxpm4eyzGUv0ZoaGBsqSB
rzCBrDELMAkGA1UEBhMCVVMxCzAJBgNVBAgTAk9IMREwDwYDVQQHEwhDb2x1bWJ1
czESMBAGA1UEChMJVmlraW5nVlBOMR0wGwYDVQQLExRNeU9yZ2FuaXphdGlvbmFs
VW5pdDEVMBMGA1UEAxMMVmlraW5nVlBOIENBMRAwDgYDVQQpEwdFYXN5UlNBMSEw
HwYJKoZIhvcNAQkBFhJtZUBteWhvc3QubXlkb21haW6CCQDPNYXugL8qPjATBgNV
HSUEDDAKBggrBgEFBQcDAjALBgNVHQ8EBAMCB4AwDQYJKoZIhvcNAQEEBQADggIB
AB0GAA2gGqxT4u8aG2mcObfG70fh8K/oj1eGUkukS0X+jdZxvy4hzlgssVpl8hJE
+kib5DyEt/8Aihfzv7WaHhxXZlv+eyMQOMYN15JCHqsOwfBF3aeKnk2+Db5JSj16
ktL/y9kxTB4kFrAf07kh2OIt+QAYLAKluCitk0x6v4gQkGTfPDo5mnkpsAtXda3i
fSHRU4qMZ+S28kuASQtQenz4VFcM+IwuHIJnAXBV7ALJzmPqC8Y1DZGcZISyxkMs
sUuSREsipa3r3uCPIGj/17T+OosBuaQWzvX+z4+z4vRe9Nios0UuhCr+f8GfOdHj
18IOMIj9DIiN6jLoYwCgsPCOqpV48H63VP1pwRlhk3sKafbWT8uR0SFtI3JTXY+4
mMYwgPEmP44gFAaFHqMzZdU1U5j9Ug3/19NC2Dg2jCTcYYQ98XsEulO5bO1hYoP+
ikGeRIpdr9nbAoECmacc00acKgknWVp37ZHI3DJKI4CSbnA8m4pMFT0vvYFFvgIK
GfjP+tlElHeSc80qn8a6Bu91Hrhe1W+XKz5AtUU1hEJZ9b92YR5xegexMkyRGHei
jM7y4usfGZ/G/q3MFEO+KmN+AofC12IA2lphUSxQ0rgHH6EPaJ2sDJgGP0+E1oo6
wsDk3kF+l+Y2Wxkx9JsRUpxUujTwiwXWn4BnpLoq84jM
-----END CERTIFICATE-----
