Certificate:
    Data:
        Version: 3 (0x2)
        Serial Number: 1898 (0x76a)
    Signature Algorithm: md5WithRSAEncryption
        Issuer: C=US, ST=OH, L=Columbus, O=VikingVPN, OU=MyOrganizationalUnit, CN=VikingVPN CA/name=EasyRSA/emailAddress=me@myhost.mydomain
        Validity
            Not Before: May 16 04:28:21 2014 GMT
            Not After : May 13 04:28:21 2024 GMT
        Subject: CN=Client455Certde0abb
        Subject Public Key Info:
            Public Key Algorithm: rsaEncryption
                Public-Key: (4096 bit)
                Modulus:
                    00:bb:49:a1:00:de:33:4d:35:c8:1e:c5:d2:d1:3c:
                    6e:65:21:f6:ed:f4:80:78:4b:f8:d1:09:e5:49:3d:
                    1e:5b:d1:be:cf:d3:b7:50:ef:06:44:9f:0a:36:c9:
                    8f:ad:88:51:9c:6b:a4:3f:ea:f1:60:42:69:b0:26:
                    31:8f:0e:ae:ee:92:a5:68:2b:f1:ed:8a:9d:cc:e3:
                    5a:63:ce:8a:fe:53:03:c4:a7:a4:83:9a:ee:77:6e:
                    d7:82:96:5a:33:82:bf:dd:67:e7:4b:44:48:92:6e:
                    66:49:2d:c7:32:49:fb:7e:ad:30:37:9d:41:40:bf:
                    06:37:28:34:eb:96:a8:79:99:19:93:d8:af:83:84:
                    f8:28:6d:da:f9:f5:9f:57:b9:50:96:73:01:8c:66:
                    3c:bb:cc:83:6a:c2:d3:35:84:a4:0b:7e:21:2b:db:
                    57:b4:61:6c:cc:42:f1:53:41:72:93:96:17:80:66:
                    4f:68:d3:78:5d:a6:1c:cf:71:d0:37:cb:68:d7:31:
                    d7:30:b9:78:6d:01:7e:00:f7:65:7b:f4:10:2c:d6:
                    65:e5:a9:d0:e6:30:38:37:2a:c4:2b:f2:51:9b:0f:
                    4f:7f:4e:2b:6e:69:53:68:1b:62:77:68:ef:5b:e5:
                    d2:df:c6:37:1c:66:53:21:3f:59:11:b8:af:71:c4:
                    01:7b:72:cc:16:d3:4c:a5:77:d7:fd:d7:e6:44:43:
                    ba:d2:36:6b:86:c8:3f:e4:61:75:3c:6d:36:16:0b:
                    8f:8e:69:45:70:ac:6c:b8:da:a0:4f:2c:87:16:70:
                    5c:2b:fd:7a:6d:9f:b1:1f:02:a3:a7:0c:7b:af:f7:
                    34:92:93:45:c3:b3:d2:d3:03:00:36:3f:e7:48:74:
                    56:d0:cc:ee:9d:2d:04:50:7a:0b:fb:de:04:d4:4d:
                    06:45:80:d5:14:b5:f7:4e:ca:15:7e:d5:e1:42:c7:
                    0e:a5:20:8d:14:05:ea:01:10:e1:28:bf:a2:64:e8:
                    1d:03:bc:46:8d:15:08:46:ce:65:9c:e6:97:a7:17:
                    9b:dc:21:bc:7f:3e:f9:46:48:f3:6e:6b:d8:9c:d8:
                    c4:c0:8f:05:b8:08:9f:77:d3:f8:77:db:94:c6:04:
                    12:8e:72:d3:b3:58:12:a0:bc:10:66:ec:0c:b7:72:
                    10:27:3e:da:60:99:aa:cf:53:a3:fb:1b:04:e3:dd:
                    f6:bf:fe:a0:f0:4a:e6:89:35:c0:4a:75:eb:63:95:
                    f3:c9:a6:58:10:c1:b4:c3:92:93:26:5a:0b:a3:6b:
                    3d:72:f4:0a:c0:06:42:a3:0e:94:a7:70:c1:9d:4e:
                    14:4e:8c:36:29:7e:b0:f7:5c:fd:8e:6d:e3:fe:4c:
                    c1:69:89
                Exponent: 65537 (0x10001)
        X509v3 extensions:
            X509v3 Basic Constraints: 
                CA:FALSE
            Netscape Comment: 
                Easy-RSA Generated Certificate
            X509v3 Subject Key Identifier: 
                E8:18:C8:80:AC:55:04:DA:0E:D5:C2:02:72:EB:62:3B:0F:07:FE:4F
            X509v3 Authority Key Identifier: 
                keyid:12:CD:60:04:D2:A0:80:9E:70:ED:C6:99:B8:7B:2C:C6:52:FD:19:A1
                DirName:/C=US/ST=OH/L=Columbus/O=VikingVPN/OU=MyOrganizationalUnit/CN=VikingVPN CA/name=EasyRSA/emailAddress=me@myhost.mydomain
                serial:CF:35:85:EE:80:BF:2A:3E

            X509v3 Extended Key Usage: 
                TLS Web Client Authentication
            X509v3 Key Usage: 
                Digital Signature
    Signature Algorithm: md5WithRSAEncryption
         88:70:82:2e:78:80:12:1d:49:07:c7:11:dd:93:2b:e9:d8:72:
         c3:3b:b8:99:85:5e:a1:60:61:11:99:25:fd:f7:d1:d4:a3:2d:
         ca:74:be:73:0b:c6:9e:da:88:65:a6:94:aa:bd:30:d6:ba:a0:
         63:97:52:80:ef:52:a0:a4:10:ec:62:50:01:4a:95:d6:00:75:
         73:4d:99:7b:bf:ac:42:0d:a2:a2:a9:48:23:8a:b9:d8:be:b1:
         79:6f:c8:60:55:1d:5d:d1:16:37:06:43:43:dd:cd:46:a5:e9:
         82:7f:f2:83:31:f8:54:23:7d:b4:20:f9:a2:c0:25:78:8c:32:
         9c:98:d4:d1:11:58:51:8e:c5:88:0a:d8:bb:7f:f4:b9:b7:c2:
         5b:1f:59:a8:08:ac:06:34:3e:d3:56:4a:ef:61:1b:04:13:e0:
         0f:d9:de:2e:52:08:0e:05:9a:92:c2:6a:7e:24:03:4f:f8:d1:
         21:62:f8:78:33:43:b2:e2:2b:96:00:0c:6c:6c:c5:01:a0:26:
         99:44:19:4a:22:de:65:06:91:56:97:cc:ed:53:0e:12:b4:a4:
         b4:25:ad:98:c8:98:ea:10:a1:5b:f0:8e:99:32:29:30:10:85:
         fc:f0:a9:05:a4:f5:f0:27:23:12:76:f7:8d:bd:65:0c:48:3a:
         01:24:56:1a:80:15:a7:57:43:3a:0e:7e:38:e0:b3:1b:a0:13:
         2a:4c:10:8a:34:cb:ba:51:9c:f2:7b:e0:3e:11:41:bc:5b:b1:
         da:59:6c:cd:8c:72:60:bc:de:85:cf:b1:0c:d6:6a:9e:de:d5:
         db:57:38:2f:1e:13:99:54:50:c2:85:56:99:30:6d:1e:b1:18:
         be:64:3b:b7:b9:95:32:7d:5d:5f:c4:a4:85:2d:a3:40:84:c1:
         9e:4d:82:b0:83:1c:09:a5:b1:a2:5d:99:0e:4e:67:b7:7b:f7:
         42:3f:0f:92:53:5a:57:93:14:62:0b:5a:8f:2c:b1:33:91:d4:
         9d:73:53:60:06:9e:41:13:0c:94:80:23:38:ad:a5:4f:d8:10:
         68:b7:9c:fd:2c:b6:49:1c:c7:be:4a:bb:90:17:c8:da:05:dd:
         3a:ce:20:84:f4:9b:cd:30:94:e8:08:39:6a:92:4b:57:04:e6:
         77:88:90:43:0c:f1:9c:87:a9:d5:ec:d6:46:08:24:aa:31:24:
         e2:f8:cc:4f:90:59:b0:64:5d:58:79:c3:b5:02:be:02:cc:cc:
         83:ec:11:a8:1c:f4:20:61:82:ed:f1:e0:3c:c6:54:02:20:b8:
         a1:12:97:e4:90:45:55:78:80:9b:c1:97:0b:42:45:8c:ea:04:
         39:8d:84:2d:b0:3d:90:16
-----BEGIN CERTIFICATE-----
MIIGrDCCBJSgAwIBAgICB2owDQYJKoZIhvcNAQEEBQAwgawxCzAJBgNVBAYTAlVT
MQswCQYDVQQIEwJPSDERMA8GA1UEBxMIQ29sdW1idXMxEjAQBgNVBAoTCVZpa2lu
Z1ZQTjEdMBsGA1UECxMUTXlPcmdhbml6YXRpb25hbFVuaXQxFTATBgNVBAMTDFZp
a2luZ1ZQTiBDQTEQMA4GA1UEKRMHRWFzeVJTQTEhMB8GCSqGSIb3DQEJARYSbWVA
bXlob3N0Lm15ZG9tYWluMB4XDTE0MDUxNjA0MjgyMVoXDTI0MDUxMzA0MjgyMVow
HjEcMBoGA1UEAxMTQ2xpZW50NDU1Q2VydGRlMGFiYjCCAiIwDQYJKoZIhvcNAQEB
BQADggIPADCCAgoCggIBALtJoQDeM001yB7F0tE8bmUh9u30gHhL+NEJ5Uk9HlvR
vs/Tt1DvBkSfCjbJj62IUZxrpD/q8WBCabAmMY8Oru6SpWgr8e2KnczjWmPOiv5T
A8SnpIOa7ndu14KWWjOCv91n50tESJJuZkktxzJJ+36tMDedQUC/BjcoNOuWqHmZ
GZPYr4OE+Cht2vn1n1e5UJZzAYxmPLvMg2rC0zWEpAt+ISvbV7RhbMxC8VNBcpOW
F4BmT2jTeF2mHM9x0DfLaNcx1zC5eG0BfgD3ZXv0ECzWZeWp0OYwODcqxCvyUZsP
T39OK25pU2gbYndo71vl0t/GNxxmUyE/WRG4r3HEAXtyzBbTTKV31/3X5kRDutI2
a4bIP+RhdTxtNhYLj45pRXCsbLjaoE8shxZwXCv9em2fsR8Co6cMe6/3NJKTRcOz
0tMDADY/50h0VtDM7p0tBFB6C/veBNRNBkWA1RS1907KFX7V4ULHDqUgjRQF6gEQ
4Si/omToHQO8Ro0VCEbOZZzml6cXm9whvH8++UZI825r2JzYxMCPBbgIn3fT+Hfb
lMYEEo5y07NYEqC8EGbsDLdyECc+2mCZqs9To/sbBOPd9r/+oPBK5ok1wEp162OV
88mmWBDBtMOSkyZaC6NrPXL0CsAGQqMOlKdwwZ1OFE6MNil+sPdc/Y5t4/5MwWmJ
AgMBAAGjggFjMIIBXzAJBgNVHRMEAjAAMC0GCWCGSAGG+EIBDQQgFh5FYXN5LVJT
QSBHZW5lcmF0ZWQgQ2VydGlmaWNhdGUwHQYDVR0OBBYEFOgYyICsVQTaDtXCAnLr
YjsPB/5PMIHhBgNVHSMEgdkwgdaAFBLNYATSoICecO3Gmbh7LMZS/RmhoYGypIGv
MIGsMQswCQYDVQQGEwJVUzELMAkGA1UECBMCT0gxETAPBgNVBAcTCENvbHVtYnVz
MRIwEAYDVQQKEwlWaWtpbmdWUE4xHTAbBgNVBAsTFE15T3JnYW5pemF0aW9uYWxV
bml0MRUwEwYDVQQDEwxWaWtpbmdWUE4gQ0ExEDAOBgNVBCkTB0Vhc3lSU0ExITAf
BgkqhkiG9w0BCQEWEm1lQG15aG9zdC5teWRvbWFpboIJAM81he6Avyo+MBMGA1Ud
JQQMMAoGCCsGAQUFBwMCMAsGA1UdDwQEAwIHgDANBgkqhkiG9w0BAQQFAAOCAgEA
iHCCLniAEh1JB8cR3ZMr6dhywzu4mYVeoWBhEZkl/ffR1KMtynS+cwvGntqIZaaU
qr0w1rqgY5dSgO9SoKQQ7GJQAUqV1gB1c02Ze7+sQg2ioqlII4q52L6xeW/IYFUd
XdEWNwZDQ93NRqXpgn/ygzH4VCN9tCD5osAleIwynJjU0RFYUY7FiArYu3/0ubfC
Wx9ZqAisBjQ+01ZK72EbBBPgD9neLlIIDgWaksJqfiQDT/jRIWL4eDNDsuIrlgAM
bGzFAaAmmUQZSiLeZQaRVpfM7VMOErSktCWtmMiY6hChW/COmTIpMBCF/PCpBaT1
8CcjEnb3jb1lDEg6ASRWGoAVp1dDOg5+OOCzG6ATKkwQijTLulGc8nvgPhFBvFux
2llszYxyYLzehc+xDNZqnt7V21c4Lx4TmVRQwoVWmTBtHrEYvmQ7t7mVMn1dX8Sk
hS2jQITBnk2CsIMcCaWxol2ZDk5nt3v3Qj8PklNaV5MUYgtajyyxM5HUnXNTYAae
QRMMlIAjOK2lT9gQaLec/Sy2SRzHvkq7kBfI2gXdOs4ghPSbzTCU6Ag5apJLVwTm
d4iQQwzxnIep1ezWRggkqjEk4vjMT5BZsGRdWHnDtQK+AszMg+wRqBz0IGGC7fHg
PMZUAiC4oRKX5JBFVXiAm8GXC0JFjOoEOY2ELbA9kBY=
-----END CERTIFICATE-----
