Certificate:
    Data:
        Version: 3 (0x2)
        Serial Number: 182 (0xb6)
    Signature Algorithm: md5WithRSAEncryption
        Issuer: C=US, ST=OH, L=Columbus, O=VikingVPN, OU=MyOrganizationalUnit, CN=VikingVPN CA/name=EasyRSA/emailAddress=me@myhost.mydomain
        Validity
            Not Before: Sep 14 14:48:56 2013 GMT
            Not After : Sep 12 14:48:56 2023 GMT
        Subject: CN=Client25Cert673806
        Subject Public Key Info:
            Public Key Algorithm: rsaEncryption
                Public-Key: (4096 bit)
                Modulus:
                    00:c3:58:58:ce:ed:ef:c5:77:c2:dc:4e:7a:81:ab:
                    8f:91:99:d4:67:53:23:8d:d3:d5:5e:b0:fd:ad:d0:
                    55:35:29:04:90:a9:33:99:54:63:1a:a7:07:2e:37:
                    ff:e3:c7:8d:91:87:5d:59:61:5d:13:fa:8b:48:2c:
                    43:c6:5d:65:5a:20:8c:0d:a5:5c:f3:71:b6:ab:61:
                    69:c9:3a:de:b9:bc:da:09:a5:ca:e4:c5:22:9b:7b:
                    f5:2e:2f:42:f9:d0:32:69:99:90:e7:6b:85:f7:52:
                    a9:c8:cf:2c:56:92:dd:c3:bd:b1:03:02:87:aa:c9:
                    58:a8:32:20:a1:4c:97:ed:87:9d:65:a6:e3:5b:c3:
                    00:0e:f7:67:a5:05:0f:4f:54:7e:e1:68:89:32:32:
                    83:07:96:13:07:a8:f7:ca:ed:7a:9a:dc:65:59:85:
                    ca:9c:9c:a2:a6:7a:9f:2f:9a:e7:7c:7d:4f:5f:51:
                    36:e0:30:65:52:f2:60:8e:37:67:27:7a:51:df:0c:
                    12:c7:b4:15:a0:ce:1b:55:d6:93:b1:77:4d:06:71:
                    7e:6b:3d:69:8d:9d:1f:48:8e:91:76:ac:cc:c3:f6:
                    8f:70:87:0b:5d:ec:ae:51:9f:6e:27:3e:2a:34:28:
                    72:4e:de:c1:58:4b:73:b9:05:60:c3:e7:17:cc:bc:
                    2e:e4:09:3b:9d:04:45:3b:fc:5e:c8:d1:b7:f4:d6:
                    a2:08:38:8a:f4:b0:77:d4:5c:e6:5d:f8:68:5c:dc:
                    38:a4:0c:4f:c5:34:76:99:a9:14:e4:01:2c:f9:ee:
                    b9:8c:45:01:8d:42:ac:40:2a:eb:64:12:6d:b6:19:
                    5d:c5:8e:80:d4:b9:d1:3d:ef:29:85:b6:46:26:30:
                    61:d0:78:d8:a2:7b:73:78:ac:d0:d5:1d:e4:33:63:
                    23:3b:29:54:6c:ae:60:a5:81:ae:ce:f9:7d:12:77:
                    86:09:ed:8b:c0:79:fd:07:65:50:65:3f:8b:64:12:
                    0b:2b:88:d1:6a:45:f3:ad:51:13:3a:fb:55:7f:3b:
                    5f:c7:ee:4d:fd:0f:99:3b:8d:61:c7:37:82:8a:b1:
                    af:a7:b8:c7:4d:61:81:36:b8:4a:16:ba:55:22:9a:
                    f8:85:04:31:f7:1a:15:89:8a:46:b3:b1:8d:94:62:
                    37:6e:7d:9a:e5:23:d8:64:6d:fa:66:49:af:55:33:
                    2a:d8:c8:19:54:65:50:8c:4b:58:98:45:bc:d5:22:
                    4b:f5:70:62:41:f5:bf:12:bd:e2:45:3a:3f:17:70:
                    04:14:16:81:ec:6f:9a:f9:75:d1:4c:13:88:b6:f9:
                    68:a1:5b:58:3d:f7:17:9b:cc:50:30:1e:ca:2c:bd:
                    5b:00:a3
                Exponent: 65537 (0x10001)
        X509v3 extensions:
            X509v3 Basic Constraints: 
                CA:FALSE
            Netscape Comment: 
                Easy-RSA Generated Certificate
            X509v3 Subject Key Identifier: 
                14:C6:5A:88:CA:A4:06:2A:C8:AA:E1:0E:62:9C:BA:6F:48:39:45:10
            X509v3 Authority Key Identifier: 
                keyid:12:CD:60:04:D2:A0:80:9E:70:ED:C6:99:B8:7B:2C:C6:52:FD:19:A1
                DirName:/C=US/ST=OH/L=Columbus/O=VikingVPN/OU=MyOrganizationalUnit/CN=VikingVPN CA/name=EasyRSA/emailAddress=me@myhost.mydomain
                serial:CF:35:85:EE:80:BF:2A:3E

            X509v3 Extended Key Usage: 
                TLS Web Client Authentication
            X509v3 Key Usage: 
                Digital Signature
    Signature Algorithm: md5WithRSAEncryption
         98:64:8d:8a:a7:e8:8c:b8:88:24:48:3c:0e:1e:97:6e:a3:33:
         9e:87:68:f5:f2:9a:76:e1:4e:f7:1e:aa:3d:cd:37:5c:02:f4:
         f5:dd:ef:3b:4e:3a:ca:05:45:4d:49:79:35:b6:5d:c6:ac:ff:
         35:97:d8:f7:ca:36:1d:5e:0f:b6:06:69:e3:3e:c7:77:c3:04:
         14:57:30:da:7d:f0:c0:6b:4e:37:f7:48:5f:bf:7e:ac:e7:70:
         f0:b5:21:d2:0f:b4:82:43:f0:e5:c6:8b:9b:f7:2a:76:ed:bd:
         b9:8e:25:d5:57:59:da:fc:b6:9c:5d:93:fd:8e:bb:02:c9:a9:
         3a:ad:11:68:34:f8:e0:5a:c1:61:a2:73:67:07:32:b3:f4:40:
         1a:61:43:00:6e:1f:b1:ff:f4:04:6f:b9:95:d4:06:f9:07:88:
         32:82:c7:78:dc:30:7a:29:c0:89:5f:b1:48:00:4b:01:35:2b:
         53:da:7d:c5:ec:be:89:3a:8f:90:14:ac:b8:aa:b9:d4:74:48:
         78:ce:bb:6a:83:10:22:6f:77:be:c3:d2:a9:cc:34:22:0e:b5:
         95:65:b8:d1:70:60:b6:9f:8f:f1:f0:d3:14:38:0d:1f:01:44:
         80:78:b9:ce:14:c0:13:68:66:0f:0e:af:60:2f:48:b5:c9:88:
         1c:af:91:6e:a3:b5:a7:63:5d:2d:e8:6c:e6:c9:d2:49:38:26:
         ad:47:40:46:ee:3c:27:5a:ed:74:14:d7:f1:fc:05:9f:28:62:
         36:5d:7e:09:b2:5b:b8:84:e0:48:e3:e7:8a:41:ab:45:dd:df:
         4b:cb:d7:e1:a2:6d:c0:a0:31:e8:32:0f:56:97:00:e4:af:f9:
         a1:29:0b:10:1a:7b:98:4b:06:31:36:77:48:58:c4:64:e8:08:
         2e:90:82:1e:44:b8:0d:19:e9:61:9b:d8:e5:bb:f8:b2:17:6c:
         92:0c:86:e3:d4:6e:9d:88:51:91:1b:be:fb:17:f9:2c:06:5d:
         f7:a1:8d:32:f0:63:50:7f:67:25:e3:03:06:8a:40:b7:3a:73:
         f6:be:1f:a1:c1:46:26:a0:02:83:6a:ef:4a:d3:9a:1c:90:aa:
         26:29:8c:61:5a:d6:45:b1:38:ac:c0:d6:ab:6e:a7:a6:3d:ec:
         41:ba:99:fc:1f:13:c0:82:8d:b6:bb:aa:bf:97:77:a5:02:7b:
         ad:cb:b2:2e:28:8e:d9:5f:9a:d6:55:29:5f:64:1e:ad:82:85:
         2e:f7:66:22:ed:b2:60:01:cb:e8:65:06:75:7d:db:85:f1:c1:
         74:07:60:91:8f:fa:21:91:64:c3:c2:b1:af:aa:32:14:7d:6e:
         79:a1:50:39:a7:b8:f0:61
-----BEGIN CERTIFICATE-----
MIIGqzCCBJOgAwIBAgICALYwDQYJKoZIhvcNAQEEBQAwgawxCzAJBgNVBAYTAlVT
MQswCQYDVQQIEwJPSDERMA8GA1UEBxMIQ29sdW1idXMxEjAQBgNVBAoTCVZpa2lu
Z1ZQTjEdMBsGA1UECxMUTXlPcmdhbml6YXRpb25hbFVuaXQxFTATBgNVBAMTDFZp
a2luZ1ZQTiBDQTEQMA4GA1UEKRMHRWFzeVJTQTEhMB8GCSqGSIb3DQEJARYSbWVA
bXlob3N0Lm15ZG9tYWluMB4XDTEzMDkxNDE0NDg1NloXDTIzMDkxMjE0NDg1Nlow
HTEbMBkGA1UEAxMSQ2xpZW50MjVDZXJ0NjczODA2MIICIjANBgkqhkiG9w0BAQEF
AAOCAg8AMIICCgKCAgEAw1hYzu3vxXfC3E56gauPkZnUZ1MjjdPVXrD9rdBVNSkE
kKkzmVRjGqcHLjf/48eNkYddWWFdE/qLSCxDxl1lWiCMDaVc83G2q2FpyTreubza
CaXK5MUim3v1Li9C+dAyaZmQ52uF91KpyM8sVpLdw72xAwKHqslYqDIgoUyX7Yed
ZabjW8MADvdnpQUPT1R+4WiJMjKDB5YTB6j3yu16mtxlWYXKnJyipnqfL5rnfH1P
X1E24DBlUvJgjjdnJ3pR3wwSx7QVoM4bVdaTsXdNBnF+az1pjZ0fSI6RdqzMw/aP
cIcLXeyuUZ9uJz4qNChyTt7BWEtzuQVgw+cXzLwu5Ak7nQRFO/xeyNG39NaiCDiK
9LB31FzmXfhoXNw4pAxPxTR2makU5AEs+e65jEUBjUKsQCrrZBJtthldxY6A1LnR
Pe8phbZGJjBh0HjYontzeKzQ1R3kM2MjOylUbK5gpYGuzvl9EneGCe2LwHn9B2VQ
ZT+LZBILK4jRakXzrVETOvtVfztfx+5N/Q+ZO41hxzeCirGvp7jHTWGBNrhKFrpV
Ipr4hQQx9xoViYpGs7GNlGI3bn2a5SPYZG36ZkmvVTMq2MgZVGVQjEtYmEW81SJL
9XBiQfW/Er3iRTo/F3AEFBaB7G+a+XXRTBOItvlooVtYPfcXm8xQMB7KLL1bAKMC
AwEAAaOCAWMwggFfMAkGA1UdEwQCMAAwLQYJYIZIAYb4QgENBCAWHkVhc3ktUlNB
IEdlbmVyYXRlZCBDZXJ0aWZpY2F0ZTAdBgNVHQ4EFgQUFMZaiMqkBirIquEOYpy6
b0g5RRAwgeEGA1UdIwSB2TCB1oAUEs1gBNKggJ5w7caZuHssxlL9GaGhgbKkga8w
gawxCzAJBgNVBAYTAlVTMQswCQYDVQQIEwJPSDERMA8GA1UEBxMIQ29sdW1idXMx
EjAQBgNVBAoTCVZpa2luZ1ZQTjEdMBsGA1UECxMUTXlPcmdhbml6YXRpb25hbFVu
aXQxFTATBgNVBAMTDFZpa2luZ1ZQTiBDQTEQMA4GA1UEKRMHRWFzeVJTQTEhMB8G
CSqGSIb3DQEJARYSbWVAbXlob3N0Lm15ZG9tYWluggkAzzWF7oC/Kj4wEwYDVR0l
BAwwCgYIKwYBBQUHAwIwCwYDVR0PBAQDAgeAMA0GCSqGSIb3DQEBBAUAA4ICAQCY
ZI2Kp+iMuIgkSDwOHpduozOeh2j18pp24U73Hqo9zTdcAvT13e87TjrKBUVNSXk1
tl3GrP81l9j3yjYdXg+2BmnjPsd3wwQUVzDaffDAa04390hfv36s53DwtSHSD7SC
Q/Dlxoub9yp27b25jiXVV1na/LacXZP9jrsCyak6rRFoNPjgWsFhonNnBzKz9EAa
YUMAbh+x//QEb7mV1Ab5B4gygsd43DB6KcCJX7FIAEsBNStT2n3F7L6JOo+QFKy4
qrnUdEh4zrtqgxAib3e+w9KpzDQiDrWVZbjRcGC2n4/x8NMUOA0fAUSAeLnOFMAT
aGYPDq9gL0i1yYgcr5Fuo7WnY10t6GzmydJJOCatR0BG7jwnWu10FNfx/AWfKGI2
XX4Jslu4hOBI4+eKQatF3d9Ly9fhom3AoDHoMg9WlwDkr/mhKQsQGnuYSwYxNndI
WMRk6AgukIIeRLgNGelhm9jlu/iyF2ySDIbj1G6diFGRG777F/ksBl33oY0y8GNQ
f2cl4wMGikC3OnP2vh+hwUYmoAKDau9K05ockKomKYxhWtZFsTiswNarbqemPexB
upn8HxPAgo22u6q/l3elAnuty7IuKI7ZX5rWVSlfZB6tgoUu92Yi7bJgAcvoZQZ1
fduF8cF0B2CRj/ohkWTDwrGvqjIUfW55oVA5p7jwYQ==
-----END CERTIFICATE-----
