Certificate:
    Data:
        Version: 3 (0x2)
        Serial Number: 4857 (0x12f9)
    Signature Algorithm: md5WithRSAEncryption
        Issuer: C=US, ST=OH, L=Columbus, O=VikingVPN, OU=MyOrganizationalUnit, CN=VikingVPN CA/name=EasyRSA/emailAddress=me@myhost.mydomain
        Validity
            Not Before: Apr  1 16:51:16 2015 GMT
            Not After : Mar 29 16:51:16 2025 GMT
        Subject: CN=Client1582Cert118616
        Subject Public Key Info:
            Public Key Algorithm: rsaEncryption
                Public-Key: (4096 bit)
                Modulus:
                    00:9e:87:fc:50:d4:6f:b6:6d:8d:3f:eb:be:e7:a1:
                    28:03:6d:06:41:82:ff:0f:be:d4:6c:90:db:df:a3:
                    db:1d:e4:d0:11:ee:c6:56:e6:88:b4:f4:47:a6:f6:
                    21:6e:7e:1d:0d:ca:30:fe:33:cb:78:fc:22:48:a1:
                    8d:15:ba:f4:bd:8a:3a:00:4c:26:34:00:c3:c9:94:
                    35:1e:3d:98:db:9b:9a:ec:72:22:9b:f7:11:55:8b:
                    46:93:9f:13:ed:e3:41:37:dd:07:62:60:d3:12:eb:
                    68:c5:2a:24:04:79:94:b6:c1:31:08:d3:e0:14:e2:
                    d3:a0:b7:00:b4:79:1f:1f:e7:2d:5a:e0:15:5a:87:
                    0d:a4:89:14:41:04:68:9d:66:2a:a2:40:68:01:38:
                    7e:cb:43:1d:61:48:a5:94:01:9d:9b:1f:f6:11:98:
                    97:eb:22:72:64:01:36:30:82:bd:6d:c1:26:ed:1a:
                    28:55:49:4b:5d:18:65:88:f2:04:e8:02:ed:4d:e4:
                    19:58:90:20:80:14:2c:07:30:52:4e:3b:44:81:d8:
                    51:e8:ac:e1:53:78:0e:77:4a:f6:dc:e3:20:d5:b1:
                    7f:b4:94:01:3a:ce:e3:64:7c:cd:a2:de:d7:36:2c:
                    a8:3a:46:4b:76:e6:c2:13:3a:e9:28:58:00:1c:85:
                    e5:2f:f3:78:97:83:ef:d8:75:7c:1e:6e:66:6a:a4:
                    db:2a:be:f1:8d:74:87:15:bb:3f:e5:03:21:ee:50:
                    3d:30:99:f5:b1:a8:3f:1a:bd:11:0a:14:4b:a0:fa:
                    80:24:70:10:ed:ee:29:6c:0a:63:ac:fb:a6:8a:7d:
                    ad:14:88:f8:54:3d:4f:2d:ce:59:11:e7:6b:ff:f2:
                    30:8b:fd:3b:4f:92:86:89:db:ee:6e:a1:d8:04:47:
                    6f:8f:ab:da:d9:ff:7e:af:8e:3e:ad:a9:2e:6a:15:
                    bb:db:e4:da:4e:27:44:cd:68:23:60:15:42:1f:31:
                    d8:28:ac:7a:47:5c:f8:28:e1:b4:e5:49:ea:1e:c8:
                    9b:e8:16:1a:b9:75:94:d7:ab:17:58:59:b4:6c:c7:
                    e3:cf:69:ec:f2:27:39:c2:48:a1:e9:dc:78:57:f8:
                    49:82:7d:f9:71:44:76:41:54:61:81:dc:df:ea:df:
                    6a:62:79:9e:8c:7d:5f:d0:ca:22:10:31:b4:2b:b4:
                    1c:ea:78:40:4c:cb:46:31:d7:c2:ca:d2:10:17:b4:
                    bb:d4:17:e3:f3:ad:d3:16:70:26:4f:c9:9b:56:70:
                    42:d3:0d:51:d0:37:96:71:3e:d3:89:04:91:4a:9c:
                    20:c5:61:06:4a:72:5a:c4:ee:7b:ce:9c:76:54:8d:
                    b1:43:05
                Exponent: 65537 (0x10001)
        X509v3 extensions:
            X509v3 Basic Constraints: 
                CA:FALSE
            Netscape Comment: 
                Easy-RSA Generated Certificate
            X509v3 Subject Key Identifier: 
                3F:BA:9D:91:3D:6B:9D:5E:38:75:63:60:38:27:93:C9:1D:A5:9D:9D
            X509v3 Authority Key Identifier: 
                keyid:12:CD:60:04:D2:A0:80:9E:70:ED:C6:99:B8:7B:2C:C6:52:FD:19:A1
                DirName:/C=US/ST=OH/L=Columbus/O=VikingVPN/OU=MyOrganizationalUnit/CN=VikingVPN CA/name=EasyRSA/emailAddress=me@myhost.mydomain
                serial:CF:35:85:EE:80:BF:2A:3E

            X509v3 Extended Key Usage: 
                TLS Web Client Authentication
            X509v3 Key Usage: 
                Digital Signature
    Signature Algorithm: md5WithRSAEncryption
         06:80:5f:78:9c:71:2f:de:8b:d3:bc:f4:2d:91:8e:ba:12:3b:
         73:54:c3:42:00:68:13:d2:d8:bd:f6:52:49:d5:25:db:01:25:
         c8:57:71:fd:37:74:47:fc:71:35:de:c3:db:f8:0a:6e:ab:05:
         61:c1:de:a4:b2:b0:e1:b7:a6:4f:d9:96:4c:b4:11:f2:bd:a8:
         7f:d3:84:aa:b2:4d:0b:ad:f9:c7:9f:48:fe:12:23:ae:46:c7:
         69:62:13:88:23:d9:ce:4c:4c:06:a1:44:af:56:55:a2:30:52:
         14:dc:32:04:62:4e:9f:f1:41:84:7a:c4:3f:b8:dc:1c:57:03:
         d4:f2:f3:9f:53:85:b2:7c:cc:4a:7f:a5:c2:28:97:34:d9:a8:
         9a:8d:ee:f5:54:cc:5e:ee:4b:c8:88:36:8f:fa:56:c0:ba:b8:
         5e:3f:24:bb:2d:c0:a5:8b:35:f4:69:f5:36:99:ed:6e:8e:d3:
         6a:5a:01:a6:0e:72:84:df:ec:0b:5a:32:ac:a6:02:b3:f2:85:
         a1:f5:86:70:7d:e3:d5:c7:08:9d:7f:4b:f0:e7:be:09:e4:5b:
         d1:f3:04:2d:77:a0:b0:5f:77:25:72:d0:82:cd:02:3f:e5:7d:
         18:be:13:a3:94:28:28:f8:f3:9f:42:b7:8b:9e:4d:29:6f:fd:
         cd:bd:cb:f5:dc:57:4f:e0:f7:59:26:c8:1e:5d:b4:b8:72:11:
         e8:7d:7b:78:8b:56:62:19:e1:bb:45:76:c2:7c:e5:6a:34:52:
         ce:6e:e2:11:a4:d4:99:3c:20:3c:d3:58:7e:9c:69:af:ca:17:
         90:4a:de:ea:84:63:c3:9a:05:a7:12:3b:29:71:33:7b:fc:64:
         68:3b:96:cb:45:8d:ad:69:8b:e4:56:6d:80:7f:2b:ad:b3:9b:
         a4:69:40:29:ec:95:f8:d8:1b:55:a8:41:91:e5:ee:b4:d2:34:
         1b:52:8c:0a:54:79:37:d9:5a:6f:29:e1:c9:8c:2e:bd:23:11:
         9f:dd:5e:06:8a:66:61:26:16:4e:94:35:95:a2:d7:c0:c1:72:
         4e:7c:5a:8c:b5:b5:ad:9b:07:dc:73:90:63:a1:a5:0f:b0:6c:
         61:3a:0a:41:03:13:35:a1:17:d8:a2:44:20:31:6c:5a:f2:24:
         36:cb:3a:8b:dc:fc:bb:5b:c6:94:e2:cf:21:80:e2:ac:14:12:
         72:19:cf:88:f7:55:5f:77:a5:fc:b5:df:95:e5:74:a2:89:d0:
         b0:57:ed:df:1f:c6:c6:34:16:01:cd:31:f9:07:9f:96:dc:cb:
         99:5f:f5:33:d1:7f:39:24:36:c0:51:34:8f:03:a1:6e:ae:f3:
         91:e2:c2:59:54:df:91:d6
-----BEGIN CERTIFICATE-----
MIIGrTCCBJWgAwIBAgICEvkwDQYJKoZIhvcNAQEEBQAwgawxCzAJBgNVBAYTAlVT
MQswCQYDVQQIEwJPSDERMA8GA1UEBxMIQ29sdW1idXMxEjAQBgNVBAoTCVZpa2lu
Z1ZQTjEdMBsGA1UECxMUTXlPcmdhbml6YXRpb25hbFVuaXQxFTATBgNVBAMTDFZp
a2luZ1ZQTiBDQTEQMA4GA1UEKRMHRWFzeVJTQTEhMB8GCSqGSIb3DQEJARYSbWVA
bXlob3N0Lm15ZG9tYWluMB4XDTE1MDQwMTE2NTExNloXDTI1MDMyOTE2NTExNlow
HzEdMBsGA1UEAxMUQ2xpZW50MTU4MkNlcnQxMTg2MTYwggIiMA0GCSqGSIb3DQEB
AQUAA4ICDwAwggIKAoICAQCeh/xQ1G+2bY0/677noSgDbQZBgv8PvtRskNvfo9sd
5NAR7sZW5oi09Eem9iFufh0NyjD+M8t4/CJIoY0VuvS9ijoATCY0AMPJlDUePZjb
m5rsciKb9xFVi0aTnxPt40E33QdiYNMS62jFKiQEeZS2wTEI0+AU4tOgtwC0eR8f
5y1a4BVahw2kiRRBBGidZiqiQGgBOH7LQx1hSKWUAZ2bH/YRmJfrInJkATYwgr1t
wSbtGihVSUtdGGWI8gToAu1N5BlYkCCAFCwHMFJOO0SB2FHorOFTeA53Svbc4yDV
sX+0lAE6zuNkfM2i3tc2LKg6Rkt25sITOukoWAAcheUv83iXg+/YdXwebmZqpNsq
vvGNdIcVuz/lAyHuUD0wmfWxqD8avREKFEug+oAkcBDt7ilsCmOs+6aKfa0UiPhU
PU8tzlkR52v/8jCL/TtPkoaJ2+5uodgER2+Pq9rZ/36vjj6tqS5qFbvb5NpOJ0TN
aCNgFUIfMdgorHpHXPgo4bTlSeoeyJvoFhq5dZTXqxdYWbRsx+PPaezyJznCSKHp
3HhX+EmCfflxRHZBVGGB3N/q32pieZ6MfV/QyiIQMbQrtBzqeEBMy0Yx18LK0hAX
tLvUF+PzrdMWcCZPyZtWcELTDVHQN5ZxPtOJBJFKnCDFYQZKclrE7nvOnHZUjbFD
BQIDAQABo4IBYzCCAV8wCQYDVR0TBAIwADAtBglghkgBhvhCAQ0EIBYeRWFzeS1S
U0EgR2VuZXJhdGVkIENlcnRpZmljYXRlMB0GA1UdDgQWBBQ/up2RPWudXjh1Y2A4
J5PJHaWdnTCB4QYDVR0jBIHZMIHWgBQSzWAE0qCAnnDtxpm4eyzGUv0ZoaGBsqSB
rzCBrDELMAkGA1UEBhMCVVMxCzAJBgNVBAgTAk9IMREwDwYDVQQHEwhDb2x1bWJ1
czESMBAGA1UEChMJVmlraW5nVlBOMR0wGwYDVQQLExRNeU9yZ2FuaXphdGlvbmFs
VW5pdDEVMBMGA1UEAxMMVmlraW5nVlBOIENBMRAwDgYDVQQpEwdFYXN5UlNBMSEw
HwYJKoZIhvcNAQkBFhJtZUBteWhvc3QubXlkb21haW6CCQDPNYXugL8qPjATBgNV
HSUEDDAKBggrBgEFBQcDAjALBgNVHQ8EBAMCB4AwDQYJKoZIhvcNAQEEBQADggIB
AAaAX3iccS/ei9O89C2RjroSO3NUw0IAaBPS2L32UknVJdsBJchXcf03dEf8cTXe
w9v4Cm6rBWHB3qSysOG3pk/Zlky0EfK9qH/ThKqyTQut+cefSP4SI65Gx2liE4gj
2c5MTAahRK9WVaIwUhTcMgRiTp/xQYR6xD+43BxXA9Ty859ThbJ8zEp/pcIolzTZ
qJqN7vVUzF7uS8iINo/6VsC6uF4/JLstwKWLNfRp9TaZ7W6O02paAaYOcoTf7Ata
MqymArPyhaH1hnB949XHCJ1/S/DnvgnkW9HzBC13oLBfdyVy0ILNAj/lfRi+E6OU
KCj4859Ct4ueTSlv/c29y/XcV0/g91kmyB5dtLhyEeh9e3iLVmIZ4btFdsJ85Wo0
Us5u4hGk1Jk8IDzTWH6caa/KF5BK3uqEY8OaBacSOylxM3v8ZGg7lstFja1pi+RW
bYB/K62zm6RpQCnslfjYG1WoQZHl7rTSNBtSjApUeTfZWm8p4cmMLr0jEZ/dXgaK
ZmEmFk6UNZWi18DBck58Woy1ta2bB9xzkGOhpQ+wbGE6CkEDEzWhF9iiRCAxbFry
JDbLOovc/LtbxpTizyGA4qwUEnIZz4j3VV93pfy135XldKKJ0LBX7d8fxsY0FgHN
MfkHn5bcy5lf9TPRfzkkNsBRNI8DoW6u85HiwllU35HW
-----END CERTIFICATE-----
