Certificate:
    Data:
        Version: 3 (0x2)
        Serial Number: 2218 (0x8aa)
    Signature Algorithm: md5WithRSAEncryption
        Issuer: C=US, ST=OH, L=Columbus, O=VikingVPN, OU=MyOrganizationalUnit, CN=VikingVPN CA/name=EasyRSA/emailAddress=me@myhost.mydomain
        Validity
            Not Before: Jul  5 16:16:37 2014 GMT
            Not After : Jul  2 16:16:37 2024 GMT
        Subject: CN=Client781Certd578f6
        Subject Public Key Info:
            Public Key Algorithm: rsaEncryption
                Public-Key: (4096 bit)
                Modulus:
                    00:d7:90:a2:af:00:ca:3c:70:8d:46:30:cd:d1:6e:
                    09:1b:9c:d9:7a:7e:a1:01:93:d6:3d:78:11:de:c1:
                    af:68:a5:e4:36:b2:92:9e:9e:a3:92:37:69:c9:ed:
                    c2:e5:a3:11:89:e8:b4:73:ae:05:c1:12:b6:70:16:
                    0e:b1:bd:c4:4d:48:49:8d:dd:26:a9:9b:15:75:37:
                    a2:d2:8c:bc:d8:5c:5d:d2:cd:61:1c:16:81:3a:d5:
                    c3:0e:89:9c:77:e5:b7:13:43:d7:2b:00:b7:d6:48:
                    e9:15:32:71:2c:df:d6:c0:9e:52:ba:8c:db:a9:42:
                    0b:f0:0f:03:e0:2e:26:46:7d:78:d3:cc:fc:ee:99:
                    9f:ac:f8:09:a4:2d:cd:ce:45:c1:33:0d:2d:7f:34:
                    6e:7a:3c:dd:f2:43:3f:01:fd:fe:9c:30:26:d4:58:
                    4d:98:47:1f:93:8c:b5:dd:62:4d:4f:3b:ea:ee:84:
                    8d:32:75:ed:f0:12:3a:fc:90:9a:ea:d2:49:78:65:
                    b2:a6:51:a9:02:cb:28:64:a8:43:ba:bb:89:b3:ea:
                    cd:3e:db:5c:21:3b:bb:9c:d2:37:20:49:de:9c:ef:
                    60:47:6e:c8:58:b0:35:92:ba:63:36:74:47:25:6c:
                    b7:c8:ee:1c:d9:e5:77:b7:b2:ad:16:d5:21:29:eb:
                    00:e0:bb:49:ca:c0:4c:cb:01:9d:d9:4c:f6:dd:3a:
                    75:43:4b:a3:36:74:a9:57:cb:29:3a:6a:2d:7e:22:
                    d7:bf:e5:ef:b2:8d:83:2e:ba:13:75:c4:7f:c5:c6:
                    da:9e:ef:b3:cc:6d:ce:34:c4:c3:16:c9:e2:b6:9a:
                    72:69:f2:16:71:c8:0c:43:7d:10:c8:cf:8b:a8:ba:
                    7f:f4:a1:b8:2e:ed:67:80:a1:33:cb:1d:1f:f4:8b:
                    10:be:bb:91:3c:01:ce:b8:48:a4:56:18:76:57:ed:
                    1f:03:45:57:de:3e:64:db:4b:07:4f:2f:df:f2:52:
                    d9:48:c8:6d:8e:f3:d4:57:d2:24:84:19:14:16:2a:
                    2c:40:a0:0b:6c:21:79:d2:76:49:3d:9e:41:13:20:
                    d6:c4:33:0e:82:51:24:7f:a0:a7:b1:a4:6e:d3:8d:
                    23:44:8d:33:61:23:aa:87:89:c7:b6:75:8c:af:a6:
                    05:56:2a:0e:61:5c:cf:6b:04:fe:75:29:fe:4b:64:
                    7d:78:f5:78:7d:30:d2:c5:3e:08:9d:4f:0f:d8:49:
                    be:4c:12:19:8a:33:9e:5b:34:da:e5:3b:89:7e:07:
                    15:95:41:2f:29:73:29:2e:af:ff:94:2d:e6:46:23:
                    16:2a:66:cf:6d:8f:9d:f2:18:de:47:90:f8:f7:43:
                    8c:18:15
                Exponent: 65537 (0x10001)
        X509v3 extensions:
            X509v3 Basic Constraints: 
                CA:FALSE
            Netscape Comment: 
                Easy-RSA Generated Certificate
            X509v3 Subject Key Identifier: 
                2E:50:50:A4:F0:35:13:3A:8B:25:F3:9E:AA:C8:6D:70:80:8D:83:C8
            X509v3 Authority Key Identifier: 
                keyid:12:CD:60:04:D2:A0:80:9E:70:ED:C6:99:B8:7B:2C:C6:52:FD:19:A1
                DirName:/C=US/ST=OH/L=Columbus/O=VikingVPN/OU=MyOrganizationalUnit/CN=VikingVPN CA/name=EasyRSA/emailAddress=me@myhost.mydomain
                serial:CF:35:85:EE:80:BF:2A:3E

            X509v3 Extended Key Usage: 
                TLS Web Client Authentication
            X509v3 Key Usage: 
                Digital Signature
    Signature Algorithm: md5WithRSAEncryption
         c6:c5:6a:45:1c:be:95:fb:88:61:8e:e4:13:29:17:ac:e8:bf:
         5c:ce:47:f1:91:80:24:eb:d1:90:c2:08:23:fb:68:19:64:63:
         1f:69:05:10:f4:51:df:be:94:82:54:84:d4:5a:52:13:ea:a5:
         40:03:66:d0:6b:e8:c0:d8:7a:17:2a:02:a0:6e:eb:5c:8b:ea:
         93:b6:65:88:8b:ed:94:0c:13:6b:cf:e9:6f:8b:5f:34:97:68:
         e7:8b:1a:0a:ec:01:fb:b0:ea:2c:66:c3:ac:f6:82:b1:da:25:
         5e:65:dc:c9:ce:5f:fb:9a:fb:ef:cd:93:eb:ae:c0:bb:6c:cb:
         c3:35:62:e8:32:97:cc:ae:9b:de:ec:7b:4d:e0:da:20:1d:b6:
         4e:f1:c8:99:55:fe:fc:f2:a2:d3:5d:aa:c1:ff:dc:af:72:82:
         81:30:9e:23:f9:3e:ee:31:02:7d:07:66:4d:e5:15:77:43:3d:
         a2:27:22:d7:d9:d1:0b:1a:02:b8:fb:3c:fc:89:01:8c:ed:3d:
         61:27:18:2d:f5:04:20:b6:d0:df:cf:94:67:0a:2d:6c:1c:ce:
         78:f5:40:c5:87:a0:a9:4b:37:4a:58:bd:5f:57:9a:12:38:2a:
         a0:4c:a7:84:79:32:3c:1e:ba:74:66:7f:a7:16:76:fc:31:d8:
         91:07:55:ae:b5:1b:8f:55:cd:3e:ef:09:5b:81:c2:34:dc:73:
         d3:55:8a:9d:6f:22:3c:b9:90:ff:79:6e:a7:3a:69:3a:eb:7b:
         cf:8e:ef:5a:6c:ca:a3:72:1c:75:5e:77:a9:8e:04:c8:99:00:
         87:d5:23:b1:31:85:e3:9b:7a:d9:34:62:51:8b:d3:0b:04:06:
         9d:d6:ff:c4:f8:e2:e0:1d:75:2f:fc:2a:31:89:f0:fd:68:88:
         9a:f8:69:72:2f:cf:b2:8c:0f:87:b6:75:b0:e7:4d:fa:06:55:
         b6:42:89:8b:e5:6e:4f:e9:96:79:64:af:6e:11:78:98:5a:36:
         83:c4:0f:98:3f:47:d3:e7:79:98:5b:48:b0:3b:19:f2:98:3b:
         9c:1d:57:23:a9:78:3c:10:07:4d:f0:58:11:b9:95:51:1c:d2:
         51:09:b1:88:fe:14:b1:c8:4f:99:a3:4d:5f:76:b3:c9:4a:a5:
         7e:dc:7e:d2:b1:40:d4:21:87:be:7b:e4:24:5e:a2:1a:5c:9c:
         79:f5:a1:00:10:a3:c7:e5:c8:2b:20:f0:c6:56:4d:be:21:39:
         c4:5f:f9:c1:f3:b3:ae:ab:b6:50:77:be:33:3f:a7:13:48:cc:
         5b:b7:d3:44:90:19:b7:b9:99:36:09:0d:b0:1f:e0:b4:3a:ee:
         00:36:6a:6a:cd:e1:51:fe
-----BEGIN CERTIFICATE-----
MIIGrDCCBJSgAwIBAgICCKowDQYJKoZIhvcNAQEEBQAwgawxCzAJBgNVBAYTAlVT
MQswCQYDVQQIEwJPSDERMA8GA1UEBxMIQ29sdW1idXMxEjAQBgNVBAoTCVZpa2lu
Z1ZQTjEdMBsGA1UECxMUTXlPcmdhbml6YXRpb25hbFVuaXQxFTATBgNVBAMTDFZp
a2luZ1ZQTiBDQTEQMA4GA1UEKRMHRWFzeVJTQTEhMB8GCSqGSIb3DQEJARYSbWVA
bXlob3N0Lm15ZG9tYWluMB4XDTE0MDcwNTE2MTYzN1oXDTI0MDcwMjE2MTYzN1ow
HjEcMBoGA1UEAxMTQ2xpZW50NzgxQ2VydGQ1NzhmNjCCAiIwDQYJKoZIhvcNAQEB
BQADggIPADCCAgoCggIBANeQoq8AyjxwjUYwzdFuCRuc2Xp+oQGT1j14Ed7Br2il
5Daykp6eo5I3acntwuWjEYnotHOuBcEStnAWDrG9xE1ISY3dJqmbFXU3otKMvNhc
XdLNYRwWgTrVww6JnHfltxND1ysAt9ZI6RUycSzf1sCeUrqM26lCC/APA+AuJkZ9
eNPM/O6Zn6z4CaQtzc5FwTMNLX80bno83fJDPwH9/pwwJtRYTZhHH5OMtd1iTU87
6u6EjTJ17fASOvyQmurSSXhlsqZRqQLLKGSoQ7q7ibPqzT7bXCE7u5zSNyBJ3pzv
YEduyFiwNZK6YzZ0RyVst8juHNnld7eyrRbVISnrAOC7ScrATMsBndlM9t06dUNL
ozZ0qVfLKTpqLX4i17/l77KNgy66E3XEf8XG2p7vs8xtzjTEwxbJ4raacmnyFnHI
DEN9EMjPi6i6f/ShuC7tZ4ChM8sdH/SLEL67kTwBzrhIpFYYdlftHwNFV94+ZNtL
B08v3/JS2UjIbY7z1FfSJIQZFBYqLECgC2whedJ2ST2eQRMg1sQzDoJRJH+gp7Gk
btONI0SNM2EjqoeJx7Z1jK+mBVYqDmFcz2sE/nUp/ktkfXj1eH0w0sU+CJ1PD9hJ
vkwSGYoznls02uU7iX4HFZVBLylzKS6v/5Qt5kYjFipmz22PnfIY3keQ+PdDjBgV
AgMBAAGjggFjMIIBXzAJBgNVHRMEAjAAMC0GCWCGSAGG+EIBDQQgFh5FYXN5LVJT
QSBHZW5lcmF0ZWQgQ2VydGlmaWNhdGUwHQYDVR0OBBYEFC5QUKTwNRM6iyXznqrI
bXCAjYPIMIHhBgNVHSMEgdkwgdaAFBLNYATSoICecO3Gmbh7LMZS/RmhoYGypIGv
MIGsMQswCQYDVQQGEwJVUzELMAkGA1UECBMCT0gxETAPBgNVBAcTCENvbHVtYnVz
MRIwEAYDVQQKEwlWaWtpbmdWUE4xHTAbBgNVBAsTFE15T3JnYW5pemF0aW9uYWxV
bml0MRUwEwYDVQQDEwxWaWtpbmdWUE4gQ0ExEDAOBgNVBCkTB0Vhc3lSU0ExITAf
BgkqhkiG9w0BCQEWEm1lQG15aG9zdC5teWRvbWFpboIJAM81he6Avyo+MBMGA1Ud
JQQMMAoGCCsGAQUFBwMCMAsGA1UdDwQEAwIHgDANBgkqhkiG9w0BAQQFAAOCAgEA
xsVqRRy+lfuIYY7kEykXrOi/XM5H8ZGAJOvRkMIII/toGWRjH2kFEPRR376UglSE
1FpSE+qlQANm0GvowNh6FyoCoG7rXIvqk7ZliIvtlAwTa8/pb4tfNJdo54saCuwB
+7DqLGbDrPaCsdolXmXcyc5f+5r7782T667Au2zLwzVi6DKXzK6b3ux7TeDaIB22
TvHImVX+/PKi012qwf/cr3KCgTCeI/k+7jECfQdmTeUVd0M9oici19nRCxoCuPs8
/IkBjO09YScYLfUEILbQ38+UZwotbBzOePVAxYegqUs3Sli9X1eaEjgqoEynhHky
PB66dGZ/pxZ2/DHYkQdVrrUbj1XNPu8JW4HCNNxz01WKnW8iPLmQ/3lupzppOut7
z47vWmzKo3IcdV53qY4EyJkAh9UjsTGF45t62TRiUYvTCwQGndb/xPji4B11L/wq
MYnw/WiImvhpci/PsowPh7Z1sOdN+gZVtkKJi+VuT+mWeWSvbhF4mFo2g8QPmD9H
0+d5mFtIsDsZ8pg7nB1XI6l4PBAHTfBYEbmVURzSUQmxiP4UschPmaNNX3azyUql
ftx+0rFA1CGHvnvkJF6iGlycefWhABCjx+XIKyDwxlZNviE5xF/5wfOzrqu2UHe+
Mz+nE0jMW7fTRJAZt7mZNgkNsB/gtDruADZqas3hUf4=
-----END CERTIFICATE-----
