Certificate:
    Data:
        Version: 3 (0x2)
        Serial Number: 8635 (0x21bb)
    Signature Algorithm: sha256WithRSAEncryption
        Issuer: C=US, ST=OH, L=Columbus, O=VikingVPN, OU=MyOrganizationalUnit, CN=VikingVPN CA/name=EasyRSA/emailAddress=me@myhost.mydomain
        Validity
            Not Before: Jul 31 18:50:24 2016 GMT
            Not After : Jul 29 18:50:24 2026 GMT
        Subject: CN=Client1796Cert9bab48
        Subject Public Key Info:
            Public Key Algorithm: rsaEncryption
                Public-Key: (4096 bit)
                Modulus:
                    00:e1:f2:3b:d4:56:19:55:4e:f4:17:ee:2c:a7:7c:
                    d0:ab:09:ee:c7:a3:0a:86:23:d7:39:67:f5:68:b9:
                    dc:a8:90:45:16:9a:f6:ea:36:a8:c8:2d:74:8e:e3:
                    b4:05:56:eb:e9:2a:f8:ce:22:59:e0:95:1c:de:7c:
                    2d:1c:cf:f0:a7:f6:5e:22:ee:ff:a7:fd:f2:06:cd:
                    9b:e0:d6:72:25:1b:58:0a:b3:90:b0:b2:f9:4b:0c:
                    e5:1b:b0:df:1a:42:df:4e:ff:19:61:73:be:30:4b:
                    37:a0:0d:2c:2e:48:10:8b:8d:14:76:fe:68:0e:2e:
                    5f:dc:9c:e4:1a:31:23:a2:9e:68:55:4b:4e:da:73:
                    a8:69:8c:6b:9d:b1:88:ee:06:5d:89:fb:71:15:33:
                    63:f3:37:ee:bb:3a:52:c7:9b:67:09:08:8c:01:19:
                    69:dc:da:92:e9:ba:d0:1e:7e:27:d7:1e:92:a0:79:
                    af:ea:b8:36:eb:e9:5c:d2:c2:42:22:17:9d:af:a2:
                    53:09:19:8c:53:46:ed:f9:24:4b:c5:8f:f6:c1:f1:
                    d9:a7:41:95:bc:eb:59:cc:d1:63:96:60:56:96:7f:
                    da:14:84:b1:7b:56:1b:7a:65:b5:54:55:52:6c:44:
                    d1:f3:4b:66:e4:46:e0:6c:c7:87:f4:fa:0d:8b:93:
                    dc:f5:fd:dd:12:26:d3:5e:df:3d:55:60:2c:43:1d:
                    52:36:f9:a2:39:a6:6f:31:b4:90:88:1e:7a:47:d1:
                    45:4a:78:87:0b:a5:fd:36:76:b1:65:98:ee:3a:f6:
                    26:77:35:3e:89:ba:ce:15:be:cd:16:e7:96:76:2a:
                    46:e9:f4:07:3e:78:37:b2:7e:a5:d5:d2:d5:ed:7f:
                    a8:72:f2:02:4b:cb:3d:95:66:b7:39:84:f0:92:16:
                    c4:24:75:87:be:20:16:51:e9:c1:70:b3:8d:a4:fb:
                    93:ed:2a:4c:18:fa:bb:b2:2b:d7:f8:79:ed:40:7d:
                    1c:60:39:60:0d:66:db:70:a4:64:bb:b9:9b:06:03:
                    51:00:97:4a:8b:fe:b6:7c:61:8b:71:7e:a4:37:a9:
                    ac:cc:5f:6c:17:c1:58:89:af:c3:e2:be:25:b4:8f:
                    8d:60:23:29:78:33:bb:1b:10:5e:fe:9c:3b:df:fd:
                    10:1b:e5:aa:4d:8e:1c:f7:c0:cd:ea:58:25:7a:ee:
                    14:5f:fe:2c:21:aa:55:fa:a0:b2:3a:1b:45:7b:3c:
                    df:ae:49:bf:01:15:b9:d4:c8:07:d6:7a:42:9b:fd:
                    bc:ad:59:93:bf:0c:57:9f:26:6b:fd:cd:7c:5c:8f:
                    73:a9:19:10:da:e0:2d:dd:27:5e:17:7c:6f:3c:2e:
                    f7:62:63
                Exponent: 65537 (0x10001)
        X509v3 extensions:
            X509v3 Basic Constraints: 
                CA:FALSE
            Netscape Comment: 
                Easy-RSA Generated Certificate
            X509v3 Subject Key Identifier: 
                50:A2:DB:45:F6:1F:E4:60:85:F8:32:F0:80:29:51:82:98:9A:DC:FB
            X509v3 Authority Key Identifier: 
                keyid:12:CD:60:04:D2:A0:80:9E:70:ED:C6:99:B8:7B:2C:C6:52:FD:19:A1
                DirName:/C=US/ST=OH/L=Columbus/O=VikingVPN/OU=MyOrganizationalUnit/CN=VikingVPN CA/name=EasyRSA/emailAddress=me@myhost.mydomain
                serial:CF:35:85:EE:80:BF:2A:3E

            X509v3 Extended Key Usage: 
                TLS Web Client Authentication
            X509v3 Key Usage: 
                Digital Signature
    Signature Algorithm: sha256WithRSAEncryption
         4e:81:a9:22:12:f9:4f:de:cf:94:fc:9a:7a:0f:f5:99:d1:45:
         80:4e:3a:40:cf:d3:0e:7d:cb:4a:21:c5:3d:12:94:e6:96:84:
         c7:fa:93:f3:73:c3:ec:f4:b7:14:82:df:a6:5a:ca:8e:cf:c7:
         59:0e:ab:9b:25:19:65:ec:96:64:e1:51:10:f2:24:ad:9b:38:
         0c:ef:03:9c:dd:2b:4c:59:ab:27:0b:52:00:cf:df:7a:1d:8b:
         db:da:07:82:d9:21:c9:cd:c7:4c:85:2d:e5:4e:05:d4:be:18:
         78:88:ff:31:02:0c:2c:d9:53:b0:cf:8c:1e:ac:5a:29:77:40:
         36:bb:ef:d8:e8:5f:ca:74:4c:da:6b:72:5e:39:9f:9d:3e:9e:
         d8:a9:ab:b9:fb:63:7c:bc:98:aa:4c:ef:24:f1:44:2d:1b:6b:
         2c:91:50:fe:2e:60:20:66:28:c4:80:d8:bf:7c:34:cf:ca:32:
         ec:89:d9:78:81:1f:13:77:15:53:4a:d4:ab:5b:ff:36:50:80:
         13:cf:60:4d:01:44:01:b0:99:94:5d:f7:3f:3c:92:60:a3:44:
         db:fc:75:72:17:08:fe:10:88:af:54:75:ac:e1:5d:2e:5d:d8:
         18:0f:92:48:0c:42:30:eb:0f:01:5b:5c:2e:06:8b:7e:12:d9:
         6c:41:45:00:2a:b5:13:b3:21:b8:17:a6:ec:5e:9a:57:a3:f9:
         2f:fa:b0:2a:33:1c:1a:35:bc:f9:b1:70:4b:7f:3e:ce:e4:56:
         c9:5d:77:76:7f:de:18:2b:21:b3:71:c8:be:04:4a:e6:b4:bc:
         d5:f3:1e:db:d2:d8:5b:43:fa:00:4d:7a:c8:64:9c:a8:90:96:
         6a:e1:b7:3e:2d:b8:e9:65:77:bd:b6:79:61:be:19:af:ca:6f:
         2d:d6:4a:0d:76:77:59:b5:40:b4:ab:05:9f:e2:51:1a:a1:29:
         d9:ed:09:7e:cb:bf:16:39:fd:43:7d:97:be:6c:57:53:20:24:
         59:2b:85:85:8c:8e:3c:3d:ac:d6:81:23:2f:a0:65:2d:8e:af:
         86:04:8e:c9:2e:7f:0d:1b:55:3a:f5:e0:ee:43:10:e9:7c:a5:
         f3:4d:7b:29:cd:35:2a:a3:f6:ed:9b:dc:7e:eb:28:16:a7:6d:
         ff:3a:a4:39:6a:e3:99:78:35:ef:92:2f:a9:28:1e:a6:08:16:
         77:7d:bb:60:50:cc:84:89:c3:f9:76:5a:25:a5:db:76:1d:d3:
         e2:8f:5a:dd:96:69:e9:74:fc:bd:0b:5b:a3:3b:be:3e:4c:2b:
         9a:97:80:51:5f:6a:f5:2c:c8:1d:eb:6b:f3:2b:63:a8:b8:ec:
         0f:10:f2:5f:cf:42:87:a0
-----BEGIN CERTIFICATE-----
MIIGrTCCBJWgAwIBAgICIbswDQYJKoZIhvcNAQELBQAwgawxCzAJBgNVBAYTAlVT
MQswCQYDVQQIEwJPSDERMA8GA1UEBxMIQ29sdW1idXMxEjAQBgNVBAoTCVZpa2lu
Z1ZQTjEdMBsGA1UECxMUTXlPcmdhbml6YXRpb25hbFVuaXQxFTATBgNVBAMTDFZp
a2luZ1ZQTiBDQTEQMA4GA1UEKRMHRWFzeVJTQTEhMB8GCSqGSIb3DQEJARYSbWVA
bXlob3N0Lm15ZG9tYWluMB4XDTE2MDczMTE4NTAyNFoXDTI2MDcyOTE4NTAyNFow
HzEdMBsGA1UEAxMUQ2xpZW50MTc5NkNlcnQ5YmFiNDgwggIiMA0GCSqGSIb3DQEB
AQUAA4ICDwAwggIKAoICAQDh8jvUVhlVTvQX7iynfNCrCe7HowqGI9c5Z/Voudyo
kEUWmvbqNqjILXSO47QFVuvpKvjOIlnglRzefC0cz/Cn9l4i7v+n/fIGzZvg1nIl
G1gKs5CwsvlLDOUbsN8aQt9O/xlhc74wSzegDSwuSBCLjRR2/mgOLl/cnOQaMSOi
nmhVS07ac6hpjGudsYjuBl2J+3EVM2PzN+67OlLHm2cJCIwBGWnc2pLputAefifX
HpKgea/quDbr6VzSwkIiF52volMJGYxTRu35JEvFj/bB8dmnQZW861nM0WOWYFaW
f9oUhLF7Vht6ZbVUVVJsRNHzS2bkRuBsx4f0+g2Lk9z1/d0SJtNe3z1VYCxDHVI2
+aI5pm8xtJCIHnpH0UVKeIcLpf02drFlmO469iZ3NT6Jus4Vvs0W55Z2Kkbp9Ac+
eDeyfqXV0tXtf6hy8gJLyz2VZrc5hPCSFsQkdYe+IBZR6cFws42k+5PtKkwY+ruy
K9f4ee1AfRxgOWANZttwpGS7uZsGA1EAl0qL/rZ8YYtxfqQ3qazMX2wXwViJr8Pi
viW0j41gIyl4M7sbEF7+nDvf/RAb5apNjhz3wM3qWCV67hRf/iwhqlX6oLI6G0V7
PN+uSb8BFbnUyAfWekKb/bytWZO/DFefJmv9zXxcj3OpGRDa4C3dJ14XfG88Lvdi
YwIDAQABo4IBYzCCAV8wCQYDVR0TBAIwADAtBglghkgBhvhCAQ0EIBYeRWFzeS1S
U0EgR2VuZXJhdGVkIENlcnRpZmljYXRlMB0GA1UdDgQWBBRQottF9h/kYIX4MvCA
KVGCmJrc+zCB4QYDVR0jBIHZMIHWgBQSzWAE0qCAnnDtxpm4eyzGUv0ZoaGBsqSB
rzCBrDELMAkGA1UEBhMCVVMxCzAJBgNVBAgTAk9IMREwDwYDVQQHEwhDb2x1bWJ1
czESMBAGA1UEChMJVmlraW5nVlBOMR0wGwYDVQQLExRNeU9yZ2FuaXphdGlvbmFs
VW5pdDEVMBMGA1UEAxMMVmlraW5nVlBOIENBMRAwDgYDVQQpEwdFYXN5UlNBMSEw
HwYJKoZIhvcNAQkBFhJtZUBteWhvc3QubXlkb21haW6CCQDPNYXugL8qPjATBgNV
HSUEDDAKBggrBgEFBQcDAjALBgNVHQ8EBAMCB4AwDQYJKoZIhvcNAQELBQADggIB
AE6BqSIS+U/ez5T8mnoP9ZnRRYBOOkDP0w59y0ohxT0SlOaWhMf6k/Nzw+z0txSC
36Zayo7Px1kOq5slGWXslmThURDyJK2bOAzvA5zdK0xZqycLUgDP33odi9vaB4LZ
IcnNx0yFLeVOBdS+GHiI/zECDCzZU7DPjB6sWil3QDa779joX8p0TNprcl45n50+
ntipq7n7Y3y8mKpM7yTxRC0bayyRUP4uYCBmKMSA2L98NM/KMuyJ2XiBHxN3FVNK
1Ktb/zZQgBPPYE0BRAGwmZRd9z88kmCjRNv8dXIXCP4QiK9UdazhXS5d2BgPkkgM
QjDrDwFbXC4Gi34S2WxBRQAqtROzIbgXpuxemlej+S/6sCozHBo1vPmxcEt/Ps7k
Vsldd3Z/3hgrIbNxyL4ESua0vNXzHtvS2FtD+gBNeshknKiQlmrhtz4tuOlld722
eWG+Ga/Kby3WSg12d1m1QLSrBZ/iURqhKdntCX7LvxY5/UN9l75sV1MgJFkrhYWM
jjw9rNaBIy+gZS2Or4YEjskufw0bVTr14O5DEOl8pfNNeynNNSqj9u2b3H7rKBan
bf86pDlq45l4Ne+SL6koHqYIFnd9u2BQzISJw/l2WiWl23Yd0+KPWt2Wael0/L0L
W6M7vj5MK5qXgFFfavUsyB3ra/MrY6i47A8Q8l/PQoeg
-----END CERTIFICATE-----
