Certificate:
    Data:
        Version: 3 (0x2)
        Serial Number: 1636 (0x664)
    Signature Algorithm: md5WithRSAEncryption
        Issuer: C=US, ST=OH, L=Columbus, O=VikingVPN, OU=MyOrganizationalUnit, CN=VikingVPN CA/name=EasyRSA/emailAddress=me@myhost.mydomain
        Validity
            Not Before: Apr 16 04:00:12 2014 GMT
            Not After : Apr 13 04:00:12 2024 GMT
        Subject: CN=Client590Cert8830e7
        Subject Public Key Info:
            Public Key Algorithm: rsaEncryption
                Public-Key: (4096 bit)
                Modulus:
                    00:ef:58:e8:4e:58:a1:68:a0:3e:d6:9a:65:0f:25:
                    4e:32:f7:1d:d1:de:ae:f0:55:c4:c6:e0:09:a2:f5:
                    6a:42:f9:79:63:0c:97:91:ff:53:b5:2a:dd:0a:55:
                    d9:03:70:98:47:13:b1:2f:1d:1f:a8:a2:e4:7d:e2:
                    df:94:f6:04:c7:66:9e:e7:c9:83:83:af:7d:a0:a0:
                    c7:aa:c7:c9:fa:af:e1:3f:b2:8a:f9:44:c5:56:89:
                    29:d5:ce:90:22:c2:2d:88:fa:22:5c:2a:48:cf:d4:
                    03:3f:42:33:b6:c4:e7:f6:a8:bf:78:40:6d:b3:1c:
                    c3:d8:da:eb:43:1b:db:9c:2a:ea:45:01:2b:a1:e4:
                    f4:5b:4d:c6:b0:d5:dc:d2:11:14:41:8c:47:31:6a:
                    ef:53:b9:99:1d:49:71:49:c1:89:14:48:95:f7:b0:
                    a4:3d:e1:88:ee:f0:69:88:b2:ad:d7:f9:08:3a:d6:
                    db:76:43:53:4a:24:99:77:81:89:ff:67:14:ce:fd:
                    dd:46:0e:67:ce:bb:9f:11:d8:be:c5:1e:cb:a1:c4:
                    55:46:36:44:f6:d3:55:0f:fe:a8:65:c5:a6:81:b5:
                    ca:20:18:e7:97:7b:23:a9:ee:20:12:be:0d:6c:b8:
                    98:6a:57:25:9c:14:0b:6d:2f:6e:e9:95:0c:e6:50:
                    88:39:7e:46:ec:15:25:00:7e:86:9e:43:ba:bc:8c:
                    10:b2:93:ef:38:28:70:bf:88:df:d4:b6:cb:d2:71:
                    3f:11:b6:df:84:e0:57:9d:57:4c:5b:9e:d1:ed:c1:
                    3f:d5:cb:04:15:a6:c7:87:ca:64:8f:7b:c5:5a:4f:
                    fc:35:c2:67:c9:7a:bc:e0:22:f1:75:b6:a1:89:5a:
                    82:e6:9f:20:e1:09:f5:ad:df:81:90:9f:89:7b:67:
                    3d:84:7c:40:77:2f:58:ac:83:ca:20:d1:60:c7:03:
                    fb:f7:4c:0c:18:52:f0:62:15:d7:7f:ec:e1:8a:7c:
                    72:3b:df:eb:b1:b9:0b:66:09:2a:79:b1:70:f8:74:
                    ce:06:10:c3:2f:54:92:ca:fa:8c:cd:de:1d:9a:7c:
                    28:e1:34:ac:33:45:81:24:5f:2e:5b:64:ad:36:aa:
                    a5:51:5f:c6:2e:b1:bd:08:f7:ec:2e:f6:68:bf:d1:
                    4b:a9:d3:7a:64:bf:5c:b8:4f:4c:c1:f6:c1:1d:1c:
                    c7:a7:37:a7:03:9f:a4:d7:7e:35:68:14:f9:9a:84:
                    c4:35:13:cc:af:e6:78:c9:cd:b9:08:19:39:65:f0:
                    d3:5f:b1:04:0f:a5:f2:2c:bf:b1:1f:34:dc:07:0c:
                    74:33:a0:2f:e9:c3:a2:91:3e:58:bc:b4:7a:b2:59:
                    ae:ec:87
                Exponent: 65537 (0x10001)
        X509v3 extensions:
            X509v3 Basic Constraints: 
                CA:FALSE
            Netscape Comment: 
                Easy-RSA Generated Certificate
            X509v3 Subject Key Identifier: 
                75:35:37:02:17:79:8F:D2:A2:81:61:F1:2D:87:08:E7:F4:62:4F:32
            X509v3 Authority Key Identifier: 
                keyid:12:CD:60:04:D2:A0:80:9E:70:ED:C6:99:B8:7B:2C:C6:52:FD:19:A1
                DirName:/C=US/ST=OH/L=Columbus/O=VikingVPN/OU=MyOrganizationalUnit/CN=VikingVPN CA/name=EasyRSA/emailAddress=me@myhost.mydomain
                serial:CF:35:85:EE:80:BF:2A:3E

            X509v3 Extended Key Usage: 
                TLS Web Client Authentication
            X509v3 Key Usage: 
                Digital Signature
    Signature Algorithm: md5WithRSAEncryption
         31:2e:a1:1c:c2:d9:0c:68:e5:31:96:2c:01:35:fa:e0:fa:f9:
         a3:57:bd:4e:e8:ff:ea:2b:36:97:61:0f:76:f5:cd:b3:b9:e0:
         f2:45:ff:8f:79:ac:bf:73:0f:cd:7b:86:33:aa:4d:15:46:63:
         a0:28:c8:45:f7:58:66:da:98:e8:8c:df:f0:d7:70:58:31:32:
         77:8c:81:e2:4f:67:b0:57:f8:2a:63:5b:43:6d:fd:9d:6d:40:
         30:40:6d:d1:ad:0f:35:e1:06:3a:16:9e:29:0f:66:d6:46:03:
         fb:29:01:3b:44:84:97:3e:f7:c1:36:52:05:67:ea:1e:ea:7f:
         fd:01:2a:65:7c:0e:b9:d3:69:9d:69:98:b9:b2:1d:88:86:83:
         6a:65:b0:e1:a3:28:82:54:c5:66:cb:78:32:84:c5:2a:bb:51:
         92:6e:4c:a0:5a:54:31:cf:84:88:25:e3:83:e1:ae:c1:0e:a2:
         a1:30:5f:3f:88:20:7c:fa:bd:6c:ba:4f:c3:ee:6c:ee:fa:e2:
         66:48:2e:ea:f7:76:bb:1b:e2:63:2e:13:95:f5:70:ed:eb:2b:
         90:29:54:3b:d2:a3:68:9a:a4:20:5f:66:4a:ff:03:11:92:86:
         26:4e:7b:14:10:1c:be:12:8a:2f:9e:d6:be:1c:b6:65:dc:e3:
         dc:26:5f:2c:91:f2:03:df:33:6f:83:8c:5b:ca:40:78:62:6a:
         d2:a8:52:62:39:ea:fe:19:5b:4a:e0:a0:7c:ca:15:18:89:53:
         97:51:b5:af:72:e6:4e:21:d1:41:26:da:83:3f:f2:a8:b9:22:
         81:9f:b5:e6:69:51:34:c1:8d:33:76:78:fd:0e:28:65:7a:06:
         66:f8:be:b2:d2:1d:f3:94:31:b3:21:f1:84:e5:7f:0c:d6:9c:
         4a:75:e2:86:7e:6a:f0:d6:44:8e:4b:0d:74:93:c1:2a:4c:d8:
         7b:45:8c:4c:7c:61:e6:14:69:c7:e1:e1:aa:6e:17:7d:05:10:
         45:04:1d:a2:50:d1:71:0c:b8:4f:59:74:40:a0:1e:65:02:07:
         88:0f:b9:50:03:4e:d9:33:ed:ad:52:13:af:6a:a5:8a:ad:d2:
         b0:d5:4e:c3:71:c2:ff:d8:62:b3:c0:26:80:bb:25:86:aa:98:
         2c:ed:b0:7e:05:e6:41:b7:2c:bb:f1:c4:7a:c9:e5:80:1c:ed:
         7f:54:1b:bc:d6:54:e2:9a:d8:a7:f3:e8:36:e4:c2:59:37:5c:
         f0:8f:fb:f7:1b:27:b9:b7:0e:75:ba:1a:96:e1:06:62:3d:8c:
         d7:c3:0b:96:05:29:ba:00:18:4c:73:2b:44:2f:c3:b6:41:c1:
         a9:9a:38:98:c6:ea:51:ea
-----BEGIN CERTIFICATE-----
MIIGrDCCBJSgAwIBAgICBmQwDQYJKoZIhvcNAQEEBQAwgawxCzAJBgNVBAYTAlVT
MQswCQYDVQQIEwJPSDERMA8GA1UEBxMIQ29sdW1idXMxEjAQBgNVBAoTCVZpa2lu
Z1ZQTjEdMBsGA1UECxMUTXlPcmdhbml6YXRpb25hbFVuaXQxFTATBgNVBAMTDFZp
a2luZ1ZQTiBDQTEQMA4GA1UEKRMHRWFzeVJTQTEhMB8GCSqGSIb3DQEJARYSbWVA
bXlob3N0Lm15ZG9tYWluMB4XDTE0MDQxNjA0MDAxMloXDTI0MDQxMzA0MDAxMlow
HjEcMBoGA1UEAxMTQ2xpZW50NTkwQ2VydDg4MzBlNzCCAiIwDQYJKoZIhvcNAQEB
BQADggIPADCCAgoCggIBAO9Y6E5YoWigPtaaZQ8lTjL3HdHervBVxMbgCaL1akL5
eWMMl5H/U7Uq3QpV2QNwmEcTsS8dH6ii5H3i35T2BMdmnufJg4OvfaCgx6rHyfqv
4T+yivlExVaJKdXOkCLCLYj6IlwqSM/UAz9CM7bE5/aov3hAbbMcw9ja60Mb25wq
6kUBK6Hk9FtNxrDV3NIRFEGMRzFq71O5mR1JcUnBiRRIlfewpD3hiO7waYiyrdf5
CDrW23ZDU0okmXeBif9nFM793UYOZ867nxHYvsUey6HEVUY2RPbTVQ/+qGXFpoG1
yiAY55d7I6nuIBK+DWy4mGpXJZwUC20vbumVDOZQiDl+RuwVJQB+hp5DuryMELKT
7zgocL+I39S2y9JxPxG234TgV51XTFue0e3BP9XLBBWmx4fKZI97xVpP/DXCZ8l6
vOAi8XW2oYlaguafIOEJ9a3fgZCfiXtnPYR8QHcvWKyDyiDRYMcD+/dMDBhS8GIV
13/s4Yp8cjvf67G5C2YJKnmxcPh0zgYQwy9Uksr6jM3eHZp8KOE0rDNFgSRfLltk
rTaqpVFfxi6xvQj37C72aL/RS6nTemS/XLhPTMH2wR0cx6c3pwOfpNd+NWgU+ZqE
xDUTzK/meMnNuQgZOWXw01+xBA+l8iy/sR803AcMdDOgL+nDopE+WLy0erJZruyH
AgMBAAGjggFjMIIBXzAJBgNVHRMEAjAAMC0GCWCGSAGG+EIBDQQgFh5FYXN5LVJT
QSBHZW5lcmF0ZWQgQ2VydGlmaWNhdGUwHQYDVR0OBBYEFHU1NwIXeY/SooFh8S2H
COf0Yk8yMIHhBgNVHSMEgdkwgdaAFBLNYATSoICecO3Gmbh7LMZS/RmhoYGypIGv
MIGsMQswCQYDVQQGEwJVUzELMAkGA1UECBMCT0gxETAPBgNVBAcTCENvbHVtYnVz
MRIwEAYDVQQKEwlWaWtpbmdWUE4xHTAbBgNVBAsTFE15T3JnYW5pemF0aW9uYWxV
bml0MRUwEwYDVQQDEwxWaWtpbmdWUE4gQ0ExEDAOBgNVBCkTB0Vhc3lSU0ExITAf
BgkqhkiG9w0BCQEWEm1lQG15aG9zdC5teWRvbWFpboIJAM81he6Avyo+MBMGA1Ud
JQQMMAoGCCsGAQUFBwMCMAsGA1UdDwQEAwIHgDANBgkqhkiG9w0BAQQFAAOCAgEA
MS6hHMLZDGjlMZYsATX64Pr5o1e9Tuj/6is2l2EPdvXNs7ng8kX/j3msv3MPzXuG
M6pNFUZjoCjIRfdYZtqY6Izf8NdwWDEyd4yB4k9nsFf4KmNbQ239nW1AMEBt0a0P
NeEGOhaeKQ9m1kYD+ykBO0SElz73wTZSBWfqHup//QEqZXwOudNpnWmYubIdiIaD
amWw4aMoglTFZst4MoTFKrtRkm5MoFpUMc+EiCXjg+GuwQ6ioTBfP4ggfPq9bLpP
w+5s7vriZkgu6vd2uxviYy4TlfVw7esrkClUO9KjaJqkIF9mSv8DEZKGJk57FBAc
vhKKL57Wvhy2Zdzj3CZfLJHyA98zb4OMW8pAeGJq0qhSYjnq/hlbSuCgfMoVGIlT
l1G1r3LmTiHRQSbagz/yqLkigZ+15mlRNMGNM3Z4/Q4oZXoGZvi+stId85QxsyHx
hOV/DNacSnXihn5q8NZEjksNdJPBKkzYe0WMTHxh5hRpx+Hhqm4XfQUQRQQdolDR
cQy4T1l0QKAeZQIHiA+5UANO2TPtrVITr2qliq3SsNVOw3HC/9his8AmgLslhqqY
LO2wfgXmQbcsu/HEesnlgBztf1QbvNZU4prYp/PoNuTCWTdc8I/79xsnubcOdboa
luEGYj2M18MLlgUpugAYTHMrRC/DtkHBqZo4mMbqUeo=
-----END CERTIFICATE-----
