Certificate:
    Data:
        Version: 3 (0x2)
        Serial Number: 12932 (0x3284)
    Signature Algorithm: sha256WithRSAEncryption
        Issuer: C=US, ST=OH, L=Columbus, O=VikingVPN, OU=MyOrganizationalUnit, CN=VikingVPN CA/name=EasyRSA/emailAddress=me@myhost.mydomain
        Validity
            Not Before: Apr  7 18:12:55 2018 GMT
            Not After : Apr  4 18:12:55 2028 GMT
        Subject: CN=Client1346Cert2c3802
        Subject Public Key Info:
            Public Key Algorithm: rsaEncryption
                Public-Key: (4096 bit)
                Modulus:
                    00:95:3a:49:9d:17:6b:81:3d:9a:d8:2f:00:6e:13:
                    90:f4:ba:8a:4d:bb:cb:cf:9b:1e:01:b6:87:16:e0:
                    56:27:d9:38:74:d9:57:5b:94:d4:51:67:f8:e3:c6:
                    25:83:c5:7c:d7:f7:29:c7:bb:18:83:75:27:a1:71:
                    f1:12:9d:ab:57:d8:18:9b:24:12:ea:50:d8:39:7f:
                    67:12:3b:6f:26:44:8e:95:c4:6c:68:28:ee:f0:b4:
                    b2:46:d9:73:17:d2:6a:e0:ab:a6:f2:48:e4:43:ed:
                    65:a8:d7:39:a8:b8:09:13:03:49:be:eb:7b:7f:a9:
                    87:dc:13:b7:fc:88:25:68:3a:e9:27:30:77:e1:87:
                    74:c9:15:c5:97:55:db:1b:c5:2b:f6:51:da:db:91:
                    66:d0:9a:e5:0b:65:9c:71:90:d3:5d:b9:23:e0:9f:
                    b2:be:62:27:9b:e5:12:39:ed:6e:7f:3d:91:94:8b:
                    b7:d0:d2:78:24:c3:61:56:7d:b1:05:cf:00:13:b9:
                    ac:ef:57:e1:88:86:ca:9e:fa:97:e4:3e:30:0b:d4:
                    8b:8e:37:df:7f:8c:44:41:32:98:51:83:44:d3:b2:
                    36:24:17:3e:82:7c:21:e9:95:93:6e:6b:5e:92:f7:
                    47:ad:a2:45:b3:a0:88:b9:a0:3b:29:d4:5b:cd:35:
                    c9:41:b8:5e:ca:c8:a7:86:cc:71:74:dc:07:4a:b4:
                    1e:ca:b5:c7:80:3d:e5:e8:39:4f:6c:bd:b2:15:f5:
                    ea:a3:a8:75:ca:be:67:69:d2:5b:15:cd:d6:0e:70:
                    fc:3b:e3:4c:97:f4:4c:29:81:14:0f:4f:18:e4:a9:
                    f0:6f:fb:5d:b2:94:c2:ea:64:42:0c:c2:5c:17:50:
                    20:20:69:52:ad:12:91:26:12:7a:cf:0e:99:c2:e9:
                    f6:a5:22:da:7c:db:d5:bd:36:b7:59:eb:2e:ef:30:
                    bd:1a:f6:2f:fd:78:57:0a:10:31:1e:cf:09:22:70:
                    f2:cb:63:89:12:22:92:9d:1b:d5:1d:d3:92:f1:07:
                    80:52:14:75:2d:a3:a7:2e:d6:5b:a9:da:a9:a3:36:
                    93:83:39:19:e4:ee:26:a6:99:b9:66:e0:ca:63:ed:
                    19:6c:42:00:f2:1c:1d:16:34:4b:b1:2d:1f:80:49:
                    99:86:c1:e7:39:86:de:fe:8a:19:a5:f2:ec:0c:73:
                    47:b8:5c:00:4a:9b:10:c0:e2:ec:b7:5d:eb:e0:30:
                    65:37:6b:a1:2f:99:3d:eb:71:14:11:60:09:eb:eb:
                    0a:4d:a4:b0:06:bc:b5:9e:c9:9a:59:b5:86:a8:78:
                    ca:36:e8:5e:db:8b:6c:2f:ff:70:52:4a:e3:ef:34:
                    07:59:1b
                Exponent: 65537 (0x10001)
        X509v3 extensions:
            X509v3 Basic Constraints: 
                CA:FALSE
            Netscape Comment: 
                Easy-RSA Generated Certificate
            X509v3 Subject Key Identifier: 
                B7:16:80:5D:48:A5:F2:A2:42:6C:54:17:DD:62:20:70:56:2E:9E:1D
            X509v3 Authority Key Identifier: 
                keyid:12:CD:60:04:D2:A0:80:9E:70:ED:C6:99:B8:7B:2C:C6:52:FD:19:A1
                DirName:/C=US/ST=OH/L=Columbus/O=VikingVPN/OU=MyOrganizationalUnit/CN=VikingVPN CA/name=EasyRSA/emailAddress=me@myhost.mydomain
                serial:CF:35:85:EE:80:BF:2A:3E

            X509v3 Extended Key Usage: 
                TLS Web Client Authentication
            X509v3 Key Usage: 
                Digital Signature
    Signature Algorithm: sha256WithRSAEncryption
         35:b3:e5:7b:ef:f8:9f:a4:65:93:97:69:2c:24:b7:f0:ba:9c:
         5e:59:63:ee:94:cd:f4:9a:c7:f5:d6:ec:4a:6d:b3:51:b3:c0:
         28:0e:2a:72:18:79:74:51:dd:7b:f7:a5:5b:dd:7c:eb:81:14:
         ba:0e:11:5b:11:3e:7e:dc:f1:95:8c:a0:5f:dc:63:ed:81:51:
         a1:aa:c0:c3:26:25:b2:2a:58:5d:d4:b2:30:6c:f8:8d:94:38:
         6e:ff:30:8e:99:3f:ff:87:bf:6e:6f:04:5e:4a:b6:17:82:bc:
         7f:ce:5c:90:02:11:d1:d0:57:b9:5a:8f:2e:99:e0:d0:89:2f:
         17:b8:d5:52:e9:8e:b4:22:fe:73:9b:59:05:f4:dc:b6:3e:09:
         79:42:41:48:94:45:cd:ed:aa:11:d3:15:6a:19:62:87:f4:84:
         00:66:d7:e3:9c:eb:ef:28:d9:ed:9f:f4:22:b8:ee:37:cd:c1:
         77:26:49:b7:ee:de:3a:f4:cf:92:8c:df:71:ea:0e:e0:8b:f4:
         a0:60:ee:2d:bd:10:a5:6d:72:44:0d:93:58:44:19:8e:30:9a:
         ca:9f:a5:f0:20:0f:0d:a5:d9:32:8d:e2:3c:96:3a:e3:f0:5d:
         d9:88:ab:54:25:0e:98:49:93:a4:87:4b:da:76:94:b0:4e:81:
         0d:ab:38:2f:d3:11:e5:60:d6:3e:74:9d:bb:ca:cd:9b:e6:d1:
         c5:72:75:f5:6d:46:54:a4:8c:e2:18:bc:8f:d0:5d:11:00:2f:
         02:5f:c6:c2:ad:6d:7e:95:2f:cb:0d:04:50:cf:0d:95:e9:ec:
         0f:3c:69:90:72:8b:7e:9e:70:8a:8a:fd:a6:ab:77:14:a0:bc:
         fe:63:63:9e:08:4c:ca:4f:62:56:c7:00:67:74:c2:e2:90:a7:
         fa:7a:b3:25:e5:e2:8d:1b:0e:be:c5:b7:73:82:53:ae:09:62:
         91:83:04:7d:70:3d:fb:c1:0d:ed:f7:d4:2e:cf:3d:a2:9d:fb:
         12:0c:59:47:6a:14:0a:b4:e0:3b:7c:87:f8:b9:19:a2:5c:39:
         4d:b1:e5:a6:34:82:e5:85:d8:de:bc:8a:6f:19:77:5e:11:a9:
         4b:fb:c9:b8:b2:d0:5d:a9:78:ea:5c:fa:b8:c5:b3:0d:79:5d:
         36:15:26:c5:63:3c:98:88:60:42:44:a6:f4:08:70:2b:db:e7:
         f6:db:05:20:eb:9a:92:13:27:f7:15:aa:60:17:4b:8b:d5:5b:
         30:09:04:57:20:7a:04:97:9a:5e:2e:53:58:22:48:4c:11:10:
         b4:7b:17:0a:2f:2a:c7:ba:4f:5c:e7:a1:ce:7c:58:8e:ee:5a:
         77:8e:38:fb:09:3a:97:f4
-----BEGIN CERTIFICATE-----
MIIGrTCCBJWgAwIBAgICMoQwDQYJKoZIhvcNAQELBQAwgawxCzAJBgNVBAYTAlVT
MQswCQYDVQQIEwJPSDERMA8GA1UEBxMIQ29sdW1idXMxEjAQBgNVBAoTCVZpa2lu
Z1ZQTjEdMBsGA1UECxMUTXlPcmdhbml6YXRpb25hbFVuaXQxFTATBgNVBAMTDFZp
a2luZ1ZQTiBDQTEQMA4GA1UEKRMHRWFzeVJTQTEhMB8GCSqGSIb3DQEJARYSbWVA
bXlob3N0Lm15ZG9tYWluMB4XDTE4MDQwNzE4MTI1NVoXDTI4MDQwNDE4MTI1NVow
HzEdMBsGA1UEAxMUQ2xpZW50MTM0NkNlcnQyYzM4MDIwggIiMA0GCSqGSIb3DQEB
AQUAA4ICDwAwggIKAoICAQCVOkmdF2uBPZrYLwBuE5D0uopNu8vPmx4BtocW4FYn
2Th02VdblNRRZ/jjxiWDxXzX9ynHuxiDdSehcfESnatX2BibJBLqUNg5f2cSO28m
RI6VxGxoKO7wtLJG2XMX0mrgq6bySORD7WWo1zmouAkTA0m+63t/qYfcE7f8iCVo
OuknMHfhh3TJFcWXVdsbxSv2UdrbkWbQmuULZZxxkNNduSPgn7K+Yieb5RI57W5/
PZGUi7fQ0ngkw2FWfbEFzwATuazvV+GIhsqe+pfkPjAL1IuON99/jERBMphRg0TT
sjYkFz6CfCHplZNua16S90etokWzoIi5oDsp1FvNNclBuF7KyKeGzHF03AdKtB7K
tceAPeXoOU9svbIV9eqjqHXKvmdp0lsVzdYOcPw740yX9EwpgRQPTxjkqfBv+12y
lMLqZEIMwlwXUCAgaVKtEpEmEnrPDpnC6falItp829W9NrdZ6y7vML0a9i/9eFcK
EDEezwkicPLLY4kSIpKdG9Ud05LxB4BSFHUto6cu1lup2qmjNpODORnk7iammblm
4Mpj7RlsQgDyHB0WNEuxLR+ASZmGwec5ht7+ihml8uwMc0e4XABKmxDA4uy3Xevg
MGU3a6EvmT3rcRQRYAnr6wpNpLAGvLWeyZpZtYaoeMo26F7bi2wv/3BSSuPvNAdZ
GwIDAQABo4IBYzCCAV8wCQYDVR0TBAIwADAtBglghkgBhvhCAQ0EIBYeRWFzeS1S
U0EgR2VuZXJhdGVkIENlcnRpZmljYXRlMB0GA1UdDgQWBBS3FoBdSKXyokJsVBfd
YiBwVi6eHTCB4QYDVR0jBIHZMIHWgBQSzWAE0qCAnnDtxpm4eyzGUv0ZoaGBsqSB
rzCBrDELMAkGA1UEBhMCVVMxCzAJBgNVBAgTAk9IMREwDwYDVQQHEwhDb2x1bWJ1
czESMBAGA1UEChMJVmlraW5nVlBOMR0wGwYDVQQLExRNeU9yZ2FuaXphdGlvbmFs
VW5pdDEVMBMGA1UEAxMMVmlraW5nVlBOIENBMRAwDgYDVQQpEwdFYXN5UlNBMSEw
HwYJKoZIhvcNAQkBFhJtZUBteWhvc3QubXlkb21haW6CCQDPNYXugL8qPjATBgNV
HSUEDDAKBggrBgEFBQcDAjALBgNVHQ8EBAMCB4AwDQYJKoZIhvcNAQELBQADggIB
ADWz5Xvv+J+kZZOXaSwkt/C6nF5ZY+6UzfSax/XW7Epts1GzwCgOKnIYeXRR3Xv3
pVvdfOuBFLoOEVsRPn7c8ZWMoF/cY+2BUaGqwMMmJbIqWF3UsjBs+I2UOG7/MI6Z
P/+Hv25vBF5KtheCvH/OXJACEdHQV7lajy6Z4NCJLxe41VLpjrQi/nObWQX03LY+
CXlCQUiURc3tqhHTFWoZYof0hABm1+Oc6+8o2e2f9CK47jfNwXcmSbfu3jr0z5KM
33HqDuCL9KBg7i29EKVtckQNk1hEGY4wmsqfpfAgDw2l2TKN4jyWOuPwXdmIq1Ql
DphJk6SHS9p2lLBOgQ2rOC/TEeVg1j50nbvKzZvm0cVydfVtRlSkjOIYvI/QXREA
LwJfxsKtbX6VL8sNBFDPDZXp7A88aZByi36ecIqK/aardxSgvP5jY54ITMpPYlbH
AGd0wuKQp/p6syXl4o0bDr7Ft3OCU64JYpGDBH1wPfvBDe331C7PPaKd+xIMWUdq
FAq04Dt8h/i5GaJcOU2x5aY0guWF2N68im8Zd14RqUv7ybiy0F2peOpc+rjFsw15
XTYVJsVjPJiIYEJEpvQIcCvb5/bbBSDrmpITJ/cVqmAXS4vVWzAJBFcgegSXml4u
U1giSEwRELR7FwovKse6T1znoc58WI7uWneOOPsJOpf0
-----END CERTIFICATE-----
