Certificate:
    Data:
        Version: 3 (0x2)
        Serial Number: 7987 (0x1f33)
    Signature Algorithm: md5WithRSAEncryption
        Issuer: C=US, ST=OH, L=Columbus, O=VikingVPN, OU=MyOrganizationalUnit, CN=VikingVPN CA/name=EasyRSA/emailAddress=me@myhost.mydomain
        Validity
            Not Before: May 16 03:31:17 2016 GMT
            Not After : May 14 03:31:17 2026 GMT
        Subject: CN=Client2133Cert4493eb
        Subject Public Key Info:
            Public Key Algorithm: rsaEncryption
                Public-Key: (4096 bit)
                Modulus:
                    00:be:22:be:a4:6c:b7:7f:45:df:85:fc:c3:18:b2:
                    c9:4d:15:66:b2:d2:88:27:fb:88:8f:55:47:36:19:
                    f5:83:8c:ef:2b:36:f3:65:47:cf:e7:de:77:76:05:
                    4a:0c:a3:47:39:ac:2a:fc:46:15:d1:b7:ca:d0:cc:
                    d3:47:fd:68:8c:a6:7a:f5:a4:06:2d:1a:5c:f3:2f:
                    24:a0:50:84:e1:3c:0d:ac:00:2b:a2:11:70:7f:64:
                    ff:b2:66:83:a1:7d:8d:b0:b5:8f:65:c1:68:85:14:
                    ef:6d:d5:88:ad:4e:da:d1:18:a5:04:05:1c:91:e6:
                    c7:e5:b2:d9:c0:2b:b3:1e:69:94:72:73:50:cc:74:
                    de:32:17:52:8f:96:3e:1d:68:b3:8b:85:5e:16:71:
                    70:e5:ed:19:ec:23:02:c2:d3:58:f8:c4:fc:6a:c6:
                    2a:84:2e:e8:4a:2a:bb:d8:c4:d3:84:56:d7:d9:e8:
                    e6:c8:12:9c:ea:2b:5d:94:ce:69:dd:7d:ec:7d:6a:
                    e0:ad:39:9c:18:0e:82:08:5a:b8:a7:1a:b1:0d:e4:
                    a4:ae:3f:2a:24:64:d6:60:3f:44:86:f2:bf:87:1d:
                    20:ac:b0:e7:08:d5:12:b3:c4:0d:c4:2a:3d:ad:61:
                    f9:40:63:c4:cd:a7:8a:02:0d:72:da:98:c1:fe:e8:
                    41:ba:f2:90:ab:b0:b0:cb:65:b1:01:32:60:88:68:
                    9a:67:df:0e:42:db:37:8d:4f:e9:c8:08:d6:77:7e:
                    02:6a:84:ed:f9:a2:0b:2f:f9:55:70:bc:3c:9c:2b:
                    1e:1b:e1:48:b3:5d:76:92:28:43:3d:03:12:68:02:
                    81:ec:95:06:f7:2b:56:74:73:b0:b9:91:bb:2c:ae:
                    16:e3:0e:89:44:64:24:9f:bf:09:f8:11:62:32:98:
                    91:50:be:fa:25:64:05:4a:b2:d8:8e:07:34:f4:d2:
                    de:d0:c1:11:2a:c6:0f:14:68:b2:85:3a:a3:36:58:
                    5d:82:a0:36:8f:7b:00:9d:74:2f:18:92:70:4a:ed:
                    92:4a:0b:81:09:fd:43:f5:19:9d:ca:a8:59:42:9b:
                    45:1c:d0:2a:11:c6:40:0c:09:58:a0:c1:5b:01:dc:
                    4a:e2:3a:30:93:fe:e6:90:2c:c1:be:79:81:88:4d:
                    9a:18:83:06:92:59:c8:93:e3:a9:c5:c3:32:cc:1a:
                    94:02:bc:91:bb:ca:50:2c:7d:7c:0d:64:b1:04:e7:
                    14:1c:97:9e:9a:4d:ef:9e:3d:89:ee:f6:af:9c:16:
                    d1:9e:29:a9:27:ff:8c:b0:95:55:3e:35:34:49:06:
                    19:d1:2f:f1:5f:65:0d:01:49:c2:25:1c:e8:b1:33:
                    f3:35:f1
                Exponent: 65537 (0x10001)
        X509v3 extensions:
            X509v3 Basic Constraints: 
                CA:FALSE
            Netscape Comment: 
                Easy-RSA Generated Certificate
            X509v3 Subject Key Identifier: 
                D3:F2:C8:A4:30:CF:37:FF:23:0C:28:00:10:05:55:80:14:7C:6E:54
            X509v3 Authority Key Identifier: 
                keyid:12:CD:60:04:D2:A0:80:9E:70:ED:C6:99:B8:7B:2C:C6:52:FD:19:A1
                DirName:/C=US/ST=OH/L=Columbus/O=VikingVPN/OU=MyOrganizationalUnit/CN=VikingVPN CA/name=EasyRSA/emailAddress=me@myhost.mydomain
                serial:CF:35:85:EE:80:BF:2A:3E

            X509v3 Extended Key Usage: 
                TLS Web Client Authentication
            X509v3 Key Usage: 
                Digital Signature
    Signature Algorithm: md5WithRSAEncryption
         cf:52:6c:b6:8a:39:5d:70:6f:be:d7:46:93:14:49:5d:63:48:
         4d:24:44:dd:b5:7c:49:09:80:6c:69:57:26:f1:a0:31:49:1f:
         89:61:64:5c:a1:f2:ce:e4:9f:ca:09:d9:26:11:b8:56:58:eb:
         09:a8:72:04:19:3b:af:bd:3a:a8:e5:a7:0d:2b:f6:c9:5d:d7:
         df:bb:5d:37:85:a5:27:3f:f6:77:5d:b3:b4:a1:e8:00:ba:b4:
         06:1f:96:2a:b5:ad:f6:ca:ed:b7:0d:79:c9:ed:81:af:a0:bc:
         f6:8c:06:18:cf:7b:93:39:b1:5e:d4:2a:f7:d4:06:63:d7:a1:
         6e:1b:42:7c:10:14:38:fa:94:78:24:1a:4b:15:ae:e4:b2:84:
         4e:ca:71:ef:da:ce:b6:95:df:7b:6b:64:0a:82:39:e2:54:7e:
         d2:9b:86:a3:bd:77:6f:7f:a9:aa:2d:5b:a8:84:09:de:46:5a:
         3a:ff:01:29:7f:a0:01:3e:e5:f5:06:42:42:a9:02:99:15:19:
         cf:a9:da:10:71:6b:81:ac:90:56:9d:6f:4c:f0:36:4b:c8:de:
         f1:0e:fc:66:d4:3c:06:25:be:a9:e2:bf:76:ca:ca:33:bd:bc:
         48:14:ee:39:4b:5e:f5:e3:a0:a8:31:fb:14:9b:53:f3:19:69:
         fc:e1:5e:e3:c1:53:fd:f7:f7:a3:ed:95:df:33:f4:78:96:11:
         e0:1d:a1:6f:e5:8d:45:7f:24:69:07:c3:8e:32:f4:1b:c5:46:
         89:99:9c:7f:42:b7:73:5b:98:3f:e1:76:a8:5f:60:6c:14:96:
         de:d3:b2:a9:89:88:ff:32:4d:52:a5:74:d4:f6:cd:2a:f7:af:
         b6:ad:ff:3d:f2:be:d7:17:d4:c7:e7:41:33:0a:12:8c:0b:65:
         d2:81:ba:2f:03:3f:39:df:b8:58:97:8d:9b:cb:d9:db:02:f1:
         a3:df:b2:94:94:81:4d:af:55:61:c5:aa:fa:4f:3d:44:fb:78:
         90:d1:03:7a:db:7c:82:38:0e:82:3c:04:88:4f:22:a2:8d:65:
         52:3b:a5:92:64:bb:4f:72:bd:cf:9e:93:1b:31:cf:78:0e:71:
         0f:03:06:ea:cc:18:f6:38:f1:75:34:6d:95:2c:82:42:95:cc:
         9c:a9:24:b4:3d:47:02:dc:a6:d8:10:00:cf:62:ce:a6:2c:4d:
         63:ae:86:09:bd:ba:0c:ba:e0:f7:e3:9f:e7:d6:2c:53:fa:eb:
         38:9c:4b:25:3e:d7:28:77:6a:2c:e0:5b:6a:9a:d3:44:4c:4e:
         4b:e6:9c:e0:84:e2:f6:da:86:f4:48:1e:4e:92:fd:fd:d6:62:
         a6:9d:61:06:8e:88:d7:33
-----BEGIN CERTIFICATE-----
MIIGrTCCBJWgAwIBAgICHzMwDQYJKoZIhvcNAQEEBQAwgawxCzAJBgNVBAYTAlVT
MQswCQYDVQQIEwJPSDERMA8GA1UEBxMIQ29sdW1idXMxEjAQBgNVBAoTCVZpa2lu
Z1ZQTjEdMBsGA1UECxMUTXlPcmdhbml6YXRpb25hbFVuaXQxFTATBgNVBAMTDFZp
a2luZ1ZQTiBDQTEQMA4GA1UEKRMHRWFzeVJTQTEhMB8GCSqGSIb3DQEJARYSbWVA
bXlob3N0Lm15ZG9tYWluMB4XDTE2MDUxNjAzMzExN1oXDTI2MDUxNDAzMzExN1ow
HzEdMBsGA1UEAxMUQ2xpZW50MjEzM0NlcnQ0NDkzZWIwggIiMA0GCSqGSIb3DQEB
AQUAA4ICDwAwggIKAoICAQC+Ir6kbLd/Rd+F/MMYsslNFWay0ogn+4iPVUc2GfWD
jO8rNvNlR8/n3nd2BUoMo0c5rCr8RhXRt8rQzNNH/WiMpnr1pAYtGlzzLySgUITh
PA2sACuiEXB/ZP+yZoOhfY2wtY9lwWiFFO9t1YitTtrRGKUEBRyR5sflstnAK7Me
aZRyc1DMdN4yF1KPlj4daLOLhV4WcXDl7RnsIwLC01j4xPxqxiqELuhKKrvYxNOE
VtfZ6ObIEpzqK12Uzmndfex9auCtOZwYDoIIWrinGrEN5KSuPyokZNZgP0SG8r+H
HSCssOcI1RKzxA3EKj2tYflAY8TNp4oCDXLamMH+6EG68pCrsLDLZbEBMmCIaJpn
3w5C2zeNT+nICNZ3fgJqhO35ogsv+VVwvDycKx4b4UizXXaSKEM9AxJoAoHslQb3
K1Z0c7C5kbssrhbjDolEZCSfvwn4EWIymJFQvvolZAVKstiOBzT00t7QwREqxg8U
aLKFOqM2WF2CoDaPewCddC8YknBK7ZJKC4EJ/UP1GZ3KqFlCm0Uc0CoRxkAMCVig
wVsB3EriOjCT/uaQLMG+eYGITZoYgwaSWciT46nFwzLMGpQCvJG7ylAsfXwNZLEE
5xQcl56aTe+ePYnu9q+cFtGeKakn/4ywlVU+NTRJBhnRL/FfZQ0BScIlHOixM/M1
8QIDAQABo4IBYzCCAV8wCQYDVR0TBAIwADAtBglghkgBhvhCAQ0EIBYeRWFzeS1S
U0EgR2VuZXJhdGVkIENlcnRpZmljYXRlMB0GA1UdDgQWBBTT8sikMM83/yMMKAAQ
BVWAFHxuVDCB4QYDVR0jBIHZMIHWgBQSzWAE0qCAnnDtxpm4eyzGUv0ZoaGBsqSB
rzCBrDELMAkGA1UEBhMCVVMxCzAJBgNVBAgTAk9IMREwDwYDVQQHEwhDb2x1bWJ1
czESMBAGA1UEChMJVmlraW5nVlBOMR0wGwYDVQQLExRNeU9yZ2FuaXphdGlvbmFs
VW5pdDEVMBMGA1UEAxMMVmlraW5nVlBOIENBMRAwDgYDVQQpEwdFYXN5UlNBMSEw
HwYJKoZIhvcNAQkBFhJtZUBteWhvc3QubXlkb21haW6CCQDPNYXugL8qPjATBgNV
HSUEDDAKBggrBgEFBQcDAjALBgNVHQ8EBAMCB4AwDQYJKoZIhvcNAQEEBQADggIB
AM9SbLaKOV1wb77XRpMUSV1jSE0kRN21fEkJgGxpVybxoDFJH4lhZFyh8s7kn8oJ
2SYRuFZY6wmocgQZO6+9Oqjlpw0r9sld19+7XTeFpSc/9ndds7Sh6AC6tAYfliq1
rfbK7bcNecntga+gvPaMBhjPe5M5sV7UKvfUBmPXoW4bQnwQFDj6lHgkGksVruSy
hE7Kce/azraV33trZAqCOeJUftKbhqO9d29/qaotW6iECd5GWjr/ASl/oAE+5fUG
QkKpApkVGc+p2hBxa4GskFadb0zwNkvI3vEO/GbUPAYlvqniv3bKyjO9vEgU7jlL
XvXjoKgx+xSbU/MZafzhXuPBU/3396Ptld8z9HiWEeAdoW/ljUV/JGkHw44y9BvF
RomZnH9Ct3NbmD/hdqhfYGwUlt7TsqmJiP8yTVKldNT2zSr3r7at/z3yvtcX1Mfn
QTMKEowLZdKBui8DPznfuFiXjZvL2dsC8aPfspSUgU2vVWHFqvpPPUT7eJDRA3rb
fII4DoI8BIhPIqKNZVI7pZJku09yvc+ekxsxz3gOcQ8DBurMGPY48XU0bZUsgkKV
zJypJLQ9RwLcptgQAM9izqYsTWOuhgm9ugy64Pfjn+fWLFP66zicSyU+1yh3aizg
W2qa00RMTkvmnOCE4vbahvRIHk6S/f3WYqadYQaOiNcz
-----END CERTIFICATE-----
