Certificate:
    Data:
        Version: 3 (0x2)
        Serial Number: 2868 (0xb34)
    Signature Algorithm: md5WithRSAEncryption
        Issuer: C=US, ST=OH, L=Columbus, O=VikingVPN, OU=MyOrganizationalUnit, CN=VikingVPN CA/name=EasyRSA/emailAddress=me@myhost.mydomain
        Validity
            Not Before: Sep 16 12:34:32 2014 GMT
            Not After : Sep 13 12:34:32 2024 GMT
        Subject: CN=Client989Certf1dfd3
        Subject Public Key Info:
            Public Key Algorithm: rsaEncryption
                Public-Key: (4096 bit)
                Modulus:
                    00:cb:d3:ff:c8:0c:fe:b2:70:12:c5:1b:94:91:3a:
                    c4:13:c2:1d:f9:d7:e1:2c:10:68:47:58:c1:05:d4:
                    43:5f:e4:50:d2:08:02:44:fc:d8:8c:c1:06:81:d3:
                    32:4c:d0:ce:40:7a:70:c1:03:df:2c:5f:f8:22:5f:
                    6a:93:0f:5b:73:4b:51:04:d8:b2:62:cf:39:25:5e:
                    1f:5d:e1:f2:54:07:29:fc:9c:72:aa:5f:b2:6f:f6:
                    4c:a5:09:68:8f:85:8f:56:86:fc:2e:ea:1a:c9:e9:
                    f1:0f:75:bd:ed:30:7a:91:1e:ea:cd:37:16:35:6a:
                    76:eb:78:d0:4c:d8:f6:62:aa:b8:2c:a6:4c:45:dc:
                    1d:6c:9e:fc:38:e1:63:b3:dc:be:74:c5:69:8a:9a:
                    dc:d0:a9:cd:db:a5:f3:c8:09:06:97:f5:c7:72:63:
                    78:0a:df:3a:27:c6:03:3a:6d:71:a8:42:a6:da:2a:
                    04:5f:cf:1f:2f:05:f6:55:bb:84:ed:51:21:ee:f3:
                    3e:c5:28:9f:36:c1:7f:ff:82:cb:b3:7b:01:0b:b4:
                    da:97:05:cd:7c:4e:22:17:50:05:d2:32:14:2b:92:
                    3b:1d:5d:20:5b:16:26:99:d2:2d:25:96:53:ab:6c:
                    d8:f6:a1:8c:f4:f1:07:38:9e:2a:6a:f3:48:f6:c5:
                    7a:72:21:16:c4:5b:54:a0:db:00:2e:a7:f0:38:13:
                    e4:a0:bf:68:aa:11:ba:03:34:c9:95:69:86:26:7f:
                    5c:8e:da:da:28:75:6d:82:6a:4c:4e:5c:31:95:24:
                    28:b7:39:73:fa:b3:6c:b8:40:9a:d7:c9:59:cb:7c:
                    03:4d:d6:00:64:91:3c:95:79:f0:97:dc:d6:f7:34:
                    57:24:a8:b0:de:30:14:eb:35:0c:91:49:8b:4a:20:
                    0c:c7:42:4d:a8:e1:78:4f:f5:89:0c:a6:79:71:65:
                    81:8c:de:e5:72:c2:80:31:e0:5b:45:ae:a6:b2:3d:
                    f3:fb:e0:eb:c7:c0:4d:37:17:5a:de:54:1e:97:51:
                    e0:c5:df:df:f4:95:5e:05:fc:b2:97:21:78:65:cd:
                    fe:8f:08:49:d2:1d:57:54:aa:9e:ad:97:14:28:f7:
                    23:48:0e:88:31:08:ce:49:13:d3:8b:82:4a:38:a3:
                    df:22:57:6e:fd:ce:27:3c:0d:ad:63:2a:cc:99:86:
                    9d:56:cc:65:a7:36:36:62:8d:a0:1d:fb:c2:50:34:
                    84:a4:ab:03:60:a1:9c:79:34:1d:43:aa:9c:dc:48:
                    b0:2c:51:4e:16:c5:6f:f9:13:2d:da:93:6f:01:71:
                    7d:15:46:2e:1d:21:c6:59:f5:b5:bc:5c:5f:92:66:
                    36:2c:5f
                Exponent: 65537 (0x10001)
        X509v3 extensions:
            X509v3 Basic Constraints: 
                CA:FALSE
            Netscape Comment: 
                Easy-RSA Generated Certificate
            X509v3 Subject Key Identifier: 
                8C:54:D8:7E:88:39:63:57:92:1A:EE:AF:8D:E7:4D:15:53:12:73:4E
            X509v3 Authority Key Identifier: 
                keyid:12:CD:60:04:D2:A0:80:9E:70:ED:C6:99:B8:7B:2C:C6:52:FD:19:A1
                DirName:/C=US/ST=OH/L=Columbus/O=VikingVPN/OU=MyOrganizationalUnit/CN=VikingVPN CA/name=EasyRSA/emailAddress=me@myhost.mydomain
                serial:CF:35:85:EE:80:BF:2A:3E

            X509v3 Extended Key Usage: 
                TLS Web Client Authentication
            X509v3 Key Usage: 
                Digital Signature
    Signature Algorithm: md5WithRSAEncryption
         90:61:14:c4:81:94:00:4a:70:cb:f5:e0:8f:a0:8e:45:40:ce:
         6f:30:bb:45:89:54:2e:f5:fd:30:33:d3:81:9d:77:2d:a3:3d:
         f7:5c:f0:05:75:94:08:e6:e6:86:08:5b:64:a2:51:04:b6:6b:
         7f:02:98:e0:6d:1b:bb:ee:aa:ed:8c:08:cb:57:b6:01:0f:7f:
         91:72:89:18:35:c3:a1:f5:d0:85:e5:af:de:40:bd:58:e9:14:
         5a:35:68:a7:44:56:96:75:8a:f9:91:b6:39:08:1c:f9:95:da:
         26:1e:74:5c:dc:6f:e2:0f:d3:f4:f7:22:30:66:38:f7:85:0f:
         eb:2f:e9:d8:bc:e8:b8:94:40:34:bd:a5:1a:c5:8d:77:be:7b:
         53:b7:d6:43:bc:ae:6f:56:7c:d4:74:48:9b:10:fc:2a:44:9e:
         a4:73:b8:6d:30:55:f6:a7:e9:a9:a0:03:53:51:d2:89:78:2a:
         98:80:e8:14:70:e6:cc:8e:93:55:66:93:de:82:c1:fe:e2:d0:
         1a:5e:c4:58:a2:bf:e9:3d:2a:51:95:ce:4c:dc:c5:a3:63:5f:
         14:b7:8e:d2:10:48:6e:a5:d0:e2:f4:bc:06:94:4a:8e:da:f9:
         84:a9:1d:26:72:04:7c:b3:8a:72:3c:56:f8:e5:bb:c6:79:96:
         60:38:60:6d:b5:ae:18:bc:14:5a:bf:2a:be:fe:e3:b1:97:de:
         8b:77:62:6a:1c:48:b5:e2:85:3f:25:15:57:c2:c2:4d:45:f9:
         3d:b7:f7:3e:b6:81:96:36:d1:58:3f:9e:1b:42:3b:6a:b9:b6:
         18:ed:28:28:ab:60:ff:36:3a:34:a5:78:11:bc:25:a7:e4:8d:
         b1:45:7b:42:c1:79:56:b9:be:b4:50:af:35:90:32:e9:4d:48:
         26:bd:3d:4d:16:f8:d9:15:5d:5e:28:74:25:9b:0c:ba:5c:b0:
         85:0d:44:61:fe:95:16:82:15:10:15:87:81:f8:df:91:30:e3:
         f5:c8:c6:c7:e7:fe:16:05:b0:6e:6e:1f:f9:bc:8e:16:b3:c1:
         a8:a6:9a:35:3b:a6:b6:8b:92:ab:ca:cf:c5:6b:8c:94:55:35:
         63:e1:9e:1b:9f:be:9f:d0:89:73:31:08:56:d6:f0:3a:44:7d:
         8b:cf:5d:ae:ef:32:78:39:b7:55:e0:62:22:6a:b7:61:5f:20:
         7d:87:dc:17:48:46:b2:ab:1f:a3:92:34:42:df:d6:3c:45:23:
         cb:92:0b:0f:9c:ba:cc:5d:48:75:89:aa:ed:21:d3:70:99:cc:
         51:de:26:68:29:26:2e:99:d0:1b:d8:0b:3c:42:b3:39:88:47:
         a6:1d:ac:64:6e:30:4f:3f
-----BEGIN CERTIFICATE-----
MIIGrDCCBJSgAwIBAgICCzQwDQYJKoZIhvcNAQEEBQAwgawxCzAJBgNVBAYTAlVT
MQswCQYDVQQIEwJPSDERMA8GA1UEBxMIQ29sdW1idXMxEjAQBgNVBAoTCVZpa2lu
Z1ZQTjEdMBsGA1UECxMUTXlPcmdhbml6YXRpb25hbFVuaXQxFTATBgNVBAMTDFZp
a2luZ1ZQTiBDQTEQMA4GA1UEKRMHRWFzeVJTQTEhMB8GCSqGSIb3DQEJARYSbWVA
bXlob3N0Lm15ZG9tYWluMB4XDTE0MDkxNjEyMzQzMloXDTI0MDkxMzEyMzQzMlow
HjEcMBoGA1UEAxMTQ2xpZW50OTg5Q2VydGYxZGZkMzCCAiIwDQYJKoZIhvcNAQEB
BQADggIPADCCAgoCggIBAMvT/8gM/rJwEsUblJE6xBPCHfnX4SwQaEdYwQXUQ1/k
UNIIAkT82IzBBoHTMkzQzkB6cMED3yxf+CJfapMPW3NLUQTYsmLPOSVeH13h8lQH
Kfyccqpfsm/2TKUJaI+Fj1aG/C7qGsnp8Q91ve0wepEe6s03FjVqdut40EzY9mKq
uCymTEXcHWye/DjhY7PcvnTFaYqa3NCpzdul88gJBpf1x3JjeArfOifGAzptcahC
ptoqBF/PHy8F9lW7hO1RIe7zPsUonzbBf/+Cy7N7AQu02pcFzXxOIhdQBdIyFCuS
Ox1dIFsWJpnSLSWWU6ts2PahjPTxBzieKmrzSPbFenIhFsRbVKDbAC6n8DgT5KC/
aKoRugM0yZVphiZ/XI7a2ih1bYJqTE5cMZUkKLc5c/qzbLhAmtfJWct8A03WAGSR
PJV58Jfc1vc0VySosN4wFOs1DJFJi0ogDMdCTajheE/1iQymeXFlgYze5XLCgDHg
W0WuprI98/vg68fATTcXWt5UHpdR4MXf3/SVXgX8spcheGXN/o8ISdIdV1Sqnq2X
FCj3I0gOiDEIzkkT04uCSjij3yJXbv3OJzwNrWMqzJmGnVbMZac2NmKNoB37wlA0
hKSrA2ChnHk0HUOqnNxIsCxRThbFb/kTLdqTbwFxfRVGLh0hxln1tbxcX5JmNixf
AgMBAAGjggFjMIIBXzAJBgNVHRMEAjAAMC0GCWCGSAGG+EIBDQQgFh5FYXN5LVJT
QSBHZW5lcmF0ZWQgQ2VydGlmaWNhdGUwHQYDVR0OBBYEFIxU2H6IOWNXkhrur43n
TRVTEnNOMIHhBgNVHSMEgdkwgdaAFBLNYATSoICecO3Gmbh7LMZS/RmhoYGypIGv
MIGsMQswCQYDVQQGEwJVUzELMAkGA1UECBMCT0gxETAPBgNVBAcTCENvbHVtYnVz
MRIwEAYDVQQKEwlWaWtpbmdWUE4xHTAbBgNVBAsTFE15T3JnYW5pemF0aW9uYWxV
bml0MRUwEwYDVQQDEwxWaWtpbmdWUE4gQ0ExEDAOBgNVBCkTB0Vhc3lSU0ExITAf
BgkqhkiG9w0BCQEWEm1lQG15aG9zdC5teWRvbWFpboIJAM81he6Avyo+MBMGA1Ud
JQQMMAoGCCsGAQUFBwMCMAsGA1UdDwQEAwIHgDANBgkqhkiG9w0BAQQFAAOCAgEA
kGEUxIGUAEpwy/Xgj6CORUDObzC7RYlULvX9MDPTgZ13LaM991zwBXWUCObmhghb
ZKJRBLZrfwKY4G0bu+6q7YwIy1e2AQ9/kXKJGDXDofXQheWv3kC9WOkUWjVop0RW
lnWK+ZG2OQgc+ZXaJh50XNxv4g/T9PciMGY494UP6y/p2LzouJRANL2lGsWNd757
U7fWQ7yub1Z81HRImxD8KkSepHO4bTBV9qfpqaADU1HSiXgqmIDoFHDmzI6TVWaT
3oLB/uLQGl7EWKK/6T0qUZXOTNzFo2NfFLeO0hBIbqXQ4vS8BpRKjtr5hKkdJnIE
fLOKcjxW+OW7xnmWYDhgbbWuGLwUWr8qvv7jsZfei3diahxIteKFPyUVV8LCTUX5
Pbf3PraBljbRWD+eG0I7arm2GO0oKKtg/zY6NKV4Ebwlp+SNsUV7QsF5Vrm+tFCv
NZAy6U1IJr09TRb42RVdXih0JZsMulywhQ1EYf6VFoIVEBWHgfjfkTDj9cjGx+f+
FgWwbm4f+byOFrPBqKaaNTumtouSq8rPxWuMlFU1Y+GeG5++n9CJczEIVtbwOkR9
i89dru8yeDm3VeBiImq3YV8gfYfcF0hGsqsfo5I0Qt/WPEUjy5ILD5y6zF1IdYmq
7SHTcJnMUd4maCkmLpnQG9gLPEKzOYhHph2sZG4wTz8=
-----END CERTIFICATE-----
