Certificate:
    Data:
        Version: 3 (0x2)
        Serial Number: 9463 (0x24f7)
    Signature Algorithm: sha256WithRSAEncryption
        Issuer: C=US, ST=OH, L=Columbus, O=VikingVPN, OU=MyOrganizationalUnit, CN=VikingVPN CA/name=EasyRSA/emailAddress=me@myhost.mydomain
        Validity
            Not Before: Nov 16 02:31:58 2016 GMT
            Not After : Nov 14 02:31:58 2026 GMT
        Subject: CN=Client2588Cert41b26b
        Subject Public Key Info:
            Public Key Algorithm: rsaEncryption
                Public-Key: (4096 bit)
                Modulus:
                    00:ed:8c:8d:fe:de:59:d8:3f:18:7b:22:a8:e8:86:
                    a2:0b:c6:59:c7:18:f2:56:19:b0:44:ac:cd:89:e3:
                    2f:33:ee:b7:86:2b:c7:fd:dd:e5:5b:61:5c:c2:0b:
                    6f:dd:69:a3:2c:39:e6:78:ac:8a:a0:ed:86:58:d5:
                    c1:7f:93:8c:2c:a5:69:44:5f:e3:fc:eb:68:b7:a3:
                    f2:f5:ac:3f:e9:13:b0:f8:bf:d9:f5:c6:bc:68:5a:
                    9b:c8:0c:4d:c4:0b:bc:e5:a3:d4:74:02:e3:f4:38:
                    20:d1:58:65:50:3e:96:e0:18:bb:65:1e:36:97:4d:
                    6e:7c:b1:13:de:42:f2:ba:c1:f8:dd:b6:2a:f8:8f:
                    69:ea:12:f2:54:44:d5:50:0d:0b:eb:19:6b:e0:86:
                    d8:ef:66:8e:92:b3:46:c6:66:d4:24:2d:89:34:78:
                    8d:83:c5:a7:63:20:d0:4e:6a:b0:45:46:15:ba:4b:
                    bc:61:cd:53:88:21:6c:7f:95:20:a5:02:30:f9:39:
                    48:a3:e5:fe:76:04:42:a6:5b:11:8f:57:e8:7e:5e:
                    4e:17:d6:a7:ce:db:f7:a7:59:12:3c:11:8c:ed:d8:
                    71:da:46:07:1e:31:a9:e8:10:a0:96:51:54:0f:8d:
                    99:57:40:02:35:59:a0:62:2b:43:6b:37:e5:a1:7c:
                    c5:b7:00:81:bc:5c:0c:27:b3:95:16:c8:55:6a:5a:
                    b7:dc:0a:6d:21:21:0e:19:28:42:8c:c9:3c:87:1d:
                    74:df:db:94:25:d2:68:66:3d:1a:79:0c:78:ea:f1:
                    bf:ab:13:91:9b:03:74:f9:ca:21:72:d7:d8:8f:d5:
                    e2:17:89:8d:d8:6d:fd:9c:5b:8c:81:66:38:3a:92:
                    09:71:ed:24:86:80:db:b8:9a:85:ad:fd:c4:cf:98:
                    23:ab:5c:40:36:18:dc:bf:ed:8d:81:29:c2:58:7f:
                    5d:73:2e:dc:57:3f:b2:b9:1e:1b:b3:0b:ba:dd:4d:
                    bd:31:fa:6e:ea:a6:d8:83:2e:ce:03:45:6b:4d:50:
                    bb:69:5f:b7:63:53:19:6d:8d:1b:f0:4b:f2:a6:0f:
                    c7:1b:c4:44:4d:38:f0:39:4a:74:de:b4:9b:61:9d:
                    53:b9:75:15:d3:48:76:58:a0:a5:8d:cd:65:02:19:
                    f3:80:dc:4c:02:47:dc:e6:a2:37:2a:1e:16:1d:5f:
                    00:50:d5:0e:9b:a1:e5:f9:a3:61:90:62:9e:f1:51:
                    42:2b:a2:bb:30:42:36:0c:fa:55:95:b5:41:31:fd:
                    ea:bf:13:d9:ad:11:f9:90:8b:fd:a5:ac:5d:6d:16:
                    3a:a5:91:fa:96:bc:83:c8:50:95:81:a0:d6:b0:a9:
                    8b:25:d5
                Exponent: 65537 (0x10001)
        X509v3 extensions:
            X509v3 Basic Constraints: 
                CA:FALSE
            Netscape Comment: 
                Easy-RSA Generated Certificate
            X509v3 Subject Key Identifier: 
                9C:2D:BE:CF:8F:2E:A4:60:18:C2:92:E9:2D:2A:97:5D:46:D7:78:94
            X509v3 Authority Key Identifier: 
                keyid:12:CD:60:04:D2:A0:80:9E:70:ED:C6:99:B8:7B:2C:C6:52:FD:19:A1
                DirName:/C=US/ST=OH/L=Columbus/O=VikingVPN/OU=MyOrganizationalUnit/CN=VikingVPN CA/name=EasyRSA/emailAddress=me@myhost.mydomain
                serial:CF:35:85:EE:80:BF:2A:3E

            X509v3 Extended Key Usage: 
                TLS Web Client Authentication
            X509v3 Key Usage: 
                Digital Signature
    Signature Algorithm: sha256WithRSAEncryption
         1b:bb:86:e6:78:11:9e:13:8e:bb:ea:a4:33:b5:ac:49:90:b5:
         bf:40:3e:96:c2:91:6d:e9:26:01:24:9c:10:ae:ed:6d:78:99:
         c5:00:64:5f:49:10:e6:90:b6:4f:2b:a6:d0:a1:64:66:75:45:
         72:22:a3:bf:10:ea:a2:41:8a:e4:03:08:0c:f5:d3:b6:a8:27:
         70:04:c1:ca:8e:aa:1c:87:55:e0:bc:f3:e4:b1:09:02:e4:0b:
         3b:90:21:b4:fb:ea:25:df:57:84:34:a2:a6:f9:22:87:e4:32:
         64:72:fa:12:5a:67:6f:6c:f7:a6:93:46:0d:a2:57:85:80:87:
         92:b3:85:64:69:41:42:c1:5e:ff:6b:84:ee:83:1d:02:bc:3a:
         76:e8:ce:29:2c:8c:49:cb:4f:e4:d7:99:0c:04:bc:92:30:dc:
         03:8e:44:12:88:20:b9:0b:34:68:3c:4d:81:d0:8c:18:39:5d:
         0c:87:cd:9e:6e:ce:dc:b0:72:31:2f:ec:7a:25:f6:e6:b0:c4:
         7a:a9:d9:93:fe:6c:e0:14:6b:fe:53:b5:72:d2:17:db:7a:ca:
         3d:ad:8e:7a:b6:5f:88:ef:ee:8f:87:ac:47:50:79:fe:32:e2:
         ba:8e:e8:0e:2e:38:69:df:26:8e:c4:92:a9:a6:52:aa:b0:1d:
         d7:a2:d0:2b:0e:51:a6:96:d8:73:fb:de:58:9a:e7:c0:8e:b1:
         16:b2:85:8a:58:ae:dd:60:13:e9:32:58:1c:62:fe:bb:62:b4:
         7d:a4:ce:a6:54:bf:4d:4a:a3:de:25:b0:13:3f:5f:f4:5d:51:
         d2:e3:98:41:72:c1:d4:c1:de:4b:a6:9f:c4:bf:5e:ff:c8:88:
         82:aa:15:71:c1:fc:ee:1e:f6:02:8d:75:2f:6e:c6:90:42:9c:
         f5:87:42:90:fa:a5:d3:8f:f5:fe:64:83:86:eb:ce:f2:ec:af:
         a3:2a:0e:49:d8:b4:76:05:83:6c:c9:84:e5:b9:cd:63:8d:35:
         a6:32:9e:1b:91:9c:78:6f:05:5b:7e:25:a3:ea:f6:70:0e:c9:
         a1:8e:6b:75:a2:f3:14:60:b7:02:91:fb:bc:60:a5:71:cf:4e:
         01:0e:dc:9b:a2:ac:8f:0f:15:a8:f9:78:73:ca:8e:35:58:9a:
         b3:33:dd:38:0c:90:9a:96:92:af:27:a6:ad:9b:5d:b9:cc:b5:
         96:e0:d0:26:10:ff:a9:46:72:6e:a2:06:a2:63:49:3f:dd:6b:
         06:b9:6d:1d:70:fb:e4:b0:82:c0:d0:09:c1:01:ee:f5:c6:18:
         c3:a0:ec:a7:9d:df:62:a6:b6:c4:c0:51:99:c4:9c:98:48:41:
         90:7d:08:92:45:5b:29:ed
-----BEGIN CERTIFICATE-----
MIIGrTCCBJWgAwIBAgICJPcwDQYJKoZIhvcNAQELBQAwgawxCzAJBgNVBAYTAlVT
MQswCQYDVQQIEwJPSDERMA8GA1UEBxMIQ29sdW1idXMxEjAQBgNVBAoTCVZpa2lu
Z1ZQTjEdMBsGA1UECxMUTXlPcmdhbml6YXRpb25hbFVuaXQxFTATBgNVBAMTDFZp
a2luZ1ZQTiBDQTEQMA4GA1UEKRMHRWFzeVJTQTEhMB8GCSqGSIb3DQEJARYSbWVA
bXlob3N0Lm15ZG9tYWluMB4XDTE2MTExNjAyMzE1OFoXDTI2MTExNDAyMzE1OFow
HzEdMBsGA1UEAxMUQ2xpZW50MjU4OENlcnQ0MWIyNmIwggIiMA0GCSqGSIb3DQEB
AQUAA4ICDwAwggIKAoICAQDtjI3+3lnYPxh7IqjohqILxlnHGPJWGbBErM2J4y8z
7reGK8f93eVbYVzCC2/daaMsOeZ4rIqg7YZY1cF/k4wspWlEX+P862i3o/L1rD/p
E7D4v9n1xrxoWpvIDE3EC7zlo9R0AuP0OCDRWGVQPpbgGLtlHjaXTW58sRPeQvK6
wfjdtir4j2nqEvJURNVQDQvrGWvghtjvZo6Ss0bGZtQkLYk0eI2DxadjINBOarBF
RhW6S7xhzVOIIWx/lSClAjD5OUij5f52BEKmWxGPV+h+Xk4X1qfO2/enWRI8EYzt
2HHaRgceManoEKCWUVQPjZlXQAI1WaBiK0NrN+WhfMW3AIG8XAwns5UWyFVqWrfc
Cm0hIQ4ZKEKMyTyHHXTf25Ql0mhmPRp5DHjq8b+rE5GbA3T5yiFy19iP1eIXiY3Y
bf2cW4yBZjg6kglx7SSGgNu4moWt/cTPmCOrXEA2GNy/7Y2BKcJYf11zLtxXP7K5
HhuzC7rdTb0x+m7qptiDLs4DRWtNULtpX7djUxltjRvwS/KmD8cbxERNOPA5SnTe
tJthnVO5dRXTSHZYoKWNzWUCGfOA3EwCR9zmojcqHhYdXwBQ1Q6boeX5o2GQYp7x
UUIrorswQjYM+lWVtUEx/eq/E9mtEfmQi/2lrF1tFjqlkfqWvIPIUJWBoNawqYsl
1QIDAQABo4IBYzCCAV8wCQYDVR0TBAIwADAtBglghkgBhvhCAQ0EIBYeRWFzeS1S
U0EgR2VuZXJhdGVkIENlcnRpZmljYXRlMB0GA1UdDgQWBBScLb7Pjy6kYBjCkukt
KpddRtd4lDCB4QYDVR0jBIHZMIHWgBQSzWAE0qCAnnDtxpm4eyzGUv0ZoaGBsqSB
rzCBrDELMAkGA1UEBhMCVVMxCzAJBgNVBAgTAk9IMREwDwYDVQQHEwhDb2x1bWJ1
czESMBAGA1UEChMJVmlraW5nVlBOMR0wGwYDVQQLExRNeU9yZ2FuaXphdGlvbmFs
VW5pdDEVMBMGA1UEAxMMVmlraW5nVlBOIENBMRAwDgYDVQQpEwdFYXN5UlNBMSEw
HwYJKoZIhvcNAQkBFhJtZUBteWhvc3QubXlkb21haW6CCQDPNYXugL8qPjATBgNV
HSUEDDAKBggrBgEFBQcDAjALBgNVHQ8EBAMCB4AwDQYJKoZIhvcNAQELBQADggIB
ABu7huZ4EZ4TjrvqpDO1rEmQtb9APpbCkW3pJgEknBCu7W14mcUAZF9JEOaQtk8r
ptChZGZ1RXIio78Q6qJBiuQDCAz107aoJ3AEwcqOqhyHVeC88+SxCQLkCzuQIbT7
6iXfV4Q0oqb5IofkMmRy+hJaZ29s96aTRg2iV4WAh5KzhWRpQULBXv9rhO6DHQK8
OnboziksjEnLT+TXmQwEvJIw3AOORBKIILkLNGg8TYHQjBg5XQyHzZ5uztywcjEv
7Hol9uawxHqp2ZP+bOAUa/5TtXLSF9t6yj2tjnq2X4jv7o+HrEdQef4y4rqO6A4u
OGnfJo7EkqmmUqqwHdei0CsOUaaW2HP73lia58COsRayhYpYrt1gE+kyWBxi/rti
tH2kzqZUv01Ko94lsBM/X/RdUdLjmEFywdTB3kumn8S/Xv/IiIKqFXHB/O4e9gKN
dS9uxpBCnPWHQpD6pdOP9f5kg4brzvLsr6MqDknYtHYFg2zJhOW5zWONNaYynhuR
nHhvBVt+JaPq9nAOyaGOa3Wi8xRgtwKR+7xgpXHPTgEO3JuirI8PFaj5eHPKjjVY
mrMz3TgMkJqWkq8npq2bXbnMtZbg0CYQ/6lGcm6iBqJjST/dawa5bR1w++SwgsDQ
CcEB7vXGGMOg7Ked32KmtsTAUZnEnJhIQZB9CJJFWynt
-----END CERTIFICATE-----
