Certificate:
    Data:
        Version: 3 (0x2)
        Serial Number: 6331 (0x18bb)
    Signature Algorithm: md5WithRSAEncryption
        Issuer: C=US, ST=OH, L=Columbus, O=VikingVPN, OU=MyOrganizationalUnit, CN=VikingVPN CA/name=EasyRSA/emailAddress=me@myhost.mydomain
        Validity
            Not Before: Sep 21 15:05:31 2015 GMT
            Not After : Sep 18 15:05:31 2025 GMT
        Subject: CN=Client1968Cert85961e
        Subject Public Key Info:
            Public Key Algorithm: rsaEncryption
                Public-Key: (4096 bit)
                Modulus:
                    00:d5:6d:9a:ee:8c:e5:f5:b1:82:71:ff:9a:15:bf:
                    25:61:01:a1:49:10:cc:9a:fe:0b:37:f6:6c:c3:20:
                    d9:39:e9:b9:b1:ff:d2:24:42:a0:33:0a:36:a6:61:
                    23:2a:93:27:de:29:d3:07:49:77:8d:d3:1a:78:02:
                    6a:fd:f2:40:34:1a:56:59:ac:8c:a1:d2:e6:dc:8f:
                    8d:ed:17:7a:56:1f:85:1a:8d:dd:51:af:93:86:c3:
                    55:30:3a:38:1b:0a:02:59:35:01:98:29:5f:32:89:
                    76:d1:c2:d0:0c:17:a8:49:bd:75:87:a9:ba:4d:4a:
                    1c:d8:76:fd:c7:b4:1e:ba:d5:8f:9c:00:5b:96:5e:
                    2e:e7:df:98:4b:16:25:12:e3:b9:b9:9d:9a:a6:96:
                    1d:3e:cc:5b:8f:0b:c6:30:f4:3f:c8:66:a0:1f:48:
                    1c:79:57:6d:2a:80:1c:d3:a0:23:74:36:d2:47:1b:
                    af:ce:7c:ab:f2:60:a9:13:35:fa:97:8b:78:03:43:
                    ee:bd:7f:1b:c8:3f:f0:3d:a4:bf:6a:e3:d4:a1:2e:
                    5c:39:1e:7f:26:b7:3d:a1:d9:bb:b5:a6:1b:43:30:
                    54:91:d9:10:82:8d:eb:3d:fc:a5:fc:6c:8a:ce:be:
                    a6:ac:6b:37:ed:da:e7:1c:ca:6c:20:43:70:07:4c:
                    79:3a:da:a9:35:2c:55:df:ff:38:b7:e0:76:7a:a7:
                    5b:fd:76:a8:c7:12:24:85:38:e4:81:b0:1f:99:7d:
                    0c:1a:a6:08:06:46:49:3a:5b:8e:84:8e:5f:21:45:
                    fd:dd:87:96:62:8f:64:4c:3a:4b:0e:d6:1b:bd:be:
                    5c:18:35:4b:ab:b2:80:6c:73:4b:0a:f2:37:fb:5c:
                    46:42:aa:80:09:6d:e8:a4:52:28:27:84:1d:b8:ec:
                    c7:9c:30:95:1d:58:0d:b0:78:e6:ba:86:73:39:e3:
                    bb:67:b8:45:5c:b5:21:7d:7a:59:25:66:70:69:e9:
                    0d:54:b0:e1:87:18:ea:fb:70:d5:1b:8c:74:af:07:
                    f3:90:4f:87:67:cf:19:23:d7:3f:90:c9:bc:a7:aa:
                    96:75:1a:d2:41:e5:e0:45:03:51:b5:ec:a8:96:b3:
                    98:47:b0:ff:f5:32:2c:f3:cc:64:fa:b2:29:e2:90:
                    a1:dc:a9:57:5b:29:7d:62:31:be:c5:a5:7d:1d:b3:
                    5b:7e:ff:c1:47:f0:c2:55:ad:90:53:92:2f:e2:59:
                    77:9b:d1:fd:c8:de:dd:58:ec:3f:34:27:06:74:83:
                    5b:0d:44:20:a8:5d:45:05:62:ec:b2:b1:fe:52:3a:
                    26:1c:fa:58:49:4a:06:89:8d:33:7c:8b:bd:e2:9e:
                    46:4e:e5
                Exponent: 65537 (0x10001)
        X509v3 extensions:
            X509v3 Basic Constraints: 
                CA:FALSE
            Netscape Comment: 
                Easy-RSA Generated Certificate
            X509v3 Subject Key Identifier: 
                EC:CB:BC:4A:10:0B:B9:64:9D:59:7B:A5:21:E5:70:28:7B:C0:F5:A7
            X509v3 Authority Key Identifier: 
                keyid:12:CD:60:04:D2:A0:80:9E:70:ED:C6:99:B8:7B:2C:C6:52:FD:19:A1
                DirName:/C=US/ST=OH/L=Columbus/O=VikingVPN/OU=MyOrganizationalUnit/CN=VikingVPN CA/name=EasyRSA/emailAddress=me@myhost.mydomain
                serial:CF:35:85:EE:80:BF:2A:3E

            X509v3 Extended Key Usage: 
                TLS Web Client Authentication
            X509v3 Key Usage: 
                Digital Signature
    Signature Algorithm: md5WithRSAEncryption
         a0:30:eb:40:cc:d8:3f:87:ce:f4:d7:26:09:0a:cc:a9:ef:74:
         13:2a:af:02:8b:c8:39:1c:66:d9:b5:f8:c3:56:44:cf:2f:1b:
         92:9a:2a:4a:a5:f9:5a:42:90:ed:76:56:51:aa:04:ac:e3:64:
         97:0f:63:99:7c:b2:de:b2:37:1f:11:1a:09:ad:3a:27:1b:f2:
         a3:2f:78:22:cf:7c:26:c7:bc:8d:d1:0e:47:8a:85:b4:74:ad:
         49:40:2d:e5:07:a0:c8:c4:12:9a:1d:35:22:41:9e:d3:2a:13:
         ea:27:02:79:be:85:af:59:f3:03:ef:5a:88:76:32:9e:81:e5:
         65:1a:61:47:d2:b7:9d:7e:8e:89:dc:6f:a6:e7:a2:cd:a9:7b:
         59:16:f3:14:96:b3:9d:35:43:ae:4b:56:11:2c:58:fd:c8:69:
         77:43:b2:a7:56:17:ee:96:98:0d:4b:13:81:22:e8:68:8d:b6:
         07:e2:48:1d:53:03:2a:ef:eb:27:53:72:2b:80:01:14:a2:e8:
         0a:b0:9c:c1:2b:33:c4:89:60:bf:e7:cd:5c:34:8b:49:b2:a0:
         65:16:05:f9:3e:f9:59:fc:eb:a8:db:3d:72:cc:e1:50:69:c4:
         88:94:34:7c:43:d5:da:b2:ab:c9:bf:85:a4:c3:7d:09:36:89:
         5a:f1:76:ce:cc:38:92:58:5e:c6:b4:f2:a6:75:cf:2c:aa:ed:
         a7:f3:ee:45:82:1b:f9:f3:d6:08:4c:ed:93:9c:e3:e0:10:9b:
         36:74:fa:d3:ae:2a:e6:1d:6f:ce:03:cb:9d:9a:a6:d9:cc:1b:
         fb:53:c7:1a:d5:fb:1a:60:f2:8c:07:ed:0c:f9:30:26:0d:f1:
         17:c5:c1:04:f4:9d:82:62:b7:55:f1:ef:ca:37:8f:59:43:20:
         61:be:63:60:a9:02:ce:8d:d4:5f:9e:c2:1c:88:27:e1:2c:53:
         cb:97:c0:89:79:ad:73:63:82:dd:24:53:29:0b:c9:5d:cd:54:
         13:44:76:2a:e6:2a:c2:e8:e3:ff:ce:69:43:64:77:e1:8e:b0:
         cf:ed:90:fe:6f:3e:b2:aa:32:3f:aa:46:51:85:46:31:ed:33:
         49:ba:48:d9:08:7c:ae:cf:ce:65:60:6f:d5:3c:5f:30:31:60:
         86:37:2a:8a:05:a9:a4:89:0a:53:42:f2:ec:14:32:87:3d:dd:
         24:a5:bc:7d:7c:57:45:b3:68:ce:01:47:f7:22:45:21:37:75:
         e0:90:73:9b:7d:4a:aa:9d:e5:6c:ce:53:00:7d:da:b9:4d:66:
         dc:80:11:f4:01:f8:35:8e:29:6e:12:58:b5:6a:78:8a:a3:f9:
         66:4a:42:61:e2:92:b6:37
-----BEGIN CERTIFICATE-----
MIIGrTCCBJWgAwIBAgICGLswDQYJKoZIhvcNAQEEBQAwgawxCzAJBgNVBAYTAlVT
MQswCQYDVQQIEwJPSDERMA8GA1UEBxMIQ29sdW1idXMxEjAQBgNVBAoTCVZpa2lu
Z1ZQTjEdMBsGA1UECxMUTXlPcmdhbml6YXRpb25hbFVuaXQxFTATBgNVBAMTDFZp
a2luZ1ZQTiBDQTEQMA4GA1UEKRMHRWFzeVJTQTEhMB8GCSqGSIb3DQEJARYSbWVA
bXlob3N0Lm15ZG9tYWluMB4XDTE1MDkyMTE1MDUzMVoXDTI1MDkxODE1MDUzMVow
HzEdMBsGA1UEAxMUQ2xpZW50MTk2OENlcnQ4NTk2MWUwggIiMA0GCSqGSIb3DQEB
AQUAA4ICDwAwggIKAoICAQDVbZrujOX1sYJx/5oVvyVhAaFJEMya/gs39mzDINk5
6bmx/9IkQqAzCjamYSMqkyfeKdMHSXeN0xp4Amr98kA0GlZZrIyh0ubcj43tF3pW
H4Uajd1Rr5OGw1UwOjgbCgJZNQGYKV8yiXbRwtAMF6hJvXWHqbpNShzYdv3HtB66
1Y+cAFuWXi7n35hLFiUS47m5nZqmlh0+zFuPC8Yw9D/IZqAfSBx5V20qgBzToCN0
NtJHG6/OfKvyYKkTNfqXi3gDQ+69fxvIP/A9pL9q49ShLlw5Hn8mtz2h2bu1phtD
MFSR2RCCjes9/KX8bIrOvqasazft2uccymwgQ3AHTHk62qk1LFXf/zi34HZ6p1v9
dqjHEiSFOOSBsB+ZfQwapggGRkk6W46Ejl8hRf3dh5Zij2RMOksO1hu9vlwYNUur
soBsc0sK8jf7XEZCqoAJbeikUignhB247MecMJUdWA2weOa6hnM547tnuEVctSF9
elklZnBp6Q1UsOGHGOr7cNUbjHSvB/OQT4dnzxkj1z+QybynqpZ1GtJB5eBFA1G1
7KiWs5hHsP/1MizzzGT6sinikKHcqVdbKX1iMb7FpX0ds1t+/8FH8MJVrZBTki/i
WXeb0f3I3t1Y7D80JwZ0g1sNRCCoXUUFYuyysf5SOiYc+lhJSgaJjTN8i73inkZO
5QIDAQABo4IBYzCCAV8wCQYDVR0TBAIwADAtBglghkgBhvhCAQ0EIBYeRWFzeS1S
U0EgR2VuZXJhdGVkIENlcnRpZmljYXRlMB0GA1UdDgQWBBTsy7xKEAu5ZJ1Ze6Uh
5XAoe8D1pzCB4QYDVR0jBIHZMIHWgBQSzWAE0qCAnnDtxpm4eyzGUv0ZoaGBsqSB
rzCBrDELMAkGA1UEBhMCVVMxCzAJBgNVBAgTAk9IMREwDwYDVQQHEwhDb2x1bWJ1
czESMBAGA1UEChMJVmlraW5nVlBOMR0wGwYDVQQLExRNeU9yZ2FuaXphdGlvbmFs
VW5pdDEVMBMGA1UEAxMMVmlraW5nVlBOIENBMRAwDgYDVQQpEwdFYXN5UlNBMSEw
HwYJKoZIhvcNAQkBFhJtZUBteWhvc3QubXlkb21haW6CCQDPNYXugL8qPjATBgNV
HSUEDDAKBggrBgEFBQcDAjALBgNVHQ8EBAMCB4AwDQYJKoZIhvcNAQEEBQADggIB
AKAw60DM2D+HzvTXJgkKzKnvdBMqrwKLyDkcZtm1+MNWRM8vG5KaKkql+VpCkO12
VlGqBKzjZJcPY5l8st6yNx8RGgmtOicb8qMveCLPfCbHvI3RDkeKhbR0rUlALeUH
oMjEEpodNSJBntMqE+onAnm+ha9Z8wPvWoh2Mp6B5WUaYUfSt51+joncb6bnos2p
e1kW8xSWs501Q65LVhEsWP3IaXdDsqdWF+6WmA1LE4Ei6GiNtgfiSB1TAyrv6ydT
ciuAARSi6AqwnMErM8SJYL/nzVw0i0myoGUWBfk++Vn866jbPXLM4VBpxIiUNHxD
1dqyq8m/haTDfQk2iVrxds7MOJJYXsa08qZ1zyyq7afz7kWCG/nz1ghM7ZOc4+AQ
mzZ0+tOuKuYdb84Dy52aptnMG/tTxxrV+xpg8owH7Qz5MCYN8RfFwQT0nYJit1Xx
78o3j1lDIGG+Y2CpAs6N1F+ewhyIJ+EsU8uXwIl5rXNjgt0kUykLyV3NVBNEdirm
KsLo4//OaUNkd+GOsM/tkP5vPrKqMj+qRlGFRjHtM0m6SNkIfK7PzmVgb9U8XzAx
YIY3KooFqaSJClNC8uwUMoc93SSlvH18V0WzaM4BR/ciRSE3deCQc5t9Sqqd5WzO
UwB92rlNZtyAEfQB+DWOKW4SWLVqeIqj+WZKQmHikrY3
-----END CERTIFICATE-----
