Certificate:
    Data:
        Version: 3 (0x2)
        Serial Number: 11868 (0x2e5c)
    Signature Algorithm: sha256WithRSAEncryption
        Issuer: C=US, ST=OH, L=Columbus, O=VikingVPN, OU=MyOrganizationalUnit, CN=VikingVPN CA/name=EasyRSA/emailAddress=me@myhost.mydomain
        Validity
            Not Before: Sep 19 14:28:26 2017 GMT
            Not After : Sep 17 14:28:26 2027 GMT
        Subject: CN=Client2759Cert98c3ec
        Subject Public Key Info:
            Public Key Algorithm: rsaEncryption
                Public-Key: (4096 bit)
                Modulus:
                    00:f4:d7:f4:42:07:1c:a1:73:3f:d7:0a:9e:0e:da:
                    1e:7d:51:1c:65:f6:ee:a9:53:4a:ff:24:7a:73:9d:
                    7e:9c:e9:c0:15:97:98:f0:a0:11:72:6d:c2:13:93:
                    c3:df:03:5e:45:d5:73:46:3c:90:b5:44:78:a3:15:
                    ec:4c:6b:6a:db:bd:fa:cf:29:7b:2d:23:b5:25:fc:
                    f5:7e:ef:6b:7e:94:3f:dc:13:b1:63:0e:e0:28:f0:
                    a7:be:14:2c:55:83:e0:8d:d8:e5:7b:37:4b:61:7c:
                    e8:bc:d7:32:94:05:8c:6f:de:87:31:90:46:b5:01:
                    26:f6:0a:d1:c8:c1:f2:8e:61:0b:83:dd:bc:dd:75:
                    c1:08:d9:8b:57:6d:b2:54:75:f7:d3:cb:ef:7f:81:
                    0a:1c:3f:a0:81:07:65:e4:4c:0e:68:5d:84:a8:d9:
                    5d:b0:04:7b:80:28:57:8d:2a:d7:54:e0:dd:c2:a3:
                    e2:e5:d3:6f:5e:08:33:8f:67:8c:a1:f9:9f:0d:3e:
                    d2:2b:03:9c:a9:08:6d:75:fe:ab:af:7c:d2:b4:9a:
                    41:97:a6:d6:92:ce:a1:c7:23:78:50:79:e6:8a:85:
                    53:ff:37:9b:38:85:76:58:3b:6d:f5:20:2b:36:0e:
                    69:51:47:7c:b3:40:75:3a:81:d3:28:25:c7:66:88:
                    43:7a:90:43:c4:b4:5e:15:91:7f:98:66:15:f9:6a:
                    83:c5:b7:fd:86:40:19:01:6a:11:fa:c2:7f:9b:e9:
                    71:83:30:76:6e:39:f5:08:71:5d:fc:73:54:99:d6:
                    e0:39:e3:0f:96:2a:27:15:c0:41:c3:28:81:7b:71:
                    b7:96:df:73:d5:39:76:61:50:b7:af:ca:81:b5:4b:
                    5d:29:16:40:ef:d4:bf:49:a2:42:a7:bd:7e:8c:cf:
                    47:3e:85:77:54:9c:f2:91:2f:f4:aa:43:51:c4:93:
                    47:19:e1:d0:a3:8c:fd:fc:ff:78:6b:0d:54:fd:b2:
                    e9:33:b7:e5:b8:da:80:96:e7:d2:af:26:5d:e2:2b:
                    1e:d2:eb:57:84:cc:97:84:6a:a8:ba:09:82:44:4c:
                    17:39:df:7a:ee:51:c9:c4:8e:74:e4:f4:5d:29:0b:
                    cc:71:e1:15:08:2f:08:68:87:b6:2b:de:31:69:e7:
                    fb:10:06:95:b7:c1:fc:7f:79:33:f4:65:64:29:af:
                    07:b8:4e:49:2e:eb:ba:72:87:ad:f7:7e:82:03:e3:
                    18:85:76:9b:f3:cd:8c:25:ba:ce:12:24:6f:8e:4f:
                    99:5f:d9:6b:af:13:f0:9b:79:8d:86:6b:05:83:1f:
                    32:3e:14:9e:6f:aa:3b:a6:71:c2:82:69:1b:fb:57:
                    2b:7d:91
                Exponent: 65537 (0x10001)
        X509v3 extensions:
            X509v3 Basic Constraints: 
                CA:FALSE
            Netscape Comment: 
                Easy-RSA Generated Certificate
            X509v3 Subject Key Identifier: 
                46:16:15:AB:32:59:F4:01:0B:20:F6:57:68:96:8B:DB:B2:C2:F0:BF
            X509v3 Authority Key Identifier: 
                keyid:12:CD:60:04:D2:A0:80:9E:70:ED:C6:99:B8:7B:2C:C6:52:FD:19:A1
                DirName:/C=US/ST=OH/L=Columbus/O=VikingVPN/OU=MyOrganizationalUnit/CN=VikingVPN CA/name=EasyRSA/emailAddress=me@myhost.mydomain
                serial:CF:35:85:EE:80:BF:2A:3E

            X509v3 Extended Key Usage: 
                TLS Web Client Authentication
            X509v3 Key Usage: 
                Digital Signature
    Signature Algorithm: sha256WithRSAEncryption
         b0:fd:93:e2:de:24:df:8f:ab:f1:e4:c4:ac:bb:2b:0a:d9:cc:
         f8:3f:da:77:17:d9:51:87:fb:45:94:45:20:27:0e:b7:8d:61:
         e5:90:43:2c:0d:df:ae:9c:3b:36:12:de:53:7e:40:11:ca:4b:
         92:fd:54:a9:62:aa:14:ea:39:f2:49:62:4a:2b:1b:3a:ca:6c:
         cd:2e:3d:f1:82:2b:40:22:95:8a:1c:4b:ab:ae:e9:91:d1:b9:
         88:ca:4b:7e:c2:8b:39:30:67:55:92:e4:f8:de:dd:ca:9e:ce:
         a6:33:9c:7f:be:ad:ab:19:e9:0e:33:c3:39:6a:25:ae:a9:5e:
         46:0c:41:05:96:38:68:8d:53:cc:58:5a:7f:cb:d0:9c:e9:71:
         2f:ae:92:26:4e:66:9d:d6:53:06:70:fd:90:dc:10:05:aa:93:
         a0:6e:e0:51:18:6d:45:b0:2a:41:92:1d:5c:9b:d5:90:3b:9c:
         a5:66:22:bb:97:41:51:0e:38:ad:a4:52:71:9b:eb:1f:45:99:
         cc:1b:4d:66:bf:24:ff:df:a3:61:f9:d5:e4:9a:98:03:89:92:
         af:09:72:ad:a2:59:5c:ad:1c:02:8f:e2:6f:e8:91:65:36:ec:
         4e:fb:0a:36:e8:28:f5:3b:95:89:0a:45:1e:2f:88:1e:50:42:
         fb:3d:91:1d:01:7f:aa:19:f4:cb:39:01:01:88:3c:f6:11:e5:
         69:24:28:4b:fd:be:bd:27:14:5d:1f:d0:a7:dc:8c:89:ea:ef:
         6e:19:a1:a9:36:ef:1f:2e:09:51:70:8d:dc:3a:73:2b:bf:24:
         f3:d7:a9:43:09:99:c5:9b:42:fb:40:f1:3e:2e:f9:d3:89:f7:
         82:51:68:75:bf:2f:5a:05:f7:32:44:e9:dd:8d:49:ad:7d:49:
         26:c8:98:9d:4f:a0:1f:b5:91:c5:51:12:33:21:00:ad:db:a1:
         54:00:9b:c6:fc:d0:7f:0a:d0:88:c8:fb:29:7d:aa:83:8f:34:
         13:f2:8d:ee:0c:07:5b:47:0d:14:34:72:2c:98:7a:13:a0:79:
         08:2c:79:1d:12:b4:ed:ee:37:83:b1:d8:bd:07:ac:97:54:80:
         78:82:c8:fe:25:8f:a0:64:eb:8a:97:44:99:d9:1b:87:e1:0a:
         02:53:df:0b:f2:64:80:04:f3:a8:a9:ba:c2:ee:f2:67:ed:26:
         60:6f:77:cb:1d:d8:a6:c9:61:61:5d:90:59:dd:dc:db:67:29:
         bf:f9:a7:78:c8:f5:6b:f5:bd:1c:e3:01:11:c9:1d:3b:74:81:
         90:b3:fe:72:d9:b6:4b:4a:f5:b2:74:e2:d0:7d:e7:87:a0:5c:
         ce:fb:b4:99:e9:92:a0:0d
-----BEGIN CERTIFICATE-----
MIIGrTCCBJWgAwIBAgICLlwwDQYJKoZIhvcNAQELBQAwgawxCzAJBgNVBAYTAlVT
MQswCQYDVQQIEwJPSDERMA8GA1UEBxMIQ29sdW1idXMxEjAQBgNVBAoTCVZpa2lu
Z1ZQTjEdMBsGA1UECxMUTXlPcmdhbml6YXRpb25hbFVuaXQxFTATBgNVBAMTDFZp
a2luZ1ZQTiBDQTEQMA4GA1UEKRMHRWFzeVJTQTEhMB8GCSqGSIb3DQEJARYSbWVA
bXlob3N0Lm15ZG9tYWluMB4XDTE3MDkxOTE0MjgyNloXDTI3MDkxNzE0MjgyNlow
HzEdMBsGA1UEAxMUQ2xpZW50Mjc1OUNlcnQ5OGMzZWMwggIiMA0GCSqGSIb3DQEB
AQUAA4ICDwAwggIKAoICAQD01/RCBxyhcz/XCp4O2h59URxl9u6pU0r/JHpznX6c
6cAVl5jwoBFybcITk8PfA15F1XNGPJC1RHijFexMa2rbvfrPKXstI7Ul/PV+72t+
lD/cE7FjDuAo8Ke+FCxVg+CN2OV7N0thfOi81zKUBYxv3ocxkEa1ASb2CtHIwfKO
YQuD3bzddcEI2YtXbbJUdffTy+9/gQocP6CBB2XkTA5oXYSo2V2wBHuAKFeNKtdU
4N3Co+Ll029eCDOPZ4yh+Z8NPtIrA5ypCG11/quvfNK0mkGXptaSzqHHI3hQeeaK
hVP/N5s4hXZYO231ICs2DmlRR3yzQHU6gdMoJcdmiEN6kEPEtF4VkX+YZhX5aoPF
t/2GQBkBahH6wn+b6XGDMHZuOfUIcV38c1SZ1uA54w+WKicVwEHDKIF7cbeW33PV
OXZhULevyoG1S10pFkDv1L9JokKnvX6Mz0c+hXdUnPKRL/SqQ1HEk0cZ4dCjjP38
/3hrDVT9sukzt+W42oCW59KvJl3iKx7S61eEzJeEaqi6CYJETBc533ruUcnEjnTk
9F0pC8xx4RUILwhoh7Yr3jFp5/sQBpW3wfx/eTP0ZWQprwe4Tkku67pyh633foID
4xiFdpvzzYwlus4SJG+OT5lf2WuvE/CbeY2GawWDHzI+FJ5vqjumccKCaRv7Vyt9
kQIDAQABo4IBYzCCAV8wCQYDVR0TBAIwADAtBglghkgBhvhCAQ0EIBYeRWFzeS1S
U0EgR2VuZXJhdGVkIENlcnRpZmljYXRlMB0GA1UdDgQWBBRGFhWrMln0AQsg9ldo
lovbssLwvzCB4QYDVR0jBIHZMIHWgBQSzWAE0qCAnnDtxpm4eyzGUv0ZoaGBsqSB
rzCBrDELMAkGA1UEBhMCVVMxCzAJBgNVBAgTAk9IMREwDwYDVQQHEwhDb2x1bWJ1
czESMBAGA1UEChMJVmlraW5nVlBOMR0wGwYDVQQLExRNeU9yZ2FuaXphdGlvbmFs
VW5pdDEVMBMGA1UEAxMMVmlraW5nVlBOIENBMRAwDgYDVQQpEwdFYXN5UlNBMSEw
HwYJKoZIhvcNAQkBFhJtZUBteWhvc3QubXlkb21haW6CCQDPNYXugL8qPjATBgNV
HSUEDDAKBggrBgEFBQcDAjALBgNVHQ8EBAMCB4AwDQYJKoZIhvcNAQELBQADggIB
ALD9k+LeJN+Pq/HkxKy7KwrZzPg/2ncX2VGH+0WURSAnDreNYeWQQywN366cOzYS
3lN+QBHKS5L9VKliqhTqOfJJYkorGzrKbM0uPfGCK0AilYocS6uu6ZHRuYjKS37C
izkwZ1WS5Pje3cqezqYznH++rasZ6Q4zwzlqJa6pXkYMQQWWOGiNU8xYWn/L0Jzp
cS+ukiZOZp3WUwZw/ZDcEAWqk6Bu4FEYbUWwKkGSHVyb1ZA7nKVmIruXQVEOOK2k
UnGb6x9FmcwbTWa/JP/fo2H51eSamAOJkq8Jcq2iWVytHAKP4m/okWU27E77Cjbo
KPU7lYkKRR4viB5QQvs9kR0Bf6oZ9Ms5AQGIPPYR5WkkKEv9vr0nFF0f0KfcjInq
724Zoak27x8uCVFwjdw6cyu/JPPXqUMJmcWbQvtA8T4u+dOJ94JRaHW/L1oF9zJE
6d2NSa19SSbImJ1PoB+1kcVREjMhAK3boVQAm8b80H8K0IjI+yl9qoOPNBPyje4M
B1tHDRQ0ciyYehOgeQgseR0StO3uN4Ox2L0HrJdUgHiCyP4lj6Bk64qXRJnZG4fh
CgJT3wvyZIAE86ipusLu8mftJmBvd8sd2KbJYWFdkFnd3NtnKb/5p3jI9Wv1vRzj
ARHJHTt0gZCz/nLZtktK9bJ04tB954egXM77tJnpkqAN
-----END CERTIFICATE-----
