Certificate:
    Data:
        Version: 3 (0x2)
        Serial Number: 38 (0x26)
    Signature Algorithm: md5WithRSAEncryption
        Issuer: C=US, ST=OH, L=Columbus, O=VikingVPN, OU=MyOrganizationalUnit, CN=VikingVPN CA/name=EasyRSA/emailAddress=me@myhost.mydomain
        Validity
            Not Before: Jul 31 03:05:17 2013 GMT
            Not After : Jul 29 03:05:17 2023 GMT
        Subject: CN=Client22Cert165fd2
        Subject Public Key Info:
            Public Key Algorithm: rsaEncryption
                Public-Key: (4096 bit)
                Modulus:
                    00:b5:26:c9:db:9d:82:86:45:ef:03:13:56:dc:4f:
                    73:ca:3c:11:4f:7d:42:cf:c7:38:e6:12:9f:fd:b4:
                    da:22:97:4b:f3:40:88:60:68:d7:92:c7:b5:0f:2e:
                    d7:7a:da:b3:cd:c6:d4:47:78:0c:e4:44:81:ae:8e:
                    30:99:13:db:52:72:95:86:97:6f:1a:7f:4d:e8:9b:
                    a6:ae:1b:4a:f6:7f:05:b7:69:7f:3c:54:5a:f6:cb:
                    43:a2:57:37:2f:1d:af:e0:8c:5b:63:22:fa:8f:97:
                    cb:17:09:9f:f4:ff:67:37:11:5d:ad:71:4d:49:b3:
                    83:2d:9f:a2:54:c3:cf:ed:9a:06:89:ca:30:06:c0:
                    0e:60:06:b2:c6:2a:63:91:db:84:73:a7:b1:12:65:
                    6a:53:ba:05:37:e8:81:a6:18:3a:1e:c6:ed:f5:53:
                    e6:87:e1:7f:18:52:77:c9:3a:72:4e:34:54:bd:26:
                    e1:09:98:21:a4:8e:62:cf:48:36:74:f6:3d:05:3d:
                    5d:8b:98:ef:db:22:f5:fb:da:a1:46:4f:5d:23:8a:
                    37:95:15:e7:df:ef:46:93:fc:23:a1:b1:77:5b:2b:
                    a8:16:cd:49:3d:d9:3a:93:09:b2:ab:80:5d:14:8c:
                    ef:b9:2f:bd:ba:6a:31:c9:1b:f7:26:91:55:7d:e8:
                    ce:7e:0c:9c:5f:de:ae:50:a3:af:a2:ea:77:21:a3:
                    b5:26:aa:d0:0b:81:be:f7:bd:57:3d:da:c6:c5:0a:
                    12:a8:1f:24:7c:81:49:ce:87:9a:45:38:6c:d3:3d:
                    6b:51:b6:b5:d9:d1:32:f8:4f:7e:bd:bb:0e:23:4e:
                    4f:81:9c:79:4c:3b:c0:61:7e:a8:0a:32:ec:1d:4e:
                    63:ea:b4:63:09:79:b0:9c:47:78:f9:e0:74:69:f7:
                    b5:e6:9e:55:b7:c6:7a:6c:14:f5:dd:a5:8d:be:38:
                    e9:b2:d2:82:54:b4:37:7d:ab:d9:8a:42:23:da:f1:
                    6c:11:39:33:82:4f:20:b8:34:71:15:7a:85:8e:d3:
                    65:7a:6b:b6:69:07:9b:94:33:ea:a2:e5:9c:87:f5:
                    2a:1c:0a:76:70:17:71:d0:bc:43:24:2f:0d:09:dd:
                    a7:27:ea:0e:25:86:50:1d:11:8f:c5:4f:5c:e0:42:
                    4a:01:a7:b1:ce:08:c2:86:5b:ab:41:e8:99:d1:18:
                    27:4b:28:77:f3:6b:b3:e5:a2:40:cc:cc:5d:1c:4f:
                    2c:23:cc:c8:20:74:18:be:e3:fb:1c:b9:dd:62:99:
                    1a:63:16:de:4c:57:29:06:f3:cc:a4:34:cb:b5:f7:
                    4e:3c:42:c8:17:bc:6a:49:a9:ca:4a:fe:24:00:7f:
                    7e:96:5d
                Exponent: 65537 (0x10001)
        X509v3 extensions:
            X509v3 Basic Constraints: 
                CA:FALSE
            Netscape Comment: 
                Easy-RSA Generated Certificate
            X509v3 Subject Key Identifier: 
                DD:6D:5E:CC:23:20:76:8B:D1:A5:6A:08:A7:0D:DD:13:EA:44:E6:E0
            X509v3 Authority Key Identifier: 
                keyid:12:CD:60:04:D2:A0:80:9E:70:ED:C6:99:B8:7B:2C:C6:52:FD:19:A1
                DirName:/C=US/ST=OH/L=Columbus/O=VikingVPN/OU=MyOrganizationalUnit/CN=VikingVPN CA/name=EasyRSA/emailAddress=me@myhost.mydomain
                serial:CF:35:85:EE:80:BF:2A:3E

            X509v3 Extended Key Usage: 
                TLS Web Client Authentication
            X509v3 Key Usage: 
                Digital Signature
    Signature Algorithm: md5WithRSAEncryption
         92:43:84:9f:48:1c:89:a9:e5:04:aa:d1:be:1b:e7:e5:18:bb:
         e3:7e:4b:5f:be:67:a2:ee:f5:3e:13:67:fb:98:15:3e:35:16:
         bb:9d:17:a9:c3:de:61:70:ef:cb:c4:9d:4a:22:57:a8:48:d5:
         ca:16:e0:34:49:aa:3d:ee:f1:c0:44:7d:a7:62:c1:82:d4:43:
         db:83:39:8b:04:0f:1a:57:53:2a:cd:dd:f8:7e:74:55:9f:96:
         09:66:ad:33:2c:1e:dd:6d:01:49:6b:82:5e:ef:57:9d:e8:ad:
         14:dd:f9:df:89:86:5d:ba:32:fd:1b:e0:ff:26:7d:fa:93:b5:
         4b:2e:02:fa:c3:1a:15:9f:d8:5a:12:08:66:80:07:74:ee:27:
         bb:9c:77:0b:43:a9:0c:74:f5:42:9c:cf:bd:e0:77:26:b7:6a:
         dc:63:78:73:2d:1c:10:1d:90:5b:27:bb:31:94:34:be:f7:39:
         38:f1:80:d0:c0:13:d8:34:18:bf:57:1d:ae:cd:2c:d4:e5:d6:
         3d:53:55:cf:2a:27:1a:43:38:f6:03:fa:d4:84:78:e8:05:60:
         66:9c:80:15:50:f3:eb:50:c7:0e:80:2b:54:e9:39:3f:ac:32:
         80:45:91:33:38:fc:2e:5a:f6:fb:5e:1c:9c:43:42:77:b4:f3:
         b8:64:4c:b7:ec:3f:35:07:0e:9c:fe:3f:0a:ac:e8:e5:16:e3:
         2f:68:a0:e1:c8:5b:50:23:b2:7d:7b:17:b4:aa:5b:89:08:b5:
         32:14:f8:2a:2b:f1:3b:6f:bf:aa:ad:4c:db:9d:36:8f:04:a6:
         eb:06:15:d7:d1:15:4a:31:c5:3b:f7:15:0b:33:2b:b6:ea:c8:
         9a:a6:37:94:8d:f6:8c:80:74:4d:fc:6e:41:19:df:ed:bc:89:
         bf:a6:6c:20:8b:d0:db:dc:ad:be:e5:fd:77:79:4b:17:c9:69:
         71:b5:05:d1:00:5e:34:c6:ce:84:46:63:46:4b:01:c4:a0:68:
         24:4f:cf:8b:05:15:ca:ee:fd:3e:15:b2:27:5c:8c:64:46:dc:
         9a:ac:c7:ca:0f:55:bb:d8:1a:0d:29:2d:78:75:1f:c1:51:03:
         de:fa:8b:85:31:dc:db:d8:f8:0b:2a:03:0b:4e:91:10:56:52:
         e8:47:1a:f0:03:c2:f6:80:c8:b0:4e:66:5f:76:d6:54:fc:10:
         d8:c6:58:e1:96:6d:b5:e8:0c:23:83:a6:0b:80:1a:ab:b7:d8:
         bf:5e:7b:8f:f5:3f:94:d7:80:b9:5f:d0:09:b6:5b:2b:2b:6a:
         63:cd:7a:dc:a6:ed:e0:78:91:03:90:d6:9b:b4:cd:a4:c1:17:
         fa:be:45:98:d2:40:2f:13
-----BEGIN CERTIFICATE-----
MIIGqjCCBJKgAwIBAgIBJjANBgkqhkiG9w0BAQQFADCBrDELMAkGA1UEBhMCVVMx
CzAJBgNVBAgTAk9IMREwDwYDVQQHEwhDb2x1bWJ1czESMBAGA1UEChMJVmlraW5n
VlBOMR0wGwYDVQQLExRNeU9yZ2FuaXphdGlvbmFsVW5pdDEVMBMGA1UEAxMMVmlr
aW5nVlBOIENBMRAwDgYDVQQpEwdFYXN5UlNBMSEwHwYJKoZIhvcNAQkBFhJtZUBt
eWhvc3QubXlkb21haW4wHhcNMTMwNzMxMDMwNTE3WhcNMjMwNzI5MDMwNTE3WjAd
MRswGQYDVQQDExJDbGllbnQyMkNlcnQxNjVmZDIwggIiMA0GCSqGSIb3DQEBAQUA
A4ICDwAwggIKAoICAQC1JsnbnYKGRe8DE1bcT3PKPBFPfULPxzjmEp/9tNoil0vz
QIhgaNeSx7UPLtd62rPNxtRHeAzkRIGujjCZE9tScpWGl28af03om6auG0r2fwW3
aX88VFr2y0OiVzcvHa/gjFtjIvqPl8sXCZ/0/2c3EV2tcU1Js4Mtn6JUw8/tmgaJ
yjAGwA5gBrLGKmOR24Rzp7ESZWpTugU36IGmGDoexu31U+aH4X8YUnfJOnJONFS9
JuEJmCGkjmLPSDZ09j0FPV2LmO/bIvX72qFGT10jijeVFeff70aT/COhsXdbK6gW
zUk92TqTCbKrgF0UjO+5L726ajHJG/cmkVV96M5+DJxf3q5Qo6+i6ncho7UmqtAL
gb73vVc92sbFChKoHyR8gUnOh5pFOGzTPWtRtrXZ0TL4T369uw4jTk+BnHlMO8Bh
fqgKMuwdTmPqtGMJebCcR3j54HRp97XmnlW3xnpsFPXdpY2+OOmy0oJUtDd9q9mK
QiPa8WwROTOCTyC4NHEVeoWO02V6a7ZpB5uUM+qi5ZyH9SocCnZwF3HQvEMkLw0J
3acn6g4lhlAdEY/FT1zgQkoBp7HOCMKGW6tB6JnRGCdLKHfza7PlokDMzF0cTywj
zMggdBi+4/scud1imRpjFt5MVykG88ykNMu19048QsgXvGpJqcpK/iQAf36WXQID
AQABo4IBYzCCAV8wCQYDVR0TBAIwADAtBglghkgBhvhCAQ0EIBYeRWFzeS1SU0Eg
R2VuZXJhdGVkIENlcnRpZmljYXRlMB0GA1UdDgQWBBTdbV7MIyB2i9GlaginDd0T
6kTm4DCB4QYDVR0jBIHZMIHWgBQSzWAE0qCAnnDtxpm4eyzGUv0ZoaGBsqSBrzCB
rDELMAkGA1UEBhMCVVMxCzAJBgNVBAgTAk9IMREwDwYDVQQHEwhDb2x1bWJ1czES
MBAGA1UEChMJVmlraW5nVlBOMR0wGwYDVQQLExRNeU9yZ2FuaXphdGlvbmFsVW5p
dDEVMBMGA1UEAxMMVmlraW5nVlBOIENBMRAwDgYDVQQpEwdFYXN5UlNBMSEwHwYJ
KoZIhvcNAQkBFhJtZUBteWhvc3QubXlkb21haW6CCQDPNYXugL8qPjATBgNVHSUE
DDAKBggrBgEFBQcDAjALBgNVHQ8EBAMCB4AwDQYJKoZIhvcNAQEEBQADggIBAJJD
hJ9IHImp5QSq0b4b5+UYu+N+S1++Z6Lu9T4TZ/uYFT41FrudF6nD3mFw78vEnUoi
V6hI1coW4DRJqj3u8cBEfadiwYLUQ9uDOYsEDxpXUyrN3fh+dFWflglmrTMsHt1t
AUlrgl7vV53orRTd+d+Jhl26Mv0b4P8mffqTtUsuAvrDGhWf2FoSCGaAB3TuJ7uc
dwtDqQx09UKcz73gdya3atxjeHMtHBAdkFsnuzGUNL73OTjxgNDAE9g0GL9XHa7N
LNTl1j1TVc8qJxpDOPYD+tSEeOgFYGacgBVQ8+tQxw6AK1TpOT+sMoBFkTM4/C5a
9vteHJxDQne087hkTLfsPzUHDpz+Pwqs6OUW4y9ooOHIW1Ajsn17F7SqW4kItTIU
+Cor8Ttvv6qtTNudNo8EpusGFdfRFUoxxTv3FQszK7bqyJqmN5SN9oyAdE38bkEZ
3+28ib+mbCCL0Nvcrb7l/Xd5SxfJaXG1BdEAXjTGzoRGY0ZLAcSgaCRPz4sFFcru
/T4VsidcjGRG3Jqsx8oPVbvYGg0pLXh1H8FRA976i4Ux3NvY+AsqAwtOkRBWUuhH
GvADwvaAyLBOZl921lT8ENjGWOGWbbXoDCODpguAGqu32L9ee4/1P5TXgLlf0Am2
WysramPNetym7eB4kQOQ1pu0zaTBF/q+RZjSQC8T
-----END CERTIFICATE-----
