Certificate:
    Data:
        Version: 3 (0x2)
        Serial Number: 742 (0x2e6)
    Signature Algorithm: md5WithRSAEncryption
        Issuer: C=US, ST=OH, L=Columbus, O=VikingVPN, OU=MyOrganizationalUnit, CN=VikingVPN CA/name=EasyRSA/emailAddress=me@myhost.mydomain
        Validity
            Not Before: Jan 11 19:59:35 2014 GMT
            Not After : Jan  9 19:59:35 2024 GMT
        Subject: CN=Client294Certda8d10
        Subject Public Key Info:
            Public Key Algorithm: rsaEncryption
                Public-Key: (4096 bit)
                Modulus:
                    00:b2:81:5a:58:bd:00:f5:11:b6:ee:7f:9e:d9:17:
                    b5:6e:83:93:f5:f1:f4:cf:c9:c7:d0:a2:1c:73:a6:
                    cd:36:32:c6:a2:ad:1b:a3:10:fe:3e:15:31:20:c1:
                    6e:57:15:e6:f8:a5:a8:c8:ef:22:18:bd:09:f6:2c:
                    77:37:28:75:e9:25:93:2b:63:3f:0d:7c:0d:bf:bc:
                    eb:14:19:b1:c9:fc:5c:7e:c9:1f:c0:6c:5d:bd:04:
                    d0:08:f6:69:5a:86:a5:ad:0e:8a:3b:19:a2:ca:95:
                    da:91:b5:19:e1:34:55:8d:d2:9e:41:6d:d4:44:2f:
                    f2:02:fd:e6:06:ba:74:33:06:79:0a:ab:c0:2f:8e:
                    e2:cd:29:68:a6:f0:74:cb:4e:3b:4c:c4:ac:f9:c9:
                    d8:18:63:b2:5d:8d:e3:4f:24:e2:5d:22:0b:ba:5f:
                    7a:21:d2:88:48:3a:ad:ae:56:18:4f:88:d9:42:a7:
                    df:20:40:7b:aa:50:74:32:cd:08:0a:01:56:6f:02:
                    fe:02:fd:53:be:fd:bb:8e:64:df:e5:ec:e0:9e:f9:
                    fc:95:b8:35:d7:57:d1:25:a5:46:5b:84:68:d1:62:
                    32:45:6b:88:3a:4d:d2:2a:b7:22:90:70:ff:84:51:
                    f8:4d:e0:2b:ff:83:f6:e1:65:90:72:a2:8a:39:95:
                    8d:64:29:7d:21:a6:d4:26:25:26:5a:25:b8:51:8e:
                    7c:82:49:2d:30:19:a2:86:24:84:91:37:7b:14:ff:
                    ef:7a:c9:fc:4f:19:00:a1:b0:36:ed:10:7e:f9:bc:
                    3a:29:d2:22:ca:71:57:62:b1:93:d5:79:15:eb:08:
                    7e:81:83:87:3d:78:16:16:6d:94:9c:e0:84:09:8d:
                    ea:0f:40:ba:3f:ab:fd:04:eb:8c:fb:10:68:99:b0:
                    7b:e8:49:9d:b9:18:cd:a0:05:26:27:74:6f:24:f0:
                    a5:36:64:2e:92:a8:db:44:06:14:c2:98:89:26:f4:
                    c9:ff:03:56:5e:94:da:11:db:82:e8:76:83:5f:c5:
                    b0:c4:65:59:72:59:f8:d2:ad:5d:74:8e:9b:f0:f5:
                    21:9b:99:0b:54:38:bd:80:82:d2:e8:4d:d7:0f:66:
                    d5:b4:74:d9:74:c0:b5:11:02:75:2b:08:46:e2:d0:
                    63:81:7a:9b:77:b2:7a:69:56:ae:97:31:71:80:1a:
                    14:6d:d9:bc:90:28:8f:7e:2a:e8:52:c6:37:11:6c:
                    90:33:48:1c:b4:a8:a0:11:32:fe:a1:7b:a3:e8:83:
                    e1:63:72:14:4a:cd:8e:9e:56:3f:11:ad:b4:2a:b6:
                    06:2c:8f:5b:28:2f:bf:ed:7e:4f:7a:2d:24:fc:79:
                    8a:c0:e7
                Exponent: 65537 (0x10001)
        X509v3 extensions:
            X509v3 Basic Constraints: 
                CA:FALSE
            Netscape Comment: 
                Easy-RSA Generated Certificate
            X509v3 Subject Key Identifier: 
                10:30:23:3F:B1:2A:2C:FC:88:9D:70:C7:C6:72:F9:C2:D6:B5:E9:50
            X509v3 Authority Key Identifier: 
                keyid:12:CD:60:04:D2:A0:80:9E:70:ED:C6:99:B8:7B:2C:C6:52:FD:19:A1
                DirName:/C=US/ST=OH/L=Columbus/O=VikingVPN/OU=MyOrganizationalUnit/CN=VikingVPN CA/name=EasyRSA/emailAddress=me@myhost.mydomain
                serial:CF:35:85:EE:80:BF:2A:3E

            X509v3 Extended Key Usage: 
                TLS Web Client Authentication
            X509v3 Key Usage: 
                Digital Signature
    Signature Algorithm: md5WithRSAEncryption
         2d:5c:d1:53:5b:52:17:50:ea:7f:9f:1a:d2:67:27:6c:f2:0f:
         43:0b:9a:36:eb:94:27:dc:f1:9b:8a:6a:ab:a9:22:12:26:b0:
         66:e9:2e:65:26:04:f6:09:1e:cb:41:ef:c4:77:6a:83:6a:c2:
         c8:63:ee:fe:ed:ea:70:f3:59:f0:56:43:63:6b:eb:94:96:72:
         9f:bb:b6:61:f5:24:cc:cf:6e:b9:69:57:ce:1e:45:94:05:89:
         21:0c:05:f6:0d:e2:04:ef:ca:7e:cf:1f:19:8b:07:03:9c:72:
         0e:de:aa:79:9c:b5:6a:fe:63:d1:9a:35:9e:a0:0a:57:cf:7e:
         26:49:0a:9d:7c:40:ad:57:a4:f9:26:c4:93:b9:e4:92:58:d5:
         e9:c1:41:e9:26:13:bf:a2:5d:d4:58:0e:2c:cb:33:ef:ca:83:
         aa:2f:92:38:33:2f:5c:f7:92:b7:7d:5e:98:f6:69:0a:67:ff:
         2b:df:bd:0b:2a:c6:30:49:22:4a:9b:41:69:98:a9:e0:42:9b:
         b4:6c:38:46:87:1e:ff:84:88:52:df:0d:98:fd:90:68:39:5e:
         51:bb:5c:d9:cb:a4:0d:51:3e:7d:00:d5:0a:da:ce:58:59:54:
         dd:51:f1:70:80:7b:ae:27:57:b6:53:eb:33:a6:7a:d8:7c:71:
         dd:61:a3:1e:f0:56:0b:b3:48:95:cb:1f:e9:7d:06:3e:20:25:
         0e:99:da:6e:06:26:9b:6c:04:00:a2:00:40:17:ae:25:9c:b7:
         f5:ad:ef:1e:01:56:ba:46:c6:33:9f:5a:d1:b9:57:0a:0e:3d:
         82:47:f8:a9:d9:9b:31:0d:b9:2f:38:54:66:c9:60:4e:7c:7b:
         2d:16:61:f2:ab:f9:27:f1:35:52:69:57:94:04:3f:e7:ff:c1:
         a0:7b:79:d3:5f:42:00:3a:a8:17:9f:31:50:fe:7a:a4:7e:f4:
         fb:e2:09:a0:a8:af:1e:43:32:71:79:a3:64:2f:a6:cd:41:14:
         32:f6:d0:99:4c:99:01:11:ec:63:b8:4d:04:84:60:48:32:90:
         b3:69:7e:87:dc:fb:0c:b3:e1:fd:46:15:49:f4:bc:e1:31:84:
         22:25:7b:1c:97:24:a2:b5:3b:cc:ad:1d:2d:10:28:36:fa:13:
         b1:b2:56:aa:48:57:bc:2b:e5:78:5a:f9:f3:13:5d:af:e0:1e:
         33:d0:98:10:4d:30:5f:30:d9:2e:3b:f9:a2:7e:3f:1d:c9:9e:
         0c:79:ac:af:74:be:48:39:75:3c:a8:55:e1:cc:ae:4b:d2:52:
         fc:76:e7:7b:dc:92:54:c7:db:7e:b1:b5:c9:5e:9b:28:31:4d:
         f4:8f:0f:11:f4:9d:1e:d2
-----BEGIN CERTIFICATE-----
MIIGrDCCBJSgAwIBAgICAuYwDQYJKoZIhvcNAQEEBQAwgawxCzAJBgNVBAYTAlVT
MQswCQYDVQQIEwJPSDERMA8GA1UEBxMIQ29sdW1idXMxEjAQBgNVBAoTCVZpa2lu
Z1ZQTjEdMBsGA1UECxMUTXlPcmdhbml6YXRpb25hbFVuaXQxFTATBgNVBAMTDFZp
a2luZ1ZQTiBDQTEQMA4GA1UEKRMHRWFzeVJTQTEhMB8GCSqGSIb3DQEJARYSbWVA
bXlob3N0Lm15ZG9tYWluMB4XDTE0MDExMTE5NTkzNVoXDTI0MDEwOTE5NTkzNVow
HjEcMBoGA1UEAxMTQ2xpZW50Mjk0Q2VydGRhOGQxMDCCAiIwDQYJKoZIhvcNAQEB
BQADggIPADCCAgoCggIBALKBWli9APURtu5/ntkXtW6Dk/Xx9M/Jx9CiHHOmzTYy
xqKtG6MQ/j4VMSDBblcV5vilqMjvIhi9CfYsdzcodeklkytjPw18Db+86xQZscn8
XH7JH8BsXb0E0Aj2aVqGpa0OijsZosqV2pG1GeE0VY3SnkFt1EQv8gL95ga6dDMG
eQqrwC+O4s0paKbwdMtOO0zErPnJ2Bhjsl2N408k4l0iC7pfeiHSiEg6ra5WGE+I
2UKn3yBAe6pQdDLNCAoBVm8C/gL9U779u45k3+Xs4J75/JW4NddX0SWlRluEaNFi
MkVriDpN0iq3IpBw/4RR+E3gK/+D9uFlkHKiijmVjWQpfSGm1CYlJloluFGOfIJJ
LTAZooYkhJE3exT/73rJ/E8ZAKGwNu0Qfvm8OinSIspxV2Kxk9V5FesIfoGDhz14
FhZtlJzghAmN6g9Auj+r/QTrjPsQaJmwe+hJnbkYzaAFJid0byTwpTZkLpKo20QG
FMKYiSb0yf8DVl6U2hHbguh2g1/FsMRlWXJZ+NKtXXSOm/D1IZuZC1Q4vYCC0uhN
1w9m1bR02XTAtRECdSsIRuLQY4F6m3eyemlWrpcxcYAaFG3ZvJAoj34q6FLGNxFs
kDNIHLSooBEy/qF7o+iD4WNyFErNjp5WPxGttCq2BiyPWygvv+1+T3otJPx5isDn
AgMBAAGjggFjMIIBXzAJBgNVHRMEAjAAMC0GCWCGSAGG+EIBDQQgFh5FYXN5LVJT
QSBHZW5lcmF0ZWQgQ2VydGlmaWNhdGUwHQYDVR0OBBYEFBAwIz+xKiz8iJ1wx8Zy
+cLWtelQMIHhBgNVHSMEgdkwgdaAFBLNYATSoICecO3Gmbh7LMZS/RmhoYGypIGv
MIGsMQswCQYDVQQGEwJVUzELMAkGA1UECBMCT0gxETAPBgNVBAcTCENvbHVtYnVz
MRIwEAYDVQQKEwlWaWtpbmdWUE4xHTAbBgNVBAsTFE15T3JnYW5pemF0aW9uYWxV
bml0MRUwEwYDVQQDEwxWaWtpbmdWUE4gQ0ExEDAOBgNVBCkTB0Vhc3lSU0ExITAf
BgkqhkiG9w0BCQEWEm1lQG15aG9zdC5teWRvbWFpboIJAM81he6Avyo+MBMGA1Ud
JQQMMAoGCCsGAQUFBwMCMAsGA1UdDwQEAwIHgDANBgkqhkiG9w0BAQQFAAOCAgEA
LVzRU1tSF1Dqf58a0mcnbPIPQwuaNuuUJ9zxm4pqq6kiEiawZukuZSYE9gkey0Hv
xHdqg2rCyGPu/u3qcPNZ8FZDY2vrlJZyn7u2YfUkzM9uuWlXzh5FlAWJIQwF9g3i
BO/Kfs8fGYsHA5xyDt6qeZy1av5j0Zo1nqAKV89+JkkKnXxArVek+SbEk7nkkljV
6cFB6SYTv6Jd1FgOLMsz78qDqi+SODMvXPeSt31emPZpCmf/K9+9CyrGMEkiSptB
aZip4EKbtGw4Roce/4SIUt8NmP2QaDleUbtc2cukDVE+fQDVCtrOWFlU3VHxcIB7
ridXtlPrM6Z62Hxx3WGjHvBWC7NIlcsf6X0GPiAlDpnabgYmm2wEAKIAQBeuJZy3
9a3vHgFWukbGM59a0blXCg49gkf4qdmbMQ25LzhUZslgTnx7LRZh8qv5J/E1UmlX
lAQ/5//BoHt5019CADqoF58xUP56pH70++IJoKivHkMycXmjZC+mzUEUMvbQmUyZ
ARHsY7hNBIRgSDKQs2l+h9z7DLPh/UYVSfS84TGEIiV7HJckorU7zK0dLRAoNvoT
sbJWqkhXvCvleFr58xNdr+AeM9CYEE0wXzDZLjv5on4/HcmeDHmsr3S+SDl1PKhV
4cyuS9JS/Hbne9ySVMfbfrG1yV6bKDFN9I8PEfSdHtI=
-----END CERTIFICATE-----
