Certificate:
    Data:
        Version: 3 (0x2)
        Serial Number: 11894 (0x2e76)
    Signature Algorithm: sha256WithRSAEncryption
        Issuer: C=US, ST=OH, L=Columbus, O=VikingVPN, OU=MyOrganizationalUnit, CN=VikingVPN CA/name=EasyRSA/emailAddress=me@myhost.mydomain
        Validity
            Not Before: Sep 28 21:47:01 2017 GMT
            Not After : Sep 26 21:47:01 2027 GMT
        Subject: CN=Client1610Cert3082bb
        Subject Public Key Info:
            Public Key Algorithm: rsaEncryption
                Public-Key: (4096 bit)
                Modulus:
                    00:93:09:41:d8:16:af:15:d1:77:cd:89:05:01:1f:
                    d6:3f:5c:61:8c:c7:43:fc:2c:25:44:b4:af:67:91:
                    fc:e2:5d:1b:f6:c9:d9:e7:6e:f1:12:c3:7f:0f:b8:
                    f3:cc:18:cd:e1:c0:34:58:06:28:d5:81:33:3e:9d:
                    d2:de:6c:d9:5d:3a:6c:a0:09:dd:4b:0f:cf:54:cc:
                    05:29:55:94:a1:24:5f:4a:ff:30:cf:b1:94:59:5b:
                    d4:84:1f:0b:63:5b:91:2d:c7:96:86:9e:0a:eb:34:
                    58:ee:b7:87:d1:28:80:3c:5f:ff:79:60:17:31:6a:
                    ba:ca:1f:a0:d7:c0:1a:cc:4f:61:1d:f4:8c:48:7b:
                    5e:67:43:f8:ed:d4:e8:1f:16:09:15:47:6c:af:02:
                    d5:5f:64:a3:e6:c0:55:e3:01:8e:14:00:af:9e:64:
                    a3:db:88:c2:e5:17:31:c4:a2:79:55:94:44:7f:e9:
                    2f:ef:a0:1a:38:6e:09:67:76:28:0e:10:3d:ce:23:
                    cf:93:a9:08:6c:74:17:cc:ef:bf:e6:02:9e:7e:f4:
                    f9:7b:e8:d9:20:ae:71:ff:6b:8a:b4:12:5d:25:6c:
                    3a:68:fc:3d:d9:af:a6:60:ad:29:27:b8:19:b4:59:
                    a5:94:f1:8a:1c:6d:4b:1a:87:60:db:f9:31:d2:64:
                    65:a6:4f:fa:36:8f:8f:6c:08:ba:8d:97:29:84:76:
                    55:43:c8:cb:1b:26:38:26:c1:4e:dc:ca:d7:b7:fe:
                    53:dd:3a:17:9d:45:e6:7e:ef:90:ea:f1:d9:e2:96:
                    55:3c:e8:d6:b1:69:55:98:ea:0d:e7:6a:b1:d1:f0:
                    f8:45:c5:ce:e0:b2:eb:80:5b:d7:8c:b9:1c:00:68:
                    ce:a3:1d:6d:cb:35:9a:64:a5:1c:d2:55:56:c9:59:
                    26:81:b9:e2:da:03:4d:68:d4:80:94:02:f4:e4:68:
                    97:00:64:fb:47:0e:93:01:b2:e8:d6:1d:e9:3c:7e:
                    87:16:a9:34:dc:65:a5:99:80:d2:6c:cc:f2:20:9e:
                    90:00:e5:6f:97:6f:6c:77:2b:70:ab:7d:5a:9b:96:
                    ec:18:41:f4:c6:ca:2d:06:37:01:b0:8b:52:13:de:
                    df:e9:c5:c5:cc:fa:a1:0e:2f:b2:c2:27:df:e5:0b:
                    e3:f0:54:36:44:7e:ac:b8:45:b1:cc:56:8e:5c:80:
                    29:15:52:5f:6e:a7:2a:92:ee:fb:0d:6f:ac:86:2a:
                    3b:9b:c7:f3:c9:16:ac:a4:78:6c:ca:ad:93:18:5a:
                    95:cc:10:76:f8:2e:38:3f:8a:85:7c:78:c3:4b:6f:
                    b8:c9:03:8e:f9:6c:cb:6e:c8:4a:e2:9d:aa:8a:f8:
                    70:9a:57
                Exponent: 65537 (0x10001)
        X509v3 extensions:
            X509v3 Basic Constraints: 
                CA:FALSE
            Netscape Comment: 
                Easy-RSA Generated Certificate
            X509v3 Subject Key Identifier: 
                8B:88:AA:1A:D0:9E:DA:F1:87:F8:A3:7B:32:7F:68:84:C3:B1:63:9D
            X509v3 Authority Key Identifier: 
                keyid:12:CD:60:04:D2:A0:80:9E:70:ED:C6:99:B8:7B:2C:C6:52:FD:19:A1
                DirName:/C=US/ST=OH/L=Columbus/O=VikingVPN/OU=MyOrganizationalUnit/CN=VikingVPN CA/name=EasyRSA/emailAddress=me@myhost.mydomain
                serial:CF:35:85:EE:80:BF:2A:3E

            X509v3 Extended Key Usage: 
                TLS Web Client Authentication
            X509v3 Key Usage: 
                Digital Signature
    Signature Algorithm: sha256WithRSAEncryption
         b1:43:a3:0c:9b:4d:6c:87:ed:e6:97:43:90:9f:7d:8d:64:df:
         ad:12:01:a4:88:6a:72:13:38:d9:9f:ef:a6:fe:09:07:22:4b:
         08:80:db:5e:63:fc:05:d0:19:7b:c4:73:88:12:1e:5c:a2:55:
         da:26:6d:9c:96:0f:f0:d9:46:4c:af:87:32:fc:f2:1a:01:b6:
         bd:ce:b8:29:33:63:2a:28:36:af:4b:ad:e0:9f:5c:65:0f:e7:
         62:12:96:12:8f:cc:bb:3e:b5:40:9a:bb:ef:46:5b:24:b5:7f:
         80:9b:80:2a:e3:51:28:38:f6:89:ce:dc:a7:b8:86:5c:23:26:
         93:72:84:cc:01:54:6c:7d:a8:10:d3:39:3d:17:7e:21:c3:83:
         aa:cb:36:00:8d:b7:9d:2a:30:cd:d1:a1:e6:c1:7e:3d:1a:b1:
         e4:c4:22:88:10:98:53:77:15:b6:47:70:73:92:30:6f:5f:0b:
         3f:f0:59:ad:39:0b:4b:50:95:32:c6:60:00:ed:6e:ee:30:10:
         21:20:e6:50:a3:df:a1:01:43:d2:98:d5:5e:57:91:23:f0:7c:
         1d:94:17:12:c1:43:87:42:f3:39:c8:fd:80:96:c1:f9:6a:bb:
         cb:04:08:f5:b5:e6:7a:fc:48:db:58:2b:d8:cb:b3:17:ba:bf:
         68:c5:60:5b:4d:3b:dc:53:59:c9:16:cb:04:23:7c:a0:e1:6f:
         92:25:fa:67:b7:89:a4:9a:3f:25:b2:e9:62:22:15:dd:d9:ce:
         ef:f2:a4:86:17:cb:fe:e5:62:be:e6:e0:53:c8:f3:df:20:6a:
         f6:ac:41:59:7d:08:ab:88:22:c9:29:7a:76:ea:c8:35:b2:6b:
         b0:e8:1b:43:5e:65:87:77:c2:b2:2b:68:6e:9a:f9:63:98:37:
         64:43:eb:73:37:e3:9c:38:a6:25:2b:8e:84:eb:34:f3:1a:06:
         70:5a:2b:12:06:6e:b7:c1:f1:44:80:c0:da:b5:be:42:90:39:
         75:5f:a0:70:f2:19:e4:31:e2:92:5a:92:e0:fd:63:3f:f1:7a:
         39:ba:00:6d:eb:51:87:65:e0:21:8a:e7:f5:31:0d:8f:25:22:
         27:4a:34:0b:79:99:8e:39:06:d6:58:b3:69:5e:74:92:45:6e:
         c5:e2:bd:9d:43:34:d7:15:74:f0:b1:5f:c5:62:20:c3:ec:2f:
         b7:37:34:64:32:ae:13:2d:dc:33:5d:2e:e8:0b:c4:85:31:91:
         d9:31:3f:8d:ad:c8:b1:6d:06:c3:c8:30:d9:6e:9d:4a:d5:05:
         d6:79:ac:eb:e1:ed:3f:b0:e8:4d:42:5b:44:36:4c:71:c5:f9:
         1e:72:52:ce:05:12:a2:09
-----BEGIN CERTIFICATE-----
MIIGrTCCBJWgAwIBAgICLnYwDQYJKoZIhvcNAQELBQAwgawxCzAJBgNVBAYTAlVT
MQswCQYDVQQIEwJPSDERMA8GA1UEBxMIQ29sdW1idXMxEjAQBgNVBAoTCVZpa2lu
Z1ZQTjEdMBsGA1UECxMUTXlPcmdhbml6YXRpb25hbFVuaXQxFTATBgNVBAMTDFZp
a2luZ1ZQTiBDQTEQMA4GA1UEKRMHRWFzeVJTQTEhMB8GCSqGSIb3DQEJARYSbWVA
bXlob3N0Lm15ZG9tYWluMB4XDTE3MDkyODIxNDcwMVoXDTI3MDkyNjIxNDcwMVow
HzEdMBsGA1UEAxMUQ2xpZW50MTYxMENlcnQzMDgyYmIwggIiMA0GCSqGSIb3DQEB
AQUAA4ICDwAwggIKAoICAQCTCUHYFq8V0XfNiQUBH9Y/XGGMx0P8LCVEtK9nkfzi
XRv2ydnnbvESw38PuPPMGM3hwDRYBijVgTM+ndLebNldOmygCd1LD89UzAUpVZSh
JF9K/zDPsZRZW9SEHwtjW5Etx5aGngrrNFjut4fRKIA8X/95YBcxarrKH6DXwBrM
T2Ed9IxIe15nQ/jt1OgfFgkVR2yvAtVfZKPmwFXjAY4UAK+eZKPbiMLlFzHEonlV
lER/6S/voBo4bglndigOED3OI8+TqQhsdBfM77/mAp5+9Pl76NkgrnH/a4q0El0l
bDpo/D3Zr6ZgrSknuBm0WaWU8YocbUsah2Db+THSZGWmT/o2j49sCLqNlymEdlVD
yMsbJjgmwU7cyte3/lPdOhedReZ+75Dq8dnillU86NaxaVWY6g3narHR8PhFxc7g
suuAW9eMuRwAaM6jHW3LNZpkpRzSVVbJWSaBueLaA01o1ICUAvTkaJcAZPtHDpMB
sujWHek8focWqTTcZaWZgNJszPIgnpAA5W+Xb2x3K3CrfVqbluwYQfTGyi0GNwGw
i1IT3t/pxcXM+qEOL7LCJ9/lC+PwVDZEfqy4RbHMVo5cgCkVUl9upyqS7vsNb6yG
Kjubx/PJFqykeGzKrZMYWpXMEHb4Ljg/ioV8eMNLb7jJA475bMtuyErinaqK+HCa
VwIDAQABo4IBYzCCAV8wCQYDVR0TBAIwADAtBglghkgBhvhCAQ0EIBYeRWFzeS1S
U0EgR2VuZXJhdGVkIENlcnRpZmljYXRlMB0GA1UdDgQWBBSLiKoa0J7a8Yf4o3sy
f2iEw7FjnTCB4QYDVR0jBIHZMIHWgBQSzWAE0qCAnnDtxpm4eyzGUv0ZoaGBsqSB
rzCBrDELMAkGA1UEBhMCVVMxCzAJBgNVBAgTAk9IMREwDwYDVQQHEwhDb2x1bWJ1
czESMBAGA1UEChMJVmlraW5nVlBOMR0wGwYDVQQLExRNeU9yZ2FuaXphdGlvbmFs
VW5pdDEVMBMGA1UEAxMMVmlraW5nVlBOIENBMRAwDgYDVQQpEwdFYXN5UlNBMSEw
HwYJKoZIhvcNAQkBFhJtZUBteWhvc3QubXlkb21haW6CCQDPNYXugL8qPjATBgNV
HSUEDDAKBggrBgEFBQcDAjALBgNVHQ8EBAMCB4AwDQYJKoZIhvcNAQELBQADggIB
ALFDowybTWyH7eaXQ5CffY1k360SAaSIanITONmf76b+CQciSwiA215j/AXQGXvE
c4gSHlyiVdombZyWD/DZRkyvhzL88hoBtr3OuCkzYyooNq9LreCfXGUP52ISlhKP
zLs+tUCau+9GWyS1f4CbgCrjUSg49onO3Ke4hlwjJpNyhMwBVGx9qBDTOT0XfiHD
g6rLNgCNt50qMM3RoebBfj0aseTEIogQmFN3FbZHcHOSMG9fCz/wWa05C0tQlTLG
YADtbu4wECEg5lCj36EBQ9KY1V5XkSPwfB2UFxLBQ4dC8znI/YCWwflqu8sECPW1
5nr8SNtYK9jLsxe6v2jFYFtNO9xTWckWywQjfKDhb5Il+me3iaSaPyWy6WIiFd3Z
zu/ypIYXy/7lYr7m4FPI898gavasQVl9CKuIIskpenbqyDWya7DoG0NeZYd3wrIr
aG6a+WOYN2RD63M345w4piUrjoTrNPMaBnBaKxIGbrfB8USAwNq1vkKQOXVfoHDy
GeQx4pJakuD9Yz/xejm6AG3rUYdl4CGK5/UxDY8lIidKNAt5mY45BtZYs2ledJJF
bsXivZ1DNNcVdPCxX8ViIMPsL7c3NGQyrhMt3DNdLugLxIUxkdkxP42tyLFtBsPI
MNlunUrVBdZ5rOvh7T+w6E1CW0Q2THHF+R5yUs4FEqIJ
-----END CERTIFICATE-----
