Certificate:
    Data:
        Version: 3 (0x2)
        Serial Number: 7298 (0x1c82)
    Signature Algorithm: md5WithRSAEncryption
        Issuer: C=US, ST=OH, L=Columbus, O=VikingVPN, OU=MyOrganizationalUnit, CN=VikingVPN CA/name=EasyRSA/emailAddress=me@myhost.mydomain
        Validity
            Not Before: Feb 25 07:42:46 2016 GMT
            Not After : Feb 22 07:42:46 2026 GMT
        Subject: CN=Client2196Cert3ce5b2
        Subject Public Key Info:
            Public Key Algorithm: rsaEncryption
                Public-Key: (4096 bit)
                Modulus:
                    00:c9:0f:10:c6:44:d9:f5:ed:ca:72:d3:be:14:d2:
                    c7:c8:4b:f8:5b:10:ac:32:bf:c2:5c:27:7c:ce:94:
                    f3:55:16:35:19:6c:92:cd:59:bc:c2:17:1b:8c:3c:
                    09:3b:ed:ac:1d:b7:74:fd:2b:83:94:58:0d:21:78:
                    c6:ba:8a:7d:4f:ff:1c:88:65:c2:a4:cc:1b:5b:e3:
                    a7:d0:4a:48:e1:a7:01:12:e1:e1:d0:fb:7d:a6:a6:
                    e8:96:60:4f:6a:06:49:03:52:b8:4b:45:74:01:1c:
                    30:5f:33:45:d5:6e:ed:a7:cf:48:6a:cf:f4:42:d6:
                    44:b8:11:3c:64:5c:1f:63:89:97:b9:66:61:9e:02:
                    63:60:b4:ce:9a:46:45:0b:fd:35:4e:4f:c2:d7:dd:
                    a9:54:a2:5a:a6:ee:d6:bb:02:30:19:6a:e6:31:21:
                    9d:7a:6d:23:6e:34:d3:14:c2:fc:2f:1e:60:4e:89:
                    fe:d1:f9:e0:11:60:8b:00:9c:99:ec:7c:4d:00:8b:
                    6f:76:5c:8d:1a:27:68:35:36:0f:ef:c1:f4:b0:3a:
                    ef:fe:6c:b1:8a:34:f6:54:c7:08:3b:40:b2:25:d6:
                    62:d1:74:6c:67:ae:c5:bd:c5:89:e6:ed:b8:07:38:
                    82:62:e1:b2:e7:c1:f7:44:b3:3b:a1:ca:cd:cb:e8:
                    6a:67:af:7f:4f:d9:b3:83:1a:ac:ce:4c:28:08:07:
                    c8:89:48:cd:ef:85:65:77:59:d4:af:7b:cc:5e:f7:
                    7f:2e:ba:7d:93:a9:43:58:64:10:b8:78:04:d8:07:
                    61:8e:a6:bf:ff:5f:72:dd:c6:e2:13:33:ba:25:70:
                    76:23:e1:04:05:aa:db:07:5f:d8:d4:9f:19:da:f0:
                    e8:5a:bf:b7:05:1a:59:24:d3:31:a9:33:fc:a8:48:
                    23:33:84:98:68:73:5d:5c:b3:88:0e:e5:5a:d5:8c:
                    ae:5a:de:82:f3:8f:8a:26:a9:1a:8c:41:4d:e8:b4:
                    96:e4:73:df:18:33:ad:4c:0d:07:7c:40:df:01:08:
                    09:a6:fe:02:f9:d4:78:b7:c1:ce:4b:78:9e:fa:2a:
                    9d:75:ec:20:64:04:12:bd:b2:b5:0a:7e:55:05:3a:
                    3b:a7:04:19:d7:17:d3:8e:ff:fe:d9:d5:90:8b:4e:
                    38:07:1e:34:3d:8c:e3:29:04:06:7d:fe:da:ca:e5:
                    da:c7:a5:73:4b:d7:12:e9:1a:37:1e:e9:ce:4f:34:
                    2a:87:ea:a3:6d:0f:e0:8a:54:55:56:2b:14:d5:7a:
                    5d:0c:58:eb:fe:a9:64:7f:03:1b:1b:a7:37:b8:d2:
                    1e:d2:43:3c:93:57:b1:79:5e:e8:7a:04:de:a0:17:
                    8c:ee:f5
                Exponent: 65537 (0x10001)
        X509v3 extensions:
            X509v3 Basic Constraints: 
                CA:FALSE
            Netscape Comment: 
                Easy-RSA Generated Certificate
            X509v3 Subject Key Identifier: 
                4D:02:22:87:E2:0E:57:F7:AB:56:79:98:AB:30:06:16:2C:3B:8A:66
            X509v3 Authority Key Identifier: 
                keyid:12:CD:60:04:D2:A0:80:9E:70:ED:C6:99:B8:7B:2C:C6:52:FD:19:A1
                DirName:/C=US/ST=OH/L=Columbus/O=VikingVPN/OU=MyOrganizationalUnit/CN=VikingVPN CA/name=EasyRSA/emailAddress=me@myhost.mydomain
                serial:CF:35:85:EE:80:BF:2A:3E

            X509v3 Extended Key Usage: 
                TLS Web Client Authentication
            X509v3 Key Usage: 
                Digital Signature
    Signature Algorithm: md5WithRSAEncryption
         42:d7:12:46:21:6b:84:c6:aa:7f:b1:01:9b:f3:4f:32:81:7d:
         72:94:f2:66:8d:74:36:95:f6:5d:42:cc:2f:34:ad:6a:4b:ed:
         5c:2b:ef:24:84:71:2f:62:64:63:b0:57:bf:4b:63:4f:cb:cf:
         80:a2:da:e6:bf:38:e8:de:7f:45:4a:88:0f:b9:e0:87:80:43:
         2f:c4:db:e4:4f:97:bc:4e:1c:0b:ae:23:02:02:e8:8e:f6:0c:
         eb:11:36:95:6a:2f:5a:21:d5:ff:7d:00:59:d9:c2:87:31:b4:
         53:a0:ec:ee:10:86:13:77:af:37:54:9c:cd:68:a1:34:79:45:
         9c:d0:06:c7:9d:7c:d5:5c:6f:d4:0e:1e:c0:af:fa:47:85:47:
         25:1b:71:a2:8a:e5:16:6f:d2:4c:24:68:16:0d:7a:4c:c9:c2:
         32:f3:f7:02:bb:b3:4b:f7:a9:84:94:63:24:41:ff:74:57:13:
         d9:75:1a:26:38:b9:f1:2b:47:26:ac:e3:ee:b5:95:ee:ea:78:
         8d:77:8d:b0:7c:c2:7e:17:94:b2:0a:34:cd:f8:4e:55:c2:db:
         4c:a7:79:a0:2b:17:5b:5f:22:8c:e5:71:b1:ef:a8:8d:3d:f2:
         16:b6:80:4d:d0:18:ed:db:97:f3:83:c8:1b:59:72:3c:9c:02:
         e2:49:b1:ec:aa:b9:ca:5d:58:b0:f2:d0:ca:c7:66:98:a2:c6:
         05:ec:9a:04:7a:d0:ff:3b:2b:94:e9:60:78:9d:73:88:42:48:
         71:87:92:f0:f0:6a:0a:03:ed:e3:3e:a8:10:76:30:52:bc:38:
         e1:65:a9:d5:ef:59:79:53:d7:ab:df:0c:46:93:3d:a8:95:36:
         12:3d:54:d1:db:6f:55:32:87:17:42:2e:71:ee:6f:cc:99:79:
         b0:b2:eb:56:de:39:85:4c:20:ba:28:84:f9:0d:b5:8f:da:d6:
         b3:01:87:55:32:e6:71:72:cb:a7:37:e4:ef:b3:ba:c6:bf:24:
         39:74:34:bb:5b:95:97:8c:e3:43:db:14:ee:ae:01:26:73:50:
         bf:47:ef:a2:36:93:d9:4b:16:00:8b:6e:f0:38:49:13:81:fa:
         4e:a4:03:09:e4:4c:5b:f8:55:db:50:45:9b:83:81:37:e3:f3:
         3a:3d:a0:c7:0f:18:b6:4c:c8:f5:67:fa:e0:f7:14:61:5c:ec:
         ea:85:03:bb:f2:29:6f:e5:6d:69:cb:bc:61:66:51:37:a1:75:
         dc:23:66:3c:7c:24:4d:90:4f:cf:37:44:4e:9b:ea:20:40:a6:
         1a:db:15:e2:c4:ca:12:c4:2e:d0:4c:88:e3:73:57:d9:9d:e5:
         d1:2f:64:11:7e:24:71:ac
-----BEGIN CERTIFICATE-----
MIIGrTCCBJWgAwIBAgICHIIwDQYJKoZIhvcNAQEEBQAwgawxCzAJBgNVBAYTAlVT
MQswCQYDVQQIEwJPSDERMA8GA1UEBxMIQ29sdW1idXMxEjAQBgNVBAoTCVZpa2lu
Z1ZQTjEdMBsGA1UECxMUTXlPcmdhbml6YXRpb25hbFVuaXQxFTATBgNVBAMTDFZp
a2luZ1ZQTiBDQTEQMA4GA1UEKRMHRWFzeVJTQTEhMB8GCSqGSIb3DQEJARYSbWVA
bXlob3N0Lm15ZG9tYWluMB4XDTE2MDIyNTA3NDI0NloXDTI2MDIyMjA3NDI0Nlow
HzEdMBsGA1UEAxMUQ2xpZW50MjE5NkNlcnQzY2U1YjIwggIiMA0GCSqGSIb3DQEB
AQUAA4ICDwAwggIKAoICAQDJDxDGRNn17cpy074U0sfIS/hbEKwyv8JcJ3zOlPNV
FjUZbJLNWbzCFxuMPAk77awdt3T9K4OUWA0heMa6in1P/xyIZcKkzBtb46fQSkjh
pwES4eHQ+32mpuiWYE9qBkkDUrhLRXQBHDBfM0XVbu2nz0hqz/RC1kS4ETxkXB9j
iZe5ZmGeAmNgtM6aRkUL/TVOT8LX3alUolqm7ta7AjAZauYxIZ16bSNuNNMUwvwv
HmBOif7R+eARYIsAnJnsfE0Ai292XI0aJ2g1Ng/vwfSwOu/+bLGKNPZUxwg7QLIl
1mLRdGxnrsW9xYnm7bgHOIJi4bLnwfdEszuhys3L6Gpnr39P2bODGqzOTCgIB8iJ
SM3vhWV3WdSve8xe938uun2TqUNYZBC4eATYB2GOpr//X3LdxuITM7olcHYj4QQF
qtsHX9jUnxna8Ohav7cFGlkk0zGpM/yoSCMzhJhoc11cs4gO5VrVjK5a3oLzj4om
qRqMQU3otJbkc98YM61MDQd8QN8BCAmm/gL51Hi3wc5LeJ76Kp117CBkBBK9srUK
flUFOjunBBnXF9OO//7Z1ZCLTjgHHjQ9jOMpBAZ9/trK5drHpXNL1xLpGjce6c5P
NCqH6qNtD+CKVFVWKxTVel0MWOv+qWR/Axsbpze40h7SQzyTV7F5Xuh6BN6gF4zu
9QIDAQABo4IBYzCCAV8wCQYDVR0TBAIwADAtBglghkgBhvhCAQ0EIBYeRWFzeS1S
U0EgR2VuZXJhdGVkIENlcnRpZmljYXRlMB0GA1UdDgQWBBRNAiKH4g5X96tWeZir
MAYWLDuKZjCB4QYDVR0jBIHZMIHWgBQSzWAE0qCAnnDtxpm4eyzGUv0ZoaGBsqSB
rzCBrDELMAkGA1UEBhMCVVMxCzAJBgNVBAgTAk9IMREwDwYDVQQHEwhDb2x1bWJ1
czESMBAGA1UEChMJVmlraW5nVlBOMR0wGwYDVQQLExRNeU9yZ2FuaXphdGlvbmFs
VW5pdDEVMBMGA1UEAxMMVmlraW5nVlBOIENBMRAwDgYDVQQpEwdFYXN5UlNBMSEw
HwYJKoZIhvcNAQkBFhJtZUBteWhvc3QubXlkb21haW6CCQDPNYXugL8qPjATBgNV
HSUEDDAKBggrBgEFBQcDAjALBgNVHQ8EBAMCB4AwDQYJKoZIhvcNAQEEBQADggIB
AELXEkYha4TGqn+xAZvzTzKBfXKU8maNdDaV9l1CzC80rWpL7Vwr7ySEcS9iZGOw
V79LY0/Lz4Ci2ua/OOjef0VKiA+54IeAQy/E2+RPl7xOHAuuIwIC6I72DOsRNpVq
L1oh1f99AFnZwocxtFOg7O4QhhN3rzdUnM1ooTR5RZzQBsedfNVcb9QOHsCv+keF
RyUbcaKK5RZv0kwkaBYNekzJwjLz9wK7s0v3qYSUYyRB/3RXE9l1GiY4ufErRyas
4+61le7qeI13jbB8wn4XlLIKNM34TlXC20yneaArF1tfIozlcbHvqI098ha2gE3Q
GO3bl/ODyBtZcjycAuJJseyqucpdWLDy0MrHZpiixgXsmgR60P87K5TpYHidc4hC
SHGHkvDwagoD7eM+qBB2MFK8OOFlqdXvWXlT16vfDEaTPaiVNhI9VNHbb1UyhxdC
LnHub8yZebCy61beOYVMILoohPkNtY/a1rMBh1Uy5nFyy6c35O+zusa/JDl0NLtb
lZeM40PbFO6uASZzUL9H76I2k9lLFgCLbvA4SROB+k6kAwnkTFv4VdtQRZuDgTfj
8zo9oMcPGLZMyPVn+uD3FGFc7OqFA7vyKW/lbWnLvGFmUTehddwjZjx8JE2QT883
RE6b6iBAphrbFeLEyhLELtBMiONzV9md5dEvZBF+JHGs
-----END CERTIFICATE-----
