Certificate:
    Data:
        Version: 3 (0x2)
        Serial Number: 356 (0x164)
    Signature Algorithm: md5WithRSAEncryption
        Issuer: C=US, ST=OH, L=Columbus, O=VikingVPN, OU=MyOrganizationalUnit, CN=VikingVPN CA/name=EasyRSA/emailAddress=me@myhost.mydomain
        Validity
            Not Before: Oct 29 09:38:59 2013 GMT
            Not After : Oct 27 09:38:59 2023 GMT
        Subject: CN=Client3Cert43050e
        Subject Public Key Info:
            Public Key Algorithm: rsaEncryption
                Public-Key: (4096 bit)
                Modulus:
                    00:f7:9d:44:77:bb:b6:b3:eb:ea:43:42:11:04:2b:
                    18:d7:64:c5:fe:ce:82:d6:38:fa:2b:01:62:cd:79:
                    bf:91:46:ff:aa:c2:ad:62:b6:c7:5c:8e:80:6a:b5:
                    7b:5c:32:f9:02:78:77:81:6e:b0:e4:eb:b6:88:cb:
                    f7:d0:fb:87:34:29:53:34:51:32:35:8f:f8:19:0c:
                    f6:13:a3:ed:bb:7f:f7:34:2f:dd:3b:84:46:bb:d4:
                    43:b9:1d:bc:8d:44:b1:f9:d1:c5:8a:72:f8:30:c1:
                    d0:19:c5:31:9d:2c:17:1f:74:f5:d1:2b:8a:bf:29:
                    e7:f1:3b:82:69:f6:3a:92:d5:d7:46:c2:84:d3:a1:
                    8c:40:cb:23:30:06:64:4e:4c:c3:aa:12:f2:53:91:
                    92:34:fd:e1:22:6e:d7:20:a1:06:89:4b:73:5a:f3:
                    1b:06:73:5f:9e:4a:54:9b:b5:e2:15:4b:6b:66:b8:
                    40:18:76:43:8b:18:a3:80:db:4d:0a:50:5d:b3:b1:
                    b2:db:fe:f6:15:e0:dc:5f:08:55:82:10:a2:63:99:
                    79:46:ff:72:55:0d:71:20:eb:e7:3d:6a:37:0e:2f:
                    cc:6c:bf:68:74:37:be:9d:ec:eb:2a:ca:34:13:ae:
                    11:d7:66:ee:8f:64:f2:4e:10:7b:4a:33:f1:a9:02:
                    5b:f3:67:36:9d:1a:17:53:d2:7a:76:ae:f5:00:f6:
                    24:ae:a2:5b:ba:89:45:ed:ae:c9:99:ec:6f:bb:40:
                    fe:a4:a4:d1:3b:a2:e5:67:4f:07:4d:c6:9d:37:21:
                    66:e4:83:89:f8:3b:dc:db:36:b0:76:fa:59:3c:94:
                    8f:01:96:c2:fb:bc:6b:c7:f5:4c:09:7d:71:cf:57:
                    4c:af:a7:87:44:63:0d:b7:4d:2d:f6:e3:7e:9c:b5:
                    94:cc:26:2e:f5:95:34:6f:df:dd:07:a9:b8:76:68:
                    c8:e5:6f:52:8b:01:e1:8d:30:dc:84:99:3a:f1:4f:
                    bd:10:2b:de:42:20:71:e4:58:6f:51:af:40:c7:e1:
                    0b:9a:a2:f5:b5:d7:f1:7d:02:fd:db:93:b7:62:97:
                    b6:b9:84:1b:71:f6:47:57:bd:3c:66:a1:02:d8:18:
                    78:33:85:8f:fb:ef:f8:f5:1b:6e:93:74:01:30:78:
                    ec:97:4f:42:9c:d3:6a:4c:93:d0:93:83:70:00:87:
                    13:42:c5:c8:11:01:c2:3e:84:32:cd:b0:61:0b:74:
                    f9:ae:7a:1e:c8:b0:b0:47:97:73:b2:26:a8:f2:cf:
                    75:69:03:32:5d:28:fb:fe:da:8c:dc:e1:e9:52:ea:
                    db:5e:a5:a1:74:39:15:c1:ac:86:63:1a:84:ae:3f:
                    cf:a6:ff
                Exponent: 65537 (0x10001)
        X509v3 extensions:
            X509v3 Basic Constraints: 
                CA:FALSE
            Netscape Comment: 
                Easy-RSA Generated Certificate
            X509v3 Subject Key Identifier: 
                3C:3B:93:82:3A:CF:C8:09:6E:50:B0:80:06:52:5D:8B:BE:71:40:1A
            X509v3 Authority Key Identifier: 
                keyid:12:CD:60:04:D2:A0:80:9E:70:ED:C6:99:B8:7B:2C:C6:52:FD:19:A1
                DirName:/C=US/ST=OH/L=Columbus/O=VikingVPN/OU=MyOrganizationalUnit/CN=VikingVPN CA/name=EasyRSA/emailAddress=me@myhost.mydomain
                serial:CF:35:85:EE:80:BF:2A:3E

            X509v3 Extended Key Usage: 
                TLS Web Client Authentication
            X509v3 Key Usage: 
                Digital Signature
    Signature Algorithm: md5WithRSAEncryption
         95:0c:e8:6e:3f:b1:80:40:8e:1c:f2:e0:fe:c1:04:34:e7:2c:
         ab:2e:ab:78:8d:d0:c1:4b:dd:24:42:f3:b4:cf:3f:41:ae:fe:
         e3:21:75:06:22:72:5e:0e:9d:64:cc:86:b2:4a:f5:3c:ee:aa:
         4b:55:c9:c5:be:7e:68:0a:95:fe:4c:22:d4:86:b3:3e:56:7f:
         b1:2d:89:a4:1b:e1:c1:c5:26:19:a7:b8:87:70:2c:22:3e:39:
         7c:27:90:ec:47:34:8a:7e:ac:44:02:d3:e3:93:47:26:90:9a:
         ff:45:e7:a3:9b:4b:3e:75:39:d8:6a:cd:58:e6:78:11:49:f6:
         ae:63:1b:78:f1:78:0d:a0:cf:72:8b:d3:ac:70:62:1d:87:f8:
         91:1e:66:c1:6d:95:c0:31:9c:35:4f:c2:9e:1f:95:e9:5e:32:
         a4:27:91:11:43:d2:16:0d:c6:5e:85:ff:35:93:c6:23:31:3c:
         d7:ec:c4:19:e6:2e:fb:09:60:0b:8f:b6:64:3b:ab:6b:11:f7:
         ed:53:61:fb:88:04:63:ee:10:96:dc:b1:f6:26:42:58:01:df:
         81:c6:d9:5e:44:4a:c1:b5:67:8f:99:f1:62:3b:7a:e6:87:72:
         95:42:dd:cb:49:8b:55:92:96:69:d1:71:3f:14:0a:6b:1c:86:
         e4:ba:f7:9b:91:69:05:d8:75:87:08:b4:31:7c:bb:43:22:c6:
         15:a0:81:2e:f9:b5:db:f8:fa:4c:54:d4:13:55:4f:35:dd:31:
         2b:7b:60:87:cb:82:e1:64:57:1f:c2:b8:da:d5:91:47:1e:f3:
         55:9e:81:e5:5e:ef:07:6c:cb:31:94:a5:8f:df:be:5b:1d:4f:
         41:b6:dc:34:d0:7a:a4:44:42:a6:80:1f:35:d8:b4:63:f5:22:
         4d:e0:3c:85:bd:84:aa:29:6d:8e:e8:aa:ee:5f:7d:e2:88:9b:
         c4:e3:b7:78:bd:26:a1:b0:f0:65:e7:4b:39:23:97:6e:77:dd:
         db:fc:33:aa:ef:49:cf:b3:f1:d2:c2:45:28:84:0c:eb:f2:c5:
         0c:e1:17:16:bf:6c:5b:50:f2:80:88:6b:5b:da:15:da:36:e0:
         55:10:93:60:0d:06:ac:2f:d6:73:b6:96:fb:e2:0d:93:be:d1:
         aa:52:6b:ca:46:a4:28:8e:4b:1c:ff:b4:a1:a8:1d:27:d3:92:
         7c:53:e0:76:9e:fd:17:a6:a5:b5:c2:cb:6d:ff:35:bf:b9:e4:
         a3:a3:8a:93:27:c7:4c:3d:18:90:53:6b:7e:df:fb:44:e1:63:
         d7:b7:bf:c1:9f:fc:a6:03:6a:87:63:27:04:3a:14:87:c8:64:
         24:4f:bd:8e:b2:6c:d9:38
-----BEGIN CERTIFICATE-----
MIIGqjCCBJKgAwIBAgICAWQwDQYJKoZIhvcNAQEEBQAwgawxCzAJBgNVBAYTAlVT
MQswCQYDVQQIEwJPSDERMA8GA1UEBxMIQ29sdW1idXMxEjAQBgNVBAoTCVZpa2lu
Z1ZQTjEdMBsGA1UECxMUTXlPcmdhbml6YXRpb25hbFVuaXQxFTATBgNVBAMTDFZp
a2luZ1ZQTiBDQTEQMA4GA1UEKRMHRWFzeVJTQTEhMB8GCSqGSIb3DQEJARYSbWVA
bXlob3N0Lm15ZG9tYWluMB4XDTEzMTAyOTA5Mzg1OVoXDTIzMTAyNzA5Mzg1OVow
HDEaMBgGA1UEAxMRQ2xpZW50M0NlcnQ0MzA1MGUwggIiMA0GCSqGSIb3DQEBAQUA
A4ICDwAwggIKAoICAQD3nUR3u7az6+pDQhEEKxjXZMX+zoLWOPorAWLNeb+RRv+q
wq1itsdcjoBqtXtcMvkCeHeBbrDk67aIy/fQ+4c0KVM0UTI1j/gZDPYTo+27f/c0
L907hEa71EO5HbyNRLH50cWKcvgwwdAZxTGdLBcfdPXRK4q/KefxO4Jp9jqS1ddG
woTToYxAyyMwBmROTMOqEvJTkZI0/eEibtcgoQaJS3Na8xsGc1+eSlSbteIVS2tm
uEAYdkOLGKOA200KUF2zsbLb/vYV4NxfCFWCEKJjmXlG/3JVDXEg6+c9ajcOL8xs
v2h0N76d7OsqyjQTrhHXZu6PZPJOEHtKM/GpAlvzZzadGhdT0np2rvUA9iSuolu6
iUXtrsmZ7G+7QP6kpNE7ouVnTwdNxp03IWbkg4n4O9zbNrB2+lk8lI8BlsL7vGvH
9UwJfXHPV0yvp4dEYw23TS32436ctZTMJi71lTRv390Hqbh2aMjlb1KLAeGNMNyE
mTrxT70QK95CIHHkWG9Rr0DH4QuaovW11/F9Av3bk7dil7a5hBtx9kdXvTxmoQLY
GHgzhY/77/j1G26TdAEweOyXT0Kc02pMk9CTg3AAhxNCxcgRAcI+hDLNsGELdPmu
eh7IsLBHl3OyJqjyz3VpAzJdKPv+2ozc4elS6ttepaF0ORXBrIZjGoSuP8+m/wID
AQABo4IBYzCCAV8wCQYDVR0TBAIwADAtBglghkgBhvhCAQ0EIBYeRWFzeS1SU0Eg
R2VuZXJhdGVkIENlcnRpZmljYXRlMB0GA1UdDgQWBBQ8O5OCOs/ICW5QsIAGUl2L
vnFAGjCB4QYDVR0jBIHZMIHWgBQSzWAE0qCAnnDtxpm4eyzGUv0ZoaGBsqSBrzCB
rDELMAkGA1UEBhMCVVMxCzAJBgNVBAgTAk9IMREwDwYDVQQHEwhDb2x1bWJ1czES
MBAGA1UEChMJVmlraW5nVlBOMR0wGwYDVQQLExRNeU9yZ2FuaXphdGlvbmFsVW5p
dDEVMBMGA1UEAxMMVmlraW5nVlBOIENBMRAwDgYDVQQpEwdFYXN5UlNBMSEwHwYJ
KoZIhvcNAQkBFhJtZUBteWhvc3QubXlkb21haW6CCQDPNYXugL8qPjATBgNVHSUE
DDAKBggrBgEFBQcDAjALBgNVHQ8EBAMCB4AwDQYJKoZIhvcNAQEEBQADggIBAJUM
6G4/sYBAjhzy4P7BBDTnLKsuq3iN0MFL3SRC87TPP0Gu/uMhdQYicl4OnWTMhrJK
9TzuqktVycW+fmgKlf5MItSGsz5Wf7EtiaQb4cHFJhmnuIdwLCI+OXwnkOxHNIp+
rEQC0+OTRyaQmv9F56ObSz51OdhqzVjmeBFJ9q5jG3jxeA2gz3KL06xwYh2H+JEe
ZsFtlcAxnDVPwp4fleleMqQnkRFD0hYNxl6F/zWTxiMxPNfsxBnmLvsJYAuPtmQ7
q2sR9+1TYfuIBGPuEJbcsfYmQlgB34HG2V5ESsG1Z4+Z8WI7euaHcpVC3ctJi1WS
lmnRcT8UCmschuS695uRaQXYdYcItDF8u0MixhWggS75tdv4+kxU1BNVTzXdMSt7
YIfLguFkVx/CuNrVkUce81WegeVe7wdsyzGUpY/fvlsdT0G23DTQeqREQqaAHzXY
tGP1Ik3gPIW9hKopbY7oqu5ffeKIm8Tjt3i9JqGw8GXnSzkjl2533dv8M6rvSc+z
8dLCRSiEDOvyxQzhFxa/bFtQ8oCIa1vaFdo24FUQk2ANBqwv1nO2lvviDZO+0apS
a8pGpCiOSxz/tKGoHSfTknxT4Hae/RempbXCy23/Nb+55KOjipMnx0w9GJBTa37f
+0ThY9e3v8Gf/KYDaodjJwQ6FIfIZCRPvY6ybNk4
-----END CERTIFICATE-----
