Certificate:
    Data:
        Version: 3 (0x2)
        Serial Number: 5670 (0x1626)
    Signature Algorithm: md5WithRSAEncryption
        Issuer: C=US, ST=OH, L=Columbus, O=VikingVPN, OU=MyOrganizationalUnit, CN=VikingVPN CA/name=EasyRSA/emailAddress=me@myhost.mydomain
        Validity
            Not Before: Jul  2 00:27:00 2015 GMT
            Not After : Jun 29 00:27:00 2025 GMT
        Subject: CN=Client1776Cert06ef6e
        Subject Public Key Info:
            Public Key Algorithm: rsaEncryption
                Public-Key: (4096 bit)
                Modulus:
                    00:d2:c5:fd:9e:1d:a3:c3:bb:70:d8:07:c8:64:06:
                    52:25:d7:b5:bb:20:82:58:02:9a:5b:a6:14:03:69:
                    79:4e:c9:8c:7c:c8:60:f5:ae:61:d2:c8:3e:61:bb:
                    88:87:ad:03:eb:95:af:8e:60:c9:e0:b8:5b:f4:be:
                    82:ea:c2:dd:7f:25:a4:42:b2:9b:c8:06:d2:87:ea:
                    94:b7:59:52:d0:30:32:10:90:4a:0e:7c:17:fb:eb:
                    c3:29:55:4e:5f:58:f9:c7:a5:47:4b:1e:0d:78:c9:
                    7a:5e:05:9c:da:af:8a:f1:15:54:72:6f:be:8e:12:
                    49:9a:c1:9e:31:8c:50:92:59:56:69:c4:37:b1:c1:
                    7f:44:9a:2e:e6:fa:25:63:da:5b:ba:e4:94:d7:43:
                    a0:96:9a:1e:de:b3:d2:d8:be:68:fd:d9:e9:87:c8:
                    14:23:7b:2d:b6:2c:30:92:04:57:44:19:8b:07:9e:
                    d8:68:34:1f:c0:c2:81:35:76:30:19:5b:33:5e:87:
                    a3:2b:2c:5d:6b:ab:e8:2e:5a:8f:cc:1e:7e:20:e3:
                    3b:10:a8:1b:cf:10:57:21:cc:7e:90:4a:7d:17:52:
                    90:c7:11:5d:52:a8:95:3f:4a:0a:a1:8c:40:b5:d0:
                    9e:11:9d:14:eb:61:66:f2:54:78:66:3b:a3:d8:a0:
                    b7:3d:c3:7c:b3:f4:2a:f0:e3:c3:88:80:dc:aa:8b:
                    2e:df:43:5b:6c:c9:c0:3c:fb:9c:4b:d7:25:e9:19:
                    ff:e9:9f:ef:4f:da:b6:c6:6f:5b:03:d2:d3:95:3d:
                    5a:d7:83:ee:57:14:a8:99:dc:8c:c5:ad:01:41:62:
                    2c:2d:1e:d5:ac:fd:25:be:1d:d1:3a:85:4d:74:05:
                    c5:8d:98:bd:33:d4:02:1c:28:06:d7:2f:ae:c8:c2:
                    a4:c1:4c:85:b1:79:ee:0b:a0:91:74:f7:26:25:2b:
                    01:db:89:6b:32:5e:bb:88:e4:c1:9a:21:88:6a:b1:
                    d7:59:0f:9b:eb:24:e4:83:81:30:ba:82:4d:7b:4e:
                    74:4f:f5:6c:58:95:4f:50:b9:87:be:15:18:6f:85:
                    03:40:a5:8e:c0:fb:58:e3:eb:26:de:6e:26:42:be:
                    a8:bd:03:c2:1a:9f:ee:88:69:33:2a:6e:db:bf:de:
                    f0:95:fe:e1:e9:28:f0:27:d0:89:a7:dc:75:ab:4b:
                    8c:85:79:a6:47:d7:05:12:0f:e9:1e:31:93:4a:7c:
                    5a:b1:96:2d:17:21:4e:66:98:37:ed:91:0a:f3:10:
                    a0:81:f7:2f:ef:4e:31:02:f6:86:51:cc:e2:67:4a:
                    c5:69:4d:e1:40:7c:1a:ae:0f:03:51:38:2f:f2:8c:
                    b9:f8:69
                Exponent: 65537 (0x10001)
        X509v3 extensions:
            X509v3 Basic Constraints: 
                CA:FALSE
            Netscape Comment: 
                Easy-RSA Generated Certificate
            X509v3 Subject Key Identifier: 
                47:40:2B:62:1A:93:1C:96:52:13:E6:6C:BB:51:26:14:29:79:D0:D7
            X509v3 Authority Key Identifier: 
                keyid:12:CD:60:04:D2:A0:80:9E:70:ED:C6:99:B8:7B:2C:C6:52:FD:19:A1
                DirName:/C=US/ST=OH/L=Columbus/O=VikingVPN/OU=MyOrganizationalUnit/CN=VikingVPN CA/name=EasyRSA/emailAddress=me@myhost.mydomain
                serial:CF:35:85:EE:80:BF:2A:3E

            X509v3 Extended Key Usage: 
                TLS Web Client Authentication
            X509v3 Key Usage: 
                Digital Signature
    Signature Algorithm: md5WithRSAEncryption
         cd:fb:4e:8e:51:2b:02:21:5f:d3:04:c5:31:20:63:82:22:1c:
         f4:92:9e:dd:c0:fd:a2:13:ef:a6:93:a6:02:ff:dc:79:d5:53:
         81:81:7a:f6:53:2d:68:30:cf:e7:58:49:86:78:5f:90:63:b3:
         8d:f2:d9:e8:cf:21:36:d3:f1:06:a3:d7:a1:2c:31:53:a9:1a:
         08:5d:70:1c:ff:6e:7b:50:3c:4a:eb:92:eb:e7:8a:28:00:18:
         a8:65:8f:c4:67:e4:31:cd:4d:a9:9b:1e:13:b8:9d:15:a2:72:
         f0:68:e2:eb:7e:c6:c5:6f:0e:5d:08:75:5d:ae:8d:98:f4:1f:
         3f:ca:df:6c:3a:d0:ee:da:bd:ec:46:d8:58:9f:8a:a7:80:bd:
         21:e6:b5:a4:5a:80:a1:1b:56:16:98:d4:dc:3a:02:88:27:a5:
         1f:e9:7d:30:1a:27:42:7d:36:fa:6f:eb:1a:a4:7f:f4:3b:02:
         75:20:f1:80:c0:46:01:1e:6e:ef:04:bd:71:fb:57:99:ae:73:
         ba:65:a9:15:3e:69:1d:ce:0a:10:31:39:d7:7a:55:fd:fc:c9:
         5e:78:26:03:7c:25:74:f6:4b:8b:4c:59:cb:ce:27:ec:2b:a7:
         6b:43:3d:ff:16:9e:3b:3c:c7:5f:74:c2:1f:d2:f6:64:a5:38:
         54:3b:df:cf:94:52:57:cf:89:c2:fe:6b:a7:86:7e:f4:9e:ed:
         23:a8:d4:71:91:f6:de:ae:a0:5c:c6:48:9a:aa:82:24:17:3e:
         b1:3f:09:6d:b1:ea:f3:9b:e2:03:b6:0f:78:5d:10:4f:76:3d:
         3e:6f:42:99:98:97:3d:b3:7b:ca:73:aa:4a:a7:4e:a4:2b:25:
         1c:40:e0:18:83:2d:ad:3f:7c:14:df:b9:02:99:95:ab:62:bc:
         e6:94:2e:0b:f4:dc:46:d8:1c:ec:71:b0:83:01:19:04:db:f5:
         fa:fc:e6:01:c6:67:ec:da:7f:bd:49:a1:02:84:de:3e:9e:93:
         69:53:43:ea:f9:a1:57:47:5d:db:83:79:87:bf:99:76:e6:6b:
         44:a8:fa:a9:24:06:9f:c1:2b:89:f7:fd:88:ad:0c:30:8d:93:
         8e:d3:87:6d:b4:b3:cd:b1:7e:14:f4:21:22:e2:42:6e:28:a3:
         08:b8:5c:a6:fd:c5:64:d0:f4:ae:3a:8c:62:26:20:4c:b7:5b:
         ad:f8:f0:e5:a3:4a:28:9e:4a:95:8f:ba:5d:37:f0:4b:ae:b3:
         02:a5:1e:65:ad:53:c3:49:2a:7d:5f:7f:91:89:e9:fc:ff:db:
         38:73:5f:13:7b:90:de:c7:de:91:6a:c3:f3:68:80:72:26:93:
         c5:b1:1f:8f:81:8b:99:92
-----BEGIN CERTIFICATE-----
MIIGrTCCBJWgAwIBAgICFiYwDQYJKoZIhvcNAQEEBQAwgawxCzAJBgNVBAYTAlVT
MQswCQYDVQQIEwJPSDERMA8GA1UEBxMIQ29sdW1idXMxEjAQBgNVBAoTCVZpa2lu
Z1ZQTjEdMBsGA1UECxMUTXlPcmdhbml6YXRpb25hbFVuaXQxFTATBgNVBAMTDFZp
a2luZ1ZQTiBDQTEQMA4GA1UEKRMHRWFzeVJTQTEhMB8GCSqGSIb3DQEJARYSbWVA
bXlob3N0Lm15ZG9tYWluMB4XDTE1MDcwMjAwMjcwMFoXDTI1MDYyOTAwMjcwMFow
HzEdMBsGA1UEAxMUQ2xpZW50MTc3NkNlcnQwNmVmNmUwggIiMA0GCSqGSIb3DQEB
AQUAA4ICDwAwggIKAoICAQDSxf2eHaPDu3DYB8hkBlIl17W7IIJYAppbphQDaXlO
yYx8yGD1rmHSyD5hu4iHrQPrla+OYMnguFv0voLqwt1/JaRCspvIBtKH6pS3WVLQ
MDIQkEoOfBf768MpVU5fWPnHpUdLHg14yXpeBZzar4rxFVRyb76OEkmawZ4xjFCS
WVZpxDexwX9Emi7m+iVj2lu65JTXQ6CWmh7es9LYvmj92emHyBQjey22LDCSBFdE
GYsHnthoNB/AwoE1djAZWzNeh6MrLF1rq+guWo/MHn4g4zsQqBvPEFchzH6QSn0X
UpDHEV1SqJU/SgqhjEC10J4RnRTrYWbyVHhmO6PYoLc9w3yz9Crw48OIgNyqiy7f
Q1tsycA8+5xL1yXpGf/pn+9P2rbGb1sD0tOVPVrXg+5XFKiZ3IzFrQFBYiwtHtWs
/SW+HdE6hU10BcWNmL0z1AIcKAbXL67IwqTBTIWxee4LoJF09yYlKwHbiWsyXruI
5MGaIYhqsddZD5vrJOSDgTC6gk17TnRP9WxYlU9QuYe+FRhvhQNApY7A+1jj6ybe
biZCvqi9A8Ian+6IaTMqbtu/3vCV/uHpKPAn0Imn3HWrS4yFeaZH1wUSD+keMZNK
fFqxli0XIU5mmDftkQrzEKCB9y/vTjEC9oZRzOJnSsVpTeFAfBquDwNROC/yjLn4
aQIDAQABo4IBYzCCAV8wCQYDVR0TBAIwADAtBglghkgBhvhCAQ0EIBYeRWFzeS1S
U0EgR2VuZXJhdGVkIENlcnRpZmljYXRlMB0GA1UdDgQWBBRHQCtiGpMcllIT5my7
USYUKXnQ1zCB4QYDVR0jBIHZMIHWgBQSzWAE0qCAnnDtxpm4eyzGUv0ZoaGBsqSB
rzCBrDELMAkGA1UEBhMCVVMxCzAJBgNVBAgTAk9IMREwDwYDVQQHEwhDb2x1bWJ1
czESMBAGA1UEChMJVmlraW5nVlBOMR0wGwYDVQQLExRNeU9yZ2FuaXphdGlvbmFs
VW5pdDEVMBMGA1UEAxMMVmlraW5nVlBOIENBMRAwDgYDVQQpEwdFYXN5UlNBMSEw
HwYJKoZIhvcNAQkBFhJtZUBteWhvc3QubXlkb21haW6CCQDPNYXugL8qPjATBgNV
HSUEDDAKBggrBgEFBQcDAjALBgNVHQ8EBAMCB4AwDQYJKoZIhvcNAQEEBQADggIB
AM37To5RKwIhX9MExTEgY4IiHPSSnt3A/aIT76aTpgL/3HnVU4GBevZTLWgwz+dY
SYZ4X5Bjs43y2ejPITbT8Qaj16EsMVOpGghdcBz/bntQPErrkuvniigAGKhlj8Rn
5DHNTambHhO4nRWicvBo4ut+xsVvDl0IdV2ujZj0Hz/K32w60O7avexG2FifiqeA
vSHmtaRagKEbVhaY1Nw6AognpR/pfTAaJ0J9Nvpv6xqkf/Q7AnUg8YDARgEebu8E
vXH7V5muc7plqRU+aR3OChAxOdd6Vf38yV54JgN8JXT2S4tMWcvOJ+wrp2tDPf8W
njs8x190wh/S9mSlOFQ738+UUlfPicL+a6eGfvSe7SOo1HGR9t6uoFzGSJqqgiQX
PrE/CW2x6vOb4gO2D3hdEE92PT5vQpmYlz2ze8pzqkqnTqQrJRxA4BiDLa0/fBTf
uQKZlativOaULgv03EbYHOxxsIMBGQTb9fr85gHGZ+zaf71JoQKE3j6ek2lTQ+r5
oVdHXduDeYe/mXbma0So+qkkBp/BK4n3/YitDDCNk47Th220s82xfhT0ISLiQm4o
owi4XKb9xWTQ9K46jGImIEy3W6348OWjSiieSpWPul038EuuswKlHmWtU8NJKn1f
f5GJ6fz/2zhzXxN7kN7H3pFqw/NogHImk8WxH4+Bi5mS
-----END CERTIFICATE-----
