Certificate:
    Data:
        Version: 3 (0x2)
        Serial Number: 7234 (0x1c42)
    Signature Algorithm: md5WithRSAEncryption
        Issuer: C=US, ST=OH, L=Columbus, O=VikingVPN, OU=MyOrganizationalUnit, CN=VikingVPN CA/name=EasyRSA/emailAddress=me@myhost.mydomain
        Validity
            Not Before: Feb 20 07:12:01 2016 GMT
            Not After : Feb 17 07:12:01 2026 GMT
        Subject: CN=Client2186Cert7641fd
        Subject Public Key Info:
            Public Key Algorithm: rsaEncryption
                Public-Key: (4096 bit)
                Modulus:
                    00:cc:a0:87:2e:27:50:24:92:6d:6a:fd:c2:cd:8d:
                    ce:9c:00:26:df:9b:06:3b:c1:85:34:70:a1:7f:5c:
                    72:c9:80:f9:48:08:a8:68:8d:ea:12:09:0d:d9:05:
                    98:54:fc:31:7d:8c:09:a4:85:08:d0:59:77:ca:4e:
                    e6:16:8e:7e:9c:dd:d2:9a:8c:50:60:c9:c5:6a:95:
                    c6:ba:c0:25:db:3d:1e:c5:7a:dd:f4:7b:0e:f3:5f:
                    76:4d:92:fb:56:b1:a5:03:b1:be:20:b1:68:dd:68:
                    dc:59:4e:ff:24:7e:84:00:7a:ea:4d:fc:c1:e3:fd:
                    10:06:a2:14:26:8a:d3:b2:c3:83:aa:ad:0b:ed:b4:
                    6b:cf:c7:26:27:dd:30:50:d2:d8:9e:73:36:3e:78:
                    42:fb:64:1a:5b:4a:cc:d2:c6:f1:87:a9:dd:e8:36:
                    61:7e:92:0a:96:a5:45:79:56:97:ab:2e:85:f0:5d:
                    2a:53:e9:33:4a:a5:e7:38:a1:6e:94:11:8c:a4:c1:
                    26:cd:4d:45:18:4d:a4:c2:28:96:e1:5a:08:4a:f8:
                    79:26:01:00:bc:74:f3:05:56:30:de:c3:23:93:3f:
                    de:65:13:3c:c6:b0:43:60:f4:f5:c1:ba:fe:8b:60:
                    97:df:4c:e5:b1:fa:f7:d6:93:79:16:b1:73:fe:ab:
                    02:2e:7d:c7:da:d6:f8:cb:b1:79:7a:34:8c:da:4a:
                    0d:8a:b0:a0:48:d8:60:14:eb:d2:f2:25:51:20:51:
                    a6:b1:65:5c:c0:ef:4d:b5:23:30:59:35:4a:8d:cd:
                    cb:61:23:8d:09:98:ca:7d:d7:69:fc:4d:6d:6e:12:
                    d6:e5:2b:0e:6b:d5:54:57:be:02:03:e5:80:cc:d1:
                    75:82:c3:3e:ea:eb:ea:be:6c:f6:91:4f:fd:f6:2b:
                    08:fb:1d:66:22:43:7e:e6:45:83:dd:c9:41:c4:1d:
                    4a:2c:98:be:da:42:00:ed:6e:4c:2a:3f:93:b2:87:
                    f2:22:11:4b:40:89:91:cf:d9:92:aa:bd:78:15:8e:
                    c9:61:66:3e:0c:8a:f6:77:54:3b:82:5c:f6:a3:18:
                    74:15:3e:4d:61:1d:cf:65:b4:8b:97:3b:be:94:2c:
                    15:1b:4d:eb:c7:ca:d7:dc:9b:9d:2c:37:e2:55:3a:
                    b7:14:2e:7a:8e:93:65:f9:95:bb:c4:cb:49:80:8a:
                    1a:95:13:4f:85:74:94:74:75:d7:9d:27:65:dd:35:
                    ec:08:5f:fc:05:e7:32:c0:d1:77:ac:10:7b:fd:be:
                    4f:d1:d6:75:f8:bd:87:d0:78:d2:11:3a:c7:0a:c9:
                    02:54:9e:e2:f1:30:0a:9e:38:57:72:42:a4:0f:e0:
                    4b:e0:13
                Exponent: 65537 (0x10001)
        X509v3 extensions:
            X509v3 Basic Constraints: 
                CA:FALSE
            Netscape Comment: 
                Easy-RSA Generated Certificate
            X509v3 Subject Key Identifier: 
                45:73:15:19:53:5C:67:28:25:F2:A0:40:E0:9E:72:4B:8A:CC:B1:34
            X509v3 Authority Key Identifier: 
                keyid:12:CD:60:04:D2:A0:80:9E:70:ED:C6:99:B8:7B:2C:C6:52:FD:19:A1
                DirName:/C=US/ST=OH/L=Columbus/O=VikingVPN/OU=MyOrganizationalUnit/CN=VikingVPN CA/name=EasyRSA/emailAddress=me@myhost.mydomain
                serial:CF:35:85:EE:80:BF:2A:3E

            X509v3 Extended Key Usage: 
                TLS Web Client Authentication
            X509v3 Key Usage: 
                Digital Signature
    Signature Algorithm: md5WithRSAEncryption
         aa:3b:77:29:41:e2:2f:bd:22:26:fd:13:b7:7a:26:6b:89:d2:
         32:c6:58:36:78:92:fd:29:ba:bd:22:29:32:64:73:2d:2b:1f:
         31:ed:9a:f7:bf:78:e4:03:ca:2b:d0:23:2b:2e:22:ce:4a:6b:
         b9:1c:3f:a9:36:42:8f:38:59:62:18:6b:bd:61:db:b5:68:62:
         89:4e:ea:ed:f9:c7:af:5d:68:cc:3e:18:31:28:87:08:45:52:
         74:10:a7:88:78:0c:c9:f8:2a:b6:51:9c:43:9d:d1:7c:62:d5:
         70:61:d3:12:88:09:7a:00:fd:09:d3:6b:ea:d9:46:e9:a4:45:
         0d:34:30:a5:c0:a5:80:37:5a:60:78:96:6e:62:24:0a:78:53:
         6f:bb:43:b8:ad:7e:77:38:d0:bb:f3:f8:1f:1f:6e:da:d8:17:
         82:98:cc:3a:c6:58:d6:25:74:a2:8b:67:4c:21:e9:1b:0e:0b:
         84:77:5b:68:15:ee:bd:97:38:a9:80:b9:6c:22:b0:84:fa:1b:
         b1:54:ef:31:35:38:49:c9:de:d3:d2:db:a9:b2:6a:14:d6:53:
         e2:ea:2a:cd:a1:68:c0:d3:26:db:bc:78:fc:11:cb:e3:52:bb:
         e7:35:24:90:0b:0d:a6:f5:6e:fb:a9:78:98:00:ed:9f:c8:f2:
         8a:50:e8:88:bb:47:d3:cb:35:6b:8b:27:75:e3:36:fc:58:3b:
         e4:d5:ea:9c:c0:85:cf:28:b6:71:0e:9a:b7:ad:50:70:03:bd:
         a1:9d:ec:80:28:07:9c:10:11:2c:15:2d:27:20:68:28:a7:e2:
         14:45:0e:fc:da:52:50:dc:4b:fb:6f:77:0a:3d:f1:31:58:93:
         15:ba:be:83:4e:d1:f8:e9:9a:74:5f:67:59:05:55:1a:63:6d:
         b9:7a:4b:e9:a5:a3:67:54:43:3a:64:74:1b:7e:23:66:11:b3:
         bc:89:81:54:97:bf:15:75:44:4a:ef:0e:ee:22:8a:5f:19:7e:
         e4:9f:fc:cb:68:56:9b:1f:b6:e2:53:1c:ac:0c:c4:c1:c8:fc:
         1e:8d:a4:e0:a5:f2:80:99:18:16:68:6c:d6:7d:47:0b:9b:89:
         e6:cb:67:be:e3:04:3a:c6:36:f5:04:dd:0a:33:06:36:c7:fd:
         3a:e5:d5:8d:dd:8d:b4:84:0e:15:e9:6b:e2:31:76:75:07:f7:
         ab:ba:f5:1b:c2:4e:50:8d:5a:a1:cb:ab:37:80:b5:7f:52:9e:
         02:98:76:76:2d:88:85:fd:f9:3f:f2:10:f2:a1:56:b4:f1:58:
         a8:7a:59:76:46:57:13:f0:2a:8e:b7:1e:e4:c1:5b:22:54:1a:
         d7:a7:52:0e:f9:47:0e:8a
-----BEGIN CERTIFICATE-----
MIIGrTCCBJWgAwIBAgICHEIwDQYJKoZIhvcNAQEEBQAwgawxCzAJBgNVBAYTAlVT
MQswCQYDVQQIEwJPSDERMA8GA1UEBxMIQ29sdW1idXMxEjAQBgNVBAoTCVZpa2lu
Z1ZQTjEdMBsGA1UECxMUTXlPcmdhbml6YXRpb25hbFVuaXQxFTATBgNVBAMTDFZp
a2luZ1ZQTiBDQTEQMA4GA1UEKRMHRWFzeVJTQTEhMB8GCSqGSIb3DQEJARYSbWVA
bXlob3N0Lm15ZG9tYWluMB4XDTE2MDIyMDA3MTIwMVoXDTI2MDIxNzA3MTIwMVow
HzEdMBsGA1UEAxMUQ2xpZW50MjE4NkNlcnQ3NjQxZmQwggIiMA0GCSqGSIb3DQEB
AQUAA4ICDwAwggIKAoICAQDMoIcuJ1Akkm1q/cLNjc6cACbfmwY7wYU0cKF/XHLJ
gPlICKhojeoSCQ3ZBZhU/DF9jAmkhQjQWXfKTuYWjn6c3dKajFBgycVqlca6wCXb
PR7Fet30ew7zX3ZNkvtWsaUDsb4gsWjdaNxZTv8kfoQAeupN/MHj/RAGohQmitOy
w4OqrQvttGvPxyYn3TBQ0tieczY+eEL7ZBpbSszSxvGHqd3oNmF+kgqWpUV5Vper
LoXwXSpT6TNKpec4oW6UEYykwSbNTUUYTaTCKJbhWghK+HkmAQC8dPMFVjDewyOT
P95lEzzGsENg9PXBuv6LYJffTOWx+vfWk3kWsXP+qwIufcfa1vjLsXl6NIzaSg2K
sKBI2GAU69LyJVEgUaaxZVzA7021IzBZNUqNzcthI40JmMp912n8TW1uEtblKw5r
1VRXvgID5YDM0XWCwz7q6+q+bPaRT/32Kwj7HWYiQ37mRYPdyUHEHUosmL7aQgDt
bkwqP5Oyh/IiEUtAiZHP2ZKqvXgVjslhZj4MivZ3VDuCXPajGHQVPk1hHc9ltIuX
O76ULBUbTevHytfcm50sN+JVOrcULnqOk2X5lbvEy0mAihqVE0+FdJR0ddedJ2Xd
NewIX/wF5zLA0XesEHv9vk/R1nX4vYfQeNIROscKyQJUnuLxMAqeOFdyQqQP4Evg
EwIDAQABo4IBYzCCAV8wCQYDVR0TBAIwADAtBglghkgBhvhCAQ0EIBYeRWFzeS1S
U0EgR2VuZXJhdGVkIENlcnRpZmljYXRlMB0GA1UdDgQWBBRFcxUZU1xnKCXyoEDg
nnJLisyxNDCB4QYDVR0jBIHZMIHWgBQSzWAE0qCAnnDtxpm4eyzGUv0ZoaGBsqSB
rzCBrDELMAkGA1UEBhMCVVMxCzAJBgNVBAgTAk9IMREwDwYDVQQHEwhDb2x1bWJ1
czESMBAGA1UEChMJVmlraW5nVlBOMR0wGwYDVQQLExRNeU9yZ2FuaXphdGlvbmFs
VW5pdDEVMBMGA1UEAxMMVmlraW5nVlBOIENBMRAwDgYDVQQpEwdFYXN5UlNBMSEw
HwYJKoZIhvcNAQkBFhJtZUBteWhvc3QubXlkb21haW6CCQDPNYXugL8qPjATBgNV
HSUEDDAKBggrBgEFBQcDAjALBgNVHQ8EBAMCB4AwDQYJKoZIhvcNAQEEBQADggIB
AKo7dylB4i+9Iib9E7d6JmuJ0jLGWDZ4kv0pur0iKTJkcy0rHzHtmve/eOQDyivQ
IysuIs5Ka7kcP6k2Qo84WWIYa71h27VoYolO6u35x69daMw+GDEohwhFUnQQp4h4
DMn4KrZRnEOd0Xxi1XBh0xKICXoA/QnTa+rZRumkRQ00MKXApYA3WmB4lm5iJAp4
U2+7Q7itfnc40Lvz+B8fbtrYF4KYzDrGWNYldKKLZ0wh6RsOC4R3W2gV7r2XOKmA
uWwisIT6G7FU7zE1OEnJ3tPS26myahTWU+LqKs2haMDTJtu8ePwRy+NSu+c1JJAL
Dab1bvupeJgA7Z/I8opQ6Ii7R9PLNWuLJ3XjNvxYO+TV6pzAhc8otnEOmretUHAD
vaGd7IAoB5wQESwVLScgaCin4hRFDvzaUlDcS/tvdwo98TFYkxW6voNO0fjpmnRf
Z1kFVRpjbbl6S+mlo2dUQzpkdBt+I2YRs7yJgVSXvxV1RErvDu4iil8ZfuSf/Mto
VpsftuJTHKwMxMHI/B6NpOCl8oCZGBZobNZ9RwubiebLZ77jBDrGNvUE3QozBjbH
/Trl1Y3djbSEDhXpa+IxdnUH96u69RvCTlCNWqHLqzeAtX9SngKYdnYtiIX9+T/y
EPKhVrTxWKh6WXZGVxPwKo63HuTBWyJUGtenUg75Rw6K
-----END CERTIFICATE-----
