Certificate:
    Data:
        Version: 3 (0x2)
        Serial Number: 4459 (0x116b)
    Signature Algorithm: md5WithRSAEncryption
        Issuer: C=US, ST=OH, L=Columbus, O=VikingVPN, OU=MyOrganizationalUnit, CN=VikingVPN CA/name=EasyRSA/emailAddress=me@myhost.mydomain
        Validity
            Not Before: Feb 14 01:56:45 2015 GMT
            Not After : Feb 11 01:56:45 2025 GMT
        Subject: CN=Client436Certa86c3b
        Subject Public Key Info:
            Public Key Algorithm: rsaEncryption
                Public-Key: (4096 bit)
                Modulus:
                    00:b6:c8:be:05:51:70:6d:31:e3:65:df:1f:c6:63:
                    1f:78:24:53:7c:e2:d6:d8:ad:d5:e1:20:9e:18:60:
                    b0:19:3d:85:55:d1:7f:6b:87:5e:71:71:b8:85:7a:
                    56:26:74:22:4f:63:29:d7:9c:52:23:75:fb:f6:d6:
                    32:3f:cd:35:21:a4:33:bf:9e:a9:76:4e:e1:c9:38:
                    14:b6:cf:41:93:ff:f8:ea:30:40:73:3c:66:14:c6:
                    18:2e:b7:f0:02:c5:64:9e:11:9b:8b:16:1b:f1:90:
                    3d:21:23:66:b2:64:a4:bd:0d:4b:1d:f2:89:65:c7:
                    09:1f:15:88:17:8f:59:33:ea:39:fd:29:a2:b7:40:
                    a5:fa:7f:a6:b8:9e:1f:27:99:83:77:65:be:83:31:
                    56:00:76:a4:4c:0d:77:a6:50:86:54:36:35:e7:4f:
                    1e:b4:b6:e1:d6:93:d8:9b:f5:5f:78:c8:ab:66:65:
                    21:56:ba:a6:a9:cb:52:13:9f:f4:b2:d8:d7:fa:6e:
                    19:ee:9f:ed:a4:27:39:c7:ea:b7:fc:9a:eb:29:3e:
                    58:1c:05:78:07:ae:65:4a:8f:6a:2e:84:08:90:cf:
                    b7:f4:36:7b:96:c4:70:09:b8:94:fa:64:e1:f9:d5:
                    fb:f6:a0:65:a1:f4:a8:96:90:e7:3d:6e:5b:bd:b0:
                    f4:2b:3b:0a:38:77:7f:1b:c1:20:7a:7c:27:95:1e:
                    48:45:d0:d8:2d:a6:60:83:da:f2:32:c0:74:56:0c:
                    b5:a2:2a:72:7c:a5:64:bf:3e:37:8f:55:78:a0:9c:
                    14:ef:a6:b1:47:3a:7a:b4:5d:bb:60:40:b0:a7:eb:
                    59:a5:5b:7c:89:c4:11:ac:f2:34:8b:83:b8:57:d6:
                    cc:4b:57:d8:0d:c8:44:2e:ee:90:ee:bd:94:2c:33:
                    e9:e2:40:32:4f:f3:a1:66:c0:13:be:97:0c:1b:42:
                    4a:48:3c:32:d1:cb:b5:b1:7f:69:90:18:e7:28:49:
                    a5:e9:f8:c4:6c:fb:63:c0:a9:a5:91:34:82:e5:d0:
                    fa:63:76:82:7a:14:f4:26:e2:ca:f4:61:c8:f2:44:
                    22:38:55:a7:9b:28:ef:e7:db:31:e6:f1:c5:3d:56:
                    8f:35:59:e8:67:6f:a1:32:0f:ac:21:f0:b2:3c:df:
                    ec:16:0e:06:ae:5d:c4:41:84:6f:42:b3:20:c4:9f:
                    16:d2:4a:20:1b:7e:fc:ce:e2:b8:0d:b7:2e:40:7e:
                    68:86:01:01:d9:68:fb:ff:eb:09:bb:aa:19:21:4c:
                    37:f5:cb:76:8a:12:2d:cb:19:16:51:56:cd:56:92:
                    b1:3c:21:89:8d:d4:fa:9d:b3:35:4d:51:91:f3:18:
                    8c:7e:ab
                Exponent: 65537 (0x10001)
        X509v3 extensions:
            X509v3 Basic Constraints: 
                CA:FALSE
            Netscape Comment: 
                Easy-RSA Generated Certificate
            X509v3 Subject Key Identifier: 
                33:C4:8D:21:4F:24:E0:00:14:D8:08:6C:F7:A3:00:3C:18:5C:79:03
            X509v3 Authority Key Identifier: 
                keyid:12:CD:60:04:D2:A0:80:9E:70:ED:C6:99:B8:7B:2C:C6:52:FD:19:A1
                DirName:/C=US/ST=OH/L=Columbus/O=VikingVPN/OU=MyOrganizationalUnit/CN=VikingVPN CA/name=EasyRSA/emailAddress=me@myhost.mydomain
                serial:CF:35:85:EE:80:BF:2A:3E

            X509v3 Extended Key Usage: 
                TLS Web Client Authentication
            X509v3 Key Usage: 
                Digital Signature
    Signature Algorithm: md5WithRSAEncryption
         6c:7b:a7:5c:76:d4:a1:d8:ae:64:f8:f3:fe:d0:6c:a8:e2:5b:
         ab:f2:82:fb:e0:62:44:6c:55:7f:9f:05:d6:a2:12:65:bc:3a:
         88:6d:ca:52:99:e9:23:72:67:9c:bc:ed:0c:8c:97:a8:de:da:
         71:da:d4:fc:23:8b:96:4c:10:aa:4d:5c:b8:cd:d4:e0:52:e9:
         43:37:80:17:0a:d8:c6:f2:94:06:b8:93:b6:99:fe:39:59:fe:
         4b:16:0a:a9:72:5a:ed:f2:63:aa:0a:fa:3b:29:8f:21:cc:4b:
         c4:1d:42:78:b0:1b:08:0c:bf:44:0d:ee:9b:41:03:59:7f:76:
         cb:66:5d:a7:27:31:37:dc:9e:8f:7f:c0:36:4d:15:85:bd:a8:
         e5:c6:b2:f4:27:0d:e4:33:bf:7d:f7:a8:16:32:ad:ec:69:52:
         55:b7:37:69:9b:d7:2c:bc:c5:45:d6:06:0b:6f:98:58:f9:af:
         4f:81:d8:b6:32:c7:0b:64:97:1c:7a:7d:8e:69:30:56:60:12:
         6e:87:26:4a:79:c5:5b:d6:08:5b:99:28:2d:8f:d9:b6:b3:81:
         c4:2b:c3:61:41:4d:34:4e:37:88:ec:83:90:d5:5f:83:3c:1a:
         c6:0b:d8:52:04:d2:87:41:ec:b7:c8:d8:90:2f:d6:7b:7a:49:
         8d:0a:4e:59:9a:67:eb:02:60:a2:b9:8a:2d:23:3f:ec:69:0f:
         5a:83:aa:3c:d8:ee:c5:1d:9d:dd:9b:97:b0:0f:79:15:21:59:
         53:12:28:75:84:08:8e:5e:2c:26:91:7a:f8:13:b0:bf:7a:78:
         cf:df:e1:5a:63:b5:3b:b0:96:ad:aa:da:d0:90:e8:b9:ab:8f:
         b3:c5:87:0c:82:a8:27:cd:96:5a:98:e3:9c:b8:b8:dd:12:af:
         27:c7:36:5b:cb:d4:cc:69:4c:67:67:c8:35:6a:1e:ec:36:09:
         00:d2:e6:fc:20:3a:48:fc:d5:10:1f:df:37:74:4c:de:a2:bd:
         6a:86:bd:b3:ce:b3:85:f3:10:5c:46:85:a7:fa:7a:d9:e6:e9:
         74:60:37:a2:40:b6:1b:2d:eb:15:de:cc:0f:6a:cf:5d:4a:7b:
         fb:dc:07:cf:7b:bd:b2:9b:9d:6a:7b:77:d9:3c:9f:64:a9:83:
         4a:58:71:d6:22:c0:44:d3:96:b4:aa:38:61:db:82:22:45:93:
         16:41:c0:8a:74:3b:4f:c4:33:53:a2:1f:5d:f6:9b:1b:2a:be:
         00:ce:4e:96:18:35:8f:d8:8a:93:a2:66:95:94:19:b6:12:af:
         fa:5e:1a:ee:56:a7:c6:19:eb:9f:62:21:38:c7:54:e6:d0:e1:
         0a:7e:ba:27:96:bb:ba:37
-----BEGIN CERTIFICATE-----
MIIGrDCCBJSgAwIBAgICEWswDQYJKoZIhvcNAQEEBQAwgawxCzAJBgNVBAYTAlVT
MQswCQYDVQQIEwJPSDERMA8GA1UEBxMIQ29sdW1idXMxEjAQBgNVBAoTCVZpa2lu
Z1ZQTjEdMBsGA1UECxMUTXlPcmdhbml6YXRpb25hbFVuaXQxFTATBgNVBAMTDFZp
a2luZ1ZQTiBDQTEQMA4GA1UEKRMHRWFzeVJTQTEhMB8GCSqGSIb3DQEJARYSbWVA
bXlob3N0Lm15ZG9tYWluMB4XDTE1MDIxNDAxNTY0NVoXDTI1MDIxMTAxNTY0NVow
HjEcMBoGA1UEAxMTQ2xpZW50NDM2Q2VydGE4NmMzYjCCAiIwDQYJKoZIhvcNAQEB
BQADggIPADCCAgoCggIBALbIvgVRcG0x42XfH8ZjH3gkU3zi1tit1eEgnhhgsBk9
hVXRf2uHXnFxuIV6ViZ0Ik9jKdecUiN1+/bWMj/NNSGkM7+eqXZO4ck4FLbPQZP/
+OowQHM8ZhTGGC638ALFZJ4Rm4sWG/GQPSEjZrJkpL0NSx3yiWXHCR8ViBePWTPq
Of0pordApfp/prieHyeZg3dlvoMxVgB2pEwNd6ZQhlQ2NedPHrS24daT2Jv1X3jI
q2ZlIVa6pqnLUhOf9LLY1/puGe6f7aQnOcfqt/ya6yk+WBwFeAeuZUqPai6ECJDP
t/Q2e5bEcAm4lPpk4fnV+/agZaH0qJaQ5z1uW72w9Cs7Cjh3fxvBIHp8J5UeSEXQ
2C2mYIPa8jLAdFYMtaIqcnylZL8+N49VeKCcFO+msUc6erRdu2BAsKfrWaVbfInE
EazyNIuDuFfWzEtX2A3IRC7ukO69lCwz6eJAMk/zoWbAE76XDBtCSkg8MtHLtbF/
aZAY5yhJpen4xGz7Y8CppZE0guXQ+mN2gnoU9CbiyvRhyPJEIjhVp5so7+fbMebx
xT1WjzVZ6GdvoTIPrCHwsjzf7BYOBq5dxEGEb0KzIMSfFtJKIBt+/M7iuA23LkB+
aIYBAdlo+//rCbuqGSFMN/XLdooSLcsZFlFWzVaSsTwhiY3U+p2zNU1RkfMYjH6r
AgMBAAGjggFjMIIBXzAJBgNVHRMEAjAAMC0GCWCGSAGG+EIBDQQgFh5FYXN5LVJT
QSBHZW5lcmF0ZWQgQ2VydGlmaWNhdGUwHQYDVR0OBBYEFDPEjSFPJOAAFNgIbPej
ADwYXHkDMIHhBgNVHSMEgdkwgdaAFBLNYATSoICecO3Gmbh7LMZS/RmhoYGypIGv
MIGsMQswCQYDVQQGEwJVUzELMAkGA1UECBMCT0gxETAPBgNVBAcTCENvbHVtYnVz
MRIwEAYDVQQKEwlWaWtpbmdWUE4xHTAbBgNVBAsTFE15T3JnYW5pemF0aW9uYWxV
bml0MRUwEwYDVQQDEwxWaWtpbmdWUE4gQ0ExEDAOBgNVBCkTB0Vhc3lSU0ExITAf
BgkqhkiG9w0BCQEWEm1lQG15aG9zdC5teWRvbWFpboIJAM81he6Avyo+MBMGA1Ud
JQQMMAoGCCsGAQUFBwMCMAsGA1UdDwQEAwIHgDANBgkqhkiG9w0BAQQFAAOCAgEA
bHunXHbUodiuZPjz/tBsqOJbq/KC++BiRGxVf58F1qISZbw6iG3KUpnpI3JnnLzt
DIyXqN7acdrU/COLlkwQqk1cuM3U4FLpQzeAFwrYxvKUBriTtpn+OVn+SxYKqXJa
7fJjqgr6OymPIcxLxB1CeLAbCAy/RA3um0EDWX92y2ZdpycxN9yej3/ANk0Vhb2o
5cay9CcN5DO/ffeoFjKt7GlSVbc3aZvXLLzFRdYGC2+YWPmvT4HYtjLHC2SXHHp9
jmkwVmASbocmSnnFW9YIW5koLY/ZtrOBxCvDYUFNNE43iOyDkNVfgzwaxgvYUgTS
h0Hst8jYkC/We3pJjQpOWZpn6wJgormKLSM/7GkPWoOqPNjuxR2d3ZuXsA95FSFZ
UxIodYQIjl4sJpF6+BOwv3p4z9/hWmO1O7CWrara0JDouauPs8WHDIKoJ82WWpjj
nLi43RKvJ8c2W8vUzGlMZ2fINWoe7DYJANLm/CA6SPzVEB/fN3RM3qK9aoa9s86z
hfMQXEaFp/p62ebpdGA3okC2Gy3rFd7MD2rPXUp7+9wHz3u9spudant32TyfZKmD
Slhx1iLARNOWtKo4YduCIkWTFkHAinQ7T8QzU6IfXfabGyq+AM5Olhg1j9iKk6Jm
lZQZthKv+l4a7lanxhnrn2IhOMdU5tDhCn66J5a7ujc=
-----END CERTIFICATE-----
