Certificate:
    Data:
        Version: 3 (0x2)
        Serial Number: 2752 (0xac0)
    Signature Algorithm: md5WithRSAEncryption
        Issuer: C=US, ST=OH, L=Columbus, O=VikingVPN, OU=MyOrganizationalUnit, CN=VikingVPN CA/name=EasyRSA/emailAddress=me@myhost.mydomain
        Validity
            Not Before: Sep  2 23:00:48 2014 GMT
            Not After : Aug 30 23:00:48 2024 GMT
        Subject: CN=Client372Cert049bb1
        Subject Public Key Info:
            Public Key Algorithm: rsaEncryption
                Public-Key: (4096 bit)
                Modulus:
                    00:b8:03:c5:93:bf:e1:05:f3:af:87:3d:41:73:69:
                    38:cc:d0:c9:ef:71:63:6a:13:f7:57:1a:59:1a:b5:
                    e0:94:76:a8:d7:e7:e7:83:db:1b:89:a9:de:a5:35:
                    c4:b8:c0:e4:be:00:46:c4:08:0a:77:78:cd:cd:22:
                    84:6e:43:24:56:2f:26:74:5a:ec:99:dd:47:59:ee:
                    0c:89:38:66:48:d3:ca:8d:30:c0:85:30:62:bb:e3:
                    66:fc:8b:07:ee:98:07:3e:fb:d6:29:67:1e:4f:5f:
                    79:b6:c3:ea:2b:fb:2a:50:56:73:fa:44:cd:4f:ff:
                    ea:a8:44:73:61:37:ba:cd:82:63:ed:04:b2:a4:94:
                    a4:b9:b0:b1:11:3b:8a:ce:b0:a7:12:f2:2a:3b:a1:
                    3f:d9:8c:84:c9:95:92:bf:5b:f3:24:ea:03:74:31:
                    e2:7d:5f:d1:7b:a8:f3:87:ec:fb:79:79:d2:65:25:
                    66:d5:9f:e5:32:cb:40:63:e3:71:11:99:b4:58:24:
                    48:67:eb:53:29:f0:35:97:6b:23:43:43:83:44:a0:
                    b1:76:43:e7:57:ff:6e:3e:30:96:c1:ac:83:e9:a7:
                    55:f9:ce:4e:4c:de:ed:14:25:6e:13:a1:82:88:48:
                    6c:ce:2c:1e:50:0c:5f:c8:81:60:8e:26:11:33:59:
                    ba:10:67:84:d2:e6:5b:0b:77:52:5f:8c:52:17:9c:
                    a4:eb:4e:f3:09:5c:93:51:0b:21:c3:a3:4b:a4:61:
                    7c:9e:da:5d:e2:0e:7e:6c:6e:d1:cb:b8:9f:e4:fa:
                    10:71:92:6a:b2:18:cf:ad:a9:7f:69:4a:bc:41:5b:
                    a3:ec:47:19:7d:99:0a:83:71:07:62:f7:22:d9:cc:
                    65:89:a7:79:15:11:81:21:1d:0b:9d:0c:d7:29:f8:
                    b0:d1:60:0c:10:24:5c:26:43:a0:a0:6b:0c:70:44:
                    15:7f:3a:0b:ce:e8:1f:26:10:75:eb:8c:e0:9c:7d:
                    15:a0:f0:43:c5:b3:05:70:50:10:6f:3d:ad:39:d0:
                    f8:30:c2:d4:32:13:97:20:99:4a:34:d2:d8:99:2f:
                    10:e8:ee:8a:b2:04:98:d0:ef:b2:c4:20:fd:28:f6:
                    d3:63:41:d5:6f:fd:33:fa:be:ab:c3:f4:ad:2e:a3:
                    98:54:a9:70:70:d8:73:c7:b9:ae:2c:95:e8:9f:65:
                    6c:a6:77:58:bc:64:a0:cc:12:03:e8:16:6e:54:5d:
                    aa:b8:da:d6:14:4b:ad:24:79:9c:98:8d:1c:b5:55:
                    86:de:d9:34:f2:44:1e:cd:92:b5:dc:b9:8e:fa:9d:
                    ef:84:d6:70:c8:6d:6e:6c:2c:d0:1f:56:1e:7a:25:
                    f3:16:93
                Exponent: 65537 (0x10001)
        X509v3 extensions:
            X509v3 Basic Constraints: 
                CA:FALSE
            Netscape Comment: 
                Easy-RSA Generated Certificate
            X509v3 Subject Key Identifier: 
                E4:8A:28:0F:DF:CC:A9:53:B6:F3:A6:72:6F:A4:07:10:D8:AC:DA:4D
            X509v3 Authority Key Identifier: 
                keyid:12:CD:60:04:D2:A0:80:9E:70:ED:C6:99:B8:7B:2C:C6:52:FD:19:A1
                DirName:/C=US/ST=OH/L=Columbus/O=VikingVPN/OU=MyOrganizationalUnit/CN=VikingVPN CA/name=EasyRSA/emailAddress=me@myhost.mydomain
                serial:CF:35:85:EE:80:BF:2A:3E

            X509v3 Extended Key Usage: 
                TLS Web Client Authentication
            X509v3 Key Usage: 
                Digital Signature
    Signature Algorithm: md5WithRSAEncryption
         d2:7e:37:9a:b5:73:26:13:00:e5:a9:90:29:d4:9d:f5:ce:50:
         d9:9a:f8:e6:94:37:d2:93:bf:4e:f2:25:61:3b:89:d1:a9:0d:
         ec:0c:d3:97:7b:80:ec:d3:af:0b:c3:74:5e:72:1e:7d:88:ad:
         ce:61:f7:d8:71:8f:9b:57:d1:57:57:0b:1a:b5:5c:d2:bb:c4:
         7b:93:1c:f7:a2:17:d7:2b:9d:a4:bf:b2:f7:a7:26:f5:ae:f6:
         d3:6e:cf:8c:ef:52:af:48:5c:de:cb:77:d5:1c:1f:c2:cc:fa:
         c2:f4:37:fe:99:4b:96:a8:67:ce:8f:b7:82:a0:02:b5:a4:7e:
         82:1f:9a:54:ae:59:67:46:a0:13:a0:9d:00:e8:f0:1b:40:4a:
         6c:c2:20:df:15:68:d9:18:78:dc:ca:11:df:c7:ff:3b:ba:68:
         8d:0c:5b:75:1f:55:ed:6c:b9:fa:5b:f3:de:40:3e:36:36:69:
         80:d3:13:78:c9:a2:05:04:c3:6a:9e:49:09:b8:ee:0d:ae:a9:
         9e:21:e9:0c:9c:e6:22:45:a8:50:8d:f6:66:3f:ff:28:ec:bf:
         36:1b:24:76:0d:c0:4b:3b:91:a8:c0:98:99:50:ae:a8:22:7e:
         cf:84:16:33:67:e6:fa:28:c7:1f:0c:f5:ba:2d:9f:1c:a0:fa:
         0c:02:07:ab:4e:54:a2:59:07:1c:78:67:f2:18:f4:c4:05:fd:
         ad:a6:dc:d2:ab:a5:29:ce:58:85:20:ce:ca:09:98:20:e9:0b:
         2d:bd:9e:99:38:94:13:25:54:bb:7d:26:59:74:9b:13:45:ad:
         4d:1c:23:9a:2d:46:8b:20:b6:15:20:c9:eb:c8:48:de:79:69:
         f8:66:40:8d:15:2f:ad:49:0d:ee:e6:a6:33:43:b5:35:41:f9:
         21:aa:2e:78:95:05:8f:98:1b:e1:c3:51:42:0d:e1:2e:84:7b:
         9c:f4:9b:eb:4c:cb:ef:fc:0a:fe:be:20:89:76:b1:14:13:40:
         3d:43:e3:9a:a8:d5:ee:29:9d:61:9c:8b:72:05:f8:00:07:c2:
         ac:4e:aa:de:46:59:75:e4:87:6c:e3:5b:3d:3f:9c:1c:71:83:
         7a:1d:02:6d:0d:08:ed:28:0f:17:3e:7d:f1:e8:0f:29:ba:d4:
         ad:b3:4e:41:50:6d:07:a7:6f:66:25:ca:2e:31:38:f1:17:c3:
         9a:21:5a:b9:6d:da:5a:85:58:6b:ad:d9:83:02:1a:27:cb:da:
         35:f6:9c:a4:b7:ac:c8:56:63:9a:18:ff:54:b3:79:3a:bc:3f:
         9c:0c:71:d3:44:89:f3:61:eb:e0:13:d6:bc:2f:06:01:b2:01:
         ea:a0:67:50:78:b2:8f:ba
-----BEGIN CERTIFICATE-----
MIIGrDCCBJSgAwIBAgICCsAwDQYJKoZIhvcNAQEEBQAwgawxCzAJBgNVBAYTAlVT
MQswCQYDVQQIEwJPSDERMA8GA1UEBxMIQ29sdW1idXMxEjAQBgNVBAoTCVZpa2lu
Z1ZQTjEdMBsGA1UECxMUTXlPcmdhbml6YXRpb25hbFVuaXQxFTATBgNVBAMTDFZp
a2luZ1ZQTiBDQTEQMA4GA1UEKRMHRWFzeVJTQTEhMB8GCSqGSIb3DQEJARYSbWVA
bXlob3N0Lm15ZG9tYWluMB4XDTE0MDkwMjIzMDA0OFoXDTI0MDgzMDIzMDA0OFow
HjEcMBoGA1UEAxMTQ2xpZW50MzcyQ2VydDA0OWJiMTCCAiIwDQYJKoZIhvcNAQEB
BQADggIPADCCAgoCggIBALgDxZO/4QXzr4c9QXNpOMzQye9xY2oT91caWRq14JR2
qNfn54PbG4mp3qU1xLjA5L4ARsQICnd4zc0ihG5DJFYvJnRa7JndR1nuDIk4ZkjT
yo0wwIUwYrvjZvyLB+6YBz771ilnHk9febbD6iv7KlBWc/pEzU//6qhEc2E3us2C
Y+0EsqSUpLmwsRE7is6wpxLyKjuhP9mMhMmVkr9b8yTqA3Qx4n1f0Xuo84fs+3l5
0mUlZtWf5TLLQGPjcRGZtFgkSGfrUynwNZdrI0NDg0SgsXZD51f/bj4wlsGsg+mn
VfnOTkze7RQlbhOhgohIbM4sHlAMX8iBYI4mETNZuhBnhNLmWwt3Ul+MUhecpOtO
8wlck1ELIcOjS6RhfJ7aXeIOfmxu0cu4n+T6EHGSarIYz62pf2lKvEFbo+xHGX2Z
CoNxB2L3ItnMZYmneRURgSEdC50M1yn4sNFgDBAkXCZDoKBrDHBEFX86C87oHyYQ
deuM4Jx9FaDwQ8WzBXBQEG89rTnQ+DDC1DITlyCZSjTS2JkvEOjuirIEmNDvssQg
/Sj202NB1W/9M/q+q8P0rS6jmFSpcHDYc8e5riyV6J9lbKZ3WLxkoMwSA+gWblRd
qrja1hRLrSR5nJiNHLVVht7ZNPJEHs2Stdy5jvqd74TWcMhtbmws0B9WHnol8xaT
AgMBAAGjggFjMIIBXzAJBgNVHRMEAjAAMC0GCWCGSAGG+EIBDQQgFh5FYXN5LVJT
QSBHZW5lcmF0ZWQgQ2VydGlmaWNhdGUwHQYDVR0OBBYEFOSKKA/fzKlTtvOmcm+k
BxDYrNpNMIHhBgNVHSMEgdkwgdaAFBLNYATSoICecO3Gmbh7LMZS/RmhoYGypIGv
MIGsMQswCQYDVQQGEwJVUzELMAkGA1UECBMCT0gxETAPBgNVBAcTCENvbHVtYnVz
MRIwEAYDVQQKEwlWaWtpbmdWUE4xHTAbBgNVBAsTFE15T3JnYW5pemF0aW9uYWxV
bml0MRUwEwYDVQQDEwxWaWtpbmdWUE4gQ0ExEDAOBgNVBCkTB0Vhc3lSU0ExITAf
BgkqhkiG9w0BCQEWEm1lQG15aG9zdC5teWRvbWFpboIJAM81he6Avyo+MBMGA1Ud
JQQMMAoGCCsGAQUFBwMCMAsGA1UdDwQEAwIHgDANBgkqhkiG9w0BAQQFAAOCAgEA
0n43mrVzJhMA5amQKdSd9c5Q2Zr45pQ30pO/TvIlYTuJ0akN7AzTl3uA7NOvC8N0
XnIefYitzmH32HGPm1fRV1cLGrVc0rvEe5Mc96IX1yudpL+y96cm9a72027PjO9S
r0hc3st31Rwfwsz6wvQ3/plLlqhnzo+3gqACtaR+gh+aVK5ZZ0agE6CdAOjwG0BK
bMIg3xVo2Rh43MoR38f/O7pojQxbdR9V7Wy5+lvz3kA+NjZpgNMTeMmiBQTDap5J
CbjuDa6pniHpDJzmIkWoUI32Zj//KOy/Nhskdg3ASzuRqMCYmVCuqCJ+z4QWM2fm
+ijHHwz1ui2fHKD6DAIHq05UolkHHHhn8hj0xAX9rabc0qulKc5YhSDOygmYIOkL
Lb2emTiUEyVUu30mWXSbE0WtTRwjmi1GiyC2FSDJ68hI3nlp+GZAjRUvrUkN7uam
M0O1NUH5IaoueJUFj5gb4cNRQg3hLoR7nPSb60zL7/wK/r4giXaxFBNAPUPjmqjV
7imdYZyLcgX4AAfCrE6q3kZZdeSHbONbPT+cHHGDeh0CbQ0I7SgPFz598egPKbrU
rbNOQVBtB6dvZiXKLjE48RfDmiFauW3aWoVYa63ZgwIaJ8vaNfacpLesyFZjmhj/
VLN5Orw/nAxx00SJ82Hr4BPWvC8GAbIB6qBnUHiyj7o=
-----END CERTIFICATE-----
