Certificate:
    Data:
        Version: 3 (0x2)
        Serial Number: 4971 (0x136b)
    Signature Algorithm: md5WithRSAEncryption
        Issuer: C=US, ST=OH, L=Columbus, O=VikingVPN, OU=MyOrganizationalUnit, CN=VikingVPN CA/name=EasyRSA/emailAddress=me@myhost.mydomain
        Validity
            Not Before: Apr 15 20:33:22 2015 GMT
            Not After : Apr 12 20:33:22 2025 GMT
        Subject: CN=Client1621Cert09d60d
        Subject Public Key Info:
            Public Key Algorithm: rsaEncryption
                Public-Key: (4096 bit)
                Modulus:
                    00:b4:53:2f:f0:a1:23:ab:e7:97:79:ef:b9:53:6d:
                    b3:06:89:9b:f0:50:06:89:e7:ec:6d:2a:a7:c8:ec:
                    7c:45:13:1c:4b:d2:2e:9b:8e:d3:8c:bf:aa:a4:4c:
                    c9:ee:a4:f2:2f:82:06:94:f4:08:65:06:7c:a3:cd:
                    37:58:10:2f:e7:fd:11:ab:99:83:e3:0a:a5:7a:ff:
                    22:52:57:07:d8:ad:81:1f:07:77:87:76:b0:4a:23:
                    b7:3d:8d:7f:ad:80:ce:7b:a5:9b:6c:54:b8:80:f3:
                    c8:b1:ce:1f:10:5d:39:74:c4:bf:4c:c3:ee:69:71:
                    3a:a5:b2:0e:11:33:b4:42:c2:e9:05:15:92:a8:db:
                    b3:44:96:fe:e8:72:29:0d:ab:77:61:9b:1e:c6:a5:
                    30:5d:97:42:33:f7:87:2d:ce:a1:3e:f1:9e:88:89:
                    a6:8e:91:61:f5:24:b8:8f:c2:c9:f8:11:75:14:6b:
                    fb:86:cf:96:d6:b2:aa:ab:64:0f:de:1a:11:d1:40:
                    78:e6:6e:c5:21:5e:8f:14:99:be:39:fe:f4:88:7a:
                    f8:04:e9:5a:28:6c:57:36:b1:29:25:d4:f9:b4:1a:
                    13:bd:8b:55:7c:66:24:fd:4b:7b:b7:77:c4:7a:5b:
                    87:83:c9:bd:ea:85:41:00:47:57:98:89:9f:9d:c1:
                    e6:2a:b8:94:08:a4:50:1a:db:c6:73:60:86:e5:13:
                    00:83:d1:44:a9:85:95:02:e5:0c:22:e4:c4:5c:63:
                    c8:05:28:e2:b5:08:f7:34:21:4b:5a:f6:eb:f4:f7:
                    ae:d5:7c:43:e5:96:63:1e:ef:2d:dd:88:57:6f:c2:
                    c1:dd:e4:a6:11:97:a8:8b:a7:e0:d5:18:c8:0a:4c:
                    30:6a:d9:4d:cf:cf:94:2f:27:70:18:e4:32:f3:95:
                    eb:67:a6:dd:2f:41:0d:03:10:06:1e:f6:e7:a7:ff:
                    d6:b5:ce:f3:12:51:cf:e2:a3:7f:77:8b:33:b9:d1:
                    32:ca:94:3c:49:db:53:5d:14:fa:70:e0:f8:27:b5:
                    88:4b:c5:f5:f4:23:47:2c:a8:d7:48:7e:9c:2e:ac:
                    ee:87:da:ef:6d:22:44:47:0e:05:ca:b9:f4:c6:d3:
                    ac:13:42:ec:01:13:e9:b2:73:83:cb:71:9c:f4:7e:
                    e9:dd:eb:b7:18:83:05:dd:88:18:87:54:f4:c4:9c:
                    3c:05:3f:34:2f:a3:75:1c:31:bb:58:dc:0a:f8:87:
                    a4:1a:08:3a:a7:02:bf:e2:30:31:4f:40:92:21:2f:
                    16:ae:a9:4a:c3:c4:bc:08:53:70:a1:16:39:d0:f1:
                    ca:8b:71:cb:4b:e9:8d:0a:67:62:18:8b:86:c8:b8:
                    38:47:e1
                Exponent: 65537 (0x10001)
        X509v3 extensions:
            X509v3 Basic Constraints: 
                CA:FALSE
            Netscape Comment: 
                Easy-RSA Generated Certificate
            X509v3 Subject Key Identifier: 
                51:D0:B6:38:2A:EA:70:FD:46:EF:CA:A3:40:C7:CA:B3:D4:3F:F1:8E
            X509v3 Authority Key Identifier: 
                keyid:12:CD:60:04:D2:A0:80:9E:70:ED:C6:99:B8:7B:2C:C6:52:FD:19:A1
                DirName:/C=US/ST=OH/L=Columbus/O=VikingVPN/OU=MyOrganizationalUnit/CN=VikingVPN CA/name=EasyRSA/emailAddress=me@myhost.mydomain
                serial:CF:35:85:EE:80:BF:2A:3E

            X509v3 Extended Key Usage: 
                TLS Web Client Authentication
            X509v3 Key Usage: 
                Digital Signature
    Signature Algorithm: md5WithRSAEncryption
         91:14:99:15:51:ef:88:a0:9b:08:53:76:42:22:51:8e:62:2c:
         e2:db:ee:7e:e8:d3:4d:6e:3b:a5:4d:a3:9c:2e:92:db:71:0f:
         08:cb:d4:d5:2a:71:1d:8b:d0:21:76:9f:47:c8:68:1c:26:4d:
         99:d0:72:d7:c3:e2:18:07:6c:1c:bf:17:c5:16:07:17:e7:89:
         0b:30:38:e2:1b:89:ad:5c:de:88:e7:9d:f3:4b:30:f7:b2:ca:
         aa:fb:b4:e0:79:8c:db:04:5a:8a:a8:e7:ff:f2:21:00:e3:c7:
         1f:6d:5a:6c:20:c7:8b:91:04:37:03:0d:c0:66:63:3a:80:6f:
         01:f0:d6:5d:d3:51:34:23:d2:61:ad:cb:02:73:6e:3b:bd:65:
         cf:27:73:47:1f:29:4d:f5:88:d9:cb:32:e9:94:1d:f1:0d:f8:
         4a:53:32:24:78:fd:e5:69:5b:00:08:69:3e:78:f0:d3:8d:c1:
         a6:06:ee:7a:fb:bc:d5:50:8e:7e:ee:ad:85:cc:10:cf:f9:b8:
         82:17:40:90:d8:ad:ba:48:fc:d2:a4:25:54:14:22:30:cf:08:
         54:2d:d4:0e:0c:cb:7b:cd:0f:bf:70:69:f0:f9:7e:f0:b3:dc:
         3b:ad:c4:2f:9f:54:ba:c6:f6:5e:a5:0f:7b:db:2d:9b:72:10:
         b3:0d:cf:74:54:2a:e7:e2:23:a6:e9:bb:9b:14:82:2c:94:ed:
         3f:90:40:ff:3b:e3:bf:4c:07:b0:e1:e1:ca:7c:97:8f:42:73:
         7e:db:ed:99:a9:c2:08:36:f3:6f:88:41:51:63:5c:8c:c8:25:
         9e:af:60:9d:d2:f6:47:e8:aa:4f:f4:85:2e:e0:f1:27:82:30:
         56:c1:6a:e6:16:2c:42:b2:db:d1:48:c7:1b:62:33:c5:23:54:
         a6:05:ac:36:b6:a0:18:fa:99:38:34:b2:c8:67:a8:46:ef:e4:
         1d:ae:4e:6d:c6:0f:45:f6:d5:e5:85:b0:22:1a:49:fd:43:24:
         88:92:8f:70:6f:ee:f6:87:05:58:81:74:4c:b0:16:1a:aa:ff:
         74:37:16:f2:f6:55:70:b6:d7:d5:70:6b:17:b2:b9:ad:9e:53:
         6d:4d:82:f0:70:4a:5d:d9:c7:76:f7:89:92:d7:ae:5b:77:70:
         cc:ad:dc:e3:06:c7:0d:af:56:f0:92:d6:1e:45:04:72:06:66:
         22:d6:97:ba:cf:b2:c3:0c:8d:d9:51:1b:8d:08:ea:22:16:cb:
         3e:41:e9:4e:a4:9e:73:f3:6e:96:96:0b:a3:ca:09:e6:05:9b:
         77:69:8b:e6:3c:91:b3:44:76:50:29:76:f0:66:39:cf:3b:87:
         bd:e9:8a:d5:28:c8:c5:66
-----BEGIN CERTIFICATE-----
MIIGrTCCBJWgAwIBAgICE2swDQYJKoZIhvcNAQEEBQAwgawxCzAJBgNVBAYTAlVT
MQswCQYDVQQIEwJPSDERMA8GA1UEBxMIQ29sdW1idXMxEjAQBgNVBAoTCVZpa2lu
Z1ZQTjEdMBsGA1UECxMUTXlPcmdhbml6YXRpb25hbFVuaXQxFTATBgNVBAMTDFZp
a2luZ1ZQTiBDQTEQMA4GA1UEKRMHRWFzeVJTQTEhMB8GCSqGSIb3DQEJARYSbWVA
bXlob3N0Lm15ZG9tYWluMB4XDTE1MDQxNTIwMzMyMloXDTI1MDQxMjIwMzMyMlow
HzEdMBsGA1UEAxMUQ2xpZW50MTYyMUNlcnQwOWQ2MGQwggIiMA0GCSqGSIb3DQEB
AQUAA4ICDwAwggIKAoICAQC0Uy/woSOr55d577lTbbMGiZvwUAaJ5+xtKqfI7HxF
ExxL0i6bjtOMv6qkTMnupPIvggaU9AhlBnyjzTdYEC/n/RGrmYPjCqV6/yJSVwfY
rYEfB3eHdrBKI7c9jX+tgM57pZtsVLiA88ixzh8QXTl0xL9Mw+5pcTqlsg4RM7RC
wukFFZKo27NElv7ocikNq3dhmx7GpTBdl0Iz94ctzqE+8Z6IiaaOkWH1JLiPwsn4
EXUUa/uGz5bWsqqrZA/eGhHRQHjmbsUhXo8Umb45/vSIevgE6VoobFc2sSkl1Pm0
GhO9i1V8ZiT9S3u3d8R6W4eDyb3qhUEAR1eYiZ+dweYquJQIpFAa28ZzYIblEwCD
0USphZUC5Qwi5MRcY8gFKOK1CPc0IUta9uv0967VfEPllmMe7y3diFdvwsHd5KYR
l6iLp+DVGMgKTDBq2U3Pz5QvJ3AY5DLzletnpt0vQQ0DEAYe9uen/9a1zvMSUc/i
o393izO50TLKlDxJ21NdFPpw4PgntYhLxfX0I0csqNdIfpwurO6H2u9tIkRHDgXK
ufTG06wTQuwBE+myc4PLcZz0fund67cYgwXdiBiHVPTEnDwFPzQvo3UcMbtY3Ar4
h6QaCDqnAr/iMDFPQJIhLxauqUrDxLwIU3ChFjnQ8cqLcctL6Y0KZ2IYi4bIuDhH
4QIDAQABo4IBYzCCAV8wCQYDVR0TBAIwADAtBglghkgBhvhCAQ0EIBYeRWFzeS1S
U0EgR2VuZXJhdGVkIENlcnRpZmljYXRlMB0GA1UdDgQWBBRR0LY4Kupw/UbvyqNA
x8qz1D/xjjCB4QYDVR0jBIHZMIHWgBQSzWAE0qCAnnDtxpm4eyzGUv0ZoaGBsqSB
rzCBrDELMAkGA1UEBhMCVVMxCzAJBgNVBAgTAk9IMREwDwYDVQQHEwhDb2x1bWJ1
czESMBAGA1UEChMJVmlraW5nVlBOMR0wGwYDVQQLExRNeU9yZ2FuaXphdGlvbmFs
VW5pdDEVMBMGA1UEAxMMVmlraW5nVlBOIENBMRAwDgYDVQQpEwdFYXN5UlNBMSEw
HwYJKoZIhvcNAQkBFhJtZUBteWhvc3QubXlkb21haW6CCQDPNYXugL8qPjATBgNV
HSUEDDAKBggrBgEFBQcDAjALBgNVHQ8EBAMCB4AwDQYJKoZIhvcNAQEEBQADggIB
AJEUmRVR74igmwhTdkIiUY5iLOLb7n7o001uO6VNo5wukttxDwjL1NUqcR2L0CF2
n0fIaBwmTZnQctfD4hgHbBy/F8UWBxfniQswOOIbia1c3ojnnfNLMPeyyqr7tOB5
jNsEWoqo5//yIQDjxx9tWmwgx4uRBDcDDcBmYzqAbwHw1l3TUTQj0mGtywJzbju9
Zc8nc0cfKU31iNnLMumUHfEN+EpTMiR4/eVpWwAIaT548NONwaYG7nr7vNVQjn7u
rYXMEM/5uIIXQJDYrbpI/NKkJVQUIjDPCFQt1A4My3vND79wafD5fvCz3DutxC+f
VLrG9l6lD3vbLZtyELMNz3RUKufiI6bpu5sUgiyU7T+QQP87479MB7Dh4cp8l49C
c37b7Zmpwgg282+IQVFjXIzIJZ6vYJ3S9kfoqk/0hS7g8SeCMFbBauYWLEKy29FI
xxtiM8UjVKYFrDa2oBj6mTg0sshnqEbv5B2uTm3GD0X21eWFsCIaSf1DJIiSj3Bv
7vaHBViBdEywFhqq/3Q3FvL2VXC219Vwaxeyua2eU21NgvBwSl3Zx3b3iZLXrlt3
cMyt3OMGxw2vVvCS1h5FBHIGZiLWl7rPssMMjdlRG40I6iIWyz5B6U6knnPzbpaW
C6PKCeYFm3dpi+Y8kbNEdlApdvBmOc87h73pitUoyMVm
-----END CERTIFICATE-----
