Certificate:
    Data:
        Version: 3 (0x2)
        Serial Number: 4787 (0x12b3)
    Signature Algorithm: md5WithRSAEncryption
        Issuer: C=US, ST=OH, L=Columbus, O=VikingVPN, OU=MyOrganizationalUnit, CN=VikingVPN CA/name=EasyRSA/emailAddress=me@myhost.mydomain
        Validity
            Not Before: Mar 23 04:00:40 2015 GMT
            Not After : Mar 20 04:00:40 2025 GMT
        Subject: CN=Client1270Cert8ad60b
        Subject Public Key Info:
            Public Key Algorithm: rsaEncryption
                Public-Key: (4096 bit)
                Modulus:
                    00:9c:7c:ae:58:36:90:9d:85:d0:15:41:af:55:66:
                    24:10:c0:63:1a:a2:b0:3d:10:1a:89:87:cf:9a:8b:
                    7d:79:ff:dd:97:8e:b7:af:7d:81:33:aa:db:cc:69:
                    a1:b3:04:0b:d6:f5:43:65:0a:bf:09:7b:c4:16:93:
                    f7:f8:ad:db:ed:f0:7b:b4:2e:8e:a7:64:71:dd:dd:
                    6b:98:f7:76:f1:c6:e0:15:dd:1f:bd:7c:e6:30:2c:
                    f4:1b:1c:21:19:3b:a3:c2:13:ac:e4:bd:58:8a:7b:
                    58:54:5f:9e:96:bb:6f:73:80:46:3d:cd:b3:9f:8d:
                    dc:27:dd:6a:c2:48:3b:5b:f5:00:0d:fd:2d:3d:4b:
                    c8:68:f8:70:ae:e8:f7:80:bc:70:d8:61:a6:70:37:
                    f4:36:82:44:be:64:69:12:41:96:cb:3f:b2:0b:32:
                    c7:d2:fd:5c:87:70:8d:fb:6d:a9:37:76:6e:f2:33:
                    ee:e6:27:83:6c:fc:68:d0:27:ea:ec:96:77:21:5e:
                    3b:84:ca:db:51:4f:eb:35:fb:85:d9:b0:8f:46:6a:
                    c8:f7:e3:83:f7:e0:4f:6b:ed:98:29:fb:f7:61:9a:
                    49:69:55:2a:52:77:8d:82:0c:69:a8:fd:62:aa:af:
                    0d:d6:f1:aa:d5:47:6a:dc:50:1b:ed:c9:0f:e8:eb:
                    d3:45:29:ac:fc:a0:d6:1b:a6:3d:24:f2:f2:ab:59:
                    3d:67:4c:d6:02:5b:66:89:bc:a6:f2:df:d5:ba:e3:
                    c4:78:30:b9:20:38:d6:a4:be:6b:39:4c:5f:02:a6:
                    7c:32:e6:b4:a2:f1:b6:f3:01:b1:d0:88:22:3a:9f:
                    d4:17:3f:c4:da:f2:e6:ec:e0:2a:e3:8c:ee:66:86:
                    46:5d:fb:8e:ff:2c:20:32:b7:a4:07:cb:f0:d8:68:
                    e4:b7:dc:f6:c6:82:e5:9c:ab:4d:2f:92:40:28:68:
                    4b:f8:1e:fb:85:ec:bd:49:7f:9b:ae:11:4c:fd:14:
                    72:c3:6c:b9:1b:d1:dd:13:85:ce:36:86:5c:ec:24:
                    d8:47:a2:38:e4:28:7a:ab:07:95:4e:f4:e6:4f:51:
                    5b:f9:15:62:bd:54:54:3d:b9:37:42:73:05:bc:43:
                    5d:38:6e:16:fd:79:f8:db:b3:0e:ac:ce:c2:ca:2c:
                    2a:6b:9d:b6:c6:0d:76:69:06:e5:b1:26:4c:f7:c9:
                    f1:7b:55:77:3e:af:e2:5f:dd:63:5e:14:06:8a:53:
                    01:24:b1:94:fb:29:d1:3a:17:f6:d9:fe:7d:af:02:
                    08:2f:d0:ab:19:1e:1b:78:c4:68:15:e6:8f:a4:77:
                    67:1b:c9:82:69:55:d9:12:c3:ed:9a:0d:e2:00:0f:
                    0d:91:d9
                Exponent: 65537 (0x10001)
        X509v3 extensions:
            X509v3 Basic Constraints: 
                CA:FALSE
            Netscape Comment: 
                Easy-RSA Generated Certificate
            X509v3 Subject Key Identifier: 
                51:62:0F:31:54:89:95:25:0D:79:3A:ED:95:5B:F3:58:AC:AB:F9:FA
            X509v3 Authority Key Identifier: 
                keyid:12:CD:60:04:D2:A0:80:9E:70:ED:C6:99:B8:7B:2C:C6:52:FD:19:A1
                DirName:/C=US/ST=OH/L=Columbus/O=VikingVPN/OU=MyOrganizationalUnit/CN=VikingVPN CA/name=EasyRSA/emailAddress=me@myhost.mydomain
                serial:CF:35:85:EE:80:BF:2A:3E

            X509v3 Extended Key Usage: 
                TLS Web Client Authentication
            X509v3 Key Usage: 
                Digital Signature
    Signature Algorithm: md5WithRSAEncryption
         90:8a:5b:21:25:59:34:d6:b9:44:43:0a:ab:4c:52:24:dd:68:
         0a:d4:e6:52:52:39:c3:fa:3d:6c:56:61:a6:fa:63:11:75:7e:
         06:c5:c1:89:2b:25:e0:b3:48:4f:73:32:9e:78:04:f6:bc:74:
         22:10:02:06:ef:de:ee:88:87:38:32:f2:ad:8a:b6:b9:88:69:
         f0:c3:aa:75:8d:a8:71:50:de:c5:49:b7:58:54:8b:31:22:39:
         60:e4:3e:66:85:3b:73:f6:ad:24:3e:15:5f:ef:97:80:9e:b6:
         d5:21:cf:27:3b:64:82:15:5e:1f:dd:32:2e:c4:b2:50:c5:20:
         24:73:4b:4d:d8:8b:fe:1f:d5:75:0e:f6:ff:33:96:81:fe:7f:
         2c:c3:25:ad:57:8a:a6:98:89:62:04:b5:1f:b4:90:02:77:24:
         d1:5d:4f:70:8e:26:47:9c:51:33:ed:fa:3b:b7:36:a3:9b:d3:
         bb:da:6f:51:f9:e6:8b:26:4f:83:ba:3a:76:92:49:93:b1:66:
         e5:99:3f:67:20:75:01:cb:df:83:2f:66:a3:13:72:fa:3b:cf:
         9d:71:dd:c2:dd:33:6f:cf:ba:43:30:4e:36:56:a7:be:d9:01:
         bb:f3:4f:3d:87:a8:87:37:b1:d9:2f:93:c8:12:4a:04:e0:2b:
         ab:cf:cf:f2:c5:c9:84:82:42:35:9f:d9:a8:51:e2:7a:f4:90:
         af:d5:c2:27:f6:aa:89:7c:14:45:21:56:54:0f:ce:bc:a0:85:
         06:79:f0:7f:61:f3:5b:9d:82:83:36:3e:fb:e5:86:b4:f2:ec:
         12:50:bb:ca:12:f7:98:05:e9:1b:d5:7c:b8:fa:99:d3:56:f9:
         d2:98:fc:24:bd:1e:4b:99:6d:71:b8:1f:aa:2b:6c:31:a9:96:
         e3:18:20:81:13:b4:d2:33:a3:0c:67:4e:01:89:4a:32:13:69:
         28:a4:88:13:53:83:20:36:2e:2e:08:9c:01:37:87:ab:1b:f6:
         13:53:0a:66:e4:35:64:10:b8:08:19:37:41:37:62:26:82:7d:
         6c:10:e9:36:1f:6f:91:9d:35:b2:d0:6d:0f:d5:38:dd:c3:65:
         76:f5:32:a4:73:4e:0d:d5:8c:29:b6:83:f4:cb:af:0a:99:13:
         29:23:b5:50:ef:64:73:be:ef:b2:dd:a2:92:77:58:a8:07:32:
         cc:b6:2c:30:29:e2:7a:61:51:39:a6:20:fd:4a:88:bb:65:89:
         4c:db:d6:3e:46:64:31:c8:05:34:9b:ff:e1:55:d7:3e:77:a1:
         f4:8d:45:31:c7:ef:f4:4b:6d:f3:5c:52:f0:59:cb:b5:05:f3:
         c9:84:46:80:e4:08:26:ac
-----BEGIN CERTIFICATE-----
MIIGrTCCBJWgAwIBAgICErMwDQYJKoZIhvcNAQEEBQAwgawxCzAJBgNVBAYTAlVT
MQswCQYDVQQIEwJPSDERMA8GA1UEBxMIQ29sdW1idXMxEjAQBgNVBAoTCVZpa2lu
Z1ZQTjEdMBsGA1UECxMUTXlPcmdhbml6YXRpb25hbFVuaXQxFTATBgNVBAMTDFZp
a2luZ1ZQTiBDQTEQMA4GA1UEKRMHRWFzeVJTQTEhMB8GCSqGSIb3DQEJARYSbWVA
bXlob3N0Lm15ZG9tYWluMB4XDTE1MDMyMzA0MDA0MFoXDTI1MDMyMDA0MDA0MFow
HzEdMBsGA1UEAxMUQ2xpZW50MTI3MENlcnQ4YWQ2MGIwggIiMA0GCSqGSIb3DQEB
AQUAA4ICDwAwggIKAoICAQCcfK5YNpCdhdAVQa9VZiQQwGMaorA9EBqJh8+ai315
/92XjrevfYEzqtvMaaGzBAvW9UNlCr8Je8QWk/f4rdvt8Hu0Lo6nZHHd3WuY93bx
xuAV3R+9fOYwLPQbHCEZO6PCE6zkvViKe1hUX56Wu29zgEY9zbOfjdwn3WrCSDtb
9QAN/S09S8ho+HCu6PeAvHDYYaZwN/Q2gkS+ZGkSQZbLP7ILMsfS/VyHcI37bak3
dm7yM+7mJ4Ns/GjQJ+rslnchXjuEyttRT+s1+4XZsI9Gasj344P34E9r7Zgp+/dh
mklpVSpSd42CDGmo/WKqrw3W8arVR2rcUBvtyQ/o69NFKaz8oNYbpj0k8vKrWT1n
TNYCW2aJvKby39W648R4MLkgONakvms5TF8Cpnwy5rSi8bbzAbHQiCI6n9QXP8Ta
8ubs4CrjjO5mhkZd+47/LCAyt6QHy/DYaOS33PbGguWcq00vkkAoaEv4HvuF7L1J
f5uuEUz9FHLDbLkb0d0Thc42hlzsJNhHojjkKHqrB5VO9OZPUVv5FWK9VFQ9uTdC
cwW8Q104bhb9efjbsw6szsLKLCprnbbGDXZpBuWxJkz3yfF7VXc+r+Jf3WNeFAaK
UwEksZT7KdE6F/bZ/n2vAggv0KsZHht4xGgV5o+kd2cbyYJpVdkSw+2aDeIADw2R
2QIDAQABo4IBYzCCAV8wCQYDVR0TBAIwADAtBglghkgBhvhCAQ0EIBYeRWFzeS1S
U0EgR2VuZXJhdGVkIENlcnRpZmljYXRlMB0GA1UdDgQWBBRRYg8xVImVJQ15Ou2V
W/NYrKv5+jCB4QYDVR0jBIHZMIHWgBQSzWAE0qCAnnDtxpm4eyzGUv0ZoaGBsqSB
rzCBrDELMAkGA1UEBhMCVVMxCzAJBgNVBAgTAk9IMREwDwYDVQQHEwhDb2x1bWJ1
czESMBAGA1UEChMJVmlraW5nVlBOMR0wGwYDVQQLExRNeU9yZ2FuaXphdGlvbmFs
VW5pdDEVMBMGA1UEAxMMVmlraW5nVlBOIENBMRAwDgYDVQQpEwdFYXN5UlNBMSEw
HwYJKoZIhvcNAQkBFhJtZUBteWhvc3QubXlkb21haW6CCQDPNYXugL8qPjATBgNV
HSUEDDAKBggrBgEFBQcDAjALBgNVHQ8EBAMCB4AwDQYJKoZIhvcNAQEEBQADggIB
AJCKWyElWTTWuURDCqtMUiTdaArU5lJSOcP6PWxWYab6YxF1fgbFwYkrJeCzSE9z
Mp54BPa8dCIQAgbv3u6Ihzgy8q2KtrmIafDDqnWNqHFQ3sVJt1hUizEiOWDkPmaF
O3P2rSQ+FV/vl4CettUhzyc7ZIIVXh/dMi7EslDFICRzS03Yi/4f1XUO9v8zloH+
fyzDJa1XiqaYiWIEtR+0kAJ3JNFdT3COJkecUTPt+ju3NqOb07vab1H55osmT4O6
OnaSSZOxZuWZP2cgdQHL34MvZqMTcvo7z51x3cLdM2/PukMwTjZWp77ZAbvzTz2H
qIc3sdkvk8gSSgTgK6vPz/LFyYSCQjWf2ahR4nr0kK/Vwif2qol8FEUhVlQPzryg
hQZ58H9h81udgoM2PvvlhrTy7BJQu8oS95gF6RvVfLj6mdNW+dKY/CS9HkuZbXG4
H6orbDGpluMYIIETtNIzowxnTgGJSjITaSikiBNTgyA2Li4InAE3h6sb9hNTCmbk
NWQQuAgZN0E3YiaCfWwQ6TYfb5GdNbLQbQ/VON3DZXb1MqRzTg3VjCm2g/TLrwqZ
EykjtVDvZHO+77LdopJ3WKgHMsy2LDAp4nphUTmmIP1KiLtliUzb1j5GZDHIBTSb
/+FV1z53ofSNRTHH7/RLbfNcUvBZy7UF88mERoDkCCas
-----END CERTIFICATE-----
