Certificate:
    Data:
        Version: 3 (0x2)
        Serial Number: 2376 (0x948)
    Signature Algorithm: md5WithRSAEncryption
        Issuer: C=US, ST=OH, L=Columbus, O=VikingVPN, OU=MyOrganizationalUnit, CN=VikingVPN CA/name=EasyRSA/emailAddress=me@myhost.mydomain
        Validity
            Not Before: Jul 24 02:20:23 2014 GMT
            Not After : Jul 21 02:20:23 2024 GMT
        Subject: CN=Client832Certffdf10
        Subject Public Key Info:
            Public Key Algorithm: rsaEncryption
                Public-Key: (4096 bit)
                Modulus:
                    00:e8:a4:73:bb:80:bf:d6:3b:42:68:05:4c:da:8d:
                    f8:82:db:bd:d3:44:ce:05:a6:2f:b9:2c:d8:6a:f5:
                    87:94:ba:e4:64:2a:be:5a:d3:ef:5c:13:86:2c:0e:
                    d1:a1:d4:45:3e:02:b9:ec:18:08:74:8c:3c:05:e7:
                    07:6d:d2:95:3b:b6:12:75:ff:09:30:a9:57:a4:2b:
                    4e:bb:c1:12:62:5e:2c:f8:ea:0a:eb:78:ae:6c:9d:
                    56:ee:51:5e:e6:ff:72:17:1c:20:bf:01:f1:f1:76:
                    6d:95:94:77:b7:3d:69:c9:7a:c2:3d:28:02:4c:55:
                    74:12:b3:21:5b:7c:69:97:37:48:57:ea:37:0f:0b:
                    af:cf:18:15:2e:9b:5d:61:d6:2d:56:c3:c1:16:21:
                    50:f9:d3:1a:6e:a2:4d:44:31:f9:47:c3:86:f4:24:
                    44:d2:fe:14:17:68:cd:41:41:f2:c9:70:6a:b8:f7:
                    2c:a8:f8:60:2e:3d:79:1d:8e:31:ae:84:24:b7:07:
                    4a:2b:cc:97:b8:0a:e8:46:d9:35:be:48:86:ea:02:
                    87:d1:00:31:8a:81:83:8f:78:83:49:c4:4c:3d:36:
                    e2:a2:2b:64:37:98:fe:4d:2f:d3:74:c0:4b:88:c2:
                    85:36:e6:57:94:d6:96:99:dc:e5:dd:a9:a4:fc:55:
                    5f:e0:33:59:e3:4b:f0:ba:76:4b:6c:65:97:e5:d5:
                    55:90:57:b5:62:56:0d:a0:74:2e:76:22:5e:17:38:
                    d8:0b:b8:32:d0:92:7e:09:b3:dc:4e:80:58:2a:b6:
                    b6:ca:fe:02:c8:9b:0c:1f:b2:55:77:d3:35:ef:3b:
                    10:d1:a2:d4:24:a9:dd:13:d6:c5:ee:ba:d6:4f:f0:
                    4f:1a:66:50:5d:be:5d:6f:17:08:43:d8:10:4d:60:
                    fe:bf:d2:18:fc:0d:29:76:9d:01:cb:82:01:6d:e7:
                    26:cb:46:7b:33:a7:05:da:4a:6e:31:6c:e3:74:f6:
                    87:51:66:38:d7:83:4d:b4:15:f9:a2:7c:f7:47:ce:
                    78:d7:0f:94:f0:72:d3:26:19:c8:37:d5:54:f5:93:
                    80:25:f4:6a:45:4a:11:7a:ab:5c:4f:56:ef:31:3f:
                    1b:dc:75:75:e3:b3:c6:77:c6:45:93:ef:97:c2:8d:
                    a8:06:58:19:c3:37:00:29:68:0b:ef:7d:ff:5d:d5:
                    13:71:aa:d4:6b:4a:65:95:0c:4b:97:86:70:e9:8d:
                    a6:7d:e1:c6:0c:b0:8a:df:9f:70:ed:66:7e:af:44:
                    55:a1:23:0f:fc:d5:30:83:59:28:f6:6c:69:a6:3e:
                    aa:2a:31:3b:86:c9:c8:db:3d:ab:8a:42:84:69:e1:
                    2b:5d:a1
                Exponent: 65537 (0x10001)
        X509v3 extensions:
            X509v3 Basic Constraints: 
                CA:FALSE
            Netscape Comment: 
                Easy-RSA Generated Certificate
            X509v3 Subject Key Identifier: 
                CF:FC:60:0D:16:3E:E8:9A:D5:07:42:F1:62:85:C1:0A:D9:F0:A3:65
            X509v3 Authority Key Identifier: 
                keyid:12:CD:60:04:D2:A0:80:9E:70:ED:C6:99:B8:7B:2C:C6:52:FD:19:A1
                DirName:/C=US/ST=OH/L=Columbus/O=VikingVPN/OU=MyOrganizationalUnit/CN=VikingVPN CA/name=EasyRSA/emailAddress=me@myhost.mydomain
                serial:CF:35:85:EE:80:BF:2A:3E

            X509v3 Extended Key Usage: 
                TLS Web Client Authentication
            X509v3 Key Usage: 
                Digital Signature
    Signature Algorithm: md5WithRSAEncryption
         d1:bd:2d:13:66:a3:f6:5f:37:fb:cf:26:00:e3:91:5a:3d:cf:
         30:af:50:8d:82:18:85:f5:96:d9:bd:e9:d0:a9:4d:96:cf:95:
         c3:d3:ae:68:9b:de:39:10:27:e5:ad:52:ca:7a:96:fe:1c:d0:
         11:4d:f2:e5:6a:58:ee:9e:02:d8:b8:2c:50:8e:af:8b:2a:7c:
         7e:d7:b1:c6:ea:5f:1d:ab:e5:40:b2:59:08:ad:87:d1:1d:49:
         a0:5b:5c:73:88:87:4b:7e:b1:a8:fc:dc:03:2a:07:0d:9a:cd:
         ba:36:08:81:79:8c:41:7f:12:cf:ae:0c:ce:18:e8:df:c4:b9:
         42:2f:bc:45:75:b3:aa:e1:ce:bd:2c:4b:9a:0f:50:ee:2a:6f:
         d3:14:ab:c8:1c:ce:be:fd:1f:13:da:d3:07:f2:e4:e8:5b:77:
         43:38:5e:44:f8:14:b1:4d:81:14:d8:ae:f2:eb:a0:19:d5:3d:
         d6:a2:39:30:8b:55:e0:0b:25:26:bc:37:bb:1f:d3:3c:64:cc:
         89:a0:e9:71:72:4f:51:b5:8f:69:2f:89:31:60:35:fa:ec:50:
         a6:ed:2c:76:34:ef:7f:3b:e4:1a:2b:a6:c8:e4:12:27:36:a1:
         11:41:83:f5:86:1d:3d:59:19:b1:b7:1b:bd:0d:5e:c3:d8:d5:
         4e:c5:2d:e7:c9:83:20:55:55:05:b2:19:13:c3:d4:8a:e0:17:
         dd:c8:a0:5d:43:5b:f7:4a:d5:76:13:2b:3d:83:f0:71:12:61:
         ea:fb:18:e9:64:f9:fe:bd:cf:12:a2:99:86:c7:a8:24:96:26:
         62:4d:62:dc:31:81:55:ca:30:d6:ca:45:a8:3c:5e:bc:b9:d6:
         34:2f:d6:b1:38:f6:f6:f5:b9:d7:48:cd:76:88:4b:9c:f1:b1:
         d8:cc:04:41:09:2a:d3:44:a3:be:4e:85:30:6d:39:73:90:a6:
         16:72:74:7e:e7:6d:e3:29:01:7b:69:3c:46:61:4f:93:74:60:
         9a:1b:55:32:6a:ca:c8:02:a1:cc:22:a6:09:ca:f1:e6:d6:a0:
         63:7a:94:8a:90:76:fe:c2:62:06:76:00:16:19:11:98:8f:79:
         e9:1b:40:04:40:c2:b9:61:74:90:6b:c2:d1:74:48:56:ee:a4:
         ac:70:b2:aa:0a:74:5d:4b:aa:57:e2:59:f0:ec:b0:8b:7f:33:
         47:72:e8:a6:6e:db:86:82:69:ba:e3:9d:45:f4:e1:4b:bf:7b:
         e9:a1:a1:67:3b:9c:75:18:84:31:a2:a4:79:5b:b8:56:97:16:
         23:0b:96:3f:46:a0:ed:23:21:8b:87:85:13:ae:a6:65:0a:f8:
         e1:a7:ff:79:90:98:62:6c
-----BEGIN CERTIFICATE-----
MIIGrDCCBJSgAwIBAgICCUgwDQYJKoZIhvcNAQEEBQAwgawxCzAJBgNVBAYTAlVT
MQswCQYDVQQIEwJPSDERMA8GA1UEBxMIQ29sdW1idXMxEjAQBgNVBAoTCVZpa2lu
Z1ZQTjEdMBsGA1UECxMUTXlPcmdhbml6YXRpb25hbFVuaXQxFTATBgNVBAMTDFZp
a2luZ1ZQTiBDQTEQMA4GA1UEKRMHRWFzeVJTQTEhMB8GCSqGSIb3DQEJARYSbWVA
bXlob3N0Lm15ZG9tYWluMB4XDTE0MDcyNDAyMjAyM1oXDTI0MDcyMTAyMjAyM1ow
HjEcMBoGA1UEAxMTQ2xpZW50ODMyQ2VydGZmZGYxMDCCAiIwDQYJKoZIhvcNAQEB
BQADggIPADCCAgoCggIBAOikc7uAv9Y7QmgFTNqN+ILbvdNEzgWmL7ks2Gr1h5S6
5GQqvlrT71wThiwO0aHURT4CuewYCHSMPAXnB23SlTu2EnX/CTCpV6QrTrvBEmJe
LPjqCut4rmydVu5RXub/chccIL8B8fF2bZWUd7c9acl6wj0oAkxVdBKzIVt8aZc3
SFfqNw8Lr88YFS6bXWHWLVbDwRYhUPnTGm6iTUQx+UfDhvQkRNL+FBdozUFB8slw
arj3LKj4YC49eR2OMa6EJLcHSivMl7gK6EbZNb5IhuoCh9EAMYqBg494g0nETD02
4qIrZDeY/k0v03TAS4jChTbmV5TWlpnc5d2ppPxVX+AzWeNL8Lp2S2xll+XVVZBX
tWJWDaB0LnYiXhc42Au4MtCSfgmz3E6AWCq2tsr+AsibDB+yVXfTNe87ENGi1CSp
3RPWxe661k/wTxpmUF2+XW8XCEPYEE1g/r/SGPwNKXadAcuCAW3nJstGezOnBdpK
bjFs43T2h1FmONeDTbQV+aJ890fOeNcPlPBy0yYZyDfVVPWTgCX0akVKEXqrXE9W
7zE/G9x1deOzxnfGRZPvl8KNqAZYGcM3ACloC+99/13VE3Gq1GtKZZUMS5eGcOmN
pn3hxgywit+fcO1mfq9EVaEjD/zVMINZKPZsaaY+qioxO4bJyNs9q4pChGnhK12h
AgMBAAGjggFjMIIBXzAJBgNVHRMEAjAAMC0GCWCGSAGG+EIBDQQgFh5FYXN5LVJT
QSBHZW5lcmF0ZWQgQ2VydGlmaWNhdGUwHQYDVR0OBBYEFM/8YA0WPuia1QdC8WKF
wQrZ8KNlMIHhBgNVHSMEgdkwgdaAFBLNYATSoICecO3Gmbh7LMZS/RmhoYGypIGv
MIGsMQswCQYDVQQGEwJVUzELMAkGA1UECBMCT0gxETAPBgNVBAcTCENvbHVtYnVz
MRIwEAYDVQQKEwlWaWtpbmdWUE4xHTAbBgNVBAsTFE15T3JnYW5pemF0aW9uYWxV
bml0MRUwEwYDVQQDEwxWaWtpbmdWUE4gQ0ExEDAOBgNVBCkTB0Vhc3lSU0ExITAf
BgkqhkiG9w0BCQEWEm1lQG15aG9zdC5teWRvbWFpboIJAM81he6Avyo+MBMGA1Ud
JQQMMAoGCCsGAQUFBwMCMAsGA1UdDwQEAwIHgDANBgkqhkiG9w0BAQQFAAOCAgEA
0b0tE2aj9l83+88mAOORWj3PMK9QjYIYhfWW2b3p0KlNls+Vw9OuaJveORAn5a1S
ynqW/hzQEU3y5WpY7p4C2LgsUI6viyp8ftexxupfHavlQLJZCK2H0R1JoFtcc4iH
S36xqPzcAyoHDZrNujYIgXmMQX8Sz64Mzhjo38S5Qi+8RXWzquHOvSxLmg9Q7ipv
0xSryBzOvv0fE9rTB/Lk6Ft3QzheRPgUsU2BFNiu8uugGdU91qI5MItV4AslJrw3
ux/TPGTMiaDpcXJPUbWPaS+JMWA1+uxQpu0sdjTvfzvkGiumyOQSJzahEUGD9YYd
PVkZsbcbvQ1ew9jVTsUt58mDIFVVBbIZE8PUiuAX3cigXUNb90rVdhMrPYPwcRJh
6vsY6WT5/r3PEqKZhseoJJYmYk1i3DGBVcow1spFqDxevLnWNC/WsTj29vW510jN
dohLnPGx2MwEQQkq00Sjvk6FMG05c5CmFnJ0fudt4ykBe2k8RmFPk3RgmhtVMmrK
yAKhzCKmCcrx5tagY3qUipB2/sJiBnYAFhkRmI956RtABEDCuWF0kGvC0XRIVu6k
rHCyqgp0XUuqV+JZ8Oywi38zR3Lopm7bhoJpuuOdRfThS7976aGhZzucdRiEMaKk
eVu4VpcWIwuWP0ag7SMhi4eFE66mZQr44af/eZCYYmw=
-----END CERTIFICATE-----
