Certificate:
    Data:
        Version: 3 (0x2)
        Serial Number: 5433 (0x1539)
    Signature Algorithm: md5WithRSAEncryption
        Issuer: C=US, ST=OH, L=Columbus, O=VikingVPN, OU=MyOrganizationalUnit, CN=VikingVPN CA/name=EasyRSA/emailAddress=me@myhost.mydomain
        Validity
            Not Before: May 29 01:48:11 2015 GMT
            Not After : May 26 01:48:11 2025 GMT
        Subject: CN=Client1711Certf91740
        Subject Public Key Info:
            Public Key Algorithm: rsaEncryption
                Public-Key: (4096 bit)
                Modulus:
                    00:ca:38:f2:ef:a6:af:bf:6c:53:8b:d8:c8:65:0d:
                    0d:6a:53:df:92:f6:05:57:26:a5:68:db:79:1e:d4:
                    a3:1e:b1:4b:7d:b1:6d:53:5e:84:ae:17:ea:8c:1c:
                    0a:41:5b:dd:2b:73:22:83:08:3e:c5:02:e0:3d:23:
                    3a:58:23:a2:9b:e3:67:21:e3:af:e3:ab:19:92:b6:
                    8f:39:5c:1c:db:85:42:80:b5:e5:1e:6c:f2:2e:ff:
                    4b:84:04:ba:f4:e7:4d:2e:3e:bf:b1:a3:be:37:e0:
                    72:9b:bc:ce:b6:72:8e:d4:68:ca:07:64:28:39:f2:
                    9f:f9:6b:07:82:05:b3:7e:d9:0c:09:59:6e:9b:17:
                    58:47:36:cf:4f:ef:c7:d8:06:12:36:d8:df:9a:6b:
                    5a:27:6b:7c:a7:f6:cf:22:90:1d:ae:d3:5c:7d:9d:
                    fd:9c:4e:55:cb:c5:3b:5f:45:ab:6d:16:a5:db:45:
                    b9:23:eb:67:3d:f1:79:ff:cf:f1:cd:8e:f8:54:42:
                    87:04:58:d8:91:83:c4:16:56:0d:92:cb:f5:09:76:
                    fe:18:fd:a6:a0:59:d4:44:ef:7a:d0:90:0f:5c:d8:
                    cd:69:f4:3f:01:b6:4b:8a:3e:5a:91:9d:9a:c5:65:
                    8b:f9:4e:c1:e4:8a:7f:5a:b3:a3:bc:bd:3a:38:39:
                    ae:c7:ca:d4:bd:54:a0:ee:0b:dc:86:98:c0:97:4e:
                    24:15:09:02:fe:68:44:23:d5:d2:2e:88:6c:8a:d0:
                    07:bd:d8:8c:7a:2f:4d:83:dc:43:7a:65:8e:8d:6a:
                    e5:07:32:53:b6:23:14:aa:c5:25:3a:48:97:fb:6a:
                    c6:bd:e7:2d:ca:3b:7e:38:cf:6c:04:d9:94:46:68:
                    3c:53:d4:93:ac:94:d5:94:8b:1c:db:5a:11:f5:c0:
                    45:b7:94:49:53:8c:f7:01:87:87:ea:ec:dd:83:df:
                    56:49:e7:3b:9a:bc:e2:f5:b1:a2:09:ad:7d:c3:49:
                    7c:27:f9:be:01:03:44:d4:2f:8d:b8:08:65:b2:85:
                    85:9c:c7:9d:f7:31:94:06:87:cd:03:e2:8e:05:9f:
                    ae:8f:95:ae:f4:4d:64:48:70:ef:50:98:da:f9:49:
                    ef:d3:c1:fa:94:4b:da:1a:2f:58:5a:dd:a3:07:05:
                    43:62:ef:44:0d:33:c6:81:86:cd:20:88:70:c5:e5:
                    35:db:83:c8:52:f1:9f:0e:7d:bb:18:d0:a6:2d:3d:
                    0e:10:3d:7d:96:48:81:32:3a:36:e3:de:f8:21:9c:
                    5c:51:59:24:ea:48:96:ff:f2:37:54:94:cf:ab:ce:
                    50:4f:25:35:9d:73:65:0b:e5:fe:61:48:16:5f:fc:
                    95:fa:59
                Exponent: 65537 (0x10001)
        X509v3 extensions:
            X509v3 Basic Constraints: 
                CA:FALSE
            Netscape Comment: 
                Easy-RSA Generated Certificate
            X509v3 Subject Key Identifier: 
                69:FA:5C:4C:CE:4C:C8:10:93:B9:9A:88:7E:E0:BD:EF:52:11:1F:32
            X509v3 Authority Key Identifier: 
                keyid:12:CD:60:04:D2:A0:80:9E:70:ED:C6:99:B8:7B:2C:C6:52:FD:19:A1
                DirName:/C=US/ST=OH/L=Columbus/O=VikingVPN/OU=MyOrganizationalUnit/CN=VikingVPN CA/name=EasyRSA/emailAddress=me@myhost.mydomain
                serial:CF:35:85:EE:80:BF:2A:3E

            X509v3 Extended Key Usage: 
                TLS Web Client Authentication
            X509v3 Key Usage: 
                Digital Signature
    Signature Algorithm: md5WithRSAEncryption
         a0:77:5a:16:c3:9a:75:5b:44:16:bd:fe:4f:04:0b:b6:27:e5:
         9e:33:4f:8b:ab:3a:2a:43:5b:99:b0:63:0d:3a:19:13:90:c7:
         99:dc:e8:0c:3f:f2:1b:44:91:2b:5b:fb:69:7d:51:7b:3c:19:
         ef:d9:7a:92:5c:61:22:ee:a7:0c:4d:8c:4b:14:99:2c:2d:72:
         1b:38:44:3d:9a:41:1f:69:c0:4a:6b:cb:a3:04:71:47:59:6e:
         67:8c:35:f8:22:43:fa:8d:f8:14:ff:97:71:8f:56:44:06:03:
         b7:73:7b:cf:1e:1a:a7:c4:d5:d9:49:6e:e5:32:18:5d:b6:b5:
         f8:66:2f:41:b0:65:48:43:39:ab:bd:63:d6:3c:c7:5f:d4:1d:
         eb:c2:f7:db:23:7d:80:72:a7:d0:fb:23:7d:b7:23:fa:4d:53:
         ab:d9:9e:ca:e1:4d:5e:bb:f8:87:b5:59:aa:7c:99:0c:cf:86:
         e2:6d:87:12:d6:d0:a4:a7:8b:5f:63:26:10:be:f4:e2:4a:5a:
         a7:88:6b:2e:f7:87:d1:43:49:6d:f0:39:73:62:97:76:cb:cb:
         7a:b1:d8:7e:90:04:d2:e4:c0:80:f7:ef:2d:3f:f2:53:35:86:
         b3:69:ae:5b:d4:bf:d8:a6:5a:43:2e:ee:c9:c9:b6:3f:01:df:
         d5:08:45:a3:aa:ca:97:d1:b8:f5:58:18:3a:5a:95:22:12:bd:
         fc:26:aa:26:bd:28:f8:d5:f1:48:c0:a8:7a:73:55:6d:fa:d4:
         2f:71:44:d6:05:b2:38:ac:af:61:8e:c7:04:f6:94:80:12:6b:
         0f:0c:b5:e5:ad:80:08:cc:c0:0a:79:37:d8:1f:2b:12:d7:20:
         45:5b:35:0c:69:15:8d:47:51:3d:6a:8a:37:82:2d:c0:ff:22:
         48:09:25:5e:cf:ec:ac:2a:19:c9:cd:a8:2a:13:25:36:57:09:
         b4:47:3a:32:68:e7:c7:3c:19:65:d6:81:a6:af:d6:13:e6:2a:
         3c:75:fc:1d:7a:00:9a:9c:d6:f2:c0:b4:7c:3d:de:ab:cb:fb:
         5f:19:18:80:d3:fb:cb:cb:d8:1a:d2:1d:ed:57:d5:ce:37:be:
         ba:d6:ff:3a:5c:2d:44:96:ef:8c:7e:99:8f:35:fc:fb:f3:a0:
         89:96:2e:ad:48:b6:1c:d2:26:d8:82:3d:b6:33:3d:67:52:d3:
         d4:2d:6c:cd:66:79:7a:6f:19:b6:33:e7:68:6d:47:29:4a:26:
         ae:72:2a:25:8a:3f:f8:49:91:ac:3e:a0:6d:75:55:de:b7:10:
         96:92:f5:26:93:6f:ee:b3:a4:b5:e9:b6:f0:de:d0:c7:ff:64:
         2e:57:ce:75:a2:29:6a:88
-----BEGIN CERTIFICATE-----
MIIGrTCCBJWgAwIBAgICFTkwDQYJKoZIhvcNAQEEBQAwgawxCzAJBgNVBAYTAlVT
MQswCQYDVQQIEwJPSDERMA8GA1UEBxMIQ29sdW1idXMxEjAQBgNVBAoTCVZpa2lu
Z1ZQTjEdMBsGA1UECxMUTXlPcmdhbml6YXRpb25hbFVuaXQxFTATBgNVBAMTDFZp
a2luZ1ZQTiBDQTEQMA4GA1UEKRMHRWFzeVJTQTEhMB8GCSqGSIb3DQEJARYSbWVA
bXlob3N0Lm15ZG9tYWluMB4XDTE1MDUyOTAxNDgxMVoXDTI1MDUyNjAxNDgxMVow
HzEdMBsGA1UEAxMUQ2xpZW50MTcxMUNlcnRmOTE3NDAwggIiMA0GCSqGSIb3DQEB
AQUAA4ICDwAwggIKAoICAQDKOPLvpq+/bFOL2MhlDQ1qU9+S9gVXJqVo23ke1KMe
sUt9sW1TXoSuF+qMHApBW90rcyKDCD7FAuA9IzpYI6Kb42ch46/jqxmSto85XBzb
hUKAteUebPIu/0uEBLr0500uPr+xo7434HKbvM62co7UaMoHZCg58p/5aweCBbN+
2QwJWW6bF1hHNs9P78fYBhI22N+aa1ona3yn9s8ikB2u01x9nf2cTlXLxTtfRatt
FqXbRbkj62c98Xn/z/HNjvhUQocEWNiRg8QWVg2Sy/UJdv4Y/aagWdRE73rQkA9c
2M1p9D8BtkuKPlqRnZrFZYv5TsHkin9as6O8vTo4Oa7HytS9VKDuC9yGmMCXTiQV
CQL+aEQj1dIuiGyK0Ae92Ix6L02D3EN6ZY6NauUHMlO2IxSqxSU6SJf7asa95y3K
O344z2wE2ZRGaDxT1JOslNWUixzbWhH1wEW3lElTjPcBh4fq7N2D31ZJ5zuavOL1
saIJrX3DSXwn+b4BA0TUL424CGWyhYWcx533MZQGh80D4o4Fn66Pla70TWRIcO9Q
mNr5Se/TwfqUS9oaL1ha3aMHBUNi70QNM8aBhs0giHDF5TXbg8hS8Z8OfbsY0KYt
PQ4QPX2WSIEyOjbj3vghnFxRWSTqSJb/8jdUlM+rzlBPJTWdc2UL5f5hSBZf/JX6
WQIDAQABo4IBYzCCAV8wCQYDVR0TBAIwADAtBglghkgBhvhCAQ0EIBYeRWFzeS1S
U0EgR2VuZXJhdGVkIENlcnRpZmljYXRlMB0GA1UdDgQWBBRp+lxMzkzIEJO5moh+
4L3vUhEfMjCB4QYDVR0jBIHZMIHWgBQSzWAE0qCAnnDtxpm4eyzGUv0ZoaGBsqSB
rzCBrDELMAkGA1UEBhMCVVMxCzAJBgNVBAgTAk9IMREwDwYDVQQHEwhDb2x1bWJ1
czESMBAGA1UEChMJVmlraW5nVlBOMR0wGwYDVQQLExRNeU9yZ2FuaXphdGlvbmFs
VW5pdDEVMBMGA1UEAxMMVmlraW5nVlBOIENBMRAwDgYDVQQpEwdFYXN5UlNBMSEw
HwYJKoZIhvcNAQkBFhJtZUBteWhvc3QubXlkb21haW6CCQDPNYXugL8qPjATBgNV
HSUEDDAKBggrBgEFBQcDAjALBgNVHQ8EBAMCB4AwDQYJKoZIhvcNAQEEBQADggIB
AKB3WhbDmnVbRBa9/k8EC7Yn5Z4zT4urOipDW5mwYw06GROQx5nc6Aw/8htEkStb
+2l9UXs8Ge/ZepJcYSLupwxNjEsUmSwtchs4RD2aQR9pwEpry6MEcUdZbmeMNfgi
Q/qN+BT/l3GPVkQGA7dze88eGqfE1dlJbuUyGF22tfhmL0GwZUhDOau9Y9Y8x1/U
HevC99sjfYByp9D7I323I/pNU6vZnsrhTV67+Ie1Wap8mQzPhuJthxLW0KSni19j
JhC+9OJKWqeIay73h9FDSW3wOXNil3bLy3qx2H6QBNLkwID37y0/8lM1hrNprlvU
v9imWkMu7snJtj8B39UIRaOqypfRuPVYGDpalSISvfwmqia9KPjV8UjAqHpzVW36
1C9xRNYFsjisr2GOxwT2lIASaw8MteWtgAjMwAp5N9gfKxLXIEVbNQxpFY1HUT1q
ijeCLcD/IkgJJV7P7KwqGcnNqCoTJTZXCbRHOjJo58c8GWXWgaav1hPmKjx1/B16
AJqc1vLAtHw93qvL+18ZGIDT+8vL2BrSHe1X1c43vrrW/zpcLUSW74x+mY81/Pvz
oImWLq1IthzSJtiCPbYzPWdS09QtbM1meXpvGbYz52htRylKJq5yKiWKP/hJkaw+
oG11Vd63EJaS9SaTb+6zpLXptvDe0Mf/ZC5XznWiKWqI
-----END CERTIFICATE-----
