Certificate:
    Data:
        Version: 3 (0x2)
        Serial Number: 10242 (0x2802)
    Signature Algorithm: sha256WithRSAEncryption
        Issuer: C=US, ST=OH, L=Columbus, O=VikingVPN, OU=MyOrganizationalUnit, CN=VikingVPN CA/name=EasyRSA/emailAddress=me@myhost.mydomain
        Validity
            Not Before: Mar  5 14:07:13 2017 GMT
            Not After : Mar  3 14:07:13 2027 GMT
        Subject: CN=Client1736Cert84f37a
        Subject Public Key Info:
            Public Key Algorithm: rsaEncryption
                Public-Key: (4096 bit)
                Modulus:
                    00:d9:05:77:13:3f:1e:7a:0b:a3:76:c8:87:c8:a6:
                    07:2c:9b:d1:9f:10:f0:02:e6:49:6c:3c:db:ef:83:
                    5b:96:67:d9:e6:9b:68:61:29:0b:89:34:b6:0b:e0:
                    c3:45:83:46:7c:38:c8:f1:a6:a4:07:a4:7f:6b:4b:
                    7f:38:f6:13:bd:d2:29:c9:35:8a:69:b7:0f:3b:ba:
                    eb:ca:95:ae:8a:67:91:c3:48:5e:2a:6a:e3:88:71:
                    01:19:4a:28:d3:7a:4e:a2:00:03:bf:00:aa:b3:60:
                    9f:97:25:98:0f:e7:37:f0:91:3f:c2:8b:66:84:01:
                    56:37:3f:91:0b:d7:60:47:7d:09:cc:b3:89:ef:95:
                    70:47:f6:24:1d:25:a5:7e:0d:4e:33:58:17:2c:b6:
                    02:5f:d7:b3:8c:98:e4:d9:e7:9d:a2:a6:f3:5c:76:
                    9a:a3:03:4e:a3:14:98:48:70:e4:ef:6f:3f:60:14:
                    73:56:33:05:6f:a9:83:97:92:b0:03:71:a4:b8:44:
                    76:62:8d:b1:a5:e4:dc:30:82:0b:3e:90:96:3d:26:
                    db:73:81:f8:b3:d5:77:31:f4:b5:55:ec:97:bb:4d:
                    2b:2d:d7:88:e3:cf:fd:21:3e:39:a3:95:0d:66:91:
                    c4:e2:c3:85:26:aa:7c:09:41:35:02:75:c6:ca:6e:
                    26:eb:85:cf:75:1e:79:96:6a:19:d5:25:81:d6:a7:
                    2e:e0:df:b3:5b:f5:b1:3f:1a:5d:27:30:e8:7b:44:
                    2c:a2:21:50:8a:b5:66:4a:7a:50:1e:0e:4b:55:42:
                    5e:64:08:90:ec:80:6e:0f:13:b1:67:ce:58:7c:31:
                    10:4c:69:10:d9:ab:fe:f2:aa:44:5c:5e:99:4b:dd:
                    87:66:9d:0c:65:e1:c2:a6:f6:85:1a:9b:07:88:7e:
                    33:7b:75:a2:14:28:79:f8:76:8b:f9:b0:7f:42:0d:
                    84:9e:42:89:2c:25:9a:f2:bc:85:01:a7:0d:60:ab:
                    5d:95:51:0c:13:a8:06:f2:f2:26:27:d3:19:c5:c6:
                    56:c1:73:c1:77:ae:80:11:48:b8:c9:af:0d:5a:f3:
                    8c:80:fc:ad:e1:f8:0b:d0:75:cc:08:f2:53:92:ba:
                    7e:2c:9e:8e:67:4d:e4:9d:49:5c:ac:63:86:ab:6b:
                    9c:26:c1:27:0b:3c:19:68:46:a7:d4:5b:9b:16:00:
                    47:30:b6:08:63:26:38:4f:9e:fb:b2:34:e0:15:38:
                    b1:c2:03:f3:c1:82:93:bf:84:ba:02:b6:10:28:34:
                    33:5d:85:31:1d:bd:cc:fc:b5:5e:97:f4:8f:b2:44:
                    16:dd:30:9a:b5:cc:97:50:1c:3c:29:fa:2d:2a:8d:
                    28:71:4b
                Exponent: 65537 (0x10001)
        X509v3 extensions:
            X509v3 Basic Constraints: 
                CA:FALSE
            Netscape Comment: 
                Easy-RSA Generated Certificate
            X509v3 Subject Key Identifier: 
                EC:3B:4B:C2:EC:EE:2D:26:D6:6A:A2:47:D5:2D:66:17:90:28:A1:8F
            X509v3 Authority Key Identifier: 
                keyid:12:CD:60:04:D2:A0:80:9E:70:ED:C6:99:B8:7B:2C:C6:52:FD:19:A1
                DirName:/C=US/ST=OH/L=Columbus/O=VikingVPN/OU=MyOrganizationalUnit/CN=VikingVPN CA/name=EasyRSA/emailAddress=me@myhost.mydomain
                serial:CF:35:85:EE:80:BF:2A:3E

            X509v3 Extended Key Usage: 
                TLS Web Client Authentication
            X509v3 Key Usage: 
                Digital Signature
    Signature Algorithm: sha256WithRSAEncryption
         3b:98:44:67:9a:a5:5b:88:70:c4:24:5f:34:68:ef:4a:00:ff:
         32:e3:55:ee:33:40:1f:14:21:aa:c1:ee:71:32:42:e4:fb:31:
         fd:af:a0:29:02:88:00:3b:02:63:21:c3:93:fd:5c:7a:68:06:
         4f:e2:c7:0c:c7:21:ba:0e:a7:ea:3c:3d:cf:9e:7d:28:4a:c4:
         46:35:d0:20:57:5c:88:1e:a9:ea:29:d6:54:11:41:a3:86:7e:
         69:40:02:de:0d:ad:cd:22:9e:15:91:7a:23:13:33:a5:90:d5:
         1b:d2:b1:19:e1:22:e8:ea:6c:43:6e:e1:96:ef:49:21:c8:e1:
         f0:3e:bc:1d:c2:6c:ad:18:a1:94:bc:36:c9:15:14:93:9f:5d:
         ca:b9:f0:c6:42:95:68:88:27:b3:62:37:6c:12:45:ae:84:a5:
         10:03:5c:0d:69:c0:48:79:56:29:8e:33:e5:e0:a1:39:1a:79:
         8c:f9:7e:95:87:f2:2e:2b:57:0f:ba:6a:1a:96:03:c7:dd:47:
         52:c3:e0:02:90:bc:13:cb:17:4c:8d:50:b8:bf:ec:a4:f1:e3:
         07:95:17:d5:ca:0d:d7:ac:79:84:76:74:b8:ef:3b:1a:86:93:
         cf:49:70:85:36:99:b4:f8:d2:93:8b:03:6f:58:f6:27:ce:29:
         f0:c5:52:00:8c:d3:12:da:f1:de:c2:6c:68:87:93:b9:64:e5:
         89:ef:f0:17:7f:1a:84:c6:78:33:2c:7b:b0:0b:c9:8f:92:7b:
         93:76:c8:32:b0:2c:20:ee:45:a3:b3:d0:c9:5e:02:64:40:83:
         c6:fe:3b:fb:dd:86:4f:63:3f:2b:ee:e1:99:b7:fd:09:ef:5a:
         0c:17:ec:93:27:e2:67:7c:8c:51:05:0c:2a:f6:d9:cd:1e:6a:
         10:20:2c:89:18:46:ab:86:dc:19:59:ed:bd:81:48:a9:ab:c0:
         cd:9d:f0:9d:45:37:07:17:48:42:ea:17:bc:0c:82:5e:3e:fd:
         11:c3:43:63:38:78:36:71:e4:9d:e7:30:5e:5b:3a:87:7e:c7:
         fa:fa:33:50:57:2f:28:8b:d6:9b:83:c1:9e:22:ee:bc:ee:b6:
         2a:cb:5b:ba:3d:51:4c:cb:35:a7:e5:95:ae:cd:d2:0f:d2:46:
         ab:d6:17:33:aa:d9:b6:32:ae:21:88:8c:14:2e:1a:a7:98:20:
         43:bb:4e:6c:71:bf:8f:d0:90:84:3a:42:5c:cc:5d:ad:eb:dd:
         27:2d:53:bb:a4:8b:28:cf:8c:02:08:46:c3:9a:8b:8e:c5:4e:
         a4:19:48:48:c1:82:49:6d:7f:4c:eb:e8:bc:59:bb:56:05:79:
         d1:70:d5:63:a3:50:bc:af
-----BEGIN CERTIFICATE-----
MIIGrTCCBJWgAwIBAgICKAIwDQYJKoZIhvcNAQELBQAwgawxCzAJBgNVBAYTAlVT
MQswCQYDVQQIEwJPSDERMA8GA1UEBxMIQ29sdW1idXMxEjAQBgNVBAoTCVZpa2lu
Z1ZQTjEdMBsGA1UECxMUTXlPcmdhbml6YXRpb25hbFVuaXQxFTATBgNVBAMTDFZp
a2luZ1ZQTiBDQTEQMA4GA1UEKRMHRWFzeVJTQTEhMB8GCSqGSIb3DQEJARYSbWVA
bXlob3N0Lm15ZG9tYWluMB4XDTE3MDMwNTE0MDcxM1oXDTI3MDMwMzE0MDcxM1ow
HzEdMBsGA1UEAxMUQ2xpZW50MTczNkNlcnQ4NGYzN2EwggIiMA0GCSqGSIb3DQEB
AQUAA4ICDwAwggIKAoICAQDZBXcTPx56C6N2yIfIpgcsm9GfEPAC5klsPNvvg1uW
Z9nmm2hhKQuJNLYL4MNFg0Z8OMjxpqQHpH9rS3849hO90inJNYpptw87uuvKla6K
Z5HDSF4qauOIcQEZSijTek6iAAO/AKqzYJ+XJZgP5zfwkT/Ci2aEAVY3P5EL12BH
fQnMs4nvlXBH9iQdJaV+DU4zWBcstgJf17OMmOTZ552ipvNcdpqjA06jFJhIcOTv
bz9gFHNWMwVvqYOXkrADcaS4RHZijbGl5Nwwggs+kJY9Jttzgfiz1Xcx9LVV7Je7
TSst14jjz/0hPjmjlQ1mkcTiw4UmqnwJQTUCdcbKbibrhc91HnmWahnVJYHWpy7g
37Nb9bE/Gl0nMOh7RCyiIVCKtWZKelAeDktVQl5kCJDsgG4PE7Fnzlh8MRBMaRDZ
q/7yqkRcXplL3YdmnQxl4cKm9oUamweIfjN7daIUKHn4dov5sH9CDYSeQoksJZry
vIUBpw1gq12VUQwTqAby8iYn0xnFxlbBc8F3roARSLjJrw1a84yA/K3h+AvQdcwI
8lOSun4sno5nTeSdSVysY4ara5wmwScLPBloRqfUW5sWAEcwtghjJjhPnvuyNOAV
OLHCA/PBgpO/hLoCthAoNDNdhTEdvcz8tV6X9I+yRBbdMJq1zJdQHDwp+i0qjShx
SwIDAQABo4IBYzCCAV8wCQYDVR0TBAIwADAtBglghkgBhvhCAQ0EIBYeRWFzeS1S
U0EgR2VuZXJhdGVkIENlcnRpZmljYXRlMB0GA1UdDgQWBBTsO0vC7O4tJtZqokfV
LWYXkCihjzCB4QYDVR0jBIHZMIHWgBQSzWAE0qCAnnDtxpm4eyzGUv0ZoaGBsqSB
rzCBrDELMAkGA1UEBhMCVVMxCzAJBgNVBAgTAk9IMREwDwYDVQQHEwhDb2x1bWJ1
czESMBAGA1UEChMJVmlraW5nVlBOMR0wGwYDVQQLExRNeU9yZ2FuaXphdGlvbmFs
VW5pdDEVMBMGA1UEAxMMVmlraW5nVlBOIENBMRAwDgYDVQQpEwdFYXN5UlNBMSEw
HwYJKoZIhvcNAQkBFhJtZUBteWhvc3QubXlkb21haW6CCQDPNYXugL8qPjATBgNV
HSUEDDAKBggrBgEFBQcDAjALBgNVHQ8EBAMCB4AwDQYJKoZIhvcNAQELBQADggIB
ADuYRGeapVuIcMQkXzRo70oA/zLjVe4zQB8UIarB7nEyQuT7Mf2voCkCiAA7AmMh
w5P9XHpoBk/ixwzHIboOp+o8Pc+efShKxEY10CBXXIgeqeop1lQRQaOGfmlAAt4N
rc0inhWReiMTM6WQ1RvSsRnhIujqbENu4ZbvSSHI4fA+vB3CbK0YoZS8NskVFJOf
Xcq58MZClWiIJ7NiN2wSRa6EpRADXA1pwEh5VimOM+XgoTkaeYz5fpWH8i4rVw+6
ahqWA8fdR1LD4AKQvBPLF0yNULi/7KTx4weVF9XKDdeseYR2dLjvOxqGk89JcIU2
mbT40pOLA29Y9ifOKfDFUgCM0xLa8d7CbGiHk7lk5Ynv8Bd/GoTGeDMse7ALyY+S
e5N2yDKwLCDuRaOz0MleAmRAg8b+O/vdhk9jPyvu4Zm3/QnvWgwX7JMn4md8jFEF
DCr22c0eahAgLIkYRquG3BlZ7b2BSKmrwM2d8J1FNwcXSELqF7wMgl4+/RHDQ2M4
eDZx5J3nMF5bOod+x/r6M1BXLyiL1puDwZ4i7rzutirLW7o9UUzLNaflla7N0g/S
RqvWFzOq2bYyriGIjBQuGqeYIEO7Tmxxv4/QkIQ6QlzMXa3r3SctU7ukiyjPjAII
RsOai47FTqQZSEjBgkltf0zr6LxZu1YFedFw1WOjULyv
-----END CERTIFICATE-----
