Certificate:
    Data:
        Version: 3 (0x2)
        Serial Number: 6667 (0x1a0b)
    Signature Algorithm: md5WithRSAEncryption
        Issuer: C=US, ST=OH, L=Columbus, O=VikingVPN, OU=MyOrganizationalUnit, CN=VikingVPN CA/name=EasyRSA/emailAddress=me@myhost.mydomain
        Validity
            Not Before: Nov  9 13:26:07 2015 GMT
            Not After : Nov  6 13:26:07 2025 GMT
        Subject: CN=Client1488Cert2b9234
        Subject Public Key Info:
            Public Key Algorithm: rsaEncryption
                Public-Key: (4096 bit)
                Modulus:
                    00:bc:63:32:36:9a:e6:b2:dc:8b:07:49:85:48:4a:
                    db:52:64:0d:97:fa:ef:53:a4:f0:36:d0:83:e7:fd:
                    ac:21:d4:14:94:5c:1e:be:d9:61:5e:ac:ca:3b:73:
                    44:1b:a6:59:b5:38:a4:0d:9d:4c:93:a6:fd:f4:31:
                    74:7d:ed:cd:aa:8f:34:5f:2f:df:87:6c:dc:e0:d7:
                    2a:77:c9:87:0b:39:17:48:58:0c:42:e0:38:4d:f3:
                    c4:d9:ae:e8:6b:81:ec:10:65:19:b6:6d:2a:5d:15:
                    87:a5:2e:92:cd:75:21:9e:08:94:16:41:3a:6f:13:
                    7b:4c:7c:51:d7:28:cf:a9:53:b2:49:7a:39:6e:ee:
                    cc:8e:d2:94:50:bf:62:a6:f2:11:62:08:72:f1:2c:
                    6b:67:7a:5a:3b:72:07:59:68:86:ca:c8:b8:dd:f5:
                    aa:85:08:78:ab:8a:43:7f:4a:2a:a5:af:30:b0:73:
                    4e:47:72:1f:49:65:00:90:ba:76:91:b0:f0:5f:66:
                    c9:84:45:86:57:23:5e:74:c0:09:1a:72:98:f2:c6:
                    db:8d:c7:0d:0e:77:a6:b1:04:10:82:f5:21:15:c2:
                    a1:a9:59:94:51:24:83:04:92:c8:f4:cb:c8:49:89:
                    8c:11:29:92:57:1d:c8:d6:6b:bc:e5:fd:dc:ac:27:
                    ff:54:fd:52:02:1e:e4:60:32:c0:2b:a0:bc:6b:98:
                    c8:e7:f0:e7:5b:50:20:9a:24:cf:56:e1:36:c4:f9:
                    29:0d:8c:67:a5:79:87:ee:a2:05:54:a9:f1:8d:86:
                    f3:1f:0b:82:cf:8f:e1:51:3a:2c:0e:8c:ad:66:19:
                    f7:19:ee:cb:05:db:cc:05:ba:d8:c9:db:9e:7a:4b:
                    de:78:b4:3a:a4:62:f0:a7:43:a2:3a:59:4f:87:fb:
                    05:fd:13:3a:aa:7b:c9:3b:25:3c:2d:dc:87:6d:33:
                    f4:42:52:70:72:80:41:d3:76:dc:e0:b7:8b:1f:38:
                    b8:99:c7:e5:57:c3:fe:1a:55:9e:d4:a2:30:d5:6e:
                    9c:5a:7a:d3:20:86:d7:7d:2f:77:19:e4:ac:13:aa:
                    23:f2:d9:e7:bc:c3:bb:c3:1c:3c:04:41:87:23:5e:
                    d8:c1:ff:63:b3:72:13:b3:53:93:4f:85:fb:ef:53:
                    35:78:0d:8e:54:9e:41:20:a0:a8:13:e5:5c:5d:af:
                    07:ae:ad:5d:63:35:03:29:14:3c:ed:49:d4:97:2b:
                    91:76:15:f1:f4:c9:cf:80:ed:f9:b5:8a:a6:b2:b0:
                    8b:ee:95:81:4d:23:48:e0:89:eb:25:df:1a:dd:c9:
                    36:e3:3e:54:98:62:12:ce:64:8c:0f:ef:8d:42:50:
                    0f:fb:17
                Exponent: 65537 (0x10001)
        X509v3 extensions:
            X509v3 Basic Constraints: 
                CA:FALSE
            Netscape Comment: 
                Easy-RSA Generated Certificate
            X509v3 Subject Key Identifier: 
                65:69:8F:A0:83:E9:6F:70:A1:DD:9A:B4:24:74:9C:47:D2:5E:9B:EB
            X509v3 Authority Key Identifier: 
                keyid:12:CD:60:04:D2:A0:80:9E:70:ED:C6:99:B8:7B:2C:C6:52:FD:19:A1
                DirName:/C=US/ST=OH/L=Columbus/O=VikingVPN/OU=MyOrganizationalUnit/CN=VikingVPN CA/name=EasyRSA/emailAddress=me@myhost.mydomain
                serial:CF:35:85:EE:80:BF:2A:3E

            X509v3 Extended Key Usage: 
                TLS Web Client Authentication
            X509v3 Key Usage: 
                Digital Signature
    Signature Algorithm: md5WithRSAEncryption
         8e:b2:38:03:c2:06:e6:f0:ff:08:04:97:6b:32:45:bc:c8:ac:
         6c:14:d7:1c:69:b7:c1:d5:7c:bb:e8:9b:b4:08:29:54:27:9c:
         65:c5:24:a1:8f:3b:54:1d:88:53:1e:d8:3d:98:6b:81:94:e9:
         88:e6:50:b9:89:f3:fe:2e:d3:6b:6d:a0:fe:20:bd:3c:0f:eb:
         d2:66:16:db:cc:7c:1d:61:38:6d:fa:45:11:86:41:c2:77:a0:
         ff:e4:36:ef:e5:8e:31:b6:14:d5:e2:03:bb:bd:46:e1:00:ff:
         b9:7f:17:03:4a:18:36:9f:4d:08:93:bd:cc:a1:d7:79:0e:6f:
         30:34:c8:ab:21:62:f9:dd:3c:e7:7f:e6:88:dd:dd:57:ee:d4:
         3e:2c:b2:2e:00:1b:4a:88:0a:e8:07:d0:dc:be:2b:3c:93:76:
         de:0e:96:45:fc:b4:c6:45:22:34:69:ad:53:63:70:75:e3:1d:
         d2:50:ed:14:bf:33:68:03:77:7c:5f:f1:ac:75:9f:87:e0:50:
         aa:56:79:d8:f8:b7:d9:73:d6:3b:82:a8:20:71:22:bb:f3:5c:
         9d:aa:d5:97:53:9e:ab:01:ee:f9:f8:a7:05:e1:0c:98:ba:84:
         79:81:db:04:72:04:ea:88:0f:58:b4:3b:4c:11:a7:dc:a6:30:
         49:f6:07:3f:8e:1f:e2:97:39:01:f0:b5:c2:9c:32:25:28:76:
         e6:c6:1f:17:b6:d3:b4:a7:c3:1d:18:15:39:03:95:bb:4e:0b:
         28:d1:75:fc:c5:a1:33:14:b7:21:2a:a6:77:b7:b3:8b:4b:1c:
         86:79:8a:b7:f5:9b:5a:37:d7:ac:0b:db:d6:12:b9:c8:72:f7:
         24:55:f4:fc:69:95:e9:6b:5a:6a:d1:66:ca:21:ed:4f:c6:4e:
         56:c7:49:e1:35:2a:8a:45:4d:51:21:6f:d3:b4:0a:97:5e:13:
         4a:4b:c1:80:0a:92:24:fd:54:b1:31:b6:56:47:0f:e5:2d:fa:
         ed:36:66:d7:45:84:04:dc:2c:44:1c:29:c8:5b:a6:f3:45:46:
         d4:b0:cf:40:3f:a6:f7:6c:61:1e:3b:dd:48:60:a2:23:e2:4f:
         3f:ec:30:0c:94:5f:6a:8d:93:0d:c6:1e:12:e4:24:2d:41:4f:
         23:51:6d:20:06:5a:a9:54:ef:85:a9:03:99:4a:0f:90:e0:37:
         dd:07:54:21:ab:35:7e:9e:98:c5:99:7b:41:71:b3:a0:ab:c2:
         d8:7d:b4:4e:8b:6b:de:a6:35:79:3b:30:d6:81:8d:a5:c2:1a:
         a4:9e:81:aa:9a:fc:ab:78:0b:bc:e4:e2:52:f9:7a:22:d8:84:
         00:b9:55:84:cf:74:47:34
-----BEGIN CERTIFICATE-----
MIIGrTCCBJWgAwIBAgICGgswDQYJKoZIhvcNAQEEBQAwgawxCzAJBgNVBAYTAlVT
MQswCQYDVQQIEwJPSDERMA8GA1UEBxMIQ29sdW1idXMxEjAQBgNVBAoTCVZpa2lu
Z1ZQTjEdMBsGA1UECxMUTXlPcmdhbml6YXRpb25hbFVuaXQxFTATBgNVBAMTDFZp
a2luZ1ZQTiBDQTEQMA4GA1UEKRMHRWFzeVJTQTEhMB8GCSqGSIb3DQEJARYSbWVA
bXlob3N0Lm15ZG9tYWluMB4XDTE1MTEwOTEzMjYwN1oXDTI1MTEwNjEzMjYwN1ow
HzEdMBsGA1UEAxMUQ2xpZW50MTQ4OENlcnQyYjkyMzQwggIiMA0GCSqGSIb3DQEB
AQUAA4ICDwAwggIKAoICAQC8YzI2muay3IsHSYVISttSZA2X+u9TpPA20IPn/awh
1BSUXB6+2WFerMo7c0Qbplm1OKQNnUyTpv30MXR97c2qjzRfL9+HbNzg1yp3yYcL
ORdIWAxC4DhN88TZruhrgewQZRm2bSpdFYelLpLNdSGeCJQWQTpvE3tMfFHXKM+p
U7JJejlu7syO0pRQv2Km8hFiCHLxLGtnelo7cgdZaIbKyLjd9aqFCHirikN/Siql
rzCwc05Hch9JZQCQunaRsPBfZsmERYZXI150wAkacpjyxtuNxw0Od6axBBCC9SEV
wqGpWZRRJIMEksj0y8hJiYwRKZJXHcjWa7zl/dysJ/9U/VICHuRgMsAroLxrmMjn
8OdbUCCaJM9W4TbE+SkNjGeleYfuogVUqfGNhvMfC4LPj+FROiwOjK1mGfcZ7ssF
28wFutjJ2556S954tDqkYvCnQ6I6WU+H+wX9Ezqqe8k7JTwt3IdtM/RCUnBygEHT
dtzgt4sfOLiZx+VXw/4aVZ7UojDVbpxaetMghtd9L3cZ5KwTqiPy2ee8w7vDHDwE
QYcjXtjB/2OzchOzU5NPhfvvUzV4DY5UnkEgoKgT5VxdrweurV1jNQMpFDztSdSX
K5F2FfH0yc+A7fm1iqaysIvulYFNI0jgiesl3xrdyTbjPlSYYhLOZIwP741CUA/7
FwIDAQABo4IBYzCCAV8wCQYDVR0TBAIwADAtBglghkgBhvhCAQ0EIBYeRWFzeS1S
U0EgR2VuZXJhdGVkIENlcnRpZmljYXRlMB0GA1UdDgQWBBRlaY+gg+lvcKHdmrQk
dJxH0l6b6zCB4QYDVR0jBIHZMIHWgBQSzWAE0qCAnnDtxpm4eyzGUv0ZoaGBsqSB
rzCBrDELMAkGA1UEBhMCVVMxCzAJBgNVBAgTAk9IMREwDwYDVQQHEwhDb2x1bWJ1
czESMBAGA1UEChMJVmlraW5nVlBOMR0wGwYDVQQLExRNeU9yZ2FuaXphdGlvbmFs
VW5pdDEVMBMGA1UEAxMMVmlraW5nVlBOIENBMRAwDgYDVQQpEwdFYXN5UlNBMSEw
HwYJKoZIhvcNAQkBFhJtZUBteWhvc3QubXlkb21haW6CCQDPNYXugL8qPjATBgNV
HSUEDDAKBggrBgEFBQcDAjALBgNVHQ8EBAMCB4AwDQYJKoZIhvcNAQEEBQADggIB
AI6yOAPCBubw/wgEl2syRbzIrGwU1xxpt8HVfLvom7QIKVQnnGXFJKGPO1QdiFMe
2D2Ya4GU6YjmULmJ8/4u02ttoP4gvTwP69JmFtvMfB1hOG36RRGGQcJ3oP/kNu/l
jjG2FNXiA7u9RuEA/7l/FwNKGDafTQiTvcyh13kObzA0yKshYvndPOd/5ojd3Vfu
1D4ssi4AG0qICugH0Ny+KzyTdt4OlkX8tMZFIjRprVNjcHXjHdJQ7RS/M2gDd3xf
8ax1n4fgUKpWedj4t9lz1juCqCBxIrvzXJ2q1ZdTnqsB7vn4pwXhDJi6hHmB2wRy
BOqID1i0O0wRp9ymMEn2Bz+OH+KXOQHwtcKcMiUodubGHxe207Snwx0YFTkDlbtO
CyjRdfzFoTMUtyEqpne3s4tLHIZ5irf1m1o316wL29YSuchy9yRV9PxplelrWmrR
Zsoh7U/GTlbHSeE1KopFTVEhb9O0CpdeE0pLwYAKkiT9VLExtlZHD+Ut+u02ZtdF
hATcLEQcKchbpvNFRtSwz0A/pvdsYR473UhgoiPiTz/sMAyUX2qNkw3GHhLkJC1B
TyNRbSAGWqlU74WpA5lKD5DgN90HVCGrNX6emMWZe0Fxs6Crwth9tE6La96mNXk7
MNaBjaXCGqSegaqa/Kt4C7zk4lL5eiLYhAC5VYTPdEc0
-----END CERTIFICATE-----
