Certificate:
    Data:
        Version: 3 (0x2)
        Serial Number: 10765 (0x2a0d)
    Signature Algorithm: sha256WithRSAEncryption
        Issuer: C=US, ST=OH, L=Columbus, O=VikingVPN, OU=MyOrganizationalUnit, CN=VikingVPN CA/name=EasyRSA/emailAddress=me@myhost.mydomain
        Validity
            Not Before: Apr 22 14:26:32 2017 GMT
            Not After : Apr 20 14:26:32 2027 GMT
        Subject: CN=Client2874Cert5d4788
        Subject Public Key Info:
            Public Key Algorithm: rsaEncryption
                Public-Key: (4096 bit)
                Modulus:
                    00:cf:9a:ef:64:61:1d:21:a4:0b:4d:a5:4b:d6:0f:
                    af:4e:96:74:66:7b:32:ea:a8:ec:00:e2:35:9d:6e:
                    da:78:d8:cc:98:f4:7b:61:9f:5e:df:06:bb:31:7e:
                    36:ff:0f:48:c3:7e:c4:45:6e:94:d5:9d:05:f4:89:
                    82:2a:ef:14:d1:c1:22:47:c2:a7:8c:2f:64:e4:ee:
                    69:63:9b:33:e2:de:d8:50:94:ac:b4:89:4f:74:b1:
                    72:6a:aa:84:cb:04:fc:fb:a0:b1:92:b2:fd:58:a9:
                    af:0b:d7:6e:11:af:b4:92:f7:74:b8:ec:a3:f8:a5:
                    5c:89:e6:75:ce:4b:df:b9:a1:6b:b2:fd:b3:77:75:
                    e9:3d:72:19:45:89:af:76:ad:5a:df:1f:75:7a:68:
                    95:5a:1a:7a:c4:d6:95:d1:3e:97:da:e6:b4:b6:01:
                    19:0d:4a:00:bf:36:92:a6:11:2d:d7:bc:38:5a:11:
                    04:bc:4d:9c:7a:89:7b:d2:83:f3:a6:19:57:6c:b6:
                    cb:20:12:17:ff:79:e8:dc:22:b1:1c:a1:84:79:6e:
                    07:98:df:ce:5f:68:c2:8e:45:ba:4a:c2:5c:b5:d4:
                    65:cc:98:28:b1:34:dd:66:26:aa:c6:81:ae:56:0f:
                    14:e9:39:5f:9f:ec:20:bb:22:88:43:ce:a1:b2:21:
                    eb:ca:45:e8:b7:93:68:fc:8e:67:15:84:4b:2a:a4:
                    66:bb:28:9b:fe:68:ee:01:5c:bb:28:1b:9f:ea:37:
                    d6:ab:8d:1f:0a:b6:7f:88:a4:08:79:9a:d8:c4:4e:
                    e2:49:68:c1:d4:dd:4d:9d:01:1c:6b:19:e4:6a:6e:
                    86:b3:f0:0d:e8:fe:21:09:fc:5a:34:99:2f:a9:49:
                    b2:42:74:01:58:05:ec:00:72:6a:33:cd:08:a9:d5:
                    31:10:5d:5d:13:28:fb:01:a5:a2:2a:28:c9:48:1f:
                    6e:d7:b4:82:9a:fe:43:4b:93:49:9e:ba:61:5c:4f:
                    b3:8b:af:f8:83:6e:b3:39:b3:64:8f:7e:88:98:3d:
                    b6:00:50:ef:d7:9b:c2:e2:e6:04:56:d3:e1:e2:3a:
                    db:18:f5:ce:53:a7:6e:69:ab:7a:5a:b4:03:a9:24:
                    a6:35:47:44:05:24:1f:d0:8d:97:be:80:92:85:03:
                    80:ca:75:21:c4:dd:49:32:83:64:84:76:a9:dd:78:
                    c4:c4:93:b2:6e:02:4c:fb:5b:b8:f7:6e:ef:d0:f7:
                    f4:ed:ec:0f:93:b3:66:3e:ec:ee:c6:95:8a:f5:e8:
                    c7:53:34:93:c9:bd:2b:b5:df:1f:9a:dc:d4:04:3c:
                    66:19:6a:03:c8:4e:e5:ee:c4:5a:4d:00:23:a8:22:
                    d1:29:4d
                Exponent: 65537 (0x10001)
        X509v3 extensions:
            X509v3 Basic Constraints: 
                CA:FALSE
            Netscape Comment: 
                Easy-RSA Generated Certificate
            X509v3 Subject Key Identifier: 
                BE:9C:A0:BC:2F:C3:C8:58:D7:E2:D5:4B:24:65:84:3D:3B:11:81:11
            X509v3 Authority Key Identifier: 
                keyid:12:CD:60:04:D2:A0:80:9E:70:ED:C6:99:B8:7B:2C:C6:52:FD:19:A1
                DirName:/C=US/ST=OH/L=Columbus/O=VikingVPN/OU=MyOrganizationalUnit/CN=VikingVPN CA/name=EasyRSA/emailAddress=me@myhost.mydomain
                serial:CF:35:85:EE:80:BF:2A:3E

            X509v3 Extended Key Usage: 
                TLS Web Client Authentication
            X509v3 Key Usage: 
                Digital Signature
    Signature Algorithm: sha256WithRSAEncryption
         e9:dc:61:3e:24:e8:fa:b8:fc:25:13:91:76:e9:79:f0:5e:8f:
         22:70:9c:07:40:bc:18:24:6c:c6:b2:9b:3b:33:e3:81:90:12:
         cd:7b:08:72:84:bd:4a:13:ba:9b:09:9e:24:31:cd:6b:8d:20:
         a7:73:65:61:ab:17:2c:41:36:33:4a:1a:93:51:31:ef:48:95:
         d9:23:a3:89:c4:72:8b:87:d0:14:f9:a1:59:53:5a:c8:5b:2a:
         16:8a:67:67:42:72:ba:80:ea:53:26:6b:65:bb:75:76:40:85:
         09:c2:01:1a:58:e8:20:55:8e:20:ad:20:58:c2:01:1c:ee:b5:
         25:6c:1a:19:75:56:97:d0:72:8c:02:68:39:d8:b9:cb:3c:eb:
         58:51:6c:8e:ea:1c:56:4e:5b:45:2b:89:5d:50:a3:64:4e:7c:
         a2:48:f6:12:b9:d8:78:a3:44:43:59:59:45:b3:9b:5b:6c:63:
         72:15:01:a0:9a:fa:4e:96:05:71:c5:6c:08:09:70:ff:d0:45:
         b9:c8:1f:5d:8f:2d:d5:7a:90:22:fa:25:a7:65:10:32:2c:73:
         f6:8d:35:ea:5f:d8:55:4e:f5:ab:ad:78:4e:8e:c7:dd:c1:11:
         1b:71:bc:89:0b:27:82:d7:f9:3a:15:48:4c:b8:51:9d:b6:9f:
         fb:d9:94:c2:bd:30:4d:01:4e:ba:3d:60:16:81:18:d2:7b:a8:
         16:06:1f:ef:c4:ff:e5:c8:31:c0:86:2a:f1:e7:2f:ed:56:f6:
         39:56:d1:48:19:07:1e:89:eb:c8:63:66:5e:26:3c:85:1a:ce:
         83:58:f5:c8:26:c6:ff:d7:1f:c7:6f:2c:47:9b:23:d1:28:f3:
         21:05:62:b0:b8:28:7c:2e:1b:3c:37:d4:fc:ca:73:fb:cc:f9:
         d5:d2:9c:ef:ec:49:37:df:64:90:1b:93:b9:8b:c3:04:37:cd:
         3d:10:9b:d8:b8:6b:cd:aa:e6:53:bb:9a:2b:8f:04:30:0b:66:
         8e:67:df:09:17:99:b4:f6:7d:5f:d9:85:e1:f6:56:69:11:80:
         0d:7b:39:89:48:35:8f:36:02:93:d3:38:77:40:36:56:f8:56:
         7a:13:4d:60:aa:ce:26:5b:28:82:7c:58:b0:5b:f8:7f:72:80:
         07:8f:56:91:09:00:44:75:51:a6:51:e9:5f:c3:cc:62:fb:b6:
         6b:fd:c1:d5:92:67:ad:0a:72:43:96:9f:27:f7:bd:9a:a4:68:
         65:32:c2:18:8b:fd:19:3d:c9:61:bd:a8:74:b6:04:59:81:27:
         fb:e7:d5:86:44:38:06:09:2c:e5:54:d5:6b:ed:e5:e3:fe:5f:
         d5:22:85:ec:c4:d1:2d:55
-----BEGIN CERTIFICATE-----
MIIGrTCCBJWgAwIBAgICKg0wDQYJKoZIhvcNAQELBQAwgawxCzAJBgNVBAYTAlVT
MQswCQYDVQQIEwJPSDERMA8GA1UEBxMIQ29sdW1idXMxEjAQBgNVBAoTCVZpa2lu
Z1ZQTjEdMBsGA1UECxMUTXlPcmdhbml6YXRpb25hbFVuaXQxFTATBgNVBAMTDFZp
a2luZ1ZQTiBDQTEQMA4GA1UEKRMHRWFzeVJTQTEhMB8GCSqGSIb3DQEJARYSbWVA
bXlob3N0Lm15ZG9tYWluMB4XDTE3MDQyMjE0MjYzMloXDTI3MDQyMDE0MjYzMlow
HzEdMBsGA1UEAxMUQ2xpZW50Mjg3NENlcnQ1ZDQ3ODgwggIiMA0GCSqGSIb3DQEB
AQUAA4ICDwAwggIKAoICAQDPmu9kYR0hpAtNpUvWD69OlnRmezLqqOwA4jWdbtp4
2MyY9Hthn17fBrsxfjb/D0jDfsRFbpTVnQX0iYIq7xTRwSJHwqeML2Tk7mljmzPi
3thQlKy0iU90sXJqqoTLBPz7oLGSsv1Yqa8L124Rr7SS93S47KP4pVyJ5nXOS9+5
oWuy/bN3dek9chlFia92rVrfH3V6aJVaGnrE1pXRPpfa5rS2ARkNSgC/NpKmES3X
vDhaEQS8TZx6iXvSg/OmGVdstssgEhf/eejcIrEcoYR5bgeY385faMKORbpKwly1
1GXMmCixNN1mJqrGga5WDxTpOV+f7CC7IohDzqGyIevKRei3k2j8jmcVhEsqpGa7
KJv+aO4BXLsoG5/qN9arjR8Ktn+IpAh5mtjETuJJaMHU3U2dARxrGeRqboaz8A3o
/iEJ/Fo0mS+pSbJCdAFYBewAcmozzQip1TEQXV0TKPsBpaIqKMlIH27XtIKa/kNL
k0meumFcT7OLr/iDbrM5s2SPfoiYPbYAUO/Xm8Li5gRW0+HiOtsY9c5Tp25pq3pa
tAOpJKY1R0QFJB/QjZe+gJKFA4DKdSHE3Ukyg2SEdqndeMTEk7JuAkz7W7j3bu/Q
9/Tt7A+Ts2Y+7O7GlYr16MdTNJPJvSu13x+a3NQEPGYZagPITuXuxFpNACOoItEp
TQIDAQABo4IBYzCCAV8wCQYDVR0TBAIwADAtBglghkgBhvhCAQ0EIBYeRWFzeS1S
U0EgR2VuZXJhdGVkIENlcnRpZmljYXRlMB0GA1UdDgQWBBS+nKC8L8PIWNfi1Usk
ZYQ9OxGBETCB4QYDVR0jBIHZMIHWgBQSzWAE0qCAnnDtxpm4eyzGUv0ZoaGBsqSB
rzCBrDELMAkGA1UEBhMCVVMxCzAJBgNVBAgTAk9IMREwDwYDVQQHEwhDb2x1bWJ1
czESMBAGA1UEChMJVmlraW5nVlBOMR0wGwYDVQQLExRNeU9yZ2FuaXphdGlvbmFs
VW5pdDEVMBMGA1UEAxMMVmlraW5nVlBOIENBMRAwDgYDVQQpEwdFYXN5UlNBMSEw
HwYJKoZIhvcNAQkBFhJtZUBteWhvc3QubXlkb21haW6CCQDPNYXugL8qPjATBgNV
HSUEDDAKBggrBgEFBQcDAjALBgNVHQ8EBAMCB4AwDQYJKoZIhvcNAQELBQADggIB
AOncYT4k6Pq4/CUTkXbpefBejyJwnAdAvBgkbMaymzsz44GQEs17CHKEvUoTupsJ
niQxzWuNIKdzZWGrFyxBNjNKGpNRMe9Ildkjo4nEcouH0BT5oVlTWshbKhaKZ2dC
crqA6lMma2W7dXZAhQnCARpY6CBVjiCtIFjCARzutSVsGhl1VpfQcowCaDnYucs8
61hRbI7qHFZOW0UriV1Qo2ROfKJI9hK52HijRENZWUWzm1tsY3IVAaCa+k6WBXHF
bAgJcP/QRbnIH12PLdV6kCL6JadlEDIsc/aNNepf2FVO9auteE6Ox93BERtxvIkL
J4LX+ToVSEy4UZ22n/vZlMK9ME0BTro9YBaBGNJ7qBYGH+/E/+XIMcCGKvHnL+1W
9jlW0UgZBx6J68hjZl4mPIUazoNY9cgmxv/XH8dvLEebI9Eo8yEFYrC4KHwuGzw3
1PzKc/vM+dXSnO/sSTffZJAbk7mLwwQ3zT0Qm9i4a82q5lO7miuPBDALZo5n3wkX
mbT2fV/ZheH2VmkRgA17OYlINY82ApPTOHdANlb4VnoTTWCqziZbKIJ8WLBb+H9y
gAePVpEJAER1UaZR6V/DzGL7tmv9wdWSZ60KckOWnyf3vZqkaGUywhiL/Rk9yWG9
qHS2BFmBJ/vn1YZEOAYJLOVU1Wvt5eP+X9UihezE0S1V
-----END CERTIFICATE-----
