Certificate:
    Data:
        Version: 3 (0x2)
        Serial Number: 11439 (0x2caf)
    Signature Algorithm: sha256WithRSAEncryption
        Issuer: C=US, ST=OH, L=Columbus, O=VikingVPN, OU=MyOrganizationalUnit, CN=VikingVPN CA/name=EasyRSA/emailAddress=me@myhost.mydomain
        Validity
            Not Before: Jul 28 09:04:14 2017 GMT
            Not After : Jul 26 09:04:14 2027 GMT
        Subject: CN=Client2693Cert2b83c8
        Subject Public Key Info:
            Public Key Algorithm: rsaEncryption
                Public-Key: (4096 bit)
                Modulus:
                    00:dc:50:03:88:0b:ca:cb:4f:46:1e:ba:9b:79:c7:
                    ae:c0:47:16:1c:4e:ff:75:fc:c9:6d:19:82:cf:48:
                    6d:44:23:83:c6:0b:cf:03:21:c8:f4:c0:cf:80:4d:
                    a0:06:87:03:dc:dd:36:4e:4f:00:02:ff:f9:ba:22:
                    4a:54:83:40:94:83:8b:15:73:aa:d4:57:d3:e6:bd:
                    6e:18:54:f3:e3:05:71:89:fe:10:95:82:a7:4a:d2:
                    58:8c:e2:fe:33:61:81:1b:aa:31:c6:58:56:50:24:
                    9d:4a:0a:76:9b:8f:f1:ee:33:c8:78:3e:67:20:38:
                    c3:27:46:ca:7f:3d:27:4b:da:50:2a:f4:4e:b4:07:
                    74:23:27:2f:1a:fa:0d:e8:51:fe:60:f9:a8:df:89:
                    e6:b8:9e:54:bd:44:14:f3:a2:5b:1c:c2:20:fd:d3:
                    25:2f:57:b5:e3:85:42:df:51:d7:0a:14:4f:c4:78:
                    ec:78:76:5b:15:16:d8:86:95:df:3b:ac:f1:ca:82:
                    5f:47:58:15:fb:e9:c0:4a:82:3a:ea:9f:5d:fe:96:
                    08:d6:67:56:3a:e9:21:09:a2:9e:20:10:47:ec:61:
                    83:a5:e1:c2:b6:48:f2:7b:4d:af:89:51:e5:e2:88:
                    5a:48:1c:f3:de:25:b6:89:19:b9:c2:6f:61:3c:27:
                    17:29:c0:6e:d2:e1:7b:ff:dd:6b:c4:0d:fe:f8:8b:
                    f2:52:b4:12:ed:f5:79:7b:01:ce:94:a0:57:32:66:
                    e6:10:87:bc:75:8c:1f:7b:59:cc:de:a6:c4:eb:26:
                    55:1c:b3:81:aa:57:4e:b9:b0:83:17:90:ef:49:cf:
                    c3:00:3d:11:60:d2:58:15:94:7b:fd:da:a9:26:a9:
                    01:2d:7d:70:52:6f:0e:bc:8d:31:e1:10:6f:ee:60:
                    30:9c:c6:41:fe:fa:12:c1:29:26:5a:78:52:03:9e:
                    72:de:02:90:12:2e:a3:1b:73:88:3c:3e:49:39:1c:
                    fe:e8:bf:37:a5:ce:6e:0d:18:fb:24:aa:07:55:6e:
                    b7:a6:e7:97:69:44:b5:32:ed:1d:a5:93:fd:c3:a6:
                    36:ae:58:3f:b6:11:fe:1c:e7:7b:43:07:4e:64:ac:
                    f5:94:77:df:31:01:3a:da:e4:de:7e:21:d9:a8:0a:
                    02:21:fd:7a:06:13:2d:8c:ab:9a:9e:85:e6:11:6d:
                    4e:e6:33:eb:7c:39:68:37:8c:bc:29:bb:68:92:e0:
                    a0:d7:f6:4c:ec:a2:89:e8:27:d8:44:39:d6:6e:a4:
                    06:c8:23:c3:bb:2c:c7:f5:81:e7:84:46:14:ca:d1:
                    4a:b3:ef:55:39:b9:75:81:3c:2b:6a:52:09:18:10:
                    bf:cc:81
                Exponent: 65537 (0x10001)
        X509v3 extensions:
            X509v3 Basic Constraints: 
                CA:FALSE
            Netscape Comment: 
                Easy-RSA Generated Certificate
            X509v3 Subject Key Identifier: 
                C3:B3:5B:B3:9F:C5:71:77:54:84:FA:FD:AA:20:30:5E:CD:6A:64:5B
            X509v3 Authority Key Identifier: 
                keyid:12:CD:60:04:D2:A0:80:9E:70:ED:C6:99:B8:7B:2C:C6:52:FD:19:A1
                DirName:/C=US/ST=OH/L=Columbus/O=VikingVPN/OU=MyOrganizationalUnit/CN=VikingVPN CA/name=EasyRSA/emailAddress=me@myhost.mydomain
                serial:CF:35:85:EE:80:BF:2A:3E

            X509v3 Extended Key Usage: 
                TLS Web Client Authentication
            X509v3 Key Usage: 
                Digital Signature
    Signature Algorithm: sha256WithRSAEncryption
         40:5c:bb:d4:36:50:0c:b2:69:04:a5:78:3f:ca:21:23:62:50:
         68:e1:a8:ff:c1:88:00:ce:91:dd:19:4b:70:be:d4:b7:cc:9c:
         dd:cf:c9:4c:72:4f:0a:e2:0d:3a:42:00:07:7c:38:22:4b:57:
         d6:cf:87:3c:1b:d7:ef:29:f9:9c:b1:7f:60:09:7d:d4:45:75:
         8c:e0:0e:e4:b9:9e:31:8e:f7:04:13:a6:68:54:dd:4b:38:ae:
         5b:7d:1d:00:d2:f6:17:c9:e7:28:69:f9:71:20:f3:86:b5:97:
         98:86:51:cf:65:3c:23:69:e4:d8:7d:99:e0:91:21:62:2d:66:
         e9:86:f4:d5:74:3b:67:1e:86:98:3a:51:3e:b7:3b:21:28:2c:
         3a:a8:f6:da:d3:2b:47:0d:57:d8:14:eb:40:37:04:aa:b0:4e:
         5a:7b:0f:17:00:08:33:d4:5e:5c:fb:07:8c:6b:27:55:54:d5:
         53:7e:6d:a4:5d:a5:07:48:aa:d5:0a:30:9a:1c:99:af:f6:c7:
         54:13:b3:f8:d2:84:5f:54:f7:3b:a3:0f:aa:bb:f3:6f:b0:42:
         c0:e8:b1:6b:ea:e5:71:cc:3f:c8:07:8f:db:e9:47:99:c3:4a:
         fe:6b:ab:c4:1f:c6:8f:1d:30:e2:9a:70:43:b6:18:51:e7:5c:
         8c:c6:ca:02:62:f2:f7:d6:30:c3:1c:8b:d9:17:cc:7f:c7:dd:
         9d:9c:7a:de:3d:f0:c3:ad:c8:44:4b:be:92:dc:b8:de:20:53:
         d3:bf:19:a6:ca:b3:45:ec:09:93:06:e5:bc:cd:7b:b3:f0:fb:
         b3:5a:b0:24:d9:14:3b:3b:ba:05:87:8d:fa:ae:d7:c9:ac:74:
         f0:15:5f:7a:eb:13:24:41:bb:e8:04:f1:14:0f:79:a3:3f:f6:
         c3:81:8f:b8:03:af:67:38:cd:b0:8f:e6:59:f5:56:ed:e2:e0:
         7a:3f:ce:f3:d1:d0:ed:fd:8b:bd:f0:39:38:b4:ba:cc:81:db:
         1d:e8:57:d3:08:24:31:d9:dd:a9:77:0f:97:b9:f4:e6:90:69:
         63:6f:08:14:a6:e8:34:aa:81:49:69:af:7a:1e:0d:59:3e:82:
         bd:df:b2:7f:ee:78:3c:74:df:d2:7a:21:9c:12:2a:b7:77:ce:
         41:1e:fc:85:63:5d:ee:c3:79:6e:bd:b2:08:e2:68:3e:ed:0c:
         05:76:fd:33:0b:d2:ab:0a:ae:f1:3c:cd:3a:d7:cf:61:ff:98:
         b5:1a:b2:40:0f:e4:f3:ab:31:4e:b2:8d:56:36:41:3a:f2:37:
         9e:67:f4:1e:ac:23:89:fd:67:c0:77:5d:94:16:9f:c5:e1:33:
         a1:5f:4f:24:36:72:42:7d
-----BEGIN CERTIFICATE-----
MIIGrTCCBJWgAwIBAgICLK8wDQYJKoZIhvcNAQELBQAwgawxCzAJBgNVBAYTAlVT
MQswCQYDVQQIEwJPSDERMA8GA1UEBxMIQ29sdW1idXMxEjAQBgNVBAoTCVZpa2lu
Z1ZQTjEdMBsGA1UECxMUTXlPcmdhbml6YXRpb25hbFVuaXQxFTATBgNVBAMTDFZp
a2luZ1ZQTiBDQTEQMA4GA1UEKRMHRWFzeVJTQTEhMB8GCSqGSIb3DQEJARYSbWVA
bXlob3N0Lm15ZG9tYWluMB4XDTE3MDcyODA5MDQxNFoXDTI3MDcyNjA5MDQxNFow
HzEdMBsGA1UEAxMUQ2xpZW50MjY5M0NlcnQyYjgzYzgwggIiMA0GCSqGSIb3DQEB
AQUAA4ICDwAwggIKAoICAQDcUAOIC8rLT0Yeupt5x67ARxYcTv91/MltGYLPSG1E
I4PGC88DIcj0wM+ATaAGhwPc3TZOTwAC//m6IkpUg0CUg4sVc6rUV9PmvW4YVPPj
BXGJ/hCVgqdK0liM4v4zYYEbqjHGWFZQJJ1KCnabj/HuM8h4PmcgOMMnRsp/PSdL
2lAq9E60B3QjJy8a+g3oUf5g+ajfiea4nlS9RBTzolscwiD90yUvV7XjhULfUdcK
FE/EeOx4dlsVFtiGld87rPHKgl9HWBX76cBKgjrqn13+lgjWZ1Y66SEJop4gEEfs
YYOl4cK2SPJ7Ta+JUeXiiFpIHPPeJbaJGbnCb2E8JxcpwG7S4Xv/3WvEDf74i/JS
tBLt9Xl7Ac6UoFcyZuYQh7x1jB97WczepsTrJlUcs4GqV065sIMXkO9Jz8MAPRFg
0lgVlHv92qkmqQEtfXBSbw68jTHhEG/uYDCcxkH++hLBKSZaeFIDnnLeApASLqMb
c4g8Pkk5HP7ovzelzm4NGPskqgdVbrem55dpRLUy7R2lk/3DpjauWD+2Ef4c53tD
B05krPWUd98xATra5N5+IdmoCgIh/XoGEy2Mq5qeheYRbU7mM+t8OWg3jLwpu2iS
4KDX9kzsoonoJ9hEOdZupAbII8O7LMf1geeERhTK0Uqz71U5uXWBPCtqUgkYEL/M
gQIDAQABo4IBYzCCAV8wCQYDVR0TBAIwADAtBglghkgBhvhCAQ0EIBYeRWFzeS1S
U0EgR2VuZXJhdGVkIENlcnRpZmljYXRlMB0GA1UdDgQWBBTDs1uzn8Vxd1SE+v2q
IDBezWpkWzCB4QYDVR0jBIHZMIHWgBQSzWAE0qCAnnDtxpm4eyzGUv0ZoaGBsqSB
rzCBrDELMAkGA1UEBhMCVVMxCzAJBgNVBAgTAk9IMREwDwYDVQQHEwhDb2x1bWJ1
czESMBAGA1UEChMJVmlraW5nVlBOMR0wGwYDVQQLExRNeU9yZ2FuaXphdGlvbmFs
VW5pdDEVMBMGA1UEAxMMVmlraW5nVlBOIENBMRAwDgYDVQQpEwdFYXN5UlNBMSEw
HwYJKoZIhvcNAQkBFhJtZUBteWhvc3QubXlkb21haW6CCQDPNYXugL8qPjATBgNV
HSUEDDAKBggrBgEFBQcDAjALBgNVHQ8EBAMCB4AwDQYJKoZIhvcNAQELBQADggIB
AEBcu9Q2UAyyaQSleD/KISNiUGjhqP/BiADOkd0ZS3C+1LfMnN3PyUxyTwriDTpC
AAd8OCJLV9bPhzwb1+8p+Zyxf2AJfdRFdYzgDuS5njGO9wQTpmhU3Us4rlt9HQDS
9hfJ5yhp+XEg84a1l5iGUc9lPCNp5Nh9meCRIWItZumG9NV0O2cehpg6UT63OyEo
LDqo9trTK0cNV9gU60A3BKqwTlp7DxcACDPUXlz7B4xrJ1VU1VN+baRdpQdIqtUK
MJocma/2x1QTs/jShF9U9zujD6q782+wQsDosWvq5XHMP8gHj9vpR5nDSv5rq8Qf
xo8dMOKacEO2GFHnXIzGygJi8vfWMMMci9kXzH/H3Z2cet498MOtyERLvpLcuN4g
U9O/GabKs0XsCZMG5bzNe7Pw+7NasCTZFDs7ugWHjfqu18msdPAVX3rrEyRBu+gE
8RQPeaM/9sOBj7gDr2c4zbCP5ln1Vu3i4Ho/zvPR0O39i73wOTi0usyB2x3oV9MI
JDHZ3al3D5e59OaQaWNvCBSm6DSqgUlpr3oeDVk+gr3fsn/ueDx039J6IZwSKrd3
zkEe/IVjXe7DeW69sgjiaD7tDAV2/TML0qsKrvE8zTrXz2H/mLUaskAP5POrMU6y
jVY2QTryN55n9B6sI4n9Z8B3XZQWn8XhM6FfTyQ2ckJ9
-----END CERTIFICATE-----
