Certificate:
    Data:
        Version: 3 (0x2)
        Serial Number: 7930 (0x1efa)
    Signature Algorithm: md5WithRSAEncryption
        Issuer: C=US, ST=OH, L=Columbus, O=VikingVPN, OU=MyOrganizationalUnit, CN=VikingVPN CA/name=EasyRSA/emailAddress=me@myhost.mydomain
        Validity
            Not Before: May  9 16:45:45 2016 GMT
            Not After : May  7 16:45:45 2026 GMT
        Subject: CN=Client2292Certbeac7c
        Subject Public Key Info:
            Public Key Algorithm: rsaEncryption
                Public-Key: (4096 bit)
                Modulus:
                    00:ac:1d:d3:2e:6f:e6:d7:ab:f1:60:74:eb:9f:54:
                    a2:b7:c3:43:ce:e0:82:df:58:9c:e2:0a:f7:16:ff:
                    ff:40:b7:d7:48:a1:38:a8:de:32:69:f4:03:64:97:
                    c5:12:7a:0a:91:bf:be:1d:a1:d2:70:1a:99:e2:4c:
                    ab:cd:30:b6:47:93:b7:0b:fd:1e:db:3b:00:1c:c5:
                    11:99:37:b1:31:89:3f:79:de:ab:ee:dc:e1:cd:36:
                    1e:25:cb:2a:77:9f:66:dc:c4:e8:63:a2:b4:11:16:
                    22:0d:e1:20:2b:b1:bb:f2:21:f4:32:38:75:10:1d:
                    d8:d1:27:a9:2a:5d:51:c2:5d:ac:57:26:ee:f6:c5:
                    95:be:1c:88:f1:e8:ba:5e:d1:83:db:a9:48:ed:80:
                    46:2f:d9:98:fb:80:b9:a8:e1:12:e3:7e:86:a8:c8:
                    94:0e:37:7c:40:ee:68:39:02:61:14:56:c4:a1:62:
                    13:21:c3:83:62:72:e9:52:ac:e6:39:57:23:69:e9:
                    d7:a3:93:89:a5:3e:60:36:64:ca:42:3a:18:db:67:
                    a7:be:70:4b:60:24:bc:02:5c:af:cc:93:9e:f3:c4:
                    75:41:82:06:33:38:c0:7a:da:96:4e:80:b1:8b:74:
                    3f:1b:fa:ea:d5:c0:c3:dc:27:89:ea:ff:58:0a:68:
                    88:e6:34:c8:24:ac:d0:cb:5d:f9:fa:bc:09:b3:4b:
                    77:e9:82:19:e7:b3:6d:f8:e5:85:be:1d:b5:81:3f:
                    8d:d9:80:1b:21:6b:48:62:4d:bf:b0:a7:eb:60:a6:
                    16:b8:0e:04:6a:fa:7e:09:15:49:4b:a5:cf:8f:f0:
                    19:ec:71:c1:cb:4b:ba:ac:2d:11:26:26:b8:12:b2:
                    91:bc:1c:ef:ef:ab:a1:68:52:bf:58:95:84:33:f7:
                    04:d0:c7:85:78:a0:f9:c8:66:dc:9a:14:2a:13:dc:
                    c9:c9:dc:df:15:aa:d9:2e:c3:dc:6d:cf:b9:b4:0a:
                    1c:c2:93:8b:c3:9b:a6:0e:b3:21:34:15:40:92:92:
                    b1:e8:dd:e4:22:ca:7f:d1:d5:3b:88:de:96:cd:23:
                    65:15:94:76:5e:f2:9c:d1:03:6a:80:ff:43:a3:cd:
                    b2:9b:28:1f:e5:04:cf:60:d7:19:3f:74:04:61:e2:
                    ab:9b:42:0b:17:18:40:4f:4b:39:cd:be:cb:04:f2:
                    7a:51:b8:aa:37:7c:3d:57:87:4b:76:78:3b:9e:19:
                    d4:d0:de:0c:e3:c8:35:8d:22:49:59:26:4f:4d:03:
                    9f:70:df:cb:49:53:bf:a6:9e:40:e1:6f:cb:5d:4a:
                    69:a1:4f:4a:25:99:41:4f:67:e7:bb:de:b0:c6:50:
                    42:3d:8b
                Exponent: 65537 (0x10001)
        X509v3 extensions:
            X509v3 Basic Constraints: 
                CA:FALSE
            Netscape Comment: 
                Easy-RSA Generated Certificate
            X509v3 Subject Key Identifier: 
                66:88:66:0F:60:E6:79:18:00:C7:C3:B3:66:0C:D7:AB:87:7A:00:DA
            X509v3 Authority Key Identifier: 
                keyid:12:CD:60:04:D2:A0:80:9E:70:ED:C6:99:B8:7B:2C:C6:52:FD:19:A1
                DirName:/C=US/ST=OH/L=Columbus/O=VikingVPN/OU=MyOrganizationalUnit/CN=VikingVPN CA/name=EasyRSA/emailAddress=me@myhost.mydomain
                serial:CF:35:85:EE:80:BF:2A:3E

            X509v3 Extended Key Usage: 
                TLS Web Client Authentication
            X509v3 Key Usage: 
                Digital Signature
    Signature Algorithm: md5WithRSAEncryption
         2b:2e:de:0b:2f:09:c8:d4:90:82:89:a5:10:ef:48:e0:8f:0f:
         f6:b4:b4:bd:b6:c6:cd:ef:d8:fd:6b:ac:53:77:d9:2b:10:87:
         2f:f3:a6:db:48:90:34:0c:35:f2:4b:c9:81:c6:d1:91:71:33:
         82:74:c9:b7:bb:48:37:e4:64:bc:1e:b6:6e:25:4b:a2:99:28:
         c8:e4:7e:ca:6c:7f:2d:7c:5a:92:61:d5:05:c3:bf:e5:d3:30:
         44:9b:43:e3:53:68:0f:22:a8:13:54:38:e1:9e:f0:92:4c:e8:
         03:2e:80:d0:d7:29:32:a3:61:13:8f:0d:b1:b0:1d:91:b4:07:
         e7:4c:61:50:a1:8a:85:62:96:f2:cc:a2:c6:19:05:99:74:a5:
         a9:5c:a6:87:2d:02:c0:00:dd:e4:3f:3d:7c:64:ce:a9:3e:02:
         31:d8:cd:b4:ab:13:8b:37:6d:90:39:da:dd:2e:58:09:85:6f:
         62:d0:5e:23:c7:95:a2:d3:d7:fe:9e:89:8e:93:bd:24:ae:48:
         d8:d2:6b:b6:ff:d6:e3:5a:ac:3d:e2:ca:5e:fe:42:ac:a6:81:
         35:f0:96:56:13:95:fb:6d:40:bd:c4:fe:a2:bc:3e:4c:ba:1e:
         4c:5b:4c:f7:84:ae:d2:50:04:1b:1f:54:ba:c3:c7:29:4c:9b:
         46:6f:55:9d:46:b6:17:ed:c6:17:d7:d2:2f:a2:bc:df:bc:fd:
         16:b0:2f:93:cc:80:f2:1d:c4:d0:61:e1:ae:be:56:45:8a:67:
         7e:50:94:26:92:51:b9:ca:2b:05:5b:14:bb:d8:48:3f:7f:b8:
         d2:c4:fd:d4:8d:4b:22:ee:c7:45:73:ca:32:13:0f:78:78:e9:
         4a:a2:6e:4f:3c:c9:61:6f:19:cc:a4:e4:d8:70:42:c9:57:2c:
         aa:49:5b:82:d7:95:82:6b:d1:4f:4d:7d:99:c9:9a:69:56:92:
         01:a0:4a:99:5f:67:2d:33:34:d1:6e:30:a3:ce:60:7d:93:54:
         55:32:81:ac:41:f9:d5:9c:a6:8b:66:a0:3c:7c:6d:16:5a:e9:
         c3:1e:9f:a2:87:0b:fa:00:e2:9e:f1:34:60:c7:5d:0e:4a:00:
         81:98:cc:8a:35:e7:8b:b8:4d:63:df:bb:2b:a3:9a:b1:bb:49:
         38:a9:de:42:5d:e3:f2:2f:fc:35:7f:bb:03:cd:0d:ac:71:54:
         de:1a:eb:76:35:d5:db:2f:77:f2:f1:39:ab:01:82:f3:81:5e:
         11:55:9b:21:38:cd:24:ab:db:0b:34:c7:15:40:14:81:9a:3f:
         bb:d0:e1:4f:28:73:c3:c8:72:14:e7:66:81:e0:fa:b9:55:a6:
         55:7a:92:97:75:85:e9:e8
-----BEGIN CERTIFICATE-----
MIIGrTCCBJWgAwIBAgICHvowDQYJKoZIhvcNAQEEBQAwgawxCzAJBgNVBAYTAlVT
MQswCQYDVQQIEwJPSDERMA8GA1UEBxMIQ29sdW1idXMxEjAQBgNVBAoTCVZpa2lu
Z1ZQTjEdMBsGA1UECxMUTXlPcmdhbml6YXRpb25hbFVuaXQxFTATBgNVBAMTDFZp
a2luZ1ZQTiBDQTEQMA4GA1UEKRMHRWFzeVJTQTEhMB8GCSqGSIb3DQEJARYSbWVA
bXlob3N0Lm15ZG9tYWluMB4XDTE2MDUwOTE2NDU0NVoXDTI2MDUwNzE2NDU0NVow
HzEdMBsGA1UEAxMUQ2xpZW50MjI5MkNlcnRiZWFjN2MwggIiMA0GCSqGSIb3DQEB
AQUAA4ICDwAwggIKAoICAQCsHdMub+bXq/FgdOufVKK3w0PO4ILfWJziCvcW//9A
t9dIoTio3jJp9ANkl8USegqRv74dodJwGpniTKvNMLZHk7cL/R7bOwAcxRGZN7Ex
iT953qvu3OHNNh4lyyp3n2bcxOhjorQRFiIN4SArsbvyIfQyOHUQHdjRJ6kqXVHC
XaxXJu72xZW+HIjx6Lpe0YPbqUjtgEYv2Zj7gLmo4RLjfoaoyJQON3xA7mg5AmEU
VsShYhMhw4NiculSrOY5VyNp6dejk4mlPmA2ZMpCOhjbZ6e+cEtgJLwCXK/Mk57z
xHVBggYzOMB62pZOgLGLdD8b+urVwMPcJ4nq/1gKaIjmNMgkrNDLXfn6vAmzS3fp
ghnns2345YW+HbWBP43ZgBsha0hiTb+wp+tgpha4DgRq+n4JFUlLpc+P8BnsccHL
S7qsLREmJrgSspG8HO/vq6FoUr9YlYQz9wTQx4V4oPnIZtyaFCoT3MnJ3N8Vqtku
w9xtz7m0ChzCk4vDm6YOsyE0FUCSkrHo3eQiyn/R1TuI3pbNI2UVlHZe8pzRA2qA
/0OjzbKbKB/lBM9g1xk/dARh4qubQgsXGEBPSznNvssE8npRuKo3fD1Xh0t2eDue
GdTQ3gzjyDWNIklZJk9NA59w38tJU7+mnkDhb8tdSmmhT0olmUFPZ+e73rDGUEI9
iwIDAQABo4IBYzCCAV8wCQYDVR0TBAIwADAtBglghkgBhvhCAQ0EIBYeRWFzeS1S
U0EgR2VuZXJhdGVkIENlcnRpZmljYXRlMB0GA1UdDgQWBBRmiGYPYOZ5GADHw7Nm
DNerh3oA2jCB4QYDVR0jBIHZMIHWgBQSzWAE0qCAnnDtxpm4eyzGUv0ZoaGBsqSB
rzCBrDELMAkGA1UEBhMCVVMxCzAJBgNVBAgTAk9IMREwDwYDVQQHEwhDb2x1bWJ1
czESMBAGA1UEChMJVmlraW5nVlBOMR0wGwYDVQQLExRNeU9yZ2FuaXphdGlvbmFs
VW5pdDEVMBMGA1UEAxMMVmlraW5nVlBOIENBMRAwDgYDVQQpEwdFYXN5UlNBMSEw
HwYJKoZIhvcNAQkBFhJtZUBteWhvc3QubXlkb21haW6CCQDPNYXugL8qPjATBgNV
HSUEDDAKBggrBgEFBQcDAjALBgNVHQ8EBAMCB4AwDQYJKoZIhvcNAQEEBQADggIB
ACsu3gsvCcjUkIKJpRDvSOCPD/a0tL22xs3v2P1rrFN32SsQhy/zpttIkDQMNfJL
yYHG0ZFxM4J0ybe7SDfkZLwetm4lS6KZKMjkfspsfy18WpJh1QXDv+XTMESbQ+NT
aA8iqBNUOOGe8JJM6AMugNDXKTKjYROPDbGwHZG0B+dMYVChioVilvLMosYZBZl0
palcpoctAsAA3eQ/PXxkzqk+AjHYzbSrE4s3bZA52t0uWAmFb2LQXiPHlaLT1/6e
iY6TvSSuSNjSa7b/1uNarD3iyl7+QqymgTXwllYTlfttQL3E/qK8Pky6HkxbTPeE
rtJQBBsfVLrDxylMm0ZvVZ1GthftxhfX0i+ivN+8/RawL5PMgPIdxNBh4a6+VkWK
Z35QlCaSUbnKKwVbFLvYSD9/uNLE/dSNSyLux0VzyjITD3h46Uqibk88yWFvGcyk
5NhwQslXLKpJW4LXlYJr0U9NfZnJmmlWkgGgSplfZy0zNNFuMKPOYH2TVFUygaxB
+dWcpotmoDx8bRZa6cMen6KHC/oA4p7xNGDHXQ5KAIGYzIo154u4TWPfuyujmrG7
STip3kJd4/Iv/DV/uwPNDaxxVN4a63Y11dsvd/LxOasBgvOBXhFVmyE4zSSr2ws0
xxVAFIGaP7vQ4U8oc8PIchTnZoHg+rlVplV6kpd1heno
-----END CERTIFICATE-----
