Certificate:
    Data:
        Version: 3 (0x2)
        Serial Number: 9632 (0x25a0)
    Signature Algorithm: sha256WithRSAEncryption
        Issuer: C=US, ST=OH, L=Columbus, O=VikingVPN, OU=MyOrganizationalUnit, CN=VikingVPN CA/name=EasyRSA/emailAddress=me@myhost.mydomain
        Validity
            Not Before: Dec  4 10:05:37 2016 GMT
            Not After : Dec  2 10:05:37 2026 GMT
        Subject: CN=Client2630Cert11dc6d
        Subject Public Key Info:
            Public Key Algorithm: rsaEncryption
                Public-Key: (4096 bit)
                Modulus:
                    00:ae:ad:7c:3d:fa:c7:bc:47:ef:60:1d:24:16:b6:
                    44:a1:0d:1a:da:a7:5d:cf:37:33:d9:fe:ae:0a:8b:
                    11:4b:12:ff:f9:8e:f3:6f:45:80:bb:48:6c:93:f1:
                    e2:c2:fc:16:a8:4e:29:d2:78:aa:72:ad:1e:a7:97:
                    f7:fd:bc:0b:89:0b:47:61:66:92:25:e8:e3:42:80:
                    50:a7:e7:e1:24:00:d1:92:06:a5:1b:7c:42:0e:2e:
                    b8:d1:8e:5d:ae:ac:c4:b5:26:8c:7d:27:d3:3e:b2:
                    57:1f:40:ab:4b:1e:04:32:7c:e1:18:1f:1c:90:11:
                    9c:d5:84:1a:94:55:4c:d0:9e:94:60:28:3c:28:d7:
                    52:3f:1b:8b:12:2f:54:e5:f6:1a:57:b4:a6:54:9c:
                    b3:6e:84:e6:87:e2:4f:54:f0:5e:4c:05:b8:bc:f2:
                    88:80:2b:71:0f:dc:62:c6:ba:87:f9:87:da:94:04:
                    e1:63:cc:22:5a:69:30:78:d4:da:32:57:1b:1b:5a:
                    31:36:1b:ce:a4:58:ad:3e:96:6d:ad:0d:e4:37:13:
                    2a:bb:d7:3b:e0:f9:08:ea:57:fb:14:8a:b2:15:2a:
                    b1:7a:5b:15:13:6e:99:bc:8a:42:ca:97:3a:5c:2d:
                    96:bf:30:93:68:ea:a7:9e:ce:ba:44:02:ad:0b:82:
                    4d:95:83:3f:0e:20:4a:79:f5:70:21:7d:11:65:9d:
                    03:2d:ab:a9:30:43:e0:34:1e:24:29:a0:7e:d4:20:
                    81:80:05:fc:db:2d:9a:04:3c:fe:91:e5:f7:06:ad:
                    ca:1f:63:c8:c0:1c:23:32:cc:b0:ca:85:01:6a:89:
                    70:eb:5f:dd:ca:e6:be:20:8d:75:d9:94:eb:52:3d:
                    c6:9f:cd:b4:c0:f8:46:59:1a:8e:0a:19:63:46:bd:
                    b8:4a:f2:66:97:34:d0:20:0d:d9:a9:85:d9:42:77:
                    98:20:ec:09:ad:06:f5:2d:a5:79:bf:29:fa:f8:86:
                    e6:58:31:60:57:1b:46:95:c9:54:da:91:79:7d:7d:
                    66:44:8c:90:3e:ea:85:a2:d3:29:0d:7e:cb:6d:fa:
                    b4:58:56:60:50:03:9c:08:eb:06:d6:bf:8e:76:31:
                    38:53:9d:54:da:5c:cd:02:81:80:c8:73:b9:f5:e9:
                    e7:0e:aa:00:93:2f:71:e5:1e:02:f6:1c:46:56:04:
                    07:1e:92:dd:7f:7b:f1:bd:7b:b3:62:ba:9f:b8:2b:
                    08:9d:09:56:4b:01:f1:f8:6f:da:1d:2c:92:8d:05:
                    70:d7:27:5a:12:4e:71:d0:75:00:ec:95:b1:28:e3:
                    6f:18:41:96:ec:90:6d:cc:24:d8:f5:2b:53:a8:42:
                    71:58:d1
                Exponent: 65537 (0x10001)
        X509v3 extensions:
            X509v3 Basic Constraints: 
                CA:FALSE
            Netscape Comment: 
                Easy-RSA Generated Certificate
            X509v3 Subject Key Identifier: 
                E9:6D:B9:C3:0A:80:8C:CE:E9:18:A1:ED:7E:DE:62:B4:32:BB:33:B9
            X509v3 Authority Key Identifier: 
                keyid:12:CD:60:04:D2:A0:80:9E:70:ED:C6:99:B8:7B:2C:C6:52:FD:19:A1
                DirName:/C=US/ST=OH/L=Columbus/O=VikingVPN/OU=MyOrganizationalUnit/CN=VikingVPN CA/name=EasyRSA/emailAddress=me@myhost.mydomain
                serial:CF:35:85:EE:80:BF:2A:3E

            X509v3 Extended Key Usage: 
                TLS Web Client Authentication
            X509v3 Key Usage: 
                Digital Signature
    Signature Algorithm: sha256WithRSAEncryption
         83:3c:32:a4:c7:06:bd:bc:1b:e1:1f:c5:fb:17:7d:8d:9d:64:
         6d:46:5d:07:08:25:36:4f:28:26:0b:bc:98:2d:79:60:5e:23:
         8a:c5:6d:53:f9:28:fc:f4:40:06:c3:c5:61:05:41:e1:f8:e5:
         d5:12:6e:b3:31:e5:2a:e6:24:4d:c4:1e:25:db:25:9c:c0:d1:
         99:87:19:1b:3f:08:64:84:f8:13:63:4e:64:02:31:cd:42:da:
         b3:15:85:c5:19:4e:20:50:cb:f3:45:57:65:35:64:6c:40:c2:
         d0:4f:aa:fe:28:78:4b:a3:9c:24:93:67:ef:d9:4f:a8:27:fa:
         56:8d:57:57:2b:ad:56:5b:ce:05:dc:dd:e5:84:1f:72:82:9c:
         2d:78:e4:26:ce:33:6f:a3:c4:ed:3c:b8:bf:29:47:44:52:e3:
         bb:8a:5b:ee:45:2f:a4:f8:4e:5d:5a:82:55:b9:45:48:fa:89:
         1c:d8:d0:f3:07:b7:b4:a0:8f:70:23:0e:dc:30:70:00:c1:9a:
         09:13:65:6f:ff:c3:30:cd:f8:94:02:1b:d9:f8:c0:69:39:02:
         01:a9:d5:30:d9:22:11:3b:f3:e8:10:3c:7b:74:29:d2:8f:d3:
         29:83:4e:88:c2:48:1f:66:e5:85:0e:bf:59:8b:55:c9:9e:70:
         a6:d1:26:0b:70:fb:73:8d:35:23:27:77:2e:50:5d:8a:46:2f:
         4e:68:a4:a5:c2:c6:e9:c4:07:13:c4:26:1e:4f:75:dd:0d:21:
         ba:9d:5b:e2:22:0e:e4:a4:d7:16:15:af:e7:a0:c9:95:e0:8b:
         69:07:f2:23:f2:e8:e1:43:0e:d9:20:ea:9a:76:88:05:1c:33:
         30:4b:6d:f2:a8:03:9c:b1:d8:b5:fa:ad:e8:e3:f9:cf:82:b2:
         df:a0:3f:44:3b:50:45:e8:73:a0:ad:6e:d1:7c:49:a3:30:6f:
         f1:82:a4:d1:a3:05:1a:0d:44:36:58:44:1f:70:04:be:9f:29:
         d2:77:b2:aa:bd:f8:d2:b0:bd:27:f9:f9:1d:63:43:47:d7:f7:
         5b:3e:66:31:fb:49:f3:5a:cf:e1:2c:fa:c5:87:33:67:dc:86:
         a3:98:49:4f:c0:2c:82:5b:6b:fd:49:e2:73:49:c2:e0:ec:59:
         6f:4a:8c:c2:ab:d5:d6:f7:8e:58:88:ff:80:af:98:93:41:13:
         60:a6:f2:60:f8:a0:fe:21:fd:16:81:93:a7:f2:5f:45:99:79:
         70:a3:56:ec:ef:a1:89:ed:cb:43:3c:bf:48:a7:ab:20:38:e5:
         c2:3f:5b:7b:30:57:ef:f3:1b:11:14:14:6f:29:62:f9:6e:e8:
         d3:44:d5:61:f3:91:14:15
-----BEGIN CERTIFICATE-----
MIIGrTCCBJWgAwIBAgICJaAwDQYJKoZIhvcNAQELBQAwgawxCzAJBgNVBAYTAlVT
MQswCQYDVQQIEwJPSDERMA8GA1UEBxMIQ29sdW1idXMxEjAQBgNVBAoTCVZpa2lu
Z1ZQTjEdMBsGA1UECxMUTXlPcmdhbml6YXRpb25hbFVuaXQxFTATBgNVBAMTDFZp
a2luZ1ZQTiBDQTEQMA4GA1UEKRMHRWFzeVJTQTEhMB8GCSqGSIb3DQEJARYSbWVA
bXlob3N0Lm15ZG9tYWluMB4XDTE2MTIwNDEwMDUzN1oXDTI2MTIwMjEwMDUzN1ow
HzEdMBsGA1UEAxMUQ2xpZW50MjYzMENlcnQxMWRjNmQwggIiMA0GCSqGSIb3DQEB
AQUAA4ICDwAwggIKAoICAQCurXw9+se8R+9gHSQWtkShDRrap13PNzPZ/q4KixFL
Ev/5jvNvRYC7SGyT8eLC/BaoTinSeKpyrR6nl/f9vAuJC0dhZpIl6ONCgFCn5+Ek
ANGSBqUbfEIOLrjRjl2urMS1Jox9J9M+slcfQKtLHgQyfOEYHxyQEZzVhBqUVUzQ
npRgKDwo11I/G4sSL1Tl9hpXtKZUnLNuhOaH4k9U8F5MBbi88oiAK3EP3GLGuof5
h9qUBOFjzCJaaTB41NoyVxsbWjE2G86kWK0+lm2tDeQ3Eyq71zvg+QjqV/sUirIV
KrF6WxUTbpm8ikLKlzpcLZa/MJNo6qeezrpEAq0Lgk2Vgz8OIEp59XAhfRFlnQMt
q6kwQ+A0HiQpoH7UIIGABfzbLZoEPP6R5fcGrcofY8jAHCMyzLDKhQFqiXDrX93K
5r4gjXXZlOtSPcafzbTA+EZZGo4KGWNGvbhK8maXNNAgDdmphdlCd5gg7AmtBvUt
pXm/Kfr4huZYMWBXG0aVyVTakXl9fWZEjJA+6oWi0ykNfstt+rRYVmBQA5wI6wbW
v452MThTnVTaXM0CgYDIc7n16ecOqgCTL3HlHgL2HEZWBAcekt1/e/G9e7Niup+4
KwidCVZLAfH4b9odLJKNBXDXJ1oSTnHQdQDslbEo428YQZbskG3MJNj1K1OoQnFY
0QIDAQABo4IBYzCCAV8wCQYDVR0TBAIwADAtBglghkgBhvhCAQ0EIBYeRWFzeS1S
U0EgR2VuZXJhdGVkIENlcnRpZmljYXRlMB0GA1UdDgQWBBTpbbnDCoCMzukYoe1+
3mK0MrszuTCB4QYDVR0jBIHZMIHWgBQSzWAE0qCAnnDtxpm4eyzGUv0ZoaGBsqSB
rzCBrDELMAkGA1UEBhMCVVMxCzAJBgNVBAgTAk9IMREwDwYDVQQHEwhDb2x1bWJ1
czESMBAGA1UEChMJVmlraW5nVlBOMR0wGwYDVQQLExRNeU9yZ2FuaXphdGlvbmFs
VW5pdDEVMBMGA1UEAxMMVmlraW5nVlBOIENBMRAwDgYDVQQpEwdFYXN5UlNBMSEw
HwYJKoZIhvcNAQkBFhJtZUBteWhvc3QubXlkb21haW6CCQDPNYXugL8qPjATBgNV
HSUEDDAKBggrBgEFBQcDAjALBgNVHQ8EBAMCB4AwDQYJKoZIhvcNAQELBQADggIB
AIM8MqTHBr28G+EfxfsXfY2dZG1GXQcIJTZPKCYLvJgteWBeI4rFbVP5KPz0QAbD
xWEFQeH45dUSbrMx5SrmJE3EHiXbJZzA0ZmHGRs/CGSE+BNjTmQCMc1C2rMVhcUZ
TiBQy/NFV2U1ZGxAwtBPqv4oeEujnCSTZ+/ZT6gn+laNV1crrVZbzgXc3eWEH3KC
nC145CbOM2+jxO08uL8pR0RS47uKW+5FL6T4Tl1aglW5RUj6iRzY0PMHt7Sgj3Aj
DtwwcADBmgkTZW//wzDN+JQCG9n4wGk5AgGp1TDZIhE78+gQPHt0KdKP0ymDTojC
SB9m5YUOv1mLVcmecKbRJgtw+3ONNSMndy5QXYpGL05opKXCxunEBxPEJh5Pdd0N
IbqdW+IiDuSk1xYVr+egyZXgi2kH8iPy6OFDDtkg6pp2iAUcMzBLbfKoA5yx2LX6
rejj+c+Cst+gP0Q7UEXoc6CtbtF8SaMwb/GCpNGjBRoNRDZYRB9wBL6fKdJ3sqq9
+NKwvSf5+R1jQ0fX91s+ZjH7SfNaz+Es+sWHM2fchqOYSU/ALIJba/1J4nNJwuDs
WW9KjMKr1db3jliI/4CvmJNBE2Cm8mD4oP4h/RaBk6fyX0WZeXCjVuzvoYnty0M8
v0inqyA45cI/W3swV+/zGxEUFG8pYvlu6NNE1WHzkRQV
-----END CERTIFICATE-----
