Certificate:
    Data:
        Version: 3 (0x2)
        Serial Number: 4733 (0x127d)
    Signature Algorithm: md5WithRSAEncryption
        Issuer: C=US, ST=OH, L=Columbus, O=VikingVPN, OU=MyOrganizationalUnit, CN=VikingVPN CA/name=EasyRSA/emailAddress=me@myhost.mydomain
        Validity
            Not Before: Mar 15 05:55:00 2015 GMT
            Not After : Mar 12 05:55:00 2025 GMT
        Subject: CN=Client1537Cert800138
        Subject Public Key Info:
            Public Key Algorithm: rsaEncryption
                Public-Key: (4096 bit)
                Modulus:
                    00:aa:cf:22:e8:2c:b9:61:d7:30:1d:a3:ec:1f:0d:
                    01:a0:2f:4b:b9:dd:40:0f:8e:0a:49:19:3a:22:a0:
                    25:41:65:36:67:ca:21:b9:31:8a:cd:40:e2:07:b8:
                    73:cb:70:dd:63:98:d5:fc:b7:41:fd:5d:d4:1f:9d:
                    fd:4a:08:c2:04:e3:ac:91:1d:de:df:d8:47:b2:83:
                    5d:6c:7b:cf:5b:e6:7d:b1:d1:28:7d:fc:13:a0:4b:
                    55:43:d6:ac:b3:c2:c6:34:9b:45:88:4e:ff:62:53:
                    c2:03:34:9c:cd:47:59:15:87:b7:71:02:9e:5a:0c:
                    2e:cd:22:11:12:05:75:37:fc:c8:2c:93:f1:ba:1d:
                    30:5a:0a:5d:98:1b:de:08:46:68:4f:5e:eb:5e:eb:
                    b7:a5:59:84:44:b7:8d:33:8d:dd:5d:51:fb:66:58:
                    07:d5:9f:4b:32:ef:3a:a8:2f:b6:23:70:ec:2a:f2:
                    64:a6:60:c2:98:97:72:ca:bf:f2:db:ee:25:9e:aa:
                    91:8c:d4:a4:6a:45:75:25:b4:b0:58:af:6f:fb:04:
                    b3:91:eb:45:e8:b7:99:94:9e:27:05:c7:78:26:25:
                    2a:b9:fb:5a:25:78:9a:c3:16:30:69:0d:ac:99:fd:
                    e4:cb:d9:be:fe:d8:c6:07:1b:8d:fa:7d:be:8a:f2:
                    e4:07:69:56:48:0f:7a:6c:37:e3:cc:b5:e8:d5:20:
                    b0:00:f6:69:d4:61:04:42:41:52:04:a4:39:0c:46:
                    ad:73:e6:b7:a2:cf:18:58:3b:af:1c:f3:df:b0:c5:
                    2d:96:4b:6c:1b:f4:5f:35:33:c1:d5:b8:33:25:dd:
                    c8:d4:0c:51:bc:22:a5:e5:35:36:eb:70:e5:c4:46:
                    a3:93:f3:29:e0:6c:2a:be:40:b1:63:ce:bb:64:ed:
                    a0:61:b9:80:5e:f4:09:63:88:73:f1:51:81:05:9a:
                    a9:aa:27:12:c6:8b:f5:0c:ca:c4:28:bb:7c:21:ce:
                    5b:0e:79:e9:85:34:ad:88:8e:c6:5d:07:36:be:bb:
                    8b:c4:95:3c:ea:00:03:fa:12:5c:69:9b:3d:73:5d:
                    3e:2f:cf:ba:f8:be:4c:19:7f:47:2c:c5:48:d1:de:
                    65:a9:b6:ff:ca:65:90:82:d4:14:df:1b:9a:b9:7a:
                    46:bf:b0:14:71:c8:53:8e:1a:8d:1a:55:90:8d:1e:
                    ef:2a:55:7f:21:dd:ec:2b:58:98:ac:eb:51:d5:94:
                    4a:e1:09:8d:9d:cf:4d:a3:02:b3:07:e0:7f:0c:33:
                    cb:7f:33:bf:2f:28:54:9b:10:8a:75:14:3f:ed:33:
                    6a:87:eb:41:e2:28:57:80:c2:ec:8d:fc:cf:0e:9a:
                    a4:d2:af
                Exponent: 65537 (0x10001)
        X509v3 extensions:
            X509v3 Basic Constraints: 
                CA:FALSE
            Netscape Comment: 
                Easy-RSA Generated Certificate
            X509v3 Subject Key Identifier: 
                26:70:FF:27:34:25:3B:19:48:97:CD:E3:82:86:66:88:8F:2C:83:1A
            X509v3 Authority Key Identifier: 
                keyid:12:CD:60:04:D2:A0:80:9E:70:ED:C6:99:B8:7B:2C:C6:52:FD:19:A1
                DirName:/C=US/ST=OH/L=Columbus/O=VikingVPN/OU=MyOrganizationalUnit/CN=VikingVPN CA/name=EasyRSA/emailAddress=me@myhost.mydomain
                serial:CF:35:85:EE:80:BF:2A:3E

            X509v3 Extended Key Usage: 
                TLS Web Client Authentication
            X509v3 Key Usage: 
                Digital Signature
    Signature Algorithm: md5WithRSAEncryption
         bc:23:65:b7:72:d2:65:7b:2f:d0:54:d0:d5:a6:a9:c5:ad:b3:
         db:3b:a4:f8:23:aa:b7:65:d5:66:b3:92:fb:e2:aa:82:8c:48:
         ae:4f:86:dd:5a:e1:e8:1d:0c:b7:0e:8a:5b:0a:f2:8a:f3:4a:
         c5:6f:5c:2c:ad:a2:a6:d8:a0:9d:c8:10:f7:27:21:f9:47:65:
         e1:80:17:71:60:3c:23:c3:ef:2a:6c:29:8d:4b:30:6b:1f:ec:
         42:ac:eb:30:2a:bf:13:b1:5a:fb:d2:ed:8b:09:20:83:43:ff:
         62:15:7f:6c:ef:ba:8c:b6:d8:74:71:77:8e:45:cd:16:29:07:
         62:ad:48:a8:4b:10:0b:83:29:ae:09:60:be:9d:51:9d:f5:c6:
         61:be:cc:f1:8c:df:f2:1a:ed:82:df:1b:08:f2:01:a4:ca:9d:
         08:bd:46:62:eb:76:d3:12:17:e8:64:19:d4:b5:1f:b9:71:e6:
         22:d8:80:28:bc:32:87:8d:1c:df:f6:5a:84:60:f3:60:c4:d0:
         e4:ea:f8:9d:7f:f9:d7:a2:5a:ed:18:0b:e2:76:a6:5c:33:3b:
         64:d9:4b:b3:a2:85:af:28:92:c6:9f:93:e4:91:a4:86:5a:71:
         56:e5:d8:1a:d0:1c:72:da:bc:cd:89:2f:60:24:ea:d6:4a:74:
         36:a6:dd:4f:2c:80:36:38:cc:a0:01:08:75:2b:f1:82:e2:4c:
         b8:3f:fa:ec:0b:c9:27:b7:5b:ca:b2:e9:af:e9:6c:11:b7:55:
         4c:1d:f0:c8:ff:d6:41:16:a4:cb:54:43:56:94:19:ef:de:ba:
         07:de:f3:42:68:0e:0d:47:99:75:14:95:44:1d:b8:49:66:07:
         9f:f2:f0:e7:67:90:ea:4b:19:05:1f:0b:01:52:d6:6a:3e:5a:
         13:98:87:a9:9d:1c:62:cc:29:7d:4d:be:2a:9e:93:c0:ed:fd:
         03:56:94:fa:40:53:0c:ed:1f:ae:01:f0:b9:1e:ad:ed:3d:6c:
         59:ae:d3:2a:bd:ea:7a:73:f2:47:af:62:c3:98:c8:ca:10:20:
         ae:db:56:a2:ce:26:1c:56:68:d3:3a:dd:c9:f6:9c:2c:82:b6:
         dc:7f:af:14:2f:35:fa:a3:0a:6a:35:e3:ee:60:54:65:4f:16:
         64:71:e1:bc:de:88:56:cc:d3:90:fb:8d:a6:87:d4:96:ab:3e:
         76:3e:79:35:20:39:23:52:ca:2d:e7:63:76:e7:78:d0:14:0a:
         58:3c:1c:d9:f2:ec:46:ac:6b:fa:3b:79:df:a0:fb:f7:d4:76:
         a1:79:68:bb:24:70:70:13:43:ce:38:ed:6c:0a:1d:89:93:75:
         3e:b3:da:40:af:94:d2:95
-----BEGIN CERTIFICATE-----
MIIGrTCCBJWgAwIBAgICEn0wDQYJKoZIhvcNAQEEBQAwgawxCzAJBgNVBAYTAlVT
MQswCQYDVQQIEwJPSDERMA8GA1UEBxMIQ29sdW1idXMxEjAQBgNVBAoTCVZpa2lu
Z1ZQTjEdMBsGA1UECxMUTXlPcmdhbml6YXRpb25hbFVuaXQxFTATBgNVBAMTDFZp
a2luZ1ZQTiBDQTEQMA4GA1UEKRMHRWFzeVJTQTEhMB8GCSqGSIb3DQEJARYSbWVA
bXlob3N0Lm15ZG9tYWluMB4XDTE1MDMxNTA1NTUwMFoXDTI1MDMxMjA1NTUwMFow
HzEdMBsGA1UEAxMUQ2xpZW50MTUzN0NlcnQ4MDAxMzgwggIiMA0GCSqGSIb3DQEB
AQUAA4ICDwAwggIKAoICAQCqzyLoLLlh1zAdo+wfDQGgL0u53UAPjgpJGToioCVB
ZTZnyiG5MYrNQOIHuHPLcN1jmNX8t0H9XdQfnf1KCMIE46yRHd7f2Eeyg11se89b
5n2x0Sh9/BOgS1VD1qyzwsY0m0WITv9iU8IDNJzNR1kVh7dxAp5aDC7NIhESBXU3
/Mgsk/G6HTBaCl2YG94IRmhPXute67elWYREt40zjd1dUftmWAfVn0sy7zqoL7Yj
cOwq8mSmYMKYl3LKv/Lb7iWeqpGM1KRqRXUltLBYr2/7BLOR60Xot5mUnicFx3gm
JSq5+1oleJrDFjBpDayZ/eTL2b7+2MYHG436fb6K8uQHaVZID3psN+PMtejVILAA
9mnUYQRCQVIEpDkMRq1z5reizxhYO68c89+wxS2WS2wb9F81M8HVuDMl3cjUDFG8
IqXlNTbrcOXERqOT8yngbCq+QLFjzrtk7aBhuYBe9AljiHPxUYEFmqmqJxLGi/UM
ysQou3whzlsOeemFNK2IjsZdBza+u4vElTzqAAP6Elxpmz1zXT4vz7r4vkwZf0cs
xUjR3mWptv/KZZCC1BTfG5q5eka/sBRxyFOOGo0aVZCNHu8qVX8h3ewrWJis61HV
lErhCY2dz02jArMH4H8MM8t/M78vKFSbEIp1FD/tM2qH60HiKFeAwuyN/M8OmqTS
rwIDAQABo4IBYzCCAV8wCQYDVR0TBAIwADAtBglghkgBhvhCAQ0EIBYeRWFzeS1S
U0EgR2VuZXJhdGVkIENlcnRpZmljYXRlMB0GA1UdDgQWBBQmcP8nNCU7GUiXzeOC
hmaIjyyDGjCB4QYDVR0jBIHZMIHWgBQSzWAE0qCAnnDtxpm4eyzGUv0ZoaGBsqSB
rzCBrDELMAkGA1UEBhMCVVMxCzAJBgNVBAgTAk9IMREwDwYDVQQHEwhDb2x1bWJ1
czESMBAGA1UEChMJVmlraW5nVlBOMR0wGwYDVQQLExRNeU9yZ2FuaXphdGlvbmFs
VW5pdDEVMBMGA1UEAxMMVmlraW5nVlBOIENBMRAwDgYDVQQpEwdFYXN5UlNBMSEw
HwYJKoZIhvcNAQkBFhJtZUBteWhvc3QubXlkb21haW6CCQDPNYXugL8qPjATBgNV
HSUEDDAKBggrBgEFBQcDAjALBgNVHQ8EBAMCB4AwDQYJKoZIhvcNAQEEBQADggIB
ALwjZbdy0mV7L9BU0NWmqcWts9s7pPgjqrdl1WazkvviqoKMSK5Pht1a4egdDLcO
ilsK8orzSsVvXCytoqbYoJ3IEPcnIflHZeGAF3FgPCPD7ypsKY1LMGsf7EKs6zAq
vxOxWvvS7YsJIIND/2IVf2zvuoy22HRxd45FzRYpB2KtSKhLEAuDKa4JYL6dUZ31
xmG+zPGM3/Ia7YLfGwjyAaTKnQi9RmLrdtMSF+hkGdS1H7lx5iLYgCi8MoeNHN/2
WoRg82DE0OTq+J1/+deiWu0YC+J2plwzO2TZS7Oiha8oksafk+SRpIZacVbl2BrQ
HHLavM2JL2Ak6tZKdDam3U8sgDY4zKABCHUr8YLiTLg/+uwLySe3W8qy6a/pbBG3
VUwd8Mj/1kEWpMtUQ1aUGe/eugfe80JoDg1HmXUUlUQduElmB5/y8OdnkOpLGQUf
CwFS1mo+WhOYh6mdHGLMKX1Nviqek8Dt/QNWlPpAUwztH64B8Lkere09bFmu0yq9
6npz8kevYsOYyMoQIK7bVqLOJhxWaNM63cn2nCyCttx/rxQvNfqjCmo14+5gVGVP
FmRx4bzeiFbM05D7jaaH1JarPnY+eTUgOSNSyi3nY3bneNAUClg8HNny7Easa/o7
ed+g+/fUdqF5aLskcHATQ8447WwKHYmTdT6z2kCvlNKV
-----END CERTIFICATE-----
