Certificate:
    Data:
        Version: 3 (0x2)
        Serial Number: 7822 (0x1e8e)
    Signature Algorithm: md5WithRSAEncryption
        Issuer: C=US, ST=OH, L=Columbus, O=VikingVPN, OU=MyOrganizationalUnit, CN=VikingVPN CA/name=EasyRSA/emailAddress=me@myhost.mydomain
        Validity
            Not Before: Apr 22 18:15:02 2016 GMT
            Not After : Apr 20 18:15:02 2026 GMT
        Subject: CN=Client1776Cert37bc4d
        Subject Public Key Info:
            Public Key Algorithm: rsaEncryption
                Public-Key: (4096 bit)
                Modulus:
                    00:d2:b5:00:1c:c8:2d:d6:07:75:ca:76:49:f1:03:
                    ea:e9:0e:d4:0e:be:20:c5:a2:33:6f:db:62:15:09:
                    26:fb:38:82:60:fc:18:29:d7:4c:2d:7d:ed:8f:fa:
                    9f:96:ad:64:27:62:cd:34:cd:c3:c9:13:ab:00:85:
                    29:ec:ff:f1:da:03:d5:bd:c7:f7:eb:d0:be:02:d6:
                    bf:d6:70:a4:2f:11:f4:4f:73:d6:26:c2:77:39:fe:
                    b9:a9:d9:e4:4b:03:62:6f:af:7c:2d:9d:5b:1f:10:
                    b0:32:f4:7a:2a:23:ca:00:3b:03:3d:07:5a:f3:b9:
                    98:4e:71:f1:34:f2:43:69:91:d1:29:3e:01:b2:0e:
                    6e:e5:7e:fc:e3:2d:9e:1d:fd:96:94:68:6a:59:1f:
                    83:ed:e2:dc:0f:db:2c:cf:45:1d:fc:5c:a3:fd:7e:
                    29:11:9d:d4:b9:a7:18:ad:48:a2:85:b5:89:f8:b3:
                    d0:37:d7:ce:30:01:40:16:1f:7d:5e:b5:6a:90:18:
                    f6:11:c1:1e:e3:9c:43:a8:e8:03:e2:f8:79:b5:28:
                    f4:10:3c:95:43:ed:82:93:ae:29:ee:c3:bf:e1:20:
                    70:c4:ec:33:52:96:16:1c:84:8f:7d:60:cf:ea:91:
                    82:8c:a9:dc:6e:6d:9d:7e:c0:48:c4:0c:57:7f:f8:
                    8e:21:f4:73:f8:b7:c4:9d:42:2e:45:c8:d3:6e:c5:
                    d5:d8:a1:0a:44:4d:fe:32:f4:cb:3a:b2:f0:d0:6d:
                    e6:79:43:fd:27:33:8d:c7:49:ed:81:bb:9f:6a:a9:
                    e9:d0:30:d5:ed:c0:07:63:65:06:02:de:2a:94:73:
                    41:f2:ff:2d:2f:73:ec:62:5f:d6:4b:63:c1:c4:cf:
                    ac:e9:72:70:d3:3f:d1:a6:ce:8f:63:67:39:81:28:
                    78:4e:ac:e5:85:c2:3e:c1:04:e4:01:8d:d5:05:57:
                    86:7a:bc:5d:47:c7:27:06:f3:85:bb:a0:f5:35:a7:
                    b4:24:38:5f:91:bc:72:21:d8:b2:8b:5d:81:d3:de:
                    d8:df:4c:3d:2c:44:2f:24:e1:eb:3b:24:36:37:82:
                    52:84:40:fd:1e:3b:84:3f:2b:49:41:e9:2b:b7:7a:
                    0f:db:d9:a6:70:1e:9f:07:6b:ee:de:b8:10:fe:22:
                    11:d5:9b:46:a1:bd:16:1d:ce:d4:6b:f3:74:f0:90:
                    35:4b:ad:e2:eb:27:58:b9:50:9b:ed:94:15:ee:88:
                    1a:50:01:4c:e9:56:53:f0:3d:fc:57:3e:90:e4:23:
                    3b:6e:4c:ee:a3:9a:70:73:b6:2c:56:e0:f7:f0:0c:
                    d9:d4:35:3c:3d:a6:e3:c2:70:b5:1b:83:65:02:d9:
                    3b:ab:e7
                Exponent: 65537 (0x10001)
        X509v3 extensions:
            X509v3 Basic Constraints: 
                CA:FALSE
            Netscape Comment: 
                Easy-RSA Generated Certificate
            X509v3 Subject Key Identifier: 
                E1:72:7F:5F:2A:FB:C2:AB:B2:94:52:0C:F2:60:61:20:84:F3:F3:21
            X509v3 Authority Key Identifier: 
                keyid:12:CD:60:04:D2:A0:80:9E:70:ED:C6:99:B8:7B:2C:C6:52:FD:19:A1
                DirName:/C=US/ST=OH/L=Columbus/O=VikingVPN/OU=MyOrganizationalUnit/CN=VikingVPN CA/name=EasyRSA/emailAddress=me@myhost.mydomain
                serial:CF:35:85:EE:80:BF:2A:3E

            X509v3 Extended Key Usage: 
                TLS Web Client Authentication
            X509v3 Key Usage: 
                Digital Signature
    Signature Algorithm: md5WithRSAEncryption
         b8:16:ed:52:9f:9a:7b:88:05:97:e6:96:5e:cc:65:86:c0:7e:
         82:ca:99:91:55:bb:08:e8:f8:36:3a:1d:97:a1:7d:85:22:30:
         9f:5b:f3:9a:6b:51:e5:8a:d6:ac:6f:c6:63:c1:01:9c:04:fc:
         85:06:8a:57:29:1d:62:e7:f4:85:ae:12:32:e4:7f:aa:89:b2:
         6a:22:87:7f:08:f0:21:40:da:41:a3:f2:ec:1c:24:5d:6c:a9:
         e4:19:b6:94:45:b5:79:38:94:e4:e0:1b:79:4e:9d:3d:17:db:
         28:78:40:9a:ac:60:01:6a:ee:41:d2:5e:48:81:54:69:46:dd:
         52:7d:fa:b5:30:b8:19:04:7a:84:76:26:71:99:54:27:7c:32:
         ec:2c:40:da:59:6b:ec:29:e5:08:cd:a1:a3:e8:16:17:49:14:
         83:04:ee:ef:bd:61:da:8a:72:84:11:f4:c3:68:3b:3a:9e:b3:
         08:0c:ae:9c:91:6b:0a:87:b2:47:44:b7:31:88:b2:70:18:51:
         09:17:ec:9b:6a:68:1d:e4:45:f8:6d:71:39:54:e3:9f:b9:42:
         f6:34:7d:eb:20:da:f3:7e:f4:9c:c0:75:ad:7f:22:11:8d:fb:
         ac:6b:50:34:83:a5:1f:8f:71:f5:a4:8a:6b:ec:b4:f5:a7:79:
         82:b9:80:17:40:d4:35:c6:0c:6e:b5:e0:55:d9:84:24:db:5a:
         b4:de:b5:b6:e4:eb:2d:3c:de:b6:1f:7c:fa:9f:f4:73:94:32:
         a4:fe:7d:9d:31:49:26:61:59:73:1d:13:6b:4d:3c:c9:83:0b:
         0f:18:5b:45:c2:6e:31:63:57:4c:18:00:9e:cb:ba:36:f0:e2:
         e9:38:af:11:06:34:c9:45:b5:fb:32:48:04:54:0d:a3:7d:66:
         d0:7a:7b:97:fd:34:0f:45:45:15:e4:76:1b:90:e5:04:c9:1f:
         28:80:93:bd:1d:07:7d:ad:57:dd:78:49:30:c5:42:c9:77:b6:
         46:84:01:96:32:b9:f2:f7:b0:94:75:62:0f:05:f9:ed:b0:0b:
         bd:ef:df:fe:fd:44:be:1b:82:8e:17:ae:8c:d4:b5:d8:db:9e:
         e9:67:df:1b:60:74:99:51:01:1a:72:a3:8e:9b:92:95:eb:14:
         fa:f4:94:86:80:cf:d1:72:97:de:bc:03:3a:26:14:64:f9:c0:
         02:78:d7:49:be:c4:68:69:e0:a4:82:5d:73:c9:69:64:c2:09:
         33:6e:1c:68:ec:9d:f6:15:b5:46:57:ca:ab:31:c2:96:a6:d5:
         b0:c3:d3:c4:99:99:90:22:26:ad:b0:63:51:4f:a7:24:e1:31:
         85:9b:63:cd:b7:36:71:ef
-----BEGIN CERTIFICATE-----
MIIGrTCCBJWgAwIBAgICHo4wDQYJKoZIhvcNAQEEBQAwgawxCzAJBgNVBAYTAlVT
MQswCQYDVQQIEwJPSDERMA8GA1UEBxMIQ29sdW1idXMxEjAQBgNVBAoTCVZpa2lu
Z1ZQTjEdMBsGA1UECxMUTXlPcmdhbml6YXRpb25hbFVuaXQxFTATBgNVBAMTDFZp
a2luZ1ZQTiBDQTEQMA4GA1UEKRMHRWFzeVJTQTEhMB8GCSqGSIb3DQEJARYSbWVA
bXlob3N0Lm15ZG9tYWluMB4XDTE2MDQyMjE4MTUwMloXDTI2MDQyMDE4MTUwMlow
HzEdMBsGA1UEAxMUQ2xpZW50MTc3NkNlcnQzN2JjNGQwggIiMA0GCSqGSIb3DQEB
AQUAA4ICDwAwggIKAoICAQDStQAcyC3WB3XKdknxA+rpDtQOviDFojNv22IVCSb7
OIJg/Bgp10wtfe2P+p+WrWQnYs00zcPJE6sAhSns//HaA9W9x/fr0L4C1r/WcKQv
EfRPc9Ymwnc5/rmp2eRLA2Jvr3wtnVsfELAy9HoqI8oAOwM9B1rzuZhOcfE08kNp
kdEpPgGyDm7lfvzjLZ4d/ZaUaGpZH4Pt4twP2yzPRR38XKP9fikRndS5pxitSKKF
tYn4s9A3184wAUAWH31etWqQGPYRwR7jnEOo6APi+Hm1KPQQPJVD7YKTrinuw7/h
IHDE7DNSlhYchI99YM/qkYKMqdxubZ1+wEjEDFd/+I4h9HP4t8SdQi5FyNNuxdXY
oQpETf4y9Ms6svDQbeZ5Q/0nM43HSe2Bu59qqenQMNXtwAdjZQYC3iqUc0Hy/y0v
c+xiX9ZLY8HEz6zpcnDTP9Gmzo9jZzmBKHhOrOWFwj7BBOQBjdUFV4Z6vF1HxycG
84W7oPU1p7QkOF+RvHIh2LKLXYHT3tjfTD0sRC8k4es7JDY3glKEQP0eO4Q/K0lB
6Su3eg/b2aZwHp8Ha+7euBD+IhHVm0ahvRYdztRr83TwkDVLreLrJ1i5UJvtlBXu
iBpQAUzpVlPwPfxXPpDkIztuTO6jmnBztixW4PfwDNnUNTw9puPCcLUbg2UC2Tur
5wIDAQABo4IBYzCCAV8wCQYDVR0TBAIwADAtBglghkgBhvhCAQ0EIBYeRWFzeS1S
U0EgR2VuZXJhdGVkIENlcnRpZmljYXRlMB0GA1UdDgQWBBThcn9fKvvCq7KUUgzy
YGEghPPzITCB4QYDVR0jBIHZMIHWgBQSzWAE0qCAnnDtxpm4eyzGUv0ZoaGBsqSB
rzCBrDELMAkGA1UEBhMCVVMxCzAJBgNVBAgTAk9IMREwDwYDVQQHEwhDb2x1bWJ1
czESMBAGA1UEChMJVmlraW5nVlBOMR0wGwYDVQQLExRNeU9yZ2FuaXphdGlvbmFs
VW5pdDEVMBMGA1UEAxMMVmlraW5nVlBOIENBMRAwDgYDVQQpEwdFYXN5UlNBMSEw
HwYJKoZIhvcNAQkBFhJtZUBteWhvc3QubXlkb21haW6CCQDPNYXugL8qPjATBgNV
HSUEDDAKBggrBgEFBQcDAjALBgNVHQ8EBAMCB4AwDQYJKoZIhvcNAQEEBQADggIB
ALgW7VKfmnuIBZfmll7MZYbAfoLKmZFVuwjo+DY6HZehfYUiMJ9b85prUeWK1qxv
xmPBAZwE/IUGilcpHWLn9IWuEjLkf6qJsmoih38I8CFA2kGj8uwcJF1sqeQZtpRF
tXk4lOTgG3lOnT0X2yh4QJqsYAFq7kHSXkiBVGlG3VJ9+rUwuBkEeoR2JnGZVCd8
MuwsQNpZa+wp5QjNoaPoFhdJFIME7u+9YdqKcoQR9MNoOzqeswgMrpyRawqHskdE
tzGIsnAYUQkX7JtqaB3kRfhtcTlU45+5QvY0fesg2vN+9JzAda1/IhGN+6xrUDSD
pR+PcfWkimvstPWneYK5gBdA1DXGDG614FXZhCTbWrTetbbk6y083rYffPqf9HOU
MqT+fZ0xSSZhWXMdE2tNPMmDCw8YW0XCbjFjV0wYAJ7Lujbw4uk4rxEGNMlFtfsy
SARUDaN9ZtB6e5f9NA9FRRXkdhuQ5QTJHyiAk70dB32tV914STDFQsl3tkaEAZYy
ufL3sJR1Yg8F+e2wC73v3/79RL4bgo4XrozUtdjbnuln3xtgdJlRARpyo46bkpXr
FPr0lIaAz9Fyl968AzomFGT5wAJ410m+xGhp4KSCXXPJaWTCCTNuHGjsnfYVtUZX
yqsxwpam1bDD08SZmZAiJq2wY1FPpyThMYWbY823NnHv
-----END CERTIFICATE-----
