Certificate:
    Data:
        Version: 3 (0x2)
        Serial Number: 9583 (0x256f)
    Signature Algorithm: sha256WithRSAEncryption
        Issuer: C=US, ST=OH, L=Columbus, O=VikingVPN, OU=MyOrganizationalUnit, CN=VikingVPN CA/name=EasyRSA/emailAddress=me@myhost.mydomain
        Validity
            Not Before: Nov 28 14:53:43 2016 GMT
            Not After : Nov 26 14:53:43 2026 GMT
        Subject: CN=Client2620Cert12e45d
        Subject Public Key Info:
            Public Key Algorithm: rsaEncryption
                Public-Key: (4096 bit)
                Modulus:
                    00:99:89:46:8a:0f:91:aa:a6:7c:7e:12:28:7f:68:
                    39:fe:60:cf:59:c2:86:26:c1:b0:5f:5c:87:46:d7:
                    b8:96:d1:fa:83:3a:bc:12:23:39:68:89:9a:a5:c1:
                    ba:55:4e:13:7a:ce:88:62:59:bc:fe:6a:d0:b6:77:
                    03:3a:c5:63:6b:27:52:74:2d:97:b9:cc:6a:e4:bb:
                    de:b5:45:5d:1d:36:5f:8b:ca:50:39:19:a9:a4:54:
                    d9:c7:01:da:eb:ce:7d:6f:59:a2:6e:f6:a1:7c:c7:
                    9d:f5:99:c0:59:cc:46:2f:10:61:9b:cd:e0:39:31:
                    24:3e:73:74:22:fa:b6:10:68:25:91:4d:4f:d8:ec:
                    87:0a:2c:a3:b4:bc:ae:cc:e6:ba:1b:ca:ed:02:44:
                    7c:70:e2:a2:19:97:b4:42:7a:c6:b2:89:71:4a:ed:
                    c9:cc:2c:6b:f9:58:0e:09:77:d9:6d:6d:5a:97:8a:
                    a2:36:a9:35:c3:83:ab:24:f5:fb:bc:58:14:40:c8:
                    46:d9:89:26:22:2f:d3:ad:af:74:fa:7e:41:1d:77:
                    03:47:93:55:44:24:f9:d9:a1:82:d2:4e:44:32:fc:
                    f8:97:79:ea:f7:7f:cc:3e:ef:14:94:93:24:c7:36:
                    c5:78:01:c2:e0:38:aa:86:3a:b9:f4:6e:c4:6f:a6:
                    bb:1c:17:8e:75:3f:5f:90:ff:01:e6:d3:b3:2c:dd:
                    21:3f:8b:df:ab:47:1a:45:65:3a:0c:a2:fb:cc:7a:
                    f4:de:13:7b:66:0c:63:c7:09:1d:29:ce:ce:9e:45:
                    21:5e:5e:8d:7c:7b:4f:81:5f:d3:6e:5c:e9:4b:60:
                    3f:d2:7e:7a:7d:09:0c:45:40:ec:fb:05:ba:86:11:
                    0b:fa:15:19:a8:61:45:cf:ae:41:a2:2c:6b:84:5a:
                    db:a7:e9:6e:30:13:b9:70:71:fb:75:72:0c:01:e2:
                    5f:b3:b1:94:42:76:b5:56:af:68:2b:b5:f5:37:57:
                    89:7c:c5:9c:b8:0f:a8:47:5d:a9:ee:82:03:33:f9:
                    36:0d:f3:96:54:29:e0:e4:2d:73:55:5f:28:92:04:
                    24:df:d0:5b:dc:7b:14:84:d8:33:9e:04:32:7d:41:
                    a3:20:ef:51:b2:f0:22:4c:33:1f:10:f0:b6:32:65:
                    29:ad:45:5f:04:98:f8:d0:f6:52:35:00:03:e1:4e:
                    ca:ef:36:3f:35:94:9d:67:f6:20:bd:44:9f:46:e6:
                    f8:d1:27:b9:3c:40:f6:b8:5d:b7:8b:b7:d6:e2:0e:
                    3d:8d:2c:61:51:8c:0a:65:e0:23:60:1f:a7:5a:ae:
                    c7:f8:72:52:91:c7:89:93:64:dd:e1:f8:b2:21:0c:
                    e5:37:dd
                Exponent: 65537 (0x10001)
        X509v3 extensions:
            X509v3 Basic Constraints: 
                CA:FALSE
            Netscape Comment: 
                Easy-RSA Generated Certificate
            X509v3 Subject Key Identifier: 
                A0:5E:66:CA:CF:B7:77:FE:D3:82:72:FC:F6:DF:AA:A2:2B:5E:F0:0D
            X509v3 Authority Key Identifier: 
                keyid:12:CD:60:04:D2:A0:80:9E:70:ED:C6:99:B8:7B:2C:C6:52:FD:19:A1
                DirName:/C=US/ST=OH/L=Columbus/O=VikingVPN/OU=MyOrganizationalUnit/CN=VikingVPN CA/name=EasyRSA/emailAddress=me@myhost.mydomain
                serial:CF:35:85:EE:80:BF:2A:3E

            X509v3 Extended Key Usage: 
                TLS Web Client Authentication
            X509v3 Key Usage: 
                Digital Signature
    Signature Algorithm: sha256WithRSAEncryption
         25:e8:b3:dc:18:11:da:c2:25:8f:c7:73:87:ab:0a:c2:97:0b:
         5a:3a:83:4e:79:29:33:7e:bd:0a:67:c0:b1:99:42:7f:d3:3d:
         e3:83:79:bd:c6:bc:6b:a0:57:71:bd:16:e5:d9:c5:a1:59:dd:
         e4:fe:b4:35:de:3a:21:fb:9c:3f:4a:16:eb:70:2d:d9:c2:35:
         e0:71:f4:d2:6c:dc:e1:d2:fa:3a:4b:1c:63:dd:f5:c2:25:8f:
         1e:3b:db:6c:3a:5d:da:23:a4:f1:db:f5:aa:d6:88:60:86:c5:
         f3:5a:b9:4a:5a:15:2f:89:ce:61:13:52:11:45:2a:56:ee:7e:
         65:7a:b2:47:72:aa:c9:19:a1:df:3f:b7:6b:ed:0e:6d:d7:d8:
         ca:12:26:15:d1:94:9c:79:6a:db:03:8c:c9:b4:6d:74:42:93:
         fe:92:e0:5e:aa:c8:b5:35:59:19:16:12:08:e4:ce:cb:84:2d:
         d4:ca:cb:a3:13:20:53:4a:04:15:08:b6:3b:e4:eb:8a:b2:f9:
         59:cb:8e:93:b1:07:2f:f5:d7:28:79:ae:81:de:24:b1:cb:fd:
         73:d1:46:65:c5:88:7e:fd:11:37:35:06:9c:e6:b0:9c:d8:87:
         17:c8:12:90:d0:58:5b:55:20:74:47:1b:09:ef:31:87:00:29:
         4d:ad:47:ff:12:a8:5a:e1:01:78:38:1c:12:c0:c2:cd:b4:2c:
         7e:dc:0a:21:ac:eb:10:aa:af:b4:d2:89:96:a5:c8:83:23:70:
         fb:f0:c2:c9:b6:8e:78:32:87:62:98:23:5a:25:82:44:29:bb:
         c1:27:63:c0:a5:e9:a2:c9:3a:37:a4:a3:c5:82:fe:13:68:f9:
         15:16:66:a3:0e:9b:fe:4b:b8:a5:62:5b:79:90:4b:f7:25:22:
         3d:3d:ed:78:b2:25:c1:7c:59:6b:a7:06:d4:88:c9:25:b8:fe:
         15:dd:06:d8:cb:2b:f2:d8:c3:5e:3e:ba:d0:ab:2b:e1:7d:30:
         05:08:7e:fe:d3:28:e4:fd:96:55:9c:d4:af:b6:85:14:7c:e7:
         42:c0:e5:ca:c4:9c:5c:26:2f:be:e1:89:a2:59:dc:fd:b1:ab:
         5a:32:fa:2e:5d:5a:78:73:6e:f7:b4:1b:47:52:b3:8c:b6:9e:
         31:17:a2:98:0b:cb:9a:82:d7:82:2d:33:b3:b2:90:97:2d:27:
         9d:14:9f:98:72:d3:0b:c3:b5:cc:64:c8:e8:54:3e:2c:e6:c5:
         53:0b:de:ff:a6:37:46:58:31:69:94:cf:9b:12:9a:ff:bd:df:
         14:d8:d6:c2:31:be:d7:a4:ca:79:93:3d:df:bd:2b:2e:b5:fe:
         51:31:2d:a4:d2:f5:b0:27
-----BEGIN CERTIFICATE-----
MIIGrTCCBJWgAwIBAgICJW8wDQYJKoZIhvcNAQELBQAwgawxCzAJBgNVBAYTAlVT
MQswCQYDVQQIEwJPSDERMA8GA1UEBxMIQ29sdW1idXMxEjAQBgNVBAoTCVZpa2lu
Z1ZQTjEdMBsGA1UECxMUTXlPcmdhbml6YXRpb25hbFVuaXQxFTATBgNVBAMTDFZp
a2luZ1ZQTiBDQTEQMA4GA1UEKRMHRWFzeVJTQTEhMB8GCSqGSIb3DQEJARYSbWVA
bXlob3N0Lm15ZG9tYWluMB4XDTE2MTEyODE0NTM0M1oXDTI2MTEyNjE0NTM0M1ow
HzEdMBsGA1UEAxMUQ2xpZW50MjYyMENlcnQxMmU0NWQwggIiMA0GCSqGSIb3DQEB
AQUAA4ICDwAwggIKAoICAQCZiUaKD5Gqpnx+Eih/aDn+YM9ZwoYmwbBfXIdG17iW
0fqDOrwSIzloiZqlwbpVThN6zohiWbz+atC2dwM6xWNrJ1J0LZe5zGrku961RV0d
Nl+LylA5GamkVNnHAdrrzn1vWaJu9qF8x531mcBZzEYvEGGbzeA5MSQ+c3Qi+rYQ
aCWRTU/Y7IcKLKO0vK7M5robyu0CRHxw4qIZl7RCesayiXFK7cnMLGv5WA4Jd9lt
bVqXiqI2qTXDg6sk9fu8WBRAyEbZiSYiL9Otr3T6fkEddwNHk1VEJPnZoYLSTkQy
/PiXeer3f8w+7xSUkyTHNsV4AcLgOKqGOrn0bsRvprscF451P1+Q/wHm07Ms3SE/
i9+rRxpFZToMovvMevTeE3tmDGPHCR0pzs6eRSFeXo18e0+BX9NuXOlLYD/Sfnp9
CQxFQOz7BbqGEQv6FRmoYUXPrkGiLGuEWtun6W4wE7lwcft1cgwB4l+zsZRCdrVW
r2grtfU3V4l8xZy4D6hHXanuggMz+TYN85ZUKeDkLXNVXyiSBCTf0FvcexSE2DOe
BDJ9QaMg71Gy8CJMMx8Q8LYyZSmtRV8EmPjQ9lI1AAPhTsrvNj81lJ1n9iC9RJ9G
5vjRJ7k8QPa4XbeLt9biDj2NLGFRjApl4CNgH6darsf4clKRx4mTZN3h+LIhDOU3
3QIDAQABo4IBYzCCAV8wCQYDVR0TBAIwADAtBglghkgBhvhCAQ0EIBYeRWFzeS1S
U0EgR2VuZXJhdGVkIENlcnRpZmljYXRlMB0GA1UdDgQWBBSgXmbKz7d3/tOCcvz2
36qiK17wDTCB4QYDVR0jBIHZMIHWgBQSzWAE0qCAnnDtxpm4eyzGUv0ZoaGBsqSB
rzCBrDELMAkGA1UEBhMCVVMxCzAJBgNVBAgTAk9IMREwDwYDVQQHEwhDb2x1bWJ1
czESMBAGA1UEChMJVmlraW5nVlBOMR0wGwYDVQQLExRNeU9yZ2FuaXphdGlvbmFs
VW5pdDEVMBMGA1UEAxMMVmlraW5nVlBOIENBMRAwDgYDVQQpEwdFYXN5UlNBMSEw
HwYJKoZIhvcNAQkBFhJtZUBteWhvc3QubXlkb21haW6CCQDPNYXugL8qPjATBgNV
HSUEDDAKBggrBgEFBQcDAjALBgNVHQ8EBAMCB4AwDQYJKoZIhvcNAQELBQADggIB
ACXos9wYEdrCJY/Hc4erCsKXC1o6g055KTN+vQpnwLGZQn/TPeODeb3GvGugV3G9
FuXZxaFZ3eT+tDXeOiH7nD9KFutwLdnCNeBx9NJs3OHS+jpLHGPd9cIljx4722w6
XdojpPHb9arWiGCGxfNauUpaFS+JzmETUhFFKlbufmV6skdyqskZod8/t2vtDm3X
2MoSJhXRlJx5atsDjMm0bXRCk/6S4F6qyLU1WRkWEgjkzsuELdTKy6MTIFNKBBUI
tjvk64qy+VnLjpOxBy/11yh5roHeJLHL/XPRRmXFiH79ETc1BpzmsJzYhxfIEpDQ
WFtVIHRHGwnvMYcAKU2tR/8SqFrhAXg4HBLAws20LH7cCiGs6xCqr7TSiZalyIMj
cPvwwsm2jngyh2KYI1olgkQpu8EnY8Cl6aLJOjeko8WC/hNo+RUWZqMOm/5LuKVi
W3mQS/clIj097XiyJcF8WWunBtSIySW4/hXdBtjLK/LYw14+utCrK+F9MAUIfv7T
KOT9llWc1K+2hRR850LA5crEnFwmL77hiaJZ3P2xq1oy+i5dWnhzbve0G0dSs4y2
njEXopgLy5qC14ItM7OykJctJ50Un5hy0wvDtcxkyOhUPizmxVML3v+mN0ZYMWmU
z5sSmv+93xTY1sIxvtekynmTPd+9Ky61/lExLaTS9bAn
-----END CERTIFICATE-----
