Certificate:
    Data:
        Version: 3 (0x2)
        Serial Number: 8644 (0x21c4)
    Signature Algorithm: sha256WithRSAEncryption
        Issuer: C=US, ST=OH, L=Columbus, O=VikingVPN, OU=MyOrganizationalUnit, CN=VikingVPN CA/name=EasyRSA/emailAddress=me@myhost.mydomain
        Validity
            Not Before: Jul 31 19:11:11 2016 GMT
            Not After : Jul 29 19:11:11 2026 GMT
        Subject: CN=Client1796Cert96efdf
        Subject Public Key Info:
            Public Key Algorithm: rsaEncryption
                Public-Key: (4096 bit)
                Modulus:
                    00:bb:39:bd:45:94:3c:3a:c3:11:78:b3:6c:6b:65:
                    b2:6e:7f:4a:9c:21:20:bd:45:b8:53:82:b3:eb:c6:
                    4e:09:c0:fa:82:e5:ea:66:fb:39:e1:dc:3a:fd:2d:
                    85:6f:91:b7:12:14:ba:52:ae:75:55:0d:81:09:60:
                    bb:61:d8:a2:46:64:4f:aa:a2:09:23:f7:fa:62:fa:
                    9d:fa:c6:9d:23:58:04:31:56:9d:66:7c:e4:57:7b:
                    34:c4:d5:e5:93:74:8c:f7:1d:3d:f8:4c:57:70:24:
                    9c:65:3e:cd:4f:06:d7:4b:58:95:48:3d:73:63:41:
                    d7:c7:fb:87:48:f5:bf:95:49:4b:f2:a5:7f:f3:65:
                    82:21:cc:46:35:d6:07:53:2e:5d:5a:d7:01:8d:a6:
                    af:bc:15:25:77:7c:a1:24:dd:e2:a4:e6:d3:00:75:
                    c3:b3:33:a9:2b:44:27:ea:f1:e9:8f:ed:de:3d:f9:
                    1f:2d:8e:12:86:62:d9:3e:b5:db:1a:3d:14:20:5c:
                    ca:a8:f9:01:29:a1:07:b5:22:20:c6:15:3f:94:73:
                    35:8b:fe:c7:71:d8:f0:87:1a:fe:5c:25:f0:0f:52:
                    80:ce:07:fb:24:e0:f6:fc:db:0f:a2:8a:9d:c3:72:
                    a7:de:32:c0:71:1b:0d:6d:73:fc:65:2b:61:81:e3:
                    8d:c1:24:34:b3:88:1b:9d:42:73:a5:ab:af:4c:9f:
                    54:a5:9f:c9:3e:b7:4e:e1:ad:8c:43:5a:05:6b:b3:
                    66:e8:3d:09:28:12:fa:7d:e8:f3:26:b6:ca:b2:d5:
                    67:4f:6e:15:4e:5d:03:06:80:72:5a:41:16:0a:19:
                    98:de:f5:50:ac:21:2c:ad:16:33:7d:fb:d0:d4:7f:
                    86:30:a3:f4:b2:cf:48:b7:6b:34:ce:88:b0:0a:14:
                    68:a9:40:a3:88:50:98:f1:bf:1f:30:69:8a:5b:62:
                    cb:1e:60:02:0d:b0:9e:13:5b:d8:20:59:56:14:46:
                    50:05:bd:6d:be:57:59:5c:f1:03:eb:96:df:93:24:
                    94:3f:53:6a:8e:34:88:4a:04:a4:00:21:99:5d:96:
                    20:b9:27:ff:93:d8:4a:44:c6:82:cf:03:96:2f:eb:
                    89:f2:e6:68:e6:7b:04:0d:48:2b:14:2f:54:a9:02:
                    fc:a4:1f:59:9f:60:93:68:e5:da:46:f7:9e:1c:b7:
                    9d:26:f6:b1:17:86:5c:05:3e:cc:0f:7b:17:af:ca:
                    e0:75:ec:62:1d:5d:5e:92:03:8d:ef:1b:1a:85:5c:
                    8d:d6:6d:86:9a:0c:58:34:ec:d7:e5:ee:a2:5a:5d:
                    a5:c1:78:3c:e7:62:f2:d7:b1:68:f3:e0:2a:d1:7a:
                    08:0c:dd
                Exponent: 65537 (0x10001)
        X509v3 extensions:
            X509v3 Basic Constraints: 
                CA:FALSE
            Netscape Comment: 
                Easy-RSA Generated Certificate
            X509v3 Subject Key Identifier: 
                1F:C0:37:48:05:4F:A4:59:99:D4:0A:07:20:EA:2C:7D:1A:F9:3B:A2
            X509v3 Authority Key Identifier: 
                keyid:12:CD:60:04:D2:A0:80:9E:70:ED:C6:99:B8:7B:2C:C6:52:FD:19:A1
                DirName:/C=US/ST=OH/L=Columbus/O=VikingVPN/OU=MyOrganizationalUnit/CN=VikingVPN CA/name=EasyRSA/emailAddress=me@myhost.mydomain
                serial:CF:35:85:EE:80:BF:2A:3E

            X509v3 Extended Key Usage: 
                TLS Web Client Authentication
            X509v3 Key Usage: 
                Digital Signature
    Signature Algorithm: sha256WithRSAEncryption
         0a:03:6f:3c:7e:c9:75:8a:0c:e2:2f:ca:e3:cb:cb:4f:fb:24:
         9e:12:eb:9c:1a:8e:16:42:ab:d9:fb:08:4c:04:b6:8c:d8:12:
         6e:60:4c:b6:15:df:e9:3e:01:77:3d:f9:18:00:86:9d:a4:4f:
         17:54:42:d4:ca:11:d5:20:e4:50:69:66:c7:82:09:00:78:3a:
         03:7e:63:d4:27:d9:90:50:5f:39:c4:d4:03:d5:0e:d0:90:86:
         8c:f1:03:d5:2f:be:4e:64:ea:3b:ac:5e:fb:58:a3:86:f9:71:
         8b:a4:af:c9:42:fd:58:5a:03:74:27:87:11:f9:10:fa:2a:f8:
         48:df:a9:4e:fd:e1:3c:36:88:4a:a8:73:1c:4b:9a:b8:1e:59:
         fe:2e:11:4a:39:c8:9c:bc:ae:a6:80:d7:52:df:09:4b:72:bf:
         ac:90:3f:bf:5c:a9:9f:b1:30:f9:3f:99:77:7a:15:b9:96:82:
         d3:1c:8c:e7:c6:e4:20:fb:a4:83:dc:2d:19:d0:30:1b:4d:a8:
         2a:c3:3a:03:a7:c8:b4:d1:fe:3c:a5:7b:a9:1a:bd:5e:42:21:
         f7:b0:09:17:ad:a7:aa:c2:45:68:cf:1f:1b:51:b1:ed:ec:1a:
         37:8f:b1:2d:f1:dd:c7:b6:68:a8:43:0f:2a:6d:60:ce:b3:81:
         db:4c:46:af:07:f3:9e:98:b2:d4:52:1d:8f:d7:38:4e:0d:82:
         c2:3e:6e:f9:8f:52:5a:25:1d:40:20:0e:6f:8e:d2:55:a2:ef:
         12:c0:ad:9d:8f:8a:6e:38:4a:6c:70:f6:85:b3:5f:6e:52:c2:
         dd:96:a7:88:cf:19:2e:cf:2e:fb:3c:52:75:30:20:90:ec:27:
         13:3d:c9:01:b1:bd:e3:dc:16:97:c0:a4:88:6f:e1:81:f3:95:
         b9:6d:7e:98:4d:11:7e:56:78:af:6e:e1:c9:d8:2d:f3:f1:38:
         5b:0c:5a:fa:b7:76:f4:05:ea:89:22:b5:11:da:30:d9:8a:a4:
         00:2a:cd:b2:43:68:04:44:7d:93:f7:e9:2b:ef:ad:84:84:7b:
         4f:b3:d8:f6:0f:d6:13:89:78:ef:3c:95:7f:c0:f3:c5:f1:81:
         72:f6:0c:50:96:4a:21:a3:4b:20:88:5d:a1:20:b3:9b:13:3b:
         50:3e:8b:65:ca:6f:8f:42:f8:64:ea:4d:39:24:f1:f2:66:4a:
         19:66:33:92:71:ba:42:18:08:4d:79:cb:01:3e:2a:60:e7:f4:
         c4:54:18:34:42:c1:3d:d0:da:b3:50:39:3a:34:3f:79:2c:d2:
         6b:be:ca:bf:0b:5a:d2:bf:8a:45:03:5b:fc:f1:e2:7f:be:bf:
         97:55:a0:ae:2b:5e:8b:c3
-----BEGIN CERTIFICATE-----
MIIGrTCCBJWgAwIBAgICIcQwDQYJKoZIhvcNAQELBQAwgawxCzAJBgNVBAYTAlVT
MQswCQYDVQQIEwJPSDERMA8GA1UEBxMIQ29sdW1idXMxEjAQBgNVBAoTCVZpa2lu
Z1ZQTjEdMBsGA1UECxMUTXlPcmdhbml6YXRpb25hbFVuaXQxFTATBgNVBAMTDFZp
a2luZ1ZQTiBDQTEQMA4GA1UEKRMHRWFzeVJTQTEhMB8GCSqGSIb3DQEJARYSbWVA
bXlob3N0Lm15ZG9tYWluMB4XDTE2MDczMTE5MTExMVoXDTI2MDcyOTE5MTExMVow
HzEdMBsGA1UEAxMUQ2xpZW50MTc5NkNlcnQ5NmVmZGYwggIiMA0GCSqGSIb3DQEB
AQUAA4ICDwAwggIKAoICAQC7Ob1FlDw6wxF4s2xrZbJuf0qcISC9RbhTgrPrxk4J
wPqC5epm+znh3Dr9LYVvkbcSFLpSrnVVDYEJYLth2KJGZE+qogkj9/pi+p36xp0j
WAQxVp1mfORXezTE1eWTdIz3HT34TFdwJJxlPs1PBtdLWJVIPXNjQdfH+4dI9b+V
SUvypX/zZYIhzEY11gdTLl1a1wGNpq+8FSV3fKEk3eKk5tMAdcOzM6krRCfq8emP
7d49+R8tjhKGYtk+tdsaPRQgXMqo+QEpoQe1IiDGFT+UczWL/sdx2PCHGv5cJfAP
UoDOB/sk4Pb82w+iip3DcqfeMsBxGw1tc/xlK2GB443BJDSziBudQnOlq69Mn1Sl
n8k+t07hrYxDWgVrs2boPQkoEvp96PMmtsqy1WdPbhVOXQMGgHJaQRYKGZje9VCs
ISytFjN9+9DUf4Ywo/Syz0i3azTOiLAKFGipQKOIUJjxvx8waYpbYsseYAINsJ4T
W9ggWVYURlAFvW2+V1lc8QPrlt+TJJQ/U2qONIhKBKQAIZldliC5J/+T2EpExoLP
A5Yv64ny5mjmewQNSCsUL1SpAvykH1mfYJNo5dpG954ct50m9rEXhlwFPswPexev
yuB17GIdXV6SA43vGxqFXI3WbYaaDFg07Nfl7qJaXaXBeDznYvLXsWjz4CrReggM
3QIDAQABo4IBYzCCAV8wCQYDVR0TBAIwADAtBglghkgBhvhCAQ0EIBYeRWFzeS1S
U0EgR2VuZXJhdGVkIENlcnRpZmljYXRlMB0GA1UdDgQWBBQfwDdIBU+kWZnUCgcg
6ix9Gvk7ojCB4QYDVR0jBIHZMIHWgBQSzWAE0qCAnnDtxpm4eyzGUv0ZoaGBsqSB
rzCBrDELMAkGA1UEBhMCVVMxCzAJBgNVBAgTAk9IMREwDwYDVQQHEwhDb2x1bWJ1
czESMBAGA1UEChMJVmlraW5nVlBOMR0wGwYDVQQLExRNeU9yZ2FuaXphdGlvbmFs
VW5pdDEVMBMGA1UEAxMMVmlraW5nVlBOIENBMRAwDgYDVQQpEwdFYXN5UlNBMSEw
HwYJKoZIhvcNAQkBFhJtZUBteWhvc3QubXlkb21haW6CCQDPNYXugL8qPjATBgNV
HSUEDDAKBggrBgEFBQcDAjALBgNVHQ8EBAMCB4AwDQYJKoZIhvcNAQELBQADggIB
AAoDbzx+yXWKDOIvyuPLy0/7JJ4S65wajhZCq9n7CEwEtozYEm5gTLYV3+k+AXc9
+RgAhp2kTxdUQtTKEdUg5FBpZseCCQB4OgN+Y9Qn2ZBQXznE1APVDtCQhozxA9Uv
vk5k6jusXvtYo4b5cYukr8lC/VhaA3QnhxH5EPoq+EjfqU794Tw2iEqocxxLmrge
Wf4uEUo5yJy8rqaA11LfCUtyv6yQP79cqZ+xMPk/mXd6FbmWgtMcjOfG5CD7pIPc
LRnQMBtNqCrDOgOnyLTR/jyle6kavV5CIfewCRetp6rCRWjPHxtRse3sGjePsS3x
3ce2aKhDDyptYM6zgdtMRq8H856YstRSHY/XOE4NgsI+bvmPUlolHUAgDm+O0lWi
7xLArZ2Pim44Smxw9oWzX25Swt2Wp4jPGS7PLvs8UnUwIJDsJxM9yQGxvePcFpfA
pIhv4YHzlbltfphNEX5WeK9u4cnYLfPxOFsMWvq3dvQF6okitRHaMNmKpAAqzbJD
aAREfZP36SvvrYSEe0+z2PYP1hOJeO88lX/A88XxgXL2DFCWSiGjSyCIXaEgs5sT
O1A+i2XKb49C+GTqTTkk8fJmShlmM5JxukIYCE15ywE+KmDn9MRUGDRCwT3Q2rNQ
OTo0P3ks0mu+yr8LWtK/ikUDW/zx4n++v5dVoK4rXovD
-----END CERTIFICATE-----
