Certificate:
    Data:
        Version: 3 (0x2)
        Serial Number: 11041 (0x2b21)
    Signature Algorithm: sha256WithRSAEncryption
        Issuer: C=US, ST=OH, L=Columbus, O=VikingVPN, OU=MyOrganizationalUnit, CN=VikingVPN CA/name=EasyRSA/emailAddress=me@myhost.mydomain
        Validity
            Not Before: May 29 11:28:51 2017 GMT
            Not After : May 27 11:28:51 2027 GMT
        Subject: CN=Client2935Cert1268fb
        Subject Public Key Info:
            Public Key Algorithm: rsaEncryption
                Public-Key: (4096 bit)
                Modulus:
                    00:9c:92:82:92:2d:75:fb:81:c4:92:ca:00:43:e4:
                    1a:11:f1:d3:84:bc:ba:cb:0d:c7:2a:36:42:6d:99:
                    7a:24:af:65:b5:76:1d:d3:79:e8:68:7d:da:f5:5e:
                    60:eb:4f:0c:66:15:f2:19:9f:60:86:49:e5:20:5f:
                    41:08:ba:8f:b4:a1:bb:88:81:48:be:b8:5c:6a:25:
                    c7:4a:53:6c:a4:e2:ed:f9:29:a0:8f:34:99:52:b4:
                    28:dc:e0:88:02:d8:74:03:3e:19:5e:ac:06:1f:ff:
                    27:67:92:87:3f:49:65:87:90:be:bb:c7:79:80:ba:
                    0e:b6:90:af:c4:d3:59:87:a0:55:91:7b:08:8a:2d:
                    fa:4f:ca:dc:49:cd:34:44:41:5a:c2:23:af:58:43:
                    cd:c4:81:b8:ac:c4:50:11:a8:be:8b:1f:d5:4c:24:
                    85:69:28:b0:d7:6d:f5:e9:93:0a:b8:a6:ab:b9:89:
                    85:4c:4b:68:f9:c3:8c:b5:4a:2c:5a:31:2c:6c:d6:
                    ee:41:2e:91:b4:e6:e8:8d:fe:89:88:51:8a:bc:02:
                    4e:70:85:75:55:58:b7:73:39:7a:37:69:72:af:8e:
                    4f:b0:cf:e2:2b:1d:d7:a3:c1:0c:1f:e3:4e:3d:78:
                    ba:37:18:cf:40:0b:04:a3:7b:8a:41:d4:06:1f:a5:
                    84:33:3a:37:86:2d:a7:d2:ef:6c:d6:cc:83:d6:9a:
                    d5:55:9e:43:1f:12:5d:b5:2d:f7:12:ba:d6:94:cd:
                    4d:a6:72:c4:9d:90:98:12:88:65:fd:46:c3:02:d0:
                    8c:2e:5a:86:78:9d:db:c1:c3:00:f8:d8:81:69:ce:
                    27:81:b3:8d:0d:d7:ab:f4:c6:f6:94:e4:41:c1:69:
                    3f:0f:1d:30:b2:e3:5d:81:eb:ea:34:0b:cf:41:6c:
                    b2:bf:93:9e:ae:92:51:8d:25:42:84:2c:47:86:72:
                    2f:32:b5:72:eb:08:ca:c3:02:8c:48:7a:8f:30:2e:
                    3f:14:c8:60:72:99:30:50:4c:13:a1:27:51:71:9c:
                    28:a8:e5:34:1a:1c:9c:5c:96:67:fd:14:3c:28:15:
                    76:3b:c0:ff:92:8f:5e:23:d3:3a:6e:b9:3b:2b:1e:
                    74:b9:38:6d:d9:04:d1:54:1d:a5:cc:68:8c:57:a6:
                    9f:79:28:39:f2:58:de:b8:3e:06:51:c1:ad:b8:4c:
                    9d:37:2d:8a:85:5d:69:c4:29:07:be:dc:ea:4e:1b:
                    10:70:95:94:29:ae:25:fe:74:d6:0a:45:d1:ba:74:
                    ca:70:64:0c:9b:89:f2:55:10:b6:7b:e9:42:c9:1c:
                    e0:32:cb:2e:92:b0:7f:52:4a:a4:63:3a:a4:c5:2a:
                    ac:a0:7f
                Exponent: 65537 (0x10001)
        X509v3 extensions:
            X509v3 Basic Constraints: 
                CA:FALSE
            Netscape Comment: 
                Easy-RSA Generated Certificate
            X509v3 Subject Key Identifier: 
                48:08:B3:0B:E7:C9:69:6A:52:2F:7C:BF:5F:A8:67:21:EF:CA:98:EF
            X509v3 Authority Key Identifier: 
                keyid:12:CD:60:04:D2:A0:80:9E:70:ED:C6:99:B8:7B:2C:C6:52:FD:19:A1
                DirName:/C=US/ST=OH/L=Columbus/O=VikingVPN/OU=MyOrganizationalUnit/CN=VikingVPN CA/name=EasyRSA/emailAddress=me@myhost.mydomain
                serial:CF:35:85:EE:80:BF:2A:3E

            X509v3 Extended Key Usage: 
                TLS Web Client Authentication
            X509v3 Key Usage: 
                Digital Signature
    Signature Algorithm: sha256WithRSAEncryption
         ba:9c:a6:8a:b0:05:10:be:7f:ee:af:46:b2:7a:4f:67:4f:49:
         12:ee:cb:7d:28:02:93:f8:56:51:fc:3d:e0:3a:4d:eb:49:81:
         3f:e9:0b:11:dd:36:a5:4e:1b:0f:69:0f:a1:19:bf:b3:c9:d7:
         e4:e5:19:06:95:eb:d4:75:b0:e7:b4:66:f7:e5:a6:87:b2:10:
         51:cb:b0:5b:e9:67:21:35:52:5d:76:bb:bb:45:fa:57:9d:44:
         08:75:6f:c1:bc:eb:2a:41:1c:1e:ee:a1:37:8a:9c:b2:ca:c1:
         29:41:d1:41:65:78:b1:1c:88:83:e2:7a:a8:18:04:e6:80:89:
         6c:85:af:43:cb:9a:88:50:70:e4:14:8b:da:85:58:7a:38:f2:
         fb:6b:d9:ff:94:c7:27:93:20:01:3b:1a:fd:ea:d9:93:37:40:
         d2:74:3c:38:3b:15:aa:57:33:0b:bb:c3:81:18:61:9b:27:18:
         91:91:23:e3:8e:fa:91:4e:87:3b:d7:04:c6:7f:2b:3b:84:88:
         53:2a:23:4c:dc:79:ca:f6:1b:ff:53:0a:c5:98:1f:53:12:79:
         bf:63:43:fc:a9:d7:e1:9c:4a:83:3d:7e:7a:9f:9b:c2:ef:fa:
         48:dd:50:20:93:ef:39:99:de:ed:65:b7:19:23:a6:0d:ee:69:
         e6:44:0f:9a:90:be:be:eb:22:d9:b6:53:66:39:ec:af:df:00:
         fe:76:42:26:d4:62:49:92:25:64:14:73:60:ed:e5:af:3f:aa:
         d2:65:50:72:81:e8:19:88:c6:de:40:fd:df:b6:aa:8e:57:0c:
         f5:1f:6e:c4:11:7b:fb:0d:83:b8:48:9d:31:e3:1e:93:7e:83:
         33:ba:d0:5c:28:b3:81:9b:80:36:46:84:1a:4e:4b:ad:b3:83:
         35:07:47:17:3b:9e:ec:45:f4:f2:3a:7e:87:d1:21:9e:53:e7:
         65:7a:7d:83:98:55:07:b5:3a:25:1b:28:12:af:f7:ab:e4:1f:
         b8:2b:bd:ff:04:cf:dd:ef:60:a8:ff:36:c7:e4:61:06:76:f0:
         b0:78:a2:95:9b:e6:f5:80:0f:de:27:5d:07:ff:3d:36:20:d9:
         8f:9b:bb:18:0a:1c:57:3e:28:0e:e8:c6:2a:39:c8:58:9a:c3:
         da:82:8c:21:4e:29:a2:f2:f0:06:bb:ef:95:b2:64:32:85:b2:
         90:42:02:18:77:ec:17:80:dc:a0:ea:c3:6c:67:67:73:17:32:
         76:83:aa:97:c8:8a:2e:f5:85:f6:c2:90:cb:dc:db:84:6a:d2:
         f8:c6:b7:08:5a:5a:31:74:80:31:9b:51:16:64:84:e5:93:2b:
         ab:07:a5:4f:9e:d2:65:fc
-----BEGIN CERTIFICATE-----
MIIGrTCCBJWgAwIBAgICKyEwDQYJKoZIhvcNAQELBQAwgawxCzAJBgNVBAYTAlVT
MQswCQYDVQQIEwJPSDERMA8GA1UEBxMIQ29sdW1idXMxEjAQBgNVBAoTCVZpa2lu
Z1ZQTjEdMBsGA1UECxMUTXlPcmdhbml6YXRpb25hbFVuaXQxFTATBgNVBAMTDFZp
a2luZ1ZQTiBDQTEQMA4GA1UEKRMHRWFzeVJTQTEhMB8GCSqGSIb3DQEJARYSbWVA
bXlob3N0Lm15ZG9tYWluMB4XDTE3MDUyOTExMjg1MVoXDTI3MDUyNzExMjg1MVow
HzEdMBsGA1UEAxMUQ2xpZW50MjkzNUNlcnQxMjY4ZmIwggIiMA0GCSqGSIb3DQEB
AQUAA4ICDwAwggIKAoICAQCckoKSLXX7gcSSygBD5BoR8dOEvLrLDccqNkJtmXok
r2W1dh3Teehofdr1XmDrTwxmFfIZn2CGSeUgX0EIuo+0obuIgUi+uFxqJcdKU2yk
4u35KaCPNJlStCjc4IgC2HQDPhlerAYf/ydnkoc/SWWHkL67x3mAug62kK/E01mH
oFWRewiKLfpPytxJzTREQVrCI69YQ83EgbisxFARqL6LH9VMJIVpKLDXbfXpkwq4
pqu5iYVMS2j5w4y1SixaMSxs1u5BLpG05uiN/omIUYq8Ak5whXVVWLdzOXo3aXKv
jk+wz+IrHdejwQwf4049eLo3GM9ACwSje4pB1AYfpYQzOjeGLafS72zWzIPWmtVV
nkMfEl21LfcSutaUzU2mcsSdkJgSiGX9RsMC0IwuWoZ4ndvBwwD42IFpzieBs40N
16v0xvaU5EHBaT8PHTCy412B6+o0C89BbLK/k56uklGNJUKELEeGci8ytXLrCMrD
AoxIeo8wLj8UyGBymTBQTBOhJ1FxnCio5TQaHJxclmf9FDwoFXY7wP+Sj14j0zpu
uTsrHnS5OG3ZBNFUHaXMaIxXpp95KDnyWN64PgZRwa24TJ03LYqFXWnEKQe+3OpO
GxBwlZQpriX+dNYKRdG6dMpwZAybifJVELZ76ULJHOAyyy6SsH9SSqRjOqTFKqyg
fwIDAQABo4IBYzCCAV8wCQYDVR0TBAIwADAtBglghkgBhvhCAQ0EIBYeRWFzeS1S
U0EgR2VuZXJhdGVkIENlcnRpZmljYXRlMB0GA1UdDgQWBBRICLML58lpalIvfL9f
qGch78qY7zCB4QYDVR0jBIHZMIHWgBQSzWAE0qCAnnDtxpm4eyzGUv0ZoaGBsqSB
rzCBrDELMAkGA1UEBhMCVVMxCzAJBgNVBAgTAk9IMREwDwYDVQQHEwhDb2x1bWJ1
czESMBAGA1UEChMJVmlraW5nVlBOMR0wGwYDVQQLExRNeU9yZ2FuaXphdGlvbmFs
VW5pdDEVMBMGA1UEAxMMVmlraW5nVlBOIENBMRAwDgYDVQQpEwdFYXN5UlNBMSEw
HwYJKoZIhvcNAQkBFhJtZUBteWhvc3QubXlkb21haW6CCQDPNYXugL8qPjATBgNV
HSUEDDAKBggrBgEFBQcDAjALBgNVHQ8EBAMCB4AwDQYJKoZIhvcNAQELBQADggIB
ALqcpoqwBRC+f+6vRrJ6T2dPSRLuy30oApP4VlH8PeA6TetJgT/pCxHdNqVOGw9p
D6EZv7PJ1+TlGQaV69R1sOe0ZvflpoeyEFHLsFvpZyE1Ul12u7tF+ledRAh1b8G8
6ypBHB7uoTeKnLLKwSlB0UFleLEciIPieqgYBOaAiWyFr0PLmohQcOQUi9qFWHo4
8vtr2f+UxyeTIAE7Gv3q2ZM3QNJ0PDg7FapXMwu7w4EYYZsnGJGRI+OO+pFOhzvX
BMZ/KzuEiFMqI0zcecr2G/9TCsWYH1MSeb9jQ/yp1+GcSoM9fnqfm8Lv+kjdUCCT
7zmZ3u1ltxkjpg3uaeZED5qQvr7rItm2U2Y57K/fAP52QibUYkmSJWQUc2Dt5a8/
qtJlUHKB6BmIxt5A/d+2qo5XDPUfbsQRe/sNg7hInTHjHpN+gzO60Fwos4GbgDZG
hBpOS62zgzUHRxc7nuxF9PI6fofRIZ5T52V6fYOYVQe1OiUbKBKv96vkH7grvf8E
z93vYKj/NsfkYQZ28LB4opWb5vWAD94nXQf/PTYg2Y+buxgKHFc+KA7oxio5yFia
w9qCjCFOKaLy8Aa775WyZDKFspBCAhh37BeA3KDqw2xnZ3MXMnaDqpfIii71hfbC
kMvc24Rq0vjGtwhaWjF0gDGbURZkhOWTK6sHpU+e0mX8
-----END CERTIFICATE-----
