Certificate:
    Data:
        Version: 3 (0x2)
        Serial Number: 6531 (0x1983)
    Signature Algorithm: md5WithRSAEncryption
        Issuer: C=US, ST=OH, L=Columbus, O=VikingVPN, OU=MyOrganizationalUnit, CN=VikingVPN CA/name=EasyRSA/emailAddress=me@myhost.mydomain
        Validity
            Not Before: Oct 21 14:04:08 2015 GMT
            Not After : Oct 18 14:04:08 2025 GMT
        Subject: CN=Client2011Cert820d12
        Subject Public Key Info:
            Public Key Algorithm: rsaEncryption
                Public-Key: (4096 bit)
                Modulus:
                    00:cb:c6:25:74:30:d5:12:a0:24:1d:8d:78:a5:5d:
                    b4:8f:3f:26:13:0e:16:bc:96:ab:5b:fe:66:b6:0d:
                    2a:e6:49:c2:bf:3e:a1:1d:06:58:b8:78:95:8d:0b:
                    c9:62:5b:07:26:35:35:b4:7a:26:0c:2c:64:73:fc:
                    df:69:83:58:71:87:5e:aa:0e:3f:a5:55:c4:1c:59:
                    b9:d5:3a:f1:74:97:a2:b8:cc:da:cc:75:58:53:17:
                    03:ec:7b:e0:06:e3:f8:a4:6f:7d:1d:d9:03:dd:6d:
                    62:53:d7:68:5c:db:cf:6f:95:de:da:af:15:d8:83:
                    c9:f4:5a:31:dd:f2:59:fe:87:a2:ee:94:12:6a:b1:
                    a6:22:d2:04:e7:f5:fa:52:b3:98:02:88:89:05:3f:
                    93:26:33:e4:fc:8a:a6:86:42:33:51:57:86:f5:02:
                    4e:74:ff:2c:68:d8:2c:89:68:7f:d0:fb:22:12:b5:
                    88:4a:5e:dc:8a:2b:54:96:af:02:79:de:2c:e6:ab:
                    52:fe:39:eb:8d:ce:c2:4d:a6:e3:e7:f2:28:7b:2e:
                    e7:4f:37:c2:0c:02:2d:13:13:52:be:23:22:c8:ce:
                    30:97:6b:6b:3b:0d:a7:cf:b9:f4:96:57:7c:6c:c8:
                    79:b2:0f:24:3b:3d:42:3d:43:45:13:23:0a:3a:36:
                    b2:d2:20:13:ea:09:d3:50:5e:41:25:cd:9f:9f:48:
                    a8:69:cb:df:51:96:67:b1:96:13:c6:2f:da:c3:42:
                    20:2a:ca:20:e0:42:72:3b:93:6e:21:81:e9:d9:80:
                    de:0a:18:8e:75:8d:05:17:64:02:63:9f:8a:29:c3:
                    dc:29:a1:9a:13:de:f1:88:7b:86:f1:dc:40:1f:8f:
                    fb:9a:c3:0e:89:75:7b:e0:9a:5c:71:d3:7d:bb:08:
                    39:4a:18:73:f9:f3:b5:1a:2b:33:ba:3b:c5:83:a8:
                    2b:44:70:a8:21:39:0e:f9:de:29:cb:56:67:dc:1c:
                    af:bf:bf:af:d7:dd:8a:9b:b7:bb:16:e4:eb:78:57:
                    37:df:70:97:bb:60:21:3b:69:e6:c3:8c:4c:c2:54:
                    5b:39:98:0b:5b:79:97:1a:cd:bb:00:ca:ef:17:d1:
                    c2:14:e0:4c:0a:81:20:b4:46:bf:bc:ad:9c:84:dd:
                    c1:20:59:83:27:a0:16:ee:71:a5:8a:a4:1b:9e:6c:
                    a1:94:63:1c:23:70:7d:eb:64:e7:93:17:8a:77:22:
                    bc:f1:31:61:dd:00:38:09:d9:b7:40:c7:39:54:7d:
                    32:3b:31:77:02:29:23:51:99:30:4f:83:86:ea:9f:
                    bb:8a:85:a8:85:7e:ac:f0:33:e8:ec:ef:df:b9:fa:
                    a1:f9:2b
                Exponent: 65537 (0x10001)
        X509v3 extensions:
            X509v3 Basic Constraints: 
                CA:FALSE
            Netscape Comment: 
                Easy-RSA Generated Certificate
            X509v3 Subject Key Identifier: 
                7A:E9:70:F3:9B:91:E0:E2:30:F8:28:61:F4:06:E6:69:90:9D:B3:D5
            X509v3 Authority Key Identifier: 
                keyid:12:CD:60:04:D2:A0:80:9E:70:ED:C6:99:B8:7B:2C:C6:52:FD:19:A1
                DirName:/C=US/ST=OH/L=Columbus/O=VikingVPN/OU=MyOrganizationalUnit/CN=VikingVPN CA/name=EasyRSA/emailAddress=me@myhost.mydomain
                serial:CF:35:85:EE:80:BF:2A:3E

            X509v3 Extended Key Usage: 
                TLS Web Client Authentication
            X509v3 Key Usage: 
                Digital Signature
    Signature Algorithm: md5WithRSAEncryption
         92:b4:30:14:cd:da:e8:26:6d:6d:90:b0:68:ae:ab:55:e5:27:
         1e:21:7a:96:cf:cd:c9:17:05:79:5c:27:2e:16:d9:5c:8b:40:
         19:08:0c:11:7a:ce:8f:1c:83:12:7e:a7:11:3c:18:57:7f:b9:
         96:0b:ac:ed:2b:d5:7e:61:07:be:8c:f4:90:0e:17:ea:fc:16:
         03:fe:78:de:12:0b:9f:ab:56:70:ad:9c:e3:7f:f5:cd:e7:50:
         4a:5e:81:04:c9:0a:97:70:31:4c:92:9a:de:c5:7e:f4:b9:2f:
         f6:f9:3a:be:5b:5c:3b:71:be:c1:90:e2:d9:7d:36:14:50:ba:
         ad:7d:bf:db:97:1b:a2:da:69:fe:d6:a3:02:57:7e:76:16:ac:
         cf:44:fc:4d:a7:61:ea:61:54:d9:10:f9:cb:6c:a1:b0:a5:e1:
         2c:a3:ed:74:45:38:e2:5a:ec:e2:b2:a0:02:42:0e:d9:7f:49:
         bb:90:bb:ba:f2:54:84:af:47:4e:28:75:85:eb:88:7a:aa:b5:
         a7:02:d7:74:87:d6:4f:9a:34:6c:36:79:1a:17:f5:85:42:c4:
         3c:77:42:6f:81:0f:15:66:be:b8:cb:7c:a4:ce:1c:57:d4:77:
         81:f5:22:7f:65:a0:34:e2:07:43:45:c4:6c:df:be:4e:73:05:
         bd:db:33:9e:80:56:cd:31:2c:18:e3:36:f0:6a:29:0d:96:a4:
         49:51:9f:27:10:6b:da:ba:3d:ab:5a:e1:dd:12:55:d3:f1:06:
         f5:10:dc:e8:cc:81:21:d1:01:78:cb:f6:04:33:a1:29:b6:b3:
         47:5d:aa:95:15:4d:0d:6a:9c:2a:46:ab:3d:02:28:43:df:7b:
         46:a6:3d:05:10:3d:36:b3:db:0a:4a:93:d2:5a:91:ee:2f:b5:
         ae:22:30:a7:66:52:2f:73:f1:a0:b5:b5:3c:66:5c:6a:35:86:
         f4:c5:2e:b7:24:2f:92:43:41:35:36:bb:54:b5:60:28:a8:77:
         01:d5:09:2f:65:75:fa:b8:a3:55:92:41:0a:76:b0:e5:ff:f7:
         1a:2e:fc:6a:0a:89:9f:c2:0f:a5:6b:d3:55:63:58:89:ec:dc:
         44:21:9d:c4:4a:fd:4b:cf:17:2e:c9:9f:90:34:84:4d:33:5b:
         35:42:6e:84:14:4a:26:12:a5:cf:67:a2:50:30:13:41:16:05:
         37:89:9a:36:09:1a:f6:9f:52:e7:cc:41:f1:22:ee:12:57:1e:
         a2:3c:78:42:84:ac:a2:08:cc:b8:f1:5f:f2:bb:ec:8e:73:49:
         f5:17:4d:9a:73:6b:cf:fd:ff:71:6a:74:76:8e:0d:b7:9e:92:
         5c:c8:55:50:2e:be:d0:ad
-----BEGIN CERTIFICATE-----
MIIGrTCCBJWgAwIBAgICGYMwDQYJKoZIhvcNAQEEBQAwgawxCzAJBgNVBAYTAlVT
MQswCQYDVQQIEwJPSDERMA8GA1UEBxMIQ29sdW1idXMxEjAQBgNVBAoTCVZpa2lu
Z1ZQTjEdMBsGA1UECxMUTXlPcmdhbml6YXRpb25hbFVuaXQxFTATBgNVBAMTDFZp
a2luZ1ZQTiBDQTEQMA4GA1UEKRMHRWFzeVJTQTEhMB8GCSqGSIb3DQEJARYSbWVA
bXlob3N0Lm15ZG9tYWluMB4XDTE1MTAyMTE0MDQwOFoXDTI1MTAxODE0MDQwOFow
HzEdMBsGA1UEAxMUQ2xpZW50MjAxMUNlcnQ4MjBkMTIwggIiMA0GCSqGSIb3DQEB
AQUAA4ICDwAwggIKAoICAQDLxiV0MNUSoCQdjXilXbSPPyYTDha8lqtb/ma2DSrm
ScK/PqEdBli4eJWNC8liWwcmNTW0eiYMLGRz/N9pg1hxh16qDj+lVcQcWbnVOvF0
l6K4zNrMdVhTFwPse+AG4/ikb30d2QPdbWJT12hc289vld7arxXYg8n0WjHd8ln+
h6LulBJqsaYi0gTn9fpSs5gCiIkFP5MmM+T8iqaGQjNRV4b1Ak50/yxo2CyJaH/Q
+yIStYhKXtyKK1SWrwJ53izmq1L+OeuNzsJNpuPn8ih7LudPN8IMAi0TE1K+IyLI
zjCXa2s7DafPufSWV3xsyHmyDyQ7PUI9Q0UTIwo6NrLSIBPqCdNQXkElzZ+fSKhp
y99RlmexlhPGL9rDQiAqyiDgQnI7k24hgenZgN4KGI51jQUXZAJjn4opw9wpoZoT
3vGIe4bx3EAfj/uaww6JdXvgmlxx0327CDlKGHP587UaKzO6O8WDqCtEcKghOQ75
3inLVmfcHK+/v6/X3Yqbt7sW5Ot4VzffcJe7YCE7aebDjEzCVFs5mAtbeZcazbsA
yu8X0cIU4EwKgSC0Rr+8rZyE3cEgWYMnoBbucaWKpBuebKGUYxwjcH3rZOeTF4p3
IrzxMWHdADgJ2bdAxzlUfTI7MXcCKSNRmTBPg4bqn7uKhaiFfqzwM+js79+5+qH5
KwIDAQABo4IBYzCCAV8wCQYDVR0TBAIwADAtBglghkgBhvhCAQ0EIBYeRWFzeS1S
U0EgR2VuZXJhdGVkIENlcnRpZmljYXRlMB0GA1UdDgQWBBR66XDzm5Hg4jD4KGH0
BuZpkJ2z1TCB4QYDVR0jBIHZMIHWgBQSzWAE0qCAnnDtxpm4eyzGUv0ZoaGBsqSB
rzCBrDELMAkGA1UEBhMCVVMxCzAJBgNVBAgTAk9IMREwDwYDVQQHEwhDb2x1bWJ1
czESMBAGA1UEChMJVmlraW5nVlBOMR0wGwYDVQQLExRNeU9yZ2FuaXphdGlvbmFs
VW5pdDEVMBMGA1UEAxMMVmlraW5nVlBOIENBMRAwDgYDVQQpEwdFYXN5UlNBMSEw
HwYJKoZIhvcNAQkBFhJtZUBteWhvc3QubXlkb21haW6CCQDPNYXugL8qPjATBgNV
HSUEDDAKBggrBgEFBQcDAjALBgNVHQ8EBAMCB4AwDQYJKoZIhvcNAQEEBQADggIB
AJK0MBTN2ugmbW2QsGiuq1XlJx4hepbPzckXBXlcJy4W2VyLQBkIDBF6zo8cgxJ+
pxE8GFd/uZYLrO0r1X5hB76M9JAOF+r8FgP+eN4SC5+rVnCtnON/9c3nUEpegQTJ
CpdwMUySmt7FfvS5L/b5Or5bXDtxvsGQ4tl9NhRQuq19v9uXG6Laaf7WowJXfnYW
rM9E/E2nYephVNkQ+ctsobCl4Syj7XRFOOJa7OKyoAJCDtl/SbuQu7ryVISvR04o
dYXriHqqtacC13SH1k+aNGw2eRoX9YVCxDx3Qm+BDxVmvrjLfKTOHFfUd4H1In9l
oDTiB0NFxGzfvk5zBb3bM56AVs0xLBjjNvBqKQ2WpElRnycQa9q6Pata4d0SVdPx
BvUQ3OjMgSHRAXjL9gQzoSm2s0ddqpUVTQ1qnCpGqz0CKEPfe0amPQUQPTaz2wpK
k9Jake4vta4iMKdmUi9z8aC1tTxmXGo1hvTFLrckL5JDQTU2u1S1YCiodwHVCS9l
dfq4o1WSQQp2sOX/9xou/GoKiZ/CD6Vr01VjWIns3EQhncRK/UvPFy7Jn5A0hE0z
WzVCboQUSiYSpc9nolAwE0EWBTeJmjYJGvafUufMQfEi7hJXHqI8eEKErKIIzLjx
X/K77I5zSfUXTZpza8/9/3FqdHaODbeeklzIVVAuvtCt
-----END CERTIFICATE-----
