Certificate:
    Data:
        Version: 3 (0x2)
        Serial Number: 10360 (0x2878)
    Signature Algorithm: sha256WithRSAEncryption
        Issuer: C=US, ST=OH, L=Columbus, O=VikingVPN, OU=MyOrganizationalUnit, CN=VikingVPN CA/name=EasyRSA/emailAddress=me@myhost.mydomain
        Validity
            Not Before: Mar 23 18:16:01 2017 GMT
            Not After : Mar 21 18:16:01 2027 GMT
        Subject: CN=Client2786Cert2df4ff
        Subject Public Key Info:
            Public Key Algorithm: rsaEncryption
                Public-Key: (4096 bit)
                Modulus:
                    00:9f:f8:8d:89:f3:aa:e7:89:85:e7:3b:1d:bd:77:
                    7d:bd:a3:65:8e:b2:5e:f5:fc:3d:53:71:4e:07:8c:
                    c1:36:85:61:a4:09:59:dc:9f:c3:3a:78:0a:31:67:
                    03:98:10:17:60:9b:fc:4a:12:db:47:b1:c7:ba:66:
                    e1:3a:15:6b:e8:b8:8f:97:a9:9b:b0:b1:17:13:b6:
                    68:74:5a:36:9f:b6:42:19:0a:ed:a3:35:24:3a:c6:
                    e5:be:9f:73:14:19:59:7d:8e:b2:ca:3a:9e:6a:6a:
                    cb:c7:27:af:52:26:78:5c:11:ea:19:34:12:5a:7b:
                    99:29:24:f9:f7:e4:32:83:d5:68:29:3a:77:b1:c2:
                    d1:b0:89:ab:7e:9c:81:5a:85:13:a9:1e:1b:25:cf:
                    f8:56:95:26:3f:0c:13:33:4b:c5:7a:7a:66:97:e0:
                    5f:41:b8:bb:74:a1:f9:8b:22:87:7d:d4:43:78:17:
                    18:3d:34:57:3f:b3:75:70:02:2c:fe:b3:f8:67:3a:
                    d3:92:21:a5:7c:36:79:ed:ab:50:09:6c:e4:8e:d2:
                    31:14:02:b8:e9:3b:6c:49:dd:c3:97:59:c4:64:95:
                    99:93:0e:72:10:84:93:ed:06:db:d9:56:07:2e:7b:
                    20:a9:a5:a6:7c:26:0b:d5:e2:54:b1:60:bd:79:07:
                    8c:11:e4:6c:05:0c:c8:72:c8:af:bf:c9:71:7f:90:
                    bd:27:65:af:26:f0:14:ed:b3:98:1a:7b:23:c8:6c:
                    4b:03:fb:c4:76:ee:8b:6b:b0:ba:53:11:10:05:10:
                    21:29:bb:58:63:e2:8d:35:3e:e7:09:9b:fd:aa:88:
                    83:64:06:a6:33:bc:b9:2e:3e:6a:6e:3a:3d:16:0d:
                    eb:93:d9:e2:b5:0a:74:cd:74:66:32:2c:97:66:61:
                    a4:ba:d5:90:fe:51:03:1d:d8:09:97:19:ba:9e:52:
                    39:2e:36:24:36:58:87:e3:9e:f0:27:d1:52:09:eb:
                    9b:19:c1:31:36:62:32:42:3a:0c:eb:ea:e2:d0:f9:
                    04:a0:f9:bb:92:cf:dd:dd:30:24:2a:91:33:32:63:
                    20:91:e9:5c:d9:39:a9:36:73:5b:4d:a6:19:8b:12:
                    e4:62:6f:a4:af:a1:41:53:34:6a:1e:cc:7d:55:1d:
                    7b:40:37:55:59:f1:72:7c:60:63:a7:0c:75:42:0b:
                    f0:1e:27:c1:a3:b4:0d:8b:64:92:d7:29:bb:6a:80:
                    c5:da:2b:3d:0d:f2:8b:f5:da:5e:68:56:24:e5:d9:
                    c8:87:13:6e:2d:90:58:bd:3d:26:2e:f0:51:68:c2:
                    60:ab:9c:dc:7f:5f:23:35:cd:57:7e:7e:47:33:f7:
                    07:66:e9
                Exponent: 65537 (0x10001)
        X509v3 extensions:
            X509v3 Basic Constraints: 
                CA:FALSE
            Netscape Comment: 
                Easy-RSA Generated Certificate
            X509v3 Subject Key Identifier: 
                80:71:1A:E9:3E:C4:2C:61:E4:68:97:63:A4:04:EB:88:49:00:47:81
            X509v3 Authority Key Identifier: 
                keyid:12:CD:60:04:D2:A0:80:9E:70:ED:C6:99:B8:7B:2C:C6:52:FD:19:A1
                DirName:/C=US/ST=OH/L=Columbus/O=VikingVPN/OU=MyOrganizationalUnit/CN=VikingVPN CA/name=EasyRSA/emailAddress=me@myhost.mydomain
                serial:CF:35:85:EE:80:BF:2A:3E

            X509v3 Extended Key Usage: 
                TLS Web Client Authentication
            X509v3 Key Usage: 
                Digital Signature
    Signature Algorithm: sha256WithRSAEncryption
         47:29:5d:4c:0f:36:c4:1e:d2:82:69:eb:02:31:03:da:c0:4c:
         e9:43:13:57:ca:31:93:2d:0d:87:ab:6c:47:cf:8a:ae:a2:b3:
         59:14:d3:eb:20:95:37:96:a9:4d:a3:0d:49:c8:e7:ef:aa:66:
         8f:52:e8:18:36:c6:b8:6b:f5:fd:e4:c1:f2:b0:98:ad:df:1b:
         25:e7:39:0b:1b:23:00:bd:ca:3d:43:e7:7e:7f:8c:85:84:8f:
         ec:af:b1:f5:83:95:8c:98:65:78:cf:46:55:fb:b7:9d:b2:58:
         3f:cf:02:f8:9e:b0:68:18:f7:fa:48:4c:d6:78:23:bc:fb:33:
         ac:4d:b8:70:dc:66:88:77:7c:83:b6:95:01:24:b1:89:bb:66:
         32:2f:cd:61:fe:65:8c:61:31:e7:9c:f6:c2:58:01:9d:55:42:
         01:c7:7e:19:6c:37:f8:5d:0a:2b:64:ad:58:4c:b8:16:1b:29:
         85:be:03:fa:3b:cd:35:b0:1d:51:7d:c9:f7:cf:13:12:5e:3d:
         9b:88:28:3b:4f:65:b6:28:d1:17:e2:ac:10:b2:bb:68:2d:28:
         cb:b9:e1:db:b9:35:33:a0:fc:93:06:3b:2b:9f:c9:4a:eb:8e:
         33:e2:d0:28:3d:88:65:57:0c:7d:53:64:33:bf:8e:22:5a:2f:
         00:a2:c6:7e:10:0d:76:35:2c:f5:27:48:43:79:26:72:2e:ce:
         bd:33:76:10:01:49:43:11:82:57:1f:f2:3e:4a:52:4e:29:76:
         26:96:95:88:23:b1:36:82:df:3f:4b:37:d5:28:f9:90:d8:ea:
         4d:18:66:28:aa:f6:9f:db:79:1e:79:f6:bb:67:d7:c6:6d:e1:
         da:67:26:ec:a3:59:38:1f:17:fb:9f:03:58:b7:1e:ea:a8:32:
         22:ee:f1:82:39:b6:3c:69:c5:8f:62:62:36:a1:23:c6:58:b5:
         de:f9:72:cf:27:f0:0d:52:d7:a2:47:6f:5e:37:2b:a9:ed:43:
         a2:4a:4b:91:75:8f:18:52:74:49:ee:84:4e:7f:19:e2:7c:78:
         f0:be:12:e3:5a:73:6d:ce:d9:a1:7c:e3:41:d0:d2:b9:d3:97:
         1d:81:d4:90:da:44:e1:f6:f7:d2:93:43:e5:a3:54:10:a0:76:
         d8:3f:8a:c8:89:fa:30:3f:39:b9:f5:4a:08:ad:cf:62:e3:0a:
         1c:0f:47:90:ed:ee:f6:d3:a4:b5:a5:a6:7c:20:af:56:21:7a:
         fc:0e:de:eb:af:0f:ef:9b:9c:d2:c1:fa:a2:84:40:18:fc:45:
         07:6f:e1:63:c2:03:e7:e9:94:91:0a:b4:e0:23:b2:ab:5c:6f:
         62:cb:b3:c1:57:7d:b3:42
-----BEGIN CERTIFICATE-----
MIIGrTCCBJWgAwIBAgICKHgwDQYJKoZIhvcNAQELBQAwgawxCzAJBgNVBAYTAlVT
MQswCQYDVQQIEwJPSDERMA8GA1UEBxMIQ29sdW1idXMxEjAQBgNVBAoTCVZpa2lu
Z1ZQTjEdMBsGA1UECxMUTXlPcmdhbml6YXRpb25hbFVuaXQxFTATBgNVBAMTDFZp
a2luZ1ZQTiBDQTEQMA4GA1UEKRMHRWFzeVJTQTEhMB8GCSqGSIb3DQEJARYSbWVA
bXlob3N0Lm15ZG9tYWluMB4XDTE3MDMyMzE4MTYwMVoXDTI3MDMyMTE4MTYwMVow
HzEdMBsGA1UEAxMUQ2xpZW50Mjc4NkNlcnQyZGY0ZmYwggIiMA0GCSqGSIb3DQEB
AQUAA4ICDwAwggIKAoICAQCf+I2J86rniYXnOx29d329o2WOsl71/D1TcU4HjME2
hWGkCVncn8M6eAoxZwOYEBdgm/xKEttHsce6ZuE6FWvouI+XqZuwsRcTtmh0Wjaf
tkIZCu2jNSQ6xuW+n3MUGVl9jrLKOp5qasvHJ69SJnhcEeoZNBJae5kpJPn35DKD
1WgpOnexwtGwiat+nIFahROpHhslz/hWlSY/DBMzS8V6emaX4F9BuLt0ofmLIod9
1EN4Fxg9NFc/s3VwAiz+s/hnOtOSIaV8Nnntq1AJbOSO0jEUArjpO2xJ3cOXWcRk
lZmTDnIQhJPtBtvZVgcueyCppaZ8JgvV4lSxYL15B4wR5GwFDMhyyK+/yXF/kL0n
Za8m8BTts5gaeyPIbEsD+8R27otrsLpTERAFECEpu1hj4o01PucJm/2qiINkBqYz
vLkuPmpuOj0WDeuT2eK1CnTNdGYyLJdmYaS61ZD+UQMd2AmXGbqeUjkuNiQ2WIfj
nvAn0VIJ65sZwTE2YjJCOgzr6uLQ+QSg+buSz93dMCQqkTMyYyCR6VzZOak2c1tN
phmLEuRib6SvoUFTNGoezH1VHXtAN1VZ8XJ8YGOnDHVCC/AeJ8GjtA2LZJLXKbtq
gMXaKz0N8ov12l5oViTl2ciHE24tkFi9PSYu8FFowmCrnNx/XyM1zVd+fkcz9wdm
6QIDAQABo4IBYzCCAV8wCQYDVR0TBAIwADAtBglghkgBhvhCAQ0EIBYeRWFzeS1S
U0EgR2VuZXJhdGVkIENlcnRpZmljYXRlMB0GA1UdDgQWBBSAcRrpPsQsYeRol2Ok
BOuISQBHgTCB4QYDVR0jBIHZMIHWgBQSzWAE0qCAnnDtxpm4eyzGUv0ZoaGBsqSB
rzCBrDELMAkGA1UEBhMCVVMxCzAJBgNVBAgTAk9IMREwDwYDVQQHEwhDb2x1bWJ1
czESMBAGA1UEChMJVmlraW5nVlBOMR0wGwYDVQQLExRNeU9yZ2FuaXphdGlvbmFs
VW5pdDEVMBMGA1UEAxMMVmlraW5nVlBOIENBMRAwDgYDVQQpEwdFYXN5UlNBMSEw
HwYJKoZIhvcNAQkBFhJtZUBteWhvc3QubXlkb21haW6CCQDPNYXugL8qPjATBgNV
HSUEDDAKBggrBgEFBQcDAjALBgNVHQ8EBAMCB4AwDQYJKoZIhvcNAQELBQADggIB
AEcpXUwPNsQe0oJp6wIxA9rATOlDE1fKMZMtDYerbEfPiq6is1kU0+sglTeWqU2j
DUnI5++qZo9S6Bg2xrhr9f3kwfKwmK3fGyXnOQsbIwC9yj1D535/jIWEj+yvsfWD
lYyYZXjPRlX7t52yWD/PAviesGgY9/pITNZ4I7z7M6xNuHDcZoh3fIO2lQEksYm7
ZjIvzWH+ZYxhMeec9sJYAZ1VQgHHfhlsN/hdCitkrVhMuBYbKYW+A/o7zTWwHVF9
yffPExJePZuIKDtPZbYo0RfirBCyu2gtKMu54du5NTOg/JMGOyufyUrrjjPi0Cg9
iGVXDH1TZDO/jiJaLwCixn4QDXY1LPUnSEN5JnIuzr0zdhABSUMRglcf8j5KUk4p
diaWlYgjsTaC3z9LN9Uo+ZDY6k0YZiiq9p/beR559rtn18Zt4dpnJuyjWTgfF/uf
A1i3HuqoMiLu8YI5tjxpxY9iYjahI8ZYtd75cs8n8A1S16JHb143K6ntQ6JKS5F1
jxhSdEnuhE5/GeJ8ePC+EuNac23O2aF840HQ0rnTlx2B1JDaROH299KTQ+WjVBCg
dtg/isiJ+jA/Obn1Sgitz2LjChwPR5Dt7vbTpLWlpnwgr1YhevwO3uuvD++bnNLB
+qKEQBj8RQdv4WPCA+fplJEKtOAjsqtcb2LLs8FXfbNC
-----END CERTIFICATE-----
