Certificate:
    Data:
        Version: 3 (0x2)
        Serial Number: 10851 (0x2a63)
    Signature Algorithm: sha256WithRSAEncryption
        Issuer: C=US, ST=OH, L=Columbus, O=VikingVPN, OU=MyOrganizationalUnit, CN=VikingVPN CA/name=EasyRSA/emailAddress=me@myhost.mydomain
        Validity
            Not Before: May  1 01:44:30 2017 GMT
            Not After : Apr 29 01:44:30 2027 GMT
        Subject: CN=Client2887Cert94999e
        Subject Public Key Info:
            Public Key Algorithm: rsaEncryption
                Public-Key: (4096 bit)
                Modulus:
                    00:b5:20:d7:27:05:70:c7:ce:d4:2d:aa:6a:1e:e8:
                    26:cb:d4:0e:3b:30:40:6c:5e:22:8e:cd:77:ac:a5:
                    d2:9d:ac:4d:64:c7:05:ba:92:39:16:a7:91:ac:cc:
                    f6:50:c8:a1:16:6d:57:c8:61:9e:86:75:44:1b:b0:
                    8a:8e:f5:44:c9:a1:d3:f1:cd:70:3f:07:06:21:0d:
                    1e:29:2c:6e:ce:7f:b8:8f:04:2b:bd:fa:78:63:c4:
                    07:33:e3:b4:30:c9:3c:54:e8:55:e2:07:e4:be:87:
                    27:2b:98:2a:2c:51:1e:2c:7c:aa:ce:e3:a5:f8:27:
                    b7:5f:e5:60:53:6c:a2:50:73:4a:a3:d0:7a:8f:69:
                    82:4b:2c:f6:45:24:de:45:5c:49:95:23:57:3b:57:
                    5a:c2:82:cb:9f:3c:f7:a3:bd:a4:40:c3:ba:79:c8:
                    db:74:e2:98:3b:76:00:0c:a8:71:3d:c4:a6:9d:e6:
                    05:33:7f:4d:78:48:32:57:9b:d3:4d:44:cb:39:79:
                    a0:fb:98:86:ae:9e:94:23:a3:ee:93:0a:3b:8b:e0:
                    e5:9b:43:4c:36:c6:36:88:0e:09:e8:d9:d1:4d:4d:
                    aa:98:0e:36:de:ce:61:0e:70:d6:36:ba:a0:75:25:
                    c4:0f:51:75:ef:44:3f:95:e5:ed:ed:5e:eb:65:59:
                    12:57:3f:e2:65:2d:2f:e0:76:bc:42:1d:a1:cb:de:
                    3a:6c:33:da:9a:47:69:b2:6d:46:88:89:d6:c4:8e:
                    e7:ae:c7:e1:76:28:5a:9a:12:2f:96:b3:b7:f7:82:
                    21:89:2c:1e:3b:2a:bf:59:e6:22:cc:99:09:83:55:
                    a9:0e:fe:fe:fa:88:5f:bd:b4:5a:80:69:fd:57:1f:
                    ab:a1:fb:b5:90:79:c8:df:d5:84:8e:68:26:18:b7:
                    6f:2b:a1:b0:19:03:53:67:a6:6f:17:12:0c:6f:e8:
                    40:77:0b:32:4f:4c:0c:44:7d:91:87:28:3e:cd:80:
                    74:30:58:83:0f:95:6c:d4:82:6f:a1:23:00:f2:54:
                    e2:f6:a7:d8:15:5b:45:7a:67:93:88:f8:d7:78:7a:
                    40:d0:65:97:58:d0:8a:32:b5:34:e8:21:e0:71:df:
                    5a:02:9d:3f:fa:84:9b:9c:9a:fd:49:53:63:ca:a3:
                    fc:97:f1:d1:47:46:1b:5f:f0:a9:df:9c:72:b7:85:
                    6a:c6:f2:ab:37:ec:94:37:03:ab:66:df:da:9d:af:
                    71:2f:a5:24:d0:f8:50:5c:b8:78:2b:4a:c2:e7:e3:
                    fb:3f:0d:97:4f:73:31:45:98:b5:ad:9f:7d:aa:eb:
                    c2:54:12:4f:f0:14:fa:af:3d:85:2a:6f:40:4c:db:
                    94:e1:25
                Exponent: 65537 (0x10001)
        X509v3 extensions:
            X509v3 Basic Constraints: 
                CA:FALSE
            Netscape Comment: 
                Easy-RSA Generated Certificate
            X509v3 Subject Key Identifier: 
                62:F1:63:EC:99:89:A7:36:07:12:D2:49:DB:33:DA:2F:88:ED:36:3A
            X509v3 Authority Key Identifier: 
                keyid:12:CD:60:04:D2:A0:80:9E:70:ED:C6:99:B8:7B:2C:C6:52:FD:19:A1
                DirName:/C=US/ST=OH/L=Columbus/O=VikingVPN/OU=MyOrganizationalUnit/CN=VikingVPN CA/name=EasyRSA/emailAddress=me@myhost.mydomain
                serial:CF:35:85:EE:80:BF:2A:3E

            X509v3 Extended Key Usage: 
                TLS Web Client Authentication
            X509v3 Key Usage: 
                Digital Signature
    Signature Algorithm: sha256WithRSAEncryption
         e6:eb:6b:8a:4a:cd:24:39:eb:31:b1:50:e8:0f:a9:e5:5d:ac:
         7b:3b:e3:92:34:bc:b0:79:f1:cf:11:46:bf:18:45:24:6d:d5:
         cf:7b:42:bb:42:68:40:1b:e5:14:f7:df:42:f8:1c:14:c9:4e:
         06:98:68:0e:ea:2c:c2:5d:67:5c:79:e0:52:fe:37:5f:23:0f:
         2b:fd:06:45:40:b1:6f:6c:ac:fb:f8:11:c3:5e:d7:1c:19:c8:
         41:45:e6:64:3a:34:4e:17:0f:00:61:f7:3d:6c:3d:8c:e4:5b:
         9e:46:82:94:6f:cf:63:0d:0f:e9:ad:de:02:97:1a:09:12:9a:
         3e:9a:62:e3:cd:c9:0f:1a:5a:7e:36:c5:1b:00:70:c5:d7:fc:
         54:bd:4b:2e:67:db:8a:30:89:4c:79:49:2f:f9:f4:55:5a:d6:
         43:d0:2e:6f:a2:4d:55:fd:41:a4:35:c5:6c:6e:7a:23:f3:f5:
         31:d7:30:e2:f3:69:1b:48:3e:84:d9:04:8e:30:16:b5:d8:06:
         52:8f:29:41:3c:8e:5b:d2:83:c0:a8:8b:83:5b:0e:7c:09:1c:
         00:8e:0f:e9:b1:fc:5d:1f:46:12:a2:91:1f:a4:1c:91:05:d4:
         c2:fe:b3:42:1d:2e:18:d0:4b:bd:66:2e:8d:89:78:c7:36:df:
         f5:53:bb:e8:05:11:b6:34:a4:53:7a:67:93:38:96:30:1d:a4:
         50:60:ef:2b:86:f0:51:36:5f:ea:58:11:02:a3:73:b9:8d:e5:
         48:6b:9b:b8:a1:30:44:80:a9:8e:62:d8:70:3e:51:40:55:fe:
         2d:ad:41:c2:c0:a8:1e:a0:6b:a9:eb:89:0e:e1:a0:54:9a:a7:
         90:0e:6d:9b:8a:20:80:46:1e:55:19:25:dc:3c:86:3e:d8:f5:
         da:e7:3a:5a:d3:fe:14:cd:09:04:b5:96:bb:97:2c:37:16:c2:
         11:09:9a:7e:64:a3:63:46:9d:2f:62:15:a0:7b:5c:4e:91:f4:
         3c:57:04:74:e2:c0:e0:c1:54:2e:ff:05:83:61:fb:f3:6a:67:
         d6:fe:99:c8:7f:27:24:b1:ac:16:c5:f4:3e:15:60:73:d1:22:
         d3:fb:2d:9d:3f:2c:31:5a:ca:82:af:b6:9d:5d:7a:6b:ca:49:
         8f:7f:d9:34:03:90:e4:d5:0f:d2:0f:9f:22:92:c7:2d:2c:ba:
         38:64:a7:61:6b:b1:02:29:8d:97:85:95:2d:b8:fc:04:3e:23:
         6b:e1:b0:10:6e:b6:98:8f:78:e4:2b:4a:8c:41:35:5b:86:66:
         3c:5b:83:3d:a7:31:a1:38:bf:9e:ae:a4:91:ed:72:b1:41:38:
         ca:b3:66:27:07:7d:ea:25
-----BEGIN CERTIFICATE-----
MIIGrTCCBJWgAwIBAgICKmMwDQYJKoZIhvcNAQELBQAwgawxCzAJBgNVBAYTAlVT
MQswCQYDVQQIEwJPSDERMA8GA1UEBxMIQ29sdW1idXMxEjAQBgNVBAoTCVZpa2lu
Z1ZQTjEdMBsGA1UECxMUTXlPcmdhbml6YXRpb25hbFVuaXQxFTATBgNVBAMTDFZp
a2luZ1ZQTiBDQTEQMA4GA1UEKRMHRWFzeVJTQTEhMB8GCSqGSIb3DQEJARYSbWVA
bXlob3N0Lm15ZG9tYWluMB4XDTE3MDUwMTAxNDQzMFoXDTI3MDQyOTAxNDQzMFow
HzEdMBsGA1UEAxMUQ2xpZW50Mjg4N0NlcnQ5NDk5OWUwggIiMA0GCSqGSIb3DQEB
AQUAA4ICDwAwggIKAoICAQC1INcnBXDHztQtqmoe6CbL1A47MEBsXiKOzXespdKd
rE1kxwW6kjkWp5GszPZQyKEWbVfIYZ6GdUQbsIqO9UTJodPxzXA/BwYhDR4pLG7O
f7iPBCu9+nhjxAcz47QwyTxU6FXiB+S+hycrmCosUR4sfKrO46X4J7df5WBTbKJQ
c0qj0HqPaYJLLPZFJN5FXEmVI1c7V1rCgsufPPejvaRAw7p5yNt04pg7dgAMqHE9
xKad5gUzf014SDJXm9NNRMs5eaD7mIaunpQjo+6TCjuL4OWbQ0w2xjaIDgno2dFN
TaqYDjbezmEOcNY2uqB1JcQPUXXvRD+V5e3tXutlWRJXP+JlLS/gdrxCHaHL3jps
M9qaR2mybUaIidbEjueux+F2KFqaEi+Ws7f3giGJLB47Kr9Z5iLMmQmDVakO/v76
iF+9tFqAaf1XH6uh+7WQecjf1YSOaCYYt28robAZA1Nnpm8XEgxv6EB3CzJPTAxE
fZGHKD7NgHQwWIMPlWzUgm+hIwDyVOL2p9gVW0V6Z5OI+Nd4ekDQZZdY0IoytTTo
IeBx31oCnT/6hJucmv1JU2PKo/yX8dFHRhtf8KnfnHK3hWrG8qs37JQ3A6tm39qd
r3EvpSTQ+FBcuHgrSsLn4/s/DZdPczFFmLWtn32q68JUEk/wFPqvPYUqb0BM25Th
JQIDAQABo4IBYzCCAV8wCQYDVR0TBAIwADAtBglghkgBhvhCAQ0EIBYeRWFzeS1S
U0EgR2VuZXJhdGVkIENlcnRpZmljYXRlMB0GA1UdDgQWBBRi8WPsmYmnNgcS0knb
M9oviO02OjCB4QYDVR0jBIHZMIHWgBQSzWAE0qCAnnDtxpm4eyzGUv0ZoaGBsqSB
rzCBrDELMAkGA1UEBhMCVVMxCzAJBgNVBAgTAk9IMREwDwYDVQQHEwhDb2x1bWJ1
czESMBAGA1UEChMJVmlraW5nVlBOMR0wGwYDVQQLExRNeU9yZ2FuaXphdGlvbmFs
VW5pdDEVMBMGA1UEAxMMVmlraW5nVlBOIENBMRAwDgYDVQQpEwdFYXN5UlNBMSEw
HwYJKoZIhvcNAQkBFhJtZUBteWhvc3QubXlkb21haW6CCQDPNYXugL8qPjATBgNV
HSUEDDAKBggrBgEFBQcDAjALBgNVHQ8EBAMCB4AwDQYJKoZIhvcNAQELBQADggIB
AObra4pKzSQ56zGxUOgPqeVdrHs745I0vLB58c8RRr8YRSRt1c97QrtCaEAb5RT3
30L4HBTJTgaYaA7qLMJdZ1x54FL+N18jDyv9BkVAsW9srPv4EcNe1xwZyEFF5mQ6
NE4XDwBh9z1sPYzkW55GgpRvz2MND+mt3gKXGgkSmj6aYuPNyQ8aWn42xRsAcMXX
/FS9Sy5n24owiUx5SS/59FVa1kPQLm+iTVX9QaQ1xWxueiPz9THXMOLzaRtIPoTZ
BI4wFrXYBlKPKUE8jlvSg8Coi4NbDnwJHACOD+mx/F0fRhKikR+kHJEF1ML+s0Id
LhjQS71mLo2JeMc23/VTu+gFEbY0pFN6Z5M4ljAdpFBg7yuG8FE2X+pYEQKjc7mN
5Uhrm7ihMESAqY5i2HA+UUBV/i2tQcLAqB6ga6nriQ7hoFSap5AObZuKIIBGHlUZ
Jdw8hj7Y9drnOlrT/hTNCQS1lruXLDcWwhEJmn5ko2NGnS9iFaB7XE6R9DxXBHTi
wODBVC7/BYNh+/NqZ9b+mch/JySxrBbF9D4VYHPRItP7LZ0/LDFayoKvtp1demvK
SY9/2TQDkOTVD9IPnyKSxy0sujhkp2FrsQIpjZeFlS24/AQ+I2vhsBButpiPeOQr
SoxBNVuGZjxbgz2nMaE4v56upJHtcrFBOMqzZicHfeol
-----END CERTIFICATE-----
