Certificate:
    Data:
        Version: 3 (0x2)
        Serial Number: 4384 (0x1120)
    Signature Algorithm: md5WithRSAEncryption
        Issuer: C=US, ST=OH, L=Columbus, O=VikingVPN, OU=MyOrganizationalUnit, CN=VikingVPN CA/name=EasyRSA/emailAddress=me@myhost.mydomain
        Validity
            Not Before: Feb  5 05:09:54 2015 GMT
            Not After : Feb  2 05:09:54 2025 GMT
        Subject: CN=Client1427Cert00f5c0
        Subject Public Key Info:
            Public Key Algorithm: rsaEncryption
                Public-Key: (4096 bit)
                Modulus:
                    00:b7:90:b9:ef:32:33:f7:10:70:38:bc:3a:24:17:
                    2c:3d:bd:6e:a2:1e:94:1f:dd:b9:7b:90:16:04:1d:
                    dd:f5:e4:a9:e2:7e:9a:66:02:a9:e3:b6:0f:49:6c:
                    dc:51:39:ac:75:e3:5e:5f:93:40:d7:cc:4b:4a:7d:
                    31:64:ba:10:ba:08:f0:17:19:67:d7:4d:87:54:f2:
                    44:46:51:4f:bd:e5:e3:7c:92:23:8c:db:eb:2f:7e:
                    f1:d0:5d:f4:10:9c:ba:e5:c8:b5:6f:2d:7a:72:fe:
                    a4:7b:c1:06:3c:e9:11:4f:7a:8e:e3:60:a9:c8:be:
                    b8:6f:c4:4d:c8:bd:f1:03:b5:95:23:8e:58:48:70:
                    d3:d1:ba:ed:f8:83:29:14:03:bb:e3:42:68:1d:c1:
                    e5:cf:0e:15:62:fb:16:2c:f3:b0:3e:7a:3c:dd:2c:
                    a4:8d:18:60:3b:b0:9c:b4:c4:ee:4b:56:ca:63:91:
                    50:f2:0a:da:59:fc:70:57:ec:bf:96:7c:2f:a5:a1:
                    7f:23:8f:00:f5:e1:50:c9:7c:21:6b:2f:f3:8e:24:
                    c5:54:fa:25:47:00:cb:c0:89:76:88:e0:cd:8e:f1:
                    4f:21:f2:7c:c1:15:b8:31:17:9b:e9:fb:0b:85:28:
                    b5:a8:64:04:7b:11:3a:97:16:ce:dc:33:06:ab:9b:
                    13:18:40:f7:fd:0b:b8:97:89:ac:71:b7:cb:8d:7e:
                    73:25:7b:d8:a2:a0:68:3e:a5:a7:10:a7:2f:dd:02:
                    d3:b5:2b:98:04:8c:f7:f3:4b:32:4c:d8:b3:21:2c:
                    36:11:d1:85:72:6b:27:8b:63:fe:d6:88:d5:c5:5c:
                    89:94:9d:c9:cd:ec:65:da:e5:2c:3f:4f:45:c7:cc:
                    03:3d:52:17:4b:df:b9:35:cd:b2:ab:a5:84:a8:00:
                    fd:a4:df:2b:85:31:35:f8:63:67:2e:10:4a:43:3a:
                    ac:54:11:41:47:c5:62:78:b0:05:44:ca:99:89:c3:
                    0e:08:7c:d9:de:89:d8:5e:2b:86:37:cb:98:25:6a:
                    aa:e6:d4:29:84:85:55:61:b6:e7:6d:14:50:a7:65:
                    61:bf:96:c3:8f:7a:60:f3:5e:c0:25:8f:77:c3:a3:
                    d7:68:43:30:ba:f7:41:f2:06:5f:8f:44:6e:bf:07:
                    09:4b:7e:8f:ac:3d:21:7a:94:76:2f:fa:b5:29:d7:
                    9c:b4:37:10:f0:e6:2b:a8:40:2c:a8:f4:41:9e:44:
                    e6:3f:ba:56:3c:80:a5:e9:c4:0e:ab:b0:af:3e:1a:
                    f9:97:8c:b5:36:3e:b2:5b:73:eb:18:ce:62:99:59:
                    9f:23:ca:5d:26:cd:2e:ae:d6:f4:d5:60:db:be:07:
                    32:48:e3
                Exponent: 65537 (0x10001)
        X509v3 extensions:
            X509v3 Basic Constraints: 
                CA:FALSE
            Netscape Comment: 
                Easy-RSA Generated Certificate
            X509v3 Subject Key Identifier: 
                89:C7:21:A5:EA:A8:9B:75:77:E9:AA:64:0B:76:9A:04:35:9B:49:C5
            X509v3 Authority Key Identifier: 
                keyid:12:CD:60:04:D2:A0:80:9E:70:ED:C6:99:B8:7B:2C:C6:52:FD:19:A1
                DirName:/C=US/ST=OH/L=Columbus/O=VikingVPN/OU=MyOrganizationalUnit/CN=VikingVPN CA/name=EasyRSA/emailAddress=me@myhost.mydomain
                serial:CF:35:85:EE:80:BF:2A:3E

            X509v3 Extended Key Usage: 
                TLS Web Client Authentication
            X509v3 Key Usage: 
                Digital Signature
    Signature Algorithm: md5WithRSAEncryption
         97:7e:2c:b6:52:be:2c:e5:22:63:ee:c3:de:da:89:b7:64:a0:
         08:1c:e0:5c:54:e0:4d:8b:11:8b:3d:7f:d8:ef:9d:90:d9:e4:
         dd:93:1e:fa:0c:25:0c:6f:48:bb:8d:5f:4d:29:8a:9d:62:ad:
         e0:c2:05:e2:01:f1:14:c6:71:16:b5:c9:66:23:0b:95:76:70:
         35:8b:06:f9:de:8e:1d:b7:2b:75:49:f4:87:6c:37:aa:a4:94:
         70:d0:95:23:f7:04:06:b9:d5:d6:34:39:88:22:a9:db:50:62:
         fa:f1:76:dc:3b:fe:33:94:6d:e3:68:a1:ba:0e:a9:40:3c:4b:
         0c:b5:a3:03:82:a1:17:c5:01:ea:5d:44:fa:6d:c2:d4:17:4a:
         29:6e:0a:24:fe:17:13:3d:de:77:41:59:cd:47:e2:53:be:16:
         21:08:4e:c0:23:5f:a2:3b:52:e5:b8:1b:9a:4d:9f:7e:bf:21:
         46:ea:42:e3:44:48:a2:70:2f:8d:f5:a8:8a:01:aa:21:f5:ea:
         a2:a7:e9:08:96:f5:b8:70:93:7b:97:25:52:3b:99:20:d8:6a:
         05:d8:72:11:80:4d:0a:7e:26:b1:a2:02:ae:cb:80:ba:5d:e8:
         15:6a:43:6d:fa:fd:d1:80:b9:1c:12:bb:06:9a:56:6e:a3:37:
         fe:e5:85:3b:e6:1a:40:aa:6e:67:cd:5c:74:c8:a6:f6:8e:01:
         ea:22:e2:b7:75:3a:49:4d:bf:0d:9b:4e:a8:37:20:42:01:ee:
         ca:d5:23:a9:e1:8b:30:82:bd:b3:d0:4b:d6:6b:b6:e3:67:24:
         24:f6:91:78:cf:9b:7b:3c:fb:c0:c9:07:66:32:73:e4:b9:9a:
         5e:92:73:e1:6f:1c:bc:89:56:26:67:bd:74:f9:f6:98:73:31:
         82:ff:b0:3b:85:a0:ab:08:e2:bf:94:a3:fa:f7:fb:cc:4b:4b:
         02:7a:77:bd:a6:d4:a1:9d:c3:8a:39:71:3e:d0:e8:ea:fa:66:
         18:72:64:39:6d:2b:0f:57:4d:21:a5:d6:d8:9b:a7:d1:e7:e2:
         97:df:fc:3d:a6:34:f0:82:eb:ec:34:07:e2:05:c9:4b:fe:b9:
         fa:3e:3a:2a:95:e3:52:9f:63:c6:4f:2a:e8:0f:d4:64:3f:ae:
         10:27:87:fb:46:19:c5:17:63:66:de:de:19:a6:1d:9f:fb:24:
         21:73:0d:47:9c:3b:4e:97:38:23:e8:07:28:e4:a5:39:c3:b1:
         d4:7b:8d:1e:14:ea:f2:2a:13:cf:b9:28:1d:46:d6:65:7f:84:
         12:e5:18:04:3a:9c:04:f7:62:c2:6d:03:c2:20:a8:60:5e:14:
         e5:79:56:a1:5e:f9:a8:ee
-----BEGIN CERTIFICATE-----
MIIGrTCCBJWgAwIBAgICESAwDQYJKoZIhvcNAQEEBQAwgawxCzAJBgNVBAYTAlVT
MQswCQYDVQQIEwJPSDERMA8GA1UEBxMIQ29sdW1idXMxEjAQBgNVBAoTCVZpa2lu
Z1ZQTjEdMBsGA1UECxMUTXlPcmdhbml6YXRpb25hbFVuaXQxFTATBgNVBAMTDFZp
a2luZ1ZQTiBDQTEQMA4GA1UEKRMHRWFzeVJTQTEhMB8GCSqGSIb3DQEJARYSbWVA
bXlob3N0Lm15ZG9tYWluMB4XDTE1MDIwNTA1MDk1NFoXDTI1MDIwMjA1MDk1NFow
HzEdMBsGA1UEAxMUQ2xpZW50MTQyN0NlcnQwMGY1YzAwggIiMA0GCSqGSIb3DQEB
AQUAA4ICDwAwggIKAoICAQC3kLnvMjP3EHA4vDokFyw9vW6iHpQf3bl7kBYEHd31
5KnifppmAqnjtg9JbNxROax1415fk0DXzEtKfTFkuhC6CPAXGWfXTYdU8kRGUU+9
5eN8kiOM2+svfvHQXfQQnLrlyLVvLXpy/qR7wQY86RFPeo7jYKnIvrhvxE3IvfED
tZUjjlhIcNPRuu34gykUA7vjQmgdweXPDhVi+xYs87A+ejzdLKSNGGA7sJy0xO5L
VspjkVDyCtpZ/HBX7L+WfC+loX8jjwD14VDJfCFrL/OOJMVU+iVHAMvAiXaI4M2O
8U8h8nzBFbgxF5vp+wuFKLWoZAR7ETqXFs7cMwarmxMYQPf9C7iXiaxxt8uNfnMl
e9iioGg+pacQpy/dAtO1K5gEjPfzSzJM2LMhLDYR0YVyayeLY/7WiNXFXImUncnN
7GXa5Sw/T0XHzAM9UhdL37k1zbKrpYSoAP2k3yuFMTX4Y2cuEEpDOqxUEUFHxWJ4
sAVEypmJww4IfNneidheK4Y3y5glaqrm1CmEhVVhtudtFFCnZWG/lsOPemDzXsAl
j3fDo9doQzC690HyBl+PRG6/BwlLfo+sPSF6lHYv+rUp15y0NxDw5iuoQCyo9EGe
ROY/ulY8gKXpxA6rsK8+GvmXjLU2PrJbc+sYzmKZWZ8jyl0mzS6u1vTVYNu+BzJI
4wIDAQABo4IBYzCCAV8wCQYDVR0TBAIwADAtBglghkgBhvhCAQ0EIBYeRWFzeS1S
U0EgR2VuZXJhdGVkIENlcnRpZmljYXRlMB0GA1UdDgQWBBSJxyGl6qibdXfpqmQL
dpoENZtJxTCB4QYDVR0jBIHZMIHWgBQSzWAE0qCAnnDtxpm4eyzGUv0ZoaGBsqSB
rzCBrDELMAkGA1UEBhMCVVMxCzAJBgNVBAgTAk9IMREwDwYDVQQHEwhDb2x1bWJ1
czESMBAGA1UEChMJVmlraW5nVlBOMR0wGwYDVQQLExRNeU9yZ2FuaXphdGlvbmFs
VW5pdDEVMBMGA1UEAxMMVmlraW5nVlBOIENBMRAwDgYDVQQpEwdFYXN5UlNBMSEw
HwYJKoZIhvcNAQkBFhJtZUBteWhvc3QubXlkb21haW6CCQDPNYXugL8qPjATBgNV
HSUEDDAKBggrBgEFBQcDAjALBgNVHQ8EBAMCB4AwDQYJKoZIhvcNAQEEBQADggIB
AJd+LLZSvizlImPuw97aibdkoAgc4FxU4E2LEYs9f9jvnZDZ5N2THvoMJQxvSLuN
X00pip1ireDCBeIB8RTGcRa1yWYjC5V2cDWLBvnejh23K3VJ9IdsN6qklHDQlSP3
BAa51dY0OYgiqdtQYvrxdtw7/jOUbeNooboOqUA8Swy1owOCoRfFAepdRPptwtQX
SiluCiT+FxM93ndBWc1H4lO+FiEITsAjX6I7UuW4G5pNn36/IUbqQuNESKJwL431
qIoBqiH16qKn6QiW9bhwk3uXJVI7mSDYagXYchGATQp+JrGiAq7LgLpd6BVqQ236
/dGAuRwSuwaaVm6jN/7lhTvmGkCqbmfNXHTIpvaOAeoi4rd1OklNvw2bTqg3IEIB
7srVI6nhizCCvbPQS9ZrtuNnJCT2kXjPm3s8+8DJB2Yyc+S5ml6Sc+FvHLyJViZn
vXT59phzMYL/sDuFoKsI4r+Uo/r3+8xLSwJ6d72m1KGdw4o5cT7Q6Or6ZhhyZDlt
Kw9XTSGl1tibp9Hn4pff/D2mNPCC6+w0B+IFyUv+ufo+OiqV41KfY8ZPKugP1GQ/
rhAnh/tGGcUXY2be3hmmHZ/7JCFzDUecO06XOCPoByjkpTnDsdR7jR4U6vIqE8+5
KB1G1mV/hBLlGAQ6nAT3YsJtA8IgqGBeFOV5VqFe+aju
-----END CERTIFICATE-----
